; Listing generated by Microsoft (R) Optimizing Compiler Version 15.00.30729.01 

	TITLE	D:\sources\Lekmod_git\checkout\LEKMOD_DLL\CvGameCoreDLL_Expansion2\CvAdvisorCounsel.cpp
	.686P
	.XMM
	include listing.inc
	.model	flat

INCLUDELIB MSVCRT
INCLUDELIB OLDNAMES

PUBLIC	?NO_QUEST_DATA@CvMinorCivQuest@@2HB		; CvMinorCivQuest::NO_QUEST_DATA
PUBLIC	?NO_TURN@CvMinorCivQuest@@2HB			; CvMinorCivQuest::NO_TURN
;	COMDAT ?NO_TURN@CvMinorCivQuest@@2HB
CONST	SEGMENT
?NO_TURN@CvMinorCivQuest@@2HB DD 0ffffffffH		; CvMinorCivQuest::NO_TURN
CONST	ENDS
;	COMDAT ?NO_QUEST_DATA@CvMinorCivQuest@@2HB
CONST	SEGMENT
?NO_QUEST_DATA@CvMinorCivQuest@@2HB DD 0ffffffffH	; CvMinorCivQuest::NO_QUEST_DATA
CONST	ENDS
PUBLIC	??1?$FFastVector@UCounsel@CvAdvisorCounsel@@$00$0BCJ@$0A@UFDefaultFastVectorAllocator@?$BaseVector@UCounsel@CvAdvisorCounsel@@$00@@@@QAE@XZ ; FFastVector<CvAdvisorCounsel::Counsel,1,297,0,BaseVector<CvAdvisorCounsel::Counsel,1>::FDefaultFastVectorAllocator>::~FFastVector<CvAdvisorCounsel::Counsel,1,297,0,BaseVector<CvAdvisorCounsel::Counsel,1>::FDefaultFastVectorAllocator>
PUBLIC	?Init@CvAdvisorCounsel@@QAEXXZ			; CvAdvisorCounsel::Init
PUBLIC	??0?$FFastVector@UCounsel@CvAdvisorCounsel@@$00$0BCJ@$0A@UFDefaultFastVectorAllocator@?$BaseVector@UCounsel@CvAdvisorCounsel@@$00@@@@QAE@I@Z ; FFastVector<CvAdvisorCounsel::Counsel,1,297,0,BaseVector<CvAdvisorCounsel::Counsel,1>::FDefaultFastVectorAllocator>::FFastVector<CvAdvisorCounsel::Counsel,1,297,0,BaseVector<CvAdvisorCounsel::Counsel,1>::FDefaultFastVectorAllocator>
PUBLIC	??0CvAdvisorCounsel@@QAE@XZ			; CvAdvisorCounsel::CvAdvisorCounsel
EXTRN	___security_cookie:DWORD
EXTRN	___CxxFrameHandler3:PROC
EXTRN	@__security_check_cookie@4:PROC
;	COMDAT xdata$x
; File d:\sources\lekmod_git\checkout\lekmod_dll\fireplace\include\fireworks\ffastvector.h
xdata$x	SEGMENT
__unwindtable$??0CvAdvisorCounsel@@QAE@XZ DD 0ffffffffH
	DD	FLAT:__unwindfunclet$??0CvAdvisorCounsel@@QAE@XZ$0
__ehfuncinfo$??0CvAdvisorCounsel@@QAE@XZ DD 019930522H
	DD	01H
	DD	FLAT:__unwindtable$??0CvAdvisorCounsel@@QAE@XZ
	DD	2 DUP(00H)
	DD	2 DUP(00H)
	DD	00H
	DD	01H
; Function compile flags: /Odtp
; File d:\sources\lekmod_git\checkout\lekmod_dll\cvgamecoredll_expansion2\cvadvisorcounsel.cpp
xdata$x	ENDS
;	COMDAT ??0CvAdvisorCounsel@@QAE@XZ
_TEXT	SEGMENT
_this$ = -24						; size = 4
__$EHRec$ = -12						; size = 12
??0CvAdvisorCounsel@@QAE@XZ PROC			; CvAdvisorCounsel::CvAdvisorCounsel, COMDAT
; _this$ = ecx

; 23   : {

	push	ebp
	mov	ebp, esp
	push	-1
	push	__ehhandler$??0CvAdvisorCounsel@@QAE@XZ
	mov	eax, DWORD PTR fs:0
	push	eax
	sub	esp, 12					; 0000000cH
	mov	eax, DWORD PTR ___security_cookie
	xor	eax, ebp
	push	eax
	lea	eax, DWORD PTR __$EHRec$[ebp]
	mov	DWORD PTR fs:0, eax
	mov	DWORD PTR _this$[ebp], ecx
	push	0
	mov	ecx, DWORD PTR _this$[ebp]
	call	??0?$FFastVector@UCounsel@CvAdvisorCounsel@@$00$0BCJ@$0A@UFDefaultFastVectorAllocator@?$BaseVector@UCounsel@CvAdvisorCounsel@@$00@@@@QAE@I@Z ; FFastVector<CvAdvisorCounsel::Counsel,1,297,0,BaseVector<CvAdvisorCounsel::Counsel,1>::FDefaultFastVectorAllocator>::FFastVector<CvAdvisorCounsel::Counsel,1,297,0,BaseVector<CvAdvisorCounsel::Counsel,1>::FDefaultFastVectorAllocator>
	mov	DWORD PTR __$EHRec$[ebp+8], 0

; 24   : 	Init();

	mov	ecx, DWORD PTR _this$[ebp]
	call	?Init@CvAdvisorCounsel@@QAEXXZ		; CvAdvisorCounsel::Init

; 25   : }

	mov	DWORD PTR __$EHRec$[ebp+8], -1
	mov	eax, DWORD PTR _this$[ebp]
	mov	ecx, DWORD PTR __$EHRec$[ebp]
	mov	DWORD PTR fs:0, ecx
	pop	ecx
	mov	esp, ebp
	pop	ebp
	ret	0
_TEXT	ENDS
;	COMDAT text$x
text$x	SEGMENT
__unwindfunclet$??0CvAdvisorCounsel@@QAE@XZ$0:
	mov	ecx, DWORD PTR _this$[ebp]
	jmp	??1?$FFastVector@UCounsel@CvAdvisorCounsel@@$00$0BCJ@$0A@UFDefaultFastVectorAllocator@?$BaseVector@UCounsel@CvAdvisorCounsel@@$00@@@@QAE@XZ ; FFastVector<CvAdvisorCounsel::Counsel,1,297,0,BaseVector<CvAdvisorCounsel::Counsel,1>::FDefaultFastVectorAllocator>::~FFastVector<CvAdvisorCounsel::Counsel,1,297,0,BaseVector<CvAdvisorCounsel::Counsel,1>::FDefaultFastVectorAllocator>
__ehhandler$??0CvAdvisorCounsel@@QAE@XZ:
	mov	edx, DWORD PTR [esp+8]
	lea	eax, DWORD PTR [edx+12]
	mov	ecx, DWORD PTR [edx-16]
	xor	ecx, eax
	call	@__security_check_cookie@4
	mov	eax, OFFSET __ehfuncinfo$??0CvAdvisorCounsel@@QAE@XZ
	jmp	___CxxFrameHandler3
text$x	ENDS
??0CvAdvisorCounsel@@QAE@XZ ENDP			; CvAdvisorCounsel::CvAdvisorCounsel
PUBLIC	??1?$BaseVector@UCounsel@CvAdvisorCounsel@@$00@@QAE@XZ ; BaseVector<CvAdvisorCounsel::Counsel,1>::~BaseVector<CvAdvisorCounsel::Counsel,1>
PUBLIC	?Uninit@CvAdvisorCounsel@@QAEXXZ		; CvAdvisorCounsel::Uninit
PUBLIC	??1CvAdvisorCounsel@@QAE@XZ			; CvAdvisorCounsel::~CvAdvisorCounsel
EXTRN	?FireFreeAlignedNoTracking@@YAXPAX@Z:PROC	; FireFreeAlignedNoTracking
;	COMDAT xdata$x
; File d:\sources\lekmod_git\checkout\lekmod_dll\fireplace\include\fireworks\ffastvector.h
xdata$x	SEGMENT
__unwindtable$??1CvAdvisorCounsel@@QAE@XZ DD 0ffffffffH
	DD	FLAT:__unwindfunclet$??1CvAdvisorCounsel@@QAE@XZ$0
	DD	0ffffffffH
	DD	FLAT:__unwindfunclet$??1CvAdvisorCounsel@@QAE@XZ$1
__ehfuncinfo$??1CvAdvisorCounsel@@QAE@XZ DD 019930522H
	DD	02H
	DD	FLAT:__unwindtable$??1CvAdvisorCounsel@@QAE@XZ
	DD	2 DUP(00H)
	DD	2 DUP(00H)
	DD	00H
	DD	01H
; Function compile flags: /Odtp
; File d:\sources\lekmod_git\checkout\lekmod_dll\cvgamecoredll_expansion2\cvadvisorcounsel.cpp
xdata$x	ENDS
;	COMDAT ??1CvAdvisorCounsel@@QAE@XZ
_TEXT	SEGMENT
_this$ = -28						; size = 4
$T224633 = -24						; size = 4
$T224632 = -20						; size = 4
_i$224642 = -16						; size = 4
__$EHRec$ = -12						; size = 12
??1CvAdvisorCounsel@@QAE@XZ PROC			; CvAdvisorCounsel::~CvAdvisorCounsel, COMDAT
; _this$ = ecx

; 28   : {

	push	ebp
	mov	ebp, esp
	push	-1
	push	__ehhandler$??1CvAdvisorCounsel@@QAE@XZ
	mov	eax, DWORD PTR fs:0
	push	eax
	sub	esp, 16					; 00000010H
	mov	eax, DWORD PTR ___security_cookie
	xor	eax, ebp
	push	eax
	lea	eax, DWORD PTR __$EHRec$[ebp]
	mov	DWORD PTR fs:0, eax
	mov	DWORD PTR _this$[ebp], ecx
	mov	DWORD PTR __$EHRec$[ebp+8], 0

; 29   : 	Uninit();

	mov	ecx, DWORD PTR _this$[ebp]
	call	?Uninit@CvAdvisorCounsel@@QAEXXZ	; CvAdvisorCounsel::Uninit

; 30   : }

	mov	DWORD PTR __$EHRec$[ebp+8], 1
	mov	eax, DWORD PTR _this$[ebp]
	mov	ecx, DWORD PTR [eax+4]
	mov	DWORD PTR $T224633[ebp], ecx
	mov	edx, DWORD PTR _this$[ebp]
	mov	eax, DWORD PTR [edx]
	mov	DWORD PTR $T224632[ebp], eax
	xor	ecx, ecx
	je	SHORT $LN7@CvAdvisorC
	xor	edx, edx
	je	SHORT $LN7@CvAdvisorC
	mov	DWORD PTR _i$224642[ebp], 0
	jmp	SHORT $LN12@CvAdvisorC
$LN11@CvAdvisorC:
	mov	eax, DWORD PTR _i$224642[ebp]
	add	eax, 1
	mov	DWORD PTR _i$224642[ebp], eax
$LN12@CvAdvisorC:
	mov	ecx, DWORD PTR _i$224642[ebp]
	cmp	ecx, DWORD PTR $T224633[ebp]
	jae	SHORT $LN7@CvAdvisorC
	jmp	SHORT $LN11@CvAdvisorC
$LN7@CvAdvisorC:
	mov	edx, DWORD PTR $T224632[ebp]
	push	edx
	call	?FireFreeAlignedNoTracking@@YAXPAX@Z	; FireFreeAlignedNoTracking
	add	esp, 4
	mov	DWORD PTR __$EHRec$[ebp+8], -1
	mov	ecx, DWORD PTR __$EHRec$[ebp]
	mov	DWORD PTR fs:0, ecx
	pop	ecx
	mov	esp, ebp
	pop	ebp
	ret	0
_TEXT	ENDS
;	COMDAT text$x
text$x	SEGMENT
__unwindfunclet$??1CvAdvisorCounsel@@QAE@XZ$0:
	mov	ecx, DWORD PTR _this$[ebp]
	jmp	??1?$FFastVector@UCounsel@CvAdvisorCounsel@@$00$0BCJ@$0A@UFDefaultFastVectorAllocator@?$BaseVector@UCounsel@CvAdvisorCounsel@@$00@@@@QAE@XZ ; FFastVector<CvAdvisorCounsel::Counsel,1,297,0,BaseVector<CvAdvisorCounsel::Counsel,1>::FDefaultFastVectorAllocator>::~FFastVector<CvAdvisorCounsel::Counsel,1,297,0,BaseVector<CvAdvisorCounsel::Counsel,1>::FDefaultFastVectorAllocator>
__unwindfunclet$??1CvAdvisorCounsel@@QAE@XZ$1:
	mov	ecx, DWORD PTR _this$[ebp]
	jmp	??1?$BaseVector@UCounsel@CvAdvisorCounsel@@$00@@QAE@XZ ; BaseVector<CvAdvisorCounsel::Counsel,1>::~BaseVector<CvAdvisorCounsel::Counsel,1>
__ehhandler$??1CvAdvisorCounsel@@QAE@XZ:
	mov	edx, DWORD PTR [esp+8]
	lea	eax, DWORD PTR [edx+12]
	mov	ecx, DWORD PTR [edx-20]
	xor	ecx, eax
	call	@__security_check_cookie@4
	mov	eax, OFFSET __ehfuncinfo$??1CvAdvisorCounsel@@QAE@XZ
	jmp	___CxxFrameHandler3
text$x	ENDS
??1CvAdvisorCounsel@@QAE@XZ ENDP			; CvAdvisorCounsel::~CvAdvisorCounsel
PUBLIC	?Reset@CvAdvisorCounsel@@QAEXXZ			; CvAdvisorCounsel::Reset
PUBLIC	?GrowSize@?$FFastVector@UCounsel@CvAdvisorCounsel@@$00$0BCJ@$0A@UFDefaultFastVectorAllocator@?$BaseVector@UCounsel@CvAdvisorCounsel@@$00@@@@IAEXI@Z ; FFastVector<CvAdvisorCounsel::Counsel,1,297,0,BaseVector<CvAdvisorCounsel::Counsel,1>::FDefaultFastVectorAllocator>::GrowSize
; Function compile flags: /Odtp
;	COMDAT ?Init@CvAdvisorCounsel@@QAEXXZ
_TEXT	SEGMENT
tv236 = -60						; size = 4
_this$ = -56						; size = 4
$T224724 = -52						; size = 4
$T224715 = -48						; size = 4
$T224718 = -44						; size = 4
?Init@CvAdvisorCounsel@@QAEXXZ PROC			; CvAdvisorCounsel::Init, COMDAT
; _this$ = ecx

; 33   : {

	push	ebp
	mov	ebp, esp
	sub	esp, 60					; 0000003cH
	mov	DWORD PTR _this$[ebp], ecx

; 34   : 	m_aCounsel.resize(NUM_COUNSEL_SLOTS);

	mov	DWORD PTR $T224724[ebp], 50		; 00000032H
	mov	eax, DWORD PTR _this$[ebp]
	mov	ecx, DWORD PTR [eax+8]
	cmp	ecx, DWORD PTR $T224724[ebp]
	jae	SHORT $LN3@Init
	mov	edx, DWORD PTR $T224724[ebp]
	push	edx
	mov	ecx, DWORD PTR _this$[ebp]
	call	?GrowSize@?$FFastVector@UCounsel@CvAdvisorCounsel@@$00$0BCJ@$0A@UFDefaultFastVectorAllocator@?$BaseVector@UCounsel@CvAdvisorCounsel@@$00@@@@IAEXI@Z ; FFastVector<CvAdvisorCounsel::Counsel,1,297,0,BaseVector<CvAdvisorCounsel::Counsel,1>::FDefaultFastVectorAllocator>::GrowSize
$LN3@Init:
	mov	eax, DWORD PTR _this$[ebp]
	add	eax, 8
	mov	DWORD PTR $T224715[ebp], eax
	mov	ecx, DWORD PTR $T224715[ebp]
	mov	edx, DWORD PTR [ecx]
	cmp	edx, DWORD PTR $T224724[ebp]
	jae	SHORT $LN41@Init
	mov	eax, DWORD PTR $T224715[ebp]
	mov	DWORD PTR tv236[ebp], eax
	jmp	SHORT $LN42@Init
$LN41@Init:
	lea	ecx, DWORD PTR $T224724[ebp]
	mov	DWORD PTR tv236[ebp], ecx
$LN42@Init:
	mov	edx, DWORD PTR tv236[ebp]
	mov	DWORD PTR $T224718[ebp], edx
	mov	eax, DWORD PTR _this$[ebp]
	mov	ecx, DWORD PTR $T224718[ebp]
	mov	edx, DWORD PTR [ecx]
	mov	DWORD PTR [eax+4], edx

; 35   : 	Reset();

	mov	ecx, DWORD PTR _this$[ebp]
	call	?Reset@CvAdvisorCounsel@@QAEXXZ		; CvAdvisorCounsel::Reset

; 36   : }

	mov	esp, ebp
	pop	ebp
	ret	0
?Init@CvAdvisorCounsel@@QAEXXZ ENDP			; CvAdvisorCounsel::Init
; Function compile flags: /Odtp
_TEXT	ENDS
;	COMDAT ?Uninit@CvAdvisorCounsel@@QAEXXZ
_TEXT	SEGMENT
_this$ = -8						; size = 4
_i$224740 = -4						; size = 4
?Uninit@CvAdvisorCounsel@@QAEXXZ PROC			; CvAdvisorCounsel::Uninit, COMDAT
; _this$ = ecx

; 39   : {

	push	ebp
	mov	ebp, esp
	sub	esp, 8
	mov	DWORD PTR _this$[ebp], ecx

; 40   : 	m_aCounsel.clear();

	xor	eax, eax
	je	SHORT $LN9@Uninit
	mov	DWORD PTR _i$224740[ebp], 0
	jmp	SHORT $LN7@Uninit
$LN6@Uninit:
	mov	ecx, DWORD PTR _i$224740[ebp]
	add	ecx, 1
	mov	DWORD PTR _i$224740[ebp], ecx
$LN7@Uninit:
	mov	edx, DWORD PTR _this$[ebp]
	mov	eax, DWORD PTR _i$224740[ebp]
	cmp	eax, DWORD PTR [edx+4]
	jae	SHORT $LN9@Uninit
	jmp	SHORT $LN6@Uninit
$LN9@Uninit:
	mov	ecx, DWORD PTR _this$[ebp]
	mov	DWORD PTR [ecx+4], 0

; 41   : }

	mov	esp, ebp
	pop	ebp
	ret	0
?Uninit@CvAdvisorCounsel@@QAEXXZ ENDP			; CvAdvisorCounsel::Uninit
; Function compile flags: /Odtp
_TEXT	ENDS
;	COMDAT ?Reset@CvAdvisorCounsel@@QAEXXZ
_TEXT	SEGMENT
_this$ = -12						; size = 4
$T224750 = -8						; size = 4
_ui$222799 = -4						; size = 4
?Reset@CvAdvisorCounsel@@QAEXXZ PROC			; CvAdvisorCounsel::Reset, COMDAT
; _this$ = ecx

; 44   : {

	push	ebp
	mov	ebp, esp
	sub	esp, 12					; 0000000cH
	mov	DWORD PTR _this$[ebp], ecx

; 45   : 	for(uint ui = 0; ui < m_aCounsel.size(); ui++)

	mov	DWORD PTR _ui$222799[ebp], 0
	jmp	SHORT $LN3@Reset
$LN2@Reset:
	mov	eax, DWORD PTR _ui$222799[ebp]
	add	eax, 1
	mov	DWORD PTR _ui$222799[ebp], eax
$LN3@Reset:
	mov	ecx, DWORD PTR _this$[ebp]
	mov	edx, DWORD PTR [ecx+4]
	mov	DWORD PTR $T224750[ebp], edx
	mov	eax, DWORD PTR _ui$222799[ebp]
	cmp	eax, DWORD PTR $T224750[ebp]
	jae	SHORT $LN4@Reset

; 46   : 	{
; 47   : 		m_aCounsel[ui].m_eAdvisor = NO_ADVISOR_TYPE;

	mov	ecx, DWORD PTR _ui$222799[ebp]
	imul	ecx, 520				; 00000208H
	mov	edx, DWORD PTR _this$[ebp]
	mov	eax, DWORD PTR [edx]
	mov	DWORD PTR [ecx+eax], -1

; 48   : 		m_aCounsel[ui].m_iValue = -1;

	mov	ecx, DWORD PTR _ui$222799[ebp]
	imul	ecx, 520				; 00000208H
	mov	edx, DWORD PTR _this$[ebp]
	mov	eax, DWORD PTR [edx]
	mov	DWORD PTR [eax+ecx+516], -1
	jmp	SHORT $LN2@Reset
$LN4@Reset:

; 49   : 	}
; 50   : }

	mov	esp, ebp
	pop	ebp
	ret	0
?Reset@CvAdvisorCounsel@@QAEXXZ ENDP			; CvAdvisorCounsel::Reset
_TEXT	ENDS
PUBLIC	?CounselSort@@YA_NUCounsel@CvAdvisorCounsel@@0@Z ; CounselSort
; Function compile flags: /Odtp
;	COMDAT ?CounselSort@@YA_NUCounsel@CvAdvisorCounsel@@0@Z
_TEXT	SEGMENT
_eCounselAdvisor1$222808 = -12				; size = 4
_eCounselAdvisor2$222809 = -8				; size = 4
_Counsel1$ = 8						; size = 520
_Counsel2$ = 528					; size = 520
?CounselSort@@YA_NUCounsel@CvAdvisorCounsel@@0@Z PROC	; CounselSort, COMDAT

; 57   : {

	push	ebp
	mov	ebp, esp
	sub	esp, 12					; 0000000cH

; 58   : 	// if the advisors are different types
; 59   : 	if(Counsel1.m_eAdvisor != Counsel2.m_eAdvisor)

	mov	eax, DWORD PTR _Counsel1$[ebp]
	cmp	eax, DWORD PTR _Counsel2$[ebp]
	je	SHORT $LN3@CounselSor

; 60   : 	{
; 61   : 		// adjust the advisor values so that empty values will be moved to the end of the list
; 62   : 		AdvisorTypes eCounselAdvisor1 = Counsel1.m_eAdvisor;

	mov	ecx, DWORD PTR _Counsel1$[ebp]
	mov	DWORD PTR _eCounselAdvisor1$222808[ebp], ecx

; 63   : 		AdvisorTypes eCounselAdvisor2 = Counsel2.m_eAdvisor;

	mov	edx, DWORD PTR _Counsel2$[ebp]
	mov	DWORD PTR _eCounselAdvisor2$222809[ebp], edx

; 64   : 		if(eCounselAdvisor1 == NO_ADVISOR_TYPE)

	cmp	DWORD PTR _eCounselAdvisor1$222808[ebp], -1
	jne	SHORT $LN2@CounselSor

; 65   : 		{
; 66   : 			eCounselAdvisor1 = NUM_ADVISOR_TYPES;

	mov	DWORD PTR _eCounselAdvisor1$222808[ebp], 4
$LN2@CounselSor:

; 67   : 		}
; 68   : 
; 69   : 		if(eCounselAdvisor2 == NO_ADVISOR_TYPE)

	cmp	DWORD PTR _eCounselAdvisor2$222809[ebp], -1
	jne	SHORT $LN1@CounselSor

; 70   : 		{
; 71   : 			eCounselAdvisor2 = NUM_ADVISOR_TYPES;

	mov	DWORD PTR _eCounselAdvisor2$222809[ebp], 4
$LN1@CounselSor:

; 72   : 		}
; 73   : 
; 74   : 		return eCounselAdvisor1 < eCounselAdvisor2;

	mov	eax, DWORD PTR _eCounselAdvisor1$222808[ebp]
	xor	ecx, ecx
	cmp	eax, DWORD PTR _eCounselAdvisor2$222809[ebp]
	setl	cl
	mov	al, cl
	jmp	SHORT $LN4@CounselSor
$LN3@CounselSor:

; 75   : 	}
; 76   : 
; 77   : 	return Counsel1.m_iValue > Counsel2.m_iValue;

	mov	edx, DWORD PTR _Counsel1$[ebp+516]
	xor	eax, eax
	cmp	edx, DWORD PTR _Counsel2$[ebp+516]
	setg	al
$LN4@CounselSor:

; 78   : }

	mov	esp, ebp
	pop	ebp
	ret	0
?CounselSort@@YA_NUCounsel@CvAdvisorCounsel@@0@Z ENDP	; CounselSort
_TEXT	ENDS
PUBLIC	??1CvString@@QAE@XZ				; CvString::~CvString
PUBLIC	??_C@_0CM@PKICLJIL@TXT_KEY_BASESTRATEGY_NOTHING_TO_@ ; `string'
PUBLIC	??_C@_0CN@LNNHNIEF@TXT_KEY_BASESTRATEGY_NOTHING_TO_@ ; `string'
PUBLIC	??_C@_0CN@EGJKODNB@TXT_KEY_BASESTRATEGY_NOTHING_TO_@ ; `string'
PUBLIC	??_C@_0CM@BJECFHEG@TXT_KEY_BASESTRATEGY_NOTHING_TO_@ ; `string'
PUBLIC	??_C@_0CJ@EOGPFPMC@TXT_KEY_RESOURCESTRATEGY_TRADE_S@ ; `string'
PUBLIC	??_C@_0CI@HBNCHAJI@TXT_KEY_RESOURCESTRATEGY_TRADE_L@ ; `string'
PUBLIC	??_C@_0DM@FPBLCMMM@TXT_KEY_CITYIMPROVEMENTSTRATEGY_@ ; `string'
PUBLIC	??_C@_0DM@BIIJGPLA@TXT_KEY_CITYIMPROVEMENTSTRATEGY_@ ; `string'
PUBLIC	??_C@_0DG@EELBGMLO@TXT_KEY_SCIENCESTRATEGY_RESEARCH@ ; `string'
PUBLIC	??_C@_0BJ@BGJEFLOC@BUILDINGCLASS_LABORATORY?$AA@ ; `string'
PUBLIC	??_C@_0BM@NIILIFPA@BUILDINGCLASS_PUBLIC_SCHOOL?$AA@ ; `string'
PUBLIC	??_C@_0BJ@GHHIGDPH@BUILDINGCLASS_UNIVERSITY?$AA@ ; `string'
PUBLIC	??_C@_0BG@BEAOAFMH@BUILDINGCLASS_LIBRARY?$AA@	; `string'
PUBLIC	??_C@_0DJ@JJFANJMP@TXT_KEY_DIPLOSTRATEGY_BEFRIEND_C@ ; `string'
PUBLIC	??_C@_0DI@MEAPCOLG@TXT_KEY_DIPLOSTRATEGY_ALMOST_LOS@ ; `string'
PUBLIC	??_C@_0EH@JIJFBKKE@TXT_KEY_DIPLOSTRATEGY_ALMOST_LOS@ ; `string'
PUBLIC	??_C@_0DC@EGOKBOPG@TXT_KEY_DIPLOSTRATEGY_ALMOST_LOS@ ; `string'
PUBLIC	??_C@_0EB@MGPCJIEI@TXT_KEY_DIPLOSTRATEGY_ALMOST_LOS@ ; `string'
PUBLIC	??_C@_0CK@EJBBGNEK@TXT_KEY_DIPLOSTRATEGY_LIBERATE_C@ ; `string'
PUBLIC	??_C@_0CF@IKKLDLIM@TXT_KEY_FINANCESTRATEGY_MAKING_M@ ; `string'
PUBLIC	??_C@_0CP@DHNHOANE@TXT_KEY_FINANCESTRATEGY_MAKING_M@ ; `string'
PUBLIC	??_C@_0DN@MDPKJHOM@TXT_KEY_FINANCESTRATEGY_MAKING_M@ ; `string'
PUBLIC	??_C@_0DK@CNMOIANL@TXT_KEY_FINANCESTRATEGY_MAKING_M@ ; `string'
PUBLIC	??_C@_0DB@KMNHINLL@TXT_KEY_FINANCESTRATEGY_MAKING_M@ ; `string'
PUBLIC	??_C@_0DG@GNBHFMMP@TXT_KEY_FINANCESTRATEGY_MAKING_M@ ; `string'
PUBLIC	??_C@_0CF@KKDJBEJJ@TXT_KEY_FINANCESTRATEGY_LOSING_M@ ; `string'
PUBLIC	??_C@_0CP@JAAGNBK@TXT_KEY_FINANCESTRATEGY_LOSING_M@ ; `string'
PUBLIC	??_C@_0DN@HPNFCDGP@TXT_KEY_FINANCESTRATEGY_LOSING_M@ ; `string'
PUBLIC	??_C@_0DK@CNMLGIKD@TXT_KEY_FINANCESTRATEGY_LOSING_M@ ; `string'
PUBLIC	??_C@_0DB@GKKHLGDB@TXT_KEY_FINANCESTRATEGY_LOSING_M@ ; `string'
PUBLIC	??_C@_0DG@HIDKJDME@TXT_KEY_FINANCESTRATEGY_LOSING_M@ ; `string'
PUBLIC	??_C@_0CE@BENNONKH@TXT_KEY_FINANCESTRATEGY_GOING_BR@ ; `string'
PUBLIC	??_C@_0CO@DCLPLFDG@TXT_KEY_FINANCESTRATEGY_GOING_BR@ ; `string'
PUBLIC	??_C@_0DM@GGJGABFM@TXT_KEY_FINANCESTRATEGY_GOING_BR@ ; `string'
PUBLIC	??_C@_0DJ@KCPBPKGJ@TXT_KEY_FINANCESTRATEGY_GOING_BR@ ; `string'
PUBLIC	??_C@_0DA@NLJOLMMG@TXT_KEY_FINANCESTRATEGY_GOING_BR@ ; `string'
PUBLIC	??_C@_0DF@DLPHLOAL@TXT_KEY_FINANCESTRATEGY_GOING_BR@ ; `string'
PUBLIC	??_C@_0CL@DKOGLIOM@TXT_KEY_FINANCESTRATEGY_BROKE_AN@ ; `string'
PUBLIC	??_C@_0DF@CLAFEALC@TXT_KEY_FINANCESTRATEGY_BROKE_AN@ ; `string'
PUBLIC	??_C@_0ED@LAJKMAOO@TXT_KEY_FINANCESTRATEGY_BROKE_AN@ ; `string'
PUBLIC	??_C@_0EA@CNBCJLKK@TXT_KEY_FINANCESTRATEGY_BROKE_AN@ ; `string'
PUBLIC	??_C@_0DH@EJKGPOKA@TXT_KEY_FINANCESTRATEGY_BROKE_AN@ ; `string'
PUBLIC	??_C@_0DM@HFJHPAOA@TXT_KEY_FINANCESTRATEGY_BROKE_AN@ ; `string'
PUBLIC	??_C@_0CN@GFICBOPN@TXT_KEY_FINANCESTRATEGY_BROKE_AN@ ; `string'
PUBLIC	??_C@_0EF@EHAPGEEB@TXT_KEY_FINANCESTRATEGY_BROKE_AN@ ; `string'
PUBLIC	??_C@_0DH@PFOLGGBN@TXT_KEY_FINANCESTRATEGY_BROKE_AN@ ; `string'
PUBLIC	??_C@_0EC@OMLHJIOE@TXT_KEY_FINANCESTRATEGY_BROKE_AN@ ; `string'
PUBLIC	??_C@_0DJ@LCDEAFJF@TXT_KEY_FINANCESTRATEGY_BROKE_AN@ ; `string'
PUBLIC	??_C@_0DO@EEOOACFI@TXT_KEY_FINANCESTRATEGY_BROKE_AN@ ; `string'
PUBLIC	??_C@_0DF@DLEIGOFD@TXT_KEY_DIPLOSTRATEGY_MINOR_CIV_@ ; `string'
PUBLIC	??_C@_0DF@PLLLPJHO@TXT_KEY_DIPLOSTRATEGY_MINOR_CIV_@ ; `string'
PUBLIC	??_C@_0DD@PDCBJMBB@TXT_KEY_DIPLOSTRATEGY_MINOR_CIV_@ ; `string'
PUBLIC	??_C@_0DA@NAIENAMF@TXT_KEY_DIPLOSTRATEGY_WARMONGER_@ ; `string'
PUBLIC	??_C@_0CO@PMBHOKJF@TXT_KEY_DIPLOSTRATEGY_WARMONGER_@ ; `string'
PUBLIC	??_C@_0CN@HDNAPEJO@TXT_KEY_DIPLOSTRATEGY_WARMONGER_@ ; `string'
PUBLIC	??_C@_0CN@MMMCCIAI@TXT_KEY_DIPLOSTRATEGY_WARMONGER_@ ; `string'
PUBLIC	??_C@_0CM@NDBOGAOK@TXT_KEY_DIPLOSTRATEGY_WARMONGER_@ ; `string'
PUBLIC	??_C@_0DO@FOHNGOKH@TXT_KEY_DIPLOSTRATEGY_EXPANSION_@ ; `string'
PUBLIC	??_C@_0DI@MKFCKNHK@TXT_KEY_DIPLOSTRATEGY_EXPANSION_@ ; `string'
PUBLIC	??_C@_0DK@IIPBKLAB@TXT_KEY_DIPLOSTRATEGY_EXPANSION_@ ; `string'
PUBLIC	??_C@_0DN@OCKMAICG@TXT_KEY_DIPLOSTRATEGY_MILITARY_A@ ; `string'
PUBLIC	??_C@_0DH@MLKHLLDC@TXT_KEY_DIPLOSTRATEGY_MILITARY_A@ ; `string'
PUBLIC	??_C@_0DJ@EEIFNKKI@TXT_KEY_DIPLOSTRATEGY_MILITARY_A@ ; `string'
PUBLIC	??_C@_0DP@FOONADEN@TXT_KEY_DIPLOSTRATEGY_MILITARY_S@ ; `string'
PUBLIC	??_C@_0EA@LOGJOKO@TXT_KEY_DIPLOSTRATEGY_MILITARY_S@ ; `string'
PUBLIC	??_C@_0DO@HBJIFBNG@TXT_KEY_DIPLOSTRATEGY_MILITARY_S@ ; `string'
PUBLIC	??_C@_0DP@JFAOACMJ@TXT_KEY_DIPLOSTRATEGY_MILITARY_S@ ; `string'
PUBLIC	??_C@_0DM@LHNIEGNI@TXT_KEY_DIPLOSTRATEGY_MILITARY_S@ ; `string'
PUBLIC	??_C@_0DM@PLNLPOLO@TXT_KEY_DIPLOSTRATEGY_MILITARY_S@ ; `string'
PUBLIC	??_C@_0EA@CJGOBHIC@TXT_KEY_DIPLOSTRATEGY_MILITARY_S@ ; `string'
PUBLIC	??_C@_0DC@PNBBAKLD@TXT_KEY_DIPLOSTRATEGY_WARPROJECT@ ; `string'
PUBLIC	??_C@_0CN@DIJHOCMG@TXT_KEY_DIPLOSTRATEGY_WARPROJECT@ ; `string'
PUBLIC	??_C@_0DC@KKKJNOBI@TXT_KEY_DIPLOSTRATEGY_WARPROJECT@ ; `string'
PUBLIC	??_C@_0CP@JNMDBPML@TXT_KEY_DIPLOSTRATEGY_WARPROJECT@ ; `string'
PUBLIC	??_C@_0DE@BNMOIPL@TXT_KEY_DIPLOSTRATEGY_WARPROJECT@ ; `string'
PUBLIC	??_C@_0CB@LNMHCNBL@TXT_KEY_SCIENCESTRATEGY_BANKRUPT@ ; `string'
PUBLIC	??_C@_0BN@FPEKJNGJ@TXT_KEY_SCIENCESTRATEGY_INFO?$AA@ ; `string'
PUBLIC	??_C@_0CI@KOFOGLAF@TXT_KEY_SCIENCESTRATEGY_INFO_DOI@ ; `string'
PUBLIC	??$?6H@@YAAAVString@Localization@@AAV01@ABH@Z	; operator<<<int>
PUBLIC	??_C@_0CK@CGLEDHOG@TXT_KEY_SCIENCESTRATEGY_INFO_DOI@ ; `string'
PUBLIC	??_C@_0DD@GBLNNIKD@TXT_KEY_SCIENCESTRATEGY_RESEARCH@ ; `string'
PUBLIC	??_C@_0DA@BGIBLOEF@TXT_KEY_SCIENCESTRATEGY_RESEARCH@ ; `string'
PUBLIC	??_C@_0DO@PHNKMOOG@TXT_KEY_SCIENCESTRATEGY_TECH_THA@ ; `string'
PUBLIC	??_C@_0DO@NMPHJNCF@TXT_KEY_SCIENCESTRATEGY_TECH_THA@ ; `string'
PUBLIC	??_C@_0DO@MFOMKMGE@TXT_KEY_SCIENCESTRATEGY_TECH_THA@ ; `string'
PUBLIC	??_C@_0BO@JHKONBBO@TXT_KEY_TECHSTRATEGY_RESOURCE?$AA@ ; `string'
PUBLIC	??_C@_0BP@CIHAMPA@TXT_KEY_TECHSTRATEGY_CIV_BONUS?$AA@ ; `string'
PUBLIC	??_C@_0CL@FILDAJCG@TXT_KEY_TECHSTRATEGY_CIV_BONUS_I@ ; `string'
PUBLIC	??_C@_0CI@EDMHMCMP@TXT_KEY_TECHSTRATEGY_CIV_BONUS_B@ ; `string'
PUBLIC	??_C@_0CE@DNCHLOK@TXT_KEY_TECHSTRATEGY_CIV_BONUS_U@ ; `string'
PUBLIC	??_C@_0P@NPJBAHPJ@FLAVOR_SCIENCE?$AA@		; `string'
PUBLIC	??$?6PBD@@YAAAVString@Localization@@AAV01@ABQBD@Z ; operator<<<char const *>
PUBLIC	??$_Sort@PAUCounsel@CvAdvisorCounsel@@HP6A_NU12@0@Z@std@@YAXPAUCounsel@CvAdvisorCounsel@@0HP6A_NU12@1@Z@Z ; std::_Sort<CvAdvisorCounsel::Counsel *,int,bool (__cdecl*)(CvAdvisorCounsel::Counsel,CvAdvisorCounsel::Counsel)>
PUBLIC	??_C@_0CD@LIKPJOEP@TXT_KEY_BUILD_A_CITY_MCFLY_FOREI@ ; `string'
PUBLIC	??_C@_0CD@FLGPHAIC@TXT_KEY_BUILD_A_CITY_MCFLY_SCIEN@ ; `string'
PUBLIC	??_C@_0CE@CBJMPDML@TXT_KEY_BUILD_A_CITY_MCFLY_MILIT@ ; `string'
PUBLIC	?SetCounselEntry@CvAdvisorCounsel@@QAE_NIW4AdvisorTypes@@PBDH@Z ; CvAdvisorCounsel::SetCounselEntry
PUBLIC	??_C@_0CE@NKNBMIFP@TXT_KEY_BUILD_A_CITY_MCFLY_ECONO@ ; `string'
PUBLIC	__$ArrayPad$
PUBLIC	?BuildCounselList@CvAdvisorCounsel@@QAEXW4PlayerTypes@@@Z ; CvAdvisorCounsel::BuildCounselList
EXTRN	?getNumResourceAvailable@CvPlayer@@QBEHW4ResourceTypes@@_N@Z:PROC ; CvPlayer::getNumResourceAvailable
EXTRN	?getNumResourceInfos@CvGlobals@@QAEHXZ:PROC	; CvGlobals::getNumResourceInfos
EXTRN	?getMISSION_BUILD@CvTypes@@YA?BW4MissionTypes@@XZ:PROC ; CvTypes::getMISSION_BUILD
EXTRN	?GetMissionData@CvUnit@@QAEPBUMissionData@@H@Z:PROC ; CvUnit::GetMissionData
EXTRN	?GetLengthMissionQueue@CvUnit@@QBEHXZ:PROC	; CvUnit::GetLengthMissionQueue
EXTRN	?nextUnitNode@CvPlot@@QAEPAUIDInfo@@PAU2@@Z:PROC ; CvPlot::nextUnitNode
EXTRN	?getUnit@@YAPAVCvUnit@@ABUIDInfo@@@Z:PROC	; getUnit
EXTRN	?headUnitNode@CvPlot@@QAEPAUIDInfo@@XZ:PROC	; CvPlot::headUnitNode
EXTRN	?getWorkingCity@CvPlot@@QBEPAVCvCity@@XZ:PROC	; CvPlot::getWorkingCity
EXTRN	?canBuild@CvPlayer@@QBE_NPBVCvPlot@@W4BuildTypes@@_N222@Z:PROC ; CvPlayer::canBuild
EXTRN	?IsImprovementResourceTrade@CvImprovementEntry@@QBE_NH@Z:PROC ; CvImprovementEntry::IsImprovementResourceTrade
EXTRN	?getImprovement@CvBuildInfo@@QBEHXZ:PROC	; CvBuildInfo::getImprovement
EXTRN	?getBuildInfo@CvGlobals@@QAEPAVCvBuildInfo@@W4BuildTypes@@@Z:PROC ; CvGlobals::getBuildInfo
EXTRN	?getNumBuildInfos@CvGlobals@@QAEHXZ:PROC	; CvGlobals::getNumBuildInfos
EXTRN	?getNumResourceTotal@CvPlayer@@QBEHW4ResourceTypes@@_N@Z:PROC ; CvPlayer::getNumResourceTotal
EXTRN	?getResourceUsage@CvResourceInfo@@QBE?AW4ResourceUsageTypes@@XZ:PROC ; CvResourceInfo::getResourceUsage
EXTRN	?getResourceType@CvPlot@@QBE?AW4ResourceTypes@@W4TeamTypes@@@Z:PROC ; CvPlot::getResourceType
EXTRN	?GetPlots@CvPlayer@@QAEAAV?$FStaticVector@H$0DJAA@$00$0BCJ@$0A@@@XZ:PROC ; CvPlayer::GetPlots
EXTRN	__imp_??1?$basic_string@DU?$char_traits@D@std@@V?$allocator@D@2@@std@@QAE@XZ:PROC
EXTRN	?canConstruct@CvCity@@QBE_NW4BuildingTypes@@_N11PAVCvString@@@Z:PROC ; CvCity::canConstruct
EXTRN	__imp_??$?8DU?$char_traits@D@std@@V?$allocator@D@1@@std@@YA_NPBDABV?$basic_string@DU?$char_traits@D@std@@V?$allocator@D@2@@0@@Z:PROC
EXTRN	__imp_?c_str@?$basic_string@DU?$char_traits@D@std@@V?$allocator@D@2@@std@@QBEPBDXZ:PROC
EXTRN	?getBuildingClassInfo@CvGlobals@@QAEPAVCvBuildingClassInfo@@W4BuildingClassTypes@@@Z:PROC ; CvGlobals::getBuildingClassInfo
EXTRN	?getNumBuildingClassInfos@CvGlobals@@QAEHXZ:PROC ; CvGlobals::getNumBuildingClassInfos
EXTRN	__imp_?clear@?$basic_string@DU?$char_traits@D@std@@V?$allocator@D@2@@std@@QAEXXZ:PROC
EXTRN	__imp_?assign@?$basic_string@DU?$char_traits@D@std@@V?$allocator@D@2@@std@@QAEAAV12@PBD@Z:PROC
EXTRN	__imp_??0?$basic_string@DU?$char_traits@D@std@@V?$allocator@D@2@@std@@QAE@XZ:PROC
EXTRN	?getPopulation@CvCity@@QBEHXZ:PROC		; CvCity::getPopulation
EXTRN	?IsCloseToNotBeingFriends@CvMinorCivAI@@QAE_NW4PlayerTypes@@@Z:PROC ; CvMinorCivAI::IsCloseToNotBeingFriends
EXTRN	?IsFriends@CvMinorCivAI@@QAE_NW4PlayerTypes@@@Z:PROC ; CvMinorCivAI::IsFriends
EXTRN	?IsCloseToNotBeingAllies@CvMinorCivAI@@QAE_NW4PlayerTypes@@@Z:PROC ; CvMinorCivAI::IsCloseToNotBeingAllies
EXTRN	?IsAllies@CvMinorCivAI@@QBE_NW4PlayerTypes@@@Z:PROC ; CvMinorCivAI::IsAllies
EXTRN	?getOriginalOwner@CvCity@@QBE?AW4PlayerTypes@@XZ:PROC ; CvCity::getOriginalOwner
EXTRN	?GetGoldPerTurnFromDiplomacy@CvTreasury@@QBEHXZ:PROC ; CvTreasury::GetGoldPerTurnFromDiplomacy
EXTRN	?GetImprovementGoldMaintenance@CvTreasury@@QBEHXZ:PROC ; CvTreasury::GetImprovementGoldMaintenance
EXTRN	?GetBuildingGoldMaintenance@CvTreasury@@QBEHXZ:PROC ; CvTreasury::GetBuildingGoldMaintenance
EXTRN	?getMinorCivInfo@CvGlobals@@QAEPAVCvMinorCivInfo@@W4MinorCivTypes@@@Z:PROC ; CvGlobals::getMinorCivInfo
EXTRN	?GetMinorCivType@CvMinorCivAI@@QBE?AW4MinorCivTypes@@XZ:PROC ; CvMinorCivAI::GetMinorCivType
EXTRN	?GetMinorCivAI@CvPlayer@@QBEPAVCvMinorCivAI@@XZ:PROC ; CvPlayer::GetMinorCivAI
EXTRN	?DoMinorCivCompetitionStatement@CvDiplomacyAI@@QAEXW4PlayerTypes@@AAW4DiploStatementTypes@@AAH_N@Z:PROC ; CvDiplomacyAI::DoMinorCivCompetitionStatement
EXTRN	?GetMinorCivDisputeLevel@CvDiplomacyAI@@QBE?AW4DisputeLevelTypes@@W4PlayerTypes@@@Z:PROC ; CvDiplomacyAI::GetMinorCivDisputeLevel
EXTRN	?GetWarmongerThreat@CvDiplomacyAI@@QBE?AW4ThreatTypes@@W4PlayerTypes@@@Z:PROC ; CvDiplomacyAI::GetWarmongerThreat
EXTRN	?GetExpansionAggressivePosture@CvDiplomacyAI@@QBE?AW4AggressivePostureTypes@@W4PlayerTypes@@@Z:PROC ; CvDiplomacyAI::GetExpansionAggressivePosture
EXTRN	?GetMilitaryAggressivePosture@CvDiplomacyAI@@QBE?AW4AggressivePostureTypes@@W4PlayerTypes@@@Z:PROC ; CvDiplomacyAI::GetMilitaryAggressivePosture
EXTRN	?isAtWar@CvTeam@@QBE_NW4TeamTypes@@@Z:PROC	; CvTeam::isAtWar
EXTRN	?GetPlayerMilitaryStrengthComparedToUs@CvDiplomacyAI@@QBE?AW4StrengthTypes@@W4PlayerTypes@@@Z:PROC ; CvDiplomacyAI::GetPlayerMilitaryStrengthComparedToUs
EXTRN	?GetWarProjection@CvDiplomacyAI@@QBE?AW4WarProjectionTypes@@W4PlayerTypes@@@Z:PROC ; CvDiplomacyAI::GetWarProjection
EXTRN	?isHasMet@CvTeam@@QBE_NW4TeamTypes@@@Z:PROC	; CvTeam::isHasMet
EXTRN	?m_aTeams@CvTeam@@1PAV1@A:DWORD			; CvTeam::m_aTeams
EXTRN	?isOption@CvGame@@QBE_NW4GameOptionTypes@@@Z:PROC ; CvGame::isOption
EXTRN	?GetDiplomacyAI@CvPlayer@@QBEPAVCvDiplomacyAI@@XZ:PROC ; CvPlayer::GetDiplomacyAI
EXTRN	?calculateGoldRate@CvPlayer@@QBEHXZ:PROC	; CvPlayer::calculateGoldRate
EXTRN	?GetGold@CvTreasury@@QBEHXZ:PROC		; CvTreasury::GetGold
EXTRN	?GetTreasury@CvPlayer@@QBEPAVCvTreasury@@XZ:PROC ; CvPlayer::GetTreasury
EXTRN	?getTotalPopulation@CvPlayer@@QBEHXZ:PROC	; CvPlayer::getTotalPopulation
EXTRN	?GetScience@CvPlayer@@QBEHXZ:PROC		; CvPlayer::GetScience
EXTRN	?GetDomainFreeExperience@CvBuildingEntry@@QBEHH@Z:PROC ; CvBuildingEntry::GetDomainFreeExperience
EXTRN	?GetCombat@CvUnitEntry@@QBEHXZ:PROC		; CvUnitEntry::GetCombat
EXTRN	?GetRangedCombat@CvUnitEntry@@QBEHXZ:PROC	; CvUnitEntry::GetRangedCombat
EXTRN	?getCivilizationUnits@CvCivilizationInfo@@QBEHH@Z:PROC ; CvCivilizationInfo::getCivilizationUnits
EXTRN	?GetUnitClassType@CvUnitEntry@@QBEHXZ:PROC	; CvUnitEntry::GetUnitClassType
EXTRN	?GetUnitCombatType@CvUnitEntry@@QBEHXZ:PROC	; CvUnitEntry::GetUnitCombatType
EXTRN	?GetPrereqAndTech@CvUnitEntry@@QBEHXZ:PROC	; CvUnitEntry::GetPrereqAndTech
EXTRN	?getNumUnitInfos@CvGlobals@@QAEHXZ:PROC		; CvGlobals::getNumUnitInfos
EXTRN	?isBuildingClassMaxedOut@CvGame@@QAE_NW4BuildingClassTypes@@H@Z:PROC ; CvGame::isBuildingClassMaxedOut
EXTRN	?GetBuildingClassType@CvBuildingEntry@@QBEHXZ:PROC ; CvBuildingEntry::GetBuildingClassType
EXTRN	?GetFlavorValue@CvBuildingEntry@@QBEHH@Z:PROC	; CvBuildingEntry::GetFlavorValue
EXTRN	?GetPrereqAndTech@CvBuildingEntry@@QBEHXZ:PROC	; CvBuildingEntry::GetPrereqAndTech
EXTRN	?getNumBuildingInfos@CvGlobals@@QAEHXZ:PROC	; CvGlobals::getNumBuildingInfos
EXTRN	?getResourceInfo@CvGlobals@@QAEPAVCvResourceInfo@@W4ResourceTypes@@@Z:PROC ; CvGlobals::getResourceInfo
EXTRN	?GetLocaleTechResource@CvPlayerTechs@@QBE?AW4ResourceTypes@@W4TechTypes@@@Z:PROC ; CvPlayerTechs::GetLocaleTechResource
EXTRN	?GetLocaleTechPriority@CvPlayerTechs@@QBEHW4TechTypes@@@Z:PROC ; CvPlayerTechs::GetLocaleTechPriority
EXTRN	?getImprovementInfo@CvGlobals@@QAEPAVCvImprovementEntry@@W4ImprovementTypes@@@Z:PROC ; CvGlobals::getImprovementInfo
EXTRN	?GetCivTechUniqueImprovement@CvPlayerTechs@@QBE?AW4ImprovementTypes@@W4TechTypes@@@Z:PROC ; CvPlayerTechs::GetCivTechUniqueImprovement
EXTRN	?getBuildingInfo@CvGlobals@@QAEPAVCvBuildingEntry@@W4BuildingTypes@@@Z:PROC ; CvGlobals::getBuildingInfo
EXTRN	?GetCivTechUniqueBuilding@CvPlayerTechs@@QBE?AW4BuildingTypes@@W4TechTypes@@@Z:PROC ; CvPlayerTechs::GetCivTechUniqueBuilding
EXTRN	?getAdjectiveKey@CvCivilizationInfo@@QBEPBDXZ:PROC ; CvCivilizationInfo::getAdjectiveKey
EXTRN	?getCivilizationInfo@CvPlayer@@QBEAAVCvCivilizationInfo@@XZ:PROC ; CvPlayer::getCivilizationInfo
EXTRN	?getUnitInfo@CvGlobals@@QAEPAVCvUnitEntry@@W4UnitTypes@@@Z:PROC ; CvGlobals::getUnitInfo
EXTRN	?GetTextKey@CvBaseInfo@@QBEPBDXZ:PROC		; CvBaseInfo::GetTextKey
EXTRN	?GetEntry@CvTechXMLEntries@@QAEPAVCvTechEntry@@H@Z:PROC ; CvTechXMLEntries::GetEntry
EXTRN	?GetCivTechUniqueUnit@CvPlayerTechs@@QBE?AW4UnitTypes@@W4TechTypes@@@Z:PROC ; CvPlayerTechs::GetCivTechUniqueUnit
EXTRN	?GetCivTechPriority@CvPlayerTechs@@QBEHW4TechTypes@@@Z:PROC ; CvPlayerTechs::GetCivTechPriority
EXTRN	?GetCurrentResearch@CvPlayerTechs@@QBE?AW4TechTypes@@XZ:PROC ; CvPlayerTechs::GetCurrentResearch
EXTRN	?CanResearch@CvPlayerTechs@@QBE_NW4TechTypes@@_N@Z:PROC ; CvPlayerTechs::CanResearch
EXTRN	?GetNumTechs@CvTechXMLEntries@@QAEHXZ:PROC	; CvTechXMLEntries::GetNumTechs
EXTRN	?GetTechs@CvPlayerTechs@@QBEPAVCvTechXMLEntries@@XZ:PROC ; CvPlayerTechs::GetTechs
EXTRN	?GetPlayerTechs@CvPlayer@@QBEPAVCvPlayerTechs@@XZ:PROC ; CvPlayer::GetPlayerTechs
EXTRN	__imp_??$?8DU?$char_traits@D@std@@V?$allocator@D@1@@std@@YA_NABV?$basic_string@DU?$char_traits@D@std@@V?$allocator@D@2@@0@PBD@Z:PROC
EXTRN	?gGlobals@@3VCvGlobals@@A:BYTE			; gGlobals
EXTRN	?GetAdvisorCounselImportance@CvAICityStrategyEntry@@QBEHXZ:PROC ; CvAICityStrategyEntry::GetAdvisorCounselImportance
EXTRN	?getNameKey@CvCity@@QBEPBDXZ:PROC		; CvCity::getNameKey
EXTRN	?GetAdvisorCounselText@CvAICityStrategyEntry@@QBEPBDXZ:PROC ; CvAICityStrategyEntry::GetAdvisorCounselText
EXTRN	?GetAdvisor@CvAICityStrategyEntry@@QBE?AW4AdvisorTypes@@XZ:PROC ; CvAICityStrategyEntry::GetAdvisor
EXTRN	?IsUsingCityStrategy@CvCityStrategyAI@@QAE_NW4AICityStrategyTypes@@@Z:PROC ; CvCityStrategyAI::IsUsingCityStrategy
EXTRN	?GetEntry@CvAICityStrategies@@QAEPAVCvAICityStrategyEntry@@H@Z:PROC ; CvAICityStrategies::GetEntry
EXTRN	?GetNumAICityStrategies@CvAICityStrategies@@QAEHXZ:PROC ; CvAICityStrategies::GetNumAICityStrategies
EXTRN	?GetAICityStrategies@CvCityStrategyAI@@QAEPAVCvAICityStrategies@@XZ:PROC ; CvCityStrategyAI::GetAICityStrategies
EXTRN	?GetCityStrategyAI@CvCity@@QBEPAVCvCityStrategyAI@@XZ:PROC ; CvCity::GetCityStrategyAI
EXTRN	?nextCity@CvPlayer@@QAEPAVCvCity@@PAH_N@Z:PROC	; CvPlayer::nextCity
EXTRN	?firstCity@CvPlayer@@QAEPAVCvCity@@PAH_N@Z:PROC	; CvPlayer::firstCity
EXTRN	?GetAdvisorCounselImportance@CvMilitaryAIStrategyXMLEntry@@QBEHXZ:PROC ; CvMilitaryAIStrategyXMLEntry::GetAdvisorCounselImportance
EXTRN	?GetAdvisorCounselText@CvMilitaryAIStrategyXMLEntry@@QBEPBDXZ:PROC ; CvMilitaryAIStrategyXMLEntry::GetAdvisorCounselText
EXTRN	?GetAdvisor@CvMilitaryAIStrategyXMLEntry@@QBE?AW4AdvisorTypes@@XZ:PROC ; CvMilitaryAIStrategyXMLEntry::GetAdvisor
EXTRN	?GetEntry@CvMilitaryAIStrategyXMLEntries@@QAEPAVCvMilitaryAIStrategyXMLEntry@@H@Z:PROC ; CvMilitaryAIStrategyXMLEntries::GetEntry
EXTRN	?IsUsingStrategy@CvMilitaryAI@@QAE_NW4MilitaryAIStrategyTypes@@@Z:PROC ; CvMilitaryAI::IsUsingStrategy
EXTRN	?GetNumMilitaryAIStrategies@CvMilitaryAIStrategyXMLEntries@@QAEHXZ:PROC ; CvMilitaryAIStrategyXMLEntries::GetNumMilitaryAIStrategies
EXTRN	?GetMilitaryAIStrategies@CvMilitaryAI@@QAEPAVCvMilitaryAIStrategyXMLEntries@@XZ:PROC ; CvMilitaryAI::GetMilitaryAIStrategies
EXTRN	?GetMilitaryAI@CvPlayer@@QBEPAVCvMilitaryAI@@XZ:PROC ; CvPlayer::GetMilitaryAI
EXTRN	?GetAdvisorCounselImportance@CvEconomicAIStrategyXMLEntry@@QBEHXZ:PROC ; CvEconomicAIStrategyXMLEntry::GetAdvisorCounselImportance
EXTRN	?GetAdvisorCounselText@CvEconomicAIStrategyXMLEntry@@QBEPBDXZ:PROC ; CvEconomicAIStrategyXMLEntry::GetAdvisorCounselText
EXTRN	?GetAdvisor@CvEconomicAIStrategyXMLEntry@@QBE?AW4AdvisorTypes@@XZ:PROC ; CvEconomicAIStrategyXMLEntry::GetAdvisor
EXTRN	?IsUsingStrategy@CvEconomicAI@@QAE_NW4EconomicAIStrategyTypes@@@Z:PROC ; CvEconomicAI::IsUsingStrategy
EXTRN	?GetEntry@CvEconomicAIStrategyXMLEntries@@QAEPAVCvEconomicAIStrategyXMLEntry@@H@Z:PROC ; CvEconomicAIStrategyXMLEntries::GetEntry
EXTRN	?GetNumEconomicAIStrategies@CvEconomicAIStrategyXMLEntries@@QAEHXZ:PROC ; CvEconomicAIStrategyXMLEntries::GetNumEconomicAIStrategies
EXTRN	?GetEconomicAIStrategies@CvEconomicAI@@QAEPAVCvEconomicAIStrategyXMLEntries@@XZ:PROC ; CvEconomicAI::GetEconomicAIStrategies
EXTRN	?GetEconomicAI@CvPlayer@@QBEPAVCvEconomicAI@@XZ:PROC ; CvPlayer::GetEconomicAI
EXTRN	__imp_?toUTF8@String@Localization@@QAEPBDXZ:PROC
EXTRN	__imp_??1String@Localization@@UAE@XZ:PROC
EXTRN	__imp_??4String@Localization@@QAEAAV01@ABV01@@Z:PROC
EXTRN	__imp_?Lookup@Localization@@YA?AVString@1@PBD@Z:PROC
EXTRN	?getNumCities@CvPlayer@@QBEHXZ:PROC		; CvPlayer::getNumCities
EXTRN	__imp_??0String@Localization@@QAE@XZ:PROC
EXTRN	?m_aPlayers@CvPlayerAI@@1PAV1@A:DWORD		; CvPlayerAI::m_aPlayers
EXTRN	__chkstk:PROC
;	COMDAT ??_C@_0CM@PKICLJIL@TXT_KEY_BASESTRATEGY_NOTHING_TO_@
; File c:\program files (x86)\microsoft visual studio 9.0\vc\include\xutility
CONST	SEGMENT
??_C@_0CM@PKICLJIL@TXT_KEY_BASESTRATEGY_NOTHING_TO_@ DB 'TXT_KEY_BASESTRA'
	DB	'TEGY_NOTHING_TO_SAY_FOREIGN', 00H		; `string'
CONST	ENDS
;	COMDAT ??_C@_0CN@LNNHNIEF@TXT_KEY_BASESTRATEGY_NOTHING_TO_@
CONST	SEGMENT
??_C@_0CN@LNNHNIEF@TXT_KEY_BASESTRATEGY_NOTHING_TO_@ DB 'TXT_KEY_BASESTRA'
	DB	'TEGY_NOTHING_TO_SAY_MILITARY', 00H		; `string'
CONST	ENDS
;	COMDAT ??_C@_0CN@EGJKODNB@TXT_KEY_BASESTRATEGY_NOTHING_TO_@
CONST	SEGMENT
??_C@_0CN@EGJKODNB@TXT_KEY_BASESTRATEGY_NOTHING_TO_@ DB 'TXT_KEY_BASESTRA'
	DB	'TEGY_NOTHING_TO_SAY_ECONOMIC', 00H		; `string'
CONST	ENDS
;	COMDAT ??_C@_0CM@BJECFHEG@TXT_KEY_BASESTRATEGY_NOTHING_TO_@
CONST	SEGMENT
??_C@_0CM@BJECFHEG@TXT_KEY_BASESTRATEGY_NOTHING_TO_@ DB 'TXT_KEY_BASESTRA'
	DB	'TEGY_NOTHING_TO_SAY_SCIENCE', 00H		; `string'
CONST	ENDS
;	COMDAT ??_C@_0CJ@EOGPFPMC@TXT_KEY_RESOURCESTRATEGY_TRADE_S@
CONST	SEGMENT
??_C@_0CJ@EOGPFPMC@TXT_KEY_RESOURCESTRATEGY_TRADE_S@ DB 'TXT_KEY_RESOURCE'
	DB	'STRATEGY_TRADE_STRATEGIC', 00H		; `string'
CONST	ENDS
;	COMDAT ??_C@_0CI@HBNCHAJI@TXT_KEY_RESOURCESTRATEGY_TRADE_L@
CONST	SEGMENT
??_C@_0CI@HBNCHAJI@TXT_KEY_RESOURCESTRATEGY_TRADE_L@ DB 'TXT_KEY_RESOURCE'
	DB	'STRATEGY_TRADE_LUXURIES', 00H		; `string'
CONST	ENDS
;	COMDAT ??_C@_0DM@FPBLCMMM@TXT_KEY_CITYIMPROVEMENTSTRATEGY_@
CONST	SEGMENT
??_C@_0DM@FPBLCMMM@TXT_KEY_CITYIMPROVEMENTSTRATEGY_@ DB 'TXT_KEY_CITYIMPR'
	DB	'OVEMENTSTRATEGY_PLUG_UP_RESOURCES_HAVE_MORE', 00H ; `string'
CONST	ENDS
;	COMDAT ??_C@_0DM@BIIJGPLA@TXT_KEY_CITYIMPROVEMENTSTRATEGY_@
CONST	SEGMENT
??_C@_0DM@BIIJGPLA@TXT_KEY_CITYIMPROVEMENTSTRATEGY_@ DB 'TXT_KEY_CITYIMPR'
	DB	'OVEMENTSTRATEGY_PLUG_UP_RESOURCES_HAVE_ZERO', 00H ; `string'
CONST	ENDS
;	COMDAT ??_C@_0DG@EELBGMLO@TXT_KEY_SCIENCESTRATEGY_RESEARCH@
CONST	SEGMENT
??_C@_0DG@EELBGMLO@TXT_KEY_SCIENCESTRATEGY_RESEARCH@ DB 'TXT_KEY_SCIENCES'
	DB	'TRATEGY_RESEARCH_BUILDING_IN_BIG_CITY', 00H	; `string'
CONST	ENDS
;	COMDAT ??_C@_0BJ@BGJEFLOC@BUILDINGCLASS_LABORATORY?$AA@
CONST	SEGMENT
??_C@_0BJ@BGJEFLOC@BUILDINGCLASS_LABORATORY?$AA@ DB 'BUILDINGCLASS_LABORA'
	DB	'TORY', 00H					; `string'
CONST	ENDS
;	COMDAT ??_C@_0BM@NIILIFPA@BUILDINGCLASS_PUBLIC_SCHOOL?$AA@
CONST	SEGMENT
??_C@_0BM@NIILIFPA@BUILDINGCLASS_PUBLIC_SCHOOL?$AA@ DB 'BUILDINGCLASS_PUB'
	DB	'LIC_SCHOOL', 00H				; `string'
CONST	ENDS
;	COMDAT ??_C@_0BJ@GHHIGDPH@BUILDINGCLASS_UNIVERSITY?$AA@
CONST	SEGMENT
??_C@_0BJ@GHHIGDPH@BUILDINGCLASS_UNIVERSITY?$AA@ DB 'BUILDINGCLASS_UNIVER'
	DB	'SITY', 00H					; `string'
CONST	ENDS
;	COMDAT ??_C@_0BG@BEAOAFMH@BUILDINGCLASS_LIBRARY?$AA@
CONST	SEGMENT
??_C@_0BG@BEAOAFMH@BUILDINGCLASS_LIBRARY?$AA@ DB 'BUILDINGCLASS_LIBRARY', 00H ; `string'
CONST	ENDS
;	COMDAT ??_C@_0DJ@JJFANJMP@TXT_KEY_DIPLOSTRATEGY_BEFRIEND_C@
CONST	SEGMENT
??_C@_0DJ@JJFANJMP@TXT_KEY_DIPLOSTRATEGY_BEFRIEND_C@ DB 'TXT_KEY_DIPLOSTR'
	DB	'ATEGY_BEFRIEND_CITY_STATE_WAR_WITH_MAJOR', 00H ; `string'
CONST	ENDS
;	COMDAT ??_C@_0DI@MEAPCOLG@TXT_KEY_DIPLOSTRATEGY_ALMOST_LOS@
CONST	SEGMENT
??_C@_0DI@MEAPCOLG@TXT_KEY_DIPLOSTRATEGY_ALMOST_LOS@ DB 'TXT_KEY_DIPLOSTR'
	DB	'ATEGY_ALMOST_LOST_CITY_STATE_FRIENDSHIP', 00H ; `string'
CONST	ENDS
;	COMDAT ??_C@_0EH@JIJFBKKE@TXT_KEY_DIPLOSTRATEGY_ALMOST_LOS@
CONST	SEGMENT
??_C@_0EH@JIJFBKKE@TXT_KEY_DIPLOSTRATEGY_ALMOST_LOS@ DB 'TXT_KEY_DIPLOSTR'
	DB	'ATEGY_ALMOST_LOST_CITY_STATE_FRIENDSHIP_WAR_WITH_MAJOR', 00H ; `string'
CONST	ENDS
;	COMDAT ??_C@_0DC@EGOKBOPG@TXT_KEY_DIPLOSTRATEGY_ALMOST_LOS@
CONST	SEGMENT
??_C@_0DC@EGOKBOPG@TXT_KEY_DIPLOSTRATEGY_ALMOST_LOS@ DB 'TXT_KEY_DIPLOSTR'
	DB	'ATEGY_ALMOST_LOST_CITY_STATE_ALLY', 00H	; `string'
CONST	ENDS
;	COMDAT ??_C@_0EB@MGPCJIEI@TXT_KEY_DIPLOSTRATEGY_ALMOST_LOS@
CONST	SEGMENT
??_C@_0EB@MGPCJIEI@TXT_KEY_DIPLOSTRATEGY_ALMOST_LOS@ DB 'TXT_KEY_DIPLOSTR'
	DB	'ATEGY_ALMOST_LOST_CITY_STATE_ALLY_WAR_WITH_MAJOR', 00H ; `string'
CONST	ENDS
;	COMDAT ??_C@_0CK@EJBBGNEK@TXT_KEY_DIPLOSTRATEGY_LIBERATE_C@
CONST	SEGMENT
??_C@_0CK@EJBBGNEK@TXT_KEY_DIPLOSTRATEGY_LIBERATE_C@ DB 'TXT_KEY_DIPLOSTR'
	DB	'ATEGY_LIBERATE_CITY_STATE', 00H		; `string'
CONST	ENDS
;	COMDAT ??_C@_0CF@IKKLDLIM@TXT_KEY_FINANCESTRATEGY_MAKING_M@
CONST	SEGMENT
??_C@_0CF@IKKLDLIM@TXT_KEY_FINANCESTRATEGY_MAKING_M@ DB 'TXT_KEY_FINANCES'
	DB	'TRATEGY_MAKING_MONEY', 00H			; `string'
CONST	ENDS
;	COMDAT ??_C@_0CP@DHNHOANE@TXT_KEY_FINANCESTRATEGY_MAKING_M@
CONST	SEGMENT
??_C@_0CP@DHNHOANE@TXT_KEY_FINANCESTRATEGY_MAKING_M@ DB 'TXT_KEY_FINANCES'
	DB	'TRATEGY_MAKING_MONEY_DIPLOMACY', 00H	; `string'
CONST	ENDS
;	COMDAT ??_C@_0DN@MDPKJHOM@TXT_KEY_FINANCESTRATEGY_MAKING_M@
CONST	SEGMENT
??_C@_0DN@MDPKJHOM@TXT_KEY_FINANCESTRATEGY_MAKING_M@ DB 'TXT_KEY_FINANCES'
	DB	'TRATEGY_MAKING_MONEY_IMPROVEMENT_MAINTENANCE', 00H ; `string'
CONST	ENDS
;	COMDAT ??_C@_0DK@CNMOIANL@TXT_KEY_FINANCESTRATEGY_MAKING_M@
CONST	SEGMENT
??_C@_0DK@CNMOIANL@TXT_KEY_FINANCESTRATEGY_MAKING_M@ DB 'TXT_KEY_FINANCES'
	DB	'TRATEGY_MAKING_MONEY_BUILDING_MAINTENANCE', 00H ; `string'
CONST	ENDS
;	COMDAT ??_C@_0DB@KMNHINLL@TXT_KEY_FINANCESTRATEGY_MAKING_M@
CONST	SEGMENT
??_C@_0DB@KMNHINLL@TXT_KEY_FINANCESTRATEGY_MAKING_M@ DB 'TXT_KEY_FINANCES'
	DB	'TRATEGY_MAKING_MONEY_UNIT_SUPPLY', 00H	; `string'
CONST	ENDS
;	COMDAT ??_C@_0DG@GNBHFMMP@TXT_KEY_FINANCESTRATEGY_MAKING_M@
CONST	SEGMENT
??_C@_0DG@GNBHFMMP@TXT_KEY_FINANCESTRATEGY_MAKING_M@ DB 'TXT_KEY_FINANCES'
	DB	'TRATEGY_MAKING_MONEY_UNIT_MAINTENANCE', 00H	; `string'
CONST	ENDS
;	COMDAT ??_C@_0CF@KKDJBEJJ@TXT_KEY_FINANCESTRATEGY_LOSING_M@
CONST	SEGMENT
??_C@_0CF@KKDJBEJJ@TXT_KEY_FINANCESTRATEGY_LOSING_M@ DB 'TXT_KEY_FINANCES'
	DB	'TRATEGY_LOSING_MONEY', 00H			; `string'
CONST	ENDS
;	COMDAT ??_C@_0CP@JAAGNBK@TXT_KEY_FINANCESTRATEGY_LOSING_M@
CONST	SEGMENT
??_C@_0CP@JAAGNBK@TXT_KEY_FINANCESTRATEGY_LOSING_M@ DB 'TXT_KEY_FINANCEST'
	DB	'RATEGY_LOSING_MONEY_DIPLOMACY', 00H		; `string'
CONST	ENDS
;	COMDAT ??_C@_0DN@HPNFCDGP@TXT_KEY_FINANCESTRATEGY_LOSING_M@
CONST	SEGMENT
??_C@_0DN@HPNFCDGP@TXT_KEY_FINANCESTRATEGY_LOSING_M@ DB 'TXT_KEY_FINANCES'
	DB	'TRATEGY_LOSING_MONEY_IMPROVEMENT_MAINTENANCE', 00H ; `string'
CONST	ENDS
;	COMDAT ??_C@_0DK@CNMLGIKD@TXT_KEY_FINANCESTRATEGY_LOSING_M@
CONST	SEGMENT
??_C@_0DK@CNMLGIKD@TXT_KEY_FINANCESTRATEGY_LOSING_M@ DB 'TXT_KEY_FINANCES'
	DB	'TRATEGY_LOSING_MONEY_BUILDING_MAINTENANCE', 00H ; `string'
CONST	ENDS
;	COMDAT ??_C@_0DB@GKKHLGDB@TXT_KEY_FINANCESTRATEGY_LOSING_M@
CONST	SEGMENT
??_C@_0DB@GKKHLGDB@TXT_KEY_FINANCESTRATEGY_LOSING_M@ DB 'TXT_KEY_FINANCES'
	DB	'TRATEGY_LOSING_MONEY_UNIT_SUPPLY', 00H	; `string'
CONST	ENDS
;	COMDAT ??_C@_0DG@HIDKJDME@TXT_KEY_FINANCESTRATEGY_LOSING_M@
CONST	SEGMENT
??_C@_0DG@HIDKJDME@TXT_KEY_FINANCESTRATEGY_LOSING_M@ DB 'TXT_KEY_FINANCES'
	DB	'TRATEGY_LOSING_MONEY_UNIT_MAINTENANCE', 00H	; `string'
CONST	ENDS
;	COMDAT ??_C@_0CE@BENNONKH@TXT_KEY_FINANCESTRATEGY_GOING_BR@
CONST	SEGMENT
??_C@_0CE@BENNONKH@TXT_KEY_FINANCESTRATEGY_GOING_BR@ DB 'TXT_KEY_FINANCES'
	DB	'TRATEGY_GOING_BROKE', 00H			; `string'
CONST	ENDS
;	COMDAT ??_C@_0CO@DCLPLFDG@TXT_KEY_FINANCESTRATEGY_GOING_BR@
CONST	SEGMENT
??_C@_0CO@DCLPLFDG@TXT_KEY_FINANCESTRATEGY_GOING_BR@ DB 'TXT_KEY_FINANCES'
	DB	'TRATEGY_GOING_BROKE_DIPLOMACY', 00H		; `string'
CONST	ENDS
;	COMDAT ??_C@_0DM@GGJGABFM@TXT_KEY_FINANCESTRATEGY_GOING_BR@
CONST	SEGMENT
??_C@_0DM@GGJGABFM@TXT_KEY_FINANCESTRATEGY_GOING_BR@ DB 'TXT_KEY_FINANCES'
	DB	'TRATEGY_GOING_BROKE_IMPROVEMENT_MAINTENANCE', 00H ; `string'
CONST	ENDS
;	COMDAT ??_C@_0DJ@KCPBPKGJ@TXT_KEY_FINANCESTRATEGY_GOING_BR@
CONST	SEGMENT
??_C@_0DJ@KCPBPKGJ@TXT_KEY_FINANCESTRATEGY_GOING_BR@ DB 'TXT_KEY_FINANCES'
	DB	'TRATEGY_GOING_BROKE_BUILDING_MAINTENANCE', 00H ; `string'
CONST	ENDS
;	COMDAT ??_C@_0DA@NLJOLMMG@TXT_KEY_FINANCESTRATEGY_GOING_BR@
CONST	SEGMENT
??_C@_0DA@NLJOLMMG@TXT_KEY_FINANCESTRATEGY_GOING_BR@ DB 'TXT_KEY_FINANCES'
	DB	'TRATEGY_GOING_BROKE_UNIT_SUPPLY', 00H	; `string'
CONST	ENDS
;	COMDAT ??_C@_0DF@DLPHLOAL@TXT_KEY_FINANCESTRATEGY_GOING_BR@
CONST	SEGMENT
??_C@_0DF@DLPHLOAL@TXT_KEY_FINANCESTRATEGY_GOING_BR@ DB 'TXT_KEY_FINANCES'
	DB	'TRATEGY_GOING_BROKE_UNIT_MAINTENANCE', 00H	; `string'
CONST	ENDS
;	COMDAT ??_C@_0CL@DKOGLIOM@TXT_KEY_FINANCESTRATEGY_BROKE_AN@
CONST	SEGMENT
??_C@_0CL@DKOGLIOM@TXT_KEY_FINANCESTRATEGY_BROKE_AN@ DB 'TXT_KEY_FINANCES'
	DB	'TRATEGY_BROKE_AND_GOING_UP', 00H		; `string'
CONST	ENDS
;	COMDAT ??_C@_0DF@CLAFEALC@TXT_KEY_FINANCESTRATEGY_BROKE_AN@
CONST	SEGMENT
??_C@_0DF@CLAFEALC@TXT_KEY_FINANCESTRATEGY_BROKE_AN@ DB 'TXT_KEY_FINANCES'
	DB	'TRATEGY_BROKE_AND_GOING_UP_DIPLOMACY', 00H	; `string'
CONST	ENDS
;	COMDAT ??_C@_0ED@LAJKMAOO@TXT_KEY_FINANCESTRATEGY_BROKE_AN@
CONST	SEGMENT
??_C@_0ED@LAJKMAOO@TXT_KEY_FINANCESTRATEGY_BROKE_AN@ DB 'TXT_KEY_FINANCES'
	DB	'TRATEGY_BROKE_AND_GOING_UP_IMPROVEMENT_MAINTENANCE', 00H ; `string'
CONST	ENDS
;	COMDAT ??_C@_0EA@CNBCJLKK@TXT_KEY_FINANCESTRATEGY_BROKE_AN@
CONST	SEGMENT
??_C@_0EA@CNBCJLKK@TXT_KEY_FINANCESTRATEGY_BROKE_AN@ DB 'TXT_KEY_FINANCES'
	DB	'TRATEGY_BROKE_AND_GOING_UP_BUILDING_MAINTENANCE', 00H ; `string'
CONST	ENDS
;	COMDAT ??_C@_0DH@EJKGPOKA@TXT_KEY_FINANCESTRATEGY_BROKE_AN@
CONST	SEGMENT
??_C@_0DH@EJKGPOKA@TXT_KEY_FINANCESTRATEGY_BROKE_AN@ DB 'TXT_KEY_FINANCES'
	DB	'TRATEGY_BROKE_AND_GOING_UP_UNIT_SUPPLY', 00H ; `string'
CONST	ENDS
;	COMDAT ??_C@_0DM@HFJHPAOA@TXT_KEY_FINANCESTRATEGY_BROKE_AN@
CONST	SEGMENT
??_C@_0DM@HFJHPAOA@TXT_KEY_FINANCESTRATEGY_BROKE_AN@ DB 'TXT_KEY_FINANCES'
	DB	'TRATEGY_BROKE_AND_GOING_UP_UNIT_MAINTENANCE', 00H ; `string'
CONST	ENDS
;	COMDAT ??_C@_0CN@GFICBOPN@TXT_KEY_FINANCESTRATEGY_BROKE_AN@
CONST	SEGMENT
??_C@_0CN@GFICBOPN@TXT_KEY_FINANCESTRATEGY_BROKE_AN@ DB 'TXT_KEY_FINANCES'
	DB	'TRATEGY_BROKE_AND_GOING_DOWN', 00H		; `string'
CONST	ENDS
;	COMDAT ??_C@_0EF@EHAPGEEB@TXT_KEY_FINANCESTRATEGY_BROKE_AN@
CONST	SEGMENT
??_C@_0EF@EHAPGEEB@TXT_KEY_FINANCESTRATEGY_BROKE_AN@ DB 'TXT_KEY_FINANCES'
	DB	'TRATEGY_BROKE_AND_GOING_DOWN_IMPROVEMENT_MAINTENANCE', 00H ; `string'
CONST	ENDS
;	COMDAT ??_C@_0DH@PFOLGGBN@TXT_KEY_FINANCESTRATEGY_BROKE_AN@
CONST	SEGMENT
??_C@_0DH@PFOLGGBN@TXT_KEY_FINANCESTRATEGY_BROKE_AN@ DB 'TXT_KEY_FINANCES'
	DB	'TRATEGY_BROKE_AND_GOING_DOWN_DIPLOMACY', 00H ; `string'
CONST	ENDS
;	COMDAT ??_C@_0EC@OMLHJIOE@TXT_KEY_FINANCESTRATEGY_BROKE_AN@
CONST	SEGMENT
??_C@_0EC@OMLHJIOE@TXT_KEY_FINANCESTRATEGY_BROKE_AN@ DB 'TXT_KEY_FINANCES'
	DB	'TRATEGY_BROKE_AND_GOING_DOWN_BUILDING_MAINTENANCE', 00H ; `string'
CONST	ENDS
;	COMDAT ??_C@_0DJ@LCDEAFJF@TXT_KEY_FINANCESTRATEGY_BROKE_AN@
CONST	SEGMENT
??_C@_0DJ@LCDEAFJF@TXT_KEY_FINANCESTRATEGY_BROKE_AN@ DB 'TXT_KEY_FINANCES'
	DB	'TRATEGY_BROKE_AND_GOING_DOWN_UNIT_SUPPLY', 00H ; `string'
CONST	ENDS
;	COMDAT ??_C@_0DO@EEOOACFI@TXT_KEY_FINANCESTRATEGY_BROKE_AN@
CONST	SEGMENT
??_C@_0DO@EEOOACFI@TXT_KEY_FINANCESTRATEGY_BROKE_AN@ DB 'TXT_KEY_FINANCES'
	DB	'TRATEGY_BROKE_AND_GOING_DOWN_UNIT_MAINTENANCE', 00H ; `string'
CONST	ENDS
;	COMDAT ??_C@_0DF@DLEIGOFD@TXT_KEY_DIPLOSTRATEGY_MINOR_CIV_@
CONST	SEGMENT
??_C@_0DF@DLEIGOFD@TXT_KEY_DIPLOSTRATEGY_MINOR_CIV_@ DB 'TXT_KEY_DIPLOSTR'
	DB	'ATEGY_MINOR_CIV_DISPUTE_LEVEL_FIERCE', 00H	; `string'
CONST	ENDS
;	COMDAT ??_C@_0DF@PLLLPJHO@TXT_KEY_DIPLOSTRATEGY_MINOR_CIV_@
CONST	SEGMENT
??_C@_0DF@PLLLPJHO@TXT_KEY_DIPLOSTRATEGY_MINOR_CIV_@ DB 'TXT_KEY_DIPLOSTR'
	DB	'ATEGY_MINOR_CIV_DISPUTE_LEVEL_STRONG', 00H	; `string'
CONST	ENDS
;	COMDAT ??_C@_0DD@PDCBJMBB@TXT_KEY_DIPLOSTRATEGY_MINOR_CIV_@
CONST	SEGMENT
??_C@_0DD@PDCBJMBB@TXT_KEY_DIPLOSTRATEGY_MINOR_CIV_@ DB 'TXT_KEY_DIPLOSTR'
	DB	'ATEGY_MINOR_CIV_DISPUTE_LEVEL_WEAK', 00H	; `string'
CONST	ENDS
;	COMDAT ??_C@_0DA@NAIENAMF@TXT_KEY_DIPLOSTRATEGY_WARMONGER_@
CONST	SEGMENT
??_C@_0DA@NAIENAMF@TXT_KEY_DIPLOSTRATEGY_WARMONGER_@ DB 'TXT_KEY_DIPLOSTR'
	DB	'ATEGY_WARMONGER_THREAT_CRITICAL', 00H	; `string'
CONST	ENDS
;	COMDAT ??_C@_0CO@PMBHOKJF@TXT_KEY_DIPLOSTRATEGY_WARMONGER_@
CONST	SEGMENT
??_C@_0CO@PMBHOKJF@TXT_KEY_DIPLOSTRATEGY_WARMONGER_@ DB 'TXT_KEY_DIPLOSTR'
	DB	'ATEGY_WARMONGER_THREAT_SEVERE', 00H		; `string'
CONST	ENDS
;	COMDAT ??_C@_0CN@HDNAPEJO@TXT_KEY_DIPLOSTRATEGY_WARMONGER_@
CONST	SEGMENT
??_C@_0CN@HDNAPEJO@TXT_KEY_DIPLOSTRATEGY_WARMONGER_@ DB 'TXT_KEY_DIPLOSTR'
	DB	'ATEGY_WARMONGER_THREAT_MAJOR', 00H		; `string'
CONST	ENDS
;	COMDAT ??_C@_0CN@MMMCCIAI@TXT_KEY_DIPLOSTRATEGY_WARMONGER_@
CONST	SEGMENT
??_C@_0CN@MMMCCIAI@TXT_KEY_DIPLOSTRATEGY_WARMONGER_@ DB 'TXT_KEY_DIPLOSTR'
	DB	'ATEGY_WARMONGER_THREAT_MINOR', 00H		; `string'
CONST	ENDS
;	COMDAT ??_C@_0CM@NDBOGAOK@TXT_KEY_DIPLOSTRATEGY_WARMONGER_@
CONST	SEGMENT
??_C@_0CM@NDBOGAOK@TXT_KEY_DIPLOSTRATEGY_WARMONGER_@ DB 'TXT_KEY_DIPLOSTR'
	DB	'ATEGY_WARMONGER_THREAT_NONE', 00H		; `string'
CONST	ENDS
;	COMDAT ??_C@_0DO@FOHNGOKH@TXT_KEY_DIPLOSTRATEGY_EXPANSION_@
CONST	SEGMENT
??_C@_0DO@FOHNGOKH@TXT_KEY_DIPLOSTRATEGY_EXPANSION_@ DB 'TXT_KEY_DIPLOSTR'
	DB	'ATEGY_EXPANSION_AGGRESSIVE_POSTURE_INCREDIBLE', 00H ; `string'
CONST	ENDS
;	COMDAT ??_C@_0DI@MKFCKNHK@TXT_KEY_DIPLOSTRATEGY_EXPANSION_@
CONST	SEGMENT
??_C@_0DI@MKFCKNHK@TXT_KEY_DIPLOSTRATEGY_EXPANSION_@ DB 'TXT_KEY_DIPLOSTR'
	DB	'ATEGY_EXPANSION_AGGRESSIVE_POSTURE_HIGH', 00H ; `string'
CONST	ENDS
;	COMDAT ??_C@_0DK@IIPBKLAB@TXT_KEY_DIPLOSTRATEGY_EXPANSION_@
CONST	SEGMENT
??_C@_0DK@IIPBKLAB@TXT_KEY_DIPLOSTRATEGY_EXPANSION_@ DB 'TXT_KEY_DIPLOSTR'
	DB	'ATEGY_EXPANSION_AGGRESSIVE_POSTURE_MEDIUM', 00H ; `string'
CONST	ENDS
;	COMDAT ??_C@_0DN@OCKMAICG@TXT_KEY_DIPLOSTRATEGY_MILITARY_A@
CONST	SEGMENT
??_C@_0DN@OCKMAICG@TXT_KEY_DIPLOSTRATEGY_MILITARY_A@ DB 'TXT_KEY_DIPLOSTR'
	DB	'ATEGY_MILITARY_AGGRESSIVE_POSTURE_INCREDIBLE', 00H ; `string'
CONST	ENDS
;	COMDAT ??_C@_0DH@MLKHLLDC@TXT_KEY_DIPLOSTRATEGY_MILITARY_A@
CONST	SEGMENT
??_C@_0DH@MLKHLLDC@TXT_KEY_DIPLOSTRATEGY_MILITARY_A@ DB 'TXT_KEY_DIPLOSTR'
	DB	'ATEGY_MILITARY_AGGRESSIVE_POSTURE_HIGH', 00H ; `string'
CONST	ENDS
;	COMDAT ??_C@_0DJ@EEIFNKKI@TXT_KEY_DIPLOSTRATEGY_MILITARY_A@
CONST	SEGMENT
??_C@_0DJ@EEIFNKKI@TXT_KEY_DIPLOSTRATEGY_MILITARY_A@ DB 'TXT_KEY_DIPLOSTR'
	DB	'ATEGY_MILITARY_AGGRESSIVE_POSTURE_MEDIUM', 00H ; `string'
CONST	ENDS
;	COMDAT ??_C@_0DP@FOONADEN@TXT_KEY_DIPLOSTRATEGY_MILITARY_S@
CONST	SEGMENT
??_C@_0DP@FOONADEN@TXT_KEY_DIPLOSTRATEGY_MILITARY_S@ DB 'TXT_KEY_DIPLOSTR'
	DB	'ATEGY_MILITARY_STRENGTH_COMPARED_TO_US_IMMENSE', 00H ; `string'
CONST	ENDS
;	COMDAT ??_C@_0EA@LOGJOKO@TXT_KEY_DIPLOSTRATEGY_MILITARY_S@
CONST	SEGMENT
??_C@_0EA@LOGJOKO@TXT_KEY_DIPLOSTRATEGY_MILITARY_S@ DB 'TXT_KEY_DIPLOSTRA'
	DB	'TEGY_MILITARY_STRENGTH_COMPARED_TO_US_POWERFUL', 00H ; `string'
CONST	ENDS
;	COMDAT ??_C@_0DO@HBJIFBNG@TXT_KEY_DIPLOSTRATEGY_MILITARY_S@
CONST	SEGMENT
??_C@_0DO@HBJIFBNG@TXT_KEY_DIPLOSTRATEGY_MILITARY_S@ DB 'TXT_KEY_DIPLOSTR'
	DB	'ATEGY_MILITARY_STRENGTH_COMPARED_TO_US_STRONG', 00H ; `string'
CONST	ENDS
;	COMDAT ??_C@_0DP@JFAOACMJ@TXT_KEY_DIPLOSTRATEGY_MILITARY_S@
CONST	SEGMENT
??_C@_0DP@JFAOACMJ@TXT_KEY_DIPLOSTRATEGY_MILITARY_S@ DB 'TXT_KEY_DIPLOSTR'
	DB	'ATEGY_MILITARY_STRENGTH_COMPARED_TO_US_AVERAGE', 00H ; `string'
CONST	ENDS
;	COMDAT ??_C@_0DM@LHNIEGNI@TXT_KEY_DIPLOSTRATEGY_MILITARY_S@
CONST	SEGMENT
??_C@_0DM@LHNIEGNI@TXT_KEY_DIPLOSTRATEGY_MILITARY_S@ DB 'TXT_KEY_DIPLOSTR'
	DB	'ATEGY_MILITARY_STRENGTH_COMPARED_TO_US_POOR', 00H ; `string'
CONST	ENDS
;	COMDAT ??_C@_0DM@PLNLPOLO@TXT_KEY_DIPLOSTRATEGY_MILITARY_S@
CONST	SEGMENT
??_C@_0DM@PLNLPOLO@TXT_KEY_DIPLOSTRATEGY_MILITARY_S@ DB 'TXT_KEY_DIPLOSTR'
	DB	'ATEGY_MILITARY_STRENGTH_COMPARED_TO_US_WEAK', 00H ; `string'
CONST	ENDS
;	COMDAT ??_C@_0EA@CJGOBHIC@TXT_KEY_DIPLOSTRATEGY_MILITARY_S@
CONST	SEGMENT
??_C@_0EA@CJGOBHIC@TXT_KEY_DIPLOSTRATEGY_MILITARY_S@ DB 'TXT_KEY_DIPLOSTR'
	DB	'ATEGY_MILITARY_STRENGTH_COMPARED_TO_US_PATHETIC', 00H ; `string'
CONST	ENDS
;	COMDAT ??_C@_0DC@PNBBAKLD@TXT_KEY_DIPLOSTRATEGY_WARPROJECT@
CONST	SEGMENT
??_C@_0DC@PNBBAKLD@TXT_KEY_DIPLOSTRATEGY_WARPROJECT@ DB 'TXT_KEY_DIPLOSTR'
	DB	'ATEGY_WARPROJECTION_VERY_GOOD_WAR', 00H	; `string'
CONST	ENDS
;	COMDAT ??_C@_0CN@DIJHOCMG@TXT_KEY_DIPLOSTRATEGY_WARPROJECT@
CONST	SEGMENT
??_C@_0CN@DIJHOCMG@TXT_KEY_DIPLOSTRATEGY_WARPROJECT@ DB 'TXT_KEY_DIPLOSTR'
	DB	'ATEGY_WARPROJECTION_GOOD_WAR', 00H		; `string'
CONST	ENDS
;	COMDAT ??_C@_0DC@KKKJNOBI@TXT_KEY_DIPLOSTRATEGY_WARPROJECT@
CONST	SEGMENT
??_C@_0DC@KKKJNOBI@TXT_KEY_DIPLOSTRATEGY_WARPROJECT@ DB 'TXT_KEY_DIPLOSTR'
	DB	'ATEGY_WARPROJECTION_STALEMATE_WAR', 00H	; `string'
CONST	ENDS
;	COMDAT ??_C@_0CP@JNMDBPML@TXT_KEY_DIPLOSTRATEGY_WARPROJECT@
CONST	SEGMENT
??_C@_0CP@JNMDBPML@TXT_KEY_DIPLOSTRATEGY_WARPROJECT@ DB 'TXT_KEY_DIPLOSTR'
	DB	'ATEGY_WARPROJECTION_DEFEAT_WAR', 00H	; `string'
CONST	ENDS
;	COMDAT ??_C@_0DE@BNMOIPL@TXT_KEY_DIPLOSTRATEGY_WARPROJECT@
CONST	SEGMENT
??_C@_0DE@BNMOIPL@TXT_KEY_DIPLOSTRATEGY_WARPROJECT@ DB 'TXT_KEY_DIPLOSTRA'
	DB	'TEGY_WARPROJECTION_DESTRUCTION_WAR', 00H	; `string'
CONST	ENDS
;	COMDAT ??_C@_0CB@LNMHCNBL@TXT_KEY_SCIENCESTRATEGY_BANKRUPT@
CONST	SEGMENT
??_C@_0CB@LNMHCNBL@TXT_KEY_SCIENCESTRATEGY_BANKRUPT@ DB 'TXT_KEY_SCIENCES'
	DB	'TRATEGY_BANKRUPT', 00H			; `string'
CONST	ENDS
;	COMDAT ??_C@_0BN@FPEKJNGJ@TXT_KEY_SCIENCESTRATEGY_INFO?$AA@
CONST	SEGMENT
??_C@_0BN@FPEKJNGJ@TXT_KEY_SCIENCESTRATEGY_INFO?$AA@ DB 'TXT_KEY_SCIENCES'
	DB	'TRATEGY_INFO', 00H				; `string'
CONST	ENDS
;	COMDAT ??_C@_0CI@KOFOGLAF@TXT_KEY_SCIENCESTRATEGY_INFO_DOI@
CONST	SEGMENT
??_C@_0CI@KOFOGLAF@TXT_KEY_SCIENCESTRATEGY_INFO_DOI@ DB 'TXT_KEY_SCIENCES'
	DB	'TRATEGY_INFO_DOING_WELL', 00H		; `string'
CONST	ENDS
;	COMDAT ??_C@_0CK@CGLEDHOG@TXT_KEY_SCIENCESTRATEGY_INFO_DOI@
CONST	SEGMENT
??_C@_0CK@CGLEDHOG@TXT_KEY_SCIENCESTRATEGY_INFO_DOI@ DB 'TXT_KEY_SCIENCES'
	DB	'TRATEGY_INFO_DOING_POORLY', 00H		; `string'
CONST	ENDS
;	COMDAT ??_C@_0DD@GBLNNIKD@TXT_KEY_SCIENCESTRATEGY_RESEARCH@
CONST	SEGMENT
??_C@_0DD@GBLNNIKD@TXT_KEY_SCIENCESTRATEGY_RESEARCH@ DB 'TXT_KEY_SCIENCES'
	DB	'TRATEGY_RESEARCH_MILITARY_BUILDING', 00H	; `string'
CONST	ENDS
;	COMDAT ??_C@_0DA@BGIBLOEF@TXT_KEY_SCIENCESTRATEGY_RESEARCH@
CONST	SEGMENT
??_C@_0DA@BGIBLOEF@TXT_KEY_SCIENCESTRATEGY_RESEARCH@ DB 'TXT_KEY_SCIENCES'
	DB	'TRATEGY_RESEARCH_MILITARY_UNITS', 00H	; `string'
CONST	ENDS
;	COMDAT ??_C@_0DO@PHNKMOOG@TXT_KEY_SCIENCESTRATEGY_TECH_THA@
CONST	SEGMENT
??_C@_0DO@PHNKMOOG@TXT_KEY_SCIENCESTRATEGY_TECH_THA@ DB 'TXT_KEY_SCIENCES'
	DB	'TRATEGY_TECH_THAT_PROVIDES_SCIENCE_BUILDING_1', 00H ; `string'
CONST	ENDS
;	COMDAT ??_C@_0DO@NMPHJNCF@TXT_KEY_SCIENCESTRATEGY_TECH_THA@
CONST	SEGMENT
??_C@_0DO@NMPHJNCF@TXT_KEY_SCIENCESTRATEGY_TECH_THA@ DB 'TXT_KEY_SCIENCES'
	DB	'TRATEGY_TECH_THAT_PROVIDES_SCIENCE_BUILDING_2', 00H ; `string'
CONST	ENDS
;	COMDAT ??_C@_0DO@MFOMKMGE@TXT_KEY_SCIENCESTRATEGY_TECH_THA@
CONST	SEGMENT
??_C@_0DO@MFOMKMGE@TXT_KEY_SCIENCESTRATEGY_TECH_THA@ DB 'TXT_KEY_SCIENCES'
	DB	'TRATEGY_TECH_THAT_PROVIDES_SCIENCE_BUILDING_3', 00H ; `string'
CONST	ENDS
;	COMDAT ??_C@_0BO@JHKONBBO@TXT_KEY_TECHSTRATEGY_RESOURCE?$AA@
CONST	SEGMENT
??_C@_0BO@JHKONBBO@TXT_KEY_TECHSTRATEGY_RESOURCE?$AA@ DB 'TXT_KEY_TECHSTR'
	DB	'ATEGY_RESOURCE', 00H			; `string'
CONST	ENDS
;	COMDAT ??_C@_0BP@CIHAMPA@TXT_KEY_TECHSTRATEGY_CIV_BONUS?$AA@
CONST	SEGMENT
??_C@_0BP@CIHAMPA@TXT_KEY_TECHSTRATEGY_CIV_BONUS?$AA@ DB 'TXT_KEY_TECHSTR'
	DB	'ATEGY_CIV_BONUS', 00H			; `string'
CONST	ENDS
;	COMDAT ??_C@_0CL@FILDAJCG@TXT_KEY_TECHSTRATEGY_CIV_BONUS_I@
CONST	SEGMENT
??_C@_0CL@FILDAJCG@TXT_KEY_TECHSTRATEGY_CIV_BONUS_I@ DB 'TXT_KEY_TECHSTRA'
	DB	'TEGY_CIV_BONUS_IMPROVEMENT', 00H		; `string'
CONST	ENDS
;	COMDAT ??_C@_0CI@EDMHMCMP@TXT_KEY_TECHSTRATEGY_CIV_BONUS_B@
CONST	SEGMENT
??_C@_0CI@EDMHMCMP@TXT_KEY_TECHSTRATEGY_CIV_BONUS_B@ DB 'TXT_KEY_TECHSTRA'
	DB	'TEGY_CIV_BONUS_BUILDING', 00H		; `string'
CONST	ENDS
;	COMDAT ??_C@_0CE@DNCHLOK@TXT_KEY_TECHSTRATEGY_CIV_BONUS_U@
CONST	SEGMENT
??_C@_0CE@DNCHLOK@TXT_KEY_TECHSTRATEGY_CIV_BONUS_U@ DB 'TXT_KEY_TECHSTRAT'
	DB	'EGY_CIV_BONUS_UNIT', 00H			; `string'
CONST	ENDS
;	COMDAT ??_C@_0P@NPJBAHPJ@FLAVOR_SCIENCE?$AA@
CONST	SEGMENT
??_C@_0P@NPJBAHPJ@FLAVOR_SCIENCE?$AA@ DB 'FLAVOR_SCIENCE', 00H ; `string'
CONST	ENDS
;	COMDAT ??_C@_0CD@LIKPJOEP@TXT_KEY_BUILD_A_CITY_MCFLY_FOREI@
CONST	SEGMENT
??_C@_0CD@LIKPJOEP@TXT_KEY_BUILD_A_CITY_MCFLY_FOREI@ DB 'TXT_KEY_BUILD_A_'
	DB	'CITY_MCFLY_FOREIGN', 00H			; `string'
CONST	ENDS
;	COMDAT ??_C@_0CD@FLGPHAIC@TXT_KEY_BUILD_A_CITY_MCFLY_SCIEN@
CONST	SEGMENT
??_C@_0CD@FLGPHAIC@TXT_KEY_BUILD_A_CITY_MCFLY_SCIEN@ DB 'TXT_KEY_BUILD_A_'
	DB	'CITY_MCFLY_SCIENCE', 00H			; `string'
CONST	ENDS
;	COMDAT ??_C@_0CE@CBJMPDML@TXT_KEY_BUILD_A_CITY_MCFLY_MILIT@
CONST	SEGMENT
??_C@_0CE@CBJMPDML@TXT_KEY_BUILD_A_CITY_MCFLY_MILIT@ DB 'TXT_KEY_BUILD_A_'
	DB	'CITY_MCFLY_MILITARY', 00H			; `string'
CONST	ENDS
;	COMDAT ??_C@_0CE@NKNBMIFP@TXT_KEY_BUILD_A_CITY_MCFLY_ECONO@
CONST	SEGMENT
??_C@_0CE@NKNBMIFP@TXT_KEY_BUILD_A_CITY_MCFLY_ECONO@ DB 'TXT_KEY_BUILD_A_'
	DB	'CITY_MCFLY_ECONOMIC', 00H			; `string'
CONST	ENDS
;	COMDAT xdata$x
xdata$x	SEGMENT
__ehfuncinfo$?BuildCounselList@CvAdvisorCounsel@@QAEXW4PlayerTypes@@@Z DD 019930522H
	DD	05eH
	DD	FLAT:__unwindtable$?BuildCounselList@CvAdvisorCounsel@@QAEXW4PlayerTypes@@@Z
	DD	2 DUP(00H)
	DD	2 DUP(00H)
	DD	00H
	DD	01H
__unwindtable$?BuildCounselList@CvAdvisorCounsel@@QAEXW4PlayerTypes@@@Z DD 0ffffffffH
	DD	FLAT:__unwindfunclet$?BuildCounselList@CvAdvisorCounsel@@QAEXW4PlayerTypes@@@Z$0
	DD	00H
	DD	FLAT:__unwindfunclet$?BuildCounselList@CvAdvisorCounsel@@QAEXW4PlayerTypes@@@Z$1
	DD	00H
	DD	FLAT:__unwindfunclet$?BuildCounselList@CvAdvisorCounsel@@QAEXW4PlayerTypes@@@Z$2
	DD	00H
	DD	FLAT:__unwindfunclet$?BuildCounselList@CvAdvisorCounsel@@QAEXW4PlayerTypes@@@Z$3
	DD	00H
	DD	FLAT:__unwindfunclet$?BuildCounselList@CvAdvisorCounsel@@QAEXW4PlayerTypes@@@Z$4
	DD	00H
	DD	FLAT:__unwindfunclet$?BuildCounselList@CvAdvisorCounsel@@QAEXW4PlayerTypes@@@Z$5
	DD	00H
	DD	FLAT:__unwindfunclet$?BuildCounselList@CvAdvisorCounsel@@QAEXW4PlayerTypes@@@Z$6
	DD	00H
	DD	FLAT:__unwindfunclet$?BuildCounselList@CvAdvisorCounsel@@QAEXW4PlayerTypes@@@Z$7
	DD	00H
	DD	FLAT:__unwindfunclet$?BuildCounselList@CvAdvisorCounsel@@QAEXW4PlayerTypes@@@Z$8
	DD	00H
	DD	FLAT:__unwindfunclet$?BuildCounselList@CvAdvisorCounsel@@QAEXW4PlayerTypes@@@Z$9
	DD	00H
	DD	FLAT:__unwindfunclet$?BuildCounselList@CvAdvisorCounsel@@QAEXW4PlayerTypes@@@Z$10
	DD	00H
	DD	FLAT:__unwindfunclet$?BuildCounselList@CvAdvisorCounsel@@QAEXW4PlayerTypes@@@Z$11
	DD	00H
	DD	FLAT:__unwindfunclet$?BuildCounselList@CvAdvisorCounsel@@QAEXW4PlayerTypes@@@Z$12
	DD	00H
	DD	FLAT:__unwindfunclet$?BuildCounselList@CvAdvisorCounsel@@QAEXW4PlayerTypes@@@Z$13
	DD	00H
	DD	FLAT:__unwindfunclet$?BuildCounselList@CvAdvisorCounsel@@QAEXW4PlayerTypes@@@Z$14
	DD	00H
	DD	FLAT:__unwindfunclet$?BuildCounselList@CvAdvisorCounsel@@QAEXW4PlayerTypes@@@Z$15
	DD	00H
	DD	FLAT:__unwindfunclet$?BuildCounselList@CvAdvisorCounsel@@QAEXW4PlayerTypes@@@Z$16
	DD	00H
	DD	FLAT:__unwindfunclet$?BuildCounselList@CvAdvisorCounsel@@QAEXW4PlayerTypes@@@Z$17
	DD	00H
	DD	FLAT:__unwindfunclet$?BuildCounselList@CvAdvisorCounsel@@QAEXW4PlayerTypes@@@Z$18
	DD	00H
	DD	FLAT:__unwindfunclet$?BuildCounselList@CvAdvisorCounsel@@QAEXW4PlayerTypes@@@Z$19
	DD	00H
	DD	FLAT:__unwindfunclet$?BuildCounselList@CvAdvisorCounsel@@QAEXW4PlayerTypes@@@Z$20
	DD	00H
	DD	FLAT:__unwindfunclet$?BuildCounselList@CvAdvisorCounsel@@QAEXW4PlayerTypes@@@Z$21
	DD	00H
	DD	FLAT:__unwindfunclet$?BuildCounselList@CvAdvisorCounsel@@QAEXW4PlayerTypes@@@Z$22
	DD	00H
	DD	FLAT:__unwindfunclet$?BuildCounselList@CvAdvisorCounsel@@QAEXW4PlayerTypes@@@Z$23
	DD	00H
	DD	FLAT:__unwindfunclet$?BuildCounselList@CvAdvisorCounsel@@QAEXW4PlayerTypes@@@Z$24
	DD	00H
	DD	FLAT:__unwindfunclet$?BuildCounselList@CvAdvisorCounsel@@QAEXW4PlayerTypes@@@Z$25
	DD	00H
	DD	FLAT:__unwindfunclet$?BuildCounselList@CvAdvisorCounsel@@QAEXW4PlayerTypes@@@Z$26
	DD	00H
	DD	FLAT:__unwindfunclet$?BuildCounselList@CvAdvisorCounsel@@QAEXW4PlayerTypes@@@Z$27
	DD	00H
	DD	FLAT:__unwindfunclet$?BuildCounselList@CvAdvisorCounsel@@QAEXW4PlayerTypes@@@Z$28
	DD	00H
	DD	FLAT:__unwindfunclet$?BuildCounselList@CvAdvisorCounsel@@QAEXW4PlayerTypes@@@Z$29
	DD	00H
	DD	FLAT:__unwindfunclet$?BuildCounselList@CvAdvisorCounsel@@QAEXW4PlayerTypes@@@Z$30
	DD	00H
	DD	FLAT:__unwindfunclet$?BuildCounselList@CvAdvisorCounsel@@QAEXW4PlayerTypes@@@Z$31
	DD	00H
	DD	FLAT:__unwindfunclet$?BuildCounselList@CvAdvisorCounsel@@QAEXW4PlayerTypes@@@Z$32
	DD	00H
	DD	FLAT:__unwindfunclet$?BuildCounselList@CvAdvisorCounsel@@QAEXW4PlayerTypes@@@Z$33
	DD	00H
	DD	FLAT:__unwindfunclet$?BuildCounselList@CvAdvisorCounsel@@QAEXW4PlayerTypes@@@Z$34
	DD	00H
	DD	FLAT:__unwindfunclet$?BuildCounselList@CvAdvisorCounsel@@QAEXW4PlayerTypes@@@Z$35
	DD	00H
	DD	FLAT:__unwindfunclet$?BuildCounselList@CvAdvisorCounsel@@QAEXW4PlayerTypes@@@Z$36
	DD	00H
	DD	FLAT:__unwindfunclet$?BuildCounselList@CvAdvisorCounsel@@QAEXW4PlayerTypes@@@Z$37
	DD	00H
	DD	FLAT:__unwindfunclet$?BuildCounselList@CvAdvisorCounsel@@QAEXW4PlayerTypes@@@Z$38
	DD	00H
	DD	FLAT:__unwindfunclet$?BuildCounselList@CvAdvisorCounsel@@QAEXW4PlayerTypes@@@Z$39
	DD	00H
	DD	FLAT:__unwindfunclet$?BuildCounselList@CvAdvisorCounsel@@QAEXW4PlayerTypes@@@Z$40
	DD	00H
	DD	FLAT:__unwindfunclet$?BuildCounselList@CvAdvisorCounsel@@QAEXW4PlayerTypes@@@Z$41
	DD	00H
	DD	FLAT:__unwindfunclet$?BuildCounselList@CvAdvisorCounsel@@QAEXW4PlayerTypes@@@Z$42
	DD	00H
	DD	FLAT:__unwindfunclet$?BuildCounselList@CvAdvisorCounsel@@QAEXW4PlayerTypes@@@Z$43
	DD	00H
	DD	FLAT:__unwindfunclet$?BuildCounselList@CvAdvisorCounsel@@QAEXW4PlayerTypes@@@Z$44
	DD	00H
	DD	FLAT:__unwindfunclet$?BuildCounselList@CvAdvisorCounsel@@QAEXW4PlayerTypes@@@Z$45
	DD	00H
	DD	FLAT:__unwindfunclet$?BuildCounselList@CvAdvisorCounsel@@QAEXW4PlayerTypes@@@Z$46
	DD	00H
	DD	FLAT:__unwindfunclet$?BuildCounselList@CvAdvisorCounsel@@QAEXW4PlayerTypes@@@Z$47
	DD	00H
	DD	FLAT:__unwindfunclet$?BuildCounselList@CvAdvisorCounsel@@QAEXW4PlayerTypes@@@Z$48
	DD	00H
	DD	FLAT:__unwindfunclet$?BuildCounselList@CvAdvisorCounsel@@QAEXW4PlayerTypes@@@Z$49
	DD	00H
	DD	FLAT:__unwindfunclet$?BuildCounselList@CvAdvisorCounsel@@QAEXW4PlayerTypes@@@Z$50
	DD	00H
	DD	FLAT:__unwindfunclet$?BuildCounselList@CvAdvisorCounsel@@QAEXW4PlayerTypes@@@Z$51
	DD	00H
	DD	FLAT:__unwindfunclet$?BuildCounselList@CvAdvisorCounsel@@QAEXW4PlayerTypes@@@Z$52
	DD	00H
	DD	FLAT:__unwindfunclet$?BuildCounselList@CvAdvisorCounsel@@QAEXW4PlayerTypes@@@Z$53
	DD	00H
	DD	FLAT:__unwindfunclet$?BuildCounselList@CvAdvisorCounsel@@QAEXW4PlayerTypes@@@Z$54
	DD	00H
	DD	FLAT:__unwindfunclet$?BuildCounselList@CvAdvisorCounsel@@QAEXW4PlayerTypes@@@Z$55
	DD	00H
	DD	FLAT:__unwindfunclet$?BuildCounselList@CvAdvisorCounsel@@QAEXW4PlayerTypes@@@Z$56
	DD	00H
	DD	FLAT:__unwindfunclet$?BuildCounselList@CvAdvisorCounsel@@QAEXW4PlayerTypes@@@Z$57
	DD	00H
	DD	FLAT:__unwindfunclet$?BuildCounselList@CvAdvisorCounsel@@QAEXW4PlayerTypes@@@Z$58
	DD	00H
	DD	FLAT:__unwindfunclet$?BuildCounselList@CvAdvisorCounsel@@QAEXW4PlayerTypes@@@Z$59
	DD	00H
	DD	FLAT:__unwindfunclet$?BuildCounselList@CvAdvisorCounsel@@QAEXW4PlayerTypes@@@Z$60
	DD	00H
	DD	FLAT:__unwindfunclet$?BuildCounselList@CvAdvisorCounsel@@QAEXW4PlayerTypes@@@Z$61
	DD	00H
	DD	FLAT:__unwindfunclet$?BuildCounselList@CvAdvisorCounsel@@QAEXW4PlayerTypes@@@Z$62
	DD	00H
	DD	FLAT:__unwindfunclet$?BuildCounselList@CvAdvisorCounsel@@QAEXW4PlayerTypes@@@Z$63
	DD	00H
	DD	FLAT:__unwindfunclet$?BuildCounselList@CvAdvisorCounsel@@QAEXW4PlayerTypes@@@Z$64
	DD	00H
	DD	FLAT:__unwindfunclet$?BuildCounselList@CvAdvisorCounsel@@QAEXW4PlayerTypes@@@Z$65
	DD	00H
	DD	FLAT:__unwindfunclet$?BuildCounselList@CvAdvisorCounsel@@QAEXW4PlayerTypes@@@Z$66
	DD	00H
	DD	FLAT:__unwindfunclet$?BuildCounselList@CvAdvisorCounsel@@QAEXW4PlayerTypes@@@Z$67
	DD	00H
	DD	FLAT:__unwindfunclet$?BuildCounselList@CvAdvisorCounsel@@QAEXW4PlayerTypes@@@Z$68
	DD	00H
	DD	FLAT:__unwindfunclet$?BuildCounselList@CvAdvisorCounsel@@QAEXW4PlayerTypes@@@Z$69
	DD	00H
	DD	FLAT:__unwindfunclet$?BuildCounselList@CvAdvisorCounsel@@QAEXW4PlayerTypes@@@Z$70
	DD	00H
	DD	FLAT:__unwindfunclet$?BuildCounselList@CvAdvisorCounsel@@QAEXW4PlayerTypes@@@Z$71
	DD	00H
	DD	FLAT:__unwindfunclet$?BuildCounselList@CvAdvisorCounsel@@QAEXW4PlayerTypes@@@Z$72
	DD	00H
	DD	FLAT:__unwindfunclet$?BuildCounselList@CvAdvisorCounsel@@QAEXW4PlayerTypes@@@Z$73
	DD	00H
	DD	FLAT:__unwindfunclet$?BuildCounselList@CvAdvisorCounsel@@QAEXW4PlayerTypes@@@Z$74
	DD	00H
	DD	FLAT:__unwindfunclet$?BuildCounselList@CvAdvisorCounsel@@QAEXW4PlayerTypes@@@Z$75
	DD	00H
	DD	FLAT:__unwindfunclet$?BuildCounselList@CvAdvisorCounsel@@QAEXW4PlayerTypes@@@Z$76
	DD	00H
	DD	FLAT:__unwindfunclet$?BuildCounselList@CvAdvisorCounsel@@QAEXW4PlayerTypes@@@Z$77
	DD	00H
	DD	FLAT:__unwindfunclet$?BuildCounselList@CvAdvisorCounsel@@QAEXW4PlayerTypes@@@Z$78
	DD	00H
	DD	FLAT:__unwindfunclet$?BuildCounselList@CvAdvisorCounsel@@QAEXW4PlayerTypes@@@Z$79
	DD	00H
	DD	FLAT:__unwindfunclet$?BuildCounselList@CvAdvisorCounsel@@QAEXW4PlayerTypes@@@Z$80
	DD	00H
	DD	FLAT:__unwindfunclet$?BuildCounselList@CvAdvisorCounsel@@QAEXW4PlayerTypes@@@Z$81
	DD	00H
	DD	FLAT:__unwindfunclet$?BuildCounselList@CvAdvisorCounsel@@QAEXW4PlayerTypes@@@Z$82
	DD	00H
	DD	FLAT:__unwindfunclet$?BuildCounselList@CvAdvisorCounsel@@QAEXW4PlayerTypes@@@Z$83
	DD	00H
	DD	FLAT:__unwindfunclet$?BuildCounselList@CvAdvisorCounsel@@QAEXW4PlayerTypes@@@Z$84
	DD	054H
	DD	FLAT:__unwindfunclet$?BuildCounselList@CvAdvisorCounsel@@QAEXW4PlayerTypes@@@Z$85
	DD	00H
	DD	FLAT:__unwindfunclet$?BuildCounselList@CvAdvisorCounsel@@QAEXW4PlayerTypes@@@Z$86
	DD	00H
	DD	FLAT:__unwindfunclet$?BuildCounselList@CvAdvisorCounsel@@QAEXW4PlayerTypes@@@Z$87
	DD	00H
	DD	FLAT:__unwindfunclet$?BuildCounselList@CvAdvisorCounsel@@QAEXW4PlayerTypes@@@Z$88
	DD	00H
	DD	FLAT:__unwindfunclet$?BuildCounselList@CvAdvisorCounsel@@QAEXW4PlayerTypes@@@Z$89
	DD	00H
	DD	FLAT:__unwindfunclet$?BuildCounselList@CvAdvisorCounsel@@QAEXW4PlayerTypes@@@Z$90
	DD	00H
	DD	FLAT:__unwindfunclet$?BuildCounselList@CvAdvisorCounsel@@QAEXW4PlayerTypes@@@Z$91
	DD	00H
	DD	FLAT:__unwindfunclet$?BuildCounselList@CvAdvisorCounsel@@QAEXW4PlayerTypes@@@Z$92
	DD	00H
	DD	FLAT:__unwindfunclet$?BuildCounselList@CvAdvisorCounsel@@QAEXW4PlayerTypes@@@Z$93
; Function compile flags: /Odtp
; File d:\sources\lekmod_git\checkout\lekmod_dll\cvgamecoredll_expansion2\cvadvisorcounsel.cpp
xdata$x	ENDS
;	COMDAT ?BuildCounselList@CvAdvisorCounsel@@QAEXW4PlayerTypes@@@Z
_TEXT	SEGMENT
tv3855 = -23116						; size = 4
tv4576 = -23112						; size = 4
tv3853 = -23108						; size = 4
tv4333 = -23104						; size = 4
tv3851 = -23100						; size = 4
tv4306 = -23096						; size = 4
tv3849 = -23092						; size = 4
tv4303 = -23088						; size = 4
tv3606 = -23084						; size = 4
tv3847 = -23080						; size = 4
tv4305 = -23076						; size = 4
tv3845 = -23072						; size = 4
tv4284 = -23068						; size = 4
tv3843 = -23064						; size = 4
tv4283 = -23060						; size = 4
tv3841 = -23056						; size = 4
tv4281 = -23052						; size = 4
tv4157 = -23048						; size = 4
tv3839 = -23044						; size = 4
tv4277 = -23040						; size = 4
tv3028 = -23036						; size = 4
tv3836 = -23032						; size = 4
tv4280 = -23028						; size = 4
tv3834 = -23024						; size = 4
tv4279 = -23020						; size = 4
tv3832 = -23016						; size = 4
tv4282 = -23012						; size = 4
tv3830 = -23008						; size = 4
tv4278 = -23004						; size = 4
tv3828 = -23000						; size = 4
tv4276 = -22996						; size = 4
tv3826 = -22992						; size = 4
tv4288 = -22988						; size = 4
tv3824 = -22984						; size = 4
tv4274 = -22980						; size = 4
tv3822 = -22976						; size = 4
tv4273 = -22972						; size = 4
tv3820 = -22968						; size = 4
tv4272 = -22964						; size = 4
tv3818 = -22960						; size = 4
tv4275 = -22956						; size = 4
tv3816 = -22952						; size = 4
tv4290 = -22948						; size = 4
tv3814 = -22944						; size = 4
tv4532 = -22940						; size = 4
tv2535 = -22936						; size = 4
tv3812 = -22932						; size = 4
tv4335 = -22928						; size = 4
tv3810 = -22924						; size = 4
tv4349 = -22920						; size = 4
tv3808 = -22916						; size = 4
tv4355 = -22912						; size = 4
tv3806 = -22908						; size = 4
tv4253 = -22904						; size = 4
tv3804 = -22900						; size = 4
tv4296 = -22896						; size = 4
tv3802 = -22892						; size = 4
tv4295 = -22888						; size = 4
tv2448 = -22884						; size = 4
tv3800 = -22880						; size = 4
tv4289 = -22876						; size = 4
tv3798 = -22872						; size = 4
tv4299 = -22868						; size = 4
tv3796 = -22864						; size = 4
tv4285 = -22860						; size = 4
tv3794 = -22856						; size = 4
tv4294 = -22852						; size = 4
tv3792 = -22848						; size = 4
tv4338 = -22844						; size = 4
tv3790 = -22840						; size = 4
tv4291 = -22836						; size = 4
tv2394 = -22832						; size = 4
tv3788 = -22828						; size = 4
tv4342 = -22824						; size = 4
tv3786 = -22820						; size = 4
tv4352 = -22816						; size = 4
tv3784 = -22812						; size = 4
tv4533 = -22808						; size = 4
tv3782 = -22804						; size = 4
tv4337 = -22800						; size = 4
tv3780 = -22796						; size = 4
tv4269 = -22792						; size = 4
tv3778 = -22788						; size = 4
tv4271 = -22784						; size = 4
tv2334 = -22780						; size = 4
tv3776 = -22776						; size = 4
tv4270 = -22772						; size = 4
tv3774 = -22768						; size = 4
tv4292 = -22764						; size = 4
tv3772 = -22760						; size = 4
tv4334 = -22756						; size = 4
tv3770 = -22752						; size = 4
tv4346 = -22748						; size = 4
tv3768 = -22744						; size = 4
tv4340 = -22740						; size = 4
tv3766 = -22736						; size = 4
tv4287 = -22732						; size = 4
tv2280 = -22728						; size = 4
tv2249 = -22724						; size = 4
tv3764 = -22720						; size = 4
tv4311 = -22716						; size = 4
tv3762 = -22712						; size = 4
tv4347 = -22708						; size = 4
tv3760 = -22704						; size = 4
tv4348 = -22700						; size = 4
tv2028 = -22696						; size = 4
tv3758 = -22692						; size = 4
tv4258 = -22688						; size = 4
tv3756 = -22684						; size = 4
tv4257 = -22680						; size = 4
tv3754 = -22676						; size = 4
tv4256 = -22672						; size = 4
tv3752 = -22668						; size = 4
tv4224 = -22664						; size = 4
tv3750 = -22660						; size = 4
tv4225 = -22656						; size = 4
tv1823 = -22652						; size = 4
tv3748 = -22648						; size = 4
tv4226 = -22644						; size = 4
tv3746 = -22640						; size = 4
tv4227 = -22636						; size = 4
tv3744 = -22632						; size = 4
tv4229 = -22628						; size = 4
tv1737 = -22624						; size = 4
tv3742 = -22620						; size = 4
tv4230 = -22616						; size = 4
tv3740 = -22612						; size = 4
tv4231 = -22608						; size = 4
tv3738 = -22604						; size = 4
tv4232 = -22600						; size = 4
tv1619 = -22596						; size = 4
tv3736 = -22592						; size = 4
tv4228 = -22588						; size = 4
tv3734 = -22584						; size = 4
tv4233 = -22580						; size = 4
tv3732 = -22576						; size = 4
tv4234 = -22572						; size = 4
tv3730 = -22568						; size = 4
tv4235 = -22564						; size = 4
tv3728 = -22560						; size = 4
tv4236 = -22556						; size = 4
tv3726 = -22552						; size = 4
tv4237 = -22548						; size = 4
tv3724 = -22544						; size = 4
tv4238 = -22540						; size = 4
tv1407 = -22536						; size = 4
tv3722 = -22532						; size = 4
tv4239 = -22528						; size = 4
tv3720 = -22524						; size = 4
tv4240 = -22520						; size = 4
tv3718 = -22516						; size = 4
tv4241 = -22512						; size = 4
tv3716 = -22508						; size = 4
tv4242 = -22504						; size = 4
tv3714 = -22500						; size = 4
tv4243 = -22496						; size = 4
tv1253 = -22492						; size = 4
tv3712 = -22488						; size = 4
tv4244 = -22484						; size = 4
tv3710 = -22480						; size = 4
tv4245 = -22476						; size = 4
tv3708 = -22472						; size = 4
tv4246 = -22468						; size = 4
tv3706 = -22464						; size = 4
tv4247 = -22460						; size = 4
tv3704 = -22456						; size = 4
tv4248 = -22452						; size = 4
tv3702 = -22448						; size = 4
tv4249 = -22444						; size = 4
tv3877 = -22440						; size = 4
tv3700 = -22436						; size = 4
tv4250 = -22432						; size = 4
tv3698 = -22428						; size = 4
tv4251 = -22424						; size = 4
tv3696 = -22420						; size = 4
tv4308 = -22416						; size = 4
tv3694 = -22412						; size = 4
tv4339 = -22408						; size = 4
tv3692 = -22404						; size = 4
tv4343 = -22400						; size = 4
tv3690 = -22396						; size = 4
tv4255 = -22392						; size = 4
tv3688 = -22388						; size = 4
tv4254 = -22384						; size = 4
tv3686 = -22380						; size = 4
tv4298 = -22376						; size = 4
tv3684 = -22372						; size = 4
tv4300 = -22368						; size = 4
tv3682 = -22364						; size = 4
tv4297 = -22360						; size = 4
tv3680 = -22356						; size = 4
tv3668 = -22352						; size = 4
tv3677 = -22348						; size = 4
tv3660 = -22344						; size = 4
tv3675 = -22340						; size = 4
tv3644 = -22336						; size = 4
tv3673 = -22332						; size = 4
tv4060 = -22328						; size = 4
tv3671 = -22324						; size = 4
tv74 = -22320						; size = 4
_this$ = -22316						; size = 4
$T226269 = -22312					; size = 4
$T226268 = -22308					; size = 4
$T225643 = -8996					; size = 4
$T225639 = -8992					; size = 4
$T225626 = -8988					; size = 4
$T225622 = -8984					; size = 4
$T225618 = -8980					; size = 4
$T225614 = -8976					; size = 4
$T225610 = -8972					; size = 4
$T225606 = -8968					; size = 4
$T225602 = -8964					; size = 4
$T225598 = -8957					; size = 1
$T225589 = -8956					; size = 4
$T225577 = -8952					; size = 4
$T225573 = -8948					; size = 4
$T225561 = -8944					; size = 4
$T225557 = -8940					; size = 4
$T225553 = -8936					; size = 4
$T225544 = -8932					; size = 4
$T225540 = -8928					; size = 4
$T225536 = -8924					; size = 4
$T225527 = -8920					; size = 4
$T225523 = -8916					; size = 4
$T225516 = -8912					; size = 4
$T225509 = -8908					; size = 4
$T225505 = -8904					; size = 4
$T225498 = -8900					; size = 4
$T225494 = -8896					; size = 4
$T225486 = -8892					; size = 4
$T225485 = -8888					; size = 4
$T225457 = -8884					; size = 4
$T225453 = -8880					; size = 4
$T225449 = -8876					; size = 4
$T225445 = -8872					; size = 4
$T225441 = -8868					; size = 4
$T225437 = -8864					; size = 4
$T225433 = -8860					; size = 4
$T225429 = -8856					; size = 4
$T225417 = -8852					; size = 4
$T225413 = -8848					; size = 4
$T225409 = -8841					; size = 1
$T225400 = -8840					; size = 4
$T225396 = -8833					; size = 1
$T225387 = -8832					; size = 4
$T225383 = -8828					; size = 4
$T225379 = -8824					; size = 4
$T225367 = -8820					; size = 4
$T225363 = -8816					; size = 4
$T225359 = -8812					; size = 4
$T225355 = -8808					; size = 4
$T225351 = -8804					; size = 4
$T225347 = -8800					; size = 4
$T225343 = -8796					; size = 4
$T225339 = -8792					; size = 4
$T225335 = -8788					; size = 4
$T225331 = -8784					; size = 4
$T225327 = -8780					; size = 4
$T225323 = -8776					; size = 4
$T225319 = -8772					; size = 4
$T225315 = -8768					; size = 4
$T225311 = -8764					; size = 4
$T225307 = -8757					; size = 1
$T225298 = -8756					; size = 4
$T225286 = -8752					; size = 4
$T225282 = -8748					; size = 4
$T225278 = -8744					; size = 4
$T225274 = -8740					; size = 4
$T225270 = -8736					; size = 4
$T225266 = -8732					; size = 4
$T225262 = -8728					; size = 4
$T225258 = -8724					; size = 4
$T225254 = -8720					; size = 4
$T225250 = -8716					; size = 4
$T225246 = -8712					; size = 4
$T225242 = -8708					; size = 4
$T225238 = -8704					; size = 4
$T225234 = -8700					; size = 4
$T225230 = -8696					; size = 4
$T225226 = -8692					; size = 4
$T225222 = -8688					; size = 4
$T225218 = -8684					; size = 4
$T225214 = -8680					; size = 4
$T225210 = -8676					; size = 4
$T225206 = -8672					; size = 4
$T225202 = -8668					; size = 4
$T225198 = -8664					; size = 4
$T225194 = -8660					; size = 4
$T225190 = -8656					; size = 4
$T225186 = -8652					; size = 4
$T225182 = -8648					; size = 4
$T225178 = -8644					; size = 4
$T225174 = -8640					; size = 4
$T225170 = -8633					; size = 1
$T225161 = -8632					; size = 4
$T225149 = -8628					; size = 4
$T225145 = -8624					; size = 4
$T225141 = -8620					; size = 4
$T225137 = -8616					; size = 4
$T225133 = -8612					; size = 4
$T225129 = -8608					; size = 4
$T225125 = -8604					; size = 4
$T225121 = -8600					; size = 4
$T225115 = -8596					; size = 4
$T225108 = -8592					; size = 4
$T225104 = -8588					; size = 4
$T225100 = -8584					; size = 4
$T225096 = -8580					; size = 4
$T225092 = -8576					; size = 4
$T225088 = -8572					; size = 4
$T225084 = -8568					; size = 4
$T225080 = -8564					; size = 4
$T225076 = -8560					; size = 4
$T225072 = -8556					; size = 4
$T225068 = -8552					; size = 4
$T225064 = -8548					; size = 4
$T225060 = -8544					; size = 4
$T225056 = -8540					; size = 4
$T225055 = -8536					; size = 4
$T225048 = -8532					; size = 4
$T225044 = -8528					; size = 4
$T225040 = -8524					; size = 4
$T225028 = -8520					; size = 4
$T224930 = -8516					; size = 80
$T224929 = -8436					; size = 80
$T224928 = -8356					; size = 80
$T224927 = -8276					; size = 80
$T224926 = -8196					; size = 4
$T224925 = -8192					; size = 4
$T224924 = -8188					; size = 80
$T224923 = -8108					; size = 80
$T224922 = -8028					; size = 4
$T224921 = -8024					; size = 4
$T224920 = -8020					; size = 80
$T224919 = -7940					; size = 80
$T224918 = -7860					; size = 4
$T224917 = -7856					; size = 4
$T224916 = -7852					; size = 4
$T224915 = -7848					; size = 80
$T224914 = -7768					; size = 4
$T224913 = -7764					; size = 4
$T224912 = -7760					; size = 80
$T224911 = -7680					; size = 4
$T224910 = -7676					; size = 80
$T224909 = -7596					; size = 4
$T224908 = -7592					; size = 4
$T224907 = -7588					; size = 80
$T224906 = -7508					; size = 4
$T224905 = -7504					; size = 80
$T224904 = -7424					; size = 4
$T224903 = -7420					; size = 4
$T224902 = -7416					; size = 80
$T224901 = -7336					; size = 4
$T224900 = -7332					; size = 4
$T224899 = -7328					; size = 4
$T224898 = -7324					; size = 80
$T224897 = -7244					; size = 80
$T224896 = -7164					; size = 80
$T224895 = -7084					; size = 80
$T224894 = -7004					; size = 80
$T224893 = -6924					; size = 80
$T224892 = -6844					; size = 80
$T224891 = -6764					; size = 80
$T224890 = -6684					; size = 80
$T224889 = -6604					; size = 80
$T224888 = -6524					; size = 80
$T224887 = -6444					; size = 80
$T224886 = -6364					; size = 80
$T224885 = -6284					; size = 80
$T224884 = -6204					; size = 80
$T224883 = -6124					; size = 80
$T224882 = -6044					; size = 80
$T224881 = -5964					; size = 80
$T224880 = -5884					; size = 80
$T224879 = -5804					; size = 80
$T224878 = -5724					; size = 80
$T224877 = -5644					; size = 80
$T224876 = -5564					; size = 80
$T224875 = -5484					; size = 80
$T224874 = -5404					; size = 80
$T224873 = -5324					; size = 80
$T224872 = -5244					; size = 80
$T224871 = -5164					; size = 80
$T224870 = -5084					; size = 80
$T224869 = -5004					; size = 80
$T224868 = -4924					; size = 80
$T224867 = -4844					; size = 4
$T224866 = -4840					; size = 4
$T224865 = -4836					; size = 80
$T224864 = -4756					; size = 4
$T224863 = -4752					; size = 4
$T224862 = -4748					; size = 80
$T224861 = -4668					; size = 4
$T224860 = -4664					; size = 4
$T224859 = -4660					; size = 80
$T224858 = -4580					; size = 4
$T224857 = -4576					; size = 80
$T224856 = -4496					; size = 4
$T224855 = -4492					; size = 80
$T224854 = -4412					; size = 4
$T224853 = -4408					; size = 80
$T224852 = -4328					; size = 4
$T224851 = -4324					; size = 80
$T224850 = -4244					; size = 4
$T224849 = -4240					; size = 80
$T224848 = -4160					; size = 4
$T224847 = -4156					; size = 80
$T224846 = -4076					; size = 4
$T224845 = -4072					; size = 80
$T224844 = -3992					; size = 4
$T224843 = -3988					; size = 80
$T224842 = -3908					; size = 4
$T224841 = -3904					; size = 80
$T224840 = -3824					; size = 4
$T224839 = -3820					; size = 80
$T224838 = -3740					; size = 4
$T224837 = -3736					; size = 80
$T224836 = -3656					; size = 4
$T224835 = -3652					; size = 80
$T224834 = -3572					; size = 4
$T224833 = -3568					; size = 80
$T224832 = -3488					; size = 4
$T224831 = -3484					; size = 80
$T224830 = -3404					; size = 4
$T224829 = -3400					; size = 80
$T224828 = -3320					; size = 4
$T224827 = -3316					; size = 80
$T224826 = -3236					; size = 4
$T224825 = -3232					; size = 80
$T224824 = -3152					; size = 4
$T224823 = -3148					; size = 80
$T224822 = -3068					; size = 4
$T224821 = -3064					; size = 80
$T224820 = -2984					; size = 4
$T224819 = -2980					; size = 80
$T224818 = -2900					; size = 4
$T224817 = -2896					; size = 80
$T224816 = -2816					; size = 4
$T224815 = -2812					; size = 80
$T224814 = -2732					; size = 4
$T224813 = -2728					; size = 80
$T224812 = -2648					; size = 80
$T224811 = -2568					; size = 80
$T224810 = -2488					; size = 80
$T224809 = -2408					; size = 80
$T224808 = -2328					; size = 4
$T224807 = -2324					; size = 4
$T224806 = -2320					; size = 80
$T224805 = -2240					; size = 4
$T224804 = -2236					; size = 4
$T224803 = -2232					; size = 80
$T224802 = -2152					; size = 4
$T224801 = -2148					; size = 4
$T224800 = -2144					; size = 4
$T224799 = -2140					; size = 4
$T224798 = -2136					; size = 80
$T224797 = -2056					; size = 4
$T224796 = -2052					; size = 4
$T224795 = -2048					; size = 4
$T224794 = -2044					; size = 80
$T224793 = -1964					; size = 4
$T224792 = -1960					; size = 4
$T224791 = -1956					; size = 4
$T224790 = -1952					; size = 4
$T224789 = -1948					; size = 80
$T224788 = -1868					; size = 4
$T224787 = -1864					; size = 4
$T224786 = -1860					; size = 80
$T224785 = -1780					; size = 4
$T224784 = -1776					; size = 4
$T224783 = -1772					; size = 80
$T224782 = -1692					; size = 4
$T224781 = -1688					; size = 4
$T224780 = -1684					; size = 4
$T224779 = -1680					; size = 80
$T224778 = -1600					; size = 4
$T224777 = -1596					; size = 4
$T224776 = -1592					; size = 4
$T224775 = -1588					; size = 80
$T224774 = -1508					; size = 4
$T224773 = -1504					; size = 4
$T224772 = -1500					; size = 4
$T224771 = -1496					; size = 80
$T224770 = -1416					; size = 4
$T224769 = -1412					; size = 80
$T224768 = -1332					; size = 80
$T224767 = -1252					; size = 80
$T224766 = -1172					; size = 80
$T224765 = -1092					; size = 80
$T224764 = -1012					; size = 80
$T224763 = -932						; size = 80
_eAdvisorTypes$223703 = -852				; size = 4
_ui$223698 = -848					; size = 4
_ui$223692 = -844					; size = 4
_ui$223688 = -840					; size = 4
_eResourceUsage$223676 = -836				; size = 4
_eTradableResourceUsage$223671 = -832			; size = 4
_eResourceUsage$223672 = -828				; size = 4
_eTradebackResource$223663 = -824			; size = 4
_pkTradeResourceInfo$223665 = -820			; size = 4
_k$223659 = -816					; size = 4
_eOtherPlayer$223651 = -812				; size = 4
_eOtherTeam$223653 = -808				; size = 4
_j$223647 = -804					; size = 4
_pResourceInfo$223643 = -800				; size = 4
_eResource$223641 = -796				; size = 4
_i$223637 = -792					; size = 4
_pMission$223621 = -788					; size = 4
_i$223617 = -784					; size = 4
_iNumMissions$223616 = -780				; size = 4
_pLoopUnit$223614 = -776				; size = 4
_pPlotUnitNode$223610 = -772				; size = 4
_bWorkerAlreadyOnIt$223609 = -765			; size = 1
_pkBuild$223601 = -764					; size = 4
_eImprovement$223603 = -760				; size = 4
_eBuild$223599 = -756					; size = 4
_iBuild$223595 = -752					; size = 4
_pPlot$223587 = -748					; size = 4
_eResource$223590 = -744				; size = 4
_ui$223583 = -740					; size = 4
_bSuccess$223577 = -733					; size = 1
_pkEntry$223567 = -732					; size = 4
_eBuildingType$223565 = -728				; size = 4
_i$223561 = -724					; size = 4
_pkBuildingClassInfo$223556 = -720			; size = 4
_eBuildingClass$223554 = -716				; size = 4
_i$223550 = -712					; size = 4
_eRecommendedResearchBuilding$223560 = -708		; size = 4
_eScienceBuildingClass$223549 = -704			; size = 4
_uiLoop$223533 = -700					; size = 4
_strBuildingClass$223532 = -696				; size = 28
__$ArrayPad$ = -668					; size = 4
_bSuccess$223523 = -661					; size = 1
_pMinorCivAI$223485 = -660				; size = 4
_bSuccess$223491 = -653					; size = 1
_pCapCity$223479 = -652					; size = 4
_eCheckPlayer$223476 = -648				; size = 4
_iCityIndex$223478 = -644				; size = 4
_ui2$223471 = -640					; size = 4
_eCapturingPlayer$223470 = -636				; size = 4
_eAdvisor$223461 = -632					; size = 4
_iMessageRating$223460 = -628				; size = 4
_eMinorTeam$223465 = -624				; size = 4
_eEnemyPlayer$223462 = -620				; size = 4
_pMinorCivAI$223493 = -616				; size = 4
_eMinorPlayer$223463 = -612				; size = 4
_ui$223456 = -608					; size = 4
_ui$223318 = -604					; size = 4
_eAdvisor$223305 = -600					; size = 4
_pTreasury$223306 = -596				; size = 4
_iMessageRating$223304 = -592				; size = 4
_iGoldIncome$223307 = -588				; size = 4
_uiHighestCostCategory$223317 = -584			; size = 4
_iHighestCost$223309 = -580				; size = 4
_iGold$223308 = -576					; size = 4
_bSuccess$223302 = -569					; size = 1
_pkMinorCivInfo$223297 = -568				; size = 4
_iMinorCiv$223292 = -564				; size = 4
_eStatement$223291 = -560				; size = 4
_pkMinorCivInfo$223286 = -556				; size = 4
_iMinorCiv$223281 = -552				; size = 4
_eStatement$223280 = -548				; size = 4
_pkMinorCivInfo$223275 = -544				; size = 4
_iMinorCiv$223270 = -540				; size = 4
_eStatement$223269 = -536				; size = 4
_eAdvisor$223253 = -532					; size = 4
_iMessageRating$223252 = -528				; size = 4
_eOtherPlayer$223254 = -524				; size = 4
_eOtherTeam$223256 = -520				; size = 4
_eMinorCivDisputeLevel$223262 = -516			; size = 4
_iPlayer$223248 = -512					; size = 4
_bSuccess$223246 = -505					; size = 1
_iRating$223240 = -504					; size = 4
_iRating$223234 = -500					; size = 4
_iRating$223228 = -496					; size = 4
_iRating$223222 = -492					; size = 4
_iRating$223216 = -488					; size = 4
_iRating$223204 = -484					; size = 4
_iRating$223198 = -480					; size = 4
_iRating$223192 = -476					; size = 4
_iRating$223178 = -472					; size = 4
_iRating$223172 = -468					; size = 4
_iRating$223166 = -464					; size = 4
_iRating$223152 = -460					; size = 4
_iRating$223146 = -456					; size = 4
_iRating$223140 = -452					; size = 4
_iRating$223134 = -448					; size = 4
_iRating$223128 = -444					; size = 4
_iRating$223122 = -440					; size = 4
_iRating$223116 = -436					; size = 4
_iRating$223105 = -432					; size = 4
_iRating$223099 = -428					; size = 4
_iRating$223093 = -424					; size = 4
_iRating$223087 = -420					; size = 4
_iRating$223081 = -416					; size = 4
_eAdvisor$223065 = -412					; size = 4
_iMessageRating$223064 = -408				; size = 4
_eMilitaryStrengthComparedToUs$223074 = -404		; size = 4
_eOtherPlayer$223066 = -400				; size = 4
_eWarProjection$223073 = -396				; size = 4
_eOtherTeam$223068 = -392				; size = 4
_eMilitaryAggressivePostureTypes$223157 = -388		; size = 4
_eExpansionAggressivePostureTypes$223183 = -384		; size = 4
_eWarmongerThreat$223209 = -380				; size = 4
_iPlayer$223058 = -376					; size = 4
_pTreasury$223040 = -372				; size = 4
_iPopulation$223037 = -368				; size = 4
_iRating$223035 = -364					; size = 4
_iRatio$223038 = -360					; size = 4
_iRevenue$223042 = -356					; size = 4
_iScience$223036 = -352					; size = 4
_iGold$223041 = -348					; size = 4
_pkBuildingInfo$223029 = -344				; size = 4
_pkUnitInfo$223022 = -340				; size = 4
_iDomain$223015 = -336					; size = 4
_bProvidesExperience$223014 = -329			; size = 1
_eBuildingType$223009 = -328				; size = 4
_pBuildingEntry$223011 = -324				; size = 4
_i$223005 = -320					; size = 4
_iCombatValue$223001 = -316				; size = 4
_eCivUnit$222998 = -312					; size = 4
_eUnitType$222993 = -308				; size = 4
_pUnitEntry$222995 = -304				; size = 4
_i$222989 = -300					; size = 4
_bSuccess$222987 = -293					; size = 1
_eBuilding$222957 = -292				; size = 4
_pBuilding$222959 = -288				; size = 4
_iI$222953 = -284					; size = 4
_bSuccess$222947 = -278					; size = 1
_bSuccess$222940 = -277					; size = 1
_bSuccess$222933 = -276					; size = 1
_bSuccess$222925 = -275					; size = 1
_bSuccess$222917 = -274					; size = 1
_bUniquenessFound$222910 = -273				; size = 1
_eBuilding3$222952 = -272				; size = 4
_eBuilding1$222950 = -268				; size = 4
_eBuilding2$222951 = -264				; size = 4
_iNumBuildingInfos$222949 = -260			; size = 4
_eTech$222906 = -256					; size = 4
_iTechLoop$222902 = -252				; size = 4
_iFlavorLoop$222888 = -248				; size = 4
_bSuccess$222885 = -241					; size = 1
_eStrategy$222873 = -240				; size = 4
_pStrategy$222875 = -236				; size = 4
_i$222869 = -232					; size = 4
_bSuccess$222861 = -225					; size = 1
_pStrategy$222857 = -224				; size = 4
_eStrategy$222854 = -220				; size = 4
_iStrategiesLoop$222850 = -216				; size = 4
_bSuccess$222847 = -209					; size = 1
_eStrategy$222841 = -208				; size = 4
_pStrategy$222843 = -204				; size = 4
_iStrategiesLoop$222837 = -200				; size = 4
_bSuccess$222820 = -193					; size = 1
_pEconomicAI$ = -192					; size = 4
_aiPlots$ = -188					; size = 4
_pMilitaryAI$ = -184					; size = 4
_eMilitaryUnitTech$ = -180				; size = 4
_eRecommendedBuilding$ = -176				; size = 4
_eRecommendedResource$ = -172				; size = 4
_pCityStrategyAI$ = -168				; size = 4
_eRecommendedUnit$ = -164				; size = 4
_eTargetPlayer$ = -160					; size = 4
_iMaxPopulation$ = -156					; size = 4
_eTradableResource$ = -152				; size = 4
_eMilitaryBuildingTech$ = -148				; size = 4
_abAdvisorUsed$ = -144					; size = 4
_pDiplomacyAI$ = -140					; size = 4
_eTeam$ = -136						; size = 4
_uiCounselIndex$ = -132					; size = 4
_eFlavorScience$ = -128					; size = 4
_strLoc$ = -124						; size = 80
_pBiggestCity$ = -44					; size = 4
_ePlayerTeam$ = -40					; size = 4
_pLoopCity$ = -36					; size = 4
_iMaxCombatValue$ = -32					; size = 4
_iNumOfResource$ = -28					; size = 4
_iLoop$ = -24						; size = 4
_pPlayerTechs$ = -20					; size = 4
_pResourcePlot$ = -16					; size = 4
__$EHRec$ = -12						; size = 12
_ePlayer$ = 8						; size = 4
?BuildCounselList@CvAdvisorCounsel@@QAEXW4PlayerTypes@@@Z PROC ; CvAdvisorCounsel::BuildCounselList, COMDAT
; _this$ = ecx

; 81   : {

	push	ebp
	mov	ebp, esp
	push	-1
	push	__ehhandler$?BuildCounselList@CvAdvisorCounsel@@QAEXW4PlayerTypes@@@Z
	mov	eax, DWORD PTR fs:0
	push	eax
	mov	eax, 23104				; 00005a40H
	call	__chkstk
	mov	eax, DWORD PTR ___security_cookie
	xor	eax, ebp
	mov	DWORD PTR __$ArrayPad$[ebp], eax
	push	eax
	lea	eax, DWORD PTR __$EHRec$[ebp]
	mov	DWORD PTR fs:0, eax
	mov	DWORD PTR _this$[ebp], ecx

; 82   : 	Reset();

	mov	ecx, DWORD PTR _this$[ebp]
	call	?Reset@CvAdvisorCounsel@@QAEXXZ		; CvAdvisorCounsel::Reset

; 83   : 
; 84   : 	TeamTypes eTeam = GET_PLAYER(ePlayer).getTeam();

	mov	eax, DWORD PTR _ePlayer$[ebp]
	imul	eax, 63236				; 0000f704H
	add	eax, DWORD PTR ?m_aPlayers@CvPlayerAI@@1PAV1@A ; CvPlayerAI::m_aPlayers
	mov	DWORD PTR $T225028[ebp], eax
	mov	ecx, DWORD PTR $T225028[ebp]
	mov	edx, DWORD PTR [ecx+44]
	push	edx
	call	?teamType@CvPreGame@@YA?AW4TeamTypes@@W4PlayerTypes@@@Z ; CvPreGame::teamType
	add	esp, 4
	mov	DWORD PTR _eTeam$[ebp], eax

; 85   : 	uint uiCounselIndex = 0;

	mov	DWORD PTR _uiCounselIndex$[ebp], 0

; 86   : 	Localization::String strLoc;

	lea	ecx, DWORD PTR _strLoc$[ebp]
	call	DWORD PTR __imp_??0String@Localization@@QAE@XZ
	mov	DWORD PTR __$EHRec$[ebp+8], 0

; 87   : 
; 88   : 	if(GET_PLAYER(ePlayer).getNumCities() == 0)

	mov	eax, DWORD PTR _ePlayer$[ebp]
	imul	eax, 63236				; 0000f704H
	add	eax, DWORD PTR ?m_aPlayers@CvPlayerAI@@1PAV1@A ; CvPlayerAI::m_aPlayers
	mov	DWORD PTR $T225040[ebp], eax
	mov	ecx, DWORD PTR $T225040[ebp]
	call	?getNumCities@CvPlayer@@QBEHXZ		; CvPlayer::getNumCities
	test	eax, eax
	jne	$LN381@BuildCouns

; 89   : 	{
; 90   : 		bool bSuccess;
; 91   : 		strLoc = Localization::Lookup("TXT_KEY_BUILD_A_CITY_MCFLY_ECONOMIC");

	push	OFFSET ??_C@_0CE@NKNBMIFP@TXT_KEY_BUILD_A_CITY_MCFLY_ECONO@
	lea	ecx, DWORD PTR $T224763[ebp]
	push	ecx
	call	DWORD PTR __imp_?Lookup@Localization@@YA?AVString@1@PBD@Z
	add	esp, 8
	mov	DWORD PTR tv74[ebp], eax
	mov	edx, DWORD PTR tv74[ebp]
	mov	DWORD PTR tv3671[ebp], edx
	mov	BYTE PTR __$EHRec$[ebp+8], 1
	mov	eax, DWORD PTR tv3671[ebp]
	push	eax
	lea	ecx, DWORD PTR _strLoc$[ebp]
	call	DWORD PTR __imp_??4String@Localization@@QAEAAV01@ABV01@@Z
	mov	BYTE PTR __$EHRec$[ebp+8], 0
	lea	ecx, DWORD PTR $T224763[ebp]
	call	DWORD PTR __imp_??1String@Localization@@UAE@XZ

; 92   : 		bSuccess = SetCounselEntry(uiCounselIndex, ADVISOR_ECONOMIC, strLoc.toUTF8(), 99);

	push	99					; 00000063H
	lea	ecx, DWORD PTR _strLoc$[ebp]
	call	DWORD PTR __imp_?toUTF8@String@Localization@@QAEPBDXZ
	push	eax
	push	1
	mov	ecx, DWORD PTR _uiCounselIndex$[ebp]
	push	ecx
	mov	ecx, DWORD PTR _this$[ebp]
	call	?SetCounselEntry@CvAdvisorCounsel@@QAE_NIW4AdvisorTypes@@PBDH@Z ; CvAdvisorCounsel::SetCounselEntry
	mov	BYTE PTR _bSuccess$222820[ebp], al

; 93   : 		CvAssertMsg(bSuccess, "Unable to add counsel to list. Too many strategies running at once");
; 94   : 		uiCounselIndex++;

	mov	edx, DWORD PTR _uiCounselIndex$[ebp]
	add	edx, 1
	mov	DWORD PTR _uiCounselIndex$[ebp], edx

; 95   : 
; 96   : 		strLoc = Localization::Lookup("TXT_KEY_BUILD_A_CITY_MCFLY_MILITARY");

	push	OFFSET ??_C@_0CE@CBJMPDML@TXT_KEY_BUILD_A_CITY_MCFLY_MILIT@
	lea	eax, DWORD PTR $T224764[ebp]
	push	eax
	call	DWORD PTR __imp_?Lookup@Localization@@YA?AVString@1@PBD@Z
	add	esp, 8
	mov	DWORD PTR tv4060[ebp], eax
	mov	ecx, DWORD PTR tv4060[ebp]
	mov	DWORD PTR tv3673[ebp], ecx
	mov	BYTE PTR __$EHRec$[ebp+8], 2
	mov	edx, DWORD PTR tv3673[ebp]
	push	edx
	lea	ecx, DWORD PTR _strLoc$[ebp]
	call	DWORD PTR __imp_??4String@Localization@@QAEAAV01@ABV01@@Z
	mov	BYTE PTR __$EHRec$[ebp+8], 0
	lea	ecx, DWORD PTR $T224764[ebp]
	call	DWORD PTR __imp_??1String@Localization@@UAE@XZ

; 97   : 		bSuccess = SetCounselEntry(uiCounselIndex, ADVISOR_MILITARY, strLoc.toUTF8(), 99);

	push	99					; 00000063H
	lea	ecx, DWORD PTR _strLoc$[ebp]
	call	DWORD PTR __imp_?toUTF8@String@Localization@@QAEPBDXZ
	push	eax
	push	0
	mov	eax, DWORD PTR _uiCounselIndex$[ebp]
	push	eax
	mov	ecx, DWORD PTR _this$[ebp]
	call	?SetCounselEntry@CvAdvisorCounsel@@QAE_NIW4AdvisorTypes@@PBDH@Z ; CvAdvisorCounsel::SetCounselEntry
	mov	BYTE PTR _bSuccess$222820[ebp], al

; 98   : 		CvAssertMsg(bSuccess, "Unable to add counsel to list. Too many strategies running at once");
; 99   : 		uiCounselIndex++;

	mov	ecx, DWORD PTR _uiCounselIndex$[ebp]
	add	ecx, 1
	mov	DWORD PTR _uiCounselIndex$[ebp], ecx

; 100  : 
; 101  : 		strLoc = Localization::Lookup("TXT_KEY_BUILD_A_CITY_MCFLY_SCIENCE");

	push	OFFSET ??_C@_0CD@FLGPHAIC@TXT_KEY_BUILD_A_CITY_MCFLY_SCIEN@
	lea	edx, DWORD PTR $T224765[ebp]
	push	edx
	call	DWORD PTR __imp_?Lookup@Localization@@YA?AVString@1@PBD@Z
	add	esp, 8
	mov	DWORD PTR tv3644[ebp], eax
	mov	eax, DWORD PTR tv3644[ebp]
	mov	DWORD PTR tv3675[ebp], eax
	mov	BYTE PTR __$EHRec$[ebp+8], 3
	mov	ecx, DWORD PTR tv3675[ebp]
	push	ecx
	lea	ecx, DWORD PTR _strLoc$[ebp]
	call	DWORD PTR __imp_??4String@Localization@@QAEAAV01@ABV01@@Z
	mov	BYTE PTR __$EHRec$[ebp+8], 0
	lea	ecx, DWORD PTR $T224765[ebp]
	call	DWORD PTR __imp_??1String@Localization@@UAE@XZ

; 102  : 		bSuccess = SetCounselEntry(uiCounselIndex, ADVISOR_SCIENCE, strLoc.toUTF8(), 99);

	push	99					; 00000063H
	lea	ecx, DWORD PTR _strLoc$[ebp]
	call	DWORD PTR __imp_?toUTF8@String@Localization@@QAEPBDXZ
	push	eax
	push	3
	mov	edx, DWORD PTR _uiCounselIndex$[ebp]
	push	edx
	mov	ecx, DWORD PTR _this$[ebp]
	call	?SetCounselEntry@CvAdvisorCounsel@@QAE_NIW4AdvisorTypes@@PBDH@Z ; CvAdvisorCounsel::SetCounselEntry
	mov	BYTE PTR _bSuccess$222820[ebp], al

; 103  : 		CvAssertMsg(bSuccess, "Unable to add counsel to list. Too many strategies running at once");
; 104  : 		uiCounselIndex++;

	mov	eax, DWORD PTR _uiCounselIndex$[ebp]
	add	eax, 1
	mov	DWORD PTR _uiCounselIndex$[ebp], eax

; 105  : 
; 106  : 		strLoc = Localization::Lookup("TXT_KEY_BUILD_A_CITY_MCFLY_FOREIGN");

	push	OFFSET ??_C@_0CD@LIKPJOEP@TXT_KEY_BUILD_A_CITY_MCFLY_FOREI@
	lea	ecx, DWORD PTR $T224766[ebp]
	push	ecx
	call	DWORD PTR __imp_?Lookup@Localization@@YA?AVString@1@PBD@Z
	add	esp, 8
	mov	DWORD PTR tv3660[ebp], eax
	mov	edx, DWORD PTR tv3660[ebp]
	mov	DWORD PTR tv3677[ebp], edx
	mov	BYTE PTR __$EHRec$[ebp+8], 4
	mov	eax, DWORD PTR tv3677[ebp]
	push	eax
	lea	ecx, DWORD PTR _strLoc$[ebp]
	call	DWORD PTR __imp_??4String@Localization@@QAEAAV01@ABV01@@Z
	mov	BYTE PTR __$EHRec$[ebp+8], 0
	lea	ecx, DWORD PTR $T224766[ebp]
	call	DWORD PTR __imp_??1String@Localization@@UAE@XZ

; 107  : 		bSuccess = SetCounselEntry(uiCounselIndex, ADVISOR_FOREIGN, strLoc.toUTF8(), 99);

	push	99					; 00000063H
	lea	ecx, DWORD PTR _strLoc$[ebp]
	call	DWORD PTR __imp_?toUTF8@String@Localization@@QAEPBDXZ
	push	eax
	push	2
	mov	ecx, DWORD PTR _uiCounselIndex$[ebp]
	push	ecx
	mov	ecx, DWORD PTR _this$[ebp]
	call	?SetCounselEntry@CvAdvisorCounsel@@QAE_NIW4AdvisorTypes@@PBDH@Z ; CvAdvisorCounsel::SetCounselEntry
	mov	BYTE PTR _bSuccess$222820[ebp], al

; 108  : 		CvAssertMsg(bSuccess, "Unable to add counsel to list. Too many strategies running at once");
; 109  : 		uiCounselIndex++;

	mov	edx, DWORD PTR _uiCounselIndex$[ebp]
	add	edx, 1
	mov	DWORD PTR _uiCounselIndex$[ebp], edx

; 110  : 
; 111  : 		std::sort(&m_aCounsel[0], &m_aCounsel[0] + m_aCounsel.size(), CounselSort);

	xor	eax, eax
	imul	eax, 520				; 00000208H
	mov	ecx, DWORD PTR _this$[ebp]
	add	eax, DWORD PTR [ecx]
	mov	DWORD PTR $T225044[ebp], eax
	mov	edx, DWORD PTR _this$[ebp]
	mov	eax, DWORD PTR [edx+4]
	mov	DWORD PTR $T225048[ebp], eax
	mov	ecx, DWORD PTR $T225048[ebp]
	imul	ecx, 520				; 00000208H
	add	ecx, DWORD PTR $T225044[ebp]
	mov	DWORD PTR $T225056[ebp], ecx
	xor	edx, edx
	imul	edx, 520				; 00000208H
	mov	eax, DWORD PTR _this$[ebp]
	add	edx, DWORD PTR [eax]
	mov	DWORD PTR $T225055[ebp], edx
	push	OFFSET ?CounselSort@@YA_NUCounsel@CvAdvisorCounsel@@0@Z ; CounselSort
	mov	eax, DWORD PTR $T225056[ebp]
	sub	eax, DWORD PTR $T225055[ebp]
	cdq
	mov	ecx, 520				; 00000208H
	idiv	ecx
	push	eax
	mov	edx, DWORD PTR $T225056[ebp]
	push	edx
	mov	eax, DWORD PTR $T225055[ebp]
	push	eax
	call	??$_Sort@PAUCounsel@CvAdvisorCounsel@@HP6A_NU12@0@Z@std@@YAXPAUCounsel@CvAdvisorCounsel@@0HP6A_NU12@1@Z@Z ; std::_Sort<CvAdvisorCounsel::Counsel *,int,bool (__cdecl*)(CvAdvisorCounsel::Counsel,CvAdvisorCounsel::Counsel)>
	add	esp, 16					; 00000010H

; 112  : 		return;

	mov	DWORD PTR __$EHRec$[ebp+8], -1
	lea	ecx, DWORD PTR _strLoc$[ebp]
	call	DWORD PTR __imp_??1String@Localization@@UAE@XZ
	jmp	$LN382@BuildCouns
$LN381@BuildCouns:

; 113  : 	}
; 114  : 
; 115  : 	// go through economic strategies
; 116  : 	CvEconomicAI* pEconomicAI = GET_PLAYER(ePlayer).GetEconomicAI();

	mov	ecx, DWORD PTR _ePlayer$[ebp]
	imul	ecx, 63236				; 0000f704H
	add	ecx, DWORD PTR ?m_aPlayers@CvPlayerAI@@1PAV1@A ; CvPlayerAI::m_aPlayers
	mov	DWORD PTR $T225060[ebp], ecx
	mov	ecx, DWORD PTR $T225060[ebp]
	call	?GetEconomicAI@CvPlayer@@QBEPAVCvEconomicAI@@XZ ; CvPlayer::GetEconomicAI
	mov	DWORD PTR _pEconomicAI$[ebp], eax

; 117  : 
; 118  : 	for(int iStrategiesLoop = 0; iStrategiesLoop < pEconomicAI->GetEconomicAIStrategies()->GetNumEconomicAIStrategies(); iStrategiesLoop++)

	mov	DWORD PTR _iStrategiesLoop$222837[ebp], 0
	jmp	SHORT $LN380@BuildCouns
$LN379@BuildCouns:
	mov	edx, DWORD PTR _iStrategiesLoop$222837[ebp]
	add	edx, 1
	mov	DWORD PTR _iStrategiesLoop$222837[ebp], edx
$LN380@BuildCouns:
	mov	ecx, DWORD PTR _pEconomicAI$[ebp]
	call	?GetEconomicAIStrategies@CvEconomicAI@@QAEPAVCvEconomicAIStrategyXMLEntries@@XZ ; CvEconomicAI::GetEconomicAIStrategies
	mov	ecx, eax
	call	?GetNumEconomicAIStrategies@CvEconomicAIStrategyXMLEntries@@QAEHXZ ; CvEconomicAIStrategyXMLEntries::GetNumEconomicAIStrategies
	cmp	DWORD PTR _iStrategiesLoop$222837[ebp], eax
	jge	$LN378@BuildCouns

; 119  : 	{
; 120  : 		EconomicAIStrategyTypes eStrategy = (EconomicAIStrategyTypes) iStrategiesLoop;

	mov	eax, DWORD PTR _iStrategiesLoop$222837[ebp]
	mov	DWORD PTR _eStrategy$222841[ebp], eax

; 121  : 		CvEconomicAIStrategyXMLEntry* pStrategy = pEconomicAI->GetEconomicAIStrategies()->GetEntry(iStrategiesLoop);

	mov	ecx, DWORD PTR _iStrategiesLoop$222837[ebp]
	push	ecx
	mov	ecx, DWORD PTR _pEconomicAI$[ebp]
	call	?GetEconomicAIStrategies@CvEconomicAI@@QAEPAVCvEconomicAIStrategyXMLEntries@@XZ ; CvEconomicAI::GetEconomicAIStrategies
	mov	ecx, eax
	call	?GetEntry@CvEconomicAIStrategyXMLEntries@@QAEPAVCvEconomicAIStrategyXMLEntry@@H@Z ; CvEconomicAIStrategyXMLEntries::GetEntry
	mov	DWORD PTR _pStrategy$222843[ebp], eax

; 122  : 
; 123  : 		if(pEconomicAI->IsUsingStrategy(eStrategy))

	mov	edx, DWORD PTR _eStrategy$222841[ebp]
	push	edx
	mov	ecx, DWORD PTR _pEconomicAI$[ebp]
	call	?IsUsingStrategy@CvEconomicAI@@QAE_NW4EconomicAIStrategyTypes@@@Z ; CvEconomicAI::IsUsingStrategy
	movzx	eax, al
	test	eax, eax
	je	$LN377@BuildCouns

; 124  : 		{
; 125  : 			// if this strategy has an advisor set, then try to add it to the list
; 126  : 			if(pStrategy->GetAdvisor() != NO_ADVISOR_TYPE)

	mov	ecx, DWORD PTR _pStrategy$222843[ebp]
	call	?GetAdvisor@CvEconomicAIStrategyXMLEntry@@QBE?AW4AdvisorTypes@@XZ ; CvEconomicAIStrategyXMLEntry::GetAdvisor
	cmp	eax, -1
	je	$LN377@BuildCouns

; 127  : 			{
; 128  : 				strLoc = Localization::Lookup(pStrategy->GetAdvisorCounselText());

	mov	ecx, DWORD PTR _pStrategy$222843[ebp]
	call	?GetAdvisorCounselText@CvEconomicAIStrategyXMLEntry@@QBEPBDXZ ; CvEconomicAIStrategyXMLEntry::GetAdvisorCounselText
	push	eax
	lea	ecx, DWORD PTR $T224767[ebp]
	push	ecx
	call	DWORD PTR __imp_?Lookup@Localization@@YA?AVString@1@PBD@Z
	add	esp, 8
	mov	DWORD PTR tv3668[ebp], eax
	mov	edx, DWORD PTR tv3668[ebp]
	mov	DWORD PTR tv3680[ebp], edx
	mov	BYTE PTR __$EHRec$[ebp+8], 5
	mov	eax, DWORD PTR tv3680[ebp]
	push	eax
	lea	ecx, DWORD PTR _strLoc$[ebp]
	call	DWORD PTR __imp_??4String@Localization@@QAEAAV01@ABV01@@Z
	mov	BYTE PTR __$EHRec$[ebp+8], 0
	lea	ecx, DWORD PTR $T224767[ebp]
	call	DWORD PTR __imp_??1String@Localization@@UAE@XZ

; 129  : 				bool bSuccess = SetCounselEntry(uiCounselIndex, pStrategy->GetAdvisor(), strLoc.toUTF8(), pStrategy->GetAdvisorCounselImportance());

	mov	ecx, DWORD PTR _pStrategy$222843[ebp]
	call	?GetAdvisorCounselImportance@CvEconomicAIStrategyXMLEntry@@QBEHXZ ; CvEconomicAIStrategyXMLEntry::GetAdvisorCounselImportance
	push	eax
	lea	ecx, DWORD PTR _strLoc$[ebp]
	call	DWORD PTR __imp_?toUTF8@String@Localization@@QAEPBDXZ
	push	eax
	mov	ecx, DWORD PTR _pStrategy$222843[ebp]
	call	?GetAdvisor@CvEconomicAIStrategyXMLEntry@@QBE?AW4AdvisorTypes@@XZ ; CvEconomicAIStrategyXMLEntry::GetAdvisor
	push	eax
	mov	ecx, DWORD PTR _uiCounselIndex$[ebp]
	push	ecx
	mov	ecx, DWORD PTR _this$[ebp]
	call	?SetCounselEntry@CvAdvisorCounsel@@QAE_NIW4AdvisorTypes@@PBDH@Z ; CvAdvisorCounsel::SetCounselEntry
	mov	BYTE PTR _bSuccess$222847[ebp], al

; 130  : 				CvAssertMsg(bSuccess, "Unable to add counsel to list. Too many strategies running at once");
; 131  : 				if(!bSuccess)

	movzx	edx, BYTE PTR _bSuccess$222847[ebp]
	test	edx, edx
	jne	SHORT $LN375@BuildCouns

; 132  : 				{
; 133  : 					break;

	jmp	SHORT $LN378@BuildCouns
$LN375@BuildCouns:

; 134  : 				}
; 135  : 				uiCounselIndex++;

	mov	eax, DWORD PTR _uiCounselIndex$[ebp]
	add	eax, 1
	mov	DWORD PTR _uiCounselIndex$[ebp], eax
$LN377@BuildCouns:

; 136  : 			}
; 137  : 		}
; 138  : 	}

	jmp	$LN379@BuildCouns
$LN378@BuildCouns:

; 139  : 
; 140  : 	// go through military strategies
; 141  : 	CvMilitaryAI* pMilitaryAI = GET_PLAYER(ePlayer).GetMilitaryAI();

	mov	ecx, DWORD PTR _ePlayer$[ebp]
	imul	ecx, 63236				; 0000f704H
	add	ecx, DWORD PTR ?m_aPlayers@CvPlayerAI@@1PAV1@A ; CvPlayerAI::m_aPlayers
	mov	DWORD PTR $T225064[ebp], ecx
	mov	ecx, DWORD PTR $T225064[ebp]
	call	?GetMilitaryAI@CvPlayer@@QBEPAVCvMilitaryAI@@XZ ; CvPlayer::GetMilitaryAI
	mov	DWORD PTR _pMilitaryAI$[ebp], eax

; 142  : 
; 143  : 	for(int iStrategiesLoop = 0; iStrategiesLoop < pMilitaryAI->GetMilitaryAIStrategies()->GetNumMilitaryAIStrategies(); iStrategiesLoop++)

	mov	DWORD PTR _iStrategiesLoop$222850[ebp], 0
	jmp	SHORT $LN374@BuildCouns
$LN373@BuildCouns:
	mov	edx, DWORD PTR _iStrategiesLoop$222850[ebp]
	add	edx, 1
	mov	DWORD PTR _iStrategiesLoop$222850[ebp], edx
$LN374@BuildCouns:
	mov	ecx, DWORD PTR _pMilitaryAI$[ebp]
	call	?GetMilitaryAIStrategies@CvMilitaryAI@@QAEPAVCvMilitaryAIStrategyXMLEntries@@XZ ; CvMilitaryAI::GetMilitaryAIStrategies
	mov	ecx, eax
	call	?GetNumMilitaryAIStrategies@CvMilitaryAIStrategyXMLEntries@@QAEHXZ ; CvMilitaryAIStrategyXMLEntries::GetNumMilitaryAIStrategies
	cmp	DWORD PTR _iStrategiesLoop$222850[ebp], eax
	jge	$LN372@BuildCouns

; 144  : 	{
; 145  : 		MilitaryAIStrategyTypes eStrategy = (MilitaryAIStrategyTypes) iStrategiesLoop;

	mov	eax, DWORD PTR _iStrategiesLoop$222850[ebp]
	mov	DWORD PTR _eStrategy$222854[ebp], eax

; 146  : 
; 147  : 		if(pMilitaryAI->IsUsingStrategy(eStrategy))

	mov	ecx, DWORD PTR _eStrategy$222854[ebp]
	push	ecx
	mov	ecx, DWORD PTR _pMilitaryAI$[ebp]
	call	?IsUsingStrategy@CvMilitaryAI@@QAE_NW4MilitaryAIStrategyTypes@@@Z ; CvMilitaryAI::IsUsingStrategy
	movzx	edx, al
	test	edx, edx
	je	$LN371@BuildCouns

; 148  : 		{
; 149  : 			CvMilitaryAIStrategyXMLEntry* pStrategy = pMilitaryAI->GetMilitaryAIStrategies()->GetEntry(iStrategiesLoop);

	mov	eax, DWORD PTR _iStrategiesLoop$222850[ebp]
	push	eax
	mov	ecx, DWORD PTR _pMilitaryAI$[ebp]
	call	?GetMilitaryAIStrategies@CvMilitaryAI@@QAEPAVCvMilitaryAIStrategyXMLEntries@@XZ ; CvMilitaryAI::GetMilitaryAIStrategies
	mov	ecx, eax
	call	?GetEntry@CvMilitaryAIStrategyXMLEntries@@QAEPAVCvMilitaryAIStrategyXMLEntry@@H@Z ; CvMilitaryAIStrategyXMLEntries::GetEntry
	mov	DWORD PTR _pStrategy$222857[ebp], eax

; 150  : 			CvAssert(pStrategy != NULL);
; 151  : 			if(pStrategy)

	cmp	DWORD PTR _pStrategy$222857[ebp], 0
	je	$LN371@BuildCouns

; 152  : 			{
; 153  : 				// if this strategy has an advisor set, then try to add it to the list
; 154  : 				if(pStrategy->GetAdvisor() != NO_ADVISOR_TYPE)

	mov	ecx, DWORD PTR _pStrategy$222857[ebp]
	call	?GetAdvisor@CvMilitaryAIStrategyXMLEntry@@QBE?AW4AdvisorTypes@@XZ ; CvMilitaryAIStrategyXMLEntry::GetAdvisor
	cmp	eax, -1
	je	$LN371@BuildCouns

; 155  : 				{
; 156  : 					strLoc = Localization::Lookup(pStrategy->GetAdvisorCounselText());

	mov	ecx, DWORD PTR _pStrategy$222857[ebp]
	call	?GetAdvisorCounselText@CvMilitaryAIStrategyXMLEntry@@QBEPBDXZ ; CvMilitaryAIStrategyXMLEntry::GetAdvisorCounselText
	push	eax
	lea	ecx, DWORD PTR $T224768[ebp]
	push	ecx
	call	DWORD PTR __imp_?Lookup@Localization@@YA?AVString@1@PBD@Z
	add	esp, 8
	mov	DWORD PTR tv4297[ebp], eax
	mov	edx, DWORD PTR tv4297[ebp]
	mov	DWORD PTR tv3682[ebp], edx
	mov	BYTE PTR __$EHRec$[ebp+8], 6
	mov	eax, DWORD PTR tv3682[ebp]
	push	eax
	lea	ecx, DWORD PTR _strLoc$[ebp]
	call	DWORD PTR __imp_??4String@Localization@@QAEAAV01@ABV01@@Z
	mov	BYTE PTR __$EHRec$[ebp+8], 0
	lea	ecx, DWORD PTR $T224768[ebp]
	call	DWORD PTR __imp_??1String@Localization@@UAE@XZ

; 157  : 					bool bSuccess = SetCounselEntry(uiCounselIndex, pStrategy->GetAdvisor(), strLoc.toUTF8(), pStrategy->GetAdvisorCounselImportance());

	mov	ecx, DWORD PTR _pStrategy$222857[ebp]
	call	?GetAdvisorCounselImportance@CvMilitaryAIStrategyXMLEntry@@QBEHXZ ; CvMilitaryAIStrategyXMLEntry::GetAdvisorCounselImportance
	push	eax
	lea	ecx, DWORD PTR _strLoc$[ebp]
	call	DWORD PTR __imp_?toUTF8@String@Localization@@QAEPBDXZ
	push	eax
	mov	ecx, DWORD PTR _pStrategy$222857[ebp]
	call	?GetAdvisor@CvMilitaryAIStrategyXMLEntry@@QBE?AW4AdvisorTypes@@XZ ; CvMilitaryAIStrategyXMLEntry::GetAdvisor
	push	eax
	mov	ecx, DWORD PTR _uiCounselIndex$[ebp]
	push	ecx
	mov	ecx, DWORD PTR _this$[ebp]
	call	?SetCounselEntry@CvAdvisorCounsel@@QAE_NIW4AdvisorTypes@@PBDH@Z ; CvAdvisorCounsel::SetCounselEntry
	mov	BYTE PTR _bSuccess$222861[ebp], al

; 158  : 					CvAssertMsg(bSuccess, "Unable to add counsel to list. Too many strategies running at once");
; 159  : 					if(!bSuccess)

	movzx	edx, BYTE PTR _bSuccess$222861[ebp]
	test	edx, edx
	jne	SHORT $LN368@BuildCouns

; 160  : 					{
; 161  : 						break;

	jmp	SHORT $LN372@BuildCouns
$LN368@BuildCouns:

; 162  : 					}
; 163  : 					uiCounselIndex++;

	mov	eax, DWORD PTR _uiCounselIndex$[ebp]
	add	eax, 1
	mov	DWORD PTR _uiCounselIndex$[ebp], eax
$LN371@BuildCouns:

; 164  : 				}
; 165  : 			}
; 166  : 		}
; 167  : 	}

	jmp	$LN373@BuildCouns
$LN372@BuildCouns:

; 168  : 
; 169  : 	// go through city strategies
; 170  : 	int iLoop;
; 171  : 	CvCity* pLoopCity;
; 172  : 	CvCityStrategyAI* pCityStrategyAI;
; 173  : 	for(pLoopCity = GET_PLAYER(ePlayer).firstCity(&iLoop); pLoopCity != NULL; pLoopCity = GET_PLAYER(ePlayer).nextCity(&iLoop))

	mov	ecx, DWORD PTR _ePlayer$[ebp]
	imul	ecx, 63236				; 0000f704H
	add	ecx, DWORD PTR ?m_aPlayers@CvPlayerAI@@1PAV1@A ; CvPlayerAI::m_aPlayers
	mov	DWORD PTR $T225068[ebp], ecx
	push	0
	lea	edx, DWORD PTR _iLoop$[ebp]
	push	edx
	mov	ecx, DWORD PTR $T225068[ebp]
	call	?firstCity@CvPlayer@@QAEPAVCvCity@@PAH_N@Z ; CvPlayer::firstCity
	mov	DWORD PTR _pLoopCity$[ebp], eax
	jmp	SHORT $LN367@BuildCouns
$LN366@BuildCouns:
	mov	eax, DWORD PTR _ePlayer$[ebp]
	imul	eax, 63236				; 0000f704H
	add	eax, DWORD PTR ?m_aPlayers@CvPlayerAI@@1PAV1@A ; CvPlayerAI::m_aPlayers
	mov	DWORD PTR $T225072[ebp], eax
	push	0
	lea	ecx, DWORD PTR _iLoop$[ebp]
	push	ecx
	mov	ecx, DWORD PTR $T225072[ebp]
	call	?nextCity@CvPlayer@@QAEPAVCvCity@@PAH_N@Z ; CvPlayer::nextCity
	mov	DWORD PTR _pLoopCity$[ebp], eax
$LN367@BuildCouns:
	cmp	DWORD PTR _pLoopCity$[ebp], 0
	je	$LN365@BuildCouns

; 174  : 	{
; 175  : 		pCityStrategyAI = pLoopCity->GetCityStrategyAI();

	mov	ecx, DWORD PTR _pLoopCity$[ebp]
	call	?GetCityStrategyAI@CvCity@@QBEPAVCvCityStrategyAI@@XZ ; CvCity::GetCityStrategyAI
	mov	DWORD PTR _pCityStrategyAI$[ebp], eax

; 176  : 		for(int i = 0; i < pCityStrategyAI->GetAICityStrategies()->GetNumAICityStrategies(); i++)

	mov	DWORD PTR _i$222869[ebp], 0
	jmp	SHORT $LN364@BuildCouns
$LN363@BuildCouns:
	mov	edx, DWORD PTR _i$222869[ebp]
	add	edx, 1
	mov	DWORD PTR _i$222869[ebp], edx
$LN364@BuildCouns:
	mov	ecx, DWORD PTR _pCityStrategyAI$[ebp]
	call	?GetAICityStrategies@CvCityStrategyAI@@QAEPAVCvAICityStrategies@@XZ ; CvCityStrategyAI::GetAICityStrategies
	mov	ecx, eax
	call	?GetNumAICityStrategies@CvAICityStrategies@@QAEHXZ ; CvAICityStrategies::GetNumAICityStrategies
	cmp	DWORD PTR _i$222869[ebp], eax
	jge	$LN362@BuildCouns

; 177  : 		{
; 178  : 			AICityStrategyTypes eStrategy = (AICityStrategyTypes)i;

	mov	eax, DWORD PTR _i$222869[ebp]
	mov	DWORD PTR _eStrategy$222873[ebp], eax

; 179  : 			CvAICityStrategyEntry* pStrategy = pCityStrategyAI->GetAICityStrategies()->GetEntry(i);

	mov	ecx, DWORD PTR _i$222869[ebp]
	push	ecx
	mov	ecx, DWORD PTR _pCityStrategyAI$[ebp]
	call	?GetAICityStrategies@CvCityStrategyAI@@QAEPAVCvAICityStrategies@@XZ ; CvCityStrategyAI::GetAICityStrategies
	mov	ecx, eax
	call	?GetEntry@CvAICityStrategies@@QAEPAVCvAICityStrategyEntry@@H@Z ; CvAICityStrategies::GetEntry
	mov	DWORD PTR _pStrategy$222875[ebp], eax

; 180  : 			if(pCityStrategyAI->IsUsingCityStrategy(eStrategy))

	mov	edx, DWORD PTR _eStrategy$222873[ebp]
	push	edx
	mov	ecx, DWORD PTR _pCityStrategyAI$[ebp]
	call	?IsUsingCityStrategy@CvCityStrategyAI@@QAE_NW4AICityStrategyTypes@@@Z ; CvCityStrategyAI::IsUsingCityStrategy
	movzx	eax, al
	test	eax, eax
	je	$LN361@BuildCouns

; 181  : 			{
; 182  : 				// if this strategy has an advisor set, then try to add it to the list
; 183  : 				if(pStrategy->GetAdvisor() != NO_ADVISOR_TYPE)

	mov	ecx, DWORD PTR _pStrategy$222875[ebp]
	call	?GetAdvisor@CvAICityStrategyEntry@@QBE?AW4AdvisorTypes@@XZ ; CvAICityStrategyEntry::GetAdvisor
	cmp	eax, -1
	je	$LN361@BuildCouns

; 184  : 				{
; 185  : 					strLoc = Localization::Lookup(pStrategy->GetAdvisorCounselText());

	mov	ecx, DWORD PTR _pStrategy$222875[ebp]
	call	?GetAdvisorCounselText@CvAICityStrategyEntry@@QBEPBDXZ ; CvAICityStrategyEntry::GetAdvisorCounselText
	push	eax
	lea	ecx, DWORD PTR $T224769[ebp]
	push	ecx
	call	DWORD PTR __imp_?Lookup@Localization@@YA?AVString@1@PBD@Z
	add	esp, 8
	mov	DWORD PTR tv4300[ebp], eax
	mov	edx, DWORD PTR tv4300[ebp]
	mov	DWORD PTR tv3684[ebp], edx
	mov	BYTE PTR __$EHRec$[ebp+8], 7
	mov	eax, DWORD PTR tv3684[ebp]
	push	eax
	lea	ecx, DWORD PTR _strLoc$[ebp]
	call	DWORD PTR __imp_??4String@Localization@@QAEAAV01@ABV01@@Z
	mov	BYTE PTR __$EHRec$[ebp+8], 0
	lea	ecx, DWORD PTR $T224769[ebp]
	call	DWORD PTR __imp_??1String@Localization@@UAE@XZ

; 186  : 					strLoc << pLoopCity->getNameKey();

	mov	ecx, DWORD PTR _pLoopCity$[ebp]
	call	?getNameKey@CvCity@@QBEPBDXZ		; CvCity::getNameKey
	mov	DWORD PTR $T224770[ebp], eax
	lea	ecx, DWORD PTR $T224770[ebp]
	push	ecx
	lea	edx, DWORD PTR _strLoc$[ebp]
	push	edx
	call	??$?6PBD@@YAAAVString@Localization@@AAV01@ABQBD@Z ; operator<<<char const *>
	add	esp, 8

; 187  : 					bool bSuccess = SetCounselEntry(uiCounselIndex, pStrategy->GetAdvisor(), strLoc.toUTF8(), pStrategy->GetAdvisorCounselImportance());

	mov	ecx, DWORD PTR _pStrategy$222875[ebp]
	call	?GetAdvisorCounselImportance@CvAICityStrategyEntry@@QBEHXZ ; CvAICityStrategyEntry::GetAdvisorCounselImportance
	push	eax
	lea	ecx, DWORD PTR _strLoc$[ebp]
	call	DWORD PTR __imp_?toUTF8@String@Localization@@QAEPBDXZ
	push	eax
	mov	ecx, DWORD PTR _pStrategy$222875[ebp]
	call	?GetAdvisor@CvAICityStrategyEntry@@QBE?AW4AdvisorTypes@@XZ ; CvAICityStrategyEntry::GetAdvisor
	push	eax
	mov	eax, DWORD PTR _uiCounselIndex$[ebp]
	push	eax
	mov	ecx, DWORD PTR _this$[ebp]
	call	?SetCounselEntry@CvAdvisorCounsel@@QAE_NIW4AdvisorTypes@@PBDH@Z ; CvAdvisorCounsel::SetCounselEntry
	mov	BYTE PTR _bSuccess$222885[ebp], al

; 188  : 					CvAssertMsg(bSuccess, "Unable to add counsel to list. Too many strategies running at once");
; 189  : 					if(!bSuccess)

	movzx	ecx, BYTE PTR _bSuccess$222885[ebp]
	test	ecx, ecx
	jne	SHORT $LN359@BuildCouns

; 190  : 					{
; 191  : 						break;

	jmp	SHORT $LN362@BuildCouns
$LN359@BuildCouns:

; 192  : 					}
; 193  : 					uiCounselIndex++;

	mov	edx, DWORD PTR _uiCounselIndex$[ebp]
	add	edx, 1
	mov	DWORD PTR _uiCounselIndex$[ebp], edx
$LN361@BuildCouns:

; 194  : 				}
; 195  : 			}
; 196  : 		}

	jmp	$LN363@BuildCouns
$LN362@BuildCouns:

; 197  : 	}

	jmp	$LN366@BuildCouns
$LN365@BuildCouns:

; 198  : 
; 199  : 	// find flavor science
; 200  : 	FlavorTypes eFlavorScience = NO_FLAVOR;

	mov	DWORD PTR _eFlavorScience$[ebp], -1

; 201  : 	for(int iFlavorLoop = 0; iFlavorLoop < GC.getNumFlavorTypes(); iFlavorLoop++)

	mov	DWORD PTR _iFlavorLoop$222888[ebp], 0
	jmp	SHORT $LN358@BuildCouns
$LN357@BuildCouns:
	mov	eax, DWORD PTR _iFlavorLoop$222888[ebp]
	add	eax, 1
	mov	DWORD PTR _iFlavorLoop$222888[ebp], eax
$LN358@BuildCouns:
	mov	ecx, DWORD PTR ?gGlobals@@3VCvGlobals@@A+1764
	mov	DWORD PTR $T225076[ebp], ecx
	mov	edx, DWORD PTR _iFlavorLoop$222888[ebp]
	cmp	edx, DWORD PTR $T225076[ebp]
	jge	SHORT $LN356@BuildCouns

; 202  : 	{
; 203  : 		if(GC.getFlavorTypes((FlavorTypes)iFlavorLoop) == "FLAVOR_SCIENCE")

	mov	eax, DWORD PTR _iFlavorLoop$222888[ebp]
	imul	eax, 28					; 0000001cH
	add	eax, DWORD PTR ?gGlobals@@3VCvGlobals@@A+1760
	mov	DWORD PTR $T225080[ebp], eax
	push	OFFSET ??_C@_0P@NPJBAHPJ@FLAVOR_SCIENCE?$AA@
	mov	ecx, DWORD PTR $T225080[ebp]
	push	ecx
	call	DWORD PTR __imp_??$?8DU?$char_traits@D@std@@V?$allocator@D@1@@std@@YA_NABV?$basic_string@DU?$char_traits@D@std@@V?$allocator@D@2@@0@PBD@Z
	add	esp, 8
	movzx	edx, al
	test	edx, edx
	je	SHORT $LN355@BuildCouns

; 204  : 		{
; 205  : 			eFlavorScience = (FlavorTypes)iFlavorLoop;

	mov	eax, DWORD PTR _iFlavorLoop$222888[ebp]
	mov	DWORD PTR _eFlavorScience$[ebp], eax

; 206  : 			break;

	jmp	SHORT $LN356@BuildCouns
$LN355@BuildCouns:

; 207  : 		}
; 208  : 	}

	jmp	SHORT $LN357@BuildCouns
$LN356@BuildCouns:

; 209  : 
; 210  : 	// cycle through all the science advisor tips
; 211  : 	// along with military recommendations
; 212  : 	TechTypes eMilitaryUnitTech = NO_TECH;

	mov	DWORD PTR _eMilitaryUnitTech$[ebp], -1

; 213  : 	UnitTypes eRecommendedUnit = NO_UNIT;

	mov	DWORD PTR _eRecommendedUnit$[ebp], -1

; 214  : 	int iMaxCombatValue = 0;

	mov	DWORD PTR _iMaxCombatValue$[ebp], 0

; 215  : 	TechTypes eMilitaryBuildingTech = NO_TECH;

	mov	DWORD PTR _eMilitaryBuildingTech$[ebp], -1

; 216  : 	BuildingTypes eRecommendedBuilding = NO_BUILDING;

	mov	DWORD PTR _eRecommendedBuilding$[ebp], -1

; 217  : 	CvPlayerTechs* pPlayerTechs = GET_PLAYER(ePlayer).GetPlayerTechs();

	mov	ecx, DWORD PTR _ePlayer$[ebp]
	imul	ecx, 63236				; 0000f704H
	add	ecx, DWORD PTR ?m_aPlayers@CvPlayerAI@@1PAV1@A ; CvPlayerAI::m_aPlayers
	mov	DWORD PTR $T225084[ebp], ecx
	mov	ecx, DWORD PTR $T225084[ebp]
	call	?GetPlayerTechs@CvPlayer@@QBEPAVCvPlayerTechs@@XZ ; CvPlayer::GetPlayerTechs
	mov	DWORD PTR _pPlayerTechs$[ebp], eax

; 218  : #ifdef AUI_WARNING_FIXES
; 219  : 	for (uint iTechLoop = 0; iTechLoop < pPlayerTechs->GetTechs()->GetNumTechs(); iTechLoop++)
; 220  : #else
; 221  : 	for(int iTechLoop = 0; iTechLoop < pPlayerTechs->GetTechs()->GetNumTechs(); iTechLoop++)

	mov	DWORD PTR _iTechLoop$222902[ebp], 0
	jmp	SHORT $LN354@BuildCouns
$LN353@BuildCouns:
	mov	edx, DWORD PTR _iTechLoop$222902[ebp]
	add	edx, 1
	mov	DWORD PTR _iTechLoop$222902[ebp], edx
$LN354@BuildCouns:
	mov	ecx, DWORD PTR _pPlayerTechs$[ebp]
	call	?GetTechs@CvPlayerTechs@@QBEPAVCvTechXMLEntries@@XZ ; CvPlayerTechs::GetTechs
	mov	ecx, eax
	call	?GetNumTechs@CvTechXMLEntries@@QAEHXZ	; CvTechXMLEntries::GetNumTechs
	cmp	DWORD PTR _iTechLoop$222902[ebp], eax
	jge	$LN352@BuildCouns

; 222  : #endif
; 223  : 	{
; 224  : 		TechTypes eTech = (TechTypes)iTechLoop;

	mov	eax, DWORD PTR _iTechLoop$222902[ebp]
	mov	DWORD PTR _eTech$222906[ebp], eax

; 225  : 		if(pPlayerTechs->CanResearch(eTech) && pPlayerTechs->GetCurrentResearch() != eTech)

	push	0
	mov	ecx, DWORD PTR _eTech$222906[ebp]
	push	ecx
	mov	ecx, DWORD PTR _pPlayerTechs$[ebp]
	call	?CanResearch@CvPlayerTechs@@QBE_NW4TechTypes@@_N@Z ; CvPlayerTechs::CanResearch
	movzx	edx, al
	test	edx, edx
	je	$LN351@BuildCouns
	mov	ecx, DWORD PTR _pPlayerTechs$[ebp]
	call	?GetCurrentResearch@CvPlayerTechs@@QBE?AW4TechTypes@@XZ ; CvPlayerTechs::GetCurrentResearch
	cmp	eax, DWORD PTR _eTech$222906[ebp]
	je	$LN351@BuildCouns

; 226  : 		{
; 227  : 			// go through recommended research for special units
; 228  : 			if(pPlayerTechs->GetCivTechPriority(eTech) > 1)

	mov	eax, DWORD PTR _eTech$222906[ebp]
	push	eax
	mov	ecx, DWORD PTR _pPlayerTechs$[ebp]
	call	?GetCivTechPriority@CvPlayerTechs@@QBEHW4TechTypes@@@Z ; CvPlayerTechs::GetCivTechPriority
	cmp	eax, 1
	jle	$LN350@BuildCouns

; 229  : 			{
; 230  : 				bool bUniquenessFound = false;

	mov	BYTE PTR _bUniquenessFound$222910[ebp], 0

; 231  : 				if(pPlayerTechs->GetCivTechUniqueUnit(eTech) != NO_UNIT)

	mov	ecx, DWORD PTR _eTech$222906[ebp]
	push	ecx
	mov	ecx, DWORD PTR _pPlayerTechs$[ebp]
	call	?GetCivTechUniqueUnit@CvPlayerTechs@@QBE?AW4UnitTypes@@W4TechTypes@@@Z ; CvPlayerTechs::GetCivTechUniqueUnit
	cmp	eax, -1
	je	$LN349@BuildCouns

; 232  : 				{
; 233  : 					strLoc = Localization::Lookup("TXT_KEY_TECHSTRATEGY_CIV_BONUS_UNIT");

	push	OFFSET ??_C@_0CE@DNCHLOK@TXT_KEY_TECHSTRATEGY_CIV_BONUS_U@
	lea	edx, DWORD PTR $T224771[ebp]
	push	edx
	call	DWORD PTR __imp_?Lookup@Localization@@YA?AVString@1@PBD@Z
	add	esp, 8
	mov	DWORD PTR tv4298[ebp], eax
	mov	eax, DWORD PTR tv4298[ebp]
	mov	DWORD PTR tv3686[ebp], eax
	mov	BYTE PTR __$EHRec$[ebp+8], 8
	mov	ecx, DWORD PTR tv3686[ebp]
	push	ecx
	lea	ecx, DWORD PTR _strLoc$[ebp]
	call	DWORD PTR __imp_??4String@Localization@@QAEAAV01@ABV01@@Z
	mov	BYTE PTR __$EHRec$[ebp+8], 0
	lea	ecx, DWORD PTR $T224771[ebp]
	call	DWORD PTR __imp_??1String@Localization@@UAE@XZ

; 234  : 					strLoc << pPlayerTechs->GetTechs()->GetEntry(eTech)->GetTextKey();

	mov	edx, DWORD PTR _eTech$222906[ebp]
	push	edx
	mov	ecx, DWORD PTR _pPlayerTechs$[ebp]
	call	?GetTechs@CvPlayerTechs@@QBEPAVCvTechXMLEntries@@XZ ; CvPlayerTechs::GetTechs
	mov	ecx, eax
	call	?GetEntry@CvTechXMLEntries@@QAEPAVCvTechEntry@@H@Z ; CvTechXMLEntries::GetEntry
	mov	ecx, eax
	call	?GetTextKey@CvBaseInfo@@QBEPBDXZ	; CvBaseInfo::GetTextKey
	mov	DWORD PTR $T224772[ebp], eax
	lea	eax, DWORD PTR $T224772[ebp]
	push	eax
	lea	ecx, DWORD PTR _strLoc$[ebp]
	push	ecx
	call	??$?6PBD@@YAAAVString@Localization@@AAV01@ABQBD@Z ; operator<<<char const *>
	add	esp, 8

; 235  : 					strLoc << GC.getUnitInfo(pPlayerTechs->GetCivTechUniqueUnit(eTech))->GetTextKey();

	mov	edx, DWORD PTR _eTech$222906[ebp]
	push	edx
	mov	ecx, DWORD PTR _pPlayerTechs$[ebp]
	call	?GetCivTechUniqueUnit@CvPlayerTechs@@QBE?AW4UnitTypes@@W4TechTypes@@@Z ; CvPlayerTechs::GetCivTechUniqueUnit
	push	eax
	mov	ecx, OFFSET ?gGlobals@@3VCvGlobals@@A	; gGlobals
	call	?getUnitInfo@CvGlobals@@QAEPAVCvUnitEntry@@W4UnitTypes@@@Z ; CvGlobals::getUnitInfo
	mov	ecx, eax
	call	?GetTextKey@CvBaseInfo@@QBEPBDXZ	; CvBaseInfo::GetTextKey
	mov	DWORD PTR $T224773[ebp], eax
	lea	eax, DWORD PTR $T224773[ebp]
	push	eax
	lea	ecx, DWORD PTR _strLoc$[ebp]
	push	ecx
	call	??$?6PBD@@YAAAVString@Localization@@AAV01@ABQBD@Z ; operator<<<char const *>
	add	esp, 8

; 236  : 					strLoc << GET_PLAYER(ePlayer).getCivilizationInfo().getAdjectiveKey();

	mov	edx, DWORD PTR _ePlayer$[ebp]
	imul	edx, 63236				; 0000f704H
	add	edx, DWORD PTR ?m_aPlayers@CvPlayerAI@@1PAV1@A ; CvPlayerAI::m_aPlayers
	mov	DWORD PTR $T225088[ebp], edx
	mov	ecx, DWORD PTR $T225088[ebp]
	call	?getCivilizationInfo@CvPlayer@@QBEAAVCvCivilizationInfo@@XZ ; CvPlayer::getCivilizationInfo
	mov	ecx, eax
	call	?getAdjectiveKey@CvCivilizationInfo@@QBEPBDXZ ; CvCivilizationInfo::getAdjectiveKey
	mov	DWORD PTR $T224774[ebp], eax
	lea	eax, DWORD PTR $T224774[ebp]
	push	eax
	lea	ecx, DWORD PTR _strLoc$[ebp]
	push	ecx
	call	??$?6PBD@@YAAAVString@Localization@@AAV01@ABQBD@Z ; operator<<<char const *>
	add	esp, 8

; 237  : 
; 238  : 					bool bSuccess = SetCounselEntry(uiCounselIndex, ADVISOR_SCIENCE, strLoc.toUTF8(), 2);

	push	2
	lea	ecx, DWORD PTR _strLoc$[ebp]
	call	DWORD PTR __imp_?toUTF8@String@Localization@@QAEPBDXZ
	push	eax
	push	3
	mov	edx, DWORD PTR _uiCounselIndex$[ebp]
	push	edx
	mov	ecx, DWORD PTR _this$[ebp]
	call	?SetCounselEntry@CvAdvisorCounsel@@QAE_NIW4AdvisorTypes@@PBDH@Z ; CvAdvisorCounsel::SetCounselEntry
	mov	BYTE PTR _bSuccess$222917[ebp], al

; 239  : 					CvAssertMsg(bSuccess, "Unable to add counsel to list. Too many strategies running at once");
; 240  : 					if(!bSuccess)

	movzx	eax, BYTE PTR _bSuccess$222917[ebp]
	test	eax, eax
	jne	SHORT $LN348@BuildCouns

; 241  : 					{
; 242  : 						break;

	jmp	$LN352@BuildCouns
$LN348@BuildCouns:

; 243  : 					}
; 244  : 					uiCounselIndex++;

	mov	ecx, DWORD PTR _uiCounselIndex$[ebp]
	add	ecx, 1
	mov	DWORD PTR _uiCounselIndex$[ebp], ecx

; 245  : 					bUniquenessFound = true;

	mov	BYTE PTR _bUniquenessFound$222910[ebp], 1
$LN349@BuildCouns:

; 246  : 				}
; 247  : 
; 248  : 				if(pPlayerTechs->GetCivTechUniqueBuilding(eTech) != NO_BUILDING)

	mov	edx, DWORD PTR _eTech$222906[ebp]
	push	edx
	mov	ecx, DWORD PTR _pPlayerTechs$[ebp]
	call	?GetCivTechUniqueBuilding@CvPlayerTechs@@QBE?AW4BuildingTypes@@W4TechTypes@@@Z ; CvPlayerTechs::GetCivTechUniqueBuilding
	cmp	eax, -1
	je	$LN347@BuildCouns

; 249  : 				{
; 250  : 					strLoc = Localization::Lookup("TXT_KEY_TECHSTRATEGY_CIV_BONUS_BUILDING");

	push	OFFSET ??_C@_0CI@EDMHMCMP@TXT_KEY_TECHSTRATEGY_CIV_BONUS_B@
	lea	eax, DWORD PTR $T224775[ebp]
	push	eax
	call	DWORD PTR __imp_?Lookup@Localization@@YA?AVString@1@PBD@Z
	add	esp, 8
	mov	DWORD PTR tv4254[ebp], eax
	mov	ecx, DWORD PTR tv4254[ebp]
	mov	DWORD PTR tv3688[ebp], ecx
	mov	BYTE PTR __$EHRec$[ebp+8], 9
	mov	edx, DWORD PTR tv3688[ebp]
	push	edx
	lea	ecx, DWORD PTR _strLoc$[ebp]
	call	DWORD PTR __imp_??4String@Localization@@QAEAAV01@ABV01@@Z
	mov	BYTE PTR __$EHRec$[ebp+8], 0
	lea	ecx, DWORD PTR $T224775[ebp]
	call	DWORD PTR __imp_??1String@Localization@@UAE@XZ

; 251  : 					strLoc << pPlayerTechs->GetTechs()->GetEntry(eTech)->GetTextKey();

	mov	eax, DWORD PTR _eTech$222906[ebp]
	push	eax
	mov	ecx, DWORD PTR _pPlayerTechs$[ebp]
	call	?GetTechs@CvPlayerTechs@@QBEPAVCvTechXMLEntries@@XZ ; CvPlayerTechs::GetTechs
	mov	ecx, eax
	call	?GetEntry@CvTechXMLEntries@@QAEPAVCvTechEntry@@H@Z ; CvTechXMLEntries::GetEntry
	mov	ecx, eax
	call	?GetTextKey@CvBaseInfo@@QBEPBDXZ	; CvBaseInfo::GetTextKey
	mov	DWORD PTR $T224776[ebp], eax
	lea	ecx, DWORD PTR $T224776[ebp]
	push	ecx
	lea	edx, DWORD PTR _strLoc$[ebp]
	push	edx
	call	??$?6PBD@@YAAAVString@Localization@@AAV01@ABQBD@Z ; operator<<<char const *>
	add	esp, 8

; 252  : 					strLoc << GC.getBuildingInfo(pPlayerTechs->GetCivTechUniqueBuilding(eTech))->GetTextKey();

	mov	eax, DWORD PTR _eTech$222906[ebp]
	push	eax
	mov	ecx, DWORD PTR _pPlayerTechs$[ebp]
	call	?GetCivTechUniqueBuilding@CvPlayerTechs@@QBE?AW4BuildingTypes@@W4TechTypes@@@Z ; CvPlayerTechs::GetCivTechUniqueBuilding
	push	eax
	mov	ecx, OFFSET ?gGlobals@@3VCvGlobals@@A	; gGlobals
	call	?getBuildingInfo@CvGlobals@@QAEPAVCvBuildingEntry@@W4BuildingTypes@@@Z ; CvGlobals::getBuildingInfo
	mov	ecx, eax
	call	?GetTextKey@CvBaseInfo@@QBEPBDXZ	; CvBaseInfo::GetTextKey
	mov	DWORD PTR $T224777[ebp], eax
	lea	ecx, DWORD PTR $T224777[ebp]
	push	ecx
	lea	edx, DWORD PTR _strLoc$[ebp]
	push	edx
	call	??$?6PBD@@YAAAVString@Localization@@AAV01@ABQBD@Z ; operator<<<char const *>
	add	esp, 8

; 253  : 					strLoc << GET_PLAYER(ePlayer).getCivilizationInfo().getAdjectiveKey();

	mov	eax, DWORD PTR _ePlayer$[ebp]
	imul	eax, 63236				; 0000f704H
	add	eax, DWORD PTR ?m_aPlayers@CvPlayerAI@@1PAV1@A ; CvPlayerAI::m_aPlayers
	mov	DWORD PTR $T225092[ebp], eax
	mov	ecx, DWORD PTR $T225092[ebp]
	call	?getCivilizationInfo@CvPlayer@@QBEAAVCvCivilizationInfo@@XZ ; CvPlayer::getCivilizationInfo
	mov	ecx, eax
	call	?getAdjectiveKey@CvCivilizationInfo@@QBEPBDXZ ; CvCivilizationInfo::getAdjectiveKey
	mov	DWORD PTR $T224778[ebp], eax
	lea	ecx, DWORD PTR $T224778[ebp]
	push	ecx
	lea	edx, DWORD PTR _strLoc$[ebp]
	push	edx
	call	??$?6PBD@@YAAAVString@Localization@@AAV01@ABQBD@Z ; operator<<<char const *>
	add	esp, 8

; 254  : 					bool bSuccess = SetCounselEntry(uiCounselIndex, ADVISOR_SCIENCE, strLoc.toUTF8(), 2);

	push	2
	lea	ecx, DWORD PTR _strLoc$[ebp]
	call	DWORD PTR __imp_?toUTF8@String@Localization@@QAEPBDXZ
	push	eax
	push	3
	mov	eax, DWORD PTR _uiCounselIndex$[ebp]
	push	eax
	mov	ecx, DWORD PTR _this$[ebp]
	call	?SetCounselEntry@CvAdvisorCounsel@@QAE_NIW4AdvisorTypes@@PBDH@Z ; CvAdvisorCounsel::SetCounselEntry
	mov	BYTE PTR _bSuccess$222925[ebp], al

; 255  : 					CvAssertMsg(bSuccess, "Unable to add counsel to list. Too many strategies running at once");
; 256  : 					if(!bSuccess)

	movzx	ecx, BYTE PTR _bSuccess$222925[ebp]
	test	ecx, ecx
	jne	SHORT $LN346@BuildCouns

; 257  : 					{
; 258  : 						break;

	jmp	$LN352@BuildCouns
$LN346@BuildCouns:

; 259  : 					}
; 260  : 					uiCounselIndex++;

	mov	edx, DWORD PTR _uiCounselIndex$[ebp]
	add	edx, 1
	mov	DWORD PTR _uiCounselIndex$[ebp], edx

; 261  : 					bUniquenessFound = true;

	mov	BYTE PTR _bUniquenessFound$222910[ebp], 1
$LN347@BuildCouns:

; 262  : 				}
; 263  : 
; 264  : 				if(pPlayerTechs->GetCivTechUniqueImprovement(eTech) != NO_IMPROVEMENT)

	mov	eax, DWORD PTR _eTech$222906[ebp]
	push	eax
	mov	ecx, DWORD PTR _pPlayerTechs$[ebp]
	call	?GetCivTechUniqueImprovement@CvPlayerTechs@@QBE?AW4ImprovementTypes@@W4TechTypes@@@Z ; CvPlayerTechs::GetCivTechUniqueImprovement
	cmp	eax, -1
	je	$LN345@BuildCouns

; 265  : 				{
; 266  : 					strLoc = Localization::Lookup("TXT_KEY_TECHSTRATEGY_CIV_BONUS_IMPROVEMENT");

	push	OFFSET ??_C@_0CL@FILDAJCG@TXT_KEY_TECHSTRATEGY_CIV_BONUS_I@
	lea	ecx, DWORD PTR $T224779[ebp]
	push	ecx
	call	DWORD PTR __imp_?Lookup@Localization@@YA?AVString@1@PBD@Z
	add	esp, 8
	mov	DWORD PTR tv4255[ebp], eax
	mov	edx, DWORD PTR tv4255[ebp]
	mov	DWORD PTR tv3690[ebp], edx
	mov	BYTE PTR __$EHRec$[ebp+8], 10		; 0000000aH
	mov	eax, DWORD PTR tv3690[ebp]
	push	eax
	lea	ecx, DWORD PTR _strLoc$[ebp]
	call	DWORD PTR __imp_??4String@Localization@@QAEAAV01@ABV01@@Z
	mov	BYTE PTR __$EHRec$[ebp+8], 0
	lea	ecx, DWORD PTR $T224779[ebp]
	call	DWORD PTR __imp_??1String@Localization@@UAE@XZ

; 267  : 					strLoc << pPlayerTechs->GetTechs()->GetEntry(eTech)->GetTextKey();

	mov	ecx, DWORD PTR _eTech$222906[ebp]
	push	ecx
	mov	ecx, DWORD PTR _pPlayerTechs$[ebp]
	call	?GetTechs@CvPlayerTechs@@QBEPAVCvTechXMLEntries@@XZ ; CvPlayerTechs::GetTechs
	mov	ecx, eax
	call	?GetEntry@CvTechXMLEntries@@QAEPAVCvTechEntry@@H@Z ; CvTechXMLEntries::GetEntry
	mov	ecx, eax
	call	?GetTextKey@CvBaseInfo@@QBEPBDXZ	; CvBaseInfo::GetTextKey
	mov	DWORD PTR $T224780[ebp], eax
	lea	edx, DWORD PTR $T224780[ebp]
	push	edx
	lea	eax, DWORD PTR _strLoc$[ebp]
	push	eax
	call	??$?6PBD@@YAAAVString@Localization@@AAV01@ABQBD@Z ; operator<<<char const *>
	add	esp, 8

; 268  : 					strLoc << GC.getImprovementInfo(pPlayerTechs->GetCivTechUniqueImprovement(eTech))->GetTextKey();

	mov	ecx, DWORD PTR _eTech$222906[ebp]
	push	ecx
	mov	ecx, DWORD PTR _pPlayerTechs$[ebp]
	call	?GetCivTechUniqueImprovement@CvPlayerTechs@@QBE?AW4ImprovementTypes@@W4TechTypes@@@Z ; CvPlayerTechs::GetCivTechUniqueImprovement
	push	eax
	mov	ecx, OFFSET ?gGlobals@@3VCvGlobals@@A	; gGlobals
	call	?getImprovementInfo@CvGlobals@@QAEPAVCvImprovementEntry@@W4ImprovementTypes@@@Z ; CvGlobals::getImprovementInfo
	mov	ecx, eax
	call	?GetTextKey@CvBaseInfo@@QBEPBDXZ	; CvBaseInfo::GetTextKey
	mov	DWORD PTR $T224781[ebp], eax
	lea	edx, DWORD PTR $T224781[ebp]
	push	edx
	lea	eax, DWORD PTR _strLoc$[ebp]
	push	eax
	call	??$?6PBD@@YAAAVString@Localization@@AAV01@ABQBD@Z ; operator<<<char const *>
	add	esp, 8

; 269  : 					strLoc << GET_PLAYER(ePlayer).getCivilizationInfo().getAdjectiveKey();

	mov	ecx, DWORD PTR _ePlayer$[ebp]
	imul	ecx, 63236				; 0000f704H
	add	ecx, DWORD PTR ?m_aPlayers@CvPlayerAI@@1PAV1@A ; CvPlayerAI::m_aPlayers
	mov	DWORD PTR $T225096[ebp], ecx
	mov	ecx, DWORD PTR $T225096[ebp]
	call	?getCivilizationInfo@CvPlayer@@QBEAAVCvCivilizationInfo@@XZ ; CvPlayer::getCivilizationInfo
	mov	ecx, eax
	call	?getAdjectiveKey@CvCivilizationInfo@@QBEPBDXZ ; CvCivilizationInfo::getAdjectiveKey
	mov	DWORD PTR $T224782[ebp], eax
	lea	edx, DWORD PTR $T224782[ebp]
	push	edx
	lea	eax, DWORD PTR _strLoc$[ebp]
	push	eax
	call	??$?6PBD@@YAAAVString@Localization@@AAV01@ABQBD@Z ; operator<<<char const *>
	add	esp, 8

; 270  : 					bool bSuccess = SetCounselEntry(uiCounselIndex, ADVISOR_SCIENCE, strLoc.toUTF8(), 2);

	push	2
	lea	ecx, DWORD PTR _strLoc$[ebp]
	call	DWORD PTR __imp_?toUTF8@String@Localization@@QAEPBDXZ
	push	eax
	push	3
	mov	ecx, DWORD PTR _uiCounselIndex$[ebp]
	push	ecx
	mov	ecx, DWORD PTR _this$[ebp]
	call	?SetCounselEntry@CvAdvisorCounsel@@QAE_NIW4AdvisorTypes@@PBDH@Z ; CvAdvisorCounsel::SetCounselEntry
	mov	BYTE PTR _bSuccess$222933[ebp], al

; 271  : 					CvAssertMsg(bSuccess, "Unable to add counsel to list. Too many strategies running at once");
; 272  : 					if(!bSuccess)

	movzx	edx, BYTE PTR _bSuccess$222933[ebp]
	test	edx, edx
	jne	SHORT $LN344@BuildCouns

; 273  : 					{
; 274  : 						break;

	jmp	$LN352@BuildCouns
$LN344@BuildCouns:

; 275  : 					}
; 276  : 					uiCounselIndex++;

	mov	eax, DWORD PTR _uiCounselIndex$[ebp]
	add	eax, 1
	mov	DWORD PTR _uiCounselIndex$[ebp], eax

; 277  : 					bUniquenessFound = true;

	mov	BYTE PTR _bUniquenessFound$222910[ebp], 1
$LN345@BuildCouns:

; 278  : 				}
; 279  : 
; 280  : 				if(!bUniquenessFound)

	movzx	ecx, BYTE PTR _bUniquenessFound$222910[ebp]
	test	ecx, ecx
	jne	$LN350@BuildCouns

; 281  : 				{
; 282  : 					// we don't have text for this
; 283  : 					strLoc = Localization::Lookup("TXT_KEY_TECHSTRATEGY_CIV_BONUS");

	push	OFFSET ??_C@_0BP@CIHAMPA@TXT_KEY_TECHSTRATEGY_CIV_BONUS?$AA@
	lea	edx, DWORD PTR $T224783[ebp]
	push	edx
	call	DWORD PTR __imp_?Lookup@Localization@@YA?AVString@1@PBD@Z
	add	esp, 8
	mov	DWORD PTR tv4343[ebp], eax
	mov	eax, DWORD PTR tv4343[ebp]
	mov	DWORD PTR tv3692[ebp], eax
	mov	BYTE PTR __$EHRec$[ebp+8], 11		; 0000000bH
	mov	ecx, DWORD PTR tv3692[ebp]
	push	ecx
	lea	ecx, DWORD PTR _strLoc$[ebp]
	call	DWORD PTR __imp_??4String@Localization@@QAEAAV01@ABV01@@Z
	mov	BYTE PTR __$EHRec$[ebp+8], 0
	lea	ecx, DWORD PTR $T224783[ebp]
	call	DWORD PTR __imp_??1String@Localization@@UAE@XZ

; 284  : 					strLoc << pPlayerTechs->GetTechs()->GetEntry(eTech)->GetTextKey();

	mov	edx, DWORD PTR _eTech$222906[ebp]
	push	edx
	mov	ecx, DWORD PTR _pPlayerTechs$[ebp]
	call	?GetTechs@CvPlayerTechs@@QBEPAVCvTechXMLEntries@@XZ ; CvPlayerTechs::GetTechs
	mov	ecx, eax
	call	?GetEntry@CvTechXMLEntries@@QAEPAVCvTechEntry@@H@Z ; CvTechXMLEntries::GetEntry
	mov	ecx, eax
	call	?GetTextKey@CvBaseInfo@@QBEPBDXZ	; CvBaseInfo::GetTextKey
	mov	DWORD PTR $T224784[ebp], eax
	lea	eax, DWORD PTR $T224784[ebp]
	push	eax
	lea	ecx, DWORD PTR _strLoc$[ebp]
	push	ecx
	call	??$?6PBD@@YAAAVString@Localization@@AAV01@ABQBD@Z ; operator<<<char const *>
	add	esp, 8

; 285  : 					strLoc << GET_PLAYER(ePlayer).getCivilizationInfo().getAdjectiveKey();

	mov	edx, DWORD PTR _ePlayer$[ebp]
	imul	edx, 63236				; 0000f704H
	add	edx, DWORD PTR ?m_aPlayers@CvPlayerAI@@1PAV1@A ; CvPlayerAI::m_aPlayers
	mov	DWORD PTR $T225100[ebp], edx
	mov	ecx, DWORD PTR $T225100[ebp]
	call	?getCivilizationInfo@CvPlayer@@QBEAAVCvCivilizationInfo@@XZ ; CvPlayer::getCivilizationInfo
	mov	ecx, eax
	call	?getAdjectiveKey@CvCivilizationInfo@@QBEPBDXZ ; CvCivilizationInfo::getAdjectiveKey
	mov	DWORD PTR $T224785[ebp], eax
	lea	eax, DWORD PTR $T224785[ebp]
	push	eax
	lea	ecx, DWORD PTR _strLoc$[ebp]
	push	ecx
	call	??$?6PBD@@YAAAVString@Localization@@AAV01@ABQBD@Z ; operator<<<char const *>
	add	esp, 8

; 286  : 					bool bSuccess = SetCounselEntry(uiCounselIndex, ADVISOR_SCIENCE, strLoc.toUTF8(), 2);

	push	2
	lea	ecx, DWORD PTR _strLoc$[ebp]
	call	DWORD PTR __imp_?toUTF8@String@Localization@@QAEPBDXZ
	push	eax
	push	3
	mov	edx, DWORD PTR _uiCounselIndex$[ebp]
	push	edx
	mov	ecx, DWORD PTR _this$[ebp]
	call	?SetCounselEntry@CvAdvisorCounsel@@QAE_NIW4AdvisorTypes@@PBDH@Z ; CvAdvisorCounsel::SetCounselEntry
	mov	BYTE PTR _bSuccess$222940[ebp], al

; 287  : 					CvAssertMsg(bSuccess, "Unable to add counsel to list. Too many strategies running at once");
; 288  : 					if(!bSuccess)

	movzx	eax, BYTE PTR _bSuccess$222940[ebp]
	test	eax, eax
	jne	SHORT $LN342@BuildCouns

; 289  : 					{
; 290  : 						break;

	jmp	$LN352@BuildCouns
$LN342@BuildCouns:

; 291  : 					}
; 292  : 					uiCounselIndex++;

	mov	ecx, DWORD PTR _uiCounselIndex$[ebp]
	add	ecx, 1
	mov	DWORD PTR _uiCounselIndex$[ebp], ecx
$LN350@BuildCouns:

; 293  : 				}
; 294  : 			}
; 295  : 
; 296  : 			// go through recommended research for resources
; 297  : 			if(pPlayerTechs->GetLocaleTechPriority(eTech) > 1)

	mov	edx, DWORD PTR _eTech$222906[ebp]
	push	edx
	mov	ecx, DWORD PTR _pPlayerTechs$[ebp]
	call	?GetLocaleTechPriority@CvPlayerTechs@@QBEHW4TechTypes@@@Z ; CvPlayerTechs::GetLocaleTechPriority
	cmp	eax, 1
	jle	$LN341@BuildCouns

; 298  : 			{
; 299  : 				// say we need this for a special resource
; 300  : 				strLoc = Localization::Lookup("TXT_KEY_TECHSTRATEGY_RESOURCE");

	push	OFFSET ??_C@_0BO@JHKONBBO@TXT_KEY_TECHSTRATEGY_RESOURCE?$AA@
	lea	eax, DWORD PTR $T224786[ebp]
	push	eax
	call	DWORD PTR __imp_?Lookup@Localization@@YA?AVString@1@PBD@Z
	add	esp, 8
	mov	DWORD PTR tv4339[ebp], eax
	mov	ecx, DWORD PTR tv4339[ebp]
	mov	DWORD PTR tv3694[ebp], ecx
	mov	BYTE PTR __$EHRec$[ebp+8], 12		; 0000000cH
	mov	edx, DWORD PTR tv3694[ebp]
	push	edx
	lea	ecx, DWORD PTR _strLoc$[ebp]
	call	DWORD PTR __imp_??4String@Localization@@QAEAAV01@ABV01@@Z
	mov	BYTE PTR __$EHRec$[ebp+8], 0
	lea	ecx, DWORD PTR $T224786[ebp]
	call	DWORD PTR __imp_??1String@Localization@@UAE@XZ

; 301  : 				strLoc << pPlayerTechs->GetTechs()->GetEntry(eTech)->GetTextKey();

	mov	eax, DWORD PTR _eTech$222906[ebp]
	push	eax
	mov	ecx, DWORD PTR _pPlayerTechs$[ebp]
	call	?GetTechs@CvPlayerTechs@@QBEPAVCvTechXMLEntries@@XZ ; CvPlayerTechs::GetTechs
	mov	ecx, eax
	call	?GetEntry@CvTechXMLEntries@@QAEPAVCvTechEntry@@H@Z ; CvTechXMLEntries::GetEntry
	mov	ecx, eax
	call	?GetTextKey@CvBaseInfo@@QBEPBDXZ	; CvBaseInfo::GetTextKey
	mov	DWORD PTR $T224787[ebp], eax
	lea	ecx, DWORD PTR $T224787[ebp]
	push	ecx
	lea	edx, DWORD PTR _strLoc$[ebp]
	push	edx
	call	??$?6PBD@@YAAAVString@Localization@@AAV01@ABQBD@Z ; operator<<<char const *>
	add	esp, 8

; 302  : 				strLoc << GC.getResourceInfo(pPlayerTechs->GetLocaleTechResource(eTech))->GetTextKey();

	mov	eax, DWORD PTR _eTech$222906[ebp]
	push	eax
	mov	ecx, DWORD PTR _pPlayerTechs$[ebp]
	call	?GetLocaleTechResource@CvPlayerTechs@@QBE?AW4ResourceTypes@@W4TechTypes@@@Z ; CvPlayerTechs::GetLocaleTechResource
	push	eax
	mov	ecx, OFFSET ?gGlobals@@3VCvGlobals@@A	; gGlobals
	call	?getResourceInfo@CvGlobals@@QAEPAVCvResourceInfo@@W4ResourceTypes@@@Z ; CvGlobals::getResourceInfo
	mov	ecx, eax
	call	?GetTextKey@CvBaseInfo@@QBEPBDXZ	; CvBaseInfo::GetTextKey
	mov	DWORD PTR $T224788[ebp], eax
	lea	ecx, DWORD PTR $T224788[ebp]
	push	ecx
	lea	edx, DWORD PTR _strLoc$[ebp]
	push	edx
	call	??$?6PBD@@YAAAVString@Localization@@AAV01@ABQBD@Z ; operator<<<char const *>
	add	esp, 8

; 303  : 				bool bSuccess = SetCounselEntry(uiCounselIndex, ADVISOR_SCIENCE, strLoc.toUTF8(), 60);

	push	60					; 0000003cH
	lea	ecx, DWORD PTR _strLoc$[ebp]
	call	DWORD PTR __imp_?toUTF8@String@Localization@@QAEPBDXZ
	push	eax
	push	3
	mov	eax, DWORD PTR _uiCounselIndex$[ebp]
	push	eax
	mov	ecx, DWORD PTR _this$[ebp]
	call	?SetCounselEntry@CvAdvisorCounsel@@QAE_NIW4AdvisorTypes@@PBDH@Z ; CvAdvisorCounsel::SetCounselEntry
	mov	BYTE PTR _bSuccess$222947[ebp], al

; 304  : 				CvAssertMsg(bSuccess, "Unable to add counsel to list. Too many strategies running at once");
; 305  : 				if(!bSuccess)

	movzx	ecx, BYTE PTR _bSuccess$222947[ebp]
	test	ecx, ecx
	jne	SHORT $LN340@BuildCouns

; 306  : 				{
; 307  : 					break;

	jmp	$LN352@BuildCouns
$LN340@BuildCouns:

; 308  : 				}
; 309  : 				uiCounselIndex++;

	mov	edx, DWORD PTR _uiCounselIndex$[ebp]
	add	edx, 1
	mov	DWORD PTR _uiCounselIndex$[ebp], edx
$LN341@BuildCouns:

; 310  : 			}
; 311  : 
; 312  : 			// look at available buildings
; 313  : 			int iNumBuildingInfos = GC.getNumBuildingInfos();

	mov	ecx, OFFSET ?gGlobals@@3VCvGlobals@@A	; gGlobals
	call	?getNumBuildingInfos@CvGlobals@@QAEHXZ	; CvGlobals::getNumBuildingInfos
	mov	DWORD PTR _iNumBuildingInfos$222949[ebp], eax

; 314  : 			BuildingTypes eBuilding1 = NO_BUILDING;

	mov	DWORD PTR _eBuilding1$222950[ebp], -1

; 315  : 			BuildingTypes eBuilding2 = NO_BUILDING;

	mov	DWORD PTR _eBuilding2$222951[ebp], -1

; 316  : 			BuildingTypes eBuilding3 = NO_BUILDING;

	mov	DWORD PTR _eBuilding3$222952[ebp], -1

; 317  : 			for(int iI = 0; iI < iNumBuildingInfos; iI++)

	mov	DWORD PTR _iI$222953[ebp], 0
	jmp	SHORT $LN339@BuildCouns
$LN338@BuildCouns:
	mov	eax, DWORD PTR _iI$222953[ebp]
	add	eax, 1
	mov	DWORD PTR _iI$222953[ebp], eax
$LN339@BuildCouns:
	mov	ecx, DWORD PTR _iI$222953[ebp]
	cmp	ecx, DWORD PTR _iNumBuildingInfos$222949[ebp]
	jge	$LN337@BuildCouns

; 318  : 			{
; 319  : 				BuildingTypes eBuilding = (BuildingTypes)iI;

	mov	edx, DWORD PTR _iI$222953[ebp]
	mov	DWORD PTR _eBuilding$222957[ebp], edx

; 320  : 				CvBuildingEntry* pBuilding = GC.getBuildingInfo(eBuilding);

	mov	eax, DWORD PTR _eBuilding$222957[ebp]
	push	eax
	mov	ecx, OFFSET ?gGlobals@@3VCvGlobals@@A	; gGlobals
	call	?getBuildingInfo@CvGlobals@@QAEPAVCvBuildingEntry@@W4BuildingTypes@@@Z ; CvGlobals::getBuildingInfo
	mov	DWORD PTR _pBuilding$222959[ebp], eax

; 321  : 				if(pBuilding && pBuilding->GetPrereqAndTech() == eTech && pBuilding->GetFlavorValue(eFlavorScience) > 0 && !GC.getGame().isBuildingClassMaxedOut((BuildingClassTypes)pBuilding->GetBuildingClassType()))

	cmp	DWORD PTR _pBuilding$222959[ebp], 0
	je	$LN336@BuildCouns
	mov	ecx, DWORD PTR _pBuilding$222959[ebp]
	call	?GetPrereqAndTech@CvBuildingEntry@@QBEHXZ ; CvBuildingEntry::GetPrereqAndTech
	cmp	eax, DWORD PTR _eTech$222906[ebp]
	jne	$LN336@BuildCouns
	mov	ecx, DWORD PTR _eFlavorScience$[ebp]
	push	ecx
	mov	ecx, DWORD PTR _pBuilding$222959[ebp]
	call	?GetFlavorValue@CvBuildingEntry@@QBEHH@Z ; CvBuildingEntry::GetFlavorValue
	test	eax, eax
	jle	SHORT $LN336@BuildCouns
	mov	edx, DWORD PTR ?gGlobals@@3VCvGlobals@@A+48
	mov	DWORD PTR $T225104[ebp], edx
	push	0
	mov	ecx, DWORD PTR _pBuilding$222959[ebp]
	call	?GetBuildingClassType@CvBuildingEntry@@QBEHXZ ; CvBuildingEntry::GetBuildingClassType
	push	eax
	mov	ecx, DWORD PTR $T225104[ebp]
	call	?isBuildingClassMaxedOut@CvGame@@QAE_NW4BuildingClassTypes@@H@Z ; CvGame::isBuildingClassMaxedOut
	movzx	eax, al
	test	eax, eax
	jne	SHORT $LN336@BuildCouns

; 322  : 				{
; 323  : 					if(eBuilding1 == NO_BUILDING)

	cmp	DWORD PTR _eBuilding1$222950[ebp], -1
	jne	SHORT $LN335@BuildCouns

; 324  : 					{
; 325  : 						eBuilding1 = eBuilding;

	mov	ecx, DWORD PTR _eBuilding$222957[ebp]
	mov	DWORD PTR _eBuilding1$222950[ebp], ecx
	jmp	SHORT $LN336@BuildCouns
$LN335@BuildCouns:

; 326  : 					}
; 327  : 					else if(eBuilding2 == NO_BUILDING)

	cmp	DWORD PTR _eBuilding2$222951[ebp], -1
	jne	SHORT $LN333@BuildCouns

; 328  : 					{
; 329  : 						eBuilding2 = eBuilding;

	mov	edx, DWORD PTR _eBuilding$222957[ebp]
	mov	DWORD PTR _eBuilding2$222951[ebp], edx
	jmp	SHORT $LN336@BuildCouns
$LN333@BuildCouns:

; 330  : 					}
; 331  : 					else if(eBuilding3 == NO_BUILDING)

	cmp	DWORD PTR _eBuilding3$222952[ebp], -1
	jne	SHORT $LN336@BuildCouns

; 332  : 					{
; 333  : 						eBuilding3 = eBuilding;

	mov	eax, DWORD PTR _eBuilding$222957[ebp]
	mov	DWORD PTR _eBuilding3$222952[ebp], eax
$LN336@BuildCouns:

; 334  : 					}
; 335  : 				}
; 336  : 			}

	jmp	$LN338@BuildCouns
$LN337@BuildCouns:

; 337  : 
; 338  : 			if(eBuilding1 != NO_BUILDING)

	cmp	DWORD PTR _eBuilding1$222950[ebp], -1
	je	$LN330@BuildCouns

; 339  : 			{
; 340  : 				if(eBuilding2 != NO_BUILDING)

	cmp	DWORD PTR _eBuilding2$222951[ebp], -1
	je	$LN329@BuildCouns

; 341  : 				{
; 342  : 					if(eBuilding3 != NO_BUILDING)

	cmp	DWORD PTR _eBuilding3$222952[ebp], -1
	je	$LN328@BuildCouns

; 343  : 					{
; 344  : 						strLoc = Localization::Lookup("TXT_KEY_SCIENCESTRATEGY_TECH_THAT_PROVIDES_SCIENCE_BUILDING_3");

	push	OFFSET ??_C@_0DO@MFOMKMGE@TXT_KEY_SCIENCESTRATEGY_TECH_THA@
	lea	ecx, DWORD PTR $T224789[ebp]
	push	ecx
	call	DWORD PTR __imp_?Lookup@Localization@@YA?AVString@1@PBD@Z
	add	esp, 8
	mov	DWORD PTR tv4308[ebp], eax
	mov	edx, DWORD PTR tv4308[ebp]
	mov	DWORD PTR tv3696[ebp], edx
	mov	BYTE PTR __$EHRec$[ebp+8], 13		; 0000000dH
	mov	eax, DWORD PTR tv3696[ebp]
	push	eax
	lea	ecx, DWORD PTR _strLoc$[ebp]
	call	DWORD PTR __imp_??4String@Localization@@QAEAAV01@ABV01@@Z
	mov	BYTE PTR __$EHRec$[ebp+8], 0
	lea	ecx, DWORD PTR $T224789[ebp]
	call	DWORD PTR __imp_??1String@Localization@@UAE@XZ

; 345  : 						strLoc << pPlayerTechs->GetTechs()->GetEntry(eTech)->GetTextKey();

	mov	ecx, DWORD PTR _eTech$222906[ebp]
	push	ecx
	mov	ecx, DWORD PTR _pPlayerTechs$[ebp]
	call	?GetTechs@CvPlayerTechs@@QBEPAVCvTechXMLEntries@@XZ ; CvPlayerTechs::GetTechs
	mov	ecx, eax
	call	?GetEntry@CvTechXMLEntries@@QAEPAVCvTechEntry@@H@Z ; CvTechXMLEntries::GetEntry
	mov	ecx, eax
	call	?GetTextKey@CvBaseInfo@@QBEPBDXZ	; CvBaseInfo::GetTextKey
	mov	DWORD PTR $T224790[ebp], eax
	lea	edx, DWORD PTR $T224790[ebp]
	push	edx
	lea	eax, DWORD PTR _strLoc$[ebp]
	push	eax
	call	??$?6PBD@@YAAAVString@Localization@@AAV01@ABQBD@Z ; operator<<<char const *>
	add	esp, 8

; 346  : 						strLoc << GC.getBuildingInfo(eBuilding1)->GetTextKey();

	mov	ecx, DWORD PTR _eBuilding1$222950[ebp]
	push	ecx
	mov	ecx, OFFSET ?gGlobals@@3VCvGlobals@@A	; gGlobals
	call	?getBuildingInfo@CvGlobals@@QAEPAVCvBuildingEntry@@W4BuildingTypes@@@Z ; CvGlobals::getBuildingInfo
	mov	ecx, eax
	call	?GetTextKey@CvBaseInfo@@QBEPBDXZ	; CvBaseInfo::GetTextKey
	mov	DWORD PTR $T224791[ebp], eax
	lea	edx, DWORD PTR $T224791[ebp]
	push	edx
	lea	eax, DWORD PTR _strLoc$[ebp]
	push	eax
	call	??$?6PBD@@YAAAVString@Localization@@AAV01@ABQBD@Z ; operator<<<char const *>
	add	esp, 8

; 347  : 						strLoc << GC.getBuildingInfo(eBuilding2)->GetTextKey();

	mov	ecx, DWORD PTR _eBuilding2$222951[ebp]
	push	ecx
	mov	ecx, OFFSET ?gGlobals@@3VCvGlobals@@A	; gGlobals
	call	?getBuildingInfo@CvGlobals@@QAEPAVCvBuildingEntry@@W4BuildingTypes@@@Z ; CvGlobals::getBuildingInfo
	mov	ecx, eax
	call	?GetTextKey@CvBaseInfo@@QBEPBDXZ	; CvBaseInfo::GetTextKey
	mov	DWORD PTR $T224792[ebp], eax
	lea	edx, DWORD PTR $T224792[ebp]
	push	edx
	lea	eax, DWORD PTR _strLoc$[ebp]
	push	eax
	call	??$?6PBD@@YAAAVString@Localization@@AAV01@ABQBD@Z ; operator<<<char const *>
	add	esp, 8

; 348  : 						strLoc << GC.getBuildingInfo(eBuilding3)->GetTextKey();

	mov	ecx, DWORD PTR _eBuilding3$222952[ebp]
	push	ecx
	mov	ecx, OFFSET ?gGlobals@@3VCvGlobals@@A	; gGlobals
	call	?getBuildingInfo@CvGlobals@@QAEPAVCvBuildingEntry@@W4BuildingTypes@@@Z ; CvGlobals::getBuildingInfo
	mov	ecx, eax
	call	?GetTextKey@CvBaseInfo@@QBEPBDXZ	; CvBaseInfo::GetTextKey
	mov	DWORD PTR $T224793[ebp], eax
	lea	edx, DWORD PTR $T224793[ebp]
	push	edx
	lea	eax, DWORD PTR _strLoc$[ebp]
	push	eax
	call	??$?6PBD@@YAAAVString@Localization@@AAV01@ABQBD@Z ; operator<<<char const *>
	add	esp, 8

; 349  : 					}
; 350  : 					else

	jmp	$LN327@BuildCouns
$LN328@BuildCouns:

; 351  : 					{
; 352  : 						strLoc = Localization::Lookup("TXT_KEY_SCIENCESTRATEGY_TECH_THAT_PROVIDES_SCIENCE_BUILDING_2");

	push	OFFSET ??_C@_0DO@NMPHJNCF@TXT_KEY_SCIENCESTRATEGY_TECH_THA@
	lea	ecx, DWORD PTR $T224794[ebp]
	push	ecx
	call	DWORD PTR __imp_?Lookup@Localization@@YA?AVString@1@PBD@Z
	add	esp, 8
	mov	DWORD PTR tv4251[ebp], eax
	mov	edx, DWORD PTR tv4251[ebp]
	mov	DWORD PTR tv3698[ebp], edx
	mov	BYTE PTR __$EHRec$[ebp+8], 14		; 0000000eH
	mov	eax, DWORD PTR tv3698[ebp]
	push	eax
	lea	ecx, DWORD PTR _strLoc$[ebp]
	call	DWORD PTR __imp_??4String@Localization@@QAEAAV01@ABV01@@Z
	mov	BYTE PTR __$EHRec$[ebp+8], 0
	lea	ecx, DWORD PTR $T224794[ebp]
	call	DWORD PTR __imp_??1String@Localization@@UAE@XZ

; 353  : 						strLoc << pPlayerTechs->GetTechs()->GetEntry(eTech)->GetTextKey();

	mov	ecx, DWORD PTR _eTech$222906[ebp]
	push	ecx
	mov	ecx, DWORD PTR _pPlayerTechs$[ebp]
	call	?GetTechs@CvPlayerTechs@@QBEPAVCvTechXMLEntries@@XZ ; CvPlayerTechs::GetTechs
	mov	ecx, eax
	call	?GetEntry@CvTechXMLEntries@@QAEPAVCvTechEntry@@H@Z ; CvTechXMLEntries::GetEntry
	mov	ecx, eax
	call	?GetTextKey@CvBaseInfo@@QBEPBDXZ	; CvBaseInfo::GetTextKey
	mov	DWORD PTR $T224795[ebp], eax
	lea	edx, DWORD PTR $T224795[ebp]
	push	edx
	lea	eax, DWORD PTR _strLoc$[ebp]
	push	eax
	call	??$?6PBD@@YAAAVString@Localization@@AAV01@ABQBD@Z ; operator<<<char const *>
	add	esp, 8

; 354  : 						strLoc << GC.getBuildingInfo(eBuilding1)->GetTextKey();

	mov	ecx, DWORD PTR _eBuilding1$222950[ebp]
	push	ecx
	mov	ecx, OFFSET ?gGlobals@@3VCvGlobals@@A	; gGlobals
	call	?getBuildingInfo@CvGlobals@@QAEPAVCvBuildingEntry@@W4BuildingTypes@@@Z ; CvGlobals::getBuildingInfo
	mov	ecx, eax
	call	?GetTextKey@CvBaseInfo@@QBEPBDXZ	; CvBaseInfo::GetTextKey
	mov	DWORD PTR $T224796[ebp], eax
	lea	edx, DWORD PTR $T224796[ebp]
	push	edx
	lea	eax, DWORD PTR _strLoc$[ebp]
	push	eax
	call	??$?6PBD@@YAAAVString@Localization@@AAV01@ABQBD@Z ; operator<<<char const *>
	add	esp, 8

; 355  : 						strLoc << GC.getBuildingInfo(eBuilding2)->GetTextKey();

	mov	ecx, DWORD PTR _eBuilding2$222951[ebp]
	push	ecx
	mov	ecx, OFFSET ?gGlobals@@3VCvGlobals@@A	; gGlobals
	call	?getBuildingInfo@CvGlobals@@QAEPAVCvBuildingEntry@@W4BuildingTypes@@@Z ; CvGlobals::getBuildingInfo
	mov	ecx, eax
	call	?GetTextKey@CvBaseInfo@@QBEPBDXZ	; CvBaseInfo::GetTextKey
	mov	DWORD PTR $T224797[ebp], eax
	lea	edx, DWORD PTR $T224797[ebp]
	push	edx
	lea	eax, DWORD PTR _strLoc$[ebp]
	push	eax
	call	??$?6PBD@@YAAAVString@Localization@@AAV01@ABQBD@Z ; operator<<<char const *>
	add	esp, 8
$LN327@BuildCouns:

; 356  : 					}
; 357  : 				}
; 358  : 				else

	jmp	$LN326@BuildCouns
$LN329@BuildCouns:

; 359  : 				{
; 360  : 					strLoc = Localization::Lookup("TXT_KEY_SCIENCESTRATEGY_TECH_THAT_PROVIDES_SCIENCE_BUILDING_1");

	push	OFFSET ??_C@_0DO@PHNKMOOG@TXT_KEY_SCIENCESTRATEGY_TECH_THA@
	lea	ecx, DWORD PTR $T224798[ebp]
	push	ecx
	call	DWORD PTR __imp_?Lookup@Localization@@YA?AVString@1@PBD@Z
	add	esp, 8
	mov	DWORD PTR tv4250[ebp], eax
	mov	edx, DWORD PTR tv4250[ebp]
	mov	DWORD PTR tv3700[ebp], edx
	mov	BYTE PTR __$EHRec$[ebp+8], 15		; 0000000fH
	mov	eax, DWORD PTR tv3700[ebp]
	push	eax
	lea	ecx, DWORD PTR _strLoc$[ebp]
	call	DWORD PTR __imp_??4String@Localization@@QAEAAV01@ABV01@@Z
	mov	BYTE PTR __$EHRec$[ebp+8], 0
	lea	ecx, DWORD PTR $T224798[ebp]
	call	DWORD PTR __imp_??1String@Localization@@UAE@XZ

; 361  : 					strLoc << pPlayerTechs->GetTechs()->GetEntry(eTech)->GetTextKey();

	mov	ecx, DWORD PTR _eTech$222906[ebp]
	push	ecx
	mov	ecx, DWORD PTR _pPlayerTechs$[ebp]
	call	?GetTechs@CvPlayerTechs@@QBEPAVCvTechXMLEntries@@XZ ; CvPlayerTechs::GetTechs
	mov	ecx, eax
	call	?GetEntry@CvTechXMLEntries@@QAEPAVCvTechEntry@@H@Z ; CvTechXMLEntries::GetEntry
	mov	ecx, eax
	call	?GetTextKey@CvBaseInfo@@QBEPBDXZ	; CvBaseInfo::GetTextKey
	mov	DWORD PTR $T224799[ebp], eax
	lea	edx, DWORD PTR $T224799[ebp]
	push	edx
	lea	eax, DWORD PTR _strLoc$[ebp]
	push	eax
	call	??$?6PBD@@YAAAVString@Localization@@AAV01@ABQBD@Z ; operator<<<char const *>
	add	esp, 8

; 362  : 					strLoc << GC.getBuildingInfo(eBuilding1)->GetTextKey();

	mov	ecx, DWORD PTR _eBuilding1$222950[ebp]
	push	ecx
	mov	ecx, OFFSET ?gGlobals@@3VCvGlobals@@A	; gGlobals
	call	?getBuildingInfo@CvGlobals@@QAEPAVCvBuildingEntry@@W4BuildingTypes@@@Z ; CvGlobals::getBuildingInfo
	mov	ecx, eax
	call	?GetTextKey@CvBaseInfo@@QBEPBDXZ	; CvBaseInfo::GetTextKey
	mov	DWORD PTR $T224800[ebp], eax
	lea	edx, DWORD PTR $T224800[ebp]
	push	edx
	lea	eax, DWORD PTR _strLoc$[ebp]
	push	eax
	call	??$?6PBD@@YAAAVString@Localization@@AAV01@ABQBD@Z ; operator<<<char const *>
	add	esp, 8
$LN326@BuildCouns:

; 363  : 				}
; 364  : 
; 365  : 				bool bSuccess = SetCounselEntry(uiCounselIndex, ADVISOR_SCIENCE, strLoc.toUTF8(), 15);

	push	15					; 0000000fH
	lea	ecx, DWORD PTR _strLoc$[ebp]
	call	DWORD PTR __imp_?toUTF8@String@Localization@@QAEPBDXZ
	push	eax
	push	3
	mov	ecx, DWORD PTR _uiCounselIndex$[ebp]
	push	ecx
	mov	ecx, DWORD PTR _this$[ebp]
	call	?SetCounselEntry@CvAdvisorCounsel@@QAE_NIW4AdvisorTypes@@PBDH@Z ; CvAdvisorCounsel::SetCounselEntry
	mov	BYTE PTR _bSuccess$222987[ebp], al

; 366  : 				CvAssertMsg(bSuccess, "Unable to add counsel to list. Too many strategies running at once");
; 367  : 				if(!bSuccess)

	movzx	edx, BYTE PTR _bSuccess$222987[ebp]
	test	edx, edx
	jne	SHORT $LN325@BuildCouns

; 368  : 				{
; 369  : 					break;

	jmp	$LN352@BuildCouns
$LN325@BuildCouns:

; 370  : 				}
; 371  : 				uiCounselIndex++;

	mov	eax, DWORD PTR _uiCounselIndex$[ebp]
	add	eax, 1
	mov	DWORD PTR _uiCounselIndex$[ebp], eax
$LN330@BuildCouns:

; 372  : 			}
; 373  : 
; 374  : #ifdef AUI_WARNING_FIXES
; 375  : 			for (uint i = 0; i < GC.getNumUnitInfos(); i++)
; 376  : #else
; 377  : 			for(int i = 0; i < GC.getNumUnitInfos(); i++)

	mov	DWORD PTR _i$222989[ebp], 0
	jmp	SHORT $LN324@BuildCouns
$LN323@BuildCouns:
	mov	ecx, DWORD PTR _i$222989[ebp]
	add	ecx, 1
	mov	DWORD PTR _i$222989[ebp], ecx
$LN324@BuildCouns:
	mov	ecx, OFFSET ?gGlobals@@3VCvGlobals@@A	; gGlobals
	call	?getNumUnitInfos@CvGlobals@@QAEHXZ	; CvGlobals::getNumUnitInfos
	cmp	DWORD PTR _i$222989[ebp], eax
	jge	$LN322@BuildCouns

; 378  : #endif
; 379  : 			{
; 380  : 				UnitTypes eUnitType = (UnitTypes)i;

	mov	edx, DWORD PTR _i$222989[ebp]
	mov	DWORD PTR _eUnitType$222993[ebp], edx

; 381  : 				CvUnitEntry* pUnitEntry = GC.getUnitInfo(eUnitType);

	mov	eax, DWORD PTR _eUnitType$222993[ebp]
	push	eax
	mov	ecx, OFFSET ?gGlobals@@3VCvGlobals@@A	; gGlobals
	call	?getUnitInfo@CvGlobals@@QAEPAVCvUnitEntry@@W4UnitTypes@@@Z ; CvGlobals::getUnitInfo
	mov	DWORD PTR _pUnitEntry$222995[ebp], eax

; 382  : 				if(pUnitEntry)

	cmp	DWORD PTR _pUnitEntry$222995[ebp], 0
	je	$LN321@BuildCouns

; 383  : 				{
; 384  : 					if(pUnitEntry->GetPrereqAndTech() == eTech && pUnitEntry->GetUnitCombatType() != NO_UNITCOMBAT)

	mov	ecx, DWORD PTR _pUnitEntry$222995[ebp]
	call	?GetPrereqAndTech@CvUnitEntry@@QBEHXZ	; CvUnitEntry::GetPrereqAndTech
	cmp	eax, DWORD PTR _eTech$222906[ebp]
	jne	$LN321@BuildCouns
	mov	ecx, DWORD PTR _pUnitEntry$222995[ebp]
	call	?GetUnitCombatType@CvUnitEntry@@QBEHXZ	; CvUnitEntry::GetUnitCombatType
	cmp	eax, -1
	je	$LN321@BuildCouns

; 385  : 					{
; 386  : 						UnitTypes eCivUnit = ((UnitTypes)(GET_PLAYER(ePlayer).getCivilizationInfo().getCivilizationUnits(pUnitEntry->GetUnitClassType())));

	mov	ecx, DWORD PTR _ePlayer$[ebp]
	imul	ecx, 63236				; 0000f704H
	add	ecx, DWORD PTR ?m_aPlayers@CvPlayerAI@@1PAV1@A ; CvPlayerAI::m_aPlayers
	mov	DWORD PTR $T225108[ebp], ecx
	mov	ecx, DWORD PTR _pUnitEntry$222995[ebp]
	call	?GetUnitClassType@CvUnitEntry@@QBEHXZ	; CvUnitEntry::GetUnitClassType
	push	eax
	mov	ecx, DWORD PTR $T225108[ebp]
	call	?getCivilizationInfo@CvPlayer@@QBEAAVCvCivilizationInfo@@XZ ; CvPlayer::getCivilizationInfo
	mov	ecx, eax
	call	?getCivilizationUnits@CvCivilizationInfo@@QBEHH@Z ; CvCivilizationInfo::getCivilizationUnits
	mov	DWORD PTR _eCivUnit$222998[ebp], eax

; 387  : 						if(eUnitType != eCivUnit)

	mov	edx, DWORD PTR _eUnitType$222993[ebp]
	cmp	edx, DWORD PTR _eCivUnit$222998[ebp]
	je	SHORT $LN319@BuildCouns

; 388  : 						{
; 389  : 							continue;

	jmp	$LN323@BuildCouns
$LN319@BuildCouns:

; 390  : 						}
; 391  : 
; 392  : 						int iCombatValue = MAX(pUnitEntry->GetCombat(), pUnitEntry->GetRangedCombat());

	mov	ecx, DWORD PTR _pUnitEntry$222995[ebp]
	call	?GetRangedCombat@CvUnitEntry@@QBEHXZ	; CvUnitEntry::GetRangedCombat
	mov	DWORD PTR $T224801[ebp], eax
	mov	ecx, DWORD PTR _pUnitEntry$222995[ebp]
	call	?GetCombat@CvUnitEntry@@QBEHXZ		; CvUnitEntry::GetCombat
	mov	DWORD PTR $T224802[ebp], eax
	mov	eax, DWORD PTR $T224802[ebp]
	cmp	eax, DWORD PTR $T224801[ebp]
	jge	SHORT $LN522@BuildCouns
	lea	ecx, DWORD PTR $T224801[ebp]
	mov	DWORD PTR tv3877[ebp], ecx
	jmp	SHORT $LN523@BuildCouns
$LN522@BuildCouns:
	lea	edx, DWORD PTR $T224802[ebp]
	mov	DWORD PTR tv3877[ebp], edx
$LN523@BuildCouns:
	mov	eax, DWORD PTR tv3877[ebp]
	mov	DWORD PTR $T225115[ebp], eax
	mov	ecx, DWORD PTR $T225115[ebp]
	mov	edx, DWORD PTR [ecx]
	mov	DWORD PTR _iCombatValue$223001[ebp], edx

; 393  : 						if(iCombatValue <= iMaxCombatValue)

	mov	eax, DWORD PTR _iCombatValue$223001[ebp]
	cmp	eax, DWORD PTR _iMaxCombatValue$[ebp]
	jg	SHORT $LN318@BuildCouns

; 394  : 						{
; 395  : 							continue;

	jmp	$LN323@BuildCouns
$LN318@BuildCouns:

; 396  : 						}
; 397  : 
; 398  : 						eMilitaryUnitTech = eTech;

	mov	ecx, DWORD PTR _eTech$222906[ebp]
	mov	DWORD PTR _eMilitaryUnitTech$[ebp], ecx

; 399  : 						eRecommendedUnit = eUnitType;

	mov	edx, DWORD PTR _eUnitType$222993[ebp]
	mov	DWORD PTR _eRecommendedUnit$[ebp], edx

; 400  : 						iMaxCombatValue = iCombatValue;

	mov	eax, DWORD PTR _iCombatValue$223001[ebp]
	mov	DWORD PTR _iMaxCombatValue$[ebp], eax
$LN321@BuildCouns:

; 401  : 					}
; 402  : 				}
; 403  : 			}

	jmp	$LN323@BuildCouns
$LN322@BuildCouns:

; 404  : 
; 405  : #ifdef AUI_WARNING_FIXES
; 406  : 			for (uint i = 0; i < GC.getNumBuildingInfos(); i++)
; 407  : #else
; 408  : 			for(int i = 0; i < GC.getNumBuildingInfos(); i++)

	mov	DWORD PTR _i$223005[ebp], 0
	jmp	SHORT $LN317@BuildCouns
$LN316@BuildCouns:
	mov	ecx, DWORD PTR _i$223005[ebp]
	add	ecx, 1
	mov	DWORD PTR _i$223005[ebp], ecx
$LN317@BuildCouns:
	mov	ecx, OFFSET ?gGlobals@@3VCvGlobals@@A	; gGlobals
	call	?getNumBuildingInfos@CvGlobals@@QAEHXZ	; CvGlobals::getNumBuildingInfos
	cmp	DWORD PTR _i$223005[ebp], eax
	jge	$LN351@BuildCouns

; 409  : #endif
; 410  : 			{
; 411  : 				BuildingTypes eBuildingType = (BuildingTypes)i;

	mov	edx, DWORD PTR _i$223005[ebp]
	mov	DWORD PTR _eBuildingType$223009[ebp], edx

; 412  : 				CvBuildingEntry* pBuildingEntry = GC.getBuildingInfo(eBuildingType);

	mov	eax, DWORD PTR _eBuildingType$223009[ebp]
	push	eax
	mov	ecx, OFFSET ?gGlobals@@3VCvGlobals@@A	; gGlobals
	call	?getBuildingInfo@CvGlobals@@QAEPAVCvBuildingEntry@@W4BuildingTypes@@@Z ; CvGlobals::getBuildingInfo
	mov	DWORD PTR _pBuildingEntry$223011[ebp], eax

; 413  : 				if(!pBuildingEntry || pBuildingEntry->GetPrereqAndTech() != eTech)

	cmp	DWORD PTR _pBuildingEntry$223011[ebp], 0
	je	SHORT $LN313@BuildCouns
	mov	ecx, DWORD PTR _pBuildingEntry$223011[ebp]
	call	?GetPrereqAndTech@CvBuildingEntry@@QBEHXZ ; CvBuildingEntry::GetPrereqAndTech
	cmp	eax, DWORD PTR _eTech$222906[ebp]
	je	SHORT $LN314@BuildCouns
$LN313@BuildCouns:

; 414  : 				{
; 415  : 					continue;

	jmp	SHORT $LN316@BuildCouns
$LN314@BuildCouns:

; 416  : 				}
; 417  : 
; 418  : 				bool bProvidesExperience = false;

	mov	BYTE PTR _bProvidesExperience$223014[ebp], 0

; 419  : 				for(int iDomain = 0; iDomain < NUM_DOMAIN_TYPES; iDomain++)

	mov	DWORD PTR _iDomain$223015[ebp], 0
	jmp	SHORT $LN312@BuildCouns
$LN311@BuildCouns:
	mov	ecx, DWORD PTR _iDomain$223015[ebp]
	add	ecx, 1
	mov	DWORD PTR _iDomain$223015[ebp], ecx
$LN312@BuildCouns:
	cmp	DWORD PTR _iDomain$223015[ebp], 5
	jge	SHORT $LN310@BuildCouns

; 420  : 				{
; 421  : 					if(pBuildingEntry->GetDomainFreeExperience(iDomain) > 0)

	mov	edx, DWORD PTR _iDomain$223015[ebp]
	push	edx
	mov	ecx, DWORD PTR _pBuildingEntry$223011[ebp]
	call	?GetDomainFreeExperience@CvBuildingEntry@@QBEHH@Z ; CvBuildingEntry::GetDomainFreeExperience
	test	eax, eax
	jle	SHORT $LN309@BuildCouns

; 422  : 					{
; 423  : 						bProvidesExperience = true;

	mov	BYTE PTR _bProvidesExperience$223014[ebp], 1
$LN309@BuildCouns:

; 424  : 					}
; 425  : 				}

	jmp	SHORT $LN311@BuildCouns
$LN310@BuildCouns:

; 426  : 
; 427  : 				if(!bProvidesExperience)

	movzx	eax, BYTE PTR _bProvidesExperience$223014[ebp]
	test	eax, eax
	jne	SHORT $LN308@BuildCouns

; 428  : 				{
; 429  : 					continue;

	jmp	$LN316@BuildCouns
$LN308@BuildCouns:

; 430  : 				}
; 431  : 
; 432  : 				eMilitaryBuildingTech = eTech;

	mov	ecx, DWORD PTR _eTech$222906[ebp]
	mov	DWORD PTR _eMilitaryBuildingTech$[ebp], ecx

; 433  : 				eRecommendedBuilding = eBuildingType;

	mov	edx, DWORD PTR _eBuildingType$223009[ebp]
	mov	DWORD PTR _eRecommendedBuilding$[ebp], edx

; 434  : 			}

	jmp	$LN316@BuildCouns
$LN351@BuildCouns:

; 435  : 		}
; 436  : 	}

	jmp	$LN353@BuildCouns
$LN352@BuildCouns:

; 437  : 
; 438  : 	if(eRecommendedUnit != NO_UNIT)

	cmp	DWORD PTR _eRecommendedUnit$[ebp], -1
	je	$LN307@BuildCouns

; 439  : 	{
; 440  : 		CvUnitEntry* pkUnitInfo = GC.getUnitInfo(eRecommendedUnit);

	mov	eax, DWORD PTR _eRecommendedUnit$[ebp]
	push	eax
	mov	ecx, OFFSET ?gGlobals@@3VCvGlobals@@A	; gGlobals
	call	?getUnitInfo@CvGlobals@@QAEPAVCvUnitEntry@@W4UnitTypes@@@Z ; CvGlobals::getUnitInfo
	mov	DWORD PTR _pkUnitInfo$223022[ebp], eax

; 441  : 		if(pkUnitInfo)

	cmp	DWORD PTR _pkUnitInfo$223022[ebp], 0
	je	$LN307@BuildCouns

; 442  : 		{
; 443  : 			strLoc = Localization::Lookup("TXT_KEY_SCIENCESTRATEGY_RESEARCH_MILITARY_UNITS");

	push	OFFSET ??_C@_0DA@BGIBLOEF@TXT_KEY_SCIENCESTRATEGY_RESEARCH@
	lea	ecx, DWORD PTR $T224803[ebp]
	push	ecx
	call	DWORD PTR __imp_?Lookup@Localization@@YA?AVString@1@PBD@Z
	add	esp, 8
	mov	DWORD PTR tv4249[ebp], eax
	mov	edx, DWORD PTR tv4249[ebp]
	mov	DWORD PTR tv3702[ebp], edx
	mov	BYTE PTR __$EHRec$[ebp+8], 16		; 00000010H
	mov	eax, DWORD PTR tv3702[ebp]
	push	eax
	lea	ecx, DWORD PTR _strLoc$[ebp]
	call	DWORD PTR __imp_??4String@Localization@@QAEAAV01@ABV01@@Z
	mov	BYTE PTR __$EHRec$[ebp+8], 0
	lea	ecx, DWORD PTR $T224803[ebp]
	call	DWORD PTR __imp_??1String@Localization@@UAE@XZ

; 444  : 			strLoc << pPlayerTechs->GetTechs()->GetEntry(eMilitaryUnitTech)->GetTextKey();

	mov	ecx, DWORD PTR _eMilitaryUnitTech$[ebp]
	push	ecx
	mov	ecx, DWORD PTR _pPlayerTechs$[ebp]
	call	?GetTechs@CvPlayerTechs@@QBEPAVCvTechXMLEntries@@XZ ; CvPlayerTechs::GetTechs
	mov	ecx, eax
	call	?GetEntry@CvTechXMLEntries@@QAEPAVCvTechEntry@@H@Z ; CvTechXMLEntries::GetEntry
	mov	ecx, eax
	call	?GetTextKey@CvBaseInfo@@QBEPBDXZ	; CvBaseInfo::GetTextKey
	mov	DWORD PTR $T224804[ebp], eax
	lea	edx, DWORD PTR $T224804[ebp]
	push	edx
	lea	eax, DWORD PTR _strLoc$[ebp]
	push	eax
	call	??$?6PBD@@YAAAVString@Localization@@AAV01@ABQBD@Z ; operator<<<char const *>
	add	esp, 8

; 445  : 			strLoc << pkUnitInfo->GetTextKey();

	mov	ecx, DWORD PTR _pkUnitInfo$223022[ebp]
	call	?GetTextKey@CvBaseInfo@@QBEPBDXZ	; CvBaseInfo::GetTextKey
	mov	DWORD PTR $T224805[ebp], eax
	lea	ecx, DWORD PTR $T224805[ebp]
	push	ecx
	lea	edx, DWORD PTR _strLoc$[ebp]
	push	edx
	call	??$?6PBD@@YAAAVString@Localization@@AAV01@ABQBD@Z ; operator<<<char const *>
	add	esp, 8

; 446  : 			
; 447  : #ifdef CVASSERT_ENABLE
; 448  : 			bool bSuccess = SetCounselEntry(uiCounselIndex, ADVISOR_MILITARY, strLoc.toUTF8(), 15);
; 449  : 			DEBUG_VARIABLE(bSuccess);
; 450  : 			CvAssertMsg(bSuccess, "Unable to add counsel to list. Too many strategies running at once");
; 451  : #else
; 452  : 			SetCounselEntry(uiCounselIndex, ADVISOR_MILITARY, strLoc.toUTF8(), 15);

	push	15					; 0000000fH
	lea	ecx, DWORD PTR _strLoc$[ebp]
	call	DWORD PTR __imp_?toUTF8@String@Localization@@QAEPBDXZ
	push	eax
	push	0
	mov	eax, DWORD PTR _uiCounselIndex$[ebp]
	push	eax
	mov	ecx, DWORD PTR _this$[ebp]
	call	?SetCounselEntry@CvAdvisorCounsel@@QAE_NIW4AdvisorTypes@@PBDH@Z ; CvAdvisorCounsel::SetCounselEntry

; 453  : #endif
; 454  : 			uiCounselIndex++;

	mov	ecx, DWORD PTR _uiCounselIndex$[ebp]
	add	ecx, 1
	mov	DWORD PTR _uiCounselIndex$[ebp], ecx
$LN307@BuildCouns:

; 455  : 		}
; 456  : 	}
; 457  : 
; 458  : 	if(eRecommendedBuilding != NO_BUILDING)

	cmp	DWORD PTR _eRecommendedBuilding$[ebp], -1
	je	$LN305@BuildCouns

; 459  : 	{
; 460  : 		CvBuildingEntry* pkBuildingInfo = GC.getBuildingInfo(eRecommendedBuilding);

	mov	edx, DWORD PTR _eRecommendedBuilding$[ebp]
	push	edx
	mov	ecx, OFFSET ?gGlobals@@3VCvGlobals@@A	; gGlobals
	call	?getBuildingInfo@CvGlobals@@QAEPAVCvBuildingEntry@@W4BuildingTypes@@@Z ; CvGlobals::getBuildingInfo
	mov	DWORD PTR _pkBuildingInfo$223029[ebp], eax

; 461  : 		if(pkBuildingInfo)

	cmp	DWORD PTR _pkBuildingInfo$223029[ebp], 0
	je	$LN305@BuildCouns

; 462  : 		{
; 463  : 			strLoc = Localization::Lookup("TXT_KEY_SCIENCESTRATEGY_RESEARCH_MILITARY_BUILDING");

	push	OFFSET ??_C@_0DD@GBLNNIKD@TXT_KEY_SCIENCESTRATEGY_RESEARCH@
	lea	eax, DWORD PTR $T224806[ebp]
	push	eax
	call	DWORD PTR __imp_?Lookup@Localization@@YA?AVString@1@PBD@Z
	add	esp, 8
	mov	DWORD PTR tv4248[ebp], eax
	mov	ecx, DWORD PTR tv4248[ebp]
	mov	DWORD PTR tv3704[ebp], ecx
	mov	BYTE PTR __$EHRec$[ebp+8], 17		; 00000011H
	mov	edx, DWORD PTR tv3704[ebp]
	push	edx
	lea	ecx, DWORD PTR _strLoc$[ebp]
	call	DWORD PTR __imp_??4String@Localization@@QAEAAV01@ABV01@@Z
	mov	BYTE PTR __$EHRec$[ebp+8], 0
	lea	ecx, DWORD PTR $T224806[ebp]
	call	DWORD PTR __imp_??1String@Localization@@UAE@XZ

; 464  : 			strLoc << pPlayerTechs->GetTechs()->GetEntry(eMilitaryBuildingTech)->GetTextKey();

	mov	eax, DWORD PTR _eMilitaryBuildingTech$[ebp]
	push	eax
	mov	ecx, DWORD PTR _pPlayerTechs$[ebp]
	call	?GetTechs@CvPlayerTechs@@QBEPAVCvTechXMLEntries@@XZ ; CvPlayerTechs::GetTechs
	mov	ecx, eax
	call	?GetEntry@CvTechXMLEntries@@QAEPAVCvTechEntry@@H@Z ; CvTechXMLEntries::GetEntry
	mov	ecx, eax
	call	?GetTextKey@CvBaseInfo@@QBEPBDXZ	; CvBaseInfo::GetTextKey
	mov	DWORD PTR $T224807[ebp], eax
	lea	ecx, DWORD PTR $T224807[ebp]
	push	ecx
	lea	edx, DWORD PTR _strLoc$[ebp]
	push	edx
	call	??$?6PBD@@YAAAVString@Localization@@AAV01@ABQBD@Z ; operator<<<char const *>
	add	esp, 8

; 465  : 			strLoc << pkBuildingInfo->GetTextKey();

	mov	ecx, DWORD PTR _pkBuildingInfo$223029[ebp]
	call	?GetTextKey@CvBaseInfo@@QBEPBDXZ	; CvBaseInfo::GetTextKey
	mov	DWORD PTR $T224808[ebp], eax
	lea	eax, DWORD PTR $T224808[ebp]
	push	eax
	lea	ecx, DWORD PTR _strLoc$[ebp]
	push	ecx
	call	??$?6PBD@@YAAAVString@Localization@@AAV01@ABQBD@Z ; operator<<<char const *>
	add	esp, 8

; 466  : 
; 467  : #ifdef CVASSERT_ENABLE
; 468  : 			bool bSuccess = SetCounselEntry(uiCounselIndex, ADVISOR_MILITARY, strLoc.toUTF8(), 15);
; 469  : 			DEBUG_VARIABLE(bSuccess);
; 470  : 			CvAssertMsg(bSuccess, "Unable to add counsel to list. Too many strategies running at once");
; 471  : #else
; 472  : 			SetCounselEntry(uiCounselIndex, ADVISOR_MILITARY, strLoc.toUTF8(), 15);

	push	15					; 0000000fH
	lea	ecx, DWORD PTR _strLoc$[ebp]
	call	DWORD PTR __imp_?toUTF8@String@Localization@@QAEPBDXZ
	push	eax
	push	0
	mov	edx, DWORD PTR _uiCounselIndex$[ebp]
	push	edx
	mov	ecx, DWORD PTR _this$[ebp]
	call	?SetCounselEntry@CvAdvisorCounsel@@QAE_NIW4AdvisorTypes@@PBDH@Z ; CvAdvisorCounsel::SetCounselEntry

; 473  : #endif
; 474  : 			uiCounselIndex++;

	mov	eax, DWORD PTR _uiCounselIndex$[ebp]
	add	eax, 1
	mov	DWORD PTR _uiCounselIndex$[ebp], eax
$LN305@BuildCouns:

; 475  : 		}
; 476  : 	}
; 477  : 
; 478  : 	// evaluate the player's science yield according to population
; 479  : 	{
; 480  : 		int iRating = 1;

	mov	DWORD PTR _iRating$223035[ebp], 1

; 481  : 		int iScience = GET_PLAYER(ePlayer).GetScience();

	mov	ecx, DWORD PTR _ePlayer$[ebp]
	imul	ecx, 63236				; 0000f704H
	add	ecx, DWORD PTR ?m_aPlayers@CvPlayerAI@@1PAV1@A ; CvPlayerAI::m_aPlayers
	mov	DWORD PTR $T225121[ebp], ecx
	mov	ecx, DWORD PTR $T225121[ebp]
	call	?GetScience@CvPlayer@@QBEHXZ		; CvPlayer::GetScience
	mov	DWORD PTR _iScience$223036[ebp], eax

; 482  : 		int iPopulation = GET_PLAYER(ePlayer).getTotalPopulation();

	mov	edx, DWORD PTR _ePlayer$[ebp]
	imul	edx, 63236				; 0000f704H
	add	edx, DWORD PTR ?m_aPlayers@CvPlayerAI@@1PAV1@A ; CvPlayerAI::m_aPlayers
	mov	DWORD PTR $T225125[ebp], edx
	mov	ecx, DWORD PTR $T225125[ebp]
	call	?getTotalPopulation@CvPlayer@@QBEHXZ	; CvPlayer::getTotalPopulation
	mov	DWORD PTR _iPopulation$223037[ebp], eax

; 483  : 		int iRatio = 0;

	mov	DWORD PTR _iRatio$223038[ebp], 0

; 484  : 		if(iPopulation > 0)

	cmp	DWORD PTR _iPopulation$223037[ebp], 0
	jle	SHORT $LN303@BuildCouns

; 485  : 		{
; 486  : 			iRatio = (iScience * 100) / iPopulation;

	mov	eax, DWORD PTR _iScience$223036[ebp]
	imul	eax, 100				; 00000064H
	cdq
	idiv	DWORD PTR _iPopulation$223037[ebp]
	mov	DWORD PTR _iRatio$223038[ebp], eax
$LN303@BuildCouns:

; 487  : 		}
; 488  : 
; 489  : 		CvTreasury* pTreasury = GET_PLAYER(ePlayer).GetTreasury();

	mov	eax, DWORD PTR _ePlayer$[ebp]
	imul	eax, 63236				; 0000f704H
	add	eax, DWORD PTR ?m_aPlayers@CvPlayerAI@@1PAV1@A ; CvPlayerAI::m_aPlayers
	mov	DWORD PTR $T225129[ebp], eax
	mov	ecx, DWORD PTR $T225129[ebp]
	call	?GetTreasury@CvPlayer@@QBEPAVCvTreasury@@XZ ; CvPlayer::GetTreasury
	mov	DWORD PTR _pTreasury$223040[ebp], eax

; 490  : 
; 491  : 		int iGold = pTreasury->GetGold();

	mov	ecx, DWORD PTR _pTreasury$223040[ebp]
	call	?GetGold@CvTreasury@@QBEHXZ		; CvTreasury::GetGold
	mov	DWORD PTR _iGold$223041[ebp], eax

; 492  : 		int iRevenue = GET_PLAYER(ePlayer).calculateGoldRate();

	mov	ecx, DWORD PTR _ePlayer$[ebp]
	imul	ecx, 63236				; 0000f704H
	add	ecx, DWORD PTR ?m_aPlayers@CvPlayerAI@@1PAV1@A ; CvPlayerAI::m_aPlayers
	mov	DWORD PTR $T225133[ebp], ecx
	mov	ecx, DWORD PTR $T225133[ebp]
	call	?calculateGoldRate@CvPlayer@@QBEHXZ	; CvPlayer::calculateGoldRate
	mov	DWORD PTR _iRevenue$223042[ebp], eax

; 493  : 
; 494  : 		if((iGold + iRevenue) > 0)

	mov	edx, DWORD PTR _iGold$223041[ebp]
	add	edx, DWORD PTR _iRevenue$223042[ebp]
	test	edx, edx
	jle	$LN302@BuildCouns

; 495  : 		{
; 496  : 			if(iRatio < 110)

	cmp	DWORD PTR _iRatio$223038[ebp], 110	; 0000006eH
	jge	$LN301@BuildCouns

; 497  : 			{
; 498  : 				strLoc = Localization::Lookup("TXT_KEY_SCIENCESTRATEGY_INFO_DOING_POORLY");

	push	OFFSET ??_C@_0CK@CGLEDHOG@TXT_KEY_SCIENCESTRATEGY_INFO_DOI@
	lea	eax, DWORD PTR $T224809[ebp]
	push	eax
	call	DWORD PTR __imp_?Lookup@Localization@@YA?AVString@1@PBD@Z
	add	esp, 8
	mov	DWORD PTR tv4247[ebp], eax
	mov	ecx, DWORD PTR tv4247[ebp]
	mov	DWORD PTR tv3706[ebp], ecx
	mov	BYTE PTR __$EHRec$[ebp+8], 18		; 00000012H
	mov	edx, DWORD PTR tv3706[ebp]
	push	edx
	lea	ecx, DWORD PTR _strLoc$[ebp]
	call	DWORD PTR __imp_??4String@Localization@@QAEAAV01@ABV01@@Z
	mov	BYTE PTR __$EHRec$[ebp+8], 0
	lea	ecx, DWORD PTR $T224809[ebp]
	call	DWORD PTR __imp_??1String@Localization@@UAE@XZ

; 499  : 				strLoc << iScience;

	lea	eax, DWORD PTR _iScience$223036[ebp]
	push	eax
	lea	ecx, DWORD PTR _strLoc$[ebp]
	push	ecx
	call	??$?6H@@YAAAVString@Localization@@AAV01@ABH@Z ; operator<<<int>
	add	esp, 8

; 500  : 				strLoc << iPopulation;

	lea	edx, DWORD PTR _iPopulation$223037[ebp]
	push	edx
	lea	eax, DWORD PTR _strLoc$[ebp]
	push	eax
	call	??$?6H@@YAAAVString@Localization@@AAV01@ABH@Z ; operator<<<int>
	add	esp, 8

; 501  : 				iRating = 10;

	mov	DWORD PTR _iRating$223035[ebp], 10	; 0000000aH
	jmp	$LN300@BuildCouns
$LN301@BuildCouns:

; 502  : 			}
; 503  : 			else if(iRatio > 125)

	cmp	DWORD PTR _iRatio$223038[ebp], 125	; 0000007dH
	jle	SHORT $LN299@BuildCouns

; 504  : 			{
; 505  : 				strLoc = Localization::Lookup("TXT_KEY_SCIENCESTRATEGY_INFO_DOING_WELL");

	push	OFFSET ??_C@_0CI@KOFOGLAF@TXT_KEY_SCIENCESTRATEGY_INFO_DOI@
	lea	ecx, DWORD PTR $T224810[ebp]
	push	ecx
	call	DWORD PTR __imp_?Lookup@Localization@@YA?AVString@1@PBD@Z
	add	esp, 8
	mov	DWORD PTR tv4246[ebp], eax
	mov	edx, DWORD PTR tv4246[ebp]
	mov	DWORD PTR tv3708[ebp], edx
	mov	BYTE PTR __$EHRec$[ebp+8], 19		; 00000013H
	mov	eax, DWORD PTR tv3708[ebp]
	push	eax
	lea	ecx, DWORD PTR _strLoc$[ebp]
	call	DWORD PTR __imp_??4String@Localization@@QAEAAV01@ABV01@@Z
	mov	BYTE PTR __$EHRec$[ebp+8], 0
	lea	ecx, DWORD PTR $T224810[ebp]
	call	DWORD PTR __imp_??1String@Localization@@UAE@XZ

; 506  : 				strLoc << iScience;

	lea	ecx, DWORD PTR _iScience$223036[ebp]
	push	ecx
	lea	edx, DWORD PTR _strLoc$[ebp]
	push	edx
	call	??$?6H@@YAAAVString@Localization@@AAV01@ABH@Z ; operator<<<int>
	add	esp, 8

; 507  : 				strLoc << iPopulation;

	lea	eax, DWORD PTR _iPopulation$223037[ebp]
	push	eax
	lea	ecx, DWORD PTR _strLoc$[ebp]
	push	ecx
	call	??$?6H@@YAAAVString@Localization@@AAV01@ABH@Z ; operator<<<int>
	add	esp, 8

; 508  : 				iRating = 5;

	mov	DWORD PTR _iRating$223035[ebp], 5

; 509  : 			}
; 510  : 			else

	jmp	SHORT $LN300@BuildCouns
$LN299@BuildCouns:

; 511  : 			{
; 512  : 				strLoc = Localization::Lookup("TXT_KEY_SCIENCESTRATEGY_INFO");

	push	OFFSET ??_C@_0BN@FPEKJNGJ@TXT_KEY_SCIENCESTRATEGY_INFO?$AA@
	lea	edx, DWORD PTR $T224811[ebp]
	push	edx
	call	DWORD PTR __imp_?Lookup@Localization@@YA?AVString@1@PBD@Z
	add	esp, 8
	mov	DWORD PTR tv4245[ebp], eax
	mov	eax, DWORD PTR tv4245[ebp]
	mov	DWORD PTR tv3710[ebp], eax
	mov	BYTE PTR __$EHRec$[ebp+8], 20		; 00000014H
	mov	ecx, DWORD PTR tv3710[ebp]
	push	ecx
	lea	ecx, DWORD PTR _strLoc$[ebp]
	call	DWORD PTR __imp_??4String@Localization@@QAEAAV01@ABV01@@Z
	mov	BYTE PTR __$EHRec$[ebp+8], 0
	lea	ecx, DWORD PTR $T224811[ebp]
	call	DWORD PTR __imp_??1String@Localization@@UAE@XZ

; 513  : 				strLoc << iScience;

	lea	edx, DWORD PTR _iScience$223036[ebp]
	push	edx
	lea	eax, DWORD PTR _strLoc$[ebp]
	push	eax
	call	??$?6H@@YAAAVString@Localization@@AAV01@ABH@Z ; operator<<<int>
	add	esp, 8

; 514  : 				strLoc << iPopulation;

	lea	ecx, DWORD PTR _iPopulation$223037[ebp]
	push	ecx
	lea	edx, DWORD PTR _strLoc$[ebp]
	push	edx
	call	??$?6H@@YAAAVString@Localization@@AAV01@ABH@Z ; operator<<<int>
	add	esp, 8

; 515  : 				iRating = 1;

	mov	DWORD PTR _iRating$223035[ebp], 1
$LN300@BuildCouns:

; 516  : 			}
; 517  : 		}
; 518  : 		else

	jmp	SHORT $LN297@BuildCouns
$LN302@BuildCouns:

; 519  : 		{
; 520  : 			strLoc = Localization::Lookup("TXT_KEY_SCIENCESTRATEGY_BANKRUPT");

	push	OFFSET ??_C@_0CB@LNMHCNBL@TXT_KEY_SCIENCESTRATEGY_BANKRUPT@
	lea	eax, DWORD PTR $T224812[ebp]
	push	eax
	call	DWORD PTR __imp_?Lookup@Localization@@YA?AVString@1@PBD@Z
	add	esp, 8
	mov	DWORD PTR tv4244[ebp], eax
	mov	ecx, DWORD PTR tv4244[ebp]
	mov	DWORD PTR tv3712[ebp], ecx
	mov	BYTE PTR __$EHRec$[ebp+8], 21		; 00000015H
	mov	edx, DWORD PTR tv3712[ebp]
	push	edx
	lea	ecx, DWORD PTR _strLoc$[ebp]
	call	DWORD PTR __imp_??4String@Localization@@QAEAAV01@ABV01@@Z
	mov	BYTE PTR __$EHRec$[ebp+8], 0
	lea	ecx, DWORD PTR $T224812[ebp]
	call	DWORD PTR __imp_??1String@Localization@@UAE@XZ

; 521  : 			iRating = 99;

	mov	DWORD PTR _iRating$223035[ebp], 99	; 00000063H
$LN297@BuildCouns:

; 522  : 		}
; 523  : 
; 524  : #ifdef CVASSERT_ENABLE
; 525  : 		bool bSuccess = SetCounselEntry(uiCounselIndex, ADVISOR_SCIENCE, strLoc.toUTF8(), iRating);
; 526  : 		DEBUG_VARIABLE(bSuccess);
; 527  : 		CvAssertMsg(bSuccess, "Unable to add counsel to list. Too many strategies running at once");
; 528  : #else
; 529  : 		SetCounselEntry(uiCounselIndex, ADVISOR_SCIENCE, strLoc.toUTF8(), iRating);

	mov	eax, DWORD PTR _iRating$223035[ebp]
	push	eax
	lea	ecx, DWORD PTR _strLoc$[ebp]
	call	DWORD PTR __imp_?toUTF8@String@Localization@@QAEPBDXZ
	push	eax
	push	3
	mov	ecx, DWORD PTR _uiCounselIndex$[ebp]
	push	ecx
	mov	ecx, DWORD PTR _this$[ebp]
	call	?SetCounselEntry@CvAdvisorCounsel@@QAE_NIW4AdvisorTypes@@PBDH@Z ; CvAdvisorCounsel::SetCounselEntry

; 530  : #endif
; 531  : 		uiCounselIndex++;

	mov	edx, DWORD PTR _uiCounselIndex$[ebp]
	add	edx, 1
	mov	DWORD PTR _uiCounselIndex$[ebp], edx

; 532  : 	}
; 533  : 
; 534  : 
; 535  : 
; 536  : 	// diplomacy info
; 537  : 	// go through all the other major civs and build info on them
; 538  : 	// for each opposing major
; 539  : 	CvDiplomacyAI* pDiplomacyAI = GET_PLAYER(ePlayer).GetDiplomacyAI();

	mov	eax, DWORD PTR _ePlayer$[ebp]
	imul	eax, 63236				; 0000f704H
	add	eax, DWORD PTR ?m_aPlayers@CvPlayerAI@@1PAV1@A ; CvPlayerAI::m_aPlayers
	mov	DWORD PTR $T225137[ebp], eax
	mov	ecx, DWORD PTR $T225137[ebp]
	call	?GetDiplomacyAI@CvPlayer@@QBEPAVCvDiplomacyAI@@XZ ; CvPlayer::GetDiplomacyAI
	mov	DWORD PTR _pDiplomacyAI$[ebp], eax

; 540  : 	for(int iPlayer = 0; iPlayer < MAX_MAJOR_CIVS; iPlayer++)

	mov	DWORD PTR _iPlayer$223058[ebp], 0
	jmp	SHORT $LN296@BuildCouns
$LN295@BuildCouns:
	mov	ecx, DWORD PTR _iPlayer$223058[ebp]
	add	ecx, 1
	mov	DWORD PTR _iPlayer$223058[ebp], ecx
$LN296@BuildCouns:
	cmp	DWORD PTR _iPlayer$223058[ebp], 22	; 00000016H
	jge	$LN294@BuildCouns

; 541  : 	{
; 542  : 		if(GC.getGame().isOption(GAMEOPTION_ALWAYS_WAR) || GC.getGame().isOption(GAMEOPTION_ALWAYS_PEACE))

	mov	edx, DWORD PTR ?gGlobals@@3VCvGlobals@@A+48
	mov	DWORD PTR $T225141[ebp], edx
	push	3
	mov	ecx, DWORD PTR $T225141[ebp]
	call	?isOption@CvGame@@QBE_NW4GameOptionTypes@@@Z ; CvGame::isOption
	movzx	eax, al
	test	eax, eax
	jne	SHORT $LN292@BuildCouns
	mov	ecx, DWORD PTR ?gGlobals@@3VCvGlobals@@A+48
	mov	DWORD PTR $T225145[ebp], ecx
	push	4
	mov	ecx, DWORD PTR $T225145[ebp]
	call	?isOption@CvGame@@QBE_NW4GameOptionTypes@@@Z ; CvGame::isOption
	movzx	edx, al
	test	edx, edx
	je	SHORT $LN293@BuildCouns
$LN292@BuildCouns:

; 543  : 		{
; 544  : 			continue;

	jmp	SHORT $LN295@BuildCouns
$LN293@BuildCouns:

; 545  : 		}
; 546  : 
; 547  : 		// reset the ratings per player
; 548  : 		int iMessageRating = 0;

	mov	DWORD PTR _iMessageRating$223064[ebp], 0

; 549  : 		AdvisorTypes eAdvisor = NO_ADVISOR_TYPE;

	mov	DWORD PTR _eAdvisor$223065[ebp], -1

; 550  : 
; 551  : 		PlayerTypes eOtherPlayer = (PlayerTypes)iPlayer;

	mov	eax, DWORD PTR _iPlayer$223058[ebp]
	mov	DWORD PTR _eOtherPlayer$223066[ebp], eax

; 552  : 		TeamTypes eOtherTeam = GET_PLAYER(eOtherPlayer).getTeam();

	mov	ecx, DWORD PTR _eOtherPlayer$223066[ebp]
	imul	ecx, 63236				; 0000f704H
	add	ecx, DWORD PTR ?m_aPlayers@CvPlayerAI@@1PAV1@A ; CvPlayerAI::m_aPlayers
	mov	DWORD PTR $T225149[ebp], ecx
	mov	edx, DWORD PTR $T225149[ebp]
	mov	eax, DWORD PTR [edx+44]
	push	eax
	call	?teamType@CvPreGame@@YA?AW4TeamTypes@@W4PlayerTypes@@@Z ; CvPreGame::teamType
	add	esp, 4
	mov	DWORD PTR _eOtherTeam$223068[ebp], eax

; 553  : 
; 554  : 		// don't evaluate yourself
; 555  : 		if(eOtherPlayer == ePlayer)

	mov	ecx, DWORD PTR _eOtherPlayer$223066[ebp]
	cmp	ecx, DWORD PTR _ePlayer$[ebp]
	jne	SHORT $LN291@BuildCouns

; 556  : 		{
; 557  : 			continue;

	jmp	$LN295@BuildCouns
$LN291@BuildCouns:

; 558  : 		}
; 559  : 
; 560  : 		// don't evaluate teammates
; 561  : 		if(eOtherTeam == eTeam)

	mov	edx, DWORD PTR _eOtherTeam$223068[ebp]
	cmp	edx, DWORD PTR _eTeam$[ebp]
	jne	SHORT $LN290@BuildCouns

; 562  : 		{
; 563  : 			continue;

	jmp	$LN295@BuildCouns
$LN290@BuildCouns:

; 564  : 		}
; 565  : 
; 566  : 		// don't evaluate dead people
; 567  : 		if(!GET_PLAYER(eOtherPlayer).isAlive())

	mov	eax, DWORD PTR _eOtherPlayer$223066[ebp]
	imul	eax, 63236				; 0000f704H
	add	eax, DWORD PTR ?m_aPlayers@CvPlayerAI@@1PAV1@A ; CvPlayerAI::m_aPlayers
	mov	DWORD PTR $T225161[ebp], eax
	mov	ecx, DWORD PTR $T225161[ebp]
	mov	dl, BYTE PTR [ecx+2256]
	mov	BYTE PTR $T225170[ebp], dl
	movzx	eax, BYTE PTR $T225170[ebp]
	test	eax, eax
	jne	SHORT $LN289@BuildCouns

; 568  : 		{
; 569  : 			continue;

	jmp	$LN295@BuildCouns
$LN289@BuildCouns:

; 570  : 		}
; 571  : 
; 572  : 		// don't evaluate players we haven't met
; 573  : 		if(!GET_TEAM(eTeam).isHasMet(eOtherTeam))

	mov	ecx, DWORD PTR _eTeam$[ebp]
	imul	ecx, 2984				; 00000ba8H
	add	ecx, DWORD PTR ?m_aTeams@CvTeam@@1PAV1@A ; CvTeam::m_aTeams
	mov	DWORD PTR $T225174[ebp], ecx
	mov	edx, DWORD PTR _eOtherTeam$223068[ebp]
	push	edx
	mov	ecx, DWORD PTR $T225174[ebp]
	call	?isHasMet@CvTeam@@QBE_NW4TeamTypes@@@Z	; CvTeam::isHasMet
	movzx	eax, al
	test	eax, eax
	jne	SHORT $LN288@BuildCouns

; 574  : 		{
; 575  : 			continue;

	jmp	$LN295@BuildCouns
$LN288@BuildCouns:

; 576  : 		}
; 577  : 
; 578  : 		WarProjectionTypes eWarProjection = pDiplomacyAI->GetWarProjection(eOtherPlayer);

	mov	ecx, DWORD PTR _eOtherPlayer$223066[ebp]
	push	ecx
	mov	ecx, DWORD PTR _pDiplomacyAI$[ebp]
	call	?GetWarProjection@CvDiplomacyAI@@QBE?AW4WarProjectionTypes@@W4PlayerTypes@@@Z ; CvDiplomacyAI::GetWarProjection
	mov	DWORD PTR _eWarProjection$223073[ebp], eax

; 579  : 		StrengthTypes eMilitaryStrengthComparedToUs = pDiplomacyAI->GetPlayerMilitaryStrengthComparedToUs(eOtherPlayer);

	mov	edx, DWORD PTR _eOtherPlayer$223066[ebp]
	push	edx
	mov	ecx, DWORD PTR _pDiplomacyAI$[ebp]
	call	?GetPlayerMilitaryStrengthComparedToUs@CvDiplomacyAI@@QBE?AW4StrengthTypes@@W4PlayerTypes@@@Z ; CvDiplomacyAI::GetPlayerMilitaryStrengthComparedToUs
	mov	DWORD PTR _eMilitaryStrengthComparedToUs$223074[ebp], eax

; 580  : 
; 581  : 		if(GET_TEAM(eTeam).isAtWar(eOtherTeam))

	mov	eax, DWORD PTR _eTeam$[ebp]
	imul	eax, 2984				; 00000ba8H
	add	eax, DWORD PTR ?m_aTeams@CvTeam@@1PAV1@A ; CvTeam::m_aTeams
	mov	DWORD PTR $T225178[ebp], eax
	mov	ecx, DWORD PTR _eOtherTeam$223068[ebp]
	push	ecx
	mov	ecx, DWORD PTR $T225178[ebp]
	call	?isAtWar@CvTeam@@QBE_NW4TeamTypes@@@Z	; CvTeam::isAtWar
	movzx	edx, al
	test	edx, edx
	je	$LN287@BuildCouns

; 582  : 		{
; 583  : 			switch(eWarProjection)

	mov	eax, DWORD PTR _eWarProjection$223073[ebp]
	mov	DWORD PTR tv1253[ebp], eax
	cmp	DWORD PTR tv1253[ebp], 5
	ja	$LN285@BuildCouns
	mov	ecx, DWORD PTR tv1253[ebp]
	jmp	DWORD PTR $LN1054@BuildCouns[ecx*4]
$LN284@BuildCouns:

; 584  : 			{
; 585  : 			case WAR_PROJECTION_DESTRUCTION:
; 586  : 			{
; 587  : 				//if (GET_TEAM(eTeam).isAtWar(eOtherTeam))
; 588  : 				//{
; 589  : 				int iRating = 99;

	mov	DWORD PTR _iRating$223081[ebp], 99	; 00000063H

; 590  : 				// warn player to back out!
; 591  : 				if(iRating > iMessageRating)

	mov	edx, DWORD PTR _iRating$223081[ebp]
	cmp	edx, DWORD PTR _iMessageRating$223064[ebp]
	jle	$LN283@BuildCouns

; 592  : 				{
; 593  : 					iMessageRating = iRating;

	mov	eax, DWORD PTR _iRating$223081[ebp]
	mov	DWORD PTR _iMessageRating$223064[ebp], eax

; 594  : 					eAdvisor = ADVISOR_MILITARY;

	mov	DWORD PTR _eAdvisor$223065[ebp], 0

; 595  : 					strLoc = Localization::Lookup("TXT_KEY_DIPLOSTRATEGY_WARPROJECTION_DESTRUCTION_WAR");

	push	OFFSET ??_C@_0DE@BNMOIPL@TXT_KEY_DIPLOSTRATEGY_WARPROJECT@
	lea	ecx, DWORD PTR $T224813[ebp]
	push	ecx
	call	DWORD PTR __imp_?Lookup@Localization@@YA?AVString@1@PBD@Z
	add	esp, 8
	mov	DWORD PTR tv4243[ebp], eax
	mov	edx, DWORD PTR tv4243[ebp]
	mov	DWORD PTR tv3714[ebp], edx
	mov	BYTE PTR __$EHRec$[ebp+8], 22		; 00000016H
	mov	eax, DWORD PTR tv3714[ebp]
	push	eax
	lea	ecx, DWORD PTR _strLoc$[ebp]
	call	DWORD PTR __imp_??4String@Localization@@QAEAAV01@ABV01@@Z
	mov	BYTE PTR __$EHRec$[ebp+8], 0
	lea	ecx, DWORD PTR $T224813[ebp]
	call	DWORD PTR __imp_??1String@Localization@@UAE@XZ

; 596  : 					strLoc << GET_PLAYER(eOtherPlayer).getCivilizationInfo().GetTextKey();

	mov	ecx, DWORD PTR _eOtherPlayer$223066[ebp]
	imul	ecx, 63236				; 0000f704H
	add	ecx, DWORD PTR ?m_aPlayers@CvPlayerAI@@1PAV1@A ; CvPlayerAI::m_aPlayers
	mov	DWORD PTR $T225182[ebp], ecx
	mov	ecx, DWORD PTR $T225182[ebp]
	call	?getCivilizationInfo@CvPlayer@@QBEAAVCvCivilizationInfo@@XZ ; CvPlayer::getCivilizationInfo
	mov	ecx, eax
	call	?GetTextKey@CvBaseInfo@@QBEPBDXZ	; CvBaseInfo::GetTextKey
	mov	DWORD PTR $T224814[ebp], eax
	lea	edx, DWORD PTR $T224814[ebp]
	push	edx
	lea	eax, DWORD PTR _strLoc$[ebp]
	push	eax
	call	??$?6PBD@@YAAAVString@Localization@@AAV01@ABQBD@Z ; operator<<<char const *>
	add	esp, 8
$LN283@BuildCouns:

; 597  : 				}
; 598  : 				//}
; 599  : 				//else
; 600  : 				//{
; 601  : 				//	int iRating = 50;
; 602  : 				//	// warn player to avoid
; 603  : 				//	if (iRating > iMessageRating)
; 604  : 				//	{
; 605  : 				//		iMessageRating = iRating;
; 606  : 				//		eAdvisor = ADVISOR_FOREIGN;
; 607  : 				//		strLoc = Localization::Lookup("TXT_KEY_DIPLOSTRATEGY_WARPROJECTION_DESTRUCTION_PEACE");
; 608  : 				//		strLoc << GC.getCivilizationInfo(GET_PLAYER(eOtherPlayer).getCivilizationType())->GetTextKey();
; 609  : 				//	}
; 610  : 				//}
; 611  : 			}
; 612  : 			break;

	jmp	$LN285@BuildCouns
$LN282@BuildCouns:

; 613  : 			case WAR_PROJECTION_DEFEAT:
; 614  : 			{
; 615  : 				//if (GET_TEAM(eTeam).isAtWar(eOtherTeam))
; 616  : 				//{
; 617  : 
; 618  : 				// warn player to back out!
; 619  : 				int iRating = 98;

	mov	DWORD PTR _iRating$223087[ebp], 98	; 00000062H

; 620  : 				if(iRating > iMessageRating)

	mov	ecx, DWORD PTR _iRating$223087[ebp]
	cmp	ecx, DWORD PTR _iMessageRating$223064[ebp]
	jle	$LN281@BuildCouns

; 621  : 				{
; 622  : 					iMessageRating = iRating;

	mov	edx, DWORD PTR _iRating$223087[ebp]
	mov	DWORD PTR _iMessageRating$223064[ebp], edx

; 623  : 					eAdvisor = ADVISOR_MILITARY;

	mov	DWORD PTR _eAdvisor$223065[ebp], 0

; 624  : 					strLoc = Localization::Lookup("TXT_KEY_DIPLOSTRATEGY_WARPROJECTION_DEFEAT_WAR");

	push	OFFSET ??_C@_0CP@JNMDBPML@TXT_KEY_DIPLOSTRATEGY_WARPROJECT@
	lea	eax, DWORD PTR $T224815[ebp]
	push	eax
	call	DWORD PTR __imp_?Lookup@Localization@@YA?AVString@1@PBD@Z
	add	esp, 8
	mov	DWORD PTR tv4242[ebp], eax
	mov	ecx, DWORD PTR tv4242[ebp]
	mov	DWORD PTR tv3716[ebp], ecx
	mov	BYTE PTR __$EHRec$[ebp+8], 23		; 00000017H
	mov	edx, DWORD PTR tv3716[ebp]
	push	edx
	lea	ecx, DWORD PTR _strLoc$[ebp]
	call	DWORD PTR __imp_??4String@Localization@@QAEAAV01@ABV01@@Z
	mov	BYTE PTR __$EHRec$[ebp+8], 0
	lea	ecx, DWORD PTR $T224815[ebp]
	call	DWORD PTR __imp_??1String@Localization@@UAE@XZ

; 625  : 					strLoc << GET_PLAYER(eOtherPlayer).getCivilizationInfo().GetTextKey();

	mov	eax, DWORD PTR _eOtherPlayer$223066[ebp]
	imul	eax, 63236				; 0000f704H
	add	eax, DWORD PTR ?m_aPlayers@CvPlayerAI@@1PAV1@A ; CvPlayerAI::m_aPlayers
	mov	DWORD PTR $T225186[ebp], eax
	mov	ecx, DWORD PTR $T225186[ebp]
	call	?getCivilizationInfo@CvPlayer@@QBEAAVCvCivilizationInfo@@XZ ; CvPlayer::getCivilizationInfo
	mov	ecx, eax
	call	?GetTextKey@CvBaseInfo@@QBEPBDXZ	; CvBaseInfo::GetTextKey
	mov	DWORD PTR $T224816[ebp], eax
	lea	ecx, DWORD PTR $T224816[ebp]
	push	ecx
	lea	edx, DWORD PTR _strLoc$[ebp]
	push	edx
	call	??$?6PBD@@YAAAVString@Localization@@AAV01@ABQBD@Z ; operator<<<char const *>
	add	esp, 8
$LN281@BuildCouns:

; 626  : 				}
; 627  : 
; 628  : 				//}
; 629  : 				//else
; 630  : 				//{
; 631  : 				//	// warn player to avoid
; 632  : 				//	int iRating = 49;
; 633  : 				//	if (iRating > iMessageRating)
; 634  : 				//	{
; 635  : 				//		iMessageRating = iRating;
; 636  : 				//		eAdvisor = ADVISOR_MILITARY;
; 637  : 				//		strLoc = Localization::Lookup("TXT_KEY_DIPLOSTRATEGY_WARPROJECTION_DEFEAT_PEACE");
; 638  : 				//		strLoc << GC.getCivilizationInfo(GET_PLAYER(eOtherPlayer).getCivilizationType())->GetTextKey();
; 639  : 				//	}
; 640  : 				//}
; 641  : 			}
; 642  : 			break;

	jmp	$LN285@BuildCouns
$LN280@BuildCouns:

; 643  : 			case WAR_PROJECTION_UNKNOWN:
; 644  : 			case WAR_PROJECTION_STALEMATE:
; 645  : 			{
; 646  : 				//if (GET_TEAM(eTeam).isAtWar(eOtherTeam))
; 647  : 				//{
; 648  : 
; 649  : 				// even fight
; 650  : 				int iRating = 97;

	mov	DWORD PTR _iRating$223093[ebp], 97	; 00000061H

; 651  : 				if(iRating > iMessageRating)

	mov	eax, DWORD PTR _iRating$223093[ebp]
	cmp	eax, DWORD PTR _iMessageRating$223064[ebp]
	jle	$LN279@BuildCouns

; 652  : 				{
; 653  : 					iMessageRating = iRating;

	mov	ecx, DWORD PTR _iRating$223093[ebp]
	mov	DWORD PTR _iMessageRating$223064[ebp], ecx

; 654  : 					eAdvisor = ADVISOR_MILITARY;

	mov	DWORD PTR _eAdvisor$223065[ebp], 0

; 655  : 					strLoc = Localization::Lookup("TXT_KEY_DIPLOSTRATEGY_WARPROJECTION_STALEMATE_WAR");

	push	OFFSET ??_C@_0DC@KKKJNOBI@TXT_KEY_DIPLOSTRATEGY_WARPROJECT@
	lea	edx, DWORD PTR $T224817[ebp]
	push	edx
	call	DWORD PTR __imp_?Lookup@Localization@@YA?AVString@1@PBD@Z
	add	esp, 8
	mov	DWORD PTR tv4241[ebp], eax
	mov	eax, DWORD PTR tv4241[ebp]
	mov	DWORD PTR tv3718[ebp], eax
	mov	BYTE PTR __$EHRec$[ebp+8], 24		; 00000018H
	mov	ecx, DWORD PTR tv3718[ebp]
	push	ecx
	lea	ecx, DWORD PTR _strLoc$[ebp]
	call	DWORD PTR __imp_??4String@Localization@@QAEAAV01@ABV01@@Z
	mov	BYTE PTR __$EHRec$[ebp+8], 0
	lea	ecx, DWORD PTR $T224817[ebp]
	call	DWORD PTR __imp_??1String@Localization@@UAE@XZ

; 656  : 					strLoc << GET_PLAYER(eOtherPlayer).getCivilizationInfo().GetTextKey();

	mov	edx, DWORD PTR _eOtherPlayer$223066[ebp]
	imul	edx, 63236				; 0000f704H
	add	edx, DWORD PTR ?m_aPlayers@CvPlayerAI@@1PAV1@A ; CvPlayerAI::m_aPlayers
	mov	DWORD PTR $T225190[ebp], edx
	mov	ecx, DWORD PTR $T225190[ebp]
	call	?getCivilizationInfo@CvPlayer@@QBEAAVCvCivilizationInfo@@XZ ; CvPlayer::getCivilizationInfo
	mov	ecx, eax
	call	?GetTextKey@CvBaseInfo@@QBEPBDXZ	; CvBaseInfo::GetTextKey
	mov	DWORD PTR $T224818[ebp], eax
	lea	eax, DWORD PTR $T224818[ebp]
	push	eax
	lea	ecx, DWORD PTR _strLoc$[ebp]
	push	ecx
	call	??$?6PBD@@YAAAVString@Localization@@AAV01@ABQBD@Z ; operator<<<char const *>
	add	esp, 8
$LN279@BuildCouns:

; 657  : 				}
; 658  : 
; 659  : 				//}
; 660  : 				//else
; 661  : 				//{
; 662  : 				//	// no warning for other states
; 663  : 				//}
; 664  : 			}
; 665  : 			break;

	jmp	$LN285@BuildCouns
$LN278@BuildCouns:

; 666  : 			case WAR_PROJECTION_GOOD:
; 667  : 			{
; 668  : 				//if (GET_TEAM(eTeam).isAtWar(eOtherTeam))
; 669  : 				//{
; 670  : 
; 671  : 				// things are going well!
; 672  : 				int iRating = 96;

	mov	DWORD PTR _iRating$223099[ebp], 96	; 00000060H

; 673  : 				if(iRating > iMessageRating)

	mov	edx, DWORD PTR _iRating$223099[ebp]
	cmp	edx, DWORD PTR _iMessageRating$223064[ebp]
	jle	$LN277@BuildCouns

; 674  : 				{
; 675  : 					iMessageRating = iRating;

	mov	eax, DWORD PTR _iRating$223099[ebp]
	mov	DWORD PTR _iMessageRating$223064[ebp], eax

; 676  : 					eAdvisor = ADVISOR_MILITARY;

	mov	DWORD PTR _eAdvisor$223065[ebp], 0

; 677  : 					strLoc = Localization::Lookup("TXT_KEY_DIPLOSTRATEGY_WARPROJECTION_GOOD_WAR");

	push	OFFSET ??_C@_0CN@DIJHOCMG@TXT_KEY_DIPLOSTRATEGY_WARPROJECT@
	lea	ecx, DWORD PTR $T224819[ebp]
	push	ecx
	call	DWORD PTR __imp_?Lookup@Localization@@YA?AVString@1@PBD@Z
	add	esp, 8
	mov	DWORD PTR tv4240[ebp], eax
	mov	edx, DWORD PTR tv4240[ebp]
	mov	DWORD PTR tv3720[ebp], edx
	mov	BYTE PTR __$EHRec$[ebp+8], 25		; 00000019H
	mov	eax, DWORD PTR tv3720[ebp]
	push	eax
	lea	ecx, DWORD PTR _strLoc$[ebp]
	call	DWORD PTR __imp_??4String@Localization@@QAEAAV01@ABV01@@Z
	mov	BYTE PTR __$EHRec$[ebp+8], 0
	lea	ecx, DWORD PTR $T224819[ebp]
	call	DWORD PTR __imp_??1String@Localization@@UAE@XZ

; 678  : 					strLoc << GET_PLAYER(eOtherPlayer).getCivilizationInfo().GetTextKey();

	mov	ecx, DWORD PTR _eOtherPlayer$223066[ebp]
	imul	ecx, 63236				; 0000f704H
	add	ecx, DWORD PTR ?m_aPlayers@CvPlayerAI@@1PAV1@A ; CvPlayerAI::m_aPlayers
	mov	DWORD PTR $T225194[ebp], ecx
	mov	ecx, DWORD PTR $T225194[ebp]
	call	?getCivilizationInfo@CvPlayer@@QBEAAVCvCivilizationInfo@@XZ ; CvPlayer::getCivilizationInfo
	mov	ecx, eax
	call	?GetTextKey@CvBaseInfo@@QBEPBDXZ	; CvBaseInfo::GetTextKey
	mov	DWORD PTR $T224820[ebp], eax
	lea	edx, DWORD PTR $T224820[ebp]
	push	edx
	lea	eax, DWORD PTR _strLoc$[ebp]
	push	eax
	call	??$?6PBD@@YAAAVString@Localization@@AAV01@ABQBD@Z ; operator<<<char const *>
	add	esp, 8
$LN277@BuildCouns:

; 679  : 				}
; 680  : 
; 681  : 				//}
; 682  : 				//else
; 683  : 				//{
; 684  : 				//	// we could rough them up
; 685  : 				//	int iRating = 48;
; 686  : 				//	if (iRating > iMessageRating)
; 687  : 				//	{
; 688  : 				//		iMessageRating = iRating;
; 689  : 				//		eAdvisor = ADVISOR_FOREIGN;
; 690  : 				//		strLoc = Localization::Lookup("TXT_KEY_DIPLOSTRATEGY_WARPROJECTION_GOOD_PEACE");
; 691  : 				//		strLoc << GC.getCivilizationInfo(GET_PLAYER(eOtherPlayer).getCivilizationType())->GetTextKey();
; 692  : 				//	}
; 693  : 				//}
; 694  : 			}
; 695  : 			break;

	jmp	$LN285@BuildCouns
$LN276@BuildCouns:

; 696  : 			case WAR_PROJECTION_VERY_GOOD:
; 697  : 			{
; 698  : 				//if (GET_TEAM(eTeam).isAtWar(eOtherTeam))
; 699  : 				//{
; 700  : 
; 701  : 				// things are going very well!
; 702  : 				int iRating = 97;

	mov	DWORD PTR _iRating$223105[ebp], 97	; 00000061H

; 703  : 				if(iRating > iMessageRating)

	mov	ecx, DWORD PTR _iRating$223105[ebp]
	cmp	ecx, DWORD PTR _iMessageRating$223064[ebp]
	jle	$LN285@BuildCouns

; 704  : 				{
; 705  : 					iMessageRating = iRating;

	mov	edx, DWORD PTR _iRating$223105[ebp]
	mov	DWORD PTR _iMessageRating$223064[ebp], edx

; 706  : 					eAdvisor = ADVISOR_MILITARY;

	mov	DWORD PTR _eAdvisor$223065[ebp], 0

; 707  : 					strLoc = Localization::Lookup("TXT_KEY_DIPLOSTRATEGY_WARPROJECTION_VERY_GOOD_WAR");

	push	OFFSET ??_C@_0DC@PNBBAKLD@TXT_KEY_DIPLOSTRATEGY_WARPROJECT@
	lea	eax, DWORD PTR $T224821[ebp]
	push	eax
	call	DWORD PTR __imp_?Lookup@Localization@@YA?AVString@1@PBD@Z
	add	esp, 8
	mov	DWORD PTR tv4239[ebp], eax
	mov	ecx, DWORD PTR tv4239[ebp]
	mov	DWORD PTR tv3722[ebp], ecx
	mov	BYTE PTR __$EHRec$[ebp+8], 26		; 0000001aH
	mov	edx, DWORD PTR tv3722[ebp]
	push	edx
	lea	ecx, DWORD PTR _strLoc$[ebp]
	call	DWORD PTR __imp_??4String@Localization@@QAEAAV01@ABV01@@Z
	mov	BYTE PTR __$EHRec$[ebp+8], 0
	lea	ecx, DWORD PTR $T224821[ebp]
	call	DWORD PTR __imp_??1String@Localization@@UAE@XZ

; 708  : 					strLoc << GET_PLAYER(eOtherPlayer).getCivilizationInfo().GetTextKey();

	mov	eax, DWORD PTR _eOtherPlayer$223066[ebp]
	imul	eax, 63236				; 0000f704H
	add	eax, DWORD PTR ?m_aPlayers@CvPlayerAI@@1PAV1@A ; CvPlayerAI::m_aPlayers
	mov	DWORD PTR $T225198[ebp], eax
	mov	ecx, DWORD PTR $T225198[ebp]
	call	?getCivilizationInfo@CvPlayer@@QBEAAVCvCivilizationInfo@@XZ ; CvPlayer::getCivilizationInfo
	mov	ecx, eax
	call	?GetTextKey@CvBaseInfo@@QBEPBDXZ	; CvBaseInfo::GetTextKey
	mov	DWORD PTR $T224822[ebp], eax
	lea	ecx, DWORD PTR $T224822[ebp]
	push	ecx
	lea	edx, DWORD PTR _strLoc$[ebp]
	push	edx
	call	??$?6PBD@@YAAAVString@Localization@@AAV01@ABQBD@Z ; operator<<<char const *>
	add	esp, 8
$LN285@BuildCouns:

; 709  : 				}
; 710  : 
; 711  : 				//}
; 712  : 				//else
; 713  : 				//{
; 714  : 				//	// we could take these guys
; 715  : 				//	int iRating = 97;
; 716  : 				//	if (iRating > iMessageRating)
; 717  : 				//	{
; 718  : 				//		iMessageRating = iRating;
; 719  : 				//		eAdvisor = ADVISOR_FOREIGN;
; 720  : 				//		strLoc = Localization::Lookup("TXT_KEY_DIPLOSTRATEGY_WARPROJECTION_VERY_GOOD_PEACE");
; 721  : 				//		strLoc << GC.getCivilizationInfo(GET_PLAYER(eOtherPlayer).getCivilizationType())->GetTextKey();
; 722  : 				//	}
; 723  : 				//}
; 724  : 			}
; 725  : 			break;
; 726  : 			}
; 727  : 		}
; 728  : 		else // not at war

	jmp	$LN274@BuildCouns
$LN287@BuildCouns:

; 729  : 		{
; 730  : 			switch(eMilitaryStrengthComparedToUs)

	mov	eax, DWORD PTR _eMilitaryStrengthComparedToUs$223074[ebp]
	mov	DWORD PTR tv1407[ebp], eax
	cmp	DWORD PTR tv1407[ebp], 6
	ja	$LN274@BuildCouns
	mov	ecx, DWORD PTR tv1407[ebp]
	jmp	DWORD PTR $LN1055@BuildCouns[ecx*4]
$LN271@BuildCouns:

; 731  : 			{
; 732  : 			case STRENGTH_PATHETIC:
; 733  : 			{
; 734  : 				int iRating = 60;

	mov	DWORD PTR _iRating$223116[ebp], 60	; 0000003cH

; 735  : 				if(iRating > iMessageRating)

	mov	edx, DWORD PTR _iRating$223116[ebp]
	cmp	edx, DWORD PTR _iMessageRating$223064[ebp]
	jle	$LN270@BuildCouns

; 736  : 				{
; 737  : 					iMessageRating = iRating;

	mov	eax, DWORD PTR _iRating$223116[ebp]
	mov	DWORD PTR _iMessageRating$223064[ebp], eax

; 738  : 					eAdvisor = ADVISOR_MILITARY;

	mov	DWORD PTR _eAdvisor$223065[ebp], 0

; 739  : 					strLoc = Localization::Lookup("TXT_KEY_DIPLOSTRATEGY_MILITARY_STRENGTH_COMPARED_TO_US_PATHETIC");

	push	OFFSET ??_C@_0EA@CJGOBHIC@TXT_KEY_DIPLOSTRATEGY_MILITARY_S@
	lea	ecx, DWORD PTR $T224823[ebp]
	push	ecx
	call	DWORD PTR __imp_?Lookup@Localization@@YA?AVString@1@PBD@Z
	add	esp, 8
	mov	DWORD PTR tv4238[ebp], eax
	mov	edx, DWORD PTR tv4238[ebp]
	mov	DWORD PTR tv3724[ebp], edx
	mov	BYTE PTR __$EHRec$[ebp+8], 27		; 0000001bH
	mov	eax, DWORD PTR tv3724[ebp]
	push	eax
	lea	ecx, DWORD PTR _strLoc$[ebp]
	call	DWORD PTR __imp_??4String@Localization@@QAEAAV01@ABV01@@Z
	mov	BYTE PTR __$EHRec$[ebp+8], 0
	lea	ecx, DWORD PTR $T224823[ebp]
	call	DWORD PTR __imp_??1String@Localization@@UAE@XZ

; 740  : 					strLoc << GET_PLAYER(eOtherPlayer).getCivilizationInfo().GetTextKey();

	mov	ecx, DWORD PTR _eOtherPlayer$223066[ebp]
	imul	ecx, 63236				; 0000f704H
	add	ecx, DWORD PTR ?m_aPlayers@CvPlayerAI@@1PAV1@A ; CvPlayerAI::m_aPlayers
	mov	DWORD PTR $T225202[ebp], ecx
	mov	ecx, DWORD PTR $T225202[ebp]
	call	?getCivilizationInfo@CvPlayer@@QBEAAVCvCivilizationInfo@@XZ ; CvPlayer::getCivilizationInfo
	mov	ecx, eax
	call	?GetTextKey@CvBaseInfo@@QBEPBDXZ	; CvBaseInfo::GetTextKey
	mov	DWORD PTR $T224824[ebp], eax
	lea	edx, DWORD PTR $T224824[ebp]
	push	edx
	lea	eax, DWORD PTR _strLoc$[ebp]
	push	eax
	call	??$?6PBD@@YAAAVString@Localization@@AAV01@ABQBD@Z ; operator<<<char const *>
	add	esp, 8
$LN270@BuildCouns:

; 741  : 				}
; 742  : 			}
; 743  : 			break;

	jmp	$LN274@BuildCouns
$LN269@BuildCouns:

; 744  : 			case STRENGTH_WEAK:
; 745  : 			{
; 746  : 				int iRating = 50;

	mov	DWORD PTR _iRating$223122[ebp], 50	; 00000032H

; 747  : 				if(iRating > iMessageRating)

	mov	ecx, DWORD PTR _iRating$223122[ebp]
	cmp	ecx, DWORD PTR _iMessageRating$223064[ebp]
	jle	$LN268@BuildCouns

; 748  : 				{
; 749  : 					iMessageRating = iRating;

	mov	edx, DWORD PTR _iRating$223122[ebp]
	mov	DWORD PTR _iMessageRating$223064[ebp], edx

; 750  : 					eAdvisor = ADVISOR_MILITARY;

	mov	DWORD PTR _eAdvisor$223065[ebp], 0

; 751  : 					strLoc = Localization::Lookup("TXT_KEY_DIPLOSTRATEGY_MILITARY_STRENGTH_COMPARED_TO_US_WEAK");

	push	OFFSET ??_C@_0DM@PLNLPOLO@TXT_KEY_DIPLOSTRATEGY_MILITARY_S@
	lea	eax, DWORD PTR $T224825[ebp]
	push	eax
	call	DWORD PTR __imp_?Lookup@Localization@@YA?AVString@1@PBD@Z
	add	esp, 8
	mov	DWORD PTR tv4237[ebp], eax
	mov	ecx, DWORD PTR tv4237[ebp]
	mov	DWORD PTR tv3726[ebp], ecx
	mov	BYTE PTR __$EHRec$[ebp+8], 28		; 0000001cH
	mov	edx, DWORD PTR tv3726[ebp]
	push	edx
	lea	ecx, DWORD PTR _strLoc$[ebp]
	call	DWORD PTR __imp_??4String@Localization@@QAEAAV01@ABV01@@Z
	mov	BYTE PTR __$EHRec$[ebp+8], 0
	lea	ecx, DWORD PTR $T224825[ebp]
	call	DWORD PTR __imp_??1String@Localization@@UAE@XZ

; 752  : 					strLoc << GET_PLAYER(eOtherPlayer).getCivilizationInfo().GetTextKey();

	mov	eax, DWORD PTR _eOtherPlayer$223066[ebp]
	imul	eax, 63236				; 0000f704H
	add	eax, DWORD PTR ?m_aPlayers@CvPlayerAI@@1PAV1@A ; CvPlayerAI::m_aPlayers
	mov	DWORD PTR $T225206[ebp], eax
	mov	ecx, DWORD PTR $T225206[ebp]
	call	?getCivilizationInfo@CvPlayer@@QBEAAVCvCivilizationInfo@@XZ ; CvPlayer::getCivilizationInfo
	mov	ecx, eax
	call	?GetTextKey@CvBaseInfo@@QBEPBDXZ	; CvBaseInfo::GetTextKey
	mov	DWORD PTR $T224826[ebp], eax
	lea	ecx, DWORD PTR $T224826[ebp]
	push	ecx
	lea	edx, DWORD PTR _strLoc$[ebp]
	push	edx
	call	??$?6PBD@@YAAAVString@Localization@@AAV01@ABQBD@Z ; operator<<<char const *>
	add	esp, 8
$LN268@BuildCouns:

; 753  : 				}
; 754  : 			}
; 755  : 			break;

	jmp	$LN274@BuildCouns
$LN267@BuildCouns:

; 756  : 			case STRENGTH_POOR:
; 757  : 			{
; 758  : 				int iRating = 45;

	mov	DWORD PTR _iRating$223128[ebp], 45	; 0000002dH

; 759  : 				if(iRating > iMessageRating)

	mov	eax, DWORD PTR _iRating$223128[ebp]
	cmp	eax, DWORD PTR _iMessageRating$223064[ebp]
	jle	$LN266@BuildCouns

; 760  : 				{
; 761  : 					iMessageRating = iRating;

	mov	ecx, DWORD PTR _iRating$223128[ebp]
	mov	DWORD PTR _iMessageRating$223064[ebp], ecx

; 762  : 					eAdvisor = ADVISOR_MILITARY;

	mov	DWORD PTR _eAdvisor$223065[ebp], 0

; 763  : 					strLoc = Localization::Lookup("TXT_KEY_DIPLOSTRATEGY_MILITARY_STRENGTH_COMPARED_TO_US_POOR");

	push	OFFSET ??_C@_0DM@LHNIEGNI@TXT_KEY_DIPLOSTRATEGY_MILITARY_S@
	lea	edx, DWORD PTR $T224827[ebp]
	push	edx
	call	DWORD PTR __imp_?Lookup@Localization@@YA?AVString@1@PBD@Z
	add	esp, 8
	mov	DWORD PTR tv4236[ebp], eax
	mov	eax, DWORD PTR tv4236[ebp]
	mov	DWORD PTR tv3728[ebp], eax
	mov	BYTE PTR __$EHRec$[ebp+8], 29		; 0000001dH
	mov	ecx, DWORD PTR tv3728[ebp]
	push	ecx
	lea	ecx, DWORD PTR _strLoc$[ebp]
	call	DWORD PTR __imp_??4String@Localization@@QAEAAV01@ABV01@@Z
	mov	BYTE PTR __$EHRec$[ebp+8], 0
	lea	ecx, DWORD PTR $T224827[ebp]
	call	DWORD PTR __imp_??1String@Localization@@UAE@XZ

; 764  : 					strLoc << GET_PLAYER(eOtherPlayer).getCivilizationInfo().GetTextKey();

	mov	edx, DWORD PTR _eOtherPlayer$223066[ebp]
	imul	edx, 63236				; 0000f704H
	add	edx, DWORD PTR ?m_aPlayers@CvPlayerAI@@1PAV1@A ; CvPlayerAI::m_aPlayers
	mov	DWORD PTR $T225210[ebp], edx
	mov	ecx, DWORD PTR $T225210[ebp]
	call	?getCivilizationInfo@CvPlayer@@QBEAAVCvCivilizationInfo@@XZ ; CvPlayer::getCivilizationInfo
	mov	ecx, eax
	call	?GetTextKey@CvBaseInfo@@QBEPBDXZ	; CvBaseInfo::GetTextKey
	mov	DWORD PTR $T224828[ebp], eax
	lea	eax, DWORD PTR $T224828[ebp]
	push	eax
	lea	ecx, DWORD PTR _strLoc$[ebp]
	push	ecx
	call	??$?6PBD@@YAAAVString@Localization@@AAV01@ABQBD@Z ; operator<<<char const *>
	add	esp, 8
$LN266@BuildCouns:

; 765  : 				}
; 766  : 			}
; 767  : 			break;

	jmp	$LN274@BuildCouns
$LN265@BuildCouns:

; 768  : 			case STRENGTH_AVERAGE:
; 769  : 			{
; 770  : 				int iRating = 40;

	mov	DWORD PTR _iRating$223134[ebp], 40	; 00000028H

; 771  : 				if(iRating > iMessageRating)

	mov	edx, DWORD PTR _iRating$223134[ebp]
	cmp	edx, DWORD PTR _iMessageRating$223064[ebp]
	jle	$LN264@BuildCouns

; 772  : 				{
; 773  : 					iMessageRating = iRating;

	mov	eax, DWORD PTR _iRating$223134[ebp]
	mov	DWORD PTR _iMessageRating$223064[ebp], eax

; 774  : 					eAdvisor = ADVISOR_MILITARY;

	mov	DWORD PTR _eAdvisor$223065[ebp], 0

; 775  : 					strLoc = Localization::Lookup("TXT_KEY_DIPLOSTRATEGY_MILITARY_STRENGTH_COMPARED_TO_US_AVERAGE");

	push	OFFSET ??_C@_0DP@JFAOACMJ@TXT_KEY_DIPLOSTRATEGY_MILITARY_S@
	lea	ecx, DWORD PTR $T224829[ebp]
	push	ecx
	call	DWORD PTR __imp_?Lookup@Localization@@YA?AVString@1@PBD@Z
	add	esp, 8
	mov	DWORD PTR tv4235[ebp], eax
	mov	edx, DWORD PTR tv4235[ebp]
	mov	DWORD PTR tv3730[ebp], edx
	mov	BYTE PTR __$EHRec$[ebp+8], 30		; 0000001eH
	mov	eax, DWORD PTR tv3730[ebp]
	push	eax
	lea	ecx, DWORD PTR _strLoc$[ebp]
	call	DWORD PTR __imp_??4String@Localization@@QAEAAV01@ABV01@@Z
	mov	BYTE PTR __$EHRec$[ebp+8], 0
	lea	ecx, DWORD PTR $T224829[ebp]
	call	DWORD PTR __imp_??1String@Localization@@UAE@XZ

; 776  : 					strLoc << GET_PLAYER(eOtherPlayer).getCivilizationInfo().GetTextKey();

	mov	ecx, DWORD PTR _eOtherPlayer$223066[ebp]
	imul	ecx, 63236				; 0000f704H
	add	ecx, DWORD PTR ?m_aPlayers@CvPlayerAI@@1PAV1@A ; CvPlayerAI::m_aPlayers
	mov	DWORD PTR $T225214[ebp], ecx
	mov	ecx, DWORD PTR $T225214[ebp]
	call	?getCivilizationInfo@CvPlayer@@QBEAAVCvCivilizationInfo@@XZ ; CvPlayer::getCivilizationInfo
	mov	ecx, eax
	call	?GetTextKey@CvBaseInfo@@QBEPBDXZ	; CvBaseInfo::GetTextKey
	mov	DWORD PTR $T224830[ebp], eax
	lea	edx, DWORD PTR $T224830[ebp]
	push	edx
	lea	eax, DWORD PTR _strLoc$[ebp]
	push	eax
	call	??$?6PBD@@YAAAVString@Localization@@AAV01@ABQBD@Z ; operator<<<char const *>
	add	esp, 8
$LN264@BuildCouns:

; 777  : 				}
; 778  : 			}
; 779  : 			break;

	jmp	$LN274@BuildCouns
$LN263@BuildCouns:

; 780  : 			case STRENGTH_STRONG:
; 781  : 			{
; 782  : 				int iRating = 45;

	mov	DWORD PTR _iRating$223140[ebp], 45	; 0000002dH

; 783  : 				if(iRating > iMessageRating)

	mov	ecx, DWORD PTR _iRating$223140[ebp]
	cmp	ecx, DWORD PTR _iMessageRating$223064[ebp]
	jle	$LN262@BuildCouns

; 784  : 				{
; 785  : 					iMessageRating = iRating;

	mov	edx, DWORD PTR _iRating$223140[ebp]
	mov	DWORD PTR _iMessageRating$223064[ebp], edx

; 786  : 					eAdvisor = ADVISOR_MILITARY;

	mov	DWORD PTR _eAdvisor$223065[ebp], 0

; 787  : 					strLoc = Localization::Lookup("TXT_KEY_DIPLOSTRATEGY_MILITARY_STRENGTH_COMPARED_TO_US_STRONG");

	push	OFFSET ??_C@_0DO@HBJIFBNG@TXT_KEY_DIPLOSTRATEGY_MILITARY_S@
	lea	eax, DWORD PTR $T224831[ebp]
	push	eax
	call	DWORD PTR __imp_?Lookup@Localization@@YA?AVString@1@PBD@Z
	add	esp, 8
	mov	DWORD PTR tv4234[ebp], eax
	mov	ecx, DWORD PTR tv4234[ebp]
	mov	DWORD PTR tv3732[ebp], ecx
	mov	BYTE PTR __$EHRec$[ebp+8], 31		; 0000001fH
	mov	edx, DWORD PTR tv3732[ebp]
	push	edx
	lea	ecx, DWORD PTR _strLoc$[ebp]
	call	DWORD PTR __imp_??4String@Localization@@QAEAAV01@ABV01@@Z
	mov	BYTE PTR __$EHRec$[ebp+8], 0
	lea	ecx, DWORD PTR $T224831[ebp]
	call	DWORD PTR __imp_??1String@Localization@@UAE@XZ

; 788  : 					strLoc << GET_PLAYER(eOtherPlayer).getCivilizationInfo().GetTextKey();

	mov	eax, DWORD PTR _eOtherPlayer$223066[ebp]
	imul	eax, 63236				; 0000f704H
	add	eax, DWORD PTR ?m_aPlayers@CvPlayerAI@@1PAV1@A ; CvPlayerAI::m_aPlayers
	mov	DWORD PTR $T225218[ebp], eax
	mov	ecx, DWORD PTR $T225218[ebp]
	call	?getCivilizationInfo@CvPlayer@@QBEAAVCvCivilizationInfo@@XZ ; CvPlayer::getCivilizationInfo
	mov	ecx, eax
	call	?GetTextKey@CvBaseInfo@@QBEPBDXZ	; CvBaseInfo::GetTextKey
	mov	DWORD PTR $T224832[ebp], eax
	lea	ecx, DWORD PTR $T224832[ebp]
	push	ecx
	lea	edx, DWORD PTR _strLoc$[ebp]
	push	edx
	call	??$?6PBD@@YAAAVString@Localization@@AAV01@ABQBD@Z ; operator<<<char const *>
	add	esp, 8
$LN262@BuildCouns:

; 789  : 				}
; 790  : 			}
; 791  : 			break;

	jmp	$LN274@BuildCouns
$LN261@BuildCouns:

; 792  : 			case STRENGTH_POWERFUL:
; 793  : 			{
; 794  : 				int iRating = 80;

	mov	DWORD PTR _iRating$223146[ebp], 80	; 00000050H

; 795  : 				if(iRating > iMessageRating)

	mov	eax, DWORD PTR _iRating$223146[ebp]
	cmp	eax, DWORD PTR _iMessageRating$223064[ebp]
	jle	$LN260@BuildCouns

; 796  : 				{
; 797  : 					iMessageRating = iRating;

	mov	ecx, DWORD PTR _iRating$223146[ebp]
	mov	DWORD PTR _iMessageRating$223064[ebp], ecx

; 798  : 					eAdvisor = ADVISOR_MILITARY;

	mov	DWORD PTR _eAdvisor$223065[ebp], 0

; 799  : 					strLoc = Localization::Lookup("TXT_KEY_DIPLOSTRATEGY_MILITARY_STRENGTH_COMPARED_TO_US_POWERFUL");

	push	OFFSET ??_C@_0EA@LOGJOKO@TXT_KEY_DIPLOSTRATEGY_MILITARY_S@
	lea	edx, DWORD PTR $T224833[ebp]
	push	edx
	call	DWORD PTR __imp_?Lookup@Localization@@YA?AVString@1@PBD@Z
	add	esp, 8
	mov	DWORD PTR tv4233[ebp], eax
	mov	eax, DWORD PTR tv4233[ebp]
	mov	DWORD PTR tv3734[ebp], eax
	mov	BYTE PTR __$EHRec$[ebp+8], 32		; 00000020H
	mov	ecx, DWORD PTR tv3734[ebp]
	push	ecx
	lea	ecx, DWORD PTR _strLoc$[ebp]
	call	DWORD PTR __imp_??4String@Localization@@QAEAAV01@ABV01@@Z
	mov	BYTE PTR __$EHRec$[ebp+8], 0
	lea	ecx, DWORD PTR $T224833[ebp]
	call	DWORD PTR __imp_??1String@Localization@@UAE@XZ

; 800  : 					strLoc << GET_PLAYER(eOtherPlayer).getCivilizationInfo().GetTextKey();

	mov	edx, DWORD PTR _eOtherPlayer$223066[ebp]
	imul	edx, 63236				; 0000f704H
	add	edx, DWORD PTR ?m_aPlayers@CvPlayerAI@@1PAV1@A ; CvPlayerAI::m_aPlayers
	mov	DWORD PTR $T225222[ebp], edx
	mov	ecx, DWORD PTR $T225222[ebp]
	call	?getCivilizationInfo@CvPlayer@@QBEAAVCvCivilizationInfo@@XZ ; CvPlayer::getCivilizationInfo
	mov	ecx, eax
	call	?GetTextKey@CvBaseInfo@@QBEPBDXZ	; CvBaseInfo::GetTextKey
	mov	DWORD PTR $T224834[ebp], eax
	lea	eax, DWORD PTR $T224834[ebp]
	push	eax
	lea	ecx, DWORD PTR _strLoc$[ebp]
	push	ecx
	call	??$?6PBD@@YAAAVString@Localization@@AAV01@ABQBD@Z ; operator<<<char const *>
	add	esp, 8
$LN260@BuildCouns:

; 801  : 				}
; 802  : 			}
; 803  : 			break;

	jmp	$LN274@BuildCouns
$LN259@BuildCouns:

; 804  : 			case STRENGTH_IMMENSE:
; 805  : 			{
; 806  : 				int iRating = 90;

	mov	DWORD PTR _iRating$223152[ebp], 90	; 0000005aH

; 807  : 				if(iRating > iMessageRating)

	mov	edx, DWORD PTR _iRating$223152[ebp]
	cmp	edx, DWORD PTR _iMessageRating$223064[ebp]
	jle	$LN274@BuildCouns

; 808  : 				{
; 809  : 					iMessageRating = iRating;

	mov	eax, DWORD PTR _iRating$223152[ebp]
	mov	DWORD PTR _iMessageRating$223064[ebp], eax

; 810  : 					eAdvisor = ADVISOR_MILITARY;

	mov	DWORD PTR _eAdvisor$223065[ebp], 0

; 811  : 					strLoc = Localization::Lookup("TXT_KEY_DIPLOSTRATEGY_MILITARY_STRENGTH_COMPARED_TO_US_IMMENSE");

	push	OFFSET ??_C@_0DP@FOONADEN@TXT_KEY_DIPLOSTRATEGY_MILITARY_S@
	lea	ecx, DWORD PTR $T224835[ebp]
	push	ecx
	call	DWORD PTR __imp_?Lookup@Localization@@YA?AVString@1@PBD@Z
	add	esp, 8
	mov	DWORD PTR tv4228[ebp], eax
	mov	edx, DWORD PTR tv4228[ebp]
	mov	DWORD PTR tv3736[ebp], edx
	mov	BYTE PTR __$EHRec$[ebp+8], 33		; 00000021H
	mov	eax, DWORD PTR tv3736[ebp]
	push	eax
	lea	ecx, DWORD PTR _strLoc$[ebp]
	call	DWORD PTR __imp_??4String@Localization@@QAEAAV01@ABV01@@Z
	mov	BYTE PTR __$EHRec$[ebp+8], 0
	lea	ecx, DWORD PTR $T224835[ebp]
	call	DWORD PTR __imp_??1String@Localization@@UAE@XZ

; 812  : 					strLoc << GET_PLAYER(eOtherPlayer).getCivilizationInfo().GetTextKey();

	mov	ecx, DWORD PTR _eOtherPlayer$223066[ebp]
	imul	ecx, 63236				; 0000f704H
	add	ecx, DWORD PTR ?m_aPlayers@CvPlayerAI@@1PAV1@A ; CvPlayerAI::m_aPlayers
	mov	DWORD PTR $T225226[ebp], ecx
	mov	ecx, DWORD PTR $T225226[ebp]
	call	?getCivilizationInfo@CvPlayer@@QBEAAVCvCivilizationInfo@@XZ ; CvPlayer::getCivilizationInfo
	mov	ecx, eax
	call	?GetTextKey@CvBaseInfo@@QBEPBDXZ	; CvBaseInfo::GetTextKey
	mov	DWORD PTR $T224836[ebp], eax
	lea	edx, DWORD PTR $T224836[ebp]
	push	edx
	lea	eax, DWORD PTR _strLoc$[ebp]
	push	eax
	call	??$?6PBD@@YAAAVString@Localization@@AAV01@ABQBD@Z ; operator<<<char const *>
	add	esp, 8
$LN274@BuildCouns:

; 813  : 				}
; 814  : 			}
; 815  : 			break;
; 816  : 			}
; 817  : 		}
; 818  : 
; 819  : 		// look at get military posture
; 820  : 		AggressivePostureTypes eMilitaryAggressivePostureTypes = pDiplomacyAI->GetMilitaryAggressivePosture(eOtherPlayer);

	mov	ecx, DWORD PTR _eOtherPlayer$223066[ebp]
	push	ecx
	mov	ecx, DWORD PTR _pDiplomacyAI$[ebp]
	call	?GetMilitaryAggressivePosture@CvDiplomacyAI@@QBE?AW4AggressivePostureTypes@@W4PlayerTypes@@@Z ; CvDiplomacyAI::GetMilitaryAggressivePosture
	mov	DWORD PTR _eMilitaryAggressivePostureTypes$223157[ebp], eax

; 821  : 		if(!GET_TEAM(eTeam).isAtWar(eOtherTeam))

	mov	edx, DWORD PTR _eTeam$[ebp]
	imul	edx, 2984				; 00000ba8H
	add	edx, DWORD PTR ?m_aTeams@CvTeam@@1PAV1@A ; CvTeam::m_aTeams
	mov	DWORD PTR $T225230[ebp], edx
	mov	eax, DWORD PTR _eOtherTeam$223068[ebp]
	push	eax
	mov	ecx, DWORD PTR $T225230[ebp]
	call	?isAtWar@CvTeam@@QBE_NW4TeamTypes@@@Z	; CvTeam::isAtWar
	movzx	ecx, al
	test	ecx, ecx
	jne	$LN257@BuildCouns

; 822  : 		{
; 823  : 			switch(eMilitaryAggressivePostureTypes)

	mov	edx, DWORD PTR _eMilitaryAggressivePostureTypes$223157[ebp]
	mov	DWORD PTR tv1619[ebp], edx
	cmp	DWORD PTR tv1619[ebp], 2
	je	SHORT $LN252@BuildCouns
	cmp	DWORD PTR tv1619[ebp], 3
	je	$LN250@BuildCouns
	cmp	DWORD PTR tv1619[ebp], 4
	je	$LN248@BuildCouns
	jmp	$LN257@BuildCouns

; 824  : 			{
; 825  : 			case AGGRESSIVE_POSTURE_NONE:
; 826  : 				break;

	jmp	$LN257@BuildCouns

; 827  : 			case AGGRESSIVE_POSTURE_LOW:
; 828  : 				break;

	jmp	$LN257@BuildCouns
$LN252@BuildCouns:

; 829  : 			case AGGRESSIVE_POSTURE_MEDIUM:
; 830  : 			{
; 831  : 				int iRating = 51;

	mov	DWORD PTR _iRating$223166[ebp], 51	; 00000033H

; 832  : 				if(iRating > iMessageRating)

	mov	eax, DWORD PTR _iRating$223166[ebp]
	cmp	eax, DWORD PTR _iMessageRating$223064[ebp]
	jle	$LN251@BuildCouns

; 833  : 				{
; 834  : 					iMessageRating = iRating;

	mov	ecx, DWORD PTR _iRating$223166[ebp]
	mov	DWORD PTR _iMessageRating$223064[ebp], ecx

; 835  : 					eAdvisor = ADVISOR_FOREIGN;

	mov	DWORD PTR _eAdvisor$223065[ebp], 2

; 836  : 					strLoc = Localization::Lookup("TXT_KEY_DIPLOSTRATEGY_MILITARY_AGGRESSIVE_POSTURE_MEDIUM");

	push	OFFSET ??_C@_0DJ@EEIFNKKI@TXT_KEY_DIPLOSTRATEGY_MILITARY_A@
	lea	edx, DWORD PTR $T224837[ebp]
	push	edx
	call	DWORD PTR __imp_?Lookup@Localization@@YA?AVString@1@PBD@Z
	add	esp, 8
	mov	DWORD PTR tv4232[ebp], eax
	mov	eax, DWORD PTR tv4232[ebp]
	mov	DWORD PTR tv3738[ebp], eax
	mov	BYTE PTR __$EHRec$[ebp+8], 34		; 00000022H
	mov	ecx, DWORD PTR tv3738[ebp]
	push	ecx
	lea	ecx, DWORD PTR _strLoc$[ebp]
	call	DWORD PTR __imp_??4String@Localization@@QAEAAV01@ABV01@@Z
	mov	BYTE PTR __$EHRec$[ebp+8], 0
	lea	ecx, DWORD PTR $T224837[ebp]
	call	DWORD PTR __imp_??1String@Localization@@UAE@XZ

; 837  : 					strLoc << GET_PLAYER(eOtherPlayer).getCivilizationInfo().GetTextKey();

	mov	edx, DWORD PTR _eOtherPlayer$223066[ebp]
	imul	edx, 63236				; 0000f704H
	add	edx, DWORD PTR ?m_aPlayers@CvPlayerAI@@1PAV1@A ; CvPlayerAI::m_aPlayers
	mov	DWORD PTR $T225234[ebp], edx
	mov	ecx, DWORD PTR $T225234[ebp]
	call	?getCivilizationInfo@CvPlayer@@QBEAAVCvCivilizationInfo@@XZ ; CvPlayer::getCivilizationInfo
	mov	ecx, eax
	call	?GetTextKey@CvBaseInfo@@QBEPBDXZ	; CvBaseInfo::GetTextKey
	mov	DWORD PTR $T224838[ebp], eax
	lea	eax, DWORD PTR $T224838[ebp]
	push	eax
	lea	ecx, DWORD PTR _strLoc$[ebp]
	push	ecx
	call	??$?6PBD@@YAAAVString@Localization@@AAV01@ABQBD@Z ; operator<<<char const *>
	add	esp, 8
$LN251@BuildCouns:

; 838  : 				}
; 839  : 			}
; 840  : 			break;

	jmp	$LN257@BuildCouns
$LN250@BuildCouns:

; 841  : 			case AGGRESSIVE_POSTURE_HIGH:
; 842  : 			{
; 843  : 				int iRating = 75;

	mov	DWORD PTR _iRating$223172[ebp], 75	; 0000004bH

; 844  : 				if(iRating > iMessageRating)

	mov	edx, DWORD PTR _iRating$223172[ebp]
	cmp	edx, DWORD PTR _iMessageRating$223064[ebp]
	jle	$LN249@BuildCouns

; 845  : 				{
; 846  : 					iMessageRating = iRating;

	mov	eax, DWORD PTR _iRating$223172[ebp]
	mov	DWORD PTR _iMessageRating$223064[ebp], eax

; 847  : 					eAdvisor = ADVISOR_FOREIGN;

	mov	DWORD PTR _eAdvisor$223065[ebp], 2

; 848  : 					strLoc = Localization::Lookup("TXT_KEY_DIPLOSTRATEGY_MILITARY_AGGRESSIVE_POSTURE_HIGH");

	push	OFFSET ??_C@_0DH@MLKHLLDC@TXT_KEY_DIPLOSTRATEGY_MILITARY_A@
	lea	ecx, DWORD PTR $T224839[ebp]
	push	ecx
	call	DWORD PTR __imp_?Lookup@Localization@@YA?AVString@1@PBD@Z
	add	esp, 8
	mov	DWORD PTR tv4231[ebp], eax
	mov	edx, DWORD PTR tv4231[ebp]
	mov	DWORD PTR tv3740[ebp], edx
	mov	BYTE PTR __$EHRec$[ebp+8], 35		; 00000023H
	mov	eax, DWORD PTR tv3740[ebp]
	push	eax
	lea	ecx, DWORD PTR _strLoc$[ebp]
	call	DWORD PTR __imp_??4String@Localization@@QAEAAV01@ABV01@@Z
	mov	BYTE PTR __$EHRec$[ebp+8], 0
	lea	ecx, DWORD PTR $T224839[ebp]
	call	DWORD PTR __imp_??1String@Localization@@UAE@XZ

; 849  : 					strLoc << GET_PLAYER(eOtherPlayer).getCivilizationInfo().GetTextKey();

	mov	ecx, DWORD PTR _eOtherPlayer$223066[ebp]
	imul	ecx, 63236				; 0000f704H
	add	ecx, DWORD PTR ?m_aPlayers@CvPlayerAI@@1PAV1@A ; CvPlayerAI::m_aPlayers
	mov	DWORD PTR $T225238[ebp], ecx
	mov	ecx, DWORD PTR $T225238[ebp]
	call	?getCivilizationInfo@CvPlayer@@QBEAAVCvCivilizationInfo@@XZ ; CvPlayer::getCivilizationInfo
	mov	ecx, eax
	call	?GetTextKey@CvBaseInfo@@QBEPBDXZ	; CvBaseInfo::GetTextKey
	mov	DWORD PTR $T224840[ebp], eax
	lea	edx, DWORD PTR $T224840[ebp]
	push	edx
	lea	eax, DWORD PTR _strLoc$[ebp]
	push	eax
	call	??$?6PBD@@YAAAVString@Localization@@AAV01@ABQBD@Z ; operator<<<char const *>
	add	esp, 8
$LN249@BuildCouns:

; 850  : 				}
; 851  : 			}
; 852  : 			break;

	jmp	$LN257@BuildCouns
$LN248@BuildCouns:

; 853  : 			case AGGRESSIVE_POSTURE_INCREDIBLE:
; 854  : 			{
; 855  : 				int iRating = 90;

	mov	DWORD PTR _iRating$223178[ebp], 90	; 0000005aH

; 856  : 				if(iRating > iMessageRating)

	mov	ecx, DWORD PTR _iRating$223178[ebp]
	cmp	ecx, DWORD PTR _iMessageRating$223064[ebp]
	jle	$LN257@BuildCouns

; 857  : 				{
; 858  : 					iMessageRating = iRating;

	mov	edx, DWORD PTR _iRating$223178[ebp]
	mov	DWORD PTR _iMessageRating$223064[ebp], edx

; 859  : 					eAdvisor = ADVISOR_FOREIGN;

	mov	DWORD PTR _eAdvisor$223065[ebp], 2

; 860  : 					strLoc = Localization::Lookup("TXT_KEY_DIPLOSTRATEGY_MILITARY_AGGRESSIVE_POSTURE_INCREDIBLE");

	push	OFFSET ??_C@_0DN@OCKMAICG@TXT_KEY_DIPLOSTRATEGY_MILITARY_A@
	lea	eax, DWORD PTR $T224841[ebp]
	push	eax
	call	DWORD PTR __imp_?Lookup@Localization@@YA?AVString@1@PBD@Z
	add	esp, 8
	mov	DWORD PTR tv4230[ebp], eax
	mov	ecx, DWORD PTR tv4230[ebp]
	mov	DWORD PTR tv3742[ebp], ecx
	mov	BYTE PTR __$EHRec$[ebp+8], 36		; 00000024H
	mov	edx, DWORD PTR tv3742[ebp]
	push	edx
	lea	ecx, DWORD PTR _strLoc$[ebp]
	call	DWORD PTR __imp_??4String@Localization@@QAEAAV01@ABV01@@Z
	mov	BYTE PTR __$EHRec$[ebp+8], 0
	lea	ecx, DWORD PTR $T224841[ebp]
	call	DWORD PTR __imp_??1String@Localization@@UAE@XZ

; 861  : 					strLoc << GET_PLAYER(eOtherPlayer).getCivilizationInfo().GetTextKey();

	mov	eax, DWORD PTR _eOtherPlayer$223066[ebp]
	imul	eax, 63236				; 0000f704H
	add	eax, DWORD PTR ?m_aPlayers@CvPlayerAI@@1PAV1@A ; CvPlayerAI::m_aPlayers
	mov	DWORD PTR $T225242[ebp], eax
	mov	ecx, DWORD PTR $T225242[ebp]
	call	?getCivilizationInfo@CvPlayer@@QBEAAVCvCivilizationInfo@@XZ ; CvPlayer::getCivilizationInfo
	mov	ecx, eax
	call	?GetTextKey@CvBaseInfo@@QBEPBDXZ	; CvBaseInfo::GetTextKey
	mov	DWORD PTR $T224842[ebp], eax
	lea	ecx, DWORD PTR $T224842[ebp]
	push	ecx
	lea	edx, DWORD PTR _strLoc$[ebp]
	push	edx
	call	??$?6PBD@@YAAAVString@Localization@@AAV01@ABQBD@Z ; operator<<<char const *>
	add	esp, 8
$LN257@BuildCouns:

; 862  : 				}
; 863  : 			}
; 864  : 			break;
; 865  : 			}
; 866  : 		}
; 867  : 
; 868  : 		// look at expansion aggressive posture
; 869  : 		AggressivePostureTypes eExpansionAggressivePostureTypes = pDiplomacyAI->GetExpansionAggressivePosture(eOtherPlayer);

	mov	eax, DWORD PTR _eOtherPlayer$223066[ebp]
	push	eax
	mov	ecx, DWORD PTR _pDiplomacyAI$[ebp]
	call	?GetExpansionAggressivePosture@CvDiplomacyAI@@QBE?AW4AggressivePostureTypes@@W4PlayerTypes@@@Z ; CvDiplomacyAI::GetExpansionAggressivePosture
	mov	DWORD PTR _eExpansionAggressivePostureTypes$223183[ebp], eax

; 870  : 		if(!GET_TEAM(eTeam).isAtWar(eOtherTeam))

	mov	ecx, DWORD PTR _eTeam$[ebp]
	imul	ecx, 2984				; 00000ba8H
	add	ecx, DWORD PTR ?m_aTeams@CvTeam@@1PAV1@A ; CvTeam::m_aTeams
	mov	DWORD PTR $T225246[ebp], ecx
	mov	edx, DWORD PTR _eOtherTeam$223068[ebp]
	push	edx
	mov	ecx, DWORD PTR $T225246[ebp]
	call	?isAtWar@CvTeam@@QBE_NW4TeamTypes@@@Z	; CvTeam::isAtWar
	movzx	eax, al
	test	eax, eax
	jne	$LN246@BuildCouns

; 871  : 		{
; 872  : 			switch(eExpansionAggressivePostureTypes)

	mov	ecx, DWORD PTR _eExpansionAggressivePostureTypes$223183[ebp]
	mov	DWORD PTR tv1737[ebp], ecx
	cmp	DWORD PTR tv1737[ebp], 2
	je	SHORT $LN241@BuildCouns
	cmp	DWORD PTR tv1737[ebp], 3
	je	$LN239@BuildCouns
	cmp	DWORD PTR tv1737[ebp], 4
	je	$LN237@BuildCouns
	jmp	$LN246@BuildCouns

; 873  : 			{
; 874  : 			case AGGRESSIVE_POSTURE_NONE:
; 875  : 				break;

	jmp	$LN246@BuildCouns

; 876  : 			case AGGRESSIVE_POSTURE_LOW:
; 877  : 				break;

	jmp	$LN246@BuildCouns
$LN241@BuildCouns:

; 878  : 			case AGGRESSIVE_POSTURE_MEDIUM:
; 879  : 			{
; 880  : 				int iRating = 41;

	mov	DWORD PTR _iRating$223192[ebp], 41	; 00000029H

; 881  : 				if(iRating > iMessageRating)

	mov	edx, DWORD PTR _iRating$223192[ebp]
	cmp	edx, DWORD PTR _iMessageRating$223064[ebp]
	jle	$LN240@BuildCouns

; 882  : 				{
; 883  : 					iMessageRating = iRating;

	mov	eax, DWORD PTR _iRating$223192[ebp]
	mov	DWORD PTR _iMessageRating$223064[ebp], eax

; 884  : 					eAdvisor = ADVISOR_FOREIGN;

	mov	DWORD PTR _eAdvisor$223065[ebp], 2

; 885  : 					strLoc = Localization::Lookup("TXT_KEY_DIPLOSTRATEGY_EXPANSION_AGGRESSIVE_POSTURE_MEDIUM");

	push	OFFSET ??_C@_0DK@IIPBKLAB@TXT_KEY_DIPLOSTRATEGY_EXPANSION_@
	lea	ecx, DWORD PTR $T224843[ebp]
	push	ecx
	call	DWORD PTR __imp_?Lookup@Localization@@YA?AVString@1@PBD@Z
	add	esp, 8
	mov	DWORD PTR tv4229[ebp], eax
	mov	edx, DWORD PTR tv4229[ebp]
	mov	DWORD PTR tv3744[ebp], edx
	mov	BYTE PTR __$EHRec$[ebp+8], 37		; 00000025H
	mov	eax, DWORD PTR tv3744[ebp]
	push	eax
	lea	ecx, DWORD PTR _strLoc$[ebp]
	call	DWORD PTR __imp_??4String@Localization@@QAEAAV01@ABV01@@Z
	mov	BYTE PTR __$EHRec$[ebp+8], 0
	lea	ecx, DWORD PTR $T224843[ebp]
	call	DWORD PTR __imp_??1String@Localization@@UAE@XZ

; 886  : 					strLoc << GET_PLAYER(eOtherPlayer).getCivilizationInfo().GetTextKey();

	mov	ecx, DWORD PTR _eOtherPlayer$223066[ebp]
	imul	ecx, 63236				; 0000f704H
	add	ecx, DWORD PTR ?m_aPlayers@CvPlayerAI@@1PAV1@A ; CvPlayerAI::m_aPlayers
	mov	DWORD PTR $T225250[ebp], ecx
	mov	ecx, DWORD PTR $T225250[ebp]
	call	?getCivilizationInfo@CvPlayer@@QBEAAVCvCivilizationInfo@@XZ ; CvPlayer::getCivilizationInfo
	mov	ecx, eax
	call	?GetTextKey@CvBaseInfo@@QBEPBDXZ	; CvBaseInfo::GetTextKey
	mov	DWORD PTR $T224844[ebp], eax
	lea	edx, DWORD PTR $T224844[ebp]
	push	edx
	lea	eax, DWORD PTR _strLoc$[ebp]
	push	eax
	call	??$?6PBD@@YAAAVString@Localization@@AAV01@ABQBD@Z ; operator<<<char const *>
	add	esp, 8
$LN240@BuildCouns:

; 887  : 				}
; 888  : 			}
; 889  : 			break;

	jmp	$LN246@BuildCouns
$LN239@BuildCouns:

; 890  : 			case AGGRESSIVE_POSTURE_HIGH:
; 891  : 			{
; 892  : 				int iRating = 65;

	mov	DWORD PTR _iRating$223198[ebp], 65	; 00000041H

; 893  : 				if(iRating > iMessageRating)

	mov	ecx, DWORD PTR _iRating$223198[ebp]
	cmp	ecx, DWORD PTR _iMessageRating$223064[ebp]
	jle	$LN238@BuildCouns

; 894  : 				{
; 895  : 					iMessageRating = iRating;

	mov	edx, DWORD PTR _iRating$223198[ebp]
	mov	DWORD PTR _iMessageRating$223064[ebp], edx

; 896  : 					eAdvisor = ADVISOR_FOREIGN;

	mov	DWORD PTR _eAdvisor$223065[ebp], 2

; 897  : 					strLoc = Localization::Lookup("TXT_KEY_DIPLOSTRATEGY_EXPANSION_AGGRESSIVE_POSTURE_HIGH");

	push	OFFSET ??_C@_0DI@MKFCKNHK@TXT_KEY_DIPLOSTRATEGY_EXPANSION_@
	lea	eax, DWORD PTR $T224845[ebp]
	push	eax
	call	DWORD PTR __imp_?Lookup@Localization@@YA?AVString@1@PBD@Z
	add	esp, 8
	mov	DWORD PTR tv4227[ebp], eax
	mov	ecx, DWORD PTR tv4227[ebp]
	mov	DWORD PTR tv3746[ebp], ecx
	mov	BYTE PTR __$EHRec$[ebp+8], 38		; 00000026H
	mov	edx, DWORD PTR tv3746[ebp]
	push	edx
	lea	ecx, DWORD PTR _strLoc$[ebp]
	call	DWORD PTR __imp_??4String@Localization@@QAEAAV01@ABV01@@Z
	mov	BYTE PTR __$EHRec$[ebp+8], 0
	lea	ecx, DWORD PTR $T224845[ebp]
	call	DWORD PTR __imp_??1String@Localization@@UAE@XZ

; 898  : 					strLoc << GET_PLAYER(eOtherPlayer).getCivilizationInfo().GetTextKey();

	mov	eax, DWORD PTR _eOtherPlayer$223066[ebp]
	imul	eax, 63236				; 0000f704H
	add	eax, DWORD PTR ?m_aPlayers@CvPlayerAI@@1PAV1@A ; CvPlayerAI::m_aPlayers
	mov	DWORD PTR $T225254[ebp], eax
	mov	ecx, DWORD PTR $T225254[ebp]
	call	?getCivilizationInfo@CvPlayer@@QBEAAVCvCivilizationInfo@@XZ ; CvPlayer::getCivilizationInfo
	mov	ecx, eax
	call	?GetTextKey@CvBaseInfo@@QBEPBDXZ	; CvBaseInfo::GetTextKey
	mov	DWORD PTR $T224846[ebp], eax
	lea	ecx, DWORD PTR $T224846[ebp]
	push	ecx
	lea	edx, DWORD PTR _strLoc$[ebp]
	push	edx
	call	??$?6PBD@@YAAAVString@Localization@@AAV01@ABQBD@Z ; operator<<<char const *>
	add	esp, 8
$LN238@BuildCouns:

; 899  : 				}
; 900  : 			}
; 901  : 			break;

	jmp	$LN246@BuildCouns
$LN237@BuildCouns:

; 902  : 			case AGGRESSIVE_POSTURE_INCREDIBLE:
; 903  : 			{
; 904  : 				int iRating = 80;

	mov	DWORD PTR _iRating$223204[ebp], 80	; 00000050H

; 905  : 				if(iRating > iMessageRating)

	mov	eax, DWORD PTR _iRating$223204[ebp]
	cmp	eax, DWORD PTR _iMessageRating$223064[ebp]
	jle	$LN246@BuildCouns

; 906  : 				{
; 907  : 					iMessageRating = iRating;

	mov	ecx, DWORD PTR _iRating$223204[ebp]
	mov	DWORD PTR _iMessageRating$223064[ebp], ecx

; 908  : 					eAdvisor = ADVISOR_FOREIGN;

	mov	DWORD PTR _eAdvisor$223065[ebp], 2

; 909  : 					strLoc = Localization::Lookup("TXT_KEY_DIPLOSTRATEGY_EXPANSION_AGGRESSIVE_POSTURE_INCREDIBLE");

	push	OFFSET ??_C@_0DO@FOHNGOKH@TXT_KEY_DIPLOSTRATEGY_EXPANSION_@
	lea	edx, DWORD PTR $T224847[ebp]
	push	edx
	call	DWORD PTR __imp_?Lookup@Localization@@YA?AVString@1@PBD@Z
	add	esp, 8
	mov	DWORD PTR tv4226[ebp], eax
	mov	eax, DWORD PTR tv4226[ebp]
	mov	DWORD PTR tv3748[ebp], eax
	mov	BYTE PTR __$EHRec$[ebp+8], 39		; 00000027H
	mov	ecx, DWORD PTR tv3748[ebp]
	push	ecx
	lea	ecx, DWORD PTR _strLoc$[ebp]
	call	DWORD PTR __imp_??4String@Localization@@QAEAAV01@ABV01@@Z
	mov	BYTE PTR __$EHRec$[ebp+8], 0
	lea	ecx, DWORD PTR $T224847[ebp]
	call	DWORD PTR __imp_??1String@Localization@@UAE@XZ

; 910  : 					strLoc << GET_PLAYER(eOtherPlayer).getCivilizationInfo().GetTextKey();

	mov	edx, DWORD PTR _eOtherPlayer$223066[ebp]
	imul	edx, 63236				; 0000f704H
	add	edx, DWORD PTR ?m_aPlayers@CvPlayerAI@@1PAV1@A ; CvPlayerAI::m_aPlayers
	mov	DWORD PTR $T225258[ebp], edx
	mov	ecx, DWORD PTR $T225258[ebp]
	call	?getCivilizationInfo@CvPlayer@@QBEAAVCvCivilizationInfo@@XZ ; CvPlayer::getCivilizationInfo
	mov	ecx, eax
	call	?GetTextKey@CvBaseInfo@@QBEPBDXZ	; CvBaseInfo::GetTextKey
	mov	DWORD PTR $T224848[ebp], eax
	lea	eax, DWORD PTR $T224848[ebp]
	push	eax
	lea	ecx, DWORD PTR _strLoc$[ebp]
	push	ecx
	call	??$?6PBD@@YAAAVString@Localization@@AAV01@ABQBD@Z ; operator<<<char const *>
	add	esp, 8
$LN246@BuildCouns:

; 911  : 				}
; 912  : 			}
; 913  : 			break;
; 914  : 			}
; 915  : 		}
; 916  : 
; 917  : 		ThreatTypes eWarmongerThreat = pDiplomacyAI->GetWarmongerThreat(eOtherPlayer);

	mov	edx, DWORD PTR _eOtherPlayer$223066[ebp]
	push	edx
	mov	ecx, DWORD PTR _pDiplomacyAI$[ebp]
	call	?GetWarmongerThreat@CvDiplomacyAI@@QBE?AW4ThreatTypes@@W4PlayerTypes@@@Z ; CvDiplomacyAI::GetWarmongerThreat
	mov	DWORD PTR _eWarmongerThreat$223209[ebp], eax

; 918  : 		if(!GET_TEAM(eTeam).isAtWar(eOtherTeam))

	mov	eax, DWORD PTR _eTeam$[ebp]
	imul	eax, 2984				; 00000ba8H
	add	eax, DWORD PTR ?m_aTeams@CvTeam@@1PAV1@A ; CvTeam::m_aTeams
	mov	DWORD PTR $T225262[ebp], eax
	mov	ecx, DWORD PTR _eOtherTeam$223068[ebp]
	push	ecx
	mov	ecx, DWORD PTR $T225262[ebp]
	call	?isAtWar@CvTeam@@QBE_NW4TeamTypes@@@Z	; CvTeam::isAtWar
	movzx	edx, al
	test	edx, edx
	jne	$LN235@BuildCouns

; 919  : 		{
; 920  : 			switch(eWarmongerThreat)

	mov	eax, DWORD PTR _eWarmongerThreat$223209[ebp]
	mov	DWORD PTR tv1823[ebp], eax
	cmp	DWORD PTR tv1823[ebp], 4
	ja	$LN235@BuildCouns
	mov	ecx, DWORD PTR tv1823[ebp]
	jmp	DWORD PTR $LN1056@BuildCouns[ecx*4]
$LN232@BuildCouns:

; 921  : 			{
; 922  : 			case THREAT_NONE:
; 923  : 			{
; 924  : 				int iRating = 20;

	mov	DWORD PTR _iRating$223216[ebp], 20	; 00000014H

; 925  : 				if(iRating > iMessageRating)

	mov	edx, DWORD PTR _iRating$223216[ebp]
	cmp	edx, DWORD PTR _iMessageRating$223064[ebp]
	jle	$LN231@BuildCouns

; 926  : 				{
; 927  : 					iMessageRating = iRating;

	mov	eax, DWORD PTR _iRating$223216[ebp]
	mov	DWORD PTR _iMessageRating$223064[ebp], eax

; 928  : 					eAdvisor = ADVISOR_FOREIGN;

	mov	DWORD PTR _eAdvisor$223065[ebp], 2

; 929  : 					strLoc = Localization::Lookup("TXT_KEY_DIPLOSTRATEGY_WARMONGER_THREAT_NONE");

	push	OFFSET ??_C@_0CM@NDBOGAOK@TXT_KEY_DIPLOSTRATEGY_WARMONGER_@
	lea	ecx, DWORD PTR $T224849[ebp]
	push	ecx
	call	DWORD PTR __imp_?Lookup@Localization@@YA?AVString@1@PBD@Z
	add	esp, 8
	mov	DWORD PTR tv4225[ebp], eax
	mov	edx, DWORD PTR tv4225[ebp]
	mov	DWORD PTR tv3750[ebp], edx
	mov	BYTE PTR __$EHRec$[ebp+8], 40		; 00000028H
	mov	eax, DWORD PTR tv3750[ebp]
	push	eax
	lea	ecx, DWORD PTR _strLoc$[ebp]
	call	DWORD PTR __imp_??4String@Localization@@QAEAAV01@ABV01@@Z
	mov	BYTE PTR __$EHRec$[ebp+8], 0
	lea	ecx, DWORD PTR $T224849[ebp]
	call	DWORD PTR __imp_??1String@Localization@@UAE@XZ

; 930  : 					strLoc << GET_PLAYER(eOtherPlayer).getCivilizationInfo().GetTextKey();

	mov	ecx, DWORD PTR _eOtherPlayer$223066[ebp]
	imul	ecx, 63236				; 0000f704H
	add	ecx, DWORD PTR ?m_aPlayers@CvPlayerAI@@1PAV1@A ; CvPlayerAI::m_aPlayers
	mov	DWORD PTR $T225266[ebp], ecx
	mov	ecx, DWORD PTR $T225266[ebp]
	call	?getCivilizationInfo@CvPlayer@@QBEAAVCvCivilizationInfo@@XZ ; CvPlayer::getCivilizationInfo
	mov	ecx, eax
	call	?GetTextKey@CvBaseInfo@@QBEPBDXZ	; CvBaseInfo::GetTextKey
	mov	DWORD PTR $T224850[ebp], eax
	lea	edx, DWORD PTR $T224850[ebp]
	push	edx
	lea	eax, DWORD PTR _strLoc$[ebp]
	push	eax
	call	??$?6PBD@@YAAAVString@Localization@@AAV01@ABQBD@Z ; operator<<<char const *>
	add	esp, 8
$LN231@BuildCouns:

; 931  : 				}
; 932  : 			}
; 933  : 			break;

	jmp	$LN235@BuildCouns
$LN230@BuildCouns:

; 934  : 			case THREAT_MINOR:
; 935  : 			{
; 936  : 				int iRating = 25;

	mov	DWORD PTR _iRating$223222[ebp], 25	; 00000019H

; 937  : 				if(iRating > iMessageRating)

	mov	ecx, DWORD PTR _iRating$223222[ebp]
	cmp	ecx, DWORD PTR _iMessageRating$223064[ebp]
	jle	$LN229@BuildCouns

; 938  : 				{
; 939  : 					iMessageRating = iRating;

	mov	edx, DWORD PTR _iRating$223222[ebp]
	mov	DWORD PTR _iMessageRating$223064[ebp], edx

; 940  : 					eAdvisor = ADVISOR_FOREIGN;

	mov	DWORD PTR _eAdvisor$223065[ebp], 2

; 941  : 					strLoc = Localization::Lookup("TXT_KEY_DIPLOSTRATEGY_WARMONGER_THREAT_MINOR");

	push	OFFSET ??_C@_0CN@MMMCCIAI@TXT_KEY_DIPLOSTRATEGY_WARMONGER_@
	lea	eax, DWORD PTR $T224851[ebp]
	push	eax
	call	DWORD PTR __imp_?Lookup@Localization@@YA?AVString@1@PBD@Z
	add	esp, 8
	mov	DWORD PTR tv4224[ebp], eax
	mov	ecx, DWORD PTR tv4224[ebp]
	mov	DWORD PTR tv3752[ebp], ecx
	mov	BYTE PTR __$EHRec$[ebp+8], 41		; 00000029H
	mov	edx, DWORD PTR tv3752[ebp]
	push	edx
	lea	ecx, DWORD PTR _strLoc$[ebp]
	call	DWORD PTR __imp_??4String@Localization@@QAEAAV01@ABV01@@Z
	mov	BYTE PTR __$EHRec$[ebp+8], 0
	lea	ecx, DWORD PTR $T224851[ebp]
	call	DWORD PTR __imp_??1String@Localization@@UAE@XZ

; 942  : 					strLoc << GET_PLAYER(eOtherPlayer).getCivilizationInfo().GetTextKey();

	mov	eax, DWORD PTR _eOtherPlayer$223066[ebp]
	imul	eax, 63236				; 0000f704H
	add	eax, DWORD PTR ?m_aPlayers@CvPlayerAI@@1PAV1@A ; CvPlayerAI::m_aPlayers
	mov	DWORD PTR $T225270[ebp], eax
	mov	ecx, DWORD PTR $T225270[ebp]
	call	?getCivilizationInfo@CvPlayer@@QBEAAVCvCivilizationInfo@@XZ ; CvPlayer::getCivilizationInfo
	mov	ecx, eax
	call	?GetTextKey@CvBaseInfo@@QBEPBDXZ	; CvBaseInfo::GetTextKey
	mov	DWORD PTR $T224852[ebp], eax
	lea	ecx, DWORD PTR $T224852[ebp]
	push	ecx
	lea	edx, DWORD PTR _strLoc$[ebp]
	push	edx
	call	??$?6PBD@@YAAAVString@Localization@@AAV01@ABQBD@Z ; operator<<<char const *>
	add	esp, 8
$LN229@BuildCouns:

; 943  : 				}
; 944  : 			}
; 945  : 
; 946  : 			break;

	jmp	$LN235@BuildCouns
$LN228@BuildCouns:

; 947  : 			case THREAT_MAJOR:
; 948  : 			{
; 949  : 				int iRating = 30;

	mov	DWORD PTR _iRating$223228[ebp], 30	; 0000001eH

; 950  : 				if(iRating > iMessageRating)

	mov	eax, DWORD PTR _iRating$223228[ebp]
	cmp	eax, DWORD PTR _iMessageRating$223064[ebp]
	jle	$LN227@BuildCouns

; 951  : 				{
; 952  : 					iMessageRating = iRating;

	mov	ecx, DWORD PTR _iRating$223228[ebp]
	mov	DWORD PTR _iMessageRating$223064[ebp], ecx

; 953  : 					eAdvisor = ADVISOR_FOREIGN;

	mov	DWORD PTR _eAdvisor$223065[ebp], 2

; 954  : 					strLoc = Localization::Lookup("TXT_KEY_DIPLOSTRATEGY_WARMONGER_THREAT_MAJOR");

	push	OFFSET ??_C@_0CN@HDNAPEJO@TXT_KEY_DIPLOSTRATEGY_WARMONGER_@
	lea	edx, DWORD PTR $T224853[ebp]
	push	edx
	call	DWORD PTR __imp_?Lookup@Localization@@YA?AVString@1@PBD@Z
	add	esp, 8
	mov	DWORD PTR tv4256[ebp], eax
	mov	eax, DWORD PTR tv4256[ebp]
	mov	DWORD PTR tv3754[ebp], eax
	mov	BYTE PTR __$EHRec$[ebp+8], 42		; 0000002aH
	mov	ecx, DWORD PTR tv3754[ebp]
	push	ecx
	lea	ecx, DWORD PTR _strLoc$[ebp]
	call	DWORD PTR __imp_??4String@Localization@@QAEAAV01@ABV01@@Z
	mov	BYTE PTR __$EHRec$[ebp+8], 0
	lea	ecx, DWORD PTR $T224853[ebp]
	call	DWORD PTR __imp_??1String@Localization@@UAE@XZ

; 955  : 					strLoc << GET_PLAYER(eOtherPlayer).getCivilizationInfo().GetTextKey();

	mov	edx, DWORD PTR _eOtherPlayer$223066[ebp]
	imul	edx, 63236				; 0000f704H
	add	edx, DWORD PTR ?m_aPlayers@CvPlayerAI@@1PAV1@A ; CvPlayerAI::m_aPlayers
	mov	DWORD PTR $T225274[ebp], edx
	mov	ecx, DWORD PTR $T225274[ebp]
	call	?getCivilizationInfo@CvPlayer@@QBEAAVCvCivilizationInfo@@XZ ; CvPlayer::getCivilizationInfo
	mov	ecx, eax
	call	?GetTextKey@CvBaseInfo@@QBEPBDXZ	; CvBaseInfo::GetTextKey
	mov	DWORD PTR $T224854[ebp], eax
	lea	eax, DWORD PTR $T224854[ebp]
	push	eax
	lea	ecx, DWORD PTR _strLoc$[ebp]
	push	ecx
	call	??$?6PBD@@YAAAVString@Localization@@AAV01@ABQBD@Z ; operator<<<char const *>
	add	esp, 8
$LN227@BuildCouns:

; 956  : 				}
; 957  : 			}
; 958  : 			break;

	jmp	$LN235@BuildCouns
$LN226@BuildCouns:

; 959  : 			case THREAT_SEVERE:
; 960  : 			{
; 961  : 				int iRating = 60;

	mov	DWORD PTR _iRating$223234[ebp], 60	; 0000003cH

; 962  : 				if(iRating > iMessageRating)

	mov	edx, DWORD PTR _iRating$223234[ebp]
	cmp	edx, DWORD PTR _iMessageRating$223064[ebp]
	jle	$LN225@BuildCouns

; 963  : 				{
; 964  : 					iMessageRating = iRating;

	mov	eax, DWORD PTR _iRating$223234[ebp]
	mov	DWORD PTR _iMessageRating$223064[ebp], eax

; 965  : 					eAdvisor = ADVISOR_FOREIGN;

	mov	DWORD PTR _eAdvisor$223065[ebp], 2

; 966  : 					strLoc = Localization::Lookup("TXT_KEY_DIPLOSTRATEGY_WARMONGER_THREAT_SEVERE");

	push	OFFSET ??_C@_0CO@PMBHOKJF@TXT_KEY_DIPLOSTRATEGY_WARMONGER_@
	lea	ecx, DWORD PTR $T224855[ebp]
	push	ecx
	call	DWORD PTR __imp_?Lookup@Localization@@YA?AVString@1@PBD@Z
	add	esp, 8
	mov	DWORD PTR tv4257[ebp], eax
	mov	edx, DWORD PTR tv4257[ebp]
	mov	DWORD PTR tv3756[ebp], edx
	mov	BYTE PTR __$EHRec$[ebp+8], 43		; 0000002bH
	mov	eax, DWORD PTR tv3756[ebp]
	push	eax
	lea	ecx, DWORD PTR _strLoc$[ebp]
	call	DWORD PTR __imp_??4String@Localization@@QAEAAV01@ABV01@@Z
	mov	BYTE PTR __$EHRec$[ebp+8], 0
	lea	ecx, DWORD PTR $T224855[ebp]
	call	DWORD PTR __imp_??1String@Localization@@UAE@XZ

; 967  : 					strLoc << GET_PLAYER(eOtherPlayer).getCivilizationInfo().GetTextKey();

	mov	ecx, DWORD PTR _eOtherPlayer$223066[ebp]
	imul	ecx, 63236				; 0000f704H
	add	ecx, DWORD PTR ?m_aPlayers@CvPlayerAI@@1PAV1@A ; CvPlayerAI::m_aPlayers
	mov	DWORD PTR $T225278[ebp], ecx
	mov	ecx, DWORD PTR $T225278[ebp]
	call	?getCivilizationInfo@CvPlayer@@QBEAAVCvCivilizationInfo@@XZ ; CvPlayer::getCivilizationInfo
	mov	ecx, eax
	call	?GetTextKey@CvBaseInfo@@QBEPBDXZ	; CvBaseInfo::GetTextKey
	mov	DWORD PTR $T224856[ebp], eax
	lea	edx, DWORD PTR $T224856[ebp]
	push	edx
	lea	eax, DWORD PTR _strLoc$[ebp]
	push	eax
	call	??$?6PBD@@YAAAVString@Localization@@AAV01@ABQBD@Z ; operator<<<char const *>
	add	esp, 8
$LN225@BuildCouns:

; 968  : 				}
; 969  : 			}
; 970  : 			break;

	jmp	$LN235@BuildCouns
$LN224@BuildCouns:

; 971  : 			case THREAT_CRITICAL:
; 972  : 			{
; 973  : 				int iRating = 80;

	mov	DWORD PTR _iRating$223240[ebp], 80	; 00000050H

; 974  : 				if(iRating > iMessageRating)

	mov	ecx, DWORD PTR _iRating$223240[ebp]
	cmp	ecx, DWORD PTR _iMessageRating$223064[ebp]
	jle	$LN235@BuildCouns

; 975  : 				{
; 976  : 					iMessageRating = iRating;

	mov	edx, DWORD PTR _iRating$223240[ebp]
	mov	DWORD PTR _iMessageRating$223064[ebp], edx

; 977  : 					eAdvisor = ADVISOR_FOREIGN;

	mov	DWORD PTR _eAdvisor$223065[ebp], 2

; 978  : 					strLoc = Localization::Lookup("TXT_KEY_DIPLOSTRATEGY_WARMONGER_THREAT_CRITICAL");

	push	OFFSET ??_C@_0DA@NAIENAMF@TXT_KEY_DIPLOSTRATEGY_WARMONGER_@
	lea	eax, DWORD PTR $T224857[ebp]
	push	eax
	call	DWORD PTR __imp_?Lookup@Localization@@YA?AVString@1@PBD@Z
	add	esp, 8
	mov	DWORD PTR tv4258[ebp], eax
	mov	ecx, DWORD PTR tv4258[ebp]
	mov	DWORD PTR tv3758[ebp], ecx
	mov	BYTE PTR __$EHRec$[ebp+8], 44		; 0000002cH
	mov	edx, DWORD PTR tv3758[ebp]
	push	edx
	lea	ecx, DWORD PTR _strLoc$[ebp]
	call	DWORD PTR __imp_??4String@Localization@@QAEAAV01@ABV01@@Z
	mov	BYTE PTR __$EHRec$[ebp+8], 0
	lea	ecx, DWORD PTR $T224857[ebp]
	call	DWORD PTR __imp_??1String@Localization@@UAE@XZ

; 979  : 					strLoc << GET_PLAYER(eOtherPlayer).getCivilizationInfo().GetTextKey();

	mov	eax, DWORD PTR _eOtherPlayer$223066[ebp]
	imul	eax, 63236				; 0000f704H
	add	eax, DWORD PTR ?m_aPlayers@CvPlayerAI@@1PAV1@A ; CvPlayerAI::m_aPlayers
	mov	DWORD PTR $T225282[ebp], eax
	mov	ecx, DWORD PTR $T225282[ebp]
	call	?getCivilizationInfo@CvPlayer@@QBEAAVCvCivilizationInfo@@XZ ; CvPlayer::getCivilizationInfo
	mov	ecx, eax
	call	?GetTextKey@CvBaseInfo@@QBEPBDXZ	; CvBaseInfo::GetTextKey
	mov	DWORD PTR $T224858[ebp], eax
	lea	ecx, DWORD PTR $T224858[ebp]
	push	ecx
	lea	edx, DWORD PTR _strLoc$[ebp]
	push	edx
	call	??$?6PBD@@YAAAVString@Localization@@AAV01@ABQBD@Z ; operator<<<char const *>
	add	esp, 8
$LN235@BuildCouns:

; 980  : 				}
; 981  : 			}
; 982  : 			break;
; 983  : 			}
; 984  : 		}
; 985  : 
; 986  : 		if(eAdvisor != NO_ADVISOR_TYPE)

	cmp	DWORD PTR _eAdvisor$223065[ebp], -1
	je	SHORT $LN222@BuildCouns

; 987  : 		{
; 988  : 			bool bSuccess = SetCounselEntry(uiCounselIndex, eAdvisor, strLoc.toUTF8(), iMessageRating);

	mov	eax, DWORD PTR _iMessageRating$223064[ebp]
	push	eax
	lea	ecx, DWORD PTR _strLoc$[ebp]
	call	DWORD PTR __imp_?toUTF8@String@Localization@@QAEPBDXZ
	push	eax
	mov	ecx, DWORD PTR _eAdvisor$223065[ebp]
	push	ecx
	mov	edx, DWORD PTR _uiCounselIndex$[ebp]
	push	edx
	mov	ecx, DWORD PTR _this$[ebp]
	call	?SetCounselEntry@CvAdvisorCounsel@@QAE_NIW4AdvisorTypes@@PBDH@Z ; CvAdvisorCounsel::SetCounselEntry
	mov	BYTE PTR _bSuccess$223246[ebp], al

; 989  : 			CvAssertMsg(bSuccess, "Unable to add counsel to list. Too many strategies running at once");
; 990  : 			if(!bSuccess)

	movzx	eax, BYTE PTR _bSuccess$223246[ebp]
	test	eax, eax
	jne	SHORT $LN221@BuildCouns

; 991  : 			{
; 992  : 				break;

	jmp	SHORT $LN294@BuildCouns
$LN221@BuildCouns:

; 993  : 			}
; 994  : 			uiCounselIndex++;

	mov	ecx, DWORD PTR _uiCounselIndex$[ebp]
	add	ecx, 1
	mov	DWORD PTR _uiCounselIndex$[ebp], ecx
$LN222@BuildCouns:

; 995  : 		}
; 996  : 	}

	jmp	$LN295@BuildCouns
$LN294@BuildCouns:

; 997  : 
; 998  : 	// go through diplomatic list for competitions with other civs with minor civs
; 999  : 	for(int iPlayer = 0; iPlayer < MAX_MAJOR_CIVS; iPlayer++)

	mov	DWORD PTR _iPlayer$223248[ebp], 0
	jmp	SHORT $LN220@BuildCouns
$LN219@BuildCouns:
	mov	edx, DWORD PTR _iPlayer$223248[ebp]
	add	edx, 1
	mov	DWORD PTR _iPlayer$223248[ebp], edx
$LN220@BuildCouns:
	cmp	DWORD PTR _iPlayer$223248[ebp], 22	; 00000016H
	jge	$LN218@BuildCouns

; 1000 : 	{
; 1001 : 		// reset the ratings per player
; 1002 : 		int iMessageRating = 0;

	mov	DWORD PTR _iMessageRating$223252[ebp], 0

; 1003 : 		AdvisorTypes eAdvisor = NO_ADVISOR_TYPE;

	mov	DWORD PTR _eAdvisor$223253[ebp], -1

; 1004 : 
; 1005 : 		PlayerTypes eOtherPlayer = (PlayerTypes)iPlayer;

	mov	eax, DWORD PTR _iPlayer$223248[ebp]
	mov	DWORD PTR _eOtherPlayer$223254[ebp], eax

; 1006 : 		TeamTypes eOtherTeam = GET_PLAYER(eOtherPlayer).getTeam();

	mov	ecx, DWORD PTR _eOtherPlayer$223254[ebp]
	imul	ecx, 63236				; 0000f704H
	add	ecx, DWORD PTR ?m_aPlayers@CvPlayerAI@@1PAV1@A ; CvPlayerAI::m_aPlayers
	mov	DWORD PTR $T225286[ebp], ecx
	mov	edx, DWORD PTR $T225286[ebp]
	mov	eax, DWORD PTR [edx+44]
	push	eax
	call	?teamType@CvPreGame@@YA?AW4TeamTypes@@W4PlayerTypes@@@Z ; CvPreGame::teamType
	add	esp, 4
	mov	DWORD PTR _eOtherTeam$223256[ebp], eax

; 1007 : 
; 1008 : 		// don't evaluate yourself
; 1009 : 		if(eOtherPlayer == ePlayer)

	mov	ecx, DWORD PTR _eOtherPlayer$223254[ebp]
	cmp	ecx, DWORD PTR _ePlayer$[ebp]
	jne	SHORT $LN217@BuildCouns

; 1010 : 		{
; 1011 : 			continue;

	jmp	SHORT $LN219@BuildCouns
$LN217@BuildCouns:

; 1012 : 		}
; 1013 : 
; 1014 : 		// don't evaluate teammates
; 1015 : 		if(eOtherTeam == eTeam)

	mov	edx, DWORD PTR _eOtherTeam$223256[ebp]
	cmp	edx, DWORD PTR _eTeam$[ebp]
	jne	SHORT $LN216@BuildCouns

; 1016 : 		{
; 1017 : 			continue;

	jmp	$LN219@BuildCouns
$LN216@BuildCouns:

; 1018 : 		}
; 1019 : 
; 1020 : 		// don't evaluate dead people
; 1021 : 		if(!GET_PLAYER(eOtherPlayer).isAlive())

	mov	eax, DWORD PTR _eOtherPlayer$223254[ebp]
	imul	eax, 63236				; 0000f704H
	add	eax, DWORD PTR ?m_aPlayers@CvPlayerAI@@1PAV1@A ; CvPlayerAI::m_aPlayers
	mov	DWORD PTR $T225298[ebp], eax
	mov	ecx, DWORD PTR $T225298[ebp]
	mov	dl, BYTE PTR [ecx+2256]
	mov	BYTE PTR $T225307[ebp], dl
	movzx	eax, BYTE PTR $T225307[ebp]
	test	eax, eax
	jne	SHORT $LN215@BuildCouns

; 1022 : 		{
; 1023 : 			continue;

	jmp	$LN219@BuildCouns
$LN215@BuildCouns:

; 1024 : 		}
; 1025 : 
; 1026 : 		// don't evaluate players we haven't met
; 1027 : 		if(!GET_TEAM(eTeam).isHasMet(eOtherTeam))

	mov	ecx, DWORD PTR _eTeam$[ebp]
	imul	ecx, 2984				; 00000ba8H
	add	ecx, DWORD PTR ?m_aTeams@CvTeam@@1PAV1@A ; CvTeam::m_aTeams
	mov	DWORD PTR $T225311[ebp], ecx
	mov	edx, DWORD PTR _eOtherTeam$223256[ebp]
	push	edx
	mov	ecx, DWORD PTR $T225311[ebp]
	call	?isHasMet@CvTeam@@QBE_NW4TeamTypes@@@Z	; CvTeam::isHasMet
	movzx	eax, al
	test	eax, eax
	jne	SHORT $LN214@BuildCouns

; 1028 : 		{
; 1029 : 			continue;

	jmp	$LN219@BuildCouns
$LN214@BuildCouns:

; 1030 : 		}
; 1031 : 
; 1032 : 		if(GET_TEAM(eTeam).isAtWar(eOtherTeam))

	mov	ecx, DWORD PTR _eTeam$[ebp]
	imul	ecx, 2984				; 00000ba8H
	add	ecx, DWORD PTR ?m_aTeams@CvTeam@@1PAV1@A ; CvTeam::m_aTeams
	mov	DWORD PTR $T225315[ebp], ecx
	mov	edx, DWORD PTR _eOtherTeam$223256[ebp]
	push	edx
	mov	ecx, DWORD PTR $T225315[ebp]
	call	?isAtWar@CvTeam@@QBE_NW4TeamTypes@@@Z	; CvTeam::isAtWar
	movzx	eax, al
	test	eax, eax
	je	SHORT $LN213@BuildCouns

; 1033 : 		{
; 1034 : 			continue;

	jmp	$LN219@BuildCouns
$LN213@BuildCouns:

; 1035 : 		}
; 1036 : 
; 1037 : 		DisputeLevelTypes eMinorCivDisputeLevel = pDiplomacyAI->GetMinorCivDisputeLevel(eOtherPlayer);

	mov	ecx, DWORD PTR _eOtherPlayer$223254[ebp]
	push	ecx
	mov	ecx, DWORD PTR _pDiplomacyAI$[ebp]
	call	?GetMinorCivDisputeLevel@CvDiplomacyAI@@QBE?AW4DisputeLevelTypes@@W4PlayerTypes@@@Z ; CvDiplomacyAI::GetMinorCivDisputeLevel
	mov	DWORD PTR _eMinorCivDisputeLevel$223262[ebp], eax

; 1038 : 		switch(eMinorCivDisputeLevel)

	mov	edx, DWORD PTR _eMinorCivDisputeLevel$223262[ebp]
	mov	DWORD PTR tv2028[ebp], edx
	cmp	DWORD PTR tv2028[ebp], 1
	je	SHORT $LN209@BuildCouns
	cmp	DWORD PTR tv2028[ebp], 2
	je	$LN206@BuildCouns
	cmp	DWORD PTR tv2028[ebp], 3
	je	$LN203@BuildCouns
	jmp	$LN211@BuildCouns

; 1039 : 		{
; 1040 : 
; 1041 : 		case DISPUTE_LEVEL_NONE:
; 1042 : 			break;

	jmp	$LN211@BuildCouns
$LN209@BuildCouns:

; 1043 : 
; 1044 : 		case DISPUTE_LEVEL_WEAK:
; 1045 : 		{
; 1046 : 			iMessageRating = 20;

	mov	DWORD PTR _iMessageRating$223252[ebp], 20 ; 00000014H

; 1047 : 
; 1048 : 			DiploStatementTypes eStatement;
; 1049 : 			int iMinorCiv = NO_PLAYER;

	mov	DWORD PTR _iMinorCiv$223270[ebp], -1

; 1050 : 			pDiplomacyAI->DoMinorCivCompetitionStatement(eOtherPlayer, eStatement, iMinorCiv, true);

	push	1
	lea	eax, DWORD PTR _iMinorCiv$223270[ebp]
	push	eax
	lea	ecx, DWORD PTR _eStatement$223269[ebp]
	push	ecx
	mov	edx, DWORD PTR _eOtherPlayer$223254[ebp]
	push	edx
	mov	ecx, DWORD PTR _pDiplomacyAI$[ebp]
	call	?DoMinorCivCompetitionStatement@CvDiplomacyAI@@QAEXW4PlayerTypes@@AAW4DiploStatementTypes@@AAH_N@Z ; CvDiplomacyAI::DoMinorCivCompetitionStatement

; 1051 : 
; 1052 : 			if(iMinorCiv != NO_PLAYER)

	cmp	DWORD PTR _iMinorCiv$223270[ebp], -1
	je	$LN208@BuildCouns

; 1053 : 			{
; 1054 : 				eAdvisor = ADVISOR_FOREIGN;

	mov	DWORD PTR _eAdvisor$223253[ebp], 2

; 1055 : 				strLoc = Localization::Lookup("TXT_KEY_DIPLOSTRATEGY_MINOR_CIV_DISPUTE_LEVEL_WEAK");

	push	OFFSET ??_C@_0DD@PDCBJMBB@TXT_KEY_DIPLOSTRATEGY_MINOR_CIV_@
	lea	eax, DWORD PTR $T224859[ebp]
	push	eax
	call	DWORD PTR __imp_?Lookup@Localization@@YA?AVString@1@PBD@Z
	add	esp, 8
	mov	DWORD PTR tv4348[ebp], eax
	mov	ecx, DWORD PTR tv4348[ebp]
	mov	DWORD PTR tv3760[ebp], ecx
	mov	BYTE PTR __$EHRec$[ebp+8], 45		; 0000002dH
	mov	edx, DWORD PTR tv3760[ebp]
	push	edx
	lea	ecx, DWORD PTR _strLoc$[ebp]
	call	DWORD PTR __imp_??4String@Localization@@QAEAAV01@ABV01@@Z
	mov	BYTE PTR __$EHRec$[ebp+8], 0
	lea	ecx, DWORD PTR $T224859[ebp]
	call	DWORD PTR __imp_??1String@Localization@@UAE@XZ

; 1056 : 
; 1057 : 				strLoc << GET_PLAYER(eOtherPlayer).getCivilizationInfo().GetTextKey();

	mov	eax, DWORD PTR _eOtherPlayer$223254[ebp]
	imul	eax, 63236				; 0000f704H
	add	eax, DWORD PTR ?m_aPlayers@CvPlayerAI@@1PAV1@A ; CvPlayerAI::m_aPlayers
	mov	DWORD PTR $T225319[ebp], eax
	mov	ecx, DWORD PTR $T225319[ebp]
	call	?getCivilizationInfo@CvPlayer@@QBEAAVCvCivilizationInfo@@XZ ; CvPlayer::getCivilizationInfo
	mov	ecx, eax
	call	?GetTextKey@CvBaseInfo@@QBEPBDXZ	; CvBaseInfo::GetTextKey
	mov	DWORD PTR $T224860[ebp], eax
	lea	ecx, DWORD PTR $T224860[ebp]
	push	ecx
	lea	edx, DWORD PTR _strLoc$[ebp]
	push	edx
	call	??$?6PBD@@YAAAVString@Localization@@AAV01@ABQBD@Z ; operator<<<char const *>
	add	esp, 8

; 1058 : 
; 1059 : 				CvMinorCivInfo* pkMinorCivInfo = GC.getMinorCivInfo(GET_PLAYER((PlayerTypes)iMinorCiv).GetMinorCivAI()->GetMinorCivType());

	mov	eax, DWORD PTR _iMinorCiv$223270[ebp]
	imul	eax, 63236				; 0000f704H
	add	eax, DWORD PTR ?m_aPlayers@CvPlayerAI@@1PAV1@A ; CvPlayerAI::m_aPlayers
	mov	DWORD PTR $T225323[ebp], eax
	mov	ecx, DWORD PTR $T225323[ebp]
	call	?GetMinorCivAI@CvPlayer@@QBEPAVCvMinorCivAI@@XZ ; CvPlayer::GetMinorCivAI
	mov	ecx, eax
	call	?GetMinorCivType@CvMinorCivAI@@QBE?AW4MinorCivTypes@@XZ ; CvMinorCivAI::GetMinorCivType
	push	eax
	mov	ecx, OFFSET ?gGlobals@@3VCvGlobals@@A	; gGlobals
	call	?getMinorCivInfo@CvGlobals@@QAEPAVCvMinorCivInfo@@W4MinorCivTypes@@@Z ; CvGlobals::getMinorCivInfo
	mov	DWORD PTR _pkMinorCivInfo$223275[ebp], eax

; 1060 : 				if(pkMinorCivInfo != NULL)

	cmp	DWORD PTR _pkMinorCivInfo$223275[ebp], 0
	je	SHORT $LN208@BuildCouns

; 1061 : 					strLoc << pkMinorCivInfo->GetTextKey();

	mov	ecx, DWORD PTR _pkMinorCivInfo$223275[ebp]
	call	?GetTextKey@CvBaseInfo@@QBEPBDXZ	; CvBaseInfo::GetTextKey
	mov	DWORD PTR $T224861[ebp], eax
	lea	ecx, DWORD PTR $T224861[ebp]
	push	ecx
	lea	edx, DWORD PTR _strLoc$[ebp]
	push	edx
	call	??$?6PBD@@YAAAVString@Localization@@AAV01@ABQBD@Z ; operator<<<char const *>
	add	esp, 8
$LN208@BuildCouns:

; 1062 : 			}
; 1063 : 		}
; 1064 : 		break;

	jmp	$LN211@BuildCouns
$LN206@BuildCouns:

; 1065 : 		case DISPUTE_LEVEL_STRONG:
; 1066 : 		{
; 1067 : 			iMessageRating = 30;

	mov	DWORD PTR _iMessageRating$223252[ebp], 30 ; 0000001eH

; 1068 : 			DiploStatementTypes eStatement;
; 1069 : 			int iMinorCiv = NO_PLAYER;

	mov	DWORD PTR _iMinorCiv$223281[ebp], -1

; 1070 : 			pDiplomacyAI->DoMinorCivCompetitionStatement(eOtherPlayer, eStatement, iMinorCiv, true);

	push	1
	lea	eax, DWORD PTR _iMinorCiv$223281[ebp]
	push	eax
	lea	ecx, DWORD PTR _eStatement$223280[ebp]
	push	ecx
	mov	edx, DWORD PTR _eOtherPlayer$223254[ebp]
	push	edx
	mov	ecx, DWORD PTR _pDiplomacyAI$[ebp]
	call	?DoMinorCivCompetitionStatement@CvDiplomacyAI@@QAEXW4PlayerTypes@@AAW4DiploStatementTypes@@AAH_N@Z ; CvDiplomacyAI::DoMinorCivCompetitionStatement

; 1071 : 
; 1072 : 			if(iMinorCiv != NO_PLAYER)

	cmp	DWORD PTR _iMinorCiv$223281[ebp], -1
	je	$LN205@BuildCouns

; 1073 : 			{
; 1074 : 				eAdvisor = ADVISOR_FOREIGN;

	mov	DWORD PTR _eAdvisor$223253[ebp], 2

; 1075 : 				strLoc = Localization::Lookup("TXT_KEY_DIPLOSTRATEGY_MINOR_CIV_DISPUTE_LEVEL_STRONG");

	push	OFFSET ??_C@_0DF@PLLLPJHO@TXT_KEY_DIPLOSTRATEGY_MINOR_CIV_@
	lea	eax, DWORD PTR $T224862[ebp]
	push	eax
	call	DWORD PTR __imp_?Lookup@Localization@@YA?AVString@1@PBD@Z
	add	esp, 8
	mov	DWORD PTR tv4347[ebp], eax
	mov	ecx, DWORD PTR tv4347[ebp]
	mov	DWORD PTR tv3762[ebp], ecx
	mov	BYTE PTR __$EHRec$[ebp+8], 46		; 0000002eH
	mov	edx, DWORD PTR tv3762[ebp]
	push	edx
	lea	ecx, DWORD PTR _strLoc$[ebp]
	call	DWORD PTR __imp_??4String@Localization@@QAEAAV01@ABV01@@Z
	mov	BYTE PTR __$EHRec$[ebp+8], 0
	lea	ecx, DWORD PTR $T224862[ebp]
	call	DWORD PTR __imp_??1String@Localization@@UAE@XZ

; 1076 : 
; 1077 : 				strLoc << GET_PLAYER(eOtherPlayer).getCivilizationInfo().GetTextKey();

	mov	eax, DWORD PTR _eOtherPlayer$223254[ebp]
	imul	eax, 63236				; 0000f704H
	add	eax, DWORD PTR ?m_aPlayers@CvPlayerAI@@1PAV1@A ; CvPlayerAI::m_aPlayers
	mov	DWORD PTR $T225327[ebp], eax
	mov	ecx, DWORD PTR $T225327[ebp]
	call	?getCivilizationInfo@CvPlayer@@QBEAAVCvCivilizationInfo@@XZ ; CvPlayer::getCivilizationInfo
	mov	ecx, eax
	call	?GetTextKey@CvBaseInfo@@QBEPBDXZ	; CvBaseInfo::GetTextKey
	mov	DWORD PTR $T224863[ebp], eax
	lea	ecx, DWORD PTR $T224863[ebp]
	push	ecx
	lea	edx, DWORD PTR _strLoc$[ebp]
	push	edx
	call	??$?6PBD@@YAAAVString@Localization@@AAV01@ABQBD@Z ; operator<<<char const *>
	add	esp, 8

; 1078 : 
; 1079 : 				CvMinorCivInfo* pkMinorCivInfo = GC.getMinorCivInfo(GET_PLAYER((PlayerTypes)iMinorCiv).GetMinorCivAI()->GetMinorCivType());

	mov	eax, DWORD PTR _iMinorCiv$223281[ebp]
	imul	eax, 63236				; 0000f704H
	add	eax, DWORD PTR ?m_aPlayers@CvPlayerAI@@1PAV1@A ; CvPlayerAI::m_aPlayers
	mov	DWORD PTR $T225331[ebp], eax
	mov	ecx, DWORD PTR $T225331[ebp]
	call	?GetMinorCivAI@CvPlayer@@QBEPAVCvMinorCivAI@@XZ ; CvPlayer::GetMinorCivAI
	mov	ecx, eax
	call	?GetMinorCivType@CvMinorCivAI@@QBE?AW4MinorCivTypes@@XZ ; CvMinorCivAI::GetMinorCivType
	push	eax
	mov	ecx, OFFSET ?gGlobals@@3VCvGlobals@@A	; gGlobals
	call	?getMinorCivInfo@CvGlobals@@QAEPAVCvMinorCivInfo@@W4MinorCivTypes@@@Z ; CvGlobals::getMinorCivInfo
	mov	DWORD PTR _pkMinorCivInfo$223286[ebp], eax

; 1080 : 				if(pkMinorCivInfo != NULL)

	cmp	DWORD PTR _pkMinorCivInfo$223286[ebp], 0
	je	SHORT $LN205@BuildCouns

; 1081 : 					strLoc << pkMinorCivInfo->GetTextKey();

	mov	ecx, DWORD PTR _pkMinorCivInfo$223286[ebp]
	call	?GetTextKey@CvBaseInfo@@QBEPBDXZ	; CvBaseInfo::GetTextKey
	mov	DWORD PTR $T224864[ebp], eax
	lea	ecx, DWORD PTR $T224864[ebp]
	push	ecx
	lea	edx, DWORD PTR _strLoc$[ebp]
	push	edx
	call	??$?6PBD@@YAAAVString@Localization@@AAV01@ABQBD@Z ; operator<<<char const *>
	add	esp, 8
$LN205@BuildCouns:

; 1082 : 			}
; 1083 : 		}
; 1084 : 		break;

	jmp	$LN211@BuildCouns
$LN203@BuildCouns:

; 1085 : 		case DISPUTE_LEVEL_FIERCE:
; 1086 : 		{
; 1087 : 			iMessageRating = 40;

	mov	DWORD PTR _iMessageRating$223252[ebp], 40 ; 00000028H

; 1088 : 
; 1089 : 			DiploStatementTypes eStatement;
; 1090 : 			int iMinorCiv = NO_PLAYER;

	mov	DWORD PTR _iMinorCiv$223292[ebp], -1

; 1091 : 			pDiplomacyAI->DoMinorCivCompetitionStatement(eOtherPlayer, eStatement, iMinorCiv, true);

	push	1
	lea	eax, DWORD PTR _iMinorCiv$223292[ebp]
	push	eax
	lea	ecx, DWORD PTR _eStatement$223291[ebp]
	push	ecx
	mov	edx, DWORD PTR _eOtherPlayer$223254[ebp]
	push	edx
	mov	ecx, DWORD PTR _pDiplomacyAI$[ebp]
	call	?DoMinorCivCompetitionStatement@CvDiplomacyAI@@QAEXW4PlayerTypes@@AAW4DiploStatementTypes@@AAH_N@Z ; CvDiplomacyAI::DoMinorCivCompetitionStatement

; 1092 : 
; 1093 : 			if(iMinorCiv != NO_PLAYER)

	cmp	DWORD PTR _iMinorCiv$223292[ebp], -1
	je	$LN211@BuildCouns

; 1094 : 			{
; 1095 : 				eAdvisor = ADVISOR_FOREIGN;

	mov	DWORD PTR _eAdvisor$223253[ebp], 2

; 1096 : 				strLoc = Localization::Lookup("TXT_KEY_DIPLOSTRATEGY_MINOR_CIV_DISPUTE_LEVEL_FIERCE");

	push	OFFSET ??_C@_0DF@DLEIGOFD@TXT_KEY_DIPLOSTRATEGY_MINOR_CIV_@
	lea	eax, DWORD PTR $T224865[ebp]
	push	eax
	call	DWORD PTR __imp_?Lookup@Localization@@YA?AVString@1@PBD@Z
	add	esp, 8
	mov	DWORD PTR tv4311[ebp], eax
	mov	ecx, DWORD PTR tv4311[ebp]
	mov	DWORD PTR tv3764[ebp], ecx
	mov	BYTE PTR __$EHRec$[ebp+8], 47		; 0000002fH
	mov	edx, DWORD PTR tv3764[ebp]
	push	edx
	lea	ecx, DWORD PTR _strLoc$[ebp]
	call	DWORD PTR __imp_??4String@Localization@@QAEAAV01@ABV01@@Z
	mov	BYTE PTR __$EHRec$[ebp+8], 0
	lea	ecx, DWORD PTR $T224865[ebp]
	call	DWORD PTR __imp_??1String@Localization@@UAE@XZ

; 1097 : 
; 1098 : 				strLoc << GET_PLAYER(eOtherPlayer).getCivilizationInfo().GetTextKey();

	mov	eax, DWORD PTR _eOtherPlayer$223254[ebp]
	imul	eax, 63236				; 0000f704H
	add	eax, DWORD PTR ?m_aPlayers@CvPlayerAI@@1PAV1@A ; CvPlayerAI::m_aPlayers
	mov	DWORD PTR $T225335[ebp], eax
	mov	ecx, DWORD PTR $T225335[ebp]
	call	?getCivilizationInfo@CvPlayer@@QBEAAVCvCivilizationInfo@@XZ ; CvPlayer::getCivilizationInfo
	mov	ecx, eax
	call	?GetTextKey@CvBaseInfo@@QBEPBDXZ	; CvBaseInfo::GetTextKey
	mov	DWORD PTR $T224866[ebp], eax
	lea	ecx, DWORD PTR $T224866[ebp]
	push	ecx
	lea	edx, DWORD PTR _strLoc$[ebp]
	push	edx
	call	??$?6PBD@@YAAAVString@Localization@@AAV01@ABQBD@Z ; operator<<<char const *>
	add	esp, 8

; 1099 : 
; 1100 : 				CvMinorCivInfo* pkMinorCivInfo = GC.getMinorCivInfo(GET_PLAYER((PlayerTypes)iMinorCiv).GetMinorCivAI()->GetMinorCivType());

	mov	eax, DWORD PTR _iMinorCiv$223292[ebp]
	imul	eax, 63236				; 0000f704H
	add	eax, DWORD PTR ?m_aPlayers@CvPlayerAI@@1PAV1@A ; CvPlayerAI::m_aPlayers
	mov	DWORD PTR $T225339[ebp], eax
	mov	ecx, DWORD PTR $T225339[ebp]
	call	?GetMinorCivAI@CvPlayer@@QBEPAVCvMinorCivAI@@XZ ; CvPlayer::GetMinorCivAI
	mov	ecx, eax
	call	?GetMinorCivType@CvMinorCivAI@@QBE?AW4MinorCivTypes@@XZ ; CvMinorCivAI::GetMinorCivType
	push	eax
	mov	ecx, OFFSET ?gGlobals@@3VCvGlobals@@A	; gGlobals
	call	?getMinorCivInfo@CvGlobals@@QAEPAVCvMinorCivInfo@@W4MinorCivTypes@@@Z ; CvGlobals::getMinorCivInfo
	mov	DWORD PTR _pkMinorCivInfo$223297[ebp], eax

; 1101 : 				if(pkMinorCivInfo != NULL)

	cmp	DWORD PTR _pkMinorCivInfo$223297[ebp], 0
	je	SHORT $LN211@BuildCouns

; 1102 : 					strLoc << pkMinorCivInfo->GetTextKey();

	mov	ecx, DWORD PTR _pkMinorCivInfo$223297[ebp]
	call	?GetTextKey@CvBaseInfo@@QBEPBDXZ	; CvBaseInfo::GetTextKey
	mov	DWORD PTR $T224867[ebp], eax
	lea	ecx, DWORD PTR $T224867[ebp]
	push	ecx
	lea	edx, DWORD PTR _strLoc$[ebp]
	push	edx
	call	??$?6PBD@@YAAAVString@Localization@@AAV01@ABQBD@Z ; operator<<<char const *>
	add	esp, 8
$LN211@BuildCouns:

; 1103 : 			}
; 1104 : 		}
; 1105 : 		break;
; 1106 : 		}
; 1107 : 
; 1108 : 		if(eAdvisor != NO_ADVISOR_TYPE)

	cmp	DWORD PTR _eAdvisor$223253[ebp], -1
	je	SHORT $LN200@BuildCouns

; 1109 : 		{
; 1110 : 			bool bSuccess = SetCounselEntry(uiCounselIndex, eAdvisor, strLoc.toUTF8(), iMessageRating);

	mov	eax, DWORD PTR _iMessageRating$223252[ebp]
	push	eax
	lea	ecx, DWORD PTR _strLoc$[ebp]
	call	DWORD PTR __imp_?toUTF8@String@Localization@@QAEPBDXZ
	push	eax
	mov	ecx, DWORD PTR _eAdvisor$223253[ebp]
	push	ecx
	mov	edx, DWORD PTR _uiCounselIndex$[ebp]
	push	edx
	mov	ecx, DWORD PTR _this$[ebp]
	call	?SetCounselEntry@CvAdvisorCounsel@@QAE_NIW4AdvisorTypes@@PBDH@Z ; CvAdvisorCounsel::SetCounselEntry
	mov	BYTE PTR _bSuccess$223302[ebp], al

; 1111 : 			CvAssertMsg(bSuccess, "Unable to add counsel to list. Too many strategies running at once");
; 1112 : 			if(!bSuccess)

	movzx	eax, BYTE PTR _bSuccess$223302[ebp]
	test	eax, eax
	jne	SHORT $LN199@BuildCouns

; 1113 : 			{
; 1114 : 				break;

	jmp	SHORT $LN218@BuildCouns
$LN199@BuildCouns:

; 1115 : 			}
; 1116 : 			uiCounselIndex++;

	mov	ecx, DWORD PTR _uiCounselIndex$[ebp]
	add	ecx, 1
	mov	DWORD PTR _uiCounselIndex$[ebp], ecx
$LN200@BuildCouns:

; 1117 : 		}
; 1118 : 	}

	jmp	$LN219@BuildCouns
$LN218@BuildCouns:

; 1119 : 
; 1120 : 	// evaluate our gold situation
; 1121 : 	{
; 1122 : 		int iMessageRating = 0;

	mov	DWORD PTR _iMessageRating$223304[ebp], 0

; 1123 : 		AdvisorTypes eAdvisor = ADVISOR_ECONOMIC;

	mov	DWORD PTR _eAdvisor$223305[ebp], 1

; 1124 : 		CvTreasury* pTreasury = GET_PLAYER(ePlayer).GetTreasury();

	mov	edx, DWORD PTR _ePlayer$[ebp]
	imul	edx, 63236				; 0000f704H
	add	edx, DWORD PTR ?m_aPlayers@CvPlayerAI@@1PAV1@A ; CvPlayerAI::m_aPlayers
	mov	DWORD PTR $T225343[ebp], edx
	mov	ecx, DWORD PTR $T225343[ebp]
	call	?GetTreasury@CvPlayer@@QBEPAVCvTreasury@@XZ ; CvPlayer::GetTreasury
	mov	DWORD PTR _pTreasury$223306[ebp], eax

; 1125 : 
; 1126 : 		int iGoldIncome = GET_PLAYER(ePlayer).calculateGoldRate();

	mov	eax, DWORD PTR _ePlayer$[ebp]
	imul	eax, 63236				; 0000f704H
	add	eax, DWORD PTR ?m_aPlayers@CvPlayerAI@@1PAV1@A ; CvPlayerAI::m_aPlayers
	mov	DWORD PTR $T225347[ebp], eax
	mov	ecx, DWORD PTR $T225347[ebp]
	call	?calculateGoldRate@CvPlayer@@QBEHXZ	; CvPlayer::calculateGoldRate
	mov	DWORD PTR _iGoldIncome$223307[ebp], eax

; 1127 : 		int iGold = pTreasury->GetGold();

	mov	ecx, DWORD PTR _pTreasury$223306[ebp]
	call	?GetGold@CvTreasury@@QBEHXZ		; CvTreasury::GetGold
	mov	DWORD PTR _iGold$223308[ebp], eax

; 1128 : 
; 1129 : 		int iHighestCost = 0;

	mov	DWORD PTR _iHighestCost$223309[ebp], 0

; 1130 : 		enum
; 1131 : 		{
; 1132 : 		    COST_UNIT_MAINTENANCE,
; 1133 : 		    COST_UNIT_SUPPLY,
; 1134 : 		    COST_BUILDING_MAINTENANCE,
; 1135 : 		    COST_IMPROVEMENT_MAINTENANCE,
; 1136 : 		    COST_DIPLOMACY,
; 1137 : 		    NUM_COSTS
; 1138 : 		};
; 1139 : 		int uiHighestCostCategory = NUM_COSTS;

	mov	DWORD PTR _uiHighestCostCategory$223317[ebp], 5

; 1140 : 
; 1141 : 		for(uint ui = 0; ui < NUM_COSTS; ui++)

	mov	DWORD PTR _ui$223318[ebp], 0
	jmp	SHORT $LN198@BuildCouns
$LN197@BuildCouns:
	mov	ecx, DWORD PTR _ui$223318[ebp]
	add	ecx, 1
	mov	DWORD PTR _ui$223318[ebp], ecx
$LN198@BuildCouns:
	cmp	DWORD PTR _ui$223318[ebp], 5
	jae	$LN196@BuildCouns

; 1142 : 		{
; 1143 : 			switch(ui)

	mov	edx, DWORD PTR _ui$223318[ebp]
	mov	DWORD PTR tv2249[ebp], edx
	cmp	DWORD PTR tv2249[ebp], 4
	ja	$LN194@BuildCouns
	mov	eax, DWORD PTR tv2249[ebp]
	jmp	DWORD PTR $LN1057@BuildCouns[eax*4]
$LN193@BuildCouns:

; 1144 : 			{
; 1145 : 			case COST_UNIT_MAINTENANCE:
; 1146 : 				if(pTreasury->GetExpensePerTurnUnitMaintenance() > iHighestCost)

	mov	ecx, DWORD PTR _pTreasury$223306[ebp]
	mov	edx, DWORD PTR [ecx+16]
	mov	DWORD PTR $T225351[ebp], edx
	mov	eax, DWORD PTR $T225351[ebp]
	cmp	eax, DWORD PTR _iHighestCost$223309[ebp]
	jle	SHORT $LN192@BuildCouns

; 1147 : 				{
; 1148 : 					uiHighestCostCategory = ui;

	mov	ecx, DWORD PTR _ui$223318[ebp]
	mov	DWORD PTR _uiHighestCostCategory$223317[ebp], ecx

; 1149 : 					iHighestCost = pTreasury->GetExpensePerTurnUnitMaintenance();

	mov	edx, DWORD PTR _pTreasury$223306[ebp]
	mov	eax, DWORD PTR [edx+16]
	mov	DWORD PTR $T225355[ebp], eax
	mov	ecx, DWORD PTR $T225355[ebp]
	mov	DWORD PTR _iHighestCost$223309[ebp], ecx
$LN192@BuildCouns:

; 1150 : 				}
; 1151 : 				break;

	jmp	$LN194@BuildCouns
$LN191@BuildCouns:

; 1152 : 			case COST_UNIT_SUPPLY:
; 1153 : 				if(pTreasury->GetExpensePerTurnUnitSupply() > iHighestCost)

	mov	edx, DWORD PTR _pTreasury$223306[ebp]
	mov	eax, DWORD PTR [edx+20]
	mov	DWORD PTR $T225359[ebp], eax
	mov	ecx, DWORD PTR $T225359[ebp]
	cmp	ecx, DWORD PTR _iHighestCost$223309[ebp]
	jle	SHORT $LN190@BuildCouns

; 1154 : 				{
; 1155 : 					uiHighestCostCategory = ui;

	mov	edx, DWORD PTR _ui$223318[ebp]
	mov	DWORD PTR _uiHighestCostCategory$223317[ebp], edx

; 1156 : 					iHighestCost = pTreasury->GetExpensePerTurnUnitSupply();

	mov	eax, DWORD PTR _pTreasury$223306[ebp]
	mov	ecx, DWORD PTR [eax+20]
	mov	DWORD PTR $T225363[ebp], ecx
	mov	edx, DWORD PTR $T225363[ebp]
	mov	DWORD PTR _iHighestCost$223309[ebp], edx
$LN190@BuildCouns:

; 1157 : 				}
; 1158 : 				break;

	jmp	$LN194@BuildCouns
$LN189@BuildCouns:

; 1159 : 			case COST_BUILDING_MAINTENANCE:
; 1160 : 				if(pTreasury->GetBuildingGoldMaintenance() > iHighestCost)

	mov	ecx, DWORD PTR _pTreasury$223306[ebp]
	call	?GetBuildingGoldMaintenance@CvTreasury@@QBEHXZ ; CvTreasury::GetBuildingGoldMaintenance
	cmp	eax, DWORD PTR _iHighestCost$223309[ebp]
	jle	SHORT $LN188@BuildCouns

; 1161 : 				{
; 1162 : 					uiHighestCostCategory = ui;

	mov	eax, DWORD PTR _ui$223318[ebp]
	mov	DWORD PTR _uiHighestCostCategory$223317[ebp], eax

; 1163 : 					iHighestCost = pTreasury->GetBuildingGoldMaintenance();

	mov	ecx, DWORD PTR _pTreasury$223306[ebp]
	call	?GetBuildingGoldMaintenance@CvTreasury@@QBEHXZ ; CvTreasury::GetBuildingGoldMaintenance
	mov	DWORD PTR _iHighestCost$223309[ebp], eax
$LN188@BuildCouns:

; 1164 : 				}
; 1165 : 				break;

	jmp	SHORT $LN194@BuildCouns
$LN187@BuildCouns:

; 1166 : 			case COST_IMPROVEMENT_MAINTENANCE:
; 1167 : 				if(pTreasury->GetImprovementGoldMaintenance() > iHighestCost)

	mov	ecx, DWORD PTR _pTreasury$223306[ebp]
	call	?GetImprovementGoldMaintenance@CvTreasury@@QBEHXZ ; CvTreasury::GetImprovementGoldMaintenance
	cmp	eax, DWORD PTR _iHighestCost$223309[ebp]
	jle	SHORT $LN186@BuildCouns

; 1168 : 				{
; 1169 : 					uiHighestCostCategory = ui;

	mov	ecx, DWORD PTR _ui$223318[ebp]
	mov	DWORD PTR _uiHighestCostCategory$223317[ebp], ecx

; 1170 : 					iHighestCost = pTreasury->GetBuildingGoldMaintenance();

	mov	ecx, DWORD PTR _pTreasury$223306[ebp]
	call	?GetBuildingGoldMaintenance@CvTreasury@@QBEHXZ ; CvTreasury::GetBuildingGoldMaintenance
	mov	DWORD PTR _iHighestCost$223309[ebp], eax
$LN186@BuildCouns:

; 1171 : 				}
; 1172 : 				break;

	jmp	SHORT $LN194@BuildCouns
$LN185@BuildCouns:

; 1173 : 			case COST_DIPLOMACY:
; 1174 : 				if(pTreasury->GetGoldPerTurnFromDiplomacy() < -(iHighestCost))

	mov	ecx, DWORD PTR _pTreasury$223306[ebp]
	call	?GetGoldPerTurnFromDiplomacy@CvTreasury@@QBEHXZ ; CvTreasury::GetGoldPerTurnFromDiplomacy
	mov	edx, DWORD PTR _iHighestCost$223309[ebp]
	neg	edx
	cmp	eax, edx
	jge	SHORT $LN194@BuildCouns

; 1175 : 				{
; 1176 : 					uiHighestCostCategory = ui;

	mov	eax, DWORD PTR _ui$223318[ebp]
	mov	DWORD PTR _uiHighestCostCategory$223317[ebp], eax

; 1177 : 					iHighestCost = -(pTreasury->GetGoldPerTurnFromDiplomacy());

	mov	ecx, DWORD PTR _pTreasury$223306[ebp]
	call	?GetGoldPerTurnFromDiplomacy@CvTreasury@@QBEHXZ ; CvTreasury::GetGoldPerTurnFromDiplomacy
	neg	eax
	mov	DWORD PTR _iHighestCost$223309[ebp], eax
$LN194@BuildCouns:

; 1178 : 				}
; 1179 : 				break;
; 1180 : 			}
; 1181 : 		}

	jmp	$LN197@BuildCouns
$LN196@BuildCouns:

; 1182 : 
; 1183 : 
; 1184 : 		if(iGold <= 0)  // we're bankrupt

	cmp	DWORD PTR _iGold$223308[ebp], 0
	jg	$LN183@BuildCouns

; 1185 : 		{
; 1186 : 			if(iGoldIncome <= 0)

	cmp	DWORD PTR _iGoldIncome$223307[ebp], 0
	jg	$LN182@BuildCouns

; 1187 : 			{
; 1188 : 				//    if our income is negative or zero
; 1189 : 				iMessageRating = 99;

	mov	DWORD PTR _iMessageRating$223304[ebp], 99 ; 00000063H

; 1190 : 				switch(uiHighestCostCategory)

	mov	ecx, DWORD PTR _uiHighestCostCategory$223317[ebp]
	mov	DWORD PTR tv2280[ebp], ecx
	cmp	DWORD PTR tv2280[ebp], 4
	ja	$LN174@BuildCouns
	mov	edx, DWORD PTR tv2280[ebp]
	jmp	DWORD PTR $LN1058@BuildCouns[edx*4]
$LN179@BuildCouns:

; 1191 : 				{
; 1192 : 				case COST_UNIT_MAINTENANCE:
; 1193 : 					strLoc = Localization::Lookup("TXT_KEY_FINANCESTRATEGY_BROKE_AND_GOING_DOWN_UNIT_MAINTENANCE");

	push	OFFSET ??_C@_0DO@EEOOACFI@TXT_KEY_FINANCESTRATEGY_BROKE_AN@
	lea	eax, DWORD PTR $T224868[ebp]
	push	eax
	call	DWORD PTR __imp_?Lookup@Localization@@YA?AVString@1@PBD@Z
	add	esp, 8
	mov	DWORD PTR tv4287[ebp], eax
	mov	ecx, DWORD PTR tv4287[ebp]
	mov	DWORD PTR tv3766[ebp], ecx
	mov	BYTE PTR __$EHRec$[ebp+8], 48		; 00000030H
	mov	edx, DWORD PTR tv3766[ebp]
	push	edx
	lea	ecx, DWORD PTR _strLoc$[ebp]
	call	DWORD PTR __imp_??4String@Localization@@QAEAAV01@ABV01@@Z
	mov	BYTE PTR __$EHRec$[ebp+8], 0
	lea	ecx, DWORD PTR $T224868[ebp]
	call	DWORD PTR __imp_??1String@Localization@@UAE@XZ

; 1194 : 					strLoc << iHighestCost;

	lea	eax, DWORD PTR _iHighestCost$223309[ebp]
	push	eax
	lea	ecx, DWORD PTR _strLoc$[ebp]
	push	ecx
	call	??$?6H@@YAAAVString@Localization@@AAV01@ABH@Z ; operator<<<int>
	add	esp, 8

; 1195 : 					break;

	jmp	$LN180@BuildCouns
$LN178@BuildCouns:

; 1196 : 				case COST_UNIT_SUPPLY:
; 1197 : 					strLoc = Localization::Lookup("TXT_KEY_FINANCESTRATEGY_BROKE_AND_GOING_DOWN_UNIT_SUPPLY");

	push	OFFSET ??_C@_0DJ@LCDEAFJF@TXT_KEY_FINANCESTRATEGY_BROKE_AN@
	lea	edx, DWORD PTR $T224869[ebp]
	push	edx
	call	DWORD PTR __imp_?Lookup@Localization@@YA?AVString@1@PBD@Z
	add	esp, 8
	mov	DWORD PTR tv4340[ebp], eax
	mov	eax, DWORD PTR tv4340[ebp]
	mov	DWORD PTR tv3768[ebp], eax
	mov	BYTE PTR __$EHRec$[ebp+8], 49		; 00000031H
	mov	ecx, DWORD PTR tv3768[ebp]
	push	ecx
	lea	ecx, DWORD PTR _strLoc$[ebp]
	call	DWORD PTR __imp_??4String@Localization@@QAEAAV01@ABV01@@Z
	mov	BYTE PTR __$EHRec$[ebp+8], 0
	lea	ecx, DWORD PTR $T224869[ebp]
	call	DWORD PTR __imp_??1String@Localization@@UAE@XZ

; 1198 : 					strLoc << iHighestCost;

	lea	edx, DWORD PTR _iHighestCost$223309[ebp]
	push	edx
	lea	eax, DWORD PTR _strLoc$[ebp]
	push	eax
	call	??$?6H@@YAAAVString@Localization@@AAV01@ABH@Z ; operator<<<int>
	add	esp, 8

; 1199 : 					break;

	jmp	$LN180@BuildCouns
$LN177@BuildCouns:

; 1200 : 				case COST_BUILDING_MAINTENANCE:
; 1201 : 					strLoc = Localization::Lookup("TXT_KEY_FINANCESTRATEGY_BROKE_AND_GOING_DOWN_BUILDING_MAINTENANCE");

	push	OFFSET ??_C@_0EC@OMLHJIOE@TXT_KEY_FINANCESTRATEGY_BROKE_AN@
	lea	ecx, DWORD PTR $T224870[ebp]
	push	ecx
	call	DWORD PTR __imp_?Lookup@Localization@@YA?AVString@1@PBD@Z
	add	esp, 8
	mov	DWORD PTR tv4346[ebp], eax
	mov	edx, DWORD PTR tv4346[ebp]
	mov	DWORD PTR tv3770[ebp], edx
	mov	BYTE PTR __$EHRec$[ebp+8], 50		; 00000032H
	mov	eax, DWORD PTR tv3770[ebp]
	push	eax
	lea	ecx, DWORD PTR _strLoc$[ebp]
	call	DWORD PTR __imp_??4String@Localization@@QAEAAV01@ABV01@@Z
	mov	BYTE PTR __$EHRec$[ebp+8], 0
	lea	ecx, DWORD PTR $T224870[ebp]
	call	DWORD PTR __imp_??1String@Localization@@UAE@XZ

; 1202 : 					strLoc << iHighestCost;

	lea	ecx, DWORD PTR _iHighestCost$223309[ebp]
	push	ecx
	lea	edx, DWORD PTR _strLoc$[ebp]
	push	edx
	call	??$?6H@@YAAAVString@Localization@@AAV01@ABH@Z ; operator<<<int>
	add	esp, 8

; 1203 : 					break;

	jmp	$LN180@BuildCouns
$LN176@BuildCouns:

; 1204 : 				case COST_IMPROVEMENT_MAINTENANCE:
; 1205 : 					strLoc = Localization::Lookup("TXT_KEY_FINANCESTRATEGY_BROKE_AND_GOING_DOWN_DIPLOMACY");

	push	OFFSET ??_C@_0DH@PFOLGGBN@TXT_KEY_FINANCESTRATEGY_BROKE_AN@
	lea	eax, DWORD PTR $T224871[ebp]
	push	eax
	call	DWORD PTR __imp_?Lookup@Localization@@YA?AVString@1@PBD@Z
	add	esp, 8
	mov	DWORD PTR tv4334[ebp], eax
	mov	ecx, DWORD PTR tv4334[ebp]
	mov	DWORD PTR tv3772[ebp], ecx
	mov	BYTE PTR __$EHRec$[ebp+8], 51		; 00000033H
	mov	edx, DWORD PTR tv3772[ebp]
	push	edx
	lea	ecx, DWORD PTR _strLoc$[ebp]
	call	DWORD PTR __imp_??4String@Localization@@QAEAAV01@ABV01@@Z
	mov	BYTE PTR __$EHRec$[ebp+8], 0
	lea	ecx, DWORD PTR $T224871[ebp]
	call	DWORD PTR __imp_??1String@Localization@@UAE@XZ

; 1206 : 					strLoc << iHighestCost;

	lea	eax, DWORD PTR _iHighestCost$223309[ebp]
	push	eax
	lea	ecx, DWORD PTR _strLoc$[ebp]
	push	ecx
	call	??$?6H@@YAAAVString@Localization@@AAV01@ABH@Z ; operator<<<int>
	add	esp, 8

; 1207 : 					break;

	jmp	$LN180@BuildCouns
$LN175@BuildCouns:

; 1208 : 				case COST_DIPLOMACY:
; 1209 : 					strLoc = Localization::Lookup("TXT_KEY_FINANCESTRATEGY_BROKE_AND_GOING_DOWN_IMPROVEMENT_MAINTENANCE");

	push	OFFSET ??_C@_0EF@EHAPGEEB@TXT_KEY_FINANCESTRATEGY_BROKE_AN@
	lea	edx, DWORD PTR $T224872[ebp]
	push	edx
	call	DWORD PTR __imp_?Lookup@Localization@@YA?AVString@1@PBD@Z
	add	esp, 8
	mov	DWORD PTR tv4292[ebp], eax
	mov	eax, DWORD PTR tv4292[ebp]
	mov	DWORD PTR tv3774[ebp], eax
	mov	BYTE PTR __$EHRec$[ebp+8], 52		; 00000034H
	mov	ecx, DWORD PTR tv3774[ebp]
	push	ecx
	lea	ecx, DWORD PTR _strLoc$[ebp]
	call	DWORD PTR __imp_??4String@Localization@@QAEAAV01@ABV01@@Z
	mov	BYTE PTR __$EHRec$[ebp+8], 0
	lea	ecx, DWORD PTR $T224872[ebp]
	call	DWORD PTR __imp_??1String@Localization@@UAE@XZ

; 1210 : 					strLoc << iHighestCost;

	lea	edx, DWORD PTR _iHighestCost$223309[ebp]
	push	edx
	lea	eax, DWORD PTR _strLoc$[ebp]
	push	eax
	call	??$?6H@@YAAAVString@Localization@@AAV01@ABH@Z ; operator<<<int>
	add	esp, 8

; 1211 : 					break;

	jmp	SHORT $LN180@BuildCouns
$LN174@BuildCouns:

; 1212 : 				default:
; 1213 : 					strLoc = Localization::Lookup("TXT_KEY_FINANCESTRATEGY_BROKE_AND_GOING_DOWN");

	push	OFFSET ??_C@_0CN@GFICBOPN@TXT_KEY_FINANCESTRATEGY_BROKE_AN@
	lea	ecx, DWORD PTR $T224873[ebp]
	push	ecx
	call	DWORD PTR __imp_?Lookup@Localization@@YA?AVString@1@PBD@Z
	add	esp, 8
	mov	DWORD PTR tv4270[ebp], eax
	mov	edx, DWORD PTR tv4270[ebp]
	mov	DWORD PTR tv3776[ebp], edx
	mov	BYTE PTR __$EHRec$[ebp+8], 53		; 00000035H
	mov	eax, DWORD PTR tv3776[ebp]
	push	eax
	lea	ecx, DWORD PTR _strLoc$[ebp]
	call	DWORD PTR __imp_??4String@Localization@@QAEAAV01@ABV01@@Z
	mov	BYTE PTR __$EHRec$[ebp+8], 0
	lea	ecx, DWORD PTR $T224873[ebp]
	call	DWORD PTR __imp_??1String@Localization@@UAE@XZ
$LN180@BuildCouns:

; 1214 : 					break;
; 1215 : 				}
; 1216 : 			}
; 1217 : 			else

	jmp	$LN173@BuildCouns
$LN182@BuildCouns:

; 1218 : 			{
; 1219 : 				iMessageRating = 95;

	mov	DWORD PTR _iMessageRating$223304[ebp], 95 ; 0000005fH

; 1220 : 				switch(uiHighestCostCategory)

	mov	ecx, DWORD PTR _uiHighestCostCategory$223317[ebp]
	mov	DWORD PTR tv2334[ebp], ecx
	cmp	DWORD PTR tv2334[ebp], 4
	ja	$LN165@BuildCouns
	mov	edx, DWORD PTR tv2334[ebp]
	jmp	DWORD PTR $LN1059@BuildCouns[edx*4]
$LN170@BuildCouns:

; 1221 : 				{
; 1222 : 				case COST_UNIT_MAINTENANCE:
; 1223 : 					strLoc = Localization::Lookup("TXT_KEY_FINANCESTRATEGY_BROKE_AND_GOING_UP_UNIT_MAINTENANCE");

	push	OFFSET ??_C@_0DM@HFJHPAOA@TXT_KEY_FINANCESTRATEGY_BROKE_AN@
	lea	eax, DWORD PTR $T224874[ebp]
	push	eax
	call	DWORD PTR __imp_?Lookup@Localization@@YA?AVString@1@PBD@Z
	add	esp, 8
	mov	DWORD PTR tv4271[ebp], eax
	mov	ecx, DWORD PTR tv4271[ebp]
	mov	DWORD PTR tv3778[ebp], ecx
	mov	BYTE PTR __$EHRec$[ebp+8], 54		; 00000036H
	mov	edx, DWORD PTR tv3778[ebp]
	push	edx
	lea	ecx, DWORD PTR _strLoc$[ebp]
	call	DWORD PTR __imp_??4String@Localization@@QAEAAV01@ABV01@@Z
	mov	BYTE PTR __$EHRec$[ebp+8], 0
	lea	ecx, DWORD PTR $T224874[ebp]
	call	DWORD PTR __imp_??1String@Localization@@UAE@XZ

; 1224 : 					strLoc << iHighestCost;

	lea	eax, DWORD PTR _iHighestCost$223309[ebp]
	push	eax
	lea	ecx, DWORD PTR _strLoc$[ebp]
	push	ecx
	call	??$?6H@@YAAAVString@Localization@@AAV01@ABH@Z ; operator<<<int>
	add	esp, 8

; 1225 : 					break;

	jmp	$LN173@BuildCouns
$LN169@BuildCouns:

; 1226 : 				case COST_UNIT_SUPPLY:
; 1227 : 					strLoc = Localization::Lookup("TXT_KEY_FINANCESTRATEGY_BROKE_AND_GOING_UP_UNIT_SUPPLY");

	push	OFFSET ??_C@_0DH@EJKGPOKA@TXT_KEY_FINANCESTRATEGY_BROKE_AN@
	lea	edx, DWORD PTR $T224875[ebp]
	push	edx
	call	DWORD PTR __imp_?Lookup@Localization@@YA?AVString@1@PBD@Z
	add	esp, 8
	mov	DWORD PTR tv4269[ebp], eax
	mov	eax, DWORD PTR tv4269[ebp]
	mov	DWORD PTR tv3780[ebp], eax
	mov	BYTE PTR __$EHRec$[ebp+8], 55		; 00000037H
	mov	ecx, DWORD PTR tv3780[ebp]
	push	ecx
	lea	ecx, DWORD PTR _strLoc$[ebp]
	call	DWORD PTR __imp_??4String@Localization@@QAEAAV01@ABV01@@Z
	mov	BYTE PTR __$EHRec$[ebp+8], 0
	lea	ecx, DWORD PTR $T224875[ebp]
	call	DWORD PTR __imp_??1String@Localization@@UAE@XZ

; 1228 : 					strLoc << iHighestCost;

	lea	edx, DWORD PTR _iHighestCost$223309[ebp]
	push	edx
	lea	eax, DWORD PTR _strLoc$[ebp]
	push	eax
	call	??$?6H@@YAAAVString@Localization@@AAV01@ABH@Z ; operator<<<int>
	add	esp, 8

; 1229 : 					break;

	jmp	$LN173@BuildCouns
$LN168@BuildCouns:

; 1230 : 				case COST_BUILDING_MAINTENANCE:
; 1231 : 					strLoc = Localization::Lookup("TXT_KEY_FINANCESTRATEGY_BROKE_AND_GOING_UP_BUILDING_MAINTENANCE");

	push	OFFSET ??_C@_0EA@CNBCJLKK@TXT_KEY_FINANCESTRATEGY_BROKE_AN@
	lea	ecx, DWORD PTR $T224876[ebp]
	push	ecx
	call	DWORD PTR __imp_?Lookup@Localization@@YA?AVString@1@PBD@Z
	add	esp, 8
	mov	DWORD PTR tv4337[ebp], eax
	mov	edx, DWORD PTR tv4337[ebp]
	mov	DWORD PTR tv3782[ebp], edx
	mov	BYTE PTR __$EHRec$[ebp+8], 56		; 00000038H
	mov	eax, DWORD PTR tv3782[ebp]
	push	eax
	lea	ecx, DWORD PTR _strLoc$[ebp]
	call	DWORD PTR __imp_??4String@Localization@@QAEAAV01@ABV01@@Z
	mov	BYTE PTR __$EHRec$[ebp+8], 0
	lea	ecx, DWORD PTR $T224876[ebp]
	call	DWORD PTR __imp_??1String@Localization@@UAE@XZ

; 1232 : 					strLoc << iHighestCost;

	lea	ecx, DWORD PTR _iHighestCost$223309[ebp]
	push	ecx
	lea	edx, DWORD PTR _strLoc$[ebp]
	push	edx
	call	??$?6H@@YAAAVString@Localization@@AAV01@ABH@Z ; operator<<<int>
	add	esp, 8

; 1233 : 					break;

	jmp	$LN173@BuildCouns
$LN167@BuildCouns:

; 1234 : 				case COST_IMPROVEMENT_MAINTENANCE:
; 1235 : 					strLoc = Localization::Lookup("TXT_KEY_FINANCESTRATEGY_BROKE_AND_GOING_UP_IMPROVEMENT_MAINTENANCE");

	push	OFFSET ??_C@_0ED@LAJKMAOO@TXT_KEY_FINANCESTRATEGY_BROKE_AN@
	lea	eax, DWORD PTR $T224877[ebp]
	push	eax
	call	DWORD PTR __imp_?Lookup@Localization@@YA?AVString@1@PBD@Z
	add	esp, 8
	mov	DWORD PTR tv4533[ebp], eax
	mov	ecx, DWORD PTR tv4533[ebp]
	mov	DWORD PTR tv3784[ebp], ecx
	mov	BYTE PTR __$EHRec$[ebp+8], 57		; 00000039H
	mov	edx, DWORD PTR tv3784[ebp]
	push	edx
	lea	ecx, DWORD PTR _strLoc$[ebp]
	call	DWORD PTR __imp_??4String@Localization@@QAEAAV01@ABV01@@Z
	mov	BYTE PTR __$EHRec$[ebp+8], 0
	lea	ecx, DWORD PTR $T224877[ebp]
	call	DWORD PTR __imp_??1String@Localization@@UAE@XZ

; 1236 : 					strLoc << iHighestCost;

	lea	eax, DWORD PTR _iHighestCost$223309[ebp]
	push	eax
	lea	ecx, DWORD PTR _strLoc$[ebp]
	push	ecx
	call	??$?6H@@YAAAVString@Localization@@AAV01@ABH@Z ; operator<<<int>
	add	esp, 8

; 1237 : 					break;

	jmp	$LN173@BuildCouns
$LN166@BuildCouns:

; 1238 : 				case COST_DIPLOMACY:
; 1239 : 					strLoc = Localization::Lookup("TXT_KEY_FINANCESTRATEGY_BROKE_AND_GOING_UP_DIPLOMACY");

	push	OFFSET ??_C@_0DF@CLAFEALC@TXT_KEY_FINANCESTRATEGY_BROKE_AN@
	lea	edx, DWORD PTR $T224878[ebp]
	push	edx
	call	DWORD PTR __imp_?Lookup@Localization@@YA?AVString@1@PBD@Z
	add	esp, 8
	mov	DWORD PTR tv4352[ebp], eax
	mov	eax, DWORD PTR tv4352[ebp]
	mov	DWORD PTR tv3786[ebp], eax
	mov	BYTE PTR __$EHRec$[ebp+8], 58		; 0000003aH
	mov	ecx, DWORD PTR tv3786[ebp]
	push	ecx
	lea	ecx, DWORD PTR _strLoc$[ebp]
	call	DWORD PTR __imp_??4String@Localization@@QAEAAV01@ABV01@@Z
	mov	BYTE PTR __$EHRec$[ebp+8], 0
	lea	ecx, DWORD PTR $T224878[ebp]
	call	DWORD PTR __imp_??1String@Localization@@UAE@XZ

; 1240 : 					strLoc << iHighestCost;

	lea	edx, DWORD PTR _iHighestCost$223309[ebp]
	push	edx
	lea	eax, DWORD PTR _strLoc$[ebp]
	push	eax
	call	??$?6H@@YAAAVString@Localization@@AAV01@ABH@Z ; operator<<<int>
	add	esp, 8

; 1241 : 					break;

	jmp	SHORT $LN173@BuildCouns
$LN165@BuildCouns:

; 1242 : 				default:
; 1243 : 					strLoc = Localization::Lookup("TXT_KEY_FINANCESTRATEGY_BROKE_AND_GOING_UP");

	push	OFFSET ??_C@_0CL@DKOGLIOM@TXT_KEY_FINANCESTRATEGY_BROKE_AN@
	lea	ecx, DWORD PTR $T224879[ebp]
	push	ecx
	call	DWORD PTR __imp_?Lookup@Localization@@YA?AVString@1@PBD@Z
	add	esp, 8
	mov	DWORD PTR tv4342[ebp], eax
	mov	edx, DWORD PTR tv4342[ebp]
	mov	DWORD PTR tv3788[ebp], edx
	mov	BYTE PTR __$EHRec$[ebp+8], 59		; 0000003bH
	mov	eax, DWORD PTR tv3788[ebp]
	push	eax
	lea	ecx, DWORD PTR _strLoc$[ebp]
	call	DWORD PTR __imp_??4String@Localization@@QAEAAV01@ABV01@@Z
	mov	BYTE PTR __$EHRec$[ebp+8], 0
	lea	ecx, DWORD PTR $T224879[ebp]
	call	DWORD PTR __imp_??1String@Localization@@UAE@XZ
$LN173@BuildCouns:

; 1244 : 					break;
; 1245 : 				}
; 1246 : 			}
; 1247 : 		}
; 1248 : 		else // we're not bankrupt!

	jmp	$LN164@BuildCouns
$LN183@BuildCouns:

; 1249 : 		{
; 1250 : 			if(iGoldIncome <= 0)

	cmp	DWORD PTR _iGoldIncome$223307[ebp], 0
	jg	$LN163@BuildCouns

; 1251 : 			{
; 1252 : 				// we're going bankrupt
; 1253 : 				if(iGoldIncome < 0 && iGold / abs(iGoldIncome) <= 5)

	cmp	DWORD PTR _iGoldIncome$223307[ebp], 0
	jge	$LN162@BuildCouns
	mov	eax, DWORD PTR _iGoldIncome$223307[ebp]
	cdq
	mov	ecx, eax
	xor	ecx, edx
	sub	ecx, edx
	mov	eax, DWORD PTR _iGold$223308[ebp]
	cdq
	idiv	ecx
	cmp	eax, 5
	jg	$LN162@BuildCouns

; 1254 : 				{
; 1255 : 					iMessageRating = 80;

	mov	DWORD PTR _iMessageRating$223304[ebp], 80 ; 00000050H

; 1256 : 					switch(uiHighestCostCategory)

	mov	edx, DWORD PTR _uiHighestCostCategory$223317[ebp]
	mov	DWORD PTR tv2394[ebp], edx
	cmp	DWORD PTR tv2394[ebp], 4
	ja	$LN154@BuildCouns
	mov	eax, DWORD PTR tv2394[ebp]
	jmp	DWORD PTR $LN1060@BuildCouns[eax*4]
$LN159@BuildCouns:

; 1257 : 					{
; 1258 : 					case COST_UNIT_MAINTENANCE:
; 1259 : 						strLoc = Localization::Lookup("TXT_KEY_FINANCESTRATEGY_GOING_BROKE_UNIT_MAINTENANCE");

	push	OFFSET ??_C@_0DF@DLPHLOAL@TXT_KEY_FINANCESTRATEGY_GOING_BR@
	lea	ecx, DWORD PTR $T224880[ebp]
	push	ecx
	call	DWORD PTR __imp_?Lookup@Localization@@YA?AVString@1@PBD@Z
	add	esp, 8
	mov	DWORD PTR tv4291[ebp], eax
	mov	edx, DWORD PTR tv4291[ebp]
	mov	DWORD PTR tv3790[ebp], edx
	mov	BYTE PTR __$EHRec$[ebp+8], 60		; 0000003cH
	mov	eax, DWORD PTR tv3790[ebp]
	push	eax
	lea	ecx, DWORD PTR _strLoc$[ebp]
	call	DWORD PTR __imp_??4String@Localization@@QAEAAV01@ABV01@@Z
	mov	BYTE PTR __$EHRec$[ebp+8], 0
	lea	ecx, DWORD PTR $T224880[ebp]
	call	DWORD PTR __imp_??1String@Localization@@UAE@XZ

; 1260 : 						strLoc << iHighestCost;

	lea	ecx, DWORD PTR _iHighestCost$223309[ebp]
	push	ecx
	lea	edx, DWORD PTR _strLoc$[ebp]
	push	edx
	call	??$?6H@@YAAAVString@Localization@@AAV01@ABH@Z ; operator<<<int>
	add	esp, 8

; 1261 : 						break;

	jmp	$LN160@BuildCouns
$LN158@BuildCouns:

; 1262 : 					case COST_UNIT_SUPPLY:
; 1263 : 						strLoc = Localization::Lookup("TXT_KEY_FINANCESTRATEGY_GOING_BROKE_UNIT_SUPPLY");

	push	OFFSET ??_C@_0DA@NLJOLMMG@TXT_KEY_FINANCESTRATEGY_GOING_BR@
	lea	eax, DWORD PTR $T224881[ebp]
	push	eax
	call	DWORD PTR __imp_?Lookup@Localization@@YA?AVString@1@PBD@Z
	add	esp, 8
	mov	DWORD PTR tv4338[ebp], eax
	mov	ecx, DWORD PTR tv4338[ebp]
	mov	DWORD PTR tv3792[ebp], ecx
	mov	BYTE PTR __$EHRec$[ebp+8], 61		; 0000003dH
	mov	edx, DWORD PTR tv3792[ebp]
	push	edx
	lea	ecx, DWORD PTR _strLoc$[ebp]
	call	DWORD PTR __imp_??4String@Localization@@QAEAAV01@ABV01@@Z
	mov	BYTE PTR __$EHRec$[ebp+8], 0
	lea	ecx, DWORD PTR $T224881[ebp]
	call	DWORD PTR __imp_??1String@Localization@@UAE@XZ

; 1264 : 						strLoc << iHighestCost;

	lea	eax, DWORD PTR _iHighestCost$223309[ebp]
	push	eax
	lea	ecx, DWORD PTR _strLoc$[ebp]
	push	ecx
	call	??$?6H@@YAAAVString@Localization@@AAV01@ABH@Z ; operator<<<int>
	add	esp, 8

; 1265 : 						break;

	jmp	$LN160@BuildCouns
$LN157@BuildCouns:

; 1266 : 					case COST_BUILDING_MAINTENANCE:
; 1267 : 						strLoc = Localization::Lookup("TXT_KEY_FINANCESTRATEGY_GOING_BROKE_BUILDING_MAINTENANCE");

	push	OFFSET ??_C@_0DJ@KCPBPKGJ@TXT_KEY_FINANCESTRATEGY_GOING_BR@
	lea	edx, DWORD PTR $T224882[ebp]
	push	edx
	call	DWORD PTR __imp_?Lookup@Localization@@YA?AVString@1@PBD@Z
	add	esp, 8
	mov	DWORD PTR tv4294[ebp], eax
	mov	eax, DWORD PTR tv4294[ebp]
	mov	DWORD PTR tv3794[ebp], eax
	mov	BYTE PTR __$EHRec$[ebp+8], 62		; 0000003eH
	mov	ecx, DWORD PTR tv3794[ebp]
	push	ecx
	lea	ecx, DWORD PTR _strLoc$[ebp]
	call	DWORD PTR __imp_??4String@Localization@@QAEAAV01@ABV01@@Z
	mov	BYTE PTR __$EHRec$[ebp+8], 0
	lea	ecx, DWORD PTR $T224882[ebp]
	call	DWORD PTR __imp_??1String@Localization@@UAE@XZ

; 1268 : 						strLoc << iHighestCost;

	lea	edx, DWORD PTR _iHighestCost$223309[ebp]
	push	edx
	lea	eax, DWORD PTR _strLoc$[ebp]
	push	eax
	call	??$?6H@@YAAAVString@Localization@@AAV01@ABH@Z ; operator<<<int>
	add	esp, 8

; 1269 : 						break;

	jmp	$LN160@BuildCouns
$LN156@BuildCouns:

; 1270 : 					case COST_IMPROVEMENT_MAINTENANCE:
; 1271 : 						strLoc = Localization::Lookup("TXT_KEY_FINANCESTRATEGY_GOING_BROKE_IMPROVEMENT_MAINTENANCE");

	push	OFFSET ??_C@_0DM@GGJGABFM@TXT_KEY_FINANCESTRATEGY_GOING_BR@
	lea	ecx, DWORD PTR $T224883[ebp]
	push	ecx
	call	DWORD PTR __imp_?Lookup@Localization@@YA?AVString@1@PBD@Z
	add	esp, 8
	mov	DWORD PTR tv4285[ebp], eax
	mov	edx, DWORD PTR tv4285[ebp]
	mov	DWORD PTR tv3796[ebp], edx
	mov	BYTE PTR __$EHRec$[ebp+8], 63		; 0000003fH
	mov	eax, DWORD PTR tv3796[ebp]
	push	eax
	lea	ecx, DWORD PTR _strLoc$[ebp]
	call	DWORD PTR __imp_??4String@Localization@@QAEAAV01@ABV01@@Z
	mov	BYTE PTR __$EHRec$[ebp+8], 0
	lea	ecx, DWORD PTR $T224883[ebp]
	call	DWORD PTR __imp_??1String@Localization@@UAE@XZ

; 1272 : 						strLoc << iHighestCost;

	lea	ecx, DWORD PTR _iHighestCost$223309[ebp]
	push	ecx
	lea	edx, DWORD PTR _strLoc$[ebp]
	push	edx
	call	??$?6H@@YAAAVString@Localization@@AAV01@ABH@Z ; operator<<<int>
	add	esp, 8

; 1273 : 						break;

	jmp	$LN160@BuildCouns
$LN155@BuildCouns:

; 1274 : 					case COST_DIPLOMACY:
; 1275 : 						strLoc = Localization::Lookup("TXT_KEY_FINANCESTRATEGY_GOING_BROKE_DIPLOMACY");

	push	OFFSET ??_C@_0CO@DCLPLFDG@TXT_KEY_FINANCESTRATEGY_GOING_BR@
	lea	eax, DWORD PTR $T224884[ebp]
	push	eax
	call	DWORD PTR __imp_?Lookup@Localization@@YA?AVString@1@PBD@Z
	add	esp, 8
	mov	DWORD PTR tv4299[ebp], eax
	mov	ecx, DWORD PTR tv4299[ebp]
	mov	DWORD PTR tv3798[ebp], ecx
	mov	BYTE PTR __$EHRec$[ebp+8], 64		; 00000040H
	mov	edx, DWORD PTR tv3798[ebp]
	push	edx
	lea	ecx, DWORD PTR _strLoc$[ebp]
	call	DWORD PTR __imp_??4String@Localization@@QAEAAV01@ABV01@@Z
	mov	BYTE PTR __$EHRec$[ebp+8], 0
	lea	ecx, DWORD PTR $T224884[ebp]
	call	DWORD PTR __imp_??1String@Localization@@UAE@XZ

; 1276 : 						strLoc << iHighestCost;

	lea	eax, DWORD PTR _iHighestCost$223309[ebp]
	push	eax
	lea	ecx, DWORD PTR _strLoc$[ebp]
	push	ecx
	call	??$?6H@@YAAAVString@Localization@@AAV01@ABH@Z ; operator<<<int>
	add	esp, 8

; 1277 : 						break;

	jmp	SHORT $LN160@BuildCouns
$LN154@BuildCouns:

; 1278 : 					default:
; 1279 : 						strLoc = Localization::Lookup("TXT_KEY_FINANCESTRATEGY_GOING_BROKE");

	push	OFFSET ??_C@_0CE@BENNONKH@TXT_KEY_FINANCESTRATEGY_GOING_BR@
	lea	edx, DWORD PTR $T224885[ebp]
	push	edx
	call	DWORD PTR __imp_?Lookup@Localization@@YA?AVString@1@PBD@Z
	add	esp, 8
	mov	DWORD PTR tv4289[ebp], eax
	mov	eax, DWORD PTR tv4289[ebp]
	mov	DWORD PTR tv3800[ebp], eax
	mov	BYTE PTR __$EHRec$[ebp+8], 65		; 00000041H
	mov	ecx, DWORD PTR tv3800[ebp]
	push	ecx
	lea	ecx, DWORD PTR _strLoc$[ebp]
	call	DWORD PTR __imp_??4String@Localization@@QAEAAV01@ABV01@@Z
	mov	BYTE PTR __$EHRec$[ebp+8], 0
	lea	ecx, DWORD PTR $T224885[ebp]
	call	DWORD PTR __imp_??1String@Localization@@UAE@XZ
$LN160@BuildCouns:

; 1280 : 						break;
; 1281 : 					}
; 1282 : 				}
; 1283 : 				else

	jmp	$LN153@BuildCouns
$LN162@BuildCouns:

; 1284 : 				{
; 1285 : 					iMessageRating = 75;

	mov	DWORD PTR _iMessageRating$223304[ebp], 75 ; 0000004bH

; 1286 : 					switch(uiHighestCostCategory)

	mov	edx, DWORD PTR _uiHighestCostCategory$223317[ebp]
	mov	DWORD PTR tv2448[ebp], edx
	cmp	DWORD PTR tv2448[ebp], 4
	ja	$LN145@BuildCouns
	mov	eax, DWORD PTR tv2448[ebp]
	jmp	DWORD PTR $LN1061@BuildCouns[eax*4]
$LN150@BuildCouns:

; 1287 : 					{
; 1288 : 					case COST_UNIT_MAINTENANCE:
; 1289 : 						strLoc = Localization::Lookup("TXT_KEY_FINANCESTRATEGY_LOSING_MONEY_UNIT_MAINTENANCE");

	push	OFFSET ??_C@_0DG@HIDKJDME@TXT_KEY_FINANCESTRATEGY_LOSING_M@
	lea	ecx, DWORD PTR $T224886[ebp]
	push	ecx
	call	DWORD PTR __imp_?Lookup@Localization@@YA?AVString@1@PBD@Z
	add	esp, 8
	mov	DWORD PTR tv4295[ebp], eax
	mov	edx, DWORD PTR tv4295[ebp]
	mov	DWORD PTR tv3802[ebp], edx
	mov	BYTE PTR __$EHRec$[ebp+8], 66		; 00000042H
	mov	eax, DWORD PTR tv3802[ebp]
	push	eax
	lea	ecx, DWORD PTR _strLoc$[ebp]
	call	DWORD PTR __imp_??4String@Localization@@QAEAAV01@ABV01@@Z
	mov	BYTE PTR __$EHRec$[ebp+8], 0
	lea	ecx, DWORD PTR $T224886[ebp]
	call	DWORD PTR __imp_??1String@Localization@@UAE@XZ

; 1290 : 						strLoc << iHighestCost;

	lea	ecx, DWORD PTR _iHighestCost$223309[ebp]
	push	ecx
	lea	edx, DWORD PTR _strLoc$[ebp]
	push	edx
	call	??$?6H@@YAAAVString@Localization@@AAV01@ABH@Z ; operator<<<int>
	add	esp, 8

; 1291 : 						break;

	jmp	$LN153@BuildCouns
$LN149@BuildCouns:

; 1292 : 					case COST_UNIT_SUPPLY:
; 1293 : 						strLoc = Localization::Lookup("TXT_KEY_FINANCESTRATEGY_LOSING_MONEY_UNIT_SUPPLY");

	push	OFFSET ??_C@_0DB@GKKHLGDB@TXT_KEY_FINANCESTRATEGY_LOSING_M@
	lea	eax, DWORD PTR $T224887[ebp]
	push	eax
	call	DWORD PTR __imp_?Lookup@Localization@@YA?AVString@1@PBD@Z
	add	esp, 8
	mov	DWORD PTR tv4296[ebp], eax
	mov	ecx, DWORD PTR tv4296[ebp]
	mov	DWORD PTR tv3804[ebp], ecx
	mov	BYTE PTR __$EHRec$[ebp+8], 67		; 00000043H
	mov	edx, DWORD PTR tv3804[ebp]
	push	edx
	lea	ecx, DWORD PTR _strLoc$[ebp]
	call	DWORD PTR __imp_??4String@Localization@@QAEAAV01@ABV01@@Z
	mov	BYTE PTR __$EHRec$[ebp+8], 0
	lea	ecx, DWORD PTR $T224887[ebp]
	call	DWORD PTR __imp_??1String@Localization@@UAE@XZ

; 1294 : 						strLoc << iHighestCost;

	lea	eax, DWORD PTR _iHighestCost$223309[ebp]
	push	eax
	lea	ecx, DWORD PTR _strLoc$[ebp]
	push	ecx
	call	??$?6H@@YAAAVString@Localization@@AAV01@ABH@Z ; operator<<<int>
	add	esp, 8

; 1295 : 						break;

	jmp	$LN153@BuildCouns
$LN148@BuildCouns:

; 1296 : 					case COST_BUILDING_MAINTENANCE:
; 1297 : 						strLoc = Localization::Lookup("TXT_KEY_FINANCESTRATEGY_LOSING_MONEY_BUILDING_MAINTENANCE");

	push	OFFSET ??_C@_0DK@CNMLGIKD@TXT_KEY_FINANCESTRATEGY_LOSING_M@
	lea	edx, DWORD PTR $T224888[ebp]
	push	edx
	call	DWORD PTR __imp_?Lookup@Localization@@YA?AVString@1@PBD@Z
	add	esp, 8
	mov	DWORD PTR tv4253[ebp], eax
	mov	eax, DWORD PTR tv4253[ebp]
	mov	DWORD PTR tv3806[ebp], eax
	mov	BYTE PTR __$EHRec$[ebp+8], 68		; 00000044H
	mov	ecx, DWORD PTR tv3806[ebp]
	push	ecx
	lea	ecx, DWORD PTR _strLoc$[ebp]
	call	DWORD PTR __imp_??4String@Localization@@QAEAAV01@ABV01@@Z
	mov	BYTE PTR __$EHRec$[ebp+8], 0
	lea	ecx, DWORD PTR $T224888[ebp]
	call	DWORD PTR __imp_??1String@Localization@@UAE@XZ

; 1298 : 						strLoc << iHighestCost;

	lea	edx, DWORD PTR _iHighestCost$223309[ebp]
	push	edx
	lea	eax, DWORD PTR _strLoc$[ebp]
	push	eax
	call	??$?6H@@YAAAVString@Localization@@AAV01@ABH@Z ; operator<<<int>
	add	esp, 8

; 1299 : 						break;

	jmp	$LN153@BuildCouns
$LN147@BuildCouns:

; 1300 : 					case COST_IMPROVEMENT_MAINTENANCE:
; 1301 : 						strLoc = Localization::Lookup("TXT_KEY_FINANCESTRATEGY_LOSING_MONEY_IMPROVEMENT_MAINTENANCE");

	push	OFFSET ??_C@_0DN@HPNFCDGP@TXT_KEY_FINANCESTRATEGY_LOSING_M@
	lea	ecx, DWORD PTR $T224889[ebp]
	push	ecx
	call	DWORD PTR __imp_?Lookup@Localization@@YA?AVString@1@PBD@Z
	add	esp, 8
	mov	DWORD PTR tv4355[ebp], eax
	mov	edx, DWORD PTR tv4355[ebp]
	mov	DWORD PTR tv3808[ebp], edx
	mov	BYTE PTR __$EHRec$[ebp+8], 69		; 00000045H
	mov	eax, DWORD PTR tv3808[ebp]
	push	eax
	lea	ecx, DWORD PTR _strLoc$[ebp]
	call	DWORD PTR __imp_??4String@Localization@@QAEAAV01@ABV01@@Z
	mov	BYTE PTR __$EHRec$[ebp+8], 0
	lea	ecx, DWORD PTR $T224889[ebp]
	call	DWORD PTR __imp_??1String@Localization@@UAE@XZ

; 1302 : 						strLoc << iHighestCost;

	lea	ecx, DWORD PTR _iHighestCost$223309[ebp]
	push	ecx
	lea	edx, DWORD PTR _strLoc$[ebp]
	push	edx
	call	??$?6H@@YAAAVString@Localization@@AAV01@ABH@Z ; operator<<<int>
	add	esp, 8

; 1303 : 						break;

	jmp	$LN153@BuildCouns
$LN146@BuildCouns:

; 1304 : 					case COST_DIPLOMACY:
; 1305 : 						strLoc = Localization::Lookup("TXT_KEY_FINANCESTRATEGY_LOSING_MONEY_DIPLOMACY");

	push	OFFSET ??_C@_0CP@JAAGNBK@TXT_KEY_FINANCESTRATEGY_LOSING_M@
	lea	eax, DWORD PTR $T224890[ebp]
	push	eax
	call	DWORD PTR __imp_?Lookup@Localization@@YA?AVString@1@PBD@Z
	add	esp, 8
	mov	DWORD PTR tv4349[ebp], eax
	mov	ecx, DWORD PTR tv4349[ebp]
	mov	DWORD PTR tv3810[ebp], ecx
	mov	BYTE PTR __$EHRec$[ebp+8], 70		; 00000046H
	mov	edx, DWORD PTR tv3810[ebp]
	push	edx
	lea	ecx, DWORD PTR _strLoc$[ebp]
	call	DWORD PTR __imp_??4String@Localization@@QAEAAV01@ABV01@@Z
	mov	BYTE PTR __$EHRec$[ebp+8], 0
	lea	ecx, DWORD PTR $T224890[ebp]
	call	DWORD PTR __imp_??1String@Localization@@UAE@XZ

; 1306 : 						strLoc << iHighestCost;

	lea	eax, DWORD PTR _iHighestCost$223309[ebp]
	push	eax
	lea	ecx, DWORD PTR _strLoc$[ebp]
	push	ecx
	call	??$?6H@@YAAAVString@Localization@@AAV01@ABH@Z ; operator<<<int>
	add	esp, 8

; 1307 : 						break;

	jmp	SHORT $LN153@BuildCouns
$LN145@BuildCouns:

; 1308 : 					default:
; 1309 : 						strLoc = Localization::Lookup("TXT_KEY_FINANCESTRATEGY_LOSING_MONEY");

	push	OFFSET ??_C@_0CF@KKDJBEJJ@TXT_KEY_FINANCESTRATEGY_LOSING_M@
	lea	edx, DWORD PTR $T224891[ebp]
	push	edx
	call	DWORD PTR __imp_?Lookup@Localization@@YA?AVString@1@PBD@Z
	add	esp, 8
	mov	DWORD PTR tv4335[ebp], eax
	mov	eax, DWORD PTR tv4335[ebp]
	mov	DWORD PTR tv3812[ebp], eax
	mov	BYTE PTR __$EHRec$[ebp+8], 71		; 00000047H
	mov	ecx, DWORD PTR tv3812[ebp]
	push	ecx
	lea	ecx, DWORD PTR _strLoc$[ebp]
	call	DWORD PTR __imp_??4String@Localization@@QAEAAV01@ABV01@@Z
	mov	BYTE PTR __$EHRec$[ebp+8], 0
	lea	ecx, DWORD PTR $T224891[ebp]
	call	DWORD PTR __imp_??1String@Localization@@UAE@XZ
$LN153@BuildCouns:

; 1310 : 						break;
; 1311 : 					}
; 1312 : 				}

	jmp	$LN164@BuildCouns
$LN163@BuildCouns:

; 1313 : 			}
; 1314 : 			else if(iHighestCost > 0)

	cmp	DWORD PTR _iHighestCost$223309[ebp], 0
	jle	$LN164@BuildCouns

; 1315 : 			{
; 1316 : 				iMessageRating = 20;

	mov	DWORD PTR _iMessageRating$223304[ebp], 20 ; 00000014H

; 1317 : 				switch(uiHighestCostCategory)

	mov	edx, DWORD PTR _uiHighestCostCategory$223317[ebp]
	mov	DWORD PTR tv2535[ebp], edx
	cmp	DWORD PTR tv2535[ebp], 4
	ja	$LN135@BuildCouns
	mov	eax, DWORD PTR tv2535[ebp]
	jmp	DWORD PTR $LN1062@BuildCouns[eax*4]
$LN140@BuildCouns:

; 1318 : 				{
; 1319 : 				case COST_UNIT_MAINTENANCE:
; 1320 : 					strLoc = Localization::Lookup("TXT_KEY_FINANCESTRATEGY_MAKING_MONEY_UNIT_MAINTENANCE");

	push	OFFSET ??_C@_0DG@GNBHFMMP@TXT_KEY_FINANCESTRATEGY_MAKING_M@
	lea	ecx, DWORD PTR $T224892[ebp]
	push	ecx
	call	DWORD PTR __imp_?Lookup@Localization@@YA?AVString@1@PBD@Z
	add	esp, 8
	mov	DWORD PTR tv4532[ebp], eax
	mov	edx, DWORD PTR tv4532[ebp]
	mov	DWORD PTR tv3814[ebp], edx
	mov	BYTE PTR __$EHRec$[ebp+8], 72		; 00000048H
	mov	eax, DWORD PTR tv3814[ebp]
	push	eax
	lea	ecx, DWORD PTR _strLoc$[ebp]
	call	DWORD PTR __imp_??4String@Localization@@QAEAAV01@ABV01@@Z
	mov	BYTE PTR __$EHRec$[ebp+8], 0
	lea	ecx, DWORD PTR $T224892[ebp]
	call	DWORD PTR __imp_??1String@Localization@@UAE@XZ

; 1321 : 					strLoc << iHighestCost;

	lea	ecx, DWORD PTR _iHighestCost$223309[ebp]
	push	ecx
	lea	edx, DWORD PTR _strLoc$[ebp]
	push	edx
	call	??$?6H@@YAAAVString@Localization@@AAV01@ABH@Z ; operator<<<int>
	add	esp, 8

; 1322 : 					break;

	jmp	$LN164@BuildCouns
$LN139@BuildCouns:

; 1323 : 				case COST_UNIT_SUPPLY:
; 1324 : 					strLoc = Localization::Lookup("TXT_KEY_FINANCESTRATEGY_MAKING_MONEY_UNIT_SUPPLY");

	push	OFFSET ??_C@_0DB@KMNHINLL@TXT_KEY_FINANCESTRATEGY_MAKING_M@
	lea	eax, DWORD PTR $T224893[ebp]
	push	eax
	call	DWORD PTR __imp_?Lookup@Localization@@YA?AVString@1@PBD@Z
	add	esp, 8
	mov	DWORD PTR tv4290[ebp], eax
	mov	ecx, DWORD PTR tv4290[ebp]
	mov	DWORD PTR tv3816[ebp], ecx
	mov	BYTE PTR __$EHRec$[ebp+8], 73		; 00000049H
	mov	edx, DWORD PTR tv3816[ebp]
	push	edx
	lea	ecx, DWORD PTR _strLoc$[ebp]
	call	DWORD PTR __imp_??4String@Localization@@QAEAAV01@ABV01@@Z
	mov	BYTE PTR __$EHRec$[ebp+8], 0
	lea	ecx, DWORD PTR $T224893[ebp]
	call	DWORD PTR __imp_??1String@Localization@@UAE@XZ

; 1325 : 					strLoc << iHighestCost;

	lea	eax, DWORD PTR _iHighestCost$223309[ebp]
	push	eax
	lea	ecx, DWORD PTR _strLoc$[ebp]
	push	ecx
	call	??$?6H@@YAAAVString@Localization@@AAV01@ABH@Z ; operator<<<int>
	add	esp, 8

; 1326 : 					break;

	jmp	$LN164@BuildCouns
$LN138@BuildCouns:

; 1327 : 				case COST_BUILDING_MAINTENANCE:
; 1328 : 					strLoc = Localization::Lookup("TXT_KEY_FINANCESTRATEGY_MAKING_MONEY_BUILDING_MAINTENANCE");

	push	OFFSET ??_C@_0DK@CNMOIANL@TXT_KEY_FINANCESTRATEGY_MAKING_M@
	lea	edx, DWORD PTR $T224894[ebp]
	push	edx
	call	DWORD PTR __imp_?Lookup@Localization@@YA?AVString@1@PBD@Z
	add	esp, 8
	mov	DWORD PTR tv4275[ebp], eax
	mov	eax, DWORD PTR tv4275[ebp]
	mov	DWORD PTR tv3818[ebp], eax
	mov	BYTE PTR __$EHRec$[ebp+8], 74		; 0000004aH
	mov	ecx, DWORD PTR tv3818[ebp]
	push	ecx
	lea	ecx, DWORD PTR _strLoc$[ebp]
	call	DWORD PTR __imp_??4String@Localization@@QAEAAV01@ABV01@@Z
	mov	BYTE PTR __$EHRec$[ebp+8], 0
	lea	ecx, DWORD PTR $T224894[ebp]
	call	DWORD PTR __imp_??1String@Localization@@UAE@XZ

; 1329 : 					strLoc << iHighestCost;

	lea	edx, DWORD PTR _iHighestCost$223309[ebp]
	push	edx
	lea	eax, DWORD PTR _strLoc$[ebp]
	push	eax
	call	??$?6H@@YAAAVString@Localization@@AAV01@ABH@Z ; operator<<<int>
	add	esp, 8

; 1330 : 					break;

	jmp	$LN164@BuildCouns
$LN137@BuildCouns:

; 1331 : 				case COST_IMPROVEMENT_MAINTENANCE:
; 1332 : 					strLoc = Localization::Lookup("TXT_KEY_FINANCESTRATEGY_MAKING_MONEY_IMPROVEMENT_MAINTENANCE");

	push	OFFSET ??_C@_0DN@MDPKJHOM@TXT_KEY_FINANCESTRATEGY_MAKING_M@
	lea	ecx, DWORD PTR $T224895[ebp]
	push	ecx
	call	DWORD PTR __imp_?Lookup@Localization@@YA?AVString@1@PBD@Z
	add	esp, 8
	mov	DWORD PTR tv4272[ebp], eax
	mov	edx, DWORD PTR tv4272[ebp]
	mov	DWORD PTR tv3820[ebp], edx
	mov	BYTE PTR __$EHRec$[ebp+8], 75		; 0000004bH
	mov	eax, DWORD PTR tv3820[ebp]
	push	eax
	lea	ecx, DWORD PTR _strLoc$[ebp]
	call	DWORD PTR __imp_??4String@Localization@@QAEAAV01@ABV01@@Z
	mov	BYTE PTR __$EHRec$[ebp+8], 0
	lea	ecx, DWORD PTR $T224895[ebp]
	call	DWORD PTR __imp_??1String@Localization@@UAE@XZ

; 1333 : 					strLoc << iHighestCost;

	lea	ecx, DWORD PTR _iHighestCost$223309[ebp]
	push	ecx
	lea	edx, DWORD PTR _strLoc$[ebp]
	push	edx
	call	??$?6H@@YAAAVString@Localization@@AAV01@ABH@Z ; operator<<<int>
	add	esp, 8

; 1334 : 					break;

	jmp	$LN164@BuildCouns
$LN136@BuildCouns:

; 1335 : 				case COST_DIPLOMACY:
; 1336 : 					strLoc = Localization::Lookup("TXT_KEY_FINANCESTRATEGY_MAKING_MONEY_DIPLOMACY");

	push	OFFSET ??_C@_0CP@DHNHOANE@TXT_KEY_FINANCESTRATEGY_MAKING_M@
	lea	eax, DWORD PTR $T224896[ebp]
	push	eax
	call	DWORD PTR __imp_?Lookup@Localization@@YA?AVString@1@PBD@Z
	add	esp, 8
	mov	DWORD PTR tv4273[ebp], eax
	mov	ecx, DWORD PTR tv4273[ebp]
	mov	DWORD PTR tv3822[ebp], ecx
	mov	BYTE PTR __$EHRec$[ebp+8], 76		; 0000004cH
	mov	edx, DWORD PTR tv3822[ebp]
	push	edx
	lea	ecx, DWORD PTR _strLoc$[ebp]
	call	DWORD PTR __imp_??4String@Localization@@QAEAAV01@ABV01@@Z
	mov	BYTE PTR __$EHRec$[ebp+8], 0
	lea	ecx, DWORD PTR $T224896[ebp]
	call	DWORD PTR __imp_??1String@Localization@@UAE@XZ

; 1337 : 					strLoc << iHighestCost;

	lea	eax, DWORD PTR _iHighestCost$223309[ebp]
	push	eax
	lea	ecx, DWORD PTR _strLoc$[ebp]
	push	ecx
	call	??$?6H@@YAAAVString@Localization@@AAV01@ABH@Z ; operator<<<int>
	add	esp, 8

; 1338 : 					break;

	jmp	SHORT $LN164@BuildCouns
$LN135@BuildCouns:

; 1339 : 				default:
; 1340 : 					strLoc = Localization::Lookup("TXT_KEY_FINANCESTRATEGY_MAKING_MONEY");

	push	OFFSET ??_C@_0CF@IKKLDLIM@TXT_KEY_FINANCESTRATEGY_MAKING_M@
	lea	edx, DWORD PTR $T224897[ebp]
	push	edx
	call	DWORD PTR __imp_?Lookup@Localization@@YA?AVString@1@PBD@Z
	add	esp, 8
	mov	DWORD PTR tv4274[ebp], eax
	mov	eax, DWORD PTR tv4274[ebp]
	mov	DWORD PTR tv3824[ebp], eax
	mov	BYTE PTR __$EHRec$[ebp+8], 77		; 0000004dH
	mov	ecx, DWORD PTR tv3824[ebp]
	push	ecx
	lea	ecx, DWORD PTR _strLoc$[ebp]
	call	DWORD PTR __imp_??4String@Localization@@QAEAAV01@ABV01@@Z
	mov	BYTE PTR __$EHRec$[ebp+8], 0
	lea	ecx, DWORD PTR $T224897[ebp]
	call	DWORD PTR __imp_??1String@Localization@@UAE@XZ
$LN164@BuildCouns:

; 1341 : 					break;
; 1342 : 				}
; 1343 : 
; 1344 : 			}
; 1345 : 		}
; 1346 : 
; 1347 : 		if(iHighestCost > 0)

	cmp	DWORD PTR _iHighestCost$223309[ebp], 0
	jle	SHORT $LN134@BuildCouns

; 1348 : 		{
; 1349 : #ifdef CVASSERT_ENABLE
; 1350 : 			bool bSuccess = SetCounselEntry(uiCounselIndex, eAdvisor, strLoc.toUTF8(), iMessageRating);
; 1351 : 			DEBUG_VARIABLE(bSuccess);
; 1352 : 			CvAssertMsg(bSuccess, "Unable to add counsel to list. Too many strategies running at once");
; 1353 : #else
; 1354 : 			SetCounselEntry(uiCounselIndex, eAdvisor, strLoc.toUTF8(), iMessageRating);

	mov	edx, DWORD PTR _iMessageRating$223304[ebp]
	push	edx
	lea	ecx, DWORD PTR _strLoc$[ebp]
	call	DWORD PTR __imp_?toUTF8@String@Localization@@QAEPBDXZ
	push	eax
	mov	eax, DWORD PTR _eAdvisor$223305[ebp]
	push	eax
	mov	ecx, DWORD PTR _uiCounselIndex$[ebp]
	push	ecx
	mov	ecx, DWORD PTR _this$[ebp]
	call	?SetCounselEntry@CvAdvisorCounsel@@QAE_NIW4AdvisorTypes@@PBDH@Z ; CvAdvisorCounsel::SetCounselEntry

; 1355 : #endif
; 1356 : 			uiCounselIndex++;

	mov	edx, DWORD PTR _uiCounselIndex$[ebp]
	add	edx, 1
	mov	DWORD PTR _uiCounselIndex$[ebp], edx
$LN134@BuildCouns:

; 1357 : 		}
; 1358 : 	}
; 1359 : 
; 1360 : 	// finding minor civs that we are about to lose a friendship/ally status with
; 1361 : 	for(uint ui = MAX_MAJOR_CIVS; ui < MAX_CIV_PLAYERS; ui++)

	mov	DWORD PTR _ui$223456[ebp], 22		; 00000016H
	jmp	SHORT $LN133@BuildCouns
$LN132@BuildCouns:
	mov	eax, DWORD PTR _ui$223456[ebp]
	add	eax, 1
	mov	DWORD PTR _ui$223456[ebp], eax
$LN133@BuildCouns:
	cmp	DWORD PTR _ui$223456[ebp], 63		; 0000003fH
	jae	$LN131@BuildCouns

; 1362 : 	{
; 1363 : 		int iMessageRating = 0;

	mov	DWORD PTR _iMessageRating$223460[ebp], 0

; 1364 : 		AdvisorTypes eAdvisor = ADVISOR_FOREIGN;

	mov	DWORD PTR _eAdvisor$223461[ebp], 2

; 1365 : 		//MinorCivQuestTypes eQuest = NO_MINOR_CIV_QUEST_TYPE;
; 1366 : 		PlayerTypes eEnemyPlayer = NO_PLAYER;

	mov	DWORD PTR _eEnemyPlayer$223462[ebp], -1

; 1367 : 
; 1368 : 		PlayerTypes eMinorPlayer = (PlayerTypes)ui;

	mov	ecx, DWORD PTR _ui$223456[ebp]
	mov	DWORD PTR _eMinorPlayer$223463[ebp], ecx

; 1369 : 
; 1370 : 		TeamTypes eMinorTeam = GET_PLAYER(eMinorPlayer).getTeam();

	mov	edx, DWORD PTR _eMinorPlayer$223463[ebp]
	imul	edx, 63236				; 0000f704H
	add	edx, DWORD PTR ?m_aPlayers@CvPlayerAI@@1PAV1@A ; CvPlayerAI::m_aPlayers
	mov	DWORD PTR $T225367[ebp], edx
	mov	eax, DWORD PTR $T225367[ebp]
	mov	ecx, DWORD PTR [eax+44]
	push	ecx
	call	?teamType@CvPreGame@@YA?AW4TeamTypes@@W4PlayerTypes@@@Z ; CvPreGame::teamType
	add	esp, 4
	mov	DWORD PTR _eMinorTeam$223465[ebp], eax

; 1371 : 
; 1372 : 		// don't evaluate players we haven't met
; 1373 : 		if(!GET_TEAM(eTeam).isHasMet(eMinorTeam))

	mov	edx, DWORD PTR _eTeam$[ebp]
	imul	edx, 2984				; 00000ba8H
	add	edx, DWORD PTR ?m_aTeams@CvTeam@@1PAV1@A ; CvTeam::m_aTeams
	mov	DWORD PTR $T225379[ebp], edx
	mov	eax, DWORD PTR _eMinorTeam$223465[ebp]
	push	eax
	mov	ecx, DWORD PTR $T225379[ebp]
	call	?isHasMet@CvTeam@@QBE_NW4TeamTypes@@@Z	; CvTeam::isHasMet
	movzx	ecx, al
	test	ecx, ecx
	jne	SHORT $LN130@BuildCouns

; 1374 : 		{
; 1375 : 			continue;

	jmp	$LN132@BuildCouns
$LN130@BuildCouns:

; 1376 : 		}
; 1377 : 
; 1378 : 		if(GET_TEAM(eTeam).isAtWar(eMinorTeam))

	mov	edx, DWORD PTR _eTeam$[ebp]
	imul	edx, 2984				; 00000ba8H
	add	edx, DWORD PTR ?m_aTeams@CvTeam@@1PAV1@A ; CvTeam::m_aTeams
	mov	DWORD PTR $T225383[ebp], edx
	mov	eax, DWORD PTR _eMinorTeam$223465[ebp]
	push	eax
	mov	ecx, DWORD PTR $T225383[ebp]
	call	?isAtWar@CvTeam@@QBE_NW4TeamTypes@@@Z	; CvTeam::isAtWar
	movzx	ecx, al
	test	ecx, ecx
	je	SHORT $LN129@BuildCouns

; 1379 : 		{
; 1380 : 			continue;

	jmp	$LN132@BuildCouns
$LN129@BuildCouns:

; 1381 : 		}
; 1382 : 
; 1383 : 		if(!GET_PLAYER(eMinorPlayer).isAlive())

	mov	edx, DWORD PTR _eMinorPlayer$223463[ebp]
	imul	edx, 63236				; 0000f704H
	add	edx, DWORD PTR ?m_aPlayers@CvPlayerAI@@1PAV1@A ; CvPlayerAI::m_aPlayers
	mov	DWORD PTR $T225387[ebp], edx
	mov	eax, DWORD PTR $T225387[ebp]
	mov	cl, BYTE PTR [eax+2256]
	mov	BYTE PTR $T225396[ebp], cl
	movzx	edx, BYTE PTR $T225396[ebp]
	test	edx, edx
	jne	$LN128@BuildCouns

; 1384 : 		{
; 1385 : 			if(!GET_PLAYER(eMinorPlayer).isEverAlive())

	mov	eax, DWORD PTR _eMinorPlayer$223463[ebp]
	imul	eax, 63236				; 0000f704H
	add	eax, DWORD PTR ?m_aPlayers@CvPlayerAI@@1PAV1@A ; CvPlayerAI::m_aPlayers
	mov	DWORD PTR $T225400[ebp], eax
	mov	ecx, DWORD PTR $T225400[ebp]
	mov	dl, BYTE PTR [ecx+2268]
	mov	BYTE PTR $T225409[ebp], dl
	movzx	eax, BYTE PTR $T225409[ebp]
	test	eax, eax
	jne	SHORT $LN127@BuildCouns

; 1386 : 			{
; 1387 : 				continue;

	jmp	$LN132@BuildCouns
$LN127@BuildCouns:

; 1388 : 			}
; 1389 : 
; 1390 : 			// see if we ganked their city
; 1391 : 			PlayerTypes eCapturingPlayer = NO_PLAYER;

	mov	DWORD PTR _eCapturingPlayer$223470[ebp], -1

; 1392 : 
; 1393 : 			for(uint ui2 = 0; ui2 < MAX_MAJOR_CIVS; ui2++)

	mov	DWORD PTR _ui2$223471[ebp], 0
	jmp	SHORT $LN126@BuildCouns
$LN125@BuildCouns:
	mov	ecx, DWORD PTR _ui2$223471[ebp]
	add	ecx, 1
	mov	DWORD PTR _ui2$223471[ebp], ecx
$LN126@BuildCouns:
	cmp	DWORD PTR _ui2$223471[ebp], 22		; 00000016H
	jae	$LN124@BuildCouns

; 1394 : 			{
; 1395 : 				if(eCapturingPlayer != NO_PLAYER)

	cmp	DWORD PTR _eCapturingPlayer$223470[ebp], -1
	je	SHORT $LN123@BuildCouns

; 1396 : 				{
; 1397 : 					break;

	jmp	$LN124@BuildCouns
$LN123@BuildCouns:

; 1398 : 				}
; 1399 : 
; 1400 : 				PlayerTypes eCheckPlayer = (PlayerTypes)ui2;

	mov	edx, DWORD PTR _ui2$223471[ebp]
	mov	DWORD PTR _eCheckPlayer$223476[ebp], edx

; 1401 : 
; 1402 : 				int iCityIndex;
; 1403 : 				CvCity* pCapCity;
; 1404 : 				for(pCapCity = GET_PLAYER(eCheckPlayer).firstCity(&iCityIndex); pCapCity != NULL; pCapCity = GET_PLAYER(eCheckPlayer).nextCity(&iCityIndex))

	mov	eax, DWORD PTR _eCheckPlayer$223476[ebp]
	imul	eax, 63236				; 0000f704H
	add	eax, DWORD PTR ?m_aPlayers@CvPlayerAI@@1PAV1@A ; CvPlayerAI::m_aPlayers
	mov	DWORD PTR $T225413[ebp], eax
	push	0
	lea	ecx, DWORD PTR _iCityIndex$223478[ebp]
	push	ecx
	mov	ecx, DWORD PTR $T225413[ebp]
	call	?firstCity@CvPlayer@@QAEPAVCvCity@@PAH_N@Z ; CvPlayer::firstCity
	mov	DWORD PTR _pCapCity$223479[ebp], eax
	jmp	SHORT $LN122@BuildCouns
$LN121@BuildCouns:
	mov	edx, DWORD PTR _eCheckPlayer$223476[ebp]
	imul	edx, 63236				; 0000f704H
	add	edx, DWORD PTR ?m_aPlayers@CvPlayerAI@@1PAV1@A ; CvPlayerAI::m_aPlayers
	mov	DWORD PTR $T225417[ebp], edx
	push	0
	lea	eax, DWORD PTR _iCityIndex$223478[ebp]
	push	eax
	mov	ecx, DWORD PTR $T225417[ebp]
	call	?nextCity@CvPlayer@@QAEPAVCvCity@@PAH_N@Z ; CvPlayer::nextCity
	mov	DWORD PTR _pCapCity$223479[ebp], eax
$LN122@BuildCouns:
	cmp	DWORD PTR _pCapCity$223479[ebp], 0
	je	SHORT $LN120@BuildCouns

; 1405 : 				{
; 1406 : 					if(pCapCity->getOriginalOwner() == eMinorPlayer)

	mov	ecx, DWORD PTR _pCapCity$223479[ebp]
	call	?getOriginalOwner@CvCity@@QBE?AW4PlayerTypes@@XZ ; CvCity::getOriginalOwner
	cmp	eax, DWORD PTR _eMinorPlayer$223463[ebp]
	jne	SHORT $LN119@BuildCouns

; 1407 : 					{
; 1408 : 						eCapturingPlayer = pCapCity->getOwner();

	mov	ecx, DWORD PTR _pCapCity$223479[ebp]
	mov	edx, DWORD PTR [ecx+84]
	mov	DWORD PTR _eCapturingPlayer$223470[ebp], edx

; 1409 : 						break;

	jmp	SHORT $LN120@BuildCouns
$LN119@BuildCouns:

; 1410 : 					}
; 1411 : 				}

	jmp	SHORT $LN121@BuildCouns
$LN120@BuildCouns:

; 1412 : 			}

	jmp	$LN125@BuildCouns
$LN124@BuildCouns:

; 1413 : 
; 1414 : 			//antonjs: todo: don't show counsel to liberate if the CS was taken over peacefully with buyout (Austria UA)
; 1415 : 			// don't mention it if we conquered the city-state
; 1416 : 			if(eCapturingPlayer != NO_PLAYER && eCapturingPlayer != ePlayer)

	cmp	DWORD PTR _eCapturingPlayer$223470[ebp], -1
	je	$LN118@BuildCouns
	mov	eax, DWORD PTR _eCapturingPlayer$223470[ebp]
	cmp	eax, DWORD PTR _ePlayer$[ebp]
	je	$LN118@BuildCouns

; 1417 : 			{
; 1418 : 				iMessageRating = 10;

	mov	DWORD PTR _iMessageRating$223460[ebp], 10 ; 0000000aH

; 1419 : 				CvMinorCivAI* pMinorCivAI = GET_PLAYER(eMinorPlayer).GetMinorCivAI();

	mov	ecx, DWORD PTR _eMinorPlayer$223463[ebp]
	imul	ecx, 63236				; 0000f704H
	add	ecx, DWORD PTR ?m_aPlayers@CvPlayerAI@@1PAV1@A ; CvPlayerAI::m_aPlayers
	mov	DWORD PTR $T225429[ebp], ecx
	mov	ecx, DWORD PTR $T225429[ebp]
	call	?GetMinorCivAI@CvPlayer@@QBEPAVCvMinorCivAI@@XZ ; CvPlayer::GetMinorCivAI
	mov	DWORD PTR _pMinorCivAI$223485[ebp], eax

; 1420 : 
; 1421 : 				strLoc = Localization::Lookup("TXT_KEY_DIPLOSTRATEGY_LIBERATE_CITY_STATE");

	push	OFFSET ??_C@_0CK@EJBBGNEK@TXT_KEY_DIPLOSTRATEGY_LIBERATE_C@
	lea	edx, DWORD PTR $T224898[ebp]
	push	edx
	call	DWORD PTR __imp_?Lookup@Localization@@YA?AVString@1@PBD@Z
	add	esp, 8
	mov	DWORD PTR tv4288[ebp], eax
	mov	eax, DWORD PTR tv4288[ebp]
	mov	DWORD PTR tv3826[ebp], eax
	mov	BYTE PTR __$EHRec$[ebp+8], 78		; 0000004eH
	mov	ecx, DWORD PTR tv3826[ebp]
	push	ecx
	lea	ecx, DWORD PTR _strLoc$[ebp]
	call	DWORD PTR __imp_??4String@Localization@@QAEAAV01@ABV01@@Z
	mov	BYTE PTR __$EHRec$[ebp+8], 0
	lea	ecx, DWORD PTR $T224898[ebp]
	call	DWORD PTR __imp_??1String@Localization@@UAE@XZ

; 1422 : 				strLoc << GC.getMinorCivInfo(pMinorCivAI->GetMinorCivType())->GetTextKey();

	mov	ecx, DWORD PTR _pMinorCivAI$223485[ebp]
	call	?GetMinorCivType@CvMinorCivAI@@QBE?AW4MinorCivTypes@@XZ ; CvMinorCivAI::GetMinorCivType
	push	eax
	mov	ecx, OFFSET ?gGlobals@@3VCvGlobals@@A	; gGlobals
	call	?getMinorCivInfo@CvGlobals@@QAEPAVCvMinorCivInfo@@W4MinorCivTypes@@@Z ; CvGlobals::getMinorCivInfo
	mov	ecx, eax
	call	?GetTextKey@CvBaseInfo@@QBEPBDXZ	; CvBaseInfo::GetTextKey
	mov	DWORD PTR $T224899[ebp], eax
	lea	edx, DWORD PTR $T224899[ebp]
	push	edx
	lea	eax, DWORD PTR _strLoc$[ebp]
	push	eax
	call	??$?6PBD@@YAAAVString@Localization@@AAV01@ABQBD@Z ; operator<<<char const *>
	add	esp, 8

; 1423 : 				strLoc << GET_PLAYER(eCapturingPlayer).getCivilizationInfo().GetTextKey();

	mov	ecx, DWORD PTR _eCapturingPlayer$223470[ebp]
	imul	ecx, 63236				; 0000f704H
	add	ecx, DWORD PTR ?m_aPlayers@CvPlayerAI@@1PAV1@A ; CvPlayerAI::m_aPlayers
	mov	DWORD PTR $T225433[ebp], ecx
	mov	ecx, DWORD PTR $T225433[ebp]
	call	?getCivilizationInfo@CvPlayer@@QBEAAVCvCivilizationInfo@@XZ ; CvPlayer::getCivilizationInfo
	mov	ecx, eax
	call	?GetTextKey@CvBaseInfo@@QBEPBDXZ	; CvBaseInfo::GetTextKey
	mov	DWORD PTR $T224900[ebp], eax
	lea	edx, DWORD PTR $T224900[ebp]
	push	edx
	lea	eax, DWORD PTR _strLoc$[ebp]
	push	eax
	call	??$?6PBD@@YAAAVString@Localization@@AAV01@ABQBD@Z ; operator<<<char const *>
	add	esp, 8

; 1424 : 				strLoc << GC.getMinorCivInfo(pMinorCivAI->GetMinorCivType())->GetTextKey();

	mov	ecx, DWORD PTR _pMinorCivAI$223485[ebp]
	call	?GetMinorCivType@CvMinorCivAI@@QBE?AW4MinorCivTypes@@XZ ; CvMinorCivAI::GetMinorCivType
	push	eax
	mov	ecx, OFFSET ?gGlobals@@3VCvGlobals@@A	; gGlobals
	call	?getMinorCivInfo@CvGlobals@@QAEPAVCvMinorCivInfo@@W4MinorCivTypes@@@Z ; CvGlobals::getMinorCivInfo
	mov	ecx, eax
	call	?GetTextKey@CvBaseInfo@@QBEPBDXZ	; CvBaseInfo::GetTextKey
	mov	DWORD PTR $T224901[ebp], eax
	lea	ecx, DWORD PTR $T224901[ebp]
	push	ecx
	lea	edx, DWORD PTR _strLoc$[ebp]
	push	edx
	call	??$?6PBD@@YAAAVString@Localization@@AAV01@ABQBD@Z ; operator<<<char const *>
	add	esp, 8

; 1425 : 
; 1426 : 				bool bSuccess = SetCounselEntry(uiCounselIndex, eAdvisor, strLoc.toUTF8(), iMessageRating);

	mov	eax, DWORD PTR _iMessageRating$223460[ebp]
	push	eax
	lea	ecx, DWORD PTR _strLoc$[ebp]
	call	DWORD PTR __imp_?toUTF8@String@Localization@@QAEPBDXZ
	push	eax
	mov	ecx, DWORD PTR _eAdvisor$223461[ebp]
	push	ecx
	mov	edx, DWORD PTR _uiCounselIndex$[ebp]
	push	edx
	mov	ecx, DWORD PTR _this$[ebp]
	call	?SetCounselEntry@CvAdvisorCounsel@@QAE_NIW4AdvisorTypes@@PBDH@Z ; CvAdvisorCounsel::SetCounselEntry
	mov	BYTE PTR _bSuccess$223491[ebp], al

; 1427 : 				CvAssertMsg(bSuccess, "Unable to add counsel to list. Too many strategies running at once");
; 1428 : 				if(!bSuccess)

	movzx	eax, BYTE PTR _bSuccess$223491[ebp]
	test	eax, eax
	jne	SHORT $LN117@BuildCouns

; 1429 : 				{
; 1430 : 					break;

	jmp	$LN131@BuildCouns
$LN117@BuildCouns:

; 1431 : 				}
; 1432 : 				uiCounselIndex++;

	mov	ecx, DWORD PTR _uiCounselIndex$[ebp]
	add	ecx, 1
	mov	DWORD PTR _uiCounselIndex$[ebp], ecx
$LN118@BuildCouns:

; 1433 : 			}
; 1434 : 
; 1435 : 			continue;

	jmp	$LN132@BuildCouns
$LN128@BuildCouns:

; 1436 : 		}
; 1437 : 
; 1438 : 		CvMinorCivAI* pMinorCivAI = GET_PLAYER(eMinorPlayer).GetMinorCivAI();

	mov	edx, DWORD PTR _eMinorPlayer$223463[ebp]
	imul	edx, 63236				; 0000f704H
	add	edx, DWORD PTR ?m_aPlayers@CvPlayerAI@@1PAV1@A ; CvPlayerAI::m_aPlayers
	mov	DWORD PTR $T225437[ebp], edx
	mov	ecx, DWORD PTR $T225437[ebp]
	call	?GetMinorCivAI@CvPlayer@@QBEPAVCvMinorCivAI@@XZ ; CvPlayer::GetMinorCivAI
	mov	DWORD PTR _pMinorCivAI$223493[ebp], eax

; 1439 : 
; 1440 : 
; 1441 : 		if(pMinorCivAI->IsAllies(ePlayer) && pMinorCivAI->IsCloseToNotBeingAllies(ePlayer))

	mov	eax, DWORD PTR _ePlayer$[ebp]
	push	eax
	mov	ecx, DWORD PTR _pMinorCivAI$223493[ebp]
	call	?IsAllies@CvMinorCivAI@@QBE_NW4PlayerTypes@@@Z ; CvMinorCivAI::IsAllies
	movzx	ecx, al
	test	ecx, ecx
	je	$LN116@BuildCouns
	mov	edx, DWORD PTR _ePlayer$[ebp]
	push	edx
	mov	ecx, DWORD PTR _pMinorCivAI$223493[ebp]
	call	?IsCloseToNotBeingAllies@CvMinorCivAI@@QAE_NW4PlayerTypes@@@Z ; CvMinorCivAI::IsCloseToNotBeingAllies
	movzx	eax, al
	test	eax, eax
	je	$LN116@BuildCouns

; 1442 : 		{
; 1443 : 			// warn the player they are about to not be an ally with a minor civ
; 1444 : 			iMessageRating = 80;

	mov	DWORD PTR _iMessageRating$223460[ebp], 80 ; 00000050H

; 1445 : 			if(eEnemyPlayer != NO_PLAYER)

	cmp	DWORD PTR _eEnemyPlayer$223462[ebp], -1
	je	$LN115@BuildCouns

; 1446 : 			{
; 1447 : 				strLoc = Localization::Lookup("TXT_KEY_DIPLOSTRATEGY_ALMOST_LOST_CITY_STATE_ALLY_WAR_WITH_MAJOR");

	push	OFFSET ??_C@_0EB@MGPCJIEI@TXT_KEY_DIPLOSTRATEGY_ALMOST_LOS@
	lea	ecx, DWORD PTR $T224902[ebp]
	push	ecx
	call	DWORD PTR __imp_?Lookup@Localization@@YA?AVString@1@PBD@Z
	add	esp, 8
	mov	DWORD PTR tv4276[ebp], eax
	mov	edx, DWORD PTR tv4276[ebp]
	mov	DWORD PTR tv3828[ebp], edx
	mov	BYTE PTR __$EHRec$[ebp+8], 79		; 0000004fH
	mov	eax, DWORD PTR tv3828[ebp]
	push	eax
	lea	ecx, DWORD PTR _strLoc$[ebp]
	call	DWORD PTR __imp_??4String@Localization@@QAEAAV01@ABV01@@Z
	mov	BYTE PTR __$EHRec$[ebp+8], 0
	lea	ecx, DWORD PTR $T224902[ebp]
	call	DWORD PTR __imp_??1String@Localization@@UAE@XZ

; 1448 : 				strLoc << GC.getMinorCivInfo(pMinorCivAI->GetMinorCivType())->GetTextKey();

	mov	ecx, DWORD PTR _pMinorCivAI$223493[ebp]
	call	?GetMinorCivType@CvMinorCivAI@@QBE?AW4MinorCivTypes@@XZ ; CvMinorCivAI::GetMinorCivType
	push	eax
	mov	ecx, OFFSET ?gGlobals@@3VCvGlobals@@A	; gGlobals
	call	?getMinorCivInfo@CvGlobals@@QAEPAVCvMinorCivInfo@@W4MinorCivTypes@@@Z ; CvGlobals::getMinorCivInfo
	mov	ecx, eax
	call	?GetTextKey@CvBaseInfo@@QBEPBDXZ	; CvBaseInfo::GetTextKey
	mov	DWORD PTR $T224903[ebp], eax
	lea	ecx, DWORD PTR $T224903[ebp]
	push	ecx
	lea	edx, DWORD PTR _strLoc$[ebp]
	push	edx
	call	??$?6PBD@@YAAAVString@Localization@@AAV01@ABQBD@Z ; operator<<<char const *>
	add	esp, 8

; 1449 : 				strLoc << GET_PLAYER(eEnemyPlayer).getCivilizationInfo().GetTextKey();

	mov	eax, DWORD PTR _eEnemyPlayer$223462[ebp]
	imul	eax, 63236				; 0000f704H
	add	eax, DWORD PTR ?m_aPlayers@CvPlayerAI@@1PAV1@A ; CvPlayerAI::m_aPlayers
	mov	DWORD PTR $T225441[ebp], eax
	mov	ecx, DWORD PTR $T225441[ebp]
	call	?getCivilizationInfo@CvPlayer@@QBEAAVCvCivilizationInfo@@XZ ; CvPlayer::getCivilizationInfo
	mov	ecx, eax
	call	?GetTextKey@CvBaseInfo@@QBEPBDXZ	; CvBaseInfo::GetTextKey
	mov	DWORD PTR $T224904[ebp], eax
	lea	ecx, DWORD PTR $T224904[ebp]
	push	ecx
	lea	edx, DWORD PTR _strLoc$[ebp]
	push	edx
	call	??$?6PBD@@YAAAVString@Localization@@AAV01@ABQBD@Z ; operator<<<char const *>
	add	esp, 8

; 1450 : 			}
; 1451 : 			/*
; 1452 : 			else if (eQuest != NO_MINOR_CIV_QUEST_TYPE)
; 1453 : 			{
; 1454 : 				int iQuestData = pMinorCivAI->GetQuestData1(ePlayer, eQuest);
; 1455 : 
; 1456 : 				switch (eQuest)
; 1457 : 				{
; 1458 : 				case MINOR_CIV_QUEST_ROUTE:
; 1459 : 					strLoc = Localization::Lookup("TXT_KEY_DIPLOSTRATEGY_ALMOST_LOST_CITY_STATE_ALLY_QUEST_ROUTE");
; 1460 : 					strLoc << GC.getMinorCivInfo(pMinorCivAI->GetMinorCivType())->GetTextKey();
; 1461 : 					break;
; 1462 : 				case MINOR_CIV_QUEST_KILL_CAMP:
; 1463 : 					strLoc = Localization::Lookup("TXT_KEY_DIPLOSTRATEGY_ALMOST_LOST_CITY_STATE_ALLY_QUEST_KILL_CAMP");
; 1464 : 					strLoc << GC.getMinorCivInfo(pMinorCivAI->GetMinorCivType())->GetTextKey();
; 1465 : 					break;
; 1466 : 				case MINOR_CIV_QUEST_CONNECT_RESOURCE:
; 1467 : 					strLoc = Localization::Lookup("TXT_KEY_DIPLOSTRATEGY_ALMOST_LOST_CITY_STATE_ALLY_QUEST_CONNECT_RESOURCE");
; 1468 : 					strLoc << GC.getMinorCivInfo(pMinorCivAI->GetMinorCivType())->GetTextKey();
; 1469 : 					strLoc << GC.getResourceInfo((ResourceTypes)iQuestData)->GetTextKey();
; 1470 : 					break;
; 1471 : 				case MINOR_CIV_QUEST_CONSTRUCT_WONDER:
; 1472 : 					strLoc = Localization::Lookup("TXT_KEY_DIPLOSTRATEGY_ALMOST_LOST_CITY_STATE_ALLY_QUEST_CONSTRUCT_WONDER");
; 1473 : 					strLoc << GC.getMinorCivInfo(pMinorCivAI->GetMinorCivType())->GetTextKey();
; 1474 : 					strLoc << GC.getBuildingInfo((BuildingTypes)iQuestData)->GetDescription();
; 1475 : 					break;
; 1476 : 				case MINOR_CIV_QUEST_GREAT_PERSON:
; 1477 : 					strLoc = Localization::Lookup("TXT_KEY_DIPLOSTRATEGY_ALMOST_LOST_CITY_STATE_ALLY_QUEST_GREAT_PERSON");
; 1478 : 					strLoc << GC.getMinorCivInfo(pMinorCivAI->GetMinorCivType())->GetTextKey();
; 1479 : 					strLoc << GC.getUnitInfo((UnitTypes)iQuestData)->GetDescription();
; 1480 : 					break;
; 1481 : 				case MINOR_CIV_QUEST_KILL_CITY_STATE:
; 1482 : 					strLoc = Localization::Lookup("TXT_KEY_DIPLOSTRATEGY_ALMOST_LOST_CITY_STATE_ALLY_QUEST_KILL_CITY_STATE");
; 1483 : 					strLoc << GC.getMinorCivInfo(pMinorCivAI->GetMinorCivType())->GetTextKey();
; 1484 : 					strLoc << GC.getMinorCivInfo(GET_PLAYER((PlayerTypes)iQuestData).GetMinorCivAI()->GetMinorCivType())->GetTextKey();
; 1485 : 					break;
; 1486 : 				case MINOR_CIV_QUEST_FIND_PLAYER:
; 1487 : 					strLoc = Localization::Lookup("TXT_KEY_DIPLOSTRATEGY_ALMOST_LOST_CITY_STATE_ALLY_QUEST_FIND_PLAYER");
; 1488 : 					strLoc << GC.getMinorCivInfo(pMinorCivAI->GetMinorCivType())->GetTextKey();
; 1489 : 					strLoc << GET_PLAYER((PlayerTypes)iQuestData).getCivilizationInfo().GetTextKey();
; 1490 : 					break;
; 1491 : 				case MINOR_CIV_QUEST_FIND_NATURAL_WONDER:
; 1492 : 					strLoc = Localization::Lookup("TXT_KEY_DIPLOSTRATEGY_ALMOST_LOST_CITY_STATE_ALLY_QUEST_FIND_NATURAL_WONDER");
; 1493 : 					strLoc << GC.getMinorCivInfo(pMinorCivAI->GetMinorCivType())->GetTextKey();
; 1494 : 					break;
; 1495 : 				default:
; 1496 : 					CvAssertMsg(false, "No entry for this quest type!");
; 1497 : 					break;
; 1498 : 				}
; 1499 : 			}
; 1500 : 			else if (pMinorCivAI->GetTurnsSinceThreatenedByBarbarians() >= 0)
; 1501 : 			{
; 1502 : 				strLoc = Localization::Lookup("TXT_KEY_DIPLOSTRATEGY_ALMOST_LOST_CITY_STATE_ALLY_QUEST_CLEAR_BARBARIANS");
; 1503 : 				strLoc << GC.getMinorCivInfo(pMinorCivAI->GetMinorCivType())->GetTextKey();
; 1504 : 			}
; 1505 : 			*/
; 1506 : 			else

	jmp	$LN114@BuildCouns
$LN115@BuildCouns:

; 1507 : 			{
; 1508 : 				strLoc = Localization::Lookup("TXT_KEY_DIPLOSTRATEGY_ALMOST_LOST_CITY_STATE_ALLY");

	push	OFFSET ??_C@_0DC@EGOKBOPG@TXT_KEY_DIPLOSTRATEGY_ALMOST_LOS@
	lea	eax, DWORD PTR $T224905[ebp]
	push	eax
	call	DWORD PTR __imp_?Lookup@Localization@@YA?AVString@1@PBD@Z
	add	esp, 8
	mov	DWORD PTR tv4278[ebp], eax
	mov	ecx, DWORD PTR tv4278[ebp]
	mov	DWORD PTR tv3830[ebp], ecx
	mov	BYTE PTR __$EHRec$[ebp+8], 80		; 00000050H
	mov	edx, DWORD PTR tv3830[ebp]
	push	edx
	lea	ecx, DWORD PTR _strLoc$[ebp]
	call	DWORD PTR __imp_??4String@Localization@@QAEAAV01@ABV01@@Z
	mov	BYTE PTR __$EHRec$[ebp+8], 0
	lea	ecx, DWORD PTR $T224905[ebp]
	call	DWORD PTR __imp_??1String@Localization@@UAE@XZ

; 1509 : 				strLoc << GC.getMinorCivInfo(pMinorCivAI->GetMinorCivType())->GetTextKey();

	mov	ecx, DWORD PTR _pMinorCivAI$223493[ebp]
	call	?GetMinorCivType@CvMinorCivAI@@QBE?AW4MinorCivTypes@@XZ ; CvMinorCivAI::GetMinorCivType
	push	eax
	mov	ecx, OFFSET ?gGlobals@@3VCvGlobals@@A	; gGlobals
	call	?getMinorCivInfo@CvGlobals@@QAEPAVCvMinorCivInfo@@W4MinorCivTypes@@@Z ; CvGlobals::getMinorCivInfo
	mov	ecx, eax
	call	?GetTextKey@CvBaseInfo@@QBEPBDXZ	; CvBaseInfo::GetTextKey
	mov	DWORD PTR $T224906[ebp], eax
	lea	eax, DWORD PTR $T224906[ebp]
	push	eax
	lea	ecx, DWORD PTR _strLoc$[ebp]
	push	ecx
	call	??$?6PBD@@YAAAVString@Localization@@AAV01@ABQBD@Z ; operator<<<char const *>
	add	esp, 8
$LN114@BuildCouns:

; 1510 : 			}

	jmp	$LN113@BuildCouns
$LN116@BuildCouns:

; 1511 : 		}
; 1512 : 		else if(pMinorCivAI->IsFriends(ePlayer) && pMinorCivAI->IsCloseToNotBeingFriends(ePlayer))

	mov	edx, DWORD PTR _ePlayer$[ebp]
	push	edx
	mov	ecx, DWORD PTR _pMinorCivAI$223493[ebp]
	call	?IsFriends@CvMinorCivAI@@QAE_NW4PlayerTypes@@@Z ; CvMinorCivAI::IsFriends
	movzx	eax, al
	test	eax, eax
	je	$LN112@BuildCouns
	mov	ecx, DWORD PTR _ePlayer$[ebp]
	push	ecx
	mov	ecx, DWORD PTR _pMinorCivAI$223493[ebp]
	call	?IsCloseToNotBeingFriends@CvMinorCivAI@@QAE_NW4PlayerTypes@@@Z ; CvMinorCivAI::IsCloseToNotBeingFriends
	movzx	edx, al
	test	edx, edx
	je	$LN112@BuildCouns

; 1513 : 		{
; 1514 : 			// warn the player they are about to not be an friend with a minor civ
; 1515 : 			iMessageRating = 60;

	mov	DWORD PTR _iMessageRating$223460[ebp], 60 ; 0000003cH

; 1516 : 			if(eEnemyPlayer != NO_PLAYER)

	cmp	DWORD PTR _eEnemyPlayer$223462[ebp], -1
	je	$LN111@BuildCouns

; 1517 : 			{
; 1518 : 				strLoc = Localization::Lookup("TXT_KEY_DIPLOSTRATEGY_ALMOST_LOST_CITY_STATE_FRIENDSHIP_WAR_WITH_MAJOR");

	push	OFFSET ??_C@_0EH@JIJFBKKE@TXT_KEY_DIPLOSTRATEGY_ALMOST_LOS@
	lea	eax, DWORD PTR $T224907[ebp]
	push	eax
	call	DWORD PTR __imp_?Lookup@Localization@@YA?AVString@1@PBD@Z
	add	esp, 8
	mov	DWORD PTR tv4282[ebp], eax
	mov	ecx, DWORD PTR tv4282[ebp]
	mov	DWORD PTR tv3832[ebp], ecx
	mov	BYTE PTR __$EHRec$[ebp+8], 81		; 00000051H
	mov	edx, DWORD PTR tv3832[ebp]
	push	edx
	lea	ecx, DWORD PTR _strLoc$[ebp]
	call	DWORD PTR __imp_??4String@Localization@@QAEAAV01@ABV01@@Z
	mov	BYTE PTR __$EHRec$[ebp+8], 0
	lea	ecx, DWORD PTR $T224907[ebp]
	call	DWORD PTR __imp_??1String@Localization@@UAE@XZ

; 1519 : 				strLoc << GC.getMinorCivInfo(pMinorCivAI->GetMinorCivType())->GetTextKey();

	mov	ecx, DWORD PTR _pMinorCivAI$223493[ebp]
	call	?GetMinorCivType@CvMinorCivAI@@QBE?AW4MinorCivTypes@@XZ ; CvMinorCivAI::GetMinorCivType
	push	eax
	mov	ecx, OFFSET ?gGlobals@@3VCvGlobals@@A	; gGlobals
	call	?getMinorCivInfo@CvGlobals@@QAEPAVCvMinorCivInfo@@W4MinorCivTypes@@@Z ; CvGlobals::getMinorCivInfo
	mov	ecx, eax
	call	?GetTextKey@CvBaseInfo@@QBEPBDXZ	; CvBaseInfo::GetTextKey
	mov	DWORD PTR $T224908[ebp], eax
	lea	eax, DWORD PTR $T224908[ebp]
	push	eax
	lea	ecx, DWORD PTR _strLoc$[ebp]
	push	ecx
	call	??$?6PBD@@YAAAVString@Localization@@AAV01@ABQBD@Z ; operator<<<char const *>
	add	esp, 8

; 1520 : 				strLoc << GET_PLAYER(eEnemyPlayer).getCivilizationInfo().GetTextKey();

	mov	edx, DWORD PTR _eEnemyPlayer$223462[ebp]
	imul	edx, 63236				; 0000f704H
	add	edx, DWORD PTR ?m_aPlayers@CvPlayerAI@@1PAV1@A ; CvPlayerAI::m_aPlayers
	mov	DWORD PTR $T225445[ebp], edx
	mov	ecx, DWORD PTR $T225445[ebp]
	call	?getCivilizationInfo@CvPlayer@@QBEAAVCvCivilizationInfo@@XZ ; CvPlayer::getCivilizationInfo
	mov	ecx, eax
	call	?GetTextKey@CvBaseInfo@@QBEPBDXZ	; CvBaseInfo::GetTextKey
	mov	DWORD PTR $T224909[ebp], eax
	lea	eax, DWORD PTR $T224909[ebp]
	push	eax
	lea	ecx, DWORD PTR _strLoc$[ebp]
	push	ecx
	call	??$?6PBD@@YAAAVString@Localization@@AAV01@ABQBD@Z ; operator<<<char const *>
	add	esp, 8

; 1521 : 			}
; 1522 : 			/*
; 1523 : 			else if (eQuest != NO_MINOR_CIV_QUEST_TYPE)
; 1524 : 			{
; 1525 : 				int iQuestData = pMinorCivAI->GetQuestData1(ePlayer, eQuest);
; 1526 : 
; 1527 : 				switch (eQuest)
; 1528 : 				{
; 1529 : 				case MINOR_CIV_QUEST_ROUTE:
; 1530 : 					strLoc = Localization::Lookup("TXT_KEY_DIPLOSTRATEGY_ALMOST_LOST_CITY_STATE_FRIENDSHIP_QUEST_ROUTE");
; 1531 : 					strLoc << GC.getMinorCivInfo(pMinorCivAI->GetMinorCivType())->GetTextKey();
; 1532 : 					break;
; 1533 : 				case MINOR_CIV_QUEST_KILL_CAMP:
; 1534 : 					strLoc = Localization::Lookup("TXT_KEY_DIPLOSTRATEGY_ALMOST_LOST_CITY_STATE_FRIENDSHIP_QUEST_KILL_CAMP");
; 1535 : 					strLoc << GC.getMinorCivInfo(pMinorCivAI->GetMinorCivType())->GetTextKey();
; 1536 : 					break;
; 1537 : 				case MINOR_CIV_QUEST_CONNECT_RESOURCE:
; 1538 : 					strLoc = Localization::Lookup("TXT_KEY_DIPLOSTRATEGY_ALMOST_LOST_CITY_STATE_FRIENDSHIP_QUEST_CONNECT_RESOURCE");
; 1539 : 					strLoc << GC.getMinorCivInfo(pMinorCivAI->GetMinorCivType())->GetTextKey();
; 1540 : 					strLoc << GC.getResourceInfo((ResourceTypes)iQuestData)->GetTextKey();
; 1541 : 					break;
; 1542 : 				case MINOR_CIV_QUEST_CONSTRUCT_WONDER:
; 1543 : 					strLoc = Localization::Lookup("TXT_KEY_DIPLOSTRATEGY_ALMOST_LOST_CITY_STATE_FRIENDSHIP_QUEST_CONSTRUCT_WONDER");
; 1544 : 					strLoc << GC.getMinorCivInfo(pMinorCivAI->GetMinorCivType())->GetTextKey();
; 1545 : 					strLoc << GC.getBuildingInfo((BuildingTypes)iQuestData)->GetDescription();
; 1546 : 					break;
; 1547 : 				case MINOR_CIV_QUEST_GREAT_PERSON:
; 1548 : 					strLoc = Localization::Lookup("TXT_KEY_DIPLOSTRATEGY_ALMOST_LOST_CITY_STATE_FRIENDSHIP_QUEST_GREAT_PERSON");
; 1549 : 					strLoc << GC.getMinorCivInfo(pMinorCivAI->GetMinorCivType())->GetTextKey();
; 1550 : 					strLoc << GC.getUnitInfo((UnitTypes)iQuestData)->GetDescription();
; 1551 : 					break;
; 1552 : 				case MINOR_CIV_QUEST_KILL_CITY_STATE:
; 1553 : 					strLoc = Localization::Lookup("TXT_KEY_DIPLOSTRATEGY_ALMOST_LOST_CITY_STATE_FRIENDSHIP_QUEST_KILL_CITY_STATE");
; 1554 : 					strLoc << GC.getMinorCivInfo(pMinorCivAI->GetMinorCivType())->GetTextKey();
; 1555 : 					strLoc << GC.getMinorCivInfo(GET_PLAYER((PlayerTypes)iQuestData).GetMinorCivAI()->GetMinorCivType())->GetTextKey();
; 1556 : 					break;
; 1557 : 				case MINOR_CIV_QUEST_FIND_PLAYER:
; 1558 : 					strLoc = Localization::Lookup("TXT_KEY_DIPLOSTRATEGY_ALMOST_LOST_CITY_STATE_FRIENDSHIP_QUEST_FIND_PLAYER");
; 1559 : 					strLoc << GC.getMinorCivInfo(pMinorCivAI->GetMinorCivType())->GetTextKey();
; 1560 : 					strLoc << GET_PLAYER((PlayerTypes)iQuestData).getCivilizationInfo().GetTextKey();
; 1561 : 					break;
; 1562 : 				case MINOR_CIV_QUEST_FIND_NATURAL_WONDER:
; 1563 : 					strLoc = Localization::Lookup("TXT_KEY_DIPLOSTRATEGY_ALMOST_LOST_CITY_STATE_FRIENDSHIP_QUEST_FIND_NATURAL_WONDER");
; 1564 : 					strLoc << GC.getMinorCivInfo(pMinorCivAI->GetMinorCivType())->GetTextKey();
; 1565 : 					break;
; 1566 : 				default:
; 1567 : 					CvAssertMsg(false, "No entry for this quest type!");
; 1568 : 					break;
; 1569 : 				}
; 1570 : 			}
; 1571 : 			else if (pMinorCivAI->GetTurnsSinceThreatenedByBarbarians() >= 0)
; 1572 : 			{
; 1573 : 				strLoc = Localization::Lookup("TXT_KEY_DIPLOSTRATEGY_ALMOST_LOST_CITY_STATE_FRIENDSHIP_QUEST_CLEAR_BARBARIANS");
; 1574 : 				strLoc << GC.getMinorCivInfo(pMinorCivAI->GetMinorCivType())->GetTextKey();
; 1575 : 			}
; 1576 : 			*/
; 1577 : 			else

	jmp	$LN110@BuildCouns
$LN111@BuildCouns:

; 1578 : 			{
; 1579 : 				strLoc = Localization::Lookup("TXT_KEY_DIPLOSTRATEGY_ALMOST_LOST_CITY_STATE_FRIENDSHIP");

	push	OFFSET ??_C@_0DI@MEAPCOLG@TXT_KEY_DIPLOSTRATEGY_ALMOST_LOS@
	lea	edx, DWORD PTR $T224910[ebp]
	push	edx
	call	DWORD PTR __imp_?Lookup@Localization@@YA?AVString@1@PBD@Z
	add	esp, 8
	mov	DWORD PTR tv4279[ebp], eax
	mov	eax, DWORD PTR tv4279[ebp]
	mov	DWORD PTR tv3834[ebp], eax
	mov	BYTE PTR __$EHRec$[ebp+8], 82		; 00000052H
	mov	ecx, DWORD PTR tv3834[ebp]
	push	ecx
	lea	ecx, DWORD PTR _strLoc$[ebp]
	call	DWORD PTR __imp_??4String@Localization@@QAEAAV01@ABV01@@Z
	mov	BYTE PTR __$EHRec$[ebp+8], 0
	lea	ecx, DWORD PTR $T224910[ebp]
	call	DWORD PTR __imp_??1String@Localization@@UAE@XZ

; 1580 : 				strLoc << GC.getMinorCivInfo(pMinorCivAI->GetMinorCivType())->GetTextKey();

	mov	ecx, DWORD PTR _pMinorCivAI$223493[ebp]
	call	?GetMinorCivType@CvMinorCivAI@@QBE?AW4MinorCivTypes@@XZ ; CvMinorCivAI::GetMinorCivType
	push	eax
	mov	ecx, OFFSET ?gGlobals@@3VCvGlobals@@A	; gGlobals
	call	?getMinorCivInfo@CvGlobals@@QAEPAVCvMinorCivInfo@@W4MinorCivTypes@@@Z ; CvGlobals::getMinorCivInfo
	mov	ecx, eax
	call	?GetTextKey@CvBaseInfo@@QBEPBDXZ	; CvBaseInfo::GetTextKey
	mov	DWORD PTR $T224911[ebp], eax
	lea	edx, DWORD PTR $T224911[ebp]
	push	edx
	lea	eax, DWORD PTR _strLoc$[ebp]
	push	eax
	call	??$?6PBD@@YAAAVString@Localization@@AAV01@ABQBD@Z ; operator<<<char const *>
	add	esp, 8
$LN110@BuildCouns:

; 1581 : 			}
; 1582 : 		}
; 1583 : 		else

	jmp	$LN113@BuildCouns
$LN112@BuildCouns:

; 1584 : 		{
; 1585 : 			iMessageRating = 20;

	mov	DWORD PTR _iMessageRating$223460[ebp], 20 ; 00000014H

; 1586 : 			if(eEnemyPlayer != NO_PLAYER)

	cmp	DWORD PTR _eEnemyPlayer$223462[ebp], -1
	je	$LN108@BuildCouns

; 1587 : 			{
; 1588 : 				strLoc = Localization::Lookup("TXT_KEY_DIPLOSTRATEGY_BEFRIEND_CITY_STATE_WAR_WITH_MAJOR");

	push	OFFSET ??_C@_0DJ@JJFANJMP@TXT_KEY_DIPLOSTRATEGY_BEFRIEND_C@
	lea	ecx, DWORD PTR $T224912[ebp]
	push	ecx
	call	DWORD PTR __imp_?Lookup@Localization@@YA?AVString@1@PBD@Z
	add	esp, 8
	mov	DWORD PTR tv4280[ebp], eax
	mov	edx, DWORD PTR tv4280[ebp]
	mov	DWORD PTR tv3836[ebp], edx
	mov	BYTE PTR __$EHRec$[ebp+8], 83		; 00000053H
	mov	eax, DWORD PTR tv3836[ebp]
	push	eax
	lea	ecx, DWORD PTR _strLoc$[ebp]
	call	DWORD PTR __imp_??4String@Localization@@QAEAAV01@ABV01@@Z
	mov	BYTE PTR __$EHRec$[ebp+8], 0
	lea	ecx, DWORD PTR $T224912[ebp]
	call	DWORD PTR __imp_??1String@Localization@@UAE@XZ

; 1589 : 				strLoc << GC.getMinorCivInfo(pMinorCivAI->GetMinorCivType())->GetTextKey();

	mov	ecx, DWORD PTR _pMinorCivAI$223493[ebp]
	call	?GetMinorCivType@CvMinorCivAI@@QBE?AW4MinorCivTypes@@XZ ; CvMinorCivAI::GetMinorCivType
	push	eax
	mov	ecx, OFFSET ?gGlobals@@3VCvGlobals@@A	; gGlobals
	call	?getMinorCivInfo@CvGlobals@@QAEPAVCvMinorCivInfo@@W4MinorCivTypes@@@Z ; CvGlobals::getMinorCivInfo
	mov	ecx, eax
	call	?GetTextKey@CvBaseInfo@@QBEPBDXZ	; CvBaseInfo::GetTextKey
	mov	DWORD PTR $T224913[ebp], eax
	lea	ecx, DWORD PTR $T224913[ebp]
	push	ecx
	lea	edx, DWORD PTR _strLoc$[ebp]
	push	edx
	call	??$?6PBD@@YAAAVString@Localization@@AAV01@ABQBD@Z ; operator<<<char const *>
	add	esp, 8

; 1590 : 				strLoc << GET_PLAYER(eEnemyPlayer).getCivilizationInfo().GetTextKey();

	mov	eax, DWORD PTR _eEnemyPlayer$223462[ebp]
	imul	eax, 63236				; 0000f704H
	add	eax, DWORD PTR ?m_aPlayers@CvPlayerAI@@1PAV1@A ; CvPlayerAI::m_aPlayers
	mov	DWORD PTR $T225449[ebp], eax
	mov	ecx, DWORD PTR $T225449[ebp]
	call	?getCivilizationInfo@CvPlayer@@QBEAAVCvCivilizationInfo@@XZ ; CvPlayer::getCivilizationInfo
	mov	ecx, eax
	call	?GetTextKey@CvBaseInfo@@QBEPBDXZ	; CvBaseInfo::GetTextKey
	mov	DWORD PTR $T224914[ebp], eax
	lea	ecx, DWORD PTR $T224914[ebp]
	push	ecx
	lea	edx, DWORD PTR _strLoc$[ebp]
	push	edx
	call	??$?6PBD@@YAAAVString@Localization@@AAV01@ABQBD@Z ; operator<<<char const *>
	add	esp, 8

; 1591 : 			}
; 1592 : 			/*
; 1593 : 			else if (eQuest != NO_MINOR_CIV_QUEST_TYPE)
; 1594 : 			{
; 1595 : 				int iQuestData = pMinorCivAI->GetQuestData1(ePlayer, eQuest);
; 1596 : 
; 1597 : 				switch (eQuest)
; 1598 : 				{
; 1599 : 				case MINOR_CIV_QUEST_ROUTE:
; 1600 : 					strLoc = Localization::Lookup("TXT_KEY_DIPLOSTRATEGY_BEFRIEND_CITY_STATE_QUEST_ROUTE");
; 1601 : 					strLoc << GC.getMinorCivInfo(pMinorCivAI->GetMinorCivType())->GetTextKey();
; 1602 : 					break;
; 1603 : 				case MINOR_CIV_QUEST_KILL_CAMP:
; 1604 : 					strLoc = Localization::Lookup("TXT_KEY_DIPLOSTRATEGY_BEFRIEND_CITY_STATE_QUEST_KILL_CAMP");
; 1605 : 					strLoc << GC.getMinorCivInfo(pMinorCivAI->GetMinorCivType())->GetTextKey();
; 1606 : 					break;
; 1607 : 				case MINOR_CIV_QUEST_CONNECT_RESOURCE:
; 1608 : 					strLoc = Localization::Lookup("TXT_KEY_DIPLOSTRATEGY_BEFRIEND_CITY_STATE_QUEST_CONNECT_RESOURCE");
; 1609 : 					strLoc << GC.getMinorCivInfo(pMinorCivAI->GetMinorCivType())->GetTextKey();
; 1610 : 					strLoc << GC.getResourceInfo((ResourceTypes)iQuestData)->GetTextKey();
; 1611 : 					break;
; 1612 : 				case MINOR_CIV_QUEST_CONSTRUCT_WONDER:
; 1613 : 					strLoc = Localization::Lookup("TXT_KEY_DIPLOSTRATEGY_BEFRIEND_CITY_STATE_QUEST_CONSTRUCT_WONDER");
; 1614 : 					strLoc << GC.getMinorCivInfo(pMinorCivAI->GetMinorCivType())->GetTextKey();
; 1615 : 					strLoc << GC.getBuildingInfo((BuildingTypes)iQuestData)->GetDescription();
; 1616 : 					break;
; 1617 : 				case MINOR_CIV_QUEST_GREAT_PERSON:
; 1618 : 					strLoc = Localization::Lookup("TXT_KEY_DIPLOSTRATEGY_BEFRIEND_CITY_STATE_QUEST_GREAT_PERSON");
; 1619 : 					strLoc << GC.getMinorCivInfo(pMinorCivAI->GetMinorCivType())->GetTextKey();
; 1620 : 					strLoc << GC.getUnitInfo((UnitTypes)iQuestData)->GetDescription();
; 1621 : 					break;
; 1622 : 				case MINOR_CIV_QUEST_KILL_CITY_STATE:
; 1623 : 					strLoc = Localization::Lookup("TXT_KEY_DIPLOSTRATEGY_BEFRIEND_CITY_STATE_QUEST_KILL_CITY_STATE");
; 1624 : 					strLoc << GC.getMinorCivInfo(pMinorCivAI->GetMinorCivType())->GetTextKey();
; 1625 : 					strLoc << GC.getMinorCivInfo(GET_PLAYER((PlayerTypes)iQuestData).GetMinorCivAI()->GetMinorCivType())->GetTextKey();
; 1626 : 					break;
; 1627 : 				case MINOR_CIV_QUEST_FIND_PLAYER:
; 1628 : 					strLoc = Localization::Lookup("TXT_KEY_DIPLOSTRATEGY_BEFRIEND_CITY_STATE_QUEST_FIND_PLAYER");
; 1629 : 					strLoc << GC.getMinorCivInfo(pMinorCivAI->GetMinorCivType())->GetTextKey();
; 1630 : 					strLoc << GET_PLAYER((PlayerTypes)iQuestData).getCivilizationInfo().GetTextKey();
; 1631 : 					break;
; 1632 : 				case MINOR_CIV_QUEST_FIND_NATURAL_WONDER:
; 1633 : 					strLoc = Localization::Lookup("TXT_KEY_DIPLOSTRATEGY_BEFRIEND_CITY_STATE_QUEST_FIND_NATURAL_WONDER");
; 1634 : 					strLoc << GC.getMinorCivInfo(pMinorCivAI->GetMinorCivType())->GetTextKey();
; 1635 : 					break;
; 1636 : 				default:
; 1637 : 					CvAssertMsg(false, "No entry for this quest type!");
; 1638 : 					break;
; 1639 : 				}
; 1640 : 			}
; 1641 : 			else if (pMinorCivAI->GetTurnsSinceThreatenedByBarbarians() >= 0)
; 1642 : 			{
; 1643 : 				strLoc = Localization::Lookup("TXT_KEY_DIPLOSTRATEGY_BEFRIEND_CITY_STATE_QUEST_CLEAR_BARBARIANS");
; 1644 : 				strLoc << GC.getMinorCivInfo(pMinorCivAI->GetMinorCivType())->GetTextKey();
; 1645 : 			}
; 1646 : 			*/
; 1647 : 			else

	jmp	SHORT $LN113@BuildCouns
$LN108@BuildCouns:

; 1648 : 			{
; 1649 : 				iMessageRating = 0;

	mov	DWORD PTR _iMessageRating$223460[ebp], 0
$LN113@BuildCouns:

; 1650 : 			}
; 1651 : 			//else
; 1652 : 			//{
; 1653 : 			//	strLoc = Localization::Lookup("TXT_KEY_DIPLOSTRATEGY_BEFRIEND_CITY_STATE");
; 1654 : 			//	strLoc << GC.getMinorCivInfo(pMinorCivAI->GetMinorCivType())->GetTextKey();
; 1655 : 			//}
; 1656 : 		}
; 1657 : 
; 1658 : 		if(iMessageRating > 0)

	cmp	DWORD PTR _iMessageRating$223460[ebp], 0
	jle	SHORT $LN106@BuildCouns

; 1659 : 		{
; 1660 : 			bool bSuccess = SetCounselEntry(uiCounselIndex, eAdvisor, strLoc.toUTF8(), iMessageRating);

	mov	eax, DWORD PTR _iMessageRating$223460[ebp]
	push	eax
	lea	ecx, DWORD PTR _strLoc$[ebp]
	call	DWORD PTR __imp_?toUTF8@String@Localization@@QAEPBDXZ
	push	eax
	mov	ecx, DWORD PTR _eAdvisor$223461[ebp]
	push	ecx
	mov	edx, DWORD PTR _uiCounselIndex$[ebp]
	push	edx
	mov	ecx, DWORD PTR _this$[ebp]
	call	?SetCounselEntry@CvAdvisorCounsel@@QAE_NIW4AdvisorTypes@@PBDH@Z ; CvAdvisorCounsel::SetCounselEntry
	mov	BYTE PTR _bSuccess$223523[ebp], al

; 1661 : 			CvAssertMsg(bSuccess, "Unable to add counsel to list. Too many strategies running at once");
; 1662 : 			if(!bSuccess)

	movzx	eax, BYTE PTR _bSuccess$223523[ebp]
	test	eax, eax
	jne	SHORT $LN105@BuildCouns

; 1663 : 			{
; 1664 : 				break;

	jmp	SHORT $LN131@BuildCouns
$LN105@BuildCouns:

; 1665 : 			}
; 1666 : 			uiCounselIndex++;

	mov	ecx, DWORD PTR _uiCounselIndex$[ebp]
	add	ecx, 1
	mov	DWORD PTR _uiCounselIndex$[ebp], ecx
$LN106@BuildCouns:

; 1667 : 		}
; 1668 : 	}

	jmp	$LN132@BuildCouns
$LN131@BuildCouns:

; 1669 : 
; 1670 : 	// find the biggest city
; 1671 : 	CvCity* pBiggestCity = NULL;

	mov	DWORD PTR _pBiggestCity$[ebp], 0

; 1672 : 	int iMaxPopulation = 0;

	mov	DWORD PTR _iMaxPopulation$[ebp], 0

; 1673 : 	for(pLoopCity = GET_PLAYER(ePlayer).firstCity(&iLoop); pLoopCity != NULL; pLoopCity = GET_PLAYER(ePlayer).nextCity(&iLoop))

	mov	edx, DWORD PTR _ePlayer$[ebp]
	imul	edx, 63236				; 0000f704H
	add	edx, DWORD PTR ?m_aPlayers@CvPlayerAI@@1PAV1@A ; CvPlayerAI::m_aPlayers
	mov	DWORD PTR $T225453[ebp], edx
	push	0
	lea	eax, DWORD PTR _iLoop$[ebp]
	push	eax
	mov	ecx, DWORD PTR $T225453[ebp]
	call	?firstCity@CvPlayer@@QAEPAVCvCity@@PAH_N@Z ; CvPlayer::firstCity
	mov	DWORD PTR _pLoopCity$[ebp], eax
	jmp	SHORT $LN104@BuildCouns
$LN103@BuildCouns:
	mov	ecx, DWORD PTR _ePlayer$[ebp]
	imul	ecx, 63236				; 0000f704H
	add	ecx, DWORD PTR ?m_aPlayers@CvPlayerAI@@1PAV1@A ; CvPlayerAI::m_aPlayers
	mov	DWORD PTR $T225457[ebp], ecx
	push	0
	lea	edx, DWORD PTR _iLoop$[ebp]
	push	edx
	mov	ecx, DWORD PTR $T225457[ebp]
	call	?nextCity@CvPlayer@@QAEPAVCvCity@@PAH_N@Z ; CvPlayer::nextCity
	mov	DWORD PTR _pLoopCity$[ebp], eax
$LN104@BuildCouns:
	cmp	DWORD PTR _pLoopCity$[ebp], 0
	je	SHORT $LN102@BuildCouns

; 1674 : 	{
; 1675 : 		if(pLoopCity->getPopulation() > iMaxPopulation)

	mov	ecx, DWORD PTR _pLoopCity$[ebp]
	call	?getPopulation@CvCity@@QBEHXZ		; CvCity::getPopulation
	cmp	eax, DWORD PTR _iMaxPopulation$[ebp]
	jle	SHORT $LN101@BuildCouns

; 1676 : 		{
; 1677 : 			pBiggestCity = pLoopCity;

	mov	eax, DWORD PTR _pLoopCity$[ebp]
	mov	DWORD PTR _pBiggestCity$[ebp], eax

; 1678 : 			iMaxPopulation = pBiggestCity->getPopulation();

	mov	ecx, DWORD PTR _pBiggestCity$[ebp]
	call	?getPopulation@CvCity@@QBEHXZ		; CvCity::getPopulation
	mov	DWORD PTR _iMaxPopulation$[ebp], eax
$LN101@BuildCouns:

; 1679 : 		}
; 1680 : 	}

	jmp	SHORT $LN103@BuildCouns
$LN102@BuildCouns:

; 1681 : 
; 1682 : 	if(pBiggestCity)

	cmp	DWORD PTR _pBiggestCity$[ebp], 0
	je	$LN100@BuildCouns

; 1683 : 	{
; 1684 : 		CvString strBuildingClass;

	lea	ecx, DWORD PTR _strBuildingClass$223532[ebp]
	call	DWORD PTR __imp_??0?$basic_string@DU?$char_traits@D@std@@V?$allocator@D@2@@std@@QAE@XZ
	mov	BYTE PTR __$EHRec$[ebp+8], 84		; 00000054H

; 1685 : 		for(uint uiLoop = 0; uiLoop < 4; uiLoop++)

	mov	DWORD PTR _uiLoop$223533[ebp], 0
	jmp	SHORT $LN99@BuildCouns
$LN98@BuildCouns:
	mov	ecx, DWORD PTR _uiLoop$223533[ebp]
	add	ecx, 1
	mov	DWORD PTR _uiLoop$223533[ebp], ecx
$LN99@BuildCouns:
	cmp	DWORD PTR _uiLoop$223533[ebp], 4
	jae	$LN97@BuildCouns

; 1686 : 		{
; 1687 : 			// for every science improvement building
; 1688 : 			switch(uiLoop)

	mov	edx, DWORD PTR _uiLoop$223533[ebp]
	mov	DWORD PTR tv3028[ebp], edx
	cmp	DWORD PTR tv3028[ebp], 3
	ja	$LN95@BuildCouns
	mov	eax, DWORD PTR tv3028[ebp]
	jmp	DWORD PTR $LN1063@BuildCouns[eax*4]
$LN94@BuildCouns:

; 1689 : 			{
; 1690 : 			case 0:
; 1691 : 				strBuildingClass = "BUILDINGCLASS_LIBRARY";

	mov	ecx, OFFSET ??_C@_0BG@BEAOAFMH@BUILDINGCLASS_LIBRARY?$AA@
	test	ecx, ecx
	je	SHORT $LN696@BuildCouns
	push	OFFSET ??_C@_0BG@BEAOAFMH@BUILDINGCLASS_LIBRARY?$AA@
	lea	ecx, DWORD PTR _strBuildingClass$223532[ebp]
	call	DWORD PTR __imp_?assign@?$basic_string@DU?$char_traits@D@std@@V?$allocator@D@2@@std@@QAEAAV12@PBD@Z
	jmp	SHORT $LN697@BuildCouns
$LN696@BuildCouns:
	lea	ecx, DWORD PTR _strBuildingClass$223532[ebp]
	call	DWORD PTR __imp_?clear@?$basic_string@DU?$char_traits@D@std@@V?$allocator@D@2@@std@@QAEXXZ
$LN697@BuildCouns:

; 1692 : 				break;

	jmp	SHORT $LN95@BuildCouns
$LN93@BuildCouns:

; 1693 : 			case 1:
; 1694 : 				strBuildingClass = "BUILDINGCLASS_UNIVERSITY";

	mov	edx, OFFSET ??_C@_0BJ@GHHIGDPH@BUILDINGCLASS_UNIVERSITY?$AA@
	test	edx, edx
	je	SHORT $LN700@BuildCouns
	push	OFFSET ??_C@_0BJ@GHHIGDPH@BUILDINGCLASS_UNIVERSITY?$AA@
	lea	ecx, DWORD PTR _strBuildingClass$223532[ebp]
	call	DWORD PTR __imp_?assign@?$basic_string@DU?$char_traits@D@std@@V?$allocator@D@2@@std@@QAEAAV12@PBD@Z
	jmp	SHORT $LN701@BuildCouns
$LN700@BuildCouns:
	lea	ecx, DWORD PTR _strBuildingClass$223532[ebp]
	call	DWORD PTR __imp_?clear@?$basic_string@DU?$char_traits@D@std@@V?$allocator@D@2@@std@@QAEXXZ
$LN701@BuildCouns:

; 1695 : 				break;

	jmp	SHORT $LN95@BuildCouns
$LN92@BuildCouns:

; 1696 : 			case 2:
; 1697 : 				strBuildingClass = "BUILDINGCLASS_PUBLIC_SCHOOL";

	mov	eax, OFFSET ??_C@_0BM@NIILIFPA@BUILDINGCLASS_PUBLIC_SCHOOL?$AA@
	test	eax, eax
	je	SHORT $LN704@BuildCouns
	push	OFFSET ??_C@_0BM@NIILIFPA@BUILDINGCLASS_PUBLIC_SCHOOL?$AA@
	lea	ecx, DWORD PTR _strBuildingClass$223532[ebp]
	call	DWORD PTR __imp_?assign@?$basic_string@DU?$char_traits@D@std@@V?$allocator@D@2@@std@@QAEAAV12@PBD@Z
	jmp	SHORT $LN705@BuildCouns
$LN704@BuildCouns:
	lea	ecx, DWORD PTR _strBuildingClass$223532[ebp]
	call	DWORD PTR __imp_?clear@?$basic_string@DU?$char_traits@D@std@@V?$allocator@D@2@@std@@QAEXXZ
$LN705@BuildCouns:

; 1698 : 				break;

	jmp	SHORT $LN95@BuildCouns
$LN91@BuildCouns:

; 1699 : 			case 3:
; 1700 : 				strBuildingClass = "BUILDINGCLASS_LABORATORY";

	mov	ecx, OFFSET ??_C@_0BJ@BGJEFLOC@BUILDINGCLASS_LABORATORY?$AA@
	test	ecx, ecx
	je	SHORT $LN708@BuildCouns
	push	OFFSET ??_C@_0BJ@BGJEFLOC@BUILDINGCLASS_LABORATORY?$AA@
	lea	ecx, DWORD PTR _strBuildingClass$223532[ebp]
	call	DWORD PTR __imp_?assign@?$basic_string@DU?$char_traits@D@std@@V?$allocator@D@2@@std@@QAEAAV12@PBD@Z
	jmp	SHORT $LN95@BuildCouns
$LN708@BuildCouns:
	lea	ecx, DWORD PTR _strBuildingClass$223532[ebp]
	call	DWORD PTR __imp_?clear@?$basic_string@DU?$char_traits@D@std@@V?$allocator@D@2@@std@@QAEXXZ
$LN95@BuildCouns:

; 1701 : 				break;
; 1702 : 			}
; 1703 : 
; 1704 : 			BuildingClassTypes eScienceBuildingClass = NO_BUILDINGCLASS;

	mov	DWORD PTR _eScienceBuildingClass$223549[ebp], -1

; 1705 : #ifdef AUI_WARNING_FIXES
; 1706 : 			for (uint i = 0; i < GC.getNumBuildingClassInfos(); i++)
; 1707 : #else
; 1708 : 			for(int i = 0; i < GC.getNumBuildingClassInfos(); i++)

	mov	DWORD PTR _i$223550[ebp], 0
	jmp	SHORT $LN90@BuildCouns
$LN89@BuildCouns:
	mov	edx, DWORD PTR _i$223550[ebp]
	add	edx, 1
	mov	DWORD PTR _i$223550[ebp], edx
$LN90@BuildCouns:
	mov	ecx, OFFSET ?gGlobals@@3VCvGlobals@@A	; gGlobals
	call	?getNumBuildingClassInfos@CvGlobals@@QAEHXZ ; CvGlobals::getNumBuildingClassInfos
	cmp	DWORD PTR _i$223550[ebp], eax
	jge	$LN88@BuildCouns

; 1709 : #endif
; 1710 : 			{
; 1711 : 				BuildingClassTypes eBuildingClass = (BuildingClassTypes)i;

	mov	eax, DWORD PTR _i$223550[ebp]
	mov	DWORD PTR _eBuildingClass$223554[ebp], eax

; 1712 : 
; 1713 : 				CvBuildingClassInfo* pkBuildingClassInfo = GC.getBuildingClassInfo(eBuildingClass);

	mov	ecx, DWORD PTR _eBuildingClass$223554[ebp]
	push	ecx
	mov	ecx, OFFSET ?gGlobals@@3VCvGlobals@@A	; gGlobals
	call	?getBuildingClassInfo@CvGlobals@@QAEPAVCvBuildingClassInfo@@W4BuildingClassTypes@@@Z ; CvGlobals::getBuildingClassInfo
	mov	DWORD PTR _pkBuildingClassInfo$223556[ebp], eax

; 1714 : 				if(!pkBuildingClassInfo)

	cmp	DWORD PTR _pkBuildingClassInfo$223556[ebp], 0
	jne	SHORT $LN87@BuildCouns

; 1715 : 				{
; 1716 : 					continue;

	jmp	SHORT $LN89@BuildCouns
$LN87@BuildCouns:

; 1717 : 				}
; 1718 : 
; 1719 : 				if(GC.getBuildingClassInfo(eBuildingClass)->GetType() == strBuildingClass)

	mov	edx, DWORD PTR _eBuildingClass$223554[ebp]
	push	edx
	mov	ecx, OFFSET ?gGlobals@@3VCvGlobals@@A	; gGlobals
	call	?getBuildingClassInfo@CvGlobals@@QAEPAVCvBuildingClassInfo@@W4BuildingClassTypes@@@Z ; CvGlobals::getBuildingClassInfo
	mov	DWORD PTR $T225485[ebp], eax
	mov	ecx, DWORD PTR $T225485[ebp]
	add	ecx, 176				; 000000b0H
	call	DWORD PTR __imp_?c_str@?$basic_string@DU?$char_traits@D@std@@V?$allocator@D@2@@std@@QBEPBDXZ
	mov	DWORD PTR $T225486[ebp], eax
	lea	eax, DWORD PTR _strBuildingClass$223532[ebp]
	push	eax
	mov	ecx, DWORD PTR $T225486[ebp]
	push	ecx
	call	DWORD PTR __imp_??$?8DU?$char_traits@D@std@@V?$allocator@D@1@@std@@YA_NPBDABV?$basic_string@DU?$char_traits@D@std@@V?$allocator@D@2@@0@@Z
	add	esp, 8
	movzx	edx, al
	test	edx, edx
	je	SHORT $LN86@BuildCouns

; 1720 : 				{
; 1721 : 					eScienceBuildingClass = eBuildingClass;

	mov	eax, DWORD PTR _eBuildingClass$223554[ebp]
	mov	DWORD PTR _eScienceBuildingClass$223549[ebp], eax

; 1722 : 					break;

	jmp	SHORT $LN88@BuildCouns
$LN86@BuildCouns:

; 1723 : 				}
; 1724 : 			}

	jmp	$LN89@BuildCouns
$LN88@BuildCouns:

; 1725 : 
; 1726 : 			if(eScienceBuildingClass == NO_BUILDINGCLASS)

	cmp	DWORD PTR _eScienceBuildingClass$223549[ebp], -1
	jne	SHORT $LN85@BuildCouns

; 1727 : 			{
; 1728 : 				continue;

	jmp	$LN98@BuildCouns
$LN85@BuildCouns:

; 1729 : 			}
; 1730 : 
; 1731 : 			BuildingTypes eRecommendedResearchBuilding = NO_BUILDING;

	mov	DWORD PTR _eRecommendedResearchBuilding$223560[ebp], -1

; 1732 : #ifdef AUI_WARNING_FIXES
; 1733 : 			for (uint i = 0; i < GC.getNumBuildingInfos(); i++)
; 1734 : #else
; 1735 : 			for(int i = 0; i < GC.getNumBuildingInfos(); i++)

	mov	DWORD PTR _i$223561[ebp], 0
	jmp	SHORT $LN84@BuildCouns
$LN83@BuildCouns:
	mov	ecx, DWORD PTR _i$223561[ebp]
	add	ecx, 1
	mov	DWORD PTR _i$223561[ebp], ecx
$LN84@BuildCouns:
	mov	ecx, OFFSET ?gGlobals@@3VCvGlobals@@A	; gGlobals
	call	?getNumBuildingInfos@CvGlobals@@QAEHXZ	; CvGlobals::getNumBuildingInfos
	cmp	DWORD PTR _i$223561[ebp], eax
	jge	SHORT $LN82@BuildCouns

; 1736 : #endif
; 1737 : 			{
; 1738 : 				BuildingTypes eBuildingType = (BuildingTypes)i;

	mov	edx, DWORD PTR _i$223561[ebp]
	mov	DWORD PTR _eBuildingType$223565[ebp], edx

; 1739 : 				CvBuildingEntry* pkEntry = GC.getBuildingInfo(eBuildingType);

	mov	eax, DWORD PTR _eBuildingType$223565[ebp]
	push	eax
	mov	ecx, OFFSET ?gGlobals@@3VCvGlobals@@A	; gGlobals
	call	?getBuildingInfo@CvGlobals@@QAEPAVCvBuildingEntry@@W4BuildingTypes@@@Z ; CvGlobals::getBuildingInfo
	mov	DWORD PTR _pkEntry$223567[ebp], eax

; 1740 : 				if(!pkEntry || pkEntry->GetBuildingClassType() != eScienceBuildingClass)

	cmp	DWORD PTR _pkEntry$223567[ebp], 0
	je	SHORT $LN80@BuildCouns
	mov	ecx, DWORD PTR _pkEntry$223567[ebp]
	call	?GetBuildingClassType@CvBuildingEntry@@QBEHXZ ; CvBuildingEntry::GetBuildingClassType
	cmp	eax, DWORD PTR _eScienceBuildingClass$223549[ebp]
	je	SHORT $LN81@BuildCouns
$LN80@BuildCouns:

; 1741 : 				{
; 1742 : 					continue;

	jmp	SHORT $LN83@BuildCouns
$LN81@BuildCouns:

; 1743 : 				}
; 1744 : 
; 1745 : 				if(pBiggestCity->canConstruct(eBuildingType))

	push	0
	push	0
	push	0
	push	0
	mov	ecx, DWORD PTR _eBuildingType$223565[ebp]
	push	ecx
	mov	ecx, DWORD PTR _pBiggestCity$[ebp]
	call	?canConstruct@CvCity@@QBE_NW4BuildingTypes@@_N11PAVCvString@@@Z ; CvCity::canConstruct
	movzx	edx, al
	test	edx, edx
	je	SHORT $LN79@BuildCouns

; 1746 : 				{
; 1747 : 					eRecommendedResearchBuilding = eBuildingType;

	mov	eax, DWORD PTR _eBuildingType$223565[ebp]
	mov	DWORD PTR _eRecommendedResearchBuilding$223560[ebp], eax

; 1748 : 					break;

	jmp	SHORT $LN82@BuildCouns
$LN79@BuildCouns:

; 1749 : 				}
; 1750 : 			}

	jmp	$LN83@BuildCouns
$LN82@BuildCouns:

; 1751 : 
; 1752 : 			if(eRecommendedResearchBuilding != NO_BUILDING)

	cmp	DWORD PTR _eRecommendedResearchBuilding$223560[ebp], -1
	je	$LN78@BuildCouns

; 1753 : 			{
; 1754 : 
; 1755 : 				strLoc = Localization::Lookup("TXT_KEY_SCIENCESTRATEGY_RESEARCH_BUILDING_IN_BIG_CITY");

	push	OFFSET ??_C@_0DG@EELBGMLO@TXT_KEY_SCIENCESTRATEGY_RESEARCH@
	lea	ecx, DWORD PTR $T224915[ebp]
	push	ecx
	call	DWORD PTR __imp_?Lookup@Localization@@YA?AVString@1@PBD@Z
	add	esp, 8
	mov	DWORD PTR tv4277[ebp], eax
	mov	edx, DWORD PTR tv4277[ebp]
	mov	DWORD PTR tv3839[ebp], edx
	mov	BYTE PTR __$EHRec$[ebp+8], 85		; 00000055H
	mov	eax, DWORD PTR tv3839[ebp]
	push	eax
	lea	ecx, DWORD PTR _strLoc$[ebp]
	call	DWORD PTR __imp_??4String@Localization@@QAEAAV01@ABV01@@Z
	mov	BYTE PTR __$EHRec$[ebp+8], 84		; 00000054H
	lea	ecx, DWORD PTR $T224915[ebp]
	call	DWORD PTR __imp_??1String@Localization@@UAE@XZ

; 1756 : 				strLoc << pBiggestCity->getNameKey();

	mov	ecx, DWORD PTR _pBiggestCity$[ebp]
	call	?getNameKey@CvCity@@QBEPBDXZ		; CvCity::getNameKey
	mov	DWORD PTR $T224916[ebp], eax
	lea	ecx, DWORD PTR $T224916[ebp]
	push	ecx
	lea	edx, DWORD PTR _strLoc$[ebp]
	push	edx
	call	??$?6PBD@@YAAAVString@Localization@@AAV01@ABQBD@Z ; operator<<<char const *>
	add	esp, 8

; 1757 : 				strLoc << GC.getBuildingInfo(eRecommendedResearchBuilding)->GetTextKey();

	mov	eax, DWORD PTR _eRecommendedResearchBuilding$223560[ebp]
	push	eax
	mov	ecx, OFFSET ?gGlobals@@3VCvGlobals@@A	; gGlobals
	call	?getBuildingInfo@CvGlobals@@QAEPAVCvBuildingEntry@@W4BuildingTypes@@@Z ; CvGlobals::getBuildingInfo
	mov	ecx, eax
	call	?GetTextKey@CvBaseInfo@@QBEPBDXZ	; CvBaseInfo::GetTextKey
	mov	DWORD PTR $T224917[ebp], eax
	lea	ecx, DWORD PTR $T224917[ebp]
	push	ecx
	lea	edx, DWORD PTR _strLoc$[ebp]
	push	edx
	call	??$?6PBD@@YAAAVString@Localization@@AAV01@ABQBD@Z ; operator<<<char const *>
	add	esp, 8

; 1758 : 				strLoc << GC.getBuildingInfo(eRecommendedResearchBuilding)->GetTextKey();

	mov	eax, DWORD PTR _eRecommendedResearchBuilding$223560[ebp]
	push	eax
	mov	ecx, OFFSET ?gGlobals@@3VCvGlobals@@A	; gGlobals
	call	?getBuildingInfo@CvGlobals@@QAEPAVCvBuildingEntry@@W4BuildingTypes@@@Z ; CvGlobals::getBuildingInfo
	mov	ecx, eax
	call	?GetTextKey@CvBaseInfo@@QBEPBDXZ	; CvBaseInfo::GetTextKey
	mov	DWORD PTR $T224918[ebp], eax
	lea	ecx, DWORD PTR $T224918[ebp]
	push	ecx
	lea	edx, DWORD PTR _strLoc$[ebp]
	push	edx
	call	??$?6PBD@@YAAAVString@Localization@@AAV01@ABQBD@Z ; operator<<<char const *>
	add	esp, 8

; 1759 : 
; 1760 : 				bool bSuccess = SetCounselEntry(uiCounselIndex, ADVISOR_SCIENCE, strLoc.toUTF8(), 20);

	push	20					; 00000014H
	lea	ecx, DWORD PTR _strLoc$[ebp]
	call	DWORD PTR __imp_?toUTF8@String@Localization@@QAEPBDXZ
	push	eax
	push	3
	mov	eax, DWORD PTR _uiCounselIndex$[ebp]
	push	eax
	mov	ecx, DWORD PTR _this$[ebp]
	call	?SetCounselEntry@CvAdvisorCounsel@@QAE_NIW4AdvisorTypes@@PBDH@Z ; CvAdvisorCounsel::SetCounselEntry
	mov	BYTE PTR _bSuccess$223577[ebp], al

; 1761 : 				CvAssertMsg(bSuccess, "Unable to add counsel to list. Too many strategies running at once");
; 1762 : 				if(!bSuccess)

	movzx	ecx, BYTE PTR _bSuccess$223577[ebp]
	test	ecx, ecx
	jne	SHORT $LN77@BuildCouns

; 1763 : 				{
; 1764 : 					break;

	jmp	SHORT $LN97@BuildCouns
$LN77@BuildCouns:

; 1765 : 				}
; 1766 : 				uiCounselIndex++;

	mov	edx, DWORD PTR _uiCounselIndex$[ebp]
	add	edx, 1
	mov	DWORD PTR _uiCounselIndex$[ebp], edx

; 1767 : 
; 1768 : 				break;

	jmp	SHORT $LN97@BuildCouns
$LN78@BuildCouns:

; 1769 : 			}
; 1770 : 		}

	jmp	$LN98@BuildCouns
$LN97@BuildCouns:

; 1771 : 	}

	mov	BYTE PTR __$EHRec$[ebp+8], 0
	lea	ecx, DWORD PTR _strBuildingClass$223532[ebp]
	call	DWORD PTR __imp_??1?$basic_string@DU?$char_traits@D@std@@V?$allocator@D@2@@std@@QAE@XZ
$LN100@BuildCouns:

; 1772 : 
; 1773 : 	CvPlotsVector& aiPlots = GET_PLAYER(ePlayer).GetPlots();

	mov	eax, DWORD PTR _ePlayer$[ebp]
	imul	eax, 63236				; 0000f704H
	add	eax, DWORD PTR ?m_aPlayers@CvPlayerAI@@1PAV1@A ; CvPlayerAI::m_aPlayers
	mov	DWORD PTR $T225494[ebp], eax
	mov	ecx, DWORD PTR $T225494[ebp]
	call	?GetPlots@CvPlayer@@QAEAAV?$FStaticVector@H$0DJAA@$00$0BCJ@$0A@@@XZ ; CvPlayer::GetPlots
	mov	DWORD PTR _aiPlots$[ebp], eax

; 1774 : 	ResourceTypes eRecommendedResource = NO_RESOURCE;

	mov	DWORD PTR _eRecommendedResource$[ebp], -1

; 1775 : 	CvPlot* pResourcePlot = NULL;

	mov	DWORD PTR _pResourcePlot$[ebp], 0

; 1776 : 	int iNumOfResource = MAX_INT;

	mov	DWORD PTR _iNumOfResource$[ebp], 2147483647 ; 7fffffffH

; 1777 : 	for(uint ui = 0; ui < aiPlots.size(); ui++)

	mov	DWORD PTR _ui$223583[ebp], 0
	jmp	SHORT $LN76@BuildCouns
$LN75@BuildCouns:
	mov	ecx, DWORD PTR _ui$223583[ebp]
	add	ecx, 1
	mov	DWORD PTR _ui$223583[ebp], ecx
$LN76@BuildCouns:
	mov	edx, DWORD PTR _aiPlots$[ebp]
	mov	eax, DWORD PTR [edx+4]
	mov	DWORD PTR $T225498[ebp], eax
	mov	ecx, DWORD PTR _ui$223583[ebp]
	cmp	ecx, DWORD PTR $T225498[ebp]
	jae	$LN74@BuildCouns

; 1778 : 	{
; 1779 : 		CvPlot* pPlot = NULL;

	mov	DWORD PTR _pPlot$223587[ebp], 0

; 1780 : 		// when we encounter the first plot that is invalid, the rest of the list will be invalid
; 1781 : 		if(aiPlots[ui] == -1)

	mov	edx, DWORD PTR _aiPlots$[ebp]
	mov	eax, DWORD PTR [edx]
	mov	ecx, DWORD PTR _ui$223583[ebp]
	cmp	DWORD PTR [eax+ecx*4], -1
	jne	SHORT $LN73@BuildCouns

; 1782 : 		{
; 1783 : 			break;

	jmp	$LN74@BuildCouns
$LN73@BuildCouns:

; 1784 : 		}
; 1785 : 
; 1786 : 		pPlot = GC.getMap().plotByIndex(aiPlots[ui]);

	mov	edx, DWORD PTR _aiPlots$[ebp]
	mov	eax, DWORD PTR [edx]
	mov	ecx, DWORD PTR _ui$223583[ebp]
	lea	edx, DWORD PTR [eax+ecx*4]
	mov	DWORD PTR $T225505[ebp], edx
	mov	eax, DWORD PTR ?gGlobals@@3VCvGlobals@@A+52
	mov	DWORD PTR $T225509[ebp], eax
	mov	ecx, DWORD PTR $T225505[ebp]
	mov	edx, DWORD PTR [ecx]
	mov	DWORD PTR $T225523[ebp], edx
	cmp	DWORD PTR $T225523[ebp], 0
	jl	SHORT $LN728@BuildCouns
	mov	eax, DWORD PTR $T225509[ebp]
	mov	ecx, DWORD PTR [eax+4028]
	mov	DWORD PTR $T225516[ebp], ecx
	mov	edx, DWORD PTR $T225523[ebp]
	cmp	edx, DWORD PTR $T225516[ebp]
	jge	SHORT $LN728@BuildCouns
	mov	eax, DWORD PTR $T225523[ebp]
	imul	eax, 484				; 000001e4H
	mov	ecx, DWORD PTR $T225509[ebp]
	add	eax, DWORD PTR [ecx+4068]
	mov	DWORD PTR tv4157[ebp], eax
	jmp	SHORT $LN726@BuildCouns
$LN728@BuildCouns:
	mov	DWORD PTR tv4157[ebp], 0
$LN726@BuildCouns:
	mov	edx, DWORD PTR tv4157[ebp]
	mov	DWORD PTR _pPlot$223587[ebp], edx

; 1787 : 		if(!pPlot)

	cmp	DWORD PTR _pPlot$223587[ebp], 0
	jne	SHORT $LN72@BuildCouns

; 1788 : 		{
; 1789 : 			continue;

	jmp	$LN75@BuildCouns
$LN72@BuildCouns:

; 1790 : 		}
; 1791 : 
; 1792 : 		ResourceTypes eResource = pPlot->getResourceType(GET_PLAYER(ePlayer).getTeam());

	mov	eax, DWORD PTR _ePlayer$[ebp]
	imul	eax, 63236				; 0000f704H
	add	eax, DWORD PTR ?m_aPlayers@CvPlayerAI@@1PAV1@A ; CvPlayerAI::m_aPlayers
	mov	DWORD PTR $T225527[ebp], eax
	mov	ecx, DWORD PTR $T225527[ebp]
	mov	edx, DWORD PTR [ecx+44]
	push	edx
	call	?teamType@CvPreGame@@YA?AW4TeamTypes@@W4PlayerTypes@@@Z ; CvPreGame::teamType
	add	esp, 4
	mov	DWORD PTR $T225536[ebp], eax
	mov	eax, DWORD PTR $T225536[ebp]
	push	eax
	mov	ecx, DWORD PTR _pPlot$223587[ebp]
	call	?getResourceType@CvPlot@@QBE?AW4ResourceTypes@@W4TeamTypes@@@Z ; CvPlot::getResourceType
	mov	DWORD PTR _eResource$223590[ebp], eax

; 1793 : 		if(eResource == NO_RESOURCE)

	cmp	DWORD PTR _eResource$223590[ebp], -1
	jne	SHORT $LN71@BuildCouns

; 1794 : 		{
; 1795 : 			continue;

	jmp	$LN75@BuildCouns
$LN71@BuildCouns:

; 1796 : 		}
; 1797 : 
; 1798 : 		if(GC.getResourceInfo(eResource)->getResourceUsage() == RESOURCEUSAGE_LUXURY || GC.getResourceInfo(eResource)->getResourceUsage() == RESOURCEUSAGE_STRATEGIC)

	mov	ecx, DWORD PTR _eResource$223590[ebp]
	push	ecx
	mov	ecx, OFFSET ?gGlobals@@3VCvGlobals@@A	; gGlobals
	call	?getResourceInfo@CvGlobals@@QAEPAVCvResourceInfo@@W4ResourceTypes@@@Z ; CvGlobals::getResourceInfo
	mov	ecx, eax
	call	?getResourceUsage@CvResourceInfo@@QBE?AW4ResourceUsageTypes@@XZ ; CvResourceInfo::getResourceUsage
	cmp	eax, 2
	je	SHORT $LN69@BuildCouns
	mov	edx, DWORD PTR _eResource$223590[ebp]
	push	edx
	mov	ecx, OFFSET ?gGlobals@@3VCvGlobals@@A	; gGlobals
	call	?getResourceInfo@CvGlobals@@QAEPAVCvResourceInfo@@W4ResourceTypes@@@Z ; CvGlobals::getResourceInfo
	mov	ecx, eax
	call	?getResourceUsage@CvResourceInfo@@QBE?AW4ResourceUsageTypes@@XZ ; CvResourceInfo::getResourceUsage
	cmp	eax, 1
	jne	$LN70@BuildCouns
$LN69@BuildCouns:

; 1799 : 		{
; 1800 : 			// if we don't have any of this resource
; 1801 : 			if(GET_PLAYER(ePlayer).getNumResourceTotal(eResource) < iNumOfResource)

	mov	eax, DWORD PTR _ePlayer$[ebp]
	imul	eax, 63236				; 0000f704H
	add	eax, DWORD PTR ?m_aPlayers@CvPlayerAI@@1PAV1@A ; CvPlayerAI::m_aPlayers
	mov	DWORD PTR $T225540[ebp], eax
	push	1
	mov	ecx, DWORD PTR _eResource$223590[ebp]
	push	ecx
	mov	ecx, DWORD PTR $T225540[ebp]
	call	?getNumResourceTotal@CvPlayer@@QBEHW4ResourceTypes@@_N@Z ; CvPlayer::getNumResourceTotal
	cmp	eax, DWORD PTR _iNumOfResource$[ebp]
	jge	$LN70@BuildCouns

; 1802 : 			{
; 1803 : #ifdef AUI_WARNING_FIXES
; 1804 : 				for (uint iBuild = 0; iBuild < GC.getNumBuildInfos(); iBuild++)
; 1805 : #else
; 1806 : 				for(int iBuild = 0; iBuild < GC.getNumBuildInfos(); iBuild++)

	mov	DWORD PTR _iBuild$223595[ebp], 0
	jmp	SHORT $LN67@BuildCouns
$LN66@BuildCouns:
	mov	edx, DWORD PTR _iBuild$223595[ebp]
	add	edx, 1
	mov	DWORD PTR _iBuild$223595[ebp], edx
$LN67@BuildCouns:
	mov	ecx, OFFSET ?gGlobals@@3VCvGlobals@@A	; gGlobals
	call	?getNumBuildInfos@CvGlobals@@QAEHXZ	; CvGlobals::getNumBuildInfos
	cmp	DWORD PTR _iBuild$223595[ebp], eax
	jge	$LN70@BuildCouns

; 1807 : #endif
; 1808 : 				{
; 1809 : 					BuildTypes eBuild = (BuildTypes)iBuild;

	mov	eax, DWORD PTR _iBuild$223595[ebp]
	mov	DWORD PTR _eBuild$223599[ebp], eax

; 1810 : 					CvBuildInfo* pkBuild = GC.getBuildInfo(eBuild);

	mov	ecx, DWORD PTR _eBuild$223599[ebp]
	push	ecx
	mov	ecx, OFFSET ?gGlobals@@3VCvGlobals@@A	; gGlobals
	call	?getBuildInfo@CvGlobals@@QAEPAVCvBuildInfo@@W4BuildTypes@@@Z ; CvGlobals::getBuildInfo
	mov	DWORD PTR _pkBuild$223601[ebp], eax

; 1811 : 					if(pkBuild == NULL)

	cmp	DWORD PTR _pkBuild$223601[ebp], 0
	jne	SHORT $LN64@BuildCouns

; 1812 : 					{
; 1813 : 						continue;

	jmp	SHORT $LN66@BuildCouns
$LN64@BuildCouns:

; 1814 : 					}
; 1815 : 
; 1816 : 					ImprovementTypes eImprovement = (ImprovementTypes)pkBuild->getImprovement();

	mov	ecx, DWORD PTR _pkBuild$223601[ebp]
	call	?getImprovement@CvBuildInfo@@QBEHXZ	; CvBuildInfo::getImprovement
	mov	DWORD PTR _eImprovement$223603[ebp], eax

; 1817 : 					if(eImprovement == NO_IMPROVEMENT)

	cmp	DWORD PTR _eImprovement$223603[ebp], -1
	jne	SHORT $LN63@BuildCouns

; 1818 : 					{
; 1819 : 						continue;

	jmp	SHORT $LN66@BuildCouns
$LN63@BuildCouns:

; 1820 : 					}
; 1821 : 
; 1822 : 					if(!GC.getImprovementInfo(eImprovement)->IsImprovementResourceTrade(eResource))

	mov	edx, DWORD PTR _eResource$223590[ebp]
	push	edx
	mov	eax, DWORD PTR _eImprovement$223603[ebp]
	push	eax
	mov	ecx, OFFSET ?gGlobals@@3VCvGlobals@@A	; gGlobals
	call	?getImprovementInfo@CvGlobals@@QAEPAVCvImprovementEntry@@W4ImprovementTypes@@@Z ; CvGlobals::getImprovementInfo
	mov	ecx, eax
	call	?IsImprovementResourceTrade@CvImprovementEntry@@QBE_NH@Z ; CvImprovementEntry::IsImprovementResourceTrade
	movzx	ecx, al
	test	ecx, ecx
	jne	SHORT $LN62@BuildCouns

; 1823 : 					{
; 1824 : 						continue;

	jmp	$LN66@BuildCouns
$LN62@BuildCouns:

; 1825 : 					}
; 1826 : 
; 1827 : 					if(GET_PLAYER(ePlayer).canBuild(pPlot, eBuild))

	mov	edx, DWORD PTR _ePlayer$[ebp]
	imul	edx, 63236				; 0000f704H
	add	edx, DWORD PTR ?m_aPlayers@CvPlayerAI@@1PAV1@A ; CvPlayerAI::m_aPlayers
	mov	DWORD PTR $T225544[ebp], edx
	push	1
	push	1
	push	0
	push	0
	mov	eax, DWORD PTR _eBuild$223599[ebp]
	push	eax
	mov	ecx, DWORD PTR _pPlot$223587[ebp]
	push	ecx
	mov	ecx, DWORD PTR $T225544[ebp]
	call	?canBuild@CvPlayer@@QBE_NPBVCvPlot@@W4BuildTypes@@_N222@Z ; CvPlayer::canBuild
	movzx	edx, al
	test	edx, edx
	je	$LN61@BuildCouns

; 1828 : 					{
; 1829 : 						// ensure there is a city working this tile
; 1830 : 						if(pPlot->getWorkingCity())

	mov	ecx, DWORD PTR _pPlot$223587[ebp]
	call	?getWorkingCity@CvPlot@@QBEPAVCvCity@@XZ ; CvPlot::getWorkingCity
	test	eax, eax
	je	$LN61@BuildCouns

; 1831 : 						{
; 1832 : 							// check for a worker in this plot
; 1833 : 							bool bWorkerAlreadyOnIt = false;

	mov	BYTE PTR _bWorkerAlreadyOnIt$223609[ebp], 0

; 1834 : 							IDInfo* pPlotUnitNode = pPlot->headUnitNode();

	mov	ecx, DWORD PTR _pPlot$223587[ebp]
	call	?headUnitNode@CvPlot@@QAEPAUIDInfo@@XZ	; CvPlot::headUnitNode
	mov	DWORD PTR _pPlotUnitNode$223610[ebp], eax
$LN59@BuildCouns:

; 1835 : 
; 1836 : 							while(pPlotUnitNode != NULL)

	cmp	DWORD PTR _pPlotUnitNode$223610[ebp], 0
	je	$LN58@BuildCouns

; 1837 : 							{
; 1838 : 								CvUnit* pLoopUnit = ::getUnit(*pPlotUnitNode);

	mov	eax, DWORD PTR _pPlotUnitNode$223610[ebp]
	push	eax
	call	?getUnit@@YAPAVCvUnit@@ABUIDInfo@@@Z	; getUnit
	add	esp, 4
	mov	DWORD PTR _pLoopUnit$223614[ebp], eax

; 1839 : 								pPlotUnitNode = pPlot->nextUnitNode(pPlotUnitNode);

	mov	ecx, DWORD PTR _pPlotUnitNode$223610[ebp]
	push	ecx
	mov	ecx, DWORD PTR _pPlot$223587[ebp]
	call	?nextUnitNode@CvPlot@@QAEPAUIDInfo@@PAU2@@Z ; CvPlot::nextUnitNode
	mov	DWORD PTR _pPlotUnitNode$223610[ebp], eax

; 1840 : 
; 1841 : 								if(pLoopUnit->getOwner() != ePlayer)

	mov	edx, DWORD PTR _pLoopUnit$223614[ebp]
	mov	eax, DWORD PTR [edx+40]
	mov	DWORD PTR $T225553[ebp], eax
	mov	ecx, DWORD PTR $T225553[ebp]
	cmp	ecx, DWORD PTR _ePlayer$[ebp]
	je	SHORT $LN57@BuildCouns

; 1842 : 								{
; 1843 : 									continue;

	jmp	SHORT $LN59@BuildCouns
$LN57@BuildCouns:

; 1844 : 								}
; 1845 : 
; 1846 : 								// walk through missions
; 1847 : 								int iNumMissions = pLoopUnit->GetLengthMissionQueue();

	mov	ecx, DWORD PTR _pLoopUnit$223614[ebp]
	call	?GetLengthMissionQueue@CvUnit@@QBEHXZ	; CvUnit::GetLengthMissionQueue
	mov	DWORD PTR _iNumMissions$223616[ebp], eax

; 1848 : 								for(int i = 0; i < iNumMissions; i++)

	mov	DWORD PTR _i$223617[ebp], 0
	jmp	SHORT $LN56@BuildCouns
$LN55@BuildCouns:
	mov	edx, DWORD PTR _i$223617[ebp]
	add	edx, 1
	mov	DWORD PTR _i$223617[ebp], edx
$LN56@BuildCouns:
	mov	eax, DWORD PTR _i$223617[ebp]
	cmp	eax, DWORD PTR _iNumMissions$223616[ebp]
	jge	SHORT $LN54@BuildCouns

; 1849 : 								{
; 1850 : 									const MissionData* pMission = pLoopUnit->GetMissionData(i);

	mov	ecx, DWORD PTR _i$223617[ebp]
	push	ecx
	mov	ecx, DWORD PTR _pLoopUnit$223614[ebp]
	call	?GetMissionData@CvUnit@@QAEPBUMissionData@@H@Z ; CvUnit::GetMissionData
	mov	DWORD PTR _pMission$223621[ebp], eax

; 1851 : 									if(pMission->eMissionType == CvTypes::getMISSION_BUILD() && pMission->iData1 == eBuild)

	call	?getMISSION_BUILD@CvTypes@@YA?BW4MissionTypes@@XZ ; CvTypes::getMISSION_BUILD
	mov	edx, DWORD PTR _pMission$223621[ebp]
	cmp	DWORD PTR [edx], eax
	jne	SHORT $LN53@BuildCouns
	mov	eax, DWORD PTR _pMission$223621[ebp]
	mov	ecx, DWORD PTR [eax+4]
	cmp	ecx, DWORD PTR _eBuild$223599[ebp]
	jne	SHORT $LN53@BuildCouns

; 1852 : 									{
; 1853 : 										bWorkerAlreadyOnIt = true;

	mov	BYTE PTR _bWorkerAlreadyOnIt$223609[ebp], 1

; 1854 : 										break;

	jmp	SHORT $LN54@BuildCouns
$LN53@BuildCouns:

; 1855 : 									}
; 1856 : 
; 1857 : 								}

	jmp	SHORT $LN55@BuildCouns
$LN54@BuildCouns:

; 1858 : 
; 1859 : 								if(bWorkerAlreadyOnIt)

	movzx	edx, BYTE PTR _bWorkerAlreadyOnIt$223609[ebp]
	test	edx, edx
	je	SHORT $LN52@BuildCouns

; 1860 : 								{
; 1861 : 									break;

	jmp	SHORT $LN58@BuildCouns
$LN52@BuildCouns:

; 1862 : 								}
; 1863 : 							}

	jmp	$LN59@BuildCouns
$LN58@BuildCouns:

; 1864 : 
; 1865 : 							if(!bWorkerAlreadyOnIt)

	movzx	eax, BYTE PTR _bWorkerAlreadyOnIt$223609[ebp]
	test	eax, eax
	jne	SHORT $LN61@BuildCouns

; 1866 : 							{
; 1867 : 								eRecommendedResource = eResource;

	mov	ecx, DWORD PTR _eResource$223590[ebp]
	mov	DWORD PTR _eRecommendedResource$[ebp], ecx

; 1868 : 								pResourcePlot = pPlot;

	mov	edx, DWORD PTR _pPlot$223587[ebp]
	mov	DWORD PTR _pResourcePlot$[ebp], edx

; 1869 : 								iNumOfResource = GET_PLAYER(ePlayer).getNumResourceTotal(eResource);

	mov	eax, DWORD PTR _ePlayer$[ebp]
	imul	eax, 63236				; 0000f704H
	add	eax, DWORD PTR ?m_aPlayers@CvPlayerAI@@1PAV1@A ; CvPlayerAI::m_aPlayers
	mov	DWORD PTR $T225557[ebp], eax
	push	1
	mov	ecx, DWORD PTR _eResource$223590[ebp]
	push	ecx
	mov	ecx, DWORD PTR $T225557[ebp]
	call	?getNumResourceTotal@CvPlayer@@QBEHW4ResourceTypes@@_N@Z ; CvPlayer::getNumResourceTotal
	mov	DWORD PTR _iNumOfResource$[ebp], eax
$LN61@BuildCouns:

; 1870 : 							}
; 1871 : 						}
; 1872 : 					}
; 1873 : 				}

	jmp	$LN66@BuildCouns
$LN70@BuildCouns:

; 1874 : 			}
; 1875 : 		}
; 1876 : 	}

	jmp	$LN75@BuildCouns
$LN74@BuildCouns:

; 1877 : 
; 1878 : 	if(eRecommendedResource != NO_RESOURCE)

	cmp	DWORD PTR _eRecommendedResource$[ebp], -1
	je	$LN50@BuildCouns

; 1879 : 	{
; 1880 : 		if(iNumOfResource == 0)

	cmp	DWORD PTR _iNumOfResource$[ebp], 0
	jne	SHORT $LN49@BuildCouns

; 1881 : 		{
; 1882 : 			strLoc = Localization::Lookup("TXT_KEY_CITYIMPROVEMENTSTRATEGY_PLUG_UP_RESOURCES_HAVE_ZERO");

	push	OFFSET ??_C@_0DM@BIIJGPLA@TXT_KEY_CITYIMPROVEMENTSTRATEGY_@
	lea	edx, DWORD PTR $T224919[ebp]
	push	edx
	call	DWORD PTR __imp_?Lookup@Localization@@YA?AVString@1@PBD@Z
	add	esp, 8
	mov	DWORD PTR tv4281[ebp], eax
	mov	eax, DWORD PTR tv4281[ebp]
	mov	DWORD PTR tv3841[ebp], eax
	mov	BYTE PTR __$EHRec$[ebp+8], 86		; 00000056H
	mov	ecx, DWORD PTR tv3841[ebp]
	push	ecx
	lea	ecx, DWORD PTR _strLoc$[ebp]
	call	DWORD PTR __imp_??4String@Localization@@QAEAAV01@ABV01@@Z
	mov	BYTE PTR __$EHRec$[ebp+8], 0
	lea	ecx, DWORD PTR $T224919[ebp]
	call	DWORD PTR __imp_??1String@Localization@@UAE@XZ

; 1883 : 		}
; 1884 : 		else

	jmp	SHORT $LN48@BuildCouns
$LN49@BuildCouns:

; 1885 : 		{
; 1886 : 			strLoc = Localization::Lookup("TXT_KEY_CITYIMPROVEMENTSTRATEGY_PLUG_UP_RESOURCES_HAVE_MORE");

	push	OFFSET ??_C@_0DM@FPBLCMMM@TXT_KEY_CITYIMPROVEMENTSTRATEGY_@
	lea	edx, DWORD PTR $T224920[ebp]
	push	edx
	call	DWORD PTR __imp_?Lookup@Localization@@YA?AVString@1@PBD@Z
	add	esp, 8
	mov	DWORD PTR tv4283[ebp], eax
	mov	eax, DWORD PTR tv4283[ebp]
	mov	DWORD PTR tv3843[ebp], eax
	mov	BYTE PTR __$EHRec$[ebp+8], 87		; 00000057H
	mov	ecx, DWORD PTR tv3843[ebp]
	push	ecx
	lea	ecx, DWORD PTR _strLoc$[ebp]
	call	DWORD PTR __imp_??4String@Localization@@QAEAAV01@ABV01@@Z
	mov	BYTE PTR __$EHRec$[ebp+8], 0
	lea	ecx, DWORD PTR $T224920[ebp]
	call	DWORD PTR __imp_??1String@Localization@@UAE@XZ
$LN48@BuildCouns:

; 1887 : 		}
; 1888 : 		strLoc << GC.getResourceInfo(eRecommendedResource)->GetTextKey();

	mov	edx, DWORD PTR _eRecommendedResource$[ebp]
	push	edx
	mov	ecx, OFFSET ?gGlobals@@3VCvGlobals@@A	; gGlobals
	call	?getResourceInfo@CvGlobals@@QAEPAVCvResourceInfo@@W4ResourceTypes@@@Z ; CvGlobals::getResourceInfo
	mov	ecx, eax
	call	?GetTextKey@CvBaseInfo@@QBEPBDXZ	; CvBaseInfo::GetTextKey
	mov	DWORD PTR $T224921[ebp], eax
	lea	eax, DWORD PTR $T224921[ebp]
	push	eax
	lea	ecx, DWORD PTR _strLoc$[ebp]
	push	ecx
	call	??$?6PBD@@YAAAVString@Localization@@AAV01@ABQBD@Z ; operator<<<char const *>
	add	esp, 8

; 1889 : 		strLoc << pResourcePlot->getWorkingCity()->getNameKey();

	mov	ecx, DWORD PTR _pResourcePlot$[ebp]
	call	?getWorkingCity@CvPlot@@QBEPAVCvCity@@XZ ; CvPlot::getWorkingCity
	mov	ecx, eax
	call	?getNameKey@CvCity@@QBEPBDXZ		; CvCity::getNameKey
	mov	DWORD PTR $T224922[ebp], eax
	lea	edx, DWORD PTR $T224922[ebp]
	push	edx
	lea	eax, DWORD PTR _strLoc$[ebp]
	push	eax
	call	??$?6PBD@@YAAAVString@Localization@@AAV01@ABQBD@Z ; operator<<<char const *>
	add	esp, 8

; 1890 : 
; 1891 : #ifdef CVASSERT_ENABLE
; 1892 : 		bool bSuccess = SetCounselEntry(uiCounselIndex, ADVISOR_ECONOMIC, strLoc.toUTF8(), 20);
; 1893 : 		DEBUG_VARIABLE(bSuccess);
; 1894 : 		CvAssertMsg(bSuccess, "Unable to add counsel to list. Too many strategies running at once");
; 1895 : #else
; 1896 : 		SetCounselEntry(uiCounselIndex, ADVISOR_ECONOMIC, strLoc.toUTF8(), 20);

	push	20					; 00000014H
	lea	ecx, DWORD PTR _strLoc$[ebp]
	call	DWORD PTR __imp_?toUTF8@String@Localization@@QAEPBDXZ
	push	eax
	push	1
	mov	ecx, DWORD PTR _uiCounselIndex$[ebp]
	push	ecx
	mov	ecx, DWORD PTR _this$[ebp]
	call	?SetCounselEntry@CvAdvisorCounsel@@QAE_NIW4AdvisorTypes@@PBDH@Z ; CvAdvisorCounsel::SetCounselEntry

; 1897 : #endif
; 1898 : 		uiCounselIndex++;

	mov	edx, DWORD PTR _uiCounselIndex$[ebp]
	add	edx, 1
	mov	DWORD PTR _uiCounselIndex$[ebp], edx
$LN50@BuildCouns:

; 1899 : 	}
; 1900 : 
; 1901 : 	ResourceTypes eTradableResource = NO_RESOURCE;

	mov	DWORD PTR _eTradableResource$[ebp], -1

; 1902 : 	PlayerTypes eTargetPlayer = NO_PLAYER;

	mov	DWORD PTR _eTargetPlayer$[ebp], -1

; 1903 : 	TeamTypes ePlayerTeam = GET_PLAYER(ePlayer).getTeam();

	mov	eax, DWORD PTR _ePlayer$[ebp]
	imul	eax, 63236				; 0000f704H
	add	eax, DWORD PTR ?m_aPlayers@CvPlayerAI@@1PAV1@A ; CvPlayerAI::m_aPlayers
	mov	DWORD PTR $T225561[ebp], eax
	mov	ecx, DWORD PTR $T225561[ebp]
	mov	edx, DWORD PTR [ecx+44]
	push	edx
	call	?teamType@CvPreGame@@YA?AW4TeamTypes@@W4PlayerTypes@@@Z ; CvPreGame::teamType
	add	esp, 4
	mov	DWORD PTR _ePlayerTeam$[ebp], eax

; 1904 : #ifdef AUI_WARNING_FIXES
; 1905 : 	for (uint i = 0; i < GC.getNumResourceInfos(); i++)
; 1906 : #else
; 1907 : 	for(int i = 0; i < GC.getNumResourceInfos(); i++)

	mov	DWORD PTR _i$223637[ebp], 0
	jmp	SHORT $LN47@BuildCouns
$LN46@BuildCouns:
	mov	eax, DWORD PTR _i$223637[ebp]
	add	eax, 1
	mov	DWORD PTR _i$223637[ebp], eax
$LN47@BuildCouns:
	mov	ecx, OFFSET ?gGlobals@@3VCvGlobals@@A	; gGlobals
	call	?getNumResourceInfos@CvGlobals@@QAEHXZ	; CvGlobals::getNumResourceInfos
	cmp	DWORD PTR _i$223637[ebp], eax
	jge	$LN45@BuildCouns

; 1908 : #endif
; 1909 : 	{
; 1910 : 		ResourceTypes eResource = (ResourceTypes)i;

	mov	ecx, DWORD PTR _i$223637[ebp]
	mov	DWORD PTR _eResource$223641[ebp], ecx

; 1911 : 		CvResourceInfo* pResourceInfo = GC.getResourceInfo(eResource);

	mov	edx, DWORD PTR _eResource$223641[ebp]
	push	edx
	mov	ecx, OFFSET ?gGlobals@@3VCvGlobals@@A	; gGlobals
	call	?getResourceInfo@CvGlobals@@QAEPAVCvResourceInfo@@W4ResourceTypes@@@Z ; CvGlobals::getResourceInfo
	mov	DWORD PTR _pResourceInfo$223643[ebp], eax

; 1912 : 		if (pResourceInfo == NULL)

	cmp	DWORD PTR _pResourceInfo$223643[ebp], 0
	jne	SHORT $LN44@BuildCouns

; 1913 : 		{
; 1914 : 			continue;

	jmp	SHORT $LN46@BuildCouns
$LN44@BuildCouns:

; 1915 : 		}
; 1916 : 
; 1917 : 		if(pResourceInfo->getResourceUsage() != RESOURCEUSAGE_LUXURY && pResourceInfo->getResourceUsage() != RESOURCEUSAGE_STRATEGIC)

	mov	ecx, DWORD PTR _pResourceInfo$223643[ebp]
	call	?getResourceUsage@CvResourceInfo@@QBE?AW4ResourceUsageTypes@@XZ ; CvResourceInfo::getResourceUsage
	cmp	eax, 2
	je	SHORT $LN43@BuildCouns
	mov	ecx, DWORD PTR _pResourceInfo$223643[ebp]
	call	?getResourceUsage@CvResourceInfo@@QBE?AW4ResourceUsageTypes@@XZ ; CvResourceInfo::getResourceUsage
	cmp	eax, 1
	je	SHORT $LN43@BuildCouns

; 1918 : 		{
; 1919 : 			continue;

	jmp	SHORT $LN46@BuildCouns
$LN43@BuildCouns:

; 1920 : 		}
; 1921 : 
; 1922 : 		// not enough to trade
; 1923 : 		if(GET_PLAYER(ePlayer).getNumResourceAvailable(eResource, false) <= 1)

	mov	eax, DWORD PTR _ePlayer$[ebp]
	imul	eax, 63236				; 0000f704H
	add	eax, DWORD PTR ?m_aPlayers@CvPlayerAI@@1PAV1@A ; CvPlayerAI::m_aPlayers
	mov	DWORD PTR $T225573[ebp], eax
	push	0
	mov	ecx, DWORD PTR _eResource$223641[ebp]
	push	ecx
	mov	ecx, DWORD PTR $T225573[ebp]
	call	?getNumResourceAvailable@CvPlayer@@QBEHW4ResourceTypes@@_N@Z ; CvPlayer::getNumResourceAvailable
	cmp	eax, 1
	jg	SHORT $LN42@BuildCouns

; 1924 : 		{
; 1925 : 			continue;

	jmp	$LN46@BuildCouns
$LN42@BuildCouns:

; 1926 : 		}
; 1927 : 
; 1928 : 		for(int j = 0; j < MAX_MAJOR_CIVS; j++)

	mov	DWORD PTR _j$223647[ebp], 0
	jmp	SHORT $LN41@BuildCouns
$LN40@BuildCouns:
	mov	edx, DWORD PTR _j$223647[ebp]
	add	edx, 1
	mov	DWORD PTR _j$223647[ebp], edx
$LN41@BuildCouns:
	cmp	DWORD PTR _j$223647[ebp], 22		; 00000016H
	jge	$LN39@BuildCouns

; 1929 : 		{
; 1930 : 			PlayerTypes eOtherPlayer = (PlayerTypes)j;

	mov	eax, DWORD PTR _j$223647[ebp]
	mov	DWORD PTR _eOtherPlayer$223651[ebp], eax

; 1931 : 			TeamTypes eOtherTeam = GET_PLAYER(eOtherPlayer).getTeam();

	mov	ecx, DWORD PTR _eOtherPlayer$223651[ebp]
	imul	ecx, 63236				; 0000f704H
	add	ecx, DWORD PTR ?m_aPlayers@CvPlayerAI@@1PAV1@A ; CvPlayerAI::m_aPlayers
	mov	DWORD PTR $T225577[ebp], ecx
	mov	edx, DWORD PTR $T225577[ebp]
	mov	eax, DWORD PTR [edx+44]
	push	eax
	call	?teamType@CvPreGame@@YA?AW4TeamTypes@@W4PlayerTypes@@@Z ; CvPreGame::teamType
	add	esp, 4
	mov	DWORD PTR _eOtherTeam$223653[ebp], eax

; 1932 : 			if(ePlayerTeam == eOtherTeam || !GET_PLAYER(eOtherPlayer).isAlive())

	mov	ecx, DWORD PTR _ePlayerTeam$[ebp]
	cmp	ecx, DWORD PTR _eOtherTeam$223653[ebp]
	je	SHORT $LN37@BuildCouns
	mov	edx, DWORD PTR _eOtherPlayer$223651[ebp]
	imul	edx, 63236				; 0000f704H
	add	edx, DWORD PTR ?m_aPlayers@CvPlayerAI@@1PAV1@A ; CvPlayerAI::m_aPlayers
	mov	DWORD PTR $T225589[ebp], edx
	mov	eax, DWORD PTR $T225589[ebp]
	mov	cl, BYTE PTR [eax+2256]
	mov	BYTE PTR $T225598[ebp], cl
	movzx	edx, BYTE PTR $T225598[ebp]
	test	edx, edx
	jne	SHORT $LN38@BuildCouns
$LN37@BuildCouns:

; 1933 : 			{
; 1934 : 				continue;

	jmp	$LN40@BuildCouns
$LN38@BuildCouns:

; 1935 : 			}
; 1936 : 
; 1937 : 			// if we haven't met or are at war
; 1938 : 			if(!GET_TEAM(ePlayerTeam).isHasMet(eOtherTeam) || GET_TEAM(ePlayerTeam).isAtWar(eOtherTeam))

	mov	eax, DWORD PTR _ePlayerTeam$[ebp]
	imul	eax, 2984				; 00000ba8H
	add	eax, DWORD PTR ?m_aTeams@CvTeam@@1PAV1@A ; CvTeam::m_aTeams
	mov	DWORD PTR $T225602[ebp], eax
	mov	ecx, DWORD PTR _eOtherTeam$223653[ebp]
	push	ecx
	mov	ecx, DWORD PTR $T225602[ebp]
	call	?isHasMet@CvTeam@@QBE_NW4TeamTypes@@@Z	; CvTeam::isHasMet
	movzx	edx, al
	test	edx, edx
	je	SHORT $LN35@BuildCouns
	mov	eax, DWORD PTR _ePlayerTeam$[ebp]
	imul	eax, 2984				; 00000ba8H
	add	eax, DWORD PTR ?m_aTeams@CvTeam@@1PAV1@A ; CvTeam::m_aTeams
	mov	DWORD PTR $T225606[ebp], eax
	mov	ecx, DWORD PTR _eOtherTeam$223653[ebp]
	push	ecx
	mov	ecx, DWORD PTR $T225606[ebp]
	call	?isAtWar@CvTeam@@QBE_NW4TeamTypes@@@Z	; CvTeam::isAtWar
	movzx	edx, al
	test	edx, edx
	je	SHORT $LN36@BuildCouns
$LN35@BuildCouns:

; 1939 : 			{
; 1940 : 				continue;

	jmp	$LN40@BuildCouns
$LN36@BuildCouns:

; 1941 : 			}
; 1942 : 
; 1943 : 			// other player already has some
; 1944 : 			if(GET_PLAYER(eOtherPlayer).getNumResourceAvailable(eResource, true) != 0)

	mov	eax, DWORD PTR _eOtherPlayer$223651[ebp]
	imul	eax, 63236				; 0000f704H
	add	eax, DWORD PTR ?m_aPlayers@CvPlayerAI@@1PAV1@A ; CvPlayerAI::m_aPlayers
	mov	DWORD PTR $T225610[ebp], eax
	push	1
	mov	ecx, DWORD PTR _eResource$223641[ebp]
	push	ecx
	mov	ecx, DWORD PTR $T225610[ebp]
	call	?getNumResourceAvailable@CvPlayer@@QBEHW4ResourceTypes@@_N@Z ; CvPlayer::getNumResourceAvailable
	test	eax, eax
	je	SHORT $LN34@BuildCouns

; 1945 : 			{
; 1946 : 				continue;

	jmp	$LN40@BuildCouns
$LN34@BuildCouns:

; 1947 : 			}
; 1948 : 
; 1949 : #ifdef AUI_WARNING_FIXES
; 1950 : 			for (uint k = 0; k < GC.getNumResourceInfos(); k++)
; 1951 : #else
; 1952 : 			for(int k = 0; k < GC.getNumResourceInfos(); k++)

	mov	DWORD PTR _k$223659[ebp], 0
	jmp	SHORT $LN33@BuildCouns
$LN32@BuildCouns:
	mov	edx, DWORD PTR _k$223659[ebp]
	add	edx, 1
	mov	DWORD PTR _k$223659[ebp], edx
$LN33@BuildCouns:
	mov	ecx, OFFSET ?gGlobals@@3VCvGlobals@@A	; gGlobals
	call	?getNumResourceInfos@CvGlobals@@QAEHXZ	; CvGlobals::getNumResourceInfos
	cmp	DWORD PTR _k$223659[ebp], eax
	jge	$LN31@BuildCouns

; 1953 : #endif
; 1954 : 			{
; 1955 : 				ResourceTypes eTradebackResource = (ResourceTypes)k;

	mov	eax, DWORD PTR _k$223659[ebp]
	mov	DWORD PTR _eTradebackResource$223663[ebp], eax

; 1956 : 				const CvResourceInfo* pkTradeResourceInfo = GC.getResourceInfo(eTradebackResource);

	mov	ecx, DWORD PTR _eTradebackResource$223663[ebp]
	push	ecx
	mov	ecx, OFFSET ?gGlobals@@3VCvGlobals@@A	; gGlobals
	call	?getResourceInfo@CvGlobals@@QAEPAVCvResourceInfo@@W4ResourceTypes@@@Z ; CvGlobals::getResourceInfo
	mov	DWORD PTR _pkTradeResourceInfo$223665[ebp], eax

; 1957 : 				if(pkTradeResourceInfo == NULL || (pkTradeResourceInfo->getResourceUsage() != RESOURCEUSAGE_LUXURY && pkTradeResourceInfo->getResourceUsage() != RESOURCEUSAGE_STRATEGIC))

	cmp	DWORD PTR _pkTradeResourceInfo$223665[ebp], 0
	je	SHORT $LN29@BuildCouns
	mov	ecx, DWORD PTR _pkTradeResourceInfo$223665[ebp]
	call	?getResourceUsage@CvResourceInfo@@QBE?AW4ResourceUsageTypes@@XZ ; CvResourceInfo::getResourceUsage
	cmp	eax, 2
	je	SHORT $LN30@BuildCouns
	mov	ecx, DWORD PTR _pkTradeResourceInfo$223665[ebp]
	call	?getResourceUsage@CvResourceInfo@@QBE?AW4ResourceUsageTypes@@XZ ; CvResourceInfo::getResourceUsage
	cmp	eax, 1
	je	SHORT $LN30@BuildCouns
$LN29@BuildCouns:

; 1958 : 				{
; 1959 : 					continue;

	jmp	SHORT $LN32@BuildCouns
$LN30@BuildCouns:

; 1960 : 				}
; 1961 : 
; 1962 : 				// other player has some to trade
; 1963 : 				if(GET_PLAYER(eOtherPlayer).getNumResourceAvailable(eTradebackResource, false) == 0)

	mov	edx, DWORD PTR _eOtherPlayer$223651[ebp]
	imul	edx, 63236				; 0000f704H
	add	edx, DWORD PTR ?m_aPlayers@CvPlayerAI@@1PAV1@A ; CvPlayerAI::m_aPlayers
	mov	DWORD PTR $T225614[ebp], edx
	push	0
	mov	eax, DWORD PTR _eTradebackResource$223663[ebp]
	push	eax
	mov	ecx, DWORD PTR $T225614[ebp]
	call	?getNumResourceAvailable@CvPlayer@@QBEHW4ResourceTypes@@_N@Z ; CvPlayer::getNumResourceAvailable
	test	eax, eax
	jne	SHORT $LN28@BuildCouns

; 1964 : 				{
; 1965 : 					continue;

	jmp	$LN32@BuildCouns
$LN28@BuildCouns:

; 1966 : 				}
; 1967 : 
; 1968 : 				if(GET_PLAYER(ePlayer).getNumResourceAvailable(eTradebackResource, true) > 0)

	mov	ecx, DWORD PTR _ePlayer$[ebp]
	imul	ecx, 63236				; 0000f704H
	add	ecx, DWORD PTR ?m_aPlayers@CvPlayerAI@@1PAV1@A ; CvPlayerAI::m_aPlayers
	mov	DWORD PTR $T225618[ebp], ecx
	push	1
	mov	edx, DWORD PTR _eTradebackResource$223663[ebp]
	push	edx
	mov	ecx, DWORD PTR $T225618[ebp]
	call	?getNumResourceAvailable@CvPlayer@@QBEHW4ResourceTypes@@_N@Z ; CvPlayer::getNumResourceAvailable
	test	eax, eax
	jle	SHORT $LN27@BuildCouns

; 1969 : 				{
; 1970 : 					continue;

	jmp	$LN32@BuildCouns
$LN27@BuildCouns:

; 1971 : 				}
; 1972 : 
; 1973 : 				if(eTradableResource != NO_RESOURCE)

	cmp	DWORD PTR _eTradableResource$[ebp], -1
	je	SHORT $LN26@BuildCouns

; 1974 : 				{
; 1975 : 					ResourceUsageTypes eTradableResourceUsage = GC.getResourceInfo(eTradableResource)->getResourceUsage();

	mov	eax, DWORD PTR _eTradableResource$[ebp]
	push	eax
	mov	ecx, OFFSET ?gGlobals@@3VCvGlobals@@A	; gGlobals
	call	?getResourceInfo@CvGlobals@@QAEPAVCvResourceInfo@@W4ResourceTypes@@@Z ; CvGlobals::getResourceInfo
	mov	ecx, eax
	call	?getResourceUsage@CvResourceInfo@@QBE?AW4ResourceUsageTypes@@XZ ; CvResourceInfo::getResourceUsage
	mov	DWORD PTR _eTradableResourceUsage$223671[ebp], eax

; 1976 : 					ResourceUsageTypes eResourceUsage = GC.getResourceInfo(eResource)->getResourceUsage();

	mov	ecx, DWORD PTR _eResource$223641[ebp]
	push	ecx
	mov	ecx, OFFSET ?gGlobals@@3VCvGlobals@@A	; gGlobals
	call	?getResourceInfo@CvGlobals@@QAEPAVCvResourceInfo@@W4ResourceTypes@@@Z ; CvGlobals::getResourceInfo
	mov	ecx, eax
	call	?getResourceUsage@CvResourceInfo@@QBE?AW4ResourceUsageTypes@@XZ ; CvResourceInfo::getResourceUsage
	mov	DWORD PTR _eResourceUsage$223672[ebp], eax

; 1977 : 
; 1978 : 					// prefer trading luxury to strategic
; 1979 : 					if(eTradableResourceUsage == RESOURCEUSAGE_STRATEGIC && eResourceUsage == RESOURCEUSAGE_LUXURY)

	cmp	DWORD PTR _eTradableResourceUsage$223671[ebp], 1
	jne	SHORT $LN25@BuildCouns
	cmp	DWORD PTR _eResourceUsage$223672[ebp], 2
	jne	SHORT $LN25@BuildCouns

; 1980 : 					{
; 1981 : 						eTradableResource = eResource;

	mov	edx, DWORD PTR _eResource$223641[ebp]
	mov	DWORD PTR _eTradableResource$[ebp], edx

; 1982 : 						eTargetPlayer = eOtherPlayer;

	mov	eax, DWORD PTR _eOtherPlayer$223651[ebp]
	mov	DWORD PTR _eTargetPlayer$[ebp], eax
$LN25@BuildCouns:

; 1983 : 					}
; 1984 : 				}
; 1985 : 				else

	jmp	SHORT $LN24@BuildCouns
$LN26@BuildCouns:

; 1986 : 				{
; 1987 : 					eTradableResource = eResource;

	mov	ecx, DWORD PTR _eResource$223641[ebp]
	mov	DWORD PTR _eTradableResource$[ebp], ecx

; 1988 : 					eTargetPlayer = eOtherPlayer;

	mov	edx, DWORD PTR _eOtherPlayer$223651[ebp]
	mov	DWORD PTR _eTargetPlayer$[ebp], edx
$LN24@BuildCouns:

; 1989 : 				}
; 1990 : 			}

	jmp	$LN32@BuildCouns
$LN31@BuildCouns:

; 1991 : 		}

	jmp	$LN40@BuildCouns
$LN39@BuildCouns:

; 1992 : 	}

	jmp	$LN46@BuildCouns
$LN45@BuildCouns:

; 1993 : 
; 1994 : 	if(eTradableResource != NO_RESOURCE)

	cmp	DWORD PTR _eTradableResource$[ebp], -1
	je	$LN23@BuildCouns

; 1995 : 	{
; 1996 : 		ResourceUsageTypes eResourceUsage = GC.getResourceInfo(eTradableResource)->getResourceUsage();

	mov	eax, DWORD PTR _eTradableResource$[ebp]
	push	eax
	mov	ecx, OFFSET ?gGlobals@@3VCvGlobals@@A	; gGlobals
	call	?getResourceInfo@CvGlobals@@QAEPAVCvResourceInfo@@W4ResourceTypes@@@Z ; CvGlobals::getResourceInfo
	mov	ecx, eax
	call	?getResourceUsage@CvResourceInfo@@QBE?AW4ResourceUsageTypes@@XZ ; CvResourceInfo::getResourceUsage
	mov	DWORD PTR _eResourceUsage$223676[ebp], eax

; 1997 : 		if(eResourceUsage == RESOURCEUSAGE_LUXURY)

	cmp	DWORD PTR _eResourceUsage$223676[ebp], 2
	jne	SHORT $LN22@BuildCouns

; 1998 : 		{
; 1999 : 			strLoc = Localization::Lookup("TXT_KEY_RESOURCESTRATEGY_TRADE_LUXURIES");

	push	OFFSET ??_C@_0CI@HBNCHAJI@TXT_KEY_RESOURCESTRATEGY_TRADE_L@
	lea	ecx, DWORD PTR $T224923[ebp]
	push	ecx
	call	DWORD PTR __imp_?Lookup@Localization@@YA?AVString@1@PBD@Z
	add	esp, 8
	mov	DWORD PTR tv4284[ebp], eax
	mov	edx, DWORD PTR tv4284[ebp]
	mov	DWORD PTR tv3845[ebp], edx
	mov	BYTE PTR __$EHRec$[ebp+8], 88		; 00000058H
	mov	eax, DWORD PTR tv3845[ebp]
	push	eax
	lea	ecx, DWORD PTR _strLoc$[ebp]
	call	DWORD PTR __imp_??4String@Localization@@QAEAAV01@ABV01@@Z
	mov	BYTE PTR __$EHRec$[ebp+8], 0
	lea	ecx, DWORD PTR $T224923[ebp]
	call	DWORD PTR __imp_??1String@Localization@@UAE@XZ
	jmp	SHORT $LN21@BuildCouns
$LN22@BuildCouns:

; 2000 : 		}
; 2001 : 		else if(eResourceUsage == RESOURCEUSAGE_STRATEGIC)

	cmp	DWORD PTR _eResourceUsage$223676[ebp], 1
	jne	SHORT $LN21@BuildCouns

; 2002 : 		{
; 2003 : 			strLoc = Localization::Lookup("TXT_KEY_RESOURCESTRATEGY_TRADE_STRATEGIC");

	push	OFFSET ??_C@_0CJ@EOGPFPMC@TXT_KEY_RESOURCESTRATEGY_TRADE_S@
	lea	ecx, DWORD PTR $T224924[ebp]
	push	ecx
	call	DWORD PTR __imp_?Lookup@Localization@@YA?AVString@1@PBD@Z
	add	esp, 8
	mov	DWORD PTR tv4305[ebp], eax
	mov	edx, DWORD PTR tv4305[ebp]
	mov	DWORD PTR tv3847[ebp], edx
	mov	BYTE PTR __$EHRec$[ebp+8], 89		; 00000059H
	mov	eax, DWORD PTR tv3847[ebp]
	push	eax
	lea	ecx, DWORD PTR _strLoc$[ebp]
	call	DWORD PTR __imp_??4String@Localization@@QAEAAV01@ABV01@@Z
	mov	BYTE PTR __$EHRec$[ebp+8], 0
	lea	ecx, DWORD PTR $T224924[ebp]
	call	DWORD PTR __imp_??1String@Localization@@UAE@XZ
$LN21@BuildCouns:

; 2004 : 		}
; 2005 : 		else
; 2006 : 		{
; 2007 : 			CvAssertMsg(false, "Can't trade a bonus resource");
; 2008 : 		}
; 2009 : 
; 2010 : 		strLoc << GC.getResourceInfo(eTradableResource)->GetTextKey();

	mov	ecx, DWORD PTR _eTradableResource$[ebp]
	push	ecx
	mov	ecx, OFFSET ?gGlobals@@3VCvGlobals@@A	; gGlobals
	call	?getResourceInfo@CvGlobals@@QAEPAVCvResourceInfo@@W4ResourceTypes@@@Z ; CvGlobals::getResourceInfo
	mov	ecx, eax
	call	?GetTextKey@CvBaseInfo@@QBEPBDXZ	; CvBaseInfo::GetTextKey
	mov	DWORD PTR $T224925[ebp], eax
	lea	edx, DWORD PTR $T224925[ebp]
	push	edx
	lea	eax, DWORD PTR _strLoc$[ebp]
	push	eax
	call	??$?6PBD@@YAAAVString@Localization@@AAV01@ABQBD@Z ; operator<<<char const *>
	add	esp, 8

; 2011 : 		strLoc << GET_PLAYER(eTargetPlayer).getCivilizationInfo().GetTextKey();

	mov	ecx, DWORD PTR _eTargetPlayer$[ebp]
	imul	ecx, 63236				; 0000f704H
	add	ecx, DWORD PTR ?m_aPlayers@CvPlayerAI@@1PAV1@A ; CvPlayerAI::m_aPlayers
	mov	DWORD PTR $T225622[ebp], ecx
	mov	ecx, DWORD PTR $T225622[ebp]
	call	?getCivilizationInfo@CvPlayer@@QBEAAVCvCivilizationInfo@@XZ ; CvPlayer::getCivilizationInfo
	mov	ecx, eax
	call	?GetTextKey@CvBaseInfo@@QBEPBDXZ	; CvBaseInfo::GetTextKey
	mov	DWORD PTR $T224926[ebp], eax
	lea	edx, DWORD PTR $T224926[ebp]
	push	edx
	lea	eax, DWORD PTR _strLoc$[ebp]
	push	eax
	call	??$?6PBD@@YAAAVString@Localization@@AAV01@ABQBD@Z ; operator<<<char const *>
	add	esp, 8

; 2012 : 
; 2013 : #ifdef CVASSERT_ENABLE
; 2014 : 		bool bSuccess = SetCounselEntry(uiCounselIndex, ADVISOR_FOREIGN, strLoc.toUTF8(), 20);
; 2015 : 		DEBUG_VARIABLE(bSuccess);
; 2016 : 		CvAssertMsg(bSuccess, "Unable to add counsel to list. Too many strategies running at once");
; 2017 : #else
; 2018 : 		SetCounselEntry(uiCounselIndex, ADVISOR_FOREIGN, strLoc.toUTF8(), 20);

	push	20					; 00000014H
	lea	ecx, DWORD PTR _strLoc$[ebp]
	call	DWORD PTR __imp_?toUTF8@String@Localization@@QAEPBDXZ
	push	eax
	push	2
	mov	ecx, DWORD PTR _uiCounselIndex$[ebp]
	push	ecx
	mov	ecx, DWORD PTR _this$[ebp]
	call	?SetCounselEntry@CvAdvisorCounsel@@QAE_NIW4AdvisorTypes@@PBDH@Z ; CvAdvisorCounsel::SetCounselEntry

; 2019 : #endif
; 2020 : 		uiCounselIndex++;

	mov	edx, DWORD PTR _uiCounselIndex$[ebp]
	add	edx, 1
	mov	DWORD PTR _uiCounselIndex$[ebp], edx
$LN23@BuildCouns:

; 2021 : 	}
; 2022 : 
; 2023 : 	// search for each advisor type. If there isn't an entry of that type, add the default string
; 2024 : 	bool abAdvisorUsed[NUM_ADVISOR_TYPES];
; 2025 : 	for(uint ui = 0; ui < NUM_ADVISOR_TYPES; ui++)

	mov	DWORD PTR _ui$223688[ebp], 0
	jmp	SHORT $LN18@BuildCouns
$LN17@BuildCouns:
	mov	eax, DWORD PTR _ui$223688[ebp]
	add	eax, 1
	mov	DWORD PTR _ui$223688[ebp], eax
$LN18@BuildCouns:
	cmp	DWORD PTR _ui$223688[ebp], 4
	jae	SHORT $LN16@BuildCouns

; 2026 : 	{
; 2027 : 		abAdvisorUsed[ui] = false;

	mov	ecx, DWORD PTR _ui$223688[ebp]
	mov	BYTE PTR _abAdvisorUsed$[ebp+ecx], 0

; 2028 : 	}

	jmp	SHORT $LN17@BuildCouns
$LN16@BuildCouns:

; 2029 : 
; 2030 : 	for(uint ui = 0; ui < m_aCounsel.size(); ui++)

	mov	DWORD PTR _ui$223692[ebp], 0
	jmp	SHORT $LN15@BuildCouns
$LN14@BuildCouns:
	mov	edx, DWORD PTR _ui$223692[ebp]
	add	edx, 1
	mov	DWORD PTR _ui$223692[ebp], edx
$LN15@BuildCouns:
	mov	eax, DWORD PTR _this$[ebp]
	mov	ecx, DWORD PTR [eax+4]
	mov	DWORD PTR $T225626[ebp], ecx
	mov	edx, DWORD PTR _ui$223692[ebp]
	cmp	edx, DWORD PTR $T225626[ebp]
	jae	SHORT $LN13@BuildCouns

; 2031 : 	{
; 2032 : 		if(m_aCounsel[ui].m_eAdvisor == NO_ADVISOR_TYPE || m_aCounsel[ui].m_eAdvisor == NUM_ADVISOR_TYPES)

	mov	eax, DWORD PTR _ui$223692[ebp]
	imul	eax, 520				; 00000208H
	mov	ecx, DWORD PTR _this$[ebp]
	mov	edx, DWORD PTR [ecx]
	cmp	DWORD PTR [eax+edx], -1
	je	SHORT $LN11@BuildCouns
	mov	eax, DWORD PTR _ui$223692[ebp]
	imul	eax, 520				; 00000208H
	mov	ecx, DWORD PTR _this$[ebp]
	mov	edx, DWORD PTR [ecx]
	cmp	DWORD PTR [eax+edx], 4
	jne	SHORT $LN786@BuildCouns
$LN11@BuildCouns:

; 2033 : 		{
; 2034 : 			continue;

	jmp	SHORT $LN14@BuildCouns

; 2035 : 		}
; 2036 : 		abAdvisorUsed[m_aCounsel[ui].m_eAdvisor] = true;

$LN786@BuildCouns:
	mov	eax, DWORD PTR _ui$223692[ebp]
	imul	eax, 520				; 00000208H
	mov	ecx, DWORD PTR _this$[ebp]
	mov	edx, DWORD PTR [ecx]
	mov	eax, DWORD PTR [edx+eax]
	mov	BYTE PTR _abAdvisorUsed$[ebp+eax], 1

; 2037 : 	}

	jmp	$LN14@BuildCouns
$LN13@BuildCouns:

; 2038 : 
; 2039 : 	for(uint ui = 0; ui < NUM_ADVISOR_TYPES; ui++)

	mov	DWORD PTR _ui$223698[ebp], 0
	jmp	SHORT $LN10@BuildCouns
$LN9@BuildCouns:
	mov	ecx, DWORD PTR _ui$223698[ebp]
	add	ecx, 1
	mov	DWORD PTR _ui$223698[ebp], ecx
$LN10@BuildCouns:
	cmp	DWORD PTR _ui$223698[ebp], 4
	jae	$LN8@BuildCouns

; 2040 : 	{
; 2041 : 		if(!abAdvisorUsed[ui])

	mov	edx, DWORD PTR _ui$223698[ebp]
	movzx	eax, BYTE PTR _abAdvisorUsed$[ebp+edx]
	test	eax, eax
	jne	$LN7@BuildCouns

; 2042 : 		{
; 2043 : 			AdvisorTypes eAdvisorTypes = (AdvisorTypes)ui;

	mov	ecx, DWORD PTR _ui$223698[ebp]
	mov	DWORD PTR _eAdvisorTypes$223703[ebp], ecx

; 2044 : 			switch(eAdvisorTypes)

	mov	edx, DWORD PTR _eAdvisorTypes$223703[ebp]
	mov	DWORD PTR tv3606[ebp], edx
	cmp	DWORD PTR tv3606[ebp], 3
	ja	$LN5@BuildCouns
	mov	eax, DWORD PTR tv3606[ebp]
	jmp	DWORD PTR $LN1064@BuildCouns[eax*4]
$LN4@BuildCouns:

; 2045 : 			{
; 2046 : 			case ADVISOR_SCIENCE:
; 2047 : 				strLoc = Localization::Lookup("TXT_KEY_BASESTRATEGY_NOTHING_TO_SAY_SCIENCE");

	push	OFFSET ??_C@_0CM@BJECFHEG@TXT_KEY_BASESTRATEGY_NOTHING_TO_@
	lea	ecx, DWORD PTR $T224927[ebp]
	push	ecx
	call	DWORD PTR __imp_?Lookup@Localization@@YA?AVString@1@PBD@Z
	add	esp, 8
	mov	DWORD PTR tv4303[ebp], eax
	mov	edx, DWORD PTR tv4303[ebp]
	mov	DWORD PTR tv3849[ebp], edx
	mov	BYTE PTR __$EHRec$[ebp+8], 90		; 0000005aH
	mov	eax, DWORD PTR tv3849[ebp]
	push	eax
	lea	ecx, DWORD PTR _strLoc$[ebp]
	call	DWORD PTR __imp_??4String@Localization@@QAEAAV01@ABV01@@Z
	mov	BYTE PTR __$EHRec$[ebp+8], 0
	lea	ecx, DWORD PTR $T224927[ebp]
	call	DWORD PTR __imp_??1String@Localization@@UAE@XZ

; 2048 : 				break;

	jmp	$LN5@BuildCouns
$LN3@BuildCouns:

; 2049 : 			case ADVISOR_ECONOMIC:
; 2050 : 				strLoc = Localization::Lookup("TXT_KEY_BASESTRATEGY_NOTHING_TO_SAY_ECONOMIC");

	push	OFFSET ??_C@_0CN@EGJKODNB@TXT_KEY_BASESTRATEGY_NOTHING_TO_@
	lea	ecx, DWORD PTR $T224928[ebp]
	push	ecx
	call	DWORD PTR __imp_?Lookup@Localization@@YA?AVString@1@PBD@Z
	add	esp, 8
	mov	DWORD PTR tv4306[ebp], eax
	mov	edx, DWORD PTR tv4306[ebp]
	mov	DWORD PTR tv3851[ebp], edx
	mov	BYTE PTR __$EHRec$[ebp+8], 91		; 0000005bH
	mov	eax, DWORD PTR tv3851[ebp]
	push	eax
	lea	ecx, DWORD PTR _strLoc$[ebp]
	call	DWORD PTR __imp_??4String@Localization@@QAEAAV01@ABV01@@Z
	mov	BYTE PTR __$EHRec$[ebp+8], 0
	lea	ecx, DWORD PTR $T224928[ebp]
	call	DWORD PTR __imp_??1String@Localization@@UAE@XZ

; 2051 : 				break;

	jmp	$LN5@BuildCouns
$LN2@BuildCouns:

; 2052 : 			case ADVISOR_MILITARY:
; 2053 : 				strLoc = Localization::Lookup("TXT_KEY_BASESTRATEGY_NOTHING_TO_SAY_MILITARY");

	push	OFFSET ??_C@_0CN@LNNHNIEF@TXT_KEY_BASESTRATEGY_NOTHING_TO_@
	lea	ecx, DWORD PTR $T224929[ebp]
	push	ecx
	call	DWORD PTR __imp_?Lookup@Localization@@YA?AVString@1@PBD@Z
	add	esp, 8
	mov	DWORD PTR tv4333[ebp], eax
	mov	edx, DWORD PTR tv4333[ebp]
	mov	DWORD PTR tv3853[ebp], edx
	mov	BYTE PTR __$EHRec$[ebp+8], 92		; 0000005cH
	mov	eax, DWORD PTR tv3853[ebp]
	push	eax
	lea	ecx, DWORD PTR _strLoc$[ebp]
	call	DWORD PTR __imp_??4String@Localization@@QAEAAV01@ABV01@@Z
	mov	BYTE PTR __$EHRec$[ebp+8], 0
	lea	ecx, DWORD PTR $T224929[ebp]
	call	DWORD PTR __imp_??1String@Localization@@UAE@XZ

; 2054 : 				break;

	jmp	SHORT $LN5@BuildCouns
$LN1@BuildCouns:

; 2055 : 			case ADVISOR_FOREIGN:
; 2056 : 				strLoc = Localization::Lookup("TXT_KEY_BASESTRATEGY_NOTHING_TO_SAY_FOREIGN");

	push	OFFSET ??_C@_0CM@PKICLJIL@TXT_KEY_BASESTRATEGY_NOTHING_TO_@
	lea	ecx, DWORD PTR $T224930[ebp]
	push	ecx
	call	DWORD PTR __imp_?Lookup@Localization@@YA?AVString@1@PBD@Z
	add	esp, 8
	mov	DWORD PTR tv4576[ebp], eax
	mov	edx, DWORD PTR tv4576[ebp]
	mov	DWORD PTR tv3855[ebp], edx
	mov	BYTE PTR __$EHRec$[ebp+8], 93		; 0000005dH
	mov	eax, DWORD PTR tv3855[ebp]
	push	eax
	lea	ecx, DWORD PTR _strLoc$[ebp]
	call	DWORD PTR __imp_??4String@Localization@@QAEAAV01@ABV01@@Z
	mov	BYTE PTR __$EHRec$[ebp+8], 0
	lea	ecx, DWORD PTR $T224930[ebp]
	call	DWORD PTR __imp_??1String@Localization@@UAE@XZ
$LN5@BuildCouns:

; 2057 : 				break;
; 2058 : 			}
; 2059 : 
; 2060 : #ifdef CVASSERT_ENABLE
; 2061 : 			bool bSuccess = SetCounselEntry(uiCounselIndex, eAdvisorTypes, strLoc.toUTF8(), 0);
; 2062 : 			DEBUG_VARIABLE(bSuccess);
; 2063 : 			CvAssertMsg(bSuccess, "Unable to add counsel to list. Too many strategies running at once");
; 2064 : #else
; 2065 : 			SetCounselEntry(uiCounselIndex, eAdvisorTypes, strLoc.toUTF8(), 0);

	push	0
	lea	ecx, DWORD PTR _strLoc$[ebp]
	call	DWORD PTR __imp_?toUTF8@String@Localization@@QAEPBDXZ
	push	eax
	mov	ecx, DWORD PTR _eAdvisorTypes$223703[ebp]
	push	ecx
	mov	edx, DWORD PTR _uiCounselIndex$[ebp]
	push	edx
	mov	ecx, DWORD PTR _this$[ebp]
	call	?SetCounselEntry@CvAdvisorCounsel@@QAE_NIW4AdvisorTypes@@PBDH@Z ; CvAdvisorCounsel::SetCounselEntry

; 2066 : #endif
; 2067 : 			uiCounselIndex++;

	mov	eax, DWORD PTR _uiCounselIndex$[ebp]
	add	eax, 1
	mov	DWORD PTR _uiCounselIndex$[ebp], eax
$LN7@BuildCouns:

; 2068 : 		}
; 2069 : 	}

	jmp	$LN9@BuildCouns
$LN8@BuildCouns:

; 2070 : 
; 2071 : 	// sort the list
; 2072 : 	std::sort(&m_aCounsel[0], &m_aCounsel[0] + m_aCounsel.size(), CounselSort);

	xor	ecx, ecx
	imul	ecx, 520				; 00000208H
	mov	edx, DWORD PTR _this$[ebp]
	add	ecx, DWORD PTR [edx]
	mov	DWORD PTR $T225639[ebp], ecx
	mov	eax, DWORD PTR _this$[ebp]
	mov	ecx, DWORD PTR [eax+4]
	mov	DWORD PTR $T225643[ebp], ecx
	mov	edx, DWORD PTR $T225643[ebp]
	imul	edx, 520				; 00000208H
	add	edx, DWORD PTR $T225639[ebp]
	mov	DWORD PTR $T226269[ebp], edx
	xor	eax, eax
	imul	eax, 520				; 00000208H
	mov	ecx, DWORD PTR _this$[ebp]
	add	eax, DWORD PTR [ecx]
	mov	DWORD PTR $T226268[ebp], eax
	push	OFFSET ?CounselSort@@YA_NUCounsel@CvAdvisorCounsel@@0@Z ; CounselSort
	mov	eax, DWORD PTR $T226269[ebp]
	sub	eax, DWORD PTR $T226268[ebp]
	cdq
	mov	ecx, 520				; 00000208H
	idiv	ecx
	push	eax
	mov	edx, DWORD PTR $T226269[ebp]
	push	edx
	mov	eax, DWORD PTR $T226268[ebp]
	push	eax
	call	??$_Sort@PAUCounsel@CvAdvisorCounsel@@HP6A_NU12@0@Z@std@@YAXPAUCounsel@CvAdvisorCounsel@@0HP6A_NU12@1@Z@Z ; std::_Sort<CvAdvisorCounsel::Counsel *,int,bool (__cdecl*)(CvAdvisorCounsel::Counsel,CvAdvisorCounsel::Counsel)>
	add	esp, 16					; 00000010H

; 2073 : }

	mov	DWORD PTR __$EHRec$[ebp+8], -1
	lea	ecx, DWORD PTR _strLoc$[ebp]
	call	DWORD PTR __imp_??1String@Localization@@UAE@XZ
$LN382@BuildCouns:
	mov	ecx, DWORD PTR __$EHRec$[ebp]
	mov	DWORD PTR fs:0, ecx
	pop	ecx
	mov	ecx, DWORD PTR __$ArrayPad$[ebp]
	xor	ecx, ebp
	call	@__security_check_cookie@4
	mov	esp, ebp
	pop	ebp
	ret	4
	npad	3
$LN1054@BuildCouns:
	DD	$LN284@BuildCouns
	DD	$LN282@BuildCouns
	DD	$LN280@BuildCouns
	DD	$LN280@BuildCouns
	DD	$LN278@BuildCouns
	DD	$LN276@BuildCouns
$LN1055@BuildCouns:
	DD	$LN271@BuildCouns
	DD	$LN269@BuildCouns
	DD	$LN267@BuildCouns
	DD	$LN265@BuildCouns
	DD	$LN263@BuildCouns
	DD	$LN261@BuildCouns
	DD	$LN259@BuildCouns
$LN1056@BuildCouns:
	DD	$LN232@BuildCouns
	DD	$LN230@BuildCouns
	DD	$LN228@BuildCouns
	DD	$LN226@BuildCouns
	DD	$LN224@BuildCouns
$LN1057@BuildCouns:
	DD	$LN193@BuildCouns
	DD	$LN191@BuildCouns
	DD	$LN189@BuildCouns
	DD	$LN187@BuildCouns
	DD	$LN185@BuildCouns
$LN1058@BuildCouns:
	DD	$LN179@BuildCouns
	DD	$LN178@BuildCouns
	DD	$LN177@BuildCouns
	DD	$LN176@BuildCouns
	DD	$LN175@BuildCouns
$LN1059@BuildCouns:
	DD	$LN170@BuildCouns
	DD	$LN169@BuildCouns
	DD	$LN168@BuildCouns
	DD	$LN167@BuildCouns
	DD	$LN166@BuildCouns
$LN1060@BuildCouns:
	DD	$LN159@BuildCouns
	DD	$LN158@BuildCouns
	DD	$LN157@BuildCouns
	DD	$LN156@BuildCouns
	DD	$LN155@BuildCouns
$LN1061@BuildCouns:
	DD	$LN150@BuildCouns
	DD	$LN149@BuildCouns
	DD	$LN148@BuildCouns
	DD	$LN147@BuildCouns
	DD	$LN146@BuildCouns
$LN1062@BuildCouns:
	DD	$LN140@BuildCouns
	DD	$LN139@BuildCouns
	DD	$LN138@BuildCouns
	DD	$LN137@BuildCouns
	DD	$LN136@BuildCouns
$LN1063@BuildCouns:
	DD	$LN94@BuildCouns
	DD	$LN93@BuildCouns
	DD	$LN92@BuildCouns
	DD	$LN91@BuildCouns
$LN1064@BuildCouns:
	DD	$LN2@BuildCouns
	DD	$LN3@BuildCouns
	DD	$LN1@BuildCouns
	DD	$LN4@BuildCouns
_TEXT	ENDS
;	COMDAT text$x
text$x	SEGMENT
__unwindfunclet$?BuildCounselList@CvAdvisorCounsel@@QAEXW4PlayerTypes@@@Z$0:
	lea	ecx, DWORD PTR _strLoc$[ebp]
	jmp	DWORD PTR __imp_??1String@Localization@@UAE@XZ
__unwindfunclet$?BuildCounselList@CvAdvisorCounsel@@QAEXW4PlayerTypes@@@Z$1:
	lea	ecx, DWORD PTR $T224763[ebp]
	jmp	DWORD PTR __imp_??1String@Localization@@UAE@XZ
__unwindfunclet$?BuildCounselList@CvAdvisorCounsel@@QAEXW4PlayerTypes@@@Z$2:
	lea	ecx, DWORD PTR $T224764[ebp]
	jmp	DWORD PTR __imp_??1String@Localization@@UAE@XZ
__unwindfunclet$?BuildCounselList@CvAdvisorCounsel@@QAEXW4PlayerTypes@@@Z$3:
	lea	ecx, DWORD PTR $T224765[ebp]
	jmp	DWORD PTR __imp_??1String@Localization@@UAE@XZ
__unwindfunclet$?BuildCounselList@CvAdvisorCounsel@@QAEXW4PlayerTypes@@@Z$4:
	lea	ecx, DWORD PTR $T224766[ebp]
	jmp	DWORD PTR __imp_??1String@Localization@@UAE@XZ
__unwindfunclet$?BuildCounselList@CvAdvisorCounsel@@QAEXW4PlayerTypes@@@Z$5:
	lea	ecx, DWORD PTR $T224767[ebp]
	jmp	DWORD PTR __imp_??1String@Localization@@UAE@XZ
__unwindfunclet$?BuildCounselList@CvAdvisorCounsel@@QAEXW4PlayerTypes@@@Z$6:
	lea	ecx, DWORD PTR $T224768[ebp]
	jmp	DWORD PTR __imp_??1String@Localization@@UAE@XZ
__unwindfunclet$?BuildCounselList@CvAdvisorCounsel@@QAEXW4PlayerTypes@@@Z$7:
	lea	ecx, DWORD PTR $T224769[ebp]
	jmp	DWORD PTR __imp_??1String@Localization@@UAE@XZ
__unwindfunclet$?BuildCounselList@CvAdvisorCounsel@@QAEXW4PlayerTypes@@@Z$8:
	lea	ecx, DWORD PTR $T224771[ebp]
	jmp	DWORD PTR __imp_??1String@Localization@@UAE@XZ
__unwindfunclet$?BuildCounselList@CvAdvisorCounsel@@QAEXW4PlayerTypes@@@Z$9:
	lea	ecx, DWORD PTR $T224775[ebp]
	jmp	DWORD PTR __imp_??1String@Localization@@UAE@XZ
__unwindfunclet$?BuildCounselList@CvAdvisorCounsel@@QAEXW4PlayerTypes@@@Z$10:
	lea	ecx, DWORD PTR $T224779[ebp]
	jmp	DWORD PTR __imp_??1String@Localization@@UAE@XZ
__unwindfunclet$?BuildCounselList@CvAdvisorCounsel@@QAEXW4PlayerTypes@@@Z$11:
	lea	ecx, DWORD PTR $T224783[ebp]
	jmp	DWORD PTR __imp_??1String@Localization@@UAE@XZ
__unwindfunclet$?BuildCounselList@CvAdvisorCounsel@@QAEXW4PlayerTypes@@@Z$12:
	lea	ecx, DWORD PTR $T224786[ebp]
	jmp	DWORD PTR __imp_??1String@Localization@@UAE@XZ
__unwindfunclet$?BuildCounselList@CvAdvisorCounsel@@QAEXW4PlayerTypes@@@Z$13:
	lea	ecx, DWORD PTR $T224789[ebp]
	jmp	DWORD PTR __imp_??1String@Localization@@UAE@XZ
__unwindfunclet$?BuildCounselList@CvAdvisorCounsel@@QAEXW4PlayerTypes@@@Z$14:
	lea	ecx, DWORD PTR $T224794[ebp]
	jmp	DWORD PTR __imp_??1String@Localization@@UAE@XZ
__unwindfunclet$?BuildCounselList@CvAdvisorCounsel@@QAEXW4PlayerTypes@@@Z$15:
	lea	ecx, DWORD PTR $T224798[ebp]
	jmp	DWORD PTR __imp_??1String@Localization@@UAE@XZ
__unwindfunclet$?BuildCounselList@CvAdvisorCounsel@@QAEXW4PlayerTypes@@@Z$16:
	lea	ecx, DWORD PTR $T224803[ebp]
	jmp	DWORD PTR __imp_??1String@Localization@@UAE@XZ
__unwindfunclet$?BuildCounselList@CvAdvisorCounsel@@QAEXW4PlayerTypes@@@Z$17:
	lea	ecx, DWORD PTR $T224806[ebp]
	jmp	DWORD PTR __imp_??1String@Localization@@UAE@XZ
__unwindfunclet$?BuildCounselList@CvAdvisorCounsel@@QAEXW4PlayerTypes@@@Z$18:
	lea	ecx, DWORD PTR $T224809[ebp]
	jmp	DWORD PTR __imp_??1String@Localization@@UAE@XZ
__unwindfunclet$?BuildCounselList@CvAdvisorCounsel@@QAEXW4PlayerTypes@@@Z$19:
	lea	ecx, DWORD PTR $T224810[ebp]
	jmp	DWORD PTR __imp_??1String@Localization@@UAE@XZ
__unwindfunclet$?BuildCounselList@CvAdvisorCounsel@@QAEXW4PlayerTypes@@@Z$20:
	lea	ecx, DWORD PTR $T224811[ebp]
	jmp	DWORD PTR __imp_??1String@Localization@@UAE@XZ
__unwindfunclet$?BuildCounselList@CvAdvisorCounsel@@QAEXW4PlayerTypes@@@Z$21:
	lea	ecx, DWORD PTR $T224812[ebp]
	jmp	DWORD PTR __imp_??1String@Localization@@UAE@XZ
__unwindfunclet$?BuildCounselList@CvAdvisorCounsel@@QAEXW4PlayerTypes@@@Z$22:
	lea	ecx, DWORD PTR $T224813[ebp]
	jmp	DWORD PTR __imp_??1String@Localization@@UAE@XZ
__unwindfunclet$?BuildCounselList@CvAdvisorCounsel@@QAEXW4PlayerTypes@@@Z$23:
	lea	ecx, DWORD PTR $T224815[ebp]
	jmp	DWORD PTR __imp_??1String@Localization@@UAE@XZ
__unwindfunclet$?BuildCounselList@CvAdvisorCounsel@@QAEXW4PlayerTypes@@@Z$24:
	lea	ecx, DWORD PTR $T224817[ebp]
	jmp	DWORD PTR __imp_??1String@Localization@@UAE@XZ
__unwindfunclet$?BuildCounselList@CvAdvisorCounsel@@QAEXW4PlayerTypes@@@Z$25:
	lea	ecx, DWORD PTR $T224819[ebp]
	jmp	DWORD PTR __imp_??1String@Localization@@UAE@XZ
__unwindfunclet$?BuildCounselList@CvAdvisorCounsel@@QAEXW4PlayerTypes@@@Z$26:
	lea	ecx, DWORD PTR $T224821[ebp]
	jmp	DWORD PTR __imp_??1String@Localization@@UAE@XZ
__unwindfunclet$?BuildCounselList@CvAdvisorCounsel@@QAEXW4PlayerTypes@@@Z$27:
	lea	ecx, DWORD PTR $T224823[ebp]
	jmp	DWORD PTR __imp_??1String@Localization@@UAE@XZ
__unwindfunclet$?BuildCounselList@CvAdvisorCounsel@@QAEXW4PlayerTypes@@@Z$28:
	lea	ecx, DWORD PTR $T224825[ebp]
	jmp	DWORD PTR __imp_??1String@Localization@@UAE@XZ
__unwindfunclet$?BuildCounselList@CvAdvisorCounsel@@QAEXW4PlayerTypes@@@Z$29:
	lea	ecx, DWORD PTR $T224827[ebp]
	jmp	DWORD PTR __imp_??1String@Localization@@UAE@XZ
__unwindfunclet$?BuildCounselList@CvAdvisorCounsel@@QAEXW4PlayerTypes@@@Z$30:
	lea	ecx, DWORD PTR $T224829[ebp]
	jmp	DWORD PTR __imp_??1String@Localization@@UAE@XZ
__unwindfunclet$?BuildCounselList@CvAdvisorCounsel@@QAEXW4PlayerTypes@@@Z$31:
	lea	ecx, DWORD PTR $T224831[ebp]
	jmp	DWORD PTR __imp_??1String@Localization@@UAE@XZ
__unwindfunclet$?BuildCounselList@CvAdvisorCounsel@@QAEXW4PlayerTypes@@@Z$32:
	lea	ecx, DWORD PTR $T224833[ebp]
	jmp	DWORD PTR __imp_??1String@Localization@@UAE@XZ
__unwindfunclet$?BuildCounselList@CvAdvisorCounsel@@QAEXW4PlayerTypes@@@Z$33:
	lea	ecx, DWORD PTR $T224835[ebp]
	jmp	DWORD PTR __imp_??1String@Localization@@UAE@XZ
__unwindfunclet$?BuildCounselList@CvAdvisorCounsel@@QAEXW4PlayerTypes@@@Z$34:
	lea	ecx, DWORD PTR $T224837[ebp]
	jmp	DWORD PTR __imp_??1String@Localization@@UAE@XZ
__unwindfunclet$?BuildCounselList@CvAdvisorCounsel@@QAEXW4PlayerTypes@@@Z$35:
	lea	ecx, DWORD PTR $T224839[ebp]
	jmp	DWORD PTR __imp_??1String@Localization@@UAE@XZ
__unwindfunclet$?BuildCounselList@CvAdvisorCounsel@@QAEXW4PlayerTypes@@@Z$36:
	lea	ecx, DWORD PTR $T224841[ebp]
	jmp	DWORD PTR __imp_??1String@Localization@@UAE@XZ
__unwindfunclet$?BuildCounselList@CvAdvisorCounsel@@QAEXW4PlayerTypes@@@Z$37:
	lea	ecx, DWORD PTR $T224843[ebp]
	jmp	DWORD PTR __imp_??1String@Localization@@UAE@XZ
__unwindfunclet$?BuildCounselList@CvAdvisorCounsel@@QAEXW4PlayerTypes@@@Z$38:
	lea	ecx, DWORD PTR $T224845[ebp]
	jmp	DWORD PTR __imp_??1String@Localization@@UAE@XZ
__unwindfunclet$?BuildCounselList@CvAdvisorCounsel@@QAEXW4PlayerTypes@@@Z$39:
	lea	ecx, DWORD PTR $T224847[ebp]
	jmp	DWORD PTR __imp_??1String@Localization@@UAE@XZ
__unwindfunclet$?BuildCounselList@CvAdvisorCounsel@@QAEXW4PlayerTypes@@@Z$40:
	lea	ecx, DWORD PTR $T224849[ebp]
	jmp	DWORD PTR __imp_??1String@Localization@@UAE@XZ
__unwindfunclet$?BuildCounselList@CvAdvisorCounsel@@QAEXW4PlayerTypes@@@Z$41:
	lea	ecx, DWORD PTR $T224851[ebp]
	jmp	DWORD PTR __imp_??1String@Localization@@UAE@XZ
__unwindfunclet$?BuildCounselList@CvAdvisorCounsel@@QAEXW4PlayerTypes@@@Z$42:
	lea	ecx, DWORD PTR $T224853[ebp]
	jmp	DWORD PTR __imp_??1String@Localization@@UAE@XZ
__unwindfunclet$?BuildCounselList@CvAdvisorCounsel@@QAEXW4PlayerTypes@@@Z$43:
	lea	ecx, DWORD PTR $T224855[ebp]
	jmp	DWORD PTR __imp_??1String@Localization@@UAE@XZ
__unwindfunclet$?BuildCounselList@CvAdvisorCounsel@@QAEXW4PlayerTypes@@@Z$44:
	lea	ecx, DWORD PTR $T224857[ebp]
	jmp	DWORD PTR __imp_??1String@Localization@@UAE@XZ
__unwindfunclet$?BuildCounselList@CvAdvisorCounsel@@QAEXW4PlayerTypes@@@Z$45:
	lea	ecx, DWORD PTR $T224859[ebp]
	jmp	DWORD PTR __imp_??1String@Localization@@UAE@XZ
__unwindfunclet$?BuildCounselList@CvAdvisorCounsel@@QAEXW4PlayerTypes@@@Z$46:
	lea	ecx, DWORD PTR $T224862[ebp]
	jmp	DWORD PTR __imp_??1String@Localization@@UAE@XZ
__unwindfunclet$?BuildCounselList@CvAdvisorCounsel@@QAEXW4PlayerTypes@@@Z$47:
	lea	ecx, DWORD PTR $T224865[ebp]
	jmp	DWORD PTR __imp_??1String@Localization@@UAE@XZ
__unwindfunclet$?BuildCounselList@CvAdvisorCounsel@@QAEXW4PlayerTypes@@@Z$48:
	lea	ecx, DWORD PTR $T224868[ebp]
	jmp	DWORD PTR __imp_??1String@Localization@@UAE@XZ
__unwindfunclet$?BuildCounselList@CvAdvisorCounsel@@QAEXW4PlayerTypes@@@Z$49:
	lea	ecx, DWORD PTR $T224869[ebp]
	jmp	DWORD PTR __imp_??1String@Localization@@UAE@XZ
__unwindfunclet$?BuildCounselList@CvAdvisorCounsel@@QAEXW4PlayerTypes@@@Z$50:
	lea	ecx, DWORD PTR $T224870[ebp]
	jmp	DWORD PTR __imp_??1String@Localization@@UAE@XZ
__unwindfunclet$?BuildCounselList@CvAdvisorCounsel@@QAEXW4PlayerTypes@@@Z$51:
	lea	ecx, DWORD PTR $T224871[ebp]
	jmp	DWORD PTR __imp_??1String@Localization@@UAE@XZ
__unwindfunclet$?BuildCounselList@CvAdvisorCounsel@@QAEXW4PlayerTypes@@@Z$52:
	lea	ecx, DWORD PTR $T224872[ebp]
	jmp	DWORD PTR __imp_??1String@Localization@@UAE@XZ
__unwindfunclet$?BuildCounselList@CvAdvisorCounsel@@QAEXW4PlayerTypes@@@Z$53:
	lea	ecx, DWORD PTR $T224873[ebp]
	jmp	DWORD PTR __imp_??1String@Localization@@UAE@XZ
__unwindfunclet$?BuildCounselList@CvAdvisorCounsel@@QAEXW4PlayerTypes@@@Z$54:
	lea	ecx, DWORD PTR $T224874[ebp]
	jmp	DWORD PTR __imp_??1String@Localization@@UAE@XZ
__unwindfunclet$?BuildCounselList@CvAdvisorCounsel@@QAEXW4PlayerTypes@@@Z$55:
	lea	ecx, DWORD PTR $T224875[ebp]
	jmp	DWORD PTR __imp_??1String@Localization@@UAE@XZ
__unwindfunclet$?BuildCounselList@CvAdvisorCounsel@@QAEXW4PlayerTypes@@@Z$56:
	lea	ecx, DWORD PTR $T224876[ebp]
	jmp	DWORD PTR __imp_??1String@Localization@@UAE@XZ
__unwindfunclet$?BuildCounselList@CvAdvisorCounsel@@QAEXW4PlayerTypes@@@Z$57:
	lea	ecx, DWORD PTR $T224877[ebp]
	jmp	DWORD PTR __imp_??1String@Localization@@UAE@XZ
__unwindfunclet$?BuildCounselList@CvAdvisorCounsel@@QAEXW4PlayerTypes@@@Z$58:
	lea	ecx, DWORD PTR $T224878[ebp]
	jmp	DWORD PTR __imp_??1String@Localization@@UAE@XZ
__unwindfunclet$?BuildCounselList@CvAdvisorCounsel@@QAEXW4PlayerTypes@@@Z$59:
	lea	ecx, DWORD PTR $T224879[ebp]
	jmp	DWORD PTR __imp_??1String@Localization@@UAE@XZ
__unwindfunclet$?BuildCounselList@CvAdvisorCounsel@@QAEXW4PlayerTypes@@@Z$60:
	lea	ecx, DWORD PTR $T224880[ebp]
	jmp	DWORD PTR __imp_??1String@Localization@@UAE@XZ
__unwindfunclet$?BuildCounselList@CvAdvisorCounsel@@QAEXW4PlayerTypes@@@Z$61:
	lea	ecx, DWORD PTR $T224881[ebp]
	jmp	DWORD PTR __imp_??1String@Localization@@UAE@XZ
__unwindfunclet$?BuildCounselList@CvAdvisorCounsel@@QAEXW4PlayerTypes@@@Z$62:
	lea	ecx, DWORD PTR $T224882[ebp]
	jmp	DWORD PTR __imp_??1String@Localization@@UAE@XZ
__unwindfunclet$?BuildCounselList@CvAdvisorCounsel@@QAEXW4PlayerTypes@@@Z$63:
	lea	ecx, DWORD PTR $T224883[ebp]
	jmp	DWORD PTR __imp_??1String@Localization@@UAE@XZ
__unwindfunclet$?BuildCounselList@CvAdvisorCounsel@@QAEXW4PlayerTypes@@@Z$64:
	lea	ecx, DWORD PTR $T224884[ebp]
	jmp	DWORD PTR __imp_??1String@Localization@@UAE@XZ
__unwindfunclet$?BuildCounselList@CvAdvisorCounsel@@QAEXW4PlayerTypes@@@Z$65:
	lea	ecx, DWORD PTR $T224885[ebp]
	jmp	DWORD PTR __imp_??1String@Localization@@UAE@XZ
__unwindfunclet$?BuildCounselList@CvAdvisorCounsel@@QAEXW4PlayerTypes@@@Z$66:
	lea	ecx, DWORD PTR $T224886[ebp]
	jmp	DWORD PTR __imp_??1String@Localization@@UAE@XZ
__unwindfunclet$?BuildCounselList@CvAdvisorCounsel@@QAEXW4PlayerTypes@@@Z$67:
	lea	ecx, DWORD PTR $T224887[ebp]
	jmp	DWORD PTR __imp_??1String@Localization@@UAE@XZ
__unwindfunclet$?BuildCounselList@CvAdvisorCounsel@@QAEXW4PlayerTypes@@@Z$68:
	lea	ecx, DWORD PTR $T224888[ebp]
	jmp	DWORD PTR __imp_??1String@Localization@@UAE@XZ
__unwindfunclet$?BuildCounselList@CvAdvisorCounsel@@QAEXW4PlayerTypes@@@Z$69:
	lea	ecx, DWORD PTR $T224889[ebp]
	jmp	DWORD PTR __imp_??1String@Localization@@UAE@XZ
__unwindfunclet$?BuildCounselList@CvAdvisorCounsel@@QAEXW4PlayerTypes@@@Z$70:
	lea	ecx, DWORD PTR $T224890[ebp]
	jmp	DWORD PTR __imp_??1String@Localization@@UAE@XZ
__unwindfunclet$?BuildCounselList@CvAdvisorCounsel@@QAEXW4PlayerTypes@@@Z$71:
	lea	ecx, DWORD PTR $T224891[ebp]
	jmp	DWORD PTR __imp_??1String@Localization@@UAE@XZ
__unwindfunclet$?BuildCounselList@CvAdvisorCounsel@@QAEXW4PlayerTypes@@@Z$72:
	lea	ecx, DWORD PTR $T224892[ebp]
	jmp	DWORD PTR __imp_??1String@Localization@@UAE@XZ
__unwindfunclet$?BuildCounselList@CvAdvisorCounsel@@QAEXW4PlayerTypes@@@Z$73:
	lea	ecx, DWORD PTR $T224893[ebp]
	jmp	DWORD PTR __imp_??1String@Localization@@UAE@XZ
__unwindfunclet$?BuildCounselList@CvAdvisorCounsel@@QAEXW4PlayerTypes@@@Z$74:
	lea	ecx, DWORD PTR $T224894[ebp]
	jmp	DWORD PTR __imp_??1String@Localization@@UAE@XZ
__unwindfunclet$?BuildCounselList@CvAdvisorCounsel@@QAEXW4PlayerTypes@@@Z$75:
	lea	ecx, DWORD PTR $T224895[ebp]
	jmp	DWORD PTR __imp_??1String@Localization@@UAE@XZ
__unwindfunclet$?BuildCounselList@CvAdvisorCounsel@@QAEXW4PlayerTypes@@@Z$76:
	lea	ecx, DWORD PTR $T224896[ebp]
	jmp	DWORD PTR __imp_??1String@Localization@@UAE@XZ
__unwindfunclet$?BuildCounselList@CvAdvisorCounsel@@QAEXW4PlayerTypes@@@Z$77:
	lea	ecx, DWORD PTR $T224897[ebp]
	jmp	DWORD PTR __imp_??1String@Localization@@UAE@XZ
__unwindfunclet$?BuildCounselList@CvAdvisorCounsel@@QAEXW4PlayerTypes@@@Z$78:
	lea	ecx, DWORD PTR $T224898[ebp]
	jmp	DWORD PTR __imp_??1String@Localization@@UAE@XZ
__unwindfunclet$?BuildCounselList@CvAdvisorCounsel@@QAEXW4PlayerTypes@@@Z$79:
	lea	ecx, DWORD PTR $T224902[ebp]
	jmp	DWORD PTR __imp_??1String@Localization@@UAE@XZ
__unwindfunclet$?BuildCounselList@CvAdvisorCounsel@@QAEXW4PlayerTypes@@@Z$80:
	lea	ecx, DWORD PTR $T224905[ebp]
	jmp	DWORD PTR __imp_??1String@Localization@@UAE@XZ
__unwindfunclet$?BuildCounselList@CvAdvisorCounsel@@QAEXW4PlayerTypes@@@Z$81:
	lea	ecx, DWORD PTR $T224907[ebp]
	jmp	DWORD PTR __imp_??1String@Localization@@UAE@XZ
__unwindfunclet$?BuildCounselList@CvAdvisorCounsel@@QAEXW4PlayerTypes@@@Z$82:
	lea	ecx, DWORD PTR $T224910[ebp]
	jmp	DWORD PTR __imp_??1String@Localization@@UAE@XZ
__unwindfunclet$?BuildCounselList@CvAdvisorCounsel@@QAEXW4PlayerTypes@@@Z$83:
	lea	ecx, DWORD PTR $T224912[ebp]
	jmp	DWORD PTR __imp_??1String@Localization@@UAE@XZ
__unwindfunclet$?BuildCounselList@CvAdvisorCounsel@@QAEXW4PlayerTypes@@@Z$84:
	lea	ecx, DWORD PTR _strBuildingClass$223532[ebp]
	jmp	??1CvString@@QAE@XZ			; CvString::~CvString
__unwindfunclet$?BuildCounselList@CvAdvisorCounsel@@QAEXW4PlayerTypes@@@Z$85:
	lea	ecx, DWORD PTR $T224915[ebp]
	jmp	DWORD PTR __imp_??1String@Localization@@UAE@XZ
__unwindfunclet$?BuildCounselList@CvAdvisorCounsel@@QAEXW4PlayerTypes@@@Z$86:
	lea	ecx, DWORD PTR $T224919[ebp]
	jmp	DWORD PTR __imp_??1String@Localization@@UAE@XZ
__unwindfunclet$?BuildCounselList@CvAdvisorCounsel@@QAEXW4PlayerTypes@@@Z$87:
	lea	ecx, DWORD PTR $T224920[ebp]
	jmp	DWORD PTR __imp_??1String@Localization@@UAE@XZ
__unwindfunclet$?BuildCounselList@CvAdvisorCounsel@@QAEXW4PlayerTypes@@@Z$88:
	lea	ecx, DWORD PTR $T224923[ebp]
	jmp	DWORD PTR __imp_??1String@Localization@@UAE@XZ
__unwindfunclet$?BuildCounselList@CvAdvisorCounsel@@QAEXW4PlayerTypes@@@Z$89:
	lea	ecx, DWORD PTR $T224924[ebp]
	jmp	DWORD PTR __imp_??1String@Localization@@UAE@XZ
__unwindfunclet$?BuildCounselList@CvAdvisorCounsel@@QAEXW4PlayerTypes@@@Z$90:
	lea	ecx, DWORD PTR $T224927[ebp]
	jmp	DWORD PTR __imp_??1String@Localization@@UAE@XZ
__unwindfunclet$?BuildCounselList@CvAdvisorCounsel@@QAEXW4PlayerTypes@@@Z$91:
	lea	ecx, DWORD PTR $T224928[ebp]
	jmp	DWORD PTR __imp_??1String@Localization@@UAE@XZ
__unwindfunclet$?BuildCounselList@CvAdvisorCounsel@@QAEXW4PlayerTypes@@@Z$92:
	lea	ecx, DWORD PTR $T224929[ebp]
	jmp	DWORD PTR __imp_??1String@Localization@@UAE@XZ
__unwindfunclet$?BuildCounselList@CvAdvisorCounsel@@QAEXW4PlayerTypes@@@Z$93:
	lea	ecx, DWORD PTR $T224930[ebp]
	jmp	DWORD PTR __imp_??1String@Localization@@UAE@XZ
__ehhandler$?BuildCounselList@CvAdvisorCounsel@@QAEXW4PlayerTypes@@@Z:
	mov	edx, DWORD PTR [esp+8]
	lea	eax, DWORD PTR [edx+12]
	mov	ecx, DWORD PTR [edx-23108]
	xor	ecx, eax
	call	@__security_check_cookie@4
	mov	ecx, DWORD PTR [edx-656]
	xor	ecx, eax
	call	@__security_check_cookie@4
	mov	eax, OFFSET __ehfuncinfo$?BuildCounselList@CvAdvisorCounsel@@QAEXW4PlayerTypes@@@Z
	jmp	___CxxFrameHandler3
text$x	ENDS
?BuildCounselList@CvAdvisorCounsel@@QAEXW4PlayerTypes@@@Z ENDP ; CvAdvisorCounsel::BuildCounselList
EXTRN	__imp__strcpy_s:PROC
; Function compile flags: /Odtp
;	COMDAT ?SetCounselEntry@CvAdvisorCounsel@@QAE_NIW4AdvisorTypes@@PBDH@Z
_TEXT	SEGMENT
_this$ = -12						; size = 4
$T226304 = -8						; size = 4
$T226294 = -4						; size = 4
_uiIndex$ = 8						; size = 4
_eAdvisor$ = 12						; size = 4
_strAdvisorCounsel$ = 16				; size = 4
_iValue$ = 20						; size = 4
?SetCounselEntry@CvAdvisorCounsel@@QAE_NIW4AdvisorTypes@@PBDH@Z PROC ; CvAdvisorCounsel::SetCounselEntry, COMDAT
; _this$ = ecx

; 2076 : {

	push	ebp
	mov	ebp, esp
	sub	esp, 12					; 0000000cH
	mov	DWORD PTR _this$[ebp], ecx

; 2077 : 	if(uiIndex >= m_aCounsel.size())

	mov	eax, DWORD PTR _this$[ebp]
	mov	ecx, DWORD PTR [eax+4]
	mov	DWORD PTR $T226294[ebp], ecx
	mov	edx, DWORD PTR _uiIndex$[ebp]
	cmp	edx, DWORD PTR $T226294[ebp]
	jb	SHORT $LN6@SetCounsel

; 2078 : 	{
; 2079 : 		return false;

	xor	al, al
	jmp	SHORT $LN2@SetCounsel

; 2080 : 	}
; 2081 : 
; 2082 : 	m_aCounsel[uiIndex].m_eAdvisor = eAdvisor;

$LN6@SetCounsel:
	mov	eax, DWORD PTR _uiIndex$[ebp]
	imul	eax, 520				; 00000208H
	mov	ecx, DWORD PTR _this$[ebp]
	mov	edx, DWORD PTR [ecx]
	mov	ecx, DWORD PTR _eAdvisor$[ebp]
	mov	DWORD PTR [eax+edx], ecx

; 2083 : 	strcpy_s(m_aCounsel[uiIndex].m_strTxtKey, strAdvisorCounsel);

	mov	edx, DWORD PTR _uiIndex$[ebp]
	imul	edx, 520				; 00000208H
	mov	eax, DWORD PTR _this$[ebp]
	mov	ecx, DWORD PTR [eax]
	lea	edx, DWORD PTR [ecx+edx+4]
	mov	DWORD PTR $T226304[ebp], edx
	mov	eax, DWORD PTR _strAdvisorCounsel$[ebp]
	push	eax
	push	512					; 00000200H
	mov	ecx, DWORD PTR $T226304[ebp]
	push	ecx
	call	DWORD PTR __imp__strcpy_s
	add	esp, 12					; 0000000cH

; 2084 : 	m_aCounsel[uiIndex].m_iValue = iValue;

	mov	edx, DWORD PTR _uiIndex$[ebp]
	imul	edx, 520				; 00000208H
	mov	eax, DWORD PTR _this$[ebp]
	mov	ecx, DWORD PTR [eax]
	mov	eax, DWORD PTR _iValue$[ebp]
	mov	DWORD PTR [ecx+edx+516], eax

; 2085 : 
; 2086 : 	return true;

	mov	al, 1
$LN2@SetCounsel:

; 2087 : }

	mov	esp, ebp
	pop	ebp
	ret	16					; 00000010H
?SetCounselEntry@CvAdvisorCounsel@@QAE_NIW4AdvisorTypes@@PBDH@Z ENDP ; CvAdvisorCounsel::SetCounselEntry
_TEXT	ENDS
PUBLIC	??_C@_0FE@GLGBBJMA@d?3?2sources?2lekmod_git?2checkout?2l@ ; `string'
EXTRN	?FireMallocAlignedNoTracking@@YAPAXIIPBDH@Z:PROC ; FireMallocAlignedNoTracking
;	COMDAT ??_C@_0FE@GLGBBJMA@d?3?2sources?2lekmod_git?2checkout?2l@
; File d:\sources\lekmod_git\checkout\lekmod_dll\fireplace\include\fireworks\ffastvector.h
CONST	SEGMENT
??_C@_0FE@GLGBBJMA@d?3?2sources?2lekmod_git?2checkout?2l@ DB 'd:\sources\'
	DB	'lekmod_git\checkout\lekmod_dll\fireplace\include\fireworks\FF'
	DB	'astVector.h', 00H				; `string'
CONST	ENDS
;	COMDAT xdata$x
xdata$x	SEGMENT
__unwindtable$??0?$FFastVector@UCounsel@CvAdvisorCounsel@@$00$0BCJ@$0A@UFDefaultFastVectorAllocator@?$BaseVector@UCounsel@CvAdvisorCounsel@@$00@@@@QAE@I@Z DD 0ffffffffH
	DD	FLAT:__unwindfunclet$??0?$FFastVector@UCounsel@CvAdvisorCounsel@@$00$0BCJ@$0A@UFDefaultFastVectorAllocator@?$BaseVector@UCounsel@CvAdvisorCounsel@@$00@@@@QAE@I@Z$0
__ehfuncinfo$??0?$FFastVector@UCounsel@CvAdvisorCounsel@@$00$0BCJ@$0A@UFDefaultFastVectorAllocator@?$BaseVector@UCounsel@CvAdvisorCounsel@@$00@@@@QAE@I@Z DD 019930522H
	DD	01H
	DD	FLAT:__unwindtable$??0?$FFastVector@UCounsel@CvAdvisorCounsel@@$00$0BCJ@$0A@UFDefaultFastVectorAllocator@?$BaseVector@UCounsel@CvAdvisorCounsel@@$00@@@@QAE@I@Z
	DD	2 DUP(00H)
	DD	2 DUP(00H)
	DD	00H
	DD	01H
; Function compile flags: /Odtp
xdata$x	ENDS
;	COMDAT ??0?$FFastVector@UCounsel@CvAdvisorCounsel@@$00$0BCJ@$0A@UFDefaultFastVectorAllocator@?$BaseVector@UCounsel@CvAdvisorCounsel@@$00@@@@QAE@I@Z
_TEXT	SEGMENT
_this$ = -24						; size = 4
$T226324 = -20						; size = 4
_pRet$226323 = -16					; size = 4
__$EHRec$ = -12						; size = 12
_uiStartingMaxSize$ = 8					; size = 4
??0?$FFastVector@UCounsel@CvAdvisorCounsel@@$00$0BCJ@$0A@UFDefaultFastVectorAllocator@?$BaseVector@UCounsel@CvAdvisorCounsel@@$00@@@@QAE@I@Z PROC ; FFastVector<CvAdvisorCounsel::Counsel,1,297,0,BaseVector<CvAdvisorCounsel::Counsel,1>::FDefaultFastVectorAllocator>::FFastVector<CvAdvisorCounsel::Counsel,1,297,0,BaseVector<CvAdvisorCounsel::Counsel,1>::FDefaultFastVectorAllocator>, COMDAT
; _this$ = ecx

; 309  : 	FFastVector(unsigned int uiStartingMaxSize = 0)

	push	ebp
	mov	ebp, esp
	push	-1
	push	__ehhandler$??0?$FFastVector@UCounsel@CvAdvisorCounsel@@$00$0BCJ@$0A@UFDefaultFastVectorAllocator@?$BaseVector@UCounsel@CvAdvisorCounsel@@$00@@@@QAE@I@Z
	mov	eax, DWORD PTR fs:0
	push	eax
	sub	esp, 12					; 0000000cH
	mov	eax, DWORD PTR ___security_cookie
	xor	eax, ebp
	push	eax
	lea	eax, DWORD PTR __$EHRec$[ebp]
	mov	DWORD PTR fs:0, eax
	mov	DWORD PTR _this$[ebp], ecx
	mov	eax, DWORD PTR _this$[ebp]
	mov	DWORD PTR [eax], 0
	mov	ecx, DWORD PTR _this$[ebp]
	mov	DWORD PTR [ecx+4], 0
	mov	edx, DWORD PTR _this$[ebp]
	mov	DWORD PTR [edx+8], 0
	mov	DWORD PTR __$EHRec$[ebp+8], 0

; 310  : 	{
; 311  : #ifdef BREAK_ON_REPEATED_RESIZE
; 312  : 		m_nResizeTimes = 0;
; 313  : #endif
; 314  : 		m_pData = Alloc(uiStartingMaxSize);

	cmp	DWORD PTR _uiStartingMaxSize$[ebp], 0
	jbe	SHORT $LN6@FFastVecto
	push	85					; 00000055H
	push	OFFSET ??_C@_0FE@GLGBBJMA@d?3?2sources?2lekmod_git?2checkout?2l@
	push	4
	mov	eax, DWORD PTR _uiStartingMaxSize$[ebp]
	imul	eax, 520				; 00000208H
	push	eax
	call	?FireMallocAlignedNoTracking@@YAPAXIIPBDH@Z ; FireMallocAlignedNoTracking
	add	esp, 16					; 00000010H
	mov	DWORD PTR _pRet$226323[ebp], eax
	mov	ecx, DWORD PTR _this$[ebp]
	mov	edx, DWORD PTR _uiStartingMaxSize$[ebp]
	mov	DWORD PTR [ecx+8], edx
	mov	eax, DWORD PTR _pRet$226323[ebp]
	mov	DWORD PTR $T226324[ebp], eax
	jmp	SHORT $LN7@FFastVecto
$LN6@FFastVecto:
	mov	DWORD PTR $T226324[ebp], 0
$LN7@FFastVecto:
	mov	ecx, DWORD PTR _this$[ebp]
	mov	edx, DWORD PTR $T226324[ebp]
	mov	DWORD PTR [ecx], edx

; 315  : 	};

	mov	DWORD PTR __$EHRec$[ebp+8], -1
	mov	eax, DWORD PTR _this$[ebp]
	mov	ecx, DWORD PTR __$EHRec$[ebp]
	mov	DWORD PTR fs:0, ecx
	pop	ecx
	mov	esp, ebp
	pop	ebp
	ret	4
_TEXT	ENDS
;	COMDAT text$x
text$x	SEGMENT
__unwindfunclet$??0?$FFastVector@UCounsel@CvAdvisorCounsel@@$00$0BCJ@$0A@UFDefaultFastVectorAllocator@?$BaseVector@UCounsel@CvAdvisorCounsel@@$00@@@@QAE@I@Z$0:
	mov	ecx, DWORD PTR _this$[ebp]
	jmp	??1?$BaseVector@UCounsel@CvAdvisorCounsel@@$00@@QAE@XZ ; BaseVector<CvAdvisorCounsel::Counsel,1>::~BaseVector<CvAdvisorCounsel::Counsel,1>
__ehhandler$??0?$FFastVector@UCounsel@CvAdvisorCounsel@@$00$0BCJ@$0A@UFDefaultFastVectorAllocator@?$BaseVector@UCounsel@CvAdvisorCounsel@@$00@@@@QAE@I@Z:
	mov	edx, DWORD PTR [esp+8]
	lea	eax, DWORD PTR [edx+12]
	mov	ecx, DWORD PTR [edx-16]
	xor	ecx, eax
	call	@__security_check_cookie@4
	mov	eax, OFFSET __ehfuncinfo$??0?$FFastVector@UCounsel@CvAdvisorCounsel@@$00$0BCJ@$0A@UFDefaultFastVectorAllocator@?$BaseVector@UCounsel@CvAdvisorCounsel@@$00@@@@QAE@I@Z
	jmp	___CxxFrameHandler3
text$x	ENDS
??0?$FFastVector@UCounsel@CvAdvisorCounsel@@$00$0BCJ@$0A@UFDefaultFastVectorAllocator@?$BaseVector@UCounsel@CvAdvisorCounsel@@$00@@@@QAE@I@Z ENDP ; FFastVector<CvAdvisorCounsel::Counsel,1,297,0,BaseVector<CvAdvisorCounsel::Counsel,1>::FDefaultFastVectorAllocator>::FFastVector<CvAdvisorCounsel::Counsel,1,297,0,BaseVector<CvAdvisorCounsel::Counsel,1>::FDefaultFastVectorAllocator>
;	COMDAT xdata$x
xdata$x	SEGMENT
__unwindtable$??1?$FFastVector@UCounsel@CvAdvisorCounsel@@$00$0BCJ@$0A@UFDefaultFastVectorAllocator@?$BaseVector@UCounsel@CvAdvisorCounsel@@$00@@@@QAE@XZ DD 0ffffffffH
	DD	FLAT:__unwindfunclet$??1?$FFastVector@UCounsel@CvAdvisorCounsel@@$00$0BCJ@$0A@UFDefaultFastVectorAllocator@?$BaseVector@UCounsel@CvAdvisorCounsel@@$00@@@@QAE@XZ$0
__ehfuncinfo$??1?$FFastVector@UCounsel@CvAdvisorCounsel@@$00$0BCJ@$0A@UFDefaultFastVectorAllocator@?$BaseVector@UCounsel@CvAdvisorCounsel@@$00@@@@QAE@XZ DD 019930522H
	DD	01H
	DD	FLAT:__unwindtable$??1?$FFastVector@UCounsel@CvAdvisorCounsel@@$00$0BCJ@$0A@UFDefaultFastVectorAllocator@?$BaseVector@UCounsel@CvAdvisorCounsel@@$00@@@@QAE@XZ
	DD	2 DUP(00H)
	DD	2 DUP(00H)
	DD	00H
	DD	01H
; Function compile flags: /Odtp
xdata$x	ENDS
;	COMDAT ??1?$FFastVector@UCounsel@CvAdvisorCounsel@@$00$0BCJ@$0A@UFDefaultFastVectorAllocator@?$BaseVector@UCounsel@CvAdvisorCounsel@@$00@@@@QAE@XZ
_TEXT	SEGMENT
_this$ = -28						; size = 4
$T226359 = -24						; size = 4
$T226358 = -20						; size = 4
_i$226350 = -16						; size = 4
__$EHRec$ = -12						; size = 12
??1?$FFastVector@UCounsel@CvAdvisorCounsel@@$00$0BCJ@$0A@UFDefaultFastVectorAllocator@?$BaseVector@UCounsel@CvAdvisorCounsel@@$00@@@@QAE@XZ PROC ; FFastVector<CvAdvisorCounsel::Counsel,1,297,0,BaseVector<CvAdvisorCounsel::Counsel,1>::FDefaultFastVectorAllocator>::~FFastVector<CvAdvisorCounsel::Counsel,1,297,0,BaseVector<CvAdvisorCounsel::Counsel,1>::FDefaultFastVectorAllocator>, COMDAT
; _this$ = ecx

; 316  : 	~FFastVector(){

	push	ebp
	mov	ebp, esp
	push	-1
	push	__ehhandler$??1?$FFastVector@UCounsel@CvAdvisorCounsel@@$00$0BCJ@$0A@UFDefaultFastVectorAllocator@?$BaseVector@UCounsel@CvAdvisorCounsel@@$00@@@@QAE@XZ
	mov	eax, DWORD PTR fs:0
	push	eax
	sub	esp, 16					; 00000010H
	mov	eax, DWORD PTR ___security_cookie
	xor	eax, ebp
	push	eax
	lea	eax, DWORD PTR __$EHRec$[ebp]
	mov	DWORD PTR fs:0, eax
	mov	DWORD PTR _this$[ebp], ecx
	mov	DWORD PTR __$EHRec$[ebp+8], 0

; 317  : 		Free(m_pData, m_uiCurrSize);

	mov	eax, DWORD PTR _this$[ebp]
	mov	ecx, DWORD PTR [eax+4]
	mov	DWORD PTR $T226359[ebp], ecx
	mov	edx, DWORD PTR _this$[ebp]
	mov	eax, DWORD PTR [edx]
	mov	DWORD PTR $T226358[ebp], eax
	xor	ecx, ecx
	je	SHORT $LN4@FFastVecto@2
	xor	edx, edx
	je	SHORT $LN4@FFastVecto@2
	mov	DWORD PTR _i$226350[ebp], 0
	jmp	SHORT $LN9@FFastVecto@2
$LN8@FFastVecto@2:
	mov	eax, DWORD PTR _i$226350[ebp]
	add	eax, 1
	mov	DWORD PTR _i$226350[ebp], eax
$LN9@FFastVecto@2:
	mov	ecx, DWORD PTR _i$226350[ebp]
	cmp	ecx, DWORD PTR $T226359[ebp]
	jae	SHORT $LN4@FFastVecto@2
	jmp	SHORT $LN8@FFastVecto@2
$LN4@FFastVecto@2:
	mov	edx, DWORD PTR $T226358[ebp]
	push	edx
	call	?FireFreeAlignedNoTracking@@YAXPAX@Z	; FireFreeAlignedNoTracking
	add	esp, 4

; 318  : 	};

	mov	DWORD PTR __$EHRec$[ebp+8], -1
	mov	ecx, DWORD PTR __$EHRec$[ebp]
	mov	DWORD PTR fs:0, ecx
	pop	ecx
	mov	esp, ebp
	pop	ebp
	ret	0
_TEXT	ENDS
;	COMDAT text$x
text$x	SEGMENT
__unwindfunclet$??1?$FFastVector@UCounsel@CvAdvisorCounsel@@$00$0BCJ@$0A@UFDefaultFastVectorAllocator@?$BaseVector@UCounsel@CvAdvisorCounsel@@$00@@@@QAE@XZ$0:
	mov	ecx, DWORD PTR _this$[ebp]
	jmp	??1?$BaseVector@UCounsel@CvAdvisorCounsel@@$00@@QAE@XZ ; BaseVector<CvAdvisorCounsel::Counsel,1>::~BaseVector<CvAdvisorCounsel::Counsel,1>
__ehhandler$??1?$FFastVector@UCounsel@CvAdvisorCounsel@@$00$0BCJ@$0A@UFDefaultFastVectorAllocator@?$BaseVector@UCounsel@CvAdvisorCounsel@@$00@@@@QAE@XZ:
	mov	edx, DWORD PTR [esp+8]
	lea	eax, DWORD PTR [edx+12]
	mov	ecx, DWORD PTR [edx-20]
	xor	ecx, eax
	call	@__security_check_cookie@4
	mov	eax, OFFSET __ehfuncinfo$??1?$FFastVector@UCounsel@CvAdvisorCounsel@@$00$0BCJ@$0A@UFDefaultFastVectorAllocator@?$BaseVector@UCounsel@CvAdvisorCounsel@@$00@@@@QAE@XZ
	jmp	___CxxFrameHandler3
text$x	ENDS
??1?$FFastVector@UCounsel@CvAdvisorCounsel@@$00$0BCJ@$0A@UFDefaultFastVectorAllocator@?$BaseVector@UCounsel@CvAdvisorCounsel@@$00@@@@QAE@XZ ENDP ; FFastVector<CvAdvisorCounsel::Counsel,1,297,0,BaseVector<CvAdvisorCounsel::Counsel,1>::FDefaultFastVectorAllocator>::~FFastVector<CvAdvisorCounsel::Counsel,1,297,0,BaseVector<CvAdvisorCounsel::Counsel,1>::FDefaultFastVectorAllocator>
; Function compile flags: /Odtp
;	COMDAT ??1?$BaseVector@UCounsel@CvAdvisorCounsel@@$00@@QAE@XZ
_TEXT	SEGMENT
_this$ = -4						; size = 4
??1?$BaseVector@UCounsel@CvAdvisorCounsel@@$00@@QAE@XZ PROC ; BaseVector<CvAdvisorCounsel::Counsel,1>::~BaseVector<CvAdvisorCounsel::Counsel,1>, COMDAT
; _this$ = ecx

; 111  : 	~BaseVector(){};

	push	ebp
	mov	ebp, esp
	push	ecx
	mov	DWORD PTR _this$[ebp], ecx
	mov	esp, ebp
	pop	ebp
	ret	0
??1?$BaseVector@UCounsel@CvAdvisorCounsel@@$00@@QAE@XZ ENDP ; BaseVector<CvAdvisorCounsel::Counsel,1>::~BaseVector<CvAdvisorCounsel::Counsel,1>
_TEXT	ENDS
EXTRN	_memcpy:PROC
; Function compile flags: /Odtp
;	COMDAT ?GrowSize@?$FFastVector@UCounsel@CvAdvisorCounsel@@$00$0BCJ@$0A@UFDefaultFastVectorAllocator@?$BaseVector@UCounsel@CvAdvisorCounsel@@$00@@@@IAEXI@Z
_TEXT	SEGMENT
tv185 = -48						; size = 4
_this$ = -44						; size = 4
$T226415 = -40						; size = 4
$T226414 = -36						; size = 4
_i$226406 = -32						; size = 4
$T226386 = -28						; size = 4
_pRet$226385 = -24					; size = 4
$T226373 = -20						; size = 4
_i$223783 = -16						; size = 4
_uiNewSize$223774 = -12					; size = 4
_nOld$ = -8						; size = 4
_pTemp$ = -4						; size = 4
_uiFit$ = 8						; size = 4
?GrowSize@?$FFastVector@UCounsel@CvAdvisorCounsel@@$00$0BCJ@$0A@UFDefaultFastVectorAllocator@?$BaseVector@UCounsel@CvAdvisorCounsel@@$00@@@@IAEXI@Z PROC ; FFastVector<CvAdvisorCounsel::Counsel,1,297,0,BaseVector<CvAdvisorCounsel::Counsel,1>::FDefaultFastVectorAllocator>::GrowSize, COMDAT
; _this$ = ecx

; 422  : 	{

	push	ebp
	mov	ebp, esp
	sub	esp, 48					; 00000030H
	push	esi
	push	edi
	mov	DWORD PTR _this$[ebp], ecx

; 423  : 		unsigned int nOld = m_uiCurrMaxSize;

	mov	eax, DWORD PTR _this$[ebp]
	mov	ecx, DWORD PTR [eax+8]
	mov	DWORD PTR _nOld$[ebp], ecx

; 424  : 		if( m_uiCurrMaxSize == 0 ) m_uiCurrMaxSize = 1;

	mov	edx, DWORD PTR _this$[ebp]
	cmp	DWORD PTR [edx+8], 0
	jne	SHORT $LN10@GrowSize
	mov	eax, DWORD PTR _this$[ebp]
	mov	DWORD PTR [eax+8], 1
$LN10@GrowSize:

; 425  : 		while( uiFit >= m_uiCurrMaxSize ){

	mov	ecx, DWORD PTR _this$[ebp]
	mov	edx, DWORD PTR _uiFit$[ebp]
	cmp	edx, DWORD PTR [ecx+8]
	jb	SHORT $LN9@GrowSize

; 426  : 
; 427  : 			//Try to double size...
; 428  : 			UINT uiNewSize = m_uiCurrMaxSize<<1;

	mov	eax, DWORD PTR _this$[ebp]
	mov	ecx, DWORD PTR [eax+8]
	shl	ecx, 1
	mov	DWORD PTR _uiNewSize$223774[ebp], ecx

; 429  : 
; 430  : 			//...on overflow bail and set to exact size
; 431  : 			if( uiNewSize < m_uiCurrMaxSize ){

	mov	edx, DWORD PTR _this$[ebp]
	mov	eax, DWORD PTR _uiNewSize$223774[ebp]
	cmp	eax, DWORD PTR [edx+8]
	jae	SHORT $LN8@GrowSize

; 432  : 				m_uiCurrMaxSize = uiFit;

	mov	ecx, DWORD PTR _this$[ebp]
	mov	edx, DWORD PTR _uiFit$[ebp]
	mov	DWORD PTR [ecx+8], edx

; 433  : 				break;

	jmp	SHORT $LN9@GrowSize
$LN8@GrowSize:

; 434  : 			}
; 435  : 
; 436  : 			//...otherwise use the doubled size
; 437  : 			m_uiCurrMaxSize = uiNewSize;

	mov	eax, DWORD PTR _this$[ebp]
	mov	ecx, DWORD PTR _uiNewSize$223774[ebp]
	mov	DWORD PTR [eax+8], ecx

; 438  : 		}

	jmp	SHORT $LN10@GrowSize
$LN9@GrowSize:

; 439  : 
; 440  : 		T* pTemp = Alloc(m_uiCurrMaxSize);

	mov	edx, DWORD PTR _this$[ebp]
	mov	eax, DWORD PTR [edx+8]
	mov	DWORD PTR $T226386[ebp], eax
	cmp	DWORD PTR $T226386[ebp], 0
	jbe	SHORT $LN16@GrowSize
	push	85					; 00000055H
	push	OFFSET ??_C@_0FE@GLGBBJMA@d?3?2sources?2lekmod_git?2checkout?2l@
	push	4
	mov	ecx, DWORD PTR $T226386[ebp]
	imul	ecx, 520				; 00000208H
	push	ecx
	call	?FireMallocAlignedNoTracking@@YAPAXIIPBDH@Z ; FireMallocAlignedNoTracking
	add	esp, 16					; 00000010H
	mov	DWORD PTR _pRet$226385[ebp], eax
	mov	edx, DWORD PTR _this$[ebp]
	mov	eax, DWORD PTR $T226386[ebp]
	mov	DWORD PTR [edx+8], eax
	mov	ecx, DWORD PTR _pRet$226385[ebp]
	mov	DWORD PTR _pTemp$[ebp], ecx
	jmp	SHORT $LN17@GrowSize
$LN16@GrowSize:
	mov	DWORD PTR _pTemp$[ebp], 0
$LN17@GrowSize:

; 441  : 		if (pTemp)

	cmp	DWORD PTR _pTemp$[ebp], 0
	je	$LN7@GrowSize

; 442  : 		{
; 443  : 			if( bPODType ){

	mov	edx, 1
	test	edx, edx
	je	SHORT $LN6@GrowSize

; 444  : 				memcpy( (void*)pTemp, (void*)m_pData, sizeof(T)*m_uiCurrSize);

	mov	eax, DWORD PTR _this$[ebp]
	mov	ecx, DWORD PTR [eax+4]
	imul	ecx, 520				; 00000208H
	push	ecx
	mov	edx, DWORD PTR _this$[ebp]
	mov	eax, DWORD PTR [edx]
	push	eax
	mov	ecx, DWORD PTR _pTemp$[ebp]
	push	ecx
	call	_memcpy
	add	esp, 12					; 0000000cH

; 445  : 			}else{

	jmp	SHORT $LN5@GrowSize
$LN6@GrowSize:

; 446  : 				for(unsigned int i = 0; i < m_uiCurrSize; ++i)

	mov	DWORD PTR _i$223783[ebp], 0
	jmp	SHORT $LN4@GrowSize
$LN3@GrowSize:
	mov	edx, DWORD PTR _i$223783[ebp]
	add	edx, 1
	mov	DWORD PTR _i$223783[ebp], edx
$LN4@GrowSize:
	mov	eax, DWORD PTR _this$[ebp]
	mov	ecx, DWORD PTR _i$223783[ebp]
	cmp	ecx, DWORD PTR [eax+4]
	jae	SHORT $LN5@GrowSize

; 447  : 					new( (void*)&(pTemp[i]) )T( m_pData[i]);

	mov	edx, DWORD PTR _i$223783[ebp]
	imul	edx, 520				; 00000208H
	add	edx, DWORD PTR _pTemp$[ebp]
	mov	DWORD PTR $T226373[ebp], edx
	je	SHORT $LN14@GrowSize
	mov	eax, DWORD PTR _i$223783[ebp]
	imul	eax, 520				; 00000208H
	mov	ecx, DWORD PTR _this$[ebp]
	mov	esi, DWORD PTR [ecx]
	add	esi, eax
	mov	ecx, 130				; 00000082H
	mov	edi, DWORD PTR $T226373[ebp]
	rep movsd
	mov	edx, DWORD PTR $T226373[ebp]
	mov	DWORD PTR tv185[ebp], edx
	jmp	SHORT $LN15@GrowSize
$LN14@GrowSize:
	mov	DWORD PTR tv185[ebp], 0
$LN15@GrowSize:
	jmp	SHORT $LN3@GrowSize
$LN5@GrowSize:

; 448  : 			}
; 449  : 			Free(m_pData, m_uiCurrSize);

	mov	eax, DWORD PTR _this$[ebp]
	mov	ecx, DWORD PTR [eax+4]
	mov	DWORD PTR $T226415[ebp], ecx
	mov	edx, DWORD PTR _this$[ebp]
	mov	eax, DWORD PTR [edx]
	mov	DWORD PTR $T226414[ebp], eax
	xor	ecx, ecx
	je	SHORT $LN23@GrowSize
	xor	edx, edx
	je	SHORT $LN23@GrowSize
	mov	DWORD PTR _i$226406[ebp], 0
	jmp	SHORT $LN28@GrowSize
$LN27@GrowSize:
	mov	eax, DWORD PTR _i$226406[ebp]
	add	eax, 1
	mov	DWORD PTR _i$226406[ebp], eax
$LN28@GrowSize:
	mov	ecx, DWORD PTR _i$226406[ebp]
	cmp	ecx, DWORD PTR $T226415[ebp]
	jae	SHORT $LN23@GrowSize
	jmp	SHORT $LN27@GrowSize
$LN23@GrowSize:
	mov	edx, DWORD PTR $T226414[ebp]
	push	edx
	call	?FireFreeAlignedNoTracking@@YAXPAX@Z	; FireFreeAlignedNoTracking
	add	esp, 4

; 450  : 			m_pData = pTemp;

	mov	eax, DWORD PTR _this$[ebp]
	mov	ecx, DWORD PTR _pTemp$[ebp]
	mov	DWORD PTR [eax], ecx

; 451  : 		}
; 452  : 		else

	jmp	SHORT $LN12@GrowSize
$LN7@GrowSize:

; 453  : 		{
; 454  : 			FAssertMsg2(0, "Failed to grow array size from %u to %u", nOld, m_uiCurrMaxSize);
; 455  : 			m_uiCurrMaxSize = nOld;

	mov	edx, DWORD PTR _this$[ebp]
	mov	eax, DWORD PTR _nOld$[ebp]
	mov	DWORD PTR [edx+8], eax
$LN12@GrowSize:

; 456  : 		}
; 457  : 	};

	pop	edi
	pop	esi
	mov	esp, ebp
	pop	ebp
	ret	4
?GrowSize@?$FFastVector@UCounsel@CvAdvisorCounsel@@$00$0BCJ@$0A@UFDefaultFastVectorAllocator@?$BaseVector@UCounsel@CvAdvisorCounsel@@$00@@@@IAEXI@Z ENDP ; FFastVector<CvAdvisorCounsel::Counsel,1,297,0,BaseVector<CvAdvisorCounsel::Counsel,1>::FDefaultFastVectorAllocator>::GrowSize
_TEXT	ENDS
EXTRN	__imp_?PushArgument@String@Localization@@QAE_NPBD@Z:PROC
; Function compile flags: /Odtp
; File d:\sources\lekmod_git\checkout\lekmod_dll\cvlocalization\include\cvlocalization.h
;	COMDAT ??$?6PBD@@YAAAVString@Localization@@AAV01@ABQBD@Z
_TEXT	SEGMENT
_s$ = 8							; size = 4
_val$ = 12						; size = 4
??$?6PBD@@YAAAVString@Localization@@AAV01@ABQBD@Z PROC	; operator<<<char const *>, COMDAT

; 490  : {

	push	ebp
	mov	ebp, esp

; 491  : 	s.PushArgument(val);

	mov	eax, DWORD PTR _val$[ebp]
	mov	ecx, DWORD PTR [eax]
	push	ecx
	mov	ecx, DWORD PTR _s$[ebp]
	call	DWORD PTR __imp_?PushArgument@String@Localization@@QAE_NPBD@Z

; 492  : 	return s;

	mov	eax, DWORD PTR _s$[ebp]

; 493  : }

	pop	ebp
	ret	0
??$?6PBD@@YAAAVString@Localization@@AAV01@ABQBD@Z ENDP	; operator<<<char const *>
_TEXT	ENDS
EXTRN	__imp_?PushArgument@String@Localization@@QAE_NH@Z:PROC
; Function compile flags: /Odtp
;	COMDAT ??$?6H@@YAAAVString@Localization@@AAV01@ABH@Z
_TEXT	SEGMENT
_s$ = 8							; size = 4
_val$ = 12						; size = 4
??$?6H@@YAAAVString@Localization@@AAV01@ABH@Z PROC	; operator<<<int>, COMDAT

; 490  : {

	push	ebp
	mov	ebp, esp

; 491  : 	s.PushArgument(val);

	mov	eax, DWORD PTR _val$[ebp]
	mov	ecx, DWORD PTR [eax]
	push	ecx
	mov	ecx, DWORD PTR _s$[ebp]
	call	DWORD PTR __imp_?PushArgument@String@Localization@@QAE_NH@Z

; 492  : 	return s;

	mov	eax, DWORD PTR _s$[ebp]

; 493  : }

	pop	ebp
	ret	0
??$?6H@@YAAAVString@Localization@@AAV01@ABH@Z ENDP	; operator<<<int>
_TEXT	ENDS
PUBLIC	??$_Insertion_sort1@PAUCounsel@CvAdvisorCounsel@@P6A_NU12@0@ZU12@@std@@YAXPAUCounsel@CvAdvisorCounsel@@0P6A_NU12@1@Z0@Z ; std::_Insertion_sort1<CvAdvisorCounsel::Counsel *,bool (__cdecl*)(CvAdvisorCounsel::Counsel,CvAdvisorCounsel::Counsel),CvAdvisorCounsel::Counsel>
PUBLIC	??$_Sort_heap@PAUCounsel@CvAdvisorCounsel@@P6A_NU12@0@Z@std@@YAXPAUCounsel@CvAdvisorCounsel@@0P6A_NU12@1@Z@Z ; std::_Sort_heap<CvAdvisorCounsel::Counsel *,bool (__cdecl*)(CvAdvisorCounsel::Counsel,CvAdvisorCounsel::Counsel)>
PUBLIC	??$make_heap@PAUCounsel@CvAdvisorCounsel@@P6A_NU12@0@Z@std@@YAXPAUCounsel@CvAdvisorCounsel@@0P6A_NU12@1@Z@Z ; std::make_heap<CvAdvisorCounsel::Counsel *,bool (__cdecl*)(CvAdvisorCounsel::Counsel,CvAdvisorCounsel::Counsel)>
PUBLIC	??$_Unguarded_partition@PAUCounsel@CvAdvisorCounsel@@P6A_NU12@0@Z@std@@YA?AU?$pair@PAUCounsel@CvAdvisorCounsel@@PAU12@@0@PAUCounsel@CvAdvisorCounsel@@0P6A_NU23@1@Z@Z ; std::_Unguarded_partition<CvAdvisorCounsel::Counsel *,bool (__cdecl*)(CvAdvisorCounsel::Counsel,CvAdvisorCounsel::Counsel)>
; Function compile flags: /Odtp
; File c:\program files (x86)\microsoft visual studio 9.0\vc\include\algorithm
;	COMDAT ??$_Sort@PAUCounsel@CvAdvisorCounsel@@HP6A_NU12@0@Z@std@@YAXPAUCounsel@CvAdvisorCounsel@@0HP6A_NU12@1@Z@Z
_TEXT	SEGMENT
__Mid$223870 = -12					; size = 8
__Count$ = -4						; size = 4
__First$ = 8						; size = 4
__Last$ = 12						; size = 4
__Ideal$ = 16						; size = 4
__Pred$ = 20						; size = 4
??$_Sort@PAUCounsel@CvAdvisorCounsel@@HP6A_NU12@0@Z@std@@YAXPAUCounsel@CvAdvisorCounsel@@0HP6A_NU12@1@Z@Z PROC ; std::_Sort<CvAdvisorCounsel::Counsel *,int,bool (__cdecl*)(CvAdvisorCounsel::Counsel,CvAdvisorCounsel::Counsel)>, COMDAT

; 3244 : 	{	// order [_First, _Last), using _Pred

	push	ebp
	mov	ebp, esp
	mov	eax, 5368				; 000014f8H
	call	__chkstk
	push	esi
$LN7@Sort:

; 3245 : 	_Diff _Count;
; 3246 : 	for (; _ISORT_MAX < (_Count = _Last - _First) && 0 < _Ideal; )

	mov	eax, DWORD PTR __Last$[ebp]
	sub	eax, DWORD PTR __First$[ebp]
	cdq
	mov	ecx, 520				; 00000208H
	idiv	ecx
	mov	DWORD PTR __Count$[ebp], eax
	cmp	DWORD PTR __Count$[ebp], 32		; 00000020H
	jle	$LN6@Sort
	cmp	DWORD PTR __Ideal$[ebp], 0
	jle	$LN6@Sort

; 3247 : 		{	// divide and conquer by quicksort
; 3248 : 		pair<_RanIt, _RanIt> _Mid =
; 3249 : 			std::_Unguarded_partition(_First, _Last, _Pred);

	mov	edx, DWORD PTR __Pred$[ebp]
	push	edx
	mov	eax, DWORD PTR __Last$[ebp]
	push	eax
	mov	ecx, DWORD PTR __First$[ebp]
	push	ecx
	lea	edx, DWORD PTR __Mid$223870[ebp]
	push	edx
	call	??$_Unguarded_partition@PAUCounsel@CvAdvisorCounsel@@P6A_NU12@0@Z@std@@YA?AU?$pair@PAUCounsel@CvAdvisorCounsel@@PAU12@@0@PAUCounsel@CvAdvisorCounsel@@0P6A_NU23@1@Z@Z ; std::_Unguarded_partition<CvAdvisorCounsel::Counsel *,bool (__cdecl*)(CvAdvisorCounsel::Counsel,CvAdvisorCounsel::Counsel)>
	add	esp, 16					; 00000010H

; 3250 : 		_Ideal /= 2, _Ideal += _Ideal / 2;	// allow 1.5 log2(N) divisions

	mov	eax, DWORD PTR __Ideal$[ebp]
	cdq
	sub	eax, edx
	sar	eax, 1
	mov	DWORD PTR __Ideal$[ebp], eax
	mov	eax, DWORD PTR __Ideal$[ebp]
	cdq
	sub	eax, edx
	sar	eax, 1
	add	eax, DWORD PTR __Ideal$[ebp]
	mov	DWORD PTR __Ideal$[ebp], eax

; 3251 : 
; 3252 : 		if (_Mid.first - _First < _Last - _Mid.second)

	mov	eax, DWORD PTR __Mid$223870[ebp]
	sub	eax, DWORD PTR __First$[ebp]
	cdq
	mov	ecx, 520				; 00000208H
	idiv	ecx
	mov	ecx, eax
	mov	eax, DWORD PTR __Last$[ebp]
	sub	eax, DWORD PTR __Mid$223870[ebp+4]
	cdq
	mov	esi, 520				; 00000208H
	idiv	esi
	cmp	ecx, eax
	jge	SHORT $LN5@Sort

; 3253 : 			{	// loop on second half
; 3254 : 			std::_Sort(_First, _Mid.first, _Ideal, _Pred);

	mov	edx, DWORD PTR __Pred$[ebp]
	push	edx
	mov	eax, DWORD PTR __Ideal$[ebp]
	push	eax
	mov	ecx, DWORD PTR __Mid$223870[ebp]
	push	ecx
	mov	edx, DWORD PTR __First$[ebp]
	push	edx
	call	??$_Sort@PAUCounsel@CvAdvisorCounsel@@HP6A_NU12@0@Z@std@@YAXPAUCounsel@CvAdvisorCounsel@@0HP6A_NU12@1@Z@Z ; std::_Sort<CvAdvisorCounsel::Counsel *,int,bool (__cdecl*)(CvAdvisorCounsel::Counsel,CvAdvisorCounsel::Counsel)>
	add	esp, 16					; 00000010H

; 3255 : 			_First = _Mid.second;

	mov	eax, DWORD PTR __Mid$223870[ebp+4]
	mov	DWORD PTR __First$[ebp], eax

; 3256 : 			}
; 3257 : 		else

	jmp	SHORT $LN4@Sort
$LN5@Sort:

; 3258 : 			{	// loop on first half
; 3259 : 			std::_Sort(_Mid.second, _Last, _Ideal, _Pred);

	mov	ecx, DWORD PTR __Pred$[ebp]
	push	ecx
	mov	edx, DWORD PTR __Ideal$[ebp]
	push	edx
	mov	eax, DWORD PTR __Last$[ebp]
	push	eax
	mov	ecx, DWORD PTR __Mid$223870[ebp+4]
	push	ecx
	call	??$_Sort@PAUCounsel@CvAdvisorCounsel@@HP6A_NU12@0@Z@std@@YAXPAUCounsel@CvAdvisorCounsel@@0HP6A_NU12@1@Z@Z ; std::_Sort<CvAdvisorCounsel::Counsel *,int,bool (__cdecl*)(CvAdvisorCounsel::Counsel,CvAdvisorCounsel::Counsel)>
	add	esp, 16					; 00000010H

; 3260 : 			_Last = _Mid.first;

	mov	edx, DWORD PTR __Mid$223870[ebp]
	mov	DWORD PTR __Last$[ebp], edx
$LN4@Sort:

; 3261 : 			}
; 3262 : 		}

	jmp	$LN7@Sort
$LN6@Sort:

; 3263 : 
; 3264 : 	if (_ISORT_MAX < _Count)

	cmp	DWORD PTR __Count$[ebp], 32		; 00000020H
	jle	SHORT $LN3@Sort

; 3265 : 		{	// heap sort if too many divisions
; 3266 : 		std::make_heap(_First, _Last, _Pred);

	mov	eax, DWORD PTR __Pred$[ebp]
	push	eax
	mov	ecx, DWORD PTR __Last$[ebp]
	push	ecx
	mov	edx, DWORD PTR __First$[ebp]
	push	edx
	call	??$make_heap@PAUCounsel@CvAdvisorCounsel@@P6A_NU12@0@Z@std@@YAXPAUCounsel@CvAdvisorCounsel@@0P6A_NU12@1@Z@Z ; std::make_heap<CvAdvisorCounsel::Counsel *,bool (__cdecl*)(CvAdvisorCounsel::Counsel,CvAdvisorCounsel::Counsel)>
	add	esp, 12					; 0000000cH

; 3267 : 		std::sort_heap(_First, _Last, _Pred);

	mov	eax, DWORD PTR __Pred$[ebp]
	push	eax
	mov	ecx, DWORD PTR __Last$[ebp]
	push	ecx
	mov	edx, DWORD PTR __First$[ebp]
	push	edx
	call	??$_Sort_heap@PAUCounsel@CvAdvisorCounsel@@P6A_NU12@0@Z@std@@YAXPAUCounsel@CvAdvisorCounsel@@0P6A_NU12@1@Z@Z ; std::_Sort_heap<CvAdvisorCounsel::Counsel *,bool (__cdecl*)(CvAdvisorCounsel::Counsel,CvAdvisorCounsel::Counsel)>
	add	esp, 12					; 0000000cH

; 3268 : 		}
; 3269 : 	else if (1 < _Count)

	jmp	SHORT $LN8@Sort
$LN3@Sort:
	cmp	DWORD PTR __Count$[ebp], 1
	jle	SHORT $LN8@Sort

; 3270 : 		std::_Insertion_sort(_First, _Last, _Pred);	// small

	push	0
	mov	eax, DWORD PTR __Pred$[ebp]
	push	eax
	mov	ecx, DWORD PTR __Last$[ebp]
	push	ecx
	mov	edx, DWORD PTR __First$[ebp]
	push	edx
	call	??$_Insertion_sort1@PAUCounsel@CvAdvisorCounsel@@P6A_NU12@0@ZU12@@std@@YAXPAUCounsel@CvAdvisorCounsel@@0P6A_NU12@1@Z0@Z ; std::_Insertion_sort1<CvAdvisorCounsel::Counsel *,bool (__cdecl*)(CvAdvisorCounsel::Counsel,CvAdvisorCounsel::Counsel),CvAdvisorCounsel::Counsel>
	add	esp, 16					; 00000010H
$LN8@Sort:

; 3271 : 	}

	pop	esi
	mov	esp, ebp
	pop	ebp
	ret	0
??$_Sort@PAUCounsel@CvAdvisorCounsel@@HP6A_NU12@0@Z@std@@YAXPAUCounsel@CvAdvisorCounsel@@0HP6A_NU12@1@Z@Z ENDP ; std::_Sort<CvAdvisorCounsel::Counsel *,int,bool (__cdecl*)(CvAdvisorCounsel::Counsel,CvAdvisorCounsel::Counsel)>
_TEXT	ENDS
PUBLIC	??$_Median@PAUCounsel@CvAdvisorCounsel@@P6A_NU12@0@Z@std@@YAXPAUCounsel@CvAdvisorCounsel@@00P6A_NU12@1@Z@Z ; std::_Median<CvAdvisorCounsel::Counsel *,bool (__cdecl*)(CvAdvisorCounsel::Counsel,CvAdvisorCounsel::Counsel)>
PUBLIC	__$ArrayPad$
; Function compile flags: /Odtp
;	COMDAT ??$_Unguarded_partition@PAUCounsel@CvAdvisorCounsel@@P6A_NU12@0@Z@std@@YA?AU?$pair@PAUCounsel@CvAdvisorCounsel@@PAU12@@0@PAUCounsel@CvAdvisorCounsel@@0P6A_NU23@1@Z@Z
_TEXT	SEGMENT
$T226843 = -5316					; size = 4
__Tmp$226841 = -5312					; size = 520
$T226827 = -4788					; size = 4
$T226826 = -4784					; size = 4
__Tmp$226824 = -4780					; size = 520
$T226810 = -4256					; size = 4
__Tmp$226808 = -4252					; size = 520
$T226794 = -3728					; size = 4
$T226793 = -3724					; size = 4
__Tmp$226791 = -3720					; size = 520
$T226777 = -3196					; size = 4
$T226776 = -3192					; size = 4
__Tmp$226774 = -3188					; size = 520
$T226757 = -2664					; size = 4
$T226756 = -2660					; size = 4
__Tmp$226754 = -2656					; size = 520
$T226740 = -2132					; size = 4
__Tmp$226738 = -2128					; size = 520
__$ArrayPad$ = -1608					; size = 4
__Plast$ = -20						; size = 4
__Glast$ = -16						; size = 4
__Pfirst$ = -12						; size = 4
__Gfirst$ = -8						; size = 4
__Mid$ = -4						; size = 4
___$ReturnUdt$ = 8					; size = 4
__First$ = 12						; size = 4
__Last$ = 16						; size = 4
__Pred$ = 20						; size = 4
??$_Unguarded_partition@PAUCounsel@CvAdvisorCounsel@@P6A_NU12@0@Z@std@@YA?AU?$pair@PAUCounsel@CvAdvisorCounsel@@PAU12@@0@PAUCounsel@CvAdvisorCounsel@@0P6A_NU23@1@Z@Z PROC ; std::_Unguarded_partition<CvAdvisorCounsel::Counsel *,bool (__cdecl*)(CvAdvisorCounsel::Counsel,CvAdvisorCounsel::Counsel)>, COMDAT

; 3185 : 	{	// partition [_First, _Last), using _Pred

	push	ebp
	mov	ebp, esp
	mov	eax, 5316				; 000014c4H
	call	__chkstk
	mov	eax, DWORD PTR ___security_cookie
	xor	eax, ebp
	mov	DWORD PTR __$ArrayPad$[ebp], eax
	push	esi
	push	edi

; 3186 : 	_RanIt _Mid = _First + (_Last - _First) / 2;

	mov	eax, DWORD PTR __Last$[ebp]
	sub	eax, DWORD PTR __First$[ebp]
	cdq
	mov	ecx, 520				; 00000208H
	idiv	ecx
	cdq
	sub	eax, edx
	sar	eax, 1
	imul	eax, 520				; 00000208H
	add	eax, DWORD PTR __First$[ebp]
	mov	DWORD PTR __Mid$[ebp], eax

; 3187 : 	std::_Median(_First, _Mid, _Last - 1, _Pred);

	mov	edx, DWORD PTR __Pred$[ebp]
	push	edx
	mov	eax, DWORD PTR __Last$[ebp]
	sub	eax, 520				; 00000208H
	push	eax
	mov	ecx, DWORD PTR __Mid$[ebp]
	push	ecx
	mov	edx, DWORD PTR __First$[ebp]
	push	edx
	call	??$_Median@PAUCounsel@CvAdvisorCounsel@@P6A_NU12@0@Z@std@@YAXPAUCounsel@CvAdvisorCounsel@@00P6A_NU12@1@Z@Z ; std::_Median<CvAdvisorCounsel::Counsel *,bool (__cdecl*)(CvAdvisorCounsel::Counsel,CvAdvisorCounsel::Counsel)>
	add	esp, 16					; 00000010H

; 3188 : 	_RanIt _Pfirst = _Mid;

	mov	eax, DWORD PTR __Mid$[ebp]
	mov	DWORD PTR __Pfirst$[ebp], eax

; 3189 : 	_RanIt _Plast = _Pfirst + 1;

	mov	ecx, DWORD PTR __Pfirst$[ebp]
	add	ecx, 520				; 00000208H
	mov	DWORD PTR __Plast$[ebp], ecx
$LN27@Unguarded_:

; 3190 : 
; 3191 : 	while (_First < _Pfirst
; 3192 : 		&& !_DEBUG_LT_PRED(_Pred, *(_Pfirst - 1), *_Pfirst)
; 3193 : 		&& !_Pred(*_Pfirst, *(_Pfirst - 1)))

	mov	edx, DWORD PTR __First$[ebp]
	cmp	edx, DWORD PTR __Pfirst$[ebp]
	jae	$LN25@Unguarded_
	mov	esi, DWORD PTR __Pfirst$[ebp]
	sub	esp, 520				; 00000208H
	mov	ecx, 130				; 00000082H
	mov	edi, esp
	rep movsd
	mov	esi, DWORD PTR __Pfirst$[ebp]
	sub	esi, 520				; 00000208H
	sub	esp, 520				; 00000208H
	mov	ecx, 130				; 00000082H
	mov	edi, esp
	rep movsd
	call	DWORD PTR __Pred$[ebp]
	add	esp, 1040				; 00000410H
	movzx	eax, al
	test	eax, eax
	jne	SHORT $LN25@Unguarded_
	mov	esi, DWORD PTR __Pfirst$[ebp]
	sub	esi, 520				; 00000208H
	sub	esp, 520				; 00000208H
	mov	ecx, 130				; 00000082H
	mov	edi, esp
	rep movsd
	mov	esi, DWORD PTR __Pfirst$[ebp]
	sub	esp, 520				; 00000208H
	mov	ecx, 130				; 00000082H
	mov	edi, esp
	rep movsd
	call	DWORD PTR __Pred$[ebp]
	add	esp, 1040				; 00000410H
	movzx	ecx, al
	test	ecx, ecx
	jne	SHORT $LN25@Unguarded_

; 3194 : 		--_Pfirst;

	mov	edx, DWORD PTR __Pfirst$[ebp]
	sub	edx, 520				; 00000208H
	mov	DWORD PTR __Pfirst$[ebp], edx
	jmp	$LN27@Unguarded_
$LN25@Unguarded_:

; 3195 : 	while (_Plast < _Last
; 3196 : 		&& !_DEBUG_LT_PRED(_Pred, *_Plast, *_Pfirst)
; 3197 : 		&& !_Pred(*_Pfirst, *_Plast))

	mov	eax, DWORD PTR __Plast$[ebp]
	cmp	eax, DWORD PTR __Last$[ebp]
	jae	SHORT $LN24@Unguarded_
	mov	esi, DWORD PTR __Pfirst$[ebp]
	sub	esp, 520				; 00000208H
	mov	ecx, 130				; 00000082H
	mov	edi, esp
	rep movsd
	mov	esi, DWORD PTR __Plast$[ebp]
	sub	esp, 520				; 00000208H
	mov	ecx, 130				; 00000082H
	mov	edi, esp
	rep movsd
	call	DWORD PTR __Pred$[ebp]
	add	esp, 1040				; 00000410H
	movzx	ecx, al
	test	ecx, ecx
	jne	SHORT $LN24@Unguarded_
	mov	esi, DWORD PTR __Plast$[ebp]
	sub	esp, 520				; 00000208H
	mov	ecx, 130				; 00000082H
	mov	edi, esp
	rep movsd
	mov	esi, DWORD PTR __Pfirst$[ebp]
	sub	esp, 520				; 00000208H
	mov	ecx, 130				; 00000082H
	mov	edi, esp
	rep movsd
	call	DWORD PTR __Pred$[ebp]
	add	esp, 1040				; 00000410H
	movzx	edx, al
	test	edx, edx
	jne	SHORT $LN24@Unguarded_

; 3198 : 		++_Plast;

	mov	eax, DWORD PTR __Plast$[ebp]
	add	eax, 520				; 00000208H
	mov	DWORD PTR __Plast$[ebp], eax
	jmp	SHORT $LN25@Unguarded_
$LN24@Unguarded_:

; 3199 : 
; 3200 : 	_RanIt _Gfirst = _Plast;

	mov	ecx, DWORD PTR __Plast$[ebp]
	mov	DWORD PTR __Gfirst$[ebp], ecx

; 3201 : 	_RanIt _Glast = _Pfirst;

	mov	edx, DWORD PTR __Pfirst$[ebp]
	mov	DWORD PTR __Glast$[ebp], edx
$LN23@Unguarded_:

; 3202 : 
; 3203 : 	for (; ; )
; 3204 : 		{	// partition
; 3205 : 		for (; _Gfirst < _Last; ++_Gfirst)

	jmp	SHORT $LN21@Unguarded_
$LN20@Unguarded_:
	mov	eax, DWORD PTR __Gfirst$[ebp]
	add	eax, 520				; 00000208H
	mov	DWORD PTR __Gfirst$[ebp], eax
$LN21@Unguarded_:
	mov	ecx, DWORD PTR __Gfirst$[ebp]
	cmp	ecx, DWORD PTR __Last$[ebp]
	jae	$LN19@Unguarded_

; 3206 : 			if (_DEBUG_LT_PRED(_Pred, *_Pfirst, *_Gfirst))

	mov	esi, DWORD PTR __Gfirst$[ebp]
	sub	esp, 520				; 00000208H
	mov	ecx, 130				; 00000082H
	mov	edi, esp
	rep movsd
	mov	esi, DWORD PTR __Pfirst$[ebp]
	sub	esp, 520				; 00000208H
	mov	ecx, 130				; 00000082H
	mov	edi, esp
	rep movsd
	call	DWORD PTR __Pred$[ebp]
	add	esp, 1040				; 00000410H
	movzx	edx, al
	test	edx, edx
	je	SHORT $LN18@Unguarded_
	jmp	$LN17@Unguarded_
$LN18@Unguarded_:

; 3207 : 				;
; 3208 : 			else if (_Pred(*_Gfirst, *_Pfirst))

	mov	esi, DWORD PTR __Pfirst$[ebp]
	sub	esp, 520				; 00000208H
	mov	ecx, 130				; 00000082H
	mov	edi, esp
	rep movsd
	mov	esi, DWORD PTR __Gfirst$[ebp]
	sub	esp, 520				; 00000208H
	mov	ecx, 130				; 00000082H
	mov	edi, esp
	rep movsd
	call	DWORD PTR __Pred$[ebp]
	add	esp, 1040				; 00000410H
	movzx	eax, al
	test	eax, eax
	je	SHORT $LN16@Unguarded_

; 3209 : 				break;

	jmp	SHORT $LN19@Unguarded_

; 3210 : 			else

	jmp	SHORT $LN17@Unguarded_
$LN16@Unguarded_:

; 3211 : 				std::iter_swap(_Plast++, _Gfirst);

	mov	ecx, DWORD PTR __Plast$[ebp]
	mov	DWORD PTR $T226740[ebp], ecx
	mov	edx, DWORD PTR __Plast$[ebp]
	add	edx, 520				; 00000208H
	mov	DWORD PTR __Plast$[ebp], edx
	mov	eax, DWORD PTR $T226740[ebp]
	cmp	eax, DWORD PTR __Gfirst$[ebp]
	je	SHORT $LN17@Unguarded_
	mov	esi, DWORD PTR $T226740[ebp]
	mov	ecx, 130				; 00000082H
	lea	edi, DWORD PTR __Tmp$226738[ebp]
	rep movsd
	mov	esi, DWORD PTR __Gfirst$[ebp]
	mov	ecx, 130				; 00000082H
	mov	edi, DWORD PTR $T226740[ebp]
	rep movsd
	mov	ecx, 130				; 00000082H
	lea	esi, DWORD PTR __Tmp$226738[ebp]
	mov	edi, DWORD PTR __Gfirst$[ebp]
	rep movsd
$LN17@Unguarded_:
	jmp	$LN20@Unguarded_
$LN19@Unguarded_:

; 3212 : 		for (; _First < _Glast; --_Glast)

	jmp	SHORT $LN14@Unguarded_
$LN13@Unguarded_:
	mov	ecx, DWORD PTR __Glast$[ebp]
	sub	ecx, 520				; 00000208H
	mov	DWORD PTR __Glast$[ebp], ecx
$LN14@Unguarded_:
	mov	edx, DWORD PTR __First$[ebp]
	cmp	edx, DWORD PTR __Glast$[ebp]
	jae	$LN12@Unguarded_

; 3213 : 			if (_DEBUG_LT_PRED(_Pred, *(_Glast - 1), *_Pfirst))

	mov	esi, DWORD PTR __Pfirst$[ebp]
	sub	esp, 520				; 00000208H
	mov	ecx, 130				; 00000082H
	mov	edi, esp
	rep movsd
	mov	esi, DWORD PTR __Glast$[ebp]
	sub	esi, 520				; 00000208H
	sub	esp, 520				; 00000208H
	mov	ecx, 130				; 00000082H
	mov	edi, esp
	rep movsd
	call	DWORD PTR __Pred$[ebp]
	add	esp, 1040				; 00000410H
	movzx	eax, al
	test	eax, eax
	je	SHORT $LN11@Unguarded_
	jmp	$LN10@Unguarded_
$LN11@Unguarded_:

; 3214 : 				;
; 3215 : 			else if (_Pred(*_Pfirst, *(_Glast - 1)))

	mov	esi, DWORD PTR __Glast$[ebp]
	sub	esi, 520				; 00000208H
	sub	esp, 520				; 00000208H
	mov	ecx, 130				; 00000082H
	mov	edi, esp
	rep movsd
	mov	esi, DWORD PTR __Pfirst$[ebp]
	sub	esp, 520				; 00000208H
	mov	ecx, 130				; 00000082H
	mov	edi, esp
	rep movsd
	call	DWORD PTR __Pred$[ebp]
	add	esp, 1040				; 00000410H
	movzx	ecx, al
	test	ecx, ecx
	je	SHORT $LN9@Unguarded_

; 3216 : 				break;

	jmp	SHORT $LN12@Unguarded_

; 3217 : 			else

	jmp	SHORT $LN10@Unguarded_
$LN9@Unguarded_:

; 3218 : 				std::iter_swap(--_Pfirst, _Glast - 1);

	mov	edx, DWORD PTR __Pfirst$[ebp]
	sub	edx, 520				; 00000208H
	mov	DWORD PTR __Pfirst$[ebp], edx
	mov	eax, DWORD PTR __Glast$[ebp]
	sub	eax, 520				; 00000208H
	mov	DWORD PTR $T226757[ebp], eax
	mov	ecx, DWORD PTR __Pfirst$[ebp]
	mov	DWORD PTR $T226756[ebp], ecx
	mov	edx, DWORD PTR $T226756[ebp]
	cmp	edx, DWORD PTR $T226757[ebp]
	je	SHORT $LN10@Unguarded_
	mov	esi, DWORD PTR $T226756[ebp]
	mov	ecx, 130				; 00000082H
	lea	edi, DWORD PTR __Tmp$226754[ebp]
	rep movsd
	mov	esi, DWORD PTR $T226757[ebp]
	mov	ecx, 130				; 00000082H
	mov	edi, DWORD PTR $T226756[ebp]
	rep movsd
	mov	ecx, 130				; 00000082H
	lea	esi, DWORD PTR __Tmp$226754[ebp]
	mov	edi, DWORD PTR $T226757[ebp]
	rep movsd
$LN10@Unguarded_:
	jmp	$LN13@Unguarded_
$LN12@Unguarded_:

; 3219 : 		if (_Glast == _First && _Gfirst == _Last)

	mov	eax, DWORD PTR __Glast$[ebp]
	cmp	eax, DWORD PTR __First$[ebp]
	jne	SHORT $LN7@Unguarded_
	mov	ecx, DWORD PTR __Gfirst$[ebp]
	cmp	ecx, DWORD PTR __Last$[ebp]
	jne	SHORT $LN7@Unguarded_

; 3220 : 			return (pair<_RanIt, _RanIt>(_Pfirst, _Plast));

	mov	edx, DWORD PTR ___$ReturnUdt$[ebp]
	mov	eax, DWORD PTR __Pfirst$[ebp]
	mov	DWORD PTR [edx], eax
	mov	ecx, DWORD PTR ___$ReturnUdt$[ebp]
	mov	edx, DWORD PTR __Plast$[ebp]
	mov	DWORD PTR [ecx+4], edx
	mov	eax, DWORD PTR ___$ReturnUdt$[ebp]
	jmp	$LN28@Unguarded_
$LN7@Unguarded_:

; 3221 : 
; 3222 : 		if (_Glast == _First)

	mov	eax, DWORD PTR __Glast$[ebp]
	cmp	eax, DWORD PTR __First$[ebp]
	jne	$LN6@Unguarded_

; 3223 : 			{	// no room at bottom, rotate pivot upward
; 3224 : 			if (_Plast != _Gfirst)

	mov	ecx, DWORD PTR __Plast$[ebp]
	cmp	ecx, DWORD PTR __Gfirst$[ebp]
	je	SHORT $LN5@Unguarded_

; 3225 : 				std::iter_swap(_Pfirst, _Plast);

	mov	edx, DWORD PTR __Plast$[ebp]
	mov	DWORD PTR $T226777[ebp], edx
	mov	eax, DWORD PTR __Pfirst$[ebp]
	mov	DWORD PTR $T226776[ebp], eax
	mov	ecx, DWORD PTR $T226776[ebp]
	cmp	ecx, DWORD PTR $T226777[ebp]
	je	SHORT $LN5@Unguarded_
	mov	esi, DWORD PTR $T226776[ebp]
	mov	ecx, 130				; 00000082H
	lea	edi, DWORD PTR __Tmp$226774[ebp]
	rep movsd
	mov	esi, DWORD PTR $T226777[ebp]
	mov	ecx, 130				; 00000082H
	mov	edi, DWORD PTR $T226776[ebp]
	rep movsd
	mov	ecx, 130				; 00000082H
	lea	esi, DWORD PTR __Tmp$226774[ebp]
	mov	edi, DWORD PTR $T226777[ebp]
	rep movsd
$LN5@Unguarded_:

; 3226 : 			++_Plast;

	mov	edx, DWORD PTR __Plast$[ebp]
	add	edx, 520				; 00000208H
	mov	DWORD PTR __Plast$[ebp], edx

; 3227 : 			std::iter_swap(_Pfirst++, _Gfirst++);

	mov	eax, DWORD PTR __Gfirst$[ebp]
	mov	DWORD PTR $T226794[ebp], eax
	mov	ecx, DWORD PTR __Pfirst$[ebp]
	mov	DWORD PTR $T226793[ebp], ecx
	mov	edx, DWORD PTR __Pfirst$[ebp]
	add	edx, 520				; 00000208H
	mov	DWORD PTR __Pfirst$[ebp], edx
	mov	eax, DWORD PTR __Gfirst$[ebp]
	add	eax, 520				; 00000208H
	mov	DWORD PTR __Gfirst$[ebp], eax
	mov	ecx, DWORD PTR $T226793[ebp]
	cmp	ecx, DWORD PTR $T226794[ebp]
	je	SHORT $LN71@Unguarded_
	mov	esi, DWORD PTR $T226793[ebp]
	mov	ecx, 130				; 00000082H
	lea	edi, DWORD PTR __Tmp$226791[ebp]
	rep movsd
	mov	esi, DWORD PTR $T226794[ebp]
	mov	ecx, 130				; 00000082H
	mov	edi, DWORD PTR $T226793[ebp]
	rep movsd
	mov	ecx, 130				; 00000082H
	lea	esi, DWORD PTR __Tmp$226791[ebp]
	mov	edi, DWORD PTR $T226794[ebp]
	rep movsd
$LN71@Unguarded_:

; 3228 : 			}
; 3229 : 		else if (_Gfirst == _Last)

	jmp	$LN4@Unguarded_
$LN6@Unguarded_:
	mov	edx, DWORD PTR __Gfirst$[ebp]
	cmp	edx, DWORD PTR __Last$[ebp]
	jne	$LN3@Unguarded_

; 3230 : 			{	// no room at top, rotate pivot downward
; 3231 : 			if (--_Glast != --_Pfirst)

	mov	eax, DWORD PTR __Glast$[ebp]
	sub	eax, 520				; 00000208H
	mov	DWORD PTR __Glast$[ebp], eax
	mov	ecx, DWORD PTR __Pfirst$[ebp]
	sub	ecx, 520				; 00000208H
	mov	DWORD PTR __Pfirst$[ebp], ecx
	mov	edx, DWORD PTR __Glast$[ebp]
	cmp	edx, DWORD PTR __Pfirst$[ebp]
	je	SHORT $LN2@Unguarded_

; 3232 : 				std::iter_swap(_Glast, _Pfirst);

	mov	eax, DWORD PTR __Pfirst$[ebp]
	mov	DWORD PTR $T226810[ebp], eax
	mov	ecx, DWORD PTR __Glast$[ebp]
	cmp	ecx, DWORD PTR $T226810[ebp]
	je	SHORT $LN2@Unguarded_
	mov	esi, DWORD PTR __Glast$[ebp]
	mov	ecx, 130				; 00000082H
	lea	edi, DWORD PTR __Tmp$226808[ebp]
	rep movsd
	mov	esi, DWORD PTR $T226810[ebp]
	mov	ecx, 130				; 00000082H
	mov	edi, DWORD PTR __Glast$[ebp]
	rep movsd
	mov	ecx, 130				; 00000082H
	lea	esi, DWORD PTR __Tmp$226808[ebp]
	mov	edi, DWORD PTR $T226810[ebp]
	rep movsd
$LN2@Unguarded_:

; 3233 : 			std::iter_swap(_Pfirst, --_Plast);

	mov	edx, DWORD PTR __Plast$[ebp]
	sub	edx, 520				; 00000208H
	mov	DWORD PTR __Plast$[ebp], edx
	mov	eax, DWORD PTR __Plast$[ebp]
	mov	DWORD PTR $T226827[ebp], eax
	mov	ecx, DWORD PTR __Pfirst$[ebp]
	mov	DWORD PTR $T226826[ebp], ecx
	mov	edx, DWORD PTR $T226826[ebp]
	cmp	edx, DWORD PTR $T226827[ebp]
	je	SHORT $LN81@Unguarded_
	mov	esi, DWORD PTR $T226826[ebp]
	mov	ecx, 130				; 00000082H
	lea	edi, DWORD PTR __Tmp$226824[ebp]
	rep movsd
	mov	esi, DWORD PTR $T226827[ebp]
	mov	ecx, 130				; 00000082H
	mov	edi, DWORD PTR $T226826[ebp]
	rep movsd
	mov	ecx, 130				; 00000082H
	lea	esi, DWORD PTR __Tmp$226824[ebp]
	mov	edi, DWORD PTR $T226827[ebp]
	rep movsd
$LN81@Unguarded_:

; 3234 : 			}
; 3235 : 		else

	jmp	SHORT $LN4@Unguarded_
$LN3@Unguarded_:

; 3236 : 			std::iter_swap(_Gfirst++, --_Glast);

	mov	eax, DWORD PTR __Glast$[ebp]
	sub	eax, 520				; 00000208H
	mov	DWORD PTR __Glast$[ebp], eax
	mov	ecx, DWORD PTR __Gfirst$[ebp]
	mov	DWORD PTR $T226843[ebp], ecx
	mov	edx, DWORD PTR $T226843[ebp]
	cmp	edx, DWORD PTR __Glast$[ebp]
	je	SHORT $LN86@Unguarded_
	mov	esi, DWORD PTR $T226843[ebp]
	mov	ecx, 130				; 00000082H
	lea	edi, DWORD PTR __Tmp$226841[ebp]
	rep movsd
	mov	esi, DWORD PTR __Glast$[ebp]
	mov	ecx, 130				; 00000082H
	mov	edi, DWORD PTR $T226843[ebp]
	rep movsd
	mov	ecx, 130				; 00000082H
	lea	esi, DWORD PTR __Tmp$226841[ebp]
	mov	edi, DWORD PTR __Glast$[ebp]
	rep movsd
$LN86@Unguarded_:
	mov	eax, DWORD PTR __Gfirst$[ebp]
	add	eax, 520				; 00000208H
	mov	DWORD PTR __Gfirst$[ebp], eax
$LN4@Unguarded_:

; 3237 : 		}

	jmp	$LN23@Unguarded_
$LN28@Unguarded_:

; 3238 : 	}

	pop	edi
	pop	esi
	mov	ecx, DWORD PTR __$ArrayPad$[ebp]
	xor	ecx, ebp
	call	@__security_check_cookie@4
	mov	esp, ebp
	pop	ebp
	ret	0
??$_Unguarded_partition@PAUCounsel@CvAdvisorCounsel@@P6A_NU12@0@Z@std@@YA?AU?$pair@PAUCounsel@CvAdvisorCounsel@@PAU12@@0@PAUCounsel@CvAdvisorCounsel@@0P6A_NU23@1@Z@Z ENDP ; std::_Unguarded_partition<CvAdvisorCounsel::Counsel *,bool (__cdecl*)(CvAdvisorCounsel::Counsel,CvAdvisorCounsel::Counsel)>
_TEXT	ENDS
PUBLIC	??$_Adjust_heap@PAUCounsel@CvAdvisorCounsel@@HU12@P6A_NU12@0@Z@std@@YAXPAUCounsel@CvAdvisorCounsel@@HHU12@P6A_N11@Z@Z ; std::_Adjust_heap<CvAdvisorCounsel::Counsel *,int,CvAdvisorCounsel::Counsel,bool (__cdecl*)(CvAdvisorCounsel::Counsel,CvAdvisorCounsel::Counsel)>
; Function compile flags: /Odtp
;	COMDAT ??$make_heap@PAUCounsel@CvAdvisorCounsel@@P6A_NU12@0@Z@std@@YAXPAUCounsel@CvAdvisorCounsel@@0P6A_NU12@1@Z@Z
_TEXT	SEGMENT
$T226867 = -528						; size = 520
__Hole$226870 = -8					; size = 4
__Bottom$226869 = -4					; size = 4
__First$ = 8						; size = 4
__Last$ = 12						; size = 4
__Pred$ = 16						; size = 4
??$make_heap@PAUCounsel@CvAdvisorCounsel@@P6A_NU12@0@Z@std@@YAXPAUCounsel@CvAdvisorCounsel@@0P6A_NU12@1@Z@Z PROC ; std::make_heap<CvAdvisorCounsel::Counsel *,bool (__cdecl*)(CvAdvisorCounsel::Counsel,CvAdvisorCounsel::Counsel)>, COMDAT

; 2203 : 	{	// make [_First, _Last) into a heap, using _Pred

	push	ebp
	mov	ebp, esp
	sub	esp, 552				; 00000228H
	push	esi
	push	edi

; 2204 : 	_DEBUG_RANGE(_First, _Last);
; 2205 : 	_DEBUG_POINTER(_Pred);
; 2206 : 	if (1 < _Last - _First)

	mov	eax, DWORD PTR __Last$[ebp]
	sub	eax, DWORD PTR __First$[ebp]
	cdq
	mov	ecx, 520				; 00000208H
	idiv	ecx
	cmp	eax, 1
	jle	SHORT $LN2@make_heap

; 2207 : 		_Make_heap(_CHECKED_BASE(_First), _CHECKED_BASE(_Last), _Pred,
; 2208 : 			_Dist_type(_First), _Val_type(_First));

	mov	eax, DWORD PTR __Last$[ebp]
	sub	eax, DWORD PTR __First$[ebp]
	cdq
	mov	ecx, 520				; 00000208H
	idiv	ecx
	mov	DWORD PTR __Bottom$226869[ebp], eax
	mov	eax, DWORD PTR __Bottom$226869[ebp]
	cdq
	sub	eax, edx
	sar	eax, 1
	mov	DWORD PTR __Hole$226870[ebp], eax
$LN9@make_heap:
	cmp	DWORD PTR __Hole$226870[ebp], 0
	jle	SHORT $LN2@make_heap
	mov	edx, DWORD PTR __Hole$226870[ebp]
	sub	edx, 1
	mov	DWORD PTR __Hole$226870[ebp], edx
	mov	esi, DWORD PTR __Hole$226870[ebp]
	imul	esi, 520				; 00000208H
	add	esi, DWORD PTR __First$[ebp]
	mov	ecx, 130				; 00000082H
	lea	edi, DWORD PTR $T226867[ebp]
	rep movsd
	mov	eax, DWORD PTR __Pred$[ebp]
	push	eax
	sub	esp, 520				; 00000208H
	mov	ecx, 130				; 00000082H
	lea	esi, DWORD PTR $T226867[ebp]
	mov	edi, esp
	rep movsd
	mov	ecx, DWORD PTR __Bottom$226869[ebp]
	push	ecx
	mov	edx, DWORD PTR __Hole$226870[ebp]
	push	edx
	mov	eax, DWORD PTR __First$[ebp]
	push	eax
	call	??$_Adjust_heap@PAUCounsel@CvAdvisorCounsel@@HU12@P6A_NU12@0@Z@std@@YAXPAUCounsel@CvAdvisorCounsel@@HHU12@P6A_N11@Z@Z ; std::_Adjust_heap<CvAdvisorCounsel::Counsel *,int,CvAdvisorCounsel::Counsel,bool (__cdecl*)(CvAdvisorCounsel::Counsel,CvAdvisorCounsel::Counsel)>
	add	esp, 536				; 00000218H
	jmp	SHORT $LN9@make_heap
$LN2@make_heap:

; 2209 : 	}

	pop	edi
	pop	esi
	mov	esp, ebp
	pop	ebp
	ret	0
??$make_heap@PAUCounsel@CvAdvisorCounsel@@P6A_NU12@0@Z@std@@YAXPAUCounsel@CvAdvisorCounsel@@0P6A_NU12@1@Z@Z ENDP ; std::make_heap<CvAdvisorCounsel::Counsel *,bool (__cdecl*)(CvAdvisorCounsel::Counsel,CvAdvisorCounsel::Counsel)>
_TEXT	ENDS
PUBLIC	__$ArrayPad$226923
; Function compile flags: /Odtp
;	COMDAT ??$_Median@PAUCounsel@CvAdvisorCounsel@@P6A_NU12@0@Z@std@@YAXPAUCounsel@CvAdvisorCounsel@@00P6A_NU12@1@Z@Z
_TEXT	SEGMENT
__Tmp$227240 = -7896					; size = 520
__Tmp$227233 = -7372					; size = 520
__Tmp$227228 = -6848					; size = 520
$T227170 = -6324					; size = 4
$T227169 = -6320					; size = 4
__Tmp$227164 = -6316					; size = 520
__Tmp$227157 = -5792					; size = 520
__Tmp$227149 = -5268					; size = 520
$T227096 = -4744					; size = 4
$T227095 = -4740					; size = 4
__Tmp$227089 = -4736					; size = 520
__Tmp$227082 = -4212					; size = 520
__Tmp$227075 = -3688					; size = 520
$T227022 = -3164					; size = 4
$T227021 = -3160					; size = 4
__Tmp$227015 = -3156					; size = 520
__Tmp$227008 = -2632					; size = 520
__Tmp$227001 = -2108					; size = 520
$T226948 = -1584					; size = 4
$T226947 = -1580					; size = 4
__Tmp$226941 = -1576					; size = 520
__Tmp$226934 = -1052					; size = 520
__Tmp$226927 = -528					; size = 520
__$ArrayPad$226923 = -8					; size = 4
__Step$224028 = -4					; size = 4
__First$ = 8						; size = 4
__Mid$ = 12						; size = 4
__Last$ = 16						; size = 4
__Pred$ = 20						; size = 4
??$_Median@PAUCounsel@CvAdvisorCounsel@@P6A_NU12@0@Z@std@@YAXPAUCounsel@CvAdvisorCounsel@@00P6A_NU12@1@Z@Z PROC ; std::_Median<CvAdvisorCounsel::Counsel *,bool (__cdecl*)(CvAdvisorCounsel::Counsel,CvAdvisorCounsel::Counsel)>, COMDAT

; 3168 : 	{	// sort median element to middle

	push	ebp
	mov	ebp, esp
	mov	eax, 7896				; 00001ed8H
	call	__chkstk
	mov	eax, DWORD PTR ___security_cookie
	xor	eax, ebp
	mov	DWORD PTR __$ArrayPad$226923[ebp], eax
	push	esi
	push	edi

; 3169 : 	if (40 < _Last - _First)

	mov	eax, DWORD PTR __Last$[ebp]
	sub	eax, DWORD PTR __First$[ebp]
	cdq
	mov	ecx, 520				; 00000208H
	idiv	ecx
	cmp	eax, 40					; 00000028H
	jle	$LN2@Median

; 3170 : 		{	// median of nine
; 3171 : 		size_t _Step = (_Last - _First + 1) / 8;

	mov	eax, DWORD PTR __Last$[ebp]
	sub	eax, DWORD PTR __First$[ebp]
	cdq
	mov	ecx, 520				; 00000208H
	idiv	ecx
	add	eax, 1
	cdq
	and	edx, 7
	add	eax, edx
	sar	eax, 3
	mov	DWORD PTR __Step$224028[ebp], eax

; 3172 : 		std::_Med3(_First, _First + _Step, _First + 2 * _Step, _Pred);

	mov	edx, DWORD PTR __Step$224028[ebp]
	shl	edx, 1
	imul	edx, 520				; 00000208H
	add	edx, DWORD PTR __First$[ebp]
	mov	DWORD PTR $T226948[ebp], edx
	mov	eax, DWORD PTR __Step$224028[ebp]
	imul	eax, 520				; 00000208H
	add	eax, DWORD PTR __First$[ebp]
	mov	DWORD PTR $T226947[ebp], eax
	mov	esi, DWORD PTR __First$[ebp]
	sub	esp, 520				; 00000208H
	mov	ecx, 130				; 00000082H
	mov	edi, esp
	rep movsd
	mov	esi, DWORD PTR $T226947[ebp]
	sub	esp, 520				; 00000208H
	mov	ecx, 130				; 00000082H
	mov	edi, esp
	rep movsd
	call	DWORD PTR __Pred$[ebp]
	add	esp, 1040				; 00000410H
	movzx	ecx, al
	test	ecx, ecx
	je	SHORT $LN7@Median
	mov	edx, DWORD PTR $T226947[ebp]
	cmp	edx, DWORD PTR __First$[ebp]
	je	SHORT $LN7@Median
	mov	esi, DWORD PTR $T226947[ebp]
	mov	ecx, 130				; 00000082H
	lea	edi, DWORD PTR __Tmp$226927[ebp]
	rep movsd
	mov	esi, DWORD PTR __First$[ebp]
	mov	ecx, 130				; 00000082H
	mov	edi, DWORD PTR $T226947[ebp]
	rep movsd
	mov	ecx, 130				; 00000082H
	lea	esi, DWORD PTR __Tmp$226927[ebp]
	mov	edi, DWORD PTR __First$[ebp]
	rep movsd
$LN7@Median:
	mov	esi, DWORD PTR $T226947[ebp]
	sub	esp, 520				; 00000208H
	mov	ecx, 130				; 00000082H
	mov	edi, esp
	rep movsd
	mov	esi, DWORD PTR $T226948[ebp]
	sub	esp, 520				; 00000208H
	mov	ecx, 130				; 00000082H
	mov	edi, esp
	rep movsd
	call	DWORD PTR __Pred$[ebp]
	add	esp, 1040				; 00000410H
	movzx	eax, al
	test	eax, eax
	je	SHORT $LN6@Median
	mov	ecx, DWORD PTR $T226948[ebp]
	cmp	ecx, DWORD PTR $T226947[ebp]
	je	SHORT $LN6@Median
	mov	esi, DWORD PTR $T226948[ebp]
	mov	ecx, 130				; 00000082H
	lea	edi, DWORD PTR __Tmp$226934[ebp]
	rep movsd
	mov	esi, DWORD PTR $T226947[ebp]
	mov	ecx, 130				; 00000082H
	mov	edi, DWORD PTR $T226948[ebp]
	rep movsd
	mov	ecx, 130				; 00000082H
	lea	esi, DWORD PTR __Tmp$226934[ebp]
	mov	edi, DWORD PTR $T226947[ebp]
	rep movsd
$LN6@Median:
	mov	esi, DWORD PTR __First$[ebp]
	sub	esp, 520				; 00000208H
	mov	ecx, 130				; 00000082H
	mov	edi, esp
	rep movsd
	mov	esi, DWORD PTR $T226947[ebp]
	sub	esp, 520				; 00000208H
	mov	ecx, 130				; 00000082H
	mov	edi, esp
	rep movsd
	call	DWORD PTR __Pred$[ebp]
	add	esp, 1040				; 00000410H
	movzx	edx, al
	test	edx, edx
	je	SHORT $LN8@Median
	mov	eax, DWORD PTR $T226947[ebp]
	cmp	eax, DWORD PTR __First$[ebp]
	je	SHORT $LN8@Median
	mov	esi, DWORD PTR $T226947[ebp]
	mov	ecx, 130				; 00000082H
	lea	edi, DWORD PTR __Tmp$226941[ebp]
	rep movsd
	mov	esi, DWORD PTR __First$[ebp]
	mov	ecx, 130				; 00000082H
	mov	edi, DWORD PTR $T226947[ebp]
	rep movsd
	mov	ecx, 130				; 00000082H
	lea	esi, DWORD PTR __Tmp$226941[ebp]
	mov	edi, DWORD PTR __First$[ebp]
	rep movsd
$LN8@Median:

; 3173 : 		std::_Med3(_Mid - _Step, _Mid, _Mid + _Step, _Pred);

	mov	ecx, DWORD PTR __Step$224028[ebp]
	imul	ecx, 520				; 00000208H
	add	ecx, DWORD PTR __Mid$[ebp]
	mov	DWORD PTR $T227022[ebp], ecx
	mov	edx, DWORD PTR __Step$224028[ebp]
	imul	edx, 520				; 00000208H
	mov	eax, DWORD PTR __Mid$[ebp]
	sub	eax, edx
	mov	DWORD PTR $T227021[ebp], eax
	mov	esi, DWORD PTR $T227021[ebp]
	sub	esp, 520				; 00000208H
	mov	ecx, 130				; 00000082H
	mov	edi, esp
	rep movsd
	mov	esi, DWORD PTR __Mid$[ebp]
	sub	esp, 520				; 00000208H
	mov	ecx, 130				; 00000082H
	mov	edi, esp
	rep movsd
	call	DWORD PTR __Pred$[ebp]
	add	esp, 1040				; 00000410H
	movzx	ecx, al
	test	ecx, ecx
	je	SHORT $LN27@Median
	mov	edx, DWORD PTR __Mid$[ebp]
	cmp	edx, DWORD PTR $T227021[ebp]
	je	SHORT $LN27@Median
	mov	esi, DWORD PTR __Mid$[ebp]
	mov	ecx, 130				; 00000082H
	lea	edi, DWORD PTR __Tmp$227001[ebp]
	rep movsd
	mov	esi, DWORD PTR $T227021[ebp]
	mov	ecx, 130				; 00000082H
	mov	edi, DWORD PTR __Mid$[ebp]
	rep movsd
	mov	ecx, 130				; 00000082H
	lea	esi, DWORD PTR __Tmp$227001[ebp]
	mov	edi, DWORD PTR $T227021[ebp]
	rep movsd
$LN27@Median:
	mov	esi, DWORD PTR __Mid$[ebp]
	sub	esp, 520				; 00000208H
	mov	ecx, 130				; 00000082H
	mov	edi, esp
	rep movsd
	mov	esi, DWORD PTR $T227022[ebp]
	sub	esp, 520				; 00000208H
	mov	ecx, 130				; 00000082H
	mov	edi, esp
	rep movsd
	call	DWORD PTR __Pred$[ebp]
	add	esp, 1040				; 00000410H
	movzx	eax, al
	test	eax, eax
	je	SHORT $LN26@Median
	mov	ecx, DWORD PTR $T227022[ebp]
	cmp	ecx, DWORD PTR __Mid$[ebp]
	je	SHORT $LN26@Median
	mov	esi, DWORD PTR $T227022[ebp]
	mov	ecx, 130				; 00000082H
	lea	edi, DWORD PTR __Tmp$227008[ebp]
	rep movsd
	mov	esi, DWORD PTR __Mid$[ebp]
	mov	ecx, 130				; 00000082H
	mov	edi, DWORD PTR $T227022[ebp]
	rep movsd
	mov	ecx, 130				; 00000082H
	lea	esi, DWORD PTR __Tmp$227008[ebp]
	mov	edi, DWORD PTR __Mid$[ebp]
	rep movsd
$LN26@Median:
	mov	esi, DWORD PTR $T227021[ebp]
	sub	esp, 520				; 00000208H
	mov	ecx, 130				; 00000082H
	mov	edi, esp
	rep movsd
	mov	esi, DWORD PTR __Mid$[ebp]
	sub	esp, 520				; 00000208H
	mov	ecx, 130				; 00000082H
	mov	edi, esp
	rep movsd
	call	DWORD PTR __Pred$[ebp]
	add	esp, 1040				; 00000410H
	movzx	edx, al
	test	edx, edx
	je	SHORT $LN28@Median
	mov	eax, DWORD PTR __Mid$[ebp]
	cmp	eax, DWORD PTR $T227021[ebp]
	je	SHORT $LN28@Median
	mov	esi, DWORD PTR __Mid$[ebp]
	mov	ecx, 130				; 00000082H
	lea	edi, DWORD PTR __Tmp$227015[ebp]
	rep movsd
	mov	esi, DWORD PTR $T227021[ebp]
	mov	ecx, 130				; 00000082H
	mov	edi, DWORD PTR __Mid$[ebp]
	rep movsd
	mov	ecx, 130				; 00000082H
	lea	esi, DWORD PTR __Tmp$227015[ebp]
	mov	edi, DWORD PTR $T227021[ebp]
	rep movsd
$LN28@Median:

; 3174 : 		std::_Med3(_Last - 2 * _Step, _Last - _Step, _Last, _Pred);

	mov	ecx, DWORD PTR __Step$224028[ebp]
	imul	ecx, 520				; 00000208H
	mov	edx, DWORD PTR __Last$[ebp]
	sub	edx, ecx
	mov	DWORD PTR $T227096[ebp], edx
	mov	eax, DWORD PTR __Step$224028[ebp]
	shl	eax, 1
	imul	eax, 520				; 00000208H
	mov	ecx, DWORD PTR __Last$[ebp]
	sub	ecx, eax
	mov	DWORD PTR $T227095[ebp], ecx
	mov	esi, DWORD PTR $T227095[ebp]
	sub	esp, 520				; 00000208H
	mov	ecx, 130				; 00000082H
	mov	edi, esp
	rep movsd
	mov	esi, DWORD PTR $T227096[ebp]
	sub	esp, 520				; 00000208H
	mov	ecx, 130				; 00000082H
	mov	edi, esp
	rep movsd
	call	DWORD PTR __Pred$[ebp]
	add	esp, 1040				; 00000410H
	movzx	edx, al
	test	edx, edx
	je	SHORT $LN47@Median
	mov	eax, DWORD PTR $T227096[ebp]
	cmp	eax, DWORD PTR $T227095[ebp]
	je	SHORT $LN47@Median
	mov	esi, DWORD PTR $T227096[ebp]
	mov	ecx, 130				; 00000082H
	lea	edi, DWORD PTR __Tmp$227075[ebp]
	rep movsd
	mov	esi, DWORD PTR $T227095[ebp]
	mov	ecx, 130				; 00000082H
	mov	edi, DWORD PTR $T227096[ebp]
	rep movsd
	mov	ecx, 130				; 00000082H
	lea	esi, DWORD PTR __Tmp$227075[ebp]
	mov	edi, DWORD PTR $T227095[ebp]
	rep movsd
$LN47@Median:
	mov	esi, DWORD PTR $T227096[ebp]
	sub	esp, 520				; 00000208H
	mov	ecx, 130				; 00000082H
	mov	edi, esp
	rep movsd
	mov	esi, DWORD PTR __Last$[ebp]
	sub	esp, 520				; 00000208H
	mov	ecx, 130				; 00000082H
	mov	edi, esp
	rep movsd
	call	DWORD PTR __Pred$[ebp]
	add	esp, 1040				; 00000410H
	movzx	ecx, al
	test	ecx, ecx
	je	SHORT $LN46@Median
	mov	edx, DWORD PTR __Last$[ebp]
	cmp	edx, DWORD PTR $T227096[ebp]
	je	SHORT $LN46@Median
	mov	esi, DWORD PTR __Last$[ebp]
	mov	ecx, 130				; 00000082H
	lea	edi, DWORD PTR __Tmp$227082[ebp]
	rep movsd
	mov	esi, DWORD PTR $T227096[ebp]
	mov	ecx, 130				; 00000082H
	mov	edi, DWORD PTR __Last$[ebp]
	rep movsd
	mov	ecx, 130				; 00000082H
	lea	esi, DWORD PTR __Tmp$227082[ebp]
	mov	edi, DWORD PTR $T227096[ebp]
	rep movsd
$LN46@Median:
	mov	esi, DWORD PTR $T227095[ebp]
	sub	esp, 520				; 00000208H
	mov	ecx, 130				; 00000082H
	mov	edi, esp
	rep movsd
	mov	esi, DWORD PTR $T227096[ebp]
	sub	esp, 520				; 00000208H
	mov	ecx, 130				; 00000082H
	mov	edi, esp
	rep movsd
	call	DWORD PTR __Pred$[ebp]
	add	esp, 1040				; 00000410H
	movzx	eax, al
	test	eax, eax
	je	SHORT $LN48@Median
	mov	ecx, DWORD PTR $T227096[ebp]
	cmp	ecx, DWORD PTR $T227095[ebp]
	je	SHORT $LN48@Median
	mov	esi, DWORD PTR $T227096[ebp]
	mov	ecx, 130				; 00000082H
	lea	edi, DWORD PTR __Tmp$227089[ebp]
	rep movsd
	mov	esi, DWORD PTR $T227095[ebp]
	mov	ecx, 130				; 00000082H
	mov	edi, DWORD PTR $T227096[ebp]
	rep movsd
	mov	ecx, 130				; 00000082H
	lea	esi, DWORD PTR __Tmp$227089[ebp]
	mov	edi, DWORD PTR $T227095[ebp]
	rep movsd
$LN48@Median:

; 3175 : 		std::_Med3(_First + _Step, _Mid, _Last - _Step, _Pred);

	mov	edx, DWORD PTR __Step$224028[ebp]
	imul	edx, 520				; 00000208H
	mov	eax, DWORD PTR __Last$[ebp]
	sub	eax, edx
	mov	DWORD PTR $T227170[ebp], eax
	mov	ecx, DWORD PTR __Step$224028[ebp]
	imul	ecx, 520				; 00000208H
	add	ecx, DWORD PTR __First$[ebp]
	mov	DWORD PTR $T227169[ebp], ecx
	mov	esi, DWORD PTR $T227169[ebp]
	sub	esp, 520				; 00000208H
	mov	ecx, 130				; 00000082H
	mov	edi, esp
	rep movsd
	mov	esi, DWORD PTR __Mid$[ebp]
	sub	esp, 520				; 00000208H
	mov	ecx, 130				; 00000082H
	mov	edi, esp
	rep movsd
	call	DWORD PTR __Pred$[ebp]
	add	esp, 1040				; 00000410H
	movzx	edx, al
	test	edx, edx
	je	SHORT $LN67@Median
	mov	eax, DWORD PTR __Mid$[ebp]
	cmp	eax, DWORD PTR $T227169[ebp]
	je	SHORT $LN67@Median
	mov	esi, DWORD PTR __Mid$[ebp]
	mov	ecx, 130				; 00000082H
	lea	edi, DWORD PTR __Tmp$227149[ebp]
	rep movsd
	mov	esi, DWORD PTR $T227169[ebp]
	mov	ecx, 130				; 00000082H
	mov	edi, DWORD PTR __Mid$[ebp]
	rep movsd
	mov	ecx, 130				; 00000082H
	lea	esi, DWORD PTR __Tmp$227149[ebp]
	mov	edi, DWORD PTR $T227169[ebp]
	rep movsd
$LN67@Median:
	mov	esi, DWORD PTR __Mid$[ebp]
	sub	esp, 520				; 00000208H
	mov	ecx, 130				; 00000082H
	mov	edi, esp
	rep movsd
	mov	esi, DWORD PTR $T227170[ebp]
	sub	esp, 520				; 00000208H
	mov	ecx, 130				; 00000082H
	mov	edi, esp
	rep movsd
	call	DWORD PTR __Pred$[ebp]
	add	esp, 1040				; 00000410H
	movzx	ecx, al
	test	ecx, ecx
	je	SHORT $LN66@Median
	mov	edx, DWORD PTR $T227170[ebp]
	cmp	edx, DWORD PTR __Mid$[ebp]
	je	SHORT $LN66@Median
	mov	esi, DWORD PTR $T227170[ebp]
	mov	ecx, 130				; 00000082H
	lea	edi, DWORD PTR __Tmp$227157[ebp]
	rep movsd
	mov	esi, DWORD PTR __Mid$[ebp]
	mov	ecx, 130				; 00000082H
	mov	edi, DWORD PTR $T227170[ebp]
	rep movsd
	mov	ecx, 130				; 00000082H
	lea	esi, DWORD PTR __Tmp$227157[ebp]
	mov	edi, DWORD PTR __Mid$[ebp]
	rep movsd
$LN66@Median:
	mov	esi, DWORD PTR $T227169[ebp]
	sub	esp, 520				; 00000208H
	mov	ecx, 130				; 00000082H
	mov	edi, esp
	rep movsd
	mov	esi, DWORD PTR __Mid$[ebp]
	sub	esp, 520				; 00000208H
	mov	ecx, 130				; 00000082H
	mov	edi, esp
	rep movsd
	call	DWORD PTR __Pred$[ebp]
	add	esp, 1040				; 00000410H
	movzx	eax, al
	test	eax, eax
	je	SHORT $LN68@Median
	mov	ecx, DWORD PTR __Mid$[ebp]
	cmp	ecx, DWORD PTR $T227169[ebp]
	je	SHORT $LN68@Median
	mov	esi, DWORD PTR __Mid$[ebp]
	mov	ecx, 130				; 00000082H
	lea	edi, DWORD PTR __Tmp$227164[ebp]
	rep movsd
	mov	esi, DWORD PTR $T227169[ebp]
	mov	ecx, 130				; 00000082H
	mov	edi, DWORD PTR __Mid$[ebp]
	rep movsd
	mov	ecx, 130				; 00000082H
	lea	esi, DWORD PTR __Tmp$227164[ebp]
	mov	edi, DWORD PTR $T227169[ebp]
	rep movsd
$LN68@Median:

; 3176 : 		}
; 3177 : 	else

	jmp	$LN3@Median
$LN2@Median:

; 3178 : 		std::_Med3(_First, _Mid, _Last, _Pred);

	mov	esi, DWORD PTR __First$[ebp]
	sub	esp, 520				; 00000208H
	mov	ecx, 130				; 00000082H
	mov	edi, esp
	rep movsd
	mov	esi, DWORD PTR __Mid$[ebp]
	sub	esp, 520				; 00000208H
	mov	ecx, 130				; 00000082H
	mov	edi, esp
	rep movsd
	call	DWORD PTR __Pred$[ebp]
	add	esp, 1040				; 00000410H
	movzx	edx, al
	test	edx, edx
	je	SHORT $LN87@Median
	mov	eax, DWORD PTR __Mid$[ebp]
	cmp	eax, DWORD PTR __First$[ebp]
	je	SHORT $LN87@Median
	mov	esi, DWORD PTR __Mid$[ebp]
	mov	ecx, 130				; 00000082H
	lea	edi, DWORD PTR __Tmp$227228[ebp]
	rep movsd
	mov	esi, DWORD PTR __First$[ebp]
	mov	ecx, 130				; 00000082H
	mov	edi, DWORD PTR __Mid$[ebp]
	rep movsd
	mov	ecx, 130				; 00000082H
	lea	esi, DWORD PTR __Tmp$227228[ebp]
	mov	edi, DWORD PTR __First$[ebp]
	rep movsd
$LN87@Median:
	mov	esi, DWORD PTR __Mid$[ebp]
	sub	esp, 520				; 00000208H
	mov	ecx, 130				; 00000082H
	mov	edi, esp
	rep movsd
	mov	esi, DWORD PTR __Last$[ebp]
	sub	esp, 520				; 00000208H
	mov	ecx, 130				; 00000082H
	mov	edi, esp
	rep movsd
	call	DWORD PTR __Pred$[ebp]
	add	esp, 1040				; 00000410H
	movzx	ecx, al
	test	ecx, ecx
	je	SHORT $LN86@Median
	mov	edx, DWORD PTR __Last$[ebp]
	cmp	edx, DWORD PTR __Mid$[ebp]
	je	SHORT $LN86@Median
	mov	esi, DWORD PTR __Last$[ebp]
	mov	ecx, 130				; 00000082H
	lea	edi, DWORD PTR __Tmp$227233[ebp]
	rep movsd
	mov	esi, DWORD PTR __Mid$[ebp]
	mov	ecx, 130				; 00000082H
	mov	edi, DWORD PTR __Last$[ebp]
	rep movsd
	mov	ecx, 130				; 00000082H
	lea	esi, DWORD PTR __Tmp$227233[ebp]
	mov	edi, DWORD PTR __Mid$[ebp]
	rep movsd
$LN86@Median:
	mov	esi, DWORD PTR __First$[ebp]
	sub	esp, 520				; 00000208H
	mov	ecx, 130				; 00000082H
	mov	edi, esp
	rep movsd
	mov	esi, DWORD PTR __Mid$[ebp]
	sub	esp, 520				; 00000208H
	mov	ecx, 130				; 00000082H
	mov	edi, esp
	rep movsd
	call	DWORD PTR __Pred$[ebp]
	add	esp, 1040				; 00000410H
	movzx	eax, al
	test	eax, eax
	je	SHORT $LN3@Median
	mov	ecx, DWORD PTR __Mid$[ebp]
	cmp	ecx, DWORD PTR __First$[ebp]
	je	SHORT $LN3@Median
	mov	esi, DWORD PTR __Mid$[ebp]
	mov	ecx, 130				; 00000082H
	lea	edi, DWORD PTR __Tmp$227240[ebp]
	rep movsd
	mov	esi, DWORD PTR __First$[ebp]
	mov	ecx, 130				; 00000082H
	mov	edi, DWORD PTR __Mid$[ebp]
	rep movsd
	mov	ecx, 130				; 00000082H
	lea	esi, DWORD PTR __Tmp$227240[ebp]
	mov	edi, DWORD PTR __First$[ebp]
	rep movsd
$LN3@Median:

; 3179 : 	}

	pop	edi
	pop	esi
	mov	ecx, DWORD PTR __$ArrayPad$226923[ebp]
	xor	ecx, ebp
	call	@__security_check_cookie@4
	mov	esp, ebp
	pop	ebp
	ret	0
??$_Median@PAUCounsel@CvAdvisorCounsel@@P6A_NU12@0@Z@std@@YAXPAUCounsel@CvAdvisorCounsel@@00P6A_NU12@1@Z@Z ENDP ; std::_Median<CvAdvisorCounsel::Counsel *,bool (__cdecl*)(CvAdvisorCounsel::Counsel,CvAdvisorCounsel::Counsel)>
; Function compile flags: /Odtp
_TEXT	ENDS
;	COMDAT ??$_Sort_heap@PAUCounsel@CvAdvisorCounsel@@P6A_NU12@0@Z@std@@YAXPAUCounsel@CvAdvisorCounsel@@0P6A_NU12@1@Z@Z
_TEXT	SEGMENT
$T227285 = -520						; size = 520
__First$ = 8						; size = 4
__Last$ = 12						; size = 4
__Pred$ = 16						; size = 4
??$_Sort_heap@PAUCounsel@CvAdvisorCounsel@@P6A_NU12@0@Z@std@@YAXPAUCounsel@CvAdvisorCounsel@@0P6A_NU12@1@Z@Z PROC ; std::_Sort_heap<CvAdvisorCounsel::Counsel *,bool (__cdecl*)(CvAdvisorCounsel::Counsel,CvAdvisorCounsel::Counsel)>, COMDAT

; 2232 : 	{	// order heap by repeatedly popping, using _Pred

	push	ebp
	mov	ebp, esp
	sub	esp, 548				; 00000224H
	push	esi
	push	edi

; 2233 : 	for (; 1 < _Last - _First; --_Last)

	jmp	SHORT $LN3@Sort_heap
$LN2@Sort_heap:
	mov	eax, DWORD PTR __Last$[ebp]
	sub	eax, 520				; 00000208H
	mov	DWORD PTR __Last$[ebp], eax
$LN3@Sort_heap:
	mov	eax, DWORD PTR __Last$[ebp]
	sub	eax, DWORD PTR __First$[ebp]
	cdq
	mov	ecx, 520				; 00000208H
	idiv	ecx
	cmp	eax, 1
	jle	SHORT $LN4@Sort_heap

; 2234 : 		std::pop_heap(_First, _Last, _Pred);

	mov	eax, DWORD PTR __Last$[ebp]
	sub	eax, DWORD PTR __First$[ebp]
	cdq
	mov	ecx, 520				; 00000208H
	idiv	ecx
	cmp	eax, 1
	jle	SHORT $LN7@Sort_heap
	mov	esi, DWORD PTR __Last$[ebp]
	sub	esi, 520				; 00000208H
	mov	ecx, 130				; 00000082H
	lea	edi, DWORD PTR $T227285[ebp]
	rep movsd
	mov	esi, DWORD PTR __First$[ebp]
	mov	edi, DWORD PTR __Last$[ebp]
	sub	edi, 520				; 00000208H
	mov	ecx, 130				; 00000082H
	rep movsd
	mov	edx, DWORD PTR __Pred$[ebp]
	push	edx
	sub	esp, 520				; 00000208H
	mov	ecx, 130				; 00000082H
	lea	esi, DWORD PTR $T227285[ebp]
	mov	edi, esp
	rep movsd
	mov	eax, DWORD PTR __Last$[ebp]
	sub	eax, 520				; 00000208H
	sub	eax, DWORD PTR __First$[ebp]
	cdq
	mov	ecx, 520				; 00000208H
	idiv	ecx
	push	eax
	push	0
	mov	edx, DWORD PTR __First$[ebp]
	push	edx
	call	??$_Adjust_heap@PAUCounsel@CvAdvisorCounsel@@HU12@P6A_NU12@0@Z@std@@YAXPAUCounsel@CvAdvisorCounsel@@HHU12@P6A_N11@Z@Z ; std::_Adjust_heap<CvAdvisorCounsel::Counsel *,int,CvAdvisorCounsel::Counsel,bool (__cdecl*)(CvAdvisorCounsel::Counsel,CvAdvisorCounsel::Counsel)>
	add	esp, 536				; 00000218H
$LN7@Sort_heap:
	jmp	$LN2@Sort_heap
$LN4@Sort_heap:

; 2235 : 	}

	pop	edi
	pop	esi
	mov	esp, ebp
	pop	ebp
	ret	0
??$_Sort_heap@PAUCounsel@CvAdvisorCounsel@@P6A_NU12@0@Z@std@@YAXPAUCounsel@CvAdvisorCounsel@@0P6A_NU12@1@Z@Z ENDP ; std::_Sort_heap<CvAdvisorCounsel::Counsel *,bool (__cdecl*)(CvAdvisorCounsel::Counsel,CvAdvisorCounsel::Counsel)>
_TEXT	ENDS
PUBLIC	__$ArrayPad$
; Function compile flags: /Odtp
;	COMDAT ??$_Insertion_sort1@PAUCounsel@CvAdvisorCounsel@@P6A_NU12@0@ZU12@@std@@YAXPAUCounsel@CvAdvisorCounsel@@0P6A_NU12@1@Z0@Z
_TEXT	SEGMENT
$T227333 = -572						; size = 4
$T227332 = -568						; size = 4
$T227316 = -562						; size = 1
$T227315 = -561						; size = 1
$T227314 = -560						; size = 4
$T227313 = -556						; size = 4
$T227312 = -552						; size = 4
__Cat$227324 = -544					; size = 1
$T227321 = -543						; size = 1
$T227320 = -542						; size = 1
$T227319 = -541						; size = 1
__First1$224092 = -540					; size = 4
__Val$224082 = -536					; size = 520
__$ArrayPad$ = -12					; size = 4
__Next1$224081 = -8					; size = 4
__Next$224077 = -4					; size = 4
__First$ = 8						; size = 4
__Last$ = 12						; size = 4
__Pred$ = 16						; size = 4
___formal$ = 20						; size = 4
??$_Insertion_sort1@PAUCounsel@CvAdvisorCounsel@@P6A_NU12@0@ZU12@@std@@YAXPAUCounsel@CvAdvisorCounsel@@0P6A_NU12@1@Z0@Z PROC ; std::_Insertion_sort1<CvAdvisorCounsel::Counsel *,bool (__cdecl*)(CvAdvisorCounsel::Counsel,CvAdvisorCounsel::Counsel),CvAdvisorCounsel::Counsel>, COMDAT

; 3123 : 	{	// insertion sort [_First, _Last), using _Pred

	push	ebp
	mov	ebp, esp
	sub	esp, 572				; 0000023cH
	mov	eax, DWORD PTR ___security_cookie
	xor	eax, ebp
	mov	DWORD PTR __$ArrayPad$[ebp], eax
	push	esi
	push	edi

; 3124 : 	if (_First != _Last)

	mov	eax, DWORD PTR __First$[ebp]
	cmp	eax, DWORD PTR __Last$[ebp]
	je	$LN9@Insertion_

; 3125 : 		for (_BidIt _Next = _First; ++_Next != _Last; )

	mov	ecx, DWORD PTR __First$[ebp]
	mov	DWORD PTR __Next$224077[ebp], ecx
$LN7@Insertion_:
	mov	edx, DWORD PTR __Next$224077[ebp]
	add	edx, 520				; 00000208H
	mov	DWORD PTR __Next$224077[ebp], edx
	mov	eax, DWORD PTR __Next$224077[ebp]
	cmp	eax, DWORD PTR __Last$[ebp]
	je	$LN9@Insertion_

; 3126 : 			{	// order next element
; 3127 : 			_BidIt _Next1 = _Next;

	mov	ecx, DWORD PTR __Next$224077[ebp]
	mov	DWORD PTR __Next1$224081[ebp], ecx

; 3128 : 			_Ty _Val = *_Next;

	mov	esi, DWORD PTR __Next$224077[ebp]
	mov	ecx, 130				; 00000082H
	lea	edi, DWORD PTR __Val$224082[ebp]
	rep movsd

; 3129 : 
; 3130 : 			if (_DEBUG_LT_PRED(_Pred, _Val, *_First))

	mov	esi, DWORD PTR __First$[ebp]
	sub	esp, 520				; 00000208H
	mov	ecx, 130				; 00000082H
	mov	edi, esp
	rep movsd
	sub	esp, 520				; 00000208H
	mov	ecx, 130				; 00000082H
	lea	esi, DWORD PTR __Val$224082[ebp]
	mov	edi, esp
	rep movsd
	call	DWORD PTR __Pred$[ebp]
	add	esp, 1040				; 00000410H
	movzx	edx, al
	test	edx, edx
	je	$LN5@Insertion_

; 3131 : 				{	// found new earliest element, move to front
; 3132 : 				_STDEXT unchecked_copy_backward(_First, _Next, ++_Next1);

	mov	eax, DWORD PTR __Next1$224081[ebp]
	add	eax, 520				; 00000208H
	mov	DWORD PTR __Next1$224081[ebp], eax
	mov	ecx, DWORD PTR __Next1$224081[ebp]
	mov	DWORD PTR $T227333[ebp], ecx
	mov	edx, DWORD PTR __First$[ebp]
	mov	DWORD PTR $T227332[ebp], edx
	xor	eax, eax
	mov	BYTE PTR $T227319[ebp], al
	mov	cl, BYTE PTR __Cat$227324[ebp]
	mov	BYTE PTR $T227320[ebp], cl
	mov	dl, BYTE PTR $T227319[ebp]
	mov	BYTE PTR $T227316[ebp], dl
	mov	al, BYTE PTR $T227321[ebp]
	mov	BYTE PTR $T227315[ebp], al
	mov	ecx, DWORD PTR $T227333[ebp]
	mov	DWORD PTR $T227314[ebp], ecx
	mov	edx, DWORD PTR __Next$224077[ebp]
	mov	DWORD PTR $T227313[ebp], edx
	mov	eax, DWORD PTR $T227332[ebp]
	mov	DWORD PTR $T227312[ebp], eax
$LN18@Insertion_:
	mov	ecx, DWORD PTR $T227312[ebp]
	cmp	ecx, DWORD PTR $T227313[ebp]
	je	SHORT $LN11@Insertion_
	mov	edx, DWORD PTR $T227313[ebp]
	sub	edx, 520				; 00000208H
	mov	DWORD PTR $T227313[ebp], edx
	mov	eax, DWORD PTR $T227314[ebp]
	sub	eax, 520				; 00000208H
	mov	DWORD PTR $T227314[ebp], eax
	mov	esi, DWORD PTR $T227313[ebp]
	mov	ecx, 130				; 00000082H
	mov	edi, DWORD PTR $T227314[ebp]
	rep movsd
	jmp	SHORT $LN18@Insertion_
$LN11@Insertion_:

; 3133 : 				*_First = _Val;

	mov	ecx, 130				; 00000082H
	lea	esi, DWORD PTR __Val$224082[ebp]
	mov	edi, DWORD PTR __First$[ebp]
	rep movsd

; 3134 : 				}
; 3135 : 			else

	jmp	$LN4@Insertion_
$LN5@Insertion_:

; 3136 : 				{	// look for insertion point after first
; 3137 : 				for (_BidIt _First1 = _Next1;

	mov	ecx, DWORD PTR __Next1$224081[ebp]
	mov	DWORD PTR __First1$224092[ebp], ecx

; 3138 : 					_DEBUG_LT_PRED(_Pred, _Val, *--_First1);
; 3139 : 					_Next1 = _First1)

	jmp	SHORT $LN3@Insertion_
$LN2@Insertion_:
	mov	edx, DWORD PTR __First1$224092[ebp]
	mov	DWORD PTR __Next1$224081[ebp], edx
$LN3@Insertion_:
	mov	eax, DWORD PTR __First1$224092[ebp]
	sub	eax, 520				; 00000208H
	mov	DWORD PTR __First1$224092[ebp], eax
	mov	esi, DWORD PTR __First1$224092[ebp]
	sub	esp, 520				; 00000208H
	mov	ecx, 130				; 00000082H
	mov	edi, esp
	rep movsd
	sub	esp, 520				; 00000208H
	mov	ecx, 130				; 00000082H
	lea	esi, DWORD PTR __Val$224082[ebp]
	mov	edi, esp
	rep movsd
	call	DWORD PTR __Pred$[ebp]
	add	esp, 1040				; 00000410H
	movzx	ecx, al
	test	ecx, ecx
	je	SHORT $LN1@Insertion_

; 3140 : 					*_Next1 = *_First1;	// move hole down

	mov	esi, DWORD PTR __First1$224092[ebp]
	mov	ecx, 130				; 00000082H
	mov	edi, DWORD PTR __Next1$224081[ebp]
	rep movsd
	jmp	SHORT $LN2@Insertion_
$LN1@Insertion_:

; 3141 : 				*_Next1 = _Val;	// insert element in hole

	mov	ecx, 130				; 00000082H
	lea	esi, DWORD PTR __Val$224082[ebp]
	mov	edi, DWORD PTR __Next1$224081[ebp]
	rep movsd
$LN4@Insertion_:

; 3142 : 				}
; 3143 : 			}

	jmp	$LN7@Insertion_
$LN9@Insertion_:

; 3144 : 	}

	pop	edi
	pop	esi
	mov	ecx, DWORD PTR __$ArrayPad$[ebp]
	xor	ecx, ebp
	call	@__security_check_cookie@4
	mov	esp, ebp
	pop	ebp
	ret	0
??$_Insertion_sort1@PAUCounsel@CvAdvisorCounsel@@P6A_NU12@0@ZU12@@std@@YAXPAUCounsel@CvAdvisorCounsel@@0P6A_NU12@1@Z0@Z ENDP ; std::_Insertion_sort1<CvAdvisorCounsel::Counsel *,bool (__cdecl*)(CvAdvisorCounsel::Counsel,CvAdvisorCounsel::Counsel),CvAdvisorCounsel::Counsel>
; Function compile flags: /Odtp
_TEXT	ENDS
;	COMDAT ??$_Adjust_heap@PAUCounsel@CvAdvisorCounsel@@HU12@P6A_NU12@0@Z@std@@YAXPAUCounsel@CvAdvisorCounsel@@HHU12@P6A_N11@Z@Z
_TEXT	SEGMENT
$T227346 = -24						; size = 4
__Idx$227342 = -20					; size = 4
__Idx$ = -12						; size = 4
__Top$ = -8						; size = 4
__First$ = 8						; size = 4
__Hole$ = 12						; size = 4
__Bottom$ = 16						; size = 4
__Val$ = 20						; size = 520
__Pred$ = 540						; size = 4
??$_Adjust_heap@PAUCounsel@CvAdvisorCounsel@@HU12@P6A_NU12@0@Z@std@@YAXPAUCounsel@CvAdvisorCounsel@@HHU12@P6A_N11@Z@Z PROC ; std::_Adjust_heap<CvAdvisorCounsel::Counsel *,int,CvAdvisorCounsel::Counsel,bool (__cdecl*)(CvAdvisorCounsel::Counsel,CvAdvisorCounsel::Counsel)>, COMDAT

; 2108 : 	{	// percolate _Hole to _Bottom, then push _Val, using _Pred

	push	ebp
	mov	ebp, esp
	sub	esp, 24					; 00000018H
	push	esi
	push	edi

; 2109 : 	_Diff _Top = _Hole;

	mov	eax, DWORD PTR __Hole$[ebp]
	mov	DWORD PTR __Top$[ebp], eax

; 2110 : 	_Diff _Idx = 2 * _Hole + 2;

	mov	ecx, DWORD PTR __Hole$[ebp]
	lea	edx, DWORD PTR [ecx+ecx+2]
	mov	DWORD PTR __Idx$[ebp], edx

; 2111 : 
; 2112 : 	for (; _Idx < _Bottom; _Idx = 2 * _Idx + 2)

	jmp	SHORT $LN5@Adjust_hea
$LN4@Adjust_hea:
	mov	eax, DWORD PTR __Idx$[ebp]
	lea	ecx, DWORD PTR [eax+eax+2]
	mov	DWORD PTR __Idx$[ebp], ecx
$LN5@Adjust_hea:
	mov	edx, DWORD PTR __Idx$[ebp]
	cmp	edx, DWORD PTR __Bottom$[ebp]
	jge	SHORT $LN3@Adjust_hea

; 2113 : 		{	// move _Hole down to larger child
; 2114 : 		if (_DEBUG_LT_PRED(_Pred, *(_First + _Idx), *(_First + (_Idx - 1))))

	mov	esi, DWORD PTR __Idx$[ebp]
	sub	esi, 1
	imul	esi, 520				; 00000208H
	add	esi, DWORD PTR __First$[ebp]
	sub	esp, 520				; 00000208H
	mov	ecx, 130				; 00000082H
	mov	edi, esp
	rep movsd
	mov	esi, DWORD PTR __Idx$[ebp]
	imul	esi, 520				; 00000208H
	add	esi, DWORD PTR __First$[ebp]
	sub	esp, 520				; 00000208H
	mov	ecx, 130				; 00000082H
	mov	edi, esp
	rep movsd
	call	DWORD PTR __Pred$[ebp]
	add	esp, 1040				; 00000410H
	movzx	eax, al
	test	eax, eax
	je	SHORT $LN2@Adjust_hea

; 2115 : 			--_Idx;

	mov	ecx, DWORD PTR __Idx$[ebp]
	sub	ecx, 1
	mov	DWORD PTR __Idx$[ebp], ecx
$LN2@Adjust_hea:

; 2116 : 		*(_First + _Hole) = *(_First + _Idx), _Hole = _Idx;

	mov	esi, DWORD PTR __Idx$[ebp]
	imul	esi, 520				; 00000208H
	add	esi, DWORD PTR __First$[ebp]
	mov	edi, DWORD PTR __Hole$[ebp]
	imul	edi, 520				; 00000208H
	add	edi, DWORD PTR __First$[ebp]
	mov	ecx, 130				; 00000082H
	rep movsd
	mov	edx, DWORD PTR __Idx$[ebp]
	mov	DWORD PTR __Hole$[ebp], edx

; 2117 : 		}

	jmp	$LN4@Adjust_hea
$LN3@Adjust_hea:

; 2118 : 
; 2119 : 	if (_Idx == _Bottom)

	mov	eax, DWORD PTR __Idx$[ebp]
	cmp	eax, DWORD PTR __Bottom$[ebp]
	jne	SHORT $LN1@Adjust_hea

; 2120 : 		{	// only child at bottom, move _Hole down to it
; 2121 : 		*(_First + _Hole) = *(_First + (_Bottom - 1));

	mov	esi, DWORD PTR __Bottom$[ebp]
	sub	esi, 1
	imul	esi, 520				; 00000208H
	add	esi, DWORD PTR __First$[ebp]
	mov	edi, DWORD PTR __Hole$[ebp]
	imul	edi, 520				; 00000208H
	add	edi, DWORD PTR __First$[ebp]
	mov	ecx, 130				; 00000082H
	rep movsd

; 2122 : 		_Hole = _Bottom - 1;

	mov	ecx, DWORD PTR __Bottom$[ebp]
	sub	ecx, 1
	mov	DWORD PTR __Hole$[ebp], ecx
$LN1@Adjust_hea:

; 2123 : 		}
; 2124 : 	std::_Push_heap(_First, _Hole, _Top, _Val, _Pred);

	mov	edx, DWORD PTR __Hole$[ebp]
	mov	DWORD PTR $T227346[ebp], edx
	mov	eax, DWORD PTR $T227346[ebp]
	sub	eax, 1
	cdq
	sub	eax, edx
	sar	eax, 1
	mov	DWORD PTR __Idx$227342[ebp], eax
	jmp	SHORT $LN10@Adjust_hea
$LN9@Adjust_hea:
	mov	eax, DWORD PTR $T227346[ebp]
	sub	eax, 1
	cdq
	sub	eax, edx
	sar	eax, 1
	mov	DWORD PTR __Idx$227342[ebp], eax
$LN10@Adjust_hea:
	mov	eax, DWORD PTR __Top$[ebp]
	cmp	eax, DWORD PTR $T227346[ebp]
	jge	SHORT $LN8@Adjust_hea
	sub	esp, 520				; 00000208H
	mov	ecx, 130				; 00000082H
	lea	esi, DWORD PTR __Val$[ebp]
	mov	edi, esp
	rep movsd
	mov	esi, DWORD PTR __Idx$227342[ebp]
	imul	esi, 520				; 00000208H
	add	esi, DWORD PTR __First$[ebp]
	sub	esp, 520				; 00000208H
	mov	ecx, 130				; 00000082H
	mov	edi, esp
	rep movsd
	call	DWORD PTR __Pred$[ebp]
	add	esp, 1040				; 00000410H
	movzx	ecx, al
	test	ecx, ecx
	je	SHORT $LN8@Adjust_hea
	mov	esi, DWORD PTR __Idx$227342[ebp]
	imul	esi, 520				; 00000208H
	add	esi, DWORD PTR __First$[ebp]
	mov	edi, DWORD PTR $T227346[ebp]
	imul	edi, 520				; 00000208H
	add	edi, DWORD PTR __First$[ebp]
	mov	ecx, 130				; 00000082H
	rep movsd
	mov	edx, DWORD PTR __Idx$227342[ebp]
	mov	DWORD PTR $T227346[ebp], edx
	jmp	SHORT $LN9@Adjust_hea
$LN8@Adjust_hea:
	mov	edi, DWORD PTR $T227346[ebp]
	imul	edi, 520				; 00000208H
	add	edi, DWORD PTR __First$[ebp]
	mov	ecx, 130				; 00000082H
	lea	esi, DWORD PTR __Val$[ebp]
	rep movsd

; 2125 : 	}

	pop	edi
	pop	esi
	mov	esp, ebp
	pop	ebp
	ret	0
??$_Adjust_heap@PAUCounsel@CvAdvisorCounsel@@HU12@P6A_NU12@0@Z@std@@YAXPAUCounsel@CvAdvisorCounsel@@HHU12@P6A_N11@Z@Z ENDP ; std::_Adjust_heap<CvAdvisorCounsel::Counsel *,int,CvAdvisorCounsel::Counsel,bool (__cdecl*)(CvAdvisorCounsel::Counsel,CvAdvisorCounsel::Counsel)>
; Function compile flags: /Odtp
; File d:\sources\lekmod_git\checkout\lekmod_dll\cvgamecoredllutil\include\cvstring.h
_TEXT	ENDS
;	COMDAT ??1CvString@@QAE@XZ
_TEXT	SEGMENT
_this$ = -4						; size = 4
??1CvString@@QAE@XZ PROC				; CvString::~CvString, COMDAT
; _this$ = ecx

; 28   : 	~CvString() {}

	push	ebp
	mov	ebp, esp
	push	ecx
	mov	DWORD PTR _this$[ebp], ecx
	mov	ecx, DWORD PTR _this$[ebp]
	call	DWORD PTR __imp_??1?$basic_string@DU?$char_traits@D@std@@V?$allocator@D@2@@std@@QAE@XZ
	mov	esp, ebp
	pop	ebp
	ret	0
??1CvString@@QAE@XZ ENDP				; CvString::~CvString
_TEXT	ENDS
EXTRN	?sr_TeamTypes@CvPreGame@@3ABV?$vector@W4TeamTypes@@V?$allocator@W4TeamTypes@@@std@@@std@@B:DWORD ; CvPreGame::sr_TeamTypes
; Function compile flags: /Odtp
; File d:\sources\lekmod_git\checkout\lekmod_dll\cvgamecoredll_expansion2\cvpregame.h
;	COMDAT ?teamType@CvPreGame@@YA?AW4TeamTypes@@W4PlayerTypes@@@Z
_TEXT	SEGMENT
_p$ = 8							; size = 4
?teamType@CvPreGame@@YA?AW4TeamTypes@@W4PlayerTypes@@@Z PROC ; CvPreGame::teamType, COMDAT

; 298  : {

	push	ebp
	mov	ebp, esp

; 299  : 	if(p >= 0 && p < MAX_PLAYERS)

	cmp	DWORD PTR _p$[ebp], 0
	jl	SHORT $LN1@teamType
	cmp	DWORD PTR _p$[ebp], 64			; 00000040H
	jge	SHORT $LN1@teamType

; 300  : 		return sr_TeamTypes[p];

	mov	eax, DWORD PTR ?sr_TeamTypes@CvPreGame@@3ABV?$vector@W4TeamTypes@@V?$allocator@W4TeamTypes@@@std@@@std@@B ; CvPreGame::sr_TeamTypes
	mov	ecx, DWORD PTR [eax+4]
	mov	edx, DWORD PTR _p$[ebp]
	mov	eax, DWORD PTR [ecx+edx*4]
	jmp	SHORT $LN2@teamType
$LN1@teamType:

; 301  : 	return NO_TEAM;

	or	eax, -1
$LN2@teamType:

; 302  : }

	pop	ebp
	ret	0
?teamType@CvPreGame@@YA?AW4TeamTypes@@W4PlayerTypes@@@Z ENDP ; CvPreGame::teamType
_TEXT	ENDS
END
