; Listing generated by Microsoft (R) Optimizing Compiler Version 15.00.30729.01 

	TITLE	D:\sources\Lekmod_git\checkout\LEKMOD_DLL\CvGameCoreDLL_Expansion2\CvAIOperation.cpp
	.686P
	.XMM
	include listing.inc
	.model	flat

INCLUDELIB MSVCRT
INCLUDELIB OLDNAMES

PUBLIC	?NO_QUEST_DATA@CvMinorCivQuest@@2HB		; CvMinorCivQuest::NO_QUEST_DATA
PUBLIC	?NO_TURN@CvMinorCivQuest@@2HB			; CvMinorCivQuest::NO_TURN
;	COMDAT ?NO_TURN@CvMinorCivQuest@@2HB
CONST	SEGMENT
?NO_TURN@CvMinorCivQuest@@2HB DD 0ffffffffH		; CvMinorCivQuest::NO_TURN
CONST	ENDS
;	COMDAT ?NO_QUEST_DATA@CvMinorCivQuest@@2HB
CONST	SEGMENT
?NO_QUEST_DATA@CvMinorCivQuest@@2HB DD 0ffffffffH	; CvMinorCivQuest::NO_QUEST_DATA
CONST	ENDS
PUBLIC	??1?$vector@UOperationSlot@@V?$allocator@UOperationSlot@@@std@@@std@@QAE@XZ ; std::vector<OperationSlot,std::allocator<OperationSlot> >::~vector<OperationSlot,std::allocator<OperationSlot> >
PUBLIC	??1?$_Vector_val@UOperationSlot@@V?$allocator@UOperationSlot@@@std@@@std@@QAE@XZ ; std::_Vector_val<OperationSlot,std::allocator<OperationSlot> >::~_Vector_val<OperationSlot,std::allocator<OperationSlot> >
PUBLIC	??1?$vector@HV?$allocator@H@std@@@std@@QAE@XZ	; std::vector<int,std::allocator<int> >::~vector<int,std::allocator<int> >
PUBLIC	??1?$_Vector_val@HV?$allocator@H@std@@@std@@QAE@XZ ; std::_Vector_val<int,std::allocator<int> >::~_Vector_val<int,std::allocator<int> >
PUBLIC	?Reset@CvAIOperation@@UAEXXZ			; CvAIOperation::Reset
PUBLIC	?_Buy@?$vector@UOperationSlot@@V?$allocator@UOperationSlot@@@std@@@std@@IAE_NI@Z ; std::vector<OperationSlot,std::allocator<OperationSlot> >::_Buy
PUBLIC	?_Buy@?$vector@HV?$allocator@H@std@@@std@@IAE_NI@Z ; std::vector<int,std::allocator<int> >::_Buy
PUBLIC	??_7CvAIOperation@@6B@				; CvAIOperation::`vftable'
PUBLIC	??0CvAIOperation@@QAE@XZ			; CvAIOperation::CvAIOperation
PUBLIC	?Init@CvAIOperation@@UAEXHW4PlayerTypes@@0HPAVCvCity@@1@Z ; CvAIOperation::Init
PUBLIC	?Uninit@CvAIOperation@@UAEXXZ			; CvAIOperation::Uninit
PUBLIC	?GetOperationType@CvAIOperation@@UBEHXZ		; CvAIOperation::GetOperationType
PUBLIC	?CanTacticalAIInterruptOperation@CvAIOperation@@UBE_NXZ ; CvAIOperation::CanTacticalAIInterruptOperation
PUBLIC	?NeedToCheckPathToTarget@CvAIOperation@@UBE_NXZ	; CvAIOperation::NeedToCheckPathToTarget
PUBLIC	?GetMaximumRecruitTurns@CvAIOperation@@UBEHXZ	; CvAIOperation::GetMaximumRecruitTurns
PUBLIC	?GetFormation@CvAIOperation@@UBE?AW4MultiunitFormationTypes@@XZ ; CvAIOperation::GetFormation
PUBLIC	?GetMoveType@CvAIOperation@@UBE?AW4AIOperationMovementType@@XZ ; CvAIOperation::GetMoveType
PUBLIC	?IsAllNavalOperation@CvAIOperation@@UBE_NXZ	; CvAIOperation::IsAllNavalOperation
PUBLIC	?IsMixedLandNavalOperation@CvAIOperation@@UBE_NXZ ; CvAIOperation::IsMixedLandNavalOperation
PUBLIC	?GetGatherTolerance@CvAIOperation@@UBEHPAVCvArmyAI@@PAVCvPlot@@@Z ; CvAIOperation::GetGatherTolerance
PUBLIC	?GetOperationStartCity@CvAIOperation@@UBEPAVCvCity@@XZ ; CvAIOperation::GetOperationStartCity
PUBLIC	?CheckOnTarget@CvAIOperation@@UAE_NXZ		; CvAIOperation::CheckOnTarget
PUBLIC	?ArmyInPosition@CvAIOperation@@UAE_NPAVCvArmyAI@@@Z ; CvAIOperation::ArmyInPosition
PUBLIC	?ArmyMoved@CvAIOperation@@UAE_NPAVCvArmyAI@@@Z	; CvAIOperation::ArmyMoved
PUBLIC	?PercentFromMusterPointToTarget@CvAIOperation@@UAEHXZ ; CvAIOperation::PercentFromMusterPointToTarget
PUBLIC	?ShouldAbort@CvAIOperation@@UAE_NXZ		; CvAIOperation::ShouldAbort
PUBLIC	?SetToAbort@CvAIOperation@@UAEXW4AIOperationAbortReason@@@Z ; CvAIOperation::SetToAbort
PUBLIC	?Kill@CvAIOperation@@UAEXW4AIOperationAbortReason@@@Z ; CvAIOperation::Kill
PUBLIC	?DoTurn@CvAIOperation@@UAEXXZ			; CvAIOperation::DoTurn
PUBLIC	?DoDelayedDeath@CvAIOperation@@UAE_NXZ		; CvAIOperation::DoDelayedDeath
PUBLIC	?BuildListOfUnitsWeStillNeedToBuild@CvAIOperation@@UAEXXZ ; CvAIOperation::BuildListOfUnitsWeStillNeedToBuild
PUBLIC	?PeekAtNextUnitToBuild@CvAIOperation@@UAE?AUOperationSlot@@H@Z ; CvAIOperation::PeekAtNextUnitToBuild
PUBLIC	?CommitToBuildNextUnit@CvAIOperation@@UAE?AUOperationSlot@@HHPAVCvCity@@@Z ; CvAIOperation::CommitToBuildNextUnit
PUBLIC	?UncommitToBuild@CvAIOperation@@UAE_NUOperationSlot@@@Z ; CvAIOperation::UncommitToBuild
PUBLIC	?FinishedBuilding@CvAIOperation@@UAE_NUOperationSlot@@@Z ; CvAIOperation::FinishedBuilding
PUBLIC	?GrabUnitsFromTheReserves@CvAIOperation@@UAE_NPAVCvPlot@@0@Z ; CvAIOperation::GrabUnitsFromTheReserves
PUBLIC	?UnitWasRemoved@CvAIOperation@@UAEXHH@Z		; CvAIOperation::UnitWasRemoved
PUBLIC	?ComputeCenterOfMassForTurn@CvAIOperation@@UBEPAVCvPlot@@PAVCvArmyAI@@PAPAV2@@Z ; CvAIOperation::ComputeCenterOfMassForTurn
PUBLIC	?Read@CvAIOperation@@UAEXAAVFDataStream@@@Z	; CvAIOperation::Read
PUBLIC	?Write@CvAIOperation@@UBEXAAVFDataStream@@@Z	; CvAIOperation::Write
PUBLIC	?GetOperationName@CvAIOperation@@MBE?AVCvString@@XZ ; CvAIOperation::GetOperationName
PUBLIC	?SelectInitialMusterPoint@CvAIOperation@@MAEPAVCvPlot@@PAVCvArmyAI@@@Z ; CvAIOperation::SelectInitialMusterPoint
PUBLIC	?FindBestFitReserveUnit@CvAIOperation@@MAE_NUOperationSlot@@PAVCvPlot@@1PA_N@Z ; CvAIOperation::FindBestFitReserveUnit
EXTRN	___security_cookie:DWORD
EXTRN	___CxxFrameHandler3:PROC
EXTRN	@__security_check_cookie@4:PROC
EXTRN	__CxxThrowException@8:PROC
EXTRN	??_ECvAIOperation@@UAEPAXI@Z:PROC		; CvAIOperation::`vector deleting destructor'
;	COMDAT ??_7CvAIOperation@@6B@
; File c:\program files (x86)\microsoft visual studio 9.0\vc\include\xmemory
CONST	SEGMENT
??_7CvAIOperation@@6B@ DD FLAT:??_ECvAIOperation@@UAEPAXI@Z ; CvAIOperation::`vftable'
	DD	FLAT:?Init@CvAIOperation@@UAEXHW4PlayerTypes@@0HPAVCvCity@@1@Z
	DD	FLAT:?Uninit@CvAIOperation@@UAEXXZ
	DD	FLAT:?Reset@CvAIOperation@@UAEXXZ
	DD	FLAT:?GetOperationType@CvAIOperation@@UBEHXZ
	DD	FLAT:?CanTacticalAIInterruptOperation@CvAIOperation@@UBE_NXZ
	DD	FLAT:?NeedToCheckPathToTarget@CvAIOperation@@UBE_NXZ
	DD	FLAT:?GetMaximumRecruitTurns@CvAIOperation@@UBEHXZ
	DD	FLAT:?GetFormation@CvAIOperation@@UBE?AW4MultiunitFormationTypes@@XZ
	DD	FLAT:?GetMoveType@CvAIOperation@@UBE?AW4AIOperationMovementType@@XZ
	DD	FLAT:?IsAllNavalOperation@CvAIOperation@@UBE_NXZ
	DD	FLAT:?IsMixedLandNavalOperation@CvAIOperation@@UBE_NXZ
	DD	FLAT:?GetGatherTolerance@CvAIOperation@@UBEHPAVCvArmyAI@@PAVCvPlot@@@Z
	DD	FLAT:?GetOperationStartCity@CvAIOperation@@UBEPAVCvCity@@XZ
	DD	FLAT:?CheckOnTarget@CvAIOperation@@UAE_NXZ
	DD	FLAT:?ArmyInPosition@CvAIOperation@@UAE_NPAVCvArmyAI@@@Z
	DD	FLAT:?ArmyMoved@CvAIOperation@@UAE_NPAVCvArmyAI@@@Z
	DD	FLAT:?PercentFromMusterPointToTarget@CvAIOperation@@UAEHXZ
	DD	FLAT:?ShouldAbort@CvAIOperation@@UAE_NXZ
	DD	FLAT:?SetToAbort@CvAIOperation@@UAEXW4AIOperationAbortReason@@@Z
	DD	FLAT:?Kill@CvAIOperation@@UAEXW4AIOperationAbortReason@@@Z
	DD	FLAT:?DoTurn@CvAIOperation@@UAEXXZ
	DD	FLAT:?DoDelayedDeath@CvAIOperation@@UAE_NXZ
	DD	FLAT:?BuildListOfUnitsWeStillNeedToBuild@CvAIOperation@@UAEXXZ
	DD	FLAT:?PeekAtNextUnitToBuild@CvAIOperation@@UAE?AUOperationSlot@@H@Z
	DD	FLAT:?CommitToBuildNextUnit@CvAIOperation@@UAE?AUOperationSlot@@HHPAVCvCity@@@Z
	DD	FLAT:?UncommitToBuild@CvAIOperation@@UAE_NUOperationSlot@@@Z
	DD	FLAT:?FinishedBuilding@CvAIOperation@@UAE_NUOperationSlot@@@Z
	DD	FLAT:?GrabUnitsFromTheReserves@CvAIOperation@@UAE_NPAVCvPlot@@0@Z
	DD	FLAT:?UnitWasRemoved@CvAIOperation@@UAEXHH@Z
	DD	FLAT:?ComputeCenterOfMassForTurn@CvAIOperation@@UBEPAVCvPlot@@PAVCvArmyAI@@PAPAV2@@Z
	DD	FLAT:?Read@CvAIOperation@@UAEXAAVFDataStream@@@Z
	DD	FLAT:?Write@CvAIOperation@@UBEXAAVFDataStream@@@Z
	DD	FLAT:?GetOperationName@CvAIOperation@@MBE?AVCvString@@XZ
	DD	FLAT:?SelectInitialMusterPoint@CvAIOperation@@MAEPAVCvPlot@@PAVCvArmyAI@@@Z
	DD	FLAT:?FindBestFitReserveUnit@CvAIOperation@@MAE_NUOperationSlot@@PAVCvPlot@@1PA_N@Z
CONST	ENDS
;	COMDAT xdata$x
xdata$x	SEGMENT
__ehfuncinfo$??0CvAIOperation@@QAE@XZ DD 019930522H
	DD	06H
	DD	FLAT:__unwindtable$??0CvAIOperation@@QAE@XZ
	DD	2 DUP(00H)
	DD	2 DUP(00H)
	DD	00H
	DD	01H
__unwindtable$??0CvAIOperation@@QAE@XZ DD 0ffffffffH
	DD	FLAT:__unwindfunclet$??0CvAIOperation@@QAE@XZ$3
	DD	0ffffffffH
	DD	FLAT:__unwindfunclet$??0CvAIOperation@@QAE@XZ$0
	DD	01H
	DD	FLAT:__unwindfunclet$??0CvAIOperation@@QAE@XZ$6
	DD	01H
	DD	FLAT:__unwindfunclet$??0CvAIOperation@@QAE@XZ$1
	DD	03H
	DD	FLAT:__unwindfunclet$??0CvAIOperation@@QAE@XZ$9
	DD	03H
	DD	FLAT:__unwindfunclet$??0CvAIOperation@@QAE@XZ$2
; Function compile flags: /Odtp
; File d:\sources\lekmod_git\checkout\lekmod_dll\cvgamecoredll_expansion2\cvaioperation.cpp
xdata$x	ENDS
;	COMDAT ??0CvAIOperation@@QAE@XZ
_TEXT	SEGMENT
tv249 = -340						; size = 4
tv278 = -336						; size = 4
tv194 = -332						; size = 4
tv223 = -328						; size = 4
tv143 = -324						; size = 4
tv168 = -320						; size = 4
_this$ = -316						; size = 4
$T229809 = -312						; size = 4
$T229768 = -222						; size = 1
$T229755 = -221						; size = 1
$T229751 = -220						; size = 4
$T229744 = -212						; size = 4
$T229737 = -204						; size = 4
$T229698 = -126						; size = 1
$T229685 = -125						; size = 1
$T229681 = -124						; size = 4
$T229674 = -116						; size = 4
$T229667 = -108						; size = 4
$T229627 = -30						; size = 1
$T229614 = -29						; size = 1
$T229610 = -28						; size = 4
$T229603 = -20						; size = 4
__$EHRec$ = -12						; size = 12
??0CvAIOperation@@QAE@XZ PROC				; CvAIOperation::CvAIOperation, COMDAT
; _this$ = ecx

; 36   : {

	push	ebp
	mov	ebp, esp
	push	-1
	push	__ehhandler$??0CvAIOperation@@QAE@XZ
	mov	eax, DWORD PTR fs:0
	push	eax
	sub	esp, 328				; 00000148H
	mov	eax, DWORD PTR ___security_cookie
	xor	eax, ebp
	push	eax
	lea	eax, DWORD PTR __$EHRec$[ebp]
	mov	DWORD PTR fs:0, eax
	mov	DWORD PTR _this$[ebp], ecx
	mov	eax, DWORD PTR _this$[ebp]
	mov	DWORD PTR [eax], OFFSET ??_7CvAIOperation@@6B@
	mov	ecx, DWORD PTR _this$[ebp]
	add	ecx, 4
	mov	DWORD PTR $T229667[ebp], ecx
	lea	edx, DWORD PTR $T229627[ebp]
	mov	DWORD PTR $T229603[ebp], edx
	lea	eax, DWORD PTR $T229614[ebp]
	mov	DWORD PTR $T229610[ebp], eax
	mov	ecx, DWORD PTR $T229667[ebp]
	mov	DWORD PTR tv168[ebp], ecx
	mov	edx, DWORD PTR $T229667[ebp]
	mov	DWORD PTR tv143[ebp], edx
	mov	DWORD PTR __$EHRec$[ebp+8], 0
	push	0
	mov	ecx, DWORD PTR $T229667[ebp]
	call	?_Buy@?$vector@HV?$allocator@H@std@@@std@@IAE_NI@Z ; std::vector<int,std::allocator<int> >::_Buy
	mov	DWORD PTR __$EHRec$[ebp+8], 1
	mov	eax, DWORD PTR _this$[ebp]
	add	eax, 20					; 00000014H
	mov	DWORD PTR $T229737[ebp], eax
	lea	ecx, DWORD PTR $T229698[ebp]
	mov	DWORD PTR $T229674[ebp], ecx
	lea	edx, DWORD PTR $T229685[ebp]
	mov	DWORD PTR $T229681[ebp], edx
	mov	eax, DWORD PTR $T229737[ebp]
	mov	DWORD PTR tv223[ebp], eax
	mov	ecx, DWORD PTR $T229737[ebp]
	mov	DWORD PTR tv194[ebp], ecx
	mov	BYTE PTR __$EHRec$[ebp+8], 2
	push	0
	mov	ecx, DWORD PTR $T229737[ebp]
	call	?_Buy@?$vector@UOperationSlot@@V?$allocator@UOperationSlot@@@std@@@std@@IAE_NI@Z ; std::vector<OperationSlot,std::allocator<OperationSlot> >::_Buy
	mov	BYTE PTR __$EHRec$[ebp+8], 3
	mov	edx, DWORD PTR _this$[ebp]
	add	edx, 36					; 00000024H
	mov	DWORD PTR $T229809[ebp], edx
	lea	eax, DWORD PTR $T229768[ebp]
	mov	DWORD PTR $T229744[ebp], eax
	lea	ecx, DWORD PTR $T229755[ebp]
	mov	DWORD PTR $T229751[ebp], ecx
	mov	edx, DWORD PTR $T229809[ebp]
	mov	DWORD PTR tv278[ebp], edx
	mov	eax, DWORD PTR $T229809[ebp]
	mov	DWORD PTR tv249[ebp], eax
	mov	BYTE PTR __$EHRec$[ebp+8], 4
	push	0
	mov	ecx, DWORD PTR $T229809[ebp]
	call	?_Buy@?$vector@UOperationSlot@@V?$allocator@UOperationSlot@@@std@@@std@@IAE_NI@Z ; std::vector<OperationSlot,std::allocator<OperationSlot> >::_Buy
	mov	BYTE PTR __$EHRec$[ebp+8], 5
	mov	ecx, DWORD PTR _this$[ebp]
	mov	DWORD PTR [ecx+72], -1

; 37   : 	Reset();

	mov	ecx, DWORD PTR _this$[ebp]
	call	?Reset@CvAIOperation@@UAEXXZ		; CvAIOperation::Reset

; 38   : }

	mov	DWORD PTR __$EHRec$[ebp+8], -1
	mov	eax, DWORD PTR _this$[ebp]
	mov	ecx, DWORD PTR __$EHRec$[ebp]
	mov	DWORD PTR fs:0, ecx
	pop	ecx
	mov	esp, ebp
	pop	ebp
	ret	0
_TEXT	ENDS
;	COMDAT text$x
text$x	SEGMENT
__unwindfunclet$??0CvAIOperation@@QAE@XZ$3:
	mov	ecx, DWORD PTR $T229667[ebp]
	jmp	??1?$_Vector_val@HV?$allocator@H@std@@@std@@QAE@XZ
__unwindfunclet$??0CvAIOperation@@QAE@XZ$0:
	mov	ecx, DWORD PTR _this$[ebp]
	add	ecx, 4
	jmp	??1?$vector@HV?$allocator@H@std@@@std@@QAE@XZ ; std::vector<int,std::allocator<int> >::~vector<int,std::allocator<int> >
__unwindfunclet$??0CvAIOperation@@QAE@XZ$6:
	mov	ecx, DWORD PTR $T229737[ebp]
	jmp	??1?$_Vector_val@UOperationSlot@@V?$allocator@UOperationSlot@@@std@@@std@@QAE@XZ
__unwindfunclet$??0CvAIOperation@@QAE@XZ$1:
	mov	ecx, DWORD PTR _this$[ebp]
	add	ecx, 20					; 00000014H
	jmp	??1?$vector@UOperationSlot@@V?$allocator@UOperationSlot@@@std@@@std@@QAE@XZ ; std::vector<OperationSlot,std::allocator<OperationSlot> >::~vector<OperationSlot,std::allocator<OperationSlot> >
__unwindfunclet$??0CvAIOperation@@QAE@XZ$9:
	mov	ecx, DWORD PTR $T229809[ebp]
	jmp	??1?$_Vector_val@UOperationSlot@@V?$allocator@UOperationSlot@@@std@@@std@@QAE@XZ
__unwindfunclet$??0CvAIOperation@@QAE@XZ$2:
	mov	ecx, DWORD PTR _this$[ebp]
	add	ecx, 36					; 00000024H
	jmp	??1?$vector@UOperationSlot@@V?$allocator@UOperationSlot@@@std@@@std@@QAE@XZ ; std::vector<OperationSlot,std::allocator<OperationSlot> >::~vector<OperationSlot,std::allocator<OperationSlot> >
__ehhandler$??0CvAIOperation@@QAE@XZ:
	mov	edx, DWORD PTR [esp+8]
	lea	eax, DWORD PTR [edx+12]
	mov	ecx, DWORD PTR [edx-332]
	xor	ecx, eax
	call	@__security_check_cookie@4
	mov	eax, OFFSET __ehfuncinfo$??0CvAIOperation@@QAE@XZ
	jmp	___CxxFrameHandler3
text$x	ENDS
??0CvAIOperation@@QAE@XZ ENDP				; CvAIOperation::CvAIOperation
PUBLIC	??1CvAIOperation@@UAE@XZ			; CvAIOperation::~CvAIOperation
EXTRN	??3@YAXPAX@Z:PROC				; operator delete
; Function compile flags: /Odtp
;	COMDAT ??_GCvAIOperation@@UAEPAXI@Z
_TEXT	SEGMENT
_this$ = -4						; size = 4
___flags$ = 8						; size = 4
??_GCvAIOperation@@UAEPAXI@Z PROC			; CvAIOperation::`scalar deleting destructor', COMDAT
; _this$ = ecx
	push	ebp
	mov	ebp, esp
	push	ecx
	mov	DWORD PTR _this$[ebp], ecx
	mov	ecx, DWORD PTR _this$[ebp]
	call	??1CvAIOperation@@UAE@XZ		; CvAIOperation::~CvAIOperation
	mov	eax, DWORD PTR ___flags$[ebp]
	and	eax, 1
	je	SHORT $LN1@scalar
	mov	ecx, DWORD PTR _this$[ebp]
	push	ecx
	call	??3@YAXPAX@Z				; operator delete
	add	esp, 4
$LN1@scalar:
	mov	eax, DWORD PTR _this$[ebp]
	mov	esp, ebp
	pop	ebp
	ret	4
??_GCvAIOperation@@UAEPAXI@Z ENDP			; CvAIOperation::`scalar deleting destructor'
_TEXT	ENDS
PUBLIC	?_Tidy@?$vector@HV?$allocator@H@std@@@std@@IAEXXZ ; std::vector<int,std::allocator<int> >::_Tidy
PUBLIC	?_Tidy@?$vector@UOperationSlot@@V?$allocator@UOperationSlot@@@std@@@std@@IAEXXZ ; std::vector<OperationSlot,std::allocator<OperationSlot> >::_Tidy
;	COMDAT xdata$x
; File c:\program files (x86)\microsoft visual studio 9.0\vc\include\xutility
xdata$x	SEGMENT
__ehfuncinfo$??1CvAIOperation@@UAE@XZ DD 019930522H
	DD	06H
	DD	FLAT:__unwindtable$??1CvAIOperation@@UAE@XZ
	DD	2 DUP(00H)
	DD	2 DUP(00H)
	DD	00H
	DD	01H
__unwindtable$??1CvAIOperation@@UAE@XZ DD 0ffffffffH
	DD	FLAT:__unwindfunclet$??1CvAIOperation@@UAE@XZ$0
	DD	00H
	DD	FLAT:__unwindfunclet$??1CvAIOperation@@UAE@XZ$1
	DD	01H
	DD	FLAT:__unwindfunclet$??1CvAIOperation@@UAE@XZ$2
	DD	01H
	DD	FLAT:__unwindfunclet$??1CvAIOperation@@UAE@XZ$3
	DD	00H
	DD	FLAT:__unwindfunclet$??1CvAIOperation@@UAE@XZ$5
	DD	0ffffffffH
	DD	FLAT:__unwindfunclet$??1CvAIOperation@@UAE@XZ$7
; Function compile flags: /Odtp
; File d:\sources\lekmod_git\checkout\lekmod_dll\cvgamecoredll_expansion2\cvaioperation.cpp
xdata$x	ENDS
;	COMDAT ??1CvAIOperation@@UAE@XZ
_TEXT	SEGMENT
_this$ = -120						; size = 4
$T230055 = -116						; size = 4
$T229999 = -84						; size = 4
$T229913 = -48						; size = 4
__$EHRec$ = -12						; size = 12
??1CvAIOperation@@UAE@XZ PROC				; CvAIOperation::~CvAIOperation, COMDAT
; _this$ = ecx

; 42   : {

	push	ebp
	mov	ebp, esp
	push	-1
	push	__ehhandler$??1CvAIOperation@@UAE@XZ
	mov	eax, DWORD PTR fs:0
	push	eax
	sub	esp, 108				; 0000006cH
	mov	eax, DWORD PTR ___security_cookie
	xor	eax, ebp
	push	eax
	lea	eax, DWORD PTR __$EHRec$[ebp]
	mov	DWORD PTR fs:0, eax
	mov	DWORD PTR _this$[ebp], ecx
	mov	eax, DWORD PTR _this$[ebp]
	mov	DWORD PTR [eax], OFFSET ??_7CvAIOperation@@6B@
	mov	DWORD PTR __$EHRec$[ebp+8], 2

; 43   : 	Uninit();

	mov	ecx, DWORD PTR _this$[ebp]
	call	?Uninit@CvAIOperation@@UAEXXZ		; CvAIOperation::Uninit

; 44   : }

	mov	BYTE PTR __$EHRec$[ebp+8], 1
	mov	ecx, DWORD PTR _this$[ebp]
	add	ecx, 36					; 00000024H
	mov	DWORD PTR $T229913[ebp], ecx
	mov	BYTE PTR __$EHRec$[ebp+8], 3
	mov	ecx, DWORD PTR $T229913[ebp]
	call	?_Tidy@?$vector@UOperationSlot@@V?$allocator@UOperationSlot@@@std@@@std@@IAEXXZ ; std::vector<OperationSlot,std::allocator<OperationSlot> >::_Tidy
	mov	BYTE PTR __$EHRec$[ebp+8], 1
	mov	BYTE PTR __$EHRec$[ebp+8], 0
	mov	edx, DWORD PTR _this$[ebp]
	add	edx, 20					; 00000014H
	mov	DWORD PTR $T229999[ebp], edx
	mov	BYTE PTR __$EHRec$[ebp+8], 4
	mov	ecx, DWORD PTR $T229999[ebp]
	call	?_Tidy@?$vector@UOperationSlot@@V?$allocator@UOperationSlot@@@std@@@std@@IAEXXZ ; std::vector<OperationSlot,std::allocator<OperationSlot> >::_Tidy
	mov	BYTE PTR __$EHRec$[ebp+8], 0
	mov	DWORD PTR __$EHRec$[ebp+8], -1
	mov	eax, DWORD PTR _this$[ebp]
	add	eax, 4
	mov	DWORD PTR $T230055[ebp], eax
	mov	DWORD PTR __$EHRec$[ebp+8], 5
	mov	ecx, DWORD PTR $T230055[ebp]
	call	?_Tidy@?$vector@HV?$allocator@H@std@@@std@@IAEXXZ ; std::vector<int,std::allocator<int> >::_Tidy
	mov	DWORD PTR __$EHRec$[ebp+8], -1
	mov	ecx, DWORD PTR __$EHRec$[ebp]
	mov	DWORD PTR fs:0, ecx
	pop	ecx
	mov	esp, ebp
	pop	ebp
	ret	0
_TEXT	ENDS
;	COMDAT text$x
text$x	SEGMENT
__unwindfunclet$??1CvAIOperation@@UAE@XZ$0:
	mov	ecx, DWORD PTR _this$[ebp]
	add	ecx, 4
	jmp	??1?$vector@HV?$allocator@H@std@@@std@@QAE@XZ ; std::vector<int,std::allocator<int> >::~vector<int,std::allocator<int> >
__unwindfunclet$??1CvAIOperation@@UAE@XZ$1:
	mov	ecx, DWORD PTR _this$[ebp]
	add	ecx, 20					; 00000014H
	jmp	??1?$vector@UOperationSlot@@V?$allocator@UOperationSlot@@@std@@@std@@QAE@XZ ; std::vector<OperationSlot,std::allocator<OperationSlot> >::~vector<OperationSlot,std::allocator<OperationSlot> >
__unwindfunclet$??1CvAIOperation@@UAE@XZ$2:
	mov	ecx, DWORD PTR _this$[ebp]
	add	ecx, 36					; 00000024H
	jmp	??1?$vector@UOperationSlot@@V?$allocator@UOperationSlot@@@std@@@std@@QAE@XZ ; std::vector<OperationSlot,std::allocator<OperationSlot> >::~vector<OperationSlot,std::allocator<OperationSlot> >
__unwindfunclet$??1CvAIOperation@@UAE@XZ$3:
	mov	ecx, DWORD PTR $T229913[ebp]
	jmp	??1?$_Vector_val@UOperationSlot@@V?$allocator@UOperationSlot@@@std@@@std@@QAE@XZ
__unwindfunclet$??1CvAIOperation@@UAE@XZ$5:
	mov	ecx, DWORD PTR $T229999[ebp]
	jmp	??1?$_Vector_val@UOperationSlot@@V?$allocator@UOperationSlot@@@std@@@std@@QAE@XZ
__unwindfunclet$??1CvAIOperation@@UAE@XZ$7:
	mov	ecx, DWORD PTR $T230055[ebp]
	jmp	??1?$_Vector_val@HV?$allocator@H@std@@@std@@QAE@XZ
__ehhandler$??1CvAIOperation@@UAE@XZ:
	mov	edx, DWORD PTR [esp+8]
	lea	eax, DWORD PTR [edx+12]
	mov	ecx, DWORD PTR [edx-112]
	xor	ecx, eax
	call	@__security_check_cookie@4
	mov	eax, OFFSET __ehfuncinfo$??1CvAIOperation@@UAE@XZ
	jmp	___CxxFrameHandler3
text$x	ENDS
??1CvAIOperation@@UAE@XZ ENDP				; CvAIOperation::~CvAIOperation
PUBLIC	?SetStartCityPlot@CvAIOperation@@QAEXPAVCvPlot@@@Z ; CvAIOperation::SetStartCityPlot
EXTRN	?plot@CvCity@@QBEPAVCvPlot@@XZ:PROC		; CvCity::plot
; Function compile flags: /Odtp
;	COMDAT ?Init@CvAIOperation@@UAEXHW4PlayerTypes@@0HPAVCvCity@@1@Z
_TEXT	SEGMENT
_this$ = -4						; size = 4
_iID$ = 8						; size = 4
_eOwner$ = 12						; size = 4
_eEnemy$ = 16						; size = 4
_iDefaultArea$ = 20					; size = 4
___formal$ = 24						; size = 4
_pMuster$ = 28						; size = 4
?Init@CvAIOperation@@UAEXHW4PlayerTypes@@0HPAVCvCity@@1@Z PROC ; CvAIOperation::Init, COMDAT
; _this$ = ecx

; 48   : {

	push	ebp
	mov	ebp, esp
	push	ecx
	mov	DWORD PTR _this$[ebp], ecx

; 49   : 	Uninit();

	mov	eax, DWORD PTR _this$[ebp]
	mov	edx, DWORD PTR [eax]
	mov	ecx, DWORD PTR _this$[ebp]
	mov	eax, DWORD PTR [edx+8]
	call	eax

; 50   : 	m_iID = iID;

	mov	ecx, DWORD PTR _this$[ebp]
	mov	edx, DWORD PTR _iID$[ebp]
	mov	DWORD PTR [ecx+52], edx

; 51   : 	m_eOwner = eOwner;

	mov	eax, DWORD PTR _this$[ebp]
	mov	ecx, DWORD PTR _eOwner$[ebp]
	mov	DWORD PTR [eax+72], ecx

; 52   : 	m_eEnemy = eEnemy;

	mov	edx, DWORD PTR _this$[ebp]
	mov	eax, DWORD PTR _eEnemy$[ebp]
	mov	DWORD PTR [edx+76], eax

; 53   : 	m_iDefaultArea = iDefaultArea;

	mov	ecx, DWORD PTR _this$[ebp]
	mov	edx, DWORD PTR _iDefaultArea$[ebp]
	mov	DWORD PTR [ecx+64], edx

; 54   : #ifndef AUI_WARNING_FIXES
; 55   : 	m_bShouldReplaceLossesWithReinforcements = false;

	mov	eax, DWORD PTR _this$[ebp]
	mov	BYTE PTR [eax+80], 0

; 56   : #endif
; 57   : 
; 58   : 	SetStartCityPlot(pMuster->plot());

	mov	ecx, DWORD PTR _pMuster$[ebp]
	call	?plot@CvCity@@QBEPAVCvPlot@@XZ		; CvCity::plot
	push	eax
	mov	ecx, DWORD PTR _this$[ebp]
	call	?SetStartCityPlot@CvAIOperation@@QAEXPAVCvPlot@@@Z ; CvAIOperation::SetStartCityPlot

; 59   : 
; 60   : 	// create the armies that are needed and set the state to ARMYAISTATE_WAITING_FOR_UNITS_TO_REINFORCE
; 61   : 	BuildListOfUnitsWeStillNeedToBuild();

	mov	ecx, DWORD PTR _this$[ebp]
	mov	edx, DWORD PTR [ecx]
	mov	ecx, DWORD PTR _this$[ebp]
	mov	eax, DWORD PTR [edx+92]
	call	eax

; 62   : 	GrabUnitsFromTheReserves(NULL, NULL);

	push	0
	push	0
	mov	ecx, DWORD PTR _this$[ebp]
	mov	edx, DWORD PTR [ecx]
	mov	ecx, DWORD PTR _this$[ebp]
	mov	eax, DWORD PTR [edx+112]
	call	eax

; 63   : }

	mov	esp, ebp
	pop	ebp
	ret	24					; 00000018H
?Init@CvAIOperation@@UAEXHW4PlayerTypes@@0HPAVCvCity@@1@Z ENDP ; CvAIOperation::Init
_TEXT	ENDS
PUBLIC	?erase@?$vector@UOperationSlot@@V?$allocator@UOperationSlot@@@std@@@std@@QAE?AV?$_Vector_iterator@UOperationSlot@@V?$allocator@UOperationSlot@@@std@@@2@V?$_Vector_const_iterator@UOperationSlot@@V?$allocator@UOperationSlot@@@std@@@2@0@Z ; std::vector<OperationSlot,std::allocator<OperationSlot> >::erase
PUBLIC	?erase@?$vector@HV?$allocator@H@std@@@std@@QAE?AV?$_Vector_iterator@HV?$allocator@H@std@@@2@V?$_Vector_const_iterator@HV?$allocator@H@std@@@2@0@Z ; std::vector<int,std::allocator<int> >::erase
PUBLIC	?DeleteArmyAI@CvAIOperation@@QAE_NH@Z		; CvAIOperation::DeleteArmyAI
EXTRN	?deleteArmyAI@CvPlayer@@QAEXH@Z:PROC		; CvPlayer::deleteArmyAI
EXTRN	?Kill@CvArmyAI@@QAEXXZ:PROC			; CvArmyAI::Kill
EXTRN	?getArmyAI@CvPlayer@@QAEPAVCvArmyAI@@H@Z:PROC	; CvPlayer::getArmyAI
EXTRN	?m_aPlayers@CvPlayerAI@@1PAV1@A:DWORD		; CvPlayerAI::m_aPlayers
; Function compile flags: /Odtp
;	COMDAT ?Uninit@CvAIOperation@@UAEXXZ
_TEXT	SEGMENT
_this$ = -296						; size = 4
$T230634 = -292						; size = 4
$T230467 = -224						; size = 4
$T230451 = -220						; size = 4
$T230620 = -216						; size = 4
$T230619 = -212						; size = 4
$T230618 = -208						; size = 4
$T230617 = -204						; size = 4
$T230616 = -200						; size = 4
$T230435 = -196						; size = 4
$T230268 = -128						; size = 4
$T230252 = -124						; size = 4
$T230422 = -120						; size = 4
$T230420 = -116						; size = 4
$T230419 = -112						; size = 4
$T230418 = -108						; size = 4
$T230417 = -104						; size = 4
$T230236 = -100						; size = 4
$T230114 = -48						; size = 4
$T230098 = -44						; size = 4
$T230222 = -40						; size = 4
$T230221 = -36						; size = 4
$T230220 = -32						; size = 4
$T230219 = -28						; size = 4
$T230218 = -24						; size = 4
$T230076 = -20						; size = 4
$T230072 = -16						; size = 4
_thisArmy$222807 = -12					; size = 4
_uiI$222803 = -8					; size = 4
_thisPlayer$222802 = -4					; size = 4
?Uninit@CvAIOperation@@UAEXXZ PROC			; CvAIOperation::Uninit, COMDAT
; _this$ = ecx

; 67   : {

	push	ebp
	mov	ebp, esp
	sub	esp, 296				; 00000128H
	mov	DWORD PTR _this$[ebp], ecx

; 68   : 	if(m_eOwner != NO_PLAYER)  // hopefully if this has been init'ed this should not happen

	mov	eax, DWORD PTR _this$[ebp]
	cmp	DWORD PTR [eax+72], -1
	je	$LN5@Uninit

; 69   : 	{
; 70   : 		CvPlayer& thisPlayer = GET_PLAYER(m_eOwner);

	mov	ecx, DWORD PTR _this$[ebp]
	mov	edx, DWORD PTR [ecx+72]
	imul	edx, 63236				; 0000f704H
	add	edx, DWORD PTR ?m_aPlayers@CvPlayerAI@@1PAV1@A ; CvPlayerAI::m_aPlayers
	mov	DWORD PTR _thisPlayer$222802[ebp], edx

; 71   : 
; 72   : 		// remove the armies (which should, in turn, free up their units for other tasks)
; 73   : 		for(unsigned int uiI = 0; uiI < m_viArmyIDs.size(); uiI++)

	mov	DWORD PTR _uiI$222803[ebp], 0
	jmp	SHORT $LN4@Uninit
$LN3@Uninit:
	mov	eax, DWORD PTR _uiI$222803[ebp]
	add	eax, 1
	mov	DWORD PTR _uiI$222803[ebp], eax
$LN4@Uninit:
	mov	ecx, DWORD PTR _this$[ebp]
	add	ecx, 4
	mov	DWORD PTR $T230072[ebp], ecx
	mov	edx, DWORD PTR $T230072[ebp]
	mov	eax, DWORD PTR $T230072[ebp]
	mov	ecx, DWORD PTR [edx+8]
	sub	ecx, DWORD PTR [eax+4]
	sar	ecx, 2
	cmp	DWORD PTR _uiI$222803[ebp], ecx
	jae	SHORT $LN5@Uninit

; 74   : 		{
; 75   : 			CvArmyAI* thisArmy = thisPlayer.getArmyAI(m_viArmyIDs[uiI]);

	mov	edx, DWORD PTR _this$[ebp]
	mov	eax, DWORD PTR [edx+8]
	mov	ecx, DWORD PTR _uiI$222803[ebp]
	lea	edx, DWORD PTR [eax+ecx*4]
	mov	DWORD PTR $T230076[ebp], edx
	mov	eax, DWORD PTR $T230076[ebp]
	mov	ecx, DWORD PTR [eax]
	push	ecx
	mov	ecx, DWORD PTR _thisPlayer$222802[ebp]
	call	?getArmyAI@CvPlayer@@QAEPAVCvArmyAI@@H@Z ; CvPlayer::getArmyAI
	mov	DWORD PTR _thisArmy$222807[ebp], eax

; 76   : 			if(thisArmy)

	cmp	DWORD PTR _thisArmy$222807[ebp], 0
	je	SHORT $LN1@Uninit

; 77   : 			{
; 78   : 				thisArmy->Kill();

	mov	ecx, DWORD PTR _thisArmy$222807[ebp]
	call	?Kill@CvArmyAI@@QAEXXZ			; CvArmyAI::Kill

; 79   : 				thisPlayer.deleteArmyAI(m_viArmyIDs[uiI]);

	mov	edx, DWORD PTR _this$[ebp]
	mov	eax, DWORD PTR [edx+8]
	mov	ecx, DWORD PTR _uiI$222803[ebp]
	mov	edx, DWORD PTR [eax+ecx*4]
	push	edx
	mov	ecx, DWORD PTR _thisPlayer$222802[ebp]
	call	?deleteArmyAI@CvPlayer@@QAEXH@Z		; CvPlayer::deleteArmyAI

; 80   : 				DeleteArmyAI(m_viArmyIDs[uiI]);

	mov	eax, DWORD PTR _this$[ebp]
	mov	ecx, DWORD PTR [eax+8]
	mov	edx, DWORD PTR _uiI$222803[ebp]
	mov	eax, DWORD PTR [ecx+edx*4]
	push	eax
	mov	ecx, DWORD PTR _this$[ebp]
	call	?DeleteArmyAI@CvAIOperation@@QAE_NH@Z	; CvAIOperation::DeleteArmyAI
$LN1@Uninit:

; 81   : 			}
; 82   : 		}

	jmp	$LN3@Uninit
$LN5@Uninit:

; 83   : 	}
; 84   : 
; 85   : 	// clear out the lists
; 86   : 	m_viArmyIDs.clear();

	mov	ecx, DWORD PTR _this$[ebp]
	add	ecx, 4
	mov	DWORD PTR $T230236[ebp], ecx
	mov	edx, DWORD PTR $T230236[ebp]
	mov	eax, DWORD PTR [edx+8]
	mov	DWORD PTR $T230098[ebp], eax
	mov	ecx, DWORD PTR $T230098[ebp]
	mov	DWORD PTR $T230219[ebp], ecx
	mov	edx, DWORD PTR $T230219[ebp]
	mov	DWORD PTR $T230218[ebp], edx
	mov	eax, DWORD PTR $T230236[ebp]
	mov	ecx, DWORD PTR [eax+4]
	mov	DWORD PTR $T230114[ebp], ecx
	mov	edx, DWORD PTR $T230114[ebp]
	mov	DWORD PTR $T230221[ebp], edx
	mov	eax, DWORD PTR $T230221[ebp]
	mov	DWORD PTR $T230220[ebp], eax
	mov	ecx, DWORD PTR $T230218[ebp]
	push	ecx
	mov	edx, DWORD PTR $T230220[ebp]
	push	edx
	lea	eax, DWORD PTR $T230222[ebp]
	push	eax
	mov	ecx, DWORD PTR $T230236[ebp]
	call	?erase@?$vector@HV?$allocator@H@std@@@std@@QAE?AV?$_Vector_iterator@HV?$allocator@H@std@@@2@V?$_Vector_const_iterator@HV?$allocator@H@std@@@2@0@Z ; std::vector<int,std::allocator<int> >::erase

; 87   : 	m_viListOfUnitsWeStillNeedToBuild.clear();

	mov	ecx, DWORD PTR _this$[ebp]
	add	ecx, 20					; 00000014H
	mov	DWORD PTR $T230435[ebp], ecx
	mov	edx, DWORD PTR $T230435[ebp]
	mov	eax, DWORD PTR [edx+8]
	mov	DWORD PTR $T230252[ebp], eax
	mov	ecx, DWORD PTR $T230252[ebp]
	mov	DWORD PTR $T230418[ebp], ecx
	mov	edx, DWORD PTR $T230418[ebp]
	mov	DWORD PTR $T230417[ebp], edx
	mov	eax, DWORD PTR $T230435[ebp]
	mov	ecx, DWORD PTR [eax+4]
	mov	DWORD PTR $T230268[ebp], ecx
	mov	edx, DWORD PTR $T230268[ebp]
	mov	DWORD PTR $T230420[ebp], edx
	mov	eax, DWORD PTR $T230420[ebp]
	mov	DWORD PTR $T230419[ebp], eax
	mov	ecx, DWORD PTR $T230417[ebp]
	push	ecx
	mov	edx, DWORD PTR $T230419[ebp]
	push	edx
	lea	eax, DWORD PTR $T230422[ebp]
	push	eax
	mov	ecx, DWORD PTR $T230435[ebp]
	call	?erase@?$vector@UOperationSlot@@V?$allocator@UOperationSlot@@@std@@@std@@QAE?AV?$_Vector_iterator@UOperationSlot@@V?$allocator@UOperationSlot@@@std@@@2@V?$_Vector_const_iterator@UOperationSlot@@V?$allocator@UOperationSlot@@@std@@@2@0@Z ; std::vector<OperationSlot,std::allocator<OperationSlot> >::erase

; 88   : 	m_viListOfUnitsCitiesHaveCommittedToBuild.clear();

	mov	ecx, DWORD PTR _this$[ebp]
	add	ecx, 36					; 00000024H
	mov	DWORD PTR $T230634[ebp], ecx
	mov	edx, DWORD PTR $T230634[ebp]
	mov	eax, DWORD PTR [edx+8]
	mov	DWORD PTR $T230451[ebp], eax
	mov	ecx, DWORD PTR $T230451[ebp]
	mov	DWORD PTR $T230617[ebp], ecx
	mov	edx, DWORD PTR $T230617[ebp]
	mov	DWORD PTR $T230616[ebp], edx
	mov	eax, DWORD PTR $T230634[ebp]
	mov	ecx, DWORD PTR [eax+4]
	mov	DWORD PTR $T230467[ebp], ecx
	mov	edx, DWORD PTR $T230467[ebp]
	mov	DWORD PTR $T230619[ebp], edx
	mov	eax, DWORD PTR $T230619[ebp]
	mov	DWORD PTR $T230618[ebp], eax
	mov	ecx, DWORD PTR $T230616[ebp]
	push	ecx
	mov	edx, DWORD PTR $T230618[ebp]
	push	edx
	lea	eax, DWORD PTR $T230620[ebp]
	push	eax
	mov	ecx, DWORD PTR $T230634[ebp]
	call	?erase@?$vector@UOperationSlot@@V?$allocator@UOperationSlot@@@std@@@std@@QAE?AV?$_Vector_iterator@UOperationSlot@@V?$allocator@UOperationSlot@@@std@@@2@V?$_Vector_const_iterator@UOperationSlot@@V?$allocator@UOperationSlot@@@std@@@2@0@Z ; std::vector<OperationSlot,std::allocator<OperationSlot> >::erase

; 89   : 
; 90   : 	Reset();

	mov	ecx, DWORD PTR _this$[ebp]
	mov	edx, DWORD PTR [ecx]
	mov	ecx, DWORD PTR _this$[ebp]
	mov	eax, DWORD PTR [edx+12]
	call	eax

; 91   : }

	mov	esp, ebp
	pop	ebp
	ret	0
?Uninit@CvAIOperation@@UAEXXZ ENDP			; CvAIOperation::Uninit
; Function compile flags: /Odtp
_TEXT	ENDS
;	COMDAT ?Reset@CvAIOperation@@UAEXXZ
_TEXT	SEGMENT
_this$ = -88						; size = 4
$T230786 = -84						; size = 4
$T230668 = -28						; size = 4
$T230652 = -24						; size = 4
$T230772 = -20						; size = 4
$T230771 = -16						; size = 4
$T230770 = -12						; size = 4
$T230769 = -8						; size = 4
$T230768 = -4						; size = 4
?Reset@CvAIOperation@@UAEXXZ PROC			; CvAIOperation::Reset, COMDAT
; _this$ = ecx

; 95   : {

	push	ebp
	mov	ebp, esp
	sub	esp, 88					; 00000058H
	mov	DWORD PTR _this$[ebp], ecx

; 96   : 	m_iID = 0;

	mov	eax, DWORD PTR _this$[ebp]
	mov	DWORD PTR [eax+52], 0

; 97   : 	m_eOwner = NO_PLAYER;

	mov	ecx, DWORD PTR _this$[ebp]
	mov	DWORD PTR [ecx+72], -1

; 98   : 	m_eEnemy = NO_PLAYER;

	mov	edx, DWORD PTR _this$[ebp]
	mov	DWORD PTR [edx+76], -1

; 99   : 	m_iDefaultArea = FFreeList::INVALID_INDEX;

	mov	eax, DWORD PTR _this$[ebp]
	mov	DWORD PTR [eax+64], -1

; 100  : 	m_eCurrentState = AI_OPERATION_STATE_ABORTED;

	mov	ecx, DWORD PTR _this$[ebp]
	mov	DWORD PTR [ecx+56], 0

; 101  : 	m_eAbortReason = NO_ABORT_REASON;

	mov	edx, DWORD PTR _this$[ebp]
	mov	DWORD PTR [edx+60], -1

; 102  : 	m_iTargetX = 0;

	mov	eax, DWORD PTR _this$[ebp]
	mov	DWORD PTR [eax+104], 0

; 103  : 	m_iTargetY = 0;

	mov	ecx, DWORD PTR _this$[ebp]
	mov	DWORD PTR [ecx+108], 0

; 104  : 	m_iMusterX = 0;

	mov	edx, DWORD PTR _this$[ebp]
	mov	DWORD PTR [edx+96], 0

; 105  : 	m_iMusterY = 0;

	mov	eax, DWORD PTR _this$[ebp]
	mov	DWORD PTR [eax+100], 0

; 106  : 	m_iStartCityX = -1;

	mov	ecx, DWORD PTR _this$[ebp]
	mov	DWORD PTR [ecx+88], -1

; 107  : 	m_iStartCityY = -1;

	mov	edx, DWORD PTR _this$[ebp]
	mov	DWORD PTR [edx+92], -1

; 108  : 	m_eMoveType = INVALID_AI_OPERATION_MOVE_TYPE;

	mov	eax, DWORD PTR _this$[ebp]
	mov	DWORD PTR [eax+84], -1

; 109  : #ifdef AUI_WARNING_FIXES
; 110  : 	m_bShouldReplaceLossesWithReinforcements = false;
; 111  : #endif
; 112  : 	m_iLastTurnMoved = -1;

	mov	ecx, DWORD PTR _this$[ebp]
	mov	DWORD PTR [ecx+68], -1

; 113  : 	m_viArmyIDs.clear();

	mov	edx, DWORD PTR _this$[ebp]
	add	edx, 4
	mov	DWORD PTR $T230786[ebp], edx
	mov	eax, DWORD PTR $T230786[ebp]
	mov	ecx, DWORD PTR [eax+8]
	mov	DWORD PTR $T230652[ebp], ecx
	mov	edx, DWORD PTR $T230652[ebp]
	mov	DWORD PTR $T230769[ebp], edx
	mov	eax, DWORD PTR $T230769[ebp]
	mov	DWORD PTR $T230768[ebp], eax
	mov	ecx, DWORD PTR $T230786[ebp]
	mov	edx, DWORD PTR [ecx+4]
	mov	DWORD PTR $T230668[ebp], edx
	mov	eax, DWORD PTR $T230668[ebp]
	mov	DWORD PTR $T230771[ebp], eax
	mov	ecx, DWORD PTR $T230771[ebp]
	mov	DWORD PTR $T230770[ebp], ecx
	mov	edx, DWORD PTR $T230768[ebp]
	push	edx
	mov	eax, DWORD PTR $T230770[ebp]
	push	eax
	lea	ecx, DWORD PTR $T230772[ebp]
	push	ecx
	mov	ecx, DWORD PTR $T230786[ebp]
	call	?erase@?$vector@HV?$allocator@H@std@@@std@@QAE?AV?$_Vector_iterator@HV?$allocator@H@std@@@2@V?$_Vector_const_iterator@HV?$allocator@H@std@@@2@0@Z ; std::vector<int,std::allocator<int> >::erase

; 114  : }

	mov	esp, ebp
	pop	ebp
	ret	0
?Reset@CvAIOperation@@UAEXXZ ENDP			; CvAIOperation::Reset
_TEXT	ENDS
EXTRN	?gGlobals@@3VCvGlobals@@A:BYTE			; gGlobals
; Function compile flags: /Odtp
;	COMDAT ?GetMaximumRecruitTurns@CvAIOperation@@UBEHXZ
_TEXT	SEGMENT
_this$ = -8						; size = 4
$T230792 = -4						; size = 4
?GetMaximumRecruitTurns@CvAIOperation@@UBEHXZ PROC	; CvAIOperation::GetMaximumRecruitTurns, COMDAT
; _this$ = ecx

; 118  : {

	push	ebp
	mov	ebp, esp
	sub	esp, 8
	mov	DWORD PTR _this$[ebp], ecx

; 119  : 	return GC.getAI_OPERATIONAL_MAX_RECRUIT_TURNS_DEFAULT();

	mov	eax, DWORD PTR ?gGlobals@@3VCvGlobals@@A+7852
	mov	DWORD PTR $T230792[ebp], eax
	mov	eax, DWORD PTR $T230792[ebp]

; 120  : }

	mov	esp, ebp
	pop	ebp
	ret	0
?GetMaximumRecruitTurns@CvAIOperation@@UBEHXZ ENDP	; CvAIOperation::GetMaximumRecruitTurns
_TEXT	ENDS
PUBLIC	?GetID@CvAIOperation@@QBEHXZ			; CvAIOperation::GetID
; Function compile flags: /Odtp
;	COMDAT ?GetID@CvAIOperation@@QBEHXZ
_TEXT	SEGMENT
_this$ = -4						; size = 4
?GetID@CvAIOperation@@QBEHXZ PROC			; CvAIOperation::GetID, COMDAT
; _this$ = ecx

; 124  : {

	push	ebp
	mov	ebp, esp
	push	ecx
	mov	DWORD PTR _this$[ebp], ecx

; 125  : 	return m_iID;

	mov	eax, DWORD PTR _this$[ebp]
	mov	eax, DWORD PTR [eax+52]

; 126  : }

	mov	esp, ebp
	pop	ebp
	ret	0
?GetID@CvAIOperation@@QBEHXZ ENDP			; CvAIOperation::GetID
_TEXT	ENDS
PUBLIC	?SetID@CvAIOperation@@QAEXH@Z			; CvAIOperation::SetID
; Function compile flags: /Odtp
;	COMDAT ?SetID@CvAIOperation@@QAEXH@Z
_TEXT	SEGMENT
_this$ = -4						; size = 4
_iID$ = 8						; size = 4
?SetID@CvAIOperation@@QAEXH@Z PROC			; CvAIOperation::SetID, COMDAT
; _this$ = ecx

; 130  : {

	push	ebp
	mov	ebp, esp
	push	ecx
	mov	DWORD PTR _this$[ebp], ecx

; 131  : 	m_iID = iID;

	mov	eax, DWORD PTR _this$[ebp]
	mov	ecx, DWORD PTR _iID$[ebp]
	mov	DWORD PTR [eax+52], ecx

; 132  : }

	mov	esp, ebp
	pop	ebp
	ret	4
?SetID@CvAIOperation@@QAEXH@Z ENDP			; CvAIOperation::SetID
_TEXT	ENDS
PUBLIC	?SetOwner@CvAIOperation@@QAEXW4PlayerTypes@@@Z	; CvAIOperation::SetOwner
; Function compile flags: /Odtp
;	COMDAT ?SetOwner@CvAIOperation@@QAEXW4PlayerTypes@@@Z
_TEXT	SEGMENT
_this$ = -4						; size = 4
_ePlayer$ = 8						; size = 4
?SetOwner@CvAIOperation@@QAEXW4PlayerTypes@@@Z PROC	; CvAIOperation::SetOwner, COMDAT
; _this$ = ecx

; 136  : {

	push	ebp
	mov	ebp, esp
	push	ecx
	mov	DWORD PTR _this$[ebp], ecx

; 137  : 	m_eOwner = ePlayer;

	mov	eax, DWORD PTR _this$[ebp]
	mov	ecx, DWORD PTR _ePlayer$[ebp]
	mov	DWORD PTR [eax+72], ecx

; 138  : }

	mov	esp, ebp
	pop	ebp
	ret	4
?SetOwner@CvAIOperation@@QAEXW4PlayerTypes@@@Z ENDP	; CvAIOperation::SetOwner
_TEXT	ENDS
PUBLIC	?GetEnemy@CvAIOperation@@QBE?AW4PlayerTypes@@XZ	; CvAIOperation::GetEnemy
; Function compile flags: /Odtp
;	COMDAT ?GetEnemy@CvAIOperation@@QBE?AW4PlayerTypes@@XZ
_TEXT	SEGMENT
_this$ = -4						; size = 4
?GetEnemy@CvAIOperation@@QBE?AW4PlayerTypes@@XZ PROC	; CvAIOperation::GetEnemy, COMDAT
; _this$ = ecx

; 142  : {

	push	ebp
	mov	ebp, esp
	push	ecx
	mov	DWORD PTR _this$[ebp], ecx

; 143  : 	return m_eEnemy;

	mov	eax, DWORD PTR _this$[ebp]
	mov	eax, DWORD PTR [eax+76]

; 144  : }

	mov	esp, ebp
	pop	ebp
	ret	0
?GetEnemy@CvAIOperation@@QBE?AW4PlayerTypes@@XZ ENDP	; CvAIOperation::GetEnemy
_TEXT	ENDS
PUBLIC	?SetEnemy@CvAIOperation@@QAEXW4PlayerTypes@@@Z	; CvAIOperation::SetEnemy
; Function compile flags: /Odtp
;	COMDAT ?SetEnemy@CvAIOperation@@QAEXW4PlayerTypes@@@Z
_TEXT	SEGMENT
_this$ = -4						; size = 4
_eEnemy$ = 8						; size = 4
?SetEnemy@CvAIOperation@@QAEXW4PlayerTypes@@@Z PROC	; CvAIOperation::SetEnemy, COMDAT
; _this$ = ecx

; 148  : {

	push	ebp
	mov	ebp, esp
	push	ecx
	mov	DWORD PTR _this$[ebp], ecx

; 149  : 	m_eEnemy = eEnemy;

	mov	eax, DWORD PTR _this$[ebp]
	mov	ecx, DWORD PTR _eEnemy$[ebp]
	mov	DWORD PTR [eax+76], ecx

; 150  : }

	mov	esp, ebp
	pop	ebp
	ret	4
?SetEnemy@CvAIOperation@@QAEXW4PlayerTypes@@@Z ENDP	; CvAIOperation::SetEnemy
_TEXT	ENDS
PUBLIC	?GetDefaultArea@CvAIOperation@@QBEHXZ		; CvAIOperation::GetDefaultArea
; Function compile flags: /Odtp
;	COMDAT ?GetDefaultArea@CvAIOperation@@QBEHXZ
_TEXT	SEGMENT
_this$ = -4						; size = 4
?GetDefaultArea@CvAIOperation@@QBEHXZ PROC		; CvAIOperation::GetDefaultArea, COMDAT
; _this$ = ecx

; 154  : {

	push	ebp
	mov	ebp, esp
	push	ecx
	mov	DWORD PTR _this$[ebp], ecx

; 155  : 	return m_iDefaultArea;

	mov	eax, DWORD PTR _this$[ebp]
	mov	eax, DWORD PTR [eax+64]

; 156  : }

	mov	esp, ebp
	pop	ebp
	ret	0
?GetDefaultArea@CvAIOperation@@QBEHXZ ENDP		; CvAIOperation::GetDefaultArea
_TEXT	ENDS
PUBLIC	?SetDefaultArea@CvAIOperation@@QAEXH@Z		; CvAIOperation::SetDefaultArea
; Function compile flags: /Odtp
;	COMDAT ?SetDefaultArea@CvAIOperation@@QAEXH@Z
_TEXT	SEGMENT
_this$ = -4						; size = 4
_iDefaultArea$ = 8					; size = 4
?SetDefaultArea@CvAIOperation@@QAEXH@Z PROC		; CvAIOperation::SetDefaultArea, COMDAT
; _this$ = ecx

; 160  : {

	push	ebp
	mov	ebp, esp
	push	ecx
	mov	DWORD PTR _this$[ebp], ecx

; 161  : 	m_iDefaultArea = iDefaultArea;

	mov	eax, DWORD PTR _this$[ebp]
	mov	ecx, DWORD PTR _iDefaultArea$[ebp]
	mov	DWORD PTR [eax+64], ecx

; 162  : }

	mov	esp, ebp
	pop	ebp
	ret	4
?SetDefaultArea@CvAIOperation@@QAEXH@Z ENDP		; CvAIOperation::SetDefaultArea
_TEXT	ENDS
PUBLIC	?GetFirstArmyID@CvAIOperation@@QAEHXZ		; CvAIOperation::GetFirstArmyID
; Function compile flags: /Odtp
;	COMDAT ?GetFirstArmyID@CvAIOperation@@QAEHXZ
_TEXT	SEGMENT
_this$ = -8						; size = 4
$T230817 = -4						; size = 4
?GetFirstArmyID@CvAIOperation@@QAEHXZ PROC		; CvAIOperation::GetFirstArmyID, COMDAT
; _this$ = ecx

; 166  : {

	push	ebp
	mov	ebp, esp
	sub	esp, 8
	mov	DWORD PTR _this$[ebp], ecx

; 167  : 	if(!m_viArmyIDs.empty())

	mov	eax, DWORD PTR _this$[ebp]
	add	eax, 4
	mov	DWORD PTR $T230817[ebp], eax
	mov	ecx, DWORD PTR $T230817[ebp]
	mov	edx, DWORD PTR $T230817[ebp]
	mov	eax, DWORD PTR [ecx+8]
	sub	eax, DWORD PTR [edx+4]
	sar	eax, 2
	neg	eax
	sbb	eax, eax
	add	eax, 1
	movzx	ecx, al
	test	ecx, ecx
	jne	SHORT $LN2@GetFirstAr

; 168  : 	{
; 169  : 		return m_viArmyIDs[0];

	xor	edx, edx
	shl	edx, 2
	mov	eax, DWORD PTR _this$[ebp]
	mov	ecx, DWORD PTR [eax+8]
	mov	eax, DWORD PTR [edx+ecx]
	jmp	SHORT $LN3@GetFirstAr

; 170  : 	}
; 171  : 	else

	jmp	SHORT $LN3@GetFirstAr
$LN2@GetFirstAr:

; 172  : 	{
; 173  : 		return -1;

	or	eax, -1
$LN3@GetFirstAr:

; 174  : 	}
; 175  : }

	mov	esp, ebp
	pop	ebp
	ret	0
?GetFirstArmyID@CvAIOperation@@QAEHXZ ENDP		; CvAIOperation::GetFirstArmyID
_TEXT	ENDS
PUBLIC	?GetTargetPlot@CvAIOperation@@QBEPAVCvPlot@@XZ	; CvAIOperation::GetTargetPlot
; Function compile flags: /Odtp
;	COMDAT ?GetTargetPlot@CvAIOperation@@QBEPAVCvPlot@@XZ
_TEXT	SEGMENT
tv134 = -64						; size = 4
tv149 = -60						; size = 4
_this$ = -56						; size = 4
$T230929 = -52						; size = 4
$T230928 = -48						; size = 4
$T230883 = -44						; size = 4
$T230870 = -40						; size = 4
$T230866 = -36						; size = 4
$T230852 = -32						; size = 4
$T230848 = -25						; size = 1
$T230837 = -24						; size = 4
$T230833 = -17						; size = 1
_iMapY$230927 = -16					; size = 4
_iMapX$230926 = -12					; size = 4
$T230826 = -8						; size = 4
_rtnValue$ = -4						; size = 4
?GetTargetPlot@CvAIOperation@@QBEPAVCvPlot@@XZ PROC	; CvAIOperation::GetTargetPlot, COMDAT
; _this$ = ecx

; 179  : {

	push	ebp
	mov	ebp, esp
	sub	esp, 64					; 00000040H
	mov	DWORD PTR _this$[ebp], ecx

; 180  : 	CvPlot* rtnValue = NULL;

	mov	DWORD PTR _rtnValue$[ebp], 0

; 181  : 	rtnValue =  GC.getMap().plot(m_iTargetX, m_iTargetY);

	mov	eax, DWORD PTR ?gGlobals@@3VCvGlobals@@A+52
	mov	DWORD PTR $T230826[ebp], eax
	mov	ecx, DWORD PTR _this$[ebp]
	mov	edx, DWORD PTR [ecx+108]
	mov	DWORD PTR $T230929[ebp], edx
	mov	eax, DWORD PTR _this$[ebp]
	mov	ecx, DWORD PTR [eax+104]
	mov	DWORD PTR $T230928[ebp], ecx
	cmp	DWORD PTR $T230928[ebp], -2147483647	; 80000001H
	je	SHORT $LN5@GetTargetP
	cmp	DWORD PTR $T230929[ebp], -2147483647	; 80000001H
	jne	SHORT $LN6@GetTargetP
$LN5@GetTargetP:
	mov	DWORD PTR _rtnValue$[ebp], 0
	jmp	$LN7@GetTargetP
$LN6@GetTargetP:
	mov	edx, DWORD PTR $T230826[ebp]
	mov	al, BYTE PTR [edx+4056]
	mov	BYTE PTR $T230833[ebp], al
	mov	ecx, DWORD PTR $T230826[ebp]
	mov	edx, DWORD PTR [ecx+4020]
	mov	DWORD PTR $T230837[ebp], edx
	movzx	eax, BYTE PTR $T230833[ebp]
	test	eax, eax
	je	SHORT $LN18@GetTargetP
	cmp	DWORD PTR $T230928[ebp], 0
	jge	SHORT $LN17@GetTargetP
	mov	eax, DWORD PTR $T230928[ebp]
	cdq
	idiv	DWORD PTR $T230837[ebp]
	add	edx, DWORD PTR $T230837[ebp]
	mov	DWORD PTR _iMapX$230926[ebp], edx
	jmp	SHORT $LN19@GetTargetP
	jmp	SHORT $LN18@GetTargetP
$LN17@GetTargetP:
	mov	ecx, DWORD PTR $T230928[ebp]
	cmp	ecx, DWORD PTR $T230837[ebp]
	jl	SHORT $LN18@GetTargetP
	mov	eax, DWORD PTR $T230928[ebp]
	cdq
	idiv	DWORD PTR $T230837[ebp]
	mov	DWORD PTR _iMapX$230926[ebp], edx
	jmp	SHORT $LN19@GetTargetP
$LN18@GetTargetP:
	mov	edx, DWORD PTR $T230928[ebp]
	mov	DWORD PTR _iMapX$230926[ebp], edx
$LN19@GetTargetP:
	mov	eax, DWORD PTR $T230826[ebp]
	mov	cl, BYTE PTR [eax+4057]
	mov	BYTE PTR $T230848[ebp], cl
	mov	edx, DWORD PTR $T230826[ebp]
	mov	eax, DWORD PTR [edx+4024]
	mov	DWORD PTR $T230852[ebp], eax
	movzx	ecx, BYTE PTR $T230848[ebp]
	test	ecx, ecx
	je	SHORT $LN28@GetTargetP
	cmp	DWORD PTR $T230929[ebp], 0
	jge	SHORT $LN27@GetTargetP
	mov	eax, DWORD PTR $T230929[ebp]
	cdq
	idiv	DWORD PTR $T230852[ebp]
	add	edx, DWORD PTR $T230852[ebp]
	mov	DWORD PTR _iMapY$230927[ebp], edx
	jmp	SHORT $LN29@GetTargetP
	jmp	SHORT $LN28@GetTargetP
$LN27@GetTargetP:
	mov	edx, DWORD PTR $T230929[ebp]
	cmp	edx, DWORD PTR $T230852[ebp]
	jl	SHORT $LN28@GetTargetP
	mov	eax, DWORD PTR $T230929[ebp]
	cdq
	idiv	DWORD PTR $T230852[ebp]
	mov	DWORD PTR _iMapY$230927[ebp], edx
	jmp	SHORT $LN29@GetTargetP
$LN28@GetTargetP:
	mov	eax, DWORD PTR $T230929[ebp]
	mov	DWORD PTR _iMapY$230927[ebp], eax
$LN29@GetTargetP:
	cmp	DWORD PTR _iMapX$230926[ebp], 0
	jl	SHORT $LN33@GetTargetP
	mov	ecx, DWORD PTR $T230826[ebp]
	mov	edx, DWORD PTR [ecx+4020]
	mov	DWORD PTR $T230866[ebp], edx
	mov	eax, DWORD PTR _iMapX$230926[ebp]
	cmp	eax, DWORD PTR $T230866[ebp]
	jge	SHORT $LN33@GetTargetP
	cmp	DWORD PTR _iMapY$230927[ebp], 0
	jl	SHORT $LN33@GetTargetP
	mov	ecx, DWORD PTR $T230826[ebp]
	mov	edx, DWORD PTR [ecx+4024]
	mov	DWORD PTR $T230870[ebp], edx
	mov	eax, DWORD PTR _iMapY$230927[ebp]
	cmp	eax, DWORD PTR $T230870[ebp]
	jge	SHORT $LN33@GetTargetP
	mov	DWORD PTR tv149[ebp], 1
	jmp	SHORT $LN31@GetTargetP
$LN33@GetTargetP:
	mov	DWORD PTR tv149[ebp], 0
$LN31@GetTargetP:
	cmp	DWORD PTR tv149[ebp], 0
	je	SHORT $LN9@GetTargetP
	mov	ecx, DWORD PTR $T230826[ebp]
	mov	edx, DWORD PTR [ecx+4020]
	mov	DWORD PTR $T230883[ebp], edx
	mov	eax, DWORD PTR _iMapY$230927[ebp]
	imul	eax, DWORD PTR $T230883[ebp]
	add	eax, DWORD PTR _iMapX$230926[ebp]
	imul	eax, 484				; 000001e4H
	mov	ecx, DWORD PTR $T230826[ebp]
	add	eax, DWORD PTR [ecx+4068]
	mov	DWORD PTR tv134[ebp], eax
	jmp	SHORT $LN10@GetTargetP
$LN9@GetTargetP:
	mov	DWORD PTR tv134[ebp], 0
$LN10@GetTargetP:
	mov	edx, DWORD PTR tv134[ebp]
	mov	DWORD PTR _rtnValue$[ebp], edx
$LN7@GetTargetP:

; 182  : 	return rtnValue;

	mov	eax, DWORD PTR _rtnValue$[ebp]

; 183  : }

	mov	esp, ebp
	pop	ebp
	ret	0
?GetTargetPlot@CvAIOperation@@QBEPAVCvPlot@@XZ ENDP	; CvAIOperation::GetTargetPlot
_TEXT	ENDS
PUBLIC	?SetTargetPlot@CvAIOperation@@QAEXPAVCvPlot@@@Z	; CvAIOperation::SetTargetPlot
; Function compile flags: /Odtp
;	COMDAT ?SetTargetPlot@CvAIOperation@@QAEXPAVCvPlot@@@Z
_TEXT	SEGMENT
_this$ = -4						; size = 4
_pTarget$ = 8						; size = 4
?SetTargetPlot@CvAIOperation@@QAEXPAVCvPlot@@@Z PROC	; CvAIOperation::SetTargetPlot, COMDAT
; _this$ = ecx

; 187  : {

	push	ebp
	mov	ebp, esp
	push	ecx
	mov	DWORD PTR _this$[ebp], ecx

; 188  : 	m_iTargetX = pTarget->getX();

	mov	eax, DWORD PTR _pTarget$[ebp]
	movsx	ecx, WORD PTR [eax]
	mov	edx, DWORD PTR _this$[ebp]
	mov	DWORD PTR [edx+104], ecx

; 189  : 	m_iTargetY = pTarget->getY();

	mov	eax, DWORD PTR _pTarget$[ebp]
	movsx	ecx, WORD PTR [eax+2]
	mov	edx, DWORD PTR _this$[ebp]
	mov	DWORD PTR [edx+108], ecx

; 190  : }

	mov	esp, ebp
	pop	ebp
	ret	4
?SetTargetPlot@CvAIOperation@@QAEXPAVCvPlot@@@Z ENDP	; CvAIOperation::SetTargetPlot
_TEXT	ENDS
PUBLIC	?GetMusterPlot@CvAIOperation@@QBEPAVCvPlot@@XZ	; CvAIOperation::GetMusterPlot
; Function compile flags: /Odtp
;	COMDAT ?GetMusterPlot@CvAIOperation@@QBEPAVCvPlot@@XZ
_TEXT	SEGMENT
tv134 = -64						; size = 4
tv149 = -60						; size = 4
_this$ = -56						; size = 4
$T231046 = -52						; size = 4
$T231045 = -48						; size = 4
$T231000 = -44						; size = 4
$T230987 = -40						; size = 4
$T230983 = -36						; size = 4
$T230969 = -32						; size = 4
$T230965 = -25						; size = 1
$T230954 = -24						; size = 4
$T230950 = -17						; size = 1
_iMapY$231044 = -16					; size = 4
_iMapX$231043 = -12					; size = 4
$T230943 = -8						; size = 4
_rtnValue$ = -4						; size = 4
?GetMusterPlot@CvAIOperation@@QBEPAVCvPlot@@XZ PROC	; CvAIOperation::GetMusterPlot, COMDAT
; _this$ = ecx

; 194  : {

	push	ebp
	mov	ebp, esp
	sub	esp, 64					; 00000040H
	mov	DWORD PTR _this$[ebp], ecx

; 195  : 	CvPlot* rtnValue = NULL;

	mov	DWORD PTR _rtnValue$[ebp], 0

; 196  : 	rtnValue =  GC.getMap().plot(m_iMusterX, m_iMusterY);

	mov	eax, DWORD PTR ?gGlobals@@3VCvGlobals@@A+52
	mov	DWORD PTR $T230943[ebp], eax
	mov	ecx, DWORD PTR _this$[ebp]
	mov	edx, DWORD PTR [ecx+100]
	mov	DWORD PTR $T231046[ebp], edx
	mov	eax, DWORD PTR _this$[ebp]
	mov	ecx, DWORD PTR [eax+96]
	mov	DWORD PTR $T231045[ebp], ecx
	cmp	DWORD PTR $T231045[ebp], -2147483647	; 80000001H
	je	SHORT $LN5@GetMusterP@2
	cmp	DWORD PTR $T231046[ebp], -2147483647	; 80000001H
	jne	SHORT $LN6@GetMusterP@2
$LN5@GetMusterP@2:
	mov	DWORD PTR _rtnValue$[ebp], 0
	jmp	$LN7@GetMusterP@2
$LN6@GetMusterP@2:
	mov	edx, DWORD PTR $T230943[ebp]
	mov	al, BYTE PTR [edx+4056]
	mov	BYTE PTR $T230950[ebp], al
	mov	ecx, DWORD PTR $T230943[ebp]
	mov	edx, DWORD PTR [ecx+4020]
	mov	DWORD PTR $T230954[ebp], edx
	movzx	eax, BYTE PTR $T230950[ebp]
	test	eax, eax
	je	SHORT $LN18@GetMusterP@2
	cmp	DWORD PTR $T231045[ebp], 0
	jge	SHORT $LN17@GetMusterP@2
	mov	eax, DWORD PTR $T231045[ebp]
	cdq
	idiv	DWORD PTR $T230954[ebp]
	add	edx, DWORD PTR $T230954[ebp]
	mov	DWORD PTR _iMapX$231043[ebp], edx
	jmp	SHORT $LN19@GetMusterP@2
	jmp	SHORT $LN18@GetMusterP@2
$LN17@GetMusterP@2:
	mov	ecx, DWORD PTR $T231045[ebp]
	cmp	ecx, DWORD PTR $T230954[ebp]
	jl	SHORT $LN18@GetMusterP@2
	mov	eax, DWORD PTR $T231045[ebp]
	cdq
	idiv	DWORD PTR $T230954[ebp]
	mov	DWORD PTR _iMapX$231043[ebp], edx
	jmp	SHORT $LN19@GetMusterP@2
$LN18@GetMusterP@2:
	mov	edx, DWORD PTR $T231045[ebp]
	mov	DWORD PTR _iMapX$231043[ebp], edx
$LN19@GetMusterP@2:
	mov	eax, DWORD PTR $T230943[ebp]
	mov	cl, BYTE PTR [eax+4057]
	mov	BYTE PTR $T230965[ebp], cl
	mov	edx, DWORD PTR $T230943[ebp]
	mov	eax, DWORD PTR [edx+4024]
	mov	DWORD PTR $T230969[ebp], eax
	movzx	ecx, BYTE PTR $T230965[ebp]
	test	ecx, ecx
	je	SHORT $LN28@GetMusterP@2
	cmp	DWORD PTR $T231046[ebp], 0
	jge	SHORT $LN27@GetMusterP@2
	mov	eax, DWORD PTR $T231046[ebp]
	cdq
	idiv	DWORD PTR $T230969[ebp]
	add	edx, DWORD PTR $T230969[ebp]
	mov	DWORD PTR _iMapY$231044[ebp], edx
	jmp	SHORT $LN29@GetMusterP@2
	jmp	SHORT $LN28@GetMusterP@2
$LN27@GetMusterP@2:
	mov	edx, DWORD PTR $T231046[ebp]
	cmp	edx, DWORD PTR $T230969[ebp]
	jl	SHORT $LN28@GetMusterP@2
	mov	eax, DWORD PTR $T231046[ebp]
	cdq
	idiv	DWORD PTR $T230969[ebp]
	mov	DWORD PTR _iMapY$231044[ebp], edx
	jmp	SHORT $LN29@GetMusterP@2
$LN28@GetMusterP@2:
	mov	eax, DWORD PTR $T231046[ebp]
	mov	DWORD PTR _iMapY$231044[ebp], eax
$LN29@GetMusterP@2:
	cmp	DWORD PTR _iMapX$231043[ebp], 0
	jl	SHORT $LN33@GetMusterP@2
	mov	ecx, DWORD PTR $T230943[ebp]
	mov	edx, DWORD PTR [ecx+4020]
	mov	DWORD PTR $T230983[ebp], edx
	mov	eax, DWORD PTR _iMapX$231043[ebp]
	cmp	eax, DWORD PTR $T230983[ebp]
	jge	SHORT $LN33@GetMusterP@2
	cmp	DWORD PTR _iMapY$231044[ebp], 0
	jl	SHORT $LN33@GetMusterP@2
	mov	ecx, DWORD PTR $T230943[ebp]
	mov	edx, DWORD PTR [ecx+4024]
	mov	DWORD PTR $T230987[ebp], edx
	mov	eax, DWORD PTR _iMapY$231044[ebp]
	cmp	eax, DWORD PTR $T230987[ebp]
	jge	SHORT $LN33@GetMusterP@2
	mov	DWORD PTR tv149[ebp], 1
	jmp	SHORT $LN31@GetMusterP@2
$LN33@GetMusterP@2:
	mov	DWORD PTR tv149[ebp], 0
$LN31@GetMusterP@2:
	cmp	DWORD PTR tv149[ebp], 0
	je	SHORT $LN9@GetMusterP@2
	mov	ecx, DWORD PTR $T230943[ebp]
	mov	edx, DWORD PTR [ecx+4020]
	mov	DWORD PTR $T231000[ebp], edx
	mov	eax, DWORD PTR _iMapY$231044[ebp]
	imul	eax, DWORD PTR $T231000[ebp]
	add	eax, DWORD PTR _iMapX$231043[ebp]
	imul	eax, 484				; 000001e4H
	mov	ecx, DWORD PTR $T230943[ebp]
	add	eax, DWORD PTR [ecx+4068]
	mov	DWORD PTR tv134[ebp], eax
	jmp	SHORT $LN10@GetMusterP@2
$LN9@GetMusterP@2:
	mov	DWORD PTR tv134[ebp], 0
$LN10@GetMusterP@2:
	mov	edx, DWORD PTR tv134[ebp]
	mov	DWORD PTR _rtnValue$[ebp], edx
$LN7@GetMusterP@2:

; 197  : 	return rtnValue;

	mov	eax, DWORD PTR _rtnValue$[ebp]

; 198  : }

	mov	esp, ebp
	pop	ebp
	ret	0
?GetMusterPlot@CvAIOperation@@QBEPAVCvPlot@@XZ ENDP	; CvAIOperation::GetMusterPlot
_TEXT	ENDS
PUBLIC	?SetMusterPlot@CvAIOperation@@QAEXPAVCvPlot@@@Z	; CvAIOperation::SetMusterPlot
; Function compile flags: /Odtp
;	COMDAT ?SetMusterPlot@CvAIOperation@@QAEXPAVCvPlot@@@Z
_TEXT	SEGMENT
_this$ = -4						; size = 4
_pMuster$ = 8						; size = 4
?SetMusterPlot@CvAIOperation@@QAEXPAVCvPlot@@@Z PROC	; CvAIOperation::SetMusterPlot, COMDAT
; _this$ = ecx

; 202  : {

	push	ebp
	mov	ebp, esp
	push	ecx
	mov	DWORD PTR _this$[ebp], ecx

; 203  : 	m_iMusterX = pMuster->getX();

	mov	eax, DWORD PTR _pMuster$[ebp]
	movsx	ecx, WORD PTR [eax]
	mov	edx, DWORD PTR _this$[ebp]
	mov	DWORD PTR [edx+96], ecx

; 204  : 	m_iMusterY = pMuster->getY();

	mov	eax, DWORD PTR _pMuster$[ebp]
	movsx	ecx, WORD PTR [eax+2]
	mov	edx, DWORD PTR _this$[ebp]
	mov	DWORD PTR [edx+100], ecx

; 205  : }

	mov	esp, ebp
	pop	ebp
	ret	4
?SetMusterPlot@CvAIOperation@@QAEXPAVCvPlot@@@Z ENDP	; CvAIOperation::SetMusterPlot
_TEXT	ENDS
PUBLIC	?GetStartCityPlot@CvAIOperation@@QBEPAVCvPlot@@XZ ; CvAIOperation::GetStartCityPlot
; Function compile flags: /Odtp
;	COMDAT ?GetStartCityPlot@CvAIOperation@@QBEPAVCvPlot@@XZ
_TEXT	SEGMENT
tv134 = -64						; size = 4
tv149 = -60						; size = 4
_this$ = -56						; size = 4
$T231163 = -52						; size = 4
$T231162 = -48						; size = 4
$T231117 = -44						; size = 4
$T231104 = -40						; size = 4
$T231100 = -36						; size = 4
$T231086 = -32						; size = 4
$T231082 = -25						; size = 1
$T231071 = -24						; size = 4
$T231067 = -17						; size = 1
_iMapY$231161 = -16					; size = 4
_iMapX$231160 = -12					; size = 4
$T231060 = -8						; size = 4
_rtnValue$ = -4						; size = 4
?GetStartCityPlot@CvAIOperation@@QBEPAVCvPlot@@XZ PROC	; CvAIOperation::GetStartCityPlot, COMDAT
; _this$ = ecx

; 209  : {

	push	ebp
	mov	ebp, esp
	sub	esp, 64					; 00000040H
	mov	DWORD PTR _this$[ebp], ecx

; 210  : 	CvPlot* rtnValue = NULL;

	mov	DWORD PTR _rtnValue$[ebp], 0

; 211  : 	rtnValue =  GC.getMap().plot(m_iStartCityX, m_iStartCityY);

	mov	eax, DWORD PTR ?gGlobals@@3VCvGlobals@@A+52
	mov	DWORD PTR $T231060[ebp], eax
	mov	ecx, DWORD PTR _this$[ebp]
	mov	edx, DWORD PTR [ecx+92]
	mov	DWORD PTR $T231163[ebp], edx
	mov	eax, DWORD PTR _this$[ebp]
	mov	ecx, DWORD PTR [eax+88]
	mov	DWORD PTR $T231162[ebp], ecx
	cmp	DWORD PTR $T231162[ebp], -2147483647	; 80000001H
	je	SHORT $LN5@GetStartCi
	cmp	DWORD PTR $T231163[ebp], -2147483647	; 80000001H
	jne	SHORT $LN6@GetStartCi
$LN5@GetStartCi:
	mov	DWORD PTR _rtnValue$[ebp], 0
	jmp	$LN7@GetStartCi
$LN6@GetStartCi:
	mov	edx, DWORD PTR $T231060[ebp]
	mov	al, BYTE PTR [edx+4056]
	mov	BYTE PTR $T231067[ebp], al
	mov	ecx, DWORD PTR $T231060[ebp]
	mov	edx, DWORD PTR [ecx+4020]
	mov	DWORD PTR $T231071[ebp], edx
	movzx	eax, BYTE PTR $T231067[ebp]
	test	eax, eax
	je	SHORT $LN18@GetStartCi
	cmp	DWORD PTR $T231162[ebp], 0
	jge	SHORT $LN17@GetStartCi
	mov	eax, DWORD PTR $T231162[ebp]
	cdq
	idiv	DWORD PTR $T231071[ebp]
	add	edx, DWORD PTR $T231071[ebp]
	mov	DWORD PTR _iMapX$231160[ebp], edx
	jmp	SHORT $LN19@GetStartCi
	jmp	SHORT $LN18@GetStartCi
$LN17@GetStartCi:
	mov	ecx, DWORD PTR $T231162[ebp]
	cmp	ecx, DWORD PTR $T231071[ebp]
	jl	SHORT $LN18@GetStartCi
	mov	eax, DWORD PTR $T231162[ebp]
	cdq
	idiv	DWORD PTR $T231071[ebp]
	mov	DWORD PTR _iMapX$231160[ebp], edx
	jmp	SHORT $LN19@GetStartCi
$LN18@GetStartCi:
	mov	edx, DWORD PTR $T231162[ebp]
	mov	DWORD PTR _iMapX$231160[ebp], edx
$LN19@GetStartCi:
	mov	eax, DWORD PTR $T231060[ebp]
	mov	cl, BYTE PTR [eax+4057]
	mov	BYTE PTR $T231082[ebp], cl
	mov	edx, DWORD PTR $T231060[ebp]
	mov	eax, DWORD PTR [edx+4024]
	mov	DWORD PTR $T231086[ebp], eax
	movzx	ecx, BYTE PTR $T231082[ebp]
	test	ecx, ecx
	je	SHORT $LN28@GetStartCi
	cmp	DWORD PTR $T231163[ebp], 0
	jge	SHORT $LN27@GetStartCi
	mov	eax, DWORD PTR $T231163[ebp]
	cdq
	idiv	DWORD PTR $T231086[ebp]
	add	edx, DWORD PTR $T231086[ebp]
	mov	DWORD PTR _iMapY$231161[ebp], edx
	jmp	SHORT $LN29@GetStartCi
	jmp	SHORT $LN28@GetStartCi
$LN27@GetStartCi:
	mov	edx, DWORD PTR $T231163[ebp]
	cmp	edx, DWORD PTR $T231086[ebp]
	jl	SHORT $LN28@GetStartCi
	mov	eax, DWORD PTR $T231163[ebp]
	cdq
	idiv	DWORD PTR $T231086[ebp]
	mov	DWORD PTR _iMapY$231161[ebp], edx
	jmp	SHORT $LN29@GetStartCi
$LN28@GetStartCi:
	mov	eax, DWORD PTR $T231163[ebp]
	mov	DWORD PTR _iMapY$231161[ebp], eax
$LN29@GetStartCi:
	cmp	DWORD PTR _iMapX$231160[ebp], 0
	jl	SHORT $LN33@GetStartCi
	mov	ecx, DWORD PTR $T231060[ebp]
	mov	edx, DWORD PTR [ecx+4020]
	mov	DWORD PTR $T231100[ebp], edx
	mov	eax, DWORD PTR _iMapX$231160[ebp]
	cmp	eax, DWORD PTR $T231100[ebp]
	jge	SHORT $LN33@GetStartCi
	cmp	DWORD PTR _iMapY$231161[ebp], 0
	jl	SHORT $LN33@GetStartCi
	mov	ecx, DWORD PTR $T231060[ebp]
	mov	edx, DWORD PTR [ecx+4024]
	mov	DWORD PTR $T231104[ebp], edx
	mov	eax, DWORD PTR _iMapY$231161[ebp]
	cmp	eax, DWORD PTR $T231104[ebp]
	jge	SHORT $LN33@GetStartCi
	mov	DWORD PTR tv149[ebp], 1
	jmp	SHORT $LN31@GetStartCi
$LN33@GetStartCi:
	mov	DWORD PTR tv149[ebp], 0
$LN31@GetStartCi:
	cmp	DWORD PTR tv149[ebp], 0
	je	SHORT $LN9@GetStartCi
	mov	ecx, DWORD PTR $T231060[ebp]
	mov	edx, DWORD PTR [ecx+4020]
	mov	DWORD PTR $T231117[ebp], edx
	mov	eax, DWORD PTR _iMapY$231161[ebp]
	imul	eax, DWORD PTR $T231117[ebp]
	add	eax, DWORD PTR _iMapX$231160[ebp]
	imul	eax, 484				; 000001e4H
	mov	ecx, DWORD PTR $T231060[ebp]
	add	eax, DWORD PTR [ecx+4068]
	mov	DWORD PTR tv134[ebp], eax
	jmp	SHORT $LN10@GetStartCi
$LN9@GetStartCi:
	mov	DWORD PTR tv134[ebp], 0
$LN10@GetStartCi:
	mov	edx, DWORD PTR tv134[ebp]
	mov	DWORD PTR _rtnValue$[ebp], edx
$LN7@GetStartCi:

; 212  : 	return rtnValue;

	mov	eax, DWORD PTR _rtnValue$[ebp]

; 213  : }

	mov	esp, ebp
	pop	ebp
	ret	0
?GetStartCityPlot@CvAIOperation@@QBEPAVCvPlot@@XZ ENDP	; CvAIOperation::GetStartCityPlot
; Function compile flags: /Odtp
_TEXT	ENDS
;	COMDAT ?SetStartCityPlot@CvAIOperation@@QAEXPAVCvPlot@@@Z
_TEXT	SEGMENT
_this$ = -4						; size = 4
_pStartCity$ = 8					; size = 4
?SetStartCityPlot@CvAIOperation@@QAEXPAVCvPlot@@@Z PROC	; CvAIOperation::SetStartCityPlot, COMDAT
; _this$ = ecx

; 217  : {

	push	ebp
	mov	ebp, esp
	push	ecx
	mov	DWORD PTR _this$[ebp], ecx

; 218  : 	m_iStartCityX = pStartCity->getX();

	mov	eax, DWORD PTR _pStartCity$[ebp]
	movsx	ecx, WORD PTR [eax]
	mov	edx, DWORD PTR _this$[ebp]
	mov	DWORD PTR [edx+88], ecx

; 219  : 	m_iStartCityY = pStartCity->getY();

	mov	eax, DWORD PTR _pStartCity$[ebp]
	movsx	ecx, WORD PTR [eax+2]
	mov	edx, DWORD PTR _this$[ebp]
	mov	DWORD PTR [edx+92], ecx

; 220  : }

	mov	esp, ebp
	pop	ebp
	ret	4
?SetStartCityPlot@CvAIOperation@@QAEXPAVCvPlot@@@Z ENDP	; CvAIOperation::SetStartCityPlot
_TEXT	ENDS
PUBLIC	?GetGatherRangeForXUnits@OperationalAIHelpers@@YAHH@Z ; OperationalAIHelpers::GetGatherRangeForXUnits
EXTRN	?IsAllOceanGoing@CvArmyAI@@QAE_NXZ:PROC		; CvArmyAI::IsAllOceanGoing
EXTRN	?CanUseForOperationGatheringCheckWater@CvTacticalAnalysisCell@@QAE_N_N@Z:PROC ; CvTacticalAnalysisCell::CanUseForOperationGatheringCheckWater
EXTRN	?GetNumSlotsFilled@CvArmyAI@@QBEHXZ:PROC	; CvArmyAI::GetNumSlotsFilled
EXTRN	?GetTacticalAnalysisMap@CvGame@@QAEPAVCvTacticalAnalysisMap@@XZ:PROC ; CvGame::GetTacticalAnalysisMap
; Function compile flags: /Odtp
;	COMDAT ?GetGatherTolerance@CvAIOperation@@UBEHPAVCvArmyAI@@PAVCvPlot@@@Z
_TEXT	SEGMENT
_this$ = -60						; size = 4
$T231194 = -56						; size = 4
$T231189 = -52						; size = 4
$T231185 = -48						; size = 4
$T231181 = -44						; size = 4
$T231177 = -40						; size = 4
_iPlotIndex$222890 = -36				; size = 4
_iY$222886 = -32					; size = 4
_iX$222882 = -28					; size = 4
_iRange$222881 = -24					; size = 4
_iNumUnits$ = -20					; size = 4
_iRtnValue$ = -16					; size = 4
_pMap$ = -12						; size = 4
_pCell$ = -8						; size = 4
_iValidPlotsNearby$ = -4				; size = 4
_pArmy$ = 8						; size = 4
_pPlot$ = 12						; size = 4
?GetGatherTolerance@CvAIOperation@@UBEHPAVCvArmyAI@@PAVCvPlot@@@Z PROC ; CvAIOperation::GetGatherTolerance, COMDAT
; _this$ = ecx

; 223  : {

	push	ebp
	mov	ebp, esp
	sub	esp, 60					; 0000003cH
	mov	DWORD PTR _this$[ebp], ecx

; 224  : 	CvTacticalAnalysisCell* pCell;
; 225  : 	CvTacticalAnalysisMap* pMap = GC.getGame().GetTacticalAnalysisMap();

	mov	eax, DWORD PTR ?gGlobals@@3VCvGlobals@@A+48
	mov	DWORD PTR $T231177[ebp], eax
	mov	ecx, DWORD PTR $T231177[ebp]
	call	?GetTacticalAnalysisMap@CvGame@@QAEPAVCvTacticalAnalysisMap@@XZ ; CvGame::GetTacticalAnalysisMap
	mov	DWORD PTR _pMap$[ebp], eax

; 226  : 	int iRtnValue = 1;

	mov	DWORD PTR _iRtnValue$[ebp], 1

; 227  : 	int iValidPlotsNearby = 0;

	mov	DWORD PTR _iValidPlotsNearby$[ebp], 0

; 228  : 
; 229  : 	// Find out how many units are trying to gather
; 230  : 	int iNumUnits = pArmy->GetNumSlotsFilled();

	mov	ecx, DWORD PTR _pArmy$[ebp]
	call	?GetNumSlotsFilled@CvArmyAI@@QBEHXZ	; CvArmyAI::GetNumSlotsFilled
	mov	DWORD PTR _iNumUnits$[ebp], eax

; 231  : 
; 232  : 	// If not more than 1, zero tolerance is fine (we should get the unit to the gather point)
; 233  : 	if(iNumUnits < 1)

	cmp	DWORD PTR _iNumUnits$[ebp], 1
	jge	SHORT $LN14@GetGatherT

; 234  : 	{
; 235  : 		iRtnValue = 0;

	mov	DWORD PTR _iRtnValue$[ebp], 0

; 236  : 	}
; 237  : 	else

	jmp	$LN13@GetGatherT
$LN14@GetGatherT:

; 238  : 	{
; 239  : 		int iRange = OperationalAIHelpers::GetGatherRangeForXUnits(iNumUnits);

	mov	ecx, DWORD PTR _iNumUnits$[ebp]
	push	ecx
	call	?GetGatherRangeForXUnits@OperationalAIHelpers@@YAHH@Z ; OperationalAIHelpers::GetGatherRangeForXUnits
	add	esp, 4
	mov	DWORD PTR _iRange$222881[ebp], eax

; 240  : 		for(int iX = -iRange; iX <= iRange; iX++)

	mov	edx, DWORD PTR _iRange$222881[ebp]
	neg	edx
	mov	DWORD PTR _iX$222882[ebp], edx
	jmp	SHORT $LN12@GetGatherT
$LN11@GetGatherT:
	mov	eax, DWORD PTR _iX$222882[ebp]
	add	eax, 1
	mov	DWORD PTR _iX$222882[ebp], eax
$LN12@GetGatherT:
	mov	ecx, DWORD PTR _iX$222882[ebp]
	cmp	ecx, DWORD PTR _iRange$222881[ebp]
	jg	$LN10@GetGatherT

; 241  : 		{
; 242  : 			for(int iY = -iRange; iY <= iRange; iY++)

	mov	edx, DWORD PTR _iRange$222881[ebp]
	neg	edx
	mov	DWORD PTR _iY$222886[ebp], edx
	jmp	SHORT $LN9@GetGatherT
$LN8@GetGatherT:
	mov	eax, DWORD PTR _iY$222886[ebp]
	add	eax, 1
	mov	DWORD PTR _iY$222886[ebp], eax
$LN9@GetGatherT:
	mov	ecx, DWORD PTR _iY$222886[ebp]
	cmp	ecx, DWORD PTR _iRange$222881[ebp]
	jg	$LN7@GetGatherT

; 243  : 			{
; 244  : 				int iPlotIndex = GC.getMap().plotNum(pPlot->getX(), pPlot->getY());

	mov	edx, DWORD PTR _pPlot$[ebp]
	movsx	eax, WORD PTR [edx+2]
	mov	DWORD PTR $T231181[ebp], eax
	mov	ecx, DWORD PTR _pPlot$[ebp]
	movsx	edx, WORD PTR [ecx]
	mov	DWORD PTR $T231185[ebp], edx
	mov	eax, DWORD PTR ?gGlobals@@3VCvGlobals@@A+52
	mov	DWORD PTR $T231189[ebp], eax
	mov	ecx, DWORD PTR $T231189[ebp]
	mov	edx, DWORD PTR [ecx+4020]
	mov	DWORD PTR $T231194[ebp], edx
	mov	eax, DWORD PTR $T231181[ebp]
	imul	eax, DWORD PTR $T231194[ebp]
	add	eax, DWORD PTR $T231185[ebp]
	mov	DWORD PTR _iPlotIndex$222890[ebp], eax

; 245  : 				pCell = pMap->GetCell(iPlotIndex);

	mov	ecx, DWORD PTR _iPlotIndex$222890[ebp]
	imul	ecx, 44					; 0000002cH
	mov	edx, DWORD PTR _pMap$[ebp]
	add	ecx, DWORD PTR [edx+12]
	mov	DWORD PTR _pCell$[ebp], ecx

; 246  : 
; 247  : 				if((IsMixedLandNavalOperation() || IsAllNavalOperation()) && !pCell->CanUseForOperationGatheringCheckWater(true))

	mov	eax, DWORD PTR _this$[ebp]
	mov	edx, DWORD PTR [eax]
	mov	ecx, DWORD PTR _this$[ebp]
	mov	eax, DWORD PTR [edx+44]
	call	eax
	movzx	ecx, al
	test	ecx, ecx
	jne	SHORT $LN5@GetGatherT
	mov	edx, DWORD PTR _this$[ebp]
	mov	eax, DWORD PTR [edx]
	mov	ecx, DWORD PTR _this$[ebp]
	mov	edx, DWORD PTR [eax+40]
	call	edx
	movzx	eax, al
	test	eax, eax
	je	SHORT $LN6@GetGatherT
$LN5@GetGatherT:
	push	1
	mov	ecx, DWORD PTR _pCell$[ebp]
	call	?CanUseForOperationGatheringCheckWater@CvTacticalAnalysisCell@@QAE_N_N@Z ; CvTacticalAnalysisCell::CanUseForOperationGatheringCheckWater
	movzx	ecx, al
	test	ecx, ecx
	jne	SHORT $LN6@GetGatherT

; 248  : 				{
; 249  : 					continue;

	jmp	$LN8@GetGatherT
$LN6@GetGatherT:

; 250  : 				}
; 251  : 
; 252  : 				if((IsMixedLandNavalOperation() || IsAllNavalOperation()) && !pArmy->IsAllOceanGoing() && pCell->IsOcean())

	mov	edx, DWORD PTR _this$[ebp]
	mov	eax, DWORD PTR [edx]
	mov	ecx, DWORD PTR _this$[ebp]
	mov	edx, DWORD PTR [eax+44]
	call	edx
	movzx	eax, al
	test	eax, eax
	jne	SHORT $LN3@GetGatherT
	mov	ecx, DWORD PTR _this$[ebp]
	mov	edx, DWORD PTR [ecx]
	mov	ecx, DWORD PTR _this$[ebp]
	mov	eax, DWORD PTR [edx+40]
	call	eax
	movzx	ecx, al
	test	ecx, ecx
	je	SHORT $LN4@GetGatherT
$LN3@GetGatherT:
	mov	ecx, DWORD PTR _pArmy$[ebp]
	call	?IsAllOceanGoing@CvArmyAI@@QAE_NXZ	; CvArmyAI::IsAllOceanGoing
	movzx	edx, al
	test	edx, edx
	jne	SHORT $LN4@GetGatherT
	mov	eax, DWORD PTR _pCell$[ebp]
	mov	ecx, DWORD PTR [eax]
	and	ecx, 4096				; 00001000H
	neg	ecx
	sbb	ecx, ecx
	neg	ecx
	movzx	edx, cl
	test	edx, edx
	je	SHORT $LN4@GetGatherT

; 253  : 				{
; 254  : 					continue;

	jmp	$LN8@GetGatherT
$LN4@GetGatherT:

; 255  : 				}
; 256  : 
; 257  : 				iValidPlotsNearby++;

	mov	eax, DWORD PTR _iValidPlotsNearby$[ebp]
	add	eax, 1
	mov	DWORD PTR _iValidPlotsNearby$[ebp], eax

; 258  : 			}

	jmp	$LN8@GetGatherT
$LN7@GetGatherT:

; 259  : 		}

	jmp	$LN11@GetGatherT
$LN10@GetGatherT:

; 260  : 
; 261  : 		// Find more valid plots than units?
; 262  : 		if(iValidPlotsNearby > iNumUnits)

	mov	ecx, DWORD PTR _iValidPlotsNearby$[ebp]
	cmp	ecx, DWORD PTR _iNumUnits$[ebp]
	jle	SHORT $LN2@GetGatherT

; 263  : 		{
; 264  : 			// If so, just use normal range for this many units
; 265  : 			iRtnValue = iRange;

	mov	edx, DWORD PTR _iRange$222881[ebp]
	mov	DWORD PTR _iRtnValue$[ebp], edx

; 266  : 		}
; 267  : 
; 268  : 		// Something constrained here, give ourselves a lot of leeway
; 269  : 		else

	jmp	SHORT $LN13@GetGatherT
$LN2@GetGatherT:

; 270  : 		{
; 271  : 			iRtnValue = 3;

	mov	DWORD PTR _iRtnValue$[ebp], 3
$LN13@GetGatherT:

; 272  : 		}
; 273  : 	}
; 274  : 
; 275  : 	return iRtnValue;

	mov	eax, DWORD PTR _iRtnValue$[ebp]

; 276  : }

	mov	esp, ebp
	pop	ebp
	ret	8
?GetGatherTolerance@CvAIOperation@@UBEHPAVCvArmyAI@@PAVCvPlot@@@Z ENDP ; CvAIOperation::GetGatherTolerance
_TEXT	ENDS
PUBLIC	??0CvAIOperationNukeAttack@@QAE@XZ		; CvAIOperationNukeAttack::CvAIOperationNukeAttack
PUBLIC	??0CvAIOperationNavalCityStateAttack@@QAE@XZ	; CvAIOperationNavalCityStateAttack::CvAIOperationNavalCityStateAttack
PUBLIC	??0CvAIOperationNavalSneakAttack@@QAE@XZ	; CvAIOperationNavalSneakAttack::CvAIOperationNavalSneakAttack
PUBLIC	??0CvAIOperationNavalAttack@@QAE@XZ		; CvAIOperationNavalAttack::CvAIOperationNavalAttack
PUBLIC	??0CvAIOperationCityStateAttack@@QAE@XZ		; CvAIOperationCityStateAttack::CvAIOperationCityStateAttack
PUBLIC	??0CvAIOperationSmallCityAttack@@QAE@XZ		; CvAIOperationSmallCityAttack::CvAIOperationSmallCityAttack
PUBLIC	??0CvAIOperationSneakCityAttack@@QAE@XZ		; CvAIOperationSneakCityAttack::CvAIOperationSneakCityAttack
PUBLIC	??0CvAIOperationQuickSneakCityAttack@@QAE@XZ	; CvAIOperationQuickSneakCityAttack::CvAIOperationQuickSneakCityAttack
PUBLIC	??0CvAIOperationRapidResponse@@QAE@XZ		; CvAIOperationRapidResponse::CvAIOperationRapidResponse
PUBLIC	??0CvAIOperationCityCloseDefense@@QAE@XZ	; CvAIOperationCityCloseDefense::CvAIOperationCityCloseDefense
PUBLIC	??0CvAIOperationPillageEnemy@@QAE@XZ		; CvAIOperationPillageEnemy::CvAIOperationPillageEnemy
PUBLIC	??0CvAIOperationQuickColonize@@QAE@XZ		; CvAIOperationQuickColonize::CvAIOperationQuickColonize
PUBLIC	??0CvAINavalEscortedOperation@@QAE@XZ		; CvAINavalEscortedOperation::CvAINavalEscortedOperation
PUBLIC	??0CvAIOperationPureNavalCityAttack@@QAE@XZ	; CvAIOperationPureNavalCityAttack::CvAIOperationPureNavalCityAttack
PUBLIC	??0CvAIOperationNavalSuperiority@@QAE@XZ	; CvAIOperationNavalSuperiority::CvAIOperationNavalSuperiority
PUBLIC	??0CvAIOperationNavalBombardment@@QAE@XZ	; CvAIOperationNavalBombardment::CvAIOperationNavalBombardment
PUBLIC	??0CvAIOperationConcertTour@@QAE@XZ		; CvAIOperationConcertTour::CvAIOperationConcertTour
PUBLIC	??0CvAIOperationMerchantDelegation@@QAE@XZ	; CvAIOperationMerchantDelegation::CvAIOperationMerchantDelegation
PUBLIC	??0CvAIOperationFoundCity@@QAE@XZ		; CvAIOperationFoundCity::CvAIOperationFoundCity
PUBLIC	??0CvAIOperationDestroyBarbarianCamp@@QAE@XZ	; CvAIOperationDestroyBarbarianCamp::CvAIOperationDestroyBarbarianCamp
PUBLIC	??0CvAIOperationBasicCityAttack@@QAE@XZ		; CvAIOperationBasicCityAttack::CvAIOperationBasicCityAttack
PUBLIC	?CreateOperation@CvAIOperation@@SAPAV1@W4AIOperationTypes@@W4PlayerTypes@@@Z ; CvAIOperation::CreateOperation
EXTRN	?GetBoldness@CvDiplomacyAI@@QBEHXZ:PROC		; CvDiplomacyAI::GetBoldness
EXTRN	?GetDiplomacyAI@CvPlayer@@QBEPAVCvDiplomacyAI@@XZ:PROC ; CvPlayer::GetDiplomacyAI
EXTRN	?getGameTurn@CvGame@@QAEHXZ:PROC		; CvGame::getGameTurn
EXTRN	??2@YAPAXI@Z:PROC				; operator new
;	COMDAT xdata$x
; File d:\sources\lekmod_git\checkout\lekmod_dll\cvgamecoredll_expansion2\cvplayerai.h
xdata$x	SEGMENT
__ehfuncinfo$?CreateOperation@CvAIOperation@@SAPAV1@W4AIOperationTypes@@W4PlayerTypes@@@Z DD 019930522H
	DD	015H
	DD	FLAT:__unwindtable$?CreateOperation@CvAIOperation@@SAPAV1@W4AIOperationTypes@@W4PlayerTypes@@@Z
	DD	2 DUP(00H)
	DD	2 DUP(00H)
	DD	00H
	DD	01H
__unwindtable$?CreateOperation@CvAIOperation@@SAPAV1@W4AIOperationTypes@@W4PlayerTypes@@@Z DD 0ffffffffH
	DD	FLAT:__unwindfunclet$?CreateOperation@CvAIOperation@@SAPAV1@W4AIOperationTypes@@W4PlayerTypes@@@Z$0
	DD	0ffffffffH
	DD	FLAT:__unwindfunclet$?CreateOperation@CvAIOperation@@SAPAV1@W4AIOperationTypes@@W4PlayerTypes@@@Z$1
	DD	0ffffffffH
	DD	FLAT:__unwindfunclet$?CreateOperation@CvAIOperation@@SAPAV1@W4AIOperationTypes@@W4PlayerTypes@@@Z$2
	DD	0ffffffffH
	DD	FLAT:__unwindfunclet$?CreateOperation@CvAIOperation@@SAPAV1@W4AIOperationTypes@@W4PlayerTypes@@@Z$3
	DD	0ffffffffH
	DD	FLAT:__unwindfunclet$?CreateOperation@CvAIOperation@@SAPAV1@W4AIOperationTypes@@W4PlayerTypes@@@Z$4
	DD	0ffffffffH
	DD	FLAT:__unwindfunclet$?CreateOperation@CvAIOperation@@SAPAV1@W4AIOperationTypes@@W4PlayerTypes@@@Z$5
	DD	0ffffffffH
	DD	FLAT:__unwindfunclet$?CreateOperation@CvAIOperation@@SAPAV1@W4AIOperationTypes@@W4PlayerTypes@@@Z$6
	DD	0ffffffffH
	DD	FLAT:__unwindfunclet$?CreateOperation@CvAIOperation@@SAPAV1@W4AIOperationTypes@@W4PlayerTypes@@@Z$7
	DD	0ffffffffH
	DD	FLAT:__unwindfunclet$?CreateOperation@CvAIOperation@@SAPAV1@W4AIOperationTypes@@W4PlayerTypes@@@Z$8
	DD	0ffffffffH
	DD	FLAT:__unwindfunclet$?CreateOperation@CvAIOperation@@SAPAV1@W4AIOperationTypes@@W4PlayerTypes@@@Z$9
	DD	0ffffffffH
	DD	FLAT:__unwindfunclet$?CreateOperation@CvAIOperation@@SAPAV1@W4AIOperationTypes@@W4PlayerTypes@@@Z$10
	DD	0ffffffffH
	DD	FLAT:__unwindfunclet$?CreateOperation@CvAIOperation@@SAPAV1@W4AIOperationTypes@@W4PlayerTypes@@@Z$11
	DD	0ffffffffH
	DD	FLAT:__unwindfunclet$?CreateOperation@CvAIOperation@@SAPAV1@W4AIOperationTypes@@W4PlayerTypes@@@Z$12
	DD	0ffffffffH
	DD	FLAT:__unwindfunclet$?CreateOperation@CvAIOperation@@SAPAV1@W4AIOperationTypes@@W4PlayerTypes@@@Z$13
	DD	0ffffffffH
	DD	FLAT:__unwindfunclet$?CreateOperation@CvAIOperation@@SAPAV1@W4AIOperationTypes@@W4PlayerTypes@@@Z$14
	DD	0ffffffffH
	DD	FLAT:__unwindfunclet$?CreateOperation@CvAIOperation@@SAPAV1@W4AIOperationTypes@@W4PlayerTypes@@@Z$15
	DD	0ffffffffH
	DD	FLAT:__unwindfunclet$?CreateOperation@CvAIOperation@@SAPAV1@W4AIOperationTypes@@W4PlayerTypes@@@Z$16
	DD	0ffffffffH
	DD	FLAT:__unwindfunclet$?CreateOperation@CvAIOperation@@SAPAV1@W4AIOperationTypes@@W4PlayerTypes@@@Z$17
	DD	0ffffffffH
	DD	FLAT:__unwindfunclet$?CreateOperation@CvAIOperation@@SAPAV1@W4AIOperationTypes@@W4PlayerTypes@@@Z$18
	DD	0ffffffffH
	DD	FLAT:__unwindfunclet$?CreateOperation@CvAIOperation@@SAPAV1@W4AIOperationTypes@@W4PlayerTypes@@@Z$19
	DD	0ffffffffH
	DD	FLAT:__unwindfunclet$?CreateOperation@CvAIOperation@@SAPAV1@W4AIOperationTypes@@W4PlayerTypes@@@Z$20
; Function compile flags: /Odtp
; File d:\sources\lekmod_git\checkout\lekmod_dll\cvgamecoredll_expansion2\cvaioperation.cpp
xdata$x	ENDS
;	COMDAT ?CreateOperation@CvAIOperation@@SAPAV1@W4AIOperationTypes@@W4PlayerTypes@@@Z
_TEXT	SEGMENT
tv375 = -276						; size = 4
tv364 = -272						; size = 4
tv353 = -268						; size = 4
tv342 = -264						; size = 4
tv331 = -260						; size = 4
tv320 = -256						; size = 4
tv277 = -252						; size = 4
tv266 = -248						; size = 4
tv239 = -244						; size = 4
tv228 = -240						; size = 4
tv217 = -236						; size = 4
tv206 = -232						; size = 4
tv195 = -228						; size = 4
tv184 = -224						; size = 4
tv173 = -220						; size = 4
tv162 = -216						; size = 4
tv151 = -212						; size = 4
tv140 = -208						; size = 4
tv129 = -204						; size = 4
tv86 = -200						; size = 4
tv75 = -196						; size = 4
tv64 = -192						; size = 4
$T231324 = -188						; size = 4
$T231320 = -184						; size = 4
$T231293 = -180						; size = 4
$T231292 = -176						; size = 4
$T231289 = -172						; size = 4
$T231288 = -168						; size = 4
$T231285 = -164						; size = 4
$T231284 = -160						; size = 4
$T231281 = -156						; size = 4
$T231280 = -152						; size = 4
$T231277 = -148						; size = 4
$T231276 = -144						; size = 4
$T231273 = -140						; size = 4
$T231272 = -136						; size = 4
$T231269 = -132						; size = 4
$T231268 = -128						; size = 4
$T231265 = -124						; size = 4
$T231264 = -120						; size = 4
$T231261 = -116						; size = 4
$T231260 = -112						; size = 4
$T231257 = -108						; size = 4
$T231256 = -104						; size = 4
$T231253 = -100						; size = 4
$T231252 = -96						; size = 4
$T231249 = -92						; size = 4
$T231248 = -88						; size = 4
$T231245 = -84						; size = 4
$T231244 = -80						; size = 4
$T231241 = -76						; size = 4
$T231240 = -72						; size = 4
$T231237 = -68						; size = 4
$T231236 = -64						; size = 4
$T231233 = -60						; size = 4
$T231232 = -56						; size = 4
$T231229 = -52						; size = 4
$T231228 = -48						; size = 4
$T231225 = -44						; size = 4
$T231224 = -40						; size = 4
$T231221 = -36						; size = 4
$T231220 = -32						; size = 4
$T231217 = -28						; size = 4
$T231216 = -24						; size = 4
$T231213 = -20						; size = 4
$T231212 = -16						; size = 4
__$EHRec$ = -12						; size = 12
_eAIOperationType$ = 8					; size = 4
_ePlayer$ = 12						; size = 4
?CreateOperation@CvAIOperation@@SAPAV1@W4AIOperationTypes@@W4PlayerTypes@@@Z PROC ; CvAIOperation::CreateOperation, COMDAT

; 280  : {

	push	ebp
	mov	ebp, esp
	push	-1
	push	__ehhandler$?CreateOperation@CvAIOperation@@SAPAV1@W4AIOperationTypes@@W4PlayerTypes@@@Z
	mov	eax, DWORD PTR fs:0
	push	eax
	sub	esp, 264				; 00000108H
	mov	eax, DWORD PTR ___security_cookie
	xor	eax, ebp
	push	eax
	lea	eax, DWORD PTR __$EHRec$[ebp]
	mov	DWORD PTR fs:0, eax

; 281  : 	switch(eAIOperationType)

	mov	eax, DWORD PTR _eAIOperationType$[ebp]
	mov	DWORD PTR tv64[ebp], eax
	cmp	DWORD PTR tv64[ebp], 19			; 00000013H
	ja	$LN22@CreateOper
	mov	ecx, DWORD PTR tv64[ebp]
	jmp	DWORD PTR $LN94@CreateOper[ecx*4]
$LN21@CreateOper:

; 282  : 	{
; 283  : 	case AI_OPERATION_BASIC_CITY_ATTACK:
; 284  : 		return FNEW(CvAIOperationBasicCityAttack(), c_eCiv5GameplayDLL, 0);

	push	112					; 00000070H
	call	??2@YAPAXI@Z				; operator new
	add	esp, 4
	mov	DWORD PTR $T231213[ebp], eax
	mov	DWORD PTR __$EHRec$[ebp+8], 0
	cmp	DWORD PTR $T231213[ebp], 0
	je	SHORT $LN26@CreateOper
	mov	ecx, DWORD PTR $T231213[ebp]
	call	??0CvAIOperationBasicCityAttack@@QAE@XZ	; CvAIOperationBasicCityAttack::CvAIOperationBasicCityAttack
	mov	DWORD PTR tv75[ebp], eax
	jmp	SHORT $LN27@CreateOper
$LN26@CreateOper:
	mov	DWORD PTR tv75[ebp], 0
$LN27@CreateOper:
	mov	edx, DWORD PTR tv75[ebp]
	mov	DWORD PTR $T231212[ebp], edx
	mov	DWORD PTR __$EHRec$[ebp+8], -1
	mov	eax, DWORD PTR $T231212[ebp]
	jmp	$LN24@CreateOper
$LN20@CreateOper:

; 285  : 	case AI_OPERATION_DESTROY_BARBARIAN_CAMP:
; 286  : 		return FNEW(CvAIOperationDestroyBarbarianCamp(), c_eCiv5GameplayDLL, 0);

	push	120					; 00000078H
	call	??2@YAPAXI@Z				; operator new
	add	esp, 4
	mov	DWORD PTR $T231217[ebp], eax
	mov	DWORD PTR __$EHRec$[ebp+8], 1
	cmp	DWORD PTR $T231217[ebp], 0
	je	SHORT $LN28@CreateOper
	mov	ecx, DWORD PTR $T231217[ebp]
	call	??0CvAIOperationDestroyBarbarianCamp@@QAE@XZ ; CvAIOperationDestroyBarbarianCamp::CvAIOperationDestroyBarbarianCamp
	mov	DWORD PTR tv86[ebp], eax
	jmp	SHORT $LN29@CreateOper
$LN28@CreateOper:
	mov	DWORD PTR tv86[ebp], 0
$LN29@CreateOper:
	mov	eax, DWORD PTR tv86[ebp]
	mov	DWORD PTR $T231216[ebp], eax
	mov	DWORD PTR __$EHRec$[ebp+8], -1
	mov	eax, DWORD PTR $T231216[ebp]
	jmp	$LN24@CreateOper
$LN19@CreateOper:

; 287  : 	case AI_OPERATION_FOUND_CITY:
; 288  : 		return FNEW(CvAIOperationFoundCity(), c_eCiv5GameplayDLL, 0);

	push	124					; 0000007cH
	call	??2@YAPAXI@Z				; operator new
	add	esp, 4
	mov	DWORD PTR $T231221[ebp], eax
	mov	DWORD PTR __$EHRec$[ebp+8], 2
	cmp	DWORD PTR $T231221[ebp], 0
	je	SHORT $LN30@CreateOper
	mov	ecx, DWORD PTR $T231221[ebp]
	call	??0CvAIOperationFoundCity@@QAE@XZ	; CvAIOperationFoundCity::CvAIOperationFoundCity
	mov	DWORD PTR tv129[ebp], eax
	jmp	SHORT $LN31@CreateOper
$LN30@CreateOper:
	mov	DWORD PTR tv129[ebp], 0
$LN31@CreateOper:
	mov	ecx, DWORD PTR tv129[ebp]
	mov	DWORD PTR $T231220[ebp], ecx
	mov	DWORD PTR __$EHRec$[ebp+8], -1
	mov	eax, DWORD PTR $T231220[ebp]
	jmp	$LN24@CreateOper
$LN18@CreateOper:

; 289  : 	case AI_OPERATION_MERCHANT_DELEGATION:
; 290  : 		return FNEW(CvAIOperationMerchantDelegation(), c_eCiv5GameplayDLL, 0);

	push	124					; 0000007cH
	call	??2@YAPAXI@Z				; operator new
	add	esp, 4
	mov	DWORD PTR $T231225[ebp], eax
	mov	DWORD PTR __$EHRec$[ebp+8], 3
	cmp	DWORD PTR $T231225[ebp], 0
	je	SHORT $LN32@CreateOper
	mov	ecx, DWORD PTR $T231225[ebp]
	call	??0CvAIOperationMerchantDelegation@@QAE@XZ ; CvAIOperationMerchantDelegation::CvAIOperationMerchantDelegation
	mov	DWORD PTR tv140[ebp], eax
	jmp	SHORT $LN33@CreateOper
$LN32@CreateOper:
	mov	DWORD PTR tv140[ebp], 0
$LN33@CreateOper:
	mov	edx, DWORD PTR tv140[ebp]
	mov	DWORD PTR $T231224[ebp], edx
	mov	DWORD PTR __$EHRec$[ebp+8], -1
	mov	eax, DWORD PTR $T231224[ebp]
	jmp	$LN24@CreateOper
$LN17@CreateOper:

; 291  : 	case AI_OPERATION_CONCERT_TOUR:
; 292  : 		return FNEW(CvAIOperationConcertTour(), c_eCiv5GameplayDLL, 0);

	push	124					; 0000007cH
	call	??2@YAPAXI@Z				; operator new
	add	esp, 4
	mov	DWORD PTR $T231229[ebp], eax
	mov	DWORD PTR __$EHRec$[ebp+8], 4
	cmp	DWORD PTR $T231229[ebp], 0
	je	SHORT $LN34@CreateOper
	mov	ecx, DWORD PTR $T231229[ebp]
	call	??0CvAIOperationConcertTour@@QAE@XZ	; CvAIOperationConcertTour::CvAIOperationConcertTour
	mov	DWORD PTR tv151[ebp], eax
	jmp	SHORT $LN35@CreateOper
$LN34@CreateOper:
	mov	DWORD PTR tv151[ebp], 0
$LN35@CreateOper:
	mov	eax, DWORD PTR tv151[ebp]
	mov	DWORD PTR $T231228[ebp], eax
	mov	DWORD PTR __$EHRec$[ebp+8], -1
	mov	eax, DWORD PTR $T231228[ebp]
	jmp	$LN24@CreateOper
$LN16@CreateOper:

; 293  : 	case AI_OPERATION_NAVAL_BOMBARDMENT:
; 294  : 		return FNEW(CvAIOperationNavalBombardment(), c_eCiv5GameplayDLL, 0);

	push	112					; 00000070H
	call	??2@YAPAXI@Z				; operator new
	add	esp, 4
	mov	DWORD PTR $T231233[ebp], eax
	mov	DWORD PTR __$EHRec$[ebp+8], 5
	cmp	DWORD PTR $T231233[ebp], 0
	je	SHORT $LN36@CreateOper
	mov	ecx, DWORD PTR $T231233[ebp]
	call	??0CvAIOperationNavalBombardment@@QAE@XZ ; CvAIOperationNavalBombardment::CvAIOperationNavalBombardment
	mov	DWORD PTR tv162[ebp], eax
	jmp	SHORT $LN37@CreateOper
$LN36@CreateOper:
	mov	DWORD PTR tv162[ebp], 0
$LN37@CreateOper:
	mov	ecx, DWORD PTR tv162[ebp]
	mov	DWORD PTR $T231232[ebp], ecx
	mov	DWORD PTR __$EHRec$[ebp+8], -1
	mov	eax, DWORD PTR $T231232[ebp]
	jmp	$LN24@CreateOper
$LN15@CreateOper:

; 295  : 	case AI_OPERATION_NAVAL_SUPERIORITY:
; 296  : 		return FNEW(CvAIOperationNavalSuperiority(), c_eCiv5GameplayDLL, 0);

	push	112					; 00000070H
	call	??2@YAPAXI@Z				; operator new
	add	esp, 4
	mov	DWORD PTR $T231237[ebp], eax
	mov	DWORD PTR __$EHRec$[ebp+8], 6
	cmp	DWORD PTR $T231237[ebp], 0
	je	SHORT $LN38@CreateOper
	mov	ecx, DWORD PTR $T231237[ebp]
	call	??0CvAIOperationNavalSuperiority@@QAE@XZ ; CvAIOperationNavalSuperiority::CvAIOperationNavalSuperiority
	mov	DWORD PTR tv173[ebp], eax
	jmp	SHORT $LN39@CreateOper
$LN38@CreateOper:
	mov	DWORD PTR tv173[ebp], 0
$LN39@CreateOper:
	mov	edx, DWORD PTR tv173[ebp]
	mov	DWORD PTR $T231236[ebp], edx
	mov	DWORD PTR __$EHRec$[ebp+8], -1
	mov	eax, DWORD PTR $T231236[ebp]
	jmp	$LN24@CreateOper
$LN14@CreateOper:

; 297  : 	case AI_OPERATION_PURE_NAVAL_CITY_ATTACK:
; 298  : 		return FNEW(CvAIOperationPureNavalCityAttack(), c_eCiv5GameplayDLL, 0);

	push	112					; 00000070H
	call	??2@YAPAXI@Z				; operator new
	add	esp, 4
	mov	DWORD PTR $T231241[ebp], eax
	mov	DWORD PTR __$EHRec$[ebp+8], 7
	cmp	DWORD PTR $T231241[ebp], 0
	je	SHORT $LN40@CreateOper
	mov	ecx, DWORD PTR $T231241[ebp]
	call	??0CvAIOperationPureNavalCityAttack@@QAE@XZ ; CvAIOperationPureNavalCityAttack::CvAIOperationPureNavalCityAttack
	mov	DWORD PTR tv184[ebp], eax
	jmp	SHORT $LN41@CreateOper
$LN40@CreateOper:
	mov	DWORD PTR tv184[ebp], 0
$LN41@CreateOper:
	mov	eax, DWORD PTR tv184[ebp]
	mov	DWORD PTR $T231240[ebp], eax
	mov	DWORD PTR __$EHRec$[ebp+8], -1
	mov	eax, DWORD PTR $T231240[ebp]
	jmp	$LN24@CreateOper
$LN13@CreateOper:

; 299  : 	case AI_OPERATION_COLONIZE:
; 300  : 		return FNEW(CvAINavalEscortedOperation(), c_eCiv5GameplayDLL, 0);

	push	120					; 00000078H
	call	??2@YAPAXI@Z				; operator new
	add	esp, 4
	mov	DWORD PTR $T231245[ebp], eax
	mov	DWORD PTR __$EHRec$[ebp+8], 8
	cmp	DWORD PTR $T231245[ebp], 0
	je	SHORT $LN42@CreateOper
	mov	ecx, DWORD PTR $T231245[ebp]
	call	??0CvAINavalEscortedOperation@@QAE@XZ	; CvAINavalEscortedOperation::CvAINavalEscortedOperation
	mov	DWORD PTR tv195[ebp], eax
	jmp	SHORT $LN43@CreateOper
$LN42@CreateOper:
	mov	DWORD PTR tv195[ebp], 0
$LN43@CreateOper:
	mov	ecx, DWORD PTR tv195[ebp]
	mov	DWORD PTR $T231244[ebp], ecx
	mov	DWORD PTR __$EHRec$[ebp+8], -1
	mov	eax, DWORD PTR $T231244[ebp]
	jmp	$LN24@CreateOper
$LN12@CreateOper:

; 301  : 	case AI_OPERATION_QUICK_COLONIZE:
; 302  : 		return FNEW(CvAIOperationQuickColonize(), c_eCiv5GameplayDLL, 0);

	push	124					; 0000007cH
	call	??2@YAPAXI@Z				; operator new
	add	esp, 4
	mov	DWORD PTR $T231249[ebp], eax
	mov	DWORD PTR __$EHRec$[ebp+8], 9
	cmp	DWORD PTR $T231249[ebp], 0
	je	SHORT $LN44@CreateOper
	mov	ecx, DWORD PTR $T231249[ebp]
	call	??0CvAIOperationQuickColonize@@QAE@XZ	; CvAIOperationQuickColonize::CvAIOperationQuickColonize
	mov	DWORD PTR tv206[ebp], eax
	jmp	SHORT $LN45@CreateOper
$LN44@CreateOper:
	mov	DWORD PTR tv206[ebp], 0
$LN45@CreateOper:
	mov	edx, DWORD PTR tv206[ebp]
	mov	DWORD PTR $T231248[ebp], edx
	mov	DWORD PTR __$EHRec$[ebp+8], -1
	mov	eax, DWORD PTR $T231248[ebp]
	jmp	$LN24@CreateOper
$LN11@CreateOper:

; 303  : 	case AI_OPERATION_PILLAGE_ENEMY:
; 304  : 		return FNEW(CvAIOperationPillageEnemy(), c_eCiv5GameplayDLL, 0);

	push	112					; 00000070H
	call	??2@YAPAXI@Z				; operator new
	add	esp, 4
	mov	DWORD PTR $T231253[ebp], eax
	mov	DWORD PTR __$EHRec$[ebp+8], 10		; 0000000aH
	cmp	DWORD PTR $T231253[ebp], 0
	je	SHORT $LN46@CreateOper
	mov	ecx, DWORD PTR $T231253[ebp]
	call	??0CvAIOperationPillageEnemy@@QAE@XZ	; CvAIOperationPillageEnemy::CvAIOperationPillageEnemy
	mov	DWORD PTR tv217[ebp], eax
	jmp	SHORT $LN47@CreateOper
$LN46@CreateOper:
	mov	DWORD PTR tv217[ebp], 0
$LN47@CreateOper:
	mov	eax, DWORD PTR tv217[ebp]
	mov	DWORD PTR $T231252[ebp], eax
	mov	DWORD PTR __$EHRec$[ebp+8], -1
	mov	eax, DWORD PTR $T231252[ebp]
	jmp	$LN24@CreateOper
$LN10@CreateOper:

; 305  : 	case AI_OPERATION_CITY_CLOSE_DEFENSE:
; 306  : 		return FNEW(CvAIOperationCityCloseDefense(), c_eCiv5GameplayDLL, 0);

	push	112					; 00000070H
	call	??2@YAPAXI@Z				; operator new
	add	esp, 4
	mov	DWORD PTR $T231257[ebp], eax
	mov	DWORD PTR __$EHRec$[ebp+8], 11		; 0000000bH
	cmp	DWORD PTR $T231257[ebp], 0
	je	SHORT $LN48@CreateOper
	mov	ecx, DWORD PTR $T231257[ebp]
	call	??0CvAIOperationCityCloseDefense@@QAE@XZ ; CvAIOperationCityCloseDefense::CvAIOperationCityCloseDefense
	mov	DWORD PTR tv228[ebp], eax
	jmp	SHORT $LN49@CreateOper
$LN48@CreateOper:
	mov	DWORD PTR tv228[ebp], 0
$LN49@CreateOper:
	mov	ecx, DWORD PTR tv228[ebp]
	mov	DWORD PTR $T231256[ebp], ecx
	mov	DWORD PTR __$EHRec$[ebp+8], -1
	mov	eax, DWORD PTR $T231256[ebp]
	jmp	$LN24@CreateOper
$LN9@CreateOper:

; 307  : 	case AI_OPERATION_RAPID_RESPONSE:
; 308  : 		return FNEW(CvAIOperationRapidResponse(), c_eCiv5GameplayDLL, 0);

	push	112					; 00000070H
	call	??2@YAPAXI@Z				; operator new
	add	esp, 4
	mov	DWORD PTR $T231261[ebp], eax
	mov	DWORD PTR __$EHRec$[ebp+8], 12		; 0000000cH
	cmp	DWORD PTR $T231261[ebp], 0
	je	SHORT $LN50@CreateOper
	mov	ecx, DWORD PTR $T231261[ebp]
	call	??0CvAIOperationRapidResponse@@QAE@XZ	; CvAIOperationRapidResponse::CvAIOperationRapidResponse
	mov	DWORD PTR tv239[ebp], eax
	jmp	SHORT $LN51@CreateOper
$LN50@CreateOper:
	mov	DWORD PTR tv239[ebp], 0
$LN51@CreateOper:
	mov	edx, DWORD PTR tv239[ebp]
	mov	DWORD PTR $T231260[ebp], edx
	mov	DWORD PTR __$EHRec$[ebp+8], -1
	mov	eax, DWORD PTR $T231260[ebp]
	jmp	$LN24@CreateOper
$LN8@CreateOper:

; 309  : 	case AI_OPERATION_SNEAK_CITY_ATTACK:
; 310  : 	{
; 311  : 		if(GC.getGame().getGameTurn() < 50 && GET_PLAYER(ePlayer).GetDiplomacyAI()->GetBoldness() >= 5)

	mov	eax, DWORD PTR ?gGlobals@@3VCvGlobals@@A+48
	mov	DWORD PTR $T231320[ebp], eax
	mov	ecx, DWORD PTR $T231320[ebp]
	call	?getGameTurn@CvGame@@QAEHXZ		; CvGame::getGameTurn
	cmp	eax, 50					; 00000032H
	jge	SHORT $LN7@CreateOper
	mov	ecx, DWORD PTR _ePlayer$[ebp]
	imul	ecx, 63236				; 0000f704H
	add	ecx, DWORD PTR ?m_aPlayers@CvPlayerAI@@1PAV1@A ; CvPlayerAI::m_aPlayers
	mov	DWORD PTR $T231324[ebp], ecx
	mov	ecx, DWORD PTR $T231324[ebp]
	call	?GetDiplomacyAI@CvPlayer@@QBEPAVCvDiplomacyAI@@XZ ; CvPlayer::GetDiplomacyAI
	mov	ecx, eax
	call	?GetBoldness@CvDiplomacyAI@@QBEHXZ	; CvDiplomacyAI::GetBoldness
	cmp	eax, 5
	jl	SHORT $LN7@CreateOper

; 312  : 		{
; 313  : 			return FNEW(CvAIOperationQuickSneakCityAttack(), c_eCiv5GameplayDLL, 0);

	push	112					; 00000070H
	call	??2@YAPAXI@Z				; operator new
	add	esp, 4
	mov	DWORD PTR $T231265[ebp], eax
	mov	DWORD PTR __$EHRec$[ebp+8], 13		; 0000000dH
	cmp	DWORD PTR $T231265[ebp], 0
	je	SHORT $LN52@CreateOper
	mov	ecx, DWORD PTR $T231265[ebp]
	call	??0CvAIOperationQuickSneakCityAttack@@QAE@XZ ; CvAIOperationQuickSneakCityAttack::CvAIOperationQuickSneakCityAttack
	mov	DWORD PTR tv266[ebp], eax
	jmp	SHORT $LN53@CreateOper
$LN52@CreateOper:
	mov	DWORD PTR tv266[ebp], 0
$LN53@CreateOper:
	mov	edx, DWORD PTR tv266[ebp]
	mov	DWORD PTR $T231264[ebp], edx
	mov	DWORD PTR __$EHRec$[ebp+8], -1
	mov	eax, DWORD PTR $T231264[ebp]
	jmp	$LN24@CreateOper
$LN7@CreateOper:

; 314  : 		}
; 315  : 		return FNEW(CvAIOperationSneakCityAttack(), c_eCiv5GameplayDLL, 0);

	push	112					; 00000070H
	call	??2@YAPAXI@Z				; operator new
	add	esp, 4
	mov	DWORD PTR $T231269[ebp], eax
	mov	DWORD PTR __$EHRec$[ebp+8], 14		; 0000000eH
	cmp	DWORD PTR $T231269[ebp], 0
	je	SHORT $LN54@CreateOper
	mov	ecx, DWORD PTR $T231269[ebp]
	call	??0CvAIOperationSneakCityAttack@@QAE@XZ	; CvAIOperationSneakCityAttack::CvAIOperationSneakCityAttack
	mov	DWORD PTR tv277[ebp], eax
	jmp	SHORT $LN55@CreateOper
$LN54@CreateOper:
	mov	DWORD PTR tv277[ebp], 0
$LN55@CreateOper:
	mov	eax, DWORD PTR tv277[ebp]
	mov	DWORD PTR $T231268[ebp], eax
	mov	DWORD PTR __$EHRec$[ebp+8], -1
	mov	eax, DWORD PTR $T231268[ebp]
	jmp	$LN24@CreateOper
$LN6@CreateOper:

; 316  : 	}
; 317  : 	case AI_OPERATION_SMALL_CITY_ATTACK:
; 318  : 		return FNEW(CvAIOperationSmallCityAttack(), c_eCiv5GameplayDLL, 0);

	push	112					; 00000070H
	call	??2@YAPAXI@Z				; operator new
	add	esp, 4
	mov	DWORD PTR $T231273[ebp], eax
	mov	DWORD PTR __$EHRec$[ebp+8], 15		; 0000000fH
	cmp	DWORD PTR $T231273[ebp], 0
	je	SHORT $LN56@CreateOper
	mov	ecx, DWORD PTR $T231273[ebp]
	call	??0CvAIOperationSmallCityAttack@@QAE@XZ	; CvAIOperationSmallCityAttack::CvAIOperationSmallCityAttack
	mov	DWORD PTR tv320[ebp], eax
	jmp	SHORT $LN57@CreateOper
$LN56@CreateOper:
	mov	DWORD PTR tv320[ebp], 0
$LN57@CreateOper:
	mov	ecx, DWORD PTR tv320[ebp]
	mov	DWORD PTR $T231272[ebp], ecx
	mov	DWORD PTR __$EHRec$[ebp+8], -1
	mov	eax, DWORD PTR $T231272[ebp]
	jmp	$LN24@CreateOper
$LN5@CreateOper:

; 319  : 	case AI_OPERATION_CITY_STATE_ATTACK:
; 320  : 		return FNEW(CvAIOperationCityStateAttack(), c_eCiv5GameplayDLL, 0);

	push	112					; 00000070H
	call	??2@YAPAXI@Z				; operator new
	add	esp, 4
	mov	DWORD PTR $T231277[ebp], eax
	mov	DWORD PTR __$EHRec$[ebp+8], 16		; 00000010H
	cmp	DWORD PTR $T231277[ebp], 0
	je	SHORT $LN58@CreateOper
	mov	ecx, DWORD PTR $T231277[ebp]
	call	??0CvAIOperationCityStateAttack@@QAE@XZ	; CvAIOperationCityStateAttack::CvAIOperationCityStateAttack
	mov	DWORD PTR tv331[ebp], eax
	jmp	SHORT $LN59@CreateOper
$LN58@CreateOper:
	mov	DWORD PTR tv331[ebp], 0
$LN59@CreateOper:
	mov	edx, DWORD PTR tv331[ebp]
	mov	DWORD PTR $T231276[ebp], edx
	mov	DWORD PTR __$EHRec$[ebp+8], -1
	mov	eax, DWORD PTR $T231276[ebp]
	jmp	$LN24@CreateOper
$LN4@CreateOper:

; 321  : 	case AI_OPERATION_NAVAL_ATTACK:
; 322  : 		return FNEW(CvAIOperationNavalAttack(), c_eCiv5GameplayDLL, 0);

	push	120					; 00000078H
	call	??2@YAPAXI@Z				; operator new
	add	esp, 4
	mov	DWORD PTR $T231281[ebp], eax
	mov	DWORD PTR __$EHRec$[ebp+8], 17		; 00000011H
	cmp	DWORD PTR $T231281[ebp], 0
	je	SHORT $LN60@CreateOper
	mov	ecx, DWORD PTR $T231281[ebp]
	call	??0CvAIOperationNavalAttack@@QAE@XZ	; CvAIOperationNavalAttack::CvAIOperationNavalAttack
	mov	DWORD PTR tv342[ebp], eax
	jmp	SHORT $LN61@CreateOper
$LN60@CreateOper:
	mov	DWORD PTR tv342[ebp], 0
$LN61@CreateOper:
	mov	eax, DWORD PTR tv342[ebp]
	mov	DWORD PTR $T231280[ebp], eax
	mov	DWORD PTR __$EHRec$[ebp+8], -1
	mov	eax, DWORD PTR $T231280[ebp]
	jmp	$LN24@CreateOper
$LN3@CreateOper:

; 323  : 	case AI_OPERATION_NAVAL_SNEAK_ATTACK:
; 324  : 		return FNEW(CvAIOperationNavalSneakAttack(), c_eCiv5GameplayDLL, 0);

	push	120					; 00000078H
	call	??2@YAPAXI@Z				; operator new
	add	esp, 4
	mov	DWORD PTR $T231285[ebp], eax
	mov	DWORD PTR __$EHRec$[ebp+8], 18		; 00000012H
	cmp	DWORD PTR $T231285[ebp], 0
	je	SHORT $LN62@CreateOper
	mov	ecx, DWORD PTR $T231285[ebp]
	call	??0CvAIOperationNavalSneakAttack@@QAE@XZ ; CvAIOperationNavalSneakAttack::CvAIOperationNavalSneakAttack
	mov	DWORD PTR tv353[ebp], eax
	jmp	SHORT $LN63@CreateOper
$LN62@CreateOper:
	mov	DWORD PTR tv353[ebp], 0
$LN63@CreateOper:
	mov	ecx, DWORD PTR tv353[ebp]
	mov	DWORD PTR $T231284[ebp], ecx
	mov	DWORD PTR __$EHRec$[ebp+8], -1
	mov	eax, DWORD PTR $T231284[ebp]
	jmp	$LN24@CreateOper
$LN2@CreateOper:

; 325  : 	case AI_OPERATION_CITY_STATE_NAVAL_ATTACK:
; 326  : 		return FNEW(CvAIOperationNavalCityStateAttack(), c_eCiv5GameplayDLL, 0);

	push	120					; 00000078H
	call	??2@YAPAXI@Z				; operator new
	add	esp, 4
	mov	DWORD PTR $T231289[ebp], eax
	mov	DWORD PTR __$EHRec$[ebp+8], 19		; 00000013H
	cmp	DWORD PTR $T231289[ebp], 0
	je	SHORT $LN64@CreateOper
	mov	ecx, DWORD PTR $T231289[ebp]
	call	??0CvAIOperationNavalCityStateAttack@@QAE@XZ ; CvAIOperationNavalCityStateAttack::CvAIOperationNavalCityStateAttack
	mov	DWORD PTR tv364[ebp], eax
	jmp	SHORT $LN65@CreateOper
$LN64@CreateOper:
	mov	DWORD PTR tv364[ebp], 0
$LN65@CreateOper:
	mov	edx, DWORD PTR tv364[ebp]
	mov	DWORD PTR $T231288[ebp], edx
	mov	DWORD PTR __$EHRec$[ebp+8], -1
	mov	eax, DWORD PTR $T231288[ebp]
	jmp	SHORT $LN24@CreateOper
$LN1@CreateOper:

; 327  : 	case AI_OPERATION_NUKE_ATTACK:
; 328  : 		return FNEW(CvAIOperationNukeAttack(), c_eCiv5GameplayDLL, 0);

	push	116					; 00000074H
	call	??2@YAPAXI@Z				; operator new
	add	esp, 4
	mov	DWORD PTR $T231293[ebp], eax
	mov	DWORD PTR __$EHRec$[ebp+8], 20		; 00000014H
	cmp	DWORD PTR $T231293[ebp], 0
	je	SHORT $LN66@CreateOper
	mov	ecx, DWORD PTR $T231293[ebp]
	call	??0CvAIOperationNukeAttack@@QAE@XZ	; CvAIOperationNukeAttack::CvAIOperationNukeAttack
	mov	DWORD PTR tv375[ebp], eax
	jmp	SHORT $LN67@CreateOper
$LN66@CreateOper:
	mov	DWORD PTR tv375[ebp], 0
$LN67@CreateOper:
	mov	eax, DWORD PTR tv375[ebp]
	mov	DWORD PTR $T231292[ebp], eax
	mov	DWORD PTR __$EHRec$[ebp+8], -1
	mov	eax, DWORD PTR $T231292[ebp]
	jmp	SHORT $LN24@CreateOper
$LN22@CreateOper:

; 329  : 	}
; 330  : 
; 331  : 	return 0;

	xor	eax, eax
$LN24@CreateOper:

; 332  : }

	mov	ecx, DWORD PTR __$EHRec$[ebp]
	mov	DWORD PTR fs:0, ecx
	pop	ecx
	mov	esp, ebp
	pop	ebp
	ret	0
$LN94@CreateOper:
	DD	$LN10@CreateOper
	DD	$LN9@CreateOper
	DD	$LN21@CreateOper
	DD	$LN20@CreateOper
	DD	$LN19@CreateOper
	DD	$LN11@CreateOper
	DD	$LN8@CreateOper
	DD	$LN6@CreateOper
	DD	$LN18@CreateOper
	DD	$LN16@CreateOper
	DD	$LN15@CreateOper
	DD	$LN13@CreateOper
	DD	$LN12@CreateOper
	DD	$LN4@CreateOper
	DD	$LN3@CreateOper
	DD	$LN5@CreateOper
	DD	$LN2@CreateOper
	DD	$LN1@CreateOper
	DD	$LN14@CreateOper
	DD	$LN17@CreateOper
_TEXT	ENDS
;	COMDAT text$x
text$x	SEGMENT
__unwindfunclet$?CreateOperation@CvAIOperation@@SAPAV1@W4AIOperationTypes@@W4PlayerTypes@@@Z$0:
	mov	eax, DWORD PTR $T231213[ebp]
	push	eax
	call	??3@YAXPAX@Z				; operator delete
	pop	ecx
	ret	0
__unwindfunclet$?CreateOperation@CvAIOperation@@SAPAV1@W4AIOperationTypes@@W4PlayerTypes@@@Z$1:
	mov	eax, DWORD PTR $T231217[ebp]
	push	eax
	call	??3@YAXPAX@Z				; operator delete
	pop	ecx
	ret	0
__unwindfunclet$?CreateOperation@CvAIOperation@@SAPAV1@W4AIOperationTypes@@W4PlayerTypes@@@Z$2:
	mov	eax, DWORD PTR $T231221[ebp]
	push	eax
	call	??3@YAXPAX@Z				; operator delete
	pop	ecx
	ret	0
__unwindfunclet$?CreateOperation@CvAIOperation@@SAPAV1@W4AIOperationTypes@@W4PlayerTypes@@@Z$3:
	mov	eax, DWORD PTR $T231225[ebp]
	push	eax
	call	??3@YAXPAX@Z				; operator delete
	pop	ecx
	ret	0
__unwindfunclet$?CreateOperation@CvAIOperation@@SAPAV1@W4AIOperationTypes@@W4PlayerTypes@@@Z$4:
	mov	eax, DWORD PTR $T231229[ebp]
	push	eax
	call	??3@YAXPAX@Z				; operator delete
	pop	ecx
	ret	0
__unwindfunclet$?CreateOperation@CvAIOperation@@SAPAV1@W4AIOperationTypes@@W4PlayerTypes@@@Z$5:
	mov	eax, DWORD PTR $T231233[ebp]
	push	eax
	call	??3@YAXPAX@Z				; operator delete
	pop	ecx
	ret	0
__unwindfunclet$?CreateOperation@CvAIOperation@@SAPAV1@W4AIOperationTypes@@W4PlayerTypes@@@Z$6:
	mov	eax, DWORD PTR $T231237[ebp]
	push	eax
	call	??3@YAXPAX@Z				; operator delete
	pop	ecx
	ret	0
__unwindfunclet$?CreateOperation@CvAIOperation@@SAPAV1@W4AIOperationTypes@@W4PlayerTypes@@@Z$7:
	mov	eax, DWORD PTR $T231241[ebp]
	push	eax
	call	??3@YAXPAX@Z				; operator delete
	pop	ecx
	ret	0
__unwindfunclet$?CreateOperation@CvAIOperation@@SAPAV1@W4AIOperationTypes@@W4PlayerTypes@@@Z$8:
	mov	eax, DWORD PTR $T231245[ebp]
	push	eax
	call	??3@YAXPAX@Z				; operator delete
	pop	ecx
	ret	0
__unwindfunclet$?CreateOperation@CvAIOperation@@SAPAV1@W4AIOperationTypes@@W4PlayerTypes@@@Z$9:
	mov	eax, DWORD PTR $T231249[ebp]
	push	eax
	call	??3@YAXPAX@Z				; operator delete
	pop	ecx
	ret	0
__unwindfunclet$?CreateOperation@CvAIOperation@@SAPAV1@W4AIOperationTypes@@W4PlayerTypes@@@Z$10:
	mov	eax, DWORD PTR $T231253[ebp]
	push	eax
	call	??3@YAXPAX@Z				; operator delete
	pop	ecx
	ret	0
__unwindfunclet$?CreateOperation@CvAIOperation@@SAPAV1@W4AIOperationTypes@@W4PlayerTypes@@@Z$11:
	mov	eax, DWORD PTR $T231257[ebp]
	push	eax
	call	??3@YAXPAX@Z				; operator delete
	pop	ecx
	ret	0
__unwindfunclet$?CreateOperation@CvAIOperation@@SAPAV1@W4AIOperationTypes@@W4PlayerTypes@@@Z$12:
	mov	eax, DWORD PTR $T231261[ebp]
	push	eax
	call	??3@YAXPAX@Z				; operator delete
	pop	ecx
	ret	0
__unwindfunclet$?CreateOperation@CvAIOperation@@SAPAV1@W4AIOperationTypes@@W4PlayerTypes@@@Z$13:
	mov	eax, DWORD PTR $T231265[ebp]
	push	eax
	call	??3@YAXPAX@Z				; operator delete
	pop	ecx
	ret	0
__unwindfunclet$?CreateOperation@CvAIOperation@@SAPAV1@W4AIOperationTypes@@W4PlayerTypes@@@Z$14:
	mov	eax, DWORD PTR $T231269[ebp]
	push	eax
	call	??3@YAXPAX@Z				; operator delete
	pop	ecx
	ret	0
__unwindfunclet$?CreateOperation@CvAIOperation@@SAPAV1@W4AIOperationTypes@@W4PlayerTypes@@@Z$15:
	mov	eax, DWORD PTR $T231273[ebp]
	push	eax
	call	??3@YAXPAX@Z				; operator delete
	pop	ecx
	ret	0
__unwindfunclet$?CreateOperation@CvAIOperation@@SAPAV1@W4AIOperationTypes@@W4PlayerTypes@@@Z$16:
	mov	eax, DWORD PTR $T231277[ebp]
	push	eax
	call	??3@YAXPAX@Z				; operator delete
	pop	ecx
	ret	0
__unwindfunclet$?CreateOperation@CvAIOperation@@SAPAV1@W4AIOperationTypes@@W4PlayerTypes@@@Z$17:
	mov	eax, DWORD PTR $T231281[ebp]
	push	eax
	call	??3@YAXPAX@Z				; operator delete
	pop	ecx
	ret	0
__unwindfunclet$?CreateOperation@CvAIOperation@@SAPAV1@W4AIOperationTypes@@W4PlayerTypes@@@Z$18:
	mov	eax, DWORD PTR $T231285[ebp]
	push	eax
	call	??3@YAXPAX@Z				; operator delete
	pop	ecx
	ret	0
__unwindfunclet$?CreateOperation@CvAIOperation@@SAPAV1@W4AIOperationTypes@@W4PlayerTypes@@@Z$19:
	mov	eax, DWORD PTR $T231289[ebp]
	push	eax
	call	??3@YAXPAX@Z				; operator delete
	pop	ecx
	ret	0
__unwindfunclet$?CreateOperation@CvAIOperation@@SAPAV1@W4AIOperationTypes@@W4PlayerTypes@@@Z$20:
	mov	eax, DWORD PTR $T231293[ebp]
	push	eax
	call	??3@YAXPAX@Z				; operator delete
	pop	ecx
	ret	0
__ehhandler$?CreateOperation@CvAIOperation@@SAPAV1@W4AIOperationTypes@@W4PlayerTypes@@@Z:
	mov	edx, DWORD PTR [esp+8]
	lea	eax, DWORD PTR [edx+12]
	mov	ecx, DWORD PTR [edx-268]
	xor	ecx, eax
	call	@__security_check_cookie@4
	mov	eax, OFFSET __ehfuncinfo$?CreateOperation@CvAIOperation@@SAPAV1@W4AIOperationTypes@@W4PlayerTypes@@@Z
	jmp	___CxxFrameHandler3
text$x	ENDS
?CreateOperation@CvAIOperation@@SAPAV1@W4AIOperationTypes@@W4PlayerTypes@@@Z ENDP ; CvAIOperation::CreateOperation
PUBLIC	?push_back@?$vector@UOperationSlot@@V?$allocator@UOperationSlot@@@std@@@std@@QAEXABUOperationSlot@@@Z ; std::vector<OperationSlot,std::allocator<OperationSlot> >::push_back
EXTRN	?getNumFormationSlotEntries@CvMultiUnitFormationInfo@@QBEHXZ:PROC ; CvMultiUnitFormationInfo::getNumFormationSlotEntries
EXTRN	?getMultiUnitFormationInfo@CvGlobals@@QAEPAVCvMultiUnitFormationInfo@@H@Z:PROC ; CvGlobals::getMultiUnitFormationInfo
EXTRN	?GetFormationIndex@CvArmyAI@@QBEHXZ:PROC	; CvArmyAI::GetFormationIndex
EXTRN	?GetArmyAIState@CvArmyAI@@QBE?AW4ArmyAIState@@XZ:PROC ; CvArmyAI::GetArmyAIState
; Function compile flags: /Odtp
;	COMDAT ?BuildListOfUnitsWeStillNeedToBuild@CvAIOperation@@UAEXXZ
_TEXT	SEGMENT
_this$ = -168						; size = 4
$T231460 = -108						; size = 4
$T231456 = -104						; size = 4
$T231449 = -100						; size = 4
$T231423 = -96						; size = 4
$T231407 = -92						; size = 4
$T231442 = -88						; size = 4
$T231441 = -84						; size = 4
$T231440 = -80						; size = 4
$T231439 = -76						; size = 4
$T231438 = -72						; size = 4
$T231391 = -68						; size = 4
$T231365 = -64						; size = 4
$T231349 = -60						; size = 4
$T231378 = -56						; size = 4
$T231377 = -52						; size = 4
$T231376 = -48						; size = 4
$T231375 = -44						; size = 4
$T231374 = -40						; size = 4
_thisOperationSlot$223029 = -36				; size = 12
_iThisSlotIndex$223025 = -24				; size = 4
_thisFormation$223023 = -20				; size = 4
_iThisFormationIndex$223021 = -16			; size = 4
_pThisArmy$223018 = -12					; size = 4
_uiI$223014 = -8					; size = 4
_thisPlayer$ = -4					; size = 4
?BuildListOfUnitsWeStillNeedToBuild@CvAIOperation@@UAEXXZ PROC ; CvAIOperation::BuildListOfUnitsWeStillNeedToBuild, COMDAT
; _this$ = ecx

; 336  : {

	push	ebp
	mov	ebp, esp
	sub	esp, 168				; 000000a8H
	mov	DWORD PTR _this$[ebp], ecx

; 337  : 	m_viListOfUnitsCitiesHaveCommittedToBuild.clear();

	mov	eax, DWORD PTR _this$[ebp]
	add	eax, 36					; 00000024H
	mov	DWORD PTR $T231391[ebp], eax
	mov	ecx, DWORD PTR $T231391[ebp]
	mov	edx, DWORD PTR [ecx+8]
	mov	DWORD PTR $T231349[ebp], edx
	mov	eax, DWORD PTR $T231349[ebp]
	mov	DWORD PTR $T231375[ebp], eax
	mov	ecx, DWORD PTR $T231375[ebp]
	mov	DWORD PTR $T231374[ebp], ecx
	mov	edx, DWORD PTR $T231391[ebp]
	mov	eax, DWORD PTR [edx+4]
	mov	DWORD PTR $T231365[ebp], eax
	mov	ecx, DWORD PTR $T231365[ebp]
	mov	DWORD PTR $T231377[ebp], ecx
	mov	edx, DWORD PTR $T231377[ebp]
	mov	DWORD PTR $T231376[ebp], edx
	mov	eax, DWORD PTR $T231374[ebp]
	push	eax
	mov	ecx, DWORD PTR $T231376[ebp]
	push	ecx
	lea	edx, DWORD PTR $T231378[ebp]
	push	edx
	mov	ecx, DWORD PTR $T231391[ebp]
	call	?erase@?$vector@UOperationSlot@@V?$allocator@UOperationSlot@@@std@@@std@@QAE?AV?$_Vector_iterator@UOperationSlot@@V?$allocator@UOperationSlot@@@std@@@2@V?$_Vector_const_iterator@UOperationSlot@@V?$allocator@UOperationSlot@@@std@@@2@0@Z ; std::vector<OperationSlot,std::allocator<OperationSlot> >::erase

; 338  : 	m_viListOfUnitsWeStillNeedToBuild.clear();

	mov	eax, DWORD PTR _this$[ebp]
	add	eax, 20					; 00000014H
	mov	DWORD PTR $T231449[ebp], eax
	mov	ecx, DWORD PTR $T231449[ebp]
	mov	edx, DWORD PTR [ecx+8]
	mov	DWORD PTR $T231407[ebp], edx
	mov	eax, DWORD PTR $T231407[ebp]
	mov	DWORD PTR $T231439[ebp], eax
	mov	ecx, DWORD PTR $T231439[ebp]
	mov	DWORD PTR $T231438[ebp], ecx
	mov	edx, DWORD PTR $T231449[ebp]
	mov	eax, DWORD PTR [edx+4]
	mov	DWORD PTR $T231423[ebp], eax
	mov	ecx, DWORD PTR $T231423[ebp]
	mov	DWORD PTR $T231441[ebp], ecx
	mov	edx, DWORD PTR $T231441[ebp]
	mov	DWORD PTR $T231440[ebp], edx
	mov	eax, DWORD PTR $T231438[ebp]
	push	eax
	mov	ecx, DWORD PTR $T231440[ebp]
	push	ecx
	lea	edx, DWORD PTR $T231442[ebp]
	push	edx
	mov	ecx, DWORD PTR $T231449[ebp]
	call	?erase@?$vector@UOperationSlot@@V?$allocator@UOperationSlot@@@std@@@std@@QAE?AV?$_Vector_iterator@UOperationSlot@@V?$allocator@UOperationSlot@@@std@@@2@V?$_Vector_const_iterator@UOperationSlot@@V?$allocator@UOperationSlot@@@std@@@2@0@Z ; std::vector<OperationSlot,std::allocator<OperationSlot> >::erase

; 339  : 	CvPlayer& thisPlayer = GET_PLAYER(m_eOwner);

	mov	eax, DWORD PTR _this$[ebp]
	mov	ecx, DWORD PTR [eax+72]
	imul	ecx, 63236				; 0000f704H
	add	ecx, DWORD PTR ?m_aPlayers@CvPlayerAI@@1PAV1@A ; CvPlayerAI::m_aPlayers
	mov	DWORD PTR _thisPlayer$[ebp], ecx

; 340  : 	for(unsigned int uiI = 0; uiI < m_viArmyIDs.size(); uiI++)

	mov	DWORD PTR _uiI$223014[ebp], 0
	jmp	SHORT $LN11@BuildListO
$LN10@BuildListO:
	mov	edx, DWORD PTR _uiI$223014[ebp]
	add	edx, 1
	mov	DWORD PTR _uiI$223014[ebp], edx
$LN11@BuildListO:
	mov	eax, DWORD PTR _this$[ebp]
	add	eax, 4
	mov	DWORD PTR $T231456[ebp], eax
	mov	ecx, DWORD PTR $T231456[ebp]
	mov	edx, DWORD PTR $T231456[ebp]
	mov	eax, DWORD PTR [ecx+8]
	sub	eax, DWORD PTR [edx+4]
	sar	eax, 2
	cmp	DWORD PTR _uiI$223014[ebp], eax
	jae	$LN12@BuildListO

; 341  : 	{
; 342  : 		CvArmyAI* pThisArmy = thisPlayer.getArmyAI(m_viArmyIDs[uiI]);

	mov	ecx, DWORD PTR _this$[ebp]
	mov	edx, DWORD PTR [ecx+8]
	mov	eax, DWORD PTR _uiI$223014[ebp]
	lea	ecx, DWORD PTR [edx+eax*4]
	mov	DWORD PTR $T231460[ebp], ecx
	mov	edx, DWORD PTR $T231460[ebp]
	mov	eax, DWORD PTR [edx]
	push	eax
	mov	ecx, DWORD PTR _thisPlayer$[ebp]
	call	?getArmyAI@CvPlayer@@QAEPAVCvArmyAI@@H@Z ; CvPlayer::getArmyAI
	mov	DWORD PTR _pThisArmy$223018[ebp], eax

; 343  : 		// if it is still waiting on initial units
; 344  : 		if(pThisArmy)

	cmp	DWORD PTR _pThisArmy$223018[ebp], 0
	je	$LN8@BuildListO

; 345  : 		{
; 346  : 			if(pThisArmy->GetArmyAIState() == ARMYAISTATE_WAITING_FOR_UNITS_TO_REINFORCE)

	mov	ecx, DWORD PTR _pThisArmy$223018[ebp]
	call	?GetArmyAIState@CvArmyAI@@QBE?AW4ArmyAIState@@XZ ; CvArmyAI::GetArmyAIState
	test	eax, eax
	jne	$LN8@BuildListO

; 347  : 			{
; 348  : 				int iThisFormationIndex = pThisArmy->GetFormationIndex();

	mov	ecx, DWORD PTR _pThisArmy$223018[ebp]
	call	?GetFormationIndex@CvArmyAI@@QBEHXZ	; CvArmyAI::GetFormationIndex
	mov	DWORD PTR _iThisFormationIndex$223021[ebp], eax

; 349  : 				if(iThisFormationIndex != NO_MUFORMATION)

	cmp	DWORD PTR _iThisFormationIndex$223021[ebp], -1
	je	$LN8@BuildListO

; 350  : 				{
; 351  : 					CvMultiUnitFormationInfo* thisFormation = GC.getMultiUnitFormationInfo(iThisFormationIndex);

	mov	ecx, DWORD PTR _iThisFormationIndex$223021[ebp]
	push	ecx
	mov	ecx, OFFSET ?gGlobals@@3VCvGlobals@@A	; gGlobals
	call	?getMultiUnitFormationInfo@CvGlobals@@QAEPAVCvMultiUnitFormationInfo@@H@Z ; CvGlobals::getMultiUnitFormationInfo
	mov	DWORD PTR _thisFormation$223023[ebp], eax

; 352  : 					if(thisFormation)

	cmp	DWORD PTR _thisFormation$223023[ebp], 0
	je	SHORT $LN8@BuildListO

; 353  : 					{
; 354  : 						for(int iThisSlotIndex = 0; iThisSlotIndex < thisFormation->getNumFormationSlotEntries(); iThisSlotIndex++)

	mov	DWORD PTR _iThisSlotIndex$223025[ebp], 0
	jmp	SHORT $LN4@BuildListO
$LN3@BuildListO:
	mov	edx, DWORD PTR _iThisSlotIndex$223025[ebp]
	add	edx, 1
	mov	DWORD PTR _iThisSlotIndex$223025[ebp], edx
$LN4@BuildListO:
	mov	ecx, DWORD PTR _thisFormation$223023[ebp]
	call	?getNumFormationSlotEntries@CvMultiUnitFormationInfo@@QBEHXZ ; CvMultiUnitFormationInfo::getNumFormationSlotEntries
	cmp	DWORD PTR _iThisSlotIndex$223025[ebp], eax
	jge	SHORT $LN8@BuildListO

; 355  : 						{
; 356  : 							OperationSlot thisOperationSlot;

	mov	DWORD PTR _thisOperationSlot$223029[ebp], -1
	mov	DWORD PTR _thisOperationSlot$223029[ebp+4], -1
	mov	DWORD PTR _thisOperationSlot$223029[ebp+8], -1

; 357  : 							thisOperationSlot.m_iOperationID = m_iID;

	mov	eax, DWORD PTR _this$[ebp]
	mov	ecx, DWORD PTR [eax+52]
	mov	DWORD PTR _thisOperationSlot$223029[ebp], ecx

; 358  : 							thisOperationSlot.m_iArmyID = m_viArmyIDs[uiI];

	mov	edx, DWORD PTR _this$[ebp]
	mov	eax, DWORD PTR [edx+8]
	mov	ecx, DWORD PTR _uiI$223014[ebp]
	mov	edx, DWORD PTR [eax+ecx*4]
	mov	DWORD PTR _thisOperationSlot$223029[ebp+4], edx

; 359  : 							thisOperationSlot.m_iSlotID = iThisSlotIndex;

	mov	eax, DWORD PTR _iThisSlotIndex$223025[ebp]
	mov	DWORD PTR _thisOperationSlot$223029[ebp+8], eax

; 360  : 							m_viListOfUnitsWeStillNeedToBuild.push_back(thisOperationSlot);

	lea	ecx, DWORD PTR _thisOperationSlot$223029[ebp]
	push	ecx
	mov	ecx, DWORD PTR _this$[ebp]
	add	ecx, 20					; 00000014H
	call	?push_back@?$vector@UOperationSlot@@V?$allocator@UOperationSlot@@@std@@@std@@QAEXABUOperationSlot@@@Z ; std::vector<OperationSlot,std::allocator<OperationSlot> >::push_back

; 361  : 						}

	jmp	SHORT $LN3@BuildListO
$LN8@BuildListO:

; 362  : 					}
; 363  : 				}
; 364  : 				else
; 365  : 				{
; 366  : 					// punt -- sub-class should be taking care of this
; 367  : 					CvAssertMsg(false,"A sub-class should have dealt with this");
; 368  : 				}
; 369  : 			}
; 370  : 		}

	jmp	$LN10@BuildListO
$LN12@BuildListO:

; 371  : 	}
; 372  : }

	mov	esp, ebp
	pop	ebp
	ret	0
?BuildListOfUnitsWeStillNeedToBuild@CvAIOperation@@UAEXXZ ENDP ; CvAIOperation::BuildListOfUnitsWeStillNeedToBuild
; Function compile flags: /Odtp
_TEXT	ENDS
;	COMDAT ?PeekAtNextUnitToBuild@CvAIOperation@@UAE?AUOperationSlot@@H@Z
_TEXT	SEGMENT
_this$ = -36						; size = 4
__Tmp$231666 = -32					; size = 4
$T231609 = -28						; size = 4
$T231651 = -24						; size = 4
$T231650 = -20						; size = 4
$T231596 = -16						; size = 4
_thisSlot$ = -12					; size = 12
___$ReturnUdt$ = 8					; size = 4
_iAreaID$ = 12						; size = 4
?PeekAtNextUnitToBuild@CvAIOperation@@UAE?AUOperationSlot@@H@Z PROC ; CvAIOperation::PeekAtNextUnitToBuild, COMDAT
; _this$ = ecx

; 376  : {

	push	ebp
	mov	ebp, esp
	sub	esp, 36					; 00000024H
	mov	DWORD PTR _this$[ebp], ecx

; 377  : 	OperationSlot thisSlot;

	mov	DWORD PTR _thisSlot$[ebp], -1
	mov	DWORD PTR _thisSlot$[ebp+4], -1
	mov	DWORD PTR _thisSlot$[ebp+8], -1

; 378  : 	if(iAreaID == m_iDefaultArea && !m_viListOfUnitsWeStillNeedToBuild.empty())

	mov	eax, DWORD PTR _this$[ebp]
	mov	ecx, DWORD PTR _iAreaID$[ebp]
	cmp	ecx, DWORD PTR [eax+64]
	jne	SHORT $LN1@PeekAtNext
	mov	edx, DWORD PTR _this$[ebp]
	add	edx, 20					; 00000014H
	mov	DWORD PTR $T231596[ebp], edx
	mov	eax, DWORD PTR $T231596[ebp]
	mov	ecx, DWORD PTR $T231596[ebp]
	mov	eax, DWORD PTR [eax+8]
	sub	eax, DWORD PTR [ecx+4]
	cdq
	mov	ecx, 12					; 0000000cH
	idiv	ecx
	neg	eax
	sbb	eax, eax
	add	eax, 1
	movzx	edx, al
	test	edx, edx
	jne	SHORT $LN1@PeekAtNext

; 379  : 	{
; 380  : 		thisSlot = m_viListOfUnitsWeStillNeedToBuild.back();

	mov	eax, DWORD PTR _this$[ebp]
	mov	ecx, DWORD PTR [eax+28]
	mov	DWORD PTR $T231609[ebp], ecx
	mov	edx, DWORD PTR $T231609[ebp]
	mov	DWORD PTR $T231650[ebp], edx
	mov	eax, DWORD PTR $T231650[ebp]
	mov	DWORD PTR __Tmp$231666[ebp], eax
	mov	ecx, 1
	neg	ecx
	imul	ecx, 12					; 0000000cH
	add	ecx, DWORD PTR __Tmp$231666[ebp]
	mov	DWORD PTR __Tmp$231666[ebp], ecx
	mov	edx, DWORD PTR __Tmp$231666[ebp]
	mov	DWORD PTR $T231651[ebp], edx
	mov	eax, DWORD PTR $T231651[ebp]
	mov	ecx, DWORD PTR [eax]
	mov	DWORD PTR _thisSlot$[ebp], ecx
	mov	edx, DWORD PTR [eax+4]
	mov	DWORD PTR _thisSlot$[ebp+4], edx
	mov	eax, DWORD PTR [eax+8]
	mov	DWORD PTR _thisSlot$[ebp+8], eax
$LN1@PeekAtNext:

; 381  : 	}
; 382  : 	return thisSlot;

	mov	ecx, DWORD PTR ___$ReturnUdt$[ebp]
	mov	edx, DWORD PTR _thisSlot$[ebp]
	mov	DWORD PTR [ecx], edx
	mov	eax, DWORD PTR _thisSlot$[ebp+4]
	mov	DWORD PTR [ecx+4], eax
	mov	edx, DWORD PTR _thisSlot$[ebp+8]
	mov	DWORD PTR [ecx+8], edx
	mov	eax, DWORD PTR ___$ReturnUdt$[ebp]

; 383  : }

	mov	esp, ebp
	pop	ebp
	ret	8
?PeekAtNextUnitToBuild@CvAIOperation@@UAE?AUOperationSlot@@H@Z ENDP ; CvAIOperation::PeekAtNextUnitToBuild
_TEXT	ENDS
PUBLIC	?plotDistance@@YAHHHHH@Z			; plotDistance
PUBLIC	?pop_back@?$vector@UOperationSlot@@V?$allocator@UOperationSlot@@@std@@@std@@QAEXXZ ; std::vector<OperationSlot,std::allocator<OperationSlot> >::pop_back
EXTRN	?SetEstimatedTurn@CvArmyAI@@QAEXHH@Z:PROC	; CvArmyAI::SetEstimatedTurn
EXTRN	?GetX@CvArmyAI@@QBEHXZ:PROC			; CvArmyAI::GetX
EXTRN	?GetY@CvArmyAI@@QBEHXZ:PROC			; CvArmyAI::GetY
; Function compile flags: /Odtp
;	COMDAT ?CommitToBuildNextUnit@CvAIOperation@@UAE?AUOperationSlot@@HHPAVCvCity@@@Z
_TEXT	SEGMENT
_this$ = -208						; size = 4
$T231947 = -124						; size = 4
$T231938 = -120						; size = 4
$T231929 = -116						; size = 4
__Tmp$231755 = -40					; size = 4
$T231698 = -36						; size = 4
$T231740 = -32						; size = 4
$T231739 = -28						; size = 4
$T231685 = -24						; size = 4
_iTurnsFromCityToMusterGuess$223049 = -20		; size = 4
_pArmy$223047 = -16					; size = 4
_thisSlot$ = -12					; size = 12
___$ReturnUdt$ = 8					; size = 4
_iAreaID$ = 12						; size = 4
_iTurns$ = 16						; size = 4
_pCity$ = 20						; size = 4
?CommitToBuildNextUnit@CvAIOperation@@UAE?AUOperationSlot@@HHPAVCvCity@@@Z PROC ; CvAIOperation::CommitToBuildNextUnit, COMDAT
; _this$ = ecx

; 387  : {

	push	ebp
	mov	ebp, esp
	sub	esp, 208				; 000000d0H
	mov	DWORD PTR _this$[ebp], ecx

; 388  : 	OperationSlot thisSlot;

	mov	DWORD PTR _thisSlot$[ebp], -1
	mov	DWORD PTR _thisSlot$[ebp+4], -1
	mov	DWORD PTR _thisSlot$[ebp+8], -1

; 389  : 	if(iAreaID == m_iDefaultArea && !m_viListOfUnitsWeStillNeedToBuild.empty())

	mov	eax, DWORD PTR _this$[ebp]
	mov	ecx, DWORD PTR _iAreaID$[ebp]
	cmp	ecx, DWORD PTR [eax+64]
	jne	$LN2@CommitToBu
	mov	edx, DWORD PTR _this$[ebp]
	add	edx, 20					; 00000014H
	mov	DWORD PTR $T231685[ebp], edx
	mov	eax, DWORD PTR $T231685[ebp]
	mov	ecx, DWORD PTR $T231685[ebp]
	mov	eax, DWORD PTR [eax+8]
	sub	eax, DWORD PTR [ecx+4]
	cdq
	mov	ecx, 12					; 0000000cH
	idiv	ecx
	neg	eax
	sbb	eax, eax
	add	eax, 1
	movzx	edx, al
	test	edx, edx
	jne	$LN2@CommitToBu

; 390  : 	{
; 391  : 		thisSlot = m_viListOfUnitsWeStillNeedToBuild.back();

	mov	eax, DWORD PTR _this$[ebp]
	mov	ecx, DWORD PTR [eax+28]
	mov	DWORD PTR $T231698[ebp], ecx
	mov	edx, DWORD PTR $T231698[ebp]
	mov	DWORD PTR $T231739[ebp], edx
	mov	eax, DWORD PTR $T231739[ebp]
	mov	DWORD PTR __Tmp$231755[ebp], eax
	mov	ecx, 1
	neg	ecx
	imul	ecx, 12					; 0000000cH
	add	ecx, DWORD PTR __Tmp$231755[ebp]
	mov	DWORD PTR __Tmp$231755[ebp], ecx
	mov	edx, DWORD PTR __Tmp$231755[ebp]
	mov	DWORD PTR $T231740[ebp], edx
	mov	eax, DWORD PTR $T231740[ebp]
	mov	ecx, DWORD PTR [eax]
	mov	DWORD PTR _thisSlot$[ebp], ecx
	mov	edx, DWORD PTR [eax+4]
	mov	DWORD PTR _thisSlot$[ebp+4], edx
	mov	eax, DWORD PTR [eax+8]
	mov	DWORD PTR _thisSlot$[ebp+8], eax

; 392  : 		m_viListOfUnitsWeStillNeedToBuild.pop_back();

	mov	ecx, DWORD PTR _this$[ebp]
	add	ecx, 20					; 00000014H
	call	?pop_back@?$vector@UOperationSlot@@V?$allocator@UOperationSlot@@@std@@@std@@QAEXXZ ; std::vector<OperationSlot,std::allocator<OperationSlot> >::pop_back

; 393  : 		m_viListOfUnitsCitiesHaveCommittedToBuild.push_back(thisSlot);

	lea	ecx, DWORD PTR _thisSlot$[ebp]
	push	ecx
	mov	ecx, DWORD PTR _this$[ebp]
	add	ecx, 36					; 00000024H
	call	?push_back@?$vector@UOperationSlot@@V?$allocator@UOperationSlot@@@std@@@std@@QAEXABUOperationSlot@@@Z ; std::vector<OperationSlot,std::allocator<OperationSlot> >::push_back

; 394  : 
; 395  : 		CvArmyAI* pArmy = GET_PLAYER(m_eOwner).getArmyAI(thisSlot.m_iArmyID);

	mov	edx, DWORD PTR _this$[ebp]
	mov	eax, DWORD PTR [edx+72]
	imul	eax, 63236				; 0000f704H
	add	eax, DWORD PTR ?m_aPlayers@CvPlayerAI@@1PAV1@A ; CvPlayerAI::m_aPlayers
	mov	DWORD PTR $T231929[ebp], eax
	mov	ecx, DWORD PTR _thisSlot$[ebp+4]
	push	ecx
	mov	ecx, DWORD PTR $T231929[ebp]
	call	?getArmyAI@CvPlayer@@QAEPAVCvArmyAI@@H@Z ; CvPlayer::getArmyAI
	mov	DWORD PTR _pArmy$223047[ebp], eax

; 396  : 		if(pArmy)

	cmp	DWORD PTR _pArmy$223047[ebp], 0
	je	SHORT $LN2@CommitToBu

; 397  : 		{
; 398  : 			int iTurnsFromCityToMusterGuess;
; 399  : 			iTurnsFromCityToMusterGuess = plotDistance(pCity->getX(), pCity->getY(), pArmy->GetX(), pArmy->GetY()) / 2;

	mov	edx, DWORD PTR _pCity$[ebp]
	mov	eax, DWORD PTR [edx+108]
	mov	DWORD PTR $T231938[ebp], eax
	mov	ecx, DWORD PTR _pCity$[ebp]
	mov	edx, DWORD PTR [ecx+96]
	mov	DWORD PTR $T231947[ebp], edx
	mov	ecx, DWORD PTR _pArmy$223047[ebp]
	call	?GetY@CvArmyAI@@QBEHXZ			; CvArmyAI::GetY
	push	eax
	mov	ecx, DWORD PTR _pArmy$223047[ebp]
	call	?GetX@CvArmyAI@@QBEHXZ			; CvArmyAI::GetX
	push	eax
	mov	eax, DWORD PTR $T231938[ebp]
	push	eax
	mov	ecx, DWORD PTR $T231947[ebp]
	push	ecx
	call	?plotDistance@@YAHHHHH@Z		; plotDistance
	add	esp, 16					; 00000010H
	cdq
	sub	eax, edx
	sar	eax, 1
	mov	DWORD PTR _iTurnsFromCityToMusterGuess$223049[ebp], eax

; 400  : 			pArmy->SetEstimatedTurn(thisSlot.m_iSlotID, iTurns + iTurnsFromCityToMusterGuess);

	mov	edx, DWORD PTR _iTurns$[ebp]
	add	edx, DWORD PTR _iTurnsFromCityToMusterGuess$223049[ebp]
	push	edx
	mov	eax, DWORD PTR _thisSlot$[ebp+8]
	push	eax
	mov	ecx, DWORD PTR _pArmy$223047[ebp]
	call	?SetEstimatedTurn@CvArmyAI@@QAEXHH@Z	; CvArmyAI::SetEstimatedTurn
$LN2@CommitToBu:

; 401  : 		}
; 402  : 	}
; 403  : 	return thisSlot;

	mov	ecx, DWORD PTR ___$ReturnUdt$[ebp]
	mov	edx, DWORD PTR _thisSlot$[ebp]
	mov	DWORD PTR [ecx], edx
	mov	eax, DWORD PTR _thisSlot$[ebp+4]
	mov	DWORD PTR [ecx+4], eax
	mov	edx, DWORD PTR _thisSlot$[ebp+8]
	mov	DWORD PTR [ecx+8], edx
	mov	eax, DWORD PTR ___$ReturnUdt$[ebp]

; 404  : }

	mov	esp, ebp
	pop	ebp
	ret	16					; 00000010H
?CommitToBuildNextUnit@CvAIOperation@@UAE?AUOperationSlot@@HHPAVCvCity@@@Z ENDP ; CvAIOperation::CommitToBuildNextUnit
_TEXT	ENDS
PUBLIC	?dyWrap@@YAHH@Z					; dyWrap
PUBLIC	?dxWrap@@YAHH@Z					; dxWrap
; Function compile flags: /Odtp
; File d:\sources\lekmod_git\checkout\lekmod_dll\cvgamecoredll_expansion2\cvgamecoreutils.h
;	COMDAT ?plotDistance@@YAHHHHH@Z
_TEXT	SEGMENT
tv157 = -92						; size = 4
tv138 = -88						; size = 4
tv135 = -84						; size = 4
$T232116 = -80						; size = 4
$T232089 = -60						; size = 4
_iDY$ = -24						; size = 4
_iDX$ = -20						; size = 4
_iWrappedDX$ = -16					; size = 4
_iHX1$ = -12						; size = 4
_iHX2$ = -8						; size = 4
_iWrappedDY$ = -4					; size = 4
_iX1$ = 8						; size = 4
_iY1$ = 12						; size = 4
_iX2$ = 16						; size = 4
_iY2$ = 20						; size = 4
?plotDistance@@YAHHHHH@Z PROC				; plotDistance, COMDAT

; 144  : {

	push	ebp
	mov	ebp, esp
	sub	esp, 92					; 0000005cH

; 145  : 	int iDX;
; 146  : 	int iWrappedDX = dxWrap(iX2 - iX1);

	mov	eax, DWORD PTR _iX2$[ebp]
	sub	eax, DWORD PTR _iX1$[ebp]
	push	eax
	call	?dxWrap@@YAHH@Z				; dxWrap
	add	esp, 4
	mov	DWORD PTR _iWrappedDX$[ebp], eax

; 147  : 	int iWrappedDY = dyWrap(iY2 - iY1);

	mov	ecx, DWORD PTR _iY2$[ebp]
	sub	ecx, DWORD PTR _iY1$[ebp]
	push	ecx
	call	?dyWrap@@YAHH@Z				; dyWrap
	add	esp, 4
	mov	DWORD PTR _iWrappedDY$[ebp], eax

; 148  : 	int iDY = abs(iWrappedDY);

	mov	eax, DWORD PTR _iWrappedDY$[ebp]
	cdq
	xor	eax, edx
	sub	eax, edx
	mov	DWORD PTR _iDY$[ebp], eax

; 149  : 
; 150  : 	// convert to hex-space coordinates - the coordinate system axes are E and NE (not orthogonal)
; 151  : 	int iHX1 = xToHexspaceX(iX1, iY1);

	cmp	DWORD PTR _iY1$[ebp], 0
	jl	SHORT $LN35@plotDistan
	mov	edx, DWORD PTR _iY1$[ebp]
	sar	edx, 1
	mov	DWORD PTR tv135[ebp], edx
	jmp	SHORT $LN33@plotDistan
$LN35@plotDistan:
	mov	eax, DWORD PTR _iY1$[ebp]
	sub	eax, 1
	cdq
	sub	eax, edx
	sar	eax, 1
	mov	DWORD PTR tv135[ebp], eax
$LN33@plotDistan:
	mov	eax, DWORD PTR _iX1$[ebp]
	sub	eax, DWORD PTR tv135[ebp]
	mov	DWORD PTR _iHX1$[ebp], eax

; 152  : 	int iHX2 = xToHexspaceX(iX1 + iWrappedDX, iY1 + iWrappedDY);

	mov	ecx, DWORD PTR _iY1$[ebp]
	add	ecx, DWORD PTR _iWrappedDY$[ebp]
	mov	DWORD PTR $T232089[ebp], ecx
	js	SHORT $LN39@plotDistan
	mov	edx, DWORD PTR $T232089[ebp]
	sar	edx, 1
	mov	DWORD PTR tv138[ebp], edx
	jmp	SHORT $LN37@plotDistan
$LN39@plotDistan:
	mov	eax, DWORD PTR $T232089[ebp]
	sub	eax, 1
	cdq
	sub	eax, edx
	sar	eax, 1
	mov	DWORD PTR tv138[ebp], eax
$LN37@plotDistan:
	mov	eax, DWORD PTR _iX1$[ebp]
	add	eax, DWORD PTR _iWrappedDX$[ebp]
	sub	eax, DWORD PTR tv138[ebp]
	mov	DWORD PTR _iHX2$[ebp], eax

; 153  : 
; 154  : 	iDX = abs(dxWrap(iHX2 - iHX1));

	mov	ecx, DWORD PTR _iHX2$[ebp]
	sub	ecx, DWORD PTR _iHX1$[ebp]
	push	ecx
	call	?dxWrap@@YAHH@Z				; dxWrap
	add	esp, 4
	cdq
	xor	eax, edx
	sub	eax, edx
	mov	DWORD PTR _iDX$[ebp], eax

; 155  : 
; 156  : #ifdef NQM_GAME_CORE_UTILS_OPTIMIZATIONS
; 157  : 	if (((iHX2 - iHX1) ^ (iWrappedDY)) >= 0)  // the signs match
; 158  : #else
; 159  : 	if((iHX2 - iHX1 >= 0) == (iWrappedDY >= 0))  // the signs match

	mov	edx, DWORD PTR _iHX2$[ebp]
	sub	edx, DWORD PTR _iHX1$[ebp]
	xor	eax, eax
	test	edx, edx
	setge	al
	xor	ecx, ecx
	cmp	DWORD PTR _iWrappedDY$[ebp], 0
	setge	cl
	cmp	eax, ecx
	jne	SHORT $LN2@plotDistan

; 160  : #endif
; 161  : 	{
; 162  : 		return iDX + iDY;

	mov	eax, DWORD PTR _iDX$[ebp]
	add	eax, DWORD PTR _iDY$[ebp]
	jmp	SHORT $LN3@plotDistan

; 163  : 	}
; 164  : 	else

	jmp	SHORT $LN3@plotDistan
$LN2@plotDistan:

; 165  : 	{
; 166  : #ifdef NQM_FAST_COMP
; 167  : 		return (MAX(iDX, iDY));
; 168  : #else
; 169  : 		return (std::max(iDX, iDY));

	mov	edx, DWORD PTR _iDX$[ebp]
	cmp	edx, DWORD PTR _iDY$[ebp]
	jge	SHORT $LN57@plotDistan
	lea	eax, DWORD PTR _iDY$[ebp]
	mov	DWORD PTR tv157[ebp], eax
	jmp	SHORT $LN58@plotDistan
$LN57@plotDistan:
	lea	ecx, DWORD PTR _iDX$[ebp]
	mov	DWORD PTR tv157[ebp], ecx
$LN58@plotDistan:
	mov	edx, DWORD PTR tv157[ebp]
	mov	DWORD PTR $T232116[ebp], edx
	mov	eax, DWORD PTR $T232116[ebp]
	mov	eax, DWORD PTR [eax]
$LN3@plotDistan:

; 170  : #endif
; 171  : 	}
; 172  : }

	mov	esp, ebp
	pop	ebp
	ret	0
?plotDistance@@YAHHHHH@Z ENDP				; plotDistance
; Function compile flags: /Odtp
_TEXT	ENDS
;	COMDAT ?dxWrap@@YAHH@Z
_TEXT	SEGMENT
$T232139 = -16						; size = 4
$T232131 = -12						; size = 4
$T232127 = -5						; size = 1
_kMap$ = -4						; size = 4
_iDX$ = 8						; size = 4
?dxWrap@@YAHH@Z PROC					; dxWrap, COMDAT

; 73   : {

	push	ebp
	mov	ebp, esp
	sub	esp, 16					; 00000010H

; 74   : 	const CvMap& kMap = GC.getMap();

	mov	eax, DWORD PTR ?gGlobals@@3VCvGlobals@@A+52
	mov	DWORD PTR _kMap$[ebp], eax

; 75   : 	return wrapCoordDifference(iDX, kMap.getGridWidth(), kMap.isWrapX());

	mov	ecx, DWORD PTR _kMap$[ebp]
	mov	dl, BYTE PTR [ecx+4056]
	mov	BYTE PTR $T232127[ebp], dl
	mov	eax, DWORD PTR _kMap$[ebp]
	mov	ecx, DWORD PTR [eax+4020]
	mov	DWORD PTR $T232131[ebp], ecx
	movzx	edx, BYTE PTR $T232127[ebp]
	test	edx, edx
	je	SHORT $LN12@dxWrap
	mov	eax, DWORD PTR $T232131[ebp]
	shr	eax, 1
	cmp	DWORD PTR _iDX$[ebp], eax
	jle	SHORT $LN11@dxWrap
	mov	ecx, DWORD PTR _iDX$[ebp]
	sub	ecx, DWORD PTR $T232131[ebp]
	mov	DWORD PTR $T232139[ebp], ecx
	jmp	SHORT $LN13@dxWrap
	jmp	SHORT $LN12@dxWrap
$LN11@dxWrap:
	mov	edx, DWORD PTR $T232131[ebp]
	shr	edx, 1
	neg	edx
	cmp	DWORD PTR _iDX$[ebp], edx
	jge	SHORT $LN12@dxWrap
	mov	eax, DWORD PTR _iDX$[ebp]
	add	eax, DWORD PTR $T232131[ebp]
	mov	DWORD PTR $T232139[ebp], eax
	jmp	SHORT $LN13@dxWrap
$LN12@dxWrap:
	mov	ecx, DWORD PTR _iDX$[ebp]
	mov	DWORD PTR $T232139[ebp], ecx
$LN13@dxWrap:
	mov	eax, DWORD PTR $T232139[ebp]

; 76   : }

	mov	esp, ebp
	pop	ebp
	ret	0
?dxWrap@@YAHH@Z ENDP					; dxWrap
; Function compile flags: /Odtp
_TEXT	ENDS
;	COMDAT ?dyWrap@@YAHH@Z
_TEXT	SEGMENT
$T232160 = -16						; size = 4
$T232152 = -12						; size = 4
$T232148 = -5						; size = 1
_kMap$ = -4						; size = 4
_iDY$ = 8						; size = 4
?dyWrap@@YAHH@Z PROC					; dyWrap, COMDAT

; 79   : {

	push	ebp
	mov	ebp, esp
	sub	esp, 16					; 00000010H

; 80   : 	const CvMap& kMap = GC.getMap();

	mov	eax, DWORD PTR ?gGlobals@@3VCvGlobals@@A+52
	mov	DWORD PTR _kMap$[ebp], eax

; 81   : 	return wrapCoordDifference(iDY, kMap.getGridHeight(), kMap.isWrapY());

	mov	ecx, DWORD PTR _kMap$[ebp]
	mov	dl, BYTE PTR [ecx+4057]
	mov	BYTE PTR $T232148[ebp], dl
	mov	eax, DWORD PTR _kMap$[ebp]
	mov	ecx, DWORD PTR [eax+4024]
	mov	DWORD PTR $T232152[ebp], ecx
	movzx	edx, BYTE PTR $T232148[ebp]
	test	edx, edx
	je	SHORT $LN12@dyWrap
	mov	eax, DWORD PTR $T232152[ebp]
	shr	eax, 1
	cmp	DWORD PTR _iDY$[ebp], eax
	jle	SHORT $LN11@dyWrap
	mov	ecx, DWORD PTR _iDY$[ebp]
	sub	ecx, DWORD PTR $T232152[ebp]
	mov	DWORD PTR $T232160[ebp], ecx
	jmp	SHORT $LN13@dyWrap
	jmp	SHORT $LN12@dyWrap
$LN11@dyWrap:
	mov	edx, DWORD PTR $T232152[ebp]
	shr	edx, 1
	neg	edx
	cmp	DWORD PTR _iDY$[ebp], edx
	jge	SHORT $LN12@dyWrap
	mov	eax, DWORD PTR _iDY$[ebp]
	add	eax, DWORD PTR $T232152[ebp]
	mov	DWORD PTR $T232160[ebp], eax
	jmp	SHORT $LN13@dyWrap
$LN12@dyWrap:
	mov	ecx, DWORD PTR _iDY$[ebp]
	mov	DWORD PTR $T232160[ebp], ecx
$LN13@dyWrap:
	mov	eax, DWORD PTR $T232160[ebp]

; 82   : }

	mov	esp, ebp
	pop	ebp
	ret	0
?dyWrap@@YAHH@Z ENDP					; dyWrap
_TEXT	ENDS
PUBLIC	?erase@?$vector@UOperationSlot@@V?$allocator@UOperationSlot@@@std@@@std@@QAE?AV?$_Vector_iterator@UOperationSlot@@V?$allocator@UOperationSlot@@@std@@@2@V?$_Vector_const_iterator@UOperationSlot@@V?$allocator@UOperationSlot@@@std@@@2@@Z ; std::vector<OperationSlot,std::allocator<OperationSlot> >::erase
; Function compile flags: /Odtp
; File d:\sources\lekmod_git\checkout\lekmod_dll\cvgamecoredll_expansion2\cvaioperation.cpp
;	COMDAT ?UncommitToBuild@CvAIOperation@@UAE_NUOperationSlot@@@Z
_TEXT	SEGMENT
tv192 = -176						; size = 4
_this$ = -172						; size = 4
$T232294 = -56						; size = 4
$T232284 = -52						; size = 4
$T232258 = -48						; size = 4
$T232257 = -44						; size = 4
$T232227 = -40						; size = 4
$T232261 = -36						; size = 4
$T232193 = -32						; size = 4
$T232177 = -28						; size = 4
$T232167 = -24						; size = 4
$T232166 = -20						; size = 4
$T232165 = -16						; size = 4
$T232164 = -12						; size = 4
$T232163 = -8						; size = 4
_iter$ = -4						; size = 4
_thisOperationSlot$ = 8					; size = 12
?UncommitToBuild@CvAIOperation@@UAE_NUOperationSlot@@@Z PROC ; CvAIOperation::UncommitToBuild, COMDAT
; _this$ = ecx

; 412  : {

	push	ebp
	mov	ebp, esp
	sub	esp, 176				; 000000b0H
	mov	DWORD PTR _this$[ebp], ecx

; 413  : 	// find the operation in the list of committed units
; 414  : 	std::vector<OperationSlot>::iterator iter = find(m_viListOfUnitsCitiesHaveCommittedToBuild.begin(),m_viListOfUnitsCitiesHaveCommittedToBuild.end(),thisOperationSlot);

	mov	eax, DWORD PTR _this$[ebp]
	mov	ecx, DWORD PTR [eax+44]
	mov	DWORD PTR $T232177[ebp], ecx
	mov	edx, DWORD PTR $T232177[ebp]
	mov	DWORD PTR $T232163[ebp], edx
	mov	eax, DWORD PTR _this$[ebp]
	mov	ecx, DWORD PTR [eax+40]
	mov	DWORD PTR $T232193[ebp], ecx
	mov	edx, DWORD PTR $T232193[ebp]
	mov	DWORD PTR $T232164[ebp], edx
	mov	eax, DWORD PTR $T232164[ebp]
	mov	DWORD PTR $T232284[ebp], eax
	mov	ecx, DWORD PTR $T232163[ebp]
	mov	DWORD PTR $T232258[ebp], ecx
	mov	edx, DWORD PTR $T232284[ebp]
	mov	DWORD PTR $T232257[ebp], edx
	jmp	SHORT $LN28@UncommitTo
$LN20@UncommitTo:
	mov	eax, DWORD PTR $T232257[ebp]
	add	eax, 12					; 0000000cH
	mov	DWORD PTR $T232257[ebp], eax
$LN28@UncommitTo:
	mov	ecx, DWORD PTR $T232257[ebp]
	xor	edx, edx
	cmp	ecx, DWORD PTR $T232258[ebp]
	sete	dl
	movzx	eax, dl
	neg	eax
	sbb	eax, eax
	add	eax, 1
	movzx	ecx, al
	test	ecx, ecx
	je	SHORT $LN19@UncommitTo
	mov	edx, DWORD PTR $T232257[ebp]
	mov	DWORD PTR $T232227[ebp], edx
	mov	eax, DWORD PTR $T232227[ebp]
	mov	ecx, DWORD PTR _thisOperationSlot$[ebp+4]
	cmp	ecx, DWORD PTR [eax+4]
	jne	SHORT $LN38@UncommitTo
	mov	edx, DWORD PTR $T232227[ebp]
	mov	eax, DWORD PTR _thisOperationSlot$[ebp+8]
	cmp	eax, DWORD PTR [edx+8]
	jne	SHORT $LN38@UncommitTo
	mov	ecx, DWORD PTR $T232227[ebp]
	mov	edx, DWORD PTR _thisOperationSlot$[ebp]
	cmp	edx, DWORD PTR [ecx]
	jne	SHORT $LN38@UncommitTo
	mov	DWORD PTR tv192[ebp], 1
	jmp	SHORT $LN36@UncommitTo
$LN38@UncommitTo:
	mov	DWORD PTR tv192[ebp], 0
$LN36@UncommitTo:
	movzx	eax, BYTE PTR tv192[ebp]
	test	eax, eax
	je	SHORT $LN18@UncommitTo
	jmp	SHORT $LN19@UncommitTo
$LN18@UncommitTo:
	jmp	SHORT $LN20@UncommitTo
$LN19@UncommitTo:
	mov	ecx, DWORD PTR $T232257[ebp]
	mov	DWORD PTR $T232261[ebp], ecx
	mov	edx, DWORD PTR $T232261[ebp]
	mov	DWORD PTR $T232284[ebp], edx
	mov	eax, DWORD PTR $T232284[ebp]
	mov	DWORD PTR _iter$[ebp], eax

; 415  : 	// if we found it
; 416  : 	if(iter != m_viListOfUnitsCitiesHaveCommittedToBuild.end())

	mov	ecx, DWORD PTR _this$[ebp]
	mov	edx, DWORD PTR [ecx+44]
	mov	DWORD PTR $T232294[ebp], edx
	mov	eax, DWORD PTR $T232294[ebp]
	mov	DWORD PTR $T232165[ebp], eax
	mov	ecx, DWORD PTR _iter$[ebp]
	xor	edx, edx
	cmp	ecx, DWORD PTR $T232165[ebp]
	sete	dl
	movzx	eax, dl
	neg	eax
	sbb	eax, eax
	add	eax, 1
	movzx	ecx, al
	test	ecx, ecx
	je	SHORT $LN1@UncommitTo

; 417  : 	{
; 418  : 		// add it to the list of stuff that needs to be built
; 419  : 		m_viListOfUnitsWeStillNeedToBuild.push_back(*iter);

	mov	edx, DWORD PTR _iter$[ebp]
	push	edx
	mov	ecx, DWORD PTR _this$[ebp]
	add	ecx, 20					; 00000014H
	call	?push_back@?$vector@UOperationSlot@@V?$allocator@UOperationSlot@@@std@@@std@@QAEXABUOperationSlot@@@Z ; std::vector<OperationSlot,std::allocator<OperationSlot> >::push_back

; 420  : 		// remove it from the list of committed units
; 421  : 		m_viListOfUnitsCitiesHaveCommittedToBuild.erase(iter);

	mov	eax, DWORD PTR _iter$[ebp]
	mov	DWORD PTR $T232166[ebp], eax
	mov	ecx, DWORD PTR $T232166[ebp]
	push	ecx
	lea	edx, DWORD PTR $T232167[ebp]
	push	edx
	mov	ecx, DWORD PTR _this$[ebp]
	add	ecx, 36					; 00000024H
	call	?erase@?$vector@UOperationSlot@@V?$allocator@UOperationSlot@@@std@@@std@@QAE?AV?$_Vector_iterator@UOperationSlot@@V?$allocator@UOperationSlot@@@std@@@2@V?$_Vector_const_iterator@UOperationSlot@@V?$allocator@UOperationSlot@@@std@@@2@@Z ; std::vector<OperationSlot,std::allocator<OperationSlot> >::erase

; 422  : 		return true;

	mov	al, 1
	jmp	SHORT $LN2@UncommitTo
$LN1@UncommitTo:

; 423  : 	}
; 424  : 	return false;

	xor	al, al
$LN2@UncommitTo:

; 425  : }

	mov	esp, ebp
	pop	ebp
	ret	12					; 0000000cH
?UncommitToBuild@CvAIOperation@@UAE_NUOperationSlot@@@Z ENDP ; CvAIOperation::UncommitToBuild
_TEXT	ENDS
EXTRN	?SetArmyAIState@CvArmyAI@@QAEXW4ArmyAIState@@@Z:PROC ; CvArmyAI::SetArmyAIState
; Function compile flags: /Odtp
;	COMDAT ?FinishedBuilding@CvAIOperation@@UAE_NUOperationSlot@@@Z
_TEXT	SEGMENT
tv217 = -132						; size = 4
_this$ = -128						; size = 4
$T232824 = -124						; size = 4
$T232820 = -120						; size = 4
$T232816 = -116						; size = 4
$T232812 = -112						; size = 4
$T232685 = -64						; size = 4
$T232675 = -60						; size = 4
$T232649 = -56						; size = 4
$T232648 = -52						; size = 4
$T232618 = -48						; size = 4
$T232651 = -44						; size = 4
$T232584 = -40						; size = 4
$T232568 = -36						; size = 4
$T232558 = -32						; size = 4
$T232557 = -28						; size = 4
$T232556 = -24						; size = 4
$T232555 = -20						; size = 4
$T232554 = -16						; size = 4
_pThisArmy$223241 = -12					; size = 4
_uiI$223237 = -8					; size = 4
_iter$ = -4						; size = 4
_thisOperationSlot$ = 8					; size = 12
?FinishedBuilding@CvAIOperation@@UAE_NUOperationSlot@@@Z PROC ; CvAIOperation::FinishedBuilding, COMDAT
; _this$ = ecx

; 433  : {

	push	ebp
	mov	ebp, esp
	sub	esp, 132				; 00000084H
	mov	DWORD PTR _this$[ebp], ecx

; 434  : 	// find the operation in the list of committed units
; 435  : 	std::vector<OperationSlot>::iterator iter = find(m_viListOfUnitsCitiesHaveCommittedToBuild.begin(),m_viListOfUnitsCitiesHaveCommittedToBuild.end(),thisOperationSlot);

	mov	eax, DWORD PTR _this$[ebp]
	mov	ecx, DWORD PTR [eax+44]
	mov	DWORD PTR $T232568[ebp], ecx
	mov	edx, DWORD PTR $T232568[ebp]
	mov	DWORD PTR $T232554[ebp], edx
	mov	eax, DWORD PTR _this$[ebp]
	mov	ecx, DWORD PTR [eax+40]
	mov	DWORD PTR $T232584[ebp], ecx
	mov	edx, DWORD PTR $T232584[ebp]
	mov	DWORD PTR $T232555[ebp], edx
	mov	eax, DWORD PTR $T232555[ebp]
	mov	DWORD PTR $T232675[ebp], eax
	mov	ecx, DWORD PTR $T232554[ebp]
	mov	DWORD PTR $T232649[ebp], ecx
	mov	edx, DWORD PTR $T232675[ebp]
	mov	DWORD PTR $T232648[ebp], edx
	jmp	SHORT $LN33@FinishedBu
$LN25@FinishedBu:
	mov	eax, DWORD PTR $T232648[ebp]
	add	eax, 12					; 0000000cH
	mov	DWORD PTR $T232648[ebp], eax
$LN33@FinishedBu:
	mov	ecx, DWORD PTR $T232648[ebp]
	xor	edx, edx
	cmp	ecx, DWORD PTR $T232649[ebp]
	sete	dl
	movzx	eax, dl
	neg	eax
	sbb	eax, eax
	add	eax, 1
	movzx	ecx, al
	test	ecx, ecx
	je	SHORT $LN24@FinishedBu
	mov	edx, DWORD PTR $T232648[ebp]
	mov	DWORD PTR $T232618[ebp], edx
	mov	eax, DWORD PTR $T232618[ebp]
	mov	ecx, DWORD PTR _thisOperationSlot$[ebp+4]
	cmp	ecx, DWORD PTR [eax+4]
	jne	SHORT $LN43@FinishedBu
	mov	edx, DWORD PTR $T232618[ebp]
	mov	eax, DWORD PTR _thisOperationSlot$[ebp+8]
	cmp	eax, DWORD PTR [edx+8]
	jne	SHORT $LN43@FinishedBu
	mov	ecx, DWORD PTR $T232618[ebp]
	mov	edx, DWORD PTR _thisOperationSlot$[ebp]
	cmp	edx, DWORD PTR [ecx]
	jne	SHORT $LN43@FinishedBu
	mov	DWORD PTR tv217[ebp], 1
	jmp	SHORT $LN41@FinishedBu
$LN43@FinishedBu:
	mov	DWORD PTR tv217[ebp], 0
$LN41@FinishedBu:
	movzx	eax, BYTE PTR tv217[ebp]
	test	eax, eax
	je	SHORT $LN23@FinishedBu
	jmp	SHORT $LN24@FinishedBu
$LN23@FinishedBu:
	jmp	SHORT $LN25@FinishedBu
$LN24@FinishedBu:
	mov	ecx, DWORD PTR $T232648[ebp]
	mov	DWORD PTR $T232651[ebp], ecx
	mov	edx, DWORD PTR $T232651[ebp]
	mov	DWORD PTR $T232675[ebp], edx
	mov	eax, DWORD PTR $T232675[ebp]
	mov	DWORD PTR _iter$[ebp], eax

; 436  : 	// if we found it
; 437  : 	if(iter != m_viListOfUnitsCitiesHaveCommittedToBuild.end())

	mov	ecx, DWORD PTR _this$[ebp]
	mov	edx, DWORD PTR [ecx+44]
	mov	DWORD PTR $T232685[ebp], edx
	mov	eax, DWORD PTR $T232685[ebp]
	mov	DWORD PTR $T232556[ebp], eax
	mov	ecx, DWORD PTR _iter$[ebp]
	xor	edx, edx
	cmp	ecx, DWORD PTR $T232556[ebp]
	sete	dl
	movzx	eax, dl
	neg	eax
	sbb	eax, eax
	add	eax, 1
	movzx	ecx, al
	test	ecx, ecx
	je	$LN6@FinishedBu

; 438  : 	{
; 439  : 		// remove it from the list of committed units
; 440  : 		m_viListOfUnitsCitiesHaveCommittedToBuild.erase(iter);

	mov	edx, DWORD PTR _iter$[ebp]
	mov	DWORD PTR $T232557[ebp], edx
	mov	eax, DWORD PTR $T232557[ebp]
	push	eax
	lea	ecx, DWORD PTR $T232558[ebp]
	push	ecx
	mov	ecx, DWORD PTR _this$[ebp]
	add	ecx, 36					; 00000024H
	call	?erase@?$vector@UOperationSlot@@V?$allocator@UOperationSlot@@@std@@@std@@QAE?AV?$_Vector_iterator@UOperationSlot@@V?$allocator@UOperationSlot@@@std@@@2@V?$_Vector_const_iterator@UOperationSlot@@V?$allocator@UOperationSlot@@@std@@@2@@Z ; std::vector<OperationSlot,std::allocator<OperationSlot> >::erase

; 441  : 
; 442  : 		// See if our army is now complete
; 443  : 		if(m_viListOfUnitsWeStillNeedToBuild.empty() && m_eCurrentState  == AI_OPERATION_STATE_RECRUITING_UNITS)

	mov	edx, DWORD PTR _this$[ebp]
	add	edx, 20					; 00000014H
	mov	DWORD PTR $T232812[ebp], edx
	mov	eax, DWORD PTR $T232812[ebp]
	mov	ecx, DWORD PTR $T232812[ebp]
	mov	eax, DWORD PTR [eax+8]
	sub	eax, DWORD PTR [ecx+4]
	cdq
	mov	ecx, 12					; 0000000cH
	idiv	ecx
	neg	eax
	sbb	eax, eax
	add	eax, 1
	movzx	edx, al
	test	edx, edx
	je	$LN5@FinishedBu
	mov	eax, DWORD PTR _this$[ebp]
	cmp	DWORD PTR [eax+56], 1
	jne	$LN5@FinishedBu

; 444  : 		{
; 445  : 			m_eCurrentState = AI_OPERATION_STATE_GATHERING_FORCES;

	mov	ecx, DWORD PTR _this$[ebp]
	mov	DWORD PTR [ecx+56], 2

; 446  : 
; 447  : 			for(unsigned int uiI = 0; uiI < m_viArmyIDs.size(); uiI++)

	mov	DWORD PTR _uiI$223237[ebp], 0
	jmp	SHORT $LN4@FinishedBu
$LN3@FinishedBu:
	mov	edx, DWORD PTR _uiI$223237[ebp]
	add	edx, 1
	mov	DWORD PTR _uiI$223237[ebp], edx
$LN4@FinishedBu:
	mov	eax, DWORD PTR _this$[ebp]
	add	eax, 4
	mov	DWORD PTR $T232816[ebp], eax
	mov	ecx, DWORD PTR $T232816[ebp]
	mov	edx, DWORD PTR $T232816[ebp]
	mov	eax, DWORD PTR [ecx+8]
	sub	eax, DWORD PTR [edx+4]
	sar	eax, 2
	cmp	DWORD PTR _uiI$223237[ebp], eax
	jae	SHORT $LN5@FinishedBu

; 448  : 			{
; 449  : 				CvArmyAI* pThisArmy = GET_PLAYER(m_eOwner).getArmyAI(m_viArmyIDs[uiI]);

	mov	ecx, DWORD PTR _this$[ebp]
	mov	edx, DWORD PTR [ecx+8]
	mov	eax, DWORD PTR _uiI$223237[ebp]
	lea	ecx, DWORD PTR [edx+eax*4]
	mov	DWORD PTR $T232820[ebp], ecx
	mov	edx, DWORD PTR _this$[ebp]
	mov	eax, DWORD PTR [edx+72]
	imul	eax, 63236				; 0000f704H
	add	eax, DWORD PTR ?m_aPlayers@CvPlayerAI@@1PAV1@A ; CvPlayerAI::m_aPlayers
	mov	DWORD PTR $T232824[ebp], eax
	mov	ecx, DWORD PTR $T232820[ebp]
	mov	edx, DWORD PTR [ecx]
	push	edx
	mov	ecx, DWORD PTR $T232824[ebp]
	call	?getArmyAI@CvPlayer@@QAEPAVCvArmyAI@@H@Z ; CvPlayer::getArmyAI
	mov	DWORD PTR _pThisArmy$223241[ebp], eax

; 450  : 				if(pThisArmy)

	cmp	DWORD PTR _pThisArmy$223241[ebp], 0
	je	SHORT $LN1@FinishedBu

; 451  : 				{
; 452  : 					pThisArmy->SetArmyAIState(ARMYAISTATE_WAITING_FOR_UNITS_TO_CATCH_UP);

	push	1
	mov	ecx, DWORD PTR _pThisArmy$223241[ebp]
	call	?SetArmyAIState@CvArmyAI@@QAEXW4ArmyAIState@@@Z ; CvArmyAI::SetArmyAIState
$LN1@FinishedBu:

; 453  : 				}
; 454  : 			}

	jmp	SHORT $LN3@FinishedBu
$LN5@FinishedBu:

; 455  : 		}
; 456  : 		return true;

	mov	al, 1
	jmp	SHORT $LN7@FinishedBu
$LN6@FinishedBu:

; 457  : 	}
; 458  : 	return false;

	xor	al, al
$LN7@FinishedBu:

; 459  : }

	mov	esp, ebp
	pop	ebp
	ret	12					; 0000000cH
?FinishedBuilding@CvAIOperation@@UAE_NUOperationSlot@@@Z ENDP ; CvAIOperation::FinishedBuilding
_TEXT	ENDS
PUBLIC	??0?$vector@UOperationSlot@@V?$allocator@UOperationSlot@@@std@@@std@@QAE@XZ ; std::vector<OperationSlot,std::allocator<OperationSlot> >::vector<OperationSlot,std::allocator<OperationSlot> >
;	COMDAT xdata$x
; File c:\program files (x86)\microsoft visual studio 9.0\vc\include\xutility
xdata$x	SEGMENT
__unwindtable$?GrabUnitsFromTheReserves@CvAIOperation@@UAE_NPAVCvPlot@@0@Z DD 0ffffffffH
	DD	FLAT:__unwindfunclet$?GrabUnitsFromTheReserves@CvAIOperation@@UAE_NPAVCvPlot@@0@Z$0
	DD	0ffffffffH
	DD	FLAT:__unwindfunclet$?GrabUnitsFromTheReserves@CvAIOperation@@UAE_NPAVCvPlot@@0@Z$2
__ehfuncinfo$?GrabUnitsFromTheReserves@CvAIOperation@@UAE_NPAVCvPlot@@0@Z DD 019930522H
	DD	02H
	DD	FLAT:__unwindtable$?GrabUnitsFromTheReserves@CvAIOperation@@UAE_NPAVCvPlot@@0@Z
	DD	2 DUP(00H)
	DD	2 DUP(00H)
	DD	00H
	DD	01H
; Function compile flags: /Odtp
; File d:\sources\lekmod_git\checkout\lekmod_dll\cvgamecoredll_expansion2\cvaioperation.cpp
xdata$x	ENDS
;	COMDAT ?GrabUnitsFromTheReserves@CvAIOperation@@UAE_NPAVCvPlot@@0@Z
_TEXT	SEGMENT
_this$ = -236						; size = 4
$T233175 = -200						; size = 4
$T233171 = -196						; size = 4
$T233053 = -144						; size = 4
$T233030 = -140						; size = 4
$T233006 = -136						; size = 4
$T232996 = -132						; size = 4
$T232970 = -128						; size = 4
$T232954 = -124						; size = 4
$T232982 = -120						; size = 4
$T232981 = -116						; size = 4
$T232980 = -112						; size = 4
$T232979 = -108						; size = 4
$T232978 = -104						; size = 4
$T232881 = -76						; size = 4
$T232857 = -72						; size = 4
$T232831 = -57						; size = 1
$T232830 = -56						; size = 4
$T232829 = -52						; size = 4
$T232828 = -48						; size = 4
$T232827 = -44						; size = 4
_pArmy$223274 = -40					; size = 4
_rtnValue$ = -35					; size = 1
_success$ = -34						; size = 1
_bRequired$ = -33					; size = 1
_secondList$ = -32					; size = 16
_it$ = -16						; size = 4
__$EHRec$ = -12						; size = 12
_pMusterPlot$ = 8					; size = 4
_pTargetPlot$ = 12					; size = 4
?GrabUnitsFromTheReserves@CvAIOperation@@UAE_NPAVCvPlot@@0@Z PROC ; CvAIOperation::GrabUnitsFromTheReserves, COMDAT
; _this$ = ecx

; 463  : {

	push	ebp
	mov	ebp, esp
	push	-1
	push	__ehhandler$?GrabUnitsFromTheReserves@CvAIOperation@@UAE_NPAVCvPlot@@0@Z
	mov	eax, DWORD PTR fs:0
	push	eax
	sub	esp, 224				; 000000e0H
	mov	eax, DWORD PTR ___security_cookie
	xor	eax, ebp
	push	eax
	lea	eax, DWORD PTR __$EHRec$[ebp]
	mov	DWORD PTR fs:0, eax
	mov	DWORD PTR _this$[ebp], ecx

; 464  : 	bool rtnValue = true;

	mov	BYTE PTR _rtnValue$[ebp], 1

; 465  : 	bool success;
; 466  : 	std::vector<OperationSlot>::iterator it;

	mov	DWORD PTR _it$[ebp], 0

; 467  : 	bool bRequired;
; 468  : 
; 469  : 	// Copy over the list
; 470  : 	std::vector<OperationSlot> secondList;

	lea	ecx, DWORD PTR _secondList$[ebp]
	call	??0?$vector@UOperationSlot@@V?$allocator@UOperationSlot@@@std@@@std@@QAE@XZ ; std::vector<OperationSlot,std::allocator<OperationSlot> >::vector<OperationSlot,std::allocator<OperationSlot> >
	mov	DWORD PTR __$EHRec$[ebp+8], 0

; 471  : 	for(it = m_viListOfUnitsWeStillNeedToBuild.begin(); it != m_viListOfUnitsWeStillNeedToBuild.end(); ++it)

	mov	eax, DWORD PTR _this$[ebp]
	mov	ecx, DWORD PTR [eax+24]
	mov	DWORD PTR $T232857[ebp], ecx
	mov	edx, DWORD PTR $T232857[ebp]
	mov	DWORD PTR $T232827[ebp], edx
	mov	eax, DWORD PTR $T232827[ebp]
	mov	DWORD PTR _it$[ebp], eax
	jmp	SHORT $LN10@GrabUnitsF
$LN9@GrabUnitsF:
	mov	ecx, DWORD PTR _it$[ebp]
	add	ecx, 12					; 0000000cH
	mov	DWORD PTR _it$[ebp], ecx
$LN10@GrabUnitsF:
	mov	edx, DWORD PTR _this$[ebp]
	mov	eax, DWORD PTR [edx+28]
	mov	DWORD PTR $T232881[ebp], eax
	mov	ecx, DWORD PTR $T232881[ebp]
	mov	DWORD PTR $T232828[ebp], ecx
	mov	edx, DWORD PTR _it$[ebp]
	xor	eax, eax
	cmp	edx, DWORD PTR $T232828[ebp]
	sete	al
	movzx	ecx, al
	neg	ecx
	sbb	ecx, ecx
	add	ecx, 1
	movzx	edx, cl
	test	edx, edx
	je	SHORT $LN8@GrabUnitsF

; 472  : 	{
; 473  : 		secondList.push_back(*it);

	mov	eax, DWORD PTR _it$[ebp]
	push	eax
	lea	ecx, DWORD PTR _secondList$[ebp]
	call	?push_back@?$vector@UOperationSlot@@V?$allocator@UOperationSlot@@@std@@@std@@QAEXABUOperationSlot@@@Z ; std::vector<OperationSlot,std::allocator<OperationSlot> >::push_back

; 474  : 	}

	jmp	SHORT $LN9@GrabUnitsF
$LN8@GrabUnitsF:

; 475  : 
; 476  : 	// Clear main list
; 477  : 	m_viListOfUnitsWeStillNeedToBuild.clear();

	mov	ecx, DWORD PTR _this$[ebp]
	add	ecx, 20					; 00000014H
	mov	DWORD PTR $T232996[ebp], ecx
	mov	edx, DWORD PTR $T232996[ebp]
	mov	eax, DWORD PTR [edx+8]
	mov	DWORD PTR $T232954[ebp], eax
	mov	ecx, DWORD PTR $T232954[ebp]
	mov	DWORD PTR $T232979[ebp], ecx
	mov	edx, DWORD PTR $T232979[ebp]
	mov	DWORD PTR $T232978[ebp], edx
	mov	eax, DWORD PTR $T232996[ebp]
	mov	ecx, DWORD PTR [eax+4]
	mov	DWORD PTR $T232970[ebp], ecx
	mov	edx, DWORD PTR $T232970[ebp]
	mov	DWORD PTR $T232981[ebp], edx
	mov	eax, DWORD PTR $T232981[ebp]
	mov	DWORD PTR $T232980[ebp], eax
	mov	ecx, DWORD PTR $T232978[ebp]
	push	ecx
	mov	edx, DWORD PTR $T232980[ebp]
	push	edx
	lea	eax, DWORD PTR $T232982[ebp]
	push	eax
	mov	ecx, DWORD PTR $T232996[ebp]
	call	?erase@?$vector@UOperationSlot@@V?$allocator@UOperationSlot@@@std@@@std@@QAE?AV?$_Vector_iterator@UOperationSlot@@V?$allocator@UOperationSlot@@@std@@@2@V?$_Vector_const_iterator@UOperationSlot@@V?$allocator@UOperationSlot@@@std@@@2@0@Z ; std::vector<OperationSlot,std::allocator<OperationSlot> >::erase

; 478  : 
; 479  : 	for(it = secondList.begin(); it != secondList.end(); ++it)

	mov	ecx, DWORD PTR _secondList$[ebp+4]
	mov	DWORD PTR $T233006[ebp], ecx
	mov	edx, DWORD PTR $T233006[ebp]
	mov	DWORD PTR $T232829[ebp], edx
	mov	eax, DWORD PTR $T232829[ebp]
	mov	DWORD PTR _it$[ebp], eax
	jmp	SHORT $LN7@GrabUnitsF
$LN6@GrabUnitsF:
	mov	ecx, DWORD PTR _it$[ebp]
	add	ecx, 12					; 0000000cH
	mov	DWORD PTR _it$[ebp], ecx
$LN7@GrabUnitsF:
	mov	edx, DWORD PTR _secondList$[ebp+8]
	mov	DWORD PTR $T233030[ebp], edx
	mov	eax, DWORD PTR $T233030[ebp]
	mov	DWORD PTR $T232830[ebp], eax
	mov	ecx, DWORD PTR _it$[ebp]
	xor	edx, edx
	cmp	ecx, DWORD PTR $T232830[ebp]
	sete	dl
	movzx	eax, dl
	neg	eax
	sbb	eax, eax
	add	eax, 1
	movzx	ecx, al
	test	ecx, ecx
	je	$LN5@GrabUnitsF

; 480  : 	{
; 481  : 		success = FindBestFitReserveUnit(*it, pMusterPlot, pTargetPlot, &bRequired);

	mov	edx, DWORD PTR _it$[ebp]
	mov	DWORD PTR $T233053[ebp], edx
	lea	eax, DWORD PTR _bRequired$[ebp]
	push	eax
	mov	ecx, DWORD PTR _pTargetPlot$[ebp]
	push	ecx
	mov	edx, DWORD PTR _pMusterPlot$[ebp]
	push	edx
	mov	eax, DWORD PTR $T233053[ebp]
	sub	esp, 12					; 0000000cH
	mov	ecx, esp
	mov	edx, DWORD PTR [eax]
	mov	DWORD PTR [ecx], edx
	mov	edx, DWORD PTR [eax+4]
	mov	DWORD PTR [ecx+4], edx
	mov	eax, DWORD PTR [eax+8]
	mov	DWORD PTR [ecx+8], eax
	mov	ecx, DWORD PTR _this$[ebp]
	mov	edx, DWORD PTR [ecx]
	mov	ecx, DWORD PTR _this$[ebp]
	mov	eax, DWORD PTR [edx+140]
	call	eax
	mov	BYTE PTR _success$[ebp], al

; 482  : 
; 483  : 		// If any fail, check to see if they were required
; 484  : 		if(!success)

	movzx	ecx, BYTE PTR _success$[ebp]
	test	ecx, ecx
	jne	SHORT $LN4@GrabUnitsF

; 485  : 		{
; 486  : 			if(bRequired)

	movzx	edx, BYTE PTR _bRequired$[ebp]
	test	edx, edx
	je	SHORT $LN153@GrabUnitsF

; 487  : 			{
; 488  : 				// Return false to say that operation is not ready to roll yet
; 489  : 				rtnValue = false;

	mov	BYTE PTR _rtnValue$[ebp], 0

; 490  : 
; 491  : 				// And add them back to the list of units needed
; 492  : 				m_viListOfUnitsWeStillNeedToBuild.push_back(*it);

	mov	eax, DWORD PTR _it$[ebp]
	push	eax
	mov	ecx, DWORD PTR _this$[ebp]
	add	ecx, 20					; 00000014H
	call	?push_back@?$vector@UOperationSlot@@V?$allocator@UOperationSlot@@@std@@@std@@QAEXABUOperationSlot@@@Z ; std::vector<OperationSlot,std::allocator<OperationSlot> >::push_back

; 493  : 			}
; 494  : 			else

	jmp	SHORT $LN4@GrabUnitsF

; 495  : 			{
; 496  : 				CvArmyAI* pArmy;
; 497  : 				pArmy = GET_PLAYER(m_eOwner).getArmyAI(it->m_iArmyID);

$LN153@GrabUnitsF:
	mov	ecx, DWORD PTR _it$[ebp]
	mov	DWORD PTR $T233171[ebp], ecx
	mov	edx, DWORD PTR _this$[ebp]
	mov	eax, DWORD PTR [edx+72]
	imul	eax, 63236				; 0000f704H
	add	eax, DWORD PTR ?m_aPlayers@CvPlayerAI@@1PAV1@A ; CvPlayerAI::m_aPlayers
	mov	DWORD PTR $T233175[ebp], eax
	mov	ecx, DWORD PTR $T233171[ebp]
	mov	edx, DWORD PTR [ecx+4]
	push	edx
	mov	ecx, DWORD PTR $T233175[ebp]
	call	?getArmyAI@CvPlayer@@QAEPAVCvArmyAI@@H@Z ; CvPlayer::getArmyAI
	mov	DWORD PTR _pArmy$223274[ebp], eax

; 498  : 				if(pArmy)

	cmp	DWORD PTR _pArmy$223274[ebp], 0
	je	SHORT $LN4@GrabUnitsF

; 499  : 				{
; 500  : 					pArmy->SetEstimatedTurn(it->m_iSlotID, ARMYSLOT_NOT_INCLUDING_IN_OPERATION);

	push	-2					; fffffffeH
	mov	eax, DWORD PTR _it$[ebp]
	mov	ecx, DWORD PTR [eax+8]
	push	ecx
	mov	ecx, DWORD PTR _pArmy$223274[ebp]
	call	?SetEstimatedTurn@CvArmyAI@@QAEXHH@Z	; CvArmyAI::SetEstimatedTurn
$LN4@GrabUnitsF:

; 501  : 				}
; 502  : 			}
; 503  : 		}
; 504  : 	}

	jmp	$LN6@GrabUnitsF
$LN5@GrabUnitsF:

; 505  : 
; 506  : 	return rtnValue;

	mov	dl, BYTE PTR _rtnValue$[ebp]
	mov	BYTE PTR $T232831[ebp], dl
	mov	DWORD PTR __$EHRec$[ebp+8], 1
	lea	ecx, DWORD PTR _secondList$[ebp]
	call	?_Tidy@?$vector@UOperationSlot@@V?$allocator@UOperationSlot@@@std@@@std@@IAEXXZ ; std::vector<OperationSlot,std::allocator<OperationSlot> >::_Tidy
	mov	DWORD PTR __$EHRec$[ebp+8], -1
	mov	al, BYTE PTR $T232831[ebp]

; 507  : }

	mov	ecx, DWORD PTR __$EHRec$[ebp]
	mov	DWORD PTR fs:0, ecx
	pop	ecx
	mov	esp, ebp
	pop	ebp
	ret	8
_TEXT	ENDS
;	COMDAT text$x
text$x	SEGMENT
__unwindfunclet$?GrabUnitsFromTheReserves@CvAIOperation@@UAE_NPAVCvPlot@@0@Z$0:
	lea	ecx, DWORD PTR _secondList$[ebp]
	jmp	??1?$vector@UOperationSlot@@V?$allocator@UOperationSlot@@@std@@@std@@QAE@XZ ; std::vector<OperationSlot,std::allocator<OperationSlot> >::~vector<OperationSlot,std::allocator<OperationSlot> >
__unwindfunclet$?GrabUnitsFromTheReserves@CvAIOperation@@UAE_NPAVCvPlot@@0@Z$2:
	lea	ecx, DWORD PTR _secondList$[ebp]
	jmp	??1?$_Vector_val@UOperationSlot@@V?$allocator@UOperationSlot@@@std@@@std@@QAE@XZ
__ehhandler$?GrabUnitsFromTheReserves@CvAIOperation@@UAE_NPAVCvPlot@@0@Z:
	mov	edx, DWORD PTR [esp+8]
	lea	eax, DWORD PTR [edx+12]
	mov	ecx, DWORD PTR [edx-228]
	xor	ecx, eax
	call	@__security_check_cookie@4
	mov	eax, OFFSET __ehfuncinfo$?GrabUnitsFromTheReserves@CvAIOperation@@UAE_NPAVCvPlot@@0@Z
	jmp	___CxxFrameHandler3
text$x	ENDS
?GrabUnitsFromTheReserves@CvAIOperation@@UAE_NPAVCvPlot@@0@Z ENDP ; CvAIOperation::GrabUnitsFromTheReserves
EXTRN	?GetFurthestUnitDistance@CvArmyAI@@QAEHPAVCvPlot@@@Z:PROC ; CvArmyAI::GetFurthestUnitDistance
EXTRN	?GetCenterOfMass@CvArmyAI@@QAEPAVCvPlot@@W4DomainTypes@@@Z:PROC ; CvArmyAI::GetCenterOfMass
EXTRN	?GetNextUnitID@CvArmyAI@@QAEHXZ:PROC		; CvArmyAI::GetNextUnitID
EXTRN	?plot@CvUnit@@QBEPAVCvPlot@@XZ:PROC		; CvUnit::plot
EXTRN	?getUnit@CvPlayer@@QAEPAVCvUnit@@H@Z:PROC	; CvPlayer::getUnit
EXTRN	?GetFirstUnitID@CvArmyAI@@QAEHXZ:PROC		; CvArmyAI::GetFirstUnitID
; Function compile flags: /Odtp
;	COMDAT ?CheckOnTarget@CvAIOperation@@UAE_NXZ
_TEXT	SEGMENT
tv422 = -572						; size = 4
tv317 = -568						; size = 4
tv265 = -564						; size = 4
tv216 = -560						; size = 4
tv193 = -556						; size = 4
tv68 = -552						; size = 4
_this$ = -548						; size = 4
$T233635 = -464						; size = 4
$T233631 = -460						; size = 4
$T233627 = -456						; size = 4
$T233626 = -452						; size = 4
$T233622 = -448						; size = 4
$T233621 = -444						; size = 4
$T233617 = -440						; size = 4
$T233613 = -436						; size = 4
$T233609 = -432						; size = 4
$T233544 = -360						; size = 4
$T233540 = -356						; size = 4
$T233472 = -284						; size = 4
$T233468 = -280						; size = 4
$T233464 = -276						; size = 4
$T233463 = -272						; size = 4
$T233459 = -268						; size = 4
$T233458 = -264						; size = 4
$T233454 = -260						; size = 4
$T233450 = -256						; size = 4
$T233446 = -252						; size = 4
$T233393 = -192						; size = 4
$T233389 = -188						; size = 4
$T233333 = -128						; size = 4
$T233329 = -124						; size = 4
$T233325 = -120						; size = 4
$T233324 = -116						; size = 4
$T233320 = -112						; size = 4
$T233319 = -108						; size = 4
$T233315 = -104						; size = 4
$T233311 = -100						; size = 4
$T233307 = -96						; size = 4
$T233303 = -92						; size = 4
$T233299 = -88						; size = 4
$T233295 = -84						; size = 4
$T233291 = -80						; size = 4
_pCenterOfMass$223344 = -76				; size = 4
_iGatherTolerance$223345 = -72				; size = 4
_pThisArmy$223343 = -68					; size = 4
_uiI$223339 = -64					; size = 4
_iTargetTolerance$223335 = -60				; size = 4
_iGatherTolerance$223332 = -56				; size = 4
_pCenterOfMass$223325 = -52				; size = 4
_pThisArmy$223324 = -48					; size = 4
_uiI$223320 = -44					; size = 4
_iTargetTolerance$223316 = -40				; size = 4
_iGatherTolerance$223313 = -36				; size = 4
_pCenterOfMass$223306 = -32				; size = 4
_pThisArmy$223305 = -28					; size = 4
_uiI$223301 = -24					; size = 4
_pThisArmy$223290 = -20					; size = 4
_pEscortPlot$ = -16					; size = 4
_pCivilianPlot$ = -12					; size = 4
_pCivilian$ = -8					; size = 4
_iUnitID$ = -4						; size = 4
?CheckOnTarget@CvAIOperation@@UAE_NXZ PROC		; CvAIOperation::CheckOnTarget, COMDAT
; _this$ = ecx

; 511  : {

	push	ebp
	mov	ebp, esp
	sub	esp, 572				; 0000023cH
	mov	DWORD PTR _this$[ebp], ecx

; 512  : 	int iUnitID;
; 513  : 	CvUnit* pCivilian;
; 514  : 	CvPlot* pCivilianPlot = NULL;

	mov	DWORD PTR _pCivilianPlot$[ebp], 0

; 515  : 	CvPlot* pEscortPlot;
; 516  : 
; 517  : 	if(GetFirstArmyID() == -1)

	mov	ecx, DWORD PTR _this$[ebp]
	call	?GetFirstArmyID@CvAIOperation@@QAEHXZ	; CvAIOperation::GetFirstArmyID
	cmp	eax, -1
	jne	SHORT $LN47@CheckOnTar

; 518  : 	{
; 519  : 		return false;

	xor	al, al
	jmp	$LN48@CheckOnTar
$LN47@CheckOnTar:

; 520  : 	}
; 521  : 
; 522  : 	switch(m_eMoveType)

	mov	eax, DWORD PTR _this$[ebp]
	mov	ecx, DWORD PTR [eax+84]
	mov	DWORD PTR tv68[ebp], ecx
	cmp	DWORD PTR tv68[ebp], 3
	ja	$LN45@CheckOnTar
	mov	edx, DWORD PTR tv68[ebp]
	jmp	DWORD PTR $LN318@CheckOnTar[edx*4]
$LN44@CheckOnTar:

; 523  : 	{
; 524  : 		{
; 525  : 		case AI_OPERATION_MOVETYPE_SINGLE_HEX:
; 526  : 			CvArmyAI* pThisArmy = GET_PLAYER(m_eOwner).getArmyAI(m_viArmyIDs[0]);

	xor	eax, eax
	shl	eax, 2
	mov	ecx, DWORD PTR _this$[ebp]
	add	eax, DWORD PTR [ecx+8]
	mov	DWORD PTR $T233291[ebp], eax
	mov	edx, DWORD PTR _this$[ebp]
	mov	eax, DWORD PTR [edx+72]
	imul	eax, 63236				; 0000f704H
	add	eax, DWORD PTR ?m_aPlayers@CvPlayerAI@@1PAV1@A ; CvPlayerAI::m_aPlayers
	mov	DWORD PTR $T233295[ebp], eax
	mov	ecx, DWORD PTR $T233291[ebp]
	mov	edx, DWORD PTR [ecx]
	push	edx
	mov	ecx, DWORD PTR $T233295[ebp]
	call	?getArmyAI@CvPlayer@@QAEPAVCvArmyAI@@H@Z ; CvPlayer::getArmyAI
	mov	DWORD PTR _pThisArmy$223290[ebp], eax

; 527  : 			if(pThisArmy->GetNumSlotsFilled() >= 1)

	mov	ecx, DWORD PTR _pThisArmy$223290[ebp]
	call	?GetNumSlotsFilled@CvArmyAI@@QBEHXZ	; CvArmyAI::GetNumSlotsFilled
	cmp	eax, 1
	jl	$LN35@CheckOnTar

; 528  : 			{
; 529  : 				iUnitID = pThisArmy->GetFirstUnitID();

	mov	ecx, DWORD PTR _pThisArmy$223290[ebp]
	call	?GetFirstUnitID@CvArmyAI@@QAEHXZ	; CvArmyAI::GetFirstUnitID
	mov	DWORD PTR _iUnitID$[ebp], eax

; 530  : 				if(iUnitID != -1)

	cmp	DWORD PTR _iUnitID$[ebp], -1
	je	SHORT $LN42@CheckOnTar

; 531  : 				{
; 532  : 					pCivilian = GET_PLAYER(m_eOwner).getUnit(iUnitID);

	mov	eax, DWORD PTR _this$[ebp]
	mov	ecx, DWORD PTR [eax+72]
	imul	ecx, 63236				; 0000f704H
	add	ecx, DWORD PTR ?m_aPlayers@CvPlayerAI@@1PAV1@A ; CvPlayerAI::m_aPlayers
	mov	DWORD PTR $T233299[ebp], ecx
	mov	edx, DWORD PTR _iUnitID$[ebp]
	push	edx
	mov	ecx, DWORD PTR $T233299[ebp]
	call	?getUnit@CvPlayer@@QAEPAVCvUnit@@H@Z	; CvPlayer::getUnit
	mov	DWORD PTR _pCivilian$[ebp], eax

; 533  : 					pCivilianPlot = pCivilian->plot();

	mov	ecx, DWORD PTR _pCivilian$[ebp]
	call	?plot@CvUnit@@QBEPAVCvPlot@@XZ		; CvUnit::plot
	mov	DWORD PTR _pCivilianPlot$[ebp], eax
$LN42@CheckOnTar:

; 534  : 				}
; 535  : 				if(m_eCurrentState == AI_OPERATION_STATE_MOVING_TO_TARGET && pCivilianPlot == GetTargetPlot())

	mov	eax, DWORD PTR _this$[ebp]
	cmp	DWORD PTR [eax+56], 3
	jne	SHORT $LN41@CheckOnTar
	mov	ecx, DWORD PTR _this$[ebp]
	call	?GetTargetPlot@CvAIOperation@@QBEPAVCvPlot@@XZ ; CvAIOperation::GetTargetPlot
	cmp	DWORD PTR _pCivilianPlot$[ebp], eax
	jne	SHORT $LN41@CheckOnTar

; 536  : 				{
; 537  : 					ArmyInPosition(pThisArmy);

	mov	ecx, DWORD PTR _pThisArmy$223290[ebp]
	push	ecx
	mov	edx, DWORD PTR _this$[ebp]
	mov	eax, DWORD PTR [edx]
	mov	ecx, DWORD PTR _this$[ebp]
	mov	edx, DWORD PTR [eax+60]
	call	edx

; 538  : 					return true;

	mov	al, 1
	jmp	$LN48@CheckOnTar
	jmp	$LN35@CheckOnTar
$LN41@CheckOnTar:

; 539  : 				}
; 540  : 				else if(m_eCurrentState == AI_OPERATION_STATE_GATHERING_FORCES)

	mov	eax, DWORD PTR _this$[ebp]
	cmp	DWORD PTR [eax+56], 2
	jne	$LN35@CheckOnTar

; 541  : 				{
; 542  : 					if(pThisArmy->GetNumSlotsFilled() == 1)

	mov	ecx, DWORD PTR _pThisArmy$223290[ebp]
	call	?GetNumSlotsFilled@CvArmyAI@@QBEHXZ	; CvArmyAI::GetNumSlotsFilled
	cmp	eax, 1
	jne	SHORT $LN38@CheckOnTar

; 543  : 					{
; 544  : 						ArmyInPosition(pThisArmy);

	mov	ecx, DWORD PTR _pThisArmy$223290[ebp]
	push	ecx
	mov	edx, DWORD PTR _this$[ebp]
	mov	eax, DWORD PTR [edx]
	mov	ecx, DWORD PTR _this$[ebp]
	mov	edx, DWORD PTR [eax+60]
	call	edx

; 545  : 						return true;

	mov	al, 1
	jmp	$LN48@CheckOnTar

; 546  : 					}
; 547  : 					else

	jmp	SHORT $LN35@CheckOnTar
$LN38@CheckOnTar:

; 548  : 					{
; 549  : 						pEscortPlot = GET_PLAYER(m_eOwner).getUnit(pThisArmy->GetNextUnitID())->plot();

	mov	eax, DWORD PTR _this$[ebp]
	mov	ecx, DWORD PTR [eax+72]
	imul	ecx, 63236				; 0000f704H
	add	ecx, DWORD PTR ?m_aPlayers@CvPlayerAI@@1PAV1@A ; CvPlayerAI::m_aPlayers
	mov	DWORD PTR $T233303[ebp], ecx
	mov	ecx, DWORD PTR _pThisArmy$223290[ebp]
	call	?GetNextUnitID@CvArmyAI@@QAEHXZ		; CvArmyAI::GetNextUnitID
	push	eax
	mov	ecx, DWORD PTR $T233303[ebp]
	call	?getUnit@CvPlayer@@QAEPAVCvUnit@@H@Z	; CvPlayer::getUnit
	mov	ecx, eax
	call	?plot@CvUnit@@QBEPAVCvPlot@@XZ		; CvUnit::plot
	mov	DWORD PTR _pEscortPlot$[ebp], eax

; 550  : 						if(pCivilianPlot == pEscortPlot)

	mov	edx, DWORD PTR _pCivilianPlot$[ebp]
	cmp	edx, DWORD PTR _pEscortPlot$[ebp]
	jne	SHORT $LN35@CheckOnTar

; 551  : 						{
; 552  : 							ArmyInPosition(pThisArmy);

	mov	eax, DWORD PTR _pThisArmy$223290[ebp]
	push	eax
	mov	ecx, DWORD PTR _this$[ebp]
	mov	edx, DWORD PTR [ecx]
	mov	ecx, DWORD PTR _this$[ebp]
	mov	eax, DWORD PTR [edx+60]
	call	eax

; 553  : 							return true;

	mov	al, 1
	jmp	$LN48@CheckOnTar
$LN35@CheckOnTar:

; 554  : 						}
; 555  : 					}
; 556  : 				}
; 557  : 			}
; 558  : 			else
; 559  : 			{
; 560  : 				CvAssertMsg(m_eCurrentState == AI_OPERATION_STATE_RECRUITING_UNITS || m_eCurrentState == AI_OPERATION_STATE_ABORTED || m_eCurrentState == AI_OPERATION_STATE_SUCCESSFUL_FINISH,
; 561  : 				            "Found an escort operation with no units in it.  Show Ed and send save.");
; 562  : 			}
; 563  : 			break;

	jmp	$LN45@CheckOnTar
$LN34@CheckOnTar:

; 564  : 		}
; 565  : 
; 566  : 	case AI_OPERATION_MOVETYPE_ENEMY_TERRITORY:
; 567  : 	{
; 568  : 		// Let each army perform its own check
; 569  : 		for(unsigned int uiI = 0; uiI < m_viArmyIDs.size(); uiI++)

	mov	DWORD PTR _uiI$223301[ebp], 0
	jmp	SHORT $LN33@CheckOnTar
$LN32@CheckOnTar:
	mov	ecx, DWORD PTR _uiI$223301[ebp]
	add	ecx, 1
	mov	DWORD PTR _uiI$223301[ebp], ecx
$LN33@CheckOnTar:
	mov	edx, DWORD PTR _this$[ebp]
	add	edx, 4
	mov	DWORD PTR $T233307[ebp], edx
	mov	eax, DWORD PTR $T233307[ebp]
	mov	ecx, DWORD PTR $T233307[ebp]
	mov	edx, DWORD PTR [eax+8]
	sub	edx, DWORD PTR [ecx+4]
	sar	edx, 2
	cmp	DWORD PTR _uiI$223301[ebp], edx
	jae	$LN31@CheckOnTar

; 570  : 		{
; 571  : 			CvArmyAI* pThisArmy = GET_PLAYER(m_eOwner).getArmyAI(m_viArmyIDs[uiI]);

	mov	eax, DWORD PTR _this$[ebp]
	mov	ecx, DWORD PTR [eax+8]
	mov	edx, DWORD PTR _uiI$223301[ebp]
	lea	eax, DWORD PTR [ecx+edx*4]
	mov	DWORD PTR $T233311[ebp], eax
	mov	ecx, DWORD PTR _this$[ebp]
	mov	edx, DWORD PTR [ecx+72]
	imul	edx, 63236				; 0000f704H
	add	edx, DWORD PTR ?m_aPlayers@CvPlayerAI@@1PAV1@A ; CvPlayerAI::m_aPlayers
	mov	DWORD PTR $T233315[ebp], edx
	mov	eax, DWORD PTR $T233311[ebp]
	mov	ecx, DWORD PTR [eax]
	push	ecx
	mov	ecx, DWORD PTR $T233315[ebp]
	call	?getArmyAI@CvPlayer@@QAEPAVCvArmyAI@@H@Z ; CvPlayer::getArmyAI
	mov	DWORD PTR _pThisArmy$223305[ebp], eax

; 572  : 			CvPlot* pCenterOfMass;
; 573  : 
; 574  : 			if(pThisArmy->GetNumSlotsFilled() >= 1)

	mov	ecx, DWORD PTR _pThisArmy$223305[ebp]
	call	?GetNumSlotsFilled@CvArmyAI@@QBEHXZ	; CvArmyAI::GetNumSlotsFilled
	cmp	eax, 1
	jl	$LN23@CheckOnTar

; 575  : 			{
; 576  : 				switch(m_eCurrentState)

	mov	edx, DWORD PTR _this$[ebp]
	mov	eax, DWORD PTR [edx+56]
	mov	DWORD PTR tv193[ebp], eax
	cmp	DWORD PTR tv193[ebp], 2
	je	SHORT $LN27@CheckOnTar
	cmp	DWORD PTR tv193[ebp], 3
	je	$LN25@CheckOnTar
	jmp	$LN23@CheckOnTar
$LN27@CheckOnTar:

; 577  : 				{
; 578  : 				case AI_OPERATION_STATE_GATHERING_FORCES:
; 579  : 					{
; 580  : 						int iGatherTolerance = GetGatherTolerance(pThisArmy, GetMusterPlot());

	mov	ecx, DWORD PTR _this$[ebp]
	call	?GetMusterPlot@CvAIOperation@@QBEPAVCvPlot@@XZ ; CvAIOperation::GetMusterPlot
	push	eax
	mov	ecx, DWORD PTR _pThisArmy$223305[ebp]
	push	ecx
	mov	edx, DWORD PTR _this$[ebp]
	mov	eax, DWORD PTR [edx]
	mov	ecx, DWORD PTR _this$[ebp]
	mov	edx, DWORD PTR [eax+48]
	call	edx
	mov	DWORD PTR _iGatherTolerance$223313[ebp], eax

; 581  : 						pCenterOfMass = pThisArmy->GetCenterOfMass(IsAllNavalOperation() || IsMixedLandNavalOperation() ? DOMAIN_SEA : DOMAIN_LAND);

	mov	eax, DWORD PTR _this$[ebp]
	mov	edx, DWORD PTR [eax]
	mov	ecx, DWORD PTR _this$[ebp]
	mov	eax, DWORD PTR [edx+40]
	call	eax
	movzx	ecx, al
	test	ecx, ecx
	jne	SHORT $LN50@CheckOnTar
	mov	edx, DWORD PTR _this$[ebp]
	mov	eax, DWORD PTR [edx]
	mov	ecx, DWORD PTR _this$[ebp]
	mov	edx, DWORD PTR [eax+44]
	call	edx
	movzx	eax, al
	test	eax, eax
	jne	SHORT $LN50@CheckOnTar
	mov	DWORD PTR tv216[ebp], 2
	jmp	SHORT $LN51@CheckOnTar
$LN50@CheckOnTar:
	mov	DWORD PTR tv216[ebp], 0
$LN51@CheckOnTar:
	mov	ecx, DWORD PTR tv216[ebp]
	push	ecx
	mov	ecx, DWORD PTR _pThisArmy$223305[ebp]
	call	?GetCenterOfMass@CvArmyAI@@QAEPAVCvPlot@@W4DomainTypes@@@Z ; CvArmyAI::GetCenterOfMass
	mov	DWORD PTR _pCenterOfMass$223306[ebp], eax

; 582  : 						if(pCenterOfMass &&
; 583  : 							plotDistance(pCenterOfMass->getX(), pCenterOfMass->getY(), GetMusterPlot()->getX(), GetMusterPlot()->getY()) <= iGatherTolerance &&
; 584  : 							pThisArmy->GetFurthestUnitDistance(GetMusterPlot()) <= (iGatherTolerance * 3 / 2))

	cmp	DWORD PTR _pCenterOfMass$223306[ebp], 0
	je	$LN26@CheckOnTar
	mov	ecx, DWORD PTR _this$[ebp]
	call	?GetMusterPlot@CvAIOperation@@QBEPAVCvPlot@@XZ ; CvAIOperation::GetMusterPlot
	mov	DWORD PTR $T233319[ebp], eax
	mov	edx, DWORD PTR $T233319[ebp]
	movsx	eax, WORD PTR [edx+2]
	mov	DWORD PTR $T233320[ebp], eax
	mov	ecx, DWORD PTR _this$[ebp]
	call	?GetMusterPlot@CvAIOperation@@QBEPAVCvPlot@@XZ ; CvAIOperation::GetMusterPlot
	mov	DWORD PTR $T233324[ebp], eax
	mov	ecx, DWORD PTR $T233324[ebp]
	movsx	edx, WORD PTR [ecx]
	mov	DWORD PTR $T233325[ebp], edx
	mov	eax, DWORD PTR _pCenterOfMass$223306[ebp]
	movsx	ecx, WORD PTR [eax+2]
	mov	DWORD PTR $T233329[ebp], ecx
	mov	edx, DWORD PTR _pCenterOfMass$223306[ebp]
	movsx	eax, WORD PTR [edx]
	mov	DWORD PTR $T233333[ebp], eax
	mov	ecx, DWORD PTR $T233320[ebp]
	push	ecx
	mov	edx, DWORD PTR $T233325[ebp]
	push	edx
	mov	eax, DWORD PTR $T233329[ebp]
	push	eax
	mov	ecx, DWORD PTR $T233333[ebp]
	push	ecx
	call	?plotDistance@@YAHHHHH@Z		; plotDistance
	add	esp, 16					; 00000010H
	cmp	eax, DWORD PTR _iGatherTolerance$223313[ebp]
	jg	SHORT $LN26@CheckOnTar
	mov	ecx, DWORD PTR _this$[ebp]
	call	?GetMusterPlot@CvAIOperation@@QBEPAVCvPlot@@XZ ; CvAIOperation::GetMusterPlot
	push	eax
	mov	ecx, DWORD PTR _pThisArmy$223305[ebp]
	call	?GetFurthestUnitDistance@CvArmyAI@@QAEHPAVCvPlot@@@Z ; CvArmyAI::GetFurthestUnitDistance
	mov	ecx, eax
	mov	eax, DWORD PTR _iGatherTolerance$223313[ebp]
	imul	eax, 3
	cdq
	sub	eax, edx
	sar	eax, 1
	cmp	ecx, eax
	jg	SHORT $LN26@CheckOnTar

; 585  : 						{
; 586  : 							ArmyInPosition(pThisArmy);

	mov	edx, DWORD PTR _pThisArmy$223305[ebp]
	push	edx
	mov	eax, DWORD PTR _this$[ebp]
	mov	edx, DWORD PTR [eax]
	mov	ecx, DWORD PTR _this$[ebp]
	mov	eax, DWORD PTR [edx+60]
	call	eax

; 587  : 							return true;

	mov	al, 1
	jmp	$LN48@CheckOnTar
$LN26@CheckOnTar:

; 588  : 						}
; 589  : 					}
; 590  : 					break;

	jmp	$LN23@CheckOnTar
$LN25@CheckOnTar:

; 591  : 				case AI_OPERATION_STATE_MOVING_TO_TARGET:
; 592  : 					{
; 593  : 						int iTargetTolerance = GC.getAI_OPERATIONAL_CITY_ATTACK_DEPLOY_RANGE();

	mov	ecx, DWORD PTR ?gGlobals@@3VCvGlobals@@A+2420
	mov	DWORD PTR _iTargetTolerance$223316[ebp], ecx

; 594  : 						pCenterOfMass = pThisArmy->GetCenterOfMass(IsAllNavalOperation() || IsMixedLandNavalOperation() ? DOMAIN_SEA : DOMAIN_LAND);

	mov	edx, DWORD PTR _this$[ebp]
	mov	eax, DWORD PTR [edx]
	mov	ecx, DWORD PTR _this$[ebp]
	mov	edx, DWORD PTR [eax+40]
	call	edx
	movzx	eax, al
	test	eax, eax
	jne	SHORT $LN52@CheckOnTar
	mov	ecx, DWORD PTR _this$[ebp]
	mov	edx, DWORD PTR [ecx]
	mov	ecx, DWORD PTR _this$[ebp]
	mov	eax, DWORD PTR [edx+44]
	call	eax
	movzx	ecx, al
	test	ecx, ecx
	jne	SHORT $LN52@CheckOnTar
	mov	DWORD PTR tv265[ebp], 2
	jmp	SHORT $LN53@CheckOnTar
$LN52@CheckOnTar:
	mov	DWORD PTR tv265[ebp], 0
$LN53@CheckOnTar:
	mov	edx, DWORD PTR tv265[ebp]
	push	edx
	mov	ecx, DWORD PTR _pThisArmy$223305[ebp]
	call	?GetCenterOfMass@CvArmyAI@@QAEPAVCvPlot@@W4DomainTypes@@@Z ; CvArmyAI::GetCenterOfMass
	mov	DWORD PTR _pCenterOfMass$223306[ebp], eax

; 595  : 						if(pCenterOfMass &&
; 596  : 							plotDistance(pCenterOfMass->getX(), pCenterOfMass->getY(), m_iTargetX, m_iTargetY) <= iTargetTolerance &&
; 597  : 							pThisArmy->GetFurthestUnitDistance(GetTargetPlot()) <= (iTargetTolerance * 3 / 2))

	cmp	DWORD PTR _pCenterOfMass$223306[ebp], 0
	je	$LN23@CheckOnTar
	mov	eax, DWORD PTR _pCenterOfMass$223306[ebp]
	movsx	ecx, WORD PTR [eax+2]
	mov	DWORD PTR $T233389[ebp], ecx
	mov	edx, DWORD PTR _pCenterOfMass$223306[ebp]
	movsx	eax, WORD PTR [edx]
	mov	DWORD PTR $T233393[ebp], eax
	mov	ecx, DWORD PTR _this$[ebp]
	mov	edx, DWORD PTR [ecx+108]
	push	edx
	mov	eax, DWORD PTR _this$[ebp]
	mov	ecx, DWORD PTR [eax+104]
	push	ecx
	mov	edx, DWORD PTR $T233389[ebp]
	push	edx
	mov	eax, DWORD PTR $T233393[ebp]
	push	eax
	call	?plotDistance@@YAHHHHH@Z		; plotDistance
	add	esp, 16					; 00000010H
	cmp	eax, DWORD PTR _iTargetTolerance$223316[ebp]
	jg	SHORT $LN23@CheckOnTar
	mov	ecx, DWORD PTR _this$[ebp]
	call	?GetTargetPlot@CvAIOperation@@QBEPAVCvPlot@@XZ ; CvAIOperation::GetTargetPlot
	push	eax
	mov	ecx, DWORD PTR _pThisArmy$223305[ebp]
	call	?GetFurthestUnitDistance@CvArmyAI@@QAEHPAVCvPlot@@@Z ; CvArmyAI::GetFurthestUnitDistance
	mov	ecx, eax
	mov	eax, DWORD PTR _iTargetTolerance$223316[ebp]
	imul	eax, 3
	cdq
	sub	eax, edx
	sar	eax, 1
	cmp	ecx, eax
	jg	SHORT $LN23@CheckOnTar

; 598  : 						{
; 599  : 							ArmyInPosition(pThisArmy);

	mov	edx, DWORD PTR _pThisArmy$223305[ebp]
	push	edx
	mov	eax, DWORD PTR _this$[ebp]
	mov	edx, DWORD PTR [eax]
	mov	ecx, DWORD PTR _this$[ebp]
	mov	eax, DWORD PTR [edx+60]
	call	eax

; 600  : 							return true;

	mov	al, 1
	jmp	$LN48@CheckOnTar
$LN23@CheckOnTar:

; 601  : 						}
; 602  : 					}
; 603  : 					break;
; 604  : 				}
; 605  : 			}
; 606  : 			else
; 607  : 			{
; 608  : 				CvAssertMsg(m_eCurrentState == AI_OPERATION_STATE_RECRUITING_UNITS || m_eCurrentState == AI_OPERATION_STATE_ABORTED || m_eCurrentState == AI_OPERATION_STATE_SUCCESSFUL_FINISH,
; 609  : 				            "Found an army operation with no units in it.  Show Ed and send save.");
; 610  : 			}
; 611  : 		}

	jmp	$LN32@CheckOnTar
$LN31@CheckOnTar:

; 612  : 		break;

	jmp	$LN45@CheckOnTar
$LN22@CheckOnTar:

; 613  : 	}
; 614  : 
; 615  : 	case AI_OPERATION_MOVETYPE_NAVAL_ESCORT:
; 616  : 	{
; 617  : 		// Let each army perform its own check
; 618  : 		for(unsigned int uiI = 0; uiI < m_viArmyIDs.size(); uiI++)

	mov	DWORD PTR _uiI$223320[ebp], 0
	jmp	SHORT $LN21@CheckOnTar
$LN20@CheckOnTar:
	mov	ecx, DWORD PTR _uiI$223320[ebp]
	add	ecx, 1
	mov	DWORD PTR _uiI$223320[ebp], ecx
$LN21@CheckOnTar:
	mov	edx, DWORD PTR _this$[ebp]
	add	edx, 4
	mov	DWORD PTR $T233446[ebp], edx
	mov	eax, DWORD PTR $T233446[ebp]
	mov	ecx, DWORD PTR $T233446[ebp]
	mov	edx, DWORD PTR [eax+8]
	sub	edx, DWORD PTR [ecx+4]
	sar	edx, 2
	cmp	DWORD PTR _uiI$223320[ebp], edx
	jae	$LN19@CheckOnTar

; 619  : 		{
; 620  : 			CvArmyAI* pThisArmy = GET_PLAYER(m_eOwner).getArmyAI(m_viArmyIDs[uiI]);

	mov	eax, DWORD PTR _this$[ebp]
	mov	ecx, DWORD PTR [eax+8]
	mov	edx, DWORD PTR _uiI$223320[ebp]
	lea	eax, DWORD PTR [ecx+edx*4]
	mov	DWORD PTR $T233450[ebp], eax
	mov	ecx, DWORD PTR _this$[ebp]
	mov	edx, DWORD PTR [ecx+72]
	imul	edx, 63236				; 0000f704H
	add	edx, DWORD PTR ?m_aPlayers@CvPlayerAI@@1PAV1@A ; CvPlayerAI::m_aPlayers
	mov	DWORD PTR $T233454[ebp], edx
	mov	eax, DWORD PTR $T233450[ebp]
	mov	ecx, DWORD PTR [eax]
	push	ecx
	mov	ecx, DWORD PTR $T233454[ebp]
	call	?getArmyAI@CvPlayer@@QAEPAVCvArmyAI@@H@Z ; CvPlayer::getArmyAI
	mov	DWORD PTR _pThisArmy$223324[ebp], eax

; 621  : 			CvPlot* pCenterOfMass;
; 622  : 
; 623  : 			if(pThisArmy->GetNumSlotsFilled() >= 1)

	mov	ecx, DWORD PTR _pThisArmy$223324[ebp]
	call	?GetNumSlotsFilled@CvArmyAI@@QBEHXZ	; CvArmyAI::GetNumSlotsFilled
	cmp	eax, 1
	jl	$LN11@CheckOnTar

; 624  : 			{
; 625  : 				switch(m_eCurrentState)

	mov	edx, DWORD PTR _this$[ebp]
	mov	eax, DWORD PTR [edx+56]
	mov	DWORD PTR tv317[ebp], eax
	cmp	DWORD PTR tv317[ebp], 2
	je	SHORT $LN15@CheckOnTar
	cmp	DWORD PTR tv317[ebp], 3
	je	$LN13@CheckOnTar
	jmp	$LN11@CheckOnTar
$LN15@CheckOnTar:

; 626  : 				{
; 627  : 				case AI_OPERATION_STATE_GATHERING_FORCES:
; 628  : 					{
; 629  : 						int iGatherTolerance = GetGatherTolerance(pThisArmy, GetMusterPlot());

	mov	ecx, DWORD PTR _this$[ebp]
	call	?GetMusterPlot@CvAIOperation@@QBEPAVCvPlot@@XZ ; CvAIOperation::GetMusterPlot
	push	eax
	mov	ecx, DWORD PTR _pThisArmy$223324[ebp]
	push	ecx
	mov	edx, DWORD PTR _this$[ebp]
	mov	eax, DWORD PTR [edx]
	mov	ecx, DWORD PTR _this$[ebp]
	mov	edx, DWORD PTR [eax+48]
	call	edx
	mov	DWORD PTR _iGatherTolerance$223332[ebp], eax

; 630  : 						pCenterOfMass = pThisArmy->GetCenterOfMass(DOMAIN_SEA);

	push	0
	mov	ecx, DWORD PTR _pThisArmy$223324[ebp]
	call	?GetCenterOfMass@CvArmyAI@@QAEPAVCvPlot@@W4DomainTypes@@@Z ; CvArmyAI::GetCenterOfMass
	mov	DWORD PTR _pCenterOfMass$223325[ebp], eax

; 631  : 						if(pCenterOfMass &&
; 632  : 							plotDistance(pCenterOfMass->getX(), pCenterOfMass->getY(), GetMusterPlot()->getX(), GetMusterPlot()->getY()) <= iGatherTolerance &&
; 633  : 							pThisArmy->GetFurthestUnitDistance(GetMusterPlot()) <= (iGatherTolerance * 3))

	cmp	DWORD PTR _pCenterOfMass$223325[ebp], 0
	je	$LN14@CheckOnTar
	mov	ecx, DWORD PTR _this$[ebp]
	call	?GetMusterPlot@CvAIOperation@@QBEPAVCvPlot@@XZ ; CvAIOperation::GetMusterPlot
	mov	DWORD PTR $T233458[ebp], eax
	mov	eax, DWORD PTR $T233458[ebp]
	movsx	ecx, WORD PTR [eax+2]
	mov	DWORD PTR $T233459[ebp], ecx
	mov	ecx, DWORD PTR _this$[ebp]
	call	?GetMusterPlot@CvAIOperation@@QBEPAVCvPlot@@XZ ; CvAIOperation::GetMusterPlot
	mov	DWORD PTR $T233463[ebp], eax
	mov	edx, DWORD PTR $T233463[ebp]
	movsx	eax, WORD PTR [edx]
	mov	DWORD PTR $T233464[ebp], eax
	mov	ecx, DWORD PTR _pCenterOfMass$223325[ebp]
	movsx	edx, WORD PTR [ecx+2]
	mov	DWORD PTR $T233468[ebp], edx
	mov	eax, DWORD PTR _pCenterOfMass$223325[ebp]
	movsx	ecx, WORD PTR [eax]
	mov	DWORD PTR $T233472[ebp], ecx
	mov	edx, DWORD PTR $T233459[ebp]
	push	edx
	mov	eax, DWORD PTR $T233464[ebp]
	push	eax
	mov	ecx, DWORD PTR $T233468[ebp]
	push	ecx
	mov	edx, DWORD PTR $T233472[ebp]
	push	edx
	call	?plotDistance@@YAHHHHH@Z		; plotDistance
	add	esp, 16					; 00000010H
	cmp	eax, DWORD PTR _iGatherTolerance$223332[ebp]
	jg	SHORT $LN14@CheckOnTar
	mov	ecx, DWORD PTR _this$[ebp]
	call	?GetMusterPlot@CvAIOperation@@QBEPAVCvPlot@@XZ ; CvAIOperation::GetMusterPlot
	push	eax
	mov	ecx, DWORD PTR _pThisArmy$223324[ebp]
	call	?GetFurthestUnitDistance@CvArmyAI@@QAEHPAVCvPlot@@@Z ; CvArmyAI::GetFurthestUnitDistance
	mov	ecx, DWORD PTR _iGatherTolerance$223332[ebp]
	imul	ecx, 3
	cmp	eax, ecx
	jg	SHORT $LN14@CheckOnTar

; 634  : 						{
; 635  : 							ArmyInPosition(pThisArmy);

	mov	edx, DWORD PTR _pThisArmy$223324[ebp]
	push	edx
	mov	eax, DWORD PTR _this$[ebp]
	mov	edx, DWORD PTR [eax]
	mov	ecx, DWORD PTR _this$[ebp]
	mov	eax, DWORD PTR [edx+60]
	call	eax

; 636  : 							return true;

	mov	al, 1
	jmp	$LN48@CheckOnTar
$LN14@CheckOnTar:

; 637  : 						}
; 638  : 					}
; 639  : 					break;

	jmp	$LN11@CheckOnTar
$LN13@CheckOnTar:

; 640  : 				case AI_OPERATION_STATE_MOVING_TO_TARGET:
; 641  : 					{
; 642  : 						int iTargetTolerance = GC.getAI_OPERATIONAL_CITY_ATTACK_DEPLOY_RANGE();

	mov	ecx, DWORD PTR ?gGlobals@@3VCvGlobals@@A+2420
	mov	DWORD PTR _iTargetTolerance$223335[ebp], ecx

; 643  : 						pCenterOfMass = pThisArmy->GetCenterOfMass(DOMAIN_SEA);

	push	0
	mov	ecx, DWORD PTR _pThisArmy$223324[ebp]
	call	?GetCenterOfMass@CvArmyAI@@QAEPAVCvPlot@@W4DomainTypes@@@Z ; CvArmyAI::GetCenterOfMass
	mov	DWORD PTR _pCenterOfMass$223325[ebp], eax

; 644  : 						if(pCenterOfMass &&
; 645  : 							plotDistance(pCenterOfMass->getX(), pCenterOfMass->getY(), m_iTargetX, m_iTargetY) <= (iTargetTolerance  * 2) &&
; 646  : 							pThisArmy->GetFurthestUnitDistance(GetTargetPlot()) <= (iTargetTolerance * 3))

	cmp	DWORD PTR _pCenterOfMass$223325[ebp], 0
	je	$LN11@CheckOnTar
	mov	edx, DWORD PTR _pCenterOfMass$223325[ebp]
	movsx	eax, WORD PTR [edx+2]
	mov	DWORD PTR $T233540[ebp], eax
	mov	ecx, DWORD PTR _pCenterOfMass$223325[ebp]
	movsx	edx, WORD PTR [ecx]
	mov	DWORD PTR $T233544[ebp], edx
	mov	eax, DWORD PTR _this$[ebp]
	mov	ecx, DWORD PTR [eax+108]
	push	ecx
	mov	edx, DWORD PTR _this$[ebp]
	mov	eax, DWORD PTR [edx+104]
	push	eax
	mov	ecx, DWORD PTR $T233540[ebp]
	push	ecx
	mov	edx, DWORD PTR $T233544[ebp]
	push	edx
	call	?plotDistance@@YAHHHHH@Z		; plotDistance
	add	esp, 16					; 00000010H
	mov	ecx, DWORD PTR _iTargetTolerance$223335[ebp]
	shl	ecx, 1
	cmp	eax, ecx
	jg	SHORT $LN11@CheckOnTar
	mov	ecx, DWORD PTR _this$[ebp]
	call	?GetTargetPlot@CvAIOperation@@QBEPAVCvPlot@@XZ ; CvAIOperation::GetTargetPlot
	push	eax
	mov	ecx, DWORD PTR _pThisArmy$223324[ebp]
	call	?GetFurthestUnitDistance@CvArmyAI@@QAEHPAVCvPlot@@@Z ; CvArmyAI::GetFurthestUnitDistance
	mov	edx, DWORD PTR _iTargetTolerance$223335[ebp]
	imul	edx, 3
	cmp	eax, edx
	jg	SHORT $LN11@CheckOnTar

; 647  : 						{
; 648  : 							ArmyInPosition(pThisArmy);

	mov	eax, DWORD PTR _pThisArmy$223324[ebp]
	push	eax
	mov	ecx, DWORD PTR _this$[ebp]
	mov	edx, DWORD PTR [ecx]
	mov	ecx, DWORD PTR _this$[ebp]
	mov	eax, DWORD PTR [edx+60]
	call	eax

; 649  : 							return true;

	mov	al, 1
	jmp	$LN48@CheckOnTar
$LN11@CheckOnTar:

; 650  : 						}
; 651  : 					}
; 652  : 					break;
; 653  : 				}
; 654  : 			}
; 655  : 			else
; 656  : 			{
; 657  : 				CvAssertMsg(m_eCurrentState == AI_OPERATION_STATE_RECRUITING_UNITS || m_eCurrentState == AI_OPERATION_STATE_ABORTED || m_eCurrentState == AI_OPERATION_STATE_SUCCESSFUL_FINISH,
; 658  : 				            "Found an army operation with no units in it.  Show Ed and send save.");
; 659  : 			}
; 660  : 		}

	jmp	$LN20@CheckOnTar
$LN19@CheckOnTar:

; 661  : 		break;

	jmp	$LN45@CheckOnTar
$LN10@CheckOnTar:

; 662  : 	}
; 663  : 
; 664  : 	case AI_OPERATION_MOVETYPE_FREEFORM_NAVAL:
; 665  : 	{
; 666  : 		// Let each army perform its own check
; 667  : 		for(unsigned int uiI = 0; uiI < m_viArmyIDs.size(); uiI++)

	mov	DWORD PTR _uiI$223339[ebp], 0
	jmp	SHORT $LN9@CheckOnTar
$LN8@CheckOnTar:
	mov	ecx, DWORD PTR _uiI$223339[ebp]
	add	ecx, 1
	mov	DWORD PTR _uiI$223339[ebp], ecx
$LN9@CheckOnTar:
	mov	edx, DWORD PTR _this$[ebp]
	add	edx, 4
	mov	DWORD PTR $T233609[ebp], edx
	mov	eax, DWORD PTR $T233609[ebp]
	mov	ecx, DWORD PTR $T233609[ebp]
	mov	edx, DWORD PTR [eax+8]
	sub	edx, DWORD PTR [ecx+4]
	sar	edx, 2
	cmp	DWORD PTR _uiI$223339[ebp], edx
	jae	$LN45@CheckOnTar

; 668  : 		{
; 669  : 			CvArmyAI* pThisArmy = GET_PLAYER(m_eOwner).getArmyAI(m_viArmyIDs[uiI]);

	mov	eax, DWORD PTR _this$[ebp]
	mov	ecx, DWORD PTR [eax+8]
	mov	edx, DWORD PTR _uiI$223339[ebp]
	lea	eax, DWORD PTR [ecx+edx*4]
	mov	DWORD PTR $T233613[ebp], eax
	mov	ecx, DWORD PTR _this$[ebp]
	mov	edx, DWORD PTR [ecx+72]
	imul	edx, 63236				; 0000f704H
	add	edx, DWORD PTR ?m_aPlayers@CvPlayerAI@@1PAV1@A ; CvPlayerAI::m_aPlayers
	mov	DWORD PTR $T233617[ebp], edx
	mov	eax, DWORD PTR $T233613[ebp]
	mov	ecx, DWORD PTR [eax]
	push	ecx
	mov	ecx, DWORD PTR $T233617[ebp]
	call	?getArmyAI@CvPlayer@@QAEPAVCvArmyAI@@H@Z ; CvPlayer::getArmyAI
	mov	DWORD PTR _pThisArmy$223343[ebp], eax

; 670  : 			CvPlot* pCenterOfMass;
; 671  : 			int iGatherTolerance = GetGatherTolerance(pThisArmy, GetMusterPlot());

	mov	ecx, DWORD PTR _this$[ebp]
	call	?GetMusterPlot@CvAIOperation@@QBEPAVCvPlot@@XZ ; CvAIOperation::GetMusterPlot
	push	eax
	mov	edx, DWORD PTR _pThisArmy$223343[ebp]
	push	edx
	mov	eax, DWORD PTR _this$[ebp]
	mov	edx, DWORD PTR [eax]
	mov	ecx, DWORD PTR _this$[ebp]
	mov	eax, DWORD PTR [edx+48]
	call	eax
	mov	DWORD PTR _iGatherTolerance$223345[ebp], eax

; 672  : 
; 673  : 			if(pThisArmy->GetNumSlotsFilled() >= 1)

	mov	ecx, DWORD PTR _pThisArmy$223343[ebp]
	call	?GetNumSlotsFilled@CvArmyAI@@QBEHXZ	; CvArmyAI::GetNumSlotsFilled
	cmp	eax, 1
	jl	$LN1@CheckOnTar

; 674  : 			{
; 675  : 				switch(m_eCurrentState)

	mov	ecx, DWORD PTR _this$[ebp]
	mov	edx, DWORD PTR [ecx+56]
	mov	DWORD PTR tv422[ebp], edx
	cmp	DWORD PTR tv422[ebp], 2
	jl	$LN1@CheckOnTar
	cmp	DWORD PTR tv422[ebp], 3
	jle	SHORT $LN3@CheckOnTar
	jmp	$LN1@CheckOnTar
$LN3@CheckOnTar:

; 676  : 				{
; 677  : 				case AI_OPERATION_STATE_GATHERING_FORCES:
; 678  : 				case AI_OPERATION_STATE_MOVING_TO_TARGET:
; 679  : 
; 680  : 					// We want to recompute a new target each turn.  So call ArmyInPosition() regardless of return status
; 681  : 					ArmyInPosition(pThisArmy);

	mov	eax, DWORD PTR _pThisArmy$223343[ebp]
	push	eax
	mov	ecx, DWORD PTR _this$[ebp]
	mov	edx, DWORD PTR [ecx]
	mov	ecx, DWORD PTR _this$[ebp]
	mov	eax, DWORD PTR [edx+60]
	call	eax

; 682  : 
; 683  : 					pCenterOfMass = pThisArmy->GetCenterOfMass(DOMAIN_SEA);

	push	0
	mov	ecx, DWORD PTR _pThisArmy$223343[ebp]
	call	?GetCenterOfMass@CvArmyAI@@QAEPAVCvPlot@@W4DomainTypes@@@Z ; CvArmyAI::GetCenterOfMass
	mov	DWORD PTR _pCenterOfMass$223344[ebp], eax

; 684  : 					if(pCenterOfMass &&
; 685  : 					        plotDistance(pCenterOfMass->getX(), pCenterOfMass->getY(), GetTargetPlot()->getX(), GetTargetPlot()->getY()) <= iGatherTolerance &&
; 686  : 					        pThisArmy->GetFurthestUnitDistance(GetMusterPlot()) <= (iGatherTolerance * 3 / 2))

	cmp	DWORD PTR _pCenterOfMass$223344[ebp], 0
	je	$LN1@CheckOnTar
	mov	ecx, DWORD PTR _this$[ebp]
	call	?GetTargetPlot@CvAIOperation@@QBEPAVCvPlot@@XZ ; CvAIOperation::GetTargetPlot
	mov	DWORD PTR $T233621[ebp], eax
	mov	ecx, DWORD PTR $T233621[ebp]
	movsx	edx, WORD PTR [ecx+2]
	mov	DWORD PTR $T233622[ebp], edx
	mov	ecx, DWORD PTR _this$[ebp]
	call	?GetTargetPlot@CvAIOperation@@QBEPAVCvPlot@@XZ ; CvAIOperation::GetTargetPlot
	mov	DWORD PTR $T233626[ebp], eax
	mov	eax, DWORD PTR $T233626[ebp]
	movsx	ecx, WORD PTR [eax]
	mov	DWORD PTR $T233627[ebp], ecx
	mov	edx, DWORD PTR _pCenterOfMass$223344[ebp]
	movsx	eax, WORD PTR [edx+2]
	mov	DWORD PTR $T233631[ebp], eax
	mov	ecx, DWORD PTR _pCenterOfMass$223344[ebp]
	movsx	edx, WORD PTR [ecx]
	mov	DWORD PTR $T233635[ebp], edx
	mov	eax, DWORD PTR $T233622[ebp]
	push	eax
	mov	ecx, DWORD PTR $T233627[ebp]
	push	ecx
	mov	edx, DWORD PTR $T233631[ebp]
	push	edx
	mov	eax, DWORD PTR $T233635[ebp]
	push	eax
	call	?plotDistance@@YAHHHHH@Z		; plotDistance
	add	esp, 16					; 00000010H
	cmp	eax, DWORD PTR _iGatherTolerance$223345[ebp]
	jg	SHORT $LN1@CheckOnTar
	mov	ecx, DWORD PTR _this$[ebp]
	call	?GetMusterPlot@CvAIOperation@@QBEPAVCvPlot@@XZ ; CvAIOperation::GetMusterPlot
	push	eax
	mov	ecx, DWORD PTR _pThisArmy$223343[ebp]
	call	?GetFurthestUnitDistance@CvArmyAI@@QAEHPAVCvPlot@@@Z ; CvArmyAI::GetFurthestUnitDistance
	mov	ecx, eax
	mov	eax, DWORD PTR _iGatherTolerance$223345[ebp]
	imul	eax, 3
	cdq
	sub	eax, edx
	sar	eax, 1
	cmp	ecx, eax
	jg	SHORT $LN1@CheckOnTar

; 687  : 					{
; 688  : 						return true;

	mov	al, 1
	jmp	SHORT $LN48@CheckOnTar
$LN1@CheckOnTar:

; 689  : 					}
; 690  : 					break;
; 691  : 				}
; 692  : 			}
; 693  : 			else
; 694  : 			{
; 695  : 				CvAssertMsg(m_eCurrentState == AI_OPERATION_STATE_RECRUITING_UNITS || m_eCurrentState == AI_OPERATION_STATE_ABORTED || m_eCurrentState == AI_OPERATION_STATE_SUCCESSFUL_FINISH,
; 696  : 				            "Found an army operation with no units in it.  Show Ed and send save.");
; 697  : 			}
; 698  : 		}

	jmp	$LN8@CheckOnTar
$LN45@CheckOnTar:

; 699  : 		break;
; 700  : 	}
; 701  : 	}
; 702  : 	return false;

	xor	al, al
$LN48@CheckOnTar:

; 703  : }

	mov	esp, ebp
	pop	ebp
	ret	0
	npad	3
$LN318@CheckOnTar:
	DD	$LN44@CheckOnTar
	DD	$LN34@CheckOnTar
	DD	$LN22@CheckOnTar
	DD	$LN10@CheckOnTar
?CheckOnTarget@CvAIOperation@@UAE_NXZ ENDP		; CvAIOperation::CheckOnTarget
_TEXT	ENDS
EXTRN	?Plot@CvArmyAI@@QBEPAVCvPlot@@XZ:PROC		; CvArmyAI::Plot
; Function compile flags: /Odtp
;	COMDAT ?ArmyInPosition@CvAIOperation@@UAE_NPAVCvArmyAI@@@Z
_TEXT	SEGMENT
tv65 = -12						; size = 4
_this$ = -8						; size = 4
_bStateChanged$ = -1					; size = 1
_pArmy$ = 8						; size = 4
?ArmyInPosition@CvAIOperation@@UAE_NPAVCvArmyAI@@@Z PROC ; CvAIOperation::ArmyInPosition, COMDAT
; _this$ = ecx

; 707  : {

	push	ebp
	mov	ebp, esp
	sub	esp, 12					; 0000000cH
	push	esi
	mov	DWORD PTR _this$[ebp], ecx

; 708  : 	bool bStateChanged = false;

	mov	BYTE PTR _bStateChanged$[ebp], 0

; 709  : 
; 710  : 	switch(m_eCurrentState)

	mov	eax, DWORD PTR _this$[ebp]
	mov	ecx, DWORD PTR [eax+56]
	mov	DWORD PTR tv65[ebp], ecx
	cmp	DWORD PTR tv65[ebp], 2
	je	SHORT $LN4@ArmyInPosi
	cmp	DWORD PTR tv65[ebp], 3
	je	SHORT $LN3@ArmyInPosi
	jmp	SHORT $LN5@ArmyInPosi
$LN4@ArmyInPosi:

; 711  : 	{
; 712  : 		// If we were gathering forces, we're all set to move out
; 713  : 	case AI_OPERATION_STATE_GATHERING_FORCES:
; 714  : 	{
; 715  : 		m_eCurrentState = AI_OPERATION_STATE_MOVING_TO_TARGET;

	mov	edx, DWORD PTR _this$[ebp]
	mov	DWORD PTR [edx+56], 3

; 716  : 		bStateChanged = true;

	mov	BYTE PTR _bStateChanged$[ebp], 1

; 717  : 		pArmy->SetArmyAIState(ARMYAISTATE_MOVING_TO_DESTINATION);

	push	2
	mov	ecx, DWORD PTR _pArmy$[ebp]
	call	?SetArmyAIState@CvArmyAI@@QAEXW4ArmyAIState@@@Z ; CvArmyAI::SetArmyAIState

; 718  : 	}
; 719  : 	break;

	jmp	SHORT $LN5@ArmyInPosi
$LN3@ArmyInPosi:

; 720  : 
; 721  : 	// If we are moving to our target, check and see if we are there
; 722  : 	case AI_OPERATION_STATE_MOVING_TO_TARGET:
; 723  : 	{
; 724  : 		if(pArmy->Plot() == GetTargetPlot())

	mov	ecx, DWORD PTR _pArmy$[ebp]
	call	?Plot@CvArmyAI@@QBEPAVCvPlot@@XZ	; CvArmyAI::Plot
	mov	esi, eax
	mov	ecx, DWORD PTR _this$[ebp]
	call	?GetTargetPlot@CvAIOperation@@QBEPAVCvPlot@@XZ ; CvAIOperation::GetTargetPlot
	cmp	esi, eax
	jne	SHORT $LN5@ArmyInPosi

; 725  : 		{
; 726  : 			m_eCurrentState = AI_OPERATION_STATE_AT_TARGET;

	mov	eax, DWORD PTR _this$[ebp]
	mov	DWORD PTR [eax+56], 4

; 727  : 			bStateChanged = true;

	mov	BYTE PTR _bStateChanged$[ebp], 1
$LN5@ArmyInPosi:

; 728  : 		}
; 729  : 	}
; 730  : 	break;
; 731  : 
; 732  : 	case AI_OPERATION_STATE_ABORTED:
; 733  : 	case AI_OPERATION_STATE_RECRUITING_UNITS:
; 734  : 	case AI_OPERATION_STATE_AT_TARGET:
; 735  : 	case AI_OPERATION_STATE_SUCCESSFUL_FINISH:
; 736  : 		break;
; 737  : 	};
; 738  : 
; 739  : 	return bStateChanged;

	mov	al, BYTE PTR _bStateChanged$[ebp]

; 740  : }

	pop	esi
	mov	esp, ebp
	pop	ebp
	ret	4
?ArmyInPosition@CvAIOperation@@UAE_NPAVCvArmyAI@@@Z ENDP ; CvAIOperation::ArmyInPosition
_TEXT	ENDS
EXTRN	?GetStepDistanceBetweenPoints@CvStepPathFinder@@QAEHW4PlayerTypes@@0PAVCvPlot@@1@Z:PROC ; CvStepPathFinder::GetStepDistanceBetweenPoints
EXTRN	?getStepFinder@CvGlobals@@QAEAAVCvStepPathFinder@@XZ:PROC ; CvGlobals::getStepFinder
EXTRN	?GetGoalPlot@CvArmyAI@@QBEPAVCvPlot@@XZ:PROC	; CvArmyAI::GetGoalPlot
; Function compile flags: /Odtp
;	COMDAT ?PercentFromMusterPointToTarget@CvAIOperation@@UAEHXZ
_TEXT	SEGMENT
tv134 = -52						; size = 4
tv65 = -48						; size = 4
_this$ = -44						; size = 4
$T233739 = -40						; size = 4
$T233735 = -36						; size = 4
$T233731 = -32						; size = 4
_iTempValue$223391 = -28				; size = 4
_iDistanceCurrentToTarget$223385 = -24			; size = 4
_pCenterOfMass$223386 = -20				; size = 4
_iDistanceMusterToTarget$223384 = -16			; size = 4
_pArmy$223382 = -12					; size = 4
_uiI$223378 = -8					; size = 4
_iRtnValue$ = -4					; size = 4
?PercentFromMusterPointToTarget@CvAIOperation@@UAEHXZ PROC ; CvAIOperation::PercentFromMusterPointToTarget, COMDAT
; _this$ = ecx

; 744  : {

	push	ebp
	mov	ebp, esp
	sub	esp, 52					; 00000034H
	mov	DWORD PTR _this$[ebp], ecx

; 745  : 	int iRtnValue = 0;

	mov	DWORD PTR _iRtnValue$[ebp], 0

; 746  : 
; 747  : 	switch(m_eCurrentState)

	mov	eax, DWORD PTR _this$[ebp]
	mov	ecx, DWORD PTR [eax+56]
	mov	DWORD PTR tv65[ebp], ecx
	cmp	DWORD PTR tv65[ebp], 5
	ja	$LN14@PercentFro
	mov	edx, DWORD PTR tv65[ebp]
	jmp	DWORD PTR $LN26@PercentFro[edx*4]
$LN13@PercentFro:

; 748  : 	{
; 749  : 	case AI_OPERATION_STATE_GATHERING_FORCES:
; 750  : 	case AI_OPERATION_STATE_ABORTED:
; 751  : 	case AI_OPERATION_STATE_RECRUITING_UNITS:
; 752  : 		return 0;

	xor	eax, eax
	jmp	$LN16@PercentFro
$LN12@PercentFro:

; 753  : 
; 754  : 	case AI_OPERATION_STATE_AT_TARGET:
; 755  : 	case AI_OPERATION_STATE_SUCCESSFUL_FINISH:
; 756  : 		return 100;

	mov	eax, 100				; 00000064H
	jmp	$LN16@PercentFro
$LN11@PercentFro:

; 757  : 
; 758  : 	case AI_OPERATION_STATE_MOVING_TO_TARGET:
; 759  : 	{
; 760  : 		// Let each army perform its own update
; 761  : 		for(unsigned int uiI = 0; uiI < m_viArmyIDs.size(); uiI++)

	mov	DWORD PTR _uiI$223378[ebp], 0
	jmp	SHORT $LN10@PercentFro
$LN9@PercentFro:
	mov	eax, DWORD PTR _uiI$223378[ebp]
	add	eax, 1
	mov	DWORD PTR _uiI$223378[ebp], eax
$LN10@PercentFro:
	mov	ecx, DWORD PTR _this$[ebp]
	add	ecx, 4
	mov	DWORD PTR $T233731[ebp], ecx
	mov	edx, DWORD PTR $T233731[ebp]
	mov	eax, DWORD PTR $T233731[ebp]
	mov	ecx, DWORD PTR [edx+8]
	sub	ecx, DWORD PTR [eax+4]
	sar	ecx, 2
	cmp	DWORD PTR _uiI$223378[ebp], ecx
	jae	$LN14@PercentFro

; 762  : 		{
; 763  : 			CvArmyAI* pArmy = GET_PLAYER(m_eOwner).getArmyAI(m_viArmyIDs[uiI]);

	mov	edx, DWORD PTR _this$[ebp]
	mov	eax, DWORD PTR [edx+8]
	mov	ecx, DWORD PTR _uiI$223378[ebp]
	lea	edx, DWORD PTR [eax+ecx*4]
	mov	DWORD PTR $T233735[ebp], edx
	mov	eax, DWORD PTR _this$[ebp]
	mov	ecx, DWORD PTR [eax+72]
	imul	ecx, 63236				; 0000f704H
	add	ecx, DWORD PTR ?m_aPlayers@CvPlayerAI@@1PAV1@A ; CvPlayerAI::m_aPlayers
	mov	DWORD PTR $T233739[ebp], ecx
	mov	edx, DWORD PTR $T233735[ebp]
	mov	eax, DWORD PTR [edx]
	push	eax
	mov	ecx, DWORD PTR $T233739[ebp]
	call	?getArmyAI@CvPlayer@@QAEPAVCvArmyAI@@H@Z ; CvPlayer::getArmyAI
	mov	DWORD PTR _pArmy$223382[ebp], eax

; 764  : 
; 765  : 			if (pArmy->GetGoalPlot())

	mov	ecx, DWORD PTR _pArmy$223382[ebp]
	call	?GetGoalPlot@CvArmyAI@@QBEPAVCvPlot@@XZ	; CvArmyAI::GetGoalPlot
	test	eax, eax
	je	$LN1@PercentFro

; 766  : 			{
; 767  : 				int iDistanceMusterToTarget;
; 768  : 				int iDistanceCurrentToTarget;
; 769  : 
; 770  : 				CvPlot *pCenterOfMass = pArmy->GetCenterOfMass(IsAllNavalOperation() || IsMixedLandNavalOperation() ? DOMAIN_SEA : DOMAIN_LAND);

	mov	ecx, DWORD PTR _this$[ebp]
	mov	edx, DWORD PTR [ecx]
	mov	ecx, DWORD PTR _this$[ebp]
	mov	eax, DWORD PTR [edx+40]
	call	eax
	movzx	ecx, al
	test	ecx, ecx
	jne	SHORT $LN18@PercentFro
	mov	edx, DWORD PTR _this$[ebp]
	mov	eax, DWORD PTR [edx]
	mov	ecx, DWORD PTR _this$[ebp]
	mov	edx, DWORD PTR [eax+44]
	call	edx
	movzx	eax, al
	test	eax, eax
	jne	SHORT $LN18@PercentFro
	mov	DWORD PTR tv134[ebp], 2
	jmp	SHORT $LN19@PercentFro
$LN18@PercentFro:
	mov	DWORD PTR tv134[ebp], 0
$LN19@PercentFro:
	mov	ecx, DWORD PTR tv134[ebp]
	push	ecx
	mov	ecx, DWORD PTR _pArmy$223382[ebp]
	call	?GetCenterOfMass@CvArmyAI@@QAEPAVCvPlot@@W4DomainTypes@@@Z ; CvArmyAI::GetCenterOfMass
	mov	DWORD PTR _pCenterOfMass$223386[ebp], eax

; 771  : 
; 772  : 				// Use the step path finder to compute distance
; 773  : 				iDistanceMusterToTarget = GC.getStepFinder().GetStepDistanceBetweenPoints(m_eOwner, m_eEnemy, GetMusterPlot(), pArmy->GetGoalPlot());

	mov	ecx, DWORD PTR _pArmy$223382[ebp]
	call	?GetGoalPlot@CvArmyAI@@QBEPAVCvPlot@@XZ	; CvArmyAI::GetGoalPlot
	push	eax
	mov	ecx, DWORD PTR _this$[ebp]
	call	?GetMusterPlot@CvAIOperation@@QBEPAVCvPlot@@XZ ; CvAIOperation::GetMusterPlot
	push	eax
	mov	edx, DWORD PTR _this$[ebp]
	mov	eax, DWORD PTR [edx+76]
	push	eax
	mov	ecx, DWORD PTR _this$[ebp]
	mov	edx, DWORD PTR [ecx+72]
	push	edx
	mov	ecx, OFFSET ?gGlobals@@3VCvGlobals@@A	; gGlobals
	call	?getStepFinder@CvGlobals@@QAEAAVCvStepPathFinder@@XZ ; CvGlobals::getStepFinder
	mov	ecx, eax
	call	?GetStepDistanceBetweenPoints@CvStepPathFinder@@QAEHW4PlayerTypes@@0PAVCvPlot@@1@Z ; CvStepPathFinder::GetStepDistanceBetweenPoints
	mov	DWORD PTR _iDistanceMusterToTarget$223384[ebp], eax

; 774  : 				iDistanceCurrentToTarget = GC.getStepFinder().GetStepDistanceBetweenPoints(m_eOwner, m_eEnemy, pCenterOfMass, pArmy->GetGoalPlot());

	mov	ecx, DWORD PTR _pArmy$223382[ebp]
	call	?GetGoalPlot@CvArmyAI@@QBEPAVCvPlot@@XZ	; CvArmyAI::GetGoalPlot
	push	eax
	mov	eax, DWORD PTR _pCenterOfMass$223386[ebp]
	push	eax
	mov	ecx, DWORD PTR _this$[ebp]
	mov	edx, DWORD PTR [ecx+76]
	push	edx
	mov	eax, DWORD PTR _this$[ebp]
	mov	ecx, DWORD PTR [eax+72]
	push	ecx
	mov	ecx, OFFSET ?gGlobals@@3VCvGlobals@@A	; gGlobals
	call	?getStepFinder@CvGlobals@@QAEAAVCvStepPathFinder@@XZ ; CvGlobals::getStepFinder
	mov	ecx, eax
	call	?GetStepDistanceBetweenPoints@CvStepPathFinder@@QAEHW4PlayerTypes@@0PAVCvPlot@@1@Z ; CvStepPathFinder::GetStepDistanceBetweenPoints
	mov	DWORD PTR _iDistanceCurrentToTarget$223385[ebp], eax

; 775  : 
; 776  : 				if(iDistanceMusterToTarget <= 0)

	cmp	DWORD PTR _iDistanceMusterToTarget$223384[ebp], 0
	jg	SHORT $LN6@PercentFro

; 777  : 				{
; 778  : 					return 0;

	xor	eax, eax
	jmp	SHORT $LN16@PercentFro
	jmp	SHORT $LN1@PercentFro
$LN6@PercentFro:

; 779  : 				}
; 780  : 	
; 781  : 				// If within 2 of the final goal, consider ourselves there
; 782  : 				else if (iDistanceCurrentToTarget <= 2)

	cmp	DWORD PTR _iDistanceCurrentToTarget$223385[ebp], 2
	jg	SHORT $LN4@PercentFro

; 783  : 				{
; 784  : 					return 100;

	mov	eax, 100				; 00000064H
	jmp	SHORT $LN16@PercentFro

; 785  : 				}
; 786  : 
; 787  : 				else

	jmp	SHORT $LN1@PercentFro
$LN4@PercentFro:

; 788  : 				{
; 789  : 					int iTempValue = 100 - (100 * iDistanceCurrentToTarget / iDistanceMusterToTarget);

	mov	eax, DWORD PTR _iDistanceCurrentToTarget$223385[ebp]
	imul	eax, 100				; 00000064H
	cdq
	idiv	DWORD PTR _iDistanceMusterToTarget$223384[ebp]
	mov	edx, 100				; 00000064H
	sub	edx, eax
	mov	DWORD PTR _iTempValue$223391[ebp], edx

; 790  : 					if(iTempValue > iRtnValue)

	mov	eax, DWORD PTR _iTempValue$223391[ebp]
	cmp	eax, DWORD PTR _iRtnValue$[ebp]
	jle	SHORT $LN1@PercentFro

; 791  : 					{
; 792  : 						iRtnValue = iTempValue;

	mov	ecx, DWORD PTR _iTempValue$223391[ebp]
	mov	DWORD PTR _iRtnValue$[ebp], ecx
$LN1@PercentFro:

; 793  : 					}
; 794  : 				}
; 795  : 			}
; 796  : 			else 
; 797  : 			{
; 798  : 				CvAssertMsg (false, "Operational AI army without a goal plot!  Send save to Ed");
; 799  : 			}
; 800  : 		}

	jmp	$LN9@PercentFro
$LN14@PercentFro:

; 801  : 	}
; 802  : 	break;
; 803  : 	}
; 804  : 
; 805  : 	return iRtnValue;

	mov	eax, DWORD PTR _iRtnValue$[ebp]
$LN16@PercentFro:

; 806  : }

	mov	esp, ebp
	pop	ebp
	ret	0
	npad	3
$LN26@PercentFro:
	DD	$LN13@PercentFro
	DD	$LN13@PercentFro
	DD	$LN13@PercentFro
	DD	$LN11@PercentFro
	DD	$LN12@PercentFro
	DD	$LN12@PercentFro
?PercentFromMusterPointToTarget@CvAIOperation@@UAEHXZ ENDP ; CvAIOperation::PercentFromMusterPointToTarget
_TEXT	ENDS
PUBLIC	??1?$FObjectHandle@VCvUnit@@@@QAE@XZ		; FObjectHandle<CvUnit>::~FObjectHandle<CvUnit>
PUBLIC	?SetDeployFromOperationTurn@CvUnit@@QAEXH@Z	; CvUnit::SetDeployFromOperationTurn
EXTRN	?GetNextUnit@CvArmyAI@@QAE?AV?$FObjectHandle@VCvUnit@@@@XZ:PROC ; CvArmyAI::GetNextUnit
EXTRN	?getDestructionNotification@CvUnit@@QAEAAU?$DestructionNotification@V?$FObjectHandle@VCvUnit@@@@@@XZ:PROC ; CvUnit::getDestructionNotification
EXTRN	?GetFirstUnit@CvArmyAI@@QAE?AV?$FObjectHandle@VCvUnit@@@@XZ:PROC ; CvArmyAI::GetFirstUnit
;	COMDAT xdata$x
; File d:\sources\lekmod_git\checkout\lekmod_dll\fireplace\include\fireworks\fobjecthandle.h
xdata$x	SEGMENT
__unwindtable$?ShouldAbort@CvAIOperation@@UAE_NXZ DD 0ffffffffH
	DD	FLAT:__unwindfunclet$?ShouldAbort@CvAIOperation@@UAE_NXZ$0
	DD	00H
	DD	FLAT:__unwindfunclet$?ShouldAbort@CvAIOperation@@UAE_NXZ$1
	DD	00H
	DD	FLAT:__unwindfunclet$?ShouldAbort@CvAIOperation@@UAE_NXZ$2
__ehfuncinfo$?ShouldAbort@CvAIOperation@@UAE_NXZ DD 019930522H
	DD	03H
	DD	FLAT:__unwindtable$?ShouldAbort@CvAIOperation@@UAE_NXZ
	DD	2 DUP(00H)
	DD	2 DUP(00H)
	DD	00H
	DD	01H
; Function compile flags: /Odtp
; File d:\sources\lekmod_git\checkout\lekmod_dll\cvgamecoredll_expansion2\cvaioperation.cpp
xdata$x	ENDS
;	COMDAT ?ShouldAbort@CvAIOperation@@UAE_NXZ
_TEXT	SEGMENT
tv150 = -112						; size = 4
tv181 = -108						; size = 4
tv157 = -104						; size = 4
_this$ = -100						; size = 4
$T233848 = -96						; size = 4
$T233802 = -72						; size = 4
$T233798 = -68						; size = 4
$T233782 = -64						; size = 4
$T233765 = -60						; size = 4
$T233761 = -56						; size = 4
$T233757 = -52						; size = 4
$T233745 = -45						; size = 1
$T233744 = -44						; size = 8
$T233743 = -36						; size = 8
_pArmy$223403 = -28					; size = 4
_uiI$223399 = -24					; size = 4
_pUnit$ = -20						; size = 8
__$EHRec$ = -12						; size = 12
?ShouldAbort@CvAIOperation@@UAE_NXZ PROC		; CvAIOperation::ShouldAbort, COMDAT
; _this$ = ecx

; 811  : {

	push	ebp
	mov	ebp, esp
	push	-1
	push	__ehhandler$?ShouldAbort@CvAIOperation@@UAE_NXZ
	mov	eax, DWORD PTR fs:0
	push	eax
	sub	esp, 100				; 00000064H
	mov	eax, DWORD PTR ___security_cookie
	xor	eax, ebp
	push	eax
	lea	eax, DWORD PTR __$EHRec$[ebp]
	mov	DWORD PTR fs:0, eax
	mov	DWORD PTR _this$[ebp], ecx

; 812  : 	UnitHandle pUnit;

	mov	DWORD PTR _pUnit$[ebp], 0
	mov	BYTE PTR _pUnit$[ebp+4], 0
	mov	DWORD PTR __$EHRec$[ebp+8], 0

; 813  : 
; 814  : 	// Mark units in successful operation
; 815  : 	if(m_eCurrentState == AI_OPERATION_STATE_SUCCESSFUL_FINISH)

	mov	eax, DWORD PTR _this$[ebp]
	cmp	DWORD PTR [eax+56], 5
	jne	$LN6@ShouldAbor

; 816  : 	{
; 817  : 		for(unsigned int uiI = 0; uiI < m_viArmyIDs.size(); uiI++)

	mov	DWORD PTR _uiI$223399[ebp], 0
	jmp	SHORT $LN5@ShouldAbor
$LN4@ShouldAbor:
	mov	ecx, DWORD PTR _uiI$223399[ebp]
	add	ecx, 1
	mov	DWORD PTR _uiI$223399[ebp], ecx
$LN5@ShouldAbor:
	mov	edx, DWORD PTR _this$[ebp]
	add	edx, 4
	mov	DWORD PTR $T233757[ebp], edx
	mov	eax, DWORD PTR $T233757[ebp]
	mov	ecx, DWORD PTR $T233757[ebp]
	mov	edx, DWORD PTR [eax+8]
	sub	edx, DWORD PTR [ecx+4]
	sar	edx, 2
	cmp	DWORD PTR _uiI$223399[ebp], edx
	jae	$LN6@ShouldAbor

; 818  : 		{
; 819  : 			CvArmyAI* pArmy = GET_PLAYER(m_eOwner).getArmyAI(m_viArmyIDs[uiI]);

	mov	eax, DWORD PTR _this$[ebp]
	mov	ecx, DWORD PTR [eax+8]
	mov	edx, DWORD PTR _uiI$223399[ebp]
	lea	eax, DWORD PTR [ecx+edx*4]
	mov	DWORD PTR $T233761[ebp], eax
	mov	ecx, DWORD PTR _this$[ebp]
	mov	edx, DWORD PTR [ecx+72]
	imul	edx, 63236				; 0000f704H
	add	edx, DWORD PTR ?m_aPlayers@CvPlayerAI@@1PAV1@A ; CvPlayerAI::m_aPlayers
	mov	DWORD PTR $T233765[ebp], edx
	mov	eax, DWORD PTR $T233761[ebp]
	mov	ecx, DWORD PTR [eax]
	push	ecx
	mov	ecx, DWORD PTR $T233765[ebp]
	call	?getArmyAI@CvPlayer@@QAEPAVCvArmyAI@@H@Z ; CvPlayer::getArmyAI
	mov	DWORD PTR _pArmy$223403[ebp], eax

; 820  : 
; 821  : 			pUnit = pArmy->GetFirstUnit();

	lea	edx, DWORD PTR $T233743[ebp]
	push	edx
	mov	ecx, DWORD PTR _pArmy$223403[ebp]
	call	?GetFirstUnit@CvArmyAI@@QAE?AV?$FObjectHandle@VCvUnit@@@@XZ ; CvArmyAI::GetFirstUnit
	mov	DWORD PTR tv157[ebp], eax
	mov	eax, DWORD PTR tv157[ebp]
	mov	DWORD PTR $T233782[ebp], eax
	mov	BYTE PTR __$EHRec$[ebp+8], 1
	mov	ecx, DWORD PTR $T233782[ebp]
	lea	edx, DWORD PTR _pUnit$[ebp]
	cmp	ecx, edx
	je	SHORT $LN25@ShouldAbor
	cmp	DWORD PTR _pUnit$[ebp], 0
	je	SHORT $LN23@ShouldAbor
	mov	ecx, DWORD PTR _pUnit$[ebp]
	call	?getDestructionNotification@CvUnit@@QAEAAU?$DestructionNotification@V?$FObjectHandle@VCvUnit@@@@@@XZ ; CvUnit::getDestructionNotification
$LN23@ShouldAbor:
	mov	eax, DWORD PTR $T233782[ebp]
	mov	ecx, DWORD PTR [eax]
	mov	DWORD PTR _pUnit$[ebp], ecx
	cmp	DWORD PTR _pUnit$[ebp], 0
	je	SHORT $LN25@ShouldAbor
	mov	ecx, DWORD PTR _pUnit$[ebp]
	call	?getDestructionNotification@CvUnit@@QAEAAU?$DestructionNotification@V?$FObjectHandle@VCvUnit@@@@@@XZ ; CvUnit::getDestructionNotification
$LN25@ShouldAbor:
	mov	BYTE PTR __$EHRec$[ebp+8], 0
	cmp	DWORD PTR $T233743[ebp], 0
	je	SHORT $LN36@ShouldAbor
	mov	ecx, DWORD PTR $T233743[ebp]
	call	?getDestructionNotification@CvUnit@@QAEAAU?$DestructionNotification@V?$FObjectHandle@VCvUnit@@@@@@XZ ; CvUnit::getDestructionNotification

; 822  : 			while(pUnit)

$LN36@ShouldAbor:
	xor	edx, edx
	cmp	DWORD PTR _pUnit$[ebp], 0
	setne	dl
	movzx	eax, dl
	test	eax, eax
	je	SHORT $LN1@ShouldAbor

; 823  : 			{
; 824  : 				pUnit->SetDeployFromOperationTurn(GC.getGame().getGameTurn());

	mov	ecx, DWORD PTR ?gGlobals@@3VCvGlobals@@A+48
	mov	DWORD PTR $T233798[ebp], ecx
	mov	edx, DWORD PTR _pUnit$[ebp]
	mov	DWORD PTR $T233802[ebp], edx
	mov	ecx, DWORD PTR $T233798[ebp]
	call	?getGameTurn@CvGame@@QAEHXZ		; CvGame::getGameTurn
	push	eax
	mov	ecx, DWORD PTR $T233802[ebp]
	call	?SetDeployFromOperationTurn@CvUnit@@QAEXH@Z ; CvUnit::SetDeployFromOperationTurn

; 825  : 				pUnit = pArmy->GetNextUnit();

	lea	eax, DWORD PTR $T233744[ebp]
	push	eax
	mov	ecx, DWORD PTR _pArmy$223403[ebp]
	call	?GetNextUnit@CvArmyAI@@QAE?AV?$FObjectHandle@VCvUnit@@@@XZ ; CvArmyAI::GetNextUnit
	mov	DWORD PTR tv181[ebp], eax
	mov	ecx, DWORD PTR tv181[ebp]
	mov	DWORD PTR $T233848[ebp], ecx
	mov	BYTE PTR __$EHRec$[ebp+8], 2
	mov	edx, DWORD PTR $T233848[ebp]
	lea	eax, DWORD PTR _pUnit$[ebp]
	cmp	edx, eax
	je	SHORT $LN55@ShouldAbor
	cmp	DWORD PTR _pUnit$[ebp], 0
	je	SHORT $LN53@ShouldAbor
	mov	ecx, DWORD PTR _pUnit$[ebp]
	call	?getDestructionNotification@CvUnit@@QAEAAU?$DestructionNotification@V?$FObjectHandle@VCvUnit@@@@@@XZ ; CvUnit::getDestructionNotification
$LN53@ShouldAbor:
	mov	ecx, DWORD PTR $T233848[ebp]
	mov	edx, DWORD PTR [ecx]
	mov	DWORD PTR _pUnit$[ebp], edx
	cmp	DWORD PTR _pUnit$[ebp], 0
	je	SHORT $LN55@ShouldAbor
	mov	ecx, DWORD PTR _pUnit$[ebp]
	call	?getDestructionNotification@CvUnit@@QAEAAU?$DestructionNotification@V?$FObjectHandle@VCvUnit@@@@@@XZ ; CvUnit::getDestructionNotification
$LN55@ShouldAbor:
	mov	BYTE PTR __$EHRec$[ebp+8], 0
	cmp	DWORD PTR $T233744[ebp], 0
	je	SHORT $LN62@ShouldAbor
	mov	ecx, DWORD PTR $T233744[ebp]
	call	?getDestructionNotification@CvUnit@@QAEAAU?$DestructionNotification@V?$FObjectHandle@VCvUnit@@@@@@XZ ; CvUnit::getDestructionNotification
$LN62@ShouldAbor:

; 826  : 			}

	jmp	$LN36@ShouldAbor
$LN1@ShouldAbor:

; 827  : 		}

	jmp	$LN4@ShouldAbor
$LN6@ShouldAbor:

; 828  : 	}
; 829  : 
; 830  : 	return (m_eCurrentState == AI_OPERATION_STATE_ABORTED || m_eCurrentState == AI_OPERATION_STATE_SUCCESSFUL_FINISH);

	mov	eax, DWORD PTR _this$[ebp]
	cmp	DWORD PTR [eax+56], 0
	je	SHORT $LN9@ShouldAbor
	mov	ecx, DWORD PTR _this$[ebp]
	cmp	DWORD PTR [ecx+56], 5
	je	SHORT $LN9@ShouldAbor
	mov	DWORD PTR tv150[ebp], 0
	jmp	SHORT $LN10@ShouldAbor
$LN9@ShouldAbor:
	mov	DWORD PTR tv150[ebp], 1
$LN10@ShouldAbor:
	mov	dl, BYTE PTR tv150[ebp]
	mov	BYTE PTR $T233745[ebp], dl
	mov	DWORD PTR __$EHRec$[ebp+8], -1
	cmp	DWORD PTR _pUnit$[ebp], 0
	je	SHORT $LN67@ShouldAbor
	mov	ecx, DWORD PTR _pUnit$[ebp]
	call	?getDestructionNotification@CvUnit@@QAEAAU?$DestructionNotification@V?$FObjectHandle@VCvUnit@@@@@@XZ ; CvUnit::getDestructionNotification
$LN67@ShouldAbor:
	mov	al, BYTE PTR $T233745[ebp]

; 831  : }

	mov	ecx, DWORD PTR __$EHRec$[ebp]
	mov	DWORD PTR fs:0, ecx
	pop	ecx
	mov	esp, ebp
	pop	ebp
	ret	0
_TEXT	ENDS
;	COMDAT text$x
text$x	SEGMENT
__unwindfunclet$?ShouldAbort@CvAIOperation@@UAE_NXZ$0:
	lea	ecx, DWORD PTR _pUnit$[ebp]
	jmp	??1?$FObjectHandle@VCvUnit@@@@QAE@XZ	; FObjectHandle<CvUnit>::~FObjectHandle<CvUnit>
__unwindfunclet$?ShouldAbort@CvAIOperation@@UAE_NXZ$1:
	lea	ecx, DWORD PTR $T233743[ebp]
	jmp	??1?$FObjectHandle@VCvUnit@@@@QAE@XZ	; FObjectHandle<CvUnit>::~FObjectHandle<CvUnit>
__unwindfunclet$?ShouldAbort@CvAIOperation@@UAE_NXZ$2:
	lea	ecx, DWORD PTR $T233744[ebp]
	jmp	??1?$FObjectHandle@VCvUnit@@@@QAE@XZ	; FObjectHandle<CvUnit>::~FObjectHandle<CvUnit>
__ehhandler$?ShouldAbort@CvAIOperation@@UAE_NXZ:
	mov	edx, DWORD PTR [esp+8]
	lea	eax, DWORD PTR [edx+12]
	mov	ecx, DWORD PTR [edx-104]
	xor	ecx, eax
	call	@__security_check_cookie@4
	mov	eax, OFFSET __ehfuncinfo$?ShouldAbort@CvAIOperation@@UAE_NXZ
	jmp	___CxxFrameHandler3
text$x	ENDS
?ShouldAbort@CvAIOperation@@UAE_NXZ ENDP		; CvAIOperation::ShouldAbort
; Function compile flags: /Odtp
;	COMDAT ?SetToAbort@CvAIOperation@@UAEXW4AIOperationAbortReason@@@Z
_TEXT	SEGMENT
_this$ = -4						; size = 4
_eReason$ = 8						; size = 4
?SetToAbort@CvAIOperation@@UAEXW4AIOperationAbortReason@@@Z PROC ; CvAIOperation::SetToAbort, COMDAT
; _this$ = ecx

; 835  : {

	push	ebp
	mov	ebp, esp
	push	ecx
	mov	DWORD PTR _this$[ebp], ecx

; 836  : 	m_eCurrentState = AI_OPERATION_STATE_ABORTED;

	mov	eax, DWORD PTR _this$[ebp]
	mov	DWORD PTR [eax+56], 0

; 837  : 	m_eAbortReason = eReason;

	mov	ecx, DWORD PTR _this$[ebp]
	mov	edx, DWORD PTR _eReason$[ebp]
	mov	DWORD PTR [ecx+60], edx

; 838  : }

	mov	esp, ebp
	pop	ebp
	ret	4
?SetToAbort@CvAIOperation@@UAEXW4AIOperationAbortReason@@@Z ENDP ; CvAIOperation::SetToAbort
_TEXT	ENDS
PUBLIC	?LogOperationEnd@CvAIOperation@@QAEXXZ		; CvAIOperation::LogOperationEnd
EXTRN	?deleteAIOperation@CvPlayer@@QAEXH@Z:PROC	; CvPlayer::deleteAIOperation
; Function compile flags: /Odtp
;	COMDAT ?Kill@CvAIOperation@@UAEXW4AIOperationAbortReason@@@Z
_TEXT	SEGMENT
_this$ = -12						; size = 4
_eOwner$ = -8						; size = 4
_iID$ = -4						; size = 4
_eReason$ = 8						; size = 4
?Kill@CvAIOperation@@UAEXW4AIOperationAbortReason@@@Z PROC ; CvAIOperation::Kill, COMDAT
; _this$ = ecx

; 842  : {

	push	ebp
	mov	ebp, esp
	sub	esp, 12					; 0000000cH
	mov	DWORD PTR _this$[ebp], ecx

; 843  : 	int iID = m_iID;

	mov	eax, DWORD PTR _this$[ebp]
	mov	ecx, DWORD PTR [eax+52]
	mov	DWORD PTR _iID$[ebp], ecx

; 844  : 	PlayerTypes eOwner = GetOwner();

	mov	edx, DWORD PTR _this$[ebp]
	mov	eax, DWORD PTR [edx+72]
	mov	DWORD PTR _eOwner$[ebp], eax

; 845  : 
; 846  : 	if (m_eAbortReason == NO_ABORT_REASON)

	mov	ecx, DWORD PTR _this$[ebp]
	cmp	DWORD PTR [ecx+60], -1
	jne	SHORT $LN1@Kill

; 847  : 	{
; 848  : 		m_eAbortReason = eReason;

	mov	edx, DWORD PTR _this$[ebp]
	mov	eax, DWORD PTR _eReason$[ebp]
	mov	DWORD PTR [edx+60], eax
$LN1@Kill:

; 849  : 	}
; 850  : 
; 851  : 	LogOperationEnd();

	mov	ecx, DWORD PTR _this$[ebp]
	call	?LogOperationEnd@CvAIOperation@@QAEXXZ	; CvAIOperation::LogOperationEnd

; 852  : 	Uninit();

	mov	ecx, DWORD PTR _this$[ebp]
	mov	edx, DWORD PTR [ecx]
	mov	ecx, DWORD PTR _this$[ebp]
	mov	eax, DWORD PTR [edx+8]
	call	eax

; 853  : 	GET_PLAYER(eOwner).deleteAIOperation(iID);

	mov	ecx, DWORD PTR _iID$[ebp]
	push	ecx
	mov	ecx, DWORD PTR _eOwner$[ebp]
	imul	ecx, 63236				; 0000f704H
	add	ecx, DWORD PTR ?m_aPlayers@CvPlayerAI@@1PAV1@A ; CvPlayerAI::m_aPlayers
	call	?deleteAIOperation@CvPlayer@@QAEXH@Z	; CvPlayer::deleteAIOperation

; 854  : }

	mov	esp, ebp
	pop	ebp
	ret	4
?Kill@CvAIOperation@@UAEXW4AIOperationAbortReason@@@Z ENDP ; CvAIOperation::Kill
_TEXT	ENDS
PUBLIC	?LogOperationStatus@CvAIOperation@@QAEXXZ	; CvAIOperation::LogOperationStatus
; Function compile flags: /Odtp
;	COMDAT ?DoTurn@CvAIOperation@@UAEXXZ
_TEXT	SEGMENT
_this$ = -4						; size = 4
?DoTurn@CvAIOperation@@UAEXXZ PROC			; CvAIOperation::DoTurn, COMDAT
; _this$ = ecx

; 858  : {

	push	ebp
	mov	ebp, esp
	push	ecx
	mov	DWORD PTR _this$[ebp], ecx

; 859  : 	LogOperationStatus();

	mov	ecx, DWORD PTR _this$[ebp]
	call	?LogOperationStatus@CvAIOperation@@QAEXXZ ; CvAIOperation::LogOperationStatus

; 860  : }

	mov	esp, ebp
	pop	ebp
	ret	0
?DoTurn@CvAIOperation@@UAEXXZ ENDP			; CvAIOperation::DoTurn
; Function compile flags: /Odtp
_TEXT	ENDS
;	COMDAT ?DoDelayedDeath@CvAIOperation@@UAE_NXZ
_TEXT	SEGMENT
_this$ = -4						; size = 4
?DoDelayedDeath@CvAIOperation@@UAE_NXZ PROC		; CvAIOperation::DoDelayedDeath, COMDAT
; _this$ = ecx

; 864  : {

	push	ebp
	mov	ebp, esp
	push	ecx
	mov	DWORD PTR _this$[ebp], ecx

; 865  : 	if(ShouldAbort())

	mov	eax, DWORD PTR _this$[ebp]
	mov	edx, DWORD PTR [eax]
	mov	ecx, DWORD PTR _this$[ebp]
	mov	eax, DWORD PTR [edx+72]
	call	eax
	movzx	ecx, al
	test	ecx, ecx
	je	SHORT $LN3@DoDelayedD

; 866  : 	{
; 867  : 		if (m_eCurrentState == AI_OPERATION_STATE_SUCCESSFUL_FINISH)

	mov	edx, DWORD PTR _this$[ebp]
	cmp	DWORD PTR [edx+56], 5
	jne	SHORT $LN2@DoDelayedD

; 868  : 		{
; 869  : 			Kill(AI_ABORT_SUCCESS);

	push	0
	mov	eax, DWORD PTR _this$[ebp]
	mov	edx, DWORD PTR [eax]
	mov	ecx, DWORD PTR _this$[ebp]
	mov	eax, DWORD PTR [edx+80]
	call	eax

; 870  : 		}
; 871  : 		else

	jmp	SHORT $LN1@DoDelayedD
$LN2@DoDelayedD:

; 872  : 		{
; 873  : 			Kill(AI_ABORT_KILLED);

	push	11					; 0000000bH
	mov	ecx, DWORD PTR _this$[ebp]
	mov	edx, DWORD PTR [ecx]
	mov	ecx, DWORD PTR _this$[ebp]
	mov	eax, DWORD PTR [edx+80]
	call	eax
$LN1@DoDelayedD:

; 874  : 		}
; 875  : 		return true;

	mov	al, 1
	jmp	SHORT $LN4@DoDelayedD
$LN3@DoDelayedD:

; 876  : 	}
; 877  : 
; 878  : 	return false;

	xor	al, al
$LN4@DoDelayedD:

; 879  : }

	mov	esp, ebp
	pop	ebp
	ret	0
?DoDelayedDeath@CvAIOperation@@UAE_NXZ ENDP		; CvAIOperation::DoDelayedDeath
_TEXT	ENDS
PUBLIC	?getPlotCity@CvPlot@@QBEPAVCvCity@@XZ		; CvPlot::getPlotCity
EXTRN	?getPopulation@CvCity@@QBEHXZ:PROC		; CvCity::getPopulation
EXTRN	?getArea@CvCity@@QBEHXZ:PROC			; CvCity::getArea
EXTRN	?nextCity@CvPlayer@@QAEPAVCvCity@@PAH_N@Z:PROC	; CvPlayer::nextCity
EXTRN	?firstCity@CvPlayer@@QAEPAVCvCity@@PAH_N@Z:PROC	; CvPlayer::firstCity
EXTRN	?getCitiesPerPlayer@CvArea@@QBEHW4PlayerTypes@@@Z:PROC ; CvArea::getCitiesPerPlayer
EXTRN	?isWater@CvArea@@QBE_NXZ:PROC			; CvArea::isWater
EXTRN	?nextArea@CvMap@@QAEPAVCvArea@@PAH_N@Z:PROC	; CvMap::nextArea
EXTRN	?firstArea@CvMap@@QAEPAVCvArea@@PAH_N@Z:PROC	; CvMap::firstArea
EXTRN	?getCapitalCity@CvPlayer@@QAEPAVCvCity@@XZ:PROC	; CvPlayer::getCapitalCity
; Function compile flags: /Odtp
;	COMDAT ?GetOperationStartCity@CvAIOperation@@UBEPAVCvCity@@XZ
_TEXT	SEGMENT
_this$ = -64						; size = 4
$T233912 = -60						; size = 4
$T233908 = -56						; size = 4
$T233904 = -52						; size = 4
$T233900 = -48						; size = 4
_pCity$223455 = -40					; size = 4
_pBestArea$ = -36					; size = 4
_pLoopArea$ = -32					; size = 4
_pCapitalCity$ = -28					; size = 4
_iMyCities$ = -24					; size = 4
_pBestCity$ = -20					; size = 4
_thisPlayer$ = -16					; size = 4
_iEnemyCities$ = -12					; size = 4
_iBestTotal$ = -8					; size = 4
_iLoop$ = -4						; size = 4
?GetOperationStartCity@CvAIOperation@@UBEPAVCvCity@@XZ PROC ; CvAIOperation::GetOperationStartCity, COMDAT
; _this$ = ecx

; 883  : {

	push	ebp
	mov	ebp, esp
	sub	esp, 64					; 00000040H
	mov	DWORD PTR _this$[ebp], ecx

; 884  : 	if(GetStartCityPlot())

	mov	ecx, DWORD PTR _this$[ebp]
	call	?GetStartCityPlot@CvAIOperation@@QBEPAVCvPlot@@XZ ; CvAIOperation::GetStartCityPlot
	test	eax, eax
	je	SHORT $LN18@GetOperati

; 885  : 	{
; 886  : 		return GetStartCityPlot()->getPlotCity();

	mov	ecx, DWORD PTR _this$[ebp]
	call	?GetStartCityPlot@CvAIOperation@@QBEPAVCvPlot@@XZ ; CvAIOperation::GetStartCityPlot
	mov	ecx, eax
	call	?getPlotCity@CvPlot@@QBEPAVCvCity@@XZ	; CvPlot::getPlotCity
	jmp	$LN19@GetOperati
$LN18@GetOperati:

; 887  : 	}
; 888  : 
; 889  : 	CvCity* pCapitalCity;
; 890  : 	CvArea* pLoopArea;
; 891  : 	int iLoop;
; 892  : 	int iMyCities;
; 893  : 	int iEnemyCities;
; 894  : 	int iBestTotal = 0;

	mov	DWORD PTR _iBestTotal$[ebp], 0

; 895  : 	CvArea* pBestArea = NULL;

	mov	DWORD PTR _pBestArea$[ebp], 0

; 896  : 	CvCity* pBestCity = NULL;

	mov	DWORD PTR _pBestCity$[ebp], 0

; 897  : 
; 898  : 	CvPlayer& thisPlayer = GET_PLAYER(m_eOwner);

	mov	eax, DWORD PTR _this$[ebp]
	mov	ecx, DWORD PTR [eax+72]
	imul	ecx, 63236				; 0000f704H
	add	ecx, DWORD PTR ?m_aPlayers@CvPlayerAI@@1PAV1@A ; CvPlayerAI::m_aPlayers
	mov	DWORD PTR _thisPlayer$[ebp], ecx

; 899  : 
; 900  : 	// Do we still have a capital?
; 901  : 	pCapitalCity = thisPlayer.getCapitalCity();

	mov	ecx, DWORD PTR _thisPlayer$[ebp]
	call	?getCapitalCity@CvPlayer@@QAEPAVCvCity@@XZ ; CvPlayer::getCapitalCity
	mov	DWORD PTR _pCapitalCity$[ebp], eax

; 902  : 
; 903  : 	if(pCapitalCity != NULL)

	cmp	DWORD PTR _pCapitalCity$[ebp], 0
	je	SHORT $LN17@GetOperati

; 904  : 	{
; 905  : 		return pCapitalCity;

	mov	eax, DWORD PTR _pCapitalCity$[ebp]
	jmp	$LN19@GetOperati
$LN17@GetOperati:

; 906  : 	}
; 907  : 
; 908  : 	// No capital, find the area with the most combined cities between us and our enemy (and need at least 1 from each)
; 909  : 	for(pLoopArea = GC.getMap().firstArea(&iLoop); pLoopArea != NULL; pLoopArea = GC.getMap().nextArea(&iLoop))

	mov	edx, DWORD PTR ?gGlobals@@3VCvGlobals@@A+52
	mov	DWORD PTR $T233900[ebp], edx
	push	0
	lea	eax, DWORD PTR _iLoop$[ebp]
	push	eax
	mov	ecx, DWORD PTR $T233900[ebp]
	call	?firstArea@CvMap@@QAEPAVCvArea@@PAH_N@Z	; CvMap::firstArea
	mov	DWORD PTR _pLoopArea$[ebp], eax
	jmp	SHORT $LN16@GetOperati
$LN15@GetOperati:
	mov	ecx, DWORD PTR ?gGlobals@@3VCvGlobals@@A+52
	mov	DWORD PTR $T233904[ebp], ecx
	push	0
	lea	edx, DWORD PTR _iLoop$[ebp]
	push	edx
	mov	ecx, DWORD PTR $T233904[ebp]
	call	?nextArea@CvMap@@QAEPAVCvArea@@PAH_N@Z	; CvMap::nextArea
	mov	DWORD PTR _pLoopArea$[ebp], eax
$LN16@GetOperati:
	cmp	DWORD PTR _pLoopArea$[ebp], 0
	je	$LN14@GetOperati

; 910  : 	{
; 911  : 		if(pLoopArea->isWater())

	mov	ecx, DWORD PTR _pLoopArea$[ebp]
	call	?isWater@CvArea@@QBE_NXZ		; CvArea::isWater
	movzx	eax, al
	test	eax, eax
	je	SHORT $LN13@GetOperati

; 912  : 		{
; 913  : 			continue;

	jmp	SHORT $LN15@GetOperati
$LN13@GetOperati:

; 914  : 		}
; 915  : 
; 916  : 		iMyCities = pLoopArea->getCitiesPerPlayer(GetOwner());

	mov	ecx, DWORD PTR _this$[ebp]
	mov	edx, DWORD PTR [ecx+72]
	mov	DWORD PTR $T233908[ebp], edx
	mov	eax, DWORD PTR $T233908[ebp]
	push	eax
	mov	ecx, DWORD PTR _pLoopArea$[ebp]
	call	?getCitiesPerPlayer@CvArea@@QBEHW4PlayerTypes@@@Z ; CvArea::getCitiesPerPlayer
	mov	DWORD PTR _iMyCities$[ebp], eax

; 917  : 		if(iMyCities > 0)

	cmp	DWORD PTR _iMyCities$[ebp], 0
	jle	SHORT $LN12@GetOperati

; 918  : 		{
; 919  : 			if(m_eEnemy != NO_PLAYER && m_eEnemy != BARBARIAN_PLAYER)

	mov	ecx, DWORD PTR _this$[ebp]
	cmp	DWORD PTR [ecx+76], -1
	je	SHORT $LN11@GetOperati
	mov	edx, DWORD PTR _this$[ebp]
	cmp	DWORD PTR [edx+76], 63			; 0000003fH
	je	SHORT $LN11@GetOperati

; 920  : 			{
; 921  : 				iEnemyCities = pLoopArea->getCitiesPerPlayer(m_eEnemy);

	mov	eax, DWORD PTR _this$[ebp]
	mov	ecx, DWORD PTR [eax+76]
	push	ecx
	mov	ecx, DWORD PTR _pLoopArea$[ebp]
	call	?getCitiesPerPlayer@CvArea@@QBEHW4PlayerTypes@@@Z ; CvArea::getCitiesPerPlayer
	mov	DWORD PTR _iEnemyCities$[ebp], eax

; 922  : 				if(iEnemyCities == 0)

	cmp	DWORD PTR _iEnemyCities$[ebp], 0
	jne	SHORT $LN10@GetOperati

; 923  : 				{
; 924  : 					continue;

	jmp	SHORT $LN15@GetOperati
$LN10@GetOperati:

; 925  : 				}
; 926  : 			}
; 927  : 			else

	jmp	SHORT $LN9@GetOperati
$LN11@GetOperati:

; 928  : 			{
; 929  : 				iEnemyCities = 0;

	mov	DWORD PTR _iEnemyCities$[ebp], 0
$LN9@GetOperati:

; 930  : 			}
; 931  : 
; 932  : 			if((iMyCities + iEnemyCities) > iBestTotal)

	mov	edx, DWORD PTR _iMyCities$[ebp]
	add	edx, DWORD PTR _iEnemyCities$[ebp]
	cmp	edx, DWORD PTR _iBestTotal$[ebp]
	jle	SHORT $LN12@GetOperati

; 933  : 			{
; 934  : 				iBestTotal = iMyCities + iEnemyCities;

	mov	eax, DWORD PTR _iMyCities$[ebp]
	add	eax, DWORD PTR _iEnemyCities$[ebp]
	mov	DWORD PTR _iBestTotal$[ebp], eax

; 935  : 				pBestArea = pLoopArea;

	mov	ecx, DWORD PTR _pLoopArea$[ebp]
	mov	DWORD PTR _pBestArea$[ebp], ecx
$LN12@GetOperati:

; 936  : 			}
; 937  : 		}
; 938  : 	}

	jmp	$LN15@GetOperati
$LN14@GetOperati:

; 939  : 
; 940  : 	if(pBestArea != NULL)

	cmp	DWORD PTR _pBestArea$[ebp], 0
	je	SHORT $LN7@GetOperati

; 941  : 	{
; 942  : 		// Know which continent to use, now use our largest city there as the start city
; 943  : 		CvCity* pCity;
; 944  : 		iBestTotal = 0;

	mov	DWORD PTR _iBestTotal$[ebp], 0

; 945  : 		for(pCity = thisPlayer.firstCity(&iLoop); pCity != NULL; pCity = thisPlayer.nextCity(&iLoop))

	push	0
	lea	edx, DWORD PTR _iLoop$[ebp]
	push	edx
	mov	ecx, DWORD PTR _thisPlayer$[ebp]
	call	?firstCity@CvPlayer@@QAEPAVCvCity@@PAH_N@Z ; CvPlayer::firstCity
	mov	DWORD PTR _pCity$223455[ebp], eax
	jmp	SHORT $LN6@GetOperati
$LN5@GetOperati:
	push	0
	lea	eax, DWORD PTR _iLoop$[ebp]
	push	eax
	mov	ecx, DWORD PTR _thisPlayer$[ebp]
	call	?nextCity@CvPlayer@@QAEPAVCvCity@@PAH_N@Z ; CvPlayer::nextCity
	mov	DWORD PTR _pCity$223455[ebp], eax
$LN6@GetOperati:
	cmp	DWORD PTR _pCity$223455[ebp], 0
	je	SHORT $LN4@GetOperati

; 946  : 		{
; 947  : 			if(pCity->getArea() == pBestArea->GetID())

	mov	ecx, DWORD PTR _pBestArea$[ebp]
	mov	edx, DWORD PTR [ecx+4]
	mov	DWORD PTR $T233912[ebp], edx
	mov	ecx, DWORD PTR _pCity$223455[ebp]
	call	?getArea@CvCity@@QBEHXZ			; CvCity::getArea
	cmp	eax, DWORD PTR $T233912[ebp]
	jne	SHORT $LN3@GetOperati

; 948  : 			{
; 949  : 				if(pCity->getPopulation() > iBestTotal)

	mov	ecx, DWORD PTR _pCity$223455[ebp]
	call	?getPopulation@CvCity@@QBEHXZ		; CvCity::getPopulation
	cmp	eax, DWORD PTR _iBestTotal$[ebp]
	jle	SHORT $LN3@GetOperati

; 950  : 				{
; 951  : 					iBestTotal = pCity->getPopulation();

	mov	ecx, DWORD PTR _pCity$223455[ebp]
	call	?getPopulation@CvCity@@QBEHXZ		; CvCity::getPopulation
	mov	DWORD PTR _iBestTotal$[ebp], eax

; 952  : 					pBestCity = pCity;

	mov	eax, DWORD PTR _pCity$223455[ebp]
	mov	DWORD PTR _pBestCity$[ebp], eax
$LN3@GetOperati:

; 953  : 				}
; 954  : 			}
; 955  : 		}

	jmp	SHORT $LN5@GetOperati
$LN4@GetOperati:

; 956  : 		return pBestCity;

	mov	eax, DWORD PTR _pBestCity$[ebp]
	jmp	SHORT $LN19@GetOperati

; 957  : 	}
; 958  : 	else

	jmp	SHORT $LN19@GetOperati
$LN7@GetOperati:

; 959  : 	{
; 960  : 		return NULL;

	xor	eax, eax
$LN19@GetOperati:

; 961  : 	}
; 962  : }

	mov	esp, ebp
	pop	ebp
	ret	0
?GetOperationStartCity@CvAIOperation@@UBEPAVCvCity@@XZ ENDP ; CvAIOperation::GetOperationStartCity
_TEXT	ENDS
PUBLIC	?erase@?$vector@HV?$allocator@H@std@@@std@@QAE?AV?$_Vector_iterator@HV?$allocator@H@std@@@2@V?$_Vector_const_iterator@HV?$allocator@H@std@@@2@@Z ; std::vector<int,std::allocator<int> >::erase
; Function compile flags: /Odtp
;	COMDAT ?DeleteArmyAI@CvAIOperation@@QAE_NH@Z
_TEXT	SEGMENT
_this$ = -76						; size = 4
$T233960 = -28						; size = 4
$T233936 = -24						; size = 4
$T233918 = -20						; size = 4
$T233917 = -16						; size = 4
$T233916 = -12						; size = 4
$T233915 = -8						; size = 4
_iter$ = -4						; size = 4
_iID$ = 8						; size = 4
?DeleteArmyAI@CvAIOperation@@QAE_NH@Z PROC		; CvAIOperation::DeleteArmyAI, COMDAT
; _this$ = ecx

; 966  : {

	push	ebp
	mov	ebp, esp
	sub	esp, 76					; 0000004cH
	mov	DWORD PTR _this$[ebp], ecx

; 967  : 	std::vector<int>::iterator iter;

	mov	DWORD PTR _iter$[ebp], 0

; 968  : 	for(iter = m_viArmyIDs.begin(); iter != m_viArmyIDs.end(); ++iter)

	mov	eax, DWORD PTR _this$[ebp]
	mov	ecx, DWORD PTR [eax+8]
	mov	DWORD PTR $T233936[ebp], ecx
	mov	edx, DWORD PTR $T233936[ebp]
	mov	DWORD PTR $T233915[ebp], edx
	mov	eax, DWORD PTR $T233915[ebp]
	mov	DWORD PTR _iter$[ebp], eax
	jmp	SHORT $LN4@DeleteArmy
$LN3@DeleteArmy:
	mov	ecx, DWORD PTR _iter$[ebp]
	add	ecx, 4
	mov	DWORD PTR _iter$[ebp], ecx
$LN4@DeleteArmy:
	mov	edx, DWORD PTR _this$[ebp]
	mov	eax, DWORD PTR [edx+12]
	mov	DWORD PTR $T233960[ebp], eax
	mov	ecx, DWORD PTR $T233960[ebp]
	mov	DWORD PTR $T233916[ebp], ecx
	mov	edx, DWORD PTR _iter$[ebp]
	xor	eax, eax
	cmp	edx, DWORD PTR $T233916[ebp]
	sete	al
	movzx	ecx, al
	neg	ecx
	sbb	ecx, ecx
	add	ecx, 1
	movzx	edx, cl
	test	edx, edx
	je	SHORT $LN2@DeleteArmy

; 969  : 	{
; 970  : 		if(*iter == iID)

	mov	eax, DWORD PTR _iter$[ebp]
	mov	ecx, DWORD PTR [eax]
	cmp	ecx, DWORD PTR _iID$[ebp]
	jne	SHORT $LN1@DeleteArmy

; 971  : 		{
; 972  : 			m_viArmyIDs.erase(iter);

	mov	edx, DWORD PTR _iter$[ebp]
	mov	DWORD PTR $T233917[ebp], edx
	mov	eax, DWORD PTR $T233917[ebp]
	push	eax
	lea	ecx, DWORD PTR $T233918[ebp]
	push	ecx
	mov	ecx, DWORD PTR _this$[ebp]
	add	ecx, 4
	call	?erase@?$vector@HV?$allocator@H@std@@@std@@QAE?AV?$_Vector_iterator@HV?$allocator@H@std@@@2@V?$_Vector_const_iterator@HV?$allocator@H@std@@@2@@Z ; std::vector<int,std::allocator<int> >::erase

; 973  : 			return true;

	mov	al, 1
	jmp	SHORT $LN5@DeleteArmy
$LN1@DeleteArmy:

; 974  : 		}
; 975  : 	}

	jmp	SHORT $LN3@DeleteArmy
$LN2@DeleteArmy:

; 976  : 	return false;

	xor	al, al
$LN5@DeleteArmy:

; 977  : }

	mov	esp, ebp
	pop	ebp
	ret	4
?DeleteArmyAI@CvAIOperation@@QAE_NH@Z ENDP		; CvAIOperation::DeleteArmyAI
; Function compile flags: /Odtp
_TEXT	ENDS
;	COMDAT ?UnitWasRemoved@CvAIOperation@@UAEXHH@Z
_TEXT	SEGMENT
tv65 = -88						; size = 4
_this$ = -84						; size = 4
$T234177 = -80						; size = 4
_pkFormation$223493 = -20				; size = 4
_pThisArmy$223492 = -16					; size = 4
_slotToFill$223490 = -12				; size = 12
_iArmyID$ = 8						; size = 4
_iSlotID$ = 12						; size = 4
?UnitWasRemoved@CvAIOperation@@UAEXHH@Z PROC		; CvAIOperation::UnitWasRemoved, COMDAT
; _this$ = ecx

; 981  : {

	push	ebp
	mov	ebp, esp
	sub	esp, 88					; 00000058H
	push	esi
	mov	DWORD PTR _this$[ebp], ecx

; 982  : 	// For now, response is based on phase of operation
; 983  : 	switch(m_eCurrentState)

	mov	eax, DWORD PTR _this$[ebp]
	mov	ecx, DWORD PTR [eax+56]
	mov	DWORD PTR tv65[ebp], ecx
	cmp	DWORD PTR tv65[ebp], 1
	je	SHORT $LN5@UnitWasRem
	cmp	DWORD PTR tv65[ebp], 1
	jle	$LN9@UnitWasRem
	cmp	DWORD PTR tv65[ebp], 4
	jle	SHORT $LN4@UnitWasRem
	jmp	$LN9@UnitWasRem

; 984  : 	{
; 985  : 	case AI_OPERATION_STATE_ABORTED:
; 986  : 	case AI_OPERATION_STATE_SUCCESSFUL_FINISH:
; 987  : 		break;

	jmp	$LN9@UnitWasRem
$LN5@UnitWasRem:

; 988  : 
; 989  : 	case AI_OPERATION_STATE_RECRUITING_UNITS:
; 990  : 	{
; 991  : 		// If recruiting units, read this unit to the list of what we need
; 992  : 		OperationSlot slotToFill;

	mov	DWORD PTR _slotToFill$223490[ebp], -1
	mov	DWORD PTR _slotToFill$223490[ebp+4], -1
	mov	DWORD PTR _slotToFill$223490[ebp+8], -1

; 993  : 
; 994  : 		slotToFill.m_iOperationID = m_iID;

	mov	edx, DWORD PTR _this$[ebp]
	mov	eax, DWORD PTR [edx+52]
	mov	DWORD PTR _slotToFill$223490[ebp], eax

; 995  : 		slotToFill.m_iArmyID = iArmyID;

	mov	ecx, DWORD PTR _iArmyID$[ebp]
	mov	DWORD PTR _slotToFill$223490[ebp+4], ecx

; 996  : 		slotToFill.m_iSlotID = iSlotID;

	mov	edx, DWORD PTR _iSlotID$[ebp]
	mov	DWORD PTR _slotToFill$223490[ebp+8], edx

; 997  : 		m_viListOfUnitsWeStillNeedToBuild.push_back(slotToFill);

	lea	eax, DWORD PTR _slotToFill$223490[ebp]
	push	eax
	mov	ecx, DWORD PTR _this$[ebp]
	add	ecx, 20					; 00000014H
	call	?push_back@?$vector@UOperationSlot@@V?$allocator@UOperationSlot@@@std@@@std@@QAEXABUOperationSlot@@@Z ; std::vector<OperationSlot,std::allocator<OperationSlot> >::push_back

; 998  : 	}
; 999  : 	break;

	jmp	SHORT $LN9@UnitWasRem
$LN4@UnitWasRem:

; 1000 : 
; 1001 : 	case AI_OPERATION_STATE_GATHERING_FORCES:
; 1002 : 	case AI_OPERATION_STATE_MOVING_TO_TARGET:
; 1003 : 	case AI_OPERATION_STATE_AT_TARGET:
; 1004 : 	{
; 1005 : 		// If down below half strength, abort
; 1006 : 		CvArmyAI* pThisArmy = GET_PLAYER(m_eOwner).getArmyAI(iArmyID);

	mov	ecx, DWORD PTR _this$[ebp]
	mov	edx, DWORD PTR [ecx+72]
	imul	edx, 63236				; 0000f704H
	add	edx, DWORD PTR ?m_aPlayers@CvPlayerAI@@1PAV1@A ; CvPlayerAI::m_aPlayers
	mov	DWORD PTR $T234177[ebp], edx
	mov	eax, DWORD PTR _iArmyID$[ebp]
	push	eax
	mov	ecx, DWORD PTR $T234177[ebp]
	call	?getArmyAI@CvPlayer@@QAEPAVCvArmyAI@@H@Z ; CvPlayer::getArmyAI
	mov	DWORD PTR _pThisArmy$223492[ebp], eax

; 1007 : 		CvMultiUnitFormationInfo* pkFormation = GC.getMultiUnitFormationInfo(pThisArmy->GetFormationIndex());

	mov	ecx, DWORD PTR _pThisArmy$223492[ebp]
	call	?GetFormationIndex@CvArmyAI@@QBEHXZ	; CvArmyAI::GetFormationIndex
	push	eax
	mov	ecx, OFFSET ?gGlobals@@3VCvGlobals@@A	; gGlobals
	call	?getMultiUnitFormationInfo@CvGlobals@@QAEPAVCvMultiUnitFormationInfo@@H@Z ; CvGlobals::getMultiUnitFormationInfo
	mov	DWORD PTR _pkFormation$223493[ebp], eax

; 1008 : 		if(pkFormation)

	cmp	DWORD PTR _pkFormation$223493[ebp], 0
	je	SHORT $LN9@UnitWasRem

; 1009 : 		{
; 1010 : 			if(pThisArmy->GetNumSlotsFilled() <=0 ||
; 1011 : 			        pThisArmy->GetNumSlotsFilled() < pkFormation->getNumFormationSlotEntries() / 2)

	mov	ecx, DWORD PTR _pThisArmy$223492[ebp]
	call	?GetNumSlotsFilled@CvArmyAI@@QBEHXZ	; CvArmyAI::GetNumSlotsFilled
	test	eax, eax
	jle	SHORT $LN1@UnitWasRem
	mov	ecx, DWORD PTR _pThisArmy$223492[ebp]
	call	?GetNumSlotsFilled@CvArmyAI@@QBEHXZ	; CvArmyAI::GetNumSlotsFilled
	mov	esi, eax
	mov	ecx, DWORD PTR _pkFormation$223493[ebp]
	call	?getNumFormationSlotEntries@CvMultiUnitFormationInfo@@QBEHXZ ; CvMultiUnitFormationInfo::getNumFormationSlotEntries
	cdq
	sub	eax, edx
	sar	eax, 1
	cmp	esi, eax
	jge	SHORT $LN9@UnitWasRem
$LN1@UnitWasRem:

; 1012 : 			{
; 1013 : 				// Abort
; 1014 : 				m_eCurrentState = AI_OPERATION_STATE_ABORTED;

	mov	ecx, DWORD PTR _this$[ebp]
	mov	DWORD PTR [ecx+56], 0

; 1015 : 				m_eAbortReason = AI_ABORT_HALF_STRENGTH;

	mov	edx, DWORD PTR _this$[ebp]
	mov	DWORD PTR [edx+60], 6
$LN9@UnitWasRem:

; 1016 : 			}
; 1017 : 		}
; 1018 : 	}
; 1019 : 	break;
; 1020 : 	};
; 1021 : }

	pop	esi
	mov	esp, ebp
	pop	ebp
	ret	8
?UnitWasRemoved@CvAIOperation@@UAEXHH@Z ENDP		; CvAIOperation::UnitWasRemoved
_TEXT	ENDS
PUBLIC	??1?$FStaticVector@PAVCvAStarNode@@$0MI@$00$0BCJ@$0A@@@QAE@XZ ; FStaticVector<CvAStarNode *,200,1,297,0>::~FStaticVector<CvAStarNode *,200,1,297,0>
PUBLIC	?push_back@?$FStaticVector@PAVCvAStarNode@@$0MI@$00$0BCJ@$0A@@@QAEIABQAVCvAStarNode@@@Z ; FStaticVector<CvAStarNode *,200,1,297,0>::push_back
PUBLIC	?Destroy@?$BaseVector@PAVCvAStarNode@@$00@@IAEXPAPAVCvAStarNode@@I@Z ; BaseVector<CvAStarNode *,1>::Destroy
PUBLIC	??0?$FStaticVector@PAVCvAStarNode@@$0MI@$00$0BCJ@$0A@@@QAE@XZ ; FStaticVector<CvAStarNode *,200,1,297,0>::FStaticVector<CvAStarNode *,200,1,297,0>
PUBLIC	__$ArrayPad$
EXTRN	?GetMovementRate@CvArmyAI@@QAEHXZ:PROC		; CvArmyAI::GetMovementRate
EXTRN	?StepDestValid@@YAHHHPBXPAVCvAStar@@@Z:PROC	; StepDestValid
EXTRN	?StepValid@@YAHPAVCvAStarNode@@0HPBXPAVCvAStar@@@Z:PROC ; StepValid
EXTRN	?GeneratePath@CvAStar@@QAE_NHHHHH_N@Z:PROC	; CvAStar::GeneratePath
EXTRN	?StepValidAnyArea@@YAHPAVCvAStarNode@@0HPBXPAVCvAStar@@@Z:PROC ; StepValidAnyArea
EXTRN	?GetCoastalPlotAdjacentToTarget@CvMilitaryAI@@QBEPAVCvPlot@@PAV2@PAVCvArmyAI@@@Z:PROC ; CvMilitaryAI::GetCoastalPlotAdjacentToTarget
EXTRN	?GetMilitaryAI@CvPlayer@@QBEPAVCvMilitaryAI@@XZ:PROC ; CvPlayer::GetMilitaryAI
;	COMDAT xdata$x
; File d:\sources\lekmod_git\checkout\lekmod_dll\fireplace\include\fireworks\ffastvector.h
xdata$x	SEGMENT
__unwindtable$?ComputeCenterOfMassForTurn@CvAIOperation@@UBEPAVCvPlot@@PAVCvArmyAI@@PAPAV2@@Z DD 0ffffffffH
	DD	FLAT:__unwindfunclet$?ComputeCenterOfMassForTurn@CvAIOperation@@UBEPAVCvPlot@@PAVCvArmyAI@@PAPAV2@@Z$0
__ehfuncinfo$?ComputeCenterOfMassForTurn@CvAIOperation@@UBEPAVCvPlot@@PAVCvArmyAI@@PAPAV2@@Z DD 019930522H
	DD	01H
	DD	FLAT:__unwindtable$?ComputeCenterOfMassForTurn@CvAIOperation@@UBEPAVCvPlot@@PAVCvArmyAI@@PAPAV2@@Z
	DD	2 DUP(00H)
	DD	2 DUP(00H)
	DD	00H
	DD	01H
; Function compile flags: /Odtp
; File d:\sources\lekmod_git\checkout\lekmod_dll\cvgamecoredll_expansion2\cvaioperation.cpp
xdata$x	ENDS
;	COMDAT ?ComputeCenterOfMassForTurn@CvAIOperation@@UBEPAVCvPlot@@PAVCvArmyAI@@PAPAV2@@Z
_TEXT	SEGMENT
tv453 = -1124						; size = 4
tv468 = -1120						; size = 4
tv413 = -1116						; size = 4
tv428 = -1112						; size = 4
tv245 = -1108						; size = 4
tv400 = -1104						; size = 4
tv149 = -1100						; size = 4
tv72 = -1096						; size = 4
_this$ = -1092						; size = 4
$T234494 = -1064					; size = 4
$T234493 = -1060					; size = 4
$T234492 = -1056					; size = 4
$T234447 = -1052					; size = 4
$T234434 = -1048					; size = 4
$T234430 = -1044					; size = 4
$T234416 = -1040					; size = 4
$T234412 = -1033					; size = 1
$T234401 = -1032					; size = 4
$T234397 = -1025					; size = 1
_iMapY$234456 = -1024					; size = 4
_iMapX$234455 = -1020					; size = 4
$T234390 = -1016					; size = 4
$T234386 = -1012					; size = 4
$T234385 = -1008					; size = 4
$T234340 = -1004					; size = 4
$T234327 = -1000					; size = 4
$T234323 = -996						; size = 4
$T234309 = -992						; size = 4
$T234305 = -985						; size = 1
$T234294 = -984						; size = 4
$T234290 = -977						; size = 1
_iMapY$234349 = -976					; size = 4
_iMapX$234348 = -972					; size = 4
$T234283 = -968						; size = 4
$T234271 = -964						; size = 4
$T234262 = -960						; size = 4
$T234255 = -956						; size = 4
$T234244 = -948						; size = 4
$T234243 = -944						; size = 4
$T234239 = -940						; size = 4
$T234235 = -936						; size = 4
$T234231 = -932						; size = 4
$T234227 = -928						; size = 4
$T234223 = -924						; size = 4
$T234219 = -920						; size = 4
$T234215 = -916						; size = 4
$T234211 = -912						; size = 4
$T234207 = -908						; size = 4
$T234206 = -904						; size = 4
$T234186 = -900						; size = 4
$T234185 = -896						; size = 4
$T234184 = -892						; size = 4
$T234183 = -888						; size = 4
_iNode2Index$223599 = -884				; size = 4
_iJumpAhead$223595 = -880				; size = 4
_iNode1Index$223596 = -876				; size = 4
_bFound$223590 = -869					; size = 1
_pLastTurnArmyPlot$223512 = -868			; size = 4
_pNode1$223513 = -864					; size = 4
_pCenterOfMass$223511 = -860				; size = 4
_pGoalPlot$223587 = -856				; size = 4
_pNode2$223514 = -852					; size = 4
_iLastNodeIndex$223515 = -848				; size = 4
_m_NodesOnPath$223586 = -844				; size = 816
__$ArrayPad$ = -24					; size = 4
_pRtnValue$ = -20					; size = 4
_kPlayer$ = -16						; size = 4
__$EHRec$ = -12						; size = 12
_pArmy$ = 8						; size = 4
_ppClosestCurrentCOMonPath$ = 12			; size = 4
?ComputeCenterOfMassForTurn@CvAIOperation@@UBEPAVCvPlot@@PAVCvArmyAI@@PAPAV2@@Z PROC ; CvAIOperation::ComputeCenterOfMassForTurn, COMDAT
; _this$ = ecx

; 1025 : {

	push	ebp
	mov	ebp, esp
	push	-1
	push	__ehhandler$?ComputeCenterOfMassForTurn@CvAIOperation@@UBEPAVCvPlot@@PAVCvArmyAI@@PAPAV2@@Z
	mov	eax, DWORD PTR fs:0
	push	eax
	sub	esp, 1112				; 00000458H
	mov	eax, DWORD PTR ___security_cookie
	xor	eax, ebp
	mov	DWORD PTR __$ArrayPad$[ebp], eax
	push	eax
	lea	eax, DWORD PTR __$EHRec$[ebp]
	mov	DWORD PTR fs:0, eax
	mov	DWORD PTR _this$[ebp], ecx

; 1026 : 	CvPlot* pRtnValue = NULL;

	mov	DWORD PTR _pRtnValue$[ebp], 0

; 1027 : 	CvPlayer &kPlayer = GET_PLAYER(m_eOwner);

	mov	eax, DWORD PTR _this$[ebp]
	mov	ecx, DWORD PTR [eax+72]
	imul	ecx, 63236				; 0000f704H
	add	ecx, DWORD PTR ?m_aPlayers@CvPlayerAI@@1PAV1@A ; CvPlayerAI::m_aPlayers
	mov	DWORD PTR _kPlayer$[ebp], ecx

; 1028 : 
; 1029 : 	switch(m_eCurrentState)

	mov	edx, DWORD PTR _this$[ebp]
	mov	eax, DWORD PTR [edx+56]
	mov	DWORD PTR tv72[ebp], eax
	cmp	DWORD PTR tv72[ebp], 0
	jle	$LN10@ComputeCen
	cmp	DWORD PTR tv72[ebp], 2
	jle	SHORT $LN8@ComputeCen
	cmp	DWORD PTR tv72[ebp], 3
	je	SHORT $LN7@ComputeCen
	jmp	$LN10@ComputeCen

; 1030 : 	{
; 1031 : 	case AI_OPERATION_STATE_ABORTED:
; 1032 : 	case AI_OPERATION_STATE_AT_TARGET:
; 1033 : 	case AI_OPERATION_STATE_SUCCESSFUL_FINISH:
; 1034 : 		break;

	jmp	$LN10@ComputeCen
$LN8@ComputeCen:

; 1035 : 
; 1036 : 	case AI_OPERATION_STATE_RECRUITING_UNITS:
; 1037 : 	case AI_OPERATION_STATE_GATHERING_FORCES:
; 1038 : 		// Just use the muster point if we're still recruiting/gathering
; 1039 : 		pRtnValue = GetMusterPlot();

	mov	ecx, DWORD PTR _this$[ebp]
	call	?GetMusterPlot@CvAIOperation@@QBEPAVCvPlot@@XZ ; CvAIOperation::GetMusterPlot
	mov	DWORD PTR _pRtnValue$[ebp], eax

; 1040 : 		break;

	jmp	$LN10@ComputeCen
$LN7@ComputeCen:

; 1041 : 
; 1042 : 	case AI_OPERATION_STATE_MOVING_TO_TARGET:
; 1043 : 		{
; 1044 : 			CvPlot* pCenterOfMass = 0;

	mov	DWORD PTR _pCenterOfMass$223511[ebp], 0

; 1045 : 			CvPlot* pLastTurnArmyPlot = 0;

	mov	DWORD PTR _pLastTurnArmyPlot$223512[ebp], 0

; 1046 : 			CvAStarNode* pNode1 = 0;

	mov	DWORD PTR _pNode1$223513[ebp], 0

; 1047 : 			CvAStarNode* pNode2 = 0;

	mov	DWORD PTR _pNode2$223514[ebp], 0

; 1048 : 			int iLastNodeIndex = 0;

	mov	DWORD PTR _iLastNodeIndex$223515[ebp], 0

; 1049 : 			FStaticVector<CvAStarNode*, SAFE_ESTIMATE_MAX_PATH_LEN, true, c_eCiv5GameplayDLL, 0> m_NodesOnPath;

	lea	ecx, DWORD PTR _m_NodesOnPath$223586[ebp]
	call	??0?$FStaticVector@PAVCvAStarNode@@$0MI@$00$0BCJ@$0A@@@QAE@XZ ; FStaticVector<CvAStarNode *,200,1,297,0>::FStaticVector<CvAStarNode *,200,1,297,0>
	mov	DWORD PTR __$EHRec$[ebp+8], 0

; 1050 : 
; 1051 : 			m_NodesOnPath.clear();

	mov	ecx, DWORD PTR _m_NodesOnPath$223586[ebp+4]
	push	ecx
	mov	edx, DWORD PTR _m_NodesOnPath$223586[ebp]
	push	edx
	lea	ecx, DWORD PTR _m_NodesOnPath$223586[ebp]
	call	?Destroy@?$BaseVector@PAVCvAStarNode@@$00@@IAEXPAPAVCvAStarNode@@I@Z ; BaseVector<CvAStarNode *,1>::Destroy
	mov	DWORD PTR _m_NodesOnPath$223586[ebp+4], 0

; 1052 : 
; 1053 : 			// Is goal a city and we're a naval operation?  If so, go just offshore.
; 1054 : 			CvPlot *pGoalPlot = pArmy->GetGoalPlot();

	mov	ecx, DWORD PTR _pArmy$[ebp]
	call	?GetGoalPlot@CvArmyAI@@QBEPAVCvPlot@@XZ	; CvArmyAI::GetGoalPlot
	mov	DWORD PTR _pGoalPlot$223587[ebp], eax

; 1055 : 			if (!pGoalPlot->isWater() && IsAllNavalOperation())

	mov	eax, DWORD PTR _pGoalPlot$223587[ebp]
	movsx	ecx, BYTE PTR [eax+5]
	xor	edx, edx
	cmp	ecx, 3
	sete	dl
	movzx	eax, dl
	test	eax, eax
	jne	SHORT $LN6@ComputeCen
	mov	ecx, DWORD PTR _this$[ebp]
	mov	edx, DWORD PTR [ecx]
	mov	ecx, DWORD PTR _this$[ebp]
	mov	eax, DWORD PTR [edx+40]
	call	eax
	movzx	ecx, al
	test	ecx, ecx
	je	SHORT $LN6@ComputeCen

; 1056 : 			{
; 1057 : 				pGoalPlot = kPlayer.GetMilitaryAI()->GetCoastalPlotAdjacentToTarget(pGoalPlot, pArmy);

	mov	edx, DWORD PTR _pArmy$[ebp]
	push	edx
	mov	eax, DWORD PTR _pGoalPlot$223587[ebp]
	push	eax
	mov	ecx, DWORD PTR _kPlayer$[ebp]
	call	?GetMilitaryAI@CvPlayer@@QBEPAVCvMilitaryAI@@XZ ; CvPlayer::GetMilitaryAI
	mov	ecx, eax
	call	?GetCoastalPlotAdjacentToTarget@CvMilitaryAI@@QBEPAVCvPlot@@PAV2@PAVCvArmyAI@@@Z ; CvMilitaryAI::GetCoastalPlotAdjacentToTarget
	mov	DWORD PTR _pGoalPlot$223587[ebp], eax
$LN6@ComputeCen:

; 1058 : 			}
; 1059 : 
; 1060 : 			pLastTurnArmyPlot = pArmy->Plot();

	mov	ecx, DWORD PTR _pArmy$[ebp]
	call	?Plot@CvArmyAI@@QBEPAVCvPlot@@XZ	; CvArmyAI::Plot
	mov	DWORD PTR _pLastTurnArmyPlot$223512[ebp], eax

; 1061 : 			pCenterOfMass = pArmy->GetCenterOfMass(IsAllNavalOperation() || IsMixedLandNavalOperation() ? DOMAIN_SEA : DOMAIN_LAND);

	mov	ecx, DWORD PTR _this$[ebp]
	mov	edx, DWORD PTR [ecx]
	mov	ecx, DWORD PTR _this$[ebp]
	mov	eax, DWORD PTR [edx+40]
	call	eax
	movzx	ecx, al
	test	ecx, ecx
	jne	SHORT $LN14@ComputeCen
	mov	edx, DWORD PTR _this$[ebp]
	mov	eax, DWORD PTR [edx]
	mov	ecx, DWORD PTR _this$[ebp]
	mov	edx, DWORD PTR [eax+44]
	call	edx
	movzx	eax, al
	test	eax, eax
	jne	SHORT $LN14@ComputeCen
	mov	DWORD PTR tv149[ebp], 2
	jmp	SHORT $LN15@ComputeCen
$LN14@ComputeCen:
	mov	DWORD PTR tv149[ebp], 0
$LN15@ComputeCen:
	mov	ecx, DWORD PTR tv149[ebp]
	push	ecx
	mov	ecx, DWORD PTR _pArmy$[ebp]
	call	?GetCenterOfMass@CvArmyAI@@QAEPAVCvPlot@@W4DomainTypes@@@Z ; CvArmyAI::GetCenterOfMass
	mov	DWORD PTR _pCenterOfMass$223511[ebp], eax

; 1062 : 			if (pLastTurnArmyPlot && pCenterOfMass && pGoalPlot)

	cmp	DWORD PTR _pLastTurnArmyPlot$223512[ebp], 0
	je	$LN5@ComputeCen
	cmp	DWORD PTR _pCenterOfMass$223511[ebp], 0
	je	$LN5@ComputeCen
	cmp	DWORD PTR _pGoalPlot$223587[ebp], 0
	je	$LN5@ComputeCen

; 1063 : 			{
; 1064 : 				// Push center of mass forward a number of hexes equal to average movement
; 1065 : #ifdef AUI_WARNING_FIXES
; 1066 : 				CvStepPathFinder& kStepFinder = GC.getStepFinder();
; 1067 : 				kStepFinder.SetData(&m_eEnemy);
; 1068 : 				kStepFinder.SetDestValidFunc(NULL); // remove the area check
; 1069 : 				kStepFinder.SetValidFunc(StepValidAnyArea); // remove the area check
; 1070 : 				bool bFound = kStepFinder.GeneratePath(pCenterOfMass->getX(), pCenterOfMass->getY(), pGoalPlot->getX(), pGoalPlot->getY(), m_eOwner, false);
; 1071 : 				kStepFinder.SetValidFunc(StepValid); // remove the area check
; 1072 : 				kStepFinder.SetDestValidFunc(StepDestValid); // restore the area check
; 1073 : 				if (bFound)
; 1074 : 				{
; 1075 : 					pNode1 = kStepFinder.GetLastNode();
; 1076 : #else
; 1077 : 				GC.getStepFinder().SetData(&m_eEnemy);

	mov	edx, DWORD PTR _this$[ebp]
	add	edx, 76					; 0000004cH
	mov	DWORD PTR $T234207[ebp], edx
	mov	ecx, OFFSET ?gGlobals@@3VCvGlobals@@A	; gGlobals
	call	?getStepFinder@CvGlobals@@QAEAAVCvStepPathFinder@@XZ ; CvGlobals::getStepFinder
	mov	DWORD PTR $T234206[ebp], eax
	mov	eax, DWORD PTR $T234206[ebp]
	movzx	ecx, BYTE PTR [eax+80]
	test	ecx, ecx
	je	SHORT $LN28@ComputeCen
	mov	edx, DWORD PTR $T234206[ebp]
	mov	eax, DWORD PTR [edx+44]
	cmp	eax, DWORD PTR $T234207[ebp]
	je	SHORT $LN28@ComputeCen
	mov	ecx, DWORD PTR $T234206[ebp]
	mov	BYTE PTR [ecx+78], 1
$LN28@ComputeCen:
	mov	edx, DWORD PTR $T234206[ebp]
	mov	eax, DWORD PTR $T234207[ebp]
	mov	DWORD PTR [edx+44], eax

; 1078 : 				GC.getStepFinder().SetDestValidFunc(NULL); // remove the area check

	mov	ecx, OFFSET ?gGlobals@@3VCvGlobals@@A	; gGlobals
	call	?getStepFinder@CvGlobals@@QAEAAVCvStepPathFinder@@XZ ; CvGlobals::getStepFinder
	mov	DWORD PTR $T234211[ebp], eax
	mov	ecx, DWORD PTR $T234211[ebp]
	mov	DWORD PTR [ecx+4], 0

; 1079 : 				GC.getStepFinder().SetValidFunc(StepValidAnyArea); // remove the area check

	mov	ecx, OFFSET ?gGlobals@@3VCvGlobals@@A	; gGlobals
	call	?getStepFinder@CvGlobals@@QAEAAVCvStepPathFinder@@XZ ; CvGlobals::getStepFinder
	mov	DWORD PTR $T234215[ebp], eax
	mov	edx, DWORD PTR $T234215[ebp]
	mov	DWORD PTR [edx+16], OFFSET ?StepValidAnyArea@@YAHPAVCvAStarNode@@0HPBXPAVCvAStar@@@Z ; StepValidAnyArea

; 1080 : 				bool bFound = GC.getStepFinder().GeneratePath(pCenterOfMass->getX(), pCenterOfMass->getY(), pGoalPlot->getX(), pGoalPlot->getY(), m_eOwner, false);

	mov	eax, DWORD PTR _pGoalPlot$223587[ebp]
	movsx	ecx, WORD PTR [eax+2]
	mov	DWORD PTR $T234219[ebp], ecx
	mov	edx, DWORD PTR _pGoalPlot$223587[ebp]
	movsx	eax, WORD PTR [edx]
	mov	DWORD PTR $T234223[ebp], eax
	mov	ecx, DWORD PTR _pCenterOfMass$223511[ebp]
	movsx	edx, WORD PTR [ecx+2]
	mov	DWORD PTR $T234227[ebp], edx
	mov	eax, DWORD PTR _pCenterOfMass$223511[ebp]
	movsx	ecx, WORD PTR [eax]
	mov	DWORD PTR $T234231[ebp], ecx
	push	0
	mov	edx, DWORD PTR _this$[ebp]
	mov	eax, DWORD PTR [edx+72]
	push	eax
	mov	ecx, DWORD PTR $T234219[ebp]
	push	ecx
	mov	edx, DWORD PTR $T234223[ebp]
	push	edx
	mov	eax, DWORD PTR $T234227[ebp]
	push	eax
	mov	ecx, DWORD PTR $T234231[ebp]
	push	ecx
	mov	ecx, OFFSET ?gGlobals@@3VCvGlobals@@A	; gGlobals
	call	?getStepFinder@CvGlobals@@QAEAAVCvStepPathFinder@@XZ ; CvGlobals::getStepFinder
	mov	ecx, eax
	call	?GeneratePath@CvAStar@@QAE_NHHHHH_N@Z	; CvAStar::GeneratePath
	mov	BYTE PTR _bFound$223590[ebp], al

; 1081 : 				GC.getStepFinder().SetValidFunc(StepValid); // remove the area check

	mov	ecx, OFFSET ?gGlobals@@3VCvGlobals@@A	; gGlobals
	call	?getStepFinder@CvGlobals@@QAEAAVCvStepPathFinder@@XZ ; CvGlobals::getStepFinder
	mov	DWORD PTR $T234235[ebp], eax
	mov	edx, DWORD PTR $T234235[ebp]
	mov	DWORD PTR [edx+16], OFFSET ?StepValid@@YAHPAVCvAStarNode@@0HPBXPAVCvAStar@@@Z ; StepValid

; 1082 : 				GC.getStepFinder().SetDestValidFunc(StepDestValid); // restore the area check

	mov	ecx, OFFSET ?gGlobals@@3VCvGlobals@@A	; gGlobals
	call	?getStepFinder@CvGlobals@@QAEAAVCvStepPathFinder@@XZ ; CvGlobals::getStepFinder
	mov	DWORD PTR $T234239[ebp], eax
	mov	eax, DWORD PTR $T234239[ebp]
	mov	DWORD PTR [eax+4], OFFSET ?StepDestValid@@YAHHHPBXPAVCvAStar@@@Z ; StepDestValid

; 1083 : 				if (bFound)

	movzx	ecx, BYTE PTR _bFound$223590[ebp]
	test	ecx, ecx
	je	$LN4@ComputeCen

; 1084 : 				{
; 1085 : 					pNode1 = GC.getStepFinder().GetLastNode();

	mov	ecx, OFFSET ?gGlobals@@3VCvGlobals@@A	; gGlobals
	call	?getStepFinder@CvGlobals@@QAEAAVCvStepPathFinder@@XZ ; CvGlobals::getStepFinder
	mov	DWORD PTR $T234243[ebp], eax
	mov	edx, DWORD PTR $T234243[ebp]
	mov	eax, DWORD PTR [edx+96]
	mov	DWORD PTR $T234244[ebp], eax
	mov	ecx, DWORD PTR $T234244[ebp]
	mov	DWORD PTR _pNode1$223513[ebp], ecx
$LN3@ComputeCen:

; 1086 : #endif
; 1087 : 
; 1088 : 					// Starting at the end, loop through the entire path
; 1089 : 					while (pNode1)

	cmp	DWORD PTR _pNode1$223513[ebp], 0
	je	SHORT $LN2@ComputeCen

; 1090 : 					{
; 1091 : 						m_NodesOnPath.push_back(pNode1);

	lea	edx, DWORD PTR _pNode1$223513[ebp]
	push	edx
	lea	ecx, DWORD PTR _m_NodesOnPath$223586[ebp]
	call	?push_back@?$FStaticVector@PAVCvAStarNode@@$0MI@$00$0BCJ@$0A@@@QAEIABQAVCvAStarNode@@@Z ; FStaticVector<CvAStarNode *,200,1,297,0>::push_back

; 1092 : 						pNode1 = pNode1->m_pParent;

	mov	eax, DWORD PTR _pNode1$223513[ebp]
	mov	ecx, DWORD PTR [eax+24]
	mov	DWORD PTR _pNode1$223513[ebp], ecx

; 1093 : 					}

	jmp	SHORT $LN3@ComputeCen
$LN2@ComputeCen:

; 1094 : 
; 1095 : 					iLastNodeIndex = m_NodesOnPath.size() - 1;

	mov	edx, DWORD PTR _m_NodesOnPath$223586[ebp+4]
	mov	DWORD PTR $T234255[ebp], edx
	mov	eax, DWORD PTR $T234255[ebp]
	sub	eax, 1
	mov	DWORD PTR _iLastNodeIndex$223515[ebp], eax

; 1096 : 
; 1097 : 					// Move back up path from best node a number of spaces equal to army's movement rate + 1
; 1098 : 					int iJumpAhead = pArmy->GetMovementRate() + 1;

	mov	ecx, DWORD PTR _pArmy$[ebp]
	call	?GetMovementRate@CvArmyAI@@QAEHXZ	; CvArmyAI::GetMovementRate
	add	eax, 1
	mov	DWORD PTR _iJumpAhead$223595[ebp], eax

; 1099 : 					int iNode1Index = max(0, iLastNodeIndex - iJumpAhead);

	mov	ecx, DWORD PTR _iLastNodeIndex$223515[ebp]
	sub	ecx, DWORD PTR _iJumpAhead$223595[ebp]
	mov	DWORD PTR $T234183[ebp], ecx
	mov	DWORD PTR $T234184[ebp], 0
	mov	edx, DWORD PTR $T234184[ebp]
	cmp	edx, DWORD PTR $T234183[ebp]
	jge	SHORT $LN60@ComputeCen
	lea	eax, DWORD PTR $T234183[ebp]
	mov	DWORD PTR tv400[ebp], eax
	jmp	SHORT $LN61@ComputeCen
$LN60@ComputeCen:
	lea	ecx, DWORD PTR $T234184[ebp]
	mov	DWORD PTR tv400[ebp], ecx
$LN61@ComputeCen:
	mov	edx, DWORD PTR tv400[ebp]
	mov	DWORD PTR $T234262[ebp], edx
	mov	eax, DWORD PTR $T234262[ebp]
	mov	ecx, DWORD PTR [eax]
	mov	DWORD PTR _iNode1Index$223596[ebp], ecx

; 1100 : 					int iNode2Index = min(iNode1Index + 2, iLastNodeIndex);

	mov	edx, DWORD PTR _iNode1Index$223596[ebp]
	add	edx, 2
	mov	DWORD PTR $T234185[ebp], edx
	mov	eax, DWORD PTR _iLastNodeIndex$223515[ebp]
	cmp	eax, DWORD PTR $T234185[ebp]
	jge	SHORT $LN64@ComputeCen
	lea	ecx, DWORD PTR _iLastNodeIndex$223515[ebp]
	mov	DWORD PTR tv245[ebp], ecx
	jmp	SHORT $LN65@ComputeCen
$LN64@ComputeCen:
	lea	edx, DWORD PTR $T234185[ebp]
	mov	DWORD PTR tv245[ebp], edx
$LN65@ComputeCen:
	mov	eax, DWORD PTR tv245[ebp]
	mov	DWORD PTR $T234271[ebp], eax
	mov	ecx, DWORD PTR $T234271[ebp]
	mov	edx, DWORD PTR [ecx]
	mov	DWORD PTR _iNode2Index$223599[ebp], edx

; 1101 : 					pNode1 = m_NodesOnPath[iNode1Index];

	mov	eax, DWORD PTR _iNode1Index$223596[ebp]
	mov	ecx, DWORD PTR _m_NodesOnPath$223586[ebp]
	mov	edx, DWORD PTR [ecx+eax*4]
	mov	DWORD PTR _pNode1$223513[ebp], edx

; 1102 : 					pNode2 = m_NodesOnPath[iNode2Index];

	mov	eax, DWORD PTR _iNode2Index$223599[ebp]
	mov	ecx, DWORD PTR _m_NodesOnPath$223586[ebp]
	mov	edx, DWORD PTR [ecx+eax*4]
	mov	DWORD PTR _pNode2$223514[ebp], edx

; 1103 : 					
; 1104 : 					pRtnValue = GC.getMap().plot(pNode1->m_iX, pNode1->m_iY);

	mov	eax, DWORD PTR ?gGlobals@@3VCvGlobals@@A+52
	mov	DWORD PTR $T234283[ebp], eax
	mov	ecx, DWORD PTR _pNode1$223513[ebp]
	movsx	edx, WORD PTR [ecx+82]
	mov	DWORD PTR $T234386[ebp], edx
	mov	eax, DWORD PTR _pNode1$223513[ebp]
	movsx	ecx, WORD PTR [eax+80]
	mov	DWORD PTR $T234385[ebp], ecx
	cmp	DWORD PTR $T234385[ebp], -2147483647	; 80000001H
	je	SHORT $LN72@ComputeCen
	cmp	DWORD PTR $T234386[ebp], -2147483647	; 80000001H
	jne	SHORT $LN73@ComputeCen
$LN72@ComputeCen:
	mov	DWORD PTR _pRtnValue$[ebp], 0
	jmp	$LN74@ComputeCen
$LN73@ComputeCen:
	mov	edx, DWORD PTR $T234283[ebp]
	mov	al, BYTE PTR [edx+4056]
	mov	BYTE PTR $T234290[ebp], al
	mov	ecx, DWORD PTR $T234283[ebp]
	mov	edx, DWORD PTR [ecx+4020]
	mov	DWORD PTR $T234294[ebp], edx
	movzx	eax, BYTE PTR $T234290[ebp]
	test	eax, eax
	je	SHORT $LN85@ComputeCen
	cmp	DWORD PTR $T234385[ebp], 0
	jge	SHORT $LN84@ComputeCen
	mov	eax, DWORD PTR $T234385[ebp]
	cdq
	idiv	DWORD PTR $T234294[ebp]
	add	edx, DWORD PTR $T234294[ebp]
	mov	DWORD PTR _iMapX$234348[ebp], edx
	jmp	SHORT $LN86@ComputeCen
	jmp	SHORT $LN85@ComputeCen
$LN84@ComputeCen:
	mov	ecx, DWORD PTR $T234385[ebp]
	cmp	ecx, DWORD PTR $T234294[ebp]
	jl	SHORT $LN85@ComputeCen
	mov	eax, DWORD PTR $T234385[ebp]
	cdq
	idiv	DWORD PTR $T234294[ebp]
	mov	DWORD PTR _iMapX$234348[ebp], edx
	jmp	SHORT $LN86@ComputeCen
$LN85@ComputeCen:
	mov	edx, DWORD PTR $T234385[ebp]
	mov	DWORD PTR _iMapX$234348[ebp], edx
$LN86@ComputeCen:
	mov	eax, DWORD PTR $T234283[ebp]
	mov	cl, BYTE PTR [eax+4057]
	mov	BYTE PTR $T234305[ebp], cl
	mov	edx, DWORD PTR $T234283[ebp]
	mov	eax, DWORD PTR [edx+4024]
	mov	DWORD PTR $T234309[ebp], eax
	movzx	ecx, BYTE PTR $T234305[ebp]
	test	ecx, ecx
	je	SHORT $LN95@ComputeCen
	cmp	DWORD PTR $T234386[ebp], 0
	jge	SHORT $LN94@ComputeCen
	mov	eax, DWORD PTR $T234386[ebp]
	cdq
	idiv	DWORD PTR $T234309[ebp]
	add	edx, DWORD PTR $T234309[ebp]
	mov	DWORD PTR _iMapY$234349[ebp], edx
	jmp	SHORT $LN96@ComputeCen
	jmp	SHORT $LN95@ComputeCen
$LN94@ComputeCen:
	mov	edx, DWORD PTR $T234386[ebp]
	cmp	edx, DWORD PTR $T234309[ebp]
	jl	SHORT $LN95@ComputeCen
	mov	eax, DWORD PTR $T234386[ebp]
	cdq
	idiv	DWORD PTR $T234309[ebp]
	mov	DWORD PTR _iMapY$234349[ebp], edx
	jmp	SHORT $LN96@ComputeCen
$LN95@ComputeCen:
	mov	eax, DWORD PTR $T234386[ebp]
	mov	DWORD PTR _iMapY$234349[ebp], eax
$LN96@ComputeCen:
	cmp	DWORD PTR _iMapX$234348[ebp], 0
	jl	SHORT $LN100@ComputeCen
	mov	ecx, DWORD PTR $T234283[ebp]
	mov	edx, DWORD PTR [ecx+4020]
	mov	DWORD PTR $T234323[ebp], edx
	mov	eax, DWORD PTR _iMapX$234348[ebp]
	cmp	eax, DWORD PTR $T234323[ebp]
	jge	SHORT $LN100@ComputeCen
	cmp	DWORD PTR _iMapY$234349[ebp], 0
	jl	SHORT $LN100@ComputeCen
	mov	ecx, DWORD PTR $T234283[ebp]
	mov	edx, DWORD PTR [ecx+4024]
	mov	DWORD PTR $T234327[ebp], edx
	mov	eax, DWORD PTR _iMapY$234349[ebp]
	cmp	eax, DWORD PTR $T234327[ebp]
	jge	SHORT $LN100@ComputeCen
	mov	DWORD PTR tv428[ebp], 1
	jmp	SHORT $LN98@ComputeCen
$LN100@ComputeCen:
	mov	DWORD PTR tv428[ebp], 0
$LN98@ComputeCen:
	cmp	DWORD PTR tv428[ebp], 0
	je	SHORT $LN76@ComputeCen
	mov	ecx, DWORD PTR $T234283[ebp]
	mov	edx, DWORD PTR [ecx+4020]
	mov	DWORD PTR $T234340[ebp], edx
	mov	eax, DWORD PTR _iMapY$234349[ebp]
	imul	eax, DWORD PTR $T234340[ebp]
	add	eax, DWORD PTR _iMapX$234348[ebp]
	imul	eax, 484				; 000001e4H
	mov	ecx, DWORD PTR $T234283[ebp]
	add	eax, DWORD PTR [ecx+4068]
	mov	DWORD PTR tv413[ebp], eax
	jmp	SHORT $LN77@ComputeCen
$LN76@ComputeCen:
	mov	DWORD PTR tv413[ebp], 0
$LN77@ComputeCen:
	mov	edx, DWORD PTR tv413[ebp]
	mov	DWORD PTR _pRtnValue$[ebp], edx
$LN74@ComputeCen:

; 1105 : 					*ppClosestCurrentCOMonPath = GC.getMap().plot(pNode2->m_iX, pNode2->m_iY);

	mov	eax, DWORD PTR ?gGlobals@@3VCvGlobals@@A+52
	mov	DWORD PTR $T234390[ebp], eax
	mov	ecx, DWORD PTR _pNode2$223514[ebp]
	movsx	edx, WORD PTR [ecx+82]
	mov	DWORD PTR $T234493[ebp], edx
	mov	eax, DWORD PTR _pNode2$223514[ebp]
	movsx	ecx, WORD PTR [eax+80]
	mov	DWORD PTR $T234492[ebp], ecx
	cmp	DWORD PTR $T234492[ebp], -2147483647	; 80000001H
	je	SHORT $LN112@ComputeCen
	cmp	DWORD PTR $T234493[ebp], -2147483647	; 80000001H
	jne	SHORT $LN113@ComputeCen
$LN112@ComputeCen:
	mov	DWORD PTR $T234494[ebp], 0
	jmp	$LN114@ComputeCen
$LN113@ComputeCen:
	mov	edx, DWORD PTR $T234390[ebp]
	mov	al, BYTE PTR [edx+4056]
	mov	BYTE PTR $T234397[ebp], al
	mov	ecx, DWORD PTR $T234390[ebp]
	mov	edx, DWORD PTR [ecx+4020]
	mov	DWORD PTR $T234401[ebp], edx
	movzx	eax, BYTE PTR $T234397[ebp]
	test	eax, eax
	je	SHORT $LN125@ComputeCen
	cmp	DWORD PTR $T234492[ebp], 0
	jge	SHORT $LN124@ComputeCen
	mov	eax, DWORD PTR $T234492[ebp]
	cdq
	idiv	DWORD PTR $T234401[ebp]
	add	edx, DWORD PTR $T234401[ebp]
	mov	DWORD PTR _iMapX$234455[ebp], edx
	jmp	SHORT $LN126@ComputeCen
	jmp	SHORT $LN125@ComputeCen
$LN124@ComputeCen:
	mov	ecx, DWORD PTR $T234492[ebp]
	cmp	ecx, DWORD PTR $T234401[ebp]
	jl	SHORT $LN125@ComputeCen
	mov	eax, DWORD PTR $T234492[ebp]
	cdq
	idiv	DWORD PTR $T234401[ebp]
	mov	DWORD PTR _iMapX$234455[ebp], edx
	jmp	SHORT $LN126@ComputeCen
$LN125@ComputeCen:
	mov	edx, DWORD PTR $T234492[ebp]
	mov	DWORD PTR _iMapX$234455[ebp], edx
$LN126@ComputeCen:
	mov	eax, DWORD PTR $T234390[ebp]
	mov	cl, BYTE PTR [eax+4057]
	mov	BYTE PTR $T234412[ebp], cl
	mov	edx, DWORD PTR $T234390[ebp]
	mov	eax, DWORD PTR [edx+4024]
	mov	DWORD PTR $T234416[ebp], eax
	movzx	ecx, BYTE PTR $T234412[ebp]
	test	ecx, ecx
	je	SHORT $LN135@ComputeCen
	cmp	DWORD PTR $T234493[ebp], 0
	jge	SHORT $LN134@ComputeCen
	mov	eax, DWORD PTR $T234493[ebp]
	cdq
	idiv	DWORD PTR $T234416[ebp]
	add	edx, DWORD PTR $T234416[ebp]
	mov	DWORD PTR _iMapY$234456[ebp], edx
	jmp	SHORT $LN136@ComputeCen
	jmp	SHORT $LN135@ComputeCen
$LN134@ComputeCen:
	mov	edx, DWORD PTR $T234493[ebp]
	cmp	edx, DWORD PTR $T234416[ebp]
	jl	SHORT $LN135@ComputeCen
	mov	eax, DWORD PTR $T234493[ebp]
	cdq
	idiv	DWORD PTR $T234416[ebp]
	mov	DWORD PTR _iMapY$234456[ebp], edx
	jmp	SHORT $LN136@ComputeCen
$LN135@ComputeCen:
	mov	eax, DWORD PTR $T234493[ebp]
	mov	DWORD PTR _iMapY$234456[ebp], eax
$LN136@ComputeCen:
	cmp	DWORD PTR _iMapX$234455[ebp], 0
	jl	SHORT $LN140@ComputeCen
	mov	ecx, DWORD PTR $T234390[ebp]
	mov	edx, DWORD PTR [ecx+4020]
	mov	DWORD PTR $T234430[ebp], edx
	mov	eax, DWORD PTR _iMapX$234455[ebp]
	cmp	eax, DWORD PTR $T234430[ebp]
	jge	SHORT $LN140@ComputeCen
	cmp	DWORD PTR _iMapY$234456[ebp], 0
	jl	SHORT $LN140@ComputeCen
	mov	ecx, DWORD PTR $T234390[ebp]
	mov	edx, DWORD PTR [ecx+4024]
	mov	DWORD PTR $T234434[ebp], edx
	mov	eax, DWORD PTR _iMapY$234456[ebp]
	cmp	eax, DWORD PTR $T234434[ebp]
	jge	SHORT $LN140@ComputeCen
	mov	DWORD PTR tv468[ebp], 1
	jmp	SHORT $LN138@ComputeCen
$LN140@ComputeCen:
	mov	DWORD PTR tv468[ebp], 0
$LN138@ComputeCen:
	cmp	DWORD PTR tv468[ebp], 0
	je	SHORT $LN116@ComputeCen
	mov	ecx, DWORD PTR $T234390[ebp]
	mov	edx, DWORD PTR [ecx+4020]
	mov	DWORD PTR $T234447[ebp], edx
	mov	eax, DWORD PTR _iMapY$234456[ebp]
	imul	eax, DWORD PTR $T234447[ebp]
	add	eax, DWORD PTR _iMapX$234455[ebp]
	imul	eax, 484				; 000001e4H
	mov	ecx, DWORD PTR $T234390[ebp]
	add	eax, DWORD PTR [ecx+4068]
	mov	DWORD PTR tv453[ebp], eax
	jmp	SHORT $LN117@ComputeCen
$LN116@ComputeCen:
	mov	DWORD PTR tv453[ebp], 0
$LN117@ComputeCen:
	mov	edx, DWORD PTR tv453[ebp]
	mov	DWORD PTR $T234494[ebp], edx
$LN114@ComputeCen:
	mov	eax, DWORD PTR _ppClosestCurrentCOMonPath$[ebp]
	mov	ecx, DWORD PTR $T234494[ebp]
	mov	DWORD PTR [eax], ecx

; 1106 : 				}
; 1107 : 				else

	jmp	SHORT $LN5@ComputeCen
$LN4@ComputeCen:

; 1108 : 				{
; 1109 : 					// Can't plot a path, probably due to change of control of hexes.  Will probably abort the operation
; 1110 : 					return NULL;

	mov	DWORD PTR $T234186[ebp], 0
	mov	DWORD PTR __$EHRec$[ebp+8], -1
	lea	ecx, DWORD PTR _m_NodesOnPath$223586[ebp]
	call	??1?$FStaticVector@PAVCvAStarNode@@$0MI@$00$0BCJ@$0A@@@QAE@XZ ; FStaticVector<CvAStarNode *,200,1,297,0>::~FStaticVector<CvAStarNode *,200,1,297,0>
	mov	eax, DWORD PTR $T234186[ebp]
	jmp	SHORT $LN12@ComputeCen
$LN5@ComputeCen:

; 1111 : 				}
; 1112 : 			}
; 1113 : 		}

	mov	DWORD PTR __$EHRec$[ebp+8], -1
	lea	ecx, DWORD PTR _m_NodesOnPath$223586[ebp]
	call	??1?$FStaticVector@PAVCvAStarNode@@$0MI@$00$0BCJ@$0A@@@QAE@XZ ; FStaticVector<CvAStarNode *,200,1,297,0>::~FStaticVector<CvAStarNode *,200,1,297,0>
$LN10@ComputeCen:

; 1114 : 		break;
; 1115 : 	}
; 1116 : 	return pRtnValue;

	mov	eax, DWORD PTR _pRtnValue$[ebp]
$LN12@ComputeCen:

; 1117 : }

	mov	ecx, DWORD PTR __$EHRec$[ebp]
	mov	DWORD PTR fs:0, ecx
	pop	ecx
	mov	ecx, DWORD PTR __$ArrayPad$[ebp]
	xor	ecx, ebp
	call	@__security_check_cookie@4
	mov	esp, ebp
	pop	ebp
	ret	8
_TEXT	ENDS
;	COMDAT text$x
text$x	SEGMENT
__unwindfunclet$?ComputeCenterOfMassForTurn@CvAIOperation@@UBEPAVCvPlot@@PAVCvArmyAI@@PAPAV2@@Z$0:
	lea	ecx, DWORD PTR _m_NodesOnPath$223586[ebp]
	jmp	??1?$FStaticVector@PAVCvAStarNode@@$0MI@$00$0BCJ@$0A@@@QAE@XZ ; FStaticVector<CvAStarNode *,200,1,297,0>::~FStaticVector<CvAStarNode *,200,1,297,0>
__ehhandler$?ComputeCenterOfMassForTurn@CvAIOperation@@UBEPAVCvPlot@@PAVCvArmyAI@@PAPAV2@@Z:
	mov	edx, DWORD PTR [esp+8]
	lea	eax, DWORD PTR [edx+12]
	mov	ecx, DWORD PTR [edx-1116]
	xor	ecx, eax
	call	@__security_check_cookie@4
	mov	ecx, DWORD PTR [edx-12]
	xor	ecx, eax
	call	@__security_check_cookie@4
	mov	eax, OFFSET __ehfuncinfo$?ComputeCenterOfMassForTurn@CvAIOperation@@UBEPAVCvPlot@@PAVCvArmyAI@@PAPAV2@@Z
	jmp	___CxxFrameHandler3
text$x	ENDS
?ComputeCenterOfMassForTurn@CvAIOperation@@UBEPAVCvPlot@@PAVCvArmyAI@@PAPAV2@@Z ENDP ; CvAIOperation::ComputeCenterOfMassForTurn
PUBLIC	?HasOneMoreSlotToFill@CvAIOperation@@QBE_NXZ	; CvAIOperation::HasOneMoreSlotToFill
; Function compile flags: /Odtp
;	COMDAT ?HasOneMoreSlotToFill@CvAIOperation@@QBE_NXZ
_TEXT	SEGMENT
_this$ = -8						; size = 4
$T234560 = -4						; size = 4
?HasOneMoreSlotToFill@CvAIOperation@@QBE_NXZ PROC	; CvAIOperation::HasOneMoreSlotToFill, COMDAT
; _this$ = ecx

; 1120 : {

	push	ebp
	mov	ebp, esp
	sub	esp, 8
	mov	DWORD PTR _this$[ebp], ecx

; 1121 : 	if(m_viListOfUnitsWeStillNeedToBuild.size() == 1 && m_eCurrentState  == AI_OPERATION_STATE_RECRUITING_UNITS)

	mov	eax, DWORD PTR _this$[ebp]
	add	eax, 20					; 00000014H
	mov	DWORD PTR $T234560[ebp], eax
	mov	ecx, DWORD PTR $T234560[ebp]
	mov	edx, DWORD PTR $T234560[ebp]
	mov	eax, DWORD PTR [ecx+8]
	sub	eax, DWORD PTR [edx+4]
	cdq
	mov	ecx, 12					; 0000000cH
	idiv	ecx
	cmp	eax, 1
	jne	SHORT $LN1@HasOneMore
	mov	edx, DWORD PTR _this$[ebp]
	cmp	DWORD PTR [edx+56], 1
	jne	SHORT $LN1@HasOneMore

; 1122 : 	{
; 1123 : 		return true;

	mov	al, 1
	jmp	SHORT $LN2@HasOneMore
$LN1@HasOneMore:

; 1124 : 	}
; 1125 : 
; 1126 : 	return false;

	xor	al, al
$LN2@HasOneMore:

; 1127 : }

	mov	esp, ebp
	pop	ebp
	ret	0
?HasOneMoreSlotToFill@CvAIOperation@@QBE_NXZ ENDP	; CvAIOperation::HasOneMoreSlotToFill
_TEXT	ENDS
PUBLIC	?BuyFinalUnit@CvAIOperation@@QAE_NXZ		; CvAIOperation::BuyFinalUnit
EXTRN	?AddUnit@CvArmyAI@@QAEXHH@Z:PROC		; CvArmyAI::AddUnit
EXTRN	?BuyEmergencyUnit@CvMilitaryAI@@QAEPAVCvUnit@@W4UnitAITypes@@PAVCvCity@@@Z:PROC ; CvMilitaryAI::BuyEmergencyUnit
EXTRN	?getFormationSlotEntry@CvMultiUnitFormationInfo@@QBEABVCvFormationSlotEntry@@H@Z:PROC ; CvMultiUnitFormationInfo::getFormationSlotEntry
; Function compile flags: /Odtp
;	COMDAT ?BuyFinalUnit@CvAIOperation@@QAE_NXZ
_TEXT	SEGMENT
_this$ = -124						; size = 4
$T234763 = -120						; size = 4
$T234759 = -116						; size = 4
$T234755 = -112						; size = 4
$T234751 = -108						; size = 4
$T234747 = -104						; size = 4
$T234672 = -76						; size = 4
$T234663 = -72						; size = 4
$T234659 = -68						; size = 4
__Tmp$234650 = -64					; size = 4
$T234593 = -60						; size = 4
$T234635 = -56						; size = 4
$T234634 = -52						; size = 4
$T234580 = -48						; size = 4
$T234571 = -44						; size = 4
_pThisArmy$223629 = -40					; size = 4
_uiI$223625 = -36					; size = 4
_pUnit$223621 = -32					; size = 4
_thisFormation$223619 = -28				; size = 4
_thisSlotEntry$223620 = -24				; size = 4
_thisSlot$223617 = -20					; size = 12
_pArmy$223618 = -8					; size = 4
_pCity$ = -4						; size = 4
?BuyFinalUnit@CvAIOperation@@QAE_NXZ PROC		; CvAIOperation::BuyFinalUnit, COMDAT
; _this$ = ecx

; 1130 : {

	push	ebp
	mov	ebp, esp
	sub	esp, 124				; 0000007cH
	mov	DWORD PTR _this$[ebp], ecx

; 1131 : 	CvCity* pCity = GetOperationStartCity();

	mov	eax, DWORD PTR _this$[ebp]
	mov	edx, DWORD PTR [eax]
	mov	ecx, DWORD PTR _this$[ebp]
	mov	eax, DWORD PTR [edx+52]
	call	eax
	mov	DWORD PTR _pCity$[ebp], eax

; 1132 : 
; 1133 : 	if(!m_viListOfUnitsWeStillNeedToBuild.empty() && pCity != NULL && pCity->getOwner() == m_eOwner)

	mov	ecx, DWORD PTR _this$[ebp]
	add	ecx, 20					; 00000014H
	mov	DWORD PTR $T234571[ebp], ecx
	mov	edx, DWORD PTR $T234571[ebp]
	mov	eax, DWORD PTR $T234571[ebp]
	mov	ecx, DWORD PTR [edx+8]
	sub	ecx, DWORD PTR [eax+4]
	mov	eax, ecx
	cdq
	mov	ecx, 12					; 0000000cH
	idiv	ecx
	neg	eax
	sbb	eax, eax
	add	eax, 1
	movzx	edx, al
	test	edx, edx
	jne	$LN7@BuyFinalUn
	cmp	DWORD PTR _pCity$[ebp], 0
	je	$LN7@BuyFinalUn
	mov	eax, DWORD PTR _pCity$[ebp]
	mov	ecx, DWORD PTR [eax+84]
	mov	DWORD PTR $T234580[ebp], ecx
	mov	edx, DWORD PTR _this$[ebp]
	mov	eax, DWORD PTR $T234580[ebp]
	cmp	eax, DWORD PTR [edx+72]
	jne	$LN7@BuyFinalUn

; 1134 : 	{
; 1135 : 		OperationSlot thisSlot = m_viListOfUnitsWeStillNeedToBuild.back();

	mov	ecx, DWORD PTR _this$[ebp]
	mov	edx, DWORD PTR [ecx+28]
	mov	DWORD PTR $T234593[ebp], edx
	mov	eax, DWORD PTR $T234593[ebp]
	mov	DWORD PTR $T234634[ebp], eax
	mov	ecx, DWORD PTR $T234634[ebp]
	mov	DWORD PTR __Tmp$234650[ebp], ecx
	mov	edx, 1
	neg	edx
	imul	edx, 12					; 0000000cH
	add	edx, DWORD PTR __Tmp$234650[ebp]
	mov	DWORD PTR __Tmp$234650[ebp], edx
	mov	eax, DWORD PTR __Tmp$234650[ebp]
	mov	DWORD PTR $T234635[ebp], eax
	mov	ecx, DWORD PTR $T234635[ebp]
	mov	edx, DWORD PTR [ecx]
	mov	DWORD PTR _thisSlot$223617[ebp], edx
	mov	eax, DWORD PTR [ecx+4]
	mov	DWORD PTR _thisSlot$223617[ebp+4], eax
	mov	ecx, DWORD PTR [ecx+8]
	mov	DWORD PTR _thisSlot$223617[ebp+8], ecx

; 1136 : 		CvArmyAI* pArmy = GET_PLAYER(m_eOwner).getArmyAI(thisSlot.m_iArmyID);

	mov	edx, DWORD PTR _this$[ebp]
	mov	eax, DWORD PTR [edx+72]
	imul	eax, 63236				; 0000f704H
	add	eax, DWORD PTR ?m_aPlayers@CvPlayerAI@@1PAV1@A ; CvPlayerAI::m_aPlayers
	mov	DWORD PTR $T234659[ebp], eax
	mov	ecx, DWORD PTR _thisSlot$223617[ebp+4]
	push	ecx
	mov	ecx, DWORD PTR $T234659[ebp]
	call	?getArmyAI@CvPlayer@@QAEPAVCvArmyAI@@H@Z ; CvPlayer::getArmyAI
	mov	DWORD PTR _pArmy$223618[ebp], eax

; 1137 : 		CvMultiUnitFormationInfo* thisFormation = GC.getMultiUnitFormationInfo(pArmy->GetFormationIndex());

	mov	ecx, DWORD PTR _pArmy$223618[ebp]
	call	?GetFormationIndex@CvArmyAI@@QBEHXZ	; CvArmyAI::GetFormationIndex
	push	eax
	mov	ecx, OFFSET ?gGlobals@@3VCvGlobals@@A	; gGlobals
	call	?getMultiUnitFormationInfo@CvGlobals@@QAEPAVCvMultiUnitFormationInfo@@H@Z ; CvGlobals::getMultiUnitFormationInfo
	mov	DWORD PTR _thisFormation$223619[ebp], eax

; 1138 : #ifdef AUI_WARNING_FIXES
; 1139 : 		if (!thisFormation)
; 1140 : 			return false;
; 1141 : #endif
; 1142 : 		const CvFormationSlotEntry& thisSlotEntry = thisFormation->getFormationSlotEntry(thisSlot.m_iSlotID);

	mov	edx, DWORD PTR _thisSlot$223617[ebp+8]
	push	edx
	mov	ecx, DWORD PTR _thisFormation$223619[ebp]
	call	?getFormationSlotEntry@CvMultiUnitFormationInfo@@QBEABVCvFormationSlotEntry@@H@Z ; CvMultiUnitFormationInfo::getFormationSlotEntry
	mov	DWORD PTR _thisSlotEntry$223620[ebp], eax

; 1143 : 
; 1144 : 		CvUnit* pUnit = GET_PLAYER(m_eOwner).GetMilitaryAI()->BuyEmergencyUnit((UnitAITypes)thisSlotEntry.m_primaryUnitType, pCity);

	mov	eax, DWORD PTR _this$[ebp]
	mov	ecx, DWORD PTR [eax+72]
	imul	ecx, 63236				; 0000f704H
	add	ecx, DWORD PTR ?m_aPlayers@CvPlayerAI@@1PAV1@A ; CvPlayerAI::m_aPlayers
	mov	DWORD PTR $T234663[ebp], ecx
	mov	edx, DWORD PTR _pCity$[ebp]
	push	edx
	mov	eax, DWORD PTR _thisSlotEntry$223620[ebp]
	mov	ecx, DWORD PTR [eax]
	push	ecx
	mov	ecx, DWORD PTR $T234663[ebp]
	call	?GetMilitaryAI@CvPlayer@@QBEPAVCvMilitaryAI@@XZ ; CvPlayer::GetMilitaryAI
	mov	ecx, eax
	call	?BuyEmergencyUnit@CvMilitaryAI@@QAEPAVCvUnit@@W4UnitAITypes@@PAVCvCity@@@Z ; CvMilitaryAI::BuyEmergencyUnit
	mov	DWORD PTR _pUnit$223621[ebp], eax

; 1145 : 		if(pUnit != NULL)

	cmp	DWORD PTR _pUnit$223621[ebp], 0
	je	$LN7@BuyFinalUn

; 1146 : 		{
; 1147 : 			pArmy->AddUnit(pUnit->GetID(), thisSlot.m_iSlotID);

	mov	edx, DWORD PTR _pUnit$223621[ebp]
	mov	eax, DWORD PTR [edx+100]
	mov	DWORD PTR $T234672[ebp], eax
	mov	ecx, DWORD PTR _thisSlot$223617[ebp+8]
	push	ecx
	mov	edx, DWORD PTR $T234672[ebp]
	push	edx
	mov	ecx, DWORD PTR _pArmy$223618[ebp]
	call	?AddUnit@CvArmyAI@@QAEXHH@Z		; CvArmyAI::AddUnit

; 1148 : 			m_viListOfUnitsWeStillNeedToBuild.pop_back();

	mov	ecx, DWORD PTR _this$[ebp]
	add	ecx, 20					; 00000014H
	call	?pop_back@?$vector@UOperationSlot@@V?$allocator@UOperationSlot@@@std@@@std@@QAEXXZ ; std::vector<OperationSlot,std::allocator<OperationSlot> >::pop_back

; 1149 : 			if (m_viListOfUnitsWeStillNeedToBuild.size() == 0 && m_viListOfUnitsCitiesHaveCommittedToBuild.size() == 0 && m_eCurrentState == AI_OPERATION_STATE_RECRUITING_UNITS)

	mov	eax, DWORD PTR _this$[ebp]
	add	eax, 20					; 00000014H
	mov	DWORD PTR $T234747[ebp], eax
	mov	ecx, DWORD PTR $T234747[ebp]
	mov	edx, DWORD PTR $T234747[ebp]
	mov	eax, DWORD PTR [ecx+8]
	sub	eax, DWORD PTR [edx+4]
	cdq
	mov	ecx, 12					; 0000000cH
	idiv	ecx
	test	eax, eax
	jne	$LN5@BuyFinalUn
	mov	edx, DWORD PTR _this$[ebp]
	add	edx, 36					; 00000024H
	mov	DWORD PTR $T234751[ebp], edx
	mov	eax, DWORD PTR $T234751[ebp]
	mov	ecx, DWORD PTR $T234751[ebp]
	mov	eax, DWORD PTR [eax+8]
	sub	eax, DWORD PTR [ecx+4]
	cdq
	mov	ecx, 12					; 0000000cH
	idiv	ecx
	test	eax, eax
	jne	$LN5@BuyFinalUn
	mov	edx, DWORD PTR _this$[ebp]
	cmp	DWORD PTR [edx+56], 1
	jne	$LN5@BuyFinalUn

; 1150 : 			{
; 1151 : 				m_eCurrentState = AI_OPERATION_STATE_GATHERING_FORCES;

	mov	eax, DWORD PTR _this$[ebp]
	mov	DWORD PTR [eax+56], 2

; 1152 : 				for(unsigned int uiI = 0; uiI < m_viArmyIDs.size(); uiI++)

	mov	DWORD PTR _uiI$223625[ebp], 0
	jmp	SHORT $LN4@BuyFinalUn
$LN3@BuyFinalUn:
	mov	ecx, DWORD PTR _uiI$223625[ebp]
	add	ecx, 1
	mov	DWORD PTR _uiI$223625[ebp], ecx
$LN4@BuyFinalUn:
	mov	edx, DWORD PTR _this$[ebp]
	add	edx, 4
	mov	DWORD PTR $T234755[ebp], edx
	mov	eax, DWORD PTR $T234755[ebp]
	mov	ecx, DWORD PTR $T234755[ebp]
	mov	edx, DWORD PTR [eax+8]
	sub	edx, DWORD PTR [ecx+4]
	sar	edx, 2
	cmp	DWORD PTR _uiI$223625[ebp], edx
	jae	SHORT $LN5@BuyFinalUn

; 1153 : 				{
; 1154 : 					CvArmyAI* pThisArmy = GET_PLAYER(m_eOwner).getArmyAI(m_viArmyIDs[uiI]);

	mov	eax, DWORD PTR _this$[ebp]
	mov	ecx, DWORD PTR [eax+8]
	mov	edx, DWORD PTR _uiI$223625[ebp]
	lea	eax, DWORD PTR [ecx+edx*4]
	mov	DWORD PTR $T234759[ebp], eax
	mov	ecx, DWORD PTR _this$[ebp]
	mov	edx, DWORD PTR [ecx+72]
	imul	edx, 63236				; 0000f704H
	add	edx, DWORD PTR ?m_aPlayers@CvPlayerAI@@1PAV1@A ; CvPlayerAI::m_aPlayers
	mov	DWORD PTR $T234763[ebp], edx
	mov	eax, DWORD PTR $T234759[ebp]
	mov	ecx, DWORD PTR [eax]
	push	ecx
	mov	ecx, DWORD PTR $T234763[ebp]
	call	?getArmyAI@CvPlayer@@QAEPAVCvArmyAI@@H@Z ; CvPlayer::getArmyAI
	mov	DWORD PTR _pThisArmy$223629[ebp], eax

; 1155 : 					if(pThisArmy)

	cmp	DWORD PTR _pThisArmy$223629[ebp], 0
	je	SHORT $LN1@BuyFinalUn

; 1156 : 					{
; 1157 : 						pThisArmy->SetArmyAIState(ARMYAISTATE_WAITING_FOR_UNITS_TO_CATCH_UP);

	push	1
	mov	ecx, DWORD PTR _pThisArmy$223629[ebp]
