; Listing generated by Microsoft (R) Optimizing Compiler Version 15.00.30729.01 

	TITLE	D:\sources\Lekmod_git\checkout\LEKMOD_DLL\CvGameCoreDLL_Expansion2\CvAStar.cpp
	.686P
	.XMM
	include listing.inc
	.model	flat

INCLUDELIB MSVCRT
INCLUDELIB OLDNAMES

PUBLIC	?NO_QUEST_DATA@CvMinorCivQuest@@2HB		; CvMinorCivQuest::NO_QUEST_DATA
PUBLIC	?NO_TURN@CvMinorCivQuest@@2HB			; CvMinorCivQuest::NO_TURN
;	COMDAT ?NO_TURN@CvMinorCivQuest@@2HB
CONST	SEGMENT
?NO_TURN@CvMinorCivQuest@@2HB DD 0ffffffffH		; CvMinorCivQuest::NO_TURN
CONST	ENDS
;	COMDAT ?NO_QUEST_DATA@CvMinorCivQuest@@2HB
CONST	SEGMENT
?NO_QUEST_DATA@CvMinorCivQuest@@2HB DD 0ffffffffH	; CvMinorCivQuest::NO_QUEST_DATA
CONST	ENDS
PUBLIC	??0CvAStar@@QAE@XZ				; CvAStar::CvAStar
; Function compile flags: /Odtp
; File d:\sources\lekmod_git\checkout\lekmod_dll\cvgamecoredll_expansion2\cvastar.cpp
;	COMDAT ??0CvAStar@@QAE@XZ
_TEXT	SEGMENT
_this$ = -4						; size = 4
??0CvAStar@@QAE@XZ PROC					; CvAStar::CvAStar, COMDAT
; _this$ = ecx

; 103  : {

	push	ebp
	mov	ebp, esp
	push	ecx
	mov	DWORD PTR _this$[ebp], ecx

; 104  : 	udIsPathDest = NULL;

	mov	eax, DWORD PTR _this$[ebp]
	mov	DWORD PTR [eax], 0

; 105  : 	udDestValid = NULL;

	mov	ecx, DWORD PTR _this$[ebp]
	mov	DWORD PTR [ecx+4], 0

; 106  : 	udHeuristic = NULL;

	mov	edx, DWORD PTR _this$[ebp]
	mov	DWORD PTR [edx+8], 0

; 107  : 	udCost = NULL;

	mov	eax, DWORD PTR _this$[ebp]
	mov	DWORD PTR [eax+12], 0

; 108  : 	udValid = NULL;

	mov	ecx, DWORD PTR _this$[ebp]
	mov	DWORD PTR [ecx+16], 0

; 109  : 	udNotifyChild = NULL;

	mov	edx, DWORD PTR _this$[ebp]
	mov	DWORD PTR [edx+20], 0

; 110  : 	udNotifyList = NULL;

	mov	eax, DWORD PTR _this$[ebp]
	mov	DWORD PTR [eax+24], 0

; 111  : 	udNumExtraChildrenFunc = NULL;

	mov	ecx, DWORD PTR _this$[ebp]
	mov	DWORD PTR [ecx+28], 0

; 112  : 	udGetExtraChildFunc = NULL;

	mov	edx, DWORD PTR _this$[ebp]
	mov	DWORD PTR [edx+32], 0

; 113  : 	udInitializeFunc = NULL;

	mov	eax, DWORD PTR _this$[ebp]
	mov	DWORD PTR [eax+36], 0

; 114  : 	udUninitializeFunc = NULL;

	mov	ecx, DWORD PTR _this$[ebp]
	mov	DWORD PTR [ecx+40], 0

; 115  : 
; 116  : 	m_pData = NULL;

	mov	edx, DWORD PTR _this$[ebp]
	mov	DWORD PTR [edx+44], 0

; 117  : 
; 118  : 	m_pOpen = NULL;

	mov	eax, DWORD PTR _this$[ebp]
	mov	DWORD PTR [eax+84], 0

; 119  : 	m_pOpenTail = NULL;

	mov	ecx, DWORD PTR _this$[ebp]
	mov	DWORD PTR [ecx+88], 0

; 120  : 	m_pClosed = NULL;

	mov	edx, DWORD PTR _this$[ebp]
	mov	DWORD PTR [edx+92], 0

; 121  : 	m_pBest = NULL;

	mov	eax, DWORD PTR _this$[ebp]
	mov	DWORD PTR [eax+96], 0

; 122  : 	m_pStackHead = NULL;

	mov	ecx, DWORD PTR _this$[ebp]
	mov	DWORD PTR [ecx+100], 0

; 123  : 
; 124  : 	m_ppaaNodes = NULL;

	mov	edx, DWORD PTR _this$[ebp]
	mov	DWORD PTR [edx+104], 0

; 125  : 
; 126  : 	m_bIsMPCacheSafe = false;

	mov	eax, DWORD PTR _this$[ebp]
	mov	BYTE PTR [eax+79], 0

; 127  : 	m_bDataChangeInvalidatesCache = false;

	mov	ecx, DWORD PTR _this$[ebp]
	mov	BYTE PTR [ecx+80], 0

; 128  : #ifdef AUI_WARNING_FIXES
; 129  : #ifdef AUI_ASTAR_TURN_LIMITER
; 130  : 	m_iMaxTurns = 0;
; 131  : #endif
; 132  : #ifdef AUI_ASTAR_MINOR_OPTIMIZATION
; 133  : 	m_bIsMultiplayer = false;
; 134  : #endif
; 135  : #endif
; 136  : }

	mov	eax, DWORD PTR _this$[ebp]
	mov	esp, ebp
	pop	ebp
	ret	0
??0CvAStar@@QAE@XZ ENDP					; CvAStar::CvAStar
_TEXT	ENDS
PUBLIC	?DeInit@CvAStar@@QAEXXZ				; CvAStar::DeInit
PUBLIC	??1CvAStar@@QAE@XZ				; CvAStar::~CvAStar
; Function compile flags: /Odtp
;	COMDAT ??1CvAStar@@QAE@XZ
_TEXT	SEGMENT
_this$ = -4						; size = 4
??1CvAStar@@QAE@XZ PROC					; CvAStar::~CvAStar, COMDAT
; _this$ = ecx

; 141  : {

	push	ebp
	mov	ebp, esp
	push	ecx
	mov	DWORD PTR _this$[ebp], ecx

; 142  : 	DeInit();

	mov	ecx, DWORD PTR _this$[ebp]
	call	?DeInit@CvAStar@@QAEXXZ			; CvAStar::DeInit

; 143  : }

	mov	esp, ebp
	pop	ebp
	ret	0
??1CvAStar@@QAE@XZ ENDP					; CvAStar::~CvAStar
_TEXT	ENDS
EXTRN	?FireFreeAlignedNoTracking@@YAXPAX@Z:PROC	; FireFreeAlignedNoTracking
; Function compile flags: /Odtp
;	COMDAT ?DeInit@CvAStar@@QAEXXZ
_TEXT	SEGMENT
_this$ = -8						; size = 4
_iI$218927 = -4						; size = 4
?DeInit@CvAStar@@QAEXXZ PROC				; CvAStar::DeInit, COMDAT
; _this$ = ecx

; 148  : {

	push	ebp
	mov	ebp, esp
	sub	esp, 8
	mov	DWORD PTR _this$[ebp], ecx

; 149  : 	if(m_ppaaNodes != NULL)

	mov	eax, DWORD PTR _this$[ebp]
	cmp	DWORD PTR [eax+104], 0
	je	SHORT $LN5@DeInit

; 150  : 	{
; 151  : 		for(int iI = 0; iI < m_iColumns; iI++)

	mov	DWORD PTR _iI$218927[ebp], 0
	jmp	SHORT $LN3@DeInit
$LN2@DeInit:
	mov	ecx, DWORD PTR _iI$218927[ebp]
	add	ecx, 1
	mov	DWORD PTR _iI$218927[ebp], ecx
$LN3@DeInit:
	mov	edx, DWORD PTR _this$[ebp]
	mov	eax, DWORD PTR _iI$218927[ebp]
	cmp	eax, DWORD PTR [edx+48]
	jge	SHORT $LN1@DeInit

; 152  : 		{
; 153  : #ifdef AUI_ASTAR_REMOVE_MALLOC
; 154  : 			SAFE_DELETE_ARRAY(m_ppaaNodes[iI]);
; 155  : 		}
; 156  : 
; 157  : 		SAFE_DELETE_ARRAY(m_ppaaNodes);
; 158  : #else
; 159  : 			FFREEALIGNED(m_ppaaNodes[iI]);

	mov	ecx, DWORD PTR _this$[ebp]
	mov	edx, DWORD PTR [ecx+104]
	mov	eax, DWORD PTR _iI$218927[ebp]
	mov	ecx, DWORD PTR [edx+eax*4]
	push	ecx
	call	?FireFreeAlignedNoTracking@@YAXPAX@Z	; FireFreeAlignedNoTracking
	add	esp, 4

; 160  : 		}

	jmp	SHORT $LN2@DeInit
$LN1@DeInit:

; 161  : 
; 162  : 		FFREEALIGNED(m_ppaaNodes);

	mov	edx, DWORD PTR _this$[ebp]
	mov	eax, DWORD PTR [edx+104]
	push	eax
	call	?FireFreeAlignedNoTracking@@YAXPAX@Z	; FireFreeAlignedNoTracking
	add	esp, 4

; 163  : 		m_ppaaNodes=0;

	mov	ecx, DWORD PTR _this$[ebp]
	mov	DWORD PTR [ecx+104], 0
$LN5@DeInit:

; 164  : #endif
; 165  : 	}
; 166  : }

	mov	esp, ebp
	pop	ebp
	ret	0
?DeInit@CvAStar@@QAEXXZ ENDP				; CvAStar::DeInit
_TEXT	ENDS
PUBLIC	??3@YAXPAX0@Z					; operator delete
PUBLIC	??0CvAStarNode@@QAE@XZ				; CvAStarNode::CvAStarNode
PUBLIC	??_C@_0M@IAHKHJNC@CvAStar?4cpp?$AA@		; `string'
PUBLIC	?Initialize@CvAStar@@QAEXHH_N0P6AHHHPBXPAV1@@Z3P6AHHHHH@ZP6AHPAVCvAStarNode@@5H12@Z666P6AH52@ZP6AH5HAAH82@ZP6AX12@ZP6AX12@Z1@Z ; CvAStar::Initialize
EXTRN	?FireMallocAlignedNoTracking@@YAPAXIIPBDH@Z:PROC ; FireMallocAlignedNoTracking
EXTRN	___security_cookie:DWORD
EXTRN	___CxxFrameHandler3:PROC
EXTRN	@__security_check_cookie@4:PROC
;	COMDAT ??_C@_0M@IAHKHJNC@CvAStar?4cpp?$AA@
; File d:\sources\lekmod_git\checkout\lekmod_dll\fireplace\include\fireworks\ffastvector.h
CONST	SEGMENT
??_C@_0M@IAHKHJNC@CvAStar?4cpp?$AA@ DB 'CvAStar.cpp', 00H ; `string'
CONST	ENDS
;	COMDAT xdata$x
xdata$x	SEGMENT
__unwindtable$?Initialize@CvAStar@@QAEXHH_N0P6AHHHPBXPAV1@@Z3P6AHHHHH@ZP6AHPAVCvAStarNode@@5H12@Z666P6AH52@ZP6AH5HAAH82@ZP6AX12@ZP6AX12@Z1@Z DD 0ffffffffH
	DD	FLAT:__unwindfunclet$?Initialize@CvAStar@@QAEXHH_N0P6AHHHPBXPAV1@@Z3P6AHHHHH@ZP6AHPAVCvAStarNode@@5H12@Z666P6AH52@ZP6AH5HAAH82@ZP6AX12@ZP6AX12@Z1@Z$0
__ehfuncinfo$?Initialize@CvAStar@@QAEXHH_N0P6AHHHPBXPAV1@@Z3P6AHHHHH@ZP6AHPAVCvAStarNode@@5H12@Z666P6AH52@ZP6AH5HAAH82@ZP6AX12@ZP6AX12@Z1@Z DD 019930522H
	DD	01H
	DD	FLAT:__unwindtable$?Initialize@CvAStar@@QAEXHH_N0P6AHHHPBXPAV1@@Z3P6AHHHHH@ZP6AHPAVCvAStarNode@@5H12@Z666P6AH52@ZP6AH5HAAH82@ZP6AX12@ZP6AX12@Z1@Z
	DD	2 DUP(00H)
	DD	2 DUP(00H)
	DD	00H
	DD	01H
; Function compile flags: /Odtp
; File d:\sources\lekmod_git\checkout\lekmod_dll\cvgamecoredll_expansion2\cvastar.cpp
xdata$x	ENDS
;	COMDAT ?Initialize@CvAStar@@QAEXHH_N0P6AHHHPBXPAV1@@Z3P6AHHHHH@ZP6AHPAVCvAStarNode@@5H12@Z666P6AH52@ZP6AH5HAAH82@ZP6AX12@ZP6AX12@Z1@Z
_TEXT	SEGMENT
tv166 = -44						; size = 4
_this$ = -40						; size = 4
$T221331 = -28						; size = 4
$T221330 = -24						; size = 4
_iJ$ = -20						; size = 4
_iI$ = -16						; size = 4
__$EHRec$ = -12						; size = 12
_iColumns$ = 8						; size = 4
_iRows$ = 12						; size = 4
_bWrapX$ = 16						; size = 1
_bWrapY$ = 20						; size = 1
_IsPathDestFunc$ = 24					; size = 4
_DestValidFunc$ = 28					; size = 4
_HeuristicFunc$ = 32					; size = 4
_CostFunc$ = 36						; size = 4
_ValidFunc$ = 40					; size = 4
_NotifyChildFunc$ = 44					; size = 4
_NotifyListFunc$ = 48					; size = 4
_NumExtraChildrenFunc$ = 52				; size = 4
_GetExtraChildFunc$ = 56				; size = 4
_InitializeFunc$ = 60					; size = 4
_UninitializeFunc$ = 64					; size = 4
_pData$ = 68						; size = 4
?Initialize@CvAStar@@QAEXHH_N0P6AHHHPBXPAV1@@Z3P6AHHHHH@ZP6AHPAVCvAStarNode@@5H12@Z666P6AH52@ZP6AH5HAAH82@ZP6AX12@ZP6AX12@Z1@Z PROC ; CvAStar::Initialize, COMDAT
; _this$ = ecx

; 171  : {

	push	ebp
	mov	ebp, esp
	push	-1
	push	__ehhandler$?Initialize@CvAStar@@QAEXHH_N0P6AHHHPBXPAV1@@Z3P6AHHHHH@ZP6AHPAVCvAStarNode@@5H12@Z666P6AH52@ZP6AH5HAAH82@ZP6AX12@ZP6AX12@Z1@Z
	mov	eax, DWORD PTR fs:0
	push	eax
	sub	esp, 32					; 00000020H
	mov	eax, DWORD PTR ___security_cookie
	xor	eax, ebp
	push	eax
	lea	eax, DWORD PTR __$EHRec$[ebp]
	mov	DWORD PTR fs:0, eax
	mov	DWORD PTR _this$[ebp], ecx

; 172  : 	int iI, iJ;
; 173  : 
; 174  : 	DeInit();	// free old memory just in case

	mov	ecx, DWORD PTR _this$[ebp]
	call	?DeInit@CvAStar@@QAEXXZ			; CvAStar::DeInit

; 175  : 
; 176  : 	udIsPathDest = IsPathDestFunc;

	mov	eax, DWORD PTR _this$[ebp]
	mov	ecx, DWORD PTR _IsPathDestFunc$[ebp]
	mov	DWORD PTR [eax], ecx

; 177  : 	udDestValid = DestValidFunc;

	mov	edx, DWORD PTR _this$[ebp]
	mov	eax, DWORD PTR _DestValidFunc$[ebp]
	mov	DWORD PTR [edx+4], eax

; 178  : 	udHeuristic = HeuristicFunc;

	mov	ecx, DWORD PTR _this$[ebp]
	mov	edx, DWORD PTR _HeuristicFunc$[ebp]
	mov	DWORD PTR [ecx+8], edx

; 179  : 	udCost = CostFunc;

	mov	eax, DWORD PTR _this$[ebp]
	mov	ecx, DWORD PTR _CostFunc$[ebp]
	mov	DWORD PTR [eax+12], ecx

; 180  : 	udValid = ValidFunc;

	mov	edx, DWORD PTR _this$[ebp]
	mov	eax, DWORD PTR _ValidFunc$[ebp]
	mov	DWORD PTR [edx+16], eax

; 181  : 	udNotifyChild = NotifyChildFunc;

	mov	ecx, DWORD PTR _this$[ebp]
	mov	edx, DWORD PTR _NotifyChildFunc$[ebp]
	mov	DWORD PTR [ecx+20], edx

; 182  : 	udNotifyList = NotifyListFunc;

	mov	eax, DWORD PTR _this$[ebp]
	mov	ecx, DWORD PTR _NotifyListFunc$[ebp]
	mov	DWORD PTR [eax+24], ecx

; 183  : 	udNumExtraChildrenFunc = NumExtraChildrenFunc;

	mov	edx, DWORD PTR _this$[ebp]
	mov	eax, DWORD PTR _NumExtraChildrenFunc$[ebp]
	mov	DWORD PTR [edx+28], eax

; 184  : 	udGetExtraChildFunc = GetExtraChildFunc;

	mov	ecx, DWORD PTR _this$[ebp]
	mov	edx, DWORD PTR _GetExtraChildFunc$[ebp]
	mov	DWORD PTR [ecx+32], edx

; 185  : 	udInitializeFunc = InitializeFunc;

	mov	eax, DWORD PTR _this$[ebp]
	mov	ecx, DWORD PTR _InitializeFunc$[ebp]
	mov	DWORD PTR [eax+36], ecx

; 186  : 	udUninitializeFunc = UninitializeFunc;

	mov	edx, DWORD PTR _this$[ebp]
	mov	eax, DWORD PTR _UninitializeFunc$[ebp]
	mov	DWORD PTR [edx+40], eax

; 187  : 
; 188  : 	m_pData = pData;

	mov	ecx, DWORD PTR _this$[ebp]
	mov	edx, DWORD PTR _pData$[ebp]
	mov	DWORD PTR [ecx+44], edx

; 189  : 
; 190  : 	m_iColumns = iColumns;

	mov	eax, DWORD PTR _this$[ebp]
	mov	ecx, DWORD PTR _iColumns$[ebp]
	mov	DWORD PTR [eax+48], ecx

; 191  : 	m_iRows = iRows;

	mov	edx, DWORD PTR _this$[ebp]
	mov	eax, DWORD PTR _iRows$[ebp]
	mov	DWORD PTR [edx+52], eax

; 192  : 
; 193  : 	m_iXstart = -1;

	mov	ecx, DWORD PTR _this$[ebp]
	mov	DWORD PTR [ecx+56], -1

; 194  : 	m_iYstart = -1;

	mov	edx, DWORD PTR _this$[ebp]
	mov	DWORD PTR [edx+60], -1

; 195  : 	m_iXdest = -1;

	mov	eax, DWORD PTR _this$[ebp]
	mov	DWORD PTR [eax+64], -1

; 196  : 	m_iYdest = -1;

	mov	ecx, DWORD PTR _this$[ebp]
	mov	DWORD PTR [ecx+68], -1

; 197  : 	m_iInfo = 0;

	mov	edx, DWORD PTR _this$[ebp]
	mov	DWORD PTR [edx+72], 0

; 198  : 
; 199  : 	m_bWrapX = bWrapX;

	mov	eax, DWORD PTR _this$[ebp]
	mov	cl, BYTE PTR _bWrapX$[ebp]
	mov	BYTE PTR [eax+76], cl

; 200  : 	m_bWrapY = bWrapY;

	mov	edx, DWORD PTR _this$[ebp]
	mov	al, BYTE PTR _bWrapY$[ebp]
	mov	BYTE PTR [edx+77], al

; 201  : 	m_bForceReset = false;

	mov	ecx, DWORD PTR _this$[ebp]
	mov	BYTE PTR [ecx+78], 0

; 202  : 
; 203  : 	m_pOpen = NULL;

	mov	edx, DWORD PTR _this$[ebp]
	mov	DWORD PTR [edx+84], 0

; 204  : 	m_pOpenTail = NULL;

	mov	eax, DWORD PTR _this$[ebp]
	mov	DWORD PTR [eax+88], 0

; 205  : 	m_pClosed = NULL;

	mov	ecx, DWORD PTR _this$[ebp]
	mov	DWORD PTR [ecx+92], 0

; 206  : 	m_pBest = NULL;

	mov	edx, DWORD PTR _this$[ebp]
	mov	DWORD PTR [edx+96], 0

; 207  : 	m_pStackHead = NULL;

	mov	eax, DWORD PTR _this$[ebp]
	mov	DWORD PTR [eax+100], 0

; 208  : 
; 209  : #ifdef AUI_ASTAR_REMOVE_MALLOC
; 210  : 	m_ppaaNodes = FNEW(CvAStarNode*[m_iColumns], c_eCiv5GameplayDLL, 0);
; 211  : #else
; 212  : 	m_ppaaNodes = reinterpret_cast<CvAStarNode**>(FMALLOCALIGNED(sizeof(CvAStarNode*)*m_iColumns, 64, c_eCiv5GameplayDLL, 0));

	push	212					; 000000d4H
	push	OFFSET ??_C@_0M@IAHKHJNC@CvAStar?4cpp?$AA@
	push	64					; 00000040H
	mov	ecx, DWORD PTR _this$[ebp]
	mov	edx, DWORD PTR [ecx+48]
	shl	edx, 2
	push	edx
	call	?FireMallocAlignedNoTracking@@YAPAXIIPBDH@Z ; FireMallocAlignedNoTracking
	add	esp, 16					; 00000010H
	mov	ecx, DWORD PTR _this$[ebp]
	mov	DWORD PTR [ecx+104], eax

; 213  : #endif
; 214  : 	for(iI = 0; iI < m_iColumns; iI++)

	mov	DWORD PTR _iI$[ebp], 0
	jmp	SHORT $LN6@Initialize
$LN5@Initialize:
	mov	edx, DWORD PTR _iI$[ebp]
	add	edx, 1
	mov	DWORD PTR _iI$[ebp], edx
$LN6@Initialize:
	mov	eax, DWORD PTR _this$[ebp]
	mov	ecx, DWORD PTR _iI$[ebp]
	cmp	ecx, DWORD PTR [eax+48]
	jge	$LN7@Initialize

; 215  : 	{
; 216  : #ifdef AUI_ASTAR_REMOVE_MALLOC
; 217  : 		m_ppaaNodes[iI] = FNEW(CvAStarNode[m_iRows], c_eCiv5GameplayDLL, 0);
; 218  : #else
; 219  : 		m_ppaaNodes[iI] = reinterpret_cast<CvAStarNode*>(FMALLOCALIGNED(sizeof(CvAStarNode)*m_iRows, 64, c_eCiv5GameplayDLL, 0));

	push	219					; 000000dbH
	push	OFFSET ??_C@_0M@IAHKHJNC@CvAStar?4cpp?$AA@
	push	64					; 00000040H
	mov	edx, DWORD PTR _this$[ebp]
	mov	eax, DWORD PTR [edx+52]
	imul	eax, 96					; 00000060H
	push	eax
	call	?FireMallocAlignedNoTracking@@YAPAXIIPBDH@Z ; FireMallocAlignedNoTracking
	add	esp, 16					; 00000010H
	mov	ecx, DWORD PTR _this$[ebp]
	mov	edx, DWORD PTR [ecx+104]
	mov	ecx, DWORD PTR _iI$[ebp]
	mov	DWORD PTR [edx+ecx*4], eax

; 220  : #endif
; 221  : 		for(iJ = 0; iJ < m_iRows; iJ++)

	mov	DWORD PTR _iJ$[ebp], 0
	jmp	SHORT $LN3@Initialize
$LN2@Initialize:
	mov	edx, DWORD PTR _iJ$[ebp]
	add	edx, 1
	mov	DWORD PTR _iJ$[ebp], edx
$LN3@Initialize:
	mov	eax, DWORD PTR _this$[ebp]
	mov	ecx, DWORD PTR _iJ$[ebp]
	cmp	ecx, DWORD PTR [eax+52]
	jge	SHORT $LN1@Initialize

; 222  : 		{
; 223  : #ifndef AUI_ASTAR_REMOVE_MALLOC
; 224  : 			new(&m_ppaaNodes[iI][iJ]) CvAStarNode();

	mov	edx, DWORD PTR _this$[ebp]
	mov	eax, DWORD PTR [edx+104]
	mov	ecx, DWORD PTR _iJ$[ebp]
	imul	ecx, 96					; 00000060H
	mov	edx, DWORD PTR _iI$[ebp]
	add	ecx, DWORD PTR [eax+edx*4]
	mov	DWORD PTR $T221331[ebp], ecx
	mov	DWORD PTR __$EHRec$[ebp+8], 0
	cmp	DWORD PTR $T221331[ebp], 0
	je	SHORT $LN9@Initialize
	mov	ecx, DWORD PTR $T221331[ebp]
	call	??0CvAStarNode@@QAE@XZ			; CvAStarNode::CvAStarNode
	mov	DWORD PTR tv166[ebp], eax
	jmp	SHORT $LN10@Initialize
$LN9@Initialize:
	mov	DWORD PTR tv166[ebp], 0
$LN10@Initialize:
	mov	eax, DWORD PTR tv166[ebp]
	mov	DWORD PTR $T221330[ebp], eax
	mov	DWORD PTR __$EHRec$[ebp+8], -1

; 225  : #endif
; 226  : 			m_ppaaNodes[iI][iJ].m_iX = iI;

	mov	ecx, DWORD PTR _this$[ebp]
	mov	edx, DWORD PTR [ecx+104]
	mov	eax, DWORD PTR _iJ$[ebp]
	imul	eax, 96					; 00000060H
	mov	ecx, DWORD PTR _iI$[ebp]
	mov	edx, DWORD PTR [edx+ecx*4]
	mov	cx, WORD PTR _iI$[ebp]
	mov	WORD PTR [edx+eax+80], cx

; 227  : 			m_ppaaNodes[iI][iJ].m_iY = iJ;

	mov	edx, DWORD PTR _this$[ebp]
	mov	eax, DWORD PTR [edx+104]
	mov	ecx, DWORD PTR _iJ$[ebp]
	imul	ecx, 96					; 00000060H
	mov	edx, DWORD PTR _iI$[ebp]
	mov	eax, DWORD PTR [eax+edx*4]
	mov	dx, WORD PTR _iJ$[ebp]
	mov	WORD PTR [eax+ecx+82], dx

; 228  : #ifdef AUI_ASTAR_CACHE_PLOTS_AT_NODES
; 229  : 			m_ppaaNodes[iI][iJ].m_pPlot = GC.getMap().plot(iI, iJ);
; 230  : #endif
; 231  : 		}

	jmp	$LN2@Initialize
$LN1@Initialize:

; 232  : 	}

	jmp	$LN5@Initialize
$LN7@Initialize:

; 233  : 
; 234  : #ifdef AUI_ASTAR_PRECALCULATE_NEIGHBORS_ON_INITIALIZE
; 235  : 	for (iI = 0; iI < m_iColumns; iI++)
; 236  : 		for (iJ = 0; iJ < m_iRows; iJ++)
; 237  : 			PrecalcNeighbors(&(m_ppaaNodes[iI][iJ]));
; 238  : #endif
; 239  : 
; 240  : #ifdef AUI_ASTAR_MINOR_OPTIMIZATION
; 241  : 	m_bIsMultiplayer = GC.getGame().isNetworkMultiPlayer();
; 242  : #endif
; 243  : }

	mov	ecx, DWORD PTR __$EHRec$[ebp]
	mov	DWORD PTR fs:0, ecx
	pop	ecx
	mov	esp, ebp
	pop	ebp
	ret	64					; 00000040H
_TEXT	ENDS
;	COMDAT text$x
text$x	SEGMENT
__unwindfunclet$?Initialize@CvAStar@@QAEXHH_N0P6AHHHPBXPAV1@@Z3P6AHHHHH@ZP6AHPAVCvAStarNode@@5H12@Z666P6AH52@ZP6AH5HAAH82@ZP6AX12@ZP6AX12@Z1@Z$0:
	mov	eax, DWORD PTR _this$[ebp]
	mov	ecx, DWORD PTR [eax+104]
	mov	edx, DWORD PTR _iJ$[ebp]
	imul	edx, 96					; 00000060H
	mov	eax, DWORD PTR _iI$[ebp]
	add	edx, DWORD PTR [ecx+eax*4]
	push	edx
	mov	ecx, DWORD PTR $T221331[ebp]
	push	ecx
	call	??3@YAXPAX0@Z				; operator delete
	add	esp, 8
	ret	0
__ehhandler$?Initialize@CvAStar@@QAEXHH_N0P6AHHHPBXPAV1@@Z3P6AHHHHH@ZP6AHPAVCvAStarNode@@5H12@Z666P6AH52@ZP6AH5HAAH82@ZP6AX12@ZP6AX12@Z1@Z:
	mov	edx, DWORD PTR [esp+8]
	lea	eax, DWORD PTR [edx+12]
	mov	ecx, DWORD PTR [edx-36]
	xor	ecx, eax
	call	@__security_check_cookie@4
	mov	eax, OFFSET __ehfuncinfo$?Initialize@CvAStar@@QAEXHH_N0P6AHHHPBXPAV1@@Z3P6AHHHHH@ZP6AHPAVCvAStarNode@@5H12@Z666P6AH52@ZP6AH5HAAH82@ZP6AX12@ZP6AX12@Z1@Z
	jmp	___CxxFrameHandler3
text$x	ENDS
?Initialize@CvAStar@@QAEXHH_N0P6AHHHPBXPAV1@@Z3P6AHHHHH@ZP6AHPAVCvAStarNode@@5H12@Z666P6AH52@ZP6AH5HAAH82@ZP6AX12@ZP6AX12@Z1@Z ENDP ; CvAStar::Initialize
PUBLIC	?Step@CvAStar@@IAEHXZ				; CvAStar::Step
PUBLIC	?clear@CvAStarNode@@QAEXXZ			; CvAStarNode::clear
PUBLIC	?GeneratePath@CvAStar@@QAE_NHHHHH_N@Z		; CvAStar::GeneratePath
EXTRN	?isNetworkMultiPlayer@CvGame@@QBE_NXZ:PROC	; CvGame::isNetworkMultiPlayer
EXTRN	?gGlobals@@3VCvGlobals@@A:BYTE			; gGlobals
; Function compile flags: /Odtp
;	COMDAT ?GeneratePath@CvAStar@@QAE_NHHHHH_N@Z
_TEXT	SEGMENT
tv316 = -116						; size = 4
tv311 = -112						; size = 4
tv309 = -108						; size = 4
tv190 = -104						; size = 4
tv182 = -100						; size = 4
tv155 = -96						; size = 4
tv147 = -92						; size = 4
tv73 = -88						; size = 4
_this$ = -84						; size = 4
$T221455 = -77						; size = 1
$T221454 = -76						; size = 4
$T221453 = -72						; size = 4
$T221445 = -68						; size = 4
$T221444 = -64						; size = 4
$T221436 = -60						; size = 4
$T221435 = -56						; size = 4
$T221427 = -52						; size = 4
$T221426 = -48						; size = 4
$T221425 = -44						; size = 4
$T221377 = -21						; size = 1
_game$ = -20						; size = 4
_discardCacheForMPGame$ = -13				; size = 1
_temp$ = -12						; size = 4
_retval$ = -8						; size = 4
_isMultiplayer$ = -1					; size = 1
_iXstart$ = 8						; size = 4
_iYstart$ = 12						; size = 4
_iXdest$ = 16						; size = 4
_iYdest$ = 20						; size = 4
_iInfo$ = 24						; size = 4
_bReuse$ = 28						; size = 1
?GeneratePath@CvAStar@@QAE_NHHHHH_N@Z PROC		; CvAStar::GeneratePath, COMDAT
; _this$ = ecx

; 248  : {

	push	ebp
	mov	ebp, esp
	sub	esp, 116				; 00000074H
	mov	DWORD PTR _this$[ebp], ecx

; 249  : #ifdef AUI_ASTAR_MINOR_OPTIMIZATION
; 250  : 	bool discardCacheForMPGame = m_bIsMultiplayer && !m_bIsMPCacheSafe;
; 251  : #else
; 252  : 	CvAStarNode* temp;
; 253  : 	int retval;
; 254  : 
; 255  : 	const CvGame& game = GC.getGame();

	mov	eax, DWORD PTR ?gGlobals@@3VCvGlobals@@A+48
	mov	DWORD PTR _game$[ebp], eax

; 256  : 	bool isMultiplayer = game.isNetworkMultiPlayer();

	mov	ecx, DWORD PTR _game$[ebp]
	call	?isNetworkMultiPlayer@CvGame@@QBE_NXZ	; CvGame::isNetworkMultiPlayer
	mov	BYTE PTR _isMultiplayer$[ebp], al

; 257  : 	bool discardCacheForMPGame = isMultiplayer && !m_bIsMPCacheSafe;

	movzx	ecx, BYTE PTR _isMultiplayer$[ebp]
	test	ecx, ecx
	je	SHORT $LN28@GeneratePa
	mov	edx, DWORD PTR _this$[ebp]
	movzx	eax, BYTE PTR [edx+79]
	test	eax, eax
	jne	SHORT $LN28@GeneratePa
	mov	DWORD PTR tv73[ebp], 1
	jmp	SHORT $LN29@GeneratePa
$LN28@GeneratePa:
	mov	DWORD PTR tv73[ebp], 0
$LN29@GeneratePa:
	mov	cl, BYTE PTR tv73[ebp]
	mov	BYTE PTR _discardCacheForMPGame$[ebp], cl

; 258  : #endif
; 259  : 
; 260  : 	if(m_bForceReset || (m_iXstart != iXstart) || (m_iYstart != iYstart) || (m_iInfo != iInfo) || discardCacheForMPGame)

	mov	edx, DWORD PTR _this$[ebp]
	movzx	eax, BYTE PTR [edx+78]
	test	eax, eax
	jne	SHORT $LN24@GeneratePa
	mov	ecx, DWORD PTR _this$[ebp]
	mov	edx, DWORD PTR [ecx+56]
	cmp	edx, DWORD PTR _iXstart$[ebp]
	jne	SHORT $LN24@GeneratePa
	mov	eax, DWORD PTR _this$[ebp]
	mov	ecx, DWORD PTR [eax+60]
	cmp	ecx, DWORD PTR _iYstart$[ebp]
	jne	SHORT $LN24@GeneratePa
	mov	edx, DWORD PTR _this$[ebp]
	mov	eax, DWORD PTR [edx+72]
	cmp	eax, DWORD PTR _iInfo$[ebp]
	jne	SHORT $LN24@GeneratePa
	movzx	ecx, BYTE PTR _discardCacheForMPGame$[ebp]
	test	ecx, ecx
	je	SHORT $LN25@GeneratePa
$LN24@GeneratePa:

; 261  : 		bReuse = false;

	mov	BYTE PTR _bReuse$[ebp], 0
$LN25@GeneratePa:

; 262  : 
; 263  : 	m_iXdest = iXdest;

	mov	edx, DWORD PTR _this$[ebp]
	mov	eax, DWORD PTR _iXdest$[ebp]
	mov	DWORD PTR [edx+64], eax

; 264  : 	m_iYdest = iYdest;

	mov	ecx, DWORD PTR _this$[ebp]
	mov	edx, DWORD PTR _iYdest$[ebp]
	mov	DWORD PTR [ecx+68], edx

; 265  : 	m_iXstart = iXstart;

	mov	eax, DWORD PTR _this$[ebp]
	mov	ecx, DWORD PTR _iXstart$[ebp]
	mov	DWORD PTR [eax+56], ecx

; 266  : 	m_iYstart = iYstart;

	mov	edx, DWORD PTR _this$[ebp]
	mov	eax, DWORD PTR _iYstart$[ebp]
	mov	DWORD PTR [edx+60], eax

; 267  : 	m_iInfo = iInfo;

	mov	ecx, DWORD PTR _this$[ebp]
	mov	edx, DWORD PTR _iInfo$[ebp]
	mov	DWORD PTR [ecx+72], edx

; 268  : 
; 269  : #ifndef AUI_ASTAR_MINOR_OPTIMIZATION
; 270  : 	if (udInitializeFunc)

	mov	eax, DWORD PTR _this$[ebp]
	cmp	DWORD PTR [eax+36], 0
	je	SHORT $LN23@GeneratePa

; 271  : 		udInitializeFunc(m_pData, this);

	mov	ecx, DWORD PTR _this$[ebp]
	push	ecx
	mov	edx, DWORD PTR _this$[ebp]
	mov	eax, DWORD PTR [edx+44]
	push	eax
	mov	ecx, DWORD PTR _this$[ebp]
	mov	edx, DWORD PTR [ecx+36]
	call	edx
	add	esp, 8
$LN23@GeneratePa:

; 272  : #endif
; 273  : 
; 274  : 	if(!isValid(iXstart, iYstart))

	cmp	DWORD PTR _iXstart$[ebp], 0
	jl	SHORT $LN34@GeneratePa
	mov	eax, DWORD PTR _this$[ebp]
	mov	ecx, DWORD PTR _iXstart$[ebp]
	cmp	ecx, DWORD PTR [eax+48]
	jl	SHORT $LN35@GeneratePa
$LN34@GeneratePa:
	mov	BYTE PTR $T221377[ebp], 0
	jmp	SHORT $LN36@GeneratePa
$LN35@GeneratePa:
	cmp	DWORD PTR _iYstart$[ebp], 0
	jl	SHORT $LN32@GeneratePa
	mov	edx, DWORD PTR _this$[ebp]
	mov	eax, DWORD PTR _iYstart$[ebp]
	cmp	eax, DWORD PTR [edx+52]
	jl	SHORT $LN33@GeneratePa
$LN32@GeneratePa:
	mov	BYTE PTR $T221377[ebp], 0
	jmp	SHORT $LN36@GeneratePa
$LN33@GeneratePa:
	mov	BYTE PTR $T221377[ebp], 1
$LN36@GeneratePa:
	movzx	ecx, BYTE PTR $T221377[ebp]
	test	ecx, ecx
	jne	SHORT $LN22@GeneratePa

; 275  : 	{
; 276  : #ifndef AUI_ASTAR_MINOR_OPTIMIZATION
; 277  : 		if (udUninitializeFunc)

	mov	edx, DWORD PTR _this$[ebp]
	cmp	DWORD PTR [edx+40], 0
	je	SHORT $LN21@GeneratePa

; 278  : 			udUninitializeFunc(m_pData, this);

	mov	eax, DWORD PTR _this$[ebp]
	push	eax
	mov	ecx, DWORD PTR _this$[ebp]
	mov	edx, DWORD PTR [ecx+44]
	push	edx
	mov	eax, DWORD PTR _this$[ebp]
	mov	ecx, DWORD PTR [eax+40]
	call	ecx
	add	esp, 8
$LN21@GeneratePa:

; 279  : #endif
; 280  : 		return false;

	xor	al, al
	jmp	$LN26@GeneratePa
$LN22@GeneratePa:

; 281  : 	}
; 282  : 
; 283  : #ifdef AUI_ASTAR_MINOR_OPTIMIZATION
; 284  : 	if (udInitializeFunc)
; 285  : 		udInitializeFunc(m_pData, this);
; 286  : 
; 287  : 	CvAStarNode* temp;
; 288  : #else
; 289  : 	PREFETCH_FASTAR_NODE(&(m_ppaaNodes[iXdest][iYdest]));

	mov	edx, DWORD PTR _this$[ebp]
	mov	eax, DWORD PTR [edx+104]
	mov	ecx, DWORD PTR _iYdest$[ebp]
	imul	ecx, 96					; 00000060H
	mov	edx, DWORD PTR _iXdest$[ebp]
	add	ecx, DWORD PTR [eax+edx*4]
	mov	DWORD PTR tv147[ebp], ecx
	mov	eax, DWORD PTR tv147[ebp]
	prefetcht0 BYTE PTR [eax]
	mov	ecx, DWORD PTR _this$[ebp]
	mov	edx, DWORD PTR [ecx+104]
	mov	eax, DWORD PTR _iYdest$[ebp]
	imul	eax, 96					; 00000060H
	mov	ecx, DWORD PTR _iXdest$[ebp]
	mov	edx, DWORD PTR [edx+ecx*4]
	lea	eax, DWORD PTR [edx+eax+64]
	mov	DWORD PTR tv155[ebp], eax
	mov	ecx, DWORD PTR tv155[ebp]
	prefetcht0 BYTE PTR [ecx]

; 290  : #endif
; 291  : 
; 292  : 	if(!bReuse)

	movzx	edx, BYTE PTR _bReuse$[ebp]
	test	edx, edx
	jne	$LN20@GeneratePa

; 293  : 	{
; 294  : 		// XXX should we just be doing a memset here?
; 295  : #ifdef AUI_ASTAR_MINOR_OPTIMIZATION
; 296  : 		for (int iI = 0; iI < m_iColumns; iI++)
; 297  : 			for (int iJ = 0; iJ < m_iRows; iJ++)
; 298  : 				m_ppaaNodes[iI][iJ].clear();
; 299  : 		m_pClosed = NULL;
; 300  : #else
; 301  : #ifndef AUI_ASTAR_MINOR_OPTIMIZATION
; 302  : 		if(m_pOpen)

	mov	eax, DWORD PTR _this$[ebp]
	cmp	DWORD PTR [eax+84], 0
	je	SHORT $LN19@GeneratePa
$LN18@GeneratePa:

; 303  : #endif
; 304  : 		{
; 305  : 			while(m_pOpen)

	mov	ecx, DWORD PTR _this$[ebp]
	cmp	DWORD PTR [ecx+84], 0
	je	SHORT $LN19@GeneratePa

; 306  : 			{
; 307  : 				temp = m_pOpen->m_pNext;

	mov	edx, DWORD PTR _this$[ebp]
	mov	eax, DWORD PTR [edx+84]
	mov	ecx, DWORD PTR [eax+28]
	mov	DWORD PTR _temp$[ebp], ecx

; 308  : 				m_pOpen->clear();

	mov	edx, DWORD PTR _this$[ebp]
	mov	ecx, DWORD PTR [edx+84]
	call	?clear@CvAStarNode@@QAEXXZ		; CvAStarNode::clear

; 309  : 				m_pOpen = temp;

	mov	eax, DWORD PTR _this$[ebp]
	mov	ecx, DWORD PTR _temp$[ebp]
	mov	DWORD PTR [eax+84], ecx

; 310  : 			}

	jmp	SHORT $LN18@GeneratePa
$LN19@GeneratePa:

; 311  : 		}
; 312  : 
; 313  : #ifndef AUI_ASTAR_MINOR_OPTIMIZATION
; 314  : 		if(m_pClosed)

	mov	edx, DWORD PTR _this$[ebp]
	cmp	DWORD PTR [edx+92], 0
	je	SHORT $LN16@GeneratePa
$LN15@GeneratePa:

; 315  : #endif
; 316  : 		{
; 317  : 			while(m_pClosed)

	mov	eax, DWORD PTR _this$[ebp]
	cmp	DWORD PTR [eax+92], 0
	je	SHORT $LN16@GeneratePa

; 318  : 			{
; 319  : 				temp = m_pClosed->m_pNext;

	mov	ecx, DWORD PTR _this$[ebp]
	mov	edx, DWORD PTR [ecx+92]
	mov	eax, DWORD PTR [edx+28]
	mov	DWORD PTR _temp$[ebp], eax

; 320  : 				m_pClosed->clear();

	mov	ecx, DWORD PTR _this$[ebp]
	mov	ecx, DWORD PTR [ecx+92]
	call	?clear@CvAStarNode@@QAEXXZ		; CvAStarNode::clear

; 321  : 				m_pClosed = temp;

	mov	edx, DWORD PTR _this$[ebp]
	mov	eax, DWORD PTR _temp$[ebp]
	mov	DWORD PTR [edx+92], eax

; 322  : 			}

	jmp	SHORT $LN15@GeneratePa
$LN16@GeneratePa:

; 323  : 		}
; 324  : 
; 325  : 		PREFETCH_FASTAR_NODE(&(m_ppaaNodes[iXstart][iYstart]));

	mov	ecx, DWORD PTR _this$[ebp]
	mov	edx, DWORD PTR [ecx+104]
	mov	eax, DWORD PTR _iYstart$[ebp]
	imul	eax, 96					; 00000060H
	mov	ecx, DWORD PTR _iXstart$[ebp]
	add	eax, DWORD PTR [edx+ecx*4]
	mov	DWORD PTR tv182[ebp], eax
	mov	edx, DWORD PTR tv182[ebp]
	prefetcht0 BYTE PTR [edx]
	mov	eax, DWORD PTR _this$[ebp]
	mov	ecx, DWORD PTR [eax+104]
	mov	edx, DWORD PTR _iYstart$[ebp]
	imul	edx, 96					; 00000060H
	mov	eax, DWORD PTR _iXstart$[ebp]
	mov	ecx, DWORD PTR [ecx+eax*4]
	lea	edx, DWORD PTR [ecx+edx+64]
	mov	DWORD PTR tv190[ebp], edx
	mov	eax, DWORD PTR tv190[ebp]
	prefetcht0 BYTE PTR [eax]

; 326  : #endif
; 327  : 
; 328  : 		m_pBest = NULL;

	mov	ecx, DWORD PTR _this$[ebp]
	mov	DWORD PTR [ecx+96], 0

; 329  : 		m_pStackHead = NULL;

	mov	edx, DWORD PTR _this$[ebp]
	mov	DWORD PTR [edx+100], 0

; 330  : 
; 331  : 		m_bForceReset = false;

	mov	eax, DWORD PTR _this$[ebp]
	mov	BYTE PTR [eax+78], 0

; 332  : 
; 333  : 		temp = &(m_ppaaNodes[iXstart][iYstart]);

	mov	ecx, DWORD PTR _this$[ebp]
	mov	edx, DWORD PTR [ecx+104]
	mov	eax, DWORD PTR _iYstart$[ebp]
	imul	eax, 96					; 00000060H
	mov	ecx, DWORD PTR _iXstart$[ebp]
	add	eax, DWORD PTR [edx+ecx*4]
	mov	DWORD PTR _temp$[ebp], eax

; 334  : 
; 335  : #ifdef AUI_ASTAR_FIX_POSSIBLE_NULL_POINTERS
; 336  : 		temp->clear();
; 337  : #else
; 338  : 		temp->m_iKnownCost = 0;

	mov	edx, DWORD PTR _temp$[ebp]
	mov	DWORD PTR [edx+4], 0

; 339  : #endif
; 340  : 		if(udHeuristic == NULL)

	mov	eax, DWORD PTR _this$[ebp]
	cmp	DWORD PTR [eax+8], 0
	jne	SHORT $LN13@GeneratePa

; 341  : 		{
; 342  : 			temp->m_iHeuristicCost = 0;

	mov	ecx, DWORD PTR _temp$[ebp]
	mov	DWORD PTR [ecx+8], 0

; 343  : 		}
; 344  : 		else

	jmp	SHORT $LN12@GeneratePa
$LN13@GeneratePa:

; 345  : 		{
; 346  : 			temp->m_iHeuristicCost = udHeuristic(m_iXstart, m_iYstart, m_iXdest, m_iYdest);

	mov	edx, DWORD PTR _this$[ebp]
	mov	eax, DWORD PTR [edx+68]
	push	eax
	mov	ecx, DWORD PTR _this$[ebp]
	mov	edx, DWORD PTR [ecx+64]
	push	edx
	mov	eax, DWORD PTR _this$[ebp]
	mov	ecx, DWORD PTR [eax+60]
	push	ecx
	mov	edx, DWORD PTR _this$[ebp]
	mov	eax, DWORD PTR [edx+56]
	push	eax
	mov	ecx, DWORD PTR _this$[ebp]
	mov	edx, DWORD PTR [ecx+8]
	call	edx
	add	esp, 16					; 00000010H
	mov	ecx, DWORD PTR _temp$[ebp]
	mov	DWORD PTR [ecx+8], eax
$LN12@GeneratePa:

; 347  : 		}
; 348  : 		temp->m_iTotalCost = temp->m_iKnownCost + temp->m_iHeuristicCost;

	mov	edx, DWORD PTR _temp$[ebp]
	mov	eax, DWORD PTR [edx+4]
	mov	ecx, DWORD PTR _temp$[ebp]
	add	eax, DWORD PTR [ecx+8]
	mov	edx, DWORD PTR _temp$[ebp]
	mov	DWORD PTR [edx], eax

; 349  : 
; 350  : 		m_pOpen = temp;

	mov	eax, DWORD PTR _this$[ebp]
	mov	ecx, DWORD PTR _temp$[ebp]
	mov	DWORD PTR [eax+84], ecx

; 351  : 		m_pOpenTail = temp;

	mov	edx, DWORD PTR _this$[ebp]
	mov	eax, DWORD PTR _temp$[ebp]
	mov	DWORD PTR [edx+88], eax

; 352  : 
; 353  : 		udFunc(udNotifyList, NULL, m_pOpen, ASNL_STARTOPEN, m_pData);

	mov	ecx, DWORD PTR _this$[ebp]
	mov	edx, DWORD PTR [ecx+44]
	mov	DWORD PTR $T221427[ebp], edx
	mov	eax, DWORD PTR _this$[ebp]
	mov	ecx, DWORD PTR [eax+84]
	mov	DWORD PTR $T221426[ebp], ecx
	mov	edx, DWORD PTR _this$[ebp]
	mov	eax, DWORD PTR [edx+24]
	mov	DWORD PTR $T221425[ebp], eax
	cmp	DWORD PTR $T221425[ebp], 0
	je	SHORT $LN60@GeneratePa
	mov	ecx, DWORD PTR _this$[ebp]
	push	ecx
	mov	edx, DWORD PTR $T221427[ebp]
	push	edx
	push	1
	mov	eax, DWORD PTR $T221426[ebp]
	push	eax
	push	0
	call	DWORD PTR $T221425[ebp]
	add	esp, 20					; 00000014H
	mov	DWORD PTR tv309[ebp], eax
	jmp	SHORT $LN58@GeneratePa
$LN60@GeneratePa:
	mov	DWORD PTR tv309[ebp], 1
$LN58@GeneratePa:

; 354  : 		udFunc(udValid, NULL, temp, 0, m_pData);

	mov	ecx, DWORD PTR _this$[ebp]
	mov	edx, DWORD PTR [ecx+44]
	mov	DWORD PTR $T221436[ebp], edx
	mov	eax, DWORD PTR _this$[ebp]
	mov	ecx, DWORD PTR [eax+16]
	mov	DWORD PTR $T221435[ebp], ecx
	cmp	DWORD PTR $T221435[ebp], 0
	je	SHORT $LN64@GeneratePa
	mov	edx, DWORD PTR _this$[ebp]
	push	edx
	mov	eax, DWORD PTR $T221436[ebp]
	push	eax
	push	0
	mov	ecx, DWORD PTR _temp$[ebp]
	push	ecx
	push	0
	call	DWORD PTR $T221435[ebp]
	add	esp, 20					; 00000014H
	mov	DWORD PTR tv311[ebp], eax
	jmp	SHORT $LN62@GeneratePa
$LN64@GeneratePa:
	mov	DWORD PTR tv311[ebp], 1
$LN62@GeneratePa:

; 355  : 		udFunc(udNotifyChild, NULL, temp, ASNC_INITIALADD, m_pData);

	mov	edx, DWORD PTR _this$[ebp]
	mov	eax, DWORD PTR [edx+44]
	mov	DWORD PTR $T221445[ebp], eax
	mov	ecx, DWORD PTR _this$[ebp]
	mov	edx, DWORD PTR [ecx+20]
	mov	DWORD PTR $T221444[ebp], edx
	cmp	DWORD PTR $T221444[ebp], 0
	je	SHORT $LN68@GeneratePa
	mov	eax, DWORD PTR _this$[ebp]
	push	eax
	mov	ecx, DWORD PTR $T221445[ebp]
	push	ecx
	push	0
	mov	edx, DWORD PTR _temp$[ebp]
	push	edx
	push	0
	call	DWORD PTR $T221444[ebp]
	add	esp, 20					; 00000014H
	mov	DWORD PTR tv316[ebp], eax
	jmp	SHORT $LN20@GeneratePa
$LN68@GeneratePa:
	mov	DWORD PTR tv316[ebp], 1
$LN20@GeneratePa:

; 356  : 	}
; 357  : 
; 358  : 	if(udDestValid != NULL)

	mov	eax, DWORD PTR _this$[ebp]
	cmp	DWORD PTR [eax+4], 0
	je	SHORT $LN11@GeneratePa

; 359  : 	{
; 360  : 		if(!udDestValid(iXdest, iYdest, m_pData, this))

	mov	ecx, DWORD PTR _this$[ebp]
	push	ecx
	mov	edx, DWORD PTR _this$[ebp]
	mov	eax, DWORD PTR [edx+44]
	push	eax
	mov	ecx, DWORD PTR _iYdest$[ebp]
	push	ecx
	mov	edx, DWORD PTR _iXdest$[ebp]
	push	edx
	mov	eax, DWORD PTR _this$[ebp]
	mov	ecx, DWORD PTR [eax+4]
	call	ecx
	add	esp, 16					; 00000010H
	test	eax, eax
	jne	SHORT $LN11@GeneratePa

; 361  : 		{
; 362  : 			if (udUninitializeFunc)

	mov	edx, DWORD PTR _this$[ebp]
	cmp	DWORD PTR [edx+40], 0
	je	SHORT $LN9@GeneratePa

; 363  : 				udUninitializeFunc(m_pData, this);

	mov	eax, DWORD PTR _this$[ebp]
	push	eax
	mov	ecx, DWORD PTR _this$[ebp]
	mov	edx, DWORD PTR [ecx+44]
	push	edx
	mov	eax, DWORD PTR _this$[ebp]
	mov	ecx, DWORD PTR [eax+40]
	call	ecx
	add	esp, 8
$LN9@GeneratePa:

; 364  : 			return false;

	xor	al, al
	jmp	$LN26@GeneratePa
$LN11@GeneratePa:

; 365  : 		}
; 366  : 	}
; 367  : 
; 368  : 	if(isValid(m_iXdest, m_iYdest))

	mov	edx, DWORD PTR _this$[ebp]
	mov	eax, DWORD PTR [edx+68]
	mov	DWORD PTR $T221454[ebp], eax
	mov	ecx, DWORD PTR _this$[ebp]
	mov	edx, DWORD PTR [ecx+64]
	mov	DWORD PTR $T221453[ebp], edx
	cmp	DWORD PTR $T221453[ebp], 0
	jl	SHORT $LN72@GeneratePa
	mov	eax, DWORD PTR _this$[ebp]
	mov	ecx, DWORD PTR $T221453[ebp]
	cmp	ecx, DWORD PTR [eax+48]
	jl	SHORT $LN73@GeneratePa
$LN72@GeneratePa:
	mov	BYTE PTR $T221455[ebp], 0
	jmp	SHORT $LN74@GeneratePa
$LN73@GeneratePa:
	cmp	DWORD PTR $T221454[ebp], 0
	jl	SHORT $LN70@GeneratePa
	mov	edx, DWORD PTR _this$[ebp]
	mov	eax, DWORD PTR $T221454[ebp]
	cmp	eax, DWORD PTR [edx+52]
	jl	SHORT $LN71@GeneratePa
$LN70@GeneratePa:
	mov	BYTE PTR $T221455[ebp], 0
	jmp	SHORT $LN74@GeneratePa
$LN71@GeneratePa:
	mov	BYTE PTR $T221455[ebp], 1
$LN74@GeneratePa:
	movzx	ecx, BYTE PTR $T221455[ebp]
	test	ecx, ecx
	je	SHORT $LN8@GeneratePa

; 369  : 	{
; 370  : 		temp = &(m_ppaaNodes[m_iXdest][m_iYdest]);

	mov	edx, DWORD PTR _this$[ebp]
	mov	eax, DWORD PTR [edx+64]
	mov	ecx, DWORD PTR _this$[ebp]
	mov	edx, DWORD PTR [ecx+104]
	mov	ecx, DWORD PTR _this$[ebp]
	mov	ecx, DWORD PTR [ecx+68]
	imul	ecx, 96					; 00000060H
	add	ecx, DWORD PTR [edx+eax*4]
	mov	DWORD PTR _temp$[ebp], ecx

; 371  : 
; 372  : 		if(temp->m_eCvAStarListType == CVASTARLIST_CLOSED)

	mov	edx, DWORD PTR _temp$[ebp]
	cmp	DWORD PTR [edx+20], 1
	jne	SHORT $LN8@GeneratePa

; 373  : 		{
; 374  : 			m_pBest = temp;

	mov	eax, DWORD PTR _this$[ebp]
	mov	ecx, DWORD PTR _temp$[ebp]
	mov	DWORD PTR [eax+96], ecx

; 375  : 			if (udUninitializeFunc)

	mov	edx, DWORD PTR _this$[ebp]
	cmp	DWORD PTR [edx+40], 0
	je	SHORT $LN6@GeneratePa

; 376  : 				udUninitializeFunc(m_pData, this);

	mov	eax, DWORD PTR _this$[ebp]
	push	eax
	mov	ecx, DWORD PTR _this$[ebp]
	mov	edx, DWORD PTR [ecx+44]
	push	edx
	mov	eax, DWORD PTR _this$[ebp]
	mov	ecx, DWORD PTR [eax+40]
	call	ecx
	add	esp, 8
$LN6@GeneratePa:

; 377  : 			return true;

	mov	al, 1
	jmp	SHORT $LN26@GeneratePa
$LN8@GeneratePa:

; 378  : 		}
; 379  : 	}
; 380  : 
; 381  : #ifdef AUI_ASTAR_MINOR_OPTIMIZATION
; 382  : 	int retval = 0;
; 383  : 
; 384  : 	do
; 385  : #else
; 386  : 	retval = 0;

	mov	DWORD PTR _retval$[ebp], 0
$LN5@GeneratePa:

; 387  : 
; 388  : 	while(retval == 0)

	cmp	DWORD PTR _retval$[ebp], 0
	jne	SHORT $LN4@GeneratePa

; 389  : #endif
; 390  : 	{
; 391  : 		retval = Step();

	mov	ecx, DWORD PTR _this$[ebp]
	call	?Step@CvAStar@@IAEHXZ			; CvAStar::Step
	mov	DWORD PTR _retval$[ebp], eax

; 392  : 	}

	jmp	SHORT $LN5@GeneratePa
$LN4@GeneratePa:

; 393  : #ifdef AUI_ASTAR_MINOR_OPTIMIZATION
; 394  : 	while (retval == 0);
; 395  : 
; 396  : 	if (udUninitializeFunc)
; 397  : 		udUninitializeFunc(m_pData, this);
; 398  : #endif
; 399  : 
; 400  : 	if(retval == -1)

	cmp	DWORD PTR _retval$[ebp], -1
	jne	SHORT $LN3@GeneratePa

; 401  : 	{
; 402  : 		assert(m_pBest == NULL);
; 403  : #ifndef AUI_ASTAR_MINOR_OPTIMIZATION
; 404  : 		if (udUninitializeFunc)

	mov	edx, DWORD PTR _this$[ebp]
	cmp	DWORD PTR [edx+40], 0
	je	SHORT $LN2@GeneratePa

; 405  : 			udUninitializeFunc(m_pData, this);

	mov	eax, DWORD PTR _this$[ebp]
	push	eax
	mov	ecx, DWORD PTR _this$[ebp]
	mov	edx, DWORD PTR [ecx+44]
	push	edx
	mov	eax, DWORD PTR _this$[ebp]
	mov	ecx, DWORD PTR [eax+40]
	call	ecx
	add	esp, 8
$LN2@GeneratePa:

; 406  : #endif
; 407  : 		return false;

	xor	al, al
	jmp	SHORT $LN26@GeneratePa
$LN3@GeneratePa:

; 408  : 	}
; 409  : 
; 410  : #ifndef AUI_ASTAR_MINOR_OPTIMIZATION
; 411  : 	if (udUninitializeFunc)

	mov	edx, DWORD PTR _this$[ebp]
	cmp	DWORD PTR [edx+40], 0
	je	SHORT $LN1@GeneratePa

; 412  : 		udUninitializeFunc(m_pData, this);

	mov	eax, DWORD PTR _this$[ebp]
	push	eax
	mov	ecx, DWORD PTR _this$[ebp]
	mov	edx, DWORD PTR [ecx+44]
	push	edx
	mov	eax, DWORD PTR _this$[ebp]
	mov	ecx, DWORD PTR [eax+40]
	call	ecx
	add	esp, 8
$LN1@GeneratePa:

; 413  : #endif
; 414  : 	return true;

	mov	al, 1
$LN26@GeneratePa:

; 415  : }

	mov	esp, ebp
	pop	ebp
	ret	24					; 00000018H
?GeneratePath@CvAStar@@QAE_NHHHHH_N@Z ENDP		; CvAStar::GeneratePath
_TEXT	ENDS
PUBLIC	?CreateChildren@CvAStar@@IAEXPAVCvAStarNode@@@Z	; CvAStar::CreateChildren
PUBLIC	?GetBest@CvAStar@@IAEPAVCvAStarNode@@XZ		; CvAStar::GetBest
; Function compile flags: /Odtp
;	COMDAT ?Step@CvAStar@@IAEHXZ
_TEXT	SEGMENT
_this$ = -16						; size = 4
$T221464 = -9						; size = 1
$T221463 = -8						; size = 4
$T221462 = -4						; size = 4
?Step@CvAStar@@IAEHXZ PROC				; CvAStar::Step, COMDAT
; _this$ = ecx

; 420  : {

	push	ebp
	mov	ebp, esp
	sub	esp, 16					; 00000010H
	mov	DWORD PTR _this$[ebp], ecx

; 421  : 	if((m_pBest = GetBest()) == NULL)

	mov	ecx, DWORD PTR _this$[ebp]
	call	?GetBest@CvAStar@@IAEPAVCvAStarNode@@XZ	; CvAStar::GetBest
	mov	ecx, DWORD PTR _this$[ebp]
	mov	DWORD PTR [ecx+96], eax
	mov	edx, DWORD PTR _this$[ebp]
	cmp	DWORD PTR [edx+96], 0
	jne	SHORT $LN3@Step

; 422  : 	{
; 423  : 		return -1;

	or	eax, -1
	jmp	SHORT $LN4@Step
$LN3@Step:

; 424  : 	}
; 425  : 
; 426  : 	CreateChildren(m_pBest); // needs to be done, even on the last node, to allow for re-use...

	mov	eax, DWORD PTR _this$[ebp]
	mov	ecx, DWORD PTR [eax+96]
	push	ecx
	mov	ecx, DWORD PTR _this$[ebp]
	call	?CreateChildren@CvAStar@@IAEXPAVCvAStarNode@@@Z ; CvAStar::CreateChildren

; 427  : 
; 428  : 	if (m_pBest == NULL)	// There seems to be a case were this will come back NULL.

	mov	edx, DWORD PTR _this$[ebp]
	cmp	DWORD PTR [edx+96], 0
	jne	SHORT $LN2@Step

; 429  : 		return -1;

	or	eax, -1
	jmp	SHORT $LN4@Step
$LN2@Step:

; 430  : 
; 431  : 	if(IsPathDest(m_pBest->m_iX, m_pBest->m_iY))

	mov	eax, DWORD PTR _this$[ebp]
	mov	ecx, DWORD PTR [eax+96]
	movsx	edx, WORD PTR [ecx+82]
	mov	DWORD PTR $T221463[ebp], edx
	mov	eax, DWORD PTR _this$[ebp]
	mov	ecx, DWORD PTR [eax+96]
	movsx	edx, WORD PTR [ecx+80]
	mov	DWORD PTR $T221462[ebp], edx
	mov	eax, DWORD PTR _this$[ebp]
	cmp	DWORD PTR [eax], 0
	je	SHORT $LN6@Step
	mov	ecx, DWORD PTR _this$[ebp]
	push	ecx
	mov	edx, DWORD PTR _this$[ebp]
	mov	eax, DWORD PTR [edx+44]
	push	eax
	mov	ecx, DWORD PTR $T221463[ebp]
	push	ecx
	mov	edx, DWORD PTR $T221462[ebp]
	push	edx
	mov	eax, DWORD PTR _this$[ebp]
	mov	ecx, DWORD PTR [eax]
	call	ecx
	add	esp, 16					; 00000010H
	test	eax, eax
	je	SHORT $LN6@Step
	mov	BYTE PTR $T221464[ebp], 1
	jmp	SHORT $LN7@Step
$LN6@Step:
	mov	BYTE PTR $T221464[ebp], 0
$LN7@Step:
	movzx	edx, BYTE PTR $T221464[ebp]
	test	edx, edx
	je	SHORT $LN1@Step

; 432  : 	{
; 433  : 		return 1;

	mov	eax, 1
	jmp	SHORT $LN4@Step
$LN1@Step:

; 434  : 	}
; 435  : 
; 436  : 	return 0;

	xor	eax, eax
$LN4@Step:

; 437  : }

	mov	esp, ebp
	pop	ebp
	ret	0
?Step@CvAStar@@IAEHXZ ENDP				; CvAStar::Step
; Function compile flags: /Odtp
_TEXT	ENDS
;	COMDAT ?GetBest@CvAStar@@IAEPAVCvAStarNode@@XZ
_TEXT	SEGMENT
tv140 = -36						; size = 4
tv138 = -32						; size = 4
_this$ = -28						; size = 4
$T221485 = -24						; size = 4
$T221484 = -20						; size = 4
$T221483 = -16						; size = 4
$T221475 = -12						; size = 4
$T221474 = -8						; size = 4
_temp$ = -4						; size = 4
?GetBest@CvAStar@@IAEPAVCvAStarNode@@XZ PROC		; CvAStar::GetBest, COMDAT
; _this$ = ecx

; 442  : {

	push	ebp
	mov	ebp, esp
	sub	esp, 36					; 00000024H
	mov	DWORD PTR _this$[ebp], ecx

; 443  : #ifndef AUI_ASTAR_MINOR_OPTIMIZATION
; 444  : 	CvAStarNode* temp;
; 445  : #endif
; 446  : 
; 447  : 	if(!m_pOpen)

	mov	eax, DWORD PTR _this$[ebp]
	cmp	DWORD PTR [eax+84], 0
	jne	SHORT $LN4@GetBest

; 448  : 	{
; 449  : 		return NULL;

	xor	eax, eax
	jmp	$LN5@GetBest
$LN4@GetBest:

; 450  : 	}
; 451  : 
; 452  : #ifdef AUI_ASTAR_MINOR_OPTIMIZATION
; 453  : 	CvAStarNode* temp = m_pOpen;
; 454  : #else
; 455  : 	temp = m_pOpen;

	mov	ecx, DWORD PTR _this$[ebp]
	mov	edx, DWORD PTR [ecx+84]
	mov	DWORD PTR _temp$[ebp], edx

; 456  : #endif
; 457  : 
; 458  : 	m_pOpen = temp->m_pNext;

	mov	eax, DWORD PTR _this$[ebp]
	mov	ecx, DWORD PTR _temp$[ebp]
	mov	edx, DWORD PTR [ecx+28]
	mov	DWORD PTR [eax+84], edx

; 459  : 	if(m_pOpen != NULL)

	mov	eax, DWORD PTR _this$[ebp]
	cmp	DWORD PTR [eax+84], 0
	je	SHORT $LN3@GetBest

; 460  : 	{
; 461  : 		m_pOpen->m_pPrev = NULL;

	mov	ecx, DWORD PTR _this$[ebp]
	mov	edx, DWORD PTR [ecx+84]
	mov	DWORD PTR [edx+32], 0

; 462  : 	}
; 463  : 	else

	jmp	SHORT $LN2@GetBest
$LN3@GetBest:

; 464  : 	{
; 465  : 		m_pOpenTail = NULL;

	mov	eax, DWORD PTR _this$[ebp]
	mov	DWORD PTR [eax+88], 0
$LN2@GetBest:

; 466  : 	}
; 467  : 
; 468  : 	udFunc(udNotifyList, NULL, temp, ASNL_DELETEOPEN, m_pData);

	mov	ecx, DWORD PTR _this$[ebp]
	mov	edx, DWORD PTR [ecx+44]
	mov	DWORD PTR $T221475[ebp], edx
	mov	eax, DWORD PTR _this$[ebp]
	mov	ecx, DWORD PTR [eax+24]
	mov	DWORD PTR $T221474[ebp], ecx
	cmp	DWORD PTR $T221474[ebp], 0
	je	SHORT $LN9@GetBest
	mov	edx, DWORD PTR _this$[ebp]
	push	edx
	mov	eax, DWORD PTR $T221475[ebp]
	push	eax
	push	2
	mov	ecx, DWORD PTR _temp$[ebp]
	push	ecx
	push	0
	call	DWORD PTR $T221474[ebp]
	add	esp, 20					; 00000014H
	mov	DWORD PTR tv138[ebp], eax
	jmp	SHORT $LN7@GetBest
$LN9@GetBest:
	mov	DWORD PTR tv138[ebp], 1
$LN7@GetBest:

; 469  : 
; 470  : 	temp->m_eCvAStarListType = CVASTARLIST_CLOSED;

	mov	edx, DWORD PTR _temp$[ebp]
	mov	DWORD PTR [edx+20], 1

; 471  : 
; 472  : 	temp->m_pNext = m_pClosed;

	mov	eax, DWORD PTR _temp$[ebp]
	mov	ecx, DWORD PTR _this$[ebp]
	mov	edx, DWORD PTR [ecx+92]
	mov	DWORD PTR [eax+28], edx

; 473  : #ifdef AUI_ASTAR_MINOR_OPTIMIZATION
; 474  : 	temp->m_pPrev = NULL;
; 475  : #endif
; 476  : 	if(m_pClosed != NULL)

	mov	eax, DWORD PTR _this$[ebp]
	cmp	DWORD PTR [eax+92], 0
	je	SHORT $LN1@GetBest

; 477  : 	{
; 478  : 		m_pClosed->m_pPrev = temp;

	mov	ecx, DWORD PTR _this$[ebp]
	mov	edx, DWORD PTR [ecx+92]
	mov	eax, DWORD PTR _temp$[ebp]
	mov	DWORD PTR [edx+32], eax
$LN1@GetBest:

; 479  : 	}
; 480  : 	m_pClosed = temp;

	mov	ecx, DWORD PTR _this$[ebp]
	mov	edx, DWORD PTR _temp$[ebp]
	mov	DWORD PTR [ecx+92], edx

; 481  : 
; 482  : 	udFunc(udNotifyList, NULL, m_pClosed, ASNL_ADDCLOSED, m_pData);

	mov	eax, DWORD PTR _this$[ebp]
	mov	ecx, DWORD PTR [eax+44]
	mov	DWORD PTR $T221485[ebp], ecx
	mov	edx, DWORD PTR _this$[ebp]
	mov	eax, DWORD PTR [edx+92]
	mov	DWORD PTR $T221484[ebp], eax
	mov	ecx, DWORD PTR _this$[ebp]
	mov	edx, DWORD PTR [ecx+24]
	mov	DWORD PTR $T221483[ebp], edx
	cmp	DWORD PTR $T221483[ebp], 0
	je	SHORT $LN13@GetBest
	mov	eax, DWORD PTR _this$[ebp]
	push	eax
	mov	ecx, DWORD PTR $T221485[ebp]
	push	ecx
	push	3
	mov	edx, DWORD PTR $T221484[ebp]
	push	edx
	push	0
	call	DWORD PTR $T221483[ebp]
	add	esp, 20					; 00000014H
	mov	DWORD PTR tv140[ebp], eax
	jmp	SHORT $LN11@GetBest
$LN13@GetBest:
	mov	DWORD PTR tv140[ebp], 1
$LN11@GetBest:

; 483  : 
; 484  : 	return temp;

	mov	eax, DWORD PTR _temp$[ebp]
$LN5@GetBest:

; 485  : }

	mov	esp, ebp
	pop	ebp
	ret	0
?GetBest@CvAStar@@IAEPAVCvAStarNode@@XZ ENDP		; CvAStar::GetBest
_TEXT	ENDS
PUBLIC	?LinkChild@CvAStar@@IAEXPAVCvAStarNode@@0@Z	; CvAStar::LinkChild
;	COMDAT ?s_CvAStarChildHexY@?1??CreateChildren@CvAStar@@IAEXPAVCvAStarNode@@@Z@4PAHA
; File d:\sources\lekmod_git\checkout\lekmod_dll\cvgamecoredll_expansion2\cvastar.h
_DATA	SEGMENT
?s_CvAStarChildHexY@?1??CreateChildren@CvAStar@@IAEXPAVCvAStarNode@@@Z@4PAHA DD 01H ; `CvAStar::CreateChildren'::`2'::s_CvAStarChildHexY
	DD	00H
	DD	0ffffffffH
	DD	0ffffffffH
	DD	00H
	DD	01H
_DATA	ENDS
;	COMDAT ?s_CvAStarChildHexX@?1??CreateChildren@CvAStar@@IAEXPAVCvAStarNode@@@Z@4PAHA
_DATA	SEGMENT
?s_CvAStarChildHexX@?1??CreateChildren@CvAStar@@IAEXPAVCvAStarNode@@@Z@4PAHA DD 00H ; `CvAStar::CreateChildren'::`2'::s_CvAStarChildHexX
	DD	01H
	DD	01H
	DD	00H
	DD	0ffffffffH
	DD	0ffffffffH
; Function compile flags: /Odtp
; File d:\sources\lekmod_git\checkout\lekmod_dll\cvgamecoredll_expansion2\cvastar.cpp
_DATA	ENDS
;	COMDAT ?CreateChildren@CvAStar@@IAEXPAVCvAStarNode@@@Z
_TEXT	SEGMENT
tv261 = -100						; size = 4
tv201 = -96						; size = 4
tv193 = -92						; size = 4
tv256 = -88						; size = 4
tv146 = -84						; size = 4
tv138 = -80						; size = 4
tv95 = -76						; size = 4
tv78 = -72						; size = 4
_this$ = -68						; size = 4
$T221546 = -64						; size = 4
$T221545 = -60						; size = 4
$T221537 = -53						; size = 1
$T221529 = -52						; size = 4
$T221528 = -48						; size = 4
$T221520 = -41						; size = 1
$T221512 = -40						; size = 4
$T221502 = -36						; size = 4
$T221501 = -32						; size = 4
_i$219051 = -28						; size = 4
_iExtraChildren$219050 = -24				; size = 4
_range$ = -20						; size = 4
_i$ = -16						; size = 4
_x$ = -12						; size = 4
_y$ = -8						; size = 4
_check$ = -4						; size = 4
_node$ = 8						; size = 4
?CreateChildren@CvAStar@@IAEXPAVCvAStarNode@@@Z PROC	; CvAStar::CreateChildren, COMDAT
; _this$ = ecx

; 553  : {

	push	ebp
	mov	ebp, esp
	sub	esp, 100				; 00000064H
	mov	DWORD PTR _this$[ebp], ecx

; 554  : 	CvAStarNode* check;
; 555  : 	int range = 6;

	mov	DWORD PTR _range$[ebp], 6

; 556  : 	int x, y;
; 557  : 	int i;
; 558  : 
; 559  : 	static int s_CvAStarChildHexX[6] = { 0, 1,  1,  0, -1, -1, };
; 560  : 	static int s_CvAStarChildHexY[6] = { 1, 0, -1, -1,  0,  1, };
; 561  : 
; 562  : 	for(i = 0; i < range; i++)

	mov	DWORD PTR _i$[ebp], 0
	jmp	SHORT $LN11@CreateChil
$LN10@CreateChil:
	mov	eax, DWORD PTR _i$[ebp]
	add	eax, 1
	mov	DWORD PTR _i$[ebp], eax
$LN11@CreateChil:
	mov	ecx, DWORD PTR _i$[ebp]
	cmp	ecx, DWORD PTR _range$[ebp]
	jge	$LN9@CreateChil

; 563  : 	{
; 564  : 		x = node->m_iX - ((node->m_iY >= 0) ? (node->m_iY>>1) : ((node->m_iY - 1)/2));

	mov	edx, DWORD PTR _node$[ebp]
	movsx	eax, WORD PTR [edx+82]
	test	eax, eax
	jl	SHORT $LN14@CreateChil
	mov	ecx, DWORD PTR _node$[ebp]
	movsx	edx, WORD PTR [ecx+82]
	sar	edx, 1
	mov	DWORD PTR tv78[ebp], edx
	jmp	SHORT $LN15@CreateChil
$LN14@CreateChil:
	mov	eax, DWORD PTR _node$[ebp]
	movsx	eax, WORD PTR [eax+82]
	sub	eax, 1
	cdq
	sub	eax, edx
	sar	eax, 1
	mov	DWORD PTR tv78[ebp], eax
$LN15@CreateChil:
	mov	ecx, DWORD PTR _node$[ebp]
	movsx	edx, WORD PTR [ecx+80]
	sub	edx, DWORD PTR tv78[ebp]
	mov	DWORD PTR _x$[ebp], edx

; 565  : 		x += s_CvAStarChildHexX[i];

	mov	eax, DWORD PTR _i$[ebp]
	mov	ecx, DWORD PTR _x$[ebp]
	add	ecx, DWORD PTR ?s_CvAStarChildHexX@?1??CreateChildren@CvAStar@@IAEXPAVCvAStarNode@@@Z@4PAHA[eax*4]
	mov	DWORD PTR _x$[ebp], ecx

; 566  : 		y = yRange(node->m_iY + s_CvAStarChildHexY[i]);

	mov	edx, DWORD PTR _node$[ebp]
	movsx	eax, WORD PTR [edx+82]
	mov	ecx, DWORD PTR _i$[ebp]
	add	eax, DWORD PTR ?s_CvAStarChildHexY@?1??CreateChildren@CvAStar@@IAEXPAVCvAStarNode@@@Z@4PAHA[ecx*4]
	mov	DWORD PTR $T221501[ebp], eax
	mov	edx, DWORD PTR _this$[ebp]
	movzx	eax, BYTE PTR [edx+77]
	test	eax, eax
	je	SHORT $LN23@CreateChil
	cmp	DWORD PTR $T221501[ebp], 0
	jge	SHORT $LN22@CreateChil
	mov	ecx, DWORD PTR _this$[ebp]
	mov	eax, DWORD PTR $T221501[ebp]
	cdq
	idiv	DWORD PTR [ecx+52]
	mov	eax, DWORD PTR _this$[ebp]
	add	edx, DWORD PTR [eax+52]
	mov	DWORD PTR $T221502[ebp], edx
	jmp	SHORT $LN24@CreateChil
	jmp	SHORT $LN21@CreateChil
$LN22@CreateChil:
	mov	ecx, DWORD PTR _this$[ebp]
	mov	edx, DWORD PTR $T221501[ebp]
	cmp	edx, DWORD PTR [ecx+52]
	jl	SHORT $LN20@CreateChil
	mov	ecx, DWORD PTR _this$[ebp]
	mov	eax, DWORD PTR $T221501[ebp]
	cdq
	idiv	DWORD PTR [ecx+52]
	mov	DWORD PTR $T221502[ebp], edx
	jmp	SHORT $LN24@CreateChil
	jmp	SHORT $LN21@CreateChil
$LN20@CreateChil:
	mov	edx, DWORD PTR $T221501[ebp]
	mov	DWORD PTR $T221502[ebp], edx
	jmp	SHORT $LN24@CreateChil
$LN21@CreateChil:
	jmp	SHORT $LN24@CreateChil
$LN23@CreateChil:
	mov	eax, DWORD PTR $T221501[ebp]
	mov	DWORD PTR $T221502[ebp], eax
$LN24@CreateChil:
	mov	ecx, DWORD PTR $T221502[ebp]
	mov	DWORD PTR _y$[ebp], ecx

; 567  : 		x += ((y >= 0) ? (y>>1) : ((y - 1)/2));

	cmp	DWORD PTR _y$[ebp], 0
	jl	SHORT $LN16@CreateChil
	mov	edx, DWORD PTR _y$[ebp]
	sar	edx, 1
	mov	DWORD PTR tv95[ebp], edx
	jmp	SHORT $LN17@CreateChil
$LN16@CreateChil:
	mov	eax, DWORD PTR _y$[ebp]
	sub	eax, 1
	cdq
	sub	eax, edx
	sar	eax, 1
	mov	DWORD PTR tv95[ebp], eax
$LN17@CreateChil:
	mov	eax, DWORD PTR _x$[ebp]
	add	eax, DWORD PTR tv95[ebp]
	mov	DWORD PTR _x$[ebp], eax

; 568  : 		x = xRange(x);

	mov	ecx, DWORD PTR _this$[ebp]
	movzx	edx, BYTE PTR [ecx+76]
	test	edx, edx
	je	SHORT $LN31@CreateChil
	cmp	DWORD PTR _x$[ebp], 0
	jge	SHORT $LN30@CreateChil
	mov	ecx, DWORD PTR _this$[ebp]
	mov	eax, DWORD PTR _x$[ebp]
	cdq
	idiv	DWORD PTR [ecx+48]
	mov	eax, DWORD PTR _this$[ebp]
	add	edx, DWORD PTR [eax+48]
	mov	DWORD PTR $T221512[ebp], edx
	jmp	SHORT $LN32@CreateChil
	jmp	SHORT $LN29@CreateChil
$LN30@CreateChil:
	mov	ecx, DWORD PTR _this$[ebp]
	mov	edx, DWORD PTR _x$[ebp]
	cmp	edx, DWORD PTR [ecx+48]
	jl	SHORT $LN28@CreateChil
	mov	ecx, DWORD PTR _this$[ebp]
	mov	eax, DWORD PTR _x$[ebp]
	cdq
	idiv	DWORD PTR [ecx+48]
	mov	DWORD PTR $T221512[ebp], edx
	jmp	SHORT $LN32@CreateChil
	jmp	SHORT $LN29@CreateChil
$LN28@CreateChil:
	mov	edx, DWORD PTR _x$[ebp]
	mov	DWORD PTR $T221512[ebp], edx
	jmp	SHORT $LN32@CreateChil
$LN29@CreateChil:
	jmp	SHORT $LN32@CreateChil
$LN31@CreateChil:
	mov	eax, DWORD PTR _x$[ebp]
	mov	DWORD PTR $T221512[ebp], eax
$LN32@CreateChil:
	mov	ecx, DWORD PTR $T221512[ebp]
	mov	DWORD PTR _x$[ebp], ecx

; 569  : 
; 570  : 		PREFETCH_FASTAR_NODE(&(m_ppaaNodes[x][y]));

	mov	edx, DWORD PTR _this$[ebp]
	mov	eax, DWORD PTR [edx+104]
	mov	ecx, DWORD PTR _y$[ebp]
	imul	ecx, 96					; 00000060H
	mov	edx, DWORD PTR _x$[ebp]
	add	ecx, DWORD PTR [eax+edx*4]
	mov	DWORD PTR tv138[ebp], ecx
	mov	eax, DWORD PTR tv138[ebp]
	prefetcht0 BYTE PTR [eax]
	mov	ecx, DWORD PTR _this$[ebp]
	mov	edx, DWORD PTR [ecx+104]
	mov	eax, DWORD PTR _y$[ebp]
	imul	eax, 96					; 00000060H
	mov	ecx, DWORD PTR _x$[ebp]
	mov	edx, DWORD PTR [edx+ecx*4]
	lea	eax, DWORD PTR [edx+eax+64]
	mov	DWORD PTR tv146[ebp], eax
	mov	ecx, DWORD PTR tv146[ebp]
	prefetcht0 BYTE PTR [ecx]

; 571  : 		if(isValid(x, y))

	cmp	DWORD PTR _x$[ebp], 0
	jl	SHORT $LN36@CreateChil
	mov	edx, DWORD PTR _this$[ebp]
	mov	eax, DWORD PTR _x$[ebp]
	cmp	eax, DWORD PTR [edx+48]
	jl	SHORT $LN37@CreateChil
$LN36@CreateChil:
	mov	BYTE PTR $T221520[ebp], 0
	jmp	SHORT $LN38@CreateChil
$LN37@CreateChil:
	cmp	DWORD PTR _y$[ebp], 0
	jl	SHORT $LN34@CreateChil
	mov	ecx, DWORD PTR _this$[ebp]
	mov	edx, DWORD PTR _y$[ebp]
	cmp	edx, DWORD PTR [ecx+52]
	jl	SHORT $LN35@CreateChil
$LN34@CreateChil:
	mov	BYTE PTR $T221520[ebp], 0
	jmp	SHORT $LN38@CreateChil
$LN35@CreateChil:
	mov	BYTE PTR $T221520[ebp], 1
$LN38@CreateChil:
	movzx	eax, BYTE PTR $T221520[ebp]
	test	eax, eax
	je	SHORT $LN8@CreateChil

; 572  : 		{
; 573  : 			check = &(m_ppaaNodes[x][y]);

	mov	ecx, DWORD PTR _this$[ebp]
	mov	edx, DWORD PTR [ecx+104]
	mov	eax, DWORD PTR _y$[ebp]
	imul	eax, 96					; 00000060H
	mov	ecx, DWORD PTR _x$[ebp]
	add	eax, DWORD PTR [edx+ecx*4]
	mov	DWORD PTR _check$[ebp], eax

; 574  : 
; 575  : 			if(udFunc(udValid, node, check, 0, m_pData))

	mov	edx, DWORD PTR _this$[ebp]
	mov	eax, DWORD PTR [edx+44]
	mov	DWORD PTR $T221529[ebp], eax
	mov	ecx, DWORD PTR _this$[ebp]
	mov	edx, DWORD PTR [ecx+16]
	mov	DWORD PTR $T221528[ebp], edx
	cmp	DWORD PTR $T221528[ebp], 0
	je	SHORT $LN42@CreateChil
	mov	eax, DWORD PTR _this$[ebp]
	push	eax
	mov	ecx, DWORD PTR $T221529[ebp]
	push	ecx
	push	0
	mov	edx, DWORD PTR _check$[ebp]
	push	edx
	mov	eax, DWORD PTR _node$[ebp]
	push	eax
	call	DWORD PTR $T221528[ebp]
	add	esp, 20					; 00000014H
	mov	DWORD PTR tv256[ebp], eax
	jmp	SHORT $LN40@CreateChil
$LN42@CreateChil:
	mov	DWORD PTR tv256[ebp], 1
$LN40@CreateChil:
	cmp	DWORD PTR tv256[ebp], 0
	je	SHORT $LN8@CreateChil

; 576  : 			{
; 577  : 				LinkChild(node, check);

	mov	ecx, DWORD PTR _check$[ebp]
	push	ecx
	mov	edx, DWORD PTR _node$[ebp]
	push	edx
	mov	ecx, DWORD PTR _this$[ebp]
	call	?LinkChild@CvAStar@@IAEXPAVCvAStarNode@@0@Z ; CvAStar::LinkChild
$LN8@CreateChil:

; 578  : 			}
; 579  : 		}
; 580  : 	}

	jmp	$LN10@CreateChil
$LN9@CreateChil:

; 581  : 
; 582  : 	if(udNumExtraChildrenFunc && udGetExtraChildFunc)

	mov	eax, DWORD PTR _this$[ebp]
	cmp	DWORD PTR [eax+28], 0
	je	$LN12@CreateChil
	mov	ecx, DWORD PTR _this$[ebp]
	cmp	DWORD PTR [ecx+32], 0
	je	$LN12@CreateChil

; 583  : 	{
; 584  : 		int iExtraChildren = udNumExtraChildrenFunc(node, this);

	mov	edx, DWORD PTR _this$[ebp]
	push	edx
	mov	eax, DWORD PTR _node$[ebp]
	push	eax
	mov	ecx, DWORD PTR _this$[ebp]
	mov	edx, DWORD PTR [ecx+28]
	call	edx
	add	esp, 8
	mov	DWORD PTR _iExtraChildren$219050[ebp], eax

; 585  : 		for(int i = 0; i < iExtraChildren; i++)

	mov	DWORD PTR _i$219051[ebp], 0
	jmp	SHORT $LN5@CreateChil
$LN4@CreateChil:
	mov	eax, DWORD PTR _i$219051[ebp]
	add	eax, 1
	mov	DWORD PTR _i$219051[ebp], eax
$LN5@CreateChil:
	mov	ecx, DWORD PTR _i$219051[ebp]
	cmp	ecx, DWORD PTR _iExtraChildren$219050[ebp]
	jge	$LN12@CreateChil

; 586  : 		{
; 587  : 			udGetExtraChildFunc(node, i, x, y, this);

	mov	edx, DWORD PTR _this$[ebp]
	push	edx
	lea	eax, DWORD PTR _y$[ebp]
	push	eax
	lea	ecx, DWORD PTR _x$[ebp]
	push	ecx
	mov	edx, DWORD PTR _i$219051[ebp]
	push	edx
	mov	eax, DWORD PTR _node$[ebp]
	push	eax
	mov	ecx, DWORD PTR _this$[ebp]
	mov	edx, DWORD PTR [ecx+32]
	call	edx
	add	esp, 20					; 00000014H

; 588  : 			PREFETCH_FASTAR_NODE(&(m_ppaaNodes[x][y]));

	mov	eax, DWORD PTR _this$[ebp]
	mov	ecx, DWORD PTR [eax+104]
	mov	edx, DWORD PTR _y$[ebp]
	imul	edx, 96					; 00000060H
	mov	eax, DWORD PTR _x$[ebp]
	add	edx, DWORD PTR [ecx+eax*4]
	mov	DWORD PTR tv193[ebp], edx
	mov	ecx, DWORD PTR tv193[ebp]
	prefetcht0 BYTE PTR [ecx]
	mov	edx, DWORD PTR _this$[ebp]
	mov	eax, DWORD PTR [edx+104]
	mov	ecx, DWORD PTR _y$[ebp]
	imul	ecx, 96					; 00000060H
	mov	edx, DWORD PTR _x$[ebp]
	mov	eax, DWORD PTR [eax+edx*4]
	lea	ecx, DWORD PTR [eax+ecx+64]
	mov	DWORD PTR tv201[ebp], ecx
	mov	edx, DWORD PTR tv201[ebp]
	prefetcht0 BYTE PTR [edx]

; 589  : 
; 590  : 			if(isValid(x, y))

	cmp	DWORD PTR _x$[ebp], 0
	jl	SHORT $LN46@CreateChil
	mov	eax, DWORD PTR _this$[ebp]
	mov	ecx, DWORD PTR _x$[ebp]
	cmp	ecx, DWORD PTR [eax+48]
	jl	SHORT $LN47@CreateChil
$LN46@CreateChil:
	mov	BYTE PTR $T221537[ebp], 0
	jmp	SHORT $LN48@CreateChil
$LN47@CreateChil:
	cmp	DWORD PTR _y$[ebp], 0
	jl	SHORT $LN44@CreateChil
	mov	edx, DWORD PTR _this$[ebp]
	mov	eax, DWORD PTR _y$[ebp]
	cmp	eax, DWORD PTR [edx+52]
	jl	SHORT $LN45@CreateChil
$LN44@CreateChil:
	mov	BYTE PTR $T221537[ebp], 0
	jmp	SHORT $LN48@CreateChil
$LN45@CreateChil:
	mov	BYTE PTR $T221537[ebp], 1
$LN48@CreateChil:
	movzx	ecx, BYTE PTR $T221537[ebp]
	test	ecx, ecx
	je	SHORT $LN2@CreateChil

; 591  : 			{
; 592  : 				check = &(m_ppaaNodes[x][y]);

	mov	edx, DWORD PTR _this$[ebp]
	mov	eax, DWORD PTR [edx+104]
	mov	ecx, DWORD PTR _y$[ebp]
	imul	ecx, 96					; 00000060H
	mov	edx, DWORD PTR _x$[ebp]
	add	ecx, DWORD PTR [eax+edx*4]
	mov	DWORD PTR _check$[ebp], ecx

; 593  : 
; 594  : 				if(udFunc(udValid, node, check, 0, m_pData))

	mov	eax, DWORD PTR _this$[ebp]
	mov	ecx, DWORD PTR [eax+44]
	mov	DWORD PTR $T221546[ebp], ecx
	mov	edx, DWORD PTR _this$[ebp]
	mov	eax, DWORD PTR [edx+16]
	mov	DWORD PTR $T221545[ebp], eax
	cmp	DWORD PTR $T221545[ebp], 0
	je	SHORT $LN52@CreateChil
	mov	ecx, DWORD PTR _this$[ebp]
	push	ecx
	mov	edx, DWORD PTR $T221546[ebp]
	push	edx
	push	0
	mov	eax, DWORD PTR _check$[ebp]
	push	eax
	mov	ecx, DWORD PTR _node$[ebp]
	push	ecx
	call	DWORD PTR $T221545[ebp]
	add	esp, 20					; 00000014H
	mov	DWORD PTR tv261[ebp], eax
	jmp	SHORT $LN50@CreateChil
$LN52@CreateChil:
	mov	DWORD PTR tv261[ebp], 1
$LN50@CreateChil:
	cmp	DWORD PTR tv261[ebp], 0
	je	SHORT $LN2@CreateChil

; 595  : 				{
; 596  : 					LinkChild(node, check);

	mov	edx, DWORD PTR _check$[ebp]
	push	edx
	mov	eax, DWORD PTR _node$[ebp]
	push	eax
	mov	ecx, DWORD PTR _this$[ebp]
	call	?LinkChild@CvAStar@@IAEXPAVCvAStarNode@@0@Z ; CvAStar::LinkChild
$LN2@CreateChil:

; 597  : 				}
; 598  : 			}
; 599  : 		}

	jmp	$LN4@CreateChil
$LN12@CreateChil:

; 600  : 	}
; 601  : }

	mov	esp, ebp
	pop	ebp
	ret	4
?CreateChildren@CvAStar@@IAEXPAVCvAStarNode@@@Z ENDP	; CvAStar::CreateChildren
_TEXT	ENDS
PUBLIC	?AddToOpen@CvAStar@@QAEXPAVCvAStarNode@@@Z	; CvAStar::AddToOpen
PUBLIC	?UpdateParents@CvAStar@@IAEXPAVCvAStarNode@@@Z	; CvAStar::UpdateParents
PUBLIC	?UpdateOpenNode@CvAStar@@IAEXPAVCvAStarNode@@@Z	; CvAStar::UpdateOpenNode
PUBLIC	?push_back@?$FStaticVector@PAVCvAStarNode@@$05$00$0BCJ@$0A@@@QAEIABQAVCvAStarNode@@@Z ; FStaticVector<CvAStarNode *,6,1,297,0>::push_back
; Function compile flags: /Odtp
;	COMDAT ?LinkChild@CvAStar@@IAEXPAVCvAStarNode@@0@Z
_TEXT	SEGMENT
tv250 = -108						; size = 4
tv256 = -104						; size = 4
tv228 = -100						; size = 4
tv202 = -96						; size = 4
_this$ = -92						; size = 4
$T221602 = -60						; size = 4
$T221601 = -56						; size = 4
$T221600 = -52						; size = 4
$T221592 = -48						; size = 4
$T221591 = -44						; size = 4
$T221590 = -40						; size = 4
$T221575 = -32						; size = 4
$T221574 = -28						; size = 4
$T221573 = -24						; size = 4
$T221558 = -16						; size = 4
$T221557 = -12						; size = 4
$T221556 = -8						; size = 4
_iKnownCost$ = -4					; size = 4
_node$ = 8						; size = 4
_check$ = 12						; size = 4
?LinkChild@CvAStar@@IAEXPAVCvAStarNode@@0@Z PROC	; CvAStar::LinkChild, COMDAT
; _this$ = ecx

; 607  : {

	push	ebp
	mov	ebp, esp
	sub	esp, 108				; 0000006cH
	mov	DWORD PTR _this$[ebp], ecx

; 608  : #if defined(AUI_ASTAR_MINOR_OPTIMIZATION)
; 609  : 	int iKnownCost = node->m_iKnownCost + udFunc(udCost, node, check, 0, m_pData);
; 610  : #else
; 611  : 	int iKnownCost;
; 612  : 
; 613  : 	iKnownCost = node->m_iKnownCost + udFunc(udCost, node, check, 0, m_pData);

	mov	eax, DWORD PTR _this$[ebp]
	mov	ecx, DWORD PTR [eax+44]
	mov	DWORD PTR $T221558[ebp], ecx
	mov	edx, DWORD PTR _check$[ebp]
	mov	DWORD PTR $T221557[ebp], edx
	mov	eax, DWORD PTR _this$[ebp]
	mov	ecx, DWORD PTR [eax+12]
	mov	DWORD PTR $T221556[ebp], ecx
	cmp	DWORD PTR $T221556[ebp], 0
	je	SHORT $LN13@LinkChild
	mov	edx, DWORD PTR _this$[ebp]
	push	edx
	mov	eax, DWORD PTR $T221558[ebp]
	push	eax
	push	0
	mov	ecx, DWORD PTR $T221557[ebp]
	push	ecx
	mov	edx, DWORD PTR _node$[ebp]
	push	edx
	call	DWORD PTR $T221556[ebp]
	add	esp, 20					; 00000014H
	mov	DWORD PTR tv202[ebp], eax
	jmp	SHORT $LN11@LinkChild
$LN13@LinkChild:
	mov	DWORD PTR tv202[ebp], 1
$LN11@LinkChild:
	mov	eax, DWORD PTR _node$[ebp]
	mov	ecx, DWORD PTR [eax+4]
	add	ecx, DWORD PTR tv202[ebp]
	mov	DWORD PTR _iKnownCost$[ebp], ecx

; 614  : #endif
; 615  : 
; 616  : 	if(check->m_eCvAStarListType == CVASTARLIST_OPEN)

	mov	edx, DWORD PTR _check$[ebp]
	cmp	DWORD PTR [edx+20], 0
	jne	$LN8@LinkChild

; 617  : 	{
; 618  : 		node->m_apChildren.push_back(check);

	lea	eax, DWORD PTR _check$[ebp]
	push	eax
	mov	ecx, DWORD PTR _node$[ebp]
	add	ecx, 40					; 00000028H
	call	?push_back@?$FStaticVector@PAVCvAStarNode@@$05$00$0BCJ@$0A@@@QAEIABQAVCvAStarNode@@@Z ; FStaticVector<CvAStarNode *,6,1,297,0>::push_back

; 619  : #ifndef AUI_ASTAR_MINOR_OPTIMIZATION
; 620  : 		node->m_iNumChildren++;

	mov	ecx, DWORD PTR _node$[ebp]
	mov	dx, WORD PTR [ecx+84]
	add	dx, 1
	mov	eax, DWORD PTR _node$[ebp]
	mov	WORD PTR [eax+84], dx

; 621  : #endif
; 622  : 
; 623  : 		if(iKnownCost < check->m_iKnownCost)

	mov	ecx, DWORD PTR _check$[ebp]
	mov	edx, DWORD PTR _iKnownCost$[ebp]
	cmp	edx, DWORD PTR [ecx+4]
	jge	SHORT $LN7@LinkChild

; 624  : 		{
; 625  : 			FAssert(node->m_pParent != check);
; 626  : 
; 627  : 			check->m_pParent = node;

	mov	eax, DWORD PTR _check$[ebp]
	mov	ecx, DWORD PTR _node$[ebp]
	mov	DWORD PTR [eax+24], ecx

; 628  : 			check->m_iKnownCost = iKnownCost;

	mov	edx, DWORD PTR _check$[ebp]
	mov	eax, DWORD PTR _iKnownCost$[ebp]
	mov	DWORD PTR [edx+4], eax

; 629  : 			check->m_iTotalCost = iKnownCost + check->m_iHeuristicCost;

	mov	ecx, DWORD PTR _check$[ebp]
	mov	edx, DWORD PTR _iKnownCost$[ebp]
	add	edx, DWORD PTR [ecx+8]
	mov	eax, DWORD PTR _check$[ebp]
	mov	DWORD PTR [eax], edx

; 630  : 
; 631  : 			UpdateOpenNode(check);

	mov	ecx, DWORD PTR _check$[ebp]
	push	ecx
	mov	ecx, DWORD PTR _this$[ebp]
	call	?UpdateOpenNode@CvAStar@@IAEXPAVCvAStarNode@@@Z ; CvAStar::UpdateOpenNode

; 632  : 			udFunc(udNotifyChild, node, check, ASNC_OPENADD_UP, m_pData);

	mov	edx, DWORD PTR _this$[ebp]
	mov	eax, DWORD PTR [edx+44]
	mov	DWORD PTR $T221575[ebp], eax
	mov	ecx, DWORD PTR _check$[ebp]
	mov	DWORD PTR $T221574[ebp], ecx
	mov	edx, DWORD PTR _this$[ebp]
	mov	eax, DWORD PTR [edx+20]
	mov	DWORD PTR $T221573[ebp], eax
	cmp	DWORD PTR $T221573[ebp], 0
	je	SHORT $LN24@LinkChild
	mov	ecx, DWORD PTR _this$[ebp]
	push	ecx
	mov	edx, DWORD PTR $T221575[ebp]
	push	edx
	push	1
	mov	eax, DWORD PTR $T221574[ebp]
	push	eax
	mov	ecx, DWORD PTR _node$[ebp]
	push	ecx
	call	DWORD PTR $T221573[ebp]
	add	esp, 20					; 00000014H
	mov	DWORD PTR tv228[ebp], eax
	jmp	SHORT $LN7@LinkChild
$LN24@LinkChild:
	mov	DWORD PTR tv228[ebp], 1
$LN7@LinkChild:

; 633  : 		}
; 634  : 	}

	jmp	$LN9@LinkChild
$LN8@LinkChild:

; 635  : 	else if(check->m_eCvAStarListType == CVASTARLIST_CLOSED)

	mov	edx, DWORD PTR _check$[ebp]
	cmp	DWORD PTR [edx+20], 1
	jne	$LN5@LinkChild

; 636  : 	{
; 637  : 		node->m_apChildren.push_back(check);

	lea	eax, DWORD PTR _check$[ebp]
	push	eax
	mov	ecx, DWORD PTR _node$[ebp]
	add	ecx, 40					; 00000028H
	call	?push_back@?$FStaticVector@PAVCvAStarNode@@$05$00$0BCJ@$0A@@@QAEIABQAVCvAStarNode@@@Z ; FStaticVector<CvAStarNode *,6,1,297,0>::push_back

; 638  : #ifndef AUI_ASTAR_MINOR_OPTIMIZATION
; 639  : 		node->m_iNumChildren++;

	mov	ecx, DWORD PTR _node$[ebp]
	mov	dx, WORD PTR [ecx+84]
	add	dx, 1
	mov	eax, DWORD PTR _node$[ebp]
	mov	WORD PTR [eax+84], dx

; 640  : #endif
; 641  : 
; 642  : 		if(iKnownCost < check->m_iKnownCost)

	mov	ecx, DWORD PTR _check$[ebp]
	mov	edx, DWORD PTR _iKnownCost$[ebp]
	cmp	edx, DWORD PTR [ecx+4]
	jge	SHORT $LN4@LinkChild

; 643  : 		{
; 644  : 			FAssert(node->m_pParent != check);
; 645  : 			check->m_pParent = node;

	mov	eax, DWORD PTR _check$[ebp]
	mov	ecx, DWORD PTR _node$[ebp]
	mov	DWORD PTR [eax+24], ecx

; 646  : 			check->m_iKnownCost = iKnownCost;

	mov	edx, DWORD PTR _check$[ebp]
	mov	eax, DWORD PTR _iKnownCost$[ebp]
	mov	DWORD PTR [edx+4], eax

; 647  : 			check->m_iTotalCost = iKnownCost + check->m_iHeuristicCost;

	mov	ecx, DWORD PTR _check$[ebp]
	mov	edx, DWORD PTR _iKnownCost$[ebp]
	add	edx, DWORD PTR [ecx+8]
	mov	eax, DWORD PTR _check$[ebp]
	mov	DWORD PTR [eax], edx

; 648  : 			udFunc(udNotifyChild, node, check, ASNC_CLOSEDADD_UP, m_pData);

	mov	ecx, DWORD PTR _this$[ebp]
	mov	edx, DWORD PTR [ecx+44]
	mov	DWORD PTR $T221592[ebp], edx
	mov	eax, DWORD PTR _check$[ebp]
	mov	DWORD PTR $T221591[ebp], eax
	mov	ecx, DWORD PTR _this$[ebp]
	mov	edx, DWORD PTR [ecx+20]
	mov	DWORD PTR $T221590[ebp], edx
	cmp	DWORD PTR $T221590[ebp], 0
	je	SHORT $LN35@LinkChild
	mov	eax, DWORD PTR _this$[ebp]
	push	eax
	mov	ecx, DWORD PTR $T221592[ebp]
	push	ecx
	push	2
	mov	edx, DWORD PTR $T221591[ebp]
	push	edx
	mov	eax, DWORD PTR _node$[ebp]
	push	eax
	call	DWORD PTR $T221590[ebp]
	add	esp, 20					; 00000014H
	mov	DWORD PTR tv256[ebp], eax
	jmp	SHORT $LN33@LinkChild
$LN35@LinkChild:
	mov	DWORD PTR tv256[ebp], 1
$LN33@LinkChild:

; 649  : 
; 650  : 			UpdateParents(check);

	mov	ecx, DWORD PTR _check$[ebp]
	push	ecx
	mov	ecx, DWORD PTR _this$[ebp]
	call	?UpdateParents@CvAStar@@IAEXPAVCvAStarNode@@@Z ; CvAStar::UpdateParents
$LN4@LinkChild:

; 651  : 		}
; 652  : 	}
; 653  : 	else

	jmp	$LN9@LinkChild
$LN5@LinkChild:

; 654  : 	{
; 655  : 		FAssert(check->m_eCvAStarListType == NO_CVASTARLIST);
; 656  : 		FAssert(node->m_pParent != check);
; 657  : 		check->m_pParent = node;

	mov	edx, DWORD PTR _check$[ebp]
	mov	eax, DWORD PTR _node$[ebp]
	mov	DWORD PTR [edx+24], eax

; 658  : 		check->m_iKnownCost = iKnownCost;

	mov	ecx, DWORD PTR _check$[ebp]
	mov	edx, DWORD PTR _iKnownCost$[ebp]
	mov	DWORD PTR [ecx+4], edx

; 659  : 		if(udHeuristic == NULL)

	mov	eax, DWORD PTR _this$[ebp]
	cmp	DWORD PTR [eax+8], 0
	jne	SHORT $LN2@LinkChild

; 660  : 		{
; 661  : 			check->m_iHeuristicCost = 0;

	mov	ecx, DWORD PTR _check$[ebp]
	mov	DWORD PTR [ecx+8], 0

; 662  : 		}
; 663  : 		else

	jmp	SHORT $LN1@LinkChild
$LN2@LinkChild:

; 664  : 		{
; 665  : 			check->m_iHeuristicCost = udHeuristic(check->m_iX, check->m_iY, m_iXdest, m_iYdest);

	mov	edx, DWORD PTR _this$[ebp]
	mov	eax, DWORD PTR [edx+68]
	push	eax
	mov	ecx, DWORD PTR _this$[ebp]
	mov	edx, DWORD PTR [ecx+64]
	push	edx
	mov	eax, DWORD PTR _check$[ebp]
	movsx	ecx, WORD PTR [eax+82]
	push	ecx
	mov	edx, DWORD PTR _check$[ebp]
	movsx	eax, WORD PTR [edx+80]
	push	eax
	mov	ecx, DWORD PTR _this$[ebp]
	mov	edx, DWORD PTR [ecx+8]
	call	edx
	add	esp, 16					; 00000010H
	mov	ecx, DWORD PTR _check$[ebp]
	mov	DWORD PTR [ecx+8], eax
$LN1@LinkChild:

; 666  : 		}
; 667  : 		check->m_iTotalCost = check->m_iKnownCost + check->m_iHeuristicCost;

	mov	edx, DWORD PTR _check$[ebp]
	mov	eax, DWORD PTR [edx+4]
	mov	ecx, DWORD PTR _check$[ebp]
	add	eax, DWORD PTR [ecx+8]
	mov	edx, DWORD PTR _check$[ebp]
	mov	DWORD PTR [edx], eax

; 668  : 
; 669  : 		udFunc(udNotifyChild, node, check, ASNC_NEWADD, m_pData);

	mov	eax, DWORD PTR _this$[ebp]
	mov	ecx, DWORD PTR [eax+44]
	mov	DWORD PTR $T221602[ebp], ecx
	mov	edx, DWORD PTR _check$[ebp]
	mov	DWORD PTR $T221601[ebp], edx
	mov	eax, DWORD PTR _this$[ebp]
	mov	ecx, DWORD PTR [eax+20]
	mov	DWORD PTR $T221600[ebp], ecx
	cmp	DWORD PTR $T221600[ebp], 0
	je	SHORT $LN39@LinkChild
	mov	edx, DWORD PTR _this$[ebp]
	push	edx
	mov	eax, DWORD PTR $T221602[ebp]
	push	eax
	push	4
	mov	ecx, DWORD PTR $T221601[ebp]
	push	ecx
	mov	edx, DWORD PTR _node$[ebp]
	push	edx
	call	DWORD PTR $T221600[ebp]
	add	esp, 20					; 00000014H
	mov	DWORD PTR tv250[ebp], eax
	jmp	SHORT $LN37@LinkChild
$LN39@LinkChild:
	mov	DWORD PTR tv250[ebp], 1
$LN37@LinkChild:

; 670  : 
; 671  : 		AddToOpen(check);

	mov	eax, DWORD PTR _check$[ebp]
	push	eax
	mov	ecx, DWORD PTR _this$[ebp]
	call	?AddToOpen@CvAStar@@QAEXPAVCvAStarNode@@@Z ; CvAStar::AddToOpen

; 672  : 
; 673  : 		node->m_apChildren.push_back(check);

	lea	ecx, DWORD PTR _check$[ebp]
	push	ecx
	mov	ecx, DWORD PTR _node$[ebp]
	add	ecx, 40					; 00000028H
	call	?push_back@?$FStaticVector@PAVCvAStarNode@@$05$00$0BCJ@$0A@@@QAEIABQAVCvAStarNode@@@Z ; FStaticVector<CvAStarNode *,6,1,297,0>::push_back

; 674  : #ifndef AUI_ASTAR_MINOR_OPTIMIZATION
; 675  : 		node->m_iNumChildren++;

	mov	edx, DWORD PTR _node$[ebp]
	mov	ax, WORD PTR [edx+84]
	add	ax, 1
	mov	ecx, DWORD PTR _node$[ebp]
	mov	WORD PTR [ecx+84], ax
$LN9@LinkChild:

; 676  : #endif
; 677  : 	}
; 678  : }

	mov	esp, ebp
	pop	ebp
	ret	8
?LinkChild@CvAStar@@IAEXPAVCvAStarNode@@0@Z ENDP	; CvAStar::LinkChild
; Function compile flags: /Odtp
_TEXT	ENDS
;	COMDAT ?AddToOpen@CvAStar@@QAEXPAVCvAStarNode@@@Z
_TEXT	SEGMENT
tv279 = -160						; size = 4
tv277 = -156						; size = 4
tv275 = -152						; size = 4
tv273 = -148						; size = 4
tv271 = -144						; size = 4
tv269 = -140						; size = 4
tv267 = -136						; size = 4
tv265 = -132						; size = 4
tv263 = -128						; size = 4
_this$ = -124						; size = 4
$T221715 = -120						; size = 4
$T221714 = -116						; size = 4
$T221706 = -112						; size = 4
$T221705 = -108						; size = 4
$T221704 = -104						; size = 4
$T221703 = -100						; size = 4
$T221695 = -96						; size = 4
$T221694 = -92						; size = 4
$T221686 = -88						; size = 4
$T221685 = -84						; size = 4
$T221684 = -80						; size = 4
$T221683 = -76						; size = 4
$T221675 = -72						; size = 4
$T221674 = -68						; size = 4
$T221673 = -64						; size = 4
$T221665 = -60						; size = 4
$T221664 = -56						; size = 4
$T221663 = -52						; size = 4
$T221655 = -48						; size = 4
$T221654 = -44						; size = 4
$T221653 = -40						; size = 4
$T221645 = -36						; size = 4
$T221644 = -32						; size = 4
$T221643 = -28						; size = 4
$T221642 = -24						; size = 4
$T221634 = -20						; size = 4
$T221633 = -16						; size = 4
_prev$219094 = -12					; size = 4
_next$219084 = -8					; size = 4
_node$ = -4						; size = 4
_addnode$ = 8						; size = 4
?AddToOpen@CvAStar@@QAEXPAVCvAStarNode@@@Z PROC		; CvAStar::AddToOpen, COMDAT
; _this$ = ecx

; 683  : {

	push	ebp
	mov	ebp, esp
	sub	esp, 160				; 000000a0H
	mov	DWORD PTR _this$[ebp], ecx

; 684  : #ifndef AUI_ASTAR_MINOR_OPTIMIZATION
; 685  : 	CvAStarNode* node;
; 686  : #endif
; 687  : 
; 688  : 	addnode->m_eCvAStarListType = CVASTARLIST_OPEN;

	mov	eax, DWORD PTR _addnode$[ebp]
	mov	DWORD PTR [eax+20], 0

; 689  : 
; 690  : 	if(!m_pOpen)

	mov	ecx, DWORD PTR _this$[ebp]
	cmp	DWORD PTR [ecx+84], 0
	jne	SHORT $LN21@AddToOpen

; 691  : 	{
; 692  : 		m_pOpen = addnode;

	mov	edx, DWORD PTR _this$[ebp]
	mov	eax, DWORD PTR _addnode$[ebp]
	mov	DWORD PTR [edx+84], eax

; 693  : 		m_pOpenTail = addnode;

	mov	ecx, DWORD PTR _this$[ebp]
	mov	edx, DWORD PTR _addnode$[ebp]
	mov	DWORD PTR [ecx+88], edx

; 694  : 		m_pOpen->m_pNext = NULL;

	mov	eax, DWORD PTR _this$[ebp]
	mov	ecx, DWORD PTR [eax+84]
	mov	DWORD PTR [ecx+28], 0

; 695  : 		m_pOpen->m_pPrev = NULL;

	mov	edx, DWORD PTR _this$[ebp]
	mov	eax, DWORD PTR [edx+84]
	mov	DWORD PTR [eax+32], 0

; 696  : 
; 697  : 		udFunc(udNotifyList, NULL, addnode, ASNL_STARTOPEN, m_pData);

	mov	ecx, DWORD PTR _this$[ebp]
	mov	edx, DWORD PTR [ecx+44]
	mov	DWORD PTR $T221634[ebp], edx
	mov	eax, DWORD PTR _this$[ebp]
	mov	ecx, DWORD PTR [eax+24]
	mov	DWORD PTR $T221633[ebp], ecx
	cmp	DWORD PTR $T221633[ebp], 0
	je	SHORT $LN26@AddToOpen
	mov	edx, DWORD PTR _this$[ebp]
	push	edx
	mov	eax, DWORD PTR $T221634[ebp]
	push	eax
	push	1
	mov	ecx, DWORD PTR _addnode$[ebp]
	push	ecx
	push	0
	call	DWORD PTR $T221633[ebp]
	add	esp, 20					; 00000014H
	mov	DWORD PTR tv263[ebp], eax
	jmp	SHORT $LN24@AddToOpen
$LN26@AddToOpen:
	mov	DWORD PTR tv263[ebp], 1
$LN24@AddToOpen:

; 698  : 
; 699  : 		return;

	jmp	$LN22@AddToOpen
$LN21@AddToOpen:

; 700  : 	}
; 701  : #ifdef AUI_ASTAR_FIX_POSSIBLE_NULL_POINTERS
; 702  : 	else if (!m_pOpenTail)
; 703  : 	{
; 704  : 		CvAStarNode* temp = m_pOpen;
; 705  : 		while (temp->m_pNext)
; 706  : 		{
; 707  : 			temp = temp->m_pNext;
; 708  : 		}
; 709  : 		m_pOpenTail = temp;
; 710  : 	}
; 711  : 
; 712  : 	if (addnode->m_iTotalCost < m_pOpen->m_iTotalCost)
; 713  : #else
; 714  : 
; 715  : 	if(addnode->m_iTotalCost <= m_pOpen->m_iTotalCost)

	mov	edx, DWORD PTR _this$[ebp]
	mov	eax, DWORD PTR [edx+84]
	mov	ecx, DWORD PTR _addnode$[ebp]
	mov	edx, DWORD PTR [ecx]
	cmp	edx, DWORD PTR [eax]
	jg	SHORT $LN20@AddToOpen

; 716  : #endif
; 717  : 	{
; 718  : 		addnode->m_pNext = m_pOpen;

	mov	eax, DWORD PTR _addnode$[ebp]
	mov	ecx, DWORD PTR _this$[ebp]
	mov	edx, DWORD PTR [ecx+84]
	mov	DWORD PTR [eax+28], edx

; 719  : 		m_pOpen->m_pPrev = addnode;

	mov	eax, DWORD PTR _this$[ebp]
	mov	ecx, DWORD PTR [eax+84]
	mov	edx, DWORD PTR _addnode$[ebp]
	mov	DWORD PTR [ecx+32], edx

; 720  : 		m_pOpen = addnode;

	mov	eax, DWORD PTR _this$[ebp]
	mov	ecx, DWORD PTR _addnode$[ebp]
	mov	DWORD PTR [eax+84], ecx

; 721  : 
; 722  : 		udFunc(udNotifyList, m_pOpen->m_pNext, m_pOpen, ASNL_STARTOPEN, m_pData);

	mov	edx, DWORD PTR _this$[ebp]
	mov	eax, DWORD PTR [edx+44]
	mov	DWORD PTR $T221645[ebp], eax
	mov	ecx, DWORD PTR _this$[ebp]
	mov	edx, DWORD PTR [ecx+84]
	mov	DWORD PTR $T221644[ebp], edx
	mov	eax, DWORD PTR _this$[ebp]
	mov	ecx, DWORD PTR [eax+84]
	mov	edx, DWORD PTR [ecx+28]
	mov	DWORD PTR $T221643[ebp], edx
	mov	eax, DWORD PTR _this$[ebp]
	mov	ecx, DWORD PTR [eax+24]
	mov	DWORD PTR $T221642[ebp], ecx
	cmp	DWORD PTR $T221642[ebp], 0
	je	SHORT $LN30@AddToOpen
	mov	edx, DWORD PTR _this$[ebp]
	push	edx
	mov	eax, DWORD PTR $T221645[ebp]
	push	eax
	push	1
	mov	ecx, DWORD PTR $T221644[ebp]
	push	ecx
	mov	edx, DWORD PTR $T221643[ebp]
	push	edx
	call	DWORD PTR $T221642[ebp]
	add	esp, 20					; 00000014H
	mov	DWORD PTR tv265[ebp], eax
	jmp	SHORT $LN28@AddToOpen
$LN30@AddToOpen:
	mov	DWORD PTR tv265[ebp], 1
$LN28@AddToOpen:

; 723  : 	}
; 724  : 	else if(addnode->m_iTotalCost >= m_pOpenTail->m_iTotalCost)

	jmp	$LN22@AddToOpen
$LN20@AddToOpen:
	mov	eax, DWORD PTR _this$[ebp]
	mov	ecx, DWORD PTR [eax+88]
	mov	edx, DWORD PTR _addnode$[ebp]
	mov	eax, DWORD PTR [edx]
	cmp	eax, DWORD PTR [ecx]
	jl	SHORT $LN18@AddToOpen

; 725  : 	{
; 726  : 		addnode->m_pPrev = m_pOpenTail;

	mov	ecx, DWORD PTR _addnode$[ebp]
	mov	edx, DWORD PTR _this$[ebp]
	mov	eax, DWORD PTR [edx+88]
	mov	DWORD PTR [ecx+32], eax

; 727  : 		m_pOpenTail->m_pNext = addnode;

	mov	ecx, DWORD PTR _this$[ebp]
	mov	edx, DWORD PTR [ecx+88]
	mov	eax, DWORD PTR _addnode$[ebp]
	mov	DWORD PTR [edx+28], eax

; 728  : 		m_pOpenTail = addnode;

	mov	ecx, DWORD PTR _this$[ebp]
	mov	edx, DWORD PTR _addnode$[ebp]
	mov	DWORD PTR [ecx+88], edx

; 729  : 
; 730  : 		udFunc(udNotifyList, addnode->m_pPrev, addnode, ASNL_ADDOPEN, m_pData);

	mov	eax, DWORD PTR _this$[ebp]
	mov	ecx, DWORD PTR [eax+44]
	mov	DWORD PTR $T221655[ebp], ecx
	mov	edx, DWORD PTR _addnode$[ebp]
	mov	eax, DWORD PTR [edx+32]
	mov	DWORD PTR $T221654[ebp], eax
	mov	ecx, DWORD PTR _this$[ebp]
	mov	edx, DWORD PTR [ecx+24]
	mov	DWORD PTR $T221653[ebp], edx
	cmp	DWORD PTR $T221653[ebp], 0
	je	SHORT $LN34@AddToOpen
	mov	eax, DWORD PTR _this$[ebp]
	push	eax
	mov	ecx, DWORD PTR $T221655[ebp]
	push	ecx
	push	0
	mov	edx, DWORD PTR _addnode$[ebp]
	push	edx
	mov	eax, DWORD PTR $T221654[ebp]
	push	eax
	call	DWORD PTR $T221653[ebp]
	add	esp, 20					; 00000014H
	mov	DWORD PTR tv267[ebp], eax
	jmp	SHORT $LN32@AddToOpen
$LN34@AddToOpen:
	mov	DWORD PTR tv267[ebp], 1
$LN32@AddToOpen:

; 731  : 	}
; 732  : 	else if(abs(addnode->m_iTotalCost-m_pOpenTail->m_iTotalCost) < abs(addnode->m_iTotalCost-m_pOpen->m_iTotalCost))  //(addnode->m_iTotalCost > m_iOpenListAverage) // let's start at the end and work forwards

	jmp	$LN22@AddToOpen
$LN18@AddToOpen:
	mov	ecx, DWORD PTR _this$[ebp]
	mov	edx, DWORD PTR [ecx+88]
	mov	eax, DWORD PTR _addnode$[ebp]
	mov	eax, DWORD PTR [eax]
	sub	eax, DWORD PTR [edx]
	cdq
	mov	ecx, eax
	xor	ecx, edx
	sub	ecx, edx
	mov	edx, DWORD PTR _this$[ebp]
	mov	eax, DWORD PTR [edx+84]
	mov	edx, DWORD PTR _addnode$[ebp]
	mov	edx, DWORD PTR [edx]
	sub	edx, DWORD PTR [eax]
	mov	eax, edx
	cdq
	xor	eax, edx
	sub	eax, edx
	cmp	ecx, eax
	jge	$LN16@AddToOpen

; 733  : 	{
; 734  : #ifdef AUI_ASTAR_MINOR_OPTIMIZATION
; 735  : 		CvAStarNode* next = NULL;
; 736  : 		CvAStarNode* node = m_pOpenTail;
; 737  : #else
; 738  : 		CvAStarNode* next;
; 739  : 		node = m_pOpenTail;

	mov	eax, DWORD PTR _this$[ebp]
	mov	ecx, DWORD PTR [eax+88]
	mov	DWORD PTR _node$[ebp], ecx

; 740  : 		next = NULL;

	mov	DWORD PTR _next$219084[ebp], 0
$LN15@AddToOpen:

; 741  : #endif
; 742  : 
; 743  : 		while(node)

	cmp	DWORD PTR _node$[ebp], 0
	je	$LN14@AddToOpen

; 744  : 		{
; 745  : 			if(addnode->m_iTotalCost < node->m_iTotalCost)

	mov	edx, DWORD PTR _addnode$[ebp]
	mov	eax, DWORD PTR _node$[ebp]
	mov	ecx, DWORD PTR [edx]
	cmp	ecx, DWORD PTR [eax]
	jge	SHORT $LN13@AddToOpen

; 746  : 			{
; 747  : 				next = node;

	mov	edx, DWORD PTR _node$[ebp]
	mov	DWORD PTR _next$219084[ebp], edx

; 748  : 				node = node->m_pPrev;

	mov	eax, DWORD PTR _node$[ebp]
	mov	ecx, DWORD PTR [eax+32]
	mov	DWORD PTR _node$[ebp], ecx

; 749  : 			}
; 750  : 			else

	jmp	$LN12@AddToOpen
$LN13@AddToOpen:

; 751  : 			{
; 752  : 				if(next)

	cmp	DWORD PTR _next$219084[ebp], 0
	je	$LN11@AddToOpen

; 753  : 				{
; 754  : 					next->m_pPrev = addnode;

	mov	edx, DWORD PTR _next$219084[ebp]
	mov	eax, DWORD PTR _addnode$[ebp]
	mov	DWORD PTR [edx+32], eax

; 755  : 					addnode->m_pNext = next;

	mov	ecx, DWORD PTR _addnode$[ebp]
	mov	edx, DWORD PTR _next$219084[ebp]
	mov	DWORD PTR [ecx+28], edx

; 756  : 					addnode->m_pPrev = node;

	mov	eax, DWORD PTR _addnode$[ebp]
	mov	ecx, DWORD PTR _node$[ebp]
	mov	DWORD PTR [eax+32], ecx

; 757  : 					node->m_pNext = addnode;

	mov	edx, DWORD PTR _node$[ebp]
	mov	eax, DWORD PTR _addnode$[ebp]
	mov	DWORD PTR [edx+28], eax

; 758  : #ifndef AUI_ASTAR_MINOR_OPTIMIZATION
; 759  : 					if(node->m_pNext == NULL)

	mov	ecx, DWORD PTR _node$[ebp]
	cmp	DWORD PTR [ecx+28], 0
	jne	SHORT $LN10@AddToOpen

; 760  : 					{
; 761  : 						m_pOpenTail = node;

	mov	edx, DWORD PTR _this$[ebp]
	mov	eax, DWORD PTR _node$[ebp]
	mov	DWORD PTR [edx+88], eax
$LN10@AddToOpen:

; 762  : 					}
; 763  : #endif
; 764  : 
; 765  : 					udFunc(udNotifyList, addnode->m_pPrev, addnode, ASNL_ADDOPEN, m_pData);

	mov	ecx, DWORD PTR _this$[ebp]
	mov	edx, DWORD PTR [ecx+44]
	mov	DWORD PTR $T221665[ebp], edx
	mov	eax, DWORD PTR _addnode$[ebp]
	mov	ecx, DWORD PTR [eax+32]
	mov	DWORD PTR $T221664[ebp], ecx
	mov	edx, DWORD PTR _this$[ebp]
	mov	eax, DWORD PTR [edx+24]
	mov	DWORD PTR $T221663[ebp], eax
	cmp	DWORD PTR $T221663[ebp], 0
	je	SHORT $LN38@AddToOpen
	mov	ecx, DWORD PTR _this$[ebp]
	push	ecx
	mov	edx, DWORD PTR $T221665[ebp]
	push	edx
	push	0
	mov	eax, DWORD PTR _addnode$[ebp]
	push	eax
	mov	ecx, DWORD PTR $T221664[ebp]
	push	ecx
	call	DWORD PTR $T221663[ebp]
	add	esp, 20					; 00000014H
	mov	DWORD PTR tv269[ebp], eax
	jmp	SHORT $LN36@AddToOpen
$LN38@AddToOpen:
	mov	DWORD PTR tv269[ebp], 1
$LN36@AddToOpen:

; 766  : 				}
; 767  : 				else // we should just add it to the end of the list

	jmp	SHORT $LN9@AddToOpen
$LN11@AddToOpen:

; 768  : 				{
; 769  : 					addnode->m_pPrev = m_pOpenTail;

	mov	edx, DWORD PTR _addnode$[ebp]
	mov	eax, DWORD PTR _this$[ebp]
	mov	ecx, DWORD PTR [eax+88]
	mov	DWORD PTR [edx+32], ecx

; 770  : 					m_pOpenTail->m_pNext = addnode;

	mov	edx, DWORD PTR _this$[ebp]
	mov	eax, DWORD PTR [edx+88]
	mov	ecx, DWORD PTR _addnode$[ebp]
	mov	DWORD PTR [eax+28], ecx

; 771  : 					m_pOpenTail = addnode;

	mov	edx, DWORD PTR _this$[ebp]
	mov	eax, DWORD PTR _addnode$[ebp]
	mov	DWORD PTR [edx+88], eax

; 772  : 
; 773  : 					udFunc(udNotifyList, addnode->m_pPrev, addnode, ASNL_ADDOPEN, m_pData);

	mov	ecx, DWORD PTR _this$[ebp]
	mov	edx, DWORD PTR [ecx+44]
	mov	DWORD PTR $T221675[ebp], edx
	mov	eax, DWORD PTR _addnode$[ebp]
	mov	ecx, DWORD PTR [eax+32]
	mov	DWORD PTR $T221674[ebp], ecx
	mov	edx, DWORD PTR _this$[ebp]
	mov	eax, DWORD PTR [edx+24]
	mov	DWORD PTR $T221673[ebp], eax
	cmp	DWORD PTR $T221673[ebp], 0
	je	SHORT $LN42@AddToOpen
	mov	ecx, DWORD PTR _this$[ebp]
	push	ecx
	mov	edx, DWORD PTR $T221675[ebp]
	push	edx
	push	0
	mov	eax, DWORD PTR _addnode$[ebp]
	push	eax
	mov	ecx, DWORD PTR $T221674[ebp]
	push	ecx
	call	DWORD PTR $T221673[ebp]
	add	esp, 20					; 00000014H
	mov	DWORD PTR tv271[ebp], eax
	jmp	SHORT $LN9@AddToOpen
$LN42@AddToOpen:
	mov	DWORD PTR tv271[ebp], 1
$LN9@AddToOpen:

; 774  : 				}
; 775  : 
; 776  : 				return;

	jmp	$LN22@AddToOpen
$LN12@AddToOpen:

; 777  : 			}
; 778  : 		}

	jmp	$LN15@AddToOpen
$LN14@AddToOpen:

; 779  : 
; 780  : 		// we made it to the start of this list - insert it at the beginning - we shouldn't ever get here, but...
; 781  : 		next->m_pPrev = addnode;

	mov	edx, DWORD PTR _next$219084[ebp]
	mov	eax, DWORD PTR _addnode$[ebp]
	mov	DWORD PTR [edx+32], eax

; 782  : 		addnode->m_pNext = next;

	mov	ecx, DWORD PTR _addnode$[ebp]
	mov	edx, DWORD PTR _next$219084[ebp]
	mov	DWORD PTR [ecx+28], edx

; 783  : 		m_pOpen = addnode;

	mov	eax, DWORD PTR _this$[ebp]
	mov	ecx, DWORD PTR _addnode$[ebp]
	mov	DWORD PTR [eax+84], ecx

; 784  : 
; 785  : 		udFunc(udNotifyList, m_pOpen->m_pNext, m_pOpen, ASNL_STARTOPEN, m_pData);

	mov	edx, DWORD PTR _this$[ebp]
	mov	eax, DWORD PTR [edx+44]
	mov	DWORD PTR $T221686[ebp], eax
	mov	ecx, DWORD PTR _this$[ebp]
	mov	edx, DWORD PTR [ecx+84]
	mov	DWORD PTR $T221685[ebp], edx
	mov	eax, DWORD PTR _this$[ebp]
	mov	ecx, DWORD PTR [eax+84]
	mov	edx, DWORD PTR [ecx+28]
	mov	DWORD PTR $T221684[ebp], edx
	mov	eax, DWORD PTR _this$[ebp]
	mov	ecx, DWORD PTR [eax+24]
	mov	DWORD PTR $T221683[ebp], ecx
	cmp	DWORD PTR $T221683[ebp], 0
	je	SHORT $LN46@AddToOpen
	mov	edx, DWORD PTR _this$[ebp]
	push	edx
	mov	eax, DWORD PTR $T221686[ebp]
	push	eax
	push	1
	mov	ecx, DWORD PTR $T221685[ebp]
	push	ecx
	mov	edx, DWORD PTR $T221684[ebp]
	push	edx
	call	DWORD PTR $T221683[ebp]
	add	esp, 20					; 00000014H
	mov	DWORD PTR tv273[ebp], eax
	jmp	SHORT $LN44@AddToOpen
$LN46@AddToOpen:
	mov	DWORD PTR tv273[ebp], 1
$LN44@AddToOpen:

; 786  : 	}
; 787  : 	else // let's start at the beginning as it should be closer

	jmp	$LN22@AddToOpen
$LN16@AddToOpen:

; 788  : 	{
; 789  : #ifdef AUI_ASTAR_MINOR_OPTIMIZATION
; 790  : 		CvAStarNode* node = m_pOpen;
; 791  : 		CvAStarNode* prev = NULL;
; 792  : #else
; 793  : 		CvAStarNode* prev;
; 794  : 		node = m_pOpen;

	mov	eax, DWORD PTR _this$[ebp]
	mov	ecx, DWORD PTR [eax+84]
	mov	DWORD PTR _node$[ebp], ecx

; 795  : 		prev = NULL;

	mov	DWORD PTR _prev$219094[ebp], 0
$LN7@AddToOpen:

; 796  : #endif
; 797  : 
; 798  : 		while(node)

	cmp	DWORD PTR _node$[ebp], 0
	je	$LN6@AddToOpen

; 799  : 		{
; 800  : #ifdef AUI_ASTAR_FIX_POSSIBLE_NULL_POINTERS
; 801  : 			if (addnode->m_iTotalCost >= node->m_iTotalCost)
; 802  : #else
; 803  : 			if(addnode->m_iTotalCost > node->m_iTotalCost)

	mov	edx, DWORD PTR _addnode$[ebp]
	mov	eax, DWORD PTR _node$[ebp]
	mov	ecx, DWORD PTR [edx]
	cmp	ecx, DWORD PTR [eax]
	jle	SHORT $LN5@AddToOpen

; 804  : #endif
; 805  : 			{
; 806  : 				prev = node;

	mov	edx, DWORD PTR _node$[ebp]
	mov	DWORD PTR _prev$219094[ebp], edx

; 807  : 				node = node->m_pNext;

	mov	eax, DWORD PTR _node$[ebp]
	mov	ecx, DWORD PTR [eax+28]
	mov	DWORD PTR _node$[ebp], ecx

; 808  : 			}
; 809  : 			else

	jmp	$LN4@AddToOpen
$LN5@AddToOpen:

; 810  : 			{
; 811  : 				if(prev)

	cmp	DWORD PTR _prev$219094[ebp], 0
	je	SHORT $LN3@AddToOpen

; 812  : 				{
; 813  : 					prev->m_pNext = addnode;

	mov	edx, DWORD PTR _prev$219094[ebp]
	mov	eax, DWORD PTR _addnode$[ebp]
	mov	DWORD PTR [edx+28], eax

; 814  : 					addnode->m_pPrev = prev;

	mov	ecx, DWORD PTR _addnode$[ebp]
	mov	edx, DWORD PTR _prev$219094[ebp]
	mov	DWORD PTR [ecx+32], edx

; 815  : 					addnode->m_pNext = node;

	mov	eax, DWORD PTR _addnode$[ebp]
	mov	ecx, DWORD PTR _node$[ebp]
	mov	DWORD PTR [eax+28], ecx

; 816  : 					node->m_pPrev = addnode;

	mov	edx, DWORD PTR _node$[ebp]
	mov	eax, DWORD PTR _addnode$[ebp]
	mov	DWORD PTR [edx+32], eax

; 817  : #ifndef AUI_ASTAR_MINOR_OPTIMIZATION
; 818  : 					if(node->m_pNext == NULL)

	mov	ecx, DWORD PTR _node$[ebp]
	cmp	DWORD PTR [ecx+28], 0
	jne	SHORT $LN2@AddToOpen

; 819  : 					{
; 820  : 						m_pOpenTail = node;

	mov	edx, DWORD PTR _this$[ebp]
	mov	eax, DWORD PTR _node$[ebp]
	mov	DWORD PTR [edx+88], eax
$LN2@AddToOpen:

; 821  : 					}
; 822  : #endif
; 823  : 
; 824  : 					udFunc(udNotifyList, prev, addnode, ASNL_ADDOPEN, m_pData);

	mov	ecx, DWORD PTR _this$[ebp]
	mov	edx, DWORD PTR [ecx+44]
	mov	DWORD PTR $T221695[ebp], edx
	mov	eax, DWORD PTR _this$[ebp]
	mov	ecx, DWORD PTR [eax+24]
	mov	DWORD PTR $T221694[ebp], ecx
	cmp	DWORD PTR $T221694[ebp], 0
	je	SHORT $LN50@AddToOpen
	mov	edx, DWORD PTR _this$[ebp]
	push	edx
	mov	eax, DWORD PTR $T221695[ebp]
	push	eax
	push	0
	mov	ecx, DWORD PTR _addnode$[ebp]
	push	ecx
	mov	edx, DWORD PTR _prev$219094[ebp]
	push	edx
	call	DWORD PTR $T221694[ebp]
	add	esp, 20					; 00000014H
	mov	DWORD PTR tv275[ebp], eax
	jmp	SHORT $LN48@AddToOpen
$LN50@AddToOpen:
	mov	DWORD PTR tv275[ebp], 1
$LN48@AddToOpen:

; 825  : 				}
; 826  : 				else

	jmp	SHORT $LN1@AddToOpen
$LN3@AddToOpen:

; 827  : 				{
; 828  : 					addnode->m_pNext = m_pOpen;

	mov	eax, DWORD PTR _addnode$[ebp]
	mov	ecx, DWORD PTR _this$[ebp]
	mov	edx, DWORD PTR [ecx+84]
	mov	DWORD PTR [eax+28], edx

; 829  : 					m_pOpen->m_pPrev = addnode;

	mov	eax, DWORD PTR _this$[ebp]
	mov	ecx, DWORD PTR [eax+84]
	mov	edx, DWORD PTR _addnode$[ebp]
	mov	DWORD PTR [ecx+32], edx

; 830  : 					m_pOpen = addnode;

	mov	eax, DWORD PTR _this$[ebp]
	mov	ecx, DWORD PTR _addnode$[ebp]
	mov	DWORD PTR [eax+84], ecx

; 831  : 
; 832  : 					udFunc(udNotifyList, m_pOpen->m_pNext, m_pOpen, ASNL_STARTOPEN, m_pData);

	mov	edx, DWORD PTR _this$[ebp]
	mov	eax, DWORD PTR [edx+44]
	mov	DWORD PTR $T221706[ebp], eax
	mov	ecx, DWORD PTR _this$[ebp]
	mov	edx, DWORD PTR [ecx+84]
	mov	DWORD PTR $T221705[ebp], edx
	mov	eax, DWORD PTR _this$[ebp]
	mov	ecx, DWORD PTR [eax+84]
	mov	edx, DWORD PTR [ecx+28]
	mov	DWORD PTR $T221704[ebp], edx
	mov	eax, DWORD PTR _this$[ebp]
	mov	ecx, DWORD PTR [eax+24]
	mov	DWORD PTR $T221703[ebp], ecx
	cmp	DWORD PTR $T221703[ebp], 0
	je	SHORT $LN54@AddToOpen
	mov	edx, DWORD PTR _this$[ebp]
	push	edx
	mov	eax, DWORD PTR $T221706[ebp]
	push	eax
	push	1
	mov	ecx, DWORD PTR $T221705[ebp]
	push	ecx
	mov	edx, DWORD PTR $T221704[ebp]
	push	edx
	call	DWORD PTR $T221703[ebp]
	add	esp, 20					; 00000014H
	mov	DWORD PTR tv277[ebp], eax
	jmp	SHORT $LN1@AddToOpen
$LN54@AddToOpen:
	mov	DWORD PTR tv277[ebp], 1
$LN1@AddToOpen:

; 833  : 				}
; 834  : 
; 835  : 				return;

	jmp	SHORT $LN22@AddToOpen
$LN4@AddToOpen:

; 836  : 			}
; 837  : 		}

	jmp	$LN7@AddToOpen
$LN6@AddToOpen:

; 838  : 
; 839  : 		// we made it to the end of this list - insert it at the end - we shouldn't ever get here, but...
; 840  : 		prev->m_pNext = addnode;

	mov	eax, DWORD PTR _prev$219094[ebp]
	mov	ecx, DWORD PTR _addnode$[ebp]
	mov	DWORD PTR [eax+28], ecx

; 841  : 		addnode->m_pPrev = prev;

	mov	edx, DWORD PTR _addnode$[ebp]
	mov	eax, DWORD PTR _prev$219094[ebp]
	mov	DWORD PTR [edx+32], eax

; 842  : 		m_pOpenTail = addnode;

	mov	ecx, DWORD PTR _this$[ebp]
	mov	edx, DWORD PTR _addnode$[ebp]
	mov	DWORD PTR [ecx+88], edx

; 843  : 
; 844  : 		udFunc(udNotifyList, prev, addnode, ASNL_ADDOPEN, m_pData);

	mov	eax, DWORD PTR _this$[ebp]
	mov	ecx, DWORD PTR [eax+44]
	mov	DWORD PTR $T221715[ebp], ecx
	mov	edx, DWORD PTR _this$[ebp]
	mov	eax, DWORD PTR [edx+24]
	mov	DWORD PTR $T221714[ebp], eax
	cmp	DWORD PTR $T221714[ebp], 0
	je	SHORT $LN58@AddToOpen
	mov	ecx, DWORD PTR _this$[ebp]
	push	ecx
	mov	edx, DWORD PTR $T221715[ebp]
	push	edx
	push	0
	mov	eax, DWORD PTR _addnode$[ebp]
	push	eax
	mov	ecx, DWORD PTR _prev$219094[ebp]
	push	ecx
	call	DWORD PTR $T221714[ebp]
	add	esp, 20					; 00000014H
	mov	DWORD PTR tv279[ebp], eax
	jmp	SHORT $LN22@AddToOpen
$LN58@AddToOpen:
	mov	DWORD PTR tv279[ebp], 1
$LN22@AddToOpen:

; 845  : 	}
; 846  : }

	mov	esp, ebp
	pop	ebp
	ret	4
?AddToOpen@CvAStar@@QAEXPAVCvAStarNode@@@Z ENDP		; CvAStar::AddToOpen
; Function compile flags: /Odtp
; File c:\program files (x86)\microsoft visual studio 9.0\vc\include\new
_TEXT	ENDS
;	COMDAT ??3@YAXPAX0@Z
_TEXT	SEGMENT
___formal$ = 8						; size = 4
___formal$ = 12						; size = 4
??3@YAXPAX0@Z PROC					; operator delete, COMDAT

; 63   : 	{	// delete if placement new fails

	push	ebp
	mov	ebp, esp

; 64   : 	}

	pop	ebp
	ret	0
??3@YAXPAX0@Z ENDP					; operator delete
; Function compile flags: /Odtp
; File d:\sources\lekmod_git\checkout\lekmod_dll\cvgamecoredll_expansion2\cvastar.cpp
_TEXT	ENDS
;	COMDAT ?UpdateOpenNode@CvAStar@@IAEXPAVCvAStarNode@@@Z
_TEXT	SEGMENT
_this$ = -8						; size = 4
_temp$ = -4						; size = 4
_node$ = 8						; size = 4
?UpdateOpenNode@CvAStar@@IAEXPAVCvAStarNode@@@Z PROC	; CvAStar::UpdateOpenNode, COMDAT
; _this$ = ecx

; 851  : {

	push	ebp
	mov	ebp, esp
	sub	esp, 8
	mov	DWORD PTR _this$[ebp], ecx

; 852  : #ifdef AUI_ASTAR_MINOR_OPTIMIZATION
; 853  : 	CvAStarNode* temp = node->m_pPrev;
; 854  : #else
; 855  : 	CvAStarNode* temp;
; 856  : #endif
; 857  : 
; 858  : 	FAssert(node->m_eCvAStarListType == CVASTARLIST_OPEN);
; 859  : 
; 860  : #ifdef AUI_ASTAR_MINOR_OPTIMIZATION
; 861  : 	if (temp && (node->m_iTotalCost < temp->m_iTotalCost))
; 862  : 	{
; 863  : 		// have node free float for now
; 864  : 		temp->m_pNext = node->m_pNext;
; 865  : 		if (node->m_pNext)
; 866  : 		{
; 867  : 			node->m_pNext->m_pPrev = temp;
; 868  : 		}
; 869  : 		else
; 870  : 		{
; 871  : 			m_pOpenTail = temp;
; 872  : 		}
; 873  : #else
; 874  : 	if((node->m_pPrev != NULL) && (node->m_iTotalCost < node->m_pPrev->m_iTotalCost))

	mov	eax, DWORD PTR _node$[ebp]
	cmp	DWORD PTR [eax+32], 0
	je	$LN10@UpdateOpen
	mov	ecx, DWORD PTR _node$[ebp]
	mov	edx, DWORD PTR [ecx+32]
	mov	eax, DWORD PTR _node$[ebp]
	mov	ecx, DWORD PTR [eax]
	cmp	ecx, DWORD PTR [edx]
	jge	$LN10@UpdateOpen

; 875  : 	{
; 876  : 		// have node free float for now
; 877  : 		node->m_pPrev->m_pNext = node->m_pNext;

	mov	edx, DWORD PTR _node$[ebp]
	mov	eax, DWORD PTR [edx+32]
	mov	ecx, DWORD PTR _node$[ebp]
	mov	edx, DWORD PTR [ecx+28]
	mov	DWORD PTR [eax+28], edx

; 878  : 		if(node->m_pNext)

	mov	eax, DWORD PTR _node$[ebp]
	cmp	DWORD PTR [eax+28], 0
	je	SHORT $LN8@UpdateOpen

; 879  : 		{
; 880  : 			node->m_pNext->m_pPrev = node->m_pPrev;

	mov	ecx, DWORD PTR _node$[ebp]
	mov	edx, DWORD PTR [ecx+28]
	mov	eax, DWORD PTR _node$[ebp]
	mov	ecx, DWORD PTR [eax+32]
	mov	DWORD PTR [edx+32], ecx

; 881  : 		}
; 882  : 		else

	jmp	SHORT $LN7@UpdateOpen
$LN8@UpdateOpen:

; 883  : 		{
; 884  : 			m_pOpenTail = node->m_pPrev;

	mov	edx, DWORD PTR _this$[ebp]
	mov	eax, DWORD PTR _node$[ebp]
	mov	ecx, DWORD PTR [eax+32]
	mov	DWORD PTR [edx+88], ecx
$LN7@UpdateOpen:

; 885  : 		}
; 886  : #endif
; 887  : 		// scoot down the list till we find where node goes (without connecting up as we go)
; 888  : #ifndef AUI_ASTAR_MINOR_OPTIMIZATION
; 889  : 		temp = node->m_pPrev;

	mov	edx, DWORD PTR _node$[ebp]
	mov	eax, DWORD PTR [edx+32]
	mov	DWORD PTR _temp$[ebp], eax
$LN6@UpdateOpen:

; 890  : #endif
; 891  : 		while((temp != NULL) && (node->m_iTotalCost < temp->m_iTotalCost))

	cmp	DWORD PTR _temp$[ebp], 0
	je	SHORT $LN5@UpdateOpen
	mov	ecx, DWORD PTR _node$[ebp]
	mov	edx, DWORD PTR _temp$[ebp]
	mov	eax, DWORD PTR [ecx]
	cmp	eax, DWORD PTR [edx]
	jge	SHORT $LN5@UpdateOpen

; 892  : 		{
; 893  : 			temp = temp->m_pPrev;

	mov	ecx, DWORD PTR _temp$[ebp]
	mov	edx, DWORD PTR [ecx+32]
	mov	DWORD PTR _temp$[ebp], edx

; 894  : 		}

	jmp	SHORT $LN6@UpdateOpen
$LN5@UpdateOpen:

; 895  : 		// connect node up
; 896  : 		if(temp != NULL)

	cmp	DWORD PTR _temp$[ebp], 0
	je	SHORT $LN4@UpdateOpen

; 897  : 		{
; 898  : 			node->m_pNext = temp->m_pNext;

	mov	eax, DWORD PTR _node$[ebp]
	mov	ecx, DWORD PTR _temp$[ebp]
	mov	edx, DWORD PTR [ecx+28]
	mov	DWORD PTR [eax+28], edx

; 899  : 			node->m_pPrev = temp;

	mov	eax, DWORD PTR _node$[ebp]
	mov	ecx, DWORD PTR _temp$[ebp]
	mov	DWORD PTR [eax+32], ecx

; 900  : 			if(temp->m_pNext)

	mov	edx, DWORD PTR _temp$[ebp]
	cmp	DWORD PTR [edx+28], 0
	je	SHORT $LN3@UpdateOpen

; 901  : 			{
; 902  : 				temp->m_pNext->m_pPrev = node;

	mov	eax, DWORD PTR _temp$[ebp]
	mov	ecx, DWORD PTR [eax+28]
	mov	edx, DWORD PTR _node$[ebp]
	mov	DWORD PTR [ecx+32], edx
$LN3@UpdateOpen:

; 903  : 			}
; 904  : 			temp->m_pNext = node;

	mov	eax, DWORD PTR _temp$[ebp]
	mov	ecx, DWORD PTR _node$[ebp]
	mov	DWORD PTR [eax+28], ecx

; 905  : 		}
; 906  : 		else

	jmp	SHORT $LN10@UpdateOpen
$LN4@UpdateOpen:

; 907  : 		{
; 908  : 			node->m_pNext = m_pOpen;

	mov	edx, DWORD PTR _node$[ebp]
	mov	eax, DWORD PTR _this$[ebp]
	mov	ecx, DWORD PTR [eax+84]
	mov	DWORD PTR [edx+28], ecx

; 909  : 			node->m_pPrev = NULL;

	mov	edx, DWORD PTR _node$[ebp]
	mov	DWORD PTR [edx+32], 0

; 910  : 			if(node->m_pNext)

	mov	eax, DWORD PTR _node$[ebp]
	cmp	DWORD PTR [eax+28], 0
	je	SHORT $LN1@UpdateOpen

; 911  : 			{
; 912  : 				node->m_pNext->m_pPrev = node;

	mov	ecx, DWORD PTR _node$[ebp]
	mov	edx, DWORD PTR [ecx+28]
	mov	eax, DWORD PTR _node$[ebp]
	mov	DWORD PTR [edx+32], eax
$LN1@UpdateOpen:

; 913  : 			}
; 914  : 			m_pOpen = node;

	mov	ecx, DWORD PTR _this$[ebp]
	mov	edx, DWORD PTR _node$[ebp]
	mov	DWORD PTR [ecx+84], edx
$LN10@UpdateOpen:

; 915  : 		}
; 916  : 	}
; 917  : }

	mov	esp, ebp
	pop	ebp
	ret	4
?UpdateOpenNode@CvAStar@@IAEXPAVCvAStarNode@@@Z ENDP	; CvAStar::UpdateOpenNode
_TEXT	ENDS
PUBLIC	?Pop@CvAStar@@IAEPAVCvAStarNode@@XZ		; CvAStar::Pop
PUBLIC	?Push@CvAStar@@IAEXPAVCvAStarNode@@@Z		; CvAStar::Push
; Function compile flags: /Odtp
;	COMDAT ?UpdateParents@CvAStar@@IAEXPAVCvAStarNode@@@Z
_TEXT	SEGMENT
tv152 = -48						; size = 4
tv150 = -44						; size = 4
_this$ = -40						; size = 4
$T221742 = -36						; size = 4
$T221741 = -32						; size = 4
$T221733 = -28						; size = 4
$T221732 = -24						; size = 4
_iNumChildren$ = -20					; size = 4
_kid$ = -16						; size = 4
_parent$ = -12						; size = 4
_i$ = -8						; size = 4
_iKnownCost$ = -4					; size = 4
_node$ = 8						; size = 4
?UpdateParents@CvAStar@@IAEXPAVCvAStarNode@@@Z PROC	; CvAStar::UpdateParents, COMDAT
; _this$ = ecx

; 922  : {

	push	ebp
	mov	ebp, esp
	sub	esp, 48					; 00000030H
	mov	DWORD PTR _this$[ebp], ecx

; 923  : 	CvAStarNode* kid;
; 924  : #ifndef AUI_ASTAR_MINOR_OPTIMIZATION
; 925  : 	CvAStarNode* parent;
; 926  : #endif
; 927  : 	int iKnownCost;
; 928  : 	int iNumChildren;
; 929  : 	int i;
; 930  : 
; 931  : 	FAssert(m_pStackHead == NULL);
; 932  : 
; 933  : #ifdef AUI_ASTAR_MINOR_OPTIMIZATION
; 934  : 	CvAStarNode* parent = node;
; 935  : #else
; 936  : 	parent = node;

	mov	eax, DWORD PTR _node$[ebp]
	mov	DWORD PTR _parent$[ebp], eax
$LN7@UpdatePare:

; 937  : #endif
; 938  : 
; 939  : 	while(parent != NULL)

	cmp	DWORD PTR _parent$[ebp], 0
	je	$LN8@UpdatePare

; 940  : 	{
; 941  : #ifdef AUI_ASTAR_MINOR_OPTIMIZATION
; 942  : 		iNumChildren = parent->m_apChildren.size();
; 943  : #else
; 944  : 		iNumChildren = parent->m_iNumChildren;

	mov	ecx, DWORD PTR _parent$[ebp]
	movsx	edx, WORD PTR [ecx+84]
	mov	DWORD PTR _iNumChildren$[ebp], edx

; 945  : #endif
; 946  : 
; 947  : 		for(i = 0; i < iNumChildren; i++)

	mov	DWORD PTR _i$[ebp], 0
	jmp	SHORT $LN5@UpdatePare
$LN4@UpdatePare:
	mov	eax, DWORD PTR _i$[ebp]
	add	eax, 1
	mov	DWORD PTR _i$[ebp], eax
$LN5@UpdatePare:
	mov	ecx, DWORD PTR _i$[ebp]
	cmp	ecx, DWORD PTR _iNumChildren$[ebp]
	jge	$LN3@UpdatePare

; 948  : 		{
; 949  : 			kid = parent->m_apChildren[i];

	mov	edx, DWORD PTR _parent$[ebp]
	mov	eax, DWORD PTR [edx+40]
	mov	ecx, DWORD PTR _i$[ebp]
	mov	edx, DWORD PTR [eax+ecx*4]
	mov	DWORD PTR _kid$[ebp], edx

; 950  : 
; 951  : 			iKnownCost = (parent->m_iKnownCost + udFunc(udCost, parent, kid, 0, m_pData));

	mov	eax, DWORD PTR _this$[ebp]
	mov	ecx, DWORD PTR [eax+44]
	mov	DWORD PTR $T221733[ebp], ecx
	mov	edx, DWORD PTR _this$[ebp]
	mov	eax, DWORD PTR [edx+12]
	mov	DWORD PTR $T221732[ebp], eax
	cmp	DWORD PTR $T221732[ebp], 0
	je	SHORT $LN14@UpdatePare
	mov	ecx, DWORD PTR _this$[ebp]
	push	ecx
	mov	edx, DWORD PTR $T221733[ebp]
	push	edx
	push	0
	mov	eax, DWORD PTR _kid$[ebp]
	push	eax
	mov	ecx, DWORD PTR _parent$[ebp]
	push	ecx
	call	DWORD PTR $T221732[ebp]
	add	esp, 20					; 00000014H
	mov	DWORD PTR tv150[ebp], eax
	jmp	SHORT $LN12@UpdatePare
$LN14@UpdatePare:
	mov	DWORD PTR tv150[ebp], 1
$LN12@UpdatePare:
	mov	edx, DWORD PTR _parent$[ebp]
	mov	eax, DWORD PTR [edx+4]
	add	eax, DWORD PTR tv150[ebp]
	mov	DWORD PTR _iKnownCost$[ebp], eax

; 952  : 
; 953  : 			if(iKnownCost < kid->m_iKnownCost)

	mov	ecx, DWORD PTR _kid$[ebp]
	mov	edx, DWORD PTR _iKnownCost$[ebp]
	cmp	edx, DWORD PTR [ecx+4]
	jge	$LN2@UpdatePare

; 954  : 			{
; 955  : 				kid->m_iKnownCost = iKnownCost;

	mov	eax, DWORD PTR _kid$[ebp]
	mov	ecx, DWORD PTR _iKnownCost$[ebp]
	mov	DWORD PTR [eax+4], ecx

; 956  : 				kid->m_iTotalCost = kid->m_iKnownCost + kid->m_iHeuristicCost;

	mov	edx, DWORD PTR _kid$[ebp]
	mov	eax, DWORD PTR [edx+4]
	mov	ecx, DWORD PTR _kid$[ebp]
	add	eax, DWORD PTR [ecx+8]
	mov	edx, DWORD PTR _kid$[ebp]
	mov	DWORD PTR [edx], eax

; 957  : 				FAssert(parent->m_pParent != kid);
; 958  : 				kid->m_pParent = parent;

	mov	eax, DWORD PTR _kid$[ebp]
	mov	ecx, DWORD PTR _parent$[ebp]
	mov	DWORD PTR [eax+24], ecx

; 959  : 				if(kid->m_eCvAStarListType == CVASTARLIST_OPEN)

	mov	edx, DWORD PTR _kid$[ebp]
	cmp	DWORD PTR [edx+20], 0
	jne	SHORT $LN1@UpdatePare

; 960  : 				{
; 961  : 					UpdateOpenNode(kid);

	mov	eax, DWORD PTR _kid$[ebp]
	push	eax
	mov	ecx, DWORD PTR _this$[ebp]
	call	?UpdateOpenNode@CvAStar@@IAEXPAVCvAStarNode@@@Z ; CvAStar::UpdateOpenNode
$LN1@UpdatePare:

; 962  : 				}
; 963  : #ifdef AUI_ASTAR_MINOR_OPTIMIZATION
; 964  : 				else
; 965  : 				{
; 966  : 					Push(kid); // Kid cannot be a parent if it's in the open list, since adding children goes through GetBest(), which adds the node to the closed list
; 967  : 				}
; 968  : #endif
; 969  : 				udFunc(udNotifyChild, parent, kid, ASNC_PARENTADD_UP, m_pData);

	mov	ecx, DWORD PTR _this$[ebp]
	mov	edx, DWORD PTR [ecx+44]
	mov	DWORD PTR $T221742[ebp], edx
	mov	eax, DWORD PTR _this$[ebp]
	mov	ecx, DWORD PTR [eax+20]
	mov	DWORD PTR $T221741[ebp], ecx
	cmp	DWORD PTR $T221741[ebp], 0
	je	SHORT $LN18@UpdatePare
	mov	edx, DWORD PTR _this$[ebp]
	push	edx
	mov	eax, DWORD PTR $T221742[ebp]
	push	eax
	push	3
	mov	ecx, DWORD PTR _kid$[ebp]
	push	ecx
	mov	edx, DWORD PTR _parent$[ebp]
	push	edx
	call	DWORD PTR $T221741[ebp]
	add	esp, 20					; 00000014H
	mov	DWORD PTR tv152[ebp], eax
	jmp	SHORT $LN16@UpdatePare
$LN18@UpdatePare:
	mov	DWORD PTR tv152[ebp], 1
$LN16@UpdatePare:

; 970  : 
; 971  : #ifndef AUI_ASTAR_MINOR_OPTIMIZATION
; 972  : 				Push(kid);

	mov	eax, DWORD PTR _kid$[ebp]
	push	eax
	mov	ecx, DWORD PTR _this$[ebp]
	call	?Push@CvAStar@@IAEXPAVCvAStarNode@@@Z	; CvAStar::Push
$LN2@UpdatePare:

; 973  : #endif
; 974  : 			}
; 975  : 		}

	jmp	$LN4@UpdatePare
$LN3@UpdatePare:

; 976  : 
; 977  : 		parent = Pop();

	mov	ecx, DWORD PTR _this$[ebp]
	call	?Pop@CvAStar@@IAEPAVCvAStarNode@@XZ	; CvAStar::Pop
	mov	DWORD PTR _parent$[ebp], eax

; 978  : 	}

	jmp	$LN7@UpdatePare
$LN8@UpdatePare:

; 979  : }

	mov	esp, ebp
	pop	ebp
	ret	4
?UpdateParents@CvAStar@@IAEXPAVCvAStarNode@@@Z ENDP	; CvAStar::UpdateParents
; Function compile flags: /Odtp
_TEXT	ENDS
;	COMDAT ?Push@CvAStar@@IAEXPAVCvAStarNode@@@Z
_TEXT	SEGMENT
_this$ = -4						; size = 4
_node$ = 8						; size = 4
?Push@CvAStar@@IAEXPAVCvAStarNode@@@Z PROC		; CvAStar::Push, COMDAT
; _this$ = ecx

; 984  : {

	push	ebp
	mov	ebp, esp
	push	ecx
	mov	DWORD PTR _this$[ebp], ecx

; 985  : 	if(node->m_bOnStack)

	mov	eax, DWORD PTR _node$[ebp]
	movzx	ecx, BYTE PTR [eax+86]
	test	ecx, ecx
	je	SHORT $LN3@Push

; 986  : 	{
; 987  : 		return;

	jmp	SHORT $LN4@Push
$LN3@Push:

; 988  : 	}
; 989  : 
; 990  : #ifndef AUI_ASTAR_MINOR_OPTIMIZATION
; 991  : 	if(m_pStackHead == NULL)

	mov	edx, DWORD PTR _this$[ebp]
	cmp	DWORD PTR [edx+100], 0
	jne	SHORT $LN2@Push

; 992  : 	{
; 993  : 		m_pStackHead = &(m_ppaaNodes[node->m_iX][node->m_iY]);

	mov	eax, DWORD PTR _node$[ebp]
	movsx	ecx, WORD PTR [eax+80]
	mov	edx, DWORD PTR _this$[ebp]
	mov	eax, DWORD PTR [edx+104]
	mov	edx, DWORD PTR _node$[ebp]
	movsx	edx, WORD PTR [edx+82]
	imul	edx, 96					; 00000060H
	add	edx, DWORD PTR [eax+ecx*4]
	mov	eax, DWORD PTR _this$[ebp]
	mov	DWORD PTR [eax+100], edx

; 994  : 	}
; 995  : 	else

	jmp	SHORT $LN1@Push
$LN2@Push:

; 996  : #endif
; 997  : 	{
; 998  : 		FAssert(node->m_pStack == NULL);
; 999  : 		node->m_pStack = m_pStackHead;

	mov	ecx, DWORD PTR _node$[ebp]
	mov	edx, DWORD PTR _this$[ebp]
	mov	eax, DWORD PTR [edx+100]
	mov	DWORD PTR [ecx+36], eax

; 1000 : 		m_pStackHead = node;

	mov	ecx, DWORD PTR _this$[ebp]
	mov	edx, DWORD PTR _node$[ebp]
	mov	DWORD PTR [ecx+100], edx
$LN1@Push:

; 1001 : 	}
; 1002 : 
; 1003 : 	node->m_bOnStack = true;

	mov	eax, DWORD PTR _node$[ebp]
	mov	BYTE PTR [eax+86], 1
$LN4@Push:

; 1004 : }

	mov	esp, ebp
	pop	ebp
	ret	4
?Push@CvAStar@@IAEXPAVCvAStarNode@@@Z ENDP		; CvAStar::Push
; Function compile flags: /Odtp
_TEXT	ENDS
;	COMDAT ?Pop@CvAStar@@IAEPAVCvAStarNode@@XZ
_TEXT	SEGMENT
_this$ = -8						; size = 4
_node$ = -4						; size = 4
?Pop@CvAStar@@IAEPAVCvAStarNode@@XZ PROC		; CvAStar::Pop, COMDAT
; _this$ = ecx

; 1009 : {

	push	ebp
	mov	ebp, esp
	sub	esp, 8
	mov	DWORD PTR _this$[ebp], ecx

; 1010 : #ifndef AUI_ASTAR_MINOR_OPTIMIZATION
; 1011 : 	CvAStarNode* node;
; 1012 : #endif
; 1013 : 
; 1014 : 	if(m_pStackHead == NULL)

	mov	eax, DWORD PTR _this$[ebp]
	cmp	DWORD PTR [eax+100], 0
	jne	SHORT $LN1@Pop

; 1015 : 	{
; 1016 : 		return NULL;

	xor	eax, eax
	jmp	SHORT $LN2@Pop
$LN1@Pop:

; 1017 : 	}
; 1018 : 
; 1019 : #ifdef AUI_ASTAR_MINOR_OPTIMIZATION
; 1020 : 	CvAStarNode* node = m_pStackHead;
; 1021 : #else
; 1022 : 	node = m_pStackHead;

	mov	ecx, DWORD PTR _this$[ebp]
	mov	edx, DWORD PTR [ecx+100]
	mov	DWORD PTR _node$[ebp], edx

; 1023 : #endif
; 1024 : 	m_pStackHead = m_pStackHead->m_pStack;

	mov	eax, DWORD PTR _this$[ebp]
	mov	ecx, DWORD PTR [eax+100]
	mov	edx, DWORD PTR _this$[ebp]
	mov	eax, DWORD PTR [ecx+36]
	mov	DWORD PTR [edx+100], eax

; 1025 : 	node->m_pStack = NULL;

	mov	ecx, DWORD PTR _node$[ebp]
	mov	DWORD PTR [ecx+36], 0

; 1026 : 
; 1027 : 	node->m_bOnStack = false;

	mov	edx, DWORD PTR _node$[ebp]
	mov	BYTE PTR [edx+86], 0

; 1028 : 
; 1029 : 	return node;

	mov	eax, DWORD PTR _node$[ebp]
$LN2@Pop:

; 1030 : }

	mov	esp, ebp
	pop	ebp
	ret	0
?Pop@CvAStar@@IAEPAVCvAStarNode@@XZ ENDP		; CvAStar::Pop
_TEXT	ENDS
PUBLIC	?UnitPathInitialize@@YAXPBXPAVCvAStar@@@Z	; UnitPathInitialize
EXTRN	?IsCanAttack@CvUnit@@QBE_NXZ:PROC		; CvUnit::IsCanAttack
EXTRN	?CanEverEmbark@CvUnit@@QBE_NXZ:PROC		; CvUnit::CanEverEmbark
EXTRN	?isNoRevealMap@CvUnit@@QBE_NXZ:PROC		; CvUnit::isNoRevealMap
EXTRN	?IsImmobile@CvUnit@@QBE_NXZ:PROC		; CvUnit::IsImmobile
EXTRN	?IsAutomated@CvUnit@@QBE_NXZ:PROC		; CvUnit::IsAutomated
EXTRN	?isHuman@CvUnit@@QBE_NXZ:PROC			; CvUnit::isHuman
EXTRN	?getDomainType@CvUnit@@QBE?AW4DomainTypes@@XZ:PROC ; CvUnit::getDomainType
EXTRN	?getTeam@CvUnit@@QBE?AW4TeamTypes@@XZ:PROC	; CvUnit::getTeam
EXTRN	?maxMoves@CvUnit@@QBEHXZ:PROC			; CvUnit::maxMoves
EXTRN	?baseMoves@CvUnit@@QBEHW4DomainTypes@@@Z:PROC	; CvUnit::baseMoves
; Function compile flags: /Odtp
;	COMDAT ?UnitPathInitialize@@YAXPBXPAVCvAStar@@@Z
_TEXT	SEGMENT
$T221769 = -17						; size = 1
$T221760 = -16						; size = 4
_i$219211 = -12						; size = 4
_pUnit$ = -8						; size = 4
_pCacheData$ = -4					; size = 4
_pointer$ = 8						; size = 4
_finder$ = 12						; size = 4
?UnitPathInitialize@@YAXPBXPAVCvAStar@@@Z PROC		; UnitPathInitialize, COMDAT

; 1072 : {

	push	ebp
	mov	ebp, esp
	sub	esp, 20					; 00000014H

; 1073 : 	CvUnit* pUnit = ((CvUnit*)pointer);

	mov	eax, DWORD PTR _pointer$[ebp]
	mov	DWORD PTR _pUnit$[ebp], eax

; 1074 : 
; 1075 : 	UnitPathCacheData* pCacheData = reinterpret_cast<UnitPathCacheData*>(finder->GetScratchBuffer());

	mov	ecx, DWORD PTR _finder$[ebp]
	add	ecx, 116				; 00000074H
	mov	DWORD PTR _pCacheData$[ebp], ecx

; 1076 : 
; 1077 : 	for (int i = 0; i < NUM_DOMAIN_TYPES; ++i)

	mov	DWORD PTR _i$219211[ebp], 0
	jmp	SHORT $LN3@UnitPathIn
$LN2@UnitPathIn:
	mov	edx, DWORD PTR _i$219211[ebp]
	add	edx, 1
	mov	DWORD PTR _i$219211[ebp], edx
$LN3@UnitPathIn:
	cmp	DWORD PTR _i$219211[ebp], 5
	jge	SHORT $LN1@UnitPathIn

; 1078 : 	{
; 1079 : 		pCacheData->m_aBaseMoves[i] = pUnit->baseMoves((DomainTypes)i);

	mov	eax, DWORD PTR _i$219211[ebp]
	push	eax
	mov	ecx, DWORD PTR _pUnit$[ebp]
	call	?baseMoves@CvUnit@@QBEHW4DomainTypes@@@Z ; CvUnit::baseMoves
	mov	ecx, DWORD PTR _i$219211[ebp]
	mov	edx, DWORD PTR _pCacheData$[ebp]
	mov	DWORD PTR [edx+ecx*4], eax

; 1080 : 	}

	jmp	SHORT $LN2@UnitPathIn
$LN1@UnitPathIn:

; 1081 : 
; 1082 : 	pCacheData->m_iMaxMoves = pUnit->maxMoves();

	mov	ecx, DWORD PTR _pUnit$[ebp]
	call	?maxMoves@CvUnit@@QBEHXZ		; CvUnit::maxMoves
	mov	ecx, DWORD PTR _pCacheData$[ebp]
	mov	DWORD PTR [ecx+20], eax

; 1083 : 
; 1084 : 	pCacheData->m_ePlayerID = pUnit->getOwner();

	mov	edx, DWORD PTR _pUnit$[ebp]
	mov	eax, DWORD PTR [edx+40]
	mov	DWORD PTR $T221760[ebp], eax
	mov	ecx, DWORD PTR _pCacheData$[ebp]
	mov	edx, DWORD PTR $T221760[ebp]
	mov	DWORD PTR [ecx+24], edx

; 1085 : 	pCacheData->m_eTeamID = pUnit->getTeam();

	mov	ecx, DWORD PTR _pUnit$[ebp]
	call	?getTeam@CvUnit@@QBE?AW4TeamTypes@@XZ	; CvUnit::getTeam
	mov	ecx, DWORD PTR _pCacheData$[ebp]
	mov	DWORD PTR [ecx+28], eax

; 1086 : 	pCacheData->m_eDomainType = pUnit->getDomainType();

	mov	ecx, DWORD PTR _pUnit$[ebp]
	call	?getDomainType@CvUnit@@QBE?AW4DomainTypes@@XZ ; CvUnit::getDomainType
	mov	edx, DWORD PTR _pCacheData$[ebp]
	mov	DWORD PTR [edx+32], eax

; 1087 : 	pCacheData->m_bIsHuman = pUnit->isHuman();

	mov	ecx, DWORD PTR _pUnit$[ebp]
	call	?isHuman@CvUnit@@QBE_NXZ		; CvUnit::isHuman
	mov	ecx, DWORD PTR _pCacheData$[ebp]
	mov	BYTE PTR [ecx+36], al

; 1088 : 	pCacheData->m_bIsAutomated = pUnit->IsAutomated();

	mov	ecx, DWORD PTR _pUnit$[ebp]
	call	?IsAutomated@CvUnit@@QBE_NXZ		; CvUnit::IsAutomated
	mov	edx, DWORD PTR _pCacheData$[ebp]
	mov	BYTE PTR [edx+37], al

; 1089 : 	pCacheData->m_bIsImmobile = pUnit->IsImmobile();

	mov	ecx, DWORD PTR _pUnit$[ebp]
	call	?IsImmobile@CvUnit@@QBE_NXZ		; CvUnit::IsImmobile
	mov	ecx, DWORD PTR _pCacheData$[ebp]
	mov	BYTE PTR [ecx+38], al

; 1090 : 	pCacheData->m_bIsNoRevealMap = pUnit->isNoRevealMap();

	mov	ecx, DWORD PTR _pUnit$[ebp]
	call	?isNoRevealMap@CvUnit@@QBE_NXZ		; CvUnit::isNoRevealMap
	mov	edx, DWORD PTR _pCacheData$[ebp]
	mov	BYTE PTR [edx+39], al

; 1091 : 	pCacheData->m_bCanEverEmbark = pUnit->CanEverEmbark();

	mov	ecx, DWORD PTR _pUnit$[ebp]
	call	?CanEverEmbark@CvUnit@@QBE_NXZ		; CvUnit::CanEverEmbark
	mov	ecx, DWORD PTR _pCacheData$[ebp]
	mov	BYTE PTR [ecx+40], al

; 1092 : 	pCacheData->m_bIsEmbarked = pUnit->isEmbarked();

	mov	edx, DWORD PTR _pUnit$[ebp]
	mov	al, BYTE PTR [edx+1652]
	mov	BYTE PTR $T221769[ebp], al
	mov	ecx, DWORD PTR _pCacheData$[ebp]
	mov	dl, BYTE PTR $T221769[ebp]
	mov	BYTE PTR [ecx+41], dl

; 1093 : 	pCacheData->m_bCanAttack = pUnit->IsCanAttack();

	mov	ecx, DWORD PTR _pUnit$[ebp]
	call	?IsCanAttack@CvUnit@@QBE_NXZ		; CvUnit::IsCanAttack
	mov	ecx, DWORD PTR _pCacheData$[ebp]
	mov	BYTE PTR [ecx+42], al

; 1094 : #ifdef AUI_ASTAR_FIX_CONSIDER_DANGER_USES_COMBAT_STRENGTH
; 1095 : 	pCacheData->m_iBaseCombatStrengthConsideringDamage = 0;
; 1096 : 	if (!pCacheData->m_bIsHuman || pCacheData->m_bIsAutomated)
; 1097 : 		pCacheData->m_iBaseCombatStrengthConsideringDamage = pUnit->GetBaseCombatStrengthConsideringDamage();
; 1098 : #endif
; 1099 : }

	mov	esp, ebp
	pop	ebp
	ret	0
?UnitPathInitialize@@YAXPBXPAVCvAStar@@@Z ENDP		; UnitPathInitialize
_TEXT	ENDS
PUBLIC	?UnitPathUninitialize@@YAXPBXPAVCvAStar@@@Z	; UnitPathUninitialize
; Function compile flags: /Odtp
;	COMDAT ?UnitPathUninitialize@@YAXPBXPAVCvAStar@@@Z
_TEXT	SEGMENT
_pointer$ = 8						; size = 4
_finder$ = 12						; size = 4
?UnitPathUninitialize@@YAXPBXPAVCvAStar@@@Z PROC	; UnitPathUninitialize, COMDAT

; 1103 : {

	push	ebp
	mov	ebp, esp

; 1104 : 
; 1105 : }

	pop	ebp
	ret	0
?UnitPathUninitialize@@YAXPBXPAVCvAStar@@@Z ENDP	; UnitPathUninitialize
_TEXT	ENDS
PUBLIC	?PathDest@@YAHHHPBXPAVCvAStar@@@Z		; PathDest
; Function compile flags: /Odtp
;	COMDAT ?PathDest@@YAHHHPBXPAVCvAStar@@@Z
_TEXT	SEGMENT
$T221781 = -8						; size = 4
$T221777 = -4						; size = 4
_iToX$ = 8						; size = 4
_iToY$ = 12						; size = 4
_pointer$ = 16						; size = 4
_finder$ = 20						; size = 4
?PathDest@@YAHHHPBXPAVCvAStar@@@Z PROC			; PathDest, COMDAT

; 1113 : {

	push	ebp
	mov	ebp, esp
	sub	esp, 8

; 1114 : 	if(iToX == finder->GetDestX() && iToY == finder->GetDestY())

	mov	eax, DWORD PTR _finder$[ebp]
	mov	ecx, DWORD PTR [eax+64]
	mov	DWORD PTR $T221777[ebp], ecx
	mov	edx, DWORD PTR _iToX$[ebp]
	cmp	edx, DWORD PTR $T221777[ebp]
	jne	SHORT $LN2@PathDest
	mov	eax, DWORD PTR _finder$[ebp]
	mov	ecx, DWORD PTR [eax+68]
	mov	DWORD PTR $T221781[ebp], ecx
	mov	edx, DWORD PTR _iToY$[ebp]
	cmp	edx, DWORD PTR $T221781[ebp]
	jne	SHORT $LN2@PathDest

; 1115 : 	{
; 1116 : #ifdef AUI_WARNING_FIXES
; 1117 : 		return TRUE;
; 1118 : #else
; 1119 : 		return true;

	mov	eax, 1
	jmp	SHORT $LN3@PathDest

; 1120 : #endif
; 1121 : 	}
; 1122 : 	else

	jmp	SHORT $LN3@PathDest
$LN2@PathDest:

; 1123 : 	{
; 1124 : #ifdef AUI_WARNING_FIXES
; 1125 : 		return FALSE;
; 1126 : #else
; 1127 : 		return false;

	xor	eax, eax
$LN3@PathDest:

; 1128 : #endif
; 1129 : 	}
; 1130 : }

	mov	esp, ebp
	pop	ebp
	ret	0
?PathDest@@YAHHHPBXPAVCvAStar@@@Z ENDP			; PathDest
_TEXT	ENDS
PUBLIC	?getPlotCity@CvPlot@@QBEPAVCvCity@@XZ		; CvPlot::getPlotCity
PUBLIC	?PathDestValid@@YAHHHPBXPAVCvAStar@@@Z		; PathDestValid
EXTRN	?canMoveOrAttackInto@CvUnit@@QBE_NABVCvPlot@@E@Z:PROC ; CvUnit::canMoveOrAttackInto
EXTRN	?IsDeclareWar@CvUnit@@QBE_NXZ:PROC		; CvUnit::IsDeclareWar
EXTRN	?isAtWar@CvTeam@@QBE_NW4TeamTypes@@@Z:PROC	; CvTeam::isAtWar
EXTRN	?getTeam@CvCity@@QBE?AW4TeamTypes@@XZ:PROC	; CvCity::getTeam
EXTRN	?m_aTeams@CvTeam@@1PAV1@A:DWORD			; CvTeam::m_aTeams
EXTRN	?IsAllowsWalkWater@CvPlot@@QBE_NXZ:PROC		; CvPlot::IsAllowsWalkWater
EXTRN	?plot@CvUnit@@QBEPAVCvPlot@@XZ:PROC		; CvUnit::plot
; Function compile flags: /Odtp
;	COMDAT ?PathDestValid@@YAHHHPBXPAVCvAStar@@@Z
_TEXT	SEGMENT
$T221870 = -84						; size = 4
$T221866 = -80						; size = 4
$T221862 = -76						; size = 4
$T221858 = -72						; size = 4
$T221854 = -68						; size = 4
$T221845 = -64						; size = 4
$T221836 = -53						; size = 1
_uiOffset$221831 = -52					; size = 4
$T221816 = -48						; size = 4
$T221812 = -41						; size = 1
$T221793 = -40						; size = 4
$T221787 = -36						; size = 4
_bMoveFlags$219254 = -29				; size = 1
_pCity$219250 = -28					; size = 4
_pUnit$ = -24						; size = 4
_pCacheData$ = -16					; size = 4
_eTeam$ = -12						; size = 4
_pToPlot$ = -8						; size = 4
_bToPlotRevealed$ = -1					; size = 1
_iToX$ = 8						; size = 4
_iToY$ = 12						; size = 4
_pointer$ = 16						; size = 4
_finder$ = 20						; size = 4
?PathDestValid@@YAHHHPBXPAVCvAStar@@@Z PROC		; PathDestValid, COMDAT

; 1140 : {

	push	ebp
	mov	ebp, esp
	sub	esp, 84					; 00000054H

; 1141 : #ifdef AUI_ASTAR_MINOR_OPTIMIZATION
; 1142 : 	CvPlot* pToPlot = GC.getMap().plotCheckInvalid(iToX, iToY);
; 1143 : #else
; 1144 : 	CvUnit* pUnit;
; 1145 : 	CvPlot* pToPlot;
; 1146 : 	bool bAIControl;
; 1147 : 
; 1148 : 	pToPlot = GC.getMap().plotCheckInvalid(iToX, iToY);

	mov	eax, DWORD PTR ?gGlobals@@3VCvGlobals@@A+52
	mov	DWORD PTR $T221787[ebp], eax
	cmp	DWORD PTR _iToX$[ebp], -2147483647	; 80000001H
	je	SHORT $LN20@PathDestVa
	cmp	DWORD PTR _iToY$[ebp], -2147483647	; 80000001H
	jne	SHORT $LN21@PathDestVa
$LN20@PathDestVa:
	mov	DWORD PTR _pToPlot$[ebp], 0
	jmp	SHORT $LN22@PathDestVa
$LN21@PathDestVa:
	mov	ecx, DWORD PTR $T221787[ebp]
	mov	edx, DWORD PTR [ecx+4020]
	mov	DWORD PTR $T221793[ebp], edx
	mov	eax, DWORD PTR _iToY$[ebp]
	imul	eax, DWORD PTR $T221793[ebp]
	add	eax, DWORD PTR _iToX$[ebp]
	imul	eax, 484				; 000001e4H
	mov	ecx, DWORD PTR $T221787[ebp]
	add	eax, DWORD PTR [ecx+4068]
	mov	DWORD PTR _pToPlot$[ebp], eax
$LN22@PathDestVa:

; 1149 : #endif
; 1150 : 	FAssert(pToPlot != NULL);
; 1151 : 
; 1152 : #ifdef AUI_ASTAR_MINOR_OPTIMIZATION
; 1153 : 	CvUnit* pUnit = (CvUnit*)pointer;
; 1154 : #else
; 1155 : 	pUnit = ((CvUnit*)pointer);

	mov	edx, DWORD PTR _pointer$[ebp]
	mov	DWORD PTR _pUnit$[ebp], edx

; 1156 : #endif
; 1157 : 	const UnitPathCacheData* pCacheData = reinterpret_cast<const UnitPathCacheData*>(finder->GetScratchBuffer());

	mov	eax, DWORD PTR _finder$[ebp]
	add	eax, 116				; 00000074H
	mov	DWORD PTR _pCacheData$[ebp], eax

; 1158 : 
; 1159 : 	if(pToPlot == NULL || pUnit == NULL)

	cmp	DWORD PTR _pToPlot$[ebp], 0
	je	SHORT $LN14@PathDestVa
	cmp	DWORD PTR _pUnit$[ebp], 0
	jne	SHORT $LN15@PathDestVa
$LN14@PathDestVa:

; 1160 : 		return FALSE;

	xor	eax, eax
	jmp	$LN16@PathDestVa
$LN15@PathDestVa:

; 1161 : 
; 1162 : 	if(pUnit->plot() == pToPlot)

	mov	ecx, DWORD PTR _pUnit$[ebp]
	call	?plot@CvUnit@@QBEPAVCvPlot@@XZ		; CvUnit::plot
	cmp	eax, DWORD PTR _pToPlot$[ebp]
	jne	SHORT $LN13@PathDestVa

; 1163 : 	{
; 1164 : 		return TRUE;

	mov	eax, 1
	jmp	$LN16@PathDestVa
$LN13@PathDestVa:

; 1165 : 	}
; 1166 : 
; 1167 : #ifndef ASTAR_AI_CONTROL_FIX_RADAR
; 1168 : 	if(pToPlot->isMountain() && (!pCacheData->isHuman() || pCacheData->IsAutomated()))
; 1169 : 	{
; 1170 : 		return FALSE;
; 1171 : 	}
; 1172 : #endif
; 1173 : 
; 1174 : 	if(pCacheData->IsImmobile())

	mov	ecx, DWORD PTR _pCacheData$[ebp]
	mov	dl, BYTE PTR [ecx+38]
	mov	BYTE PTR $T221812[ebp], dl
	movzx	eax, BYTE PTR $T221812[ebp]
	test	eax, eax
	je	SHORT $LN12@PathDestVa

; 1175 : 	{
; 1176 : 		return FALSE;

	xor	eax, eax
	jmp	$LN16@PathDestVa
$LN12@PathDestVa:

; 1177 : 	}
; 1178 : 
; 1179 : 	if ((finder->GetInfo() & CvUnit::MOVEFLAG_STAY_ON_LAND) && (pToPlot->isWater() && !pToPlot->IsAllowsWalkWater()))

	mov	ecx, DWORD PTR _finder$[ebp]
	mov	edx, DWORD PTR [ecx+72]
	mov	DWORD PTR $T221816[ebp], edx
	mov	eax, DWORD PTR $T221816[ebp]
	and	eax, 256				; 00000100H
	je	SHORT $LN11@PathDestVa
	mov	ecx, DWORD PTR _pToPlot$[ebp]
	movsx	edx, BYTE PTR [ecx+5]
	xor	eax, eax
	cmp	edx, 3
	sete	al
	movzx	ecx, al
	test	ecx, ecx
	je	SHORT $LN11@PathDestVa
	mov	ecx, DWORD PTR _pToPlot$[ebp]
	call	?IsAllowsWalkWater@CvPlot@@QBE_NXZ	; CvPlot::IsAllowsWalkWater
	movzx	edx, al
	test	edx, edx
	jne	SHORT $LN11@PathDestVa

; 1180 : 	{
; 1181 : 		return FALSE;

	xor	eax, eax
	jmp	$LN16@PathDestVa
$LN11@PathDestVa:

; 1182 : 	}
; 1183 : #ifndef ASTAR_AI_CONTROL_FIX_RADAR
; 1184 : #ifdef AUI_ASTAR_MINOR_OPTIMIZATION
; 1185 : 	bool bAIControl = pCacheData->IsAutomated();
; 1186 : #else
; 1187 : 	bAIControl = pCacheData->IsAutomated();
; 1188 : #endif
; 1189 : 
; 1190 : 	if(bAIControl)
; 1191 : 	{
; 1192 : #ifndef AUI_ASTAR_FIX_CONSIDER_DANGER_ONLY_PATH
; 1193 : 		if(!(finder->GetInfo() & MOVE_UNITS_IGNORE_DANGER))
; 1194 : 		{
; 1195 : 			if(!pUnit->IsCombatUnit() || pUnit->getArmyID() == FFreeList::INVALID_INDEX)
; 1196 : 			{
; 1197 : #ifdef AUI_ASTAR_FIX_CONSIDER_DANGER_USES_COMBAT_STRENGTH
; 1198 : 				if (GET_PLAYER(pUnit->getOwner()).GetPlotDanger(*pToPlot) > pCacheData->baseCombatStrengthConsideringDamage() * AUI_ASTAR_FIX_CONSIDER_DANGER_USES_COMBAT_STRENGTH)
; 1199 : #else
; 1200 : 				if(GET_PLAYER(pUnit->getOwner()).GetPlotDanger(*pToPlot) > 0)
; 1201 : #endif
; 1202 : 				{
; 1203 : 					return FALSE;
; 1204 : 				}
; 1205 : 			}
; 1206 : 		}
; 1207 : #endif
; 1208 : 
; 1209 : 		if(pCacheData->getDomainType() == DOMAIN_LAND)
; 1210 : 		{
; 1211 : 			int iGroupAreaID = pUnit->area()->GetID();
; 1212 : 			if(pToPlot->getArea() != iGroupAreaID)
; 1213 : 			{
; 1214 : 				if(!(pToPlot->isAdjacentToArea(iGroupAreaID)) && !pUnit->CanEverEmbark())
; 1215 : 				{
; 1216 : 					return FALSE;
; 1217 : 				}
; 1218 : 			}
; 1219 : 		}
; 1220 : 	}
; 1221 : #endif
; 1222 : 	TeamTypes eTeam = pCacheData->getTeam();

	mov	eax, DWORD PTR _pCacheData$[ebp]
	mov	ecx, DWORD PTR [eax+28]
	mov	DWORD PTR _eTeam$[ebp], ecx

; 1223 : 	bool bToPlotRevealed = pToPlot->isRevealed(eTeam);

	mov	edx, DWORD PTR _eTeam$[ebp]
	shr	edx, 5
	mov	DWORD PTR _uiOffset$221831[ebp], edx
	mov	eax, DWORD PTR _uiOffset$221831[ebp]
	shl	eax, 5
	mov	ecx, DWORD PTR _eTeam$[ebp]
	sub	ecx, eax
	mov	edx, 1
	shl	edx, cl
	mov	eax, DWORD PTR _uiOffset$221831[ebp]
	mov	ecx, DWORD PTR _pToPlot$[ebp]
	and	edx, DWORD PTR [ecx+eax*4+8]
	setne	dl
	mov	BYTE PTR _bToPlotRevealed$[ebp], dl

; 1224 : 	if(!bToPlotRevealed)

	movzx	eax, BYTE PTR _bToPlotRevealed$[ebp]
	test	eax, eax
	jne	SHORT $LN10@PathDestVa

; 1225 : 	{
; 1226 : 		if(pCacheData->isNoRevealMap())

	mov	ecx, DWORD PTR _pCacheData$[ebp]
	mov	dl, BYTE PTR [ecx+39]
	mov	BYTE PTR $T221836[ebp], dl
	movzx	eax, BYTE PTR $T221836[ebp]
	test	eax, eax
	je	SHORT $LN10@PathDestVa

; 1227 : 		{
; 1228 : 			return FALSE;

	xor	eax, eax
	jmp	$LN16@PathDestVa
$LN10@PathDestVa:

; 1229 : 		}
; 1230 : 	}
; 1231 : 
; 1232 : 	if(bToPlotRevealed)

	movzx	ecx, BYTE PTR _bToPlotRevealed$[ebp]
	test	ecx, ecx
	je	SHORT $LN8@PathDestVa

; 1233 : 	{
; 1234 : 		CvCity* pCity = pToPlot->getPlotCity();

	mov	ecx, DWORD PTR _pToPlot$[ebp]
	call	?getPlotCity@CvPlot@@QBEPAVCvCity@@XZ	; CvPlot::getPlotCity
	mov	DWORD PTR _pCity$219250[ebp], eax

; 1235 : 		if(pCity)

	cmp	DWORD PTR _pCity$219250[ebp], 0
	je	SHORT $LN8@PathDestVa

; 1236 : 		{
; 1237 : 			if(pCacheData->getOwner() != pCity->getOwner() && !GET_TEAM(eTeam).isAtWar(pCity->getTeam()) && !(finder->GetInfo() & MOVE_IGNORE_STACKING))

	mov	edx, DWORD PTR _pCacheData$[ebp]
	mov	eax, DWORD PTR [edx+24]
	mov	DWORD PTR $T221845[ebp], eax
	mov	ecx, DWORD PTR _pCity$219250[ebp]
	mov	edx, DWORD PTR [ecx+84]
	mov	DWORD PTR $T221854[ebp], edx
	mov	eax, DWORD PTR $T221845[ebp]
	cmp	eax, DWORD PTR $T221854[ebp]
	je	SHORT $LN8@PathDestVa
	mov	ecx, DWORD PTR _eTeam$[ebp]
	imul	ecx, 2984				; 00000ba8H
	add	ecx, DWORD PTR ?m_aTeams@CvTeam@@1PAV1@A ; CvTeam::m_aTeams
	mov	DWORD PTR $T221858[ebp], ecx
	mov	ecx, DWORD PTR _pCity$219250[ebp]
	call	?getTeam@CvCity@@QBE?AW4TeamTypes@@XZ	; CvCity::getTeam
	push	eax
	mov	ecx, DWORD PTR $T221858[ebp]
	call	?isAtWar@CvTeam@@QBE_NW4TeamTypes@@@Z	; CvTeam::isAtWar
	movzx	edx, al
	test	edx, edx
	jne	SHORT $LN8@PathDestVa
	mov	eax, DWORD PTR _finder$[ebp]
	mov	ecx, DWORD PTR [eax+72]
	mov	DWORD PTR $T221862[ebp], ecx
	mov	edx, DWORD PTR $T221862[ebp]
	and	edx, 4
	jne	SHORT $LN8@PathDestVa

; 1238 : 			{
; 1239 : 				return FALSE;

	xor	eax, eax
	jmp	SHORT $LN16@PathDestVa
$LN8@PathDestVa:

; 1240 : 			}
; 1241 : 		}
; 1242 : 	}
; 1243 : 
; 1244 : #ifdef ASTAR_AI_CONTROL_FIX_RADAR
; 1245 : 	if(bToPlotRevealed)

	movzx	eax, BYTE PTR _bToPlotRevealed$[ebp]
	test	eax, eax
	je	SHORT $LN5@PathDestVa

; 1246 : #else
; 1247 : 	if(bAIControl || bToPlotRevealed)
; 1248 : #endif
; 1249 : 	{
; 1250 : 		// assume that we can change our embarking state
; 1251 : 		byte bMoveFlags = CvUnit::MOVEFLAG_DESTINATION | CvUnit::MOVEFLAG_PRETEND_CORRECT_EMBARK_STATE;

	mov	BYTE PTR _bMoveFlags$219254[ebp], 132	; 00000084H

; 1252 : 
; 1253 : 		if((pUnit->IsDeclareWar() || (finder->GetInfo() & MOVE_DECLARE_WAR)))

	mov	ecx, DWORD PTR _pUnit$[ebp]
	call	?IsDeclareWar@CvUnit@@QBE_NXZ		; CvUnit::IsDeclareWar
	movzx	ecx, al
	test	ecx, ecx
	jne	SHORT $LN3@PathDestVa
	mov	edx, DWORD PTR _finder$[ebp]
	mov	eax, DWORD PTR [edx+72]
	mov	DWORD PTR $T221866[ebp], eax
	mov	ecx, DWORD PTR $T221866[ebp]
	and	ecx, 32					; 00000020H
	je	SHORT $LN4@PathDestVa
$LN3@PathDestVa:

; 1254 : 		{
; 1255 : 			bMoveFlags |= CvUnit::MOVEFLAG_ATTACK;

	movzx	edx, BYTE PTR _bMoveFlags$219254[ebp]
	or	edx, 1
	mov	BYTE PTR _bMoveFlags$219254[ebp], dl
$LN4@PathDestVa:

; 1256 : 		}
; 1257 : 
; 1258 : 		if(finder->GetInfo() & MOVE_IGNORE_STACKING)

	mov	eax, DWORD PTR _finder$[ebp]
	mov	ecx, DWORD PTR [eax+72]
	mov	DWORD PTR $T221870[ebp], ecx
	mov	edx, DWORD PTR $T221870[ebp]
	and	edx, 4
	je	SHORT $LN2@PathDestVa

; 1259 : 		{
; 1260 : 			bMoveFlags |= CvUnit::MOVEFLAG_IGNORE_STACKING;

	movzx	eax, BYTE PTR _bMoveFlags$219254[ebp]
	or	eax, 16					; 00000010H
	mov	BYTE PTR _bMoveFlags$219254[ebp], al
$LN2@PathDestVa:

; 1261 : 		}
; 1262 : 
; 1263 : 		if(!(pUnit->canMoveOrAttackInto(*pToPlot, bMoveFlags)))

	movzx	ecx, BYTE PTR _bMoveFlags$219254[ebp]
	push	ecx
	mov	edx, DWORD PTR _pToPlot$[ebp]
	push	edx
	mov	ecx, DWORD PTR _pUnit$[ebp]
	call	?canMoveOrAttackInto@CvUnit@@QBE_NABVCvPlot@@E@Z ; CvUnit::canMoveOrAttackInto
	movzx	eax, al
	test	eax, eax
	jne	SHORT $LN5@PathDestVa

; 1264 : 		{
; 1265 : 			return FALSE;

	xor	eax, eax
	jmp	SHORT $LN16@PathDestVa
$LN5@PathDestVa:

; 1266 : 		}
; 1267 : 	}
; 1268 : 	return TRUE;

	mov	eax, 1
$LN16@PathDestVa:

; 1269 : }

	mov	esp, ebp
	pop	ebp
	ret	0
?PathDestValid@@YAHHHPBXPAVCvAStar@@@Z ENDP		; PathDestValid
_TEXT	ENDS
PUBLIC	?plotDistance@@YAHHHHH@Z			; plotDistance
PUBLIC	?PathHeuristic@@YAHHHHH@Z			; PathHeuristic
; Function compile flags: /Odtp
;	COMDAT ?PathHeuristic@@YAHHHHH@Z
_TEXT	SEGMENT
_iFromX$ = 8						; size = 4
_iFromY$ = 12						; size = 4
_iToX$ = 16						; size = 4
_iToY$ = 20						; size = 4
?PathHeuristic@@YAHHHHH@Z PROC				; PathHeuristic, COMDAT

; 1275 : {

	push	ebp
	mov	ebp, esp
	sub	esp, 80					; 00000050H

; 1276 : 	return (plotDistance(iFromX, iFromY, iToX, iToY) * PATH_MOVEMENT_WEIGHT);

	mov	eax, DWORD PTR _iToY$[ebp]
	push	eax
	mov	ecx, DWORD PTR _iToX$[ebp]
	push	ecx
	mov	edx, DWORD PTR _iFromY$[ebp]
	push	edx
	mov	eax, DWORD PTR _iFromX$[ebp]
	push	eax
	call	?plotDistance@@YAHHHHH@Z		; plotDistance
	add	esp, 16					; 00000010H
	imul	eax, 1000				; 000003e8H

; 1277 : }

	mov	esp, ebp
	pop	ebp
	ret	0
?PathHeuristic@@YAHHHHH@Z ENDP				; PathHeuristic
_TEXT	ENDS
PUBLIC	?dyWrap@@YAHH@Z					; dyWrap
PUBLIC	?dxWrap@@YAHH@Z					; dxWrap
; Function compile flags: /Odtp
; File d:\sources\lekmod_git\checkout\lekmod_dll\cvgamecoredll_expansion2\cvgamecoreutils.h
;	COMDAT ?plotDistance@@YAHHHHH@Z
_TEXT	SEGMENT
tv157 = -92						; size = 4
tv138 = -88						; size = 4
tv135 = -84						; size = 4
$T222041 = -80						; size = 4
$T222014 = -60						; size = 4
_iDY$ = -24						; size = 4
_iDX$ = -20						; size = 4
_iWrappedDX$ = -16					; size = 4
_iHX1$ = -12						; size = 4
_iHX2$ = -8						; size = 4
_iWrappedDY$ = -4					; size = 4
_iX1$ = 8						; size = 4
_iY1$ = 12						; size = 4
_iX2$ = 16						; size = 4
_iY2$ = 20						; size = 4
?plotDistance@@YAHHHHH@Z PROC				; plotDistance, COMDAT

; 144  : {

	push	ebp
	mov	ebp, esp
	sub	esp, 92					; 0000005cH

; 145  : 	int iDX;
; 146  : 	int iWrappedDX = dxWrap(iX2 - iX1);

	mov	eax, DWORD PTR _iX2$[ebp]
	sub	eax, DWORD PTR _iX1$[ebp]
	push	eax
	call	?dxWrap@@YAHH@Z				; dxWrap
	add	esp, 4
	mov	DWORD PTR _iWrappedDX$[ebp], eax

; 147  : 	int iWrappedDY = dyWrap(iY2 - iY1);

	mov	ecx, DWORD PTR _iY2$[ebp]
	sub	ecx, DWORD PTR _iY1$[ebp]
	push	ecx
	call	?dyWrap@@YAHH@Z				; dyWrap
	add	esp, 4
	mov	DWORD PTR _iWrappedDY$[ebp], eax

; 148  : 	int iDY = abs(iWrappedDY);

	mov	eax, DWORD PTR _iWrappedDY$[ebp]
	cdq
	xor	eax, edx
	sub	eax, edx
	mov	DWORD PTR _iDY$[ebp], eax

; 149  : 
; 150  : 	// convert to hex-space coordinates - the coordinate system axes are E and NE (not orthogonal)
; 151  : 	int iHX1 = xToHexspaceX(iX1, iY1);

	cmp	DWORD PTR _iY1$[ebp], 0
	jl	SHORT $LN35@plotDistan
	mov	edx, DWORD PTR _iY1$[ebp]
	sar	edx, 1
	mov	DWORD PTR tv135[ebp], edx
	jmp	SHORT $LN33@plotDistan
$LN35@plotDistan:
	mov	eax, DWORD PTR _iY1$[ebp]
	sub	eax, 1
	cdq
	sub	eax, edx
	sar	eax, 1
	mov	DWORD PTR tv135[ebp], eax
$LN33@plotDistan:
	mov	eax, DWORD PTR _iX1$[ebp]
	sub	eax, DWORD PTR tv135[ebp]
	mov	DWORD PTR _iHX1$[ebp], eax

; 152  : 	int iHX2 = xToHexspaceX(iX1 + iWrappedDX, iY1 + iWrappedDY);

	mov	ecx, DWORD PTR _iY1$[ebp]
	add	ecx, DWORD PTR _iWrappedDY$[ebp]
	mov	DWORD PTR $T222014[ebp], ecx
	js	SHORT $LN39@plotDistan
	mov	edx, DWORD PTR $T222014[ebp]
	sar	edx, 1
	mov	DWORD PTR tv138[ebp], edx
	jmp	SHORT $LN37@plotDistan
$LN39@plotDistan:
	mov	eax, DWORD PTR $T222014[ebp]
	sub	eax, 1
	cdq
	sub	eax, edx
	sar	eax, 1
	mov	DWORD PTR tv138[ebp], eax
$LN37@plotDistan:
	mov	eax, DWORD PTR _iX1$[ebp]
	add	eax, DWORD PTR _iWrappedDX$[ebp]
	sub	eax, DWORD PTR tv138[ebp]
	mov	DWORD PTR _iHX2$[ebp], eax

; 153  : 
; 154  : 	iDX = abs(dxWrap(iHX2 - iHX1));

	mov	ecx, DWORD PTR _iHX2$[ebp]
	sub	ecx, DWORD PTR _iHX1$[ebp]
	push	ecx
	call	?dxWrap@@YAHH@Z				; dxWrap
	add	esp, 4
	cdq
	xor	eax, edx
	sub	eax, edx
	mov	DWORD PTR _iDX$[ebp], eax

; 155  : 
; 156  : #ifdef NQM_GAME_CORE_UTILS_OPTIMIZATIONS
; 157  : 	if (((iHX2 - iHX1) ^ (iWrappedDY)) >= 0)  // the signs match
; 158  : #else
; 159  : 	if((iHX2 - iHX1 >= 0) == (iWrappedDY >= 0))  // the signs match

	mov	edx, DWORD PTR _iHX2$[ebp]
	sub	edx, DWORD PTR _iHX1$[ebp]
	xor	eax, eax
	test	edx, edx
	setge	al
	xor	ecx, ecx
	cmp	DWORD PTR _iWrappedDY$[ebp], 0
	setge	cl
	cmp	eax, ecx
	jne	SHORT $LN2@plotDistan

; 160  : #endif
; 161  : 	{
; 162  : 		return iDX + iDY;

	mov	eax, DWORD PTR _iDX$[ebp]
	add	eax, DWORD PTR _iDY$[ebp]
	jmp	SHORT $LN3@plotDistan

; 163  : 	}
; 164  : 	else

	jmp	SHORT $LN3@plotDistan
$LN2@plotDistan:

; 165  : 	{
; 166  : #ifdef NQM_FAST_COMP
; 167  : 		return (MAX(iDX, iDY));
; 168  : #else
; 169  : 		return (std::max(iDX, iDY));

	mov	edx, DWORD PTR _iDX$[ebp]
	cmp	edx, DWORD PTR _iDY$[ebp]
	jge	SHORT $LN57@plotDistan
	lea	eax, DWORD PTR _iDY$[ebp]
	mov	DWORD PTR tv157[ebp], eax
	jmp	SHORT $LN58@plotDistan
$LN57@plotDistan:
	lea	ecx, DWORD PTR _iDX$[ebp]
	mov	DWORD PTR tv157[ebp], ecx
$LN58@plotDistan:
	mov	edx, DWORD PTR tv157[ebp]
	mov	DWORD PTR $T222041[ebp], edx
	mov	eax, DWORD PTR $T222041[ebp]
	mov	eax, DWORD PTR [eax]
$LN3@plotDistan:

; 170  : #endif
; 171  : 	}
; 172  : }

	mov	esp, ebp
	pop	ebp
	ret	0
?plotDistance@@YAHHHHH@Z ENDP				; plotDistance
; Function compile flags: /Odtp
_TEXT	ENDS
;	COMDAT ?dxWrap@@YAHH@Z
_TEXT	SEGMENT
$T222064 = -16						; size = 4
$T222056 = -12						; size = 4
$T222052 = -5						; size = 1
_kMap$ = -4						; size = 4
_iDX$ = 8						; size = 4
?dxWrap@@YAHH@Z PROC					; dxWrap, COMDAT

; 73   : {

	push	ebp
	mov	ebp, esp
	sub	esp, 16					; 00000010H

; 74   : 	const CvMap& kMap = GC.getMap();

	mov	eax, DWORD PTR ?gGlobals@@3VCvGlobals@@A+52
	mov	DWORD PTR _kMap$[ebp], eax

; 75   : 	return wrapCoordDifference(iDX, kMap.getGridWidth(), kMap.isWrapX());

	mov	ecx, DWORD PTR _kMap$[ebp]
	mov	dl, BYTE PTR [ecx+4056]
	mov	BYTE PTR $T222052[ebp], dl
	mov	eax, DWORD PTR _kMap$[ebp]
	mov	ecx, DWORD PTR [eax+4020]
	mov	DWORD PTR $T222056[ebp], ecx
	movzx	edx, BYTE PTR $T222052[ebp]
	test	edx, edx
	je	SHORT $LN12@dxWrap
	mov	eax, DWORD PTR $T222056[ebp]
	shr	eax, 1
	cmp	DWORD PTR _iDX$[ebp], eax
	jle	SHORT $LN11@dxWrap
	mov	ecx, DWORD PTR _iDX$[ebp]
	sub	ecx, DWORD PTR $T222056[ebp]
	mov	DWORD PTR $T222064[ebp], ecx
	jmp	SHORT $LN13@dxWrap
	jmp	SHORT $LN12@dxWrap
$LN11@dxWrap:
	mov	edx, DWORD PTR $T222056[ebp]
	shr	edx, 1
	neg	edx
	cmp	DWORD PTR _iDX$[ebp], edx
	jge	SHORT $LN12@dxWrap
	mov	eax, DWORD PTR _iDX$[ebp]
	add	eax, DWORD PTR $T222056[ebp]
	mov	DWORD PTR $T222064[ebp], eax
	jmp	SHORT $LN13@dxWrap
$LN12@dxWrap:
	mov	ecx, DWORD PTR _iDX$[ebp]
	mov	DWORD PTR $T222064[ebp], ecx
$LN13@dxWrap:
	mov	eax, DWORD PTR $T222064[ebp]

; 76   : }

	mov	esp, ebp
	pop	ebp
	ret	0
?dxWrap@@YAHH@Z ENDP					; dxWrap
; Function compile flags: /Odtp
_TEXT	ENDS
;	COMDAT ?dyWrap@@YAHH@Z
_TEXT	SEGMENT
$T222085 = -16						; size = 4
$T222077 = -12						; size = 4
$T222073 = -5						; size = 1
_kMap$ = -4						; size = 4
_iDY$ = 8						; size = 4
?dyWrap@@YAHH@Z PROC					; dyWrap, COMDAT

; 79   : {

	push	ebp
	mov	ebp, esp
	sub	esp, 16					; 00000010H

; 80   : 	const CvMap& kMap = GC.getMap();

	mov	eax, DWORD PTR ?gGlobals@@3VCvGlobals@@A+52
	mov	DWORD PTR _kMap$[ebp], eax

; 81   : 	return wrapCoordDifference(iDY, kMap.getGridHeight(), kMap.isWrapY());

	mov	ecx, DWORD PTR _kMap$[ebp]
	mov	dl, BYTE PTR [ecx+4057]
	mov	BYTE PTR $T222073[ebp], dl
	mov	eax, DWORD PTR _kMap$[ebp]
	mov	ecx, DWORD PTR [eax+4024]
	mov	DWORD PTR $T222077[ebp], ecx
	movzx	edx, BYTE PTR $T222073[ebp]
	test	edx, edx
	je	SHORT $LN12@dyWrap
	mov	eax, DWORD PTR $T222077[ebp]
	shr	eax, 1
	cmp	DWORD PTR _iDY$[ebp], eax
	jle	SHORT $LN11@dyWrap
	mov	ecx, DWORD PTR _iDY$[ebp]
	sub	ecx, DWORD PTR $T222077[ebp]
	mov	DWORD PTR $T222085[ebp], ecx
	jmp	SHORT $LN13@dyWrap
	jmp	SHORT $LN12@dyWrap
$LN11@dyWrap:
	mov	edx, DWORD PTR $T222077[ebp]
	shr	edx, 1
	neg	edx
	cmp	DWORD PTR _iDY$[ebp], edx
	jge	SHORT $LN12@dyWrap
	mov	eax, DWORD PTR _iDY$[ebp]
	add	eax, DWORD PTR $T222077[ebp]
	mov	DWORD PTR $T222085[ebp], eax
	jmp	SHORT $LN13@dyWrap
$LN12@dyWrap:
	mov	ecx, DWORD PTR _iDY$[ebp]
	mov	DWORD PTR $T222085[ebp], ecx
$LN13@dyWrap:
	mov	eax, DWORD PTR $T222085[ebp]

; 82   : }

	mov	esp, ebp
	pop	ebp
	ret	0
?dyWrap@@YAHH@Z ENDP					; dyWrap
_TEXT	ENDS
PUBLIC	?directionXY@@YA?AW4DirectionTypes@@HHHH@Z	; directionXY
PUBLIC	?PathCost@@YAHPAVCvAStarNode@@0HPBXPAVCvAStar@@@Z ; PathCost
EXTRN	?isRiverCrossingNoPenalty@CvUnit@@QBE_NXZ:PROC	; CvUnit::isRiverCrossingNoPenalty
EXTRN	?isRiverCrossing@CvPlot@@QBE_NW4DirectionTypes@@@Z:PROC ; CvPlot::isRiverCrossing
EXTRN	?isVisibleEnemyDefender@CvPlot@@QBE_NPBVCvUnit@@@Z:PROC ; CvPlot::isVisibleEnemyDefender
EXTRN	?defenseModifier@CvPlot@@QBEHW4TeamTypes@@_N1@Z:PROC ; CvPlot::defenseModifier
EXTRN	?noDefensiveBonus@CvUnit@@QBE_NXZ:PROC		; CvUnit::noDefensiveBonus
EXTRN	?getNumAdjacentNonrevealed@CvPlot@@QBEHW4TeamTypes@@@Z:PROC ; CvPlot::getNumAdjacentNonrevealed
EXTRN	?IsAllowsOpenBordersToTeam@CvTeam@@QBE_NW4TeamTypes@@@Z:PROC ; CvTeam::IsAllowsOpenBordersToTeam
EXTRN	?isMinorCiv@CvPlayer@@QBE_NXZ:PROC		; CvPlayer::isMinorCiv
EXTRN	?m_aPlayers@CvPlayerAI@@1PAV1@A:DWORD		; CvPlayerAI::m_aPlayers
EXTRN	?isHasPromotion@CvUnit@@QBE_NW4PromotionTypes@@@Z:PROC ; CvUnit::isHasPromotion
EXTRN	?getNumFriendlyUnitsOfType@CvPlot@@QBEHPBVCvUnit@@_N@Z:PROC ; CvPlot::getNumFriendlyUnitsOfType
EXTRN	?getExtraMovePathCost@CvPlot@@QBEHXZ:PROC	; CvPlot::getExtraMovePathCost
EXTRN	?getTurnDamage@CvFeatureInfo@@QBEHXZ:PROC	; CvFeatureInfo::getTurnDamage
EXTRN	?getFeatureInfo@CvGlobals@@QAEPAVCvFeatureInfo@@W4FeatureTypes@@@Z:PROC ; CvGlobals::getFeatureInfo
EXTRN	?canEmbarkOnto@CvUnit@@QBE_NABVCvPlot@@0_N1@Z:PROC ; CvUnit::canEmbarkOnto
EXTRN	?MovementCost@CvUnitMovement@@SAHPBVCvUnit@@PBVCvPlot@@1HHH@Z:PROC ; CvUnitMovement::MovementCost
EXTRN	?IsSlowedByZOC@CvUnitMovement@@SA_NPBVCvUnit@@PBVCvPlot@@1@Z:PROC ; CvUnitMovement::IsSlowedByZOC
EXTRN	?ConsumesAllMoves@CvUnitMovement@@SA_NPBVCvUnit@@PBVCvPlot@@1@Z:PROC ; CvUnitMovement::ConsumesAllMoves
; Function compile flags: /Odtp
; File d:\sources\lekmod_git\checkout\lekmod_dll\cvgamecoredll_expansion2\cvastar.cpp
;	COMDAT ?PathCost@@YAHPAVCvAStarNode@@0HPBXPAVCvAStar@@@Z
_TEXT	SEGMENT
tv407 = -352						; size = 4
tv425 = -348						; size = 4
tv354 = -344						; size = 4
tv390 = -340						; size = 4
tv313 = -336						; size = 4
tv513 = -332						; size = 4
tv94 = -328						; size = 4
$T222482 = -324						; size = 4
$T222420 = -272						; size = 4
$T222414 = -267						; size = 1
$T222409 = -266						; size = 1
$T222405 = -265						; size = 1
$T222398 = -264						; size = 4
$T222384 = -258						; size = 1
$T222380 = -257						; size = 1
_uiOffset$222375 = -256					; size = 4
$T222366 = -252						; size = 4
_playerID$222363 = -248					; size = 4
$T222349 = -244						; size = 4
$T222345 = -240						; size = 4
$T222341 = -236						; size = 4
$T222337 = -232						; size = 4
_playerID$222331 = -228					; size = 4
$T222314 = -224						; size = 4
$T222301 = -220						; size = 4
$T222295 = -216						; size = 4
$T222291 = -212						; size = 4
$T222287 = -208						; size = 4
$T222283 = -204						; size = 4
$T222276 = -198						; size = 1
$T222272 = -197						; size = 1
$T222268 = -196						; size = 4
$T222264 = -190						; size = 1
$T222260 = -189						; size = 1
$T222253 = -188						; size = 4
$T222249 = -184						; size = 4
$T222245 = -180						; size = 4
$T222241 = -176						; size = 4
$T222234 = -172						; size = 4
$T222228 = -168						; size = 4
_f$222224 = -162					; size = 1
_f$222214 = -161					; size = 1
$T222206 = -160						; size = 4
$T222196 = -156						; size = 4
$T222189 = -152						; size = 4
$T222188 = -148						; size = 4
$T222184 = -144						; size = 4
$T222180 = -140						; size = 4
$T222176 = -133						; size = 1
$T222169 = -132						; size = 4
$T222165 = -128						; size = 4
$T222161 = -124						; size = 4
$T222157 = -120						; size = 4
$T222156 = -116						; size = 4
$T222130 = -112						; size = 4
$T222114 = -108						; size = 4
$T222105 = -104						; size = 4
$T222102 = -100						; size = 4
$T222101 = -96						; size = 4
$T222098 = -92						; size = 4
$T222095 = -88						; size = 4
$T222094 = -84						; size = 4
_iUnseenPlots$219324 = -80				; size = 4
_ePlotTeam$219318 = -76					; size = 4
_pDestPlot$219315 = -72					; size = 4
_ePlotOwner$219314 = -68				; size = 4
_kMap$ = -64						; size = 4
_pUnit$ = -60						; size = 4
_bMaximizeExplore$ = -53				; size = 1
_iMovesLeft$ = -52					; size = 4
_iFromPlotX$ = -48					; size = 4
_iFromPlotY$ = -44					; size = 4
_pCacheData$ = -40					; size = 4
_eUnitDomain$ = -36					; size = 4
_iMax$ = -32						; size = 4
_iToPlotX$ = -28					; size = 4
_eUnitTeam$ = -24					; size = 4
_pFromPlot$ = -20					; size = 4
_iToPlotY$ = -16					; size = 4
_iCost$ = -12						; size = 4
_bToPlotIsWater$ = -5					; size = 1
_pToPlot$ = -4						; size = 4
_parent$ = 8						; size = 4
_node$ = 12						; size = 4
_data$ = 16						; size = 4
_pointer$ = 20						; size = 4
_finder$ = 24						; size = 4
?PathCost@@YAHPAVCvAStarNode@@0HPBXPAVCvAStar@@@Z PROC	; PathCost, COMDAT

; 1282 : {

	push	ebp
	mov	ebp, esp
	sub	esp, 352				; 00000160H

; 1283 : 	CvMap& kMap = GC.getMap();

	mov	eax, DWORD PTR ?gGlobals@@3VCvGlobals@@A+52
	mov	DWORD PTR _kMap$[ebp], eax

; 1284 : #ifdef AUI_ASTAR_CACHE_PLOTS_AT_NODES
; 1285 : 	const CvPlot* pFromPlot = parent->m_pPlot;
; 1286 : 	const CvPlot* pToPlot = node->m_pPlot;
; 1287 : 
; 1288 : 	const int iFromPlotX = parent->m_iX;
; 1289 : 	const int iFromPlotY = parent->m_iY;
; 1290 : 	const int iToPlotX = node->m_iX;
; 1291 : 	const int iToPlotY = node->m_iY;
; 1292 : #else
; 1293 : 	int iFromPlotX = parent->m_iX;

	mov	ecx, DWORD PTR _parent$[ebp]
	movsx	edx, WORD PTR [ecx+80]
	mov	DWORD PTR _iFromPlotX$[ebp], edx

; 1294 : 	int iFromPlotY = parent->m_iY;

	mov	eax, DWORD PTR _parent$[ebp]
	movsx	ecx, WORD PTR [eax+82]
	mov	DWORD PTR _iFromPlotY$[ebp], ecx

; 1295 : 	CvPlot* pFromPlot = kMap.plotUnchecked(iFromPlotX, iFromPlotY);

	mov	edx, DWORD PTR _kMap$[ebp]
	mov	eax, DWORD PTR [edx+4020]
	mov	DWORD PTR $T222114[ebp], eax
	mov	ecx, DWORD PTR _iFromPlotY$[ebp]
	imul	ecx, DWORD PTR $T222114[ebp]
	add	ecx, DWORD PTR _iFromPlotX$[ebp]
	imul	ecx, 484				; 000001e4H
	mov	edx, DWORD PTR _kMap$[ebp]
	add	ecx, DWORD PTR [edx+4068]
	mov	DWORD PTR _pFromPlot$[ebp], ecx

; 1296 : 
; 1297 : 	int iToPlotX = node->m_iX;

	mov	eax, DWORD PTR _node$[ebp]
	movsx	ecx, WORD PTR [eax+80]
	mov	DWORD PTR _iToPlotX$[ebp], ecx

; 1298 : 	int iToPlotY = node->m_iY;

	mov	edx, DWORD PTR _node$[ebp]
	movsx	eax, WORD PTR [edx+82]
	mov	DWORD PTR _iToPlotY$[ebp], eax

; 1299 : 	CvPlot* pToPlot = kMap.plotUnchecked(iToPlotX, iToPlotY);

	mov	ecx, DWORD PTR _kMap$[ebp]
	mov	edx, DWORD PTR [ecx+4020]
	mov	DWORD PTR $T222130[ebp], edx
	mov	eax, DWORD PTR _iToPlotY$[ebp]
	imul	eax, DWORD PTR $T222130[ebp]
	add	eax, DWORD PTR _iToPlotX$[ebp]
	imul	eax, 484				; 000001e4H
	mov	ecx, DWORD PTR _kMap$[ebp]
	add	eax, DWORD PTR [ecx+4068]
	mov	DWORD PTR _pToPlot$[ebp], eax

; 1300 : #endif
; 1301 : 
; 1302 : 	CvUnit* pUnit = ((CvUnit*)pointer);

	mov	edx, DWORD PTR _pointer$[ebp]
	mov	DWORD PTR _pUnit$[ebp], edx

; 1303 : 	const UnitPathCacheData* pCacheData = reinterpret_cast<const UnitPathCacheData*>(finder->GetScratchBuffer());

	mov	eax, DWORD PTR _finder$[ebp]
	add	eax, 116				; 00000074H
	mov	DWORD PTR _pCacheData$[ebp], eax

; 1304 : #ifdef AUI_ASTAR_MINOR_OPTIMIZATION
; 1305 : 	bool bIsAIControl = !pCacheData->isHuman() || pCacheData->IsAutomated();
; 1306 : #endif
; 1307 : 
; 1308 : 	DomainTypes eUnitDomain = pCacheData->getDomainType();

	mov	ecx, DWORD PTR _pCacheData$[ebp]
	mov	edx, DWORD PTR [ecx+32]
	mov	DWORD PTR _eUnitDomain$[ebp], edx

; 1309 : 
; 1310 : 	CvAssertMsg(eUnitDomain != DOMAIN_AIR, "pUnit->getDomainType() is not expected to be equal with DOMAIN_AIR");
; 1311 : 
; 1312 : #if defined(AUI_ASTAR_MINOR_OPTIMIZATION) || defined (AUI_UNIT_FIX_HOVERING_EMBARK) || defined(AUI_UNIT_MOVEMENT_FIX_BAD_ALLOWS_WATER_WALK_CHECK)
; 1313 : 	bool bToPlotIsWater = !pToPlot->IsAllowsWalkWater();
; 1314 : 	bool bFromPlotIsWater = !pFromPlot->IsAllowsWalkWater();
; 1315 : #ifdef AUI_UNIT_FIX_HOVERING_EMBARK
; 1316 : 	if (pUnit->IsHoveringUnit())
; 1317 : 	{
; 1318 : 		bToPlotIsWater = bToPlotIsWater && pToPlot->getTerrainType() == GC.getDEEP_WATER_TERRAIN();
; 1319 : 		bFromPlotIsWater = bFromPlotIsWater && pFromPlot->getTerrainType() == GC.getDEEP_WATER_TERRAIN();
; 1320 : 	}
; 1321 : 	else
; 1322 : #endif
; 1323 : 	{
; 1324 : 		bToPlotIsWater = bToPlotIsWater && pToPlot->isWater();
; 1325 : 		bFromPlotIsWater = bFromPlotIsWater && pFromPlot->isWater();
; 1326 : 	}
; 1327 : 	int iBaseMoves = pCacheData->baseMoves(bFromPlotIsWater || pCacheData->isEmbarked() ? DOMAIN_SEA : pCacheData->getDomainType());
; 1328 : 	int iMaxMoves = iBaseMoves * GC.getMOVE_DENOMINATOR();
; 1329 : #else
; 1330 : 	bool bToPlotIsWater = pToPlot->isWater() && !pToPlot->IsAllowsWalkWater();

	mov	eax, DWORD PTR _pToPlot$[ebp]
	movsx	ecx, BYTE PTR [eax+5]
	xor	edx, edx
	cmp	ecx, 3
	sete	dl
	movzx	eax, dl
	test	eax, eax
	je	SHORT $LN42@PathCost
	mov	ecx, DWORD PTR _pToPlot$[ebp]
	call	?IsAllowsWalkWater@CvPlot@@QBE_NXZ	; CvPlot::IsAllowsWalkWater
	movzx	ecx, al
	test	ecx, ecx
	jne	SHORT $LN42@PathCost
	mov	DWORD PTR tv94[ebp], 1
	jmp	SHORT $LN43@PathCost
$LN42@PathCost:
	mov	DWORD PTR tv94[ebp], 0
$LN43@PathCost:
	mov	dl, BYTE PTR tv94[ebp]
	mov	BYTE PTR _bToPlotIsWater$[ebp], dl

; 1331 : #endif
; 1332 : 	int iMax;
; 1333 : 	if(parent->m_iData1 > 0)

	mov	eax, DWORD PTR _parent$[ebp]
	cmp	DWORD PTR [eax+12], 0
	jle	SHORT $LN39@PathCost

; 1334 : 	{
; 1335 : 		iMax = parent->m_iData1;

	mov	ecx, DWORD PTR _parent$[ebp]
	mov	edx, DWORD PTR [ecx+12]
	mov	DWORD PTR _iMax$[ebp], edx

; 1336 : 	}
; 1337 : 	else

	jmp	$LN84@PathCost
$LN39@PathCost:

; 1338 : 	{
; 1339 : #ifdef AUI_ASTAR_MINOR_OPTIMIZATION
; 1340 : 		iMax = iMaxMoves;
; 1341 : #else
; 1342 : 		if (CvUnitMovement::ConsumesAllMoves(pUnit, pFromPlot, pToPlot) || CvUnitMovement::IsSlowedByZOC(pUnit, pFromPlot, pToPlot))

	mov	eax, DWORD PTR _pToPlot$[ebp]
	push	eax
	mov	ecx, DWORD PTR _pFromPlot$[ebp]
	push	ecx
	mov	edx, DWORD PTR _pUnit$[ebp]
	push	edx
	call	?ConsumesAllMoves@CvUnitMovement@@SA_NPBVCvUnit@@PBVCvPlot@@1@Z ; CvUnitMovement::ConsumesAllMoves
	add	esp, 12					; 0000000cH
	movzx	eax, al
	test	eax, eax
	jne	SHORT $LN74@PathCost
	mov	ecx, DWORD PTR _pToPlot$[ebp]
	push	ecx
	mov	edx, DWORD PTR _pFromPlot$[ebp]
	push	edx
	mov	eax, DWORD PTR _pUnit$[ebp]
	push	eax
	call	?IsSlowedByZOC@CvUnitMovement@@SA_NPBVCvUnit@@PBVCvPlot@@1@Z ; CvUnitMovement::IsSlowedByZOC
	add	esp, 12					; 0000000cH
	movzx	ecx, al
	test	ecx, ecx
	je	SHORT $LN37@PathCost

; 1343 : 		{
; 1344 : 			// The movement would consume all moves, get the moves we will forfeit based on the source plot, rather than
; 1345 : 			// the destination plot.  This fixes issues where a land unit that has more movement points on water than on land
; 1346 : 			// would have a very high cost to move onto water if their first move of the turn was at the edge of the water.
; 1347 : 			iMax = pCacheData->baseMoves((pFromPlot->isWater() && !pFromPlot->IsAllowsWalkWater())?DOMAIN_SEA:DOMAIN_LAND) * GC.getMOVE_DENOMINATOR();

$LN74@PathCost:
	mov	edx, DWORD PTR _pFromPlot$[ebp]
	movsx	eax, BYTE PTR [edx+5]
	xor	ecx, ecx
	cmp	eax, 3
	sete	cl
	movzx	edx, cl
	test	edx, edx
	je	SHORT $LN44@PathCost
	mov	ecx, DWORD PTR _pFromPlot$[ebp]
	call	?IsAllowsWalkWater@CvPlot@@QBE_NXZ	; CvPlot::IsAllowsWalkWater
	movzx	eax, al
	test	eax, eax
	jne	SHORT $LN44@PathCost
	mov	DWORD PTR $T222156[ebp], 0
	jmp	SHORT $LN45@PathCost
$LN44@PathCost:
	mov	DWORD PTR $T222156[ebp], 2
$LN45@PathCost:
	mov	ecx, DWORD PTR $T222156[ebp]
	mov	edx, DWORD PTR _pCacheData$[ebp]
	mov	eax, DWORD PTR [edx+ecx*4]
	mov	DWORD PTR $T222157[ebp], eax
	mov	ecx, DWORD PTR ?gGlobals@@3VCvGlobals@@A+6236
	mov	DWORD PTR $T222161[ebp], ecx
	mov	edx, DWORD PTR $T222157[ebp]
	imul	edx, DWORD PTR $T222161[ebp]
	mov	DWORD PTR _iMax$[ebp], edx

; 1348 : 		}
; 1349 : 		else

	jmp	SHORT $LN84@PathCost
$LN37@PathCost:

; 1350 : 			iMax = pCacheData->baseMoves(bToPlotIsWater?DOMAIN_SEA:DOMAIN_LAND) * GC.getMOVE_DENOMINATOR();

	movzx	eax, BYTE PTR _bToPlotIsWater$[ebp]
	neg	eax
	sbb	eax, eax
	and	eax, -2					; fffffffeH
	add	eax, 2
	mov	ecx, DWORD PTR _pCacheData$[ebp]
	mov	edx, DWORD PTR [ecx+eax*4]
	mov	DWORD PTR $T222165[ebp], edx
	mov	eax, DWORD PTR ?gGlobals@@3VCvGlobals@@A+6236
	mov	DWORD PTR $T222169[ebp], eax
	mov	ecx, DWORD PTR $T222165[ebp]
	imul	ecx, DWORD PTR $T222169[ebp]
	mov	DWORD PTR _iMax$[ebp], ecx

; 1351 : #endif
; 1352 : 	}
; 1353 : 
; 1354 : 	// Get the cost of moving to the new plot, passing in our max moves or the moves we have left, in case the movementCost 
; 1355 : 	// method wants to burn all our remaining moves.  This is needed because our remaining moves for this segment of the path
; 1356 : 	// may be larger or smaller than the baseMoves if some moves have already been used or if the starting domain (LAND/SEA)
; 1357 : 	// of the path segment is different from the destination plot.
; 1358 : #ifdef AUI_ASTAR_MINOR_OPTIMIZATION
; 1359 : 	int iCost = CvUnitMovement::MovementCost(pUnit, pFromPlot, pToPlot, iBaseMoves, iMaxMoves, iMax);
; 1360 : #else
; 1361 : 	int iCost = CvUnitMovement::MovementCost(pUnit, pFromPlot, pToPlot, pCacheData->baseMoves((pToPlot->isWater() || pCacheData->isEmbarked())?DOMAIN_SEA:pCacheData->getDomainType()), pCacheData->maxMoves(), iMax);

$LN84@PathCost:
	mov	edx, DWORD PTR _pToPlot$[ebp]
	movsx	eax, BYTE PTR [edx+5]
	xor	ecx, ecx
	cmp	eax, 3
	sete	cl
	movzx	edx, cl
	test	edx, edx
	jne	SHORT $LN46@PathCost
	mov	eax, DWORD PTR _pCacheData$[ebp]
	mov	cl, BYTE PTR [eax+41]
	mov	BYTE PTR $T222176[ebp], cl
	movzx	edx, BYTE PTR $T222176[ebp]
	test	edx, edx
	jne	SHORT $LN46@PathCost
	mov	eax, DWORD PTR $T222180[ebp]
	mov	DWORD PTR $T222188[ebp], eax
	mov	ecx, DWORD PTR _pCacheData$[ebp]
	mov	edx, DWORD PTR [ecx+32]
	mov	DWORD PTR $T222188[ebp], edx
	jmp	SHORT $LN47@PathCost
$LN46@PathCost:
	mov	DWORD PTR $T222188[ebp], 0
$LN47@PathCost:
	mov	eax, DWORD PTR _pCacheData$[ebp]
	mov	ecx, DWORD PTR [eax+20]
	mov	DWORD PTR $T222184[ebp], ecx
	mov	edx, DWORD PTR $T222188[ebp]
	mov	eax, DWORD PTR _pCacheData$[ebp]
	mov	ecx, DWORD PTR [eax+edx*4]
	mov	DWORD PTR $T222189[ebp], ecx
	mov	edx, DWORD PTR _iMax$[ebp]
	push	edx
	mov	eax, DWORD PTR $T222184[ebp]
	push	eax
	mov	ecx, DWORD PTR $T222189[ebp]
	push	ecx
	mov	edx, DWORD PTR _pToPlot$[ebp]
	push	edx
	mov	eax, DWORD PTR _pFromPlot$[ebp]
	push	eax
	mov	ecx, DWORD PTR _pUnit$[ebp]
	push	ecx
	call	?MovementCost@CvUnitMovement@@SAHPBVCvUnit@@PBVCvPlot@@1HHH@Z ; CvUnitMovement::MovementCost
	add	esp, 24					; 00000018H
	mov	DWORD PTR _iCost$[ebp], eax

; 1362 : #endif
; 1363 : 
; 1364 : 	TeamTypes eUnitTeam = pCacheData->getTeam();

	mov	edx, DWORD PTR _pCacheData$[ebp]
	mov	eax, DWORD PTR [edx+28]
	mov	DWORD PTR _eUnitTeam$[ebp], eax

; 1365 : #ifdef AUI_ASTAR_EXPLORE_UNITAITYPE_ALWAYS_MAXIMIZES_EXPLORE
; 1366 : 	bool bMaximizeExplore = finder->GetInfo() & MOVE_MAXIMIZE_EXPLORE || pUnit->AI_getUnitAIType() == UNITAI_EXPLORE || pUnit->AI_getUnitAIType() == UNITAI_EXPLORE_SEA;
; 1367 : #else
; 1368 : 	bool bMaximizeExplore = finder->GetInfo() & MOVE_MAXIMIZE_EXPLORE;

	mov	ecx, DWORD PTR _finder$[ebp]
	mov	edx, DWORD PTR [ecx+72]
	mov	DWORD PTR $T222196[ebp], edx
	mov	eax, DWORD PTR $T222196[ebp]
	and	eax, 128				; 00000080H
	setne	cl
	mov	BYTE PTR _bMaximizeExplore$[ebp], cl

; 1369 : #endif
; 1370 : 
; 1371 : 	int iMovesLeft = iMax - iCost;

	mov	edx, DWORD PTR _iMax$[ebp]
	sub	edx, DWORD PTR _iCost$[ebp]
	mov	DWORD PTR _iMovesLeft$[ebp], edx

; 1372 : 	// Is the cost greater than our max?
; 1373 : 	if (iMovesLeft < 0)

	jns	SHORT $LN34@PathCost

; 1374 : 	{
; 1375 : 		// Yes, we will still let the move happen, but that is the end of the turn.
; 1376 : 		iCost = iMax;

	mov	eax, DWORD PTR _iMax$[ebp]
	mov	DWORD PTR _iCost$[ebp], eax

; 1377 : 		iMovesLeft = 0;

	mov	DWORD PTR _iMovesLeft$[ebp], 0
$LN34@PathCost:

; 1378 : 	}
; 1379 : 
; 1380 : 	if(iMovesLeft == 0)

	cmp	DWORD PTR _iMovesLeft$[ebp], 0
	jne	$LN33@PathCost

; 1381 : 	{
; 1382 : 		iCost = (PATH_MOVEMENT_WEIGHT * iCost);

	mov	ecx, DWORD PTR _iCost$[ebp]
	imul	ecx, 1000				; 000003e8H
	mov	DWORD PTR _iCost$[ebp], ecx

; 1383 : 
; 1384 : #ifdef AUI_UNIT_MOVEMENT_FIX_BAD_ALLOWS_WATER_WALK_CHECK
; 1385 : 		if (eUnitDomain == DOMAIN_LAND && !bFromPlotIsWater && bToPlotIsWater && !pUnit->canEmbarkOnto(*pFromPlot, *pToPlot, true))
; 1386 : #else
; 1387 : 		if(eUnitDomain == DOMAIN_LAND && !pFromPlot->isWater() && bToPlotIsWater && !pUnit->canEmbarkOnto(*pFromPlot, *pToPlot, true))

	cmp	DWORD PTR _eUnitDomain$[ebp], 2
	jne	SHORT $LN32@PathCost
	mov	edx, DWORD PTR _pFromPlot$[ebp]
	movsx	eax, BYTE PTR [edx+5]
	xor	ecx, ecx
	cmp	eax, 3
	sete	cl
	movzx	edx, cl
	test	edx, edx
	jne	SHORT $LN32@PathCost
	movzx	eax, BYTE PTR _bToPlotIsWater$[ebp]
	test	eax, eax
	je	SHORT $LN32@PathCost
	push	0
	push	1
	mov	ecx, DWORD PTR _pToPlot$[ebp]
	push	ecx
	mov	edx, DWORD PTR _pFromPlot$[ebp]
	push	edx
	mov	ecx, DWORD PTR _pUnit$[ebp]
	call	?canEmbarkOnto@CvUnit@@QBE_NABVCvPlot@@0_N1@Z ; CvUnit::canEmbarkOnto
	movzx	eax, al
	test	eax, eax
	jne	SHORT $LN32@PathCost

; 1388 : #endif
; 1389 : 		{
; 1390 : 			iCost += PATH_INCORRECT_EMBARKING_WEIGHT;

	mov	ecx, DWORD PTR _iCost$[ebp]
	add	ecx, 1000000				; 000f4240H
	mov	DWORD PTR _iCost$[ebp], ecx
$LN32@PathCost:

; 1391 : 		}
; 1392 : 
; 1393 : 		if(bMaximizeExplore)

	movzx	edx, BYTE PTR _bMaximizeExplore$[ebp]
	test	edx, edx
	je	SHORT $LN31@PathCost

; 1394 : 		{
; 1395 : #ifdef AUI_ASTAR_FIX_MAXIMIZE_EXPLORE_UNHARDCODE_HILL_PREFERENCE
; 1396 : 			iCost += PATH_EXPLORE_NON_HILL_WEIGHT * (2 - pToPlot->seeFromLevel(eUnitTeam));
; 1397 : #else
; 1398 : 			if(!pToPlot->isHills())

	mov	eax, DWORD PTR _pToPlot$[ebp]
	movsx	ecx, BYTE PTR [eax+5]
	sub	ecx, 1
	neg	ecx
	sbb	ecx, ecx
	add	ecx, 1
	movzx	edx, cl
	test	edx, edx
	jne	SHORT $LN31@PathCost

; 1399 : 			{
; 1400 : 				iCost += PATH_EXPLORE_NON_HILL_WEIGHT;

	mov	eax, DWORD PTR _iCost$[ebp]
	add	eax, 300				; 0000012cH
	mov	DWORD PTR _iCost$[ebp], eax
$LN31@PathCost:

; 1401 : 			}
; 1402 : #endif
; 1403 : 		}
; 1404 : 
; 1405 : 		// Damage caused by features (mods)
; 1406 : 		if(0 != GC.getPATH_DAMAGE_WEIGHT())

	mov	ecx, DWORD PTR ?gGlobals@@3VCvGlobals@@A+6944
	mov	DWORD PTR $T222206[ebp], ecx
	cmp	DWORD PTR $T222206[ebp], 0
	je	$LN29@PathCost

; 1407 : 		{
; 1408 : 			if(pToPlot->getFeatureType() != NO_FEATURE)

	mov	edx, DWORD PTR _pToPlot$[ebp]
	mov	al, BYTE PTR [edx+432]
	mov	BYTE PTR _f$222214[ebp], al
	movsx	ecx, BYTE PTR _f$222214[ebp]
	cmp	ecx, -1
	je	$LN28@PathCost

; 1409 : 			{
; 1410 : #ifdef AUI_ASTAR_MINOR_OPTIMIZATION
; 1411 : 				iCost += (GC.getPATH_DAMAGE_WEIGHT() * MAX(0, GC.getFeatureInfo(pToPlot->getFeatureType())->getTurnDamage())) / GC.getMAX_HIT_POINTS();
; 1412 : #else
; 1413 : 				iCost += (GC.getPATH_DAMAGE_WEIGHT() * std::max(0, GC.getFeatureInfo(pToPlot->getFeatureType())->getTurnDamage())) / GC.getMAX_HIT_POINTS();

	mov	edx, DWORD PTR _pToPlot$[ebp]
	mov	al, BYTE PTR [edx+432]
	mov	BYTE PTR _f$222224[ebp], al
	movsx	ecx, BYTE PTR _f$222224[ebp]
	push	ecx
	mov	ecx, OFFSET ?gGlobals@@3VCvGlobals@@A	; gGlobals
	call	?getFeatureInfo@CvGlobals@@QAEPAVCvFeatureInfo@@W4FeatureTypes@@@Z ; CvGlobals::getFeatureInfo
	mov	ecx, eax
	call	?getTurnDamage@CvFeatureInfo@@QBEHXZ	; CvFeatureInfo::getTurnDamage
	mov	DWORD PTR $T222094[ebp], eax
	mov	DWORD PTR $T222095[ebp], 0
	mov	edx, DWORD PTR ?gGlobals@@3VCvGlobals@@A+6944
	mov	DWORD PTR $T222228[ebp], edx
	mov	eax, DWORD PTR $T222095[ebp]
	cmp	eax, DWORD PTR $T222094[ebp]
	jge	SHORT $LN116@PathCost
	lea	ecx, DWORD PTR $T222094[ebp]
	mov	DWORD PTR tv513[ebp], ecx
	jmp	SHORT $LN117@PathCost
$LN116@PathCost:
	lea	edx, DWORD PTR $T222095[ebp]
	mov	DWORD PTR tv513[ebp], edx
$LN117@PathCost:
	mov	eax, DWORD PTR tv513[ebp]
	mov	DWORD PTR $T222234[ebp], eax
	mov	ecx, DWORD PTR ?gGlobals@@3VCvGlobals@@A+7368
	mov	DWORD PTR $T222241[ebp], ecx
	mov	edx, DWORD PTR $T222234[ebp]
	mov	eax, DWORD PTR $T222228[ebp]
	imul	eax, DWORD PTR [edx]
	cdq
	idiv	DWORD PTR $T222241[ebp]
	add	eax, DWORD PTR _iCost$[ebp]
	mov	DWORD PTR _iCost$[ebp], eax
$LN28@PathCost:

; 1414 : #endif
; 1415 : 			}
; 1416 : 
; 1417 : 			if(pToPlot->getExtraMovePathCost() > 0)

	mov	ecx, DWORD PTR _pToPlot$[ebp]
	call	?getExtraMovePathCost@CvPlot@@QBEHXZ	; CvPlot::getExtraMovePathCost
	test	eax, eax
	jle	SHORT $LN29@PathCost

; 1418 : 			{
; 1419 : 				iCost += (PATH_MOVEMENT_WEIGHT * pToPlot->getExtraMovePathCost());

	mov	ecx, DWORD PTR _pToPlot$[ebp]
	call	?getExtraMovePathCost@CvPlot@@QBEHXZ	; CvPlot::getExtraMovePathCost
	imul	eax, 1000				; 000003e8H
	add	eax, DWORD PTR _iCost$[ebp]
	mov	DWORD PTR _iCost$[ebp], eax
$LN29@PathCost:

; 1420 : 			}
; 1421 : 		}
; 1422 : 
; 1423 : 		// Penalty for stacking
; 1424 : 		if(GC.getPLOT_UNIT_LIMIT() > 0 && !(finder->GetInfo() & MOVE_IGNORE_STACKING))

	mov	eax, DWORD PTR ?gGlobals@@3VCvGlobals@@A+7356
	mov	DWORD PTR $T222245[ebp], eax
	cmp	DWORD PTR $T222245[ebp], 0
	jle	SHORT $LN126@PathCost
	mov	ecx, DWORD PTR _finder$[ebp]
	mov	edx, DWORD PTR [ecx+72]
	mov	DWORD PTR $T222249[ebp], edx
	mov	eax, DWORD PTR $T222249[ebp]
	and	eax, 4
	jne	SHORT $LN126@PathCost

; 1425 : 		{
; 1426 : 			// Check to see if any units are present at this full-turn move plot... if the player can see what's there
; 1427 : 			if(pToPlot->getNumFriendlyUnitsOfType(pUnit) >= GC.getPLOT_UNIT_LIMIT())

	mov	ecx, DWORD PTR ?gGlobals@@3VCvGlobals@@A+7356
	mov	DWORD PTR $T222253[ebp], ecx
	push	1
	mov	edx, DWORD PTR _pUnit$[ebp]
	push	edx
	mov	ecx, DWORD PTR _pToPlot$[ebp]
	call	?getNumFriendlyUnitsOfType@CvPlot@@QBEHPBVCvUnit@@_N@Z ; CvPlot::getNumFriendlyUnitsOfType
	cmp	eax, DWORD PTR $T222253[ebp]
	jl	SHORT $LN126@PathCost

; 1428 : 			{
; 1429 : 				iCost += PATH_STACKING_WEIGHT;

	mov	eax, DWORD PTR _iCost$[ebp]
	add	eax, 1000000				; 000f4240H
	mov	DWORD PTR _iCost$[ebp], eax

; 1430 : 			}
; 1431 : 		}
; 1432 : 
; 1433 : 		// Penalty for ending a turn on a mountain
; 1434 : 		if(pToPlot->isMountain())

$LN126@PathCost:
	mov	ecx, DWORD PTR _pToPlot$[ebp]
	movsx	edx, BYTE PTR [ecx+5]
	neg	edx
	sbb	edx, edx
	add	edx, 1
	movzx	eax, dl
	test	eax, eax
	je	SHORT $LN24@PathCost

; 1435 : 		{
; 1436 : 			// We want to discourage AIs and automated units from exhausting their movement on a mountain, but if the unit is manually controlled by the human, let them do what they want.
; 1437 : #ifdef AUI_ASTAR_MINOR_OPTIMIZATION
; 1438 : 			if (bIsAIControl)
; 1439 : #else
; 1440 : 			if (!pCacheData->isHuman() || pCacheData->IsAutomated())

	mov	ecx, DWORD PTR _pCacheData$[ebp]
	mov	dl, BYTE PTR [ecx+36]
	mov	BYTE PTR $T222260[ebp], dl
	movzx	eax, BYTE PTR $T222260[ebp]
	test	eax, eax
	je	SHORT $LN22@PathCost
	mov	ecx, DWORD PTR _pCacheData$[ebp]
	mov	dl, BYTE PTR [ecx+37]
	mov	BYTE PTR $T222264[ebp], dl
	movzx	eax, BYTE PTR $T222264[ebp]
	test	eax, eax
	je	SHORT $LN24@PathCost
$LN22@PathCost:

; 1441 : #endif
; 1442 : 			{
; 1443 : 				iCost += PATH_END_TURN_MOUNTAIN_WEIGHT;

	mov	ecx, DWORD PTR _iCost$[ebp]
	add	ecx, 1000000				; 000f4240H
	mov	DWORD PTR _iCost$[ebp], ecx
$LN24@PathCost:

; 1444 : 			}
; 1445 : #ifdef AUI_ASTAR_HUMAN_UNITS_GET_DIMINISHED_AVOID_WEIGHT
; 1446 : 			else
; 1447 : 			{
; 1448 : 				iCost += AUI_ASTAR_HUMAN_UNITS_GET_DIMINISHED_AVOID_WEIGHT + PATH_TERRITORY_WEIGHT;
; 1449 : 			}
; 1450 : #endif
; 1451 : 		}
; 1452 : 
; 1453 : 		if (pUnit->isHasPromotion((PromotionTypes)GC.getPROMOTION_UNWELCOME_EVANGELIST()))

	mov	edx, DWORD PTR ?gGlobals@@3VCvGlobals@@A+8560
	mov	DWORD PTR $T222268[ebp], edx
	mov	eax, DWORD PTR $T222268[ebp]
	push	eax
	mov	ecx, DWORD PTR _pUnit$[ebp]
	call	?isHasPromotion@CvUnit@@QBE_NW4PromotionTypes@@@Z ; CvUnit::isHasPromotion
	movzx	ecx, al
	test	ecx, ecx
	je	$LN178@PathCost

; 1454 : 		{
; 1455 : 			// Avoid being in a territory that we are not welcome in, unless the human is manually controlling the unit.
; 1456 : #ifndef AUI_ASTAR_HUMAN_UNITS_GET_DIMINISHED_AVOID_WEIGHT
; 1457 : #ifdef AUI_ASTAR_MINOR_OPTIMIZATION
; 1458 : 			if (bIsAIControl)
; 1459 : #else
; 1460 : 			if (!pCacheData->isHuman() || pCacheData->IsAutomated())

	mov	edx, DWORD PTR _pCacheData$[ebp]
	mov	al, BYTE PTR [edx+36]
	mov	BYTE PTR $T222272[ebp], al
	movzx	ecx, BYTE PTR $T222272[ebp]
	test	ecx, ecx
	je	SHORT $LN138@PathCost
	mov	edx, DWORD PTR _pCacheData$[ebp]
	mov	al, BYTE PTR [edx+37]
	mov	BYTE PTR $T222276[ebp], al
	movzx	ecx, BYTE PTR $T222276[ebp]
	test	ecx, ecx
	je	$LN20@PathCost

; 1461 : #endif
; 1462 : #endif
; 1463 : 			{
; 1464 : 				// Also, ignore the penalty if the destination of the path is in the same team's territory, no sense in avoiding a place we want to get to.				
; 1465 : 				PlayerTypes ePlotOwner = pToPlot->getOwner();

$LN138@PathCost:
	mov	edx, DWORD PTR _pToPlot$[ebp]
	movsx	eax, BYTE PTR [edx+4]
	mov	DWORD PTR _ePlotOwner$219314[ebp], eax

; 1466 : 				CvPlot* pDestPlot = (finder->GetDestX() >= 0 && finder->GetDestY() >= 0)?kMap.plotCheckInvalid(finder->GetDestX(), finder->GetDestY()):NULL;

	mov	ecx, DWORD PTR _finder$[ebp]
	mov	edx, DWORD PTR [ecx+64]
	mov	DWORD PTR $T222283[ebp], edx
	cmp	DWORD PTR $T222283[ebp], 0
	jl	$LN48@PathCost
	mov	eax, DWORD PTR _finder$[ebp]
	mov	ecx, DWORD PTR [eax+68]
	mov	DWORD PTR $T222287[ebp], ecx
	cmp	DWORD PTR $T222287[ebp], 0
	jl	$LN48@PathCost
	mov	edx, DWORD PTR _finder$[ebp]
	mov	eax, DWORD PTR [edx+68]
	mov	DWORD PTR $T222291[ebp], eax
	mov	ecx, DWORD PTR _finder$[ebp]
	mov	edx, DWORD PTR [ecx+64]
	mov	DWORD PTR $T222295[ebp], edx
	mov	eax, DWORD PTR $T222314[ebp]
	mov	DWORD PTR tv313[ebp], eax
	cmp	DWORD PTR $T222295[ebp], -2147483647	; 80000001H
	je	SHORT $LN148@PathCost
	cmp	DWORD PTR $T222291[ebp], -2147483647	; 80000001H
	jne	SHORT $LN149@PathCost
$LN148@PathCost:
	mov	DWORD PTR tv313[ebp], 0
	jmp	SHORT $LN150@PathCost
$LN149@PathCost:
	mov	ecx, DWORD PTR _kMap$[ebp]
	mov	edx, DWORD PTR [ecx+4020]
	mov	DWORD PTR $T222301[ebp], edx
	mov	eax, DWORD PTR $T222291[ebp]
	imul	eax, DWORD PTR $T222301[ebp]
	add	eax, DWORD PTR $T222295[ebp]
	imul	eax, 484				; 000001e4H
	mov	ecx, DWORD PTR _kMap$[ebp]
	add	eax, DWORD PTR [ecx+4068]
	mov	DWORD PTR tv313[ebp], eax
$LN150@PathCost:
	jmp	SHORT $LN49@PathCost
$LN48@PathCost:
	mov	DWORD PTR tv313[ebp], 0
$LN49@PathCost:
	mov	edx, DWORD PTR tv313[ebp]
	mov	DWORD PTR _pDestPlot$219315[ebp], edx

; 1467 : 				if (!pDestPlot || pDestPlot->getOwner() != ePlotOwner)

	cmp	DWORD PTR _pDestPlot$219315[ebp], 0
	je	SHORT $LN162@PathCost
	mov	eax, DWORD PTR _pDestPlot$219315[ebp]
	movsx	ecx, BYTE PTR [eax+4]
	cmp	ecx, DWORD PTR _ePlotOwner$219314[ebp]
	je	$LN20@PathCost

; 1468 : 				{
; 1469 : 					TeamTypes ePlotTeam = pToPlot->getTeam();

$LN162@PathCost:
	mov	edx, DWORD PTR _pToPlot$[ebp]
	movsx	eax, BYTE PTR [edx+4]
	mov	DWORD PTR _playerID$222331[ebp], eax
	cmp	DWORD PTR _playerID$222331[ebp], -1
	je	SHORT $LN159@PathCost
	mov	ecx, DWORD PTR _playerID$222331[ebp]
	push	ecx
	call	?teamType@CvPreGame@@YA?AW4TeamTypes@@W4PlayerTypes@@@Z ; CvPreGame::teamType
	add	esp, 4
	mov	DWORD PTR _ePlotTeam$219318[ebp], eax
	jmp	SHORT $LN160@PathCost
	jmp	SHORT $LN160@PathCost
$LN159@PathCost:
	mov	DWORD PTR _ePlotTeam$219318[ebp], -1
$LN160@PathCost:

; 1470 : 					if (ePlotOwner != NO_PLAYER && !GET_PLAYER(ePlotOwner).isMinorCiv() && ePlotTeam != pCacheData->getTeam() && !GET_TEAM(ePlotTeam).IsAllowsOpenBordersToTeam(pCacheData->getTeam()))

	cmp	DWORD PTR _ePlotOwner$219314[ebp], -1
	je	$LN20@PathCost
	mov	edx, DWORD PTR _ePlotOwner$219314[ebp]
	imul	edx, 63236				; 0000f704H
	add	edx, DWORD PTR ?m_aPlayers@CvPlayerAI@@1PAV1@A ; CvPlayerAI::m_aPlayers
	mov	DWORD PTR $T222337[ebp], edx
	mov	ecx, DWORD PTR $T222337[ebp]
	call	?isMinorCiv@CvPlayer@@QBE_NXZ		; CvPlayer::isMinorCiv
	movzx	eax, al
	test	eax, eax
	jne	SHORT $LN20@PathCost
	mov	ecx, DWORD PTR _pCacheData$[ebp]
	mov	edx, DWORD PTR [ecx+28]
	mov	DWORD PTR $T222341[ebp], edx
	mov	eax, DWORD PTR _ePlotTeam$219318[ebp]
	cmp	eax, DWORD PTR $T222341[ebp]
	je	SHORT $LN20@PathCost
	mov	ecx, DWORD PTR _pCacheData$[ebp]
	mov	edx, DWORD PTR [ecx+28]
	mov	DWORD PTR $T222345[ebp], edx
	mov	eax, DWORD PTR _ePlotTeam$219318[ebp]
	imul	eax, 2984				; 00000ba8H
	add	eax, DWORD PTR ?m_aTeams@CvTeam@@1PAV1@A ; CvTeam::m_aTeams
	mov	DWORD PTR $T222349[ebp], eax
	mov	ecx, DWORD PTR $T222345[ebp]
	push	ecx
	mov	ecx, DWORD PTR $T222349[ebp]
	call	?IsAllowsOpenBordersToTeam@CvTeam@@QBE_NW4TeamTypes@@@Z ; CvTeam::IsAllowsOpenBordersToTeam
	movzx	edx, al
	test	edx, edx
	jne	SHORT $LN20@PathCost

; 1471 : 					{
; 1472 : #ifdef AUI_ASTAR_HUMAN_UNITS_GET_DIMINISHED_AVOID_WEIGHT
; 1473 : #ifdef AUI_ASTAR_MINOR_OPTIMIZATION
; 1474 : 						if (bIsAIControl)
; 1475 : #else
; 1476 : 						if (!pCacheData->isHuman() || pCacheData->IsAutomated())
; 1477 : #endif
; 1478 : 						{
; 1479 : 							iCost += PATH_END_TURN_MISSIONARY_OTHER_TERRITORY;
; 1480 : 						}
; 1481 : 						else
; 1482 : 						{
; 1483 : 							iCost += AUI_ASTAR_HUMAN_UNITS_GET_DIMINISHED_AVOID_WEIGHT + PATH_TERRITORY_WEIGHT;
; 1484 : 						}
; 1485 : #else
; 1486 : 						iCost += PATH_END_TURN_MISSIONARY_OTHER_TERRITORY;

	mov	eax, DWORD PTR _iCost$[ebp]
	add	eax, 150000				; 000249f0H
	mov	DWORD PTR _iCost$[ebp], eax
$LN20@PathCost:

; 1487 : #endif
; 1488 : 					}
; 1489 : 				}
; 1490 : 			}
; 1491 : 		}
; 1492 : 		else

	jmp	SHORT $LN15@PathCost

; 1493 : 		{
; 1494 : 			if(pToPlot->getTeam() != eUnitTeam)

$LN178@PathCost:
	mov	ecx, DWORD PTR _pToPlot$[ebp]
	movsx	edx, BYTE PTR [ecx+4]
	mov	DWORD PTR _playerID$222363[ebp], edx
	cmp	DWORD PTR _playerID$222363[ebp], -1
	je	SHORT $LN175@PathCost
	mov	eax, DWORD PTR _playerID$222363[ebp]
	push	eax
	call	?teamType@CvPreGame@@YA?AW4TeamTypes@@W4PlayerTypes@@@Z ; CvPreGame::teamType
	add	esp, 4
	mov	DWORD PTR $T222366[ebp], eax
	jmp	SHORT $LN176@PathCost
	jmp	SHORT $LN176@PathCost
$LN175@PathCost:
	mov	DWORD PTR $T222366[ebp], -1
$LN176@PathCost:
	mov	ecx, DWORD PTR $T222366[ebp]
	cmp	ecx, DWORD PTR _eUnitTeam$[ebp]
	je	SHORT $LN15@PathCost

; 1495 : 			{
; 1496 : 				iCost += PATH_TERRITORY_WEIGHT;

	mov	edx, DWORD PTR _iCost$[ebp]
	add	edx, 3
	mov	DWORD PTR _iCost$[ebp], edx
$LN15@PathCost:

; 1497 : 			}
; 1498 : 		}
; 1499 : 
; 1500 : #if PATH_CITY_AVOID_WEIGHT != 0
; 1501 : 		if(pToPlot->getPlotCity() && !(pToPlot->getX() == finder->GetDestX() && pToPlot->getY() == finder->GetDestY()))
; 1502 : 		{
; 1503 : 			iCost += PATH_CITY_AVOID_WEIGHT; // slewis - this should be zeroed out currently
; 1504 : 		}
; 1505 : #endif
; 1506 : 	}
; 1507 : 	else

	jmp	SHORT $LN13@PathCost
$LN33@PathCost:

; 1508 : 	{
; 1509 : 		iCost = (PATH_MOVEMENT_WEIGHT * iCost);

	mov	eax, DWORD PTR _iCost$[ebp]
	imul	eax, 1000				; 000003e8H
	mov	DWORD PTR _iCost$[ebp], eax
$LN13@PathCost:

; 1510 : 	}
; 1511 : 
; 1512 : 	if(bMaximizeExplore)

	movzx	ecx, BYTE PTR _bMaximizeExplore$[ebp]
	test	ecx, ecx
	je	SHORT $LN12@PathCost

; 1513 : 	{
; 1514 : #ifdef AUI_ASTAR_FIX_MAXIMIZE_EXPLORE_CONSIDER_2ND_RING_NONREVEALED
; 1515 : 		int iUnseenPlots = pToPlot->getNumNonrevealedInRange(eUnitTeam, pToPlot->seeFromLevel(eUnitTeam));
; 1516 : #else
; 1517 : 		int iUnseenPlots = pToPlot->getNumAdjacentNonrevealed(eUnitTeam);

	mov	edx, DWORD PTR _eUnitTeam$[ebp]
	push	edx
	mov	ecx, DWORD PTR _pToPlot$[ebp]
	call	?getNumAdjacentNonrevealed@CvPlot@@QBEHW4TeamTypes@@@Z ; CvPlot::getNumAdjacentNonrevealed
	mov	DWORD PTR _iUnseenPlots$219324[ebp], eax

; 1518 : #endif
; 1519 : 		if(!pToPlot->isRevealed(eUnitTeam))

	mov	eax, DWORD PTR _eUnitTeam$[ebp]
	shr	eax, 5
	mov	DWORD PTR _uiOffset$222375[ebp], eax
	mov	ecx, DWORD PTR _uiOffset$222375[ebp]
	shl	ecx, 5
	mov	edx, DWORD PTR _eUnitTeam$[ebp]
	sub	edx, ecx
	mov	eax, 1
	mov	ecx, edx
	shl	eax, cl
	mov	ecx, DWORD PTR _uiOffset$222375[ebp]
	mov	edx, DWORD PTR _pToPlot$[ebp]
	and	eax, DWORD PTR [edx+ecx*4+8]
	setne	al
	movzx	ecx, al
	test	ecx, ecx
	jne	SHORT $LN11@PathCost

; 1520 : 		{
; 1521 : 			iUnseenPlots += 1;

	mov	edx, DWORD PTR _iUnseenPlots$219324[ebp]
	add	edx, 1
	mov	DWORD PTR _iUnseenPlots$219324[ebp], edx
$LN11@PathCost:

; 1522 : 		}
; 1523 : 
; 1524 : 		iCost += (7 - iUnseenPlots) * PATH_EXPLORE_NON_REVEAL_WEIGHT;

	mov	eax, 7
	sub	eax, DWORD PTR _iUnseenPlots$219324[ebp]
	imul	eax, 10					; 0000000aH
	add	eax, DWORD PTR _iCost$[ebp]
	mov	DWORD PTR _iCost$[ebp], eax
$LN12@PathCost:

; 1525 : 	}
; 1526 : 
; 1527 : 	// If we are a land unit and we are moving through the water, make the cost a little higher so that
; 1528 : 	// we favor staying on land or getting back to land as quickly as possible because it is dangerous to
; 1529 : 	// be on the water.  Don't add this penalty if the unit is human controlled however, we will assume they want
; 1530 : 	// the best path, rather than the safest.
; 1531 : #ifdef AUI_ASTAR_HUMAN_UNITS_GET_DIMINISHED_AVOID_WEIGHT
; 1532 : 	if (eUnitDomain == DOMAIN_LAND && bToPlotIsWater)
; 1533 : 	{
; 1534 : #ifdef AUI_ASTAR_MINOR_OPTIMIZATION
; 1535 : 		if (bIsAIControl)
; 1536 : #else
; 1537 : 		if (!pCacheData->isHuman() || pCacheData->IsAutomated())
; 1538 : #endif
; 1539 : 		{
; 1540 : 			iCost += PATH_THROUGH_WATER;
; 1541 : 		}
; 1542 : 		else
; 1543 : 		{
; 1544 : 			iCost += AUI_ASTAR_HUMAN_UNITS_GET_DIMINISHED_AVOID_WEIGHT + PATH_TERRITORY_WEIGHT;
; 1545 : 		}
; 1546 : 	}
; 1547 : #else
; 1548 : 	if(eUnitDomain == DOMAIN_LAND && bToPlotIsWater && (!pCacheData->isHuman() || pCacheData->IsAutomated()))

	cmp	DWORD PTR _eUnitDomain$[ebp], 2
	jne	SHORT $LN190@PathCost
	movzx	ecx, BYTE PTR _bToPlotIsWater$[ebp]
	test	ecx, ecx
	je	SHORT $LN190@PathCost
	mov	edx, DWORD PTR _pCacheData$[ebp]
	mov	al, BYTE PTR [edx+36]
	mov	BYTE PTR $T222380[ebp], al
	movzx	ecx, BYTE PTR $T222380[ebp]
	test	ecx, ecx
	je	SHORT $LN9@PathCost
	mov	edx, DWORD PTR _pCacheData$[ebp]
	mov	al, BYTE PTR [edx+37]
	mov	BYTE PTR $T222384[ebp], al
	movzx	ecx, BYTE PTR $T222384[ebp]
	test	ecx, ecx
	je	SHORT $LN190@PathCost
$LN9@PathCost:

; 1549 : 	{
; 1550 : 		iCost += PATH_THROUGH_WATER;

	mov	edx, DWORD PTR _iCost$[ebp]
	add	edx, 1000				; 000003e8H
	mov	DWORD PTR _iCost$[ebp], edx

; 1551 : 	}
; 1552 : #endif
; 1553 : 
; 1554 : 	if(pUnit->IsCombatUnit())

$LN190@PathCost:
	mov	eax, DWORD PTR _pUnit$[ebp]
	xor	ecx, ecx
	cmp	DWORD PTR [eax+1044], 0
	setg	cl
	movzx	edx, cl
	test	edx, edx
	je	$LN8@PathCost

; 1555 : 	{
; 1556 : #if defined(AUI_ASTAR_AVOID_RIVER_CROSSING_WHEN_ATTACKING) || defined(AUI_ASTAR_CONSIDER_DAMAGE_WHEN_ATTACKING)
; 1557 : 		bool bToPlotHasEnemy = pToPlot->isVisibleEnemyDefender(pUnit) || pToPlot->isEnemyCity(*pUnit);
; 1558 : 		if (iMovesLeft == 0 && !bToPlotHasEnemy)
; 1559 : #else
; 1560 : 		if(iMovesLeft == 0)

	cmp	DWORD PTR _iMovesLeft$[ebp], 0
	jne	SHORT $LN7@PathCost

; 1561 : #endif
; 1562 : 		{
; 1563 : #ifdef AUI_ASTAR_FIX_DEFENSE_PENALTIES_CONSIDERED_FOR_UNITS_WITHOUT_DEFENSE_BONUS
; 1564 : 			int iDefenseBonus = pToPlot->defenseModifier(eUnitTeam, false);
; 1565 : 			if (iDefenseBonus > 0)
; 1566 : 			{
; 1567 : 				if (pUnit->noDefensiveBonus())
; 1568 : 					iDefenseBonus = 0;
; 1569 : 				else if (iDefenseBonus > 200)
; 1570 : 					iDefenseBonus = 200;
; 1571 : 			}
; 1572 : 			iCost += PATH_DEFENSE_WEIGHT * (200 - iDefenseBonus);
; 1573 : #elif defined(AUI_ASTAR_MINOR_OPTIMIZATION)
; 1574 : 			iCost += (PATH_DEFENSE_WEIGHT * MAX(0, (200 - ((pUnit->noDefensiveBonus()) ? 0 : pToPlot->defenseModifier(eUnitTeam, false)))));
; 1575 : #else
; 1576 : 			iCost += (PATH_DEFENSE_WEIGHT * std::max(0, (200 - ((pUnit->noDefensiveBonus()) ? 0 : pToPlot->defenseModifier(eUnitTeam, false)))));

	mov	ecx, DWORD PTR _pUnit$[ebp]
	call	?noDefensiveBonus@CvUnit@@QBE_NXZ	; CvUnit::noDefensiveBonus
	movzx	eax, al
	test	eax, eax
	je	SHORT $LN50@PathCost
	mov	DWORD PTR tv390[ebp], 0
	jmp	SHORT $LN51@PathCost
$LN50@PathCost:
	push	0
	push	0
	mov	ecx, DWORD PTR _eUnitTeam$[ebp]
	push	ecx
	mov	ecx, DWORD PTR _pToPlot$[ebp]
	call	?defenseModifier@CvPlot@@QBEHW4TeamTypes@@_N1@Z ; CvPlot::defenseModifier
	mov	DWORD PTR tv390[ebp], eax
$LN51@PathCost:
	mov	edx, 200				; 000000c8H
	sub	edx, DWORD PTR tv390[ebp]
	mov	DWORD PTR $T222098[ebp], edx
	mov	DWORD PTR $T222101[ebp], 0
	mov	eax, DWORD PTR $T222101[ebp]
	cmp	eax, DWORD PTR $T222098[ebp]
	jge	SHORT $LN196@PathCost
	lea	ecx, DWORD PTR $T222098[ebp]
	mov	DWORD PTR tv354[ebp], ecx
	jmp	SHORT $LN197@PathCost
$LN196@PathCost:
	lea	edx, DWORD PTR $T222101[ebp]
	mov	DWORD PTR tv354[ebp], edx
$LN197@PathCost:
	mov	eax, DWORD PTR tv354[ebp]
	mov	DWORD PTR $T222398[ebp], eax
	mov	ecx, DWORD PTR $T222398[ebp]
	mov	edx, DWORD PTR [ecx]
	imul	edx, 10					; 0000000aH
	add	edx, DWORD PTR _iCost$[ebp]
	mov	DWORD PTR _iCost$[ebp], edx
$LN7@PathCost:

; 1577 : #endif
; 1578 : 		}
; 1579 : 
; 1580 : #if !defined(AUI_ASTAR_AVOID_RIVER_CROSSING_WHEN_ATTACKING) && !defined(AUI_ASTAR_CONSIDER_DAMAGE_WHEN_ATTACKING)
; 1581 : 		if(pCacheData->IsAutomated())

	mov	eax, DWORD PTR _pCacheData$[ebp]
	mov	cl, BYTE PTR [eax+37]
	mov	BYTE PTR $T222405[ebp], cl
	movzx	edx, BYTE PTR $T222405[ebp]
	test	edx, edx
	je	$LN8@PathCost

; 1582 : #endif
; 1583 : 		{
; 1584 : 			if(pCacheData->IsCanAttack())

	mov	eax, DWORD PTR _pCacheData$[ebp]
	mov	cl, BYTE PTR [eax+42]
	mov	BYTE PTR $T222409[ebp], cl
	movzx	edx, BYTE PTR $T222409[ebp]
	test	edx, edx
	je	$LN8@PathCost

; 1585 : 			{
; 1586 : 				if(finder->IsPathDest(iToPlotX, iToPlotY))

	mov	eax, DWORD PTR _finder$[ebp]
	cmp	DWORD PTR [eax], 0
	je	SHORT $LN202@PathCost
	mov	ecx, DWORD PTR _finder$[ebp]
	push	ecx
	mov	edx, DWORD PTR _finder$[ebp]
	mov	eax, DWORD PTR [edx+44]
	push	eax
	mov	ecx, DWORD PTR _iToPlotY$[ebp]
	push	ecx
	mov	edx, DWORD PTR _iToPlotX$[ebp]
	push	edx
	mov	eax, DWORD PTR _finder$[ebp]
	mov	ecx, DWORD PTR [eax]
	call	ecx
	add	esp, 16					; 00000010H
	test	eax, eax
	je	SHORT $LN202@PathCost
	mov	BYTE PTR $T222414[ebp], 1
	jmp	SHORT $LN203@PathCost
$LN202@PathCost:
	mov	BYTE PTR $T222414[ebp], 0
$LN203@PathCost:
	movzx	edx, BYTE PTR $T222414[ebp]
	test	edx, edx
	je	$LN8@PathCost

; 1587 : 				{
; 1588 : #if defined(AUI_ASTAR_AVOID_RIVER_CROSSING_WHEN_ATTACKING) || defined(AUI_ASTAR_CONSIDER_DAMAGE_WHEN_ATTACKING)
; 1589 : 					if (bToPlotHasEnemy)
; 1590 : #else
; 1591 : 					if(pToPlot->isVisibleEnemyDefender(pUnit))

	mov	eax, DWORD PTR _pUnit$[ebp]
	push	eax
	mov	ecx, DWORD PTR _pToPlot$[ebp]
	call	?isVisibleEnemyDefender@CvPlot@@QBE_NPBVCvUnit@@@Z ; CvPlot::isVisibleEnemyDefender
	movzx	ecx, al
	test	ecx, ecx
	je	$LN8@PathCost

; 1592 : #endif
; 1593 : 					{
; 1594 : #ifdef AUI_ASTAR_CONSIDER_DAMAGE_WHEN_ATTACKING
; 1595 : 						int iDealtDamage = 0;
; 1596 : 						int iSelfDamage = 0;
; 1597 : 						CvCity* pCity = pToPlot->getPlotCity();
; 1598 : 						if (pCity)
; 1599 : 						{
; 1600 : 							int iAttackerStrength = pUnit->GetMaxAttackStrength(pFromPlot, pToPlot, NULL);
; 1601 : 							int iDefenderStrength = pCity->getStrengthValue();
; 1602 : 
; 1603 : 							iDealtDamage = pUnit->getCombatDamage(iAttackerStrength, iDefenderStrength, pUnit->getDamage(), /*bIncludeRand*/ false, /*bAttackerIsCity*/ false, /*bDefenderIsCity*/ true);
; 1604 : 							iSelfDamage = pUnit->getCombatDamage(iDefenderStrength, iAttackerStrength, pCity->getDamage(), /*bIncludeRand*/ false, /*bAttackerIsCity*/ true, /*bDefenderIsCity*/ false);
; 1605 : 
; 1606 : 							// Will both the attacker die, and the city fall? If so, the unit wins
; 1607 : 							if (iDealtDamage + pCity->getDamage() >= pCity->GetMaxHitPoints())
; 1608 : 							{
; 1609 : 								if (pUnit->isNoCapture())
; 1610 : 									iDealtDamage = pCity->GetMaxHitPoints() - pCity->getDamage() - 1;
; 1611 : 								if (iSelfDamage >= pUnit->GetCurrHitPoints())
; 1612 : 									iSelfDamage = pUnit->GetCurrHitPoints() - 1;
; 1613 : 							}
; 1614 : 					}
; 1615 : 						else
; 1616 : 						{
; 1617 : 							CvUnit* pDefender = pToPlot->getVisibleEnemyDefender(pUnit);
; 1618 : 							if (pDefender && pDefender->IsCanDefend())
; 1619 : 							{
; 1620 : 								// handle the Zulu special thrown spear first attack
; 1621 : 								if (pUnit->isRangedSupportFire() && pUnit->canEverRangeStrikeAt(pToPlot->getX(), pToPlot->getY()))
; 1622 : 									iDealtDamage = pUnit->GetRangeCombatDamage(pDefender, /*pCity*/ NULL, /*bIncludeRand*/ false);
; 1623 : 
; 1624 : 								if (iDealtDamage < pDefender->GetCurrHitPoints())
; 1625 : 								{
; 1626 : 									int iAttackerStrength = pUnit->GetMaxAttackStrength(pFromPlot, pToPlot, pDefender);
; 1627 : 									int iDefenderStrength = pDefender->GetMaxDefenseStrength(pToPlot, pUnit);
; 1628 : 
; 1629 : #ifdef NQ_HEAVY_CHARGE_DOWNHILL
; 1630 : 									bool isAttackingFromHigherElevation = 
; 1631 : 										((pUnit->plot()->isMountain() && !pDefender->plot()->isMountain()) || // attacking from mountain to non-mountain
; 1632 : 										(pUnit->plot()->isHills() && pDefender->plot()->isFlatlands())); // attacking from hills to flatlands
; 1633 : 									if ((pUnit->IsCanHeavyCharge() || (pUnit->GetHeavyChargeDownhill() > 0 && isAttackingFromHigherElevation))
; 1634 : 										&& !pDefender->CanFallBackFromMelee(*pUnit))
; 1635 : #else
; 1636 : 									if (pUnit->IsCanHeavyCharge() && !pDefender->CanFallBackFromMelee(*pUnit))
; 1637 : #endif
; 1638 : 										iAttackerStrength = (iAttackerStrength * 150) / 100;
; 1639 : 
; 1640 : 									iSelfDamage = pDefender->getCombatDamage(iDefenderStrength, iAttackerStrength, pDefender->getDamage() + iDealtDamage, /*bIncludeRand*/ false, /*bAttackerIsCity*/ false, /*bDefenderIsCity*/ false);
; 1641 : 									iDealtDamage = pUnit->getCombatDamage(iAttackerStrength, iDefenderStrength, pUnit->getDamage(), /*bIncludeRand*/ false, /*bAttackerIsCity*/ false, /*bDefenderIsCity*/ false);
; 1642 : 
; 1643 : 									// Will both units be killed by this? :o If so, take drastic corrective measures
; 1644 : 									if (iDealtDamage >= pDefender->GetCurrHitPoints() && iSelfDamage >= pUnit->GetCurrHitPoints())
; 1645 : 									{
; 1646 : 										// He who hath the least amount of damage survives with 1 HP left
; 1647 : 										if (iDealtDamage + pDefender->getDamage() > iSelfDamage + pUnit->getDamage())
; 1648 : 											iSelfDamage = pUnit->GetCurrHitPoints() - 1;
; 1649 : 										else
; 1650 : 											iDealtDamage = pDefender->GetCurrHitPoints() - 1;
; 1651 : 									}
; 1652 : 								}
; 1653 : 							}
; 1654 : 						}
; 1655 : 						if (iSelfDamage > pUnit->GetCurrHitPoints())
; 1656 : 							iSelfDamage = pUnit->GetMaxHitPoints();
; 1657 : 						if (iDealtDamage > GC.getMAX_HIT_POINTS())
; 1658 : 							iDealtDamage = GC.getMAX_HIT_POINTS();
; 1659 : 						iCost += iSelfDamage * PATH_DAMAGE_WEIGHT * pUnit->GetMaxHitPoints() / 100 + (GC.getMAX_HIT_POINTS() - iDealtDamage) * PATH_DAMAGE_WEIGHT / 10;
; 1660 : #elif defined(AUI_ASTAR_FIX_DEFENSE_PENALTIES_CONSIDERED_FOR_UNITS_WITHOUT_DEFENSE_BONUS)
; 1661 : 						int iDefenseBonus = pFromPlot->defenseModifier(eUnitTeam, false);
; 1662 : 						if (iDefenseBonus > 0)
; 1663 : 						{
; 1664 : 							if (pUnit->noDefensiveBonus())
; 1665 : 								iDefenseBonus = 0;
; 1666 : 							else if (iDefenseBonus > 200)
; 1667 : 								iDefenseBonus = 200;
; 1668 : 						}
; 1669 : 						iCost += PATH_DEFENSE_WEIGHT * (200 - iDefenseBonus);
; 1670 : #else
; 1671 : #if defined(AUI_ASTAR_MINOR_OPTIMIZATION)
; 1672 : 						iCost += (PATH_DEFENSE_WEIGHT * MAX(0, (200 - ((pUnit->noDefensiveBonus()) ? 0 : pFromPlot->defenseModifier(eUnitTeam, false)))));
; 1673 : #else
; 1674 : 						iCost += (PATH_DEFENSE_WEIGHT * std::max(0, (200 - ((pUnit->noDefensiveBonus()) ? 0 : pFromPlot->defenseModifier(eUnitTeam, false)))));

	mov	ecx, DWORD PTR _pUnit$[ebp]
	call	?noDefensiveBonus@CvUnit@@QBE_NXZ	; CvUnit::noDefensiveBonus
	movzx	edx, al
	test	edx, edx
	je	SHORT $LN52@PathCost
	mov	DWORD PTR tv425[ebp], 0
	jmp	SHORT $LN53@PathCost
$LN52@PathCost:
	push	0
	push	0
	mov	eax, DWORD PTR _eUnitTeam$[ebp]
	push	eax
	mov	ecx, DWORD PTR _pFromPlot$[ebp]
	call	?defenseModifier@CvPlot@@QBEHW4TeamTypes@@_N1@Z ; CvPlot::defenseModifier
	mov	DWORD PTR tv425[ebp], eax
$LN53@PathCost:
	mov	ecx, 200				; 000000c8H
	sub	ecx, DWORD PTR tv425[ebp]
	mov	DWORD PTR $T222102[ebp], ecx
	mov	DWORD PTR $T222105[ebp], 0
	mov	edx, DWORD PTR $T222105[ebp]
	cmp	edx, DWORD PTR $T222102[ebp]
	jge	SHORT $LN207@PathCost
	lea	eax, DWORD PTR $T222102[ebp]
	mov	DWORD PTR tv407[ebp], eax
	jmp	SHORT $LN208@PathCost
$LN207@PathCost:
	lea	ecx, DWORD PTR $T222105[ebp]
	mov	DWORD PTR tv407[ebp], ecx
$LN208@PathCost:
	mov	edx, DWORD PTR tv407[ebp]
	mov	DWORD PTR $T222420[ebp], edx
	mov	eax, DWORD PTR $T222420[ebp]
	mov	ecx, DWORD PTR [eax]
	imul	ecx, 10					; 0000000aH
	add	ecx, DWORD PTR _iCost$[ebp]
	mov	DWORD PTR _iCost$[ebp], ecx

; 1675 : #endif
; 1676 : 
; 1677 : 						// I guess we may as well be the garrison
; 1678 : #if PATH_CITY_WEIGHT != 0
; 1679 : 						if(!(pFromPlot->isCity()))
; 1680 : 						{
; 1681 : 							iCost += PATH_CITY_WEIGHT;
; 1682 : 						}
; 1683 : #endif
; 1684 : 
; 1685 : 						if(pFromPlot->isRiverCrossing(directionXY(iFromPlotX, iFromPlotY, iToPlotX, iToPlotY)))

	mov	edx, DWORD PTR _iToPlotY$[ebp]
	push	edx
	mov	eax, DWORD PTR _iToPlotX$[ebp]
	push	eax
	mov	ecx, DWORD PTR _iFromPlotY$[ebp]
	push	ecx
	mov	edx, DWORD PTR _iFromPlotX$[ebp]
	push	edx
	call	?directionXY@@YA?AW4DirectionTypes@@HHHH@Z ; directionXY
	add	esp, 16					; 00000010H
	push	eax
	mov	ecx, DWORD PTR _pFromPlot$[ebp]
	call	?isRiverCrossing@CvPlot@@QBE_NW4DirectionTypes@@@Z ; CvPlot::isRiverCrossing
	movzx	eax, al
	test	eax, eax
	je	SHORT $LN8@PathCost

; 1686 : 						{
; 1687 : 							if(!(pUnit->isRiverCrossingNoPenalty()))

	mov	ecx, DWORD PTR _pUnit$[ebp]
	call	?isRiverCrossingNoPenalty@CvUnit@@QBE_NXZ ; CvUnit::isRiverCrossingNoPenalty
	movzx	ecx, al
	test	ecx, ecx
	jne	SHORT $LN8@PathCost

; 1688 : 							{
; 1689 : 								iCost += (PATH_RIVER_WEIGHT * -(GC.getRIVER_ATTACK_MODIFIER()));

	mov	edx, DWORD PTR ?gGlobals@@3VCvGlobals@@A+7388
	mov	DWORD PTR $T222482[ebp], edx
	mov	eax, DWORD PTR $T222482[ebp]
	neg	eax
	imul	eax, 100				; 00000064H
	add	eax, DWORD PTR _iCost$[ebp]
	mov	DWORD PTR _iCost$[ebp], eax

; 1690 : 								iCost += (PATH_MOVEMENT_WEIGHT * iMovesLeft);

	mov	ecx, DWORD PTR _iMovesLeft$[ebp]
	imul	ecx, 1000				; 000003e8H
	add	ecx, DWORD PTR _iCost$[ebp]
	mov	DWORD PTR _iCost$[ebp], ecx
$LN8@PathCost:

; 1691 : 							}
; 1692 : 						}
; 1693 : #endif
; 1694 : 					}
; 1695 : 				}
; 1696 : 			}
; 1697 : 		}
; 1698 : 	}
; 1699 : 
; 1700 : 	FAssert(iCost != MAX_INT);
; 1701 : 
; 1702 : 	iCost += PATH_STEP_WEIGHT;

	mov	edx, DWORD PTR _iCost$[ebp]
	add	edx, 2
	mov	DWORD PTR _iCost$[ebp], edx

; 1703 : 
; 1704 : 	FAssert(iCost > 0);
; 1705 : 
; 1706 : 	return iCost;

	mov	eax, DWORD PTR _iCost$[ebp]

; 1707 : }

	mov	esp, ebp
	pop	ebp
	ret	0
?PathCost@@YAHPAVCvAStarNode@@0HPBXPAVCvAStar@@@Z ENDP	; PathCost
; Function compile flags: /Odtp
; File d:\sources\lekmod_git\checkout\lekmod_dll\cvgamecoredll_expansion2\cvgamecoreutils.h
_TEXT	ENDS
;	COMDAT ?directionXY@@YA?AW4DirectionTypes@@HHHH@Z
_TEXT	SEGMENT
tv90 = -56						; size = 4
tv86 = -52						; size = 4
_iDestHexX$ = -16					; size = 4
_iWrappedXOffset$ = -12					; size = 4
_iSourceHexX$ = -8					; size = 4
_iWrappedYOffset$ = -4					; size = 4
_iSourceX$ = 8						; size = 4
_iSourceY$ = 12						; size = 4
_iDestX$ = 16						; size = 4
_iDestY$ = 20						; size = 4
?directionXY@@YA?AW4DirectionTypes@@HHHH@Z PROC		; directionXY, COMDAT

; 264  : {

	push	ebp
	mov	ebp, esp
	sub	esp, 56					; 00000038H

; 265  : 	int iSourceHexX = xToHexspaceX(iSourceX, iSourceY);

	cmp	DWORD PTR _iSourceY$[ebp], 0
	jl	SHORT $LN17@directionX
	mov	eax, DWORD PTR _iSourceY$[ebp]
	sar	eax, 1
	mov	DWORD PTR tv86[ebp], eax
	jmp	SHORT $LN15@directionX
$LN17@directionX:
	mov	eax, DWORD PTR _iSourceY$[ebp]
	sub	eax, 1
	cdq
	sub	eax, edx
	sar	eax, 1
	mov	DWORD PTR tv86[ebp], eax
$LN15@directionX:
	mov	ecx, DWORD PTR _iSourceX$[ebp]
	sub	ecx, DWORD PTR tv86[ebp]
	mov	DWORD PTR _iSourceHexX$[ebp], ecx

; 266  : 	int iDestHexX = xToHexspaceX(iDestX, iDestY);

	cmp	DWORD PTR _iDestY$[ebp], 0
	jl	SHORT $LN21@directionX
	mov	edx, DWORD PTR _iDestY$[ebp]
	sar	edx, 1
	mov	DWORD PTR tv90[ebp], edx
	jmp	SHORT $LN19@directionX
$LN21@directionX:
	mov	eax, DWORD PTR _iDestY$[ebp]
	sub	eax, 1
	cdq
	sub	eax, edx
	sar	eax, 1
	mov	DWORD PTR tv90[ebp], eax
$LN19@directionX:
	mov	eax, DWORD PTR _iDestX$[ebp]
	sub	eax, DWORD PTR tv90[ebp]
	mov	DWORD PTR _iDestHexX$[ebp], eax

; 267  : 
; 268  : 	int iWrappedXOffset = dxWrap(iDestHexX - iSourceHexX);

	mov	ecx, DWORD PTR _iDestHexX$[ebp]
	sub	ecx, DWORD PTR _iSourceHexX$[ebp]
	push	ecx
	call	?dxWrap@@YAHH@Z				; dxWrap
	add	esp, 4
	mov	DWORD PTR _iWrappedXOffset$[ebp], eax

; 269  : 	int iWrappedYOffset = dyWrap(iDestY - iSourceY);

	mov	edx, DWORD PTR _iDestY$[ebp]
	sub	edx, DWORD PTR _iSourceY$[ebp]
	push	edx
	call	?dyWrap@@YAHH@Z				; dyWrap
	add	esp, 4
	mov	DWORD PTR _iWrappedYOffset$[ebp], eax

; 270  : 
; 271  : 	if(iWrappedYOffset > 0)

	cmp	DWORD PTR _iWrappedYOffset$[ebp], 0
	jle	SHORT $LN12@directionX

; 272  : 	{
; 273  : 		if(iWrappedXOffset >= 0)

	cmp	DWORD PTR _iWrappedXOffset$[ebp], 0
	jl	SHORT $LN11@directionX

; 274  : 		{
; 275  : 			return DIRECTION_NORTHEAST;

	xor	eax, eax
	jmp	SHORT $LN13@directionX

; 276  : 		}
; 277  : 		else

	jmp	SHORT $LN10@directionX
$LN11@directionX:

; 278  : 		{
; 279  : 			return DIRECTION_NORTHWEST;

	mov	eax, 5
	jmp	SHORT $LN13@directionX
$LN10@directionX:

; 280  : 		}

	jmp	SHORT $LN13@directionX
$LN12@directionX:

; 281  : 	}
; 282  : 	else if(iWrappedYOffset == 0)

	cmp	DWORD PTR _iWrappedYOffset$[ebp], 0
	jne	SHORT $LN8@directionX

; 283  : 	{
; 284  : 		if(iWrappedXOffset > 0)

	cmp	DWORD PTR _iWrappedXOffset$[ebp], 0
	jle	SHORT $LN7@directionX

; 285  : 		{
; 286  : 			return DIRECTION_EAST;

	mov	eax, 1
	jmp	SHORT $LN13@directionX
	jmp	SHORT $LN6@directionX
$LN7@directionX:

; 287  : 		}
; 288  : 		else if(iWrappedXOffset == 0)

	cmp	DWORD PTR _iWrappedXOffset$[ebp], 0
	jne	SHORT $LN5@directionX

; 289  : 		{
; 290  : 			return NO_DIRECTION;

	or	eax, -1
	jmp	SHORT $LN13@directionX

; 291  : 		}
; 292  : 		else

	jmp	SHORT $LN6@directionX
$LN5@directionX:

; 293  : 		{
; 294  : 			return DIRECTION_WEST;

	mov	eax, 4
	jmp	SHORT $LN13@directionX
$LN6@directionX:

; 295  : 		}
; 296  : 	}
; 297  : 	else// if (iWrappedYOffset < 0)

	jmp	SHORT $LN13@directionX
$LN8@directionX:

; 298  : 	{
; 299  : 		if(iWrappedXOffset > 0)

	cmp	DWORD PTR _iWrappedXOffset$[ebp], 0
	jle	SHORT $LN2@directionX

; 300  : 		{
; 301  : 			return DIRECTION_SOUTHEAST;

	mov	eax, 2
	jmp	SHORT $LN13@directionX

; 302  : 		}
; 303  : 		else

	jmp	SHORT $LN13@directionX
$LN2@directionX:

; 304  : 		{
; 305  : 			return DIRECTION_SOUTHWEST;

	mov	eax, 3
$LN13@directionX:

; 306  : 		}
; 307  : 	}
; 308  : }

	mov	esp, ebp
	pop	ebp
	ret	0
?directionXY@@YA?AW4DirectionTypes@@HHHH@Z ENDP		; directionXY
_TEXT	ENDS
PUBLIC	?PathValid@@YAHPAVCvAStarNode@@0HPBXPAVCvAStar@@@Z ; PathValid
EXTRN	?canMoveThrough@CvUnit@@QBE_NABVCvPlot@@E@Z:PROC ; CvUnit::canMoveThrough
EXTRN	?atWar@@YA_NW4TeamTypes@@0@Z:PROC		; atWar
EXTRN	?isAdjacent@CvPlot@@QBE_NPBV1@@Z:PROC		; CvPlot::isAdjacent
EXTRN	?canMoveAllTerrain@CvUnit@@QBE_NXZ:PROC		; CvUnit::canMoveAllTerrain
EXTRN	?IsHoveringUnit@CvUnit@@QBE_NXZ:PROC		; CvUnit::IsHoveringUnit
EXTRN	?isOwned@CvPlot@@QBE_NXZ:PROC			; CvPlot::isOwned
EXTRN	?getDestructionNotification@CvUnit@@QAEAAU?$DestructionNotification@V?$FObjectHandle@VCvUnit@@@@@@XZ:PROC ; CvUnit::getDestructionNotification
EXTRN	?getBestDefender@CvPlot@@QAE?AV?$FObjectHandle@VCvUnit@@@@W4PlayerTypes@@0PBVCvUnit@@_N222@Z:PROC ; CvPlot::getBestDefender
EXTRN	?isVisibleEnemyUnit@CvPlot@@QBE_NPBVCvUnit@@@Z:PROC ; CvPlot::isVisibleEnemyUnit
EXTRN	?isEnemy@CvUnit@@QBE_NW4TeamTypes@@PBVCvPlot@@@Z:PROC ; CvUnit::isEnemy
EXTRN	?canEnterTerrain@CvUnit@@QBE_NABVCvPlot@@E@Z:PROC ; CvUnit::canEnterTerrain
EXTRN	?getActiveTeam@CvGame@@QAE?AW4TeamTypes@@XZ:PROC ; CvGame::getActiveTeam
; Function compile flags: /Odtp
; File d:\sources\lekmod_git\checkout\lekmod_dll\cvgamecoredll_expansion2\cvastar.cpp
;	COMDAT ?PathValid@@YAHPAVCvAStarNode@@0HPBXPAVCvAStar@@@Z
_TEXT	SEGMENT
tv285 = -240						; size = 4
tv281 = -236						; size = 4
tv240 = -232						; size = 4
tv237 = -228						; size = 4
tv222 = -224						; size = 4
tv200 = -219						; size = 1
tv192 = -218						; size = 1
tv169 = -217						; size = 1
tv161 = -216						; size = 1
tv152 = -215						; size = 1
tv139 = -214						; size = 1
tv128 = -213						; size = 1
tv78 = -212						; size = 4
tv75 = -208						; size = 4
$T222725 = -201						; size = 1
_playerID$222713 = -200					; size = 4
$T222650 = -196						; size = 4
$T222635 = -192						; size = 4
$T222634 = -188						; size = 4
$T222630 = -181						; size = 1
_pCity$222628 = -176					; size = 4
$T222619 = -172						; size = 4
_uiOffset$222604 = -164					; size = 4
$T222589 = -157						; size = 1
$T222576 = -156						; size = 4
$T222553 = -152						; size = 4
$T222543 = -148						; size = 8
_kNodeCacheData$219403 = -140				; size = 4
_pUnit$ = -136						; size = 4
_iFinderInfo$ = -132					; size = 4
_bAIControl$ = -126					; size = 1
_bUnitIsCombat$ = -125					; size = 1
_iDestX$ = -124						; size = 4
_iNodeX$ = -120						; size = 4
_bIsHuman$ = -113					; size = 1
_pUnitPlot$ = -112					; size = 4
_iUnitPlotLimit$ = -108					; size = 4
_pCacheData$ = -104					; size = 4
_pPlot$ = -100						; size = 4
_eUnitTeam$ = -96					; size = 4
_kToNodeCacheData$ = -92				; size = 4
_iFinderIgnoreStacking$ = -88				; size = 4
_iDestY$ = -84						; size = 4
_theMap$ = -80						; size = 4
_pCity$ = -76						; size = 4
_iUnitY$ = -72						; size = 4
_pNode$ = -68						; size = 4
_unit_domain_type$ = -64				; size = 4
_eFromPlotTeam$ = -60					; size = 4
_bPreviousNodeHostile$ = -53				; size = 1
_kUnitTeam$ = -52					; size = 4
_iUnitX$ = -48						; size = 4
_pFromPlot$ = -44					; size = 4
_bFromPlotOwned$ = -37					; size = 1
_iNumTurns$ = -36					; size = 4
_bFirstRun$ = -29					; size = 1
_kFromNodeCacheData$ = -28				; size = 4
_unit_owner$ = -24					; size = 4
_iNodeY$ = -20						; size = 4
_iStartMoves$ = -16					; size = 4
_pToPlot$ = -12						; size = 4
_bPreviousVisibleToTeam$ = -5				; size = 1
_iOldNumTurns$ = -4					; size = 4
_parent$ = 8						; size = 4
_node$ = 12						; size = 4
_data$ = 16						; size = 4
_pointer$ = 20						; size = 4
_finder$ = 24						; size = 4
?PathValid@@YAHPAVCvAStarNode@@0HPBXPAVCvAStar@@@Z PROC	; PathValid, COMDAT

; 1712 : {

	push	ebp
	mov	ebp, esp
	sub	esp, 240				; 000000f0H

; 1713 : #ifndef AUI_ASTAR_FIX_CAN_ENTER_TERRAIN_NO_DUPLICATE_CALLS
; 1714 : #ifdef AUI_ASTAR_CACHE_PLOTS_AT_NODES
; 1715 : 	CvPlot* pToPlot = node->m_pPlot;
; 1716 : 	if (!pToPlot)
; 1717 : 		return FALSE;
; 1718 : #else
; 1719 : 	CvMap& theMap = GC.getMap();

	mov	eax, DWORD PTR ?gGlobals@@3VCvGlobals@@A+52
	mov	DWORD PTR _theMap$[ebp], eax

; 1720 : 
; 1721 : 	CvPlot* pToPlot = theMap.plotUnchecked(node->m_iX, node->m_iY);

	mov	ecx, DWORD PTR _theMap$[ebp]
	mov	edx, DWORD PTR [ecx+4020]
	mov	DWORD PTR $T222553[ebp], edx
	mov	eax, DWORD PTR _node$[ebp]
	movsx	ecx, WORD PTR [eax+80]
	mov	edx, DWORD PTR _node$[ebp]
	movsx	eax, WORD PTR [edx+82]
	imul	eax, DWORD PTR $T222553[ebp]
	add	eax, ecx
	imul	eax, 484				; 000001e4H
	mov	ecx, DWORD PTR _theMap$[ebp]
	add	eax, DWORD PTR [ecx+4068]
	mov	DWORD PTR _pToPlot$[ebp], eax

; 1722 : #endif
; 1723 : 	PREFETCH_FASTAR_CVPLOT(reinterpret_cast<char*>(pToPlot));

	mov	edx, DWORD PTR _pToPlot$[ebp]
	mov	DWORD PTR tv75[ebp], edx
	mov	eax, DWORD PTR tv75[ebp]
	prefetcht0 BYTE PTR [eax]
	mov	ecx, DWORD PTR _pToPlot$[ebp]
	add	ecx, 64					; 00000040H
	mov	DWORD PTR tv78[ebp], ecx
	mov	edx, DWORD PTR tv78[ebp]
	prefetcht0 BYTE PTR [edx]

; 1724 : #endif
; 1725 : 
; 1726 : 	CvUnit* pUnit = ((CvUnit*)pointer);

	mov	eax, DWORD PTR _pointer$[ebp]
	mov	DWORD PTR _pUnit$[ebp], eax

; 1727 : 	const UnitPathCacheData* pCacheData = reinterpret_cast<const UnitPathCacheData*>(finder->GetScratchBuffer());

	mov	ecx, DWORD PTR _finder$[ebp]
	add	ecx, 116				; 00000074H
	mov	DWORD PTR _pCacheData$[ebp], ecx

; 1728 : 	TeamTypes eUnitTeam = pCacheData->getTeam();

	mov	edx, DWORD PTR _pCacheData$[ebp]
	mov	eax, DWORD PTR [edx+28]
	mov	DWORD PTR _eUnitTeam$[ebp], eax

; 1729 : 	PlayerTypes unit_owner = pCacheData->getOwner();

	mov	ecx, DWORD PTR _pCacheData$[ebp]
	mov	edx, DWORD PTR [ecx+24]
	mov	DWORD PTR _unit_owner$[ebp], edx

; 1730 : 
; 1731 : 	CvAssertMsg(eUnitTeam != NO_TEAM, "The unit's team should be a vaild value");
; 1732 : 	if (eUnitTeam == NO_TEAM)

	cmp	DWORD PTR _eUnitTeam$[ebp], -1
	jne	SHORT $LN70@PathValid

; 1733 : 	{
; 1734 : 		eUnitTeam = GC.getGame().getActiveTeam();

	mov	eax, DWORD PTR ?gGlobals@@3VCvGlobals@@A+48
	mov	DWORD PTR $T222576[ebp], eax
	mov	ecx, DWORD PTR $T222576[ebp]
	call	?getActiveTeam@CvGame@@QAE?AW4TeamTypes@@XZ ; CvGame::getActiveTeam
	mov	DWORD PTR _eUnitTeam$[ebp], eax

; 1735 : 	}
; 1736 : 
; 1737 : 	CvTeam& kUnitTeam = GET_TEAM(eUnitTeam);

$LN70@PathValid:
	mov	ecx, DWORD PTR _eUnitTeam$[ebp]
	imul	ecx, 2984				; 00000ba8H
	add	ecx, DWORD PTR ?m_aTeams@CvTeam@@1PAV1@A ; CvTeam::m_aTeams
	mov	DWORD PTR _kUnitTeam$[ebp], ecx

; 1738 : 
; 1739 : #ifdef AUI_ASTAR_FIX_CAN_ENTER_TERRAIN_NO_DUPLICATE_CALLS
; 1740 : #ifdef AUI_ASTAR_CACHE_PLOTS_AT_NODES
; 1741 : 	CvPlot* pToPlot = node->m_pPlot;
; 1742 : 	if (!pToPlot)
; 1743 : 		return FALSE;
; 1744 : #else
; 1745 : 	CvMap& theMap = GC.getMap();
; 1746 : 
; 1747 : 	CvPlot* pToPlot = theMap.plotUnchecked(node->m_iX, node->m_iY);
; 1748 : #endif
; 1749 : 	PREFETCH_FASTAR_CVPLOT(reinterpret_cast<char*>(pToPlot));
; 1750 : #ifdef AUI_ASTAR_MINOR_OPTIMIZATION
; 1751 : 	CvAStarNode& kToNodeCacheData = *node;
; 1752 : #else
; 1753 : 	CvPathNodeCacheData& kToNodeCacheData = node->m_kCostCacheData;
; 1754 : #endif
; 1755 : #endif
; 1756 : 
; 1757 : #ifdef AUI_ASTAR_FIX_PARENT_NODE_ALWAYS_VALID_OPTIMIZATION
; 1758 : 	// If this is the first node in the path, it is always valid (starting location)
; 1759 : 	if (parent == NULL)
; 1760 : 	{
; 1761 : #ifdef AUI_ASTAR_FIX_CAN_ENTER_TERRAIN_NO_DUPLICATE_CALLS
; 1762 : 		// Cache values for this node that we will use in the loop
; 1763 : 		if (!kToNodeCacheData.bIsCalculated)
; 1764 : 		{
; 1765 : 			kToNodeCacheData.bIsCalculated = true;
; 1766 : 			kToNodeCacheData.bPlotVisibleToTeam = true;
; 1767 : 			kToNodeCacheData.bIsMountain = pToPlot->isMountain();
; 1768 : #ifdef AUI_UNIT_FIX_HOVERING_EMBARK
; 1769 : 			kToNodeCacheData.bIsWater = !pToPlot->IsAllowsWalkWater();
; 1770 : 			if (pUnit->IsHoveringUnit())
; 1771 : 				kToNodeCacheData.bIsWater = kToNodeCacheData.bIsWater && pToPlot->getTerrainType() == GC.getDEEP_WATER_TERRAIN();
; 1772 : 			else
; 1773 : 				kToNodeCacheData.bIsWater = kToNodeCacheData.bIsWater && pToPlot->isWater();
; 1774 : #else
; 1775 : 			kToNodeCacheData.bIsWater = (pToPlot->isWater() && !pToPlot->IsAllowsWalkWater());
; 1776 : #endif
; 1777 : 			kToNodeCacheData.bCanEnterTerrain = true;
; 1778 : 			kToNodeCacheData.bIsRevealedToTeam = true;
; 1779 : 			kToNodeCacheData.bContainsOtherFriendlyTeamCity = false;
; 1780 : 			CvCity* pCity = pToPlot->getPlotCity();
; 1781 : 			if (pCity)
; 1782 : 			{
; 1783 : 				if (unit_owner != pCity->getOwner() && !kUnitTeam.isAtWar(pCity->getTeam()))
; 1784 : 					kToNodeCacheData.bContainsOtherFriendlyTeamCity = true;
; 1785 : 			}
; 1786 : 			kToNodeCacheData.bContainsEnemyCity = pToPlot->isEnemyCity(*pUnit);
; 1787 : 			kToNodeCacheData.iNumFriendlyUnitsOfType = pToPlot->getNumFriendlyUnitsOfType(pUnit);
; 1788 : 			kToNodeCacheData.bContainsVisibleEnemy = pToPlot->isVisibleEnemyUnit(pUnit);
; 1789 : 			kToNodeCacheData.bContainsVisibleEnemyDefender = pToPlot->getBestDefender(NO_PLAYER, unit_owner, pUnit).pointer() != NULL;
; 1790 : 		}
; 1791 : #endif
; 1792 : 		return TRUE;
; 1793 : 	}
; 1794 : #endif
; 1795 : 
; 1796 : 	// Cache values for this node that we will use in the loop
; 1797 : #ifdef AUI_ASTAR_FIX_CAN_ENTER_TERRAIN_NO_DUPLICATE_CALLS
; 1798 : 	if (!kToNodeCacheData.bIsCalculated)
; 1799 : 	{
; 1800 : 		kToNodeCacheData.bPlotVisibleToTeam = pToPlot->isVisible(eUnitTeam);
; 1801 : 		kToNodeCacheData.bIsMountain = pToPlot->isMountain();
; 1802 : #ifdef AUI_UNIT_FIX_HOVERING_EMBARK
; 1803 : 		kToNodeCacheData.bIsWater = !pToPlot->IsAllowsWalkWater();
; 1804 : 		if (pUnit->IsHoveringUnit())
; 1805 : 			kToNodeCacheData.bIsWater = kToNodeCacheData.bIsWater && pToPlot->getTerrainType() == GC.getDEEP_WATER_TERRAIN();
; 1806 : 		else
; 1807 : 			kToNodeCacheData.bIsWater = kToNodeCacheData.bIsWater && pToPlot->isWater();
; 1808 : #else
; 1809 : 		kToNodeCacheData.bIsWater = (pToPlot->isWater() && !pToPlot->IsAllowsWalkWater());
; 1810 : #endif
; 1811 : 		kToNodeCacheData.bIsRevealedToTeam = pToPlot->isRevealed(eUnitTeam);
; 1812 : 		kToNodeCacheData.bContainsOtherFriendlyTeamCity = false;
; 1813 : 		CvCity* pCity = pToPlot->getPlotCity();
; 1814 : 		if (pCity)
; 1815 : 		{
; 1816 : 			if (unit_owner != pCity->getOwner() && !kUnitTeam.isAtWar(pCity->getTeam()))
; 1817 : 				kToNodeCacheData.bContainsOtherFriendlyTeamCity = true;
; 1818 : 		}
; 1819 : 		kToNodeCacheData.bContainsEnemyCity = pToPlot->isEnemyCity(*pUnit);
; 1820 : 		if (kToNodeCacheData.bPlotVisibleToTeam)
; 1821 : 		{
; 1822 : 			kToNodeCacheData.iNumFriendlyUnitsOfType = pToPlot->getNumFriendlyUnitsOfType(pUnit);
; 1823 : 			kToNodeCacheData.bContainsVisibleEnemy = pToPlot->isVisibleEnemyUnit(pUnit);
; 1824 : 			kToNodeCacheData.bContainsVisibleEnemyDefender = pToPlot->getBestDefender(NO_PLAYER, unit_owner, pUnit).pointer() != NULL;
; 1825 : 		}
; 1826 : 		else
; 1827 : 		{
; 1828 : 			kToNodeCacheData.iNumFriendlyUnitsOfType = 0;
; 1829 : 			kToNodeCacheData.bContainsVisibleEnemy = false;
; 1830 : 			kToNodeCacheData.bContainsVisibleEnemyDefender = false;
; 1831 : 		}
; 1832 : 	}
; 1833 : #else
; 1834 : #ifdef AUI_ASTAR_MINOR_OPTIMIZATION
; 1835 : 	CvAStarNode& kToNodeCacheData = *node;
; 1836 : #else
; 1837 : 	CvPathNodeCacheData& kToNodeCacheData = node->m_kCostCacheData;

	mov	edx, DWORD PTR _node$[ebp]
	add	edx, 88					; 00000058H
	mov	DWORD PTR _kToNodeCacheData$[ebp], edx

; 1838 : #endif
; 1839 : 	kToNodeCacheData.bPlotVisibleToTeam = pToPlot->isVisible(eUnitTeam);

	cmp	DWORD PTR _eUnitTeam$[ebp], -1
	jne	SHORT $LN75@PathValid
	mov	BYTE PTR $T222589[ebp], 0
	jmp	SHORT $LN73@PathValid
$LN75@PathValid:
	mov	eax, DWORD PTR _pToPlot$[ebp]
	mov	ecx, DWORD PTR [eax+156]
	mov	edx, DWORD PTR _eUnitTeam$[ebp]
	movsx	eax, WORD PTR [ecx+edx*2]
	xor	ecx, ecx
	test	eax, eax
	setg	cl
	mov	BYTE PTR $T222589[ebp], cl
$LN73@PathValid:
	mov	dl, BYTE PTR $T222589[ebp]
	mov	BYTE PTR tv128[ebp], dl
	mov	al, BYTE PTR tv128[ebp]
	and	al, 1
	mov	ecx, DWORD PTR _kToNodeCacheData$[ebp]
	mov	dl, BYTE PTR [ecx]
	and	dl, 254					; 000000feH
	or	dl, al
	mov	eax, DWORD PTR _kToNodeCacheData$[ebp]
	mov	BYTE PTR [eax], dl

; 1840 : 	kToNodeCacheData.iNumFriendlyUnitsOfType = pToPlot->getNumFriendlyUnitsOfType(pUnit);

	push	1
	mov	ecx, DWORD PTR _pUnit$[ebp]
	push	ecx
	mov	ecx, DWORD PTR _pToPlot$[ebp]
	call	?getNumFriendlyUnitsOfType@CvPlot@@QBEHPBVCvUnit@@_N@Z ; CvPlot::getNumFriendlyUnitsOfType
	mov	edx, DWORD PTR _kToNodeCacheData$[ebp]
	mov	DWORD PTR [edx+4], eax

; 1841 : 	kToNodeCacheData.bIsMountain = pToPlot->isMountain();

	mov	eax, DWORD PTR _pToPlot$[ebp]
	movsx	ecx, BYTE PTR [eax+5]
	neg	ecx
	sbb	ecx, ecx
	add	ecx, 1
	mov	BYTE PTR tv139[ebp], cl
	mov	dl, BYTE PTR tv139[ebp]
	and	dl, 1
	shl	dl, 1
	mov	eax, DWORD PTR _kToNodeCacheData$[ebp]
	mov	cl, BYTE PTR [eax]
	and	cl, 253					; 000000fdH
	or	cl, dl
	mov	edx, DWORD PTR _kToNodeCacheData$[ebp]
	mov	BYTE PTR [edx], cl

; 1842 : #ifdef AUI_UNIT_FIX_HOVERING_EMBARK
; 1843 : 	kToNodeCacheData.bIsWater = !pToPlot->IsAllowsWalkWater();
; 1844 : 	if (pUnit->IsHoveringUnit())
; 1845 : 		kToNodeCacheData.bIsWater = kToNodeCacheData.bIsWater && pToPlot->getTerrainType() == GC.getDEEP_WATER_TERRAIN();
; 1846 : 	else
; 1847 : 		kToNodeCacheData.bIsWater = kToNodeCacheData.bIsWater && pToPlot->isWater();
; 1848 : #else
; 1849 : 	kToNodeCacheData.bIsWater = (pToPlot->isWater() && !pToPlot->IsAllowsWalkWater());

	mov	eax, DWORD PTR _pToPlot$[ebp]
	movsx	ecx, BYTE PTR [eax+5]
	xor	edx, edx
	cmp	ecx, 3
	sete	dl
	movzx	eax, dl
	test	eax, eax
	je	SHORT $LN51@PathValid
	mov	ecx, DWORD PTR _pToPlot$[ebp]
	call	?IsAllowsWalkWater@CvPlot@@QBE_NXZ	; CvPlot::IsAllowsWalkWater
	movzx	ecx, al
	test	ecx, ecx
	jne	SHORT $LN51@PathValid
	mov	BYTE PTR tv152[ebp], 1
	jmp	SHORT $LN52@PathValid
$LN51@PathValid:
	mov	BYTE PTR tv152[ebp], 0
$LN52@PathValid:
	mov	dl, BYTE PTR tv152[ebp]
	and	dl, 1
	shl	dl, 2
	mov	eax, DWORD PTR _kToNodeCacheData$[ebp]
	mov	cl, BYTE PTR [eax]
	and	cl, 251					; 000000fbH
	or	cl, dl
	mov	edx, DWORD PTR _kToNodeCacheData$[ebp]
	mov	BYTE PTR [edx], cl

; 1850 : #endif
; 1851 : 	kToNodeCacheData.bCanEnterTerrain = pUnit->canEnterTerrain(*pToPlot, CvUnit::MOVEFLAG_PRETEND_CORRECT_EMBARK_STATE);

	push	128					; 00000080H
	mov	eax, DWORD PTR _pToPlot$[ebp]
	push	eax
	mov	ecx, DWORD PTR _pUnit$[ebp]
	call	?canEnterTerrain@CvUnit@@QBE_NABVCvPlot@@E@Z ; CvUnit::canEnterTerrain
	mov	BYTE PTR tv161[ebp], al
	mov	cl, BYTE PTR tv161[ebp]
	and	cl, 1
	shl	cl, 3
	mov	edx, DWORD PTR _kToNodeCacheData$[ebp]
	mov	al, BYTE PTR [edx]
	and	al, 247					; 000000f7H
	or	al, cl
	mov	ecx, DWORD PTR _kToNodeCacheData$[ebp]
	mov	BYTE PTR [ecx], al

; 1852 : 	kToNodeCacheData.bIsRevealedToTeam = pToPlot->isRevealed(eUnitTeam);

	mov	edx, DWORD PTR _eUnitTeam$[ebp]
	shr	edx, 5
	mov	DWORD PTR _uiOffset$222604[ebp], edx
	mov	eax, DWORD PTR _uiOffset$222604[ebp]
	shl	eax, 5
	mov	ecx, DWORD PTR _eUnitTeam$[ebp]
	sub	ecx, eax
	mov	edx, 1
	shl	edx, cl
	mov	eax, DWORD PTR _uiOffset$222604[ebp]
	mov	ecx, DWORD PTR _pToPlot$[ebp]
	and	edx, DWORD PTR [ecx+eax*4+8]
	setne	dl
	mov	BYTE PTR tv169[ebp], dl
	mov	al, BYTE PTR tv169[ebp]
	and	al, 1
	shl	al, 4
	mov	ecx, DWORD PTR _kToNodeCacheData$[ebp]
	mov	dl, BYTE PTR [ecx]
	and	dl, 239					; 000000efH
	or	dl, al
	mov	eax, DWORD PTR _kToNodeCacheData$[ebp]
	mov	BYTE PTR [eax], dl

; 1853 : 	kToNodeCacheData.bContainsOtherFriendlyTeamCity = false;

	mov	ecx, DWORD PTR _kToNodeCacheData$[ebp]
	mov	dl, BYTE PTR [ecx]
	and	dl, 223					; 000000dfH
	mov	eax, DWORD PTR _kToNodeCacheData$[ebp]
	mov	BYTE PTR [eax], dl

; 1854 : 	CvCity* pCity = pToPlot->getPlotCity();

	mov	ecx, DWORD PTR _pToPlot$[ebp]
	call	?getPlotCity@CvPlot@@QBEPAVCvCity@@XZ	; CvPlot::getPlotCity
	mov	DWORD PTR _pCity$[ebp], eax

; 1855 : 	if(pCity)

	cmp	DWORD PTR _pCity$[ebp], 0
	je	SHORT $LN47@PathValid

; 1856 : 	{
; 1857 : 		if(unit_owner != pCity->getOwner() && !kUnitTeam.isAtWar(pCity->getTeam()))

	mov	ecx, DWORD PTR _pCity$[ebp]
	mov	edx, DWORD PTR [ecx+84]
	mov	DWORD PTR $T222619[ebp], edx
	mov	eax, DWORD PTR _unit_owner$[ebp]
	cmp	eax, DWORD PTR $T222619[ebp]
	je	SHORT $LN47@PathValid
	mov	ecx, DWORD PTR _pCity$[ebp]
	call	?getTeam@CvCity@@QBE?AW4TeamTypes@@XZ	; CvCity::getTeam
	push	eax
	mov	ecx, DWORD PTR _kUnitTeam$[ebp]
	call	?isAtWar@CvTeam@@QBE_NW4TeamTypes@@@Z	; CvTeam::isAtWar
	movzx	ecx, al
	test	ecx, ecx
	jne	SHORT $LN47@PathValid

; 1858 : 			kToNodeCacheData.bContainsOtherFriendlyTeamCity = true;

	mov	edx, DWORD PTR _kToNodeCacheData$[ebp]
	mov	al, BYTE PTR [edx]
	or	al, 32					; 00000020H
	mov	ecx, DWORD PTR _kToNodeCacheData$[ebp]
	mov	BYTE PTR [ecx], al
$LN47@PathValid:

; 1859 : 	}
; 1860 : 	kToNodeCacheData.bContainsEnemyCity = pToPlot->isEnemyCity(*pUnit);

	mov	ecx, DWORD PTR _pToPlot$[ebp]
	call	?getPlotCity@CvPlot@@QBEPAVCvCity@@XZ	; CvPlot::getPlotCity
	mov	DWORD PTR _pCity$222628[ebp], eax
	cmp	DWORD PTR _pCity$222628[ebp], 0
	je	SHORT $LN94@PathValid
	mov	edx, DWORD PTR _pToPlot$[ebp]
	push	edx
	mov	ecx, DWORD PTR _pCity$222628[ebp]
	call	?getTeam@CvCity@@QBE?AW4TeamTypes@@XZ	; CvCity::getTeam
	push	eax
	mov	ecx, DWORD PTR _pUnit$[ebp]
	call	?isEnemy@CvUnit@@QBE_NW4TeamTypes@@PBVCvPlot@@@Z ; CvUnit::isEnemy
	mov	BYTE PTR $T222630[ebp], al
	jmp	SHORT $LN95@PathValid
$LN94@PathValid:
	mov	BYTE PTR $T222630[ebp], 0
$LN95@PathValid:
	mov	al, BYTE PTR $T222630[ebp]
	mov	BYTE PTR tv192[ebp], al
	mov	cl, BYTE PTR tv192[ebp]
	and	cl, 1
	shl	cl, 6
	mov	edx, DWORD PTR _kToNodeCacheData$[ebp]
	mov	al, BYTE PTR [edx]
	and	al, 191					; 000000bfH
	or	al, cl
	mov	ecx, DWORD PTR _kToNodeCacheData$[ebp]
	mov	BYTE PTR [ecx], al

; 1861 : 	kToNodeCacheData.bContainsVisibleEnemy = pToPlot->isVisibleEnemyUnit(pUnit);

	mov	edx, DWORD PTR _pUnit$[ebp]
	push	edx
	mov	ecx, DWORD PTR _pToPlot$[ebp]
	call	?isVisibleEnemyUnit@CvPlot@@QBE_NPBVCvUnit@@@Z ; CvPlot::isVisibleEnemyUnit
	mov	BYTE PTR tv200[ebp], al
	mov	al, BYTE PTR tv200[ebp]
	and	al, 1
	shl	al, 7
	mov	ecx, DWORD PTR _kToNodeCacheData$[ebp]
	mov	dl, BYTE PTR [ecx]
	and	dl, 127					; 0000007fH
	or	dl, al
	mov	eax, DWORD PTR _kToNodeCacheData$[ebp]
	mov	BYTE PTR [eax], dl

; 1862 : 	kToNodeCacheData.bContainsVisibleEnemyDefender = pToPlot->getBestDefender(NO_PLAYER, unit_owner, pUnit).pointer() != NULL;

	push	0
	push	0
	push	0
	push	0
	mov	ecx, DWORD PTR _pUnit$[ebp]
	push	ecx
	mov	edx, DWORD PTR _unit_owner$[ebp]
	push	edx
	push	-1
	lea	eax, DWORD PTR $T222543[ebp]
	push	eax
	mov	ecx, DWORD PTR _pToPlot$[ebp]
	call	?getBestDefender@CvPlot@@QAE?AV?$FObjectHandle@VCvUnit@@@@W4PlayerTypes@@0PBVCvUnit@@_N222@Z ; CvPlot::getBestDefender
	mov	DWORD PTR $T222634[ebp], eax
	mov	ecx, DWORD PTR $T222634[ebp]
	mov	edx, DWORD PTR [ecx]
	mov	DWORD PTR $T222635[ebp], edx
	mov	eax, DWORD PTR $T222635[ebp]
	mov	DWORD PTR tv222[ebp], eax
	cmp	DWORD PTR tv222[ebp], 0
	setne	cl
	and	cl, 1
	mov	edx, DWORD PTR _kToNodeCacheData$[ebp]
	mov	al, BYTE PTR [edx+1]
	and	al, 254					; 000000feH
	or	al, cl
	mov	ecx, DWORD PTR _kToNodeCacheData$[ebp]
	mov	BYTE PTR [ecx+1], al
	cmp	DWORD PTR $T222543[ebp], 0
	je	SHORT $LN105@PathValid
	mov	ecx, DWORD PTR $T222543[ebp]
	call	?getDestructionNotification@CvUnit@@QAEAAU?$DestructionNotification@V?$FObjectHandle@VCvUnit@@@@@@XZ ; CvUnit::getDestructionNotification
$LN105@PathValid:

; 1863 : #endif
; 1864 : 
; 1865 : #ifndef AUI_ASTAR_FIX_PARENT_NODE_ALWAYS_VALID_OPTIMIZATION
; 1866 : 	// If this is the first node in the path, it is always valid (starting location)
; 1867 : 	if (parent == NULL)

	cmp	DWORD PTR _parent$[ebp], 0
	jne	SHORT $LN45@PathValid

; 1868 : 	{
; 1869 : 		return TRUE;

	mov	eax, 1
	jmp	$LN49@PathValid
$LN45@PathValid:

; 1870 : 	}
; 1871 : #endif
; 1872 : 
; 1873 : #ifdef AUI_ASTAR_CACHE_PLOTS_AT_NODES
; 1874 : 	CvPlot* pFromPlot = parent->m_pPlot;
; 1875 : 	if (!pFromPlot)
; 1876 : 		return FALSE;
; 1877 : #else
; 1878 : 	CvPlot* pFromPlot = theMap.plotUnchecked(parent->m_iX, parent->m_iY);

	mov	edx, DWORD PTR _theMap$[ebp]
	mov	eax, DWORD PTR [edx+4020]
	mov	DWORD PTR $T222650[ebp], eax
	mov	ecx, DWORD PTR _parent$[ebp]
	movsx	edx, WORD PTR [ecx+80]
	mov	eax, DWORD PTR _parent$[ebp]
	movsx	ecx, WORD PTR [eax+82]
	imul	ecx, DWORD PTR $T222650[ebp]
	add	ecx, edx
	imul	ecx, 484				; 000001e4H
	mov	edx, DWORD PTR _theMap$[ebp]
	add	ecx, DWORD PTR [edx+4068]
	mov	DWORD PTR _pFromPlot$[ebp], ecx

; 1879 : #endif
; 1880 : 	PREFETCH_FASTAR_CVPLOT(reinterpret_cast<char*>(pFromPlot));

	mov	eax, DWORD PTR _pFromPlot$[ebp]
	mov	DWORD PTR tv237[ebp], eax
	mov	ecx, DWORD PTR tv237[ebp]
	prefetcht0 BYTE PTR [ecx]
	mov	edx, DWORD PTR _pFromPlot$[ebp]
	add	edx, 64					; 00000040H
	mov	DWORD PTR tv240[ebp], edx
	mov	eax, DWORD PTR tv240[ebp]
	prefetcht0 BYTE PTR [eax]

; 1881 : 
; 1882 : 	// pulling invariants out of the loop
; 1883 : 	bool bAIControl = pCacheData->IsAutomated();

	mov	ecx, DWORD PTR _pCacheData$[ebp]
	mov	dl, BYTE PTR [ecx+37]
	mov	BYTE PTR _bAIControl$[ebp], dl

; 1884 : 	int iUnitX = pUnit->getX();

	mov	eax, DWORD PTR _pUnit$[ebp]
	mov	ecx, DWORD PTR [eax+76]
	mov	DWORD PTR _iUnitX$[ebp], ecx

; 1885 : 	int iUnitY = pUnit->getY();

	mov	edx, DWORD PTR _pUnit$[ebp]
	mov	eax, DWORD PTR [edx+88]
	mov	DWORD PTR _iUnitY$[ebp], eax

; 1886 : 	DomainTypes unit_domain_type = pCacheData->getDomainType();

	mov	ecx, DWORD PTR _pCacheData$[ebp]
	mov	edx, DWORD PTR [ecx+32]
	mov	DWORD PTR _unit_domain_type$[ebp], edx

; 1887 : 	bool bUnitIsCombat           = pUnit->IsCombatUnit();

	mov	eax, DWORD PTR _pUnit$[ebp]
	xor	ecx, ecx
	cmp	DWORD PTR [eax+1044], 0
	setg	cl
	mov	BYTE PTR _bUnitIsCombat$[ebp], cl

; 1888 : 	bool bIsHuman				 = pCacheData->isHuman();

	mov	edx, DWORD PTR _pCacheData$[ebp]
	mov	al, BYTE PTR [edx+36]
	mov	BYTE PTR _bIsHuman$[ebp], al

; 1889 : 	int iFinderInfo              = finder->GetInfo();

	mov	ecx, DWORD PTR _finder$[ebp]
	mov	edx, DWORD PTR [ecx+72]
	mov	DWORD PTR _iFinderInfo$[ebp], edx

; 1890 : 	CvPlot* pUnitPlot            = pUnit->plot();

	mov	ecx, DWORD PTR _pUnit$[ebp]
	call	?plot@CvUnit@@QBEPAVCvPlot@@XZ		; CvUnit::plot
	mov	DWORD PTR _pUnitPlot$[ebp], eax

; 1891 : 	int iFinderIgnoreStacking    = iFinderInfo & MOVE_IGNORE_STACKING;

	mov	eax, DWORD PTR _iFinderInfo$[ebp]
	and	eax, 4
	mov	DWORD PTR _iFinderIgnoreStacking$[ebp], eax

; 1892 : 	int iUnitPlotLimit           = GC.getPLOT_UNIT_LIMIT();

	mov	ecx, DWORD PTR ?gGlobals@@3VCvGlobals@@A+7356
	mov	DWORD PTR _iUnitPlotLimit$[ebp], ecx

; 1893 : 	bool bFromPlotOwned          = pFromPlot->isOwned();

	mov	ecx, DWORD PTR _pFromPlot$[ebp]
	call	?isOwned@CvPlot@@QBE_NXZ		; CvPlot::isOwned
	mov	BYTE PTR _bFromPlotOwned$[ebp], al

; 1894 : 	TeamTypes eFromPlotTeam      = pFromPlot->getTeam();

	mov	edx, DWORD PTR _pFromPlot$[ebp]
	movsx	eax, BYTE PTR [edx+4]
	mov	DWORD PTR _playerID$222713[ebp], eax
	cmp	DWORD PTR _playerID$222713[ebp], -1
	je	SHORT $LN138@PathValid
	mov	ecx, DWORD PTR _playerID$222713[ebp]
	push	ecx
	call	?teamType@CvPreGame@@YA?AW4TeamTypes@@W4PlayerTypes@@@Z ; CvPreGame::teamType
	add	esp, 4
	mov	DWORD PTR _eFromPlotTeam$[ebp], eax
	jmp	SHORT $LN139@PathValid
	jmp	SHORT $LN139@PathValid
$LN138@PathValid:
	mov	DWORD PTR _eFromPlotTeam$[ebp], -1
$LN139@PathValid:

; 1895 : 
; 1896 : #ifdef AUI_ASTAR_FIX_CAN_ENTER_TERRAIN_NO_DUPLICATE_CALLS
; 1897 : 	if (!kToNodeCacheData.bIsCalculated)
; 1898 : 	{
; 1899 : 		if (bAIControl || kToNodeCacheData.bIsRevealedToTeam || !bIsHuman)
; 1900 : 			kToNodeCacheData.bCanEnterTerrain = pUnit->canEnterTerrain(*pToPlot, CvUnit::MOVEFLAG_PRETEND_CORRECT_EMBARK_STATE);
; 1901 : 		else
; 1902 : 			kToNodeCacheData.bCanEnterTerrain = true;
; 1903 : 		kToNodeCacheData.bIsCalculated = true;
; 1904 : 	}
; 1905 : #endif
; 1906 : 
; 1907 : 	// We have determined that this node is not the origin above (parent == NULL)
; 1908 : 	CvAStarNode* pNode = node;

	mov	edx, DWORD PTR _node$[ebp]
	mov	DWORD PTR _pNode$[ebp], edx

; 1909 : 	bool bPreviousNodeHostile = false;

	mov	BYTE PTR _bPreviousNodeHostile$[ebp], 0

; 1910 : #ifndef AUI_ASTAR_FIX_CAN_ENTER_TERRAIN_NO_DUPLICATE_CALLS
; 1911 : 	bool bPreviousVisibleToTeam = kToNodeCacheData.bPlotVisibleToTeam;

	mov	eax, DWORD PTR _kToNodeCacheData$[ebp]
	mov	cl, BYTE PTR [eax]
	and	cl, 1
	mov	BYTE PTR _bPreviousVisibleToTeam$[ebp], cl

; 1912 : #endif
; 1913 : 	int iDestX = finder->GetDestX();

	mov	edx, DWORD PTR _finder$[ebp]
	mov	eax, DWORD PTR [edx+64]
	mov	DWORD PTR _iDestX$[ebp], eax

; 1914 : 	int iDestY = finder->GetDestY();

	mov	ecx, DWORD PTR _finder$[ebp]
	mov	edx, DWORD PTR [ecx+68]
	mov	DWORD PTR _iDestY$[ebp], edx

; 1915 : 	int iNodeX = node->m_iX;

	mov	eax, DWORD PTR _node$[ebp]
	movsx	ecx, WORD PTR [eax+80]
	mov	DWORD PTR _iNodeX$[ebp], ecx

; 1916 : 	int iNodeY = node->m_iY;

	mov	edx, DWORD PTR _node$[ebp]
	movsx	eax, WORD PTR [edx+82]
	mov	DWORD PTR _iNodeY$[ebp], eax

; 1917 : 	int iOldNumTurns = -1;

	mov	DWORD PTR _iOldNumTurns$[ebp], -1

; 1918 : #ifndef AUI_ASTAR_MINOR_OPTIMIZATION
; 1919 : 	int iNumTurns;
; 1920 : #endif
; 1921 : 
; 1922 : 	// First run special case for checking "node" since it doesn't have a parent set yet
; 1923 : 	bool bFirstRun = true;

	mov	BYTE PTR _bFirstRun$[ebp], 1

; 1924 : 
; 1925 : 	// Have to calculate this specially because the node passed into this function doesn't yet have data stored it in (hasn't reached pathAdd yet)
; 1926 : 	int iStartMoves = parent->m_iData1;

	mov	ecx, DWORD PTR _parent$[ebp]
	mov	edx, DWORD PTR [ecx+12]
	mov	DWORD PTR _iStartMoves$[ebp], edx

; 1927 : #ifdef AUI_ASTAR_MINOR_OPTIMIZATION
; 1928 : 	int iNumTurns = parent->m_iData2;
; 1929 : #else
; 1930 : 	iNumTurns = parent->m_iData2;

	mov	eax, DWORD PTR _parent$[ebp]
	mov	ecx, DWORD PTR [eax+16]
	mov	DWORD PTR _iNumTurns$[ebp], ecx

; 1931 : #endif
; 1932 : #if defined(AUI_ASTAR_TURN_LIMITER)
; 1933 : 	int iMaxTurns = finder->GetMaxTurns();
; 1934 : #endif
; 1935 : 
; 1936 : 	if(iStartMoves == 0)

	cmp	DWORD PTR _iStartMoves$[ebp], 0
	jne	SHORT $LN44@PathValid

; 1937 : 	{
; 1938 : 		iNumTurns++;

	mov	edx, DWORD PTR _iNumTurns$[ebp]
	add	edx, 1
	mov	DWORD PTR _iNumTurns$[ebp], edx
$LN44@PathValid:

; 1939 : 	}
; 1940 : 
; 1941 : 	iOldNumTurns = -1;

	mov	DWORD PTR _iOldNumTurns$[ebp], -1

; 1942 : 
; 1943 : #ifndef AUI_ASTAR_MINOR_OPTIMIZATION
; 1944 : 	CvPlot* pPlot = NULL;

	mov	DWORD PTR _pPlot$[ebp], 0

; 1945 : #endif
; 1946 : 
; 1947 : 	// Get a reference to the parent node cache data
; 1948 : #ifdef AUI_ASTAR_MINOR_OPTIMIZATION
; 1949 : 	CvAStarNode& kFromNodeCacheData = *parent;
; 1950 : #else
; 1951 : 	CvPathNodeCacheData& kFromNodeCacheData = parent->m_kCostCacheData;

	mov	eax, DWORD PTR _parent$[ebp]
	add	eax, 88					; 00000058H
	mov	DWORD PTR _kFromNodeCacheData$[ebp], eax
$LN43@PathValid:

; 1952 : #endif
; 1953 : 
; 1954 : 	// Loop through the current path until we find the path origin.
; 1955 : 	// This validates the path with the inclusion of the new path node.  We must do this because of the rules of where a unit can finish a turn.
; 1956 : 	// Please note that this can be an expensive loop as the path gets longer and longer, do as little work as possible in validating each node.  
; 1957 : 	// If there is an invariant value that needs to be fetched from the plot or unit for the node, please do the calculation and put it in the node's data cache.
; 1958 : 	while(pNode != NULL)

	cmp	DWORD PTR _pNode$[ebp], 0
	je	$LN42@PathValid

; 1959 : 	{
; 1960 : #ifdef AUI_ASTAR_TURN_LIMITER
; 1961 : 		if (iNumTurns > iMaxTurns)
; 1962 : 		{
; 1963 : 			return FALSE;  // Path is too long, terminate now
; 1964 : 		}
; 1965 : #endif
; 1966 : 		PREFETCH_FASTAR_NODE(pNode->m_pParent);

	mov	ecx, DWORD PTR _pNode$[ebp]
	mov	edx, DWORD PTR [ecx+24]
	mov	DWORD PTR tv281[ebp], edx
	mov	eax, DWORD PTR tv281[ebp]
	prefetcht0 BYTE PTR [eax]
	mov	ecx, DWORD PTR _pNode$[ebp]
	mov	edx, DWORD PTR [ecx+24]
	add	edx, 64					; 00000040H
	mov	DWORD PTR tv285[ebp], edx
	mov	eax, DWORD PTR tv285[ebp]
	prefetcht0 BYTE PTR [eax]

; 1967 : 
; 1968 : #ifdef AUI_ASTAR_MINOR_OPTIMIZATION
; 1969 : 		CvAStarNode& kNodeCacheData = *node;
; 1970 : #else
; 1971 : 		CvPathNodeCacheData& kNodeCacheData = pNode->m_kCostCacheData;

	mov	ecx, DWORD PTR _pNode$[ebp]
	add	ecx, 88					; 00000058H
	mov	DWORD PTR _kNodeCacheData$219403[ebp], ecx

; 1972 : #endif
; 1973 : 		// This is a safeguard against the algorithm believing a plot to be impassable before actually knowing it (mid-search)
; 1974 : 		if(iOldNumTurns != -1 || (iDestX == iNodeX && iDestY == iNodeY))

	cmp	DWORD PTR _iOldNumTurns$[ebp], -1
	jne	SHORT $LN40@PathValid
	mov	edx, DWORD PTR _iDestX$[ebp]
	cmp	edx, DWORD PTR _iNodeX$[ebp]
	jne	$LN41@PathValid
	mov	eax, DWORD PTR _iDestY$[ebp]
	cmp	eax, DWORD PTR _iNodeY$[ebp]
	jne	$LN41@PathValid
$LN40@PathValid:

; 1975 : 		{
; 1976 : #ifdef AUI_ASTAR_FIX_CAN_ENTER_TERRAIN_NO_DUPLICATE_CALLS
; 1977 : 			if (!kNodeCacheData.bCanEnterTerrain)
; 1978 : 			{
; 1979 : 				return FALSE;
; 1980 : 			}
; 1981 : #endif
; 1982 : 			// This plot is of greater distance than previously, so we know the unit is ending its turn here (pNode), or it's trying to attack through a unit (and might end up on this tile if an attack fails to kill the enemy)
; 1983 : #ifdef AUI_ASTAR_FIX_CAN_ENTER_TERRAIN_NO_DUPLICATE_CALLS
; 1984 : 			if (iNumTurns != iOldNumTurns || bPreviousNodeHostile)
; 1985 : #else
; 1986 : 			if(iNumTurns != iOldNumTurns || bPreviousNodeHostile || !bPreviousVisibleToTeam)

	mov	ecx, DWORD PTR _iNumTurns$[ebp]
	cmp	ecx, DWORD PTR _iOldNumTurns$[ebp]
	jne	SHORT $LN38@PathValid
	movzx	edx, BYTE PTR _bPreviousNodeHostile$[ebp]
	test	edx, edx
	jne	SHORT $LN38@PathValid
	movzx	eax, BYTE PTR _bPreviousVisibleToTeam$[ebp]
	test	eax, eax
	jne	$LN41@PathValid
$LN38@PathValid:

; 1987 : #endif
; 1988 : 			{
; 1989 : 				// Don't count origin, or else a unit will block its own movement!
; 1990 : 				if(iNodeX != iUnitX || iNodeY != iUnitY)

	mov	ecx, DWORD PTR _iNodeX$[ebp]
	cmp	ecx, DWORD PTR _iUnitX$[ebp]
	jne	SHORT $LN36@PathValid
	mov	edx, DWORD PTR _iNodeY$[ebp]
	cmp	edx, DWORD PTR _iUnitY$[ebp]
	je	$LN41@PathValid
$LN36@PathValid:

; 1991 : 				{
; 1992 : #ifdef AUI_ASTAR_FIX_CAN_ENTER_TERRAIN_NO_DUPLICATE_CALLS
; 1993 : 					if (kNodeCacheData.bIsRevealedToTeam)
; 1994 : #else
; 1995 : 					if(kNodeCacheData.bPlotVisibleToTeam)

	mov	eax, DWORD PTR _kNodeCacheData$219403[ebp]
	mov	cl, BYTE PTR [eax]
	and	cl, 1
	movzx	edx, cl
	test	edx, edx
	je	$LN35@PathValid

; 1996 : #endif
; 1997 : 					{
; 1998 : 						// Check to see if any units are present at this full-turn move plot... if the player can see what's there
; 1999 : 						if(kNodeCacheData.iNumFriendlyUnitsOfType >= iUnitPlotLimit && !(iFinderIgnoreStacking))

	mov	eax, DWORD PTR _kNodeCacheData$219403[ebp]
	mov	ecx, DWORD PTR [eax+4]
	cmp	ecx, DWORD PTR _iUnitPlotLimit$[ebp]
	jl	SHORT $LN34@PathValid
	cmp	DWORD PTR _iFinderIgnoreStacking$[ebp], 0
	jne	SHORT $LN34@PathValid

; 2000 : 						{
; 2001 : 							return FALSE;

	xor	eax, eax
	jmp	$LN49@PathValid
$LN34@PathValid:

; 2002 : 						}
; 2003 : 
; 2004 : #ifndef AUI_ASTAR_FIX_PATH_VALID_PATH_PEAKS_FOR_NONHUMAN
; 2005 : 						if (kNodeCacheData.bIsMountain && !(iFinderIgnoreStacking) && (!bIsHuman || bAIControl))

	mov	edx, DWORD PTR _kNodeCacheData$219403[ebp]
	mov	al, BYTE PTR [edx]
	shr	al, 1
	and	al, 1
	movzx	ecx, al
	test	ecx, ecx
	je	SHORT $LN33@PathValid
	cmp	DWORD PTR _iFinderIgnoreStacking$[ebp], 0
	jne	SHORT $LN33@PathValid
	movzx	edx, BYTE PTR _bIsHuman$[ebp]
	test	edx, edx
	je	SHORT $LN32@PathValid
	movzx	eax, BYTE PTR _bAIControl$[ebp]
	test	eax, eax
	je	SHORT $LN33@PathValid
$LN32@PathValid:

; 2006 : 						{
; 2007 : 							return FALSE;

	xor	eax, eax
	jmp	$LN49@PathValid
$LN33@PathValid:

; 2008 : 						}
; 2009 : #endif
; 2010 : 
; 2011 : #ifndef AUI_ASTAR_FIX_CAN_ENTER_TERRAIN_NO_DUPLICATE_CALLS
; 2012 : 						if(kNodeCacheData.bIsMountain && !kNodeCacheData.bCanEnterTerrain)

	mov	ecx, DWORD PTR _kNodeCacheData$219403[ebp]
	mov	dl, BYTE PTR [ecx]
	shr	dl, 1
	and	dl, 1
	movzx	eax, dl
	test	eax, eax
	je	SHORT $LN31@PathValid
	mov	ecx, DWORD PTR _kNodeCacheData$219403[ebp]
	mov	dl, BYTE PTR [ecx]
	shr	dl, 3
	and	dl, 1
	movzx	eax, dl
	test	eax, eax
	jne	SHORT $LN31@PathValid

; 2013 : 						{
; 2014 : 							return FALSE;

	xor	eax, eax
	jmp	$LN49@PathValid
$LN31@PathValid:

; 2015 : 						}
; 2016 : #endif
; 2017 : 
; 2018 : 						if ((iFinderInfo & CvUnit::MOVEFLAG_STAY_ON_LAND) && kNodeCacheData.bIsWater)

	mov	ecx, DWORD PTR _iFinderInfo$[ebp]
	and	ecx, 256				; 00000100H
	je	SHORT $LN35@PathValid
	mov	edx, DWORD PTR _kNodeCacheData$219403[ebp]
	mov	al, BYTE PTR [edx]
	shr	al, 2
	and	al, 1
	movzx	ecx, al
	test	ecx, ecx
	je	SHORT $LN35@PathValid

; 2019 : 						{
; 2020 : 							return FALSE;

	xor	eax, eax
	jmp	$LN49@PathValid
$LN35@PathValid:

; 2021 : 						}
; 2022 : #ifndef AUI_ASTAR_FIX_CAN_ENTER_TERRAIN_NO_DUPLICATE_CALLS
; 2023 : 					}
; 2024 : 
; 2025 : 					if(kNodeCacheData.bIsRevealedToTeam)

	mov	edx, DWORD PTR _kNodeCacheData$219403[ebp]
	mov	al, BYTE PTR [edx]
	shr	al, 4
	and	al, 1
	movzx	ecx, al
	test	ecx, ecx
	je	SHORT $LN41@PathValid

; 2026 : 					{
; 2027 : #endif
; 2028 : 						if (kNodeCacheData.bContainsOtherFriendlyTeamCity && !(iFinderIgnoreStacking))

	mov	edx, DWORD PTR _kNodeCacheData$219403[ebp]
	mov	al, BYTE PTR [edx]
	shr	al, 5
	and	al, 1
	movzx	ecx, al
	test	ecx, ecx
	je	SHORT $LN41@PathValid
	cmp	DWORD PTR _iFinderIgnoreStacking$[ebp], 0
	jne	SHORT $LN41@PathValid

; 2029 : 							return FALSE;

	xor	eax, eax
	jmp	$LN49@PathValid
$LN41@PathValid:

; 2030 : 					}
; 2031 : 				}
; 2032 : 			}
; 2033 : 		}
; 2034 : 
; 2035 : 		bPreviousNodeHostile = false;

	mov	BYTE PTR _bPreviousNodeHostile$[ebp], 0

; 2036 : 		if(kNodeCacheData.bContainsEnemyCity)

	mov	edx, DWORD PTR _kNodeCacheData$219403[ebp]
	mov	al, BYTE PTR [edx]
	shr	al, 6
	and	al, 1
	movzx	ecx, al
	test	ecx, ecx
	je	SHORT $LN27@PathValid

; 2037 : 		{
; 2038 : 			bPreviousNodeHostile = true;

	mov	BYTE PTR _bPreviousNodeHostile$[ebp], 1
	jmp	SHORT $LN26@PathValid
$LN27@PathValid:

; 2039 : 		}
; 2040 : 		// Prevents units from passing through one another on its way to attack another unit
; 2041 : 		else if(kNodeCacheData.bContainsVisibleEnemy)

	mov	edx, DWORD PTR _kNodeCacheData$219403[ebp]
	mov	al, BYTE PTR [edx]
	shr	al, 7
	and	al, 1
	movzx	ecx, al
	test	ecx, ecx
	je	SHORT $LN26@PathValid

; 2042 : 		{
; 2043 : 			// except when attacking an unguarded civilian unit
; 2044 : 			if(kNodeCacheData.bContainsVisibleEnemyDefender)

	mov	edx, DWORD PTR _kNodeCacheData$219403[ebp]
	mov	al, BYTE PTR [edx+1]
	and	al, 1
	movzx	ecx, al
	test	ecx, ecx
	je	SHORT $LN26@PathValid

; 2045 : 			{
; 2046 : 				bPreviousNodeHostile = true;

	mov	BYTE PTR _bPreviousNodeHostile$[ebp], 1
$LN26@PathValid:

; 2047 : 			}
; 2048 : 		}
; 2049 : 
; 2050 : #ifndef AUI_ASTAR_FIX_CAN_ENTER_TERRAIN_NO_DUPLICATE_CALLS
; 2051 : 		bPreviousVisibleToTeam = kNodeCacheData.bPlotVisibleToTeam;

	mov	edx, DWORD PTR _kNodeCacheData$219403[ebp]
	mov	al, BYTE PTR [edx]
	and	al, 1
	mov	BYTE PTR _bPreviousVisibleToTeam$[ebp], al

; 2052 : #endif
; 2053 : 		// JON - Special case for the original node passed into this function because it's not yet linked to any parent
; 2054 : 		if(pNode == node && bFirstRun)

	mov	ecx, DWORD PTR _pNode$[ebp]
	cmp	ecx, DWORD PTR _node$[ebp]
	jne	SHORT $LN23@PathValid
	movzx	edx, BYTE PTR _bFirstRun$[ebp]
	test	edx, edx
	je	SHORT $LN23@PathValid

; 2055 : 		{
; 2056 : 			pNode = parent;

	mov	eax, DWORD PTR _parent$[ebp]
	mov	DWORD PTR _pNode$[ebp], eax

; 2057 : 			bFirstRun = false;

	mov	BYTE PTR _bFirstRun$[ebp], 0

; 2058 : 		}
; 2059 : 		else

	jmp	SHORT $LN22@PathValid
$LN23@PathValid:

; 2060 : 		{
; 2061 : 			pNode = pNode->m_pParent;

	mov	ecx, DWORD PTR _pNode$[ebp]
	mov	edx, DWORD PTR [ecx+24]
	mov	DWORD PTR _pNode$[ebp], edx
$LN22@PathValid:

; 2062 : 		}
; 2063 : 
; 2064 : 		if(pNode != NULL)

	cmp	DWORD PTR _pNode$[ebp], 0
	je	SHORT $LN21@PathValid

; 2065 : 		{
; 2066 : 			iNodeX = pNode->m_iX;

	mov	eax, DWORD PTR _pNode$[ebp]
	movsx	ecx, WORD PTR [eax+80]
	mov	DWORD PTR _iNodeX$[ebp], ecx

; 2067 : 			iNodeY = pNode->m_iY;

	mov	edx, DWORD PTR _pNode$[ebp]
	movsx	eax, WORD PTR [edx+82]
	mov	DWORD PTR _iNodeY$[ebp], eax

; 2068 : 			iOldNumTurns = iNumTurns;

	mov	ecx, DWORD PTR _iNumTurns$[ebp]
	mov	DWORD PTR _iOldNumTurns$[ebp], ecx

; 2069 : 			iNumTurns = pNode->m_iData2;

	mov	edx, DWORD PTR _pNode$[ebp]
	mov	eax, DWORD PTR [edx+16]
	mov	DWORD PTR _iNumTurns$[ebp], eax
$LN21@PathValid:

; 2070 : 		}
; 2071 : 	}

	jmp	$LN43@PathValid
$LN42@PathValid:

; 2072 : 
; 2073 : 	// slewis - moved this up so units can't move directly into the water. Not 100% sure this is the right solution.
; 2074 : 	if(unit_domain_type == DOMAIN_LAND)

	cmp	DWORD PTR _unit_domain_type$[ebp], 2
	jne	$LN20@PathValid

; 2075 : 	{
; 2076 : 		if(!kFromNodeCacheData.bIsWater && kToNodeCacheData.bIsWater && kToNodeCacheData.bIsRevealedToTeam && !pUnit->canEmbarkOnto(*pFromPlot, *pToPlot, true))

	mov	ecx, DWORD PTR _kFromNodeCacheData$[ebp]
	mov	dl, BYTE PTR [ecx]
	shr	dl, 2
	and	dl, 1
	movzx	eax, dl
	test	eax, eax
	jne	SHORT $LN20@PathValid
	mov	ecx, DWORD PTR _kToNodeCacheData$[ebp]
	mov	dl, BYTE PTR [ecx]
	shr	dl, 2
	and	dl, 1
	movzx	eax, dl
	test	eax, eax
	je	SHORT $LN20@PathValid
	mov	ecx, DWORD PTR _kToNodeCacheData$[ebp]
	mov	dl, BYTE PTR [ecx]
	shr	dl, 4
	and	dl, 1
	movzx	eax, dl
	test	eax, eax
	je	SHORT $LN20@PathValid
	push	0
	push	1
	mov	ecx, DWORD PTR _pToPlot$[ebp]
	push	ecx
	mov	edx, DWORD PTR _pFromPlot$[ebp]
	push	edx
	mov	ecx, DWORD PTR _pUnit$[ebp]
	call	?canEmbarkOnto@CvUnit@@QBE_NABVCvPlot@@0_N1@Z ; CvUnit::canEmbarkOnto
	movzx	eax, al
	test	eax, eax
	jne	SHORT $LN20@PathValid

; 2077 : 		{
; 2078 : #ifdef AUI_UNIT_FIX_HOVERING_EMBARK
; 2079 : 			if (!pUnit->canMoveAllTerrain())
; 2080 : #else
; 2081 : 			if(!pUnit->IsHoveringUnit() && !pUnit->canMoveAllTerrain() && !pToPlot->IsAllowsWalkWater())

	mov	ecx, DWORD PTR _pUnit$[ebp]
	call	?IsHoveringUnit@CvUnit@@QBE_NXZ		; CvUnit::IsHoveringUnit
	movzx	ecx, al
	test	ecx, ecx
	jne	SHORT $LN20@PathValid
	mov	ecx, DWORD PTR _pUnit$[ebp]
	call	?canMoveAllTerrain@CvUnit@@QBE_NXZ	; CvUnit::canMoveAllTerrain
	movzx	edx, al
	test	edx, edx
	jne	SHORT $LN20@PathValid
	mov	ecx, DWORD PTR _pToPlot$[ebp]
	call	?IsAllowsWalkWater@CvPlot@@QBE_NXZ	; CvPlot::IsAllowsWalkWater
	movzx	eax, al
	test	eax, eax
	jne	SHORT $LN20@PathValid

; 2082 : #endif
; 2083 : 			{
; 2084 : 				return FALSE;

	xor	eax, eax
	jmp	$LN49@PathValid
$LN20@PathValid:

; 2085 : 			}
; 2086 : 		}
; 2087 : 	}
; 2088 : 
; 2089 : #ifndef AUI_ASTAR_FIX_RADAR
; 2090 : 	if(!bUnitIsCombat && unit_domain_type != DOMAIN_AIR)
; 2091 : 	{
; 2092 : 		const PlayerTypes eUnitPlayer = unit_owner;
; 2093 : 		const int iUnitCount = pToPlot->getNumUnits();
; 2094 : 		for(int iUnit = 0; iUnit < iUnitCount; ++iUnit)
; 2095 : 		{
; 2096 : 			const CvUnit* pToPlotUnit = pToPlot->getUnitByIndex(iUnit);
; 2097 : 			if(pToPlotUnit != NULL && pToPlotUnit->getOwner() != eUnitPlayer)
; 2098 : 			{
; 2099 : 				return FALSE; // Plot occupied by another player
; 2100 : 			}
; 2101 : 		}
; 2102 : 	}
; 2103 : #endif
; 2104 : 
; 2105 : 	// slewis - Added to catch when the unit is adjacent to an enemy unit while it is stacked with a friendly unit.
; 2106 : 	//          The logic above (with bPreviousNodeHostile) catches this problem with a path that's longer than one step
; 2107 : 	//          but does not catch when the path is only one step.
; 2108 : #ifdef AUI_ASTAR_FIX_RADAR
; 2109 : 	if (unit_domain_type != DOMAIN_AIR && pUnitPlot->isAdjacent(pToPlot) && kToNodeCacheData.bContainsVisibleEnemy && !(iFinderIgnoreStacking))

	cmp	DWORD PTR _unit_domain_type$[ebp], 1
	je	SHORT $LN17@PathValid
	mov	ecx, DWORD PTR _pToPlot$[ebp]
	push	ecx
	mov	ecx, DWORD PTR _pUnitPlot$[ebp]
	call	?isAdjacent@CvPlot@@QBE_NPBV1@@Z	; CvPlot::isAdjacent
	movzx	edx, al
	test	edx, edx
	je	SHORT $LN17@PathValid
	mov	eax, DWORD PTR _kToNodeCacheData$[ebp]
	mov	cl, BYTE PTR [eax]
	shr	cl, 7
	and	cl, 1
	movzx	edx, cl
	test	edx, edx
	je	SHORT $LN17@PathValid
	cmp	DWORD PTR _iFinderIgnoreStacking$[ebp], 0
	jne	SHORT $LN17@PathValid

; 2110 : #else
; 2111 : 	if(bUnitIsCombat && unit_domain_type != DOMAIN_AIR && pUnitPlot->isAdjacent(pToPlot) && kToNodeCacheData.bContainsVisibleEnemy && !(iFinderIgnoreStacking))
; 2112 : #endif
; 2113 : 	{
; 2114 : 		if(kToNodeCacheData.bContainsVisibleEnemyDefender)

	mov	eax, DWORD PTR _kToNodeCacheData$[ebp]
	mov	cl, BYTE PTR [eax+1]
	and	cl, 1
	movzx	edx, cl
	test	edx, edx
	je	SHORT $LN17@PathValid

; 2115 : 		{
; 2116 : 			if(pUnitPlot->getNumFriendlyUnitsOfType(pUnit) > iUnitPlotLimit)

	push	1
	mov	eax, DWORD PTR _pUnit$[ebp]
	push	eax
	mov	ecx, DWORD PTR _pUnitPlot$[ebp]
	call	?getNumFriendlyUnitsOfType@CvPlot@@QBEHPBVCvUnit@@_N@Z ; CvPlot::getNumFriendlyUnitsOfType
	cmp	eax, DWORD PTR _iUnitPlotLimit$[ebp]
	jle	SHORT $LN17@PathValid

; 2117 : 			{
; 2118 : 				return FALSE;

	xor	eax, eax
	jmp	$LN49@PathValid
$LN17@PathValid:

; 2119 : 			}
; 2120 : 		}
; 2121 : 	}
; 2122 : 
; 2123 : 	if(pUnitPlot == pFromPlot)

	mov	ecx, DWORD PTR _pUnitPlot$[ebp]
	cmp	ecx, DWORD PTR _pFromPlot$[ebp]
	jne	SHORT $LN14@PathValid

; 2124 : 	{
; 2125 : 		return TRUE;

	mov	eax, 1
	jmp	$LN49@PathValid
$LN14@PathValid:

; 2126 : 	}
; 2127 : 
; 2128 : 	if(iFinderInfo & MOVE_TERRITORY_NO_UNEXPLORED)

	mov	edx, DWORD PTR _iFinderInfo$[ebp]
	and	edx, 1
	je	SHORT $LN13@PathValid

; 2129 : 	{
; 2130 : 		if(!(kFromNodeCacheData.bIsRevealedToTeam))

	mov	eax, DWORD PTR _kFromNodeCacheData$[ebp]
	mov	cl, BYTE PTR [eax]
	shr	cl, 4
	and	cl, 1
	movzx	edx, cl
	test	edx, edx
	jne	SHORT $LN12@PathValid

; 2131 : 		{
; 2132 : 			return FALSE;

	xor	eax, eax
	jmp	$LN49@PathValid
$LN12@PathValid:

; 2133 : 		}
; 2134 : 
; 2135 : 		if(bFromPlotOwned)

	movzx	eax, BYTE PTR _bFromPlotOwned$[ebp]
	test	eax, eax
	je	SHORT $LN13@PathValid

; 2136 : 		{
; 2137 : 			if(eFromPlotTeam != eUnitTeam)

	mov	ecx, DWORD PTR _eFromPlotTeam$[ebp]
	cmp	ecx, DWORD PTR _eUnitTeam$[ebp]
	je	SHORT $LN13@PathValid

; 2138 : 			{
; 2139 : 				return FALSE;

	xor	eax, eax
	jmp	$LN49@PathValid
$LN13@PathValid:

; 2140 : 			}
; 2141 : 		}
; 2142 : 	}
; 2143 : 
; 2144 : 	if(iFinderInfo & MOVE_TERRITORY_NO_ENEMY)

	mov	edx, DWORD PTR _iFinderInfo$[ebp]
	and	edx, 2
	je	SHORT $LN9@PathValid

; 2145 : 	{
; 2146 : 		if(bFromPlotOwned)

	movzx	eax, BYTE PTR _bFromPlotOwned$[ebp]
	test	eax, eax
	je	SHORT $LN9@PathValid

; 2147 : 		{
; 2148 : 			if(atWar(eFromPlotTeam, eUnitTeam))

	mov	ecx, DWORD PTR _eUnitTeam$[ebp]
	push	ecx
	mov	edx, DWORD PTR _eFromPlotTeam$[ebp]
	push	edx
	call	?atWar@@YA_NW4TeamTypes@@0@Z		; atWar
	add	esp, 8
	movzx	eax, al
	test	eax, eax
	je	SHORT $LN9@PathValid

; 2149 : 			{
; 2150 : 				return FALSE;

	xor	eax, eax
	jmp	$LN49@PathValid
$LN9@PathValid:

; 2151 : 			}
; 2152 : 		}
; 2153 : 	}
; 2154 : #ifndef ASTAR_AI_CONTROL_FIX_RADAR
; 2155 : 	if(bAIControl)
; 2156 : 	{
; 2157 : 		if((parent->m_iData2 > 1) || (parent->m_iData1 == 0))
; 2158 : 		{
; 2159 : 			if(!(iFinderInfo & MOVE_UNITS_IGNORE_DANGER))
; 2160 : 			{
; 2161 : 				if(!bUnitIsCombat || pUnit->getArmyID() == FFreeList::INVALID_INDEX)
; 2162 : 				{
; 2163 : #ifdef AUI_ASTAR_FIX_CONSIDER_DANGER_USES_TO_PLOT_NOT_FROM_PLOT
; 2164 : #ifdef AUI_ASTAR_FIX_CONSIDER_DANGER_USES_COMBAT_STRENGTH
; 2165 : #ifdef AUI_ASTAR_FIX_CONSIDER_DANGER_ONLY_POSITIVE_DANGER_DELTA
; 2166 : 					if (GET_PLAYER(pUnit->getOwner()).GetPlotDanger(*pToPlot) > pCacheData->baseCombatStrengthConsideringDamage() * AUI_ASTAR_FIX_CONSIDER_DANGER_USES_COMBAT_STRENGTH &&
; 2167 : 						GET_PLAYER(pUnit->getOwner()).GetPlotDanger(*pFromPlot) <= pCacheData->baseCombatStrengthConsideringDamage() * AUI_ASTAR_FIX_CONSIDER_DANGER_USES_COMBAT_STRENGTH)
; 2168 : #else
; 2169 : 					if (GET_PLAYER(unit_owner).GetPlotDanger(*pToPlot) > pCacheData->baseCombatStrengthConsideringDamage() * AUI_ASTAR_FIX_CONSIDER_DANGER_USES_COMBAT_STRENGTH)
; 2170 : #endif
; 2171 : #elif defined(AUI_ASTAR_FIX_CONSIDER_DANGER_ONLY_POSITIVE_DANGER_DELTA)
; 2172 : 					if (GET_PLAYER(pUnit->getOwner()).GetPlotDanger(*pToPlot) > 0 && GET_PLAYER(pUnit->getOwner()).GetPlotDanger(*pFromPlot) <= 0)
; 2173 : #else
; 2174 : 					if (GET_PLAYER(unit_owner).GetPlotDanger(*pToPlot) > 0)
; 2175 : #endif
; 2176 : #elif defined(AUI_ASTAR_FIX_CONSIDER_DANGER_USES_COMBAT_STRENGTH)
; 2177 : 					if (GET_PLAYER(unit_owner).GetPlotDanger(*pFromPlot) > pCacheData->baseCombatStrengthConsideringDamage() * AUI_ASTAR_FIX_CONSIDER_DANGER_USES_COMBAT_STRENGTH)
; 2178 : #else
; 2179 : 					if(GET_PLAYER(unit_owner).GetPlotDanger(*pFromPlot) > 0)
; 2180 : #endif
; 2181 : 					{
; 2182 : 						return FALSE;
; 2183 : 					}
; 2184 : 				}
; 2185 : 			}
; 2186 : 		}
; 2187 : 	}
; 2188 : #endif
; 2189 : 	// slewis - added AI check and embark check to prevent units from moving into unexplored areas
; 2190 : #ifdef ASTAR_AI_CONTROL_FIX_RADAR
; 2191 : 	if(kFromNodeCacheData.bIsRevealedToTeam || pCacheData->isEmbarked() || !bIsHuman)

	mov	ecx, DWORD PTR _kFromNodeCacheData$[ebp]
	mov	dl, BYTE PTR [ecx]
	shr	dl, 4
	and	dl, 1
	movzx	eax, dl
	test	eax, eax
	jne	SHORT $LN5@PathValid
	mov	ecx, DWORD PTR _pCacheData$[ebp]
	mov	dl, BYTE PTR [ecx+41]
	mov	BYTE PTR $T222725[ebp], dl
	movzx	eax, BYTE PTR $T222725[ebp]
	test	eax, eax
	jne	SHORT $LN5@PathValid
	movzx	ecx, BYTE PTR _bIsHuman$[ebp]
	test	ecx, ecx
	jne	SHORT $LN6@PathValid
$LN5@PathValid:

; 2192 : #else
; 2193 : 	if(bAIControl || kFromNodeCacheData.bIsRevealedToTeam || pCacheData->isEmbarked() || !bIsHuman)
; 2194 : #endif
; 2195 : 	{
; 2196 : 		if(iFinderInfo & MOVE_UNITS_THROUGH_ENEMY)

	mov	edx, DWORD PTR _iFinderInfo$[ebp]
	and	edx, 16					; 00000010H
	je	SHORT $LN4@PathValid

; 2197 : 		{
; 2198 : #ifdef AUI_ASTAR_FIX_CAN_ENTER_TERRAIN_NO_DUPLICATE_CALLS
; 2199 : 			if (!(pUnit->canMoveOrAttackInto(*pFromPlot, CvUnit::MOVEFLAG_PRETEND_CORRECT_EMBARK_STATE, kFromNodeCacheData.bCanEnterTerrain, true)))
; 2200 : #else
; 2201 : 			if(!(pUnit->canMoveOrAttackInto(*pFromPlot, CvUnit::MOVEFLAG_PRETEND_CORRECT_EMBARK_STATE)))

	push	128					; 00000080H
	mov	eax, DWORD PTR _pFromPlot$[ebp]
	push	eax
	mov	ecx, DWORD PTR _pUnit$[ebp]
	call	?canMoveOrAttackInto@CvUnit@@QBE_NABVCvPlot@@E@Z ; CvUnit::canMoveOrAttackInto
	movzx	ecx, al
	test	ecx, ecx
	jne	SHORT $LN3@PathValid

; 2202 : #endif
; 2203 : 			{
; 2204 : 				return FALSE;

	xor	eax, eax
	jmp	SHORT $LN49@PathValid
$LN3@PathValid:

; 2205 : 			}
; 2206 : 		}
; 2207 : 		else

	jmp	SHORT $LN6@PathValid
$LN4@PathValid:

; 2208 : 		{
; 2209 : #ifdef AUI_ASTAR_FIX_CAN_ENTER_TERRAIN_NO_DUPLICATE_CALLS
; 2210 : 			if (!(pUnit->canMoveThrough(*pFromPlot, CvUnit::MOVEFLAG_PRETEND_CORRECT_EMBARK_STATE, kFromNodeCacheData.bCanEnterTerrain, true)))
; 2211 : #else
; 2212 : 			if(!(pUnit->canMoveThrough(*pFromPlot, CvUnit::MOVEFLAG_PRETEND_CORRECT_EMBARK_STATE)))

	push	128					; 00000080H
	mov	edx, DWORD PTR _pFromPlot$[ebp]
	push	edx
	mov	ecx, DWORD PTR _pUnit$[ebp]
	call	?canMoveThrough@CvUnit@@QBE_NABVCvPlot@@E@Z ; CvUnit::canMoveThrough
	movzx	eax, al
	test	eax, eax
	jne	SHORT $LN6@PathValid

; 2213 : #endif
; 2214 : 			{
; 2215 : 				return FALSE;

	xor	eax, eax
	jmp	SHORT $LN49@PathValid
$LN6@PathValid:

; 2216 : 			}
; 2217 : 		}
; 2218 : 	}
; 2219 : 
; 2220 : 	return TRUE;

	mov	eax, 1
$LN49@PathValid:

; 2221 : }

	mov	esp, ebp
	pop	ebp
	ret	0
?PathValid@@YAHPAVCvAStarNode@@0HPBXPAVCvAStar@@@Z ENDP	; PathValid
_TEXT	ENDS
PUBLIC	?PathAdd@@YAHPAVCvAStarNode@@0HPBXPAVCvAStar@@@Z ; PathAdd
EXTRN	?movesLeft@CvUnit@@QBEHXZ:PROC			; CvUnit::movesLeft
; Function compile flags: /Odtp
;	COMDAT ?PathAdd@@YAHPAVCvAStarNode@@0HPBXPAVCvAStar@@@Z
_TEXT	SEGMENT
tv180 = -108						; size = 4
tv160 = -104						; size = 4
tv187 = -100						; size = 4
$T222828 = -96						; size = 4
$T222819 = -92						; size = 4
$T222813 = -88						; size = 4
$T222812 = -84						; size = 4
$T222808 = -80						; size = 4
$T222804 = -76						; size = 4
$T222800 = -69						; size = 1
$T222793 = -68						; size = 4
$T222789 = -64						; size = 4
$T222788 = -60						; size = 4
$T222771 = -56						; size = 4
$T222755 = -52						; size = 4
$T222743 = -48						; size = 4
$T222734 = -44						; size = 4
$T222731 = -40						; size = 4
$T222728 = -36						; size = 4
_kMap$219466 = -32					; size = 4
_pFromPlot$219467 = -28					; size = 4
_iStartMoves$219469 = -24				; size = 4
_pToPlot$219468 = -20					; size = 4
_pUnit$ = -16						; size = 4
_pCacheData$ = -12					; size = 4
_iMoves$ = -8						; size = 4
_iTurns$ = -4						; size = 4
_parent$ = 8						; size = 4
_node$ = 12						; size = 4
_data$ = 16						; size = 4
_pointer$ = 20						; size = 4
_finder$ = 24						; size = 4
?PathAdd@@YAHPAVCvAStarNode@@0HPBXPAVCvAStar@@@Z PROC	; PathAdd, COMDAT

; 2228 : {

	push	ebp
	mov	ebp, esp
	sub	esp, 108				; 0000006cH

; 2229 : 	int iMoves = MAX_INT;

	mov	DWORD PTR _iMoves$[ebp], 2147483647	; 7fffffffH

; 2230 : 	CvUnit* pUnit = ((CvUnit*)pointer);

	mov	eax, DWORD PTR _pointer$[ebp]
	mov	DWORD PTR _pUnit$[ebp], eax

; 2231 : 	const UnitPathCacheData* pCacheData = reinterpret_cast<const UnitPathCacheData*>(finder->GetScratchBuffer());

	mov	ecx, DWORD PTR _finder$[ebp]
	add	ecx, 116				; 00000074H
	mov	DWORD PTR _pCacheData$[ebp], ecx

; 2232 : 
; 2233 : 	int iTurns;
; 2234 : 
; 2235 : 	if(data == ASNC_INITIALADD)

	cmp	DWORD PTR _data$[ebp], 0
	jne	SHORT $LN6@PathAdd

; 2236 : 	{
; 2237 : 		iTurns = 1;

	mov	DWORD PTR _iTurns$[ebp], 1

; 2238 : #ifdef AUI_ASTAR_MINOR_OPTIMIZATION
; 2239 : 		iMoves = pUnit->movesLeft();
; 2240 : #else
; 2241 : 		iMoves = std::min(iMoves, pUnit->movesLeft());

	mov	ecx, DWORD PTR _pUnit$[ebp]
	call	?movesLeft@CvUnit@@QBEHXZ		; CvUnit::movesLeft
	mov	DWORD PTR $T222728[ebp], eax
	mov	edx, DWORD PTR $T222728[ebp]
	cmp	edx, DWORD PTR _iMoves$[ebp]
	jge	SHORT $LN17@PathAdd
	lea	eax, DWORD PTR $T222728[ebp]
	mov	DWORD PTR tv187[ebp], eax
	jmp	SHORT $LN18@PathAdd
$LN17@PathAdd:
	lea	ecx, DWORD PTR _iMoves$[ebp]
	mov	DWORD PTR tv187[ebp], ecx
$LN18@PathAdd:
	mov	edx, DWORD PTR tv187[ebp]
	mov	DWORD PTR $T222743[ebp], edx
	mov	eax, DWORD PTR $T222743[ebp]
	mov	ecx, DWORD PTR [eax]
	mov	DWORD PTR _iMoves$[ebp], ecx

; 2242 : #endif
; 2243 : 	}
; 2244 : 	else

	jmp	$LN5@PathAdd
$LN6@PathAdd:

; 2245 : 	{
; 2246 : #ifdef AUI_ASTAR_CACHE_PLOTS_AT_NODES
; 2247 : 		const CvPlot* pFromPlot = parent->m_pPlot;
; 2248 : 		const CvPlot* pToPlot = node->m_pPlot;
; 2249 : #else
; 2250 : 		CvMap& kMap = GC.getMap();

	mov	edx, DWORD PTR ?gGlobals@@3VCvGlobals@@A+52
	mov	DWORD PTR _kMap$219466[ebp], edx

; 2251 : 		CvPlot* pFromPlot = kMap.plotUnchecked(parent->m_iX, parent->m_iY);

	mov	eax, DWORD PTR _kMap$219466[ebp]
	mov	ecx, DWORD PTR [eax+4020]
	mov	DWORD PTR $T222755[ebp], ecx
	mov	edx, DWORD PTR _parent$[ebp]
	movsx	eax, WORD PTR [edx+80]
	mov	ecx, DWORD PTR _parent$[ebp]
	movsx	edx, WORD PTR [ecx+82]
	imul	edx, DWORD PTR $T222755[ebp]
	add	edx, eax
	imul	edx, 484				; 000001e4H
	mov	eax, DWORD PTR _kMap$219466[ebp]
	add	edx, DWORD PTR [eax+4068]
	mov	DWORD PTR _pFromPlot$219467[ebp], edx

; 2252 : 		CvPlot* pToPlot = kMap.plotUnchecked(node->m_iX, node->m_iY);

	mov	ecx, DWORD PTR _kMap$219466[ebp]
	mov	edx, DWORD PTR [ecx+4020]
	mov	DWORD PTR $T222771[ebp], edx
	mov	eax, DWORD PTR _node$[ebp]
	movsx	ecx, WORD PTR [eax+80]
	mov	edx, DWORD PTR _node$[ebp]
	movsx	eax, WORD PTR [edx+82]
	imul	eax, DWORD PTR $T222771[ebp]
	add	eax, ecx
	imul	eax, 484				; 000001e4H
	mov	ecx, DWORD PTR _kMap$219466[ebp]
	add	eax, DWORD PTR [ecx+4068]
	mov	DWORD PTR _pToPlot$219468[ebp], eax

; 2253 : #endif
; 2254 : 
; 2255 : 		int iStartMoves = parent->m_iData1;

	mov	edx, DWORD PTR _parent$[ebp]
	mov	eax, DWORD PTR [edx+12]
	mov	DWORD PTR _iStartMoves$219469[ebp], eax

; 2256 : 		iTurns = parent->m_iData2;

	mov	ecx, DWORD PTR _parent$[ebp]
	mov	edx, DWORD PTR [ecx+16]
	mov	DWORD PTR _iTurns$[ebp], edx

; 2257 : #ifdef AUI_ASTAR_MINOR_OPTIMIZATION
; 2258 : 		int iBaseMoves = pCacheData->baseMoves(((pFromPlot->isWater() && !pFromPlot->IsAllowsWalkWater()) || pCacheData->isEmbarked()) ? DOMAIN_SEA : pCacheData->getDomainType());
; 2259 : #endif
; 2260 : 
; 2261 : 		if(iStartMoves == 0)

	cmp	DWORD PTR _iStartMoves$219469[ebp], 0
	jne	SHORT $LN4@PathAdd

; 2262 : 		{
; 2263 : 			iTurns++;

	mov	eax, DWORD PTR _iTurns$[ebp]
	add	eax, 1
	mov	DWORD PTR _iTurns$[ebp], eax

; 2264 : #ifdef AUI_ASTAR_MINOR_OPTIMIZATION
; 2265 : 			iStartMoves = iBaseMoves * GC.getMOVE_DENOMINATOR();
; 2266 : #else
; 2267 : 			iStartMoves = pCacheData->baseMoves((pToPlot->isWater() && !pToPlot->IsAllowsWalkWater()) ? DOMAIN_SEA : DOMAIN_LAND) * GC.getMOVE_DENOMINATOR();

	mov	ecx, DWORD PTR _pToPlot$219468[ebp]
	movsx	edx, BYTE PTR [ecx+5]
	xor	eax, eax
	cmp	edx, 3
	sete	al
	movzx	ecx, al
	test	ecx, ecx
	je	SHORT $LN9@PathAdd
	mov	ecx, DWORD PTR _pToPlot$219468[ebp]
	call	?IsAllowsWalkWater@CvPlot@@QBE_NXZ	; CvPlot::IsAllowsWalkWater
	movzx	edx, al
	test	edx, edx
	jne	SHORT $LN9@PathAdd
	mov	DWORD PTR $T222788[ebp], 0
	jmp	SHORT $LN10@PathAdd
$LN9@PathAdd:
	mov	DWORD PTR $T222788[ebp], 2
$LN10@PathAdd:
	mov	eax, DWORD PTR $T222788[ebp]
	mov	ecx, DWORD PTR _pCacheData$[ebp]
	mov	edx, DWORD PTR [ecx+eax*4]
	mov	DWORD PTR $T222789[ebp], edx
	mov	eax, DWORD PTR ?gGlobals@@3VCvGlobals@@A+6236
	mov	DWORD PTR $T222793[ebp], eax
	mov	ecx, DWORD PTR $T222789[ebp]
	imul	ecx, DWORD PTR $T222793[ebp]
	mov	DWORD PTR _iStartMoves$219469[ebp], ecx
$LN4@PathAdd:

; 2268 : #endif
; 2269 : 		}
; 2270 : 
; 2271 : #ifdef AUI_ASTAR_MINOR_OPTIMIZATION
; 2272 : 		// We can just set maxMoves to the maximum integer value and use it for increased portability and no redundant checks, iMoves gets set to 0 anyway if it's negative
; 2273 : 		iMoves = iStartMoves - CvUnitMovement::MovementCost(pUnit, pFromPlot, pToPlot, iBaseMoves, MAX_INT, iStartMoves);
; 2274 : 		if (iMoves < 0)
; 2275 : 			iMoves = 0;
; 2276 : #else
; 2277 : 		// We can't use maxMoves, because that checks where the unit is currently, and we're plotting a path so we have to see
; 2278 : 		// what the max moves would be like if the unit was already at the desired location.
; 2279 : 		if (CvUnitMovement::ConsumesAllMoves(pUnit, pFromPlot, pToPlot) || CvUnitMovement::IsSlowedByZOC(pUnit, pFromPlot, pToPlot))

	mov	edx, DWORD PTR _pToPlot$219468[ebp]
	push	edx
	mov	eax, DWORD PTR _pFromPlot$219467[ebp]
	push	eax
	mov	ecx, DWORD PTR _pUnit$[ebp]
	push	ecx
	call	?ConsumesAllMoves@CvUnitMovement@@SA_NPBVCvUnit@@PBVCvPlot@@1@Z ; CvUnitMovement::ConsumesAllMoves
	add	esp, 12					; 0000000cH
	movzx	edx, al
	test	edx, edx
	jne	SHORT $LN2@PathAdd
	mov	eax, DWORD PTR _pToPlot$219468[ebp]
	push	eax
	mov	ecx, DWORD PTR _pFromPlot$219467[ebp]
	push	ecx
	mov	edx, DWORD PTR _pUnit$[ebp]
	push	edx
	call	?IsSlowedByZOC@CvUnitMovement@@SA_NPBVCvUnit@@PBVCvPlot@@1@Z ; CvUnitMovement::IsSlowedByZOC
	add	esp, 12					; 0000000cH
	movzx	eax, al
	test	eax, eax
	je	SHORT $LN39@PathAdd
$LN2@PathAdd:

; 2280 : 		{
; 2281 : 			iMoves = 0;

	mov	DWORD PTR _iMoves$[ebp], 0

; 2282 : 		}
; 2283 : 		else

	jmp	$LN5@PathAdd

; 2284 : 		{
; 2285 : 			iMoves = std::min(iMoves, std::max(0, iStartMoves - CvUnitMovement::MovementCost(pUnit, pFromPlot, pToPlot, pCacheData->baseMoves((pToPlot->isWater() || pCacheData->isEmbarked())?DOMAIN_SEA:pCacheData->getDomainType()), pCacheData->maxMoves(), iStartMoves)));

$LN39@PathAdd:
	mov	ecx, DWORD PTR _pToPlot$219468[ebp]
	movsx	edx, BYTE PTR [ecx+5]
	xor	eax, eax
	cmp	edx, 3
	sete	al
	movzx	ecx, al
	test	ecx, ecx
	jne	SHORT $LN11@PathAdd
	mov	edx, DWORD PTR _pCacheData$[ebp]
	mov	al, BYTE PTR [edx+41]
	mov	BYTE PTR $T222800[ebp], al
	movzx	ecx, BYTE PTR $T222800[ebp]
	test	ecx, ecx
	jne	SHORT $LN11@PathAdd
	mov	edx, DWORD PTR $T222804[ebp]
	mov	DWORD PTR $T222812[ebp], edx
	mov	eax, DWORD PTR _pCacheData$[ebp]
	mov	ecx, DWORD PTR [eax+32]
	mov	DWORD PTR $T222812[ebp], ecx
	jmp	SHORT $LN12@PathAdd
$LN11@PathAdd:
	mov	DWORD PTR $T222812[ebp], 0
$LN12@PathAdd:
	mov	edx, DWORD PTR _pCacheData$[ebp]
	mov	eax, DWORD PTR [edx+20]
	mov	DWORD PTR $T222808[ebp], eax
	mov	ecx, DWORD PTR $T222812[ebp]
	mov	edx, DWORD PTR _pCacheData$[ebp]
	mov	eax, DWORD PTR [edx+ecx*4]
	mov	DWORD PTR $T222813[ebp], eax
	mov	ecx, DWORD PTR _iStartMoves$219469[ebp]
	push	ecx
	mov	edx, DWORD PTR $T222808[ebp]
	push	edx
	mov	eax, DWORD PTR $T222813[ebp]
	push	eax
	mov	ecx, DWORD PTR _pToPlot$219468[ebp]
	push	ecx
	mov	edx, DWORD PTR _pFromPlot$219467[ebp]
	push	edx
	mov	eax, DWORD PTR _pUnit$[ebp]
	push	eax
	call	?MovementCost@CvUnitMovement@@SAHPBVCvUnit@@PBVCvPlot@@1HHH@Z ; CvUnitMovement::MovementCost
	add	esp, 24					; 00000018H
	mov	ecx, DWORD PTR _iStartMoves$219469[ebp]
	sub	ecx, eax
	mov	DWORD PTR $T222731[ebp], ecx
	mov	DWORD PTR $T222734[ebp], 0
	mov	edx, DWORD PTR $T222734[ebp]
	cmp	edx, DWORD PTR $T222731[ebp]
	jge	SHORT $LN51@PathAdd
	lea	eax, DWORD PTR $T222731[ebp]
	mov	DWORD PTR tv160[ebp], eax
	jmp	SHORT $LN52@PathAdd
$LN51@PathAdd:
	lea	ecx, DWORD PTR $T222734[ebp]
	mov	DWORD PTR tv160[ebp], ecx
$LN52@PathAdd:
	mov	edx, DWORD PTR tv160[ebp]
	mov	DWORD PTR $T222819[ebp], edx
	mov	eax, DWORD PTR $T222819[ebp]
	mov	ecx, DWORD PTR [eax]
	cmp	ecx, DWORD PTR _iMoves$[ebp]
	jge	SHORT $LN55@PathAdd
	mov	edx, DWORD PTR $T222819[ebp]
	mov	DWORD PTR tv180[ebp], edx
	jmp	SHORT $LN56@PathAdd
$LN55@PathAdd:
	lea	eax, DWORD PTR _iMoves$[ebp]
	mov	DWORD PTR tv180[ebp], eax
$LN56@PathAdd:
	mov	ecx, DWORD PTR tv180[ebp]
	mov	DWORD PTR $T222828[ebp], ecx
	mov	edx, DWORD PTR $T222828[ebp]
	mov	eax, DWORD PTR [edx]
	mov	DWORD PTR _iMoves$[ebp], eax
$LN5@PathAdd:

; 2286 : 		}
; 2287 : #endif
; 2288 : 	}
; 2289 : 
; 2290 : 	FAssertMsg(iMoves >= 0, "iMoves is expected to be non-negative (invalid Index)");
; 2291 : 
; 2292 : 	node->m_iData1 = iMoves;

	mov	ecx, DWORD PTR _node$[ebp]
	mov	edx, DWORD PTR _iMoves$[ebp]
	mov	DWORD PTR [ecx+12], edx

; 2293 : 	node->m_iData2 = iTurns;

	mov	eax, DWORD PTR _node$[ebp]
	mov	ecx, DWORD PTR _iTurns$[ebp]
	mov	DWORD PTR [eax+16], ecx

; 2294 : 
; 2295 : 	return 1;

	mov	eax, 1

; 2296 : }

	mov	esp, ebp
	pop	ebp
	ret	0
?PathAdd@@YAHPAVCvAStarNode@@0HPBXPAVCvAStar@@@Z ENDP	; PathAdd
_TEXT	ENDS
PUBLIC	?GetPartialMoveNode@CvTwoLayerPathFinder@@QAEPAVCvAStarNode@@HH@Z ; CvTwoLayerPathFinder::GetPartialMoveNode
PUBLIC	?PathNodeAdd@@YAHPAVCvAStarNode@@0HPBXPAVCvAStar@@@Z ; PathNodeAdd
; Function compile flags: /Odtp
;	COMDAT ?PathNodeAdd@@YAHPAVCvAStarNode@@0HPBXPAVCvAStar@@@Z
_TEXT	SEGMENT
$T222865 = -36						; size = 4
$T222854 = -32						; size = 4
$T222848 = -28						; size = 4
$T222844 = -24						; size = 4
$T222840 = -17						; size = 1
$T222839 = -16						; size = 4
$T222838 = -12						; size = 4
_twoLayerFinder$219488 = -8				; size = 4
_pNode$ = -4						; size = 4
_parent$ = 8						; size = 4
_node$ = 12						; size = 4
_data$ = 16						; size = 4
_pointer$ = 20						; size = 4
_finder$ = 24						; size = 4
?PathNodeAdd@@YAHPAVCvAStarNode@@0HPBXPAVCvAStar@@@Z PROC ; PathNodeAdd, COMDAT

; 2301 : {

	push	ebp
	mov	ebp, esp
	sub	esp, 36					; 00000024H

; 2302 : #ifndef AUI_ASTAR_MINOR_OPTIMIZATION
; 2303 : 	CvAStarNode* pNode;
; 2304 : #endif
; 2305 : 
; 2306 : 	if(data == ASNL_ADDOPEN || data == ASNL_STARTOPEN)

	cmp	DWORD PTR _data$[ebp], 0
	je	SHORT $LN3@PathNodeAd
	cmp	DWORD PTR _data$[ebp], 1
	jne	$LN4@PathNodeAd
$LN3@PathNodeAd:

; 2307 : 	{
; 2308 : 		// Are there movement points left and we're worried about stacking or mountains?
; 2309 : #if defined(AUI_ASTAR_CACHE_PLOTS_AT_NODES)
; 2310 : 		if (node->m_iData1 > 0 && !finder->IsPathDest(node->m_iX, node->m_iY) && (!(finder->GetInfo() & MOVE_IGNORE_STACKING) || node->m_pPlot->isMountain()))
; 2311 : #else
; 2312 : 		if(node->m_iData1 > 0 && !finder->IsPathDest(node->m_iX, node->m_iY) && (!(finder->GetInfo() & MOVE_IGNORE_STACKING) || GC.getMap().plotUnchecked(node->m_iX, node->m_iY)->isMountain()))

	mov	eax, DWORD PTR _node$[ebp]
	cmp	DWORD PTR [eax+12], 0
	jle	$LN4@PathNodeAd
	mov	ecx, DWORD PTR _node$[ebp]
	movsx	edx, WORD PTR [ecx+82]
	mov	DWORD PTR $T222839[ebp], edx
	mov	eax, DWORD PTR _node$[ebp]
	movsx	ecx, WORD PTR [eax+80]
	mov	DWORD PTR $T222838[ebp], ecx
	mov	edx, DWORD PTR _finder$[ebp]
	cmp	DWORD PTR [edx], 0
	je	SHORT $LN7@PathNodeAd
	mov	eax, DWORD PTR _finder$[ebp]
	push	eax
	mov	ecx, DWORD PTR _finder$[ebp]
	mov	edx, DWORD PTR [ecx+44]
	push	edx
	mov	eax, DWORD PTR $T222839[ebp]
	push	eax
	mov	ecx, DWORD PTR $T222838[ebp]
	push	ecx
	mov	edx, DWORD PTR _finder$[ebp]
	mov	eax, DWORD PTR [edx]
	call	eax
	add	esp, 16					; 00000010H
	test	eax, eax
	je	SHORT $LN7@PathNodeAd
	mov	BYTE PTR $T222840[ebp], 1
	jmp	SHORT $LN8@PathNodeAd
$LN7@PathNodeAd:
	mov	BYTE PTR $T222840[ebp], 0
$LN8@PathNodeAd:
	movzx	ecx, BYTE PTR $T222840[ebp]
	test	ecx, ecx
	jne	$LN4@PathNodeAd
	mov	edx, DWORD PTR _finder$[ebp]
	mov	eax, DWORD PTR [edx+72]
	mov	DWORD PTR $T222844[ebp], eax
	mov	ecx, DWORD PTR $T222844[ebp]
	and	ecx, 4
	je	SHORT $LN1@PathNodeAd
	mov	edx, DWORD PTR ?gGlobals@@3VCvGlobals@@A+52
	mov	DWORD PTR $T222848[ebp], edx
	mov	eax, DWORD PTR $T222848[ebp]
	mov	ecx, DWORD PTR [eax+4020]
	mov	DWORD PTR $T222854[ebp], ecx
	mov	edx, DWORD PTR _node$[ebp]
	movsx	eax, WORD PTR [edx+82]
	imul	eax, DWORD PTR $T222854[ebp]
	mov	ecx, DWORD PTR _node$[ebp]
	movsx	edx, WORD PTR [ecx+80]
	add	eax, edx
	imul	eax, 484				; 000001e4H
	mov	ecx, DWORD PTR $T222848[ebp]
	add	eax, DWORD PTR [ecx+4068]
	mov	DWORD PTR $T222865[ebp], eax
	mov	edx, DWORD PTR $T222865[ebp]
	movsx	eax, BYTE PTR [edx+5]
	neg	eax
	sbb	eax, eax
	add	eax, 1
	movzx	ecx, al
	test	ecx, ecx
	je	$LN4@PathNodeAd
$LN1@PathNodeAd:

; 2313 : #endif
; 2314 : 		{
; 2315 : 			// Retrieve another node
; 2316 : #if defined(AUI_ASTAR_MINOR_OPTIMIZATION)
; 2317 : 			CvTwoLayerPathFinder* twoLayerFinder = static_cast<CvTwoLayerPathFinder*>(finder);
; 2318 : 			CvAStarNode* pNode = twoLayerFinder->GetPartialMoveNode(node->m_iX, node->m_iY);
; 2319 : #else
; 2320 : 			CvTwoLayerPathFinder* twoLayerFinder = static_cast<CvTwoLayerPathFinder*>(finder);

	mov	edx, DWORD PTR _finder$[ebp]
	mov	DWORD PTR _twoLayerFinder$219488[ebp], edx

; 2321 : 			pNode = twoLayerFinder->GetPartialMoveNode(node->m_iX, node->m_iY);

	mov	eax, DWORD PTR _node$[ebp]
	movsx	ecx, WORD PTR [eax+82]
	push	ecx
	mov	edx, DWORD PTR _node$[ebp]
	movsx	eax, WORD PTR [edx+80]
	push	eax
	mov	ecx, DWORD PTR _twoLayerFinder$219488[ebp]
	call	?GetPartialMoveNode@CvTwoLayerPathFinder@@QAEPAVCvAStarNode@@HH@Z ; CvTwoLayerPathFinder::GetPartialMoveNode
	mov	DWORD PTR _pNode$[ebp], eax

; 2322 : #endif
; 2323 : 			pNode->m_iData1 = 0;   // Zero out movement

	mov	ecx, DWORD PTR _pNode$[ebp]
	mov	DWORD PTR [ecx+12], 0

; 2324 : 			pNode->m_iData2 = node->m_iData2;

	mov	edx, DWORD PTR _pNode$[ebp]
	mov	eax, DWORD PTR _node$[ebp]
	mov	ecx, DWORD PTR [eax+16]
	mov	DWORD PTR [edx+16], ecx

; 2325 : 			pNode->m_iHeuristicCost = node->m_iHeuristicCost;

	mov	edx, DWORD PTR _pNode$[ebp]
	mov	eax, DWORD PTR _node$[ebp]
	mov	ecx, DWORD PTR [eax+8]
	mov	DWORD PTR [edx+8], ecx

; 2326 : 			pNode->m_iKnownCost = node->m_iKnownCost + (PATH_MOVEMENT_WEIGHT * node->m_iData1);

	mov	edx, DWORD PTR _node$[ebp]
	mov	eax, DWORD PTR [edx+12]
	imul	eax, 1000				; 000003e8H
	mov	ecx, DWORD PTR _node$[ebp]
	add	eax, DWORD PTR [ecx+4]
	mov	edx, DWORD PTR _pNode$[ebp]
	mov	DWORD PTR [edx+4], eax

; 2327 : 			pNode->m_iTotalCost = node->m_iTotalCost;

	mov	eax, DWORD PTR _pNode$[ebp]
	mov	ecx, DWORD PTR _node$[ebp]
	mov	edx, DWORD PTR [ecx]
	mov	DWORD PTR [eax], edx

; 2328 : 			pNode->m_iX = node->m_iX;

	mov	eax, DWORD PTR _pNode$[ebp]
	mov	ecx, DWORD PTR _node$[ebp]
	mov	dx, WORD PTR [ecx+80]
	mov	WORD PTR [eax+80], dx

; 2329 : 			pNode->m_iY = node->m_iY;

	mov	eax, DWORD PTR _pNode$[ebp]
	mov	ecx, DWORD PTR _node$[ebp]
	mov	dx, WORD PTR [ecx+82]
	mov	WORD PTR [eax+82], dx

; 2330 : 			pNode->m_pParent = node->m_pParent;

	mov	eax, DWORD PTR _pNode$[ebp]
	mov	ecx, DWORD PTR _node$[ebp]
	mov	edx, DWORD PTR [ecx+24]
	mov	DWORD PTR [eax+24], edx

; 2331 : 			pNode->m_eCvAStarListType = CVASTARLIST_OPEN;

	mov	eax, DWORD PTR _pNode$[ebp]
	mov	DWORD PTR [eax+20], 0

; 2332 : #ifdef AUI_ASTAR_MINOR_OPTIMIZATION
; 2333 : #ifdef AUI_ASTAR_FIX_CAN_ENTER_TERRAIN_NO_DUPLICATE_CALLS
; 2334 : 			pNode->bIsCalculated = node->bIsCalculated;
; 2335 : #endif
; 2336 : 			pNode->bPlotVisibleToTeam = node->bPlotVisibleToTeam;
; 2337 : 			pNode->bIsMountain = node->bIsMountain;
; 2338 : 			pNode->bIsWater = node->bIsWater;
; 2339 : 			pNode->bCanEnterTerrain = node->bCanEnterTerrain;
; 2340 : 			pNode->bIsRevealedToTeam = node->bIsRevealedToTeam;
; 2341 : 			pNode->bContainsOtherFriendlyTeamCity = node->bContainsOtherFriendlyTeamCity;
; 2342 : 			pNode->bContainsEnemyCity = node->bContainsEnemyCity;
; 2343 : 			pNode->bContainsVisibleEnemy = node->bContainsVisibleEnemy;
; 2344 : 			pNode->bContainsVisibleEnemyDefender = node->bContainsVisibleEnemyDefender;
; 2345 : #else
; 2346 : 			pNode->m_kCostCacheData = node->m_kCostCacheData;

	mov	ecx, DWORD PTR _node$[ebp]
	mov	edx, DWORD PTR [ecx+88]
	mov	eax, DWORD PTR [ecx+92]
	mov	ecx, DWORD PTR _pNode$[ebp]
	mov	DWORD PTR [ecx+88], edx
	mov	DWORD PTR [ecx+92], eax

; 2347 : #endif
; 2348 : 			finder->AddToOpen(pNode);

	mov	edx, DWORD PTR _pNode$[ebp]
	push	edx
	mov	ecx, DWORD PTR _finder$[ebp]
	call	?AddToOpen@CvAStar@@QAEXPAVCvAStarNode@@@Z ; CvAStar::AddToOpen
$LN4@PathNodeAd:

; 2349 : 		}
; 2350 : 	}
; 2351 : 
; 2352 : 	return 1;

	mov	eax, 1

; 2353 : }

	mov	esp, ebp
	pop	ebp
	ret	0
?PathNodeAdd@@YAHPAVCvAStarNode@@0HPBXPAVCvAStar@@@Z ENDP ; PathNodeAdd
_TEXT	ENDS
PUBLIC	?IgnoreUnitsDestValid@@YAHHHPBXPAVCvAStar@@@Z	; IgnoreUnitsDestValid
EXTRN	?canEnterTerritory@CvUnit@@QBE_NW4TeamTypes@@_N11@Z:PROC ; CvUnit::canEnterTerritory
; Function compile flags: /Odtp
;	COMDAT ?IgnoreUnitsDestValid@@YAHHHPBXPAVCvAStar@@@Z
_TEXT	SEGMENT
_uiOffset$222963 = -64					; size = 4
$T222954 = -57						; size = 1
_uiOffset$222949 = -56					; size = 4
$T222934 = -52						; size = 4
$T222930 = -45						; size = 1
$T222916 = -44						; size = 4
$T222910 = -40						; size = 4
$T222901 = -36						; size = 4
$T222879 = -32						; size = 4
_pUnit$ = -28						; size = 4
_kMap$ = -24						; size = 4
_bAIControl$ = -17					; size = 1
_pUnitPlot$ = -16					; size = 4
_pCacheData$ = -12					; size = 4
_eUnitTeam$ = -8					; size = 4
_pToPlot$ = -4						; size = 4
_iToX$ = 8						; size = 4
_iToY$ = 12						; size = 4
_pointer$ = 16						; size = 4
_finder$ = 20						; size = 4
?IgnoreUnitsDestValid@@YAHHHPBXPAVCvAStar@@@Z PROC	; IgnoreUnitsDestValid, COMDAT

; 2362 : {

	push	ebp
	mov	ebp, esp
	sub	esp, 64					; 00000040H

; 2363 : #ifdef AUI_ASTAR_MINOR_OPTIMIZATION
; 2364 : 	CvPlot* pToPlot = GC.getMap().plotUnchecked(iToX, iToY);
; 2365 : 	CvUnit* pUnit = ((CvUnit*)pointer);
; 2366 : #else
; 2367 : 	CvUnit* pUnit;
; 2368 : 	CvPlot* pToPlot;
; 2369 : 	bool bAIControl;
; 2370 : 	CvMap& kMap = GC.getMap();

	mov	eax, DWORD PTR ?gGlobals@@3VCvGlobals@@A+52
	mov	DWORD PTR _kMap$[ebp], eax

; 2371 : 
; 2372 : 	pToPlot = kMap.plotUnchecked(iToX, iToY);

	mov	ecx, DWORD PTR _kMap$[ebp]
	mov	edx, DWORD PTR [ecx+4020]
	mov	DWORD PTR $T222879[ebp], edx
	mov	eax, DWORD PTR _iToY$[ebp]
	imul	eax, DWORD PTR $T222879[ebp]
	add	eax, DWORD PTR _iToX$[ebp]
	imul	eax, 484				; 000001e4H
	mov	ecx, DWORD PTR _kMap$[ebp]
	add	eax, DWORD PTR [ecx+4068]
	mov	DWORD PTR _pToPlot$[ebp], eax

; 2373 : 
; 2374 : 	pUnit = ((CvUnit*)pointer);

	mov	edx, DWORD PTR _pointer$[ebp]
	mov	DWORD PTR _pUnit$[ebp], edx

; 2375 : #endif
; 2376 : 	const UnitPathCacheData* pCacheData = reinterpret_cast<const UnitPathCacheData*>(finder->GetScratchBuffer());

	mov	eax, DWORD PTR _finder$[ebp]
	add	eax, 116				; 00000074H
	mov	DWORD PTR _pCacheData$[ebp], eax

; 2377 : 
; 2378 : #ifdef AUI_ASTAR_MINOR_OPTIMIZATION
; 2379 : 	CvPlot* pUnitPlot = pUnit->plot();
; 2380 : #else
; 2381 : 	CvPlot* pUnitPlot = kMap.plotUnchecked(pUnit->getX(), pUnit->getY());

	mov	ecx, DWORD PTR _pUnit$[ebp]
	mov	edx, DWORD PTR [ecx+88]
	mov	DWORD PTR $T222901[ebp], edx
	mov	eax, DWORD PTR _pUnit$[ebp]
	mov	ecx, DWORD PTR [eax+76]
	mov	DWORD PTR $T222910[ebp], ecx
	mov	edx, DWORD PTR _kMap$[ebp]
	mov	eax, DWORD PTR [edx+4020]
	mov	DWORD PTR $T222916[ebp], eax
	mov	ecx, DWORD PTR $T222901[ebp]
	imul	ecx, DWORD PTR $T222916[ebp]
	add	ecx, DWORD PTR $T222910[ebp]
	imul	ecx, 484				; 000001e4H
	mov	edx, DWORD PTR _kMap$[ebp]
	add	ecx, DWORD PTR [edx+4068]
	mov	DWORD PTR _pUnitPlot$[ebp], ecx

; 2382 : #endif
; 2383 : 	if(pUnitPlot == pToPlot)

	mov	eax, DWORD PTR _pUnitPlot$[ebp]
	cmp	eax, DWORD PTR _pToPlot$[ebp]
	jne	SHORT $LN8@IgnoreUnit

; 2384 : 	{
; 2385 : 		return TRUE;

	mov	eax, 1
	jmp	$LN9@IgnoreUnit
$LN8@IgnoreUnit:

; 2386 : 	}
; 2387 : 
; 2388 : 	if(pCacheData->IsImmobile())

	mov	ecx, DWORD PTR _pCacheData$[ebp]
	mov	dl, BYTE PTR [ecx+38]
	mov	BYTE PTR $T222930[ebp], dl
	movzx	eax, BYTE PTR $T222930[ebp]
	test	eax, eax
	je	SHORT $LN7@IgnoreUnit

; 2389 : 	{
; 2390 : 		return FALSE;

	xor	eax, eax
	jmp	$LN9@IgnoreUnit
$LN7@IgnoreUnit:

; 2391 : 	}
; 2392 : 
; 2393 : #ifndef ASTAR_AI_CONTROL_FIX_RADAR
; 2394 : 	if(pToPlot->isMountain() && (!pCacheData->isHuman() || pCacheData->IsAutomated()))
; 2395 : 	{
; 2396 : 		return FALSE;
; 2397 : 	}
; 2398 : #endif
; 2399 : 
; 2400 : 	if ((finder->GetInfo() & CvUnit::MOVEFLAG_STAY_ON_LAND) && (pToPlot->isWater() && !pToPlot->IsAllowsWalkWater()))

	mov	ecx, DWORD PTR _finder$[ebp]
	mov	edx, DWORD PTR [ecx+72]
	mov	DWORD PTR $T222934[ebp], edx
	mov	eax, DWORD PTR $T222934[ebp]
	and	eax, 256				; 00000100H
	je	SHORT $LN6@IgnoreUnit
	mov	ecx, DWORD PTR _pToPlot$[ebp]
	movsx	edx, BYTE PTR [ecx+5]
	xor	eax, eax
	cmp	edx, 3
	sete	al
	movzx	ecx, al
	test	ecx, ecx
	je	SHORT $LN6@IgnoreUnit
	mov	ecx, DWORD PTR _pToPlot$[ebp]
	call	?IsAllowsWalkWater@CvPlot@@QBE_NXZ	; CvPlot::IsAllowsWalkWater
	movzx	edx, al
	test	edx, edx
	jne	SHORT $LN6@IgnoreUnit

; 2401 : 	{
; 2402 : 		return FALSE;

	xor	eax, eax
	jmp	$LN9@IgnoreUnit
$LN6@IgnoreUnit:

; 2403 : 	}
; 2404 : 
; 2405 : #ifdef AUI_ASTAR_MINOR_OPTIMIZATION
; 2406 : 	bool bAIControl = pCacheData->IsAutomated();
; 2407 : #else
; 2408 : 	bAIControl = pCacheData->IsAutomated();

	mov	eax, DWORD PTR _pCacheData$[ebp]
	mov	cl, BYTE PTR [eax+37]
	mov	BYTE PTR _bAIControl$[ebp], cl

; 2409 : #endif
; 2410 : #ifndef ASTAR_AI_CONTROL_FIX_RADAR
; 2411 : 	if(bAIControl)
; 2412 : 	{
; 2413 : 		if(pCacheData->getDomainType() == DOMAIN_LAND)
; 2414 : 		{
; 2415 : 			int iGroupAreaID = pUnit->area()->GetID();
; 2416 : 			if(pToPlot->getArea() != iGroupAreaID)
; 2417 : 			{
; 2418 : 				if(!(pToPlot->isAdjacentToArea(iGroupAreaID)))
; 2419 : 				{
; 2420 : 					return FALSE;
; 2421 : 				}
; 2422 : 			}
; 2423 : 		}
; 2424 : 	}
; 2425 : #endif
; 2426 : 
; 2427 : 	TeamTypes eUnitTeam = pUnit->getTeam();

	mov	ecx, DWORD PTR _pUnit$[ebp]
	call	?getTeam@CvUnit@@QBE?AW4TeamTypes@@XZ	; CvUnit::getTeam
	mov	DWORD PTR _eUnitTeam$[ebp], eax

; 2428 : 
; 2429 : 	if(!pToPlot->isRevealed(eUnitTeam))

	mov	edx, DWORD PTR _eUnitTeam$[ebp]
	shr	edx, 5
	mov	DWORD PTR _uiOffset$222949[ebp], edx
	mov	eax, DWORD PTR _uiOffset$222949[ebp]
	shl	eax, 5
	mov	ecx, DWORD PTR _eUnitTeam$[ebp]
	sub	ecx, eax
	mov	edx, 1
	shl	edx, cl
	mov	eax, DWORD PTR _uiOffset$222949[ebp]
	mov	ecx, DWORD PTR _pToPlot$[ebp]
	and	edx, DWORD PTR [ecx+eax*4+8]
	setne	dl
	movzx	eax, dl
	test	eax, eax
	jne	SHORT $LN5@IgnoreUnit

; 2430 : 	{
; 2431 : 		if(pCacheData->isNoRevealMap())

	mov	ecx, DWORD PTR _pCacheData$[ebp]
	mov	dl, BYTE PTR [ecx+39]
	mov	BYTE PTR $T222954[ebp], dl
	movzx	eax, BYTE PTR $T222954[ebp]
	test	eax, eax
	je	SHORT $LN5@IgnoreUnit

; 2432 : 		{
; 2433 : 			return FALSE;

	xor	eax, eax
	jmp	SHORT $LN9@IgnoreUnit
$LN5@IgnoreUnit:

; 2434 : 		}
; 2435 : 	}
; 2436 : 
; 2437 : #ifdef ASTAR_AI_CONTROL_FIX_RADAR
; 2438 : 	if(pToPlot->isRevealed(eUnitTeam))

	mov	ecx, DWORD PTR _eUnitTeam$[ebp]
	shr	ecx, 5
	mov	DWORD PTR _uiOffset$222963[ebp], ecx
	mov	edx, DWORD PTR _uiOffset$222963[ebp]
	shl	edx, 5
	mov	ecx, DWORD PTR _eUnitTeam$[ebp]
	sub	ecx, edx
	mov	eax, 1
	shl	eax, cl
	mov	ecx, DWORD PTR _uiOffset$222963[ebp]
	mov	edx, DWORD PTR _pToPlot$[ebp]
	and	eax, DWORD PTR [edx+ecx*4+8]
	setne	al
	movzx	ecx, al
	test	ecx, ecx
	je	SHORT $LN3@IgnoreUnit

; 2439 : #else
; 2440 : 	if(bAIControl || pToPlot->isRevealed(eUnitTeam))
; 2441 : #endif
; 2442 : 	{
; 2443 : #ifdef AUI_ASTAR_FIX_IGNORE_UNITS_PATHFINDER_TERRITORY_CHECK
; 2444 : 		if (!pUnit->canEnterTerrain(*pToPlot, CvUnit::MOVEFLAG_PRETEND_CORRECT_EMBARK_STATE) || !pUnit->canEnterTerritory(pToPlot->getTeam(), false, false, pUnit->IsDeclareWar() || (finder->GetInfo() & MOVE_DECLARE_WAR)))
; 2445 : #else
; 2446 : 		if(!pUnit->canEnterTerrain(*pToPlot, CvUnit::MOVEFLAG_PRETEND_CORRECT_EMBARK_STATE) || !pUnit->canEnterTerritory(eUnitTeam))

	push	128					; 00000080H
	mov	edx, DWORD PTR _pToPlot$[ebp]
	push	edx
	mov	ecx, DWORD PTR _pUnit$[ebp]
	call	?canEnterTerrain@CvUnit@@QBE_NABVCvPlot@@E@Z ; CvUnit::canEnterTerrain
	movzx	eax, al
	test	eax, eax
	je	SHORT $LN1@IgnoreUnit
	push	0
	push	0
	push	0
	mov	ecx, DWORD PTR _eUnitTeam$[ebp]
	push	ecx
	mov	ecx, DWORD PTR _pUnit$[ebp]
	call	?canEnterTerritory@CvUnit@@QBE_NW4TeamTypes@@_N11@Z ; CvUnit::canEnterTerritory
	movzx	edx, al
	test	edx, edx
	jne	SHORT $LN3@IgnoreUnit
$LN1@IgnoreUnit:

; 2447 : #endif
; 2448 : 		{
; 2449 : 			return FALSE;

	xor	eax, eax
	jmp	SHORT $LN9@IgnoreUnit
