; Listing generated by Microsoft (R) Optimizing Compiler Version 15.00.30729.01 

	TITLE	D:\sources\Lekmod_git\checkout\LEKMOD_DLL\CvGameCoreDLL_Expansion2\CvBuilderTaskingAI.cpp
	.686P
	.XMM
	include listing.inc
	.model	flat

INCLUDELIB MSVCRT
INCLUDELIB OLDNAMES

PUBLIC	??1?$FStaticVector@H$0DJAA@$00$0BCJ@$0A@@@QAE@XZ ; FStaticVector<int,14592,1,297,0>::~FStaticVector<int,14592,1,297,0>
PUBLIC	?Uninit@CvBuilderTaskingAI@@QAEXXZ		; CvBuilderTaskingAI::Uninit
PUBLIC	??0?$FStaticVector@H$0DJAA@$00$0BCJ@$0A@@@QAE@XZ ; FStaticVector<int,14592,1,297,0>::FStaticVector<int,14592,1,297,0>
PUBLIC	??0CvBuilderTaskingAI@@QAE@XZ			; CvBuilderTaskingAI::CvBuilderTaskingAI
EXTRN	___security_cookie:DWORD
EXTRN	___CxxFrameHandler3:PROC
EXTRN	@__security_check_cookie@4:PROC
;	COMDAT xdata$x
; File d:\sources\lekmod_git\checkout\lekmod_dll\fireplace\include\fireworks\ffastvector.h
xdata$x	SEGMENT
__unwindtable$??0CvBuilderTaskingAI@@QAE@XZ DD 0ffffffffH
	DD	FLAT:__unwindfunclet$??0CvBuilderTaskingAI@@QAE@XZ$0
__ehfuncinfo$??0CvBuilderTaskingAI@@QAE@XZ DD 019930522H
	DD	01H
	DD	FLAT:__unwindtable$??0CvBuilderTaskingAI@@QAE@XZ
	DD	2 DUP(00H)
	DD	2 DUP(00H)
	DD	00H
	DD	01H
; Function compile flags: /Odtp
; File d:\sources\lekmod_git\checkout\lekmod_dll\cvgamecoredll_expansion2\cvbuildertaskingai.cpp
xdata$x	ENDS
;	COMDAT ??0CvBuilderTaskingAI@@QAE@XZ
_TEXT	SEGMENT
_this$ = -24						; size = 4
__$EHRec$ = -12						; size = 12
??0CvBuilderTaskingAI@@QAE@XZ PROC			; CvBuilderTaskingAI::CvBuilderTaskingAI, COMDAT
; _this$ = ecx

; 31   : {

	push	ebp
	mov	ebp, esp
	push	-1
	push	__ehhandler$??0CvBuilderTaskingAI@@QAE@XZ
	mov	eax, DWORD PTR fs:0
	push	eax
	sub	esp, 12					; 0000000cH
	mov	eax, DWORD PTR ___security_cookie
	xor	eax, ebp
	push	eax
	lea	eax, DWORD PTR __$EHRec$[ebp]
	mov	DWORD PTR fs:0, eax
	mov	DWORD PTR _this$[ebp], ecx
	mov	ecx, DWORD PTR _this$[ebp]
	add	ecx, 8
	call	??0?$FStaticVector@H$0DJAA@$00$0BCJ@$0A@@@QAE@XZ ; FStaticVector<int,14592,1,297,0>::FStaticVector<int,14592,1,297,0>
	mov	DWORD PTR __$EHRec$[ebp+8], 0

; 32   : 	Uninit();

	mov	ecx, DWORD PTR _this$[ebp]
	call	?Uninit@CvBuilderTaskingAI@@QAEXXZ	; CvBuilderTaskingAI::Uninit

; 33   : }

	mov	DWORD PTR __$EHRec$[ebp+8], -1
	mov	eax, DWORD PTR _this$[ebp]
	mov	ecx, DWORD PTR __$EHRec$[ebp]
	mov	DWORD PTR fs:0, ecx
	pop	ecx
	mov	esp, ebp
	pop	ebp
	ret	0
_TEXT	ENDS
;	COMDAT text$x
text$x	SEGMENT
__unwindfunclet$??0CvBuilderTaskingAI@@QAE@XZ$0:
	mov	ecx, DWORD PTR _this$[ebp]
	add	ecx, 8
	jmp	??1?$FStaticVector@H$0DJAA@$00$0BCJ@$0A@@@QAE@XZ ; FStaticVector<int,14592,1,297,0>::~FStaticVector<int,14592,1,297,0>
__ehhandler$??0CvBuilderTaskingAI@@QAE@XZ:
	mov	edx, DWORD PTR [esp+8]
	lea	eax, DWORD PTR [edx+12]
	mov	ecx, DWORD PTR [edx-16]
	xor	ecx, eax
	call	@__security_check_cookie@4
	mov	eax, OFFSET __ehfuncinfo$??0CvBuilderTaskingAI@@QAE@XZ
	jmp	___CxxFrameHandler3
text$x	ENDS
??0CvBuilderTaskingAI@@QAE@XZ ENDP			; CvBuilderTaskingAI::CvBuilderTaskingAI
PUBLIC	??1CvBuilderTaskingAI@@QAE@XZ			; CvBuilderTaskingAI::~CvBuilderTaskingAI
;	COMDAT xdata$x
; File d:\sources\lekmod_git\checkout\lekmod_dll\fireplace\include\fireworks\ffastvector.h
xdata$x	SEGMENT
__unwindtable$??1CvBuilderTaskingAI@@QAE@XZ DD 0ffffffffH
	DD	FLAT:__unwindfunclet$??1CvBuilderTaskingAI@@QAE@XZ$0
__ehfuncinfo$??1CvBuilderTaskingAI@@QAE@XZ DD 019930522H
	DD	01H
	DD	FLAT:__unwindtable$??1CvBuilderTaskingAI@@QAE@XZ
	DD	2 DUP(00H)
	DD	2 DUP(00H)
	DD	00H
	DD	01H
; Function compile flags: /Odtp
; File d:\sources\lekmod_git\checkout\lekmod_dll\cvgamecoredll_expansion2\cvbuildertaskingai.cpp
xdata$x	ENDS
;	COMDAT ??1CvBuilderTaskingAI@@QAE@XZ
_TEXT	SEGMENT
_this$ = -28						; size = 4
__$EHRec$ = -12						; size = 12
??1CvBuilderTaskingAI@@QAE@XZ PROC			; CvBuilderTaskingAI::~CvBuilderTaskingAI, COMDAT
; _this$ = ecx

; 37   : {

	push	ebp
	mov	ebp, esp
	push	-1
	push	__ehhandler$??1CvBuilderTaskingAI@@QAE@XZ
	mov	eax, DWORD PTR fs:0
	push	eax
	sub	esp, 16					; 00000010H
	mov	eax, DWORD PTR ___security_cookie
	xor	eax, ebp
	push	eax
	lea	eax, DWORD PTR __$EHRec$[ebp]
	mov	DWORD PTR fs:0, eax
	mov	DWORD PTR _this$[ebp], ecx
	mov	DWORD PTR __$EHRec$[ebp+8], 0

; 38   : 	Uninit();

	mov	ecx, DWORD PTR _this$[ebp]
	call	?Uninit@CvBuilderTaskingAI@@QAEXXZ	; CvBuilderTaskingAI::Uninit

; 39   : }

	mov	DWORD PTR __$EHRec$[ebp+8], -1
	mov	ecx, DWORD PTR _this$[ebp]
	add	ecx, 8
	call	??1?$FStaticVector@H$0DJAA@$00$0BCJ@$0A@@@QAE@XZ ; FStaticVector<int,14592,1,297,0>::~FStaticVector<int,14592,1,297,0>
	mov	ecx, DWORD PTR __$EHRec$[ebp]
	mov	DWORD PTR fs:0, ecx
	pop	ecx
	mov	esp, ebp
	pop	ebp
	ret	0
_TEXT	ENDS
;	COMDAT text$x
text$x	SEGMENT
__unwindfunclet$??1CvBuilderTaskingAI@@QAE@XZ$0:
	mov	ecx, DWORD PTR _this$[ebp]
	add	ecx, 8
	jmp	??1?$FStaticVector@H$0DJAA@$00$0BCJ@$0A@@@QAE@XZ ; FStaticVector<int,14592,1,297,0>::~FStaticVector<int,14592,1,297,0>
__ehhandler$??1CvBuilderTaskingAI@@QAE@XZ:
	mov	edx, DWORD PTR [esp+8]
	lea	eax, DWORD PTR [edx+12]
	mov	ecx, DWORD PTR [edx-20]
	xor	ecx, eax
	call	@__security_check_cookie@4
	mov	eax, OFFSET __ehfuncinfo$??1CvBuilderTaskingAI@@QAE@XZ
	jmp	___CxxFrameHandler3
text$x	ENDS
??1CvBuilderTaskingAI@@QAE@XZ ENDP			; CvBuilderTaskingAI::~CvBuilderTaskingAI
PUBLIC	?GetFalloutRemove@CvBuilderTaskingAI@@QAE?AW4BuildTypes@@XZ ; CvBuilderTaskingAI::GetFalloutRemove
PUBLIC	?GetFalloutFeature@CvBuilderTaskingAI@@QAE?AW4FeatureTypes@@XZ ; CvBuilderTaskingAI::GetFalloutFeature
PUBLIC	?GetRepairBuild@CvBuilderTaskingAI@@QAE?AW4BuildTypes@@XZ ; CvBuilderTaskingAI::GetRepairBuild
PUBLIC	?Init@CvBuilderTaskingAI@@QAEXPAVCvPlayer@@@Z	; CvBuilderTaskingAI::Init
EXTRN	?GetFeatureMakesValid@CvImprovementEntry@@QBE_NH@Z:PROC ; CvImprovementEntry::GetFeatureMakesValid
EXTRN	?getCivilizationType@CvPlayer@@QBE?AW4CivilizationTypes@@XZ:PROC ; CvPlayer::getCivilizationType
EXTRN	?GetRequiredCivilization@CvImprovementEntry@@QBE?AW4CivilizationTypes@@XZ:PROC ; CvImprovementEntry::GetRequiredCivilization
EXTRN	?IsSpecificCivRequired@CvImprovementEntry@@QBE_NXZ:PROC ; CvImprovementEntry::IsSpecificCivRequired
EXTRN	?getImprovementInfo@CvGlobals@@QAEPAVCvImprovementEntry@@W4ImprovementTypes@@@Z:PROC ; CvGlobals::getImprovementInfo
EXTRN	?getImprovement@CvBuildInfo@@QBEHXZ:PROC	; CvBuildInfo::getImprovement
EXTRN	?getBuildInfo@CvGlobals@@QAEPAVCvBuildInfo@@W4BuildTypes@@@Z:PROC ; CvGlobals::getBuildInfo
EXTRN	?getNumBuildInfos@CvGlobals@@QAEHXZ:PROC	; CvGlobals::getNumBuildInfos
EXTRN	?GetBuilderAILogging@CvGlobals@@QAE_NXZ:PROC	; CvGlobals::GetBuilderAILogging
EXTRN	?getAILogging@CvGlobals@@QAE_NXZ:PROC		; CvGlobals::getAILogging
EXTRN	?getLogging@CvGlobals@@QAE_NXZ:PROC		; CvGlobals::getLogging
EXTRN	?gGlobals@@3VCvGlobals@@A:BYTE			; gGlobals
; Function compile flags: /Odtp
;	COMDAT ?Init@CvBuilderTaskingAI@@QAEXPAVCvPlayer@@@Z
_TEXT	SEGMENT
tv91 = -36						; size = 4
_this$ = -32						; size = 4
_i$220142 = -28						; size = 4
_eCiv$217164 = -24					; size = 4
_pkBuild$217156 = -20					; size = 4
_pkImprovementInfo$217161 = -16				; size = 4
_eImprovement$217158 = -12				; size = 4
_eBuild$217154 = -8					; size = 4
_i$217150 = -4						; size = 4
_pPlayer$ = 8						; size = 4
?Init@CvBuilderTaskingAI@@QAEXPAVCvPlayer@@@Z PROC	; CvBuilderTaskingAI::Init, COMDAT
; _this$ = ecx

; 43   : {

	push	ebp
	mov	ebp, esp
	sub	esp, 36					; 00000024H
	mov	DWORD PTR _this$[ebp], ecx

; 44   : 	m_pPlayer = pPlayer;

	mov	eax, DWORD PTR _this$[ebp]
	mov	ecx, DWORD PTR _pPlayer$[ebp]
	mov	DWORD PTR [eax], ecx

; 45   : 	m_eRepairBuild = GetRepairBuild();

	mov	ecx, DWORD PTR _this$[ebp]
	call	?GetRepairBuild@CvBuilderTaskingAI@@QAE?AW4BuildTypes@@XZ ; CvBuilderTaskingAI::GetRepairBuild
	mov	edx, DWORD PTR _this$[ebp]
	mov	DWORD PTR [edx+4], eax

; 46   : 	m_eFalloutFeature = GetFalloutFeature();

	mov	ecx, DWORD PTR _this$[ebp]
	call	?GetFalloutFeature@CvBuilderTaskingAI@@QAE?AW4FeatureTypes@@XZ ; CvBuilderTaskingAI::GetFalloutFeature
	mov	ecx, DWORD PTR _this$[ebp]
	mov	DWORD PTR [ecx+58452], eax

; 47   : 	m_eFalloutRemove = GetFalloutRemove();

	mov	ecx, DWORD PTR _this$[ebp]
	call	?GetFalloutRemove@CvBuilderTaskingAI@@QAE?AW4BuildTypes@@XZ ; CvBuilderTaskingAI::GetFalloutRemove
	mov	edx, DWORD PTR _this$[ebp]
	mov	DWORD PTR [edx+58456], eax

; 48   : 
; 49   : 	m_aiNonTerritoryPlots.clear();

	xor	eax, eax
	je	SHORT $LN22@Init
	mov	DWORD PTR _i$220142[ebp], 0
	jmp	SHORT $LN20@Init
$LN19@Init:
	mov	ecx, DWORD PTR _i$220142[ebp]
	add	ecx, 1
	mov	DWORD PTR _i$220142[ebp], ecx
$LN20@Init:
	mov	edx, DWORD PTR _i$220142[ebp]
	cmp	edx, DWORD PTR ?m_aiNonTerritoryPlots@CvBuilderTaskingAI@@2V?$FStaticVector@H$0EA@$00$0BCJ@$0A@@@A+4
	jae	SHORT $LN22@Init
	jmp	SHORT $LN19@Init
$LN22@Init:
	mov	DWORD PTR ?m_aiNonTerritoryPlots@CvBuilderTaskingAI@@2V?$FStaticVector@H$0EA@$00$0BCJ@$0A@@@A+4, 0

; 50   : 	m_bLogging = GC.getLogging() && GC.getAILogging() && GC.GetBuilderAILogging();

	mov	ecx, OFFSET ?gGlobals@@3VCvGlobals@@A	; gGlobals
	call	?getLogging@CvGlobals@@QAE_NXZ		; CvGlobals::getLogging
	movzx	eax, al
	test	eax, eax
	je	SHORT $LN14@Init
	mov	ecx, OFFSET ?gGlobals@@3VCvGlobals@@A	; gGlobals
	call	?getAILogging@CvGlobals@@QAE_NXZ	; CvGlobals::getAILogging
	movzx	ecx, al
	test	ecx, ecx
	je	SHORT $LN14@Init
	mov	ecx, OFFSET ?gGlobals@@3VCvGlobals@@A	; gGlobals
	call	?GetBuilderAILogging@CvGlobals@@QAE_NXZ	; CvGlobals::GetBuilderAILogging
	movzx	edx, al
	test	edx, edx
	je	SHORT $LN14@Init
	mov	DWORD PTR tv91[ebp], 1
	jmp	SHORT $LN15@Init
$LN14@Init:
	mov	DWORD PTR tv91[ebp], 0
$LN15@Init:
	mov	eax, DWORD PTR _this$[ebp]
	mov	cl, BYTE PTR tv91[ebp]
	mov	BYTE PTR [eax+58392], cl

; 51   : 	m_iNumCities = -1;

	mov	edx, DWORD PTR _this$[ebp]
	mov	DWORD PTR [edx+58396], -1

; 52   : 	m_pTargetPlot = NULL;

	mov	eax, DWORD PTR _this$[ebp]
	mov	DWORD PTR [eax+58400], 0

; 53   : 
; 54   : #ifndef AUI_WORKER_UNHARDCODE_NO_REMOVE_FEATURE_THAT_IS_REQUIRED_FOR_UNIQUE_IMPROVEMENT
; 55   : 	// special case code so the Dutch don't remove marshes
; 56   : 	m_bKeepMarshes = false;

	mov	ecx, DWORD PTR _this$[ebp]
	mov	BYTE PTR [ecx+58460], 0

; 57   : 	// special case code so Brazil doesn't remove jungle
; 58   : 	m_bKeepJungle = false;

	mov	edx, DWORD PTR _this$[ebp]
	mov	BYTE PTR [edx+58461], 0

; 59   : 
; 60   : #ifdef AUI_WARNING_FIXES
; 61   : 	for (uint i = 0; i < GC.getNumBuildInfos(); i++)
; 62   : #else
; 63   : 	for(int i = 0; i < GC.getNumBuildInfos(); i++)

	mov	DWORD PTR _i$217150[ebp], 0
	jmp	SHORT $LN11@Init
$LN10@Init:
	mov	eax, DWORD PTR _i$217150[ebp]
	add	eax, 1
	mov	DWORD PTR _i$217150[ebp], eax
$LN11@Init:
	mov	ecx, OFFSET ?gGlobals@@3VCvGlobals@@A	; gGlobals
	call	?getNumBuildInfos@CvGlobals@@QAEHXZ	; CvGlobals::getNumBuildInfos
	cmp	DWORD PTR _i$217150[ebp], eax
	jge	$LN12@Init

; 64   : #endif
; 65   : 	{
; 66   : 		BuildTypes eBuild = (BuildTypes)i;

	mov	ecx, DWORD PTR _i$217150[ebp]
	mov	DWORD PTR _eBuild$217154[ebp], ecx

; 67   : 		CvBuildInfo* pkBuild = GC.getBuildInfo(eBuild);

	mov	edx, DWORD PTR _eBuild$217154[ebp]
	push	edx
	mov	ecx, OFFSET ?gGlobals@@3VCvGlobals@@A	; gGlobals
	call	?getBuildInfo@CvGlobals@@QAEPAVCvBuildInfo@@W4BuildTypes@@@Z ; CvGlobals::getBuildInfo
	mov	DWORD PTR _pkBuild$217156[ebp], eax

; 68   : 		if(!pkBuild)

	cmp	DWORD PTR _pkBuild$217156[ebp], 0
	jne	SHORT $LN8@Init

; 69   : 		{
; 70   : 			continue;

	jmp	SHORT $LN10@Init
$LN8@Init:

; 71   : 		}
; 72   : 		
; 73   : 		ImprovementTypes eImprovement = (ImprovementTypes)pkBuild->getImprovement();

	mov	ecx, DWORD PTR _pkBuild$217156[ebp]
	call	?getImprovement@CvBuildInfo@@QBEHXZ	; CvBuildInfo::getImprovement
	mov	DWORD PTR _eImprovement$217158[ebp], eax

; 74   : 		if(eImprovement == NO_IMPROVEMENT)

	cmp	DWORD PTR _eImprovement$217158[ebp], -1
	jne	SHORT $LN7@Init

; 75   : 		{
; 76   : 			continue;

	jmp	SHORT $LN10@Init
$LN7@Init:

; 77   : 		}
; 78   : 
; 79   : 		CvImprovementEntry* pkImprovementInfo = GC.getImprovementInfo(eImprovement);

	mov	eax, DWORD PTR _eImprovement$217158[ebp]
	push	eax
	mov	ecx, OFFSET ?gGlobals@@3VCvGlobals@@A	; gGlobals
	call	?getImprovementInfo@CvGlobals@@QAEPAVCvImprovementEntry@@W4ImprovementTypes@@@Z ; CvGlobals::getImprovementInfo
	mov	DWORD PTR _pkImprovementInfo$217161[ebp], eax

; 80   : 		if(pkImprovementInfo == NULL)

	cmp	DWORD PTR _pkImprovementInfo$217161[ebp], 0
	jne	SHORT $LN6@Init

; 81   : 		{
; 82   : 			continue;

	jmp	SHORT $LN10@Init
$LN6@Init:

; 83   : 		}
; 84   : 
; 85   : 		if(pkImprovementInfo->IsSpecificCivRequired())

	mov	ecx, DWORD PTR _pkImprovementInfo$217161[ebp]
	call	?IsSpecificCivRequired@CvImprovementEntry@@QBE_NXZ ; CvImprovementEntry::IsSpecificCivRequired
	movzx	ecx, al
	test	ecx, ecx
	je	SHORT $LN5@Init

; 86   : 		{
; 87   : 			CivilizationTypes eCiv = pkImprovementInfo->GetRequiredCivilization();

	mov	ecx, DWORD PTR _pkImprovementInfo$217161[ebp]
	call	?GetRequiredCivilization@CvImprovementEntry@@QBE?AW4CivilizationTypes@@XZ ; CvImprovementEntry::GetRequiredCivilization
	mov	DWORD PTR _eCiv$217164[ebp], eax

; 88   : 			if(eCiv == pPlayer->getCivilizationType())

	mov	ecx, DWORD PTR _pPlayer$[ebp]
	call	?getCivilizationType@CvPlayer@@QBE?AW4CivilizationTypes@@XZ ; CvPlayer::getCivilizationType
	cmp	DWORD PTR _eCiv$217164[ebp], eax
	jne	SHORT $LN5@Init

; 89   : 			{
; 90   : 				if(pkImprovementInfo->GetFeatureMakesValid(FEATURE_MARSH))

	push	2
	mov	ecx, DWORD PTR _pkImprovementInfo$217161[ebp]
	call	?GetFeatureMakesValid@CvImprovementEntry@@QBE_NH@Z ; CvImprovementEntry::GetFeatureMakesValid
	movzx	edx, al
	test	edx, edx
	je	SHORT $LN3@Init

; 91   : 				{
; 92   : 					m_bKeepMarshes = true;

	mov	eax, DWORD PTR _this$[ebp]
	mov	BYTE PTR [eax+58460], 1
	jmp	SHORT $LN5@Init
$LN3@Init:

; 93   : 				}
; 94   : 				else if (pkImprovementInfo->GetFeatureMakesValid(FEATURE_JUNGLE))

	push	1
	mov	ecx, DWORD PTR _pkImprovementInfo$217161[ebp]
	call	?GetFeatureMakesValid@CvImprovementEntry@@QBE_NH@Z ; CvImprovementEntry::GetFeatureMakesValid
	movzx	ecx, al
	test	ecx, ecx
	je	SHORT $LN5@Init

; 95   : 				{
; 96   : 					m_bKeepJungle = true;

	mov	edx, DWORD PTR _this$[ebp]
	mov	BYTE PTR [edx+58461], 1
$LN5@Init:

; 97   : 				}
; 98   : 			}
; 99   : 		}

	jmp	$LN10@Init
$LN12@Init:

; 100  : 	}
; 101  : #endif
; 102  : }

	mov	esp, ebp
	pop	ebp
	ret	4
?Init@CvBuilderTaskingAI@@QAEXPAVCvPlayer@@@Z ENDP	; CvBuilderTaskingAI::Init
; Function compile flags: /Odtp
_TEXT	ENDS
;	COMDAT ?Uninit@CvBuilderTaskingAI@@QAEXXZ
_TEXT	SEGMENT
_this$ = -4						; size = 4
?Uninit@CvBuilderTaskingAI@@QAEXXZ PROC			; CvBuilderTaskingAI::Uninit, COMDAT
; _this$ = ecx

; 106  : {

	push	ebp
	mov	ebp, esp
	push	ecx
	mov	DWORD PTR _this$[ebp], ecx

; 107  : 	m_eRepairBuild = NO_BUILD;

	mov	eax, DWORD PTR _this$[ebp]
	mov	DWORD PTR [eax+4], -1

; 108  : 	m_pPlayer = NULL;

	mov	ecx, DWORD PTR _this$[ebp]
	mov	DWORD PTR [ecx], 0

; 109  : 	m_bLogging = false;

	mov	edx, DWORD PTR _this$[ebp]
	mov	BYTE PTR [edx+58392], 0

; 110  : 	m_iNumCities = -1;

	mov	eax, DWORD PTR _this$[ebp]
	mov	DWORD PTR [eax+58396], -1

; 111  : 	m_pTargetPlot = NULL;

	mov	ecx, DWORD PTR _this$[ebp]
	mov	DWORD PTR [ecx+58400], 0

; 112  : #ifdef AUI_WARNING_FIXES
; 113  : 	m_eFalloutFeature = NO_FEATURE;
; 114  : 	m_eFalloutRemove = NO_BUILD;
; 115  : #ifndef AUI_WORKER_UNHARDCODE_NO_REMOVE_FEATURE_THAT_IS_REQUIRED_FOR_UNIQUE_IMPROVEMENT
; 116  : 	m_bKeepJungle = false;
; 117  : 	m_bKeepMarshes = false;
; 118  : #endif
; 119  : #endif
; 120  : }

	mov	esp, ebp
	pop	ebp
	ret	0
?Uninit@CvBuilderTaskingAI@@QAEXXZ ENDP			; CvBuilderTaskingAI::Uninit
_TEXT	ENDS
PUBLIC	?GrowSize@?$FStaticVector@H$0EA@$00$0BCJ@$0A@@@IAEXI@Z ; FStaticVector<int,64,1,297,0>::GrowSize
PUBLIC	?Read@CvBuilderTaskingAI@@QAEXAAVFDataStream@@@Z ; CvBuilderTaskingAI::Read
EXTRN	?Read@FDataStream@@IAEXAA_N@Z:PROC		; FDataStream::Read
EXTRN	?Read@FDataStream@@IAEXAAH@Z:PROC		; FDataStream::Read
EXTRN	??5@YAAAVFDataStream@@AAV0@AAW4BuildTypes@@@Z:PROC ; operator>>
EXTRN	?Read@FDataStream@@IAEXAAI@Z:PROC		; FDataStream::Read
; Function compile flags: /Odtp
;	COMDAT ?Read@CvBuilderTaskingAI@@QAEXAAVFDataStream@@@Z
_TEXT	SEGMENT
_this$ = -24						; size = 4
$T220168 = -20						; size = 4
$T220161 = -16						; size = 4
_ui$217182 = -12					; size = 4
_uiNumSlots$ = -8					; size = 4
_uiVersion$ = -4					; size = 4
_kStream$ = 8						; size = 4
?Read@CvBuilderTaskingAI@@QAEXAAVFDataStream@@@Z PROC	; CvBuilderTaskingAI::Read, COMDAT
; _this$ = ecx

; 124  : {

	push	ebp
	mov	ebp, esp
	sub	esp, 24					; 00000018H
	mov	DWORD PTR _this$[ebp], ecx

; 125  : 	// Version number to maintain backwards compatibility
; 126  : 	uint uiVersion;
; 127  : 	kStream >> uiVersion;

	lea	eax, DWORD PTR _uiVersion$[ebp]
	push	eax
	mov	ecx, DWORD PTR _kStream$[ebp]
	call	?Read@FDataStream@@IAEXAAI@Z		; FDataStream::Read

; 128  : 
; 129  : 	kStream >> m_eRepairBuild;

	mov	ecx, DWORD PTR _this$[ebp]
	add	ecx, 4
	push	ecx
	mov	edx, DWORD PTR _kStream$[ebp]
	push	edx
	call	??5@YAAAVFDataStream@@AAV0@AAW4BuildTypes@@@Z ; operator>>
	add	esp, 8

; 130  : 
; 131  : 	uint uiNumSlots;
; 132  : 
; 133  : 	// non-territory plots
; 134  : 	kStream >> uiNumSlots;

	lea	eax, DWORD PTR _uiNumSlots$[ebp]
	push	eax
	mov	ecx, DWORD PTR _kStream$[ebp]
	call	?Read@FDataStream@@IAEXAAI@Z		; FDataStream::Read

; 135  : 	m_aiNonTerritoryPlots.resize(uiNumSlots);

	mov	ecx, DWORD PTR _uiNumSlots$[ebp]
	mov	DWORD PTR $T220161[ebp], ecx
	mov	edx, DWORD PTR ?m_aiNonTerritoryPlots@CvBuilderTaskingAI@@2V?$FStaticVector@H$0EA@$00$0BCJ@$0A@@@A+8
	cmp	edx, DWORD PTR $T220161[ebp]
	jae	SHORT $LN12@Read
	mov	eax, DWORD PTR $T220161[ebp]
	push	eax
	mov	ecx, OFFSET ?m_aiNonTerritoryPlots@CvBuilderTaskingAI@@2V?$FStaticVector@H$0EA@$00$0BCJ@$0A@@@A ; CvBuilderTaskingAI::m_aiNonTerritoryPlots
	call	?GrowSize@?$FStaticVector@H$0EA@$00$0BCJ@$0A@@@IAEXI@Z ; FStaticVector<int,64,1,297,0>::GrowSize
$LN12@Read:
	mov	ecx, DWORD PTR $T220161[ebp]
	mov	DWORD PTR ?m_aiNonTerritoryPlots@CvBuilderTaskingAI@@2V?$FStaticVector@H$0EA@$00$0BCJ@$0A@@@A+4, ecx

; 136  : 
; 137  : 	for(uint ui = 0; ui < uiNumSlots; ui++)

	mov	DWORD PTR _ui$217182[ebp], 0
	jmp	SHORT $LN5@Read
$LN4@Read:
	mov	edx, DWORD PTR _ui$217182[ebp]
	add	edx, 1
	mov	DWORD PTR _ui$217182[ebp], edx
$LN5@Read:
	mov	eax, DWORD PTR _ui$217182[ebp]
	cmp	eax, DWORD PTR _uiNumSlots$[ebp]
	jae	SHORT $LN3@Read

; 138  : 	{
; 139  : 		kStream >> m_aiNonTerritoryPlots[ui];

	mov	ecx, DWORD PTR _ui$217182[ebp]
	mov	edx, DWORD PTR ?m_aiNonTerritoryPlots@CvBuilderTaskingAI@@2V?$FStaticVector@H$0EA@$00$0BCJ@$0A@@@A
	lea	eax, DWORD PTR [edx+ecx*4]
	mov	DWORD PTR $T220168[ebp], eax
	mov	ecx, DWORD PTR $T220168[ebp]
	push	ecx
	mov	ecx, DWORD PTR _kStream$[ebp]
	call	?Read@FDataStream@@IAEXAAH@Z		; FDataStream::Read

; 140  : 	}

	jmp	SHORT $LN4@Read
$LN3@Read:

; 141  : 
; 142  : #ifndef AUI_WORKER_UNHARDCODE_NO_REMOVE_FEATURE_THAT_IS_REQUIRED_FOR_UNIQUE_IMPROVEMENT
; 143  : 	kStream >> m_bKeepMarshes;

	mov	edx, DWORD PTR _this$[ebp]
	add	edx, 58460				; 0000e45cH
	push	edx
	mov	ecx, DWORD PTR _kStream$[ebp]
	call	?Read@FDataStream@@IAEXAA_N@Z		; FDataStream::Read

; 144  : 	if (uiVersion >= 2)

	cmp	DWORD PTR _uiVersion$[ebp], 2
	jb	SHORT $LN2@Read

; 145  : 	{
; 146  : 		kStream >> m_bKeepJungle;

	mov	eax, DWORD PTR _this$[ebp]
	add	eax, 58461				; 0000e45dH
	push	eax
	mov	ecx, DWORD PTR _kStream$[ebp]
	call	?Read@FDataStream@@IAEXAA_N@Z		; FDataStream::Read

; 147  : 	}
; 148  : 	else

	jmp	SHORT $LN1@Read
$LN2@Read:

; 149  : 	{
; 150  : 		m_bKeepJungle = false;

	mov	ecx, DWORD PTR _this$[ebp]
	mov	BYTE PTR [ecx+58461], 0
$LN1@Read:

; 151  : 	}
; 152  : #endif
; 153  : 		
; 154  : 	m_iNumCities = -1; //Force everyone to do an CvBuilderTaskingAI::Update() after loading

	mov	edx, DWORD PTR _this$[ebp]
	mov	DWORD PTR [edx+58396], -1

; 155  : 	m_pTargetPlot = NULL;		//Force everyone to recalculate current yields after loading.

	mov	eax, DWORD PTR _this$[ebp]
	mov	DWORD PTR [eax+58400], 0

; 156  : }

	mov	esp, ebp
	pop	ebp
	ret	4
?Read@CvBuilderTaskingAI@@QAEXAAVFDataStream@@@Z ENDP	; CvBuilderTaskingAI::Read
_TEXT	ENDS
PUBLIC	?Write@CvBuilderTaskingAI@@QAEXAAVFDataStream@@@Z ; CvBuilderTaskingAI::Write
EXTRN	?Write@FDataStream@@IAEXAB_N@Z:PROC		; FDataStream::Write
EXTRN	?Write@FDataStream@@IAEXABH@Z:PROC		; FDataStream::Write
EXTRN	??6@YAAAVFDataStream@@AAV0@ABW4BuildTypes@@@Z:PROC ; operator<<
EXTRN	?Write@FDataStream@@IAEXABI@Z:PROC		; FDataStream::Write
; Function compile flags: /Odtp
;	COMDAT ?Write@CvBuilderTaskingAI@@QAEXAAVFDataStream@@@Z
_TEXT	SEGMENT
_this$ = -28						; size = 4
$T220198 = -24						; size = 4
$T220191 = -20						; size = 4
$T220184 = -16						; size = 4
$T220177 = -12						; size = 4
_ui$217202 = -8						; size = 4
_uiVersion$ = -4					; size = 4
_kStream$ = 8						; size = 4
?Write@CvBuilderTaskingAI@@QAEXAAVFDataStream@@@Z PROC	; CvBuilderTaskingAI::Write, COMDAT
; _this$ = ecx

; 160  : {

	push	ebp
	mov	ebp, esp
	sub	esp, 28					; 0000001cH
	mov	DWORD PTR _this$[ebp], ecx

; 161  : 	// Current version number
; 162  : 	uint uiVersion = 2;

	mov	DWORD PTR _uiVersion$[ebp], 2

; 163  : 	kStream << uiVersion;

	lea	eax, DWORD PTR _uiVersion$[ebp]
	push	eax
	mov	ecx, DWORD PTR _kStream$[ebp]
	call	?Write@FDataStream@@IAEXABI@Z		; FDataStream::Write

; 164  : 
; 165  : 	kStream << m_eRepairBuild;

	mov	ecx, DWORD PTR _this$[ebp]
	add	ecx, 4
	push	ecx
	mov	edx, DWORD PTR _kStream$[ebp]
	push	edx
	call	??6@YAAAVFDataStream@@AAV0@ABW4BuildTypes@@@Z ; operator<<
	add	esp, 8

; 166  : 
; 167  : 	// non-territory plots
; 168  : 	kStream << m_aiNonTerritoryPlots.size();

	mov	eax, DWORD PTR ?m_aiNonTerritoryPlots@CvBuilderTaskingAI@@2V?$FStaticVector@H$0EA@$00$0BCJ@$0A@@@A+4
	mov	DWORD PTR $T220184[ebp], eax
	mov	ecx, DWORD PTR $T220184[ebp]
	mov	DWORD PTR $T220177[ebp], ecx
	lea	edx, DWORD PTR $T220177[ebp]
	push	edx
	mov	ecx, DWORD PTR _kStream$[ebp]
	call	?Write@FDataStream@@IAEXABI@Z		; FDataStream::Write

; 169  : 	for(uint ui = 0; ui < m_aiNonTerritoryPlots.size(); ui++)

	mov	DWORD PTR _ui$217202[ebp], 0
	jmp	SHORT $LN3@Write
$LN2@Write:
	mov	eax, DWORD PTR _ui$217202[ebp]
	add	eax, 1
	mov	DWORD PTR _ui$217202[ebp], eax
$LN3@Write:
	mov	ecx, DWORD PTR ?m_aiNonTerritoryPlots@CvBuilderTaskingAI@@2V?$FStaticVector@H$0EA@$00$0BCJ@$0A@@@A+4
	mov	DWORD PTR $T220191[ebp], ecx
	mov	edx, DWORD PTR _ui$217202[ebp]
	cmp	edx, DWORD PTR $T220191[ebp]
	jae	SHORT $LN1@Write

; 170  : 	{
; 171  : 		kStream << m_aiNonTerritoryPlots[ui];

	mov	eax, DWORD PTR _ui$217202[ebp]
	mov	ecx, DWORD PTR ?m_aiNonTerritoryPlots@CvBuilderTaskingAI@@2V?$FStaticVector@H$0EA@$00$0BCJ@$0A@@@A
	lea	edx, DWORD PTR [ecx+eax*4]
	mov	DWORD PTR $T220198[ebp], edx
	mov	eax, DWORD PTR $T220198[ebp]
	push	eax
	mov	ecx, DWORD PTR _kStream$[ebp]
	call	?Write@FDataStream@@IAEXABH@Z		; FDataStream::Write

; 172  : 	}

	jmp	SHORT $LN2@Write
$LN1@Write:

; 173  : 
; 174  : #ifndef AUI_WORKER_UNHARDCODE_NO_REMOVE_FEATURE_THAT_IS_REQUIRED_FOR_UNIQUE_IMPROVEMENT
; 175  : 	kStream << m_bKeepMarshes;

	mov	ecx, DWORD PTR _this$[ebp]
	add	ecx, 58460				; 0000e45cH
	push	ecx
	mov	ecx, DWORD PTR _kStream$[ebp]
	call	?Write@FDataStream@@IAEXAB_N@Z		; FDataStream::Write

; 176  : 	kStream << m_bKeepJungle;

	mov	edx, DWORD PTR _this$[ebp]
	add	edx, 58461				; 0000e45dH
	push	edx
	mov	ecx, DWORD PTR _kStream$[ebp]
	call	?Write@FDataStream@@IAEXAB_N@Z		; FDataStream::Write

; 177  : #endif
; 178  : }

	mov	esp, ebp
	pop	ebp
	ret	4
?Write@CvBuilderTaskingAI@@QAEXAAVFDataStream@@@Z ENDP	; CvBuilderTaskingAI::Write
_TEXT	ENDS
PUBLIC	??1CvString@@QAE@XZ				; CvString::~CvString
PUBLIC	??_C@_03FPIELGGN@?5?1?1?$AA@			; `string'
PUBLIC	??_C@_07CLPMHPLJ@?2?2?5end?5?$AA@		; `string'
PUBLIC	??_C@_02FHJIKMCF@?5?$CK?$AA@			; `string'
PUBLIC	?Format@CvString@@QAAXPBDZZ			; CvString::Format
PUBLIC	??_C@_06PHGHDMGF@?$CFd?0?5?$CFd?$AA@		; `string'
PUBLIC	??_C@_0M@FFIHGBDP@faith?5?5?5?5?5?5?$AA@	; `string'
PUBLIC	??_C@_0M@DJEDCNJJ@culture?5?5?5?5?$AA@		; `string'
PUBLIC	??_C@_0M@CMMFFGDL@gold?5?5?5?5?5?5?5?$AA@	; `string'
PUBLIC	??_C@_0M@MOPCOJJM@science?5?5?5?5?$AA@		; `string'
PUBLIC	??_C@_0M@MJLKGKLJ@production?5?$AA@		; `string'
PUBLIC	??_C@_0M@FMFHKBFH@food?5?5?5?5?5?5?5?$AA@	; `string'
PUBLIC	??_C@_03NCBEKFB@?5?2?2?$AA@			; `string'
PUBLIC	??_C@_03IAHPLKPE@?1?1?5?$AA@			; `string'
PUBLIC	?LogInfo@CvBuilderTaskingAI@@SAXVCvString@@PAVCvPlayer@@_N@Z ; CvBuilderTaskingAI::LogInfo
PUBLIC	??_C@_00CNPNBAHC@?$AA@				; `string'
PUBLIC	??_C@_0BG@OJNBICH@?1?1?5Empire?5Unhappy?$CB?5?1?1?$AA@ ; `string'
PUBLIC	?UpdateRoutePlots@CvBuilderTaskingAI@@QAEXXZ	; CvBuilderTaskingAI::UpdateRoutePlots
PUBLIC	__$ArrayPad$
PUBLIC	?Update@CvBuilderTaskingAI@@QAEXXZ		; CvBuilderTaskingAI::Update
EXTRN	?GetFocusYield@CvCityStrategyAI@@QAE?AW4YieldTypes@@XZ:PROC ; CvCityStrategyAI::GetFocusYield
EXTRN	?GetBestYieldAverageTimes100@CvCityStrategyAI@@QAEGW4YieldTypes@@@Z:PROC ; CvCityStrategyAI::GetBestYieldAverageTimes100
EXTRN	?GetYieldDeltaTimes100@CvCityStrategyAI@@QAEFW4YieldTypes@@@Z:PROC ; CvCityStrategyAI::GetYieldDeltaTimes100
EXTRN	__imp_?clear@?$basic_string@DU?$char_traits@D@std@@V?$allocator@D@2@@std@@QAEXXZ:PROC
EXTRN	__imp_?assign@?$basic_string@DU?$char_traits@D@std@@V?$allocator@D@2@@std@@QAEAAV12@PBD@Z:PROC
EXTRN	__imp_??Y?$basic_string@DU?$char_traits@D@std@@V?$allocator@D@2@@std@@QAEAAV01@ABV01@@Z:PROC
EXTRN	__imp_??4?$basic_string@DU?$char_traits@D@std@@V?$allocator@D@2@@std@@QAEAAV01@ABV01@@Z:PROC
EXTRN	?getName@CvCity@@QBE?BVCvString@@XZ:PROC	; CvCity::getName
EXTRN	__imp_??Y?$basic_string@DU?$char_traits@D@std@@V?$allocator@D@2@@std@@QAEAAV01@PBD@Z:PROC
EXTRN	__imp_??0?$basic_string@DU?$char_traits@D@std@@V?$allocator@D@2@@std@@QAE@XZ:PROC
EXTRN	__imp_??1?$basic_string@DU?$char_traits@D@std@@V?$allocator@D@2@@std@@QAE@XZ:PROC
EXTRN	__imp_??0?$basic_string@DU?$char_traits@D@std@@V?$allocator@D@2@@std@@QAE@ABV01@@Z:PROC
EXTRN	__imp_??0?$basic_string@DU?$char_traits@D@std@@V?$allocator@D@2@@std@@QAE@PBD@Z:PROC
EXTRN	?IsEmpireUnhappy@CvPlayer@@QBE_NXZ:PROC		; CvPlayer::IsEmpireUnhappy
EXTRN	?isHuman@CvPlayer@@QBE_NXZ:PROC			; CvPlayer::isHuman
EXTRN	?UpdateBestYields@CvCityStrategyAI@@QAEXXZ:PROC	; CvCityStrategyAI::UpdateBestYields
EXTRN	?GetCityStrategyAI@CvCity@@QBEPAVCvCityStrategyAI@@XZ:PROC ; CvCity::GetCityStrategyAI
EXTRN	?nextCity@CvPlayer@@QAEPAVCvCity@@PAH_N@Z:PROC	; CvPlayer::nextCity
EXTRN	?firstCity@CvPlayer@@QAEPAVCvCity@@PAH_N@Z:PROC	; CvPlayer::firstCity
EXTRN	?getNumCities@CvPlayer@@QBEHXZ:PROC		; CvPlayer::getNumCities
;	COMDAT ??_C@_03FPIELGGN@?5?1?1?$AA@
; File d:\sources\lekmod_git\checkout\lekmod_dll\cvgamecoredllutil\include\cvstring.h
CONST	SEGMENT
??_C@_03FPIELGGN@?5?1?1?$AA@ DB ' //', 00H		; `string'
CONST	ENDS
;	COMDAT ??_C@_07CLPMHPLJ@?2?2?5end?5?$AA@
CONST	SEGMENT
??_C@_07CLPMHPLJ@?2?2?5end?5?$AA@ DB '\\ end ', 00H	; `string'
CONST	ENDS
;	COMDAT ??_C@_02FHJIKMCF@?5?$CK?$AA@
CONST	SEGMENT
??_C@_02FHJIKMCF@?5?$CK?$AA@ DB ' *', 00H		; `string'
CONST	ENDS
;	COMDAT ??_C@_06PHGHDMGF@?$CFd?0?5?$CFd?$AA@
CONST	SEGMENT
??_C@_06PHGHDMGF@?$CFd?0?5?$CFd?$AA@ DB '%d, %d', 00H	; `string'
CONST	ENDS
;	COMDAT ??_C@_0M@FFIHGBDP@faith?5?5?5?5?5?5?$AA@
CONST	SEGMENT
??_C@_0M@FFIHGBDP@faith?5?5?5?5?5?5?$AA@ DB 'faith      ', 00H ; `string'
CONST	ENDS
;	COMDAT ??_C@_0M@DJEDCNJJ@culture?5?5?5?5?$AA@
CONST	SEGMENT
??_C@_0M@DJEDCNJJ@culture?5?5?5?5?$AA@ DB 'culture    ', 00H ; `string'
CONST	ENDS
;	COMDAT ??_C@_0M@CMMFFGDL@gold?5?5?5?5?5?5?5?$AA@
CONST	SEGMENT
??_C@_0M@CMMFFGDL@gold?5?5?5?5?5?5?5?$AA@ DB 'gold       ', 00H ; `string'
CONST	ENDS
;	COMDAT ??_C@_0M@MOPCOJJM@science?5?5?5?5?$AA@
CONST	SEGMENT
??_C@_0M@MOPCOJJM@science?5?5?5?5?$AA@ DB 'science    ', 00H ; `string'
CONST	ENDS
;	COMDAT ??_C@_0M@MJLKGKLJ@production?5?$AA@
CONST	SEGMENT
??_C@_0M@MJLKGKLJ@production?5?$AA@ DB 'production ', 00H ; `string'
CONST	ENDS
;	COMDAT ??_C@_0M@FMFHKBFH@food?5?5?5?5?5?5?5?$AA@
CONST	SEGMENT
??_C@_0M@FMFHKBFH@food?5?5?5?5?5?5?5?$AA@ DB 'food       ', 00H ; `string'
CONST	ENDS
;	COMDAT ??_C@_03NCBEKFB@?5?2?2?$AA@
CONST	SEGMENT
??_C@_03NCBEKFB@?5?2?2?$AA@ DB ' \\', 00H		; `string'
CONST	ENDS
;	COMDAT ??_C@_03IAHPLKPE@?1?1?5?$AA@
CONST	SEGMENT
??_C@_03IAHPLKPE@?1?1?5?$AA@ DB '// ', 00H		; `string'
CONST	ENDS
;	COMDAT ??_C@_00CNPNBAHC@?$AA@
CONST	SEGMENT
??_C@_00CNPNBAHC@?$AA@ DB 00H				; `string'
CONST	ENDS
;	COMDAT ??_C@_0BG@OJNBICH@?1?1?5Empire?5Unhappy?$CB?5?1?1?$AA@
CONST	SEGMENT
??_C@_0BG@OJNBICH@?1?1?5Empire?5Unhappy?$CB?5?1?1?$AA@ DB '// Empire Unha'
	DB	'ppy! //', 00H				; `string'
CONST	ENDS
;	COMDAT xdata$x
xdata$x	SEGMENT
__ehfuncinfo$?Update@CvBuilderTaskingAI@@QAEXXZ DD 019930522H
	DD	06H
	DD	FLAT:__unwindtable$?Update@CvBuilderTaskingAI@@QAEXXZ
	DD	2 DUP(00H)
	DD	2 DUP(00H)
	DD	00H
	DD	01H
__unwindtable$?Update@CvBuilderTaskingAI@@QAEXXZ DD 0ffffffffH
	DD	FLAT:__unwindfunclet$?Update@CvBuilderTaskingAI@@QAEXXZ$0
	DD	0ffffffffH
	DD	FLAT:__unwindfunclet$?Update@CvBuilderTaskingAI@@QAEXXZ$2
	DD	01H
	DD	FLAT:__unwindfunclet$?Update@CvBuilderTaskingAI@@QAEXXZ$3
	DD	02H
	DD	FLAT:__unwindfunclet$?Update@CvBuilderTaskingAI@@QAEXXZ$4
	DD	02H
	DD	FLAT:__unwindfunclet$?Update@CvBuilderTaskingAI@@QAEXXZ$6
	DD	04H
	DD	FLAT:__unwindfunclet$?Update@CvBuilderTaskingAI@@QAEXXZ$7
; Function compile flags: /Odtp
; File d:\sources\lekmod_git\checkout\lekmod_dll\cvgamecoredll_expansion2\cvbuildertaskingai.cpp
xdata$x	ENDS
;	COMDAT ?Update@CvBuilderTaskingAI@@QAEXXZ
_TEXT	SEGMENT
tv332 = -272						; size = 4
tv328 = -268						; size = 4
tv206 = -264						; size = 4
tv322 = -260						; size = 4
tv538 = -256						; size = 4
tv314 = -252						; size = 4
tv340 = -248						; size = 4
_this$ = -244						; size = 4
$T220321 = -240						; size = 4
$T220303 = -236						; size = 4
$T220260 = -232						; size = 4
$T220251 = -228						; size = 4
$T220235 = -224						; size = 4
$T220212 = -220						; size = 4
$T220211 = -216						; size = 4
$T220210 = -212						; size = 4
$T220209 = -208						; size = 28
$T220208 = -180						; size = 4
_strYield$217235 = -176					; size = 28
_strNumbers$217252 = -148				; size = 28
_ui$217231 = -120					; size = 4
_str$217225 = -116					; size = 28
_strCityName$217227 = -88				; size = 28
_str$217218 = -60					; size = 28
__$ArrayPad$ = -32					; size = 4
_bShowOutput$217216 = -25				; size = 1
_pLoopCity$217221 = -24					; size = 4
_pCity$ = -20						; size = 4
_iLoop$ = -16						; size = 4
__$EHRec$ = -12						; size = 12
?Update@CvBuilderTaskingAI@@QAEXXZ PROC			; CvBuilderTaskingAI::Update, COMDAT
; _this$ = ecx

; 182  : {

	push	ebp
	mov	ebp, esp
	push	-1
	push	__ehhandler$?Update@CvBuilderTaskingAI@@QAEXXZ
	mov	eax, DWORD PTR fs:0
	push	eax
	sub	esp, 260				; 00000104H
	mov	eax, DWORD PTR ___security_cookie
	xor	eax, ebp
	mov	DWORD PTR __$ArrayPad$[ebp], eax
	push	eax
	lea	eax, DWORD PTR __$EHRec$[ebp]
	mov	DWORD PTR fs:0, eax
	mov	DWORD PTR _this$[ebp], ecx

; 183  : 	UpdateRoutePlots();

	mov	ecx, DWORD PTR _this$[ebp]
	call	?UpdateRoutePlots@CvBuilderTaskingAI@@QAEXXZ ; CvBuilderTaskingAI::UpdateRoutePlots

; 184  : 	m_iNumCities = m_pPlayer->getNumCities();

	mov	eax, DWORD PTR _this$[ebp]
	mov	ecx, DWORD PTR [eax]
	call	?getNumCities@CvPlayer@@QBEHXZ		; CvPlayer::getNumCities
	mov	ecx, DWORD PTR _this$[ebp]
	mov	DWORD PTR [ecx+58396], eax

; 185  : 
; 186  : 	int iLoop;
; 187  : 	CvCity* pCity;
; 188  : 	for(pCity = m_pPlayer->firstCity(&iLoop); pCity != NULL; pCity = m_pPlayer->nextCity(&iLoop))

	push	0
	lea	edx, DWORD PTR _iLoop$[ebp]
	push	edx
	mov	eax, DWORD PTR _this$[ebp]
	mov	ecx, DWORD PTR [eax]
	call	?firstCity@CvPlayer@@QAEPAVCvCity@@PAH_N@Z ; CvPlayer::firstCity
	mov	DWORD PTR _pCity$[ebp], eax
	jmp	SHORT $LN20@Update
$LN19@Update:
	push	0
	lea	ecx, DWORD PTR _iLoop$[ebp]
	push	ecx
	mov	edx, DWORD PTR _this$[ebp]
	mov	ecx, DWORD PTR [edx]
	call	?nextCity@CvPlayer@@QAEPAVCvCity@@PAH_N@Z ; CvPlayer::nextCity
	mov	DWORD PTR _pCity$[ebp], eax
$LN20@Update:
	cmp	DWORD PTR _pCity$[ebp], 0
	je	SHORT $LN18@Update

; 189  : 	{
; 190  : 		pCity->GetCityStrategyAI()->UpdateBestYields();

	mov	ecx, DWORD PTR _pCity$[ebp]
	call	?GetCityStrategyAI@CvCity@@QBEPAVCvCityStrategyAI@@XZ ; CvCity::GetCityStrategyAI
	mov	ecx, eax
	call	?UpdateBestYields@CvCityStrategyAI@@QAEXXZ ; CvCityStrategyAI::UpdateBestYields

; 191  : 	}

	jmp	SHORT $LN19@Update
$LN18@Update:

; 192  : 
; 193  : 	if(m_bLogging)

	mov	eax, DWORD PTR _this$[ebp]
	movzx	ecx, BYTE PTR [eax+58392]
	test	ecx, ecx
	je	$LN21@Update

; 194  : 	{
; 195  : 		bool bShowOutput = m_pPlayer->isHuman();

	mov	edx, DWORD PTR _this$[ebp]
	mov	ecx, DWORD PTR [edx]
	call	?isHuman@CvPlayer@@QBE_NXZ		; CvPlayer::isHuman
	mov	BYTE PTR _bShowOutput$217216[ebp], al

; 196  : 
; 197  : 		if(m_pPlayer->IsEmpireUnhappy())

	mov	eax, DWORD PTR _this$[ebp]
	mov	ecx, DWORD PTR [eax]
	call	?IsEmpireUnhappy@CvPlayer@@QBE_NXZ	; CvPlayer::IsEmpireUnhappy
	movzx	ecx, al
	test	ecx, ecx
	je	$LN16@Update

; 198  : 		{
; 199  : 			CvString str = "// Empire Unhappy! //";

	mov	edx, OFFSET ??_C@_0BG@OJNBICH@?1?1?5Empire?5Unhappy?$CB?5?1?1?$AA@
	test	edx, edx
	je	SHORT $LN35@Update
	mov	DWORD PTR tv340[ebp], OFFSET ??_C@_0BG@OJNBICH@?1?1?5Empire?5Unhappy?$CB?5?1?1?$AA@
	jmp	SHORT $LN36@Update
$LN35@Update:
	mov	DWORD PTR tv340[ebp], OFFSET ??_C@_00CNPNBAHC@?$AA@
$LN36@Update:
	mov	eax, DWORD PTR tv340[ebp]
	push	eax
	lea	ecx, DWORD PTR _str$217218[ebp]
	call	DWORD PTR __imp_??0?$basic_string@DU?$char_traits@D@std@@V?$allocator@D@2@@std@@QAE@PBD@Z
	mov	DWORD PTR __$EHRec$[ebp+8], 0

; 200  : 			LogInfo(str, m_pPlayer, bShowOutput);

	movzx	ecx, BYTE PTR _bShowOutput$217216[ebp]
	push	ecx
	mov	edx, DWORD PTR _this$[ebp]
	mov	eax, DWORD PTR [edx]
	push	eax
	sub	esp, 28					; 0000001cH
	mov	ecx, esp
	mov	DWORD PTR $T220208[ebp], esp
	mov	DWORD PTR $T220235[ebp], ecx
	lea	edx, DWORD PTR _str$217218[ebp]
	push	edx
	mov	ecx, DWORD PTR $T220235[ebp]
	call	DWORD PTR __imp_??0?$basic_string@DU?$char_traits@D@std@@V?$allocator@D@2@@std@@QAE@ABV01@@Z
	mov	eax, DWORD PTR $T220235[ebp]
	mov	DWORD PTR tv314[ebp], eax
	call	?LogInfo@CvBuilderTaskingAI@@SAXVCvString@@PAVCvPlayer@@_N@Z ; CvBuilderTaskingAI::LogInfo
	add	esp, 36					; 00000024H

; 201  : 		}

	mov	DWORD PTR __$EHRec$[ebp+8], -1
	lea	ecx, DWORD PTR _str$217218[ebp]
	call	DWORD PTR __imp_??1?$basic_string@DU?$char_traits@D@std@@V?$allocator@D@2@@std@@QAE@XZ
$LN16@Update:

; 202  : 
; 203  : 		// show crisis states
; 204  : 		CvCity* pLoopCity;
; 205  : 		for(pLoopCity = m_pPlayer->firstCity(&iLoop); pLoopCity != NULL; pLoopCity = m_pPlayer->nextCity(&iLoop))

	push	0
	lea	ecx, DWORD PTR _iLoop$[ebp]
	push	ecx
	mov	edx, DWORD PTR _this$[ebp]
	mov	ecx, DWORD PTR [edx]
	call	?firstCity@CvPlayer@@QAEPAVCvCity@@PAH_N@Z ; CvPlayer::firstCity
	mov	DWORD PTR _pLoopCity$217221[ebp], eax
	jmp	SHORT $LN15@Update
$LN14@Update:
	push	0
	lea	eax, DWORD PTR _iLoop$[ebp]
	push	eax
	mov	ecx, DWORD PTR _this$[ebp]
	mov	ecx, DWORD PTR [ecx]
	call	?nextCity@CvPlayer@@QAEPAVCvCity@@PAH_N@Z ; CvPlayer::nextCity
	mov	DWORD PTR _pLoopCity$217221[ebp], eax
$LN15@Update:
	cmp	DWORD PTR _pLoopCity$217221[ebp], 0
	je	$LN21@Update

; 206  : 		{
; 207  : 			CvString str;

	lea	ecx, DWORD PTR _str$217225[ebp]
	call	DWORD PTR __imp_??0?$basic_string@DU?$char_traits@D@std@@V?$allocator@D@2@@std@@QAE@XZ
	mov	DWORD PTR __$EHRec$[ebp+8], 1

; 208  : 			str += "// ";

	push	OFFSET ??_C@_03IAHPLKPE@?1?1?5?$AA@
	lea	ecx, DWORD PTR _str$217225[ebp]
	call	DWORD PTR __imp_??Y?$basic_string@DU?$char_traits@D@std@@V?$allocator@D@2@@std@@QAEAAV01@PBD@Z

; 209  : 			CvString strCityName;

	lea	ecx, DWORD PTR _strCityName$217227[ebp]
	call	DWORD PTR __imp_??0?$basic_string@DU?$char_traits@D@std@@V?$allocator@D@2@@std@@QAE@XZ
	mov	BYTE PTR __$EHRec$[ebp+8], 2

; 210  : 			strCityName = pLoopCity->getName();

	lea	edx, DWORD PTR $T220209[ebp]
	push	edx
	mov	ecx, DWORD PTR _pLoopCity$217221[ebp]
	call	?getName@CvCity@@QBE?BVCvString@@XZ	; CvCity::getName
	mov	DWORD PTR tv538[ebp], eax
	mov	eax, DWORD PTR tv538[ebp]
	mov	DWORD PTR $T220251[ebp], eax
	mov	BYTE PTR __$EHRec$[ebp+8], 3
	mov	ecx, DWORD PTR $T220251[ebp]
	push	ecx
	lea	ecx, DWORD PTR _strCityName$217227[ebp]
	call	DWORD PTR __imp_??4?$basic_string@DU?$char_traits@D@std@@V?$allocator@D@2@@std@@QAEAAV01@ABV01@@Z
	mov	BYTE PTR __$EHRec$[ebp+8], 2
	lea	ecx, DWORD PTR $T220209[ebp]
	call	DWORD PTR __imp_??1?$basic_string@DU?$char_traits@D@std@@V?$allocator@D@2@@std@@QAE@XZ

; 211  : 			str += strCityName;

	lea	edx, DWORD PTR _strCityName$217227[ebp]
	push	edx
	lea	ecx, DWORD PTR _str$217225[ebp]
	call	DWORD PTR __imp_??Y?$basic_string@DU?$char_traits@D@std@@V?$allocator@D@2@@std@@QAEAAV01@ABV01@@Z

; 212  : 			str += " \\\\";

	push	OFFSET ??_C@_03NCBEKFB@?5?2?2?$AA@
	lea	ecx, DWORD PTR _str$217225[ebp]
	call	DWORD PTR __imp_??Y?$basic_string@DU?$char_traits@D@std@@V?$allocator@D@2@@std@@QAEAAV01@PBD@Z

; 213  : 
; 214  : 			LogInfo(str, m_pPlayer, bShowOutput);

	movzx	eax, BYTE PTR _bShowOutput$217216[ebp]
	push	eax
	mov	ecx, DWORD PTR _this$[ebp]
	mov	edx, DWORD PTR [ecx]
	push	edx
	sub	esp, 28					; 0000001cH
	mov	eax, esp
	mov	DWORD PTR $T220210[ebp], esp
	mov	DWORD PTR $T220260[ebp], eax
	lea	ecx, DWORD PTR _str$217225[ebp]
	push	ecx
	mov	ecx, DWORD PTR $T220260[ebp]
	call	DWORD PTR __imp_??0?$basic_string@DU?$char_traits@D@std@@V?$allocator@D@2@@std@@QAE@ABV01@@Z
	mov	edx, DWORD PTR $T220260[ebp]
	mov	DWORD PTR tv322[ebp], edx
	call	?LogInfo@CvBuilderTaskingAI@@SAXVCvString@@PAVCvPlayer@@_N@Z ; CvBuilderTaskingAI::LogInfo
	add	esp, 36					; 00000024H

; 215  : 
; 216  : #ifdef AUI_WARNING_FIXES
; 217  : 			for (int ui = 0; ui < NUM_YIELD_TYPES; ui++)
; 218  : #else
; 219  : 			for(uint ui = 0; ui < NUM_YIELD_TYPES; ui++)

	mov	DWORD PTR _ui$217231[ebp], 0
	jmp	SHORT $LN12@Update
$LN11@Update:
	mov	eax, DWORD PTR _ui$217231[ebp]
	add	eax, 1
	mov	DWORD PTR _ui$217231[ebp], eax
$LN12@Update:
	cmp	DWORD PTR _ui$217231[ebp], 6
	jae	$LN10@Update

; 220  : #endif
; 221  : 			{
; 222  : 				//double fYield = pLoopCity->GetCityStrategyAI()->GetYieldAverage((YieldTypes)ui);
; 223  : 				//double fYieldDeficient = pLoopCity->GetCityStrategyAI()->GetDeficientYieldValue((YieldTypes)ui);
; 224  : 				CvString strYield;

	lea	ecx, DWORD PTR _strYield$217235[ebp]
	call	DWORD PTR __imp_??0?$basic_string@DU?$char_traits@D@std@@V?$allocator@D@2@@std@@QAE@XZ
	mov	BYTE PTR __$EHRec$[ebp+8], 4

; 225  : 				switch(ui)

	mov	ecx, DWORD PTR _ui$217231[ebp]
	mov	DWORD PTR tv206[ebp], ecx
	cmp	DWORD PTR tv206[ebp], 5
	ja	$LN8@Update
	mov	edx, DWORD PTR tv206[ebp]
	jmp	DWORD PTR $LN111@Update[edx*4]
$LN7@Update:

; 226  : 				{
; 227  : 				case YIELD_FOOD:
; 228  : 					strYield = "food       ";

	mov	eax, OFFSET ??_C@_0M@FMFHKBFH@food?5?5?5?5?5?5?5?$AA@
	test	eax, eax
	je	SHORT $LN62@Update
	push	OFFSET ??_C@_0M@FMFHKBFH@food?5?5?5?5?5?5?5?$AA@
	lea	ecx, DWORD PTR _strYield$217235[ebp]
	call	DWORD PTR __imp_?assign@?$basic_string@DU?$char_traits@D@std@@V?$allocator@D@2@@std@@QAEAAV12@PBD@Z
	jmp	SHORT $LN63@Update
$LN62@Update:
	lea	ecx, DWORD PTR _strYield$217235[ebp]
	call	DWORD PTR __imp_?clear@?$basic_string@DU?$char_traits@D@std@@V?$allocator@D@2@@std@@QAEXXZ
$LN63@Update:

; 229  : 					break;

	jmp	$LN8@Update
$LN6@Update:

; 230  : 				case YIELD_PRODUCTION:
; 231  : 					strYield = "production ";

	mov	ecx, OFFSET ??_C@_0M@MJLKGKLJ@production?5?$AA@
	test	ecx, ecx
	je	SHORT $LN66@Update
	push	OFFSET ??_C@_0M@MJLKGKLJ@production?5?$AA@
	lea	ecx, DWORD PTR _strYield$217235[ebp]
	call	DWORD PTR __imp_?assign@?$basic_string@DU?$char_traits@D@std@@V?$allocator@D@2@@std@@QAEAAV12@PBD@Z
	jmp	SHORT $LN67@Update
$LN66@Update:
	lea	ecx, DWORD PTR _strYield$217235[ebp]
	call	DWORD PTR __imp_?clear@?$basic_string@DU?$char_traits@D@std@@V?$allocator@D@2@@std@@QAEXXZ
$LN67@Update:

; 232  : 					break;

	jmp	$LN8@Update
$LN5@Update:

; 233  : 				case YIELD_SCIENCE:
; 234  : 					strYield = "science    ";

	mov	edx, OFFSET ??_C@_0M@MOPCOJJM@science?5?5?5?5?$AA@
	test	edx, edx
	je	SHORT $LN70@Update
	push	OFFSET ??_C@_0M@MOPCOJJM@science?5?5?5?5?$AA@
	lea	ecx, DWORD PTR _strYield$217235[ebp]
	call	DWORD PTR __imp_?assign@?$basic_string@DU?$char_traits@D@std@@V?$allocator@D@2@@std@@QAEAAV12@PBD@Z
	jmp	SHORT $LN71@Update
$LN70@Update:
	lea	ecx, DWORD PTR _strYield$217235[ebp]
	call	DWORD PTR __imp_?clear@?$basic_string@DU?$char_traits@D@std@@V?$allocator@D@2@@std@@QAEXXZ
$LN71@Update:

; 235  : 					break;

	jmp	SHORT $LN8@Update
$LN4@Update:

; 236  : 				case YIELD_GOLD:
; 237  : 					strYield = "gold       ";

	mov	eax, OFFSET ??_C@_0M@CMMFFGDL@gold?5?5?5?5?5?5?5?$AA@
	test	eax, eax
	je	SHORT $LN74@Update
	push	OFFSET ??_C@_0M@CMMFFGDL@gold?5?5?5?5?5?5?5?$AA@
	lea	ecx, DWORD PTR _strYield$217235[ebp]
	call	DWORD PTR __imp_?assign@?$basic_string@DU?$char_traits@D@std@@V?$allocator@D@2@@std@@QAEAAV12@PBD@Z
	jmp	SHORT $LN75@Update
$LN74@Update:
	lea	ecx, DWORD PTR _strYield$217235[ebp]
	call	DWORD PTR __imp_?clear@?$basic_string@DU?$char_traits@D@std@@V?$allocator@D@2@@std@@QAEXXZ
$LN75@Update:

; 238  : 					break;

	jmp	SHORT $LN8@Update
$LN3@Update:

; 239  : 				case YIELD_CULTURE:
; 240  : 					strYield = "culture    ";

	mov	ecx, OFFSET ??_C@_0M@DJEDCNJJ@culture?5?5?5?5?$AA@
	test	ecx, ecx
	je	SHORT $LN78@Update
	push	OFFSET ??_C@_0M@DJEDCNJJ@culture?5?5?5?5?$AA@
	lea	ecx, DWORD PTR _strYield$217235[ebp]
	call	DWORD PTR __imp_?assign@?$basic_string@DU?$char_traits@D@std@@V?$allocator@D@2@@std@@QAEAAV12@PBD@Z
	jmp	SHORT $LN79@Update
$LN78@Update:
	lea	ecx, DWORD PTR _strYield$217235[ebp]
	call	DWORD PTR __imp_?clear@?$basic_string@DU?$char_traits@D@std@@V?$allocator@D@2@@std@@QAEXXZ
$LN79@Update:

; 241  : 					break;

	jmp	SHORT $LN8@Update
$LN2@Update:

; 242  : 				case YIELD_FAITH:
; 243  : 					strYield = "faith      ";

	mov	edx, OFFSET ??_C@_0M@FFIHGBDP@faith?5?5?5?5?5?5?$AA@
	test	edx, edx
	je	SHORT $LN82@Update
	push	OFFSET ??_C@_0M@FFIHGBDP@faith?5?5?5?5?5?5?$AA@
	lea	ecx, DWORD PTR _strYield$217235[ebp]
	call	DWORD PTR __imp_?assign@?$basic_string@DU?$char_traits@D@std@@V?$allocator@D@2@@std@@QAEAAV12@PBD@Z
	jmp	SHORT $LN8@Update
$LN82@Update:
	lea	ecx, DWORD PTR _strYield$217235[ebp]
	call	DWORD PTR __imp_?clear@?$basic_string@DU?$char_traits@D@std@@V?$allocator@D@2@@std@@QAEXXZ
$LN8@Update:

; 244  : 					break;
; 245  : 				}
; 246  : 
; 247  : 				CvString strNumbers;

	lea	ecx, DWORD PTR _strNumbers$217252[ebp]
	call	DWORD PTR __imp_??0?$basic_string@DU?$char_traits@D@std@@V?$allocator@D@2@@std@@QAE@XZ
	mov	BYTE PTR __$EHRec$[ebp+8], 5

; 248  : 				strNumbers.Format("%d, %d", pLoopCity->GetCityStrategyAI()->GetBestYieldAverageTimes100((YieldTypes)ui), pLoopCity->GetCityStrategyAI()->GetYieldDeltaTimes100((YieldTypes)ui));

	mov	eax, DWORD PTR _ui$217231[ebp]
	push	eax
	mov	ecx, DWORD PTR _pLoopCity$217221[ebp]
	call	?GetCityStrategyAI@CvCity@@QBEPAVCvCityStrategyAI@@XZ ; CvCity::GetCityStrategyAI
	mov	ecx, eax
	call	?GetYieldDeltaTimes100@CvCityStrategyAI@@QAEFW4YieldTypes@@@Z ; CvCityStrategyAI::GetYieldDeltaTimes100
	movsx	ecx, ax
	push	ecx
	mov	edx, DWORD PTR _ui$217231[ebp]
	push	edx
	mov	ecx, DWORD PTR _pLoopCity$217221[ebp]
	call	?GetCityStrategyAI@CvCity@@QBEPAVCvCityStrategyAI@@XZ ; CvCity::GetCityStrategyAI
	mov	ecx, eax
	call	?GetBestYieldAverageTimes100@CvCityStrategyAI@@QAEGW4YieldTypes@@@Z ; CvCityStrategyAI::GetBestYieldAverageTimes100
	movzx	eax, ax
	push	eax
	push	OFFSET ??_C@_06PHGHDMGF@?$CFd?0?5?$CFd?$AA@
	lea	ecx, DWORD PTR _strNumbers$217252[ebp]
	push	ecx
	call	?Format@CvString@@QAAXPBDZZ		; CvString::Format
	add	esp, 16					; 00000010H

; 249  : 
; 250  : 				//int iYieldAdjusted = (int)workerround(fYield * 100);
; 251  : 				//int iYieldDeficientAdjacent = (int)workerround(fYieldDeficient * 100);
; 252  : 
; 253  : 				//strNumbers.Format("%d / %d", iYieldAdjusted, iYieldDeficientAdjacent);
; 254  : 				strYield += strNumbers;

	lea	edx, DWORD PTR _strNumbers$217252[ebp]
	push	edx
	lea	ecx, DWORD PTR _strYield$217235[ebp]
	call	DWORD PTR __imp_??Y?$basic_string@DU?$char_traits@D@std@@V?$allocator@D@2@@std@@QAEAAV01@ABV01@@Z

; 255  : 
; 256  : 				if(ui == pLoopCity->GetCityStrategyAI()->GetFocusYield())

	mov	ecx, DWORD PTR _pLoopCity$217221[ebp]
	call	?GetCityStrategyAI@CvCity@@QBEPAVCvCityStrategyAI@@XZ ; CvCity::GetCityStrategyAI
	mov	ecx, eax
	call	?GetFocusYield@CvCityStrategyAI@@QAE?AW4YieldTypes@@XZ ; CvCityStrategyAI::GetFocusYield
	cmp	DWORD PTR _ui$217231[ebp], eax
	jne	SHORT $LN1@Update

; 257  : 				{
; 258  : 					strYield += " *";

	push	OFFSET ??_C@_02FHJIKMCF@?5?$CK?$AA@
	lea	ecx, DWORD PTR _strYield$217235[ebp]
	call	DWORD PTR __imp_??Y?$basic_string@DU?$char_traits@D@std@@V?$allocator@D@2@@std@@QAEAAV01@PBD@Z
$LN1@Update:

; 259  : 				}
; 260  : 
; 261  : 				//if (iYieldAdjusted < iYieldDeficientAdjacent)
; 262  : 				//{
; 263  : 				//if (GetDeficientYield(pLoopCity, false) != GetDeficientYield(pLoopCity, true))
; 264  : 				//{
; 265  : 				//	strYield += "  Problem, but happiness over is overriding it";
; 266  : 				//}
; 267  : 				//else
; 268  : 				//{
; 269  : 				//	strYield += "  PROBLEM!!";
; 270  : 				//}
; 271  : 				//}
; 272  : 				LogInfo(strYield, m_pPlayer, bShowOutput);

	movzx	eax, BYTE PTR _bShowOutput$217216[ebp]
	push	eax
	mov	ecx, DWORD PTR _this$[ebp]
	mov	edx, DWORD PTR [ecx]
	push	edx
	sub	esp, 28					; 0000001cH
	mov	eax, esp
	mov	DWORD PTR $T220211[ebp], esp
	mov	DWORD PTR $T220303[ebp], eax
	lea	ecx, DWORD PTR _strYield$217235[ebp]
	push	ecx
	mov	ecx, DWORD PTR $T220303[ebp]
	call	DWORD PTR __imp_??0?$basic_string@DU?$char_traits@D@std@@V?$allocator@D@2@@std@@QAE@ABV01@@Z
	mov	edx, DWORD PTR $T220303[ebp]
	mov	DWORD PTR tv328[ebp], edx
	call	?LogInfo@CvBuilderTaskingAI@@SAXVCvString@@PAVCvPlayer@@_N@Z ; CvBuilderTaskingAI::LogInfo
	add	esp, 36					; 00000024H

; 273  : 			}

	mov	BYTE PTR __$EHRec$[ebp+8], 4
	lea	ecx, DWORD PTR _strNumbers$217252[ebp]
	call	DWORD PTR __imp_??1?$basic_string@DU?$char_traits@D@std@@V?$allocator@D@2@@std@@QAE@XZ
	mov	BYTE PTR __$EHRec$[ebp+8], 2
	lea	ecx, DWORD PTR _strYield$217235[ebp]
	call	DWORD PTR __imp_??1?$basic_string@DU?$char_traits@D@std@@V?$allocator@D@2@@std@@QAE@XZ
	jmp	$LN11@Update
$LN10@Update:

; 274  : 
; 275  : 			str = "\\\\ end ";

	mov	eax, OFFSET ??_C@_07CLPMHPLJ@?2?2?5end?5?$AA@
	test	eax, eax
	je	SHORT $LN98@Update
	push	OFFSET ??_C@_07CLPMHPLJ@?2?2?5end?5?$AA@
	lea	ecx, DWORD PTR _str$217225[ebp]
	call	DWORD PTR __imp_?assign@?$basic_string@DU?$char_traits@D@std@@V?$allocator@D@2@@std@@QAEAAV12@PBD@Z
	jmp	SHORT $LN99@Update
$LN98@Update:
	lea	ecx, DWORD PTR _str$217225[ebp]
	call	DWORD PTR __imp_?clear@?$basic_string@DU?$char_traits@D@std@@V?$allocator@D@2@@std@@QAEXXZ
$LN99@Update:

; 276  : 			str += strCityName;

	lea	ecx, DWORD PTR _strCityName$217227[ebp]
	push	ecx
	lea	ecx, DWORD PTR _str$217225[ebp]
	call	DWORD PTR __imp_??Y?$basic_string@DU?$char_traits@D@std@@V?$allocator@D@2@@std@@QAEAAV01@ABV01@@Z

; 277  : 			str += " //";

	push	OFFSET ??_C@_03FPIELGGN@?5?1?1?$AA@
	lea	ecx, DWORD PTR _str$217225[ebp]
	call	DWORD PTR __imp_??Y?$basic_string@DU?$char_traits@D@std@@V?$allocator@D@2@@std@@QAEAAV01@PBD@Z

; 278  : 			LogInfo(str, m_pPlayer, bShowOutput);

	movzx	edx, BYTE PTR _bShowOutput$217216[ebp]
	push	edx
	mov	eax, DWORD PTR _this$[ebp]
	mov	ecx, DWORD PTR [eax]
	push	ecx
	sub	esp, 28					; 0000001cH
	mov	edx, esp
	mov	DWORD PTR $T220212[ebp], esp
	mov	DWORD PTR $T220321[ebp], edx
	lea	eax, DWORD PTR _str$217225[ebp]
	push	eax
	mov	ecx, DWORD PTR $T220321[ebp]
	call	DWORD PTR __imp_??0?$basic_string@DU?$char_traits@D@std@@V?$allocator@D@2@@std@@QAE@ABV01@@Z
	mov	ecx, DWORD PTR $T220321[ebp]
	mov	DWORD PTR tv332[ebp], ecx
	call	?LogInfo@CvBuilderTaskingAI@@SAXVCvString@@PAVCvPlayer@@_N@Z ; CvBuilderTaskingAI::LogInfo
	add	esp, 36					; 00000024H

; 279  : 		}

	mov	BYTE PTR __$EHRec$[ebp+8], 1
	lea	ecx, DWORD PTR _strCityName$217227[ebp]
	call	DWORD PTR __imp_??1?$basic_string@DU?$char_traits@D@std@@V?$allocator@D@2@@std@@QAE@XZ
	mov	DWORD PTR __$EHRec$[ebp+8], -1
	lea	ecx, DWORD PTR _str$217225[ebp]
	call	DWORD PTR __imp_??1?$basic_string@DU?$char_traits@D@std@@V?$allocator@D@2@@std@@QAE@XZ
	jmp	$LN14@Update
$LN21@Update:

; 280  : 	}
; 281  : }

	mov	ecx, DWORD PTR __$EHRec$[ebp]
	mov	DWORD PTR fs:0, ecx
	pop	ecx
	mov	ecx, DWORD PTR __$ArrayPad$[ebp]
	xor	ecx, ebp
	call	@__security_check_cookie@4
	mov	esp, ebp
	pop	ebp
	ret	0
	npad	3
$LN111@Update:
	DD	$LN7@Update
	DD	$LN6@Update
	DD	$LN4@Update
	DD	$LN5@Update
	DD	$LN3@Update
	DD	$LN2@Update
_TEXT	ENDS
;	COMDAT text$x
text$x	SEGMENT
__unwindfunclet$?Update@CvBuilderTaskingAI@@QAEXXZ$0:
	lea	ecx, DWORD PTR _str$217218[ebp]
	jmp	??1CvString@@QAE@XZ			; CvString::~CvString
__unwindfunclet$?Update@CvBuilderTaskingAI@@QAEXXZ$2:
	lea	ecx, DWORD PTR _str$217225[ebp]
	jmp	??1CvString@@QAE@XZ			; CvString::~CvString
__unwindfunclet$?Update@CvBuilderTaskingAI@@QAEXXZ$3:
	lea	ecx, DWORD PTR _strCityName$217227[ebp]
	jmp	??1CvString@@QAE@XZ			; CvString::~CvString
__unwindfunclet$?Update@CvBuilderTaskingAI@@QAEXXZ$4:
	lea	ecx, DWORD PTR $T220209[ebp]
	jmp	??1CvString@@QAE@XZ			; CvString::~CvString
__unwindfunclet$?Update@CvBuilderTaskingAI@@QAEXXZ$6:
	lea	ecx, DWORD PTR _strYield$217235[ebp]
	jmp	??1CvString@@QAE@XZ			; CvString::~CvString
__unwindfunclet$?Update@CvBuilderTaskingAI@@QAEXXZ$7:
	lea	ecx, DWORD PTR _strNumbers$217252[ebp]
	jmp	??1CvString@@QAE@XZ			; CvString::~CvString
__ehhandler$?Update@CvBuilderTaskingAI@@QAEXXZ:
	mov	edx, DWORD PTR [esp+8]
	lea	eax, DWORD PTR [edx+12]
	mov	ecx, DWORD PTR [edx-264]
	xor	ecx, eax
	call	@__security_check_cookie@4
	mov	ecx, DWORD PTR [edx-20]
	xor	ecx, eax
	call	@__security_check_cookie@4
	mov	eax, OFFSET __ehfuncinfo$?Update@CvBuilderTaskingAI@@QAEXXZ
	jmp	___CxxFrameHandler3
text$x	ENDS
?Update@CvBuilderTaskingAI@@QAEXXZ ENDP			; CvBuilderTaskingAI::Update
PUBLIC	?GetPlotYield@@YAHPAVCvPlot@@W4YieldTypes@@@Z	; GetPlotYield
EXTRN	?calculateNatureYield@CvPlot@@QBEHW4YieldTypes@@W4TeamTypes@@_N@Z:PROC ; CvPlot::calculateNatureYield
; Function compile flags: /Odtp
;	COMDAT ?GetPlotYield@@YAHPAVCvPlot@@W4YieldTypes@@@Z
_TEXT	SEGMENT
_pPlot$ = 8						; size = 4
_eYield$ = 12						; size = 4
?GetPlotYield@@YAHPAVCvPlot@@W4YieldTypes@@@Z PROC	; GetPlotYield, COMDAT

; 284  : {

	push	ebp
	mov	ebp, esp

; 285  : 	if(pPlot->getTerrainType() == NO_TERRAIN)

	mov	eax, DWORD PTR _pPlot$[ebp]
	movsx	ecx, BYTE PTR [eax+6]
	cmp	ecx, -1
	jne	SHORT $LN1@GetPlotYie

; 286  : 	{
; 287  : 		return 0;

	xor	eax, eax
	jmp	SHORT $LN2@GetPlotYie
$LN1@GetPlotYie:

; 288  : 	}
; 289  : 
; 290  : 	return pPlot->calculateNatureYield(eYield, NO_TEAM);;

	push	0
	push	-1
	mov	edx, DWORD PTR _eYield$[ebp]
	push	edx
	mov	ecx, DWORD PTR _pPlot$[ebp]
	call	?calculateNatureYield@CvPlot@@QBEHW4YieldTypes@@W4TeamTypes@@_N@Z ; CvPlot::calculateNatureYield
$LN2@GetPlotYie:

; 291  : }

	pop	ebp
	ret	0
?GetPlotYield@@YAHPAVCvPlot@@W4YieldTypes@@@Z ENDP	; GetPlotYield
_TEXT	ENDS
PUBLIC	?push_back@?$FStaticVector@H$0EA@$00$0BCJ@$0A@@@QAEIABH@Z ; FStaticVector<int,64,1,297,0>::push_back
PUBLIC	?getPlotCity@CvPlot@@QBEPAVCvCity@@XZ		; CvPlot::getPlotCity
PUBLIC	?ConnectCitiesToCapital@CvBuilderTaskingAI@@IAEXPAVCvCity@@0W4RouteTypes@@@Z ; CvBuilderTaskingAI::ConnectCitiesToCapital
EXTRN	?isMinorCiv@CvPlayer@@QBE_NXZ:PROC		; CvPlayer::isMinorCiv
EXTRN	?SetBuilderAIScratchPadPlayer@CvPlot@@QAEXW4PlayerTypes@@@Z:PROC ; CvPlot::SetBuilderAIScratchPadPlayer
EXTRN	?SetBuilderAIScratchPadTurn@CvPlot@@QAEXF@Z:PROC ; CvPlot::SetBuilderAIScratchPadTurn
EXTRN	?SetBuilderAIScratchPadRoute@CvPlot@@QAEXW4RouteTypes@@@Z:PROC ; CvPlot::SetBuilderAIScratchPadRoute
EXTRN	?SetBuilderAIScratchPadValue@CvPlot@@QAEXF@Z:PROC ; CvPlot::SetBuilderAIScratchPadValue
EXTRN	?GetBuilderAIScratchPadValue@CvPlot@@QBEFXZ:PROC ; CvPlot::GetBuilderAIScratchPadValue
EXTRN	?GetBuilderAIScratchPadPlayer@CvPlot@@QBE?AW4PlayerTypes@@XZ:PROC ; CvPlot::GetBuilderAIScratchPadPlayer
EXTRN	?GetBuilderAIScratchPadTurn@CvPlot@@QBEFXZ:PROC	; CvPlot::GetBuilderAIScratchPadTurn
EXTRN	?getGameTurn@CvGame@@QAEHXZ:PROC		; CvGame::getGameTurn
EXTRN	?getYieldRate@CvCity@@QBEHW4YieldTypes@@_N@Z:PROC ; CvCity::getYieldRate
EXTRN	?calculateGoldRate@CvPlayer@@QBEHXZ:PROC	; CvPlayer::calculateGoldRate
EXTRN	?GetPlayerResponsibleForRoute@CvPlot@@QBE?AW4PlayerTypes@@XZ:PROC ; CvPlot::GetPlayerResponsibleForRoute
EXTRN	?IsTradeRoute@CvPlot@@QBE_NW4PlayerTypes@@@Z:PROC ; CvPlot::IsTradeRoute
EXTRN	?IsRoutePillaged@CvPlot@@QBE_NXZ:PROC		; CvPlot::IsRoutePillaged
EXTRN	?getRouteType@CvPlot@@QBE?AW4RouteTypes@@XZ:PROC ; CvPlot::getRouteType
EXTRN	?getTeam@CvCity@@QBE?AW4TeamTypes@@XZ:PROC	; CvCity::getTeam
EXTRN	?GeneratePath@CvAStar@@QAE_NHHHHH_N@Z:PROC	; CvAStar::GeneratePath
EXTRN	?GetBuildRouteFinder@CvGlobals@@QAEAAVCvAStar@@XZ:PROC ; CvGlobals::GetBuildRouteFinder
EXTRN	?plot@CvCity@@QBEPAVCvPlot@@XZ:PROC		; CvCity::plot
EXTRN	?GetGoldMaintenance@CvRouteInfo@@QBEHXZ:PROC	; CvRouteInfo::GetGoldMaintenance
EXTRN	?getRouteInfo@CvGlobals@@QAEPAVCvRouteInfo@@W4RouteTypes@@@Z:PROC ; CvGlobals::getRouteInfo
EXTRN	?GetCityConnectionRouteGoldTimes100@CvTreasury@@QBEHPAVCvCity@@@Z:PROC ; CvTreasury::GetCityConnectionRouteGoldTimes100
EXTRN	?GetTreasury@CvPlayer@@QBEPAVCvTreasury@@XZ:PROC ; CvPlayer::GetTreasury
EXTRN	?IsCapitalConnectedToCity@CvPlayer@@QAE_NPAVCvCity@@W4RouteTypes@@@Z:PROC ; CvPlayer::IsCapitalConnectedToCity
EXTRN	?IsIndustrialRouteToCapital@CvCity@@QBE_NXZ:PROC ; CvCity::IsIndustrialRouteToCapital
EXTRN	?GetIndustrialRoute@CvGame@@QBE?AW4RouteTypes@@XZ:PROC ; CvGame::GetIndustrialRoute
; Function compile flags: /Odtp
;	COMDAT ?ConnectCitiesToCapital@CvBuilderTaskingAI@@IAEXPAVCvCity@@0W4RouteTypes@@@Z
_TEXT	SEGMENT
tv239 = -292						; size = 4
tv391 = -288						; size = 4
_this$ = -284						; size = 4
$T220564 = -240						; size = 4
$T220559 = -236						; size = 4
$T220555 = -232						; size = 4
$T220551 = -228						; size = 4
$T220547 = -224						; size = 4
$T220538 = -220						; size = 4
$T220534 = -216						; size = 4
$T220525 = -212						; size = 4
$T220516 = -208						; size = 4
$T220515 = -204						; size = 4
$T220502 = -200						; size = 4
$T220496 = -196						; size = 4
$T220492 = -192						; size = 4
$T220488 = -188						; size = 4
$T220481 = -184						; size = 4
$T220472 = -180						; size = 4
$T220466 = -176						; size = 4
$T220462 = -172						; size = 4
$T220458 = -168						; size = 4
$T220449 = -164						; size = 4
$T220440 = -160						; size = 4
$T220439 = -156						; size = 4
$T220425 = -148						; size = 4
$T220424 = -144						; size = 4
$T220411 = -140						; size = 4
$T220405 = -136						; size = 4
$T220401 = -132						; size = 4
$T220397 = -128						; size = 4
$T220396 = -124						; size = 4
$T220392 = -120						; size = 4
$T220391 = -116						; size = 4
$T220387 = -112						; size = 4
$T220386 = -108						; size = 4
$T220382 = -104						; size = 4
$T220381 = -100						; size = 4
$T220369 = -96						; size = 4
$T220365 = -92						; size = 4
$T220356 = -88						; size = 4
$T220347 = -84						; size = 4
$T220346 = -80						; size = 4
$T220345 = -76						; size = 4
$T220344 = -72						; size = 4
_iValue$217324 = -68					; size = 4
_pCity$217298 = -64					; size = 4
_iProfit$ = -60						; size = 4
_bMajorMinorConnection$ = -53				; size = 1
_iRoadLength$ = -52					; size = 4
_iPlotsNeeded$ = -48					; size = 4
_pPlot$ = -44						; size = 4
_pRouteInfo$ = -40					; size = 4
_pNode$ = -36						; size = 4
_iGameTurn$ = -32					; size = 4
_iGoldForRoute$ = -28					; size = 4
_iMaintenancePerTile$ = -24				; size = 4
_iRouteValue$ = -20					; size = 4
_bIndustrialRoute$ = -13				; size = 1
_iPathfinderFlags$ = -12				; size = 4
_bFoundPath$ = -5					; size = 1
_sValue$ = -4						; size = 2
_pPlayerCapital$ = 8					; size = 4
_pTargetCity$ = 12					; size = 4
_eRoute$ = 16						; size = 4
?ConnectCitiesToCapital@CvBuilderTaskingAI@@IAEXPAVCvCity@@0W4RouteTypes@@@Z PROC ; CvBuilderTaskingAI::ConnectCitiesToCapital, COMDAT
; _this$ = ecx

; 294  : {

	push	ebp
	mov	ebp, esp
	sub	esp, 292				; 00000124H
	push	esi
	mov	DWORD PTR _this$[ebp], ecx

; 295  : 	bool bMajorMinorConnection = false;

	mov	BYTE PTR _bMajorMinorConnection$[ebp], 0

; 296  : 	if(pTargetCity->getOwner() != pPlayerCapital->getOwner())

	mov	eax, DWORD PTR _pTargetCity$[ebp]
	mov	ecx, DWORD PTR [eax+84]
	mov	DWORD PTR $T220356[ebp], ecx
	mov	edx, DWORD PTR _pPlayerCapital$[ebp]
	mov	eax, DWORD PTR [edx+84]
	mov	DWORD PTR $T220365[ebp], eax
	mov	ecx, DWORD PTR $T220356[ebp]
	cmp	ecx, DWORD PTR $T220365[ebp]
	je	SHORT $LN37@ConnectCit

; 297  : 	{
; 298  : 		bMajorMinorConnection = true;

	mov	BYTE PTR _bMajorMinorConnection$[ebp], 1
$LN37@ConnectCit:

; 299  : 	}
; 300  : 
; 301  : 	bool bIndustrialRoute = false;

	mov	BYTE PTR _bIndustrialRoute$[ebp], 0

; 302  : 	if(GC.getGame().GetIndustrialRoute() == eRoute)

	mov	edx, DWORD PTR ?gGlobals@@3VCvGlobals@@A+48
	mov	DWORD PTR $T220369[ebp], edx
	mov	ecx, DWORD PTR $T220369[ebp]
	call	?GetIndustrialRoute@CvGame@@QBE?AW4RouteTypes@@XZ ; CvGame::GetIndustrialRoute
	cmp	eax, DWORD PTR _eRoute$[ebp]
	jne	SHORT $LN36@ConnectCit

; 303  : 	{
; 304  : 		bIndustrialRoute = true;

	mov	BYTE PTR _bIndustrialRoute$[ebp], 1
$LN36@ConnectCit:

; 305  : 	}
; 306  : 
; 307  : 	// if we already have a connection, bail out
; 308  : 	if(bIndustrialRoute && pTargetCity->IsIndustrialRouteToCapital())

	movzx	eax, BYTE PTR _bIndustrialRoute$[ebp]
	test	eax, eax
	je	SHORT $LN35@ConnectCit
	mov	ecx, DWORD PTR _pTargetCity$[ebp]
	call	?IsIndustrialRouteToCapital@CvCity@@QBE_NXZ ; CvCity::IsIndustrialRouteToCapital
	movzx	ecx, al
	test	ecx, ecx
	je	SHORT $LN35@ConnectCit
	jmp	$LN38@ConnectCit

; 309  : 	{
; 310  : 		return;

	jmp	SHORT $LN34@ConnectCit
$LN35@ConnectCit:

; 311  : 	}
; 312  : 	else if(m_pPlayer->IsCapitalConnectedToCity(pTargetCity, eRoute))

	mov	edx, DWORD PTR _eRoute$[ebp]
	push	edx
	mov	eax, DWORD PTR _pTargetCity$[ebp]
	push	eax
	mov	ecx, DWORD PTR _this$[ebp]
	mov	ecx, DWORD PTR [ecx]
	call	?IsCapitalConnectedToCity@CvPlayer@@QAE_NPAVCvCity@@W4RouteTypes@@@Z ; CvPlayer::IsCapitalConnectedToCity
	movzx	edx, al
	test	edx, edx
	je	SHORT $LN34@ConnectCit

; 313  : 	{
; 314  : 		return;

	jmp	$LN38@ConnectCit
$LN34@ConnectCit:

; 315  : 	}
; 316  : 
; 317  : 	int iGoldForRoute = 0;

	mov	DWORD PTR _iGoldForRoute$[ebp], 0

; 318  : 	if(!bMajorMinorConnection)

	movzx	eax, BYTE PTR _bMajorMinorConnection$[ebp]
	test	eax, eax
	jne	SHORT $LN32@ConnectCit

; 319  : 	{
; 320  : 		iGoldForRoute = m_pPlayer->GetTreasury()->GetCityConnectionRouteGoldTimes100(pTargetCity) / 100;

	mov	ecx, DWORD PTR _pTargetCity$[ebp]
	push	ecx
	mov	edx, DWORD PTR _this$[ebp]
	mov	ecx, DWORD PTR [edx]
	call	?GetTreasury@CvPlayer@@QBEPAVCvTreasury@@XZ ; CvPlayer::GetTreasury
	mov	ecx, eax
	call	?GetCityConnectionRouteGoldTimes100@CvTreasury@@QBEHPAVCvCity@@@Z ; CvTreasury::GetCityConnectionRouteGoldTimes100
	cdq
	mov	ecx, 100				; 00000064H
	idiv	ecx
	mov	DWORD PTR _iGoldForRoute$[ebp], eax
$LN32@ConnectCit:

; 321  : 	}
; 322  : 
; 323  : 	CvRouteInfo* pRouteInfo = GC.getRouteInfo(eRoute);

	mov	edx, DWORD PTR _eRoute$[ebp]
	push	edx
	mov	ecx, OFFSET ?gGlobals@@3VCvGlobals@@A	; gGlobals
	call	?getRouteInfo@CvGlobals@@QAEPAVCvRouteInfo@@W4RouteTypes@@@Z ; CvGlobals::getRouteInfo
	mov	DWORD PTR _pRouteInfo$[ebp], eax

; 324  : 	if(!pRouteInfo)

	cmp	DWORD PTR _pRouteInfo$[ebp], 0
	jne	SHORT $LN31@ConnectCit

; 325  : 	{
; 326  : 		return;

	jmp	$LN38@ConnectCit
$LN31@ConnectCit:

; 327  : 	}
; 328  : 	int iMaintenancePerTile = pRouteInfo->GetGoldMaintenance();

	mov	ecx, DWORD PTR _pRouteInfo$[ebp]
	call	?GetGoldMaintenance@CvRouteInfo@@QBEHXZ	; CvRouteInfo::GetGoldMaintenance
	mov	DWORD PTR _iMaintenancePerTile$[ebp], eax

; 329  : 	if(iMaintenancePerTile < 0)  // div by zero check

	cmp	DWORD PTR _iMaintenancePerTile$[ebp], 0
	jge	SHORT $LN52@ConnectCit

; 330  : 	{
; 331  : 		return;

	jmp	$LN38@ConnectCit

; 332  : 	}
; 333  : 
; 334  : 	// build a path between the two cities
; 335  : 	int iPathfinderFlags = m_pPlayer->GetID();

$LN52@ConnectCit:
	mov	eax, DWORD PTR _this$[ebp]
	mov	ecx, DWORD PTR [eax]
	mov	edx, DWORD PTR [ecx+44]
	mov	DWORD PTR _iPathfinderFlags$[ebp], edx

; 336  : 	int iRouteValue = eRoute + 1;

	mov	eax, DWORD PTR _eRoute$[ebp]
	add	eax, 1
	mov	DWORD PTR _iRouteValue$[ebp], eax

; 337  : 	// assuming that there are fewer than 256 players
; 338  : 	iPathfinderFlags |= (iRouteValue << 8);

	mov	ecx, DWORD PTR _iRouteValue$[ebp]
	shl	ecx, 8
	or	ecx, DWORD PTR _iPathfinderFlags$[ebp]
	mov	DWORD PTR _iPathfinderFlags$[ebp], ecx

; 339  : 	bool bFoundPath = GC.GetBuildRouteFinder().GeneratePath(pPlayerCapital->plot()->getX(), pPlayerCapital->plot()->getY(), pTargetCity->plot()->getX(), pTargetCity->plot()->getY(), iPathfinderFlags);

	mov	ecx, DWORD PTR _pTargetCity$[ebp]
	call	?plot@CvCity@@QBEPAVCvPlot@@XZ		; CvCity::plot
	mov	DWORD PTR $T220381[ebp], eax
	mov	edx, DWORD PTR $T220381[ebp]
	movsx	eax, WORD PTR [edx+2]
	mov	DWORD PTR $T220382[ebp], eax
	mov	ecx, DWORD PTR _pTargetCity$[ebp]
	call	?plot@CvCity@@QBEPAVCvPlot@@XZ		; CvCity::plot
	mov	DWORD PTR $T220386[ebp], eax
	mov	ecx, DWORD PTR $T220386[ebp]
	movsx	edx, WORD PTR [ecx]
	mov	DWORD PTR $T220387[ebp], edx
	mov	ecx, DWORD PTR _pPlayerCapital$[ebp]
	call	?plot@CvCity@@QBEPAVCvPlot@@XZ		; CvCity::plot
	mov	DWORD PTR $T220391[ebp], eax
	mov	eax, DWORD PTR $T220391[ebp]
	movsx	ecx, WORD PTR [eax+2]
	mov	DWORD PTR $T220392[ebp], ecx
	mov	ecx, DWORD PTR _pPlayerCapital$[ebp]
	call	?plot@CvCity@@QBEPAVCvPlot@@XZ		; CvCity::plot
	mov	DWORD PTR $T220396[ebp], eax
	mov	edx, DWORD PTR $T220396[ebp]
	movsx	eax, WORD PTR [edx]
	mov	DWORD PTR $T220397[ebp], eax
	push	0
	mov	ecx, DWORD PTR _iPathfinderFlags$[ebp]
	push	ecx
	mov	edx, DWORD PTR $T220382[ebp]
	push	edx
	mov	eax, DWORD PTR $T220387[ebp]
	push	eax
	mov	ecx, DWORD PTR $T220392[ebp]
	push	ecx
	mov	edx, DWORD PTR $T220397[ebp]
	push	edx
	mov	ecx, OFFSET ?gGlobals@@3VCvGlobals@@A	; gGlobals
	call	?GetBuildRouteFinder@CvGlobals@@QAEAAVCvAStar@@XZ ; CvGlobals::GetBuildRouteFinder
	mov	ecx, eax
	call	?GeneratePath@CvAStar@@QAE_NHHHHH_N@Z	; CvAStar::GeneratePath
	mov	BYTE PTR _bFoundPath$[ebp], al

; 340  : 
; 341  : 	//  if no path, then bail!
; 342  : 	if(!bFoundPath)

	movzx	eax, BYTE PTR _bFoundPath$[ebp]
	test	eax, eax
	jne	SHORT $LN29@ConnectCit

; 343  : 	{
; 344  : 		return;

	jmp	$LN38@ConnectCit
$LN29@ConnectCit:

; 345  : 	}
; 346  : 
; 347  : 	// walk the path
; 348  : 	CvPlot* pPlot = NULL;

	mov	DWORD PTR _pPlot$[ebp], 0

; 349  : 
; 350  : 	// go through the route to see how long it is and how many plots already have roads
; 351  : 	int iRoadLength = 0;

	mov	DWORD PTR _iRoadLength$[ebp], 0

; 352  : 	int iPlotsNeeded = 0;

	mov	DWORD PTR _iPlotsNeeded$[ebp], 0

; 353  : 	CvAStarNode* pNode = GC.GetBuildRouteFinder().GetLastNode();

	mov	ecx, OFFSET ?gGlobals@@3VCvGlobals@@A	; gGlobals
	call	?GetBuildRouteFinder@CvGlobals@@QAEAAVCvAStar@@XZ ; CvGlobals::GetBuildRouteFinder
	mov	DWORD PTR $T220401[ebp], eax
	mov	ecx, DWORD PTR $T220401[ebp]
	mov	edx, DWORD PTR [ecx+96]
	mov	DWORD PTR _pNode$[ebp], edx
$LN28@ConnectCit:

; 354  : #ifdef AUI_WORKER_INCA_HILLS
; 355  : 	bool bIncaBonusActive = (m_pPlayer->GetPlayerTraits()->IsNoHillsImprovementMaintenance() && !m_pPlayer->isHuman());
; 356  : #endif
; 357  : 	while(pNode)

	cmp	DWORD PTR _pNode$[ebp], 0
	je	$LN27@ConnectCit

; 358  : 	{
; 359  : 		pPlot = GC.getMap().plotCheckInvalid(pNode->m_iX, pNode->m_iY);

	mov	eax, DWORD PTR ?gGlobals@@3VCvGlobals@@A+52
	mov	DWORD PTR $T220405[ebp], eax
	mov	ecx, DWORD PTR _pNode$[ebp]
	movsx	edx, WORD PTR [ecx+82]
	mov	DWORD PTR $T220425[ebp], edx
	mov	eax, DWORD PTR _pNode$[ebp]
	movsx	ecx, WORD PTR [eax+80]
	mov	DWORD PTR $T220424[ebp], ecx
	cmp	DWORD PTR $T220424[ebp], -2147483647	; 80000001H
	je	SHORT $LN66@ConnectCit
	cmp	DWORD PTR $T220425[ebp], -2147483647	; 80000001H
	jne	SHORT $LN67@ConnectCit
$LN66@ConnectCit:
	mov	DWORD PTR _pPlot$[ebp], 0
	jmp	SHORT $LN68@ConnectCit
$LN67@ConnectCit:
	mov	edx, DWORD PTR $T220405[ebp]
	mov	eax, DWORD PTR [edx+4020]
	mov	DWORD PTR $T220411[ebp], eax
	mov	ecx, DWORD PTR $T220425[ebp]
	imul	ecx, DWORD PTR $T220411[ebp]
	add	ecx, DWORD PTR $T220424[ebp]
	imul	ecx, 484				; 000001e4H
	mov	edx, DWORD PTR $T220405[ebp]
	add	ecx, DWORD PTR [edx+4068]
	mov	DWORD PTR _pPlot$[ebp], ecx
$LN68@ConnectCit:

; 360  : 		pNode = pNode->m_pParent;

	mov	eax, DWORD PTR _pNode$[ebp]
	mov	ecx, DWORD PTR [eax+24]
	mov	DWORD PTR _pNode$[ebp], ecx

; 361  : 		if(!pPlot)

	cmp	DWORD PTR _pPlot$[ebp], 0
	jne	SHORT $LN26@ConnectCit

; 362  : 		{
; 363  : 			break;

	jmp	$LN27@ConnectCit
$LN26@ConnectCit:

; 364  : 		}
; 365  : 
; 366  : 		CvCity* pCity = pPlot->getPlotCity();

	mov	ecx, DWORD PTR _pPlot$[ebp]
	call	?getPlotCity@CvPlot@@QBEPAVCvCity@@XZ	; CvPlot::getPlotCity
	mov	DWORD PTR _pCity$217298[ebp], eax

; 367  : 		if(NULL != pCity && pCity->getTeam() == m_pPlayer->getTeam())

	cmp	DWORD PTR _pCity$217298[ebp], 0
	je	SHORT $LN25@ConnectCit
	mov	edx, DWORD PTR _this$[ebp]
	mov	eax, DWORD PTR [edx]
	mov	DWORD PTR $T220439[ebp], eax
	mov	ecx, DWORD PTR $T220439[ebp]
	mov	edx, DWORD PTR [ecx+44]
	push	edx
	call	?teamType@CvPreGame@@YA?AW4TeamTypes@@W4PlayerTypes@@@Z ; CvPreGame::teamType
	add	esp, 4
	mov	DWORD PTR $T220440[ebp], eax
	mov	ecx, DWORD PTR _pCity$217298[ebp]
	call	?getTeam@CvCity@@QBE?AW4TeamTypes@@XZ	; CvCity::getTeam
	cmp	eax, DWORD PTR $T220440[ebp]
	jne	SHORT $LN25@ConnectCit

; 368  : 		{
; 369  : 			continue;

	jmp	$LN28@ConnectCit
$LN25@ConnectCit:

; 370  : 		}
; 371  : 
; 372  : #ifdef AUI_WORKER_INCA_HILLS
; 373  : 		if (!bIncaBonusActive || !pPlot->isHills())
; 374  : 		{
; 375  : #endif
; 376  : 		if(pPlot->getRouteType() == eRoute && !pPlot->IsRoutePillaged())

	mov	ecx, DWORD PTR _pPlot$[ebp]
	call	?getRouteType@CvPlot@@QBE?AW4RouteTypes@@XZ ; CvPlot::getRouteType
	cmp	eax, DWORD PTR _eRoute$[ebp]
	jne	SHORT $LN24@ConnectCit
	mov	ecx, DWORD PTR _pPlot$[ebp]
	call	?IsRoutePillaged@CvPlot@@QBE_NXZ	; CvPlot::IsRoutePillaged
	movzx	eax, al
	test	eax, eax
	jne	SHORT $LN24@ConnectCit

; 377  : 		{
; 378  : 			// if this is already a trade route or someone else built it, we can count is as free
; 379  : 			if(pPlot->IsTradeRoute(m_pPlayer->GetID()) || pPlot->GetPlayerResponsibleForRoute() != m_pPlayer->GetID())

	mov	ecx, DWORD PTR _this$[ebp]
	mov	edx, DWORD PTR [ecx]
	mov	eax, DWORD PTR [edx+44]
	mov	DWORD PTR $T220449[ebp], eax
	mov	ecx, DWORD PTR $T220449[ebp]
	push	ecx
	mov	ecx, DWORD PTR _pPlot$[ebp]
	call	?IsTradeRoute@CvPlot@@QBE_NW4PlayerTypes@@@Z ; CvPlot::IsTradeRoute
	movzx	edx, al
	test	edx, edx
	jne	SHORT $LN22@ConnectCit
	mov	eax, DWORD PTR _this$[ebp]
	mov	ecx, DWORD PTR [eax]
	mov	edx, DWORD PTR [ecx+44]
	mov	DWORD PTR $T220458[ebp], edx
	mov	ecx, DWORD PTR _pPlot$[ebp]
	call	?GetPlayerResponsibleForRoute@CvPlot@@QBE?AW4PlayerTypes@@XZ ; CvPlot::GetPlayerResponsibleForRoute
	cmp	eax, DWORD PTR $T220458[ebp]
	je	SHORT $LN23@ConnectCit
$LN22@ConnectCit:

; 380  : 			{
; 381  : 				continue;

	jmp	$LN28@ConnectCit
$LN23@ConnectCit:

; 382  : 			}
; 383  : 			iRoadLength++;

	mov	eax, DWORD PTR _iRoadLength$[ebp]
	add	eax, 1
	mov	DWORD PTR _iRoadLength$[ebp], eax

; 384  : 		}
; 385  : 		else

	jmp	SHORT $LN21@ConnectCit
$LN24@ConnectCit:

; 386  : 		{
; 387  : 			iRoadLength++;

	mov	ecx, DWORD PTR _iRoadLength$[ebp]
	add	ecx, 1
	mov	DWORD PTR _iRoadLength$[ebp], ecx

; 388  : 			iPlotsNeeded++;

	mov	edx, DWORD PTR _iPlotsNeeded$[ebp]
	add	edx, 1
	mov	DWORD PTR _iPlotsNeeded$[ebp], edx
$LN21@ConnectCit:

; 389  : 		}
; 390  : #ifdef AUI_WORKER_INCA_HILLS
; 391  : 		}
; 392  : #endif
; 393  : 	}

	jmp	$LN28@ConnectCit
$LN27@ConnectCit:

; 394  : 
; 395  : #ifdef AUI_WORKER_INCA_HILLS
; 396  : 	int iFreeIncaRoadLength = 0;
; 397  : 	if (bIncaBonusActive)
; 398  : 	{
; 399  : 		if (iRoadLength == 0)
; 400  : 		{
; 401  : 			iRoadLength = 1;
; 402  : 			iFreeIncaRoadLength = 1;
; 403  : 		}
; 404  : 		if (iPlotsNeeded == 0)
; 405  : 		{
; 406  : 			iPlotsNeeded = 1;
; 407  : 		}
; 408  : 	}
; 409  : #endif
; 410  : 
; 411  : 	// This is very odd
; 412  : 	if(iRoadLength <= 0 || iPlotsNeeded <= 0)

	cmp	DWORD PTR _iRoadLength$[ebp], 0
	jle	SHORT $LN19@ConnectCit
	cmp	DWORD PTR _iPlotsNeeded$[ebp], 0
	jg	SHORT $LN20@ConnectCit
$LN19@ConnectCit:

; 413  : 	{
; 414  : 		return;

	jmp	$LN38@ConnectCit
$LN20@ConnectCit:

; 415  : 	}
; 416  : 
; 417  : 
; 418  : #ifdef AUI_WARNING_FIXES
; 419  : 	int sValue = -1;
; 420  : #else
; 421  : 	short sValue = -1;

	or	eax, -1
	mov	WORD PTR _sValue$[ebp], ax

; 422  : #endif
; 423  : #ifdef AUI_WORKER_FIX_CONNECT_CITIES_TO_CAPITOL_CONSIDER_MAINTENANCE_MODIFIERS
; 424  : #ifdef AUI_WORKER_INCA_HILLS
; 425  : 	int iTotalMaintenance = (iRoadLength - iFreeIncaRoadLength) * iMaintenancePerTile;
; 426  : #else
; 427  : 	int iTotalMaintenance = iRoadLength * iMaintenancePerTile;
; 428  : #endif
; 429  : 	// Player modifier
; 430  : 	iTotalMaintenance *= (100 + m_pPlayer->GetRouteGoldMaintenanceMod());
; 431  : 	iTotalMaintenance /= 100;
; 432  : 	// Handicap
; 433  : 	iTotalMaintenance *= m_pPlayer->getHandicapInfo().getRouteCostPercent();
; 434  : 	iTotalMaintenance /= 100;
; 435  : #ifdef AUI_WORKER_INCA_HILLS
; 436  : 	int iProfit = iGoldForRoute - iTotalMaintenance;
; 437  : #else
; 438  : 	int iProfit = iGoldForRoute - iTotalMaintenance;
; 439  : #endif
; 440  : #elif defined(AUI_WORKER_INCA_HILLS)
; 441  : 	int iProfit = iGoldForRoute - ((iRoadLength - iFreeIncaRoadLength) * iMaintenancePerTile);
; 442  : #else
; 443  : 	int iProfit = iGoldForRoute - (iRoadLength * iMaintenancePerTile);

	mov	ecx, DWORD PTR _iRoadLength$[ebp]
	imul	ecx, DWORD PTR _iMaintenancePerTile$[ebp]
	mov	edx, DWORD PTR _iGoldForRoute$[ebp]
	sub	edx, ecx
	mov	DWORD PTR _iProfit$[ebp], edx

; 444  : #endif
; 445  : 	if(bIndustrialRoute)

	movzx	eax, BYTE PTR _bIndustrialRoute$[ebp]
	test	eax, eax
	je	SHORT $LN18@ConnectCit

; 446  : 	{
; 447  : 		if(iProfit >= 0)

	cmp	DWORD PTR _iProfit$[ebp], 0
	jl	SHORT $LN17@ConnectCit

; 448  : 		{
; 449  : #ifdef AUI_WARNING_FIXES
; 450  : 			sValue = MAX_INT;
; 451  : #else
; 452  : 			sValue = MAX_SHORT;

	mov	ecx, 32767				; 00007fffH
	mov	WORD PTR _sValue$[ebp], cx
	jmp	SHORT $LN16@ConnectCit
$LN17@ConnectCit:

; 453  : #endif
; 454  : 		}
; 455  : 		else if(m_pPlayer->calculateGoldRate() + iProfit >= 0)

	mov	edx, DWORD PTR _this$[ebp]
	mov	ecx, DWORD PTR [edx]
	call	?calculateGoldRate@CvPlayer@@QBEHXZ	; CvPlayer::calculateGoldRate
	add	eax, DWORD PTR _iProfit$[ebp]
	js	SHORT $LN15@ConnectCit

; 456  : 		{
; 457  : 			sValue = pTargetCity->getYieldRate(YIELD_PRODUCTION, false) * GC.getINDUSTRIAL_ROUTE_PRODUCTION_MOD();

	mov	eax, DWORD PTR ?gGlobals@@3VCvGlobals@@A+6432
	mov	DWORD PTR $T220462[ebp], eax
	push	0
	push	1
	mov	ecx, DWORD PTR _pTargetCity$[ebp]
	call	?getYieldRate@CvCity@@QBEHW4YieldTypes@@_N@Z ; CvCity::getYieldRate
	imul	eax, DWORD PTR $T220462[ebp]
	mov	WORD PTR _sValue$[ebp], ax

; 458  : 		}
; 459  : 		else

	jmp	SHORT $LN16@ConnectCit
$LN15@ConnectCit:

; 460  : 		{
; 461  : 			return;

	jmp	$LN38@ConnectCit
$LN16@ConnectCit:

; 462  : 		}

	jmp	$LN13@ConnectCit
$LN18@ConnectCit:

; 463  : 	}
; 464  : 	else if(bMajorMinorConnection)

	movzx	ecx, BYTE PTR _bMajorMinorConnection$[ebp]
	test	ecx, ecx
	je	SHORT $LN12@ConnectCit

; 465  : 	{
; 466  : #ifdef AUI_WARNING_FIXES
; 467  : 		sValue = MIN(GC.getMINOR_CIV_ROUTE_QUEST_WEIGHT() / iPlotsNeeded, MAX_INT);
; 468  : #else
; 469  : 		sValue = min(GC.getMINOR_CIV_ROUTE_QUEST_WEIGHT() / iPlotsNeeded, MAX_SHORT);

	mov	DWORD PTR $T220344[ebp], 32767		; 00007fffH
	mov	edx, DWORD PTR ?gGlobals@@3VCvGlobals@@A+7840
	mov	DWORD PTR $T220466[ebp], edx
	mov	eax, DWORD PTR $T220466[ebp]
	cdq
	idiv	DWORD PTR _iPlotsNeeded$[ebp]
	mov	DWORD PTR $T220345[ebp], eax
	mov	eax, DWORD PTR $T220344[ebp]
	cmp	eax, DWORD PTR $T220345[ebp]
	jge	SHORT $LN97@ConnectCit
	lea	ecx, DWORD PTR $T220344[ebp]
	mov	DWORD PTR tv391[ebp], ecx
	jmp	SHORT $LN98@ConnectCit
$LN97@ConnectCit:
	lea	edx, DWORD PTR $T220345[ebp]
	mov	DWORD PTR tv391[ebp], edx
$LN98@ConnectCit:
	mov	eax, DWORD PTR tv391[ebp]
	mov	DWORD PTR $T220472[ebp], eax
	mov	ecx, DWORD PTR $T220472[ebp]
	mov	dx, WORD PTR [ecx]
	mov	WORD PTR _sValue$[ebp], dx

; 470  : #endif
; 471  : 	}
; 472  : 	else // normal route

	jmp	SHORT $LN13@ConnectCit
$LN12@ConnectCit:

; 473  : 	{
; 474  : 		// is this route worth building?
; 475  : 		if(iProfit < 0)

	cmp	DWORD PTR _iProfit$[ebp], 0
	jge	SHORT $LN10@ConnectCit

; 476  : 		{
; 477  : 			return;

	jmp	$LN38@ConnectCit
$LN10@ConnectCit:

; 478  : 		}
; 479  : 
; 480  : #ifdef AUI_WORKER_FIX_CONNECT_CITIES_TO_CAPITOL_CONSIDER_MAINTENANCE_MODIFIERS
; 481  : 		int iValue = iGoldForRoute * 100 * iRoadLength;
; 482  : 		if (iTotalMaintenance + iRoadLength > iFreeIncaRoadLength)
; 483  : 			iValue /= (iTotalMaintenance + iRoadLength - iFreeIncaRoadLength);
; 484  : 		iValue /= iPlotsNeeded;
; 485  : #else
; 486  : 		int iValue = (iGoldForRoute * 100) / (iRoadLength * (iMaintenancePerTile + 1));

	mov	eax, DWORD PTR _iGoldForRoute$[ebp]
	imul	eax, 100				; 00000064H
	mov	ecx, DWORD PTR _iMaintenancePerTile$[ebp]
	add	ecx, 1
	imul	ecx, DWORD PTR _iRoadLength$[ebp]
	cdq
	idiv	ecx
	mov	DWORD PTR _iValue$217324[ebp], eax

; 487  : #ifdef AUI_WORKER_INCA_HILLS
; 488  : 		iValue = (iValue * iRoadLength * (1 + iFreeIncaRoadLength * iMaintenancePerTile)) / iPlotsNeeded;
; 489  : #else
; 490  : 		iValue = (iValue * iRoadLength) / iPlotsNeeded;

	mov	eax, DWORD PTR _iValue$217324[ebp]
	imul	eax, DWORD PTR _iRoadLength$[ebp]
	cdq
	idiv	DWORD PTR _iPlotsNeeded$[ebp]
	mov	DWORD PTR _iValue$217324[ebp], eax

; 491  : #endif
; 492  : #endif
; 493  : #ifdef AUI_WARNING_FIXES
; 494  : 		sValue = MIN(iValue, MAX_INT);
; 495  : #else
; 496  : 		sValue = min(iValue, MAX_SHORT);

	mov	DWORD PTR $T220346[ebp], 32767		; 00007fffH
	mov	edx, DWORD PTR $T220346[ebp]
	cmp	edx, DWORD PTR _iValue$217324[ebp]
	jge	SHORT $LN101@ConnectCit
	lea	eax, DWORD PTR $T220346[ebp]
	mov	DWORD PTR tv239[ebp], eax
	jmp	SHORT $LN102@ConnectCit
$LN101@ConnectCit:
	lea	ecx, DWORD PTR _iValue$217324[ebp]
	mov	DWORD PTR tv239[ebp], ecx
$LN102@ConnectCit:
	mov	edx, DWORD PTR tv239[ebp]
	mov	DWORD PTR $T220481[ebp], edx
	mov	eax, DWORD PTR $T220481[ebp]
	mov	cx, WORD PTR [eax]
	mov	WORD PTR _sValue$[ebp], cx
$LN13@ConnectCit:

; 497  : #endif
; 498  : 	}
; 499  : 
; 500  : 	pPlot = NULL;

	mov	DWORD PTR _pPlot$[ebp], 0

; 501  : 	pNode = GC.GetBuildRouteFinder().GetLastNode();

	mov	ecx, OFFSET ?gGlobals@@3VCvGlobals@@A	; gGlobals
	call	?GetBuildRouteFinder@CvGlobals@@QAEAAVCvAStar@@XZ ; CvGlobals::GetBuildRouteFinder
	mov	DWORD PTR $T220488[ebp], eax
	mov	edx, DWORD PTR $T220488[ebp]
	mov	eax, DWORD PTR [edx+96]
	mov	DWORD PTR _pNode$[ebp], eax

; 502  : 
; 503  : 	int iGameTurn = GC.getGame().getGameTurn();

	mov	ecx, DWORD PTR ?gGlobals@@3VCvGlobals@@A+48
	mov	DWORD PTR $T220492[ebp], ecx
	mov	ecx, DWORD PTR $T220492[ebp]
	call	?getGameTurn@CvGame@@QAEHXZ		; CvGame::getGameTurn
	mov	DWORD PTR _iGameTurn$[ebp], eax
$LN9@ConnectCit:

; 504  : 
; 505  : 	while(pNode)

	cmp	DWORD PTR _pNode$[ebp], 0
	je	$LN38@ConnectCit

; 506  : 	{
; 507  : 		pPlot = GC.getMap().plotCheckInvalid(pNode->m_iX, pNode->m_iY);

	mov	edx, DWORD PTR ?gGlobals@@3VCvGlobals@@A+52
	mov	DWORD PTR $T220496[ebp], edx
	mov	eax, DWORD PTR _pNode$[ebp]
	movsx	ecx, WORD PTR [eax+82]
	mov	DWORD PTR $T220516[ebp], ecx
	mov	edx, DWORD PTR _pNode$[ebp]
	movsx	eax, WORD PTR [edx+80]
	mov	DWORD PTR $T220515[ebp], eax
	cmp	DWORD PTR $T220515[ebp], -2147483647	; 80000001H
	je	SHORT $LN109@ConnectCit
	cmp	DWORD PTR $T220516[ebp], -2147483647	; 80000001H
	jne	SHORT $LN110@ConnectCit
$LN109@ConnectCit:
	mov	DWORD PTR _pPlot$[ebp], 0
	jmp	SHORT $LN111@ConnectCit
$LN110@ConnectCit:
	mov	ecx, DWORD PTR $T220496[ebp]
	mov	edx, DWORD PTR [ecx+4020]
	mov	DWORD PTR $T220502[ebp], edx
	mov	eax, DWORD PTR $T220516[ebp]
	imul	eax, DWORD PTR $T220502[ebp]
	add	eax, DWORD PTR $T220515[ebp]
	imul	eax, 484				; 000001e4H
	mov	ecx, DWORD PTR $T220496[ebp]
	add	eax, DWORD PTR [ecx+4068]
	mov	DWORD PTR _pPlot$[ebp], eax
$LN111@ConnectCit:

; 508  : 		pNode = pNode->m_pParent;

	mov	edx, DWORD PTR _pNode$[ebp]
	mov	eax, DWORD PTR [edx+24]
	mov	DWORD PTR _pNode$[ebp], eax

; 509  : 
; 510  : 		if(!pPlot)

	cmp	DWORD PTR _pPlot$[ebp], 0
	jne	SHORT $LN7@ConnectCit

; 511  : 		{
; 512  : 			break;

	jmp	$LN38@ConnectCit
$LN7@ConnectCit:

; 513  : 		}
; 514  : 
; 515  : 		if(pPlot->getRouteType() == eRoute && !pPlot->IsRoutePillaged())

	mov	ecx, DWORD PTR _pPlot$[ebp]
	call	?getRouteType@CvPlot@@QBE?AW4RouteTypes@@XZ ; CvPlot::getRouteType
	cmp	eax, DWORD PTR _eRoute$[ebp]
	jne	SHORT $LN6@ConnectCit
	mov	ecx, DWORD PTR _pPlot$[ebp]
	call	?IsRoutePillaged@CvPlot@@QBE_NXZ	; CvPlot::IsRoutePillaged
	movzx	ecx, al
	test	ecx, ecx
	jne	SHORT $LN6@ConnectCit

; 516  : 		{
; 517  : 			continue;

	jmp	$LN9@ConnectCit
$LN6@ConnectCit:

; 518  : 		}
; 519  : 
; 520  : 		// if we already know about this plot, continue on
; 521  : 		if(pPlot->GetBuilderAIScratchPadTurn() == iGameTurn && pPlot->GetBuilderAIScratchPadPlayer() == m_pPlayer->GetID())

	mov	ecx, DWORD PTR _pPlot$[ebp]
	call	?GetBuilderAIScratchPadTurn@CvPlot@@QBEFXZ ; CvPlot::GetBuilderAIScratchPadTurn
	movsx	edx, ax
	cmp	edx, DWORD PTR _iGameTurn$[ebp]
	jne	SHORT $LN5@ConnectCit
	mov	eax, DWORD PTR _this$[ebp]
	mov	ecx, DWORD PTR [eax]
	mov	edx, DWORD PTR [ecx+44]
	mov	DWORD PTR $T220525[ebp], edx
	mov	ecx, DWORD PTR _pPlot$[ebp]
	call	?GetBuilderAIScratchPadPlayer@CvPlot@@QBE?AW4PlayerTypes@@XZ ; CvPlot::GetBuilderAIScratchPadPlayer
	cmp	eax, DWORD PTR $T220525[ebp]
	jne	SHORT $LN5@ConnectCit

; 522  : 		{
; 523  : 			if(sValue > pPlot->GetBuilderAIScratchPadValue())

	movsx	esi, WORD PTR _sValue$[ebp]
	mov	ecx, DWORD PTR _pPlot$[ebp]
	call	?GetBuilderAIScratchPadValue@CvPlot@@QBEFXZ ; CvPlot::GetBuilderAIScratchPadValue
	cwde
	cmp	esi, eax
	jle	SHORT $LN4@ConnectCit

; 524  : 			{
; 525  : 				pPlot->SetBuilderAIScratchPadValue(sValue);

	movzx	ecx, WORD PTR _sValue$[ebp]
	push	ecx
	mov	ecx, DWORD PTR _pPlot$[ebp]
	call	?SetBuilderAIScratchPadValue@CvPlot@@QAEXF@Z ; CvPlot::SetBuilderAIScratchPadValue

; 526  : 				pPlot->SetBuilderAIScratchPadRoute(eRoute);

	mov	edx, DWORD PTR _eRoute$[ebp]
	push	edx
	mov	ecx, DWORD PTR _pPlot$[ebp]
	call	?SetBuilderAIScratchPadRoute@CvPlot@@QAEXW4RouteTypes@@@Z ; CvPlot::SetBuilderAIScratchPadRoute
$LN4@ConnectCit:

; 527  : 			}
; 528  : 			continue;

	jmp	$LN9@ConnectCit
$LN5@ConnectCit:

; 529  : 		}
; 530  : 
; 531  : 		// mark nodes and reset values
; 532  : 		pPlot->SetBuilderAIScratchPadTurn(iGameTurn);

	movzx	eax, WORD PTR _iGameTurn$[ebp]
	push	eax
	mov	ecx, DWORD PTR _pPlot$[ebp]
	call	?SetBuilderAIScratchPadTurn@CvPlot@@QAEXF@Z ; CvPlot::SetBuilderAIScratchPadTurn

; 533  : 		pPlot->SetBuilderAIScratchPadPlayer(m_pPlayer->GetID());

	mov	ecx, DWORD PTR _this$[ebp]
	mov	edx, DWORD PTR [ecx]
	mov	eax, DWORD PTR [edx+44]
	mov	DWORD PTR $T220534[ebp], eax
	mov	ecx, DWORD PTR $T220534[ebp]
	push	ecx
	mov	ecx, DWORD PTR _pPlot$[ebp]
	call	?SetBuilderAIScratchPadPlayer@CvPlot@@QAEXW4PlayerTypes@@@Z ; CvPlot::SetBuilderAIScratchPadPlayer

; 534  : 		pPlot->SetBuilderAIScratchPadValue(sValue);

	movzx	edx, WORD PTR _sValue$[ebp]
	push	edx
	mov	ecx, DWORD PTR _pPlot$[ebp]
	call	?SetBuilderAIScratchPadValue@CvPlot@@QAEXF@Z ; CvPlot::SetBuilderAIScratchPadValue

; 535  : 		pPlot->SetBuilderAIScratchPadRoute(eRoute);

	mov	eax, DWORD PTR _eRoute$[ebp]
	push	eax
	mov	ecx, DWORD PTR _pPlot$[ebp]
	call	?SetBuilderAIScratchPadRoute@CvPlot@@QAEXW4RouteTypes@@@Z ; CvPlot::SetBuilderAIScratchPadRoute

; 536  : 
; 537  : 		// add nodes that are not in territory to extra list
; 538  : 		// minors should not build out of their borders when they are doing a major/minor connection, only when connecting their two cities
; 539  : 		if(!(m_pPlayer->isMinorCiv() && bMajorMinorConnection))

	mov	ecx, DWORD PTR _this$[ebp]
	mov	ecx, DWORD PTR [ecx]
	call	?isMinorCiv@CvPlayer@@QBE_NXZ		; CvPlayer::isMinorCiv
	movzx	edx, al
	test	edx, edx
	je	SHORT $LN2@ConnectCit
	movzx	eax, BYTE PTR _bMajorMinorConnection$[ebp]
	test	eax, eax
	jne	$LN3@ConnectCit
$LN2@ConnectCit:

; 540  : 		{
; 541  : 			if(pPlot->getOwner() != m_pPlayer->GetID())

	mov	ecx, DWORD PTR _pPlot$[ebp]
	movsx	edx, BYTE PTR [ecx+4]
	mov	DWORD PTR $T220538[ebp], edx
	mov	eax, DWORD PTR _this$[ebp]
	mov	ecx, DWORD PTR [eax]
	mov	edx, DWORD PTR [ecx+44]
	mov	DWORD PTR $T220547[ebp], edx
	mov	eax, DWORD PTR $T220538[ebp]
	cmp	eax, DWORD PTR $T220547[ebp]
	je	SHORT $LN3@ConnectCit

; 542  : 			{
; 543  : 				m_aiNonTerritoryPlots.push_back(GC.getMap().plotNum(pPlot->getX(), pPlot->getY()));

	mov	ecx, DWORD PTR _pPlot$[ebp]
	movsx	edx, WORD PTR [ecx+2]
	mov	DWORD PTR $T220551[ebp], edx
	mov	eax, DWORD PTR _pPlot$[ebp]
	movsx	ecx, WORD PTR [eax]
	mov	DWORD PTR $T220555[ebp], ecx
	mov	edx, DWORD PTR ?gGlobals@@3VCvGlobals@@A+52
	mov	DWORD PTR $T220559[ebp], edx
	mov	eax, DWORD PTR $T220559[ebp]
	mov	ecx, DWORD PTR [eax+4020]
	mov	DWORD PTR $T220564[ebp], ecx
	mov	edx, DWORD PTR $T220551[ebp]
	imul	edx, DWORD PTR $T220564[ebp]
	add	edx, DWORD PTR $T220555[ebp]
	mov	DWORD PTR $T220347[ebp], edx
	lea	eax, DWORD PTR $T220347[ebp]
	push	eax
	mov	ecx, OFFSET ?m_aiNonTerritoryPlots@CvBuilderTaskingAI@@2V?$FStaticVector@H$0EA@$00$0BCJ@$0A@@@A ; CvBuilderTaskingAI::m_aiNonTerritoryPlots
	call	?push_back@?$FStaticVector@H$0EA@$00$0BCJ@$0A@@@QAEIABH@Z ; FStaticVector<int,64,1,297,0>::push_back
$LN3@ConnectCit:

; 544  : 			}
; 545  : 		}
; 546  : 	}

	jmp	$LN9@ConnectCit
$LN38@ConnectCit:

; 547  : }

	pop	esi
	mov	esp, ebp
	pop	ebp
	ret	12					; 0000000cH
?ConnectCitiesToCapital@CvBuilderTaskingAI@@IAEXPAVCvCity@@0W4RouteTypes@@@Z ENDP ; CvBuilderTaskingAI::ConnectCitiesToCapital
_TEXT	ENDS
PUBLIC	?ConnectCitiesForScenario@CvBuilderTaskingAI@@IAEXPAVCvCity@@0W4RouteTypes@@@Z ; CvBuilderTaskingAI::ConnectCitiesForScenario
EXTRN	?IsCityConnectedToCity@CvPlayer@@QAE_NPAVCvCity@@0W4RouteTypes@@_N@Z:PROC ; CvPlayer::IsCityConnectedToCity
; Function compile flags: /Odtp
;	COMDAT ?ConnectCitiesForScenario@CvBuilderTaskingAI@@IAEXPAVCvCity@@0W4RouteTypes@@@Z
_TEXT	SEGMENT
_this$ = -168						; size = 4
$T220744 = -124						; size = 4
$T220739 = -120						; size = 4
$T220735 = -116						; size = 4
$T220731 = -112						; size = 4
$T220727 = -108						; size = 4
$T220718 = -104						; size = 4
$T220714 = -100						; size = 4
$T220705 = -96						; size = 4
$T220696 = -92						; size = 4
$T220695 = -88						; size = 4
$T220682 = -84						; size = 4
$T220676 = -80						; size = 4
$T220672 = -76						; size = 4
$T220668 = -72						; size = 4
$T220664 = -68						; size = 4
$T220663 = -64						; size = 4
$T220659 = -60						; size = 4
$T220658 = -56						; size = 4
$T220654 = -52						; size = 4
$T220653 = -48						; size = 4
$T220649 = -44						; size = 4
$T220648 = -40						; size = 4
$T220636 = -36						; size = 4
$T220627 = -32						; size = 4
$T220618 = -28						; size = 4
_pPlot$ = -24						; size = 4
_pNode$ = -20						; size = 4
_iGameTurn$ = -16					; size = 4
_iRouteValue$ = -12					; size = 4
_iPathfinderFlags$ = -8					; size = 4
_bFoundPath$ = -1					; size = 1
_pCity1$ = 8						; size = 4
_pCity2$ = 12						; size = 4
_eRoute$ = 16						; size = 4
?ConnectCitiesForScenario@CvBuilderTaskingAI@@IAEXPAVCvCity@@0W4RouteTypes@@@Z PROC ; CvBuilderTaskingAI::ConnectCitiesForScenario, COMDAT
; _this$ = ecx

; 550  : {

	push	ebp
	mov	ebp, esp
	sub	esp, 168				; 000000a8H
	mov	DWORD PTR _this$[ebp], ecx

; 551  : 	// don't connect cities from different owners
; 552  : 	if(pCity1->getOwner() != pCity2->getOwner())

	mov	eax, DWORD PTR _pCity1$[ebp]
	mov	ecx, DWORD PTR [eax+84]
	mov	DWORD PTR $T220627[ebp], ecx
	mov	edx, DWORD PTR _pCity2$[ebp]
	mov	eax, DWORD PTR [edx+84]
	mov	DWORD PTR $T220636[ebp], eax
	mov	ecx, DWORD PTR $T220627[ebp]
	cmp	ecx, DWORD PTR $T220636[ebp]
	je	SHORT $LN9@ConnectCit@2

; 553  : 	{
; 554  : 		return;

	jmp	$LN10@ConnectCit@2
$LN9@ConnectCit@2:

; 555  : 	}
; 556  : 
; 557  : 	// if we already have a connection, bail out
; 558  : 	if (m_pPlayer->IsCityConnectedToCity(pCity1, pCity2, eRoute, true))

	push	1
	mov	edx, DWORD PTR _eRoute$[ebp]
	push	edx
	mov	eax, DWORD PTR _pCity2$[ebp]
	push	eax
	mov	ecx, DWORD PTR _pCity1$[ebp]
	push	ecx
	mov	edx, DWORD PTR _this$[ebp]
	mov	ecx, DWORD PTR [edx]
	call	?IsCityConnectedToCity@CvPlayer@@QAE_NPAVCvCity@@0W4RouteTypes@@_N@Z ; CvPlayer::IsCityConnectedToCity
	movzx	eax, al
	test	eax, eax
	je	SHORT $LN22@ConnectCit@2

; 559  : 	{
; 560  : 		return;

	jmp	$LN10@ConnectCit@2

; 561  : 	}
; 562  : 
; 563  : 	// build a path between the two cities
; 564  : 	int iPathfinderFlags = m_pPlayer->GetID();

$LN22@ConnectCit@2:
	mov	ecx, DWORD PTR _this$[ebp]
	mov	edx, DWORD PTR [ecx]
	mov	eax, DWORD PTR [edx+44]
	mov	DWORD PTR _iPathfinderFlags$[ebp], eax

; 565  : 	int iRouteValue = eRoute + 1;

	mov	ecx, DWORD PTR _eRoute$[ebp]
	add	ecx, 1
	mov	DWORD PTR _iRouteValue$[ebp], ecx

; 566  : 	// assuming that there are fewer than 256 players
; 567  : 	iPathfinderFlags |= (iRouteValue << 8);

	mov	edx, DWORD PTR _iRouteValue$[ebp]
	shl	edx, 8
	or	edx, DWORD PTR _iPathfinderFlags$[ebp]
	mov	DWORD PTR _iPathfinderFlags$[ebp], edx

; 568  : 	bool bFoundPath = GC.GetBuildRouteFinder().GeneratePath(pCity1->plot()->getX(), pCity1->plot()->getY(), pCity2->plot()->getX(), pCity2->plot()->getY(), iPathfinderFlags);

	mov	ecx, DWORD PTR _pCity2$[ebp]
	call	?plot@CvCity@@QBEPAVCvPlot@@XZ		; CvCity::plot
	mov	DWORD PTR $T220648[ebp], eax
	mov	eax, DWORD PTR $T220648[ebp]
	movsx	ecx, WORD PTR [eax+2]
	mov	DWORD PTR $T220649[ebp], ecx
	mov	ecx, DWORD PTR _pCity2$[ebp]
	call	?plot@CvCity@@QBEPAVCvPlot@@XZ		; CvCity::plot
	mov	DWORD PTR $T220653[ebp], eax
	mov	edx, DWORD PTR $T220653[ebp]
	movsx	eax, WORD PTR [edx]
	mov	DWORD PTR $T220654[ebp], eax
	mov	ecx, DWORD PTR _pCity1$[ebp]
	call	?plot@CvCity@@QBEPAVCvPlot@@XZ		; CvCity::plot
	mov	DWORD PTR $T220658[ebp], eax
	mov	ecx, DWORD PTR $T220658[ebp]
	movsx	edx, WORD PTR [ecx+2]
	mov	DWORD PTR $T220659[ebp], edx
	mov	ecx, DWORD PTR _pCity1$[ebp]
	call	?plot@CvCity@@QBEPAVCvPlot@@XZ		; CvCity::plot
	mov	DWORD PTR $T220663[ebp], eax
	mov	eax, DWORD PTR $T220663[ebp]
	movsx	ecx, WORD PTR [eax]
	mov	DWORD PTR $T220664[ebp], ecx
	push	0
	mov	edx, DWORD PTR _iPathfinderFlags$[ebp]
	push	edx
	mov	eax, DWORD PTR $T220649[ebp]
	push	eax
	mov	ecx, DWORD PTR $T220654[ebp]
	push	ecx
	mov	edx, DWORD PTR $T220659[ebp]
	push	edx
	mov	eax, DWORD PTR $T220664[ebp]
	push	eax
	mov	ecx, OFFSET ?gGlobals@@3VCvGlobals@@A	; gGlobals
	call	?GetBuildRouteFinder@CvGlobals@@QAEAAVCvAStar@@XZ ; CvGlobals::GetBuildRouteFinder
	mov	ecx, eax
	call	?GeneratePath@CvAStar@@QAE_NHHHHH_N@Z	; CvAStar::GeneratePath
	mov	BYTE PTR _bFoundPath$[ebp], al

; 569  : 
; 570  : 	//  if no path, then bail!
; 571  : 	if(!bFoundPath)

	movzx	ecx, BYTE PTR _bFoundPath$[ebp]
	test	ecx, ecx
	jne	SHORT $LN7@ConnectCit@2

; 572  : 	{
; 573  : 		return;

	jmp	$LN10@ConnectCit@2
$LN7@ConnectCit@2:

; 574  : 	}
; 575  : 
; 576  : 	CvPlot* pPlot = NULL;

	mov	DWORD PTR _pPlot$[ebp], 0

; 577  : 	CvAStarNode* pNode = GC.GetBuildRouteFinder().GetLastNode();

	mov	ecx, OFFSET ?gGlobals@@3VCvGlobals@@A	; gGlobals
	call	?GetBuildRouteFinder@CvGlobals@@QAEAAVCvAStar@@XZ ; CvGlobals::GetBuildRouteFinder
	mov	DWORD PTR $T220668[ebp], eax
	mov	edx, DWORD PTR $T220668[ebp]
	mov	eax, DWORD PTR [edx+96]
	mov	DWORD PTR _pNode$[ebp], eax

; 578  : 	int iGameTurn = GC.getGame().getGameTurn();

	mov	ecx, DWORD PTR ?gGlobals@@3VCvGlobals@@A+48
	mov	DWORD PTR $T220672[ebp], ecx
	mov	ecx, DWORD PTR $T220672[ebp]
	call	?getGameTurn@CvGame@@QAEHXZ		; CvGame::getGameTurn
	mov	DWORD PTR _iGameTurn$[ebp], eax
$LN6@ConnectCit@2:

; 579  : 
; 580  : 	while(pNode)

	cmp	DWORD PTR _pNode$[ebp], 0
	je	$LN10@ConnectCit@2

; 581  : 	{
; 582  : 		pPlot = GC.getMap().plotCheckInvalid(pNode->m_iX, pNode->m_iY);

	mov	edx, DWORD PTR ?gGlobals@@3VCvGlobals@@A+52
	mov	DWORD PTR $T220676[ebp], edx
	mov	eax, DWORD PTR _pNode$[ebp]
	movsx	ecx, WORD PTR [eax+82]
	mov	DWORD PTR $T220696[ebp], ecx
	mov	edx, DWORD PTR _pNode$[ebp]
	movsx	eax, WORD PTR [edx+80]
	mov	DWORD PTR $T220695[ebp], eax
	cmp	DWORD PTR $T220695[ebp], -2147483647	; 80000001H
	je	SHORT $LN38@ConnectCit@2
	cmp	DWORD PTR $T220696[ebp], -2147483647	; 80000001H
	jne	SHORT $LN39@ConnectCit@2
$LN38@ConnectCit@2:
	mov	DWORD PTR _pPlot$[ebp], 0
	jmp	SHORT $LN40@ConnectCit@2
$LN39@ConnectCit@2:
	mov	ecx, DWORD PTR $T220676[ebp]
	mov	edx, DWORD PTR [ecx+4020]
	mov	DWORD PTR $T220682[ebp], edx
	mov	eax, DWORD PTR $T220696[ebp]
	imul	eax, DWORD PTR $T220682[ebp]
	add	eax, DWORD PTR $T220695[ebp]
	imul	eax, 484				; 000001e4H
	mov	ecx, DWORD PTR $T220676[ebp]
	add	eax, DWORD PTR [ecx+4068]
	mov	DWORD PTR _pPlot$[ebp], eax
$LN40@ConnectCit@2:

; 583  : 		pNode = pNode->m_pParent;

	mov	edx, DWORD PTR _pNode$[ebp]
	mov	eax, DWORD PTR [edx+24]
	mov	DWORD PTR _pNode$[ebp], eax

; 584  : 
; 585  : 		if(!pPlot)

	cmp	DWORD PTR _pPlot$[ebp], 0
	jne	SHORT $LN4@ConnectCit@2

; 586  : 		{
; 587  : 			break;

	jmp	$LN10@ConnectCit@2
$LN4@ConnectCit@2:

; 588  : 		}
; 589  : 
; 590  : 		if(pPlot->getRouteType() == eRoute && !pPlot->IsRoutePillaged())

	mov	ecx, DWORD PTR _pPlot$[ebp]
	call	?getRouteType@CvPlot@@QBE?AW4RouteTypes@@XZ ; CvPlot::getRouteType
	cmp	eax, DWORD PTR _eRoute$[ebp]
	jne	SHORT $LN3@ConnectCit@2
	mov	ecx, DWORD PTR _pPlot$[ebp]
	call	?IsRoutePillaged@CvPlot@@QBE_NXZ	; CvPlot::IsRoutePillaged
	movzx	ecx, al
	test	ecx, ecx
	jne	SHORT $LN3@ConnectCit@2

; 591  : 		{
; 592  : 			continue;

	jmp	$LN6@ConnectCit@2
$LN3@ConnectCit@2:

; 593  : 		}
; 594  : 
; 595  : 		// if we already know about this plot, continue on
; 596  : 		if(pPlot->GetBuilderAIScratchPadTurn() == iGameTurn && pPlot->GetBuilderAIScratchPadPlayer() == m_pPlayer->GetID())

	mov	ecx, DWORD PTR _pPlot$[ebp]
	call	?GetBuilderAIScratchPadTurn@CvPlot@@QBEFXZ ; CvPlot::GetBuilderAIScratchPadTurn
	movsx	edx, ax
	cmp	edx, DWORD PTR _iGameTurn$[ebp]
	jne	SHORT $LN2@ConnectCit@2
	mov	eax, DWORD PTR _this$[ebp]
	mov	ecx, DWORD PTR [eax]
	mov	edx, DWORD PTR [ecx+44]
	mov	DWORD PTR $T220705[ebp], edx
	mov	ecx, DWORD PTR _pPlot$[ebp]
	call	?GetBuilderAIScratchPadPlayer@CvPlot@@QBE?AW4PlayerTypes@@XZ ; CvPlot::GetBuilderAIScratchPadPlayer
	cmp	eax, DWORD PTR $T220705[ebp]
	jne	SHORT $LN2@ConnectCit@2

; 597  : 		{
; 598  : 			continue;

	jmp	$LN6@ConnectCit@2
$LN2@ConnectCit@2:

; 599  : 		}
; 600  : 
; 601  : 		// mark nodes and reset values
; 602  : 		pPlot->SetBuilderAIScratchPadTurn(iGameTurn);

	movzx	eax, WORD PTR _iGameTurn$[ebp]
	push	eax
	mov	ecx, DWORD PTR _pPlot$[ebp]
	call	?SetBuilderAIScratchPadTurn@CvPlot@@QAEXF@Z ; CvPlot::SetBuilderAIScratchPadTurn

; 603  : 		pPlot->SetBuilderAIScratchPadPlayer(m_pPlayer->GetID());

	mov	ecx, DWORD PTR _this$[ebp]
	mov	edx, DWORD PTR [ecx]
	mov	eax, DWORD PTR [edx+44]
	mov	DWORD PTR $T220714[ebp], eax
	mov	ecx, DWORD PTR $T220714[ebp]
	push	ecx
	mov	ecx, DWORD PTR _pPlot$[ebp]
	call	?SetBuilderAIScratchPadPlayer@CvPlot@@QAEXW4PlayerTypes@@@Z ; CvPlot::SetBuilderAIScratchPadPlayer

; 604  : 		pPlot->SetBuilderAIScratchPadValue(1000);

	push	1000					; 000003e8H
	mov	ecx, DWORD PTR _pPlot$[ebp]
	call	?SetBuilderAIScratchPadValue@CvPlot@@QAEXF@Z ; CvPlot::SetBuilderAIScratchPadValue

; 605  : 		pPlot->SetBuilderAIScratchPadRoute(eRoute);

	mov	edx, DWORD PTR _eRoute$[ebp]
	push	edx
	mov	ecx, DWORD PTR _pPlot$[ebp]
	call	?SetBuilderAIScratchPadRoute@CvPlot@@QAEXW4RouteTypes@@@Z ; CvPlot::SetBuilderAIScratchPadRoute

; 606  : 
; 607  : 		// add nodes that are not in territory to extra list
; 608  : 		if(pPlot->getOwner() != m_pPlayer->GetID())

	mov	eax, DWORD PTR _pPlot$[ebp]
	movsx	ecx, BYTE PTR [eax+4]
	mov	DWORD PTR $T220718[ebp], ecx
	mov	edx, DWORD PTR _this$[ebp]
	mov	eax, DWORD PTR [edx]
	mov	ecx, DWORD PTR [eax+44]
	mov	DWORD PTR $T220727[ebp], ecx
	mov	edx, DWORD PTR $T220718[ebp]
	cmp	edx, DWORD PTR $T220727[ebp]
	je	SHORT $LN1@ConnectCit@2

; 609  : 		{
; 610  : 			m_aiNonTerritoryPlots.push_back(GC.getMap().plotNum(pPlot->getX(), pPlot->getY()));

	mov	eax, DWORD PTR _pPlot$[ebp]
	movsx	ecx, WORD PTR [eax+2]
	mov	DWORD PTR $T220731[ebp], ecx
	mov	edx, DWORD PTR _pPlot$[ebp]
	movsx	eax, WORD PTR [edx]
	mov	DWORD PTR $T220735[ebp], eax
	mov	ecx, DWORD PTR ?gGlobals@@3VCvGlobals@@A+52
	mov	DWORD PTR $T220739[ebp], ecx
	mov	edx, DWORD PTR $T220739[ebp]
	mov	eax, DWORD PTR [edx+4020]
	mov	DWORD PTR $T220744[ebp], eax
	mov	ecx, DWORD PTR $T220731[ebp]
	imul	ecx, DWORD PTR $T220744[ebp]
	add	ecx, DWORD PTR $T220735[ebp]
	mov	DWORD PTR $T220618[ebp], ecx
	lea	edx, DWORD PTR $T220618[ebp]
	push	edx
	mov	ecx, OFFSET ?m_aiNonTerritoryPlots@CvBuilderTaskingAI@@2V?$FStaticVector@H$0EA@$00$0BCJ@$0A@@@A ; CvBuilderTaskingAI::m_aiNonTerritoryPlots
	call	?push_back@?$FStaticVector@H$0EA@$00$0BCJ@$0A@@@QAEIABH@Z ; FStaticVector<int,64,1,297,0>::push_back
$LN1@ConnectCit@2:

; 611  : 		}
; 612  : 	}

	jmp	$LN6@ConnectCit@2
$LN10@ConnectCit@2:

; 613  : }

	mov	esp, ebp
	pop	ebp
	ret	12					; 0000000cH
?ConnectCitiesForScenario@CvBuilderTaskingAI@@IAEXPAVCvCity@@0W4RouteTypes@@@Z ENDP ; CvBuilderTaskingAI::ConnectCitiesForScenario
_TEXT	ENDS
EXTRN	?isCapital@CvCity@@QBE_NXZ:PROC			; CvCity::isCapital
EXTRN	?GetCityFromIndex@CvCityConnections@@QAEPAVCvCity@@H@Z:PROC ; CvCityConnections::GetCityFromIndex
EXTRN	?HasTech@CvTeamTechs@@QBE_NW4TechTypes@@@Z:PROC	; CvTeamTechs::HasTech
EXTRN	?GetTeamTechs@CvTeam@@QBEPAVCvTeamTechs@@XZ:PROC ; CvTeam::GetTeamTechs
EXTRN	?m_aTeams@CvTeam@@1PAV1@A:DWORD			; CvTeam::m_aTeams
EXTRN	?getTechPrereq@CvBuildInfo@@QBEHXZ:PROC		; CvBuildInfo::getTechPrereq
EXTRN	?getRoute@CvBuildInfo@@QBEHXZ:PROC		; CvBuildInfo::getRoute
EXTRN	?AI_getUnitAIType@CvUnit@@QBE?AW4UnitAITypes@@XZ:PROC ; CvUnit::AI_getUnitAIType
EXTRN	?nextUnit@CvPlayer@@QAEPAVCvUnit@@PAH_N@Z:PROC	; CvPlayer::nextUnit
EXTRN	?firstUnit@CvPlayer@@QAEPAVCvUnit@@PAH_N@Z:PROC	; CvPlayer::firstUnit
EXTRN	?getBestRoute@CvPlayer@@QBE?AW4RouteTypes@@PAVCvPlot@@@Z:PROC ; CvPlayer::getBestRoute
EXTRN	?GetNumConnectableCities@CvCityConnections@@QAEIXZ:PROC ; CvCityConnections::GetNumConnectableCities
EXTRN	?GetCityConnections@CvPlayer@@QBEPAVCvCityConnections@@XZ:PROC ; CvPlayer::GetCityConnections
; Function compile flags: /Odtp
;	COMDAT ?UpdateRoutePlots@CvBuilderTaskingAI@@QAEXXZ
_TEXT	SEGMENT
_this$ = -108						; size = 4
$T220857 = -104						; size = 4
$T220848 = -100						; size = 4
$T220839 = -96						; size = 4
$T220835 = -92						; size = 4
$T220831 = -88						; size = 4
$T220827 = -84						; size = 4
$T220823 = -80						; size = 4
$T220822 = -76						; size = 4
_i$220809 = -72						; size = 4
_bConnectOnlyCapitals$217406 = -65			; size = 1
_pFirstCity$217400 = -64				; size = 4
_pPlayerCapitalCity$217402 = -60			; size = 4
_pTargetCity$217403 = -56				; size = 4
_pSecondCity$217401 = -52				; size = 4
_uiSecondCityIndex$217396 = -48				; size = 4
_uiFirstCityIndex$217392 = -44				; size = 4
_bHasTech$217389 = -37					; size = 1
_pkBuild$217383 = -36					; size = 4
_eRoute$217385 = -32					; size = 4
_eBuild$217381 = -28					; size = 4
_i$217377 = -24						; size = 4
_pBuilder$ = -20					; size = 4
_eBestRoute$ = -16					; size = 4
_iLoopUnit$ = -12					; size = 4
_pLoopUnit$ = -8					; size = 4
_pCityConnections$ = -4					; size = 4
?UpdateRoutePlots@CvBuilderTaskingAI@@QAEXXZ PROC	; CvBuilderTaskingAI::UpdateRoutePlots, COMDAT
; _this$ = ecx

; 617  : {

	push	ebp
	mov	ebp, esp
	sub	esp, 108				; 0000006cH
	mov	DWORD PTR _this$[ebp], ecx

; 618  : 	m_aiNonTerritoryPlots.clear();

	xor	eax, eax
	je	SHORT $LN36@UpdateRout
	mov	DWORD PTR _i$220809[ebp], 0
	jmp	SHORT $LN34@UpdateRout
$LN33@UpdateRout:
	mov	ecx, DWORD PTR _i$220809[ebp]
	add	ecx, 1
	mov	DWORD PTR _i$220809[ebp], ecx
$LN34@UpdateRout:
	mov	edx, DWORD PTR _i$220809[ebp]
	cmp	edx, DWORD PTR ?m_aiNonTerritoryPlots@CvBuilderTaskingAI@@2V?$FStaticVector@H$0EA@$00$0BCJ@$0A@@@A+4
	jae	SHORT $LN36@UpdateRout
	jmp	SHORT $LN33@UpdateRout
$LN36@UpdateRout:
	mov	DWORD PTR ?m_aiNonTerritoryPlots@CvBuilderTaskingAI@@2V?$FStaticVector@H$0EA@$00$0BCJ@$0A@@@A+4, 0

; 619  : 
; 620  : 	// if there are fewer than 2 cities, we don't need to run this function
; 621  : 	if(m_pPlayer->GetCityConnections()->GetNumConnectableCities() < 2)

	mov	eax, DWORD PTR _this$[ebp]
	mov	ecx, DWORD PTR [eax]
	call	?GetCityConnections@CvPlayer@@QBEPAVCvCityConnections@@XZ ; CvPlayer::GetCityConnections
	mov	ecx, eax
	call	?GetNumConnectableCities@CvCityConnections@@QAEIXZ ; CvCityConnections::GetNumConnectableCities
	cmp	eax, 2
	jae	SHORT $LN27@UpdateRout

; 622  : 	{
; 623  : 		return;

	jmp	$LN28@UpdateRout
$LN27@UpdateRout:

; 624  : 	}
; 625  : 
; 626  : 	RouteTypes eBestRoute = m_pPlayer->getBestRoute();

	push	0
	mov	ecx, DWORD PTR _this$[ebp]
	mov	ecx, DWORD PTR [ecx]
	call	?getBestRoute@CvPlayer@@QBE?AW4RouteTypes@@PAVCvPlot@@@Z ; CvPlayer::getBestRoute
	mov	DWORD PTR _eBestRoute$[ebp], eax

; 627  : 	if(eBestRoute == NO_ROUTE)

	cmp	DWORD PTR _eBestRoute$[ebp], -1
	jne	SHORT $LN26@UpdateRout

; 628  : 	{
; 629  : 		return;

	jmp	$LN28@UpdateRout
$LN26@UpdateRout:

; 630  : 	}
; 631  : 
; 632  : 	// find a builder, if I don't have a builder, bail!
; 633  : 	CvUnit* pBuilder = NULL;

	mov	DWORD PTR _pBuilder$[ebp], 0

; 634  : 	CvUnit* pLoopUnit;
; 635  : 	int iLoopUnit;
; 636  : 	for(pLoopUnit = m_pPlayer->firstUnit(&iLoopUnit); pLoopUnit != NULL; pLoopUnit = m_pPlayer->nextUnit(&iLoopUnit))

	push	0
	lea	edx, DWORD PTR _iLoopUnit$[ebp]
	push	edx
	mov	eax, DWORD PTR _this$[ebp]
	mov	ecx, DWORD PTR [eax]
	call	?firstUnit@CvPlayer@@QAEPAVCvUnit@@PAH_N@Z ; CvPlayer::firstUnit
	mov	DWORD PTR _pLoopUnit$[ebp], eax
	jmp	SHORT $LN25@UpdateRout
$LN24@UpdateRout:
	push	0
	lea	ecx, DWORD PTR _iLoopUnit$[ebp]
	push	ecx
	mov	edx, DWORD PTR _this$[ebp]
	mov	ecx, DWORD PTR [edx]
	call	?nextUnit@CvPlayer@@QAEPAVCvUnit@@PAH_N@Z ; CvPlayer::nextUnit
	mov	DWORD PTR _pLoopUnit$[ebp], eax
$LN25@UpdateRout:
	cmp	DWORD PTR _pLoopUnit$[ebp], 0
	je	SHORT $LN23@UpdateRout

; 637  : 	{
; 638  : 		if(pLoopUnit->AI_getUnitAIType() == UNITAI_WORKER)

	mov	ecx, DWORD PTR _pLoopUnit$[ebp]
	call	?AI_getUnitAIType@CvUnit@@QBE?AW4UnitAITypes@@XZ ; CvUnit::AI_getUnitAIType
	cmp	eax, 2
	jne	SHORT $LN22@UpdateRout

; 639  : 		{
; 640  : 			pBuilder = pLoopUnit;

	mov	eax, DWORD PTR _pLoopUnit$[ebp]
	mov	DWORD PTR _pBuilder$[ebp], eax

; 641  : 			break;

	jmp	SHORT $LN23@UpdateRout
$LN22@UpdateRout:

; 642  : 		}
; 643  : 	}

	jmp	SHORT $LN24@UpdateRout
$LN23@UpdateRout:

; 644  : 
; 645  : 	// If there's no builder, bail!
; 646  : 	if(!pBuilder)

	cmp	DWORD PTR _pBuilder$[ebp], 0
	jne	SHORT $LN21@UpdateRout

; 647  : 	{
; 648  : 		return;

	jmp	$LN28@UpdateRout
$LN21@UpdateRout:

; 649  : 	}
; 650  : 
; 651  : 	// updating plots that are part of the road network
; 652  : 	CvCityConnections* pCityConnections = m_pPlayer->GetCityConnections();

	mov	ecx, DWORD PTR _this$[ebp]
	mov	ecx, DWORD PTR [ecx]
	call	?GetCityConnections@CvPlayer@@QBEPAVCvCityConnections@@XZ ; CvPlayer::GetCityConnections
	mov	DWORD PTR _pCityConnections$[ebp], eax

; 653  : 
; 654  : #ifdef AUI_WARNING_FIXES
; 655  : 	for (uint i = 0; i < GC.getNumBuildInfos(); i++)
; 656  : #else
; 657  : 	for(int i = 0; i < GC.getNumBuildInfos(); i++)

	mov	DWORD PTR _i$217377[ebp], 0
	jmp	SHORT $LN20@UpdateRout
$LN19@UpdateRout:
	mov	edx, DWORD PTR _i$217377[ebp]
	add	edx, 1
	mov	DWORD PTR _i$217377[ebp], edx
$LN20@UpdateRout:
	mov	ecx, OFFSET ?gGlobals@@3VCvGlobals@@A	; gGlobals
	call	?getNumBuildInfos@CvGlobals@@QAEHXZ	; CvGlobals::getNumBuildInfos
	cmp	DWORD PTR _i$217377[ebp], eax
	jge	$LN28@UpdateRout

; 658  : #endif
; 659  : 	{
; 660  : 		BuildTypes eBuild = (BuildTypes)i;

	mov	eax, DWORD PTR _i$217377[ebp]
	mov	DWORD PTR _eBuild$217381[ebp], eax

; 661  : 		CvBuildInfo* pkBuild = GC.getBuildInfo(eBuild);

	mov	ecx, DWORD PTR _eBuild$217381[ebp]
	push	ecx
	mov	ecx, OFFSET ?gGlobals@@3VCvGlobals@@A	; gGlobals
	call	?getBuildInfo@CvGlobals@@QAEPAVCvBuildInfo@@W4BuildTypes@@@Z ; CvGlobals::getBuildInfo
	mov	DWORD PTR _pkBuild$217383[ebp], eax

; 662  : 		if(!pkBuild)

	cmp	DWORD PTR _pkBuild$217383[ebp], 0
	jne	SHORT $LN17@UpdateRout

; 663  : 		{
; 664  : 			continue;

	jmp	SHORT $LN19@UpdateRout
$LN17@UpdateRout:

; 665  : 		}
; 666  : 
; 667  : 		RouteTypes eRoute = (RouteTypes)pkBuild->getRoute();

	mov	ecx, DWORD PTR _pkBuild$217383[ebp]
	call	?getRoute@CvBuildInfo@@QBEHXZ		; CvBuildInfo::getRoute
	mov	DWORD PTR _eRoute$217385[ebp], eax

; 668  : 		if(eRoute == NO_ROUTE)

	cmp	DWORD PTR _eRoute$217385[ebp], -1
	jne	SHORT $LN16@UpdateRout

; 669  : 		{
; 670  : 			continue;

	jmp	SHORT $LN19@UpdateRout
$LN16@UpdateRout:

; 671  : 		}
; 672  : 
; 673  : 		if(GC.getBuildInfo(eBuild)->getTechPrereq() != NO_TECH)

	mov	edx, DWORD PTR _eBuild$217381[ebp]
	push	edx
	mov	ecx, OFFSET ?gGlobals@@3VCvGlobals@@A	; gGlobals
	call	?getBuildInfo@CvGlobals@@QAEPAVCvBuildInfo@@W4BuildTypes@@@Z ; CvGlobals::getBuildInfo
	mov	ecx, eax
	call	?getTechPrereq@CvBuildInfo@@QBEHXZ	; CvBuildInfo::getTechPrereq
	cmp	eax, -1
	je	SHORT $LN15@UpdateRout

; 674  : 		{
; 675  : 			bool bHasTech = GET_TEAM(m_pPlayer->getTeam()).GetTeamTechs()->HasTech((TechTypes)GC.getBuildInfo(eBuild)->getTechPrereq());

	mov	eax, DWORD PTR _this$[ebp]
	mov	ecx, DWORD PTR [eax]
	mov	DWORD PTR $T220822[ebp], ecx
	mov	edx, DWORD PTR $T220822[ebp]
	mov	eax, DWORD PTR [edx+44]
	push	eax
	call	?teamType@CvPreGame@@YA?AW4TeamTypes@@W4PlayerTypes@@@Z ; CvPreGame::teamType
	add	esp, 4
	mov	DWORD PTR $T220823[ebp], eax
	mov	ecx, DWORD PTR $T220823[ebp]
	imul	ecx, 2984				; 00000ba8H
	add	ecx, DWORD PTR ?m_aTeams@CvTeam@@1PAV1@A ; CvTeam::m_aTeams
	mov	DWORD PTR $T220827[ebp], ecx
	mov	edx, DWORD PTR _eBuild$217381[ebp]
	push	edx
	mov	ecx, OFFSET ?gGlobals@@3VCvGlobals@@A	; gGlobals
	call	?getBuildInfo@CvGlobals@@QAEPAVCvBuildInfo@@W4BuildTypes@@@Z ; CvGlobals::getBuildInfo
	mov	ecx, eax
	call	?getTechPrereq@CvBuildInfo@@QBEHXZ	; CvBuildInfo::getTechPrereq
	push	eax
	mov	ecx, DWORD PTR $T220827[ebp]
	call	?GetTeamTechs@CvTeam@@QBEPAVCvTeamTechs@@XZ ; CvTeam::GetTeamTechs
	mov	ecx, eax
	call	?HasTech@CvTeamTechs@@QBE_NW4TechTypes@@@Z ; CvTeamTechs::HasTech
	mov	BYTE PTR _bHasTech$217389[ebp], al

; 676  : 			if(!bHasTech)

	movzx	eax, BYTE PTR _bHasTech$217389[ebp]
	test	eax, eax
	jne	SHORT $LN15@UpdateRout

; 677  : 			{
; 678  : 				continue;

	jmp	$LN19@UpdateRout
$LN15@UpdateRout:

; 679  : 			}
; 680  : 		}
; 681  : 
; 682  : 		for(uint uiFirstCityIndex = 0; uiFirstCityIndex < pCityConnections->m_aiCityPlotIDs.size(); uiFirstCityIndex++)

	mov	DWORD PTR _uiFirstCityIndex$217392[ebp], 0
	jmp	SHORT $LN13@UpdateRout
$LN12@UpdateRout:
	mov	ecx, DWORD PTR _uiFirstCityIndex$217392[ebp]
	add	ecx, 1
	mov	DWORD PTR _uiFirstCityIndex$217392[ebp], ecx
$LN13@UpdateRout:
	mov	edx, DWORD PTR _pCityConnections$[ebp]
	mov	eax, DWORD PTR [edx+16]
	mov	DWORD PTR $T220831[ebp], eax
	mov	ecx, DWORD PTR _uiFirstCityIndex$217392[ebp]
	cmp	ecx, DWORD PTR $T220831[ebp]
	jae	$LN11@UpdateRout

; 683  : 		{
; 684  : 			for(uint uiSecondCityIndex = uiFirstCityIndex + 1; uiSecondCityIndex < pCityConnections->m_aiCityPlotIDs.size(); uiSecondCityIndex++)

	mov	edx, DWORD PTR _uiFirstCityIndex$217392[ebp]
	add	edx, 1
	mov	DWORD PTR _uiSecondCityIndex$217396[ebp], edx
	jmp	SHORT $LN10@UpdateRout
$LN9@UpdateRout:
	mov	eax, DWORD PTR _uiSecondCityIndex$217396[ebp]
	add	eax, 1
	mov	DWORD PTR _uiSecondCityIndex$217396[ebp], eax
$LN10@UpdateRout:
	mov	ecx, DWORD PTR _pCityConnections$[ebp]
	mov	edx, DWORD PTR [ecx+16]
	mov	DWORD PTR $T220835[ebp], edx
	mov	eax, DWORD PTR _uiSecondCityIndex$217396[ebp]
	cmp	eax, DWORD PTR $T220835[ebp]
	jae	$LN8@UpdateRout

; 685  : 			{
; 686  : 				// get the two cities
; 687  : 				CvCity* pFirstCity  = pCityConnections->GetCityFromIndex(uiFirstCityIndex);

	mov	ecx, DWORD PTR _uiFirstCityIndex$217392[ebp]
	push	ecx
	mov	ecx, DWORD PTR _pCityConnections$[ebp]
	call	?GetCityFromIndex@CvCityConnections@@QAEPAVCvCity@@H@Z ; CvCityConnections::GetCityFromIndex
	mov	DWORD PTR _pFirstCity$217400[ebp], eax

; 688  : 				CvCity* pSecondCity = pCityConnections->GetCityFromIndex(uiSecondCityIndex);

	mov	edx, DWORD PTR _uiSecondCityIndex$217396[ebp]
	push	edx
	mov	ecx, DWORD PTR _pCityConnections$[ebp]
	call	?GetCityFromIndex@CvCityConnections@@QAEPAVCvCity@@H@Z ; CvCityConnections::GetCityFromIndex
	mov	DWORD PTR _pSecondCity$217401[ebp], eax

; 689  : 				CvCity* pPlayerCapitalCity = NULL;

	mov	DWORD PTR _pPlayerCapitalCity$217402[ebp], 0

; 690  : 				CvCity* pTargetCity = NULL;

	mov	DWORD PTR _pTargetCity$217403[ebp], 0

; 691  : 
; 692  : 				if(!pFirstCity || !pSecondCity)

	cmp	DWORD PTR _pFirstCity$217400[ebp], 0
	je	SHORT $LN6@UpdateRout
	cmp	DWORD PTR _pSecondCity$217401[ebp], 0
	jne	SHORT $LN7@UpdateRout
$LN6@UpdateRout:

; 693  : 				{
; 694  : 					continue;

	jmp	SHORT $LN9@UpdateRout
$LN7@UpdateRout:

; 695  : 				}
; 696  : 
; 697  : 				bool bConnectOnlyCapitals = (bool)GC.getCITY_CONNECTIONS_CONNECT_TO_CAPITAL();

	mov	eax, DWORD PTR ?gGlobals@@3VCvGlobals@@A+8188
	mov	DWORD PTR $T220839[ebp], eax
	cmp	DWORD PTR $T220839[ebp], 0
	setne	cl
	mov	BYTE PTR _bConnectOnlyCapitals$217406[ebp], cl

; 698  : 				if (bConnectOnlyCapitals)

	movzx	edx, BYTE PTR _bConnectOnlyCapitals$217406[ebp]
	test	edx, edx
	je	SHORT $LN5@UpdateRout

; 699  : 				{
; 700  : 					// only need to build roads to the capital
; 701  : 					if(!pFirstCity->isCapital() && !pSecondCity->isCapital())

	mov	ecx, DWORD PTR _pFirstCity$217400[ebp]
	call	?isCapital@CvCity@@QBE_NXZ		; CvCity::isCapital
	movzx	eax, al
	test	eax, eax
	jne	SHORT $LN4@UpdateRout
	mov	ecx, DWORD PTR _pSecondCity$217401[ebp]
	call	?isCapital@CvCity@@QBE_NXZ		; CvCity::isCapital
	movzx	ecx, al
	test	ecx, ecx
	jne	SHORT $LN4@UpdateRout

; 702  : 					{
; 703  : 						continue;

	jmp	$LN9@UpdateRout
$LN4@UpdateRout:

; 704  : 					}
; 705  : 
; 706  : 					if(pFirstCity->isCapital() && pFirstCity->getOwner() == m_pPlayer->GetID())

	mov	ecx, DWORD PTR _pFirstCity$217400[ebp]
	call	?isCapital@CvCity@@QBE_NXZ		; CvCity::isCapital
	movzx	edx, al
	test	edx, edx
	je	SHORT $LN3@UpdateRout
	mov	eax, DWORD PTR _pFirstCity$217400[ebp]
	mov	ecx, DWORD PTR [eax+84]
	mov	DWORD PTR $T220848[ebp], ecx
	mov	edx, DWORD PTR _this$[ebp]
	mov	eax, DWORD PTR [edx]
	mov	ecx, DWORD PTR [eax+44]
	mov	DWORD PTR $T220857[ebp], ecx
	mov	edx, DWORD PTR $T220848[ebp]
	cmp	edx, DWORD PTR $T220857[ebp]
	jne	SHORT $LN3@UpdateRout

; 707  : 					{
; 708  : 						pPlayerCapitalCity = pFirstCity;

	mov	eax, DWORD PTR _pFirstCity$217400[ebp]
	mov	DWORD PTR _pPlayerCapitalCity$217402[ebp], eax

; 709  : 						pTargetCity = pSecondCity;

	mov	ecx, DWORD PTR _pSecondCity$217401[ebp]
	mov	DWORD PTR _pTargetCity$217403[ebp], ecx

; 710  : 					}
; 711  : 					else

	jmp	SHORT $LN2@UpdateRout
$LN3@UpdateRout:

; 712  : 					{
; 713  : 						pPlayerCapitalCity = pSecondCity;

	mov	edx, DWORD PTR _pSecondCity$217401[ebp]
	mov	DWORD PTR _pPlayerCapitalCity$217402[ebp], edx

; 714  : 						pTargetCity = pFirstCity;

	mov	eax, DWORD PTR _pFirstCity$217400[ebp]
	mov	DWORD PTR _pTargetCity$217403[ebp], eax
$LN2@UpdateRout:

; 715  : 					}
; 716  : 					ConnectCitiesToCapital(pPlayerCapitalCity, pTargetCity, eRoute);

	mov	ecx, DWORD PTR _eRoute$217385[ebp]
	push	ecx
	mov	edx, DWORD PTR _pTargetCity$217403[ebp]
	push	edx
	mov	eax, DWORD PTR _pPlayerCapitalCity$217402[ebp]
	push	eax
	mov	ecx, DWORD PTR _this$[ebp]
	call	?ConnectCitiesToCapital@CvBuilderTaskingAI@@IAEXPAVCvCity@@0W4RouteTypes@@@Z ; CvBuilderTaskingAI::ConnectCitiesToCapital

; 717  : 				}
; 718  : 				else

	jmp	SHORT $LN1@UpdateRout
$LN5@UpdateRout:

; 719  : 				{
; 720  : 					ConnectCitiesForScenario(pFirstCity, pSecondCity, eBestRoute);

	mov	ecx, DWORD PTR _eBestRoute$[ebp]
	push	ecx
	mov	edx, DWORD PTR _pSecondCity$217401[ebp]
	push	edx
	mov	eax, DWORD PTR _pFirstCity$217400[ebp]
	push	eax
	mov	ecx, DWORD PTR _this$[ebp]
	call	?ConnectCitiesForScenario@CvBuilderTaskingAI@@IAEXPAVCvCity@@0W4RouteTypes@@@Z ; CvBuilderTaskingAI::ConnectCitiesForScenario
$LN1@UpdateRout:

; 721  : 				}
; 722  : 			}

	jmp	$LN9@UpdateRout
$LN8@UpdateRout:

; 723  : 		}

	jmp	$LN12@UpdateRout
$LN11@UpdateRout:

; 724  : 	}

	jmp	$LN19@UpdateRout
$LN28@UpdateRout:

; 725  : }

	mov	esp, ebp
	pop	ebp
	ret	0
?UpdateRoutePlots@CvBuilderTaskingAI@@QAEXXZ ENDP	; CvBuilderTaskingAI::UpdateRoutePlots
_TEXT	ENDS
PUBLIC	?CorrectWeight@@YAHH@Z				; CorrectWeight
; Function compile flags: /Odtp
;	COMDAT ?CorrectWeight@@YAHH@Z
_TEXT	SEGMENT
_iWeight$ = 8						; size = 4
?CorrectWeight@@YAHH@Z PROC				; CorrectWeight, COMDAT

; 728  : {

	push	ebp
	mov	ebp, esp

; 729  : 	if(iWeight < -1000)

	cmp	DWORD PTR _iWeight$[ebp], -1000		; fffffc18H
	jge	SHORT $LN2@CorrectWei

; 730  : 	{
; 731  : 		return MAX_INT;

	mov	eax, 2147483647				; 7fffffffH
	jmp	SHORT $LN3@CorrectWei

; 732  : 	}
; 733  : 	else

	jmp	SHORT $LN3@CorrectWei
$LN2@CorrectWei:

; 734  : 	{
; 735  : 		return iWeight;

	mov	eax, DWORD PTR _iWeight$[ebp]
$LN3@CorrectWei:

; 736  : 	}
; 737  : }

	pop	ebp
	ret	0
?CorrectWeight@@YAHH@Z ENDP				; CorrectWeight
_TEXT	ENDS
PUBLIC	?LogDirective@CvBuilderTaskingAI@@IAEXUBuilderDirective@@PAVCvUnit@@H_N@Z ; CvBuilderTaskingAI::LogDirective
PUBLIC	?LogDirectives@CvBuilderTaskingAI@@IAEXPAVCvUnit@@@Z ; CvBuilderTaskingAI::LogDirectives
PUBLIC	??$_Stable_sort@PAUWeightedElement@?$CvWeightedVector@UBuilderDirective@@$0GE@$00@@HU12@@std@@YAXPAUWeightedElement@?$CvWeightedVector@UBuilderDirective@@$0GE@$00@@0PAH0@Z ; std::_Stable_sort<CvWeightedVector<BuilderDirective,100,1>::WeightedElement *,int,CvWeightedVector<BuilderDirective,100,1>::WeightedElement>
PUBLIC	??_C@_0CO@EDMNELMA@x?3?5?$CFd?5y?3?5?$CFd?0?5Evaluating?5out?5of?5t@ ; `string'
PUBLIC	??_C@_0FM@LMGJIHMD@unitx?3?5?$CFd?5unity?3?5?$CFd?0?5plotx?3?5?$CFd?5p@ ; `string'
PUBLIC	?AddScrubFalloutDirectives@CvBuilderTaskingAI@@QAEXPAVCvUnit@@PAVCvPlot@@H@Z ; CvBuilderTaskingAI::AddScrubFalloutDirectives
PUBLIC	?AddChopDirectives@CvBuilderTaskingAI@@QAEXPAVCvUnit@@PAVCvPlot@@H@Z ; CvBuilderTaskingAI::AddChopDirectives
PUBLIC	?AddImprovingPlotsDirectives@CvBuilderTaskingAI@@QAEXPAVCvUnit@@PAVCvPlot@@H@Z ; CvBuilderTaskingAI::AddImprovingPlotsDirectives
PUBLIC	?AddImprovingResourcesDirectives@CvBuilderTaskingAI@@QAEXPAVCvUnit@@PAVCvPlot@@H@Z ; CvBuilderTaskingAI::AddImprovingResourcesDirectives
PUBLIC	?AddRouteDirectives@CvBuilderTaskingAI@@QAEXPAVCvUnit@@PAVCvPlot@@H@Z ; CvBuilderTaskingAI::AddRouteDirectives
PUBLIC	?UpdateCurrentPlotYields@CvBuilderTaskingAI@@IAEXPAVCvPlot@@@Z ; CvBuilderTaskingAI::UpdateCurrentPlotYields
PUBLIC	??_C@_0DK@KAPAIHN@unitx?3?5?$CFd?5unity?3?5?$CFd?0?5plotx?3?5?$CFd?5p@ ; `string'
PUBLIC	?FindTurnsAway@CvBuilderTaskingAI@@QAEHPAVCvUnit@@PAVCvPlot@@@Z ; CvBuilderTaskingAI::FindTurnsAway
PUBLIC	?ShouldBuilderConsiderPlot@CvBuilderTaskingAI@@QAE_NPAVCvUnit@@PAVCvPlot@@@Z ; CvBuilderTaskingAI::ShouldBuilderConsiderPlot
PUBLIC	??_C@_0BB@JIJICDOP@end?5of?5plot?5list?$AA@	; `string'
PUBLIC	??4?$FStaticVector@H$0DJAA@$00$0BCJ@$0A@@@QAEXABV0@@Z ; FStaticVector<int,14592,1,297,0>::operator=
PUBLIC	?push_back@?$FStaticVector@H$0DJAA@$00$0BCJ@$0A@@@QAEIABH@Z ; FStaticVector<int,14592,1,297,0>::push_back
PUBLIC	__$ArrayPad$
PUBLIC	?EvaluateBuilder@CvBuilderTaskingAI@@QAE_NPAVCvUnit@@PAUBuilderDirective@@I_N2@Z ; CvBuilderTaskingAI::EvaluateBuilder
EXTRN	?TurnsToReachTarget@@YAHV?$FObjectHandle@VCvUnit@@@@PAVCvPlot@@_N22@Z:PROC ; TurnsToReachTarget
EXTRN	?getDestructionNotification@CvUnit@@QAEAAU?$DestructionNotification@V?$FObjectHandle@VCvUnit@@@@@@XZ:PROC ; CvUnit::getDestructionNotification
EXTRN	?GetPlots@CvPlayer@@QAEAAV?$FStaticVector@H$0DJAA@$00$0BCJ@$0A@@@XZ:PROC ; CvPlayer::GetPlots
EXTRN	?GetPlotIndex@CvPlot@@QBEHXZ:PROC		; CvPlot::GetPlotIndex
EXTRN	?plot@CvUnit@@QBEPAVCvPlot@@XZ:PROC		; CvUnit::plot
EXTRN	?getBuildType@CvUnit@@QBE?AW4BuildTypes@@XZ:PROC ; CvUnit::getBuildType
;	COMDAT ??_C@_0CO@EDMNELMA@x?3?5?$CFd?5y?3?5?$CFd?0?5Evaluating?5out?5of?5t@
; File d:\sources\lekmod_git\checkout\lekmod_dll\fireplace\include\fireworks\ffastvector.h
CONST	SEGMENT
??_C@_0CO@EDMNELMA@x?3?5?$CFd?5y?3?5?$CFd?0?5Evaluating?5out?5of?5t@ DB 'x'
	DB	': %d y: %d, Evaluating out of territory plot', 00H ; `string'
CONST	ENDS
;	COMDAT ??_C@_0FM@LMGJIHMD@unitx?3?5?$CFd?5unity?3?5?$CFd?0?5plotx?3?5?$CFd?5p@
CONST	SEGMENT
??_C@_0FM@LMGJIHMD@unitx?3?5?$CFd?5unity?3?5?$CFd?0?5plotx?3?5?$CFd?5p@ DB 'u'
	DB	'nitx: %d unity: %d, plotx: %d ploty: %d, Evaluating out of te'
	DB	'rritory plot, can''t find path', 00H	; `string'
CONST	ENDS
;	COMDAT ??_C@_0DK@KAPAIHN@unitx?3?5?$CFd?5unity?3?5?$CFd?0?5plotx?3?5?$CFd?5p@
CONST	SEGMENT
??_C@_0DK@KAPAIHN@unitx?3?5?$CFd?5unity?3?5?$CFd?0?5plotx?3?5?$CFd?5p@ DB 'u'
	DB	'nitx: %d unity: %d, plotx: %d ploty: %d, can''t find path', 00H ; `string'
CONST	ENDS
;	COMDAT ??_C@_0BB@JIJICDOP@end?5of?5plot?5list?$AA@
CONST	SEGMENT
??_C@_0BB@JIJICDOP@end?5of?5plot?5list?$AA@ DB 'end of plot list', 00H ; `string'
CONST	ENDS
;	COMDAT xdata$x
xdata$x	SEGMENT
__unwindtable$?EvaluateBuilder@CvBuilderTaskingAI@@QAE_NPAVCvUnit@@PAUBuilderDirective@@I_N2@Z DD 0ffffffffH
	DD	FLAT:__unwindfunclet$?EvaluateBuilder@CvBuilderTaskingAI@@QAE_NPAVCvUnit@@PAUBuilderDirective@@I_N2@Z$0
	DD	0ffffffffH
	DD	FLAT:__unwindfunclet$?EvaluateBuilder@CvBuilderTaskingAI@@QAE_NPAVCvUnit@@PAUBuilderDirective@@I_N2@Z$2
	DD	0ffffffffH
	DD	FLAT:__unwindfunclet$?EvaluateBuilder@CvBuilderTaskingAI@@QAE_NPAVCvUnit@@PAUBuilderDirective@@I_N2@Z$4
	DD	0ffffffffH
	DD	FLAT:__unwindfunclet$?EvaluateBuilder@CvBuilderTaskingAI@@QAE_NPAVCvUnit@@PAUBuilderDirective@@I_N2@Z$6
__ehfuncinfo$?EvaluateBuilder@CvBuilderTaskingAI@@QAE_NPAVCvUnit@@PAUBuilderDirective@@I_N2@Z DD 019930522H
	DD	04H
	DD	FLAT:__unwindtable$?EvaluateBuilder@CvBuilderTaskingAI@@QAE_NPAVCvUnit@@PAUBuilderDirective@@I_N2@Z
	DD	2 DUP(00H)
	DD	2 DUP(00H)
	DD	00H
	DD	01H
; Function compile flags: /Odtp
; File d:\sources\lekmod_git\checkout\lekmod_dll\cvgamecoredll_expansion2\cvbuildertaskingai.cpp
xdata$x	ENDS
;	COMDAT ?EvaluateBuilder@CvBuilderTaskingAI@@QAE_NPAVCvUnit@@PAUBuilderDirective@@I_N2@Z
_TEXT	SEGMENT
tv487 = -552						; size = 4
tv486 = -548						; size = 4
tv859 = -544						; size = 4
tv874 = -540						; size = 4
tv480 = -536						; size = 4
tv475 = -532						; size = 4
tv694 = -528						; size = 4
tv470 = -524						; size = 4
tv652 = -520						; size = 4
tv465 = -516						; size = 4
tv594 = -512						; size = 4
_this$ = -508						; size = 4
$T221390 = -504						; size = 4
_elem$221373 = -500					; size = 24
_elem$221356 = -476					; size = 24
$T221335 = -452						; size = 4
$T221325 = -448						; size = 4
$T221324 = -444						; size = 4
$T221279 = -440						; size = 4
$T221266 = -436						; size = 4
$T221262 = -432						; size = 4
$T221248 = -428						; size = 4
$T221244 = -421						; size = 1
$T221233 = -420						; size = 4
$T221229 = -413						; size = 1
_iMapY$221323 = -412					; size = 4
_iMapX$221322 = -408					; size = 4
$T221222 = -404						; size = 4
$T221218 = -400						; size = 4
$T221209 = -396						; size = 4
$T221196 = -392						; size = 4
$T221178 = -388						; size = 4
$T221140 = -352						; size = 4
$T221131 = -348						; size = 4
$T221123 = -344						; size = 4
$T221111 = -340						; size = 4
$T221106 = -336						; size = 4
$T221097 = -332						; size = 4
$T221088 = -328						; size = 4
$T221084 = -324						; size = 4
$T221076 = -320						; size = 4
$T221069 = -316						; size = 4
$T221062 = -312						; size = 4
$T221058 = -308						; size = 4
$T221054 = -304						; size = 4
$T221046 = -300						; size = 4
$T221041 = -296						; size = 4
$T221032 = -292						; size = 4
$T221023 = -288						; size = 4
$T221019 = -284						; size = 4
$T221011 = -280						; size = 4
$T221004 = -276						; size = 4
$T220997 = -272						; size = 4
$T220993 = -268						; size = 4
$T220985 = -264						; size = 4
$T220969 = -260						; size = 4
$T220957 = -252						; size = 4
$T220948 = -248						; size = 4
$T220944 = -244						; size = 4
_i$220939 = -240					; size = 4
$T220925 = -236						; size = 4
$T220916 = -232						; size = 4
_i$220903 = -228					; size = 4
$T220868 = -224						; size = 4
$T220867 = -220						; size = 4
$T220866 = -216						; size = 4
$T220865 = -212						; size = 4
$T220864 = -208						; size = 4
$T220863 = -204						; size = 4
_iWeight$217486 = -200					; size = 4
_pTarget$217480 = -196					; size = 4
_directive$217488 = -192				; size = 20
_i$217476 = -172					; size = 4
_strLog$217471 = -168					; size = 28
_strLog$217467 = -140					; size = 28
_pPlot$217459 = -112					; size = 4
_iMoveTurnsAway$217464 = -108				; size = 4
_ui$217455 = -104					; size = 4
_strLog$217451 = -100					; size = 28
_strLog$217443 = -72					; size = 28
__$ArrayPad$ = -44					; size = 4
_pPlot$217446 = -40					; size = 4
_iMoveTurnsAway$217448 = -36				; size = 4
_uiPlotIndex$217437 = -32				; size = 4
_eOwner$217433 = -28					; size = 4
_ui$217427 = -24					; size = 4
_iBestWeight$ = -20					; size = 4
_iAssignIndex$ = -16					; size = 4
__$EHRec$ = -12						; size = 12
_pUnit$ = 8						; size = 4
_paDirectives$ = 12					; size = 4
_uaDirectives$ = 16					; size = 4
_bOnlyKeepBest$ = 20					; size = 1
_bOnlyEvaluateWorkersPlot$ = 24				; size = 1
?EvaluateBuilder@CvBuilderTaskingAI@@QAE_NPAVCvUnit@@PAUBuilderDirective@@I_N2@Z PROC ; CvBuilderTaskingAI::EvaluateBuilder, COMDAT
; _this$ = ecx

; 741  : {

	push	ebp
	mov	ebp, esp
	push	-1
	push	__ehhandler$?EvaluateBuilder@CvBuilderTaskingAI@@QAE_NPAVCvUnit@@PAUBuilderDirective@@I_N2@Z
	mov	eax, DWORD PTR fs:0
	push	eax
	sub	esp, 540				; 0000021cH
	mov	eax, DWORD PTR ___security_cookie
	xor	eax, ebp
	mov	DWORD PTR __$ArrayPad$[ebp], eax
	push	eax
	lea	eax, DWORD PTR __$EHRec$[ebp]
	mov	DWORD PTR fs:0, eax
	mov	DWORD PTR _this$[ebp], ecx

; 742  : 	// number of cities has changed mid-turn, so we need to re-evaluate what workers should do
; 743  : 	if(m_pPlayer->getNumCities() != m_iNumCities)

	mov	eax, DWORD PTR _this$[ebp]
	mov	ecx, DWORD PTR [eax]
	call	?getNumCities@CvPlayer@@QBEHXZ		; CvPlayer::getNumCities
	mov	ecx, DWORD PTR _this$[ebp]
	cmp	eax, DWORD PTR [ecx+58396]
	je	SHORT $LN40@EvaluateBu

; 744  : 	{
; 745  : 		Update();

	mov	ecx, DWORD PTR _this$[ebp]
	call	?Update@CvBuilderTaskingAI@@QAEXXZ	; CvBuilderTaskingAI::Update
$LN40@EvaluateBu:

; 746  : 	}
; 747  : 
; 748  : 	CvAssertMsg(uaDirectives > 0, "Need more than one directive");
; 749  : 
; 750  : 	for(uint ui = 0; ui < uaDirectives; ui++)

	mov	DWORD PTR _ui$217427[ebp], 0
	jmp	SHORT $LN39@EvaluateBu
$LN38@EvaluateBu:
	mov	edx, DWORD PTR _ui$217427[ebp]
	add	edx, 1
	mov	DWORD PTR _ui$217427[ebp], edx
$LN39@EvaluateBu:
	mov	eax, DWORD PTR _ui$217427[ebp]
	cmp	eax, DWORD PTR _uaDirectives$[ebp]
	jae	SHORT $LN37@EvaluateBu

; 751  : 	{
; 752  : 		paDirectives[ui].m_eDirective = BuilderDirective::NUM_DIRECTIVES;

	mov	ecx, DWORD PTR _ui$217427[ebp]
	imul	ecx, 20					; 00000014H
	mov	edx, DWORD PTR _paDirectives$[ebp]
	mov	DWORD PTR [edx+ecx], 6

; 753  : 	}

	jmp	SHORT $LN38@EvaluateBu
$LN37@EvaluateBu:

; 754  : 
; 755  : 	m_aDirectives.clear();

	xor	eax, eax
	je	SHORT $LN60@EvaluateBu
	mov	DWORD PTR _i$220903[ebp], 0
	jmp	SHORT $LN58@EvaluateBu
$LN57@EvaluateBu:
	mov	ecx, DWORD PTR _i$220903[ebp]
	add	ecx, 1
	mov	DWORD PTR _i$220903[ebp], ecx
$LN58@EvaluateBu:
	mov	edx, DWORD PTR _i$220903[ebp]
	cmp	edx, DWORD PTR ?m_aDirectives@CvBuilderTaskingAI@@2V?$CvWeightedVector@UBuilderDirective@@$0GE@$00@@A+4
	jae	SHORT $LN60@EvaluateBu
	jmp	SHORT $LN57@EvaluateBu
$LN60@EvaluateBu:
	mov	DWORD PTR ?m_aDirectives@CvBuilderTaskingAI@@2V?$CvWeightedVector@UBuilderDirective@@$0GE@$00@@A+4, 0

; 756  : 
; 757  : 	// check for no brainer bail-outs
; 758  : 	// if the builder is already building something
; 759  : #ifdef AUI_WORKER_EVALUATE_WORKER_RETREAT_AND_BUILD
; 760  : #ifdef AUI_DANGER_PLOTS_REMADE
; 761  : 	if (pUnit->getBuildType() != NO_BUILD && pUnit->GetCurrHitPoints() > m_pPlayer->GetPlotDanger(*pUnit->plot(), pUnit))
; 762  : #elif defined(AUI_WORKER_SHOULD_BUILDER_CONSIDER_PLOT_MAXIMUM_DANGER_BASED_ON_UNIT_STRENGTH)
; 763  : 	if (pUnit->getBuildType() != NO_BUILD && 
; 764  : 		((pUnit->IsCombatUnit() && pUnit->GetBaseCombatStrengthConsideringDamage() * AUI_WORKER_SHOULD_BUILDER_CONSIDER_PLOT_MAXIMUM_DANGER_BASED_ON_UNIT_STRENGTH > m_pPlayer->GetPlotDanger(*pUnit->plot())) ||
; 765  : 		(!pUnit->IsCombatUnit() && !m_pPlayer->IsPlotUnderImmediateThreat(*pUnit->plot()))))
; 766  : #else
; 767  : 	if (pUnit->getBuildType() != NO_BUILD && !m_pPlayer->IsPlotUnderImmediateThreat(*pUnit->plot())))
; 768  : #endif
; 769  : #else
; 770  : 	if(pUnit->getBuildType() != NO_BUILD)

	mov	ecx, DWORD PTR _pUnit$[ebp]
	call	?getBuildType@CvUnit@@QBE?AW4BuildTypes@@XZ ; CvUnit::getBuildType
	cmp	eax, -1
	je	SHORT $LN36@EvaluateBu

; 771  : #endif
; 772  : 	{
; 773  : 		paDirectives[0].m_eDirective = BuilderDirective::BUILD_IMPROVEMENT;

	mov	eax, DWORD PTR _paDirectives$[ebp]
	mov	DWORD PTR [eax], 1

; 774  : 		paDirectives[0].m_eBuild = pUnit->getBuildType();

	mov	ecx, DWORD PTR _pUnit$[ebp]
	call	?getBuildType@CvUnit@@QBE?AW4BuildTypes@@XZ ; CvUnit::getBuildType
	mov	ecx, DWORD PTR _paDirectives$[ebp]
	mov	DWORD PTR [ecx+4], eax

; 775  : 		paDirectives[0].m_sX = pUnit->getX();

	mov	edx, DWORD PTR _pUnit$[ebp]
	mov	eax, DWORD PTR [edx+76]
	mov	DWORD PTR $T220916[ebp], eax
	mov	ecx, DWORD PTR _paDirectives$[ebp]
	mov	dx, WORD PTR $T220916[ebp]
	mov	WORD PTR [ecx+12], dx

; 776  : 		paDirectives[0].m_sY = pUnit->getY();

	mov	eax, DWORD PTR _pUnit$[ebp]
	mov	ecx, DWORD PTR [eax+88]
	mov	DWORD PTR $T220925[ebp], ecx
	mov	edx, DWORD PTR _paDirectives$[ebp]
	mov	ax, WORD PTR $T220925[ebp]
	mov	WORD PTR [edx+14], ax

; 777  : 		//inDirective.m_sGoldCost = 0;
; 778  : 		paDirectives[0].m_sMoveTurnsAway = 0;

	xor	ecx, ecx
	mov	edx, DWORD PTR _paDirectives$[ebp]
	mov	WORD PTR [edx+16], cx

; 779  : 		return true;

	mov	al, 1
	jmp	$LN41@EvaluateBu
$LN36@EvaluateBu:

; 780  : 	}
; 781  : 
; 782  : 	m_aiPlots.clear();

	mov	eax, DWORD PTR _this$[ebp]
	add	eax, 8
	mov	DWORD PTR $T220944[ebp], eax
	xor	ecx, ecx
	je	SHORT $LN76@EvaluateBu
	mov	DWORD PTR _i$220939[ebp], 0
	jmp	SHORT $LN74@EvaluateBu
$LN73@EvaluateBu:
	mov	edx, DWORD PTR _i$220939[ebp]
	add	edx, 1
	mov	DWORD PTR _i$220939[ebp], edx
$LN74@EvaluateBu:
	mov	eax, DWORD PTR $T220944[ebp]
	mov	ecx, DWORD PTR _i$220939[ebp]
	cmp	ecx, DWORD PTR [eax+4]
	jae	SHORT $LN76@EvaluateBu
	jmp	SHORT $LN73@EvaluateBu
$LN76@EvaluateBu:
	mov	edx, DWORD PTR $T220944[ebp]
	mov	DWORD PTR [edx+4], 0

; 783  : 	if(bOnlyEvaluateWorkersPlot)

	movzx	eax, BYTE PTR _bOnlyEvaluateWorkersPlot$[ebp]
	test	eax, eax
	je	SHORT $LN35@EvaluateBu

; 784  : 	{
; 785  : 		// can't build on plots others own
; 786  : 		PlayerTypes eOwner = pUnit->plot()->getOwner();

	mov	ecx, DWORD PTR _pUnit$[ebp]
	call	?plot@CvUnit@@QBEPAVCvPlot@@XZ		; CvUnit::plot
	mov	DWORD PTR $T220948[ebp], eax
	mov	ecx, DWORD PTR $T220948[ebp]
	movsx	edx, BYTE PTR [ecx+4]
	mov	DWORD PTR _eOwner$217433[ebp], edx

; 787  : 		if(eOwner == m_pPlayer->GetID())

	mov	eax, DWORD PTR _this$[ebp]
	mov	ecx, DWORD PTR [eax]
	mov	edx, DWORD PTR [ecx+44]
	mov	DWORD PTR $T220957[ebp], edx
	mov	eax, DWORD PTR _eOwner$217433[ebp]
	cmp	eax, DWORD PTR $T220957[ebp]
	jne	SHORT $LN34@EvaluateBu

; 788  : 		{
; 789  : 			m_aiPlots.push_back(pUnit->plot()->GetPlotIndex());

	mov	ecx, DWORD PTR _pUnit$[ebp]
	call	?plot@CvUnit@@QBEPAVCvPlot@@XZ		; CvUnit::plot
	mov	ecx, eax
	call	?GetPlotIndex@CvPlot@@QBEHXZ		; CvPlot::GetPlotIndex
	mov	DWORD PTR $T220863[ebp], eax
	lea	ecx, DWORD PTR $T220863[ebp]
	push	ecx
	mov	ecx, DWORD PTR _this$[ebp]
	add	ecx, 8
	call	?push_back@?$FStaticVector@H$0DJAA@$00$0BCJ@$0A@@@QAEIABH@Z ; FStaticVector<int,14592,1,297,0>::push_back
$LN34@EvaluateBu:

; 790  : 		}
; 791  : 	}
; 792  : 	else

	jmp	SHORT $LN33@EvaluateBu
$LN35@EvaluateBu:

; 793  : 	{
; 794  : 		m_aiPlots = m_pPlayer->GetPlots();

	mov	edx, DWORD PTR _this$[ebp]
	mov	ecx, DWORD PTR [edx]
	call	?GetPlots@CvPlayer@@QAEAAV?$FStaticVector@H$0DJAA@$00$0BCJ@$0A@@@XZ ; CvPlayer::GetPlots
	push	eax
	mov	ecx, DWORD PTR _this$[ebp]
	add	ecx, 8
	call	??4?$FStaticVector@H$0DJAA@$00$0BCJ@$0A@@@QAEXABV0@@Z ; FStaticVector<int,14592,1,297,0>::operator=
$LN33@EvaluateBu:

; 795  : 	}
; 796  : 
; 797  : #ifdef AUI_WORKER_ADD_IMPROVING_MINOR_PLOTS_DIRECTIVES
; 798  : 	for (uint iBuildIndex = 0; iBuildIndex < GC.getNumBuildInfos(); iBuildIndex++)
; 799  : 	{
; 800  : 		CvBuildInfo* pkBuild = GC.getBuildInfo((BuildTypes)iBuildIndex);
; 801  : 		if (pkBuild)
; 802  : 		{
; 803  : 			ImprovementTypes eImprovement = (ImprovementTypes)pkBuild->getImprovement();
; 804  : 			if (eImprovement != NO_IMPROVEMENT)
; 805  : 			{
; 806  : 				CvImprovementEntry* pkImprovement = GC.getImprovementInfo(eImprovement);
; 807  : 				if (pkImprovement && pkImprovement->IsOnlyCityStateTerritory() && (!pkImprovement->IsSpecificCivRequired() || pkImprovement->GetRequiredCivilization() == m_pPlayer->getCivilizationType()))
; 808  : 				{
; 809  : 					for (int iJ = 0; iJ < MAX_CIV_PLAYERS; iJ++)
; 810  : 					{
; 811  : 						CvPlayer& kLoopPlayer = GET_PLAYER((PlayerTypes)iJ);
; 812  : 						if (kLoopPlayer.isAlive() && kLoopPlayer.isMinorCiv() && !GET_TEAM(m_pPlayer->getTeam()).isAtWar(kLoopPlayer.getTeam()))
; 813  : 						{
; 814  : 							m_aiPlots.push_back(kLoopPlayer.GetPlots().begin(), kLoopPlayer.GetPlots().size());
; 815  : 						}
; 816  : 					}
; 817  : 					break;
; 818  : 				}
; 819  : 			}
; 820  : 		}
; 821  : 	}
; 822  : #endif
; 823  : 
; 824  : 	// go through all the plots the player has under their control
; 825  : 	for(uint uiPlotIndex = 0; uiPlotIndex < m_aiPlots.size(); uiPlotIndex++)

	mov	DWORD PTR _uiPlotIndex$217437[ebp], 0
	jmp	SHORT $LN32@EvaluateBu
$LN31@EvaluateBu:
	mov	eax, DWORD PTR _uiPlotIndex$217437[ebp]
	add	eax, 1
	mov	DWORD PTR _uiPlotIndex$217437[ebp], eax
$LN32@EvaluateBu:
	mov	ecx, DWORD PTR _this$[ebp]
	mov	edx, DWORD PTR [ecx+12]
	mov	DWORD PTR $T220969[ebp], edx
	mov	eax, DWORD PTR _uiPlotIndex$217437[ebp]
	cmp	eax, DWORD PTR $T220969[ebp]
	jae	$LN30@EvaluateBu

; 826  : 	{
; 827  : 		// when we encounter the first plot that is invalid, the rest of the list will be invalid
; 828  : 		if(m_aiPlots[uiPlotIndex] == -1)

	mov	ecx, DWORD PTR _this$[ebp]
	mov	edx, DWORD PTR [ecx+8]
	mov	eax, DWORD PTR _uiPlotIndex$217437[ebp]
	cmp	DWORD PTR [edx+eax*4], -1
	jne	$LN29@EvaluateBu

; 829  : 		{
; 830  : 			if(m_bLogging)

	mov	ecx, DWORD PTR _this$[ebp]
	movzx	edx, BYTE PTR [ecx+58392]
	test	edx, edx
	je	$LN28@EvaluateBu

; 831  : 			{
; 832  : 				CvString strLog = "end of plot list";

	mov	eax, OFFSET ??_C@_0BB@JIJICDOP@end?5of?5plot?5list?$AA@
	test	eax, eax
	je	SHORT $LN101@EvaluateBu
	mov	DWORD PTR tv594[ebp], OFFSET ??_C@_0BB@JIJICDOP@end?5of?5plot?5list?$AA@
	jmp	SHORT $LN102@EvaluateBu
$LN101@EvaluateBu:
	mov	DWORD PTR tv594[ebp], OFFSET ??_C@_00CNPNBAHC@?$AA@
$LN102@EvaluateBu:
	mov	ecx, DWORD PTR tv594[ebp]
	push	ecx
	lea	ecx, DWORD PTR _strLog$217443[ebp]
	call	DWORD PTR __imp_??0?$basic_string@DU?$char_traits@D@std@@V?$allocator@D@2@@std@@QAE@PBD@Z
	mov	DWORD PTR __$EHRec$[ebp+8], 0

; 833  : 				LogInfo(strLog, m_pPlayer);

	push	0
	mov	edx, DWORD PTR _this$[ebp]
	mov	eax, DWORD PTR [edx]
	push	eax
	sub	esp, 28					; 0000001cH
	mov	ecx, esp
	mov	DWORD PTR $T220864[ebp], esp
	mov	DWORD PTR $T220985[ebp], ecx
	lea	edx, DWORD PTR _strLog$217443[ebp]
	push	edx
	mov	ecx, DWORD PTR $T220985[ebp]
	call	DWORD PTR __imp_??0?$basic_string@DU?$char_traits@D@std@@V?$allocator@D@2@@std@@QAE@ABV01@@Z
	mov	eax, DWORD PTR $T220985[ebp]
	mov	DWORD PTR tv465[ebp], eax
	call	?LogInfo@CvBuilderTaskingAI@@SAXVCvString@@PAVCvPlayer@@_N@Z ; CvBuilderTaskingAI::LogInfo
	add	esp, 36					; 00000024H

; 834  : 			}

	mov	DWORD PTR __$EHRec$[ebp+8], -1
	lea	ecx, DWORD PTR _strLog$217443[ebp]
	call	DWORD PTR __imp_??1?$basic_string@DU?$char_traits@D@std@@V?$allocator@D@2@@std@@QAE@XZ
$LN28@EvaluateBu:

; 835  : 			break;

	jmp	$LN30@EvaluateBu
$LN29@EvaluateBu:

; 836  : 		}
; 837  : 
; 838  : 		CvPlot* pPlot = GC.getMap().plotByIndex(m_aiPlots[uiPlotIndex]);

	mov	ecx, DWORD PTR _this$[ebp]
	mov	edx, DWORD PTR [ecx+8]
	mov	eax, DWORD PTR _uiPlotIndex$217437[ebp]
	lea	ecx, DWORD PTR [edx+eax*4]
	mov	DWORD PTR $T220993[ebp], ecx
	mov	edx, DWORD PTR ?gGlobals@@3VCvGlobals@@A+52
	mov	DWORD PTR $T220997[ebp], edx
	mov	eax, DWORD PTR $T220993[ebp]
	mov	ecx, DWORD PTR [eax]
	mov	DWORD PTR $T221011[ebp], ecx
	cmp	DWORD PTR $T221011[ebp], 0
	jl	SHORT $LN116@EvaluateBu
	mov	edx, DWORD PTR $T220997[ebp]
	mov	eax, DWORD PTR [edx+4028]
	mov	DWORD PTR $T221004[ebp], eax
	mov	ecx, DWORD PTR $T221011[ebp]
	cmp	ecx, DWORD PTR $T221004[ebp]
	jge	SHORT $LN116@EvaluateBu
	mov	edx, DWORD PTR $T221011[ebp]
	imul	edx, 484				; 000001e4H
	mov	eax, DWORD PTR $T220997[ebp]
	add	edx, DWORD PTR [eax+4068]
	mov	DWORD PTR tv652[ebp], edx
	jmp	SHORT $LN114@EvaluateBu
$LN116@EvaluateBu:
	mov	DWORD PTR tv652[ebp], 0
$LN114@EvaluateBu:
	mov	ecx, DWORD PTR tv652[ebp]
	mov	DWORD PTR _pPlot$217446[ebp], ecx

; 839  : 
; 840  : 		if(!ShouldBuilderConsiderPlot(pUnit, pPlot))

	mov	edx, DWORD PTR _pPlot$217446[ebp]
	push	edx
	mov	eax, DWORD PTR _pUnit$[ebp]
	push	eax
	mov	ecx, DWORD PTR _this$[ebp]
	call	?ShouldBuilderConsiderPlot@CvBuilderTaskingAI@@QAE_NPAVCvUnit@@PAVCvPlot@@@Z ; CvBuilderTaskingAI::ShouldBuilderConsiderPlot
	movzx	ecx, al
	test	ecx, ecx
	jne	SHORT $LN27@EvaluateBu

; 841  : 		{
; 842  : 			continue;

	jmp	$LN31@EvaluateBu
$LN27@EvaluateBu:

; 843  : 		}
; 844  : 
; 845  : 		// distance weight
; 846  : 		// find how many turns the plot is away
; 847  : 		int iMoveTurnsAway = FindTurnsAway(pUnit, pPlot);

	mov	edx, DWORD PTR _pPlot$217446[ebp]
	push	edx
	mov	eax, DWORD PTR _pUnit$[ebp]
	push	eax
	mov	ecx, DWORD PTR _this$[ebp]
	call	?FindTurnsAway@CvBuilderTaskingAI@@QAEHPAVCvUnit@@PAVCvPlot@@@Z ; CvBuilderTaskingAI::FindTurnsAway
	mov	DWORD PTR _iMoveTurnsAway$217448[ebp], eax

; 848  : 		if(iMoveTurnsAway < 0)

	cmp	DWORD PTR _iMoveTurnsAway$217448[ebp], 0
	jge	$LN26@EvaluateBu

; 849  : 		{
; 850  : 			if(m_bLogging)

	mov	ecx, DWORD PTR _this$[ebp]
	movzx	edx, BYTE PTR [ecx+58392]
	test	edx, edx
	je	$LN25@EvaluateBu

; 851  : 			{
; 852  : 				CvString strLog;

	lea	ecx, DWORD PTR _strLog$217451[ebp]
	call	DWORD PTR __imp_??0?$basic_string@DU?$char_traits@D@std@@V?$allocator@D@2@@std@@QAE@XZ
	mov	DWORD PTR __$EHRec$[ebp+8], 1

; 853  : 				strLog.Format("unitx: %d unity: %d, plotx: %d ploty: %d, can't find path", pUnit->getX(), pUnit->getY(), pPlot->getX(), pPlot->getY());

	mov	eax, DWORD PTR _pPlot$217446[ebp]
	movsx	ecx, WORD PTR [eax+2]
	mov	DWORD PTR $T221019[ebp], ecx
	mov	edx, DWORD PTR _pPlot$217446[ebp]
	movsx	eax, WORD PTR [edx]
	mov	DWORD PTR $T221023[ebp], eax
	mov	ecx, DWORD PTR _pUnit$[ebp]
	mov	edx, DWORD PTR [ecx+88]
	mov	DWORD PTR $T221032[ebp], edx
	mov	eax, DWORD PTR _pUnit$[ebp]
	mov	ecx, DWORD PTR [eax+76]
	mov	DWORD PTR $T221041[ebp], ecx
	mov	edx, DWORD PTR $T221019[ebp]
	push	edx
	mov	eax, DWORD PTR $T221023[ebp]
	push	eax
	mov	ecx, DWORD PTR $T221032[ebp]
	push	ecx
	mov	edx, DWORD PTR $T221041[ebp]
	push	edx
	push	OFFSET ??_C@_0DK@KAPAIHN@unitx?3?5?$CFd?5unity?3?5?$CFd?0?5plotx?3?5?$CFd?5p@
	lea	eax, DWORD PTR _strLog$217451[ebp]
	push	eax
	call	?Format@CvString@@QAAXPBDZZ		; CvString::Format
	add	esp, 24					; 00000018H

; 854  : 				LogInfo(strLog, m_pPlayer);

	push	0
	mov	ecx, DWORD PTR _this$[ebp]
	mov	edx, DWORD PTR [ecx]
	push	edx
	sub	esp, 28					; 0000001cH
	mov	eax, esp
	mov	DWORD PTR $T220865[ebp], esp
	mov	DWORD PTR $T221046[ebp], eax
	lea	ecx, DWORD PTR _strLog$217451[ebp]
	push	ecx
	mov	ecx, DWORD PTR $T221046[ebp]
	call	DWORD PTR __imp_??0?$basic_string@DU?$char_traits@D@std@@V?$allocator@D@2@@std@@QAE@ABV01@@Z
	mov	edx, DWORD PTR $T221046[ebp]
	mov	DWORD PTR tv470[ebp], edx
	call	?LogInfo@CvBuilderTaskingAI@@SAXVCvString@@PAVCvPlayer@@_N@Z ; CvBuilderTaskingAI::LogInfo
	add	esp, 36					; 00000024H

; 855  : 			}

	mov	DWORD PTR __$EHRec$[ebp+8], -1
	lea	ecx, DWORD PTR _strLog$217451[ebp]
	call	DWORD PTR __imp_??1?$basic_string@DU?$char_traits@D@std@@V?$allocator@D@2@@std@@QAE@XZ
$LN25@EvaluateBu:

; 856  : 
; 857  : 			continue;

	jmp	$LN31@EvaluateBu
$LN26@EvaluateBu:

; 858  : 		}
; 859  : 
; 860  : #ifdef AUI_WORKER_ADD_IMPROVING_MINOR_PLOTS_DIRECTIVES
; 861  : 		if (pPlot->getOwner() != m_pPlayer->GetID())
; 862  : 			AddImprovingMinorPlotsDirectives(pUnit, pPlot, iMoveTurnsAway);
; 863  : 		else
; 864  : 		{
; 865  : #endif
; 866  : 		UpdateCurrentPlotYields(pPlot);

	mov	eax, DWORD PTR _pPlot$217446[ebp]
	push	eax
	mov	ecx, DWORD PTR _this$[ebp]
	call	?UpdateCurrentPlotYields@CvBuilderTaskingAI@@IAEXPAVCvPlot@@@Z ; CvBuilderTaskingAI::UpdateCurrentPlotYields

; 867  : 
; 868  : 		//AddRepairDirectives(pUnit, pPlot, iMoveTurnsAway);
; 869  : 		AddRouteDirectives(pUnit, pPlot, iMoveTurnsAway);

	mov	ecx, DWORD PTR _iMoveTurnsAway$217448[ebp]
	push	ecx
	mov	edx, DWORD PTR _pPlot$217446[ebp]
	push	edx
	mov	eax, DWORD PTR _pUnit$[ebp]
	push	eax
	mov	ecx, DWORD PTR _this$[ebp]
	call	?AddRouteDirectives@CvBuilderTaskingAI@@QAEXPAVCvUnit@@PAVCvPlot@@H@Z ; CvBuilderTaskingAI::AddRouteDirectives

; 870  : 		AddImprovingResourcesDirectives(pUnit, pPlot, iMoveTurnsAway);

	mov	ecx, DWORD PTR _iMoveTurnsAway$217448[ebp]
	push	ecx
	mov	edx, DWORD PTR _pPlot$217446[ebp]
	push	edx
	mov	eax, DWORD PTR _pUnit$[ebp]
	push	eax
	mov	ecx, DWORD PTR _this$[ebp]
	call	?AddImprovingResourcesDirectives@CvBuilderTaskingAI@@QAEXPAVCvUnit@@PAVCvPlot@@H@Z ; CvBuilderTaskingAI::AddImprovingResourcesDirectives

; 871  : 		AddImprovingPlotsDirectives(pUnit, pPlot, iMoveTurnsAway);

	mov	ecx, DWORD PTR _iMoveTurnsAway$217448[ebp]
	push	ecx
	mov	edx, DWORD PTR _pPlot$217446[ebp]
	push	edx
	mov	eax, DWORD PTR _pUnit$[ebp]
	push	eax
	mov	ecx, DWORD PTR _this$[ebp]
	call	?AddImprovingPlotsDirectives@CvBuilderTaskingAI@@QAEXPAVCvUnit@@PAVCvPlot@@H@Z ; CvBuilderTaskingAI::AddImprovingPlotsDirectives

; 872  : 		AddChopDirectives(pUnit, pPlot, iMoveTurnsAway);

	mov	ecx, DWORD PTR _iMoveTurnsAway$217448[ebp]
	push	ecx
	mov	edx, DWORD PTR _pPlot$217446[ebp]
	push	edx
	mov	eax, DWORD PTR _pUnit$[ebp]
	push	eax
	mov	ecx, DWORD PTR _this$[ebp]
	call	?AddChopDirectives@CvBuilderTaskingAI@@QAEXPAVCvUnit@@PAVCvPlot@@H@Z ; CvBuilderTaskingAI::AddChopDirectives

; 873  : 		AddScrubFalloutDirectives(pUnit, pPlot, iMoveTurnsAway);

	mov	ecx, DWORD PTR _iMoveTurnsAway$217448[ebp]
	push	ecx
	mov	edx, DWORD PTR _pPlot$217446[ebp]
	push	edx
	mov	eax, DWORD PTR _pUnit$[ebp]
	push	eax
	mov	ecx, DWORD PTR _this$[ebp]
	call	?AddScrubFalloutDirectives@CvBuilderTaskingAI@@QAEXPAVCvUnit@@PAVCvPlot@@H@Z ; CvBuilderTaskingAI::AddScrubFalloutDirectives

; 874  : 		// only AIs have permission to remove roads
; 875  : 		if(!m_pPlayer->isHuman())

	mov	ecx, DWORD PTR _this$[ebp]
	mov	ecx, DWORD PTR [ecx]
	call	?isHuman@CvPlayer@@QBE_NXZ		; CvPlayer::isHuman

; 876  : 		{
; 877  : 			//AddRemoveUselessRoadDirectives(pUnit, pPlot, iMoveTurnsAway);
; 878  : 		}
; 879  : #ifdef AUI_WORKER_ADD_IMPROVING_MINOR_PLOTS_DIRECTIVES
; 880  : 		}
; 881  : #endif
; 882  : 	}

	jmp	$LN31@EvaluateBu
$LN30@EvaluateBu:

; 883  : 
; 884  : 	// we need to evaluate the tiles outside of our territory to build roads
; 885  : 	for(uint ui = 0; ui < m_aiNonTerritoryPlots.size(); ui++)

	mov	DWORD PTR _ui$217455[ebp], 0
	jmp	SHORT $LN23@EvaluateBu
$LN22@EvaluateBu:
	mov	eax, DWORD PTR _ui$217455[ebp]
	add	eax, 1
	mov	DWORD PTR _ui$217455[ebp], eax
$LN23@EvaluateBu:
	mov	ecx, DWORD PTR ?m_aiNonTerritoryPlots@CvBuilderTaskingAI@@2V?$FStaticVector@H$0EA@$00$0BCJ@$0A@@@A+4
	mov	DWORD PTR $T221054[ebp], ecx
	mov	edx, DWORD PTR _ui$217455[ebp]
	cmp	edx, DWORD PTR $T221054[ebp]
	jae	$LN21@EvaluateBu

; 886  : 	{
; 887  : 		//FAssertMsg(!m_pPlayer->isMinorCiv(), "MinorCivs should have no nonterritory plots");
; 888  : 		CvPlot* pPlot = GC.getMap().plotByIndex(m_aiNonTerritoryPlots[ui]);

	mov	eax, DWORD PTR _ui$217455[ebp]
	mov	ecx, DWORD PTR ?m_aiNonTerritoryPlots@CvBuilderTaskingAI@@2V?$FStaticVector@H$0EA@$00$0BCJ@$0A@@@A
	lea	edx, DWORD PTR [ecx+eax*4]
	mov	DWORD PTR $T221058[ebp], edx
	mov	eax, DWORD PTR ?gGlobals@@3VCvGlobals@@A+52
	mov	DWORD PTR $T221062[ebp], eax
	mov	ecx, DWORD PTR $T221058[ebp]
	mov	edx, DWORD PTR [ecx]
	mov	DWORD PTR $T221076[ebp], edx
	cmp	DWORD PTR $T221076[ebp], 0
	jl	SHORT $LN149@EvaluateBu
	mov	eax, DWORD PTR $T221062[ebp]
	mov	ecx, DWORD PTR [eax+4028]
	mov	DWORD PTR $T221069[ebp], ecx
	mov	edx, DWORD PTR $T221076[ebp]
	cmp	edx, DWORD PTR $T221069[ebp]
	jge	SHORT $LN149@EvaluateBu
	mov	eax, DWORD PTR $T221076[ebp]
	imul	eax, 484				; 000001e4H
	mov	ecx, DWORD PTR $T221062[ebp]
	add	eax, DWORD PTR [ecx+4068]
	mov	DWORD PTR tv694[ebp], eax
	jmp	SHORT $LN147@EvaluateBu
$LN149@EvaluateBu:
	mov	DWORD PTR tv694[ebp], 0
$LN147@EvaluateBu:
	mov	edx, DWORD PTR tv694[ebp]
	mov	DWORD PTR _pPlot$217459[ebp], edx

; 889  : 		CvAssertMsg(pPlot != NULL, "Plot should not be NULL");
; 890  : 		if(!pPlot)

	cmp	DWORD PTR _pPlot$217459[ebp], 0
	jne	SHORT $LN20@EvaluateBu

; 891  : 			continue;

	jmp	$LN22@EvaluateBu
$LN20@EvaluateBu:

; 892  : 
; 893  : 		if(bOnlyEvaluateWorkersPlot)

	movzx	eax, BYTE PTR _bOnlyEvaluateWorkersPlot$[ebp]
	test	eax, eax
	je	SHORT $LN19@EvaluateBu

; 894  : 		{
; 895  : 			if(pPlot != pUnit->plot())

	mov	ecx, DWORD PTR _pUnit$[ebp]
	call	?plot@CvUnit@@QBEPAVCvPlot@@XZ		; CvUnit::plot
	cmp	DWORD PTR _pPlot$217459[ebp], eax
	je	SHORT $LN19@EvaluateBu

; 896  : 			{
; 897  : 				continue;

	jmp	$LN22@EvaluateBu
$LN19@EvaluateBu:

; 898  : 			}
; 899  : 		}
; 900  : 
; 901  : 		if(!ShouldBuilderConsiderPlot(pUnit, pPlot))

	mov	ecx, DWORD PTR _pPlot$217459[ebp]
	push	ecx
	mov	edx, DWORD PTR _pUnit$[ebp]
	push	edx
	mov	ecx, DWORD PTR _this$[ebp]
	call	?ShouldBuilderConsiderPlot@CvBuilderTaskingAI@@QAE_NPAVCvUnit@@PAVCvPlot@@@Z ; CvBuilderTaskingAI::ShouldBuilderConsiderPlot
	movzx	eax, al
	test	eax, eax
	jne	SHORT $LN17@EvaluateBu

; 902  : 		{
; 903  : 			continue;

	jmp	$LN22@EvaluateBu
$LN17@EvaluateBu:

; 904  : 		}
; 905  : 
; 906  : 		// distance weight
; 907  : 		// find how many turns the plot is away
; 908  : 		int iMoveTurnsAway = FindTurnsAway(pUnit, pPlot);

	mov	ecx, DWORD PTR _pPlot$217459[ebp]
	push	ecx
	mov	edx, DWORD PTR _pUnit$[ebp]
	push	edx
	mov	ecx, DWORD PTR _this$[ebp]
	call	?FindTurnsAway@CvBuilderTaskingAI@@QAEHPAVCvUnit@@PAVCvPlot@@@Z ; CvBuilderTaskingAI::FindTurnsAway
	mov	DWORD PTR _iMoveTurnsAway$217464[ebp], eax

; 909  : 		if(iMoveTurnsAway < 0)

	cmp	DWORD PTR _iMoveTurnsAway$217464[ebp], 0
	jge	$LN16@EvaluateBu

; 910  : 		{
; 911  : 			if(m_bLogging)

	mov	eax, DWORD PTR _this$[ebp]
	movzx	ecx, BYTE PTR [eax+58392]
	test	ecx, ecx
	je	$LN15@EvaluateBu

; 912  : 			{
; 913  : 				CvString strLog;

	lea	ecx, DWORD PTR _strLog$217467[ebp]
	call	DWORD PTR __imp_??0?$basic_string@DU?$char_traits@D@std@@V?$allocator@D@2@@std@@QAE@XZ
	mov	DWORD PTR __$EHRec$[ebp+8], 2

; 914  : 				strLog.Format("unitx: %d unity: %d, plotx: %d ploty: %d, Evaluating out of territory plot, can't find path", pUnit->getX(), pUnit->getY(), pPlot->getX(), pPlot->getY());

	mov	edx, DWORD PTR _pPlot$217459[ebp]
	movsx	eax, WORD PTR [edx+2]
	mov	DWORD PTR $T221084[ebp], eax
	mov	ecx, DWORD PTR _pPlot$217459[ebp]
	movsx	edx, WORD PTR [ecx]
	mov	DWORD PTR $T221088[ebp], edx
	mov	eax, DWORD PTR _pUnit$[ebp]
	mov	ecx, DWORD PTR [eax+88]
	mov	DWORD PTR $T221097[ebp], ecx
	mov	edx, DWORD PTR _pUnit$[ebp]
	mov	eax, DWORD PTR [edx+76]
	mov	DWORD PTR $T221106[ebp], eax
	mov	ecx, DWORD PTR $T221084[ebp]
	push	ecx
	mov	edx, DWORD PTR $T221088[ebp]
	push	edx
	mov	eax, DWORD PTR $T221097[ebp]
	push	eax
	mov	ecx, DWORD PTR $T221106[ebp]
	push	ecx
	push	OFFSET ??_C@_0FM@LMGJIHMD@unitx?3?5?$CFd?5unity?3?5?$CFd?0?5plotx?3?5?$CFd?5p@
	lea	edx, DWORD PTR _strLog$217467[ebp]
	push	edx
	call	?Format@CvString@@QAAXPBDZZ		; CvString::Format
	add	esp, 24					; 00000018H

; 915  : 				LogInfo(strLog, m_pPlayer);

	push	0
	mov	eax, DWORD PTR _this$[ebp]
	mov	ecx, DWORD PTR [eax]
	push	ecx
	sub	esp, 28					; 0000001cH
	mov	edx, esp
	mov	DWORD PTR $T220866[ebp], esp
	mov	DWORD PTR $T221111[ebp], edx
	lea	eax, DWORD PTR _strLog$217467[ebp]
	push	eax
	mov	ecx, DWORD PTR $T221111[ebp]
	call	DWORD PTR __imp_??0?$basic_string@DU?$char_traits@D@std@@V?$allocator@D@2@@std@@QAE@ABV01@@Z
	mov	ecx, DWORD PTR $T221111[ebp]
	mov	DWORD PTR tv475[ebp], ecx
	call	?LogInfo@CvBuilderTaskingAI@@SAXVCvString@@PAVCvPlayer@@_N@Z ; CvBuilderTaskingAI::LogInfo
	add	esp, 36					; 00000024H

; 916  : 			}

	mov	DWORD PTR __$EHRec$[ebp+8], -1
	lea	ecx, DWORD PTR _strLog$217467[ebp]
	call	DWORD PTR __imp_??1?$basic_string@DU?$char_traits@D@std@@V?$allocator@D@2@@std@@QAE@XZ
$LN15@EvaluateBu:

; 917  : 
; 918  : 			continue;

	jmp	$LN22@EvaluateBu
$LN16@EvaluateBu:

; 919  : 		}
; 920  : 
; 921  : 		if(m_bLogging)

	mov	edx, DWORD PTR _this$[ebp]
	movzx	eax, BYTE PTR [edx+58392]
	test	eax, eax
	je	$LN14@EvaluateBu

; 922  : 		{
; 923  : 			CvString strLog;

	lea	ecx, DWORD PTR _strLog$217471[ebp]
	call	DWORD PTR __imp_??0?$basic_string@DU?$char_traits@D@std@@V?$allocator@D@2@@std@@QAE@XZ
	mov	DWORD PTR __$EHRec$[ebp+8], 3

; 924  : 			strLog.Format("x: %d y: %d, Evaluating out of territory plot", pPlot->getX(), pPlot->getY());

	mov	ecx, DWORD PTR _pPlot$217459[ebp]
	movsx	edx, WORD PTR [ecx+2]
	mov	DWORD PTR $T221123[ebp], edx
	mov	eax, DWORD PTR $T221123[ebp]
	push	eax
	mov	ecx, DWORD PTR _pPlot$217459[ebp]
	movsx	edx, WORD PTR [ecx]
	push	edx
	push	OFFSET ??_C@_0CO@EDMNELMA@x?3?5?$CFd?5y?3?5?$CFd?0?5Evaluating?5out?5of?5t@
	lea	eax, DWORD PTR _strLog$217471[ebp]
	push	eax
	call	?Format@CvString@@QAAXPBDZZ		; CvString::Format
	add	esp, 16					; 00000010H

; 925  : 			LogInfo(strLog, m_pPlayer);

	push	0
	mov	ecx, DWORD PTR _this$[ebp]
	mov	edx, DWORD PTR [ecx]
	push	edx
	sub	esp, 28					; 0000001cH
	mov	eax, esp
	mov	DWORD PTR $T220867[ebp], esp
	mov	DWORD PTR $T221131[ebp], eax
	lea	ecx, DWORD PTR _strLog$217471[ebp]
	push	ecx
	mov	ecx, DWORD PTR $T221131[ebp]
	call	DWORD PTR __imp_??0?$basic_string@DU?$char_traits@D@std@@V?$allocator@D@2@@std@@QAE@ABV01@@Z
	mov	edx, DWORD PTR $T221131[ebp]
	mov	DWORD PTR tv480[ebp], edx
	call	?LogInfo@CvBuilderTaskingAI@@SAXVCvString@@PAVCvPlayer@@_N@Z ; CvBuilderTaskingAI::LogInfo
	add	esp, 36					; 00000024H

; 926  : 		}

	mov	DWORD PTR __$EHRec$[ebp+8], -1
	lea	ecx, DWORD PTR _strLog$217471[ebp]
	call	DWORD PTR __imp_??1?$basic_string@DU?$char_traits@D@std@@V?$allocator@D@2@@std@@QAE@XZ
$LN14@EvaluateBu:

; 927  : 
; 928  : 		//AddRepairDirectives(pUnit, pPlot, iMoveTurnsAway);
; 929  : 		AddRouteDirectives(pUnit, pPlot, iMoveTurnsAway);

	mov	eax, DWORD PTR _iMoveTurnsAway$217464[ebp]
	push	eax
	mov	ecx, DWORD PTR _pPlot$217459[ebp]
	push	ecx
	mov	edx, DWORD PTR _pUnit$[ebp]
	push	edx
	mov	ecx, DWORD PTR _this$[ebp]
	call	?AddRouteDirectives@CvBuilderTaskingAI@@QAEXPAVCvUnit@@PAVCvPlot@@H@Z ; CvBuilderTaskingAI::AddRouteDirectives

; 930  : 	}

	jmp	$LN22@EvaluateBu
$LN21@EvaluateBu:

; 931  : 
; 932  : 	m_aDirectives.StableSortItems();

	mov	eax, DWORD PTR ?m_aDirectives@CvBuilderTaskingAI@@2V?$CvWeightedVector@UBuilderDirective@@$0GE@$00@@A+4
	imul	eax, 24					; 00000018H
	add	eax, DWORD PTR ?m_aDirectives@CvBuilderTaskingAI@@2V?$CvWeightedVector@UBuilderDirective@@$0GE@$00@@A
	mov	DWORD PTR $T221140[ebp], eax
	mov	ecx, DWORD PTR ?m_aDirectives@CvBuilderTaskingAI@@2V?$CvWeightedVector@UBuilderDirective@@$0GE@$00@@A
	mov	DWORD PTR $T221178[ebp], ecx
	mov	edx, DWORD PTR $T221178[ebp]
	cmp	edx, DWORD PTR $T221140[ebp]
	je	SHORT $LN187@EvaluateBu
	push	0
	push	0
	mov	eax, DWORD PTR $T221140[ebp]
	push	eax
	mov	ecx, DWORD PTR $T221178[ebp]
	push	ecx
	call	??$_Stable_sort@PAUWeightedElement@?$CvWeightedVector@UBuilderDirective@@$0GE@$00@@HU12@@std@@YAXPAUWeightedElement@?$CvWeightedVector@UBuilderDirective@@$0GE@$00@@0PAH0@Z ; std::_Stable_sort<CvWeightedVector<BuilderDirective,100,1>::WeightedElement *,int,CvWeightedVector<BuilderDirective,100,1>::WeightedElement>
	add	esp, 16					; 00000010H
$LN187@EvaluateBu:

; 933  : 
; 934  : 	int iBestWeight = 0;

	mov	DWORD PTR _iBestWeight$[ebp], 0

; 935  : 
; 936  : 	int iAssignIndex = 0;

	mov	DWORD PTR _iAssignIndex$[ebp], 0

; 937  : 	for(int i = 0; i < m_aDirectives.size(); i++)

	mov	DWORD PTR _i$217476[ebp], 0
	jmp	SHORT $LN13@EvaluateBu
$LN12@EvaluateBu:
	mov	edx, DWORD PTR _i$217476[ebp]
	add	edx, 1
	mov	DWORD PTR _i$217476[ebp], edx
$LN13@EvaluateBu:
	mov	eax, DWORD PTR ?m_aDirectives@CvBuilderTaskingAI@@2V?$CvWeightedVector@UBuilderDirective@@$0GE@$00@@A+4
	mov	DWORD PTR $T221196[ebp], eax
	mov	ecx, DWORD PTR _i$217476[ebp]
	cmp	ecx, DWORD PTR $T221196[ebp]
	jge	$LN11@EvaluateBu

; 938  : 	{
; 939  : 		// If this target was far away, we only estimated the time to get there.  We need to be sure we have a real path there
; 940  : 		CvPlot* pTarget = GC.getMap().plot(m_aDirectives.GetElement(i).m_sX, m_aDirectives.GetElement(i).m_sY);

	mov	edx, DWORD PTR _i$217476[ebp]
	imul	edx, 24					; 00000018H
	add	edx, DWORD PTR ?m_aDirectives@CvBuilderTaskingAI@@2V?$CvWeightedVector@UBuilderDirective@@$0GE@$00@@A
	mov	DWORD PTR $T221209[ebp], edx
	mov	eax, DWORD PTR _i$217476[ebp]
	imul	eax, 24					; 00000018H
	add	eax, DWORD PTR ?m_aDirectives@CvBuilderTaskingAI@@2V?$CvWeightedVector@UBuilderDirective@@$0GE@$00@@A
	mov	DWORD PTR $T221218[ebp], eax
	mov	ecx, DWORD PTR ?gGlobals@@3VCvGlobals@@A+52
	mov	DWORD PTR $T221222[ebp], ecx
	mov	edx, DWORD PTR $T221209[ebp]
	movsx	eax, WORD PTR [edx+14]
	mov	DWORD PTR $T221325[ebp], eax
	mov	ecx, DWORD PTR $T221218[ebp]
	movsx	edx, WORD PTR [ecx+12]
	mov	DWORD PTR $T221324[ebp], edx
	cmp	DWORD PTR $T221324[ebp], -2147483647	; 80000001H
	je	SHORT $LN223@EvaluateBu
	cmp	DWORD PTR $T221325[ebp], -2147483647	; 80000001H
	jne	SHORT $LN224@EvaluateBu
$LN223@EvaluateBu:
	mov	DWORD PTR _pTarget$217480[ebp], 0
	jmp	$LN225@EvaluateBu
$LN224@EvaluateBu:
	mov	eax, DWORD PTR $T221222[ebp]
	mov	cl, BYTE PTR [eax+4056]
	mov	BYTE PTR $T221229[ebp], cl
	mov	edx, DWORD PTR $T221222[ebp]
	mov	eax, DWORD PTR [edx+4020]
	mov	DWORD PTR $T221233[ebp], eax
	movzx	ecx, BYTE PTR $T221229[ebp]
	test	ecx, ecx
	je	SHORT $LN236@EvaluateBu
	cmp	DWORD PTR $T221324[ebp], 0
	jge	SHORT $LN235@EvaluateBu
	mov	eax, DWORD PTR $T221324[ebp]
	cdq
	idiv	DWORD PTR $T221233[ebp]
	add	edx, DWORD PTR $T221233[ebp]
	mov	DWORD PTR _iMapX$221322[ebp], edx
	jmp	SHORT $LN237@EvaluateBu
	jmp	SHORT $LN236@EvaluateBu
$LN235@EvaluateBu:
	mov	edx, DWORD PTR $T221324[ebp]
	cmp	edx, DWORD PTR $T221233[ebp]
	jl	SHORT $LN236@EvaluateBu
	mov	eax, DWORD PTR $T221324[ebp]
	cdq
	idiv	DWORD PTR $T221233[ebp]
	mov	DWORD PTR _iMapX$221322[ebp], edx
	jmp	SHORT $LN237@EvaluateBu
$LN236@EvaluateBu:
	mov	eax, DWORD PTR $T221324[ebp]
	mov	DWORD PTR _iMapX$221322[ebp], eax
$LN237@EvaluateBu:
	mov	ecx, DWORD PTR $T221222[ebp]
	mov	dl, BYTE PTR [ecx+4057]
	mov	BYTE PTR $T221244[ebp], dl
	mov	eax, DWORD PTR $T221222[ebp]
	mov	ecx, DWORD PTR [eax+4024]
	mov	DWORD PTR $T221248[ebp], ecx
	movzx	edx, BYTE PTR $T221244[ebp]
	test	edx, edx
	je	SHORT $LN246@EvaluateBu
	cmp	DWORD PTR $T221325[ebp], 0
	jge	SHORT $LN245@EvaluateBu
	mov	eax, DWORD PTR $T221325[ebp]
	cdq
	idiv	DWORD PTR $T221248[ebp]
	add	edx, DWORD PTR $T221248[ebp]
	mov	DWORD PTR _iMapY$221323[ebp], edx
	jmp	SHORT $LN247@EvaluateBu
	jmp	SHORT $LN246@EvaluateBu
$LN245@EvaluateBu:
	mov	eax, DWORD PTR $T221325[ebp]
	cmp	eax, DWORD PTR $T221248[ebp]
	jl	SHORT $LN246@EvaluateBu
	mov	eax, DWORD PTR $T221325[ebp]
	cdq
	idiv	DWORD PTR $T221248[ebp]
	mov	DWORD PTR _iMapY$221323[ebp], edx
	jmp	SHORT $LN247@EvaluateBu
$LN246@EvaluateBu:
	mov	ecx, DWORD PTR $T221325[ebp]
	mov	DWORD PTR _iMapY$221323[ebp], ecx
$LN247@EvaluateBu:
	cmp	DWORD PTR _iMapX$221322[ebp], 0
	jl	SHORT $LN251@EvaluateBu
	mov	edx, DWORD PTR $T221222[ebp]
	mov	eax, DWORD PTR [edx+4020]
	mov	DWORD PTR $T221262[ebp], eax
	mov	ecx, DWORD PTR _iMapX$221322[ebp]
	cmp	ecx, DWORD PTR $T221262[ebp]
	jge	SHORT $LN251@EvaluateBu
	cmp	DWORD PTR _iMapY$221323[ebp], 0
	jl	SHORT $LN251@EvaluateBu
	mov	edx, DWORD PTR $T221222[ebp]
	mov	eax, DWORD PTR [edx+4024]
	mov	DWORD PTR $T221266[ebp], eax
	mov	ecx, DWORD PTR _iMapY$221323[ebp]
	cmp	ecx, DWORD PTR $T221266[ebp]
	jge	SHORT $LN251@EvaluateBu
	mov	DWORD PTR tv874[ebp], 1
	jmp	SHORT $LN249@EvaluateBu
$LN251@EvaluateBu:
	mov	DWORD PTR tv874[ebp], 0
$LN249@EvaluateBu:
	cmp	DWORD PTR tv874[ebp], 0
	je	SHORT $LN227@EvaluateBu
	mov	edx, DWORD PTR $T221222[ebp]
	mov	eax, DWORD PTR [edx+4020]
	mov	DWORD PTR $T221279[ebp], eax
	mov	ecx, DWORD PTR _iMapY$221323[ebp]
	imul	ecx, DWORD PTR $T221279[ebp]
	add	ecx, DWORD PTR _iMapX$221322[ebp]
	imul	ecx, 484				; 000001e4H
	mov	edx, DWORD PTR $T221222[ebp]
	add	ecx, DWORD PTR [edx+4068]
	mov	DWORD PTR tv859[ebp], ecx
	jmp	SHORT $LN228@EvaluateBu
$LN227@EvaluateBu:
	mov	DWORD PTR tv859[ebp], 0
$LN228@EvaluateBu:
	mov	eax, DWORD PTR tv859[ebp]
	mov	DWORD PTR _pTarget$217480[ebp], eax
$LN225@EvaluateBu:

; 941  : 		CvAssertMsg(pTarget != NULL, "Not expecting the target to be NULL");
; 942  : 		if(!pTarget)

	cmp	DWORD PTR _pTarget$217480[ebp], 0
	jne	SHORT $LN10@EvaluateBu

; 943  : 			continue;

	jmp	$LN12@EvaluateBu
$LN10@EvaluateBu:

; 944  : 
; 945  : #if 0	// KWG: We are now always doing a raw estimate when gathering the directives
; 946  : 		int iPlotDistance = plotDistance(pUnit->getX(), pUnit->getY(), pTarget->getX(), pTarget->getY());
; 947  : 		if(iPlotDistance >= GC.getAI_HOMELAND_ESTIMATE_TURNS_DISTANCE())
; 948  : #endif
; 949  : 		{
; 950  : 			if(TurnsToReachTarget(pUnit, pTarget) == MAX_INT)

	push	0
	push	0
	push	0
	mov	ecx, DWORD PTR _pTarget$217480[ebp]
	push	ecx
	sub	esp, 8
	mov	edx, esp
	mov	DWORD PTR $T220868[ebp], esp
	mov	DWORD PTR $T221335[ebp], edx
	mov	eax, DWORD PTR $T221335[ebp]
	mov	ecx, DWORD PTR _pUnit$[ebp]
	mov	DWORD PTR [eax], ecx
	mov	edx, DWORD PTR $T221335[ebp]
	mov	BYTE PTR [edx+4], 0
	mov	eax, DWORD PTR $T221335[ebp]
	cmp	DWORD PTR [eax], 0
	je	SHORT $LN262@EvaluateBu
	mov	ecx, DWORD PTR $T221335[ebp]
	mov	ecx, DWORD PTR [ecx]
	call	?getDestructionNotification@CvUnit@@QAEAAU?$DestructionNotification@V?$FObjectHandle@VCvUnit@@@@@@XZ ; CvUnit::getDestructionNotification
$LN262@EvaluateBu:
	mov	edx, DWORD PTR $T221335[ebp]
	mov	DWORD PTR tv486[ebp], edx
	call	?TurnsToReachTarget@@YAHV?$FObjectHandle@VCvUnit@@@@PAVCvPlot@@_N22@Z ; TurnsToReachTarget
	add	esp, 24					; 00000018H
	mov	DWORD PTR tv487[ebp], eax
	cmp	DWORD PTR tv487[ebp], 2147483647	; 7fffffffH
	jne	SHORT $LN9@EvaluateBu

; 951  : 			{
; 952  : 				// No path, need to pick a new directive
; 953  : 				continue;

	jmp	$LN12@EvaluateBu
$LN9@EvaluateBu:

; 954  : 			}
; 955  : 		}
; 956  : 
; 957  : 		if(iBestWeight == 0)

	cmp	DWORD PTR _iBestWeight$[ebp], 0
	jne	$LN8@EvaluateBu

; 958  : 		{
; 959  : 			iBestWeight = m_aDirectives.GetWeight(i);

	mov	DWORD PTR _elem$221356[ebp], 6
	mov	DWORD PTR _elem$221356[ebp+4], -1
	mov	DWORD PTR _elem$221356[ebp+8], -1
	or	eax, -1
	mov	WORD PTR _elem$221356[ebp+12], ax
	or	ecx, -1
	mov	WORD PTR _elem$221356[ebp+14], cx
	or	edx, -1
	mov	WORD PTR _elem$221356[ebp+16], dx
	mov	DWORD PTR _elem$221356[ebp+20], 0
	mov	eax, DWORD PTR _i$217476[ebp]
	imul	eax, 24					; 00000018H
	add	eax, DWORD PTR ?m_aDirectives@CvBuilderTaskingAI@@2V?$CvWeightedVector@UBuilderDirective@@$0GE@$00@@A
	mov	ecx, DWORD PTR [eax]
	mov	DWORD PTR _elem$221356[ebp], ecx
	mov	edx, DWORD PTR [eax+4]
	mov	DWORD PTR _elem$221356[ebp+4], edx
	mov	ecx, DWORD PTR [eax+8]
	mov	DWORD PTR _elem$221356[ebp+8], ecx
	mov	edx, DWORD PTR [eax+12]
	mov	DWORD PTR _elem$221356[ebp+12], edx
	mov	ecx, DWORD PTR [eax+16]
	mov	DWORD PTR _elem$221356[ebp+16], ecx
	mov	edx, DWORD PTR [eax+20]
	mov	DWORD PTR _elem$221356[ebp+20], edx
	mov	eax, DWORD PTR _elem$221356[ebp+20]
	mov	DWORD PTR _iBestWeight$[ebp], eax
$LN8@EvaluateBu:

; 960  : 		}
; 961  : 
; 962  : 		if(bOnlyKeepBest)

	movzx	ecx, BYTE PTR _bOnlyKeepBest$[ebp]
	test	ecx, ecx
	je	$LN282@EvaluateBu

; 963  : 		{
; 964  : 			int iWeight = m_aDirectives.GetWeight(i);

	mov	DWORD PTR _elem$221373[ebp], 6
	mov	DWORD PTR _elem$221373[ebp+4], -1
	mov	DWORD PTR _elem$221373[ebp+8], -1
	or	edx, -1
	mov	WORD PTR _elem$221373[ebp+12], dx
	or	eax, -1
	mov	WORD PTR _elem$221373[ebp+14], ax
	or	ecx, -1
	mov	WORD PTR _elem$221373[ebp+16], cx
	mov	DWORD PTR _elem$221373[ebp+20], 0
	mov	edx, DWORD PTR _i$217476[ebp]
	imul	edx, 24					; 00000018H
	add	edx, DWORD PTR ?m_aDirectives@CvBuilderTaskingAI@@2V?$CvWeightedVector@UBuilderDirective@@$0GE@$00@@A
	mov	eax, DWORD PTR [edx]
	mov	DWORD PTR _elem$221373[ebp], eax
	mov	ecx, DWORD PTR [edx+4]
	mov	DWORD PTR _elem$221373[ebp+4], ecx
	mov	eax, DWORD PTR [edx+8]
	mov	DWORD PTR _elem$221373[ebp+8], eax
	mov	ecx, DWORD PTR [edx+12]
	mov	DWORD PTR _elem$221373[ebp+12], ecx
	mov	eax, DWORD PTR [edx+16]
	mov	DWORD PTR _elem$221373[ebp+16], eax
	mov	ecx, DWORD PTR [edx+20]
	mov	DWORD PTR _elem$221373[ebp+20], ecx
	mov	edx, DWORD PTR _elem$221373[ebp+20]
	mov	DWORD PTR _iWeight$217486[ebp], edx

; 965  : 			if(iWeight < iBestWeight * 3 / 4)

	mov	eax, DWORD PTR _iBestWeight$[ebp]
	imul	eax, 3
	cdq
	and	edx, 3
	add	eax, edx
	sar	eax, 2
	cmp	DWORD PTR _iWeight$217486[ebp], eax
	jge	SHORT $LN282@EvaluateBu

; 966  : 			{
; 967  : 				break;

	jmp	$LN11@EvaluateBu

; 968  : 			}
; 969  : 		}
; 970  : 
; 971  : 		BuilderDirective directive = m_aDirectives.GetElement(i);

$LN282@EvaluateBu:
	mov	eax, DWORD PTR _i$217476[ebp]
	imul	eax, 24					; 00000018H
	add	eax, DWORD PTR ?m_aDirectives@CvBuilderTaskingAI@@2V?$CvWeightedVector@UBuilderDirective@@$0GE@$00@@A
	mov	ecx, DWORD PTR [eax]
	mov	DWORD PTR _directive$217488[ebp], ecx
	mov	edx, DWORD PTR [eax+4]
	mov	DWORD PTR _directive$217488[ebp+4], edx
	mov	ecx, DWORD PTR [eax+8]
	mov	DWORD PTR _directive$217488[ebp+8], ecx
	mov	edx, DWORD PTR [eax+12]
	mov	DWORD PTR _directive$217488[ebp+12], edx
	mov	eax, DWORD PTR [eax+16]
	mov	DWORD PTR _directive$217488[ebp+16], eax

; 972  : 		paDirectives[iAssignIndex] = directive;

	mov	ecx, DWORD PTR _iAssignIndex$[ebp]
	imul	ecx, 20					; 00000014H
	add	ecx, DWORD PTR _paDirectives$[ebp]
	mov	edx, DWORD PTR _directive$217488[ebp]
	mov	DWORD PTR [ecx], edx
	mov	eax, DWORD PTR _directive$217488[ebp+4]
	mov	DWORD PTR [ecx+4], eax
	mov	edx, DWORD PTR _directive$217488[ebp+8]
	mov	DWORD PTR [ecx+8], edx
	mov	eax, DWORD PTR _directive$217488[ebp+12]
	mov	DWORD PTR [ecx+12], eax
	mov	edx, DWORD PTR _directive$217488[ebp+16]
	mov	DWORD PTR [ecx+16], edx

; 973  : 		iAssignIndex++;

	mov	eax, DWORD PTR _iAssignIndex$[ebp]
	add	eax, 1
	mov	DWORD PTR _iAssignIndex$[ebp], eax

; 974  : 
; 975  : 		// if we shouldn't copy over any more directives, then break
; 976  : 		if(iAssignIndex >= (int)uaDirectives)

	mov	ecx, DWORD PTR _iAssignIndex$[ebp]
	cmp	ecx, DWORD PTR _uaDirectives$[ebp]
	jl	SHORT $LN5@EvaluateBu

; 977  : 		{
; 978  : 			break;

	jmp	SHORT $LN11@EvaluateBu
$LN5@EvaluateBu:

; 979  : 		}
; 980  : 	}

	jmp	$LN12@EvaluateBu
$LN11@EvaluateBu:

; 981  : 
; 982  : 	if(m_bLogging)

	mov	edx, DWORD PTR _this$[ebp]
	movzx	eax, BYTE PTR [edx+58392]
	test	eax, eax
	je	SHORT $LN4@EvaluateBu

; 983  : 	{
; 984  : 		if(m_aDirectives.size() > 0)

	mov	ecx, DWORD PTR ?m_aDirectives@CvBuilderTaskingAI@@2V?$CvWeightedVector@UBuilderDirective@@$0GE@$00@@A+4
	mov	DWORD PTR $T221390[ebp], ecx

; 985  : 		{
; 986  : 			//LogFlavors(NO_FLAVOR);
; 987  : 		}
; 988  : 
; 989  : 		LogDirectives(pUnit);

	mov	edx, DWORD PTR _pUnit$[ebp]
	push	edx
	mov	ecx, DWORD PTR _this$[ebp]
	call	?LogDirectives@CvBuilderTaskingAI@@IAEXPAVCvUnit@@@Z ; CvBuilderTaskingAI::LogDirectives
$LN4@EvaluateBu:

; 990  : 	}
; 991  : 
; 992  : 	//if (m_aDirectives.size() > 0 && iAssignIndex > 0)
; 993  : 	if(iAssignIndex > 0)

	cmp	DWORD PTR _iAssignIndex$[ebp], 0
	jle	SHORT $LN2@EvaluateBu

; 994  : 	{
; 995  : 		if(m_bLogging)

	mov	eax, DWORD PTR _this$[ebp]
	movzx	ecx, BYTE PTR [eax+58392]
	test	ecx, ecx
	je	SHORT $LN1@EvaluateBu

; 996  : 		{
; 997  : 			LogDirective(paDirectives[0], pUnit, -1, true /*bChosen*/);

	push	1
	push	-1
	mov	edx, DWORD PTR _pUnit$[ebp]
	push	edx
	mov	eax, DWORD PTR _paDirectives$[ebp]
	sub	esp, 20					; 00000014H
	mov	ecx, esp
	mov	edx, DWORD PTR [eax]
	mov	DWORD PTR [ecx], edx
	mov	edx, DWORD PTR [eax+4]
	mov	DWORD PTR [ecx+4], edx
	mov	edx, DWORD PTR [eax+8]
	mov	DWORD PTR [ecx+8], edx
	mov	edx, DWORD PTR [eax+12]
	mov	DWORD PTR [ecx+12], edx
	mov	eax, DWORD PTR [eax+16]
	mov	DWORD PTR [ecx+16], eax
	mov	ecx, DWORD PTR _this$[ebp]
	call	?LogDirective@CvBuilderTaskingAI@@IAEXUBuilderDirective@@PAVCvUnit@@H_N@Z ; CvBuilderTaskingAI::LogDirective
$LN1@EvaluateBu:

; 998  : 		}
; 999  : 		return true;

	mov	al, 1
	jmp	SHORT $LN41@EvaluateBu
$LN2@EvaluateBu:

; 1000 : 	}
; 1001 : 
; 1002 : 	return false;

	xor	al, al
$LN41@EvaluateBu:

; 1003 : }

	mov	ecx, DWORD PTR __$EHRec$[ebp]
	mov	DWORD PTR fs:0, ecx
	pop	ecx
	mov	ecx, DWORD PTR __$ArrayPad$[ebp]
	xor	ecx, ebp
	call	@__security_check_cookie@4
	mov	esp, ebp
	pop	ebp
	ret	20					; 00000014H
_TEXT	ENDS
;	COMDAT text$x
text$x	SEGMENT
__unwindfunclet$?EvaluateBuilder@CvBuilderTaskingAI@@QAE_NPAVCvUnit@@PAUBuilderDirective@@I_N2@Z$0:
	lea	ecx, DWORD PTR _strLog$217443[ebp]
	jmp	??1CvString@@QAE@XZ			; CvString::~CvString
__unwindfunclet$?EvaluateBuilder@CvBuilderTaskingAI@@QAE_NPAVCvUnit@@PAUBuilderDirective@@I_N2@Z$2:
	lea	ecx, DWORD PTR _strLog$217451[ebp]
	jmp	??1CvString@@QAE@XZ			; CvString::~CvString
__unwindfunclet$?EvaluateBuilder@CvBuilderTaskingAI@@QAE_NPAVCvUnit@@PAUBuilderDirective@@I_N2@Z$4:
	lea	ecx, DWORD PTR _strLog$217467[ebp]
	jmp	??1CvString@@QAE@XZ			; CvString::~CvString
__unwindfunclet$?EvaluateBuilder@CvBuilderTaskingAI@@QAE_NPAVCvUnit@@PAUBuilderDirective@@I_N2@Z$6:
	lea	ecx, DWORD PTR _strLog$217471[ebp]
	jmp	??1CvString@@QAE@XZ			; CvString::~CvString
__ehhandler$?EvaluateBuilder@CvBuilderTaskingAI@@QAE_NPAVCvUnit@@PAUBuilderDirective@@I_N2@Z:
	mov	edx, DWORD PTR [esp+8]
	lea	eax, DWORD PTR [edx+12]
	mov	ecx, DWORD PTR [edx-544]
	xor	ecx, eax
	call	@__security_check_cookie@4
	mov	ecx, DWORD PTR [edx-32]
	xor	ecx, eax
	call	@__security_check_cookie@4
	mov	eax, OFFSET __ehfuncinfo$?EvaluateBuilder@CvBuilderTaskingAI@@QAE_NPAVCvUnit@@PAUBuilderDirective@@I_N2@Z
	jmp	___CxxFrameHandler3
text$x	ENDS
?EvaluateBuilder@CvBuilderTaskingAI@@QAE_NPAVCvUnit@@PAUBuilderDirective@@I_N2@Z ENDP ; CvBuilderTaskingAI::EvaluateBuilder
PUBLIC	?push_back@?$CvWeightedVector@UBuilderDirective@@$0GE@$00@@QAEIABUBuilderDirective@@H@Z ; CvWeightedVector<BuilderDirective,100,1>::push_back
PUBLIC	??_C@_0CG@JJDEGAOH@?$CFd?0?5Build?5Time?5Weight?0?5?$CFd?0?5Weigh@ ; `string'
PUBLIC	??_C@_0P@CFGIALGA@Helps?5rush?0?5?$CFd?$AA@	; `string'
PUBLIC	?ScorePlot@CvBuilderTaskingAI@@QAEHXZ		; CvBuilderTaskingAI::ScorePlot
PUBLIC	?UpdateProjectedPlotYields@CvBuilderTaskingAI@@IAEXPAVCvPlot@@W4BuildTypes@@@Z ; CvBuilderTaskingAI::UpdateProjectedPlotYields
PUBLIC	?GetResourceWeight@CvBuilderTaskingAI@@QAEHW4ResourceTypes@@W4ImprovementTypes@@H@Z ; CvBuilderTaskingAI::GetResourceWeight
PUBLIC	?GetBuildTimeWeight@CvBuilderTaskingAI@@QAEHPAVCvUnit@@PAVCvPlot@@W4BuildTypes@@_NH@Z ; CvBuilderTaskingAI::GetBuildTimeWeight
PUBLIC	?DoesBuildHelpRush@CvBuilderTaskingAI@@QAE_NPAVCvUnit@@PAVCvPlot@@W4BuildTypes@@@Z ; CvBuilderTaskingAI::DoesBuildHelpRush
PUBLIC	?GetBuildCostWeight@CvBuilderTaskingAI@@QAEHHPAVCvPlot@@W4BuildTypes@@@Z ; CvBuilderTaskingAI::GetBuildCostWeight
PUBLIC	__$ArrayPad$
EXTRN	?getFeatureProduction@CvPlot@@QBEHW4BuildTypes@@W4PlayerTypes@@PAPAVCvCity@@@Z:PROC ; CvPlot::getFeatureProduction
EXTRN	?getNumResource@CvPlot@@QBEHXZ:PROC		; CvPlot::getNumResource
EXTRN	?getBuildTime@CvPlot@@QBEHW4BuildTypes@@W4PlayerTypes@@@Z:PROC ; CvPlot::getBuildTime
EXTRN	?canBuild@CvUnit@@QBE_NPBVCvPlot@@W4BuildTypes@@_N2@Z:PROC ; CvUnit::canBuild
EXTRN	?IsImprovementResourceTrade@CvImprovementEntry@@QBE_NH@Z:PROC ; CvImprovementEntry::IsImprovementResourceTrade
EXTRN	?getResourceUsage@CvResourceInfo@@QBE?AW4ResourceUsageTypes@@XZ:PROC ; CvResourceInfo::getResourceUsage
EXTRN	?getResourceInfo@CvGlobals@@QAEPAVCvResourceInfo@@W4ResourceTypes@@@Z:PROC ; CvGlobals::getResourceInfo
EXTRN	?getResourceType@CvPlot@@QBE?AW4ResourceTypes@@W4TeamTypes@@@Z:PROC ; CvPlot::getResourceType
EXTRN	?IsImprovementPillaged@CvPlot@@QBE_NXZ:PROC	; CvPlot::IsImprovementPillaged
EXTRN	?HasSpecialImprovement@CvPlot@@QBE_NXZ:PROC	; CvPlot::HasSpecialImprovement
EXTRN	?getImprovementType@CvPlot@@QBE?AW4ImprovementTypes@@XZ:PROC ; CvPlot::getImprovementType
;	COMDAT ??_C@_0CG@JJDEGAOH@?$CFd?0?5Build?5Time?5Weight?0?5?$CFd?0?5Weigh@
; File d:\sources\lekmod_git\checkout\lekmod_dll\cvgamecoredllutil\include\cvweightedvector.h
CONST	SEGMENT
??_C@_0CG@JJDEGAOH@?$CFd?0?5Build?5Time?5Weight?0?5?$CFd?0?5Weigh@ DB '%d'
	DB	', Build Time Weight, %d, Weight, %d', 00H	; `string'
CONST	ENDS
;	COMDAT ??_C@_0P@CFGIALGA@Helps?5rush?0?5?$CFd?$AA@
CONST	SEGMENT
??_C@_0P@CFGIALGA@Helps?5rush?0?5?$CFd?$AA@ DB 'Helps rush, %d', 00H ; `string'
CONST	ENDS
;	COMDAT xdata$x
xdata$x	SEGMENT
__unwindtable$?AddImprovingResourcesDirectives@CvBuilderTaskingAI@@QAEXPAVCvUnit@@PAVCvPlot@@H@Z DD 0ffffffffH
	DD	FLAT:__unwindfunclet$?AddImprovingResourcesDirectives@CvBuilderTaskingAI@@QAEXPAVCvUnit@@PAVCvPlot@@H@Z$0
	DD	0ffffffffH
	DD	FLAT:__unwindfunclet$?AddImprovingResourcesDirectives@CvBuilderTaskingAI@@QAEXPAVCvUnit@@PAVCvPlot@@H@Z$2
__ehfuncinfo$?AddImprovingResourcesDirectives@CvBuilderTaskingAI@@QAEXPAVCvUnit@@PAVCvPlot@@H@Z DD 019930522H
	DD	02H
	DD	FLAT:__unwindtable$?AddImprovingResourcesDirectives@CvBuilderTaskingAI@@QAEXPAVCvUnit@@PAVCvPlot@@H@Z
	DD	2 DUP(00H)
	DD	2 DUP(00H)
	DD	00H
	DD	01H
; Function compile flags: /Odtp
; File d:\sources\lekmod_git\checkout\lekmod_dll\cvgamecoredll_expansion2\cvbuildertaskingai.cpp
xdata$x	ENDS
;	COMDAT ?AddImprovingResourcesDirectives@CvBuilderTaskingAI@@QAEXPAVCvUnit@@PAVCvPlot@@H@Z
_TEXT	SEGMENT
tv344 = -296						; size = 4
tv339 = -292						; size = 4
_this$ = -288						; size = 4
$T221483 = -208						; size = 4
$T221478 = -204						; size = 4
$T221452 = -200						; size = 4
$T221443 = -196						; size = 4
$T221434 = -192						; size = 4
$T221419 = -188						; size = 4
$T221418 = -184						; size = 4
$T221405 = -180						; size = 4
$T221404 = -176						; size = 4
_strTemp$217556 = -172					; size = 28
_strLog$217550 = -144					; size = 28
__$ArrayPad$ = -116					; size = 4
_iProduction$217547 = -112				; size = 4
_pLogCity$217546 = -108					; size = 4
_pkBuild2$217540 = -104					; size = 4
_iBuildIndex2$217535 = -100				; size = 4
_eExistingBuild$217533 = -96				; size = 4
_eBuild2$217534 = -92					; size = 4
_pkBuild$217514 = -88					; size = 4
_pkImprovementInfo$217519 = -84				; size = 4
_iInvestedImprovementTime$217531 = -80			; size = 4
_eDirectiveType$217528 = -76				; size = 4
_eImprovement$217516 = -72				; size = 4
_iWeight$217529 = -68					; size = 4
_directive$217554 = -64					; size = 20
_iBuildTimeWeight$217543 = -44				; size = 4
_iScore$217544 = -40					; size = 4
_eExistingPlotImprovement$ = -36			; size = 4
_eBuild$ = -32						; size = 4
_eOriginalBuild$ = -28					; size = 4
_eResource$ = -24					; size = 4
_pkResource$ = -20					; size = 4
_iBuildIndex$ = -16					; size = 4
__$EHRec$ = -12						; size = 12
_pUnit$ = 8						; size = 4
_pPlot$ = 12						; size = 4
_iMoveTurnsAway$ = 16					; size = 4
?AddImprovingResourcesDirectives@CvBuilderTaskingAI@@QAEXPAVCvUnit@@PAVCvPlot@@H@Z PROC ; CvBuilderTaskingAI::AddImprovingResourcesDirectives, COMDAT
; _this$ = ecx

; 1008 : {

	push	ebp
	mov	ebp, esp
	push	-1
	push	__ehhandler$?AddImprovingResourcesDirectives@CvBuilderTaskingAI@@QAEXPAVCvUnit@@PAVCvPlot@@H@Z
	mov	eax, DWORD PTR fs:0
	push	eax
	sub	esp, 284				; 0000011cH
	mov	eax, DWORD PTR ___security_cookie
	xor	eax, ebp
	mov	DWORD PTR __$ArrayPad$[ebp], eax
	push	eax
	lea	eax, DWORD PTR __$EHRec$[ebp]
	mov	DWORD PTR fs:0, eax
	mov	DWORD PTR _this$[ebp], ecx

; 1009 : #ifdef AUI_WARNING_FIXES
; 1010 : 	if (!pUnit)
; 1011 : 		return;
; 1012 : #endif
; 1013 : 
; 1014 : 	ImprovementTypes eExistingPlotImprovement = pPlot->getImprovementType();

	mov	ecx, DWORD PTR _pPlot$[ebp]
	call	?getImprovementType@CvPlot@@QBE?AW4ImprovementTypes@@XZ ; CvPlot::getImprovementType
	mov	DWORD PTR _eExistingPlotImprovement$[ebp], eax

; 1015 : 
; 1016 : 	// Do we have a special improvement here? (great person improvement, gifted improvement from major civ)
; 1017 : 	if(eExistingPlotImprovement != NO_IMPROVEMENT && pPlot->HasSpecialImprovement() && !pPlot->IsImprovementPillaged())

	cmp	DWORD PTR _eExistingPlotImprovement$[ebp], -1
	je	SHORT $LN28@AddImprovi
	mov	ecx, DWORD PTR _pPlot$[ebp]
	call	?HasSpecialImprovement@CvPlot@@QBE_NXZ	; CvPlot::HasSpecialImprovement
	movzx	eax, al
	test	eax, eax
	je	SHORT $LN28@AddImprovi
	mov	ecx, DWORD PTR _pPlot$[ebp]
	call	?IsImprovementPillaged@CvPlot@@QBE_NXZ	; CvPlot::IsImprovementPillaged
	movzx	ecx, al
	test	ecx, ecx
	jne	SHORT $LN28@AddImprovi

; 1018 : 	{
; 1019 : 		return;

	jmp	$LN29@AddImprovi
$LN28@AddImprovi:

; 1020 : 	}
; 1021 : 
; 1022 : 	// check to see if a resource is here. If not, bail out!
; 1023 : 	ResourceTypes eResource = pPlot->getResourceType(m_pPlayer->getTeam());

	mov	edx, DWORD PTR _this$[ebp]
	mov	eax, DWORD PTR [edx]
	mov	DWORD PTR $T221418[ebp], eax
	mov	ecx, DWORD PTR $T221418[ebp]
	mov	edx, DWORD PTR [ecx+44]
	push	edx
	call	?teamType@CvPreGame@@YA?AW4TeamTypes@@W4PlayerTypes@@@Z ; CvPreGame::teamType
	add	esp, 4
	mov	DWORD PTR $T221419[ebp], eax
	mov	eax, DWORD PTR $T221419[ebp]
	push	eax
	mov	ecx, DWORD PTR _pPlot$[ebp]
	call	?getResourceType@CvPlot@@QBE?AW4ResourceTypes@@W4TeamTypes@@@Z ; CvPlot::getResourceType
	mov	DWORD PTR _eResource$[ebp], eax

; 1024 : 	if(eResource == NO_RESOURCE)

	cmp	DWORD PTR _eResource$[ebp], -1
	jne	SHORT $LN27@AddImprovi

; 1025 : 	{
; 1026 : 		return;

	jmp	$LN29@AddImprovi
$LN27@AddImprovi:

; 1027 : 	}
; 1028 : 
; 1029 : 	CvResourceInfo* pkResource = GC.getResourceInfo(eResource);

	mov	ecx, DWORD PTR _eResource$[ebp]
	push	ecx
	mov	ecx, OFFSET ?gGlobals@@3VCvGlobals@@A	; gGlobals
	call	?getResourceInfo@CvGlobals@@QAEPAVCvResourceInfo@@W4ResourceTypes@@@Z ; CvGlobals::getResourceInfo
	mov	DWORD PTR _pkResource$[ebp], eax

; 1030 : 	if(pkResource->getResourceUsage() == RESOURCEUSAGE_BONUS)

	mov	ecx, DWORD PTR _pkResource$[ebp]
	call	?getResourceUsage@CvResourceInfo@@QBE?AW4ResourceUsageTypes@@XZ ; CvResourceInfo::getResourceUsage
	test	eax, eax
	jne	SHORT $LN26@AddImprovi

; 1031 : 	{
; 1032 : 		// evaluate bonus resources as normal improvements
; 1033 : 		return;

	jmp	$LN29@AddImprovi
$LN26@AddImprovi:

; 1034 : 	}
; 1035 : 
; 1036 : #ifdef AUI_WORKER_FIX_SHOULD_BUILDER_CONSIDER_PLOT_EXISTING_BUILD_MISSIONS_SHIFT
; 1037 : 	// check to see if someone already has a conflicting mission here
; 1038 : 	if (pUnit->GetMissionAIPlot() != pPlot)
; 1039 : 	{
; 1040 : 		int iLoop;
; 1041 : 		for (CvUnit* pLoopUnit = m_pPlayer->firstUnit(&iLoop); pLoopUnit != NULL; pLoopUnit = m_pPlayer->nextUnit(&iLoop))
; 1042 : 		{
; 1043 : 			if (pUnit == pLoopUnit)
; 1044 : 			{
; 1045 : 				continue;
; 1046 : 			}
; 1047 : 
; 1048 : 			CvPlot* pMissionPlot = pLoopUnit->GetMissionAIPlot();
; 1049 : 			if (!pMissionPlot)
; 1050 : 			{
; 1051 : 				continue;
; 1052 : 			}
; 1053 : 
; 1054 : 			MissionAITypes eGroupMissionAI = pLoopUnit->GetMissionAIType();
; 1055 : 			if (eGroupMissionAI != MISSIONAI_BUILD)
; 1056 : 			{
; 1057 : 				continue;
; 1058 : 			}
; 1059 : 
; 1060 : 			if (pPlot->getX() == pMissionPlot->getX() && pPlot->getY() == pMissionPlot->getY())
; 1061 : 			{
; 1062 : 				BuildTypes eOtherBuild = pLoopUnit->getBuildType();
; 1063 : 				CvBuildInfo* pkBuild = GC.getBuildInfo(eOtherBuild);
; 1064 : 				if (pkBuild != NULL)
; 1065 : 				{
; 1066 : 					ImprovementTypes eImprovement = (ImprovementTypes)pkBuild->getImprovement();
; 1067 : 					if (eImprovement != NO_IMPROVEMENT || (eOtherBuild == m_eRepairBuild && eExistingPlotImprovement != NO_IMPROVEMENT))
; 1068 : 					{
; 1069 : 						if (m_bLogging)
; 1070 : 						{
; 1071 : 							CvString strLog;
; 1072 : 							strLog.Format("x: %d y: %d, Somebody has a conflicting mission here.", pPlot->getX(), pPlot->getY());
; 1073 : 							LogInfo(strLog, m_pPlayer, true);
; 1074 : 						}
; 1075 : 						return;
; 1076 : 					}
; 1077 : 				}
; 1078 : 			}
; 1079 : 		}
; 1080 : 	}
; 1081 : #endif
; 1082 : 
; 1083 : 	// loop through the build types to find one that we can use
; 1084 : 	BuildTypes eBuild;
; 1085 : 	BuildTypes eOriginalBuild;
; 1086 : #ifdef AUI_WARNING_FIXES
; 1087 : 	uint iBuildIndex;
; 1088 : #else
; 1089 : 	int iBuildIndex;
; 1090 : #endif
; 1091 : 	for(iBuildIndex = 0; iBuildIndex < GC.getNumBuildInfos(); iBuildIndex++)

	mov	DWORD PTR _iBuildIndex$[ebp], 0
	jmp	SHORT $LN25@AddImprovi
$LN24@AddImprovi:
	mov	edx, DWORD PTR _iBuildIndex$[ebp]
	add	edx, 1
	mov	DWORD PTR _iBuildIndex$[ebp], edx
$LN25@AddImprovi:
	mov	ecx, OFFSET ?gGlobals@@3VCvGlobals@@A	; gGlobals
	call	?getNumBuildInfos@CvGlobals@@QAEHXZ	; CvGlobals::getNumBuildInfos
	cmp	DWORD PTR _iBuildIndex$[ebp], eax
	jge	$LN29@AddImprovi

; 1092 : 	{
; 1093 : 		eBuild = (BuildTypes)iBuildIndex;

	mov	eax, DWORD PTR _iBuildIndex$[ebp]
	mov	DWORD PTR _eBuild$[ebp], eax

; 1094 : 		CvBuildInfo* pkBuild = GC.getBuildInfo(eBuild);

	mov	ecx, DWORD PTR _eBuild$[ebp]
	push	ecx
	mov	ecx, OFFSET ?gGlobals@@3VCvGlobals@@A	; gGlobals
	call	?getBuildInfo@CvGlobals@@QAEPAVCvBuildInfo@@W4BuildTypes@@@Z ; CvGlobals::getBuildInfo
	mov	DWORD PTR _pkBuild$217514[ebp], eax

; 1095 : 		if(pkBuild == NULL)

	cmp	DWORD PTR _pkBuild$217514[ebp], 0
	jne	SHORT $LN22@AddImprovi

; 1096 : 			continue;

	jmp	SHORT $LN24@AddImprovi
$LN22@AddImprovi:

; 1097 : 
; 1098 : 		eOriginalBuild = eBuild;

	mov	edx, DWORD PTR _eBuild$[ebp]
	mov	DWORD PTR _eOriginalBuild$[ebp], edx

; 1099 : 		ImprovementTypes eImprovement = (ImprovementTypes)pkBuild->getImprovement();

	mov	ecx, DWORD PTR _pkBuild$217514[ebp]
	call	?getImprovement@CvBuildInfo@@QBEHXZ	; CvBuildInfo::getImprovement
	mov	DWORD PTR _eImprovement$217516[ebp], eax

; 1100 : 		if(eImprovement == NO_IMPROVEMENT)

	cmp	DWORD PTR _eImprovement$217516[ebp], -1
	jne	SHORT $LN21@AddImprovi

; 1101 : 		{
; 1102 : 			continue;

	jmp	SHORT $LN24@AddImprovi
$LN21@AddImprovi:

; 1103 : 		}
; 1104 : 
; 1105 : 		CvImprovementEntry* pkImprovementInfo = GC.getImprovementInfo(eImprovement);

	mov	eax, DWORD PTR _eImprovement$217516[ebp]
	push	eax
	mov	ecx, OFFSET ?gGlobals@@3VCvGlobals@@A	; gGlobals
	call	?getImprovementInfo@CvGlobals@@QAEPAVCvImprovementEntry@@W4ImprovementTypes@@@Z ; CvGlobals::getImprovementInfo
	mov	DWORD PTR _pkImprovementInfo$217519[ebp], eax

; 1106 : 		if(pkImprovementInfo == NULL || !pkImprovementInfo->IsImprovementResourceTrade(eResource))

	cmp	DWORD PTR _pkImprovementInfo$217519[ebp], 0
	je	SHORT $LN19@AddImprovi
	mov	ecx, DWORD PTR _eResource$[ebp]
	push	ecx
	mov	ecx, DWORD PTR _pkImprovementInfo$217519[ebp]
	call	?IsImprovementResourceTrade@CvImprovementEntry@@QBE_NH@Z ; CvImprovementEntry::IsImprovementResourceTrade
	movzx	edx, al
	test	edx, edx
	jne	SHORT $LN20@AddImprovi
$LN19@AddImprovi:

; 1107 : 		{
; 1108 : 			continue;

	jmp	SHORT $LN24@AddImprovi
$LN20@AddImprovi:

; 1109 : 		}
; 1110 : 
; 1111 : 		if(eImprovement == eExistingPlotImprovement)

	mov	eax, DWORD PTR _eImprovement$217516[ebp]
	cmp	eax, DWORD PTR _eExistingPlotImprovement$[ebp]
	jne	SHORT $LN18@AddImprovi

; 1112 : 		{
; 1113 : 			if(pPlot->IsImprovementPillaged())

	mov	ecx, DWORD PTR _pPlot$[ebp]
	call	?IsImprovementPillaged@CvPlot@@QBE_NXZ	; CvPlot::IsImprovementPillaged
	movzx	ecx, al
	test	ecx, ecx
	je	SHORT $LN17@AddImprovi

; 1114 : 			{
; 1115 : 				eBuild = m_eRepairBuild;

	mov	edx, DWORD PTR _this$[ebp]
	mov	eax, DWORD PTR [edx+4]
	mov	DWORD PTR _eBuild$[ebp], eax

; 1116 : 			}
; 1117 : 			else

	jmp	SHORT $LN16@AddImprovi
$LN17@AddImprovi:

; 1118 : 			{
; 1119 : 				// this plot already has the appropriate improvement to use the resource
; 1120 : 				break;

	jmp	$LN29@AddImprovi
$LN16@AddImprovi:

; 1121 : 			}
; 1122 : 		}
; 1123 : 		else

	jmp	SHORT $LN15@AddImprovi
$LN18@AddImprovi:

; 1124 : 		{
; 1125 : 			// Do we have a special improvement here? (great person improvement, gifted improvement from major civ)
; 1126 : 			if (eExistingPlotImprovement != NO_IMPROVEMENT && pPlot->HasSpecialImprovement())

	cmp	DWORD PTR _eExistingPlotImprovement$[ebp], -1
	je	SHORT $LN15@AddImprovi
	mov	ecx, DWORD PTR _pPlot$[ebp]
	call	?HasSpecialImprovement@CvPlot@@QBE_NXZ	; CvPlot::HasSpecialImprovement
	movzx	ecx, al
	test	ecx, ecx
	je	SHORT $LN15@AddImprovi

; 1127 : 				continue;

	jmp	$LN24@AddImprovi
$LN15@AddImprovi:

; 1128 : 		}
; 1129 : 
; 1130 : 		if(!pUnit->canBuild(pPlot, eBuild))

	push	1
	push	0
	mov	edx, DWORD PTR _eBuild$[ebp]
	push	edx
	mov	eax, DWORD PTR _pPlot$[ebp]
	push	eax
	mov	ecx, DWORD PTR _pUnit$[ebp]
	call	?canBuild@CvUnit@@QBE_NPBVCvPlot@@W4BuildTypes@@_N2@Z ; CvUnit::canBuild
	movzx	ecx, al
	test	ecx, ecx
	jne	SHORT $LN13@AddImprovi

; 1131 : 		{
; 1132 : 			break;

	jmp	$LN29@AddImprovi
$LN13@AddImprovi:

; 1133 : 		}
; 1134 : 
; 1135 : 		BuilderDirective::BuilderDirectiveType eDirectiveType = BuilderDirective::BUILD_IMPROVEMENT_ON_RESOURCE;

	mov	DWORD PTR _eDirectiveType$217528[ebp], 0

; 1136 : 		int iWeight = GC.getBUILDER_TASKING_BASELINE_BUILD_RESOURCE_IMPROVEMENTS();

	mov	edx, DWORD PTR ?gGlobals@@3VCvGlobals@@A+2144
	mov	DWORD PTR _iWeight$217529[ebp], edx

; 1137 : 		if(eBuild == m_eRepairBuild)

	mov	eax, DWORD PTR _this$[ebp]
	mov	ecx, DWORD PTR _eBuild$[ebp]
	cmp	ecx, DWORD PTR [eax+4]
	jne	SHORT $LN12@AddImprovi

; 1138 : 		{
; 1139 : 			eDirectiveType = BuilderDirective::REPAIR;

	mov	DWORD PTR _eDirectiveType$217528[ebp], 3

; 1140 : 			iWeight = GC.getBUILDER_TASKING_BASELINE_REPAIR();

	mov	edx, DWORD PTR ?gGlobals@@3VCvGlobals@@A+2152
	mov	DWORD PTR _iWeight$217529[ebp], edx
$LN12@AddImprovi:

; 1141 : 		}
; 1142 : 
; 1143 : 		iWeight = GetBuildCostWeight(iWeight, pPlot, eBuild);

	mov	eax, DWORD PTR _eBuild$[ebp]
	push	eax
	mov	ecx, DWORD PTR _pPlot$[ebp]
	push	ecx
	mov	edx, DWORD PTR _iWeight$217529[ebp]
	push	edx
	mov	ecx, DWORD PTR _this$[ebp]
	call	?GetBuildCostWeight@CvBuilderTaskingAI@@QAEHHPAVCvPlot@@W4BuildTypes@@@Z ; CvBuilderTaskingAI::GetBuildCostWeight
	mov	DWORD PTR _iWeight$217529[ebp], eax

; 1144 : 
; 1145 : 		// this is to deal with when the plot is already improved with another improvement that doesn't enable the resource
; 1146 : 		int iInvestedImprovementTime = 0;

	mov	DWORD PTR _iInvestedImprovementTime$217531[ebp], 0

; 1147 : 		if(eExistingPlotImprovement != NO_IMPROVEMENT)

	cmp	DWORD PTR _eExistingPlotImprovement$[ebp], -1
	je	$LN11@AddImprovi

; 1148 : 		{
; 1149 : 			BuildTypes eExistingBuild = NO_BUILD;

	mov	DWORD PTR _eExistingBuild$217533[ebp], -1

; 1150 : 			BuildTypes eBuild2 = NO_BUILD;

	mov	DWORD PTR _eBuild2$217534[ebp], -1

; 1151 : #ifdef AUI_WARNING_FIXES
; 1152 : 			for (uint iBuildIndex2 = 0; iBuildIndex2 < GC.getNumBuildInfos(); iBuildIndex2++)
; 1153 : #else
; 1154 : 			for(int iBuildIndex2 = 0; iBuildIndex2 < GC.getNumBuildInfos(); iBuildIndex2++)

	mov	DWORD PTR _iBuildIndex2$217535[ebp], 0
	jmp	SHORT $LN10@AddImprovi
$LN9@AddImprovi:
	mov	eax, DWORD PTR _iBuildIndex2$217535[ebp]
	add	eax, 1
	mov	DWORD PTR _iBuildIndex2$217535[ebp], eax
$LN10@AddImprovi:
	mov	ecx, OFFSET ?gGlobals@@3VCvGlobals@@A	; gGlobals
	call	?getNumBuildInfos@CvGlobals@@QAEHXZ	; CvGlobals::getNumBuildInfos
	cmp	DWORD PTR _iBuildIndex2$217535[ebp], eax
	jge	SHORT $LN8@AddImprovi

; 1155 : #endif
; 1156 : 			{
; 1157 : 				eBuild2 = (BuildTypes)iBuildIndex2;

	mov	ecx, DWORD PTR _iBuildIndex2$217535[ebp]
	mov	DWORD PTR _eBuild2$217534[ebp], ecx

; 1158 : 				CvBuildInfo* pkBuild2 = GC.getBuildInfo(eBuild2);

	mov	edx, DWORD PTR _eBuild2$217534[ebp]
	push	edx
	mov	ecx, OFFSET ?gGlobals@@3VCvGlobals@@A	; gGlobals
	call	?getBuildInfo@CvGlobals@@QAEPAVCvBuildInfo@@W4BuildTypes@@@Z ; CvGlobals::getBuildInfo
	mov	DWORD PTR _pkBuild2$217540[ebp], eax

; 1159 : 				if(pkBuild2 && pkBuild2->getImprovement() == eExistingPlotImprovement)

	cmp	DWORD PTR _pkBuild2$217540[ebp], 0
	je	SHORT $LN7@AddImprovi
	mov	ecx, DWORD PTR _pkBuild2$217540[ebp]
	call	?getImprovement@CvBuildInfo@@QBEHXZ	; CvBuildInfo::getImprovement
	cmp	eax, DWORD PTR _eExistingPlotImprovement$[ebp]
	jne	SHORT $LN7@AddImprovi

; 1160 : 				{
; 1161 : 					eExistingBuild = eBuild2;

	mov	eax, DWORD PTR _eBuild2$217534[ebp]
	mov	DWORD PTR _eExistingBuild$217533[ebp], eax

; 1162 : 					break;

	jmp	SHORT $LN8@AddImprovi
$LN7@AddImprovi:

; 1163 : 				}
; 1164 : 			}

	jmp	SHORT $LN9@AddImprovi
$LN8@AddImprovi:

; 1165 : 
; 1166 : 			if(eExistingBuild != NO_BUILD)

	cmp	DWORD PTR _eExistingBuild$217533[ebp], -1
	je	SHORT $LN11@AddImprovi

; 1167 : 			{
; 1168 : 				iInvestedImprovementTime = pPlot->getBuildTime(eExistingBuild, m_pPlayer->GetID());

	mov	ecx, DWORD PTR _this$[ebp]
	mov	edx, DWORD PTR [ecx]
	mov	eax, DWORD PTR [edx+44]
	mov	DWORD PTR $T221434[ebp], eax
	mov	ecx, DWORD PTR $T221434[ebp]
	push	ecx
	mov	edx, DWORD PTR _eExistingBuild$217533[ebp]
	push	edx
	mov	ecx, DWORD PTR _pPlot$[ebp]
	call	?getBuildTime@CvPlot@@QBEHW4BuildTypes@@W4PlayerTypes@@@Z ; CvPlot::getBuildTime
	mov	DWORD PTR _iInvestedImprovementTime$217531[ebp], eax
$LN11@AddImprovi:

; 1169 : 			}
; 1170 : 		}
; 1171 : 
; 1172 : 		int iBuildTimeWeight = GetBuildTimeWeight(pUnit, pPlot, eBuild, DoesBuildHelpRush(pUnit, pPlot, eBuild), iInvestedImprovementTime + iMoveTurnsAway);

	mov	eax, DWORD PTR _iInvestedImprovementTime$217531[ebp]
	add	eax, DWORD PTR _iMoveTurnsAway$[ebp]
	push	eax
	mov	ecx, DWORD PTR _eBuild$[ebp]
	push	ecx
	mov	edx, DWORD PTR _pPlot$[ebp]
	push	edx
	mov	eax, DWORD PTR _pUnit$[ebp]
	push	eax
	mov	ecx, DWORD PTR _this$[ebp]
	call	?DoesBuildHelpRush@CvBuilderTaskingAI@@QAE_NPAVCvUnit@@PAVCvPlot@@W4BuildTypes@@@Z ; CvBuilderTaskingAI::DoesBuildHelpRush
	movzx	ecx, al
	push	ecx
	mov	edx, DWORD PTR _eBuild$[ebp]
	push	edx
	mov	eax, DWORD PTR _pPlot$[ebp]
	push	eax
	mov	ecx, DWORD PTR _pUnit$[ebp]
	push	ecx
	mov	ecx, DWORD PTR _this$[ebp]
	call	?GetBuildTimeWeight@CvBuilderTaskingAI@@QAEHPAVCvUnit@@PAVCvPlot@@W4BuildTypes@@_NH@Z ; CvBuilderTaskingAI::GetBuildTimeWeight
	mov	DWORD PTR _iBuildTimeWeight$217543[ebp], eax

; 1173 : 		iWeight += iBuildTimeWeight;

	mov	edx, DWORD PTR _iWeight$217529[ebp]
	add	edx, DWORD PTR _iBuildTimeWeight$217543[ebp]
	mov	DWORD PTR _iWeight$217529[ebp], edx

; 1174 : 		iWeight = CorrectWeight(iWeight);

	mov	eax, DWORD PTR _iWeight$217529[ebp]
	push	eax
	call	?CorrectWeight@@YAHH@Z			; CorrectWeight
	add	esp, 4
	mov	DWORD PTR _iWeight$217529[ebp], eax

; 1175 : 
; 1176 : 		iWeight += GetResourceWeight(eResource, eImprovement, pPlot->getNumResource());

	mov	ecx, DWORD PTR _pPlot$[ebp]
	call	?getNumResource@CvPlot@@QBEHXZ		; CvPlot::getNumResource
	push	eax
	mov	ecx, DWORD PTR _eImprovement$217516[ebp]
	push	ecx
	mov	edx, DWORD PTR _eResource$[ebp]
	push	edx
	mov	ecx, DWORD PTR _this$[ebp]
	call	?GetResourceWeight@CvBuilderTaskingAI@@QAEHW4ResourceTypes@@W4ImprovementTypes@@H@Z ; CvBuilderTaskingAI::GetResourceWeight
	add	eax, DWORD PTR _iWeight$217529[ebp]
	mov	DWORD PTR _iWeight$217529[ebp], eax

; 1177 : 		iWeight = CorrectWeight(iWeight);

	mov	eax, DWORD PTR _iWeight$217529[ebp]
	push	eax
	call	?CorrectWeight@@YAHH@Z			; CorrectWeight
	add	esp, 4
	mov	DWORD PTR _iWeight$217529[ebp], eax

; 1178 : 
; 1179 : 		UpdateProjectedPlotYields(pPlot, eBuild);

	mov	ecx, DWORD PTR _eBuild$[ebp]
	push	ecx
	mov	edx, DWORD PTR _pPlot$[ebp]
	push	edx
	mov	ecx, DWORD PTR _this$[ebp]
	call	?UpdateProjectedPlotYields@CvBuilderTaskingAI@@IAEXPAVCvPlot@@W4BuildTypes@@@Z ; CvBuilderTaskingAI::UpdateProjectedPlotYields

; 1180 : #ifdef AUI_WORKER_SCORE_PLOT_CHOP
; 1181 : 		int iScore = ScorePlot(eBuild);
; 1182 : #else
; 1183 : 		int iScore = ScorePlot();

	mov	ecx, DWORD PTR _this$[ebp]
	call	?ScorePlot@CvBuilderTaskingAI@@QAEHXZ	; CvBuilderTaskingAI::ScorePlot
	mov	DWORD PTR _iScore$217544[ebp], eax

; 1184 : #endif
; 1185 : 		if(iScore > 0)

	cmp	DWORD PTR _iScore$217544[ebp], 0
	jle	SHORT $LN5@AddImprovi

; 1186 : 		{
; 1187 : 			iWeight *= iScore;

	mov	eax, DWORD PTR _iWeight$217529[ebp]
	imul	eax, DWORD PTR _iScore$217544[ebp]
	mov	DWORD PTR _iWeight$217529[ebp], eax

; 1188 : 			iWeight = CorrectWeight(iWeight);

	mov	ecx, DWORD PTR _iWeight$217529[ebp]
	push	ecx
	call	?CorrectWeight@@YAHH@Z			; CorrectWeight
	add	esp, 4
	mov	DWORD PTR _iWeight$217529[ebp], eax
$LN5@AddImprovi:

; 1189 : 		}
; 1190 : 
; 1191 : 		{
; 1192 : 			CvCity* pLogCity = NULL;

	mov	DWORD PTR _pLogCity$217546[ebp], 0

; 1193 : 			int iProduction = pPlot->getFeatureProduction(eBuild, pUnit->getOwner(), &pLogCity);

	mov	edx, DWORD PTR _pUnit$[ebp]
	mov	eax, DWORD PTR [edx+40]
	mov	DWORD PTR $T221443[ebp], eax
	lea	ecx, DWORD PTR _pLogCity$217546[ebp]
	push	ecx
	mov	edx, DWORD PTR $T221443[ebp]
	push	edx
	mov	eax, DWORD PTR _eBuild$[ebp]
	push	eax
	mov	ecx, DWORD PTR _pPlot$[ebp]
	call	?getFeatureProduction@CvPlot@@QBEHW4BuildTypes@@W4PlayerTypes@@PAPAVCvCity@@@Z ; CvPlot::getFeatureProduction
	mov	DWORD PTR _iProduction$217547[ebp], eax

; 1194 : 			if(DoesBuildHelpRush(pUnit, pPlot, eBuild))

	mov	ecx, DWORD PTR _eBuild$[ebp]
	push	ecx
	mov	edx, DWORD PTR _pPlot$[ebp]
	push	edx
	mov	eax, DWORD PTR _pUnit$[ebp]
	push	eax
	mov	ecx, DWORD PTR _this$[ebp]
	call	?DoesBuildHelpRush@CvBuilderTaskingAI@@QAE_NPAVCvUnit@@PAVCvPlot@@W4BuildTypes@@@Z ; CvBuilderTaskingAI::DoesBuildHelpRush
	movzx	ecx, al
	test	ecx, ecx
	je	$LN4@AddImprovi

; 1195 : 			{
; 1196 : 				iWeight += iProduction; // a nominal benefit for choosing this production

	mov	edx, DWORD PTR _iWeight$217529[ebp]
	add	edx, DWORD PTR _iProduction$217547[ebp]
	mov	DWORD PTR _iWeight$217529[ebp], edx

; 1197 : 
; 1198 : 				if(m_bLogging)

	mov	eax, DWORD PTR _this$[ebp]
	movzx	ecx, BYTE PTR [eax+58392]
	test	ecx, ecx
	je	$LN4@AddImprovi

; 1199 : 				{
; 1200 : 					CvString strLog;

	lea	ecx, DWORD PTR _strLog$217550[ebp]
	call	DWORD PTR __imp_??0?$basic_string@DU?$char_traits@D@std@@V?$allocator@D@2@@std@@QAE@XZ
	mov	DWORD PTR __$EHRec$[ebp+8], 0

; 1201 : 					strLog.Format("Helps rush, %d", iProduction);

	mov	edx, DWORD PTR _iProduction$217547[ebp]
	push	edx
	push	OFFSET ??_C@_0P@CFGIALGA@Helps?5rush?0?5?$CFd?$AA@
	lea	eax, DWORD PTR _strLog$217550[ebp]
	push	eax
	call	?Format@CvString@@QAAXPBDZZ		; CvString::Format
	add	esp, 12					; 0000000cH

; 1202 : 					LogInfo(strLog, m_pPlayer);

	push	0
	mov	ecx, DWORD PTR _this$[ebp]
	mov	edx, DWORD PTR [ecx]
	push	edx
	sub	esp, 28					; 0000001cH
	mov	eax, esp
	mov	DWORD PTR $T221404[ebp], esp
	mov	DWORD PTR $T221452[ebp], eax
	lea	ecx, DWORD PTR _strLog$217550[ebp]
	push	ecx
	mov	ecx, DWORD PTR $T221452[ebp]
	call	DWORD PTR __imp_??0?$basic_string@DU?$char_traits@D@std@@V?$allocator@D@2@@std@@QAE@ABV01@@Z
	mov	edx, DWORD PTR $T221452[ebp]
	mov	DWORD PTR tv339[ebp], edx
	call	?LogInfo@CvBuilderTaskingAI@@SAXVCvString@@PAVCvPlayer@@_N@Z ; CvBuilderTaskingAI::LogInfo
	add	esp, 36					; 00000024H

; 1203 : 				}

	mov	DWORD PTR __$EHRec$[ebp+8], -1
	lea	ecx, DWORD PTR _strLog$217550[ebp]
	call	DWORD PTR __imp_??1?$basic_string@DU?$char_traits@D@std@@V?$allocator@D@2@@std@@QAE@XZ
$LN4@AddImprovi:

; 1204 : 			}
; 1205 : 		}
; 1206 : 
; 1207 : 		if(iWeight <= 0)

	cmp	DWORD PTR _iWeight$217529[ebp], 0
	jg	SHORT $LN2@AddImprovi

; 1208 : 		{
; 1209 : 			continue;

	jmp	$LN24@AddImprovi
$LN2@AddImprovi:

; 1210 : 		}
; 1211 : 
; 1212 : 		BuilderDirective directive;

	mov	DWORD PTR _directive$217554[ebp], 6
	mov	DWORD PTR _directive$217554[ebp+4], -1
	mov	DWORD PTR _directive$217554[ebp+8], -1
	or	eax, -1
	mov	WORD PTR _directive$217554[ebp+12], ax
	or	ecx, -1
	mov	WORD PTR _directive$217554[ebp+14], cx
	or	edx, -1
	mov	WORD PTR _directive$217554[ebp+16], dx

; 1213 : 		directive.m_eDirective = eDirectiveType;

	mov	eax, DWORD PTR _eDirectiveType$217528[ebp]
	mov	DWORD PTR _directive$217554[ebp], eax

; 1214 : 		directive.m_eBuild = eBuild;

	mov	ecx, DWORD PTR _eBuild$[ebp]
	mov	DWORD PTR _directive$217554[ebp+4], ecx

; 1215 : 		directive.m_eResource = eResource;

	mov	edx, DWORD PTR _eResource$[ebp]
	mov	DWORD PTR _directive$217554[ebp+8], edx

; 1216 : 		directive.m_sX = pPlot->getX();

	mov	eax, DWORD PTR _pPlot$[ebp]
	movsx	ecx, WORD PTR [eax]
	mov	WORD PTR _directive$217554[ebp+12], cx

; 1217 : 		directive.m_sY = pPlot->getY();

	mov	edx, DWORD PTR _pPlot$[ebp]
	movsx	eax, WORD PTR [edx+2]
	mov	WORD PTR _directive$217554[ebp+14], ax

; 1218 : 		//directive.m_iGoldCost = m_pPlayer->getBuildCost(pPlot, eBuild);
; 1219 : 		directive.m_sMoveTurnsAway = iMoveTurnsAway;

	mov	cx, WORD PTR _iMoveTurnsAway$[ebp]
	mov	WORD PTR _directive$217554[ebp+16], cx

; 1220 : 
; 1221 : 		if(m_bLogging)

	mov	edx, DWORD PTR _this$[ebp]
	movzx	eax, BYTE PTR [edx+58392]
	test	eax, eax
	je	$LN1@AddImprovi

; 1222 : 		{
; 1223 : 			CvString strTemp;

	lea	ecx, DWORD PTR _strTemp$217556[ebp]
	call	DWORD PTR __imp_??0?$basic_string@DU?$char_traits@D@std@@V?$allocator@D@2@@std@@QAE@XZ
	mov	DWORD PTR __$EHRec$[ebp+8], 1

; 1224 : 			strTemp.Format("%d, Build Time Weight, %d, Weight, %d", pUnit->GetID(), iBuildTimeWeight, iWeight);

	mov	ecx, DWORD PTR _pUnit$[ebp]
	mov	edx, DWORD PTR [ecx+100]
	mov	DWORD PTR $T221478[ebp], edx
	mov	eax, DWORD PTR _iWeight$217529[ebp]
	push	eax
	mov	ecx, DWORD PTR _iBuildTimeWeight$217543[ebp]
	push	ecx
	mov	edx, DWORD PTR $T221478[ebp]
	push	edx
	push	OFFSET ??_C@_0CG@JJDEGAOH@?$CFd?0?5Build?5Time?5Weight?0?5?$CFd?0?5Weigh@
	lea	eax, DWORD PTR _strTemp$217556[ebp]
	push	eax
	call	?Format@CvString@@QAAXPBDZZ		; CvString::Format
	add	esp, 20					; 00000014H

; 1225 : 			LogInfo(strTemp, m_pPlayer);

	push	0
	mov	ecx, DWORD PTR _this$[ebp]
	mov	edx, DWORD PTR [ecx]
	push	edx
	sub	esp, 28					; 0000001cH
	mov	eax, esp
	mov	DWORD PTR $T221405[ebp], esp
	mov	DWORD PTR $T221483[ebp], eax
	lea	ecx, DWORD PTR _strTemp$217556[ebp]
	push	ecx
	mov	ecx, DWORD PTR $T221483[ebp]
	call	DWORD PTR __imp_??0?$basic_string@DU?$char_traits@D@std@@V?$allocator@D@2@@std@@QAE@ABV01@@Z
	mov	edx, DWORD PTR $T221483[ebp]
	mov	DWORD PTR tv344[ebp], edx
	call	?LogInfo@CvBuilderTaskingAI@@SAXVCvString@@PAVCvPlayer@@_N@Z ; CvBuilderTaskingAI::LogInfo
	add	esp, 36					; 00000024H

; 1226 : 		}

	mov	DWORD PTR __$EHRec$[ebp+8], -1
	lea	ecx, DWORD PTR _strTemp$217556[ebp]
	call	DWORD PTR __imp_??1?$basic_string@DU?$char_traits@D@std@@V?$allocator@D@2@@std@@QAE@XZ
$LN1@AddImprovi:

; 1227 : 
; 1228 : 		m_aDirectives.push_back(directive, iWeight);

	mov	eax, DWORD PTR _iWeight$217529[ebp]
	push	eax
	lea	ecx, DWORD PTR _directive$217554[ebp]
	push	ecx
	mov	ecx, OFFSET ?m_aDirectives@CvBuilderTaskingAI@@2V?$CvWeightedVector@UBuilderDirective@@$0GE@$00@@A ; CvBuilderTaskingAI::m_aDirectives
	call	?push_back@?$CvWeightedVector@UBuilderDirective@@$0GE@$00@@QAEIABUBuilderDirective@@H@Z ; CvWeightedVector<BuilderDirective,100,1>::push_back
	jmp	$LN24@AddImprovi
$LN29@AddImprovi:

; 1229 : 	}
; 1230 : }

	mov	ecx, DWORD PTR __$EHRec$[ebp]
	mov	DWORD PTR fs:0, ecx
	pop	ecx
	mov	ecx, DWORD PTR __$ArrayPad$[ebp]
	xor	ecx, ebp
	call	@__security_check_cookie@4
	mov	esp, ebp
	pop	ebp
	ret	12					; 0000000cH
_TEXT	ENDS
;	COMDAT text$x
text$x	SEGMENT
__unwindfunclet$?AddImprovingResourcesDirectives@CvBuilderTaskingAI@@QAEXPAVCvUnit@@PAVCvPlot@@H@Z$0:
	lea	ecx, DWORD PTR _strLog$217550[ebp]
	jmp	??1CvString@@QAE@XZ			; CvString::~CvString
__unwindfunclet$?AddImprovingResourcesDirectives@CvBuilderTaskingAI@@QAEXPAVCvUnit@@PAVCvPlot@@H@Z$2:
	lea	ecx, DWORD PTR _strTemp$217556[ebp]
	jmp	??1CvString@@QAE@XZ			; CvString::~CvString
__ehhandler$?AddImprovingResourcesDirectives@CvBuilderTaskingAI@@QAEXPAVCvUnit@@PAVCvPlot@@H@Z:
	mov	edx, DWORD PTR [esp+8]
	lea	eax, DWORD PTR [edx+12]
	mov	ecx, DWORD PTR [edx-288]
	xor	ecx, eax
	call	@__security_check_cookie@4
	mov	ecx, DWORD PTR [edx-104]
	xor	ecx, eax
	call	@__security_check_cookie@4
	mov	eax, OFFSET __ehfuncinfo$?AddImprovingResourcesDirectives@CvBuilderTaskingAI@@QAEXPAVCvUnit@@PAVCvPlot@@H@Z
	jmp	___CxxFrameHandler3
text$x	ENDS
?AddImprovingResourcesDirectives@CvBuilderTaskingAI@@QAEXPAVCvUnit@@PAVCvPlot@@H@Z ENDP ; CvBuilderTaskingAI::AddImprovingResourcesDirectives
PUBLIC	??_C@_0DC@BCGOLGBG@Weight?0Directive?5Score?5Added?0?$CFs?0@ ; `string'
PUBLIC	??_C@_0CF@NLMCLPJP@Weight?0Negative?5Score?0?$CFs?0?$CFi?0?0?0?$CFi@ ; `string'
PUBLIC	??_C@_0CB@MAEBKOFF@Weight?0Keep?5Forests?0?$CFs?0?0?0?0?$CFi?0?5?$CFi@ ; `string'
PUBLIC	??_C@_0CC@HIPJBJHD@Weight?0Jungle?5Remove?0?$CFs?0?0?0?0?$CFi?0?5?$CF@ ; `string'
PUBLIC	??_C@_0CB@LLJKFMHM@Weight?0Marsh?5Remove?0?$CFs?0?0?0?0?$CFi?0?5?$CFi@ ; `string'
PUBLIC	??_C@_0CH@CNEEGBKG@Weight?0?$CBpUnit?9?$DOcanBuild?$CI?$CJ?0?$CFs?0?0?0?0@ ; `string'
PUBLIC	??_C@_0EE@KLFGBAEO@Weight?0Improvement?5Type?5Blocked?5@ ; `string'
PUBLIC	??_C@_0EC@LANMMDIG@Weight?0eImprovement?5?$DN?$DN?5pPlot?9?$DOge@ ; `string'
PUBLIC	??_C@_0EL@LCKBJAAA@Weight?0?$CBpImprovement?9?$DOIsImprovem@ ; `string'
PUBLIC	?GetWorkingCity@CvBuilderTaskingAI@@QAEPAVCvCity@@PAVCvPlot@@@Z ; CvBuilderTaskingAI::GetWorkingCity
PUBLIC	__$ArrayPad$
EXTRN	?ComputeCultureFromAdjacentImprovement@CvPlot@@QBEHAAVCvImprovementEntry@@W4ImprovementTypes@@@Z:PROC ; CvPlot::ComputeCultureFromAdjacentImprovement
EXTRN	?GetCultureAdjacentSameType@CvImprovementEntry@@QBEHXZ:PROC ; CvImprovementEntry::GetCultureAdjacentSameType
EXTRN	?GetYieldChange@CvImprovementEntry@@QBEHH@Z:PROC ; CvImprovementEntry::GetYieldChange
EXTRN	?isFeatureRemove@CvBuildInfo@@QBE_NH@Z:PROC	; CvBuildInfo::isFeatureRemove
EXTRN	?isOption@CvPlayer@@QBE_NW4PlayerOptionTypes@@@Z:PROC ; CvPlayer::isOption
EXTRN	?m_aPlayers@CvPlayerAI@@1PAV1@A:DWORD		; CvPlayerAI::m_aPlayers
EXTRN	__imp_?c_str@?$basic_string@DU?$char_traits@D@std@@V?$allocator@D@2@@std@@QBEPBDXZ:PROC
EXTRN	?GetAdjacentCity@CvPlot@@QBEPAVCvCity@@_N@Z:PROC ; CvPlot::GetAdjacentCity
EXTRN	?GetPlayerTraits@CvPlayer@@QBEPAVCvPlayerTraits@@XZ:PROC ; CvPlayer::GetPlayerTraits
EXTRN	?isWithinTeamCityRadius@CvPlot@@QBE_NW4TeamTypes@@W4PlayerTypes@@@Z:PROC ; CvPlot::isWithinTeamCityRadius
EXTRN	?getTeam@CvUnit@@QBE?AW4TeamTypes@@XZ:PROC	; CvUnit::getTeam
;	COMDAT ??_C@_0DC@BCGOLGBG@Weight?0Directive?5Score?5Added?0?$CFs?0@
; File d:\sources\lekmod_git\checkout\lekmod_dll\cvgamecoredllutil\include\cvweightedvector.h
CONST	SEGMENT
??_C@_0DC@BCGOLGBG@Weight?0Directive?5Score?5Added?0?$CFs?0@ DB 'Weight,D'
	DB	'irective Score Added,%s,,,,%i, %i, %i, %d', 00H ; `string'
CONST	ENDS
;	COMDAT ??_C@_0CF@NLMCLPJP@Weight?0Negative?5Score?0?$CFs?0?$CFi?0?0?0?$CFi@
CONST	SEGMENT
??_C@_0CF@NLMCLPJP@Weight?0Negative?5Score?0?$CFs?0?$CFi?0?0?0?$CFi@ DB 'W'
	DB	'eight,Negative Score,%s,%i,,,%i, %i', 00H	; `string'
CONST	ENDS
;	COMDAT ??_C@_0CB@MAEBKOFF@Weight?0Keep?5Forests?0?$CFs?0?0?0?0?$CFi?0?5?$CFi@
CONST	SEGMENT
??_C@_0CB@MAEBKOFF@Weight?0Keep?5Forests?0?$CFs?0?0?0?0?$CFi?0?5?$CFi@ DB 'W'
	DB	'eight,Keep Forests,%s,,,,%i, %i', 00H	; `string'
CONST	ENDS
;	COMDAT ??_C@_0CC@HIPJBJHD@Weight?0Jungle?5Remove?0?$CFs?0?0?0?0?$CFi?0?5?$CF@
CONST	SEGMENT
??_C@_0CC@HIPJBJHD@Weight?0Jungle?5Remove?0?$CFs?0?0?0?0?$CFi?0?5?$CF@ DB 'W'
	DB	'eight,Jungle Remove,%s,,,,%i, %i', 00H	; `string'
CONST	ENDS
;	COMDAT ??_C@_0CB@LLJKFMHM@Weight?0Marsh?5Remove?0?$CFs?0?0?0?0?$CFi?0?5?$CFi@
CONST	SEGMENT
??_C@_0CB@LLJKFMHM@Weight?0Marsh?5Remove?0?$CFs?0?0?0?0?$CFi?0?5?$CFi@ DB 'W'
	DB	'eight,Marsh Remove,%s,,,,%i, %i', 00H	; `string'
CONST	ENDS
;	COMDAT ??_C@_0CH@CNEEGBKG@Weight?0?$CBpUnit?9?$DOcanBuild?$CI?$CJ?0?$CFs?0?0?0?0@
CONST	SEGMENT
??_C@_0CH@CNEEGBKG@Weight?0?$CBpUnit?9?$DOcanBuild?$CI?$CJ?0?$CFs?0?0?0?0@ DB 'W'
	DB	'eight,!pUnit->canBuild(),%s,,,,%i, %i', 00H	; `string'
CONST	ENDS
;	COMDAT ??_C@_0EE@KLFGBAEO@Weight?0Improvement?5Type?5Blocked?5@
CONST	SEGMENT
??_C@_0EE@KLFGBAEO@Weight?0Improvement?5Type?5Blocked?5@ DB 'Weight,Impro'
	DB	'vement Type Blocked by Special Improvement,%s,,,,%i, %i', 00H ; `string'
CONST	ENDS
;	COMDAT ??_C@_0EC@LANMMDIG@Weight?0eImprovement?5?$DN?$DN?5pPlot?9?$DOge@
CONST	SEGMENT
??_C@_0EC@LANMMDIG@Weight?0eImprovement?5?$DN?$DN?5pPlot?9?$DOge@ DB 'Wei'
	DB	'ght,eImprovement == pPlot->getImprovementType(),%s,%i,,,%i, %'
	DB	'i', 00H					; `string'
CONST	ENDS
;	COMDAT ??_C@_0EL@LCKBJAAA@Weight?0?$CBpImprovement?9?$DOIsImprovem@
CONST	SEGMENT
??_C@_0EL@LCKBJAAA@Weight?0?$CBpImprovement?9?$DOIsImprovem@ DB 'Weight,!'
	DB	'pImprovement->IsImprovementResourceTrade(eResource),%s,%i,,,%'
	DB	'i, %i', 00H					; `string'
CONST	ENDS
;	COMDAT xdata$x
xdata$x	SEGMENT
__ehfuncinfo$?AddImprovingPlotsDirectives@CvBuilderTaskingAI@@QAEXPAVCvUnit@@PAVCvPlot@@H@Z DD 019930522H
	DD	09H
	DD	FLAT:__unwindtable$?AddImprovingPlotsDirectives@CvBuilderTaskingAI@@QAEXPAVCvUnit@@PAVCvPlot@@H@Z
	DD	2 DUP(00H)
	DD	2 DUP(00H)
	DD	00H
	DD	01H
__unwindtable$?AddImprovingPlotsDirectives@CvBuilderTaskingAI@@QAEXPAVCvUnit@@PAVCvPlot@@H@Z DD 0ffffffffH
	DD	FLAT:__unwindfunclet$?AddImprovingPlotsDirectives@CvBuilderTaskingAI@@QAEXPAVCvUnit@@PAVCvPlot@@H@Z$0
	DD	0ffffffffH
	DD	FLAT:__unwindfunclet$?AddImprovingPlotsDirectives@CvBuilderTaskingAI@@QAEXPAVCvUnit@@PAVCvPlot@@H@Z$2
	DD	0ffffffffH
	DD	FLAT:__unwindfunclet$?AddImprovingPlotsDirectives@CvBuilderTaskingAI@@QAEXPAVCvUnit@@PAVCvPlot@@H@Z$4
	DD	0ffffffffH
	DD	FLAT:__unwindfunclet$?AddImprovingPlotsDirectives@CvBuilderTaskingAI@@QAEXPAVCvUnit@@PAVCvPlot@@H@Z$6
	DD	0ffffffffH
	DD	FLAT:__unwindfunclet$?AddImprovingPlotsDirectives@CvBuilderTaskingAI@@QAEXPAVCvUnit@@PAVCvPlot@@H@Z$8
	DD	0ffffffffH
	DD	FLAT:__unwindfunclet$?AddImprovingPlotsDirectives@CvBuilderTaskingAI@@QAEXPAVCvUnit@@PAVCvPlot@@H@Z$10
	DD	0ffffffffH
	DD	FLAT:__unwindfunclet$?AddImprovingPlotsDirectives@CvBuilderTaskingAI@@QAEXPAVCvUnit@@PAVCvPlot@@H@Z$12
	DD	0ffffffffH
	DD	FLAT:__unwindfunclet$?AddImprovingPlotsDirectives@CvBuilderTaskingAI@@QAEXPAVCvUnit@@PAVCvPlot@@H@Z$14
	DD	0ffffffffH
	DD	FLAT:__unwindfunclet$?AddImprovingPlotsDirectives@CvBuilderTaskingAI@@QAEXPAVCvUnit@@PAVCvPlot@@H@Z$16
; Function compile flags: /Odtp
; File d:\sources\lekmod_git\checkout\lekmod_dll\cvgamecoredll_expansion2\cvbuildertaskingai.cpp
xdata$x	ENDS
;	COMDAT ?AddImprovingPlotsDirectives@CvBuilderTaskingAI@@QAEXPAVCvUnit@@PAVCvPlot@@H@Z
_TEXT	SEGMENT
tv770 = -716						; size = 4
tv765 = -712						; size = 4
tv760 = -708						; size = 4
tv755 = -704						; size = 4
tv750 = -700						; size = 4
tv745 = -696						; size = 4
tv740 = -692						; size = 4
tv735 = -688						; size = 4
tv730 = -684						; size = 4
_this$ = -680						; size = 4
$T221911 = -600						; size = 4
$T221906 = -596						; size = 4
$T221905 = -592						; size = 4
$T221888 = -585						; size = 1
$T221887 = -584						; size = 4
$T221883 = -580						; size = 4
$T221869 = -576						; size = 4
$T221864 = -572						; size = 4
$T221860 = -568						; size = 4
$T221856 = -564						; size = 4
$T221844 = -560						; size = 4
$T221839 = -556						; size = 4
$T221835 = -552						; size = 4
$T221831 = -548						; size = 4
$T221823 = -544						; size = 4
$T221819 = -540						; size = 4
$T221810 = -536						; size = 4
$T221809 = -532						; size = 4
$T221796 = -528						; size = 4
$T221791 = -524						; size = 4
$T221787 = -520						; size = 4
$T221783 = -516						; size = 4
$T221771 = -512						; size = 4
$T221766 = -508						; size = 4
$T221762 = -504						; size = 4
$T221758 = -500						; size = 4
_f$221750 = -493					; size = 1
$T221737 = -492						; size = 4
$T221732 = -488						; size = 4
$T221728 = -484						; size = 4
$T221724 = -480						; size = 4
$T221712 = -476						; size = 4
$T221707 = -472						; size = 4
$T221703 = -468						; size = 4
$T221699 = -464						; size = 4
$T221691 = -460						; size = 4
$T221687 = -456						; size = 4
$T221674 = -452						; size = 4
$T221669 = -448						; size = 4
$T221665 = -444						; size = 4
$T221661 = -440						; size = 4
$T221649 = -436						; size = 4
$T221644 = -432						; size = 4
$T221640 = -428						; size = 4
$T221636 = -424						; size = 4
_f$221628 = -417					; size = 1
$T221619 = -416						; size = 4
$T221610 = -412						; size = 4
$T221601 = -405						; size = 1
$T221600 = -404						; size = 4
$T221596 = -400						; size = 4
$T221595 = -396						; size = 4
$T221568 = -392						; size = 4
$T221567 = -388						; size = 4
$T221566 = -384						; size = 4
$T221565 = -380						; size = 4
$T221564 = -376						; size = 4
$T221563 = -372						; size = 4
$T221562 = -368						; size = 4
$T221561 = -364						; size = 4
$T221560 = -360						; size = 4
_strTemp$217658 = -356					; size = 28
_iAdjacentCulture$217652 = -328				; size = 4
_strTemp$217644 = -324					; size = 28
_strTemp$217638 = -296					; size = 28
_strTemp$217630 = -268					; size = 28
_strTemp$217624 = -240					; size = 28
_strTemp$217613 = -212					; size = 28
_strTemp$217608 = -184					; size = 28
_strTemp$217600 = -156					; size = 28
_strTemp$217593 = -128					; size = 28
__$ArrayPad$ = -100					; size = 4
_pkBuild$217584 = -96					; size = 4
_eDirectiveType$217647 = -92				; size = 4
_eImprovement$217586 = -88				; size = 4
_iWeight$217648 = -84					; size = 4
_pImprovement$217589 = -80				; size = 4
_directive$217656 = -76					; size = 20
_eFeature$217617 = -56					; size = 4
_iBuildTimeWeight$217654 = -52				; size = 4
_bWillRemoveForestOrJungle$217616 = -45			; size = 1
_iScore$217641 = -44					; size = 4
_pNextCity$217572 = -40					; size = 4
_eOriginalBuildType$ = -36				; size = 4
_pCity$ = -32						; size = 4
_eBuild$ = -28						; size = 4
_eExistingImprovement$ = -24				; size = 4
_eResource$ = -20					; size = 4
_iBuildIndex$ = -16					; size = 4
__$EHRec$ = -12						; size = 12
_pUnit$ = 8						; size = 4
_pPlot$ = 12						; size = 4
_iMoveTurnsAway$ = 16					; size = 4
?AddImprovingPlotsDirectives@CvBuilderTaskingAI@@QAEXPAVCvUnit@@PAVCvPlot@@H@Z PROC ; CvBuilderTaskingAI::AddImprovingPlotsDirectives, COMDAT
; _this$ = ecx

; 1234 : {

	push	ebp
	mov	ebp, esp
	push	-1
	push	__ehhandler$?AddImprovingPlotsDirectives@CvBuilderTaskingAI@@QAEXPAVCvUnit@@PAVCvPlot@@H@Z
	mov	eax, DWORD PTR fs:0
	push	eax
	sub	esp, 704				; 000002c0H
	mov	eax, DWORD PTR ___security_cookie
	xor	eax, ebp
	mov	DWORD PTR __$ArrayPad$[ebp], eax
	push	eax
	lea	eax, DWORD PTR __$EHRec$[ebp]
	mov	DWORD PTR fs:0, eax
	mov	DWORD PTR _this$[ebp], ecx

; 1235 : 	ImprovementTypes eExistingImprovement = pPlot->getImprovementType();

	mov	ecx, DWORD PTR _pPlot$[ebp]
	call	?getImprovementType@CvPlot@@QBE?AW4ImprovementTypes@@XZ ; CvPlot::getImprovementType
	mov	DWORD PTR _eExistingImprovement$[ebp], eax

; 1236 : 
; 1237 : 	// Do we have a special improvement here? (great person improvement, gifted improvement from major civ)
; 1238 : 	if(eExistingImprovement != NO_IMPROVEMENT && pPlot->HasSpecialImprovement() && !pPlot->IsImprovementPillaged())

	cmp	DWORD PTR _eExistingImprovement$[ebp], -1
	je	SHORT $LN49@AddImprovi@2
	mov	ecx, DWORD PTR _pPlot$[ebp]
	call	?HasSpecialImprovement@CvPlot@@QBE_NXZ	; CvPlot::HasSpecialImprovement
	movzx	eax, al
	test	eax, eax
	je	SHORT $LN49@AddImprovi@2
	mov	ecx, DWORD PTR _pPlot$[ebp]
	call	?IsImprovementPillaged@CvPlot@@QBE_NXZ	; CvPlot::IsImprovementPillaged
	movzx	ecx, al
	test	ecx, ecx
	jne	SHORT $LN49@AddImprovi@2

; 1239 : 	{
; 1240 : 		return;

	jmp	$LN50@AddImprovi@2
$LN49@AddImprovi@2:

; 1241 : 	}
; 1242 : 
; 1243 : 	// if it's not within a city radius
; 1244 : 	if(!pPlot->isWithinTeamCityRadius(pUnit->getTeam()))

	push	-1
	mov	ecx, DWORD PTR _pUnit$[ebp]
	call	?getTeam@CvUnit@@QBE?AW4TeamTypes@@XZ	; CvUnit::getTeam
	push	eax
	mov	ecx, DWORD PTR _pPlot$[ebp]
	call	?isWithinTeamCityRadius@CvPlot@@QBE_NW4TeamTypes@@W4PlayerTypes@@@Z ; CvPlot::isWithinTeamCityRadius
	movzx	edx, al
	test	edx, edx
	jne	SHORT $LN48@AddImprovi@2

; 1245 : 	{
; 1246 : 		return;

	jmp	$LN50@AddImprovi@2
$LN48@AddImprovi@2:

; 1247 : 	}
; 1248 : 
; 1249 : 	// check to see if a non-bonus resource is here. if so, bail out!
; 1250 : 	ResourceTypes eResource = pPlot->getResourceType(m_pPlayer->getTeam());

	mov	eax, DWORD PTR _this$[ebp]
	mov	ecx, DWORD PTR [eax]
	mov	DWORD PTR $T221595[ebp], ecx
	mov	edx, DWORD PTR $T221595[ebp]
	mov	eax, DWORD PTR [edx+44]
	push	eax
	call	?teamType@CvPreGame@@YA?AW4TeamTypes@@W4PlayerTypes@@@Z ; CvPreGame::teamType
	add	esp, 4
	mov	DWORD PTR $T221596[ebp], eax
	mov	ecx, DWORD PTR $T221596[ebp]
	push	ecx
	mov	ecx, DWORD PTR _pPlot$[ebp]
	call	?getResourceType@CvPlot@@QBE?AW4ResourceTypes@@W4TeamTypes@@@Z ; CvPlot::getResourceType
	mov	DWORD PTR _eResource$[ebp], eax

; 1251 : 	if(eResource != NO_RESOURCE)

	cmp	DWORD PTR _eResource$[ebp], -1
	je	SHORT $LN47@AddImprovi@2

; 1252 : 	{
; 1253 : 		if(GC.getResourceInfo(eResource)->getResourceUsage() != RESOURCEUSAGE_BONUS)

	mov	edx, DWORD PTR _eResource$[ebp]
	push	edx
	mov	ecx, OFFSET ?gGlobals@@3VCvGlobals@@A	; gGlobals
	call	?getResourceInfo@CvGlobals@@QAEPAVCvResourceInfo@@W4ResourceTypes@@@Z ; CvGlobals::getResourceInfo
	mov	ecx, eax
	call	?getResourceUsage@CvResourceInfo@@QBE?AW4ResourceUsageTypes@@XZ ; CvResourceInfo::getResourceUsage
	test	eax, eax
	je	SHORT $LN47@AddImprovi@2

; 1254 : 		{
; 1255 : 			return;

	jmp	$LN50@AddImprovi@2
$LN47@AddImprovi@2:

; 1256 : 		}
; 1257 : 	}
; 1258 : #ifdef AUI_WORKER_UNHARDCODE_NO_REMOVE_FEATURE_THAT_IS_REQUIRED_FOR_UNIQUE_IMPROVEMENT
; 1259 : 	FeatureTypes eFeature = pPlot->getFeatureType();
; 1260 : #endif
; 1261 : 
; 1262 : 	// celtic rule: if this is a forest tile next to a city, do not improve this tile with a normal improvement
; 1263 : 	if (m_pPlayer->GetPlayerTraits()->IsFaithFromUnimprovedForest() && eExistingImprovement == NO_IMPROVEMENT)

	mov	eax, DWORD PTR _this$[ebp]
	mov	ecx, DWORD PTR [eax]
	call	?GetPlayerTraits@CvPlayer@@QBEPAVCvPlayerTraits@@XZ ; CvPlayer::GetPlayerTraits
	mov	DWORD PTR $T221600[ebp], eax
	mov	ecx, DWORD PTR $T221600[ebp]
	mov	dl, BYTE PTR [ecx+341]
	mov	BYTE PTR $T221601[ebp], dl
	movzx	eax, BYTE PTR $T221601[ebp]
	test	eax, eax
	je	SHORT $LN45@AddImprovi@2
	cmp	DWORD PTR _eExistingImprovement$[ebp], -1
	jne	SHORT $LN45@AddImprovi@2

; 1264 : 	{
; 1265 : 		CvCity* pNextCity = pPlot->GetAdjacentCity();

	push	0
	mov	ecx, DWORD PTR _pPlot$[ebp]
	call	?GetAdjacentCity@CvPlot@@QBEPAVCvCity@@_N@Z ; CvPlot::GetAdjacentCity
	mov	DWORD PTR _pNextCity$217572[ebp], eax

; 1266 : 		if (pNextCity && pNextCity->getOwner() == m_pPlayer->GetID())

	cmp	DWORD PTR _pNextCity$217572[ebp], 0
	je	SHORT $LN45@AddImprovi@2
	mov	ecx, DWORD PTR _pNextCity$217572[ebp]
	mov	edx, DWORD PTR [ecx+84]
	mov	DWORD PTR $T221610[ebp], edx
	mov	eax, DWORD PTR _this$[ebp]
	mov	ecx, DWORD PTR [eax]
	mov	edx, DWORD PTR [ecx+44]
	mov	DWORD PTR $T221619[ebp], edx
	mov	eax, DWORD PTR $T221610[ebp]
	cmp	eax, DWORD PTR $T221619[ebp]
	jne	SHORT $LN45@AddImprovi@2

; 1267 : 		{
; 1268 : #ifdef AUI_WORKER_UNHARDCODE_NO_REMOVE_FEATURE_THAT_IS_REQUIRED_FOR_UNIQUE_IMPROVEMENT
; 1269 : 			if (eFeature == FEATURE_FOREST)
; 1270 : #else
; 1271 : 			if (pPlot->getFeatureType() == FEATURE_FOREST)

	mov	ecx, DWORD PTR _pPlot$[ebp]
	mov	dl, BYTE PTR [ecx+432]
	mov	BYTE PTR _f$221628[ebp], dl
	movsx	eax, BYTE PTR _f$221628[ebp]
	cmp	eax, 5
	jne	SHORT $LN45@AddImprovi@2

; 1272 : #endif
; 1273 : 			{
; 1274 : 				return;

	jmp	$LN50@AddImprovi@2
$LN45@AddImprovi@2:

; 1275 : 			}
; 1276 : 		}
; 1277 : 	}
; 1278 : 
; 1279 : #ifdef AUI_WORKER_FIX_SHOULD_BUILDER_CONSIDER_PLOT_EXISTING_BUILD_MISSIONS_SHIFT
; 1280 : 	// check to see if someone already has a conflicting mission here
; 1281 : 	if (pUnit->GetMissionAIPlot() != pPlot)
; 1282 : 	{
; 1283 : 		int iLoop;
; 1284 : 		for (CvUnit* pLoopUnit = m_pPlayer->firstUnit(&iLoop); pLoopUnit != NULL; pLoopUnit = m_pPlayer->nextUnit(&iLoop))
; 1285 : 		{
; 1286 : 			if (pUnit == pLoopUnit)
; 1287 : 			{
; 1288 : 				continue;
; 1289 : 			}
; 1290 : 
; 1291 : 			CvPlot* pMissionPlot = pLoopUnit->GetMissionAIPlot();
; 1292 : 			if (!pMissionPlot)
; 1293 : 			{
; 1294 : 				continue;
; 1295 : 			}
; 1296 : 
; 1297 : 			MissionAITypes eGroupMissionAI = pLoopUnit->GetMissionAIType();
; 1298 : 			if (eGroupMissionAI != MISSIONAI_BUILD)
; 1299 : 			{
; 1300 : 				continue;
; 1301 : 			}
; 1302 : 
; 1303 : 			if (pPlot->getX() == pMissionPlot->getX() && pPlot->getY() == pMissionPlot->getY())
; 1304 : 			{
; 1305 : 				BuildTypes eOtherBuild = pLoopUnit->getBuildType();
; 1306 : 				CvBuildInfo* pkBuild = GC.getBuildInfo(eOtherBuild);
; 1307 : 				if (pkBuild != NULL)
; 1308 : 				{
; 1309 : 					ImprovementTypes eImprovement = (ImprovementTypes)pkBuild->getImprovement();
; 1310 : 					if (eImprovement != NO_IMPROVEMENT || (eOtherBuild == m_eRepairBuild && eExistingImprovement != NO_IMPROVEMENT))
; 1311 : 					{
; 1312 : 						if (m_bLogging)
; 1313 : 						{
; 1314 : 							CvString strLog;
; 1315 : 							strLog.Format("x: %d y: %d, Somebody has a conflicting mission here.", pPlot->getX(), pPlot->getY());
; 1316 : 							LogInfo(strLog, m_pPlayer, true);
; 1317 : 						}
; 1318 : 						return;
; 1319 : 					}
; 1320 : 				}
; 1321 : 			}
; 1322 : 		}
; 1323 : 	}
; 1324 : #endif
; 1325 : 
; 1326 : 	CvCity* pCity = GetWorkingCity(pPlot);

	mov	ecx, DWORD PTR _pPlot$[ebp]
	push	ecx
	mov	ecx, DWORD PTR _this$[ebp]
	call	?GetWorkingCity@CvBuilderTaskingAI@@QAEPAVCvCity@@PAVCvPlot@@@Z ; CvBuilderTaskingAI::GetWorkingCity
	mov	DWORD PTR _pCity$[ebp], eax

; 1327 : #ifndef AUI_WORKER_ADD_IMPROVING_PLOTS_DIRECTIVE_DEFENSIVES
; 1328 : 	if(!pCity)

	cmp	DWORD PTR _pCity$[ebp], 0
	jne	SHORT $LN42@AddImprovi@2

; 1329 : 	{
; 1330 : 		return;

	jmp	$LN50@AddImprovi@2
$LN42@AddImprovi@2:

; 1331 : 	}
; 1332 : #endif
; 1333 : 
; 1334 : 	// loop through the build types to find one that we can use
; 1335 : 	BuildTypes eBuild;
; 1336 : 	BuildTypes eOriginalBuildType;
; 1337 : #ifdef AUI_WARNING_FIXES
; 1338 : 	uint iBuildIndex;
; 1339 : #else
; 1340 : 	int iBuildIndex;
; 1341 : #endif
; 1342 : #ifdef AUI_WORKER_UNHARDCODE_NO_REMOVE_FEATURE_THAT_IS_REQUIRED_FOR_UNIQUE_IMPROVEMENT
; 1343 : 	int iLoopScore;
; 1344 : 	int iBestUniqueImprovementWeight = 0;
; 1345 : 	for (uint iI = 0; iI < m_pPlayer->GetNumUniqueImprovements(); iI++)
; 1346 : 	{
; 1347 : 		ImprovementTypes eUniqueImprovement = m_pPlayer->GetUniqueImprovement(iI);
; 1348 : 		if (eUniqueImprovement != NO_IMPROVEMENT)
; 1349 : 		{
; 1350 : 			CvImprovementEntry* pUniqueImprovement = GC.getImprovementInfo(eUniqueImprovement);
; 1351 : 			if (pUniqueImprovement && pUniqueImprovement->IsRequiresFeature() && pUniqueImprovement->GetFeatureMakesValid(eFeature))
; 1352 : 			{
; 1353 : 				eBuild = m_pPlayer->GetUniqueImprovementBuild(iI);
; 1354 : #ifdef AUI_WORKER_ADD_IMPROVING_PLOTS_DIRECTIVE_DEFENSIVES
; 1355 : 				iLoopScore = 0;
; 1356 : 				if (pCity)
; 1357 : 				{
; 1358 : 					UpdateProjectedPlotYields(pPlot, eBuild);
; 1359 : #ifdef AUI_WORKER_SCORE_PLOT_CHOP
; 1360 : 					iLoopScore = ScorePlot(eBuild);
; 1361 : #else
; 1362 : 					iLoopScore = ScorePlot();
; 1363 : #endif
; 1364 : 				}
; 1365 : 				if (!pCity || iLoopScore > 0)
; 1366 : 				{
; 1367 : 					int iBaseDefenseBonus = (pPlot->isHills() || pPlot->isMountain() ? GC.getHILLS_EXTRA_DEFENSE() : GC.getFeatureInfo(eFeature)->getDefenseModifier());
; 1368 : 					iLoopScore += (pUniqueImprovement->GetDefenseModifier() + iBaseDefenseBonus) * pPlot->getStrategicValue() / (100 * GC.getCHOKEPOINT_STRATEGIC_VALUE());
; 1369 : 				}
; 1370 : #else
; 1371 : 				UpdateProjectedPlotYields(pPlot, eBuild);
; 1372 : #ifdef AUI_WORKER_SCORE_PLOT_CHOP
; 1373 : 				iLoopScore = ScorePlot(eBuild);
; 1374 : #else
; 1375 : 				iLoopScore = ScorePlot();
; 1376 : #endif
; 1377 : #endif
; 1378 : 				int iWeight = GC.getBUILDER_TASKING_BASELINE_BUILD_IMPROVEMENTS();
; 1379 : 				iWeight = GetBuildCostWeight(iWeight, pPlot, eBuild);
; 1380 : 				iWeight += GetBuildTimeWeight(pUnit, pPlot, eBuild, DoesBuildHelpRush(pUnit, pPlot, eBuild), iMoveTurnsAway);
; 1381 : 				iWeight *= iLoopScore;
; 1382 : 				iWeight = CorrectWeight(iWeight);
; 1383 : 
; 1384 : 				if (iWeight > iBestUniqueImprovementWeight)
; 1385 : 					iBestUniqueImprovementWeight = iWeight;
; 1386 : 			}
; 1387 : 		}
; 1388 : 	}
; 1389 : #endif
; 1390 : 	for(iBuildIndex = 0; iBuildIndex < GC.getNumBuildInfos(); iBuildIndex++)

	mov	DWORD PTR _iBuildIndex$[ebp], 0
	jmp	SHORT $LN41@AddImprovi@2
$LN40@AddImprovi@2:
	mov	edx, DWORD PTR _iBuildIndex$[ebp]
	add	edx, 1
	mov	DWORD PTR _iBuildIndex$[ebp], edx
$LN41@AddImprovi@2:
	mov	ecx, OFFSET ?gGlobals@@3VCvGlobals@@A	; gGlobals
	call	?getNumBuildInfos@CvGlobals@@QAEHXZ	; CvGlobals::getNumBuildInfos
	cmp	DWORD PTR _iBuildIndex$[ebp], eax
	jge	$LN50@AddImprovi@2

; 1391 : 	{
; 1392 : 		eBuild = (BuildTypes)iBuildIndex;

	mov	eax, DWORD PTR _iBuildIndex$[ebp]
	mov	DWORD PTR _eBuild$[ebp], eax

; 1393 : 		eOriginalBuildType = eBuild;

	mov	ecx, DWORD PTR _eBuild$[ebp]
	mov	DWORD PTR _eOriginalBuildType$[ebp], ecx

; 1394 : 		CvBuildInfo* pkBuild = GC.getBuildInfo(eBuild);

	mov	edx, DWORD PTR _eBuild$[ebp]
	push	edx
	mov	ecx, OFFSET ?gGlobals@@3VCvGlobals@@A	; gGlobals
	call	?getBuildInfo@CvGlobals@@QAEPAVCvBuildInfo@@W4BuildTypes@@@Z ; CvGlobals::getBuildInfo
	mov	DWORD PTR _pkBuild$217584[ebp], eax

; 1395 : 		if(pkBuild == NULL)

	cmp	DWORD PTR _pkBuild$217584[ebp], 0
	jne	SHORT $LN38@AddImprovi@2

; 1396 : 		{
; 1397 : 			continue;

	jmp	SHORT $LN40@AddImprovi@2
$LN38@AddImprovi@2:

; 1398 : 		}
; 1399 : 
; 1400 : 		ImprovementTypes eImprovement = (ImprovementTypes)pkBuild->getImprovement();

	mov	ecx, DWORD PTR _pkBuild$217584[ebp]
	call	?getImprovement@CvBuildInfo@@QBEHXZ	; CvBuildInfo::getImprovement
	mov	DWORD PTR _eImprovement$217586[ebp], eax

; 1401 : 		if(eImprovement == NO_IMPROVEMENT)

	cmp	DWORD PTR _eImprovement$217586[ebp], -1
	jne	SHORT $LN37@AddImprovi@2

; 1402 : 		{
; 1403 : 			continue;

	jmp	SHORT $LN40@AddImprovi@2
$LN37@AddImprovi@2:

; 1404 : 		}
; 1405 : 
; 1406 : 		CvImprovementEntry* pImprovement = GC.getImprovementInfo(eImprovement);

	mov	eax, DWORD PTR _eImprovement$217586[ebp]
	push	eax
	mov	ecx, OFFSET ?gGlobals@@3VCvGlobals@@A	; gGlobals
	call	?getImprovementInfo@CvGlobals@@QAEPAVCvImprovementEntry@@W4ImprovementTypes@@@Z ; CvGlobals::getImprovementInfo
	mov	DWORD PTR _pImprovement$217589[ebp], eax

; 1407 : 
; 1408 : #ifdef AUI_WORKER_ADD_IMPROVING_PLOTS_DIRECTIVE_DEFENSIVES
; 1409 : 		// If the improvement has no defensive effect, skip it
; 1410 : 		if (pImprovement->GetDefenseModifier() == 0 && !pCity)
; 1411 : 		{
; 1412 : 			continue;
; 1413 : 		}
; 1414 : #else
; 1415 : 		// if this improvement has a defense modifier, ignore it for now
; 1416 : 		//if(pImprovement->GetDefenseModifier() > 0)
; 1417 : 		//{
; 1418 : 		//	continue;
; 1419 : 		//}
; 1420 : #endif
; 1421 : 
; 1422 : #ifndef AUI_WORKER_FIX_IMPROVING_PLOTS_DIRECTIVE_DONT_REQUIRE_BONUS_RESOURCE_UNLOCKER
; 1423 : 		// for bonus resources, check to see if this is the improvement that connects it
; 1424 : 		if(eResource != NO_RESOURCE)

	cmp	DWORD PTR _eResource$[ebp], -1
	je	$LN36@AddImprovi@2

; 1425 : 		{
; 1426 : 			if(!pImprovement->IsImprovementResourceTrade(eResource))

	mov	ecx, DWORD PTR _eResource$[ebp]
	push	ecx
	mov	ecx, DWORD PTR _pImprovement$217589[ebp]
	call	?IsImprovementResourceTrade@CvImprovementEntry@@QBE_NH@Z ; CvImprovementEntry::IsImprovementResourceTrade
	movzx	edx, al
	test	edx, edx
	jne	$LN36@AddImprovi@2

; 1427 : 			{
; 1428 : 				if(m_bLogging){

	mov	eax, DWORD PTR _this$[ebp]
	movzx	ecx, BYTE PTR [eax+58392]
	test	ecx, ecx
	je	$LN34@AddImprovi@2

; 1429 : 					CvString strTemp;

	lea	ecx, DWORD PTR _strTemp$217593[ebp]
	call	DWORD PTR __imp_??0?$basic_string@DU?$char_traits@D@std@@V?$allocator@D@2@@std@@QAE@XZ
	mov	DWORD PTR __$EHRec$[ebp+8], 0

; 1430 : 					strTemp.Format("Weight,!pImprovement->IsImprovementResourceTrade(eResource),%s,%i,,,%i, %i", GC.getBuildInfo(eBuild)->GetType(), eResource, pPlot->getX(), pPlot->getY());

	mov	edx, DWORD PTR _pPlot$[ebp]
	movsx	eax, WORD PTR [edx+2]
	mov	DWORD PTR $T221636[ebp], eax
	mov	ecx, DWORD PTR _pPlot$[ebp]
	movsx	edx, WORD PTR [ecx]
	mov	DWORD PTR $T221640[ebp], edx
	mov	eax, DWORD PTR _eBuild$[ebp]
	push	eax
	mov	ecx, OFFSET ?gGlobals@@3VCvGlobals@@A	; gGlobals
	call	?getBuildInfo@CvGlobals@@QAEPAVCvBuildInfo@@W4BuildTypes@@@Z ; CvGlobals::getBuildInfo
	mov	DWORD PTR $T221644[ebp], eax
	mov	ecx, DWORD PTR $T221636[ebp]
	push	ecx
	mov	edx, DWORD PTR $T221640[ebp]
	push	edx
	mov	eax, DWORD PTR _eResource$[ebp]
	push	eax
	mov	ecx, DWORD PTR $T221644[ebp]
	add	ecx, 176				; 000000b0H
	call	DWORD PTR __imp_?c_str@?$basic_string@DU?$char_traits@D@std@@V?$allocator@D@2@@std@@QBEPBDXZ
	push	eax
	push	OFFSET ??_C@_0EL@LCKBJAAA@Weight?0?$CBpImprovement?9?$DOIsImprovem@
	lea	ecx, DWORD PTR _strTemp$217593[ebp]
	push	ecx
	call	?Format@CvString@@QAAXPBDZZ		; CvString::Format
	add	esp, 24					; 00000018H

; 1431 : 					LogInfo(strTemp, m_pPlayer);

	push	0
	mov	edx, DWORD PTR _this$[ebp]
	mov	eax, DWORD PTR [edx]
	push	eax
	sub	esp, 28					; 0000001cH
	mov	ecx, esp
	mov	DWORD PTR $T221560[ebp], esp
	mov	DWORD PTR $T221649[ebp], ecx
	lea	edx, DWORD PTR _strTemp$217593[ebp]
	push	edx
	mov	ecx, DWORD PTR $T221649[ebp]
	call	DWORD PTR __imp_??0?$basic_string@DU?$char_traits@D@std@@V?$allocator@D@2@@std@@QAE@ABV01@@Z
	mov	eax, DWORD PTR $T221649[ebp]
	mov	DWORD PTR tv730[ebp], eax
	call	?LogInfo@CvBuilderTaskingAI@@SAXVCvString@@PAVCvPlayer@@_N@Z ; CvBuilderTaskingAI::LogInfo
	add	esp, 36					; 00000024H

; 1432 : 				}

	mov	DWORD PTR __$EHRec$[ebp+8], -1
	lea	ecx, DWORD PTR _strTemp$217593[ebp]
	call	DWORD PTR __imp_??1?$basic_string@DU?$char_traits@D@std@@V?$allocator@D@2@@std@@QAE@XZ
$LN34@AddImprovi@2:

; 1433 : 				continue;

	jmp	$LN40@AddImprovi@2
$LN36@AddImprovi@2:

; 1434 : 			}
; 1435 : 		}
; 1436 : #endif
; 1437 : 
; 1438 : 		if(eImprovement == pPlot->getImprovementType())

	mov	ecx, DWORD PTR _pPlot$[ebp]
	call	?getImprovementType@CvPlot@@QBE?AW4ImprovementTypes@@XZ ; CvPlot::getImprovementType
	cmp	DWORD PTR _eImprovement$217586[ebp], eax
	jne	$LN33@AddImprovi@2

; 1439 : 		{
; 1440 : 			if(pPlot->IsImprovementPillaged())

	mov	ecx, DWORD PTR _pPlot$[ebp]
	call	?IsImprovementPillaged@CvPlot@@QBE_NXZ	; CvPlot::IsImprovementPillaged
	movzx	ecx, al
	test	ecx, ecx
	je	SHORT $LN32@AddImprovi@2

; 1441 : 			{
; 1442 : 				eBuild = m_eRepairBuild;

	mov	edx, DWORD PTR _this$[ebp]
	mov	eax, DWORD PTR [edx+4]
	mov	DWORD PTR _eBuild$[ebp], eax

; 1443 : 			}
; 1444 : 			else

	jmp	$LN31@AddImprovi@2
$LN32@AddImprovi@2:

; 1445 : 			{
; 1446 : 				if(m_bLogging){

	mov	ecx, DWORD PTR _this$[ebp]
	movzx	edx, BYTE PTR [ecx+58392]
	test	edx, edx
	je	$LN30@AddImprovi@2

; 1447 : 					CvString strTemp;

	lea	ecx, DWORD PTR _strTemp$217600[ebp]
	call	DWORD PTR __imp_??0?$basic_string@DU?$char_traits@D@std@@V?$allocator@D@2@@std@@QAE@XZ
	mov	DWORD PTR __$EHRec$[ebp+8], 1

; 1448 : 					strTemp.Format("Weight,eImprovement == pPlot->getImprovementType(),%s,%i,,,%i, %i", GC.getBuildInfo(eBuild)->GetType(), eImprovement, pPlot->getX(), pPlot->getY());

	mov	eax, DWORD PTR _pPlot$[ebp]
	movsx	ecx, WORD PTR [eax+2]
	mov	DWORD PTR $T221661[ebp], ecx
	mov	edx, DWORD PTR _pPlot$[ebp]
	movsx	eax, WORD PTR [edx]
	mov	DWORD PTR $T221665[ebp], eax
	mov	ecx, DWORD PTR _eBuild$[ebp]
	push	ecx
	mov	ecx, OFFSET ?gGlobals@@3VCvGlobals@@A	; gGlobals
	call	?getBuildInfo@CvGlobals@@QAEPAVCvBuildInfo@@W4BuildTypes@@@Z ; CvGlobals::getBuildInfo
	mov	DWORD PTR $T221669[ebp], eax
	mov	edx, DWORD PTR $T221661[ebp]
	push	edx
	mov	eax, DWORD PTR $T221665[ebp]
	push	eax
	mov	ecx, DWORD PTR _eImprovement$217586[ebp]
	push	ecx
	mov	ecx, DWORD PTR $T221669[ebp]
	add	ecx, 176				; 000000b0H
	call	DWORD PTR __imp_?c_str@?$basic_string@DU?$char_traits@D@std@@V?$allocator@D@2@@std@@QBEPBDXZ
	push	eax
	push	OFFSET ??_C@_0EC@LANMMDIG@Weight?0eImprovement?5?$DN?$DN?5pPlot?9?$DOge@
	lea	edx, DWORD PTR _strTemp$217600[ebp]
	push	edx
	call	?Format@CvString@@QAAXPBDZZ		; CvString::Format
	add	esp, 24					; 00000018H

; 1449 : 					LogInfo(strTemp, m_pPlayer);

	push	0
	mov	eax, DWORD PTR _this$[ebp]
	mov	ecx, DWORD PTR [eax]
	push	ecx
	sub	esp, 28					; 0000001cH
	mov	edx, esp
	mov	DWORD PTR $T221561[ebp], esp
	mov	DWORD PTR $T221674[ebp], edx
	lea	eax, DWORD PTR _strTemp$217600[ebp]
	push	eax
	mov	ecx, DWORD PTR $T221674[ebp]
	call	DWORD PTR __imp_??0?$basic_string@DU?$char_traits@D@std@@V?$allocator@D@2@@std@@QAE@ABV01@@Z
	mov	ecx, DWORD PTR $T221674[ebp]
	mov	DWORD PTR tv735[ebp], ecx
	call	?LogInfo@CvBuilderTaskingAI@@SAXVCvString@@PAVCvPlayer@@_N@Z ; CvBuilderTaskingAI::LogInfo
	add	esp, 36					; 00000024H

; 1450 : 				}

	mov	DWORD PTR __$EHRec$[ebp+8], -1
	lea	ecx, DWORD PTR _strTemp$217600[ebp]
	call	DWORD PTR __imp_??1?$basic_string@DU?$char_traits@D@std@@V?$allocator@D@2@@std@@QAE@XZ
$LN30@AddImprovi@2:

; 1451 : 				continue;

	jmp	$LN40@AddImprovi@2
$LN31@AddImprovi@2:

; 1452 : 			}
; 1453 : 		}
; 1454 : 		else

	jmp	$LN29@AddImprovi@2
$LN33@AddImprovi@2:

; 1455 : 		{
; 1456 : 			// Do we have a special improvement here? (great person improvement, gifted improvement from major civ)
; 1457 : 			if (eExistingImprovement != NO_IMPROVEMENT)

	cmp	DWORD PTR _eExistingImprovement$[ebp], -1
	je	$LN29@AddImprovi@2

; 1458 : 			{
; 1459 : 				if (pPlot->HasSpecialImprovement() || GET_PLAYER(pUnit->getOwner()).isOption(PLAYEROPTION_SAFE_AUTOMATION))

	mov	ecx, DWORD PTR _pPlot$[ebp]
	call	?HasSpecialImprovement@CvPlot@@QBE_NXZ	; CvPlot::HasSpecialImprovement
	movzx	edx, al
	test	edx, edx
	jne	SHORT $LN26@AddImprovi@2
	mov	eax, DWORD PTR _pUnit$[ebp]
	mov	ecx, DWORD PTR [eax+40]
	mov	DWORD PTR $T221687[ebp], ecx
	mov	edx, DWORD PTR $T221687[ebp]
	imul	edx, 63236				; 0000f704H
	add	edx, DWORD PTR ?m_aPlayers@CvPlayerAI@@1PAV1@A ; CvPlayerAI::m_aPlayers
	mov	DWORD PTR $T221691[ebp], edx
	push	5
	mov	ecx, DWORD PTR $T221691[ebp]
	call	?isOption@CvPlayer@@QBE_NW4PlayerOptionTypes@@@Z ; CvPlayer::isOption
	movzx	eax, al
	test	eax, eax
	je	$LN29@AddImprovi@2
$LN26@AddImprovi@2:

; 1460 : 				{
; 1461 : 					if(m_bLogging){

	mov	ecx, DWORD PTR _this$[ebp]
	movzx	edx, BYTE PTR [ecx+58392]
	test	edx, edx
	je	$LN25@AddImprovi@2

; 1462 : 						CvString strTemp;

	lea	ecx, DWORD PTR _strTemp$217608[ebp]
	call	DWORD PTR __imp_??0?$basic_string@DU?$char_traits@D@std@@V?$allocator@D@2@@std@@QAE@XZ
	mov	DWORD PTR __$EHRec$[ebp+8], 2

; 1463 : 						strTemp.Format("Weight,Improvement Type Blocked by Special Improvement,%s,,,,%i, %i", GC.getBuildInfo(eBuild)->GetType(), pPlot->getX(), pPlot->getY());

	mov	eax, DWORD PTR _pPlot$[ebp]
	movsx	ecx, WORD PTR [eax+2]
	mov	DWORD PTR $T221699[ebp], ecx
	mov	edx, DWORD PTR _pPlot$[ebp]
	movsx	eax, WORD PTR [edx]
	mov	DWORD PTR $T221703[ebp], eax
	mov	ecx, DWORD PTR _eBuild$[ebp]
	push	ecx
	mov	ecx, OFFSET ?gGlobals@@3VCvGlobals@@A	; gGlobals
	call	?getBuildInfo@CvGlobals@@QAEPAVCvBuildInfo@@W4BuildTypes@@@Z ; CvGlobals::getBuildInfo
	mov	DWORD PTR $T221707[ebp], eax
	mov	edx, DWORD PTR $T221699[ebp]
	push	edx
	mov	eax, DWORD PTR $T221703[ebp]
	push	eax
	mov	ecx, DWORD PTR $T221707[ebp]
	add	ecx, 176				; 000000b0H
	call	DWORD PTR __imp_?c_str@?$basic_string@DU?$char_traits@D@std@@V?$allocator@D@2@@std@@QBEPBDXZ
	push	eax
	push	OFFSET ??_C@_0EE@KLFGBAEO@Weight?0Improvement?5Type?5Blocked?5@
	lea	ecx, DWORD PTR _strTemp$217608[ebp]
	push	ecx
	call	?Format@CvString@@QAAXPBDZZ		; CvString::Format
	add	esp, 20					; 00000014H

; 1464 : 						LogInfo(strTemp, m_pPlayer);

	push	0
	mov	edx, DWORD PTR _this$[ebp]
	mov	eax, DWORD PTR [edx]
	push	eax
	sub	esp, 28					; 0000001cH
	mov	ecx, esp
	mov	DWORD PTR $T221562[ebp], esp
	mov	DWORD PTR $T221712[ebp], ecx
	lea	edx, DWORD PTR _strTemp$217608[ebp]
	push	edx
	mov	ecx, DWORD PTR $T221712[ebp]
	call	DWORD PTR __imp_??0?$basic_string@DU?$char_traits@D@std@@V?$allocator@D@2@@std@@QAE@ABV01@@Z
	mov	eax, DWORD PTR $T221712[ebp]
	mov	DWORD PTR tv740[ebp], eax
	call	?LogInfo@CvBuilderTaskingAI@@SAXVCvString@@PAVCvPlayer@@_N@Z ; CvBuilderTaskingAI::LogInfo
	add	esp, 36					; 00000024H

; 1465 : 					}

	mov	DWORD PTR __$EHRec$[ebp+8], -1
	lea	ecx, DWORD PTR _strTemp$217608[ebp]
	call	DWORD PTR __imp_??1?$basic_string@DU?$char_traits@D@std@@V?$allocator@D@2@@std@@QAE@XZ
$LN25@AddImprovi@2:

; 1466 : 					continue;

	jmp	$LN40@AddImprovi@2
$LN29@AddImprovi@2:

; 1467 : 				}
; 1468 : 			}
; 1469 : 		}
; 1470 : 
; 1471 : 		// Only check to make sure our unit can build this after possibly switching this to a repair build in the block of code above
; 1472 : 		if(!pUnit->canBuild(pPlot, eBuild))

	push	1
	push	0
	mov	ecx, DWORD PTR _eBuild$[ebp]
	push	ecx
	mov	edx, DWORD PTR _pPlot$[ebp]
	push	edx
	mov	ecx, DWORD PTR _pUnit$[ebp]
	call	?canBuild@CvUnit@@QBE_NPBVCvPlot@@W4BuildTypes@@_N2@Z ; CvUnit::canBuild
	movzx	eax, al
	test	eax, eax
	jne	$LN24@AddImprovi@2

; 1473 : 		{
; 1474 : 			if(m_bLogging){

	mov	ecx, DWORD PTR _this$[ebp]
	movzx	edx, BYTE PTR [ecx+58392]
	test	edx, edx
	je	$LN23@AddImprovi@2

; 1475 : 				CvString strTemp;

	lea	ecx, DWORD PTR _strTemp$217613[ebp]
	call	DWORD PTR __imp_??0?$basic_string@DU?$char_traits@D@std@@V?$allocator@D@2@@std@@QAE@XZ
	mov	DWORD PTR __$EHRec$[ebp+8], 3

; 1476 : 				strTemp.Format("Weight,!pUnit->canBuild(),%s,,,,%i, %i", GC.getBuildInfo(eBuild)->GetType(), pPlot->getX(), pPlot->getY());

	mov	eax, DWORD PTR _pPlot$[ebp]
	movsx	ecx, WORD PTR [eax+2]
	mov	DWORD PTR $T221724[ebp], ecx
	mov	edx, DWORD PTR _pPlot$[ebp]
	movsx	eax, WORD PTR [edx]
	mov	DWORD PTR $T221728[ebp], eax
	mov	ecx, DWORD PTR _eBuild$[ebp]
	push	ecx
	mov	ecx, OFFSET ?gGlobals@@3VCvGlobals@@A	; gGlobals
	call	?getBuildInfo@CvGlobals@@QAEPAVCvBuildInfo@@W4BuildTypes@@@Z ; CvGlobals::getBuildInfo
	mov	DWORD PTR $T221732[ebp], eax
	mov	edx, DWORD PTR $T221724[ebp]
	push	edx
	mov	eax, DWORD PTR $T221728[ebp]
	push	eax
	mov	ecx, DWORD PTR $T221732[ebp]
	add	ecx, 176				; 000000b0H
	call	DWORD PTR __imp_?c_str@?$basic_string@DU?$char_traits@D@std@@V?$allocator@D@2@@std@@QBEPBDXZ
	push	eax
	push	OFFSET ??_C@_0CH@CNEEGBKG@Weight?0?$CBpUnit?9?$DOcanBuild?$CI?$CJ?0?$CFs?0?0?0?0@
	lea	ecx, DWORD PTR _strTemp$217613[ebp]
	push	ecx
	call	?Format@CvString@@QAAXPBDZZ		; CvString::Format
	add	esp, 20					; 00000014H

; 1477 : 				LogInfo(strTemp, m_pPlayer);

	push	0
	mov	edx, DWORD PTR _this$[ebp]
	mov	eax, DWORD PTR [edx]
	push	eax
	sub	esp, 28					; 0000001cH
	mov	ecx, esp
	mov	DWORD PTR $T221563[ebp], esp
	mov	DWORD PTR $T221737[ebp], ecx
	lea	edx, DWORD PTR _strTemp$217613[ebp]
	push	edx
	mov	ecx, DWORD PTR $T221737[ebp]
	call	DWORD PTR __imp_??0?$basic_string@DU?$char_traits@D@std@@V?$allocator@D@2@@std@@QAE@ABV01@@Z
	mov	eax, DWORD PTR $T221737[ebp]
	mov	DWORD PTR tv745[ebp], eax
	call	?LogInfo@CvBuilderTaskingAI@@SAXVCvString@@PAVCvPlayer@@_N@Z ; CvBuilderTaskingAI::LogInfo
	add	esp, 36					; 00000024H

; 1478 : 			}

	mov	DWORD PTR __$EHRec$[ebp+8], -1
	lea	ecx, DWORD PTR _strTemp$217613[ebp]
	call	DWORD PTR __imp_??1?$basic_string@DU?$char_traits@D@std@@V?$allocator@D@2@@std@@QAE@XZ
$LN23@AddImprovi@2:

; 1479 : 			continue;

	jmp	$LN40@AddImprovi@2
$LN24@AddImprovi@2:

; 1480 : 		}
; 1481 : 
; 1482 : 		bool bWillRemoveForestOrJungle = false;

	mov	BYTE PTR _bWillRemoveForestOrJungle$217616[ebp], 0

; 1483 : #ifndef AUI_WORKER_UNHARDCODE_NO_REMOVE_FEATURE_THAT_IS_REQUIRED_FOR_UNIQUE_IMPROVEMENT
; 1484 : 		FeatureTypes eFeature = pPlot->getFeatureType();

	mov	ecx, DWORD PTR _pPlot$[ebp]
	mov	dl, BYTE PTR [ecx+432]
	mov	BYTE PTR _f$221750[ebp], dl
	movsx	eax, BYTE PTR _f$221750[ebp]
	mov	DWORD PTR _eFeature$217617[ebp], eax

; 1485 : #endif
; 1486 : 		if(eFeature == FEATURE_FOREST || eFeature == FEATURE_JUNGLE)

	cmp	DWORD PTR _eFeature$217617[ebp], 5
	je	SHORT $LN21@AddImprovi@2
	cmp	DWORD PTR _eFeature$217617[ebp], 1
	jne	SHORT $LN22@AddImprovi@2
$LN21@AddImprovi@2:

; 1487 : 		{
; 1488 : 			if(pkBuild->isFeatureRemove(eFeature))

	mov	ecx, DWORD PTR _eFeature$217617[ebp]
	push	ecx
	mov	ecx, DWORD PTR _pkBuild$217584[ebp]
	call	?isFeatureRemove@CvBuildInfo@@QBE_NH@Z	; CvBuildInfo::isFeatureRemove
	movzx	edx, al
	test	edx, edx
	je	SHORT $LN22@AddImprovi@2

; 1489 : 			{
; 1490 : 				bWillRemoveForestOrJungle = true;

	mov	BYTE PTR _bWillRemoveForestOrJungle$217616[ebp], 1
$LN22@AddImprovi@2:

; 1491 : 			}
; 1492 : 		}
; 1493 : 
; 1494 : #ifndef AUI_WORKER_UNHARDCODE_NO_REMOVE_FEATURE_THAT_IS_REQUIRED_FOR_UNIQUE_IMPROVEMENT
; 1495 : 		// special case for Dutch
; 1496 : 		if (m_bKeepMarshes && eFeature == FEATURE_MARSH)

	mov	eax, DWORD PTR _this$[ebp]
	movzx	ecx, BYTE PTR [eax+58460]
	test	ecx, ecx
	je	$LN19@AddImprovi@2
	cmp	DWORD PTR _eFeature$217617[ebp], 2
	jne	$LN19@AddImprovi@2

; 1497 : 		{
; 1498 : 			if (pkBuild->isFeatureRemove(FEATURE_MARSH))

	push	2
	mov	ecx, DWORD PTR _pkBuild$217584[ebp]
	call	?isFeatureRemove@CvBuildInfo@@QBE_NH@Z	; CvBuildInfo::isFeatureRemove
	movzx	edx, al
	test	edx, edx
	je	$LN19@AddImprovi@2

; 1499 : 			{
; 1500 : 				if(m_bLogging){

	mov	eax, DWORD PTR _this$[ebp]
	movzx	ecx, BYTE PTR [eax+58392]
	test	ecx, ecx
	je	$LN17@AddImprovi@2

; 1501 : 					CvString strTemp;

	lea	ecx, DWORD PTR _strTemp$217624[ebp]
	call	DWORD PTR __imp_??0?$basic_string@DU?$char_traits@D@std@@V?$allocator@D@2@@std@@QAE@XZ
	mov	DWORD PTR __$EHRec$[ebp+8], 4

; 1502 : 					strTemp.Format("Weight,Marsh Remove,%s,,,,%i, %i", GC.getBuildInfo(eBuild)->GetType(), pPlot->getX(), pPlot->getY());

	mov	edx, DWORD PTR _pPlot$[ebp]
	movsx	eax, WORD PTR [edx+2]
	mov	DWORD PTR $T221758[ebp], eax
	mov	ecx, DWORD PTR _pPlot$[ebp]
	movsx	edx, WORD PTR [ecx]
	mov	DWORD PTR $T221762[ebp], edx
	mov	eax, DWORD PTR _eBuild$[ebp]
	push	eax
	mov	ecx, OFFSET ?gGlobals@@3VCvGlobals@@A	; gGlobals
	call	?getBuildInfo@CvGlobals@@QAEPAVCvBuildInfo@@W4BuildTypes@@@Z ; CvGlobals::getBuildInfo
	mov	DWORD PTR $T221766[ebp], eax
	mov	ecx, DWORD PTR $T221758[ebp]
	push	ecx
	mov	edx, DWORD PTR $T221762[ebp]
	push	edx
	mov	ecx, DWORD PTR $T221766[ebp]
	add	ecx, 176				; 000000b0H
	call	DWORD PTR __imp_?c_str@?$basic_string@DU?$char_traits@D@std@@V?$allocator@D@2@@std@@QBEPBDXZ
	push	eax
	push	OFFSET ??_C@_0CB@LLJKFMHM@Weight?0Marsh?5Remove?0?$CFs?0?0?0?0?$CFi?0?5?$CFi@
	lea	eax, DWORD PTR _strTemp$217624[ebp]
	push	eax
	call	?Format@CvString@@QAAXPBDZZ		; CvString::Format
	add	esp, 20					; 00000014H

; 1503 : 					LogInfo(strTemp, m_pPlayer);

	push	0
	mov	ecx, DWORD PTR _this$[ebp]
	mov	edx, DWORD PTR [ecx]
	push	edx
	sub	esp, 28					; 0000001cH
	mov	eax, esp
	mov	DWORD PTR $T221564[ebp], esp
	mov	DWORD PTR $T221771[ebp], eax
	lea	ecx, DWORD PTR _strTemp$217624[ebp]
	push	ecx
	mov	ecx, DWORD PTR $T221771[ebp]
	call	DWORD PTR __imp_??0?$basic_string@DU?$char_traits@D@std@@V?$allocator@D@2@@std@@QAE@ABV01@@Z
	mov	edx, DWORD PTR $T221771[ebp]
	mov	DWORD PTR tv750[ebp], edx
	call	?LogInfo@CvBuilderTaskingAI@@SAXVCvString@@PAVCvPlayer@@_N@Z ; CvBuilderTaskingAI::LogInfo
	add	esp, 36					; 00000024H

; 1504 : 				}

	mov	DWORD PTR __$EHRec$[ebp+8], -1
	lea	ecx, DWORD PTR _strTemp$217624[ebp]
	call	DWORD PTR __imp_??1?$basic_string@DU?$char_traits@D@std@@V?$allocator@D@2@@std@@QAE@XZ
$LN17@AddImprovi@2:

; 1505 : 				continue;

	jmp	$LN40@AddImprovi@2
$LN19@AddImprovi@2:

; 1506 : 			}
; 1507 : 		}
; 1508 : 
; 1509 : 		// special case for Brazil
; 1510 : 		if (m_bKeepJungle && eFeature == FEATURE_JUNGLE)

	mov	eax, DWORD PTR _this$[ebp]
	movzx	ecx, BYTE PTR [eax+58461]
	test	ecx, ecx
	je	$LN194@AddImprovi@2
	cmp	DWORD PTR _eFeature$217617[ebp], 1
	jne	$LN194@AddImprovi@2

; 1511 : 		{
; 1512 : 			if (pkBuild->isFeatureRemove(FEATURE_JUNGLE))

	push	1
	mov	ecx, DWORD PTR _pkBuild$217584[ebp]
	call	?isFeatureRemove@CvBuildInfo@@QBE_NH@Z	; CvBuildInfo::isFeatureRemove
	movzx	edx, al
	test	edx, edx
	je	$LN194@AddImprovi@2

; 1513 : 			{
; 1514 : 				if(m_bLogging){

	mov	eax, DWORD PTR _this$[ebp]
	movzx	ecx, BYTE PTR [eax+58392]
	test	ecx, ecx
	je	$LN14@AddImprovi@2

; 1515 : 					CvString strTemp;

	lea	ecx, DWORD PTR _strTemp$217630[ebp]
	call	DWORD PTR __imp_??0?$basic_string@DU?$char_traits@D@std@@V?$allocator@D@2@@std@@QAE@XZ
	mov	DWORD PTR __$EHRec$[ebp+8], 5

; 1516 : 					strTemp.Format("Weight,Jungle Remove,%s,,,,%i, %i", GC.getBuildInfo(eBuild)->GetType(), pPlot->getX(), pPlot->getY());

	mov	edx, DWORD PTR _pPlot$[ebp]
	movsx	eax, WORD PTR [edx+2]
	mov	DWORD PTR $T221783[ebp], eax
	mov	ecx, DWORD PTR _pPlot$[ebp]
	movsx	edx, WORD PTR [ecx]
	mov	DWORD PTR $T221787[ebp], edx
	mov	eax, DWORD PTR _eBuild$[ebp]
	push	eax
	mov	ecx, OFFSET ?gGlobals@@3VCvGlobals@@A	; gGlobals
	call	?getBuildInfo@CvGlobals@@QAEPAVCvBuildInfo@@W4BuildTypes@@@Z ; CvGlobals::getBuildInfo
	mov	DWORD PTR $T221791[ebp], eax
	mov	ecx, DWORD PTR $T221783[ebp]
	push	ecx
	mov	edx, DWORD PTR $T221787[ebp]
	push	edx
	mov	ecx, DWORD PTR $T221791[ebp]
	add	ecx, 176				; 000000b0H
	call	DWORD PTR __imp_?c_str@?$basic_string@DU?$char_traits@D@std@@V?$allocator@D@2@@std@@QBEPBDXZ
	push	eax
	push	OFFSET ??_C@_0CC@HIPJBJHD@Weight?0Jungle?5Remove?0?$CFs?0?0?0?0?$CFi?0?5?$CF@
	lea	eax, DWORD PTR _strTemp$217630[ebp]
	push	eax
	call	?Format@CvString@@QAAXPBDZZ		; CvString::Format
	add	esp, 20					; 00000014H

; 1517 : 					LogInfo(strTemp, m_pPlayer);

	push	0
	mov	ecx, DWORD PTR _this$[ebp]
	mov	edx, DWORD PTR [ecx]
	push	edx
	sub	esp, 28					; 0000001cH
	mov	eax, esp
	mov	DWORD PTR $T221565[ebp], esp
	mov	DWORD PTR $T221796[ebp], eax
	lea	ecx, DWORD PTR _strTemp$217630[ebp]
	push	ecx
	mov	ecx, DWORD PTR $T221796[ebp]
	call	DWORD PTR __imp_??0?$basic_string@DU?$char_traits@D@std@@V?$allocator@D@2@@std@@QAE@ABV01@@Z
	mov	edx, DWORD PTR $T221796[ebp]
	mov	DWORD PTR tv755[ebp], edx
	call	?LogInfo@CvBuilderTaskingAI@@SAXVCvString@@PAVCvPlayer@@_N@Z ; CvBuilderTaskingAI::LogInfo
	add	esp, 36					; 00000024H

; 1518 : 				}

	mov	DWORD PTR __$EHRec$[ebp+8], -1
	lea	ecx, DWORD PTR _strTemp$217630[ebp]
	call	DWORD PTR __imp_??1?$basic_string@DU?$char_traits@D@std@@V?$allocator@D@2@@std@@QAE@XZ
$LN14@AddImprovi@2:

; 1519 : 				if (pPlot->getResourceType(m_pPlayer->getTeam()) == NO_RESOURCE)

	mov	eax, DWORD PTR _this$[ebp]
	mov	ecx, DWORD PTR [eax]
	mov	DWORD PTR $T221809[ebp], ecx
	mov	edx, DWORD PTR $T221809[ebp]
	mov	eax, DWORD PTR [edx+44]
	push	eax
	call	?teamType@CvPreGame@@YA?AW4TeamTypes@@W4PlayerTypes@@@Z ; CvPreGame::teamType
	add	esp, 4
	mov	DWORD PTR $T221810[ebp], eax
	mov	ecx, DWORD PTR $T221810[ebp]
	push	ecx
	mov	ecx, DWORD PTR _pPlot$[ebp]
	call	?getResourceType@CvPlot@@QBE?AW4ResourceTypes@@W4TeamTypes@@@Z ; CvPlot::getResourceType
	cmp	eax, -1
	jne	SHORT $LN194@AddImprovi@2

; 1520 : 				{
; 1521 : 					continue;

	jmp	$LN40@AddImprovi@2

; 1522 : 				}
; 1523 : 			}
; 1524 : 		}
; 1525 : #endif
; 1526 : 
; 1527 : 		if(GET_PLAYER(pUnit->getOwner()).isOption(PLAYEROPTION_LEAVE_FORESTS))

$LN194@AddImprovi@2:
	mov	edx, DWORD PTR _pUnit$[ebp]
	mov	eax, DWORD PTR [edx+40]
	mov	DWORD PTR $T221819[ebp], eax
	mov	ecx, DWORD PTR $T221819[ebp]
	imul	ecx, 63236				; 0000f704H
	add	ecx, DWORD PTR ?m_aPlayers@CvPlayerAI@@1PAV1@A ; CvPlayerAI::m_aPlayers
	mov	DWORD PTR $T221823[ebp], ecx
	push	7
	mov	ecx, DWORD PTR $T221823[ebp]
	call	?isOption@CvPlayer@@QBE_NW4PlayerOptionTypes@@@Z ; CvPlayer::isOption
	movzx	edx, al
	test	edx, edx
	je	$LN12@AddImprovi@2

; 1528 : 		{
; 1529 : 			if(eFeature != NO_FEATURE)

	cmp	DWORD PTR _eFeature$217617[ebp], -1
	je	$LN12@AddImprovi@2

; 1530 : 			{
; 1531 : 				if(pkBuild->isFeatureRemove(eFeature))

	mov	eax, DWORD PTR _eFeature$217617[ebp]
	push	eax
	mov	ecx, DWORD PTR _pkBuild$217584[ebp]
	call	?isFeatureRemove@CvBuildInfo@@QBE_NH@Z	; CvBuildInfo::isFeatureRemove
	movzx	ecx, al
	test	ecx, ecx
	je	$LN12@AddImprovi@2

; 1532 : 				{
; 1533 : 					if(m_bLogging){

	mov	edx, DWORD PTR _this$[ebp]
	movzx	eax, BYTE PTR [edx+58392]
	test	eax, eax
	je	$LN9@AddImprovi@2

; 1534 : 						CvString strTemp;

	lea	ecx, DWORD PTR _strTemp$217638[ebp]
	call	DWORD PTR __imp_??0?$basic_string@DU?$char_traits@D@std@@V?$allocator@D@2@@std@@QAE@XZ
	mov	DWORD PTR __$EHRec$[ebp+8], 6

; 1535 : 						strTemp.Format("Weight,Keep Forests,%s,,,,%i, %i", GC.getBuildInfo(eBuild)->GetType(), pPlot->getX(), pPlot->getY());

	mov	ecx, DWORD PTR _pPlot$[ebp]
	movsx	edx, WORD PTR [ecx+2]
	mov	DWORD PTR $T221831[ebp], edx
	mov	eax, DWORD PTR _pPlot$[ebp]
	movsx	ecx, WORD PTR [eax]
	mov	DWORD PTR $T221835[ebp], ecx
	mov	edx, DWORD PTR _eBuild$[ebp]
	push	edx
	mov	ecx, OFFSET ?gGlobals@@3VCvGlobals@@A	; gGlobals
	call	?getBuildInfo@CvGlobals@@QAEPAVCvBuildInfo@@W4BuildTypes@@@Z ; CvGlobals::getBuildInfo
	mov	DWORD PTR $T221839[ebp], eax
	mov	eax, DWORD PTR $T221831[ebp]
	push	eax
	mov	ecx, DWORD PTR $T221835[ebp]
	push	ecx
	mov	ecx, DWORD PTR $T221839[ebp]
	add	ecx, 176				; 000000b0H
	call	DWORD PTR __imp_?c_str@?$basic_string@DU?$char_traits@D@std@@V?$allocator@D@2@@std@@QBEPBDXZ
	push	eax
	push	OFFSET ??_C@_0CB@MAEBKOFF@Weight?0Keep?5Forests?0?$CFs?0?0?0?0?$CFi?0?5?$CFi@
	lea	edx, DWORD PTR _strTemp$217638[ebp]
	push	edx
	call	?Format@CvString@@QAAXPBDZZ		; CvString::Format
	add	esp, 20					; 00000014H

; 1536 : 						LogInfo(strTemp, m_pPlayer);

	push	0
	mov	eax, DWORD PTR _this$[ebp]
	mov	ecx, DWORD PTR [eax]
	push	ecx
	sub	esp, 28					; 0000001cH
	mov	edx, esp
	mov	DWORD PTR $T221566[ebp], esp
	mov	DWORD PTR $T221844[ebp], edx
	lea	eax, DWORD PTR _strTemp$217638[ebp]
	push	eax
	mov	ecx, DWORD PTR $T221844[ebp]
	call	DWORD PTR __imp_??0?$basic_string@DU?$char_traits@D@std@@V?$allocator@D@2@@std@@QAE@ABV01@@Z
	mov	ecx, DWORD PTR $T221844[ebp]
	mov	DWORD PTR tv760[ebp], ecx
	call	?LogInfo@CvBuilderTaskingAI@@SAXVCvString@@PAVCvPlayer@@_N@Z ; CvBuilderTaskingAI::LogInfo
	add	esp, 36					; 00000024H

; 1537 : 					}

	mov	DWORD PTR __$EHRec$[ebp+8], -1
	lea	ecx, DWORD PTR _strTemp$217638[ebp]
	call	DWORD PTR __imp_??1?$basic_string@DU?$char_traits@D@std@@V?$allocator@D@2@@std@@QAE@XZ
$LN9@AddImprovi@2:

; 1538 : 					continue;

	jmp	$LN40@AddImprovi@2
$LN12@AddImprovi@2:

; 1539 : 				}
; 1540 : 			}
; 1541 : 		}
; 1542 : 
; 1543 : #ifdef AUI_WORKER_ADD_IMPROVING_PLOTS_DIRECTIVE_DEFENSIVES
; 1544 : 		int iScore = 0;
; 1545 : 		if (pCity)
; 1546 : 		{
; 1547 : 			UpdateProjectedPlotYields(pPlot, eBuild);
; 1548 : #ifdef AUI_WORKER_SCORE_PLOT_CHOP
; 1549 : 			iScore = ScorePlot(eBuild);
; 1550 : #else
; 1551 : 			iScore = ScorePlot();
; 1552 : #endif
; 1553 : 		}
; 1554 : 		if (!pCity || iScore > 0)
; 1555 : 		{
; 1556 : 			int iBaseDefenseBonus = (pPlot->isHills() || pPlot->isMountain() ? GC.getHILLS_EXTRA_DEFENSE() :
; 1557 : 				(eFeature != NO_FEATURE && !pkBuild->isFeatureRemove(eFeature) ? GC.getFeatureInfo(eFeature)->getDefenseModifier() :
; 1558 : 					GC.getTerrainInfo(pPlot->getTerrainType())->getDefenseModifier() + GC.getFLAT_LAND_EXTRA_DEFENSE()));
; 1559 : 			iScore += (pImprovement->GetDefenseModifier() + iBaseDefenseBonus) * pPlot->getStrategicValue() / (100 * GC.getCHOKEPOINT_STRATEGIC_VALUE());
; 1560 : 		}
; 1561 : #else
; 1562 : 		UpdateProjectedPlotYields(pPlot, eBuild);

	mov	edx, DWORD PTR _eBuild$[ebp]
	push	edx
	mov	eax, DWORD PTR _pPlot$[ebp]
	push	eax
	mov	ecx, DWORD PTR _this$[ebp]
	call	?UpdateProjectedPlotYields@CvBuilderTaskingAI@@IAEXPAVCvPlot@@W4BuildTypes@@@Z ; CvBuilderTaskingAI::UpdateProjectedPlotYields

; 1563 : #ifdef AUI_WORKER_SCORE_PLOT_CHOP
; 1564 : 		int iScore = ScorePlot(eBuild);
; 1565 : #else
; 1566 : 		int iScore = ScorePlot();

	mov	ecx, DWORD PTR _this$[ebp]
	call	?ScorePlot@CvBuilderTaskingAI@@QAEHXZ	; CvBuilderTaskingAI::ScorePlot
	mov	DWORD PTR _iScore$217641[ebp], eax

; 1567 : #endif
; 1568 : #endif
; 1569 : 
; 1570 : 		// if we're going backward, bail out!
; 1571 : 		if(iScore <= 0)

	cmp	DWORD PTR _iScore$217641[ebp], 0
	jg	$LN8@AddImprovi@2

; 1572 : 		{
; 1573 : 			if(m_bLogging){

	mov	ecx, DWORD PTR _this$[ebp]
	movzx	edx, BYTE PTR [ecx+58392]
	test	edx, edx
	je	$LN7@AddImprovi@2

; 1574 : 				CvString strTemp;

	lea	ecx, DWORD PTR _strTemp$217644[ebp]
	call	DWORD PTR __imp_??0?$basic_string@DU?$char_traits@D@std@@V?$allocator@D@2@@std@@QAE@XZ
	mov	DWORD PTR __$EHRec$[ebp+8], 7

; 1575 : 				strTemp.Format("Weight,Negative Score,%s,%i,,,%i, %i", GC.getBuildInfo(eBuild)->GetType(), iScore, pPlot->getX(), pPlot->getY());

	mov	eax, DWORD PTR _pPlot$[ebp]
	movsx	ecx, WORD PTR [eax+2]
	mov	DWORD PTR $T221856[ebp], ecx
	mov	edx, DWORD PTR _pPlot$[ebp]
	movsx	eax, WORD PTR [edx]
	mov	DWORD PTR $T221860[ebp], eax
	mov	ecx, DWORD PTR _eBuild$[ebp]
	push	ecx
	mov	ecx, OFFSET ?gGlobals@@3VCvGlobals@@A	; gGlobals
	call	?getBuildInfo@CvGlobals@@QAEPAVCvBuildInfo@@W4BuildTypes@@@Z ; CvGlobals::getBuildInfo
	mov	DWORD PTR $T221864[ebp], eax
	mov	edx, DWORD PTR $T221856[ebp]
	push	edx
	mov	eax, DWORD PTR $T221860[ebp]
	push	eax
	mov	ecx, DWORD PTR _iScore$217641[ebp]
	push	ecx
	mov	ecx, DWORD PTR $T221864[ebp]
	add	ecx, 176				; 000000b0H
	call	DWORD PTR __imp_?c_str@?$basic_string@DU?$char_traits@D@std@@V?$allocator@D@2@@std@@QBEPBDXZ
	push	eax
	push	OFFSET ??_C@_0CF@NLMCLPJP@Weight?0Negative?5Score?0?$CFs?0?$CFi?0?0?0?$CFi@
	lea	edx, DWORD PTR _strTemp$217644[ebp]
	push	edx
	call	?Format@CvString@@QAAXPBDZZ		; CvString::Format
	add	esp, 24					; 00000018H

; 1576 : 				LogInfo(strTemp, m_pPlayer);

	push	0
	mov	eax, DWORD PTR _this$[ebp]
	mov	ecx, DWORD PTR [eax]
	push	ecx
	sub	esp, 28					; 0000001cH
	mov	edx, esp
	mov	DWORD PTR $T221567[ebp], esp
	mov	DWORD PTR $T221869[ebp], edx
	lea	eax, DWORD PTR _strTemp$217644[ebp]
	push	eax
	mov	ecx, DWORD PTR $T221869[ebp]
	call	DWORD PTR __imp_??0?$basic_string@DU?$char_traits@D@std@@V?$allocator@D@2@@std@@QAE@ABV01@@Z
	mov	ecx, DWORD PTR $T221869[ebp]
	mov	DWORD PTR tv765[ebp], ecx
	call	?LogInfo@CvBuilderTaskingAI@@SAXVCvString@@PAVCvPlayer@@_N@Z ; CvBuilderTaskingAI::LogInfo
	add	esp, 36					; 00000024H

; 1577 : 			}

	mov	DWORD PTR __$EHRec$[ebp+8], -1
	lea	ecx, DWORD PTR _strTemp$217644[ebp]
	call	DWORD PTR __imp_??1?$basic_string@DU?$char_traits@D@std@@V?$allocator@D@2@@std@@QAE@XZ
$LN7@AddImprovi@2:

; 1578 : 			continue;

	jmp	$LN40@AddImprovi@2
$LN8@AddImprovi@2:

; 1579 : 		}
; 1580 : 
; 1581 : 		BuilderDirective::BuilderDirectiveType eDirectiveType = BuilderDirective::BUILD_IMPROVEMENT;

	mov	DWORD PTR _eDirectiveType$217647[ebp], 1

; 1582 : 		int iWeight = GC.getBUILDER_TASKING_BASELINE_BUILD_IMPROVEMENTS();

	mov	edx, DWORD PTR ?gGlobals@@3VCvGlobals@@A+2140
	mov	DWORD PTR _iWeight$217648[ebp], edx

; 1583 : 		if(eBuild == m_eRepairBuild)

	mov	eax, DWORD PTR _this$[ebp]
	mov	ecx, DWORD PTR _eBuild$[ebp]
	cmp	ecx, DWORD PTR [eax+4]
	jne	SHORT $LN6@AddImprovi@2

; 1584 : 		{
; 1585 : 			eDirectiveType = BuilderDirective::REPAIR;

	mov	DWORD PTR _eDirectiveType$217647[ebp], 3

; 1586 : 			iWeight = GC.getBUILDER_TASKING_BASELINE_REPAIR();

	mov	edx, DWORD PTR ?gGlobals@@3VCvGlobals@@A+2152
	mov	DWORD PTR _iWeight$217648[ebp], edx

; 1587 : 		}
; 1588 : 		else if(pImprovement->GetYieldChange(YIELD_CULTURE) > 0)

	jmp	SHORT $LN5@AddImprovi@2
$LN6@AddImprovi@2:
	push	4
	mov	ecx, DWORD PTR _pImprovement$217589[ebp]
	call	?GetYieldChange@CvImprovementEntry@@QBEHH@Z ; CvImprovementEntry::GetYieldChange
	test	eax, eax
	jle	SHORT $LN5@AddImprovi@2

; 1589 : 		{
; 1590 : 			iWeight = GC.getBUILDER_TASKING_BASELINE_ADDS_CULTURE() * GC.getImprovementInfo(eImprovement)->GetYieldChange(YIELD_CULTURE);

	mov	eax, DWORD PTR ?gGlobals@@3VCvGlobals@@A+2160
	mov	DWORD PTR $T221883[ebp], eax
	push	4
	mov	ecx, DWORD PTR _eImprovement$217586[ebp]
	push	ecx
	mov	ecx, OFFSET ?gGlobals@@3VCvGlobals@@A	; gGlobals
	call	?getImprovementInfo@CvGlobals@@QAEPAVCvImprovementEntry@@W4ImprovementTypes@@@Z ; CvGlobals::getImprovementInfo
	mov	ecx, eax
	call	?GetYieldChange@CvImprovementEntry@@QBEHH@Z ; CvImprovementEntry::GetYieldChange
	imul	eax, DWORD PTR $T221883[ebp]
	mov	DWORD PTR _iWeight$217648[ebp], eax

; 1591 : 			int iAdjacentCulture = pImprovement->GetCultureAdjacentSameType();

	mov	ecx, DWORD PTR _pImprovement$217589[ebp]
	call	?GetCultureAdjacentSameType@CvImprovementEntry@@QBEHXZ ; CvImprovementEntry::GetCultureAdjacentSameType
	mov	DWORD PTR _iAdjacentCulture$217652[ebp], eax

; 1592 : 
; 1593 : 			if(iAdjacentCulture > 0)

	cmp	DWORD PTR _iAdjacentCulture$217652[ebp], 0
	jle	SHORT $LN5@AddImprovi@2

; 1594 : 			{
; 1595 : 				iScore *= (1 + pPlot->ComputeCultureFromAdjacentImprovement(*pImprovement, eImprovement));

	mov	edx, DWORD PTR _eImprovement$217586[ebp]
	push	edx
	mov	eax, DWORD PTR _pImprovement$217589[ebp]
	push	eax
	mov	ecx, DWORD PTR _pPlot$[ebp]
	call	?ComputeCultureFromAdjacentImprovement@CvPlot@@QBEHAAVCvImprovementEntry@@W4ImprovementTypes@@@Z ; CvPlot::ComputeCultureFromAdjacentImprovement
	add	eax, 1
	imul	eax, DWORD PTR _iScore$217641[ebp]
	mov	DWORD PTR _iScore$217641[ebp], eax
$LN5@AddImprovi@2:

; 1596 : 			}
; 1597 : 		}
; 1598 : 
; 1599 : 		iWeight = GetBuildCostWeight(iWeight, pPlot, eBuild);

	mov	ecx, DWORD PTR _eBuild$[ebp]
	push	ecx
	mov	edx, DWORD PTR _pPlot$[ebp]
	push	edx
	mov	eax, DWORD PTR _iWeight$217648[ebp]
	push	eax
	mov	ecx, DWORD PTR _this$[ebp]
	call	?GetBuildCostWeight@CvBuilderTaskingAI@@QAEHHPAVCvPlot@@W4BuildTypes@@@Z ; CvBuilderTaskingAI::GetBuildCostWeight
	mov	DWORD PTR _iWeight$217648[ebp], eax

; 1600 : 		int iBuildTimeWeight = GetBuildTimeWeight(pUnit, pPlot, eBuild, DoesBuildHelpRush(pUnit, pPlot, eBuild), iMoveTurnsAway);

	mov	ecx, DWORD PTR _iMoveTurnsAway$[ebp]
	push	ecx
	mov	edx, DWORD PTR _eBuild$[ebp]
	push	edx
	mov	eax, DWORD PTR _pPlot$[ebp]
	push	eax
	mov	ecx, DWORD PTR _pUnit$[ebp]
	push	ecx
	mov	ecx, DWORD PTR _this$[ebp]
	call	?DoesBuildHelpRush@CvBuilderTaskingAI@@QAE_NPAVCvUnit@@PAVCvPlot@@W4BuildTypes@@@Z ; CvBuilderTaskingAI::DoesBuildHelpRush
	movzx	edx, al
	push	edx
	mov	eax, DWORD PTR _eBuild$[ebp]
	push	eax
	mov	ecx, DWORD PTR _pPlot$[ebp]
	push	ecx
	mov	edx, DWORD PTR _pUnit$[ebp]
	push	edx
	mov	ecx, DWORD PTR _this$[ebp]
	call	?GetBuildTimeWeight@CvBuilderTaskingAI@@QAEHPAVCvUnit@@PAVCvPlot@@W4BuildTypes@@_NH@Z ; CvBuilderTaskingAI::GetBuildTimeWeight
	mov	DWORD PTR _iBuildTimeWeight$217654[ebp], eax

; 1601 : 		iWeight += iBuildTimeWeight;

	mov	eax, DWORD PTR _iWeight$217648[ebp]
	add	eax, DWORD PTR _iBuildTimeWeight$217654[ebp]
	mov	DWORD PTR _iWeight$217648[ebp], eax

; 1602 : 		iWeight *= iScore;

	mov	ecx, DWORD PTR _iWeight$217648[ebp]
	imul	ecx, DWORD PTR _iScore$217641[ebp]
	mov	DWORD PTR _iWeight$217648[ebp], ecx

; 1603 : 
; 1604 : 		if(m_pPlayer->GetPlayerTraits()->IsMoveFriendlyWoodsAsRoad() && bWillRemoveForestOrJungle)

	mov	edx, DWORD PTR _this$[ebp]
	mov	ecx, DWORD PTR [edx]
	call	?GetPlayerTraits@CvPlayer@@QBEPAVCvPlayerTraits@@XZ ; CvPlayer::GetPlayerTraits
	mov	DWORD PTR $T221887[ebp], eax
	mov	eax, DWORD PTR $T221887[ebp]
	mov	cl, BYTE PTR [eax+333]
	mov	BYTE PTR $T221888[ebp], cl
	movzx	edx, BYTE PTR $T221888[ebp]
	test	edx, edx
	je	SHORT $LN2@AddImprovi@2
	movzx	eax, BYTE PTR _bWillRemoveForestOrJungle$217616[ebp]
	test	eax, eax
	je	SHORT $LN2@AddImprovi@2

; 1605 : 		{
; 1606 : 			iWeight = iWeight / 4;

	mov	eax, DWORD PTR _iWeight$217648[ebp]
	cdq
	and	edx, 3
	add	eax, edx
	sar	eax, 2
	mov	DWORD PTR _iWeight$217648[ebp], eax
$LN2@AddImprovi@2:

; 1607 : 		}
; 1608 : 
; 1609 : 		iWeight = CorrectWeight(iWeight);

	mov	ecx, DWORD PTR _iWeight$217648[ebp]
	push	ecx
	call	?CorrectWeight@@YAHH@Z			; CorrectWeight
	add	esp, 4
	mov	DWORD PTR _iWeight$217648[ebp], eax

; 1610 : 
; 1611 : #ifdef AUI_WORKER_UNHARDCODE_NO_REMOVE_FEATURE_THAT_IS_REQUIRED_FOR_UNIQUE_IMPROVEMENT
; 1612 : 		if (iWeight < iBestUniqueImprovementWeight && eFeature != NO_FEATURE && pkBuild->isFeatureRemove(eFeature))
; 1613 : 			continue;
; 1614 : #endif
; 1615 : 
; 1616 : 		BuilderDirective directive;

	mov	DWORD PTR _directive$217656[ebp], 6
	mov	DWORD PTR _directive$217656[ebp+4], -1
	mov	DWORD PTR _directive$217656[ebp+8], -1
	or	edx, -1
	mov	WORD PTR _directive$217656[ebp+12], dx
	or	eax, -1
	mov	WORD PTR _directive$217656[ebp+14], ax
	or	ecx, -1
	mov	WORD PTR _directive$217656[ebp+16], cx

; 1617 : 
; 1618 : 		directive.m_eDirective = eDirectiveType;

	mov	edx, DWORD PTR _eDirectiveType$217647[ebp]
	mov	DWORD PTR _directive$217656[ebp], edx

; 1619 : 		directive.m_eBuild = eBuild;

	mov	eax, DWORD PTR _eBuild$[ebp]
	mov	DWORD PTR _directive$217656[ebp+4], eax

; 1620 : 		directive.m_eResource = NO_RESOURCE;

	mov	DWORD PTR _directive$217656[ebp+8], -1

; 1621 : 		directive.m_sX = pPlot->getX();

	mov	ecx, DWORD PTR _pPlot$[ebp]
	movsx	edx, WORD PTR [ecx]
	mov	WORD PTR _directive$217656[ebp+12], dx

; 1622 : 		directive.m_sY = pPlot->getY();

	mov	eax, DWORD PTR _pPlot$[ebp]
	movsx	ecx, WORD PTR [eax+2]
	mov	WORD PTR _directive$217656[ebp+14], cx

; 1623 : 		directive.m_sMoveTurnsAway = iMoveTurnsAway;

	mov	dx, WORD PTR _iMoveTurnsAway$[ebp]
	mov	WORD PTR _directive$217656[ebp+16], dx

; 1624 : 
; 1625 : 		if(m_bLogging)

	mov	eax, DWORD PTR _this$[ebp]
	movzx	ecx, BYTE PTR [eax+58392]
	test	ecx, ecx
	je	$LN1@AddImprovi@2

; 1626 : 		{
; 1627 : 			CvString strTemp;

	lea	ecx, DWORD PTR _strTemp$217658[ebp]
	call	DWORD PTR __imp_??0?$basic_string@DU?$char_traits@D@std@@V?$allocator@D@2@@std@@QAE@XZ
	mov	DWORD PTR __$EHRec$[ebp+8], 8

; 1628 : 			strTemp.Format("Weight,Directive Score Added,%s,,,,%i, %i, %i, %d", GC.getBuildInfo(eBuild)->GetType(), directive.m_sX, directive.m_sY, directive.m_sMoveTurnsAway, iWeight);

	mov	edx, DWORD PTR _eBuild$[ebp]
	push	edx
	mov	ecx, OFFSET ?gGlobals@@3VCvGlobals@@A	; gGlobals
	call	?getBuildInfo@CvGlobals@@QAEPAVCvBuildInfo@@W4BuildTypes@@@Z ; CvGlobals::getBuildInfo
	mov	DWORD PTR $T221905[ebp], eax
	mov	ecx, DWORD PTR $T221905[ebp]
	add	ecx, 176				; 000000b0H
	call	DWORD PTR __imp_?c_str@?$basic_string@DU?$char_traits@D@std@@V?$allocator@D@2@@std@@QBEPBDXZ
	mov	DWORD PTR $T221906[ebp], eax
	mov	eax, DWORD PTR _iWeight$217648[ebp]
	push	eax
	movsx	ecx, WORD PTR _directive$217656[ebp+16]
	push	ecx
	movsx	edx, WORD PTR _directive$217656[ebp+14]
	push	edx
	movsx	eax, WORD PTR _directive$217656[ebp+12]
	push	eax
	mov	ecx, DWORD PTR $T221906[ebp]
	push	ecx
	push	OFFSET ??_C@_0DC@BCGOLGBG@Weight?0Directive?5Score?5Added?0?$CFs?0@
	lea	edx, DWORD PTR _strTemp$217658[ebp]
	push	edx
	call	?Format@CvString@@QAAXPBDZZ		; CvString::Format
	add	esp, 28					; 0000001cH

; 1629 : 			LogInfo(strTemp, m_pPlayer);

	push	0
	mov	eax, DWORD PTR _this$[ebp]
	mov	ecx, DWORD PTR [eax]
	push	ecx
	sub	esp, 28					; 0000001cH
	mov	edx, esp
	mov	DWORD PTR $T221568[ebp], esp
	mov	DWORD PTR $T221911[ebp], edx
	lea	eax, DWORD PTR _strTemp$217658[ebp]
	push	eax
	mov	ecx, DWORD PTR $T221911[ebp]
	call	DWORD PTR __imp_??0?$basic_string@DU?$char_traits@D@std@@V?$allocator@D@2@@std@@QAE@ABV01@@Z
	mov	ecx, DWORD PTR $T221911[ebp]
	mov	DWORD PTR tv770[ebp], ecx
	call	?LogInfo@CvBuilderTaskingAI@@SAXVCvString@@PAVCvPlayer@@_N@Z ; CvBuilderTaskingAI::LogInfo
	add	esp, 36					; 00000024H

; 1630 : 		}

	mov	DWORD PTR __$EHRec$[ebp+8], -1
	lea	ecx, DWORD PTR _strTemp$217658[ebp]
	call	DWORD PTR __imp_??1?$basic_string@DU?$char_traits@D@std@@V?$allocator@D@2@@std@@QAE@XZ
$LN1@AddImprovi@2:

; 1631 : 
; 1632 : 		m_aDirectives.push_back(directive, iWeight);

	mov	edx, DWORD PTR _iWeight$217648[ebp]
	push	edx
	lea	eax, DWORD PTR _directive$217656[ebp]
	push	eax
	mov	ecx, OFFSET ?m_aDirectives@CvBuilderTaskingAI@@2V?$CvWeightedVector@UBuilderDirective@@$0GE@$00@@A ; CvBuilderTaskingAI::m_aDirectives
	call	?push_back@?$CvWeightedVector@UBuilderDirective@@$0GE@$00@@QAEIABUBuilderDirective@@H@Z ; CvWeightedVector<BuilderDirective,100,1>::push_back
	jmp	$LN40@AddImprovi@2
$LN50@AddImprovi@2:

; 1633 : 	}
; 1634 : }

	mov	ecx, DWORD PTR __$EHRec$[ebp]
	mov	DWORD PTR fs:0, ecx
	pop	ecx
	mov	ecx, DWORD PTR __$ArrayPad$[ebp]
	xor	ecx, ebp
	call	@__security_check_cookie@4
	mov	esp, ebp
	pop	ebp
	ret	12					; 0000000cH
_TEXT	ENDS
;	COMDAT text$x
text$x	SEGMENT
__unwindfunclet$?AddImprovingPlotsDirectives@CvBuilderTaskingAI@@QAEXPAVCvUnit@@PAVCvPlot@@H@Z$0:
	lea	ecx, DWORD PTR _strTemp$217593[ebp]
	jmp	??1CvString@@QAE@XZ			; CvString::~CvString
__unwindfunclet$?AddImprovingPlotsDirectives@CvBuilderTaskingAI@@QAEXPAVCvUnit@@PAVCvPlot@@H@Z$2:
	lea	ecx, DWORD PTR _strTemp$217600[ebp]
	jmp	??1CvString@@QAE@XZ			; CvString::~CvString
__unwindfunclet$?AddImprovingPlotsDirectives@CvBuilderTaskingAI@@QAEXPAVCvUnit@@PAVCvPlot@@H@Z$4:
	lea	ecx, DWORD PTR _strTemp$217608[ebp]
	jmp	??1CvString@@QAE@XZ			; CvString::~CvString
__unwindfunclet$?AddImprovingPlotsDirectives@CvBuilderTaskingAI@@QAEXPAVCvUnit@@PAVCvPlot@@H@Z$6:
	lea	ecx, DWORD PTR _strTemp$217613[ebp]
	jmp	??1CvString@@QAE@XZ			; CvString::~CvString
__unwindfunclet$?AddImprovingPlotsDirectives@CvBuilderTaskingAI@@QAEXPAVCvUnit@@PAVCvPlot@@H@Z$8:
	lea	ecx, DWORD PTR _strTemp$217624[ebp]
	jmp	??1CvString@@QAE@XZ			; CvString::~CvString
__unwindfunclet$?AddImprovingPlotsDirectives@CvBuilderTaskingAI@@QAEXPAVCvUnit@@PAVCvPlot@@H@Z$10:
	lea	ecx, DWORD PTR _strTemp$217630[ebp]
	jmp	??1CvString@@QAE@XZ			; CvString::~CvString
__unwindfunclet$?AddImprovingPlotsDirectives@CvBuilderTaskingAI@@QAEXPAVCvUnit@@PAVCvPlot@@H@Z$12:
	lea	ecx, DWORD PTR _strTemp$217638[ebp]
	jmp	??1CvString@@QAE@XZ			; CvString::~CvString
__unwindfunclet$?AddImprovingPlotsDirectives@CvBuilderTaskingAI@@QAEXPAVCvUnit@@PAVCvPlot@@H@Z$14:
	lea	ecx, DWORD PTR _strTemp$217644[ebp]
	jmp	??1CvString@@QAE@XZ			; CvString::~CvString
__unwindfunclet$?AddImprovingPlotsDirectives@CvBuilderTaskingAI@@QAEXPAVCvUnit@@PAVCvPlot@@H@Z$16:
	lea	ecx, DWORD PTR _strTemp$217658[ebp]
	jmp	??1CvString@@QAE@XZ			; CvString::~CvString
__ehhandler$?AddImprovingPlotsDirectives@CvBuilderTaskingAI@@QAEXPAVCvUnit@@PAVCvPlot@@H@Z:
	mov	edx, DWORD PTR [esp+8]
	lea	eax, DWORD PTR [edx+12]
	mov	ecx, DWORD PTR [edx-708]
	xor	ecx, eax
	call	@__security_check_cookie@4
	mov	ecx, DWORD PTR [edx-88]
	xor	ecx, eax
	call	@__security_check_cookie@4
	mov	eax, OFFSET __ehfuncinfo$?AddImprovingPlotsDirectives@CvBuilderTaskingAI@@QAEXPAVCvUnit@@PAVCvPlot@@H@Z
	jmp	___CxxFrameHandler3
text$x	ENDS
?AddImprovingPlotsDirectives@CvBuilderTaskingAI@@QAEXPAVCvUnit@@PAVCvPlot@@H@Z ENDP ; CvBuilderTaskingAI::AddImprovingPlotsDirectives
PUBLIC	??_C@_0DE@HOCAFBDO@AddRouteDirectives?0?5adding?0?5x?3?5?$CF@ ; `string'
PUBLIC	__$ArrayPad$
EXTRN	?GetBuilds@CvUnitEntry@@QBE_NH@Z:PROC		; CvUnitEntry::GetBuilds
EXTRN	?getUnitInfo@CvUnit@@QBEAAVCvUnitEntry@@XZ:PROC	; CvUnit::getUnitInfo
EXTRN	?GetBuilderAIScratchPadRoute@CvPlot@@QBE?AW4RouteTypes@@XZ:PROC ; CvPlot::GetBuilderAIScratchPadRoute
;	COMDAT ??_C@_0DE@HOCAFBDO@AddRouteDirectives?0?5adding?0?5x?3?5?$CF@
; File d:\sources\lekmod_git\checkout\lekmod_dll\cvgamecoredllutil\include\cvweightedvector.h
CONST	SEGMENT
??_C@_0DE@HOCAFBDO@AddRouteDirectives?0?5adding?0?5x?3?5?$CF@ DB 'AddRout'
	DB	'eDirectives, adding, x: %d y: %d, Weight, %d', 00H ; `string'
CONST	ENDS
;	COMDAT xdata$x
xdata$x	SEGMENT
