; Listing generated by Microsoft (R) Optimizing Compiler Version 15.00.30729.01 

	TITLE	D:\sources\Lekmod_git\checkout\LEKMOD_DLL\CvGameCoreDLL_Expansion2\CvCityStrategyAI.cpp
	.686P
	.XMM
	include listing.inc
	.model	flat

INCLUDELIB MSVCRT
INCLUDELIB OLDNAMES

PUBLIC	?m_acBestYields@CvCityStrategyAI@@0PAY0CF@EA	; CvCityStrategyAI::m_acBestYields
PUBLIC	?NO_QUEST_DATA@CvMinorCivQuest@@2HB		; CvMinorCivQuest::NO_QUEST_DATA
PUBLIC	?NO_TURN@CvMinorCivQuest@@2HB			; CvMinorCivQuest::NO_TURN
_BSS	SEGMENT
?m_acBestYields@CvCityStrategyAI@@0PAY0CF@EA DB 0deH DUP (?) ; CvCityStrategyAI::m_acBestYields
_BSS	ENDS
;	COMDAT ?NO_TURN@CvMinorCivQuest@@2HB
CONST	SEGMENT
?NO_TURN@CvMinorCivQuest@@2HB DD 0ffffffffH		; CvMinorCivQuest::NO_TURN
CONST	ENDS
;	COMDAT ?NO_QUEST_DATA@CvMinorCivQuest@@2HB
CONST	SEGMENT
?NO_QUEST_DATA@CvMinorCivQuest@@2HB DD 0ffffffffH	; CvMinorCivQuest::NO_QUEST_DATA
CONST	ENDS
PUBLIC	??1CvBaseInfo@@QAE@XZ				; CvBaseInfo::~CvBaseInfo
PUBLIC	??_7CvAICityStrategyEntry@@6B@			; CvAICityStrategyEntry::`vftable'
PUBLIC	??0CvAICityStrategyEntry@@QAE@XZ		; CvAICityStrategyEntry::CvAICityStrategyEntry
PUBLIC	?CacheResults@CvAICityStrategyEntry@@UAE_NAAVResults@Database@@AAVCvDatabaseUtility@@@Z ; CvAICityStrategyEntry::CacheResults
EXTRN	__imp_??0?$basic_string@DU?$char_traits@D@std@@V?$allocator@D@2@@std@@QAE@XZ:PROC
EXTRN	??0CvBaseInfo@@QAE@XZ:PROC			; CvBaseInfo::CvBaseInfo
EXTRN	___security_cookie:DWORD
EXTRN	___CxxFrameHandler3:PROC
EXTRN	@__security_check_cookie@4:PROC
EXTRN	??8CvBaseInfo@@UBE_NABV0@@Z:PROC		; CvBaseInfo::operator==
EXTRN	?readFrom@CvBaseInfo@@UAEXAAVFDataStream@@@Z:PROC ; CvBaseInfo::readFrom
EXTRN	?writeTo@CvBaseInfo@@UBEXAAVFDataStream@@@Z:PROC ; CvBaseInfo::writeTo
EXTRN	??_ECvAICityStrategyEntry@@UAEPAXI@Z:PROC	; CvAICityStrategyEntry::`vector deleting destructor'
;	COMDAT ??_7CvAICityStrategyEntry@@6B@
; File d:\sources\lekmod_git\checkout\lekmod_dll\cvgamecoredllutil\include\cvstring.h
CONST	SEGMENT
??_7CvAICityStrategyEntry@@6B@ DD FLAT:?CacheResults@CvAICityStrategyEntry@@UAE_NAAVResults@Database@@AAVCvDatabaseUtility@@@Z ; CvAICityStrategyEntry::`vftable'
	DD	FLAT:??8CvBaseInfo@@UBE_NABV0@@Z
	DD	FLAT:?readFrom@CvBaseInfo@@UAEXAAVFDataStream@@@Z
	DD	FLAT:?writeTo@CvBaseInfo@@UBEXAAVFDataStream@@@Z
	DD	FLAT:??_ECvAICityStrategyEntry@@UAEPAXI@Z
CONST	ENDS
;	COMDAT xdata$x
xdata$x	SEGMENT
__unwindtable$??0CvAICityStrategyEntry@@QAE@XZ DD 0ffffffffH
	DD	FLAT:__unwindfunclet$??0CvAICityStrategyEntry@@QAE@XZ$0
__ehfuncinfo$??0CvAICityStrategyEntry@@QAE@XZ DD 019930522H
	DD	01H
	DD	FLAT:__unwindtable$??0CvAICityStrategyEntry@@QAE@XZ
	DD	2 DUP(00H)
	DD	2 DUP(00H)
	DD	00H
	DD	01H
; Function compile flags: /Odtp
; File d:\sources\lekmod_git\checkout\lekmod_dll\cvgamecoredll_expansion2\cvcitystrategyai.cpp
xdata$x	ENDS
;	COMDAT ??0CvAICityStrategyEntry@@QAE@XZ
_TEXT	SEGMENT
_this$ = -20						; size = 4
$T230401 = -16						; size = 4
__$EHRec$ = -12						; size = 12
??0CvAICityStrategyEntry@@QAE@XZ PROC			; CvAICityStrategyEntry::CvAICityStrategyEntry, COMDAT
; _this$ = ecx

; 40   : {

	push	ebp
	mov	ebp, esp
	push	-1
	push	__ehhandler$??0CvAICityStrategyEntry@@QAE@XZ
	mov	eax, DWORD PTR fs:0
	push	eax
	sub	esp, 8
	mov	eax, DWORD PTR ___security_cookie
	xor	eax, ebp
	push	eax
	lea	eax, DWORD PTR __$EHRec$[ebp]
	mov	DWORD PTR fs:0, eax
	mov	DWORD PTR _this$[ebp], ecx
	mov	ecx, DWORD PTR _this$[ebp]
	call	??0CvBaseInfo@@QAE@XZ			; CvBaseInfo::CvBaseInfo
	mov	DWORD PTR __$EHRec$[ebp+8], 0
	mov	eax, DWORD PTR _this$[ebp]
	mov	DWORD PTR [eax], OFFSET ??_7CvAICityStrategyEntry@@6B@
	mov	ecx, DWORD PTR _this$[ebp]
	mov	DWORD PTR [ecx+260], 0
	mov	edx, DWORD PTR _this$[ebp]
	mov	DWORD PTR [edx+264], 0
	mov	eax, DWORD PTR _this$[ebp]
	mov	DWORD PTR [eax+268], 0
	mov	ecx, DWORD PTR _this$[ebp]
	mov	DWORD PTR [ecx+272], -1
	mov	edx, DWORD PTR _this$[ebp]
	mov	DWORD PTR [edx+276], -1
	mov	eax, DWORD PTR _this$[ebp]
	mov	DWORD PTR [eax+280], 0
	mov	ecx, DWORD PTR _this$[ebp]
	mov	DWORD PTR [ecx+284], 0
	mov	edx, DWORD PTR _this$[ebp]
	mov	BYTE PTR [edx+288], 0
	mov	eax, DWORD PTR _this$[ebp]
	mov	BYTE PTR [eax+289], 0
	mov	ecx, DWORD PTR _this$[ebp]
	mov	DWORD PTR [ecx+292], -1
	mov	edx, DWORD PTR _this$[ebp]
	add	edx, 296				; 00000128H
	mov	DWORD PTR $T230401[ebp], edx
	mov	ecx, DWORD PTR $T230401[ebp]
	call	DWORD PTR __imp_??0?$basic_string@DU?$char_traits@D@std@@V?$allocator@D@2@@std@@QAE@XZ
	mov	eax, DWORD PTR _this$[ebp]
	mov	DWORD PTR [eax+324], 1

; 41   : }

	mov	DWORD PTR __$EHRec$[ebp+8], -1
	mov	eax, DWORD PTR _this$[ebp]
	mov	ecx, DWORD PTR __$EHRec$[ebp]
	mov	DWORD PTR fs:0, ecx
	pop	ecx
	mov	esp, ebp
	pop	ebp
	ret	0
_TEXT	ENDS
;	COMDAT text$x
text$x	SEGMENT
__unwindfunclet$??0CvAICityStrategyEntry@@QAE@XZ$0:
	mov	ecx, DWORD PTR _this$[ebp]
	jmp	??1CvBaseInfo@@QAE@XZ
__ehhandler$??0CvAICityStrategyEntry@@QAE@XZ:
	mov	edx, DWORD PTR [esp+8]
	lea	eax, DWORD PTR [edx+12]
	mov	ecx, DWORD PTR [edx-12]
	xor	ecx, eax
	call	@__security_check_cookie@4
	mov	eax, OFFSET __ehfuncinfo$??0CvAICityStrategyEntry@@QAE@XZ
	jmp	___CxxFrameHandler3
text$x	ENDS
??0CvAICityStrategyEntry@@QAE@XZ ENDP			; CvAICityStrategyEntry::CvAICityStrategyEntry
PUBLIC	??1CvAICityStrategyEntry@@UAE@XZ		; CvAICityStrategyEntry::~CvAICityStrategyEntry
EXTRN	??3@YAXPAX@Z:PROC				; operator delete
; Function compile flags: /Odtp
;	COMDAT ??_GCvAICityStrategyEntry@@UAEPAXI@Z
_TEXT	SEGMENT
_this$ = -4						; size = 4
___flags$ = 8						; size = 4
??_GCvAICityStrategyEntry@@UAEPAXI@Z PROC		; CvAICityStrategyEntry::`scalar deleting destructor', COMDAT
; _this$ = ecx
	push	ebp
	mov	ebp, esp
	push	ecx
	mov	DWORD PTR _this$[ebp], ecx
	mov	ecx, DWORD PTR _this$[ebp]
	call	??1CvAICityStrategyEntry@@UAE@XZ	; CvAICityStrategyEntry::~CvAICityStrategyEntry
	mov	eax, DWORD PTR ___flags$[ebp]
	and	eax, 1
	je	SHORT $LN1@scalar
	mov	ecx, DWORD PTR _this$[ebp]
	push	ecx
	call	??3@YAXPAX@Z				; operator delete
	add	esp, 4
$LN1@scalar:
	mov	eax, DWORD PTR _this$[ebp]
	mov	esp, ebp
	pop	ebp
	ret	4
??_GCvAICityStrategyEntry@@UAEPAXI@Z ENDP		; CvAICityStrategyEntry::`scalar deleting destructor'
_TEXT	ENDS
PUBLIC	??1CvString@@QAE@XZ				; CvString::~CvString
EXTRN	__imp_??1?$basic_string@DU?$char_traits@D@std@@V?$allocator@D@2@@std@@QAE@XZ:PROC
;	COMDAT xdata$x
xdata$x	SEGMENT
__ehfuncinfo$??1CvBaseInfo@@QAE@XZ DD 019930522H
	DD	08H
	DD	FLAT:__unwindtable$??1CvBaseInfo@@QAE@XZ
	DD	2 DUP(00H)
	DD	2 DUP(00H)
	DD	00H
	DD	01H
__unwindtable$??1CvBaseInfo@@QAE@XZ DD 0ffffffffH
	DD	FLAT:__unwindfunclet$??1CvBaseInfo@@QAE@XZ$0
	DD	00H
	DD	FLAT:__unwindfunclet$??1CvBaseInfo@@QAE@XZ$1
	DD	01H
	DD	FLAT:__unwindfunclet$??1CvBaseInfo@@QAE@XZ$2
	DD	02H
	DD	FLAT:__unwindfunclet$??1CvBaseInfo@@QAE@XZ$3
	DD	03H
	DD	FLAT:__unwindfunclet$??1CvBaseInfo@@QAE@XZ$4
	DD	04H
	DD	FLAT:__unwindfunclet$??1CvBaseInfo@@QAE@XZ$5
	DD	05H
	DD	FLAT:__unwindfunclet$??1CvBaseInfo@@QAE@XZ$6
	DD	06H
	DD	FLAT:__unwindfunclet$??1CvBaseInfo@@QAE@XZ$7
; Function compile flags: /Odtp
xdata$x	ENDS
;	COMDAT ??1CvBaseInfo@@QAE@XZ
_TEXT	SEGMENT
_this$ = -52						; size = 4
$T230470 = -48						; size = 4
$T230465 = -44						; size = 4
$T230460 = -40						; size = 4
$T230455 = -36						; size = 4
$T230450 = -32						; size = 4
$T230445 = -28						; size = 4
$T230440 = -24						; size = 4
$T230435 = -20						; size = 4
$T230430 = -16						; size = 4
__$EHRec$ = -12						; size = 12
??1CvBaseInfo@@QAE@XZ PROC				; CvBaseInfo::~CvBaseInfo, COMDAT
; _this$ = ecx
	push	ebp
	mov	ebp, esp
	push	-1
	push	__ehhandler$??1CvBaseInfo@@QAE@XZ
	mov	eax, DWORD PTR fs:0
	push	eax
	sub	esp, 40					; 00000028H
	mov	eax, DWORD PTR ___security_cookie
	xor	eax, ebp
	push	eax
	lea	eax, DWORD PTR __$EHRec$[ebp]
	mov	DWORD PTR fs:0, eax
	mov	DWORD PTR _this$[ebp], ecx
	mov	DWORD PTR __$EHRec$[ebp+8], 7
	mov	eax, DWORD PTR _this$[ebp]
	add	eax, 232				; 000000e8H
	mov	DWORD PTR $T230430[ebp], eax
	mov	ecx, DWORD PTR $T230430[ebp]
	call	DWORD PTR __imp_??1?$basic_string@DU?$char_traits@D@std@@V?$allocator@D@2@@std@@QAE@XZ
	mov	BYTE PTR __$EHRec$[ebp+8], 6
	mov	ecx, DWORD PTR _this$[ebp]
	add	ecx, 204				; 000000ccH
	mov	DWORD PTR $T230435[ebp], ecx
	mov	ecx, DWORD PTR $T230435[ebp]
	call	DWORD PTR __imp_??1?$basic_string@DU?$char_traits@D@std@@V?$allocator@D@2@@std@@QAE@XZ
	mov	BYTE PTR __$EHRec$[ebp+8], 5
	mov	edx, DWORD PTR _this$[ebp]
	add	edx, 176				; 000000b0H
	mov	DWORD PTR $T230440[ebp], edx
	mov	ecx, DWORD PTR $T230440[ebp]
	call	DWORD PTR __imp_??1?$basic_string@DU?$char_traits@D@std@@V?$allocator@D@2@@std@@QAE@XZ
	mov	BYTE PTR __$EHRec$[ebp+8], 4
	mov	eax, DWORD PTR _this$[ebp]
	add	eax, 148				; 00000094H
	mov	DWORD PTR $T230445[ebp], eax
	mov	ecx, DWORD PTR $T230445[ebp]
	call	DWORD PTR __imp_??1?$basic_string@DU?$char_traits@D@std@@V?$allocator@D@2@@std@@QAE@XZ
	mov	BYTE PTR __$EHRec$[ebp+8], 3
	mov	ecx, DWORD PTR _this$[ebp]
	add	ecx, 120				; 00000078H
	mov	DWORD PTR $T230450[ebp], ecx
	mov	ecx, DWORD PTR $T230450[ebp]
	call	DWORD PTR __imp_??1?$basic_string@DU?$char_traits@D@std@@V?$allocator@D@2@@std@@QAE@XZ
	mov	BYTE PTR __$EHRec$[ebp+8], 2
	mov	edx, DWORD PTR _this$[ebp]
	add	edx, 92					; 0000005cH
	mov	DWORD PTR $T230455[ebp], edx
	mov	ecx, DWORD PTR $T230455[ebp]
	call	DWORD PTR __imp_??1?$basic_string@DU?$char_traits@D@std@@V?$allocator@D@2@@std@@QAE@XZ
	mov	BYTE PTR __$EHRec$[ebp+8], 1
	mov	eax, DWORD PTR _this$[ebp]
	add	eax, 64					; 00000040H
	mov	DWORD PTR $T230460[ebp], eax
	mov	ecx, DWORD PTR $T230460[ebp]
	call	DWORD PTR __imp_??1?$basic_string@DU?$char_traits@D@std@@V?$allocator@D@2@@std@@QAE@XZ
	mov	BYTE PTR __$EHRec$[ebp+8], 0
	mov	ecx, DWORD PTR _this$[ebp]
	add	ecx, 36					; 00000024H
	mov	DWORD PTR $T230465[ebp], ecx
	mov	ecx, DWORD PTR $T230465[ebp]
	call	DWORD PTR __imp_??1?$basic_string@DU?$char_traits@D@std@@V?$allocator@D@2@@std@@QAE@XZ
	mov	DWORD PTR __$EHRec$[ebp+8], -1
	mov	edx, DWORD PTR _this$[ebp]
	add	edx, 8
	mov	DWORD PTR $T230470[ebp], edx
	mov	ecx, DWORD PTR $T230470[ebp]
	call	DWORD PTR __imp_??1?$basic_string@DU?$char_traits@D@std@@V?$allocator@D@2@@std@@QAE@XZ
	mov	ecx, DWORD PTR __$EHRec$[ebp]
	mov	DWORD PTR fs:0, ecx
	pop	ecx
	mov	esp, ebp
	pop	ebp
	ret	0
_TEXT	ENDS
;	COMDAT text$x
text$x	SEGMENT
__unwindfunclet$??1CvBaseInfo@@QAE@XZ$0:
	mov	ecx, DWORD PTR _this$[ebp]
	add	ecx, 8
	jmp	??1CvString@@QAE@XZ			; CvString::~CvString
__unwindfunclet$??1CvBaseInfo@@QAE@XZ$1:
	mov	ecx, DWORD PTR _this$[ebp]
	add	ecx, 36					; 00000024H
	jmp	??1CvString@@QAE@XZ			; CvString::~CvString
__unwindfunclet$??1CvBaseInfo@@QAE@XZ$2:
	mov	ecx, DWORD PTR _this$[ebp]
	add	ecx, 64					; 00000040H
	jmp	??1CvString@@QAE@XZ			; CvString::~CvString
__unwindfunclet$??1CvBaseInfo@@QAE@XZ$3:
	mov	ecx, DWORD PTR _this$[ebp]
	add	ecx, 92					; 0000005cH
	jmp	??1CvString@@QAE@XZ			; CvString::~CvString
__unwindfunclet$??1CvBaseInfo@@QAE@XZ$4:
	mov	ecx, DWORD PTR _this$[ebp]
	add	ecx, 120				; 00000078H
	jmp	??1CvString@@QAE@XZ			; CvString::~CvString
__unwindfunclet$??1CvBaseInfo@@QAE@XZ$5:
	mov	ecx, DWORD PTR _this$[ebp]
	add	ecx, 148				; 00000094H
	jmp	??1CvString@@QAE@XZ			; CvString::~CvString
__unwindfunclet$??1CvBaseInfo@@QAE@XZ$6:
	mov	ecx, DWORD PTR _this$[ebp]
	add	ecx, 176				; 000000b0H
	jmp	??1CvString@@QAE@XZ			; CvString::~CvString
__unwindfunclet$??1CvBaseInfo@@QAE@XZ$7:
	mov	ecx, DWORD PTR _this$[ebp]
	add	ecx, 204				; 000000ccH
	jmp	??1CvString@@QAE@XZ			; CvString::~CvString
__ehhandler$??1CvBaseInfo@@QAE@XZ:
	mov	edx, DWORD PTR [esp+8]
	lea	eax, DWORD PTR [edx+12]
	mov	ecx, DWORD PTR [edx-44]
	xor	ecx, eax
	call	@__security_check_cookie@4
	mov	eax, OFFSET __ehfuncinfo$??1CvBaseInfo@@QAE@XZ
	jmp	___CxxFrameHandler3
text$x	ENDS
??1CvBaseInfo@@QAE@XZ ENDP				; CvBaseInfo::~CvBaseInfo
EXTRN	??_V@YAXPAX@Z:PROC				; operator delete[]
;	COMDAT xdata$x
; File d:\sources\lekmod_git\checkout\lekmod_dll\cvgamecoredllutil\include\cvstring.h
xdata$x	SEGMENT
__unwindtable$??1CvAICityStrategyEntry@@UAE@XZ DD 0ffffffffH
	DD	FLAT:__unwindfunclet$??1CvAICityStrategyEntry@@UAE@XZ$0
__ehfuncinfo$??1CvAICityStrategyEntry@@UAE@XZ DD 019930522H
	DD	01H
	DD	FLAT:__unwindtable$??1CvAICityStrategyEntry@@UAE@XZ
	DD	2 DUP(00H)
	DD	2 DUP(00H)
	DD	00H
	DD	01H
; Function compile flags: /Odtp
; File d:\sources\lekmod_git\checkout\lekmod_dll\cvgamecoredll_expansion2\cvcitystrategyai.cpp
xdata$x	ENDS
;	COMDAT ??1CvAICityStrategyEntry@@UAE@XZ
_TEXT	SEGMENT
_this$ = -72						; size = 4
$T230497 = -32						; size = 4
$T230492 = -28						; size = 4
$T230490 = -24						; size = 4
$T230486 = -20						; size = 4
$T230484 = -16						; size = 4
__$EHRec$ = -12						; size = 12
??1CvAICityStrategyEntry@@UAE@XZ PROC			; CvAICityStrategyEntry::~CvAICityStrategyEntry, COMDAT
; _this$ = ecx

; 44   : {

	push	ebp
	mov	ebp, esp
	push	-1
	push	__ehhandler$??1CvAICityStrategyEntry@@UAE@XZ
	mov	eax, DWORD PTR fs:0
	push	eax
	sub	esp, 60					; 0000003cH
	mov	eax, DWORD PTR ___security_cookie
	xor	eax, ebp
	push	eax
	lea	eax, DWORD PTR __$EHRec$[ebp]
	mov	DWORD PTR fs:0, eax
	mov	DWORD PTR _this$[ebp], ecx
	mov	eax, DWORD PTR _this$[ebp]
	mov	DWORD PTR [eax], OFFSET ??_7CvAICityStrategyEntry@@6B@
	mov	DWORD PTR __$EHRec$[ebp+8], 0

; 45   : 	SAFE_DELETE_ARRAY(m_piFlavorValue);

	mov	ecx, DWORD PTR _this$[ebp]
	add	ecx, 260				; 00000104H
	mov	DWORD PTR $T230486[ebp], ecx
	mov	edx, DWORD PTR $T230486[ebp]
	mov	eax, DWORD PTR [edx]
	mov	DWORD PTR $T230484[ebp], eax
	mov	ecx, DWORD PTR $T230484[ebp]
	push	ecx
	call	??_V@YAXPAX@Z				; operator delete[]
	add	esp, 4
	mov	edx, DWORD PTR $T230486[ebp]
	mov	DWORD PTR [edx], 0

; 46   : 	SAFE_DELETE_ARRAY(m_piPersonalityFlavorThresholdMod);

	mov	eax, DWORD PTR _this$[ebp]
	add	eax, 268				; 0000010cH
	mov	DWORD PTR $T230492[ebp], eax
	mov	ecx, DWORD PTR $T230492[ebp]
	mov	edx, DWORD PTR [ecx]
	mov	DWORD PTR $T230490[ebp], edx
	mov	eax, DWORD PTR $T230490[ebp]
	push	eax
	call	??_V@YAXPAX@Z				; operator delete[]
	add	esp, 4
	mov	ecx, DWORD PTR $T230492[ebp]
	mov	DWORD PTR [ecx], 0

; 47   : }

	mov	edx, DWORD PTR _this$[ebp]
	add	edx, 296				; 00000128H
	mov	DWORD PTR $T230497[ebp], edx
	mov	ecx, DWORD PTR $T230497[ebp]
	call	DWORD PTR __imp_??1?$basic_string@DU?$char_traits@D@std@@V?$allocator@D@2@@std@@QAE@XZ
	mov	DWORD PTR __$EHRec$[ebp+8], -1
	mov	ecx, DWORD PTR _this$[ebp]
	call	??1CvBaseInfo@@QAE@XZ
	mov	ecx, DWORD PTR __$EHRec$[ebp]
	mov	DWORD PTR fs:0, ecx
	pop	ecx
	mov	esp, ebp
	pop	ebp
	ret	0
_TEXT	ENDS
;	COMDAT text$x
text$x	SEGMENT
__unwindfunclet$??1CvAICityStrategyEntry@@UAE@XZ$0:
	mov	ecx, DWORD PTR _this$[ebp]
	jmp	??1CvBaseInfo@@QAE@XZ
__ehhandler$??1CvAICityStrategyEntry@@UAE@XZ:
	mov	edx, DWORD PTR [esp+8]
	lea	eax, DWORD PTR [edx+12]
	mov	ecx, DWORD PTR [edx-64]
	xor	ecx, eax
	call	@__security_check_cookie@4
	mov	eax, OFFSET __ehfuncinfo$??1CvAICityStrategyEntry@@UAE@XZ
	jmp	___CxxFrameHandler3
text$x	ENDS
??1CvAICityStrategyEntry@@UAE@XZ ENDP			; CvAICityStrategyEntry::~CvAICityStrategyEntry
PUBLIC	??_C@_0CO@PLDOECEE@AICityStrategy_PersonalityFlavor@ ; `string'
PUBLIC	??_C@_0BH@BAIDBNFC@AICityStrategy_Flavors?$AA@	; `string'
PUBLIC	??_C@_0BD@BEKMHKAN@AICityStrategyType?$AA@	; `string'
PUBLIC	??_C@_0L@IANCLNMF@TechPrereq?$AA@		; `string'
PUBLIC	??_C@_0N@COMAJFAF@TechObsolete?$AA@		; `string'
PUBLIC	??_C@_0BJ@EDJBOKGB@AdvisorCounselImportance?$AA@ ; `string'
PUBLIC	??_C@_0P@KBBBKHGN@AdvisorCounsel?$AA@		; `string'
PUBLIC	??_C@_07IMKJABN@SCIENCE?$AA@			; `string'
PUBLIC	??_C@_07OLAKHONA@FOREIGN?$AA@			; `string'
PUBLIC	??_C@_08LKDCODGK@ECONOMIC?$AA@			; `string'
PUBLIC	??_C@_08EBHPNIPO@MILITARY?$AA@			; `string'
PUBLIC	??_C@_07GOECOJOI@Advisor?$AA@			; `string'
PUBLIC	??_C@_0BA@BKBCAEL@WeightThreshold?$AA@		; `string'
PUBLIC	??_C@_0BI@CIDKLIKO@MinimumNumTurnsExecuted?$AA@	; `string'
PUBLIC	??_C@_0BG@BFKLKDMO@CheckTriggerTurnCount?$AA@	; `string'
PUBLIC	??_C@_09FHMJCGNI@Permanent?$AA@			; `string'
PUBLIC	??_C@_0M@PGLGACOH@NoMinorCivs?$AA@		; `string'
EXTRN	?SetFlavors@CvDatabaseUtility@@QAE_NAAPAHPBD11H@Z:PROC ; CvDatabaseUtility::SetFlavors
EXTRN	__imp_?c_str@?$basic_string@DU?$char_traits@D@std@@V?$allocator@D@2@@std@@QBEPBDXZ:PROC
EXTRN	?getInfoTypeForString@CvGlobals@@QBEHPBD_N@Z:PROC ; CvGlobals::getInfoTypeForString
EXTRN	?gGlobals@@3VCvGlobals@@A:BYTE			; gGlobals
EXTRN	__imp_?clear@?$basic_string@DU?$char_traits@D@std@@V?$allocator@D@2@@std@@QAEXXZ:PROC
EXTRN	__imp_?assign@?$basic_string@DU?$char_traits@D@std@@V?$allocator@D@2@@std@@QAEAAV12@PBD@Z:PROC
EXTRN	__imp_?GetText@Results@Database@@QAEPBDPBD@Z:PROC
EXTRN	__imp_?GetInt@Results@Database@@QAEHPBD@Z:PROC
EXTRN	__imp_?GetBool@Results@Database@@QAE_NPBD@Z:PROC
EXTRN	?CacheResults@CvBaseInfo@@UAE_NAAVResults@Database@@AAVCvDatabaseUtility@@@Z:PROC ; CvBaseInfo::CacheResults
;	COMDAT ??_C@_0CO@PLDOECEE@AICityStrategy_PersonalityFlavor@
; File d:\sources\lekmod_git\checkout\lekmod_dll\cvgamecoredll_expansion2\cvinfos.h
CONST	SEGMENT
??_C@_0CO@PLDOECEE@AICityStrategy_PersonalityFlavor@ DB 'AICityStrategy_P'
	DB	'ersonalityFlavorThresholdMods', 00H		; `string'
CONST	ENDS
;	COMDAT ??_C@_0BH@BAIDBNFC@AICityStrategy_Flavors?$AA@
CONST	SEGMENT
??_C@_0BH@BAIDBNFC@AICityStrategy_Flavors?$AA@ DB 'AICityStrategy_Flavors'
	DB	00H						; `string'
CONST	ENDS
;	COMDAT ??_C@_0BD@BEKMHKAN@AICityStrategyType?$AA@
CONST	SEGMENT
??_C@_0BD@BEKMHKAN@AICityStrategyType?$AA@ DB 'AICityStrategyType', 00H ; `string'
CONST	ENDS
;	COMDAT ??_C@_0L@IANCLNMF@TechPrereq?$AA@
CONST	SEGMENT
??_C@_0L@IANCLNMF@TechPrereq?$AA@ DB 'TechPrereq', 00H	; `string'
CONST	ENDS
;	COMDAT ??_C@_0N@COMAJFAF@TechObsolete?$AA@
CONST	SEGMENT
??_C@_0N@COMAJFAF@TechObsolete?$AA@ DB 'TechObsolete', 00H ; `string'
CONST	ENDS
;	COMDAT ??_C@_0BJ@EDJBOKGB@AdvisorCounselImportance?$AA@
CONST	SEGMENT
??_C@_0BJ@EDJBOKGB@AdvisorCounselImportance?$AA@ DB 'AdvisorCounselImport'
	DB	'ance', 00H					; `string'
CONST	ENDS
;	COMDAT ??_C@_0P@KBBBKHGN@AdvisorCounsel?$AA@
CONST	SEGMENT
??_C@_0P@KBBBKHGN@AdvisorCounsel?$AA@ DB 'AdvisorCounsel', 00H ; `string'
CONST	ENDS
;	COMDAT ??_C@_07IMKJABN@SCIENCE?$AA@
CONST	SEGMENT
??_C@_07IMKJABN@SCIENCE?$AA@ DB 'SCIENCE', 00H		; `string'
CONST	ENDS
;	COMDAT ??_C@_07OLAKHONA@FOREIGN?$AA@
CONST	SEGMENT
??_C@_07OLAKHONA@FOREIGN?$AA@ DB 'FOREIGN', 00H		; `string'
CONST	ENDS
;	COMDAT ??_C@_08LKDCODGK@ECONOMIC?$AA@
CONST	SEGMENT
??_C@_08LKDCODGK@ECONOMIC?$AA@ DB 'ECONOMIC', 00H	; `string'
CONST	ENDS
;	COMDAT ??_C@_08EBHPNIPO@MILITARY?$AA@
CONST	SEGMENT
??_C@_08EBHPNIPO@MILITARY?$AA@ DB 'MILITARY', 00H	; `string'
CONST	ENDS
;	COMDAT ??_C@_07GOECOJOI@Advisor?$AA@
CONST	SEGMENT
??_C@_07GOECOJOI@Advisor?$AA@ DB 'Advisor', 00H		; `string'
CONST	ENDS
;	COMDAT ??_C@_0BA@BKBCAEL@WeightThreshold?$AA@
CONST	SEGMENT
??_C@_0BA@BKBCAEL@WeightThreshold?$AA@ DB 'WeightThreshold', 00H ; `string'
CONST	ENDS
;	COMDAT ??_C@_0BI@CIDKLIKO@MinimumNumTurnsExecuted?$AA@
CONST	SEGMENT
??_C@_0BI@CIDKLIKO@MinimumNumTurnsExecuted?$AA@ DB 'MinimumNumTurnsExecut'
	DB	'ed', 00H					; `string'
CONST	ENDS
;	COMDAT ??_C@_0BG@BFKLKDMO@CheckTriggerTurnCount?$AA@
CONST	SEGMENT
??_C@_0BG@BFKLKDMO@CheckTriggerTurnCount?$AA@ DB 'CheckTriggerTurnCount', 00H ; `string'
CONST	ENDS
;	COMDAT ??_C@_09FHMJCGNI@Permanent?$AA@
CONST	SEGMENT
??_C@_09FHMJCGNI@Permanent?$AA@ DB 'Permanent', 00H	; `string'
CONST	ENDS
;	COMDAT ??_C@_0M@PGLGACOH@NoMinorCivs?$AA@
CONST	SEGMENT
??_C@_0M@PGLGACOH@NoMinorCivs?$AA@ DB 'NoMinorCivs', 00H ; `string'
; Function compile flags: /Odtp
; File d:\sources\lekmod_git\checkout\lekmod_dll\cvgamecoredll_expansion2\cvcitystrategyai.cpp
CONST	ENDS
;	COMDAT ?CacheResults@CvAICityStrategyEntry@@UAE_NAAVResults@Database@@AAVCvDatabaseUtility@@@Z
_TEXT	SEGMENT
tv152 = -104						; size = 4
tv319 = -100						; size = 4
tv314 = -94						; size = 1
tv307 = -93						; size = 1
tv302 = -92						; size = 4
tv304 = -88						; size = 4
tv146 = -84						; size = 4
tv296 = -80						; size = 4
tv291 = -74						; size = 1
tv284 = -73						; size = 1
tv279 = -72						; size = 4
tv281 = -68						; size = 4
tv140 = -64						; size = 4
tv273 = -60						; size = 4
tv268 = -54						; size = 1
tv261 = -53						; size = 1
tv256 = -52						; size = 4
tv258 = -48						; size = 4
tv134 = -44						; size = 4
tv250 = -40						; size = 4
tv245 = -34						; size = 1
tv238 = -33						; size = 1
tv233 = -32						; size = 4
tv235 = -28						; size = 4
_this$ = -24						; size = 4
$T230567 = -20						; size = 4
$T230566 = -16						; size = 4
_szType$ = -12						; size = 4
_strAdvisor$ = -8					; size = 4
_szTextVal$ = -4					; size = 4
_kResults$ = 8						; size = 4
_kUtility$ = 12						; size = 4
?CacheResults@CvAICityStrategyEntry@@UAE_NAAVResults@Database@@AAVCvDatabaseUtility@@@Z PROC ; CvAICityStrategyEntry::CacheResults, COMDAT
; _this$ = ecx

; 50   : {

	push	ebp
	mov	ebp, esp
	sub	esp, 104				; 00000068H
	mov	DWORD PTR _this$[ebp], ecx

; 51   : 	if(!CvBaseInfo::CacheResults(kResults, kUtility))

	mov	eax, DWORD PTR _kUtility$[ebp]
	push	eax
	mov	ecx, DWORD PTR _kResults$[ebp]
	push	ecx
	mov	ecx, DWORD PTR _this$[ebp]
	call	?CacheResults@CvBaseInfo@@UAE_NAAVResults@Database@@AAVCvDatabaseUtility@@@Z ; CvBaseInfo::CacheResults
	movzx	edx, al
	test	edx, edx
	jne	SHORT $LN9@CacheResul

; 52   : 		return false;

	xor	al, al
	jmp	$LN10@CacheResul
$LN9@CacheResul:

; 53   : 
; 54   : 	//Basic Properties
; 55   : 	m_bNoMinorCivs				= kResults.GetBool("NoMinorCivs");

	push	OFFSET ??_C@_0M@PGLGACOH@NoMinorCivs?$AA@
	mov	ecx, DWORD PTR _kResults$[ebp]
	call	DWORD PTR __imp_?GetBool@Results@Database@@QAE_NPBD@Z
	mov	ecx, DWORD PTR _this$[ebp]
	mov	BYTE PTR [ecx+288], al

; 56   : 	m_bPermanent				= kResults.GetBool("Permanent");

	push	OFFSET ??_C@_09FHMJCGNI@Permanent?$AA@
	mov	ecx, DWORD PTR _kResults$[ebp]
	call	DWORD PTR __imp_?GetBool@Results@Database@@QAE_NPBD@Z
	mov	edx, DWORD PTR _this$[ebp]
	mov	BYTE PTR [edx+289], al

; 57   : 	m_iCheckTriggerTurnCount	= kResults.GetInt("CheckTriggerTurnCount");

	push	OFFSET ??_C@_0BG@BFKLKDMO@CheckTriggerTurnCount?$AA@
	mov	ecx, DWORD PTR _kResults$[ebp]
	call	DWORD PTR __imp_?GetInt@Results@Database@@QAEHPBD@Z
	mov	ecx, DWORD PTR _this$[ebp]
	mov	DWORD PTR [ecx+284], eax

; 58   : 	m_iMinimumNumTurnsExecuted	= kResults.GetInt("MinimumNumTurnsExecuted");

	push	OFFSET ??_C@_0BI@CIDKLIKO@MinimumNumTurnsExecuted?$AA@
	mov	ecx, DWORD PTR _kResults$[ebp]
	call	DWORD PTR __imp_?GetInt@Results@Database@@QAEHPBD@Z
	mov	edx, DWORD PTR _this$[ebp]
	mov	DWORD PTR [edx+280], eax

; 59   : 	m_iWeightThreshold			= kResults.GetInt("WeightThreshold");

	push	OFFSET ??_C@_0BA@BKBCAEL@WeightThreshold?$AA@
	mov	ecx, DWORD PTR _kResults$[ebp]
	call	DWORD PTR __imp_?GetInt@Results@Database@@QAEHPBD@Z
	mov	ecx, DWORD PTR _this$[ebp]
	mov	DWORD PTR [ecx+264], eax

; 60   : 
; 61   : 	const char* strAdvisor = kResults.GetText("Advisor");

	push	OFFSET ??_C@_07GOECOJOI@Advisor?$AA@
	mov	ecx, DWORD PTR _kResults$[ebp]
	call	DWORD PTR __imp_?GetText@Results@Database@@QAEPBDPBD@Z
	mov	DWORD PTR _strAdvisor$[ebp], eax

; 62   : 	m_eAdvisor = NO_ADVISOR_TYPE;

	mov	edx, DWORD PTR _this$[ebp]
	mov	DWORD PTR [edx+292], -1

; 63   : 	if(strAdvisor)

	cmp	DWORD PTR _strAdvisor$[ebp], 0
	je	$LN8@CacheResul

; 64   : 	{
; 65   : 		if(strcmp(strAdvisor, "MILITARY") == 0)

	mov	DWORD PTR tv235[ebp], OFFSET ??_C@_08EBHPNIPO@MILITARY?$AA@
	mov	eax, DWORD PTR _strAdvisor$[ebp]
	mov	DWORD PTR tv233[ebp], eax
$LL18@CacheResul:
	mov	ecx, DWORD PTR tv233[ebp]
	mov	dl, BYTE PTR [ecx]
	mov	BYTE PTR tv238[ebp], dl
	mov	eax, DWORD PTR tv235[ebp]
	cmp	dl, BYTE PTR [eax]
	jne	SHORT $LN19@CacheResul
	cmp	BYTE PTR tv238[ebp], 0
	je	SHORT $LN20@CacheResul
	mov	ecx, DWORD PTR tv233[ebp]
	mov	dl, BYTE PTR [ecx+1]
	mov	BYTE PTR tv245[ebp], dl
	mov	eax, DWORD PTR tv235[ebp]
	cmp	dl, BYTE PTR [eax+1]
	jne	SHORT $LN19@CacheResul
	add	DWORD PTR tv233[ebp], 2
	add	DWORD PTR tv235[ebp], 2
	cmp	BYTE PTR tv245[ebp], 0
	jne	SHORT $LL18@CacheResul
$LN20@CacheResul:
	mov	DWORD PTR tv250[ebp], 0
	jmp	SHORT $LN21@CacheResul
$LN19@CacheResul:
	sbb	ecx, ecx
	sbb	ecx, -1
	mov	DWORD PTR tv250[ebp], ecx
$LN21@CacheResul:
	mov	edx, DWORD PTR tv250[ebp]
	mov	DWORD PTR tv134[ebp], edx
	cmp	DWORD PTR tv134[ebp], 0
	jne	SHORT $LN7@CacheResul

; 66   : 		{
; 67   : 			m_eAdvisor = ADVISOR_MILITARY;

	mov	eax, DWORD PTR _this$[ebp]
	mov	DWORD PTR [eax+292], 0
	jmp	$LN8@CacheResul
$LN7@CacheResul:

; 68   : 		}
; 69   : 		else if(strcmp(strAdvisor, "ECONOMIC") == 0)

	mov	DWORD PTR tv258[ebp], OFFSET ??_C@_08LKDCODGK@ECONOMIC?$AA@
	mov	ecx, DWORD PTR _strAdvisor$[ebp]
	mov	DWORD PTR tv256[ebp], ecx
$LL22@CacheResul:
	mov	edx, DWORD PTR tv256[ebp]
	mov	al, BYTE PTR [edx]
	mov	BYTE PTR tv261[ebp], al
	mov	ecx, DWORD PTR tv258[ebp]
	cmp	al, BYTE PTR [ecx]
	jne	SHORT $LN23@CacheResul
	cmp	BYTE PTR tv261[ebp], 0
	je	SHORT $LN24@CacheResul
	mov	edx, DWORD PTR tv256[ebp]
	mov	al, BYTE PTR [edx+1]
	mov	BYTE PTR tv268[ebp], al
	mov	ecx, DWORD PTR tv258[ebp]
	cmp	al, BYTE PTR [ecx+1]
	jne	SHORT $LN23@CacheResul
	add	DWORD PTR tv256[ebp], 2
	add	DWORD PTR tv258[ebp], 2
	cmp	BYTE PTR tv268[ebp], 0
	jne	SHORT $LL22@CacheResul
$LN24@CacheResul:
	mov	DWORD PTR tv273[ebp], 0
	jmp	SHORT $LN25@CacheResul
$LN23@CacheResul:
	sbb	edx, edx
	sbb	edx, -1
	mov	DWORD PTR tv273[ebp], edx
$LN25@CacheResul:
	mov	eax, DWORD PTR tv273[ebp]
	mov	DWORD PTR tv140[ebp], eax
	cmp	DWORD PTR tv140[ebp], 0
	jne	SHORT $LN5@CacheResul

; 70   : 		{
; 71   : 			m_eAdvisor = ADVISOR_ECONOMIC;

	mov	ecx, DWORD PTR _this$[ebp]
	mov	DWORD PTR [ecx+292], 1
	jmp	$LN8@CacheResul
$LN5@CacheResul:

; 72   : 		}
; 73   : 		else if(strcmp(strAdvisor, "FOREIGN") == 0)

	mov	DWORD PTR tv281[ebp], OFFSET ??_C@_07OLAKHONA@FOREIGN?$AA@
	mov	edx, DWORD PTR _strAdvisor$[ebp]
	mov	DWORD PTR tv279[ebp], edx
$LL26@CacheResul:
	mov	eax, DWORD PTR tv279[ebp]
	mov	cl, BYTE PTR [eax]
	mov	BYTE PTR tv284[ebp], cl
	mov	edx, DWORD PTR tv281[ebp]
	cmp	cl, BYTE PTR [edx]
	jne	SHORT $LN27@CacheResul
	cmp	BYTE PTR tv284[ebp], 0
	je	SHORT $LN28@CacheResul
	mov	eax, DWORD PTR tv279[ebp]
	mov	cl, BYTE PTR [eax+1]
	mov	BYTE PTR tv291[ebp], cl
	mov	edx, DWORD PTR tv281[ebp]
	cmp	cl, BYTE PTR [edx+1]
	jne	SHORT $LN27@CacheResul
	add	DWORD PTR tv279[ebp], 2
	add	DWORD PTR tv281[ebp], 2
	cmp	BYTE PTR tv291[ebp], 0
	jne	SHORT $LL26@CacheResul
$LN28@CacheResul:
	mov	DWORD PTR tv296[ebp], 0
	jmp	SHORT $LN29@CacheResul
$LN27@CacheResul:
	sbb	eax, eax
	sbb	eax, -1
	mov	DWORD PTR tv296[ebp], eax
$LN29@CacheResul:
	mov	ecx, DWORD PTR tv296[ebp]
	mov	DWORD PTR tv146[ebp], ecx
	cmp	DWORD PTR tv146[ebp], 0
	jne	SHORT $LN3@CacheResul

; 74   : 		{
; 75   : 			m_eAdvisor = ADVISOR_FOREIGN;

	mov	edx, DWORD PTR _this$[ebp]
	mov	DWORD PTR [edx+292], 2
	jmp	SHORT $LN8@CacheResul
$LN3@CacheResul:

; 76   : 		}
; 77   : 		else if(strcmp(strAdvisor, "SCIENCE") == 0)

	mov	DWORD PTR tv304[ebp], OFFSET ??_C@_07IMKJABN@SCIENCE?$AA@
	mov	eax, DWORD PTR _strAdvisor$[ebp]
	mov	DWORD PTR tv302[ebp], eax
$LL30@CacheResul:
	mov	ecx, DWORD PTR tv302[ebp]
	mov	dl, BYTE PTR [ecx]
	mov	BYTE PTR tv307[ebp], dl
	mov	eax, DWORD PTR tv304[ebp]
	cmp	dl, BYTE PTR [eax]
	jne	SHORT $LN31@CacheResul
	cmp	BYTE PTR tv307[ebp], 0
	je	SHORT $LN32@CacheResul
	mov	ecx, DWORD PTR tv302[ebp]
	mov	dl, BYTE PTR [ecx+1]
	mov	BYTE PTR tv314[ebp], dl
	mov	eax, DWORD PTR tv304[ebp]
	cmp	dl, BYTE PTR [eax+1]
	jne	SHORT $LN31@CacheResul
	add	DWORD PTR tv302[ebp], 2
	add	DWORD PTR tv304[ebp], 2
	cmp	BYTE PTR tv314[ebp], 0
	jne	SHORT $LL30@CacheResul
$LN32@CacheResul:
	mov	DWORD PTR tv319[ebp], 0
	jmp	SHORT $LN33@CacheResul
$LN31@CacheResul:
	sbb	ecx, ecx
	sbb	ecx, -1
	mov	DWORD PTR tv319[ebp], ecx
$LN33@CacheResul:
	mov	edx, DWORD PTR tv319[ebp]
	mov	DWORD PTR tv152[ebp], edx
	cmp	DWORD PTR tv152[ebp], 0
	jne	SHORT $LN8@CacheResul

; 78   : 		{
; 79   : 			m_eAdvisor = ADVISOR_SCIENCE;

	mov	eax, DWORD PTR _this$[ebp]
	mov	DWORD PTR [eax+292], 3
$LN8@CacheResul:

; 80   : 		}
; 81   : 	}
; 82   : 
; 83   : 	m_strAdvisorCounselText = kResults.GetText("AdvisorCounsel");

	push	OFFSET ??_C@_0P@KBBBKHGN@AdvisorCounsel?$AA@
	mov	ecx, DWORD PTR _kResults$[ebp]
	call	DWORD PTR __imp_?GetText@Results@Database@@QAEPBDPBD@Z
	mov	DWORD PTR $T230567[ebp], eax
	mov	ecx, DWORD PTR _this$[ebp]
	add	ecx, 296				; 00000128H
	mov	DWORD PTR $T230566[ebp], ecx
	cmp	DWORD PTR $T230567[ebp], 0
	je	SHORT $LN13@CacheResul
	mov	edx, DWORD PTR $T230567[ebp]
	push	edx
	mov	ecx, DWORD PTR $T230566[ebp]
	call	DWORD PTR __imp_?assign@?$basic_string@DU?$char_traits@D@std@@V?$allocator@D@2@@std@@QAEAAV12@PBD@Z
	jmp	SHORT $LN14@CacheResul
$LN13@CacheResul:
	mov	ecx, DWORD PTR $T230566[ebp]
	call	DWORD PTR __imp_?clear@?$basic_string@DU?$char_traits@D@std@@V?$allocator@D@2@@std@@QAEXXZ
$LN14@CacheResul:

; 84   : 	m_iAdvisorCounselImportance = kResults.GetInt("AdvisorCounselImportance");

	push	OFFSET ??_C@_0BJ@EDJBOKGB@AdvisorCounselImportance?$AA@
	mov	ecx, DWORD PTR _kResults$[ebp]
	call	DWORD PTR __imp_?GetInt@Results@Database@@QAEHPBD@Z
	mov	ecx, DWORD PTR _this$[ebp]
	mov	DWORD PTR [ecx+324], eax

; 85   : 
; 86   : 	//References
; 87   : 	const char* szTextVal;
; 88   : 	szTextVal = kResults.GetText("TechObsolete");

	push	OFFSET ??_C@_0N@COMAJFAF@TechObsolete?$AA@
	mov	ecx, DWORD PTR _kResults$[ebp]
	call	DWORD PTR __imp_?GetText@Results@Database@@QAEPBDPBD@Z
	mov	DWORD PTR _szTextVal$[ebp], eax

; 89   : 	m_iTechObsolete = GC.getInfoTypeForString(szTextVal, true);

	push	1
	mov	edx, DWORD PTR _szTextVal$[ebp]
	push	edx
	mov	ecx, OFFSET ?gGlobals@@3VCvGlobals@@A	; gGlobals
	call	?getInfoTypeForString@CvGlobals@@QBEHPBD_N@Z ; CvGlobals::getInfoTypeForString
	mov	ecx, DWORD PTR _this$[ebp]
	mov	DWORD PTR [ecx+276], eax

; 90   : 
; 91   : 	szTextVal = kResults.GetText("TechPrereq");

	push	OFFSET ??_C@_0L@IANCLNMF@TechPrereq?$AA@
	mov	ecx, DWORD PTR _kResults$[ebp]
	call	DWORD PTR __imp_?GetText@Results@Database@@QAEPBDPBD@Z
	mov	DWORD PTR _szTextVal$[ebp], eax

; 92   : 	m_iTechPrereq = GC.getInfoTypeForString(szTextVal, true);

	push	1
	mov	edx, DWORD PTR _szTextVal$[ebp]
	push	edx
	mov	ecx, OFFSET ?gGlobals@@3VCvGlobals@@A	; gGlobals
	call	?getInfoTypeForString@CvGlobals@@QBEHPBD_N@Z ; CvGlobals::getInfoTypeForString
	mov	ecx, DWORD PTR _this$[ebp]
	mov	DWORD PTR [ecx+272], eax

; 93   : 
; 94   : 	//Arrays
; 95   : 	const char* szType = GetType();

	mov	ecx, DWORD PTR _this$[ebp]
	add	ecx, 176				; 000000b0H
	call	DWORD PTR __imp_?c_str@?$basic_string@DU?$char_traits@D@std@@V?$allocator@D@2@@std@@QBEPBDXZ
	mov	DWORD PTR _szType$[ebp], eax

; 96   : 	kUtility.SetFlavors(m_piFlavorValue, "AICityStrategy_Flavors",
; 97   : 	                    "AICityStrategyType", szType);

	push	0
	mov	edx, DWORD PTR _szType$[ebp]
	push	edx
	push	OFFSET ??_C@_0BD@BEKMHKAN@AICityStrategyType?$AA@
	push	OFFSET ??_C@_0BH@BAIDBNFC@AICityStrategy_Flavors?$AA@
	mov	eax, DWORD PTR _this$[ebp]
	add	eax, 260				; 00000104H
	push	eax
	mov	ecx, DWORD PTR _kUtility$[ebp]
	call	?SetFlavors@CvDatabaseUtility@@QAE_NAAPAHPBD11H@Z ; CvDatabaseUtility::SetFlavors

; 98   : 
; 99   : 	kUtility.SetFlavors(m_piPersonalityFlavorThresholdMod,
; 100  : 	                    "AICityStrategy_PersonalityFlavorThresholdMods",
; 101  : 	                    "AICityStrategyType", szType);

	push	0
	mov	ecx, DWORD PTR _szType$[ebp]
	push	ecx
	push	OFFSET ??_C@_0BD@BEKMHKAN@AICityStrategyType?$AA@
	push	OFFSET ??_C@_0CO@PLDOECEE@AICityStrategy_PersonalityFlavor@
	mov	edx, DWORD PTR _this$[ebp]
	add	edx, 268				; 0000010cH
	push	edx
	mov	ecx, DWORD PTR _kUtility$[ebp]
	call	?SetFlavors@CvDatabaseUtility@@QAE_NAAPAHPBD11H@Z ; CvDatabaseUtility::SetFlavors

; 102  : 
; 103  : 	return true;

	mov	al, 1
$LN10@CacheResul:

; 104  : }

	mov	esp, ebp
	pop	ebp
	ret	8
?CacheResults@CvAICityStrategyEntry@@UAE_NAAVResults@Database@@AAVCvDatabaseUtility@@@Z ENDP ; CvAICityStrategyEntry::CacheResults
_TEXT	ENDS
PUBLIC	?GetFlavorValue@CvAICityStrategyEntry@@QBEHH@Z	; CvAICityStrategyEntry::GetFlavorValue
; Function compile flags: /Odtp
;	COMDAT ?GetFlavorValue@CvAICityStrategyEntry@@QBEHH@Z
_TEXT	SEGMENT
tv69 = -8						; size = 4
_this$ = -4						; size = 4
_i$ = 8							; size = 4
?GetFlavorValue@CvAICityStrategyEntry@@QBEHH@Z PROC	; CvAICityStrategyEntry::GetFlavorValue, COMDAT
; _this$ = ecx

; 108  : {

	push	ebp
	mov	ebp, esp
	sub	esp, 8
	mov	DWORD PTR _this$[ebp], ecx

; 109  : 	CvAssertMsg(i < GC.getNumFlavorTypes(), "Index out of bounds");
; 110  : 	CvAssertMsg(i > -1, "Index out of bounds");
; 111  : 	return m_piFlavorValue ? m_piFlavorValue[i] : -1;

	mov	eax, DWORD PTR _this$[ebp]
	cmp	DWORD PTR [eax+260], 0
	je	SHORT $LN3@GetFlavorV
	mov	ecx, DWORD PTR _this$[ebp]
	mov	edx, DWORD PTR [ecx+260]
	mov	eax, DWORD PTR _i$[ebp]
	mov	ecx, DWORD PTR [edx+eax*4]
	mov	DWORD PTR tv69[ebp], ecx
	jmp	SHORT $LN4@GetFlavorV
$LN3@GetFlavorV:
	mov	DWORD PTR tv69[ebp], -1
$LN4@GetFlavorV:
	mov	eax, DWORD PTR tv69[ebp]

; 112  : }

	mov	esp, ebp
	pop	ebp
	ret	4
?GetFlavorValue@CvAICityStrategyEntry@@QBEHH@Z ENDP	; CvAICityStrategyEntry::GetFlavorValue
_TEXT	ENDS
PUBLIC	?GetWeightThreshold@CvAICityStrategyEntry@@QBEHXZ ; CvAICityStrategyEntry::GetWeightThreshold
; Function compile flags: /Odtp
;	COMDAT ?GetWeightThreshold@CvAICityStrategyEntry@@QBEHXZ
_TEXT	SEGMENT
_this$ = -4						; size = 4
?GetWeightThreshold@CvAICityStrategyEntry@@QBEHXZ PROC	; CvAICityStrategyEntry::GetWeightThreshold, COMDAT
; _this$ = ecx

; 116  : {

	push	ebp
	mov	ebp, esp
	push	ecx
	mov	DWORD PTR _this$[ebp], ecx

; 117  : 	return m_iWeightThreshold;

	mov	eax, DWORD PTR _this$[ebp]
	mov	eax, DWORD PTR [eax+264]

; 118  : }

	mov	esp, ebp
	pop	ebp
	ret	0
?GetWeightThreshold@CvAICityStrategyEntry@@QBEHXZ ENDP	; CvAICityStrategyEntry::GetWeightThreshold
_TEXT	ENDS
PUBLIC	?GetPersonalityFlavorThresholdMod@CvAICityStrategyEntry@@QBEHH@Z ; CvAICityStrategyEntry::GetPersonalityFlavorThresholdMod
; Function compile flags: /Odtp
;	COMDAT ?GetPersonalityFlavorThresholdMod@CvAICityStrategyEntry@@QBEHH@Z
_TEXT	SEGMENT
tv69 = -8						; size = 4
_this$ = -4						; size = 4
_i$ = 8							; size = 4
?GetPersonalityFlavorThresholdMod@CvAICityStrategyEntry@@QBEHH@Z PROC ; CvAICityStrategyEntry::GetPersonalityFlavorThresholdMod, COMDAT
; _this$ = ecx

; 122  : {

	push	ebp
	mov	ebp, esp
	sub	esp, 8
	mov	DWORD PTR _this$[ebp], ecx

; 123  : 	CvAssertMsg(i < GC.getNumFlavorTypes(), "Index out of bounds");
; 124  : 	CvAssertMsg(i > -1, "Index out of bounds");
; 125  : 	return m_piPersonalityFlavorThresholdMod ? m_piPersonalityFlavorThresholdMod[i] : -1;

	mov	eax, DWORD PTR _this$[ebp]
	cmp	DWORD PTR [eax+268], 0
	je	SHORT $LN3@GetPersona
	mov	ecx, DWORD PTR _this$[ebp]
	mov	edx, DWORD PTR [ecx+268]
	mov	eax, DWORD PTR _i$[ebp]
	mov	ecx, DWORD PTR [edx+eax*4]
	mov	DWORD PTR tv69[ebp], ecx
	jmp	SHORT $LN4@GetPersona
$LN3@GetPersona:
	mov	DWORD PTR tv69[ebp], -1
$LN4@GetPersona:
	mov	eax, DWORD PTR tv69[ebp]

; 126  : }

	mov	esp, ebp
	pop	ebp
	ret	4
?GetPersonalityFlavorThresholdMod@CvAICityStrategyEntry@@QBEHH@Z ENDP ; CvAICityStrategyEntry::GetPersonalityFlavorThresholdMod
_TEXT	ENDS
PUBLIC	?GetTechPrereq@CvAICityStrategyEntry@@QBEHXZ	; CvAICityStrategyEntry::GetTechPrereq
; Function compile flags: /Odtp
;	COMDAT ?GetTechPrereq@CvAICityStrategyEntry@@QBEHXZ
_TEXT	SEGMENT
_this$ = -4						; size = 4
?GetTechPrereq@CvAICityStrategyEntry@@QBEHXZ PROC	; CvAICityStrategyEntry::GetTechPrereq, COMDAT
; _this$ = ecx

; 130  : {

	push	ebp
	mov	ebp, esp
	push	ecx
	mov	DWORD PTR _this$[ebp], ecx

; 131  : 	return m_iTechPrereq;

	mov	eax, DWORD PTR _this$[ebp]
	mov	eax, DWORD PTR [eax+272]

; 132  : }

	mov	esp, ebp
	pop	ebp
	ret	0
?GetTechPrereq@CvAICityStrategyEntry@@QBEHXZ ENDP	; CvAICityStrategyEntry::GetTechPrereq
_TEXT	ENDS
PUBLIC	?GetTechObsolete@CvAICityStrategyEntry@@QBEHXZ	; CvAICityStrategyEntry::GetTechObsolete
; Function compile flags: /Odtp
;	COMDAT ?GetTechObsolete@CvAICityStrategyEntry@@QBEHXZ
_TEXT	SEGMENT
_this$ = -4						; size = 4
?GetTechObsolete@CvAICityStrategyEntry@@QBEHXZ PROC	; CvAICityStrategyEntry::GetTechObsolete, COMDAT
; _this$ = ecx

; 136  : {

	push	ebp
	mov	ebp, esp
	push	ecx
	mov	DWORD PTR _this$[ebp], ecx

; 137  : 	return m_iTechObsolete;

	mov	eax, DWORD PTR _this$[ebp]
	mov	eax, DWORD PTR [eax+276]

; 138  : }

	mov	esp, ebp
	pop	ebp
	ret	0
?GetTechObsolete@CvAICityStrategyEntry@@QBEHXZ ENDP	; CvAICityStrategyEntry::GetTechObsolete
_TEXT	ENDS
PUBLIC	?GetMinimumNumTurnsExecuted@CvAICityStrategyEntry@@QBEHXZ ; CvAICityStrategyEntry::GetMinimumNumTurnsExecuted
; Function compile flags: /Odtp
;	COMDAT ?GetMinimumNumTurnsExecuted@CvAICityStrategyEntry@@QBEHXZ
_TEXT	SEGMENT
_this$ = -4						; size = 4
?GetMinimumNumTurnsExecuted@CvAICityStrategyEntry@@QBEHXZ PROC ; CvAICityStrategyEntry::GetMinimumNumTurnsExecuted, COMDAT
; _this$ = ecx

; 142  : {

	push	ebp
	mov	ebp, esp
	push	ecx
	mov	DWORD PTR _this$[ebp], ecx

; 143  : 	return m_iMinimumNumTurnsExecuted;

	mov	eax, DWORD PTR _this$[ebp]
	mov	eax, DWORD PTR [eax+280]

; 144  : }

	mov	esp, ebp
	pop	ebp
	ret	0
?GetMinimumNumTurnsExecuted@CvAICityStrategyEntry@@QBEHXZ ENDP ; CvAICityStrategyEntry::GetMinimumNumTurnsExecuted
_TEXT	ENDS
PUBLIC	?GetCheckTriggerTurnCount@CvAICityStrategyEntry@@QBEHXZ ; CvAICityStrategyEntry::GetCheckTriggerTurnCount
; Function compile flags: /Odtp
;	COMDAT ?GetCheckTriggerTurnCount@CvAICityStrategyEntry@@QBEHXZ
_TEXT	SEGMENT
_this$ = -4						; size = 4
?GetCheckTriggerTurnCount@CvAICityStrategyEntry@@QBEHXZ PROC ; CvAICityStrategyEntry::GetCheckTriggerTurnCount, COMDAT
; _this$ = ecx

; 148  : {

	push	ebp
	mov	ebp, esp
	push	ecx
	mov	DWORD PTR _this$[ebp], ecx

; 149  : 	return m_iCheckTriggerTurnCount;

	mov	eax, DWORD PTR _this$[ebp]
	mov	eax, DWORD PTR [eax+284]

; 150  : }

	mov	esp, ebp
	pop	ebp
	ret	0
?GetCheckTriggerTurnCount@CvAICityStrategyEntry@@QBEHXZ ENDP ; CvAICityStrategyEntry::GetCheckTriggerTurnCount
_TEXT	ENDS
PUBLIC	?IsNoMinorCivs@CvAICityStrategyEntry@@QBE_NXZ	; CvAICityStrategyEntry::IsNoMinorCivs
; Function compile flags: /Odtp
;	COMDAT ?IsNoMinorCivs@CvAICityStrategyEntry@@QBE_NXZ
_TEXT	SEGMENT
_this$ = -4						; size = 4
?IsNoMinorCivs@CvAICityStrategyEntry@@QBE_NXZ PROC	; CvAICityStrategyEntry::IsNoMinorCivs, COMDAT
; _this$ = ecx

; 154  : {

	push	ebp
	mov	ebp, esp
	push	ecx
	mov	DWORD PTR _this$[ebp], ecx

; 155  : 	return m_bNoMinorCivs;

	mov	eax, DWORD PTR _this$[ebp]
	mov	al, BYTE PTR [eax+288]

; 156  : }

	mov	esp, ebp
	pop	ebp
	ret	0
?IsNoMinorCivs@CvAICityStrategyEntry@@QBE_NXZ ENDP	; CvAICityStrategyEntry::IsNoMinorCivs
_TEXT	ENDS
PUBLIC	?IsPermanent@CvAICityStrategyEntry@@QBE_NXZ	; CvAICityStrategyEntry::IsPermanent
; Function compile flags: /Odtp
;	COMDAT ?IsPermanent@CvAICityStrategyEntry@@QBE_NXZ
_TEXT	SEGMENT
_this$ = -4						; size = 4
?IsPermanent@CvAICityStrategyEntry@@QBE_NXZ PROC	; CvAICityStrategyEntry::IsPermanent, COMDAT
; _this$ = ecx

; 160  : {

	push	ebp
	mov	ebp, esp
	push	ecx
	mov	DWORD PTR _this$[ebp], ecx

; 161  : 	return m_bPermanent;

	mov	eax, DWORD PTR _this$[ebp]
	mov	al, BYTE PTR [eax+289]

; 162  : }

	mov	esp, ebp
	pop	ebp
	ret	0
?IsPermanent@CvAICityStrategyEntry@@QBE_NXZ ENDP	; CvAICityStrategyEntry::IsPermanent
_TEXT	ENDS
PUBLIC	?GetAdvisor@CvAICityStrategyEntry@@QBE?AW4AdvisorTypes@@XZ ; CvAICityStrategyEntry::GetAdvisor
; Function compile flags: /Odtp
;	COMDAT ?GetAdvisor@CvAICityStrategyEntry@@QBE?AW4AdvisorTypes@@XZ
_TEXT	SEGMENT
_this$ = -4						; size = 4
?GetAdvisor@CvAICityStrategyEntry@@QBE?AW4AdvisorTypes@@XZ PROC ; CvAICityStrategyEntry::GetAdvisor, COMDAT
; _this$ = ecx

; 165  : {

	push	ebp
	mov	ebp, esp
	push	ecx
	mov	DWORD PTR _this$[ebp], ecx

; 166  : 	return m_eAdvisor;

	mov	eax, DWORD PTR _this$[ebp]
	mov	eax, DWORD PTR [eax+292]

; 167  : }

	mov	esp, ebp
	pop	ebp
	ret	0
?GetAdvisor@CvAICityStrategyEntry@@QBE?AW4AdvisorTypes@@XZ ENDP ; CvAICityStrategyEntry::GetAdvisor
_TEXT	ENDS
PUBLIC	?GetAdvisorCounselText@CvAICityStrategyEntry@@QBEPBDXZ ; CvAICityStrategyEntry::GetAdvisorCounselText
; Function compile flags: /Odtp
;	COMDAT ?GetAdvisorCounselText@CvAICityStrategyEntry@@QBEPBDXZ
_TEXT	SEGMENT
_this$ = -4						; size = 4
?GetAdvisorCounselText@CvAICityStrategyEntry@@QBEPBDXZ PROC ; CvAICityStrategyEntry::GetAdvisorCounselText, COMDAT
; _this$ = ecx

; 170  : {

	push	ebp
	mov	ebp, esp
	push	ecx
	mov	DWORD PTR _this$[ebp], ecx

; 171  : 	return m_strAdvisorCounselText.c_str();

	mov	ecx, DWORD PTR _this$[ebp]
	add	ecx, 296				; 00000128H
	call	DWORD PTR __imp_?c_str@?$basic_string@DU?$char_traits@D@std@@V?$allocator@D@2@@std@@QBEPBDXZ

; 172  : }

	mov	esp, ebp
	pop	ebp
	ret	0
?GetAdvisorCounselText@CvAICityStrategyEntry@@QBEPBDXZ ENDP ; CvAICityStrategyEntry::GetAdvisorCounselText
_TEXT	ENDS
PUBLIC	?GetAdvisorCounselImportance@CvAICityStrategyEntry@@QBEHXZ ; CvAICityStrategyEntry::GetAdvisorCounselImportance
; Function compile flags: /Odtp
;	COMDAT ?GetAdvisorCounselImportance@CvAICityStrategyEntry@@QBEHXZ
_TEXT	SEGMENT
_this$ = -4						; size = 4
?GetAdvisorCounselImportance@CvAICityStrategyEntry@@QBEHXZ PROC ; CvAICityStrategyEntry::GetAdvisorCounselImportance, COMDAT
; _this$ = ecx

; 175  : {

	push	ebp
	mov	ebp, esp
	push	ecx
	mov	DWORD PTR _this$[ebp], ecx

; 176  : 	return m_iAdvisorCounselImportance;

	mov	eax, DWORD PTR _this$[ebp]
	mov	eax, DWORD PTR [eax+324]

; 177  : }

	mov	esp, ebp
	pop	ebp
	ret	0
?GetAdvisorCounselImportance@CvAICityStrategyEntry@@QBEHXZ ENDP ; CvAICityStrategyEntry::GetAdvisorCounselImportance
_TEXT	ENDS
PUBLIC	??1?$_Vector_val@PAVCvAICityStrategyEntry@@V?$allocator@PAVCvAICityStrategyEntry@@@std@@@std@@QAE@XZ ; std::_Vector_val<CvAICityStrategyEntry *,std::allocator<CvAICityStrategyEntry *> >::~_Vector_val<CvAICityStrategyEntry *,std::allocator<CvAICityStrategyEntry *> >
PUBLIC	?_Buy@?$vector@PAVCvAICityStrategyEntry@@V?$allocator@PAVCvAICityStrategyEntry@@@std@@@std@@IAE_NI@Z ; std::vector<CvAICityStrategyEntry *,std::allocator<CvAICityStrategyEntry *> >::_Buy
PUBLIC	??0CvAICityStrategies@@QAE@XZ			; CvAICityStrategies::CvAICityStrategies
EXTRN	__CxxThrowException@8:PROC
;	COMDAT xdata$x
; File c:\program files (x86)\microsoft visual studio 9.0\vc\include\exception
xdata$x	SEGMENT
__unwindtable$??0CvAICityStrategies@@QAE@XZ DD 0ffffffffH
	DD	FLAT:__unwindfunclet$??0CvAICityStrategies@@QAE@XZ$1
__ehfuncinfo$??0CvAICityStrategies@@QAE@XZ DD 019930522H
	DD	01H
	DD	FLAT:__unwindtable$??0CvAICityStrategies@@QAE@XZ
	DD	2 DUP(00H)
	DD	2 DUP(00H)
	DD	00H
	DD	01H
; Function compile flags: /Odtp
; File d:\sources\lekmod_git\checkout\lekmod_dll\cvgamecoredll_expansion2\cvcitystrategyai.cpp
xdata$x	ENDS
;	COMDAT ??0CvAICityStrategies@@QAE@XZ
_TEXT	SEGMENT
tv92 = -132						; size = 4
tv149 = -128						; size = 4
_this$ = -124						; size = 4
$T230648 = -30						; size = 1
$T230635 = -29						; size = 1
$T230631 = -28						; size = 4
$T230624 = -20						; size = 4
__$EHRec$ = -12						; size = 12
??0CvAICityStrategies@@QAE@XZ PROC			; CvAICityStrategies::CvAICityStrategies, COMDAT
; _this$ = ecx

; 186  : {

	push	ebp
	mov	ebp, esp
	push	-1
	push	__ehhandler$??0CvAICityStrategies@@QAE@XZ
	mov	eax, DWORD PTR fs:0
	push	eax
	sub	esp, 120				; 00000078H
	mov	eax, DWORD PTR ___security_cookie
	xor	eax, ebp
	push	eax
	lea	eax, DWORD PTR __$EHRec$[ebp]
	mov	DWORD PTR fs:0, eax
	mov	DWORD PTR _this$[ebp], ecx
	lea	eax, DWORD PTR $T230648[ebp]
	mov	DWORD PTR $T230624[ebp], eax
	lea	ecx, DWORD PTR $T230635[ebp]
	mov	DWORD PTR $T230631[ebp], ecx
	mov	edx, DWORD PTR _this$[ebp]
	mov	DWORD PTR tv149[ebp], edx
	mov	eax, DWORD PTR _this$[ebp]
	mov	DWORD PTR tv92[ebp], eax
	mov	DWORD PTR __$EHRec$[ebp+8], 0
	push	0
	mov	ecx, DWORD PTR _this$[ebp]
	call	?_Buy@?$vector@PAVCvAICityStrategyEntry@@V?$allocator@PAVCvAICityStrategyEntry@@@std@@@std@@IAE_NI@Z ; std::vector<CvAICityStrategyEntry *,std::allocator<CvAICityStrategyEntry *> >::_Buy
	mov	DWORD PTR __$EHRec$[ebp+8], -1

; 187  : 
; 188  : }

	mov	eax, DWORD PTR _this$[ebp]
	mov	ecx, DWORD PTR __$EHRec$[ebp]
	mov	DWORD PTR fs:0, ecx
	pop	ecx
	mov	esp, ebp
	pop	ebp
	ret	0
_TEXT	ENDS
;	COMDAT text$x
text$x	SEGMENT
__unwindfunclet$??0CvAICityStrategies@@QAE@XZ$1:
	mov	ecx, DWORD PTR _this$[ebp]
	jmp	??1?$_Vector_val@PAVCvAICityStrategyEntry@@V?$allocator@PAVCvAICityStrategyEntry@@@std@@@std@@QAE@XZ
__ehhandler$??0CvAICityStrategies@@QAE@XZ:
	mov	edx, DWORD PTR [esp+8]
	lea	eax, DWORD PTR [edx+12]
	mov	ecx, DWORD PTR [edx-124]
	xor	ecx, eax
	call	@__security_check_cookie@4
	mov	eax, OFFSET __ehfuncinfo$??0CvAICityStrategies@@QAE@XZ
	jmp	___CxxFrameHandler3
text$x	ENDS
??0CvAICityStrategies@@QAE@XZ ENDP			; CvAICityStrategies::CvAICityStrategies
PUBLIC	??1?$vector@PAVCvAICityStrategyEntry@@V?$allocator@PAVCvAICityStrategyEntry@@@std@@@std@@QAE@XZ ; std::vector<CvAICityStrategyEntry *,std::allocator<CvAICityStrategyEntry *> >::~vector<CvAICityStrategyEntry *,std::allocator<CvAICityStrategyEntry *> >
PUBLIC	?_Tidy@?$vector@PAVCvAICityStrategyEntry@@V?$allocator@PAVCvAICityStrategyEntry@@@std@@@std@@IAEXXZ ; std::vector<CvAICityStrategyEntry *,std::allocator<CvAICityStrategyEntry *> >::_Tidy
PUBLIC	?DeleteArray@CvAICityStrategies@@QAEXXZ		; CvAICityStrategies::DeleteArray
PUBLIC	??1CvAICityStrategies@@QAE@XZ			; CvAICityStrategies::~CvAICityStrategies
;	COMDAT xdata$x
; File c:\program files (x86)\microsoft visual studio 9.0\vc\include\xutility
xdata$x	SEGMENT
__unwindtable$??1CvAICityStrategies@@QAE@XZ DD 0ffffffffH
	DD	FLAT:__unwindfunclet$??1CvAICityStrategies@@QAE@XZ$0
	DD	0ffffffffH
	DD	FLAT:__unwindfunclet$??1CvAICityStrategies@@QAE@XZ$1
__ehfuncinfo$??1CvAICityStrategies@@QAE@XZ DD 019930522H
	DD	02H
	DD	FLAT:__unwindtable$??1CvAICityStrategies@@QAE@XZ
	DD	2 DUP(00H)
	DD	2 DUP(00H)
	DD	00H
	DD	01H
; Function compile flags: /Odtp
; File d:\sources\lekmod_git\checkout\lekmod_dll\cvgamecoredll_expansion2\cvcitystrategyai.cpp
xdata$x	ENDS
;	COMDAT ??1CvAICityStrategies@@QAE@XZ
_TEXT	SEGMENT
_this$ = -44						; size = 4
__$EHRec$ = -12						; size = 12
??1CvAICityStrategies@@QAE@XZ PROC			; CvAICityStrategies::~CvAICityStrategies, COMDAT
; _this$ = ecx

; 192  : {

	push	ebp
	mov	ebp, esp
	push	-1
	push	__ehhandler$??1CvAICityStrategies@@QAE@XZ
	mov	eax, DWORD PTR fs:0
	push	eax
	sub	esp, 32					; 00000020H
	mov	eax, DWORD PTR ___security_cookie
	xor	eax, ebp
	push	eax
	lea	eax, DWORD PTR __$EHRec$[ebp]
	mov	DWORD PTR fs:0, eax
	mov	DWORD PTR _this$[ebp], ecx
	mov	DWORD PTR __$EHRec$[ebp+8], 0

; 193  : 	DeleteArray();

	mov	ecx, DWORD PTR _this$[ebp]
	call	?DeleteArray@CvAICityStrategies@@QAEXXZ	; CvAICityStrategies::DeleteArray

; 194  : }

	mov	DWORD PTR __$EHRec$[ebp+8], 1
	mov	ecx, DWORD PTR _this$[ebp]
	call	?_Tidy@?$vector@PAVCvAICityStrategyEntry@@V?$allocator@PAVCvAICityStrategyEntry@@@std@@@std@@IAEXXZ ; std::vector<CvAICityStrategyEntry *,std::allocator<CvAICityStrategyEntry *> >::_Tidy
	mov	DWORD PTR __$EHRec$[ebp+8], -1
	mov	ecx, DWORD PTR __$EHRec$[ebp]
	mov	DWORD PTR fs:0, ecx
	pop	ecx
	mov	esp, ebp
	pop	ebp
	ret	0
_TEXT	ENDS
;	COMDAT text$x
text$x	SEGMENT
__unwindfunclet$??1CvAICityStrategies@@QAE@XZ$0:
	mov	ecx, DWORD PTR _this$[ebp]
	jmp	??1?$vector@PAVCvAICityStrategyEntry@@V?$allocator@PAVCvAICityStrategyEntry@@@std@@@std@@QAE@XZ ; std::vector<CvAICityStrategyEntry *,std::allocator<CvAICityStrategyEntry *> >::~vector<CvAICityStrategyEntry *,std::allocator<CvAICityStrategyEntry *> >
__unwindfunclet$??1CvAICityStrategies@@QAE@XZ$1:
	mov	ecx, DWORD PTR _this$[ebp]
	jmp	??1?$_Vector_val@PAVCvAICityStrategyEntry@@V?$allocator@PAVCvAICityStrategyEntry@@@std@@@std@@QAE@XZ
__ehhandler$??1CvAICityStrategies@@QAE@XZ:
	mov	edx, DWORD PTR [esp+8]
	lea	eax, DWORD PTR [edx+12]
	mov	ecx, DWORD PTR [edx-36]
	xor	ecx, eax
	call	@__security_check_cookie@4
	mov	eax, OFFSET __ehfuncinfo$??1CvAICityStrategies@@QAE@XZ
	jmp	___CxxFrameHandler3
text$x	ENDS
??1CvAICityStrategies@@QAE@XZ ENDP			; CvAICityStrategies::~CvAICityStrategies
PUBLIC	?GetAICityStrategyEntries@CvAICityStrategies@@QAEAAV?$vector@PAVCvAICityStrategyEntry@@V?$allocator@PAVCvAICityStrategyEntry@@@std@@@std@@XZ ; CvAICityStrategies::GetAICityStrategyEntries
; Function compile flags: /Odtp
;	COMDAT ?GetAICityStrategyEntries@CvAICityStrategies@@QAEAAV?$vector@PAVCvAICityStrategyEntry@@V?$allocator@PAVCvAICityStrategyEntry@@@std@@@std@@XZ
_TEXT	SEGMENT
_this$ = -4						; size = 4
?GetAICityStrategyEntries@CvAICityStrategies@@QAEAAV?$vector@PAVCvAICityStrategyEntry@@V?$allocator@PAVCvAICityStrategyEntry@@@std@@@std@@XZ PROC ; CvAICityStrategies::GetAICityStrategyEntries, COMDAT
; _this$ = ecx

; 198  : {

	push	ebp
	mov	ebp, esp
	push	ecx
	mov	DWORD PTR _this$[ebp], ecx

; 199  : 	return m_paAICityStrategyEntries;

	mov	eax, DWORD PTR _this$[ebp]

; 200  : }

	mov	esp, ebp
	pop	ebp
	ret	0
?GetAICityStrategyEntries@CvAICityStrategies@@QAEAAV?$vector@PAVCvAICityStrategyEntry@@V?$allocator@PAVCvAICityStrategyEntry@@@std@@@std@@XZ ENDP ; CvAICityStrategies::GetAICityStrategyEntries
_TEXT	ENDS
PUBLIC	?GetNumAICityStrategies@CvAICityStrategies@@QAEHXZ ; CvAICityStrategies::GetNumAICityStrategies
; Function compile flags: /Odtp
;	COMDAT ?GetNumAICityStrategies@CvAICityStrategies@@QAEHXZ
_TEXT	SEGMENT
_this$ = -4						; size = 4
?GetNumAICityStrategies@CvAICityStrategies@@QAEHXZ PROC	; CvAICityStrategies::GetNumAICityStrategies, COMDAT
; _this$ = ecx

; 204  : {

	push	ebp
	mov	ebp, esp
	push	ecx
	mov	DWORD PTR _this$[ebp], ecx

; 205  : 	return m_paAICityStrategyEntries.size();

	mov	eax, DWORD PTR _this$[ebp]
	mov	ecx, DWORD PTR _this$[ebp]
	mov	eax, DWORD PTR [eax+8]
	sub	eax, DWORD PTR [ecx+4]
	sar	eax, 2

; 206  : }

	mov	esp, ebp
	pop	ebp
	ret	0
?GetNumAICityStrategies@CvAICityStrategies@@QAEHXZ ENDP	; CvAICityStrategies::GetNumAICityStrategies
_TEXT	ENDS
PUBLIC	?erase@?$vector@PAVCvAICityStrategyEntry@@V?$allocator@PAVCvAICityStrategyEntry@@@std@@@std@@QAE?AV?$_Vector_iterator@PAVCvAICityStrategyEntry@@V?$allocator@PAVCvAICityStrategyEntry@@@std@@@2@V?$_Vector_const_iterator@PAVCvAICityStrategyEntry@@V?$allocator@PAVCvAICityStrategyEntry@@@std@@@2@0@Z ; std::vector<CvAICityStrategyEntry *,std::allocator<CvAICityStrategyEntry *> >::erase
; Function compile flags: /Odtp
;	COMDAT ?DeleteArray@CvAICityStrategies@@QAEXXZ
_TEXT	SEGMENT
tv145 = -116						; size = 4
_this$ = -112						; size = 4
$T230884 = -56						; size = 4
$T230868 = -52						; size = 4
$T230988 = -48						; size = 4
$T230987 = -44						; size = 4
$T230986 = -40						; size = 4
$T230985 = -36						; size = 4
$T230984 = -32						; size = 4
$T230852 = -28						; size = 4
$T230849 = -24						; size = 4
$T230848 = -20						; size = 4
$T230818 = -16						; size = 4
$T230794 = -12						; size = 4
$T230784 = -8						; size = 4
_it$225273 = -4						; size = 4
?DeleteArray@CvAICityStrategies@@QAEXXZ PROC		; CvAICityStrategies::DeleteArray, COMDAT
; _this$ = ecx

; 210  : {

	push	ebp
	mov	ebp, esp
	sub	esp, 116				; 00000074H
	mov	DWORD PTR _this$[ebp], ecx

; 211  : 	for(std::vector<CvAICityStrategyEntry*>::iterator it = m_paAICityStrategyEntries.begin(); it != m_paAICityStrategyEntries.end(); ++it)

	mov	eax, DWORD PTR _this$[ebp]
	mov	ecx, DWORD PTR [eax+4]
	mov	DWORD PTR $T230794[ebp], ecx
	mov	edx, DWORD PTR $T230794[ebp]
	mov	DWORD PTR _it$225273[ebp], edx
	jmp	SHORT $LN3@DeleteArra
$LN2@DeleteArra:
	mov	eax, DWORD PTR _it$225273[ebp]
	add	eax, 4
	mov	DWORD PTR _it$225273[ebp], eax
$LN3@DeleteArra:
	mov	ecx, DWORD PTR _this$[ebp]
	mov	edx, DWORD PTR [ecx+8]
	mov	DWORD PTR $T230818[ebp], edx
	mov	eax, DWORD PTR $T230818[ebp]
	mov	DWORD PTR $T230784[ebp], eax
	mov	ecx, DWORD PTR _it$225273[ebp]
	xor	edx, edx
	cmp	ecx, DWORD PTR $T230784[ebp]
	sete	dl
	movzx	eax, dl
	neg	eax
	sbb	eax, eax
	add	eax, 1
	movzx	ecx, al
	test	ecx, ecx
	je	SHORT $LN1@DeleteArra

; 212  : 	{
; 213  : 		SAFE_DELETE(*it);

	mov	edx, DWORD PTR _it$225273[ebp]
	mov	DWORD PTR $T230852[ebp], edx
	mov	eax, DWORD PTR $T230852[ebp]
	mov	ecx, DWORD PTR [eax]
	mov	DWORD PTR $T230849[ebp], ecx
	mov	edx, DWORD PTR $T230849[ebp]
	mov	DWORD PTR $T230848[ebp], edx
	cmp	DWORD PTR $T230848[ebp], 0
	je	SHORT $LN32@DeleteArra
	push	1
	mov	eax, DWORD PTR $T230848[ebp]
	mov	edx, DWORD PTR [eax]
	mov	ecx, DWORD PTR $T230848[ebp]
	mov	eax, DWORD PTR [edx+16]
	call	eax
	mov	DWORD PTR tv145[ebp], eax
	jmp	SHORT $LN33@DeleteArra
$LN32@DeleteArra:
	mov	DWORD PTR tv145[ebp], 0
$LN33@DeleteArra:
	mov	ecx, DWORD PTR $T230852[ebp]
	mov	DWORD PTR [ecx], 0

; 214  : 	}

	jmp	SHORT $LN2@DeleteArra
$LN1@DeleteArra:

; 215  : 
; 216  : 	m_paAICityStrategyEntries.clear();

	mov	edx, DWORD PTR _this$[ebp]
	mov	eax, DWORD PTR [edx+8]
	mov	DWORD PTR $T230868[ebp], eax
	mov	ecx, DWORD PTR $T230868[ebp]
	mov	DWORD PTR $T230985[ebp], ecx
	mov	edx, DWORD PTR $T230985[ebp]
	mov	DWORD PTR $T230984[ebp], edx
	mov	eax, DWORD PTR _this$[ebp]
	mov	ecx, DWORD PTR [eax+4]
	mov	DWORD PTR $T230884[ebp], ecx
	mov	edx, DWORD PTR $T230884[ebp]
	mov	DWORD PTR $T230987[ebp], edx
	mov	eax, DWORD PTR $T230987[ebp]
	mov	DWORD PTR $T230986[ebp], eax
	mov	ecx, DWORD PTR $T230984[ebp]
	push	ecx
	mov	edx, DWORD PTR $T230986[ebp]
	push	edx
	lea	eax, DWORD PTR $T230988[ebp]
	push	eax
	mov	ecx, DWORD PTR _this$[ebp]
	call	?erase@?$vector@PAVCvAICityStrategyEntry@@V?$allocator@PAVCvAICityStrategyEntry@@@std@@@std@@QAE?AV?$_Vector_iterator@PAVCvAICityStrategyEntry@@V?$allocator@PAVCvAICityStrategyEntry@@@std@@@2@V?$_Vector_const_iterator@PAVCvAICityStrategyEntry@@V?$allocator@PAVCvAICityStrategyEntry@@@std@@@2@0@Z ; std::vector<CvAICityStrategyEntry *,std::allocator<CvAICityStrategyEntry *> >::erase

; 217  : }

	mov	esp, ebp
	pop	ebp
	ret	0
?DeleteArray@CvAICityStrategies@@QAEXXZ ENDP		; CvAICityStrategies::DeleteArray
_TEXT	ENDS
PUBLIC	?GetEntry@CvAICityStrategies@@QAEPAVCvAICityStrategyEntry@@H@Z ; CvAICityStrategies::GetEntry
; Function compile flags: /Odtp
;	COMDAT ?GetEntry@CvAICityStrategies@@QAEPAVCvAICityStrategyEntry@@H@Z
_TEXT	SEGMENT
_this$ = -4						; size = 4
_index$ = 8						; size = 4
?GetEntry@CvAICityStrategies@@QAEPAVCvAICityStrategyEntry@@H@Z PROC ; CvAICityStrategies::GetEntry, COMDAT
; _this$ = ecx

; 221  : {

	push	ebp
	mov	ebp, esp
	push	ecx
	mov	DWORD PTR _this$[ebp], ecx

; 222  : 	return m_paAICityStrategyEntries[index];

	mov	eax, DWORD PTR _this$[ebp]
	mov	ecx, DWORD PTR [eax+4]
	mov	edx, DWORD PTR _index$[ebp]
	mov	eax, DWORD PTR [ecx+edx*4]

; 223  : }

	mov	esp, ebp
	pop	ebp
	ret	4
?GetEntry@CvAICityStrategies@@QAEPAVCvAICityStrategyEntry@@H@Z ENDP ; CvAICityStrategies::GetEntry
_TEXT	ENDS
PUBLIC	??0?$FStaticVector@UWeightedElement@?$CvWeightedVector@UCvCityBuildable@@$0OB@$00@@$0OB@$00$0A@$0A@@@QAE@XZ ; FStaticVector<CvWeightedVector<CvCityBuildable,225,1>::WeightedElement,225,1,0,0>::FStaticVector<CvWeightedVector<CvCityBuildable,225,1>::WeightedElement,225,1,0,0>
PUBLIC	??_7CvCityStrategyAI@@6B@			; CvCityStrategyAI::`vftable'
PUBLIC	??0CvCityStrategyAI@@QAE@XZ			; CvCityStrategyAI::CvCityStrategyAI
PUBLIC	?Uninit@CvCityStrategyAI@@UAEXXZ		; CvCityStrategyAI::Uninit
PUBLIC	?FlavorUpdate@CvCityStrategyAI@@UAEXXZ		; CvCityStrategyAI::FlavorUpdate
PUBLIC	?LogFlavors@CvCityStrategyAI@@EAEXW4FlavorTypes@@@Z ; CvCityStrategyAI::LogFlavors
EXTRN	??1CvFlavorRecipient@@QAE@XZ:PROC		; CvFlavorRecipient::~CvFlavorRecipient
EXTRN	??0CvFlavorRecipient@@QAE@XZ:PROC		; CvFlavorRecipient::CvFlavorRecipient
EXTRN	?Init@CvFlavorRecipient@@UAEXXZ:PROC		; CvFlavorRecipient::Init
;	COMDAT ??_7CvCityStrategyAI@@6B@
; File d:\sources\lekmod_git\checkout\lekmod_dll\fireplace\include\fireworks\ffastvector.h
CONST	SEGMENT
??_7CvCityStrategyAI@@6B@ DD FLAT:?Init@CvFlavorRecipient@@UAEXXZ ; CvCityStrategyAI::`vftable'
	DD	FLAT:?Uninit@CvCityStrategyAI@@UAEXXZ
	DD	FLAT:?FlavorUpdate@CvCityStrategyAI@@UAEXXZ
	DD	FLAT:?LogFlavors@CvCityStrategyAI@@EAEXW4FlavorTypes@@@Z
CONST	ENDS
;	COMDAT xdata$x
xdata$x	SEGMENT
__unwindtable$??0CvCityStrategyAI@@QAE@XZ DD 0ffffffffH
	DD	FLAT:__unwindfunclet$??0CvCityStrategyAI@@QAE@XZ$0
__ehfuncinfo$??0CvCityStrategyAI@@QAE@XZ DD 019930522H
	DD	01H
	DD	FLAT:__unwindtable$??0CvCityStrategyAI@@QAE@XZ
	DD	2 DUP(00H)
	DD	2 DUP(00H)
	DD	00H
	DD	01H
; Function compile flags: /Odtp
; File d:\sources\lekmod_git\checkout\lekmod_dll\cvgamecoredll_expansion2\cvcitystrategyai.cpp
xdata$x	ENDS
;	COMDAT ??0CvCityStrategyAI@@QAE@XZ
_TEXT	SEGMENT
_this$ = -28						; size = 4
$T231027 = -24						; size = 4
__$EHRec$ = -12						; size = 12
??0CvCityStrategyAI@@QAE@XZ PROC			; CvCityStrategyAI::CvCityStrategyAI, COMDAT
; _this$ = ecx

; 258  : {

	push	ebp
	mov	ebp, esp
	push	-1
	push	__ehhandler$??0CvCityStrategyAI@@QAE@XZ
	mov	eax, DWORD PTR fs:0
	push	eax
	sub	esp, 16					; 00000010H
	mov	eax, DWORD PTR ___security_cookie
	xor	eax, ebp
	push	eax
	lea	eax, DWORD PTR __$EHRec$[ebp]
	mov	DWORD PTR fs:0, eax
	mov	DWORD PTR _this$[ebp], ecx
	mov	ecx, DWORD PTR _this$[ebp]
	call	??0CvFlavorRecipient@@QAE@XZ		; CvFlavorRecipient::CvFlavorRecipient
	mov	DWORD PTR __$EHRec$[ebp+8], 0
	mov	eax, DWORD PTR _this$[ebp]
	mov	DWORD PTR [eax], OFFSET ??_7CvCityStrategyAI@@6B@
	mov	ecx, DWORD PTR _this$[ebp]
	mov	DWORD PTR [ecx+28], 0
	mov	edx, DWORD PTR _this$[ebp]
	mov	DWORD PTR [edx+32], 0
	mov	eax, DWORD PTR _this$[ebp]
	mov	DWORD PTR [eax+36], 0
	mov	ecx, DWORD PTR _this$[ebp]
	mov	DWORD PTR [ecx+40], 0
	mov	edx, DWORD PTR _this$[ebp]
	mov	DWORD PTR [edx+44], 0
	mov	eax, DWORD PTR _this$[ebp]
	mov	DWORD PTR [eax+48], 0
	mov	ecx, DWORD PTR _this$[ebp]
	mov	DWORD PTR [ecx+52], 0
	mov	edx, DWORD PTR _this$[ebp]
	add	edx, 56					; 00000038H
	mov	DWORD PTR $T231027[ebp], edx
	mov	ecx, DWORD PTR $T231027[ebp]
	call	??0?$FStaticVector@UWeightedElement@?$CvWeightedVector@UCvCityBuildable@@$0OB@$00@@$0OB@$00$0A@$0A@@@QAE@XZ ; FStaticVector<CvWeightedVector<CvCityBuildable,225,1>::WeightedElement,225,1,0,0>::FStaticVector<CvWeightedVector<CvCityBuildable,225,1>::WeightedElement,225,1,0,0>
	mov	eax, DWORD PTR _this$[ebp]
	mov	DWORD PTR [eax+3696], -1

; 259  : }

	mov	DWORD PTR __$EHRec$[ebp+8], -1
	mov	eax, DWORD PTR _this$[ebp]
	mov	ecx, DWORD PTR __$EHRec$[ebp]
	mov	DWORD PTR fs:0, ecx
	pop	ecx
	mov	esp, ebp
	pop	ebp
	ret	0
_TEXT	ENDS
;	COMDAT text$x
text$x	SEGMENT
__unwindfunclet$??0CvCityStrategyAI@@QAE@XZ$0:
	mov	ecx, DWORD PTR _this$[ebp]
	jmp	??1CvFlavorRecipient@@QAE@XZ		; CvFlavorRecipient::~CvFlavorRecipient
__ehhandler$??0CvCityStrategyAI@@QAE@XZ:
	mov	edx, DWORD PTR [esp+8]
	lea	eax, DWORD PTR [edx+12]
	mov	ecx, DWORD PTR [edx-20]
	xor	ecx, eax
	call	@__security_check_cookie@4
	mov	eax, OFFSET __ehfuncinfo$??0CvCityStrategyAI@@QAE@XZ
	jmp	___CxxFrameHandler3
text$x	ENDS
??0CvCityStrategyAI@@QAE@XZ ENDP			; CvCityStrategyAI::CvCityStrategyAI
PUBLIC	??1?$CvWeightedVector@UCvCityBuildable@@$0OB@$00@@QAE@XZ ; CvWeightedVector<CvCityBuildable,225,1>::~CvWeightedVector<CvCityBuildable,225,1>
PUBLIC	??1?$FStaticVector@UWeightedElement@?$CvWeightedVector@UCvCityBuildable@@$0OB@$00@@$0OB@$00$0A@$0A@@@QAE@XZ ; FStaticVector<CvWeightedVector<CvCityBuildable,225,1>::WeightedElement,225,1,0,0>::~FStaticVector<CvWeightedVector<CvCityBuildable,225,1>::WeightedElement,225,1,0,0>
PUBLIC	??1CvCityStrategyAI@@QAE@XZ			; CvCityStrategyAI::~CvCityStrategyAI
;	COMDAT xdata$x
; File d:\sources\lekmod_git\checkout\lekmod_dll\fireplace\include\fireworks\ffastvector.h
xdata$x	SEGMENT
__unwindtable$??1CvCityStrategyAI@@QAE@XZ DD 0ffffffffH
	DD	FLAT:__unwindfunclet$??1CvCityStrategyAI@@QAE@XZ$0
	DD	00H
	DD	FLAT:__unwindfunclet$??1CvCityStrategyAI@@QAE@XZ$1
__ehfuncinfo$??1CvCityStrategyAI@@QAE@XZ DD 019930522H
	DD	02H
	DD	FLAT:__unwindtable$??1CvCityStrategyAI@@QAE@XZ
	DD	2 DUP(00H)
	DD	2 DUP(00H)
	DD	00H
	DD	01H
; Function compile flags: /Odtp
; File d:\sources\lekmod_git\checkout\lekmod_dll\cvgamecoredll_expansion2\cvcitystrategyai.cpp
xdata$x	ENDS
;	COMDAT ??1CvCityStrategyAI@@QAE@XZ
_TEXT	SEGMENT
_this$ = -32						; size = 4
$T231069 = -28						; size = 4
__$EHRec$ = -12						; size = 12
??1CvCityStrategyAI@@QAE@XZ PROC			; CvCityStrategyAI::~CvCityStrategyAI, COMDAT
; _this$ = ecx

; 263  : {

	push	ebp
	mov	ebp, esp
	push	-1
	push	__ehhandler$??1CvCityStrategyAI@@QAE@XZ
	mov	eax, DWORD PTR fs:0
	push	eax
	sub	esp, 20					; 00000014H
	mov	eax, DWORD PTR ___security_cookie
	xor	eax, ebp
	push	eax
	lea	eax, DWORD PTR __$EHRec$[ebp]
	mov	DWORD PTR fs:0, eax
	mov	DWORD PTR _this$[ebp], ecx
	mov	eax, DWORD PTR _this$[ebp]
	mov	DWORD PTR [eax], OFFSET ??_7CvCityStrategyAI@@6B@
	mov	DWORD PTR __$EHRec$[ebp+8], 1

; 264  : 	Uninit();

	mov	ecx, DWORD PTR _this$[ebp]
	call	?Uninit@CvCityStrategyAI@@UAEXXZ	; CvCityStrategyAI::Uninit

; 265  : }

	mov	BYTE PTR __$EHRec$[ebp+8], 0
	mov	ecx, DWORD PTR _this$[ebp]
	add	ecx, 56					; 00000038H
	mov	DWORD PTR $T231069[ebp], ecx
	mov	ecx, DWORD PTR $T231069[ebp]
	call	??1?$FStaticVector@UWeightedElement@?$CvWeightedVector@UCvCityBuildable@@$0OB@$00@@$0OB@$00$0A@$0A@@@QAE@XZ ; FStaticVector<CvWeightedVector<CvCityBuildable,225,1>::WeightedElement,225,1,0,0>::~FStaticVector<CvWeightedVector<CvCityBuildable,225,1>::WeightedElement,225,1,0,0>
	mov	DWORD PTR __$EHRec$[ebp+8], -1
	mov	ecx, DWORD PTR _this$[ebp]
	call	??1CvFlavorRecipient@@QAE@XZ		; CvFlavorRecipient::~CvFlavorRecipient
	mov	ecx, DWORD PTR __$EHRec$[ebp]
	mov	DWORD PTR fs:0, ecx
	pop	ecx
	mov	esp, ebp
	pop	ebp
	ret	0
_TEXT	ENDS
;	COMDAT text$x
text$x	SEGMENT
__unwindfunclet$??1CvCityStrategyAI@@QAE@XZ$0:
	mov	ecx, DWORD PTR _this$[ebp]
	jmp	??1CvFlavorRecipient@@QAE@XZ		; CvFlavorRecipient::~CvFlavorRecipient
__unwindfunclet$??1CvCityStrategyAI@@QAE@XZ$1:
	mov	ecx, DWORD PTR _this$[ebp]
	add	ecx, 56					; 00000038H
	jmp	??1?$CvWeightedVector@UCvCityBuildable@@$0OB@$00@@QAE@XZ ; CvWeightedVector<CvCityBuildable,225,1>::~CvWeightedVector<CvCityBuildable,225,1>
__ehhandler$??1CvCityStrategyAI@@QAE@XZ:
	mov	edx, DWORD PTR [esp+8]
	lea	eax, DWORD PTR [edx+12]
	mov	ecx, DWORD PTR [edx-24]
	xor	ecx, eax
	call	@__security_check_cookie@4
	mov	eax, OFFSET __ehfuncinfo$??1CvCityStrategyAI@@QAE@XZ
	jmp	___CxxFrameHandler3
text$x	ENDS
??1CvCityStrategyAI@@QAE@XZ ENDP			; CvCityStrategyAI::~CvCityStrategyAI
PUBLIC	?Reset@CvCityStrategyAI@@QAEXXZ			; CvCityStrategyAI::Reset
PUBLIC	?Init@CvCityStrategyAI@@QAEXPAVCvAICityStrategies@@PAVCvCity@@_N@Z ; CvCityStrategyAI::Init
EXTRN	??0CvProcessProductionAI@@QAE@PAVCvCity@@@Z:PROC ; CvProcessProductionAI::CvProcessProductionAI
EXTRN	??0CvProjectProductionAI@@QAE@PAVCvCity@@@Z:PROC ; CvProjectProductionAI::CvProjectProductionAI
EXTRN	??0CvUnitProductionAI@@QAE@PAVCvCity@@PAVCvUnitXMLEntries@@@Z:PROC ; CvUnitProductionAI::CvUnitProductionAI
EXTRN	?GetGameUnits@CvGlobals@@QBEPAVCvUnitXMLEntries@@XZ:PROC ; CvGlobals::GetGameUnits
EXTRN	??0CvBuildingProductionAI@@QAE@PAVCvCity@@PAVCvCityBuildings@@@Z:PROC ; CvBuildingProductionAI::CvBuildingProductionAI
EXTRN	?GetCityBuildings@CvCity@@QBEPAVCvCityBuildings@@XZ:PROC ; CvCity::GetCityBuildings
EXTRN	??2@YAPAXI@Z:PROC				; operator new
EXTRN	??_U@YAPAXI@Z:PROC				; operator new[]
;	COMDAT xdata$x
; File d:\sources\lekmod_git\checkout\lekmod_dll\cvgamecoredll_expansion2\cvglobals.h
xdata$x	SEGMENT
__unwindtable$?Init@CvCityStrategyAI@@QAEXPAVCvAICityStrategies@@PAVCvCity@@_N@Z DD 0ffffffffH
	DD	FLAT:__unwindfunclet$?Init@CvCityStrategyAI@@QAEXPAVCvAICityStrategies@@PAVCvCity@@_N@Z$0
	DD	0ffffffffH
	DD	FLAT:__unwindfunclet$?Init@CvCityStrategyAI@@QAEXPAVCvAICityStrategies@@PAVCvCity@@_N@Z$1
	DD	0ffffffffH
	DD	FLAT:__unwindfunclet$?Init@CvCityStrategyAI@@QAEXPAVCvAICityStrategies@@PAVCvCity@@_N@Z$2
	DD	0ffffffffH
	DD	FLAT:__unwindfunclet$?Init@CvCityStrategyAI@@QAEXPAVCvAICityStrategies@@PAVCvCity@@_N@Z$3
__ehfuncinfo$?Init@CvCityStrategyAI@@QAEXPAVCvAICityStrategies@@PAVCvCity@@_N@Z DD 019930522H
	DD	04H
	DD	FLAT:__unwindtable$?Init@CvCityStrategyAI@@QAEXPAVCvAICityStrategies@@PAVCvCity@@_N@Z
	DD	2 DUP(00H)
	DD	2 DUP(00H)
	DD	00H
	DD	01H
; Function compile flags: /Odtp
; File d:\sources\lekmod_git\checkout\lekmod_dll\cvgamecoredll_expansion2\cvcitystrategyai.cpp
xdata$x	ENDS
;	COMDAT ?Init@CvCityStrategyAI@@QAEXPAVCvAICityStrategies@@PAVCvCity@@_N@Z
_TEXT	SEGMENT
tv177 = -80						; size = 4
tv168 = -76						; size = 4
tv159 = -72						; size = 4
tv147 = -68						; size = 4
_this$ = -64						; size = 4
$T231104 = -60						; size = 4
$T231094 = -56						; size = 4
$T231093 = -52						; size = 4
$T231090 = -48						; size = 4
$T231089 = -44						; size = 4
$T231086 = -40						; size = 4
$T231085 = -36						; size = 4
$T231082 = -32						; size = 4
$T231081 = -28						; size = 4
$T231080 = -24						; size = 4
$T231079 = -20						; size = 4
$T231078 = -16						; size = 4
__$EHRec$ = -12						; size = 12
_pAICityStrategies$ = 8					; size = 4
_pCity$ = 12						; size = 4
_bIsCity$ = 16						; size = 1
?Init@CvCityStrategyAI@@QAEXPAVCvAICityStrategies@@PAVCvCity@@_N@Z PROC ; CvCityStrategyAI::Init, COMDAT
; _this$ = ecx

; 269  : {

	push	ebp
	mov	ebp, esp
	push	-1
	push	__ehhandler$?Init@CvCityStrategyAI@@QAEXPAVCvAICityStrategies@@PAVCvCity@@_N@Z
	mov	eax, DWORD PTR fs:0
	push	eax
	sub	esp, 68					; 00000044H
	mov	eax, DWORD PTR ___security_cookie
	xor	eax, ebp
	push	eax
	lea	eax, DWORD PTR __$EHRec$[ebp]
	mov	DWORD PTR fs:0, eax
	mov	DWORD PTR _this$[ebp], ecx

; 270  : 	// Init base class
; 271  : 	CvFlavorRecipient::Init();

	mov	ecx, DWORD PTR _this$[ebp]
	call	?Init@CvFlavorRecipient@@UAEXXZ		; CvFlavorRecipient::Init

; 272  : 
; 273  : 	// Store off the pointers passed in to this object
; 274  : 	m_bIsCity = bIsCity;

	mov	eax, DWORD PTR _this$[ebp]
	mov	cl, BYTE PTR _bIsCity$[ebp]
	mov	BYTE PTR [eax+4], cl

; 275  : 	m_pAICityStrategies = pAICityStrategies;

	mov	edx, DWORD PTR _this$[ebp]
	mov	eax, DWORD PTR _pAICityStrategies$[ebp]
	mov	DWORD PTR [edx+16], eax

; 276  : 	m_pCity = pCity;

	mov	ecx, DWORD PTR _this$[ebp]
	mov	edx, DWORD PTR _pCity$[ebp]
	mov	DWORD PTR [ecx+12], edx

; 277  : 
; 278  : 	// Initialize arrays
; 279  : 	CvAssertMsg(m_pabUsingCityStrategy==NULL, "about to leak memory, CvCityAIStrategies::m_pabUsingCityStrategy");
; 280  : 	m_pabUsingCityStrategy = FNEW(bool[m_pAICityStrategies->GetNumAICityStrategies()], c_eCiv5GameplayDLL, 0);

	mov	eax, DWORD PTR _this$[ebp]
	mov	ecx, DWORD PTR [eax+16]
	call	?GetNumAICityStrategies@CvAICityStrategies@@QAEHXZ ; CvAICityStrategies::GetNumAICityStrategies
	push	eax
	call	??_U@YAPAXI@Z				; operator new[]
	add	esp, 4
	mov	DWORD PTR $T231078[ebp], eax
	mov	ecx, DWORD PTR _this$[ebp]
	mov	edx, DWORD PTR $T231078[ebp]
	mov	DWORD PTR [ecx+28], edx

; 281  : 
; 282  : 	CvAssertMsg(m_paiTurnCityStrategyAdopted==NULL, "about to leak memory, CvCityAIStrategies::m_paiTurnCityStrategyAdopted");
; 283  : 	m_paiTurnCityStrategyAdopted = FNEW(int[m_pAICityStrategies->GetNumAICityStrategies()], c_eCiv5GameplayDLL, 0);

	mov	eax, DWORD PTR _this$[ebp]
	mov	ecx, DWORD PTR [eax+16]
	call	?GetNumAICityStrategies@CvAICityStrategies@@QAEHXZ ; CvAICityStrategies::GetNumAICityStrategies
	xor	ecx, ecx
	mov	edx, 4
	mul	edx
	seto	cl
	neg	ecx
	or	ecx, eax
	push	ecx
	call	??_U@YAPAXI@Z				; operator new[]
	add	esp, 4
	mov	DWORD PTR $T231079[ebp], eax
	mov	eax, DWORD PTR _this$[ebp]
	mov	ecx, DWORD PTR $T231079[ebp]
	mov	DWORD PTR [eax+32], ecx

; 284  : 
; 285  : 	CvAssertMsg(m_aiTempFlavors==NULL, "about to leak memory, CvCityAIStrategies::m_aiTempFlavors");
; 286  : 	m_aiTempFlavors = FNEW(int[GC.getNumFlavorTypes()], c_eCiv5GameplayDLL, 0);

	mov	edx, DWORD PTR ?gGlobals@@3VCvGlobals@@A+1764
	mov	DWORD PTR $T231104[ebp], edx
	xor	ecx, ecx
	mov	eax, DWORD PTR $T231104[ebp]
	mov	edx, 4
	mul	edx
	seto	cl
	neg	ecx
	or	ecx, eax
	push	ecx
	call	??_U@YAPAXI@Z				; operator new[]
	add	esp, 4
	mov	DWORD PTR $T231080[ebp], eax
	mov	eax, DWORD PTR _this$[ebp]
	mov	ecx, DWORD PTR $T231080[ebp]
	mov	DWORD PTR [eax+36], ecx

; 287  : 
; 288  : 	// Create AI subobjects
; 289  : 	m_pBuildingProductionAI = FNEW(CvBuildingProductionAI(pCity, pCity->GetCityBuildings()), c_eCiv5GameplayDLL, 0);

	push	2200					; 00000898H
	call	??2@YAPAXI@Z				; operator new
	add	esp, 4
	mov	DWORD PTR $T231082[ebp], eax
	mov	DWORD PTR __$EHRec$[ebp+8], 0
	cmp	DWORD PTR $T231082[ebp], 0
	je	SHORT $LN3@Init
	mov	ecx, DWORD PTR _pCity$[ebp]
	call	?GetCityBuildings@CvCity@@QBEPAVCvCityBuildings@@XZ ; CvCity::GetCityBuildings
	push	eax
	mov	edx, DWORD PTR _pCity$[ebp]
	push	edx
	mov	ecx, DWORD PTR $T231082[ebp]
	call	??0CvBuildingProductionAI@@QAE@PAVCvCity@@PAVCvCityBuildings@@@Z ; CvBuildingProductionAI::CvBuildingProductionAI
	mov	DWORD PTR tv147[ebp], eax
	jmp	SHORT $LN4@Init
$LN3@Init:
	mov	DWORD PTR tv147[ebp], 0
$LN4@Init:
	mov	eax, DWORD PTR tv147[ebp]
	mov	DWORD PTR $T231081[ebp], eax
	mov	DWORD PTR __$EHRec$[ebp+8], -1
	mov	ecx, DWORD PTR _this$[ebp]
	mov	edx, DWORD PTR $T231081[ebp]
	mov	DWORD PTR [ecx+40], edx

; 290  : 	m_pUnitProductionAI = FNEW(CvUnitProductionAI(pCity, GC.GetGameUnits()), c_eCiv5GameplayDLL, 0);

	push	1480					; 000005c8H
	call	??2@YAPAXI@Z				; operator new
	add	esp, 4
	mov	DWORD PTR $T231086[ebp], eax
	mov	DWORD PTR __$EHRec$[ebp+8], 1
	cmp	DWORD PTR $T231086[ebp], 0
	je	SHORT $LN5@Init
	mov	ecx, OFFSET ?gGlobals@@3VCvGlobals@@A	; gGlobals
	call	?GetGameUnits@CvGlobals@@QBEPAVCvUnitXMLEntries@@XZ ; CvGlobals::GetGameUnits
	push	eax
	mov	eax, DWORD PTR _pCity$[ebp]
	push	eax
	mov	ecx, DWORD PTR $T231086[ebp]
	call	??0CvUnitProductionAI@@QAE@PAVCvCity@@PAVCvUnitXMLEntries@@@Z ; CvUnitProductionAI::CvUnitProductionAI
	mov	DWORD PTR tv159[ebp], eax
	jmp	SHORT $LN6@Init
$LN5@Init:
	mov	DWORD PTR tv159[ebp], 0
$LN6@Init:
	mov	ecx, DWORD PTR tv159[ebp]
	mov	DWORD PTR $T231085[ebp], ecx
	mov	DWORD PTR __$EHRec$[ebp+8], -1
	mov	edx, DWORD PTR _this$[ebp]
	mov	eax, DWORD PTR $T231085[ebp]
	mov	DWORD PTR [edx+44], eax

; 291  : 	m_pProjectProductionAI = FNEW(CvProjectProductionAI(pCity), c_eCiv5GameplayDLL, 0);

	push	324					; 00000144H
	call	??2@YAPAXI@Z				; operator new
	add	esp, 4
	mov	DWORD PTR $T231090[ebp], eax
	mov	DWORD PTR __$EHRec$[ebp+8], 2
	cmp	DWORD PTR $T231090[ebp], 0
	je	SHORT $LN7@Init
	mov	ecx, DWORD PTR _pCity$[ebp]
	push	ecx
	mov	ecx, DWORD PTR $T231090[ebp]
	call	??0CvProjectProductionAI@@QAE@PAVCvCity@@@Z ; CvProjectProductionAI::CvProjectProductionAI
	mov	DWORD PTR tv168[ebp], eax
	jmp	SHORT $LN8@Init
$LN7@Init:
	mov	DWORD PTR tv168[ebp], 0
$LN8@Init:
	mov	edx, DWORD PTR tv168[ebp]
	mov	DWORD PTR $T231089[ebp], edx
	mov	DWORD PTR __$EHRec$[ebp+8], -1
	mov	eax, DWORD PTR _this$[ebp]
	mov	ecx, DWORD PTR $T231089[ebp]
	mov	DWORD PTR [eax+48], ecx

; 292  : 	m_pProcessProductionAI = FNEW(CvProcessProductionAI(pCity), c_eCiv5GameplayDLL, 0);

	push	100					; 00000064H
	call	??2@YAPAXI@Z				; operator new
	add	esp, 4
	mov	DWORD PTR $T231094[ebp], eax
	mov	DWORD PTR __$EHRec$[ebp+8], 3
	cmp	DWORD PTR $T231094[ebp], 0
	je	SHORT $LN9@Init
	mov	edx, DWORD PTR _pCity$[ebp]
	push	edx
	mov	ecx, DWORD PTR $T231094[ebp]
	call	??0CvProcessProductionAI@@QAE@PAVCvCity@@@Z ; CvProcessProductionAI::CvProcessProductionAI
	mov	DWORD PTR tv177[ebp], eax
	jmp	SHORT $LN10@Init
$LN9@Init:
	mov	DWORD PTR tv177[ebp], 0
$LN10@Init:
	mov	eax, DWORD PTR tv177[ebp]
	mov	DWORD PTR $T231093[ebp], eax
	mov	DWORD PTR __$EHRec$[ebp+8], -1
	mov	ecx, DWORD PTR _this$[ebp]
	mov	edx, DWORD PTR $T231093[ebp]
	mov	DWORD PTR [ecx+52], edx

; 293  : 
; 294  : 	// Clear variables
; 295  : 	Reset();

	mov	ecx, DWORD PTR _this$[ebp]
	call	?Reset@CvCityStrategyAI@@QAEXXZ		; CvCityStrategyAI::Reset

; 296  : }

	mov	ecx, DWORD PTR __$EHRec$[ebp]
	mov	DWORD PTR fs:0, ecx
	pop	ecx
	mov	esp, ebp
	pop	ebp
	ret	12					; 0000000cH
_TEXT	ENDS
;	COMDAT text$x
text$x	SEGMENT
__unwindfunclet$?Init@CvCityStrategyAI@@QAEXPAVCvAICityStrategies@@PAVCvCity@@_N@Z$0:
	mov	eax, DWORD PTR $T231082[ebp]
	push	eax
	call	??3@YAXPAX@Z				; operator delete
	pop	ecx
	ret	0
__unwindfunclet$?Init@CvCityStrategyAI@@QAEXPAVCvAICityStrategies@@PAVCvCity@@_N@Z$1:
	mov	eax, DWORD PTR $T231086[ebp]
	push	eax
	call	??3@YAXPAX@Z				; operator delete
	pop	ecx
	ret	0
__unwindfunclet$?Init@CvCityStrategyAI@@QAEXPAVCvAICityStrategies@@PAVCvCity@@_N@Z$2:
	mov	eax, DWORD PTR $T231090[ebp]
	push	eax
	call	??3@YAXPAX@Z				; operator delete
	pop	ecx
	ret	0
__unwindfunclet$?Init@CvCityStrategyAI@@QAEXPAVCvAICityStrategies@@PAVCvCity@@_N@Z$3:
	mov	eax, DWORD PTR $T231094[ebp]
	push	eax
	call	??3@YAXPAX@Z				; operator delete
	pop	ecx
	ret	0
__ehhandler$?Init@CvCityStrategyAI@@QAEXPAVCvAICityStrategies@@PAVCvCity@@_N@Z:
	mov	edx, DWORD PTR [esp+8]
	lea	eax, DWORD PTR [edx+12]
	mov	ecx, DWORD PTR [edx-72]
	xor	ecx, eax
	call	@__security_check_cookie@4
	mov	eax, OFFSET __ehfuncinfo$?Init@CvCityStrategyAI@@QAEXPAVCvAICityStrategies@@PAVCvCity@@_N@Z
	jmp	___CxxFrameHandler3
text$x	ENDS
?Init@CvCityStrategyAI@@QAEXPAVCvAICityStrategies@@PAVCvCity@@_N@Z ENDP ; CvCityStrategyAI::Init
EXTRN	??1CvProcessProductionAI@@QAE@XZ:PROC		; CvProcessProductionAI::~CvProcessProductionAI
EXTRN	??1CvProjectProductionAI@@QAE@XZ:PROC		; CvProjectProductionAI::~CvProjectProductionAI
EXTRN	??1CvUnitProductionAI@@QAE@XZ:PROC		; CvUnitProductionAI::~CvUnitProductionAI
EXTRN	??1CvBuildingProductionAI@@QAE@XZ:PROC		; CvBuildingProductionAI::~CvBuildingProductionAI
EXTRN	?Uninit@CvFlavorRecipient@@UAEXXZ:PROC		; CvFlavorRecipient::Uninit
; Function compile flags: /Odtp
;	COMDAT ?Uninit@CvCityStrategyAI@@UAEXXZ
_TEXT	SEGMENT
tv137 = -92						; size = 4
tv131 = -88						; size = 4
tv93 = -84						; size = 4
tv87 = -80						; size = 4
_this$ = -76						; size = 4
$T231206 = -72						; size = 4
$T231200 = -68						; size = 4
$T231199 = -64						; size = 4
$T231187 = -60						; size = 4
$T231181 = -56						; size = 4
$T231180 = -52						; size = 4
$T231168 = -48						; size = 4
$T231162 = -44						; size = 4
$T231161 = -40						; size = 4
$T231149 = -36						; size = 4
$T231143 = -32						; size = 4
$T231142 = -28						; size = 4
$T231130 = -24						; size = 4
$T231129 = -20						; size = 4
$T231124 = -16						; size = 4
$T231123 = -12						; size = 4
$T231118 = -8						; size = 4
$T231117 = -4						; size = 4
?Uninit@CvCityStrategyAI@@UAEXXZ PROC			; CvCityStrategyAI::Uninit, COMDAT
; _this$ = ecx

; 300  : {

	push	ebp
	mov	ebp, esp
	sub	esp, 92					; 0000005cH
	mov	DWORD PTR _this$[ebp], ecx

; 301  : 	// Uninit base class
; 302  : 	CvFlavorRecipient::Uninit();

	mov	ecx, DWORD PTR _this$[ebp]
	call	?Uninit@CvFlavorRecipient@@UAEXXZ	; CvFlavorRecipient::Uninit

; 303  : 
; 304  : 	// Deallocate member variables
; 305  : 	SAFE_DELETE_ARRAY(m_pabUsingCityStrategy);

	mov	eax, DWORD PTR _this$[ebp]
	add	eax, 28					; 0000001cH
	mov	DWORD PTR $T231118[ebp], eax
	mov	ecx, DWORD PTR $T231118[ebp]
	mov	edx, DWORD PTR [ecx]
	mov	DWORD PTR $T231117[ebp], edx
	mov	eax, DWORD PTR $T231117[ebp]
	push	eax
	call	??_V@YAXPAX@Z				; operator delete[]
	add	esp, 4
	mov	ecx, DWORD PTR $T231118[ebp]
	mov	DWORD PTR [ecx], 0

; 306  : 	SAFE_DELETE_ARRAY(m_paiTurnCityStrategyAdopted);

	mov	edx, DWORD PTR _this$[ebp]
	add	edx, 32					; 00000020H
	mov	DWORD PTR $T231124[ebp], edx
	mov	eax, DWORD PTR $T231124[ebp]
	mov	ecx, DWORD PTR [eax]
	mov	DWORD PTR $T231123[ebp], ecx
	mov	edx, DWORD PTR $T231123[ebp]
	push	edx
	call	??_V@YAXPAX@Z				; operator delete[]
	add	esp, 4
	mov	eax, DWORD PTR $T231124[ebp]
	mov	DWORD PTR [eax], 0

; 307  : 	SAFE_DELETE_ARRAY(m_aiTempFlavors);

	mov	ecx, DWORD PTR _this$[ebp]
	add	ecx, 36					; 00000024H
	mov	DWORD PTR $T231130[ebp], ecx
	mov	edx, DWORD PTR $T231130[ebp]
	mov	eax, DWORD PTR [edx]
	mov	DWORD PTR $T231129[ebp], eax
	mov	ecx, DWORD PTR $T231129[ebp]
	push	ecx
	call	??_V@YAXPAX@Z				; operator delete[]
	add	esp, 4
	mov	edx, DWORD PTR $T231130[ebp]
	mov	DWORD PTR [edx], 0

; 308  : 	SAFE_DELETE(m_pBuildingProductionAI);

	mov	eax, DWORD PTR _this$[ebp]
	add	eax, 40					; 00000028H
	mov	DWORD PTR $T231149[ebp], eax
	mov	ecx, DWORD PTR $T231149[ebp]
	mov	edx, DWORD PTR [ecx]
	mov	DWORD PTR $T231143[ebp], edx
	mov	eax, DWORD PTR $T231143[ebp]
	mov	DWORD PTR $T231142[ebp], eax
	cmp	DWORD PTR $T231142[ebp], 0
	je	SHORT $LN11@Uninit
	mov	ecx, DWORD PTR $T231142[ebp]
	call	??1CvBuildingProductionAI@@QAE@XZ	; CvBuildingProductionAI::~CvBuildingProductionAI
	mov	ecx, 1
	and	ecx, 1
	je	SHORT $LN14@Uninit
	mov	edx, DWORD PTR $T231142[ebp]
	push	edx
	call	??3@YAXPAX@Z				; operator delete
	add	esp, 4
$LN14@Uninit:
	mov	eax, DWORD PTR $T231142[ebp]
	mov	DWORD PTR tv87[ebp], eax
	jmp	SHORT $LN12@Uninit
$LN11@Uninit:
	mov	DWORD PTR tv87[ebp], 0
$LN12@Uninit:
	mov	ecx, DWORD PTR $T231149[ebp]
	mov	DWORD PTR [ecx], 0

; 309  : 	SAFE_DELETE(m_pUnitProductionAI);

	mov	edx, DWORD PTR _this$[ebp]
	add	edx, 44					; 0000002cH
	mov	DWORD PTR $T231168[ebp], edx
	mov	eax, DWORD PTR $T231168[ebp]
	mov	ecx, DWORD PTR [eax]
	mov	DWORD PTR $T231162[ebp], ecx
	mov	edx, DWORD PTR $T231162[ebp]
	mov	DWORD PTR $T231161[ebp], edx
	cmp	DWORD PTR $T231161[ebp], 0
	je	SHORT $LN18@Uninit
	mov	ecx, DWORD PTR $T231161[ebp]
	call	??1CvUnitProductionAI@@QAE@XZ		; CvUnitProductionAI::~CvUnitProductionAI
	mov	eax, 1
	and	eax, 1
	je	SHORT $LN21@Uninit
	mov	ecx, DWORD PTR $T231161[ebp]
	push	ecx
	call	??3@YAXPAX@Z				; operator delete
	add	esp, 4
$LN21@Uninit:
	mov	edx, DWORD PTR $T231161[ebp]
	mov	DWORD PTR tv93[ebp], edx
	jmp	SHORT $LN19@Uninit
$LN18@Uninit:
	mov	DWORD PTR tv93[ebp], 0
$LN19@Uninit:
	mov	eax, DWORD PTR $T231168[ebp]
	mov	DWORD PTR [eax], 0

; 310  : 	SAFE_DELETE(m_pProjectProductionAI);

	mov	ecx, DWORD PTR _this$[ebp]
	add	ecx, 48					; 00000030H
	mov	DWORD PTR $T231187[ebp], ecx
	mov	edx, DWORD PTR $T231187[ebp]
	mov	eax, DWORD PTR [edx]
	mov	DWORD PTR $T231181[ebp], eax
	mov	ecx, DWORD PTR $T231181[ebp]
	mov	DWORD PTR $T231180[ebp], ecx
	cmp	DWORD PTR $T231180[ebp], 0
	je	SHORT $LN25@Uninit
	mov	ecx, DWORD PTR $T231180[ebp]
	call	??1CvProjectProductionAI@@QAE@XZ	; CvProjectProductionAI::~CvProjectProductionAI
	mov	edx, 1
	and	edx, 1
	je	SHORT $LN28@Uninit
	mov	eax, DWORD PTR $T231180[ebp]
	push	eax
	call	??3@YAXPAX@Z				; operator delete
	add	esp, 4
$LN28@Uninit:
	mov	ecx, DWORD PTR $T231180[ebp]
	mov	DWORD PTR tv131[ebp], ecx
	jmp	SHORT $LN26@Uninit
$LN25@Uninit:
	mov	DWORD PTR tv131[ebp], 0
$LN26@Uninit:
	mov	edx, DWORD PTR $T231187[ebp]
	mov	DWORD PTR [edx], 0

; 311  : 	SAFE_DELETE(m_pProcessProductionAI);

	mov	eax, DWORD PTR _this$[ebp]
	add	eax, 52					; 00000034H
	mov	DWORD PTR $T231206[ebp], eax
	mov	ecx, DWORD PTR $T231206[ebp]
	mov	edx, DWORD PTR [ecx]
	mov	DWORD PTR $T231200[ebp], edx
	mov	eax, DWORD PTR $T231200[ebp]
	mov	DWORD PTR $T231199[ebp], eax
	cmp	DWORD PTR $T231199[ebp], 0
	je	SHORT $LN32@Uninit
	mov	ecx, DWORD PTR $T231199[ebp]
	call	??1CvProcessProductionAI@@QAE@XZ	; CvProcessProductionAI::~CvProcessProductionAI
	mov	ecx, 1
	and	ecx, 1
	je	SHORT $LN35@Uninit
	mov	edx, DWORD PTR $T231199[ebp]
	push	edx
	call	??3@YAXPAX@Z				; operator delete
	add	esp, 4
$LN35@Uninit:
	mov	eax, DWORD PTR $T231199[ebp]
	mov	DWORD PTR tv137[ebp], eax
	jmp	SHORT $LN33@Uninit
$LN32@Uninit:
	mov	DWORD PTR tv137[ebp], 0
$LN33@Uninit:
	mov	ecx, DWORD PTR $T231206[ebp]
	mov	DWORD PTR [ecx], 0

; 312  : }

	mov	esp, ebp
	pop	ebp
	ret	0
?Uninit@CvCityStrategyAI@@UAEXXZ ENDP			; CvCityStrategyAI::Uninit
_TEXT	ENDS
EXTRN	?Reset@CvProcessProductionAI@@QAEXXZ:PROC	; CvProcessProductionAI::Reset
EXTRN	?Reset@CvProjectProductionAI@@QAEXXZ:PROC	; CvProjectProductionAI::Reset
EXTRN	?Reset@CvUnitProductionAI@@QAEXXZ:PROC		; CvUnitProductionAI::Reset
EXTRN	?Reset@CvBuildingProductionAI@@QAEXXZ:PROC	; CvBuildingProductionAI::Reset
; Function compile flags: /Odtp
;	COMDAT ?Reset@CvCityStrategyAI@@QAEXXZ
_TEXT	SEGMENT
_this$ = -8						; size = 4
_iI$ = -4						; size = 4
?Reset@CvCityStrategyAI@@QAEXXZ PROC			; CvCityStrategyAI::Reset, COMDAT
; _this$ = ecx

; 316  : {

	push	ebp
	mov	ebp, esp
	sub	esp, 8
	mov	DWORD PTR _this$[ebp], ecx

; 317  : 	int iI;
; 318  : 
; 319  : 	for(iI = 0; iI < m_pAICityStrategies->GetNumAICityStrategies(); iI++)

	mov	DWORD PTR _iI$[ebp], 0
	jmp	SHORT $LN3@Reset
$LN2@Reset:
	mov	eax, DWORD PTR _iI$[ebp]
	add	eax, 1
	mov	DWORD PTR _iI$[ebp], eax
$LN3@Reset:
	mov	ecx, DWORD PTR _this$[ebp]
	mov	ecx, DWORD PTR [ecx+16]
	call	?GetNumAICityStrategies@CvAICityStrategies@@QAEHXZ ; CvAICityStrategies::GetNumAICityStrategies
	cmp	DWORD PTR _iI$[ebp], eax
	jge	SHORT $LN1@Reset

; 320  : 	{
; 321  : 		m_pabUsingCityStrategy[iI] = false;

	mov	edx, DWORD PTR _this$[ebp]
	mov	eax, DWORD PTR [edx+28]
	mov	ecx, DWORD PTR _iI$[ebp]
	mov	BYTE PTR [eax+ecx], 0

; 322  : 		m_paiTurnCityStrategyAdopted[iI] = -1;

	mov	edx, DWORD PTR _this$[ebp]
	mov	eax, DWORD PTR [edx+32]
	mov	ecx, DWORD PTR _iI$[ebp]
	mov	DWORD PTR [eax+ecx*4], -1

; 323  : 	}

	jmp	SHORT $LN2@Reset
$LN1@Reset:

; 324  : 
; 325  : 	m_eSpecialization = NO_CITY_SPECIALIZATION;

	mov	edx, DWORD PTR _this$[ebp]
	mov	DWORD PTR [edx+20], -1

; 326  : 	m_eDefaultSpecialization = NO_CITY_SPECIALIZATION;

	mov	eax, DWORD PTR _this$[ebp]
	mov	DWORD PTR [eax+24], -1

; 327  : 	m_eFocusYield = (YieldTypes)NO_YIELD;

	mov	ecx, DWORD PTR _this$[ebp]
	mov	DWORD PTR [ecx+3696], -1

; 328  : 
; 329  : 	// Reset sub AI objects
; 330  : 	m_pBuildingProductionAI->Reset();

	mov	edx, DWORD PTR _this$[ebp]
	mov	ecx, DWORD PTR [edx+40]
	call	?Reset@CvBuildingProductionAI@@QAEXXZ	; CvBuildingProductionAI::Reset

; 331  : 	m_pUnitProductionAI->Reset();

	mov	eax, DWORD PTR _this$[ebp]
	mov	ecx, DWORD PTR [eax+44]
	call	?Reset@CvUnitProductionAI@@QAEXXZ	; CvUnitProductionAI::Reset

; 332  : 	m_pProjectProductionAI->Reset();

	mov	ecx, DWORD PTR _this$[ebp]
	mov	ecx, DWORD PTR [ecx+48]
	call	?Reset@CvProjectProductionAI@@QAEXXZ	; CvProjectProductionAI::Reset

; 333  : 	m_pProcessProductionAI->Reset();

	mov	edx, DWORD PTR _this$[ebp]
	mov	ecx, DWORD PTR [edx+52]
	call	?Reset@CvProcessProductionAI@@QAEXXZ	; CvProcessProductionAI::Reset

; 334  : }

	mov	esp, ebp
	pop	ebp
	ret	0
?Reset@CvCityStrategyAI@@QAEXXZ ENDP			; CvCityStrategyAI::Reset
_TEXT	ENDS
PUBLIC	??$ReadHashedDataArray@H@CvInfosSerializationHelper@@YAXAAVFDataStream@@PAHH@Z ; CvInfosSerializationHelper::ReadHashedDataArray<int>
PUBLIC	??$ReadHashedDataArray@_N@CvInfosSerializationHelper@@YAXAAVFDataStream@@PA_NH@Z ; CvInfosSerializationHelper::ReadHashedDataArray<bool>
PUBLIC	??$?5H@@YAAAVFDataStream@@AAV0@AAV?$ArrayWrapper@H@@@Z ; operator>><int>
PUBLIC	?Read@CvCityStrategyAI@@QAEXAAVFDataStream@@@Z	; CvCityStrategyAI::Read
EXTRN	?Read@CvProcessProductionAI@@QAEXAAVFDataStream@@@Z:PROC ; CvProcessProductionAI::Read
EXTRN	?Read@CvProjectProductionAI@@QAEXAAVFDataStream@@@Z:PROC ; CvProjectProductionAI::Read
EXTRN	?Read@CvUnitProductionAI@@QAEXAAVFDataStream@@@Z:PROC ; CvUnitProductionAI::Read
EXTRN	?Read@CvBuildingProductionAI@@QAEXAAVFDataStream@@@Z:PROC ; CvBuildingProductionAI::Read
EXTRN	??5@YAAAVFDataStream@@AAV0@AAW4CitySpecializationTypes@@@Z:PROC ; operator>>
EXTRN	?getNumAICityStrategyInfos@CvGlobals@@QAEHXZ:PROC ; CvGlobals::getNumAICityStrategyInfos
EXTRN	?Read@FDataStream@@IAEXAAH@Z:PROC		; FDataStream::Read
EXTRN	?Read@FDataStream@@IAEXAAI@Z:PROC		; FDataStream::Read
; Function compile flags: /Odtp
;	COMDAT ?Read@CvCityStrategyAI@@QAEXAAVFDataStream@@@Z
_TEXT	SEGMENT
_this$ = -28						; size = 4
$T231221 = -24						; size = 4
$T231220 = -20						; size = 4
_uiVersion$ = -16					; size = 4
_wrapLatestFlavor$ = -12				; size = 8
_iNumFlavors$ = -4					; size = 4
_kStream$ = 8						; size = 4
?Read@CvCityStrategyAI@@QAEXAAVFDataStream@@@Z PROC	; CvCityStrategyAI::Read, COMDAT
; _this$ = ecx

; 338  : {

	push	ebp
	mov	ebp, esp
	sub	esp, 28					; 0000001cH
	mov	DWORD PTR _this$[ebp], ecx

; 339  : 	// Version number to maintain backwards compatibility
; 340  : 	uint uiVersion;
; 341  : 	kStream >> uiVersion;

	lea	eax, DWORD PTR _uiVersion$[ebp]
	push	eax
	mov	ecx, DWORD PTR _kStream$[ebp]
	call	?Read@FDataStream@@IAEXAAI@Z		; FDataStream::Read

; 342  : 
; 343  : 	CvAssertMsg(m_piLatestFlavorValues != NULL && GC.getNumFlavorTypes() > 0, "Number of flavor values to serialize is expected to greater than 0");
; 344  : 
; 345  : 	int iNumFlavors;
; 346  : 	kStream >> iNumFlavors;

	lea	ecx, DWORD PTR _iNumFlavors$[ebp]
	push	ecx
	mov	ecx, DWORD PTR _kStream$[ebp]
	call	?Read@FDataStream@@IAEXAAH@Z		; FDataStream::Read

; 347  : 	ArrayWrapper<int> wrapLatestFlavor(iNumFlavors, m_piLatestFlavorValues);

	mov	edx, DWORD PTR _this$[ebp]
	mov	eax, DWORD PTR [edx+8]
	mov	DWORD PTR $T231221[ebp], eax
	mov	ecx, DWORD PTR _iNumFlavors$[ebp]
	mov	DWORD PTR $T231220[ebp], ecx
	mov	edx, DWORD PTR $T231221[ebp]
	mov	DWORD PTR _wrapLatestFlavor$[ebp], edx
	mov	eax, DWORD PTR $T231220[ebp]
	mov	DWORD PTR _wrapLatestFlavor$[ebp+4], eax

; 348  : 	kStream >> wrapLatestFlavor;

	lea	ecx, DWORD PTR _wrapLatestFlavor$[ebp]
	push	ecx
	mov	edx, DWORD PTR _kStream$[ebp]
	push	edx
	call	??$?5H@@YAAAVFDataStream@@AAV0@AAV?$ArrayWrapper@H@@@Z ; operator>><int>
	add	esp, 8

; 349  : 
; 350  : 	CvInfosSerializationHelper::ReadHashedDataArray(kStream, m_pabUsingCityStrategy, GC.getNumAICityStrategyInfos());

	mov	ecx, OFFSET ?gGlobals@@3VCvGlobals@@A	; gGlobals
	call	?getNumAICityStrategyInfos@CvGlobals@@QAEHXZ ; CvGlobals::getNumAICityStrategyInfos
	push	eax
	mov	eax, DWORD PTR _this$[ebp]
	mov	ecx, DWORD PTR [eax+28]
	push	ecx
	mov	edx, DWORD PTR _kStream$[ebp]
	push	edx
	call	??$ReadHashedDataArray@_N@CvInfosSerializationHelper@@YAXAAVFDataStream@@PA_NH@Z ; CvInfosSerializationHelper::ReadHashedDataArray<bool>
	add	esp, 12					; 0000000cH

; 351  : 	CvInfosSerializationHelper::ReadHashedDataArray(kStream, m_paiTurnCityStrategyAdopted, GC.getNumAICityStrategyInfos());

	mov	ecx, OFFSET ?gGlobals@@3VCvGlobals@@A	; gGlobals
	call	?getNumAICityStrategyInfos@CvGlobals@@QAEHXZ ; CvGlobals::getNumAICityStrategyInfos
	push	eax
	mov	eax, DWORD PTR _this$[ebp]
	mov	ecx, DWORD PTR [eax+32]
	push	ecx
	mov	edx, DWORD PTR _kStream$[ebp]
	push	edx
	call	??$ReadHashedDataArray@H@CvInfosSerializationHelper@@YAXAAVFDataStream@@PAHH@Z ; CvInfosSerializationHelper::ReadHashedDataArray<int>
	add	esp, 12					; 0000000cH

; 352  : 
; 353  : 	kStream >> m_eSpecialization;

	mov	eax, DWORD PTR _this$[ebp]
	add	eax, 20					; 00000014H
	push	eax
	mov	ecx, DWORD PTR _kStream$[ebp]
	push	ecx
	call	??5@YAAAVFDataStream@@AAV0@AAW4CitySpecializationTypes@@@Z ; operator>>
	add	esp, 8

; 354  : 	kStream >> m_eDefaultSpecialization;

	mov	edx, DWORD PTR _this$[ebp]
	add	edx, 24					; 00000018H
	push	edx
	mov	eax, DWORD PTR _kStream$[ebp]
	push	eax
	call	??5@YAAAVFDataStream@@AAV0@AAW4CitySpecializationTypes@@@Z ; operator>>
	add	esp, 8

; 355  : 	m_eFocusYield = (YieldTypes)NO_YIELD;	//force yield to default since we don't serialize it.

	mov	ecx, DWORD PTR _this$[ebp]
	mov	DWORD PTR [ecx+3696], -1

; 356  : 
; 357  : 	m_pBuildingProductionAI->Read(kStream);

	mov	edx, DWORD PTR _kStream$[ebp]
	push	edx
	mov	eax, DWORD PTR _this$[ebp]
	mov	ecx, DWORD PTR [eax+40]
	call	?Read@CvBuildingProductionAI@@QAEXAAVFDataStream@@@Z ; CvBuildingProductionAI::Read

; 358  : 	m_pUnitProductionAI->Read(kStream);

	mov	ecx, DWORD PTR _kStream$[ebp]
	push	ecx
	mov	edx, DWORD PTR _this$[ebp]
	mov	ecx, DWORD PTR [edx+44]
	call	?Read@CvUnitProductionAI@@QAEXAAVFDataStream@@@Z ; CvUnitProductionAI::Read

; 359  : 	m_pProjectProductionAI->Read(kStream);

	mov	eax, DWORD PTR _kStream$[ebp]
	push	eax
	mov	ecx, DWORD PTR _this$[ebp]
	mov	ecx, DWORD PTR [ecx+48]
	call	?Read@CvProjectProductionAI@@QAEXAAVFDataStream@@@Z ; CvProjectProductionAI::Read

; 360  : 	m_pProcessProductionAI->Read(kStream);

	mov	edx, DWORD PTR _kStream$[ebp]
	push	edx
	mov	eax, DWORD PTR _this$[ebp]
	mov	ecx, DWORD PTR [eax+52]
	call	?Read@CvProcessProductionAI@@QAEXAAVFDataStream@@@Z ; CvProcessProductionAI::Read

; 361  : }

	mov	esp, ebp
	pop	ebp
	ret	4
?Read@CvCityStrategyAI@@QAEXAAVFDataStream@@@Z ENDP	; CvCityStrategyAI::Read
_TEXT	ENDS
PUBLIC	??$WriteHashedDataArray@W4AICityStrategyTypes@@H@CvInfosSerializationHelper@@YAXAAVFDataStream@@PAHI@Z ; CvInfosSerializationHelper::WriteHashedDataArray<enum AICityStrategyTypes,int>
PUBLIC	??$WriteHashedDataArray@W4AICityStrategyTypes@@_N@CvInfosSerializationHelper@@YAXAAVFDataStream@@PA_NI@Z ; CvInfosSerializationHelper::WriteHashedDataArray<enum AICityStrategyTypes,bool>
PUBLIC	??$?6H@@YAAAVFDataStream@@AAV0@ABV?$ArrayWrapper@H@@@Z ; operator<<<int>
PUBLIC	?Write@CvCityStrategyAI@@QAEXAAVFDataStream@@@Z	; CvCityStrategyAI::Write
EXTRN	?Write@CvProcessProductionAI@@QBEXAAVFDataStream@@@Z:PROC ; CvProcessProductionAI::Write
EXTRN	?Write@CvProjectProductionAI@@QBEXAAVFDataStream@@@Z:PROC ; CvProjectProductionAI::Write
EXTRN	?Write@CvUnitProductionAI@@QBEXAAVFDataStream@@@Z:PROC ; CvUnitProductionAI::Write
EXTRN	?Write@CvBuildingProductionAI@@QAEXAAVFDataStream@@@Z:PROC ; CvBuildingProductionAI::Write
EXTRN	??6@YAAAVFDataStream@@AAV0@ABW4CitySpecializationTypes@@@Z:PROC ; operator<<
EXTRN	?Write@FDataStream@@IAEXABH@Z:PROC		; FDataStream::Write
EXTRN	?Write@FDataStream@@IAEXABI@Z:PROC		; FDataStream::Write
; Function compile flags: /Odtp
;	COMDAT ?Write@CvCityStrategyAI@@QAEXAAVFDataStream@@@Z
_TEXT	SEGMENT
_this$ = -36						; size = 4
$T231239 = -32						; size = 4
$T231238 = -28						; size = 4
$T231231 = -24						; size = 4
$T231224 = -20						; size = 8
_uiVersion$ = -12					; size = 4
_iNumStrategies$ = -8					; size = 4
_iNumFlavors$ = -4					; size = 4
_kStream$ = 8						; size = 4
?Write@CvCityStrategyAI@@QAEXAAVFDataStream@@@Z PROC	; CvCityStrategyAI::Write, COMDAT
; _this$ = ecx

; 365  : {

	push	ebp
	mov	ebp, esp
	sub	esp, 36					; 00000024H
	mov	DWORD PTR _this$[ebp], ecx

; 366  : 	// Current version number
; 367  : 	uint uiVersion = 1;

	mov	DWORD PTR _uiVersion$[ebp], 1

; 368  : 	kStream << uiVersion;

	lea	eax, DWORD PTR _uiVersion$[ebp]
	push	eax
	mov	ecx, DWORD PTR _kStream$[ebp]
	call	?Write@FDataStream@@IAEXABI@Z		; FDataStream::Write

; 369  : 
; 370  : 	CvAssertMsg(GC.getNumFlavorTypes() > 0, "Number of flavor values to serialize is expected to greater than 0");
; 371  : 	int iNumFlavors = GC.getNumFlavorTypes();

	mov	ecx, DWORD PTR ?gGlobals@@3VCvGlobals@@A+1764
	mov	DWORD PTR $T231231[ebp], ecx
	mov	edx, DWORD PTR $T231231[ebp]
	mov	DWORD PTR _iNumFlavors$[ebp], edx

; 372  : 	kStream << iNumFlavors;

	lea	eax, DWORD PTR _iNumFlavors$[ebp]
	push	eax
	mov	ecx, DWORD PTR _kStream$[ebp]
	call	?Write@FDataStream@@IAEXABH@Z		; FDataStream::Write

; 373  : 	kStream << ArrayWrapper<int>(iNumFlavors, m_piLatestFlavorValues);

	mov	ecx, DWORD PTR _this$[ebp]
	mov	edx, DWORD PTR [ecx+8]
	mov	DWORD PTR $T231239[ebp], edx
	mov	eax, DWORD PTR _iNumFlavors$[ebp]
	mov	DWORD PTR $T231238[ebp], eax
	mov	ecx, DWORD PTR $T231239[ebp]
	mov	DWORD PTR $T231224[ebp], ecx
	mov	edx, DWORD PTR $T231238[ebp]
	mov	DWORD PTR $T231224[ebp+4], edx
	lea	eax, DWORD PTR $T231224[ebp]
	push	eax
	mov	ecx, DWORD PTR _kStream$[ebp]
	push	ecx
	call	??$?6H@@YAAAVFDataStream@@AAV0@ABV?$ArrayWrapper@H@@@Z ; operator<<<int>
	add	esp, 8

; 374  : 
; 375  : 	int iNumStrategies = GC.getNumAICityStrategyInfos();

	mov	ecx, OFFSET ?gGlobals@@3VCvGlobals@@A	; gGlobals
	call	?getNumAICityStrategyInfos@CvGlobals@@QAEHXZ ; CvGlobals::getNumAICityStrategyInfos
	mov	DWORD PTR _iNumStrategies$[ebp], eax

; 376  : 
; 377  : 	CvInfosSerializationHelper::WriteHashedDataArray<AICityStrategyTypes, bool>(kStream, m_pabUsingCityStrategy, iNumStrategies);

	mov	edx, DWORD PTR _iNumStrategies$[ebp]
	push	edx
	mov	eax, DWORD PTR _this$[ebp]
	mov	ecx, DWORD PTR [eax+28]
	push	ecx
	mov	edx, DWORD PTR _kStream$[ebp]
	push	edx
	call	??$WriteHashedDataArray@W4AICityStrategyTypes@@_N@CvInfosSerializationHelper@@YAXAAVFDataStream@@PA_NI@Z ; CvInfosSerializationHelper::WriteHashedDataArray<enum AICityStrategyTypes,bool>
	add	esp, 12					; 0000000cH

; 378  : 	CvInfosSerializationHelper::WriteHashedDataArray<AICityStrategyTypes, int>(kStream, m_paiTurnCityStrategyAdopted, iNumStrategies);

	mov	eax, DWORD PTR _iNumStrategies$[ebp]
	push	eax
	mov	ecx, DWORD PTR _this$[ebp]
	mov	edx, DWORD PTR [ecx+32]
	push	edx
	mov	eax, DWORD PTR _kStream$[ebp]
	push	eax
	call	??$WriteHashedDataArray@W4AICityStrategyTypes@@H@CvInfosSerializationHelper@@YAXAAVFDataStream@@PAHI@Z ; CvInfosSerializationHelper::WriteHashedDataArray<enum AICityStrategyTypes,int>
	add	esp, 12					; 0000000cH

; 379  : 
; 380  : 	kStream << m_eSpecialization;

	mov	ecx, DWORD PTR _this$[ebp]
	add	ecx, 20					; 00000014H
	push	ecx
	mov	edx, DWORD PTR _kStream$[ebp]
	push	edx
	call	??6@YAAAVFDataStream@@AAV0@ABW4CitySpecializationTypes@@@Z ; operator<<
	add	esp, 8

; 381  : 	kStream << m_eDefaultSpecialization;

	mov	eax, DWORD PTR _this$[ebp]
	add	eax, 24					; 00000018H
	push	eax
	mov	ecx, DWORD PTR _kStream$[ebp]
	push	ecx
	call	??6@YAAAVFDataStream@@AAV0@ABW4CitySpecializationTypes@@@Z ; operator<<
	add	esp, 8

; 382  : 
; 383  : 	m_pBuildingProductionAI->Write(kStream);

	mov	edx, DWORD PTR _kStream$[ebp]
	push	edx
	mov	eax, DWORD PTR _this$[ebp]
	mov	ecx, DWORD PTR [eax+40]
	call	?Write@CvBuildingProductionAI@@QAEXAAVFDataStream@@@Z ; CvBuildingProductionAI::Write

; 384  : 	m_pUnitProductionAI->Write(kStream);

	mov	ecx, DWORD PTR _kStream$[ebp]
	push	ecx
	mov	edx, DWORD PTR _this$[ebp]
	mov	ecx, DWORD PTR [edx+44]
	call	?Write@CvUnitProductionAI@@QBEXAAVFDataStream@@@Z ; CvUnitProductionAI::Write

; 385  : 	m_pProjectProductionAI->Write(kStream);

	mov	eax, DWORD PTR _kStream$[ebp]
	push	eax
	mov	ecx, DWORD PTR _this$[ebp]
	mov	ecx, DWORD PTR [ecx+48]
	call	?Write@CvProjectProductionAI@@QBEXAAVFDataStream@@@Z ; CvProjectProductionAI::Write

; 386  : 	m_pProcessProductionAI->Write(kStream);

	mov	edx, DWORD PTR _kStream$[ebp]
	push	edx
	mov	eax, DWORD PTR _this$[ebp]
	mov	ecx, DWORD PTR [eax+52]
	call	?Write@CvProcessProductionAI@@QBEXAAVFDataStream@@@Z ; CvProcessProductionAI::Write

; 387  : }

	mov	esp, ebp
	pop	ebp
	ret	4
?Write@CvCityStrategyAI@@QAEXAAVFDataStream@@@Z ENDP	; CvCityStrategyAI::Write
_TEXT	ENDS
EXTRN	?AddFlavorWeights@CvProcessProductionAI@@QAEXW4FlavorTypes@@H@Z:PROC ; CvProcessProductionAI::AddFlavorWeights
EXTRN	?AddFlavorWeights@CvProjectProductionAI@@QAEXW4FlavorTypes@@H@Z:PROC ; CvProjectProductionAI::AddFlavorWeights
EXTRN	?AddFlavorWeights@CvUnitProductionAI@@QAEXW4FlavorTypes@@H@Z:PROC ; CvUnitProductionAI::AddFlavorWeights
EXTRN	?AddFlavorWeights@CvBuildingProductionAI@@QAEXW4FlavorTypes@@H@Z:PROC ; CvBuildingProductionAI::AddFlavorWeights
EXTRN	?GetLatestFlavorValue@CvFlavorRecipient@@QAEHW4FlavorTypes@@_N@Z:PROC ; CvFlavorRecipient::GetLatestFlavorValue
; Function compile flags: /Odtp
;	COMDAT ?FlavorUpdate@CvCityStrategyAI@@UAEXXZ
_TEXT	SEGMENT
_this$ = -16						; size = 4
$T231245 = -12						; size = 4
_iFlavorValue$225465 = -8				; size = 4
_iFlavor$225461 = -4					; size = 4
?FlavorUpdate@CvCityStrategyAI@@UAEXXZ PROC		; CvCityStrategyAI::FlavorUpdate, COMDAT
; _this$ = ecx

; 391  : {

	push	ebp
	mov	ebp, esp
	sub	esp, 16					; 00000010H
	mov	DWORD PTR _this$[ebp], ecx

; 392  : 	// Reset our sub AI objects
; 393  : 	m_pBuildingProductionAI->Reset();

	mov	eax, DWORD PTR _this$[ebp]
	mov	ecx, DWORD PTR [eax+40]
	call	?Reset@CvBuildingProductionAI@@QAEXXZ	; CvBuildingProductionAI::Reset

; 394  : 	m_pUnitProductionAI->Reset();

	mov	ecx, DWORD PTR _this$[ebp]
	mov	ecx, DWORD PTR [ecx+44]
	call	?Reset@CvUnitProductionAI@@QAEXXZ	; CvUnitProductionAI::Reset

; 395  : 	m_pProjectProductionAI->Reset();

	mov	edx, DWORD PTR _this$[ebp]
	mov	ecx, DWORD PTR [edx+48]
	call	?Reset@CvProjectProductionAI@@QAEXXZ	; CvProjectProductionAI::Reset

; 396  : 	m_pProcessProductionAI->Reset();

	mov	eax, DWORD PTR _this$[ebp]
	mov	ecx, DWORD PTR [eax+52]
	call	?Reset@CvProcessProductionAI@@QAEXXZ	; CvProcessProductionAI::Reset

; 397  : 
; 398  : 	// Broadcast to our sub AI objects
; 399  : 	for(int iFlavor = 0; iFlavor < GC.getNumFlavorTypes(); iFlavor++)

	mov	DWORD PTR _iFlavor$225461[ebp], 0
	jmp	SHORT $LN3@FlavorUpda
$LN2@FlavorUpda:
	mov	ecx, DWORD PTR _iFlavor$225461[ebp]
	add	ecx, 1
	mov	DWORD PTR _iFlavor$225461[ebp], ecx
$LN3@FlavorUpda:
	mov	edx, DWORD PTR ?gGlobals@@3VCvGlobals@@A+1764
	mov	DWORD PTR $T231245[ebp], edx
	mov	eax, DWORD PTR _iFlavor$225461[ebp]
	cmp	eax, DWORD PTR $T231245[ebp]
	jge	SHORT $LN4@FlavorUpda

; 400  : 	{
; 401  : #ifdef AUI_CITYSTRATEGY_FIX_CHOOSE_PRODUCTION_PUPPETS_NULLIFY_BARRACKS
; 402  : 		if (GetCity()->IsPuppet() && (FlavorTypes)iFlavor == (FlavorTypes)GC.getInfoTypeForString("FLAVOR_MILITARY_TRAINING"))
; 403  : 			continue;
; 404  : #endif
; 405  : 		int iFlavorValue = GetLatestFlavorValue((FlavorTypes)iFlavor);// m_piLatestFlavorValues[iFlavor];

	push	0
	mov	ecx, DWORD PTR _iFlavor$225461[ebp]
	push	ecx
	mov	ecx, DWORD PTR _this$[ebp]
	call	?GetLatestFlavorValue@CvFlavorRecipient@@QAEHW4FlavorTypes@@_N@Z ; CvFlavorRecipient::GetLatestFlavorValue
	mov	DWORD PTR _iFlavorValue$225465[ebp], eax

; 406  : 
; 407  : #ifdef AUI_BUILDING_PRODUCTION_AI_CONSIDER_FREE_STUFF
; 408  : 		m_pUnitProductionAI->AddFlavorWeights((FlavorTypes)iFlavor, iFlavorValue);
; 409  : #endif
; 410  : 		m_pBuildingProductionAI->AddFlavorWeights((FlavorTypes)iFlavor, iFlavorValue);

	mov	edx, DWORD PTR _iFlavorValue$225465[ebp]
	push	edx
	mov	eax, DWORD PTR _iFlavor$225461[ebp]
	push	eax
	mov	ecx, DWORD PTR _this$[ebp]
	mov	ecx, DWORD PTR [ecx+40]
	call	?AddFlavorWeights@CvBuildingProductionAI@@QAEXW4FlavorTypes@@H@Z ; CvBuildingProductionAI::AddFlavorWeights

; 411  : #ifndef AUI_BUILDING_PRODUCTION_AI_CONSIDER_FREE_STUFF
; 412  : 		m_pUnitProductionAI->AddFlavorWeights((FlavorTypes)iFlavor, iFlavorValue);

	mov	edx, DWORD PTR _iFlavorValue$225465[ebp]
	push	edx
	mov	eax, DWORD PTR _iFlavor$225461[ebp]
	push	eax
	mov	ecx, DWORD PTR _this$[ebp]
	mov	ecx, DWORD PTR [ecx+44]
	call	?AddFlavorWeights@CvUnitProductionAI@@QAEXW4FlavorTypes@@H@Z ; CvUnitProductionAI::AddFlavorWeights

; 413  : #endif
; 414  : 		m_pProjectProductionAI->AddFlavorWeights((FlavorTypes)iFlavor, iFlavorValue);

	mov	edx, DWORD PTR _iFlavorValue$225465[ebp]
	push	edx
	mov	eax, DWORD PTR _iFlavor$225461[ebp]
	push	eax
	mov	ecx, DWORD PTR _this$[ebp]
	mov	ecx, DWORD PTR [ecx+48]
	call	?AddFlavorWeights@CvProjectProductionAI@@QAEXW4FlavorTypes@@H@Z ; CvProjectProductionAI::AddFlavorWeights

; 415  : 		m_pProcessProductionAI->AddFlavorWeights((FlavorTypes)iFlavor, iFlavorValue);

	mov	edx, DWORD PTR _iFlavorValue$225465[ebp]
	push	edx
	mov	eax, DWORD PTR _iFlavor$225461[ebp]
	push	eax
	mov	ecx, DWORD PTR _this$[ebp]
	mov	ecx, DWORD PTR [ecx+52]
	call	?AddFlavorWeights@CvProcessProductionAI@@QAEXW4FlavorTypes@@H@Z ; CvProcessProductionAI::AddFlavorWeights
	jmp	SHORT $LN2@FlavorUpda
$LN4@FlavorUpda:

; 416  : 	}
; 417  : }

	mov	esp, ebp
	pop	ebp
	ret	0
?FlavorUpdate@CvCityStrategyAI@@UAEXXZ ENDP		; CvCityStrategyAI::FlavorUpdate
_TEXT	ENDS
PUBLIC	?UpdateFlavorsForNewCity@CvCityStrategyAI@@QAEXXZ ; CvCityStrategyAI::UpdateFlavorsForNewCity
EXTRN	?ChangeFlavors@CvFlavorRecipient@@QAEXPAH_N@Z:PROC ; CvFlavorRecipient::ChangeFlavors
EXTRN	?GetCityFlavorValue@CvMilitaryAIStrategyXMLEntry@@QBEHH@Z:PROC ; CvMilitaryAIStrategyXMLEntry::GetCityFlavorValue
EXTRN	?IsUsingStrategy@CvMilitaryAI@@QAE_NW4MilitaryAIStrategyTypes@@@Z:PROC ; CvMilitaryAI::IsUsingStrategy
EXTRN	?GetMilitaryAI@CvPlayer@@QBEPAVCvMilitaryAI@@XZ:PROC ; CvPlayer::GetMilitaryAI
EXTRN	?getMilitaryAIStrategyInfo@CvGlobals@@QAEPAVCvMilitaryAIStrategyXMLEntry@@W4MilitaryAIStrategyTypes@@@Z:PROC ; CvGlobals::getMilitaryAIStrategyInfo
EXTRN	?getNumMilitaryAIStrategyInfos@CvGlobals@@QAEHXZ:PROC ; CvGlobals::getNumMilitaryAIStrategyInfos
EXTRN	?GetCityFlavorValue@CvEconomicAIStrategyXMLEntry@@QBEHH@Z:PROC ; CvEconomicAIStrategyXMLEntry::GetCityFlavorValue
EXTRN	?IsUsingStrategy@CvEconomicAI@@QAE_NW4EconomicAIStrategyTypes@@@Z:PROC ; CvEconomicAI::IsUsingStrategy
EXTRN	?GetEconomicAI@CvPlayer@@QBEPAVCvEconomicAI@@XZ:PROC ; CvPlayer::GetEconomicAI
EXTRN	?m_aPlayers@CvPlayerAI@@1PAV1@A:DWORD		; CvPlayerAI::m_aPlayers
EXTRN	?getEconomicAIStrategyInfo@CvGlobals@@QAEPAVCvEconomicAIStrategyXMLEntry@@W4EconomicAIStrategyTypes@@@Z:PROC ; CvGlobals::getEconomicAIStrategyInfo
EXTRN	?getNumEconomicAIStrategyInfos@CvGlobals@@QAEHXZ:PROC ; CvGlobals::getNumEconomicAIStrategyInfos
; Function compile flags: /Odtp
;	COMDAT ?UpdateFlavorsForNewCity@CvCityStrategyAI@@QAEXXZ
_TEXT	SEGMENT
_this$ = -60						; size = 4
$T231285 = -56						; size = 4
$T231281 = -52						; size = 4
$T231277 = -48						; size = 4
$T231268 = -44						; size = 4
$T231264 = -40						; size = 4
$T231260 = -36						; size = 4
$T231251 = -32						; size = 4
_eStrategy$225494 = -28					; size = 4
_pStrategy$225496 = -24					; size = 4
_iStrategyLoop$225490 = -20				; size = 4
_eStrategy$225482 = -16					; size = 4
_pStrategy$225484 = -12					; size = 4
_iStrategyLoop$225478 = -8				; size = 4
_iFlavorLoop$ = -4					; size = 4
?UpdateFlavorsForNewCity@CvCityStrategyAI@@QAEXXZ PROC	; CvCityStrategyAI::UpdateFlavorsForNewCity, COMDAT
; _this$ = ecx

; 421  : {

	push	ebp
	mov	ebp, esp
	sub	esp, 60					; 0000003cH
	push	esi
	mov	DWORD PTR _this$[ebp], ecx

; 422  : 	int iFlavorLoop;
; 423  : 
; 424  : 	// Clear out Temp array
; 425  : 	for(iFlavorLoop = 0; iFlavorLoop < GC.getNumFlavorTypes(); iFlavorLoop++)

	mov	DWORD PTR _iFlavorLoop$[ebp], 0
	jmp	SHORT $LN19@UpdateFlav
$LN18@UpdateFlav:
	mov	eax, DWORD PTR _iFlavorLoop$[ebp]
	add	eax, 1
	mov	DWORD PTR _iFlavorLoop$[ebp], eax
$LN19@UpdateFlav:
	mov	ecx, DWORD PTR ?gGlobals@@3VCvGlobals@@A+1764
	mov	DWORD PTR $T231251[ebp], ecx
	mov	edx, DWORD PTR _iFlavorLoop$[ebp]
	cmp	edx, DWORD PTR $T231251[ebp]
	jge	SHORT $LN17@UpdateFlav

; 426  : 	{
; 427  : 		m_aiTempFlavors[iFlavorLoop] = 0;

	mov	eax, DWORD PTR _this$[ebp]
	mov	ecx, DWORD PTR [eax+36]
	mov	edx, DWORD PTR _iFlavorLoop$[ebp]
	mov	DWORD PTR [ecx+edx*4], 0

; 428  : 	}

	jmp	SHORT $LN18@UpdateFlav
$LN17@UpdateFlav:

; 429  : 
; 430  : 	// Go through all Player strategies and for the active ones apply the Flavors
; 431  : #ifdef AUI_WARNING_FIXES
; 432  : 	for (uint iStrategyLoop = 0; iStrategyLoop < GC.getNumEconomicAIStrategyInfos(); iStrategyLoop++)
; 433  : #else
; 434  : 	for(int iStrategyLoop = 0; iStrategyLoop < GC.getNumEconomicAIStrategyInfos(); iStrategyLoop++)

	mov	DWORD PTR _iStrategyLoop$225478[ebp], 0
	jmp	SHORT $LN16@UpdateFlav
$LN15@UpdateFlav:
	mov	eax, DWORD PTR _iStrategyLoop$225478[ebp]
	add	eax, 1
	mov	DWORD PTR _iStrategyLoop$225478[ebp], eax
$LN16@UpdateFlav:
	mov	ecx, OFFSET ?gGlobals@@3VCvGlobals@@A	; gGlobals
	call	?getNumEconomicAIStrategyInfos@CvGlobals@@QAEHXZ ; CvGlobals::getNumEconomicAIStrategyInfos
	cmp	DWORD PTR _iStrategyLoop$225478[ebp], eax
	jge	$LN14@UpdateFlav

; 435  : #endif
; 436  : 	{
; 437  : 		EconomicAIStrategyTypes eStrategy = (EconomicAIStrategyTypes) iStrategyLoop;

	mov	ecx, DWORD PTR _iStrategyLoop$225478[ebp]
	mov	DWORD PTR _eStrategy$225482[ebp], ecx

; 438  : 		CvEconomicAIStrategyXMLEntry* pStrategy = GC.getEconomicAIStrategyInfo(eStrategy);

	mov	edx, DWORD PTR _eStrategy$225482[ebp]
	push	edx
	mov	ecx, OFFSET ?gGlobals@@3VCvGlobals@@A	; gGlobals
	call	?getEconomicAIStrategyInfo@CvGlobals@@QAEPAVCvEconomicAIStrategyXMLEntry@@W4EconomicAIStrategyTypes@@@Z ; CvGlobals::getEconomicAIStrategyInfo
	mov	DWORD PTR _pStrategy$225484[ebp], eax

; 439  : 
; 440  : 		if(pStrategy)

	cmp	DWORD PTR _pStrategy$225484[ebp], 0
	je	$LN13@UpdateFlav

; 441  : 		{
; 442  : 			// Active?
; 443  : 			if(GET_PLAYER(m_pCity->getOwner()).GetEconomicAI()->IsUsingStrategy(eStrategy))

	mov	eax, DWORD PTR _this$[ebp]
	mov	ecx, DWORD PTR [eax+12]
	mov	edx, DWORD PTR [ecx+84]
	mov	DWORD PTR $T231260[ebp], edx
	mov	eax, DWORD PTR $T231260[ebp]
	imul	eax, 63236				; 0000f704H
	add	eax, DWORD PTR ?m_aPlayers@CvPlayerAI@@1PAV1@A ; CvPlayerAI::m_aPlayers
	mov	DWORD PTR $T231264[ebp], eax
	mov	ecx, DWORD PTR _eStrategy$225482[ebp]
	push	ecx
	mov	ecx, DWORD PTR $T231264[ebp]
	call	?GetEconomicAI@CvPlayer@@QBEPAVCvEconomicAI@@XZ ; CvPlayer::GetEconomicAI
	mov	ecx, eax
	call	?IsUsingStrategy@CvEconomicAI@@QAE_NW4EconomicAIStrategyTypes@@@Z ; CvEconomicAI::IsUsingStrategy
	movzx	edx, al
	test	edx, edx
	je	SHORT $LN13@UpdateFlav

; 444  : 			{
; 445  : 				for(iFlavorLoop = 0; iFlavorLoop < GC.getNumFlavorTypes(); iFlavorLoop++)

	mov	DWORD PTR _iFlavorLoop$[ebp], 0
	jmp	SHORT $LN11@UpdateFlav
$LN10@UpdateFlav:
	mov	eax, DWORD PTR _iFlavorLoop$[ebp]
	add	eax, 1
	mov	DWORD PTR _iFlavorLoop$[ebp], eax
$LN11@UpdateFlav:
	mov	ecx, DWORD PTR ?gGlobals@@3VCvGlobals@@A+1764
	mov	DWORD PTR $T231268[ebp], ecx
	mov	edx, DWORD PTR _iFlavorLoop$[ebp]
	cmp	edx, DWORD PTR $T231268[ebp]
	jge	SHORT $LN13@UpdateFlav

; 446  : 				{
; 447  : 					m_aiTempFlavors[iFlavorLoop] += pStrategy->GetCityFlavorValue(iFlavorLoop);

	mov	eax, DWORD PTR _this$[ebp]
	mov	esi, DWORD PTR [eax+36]
	mov	ecx, DWORD PTR _iFlavorLoop$[ebp]
	push	ecx
	mov	ecx, DWORD PTR _pStrategy$225484[ebp]
	call	?GetCityFlavorValue@CvEconomicAIStrategyXMLEntry@@QBEHH@Z ; CvEconomicAIStrategyXMLEntry::GetCityFlavorValue
	mov	edx, DWORD PTR _iFlavorLoop$[ebp]
	add	eax, DWORD PTR [esi+edx*4]
	mov	ecx, DWORD PTR _this$[ebp]
	mov	edx, DWORD PTR [ecx+36]
	mov	ecx, DWORD PTR _iFlavorLoop$[ebp]
	mov	DWORD PTR [edx+ecx*4], eax

; 448  : 				}

	jmp	SHORT $LN10@UpdateFlav
$LN13@UpdateFlav:

; 449  : 			}
; 450  : 		}
; 451  : 	}

	jmp	$LN15@UpdateFlav
$LN14@UpdateFlav:

; 452  : #ifdef AUI_WARNING_FIXES
; 453  : 	for (uint iStrategyLoop = 0; iStrategyLoop < GC.getNumMilitaryAIStrategyInfos(); iStrategyLoop++)
; 454  : #else
; 455  : 	for(int iStrategyLoop = 0; iStrategyLoop < GC.getNumMilitaryAIStrategyInfos(); iStrategyLoop++)

	mov	DWORD PTR _iStrategyLoop$225490[ebp], 0
	jmp	SHORT $LN8@UpdateFlav
$LN7@UpdateFlav:
	mov	edx, DWORD PTR _iStrategyLoop$225490[ebp]
	add	edx, 1
	mov	DWORD PTR _iStrategyLoop$225490[ebp], edx
$LN8@UpdateFlav:
	mov	ecx, OFFSET ?gGlobals@@3VCvGlobals@@A	; gGlobals
	call	?getNumMilitaryAIStrategyInfos@CvGlobals@@QAEHXZ ; CvGlobals::getNumMilitaryAIStrategyInfos
	cmp	DWORD PTR _iStrategyLoop$225490[ebp], eax
	jge	$LN6@UpdateFlav

; 456  : #endif
; 457  : 	{
; 458  : 		MilitaryAIStrategyTypes eStrategy = (MilitaryAIStrategyTypes) iStrategyLoop;

	mov	eax, DWORD PTR _iStrategyLoop$225490[ebp]
	mov	DWORD PTR _eStrategy$225494[ebp], eax

; 459  : 		CvMilitaryAIStrategyXMLEntry* pStrategy = GC.getMilitaryAIStrategyInfo(eStrategy);

	mov	ecx, DWORD PTR _eStrategy$225494[ebp]
	push	ecx
	mov	ecx, OFFSET ?gGlobals@@3VCvGlobals@@A	; gGlobals
	call	?getMilitaryAIStrategyInfo@CvGlobals@@QAEPAVCvMilitaryAIStrategyXMLEntry@@W4MilitaryAIStrategyTypes@@@Z ; CvGlobals::getMilitaryAIStrategyInfo
	mov	DWORD PTR _pStrategy$225496[ebp], eax

; 460  : 
; 461  : 		if(pStrategy)

	cmp	DWORD PTR _pStrategy$225496[ebp], 0
	je	$LN5@UpdateFlav

; 462  : 		{
; 463  : 			// Active?
; 464  : 			if(GET_PLAYER(m_pCity->getOwner()).GetMilitaryAI()->IsUsingStrategy(eStrategy))

	mov	edx, DWORD PTR _this$[ebp]
	mov	eax, DWORD PTR [edx+12]
	mov	ecx, DWORD PTR [eax+84]
	mov	DWORD PTR $T231277[ebp], ecx
	mov	edx, DWORD PTR $T231277[ebp]
	imul	edx, 63236				; 0000f704H
	add	edx, DWORD PTR ?m_aPlayers@CvPlayerAI@@1PAV1@A ; CvPlayerAI::m_aPlayers
	mov	DWORD PTR $T231281[ebp], edx
	mov	eax, DWORD PTR _eStrategy$225494[ebp]
	push	eax
	mov	ecx, DWORD PTR $T231281[ebp]
	call	?GetMilitaryAI@CvPlayer@@QBEPAVCvMilitaryAI@@XZ ; CvPlayer::GetMilitaryAI
	mov	ecx, eax
	call	?IsUsingStrategy@CvMilitaryAI@@QAE_NW4MilitaryAIStrategyTypes@@@Z ; CvMilitaryAI::IsUsingStrategy
	movzx	ecx, al
	test	ecx, ecx
	je	SHORT $LN5@UpdateFlav

; 465  : 			{
; 466  : 				for(iFlavorLoop = 0; iFlavorLoop < GC.getNumFlavorTypes(); iFlavorLoop++)

	mov	DWORD PTR _iFlavorLoop$[ebp], 0
	jmp	SHORT $LN3@UpdateFlav
$LN2@UpdateFlav:
	mov	edx, DWORD PTR _iFlavorLoop$[ebp]
	add	edx, 1
	mov	DWORD PTR _iFlavorLoop$[ebp], edx
$LN3@UpdateFlav:
	mov	eax, DWORD PTR ?gGlobals@@3VCvGlobals@@A+1764
	mov	DWORD PTR $T231285[ebp], eax
	mov	ecx, DWORD PTR _iFlavorLoop$[ebp]
	cmp	ecx, DWORD PTR $T231285[ebp]
	jge	SHORT $LN5@UpdateFlav

; 467  : 				{
; 468  : 					m_aiTempFlavors[iFlavorLoop] += pStrategy->GetCityFlavorValue(iFlavorLoop);

	mov	edx, DWORD PTR _this$[ebp]
	mov	esi, DWORD PTR [edx+36]
	mov	eax, DWORD PTR _iFlavorLoop$[ebp]
	push	eax
	mov	ecx, DWORD PTR _pStrategy$225496[ebp]
	call	?GetCityFlavorValue@CvMilitaryAIStrategyXMLEntry@@QBEHH@Z ; CvMilitaryAIStrategyXMLEntry::GetCityFlavorValue
	mov	ecx, DWORD PTR _iFlavorLoop$[ebp]
	add	eax, DWORD PTR [esi+ecx*4]
	mov	edx, DWORD PTR _this$[ebp]
	mov	ecx, DWORD PTR [edx+36]
	mov	edx, DWORD PTR _iFlavorLoop$[ebp]
	mov	DWORD PTR [ecx+edx*4], eax

; 469  : 				}

	jmp	SHORT $LN2@UpdateFlav
$LN5@UpdateFlav:

; 470  : 			}
; 471  : 		}
; 472  : 	}

	jmp	$LN7@UpdateFlav
$LN6@UpdateFlav:

; 473  : 
; 474  : 	ChangeFlavors(m_aiTempFlavors, true);

	push	1
	mov	eax, DWORD PTR _this$[ebp]
	mov	ecx, DWORD PTR [eax+36]
	push	ecx
	mov	ecx, DWORD PTR _this$[ebp]
	call	?ChangeFlavors@CvFlavorRecipient@@QAEXPAH_N@Z ; CvFlavorRecipient::ChangeFlavors

; 475  : 
; 476  : 	LogFlavors();

	push	-1
	mov	edx, DWORD PTR _this$[ebp]
	mov	eax, DWORD PTR [edx]
	mov	ecx, DWORD PTR _this$[ebp]
	mov	edx, DWORD PTR [eax+12]
	call	edx

; 477  : }

	pop	esi
	mov	esp, ebp
	pop	ebp
	ret	0
?UpdateFlavorsForNewCity@CvCityStrategyAI@@QAEXXZ ENDP	; CvCityStrategyAI::UpdateFlavorsForNewCity
_TEXT	ENDS
PUBLIC	?SpecializationFlavorChange@CvCityStrategyAI@@QAEX_NW4CitySpecializationTypes@@@Z ; CvCityStrategyAI::SpecializationFlavorChange
PUBLIC	?LogSpecializationChange@CvCityStrategyAI@@AAEXW4CitySpecializationTypes@@@Z ; CvCityStrategyAI::LogSpecializationChange
PUBLIC	?SetSpecialization@CvCityStrategyAI@@QAE_NW4CitySpecializationTypes@@@Z ; CvCityStrategyAI::SetSpecialization
; Function compile flags: /Odtp
;	COMDAT ?SetSpecialization@CvCityStrategyAI@@QAE_NW4CitySpecializationTypes@@@Z
_TEXT	SEGMENT
_this$ = -4						; size = 4
_eSpecialization$ = 8					; size = 4
?SetSpecialization@CvCityStrategyAI@@QAE_NW4CitySpecializationTypes@@@Z PROC ; CvCityStrategyAI::SetSpecialization, COMDAT
; _this$ = ecx

; 481  : {

	push	ebp
	mov	ebp, esp
	push	ecx
	mov	DWORD PTR _this$[ebp], ecx

; 482  : 	if(eSpecialization != m_eSpecialization)

	mov	eax, DWORD PTR _this$[ebp]
	mov	ecx, DWORD PTR _eSpecialization$[ebp]
	cmp	ecx, DWORD PTR [eax+20]
	je	SHORT $LN1@SetSpecial

; 483  : 	{
; 484  : 		LogSpecializationChange(eSpecialization);

	mov	edx, DWORD PTR _eSpecialization$[ebp]
	push	edx
	mov	ecx, DWORD PTR _this$[ebp]
	call	?LogSpecializationChange@CvCityStrategyAI@@AAEXW4CitySpecializationTypes@@@Z ; CvCityStrategyAI::LogSpecializationChange

; 485  : 
; 486  : 		// Turn off old specialization
; 487  : 		SpecializationFlavorChange(false /*Don't turn on */, m_eSpecialization);

	mov	eax, DWORD PTR _this$[ebp]
	mov	ecx, DWORD PTR [eax+20]
	push	ecx
	push	0
	mov	ecx, DWORD PTR _this$[ebp]
	call	?SpecializationFlavorChange@CvCityStrategyAI@@QAEX_NW4CitySpecializationTypes@@@Z ; CvCityStrategyAI::SpecializationFlavorChange

; 488  : 
; 489  : 		// Turn on new specialization
; 490  : 		SpecializationFlavorChange(true /* Do turn on */, eSpecialization);

	mov	edx, DWORD PTR _eSpecialization$[ebp]
	push	edx
	push	1
	mov	ecx, DWORD PTR _this$[ebp]
	call	?SpecializationFlavorChange@CvCityStrategyAI@@QAEX_NW4CitySpecializationTypes@@@Z ; CvCityStrategyAI::SpecializationFlavorChange

; 491  : 
; 492  : 		m_eSpecialization = eSpecialization;

	mov	eax, DWORD PTR _this$[ebp]
	mov	ecx, DWORD PTR _eSpecialization$[ebp]
	mov	DWORD PTR [eax+20], ecx

; 493  : 
; 494  : 		return true;

	mov	al, 1
	jmp	SHORT $LN2@SetSpecial
$LN1@SetSpecial:

; 495  : 	}
; 496  : 
; 497  : 	return false;

	xor	al, al
$LN2@SetSpecial:

; 498  : }

	mov	esp, ebp
	pop	ebp
	ret	4
?SetSpecialization@CvCityStrategyAI@@QAE_NW4CitySpecializationTypes@@@Z ENDP ; CvCityStrategyAI::SetSpecialization
_TEXT	ENDS
PUBLIC	?SetDefaultSpecialization@CvCityStrategyAI@@QAE_NW4CitySpecializationTypes@@@Z ; CvCityStrategyAI::SetDefaultSpecialization
; Function compile flags: /Odtp
;	COMDAT ?SetDefaultSpecialization@CvCityStrategyAI@@QAE_NW4CitySpecializationTypes@@@Z
_TEXT	SEGMENT
_this$ = -4						; size = 4
_eDefaultSpecialization$ = 8				; size = 4
?SetDefaultSpecialization@CvCityStrategyAI@@QAE_NW4CitySpecializationTypes@@@Z PROC ; CvCityStrategyAI::SetDefaultSpecialization, COMDAT
; _this$ = ecx

; 502  : {

	push	ebp
	mov	ebp, esp
	push	ecx
	mov	DWORD PTR _this$[ebp], ecx

; 503  : 	if(eDefaultSpecialization != m_eDefaultSpecialization)

	mov	eax, DWORD PTR _this$[ebp]
	mov	ecx, DWORD PTR _eDefaultSpecialization$[ebp]
	cmp	ecx, DWORD PTR [eax+24]
	je	SHORT $LN1@SetDefault

; 504  : 	{
; 505  : 		m_eDefaultSpecialization = eDefaultSpecialization;

	mov	edx, DWORD PTR _this$[ebp]
	mov	eax, DWORD PTR _eDefaultSpecialization$[ebp]
	mov	DWORD PTR [edx+24], eax

; 506  : 		return true;

	mov	al, 1
	jmp	SHORT $LN2@SetDefault
$LN1@SetDefault:

; 507  : 	}
; 508  : 
; 509  : 	return false;

	xor	al, al
$LN2@SetDefault:

; 510  : }

	mov	esp, ebp
	pop	ebp
	ret	4
?SetDefaultSpecialization@CvCityStrategyAI@@QAE_NW4CitySpecializationTypes@@@Z ENDP ; CvCityStrategyAI::SetDefaultSpecialization
_TEXT	ENDS
EXTRN	?GetFlavorValue@CvCitySpecializationXMLEntry@@QBEHH@Z:PROC ; CvCitySpecializationXMLEntry::GetFlavorValue
EXTRN	?getCitySpecializationInfo@CvGlobals@@QAEPAVCvCitySpecializationXMLEntry@@W4CitySpecializationTypes@@@Z:PROC ; CvGlobals::getCitySpecializationInfo
; Function compile flags: /Odtp
;	COMDAT ?SpecializationFlavorChange@CvCityStrategyAI@@QAEX_NW4CitySpecializationTypes@@@Z
_TEXT	SEGMENT
_this$ = -20						; size = 4
$T231299 = -16						; size = 4
$T231295 = -12						; size = 4
_iFlavorLoop$225520 = -8				; size = 4
_pSpecialization$225518 = -4				; size = 4
_bTurnOn$ = 8						; size = 1
_eSpecialization$ = 12					; size = 4
?SpecializationFlavorChange@CvCityStrategyAI@@QAEX_NW4CitySpecializationTypes@@@Z PROC ; CvCityStrategyAI::SpecializationFlavorChange, COMDAT
; _this$ = ecx

; 514  : {

	push	ebp
	mov	ebp, esp
	sub	esp, 20					; 00000014H
	push	esi
	mov	DWORD PTR _this$[ebp], ecx

; 515  : 	if(eSpecialization != NO_CITY_SPECIALIZATION)

	cmp	DWORD PTR _eSpecialization$[ebp], -1
	je	$LN11@Specializa

; 516  : 	{
; 517  : 		CvCitySpecializationXMLEntry* pSpecialization = GC.getCitySpecializationInfo(eSpecialization);

	mov	eax, DWORD PTR _eSpecialization$[ebp]
	push	eax
	mov	ecx, OFFSET ?gGlobals@@3VCvGlobals@@A	; gGlobals
	call	?getCitySpecializationInfo@CvGlobals@@QAEPAVCvCitySpecializationXMLEntry@@W4CitySpecializationTypes@@@Z ; CvGlobals::getCitySpecializationInfo
	mov	DWORD PTR _pSpecialization$225518[ebp], eax

; 518  : 		if(pSpecialization)

	cmp	DWORD PTR _pSpecialization$225518[ebp], 0
	je	$LN11@Specializa

; 519  : 		{
; 520  : 			int iFlavorLoop;
; 521  : 
; 522  : 			// Clear out Temp array
; 523  : 			for(iFlavorLoop = 0; iFlavorLoop < GC.getNumFlavorTypes(); iFlavorLoop++)

	mov	DWORD PTR _iFlavorLoop$225520[ebp], 0
	jmp	SHORT $LN8@Specializa
$LN7@Specializa:
	mov	ecx, DWORD PTR _iFlavorLoop$225520[ebp]
	add	ecx, 1
	mov	DWORD PTR _iFlavorLoop$225520[ebp], ecx
$LN8@Specializa:
	mov	edx, DWORD PTR ?gGlobals@@3VCvGlobals@@A+1764
	mov	DWORD PTR $T231295[ebp], edx
	mov	eax, DWORD PTR _iFlavorLoop$225520[ebp]
	cmp	eax, DWORD PTR $T231295[ebp]
	jge	SHORT $LN6@Specializa

; 524  : 			{
; 525  : 				m_aiTempFlavors[iFlavorLoop] = 0;

	mov	ecx, DWORD PTR _this$[ebp]
	mov	edx, DWORD PTR [ecx+36]
	mov	eax, DWORD PTR _iFlavorLoop$225520[ebp]
	mov	DWORD PTR [edx+eax*4], 0

; 526  : 			}

	jmp	SHORT $LN7@Specializa
$LN6@Specializa:

; 527  : 
; 528  : 			for(iFlavorLoop = 0; iFlavorLoop < GC.getNumFlavorTypes(); iFlavorLoop++)

	mov	DWORD PTR _iFlavorLoop$225520[ebp], 0
	jmp	SHORT $LN5@Specializa
$LN4@Specializa:
	mov	ecx, DWORD PTR _iFlavorLoop$225520[ebp]
	add	ecx, 1
	mov	DWORD PTR _iFlavorLoop$225520[ebp], ecx
$LN5@Specializa:
	mov	edx, DWORD PTR ?gGlobals@@3VCvGlobals@@A+1764
	mov	DWORD PTR $T231299[ebp], edx
	mov	eax, DWORD PTR _iFlavorLoop$225520[ebp]
	cmp	eax, DWORD PTR $T231299[ebp]
	jge	SHORT $LN3@Specializa

; 529  : 			{
; 530  : 				if(bTurnOn)

	movzx	ecx, BYTE PTR _bTurnOn$[ebp]
	test	ecx, ecx
	je	SHORT $LN2@Specializa

; 531  : 				{
; 532  : 					m_aiTempFlavors[iFlavorLoop] += pSpecialization->GetFlavorValue(iFlavorLoop);

	mov	edx, DWORD PTR _this$[ebp]
	mov	esi, DWORD PTR [edx+36]
	mov	eax, DWORD PTR _iFlavorLoop$225520[ebp]
	push	eax
	mov	ecx, DWORD PTR _pSpecialization$225518[ebp]
	call	?GetFlavorValue@CvCitySpecializationXMLEntry@@QBEHH@Z ; CvCitySpecializationXMLEntry::GetFlavorValue
	mov	ecx, DWORD PTR _iFlavorLoop$225520[ebp]
	add	eax, DWORD PTR [esi+ecx*4]
	mov	edx, DWORD PTR _this$[ebp]
	mov	ecx, DWORD PTR [edx+36]
	mov	edx, DWORD PTR _iFlavorLoop$225520[ebp]
	mov	DWORD PTR [ecx+edx*4], eax

; 533  : 				}
; 534  : 				else

	jmp	SHORT $LN1@Specializa
$LN2@Specializa:

; 535  : 				{
; 536  : 					m_aiTempFlavors[iFlavorLoop] -= pSpecialization->GetFlavorValue(iFlavorLoop);

	mov	eax, DWORD PTR _this$[ebp]
	mov	esi, DWORD PTR [eax+36]
	mov	ecx, DWORD PTR _iFlavorLoop$225520[ebp]
	push	ecx
	mov	ecx, DWORD PTR _pSpecialization$225518[ebp]
	call	?GetFlavorValue@CvCitySpecializationXMLEntry@@QBEHH@Z ; CvCitySpecializationXMLEntry::GetFlavorValue
	mov	edx, DWORD PTR _iFlavorLoop$225520[ebp]
	mov	ecx, DWORD PTR [esi+edx*4]
	sub	ecx, eax
	mov	edx, DWORD PTR _this$[ebp]
	mov	eax, DWORD PTR [edx+36]
	mov	edx, DWORD PTR _iFlavorLoop$225520[ebp]
	mov	DWORD PTR [eax+edx*4], ecx
$LN1@Specializa:

; 537  : 				}
; 538  : 			}

	jmp	SHORT $LN4@Specializa
$LN3@Specializa:

; 539  : 
; 540  : 			ChangeFlavors(m_aiTempFlavors, true);

	push	1
	mov	eax, DWORD PTR _this$[ebp]
	mov	ecx, DWORD PTR [eax+36]
	push	ecx
	mov	ecx, DWORD PTR _this$[ebp]
	call	?ChangeFlavors@CvFlavorRecipient@@QAEXPAH_N@Z ; CvFlavorRecipient::ChangeFlavors

; 541  : 
; 542  : 			LogFlavors();

	push	-1
	mov	edx, DWORD PTR _this$[ebp]
	mov	eax, DWORD PTR [edx]
	mov	ecx, DWORD PTR _this$[ebp]
	mov	edx, DWORD PTR [eax+12]
	call	edx
$LN11@Specializa:

; 543  : 		}
; 544  : 	}
; 545  : }

	pop	esi
	mov	esp, ebp
	pop	ebp
	ret	8
?SpecializationFlavorChange@CvCityStrategyAI@@QAEX_NW4CitySpecializationTypes@@@Z ENDP ; CvCityStrategyAI::SpecializationFlavorChange
_TEXT	ENDS
PUBLIC	?GetCity@CvCityStrategyAI@@QAEPAVCvCity@@XZ	; CvCityStrategyAI::GetCity
; Function compile flags: /Odtp
;	COMDAT ?GetCity@CvCityStrategyAI@@QAEPAVCvCity@@XZ
_TEXT	SEGMENT
_this$ = -4						; size = 4
?GetCity@CvCityStrategyAI@@QAEPAVCvCity@@XZ PROC	; CvCityStrategyAI::GetCity, COMDAT
; _this$ = ecx

; 551  : {

	push	ebp
	mov	ebp, esp
	push	ecx
	mov	DWORD PTR _this$[ebp], ecx

; 552  : 	return m_pCity;

	mov	eax, DWORD PTR _this$[ebp]
	mov	eax, DWORD PTR [eax+12]

; 553  : }

	mov	esp, ebp
	pop	ebp
	ret	0
?GetCity@CvCityStrategyAI@@QAEPAVCvCity@@XZ ENDP	; CvCityStrategyAI::GetCity
_TEXT	ENDS
PUBLIC	?GetAICityStrategies@CvCityStrategyAI@@QAEPAVCvAICityStrategies@@XZ ; CvCityStrategyAI::GetAICityStrategies
; Function compile flags: /Odtp
;	COMDAT ?GetAICityStrategies@CvCityStrategyAI@@QAEPAVCvAICityStrategies@@XZ
_TEXT	SEGMENT
_this$ = -4						; size = 4
?GetAICityStrategies@CvCityStrategyAI@@QAEPAVCvAICityStrategies@@XZ PROC ; CvCityStrategyAI::GetAICityStrategies, COMDAT
; _this$ = ecx

; 557  : {

	push	ebp
	mov	ebp, esp
	push	ecx
	mov	DWORD PTR _this$[ebp], ecx

; 558  : 	return m_pAICityStrategies;

	mov	eax, DWORD PTR _this$[ebp]
	mov	eax, DWORD PTR [eax+16]

; 559  : }

	mov	esp, ebp
	pop	ebp
	ret	0
?GetAICityStrategies@CvCityStrategyAI@@QAEPAVCvAICityStrategies@@XZ ENDP ; CvCityStrategyAI::GetAICityStrategies
_TEXT	ENDS
PUBLIC	?IsUsingCityStrategy@CvCityStrategyAI@@QAE_NW4AICityStrategyTypes@@@Z ; CvCityStrategyAI::IsUsingCityStrategy
; Function compile flags: /Odtp
;	COMDAT ?IsUsingCityStrategy@CvCityStrategyAI@@QAE_NW4AICityStrategyTypes@@@Z
_TEXT	SEGMENT
_this$ = -4						; size = 4
_eStrategy$ = 8						; size = 4
?IsUsingCityStrategy@CvCityStrategyAI@@QAE_NW4AICityStrategyTypes@@@Z PROC ; CvCityStrategyAI::IsUsingCityStrategy, COMDAT
; _this$ = ecx

; 563  : {

	push	ebp
	mov	ebp, esp
	push	ecx
	mov	DWORD PTR _this$[ebp], ecx

; 564  : 	return m_pabUsingCityStrategy[(int) eStrategy];

	mov	eax, DWORD PTR _this$[ebp]
	mov	ecx, DWORD PTR [eax+28]
	mov	edx, DWORD PTR _eStrategy$[ebp]
	mov	al, BYTE PTR [ecx+edx]

; 565  : }

	mov	esp, ebp
	pop	ebp
	ret	4
?IsUsingCityStrategy@CvCityStrategyAI@@QAE_NW4AICityStrategyTypes@@@Z ENDP ; CvCityStrategyAI::IsUsingCityStrategy
_TEXT	ENDS
PUBLIC	?LogStrategy@CvCityStrategyAI@@AAEXW4AICityStrategyTypes@@_N@Z ; CvCityStrategyAI::LogStrategy
PUBLIC	?SetTurnCityStrategyAdopted@CvCityStrategyAI@@QAEXW4AICityStrategyTypes@@H@Z ; CvCityStrategyAI::SetTurnCityStrategyAdopted
PUBLIC	?SetUsingCityStrategy@CvCityStrategyAI@@QAEXW4AICityStrategyTypes@@_N@Z ; CvCityStrategyAI::SetUsingCityStrategy
EXTRN	?getGameTurn@CvGame@@QAEHXZ:PROC		; CvGame::getGameTurn
; Function compile flags: /Odtp
;	COMDAT ?SetUsingCityStrategy@CvCityStrategyAI@@QAEXW4AICityStrategyTypes@@_N@Z
_TEXT	SEGMENT
_this$ = -8						; size = 4
$T231311 = -4						; size = 4
_eStrategy$ = 8						; size = 4
_bValue$ = 12						; size = 1
?SetUsingCityStrategy@CvCityStrategyAI@@QAEXW4AICityStrategyTypes@@_N@Z PROC ; CvCityStrategyAI::SetUsingCityStrategy, COMDAT
; _this$ = ecx

; 569  : {

	push	ebp
	mov	ebp, esp
	sub	esp, 8
	mov	DWORD PTR _this$[ebp], ecx

; 570  : 	if(m_pabUsingCityStrategy[eStrategy] != bValue)

	mov	eax, DWORD PTR _this$[ebp]
	mov	ecx, DWORD PTR [eax+28]
	mov	edx, DWORD PTR _eStrategy$[ebp]
	movzx	eax, BYTE PTR [ecx+edx]
	movzx	ecx, BYTE PTR _bValue$[ebp]
	cmp	eax, ecx
	je	SHORT $LN4@SetUsingCi

; 571  : 	{
; 572  : 		m_pabUsingCityStrategy[eStrategy] = bValue;

	mov	edx, DWORD PTR _this$[ebp]
	mov	eax, DWORD PTR [edx+28]
	mov	ecx, DWORD PTR _eStrategy$[ebp]
	mov	dl, BYTE PTR _bValue$[ebp]
	mov	BYTE PTR [eax+ecx], dl

; 573  : 
; 574  : 		if(bValue)

	movzx	eax, BYTE PTR _bValue$[ebp]
	test	eax, eax
	je	SHORT $LN2@SetUsingCi

; 575  : 		{
; 576  : 			SetTurnCityStrategyAdopted(eStrategy, GC.getGame().getGameTurn());

	mov	ecx, DWORD PTR ?gGlobals@@3VCvGlobals@@A+48
	mov	DWORD PTR $T231311[ebp], ecx
	mov	ecx, DWORD PTR $T231311[ebp]
	call	?getGameTurn@CvGame@@QAEHXZ		; CvGame::getGameTurn
	push	eax
	mov	edx, DWORD PTR _eStrategy$[ebp]
	push	edx
	mov	ecx, DWORD PTR _this$[ebp]
	call	?SetTurnCityStrategyAdopted@CvCityStrategyAI@@QAEXW4AICityStrategyTypes@@H@Z ; CvCityStrategyAI::SetTurnCityStrategyAdopted

; 577  : 		}
; 578  : 		else

	jmp	SHORT $LN1@SetUsingCi
$LN2@SetUsingCi:

; 579  : 		{
; 580  : 			SetTurnCityStrategyAdopted(eStrategy, -1);

	push	-1
	mov	eax, DWORD PTR _eStrategy$[ebp]
	push	eax
	mov	ecx, DWORD PTR _this$[ebp]
	call	?SetTurnCityStrategyAdopted@CvCityStrategyAI@@QAEXW4AICityStrategyTypes@@H@Z ; CvCityStrategyAI::SetTurnCityStrategyAdopted
$LN1@SetUsingCi:

; 581  : 		}
; 582  : 
; 583  : 		LogStrategy(eStrategy, bValue);

	movzx	ecx, BYTE PTR _bValue$[ebp]
	push	ecx
	mov	edx, DWORD PTR _eStrategy$[ebp]
	push	edx
	mov	ecx, DWORD PTR _this$[ebp]
	call	?LogStrategy@CvCityStrategyAI@@AAEXW4AICityStrategyTypes@@_N@Z ; CvCityStrategyAI::LogStrategy
$LN4@SetUsingCi:

; 584  : 	}
; 585  : }

	mov	esp, ebp
	pop	ebp
	ret	8
?SetUsingCityStrategy@CvCityStrategyAI@@QAEXW4AICityStrategyTypes@@_N@Z ENDP ; CvCityStrategyAI::SetUsingCityStrategy
_TEXT	ENDS
PUBLIC	?GetTurnCityStrategyAdopted@CvCityStrategyAI@@QAEHW4AICityStrategyTypes@@@Z ; CvCityStrategyAI::GetTurnCityStrategyAdopted
; Function compile flags: /Odtp
;	COMDAT ?GetTurnCityStrategyAdopted@CvCityStrategyAI@@QAEHW4AICityStrategyTypes@@@Z
_TEXT	SEGMENT
_this$ = -4						; size = 4
_eStrategy$ = 8						; size = 4
?GetTurnCityStrategyAdopted@CvCityStrategyAI@@QAEHW4AICityStrategyTypes@@@Z PROC ; CvCityStrategyAI::GetTurnCityStrategyAdopted, COMDAT
; _this$ = ecx

; 589  : {

	push	ebp
	mov	ebp, esp
	push	ecx
	mov	DWORD PTR _this$[ebp], ecx

; 590  : 	return m_paiTurnCityStrategyAdopted[(int) eStrategy];

	mov	eax, DWORD PTR _this$[ebp]
	mov	ecx, DWORD PTR [eax+32]
	mov	edx, DWORD PTR _eStrategy$[ebp]
	mov	eax, DWORD PTR [ecx+edx*4]

; 591  : }

	mov	esp, ebp
	pop	ebp
	ret	4
?GetTurnCityStrategyAdopted@CvCityStrategyAI@@QAEHW4AICityStrategyTypes@@@Z ENDP ; CvCityStrategyAI::GetTurnCityStrategyAdopted
; Function compile flags: /Odtp
_TEXT	ENDS
;	COMDAT ?SetTurnCityStrategyAdopted@CvCityStrategyAI@@QAEXW4AICityStrategyTypes@@H@Z
_TEXT	SEGMENT
_this$ = -4						; size = 4
_eStrategy$ = 8						; size = 4
_iValue$ = 12						; size = 4
?SetTurnCityStrategyAdopted@CvCityStrategyAI@@QAEXW4AICityStrategyTypes@@H@Z PROC ; CvCityStrategyAI::SetTurnCityStrategyAdopted, COMDAT
; _this$ = ecx

; 595  : {

	push	ebp
	mov	ebp, esp
	push	ecx
	mov	DWORD PTR _this$[ebp], ecx

; 596  : 	if(m_paiTurnCityStrategyAdopted[(int) eStrategy] != iValue)

	mov	eax, DWORD PTR _this$[ebp]
	mov	ecx, DWORD PTR [eax+32]
	mov	edx, DWORD PTR _eStrategy$[ebp]
	mov	eax, DWORD PTR [ecx+edx*4]
	cmp	eax, DWORD PTR _iValue$[ebp]
	je	SHORT $LN2@SetTurnCit

; 597  : 	{
; 598  : 		m_paiTurnCityStrategyAdopted[(int) eStrategy] = iValue;

	mov	ecx, DWORD PTR _this$[ebp]
	mov	edx, DWORD PTR [ecx+32]
	mov	eax, DWORD PTR _eStrategy$[ebp]
	mov	ecx, DWORD PTR _iValue$[ebp]
	mov	DWORD PTR [edx+eax*4], ecx
$LN2@SetTurnCit:

; 599  : 	}
; 600  : }

	mov	esp, ebp
	pop	ebp
	ret	8
?SetTurnCityStrategyAdopted@CvCityStrategyAI@@QAEXW4AICityStrategyTypes@@H@Z ENDP ; CvCityStrategyAI::SetTurnCityStrategyAdopted
_TEXT	ENDS
PUBLIC	?GetBuildingProductionAI@CvCityStrategyAI@@QAEPAVCvBuildingProductionAI@@XZ ; CvCityStrategyAI::GetBuildingProductionAI
; Function compile flags: /Odtp
;	COMDAT ?GetBuildingProductionAI@CvCityStrategyAI@@QAEPAVCvBuildingProductionAI@@XZ
_TEXT	SEGMENT
_this$ = -4						; size = 4
?GetBuildingProductionAI@CvCityStrategyAI@@QAEPAVCvBuildingProductionAI@@XZ PROC ; CvCityStrategyAI::GetBuildingProductionAI, COMDAT
; _this$ = ecx

; 604  : {

	push	ebp
	mov	ebp, esp
	push	ecx
	mov	DWORD PTR _this$[ebp], ecx

; 605  : 	return m_pBuildingProductionAI;

	mov	eax, DWORD PTR _this$[ebp]
	mov	eax, DWORD PTR [eax+40]

; 606  : }

	mov	esp, ebp
	pop	ebp
	ret	0
?GetBuildingProductionAI@CvCityStrategyAI@@QAEPAVCvBuildingProductionAI@@XZ ENDP ; CvCityStrategyAI::GetBuildingProductionAI
_TEXT	ENDS
PUBLIC	?GetUnitProductionAI@CvCityStrategyAI@@QAEPAVCvUnitProductionAI@@XZ ; CvCityStrategyAI::GetUnitProductionAI
; Function compile flags: /Odtp
;	COMDAT ?GetUnitProductionAI@CvCityStrategyAI@@QAEPAVCvUnitProductionAI@@XZ
_TEXT	SEGMENT
_this$ = -4						; size = 4
?GetUnitProductionAI@CvCityStrategyAI@@QAEPAVCvUnitProductionAI@@XZ PROC ; CvCityStrategyAI::GetUnitProductionAI, COMDAT
; _this$ = ecx

; 610  : {

	push	ebp
	mov	ebp, esp
	push	ecx
	mov	DWORD PTR _this$[ebp], ecx

; 611  : 	return m_pUnitProductionAI;

	mov	eax, DWORD PTR _this$[ebp]
	mov	eax, DWORD PTR [eax+44]

; 612  : }

	mov	esp, ebp
	pop	ebp
	ret	0
?GetUnitProductionAI@CvCityStrategyAI@@QAEPAVCvUnitProductionAI@@XZ ENDP ; CvCityStrategyAI::GetUnitProductionAI
_TEXT	ENDS
PUBLIC	?GetProjectProductionAI@CvCityStrategyAI@@QAEPAVCvProjectProductionAI@@XZ ; CvCityStrategyAI::GetProjectProductionAI
; Function compile flags: /Odtp
;	COMDAT ?GetProjectProductionAI@CvCityStrategyAI@@QAEPAVCvProjectProductionAI@@XZ
_TEXT	SEGMENT
_this$ = -4						; size = 4
?GetProjectProductionAI@CvCityStrategyAI@@QAEPAVCvProjectProductionAI@@XZ PROC ; CvCityStrategyAI::GetProjectProductionAI, COMDAT
; _this$ = ecx

; 616  : {

	push	ebp
	mov	ebp, esp
	push	ecx
	mov	DWORD PTR _this$[ebp], ecx

; 617  : 	return m_pProjectProductionAI;

	mov	eax, DWORD PTR _this$[ebp]
	mov	eax, DWORD PTR [eax+48]

; 618  : }

	mov	esp, ebp
	pop	ebp
	ret	0
?GetProjectProductionAI@CvCityStrategyAI@@QAEPAVCvProjectProductionAI@@XZ ENDP ; CvCityStrategyAI::GetProjectProductionAI
_TEXT	ENDS
PUBLIC	?GetProcessProductionAI@CvCityStrategyAI@@QAEPAVCvProcessProductionAI@@XZ ; CvCityStrategyAI::GetProcessProductionAI
; Function compile flags: /Odtp
;	COMDAT ?GetProcessProductionAI@CvCityStrategyAI@@QAEPAVCvProcessProductionAI@@XZ
_TEXT	SEGMENT
_this$ = -4						; size = 4
?GetProcessProductionAI@CvCityStrategyAI@@QAEPAVCvProcessProductionAI@@XZ PROC ; CvCityStrategyAI::GetProcessProductionAI, COMDAT
; _this$ = ecx

; 621  : {

	push	ebp
	mov	ebp, esp
	push	ecx
	mov	DWORD PTR _this$[ebp], ecx

; 622  : 	return m_pProcessProductionAI;

	mov	eax, DWORD PTR _this$[ebp]
	mov	eax, DWORD PTR [eax+52]

; 623  : }

	mov	esp, ebp
	pop	ebp
	ret	0
?GetProcessProductionAI@CvCityStrategyAI@@QAEPAVCvProcessProductionAI@@XZ ENDP ; CvCityStrategyAI::GetProcessProductionAI
_TEXT	ENDS
PUBLIC	??_C@_0BG@MECKMOJJ@CityStrategyAILog?4csv?$AA@	; `string'
PUBLIC	??_C@_04EBGNMJBD@?4csv?$AA@			; `string'
PUBLIC	??_C@_01IDAFKMJL@_?$AA@				; `string'
PUBLIC	??_C@_0BD@HCEGOALD@CityStrategyAILog_?$AA@	; `string'
PUBLIC	__$ArrayPad$
PUBLIC	?GetLogFileName@CvCityStrategyAI@@QBE?AVCvString@@AAV2@0@Z ; CvCityStrategyAI::GetLogFileName
EXTRN	__imp_??0?$basic_string@DU?$char_traits@D@std@@V?$allocator@D@2@@std@@QAE@ABV01@@Z:PROC
EXTRN	__imp_??$?HDU?$char_traits@D@std@@V?$allocator@D@1@@std@@YA?AV?$basic_string@DU?$char_traits@D@std@@V?$allocator@D@2@@0@ABV10@0@Z:PROC
EXTRN	__imp_??$?HDU?$char_traits@D@std@@V?$allocator@D@1@@std@@YA?AV?$basic_string@DU?$char_traits@D@std@@V?$allocator@D@2@@0@ABV10@PBD@Z:PROC
EXTRN	__imp_??$?HDU?$char_traits@D@std@@V?$allocator@D@1@@std@@YA?AV?$basic_string@DU?$char_traits@D@std@@V?$allocator@D@2@@0@PBDABV10@@Z:PROC
EXTRN	?getPlayerAndCityAILogSplit@CvGlobals@@QAE_NXZ:PROC ; CvGlobals::getPlayerAndCityAILogSplit
;	COMDAT ??_C@_0BG@MECKMOJJ@CityStrategyAILog?4csv?$AA@
; File d:\sources\lekmod_git\checkout\lekmod_dll\cvgamecoredllutil\include\cvstring.h
CONST	SEGMENT
??_C@_0BG@MECKMOJJ@CityStrategyAILog?4csv?$AA@ DB 'CityStrategyAILog.csv', 00H ; `string'
CONST	ENDS
;	COMDAT ??_C@_04EBGNMJBD@?4csv?$AA@
CONST	SEGMENT
??_C@_04EBGNMJBD@?4csv?$AA@ DB '.csv', 00H		; `string'
CONST	ENDS
;	COMDAT ??_C@_01IDAFKMJL@_?$AA@
CONST	SEGMENT
??_C@_01IDAFKMJL@_?$AA@ DB '_', 00H			; `string'
CONST	ENDS
;	COMDAT ??_C@_0BD@HCEGOALD@CityStrategyAILog_?$AA@
CONST	SEGMENT
??_C@_0BD@HCEGOALD@CityStrategyAILog_?$AA@ DB 'CityStrategyAILog_', 00H ; `string'
CONST	ENDS
;	COMDAT xdata$x
xdata$x	SEGMENT
__ehfuncinfo$?GetLogFileName@CvCityStrategyAI@@QBE?AVCvString@@AAV2@0@Z DD 019930522H
	DD	06H
	DD	FLAT:__unwindtable$?GetLogFileName@CvCityStrategyAI@@QBE?AVCvString@@AAV2@0@Z
	DD	2 DUP(00H)
	DD	2 DUP(00H)
	DD	00H
	DD	01H
__unwindtable$?GetLogFileName@CvCityStrategyAI@@QBE?AVCvString@@AAV2@0@Z DD 0ffffffffH
	DD	FLAT:__unwindfunclet$?GetLogFileName@CvCityStrategyAI@@QBE?AVCvString@@AAV2@0@Z$5
	DD	00H
	DD	FLAT:__unwindfunclet$?GetLogFileName@CvCityStrategyAI@@QBE?AVCvString@@AAV2@0@Z$0
	DD	01H
	DD	FLAT:__unwindfunclet$?GetLogFileName@CvCityStrategyAI@@QBE?AVCvString@@AAV2@0@Z$1
	DD	02H
	DD	FLAT:__unwindfunclet$?GetLogFileName@CvCityStrategyAI@@QBE?AVCvString@@AAV2@0@Z$2
	DD	03H
	DD	FLAT:__unwindfunclet$?GetLogFileName@CvCityStrategyAI@@QBE?AVCvString@@AAV2@0@Z$3
	DD	04H
	DD	FLAT:__unwindfunclet$?GetLogFileName@CvCityStrategyAI@@QBE?AVCvString@@AAV2@0@Z$4
; Function compile flags: /Odtp
; File d:\sources\lekmod_git\checkout\lekmod_dll\cvgamecoredll_expansion2\cvcitystrategyai.cpp
xdata$x	ENDS
;	COMDAT ?GetLogFileName@CvCityStrategyAI@@QBE?AVCvString@@AAV2@0@Z
_TEXT	SEGMENT
tv205 = -196						; size = 4
tv149 = -192						; size = 4
tv156 = -188						; size = 4
tv147 = -184						; size = 4
tv162 = -180						; size = 4
tv145 = -176						; size = 4
tv189 = -172						; size = 4
_this$ = -168						; size = 4
$T231346 = -164						; size = 4
$T231337 = -160						; size = 4
$T231330 = -156						; size = 28
$T231329 = -128						; size = 28
$T231328 = -100						; size = 28
$T231327 = -72						; size = 28
_strLogName$ = -44					; size = 28
__$ArrayPad$ = -16					; size = 4
__$EHRec$ = -12						; size = 12
___$ReturnUdt$ = 8					; size = 4
_playerName$ = 12					; size = 4
_cityName$ = 16						; size = 4
?GetLogFileName@CvCityStrategyAI@@QBE?AVCvString@@AAV2@0@Z PROC ; CvCityStrategyAI::GetLogFileName, COMDAT
; _this$ = ecx

; 627  : {

	push	ebp
	mov	ebp, esp
	push	-1
	push	__ehhandler$?GetLogFileName@CvCityStrategyAI@@QBE?AVCvString@@AAV2@0@Z
	mov	eax, DWORD PTR fs:0
	push	eax
	sub	esp, 184				; 000000b8H
	mov	eax, DWORD PTR ___security_cookie
	xor	eax, ebp
	mov	DWORD PTR __$ArrayPad$[ebp], eax
	push	eax
	lea	eax, DWORD PTR __$EHRec$[ebp]
	mov	DWORD PTR fs:0, eax
	mov	DWORD PTR _this$[ebp], ecx
	mov	DWORD PTR $T231337[ebp], 0

; 628  : 	CvString strLogName;

	lea	ecx, DWORD PTR _strLogName$[ebp]
	call	DWORD PTR __imp_??0?$basic_string@DU?$char_traits@D@std@@V?$allocator@D@2@@std@@QAE@XZ
	mov	DWORD PTR __$EHRec$[ebp+8], 1

; 629  : 
; 630  : 	// Open the log file
; 631  : 	if(GC.getPlayerAndCityAILogSplit())

	mov	ecx, OFFSET ?gGlobals@@3VCvGlobals@@A	; gGlobals
	call	?getPlayerAndCityAILogSplit@CvGlobals@@QAE_NXZ ; CvGlobals::getPlayerAndCityAILogSplit
	movzx	eax, al
	test	eax, eax
	je	$LN2@GetLogFile

; 632  : 	{
; 633  : 		strLogName = "CityStrategyAILog_" + playerName + "_" + cityName + ".csv";

	mov	ecx, DWORD PTR _playerName$[ebp]
	push	ecx
	push	OFFSET ??_C@_0BD@HCEGOALD@CityStrategyAILog_?$AA@
	lea	edx, DWORD PTR $T231327[ebp]
	push	edx
	call	DWORD PTR __imp_??$?HDU?$char_traits@D@std@@V?$allocator@D@1@@std@@YA?AV?$basic_string@DU?$char_traits@D@std@@V?$allocator@D@2@@0@PBDABV10@@Z
	add	esp, 12					; 0000000cH
	mov	DWORD PTR tv189[ebp], eax
	mov	eax, DWORD PTR tv189[ebp]
	mov	DWORD PTR tv145[ebp], eax
	mov	BYTE PTR __$EHRec$[ebp+8], 2
	push	OFFSET ??_C@_01IDAFKMJL@_?$AA@
	mov	ecx, DWORD PTR tv145[ebp]
	push	ecx
	lea	edx, DWORD PTR $T231328[ebp]
	push	edx
	call	DWORD PTR __imp_??$?HDU?$char_traits@D@std@@V?$allocator@D@1@@std@@YA?AV?$basic_string@DU?$char_traits@D@std@@V?$allocator@D@2@@0@ABV10@PBD@Z
	add	esp, 12					; 0000000cH
	mov	DWORD PTR tv162[ebp], eax
	mov	eax, DWORD PTR tv162[ebp]
	mov	DWORD PTR tv147[ebp], eax
	mov	BYTE PTR __$EHRec$[ebp+8], 3
	mov	ecx, DWORD PTR _cityName$[ebp]
	push	ecx
	mov	edx, DWORD PTR tv147[ebp]
	push	edx
	lea	eax, DWORD PTR $T231329[ebp]
	push	eax
	call	DWORD PTR __imp_??$?HDU?$char_traits@D@std@@V?$allocator@D@1@@std@@YA?AV?$basic_string@DU?$char_traits@D@std@@V?$allocator@D@2@@0@ABV10@0@Z
	add	esp, 12					; 0000000cH
	mov	DWORD PTR tv156[ebp], eax
	mov	ecx, DWORD PTR tv156[ebp]
	mov	DWORD PTR tv149[ebp], ecx
	mov	BYTE PTR __$EHRec$[ebp+8], 4
	push	OFFSET ??_C@_04EBGNMJBD@?4csv?$AA@
	mov	edx, DWORD PTR tv149[ebp]
	push	edx
	lea	eax, DWORD PTR $T231330[ebp]
	push	eax
	call	DWORD PTR __imp_??$?HDU?$char_traits@D@std@@V?$allocator@D@1@@std@@YA?AV?$basic_string@DU?$char_traits@D@std@@V?$allocator@D@2@@0@ABV10@PBD@Z
	add	esp, 12					; 0000000cH
	mov	DWORD PTR tv205[ebp], eax
	mov	ecx, DWORD PTR tv205[ebp]
	mov	DWORD PTR $T231346[ebp], ecx
	mov	BYTE PTR __$EHRec$[ebp+8], 5
	mov	ecx, DWORD PTR $T231346[ebp]
	call	DWORD PTR __imp_?c_str@?$basic_string@DU?$char_traits@D@std@@V?$allocator@D@2@@std@@QBEPBDXZ
	push	eax
	lea	ecx, DWORD PTR _strLogName$[ebp]
	call	DWORD PTR __imp_?assign@?$basic_string@DU?$char_traits@D@std@@V?$allocator@D@2@@std@@QAEAAV12@PBD@Z
	mov	BYTE PTR __$EHRec$[ebp+8], 4
	lea	ecx, DWORD PTR $T231330[ebp]
	call	DWORD PTR __imp_??1?$basic_string@DU?$char_traits@D@std@@V?$allocator@D@2@@std@@QAE@XZ
	mov	BYTE PTR __$EHRec$[ebp+8], 3
	lea	ecx, DWORD PTR $T231329[ebp]
	call	DWORD PTR __imp_??1?$basic_string@DU?$char_traits@D@std@@V?$allocator@D@2@@std@@QAE@XZ
	mov	BYTE PTR __$EHRec$[ebp+8], 2
	lea	ecx, DWORD PTR $T231328[ebp]
	call	DWORD PTR __imp_??1?$basic_string@DU?$char_traits@D@std@@V?$allocator@D@2@@std@@QAE@XZ
	mov	BYTE PTR __$EHRec$[ebp+8], 1
	lea	ecx, DWORD PTR $T231327[ebp]
	call	DWORD PTR __imp_??1?$basic_string@DU?$char_traits@D@std@@V?$allocator@D@2@@std@@QAE@XZ

; 634  : 	}
; 635  : 	else

	jmp	SHORT $LN1@GetLogFile
$LN2@GetLogFile:

; 636  : 	{
; 637  : 		strLogName = "CityStrategyAILog.csv";

	mov	edx, OFFSET ??_C@_0BG@MECKMOJJ@CityStrategyAILog?4csv?$AA@
	test	edx, edx
	je	SHORT $LN18@GetLogFile
	push	OFFSET ??_C@_0BG@MECKMOJJ@CityStrategyAILog?4csv?$AA@
	lea	ecx, DWORD PTR _strLogName$[ebp]
	call	DWORD PTR __imp_?assign@?$basic_string@DU?$char_traits@D@std@@V?$allocator@D@2@@std@@QAEAAV12@PBD@Z
	jmp	SHORT $LN1@GetLogFile
$LN18@GetLogFile:
	lea	ecx, DWORD PTR _strLogName$[ebp]
	call	DWORD PTR __imp_?clear@?$basic_string@DU?$char_traits@D@std@@V?$allocator@D@2@@std@@QAEXXZ
$LN1@GetLogFile:

; 638  : 	}
; 639  : 
; 640  : 	return strLogName;

	lea	eax, DWORD PTR _strLogName$[ebp]
	push	eax
	mov	ecx, DWORD PTR ___$ReturnUdt$[ebp]
	call	DWORD PTR __imp_??0?$basic_string@DU?$char_traits@D@std@@V?$allocator@D@2@@std@@QAE@ABV01@@Z
	mov	ecx, DWORD PTR $T231337[ebp]
	or	ecx, 1
	mov	DWORD PTR $T231337[ebp], ecx
	mov	BYTE PTR __$EHRec$[ebp+8], 0
	lea	ecx, DWORD PTR _strLogName$[ebp]
	call	DWORD PTR __imp_??1?$basic_string@DU?$char_traits@D@std@@V?$allocator@D@2@@std@@QAE@XZ
	mov	eax, DWORD PTR ___$ReturnUdt$[ebp]

; 641  : }

	mov	ecx, DWORD PTR __$EHRec$[ebp]
	mov	DWORD PTR fs:0, ecx
	pop	ecx
	mov	ecx, DWORD PTR __$ArrayPad$[ebp]
	xor	ecx, ebp
	call	@__security_check_cookie@4
	mov	esp, ebp
	pop	ebp
	ret	12					; 0000000cH
_TEXT	ENDS
;	COMDAT text$x
text$x	SEGMENT
__unwindfunclet$?GetLogFileName@CvCityStrategyAI@@QBE?AVCvString@@AAV2@0@Z$0:
	lea	ecx, DWORD PTR _strLogName$[ebp]
	jmp	??1CvString@@QAE@XZ			; CvString::~CvString
__unwindfunclet$?GetLogFileName@CvCityStrategyAI@@QBE?AVCvString@@AAV2@0@Z$1:
	lea	ecx, DWORD PTR $T231327[ebp]
	jmp	DWORD PTR __imp_??1?$basic_string@DU?$char_traits@D@std@@V?$allocator@D@2@@std@@QAE@XZ
__unwindfunclet$?GetLogFileName@CvCityStrategyAI@@QBE?AVCvString@@AAV2@0@Z$2:
	lea	ecx, DWORD PTR $T231328[ebp]
	jmp	DWORD PTR __imp_??1?$basic_string@DU?$char_traits@D@std@@V?$allocator@D@2@@std@@QAE@XZ
__unwindfunclet$?GetLogFileName@CvCityStrategyAI@@QBE?AVCvString@@AAV2@0@Z$3:
	lea	ecx, DWORD PTR $T231329[ebp]
	jmp	DWORD PTR __imp_??1?$basic_string@DU?$char_traits@D@std@@V?$allocator@D@2@@std@@QAE@XZ
__unwindfunclet$?GetLogFileName@CvCityStrategyAI@@QBE?AVCvString@@AAV2@0@Z$4:
	lea	ecx, DWORD PTR $T231330[ebp]
	jmp	DWORD PTR __imp_??1?$basic_string@DU?$char_traits@D@std@@V?$allocator@D@2@@std@@QAE@XZ
__unwindfunclet$?GetLogFileName@CvCityStrategyAI@@QBE?AVCvString@@AAV2@0@Z$5:
	mov	eax, DWORD PTR $T231337[ebp]
	and	eax, 1
	je	$LN11@GetLogFile
	and	DWORD PTR $T231337[ebp], -2		; fffffffeH
	mov	ecx, DWORD PTR ___$ReturnUdt$[ebp]
	jmp	??1CvString@@QAE@XZ			; CvString::~CvString
$LN11@GetLogFile:
	ret	0
__ehhandler$?GetLogFileName@CvCityStrategyAI@@QBE?AVCvString@@AAV2@0@Z:
	mov	edx, DWORD PTR [esp+8]
	lea	eax, DWORD PTR [edx+12]
	mov	ecx, DWORD PTR [edx-188]
	xor	ecx, eax
	call	@__security_check_cookie@4
	mov	ecx, DWORD PTR [edx-4]
	xor	ecx, eax
	call	@__security_check_cookie@4
	mov	eax, OFFSET __ehfuncinfo$?GetLogFileName@CvCityStrategyAI@@QBE?AVCvString@@AAV2@0@Z
	jmp	___CxxFrameHandler3
text$x	ENDS
?GetLogFileName@CvCityStrategyAI@@QBE?AVCvString@@AAV2@0@Z ENDP ; CvCityStrategyAI::GetLogFileName
PUBLIC	__real@4059000000000000
PUBLIC	?GetYieldAverage@CvCityStrategyAI@@QAENW4YieldTypes@@@Z ; CvCityStrategyAI::GetYieldAverage
PUBLIC	?GetDeficientYieldValue@CvCityStrategyAI@@QAENW4YieldTypes@@@Z ; CvCityStrategyAI::GetDeficientYieldValue
PUBLIC	?IsYieldDeficient@CvCityStrategyAI@@QAE_NW4YieldTypes@@@Z ; CvCityStrategyAI::IsYieldDeficient
EXTRN	__fltused:DWORD
EXTRN	__ftol2_sse:PROC
;	COMDAT __real@4059000000000000
CONST	SEGMENT
__real@4059000000000000 DQ 04059000000000000r	; 100
; Function compile flags: /Odtp
CONST	ENDS
;	COMDAT ?IsYieldDeficient@CvCityStrategyAI@@QAE_NW4YieldTypes@@@Z
_TEXT	SEGMENT
_this$ = -28						; size = 4
_fDesiredYield$ = -24					; size = 8
_iYieldAverage$ = -16					; size = 4
_iDesiredYield$ = -12					; size = 4
_fYieldAverage$ = -8					; size = 8
_eYieldType$ = 8					; size = 4
?IsYieldDeficient@CvCityStrategyAI@@QAE_NW4YieldTypes@@@Z PROC ; CvCityStrategyAI::IsYieldDeficient, COMDAT
; _this$ = ecx

; 651  : {

	push	ebp
	mov	ebp, esp
	sub	esp, 28					; 0000001cH
	mov	DWORD PTR _this$[ebp], ecx

; 652  : 	double fDesiredYield = GetDeficientYieldValue(eYieldType);

	mov	eax, DWORD PTR _eYieldType$[ebp]
	push	eax
	mov	ecx, DWORD PTR _this$[ebp]
	call	?GetDeficientYieldValue@CvCityStrategyAI@@QAENW4YieldTypes@@@Z ; CvCityStrategyAI::GetDeficientYieldValue
	fstp	QWORD PTR _fDesiredYield$[ebp]

; 653  : 	double fYieldAverage = GetYieldAverage(eYieldType);

	mov	ecx, DWORD PTR _eYieldType$[ebp]
	push	ecx
	mov	ecx, DWORD PTR _this$[ebp]
	call	?GetYieldAverage@CvCityStrategyAI@@QAENW4YieldTypes@@@Z ; CvCityStrategyAI::GetYieldAverage
	fstp	QWORD PTR _fYieldAverage$[ebp]

; 654  : 
; 655  : 	int iDesiredYield = (int)citystrategyround(fDesiredYield * 100);

	movsd	xmm0, QWORD PTR _fDesiredYield$[ebp]
	mulsd	xmm0, QWORD PTR __real@4059000000000000
	sub	esp, 8
	movsd	QWORD PTR [esp], xmm0
	call	?citystrategyround@@YANN@Z		; citystrategyround
	add	esp, 8
	call	__ftol2_sse
	mov	DWORD PTR _iDesiredYield$[ebp], eax

; 656  : 	int iYieldAverage = (int)citystrategyround(fYieldAverage * 100);

	movsd	xmm0, QWORD PTR _fYieldAverage$[ebp]
	mulsd	xmm0, QWORD PTR __real@4059000000000000
	sub	esp, 8
	movsd	QWORD PTR [esp], xmm0
	call	?citystrategyround@@YANN@Z		; citystrategyround
	add	esp, 8
	call	__ftol2_sse
	mov	DWORD PTR _iYieldAverage$[ebp], eax

; 657  : 
; 658  : 	if(iYieldAverage < iDesiredYield)

	mov	edx, DWORD PTR _iYieldAverage$[ebp]
	cmp	edx, DWORD PTR _iDesiredYield$[ebp]
	jge	SHORT $LN2@IsYieldDef

; 659  : 	{
; 660  : 		return true;

	mov	al, 1
	jmp	SHORT $LN1@IsYieldDef

; 661  : 	}
; 662  : 	else

	jmp	SHORT $LN1@IsYieldDef
$LN2@IsYieldDef:

; 663  : 	{
; 664  : 		return false;

	xor	al, al
$LN1@IsYieldDef:

; 665  : 	}
; 666  : }

	mov	esp, ebp
	pop	ebp
	ret	4
?IsYieldDeficient@CvCityStrategyAI@@QAE_NW4YieldTypes@@@Z ENDP ; CvCityStrategyAI::IsYieldDeficient
_TEXT	ENDS
PUBLIC	__real@3fe0000000000000
PUBLIC	__real@0000000000000000
EXTRN	__imp__ceil:PROC
EXTRN	_floor:PROC
;	COMDAT __real@3fe0000000000000
CONST	SEGMENT
__real@3fe0000000000000 DQ 03fe0000000000000r	; 0.5
CONST	ENDS
;	COMDAT __real@0000000000000000
CONST	SEGMENT
__real@0000000000000000 DQ 00000000000000000r	; 0
; Function compile flags: /Odtp
CONST	ENDS
;	COMDAT ?citystrategyround@@YANN@Z
_TEXT	SEGMENT
tv71 = -8						; size = 8
_x$ = 8							; size = 8
?citystrategyround@@YANN@Z PROC				; citystrategyround, COMDAT

; 645  : {

	push	ebp
	mov	ebp, esp
	sub	esp, 8

; 646  : 	return (x >= 0) ? floor(x + .5) : ceil(x - .5);

	movsd	xmm0, QWORD PTR _x$[ebp]
	comisd	xmm0, QWORD PTR __real@0000000000000000
	jb	SHORT $LN3@citystrate
	fld	QWORD PTR _x$[ebp]
	fadd	QWORD PTR __real@3fe0000000000000
	sub	esp, 8
	fstp	QWORD PTR [esp]
	call	_floor
	add	esp, 8
	fstp	QWORD PTR tv71[ebp]
	jmp	SHORT $LN4@citystrate
$LN3@citystrate:
	movsd	xmm0, QWORD PTR _x$[ebp]
	subsd	xmm0, QWORD PTR __real@3fe0000000000000
	sub	esp, 8
	movsd	QWORD PTR [esp], xmm0
	call	DWORD PTR __imp__ceil
	add	esp, 8
	fstp	QWORD PTR tv71[ebp]
$LN4@citystrate:
	fld	QWORD PTR tv71[ebp]

; 647  : };

	mov	esp, ebp
	pop	ebp
	ret	0
?citystrategyround@@YANN@Z ENDP				; citystrategyround
_TEXT	ENDS
PUBLIC	?GetDeficientYield@CvCityStrategyAI@@QAE?AW4YieldTypes@@XZ ; CvCityStrategyAI::GetDeficientYield
; Function compile flags: /Odtp
;	COMDAT ?GetDeficientYield@CvCityStrategyAI@@QAE?AW4YieldTypes@@XZ
_TEXT	SEGMENT
_this$ = -12						; size = 4
_yield$225617 = -8					; size = 4
_ui$225613 = -4						; size = 4
?GetDeficientYield@CvCityStrategyAI@@QAE?AW4YieldTypes@@XZ PROC ; CvCityStrategyAI::GetDeficientYield, COMDAT
; _this$ = ecx

; 670  : {

	push	ebp
	mov	ebp, esp
	sub	esp, 12					; 0000000cH
	mov	DWORD PTR _this$[ebp], ecx

; 671  : 	if(IsYieldDeficient(YIELD_FOOD))

	push	0
	mov	ecx, DWORD PTR _this$[ebp]
	call	?IsYieldDeficient@CvCityStrategyAI@@QAE_NW4YieldTypes@@@Z ; CvCityStrategyAI::IsYieldDeficient
	movzx	eax, al
	test	eax, eax
	je	SHORT $LN8@GetDeficie

; 672  : 	{
; 673  : 		return YIELD_FOOD;

	xor	eax, eax
	jmp	SHORT $LN9@GetDeficie
	jmp	SHORT $LN7@GetDeficie
$LN8@GetDeficie:

; 674  : 	}
; 675  : 	else if(IsYieldDeficient(YIELD_PRODUCTION))

	push	1
	mov	ecx, DWORD PTR _this$[ebp]
	call	?IsYieldDeficient@CvCityStrategyAI@@QAE_NW4YieldTypes@@@Z ; CvCityStrategyAI::IsYieldDeficient
	movzx	ecx, al
	test	ecx, ecx
	je	SHORT $LN6@GetDeficie

; 676  : 	{
; 677  : 		return YIELD_PRODUCTION;

	mov	eax, 1
	jmp	SHORT $LN9@GetDeficie

; 678  : 	}
; 679  : 	else

	jmp	SHORT $LN7@GetDeficie
$LN6@GetDeficie:

; 680  : 	{
; 681  : 		for(uint ui = 0; ui < NUM_YIELD_TYPES; ui++)

	mov	DWORD PTR _ui$225613[ebp], 0
	jmp	SHORT $LN4@GetDeficie
$LN3@GetDeficie:
	mov	edx, DWORD PTR _ui$225613[ebp]
	add	edx, 1
	mov	DWORD PTR _ui$225613[ebp], edx
$LN4@GetDeficie:
	cmp	DWORD PTR _ui$225613[ebp], 6
	jae	SHORT $LN7@GetDeficie

; 682  : 		{
; 683  : 			YieldTypes yield = (YieldTypes)ui;

	mov	eax, DWORD PTR _ui$225613[ebp]
	mov	DWORD PTR _yield$225617[ebp], eax

; 684  : 			if(IsYieldDeficient(yield))

	mov	ecx, DWORD PTR _yield$225617[ebp]
	push	ecx
	mov	ecx, DWORD PTR _this$[ebp]
	call	?IsYieldDeficient@CvCityStrategyAI@@QAE_NW4YieldTypes@@@Z ; CvCityStrategyAI::IsYieldDeficient
	movzx	edx, al
	test	edx, edx
	je	SHORT $LN1@GetDeficie

; 685  : 			{
; 686  : 				return yield;

	mov	eax, DWORD PTR _yield$225617[ebp]
	jmp	SHORT $LN9@GetDeficie
$LN1@GetDeficie:

; 687  : 			}
; 688  : 		}

	jmp	SHORT $LN3@GetDeficie
$LN7@GetDeficie:

; 689  : 	}
; 690  : 
; 691  : 	return NO_YIELD;

	or	eax, -1
$LN9@GetDeficie:

; 692  : }

	mov	esp, ebp
	pop	ebp
	ret	0
?GetDeficientYield@CvCityStrategyAI@@QAE?AW4YieldTypes@@XZ ENDP ; CvCityStrategyAI::GetDeficientYield
_TEXT	ENDS
EXTRN	?calculateYield@CvPlot@@QAEHW4YieldTypes@@_N@Z:PROC ; CvPlot::calculateYield
EXTRN	?IsWorkingPlot@CvCityCitizens@@QBE_NPBVCvPlot@@@Z:PROC ; CvCityCitizens::IsWorkingPlot
EXTRN	?GetCityCitizens@CvCity@@QBEPAVCvCityCitizens@@XZ:PROC ; CvCity::GetCityCitizens
EXTRN	?GetPlots@CvPlayer@@QAEAAV?$FStaticVector@H$0DJAA@$00$0BCJ@$0A@@@XZ:PROC ; CvPlayer::GetPlots
; Function compile flags: /Odtp
;	COMDAT ?GetYieldAverage@CvCityStrategyAI@@QAENW4YieldTypes@@@Z
_TEXT	SEGMENT
tv163 = -64						; size = 4
_this$ = -60						; size = 4
$T231425 = -56						; size = 4
$T231418 = -52						; size = 4
$T231411 = -48						; size = 4
$T231407 = -44						; size = 4
$T231400 = -40						; size = 4
$T231393 = -36						; size = 4
_pPlot$225633 = -32					; size = 4
_ui$225628 = -28					; size = 4
_iTilesWorked$ = -24					; size = 4
_aiPlots$ = -20						; size = 4
_iYieldAmount$ = -16					; size = 4
_pPlayer$ = -12						; size = 4
_fRatio$ = -8						; size = 8
_eYieldType$ = 8					; size = 4
?GetYieldAverage@CvCityStrategyAI@@QAENW4YieldTypes@@@Z PROC ; CvCityStrategyAI::GetYieldAverage, COMDAT
; _this$ = ecx

; 696  : {

	push	ebp
	mov	ebp, esp
	sub	esp, 64					; 00000040H
	mov	DWORD PTR _this$[ebp], ecx

; 697  : 	CvPlayer* pPlayer = &GET_PLAYER(m_pCity->getOwner());

	mov	eax, DWORD PTR _this$[ebp]
	mov	ecx, DWORD PTR [eax+12]
	mov	edx, DWORD PTR [ecx+84]
	mov	DWORD PTR $T231393[ebp], edx
	mov	eax, DWORD PTR $T231393[ebp]
	imul	eax, 63236				; 0000f704H
	add	eax, DWORD PTR ?m_aPlayers@CvPlayerAI@@1PAV1@A ; CvPlayerAI::m_aPlayers
	mov	DWORD PTR _pPlayer$[ebp], eax

; 698  : 	CvPlotsVector& aiPlots = pPlayer->GetPlots();

	mov	ecx, DWORD PTR _pPlayer$[ebp]
	call	?GetPlots@CvPlayer@@QAEAAV?$FStaticVector@H$0DJAA@$00$0BCJ@$0A@@@XZ ; CvPlayer::GetPlots
	mov	DWORD PTR _aiPlots$[ebp], eax

; 699  : 
; 700  : 	int iTilesWorked = 0;

	mov	DWORD PTR _iTilesWorked$[ebp], 0

; 701  : 	int iYieldAmount = 0;

	mov	DWORD PTR _iYieldAmount$[ebp], 0

; 702  : 	for(uint ui = 0; ui < aiPlots.size(); ui++)

	mov	DWORD PTR _ui$225628[ebp], 0
	jmp	SHORT $LN6@GetYieldAv
$LN5@GetYieldAv:
	mov	ecx, DWORD PTR _ui$225628[ebp]
	add	ecx, 1
	mov	DWORD PTR _ui$225628[ebp], ecx
$LN6@GetYieldAv:
	mov	edx, DWORD PTR _aiPlots$[ebp]
	mov	eax, DWORD PTR [edx+4]
	mov	DWORD PTR $T231400[ebp], eax
	mov	ecx, DWORD PTR _ui$225628[ebp]
	cmp	ecx, DWORD PTR $T231400[ebp]
	jae	$LN4@GetYieldAv

; 703  : 	{
; 704  : 		// at the end of the plot list
; 705  : 		if(aiPlots[ui] == -1)

	mov	edx, DWORD PTR _aiPlots$[ebp]
	mov	eax, DWORD PTR [edx]
	mov	ecx, DWORD PTR _ui$225628[ebp]
	cmp	DWORD PTR [eax+ecx*4], -1
	jne	SHORT $LN3@GetYieldAv

; 706  : 		{
; 707  : 			break;

	jmp	$LN4@GetYieldAv
$LN3@GetYieldAv:

; 708  : 		}
; 709  : 
; 710  : 		CvPlot* pPlot = GC.getMap().plotByIndex(aiPlots[ui]);

	mov	edx, DWORD PTR _aiPlots$[ebp]
	mov	eax, DWORD PTR [edx]
	mov	ecx, DWORD PTR _ui$225628[ebp]
	lea	edx, DWORD PTR [eax+ecx*4]
	mov	DWORD PTR $T231407[ebp], edx
	mov	eax, DWORD PTR ?gGlobals@@3VCvGlobals@@A+52
	mov	DWORD PTR $T231411[ebp], eax
	mov	ecx, DWORD PTR $T231407[ebp]
	mov	edx, DWORD PTR [ecx]
	mov	DWORD PTR $T231425[ebp], edx
	cmp	DWORD PTR $T231425[ebp], 0
	jl	SHORT $LN25@GetYieldAv
	mov	eax, DWORD PTR $T231411[ebp]
	mov	ecx, DWORD PTR [eax+4028]
	mov	DWORD PTR $T231418[ebp], ecx
	mov	edx, DWORD PTR $T231425[ebp]
	cmp	edx, DWORD PTR $T231418[ebp]
	jge	SHORT $LN25@GetYieldAv
	mov	eax, DWORD PTR $T231425[ebp]
	imul	eax, 484				; 000001e4H
	mov	ecx, DWORD PTR $T231411[ebp]
	add	eax, DWORD PTR [ecx+4068]
	mov	DWORD PTR tv163[ebp], eax
	jmp	SHORT $LN26@GetYieldAv
$LN25@GetYieldAv:
	mov	DWORD PTR tv163[ebp], 0
$LN26@GetYieldAv:
	mov	edx, DWORD PTR tv163[ebp]
	mov	DWORD PTR _pPlot$225633[ebp], edx

; 711  : 		if(!m_pCity->GetCityCitizens()->IsWorkingPlot(pPlot))

	mov	eax, DWORD PTR _pPlot$225633[ebp]
	push	eax
	mov	ecx, DWORD PTR _this$[ebp]
	mov	ecx, DWORD PTR [ecx+12]
	call	?GetCityCitizens@CvCity@@QBEPAVCvCityCitizens@@XZ ; CvCity::GetCityCitizens
	mov	ecx, eax
	call	?IsWorkingPlot@CvCityCitizens@@QBE_NPBVCvPlot@@@Z ; CvCityCitizens::IsWorkingPlot
	movzx	edx, al
	test	edx, edx
	jne	SHORT $LN2@GetYieldAv

; 712  : 		{
; 713  : 			continue;

	jmp	$LN5@GetYieldAv
$LN2@GetYieldAv:

; 714  : 		}
; 715  : 
; 716  : 		iTilesWorked++;

	mov	eax, DWORD PTR _iTilesWorked$[ebp]
	add	eax, 1
	mov	DWORD PTR _iTilesWorked$[ebp], eax

; 717  : 		iYieldAmount += pPlot->calculateYield(eYieldType);

	push	0
	mov	ecx, DWORD PTR _eYieldType$[ebp]
	push	ecx
	mov	ecx, DWORD PTR _pPlot$225633[ebp]
	call	?calculateYield@CvPlot@@QAEHW4YieldTypes@@_N@Z ; CvPlot::calculateYield
	add	eax, DWORD PTR _iYieldAmount$[ebp]
	mov	DWORD PTR _iYieldAmount$[ebp], eax

; 718  : 	}

	jmp	$LN5@GetYieldAv
$LN4@GetYieldAv:

; 719  : 
; 720  : 	double fRatio = 0.0;

	movsd	xmm0, QWORD PTR __real@0000000000000000
	movsd	QWORD PTR _fRatio$[ebp], xmm0

; 721  : 	if(iTilesWorked > 0)

	cmp	DWORD PTR _iTilesWorked$[ebp], 0
	jle	SHORT $LN1@GetYieldAv

; 722  : 	{
; 723  : 		fRatio = iYieldAmount / (double)iTilesWorked;

	cvtsi2sd xmm0, DWORD PTR _iYieldAmount$[ebp]
	cvtsi2sd xmm1, DWORD PTR _iTilesWorked$[ebp]
	divsd	xmm0, xmm1
	movsd	QWORD PTR _fRatio$[ebp], xmm0
$LN1@GetYieldAv:

; 724  : 	}
; 725  : 
; 726  : 	return fRatio;

	fld	QWORD PTR _fRatio$[ebp]

; 727  : }

	mov	esp, ebp
	pop	ebp
	ret	4
?GetYieldAverage@CvCityStrategyAI@@QAENW4YieldTypes@@@Z ENDP ; CvCityStrategyAI::GetYieldAverage
_TEXT	ENDS
PUBLIC	__real@c08f380000000000
;	COMDAT __real@c08f380000000000
; File d:\sources\lekmod_git\checkout\lekmod_dll\cvgamecoredll_expansion2\cvglobals.h
CONST	SEGMENT
__real@c08f380000000000 DQ 0c08f380000000000r	; -999
; Function compile flags: /Odtp
; File d:\sources\lekmod_git\checkout\lekmod_dll\cvgamecoredll_expansion2\cvcitystrategyai.cpp
CONST	ENDS
;	COMDAT ?GetDeficientYieldValue@CvCityStrategyAI@@QAENW4YieldTypes@@@Z
_TEXT	SEGMENT
tv64 = -32						; size = 4
_this$ = -28						; size = 4
$T231443 = -24						; size = 4
$T231439 = -20						; size = 4
$T231435 = -16						; size = 4
$T231431 = -12						; size = 4
_fDesiredYield$ = -8					; size = 8
_eYieldType$ = 8					; size = 4
?GetDeficientYieldValue@CvCityStrategyAI@@QAENW4YieldTypes@@@Z PROC ; CvCityStrategyAI::GetDeficientYieldValue, COMDAT
; _this$ = ecx

; 731  : {

	push	ebp
	mov	ebp, esp
	sub	esp, 32					; 00000020H
	mov	DWORD PTR _this$[ebp], ecx

; 732  : 	double fDesiredYield = -999.0;

	movsd	xmm0, QWORD PTR __real@c08f380000000000
	movsd	QWORD PTR _fDesiredYield$[ebp], xmm0

; 733  : 
; 734  : 	switch(eYieldType)

	mov	eax, DWORD PTR _eYieldType$[ebp]
	mov	DWORD PTR tv64[ebp], eax
	cmp	DWORD PTR tv64[ebp], 5
	ja	SHORT $LN1@GetDeficie@2
	mov	ecx, DWORD PTR tv64[ebp]
	jmp	DWORD PTR $LN20@GetDeficie@2[ecx*4]
$LN7@GetDeficie@2:

; 735  : 	{
; 736  : 	case YIELD_FOOD:
; 737  : 		fDesiredYield = GC.getAI_CITYSTRATEGY_YIELD_DEFICIENT_FOOD();

	movss	xmm0, DWORD PTR ?gGlobals@@3VCvGlobals@@A+2348
	movss	DWORD PTR $T231431[ebp], xmm0
	cvtss2sd xmm0, DWORD PTR $T231431[ebp]
	movsd	QWORD PTR _fDesiredYield$[ebp], xmm0

; 738  : 		break;

	jmp	SHORT $LN8@GetDeficie@2
$LN6@GetDeficie@2:

; 739  : 	case YIELD_PRODUCTION:
; 740  : 		fDesiredYield = GC.getAI_CITYSTRATEGY_YIELD_DEFICIENT_PRODUCTION();

	movss	xmm0, DWORD PTR ?gGlobals@@3VCvGlobals@@A+2352
	movss	DWORD PTR $T231435[ebp], xmm0
	cvtss2sd xmm0, DWORD PTR $T231435[ebp]
	movsd	QWORD PTR _fDesiredYield$[ebp], xmm0

; 741  : 		break;

	jmp	SHORT $LN8@GetDeficie@2
$LN5@GetDeficie@2:

; 742  : 	case YIELD_SCIENCE:
; 743  : 		fDesiredYield = GC.getAI_CITYSTRATEGY_YIELD_DEFICIENT_SCIENCE();

	movss	xmm0, DWORD PTR ?gGlobals@@3VCvGlobals@@A+2360
	movss	DWORD PTR $T231439[ebp], xmm0
	cvtss2sd xmm0, DWORD PTR $T231439[ebp]
	movsd	QWORD PTR _fDesiredYield$[ebp], xmm0

; 744  : 		break;

	jmp	SHORT $LN8@GetDeficie@2
$LN4@GetDeficie@2:

; 745  : 	case YIELD_GOLD:
; 746  : 		fDesiredYield = GC.getAI_CITYSTRATEGY_YIELD_DEFICIENT_GOLD();

	movss	xmm0, DWORD PTR ?gGlobals@@3VCvGlobals@@A+2356
	movss	DWORD PTR $T231443[ebp], xmm0
	cvtss2sd xmm0, DWORD PTR $T231443[ebp]
	movsd	QWORD PTR _fDesiredYield$[ebp], xmm0

; 747  : 		break;

	jmp	SHORT $LN8@GetDeficie@2
$LN3@GetDeficie@2:

; 748  : 		// OK if deficient in the newer (bonus) yields
; 749  : 	case YIELD_CULTURE:
; 750  : 		break;

	jmp	SHORT $LN8@GetDeficie@2
$LN2@GetDeficie@2:

; 751  : 	case YIELD_FAITH:
; 752  : 		break;

	jmp	SHORT $LN8@GetDeficie@2
$LN1@GetDeficie@2:

; 753  : 	default:
; 754  : 		FAssertMsg(false, "Yield type is not handled. What?");
; 755  : 		return false;

	fldz
	jmp	SHORT $LN10@GetDeficie@2
$LN8@GetDeficie@2:

; 756  : 	}
; 757  : 
; 758  : 	return fDesiredYield;

	fld	QWORD PTR _fDesiredYield$[ebp]
$LN10@GetDeficie@2:

; 759  : }

	mov	esp, ebp
	pop	ebp
	ret	4
	npad	3
$LN20@GetDeficie@2:
	DD	$LN7@GetDeficie@2
	DD	$LN6@GetDeficie@2
	DD	$LN4@GetDeficie@2
	DD	$LN5@GetDeficie@2
	DD	$LN3@GetDeficie@2
	DD	$LN2@GetDeficie@2
?GetDeficientYieldValue@CvCityStrategyAI@@QAENW4YieldTypes@@@Z ENDP ; CvCityStrategyAI::GetDeficientYieldValue
_TEXT	ENDS
PUBLIC	?LogCityProduction@CvCityStrategyAI@@QAEXUCvCityBuildable@@_N@Z ; CvCityStrategyAI::LogCityProduction
PUBLIC	?ChooseFromTopChoices@?$CvWeightedVector@UCvCityBuildable@@$0OB@$00@@QAE?AUCvCityBuildable@@HPAV?$FastDelegate2@HPBDH@fastdelegate@@PBD@Z ; CvWeightedVector<CvCityBuildable,225,1>::ChooseFromTopChoices
PUBLIC	??_C@_0CF@HNJOJGCJ@Choosing?5city?5build?5from?5Top?5Cho@ ; `string'
PUBLIC	?GetTotalWeight@?$CvWeightedVector@UCvCityBuildable@@$0OB@$00@@QAEHXZ ; CvWeightedVector<CvCityBuildable,225,1>::GetTotalWeight
PUBLIC	?LogPossibleBuilds@CvCityStrategyAI@@AAEXXZ	; CvCityStrategyAI::LogPossibleBuilds
PUBLIC	??$_Sort@PAUWeightedElement@?$CvWeightedVector@UCvCityBuildable@@$0OB@$00@@H@std@@YAXPAUWeightedElement@?$CvWeightedVector@UCvCityBuildable@@$0OB@$00@@0H@Z ; std::_Sort<CvWeightedVector<CvCityBuildable,225,1>::WeightedElement *,int>
PUBLIC	?ReweightByCost@CvCityStrategyAI@@AAEXXZ	; CvCityStrategyAI::ReweightByCost
PUBLIC	??_C@_0CD@DIPKFMBK@GAMEOPTION_AI_GIMP_NO_WORLD_WOND@ ; `string'
PUBLIC	??_C@_0BF@FAPEFALO@GAMEOPTION_AI_TWEAKS?$AA@	; `string'
PUBLIC	?push_back@?$FStaticVector@UWeightedElement@?$CvWeightedVector@UCvCityBuildable@@$0OB@$00@@$0OB@$00$0A@$0A@@@QAEIABUWeightedElement@?$CvWeightedVector@UCvCityBuildable@@$0OB@$00@@@Z ; FStaticVector<CvWeightedVector<CvCityBuildable,225,1>::WeightedElement,225,1,0,0>::push_back
PUBLIC	??_C@_0P@ELMNBNJP@FLAVOR_OFFENSE?$AA@		; `string'
PUBLIC	??_C@_0CE@OFIOLJNP@ECONOMICAISTRATEGY_ENOUGH_EXPANS@ ; `string'
PUBLIC	??$MakeDelegate@VCvGame@@V1@HPBDH@fastdelegate@@YA?AV?$FastDelegate2@HPBDH@0@PAVCvGame@@P82@AEHHPBD@Z@Z ; fastdelegate::MakeDelegate<CvGame,CvGame,int,char const *,int>
PUBLIC	?ChooseProduction@CvCityStrategyAI@@QAEX_NW4BuildingTypes@@W4UnitTypes@@@Z ; CvCityStrategyAI::ChooseProduction
EXTRN	?CommitToBuildingUnitForOperation@CvCity@@QAE_NXZ:PROC ; CvCity::CommitToBuildingUnitForOperation
EXTRN	?pushOrder@CvCity@@QAEXW4OrderTypes@@HH_N111@Z:PROC ; CvCity::pushOrder
EXTRN	?GetCityProductionNumOptions@CvHandicapInfo@@QBEHXZ:PROC ; CvHandicapInfo::GetCityProductionNumOptions
EXTRN	?GetWeight@CvProcessProductionAI@@QAEHW4ProcessTypes@@@Z:PROC ; CvProcessProductionAI::GetWeight
EXTRN	?canMaintain@CvCity@@QBE_NW4ProcessTypes@@_N@Z:PROC ; CvCity::canMaintain
EXTRN	?getNumProcessInfos@CvGlobals@@QAEHXZ:PROC	; CvGlobals::getNumProcessInfos
EXTRN	?getBaseYieldRateModifier@CvCity@@QBEHW4YieldTypes@@HPAVCvString@@@Z:PROC ; CvCity::getBaseYieldRateModifier
EXTRN	?getPopulation@CvCity@@QBEHXZ:PROC		; CvCity::getPopulation
EXTRN	?GetYieldPerPopTimes100@CvCity@@QBEHW4YieldTypes@@@Z:PROC ; CvCity::GetYieldPerPopTimes100
EXTRN	?getBaseYieldRate@CvCity@@QBEHW4YieldTypes@@@Z:PROC ; CvCity::getBaseYieldRate
EXTRN	?GetPlayerTraits@CvPlayer@@QBEPAVCvPlayerTraits@@XZ:PROC ; CvPlayer::GetPlayerTraits
EXTRN	?GetWeight@CvProjectProductionAI@@QAEHW4ProjectTypes@@@Z:PROC ; CvProjectProductionAI::GetWeight
EXTRN	?getProductionTurnsLeft@CvCity@@QBEHW4ProjectTypes@@H@Z:PROC ; CvCity::getProductionTurnsLeft
EXTRN	?canCreate@CvCity@@QBE_NW4ProjectTypes@@_N1@Z:PROC ; CvCity::canCreate
EXTRN	?isWorldProject@@YA_NW4ProjectTypes@@@Z:PROC	; isWorldProject
EXTRN	?GetNumProjects@CvProjectXMLEntries@@QAEHXZ:PROC ; CvProjectXMLEntries::GetNumProjects
EXTRN	?GetGameProjects@CvGlobals@@QBEPAVCvProjectXMLEntries@@XZ:PROC ; CvGlobals::GetGameProjects
EXTRN	?getUnitsPerPlayer@CvArea@@QBEHW4PlayerTypes@@@Z:PROC ; CvArea::getUnitsPerPlayer
EXTRN	?getNumTiles@CvArea@@QBEHXZ:PROC		; CvArea::getNumTiles
EXTRN	?waterArea@CvCity@@QBEPAVCvArea@@XZ:PROC	; CvCity::waterArea
EXTRN	?GetDomainType@CvUnitEntry@@QBEHXZ:PROC		; CvUnitEntry::GetDomainType
EXTRN	?canTrain@CvCity@@QBE_NW4UnitTypes@@_N111PAVCvString@@@Z:PROC ; CvCity::canTrain
EXTRN	?GetNumUnits@CvUnitXMLEntries@@QAEHXZ:PROC	; CvUnitXMLEntries::GetNumUnits
EXTRN	?GetResourceQuantityRequirement@CvBuildingEntry@@QBEHH@Z:PROC ; CvBuildingEntry::GetResourceQuantityRequirement
EXTRN	?getNumResourceInfos@CvGlobals@@QAEHXZ:PROC	; CvGlobals::getNumResourceInfos
EXTRN	?GetGoldMaintenance@CvBuildingEntry@@QBEHXZ:PROC ; CvBuildingEntry::GetGoldMaintenance
EXTRN	?GetDomainFreeExperience@CvBuildingEntry@@QBEHH@Z:PROC ; CvBuildingEntry::GetDomainFreeExperience
EXTRN	?isLimitedWonderClass@@YA_NABVCvBuildingClassInfo@@@Z:PROC ; isLimitedWonderClass
EXTRN	?isNationalWonderClass@@YA_NABVCvBuildingClassInfo@@@Z:PROC ; isNationalWonderClass
EXTRN	?isTeamWonderClass@@YA_NABVCvBuildingClassInfo@@@Z:PROC ; isTeamWonderClass
EXTRN	?IsPuppet@CvCity@@QBE_NXZ:PROC			; CvCity::IsPuppet
EXTRN	?isWorldWonderClass@@YA_NABVCvBuildingClassInfo@@@Z:PROC ; isWorldWonderClass
EXTRN	?GetBuildingClassInfo@CvBuildingEntry@@QBEABVCvBuildingClassInfo@@XZ:PROC ; CvBuildingEntry::GetBuildingClassInfo
EXTRN	?isOption@CvGame@@QBE_NPBD@Z:PROC		; CvGame::isOption
EXTRN	?GetGold@CvTreasury@@QBEHXZ:PROC		; CvTreasury::GetGold
EXTRN	?GetTreasury@CvPlayer@@QBEPAVCvTreasury@@XZ:PROC ; CvPlayer::GetTreasury
EXTRN	?IsGoingForDiploVictory@CvDiplomacyAI@@QAE_NXZ:PROC ; CvDiplomacyAI::IsGoingForDiploVictory
EXTRN	?GetAlly@CvMinorCivAI@@QBE?AW4PlayerTypes@@XZ:PROC ; CvMinorCivAI::GetAlly
EXTRN	?GetMinorCivAI@CvPlayer@@QBEPAVCvMinorCivAI@@XZ:PROC ; CvPlayer::GetMinorCivAI
EXTRN	?isMinorCiv@CvPlayer@@QBE_NXZ:PROC		; CvPlayer::isMinorCiv
EXTRN	?GetLiberatedByTeam@CvTeam@@QBE?AW4TeamTypes@@XZ:PROC ; CvTeam::GetLiberatedByTeam
EXTRN	?m_aTeams@CvTeam@@1PAV1@A:DWORD			; CvTeam::m_aTeams
EXTRN	?GetVotesNeededForDiploVictory@CvGame@@QBEHXZ:PROC ; CvGame::GetVotesNeededForDiploVictory
EXTRN	?IsDiplomaticVoting@CvBuildingEntry@@QBE_NXZ:PROC ; CvBuildingEntry::IsDiplomaticVoting
EXTRN	?GetWeight@CvBuildingProductionAI@@QAEHW4BuildingTypes@@@Z:PROC ; CvBuildingProductionAI::GetWeight
EXTRN	?getProductionTurnsLeft@CvCity@@QBEHW4BuildingTypes@@H@Z:PROC ; CvCity::getProductionTurnsLeft
EXTRN	?canConstruct@CvCity@@QBE_NW4BuildingTypes@@_N11PAVCvString@@@Z:PROC ; CvCity::canConstruct
EXTRN	?getBuildingInfo@CvGlobals@@QAEPAVCvBuildingEntry@@W4BuildingTypes@@@Z:PROC ; CvGlobals::getBuildingInfo
EXTRN	?GetNumBuildings@CvBuildingXMLEntries@@QAEHXZ:PROC ; CvBuildingXMLEntries::GetNumBuildings
EXTRN	?GetGameBuildings@CvGlobals@@QBEPAVCvBuildingXMLEntries@@XZ:PROC ; CvGlobals::GetGameBuildings
EXTRN	?getHandicapInfo@CvGame@@QBEAAVCvHandicapInfo@@XZ:PROC ; CvGame::getHandicapInfo
EXTRN	?GetUnitForArmy@CvMilitaryAI@@QBE?AW4UnitTypes@@PAVCvCity@@@Z:PROC ; CvMilitaryAI::GetUnitForArmy
EXTRN	?GetBestSettleAreas@CvPlayer@@QAEHHAAH0@Z:PROC	; CvPlayer::GetBestSettleAreas
EXTRN	?GetDefaultUnitAIType@CvUnitEntry@@QBEHXZ:PROC	; CvUnitEntry::GetDefaultUnitAIType
EXTRN	?getUnitInfo@CvGlobals@@QAEPAVCvUnitEntry@@W4UnitTypes@@@Z:PROC ; CvGlobals::getUnitInfo
EXTRN	?GetWeight@CvUnitProductionAI@@QAEHW4UnitTypes@@@Z:PROC ; CvUnitProductionAI::GetWeight
EXTRN	?IsOperationUnitProvider@CvCitySpecializationXMLEntry@@QBE_NXZ:PROC ; CvCitySpecializationXMLEntry::IsOperationUnitProvider
EXTRN	?GetPersonalityAndGrandStrategy@CvGrandStrategyAI@@QAEHW4FlavorTypes@@@Z:PROC ; CvGrandStrategyAI::GetPersonalityAndGrandStrategy
EXTRN	?GetGrandStrategyAI@CvPlayer@@QBEPAVCvGrandStrategyAI@@XZ:PROC ; CvPlayer::GetGrandStrategyAI
EXTRN	?getProductionTurnsLeft@CvCity@@QBEHW4UnitTypes@@H@Z:PROC ; CvCity::getProductionTurnsLeft
EXTRN	?GetUnitForOperation@CvCity@@QAE?AW4UnitTypes@@XZ:PROC ; CvCity::GetUnitForOperation
EXTRN	?getJonRandNum@CvGame@@QAEHHPBD@Z:PROC		; CvGame::getJonRandNum
EXTRN	?getAsyncRandNum@CvGame@@QAEHHPBD@Z:PROC	; CvGame::getAsyncRandNum
EXTRN	?GetDiplomacyAI@CvPlayer@@QBEPAVCvDiplomacyAI@@XZ:PROC ; CvPlayer::GetDiplomacyAI
;	COMDAT ??_C@_0CF@HNJOJGCJ@Choosing?5city?5build?5from?5Top?5Cho@
; File d:\sources\lekmod_git\checkout\lekmod_dll\cvgamecoredll_expansion2\cvmilitaryai.h
CONST	SEGMENT
??_C@_0CF@HNJOJGCJ@Choosing?5city?5build?5from?5Top?5Cho@ DB 'Choosing ci'
	DB	'ty build from Top Choices', 00H		; `string'
CONST	ENDS
;	COMDAT ??_C@_0CD@DIPKFMBK@GAMEOPTION_AI_GIMP_NO_WORLD_WOND@
CONST	SEGMENT
??_C@_0CD@DIPKFMBK@GAMEOPTION_AI_GIMP_NO_WORLD_WOND@ DB 'GAMEOPTION_AI_GI'
	DB	'MP_NO_WORLD_WONDER', 00H			; `string'
CONST	ENDS
;	COMDAT ??_C@_0BF@FAPEFALO@GAMEOPTION_AI_TWEAKS?$AA@
CONST	SEGMENT
??_C@_0BF@FAPEFALO@GAMEOPTION_AI_TWEAKS?$AA@ DB 'GAMEOPTION_AI_TWEAKS', 00H ; `string'
CONST	ENDS
;	COMDAT ??_C@_0P@ELMNBNJP@FLAVOR_OFFENSE?$AA@
CONST	SEGMENT
??_C@_0P@ELMNBNJP@FLAVOR_OFFENSE?$AA@ DB 'FLAVOR_OFFENSE', 00H ; `string'
CONST	ENDS
;	COMDAT ??_C@_0CE@OFIOLJNP@ECONOMICAISTRATEGY_ENOUGH_EXPANS@
CONST	SEGMENT
??_C@_0CE@OFIOLJNP@ECONOMICAISTRATEGY_ENOUGH_EXPANS@ DB 'ECONOMICAISTRATE'
	DB	'GY_ENOUGH_EXPANSION', 00H			; `string'
; Function compile flags: /Odtp
; File d:\sources\lekmod_git\checkout\lekmod_dll\cvgamecoredll_expansion2\cvcitystrategyai.cpp
CONST	ENDS
;	COMDAT ?ChooseProduction@CvCityStrategyAI@@QAEX_NW4BuildingTypes@@W4UnitTypes@@@Z
_TEXT	SEGMENT
tv802 = -704						; size = 4
tv922 = -700						; size = 4
tv256 = -696						; size = 4
_this$ = -692						; size = 4
$T232039 = -688						; size = 4
$T232035 = -684						; size = 4
$T232031 = -680						; size = 4
$T232027 = -676						; size = 4
$T231977 = -628						; size = 4
$T231961 = -592						; size = 4
$T231892 = -572						; size = 4
$T231888 = -568						; size = 4
_weightedElem$231883 = -556				; size = 16
$T231855 = -540						; size = 4
$T231851 = -536						; size = 4
$T231842 = -532						; size = 4
$T231838 = -528						; size = 4
_weightedElem$231837 = -516				; size = 16
$T231809 = -500						; size = 4
$T231805 = -496						; size = 4
_weightedElem$231801 = -484				; size = 16
$T231773 = -468						; size = 4
$T231764 = -464						; size = 4
$T231763 = -460						; size = 4
_weightedElem$231759 = -448				; size = 16
$T231731 = -432						; size = 4
$T231727 = -428						; size = 4
$T231720 = -424						; size = 4
$T231714 = -420						; size = 4
$T231710 = -416						; size = 4
$T231706 = -412						; size = 4
$T231694 = -408						; size = 4
$T231690 = -401						; size = 1
$T231681 = -400						; size = 4
$T231661 = -396						; size = 4
_weightedElem$231657 = -392				; size = 16
$T231641 = -376						; size = 4
$T231634 = -372						; size = 4
$T231628 = -368						; size = 4
$T231627 = -364						; size = 4
$T231623 = -360						; size = 4
$T231616 = -356						; size = 4
_weightedElem$231612 = -352				; size = 16
$T231596 = -336						; size = 4
$T231595 = -332						; size = 4
$T231591 = -328						; size = 4
$T231587 = -324						; size = 4
$T231583 = -320						; size = 4
$T231579 = -316						; size = 4
$T231578 = -312						; size = 4
$T231571 = -308						; size = 4
_i$231566 = -304					; size = 4
$T231540 = -300						; size = 4
$T231524 = -296						; size = 4
$T231520 = -292						; size = 4
$T231504 = -288						; size = 4
$T231497 = -284						; size = 4
$T231455 = -280						; size = 12
$T231454 = -268						; size = 4
$T231453 = -264						; size = 4
$T231452 = -260						; size = 4
$T231451 = -256						; size = 4
$T231450 = -252						; size = 8
$T231449 = -244						; size = 8
_eProcessType$225978 = -236				; size = 4
_eProjectType$225975 = -232				; size = 4
_eBuildingType$225972 = -228				; size = 4
_eUnitAI$225969 = -224					; size = 4
_pkUnitInfo$225967 = -220				; size = 4
_eUnitType$225965 = -216				; size = 4
_bRush$225959 = -209					; size = 1
_iRushIfMoreThanXTurns$225957 = -208			; size = 4
_iNumChoices$225954 = -204				; size = 4
_eProcess$225949 = -200					; size = 4
_iBaseYield$225943 = -196				; size = 4
_iModifiedYield$225944 = -192				; size = 4
_iNumUnitsofMine$225925 = -188				; size = 4
_iWaterTiles$225924 = -184				; size = 4
_pBiggestNearbyBodyOfWater$225922 = -180		; size = 4
_eDomain$225919 = -176					; size = 4
_iNumGoodAreas$225916 = -172				; size = 4
_iBestArea$225914 = -168				; size = 4
_iSecondBestArea$225915 = -164				; size = 4
_pkUnitEntry$225909 = -160				; size = 4
_iResourceLoop$225895 = -156				; size = 4
_kBuildingClassInfo$225889 = -152			; size = 4
_iNumResources$225894 = -148				; size = 4
_iPlayerLoop$225869 = -144				; size = 4
_iVotesNeededToWin$225863 = -140			; size = 4
_eLoopPlayer$225867 = -136				; size = 4
_iSecuredVotes$225864 = -132				; size = 4
_iNumberOfPlayersWeNeedToBuyOff$225879 = -128		; size = 4
_myTeamID$225865 = -124					; size = 4
_eLoopTeam$225868 = -120				; size = 4
_myPlayerID$225866 = -116				; size = 4
_eLoopBuilding$225857 = -112				; size = 4
_pkBuildingInfo$225859 = -108				; size = 4
_iBonusMultiplier$225850 = -104				; size = 4
_iOffenseFlavor$225848 = -100				; size = 4
_iNumGoodAreas$225843 = -96				; size = 4
_iBestArea$225841 = -92					; size = 4
_iSecondBestArea$225842 = -88				; size = 4
_pkUnitEntry$225837 = -84				; size = 4
_iOffenseFlavor$225833 = -80				; size = 4
_fcn$ = -76						; size = 8
_bIsVenice$ = -66					; size = 1
_bEnoughSettlers$ = -65					; size = 1
_iProcessLoop$ = -64					; size = 4
_selection$ = -60					; size = 12
_eUnitForOperation$ = -48				; size = 4
_eStrategyEnoughSettlers$ = -44				; size = 4
_buildable$ = -40					; size = 12
_iBldgLoop$ = -28					; size = 4
_eUnitForArmy$ = -24					; size = 4
_iUnitLoop$ = -20					; size = 4
_iTempWeight$ = -16					; size = 4
_pDiploAI$ = -12					; size = 4
_iProjectLoop$ = -8					; size = 4
_kPlayer$ = -4						; size = 4
_bUseAsyncRandom$ = 8					; size = 1
_eIgnoreBldg$ = 12					; size = 4
_eIgnoreUnit$ = 16					; size = 4
?ChooseProduction@CvCityStrategyAI@@QAEX_NW4BuildingTypes@@W4UnitTypes@@@Z PROC ; CvCityStrategyAI::ChooseProduction, COMDAT
; _this$ = ecx

; 763  : {

	push	ebp
	mov	ebp, esp
	sub	esp, 704				; 000002c0H
	push	esi
	mov	DWORD PTR _this$[ebp], ecx

; 764  : 	RandomNumberDelegate fcn;

	mov	DWORD PTR _fcn$[ebp], 0
	mov	DWORD PTR _fcn$[ebp+4], 0
	mov	DWORD PTR _fcn$[ebp], 0
	mov	DWORD PTR _fcn$[ebp+4], 0

; 765  : #ifdef AUI_WARNING_FIXES
; 766  : 	uint iBldgLoop, iUnitLoop, iProjectLoop, iProcessLoop;
; 767  : 	int iTempWeight;
; 768  : #else
; 769  : 	int iBldgLoop, iUnitLoop, iProjectLoop, iProcessLoop, iTempWeight;
; 770  : #endif
; 771  : 	CvCityBuildable buildable;

	mov	DWORD PTR _buildable$[ebp], 0
	mov	DWORD PTR _buildable$[ebp+4], 0
	mov	DWORD PTR _buildable$[ebp+8], 0

; 772  : 	CvCityBuildable selection;

	mov	DWORD PTR _selection$[ebp], 0
	mov	DWORD PTR _selection$[ebp+4], 0
	mov	DWORD PTR _selection$[ebp+8], 0

; 773  : 	UnitTypes eUnitForOperation;
; 774  : 	UnitTypes eUnitForArmy;
; 775  : 
; 776  : 	CvPlayerAI& kPlayer = GET_PLAYER(m_pCity->getOwner());

	mov	eax, DWORD PTR _this$[ebp]
	mov	ecx, DWORD PTR [eax+12]
	mov	edx, DWORD PTR [ecx+84]
	mov	DWORD PTR $T231497[ebp], edx
	mov	eax, DWORD PTR $T231497[ebp]
	imul	eax, 63236				; 0000f704H
	add	eax, DWORD PTR ?m_aPlayers@CvPlayerAI@@1PAV1@A ; CvPlayerAI::m_aPlayers
	mov	DWORD PTR _kPlayer$[ebp], eax

; 777  : 	CvDiplomacyAI* pDiploAI = kPlayer.GetDiplomacyAI();

	mov	ecx, DWORD PTR _kPlayer$[ebp]
	call	?GetDiplomacyAI@CvPlayer@@QBEPAVCvDiplomacyAI@@XZ ; CvPlayer::GetDiplomacyAI
	mov	DWORD PTR _pDiploAI$[ebp], eax

; 778  : 
; 779  : 	//int iSettlersOnMap = kPlayer.GetNumUnitsWithUnitAI(UNITAI_SETTLE, true);
; 780  : 
; 781  : 	// Use the asynchronous random number generate if "no random" is set
; 782  : 	if(bUseAsyncRandom)

	movzx	ecx, BYTE PTR _bUseAsyncRandom$[ebp]
	test	ecx, ecx
	je	SHORT $LN78@ChooseProd

; 783  : 	{
; 784  : 		fcn = MakeDelegate(&GC.getGame(), &CvGame::getAsyncRandNum);

	mov	edx, DWORD PTR ?gGlobals@@3VCvGlobals@@A+48
	mov	DWORD PTR $T231504[ebp], edx
	push	OFFSET ?getAsyncRandNum@CvGame@@QAEHHPBD@Z ; CvGame::getAsyncRandNum
	mov	eax, DWORD PTR $T231504[ebp]
	push	eax
	lea	ecx, DWORD PTR $T231449[ebp]
	push	ecx
	call	??$MakeDelegate@VCvGame@@V1@HPBDH@fastdelegate@@YA?AV?$FastDelegate2@HPBDH@0@PAVCvGame@@P82@AEHHPBD@Z@Z ; fastdelegate::MakeDelegate<CvGame,CvGame,int,char const *,int>
	add	esp, 12					; 0000000cH
	mov	DWORD PTR $T231520[ebp], eax
	mov	edx, DWORD PTR $T231520[ebp]
	mov	eax, DWORD PTR [edx+4]
	mov	DWORD PTR _fcn$[ebp+4], eax
	mov	ecx, DWORD PTR $T231520[ebp]
	mov	edx, DWORD PTR [ecx]
	mov	DWORD PTR _fcn$[ebp], edx

; 785  : 	}
; 786  : 	else

	jmp	SHORT $LN77@ChooseProd
$LN78@ChooseProd:

; 787  : 	{
; 788  : 		fcn = MakeDelegate(&GC.getGame(), &CvGame::getJonRandNum);

	mov	eax, DWORD PTR ?gGlobals@@3VCvGlobals@@A+48
	mov	DWORD PTR $T231524[ebp], eax
	push	OFFSET ?getJonRandNum@CvGame@@QAEHHPBD@Z ; CvGame::getJonRandNum
	mov	ecx, DWORD PTR $T231524[ebp]
	push	ecx
	lea	edx, DWORD PTR $T231450[ebp]
	push	edx
	call	??$MakeDelegate@VCvGame@@V1@HPBDH@fastdelegate@@YA?AV?$FastDelegate2@HPBDH@0@PAVCvGame@@P82@AEHHPBD@Z@Z ; fastdelegate::MakeDelegate<CvGame,CvGame,int,char const *,int>
	add	esp, 12					; 0000000cH
	mov	DWORD PTR $T231540[ebp], eax
	mov	eax, DWORD PTR $T231540[ebp]
	mov	ecx, DWORD PTR [eax+4]
	mov	DWORD PTR _fcn$[ebp+4], ecx
	mov	edx, DWORD PTR $T231540[ebp]
	mov	eax, DWORD PTR [edx]
	mov	DWORD PTR _fcn$[ebp], eax
$LN77@ChooseProd:

; 789  : 	}
; 790  : 
; 791  : 	// Reset vector holding items we can currently build
; 792  : 	m_Buildables.clear();

	mov	ecx, DWORD PTR _this$[ebp]
	add	ecx, 56					; 00000038H
	mov	DWORD PTR $T231571[ebp], ecx
	xor	edx, edx
	je	SHORT $LN125@ChooseProd
	mov	DWORD PTR _i$231566[ebp], 0
	jmp	SHORT $LN123@ChooseProd
$LN122@ChooseProd:
	mov	eax, DWORD PTR _i$231566[ebp]
	add	eax, 1
	mov	DWORD PTR _i$231566[ebp], eax
$LN123@ChooseProd:
	mov	ecx, DWORD PTR $T231571[ebp]
	mov	edx, DWORD PTR _i$231566[ebp]
	cmp	edx, DWORD PTR [ecx+4]
	jae	SHORT $LN125@ChooseProd
	jmp	SHORT $LN122@ChooseProd
$LN125@ChooseProd:
	mov	eax, DWORD PTR $T231571[ebp]
	mov	DWORD PTR [eax+4], 0

; 793  : 
; 794  : 	EconomicAIStrategyTypes eStrategyEnoughSettlers = (EconomicAIStrategyTypes) GC.getInfoTypeForString("ECONOMICAISTRATEGY_ENOUGH_EXPANSION");

	push	0
	push	OFFSET ??_C@_0CE@OFIOLJNP@ECONOMICAISTRATEGY_ENOUGH_EXPANS@
	mov	ecx, OFFSET ?gGlobals@@3VCvGlobals@@A	; gGlobals
	call	?getInfoTypeForString@CvGlobals@@QBEHPBD_N@Z ; CvGlobals::getInfoTypeForString
	mov	DWORD PTR _eStrategyEnoughSettlers$[ebp], eax

; 795  : 	bool bEnoughSettlers = kPlayer.GetEconomicAI()->IsUsingStrategy(eStrategyEnoughSettlers);

	mov	ecx, DWORD PTR _eStrategyEnoughSettlers$[ebp]
	push	ecx
	mov	ecx, DWORD PTR _kPlayer$[ebp]
	call	?GetEconomicAI@CvPlayer@@QBEPAVCvEconomicAI@@XZ ; CvPlayer::GetEconomicAI
	mov	ecx, eax
	call	?IsUsingStrategy@CvEconomicAI@@QAE_NW4EconomicAIStrategyTypes@@@Z ; CvEconomicAI::IsUsingStrategy
	mov	BYTE PTR _bEnoughSettlers$[ebp], al

; 796  : 
; 797  : 	// Check units for operations first
; 798  : 	eUnitForOperation = m_pCity->GetUnitForOperation();

	mov	edx, DWORD PTR _this$[ebp]
	mov	ecx, DWORD PTR [edx+12]
	call	?GetUnitForOperation@CvCity@@QAE?AW4UnitTypes@@XZ ; CvCity::GetUnitForOperation
	mov	DWORD PTR _eUnitForOperation$[ebp], eax

; 799  : 	if(eUnitForOperation != NO_UNIT)

	cmp	DWORD PTR _eUnitForOperation$[ebp], -1
	je	$LN76@ChooseProd

; 800  : 	{
; 801  : 		buildable.m_eBuildableType = CITY_BUILDABLE_UNIT_FOR_OPERATION;

	mov	DWORD PTR _buildable$[ebp], 5

; 802  : 		buildable.m_iIndex = (int)eUnitForOperation;

	mov	eax, DWORD PTR _eUnitForOperation$[ebp]
	mov	DWORD PTR _buildable$[ebp+4], eax

; 803  : 		buildable.m_iTurnsToConstruct = GetCity()->getProductionTurnsLeft(eUnitForOperation, 0);

	push	0
	mov	ecx, DWORD PTR _eUnitForOperation$[ebp]
	push	ecx
	mov	ecx, DWORD PTR _this$[ebp]
	call	?GetCity@CvCityStrategyAI@@QAEPAVCvCity@@XZ ; CvCityStrategyAI::GetCity
	mov	ecx, eax
	call	?getProductionTurnsLeft@CvCity@@QBEHW4UnitTypes@@H@Z ; CvCity::getProductionTurnsLeft
	mov	DWORD PTR _buildable$[ebp+8], eax

; 804  : 		iTempWeight = GC.getAI_CITYSTRATEGY_OPERATION_UNIT_BASE_WEIGHT();

	mov	edx, DWORD PTR ?gGlobals@@3VCvGlobals@@A+2364
	mov	DWORD PTR _iTempWeight$[ebp], edx

; 805  : 		int iOffenseFlavor = kPlayer.GetGrandStrategyAI()->GetPersonalityAndGrandStrategy((FlavorTypes)GC.getInfoTypeForString("FLAVOR_OFFENSE")) + kPlayer.GetMilitaryAI()->GetNumberOfTimesOpsBuildSkippedOver();

	mov	ecx, DWORD PTR _kPlayer$[ebp]
	call	?GetMilitaryAI@CvPlayer@@QBEPAVCvMilitaryAI@@XZ ; CvPlayer::GetMilitaryAI
	mov	DWORD PTR $T231578[ebp], eax
	mov	eax, DWORD PTR $T231578[ebp]
	mov	ecx, DWORD PTR [eax+48]
	mov	DWORD PTR $T231579[ebp], ecx
	push	0
	push	OFFSET ??_C@_0P@ELMNBNJP@FLAVOR_OFFENSE?$AA@
	mov	ecx, OFFSET ?gGlobals@@3VCvGlobals@@A	; gGlobals
	call	?getInfoTypeForString@CvGlobals@@QBEHPBD_N@Z ; CvGlobals::getInfoTypeForString
	push	eax
	mov	ecx, DWORD PTR _kPlayer$[ebp]
	call	?GetGrandStrategyAI@CvPlayer@@QBEPAVCvGrandStrategyAI@@XZ ; CvPlayer::GetGrandStrategyAI
	mov	ecx, eax
	call	?GetPersonalityAndGrandStrategy@CvGrandStrategyAI@@QAEHW4FlavorTypes@@@Z ; CvGrandStrategyAI::GetPersonalityAndGrandStrategy
	add	eax, DWORD PTR $T231579[ebp]
	mov	DWORD PTR _iOffenseFlavor$225833[ebp], eax

; 806  : 		iTempWeight += (GC.getAI_CITYSTRATEGY_OPERATION_UNIT_FLAVOR_MULTIPLIER() * iOffenseFlavor);

	mov	edx, DWORD PTR ?gGlobals@@3VCvGlobals@@A+2368
	mov	DWORD PTR $T231583[ebp], edx
	mov	eax, DWORD PTR $T231583[ebp]
	imul	eax, DWORD PTR _iOffenseFlavor$225833[ebp]
	add	eax, DWORD PTR _iTempWeight$[ebp]
	mov	DWORD PTR _iTempWeight$[ebp], eax

; 807  : 
; 808  : 		if(GetSpecialization() != NO_CITY_SPECIALIZATION && GC.getCitySpecializationInfo(GetSpecialization())->IsOperationUnitProvider())

	mov	ecx, DWORD PTR _this$[ebp]
	mov	edx, DWORD PTR [ecx+20]
	mov	DWORD PTR $T231587[ebp], edx
	cmp	DWORD PTR $T231587[ebp], -1
	je	SHORT $LN75@ChooseProd
	mov	eax, DWORD PTR _this$[ebp]
	mov	ecx, DWORD PTR [eax+20]
	mov	DWORD PTR $T231591[ebp], ecx
	mov	edx, DWORD PTR $T231591[ebp]
	push	edx
	mov	ecx, OFFSET ?gGlobals@@3VCvGlobals@@A	; gGlobals
	call	?getCitySpecializationInfo@CvGlobals@@QAEPAVCvCitySpecializationXMLEntry@@W4CitySpecializationTypes@@@Z ; CvGlobals::getCitySpecializationInfo
	mov	ecx, eax
	call	?IsOperationUnitProvider@CvCitySpecializationXMLEntry@@QBE_NXZ ; CvCitySpecializationXMLEntry::IsOperationUnitProvider
	movzx	eax, al
	test	eax, eax
	je	SHORT $LN75@ChooseProd

; 809  : 		{
; 810  : 			iTempWeight *= 5;

	mov	ecx, DWORD PTR _iTempWeight$[ebp]
	imul	ecx, 5
	mov	DWORD PTR _iTempWeight$[ebp], ecx
$LN75@ChooseProd:

; 811  : 		}
; 812  : 
; 813  : 		// add in the weight of this unit as if I were deciding to build it without having a reason
; 814  : 		iTempWeight += m_pUnitProductionAI->GetWeight(eUnitForOperation);

	mov	edx, DWORD PTR _eUnitForOperation$[ebp]
	push	edx
	mov	eax, DWORD PTR _this$[ebp]
	mov	ecx, DWORD PTR [eax+44]
	call	?GetWeight@CvUnitProductionAI@@QAEHW4UnitTypes@@@Z ; CvUnitProductionAI::GetWeight
	add	eax, DWORD PTR _iTempWeight$[ebp]
	mov	DWORD PTR _iTempWeight$[ebp], eax

; 815  : 
; 816  : 		CvUnitEntry* pkUnitEntry = GC.getUnitInfo(eUnitForOperation);

	mov	ecx, DWORD PTR _eUnitForOperation$[ebp]
	push	ecx
	mov	ecx, OFFSET ?gGlobals@@3VCvGlobals@@A	; gGlobals
	call	?getUnitInfo@CvGlobals@@QAEPAVCvUnitEntry@@W4UnitTypes@@@Z ; CvGlobals::getUnitInfo
	mov	DWORD PTR _pkUnitEntry$225837[ebp], eax

; 817  : 		if(pkUnitEntry && pkUnitEntry->GetDefaultUnitAIType() == UNITAI_SETTLE)

	cmp	DWORD PTR _pkUnitEntry$225837[ebp], 0
	je	SHORT $LN74@ChooseProd
	mov	ecx, DWORD PTR _pkUnitEntry$225837[ebp]
	call	?GetDefaultUnitAIType@CvUnitEntry@@QBEHXZ ; CvUnitEntry::GetDefaultUnitAIType
	cmp	eax, 1
	jne	SHORT $LN74@ChooseProd

; 818  : 		{
; 819  : 			if(bEnoughSettlers)

	movzx	edx, BYTE PTR _bEnoughSettlers$[ebp]
	test	edx, edx
	je	SHORT $LN73@ChooseProd

; 820  : 			{
; 821  : 				iTempWeight = 0;

	mov	DWORD PTR _iTempWeight$[ebp], 0

; 822  : 			}
; 823  : 			else

	jmp	SHORT $LN74@ChooseProd
$LN73@ChooseProd:

; 824  : 			{
; 825  : 				int iBestArea, iSecondBestArea;
; 826  : 				int iNumGoodAreas = kPlayer.GetBestSettleAreas(kPlayer.GetEconomicAI()->GetMinimumSettleFertility(), iBestArea, iSecondBestArea);

	mov	ecx, DWORD PTR _kPlayer$[ebp]
	call	?GetEconomicAI@CvPlayer@@QBEPAVCvEconomicAI@@XZ ; CvPlayer::GetEconomicAI
	mov	DWORD PTR $T231595[ebp], eax
	mov	eax, DWORD PTR $T231595[ebp]
	mov	ecx, DWORD PTR [eax+48]
	mov	DWORD PTR $T231596[ebp], ecx
	lea	edx, DWORD PTR _iSecondBestArea$225842[ebp]
	push	edx
	lea	eax, DWORD PTR _iBestArea$225841[ebp]
	push	eax
	mov	ecx, DWORD PTR $T231596[ebp]
	push	ecx
	mov	ecx, DWORD PTR _kPlayer$[ebp]
	call	?GetBestSettleAreas@CvPlayer@@QAEHHAAH0@Z ; CvPlayer::GetBestSettleAreas
	mov	DWORD PTR _iNumGoodAreas$225843[ebp], eax

; 827  : 				if(iNumGoodAreas == 0)

	cmp	DWORD PTR _iNumGoodAreas$225843[ebp], 0
	jne	SHORT $LN74@ChooseProd

; 828  : 				{
; 829  : 					iTempWeight = 0;

	mov	DWORD PTR _iTempWeight$[ebp], 0
$LN74@ChooseProd:

; 830  : 				}
; 831  : 			}
; 832  : 		}
; 833  : 
; 834  : 		if (iTempWeight > 0)

	cmp	DWORD PTR _iTempWeight$[ebp], 0
	jle	$LN76@ChooseProd

; 835  : 		{
; 836  : 			m_Buildables.push_back(buildable, iTempWeight);

	mov	DWORD PTR _weightedElem$231612[ebp], 0
	mov	DWORD PTR _weightedElem$231612[ebp+4], 0
	mov	DWORD PTR _weightedElem$231612[ebp+8], 0
	mov	DWORD PTR _weightedElem$231612[ebp+12], 0
	mov	edx, DWORD PTR _buildable$[ebp]
	mov	DWORD PTR _weightedElem$231612[ebp], edx
	mov	eax, DWORD PTR _buildable$[ebp+4]
	mov	DWORD PTR _weightedElem$231612[ebp+4], eax
	mov	ecx, DWORD PTR _buildable$[ebp+8]
	mov	DWORD PTR _weightedElem$231612[ebp+8], ecx
	mov	edx, DWORD PTR _iTempWeight$[ebp]
	mov	DWORD PTR _weightedElem$231612[ebp+12], edx
	lea	eax, DWORD PTR _weightedElem$231612[ebp]
	push	eax
	mov	ecx, DWORD PTR _this$[ebp]
	add	ecx, 56					; 00000038H
	call	?push_back@?$FStaticVector@UWeightedElement@?$CvWeightedVector@UCvCityBuildable@@$0OB@$00@@$0OB@$00$0A@$0A@@@QAEIABUWeightedElement@?$CvWeightedVector@UCvCityBuildable@@$0OB@$00@@@Z ; FStaticVector<CvWeightedVector<CvCityBuildable,225,1>::WeightedElement,225,1,0,0>::push_back

; 837  : 			kPlayer.GetMilitaryAI()->BumpNumberOfTimesOpsBuildSkippedOver();

	mov	ecx, DWORD PTR _kPlayer$[ebp]
	call	?GetMilitaryAI@CvPlayer@@QBEPAVCvMilitaryAI@@XZ ; CvPlayer::GetMilitaryAI
	mov	DWORD PTR $T231616[ebp], eax
	mov	ecx, DWORD PTR $T231616[ebp]
	mov	edx, DWORD PTR [ecx+48]
	add	edx, 1
	mov	eax, DWORD PTR $T231616[ebp]
	mov	DWORD PTR [eax+48], edx
$LN76@ChooseProd:

; 838  : 		}
; 839  : 
; 840  : 	}
; 841  : 
; 842  : 	// Next units for sneak attack armies
; 843  : 	eUnitForArmy = kPlayer.GetMilitaryAI()->GetUnitForArmy(GetCity());

	mov	ecx, DWORD PTR _this$[ebp]
	call	?GetCity@CvCityStrategyAI@@QAEPAVCvCity@@XZ ; CvCityStrategyAI::GetCity
	push	eax
	mov	ecx, DWORD PTR _kPlayer$[ebp]
	call	?GetMilitaryAI@CvPlayer@@QBEPAVCvMilitaryAI@@XZ ; CvPlayer::GetMilitaryAI
	mov	ecx, eax
	call	?GetUnitForArmy@CvMilitaryAI@@QBE?AW4UnitTypes@@PAVCvCity@@@Z ; CvMilitaryAI::GetUnitForArmy
	mov	DWORD PTR _eUnitForArmy$[ebp], eax

; 844  : 	if(eUnitForArmy != NO_UNIT)

	cmp	DWORD PTR _eUnitForArmy$[ebp], -1
	je	$LN69@ChooseProd

; 845  : 	{
; 846  : 		buildable.m_eBuildableType = CITY_BUILDABLE_UNIT_FOR_ARMY;

	mov	DWORD PTR _buildable$[ebp], 6

; 847  : 		buildable.m_iIndex = (int)eUnitForArmy;

	mov	ecx, DWORD PTR _eUnitForArmy$[ebp]
	mov	DWORD PTR _buildable$[ebp+4], ecx

; 848  : 		buildable.m_iTurnsToConstruct = GetCity()->getProductionTurnsLeft(eUnitForArmy, 0);

	push	0
	mov	edx, DWORD PTR _eUnitForArmy$[ebp]
	push	edx
	mov	ecx, DWORD PTR _this$[ebp]
	call	?GetCity@CvCityStrategyAI@@QAEPAVCvCity@@XZ ; CvCityStrategyAI::GetCity
	mov	ecx, eax
	call	?getProductionTurnsLeft@CvCity@@QBEHW4UnitTypes@@H@Z ; CvCity::getProductionTurnsLeft
	mov	DWORD PTR _buildable$[ebp+8], eax

; 849  : 		iTempWeight = GC.getAI_CITYSTRATEGY_ARMY_UNIT_BASE_WEIGHT();

	mov	eax, DWORD PTR ?gGlobals@@3VCvGlobals@@A+2372
	mov	DWORD PTR _iTempWeight$[ebp], eax

; 850  : 		int iOffenseFlavor = kPlayer.GetGrandStrategyAI()->GetPersonalityAndGrandStrategy((FlavorTypes)GC.getInfoTypeForString("FLAVOR_OFFENSE"));

	push	0
	push	OFFSET ??_C@_0P@ELMNBNJP@FLAVOR_OFFENSE?$AA@
	mov	ecx, OFFSET ?gGlobals@@3VCvGlobals@@A	; gGlobals
	call	?getInfoTypeForString@CvGlobals@@QBEHPBD_N@Z ; CvGlobals::getInfoTypeForString
	push	eax
	mov	ecx, DWORD PTR _kPlayer$[ebp]
	call	?GetGrandStrategyAI@CvPlayer@@QBEPAVCvGrandStrategyAI@@XZ ; CvPlayer::GetGrandStrategyAI
	mov	ecx, eax
	call	?GetPersonalityAndGrandStrategy@CvGrandStrategyAI@@QAEHW4FlavorTypes@@@Z ; CvGrandStrategyAI::GetPersonalityAndGrandStrategy
	mov	DWORD PTR _iOffenseFlavor$225848[ebp], eax

; 851  : 		int iBonusMultiplier = max(1,GC.getGame().getHandicapInfo().GetID() - 5); // more at the higher difficulties

	mov	ecx, DWORD PTR ?gGlobals@@3VCvGlobals@@A+48
	mov	DWORD PTR $T231623[ebp], ecx
	mov	ecx, DWORD PTR $T231623[ebp]
	call	?getHandicapInfo@CvGame@@QBEAAVCvHandicapInfo@@XZ ; CvGame::getHandicapInfo
	mov	DWORD PTR $T231627[ebp], eax
	mov	edx, DWORD PTR $T231627[ebp]
	mov	eax, DWORD PTR [edx+4]
	mov	DWORD PTR $T231628[ebp], eax
	mov	ecx, DWORD PTR $T231628[ebp]
	sub	ecx, 5
	mov	DWORD PTR $T231451[ebp], ecx
	mov	DWORD PTR $T231452[ebp], 1
	mov	edx, DWORD PTR $T231452[ebp]
	cmp	edx, DWORD PTR $T231451[ebp]
	jge	SHORT $LN155@ChooseProd
	lea	eax, DWORD PTR $T231451[ebp]
	mov	DWORD PTR tv256[ebp], eax
	jmp	SHORT $LN156@ChooseProd
$LN155@ChooseProd:
	lea	ecx, DWORD PTR $T231452[ebp]
	mov	DWORD PTR tv256[ebp], ecx
$LN156@ChooseProd:
	mov	edx, DWORD PTR tv256[ebp]
	mov	DWORD PTR $T231634[ebp], edx
	mov	eax, DWORD PTR $T231634[ebp]
	mov	ecx, DWORD PTR [eax]
	mov	DWORD PTR _iBonusMultiplier$225850[ebp], ecx

; 852  : 		iTempWeight += (GC.getAI_CITYSTRATEGY_OPERATION_UNIT_FLAVOR_MULTIPLIER() * iOffenseFlavor * iBonusMultiplier);

	mov	edx, DWORD PTR ?gGlobals@@3VCvGlobals@@A+2368
	mov	DWORD PTR $T231641[ebp], edx
	mov	eax, DWORD PTR $T231641[ebp]
	imul	eax, DWORD PTR _iOffenseFlavor$225848[ebp]
	imul	eax, DWORD PTR _iBonusMultiplier$225850[ebp]
	add	eax, DWORD PTR _iTempWeight$[ebp]
	mov	DWORD PTR _iTempWeight$[ebp], eax

; 853  : 		// add in the weight of this unit as if I were deciding to build it without having a reason
; 854  : 		iTempWeight += m_pUnitProductionAI->GetWeight(eUnitForArmy);

	mov	ecx, DWORD PTR _eUnitForArmy$[ebp]
	push	ecx
	mov	edx, DWORD PTR _this$[ebp]
	mov	ecx, DWORD PTR [edx+44]
	call	?GetWeight@CvUnitProductionAI@@QAEHW4UnitTypes@@@Z ; CvUnitProductionAI::GetWeight
	add	eax, DWORD PTR _iTempWeight$[ebp]
	mov	DWORD PTR _iTempWeight$[ebp], eax

; 855  : 
; 856  : 		if (iTempWeight > 0)

	cmp	DWORD PTR _iTempWeight$[ebp], 0
	jle	SHORT $LN69@ChooseProd

; 857  : 		{
; 858  : 			m_Buildables.push_back(buildable, iTempWeight);

	mov	DWORD PTR _weightedElem$231657[ebp], 0
	mov	DWORD PTR _weightedElem$231657[ebp+4], 0
	mov	DWORD PTR _weightedElem$231657[ebp+8], 0
	mov	DWORD PTR _weightedElem$231657[ebp+12], 0
	mov	eax, DWORD PTR _buildable$[ebp]
	mov	DWORD PTR _weightedElem$231657[ebp], eax
	mov	ecx, DWORD PTR _buildable$[ebp+4]
	mov	DWORD PTR _weightedElem$231657[ebp+4], ecx
	mov	edx, DWORD PTR _buildable$[ebp+8]
	mov	DWORD PTR _weightedElem$231657[ebp+8], edx
	mov	eax, DWORD PTR _iTempWeight$[ebp]
	mov	DWORD PTR _weightedElem$231657[ebp+12], eax
	lea	ecx, DWORD PTR _weightedElem$231657[ebp]
	push	ecx
	mov	ecx, DWORD PTR _this$[ebp]
	add	ecx, 56					; 00000038H
	call	?push_back@?$FStaticVector@UWeightedElement@?$CvWeightedVector@UCvCityBuildable@@$0OB@$00@@$0OB@$00$0A@$0A@@@QAEIABUWeightedElement@?$CvWeightedVector@UCvCityBuildable@@$0OB@$00@@@Z ; FStaticVector<CvWeightedVector<CvCityBuildable,225,1>::WeightedElement,225,1,0,0>::push_back
$LN69@ChooseProd:

; 859  : 		}
; 860  : 	}
; 861  : 
; 862  : #ifdef AUI_CITYSTRATEGY_FIX_CHOOSE_PRODUCTION_SLIDING_LOGISTIC_MAINTENANCE_SCALE
; 863  : 	bool bCapitolConnectedHasHarbor = false;
; 864  : 	if (GetCity()->IsPuppet() && !GetCity()->IsRouteToCapitalConnected())
; 865  : 	{
; 866  : 		int iLoop;
; 867  : 		const CvPlayer* pPlayer = GetCity()->GetPlayer();
; 868  : 		const CvCity* pLoopCity;
; 869  : 		for (uint uiBuildingTypes = 0; uiBuildingTypes < GC.GetGameBuildings()->GetNumBuildings(); uiBuildingTypes++)
; 870  : 		{
; 871  : 			const BuildingTypes eHarborBuilding = static_cast<BuildingTypes>(uiBuildingTypes);
; 872  : 			CvBuildingEntry* pkHarborBuildingInfo = GC.getBuildingInfo(eHarborBuilding);
; 873  : 			if (pkHarborBuildingInfo && pkHarborBuildingInfo->AllowsWaterRoutes())
; 874  : 			{
; 875  : 				for (pLoopCity = pPlayer->firstCity(&iLoop); pLoopCity != NULL; pLoopCity = pPlayer->nextCity(&iLoop))
; 876  : 				{
; 877  : 					if (pLoopCity->IsRouteToCapitalConnected() && pLoopCity->GetCityBuildings()->GetNumActiveBuilding(eHarborBuilding) > 0)
; 878  : 					{
; 879  : 						bCapitolConnectedHasHarbor = true;
; 880  : 						goto EndHarborLoop;
; 881  : 					}
; 882  : 				}
; 883  : 			}
; 884  : 		}
; 885  : 	}
; 886  : EndHarborLoop:;
; 887  : #endif
; 888  : 
; 889  : 	// Loop through adding the available buildings
; 890  : 	for(iBldgLoop = 0; iBldgLoop < GC.GetGameBuildings()->GetNumBuildings(); iBldgLoop++)

	mov	DWORD PTR _iBldgLoop$[ebp], 0
	jmp	SHORT $LN67@ChooseProd
$LN66@ChooseProd:
	mov	edx, DWORD PTR _iBldgLoop$[ebp]
	add	edx, 1
	mov	DWORD PTR _iBldgLoop$[ebp], edx
$LN67@ChooseProd:
	mov	ecx, OFFSET ?gGlobals@@3VCvGlobals@@A	; gGlobals
	call	?GetGameBuildings@CvGlobals@@QBEPAVCvBuildingXMLEntries@@XZ ; CvGlobals::GetGameBuildings
	mov	ecx, eax
	call	?GetNumBuildings@CvBuildingXMLEntries@@QAEHXZ ; CvBuildingXMLEntries::GetNumBuildings
	cmp	DWORD PTR _iBldgLoop$[ebp], eax
	jge	$LN65@ChooseProd

; 891  : 	{
; 892  : 		const BuildingTypes eLoopBuilding = static_cast<BuildingTypes>(iBldgLoop);

	mov	eax, DWORD PTR _iBldgLoop$[ebp]
	mov	DWORD PTR _eLoopBuilding$225857[ebp], eax

; 893  : 		CvBuildingEntry* pkBuildingInfo = GC.getBuildingInfo(eLoopBuilding);

	mov	ecx, DWORD PTR _eLoopBuilding$225857[ebp]
	push	ecx
	mov	ecx, OFFSET ?gGlobals@@3VCvGlobals@@A	; gGlobals
	call	?getBuildingInfo@CvGlobals@@QAEPAVCvBuildingEntry@@W4BuildingTypes@@@Z ; CvGlobals::getBuildingInfo
	mov	DWORD PTR _pkBuildingInfo$225859[ebp], eax

; 894  : 
; 895  : 		//Skip if null
; 896  : 		if(pkBuildingInfo == NULL)

	cmp	DWORD PTR _pkBuildingInfo$225859[ebp], 0
	jne	SHORT $LN64@ChooseProd

; 897  : 			continue;

	jmp	SHORT $LN66@ChooseProd
$LN64@ChooseProd:

; 898  : 
; 899  : 		// Make sure this building can be built now
; 900  : #ifdef AUI_WARNING_FIXES
; 901  : 		if (iBldgLoop != uint(eIgnoreBldg) && m_pCity->canConstruct(eLoopBuilding))
; 902  : #else
; 903  : 		if(iBldgLoop != eIgnoreBldg && m_pCity->canConstruct(eLoopBuilding))

	mov	edx, DWORD PTR _iBldgLoop$[ebp]
	cmp	edx, DWORD PTR _eIgnoreBldg$[ebp]
	je	$LN63@ChooseProd
	push	0
	push	0
	push	0
	push	0
	mov	eax, DWORD PTR _eLoopBuilding$225857[ebp]
	push	eax
	mov	ecx, DWORD PTR _this$[ebp]
	mov	ecx, DWORD PTR [ecx+12]
	call	?canConstruct@CvCity@@QBE_NW4BuildingTypes@@_N11PAVCvString@@@Z ; CvCity::canConstruct
	movzx	edx, al
	test	edx, edx
	je	$LN63@ChooseProd

; 904  : #endif
; 905  : 		{
; 906  : 			buildable.m_eBuildableType = CITY_BUILDABLE_BUILDING;

	mov	DWORD PTR _buildable$[ebp], 1

; 907  : 			buildable.m_iIndex = iBldgLoop;

	mov	eax, DWORD PTR _iBldgLoop$[ebp]
	mov	DWORD PTR _buildable$[ebp+4], eax

; 908  : 			buildable.m_iTurnsToConstruct = GetCity()->getProductionTurnsLeft(eLoopBuilding, 0);

	push	0
	mov	ecx, DWORD PTR _eLoopBuilding$225857[ebp]
	push	ecx
	mov	ecx, DWORD PTR _this$[ebp]
	call	?GetCity@CvCityStrategyAI@@QAEPAVCvCity@@XZ ; CvCityStrategyAI::GetCity
	mov	ecx, eax
	call	?getProductionTurnsLeft@CvCity@@QBEHW4BuildingTypes@@H@Z ; CvCity::getProductionTurnsLeft
	mov	DWORD PTR _buildable$[ebp+8], eax

; 909  : 
; 910  : 			iTempWeight = m_pBuildingProductionAI->GetWeight(eLoopBuilding);

	mov	edx, DWORD PTR _eLoopBuilding$225857[ebp]
	push	edx
	mov	eax, DWORD PTR _this$[ebp]
	mov	ecx, DWORD PTR [eax+40]
	call	?GetWeight@CvBuildingProductionAI@@QAEHW4BuildingTypes@@@Z ; CvBuildingProductionAI::GetWeight
	mov	DWORD PTR _iTempWeight$[ebp], eax

; 911  : 
; 912  : 			// Don't build the UN if you aren't going for the diplo victory
; 913  : 			if(pkBuildingInfo->IsDiplomaticVoting())

	mov	ecx, DWORD PTR _pkBuildingInfo$225859[ebp]
	call	?IsDiplomaticVoting@CvBuildingEntry@@QBE_NXZ ; CvBuildingEntry::IsDiplomaticVoting
	movzx	ecx, al
	test	ecx, ecx
	je	$LN62@ChooseProd

; 914  : 			{
; 915  : 				int iVotesNeededToWin = GC.getGame().GetVotesNeededForDiploVictory();

	mov	edx, DWORD PTR ?gGlobals@@3VCvGlobals@@A+48
	mov	DWORD PTR $T231661[ebp], edx
	mov	ecx, DWORD PTR $T231661[ebp]
	call	?GetVotesNeededForDiploVictory@CvGame@@QBEHXZ ; CvGame::GetVotesNeededForDiploVictory
	mov	DWORD PTR _iVotesNeededToWin$225863[ebp], eax

; 916  : 				int iSecuredVotes = 0;

	mov	DWORD PTR _iSecuredVotes$225864[ebp], 0

; 917  : 				TeamTypes myTeamID = kPlayer.getTeam();

	mov	eax, DWORD PTR _kPlayer$[ebp]
	mov	ecx, DWORD PTR [eax+44]
	push	ecx
	call	?teamType@CvPreGame@@YA?AW4TeamTypes@@W4PlayerTypes@@@Z ; CvPreGame::teamType
	add	esp, 4
	mov	DWORD PTR _myTeamID$225865[ebp], eax

; 918  : 				PlayerTypes myPlayerID = kPlayer.GetID();

	mov	edx, DWORD PTR _kPlayer$[ebp]
	mov	eax, DWORD PTR [edx+44]
	mov	DWORD PTR _myPlayerID$225866[ebp], eax

; 919  : 
; 920  : 				// Loop through Players to see if they'll vote for this player
; 921  : 				PlayerTypes eLoopPlayer;
; 922  : 				TeamTypes eLoopTeam;
; 923  : 				for(int iPlayerLoop = 0; iPlayerLoop < MAX_CIV_PLAYERS; iPlayerLoop++)

	mov	DWORD PTR _iPlayerLoop$225869[ebp], 0
	jmp	SHORT $LN61@ChooseProd
$LN60@ChooseProd:
	mov	ecx, DWORD PTR _iPlayerLoop$225869[ebp]
	add	ecx, 1
	mov	DWORD PTR _iPlayerLoop$225869[ebp], ecx
$LN61@ChooseProd:
	cmp	DWORD PTR _iPlayerLoop$225869[ebp], 63	; 0000003fH
	jge	$LN59@ChooseProd

; 924  : 				{
; 925  : 					eLoopPlayer = (PlayerTypes) iPlayerLoop;

	mov	edx, DWORD PTR _iPlayerLoop$225869[ebp]
	mov	DWORD PTR _eLoopPlayer$225867[ebp], edx

; 926  : 
; 927  : 					if(GET_PLAYER(eLoopPlayer).isAlive())

	mov	eax, DWORD PTR _eLoopPlayer$225867[ebp]
	imul	eax, 63236				; 0000f704H
	add	eax, DWORD PTR ?m_aPlayers@CvPlayerAI@@1PAV1@A ; CvPlayerAI::m_aPlayers
	mov	DWORD PTR $T231681[ebp], eax
	mov	ecx, DWORD PTR $T231681[ebp]
	mov	dl, BYTE PTR [ecx+2256]
	mov	BYTE PTR $T231690[ebp], dl
	movzx	eax, BYTE PTR $T231690[ebp]
	test	eax, eax
	je	$LN58@ChooseProd

; 928  : 					{
; 929  : 						eLoopTeam = GET_PLAYER(eLoopPlayer).getTeam();

	mov	ecx, DWORD PTR _eLoopPlayer$225867[ebp]
	imul	ecx, 63236				; 0000f704H
	add	ecx, DWORD PTR ?m_aPlayers@CvPlayerAI@@1PAV1@A ; CvPlayerAI::m_aPlayers
	mov	DWORD PTR $T231694[ebp], ecx
	mov	edx, DWORD PTR $T231694[ebp]
	mov	eax, DWORD PTR [edx+44]
	push	eax
	call	?teamType@CvPreGame@@YA?AW4TeamTypes@@W4PlayerTypes@@@Z ; CvPreGame::teamType
	add	esp, 4
	mov	DWORD PTR _eLoopTeam$225868[ebp], eax

; 930  : 
; 931  : 						// Liberated?
; 932  : 						if(GET_TEAM(eLoopTeam).GetLiberatedByTeam() == myTeamID)

	mov	ecx, DWORD PTR _eLoopTeam$225868[ebp]
	imul	ecx, 2984				; 00000ba8H
	add	ecx, DWORD PTR ?m_aTeams@CvTeam@@1PAV1@A ; CvTeam::m_aTeams
	mov	DWORD PTR $T231706[ebp], ecx
	mov	ecx, DWORD PTR $T231706[ebp]
	call	?GetLiberatedByTeam@CvTeam@@QBE?AW4TeamTypes@@XZ ; CvTeam::GetLiberatedByTeam
	cmp	eax, DWORD PTR _myTeamID$225865[ebp]
	jne	SHORT $LN57@ChooseProd

; 933  : 						{
; 934  : 							iSecuredVotes++;

	mov	edx, DWORD PTR _iSecuredVotes$225864[ebp]
	add	edx, 1
	mov	DWORD PTR _iSecuredVotes$225864[ebp], edx
	jmp	SHORT $LN58@ChooseProd
$LN57@ChooseProd:

; 935  : 						}
; 936  : 
; 937  : 						// Minor civ?
; 938  : 						else if(GET_PLAYER(eLoopPlayer).isMinorCiv())

	mov	eax, DWORD PTR _eLoopPlayer$225867[ebp]
	imul	eax, 63236				; 0000f704H
	add	eax, DWORD PTR ?m_aPlayers@CvPlayerAI@@1PAV1@A ; CvPlayerAI::m_aPlayers
	mov	DWORD PTR $T231710[ebp], eax
	mov	ecx, DWORD PTR $T231710[ebp]
	call	?isMinorCiv@CvPlayer@@QBE_NXZ		; CvPlayer::isMinorCiv
	movzx	ecx, al
	test	ecx, ecx
	je	SHORT $LN58@ChooseProd

; 939  : 						{
; 940  : 							// Best Relations?
; 941  : 							if(GET_PLAYER(eLoopPlayer).GetMinorCivAI()->GetAlly() == myPlayerID)

	mov	edx, DWORD PTR _eLoopPlayer$225867[ebp]
	imul	edx, 63236				; 0000f704H
	add	edx, DWORD PTR ?m_aPlayers@CvPlayerAI@@1PAV1@A ; CvPlayerAI::m_aPlayers
	mov	DWORD PTR $T231714[ebp], edx
	mov	ecx, DWORD PTR $T231714[ebp]
	call	?GetMinorCivAI@CvPlayer@@QBEPAVCvMinorCivAI@@XZ ; CvPlayer::GetMinorCivAI
	mov	ecx, eax
	call	?GetAlly@CvMinorCivAI@@QBE?AW4PlayerTypes@@XZ ; CvMinorCivAI::GetAlly
	cmp	eax, DWORD PTR _myPlayerID$225866[ebp]
	jne	SHORT $LN58@ChooseProd

; 942  : 							{
; 943  : 								iSecuredVotes++;

	mov	eax, DWORD PTR _iSecuredVotes$225864[ebp]
	add	eax, 1
	mov	DWORD PTR _iSecuredVotes$225864[ebp], eax
$LN58@ChooseProd:

; 944  : 							}
; 945  : 						}
; 946  : 					}
; 947  : 				}

	jmp	$LN60@ChooseProd
$LN59@ChooseProd:

; 948  : 
; 949  : 				int iNumberOfPlayersWeNeedToBuyOff = MAX(0, iVotesNeededToWin - iSecuredVotes);

	mov	ecx, DWORD PTR _iVotesNeededToWin$225863[ebp]
	sub	ecx, DWORD PTR _iSecuredVotes$225864[ebp]
	mov	DWORD PTR $T231453[ebp], ecx
	mov	DWORD PTR $T231454[ebp], 0
	mov	edx, DWORD PTR $T231454[ebp]
	cmp	edx, DWORD PTR $T231453[ebp]
	jge	SHORT $LN195@ChooseProd
	lea	eax, DWORD PTR $T231453[ebp]
	mov	DWORD PTR tv922[ebp], eax
	jmp	SHORT $LN196@ChooseProd
$LN195@ChooseProd:
	lea	ecx, DWORD PTR $T231454[ebp]
	mov	DWORD PTR tv922[ebp], ecx
$LN196@ChooseProd:
	mov	edx, DWORD PTR tv922[ebp]
	mov	DWORD PTR $T231720[ebp], edx
	mov	eax, DWORD PTR $T231720[ebp]
	mov	ecx, DWORD PTR [eax]
	mov	DWORD PTR _iNumberOfPlayersWeNeedToBuyOff$225879[ebp], ecx

; 950  : 
; 951  : 				if(!pDiploAI  || !pDiploAI->IsGoingForDiploVictory() || kPlayer.GetTreasury()->GetGold() < iNumberOfPlayersWeNeedToBuyOff * 500)

	cmp	DWORD PTR _pDiploAI$[ebp], 0
	je	SHORT $LN52@ChooseProd
	mov	ecx, DWORD PTR _pDiploAI$[ebp]
	call	?IsGoingForDiploVictory@CvDiplomacyAI@@QAE_NXZ ; CvDiplomacyAI::IsGoingForDiploVictory
	movzx	edx, al
	test	edx, edx
	je	SHORT $LN52@ChooseProd
	mov	ecx, DWORD PTR _kPlayer$[ebp]
	call	?GetTreasury@CvPlayer@@QBEPAVCvTreasury@@XZ ; CvPlayer::GetTreasury
	mov	ecx, eax
	call	?GetGold@CvTreasury@@QBEHXZ		; CvTreasury::GetGold
	mov	ecx, DWORD PTR _iNumberOfPlayersWeNeedToBuyOff$225879[ebp]
	imul	ecx, 500				; 000001f4H
	cmp	eax, ecx
	jge	SHORT $LN62@ChooseProd
$LN52@ChooseProd:

; 952  : 				{
; 953  : 					iTempWeight = 0;

	mov	DWORD PTR _iTempWeight$[ebp], 0
$LN62@ChooseProd:

; 954  : #ifdef AUI_CITYSTRATEGY_PUPPETS_ALLOW_BAD_BUILDS_IF_NO_OTHER_CHOICE
; 955  : 					continue;
; 956  : #endif
; 957  : 				}
; 958  : 			}
; 959  : 
; 960  : #ifdef NQM_AI_GIMP_NO_WORLD_WONDERS
; 961  : 			if ((GC.getGame().isOption("GAMEOPTION_AI_TWEAKS") || GC.getGame().isOption("GAMEOPTION_AI_GIMP_NO_WORLD_WONDER")) && isWorldWonderClass(pkBuildingInfo->GetBuildingClassInfo()))

	mov	edx, DWORD PTR ?gGlobals@@3VCvGlobals@@A+48
	mov	DWORD PTR $T231727[ebp], edx
	push	OFFSET ??_C@_0BF@FAPEFALO@GAMEOPTION_AI_TWEAKS?$AA@
	mov	ecx, DWORD PTR $T231727[ebp]
	call	?isOption@CvGame@@QBE_NPBD@Z		; CvGame::isOption
	movzx	eax, al
	test	eax, eax
	jne	SHORT $LN50@ChooseProd
	mov	ecx, DWORD PTR ?gGlobals@@3VCvGlobals@@A+48
	mov	DWORD PTR $T231731[ebp], ecx
	push	OFFSET ??_C@_0CD@DIPKFMBK@GAMEOPTION_AI_GIMP_NO_WORLD_WOND@
	mov	ecx, DWORD PTR $T231731[ebp]
	call	?isOption@CvGame@@QBE_NPBD@Z		; CvGame::isOption
	movzx	edx, al
	test	edx, edx
	je	SHORT $LN51@ChooseProd
$LN50@ChooseProd:
	mov	ecx, DWORD PTR _pkBuildingInfo$225859[ebp]
	call	?GetBuildingClassInfo@CvBuildingEntry@@QBEABVCvBuildingClassInfo@@XZ ; CvBuildingEntry::GetBuildingClassInfo
	push	eax
	call	?isWorldWonderClass@@YA_NABVCvBuildingClassInfo@@@Z ; isWorldWonderClass
	add	esp, 4
	movzx	eax, al
	test	eax, eax
	je	SHORT $LN51@ChooseProd

; 962  : 			{
; 963  : 				iTempWeight = 0;

	mov	DWORD PTR _iTempWeight$[ebp], 0

; 964  : 				continue;

	jmp	$LN66@ChooseProd
$LN51@ChooseProd:

; 965  : 			}
; 966  : #endif
; 967  : 
; 968  : 			// If the City is a puppet, it avoids Wonders (because the human can't change it if he wants to build it somewhere else!)
; 969  : 			if(GetCity()->IsPuppet())

	mov	ecx, DWORD PTR _this$[ebp]
	call	?GetCity@CvCityStrategyAI@@QAEPAVCvCity@@XZ ; CvCityStrategyAI::GetCity
	mov	ecx, eax
	call	?IsPuppet@CvCity@@QBE_NXZ		; CvCity::IsPuppet
	movzx	ecx, al
	test	ecx, ecx
	je	$LN49@ChooseProd

; 970  : 			{
; 971  : 				const CvBuildingClassInfo& kBuildingClassInfo = pkBuildingInfo->GetBuildingClassInfo();

	mov	ecx, DWORD PTR _pkBuildingInfo$225859[ebp]
	call	?GetBuildingClassInfo@CvBuildingEntry@@QBEABVCvBuildingClassInfo@@XZ ; CvBuildingEntry::GetBuildingClassInfo
	mov	DWORD PTR _kBuildingClassInfo$225889[ebp], eax

; 972  : 
; 973  : 				if(isWorldWonderClass(kBuildingClassInfo) || isTeamWonderClass(kBuildingClassInfo) || isNationalWonderClass(kBuildingClassInfo) || isLimitedWonderClass(kBuildingClassInfo))

	mov	edx, DWORD PTR _kBuildingClassInfo$225889[ebp]
	push	edx
	call	?isWorldWonderClass@@YA_NABVCvBuildingClassInfo@@@Z ; isWorldWonderClass
	add	esp, 4
	movzx	eax, al
	test	eax, eax
	jne	SHORT $LN47@ChooseProd
	mov	ecx, DWORD PTR _kBuildingClassInfo$225889[ebp]
	push	ecx
	call	?isTeamWonderClass@@YA_NABVCvBuildingClassInfo@@@Z ; isTeamWonderClass
	add	esp, 4
	movzx	edx, al
	test	edx, edx
	jne	SHORT $LN47@ChooseProd
	mov	eax, DWORD PTR _kBuildingClassInfo$225889[ebp]
	push	eax
	call	?isNationalWonderClass@@YA_NABVCvBuildingClassInfo@@@Z ; isNationalWonderClass
	add	esp, 4
	movzx	ecx, al
	test	ecx, ecx
	jne	SHORT $LN47@ChooseProd
	mov	edx, DWORD PTR _kBuildingClassInfo$225889[ebp]
	push	edx
	call	?isLimitedWonderClass@@YA_NABVCvBuildingClassInfo@@@Z ; isLimitedWonderClass
	add	esp, 4
	movzx	eax, al
	test	eax, eax
	je	SHORT $LN48@ChooseProd
$LN47@ChooseProd:

; 974  : 				{
; 975  : 					iTempWeight = 0;

	mov	DWORD PTR _iTempWeight$[ebp], 0
$LN48@ChooseProd:

; 976  : #ifdef AUI_CITYSTRATEGY_PUPPETS_ALLOW_BAD_BUILDS_IF_NO_OTHER_CHOICE
; 977  : 					continue;
; 978  : #endif
; 979  : 				}
; 980  : #ifndef AUI_CITYSTRATEGY_FIX_CHOOSE_PRODUCTION_PUPPETS_NULLIFY_BARRACKS
; 981  : 				// it also avoids military training buildings - since it can't build units
; 982  : 				if(pkBuildingInfo->GetDomainFreeExperience(DOMAIN_LAND))

	push	2
	mov	ecx, DWORD PTR _pkBuildingInfo$225859[ebp]
	call	?GetDomainFreeExperience@CvBuildingEntry@@QBEHH@Z ; CvBuildingEntry::GetDomainFreeExperience
	test	eax, eax
	je	SHORT $LN46@ChooseProd

; 983  : 				{
; 984  : 					iTempWeight = 0;

	mov	DWORD PTR _iTempWeight$[ebp], 0
$LN46@ChooseProd:

; 985  : 				}
; 986  : #endif
; 987  : #ifdef AUI_CITYSTRATEGY_FIX_CHOOSE_PRODUCTION_SLIDING_LOGISTIC_MAINTENANCE_SCALE
; 988  : 				int iEffectiveMaintenanceT100 = pkBuildingInfo->GetGoldMaintenance() * (100 + GetCity()->GetPlayer()->GetBuildingGoldMaintenanceMod());
; 989  : 				int iBonusGoldFromYield = pkBuildingInfo->GetYieldChange(YIELD_GOLD) + GetCity()->getPopulation() * pkBuildingInfo->GetYieldChangePerPop(YIELD_GOLD);
; 990  : 				iBonusGoldFromYield += GetCity()->GetCityBuildings()->GetBuildingYieldChange((BuildingClassTypes)pkBuildingInfo->GetBuildingClassType(), YIELD_GOLD);
; 991  : 				iBonusGoldFromYield *= GetCity()->getYieldRateModifier(YIELD_GOLD) + pkBuildingInfo->GetYieldModifier(YIELD_GOLD);
; 992  : 				iEffectiveMaintenanceT100 -= iBonusGoldFromYield;
; 993  : 
; 994  : 				int iBonusGoldFromModifier = GetCity()->getBaseYieldRate(YIELD_GOLD) * 100;
; 995  : 				iBonusGoldFromModifier += GetCity()->GetYieldPerPopTimes100(YIELD_GOLD) * GetCity()->getPopulation();
; 996  : 				iBonusGoldFromModifier += GetCity()->GetYieldPerReligionTimes100(YIELD_GOLD) * GetCity()->GetCityReligions()->GetNumReligionsWithFollowers();
; 997  : 				iBonusGoldFromModifier *= pkBuildingInfo->GetYieldModifier(YIELD_GOLD);
; 998  : 				iEffectiveMaintenanceT100 -= iBonusGoldFromModifier;
; 999  : 
; 1000 : 				if (bCapitolConnectedHasHarbor && pkBuildingInfo->AllowsWaterRoutes())
; 1001 : 				{
; 1002 : 					iEffectiveMaintenanceT100 -= GetCity()->GetPlayer()->GetTreasury()->GetCityConnectionRouteGoldTimes100(GetCity());
; 1003 : 				}
; 1004 : 				
; 1005 : 				iTempWeight *= int(2.0 / (1.0 + exp(double(iEffectiveMaintenanceT100) / 200.0)) + 0.5);
; 1006 : #else
; 1007 : 				// they also like stuff that won't burden the empire with maintenance costs
; 1008 : 				if(pkBuildingInfo->GetGoldMaintenance() == 0)

	mov	ecx, DWORD PTR _pkBuildingInfo$225859[ebp]
	call	?GetGoldMaintenance@CvBuildingEntry@@QBEHXZ ; CvBuildingEntry::GetGoldMaintenance
	test	eax, eax
	jne	SHORT $LN45@ChooseProd

; 1009 : 				{
; 1010 : 					iTempWeight *= 2;

	mov	ecx, DWORD PTR _iTempWeight$[ebp]
	shl	ecx, 1
	mov	DWORD PTR _iTempWeight$[ebp], ecx
$LN45@ChooseProd:

; 1011 : 				}
; 1012 : #endif
; 1013 : 				// and they avoid any buildings that require resources
; 1014 : 				int iNumResources = GC.getNumResourceInfos();

	mov	ecx, OFFSET ?gGlobals@@3VCvGlobals@@A	; gGlobals
	call	?getNumResourceInfos@CvGlobals@@QAEHXZ	; CvGlobals::getNumResourceInfos
	mov	DWORD PTR _iNumResources$225894[ebp], eax

; 1015 : 				for(int iResourceLoop = 0; iResourceLoop < iNumResources; iResourceLoop++)

	mov	DWORD PTR _iResourceLoop$225895[ebp], 0
	jmp	SHORT $LN44@ChooseProd
$LN43@ChooseProd:
	mov	edx, DWORD PTR _iResourceLoop$225895[ebp]
	add	edx, 1
	mov	DWORD PTR _iResourceLoop$225895[ebp], edx
$LN44@ChooseProd:
	mov	eax, DWORD PTR _iResourceLoop$225895[ebp]
	cmp	eax, DWORD PTR _iNumResources$225894[ebp]
	jge	SHORT $LN49@ChooseProd

; 1016 : 				{
; 1017 : 					if(pkBuildingInfo->GetResourceQuantityRequirement(iResourceLoop) > 0)

	mov	ecx, DWORD PTR _iResourceLoop$225895[ebp]
	push	ecx
	mov	ecx, DWORD PTR _pkBuildingInfo$225859[ebp]
	call	?GetResourceQuantityRequirement@CvBuildingEntry@@QBEHH@Z ; CvBuildingEntry::GetResourceQuantityRequirement
	test	eax, eax
	jle	SHORT $LN41@ChooseProd

; 1018 : 					{
; 1019 : 						iTempWeight = 0;

	mov	DWORD PTR _iTempWeight$[ebp], 0
$LN41@ChooseProd:

; 1020 : #ifdef AUI_CITYSTRATEGY_PUPPETS_ALLOW_BAD_BUILDS_IF_NO_OTHER_CHOICE
; 1021 : 						break;
; 1022 : #endif
; 1023 : 					}
; 1024 : 				}

	jmp	SHORT $LN43@ChooseProd
$LN49@ChooseProd:

; 1025 : #ifdef AUI_CITYSTRATEGY_PUPPETS_ALLOW_BAD_BUILDS_IF_NO_OTHER_CHOICE
; 1026 : 				iTempWeight += 1;
; 1027 : #endif
; 1028 : 			}
; 1029 : 			if(iTempWeight > 0)

	cmp	DWORD PTR _iTempWeight$[ebp], 0
	jle	SHORT $LN63@ChooseProd

; 1030 : 				m_Buildables.push_back(buildable, iTempWeight);

	mov	DWORD PTR _weightedElem$231759[ebp], 0
	mov	DWORD PTR _weightedElem$231759[ebp+4], 0
	mov	DWORD PTR _weightedElem$231759[ebp+8], 0
	mov	DWORD PTR _weightedElem$231759[ebp+12], 0
	mov	edx, DWORD PTR _buildable$[ebp]
	mov	DWORD PTR _weightedElem$231759[ebp], edx
	mov	eax, DWORD PTR _buildable$[ebp+4]
	mov	DWORD PTR _weightedElem$231759[ebp+4], eax
	mov	ecx, DWORD PTR _buildable$[ebp+8]
	mov	DWORD PTR _weightedElem$231759[ebp+8], ecx
	mov	edx, DWORD PTR _iTempWeight$[ebp]
	mov	DWORD PTR _weightedElem$231759[ebp+12], edx
	lea	eax, DWORD PTR _weightedElem$231759[ebp]
	push	eax
	mov	ecx, DWORD PTR _this$[ebp]
	add	ecx, 56					; 00000038H
	call	?push_back@?$FStaticVector@UWeightedElement@?$CvWeightedVector@UCvCityBuildable@@$0OB@$00@@$0OB@$00$0A@$0A@@@QAEIABUWeightedElement@?$CvWeightedVector@UCvCityBuildable@@$0OB@$00@@@Z ; FStaticVector<CvWeightedVector<CvCityBuildable,225,1>::WeightedElement,225,1,0,0>::push_back
$LN63@ChooseProd:

; 1031 : 		}
; 1032 : 	}

	jmp	$LN66@ChooseProd
$LN65@ChooseProd:

; 1033 : 
; 1034 : 	// If the City is a puppet, it avoids training Units and projects
; 1035 : 	if(!GetCity()->IsPuppet())

	mov	ecx, DWORD PTR _this$[ebp]
	call	?GetCity@CvCityStrategyAI@@QAEPAVCvCity@@XZ ; CvCityStrategyAI::GetCity
	mov	ecx, eax
	call	?IsPuppet@CvCity@@QBE_NXZ		; CvCity::IsPuppet
	movzx	ecx, al
	test	ecx, ecx
	jne	$LN39@ChooseProd

; 1036 : 	{
; 1037 : 		// Loop through adding the available units
; 1038 : 		for(iUnitLoop = 0; iUnitLoop < GC.GetGameUnits()->GetNumUnits(); iUnitLoop++)

	mov	DWORD PTR _iUnitLoop$[ebp], 0
	jmp	SHORT $LN38@ChooseProd
$LN37@ChooseProd:
	mov	edx, DWORD PTR _iUnitLoop$[ebp]
	add	edx, 1
	mov	DWORD PTR _iUnitLoop$[ebp], edx
$LN38@ChooseProd:
	mov	ecx, OFFSET ?gGlobals@@3VCvGlobals@@A	; gGlobals
	call	?GetGameUnits@CvGlobals@@QBEPAVCvUnitXMLEntries@@XZ ; CvGlobals::GetGameUnits
	mov	ecx, eax
	call	?GetNumUnits@CvUnitXMLEntries@@QAEHXZ	; CvUnitXMLEntries::GetNumUnits
	cmp	DWORD PTR _iUnitLoop$[ebp], eax
	jge	$LN36@ChooseProd

; 1039 : 		{
; 1040 : 			// Make sure this unit can be built now
; 1041 : #ifdef AUI_WARNING_FIXES
; 1042 : 			if (iUnitLoop != uint(eIgnoreUnit) &&
; 1043 : #else
; 1044 : 			if(iUnitLoop != eIgnoreUnit &&
; 1045 : #endif
; 1046 : 			        //GC.GetGameBuildings()->GetEntry(iUnitLoop)->GetAdvisorType() != eIgnoreAdvisor &&
; 1047 : 			        m_pCity->canTrain((UnitTypes)iUnitLoop))

	mov	eax, DWORD PTR _iUnitLoop$[ebp]
	cmp	eax, DWORD PTR _eIgnoreUnit$[ebp]
	je	$LN35@ChooseProd
	push	0
	push	0
	push	0
	push	0
	push	0
	mov	ecx, DWORD PTR _iUnitLoop$[ebp]
	push	ecx
	mov	edx, DWORD PTR _this$[ebp]
	mov	ecx, DWORD PTR [edx+12]
	call	?canTrain@CvCity@@QBE_NW4UnitTypes@@_N111PAVCvString@@@Z ; CvCity::canTrain
	movzx	eax, al
	test	eax, eax
	je	$LN35@ChooseProd

; 1048 : 			{
; 1049 : 				buildable.m_eBuildableType = CITY_BUILDABLE_UNIT;

	mov	DWORD PTR _buildable$[ebp], 2

; 1050 : 				buildable.m_iIndex = iUnitLoop;

	mov	ecx, DWORD PTR _iUnitLoop$[ebp]
	mov	DWORD PTR _buildable$[ebp+4], ecx

; 1051 : 				buildable.m_iTurnsToConstruct = GetCity()->getProductionTurnsLeft((UnitTypes)iUnitLoop, 0);

	push	0
	mov	edx, DWORD PTR _iUnitLoop$[ebp]
	push	edx
	mov	ecx, DWORD PTR _this$[ebp]
	call	?GetCity@CvCityStrategyAI@@QAEPAVCvCity@@XZ ; CvCityStrategyAI::GetCity
	mov	ecx, eax
	call	?getProductionTurnsLeft@CvCity@@QBEHW4UnitTypes@@H@Z ; CvCity::getProductionTurnsLeft
	mov	DWORD PTR _buildable$[ebp+8], eax

; 1052 : 
; 1053 : 				iTempWeight = m_pUnitProductionAI->GetWeight((UnitTypes)iUnitLoop);

	mov	eax, DWORD PTR _iUnitLoop$[ebp]
	push	eax
	mov	ecx, DWORD PTR _this$[ebp]
	mov	ecx, DWORD PTR [ecx+44]
	call	?GetWeight@CvUnitProductionAI@@QAEHW4UnitTypes@@@Z ; CvUnitProductionAI::GetWeight
	mov	DWORD PTR _iTempWeight$[ebp], eax

; 1054 : 
; 1055 : 				CvUnitEntry* pkUnitEntry = GC.getUnitInfo((UnitTypes)iUnitLoop);

	mov	edx, DWORD PTR _iUnitLoop$[ebp]
	push	edx
	mov	ecx, OFFSET ?gGlobals@@3VCvGlobals@@A	; gGlobals
	call	?getUnitInfo@CvGlobals@@QAEPAVCvUnitEntry@@W4UnitTypes@@@Z ; CvGlobals::getUnitInfo
	mov	DWORD PTR _pkUnitEntry$225909[ebp], eax

; 1056 : 				if(pkUnitEntry && pkUnitEntry->GetDefaultUnitAIType() == UNITAI_SETTLE)

	cmp	DWORD PTR _pkUnitEntry$225909[ebp], 0
	je	SHORT $LN34@ChooseProd
	mov	ecx, DWORD PTR _pkUnitEntry$225909[ebp]
	call	?GetDefaultUnitAIType@CvUnitEntry@@QBEHXZ ; CvUnitEntry::GetDefaultUnitAIType
	cmp	eax, 1
	jne	SHORT $LN34@ChooseProd

; 1057 : 				{
; 1058 : 					if(bEnoughSettlers)

	movzx	eax, BYTE PTR _bEnoughSettlers$[ebp]
	test	eax, eax
	je	SHORT $LN33@ChooseProd

; 1059 : 					{
; 1060 : 						iTempWeight = 0;

	mov	DWORD PTR _iTempWeight$[ebp], 0

; 1061 : 					}
; 1062 : 					else

	jmp	SHORT $LN34@ChooseProd
$LN33@ChooseProd:

; 1063 : 					{
; 1064 : 						int iBestArea, iSecondBestArea;
; 1065 : 						int iNumGoodAreas = kPlayer.GetBestSettleAreas(kPlayer.GetEconomicAI()->GetMinimumSettleFertility(), iBestArea, iSecondBestArea);

	mov	ecx, DWORD PTR _kPlayer$[ebp]
	call	?GetEconomicAI@CvPlayer@@QBEPAVCvEconomicAI@@XZ ; CvPlayer::GetEconomicAI
	mov	DWORD PTR $T231763[ebp], eax
	mov	ecx, DWORD PTR $T231763[ebp]
	mov	edx, DWORD PTR [ecx+48]
	mov	DWORD PTR $T231764[ebp], edx
	lea	eax, DWORD PTR _iSecondBestArea$225915[ebp]
	push	eax
	lea	ecx, DWORD PTR _iBestArea$225914[ebp]
	push	ecx
	mov	edx, DWORD PTR $T231764[ebp]
	push	edx
	mov	ecx, DWORD PTR _kPlayer$[ebp]
	call	?GetBestSettleAreas@CvPlayer@@QAEHHAAH0@Z ; CvPlayer::GetBestSettleAreas
	mov	DWORD PTR _iNumGoodAreas$225916[ebp], eax

; 1066 : 						if(iNumGoodAreas == 0)

	cmp	DWORD PTR _iNumGoodAreas$225916[ebp], 0
	jne	SHORT $LN34@ChooseProd

; 1067 : 						{
; 1068 : 							iTempWeight = 0;

	mov	DWORD PTR _iTempWeight$[ebp], 0
$LN34@ChooseProd:

; 1069 : 						}
; 1070 : 					}
; 1071 : 				}
; 1072 : 
; 1073 : 				// sanity check for building ships on small inland seas (not lakes)
; 1074 : 				if (pkUnitEntry)

	cmp	DWORD PTR _pkUnitEntry$225909[ebp], 0
	je	$LN30@ChooseProd

; 1075 : 				{
; 1076 : 					DomainTypes eDomain = (DomainTypes) pkUnitEntry->GetDomainType();

	mov	ecx, DWORD PTR _pkUnitEntry$225909[ebp]
	call	?GetDomainType@CvUnitEntry@@QBEHXZ	; CvUnitEntry::GetDomainType
	mov	DWORD PTR _eDomain$225919[ebp], eax

; 1077 : 					if (eDomain == DOMAIN_SEA && pkUnitEntry->GetDefaultUnitAIType() != UNITAI_WORKER_SEA) // if needed allow workboats...

	cmp	DWORD PTR _eDomain$225919[ebp], 0
	jne	$LN30@ChooseProd
	mov	ecx, DWORD PTR _pkUnitEntry$225909[ebp]
	call	?GetDefaultUnitAIType@CvUnitEntry@@QBEHXZ ; CvUnitEntry::GetDefaultUnitAIType
	cmp	eax, 17					; 00000011H
	je	SHORT $LN30@ChooseProd

; 1078 : 					{
; 1079 : 						CvArea* pBiggestNearbyBodyOfWater = m_pCity->waterArea();

	mov	eax, DWORD PTR _this$[ebp]
	mov	ecx, DWORD PTR [eax+12]
	call	?waterArea@CvCity@@QBEPAVCvArea@@XZ	; CvCity::waterArea
	mov	DWORD PTR _pBiggestNearbyBodyOfWater$225922[ebp], eax

; 1080 : 						if (pBiggestNearbyBodyOfWater)

	cmp	DWORD PTR _pBiggestNearbyBodyOfWater$225922[ebp], 0
	je	SHORT $LN28@ChooseProd

; 1081 : 						{
; 1082 : 							int iWaterTiles = pBiggestNearbyBodyOfWater->getNumTiles();

	mov	ecx, DWORD PTR _pBiggestNearbyBodyOfWater$225922[ebp]
	call	?getNumTiles@CvArea@@QBEHXZ		; CvArea::getNumTiles
	mov	DWORD PTR _iWaterTiles$225924[ebp], eax

; 1083 : 							int iNumUnitsofMine = pBiggestNearbyBodyOfWater->getUnitsPerPlayer(m_pCity->getOwner());

	mov	ecx, DWORD PTR _this$[ebp]
	mov	edx, DWORD PTR [ecx+12]
	mov	eax, DWORD PTR [edx+84]
	mov	DWORD PTR $T231773[ebp], eax
	mov	ecx, DWORD PTR $T231773[ebp]
	push	ecx
	mov	ecx, DWORD PTR _pBiggestNearbyBodyOfWater$225922[ebp]
	call	?getUnitsPerPlayer@CvArea@@QBEHW4PlayerTypes@@@Z ; CvArea::getUnitsPerPlayer
	mov	DWORD PTR _iNumUnitsofMine$225925[ebp], eax

; 1084 : 							if (iNumUnitsofMine * 5 > iWaterTiles)

	mov	edx, DWORD PTR _iNumUnitsofMine$225925[ebp]
	imul	edx, 5
	cmp	edx, DWORD PTR _iWaterTiles$225924[ebp]
	jle	SHORT $LN27@ChooseProd

; 1085 : 							{
; 1086 : 								iTempWeight = 0;

	mov	DWORD PTR _iTempWeight$[ebp], 0
$LN27@ChooseProd:

; 1087 : 							}
; 1088 : 						}
; 1089 : 						else // this should never happen, but...

	jmp	SHORT $LN30@ChooseProd
$LN28@ChooseProd:

; 1090 : 						{
; 1091 : 							iTempWeight = 0;

	mov	DWORD PTR _iTempWeight$[ebp], 0
$LN30@ChooseProd:

; 1092 : 						}
; 1093 : 					}
; 1094 : 				}
; 1095 : 
; 1096 : 
; 1097 : 				if(iTempWeight > 0)

	cmp	DWORD PTR _iTempWeight$[ebp], 0
	jle	SHORT $LN35@ChooseProd

; 1098 : 					m_Buildables.push_back(buildable, iTempWeight);

	mov	DWORD PTR _weightedElem$231801[ebp], 0
	mov	DWORD PTR _weightedElem$231801[ebp+4], 0
	mov	DWORD PTR _weightedElem$231801[ebp+8], 0
	mov	DWORD PTR _weightedElem$231801[ebp+12], 0
	mov	eax, DWORD PTR _buildable$[ebp]
	mov	DWORD PTR _weightedElem$231801[ebp], eax
	mov	ecx, DWORD PTR _buildable$[ebp+4]
	mov	DWORD PTR _weightedElem$231801[ebp+4], ecx
	mov	edx, DWORD PTR _buildable$[ebp+8]
	mov	DWORD PTR _weightedElem$231801[ebp+8], edx
	mov	eax, DWORD PTR _iTempWeight$[ebp]
	mov	DWORD PTR _weightedElem$231801[ebp+12], eax
	lea	ecx, DWORD PTR _weightedElem$231801[ebp]
	push	ecx
	mov	ecx, DWORD PTR _this$[ebp]
	add	ecx, 56					; 00000038H
	call	?push_back@?$FStaticVector@UWeightedElement@?$CvWeightedVector@UCvCityBuildable@@$0OB@$00@@$0OB@$00$0A@$0A@@@QAEIABUWeightedElement@?$CvWeightedVector@UCvCityBuildable@@$0OB@$00@@@Z ; FStaticVector<CvWeightedVector<CvCityBuildable,225,1>::WeightedElement,225,1,0,0>::push_back
$LN35@ChooseProd:

; 1099 : 			}
; 1100 : 		}

	jmp	$LN37@ChooseProd
$LN36@ChooseProd:

; 1101 : 
; 1102 : 		// Loop through adding the available projects
; 1103 : 		for(iProjectLoop = 0; iProjectLoop < GC.GetGameProjects()->GetNumProjects(); iProjectLoop++)

	mov	DWORD PTR _iProjectLoop$[ebp], 0
	jmp	SHORT $LN24@ChooseProd
$LN23@ChooseProd:
	mov	edx, DWORD PTR _iProjectLoop$[ebp]
	add	edx, 1
	mov	DWORD PTR _iProjectLoop$[ebp], edx
$LN24@ChooseProd:
	mov	ecx, OFFSET ?gGlobals@@3VCvGlobals@@A	; gGlobals
	call	?GetGameProjects@CvGlobals@@QBEPAVCvProjectXMLEntries@@XZ ; CvGlobals::GetGameProjects
	mov	ecx, eax
	call	?GetNumProjects@CvProjectXMLEntries@@QAEHXZ ; CvProjectXMLEntries::GetNumProjects
	cmp	DWORD PTR _iProjectLoop$[ebp], eax
	jge	$LN39@ChooseProd

; 1104 : 		{
; 1105 : #ifdef NQM_AI_GIMP_NO_WORLD_WONDERS
; 1106 : 			if ((GC.getGame().isOption("GAMEOPTION_AI_TWEAKS") || GC.getGame().isOption("GAMEOPTION_AI_GIMP_NO_WORLD_WONDER")) && isWorldProject((ProjectTypes)iProjectLoop))

	mov	eax, DWORD PTR ?gGlobals@@3VCvGlobals@@A+48
	mov	DWORD PTR $T231805[ebp], eax
	push	OFFSET ??_C@_0BF@FAPEFALO@GAMEOPTION_AI_TWEAKS?$AA@
	mov	ecx, DWORD PTR $T231805[ebp]
	call	?isOption@CvGame@@QBE_NPBD@Z		; CvGame::isOption
	movzx	ecx, al
	test	ecx, ecx
	jne	SHORT $LN20@ChooseProd
	mov	edx, DWORD PTR ?gGlobals@@3VCvGlobals@@A+48
	mov	DWORD PTR $T231809[ebp], edx
	push	OFFSET ??_C@_0CD@DIPKFMBK@GAMEOPTION_AI_GIMP_NO_WORLD_WOND@
	mov	ecx, DWORD PTR $T231809[ebp]
	call	?isOption@CvGame@@QBE_NPBD@Z		; CvGame::isOption
	movzx	eax, al
	test	eax, eax
	je	SHORT $LN21@ChooseProd
$LN20@ChooseProd:
	mov	ecx, DWORD PTR _iProjectLoop$[ebp]
	push	ecx
	call	?isWorldProject@@YA_NW4ProjectTypes@@@Z	; isWorldProject
	add	esp, 4
	movzx	edx, al
	test	edx, edx
	je	SHORT $LN21@ChooseProd

; 1107 : 				continue;

	jmp	SHORT $LN23@ChooseProd
$LN21@ChooseProd:

; 1108 : #endif
; 1109 : 			if(m_pCity->canCreate((ProjectTypes)iProjectLoop))

	push	0
	push	0
	mov	eax, DWORD PTR _iProjectLoop$[ebp]
	push	eax
	mov	ecx, DWORD PTR _this$[ebp]
	mov	ecx, DWORD PTR [ecx+12]
	call	?canCreate@CvCity@@QBE_NW4ProjectTypes@@_N1@Z ; CvCity::canCreate
	movzx	edx, al
	test	edx, edx
	je	$LN19@ChooseProd

; 1110 : 			{
; 1111 : 				buildable.m_eBuildableType = CITY_BUILDABLE_PROJECT;

	mov	DWORD PTR _buildable$[ebp], 3

; 1112 : 				buildable.m_iIndex = iProjectLoop;

	mov	eax, DWORD PTR _iProjectLoop$[ebp]
	mov	DWORD PTR _buildable$[ebp+4], eax

; 1113 : 				buildable.m_iTurnsToConstruct = GetCity()->getProductionTurnsLeft((ProjectTypes)iProjectLoop, 0);

	push	0
	mov	ecx, DWORD PTR _iProjectLoop$[ebp]
	push	ecx
	mov	ecx, DWORD PTR _this$[ebp]
	call	?GetCity@CvCityStrategyAI@@QAEPAVCvCity@@XZ ; CvCityStrategyAI::GetCity
	mov	ecx, eax
	call	?getProductionTurnsLeft@CvCity@@QBEHW4ProjectTypes@@H@Z ; CvCity::getProductionTurnsLeft
	mov	DWORD PTR _buildable$[ebp+8], eax

; 1114 : 				m_Buildables.push_back(buildable, m_pProjectProductionAI->GetWeight((ProjectTypes)iProjectLoop));

	mov	edx, DWORD PTR _iProjectLoop$[ebp]
	push	edx
	mov	eax, DWORD PTR _this$[ebp]
	mov	ecx, DWORD PTR [eax+48]
	call	?GetWeight@CvProjectProductionAI@@QAEHW4ProjectTypes@@@Z ; CvProjectProductionAI::GetWeight
	mov	DWORD PTR $T231838[ebp], eax
	mov	DWORD PTR _weightedElem$231837[ebp], 0
	mov	DWORD PTR _weightedElem$231837[ebp+4], 0
	mov	DWORD PTR _weightedElem$231837[ebp+8], 0
	mov	DWORD PTR _weightedElem$231837[ebp+12], 0
	mov	ecx, DWORD PTR _buildable$[ebp]
	mov	DWORD PTR _weightedElem$231837[ebp], ecx
	mov	edx, DWORD PTR _buildable$[ebp+4]
	mov	DWORD PTR _weightedElem$231837[ebp+4], edx
	mov	eax, DWORD PTR _buildable$[ebp+8]
	mov	DWORD PTR _weightedElem$231837[ebp+8], eax
	mov	ecx, DWORD PTR $T231838[ebp]
	mov	DWORD PTR _weightedElem$231837[ebp+12], ecx
	lea	edx, DWORD PTR _weightedElem$231837[ebp]
	push	edx
	mov	ecx, DWORD PTR _this$[ebp]
	add	ecx, 56					; 00000038H
	call	?push_back@?$FStaticVector@UWeightedElement@?$CvWeightedVector@UCvCityBuildable@@$0OB@$00@@$0OB@$00$0A@$0A@@@QAEIABUWeightedElement@?$CvWeightedVector@UCvCityBuildable@@$0OB@$00@@@Z ; FStaticVector<CvWeightedVector<CvCityBuildable,225,1>::WeightedElement,225,1,0,0>::push_back
$LN19@ChooseProd:

; 1115 : 			}
; 1116 : 		}

	jmp	$LN23@ChooseProd
$LN39@ChooseProd:

; 1117 : 	}
; 1118 : 
; 1119 : 	// Normally, a puppeted city cannot run processes, but as Venice they are allowed to.
; 1120 : 	bool bIsVenice = kPlayer.GetPlayerTraits()->IsNoAnnexing();

	mov	ecx, DWORD PTR _kPlayer$[ebp]
	call	?GetPlayerTraits@CvPlayer@@QBEPAVCvPlayerTraits@@XZ ; CvPlayer::GetPlayerTraits
	mov	DWORD PTR $T231842[ebp], eax
	mov	eax, DWORD PTR $T231842[ebp]
	mov	cl, BYTE PTR [eax+351]
	mov	BYTE PTR _bIsVenice$[ebp], cl

; 1121 : 	if (!GetCity()->IsPuppet() || bIsVenice)

	mov	ecx, DWORD PTR _this$[ebp]
	call	?GetCity@CvCityStrategyAI@@QAEPAVCvCity@@XZ ; CvCityStrategyAI::GetCity
	mov	ecx, eax
	call	?IsPuppet@CvCity@@QBE_NXZ		; CvCity::IsPuppet
	movzx	edx, al
	test	edx, edx
	je	SHORT $LN263@ChooseProd
	movzx	eax, BYTE PTR _bIsVenice$[ebp]
	test	eax, eax
	je	$LN18@ChooseProd

; 1122 : 	{	
; 1123 : 		// Loop through adding available processes
; 1124 : 		if (!GET_PLAYER(m_pCity->getOwner()).isMinorCiv())

$LN263@ChooseProd:
	mov	ecx, DWORD PTR _this$[ebp]
	mov	edx, DWORD PTR [ecx+12]
	mov	eax, DWORD PTR [edx+84]
	mov	DWORD PTR $T231851[ebp], eax
	mov	ecx, DWORD PTR $T231851[ebp]
	imul	ecx, 63236				; 0000f704H
	add	ecx, DWORD PTR ?m_aPlayers@CvPlayerAI@@1PAV1@A ; CvPlayerAI::m_aPlayers
	mov	DWORD PTR $T231855[ebp], ecx
	mov	ecx, DWORD PTR $T231855[ebp]
	call	?isMinorCiv@CvPlayer@@QBE_NXZ		; CvPlayer::isMinorCiv
	movzx	edx, al
	test	edx, edx
	jne	$LN18@ChooseProd

; 1125 : 		{
; 1126 : 			//I cannot use the yield rate since it adds in set process yield, which is what I am trying to set...
; 1127 : 			int iBaseYield = GetCity()->getBaseYieldRate(YIELD_PRODUCTION) * 100;

	push	1
	mov	ecx, DWORD PTR _this$[ebp]
	call	?GetCity@CvCityStrategyAI@@QAEPAVCvCity@@XZ ; CvCityStrategyAI::GetCity
	mov	ecx, eax
	call	?getBaseYieldRate@CvCity@@QBEHW4YieldTypes@@@Z ; CvCity::getBaseYieldRate
	imul	eax, 100				; 00000064H
	mov	DWORD PTR _iBaseYield$225943[ebp], eax

; 1128 : 			iBaseYield += (GetCity()->GetYieldPerPopTimes100(YIELD_PRODUCTION) * GetCity()->getPopulation());

	push	1
	mov	ecx, DWORD PTR _this$[ebp]
	call	?GetCity@CvCityStrategyAI@@QAEPAVCvCity@@XZ ; CvCityStrategyAI::GetCity
	mov	ecx, eax
	call	?GetYieldPerPopTimes100@CvCity@@QBEHW4YieldTypes@@@Z ; CvCity::GetYieldPerPopTimes100
	mov	esi, eax
	mov	ecx, DWORD PTR _this$[ebp]
	call	?GetCity@CvCityStrategyAI@@QAEPAVCvCity@@XZ ; CvCityStrategyAI::GetCity
	mov	ecx, eax
	call	?getPopulation@CvCity@@QBEHXZ		; CvCity::getPopulation
	imul	esi, eax
	add	esi, DWORD PTR _iBaseYield$225943[ebp]
	mov	DWORD PTR _iBaseYield$225943[ebp], esi

; 1129 : 			int iModifiedYield = iBaseYield * GetCity()->getBaseYieldRateModifier(YIELD_PRODUCTION);

	push	0
	push	0
	push	1
	mov	ecx, DWORD PTR _this$[ebp]
	call	?GetCity@CvCityStrategyAI@@QAEPAVCvCity@@XZ ; CvCityStrategyAI::GetCity
	mov	ecx, eax
	call	?getBaseYieldRateModifier@CvCity@@QBEHW4YieldTypes@@HPAVCvString@@@Z ; CvCity::getBaseYieldRateModifier
	imul	eax, DWORD PTR _iBaseYield$225943[ebp]
	mov	DWORD PTR _iModifiedYield$225944[ebp], eax

; 1130 : 			iModifiedYield /= 100;

	mov	eax, DWORD PTR _iModifiedYield$225944[ebp]
	cdq
	mov	ecx, 100				; 00000064H
	idiv	ecx
	mov	DWORD PTR _iModifiedYield$225944[ebp], eax

; 1131 : 
; 1132 : 			if (iModifiedYield >= 8)

	cmp	DWORD PTR _iModifiedYield$225944[ebp], 8
	jl	$LN18@ChooseProd

; 1133 : 			{
; 1134 : 				for (iProcessLoop = 0; iProcessLoop < GC.getNumProcessInfos(); iProcessLoop++)

	mov	DWORD PTR _iProcessLoop$[ebp], 0
	jmp	SHORT $LN14@ChooseProd
$LN13@ChooseProd:
	mov	edx, DWORD PTR _iProcessLoop$[ebp]
	add	edx, 1
	mov	DWORD PTR _iProcessLoop$[ebp], edx
$LN14@ChooseProd:
	mov	ecx, OFFSET ?gGlobals@@3VCvGlobals@@A	; gGlobals
	call	?getNumProcessInfos@CvGlobals@@QAEHXZ	; CvGlobals::getNumProcessInfos
	cmp	DWORD PTR _iProcessLoop$[ebp], eax
	jge	$LN18@ChooseProd

; 1135 : 				{
; 1136 : 					ProcessTypes eProcess = (ProcessTypes)iProcessLoop;

	mov	eax, DWORD PTR _iProcessLoop$[ebp]
	mov	DWORD PTR _eProcess$225949[ebp], eax

; 1137 : 					if (m_pCity->canMaintain(eProcess))

	push	0
	mov	ecx, DWORD PTR _eProcess$225949[ebp]
	push	ecx
	mov	edx, DWORD PTR _this$[ebp]
	mov	ecx, DWORD PTR [edx+12]
	call	?canMaintain@CvCity@@QBE_NW4ProcessTypes@@_N@Z ; CvCity::canMaintain
	movzx	eax, al
	test	eax, eax
	je	$LN11@ChooseProd

; 1138 : 					{
; 1139 : 						iTempWeight = m_pProcessProductionAI->GetWeight((ProcessTypes)iProcessLoop);

	mov	ecx, DWORD PTR _iProcessLoop$[ebp]
	push	ecx
	mov	edx, DWORD PTR _this$[ebp]
	mov	ecx, DWORD PTR [edx+52]
	call	?GetWeight@CvProcessProductionAI@@QAEHW4ProcessTypes@@@Z ; CvProcessProductionAI::GetWeight
	mov	DWORD PTR _iTempWeight$[ebp], eax

; 1140 : 						buildable.m_eBuildableType = CITY_BUILDABLE_PROCESS;

	mov	DWORD PTR _buildable$[ebp], 4

; 1141 : 						buildable.m_iIndex = iProcessLoop;

	mov	eax, DWORD PTR _iProcessLoop$[ebp]
	mov	DWORD PTR _buildable$[ebp+4], eax

; 1142 : 						buildable.m_iTurnsToConstruct = 1;

	mov	DWORD PTR _buildable$[ebp+8], 1

; 1143 : 						m_Buildables.push_back(buildable, iTempWeight);

	mov	DWORD PTR _weightedElem$231883[ebp], 0
	mov	DWORD PTR _weightedElem$231883[ebp+4], 0
	mov	DWORD PTR _weightedElem$231883[ebp+8], 0
	mov	DWORD PTR _weightedElem$231883[ebp+12], 0
	mov	ecx, DWORD PTR _buildable$[ebp]
	mov	DWORD PTR _weightedElem$231883[ebp], ecx
	mov	edx, DWORD PTR _buildable$[ebp+4]
	mov	DWORD PTR _weightedElem$231883[ebp+4], edx
	mov	eax, DWORD PTR _buildable$[ebp+8]
	mov	DWORD PTR _weightedElem$231883[ebp+8], eax
	mov	ecx, DWORD PTR _iTempWeight$[ebp]
	mov	DWORD PTR _weightedElem$231883[ebp+12], ecx
	lea	edx, DWORD PTR _weightedElem$231883[ebp]
	push	edx
	mov	ecx, DWORD PTR _this$[ebp]
	add	ecx, 56					; 00000038H
	call	?push_back@?$FStaticVector@UWeightedElement@?$CvWeightedVector@UCvCityBuildable@@$0OB@$00@@$0OB@$00$0A@$0A@@@QAEIABUWeightedElement@?$CvWeightedVector@UCvCityBuildable@@$0OB@$00@@@Z ; FStaticVector<CvWeightedVector<CvCityBuildable,225,1>::WeightedElement,225,1,0,0>::push_back
$LN11@ChooseProd:

; 1144 : 					}
; 1145 : 				}

	jmp	$LN13@ChooseProd
$LN18@ChooseProd:

; 1146 : 			}
; 1147 : 		}
; 1148 : 	}
; 1149 : 
; 1150 : 	ReweightByCost();

	mov	ecx, DWORD PTR _this$[ebp]
	call	?ReweightByCost@CvCityStrategyAI@@AAEXXZ ; CvCityStrategyAI::ReweightByCost

; 1151 : 
; 1152 : 	m_Buildables.SortItems();

	mov	eax, DWORD PTR _this$[ebp]
	add	eax, 56					; 00000038H
	mov	DWORD PTR $T231961[ebp], eax
	mov	ecx, DWORD PTR $T231961[ebp]
	mov	edx, DWORD PTR [ecx+4]
	shl	edx, 4
	mov	eax, DWORD PTR $T231961[ebp]
	add	edx, DWORD PTR [eax]
	mov	DWORD PTR $T231888[ebp], edx
	mov	ecx, DWORD PTR $T231961[ebp]
	mov	edx, DWORD PTR [ecx]
	mov	DWORD PTR $T231892[ebp], edx
	mov	eax, DWORD PTR $T231888[ebp]
	sub	eax, DWORD PTR $T231892[ebp]
	sar	eax, 4
	push	eax
	mov	ecx, DWORD PTR $T231888[ebp]
	push	ecx
	mov	edx, DWORD PTR $T231892[ebp]
	push	edx
	call	??$_Sort@PAUWeightedElement@?$CvWeightedVector@UCvCityBuildable@@$0OB@$00@@H@std@@YAXPAUWeightedElement@?$CvWeightedVector@UCvCityBuildable@@$0OB@$00@@0H@Z ; std::_Sort<CvWeightedVector<CvCityBuildable,225,1>::WeightedElement *,int>
	add	esp, 12					; 0000000cH

; 1153 : 
; 1154 : 	LogPossibleBuilds();

	mov	ecx, DWORD PTR _this$[ebp]
	call	?LogPossibleBuilds@CvCityStrategyAI@@AAEXXZ ; CvCityStrategyAI::LogPossibleBuilds

; 1155 : 
; 1156 : 	if(m_Buildables.GetTotalWeight() > 0)

	mov	ecx, DWORD PTR _this$[ebp]
	add	ecx, 56					; 00000038H
	call	?GetTotalWeight@?$CvWeightedVector@UCvCityBuildable@@$0OB@$00@@QAEHXZ ; CvWeightedVector<CvCityBuildable,225,1>::GetTotalWeight
	test	eax, eax
	jle	$LN79@ChooseProd

; 1157 : 	{
; 1158 : 		// Choose from the best options (currently 2)
; 1159 : 		int iNumChoices = GC.getGame().getHandicapInfo().GetCityProductionNumOptions();

	mov	eax, DWORD PTR ?gGlobals@@3VCvGlobals@@A+48
	mov	DWORD PTR $T231977[ebp], eax
	mov	ecx, DWORD PTR $T231977[ebp]
	call	?getHandicapInfo@CvGame@@QBEAAVCvHandicapInfo@@XZ ; CvGame::getHandicapInfo
	mov	ecx, eax
	call	?GetCityProductionNumOptions@CvHandicapInfo@@QBEHXZ ; CvHandicapInfo::GetCityProductionNumOptions
	mov	DWORD PTR _iNumChoices$225954[ebp], eax

; 1160 : 		selection = m_Buildables.ChooseFromTopChoices(iNumChoices, &fcn, "Choosing city build from Top Choices");

	push	OFFSET ??_C@_0CF@HNJOJGCJ@Choosing?5city?5build?5from?5Top?5Cho@
	lea	ecx, DWORD PTR _fcn$[ebp]
	push	ecx
	mov	edx, DWORD PTR _iNumChoices$225954[ebp]
	push	edx
	lea	eax, DWORD PTR $T231455[ebp]
	push	eax
	mov	ecx, DWORD PTR _this$[ebp]
	add	ecx, 56					; 00000038H
	call	?ChooseFromTopChoices@?$CvWeightedVector@UCvCityBuildable@@$0OB@$00@@QAE?AUCvCityBuildable@@HPAV?$FastDelegate2@HPBDH@fastdelegate@@PBD@Z ; CvWeightedVector<CvCityBuildable,225,1>::ChooseFromTopChoices
	mov	ecx, DWORD PTR [eax]
	mov	DWORD PTR _selection$[ebp], ecx
	mov	edx, DWORD PTR [eax+4]
	mov	DWORD PTR _selection$[ebp+4], edx
	mov	eax, DWORD PTR [eax+8]
	mov	DWORD PTR _selection$[ebp+8], eax

; 1161 : 		int iRushIfMoreThanXTurns = GC.getAI_ATTEMPT_RUSH_OVER_X_TURNS_TO_BUILD();

	mov	ecx, DWORD PTR ?gGlobals@@3VCvGlobals@@A+1808
	mov	DWORD PTR _iRushIfMoreThanXTurns$225957[ebp], ecx

; 1162 : 		if(GET_PLAYER(m_pCity->getOwner()).isMinorCiv())

	mov	edx, DWORD PTR _this$[ebp]
	mov	eax, DWORD PTR [edx+12]
	mov	ecx, DWORD PTR [eax+84]
	mov	DWORD PTR $T232027[ebp], ecx
	mov	edx, DWORD PTR $T232027[ebp]
	imul	edx, 63236				; 0000f704H
	add	edx, DWORD PTR ?m_aPlayers@CvPlayerAI@@1PAV1@A ; CvPlayerAI::m_aPlayers
	mov	DWORD PTR $T232031[ebp], edx
	mov	ecx, DWORD PTR $T232031[ebp]
	call	?isMinorCiv@CvPlayer@@QBE_NXZ		; CvPlayer::isMinorCiv
	movzx	eax, al
	test	eax, eax
	je	SHORT $LN9@ChooseProd

; 1163 : 		{
; 1164 : 			iRushIfMoreThanXTurns *= GC.getMINOR_CIV_PRODUCTION_PERCENT();

	mov	ecx, DWORD PTR ?gGlobals@@3VCvGlobals@@A+7292
	mov	DWORD PTR $T232035[ebp], ecx
	mov	edx, DWORD PTR _iRushIfMoreThanXTurns$225957[ebp]
	imul	edx, DWORD PTR $T232035[ebp]
	mov	DWORD PTR _iRushIfMoreThanXTurns$225957[ebp], edx

; 1165 : 			iRushIfMoreThanXTurns /= 100;

	mov	eax, DWORD PTR _iRushIfMoreThanXTurns$225957[ebp]
	cdq
	mov	ecx, 100				; 00000064H
	idiv	ecx
	mov	DWORD PTR _iRushIfMoreThanXTurns$225957[ebp], eax
$LN9@ChooseProd:

; 1166 : 		}
; 1167 : 
; 1168 : 		bool bRush = selection.m_iTurnsToConstruct > iRushIfMoreThanXTurns;

	mov	edx, DWORD PTR _selection$[ebp+8]
	xor	eax, eax
	cmp	edx, DWORD PTR _iRushIfMoreThanXTurns$225957[ebp]
	setg	al
	mov	BYTE PTR _bRush$225959[ebp], al

; 1169 : 		LogCityProduction(selection, bRush);

	movzx	ecx, BYTE PTR _bRush$225959[ebp]
	push	ecx
	sub	esp, 12					; 0000000cH
	mov	edx, esp
	mov	eax, DWORD PTR _selection$[ebp]
	mov	DWORD PTR [edx], eax
	mov	ecx, DWORD PTR _selection$[ebp+4]
	mov	DWORD PTR [edx+4], ecx
	mov	eax, DWORD PTR _selection$[ebp+8]
	mov	DWORD PTR [edx+8], eax
	mov	ecx, DWORD PTR _this$[ebp]
	call	?LogCityProduction@CvCityStrategyAI@@QAEXUCvCityBuildable@@_N@Z ; CvCityStrategyAI::LogCityProduction

; 1170 : 
; 1171 : 		switch(selection.m_eBuildableType)

	mov	ecx, DWORD PTR _selection$[ebp]
	mov	DWORD PTR tv802[ebp], ecx
	mov	edx, DWORD PTR tv802[ebp]
	sub	edx, 1
	mov	DWORD PTR tv802[ebp], edx
	cmp	DWORD PTR tv802[ebp], 5
	ja	$LN79@ChooseProd
	mov	eax, DWORD PTR tv802[ebp]
	jmp	DWORD PTR $LN376@ChooseProd[eax*4]
$LN6@ChooseProd:

; 1172 : 		{
; 1173 : 		case CITY_BUILDABLE_UNIT:
; 1174 : 		case CITY_BUILDABLE_UNIT_FOR_ARMY:
; 1175 : 		{
; 1176 : 			UnitTypes eUnitType = (UnitTypes) selection.m_iIndex;

	mov	ecx, DWORD PTR _selection$[ebp+4]
	mov	DWORD PTR _eUnitType$225965[ebp], ecx

; 1177 : 			CvUnitEntry* pkUnitInfo = GC.getUnitInfo(eUnitType);

	mov	edx, DWORD PTR _eUnitType$225965[ebp]
	push	edx
	mov	ecx, OFFSET ?gGlobals@@3VCvGlobals@@A	; gGlobals
	call	?getUnitInfo@CvGlobals@@QAEPAVCvUnitEntry@@W4UnitTypes@@@Z ; CvGlobals::getUnitInfo
	mov	DWORD PTR _pkUnitInfo$225967[ebp], eax

; 1178 : 			if(pkUnitInfo)

	cmp	DWORD PTR _pkUnitInfo$225967[ebp], 0
	je	SHORT $LN5@ChooseProd

; 1179 : 			{
; 1180 : 				UnitAITypes eUnitAI = (UnitAITypes) pkUnitInfo->GetDefaultUnitAIType();

	mov	ecx, DWORD PTR _pkUnitInfo$225967[ebp]
	call	?GetDefaultUnitAIType@CvUnitEntry@@QBEHXZ ; CvUnitEntry::GetDefaultUnitAIType
	mov	DWORD PTR _eUnitAI$225969[ebp], eax

; 1181 : 				GetCity()->pushOrder(ORDER_TRAIN, eUnitType, eUnitAI, false, true, false, bRush);

	movzx	eax, BYTE PTR _bRush$225959[ebp]
	push	eax
	push	0
	push	1
	push	0
	mov	ecx, DWORD PTR _eUnitAI$225969[ebp]
	push	ecx
	mov	edx, DWORD PTR _eUnitType$225965[ebp]
	push	edx
	push	0
	mov	ecx, DWORD PTR _this$[ebp]
	call	?GetCity@CvCityStrategyAI@@QAEPAVCvCity@@XZ ; CvCityStrategyAI::GetCity
	mov	ecx, eax
	call	?pushOrder@CvCity@@QAEXW4OrderTypes@@HH_N111@Z ; CvCity::pushOrder
$LN5@ChooseProd:

; 1182 : 			}
; 1183 : 		}
; 1184 : 		break;

	jmp	$LN79@ChooseProd
$LN4@ChooseProd:

; 1185 : 
; 1186 : 		case CITY_BUILDABLE_BUILDING:
; 1187 : 		{
; 1188 : 			BuildingTypes eBuildingType = (BuildingTypes) selection.m_iIndex;

	mov	eax, DWORD PTR _selection$[ebp+4]
	mov	DWORD PTR _eBuildingType$225972[ebp], eax

; 1189 : 			GetCity()->pushOrder(ORDER_CONSTRUCT, eBuildingType, -1, false, true, false, bRush);

	movzx	ecx, BYTE PTR _bRush$225959[ebp]
	push	ecx
	push	0
	push	1
	push	0
	push	-1
	mov	edx, DWORD PTR _eBuildingType$225972[ebp]
	push	edx
	push	1
	mov	ecx, DWORD PTR _this$[ebp]
	call	?GetCity@CvCityStrategyAI@@QAEPAVCvCity@@XZ ; CvCityStrategyAI::GetCity
	mov	ecx, eax
	call	?pushOrder@CvCity@@QAEXW4OrderTypes@@HH_N111@Z ; CvCity::pushOrder

; 1190 : 		}
; 1191 : 		break;

	jmp	$LN79@ChooseProd
$LN3@ChooseProd:

; 1192 : 
; 1193 : 		case CITY_BUILDABLE_PROJECT:
; 1194 : 		{
; 1195 : 			ProjectTypes eProjectType = (ProjectTypes) selection.m_iIndex;

	mov	eax, DWORD PTR _selection$[ebp+4]
	mov	DWORD PTR _eProjectType$225975[ebp], eax

; 1196 : 			GetCity()->pushOrder(ORDER_CREATE, eProjectType, -1, false, true, false, bRush);

	movzx	ecx, BYTE PTR _bRush$225959[ebp]
	push	ecx
	push	0
	push	1
	push	0
	push	-1
	mov	edx, DWORD PTR _eProjectType$225975[ebp]
	push	edx
	push	2
	mov	ecx, DWORD PTR _this$[ebp]
	call	?GetCity@CvCityStrategyAI@@QAEPAVCvCity@@XZ ; CvCityStrategyAI::GetCity
	mov	ecx, eax
	call	?pushOrder@CvCity@@QAEXW4OrderTypes@@HH_N111@Z ; CvCity::pushOrder

; 1197 : 		}
; 1198 : 		break;

	jmp	SHORT $LN79@ChooseProd
$LN2@ChooseProd:

; 1199 : 
; 1200 : 		case CITY_BUILDABLE_PROCESS:
; 1201 : 		{
; 1202 : 			ProcessTypes eProcessType = (ProcessTypes)selection.m_iIndex;

	mov	eax, DWORD PTR _selection$[ebp+4]
	mov	DWORD PTR _eProcessType$225978[ebp], eax

; 1203 : 			GetCity()->pushOrder(ORDER_MAINTAIN, eProcessType, -1, false, true, false, false); // ignoring rush because we can't rush a process

	push	0
	push	0
	push	1
	push	0
	push	-1
	mov	ecx, DWORD PTR _eProcessType$225978[ebp]
	push	ecx
	push	4
	mov	ecx, DWORD PTR _this$[ebp]
	call	?GetCity@CvCityStrategyAI@@QAEPAVCvCity@@XZ ; CvCityStrategyAI::GetCity
	mov	ecx, eax
	call	?pushOrder@CvCity@@QAEXW4OrderTypes@@HH_N111@Z ; CvCity::pushOrder
$LN1@ChooseProd:

; 1204 : 		}
; 1205 : 
; 1206 : 		case CITY_BUILDABLE_UNIT_FOR_OPERATION:
; 1207 : 		{
; 1208 : 			GetCity()->CommitToBuildingUnitForOperation();

	mov	ecx, DWORD PTR _this$[ebp]
	call	?GetCity@CvCityStrategyAI@@QAEPAVCvCity@@XZ ; CvCityStrategyAI::GetCity
	mov	ecx, eax
	call	?CommitToBuildingUnitForOperation@CvCity@@QAE_NXZ ; CvCity::CommitToBuildingUnitForOperation

; 1209 : 			kPlayer.GetMilitaryAI()->ResetNumberOfTimesOpsBuildSkippedOver();

	mov	ecx, DWORD PTR _kPlayer$[ebp]
	call	?GetMilitaryAI@CvPlayer@@QBEPAVCvMilitaryAI@@XZ ; CvPlayer::GetMilitaryAI
	mov	DWORD PTR $T232039[ebp], eax
	mov	edx, DWORD PTR $T232039[ebp]
	mov	DWORD PTR [edx+48], 0
$LN79@ChooseProd:

; 1210 : 		}
; 1211 : 		break;
; 1212 : 		}
; 1213 : 
; 1214 : 	}
; 1215 : 
; 1216 : 	return;
; 1217 : }

	pop	esi
	mov	esp, ebp
	pop	ebp
	ret	12					; 0000000cH
	npad	1
$LN376@ChooseProd:
	DD	$LN4@ChooseProd
	DD	$LN6@ChooseProd
	DD	$LN3@ChooseProd
	DD	$LN2@ChooseProd
	DD	$LN1@ChooseProd
	DD	$LN6@ChooseProd
?ChooseProduction@CvCityStrategyAI@@QAEX_NW4BuildingTypes@@W4UnitTypes@@@Z ENDP ; CvCityStrategyAI::ChooseProduction
_TEXT	ENDS
PUBLIC	??_C@_0BI@OBIIEEEC@CityStrategyCanActivate?$AA@	; `string'
PUBLIC	?IsTestCityStrategy_GoodAirliftCity@CityStrategyAIHelpers@@YA_NPAVCvCity@@@Z ; CityStrategyAIHelpers::IsTestCityStrategy_GoodAirliftCity
PUBLIC	??_C@_0CB@FJDKEHMJ@AICITYSTRATEGY_GOOD_AIRLIFT_CITY@ ; `string'
PUBLIC	?IsTestCityStrategy_NeedTourismBuilding@CityStrategyAIHelpers@@YA_NPAVCvCity@@@Z ; CityStrategyAIHelpers::IsTestCityStrategy_NeedTourismBuilding
PUBLIC	??_C@_0CF@FBKODDGD@AICITYSTRATEGY_NEED_TOURISM_BUIL@ ; `string'
PUBLIC	?IsTestCityStrategy_NeedCultureBuilding@CityStrategyAIHelpers@@YA_NPAVCvCity@@@Z ; CityStrategyAIHelpers::IsTestCityStrategy_NeedCultureBuilding
PUBLIC	??_C@_0CF@LBPACDHK@AICITYSTRATEGY_NEED_CULTURE_BUIL@ ; `string'
PUBLIC	?IsTestCityStrategy_IsInternationalTradeOrigin@CityStrategyAIHelpers@@YA_NPAVCvCity@@@Z ; CityStrategyAIHelpers::IsTestCityStrategy_IsInternationalTradeOrigin
PUBLIC	??_C@_0CK@MKEELCEJ@AICITYSTRATEGY_INTERNATIONAL_TRA@ ; `string'
PUBLIC	?IsTestCityStrategy_IsInternationalTradeDestination@CityStrategyAIHelpers@@YA_NPAVCvCity@@@Z ; CityStrategyAIHelpers::IsTestCityStrategy_IsInternationalTradeDestination
PUBLIC	??_C@_0CP@NDHLDCB@AICITYSTRATEGY_INTERNATIONAL_TRA@ ; `string'
PUBLIC	??_C@_0DF@EHEOFEPN@AICITYSTRATEGY_NO_NEED_INTERNATI@ ; `string'
PUBLIC	??_C@_0DC@LCLJFDJM@AICITYSTRATEGY_NEED_INTERNATIONA@ ; `string'
PUBLIC	?IsTestCityStrategy_NoNeedInternationalTradeRoute@CityStrategyAIHelpers@@YA_NPAVCvCity@@W4DomainTypes@@@Z ; CityStrategyAIHelpers::IsTestCityStrategy_NoNeedInternationalTradeRoute
PUBLIC	??_C@_0DG@EEPLECGP@AICITYSTRATEGY_NO_NEED_INTERNATI@ ; `string'
PUBLIC	?IsTestCityStrategy_NeedInternationalTradeRoute@CityStrategyAIHelpers@@YA_NPAVCvCity@@W4DomainTypes@@@Z ; CityStrategyAIHelpers::IsTestCityStrategy_NeedInternationalTradeRoute
PUBLIC	??_C@_0DD@HOLLOEKG@AICITYSTRATEGY_NEED_INTERNATIONA@ ; `string'
PUBLIC	?IsTestCityStrategy_GoodGPCity@CityStrategyAIHelpers@@YA_NPAVCvCity@@@Z ; CityStrategyAIHelpers::IsTestCityStrategy_GoodGPCity
PUBLIC	??_C@_0BM@FBGEKDFP@AICITYSTRATEGY_GOOD_GP_CITY?$AA@ ; `string'
PUBLIC	?IsTestCityStrategy_KeyScienceCity@CityStrategyAIHelpers@@YA_NPAVCvCity@@@Z ; CityStrategyAIHelpers::IsTestCityStrategy_KeyScienceCity
PUBLIC	??_C@_0CA@IJGDBOAB@AICITYSTRATEGY_KEY_SCIENCE_CITY?$AA@ ; `string'
PUBLIC	?IsTestCityStrategy_ManyTechsStolen@CityStrategyAIHelpers@@YA_NPAVCvCity@@@Z ; CityStrategyAIHelpers::IsTestCityStrategy_ManyTechsStolen
PUBLIC	??_C@_0CB@MJBNJJHL@AICITYSTRATEGY_MANY_TECHS_STOLEN@ ; `string'
PUBLIC	?IsTestCityStrategy_CoastCity@CityStrategyAIHelpers@@YA_NPAVCvCity@@@Z ; CityStrategyAIHelpers::IsTestCityStrategy_CoastCity
PUBLIC	??_C@_0BK@PNCLKHNL@AICITYSTRATEGY_COAST_CITY?$AA@ ; `string'
PUBLIC	?IsTestCityStrategy_JungleCity@CityStrategyAIHelpers@@YA_NPAVCvCity@@@Z ; CityStrategyAIHelpers::IsTestCityStrategy_JungleCity
PUBLIC	??_C@_0BL@FDKNAHIG@AICITYSTRATEGY_JUNGLE_CITY?$AA@ ; `string'
PUBLIC	?IsTestCityStrategy_HillCity@CityStrategyAIHelpers@@YA_NPAVCvCity@@@Z ; CityStrategyAIHelpers::IsTestCityStrategy_HillCity
PUBLIC	??_C@_0BJ@NLLKBHIL@AICITYSTRATEGY_HILL_CITY?$AA@ ; `string'
PUBLIC	?IsTestCityStrategy_ForestCity@CityStrategyAIHelpers@@YA_NPAVCvCity@@@Z ; CityStrategyAIHelpers::IsTestCityStrategy_ForestCity
PUBLIC	??_C@_0BL@GNKICLFF@AICITYSTRATEGY_FOREST_CITY?$AA@ ; `string'
PUBLIC	?IsTestCityStrategy_MountainCity@CityStrategyAIHelpers@@YA_NPAVCvCity@@@Z ; CityStrategyAIHelpers::IsTestCityStrategy_MountainCity
PUBLIC	??_C@_0BN@PLODLAAO@AICITYSTRATEGY_MOUNTAIN_CITY?$AA@ ; `string'
PUBLIC	?IsTestCityStrategy_RiverCity@CityStrategyAIHelpers@@YA_NPAVCvCity@@@Z ; CityStrategyAIHelpers::IsTestCityStrategy_RiverCity
PUBLIC	??_C@_0BK@IOOIOOLJ@AICITYSTRATEGY_RIVER_CITY?$AA@ ; `string'
PUBLIC	?IsTestCityStrategy_OriginalCapital@CityStrategyAIHelpers@@YA_NPAVCvCity@@@Z ; CityStrategyAIHelpers::IsTestCityStrategy_OriginalCapital
PUBLIC	??_C@_0CA@NNCEJJDF@AICITYSTRATEGY_ORIGINAL_CAPITAL?$AA@ ; `string'
PUBLIC	?IsTestCityStrategy_MediumCityHighDifficulty@CityStrategyAIHelpers@@YA_NPAVCvCity@@@Z ; CityStrategyAIHelpers::IsTestCityStrategy_MediumCityHighDifficulty
PUBLIC	??_C@_0CL@HHHGPLCE@AICITYSTRATEGY_MEDIUM_CITY_HIGH_@ ; `string'
PUBLIC	?IsTestCityStrategy_IsPuppet@CityStrategyAIHelpers@@YA_NPAVCvCity@@@Z ; CityStrategyAIHelpers::IsTestCityStrategy_IsPuppet
PUBLIC	??_C@_0BJ@FMFMBFAD@AICITYSTRATEGY_IS_PUPPET?$AA@ ; `string'
PUBLIC	?IsTestCityStrategy_UnderBlockade@CityStrategyAIHelpers@@YA_NPAVCvCity@@@Z ; CityStrategyAIHelpers::IsTestCityStrategy_UnderBlockade
PUBLIC	??_C@_0BO@BLCPKGIA@AICITYSTRATEGY_UNDER_BLOCKADE?$AA@ ; `string'
PUBLIC	?IsTestCityStrategy_FirstProductionBuilding@CityStrategyAIHelpers@@YA_NPAVCvCity@@@Z ; CityStrategyAIHelpers::IsTestCityStrategy_FirstProductionBuilding
PUBLIC	??_C@_0CJ@DDNEONLN@AICITYSTRATEGY_FIRST_PRODUCTION_@ ; `string'
PUBLIC	?IsTestCityStrategy_FirstFaithBuilding@CityStrategyAIHelpers@@YA_NPAVCvCity@@@Z ; CityStrategyAIHelpers::IsTestCityStrategy_FirstFaithBuilding
PUBLIC	??_C@_0CE@LMKDOHOB@AICITYSTRATEGY_FIRST_FAITH_BUILD@ ; `string'
PUBLIC	?IsTestCityStrategy_FirstGoldBuilding@CityStrategyAIHelpers@@YA_NPAVCvCity@@@Z ; CityStrategyAIHelpers::IsTestCityStrategy_FirstGoldBuilding
PUBLIC	??_C@_0CD@HEMHCPMD@AICITYSTRATEGY_FIRST_GOLD_BUILDI@ ; `string'
PUBLIC	?IsTestCityStrategy_FirstScienceBuilding@CityStrategyAIHelpers@@YA_NPAVCvCity@@@Z ; CityStrategyAIHelpers::IsTestCityStrategy_FirstScienceBuilding
PUBLIC	??_C@_0CG@MOOPCMID@AICITYSTRATEGY_FIRST_SCIENCE_BUI@ ; `string'
PUBLIC	?IsTestCityStrategy_FirstCultureBuilding@CityStrategyAIHelpers@@YA_NPAVCvCity@@@Z ; CityStrategyAIHelpers::IsTestCityStrategy_FirstCultureBuilding
PUBLIC	??_C@_0CG@GAEBDJPP@AICITYSTRATEGY_FIRST_CULTURE_BUI@ ; `string'
PUBLIC	?IsTestCityStrategy_FirstCultureBuildingEmergency@CityStrategyAIHelpers@@YA_NPAVCvCity@@@Z ; CityStrategyAIHelpers::IsTestCityStrategy_FirstCultureBuildingEmergency
PUBLIC	??_C@_0DA@IEELANCN@AICITYSTRATEGY_FIRST_CULTURE_BUI@ ; `string'
PUBLIC	?IsTestCityStrategy_CapitalUnderThreat@CityStrategyAIHelpers@@YA_NPAVCvCity@@@Z ; CityStrategyAIHelpers::IsTestCityStrategy_CapitalUnderThreat
PUBLIC	??_C@_0CE@HFBDFGBB@AICITYSTRATEGY_CAPITAL_UNDER_THR@ ; `string'
PUBLIC	?IsTestCityStrategy_CapitalNeedSettler@CityStrategyAIHelpers@@YA_NW4AICityStrategyTypes@@PAVCvCity@@@Z ; CityStrategyAIHelpers::IsTestCityStrategy_CapitalNeedSettler
PUBLIC	??_C@_0CE@MJEFENGK@AICITYSTRATEGY_CAPITAL_NEED_SETT@ ; `string'
PUBLIC	?IsTestCityStrategy_HaveTrainingFacility@CityStrategyAIHelpers@@YA_NPAVCvCity@@@Z ; CityStrategyAIHelpers::IsTestCityStrategy_HaveTrainingFacility
PUBLIC	??_C@_0CG@OLENHIPE@AICITYSTRATEGY_HAVE_TRAINING_FAC@ ; `string'
PUBLIC	??_C@_0CL@MLCMCMNB@AICITYSTRATEGY_NEED_IMPROVEMENT_@ ; `string'
PUBLIC	?IsTestCityStrategy_NeedImprovement@CityStrategyAIHelpers@@YA_NPAVCvCity@@W4YieldTypes@@@Z ; CityStrategyAIHelpers::IsTestCityStrategy_NeedImprovement
PUBLIC	??_C@_0CF@PCAHHCHO@AICITYSTRATEGY_NEED_IMPROVEMENT_@ ; `string'
PUBLIC	?IsTestCityStrategy_EnoughNavalTileImprovement@CityStrategyAIHelpers@@YA_NPAVCvCity@@@Z ; CityStrategyAIHelpers::IsTestCityStrategy_EnoughNavalTileImprovement
PUBLIC	??_C@_0CN@MCKCAAFC@AICITYSTRATEGY_ENOUGH_NAVAL_TILE@ ; `string'
PUBLIC	?IsTestCityStrategy_NeedNavalTileImprovement@CityStrategyAIHelpers@@YA_NPAVCvCity@@@Z ; CityStrategyAIHelpers::IsTestCityStrategy_NeedNavalTileImprovement
PUBLIC	??_C@_0CL@NDBKHKDA@AICITYSTRATEGY_NEED_NAVAL_TILE_I@ ; `string'
PUBLIC	?IsTestCityStrategy_NeedNavalGrowth@CityStrategyAIHelpers@@YA_NW4AICityStrategyTypes@@PAVCvCity@@@Z ; CityStrategyAIHelpers::IsTestCityStrategy_NeedNavalGrowth
PUBLIC	??_C@_0CB@OGNJHFNH@AICITYSTRATEGY_NEED_NAVAL_GROWTH@ ; `string'
PUBLIC	?IsTestCityStrategy_EnoughTileImprovers@CityStrategyAIHelpers@@YA_NW4AICityStrategyTypes@@PAVCvCity@@@Z ; CityStrategyAIHelpers::IsTestCityStrategy_EnoughTileImprovers
PUBLIC	??_C@_0CF@OMHBDDIL@AICITYSTRATEGY_ENOUGH_TILE_IMPRO@ ; `string'
PUBLIC	?IsTestCityStrategy_WantTileImprovers@CityStrategyAIHelpers@@YA_NW4AICityStrategyTypes@@PAVCvCity@@@Z ; CityStrategyAIHelpers::IsTestCityStrategy_WantTileImprovers
PUBLIC	??_C@_0CD@DNMPEKPE@AICITYSTRATEGY_WANT_TILE_IMPROVE@ ; `string'
PUBLIC	?IsTestCityStrategy_NeedTileImprovers@CityStrategyAIHelpers@@YA_NW4AICityStrategyTypes@@PAVCvCity@@@Z ; CityStrategyAIHelpers::IsTestCityStrategy_NeedTileImprovers
PUBLIC	??_C@_0CD@CGFLOLNE@AICITYSTRATEGY_NEED_TILE_IMPROVE@ ; `string'
PUBLIC	?IsTestCityStrategy_Landlocked@CityStrategyAIHelpers@@YA_NPAVCvCity@@@Z ; CityStrategyAIHelpers::IsTestCityStrategy_Landlocked
PUBLIC	??_C@_0BK@MGLLCJKP@AICITYSTRATEGY_LANDLOCKED?$AA@ ; `string'
PUBLIC	?IsTestCityStrategy_LargeCity@CityStrategyAIHelpers@@YA_NPAVCvCity@@@Z ; CityStrategyAIHelpers::IsTestCityStrategy_LargeCity
PUBLIC	??_C@_0BK@NMAPLFLB@AICITYSTRATEGY_LARGE_CITY?$AA@ ; `string'
PUBLIC	?IsTestCityStrategy_MediumCity@CityStrategyAIHelpers@@YA_NPAVCvCity@@@Z ; CityStrategyAIHelpers::IsTestCityStrategy_MediumCity
PUBLIC	??_C@_0BL@GDIAFPO@AICITYSTRATEGY_MEDIUM_CITY?$AA@ ; `string'
PUBLIC	?IsTestCityStrategy_SmallCity@CityStrategyAIHelpers@@YA_NPAVCvCity@@@Z ; CityStrategyAIHelpers::IsTestCityStrategy_SmallCity
PUBLIC	??_C@_0BK@KGICECAD@AICITYSTRATEGY_SMALL_CITY?$AA@ ; `string'
PUBLIC	?IsTestCityStrategy_TinyCity@CityStrategyAIHelpers@@YA_NPAVCvCity@@@Z ; CityStrategyAIHelpers::IsTestCityStrategy_TinyCity
PUBLIC	??_C@_0BJ@JBOLMCPJ@AICITYSTRATEGY_TINY_CITY?$AA@ ; `string'
PUBLIC	??_C@_00CNPNBAHC@?$AA@				; `string'
PUBLIC	__$ArrayPad$
PUBLIC	?DoTurn@CvCityStrategyAI@@QAEXXZ		; CvCityStrategyAI::DoTurn
EXTRN	??1CvLuaArgsHandle@@QAE@XZ:PROC			; CvLuaArgsHandle::~CvLuaArgsHandle
EXTRN	?CallTestAll@LuaSupport@@YA_NPAVICvEngineScriptSystem1@@PBDPAVICvEngineScriptSystemArgs1@@AA_N@Z:PROC ; LuaSupport::CallTestAll
EXTRN	??0CvLuaArgsHandle@@QAE@XZ:PROC			; CvLuaArgsHandle::CvLuaArgsHandle
EXTRN	__imp_??$?8DU?$char_traits@D@std@@V?$allocator@D@1@@std@@YA_NABV?$basic_string@DU?$char_traits@D@std@@V?$allocator@D@2@@0@PBD@Z:PROC
EXTRN	__imp_??0?$basic_string@DU?$char_traits@D@std@@V?$allocator@D@2@@std@@QAE@PBD@Z:PROC
EXTRN	?HasTech@CvTeamTechs@@QBE_NW4TechTypes@@@Z:PROC	; CvTeamTechs::HasTech
EXTRN	?GetTeamTechs@CvTeam@@QBEPAVCvTeamTechs@@XZ:PROC ; CvTeam::GetTeamTechs
EXTRN	?getTeam@CvCity@@QBE?AW4TeamTypes@@XZ:PROC	; CvCity::getTeam
;	COMDAT ??_C@_0BI@OBIIEEEC@CityStrategyCanActivate?$AA@
; File d:\sources\lekmod_git\checkout\lekmod_dll\cvgamecoredll_expansion2\cvglobals.h
CONST	SEGMENT
??_C@_0BI@OBIIEEEC@CityStrategyCanActivate?$AA@ DB 'CityStrategyCanActiva'
	DB	'te', 00H					; `string'
CONST	ENDS
;	COMDAT ??_C@_0CB@FJDKEHMJ@AICITYSTRATEGY_GOOD_AIRLIFT_CITY@
CONST	SEGMENT
??_C@_0CB@FJDKEHMJ@AICITYSTRATEGY_GOOD_AIRLIFT_CITY@ DB 'AICITYSTRATEGY_G'
	DB	'OOD_AIRLIFT_CITY', 00H			; `string'
CONST	ENDS
;	COMDAT ??_C@_0CF@FBKODDGD@AICITYSTRATEGY_NEED_TOURISM_BUIL@
CONST	SEGMENT
??_C@_0CF@FBKODDGD@AICITYSTRATEGY_NEED_TOURISM_BUIL@ DB 'AICITYSTRATEGY_N'
	DB	'EED_TOURISM_BUILDING', 00H			; `string'
CONST	ENDS
;	COMDAT ??_C@_0CF@LBPACDHK@AICITYSTRATEGY_NEED_CULTURE_BUIL@
CONST	SEGMENT
??_C@_0CF@LBPACDHK@AICITYSTRATEGY_NEED_CULTURE_BUIL@ DB 'AICITYSTRATEGY_N'
	DB	'EED_CULTURE_BUILDING', 00H			; `string'
CONST	ENDS
;	COMDAT ??_C@_0CK@MKEELCEJ@AICITYSTRATEGY_INTERNATIONAL_TRA@
CONST	SEGMENT
??_C@_0CK@MKEELCEJ@AICITYSTRATEGY_INTERNATIONAL_TRA@ DB 'AICITYSTRATEGY_I'
	DB	'NTERNATIONAL_TRADE_ORIGIN', 00H		; `string'
CONST	ENDS
;	COMDAT ??_C@_0CP@NDHLDCB@AICITYSTRATEGY_INTERNATIONAL_TRA@
CONST	SEGMENT
??_C@_0CP@NDHLDCB@AICITYSTRATEGY_INTERNATIONAL_TRA@ DB 'AICITYSTRATEGY_IN'
	DB	'TERNATIONAL_TRADE_DESTINATION', 00H		; `string'
CONST	ENDS
;	COMDAT ??_C@_0DF@EHEOFEPN@AICITYSTRATEGY_NO_NEED_INTERNATI@
CONST	SEGMENT
??_C@_0DF@EHEOFEPN@AICITYSTRATEGY_NO_NEED_INTERNATI@ DB 'AICITYSTRATEGY_N'
	DB	'O_NEED_INTERNATIONAL_SEA_TRADE_ROUTE', 00H	; `string'
CONST	ENDS
;	COMDAT ??_C@_0DC@LCLJFDJM@AICITYSTRATEGY_NEED_INTERNATIONA@
CONST	SEGMENT
??_C@_0DC@LCLJFDJM@AICITYSTRATEGY_NEED_INTERNATIONA@ DB 'AICITYSTRATEGY_N'
	DB	'EED_INTERNATIONAL_SEA_TRADE_ROUTE', 00H	; `string'
CONST	ENDS
;	COMDAT ??_C@_0DG@EEPLECGP@AICITYSTRATEGY_NO_NEED_INTERNATI@
CONST	SEGMENT
??_C@_0DG@EEPLECGP@AICITYSTRATEGY_NO_NEED_INTERNATI@ DB 'AICITYSTRATEGY_N'
	DB	'O_NEED_INTERNATIONAL_LAND_TRADE_ROUTE', 00H	; `string'
CONST	ENDS
;	COMDAT ??_C@_0DD@HOLLOEKG@AICITYSTRATEGY_NEED_INTERNATIONA@
CONST	SEGMENT
??_C@_0DD@HOLLOEKG@AICITYSTRATEGY_NEED_INTERNATIONA@ DB 'AICITYSTRATEGY_N'
	DB	'EED_INTERNATIONAL_LAND_TRADE_ROUTE', 00H	; `string'
CONST	ENDS
;	COMDAT ??_C@_0BM@FBGEKDFP@AICITYSTRATEGY_GOOD_GP_CITY?$AA@
CONST	SEGMENT
??_C@_0BM@FBGEKDFP@AICITYSTRATEGY_GOOD_GP_CITY?$AA@ DB 'AICITYSTRATEGY_GO'
	DB	'OD_GP_CITY', 00H				; `string'
CONST	ENDS
;	COMDAT ??_C@_0CA@IJGDBOAB@AICITYSTRATEGY_KEY_SCIENCE_CITY?$AA@
CONST	SEGMENT
??_C@_0CA@IJGDBOAB@AICITYSTRATEGY_KEY_SCIENCE_CITY?$AA@ DB 'AICITYSTRATEG'
	DB	'Y_KEY_SCIENCE_CITY', 00H			; `string'
CONST	ENDS
;	COMDAT ??_C@_0CB@MJBNJJHL@AICITYSTRATEGY_MANY_TECHS_STOLEN@
CONST	SEGMENT
??_C@_0CB@MJBNJJHL@AICITYSTRATEGY_MANY_TECHS_STOLEN@ DB 'AICITYSTRATEGY_M'
	DB	'ANY_TECHS_STOLEN', 00H			; `string'
CONST	ENDS
;	COMDAT ??_C@_0BK@PNCLKHNL@AICITYSTRATEGY_COAST_CITY?$AA@
CONST	SEGMENT
??_C@_0BK@PNCLKHNL@AICITYSTRATEGY_COAST_CITY?$AA@ DB 'AICITYSTRATEGY_COAS'
	DB	'T_CITY', 00H				; `string'
CONST	ENDS
;	COMDAT ??_C@_0BL@FDKNAHIG@AICITYSTRATEGY_JUNGLE_CITY?$AA@
CONST	SEGMENT
??_C@_0BL@FDKNAHIG@AICITYSTRATEGY_JUNGLE_CITY?$AA@ DB 'AICITYSTRATEGY_JUN'
	DB	'GLE_CITY', 00H				; `string'
CONST	ENDS
;	COMDAT ??_C@_0BJ@NLLKBHIL@AICITYSTRATEGY_HILL_CITY?$AA@
CONST	SEGMENT
??_C@_0BJ@NLLKBHIL@AICITYSTRATEGY_HILL_CITY?$AA@ DB 'AICITYSTRATEGY_HILL_'
	DB	'CITY', 00H					; `string'
CONST	ENDS
;	COMDAT ??_C@_0BL@GNKICLFF@AICITYSTRATEGY_FOREST_CITY?$AA@
CONST	SEGMENT
??_C@_0BL@GNKICLFF@AICITYSTRATEGY_FOREST_CITY?$AA@ DB 'AICITYSTRATEGY_FOR'
	DB	'EST_CITY', 00H				; `string'
CONST	ENDS
;	COMDAT ??_C@_0BN@PLODLAAO@AICITYSTRATEGY_MOUNTAIN_CITY?$AA@
CONST	SEGMENT
??_C@_0BN@PLODLAAO@AICITYSTRATEGY_MOUNTAIN_CITY?$AA@ DB 'AICITYSTRATEGY_M'
	DB	'OUNTAIN_CITY', 00H				; `string'
CONST	ENDS
;	COMDAT ??_C@_0BK@IOOIOOLJ@AICITYSTRATEGY_RIVER_CITY?$AA@
CONST	SEGMENT
??_C@_0BK@IOOIOOLJ@AICITYSTRATEGY_RIVER_CITY?$AA@ DB 'AICITYSTRATEGY_RIVE'
	DB	'R_CITY', 00H				; `string'
CONST	ENDS
;	COMDAT ??_C@_0CA@NNCEJJDF@AICITYSTRATEGY_ORIGINAL_CAPITAL?$AA@
CONST	SEGMENT
??_C@_0CA@NNCEJJDF@AICITYSTRATEGY_ORIGINAL_CAPITAL?$AA@ DB 'AICITYSTRATEG'
	DB	'Y_ORIGINAL_CAPITAL', 00H			; `string'
CONST	ENDS
;	COMDAT ??_C@_0CL@HHHGPLCE@AICITYSTRATEGY_MEDIUM_CITY_HIGH_@
CONST	SEGMENT
??_C@_0CL@HHHGPLCE@AICITYSTRATEGY_MEDIUM_CITY_HIGH_@ DB 'AICITYSTRATEGY_M'
	DB	'EDIUM_CITY_HIGH_DIFFICULTY', 00H		; `string'
CONST	ENDS
;	COMDAT ??_C@_0BJ@FMFMBFAD@AICITYSTRATEGY_IS_PUPPET?$AA@
CONST	SEGMENT
??_C@_0BJ@FMFMBFAD@AICITYSTRATEGY_IS_PUPPET?$AA@ DB 'AICITYSTRATEGY_IS_PU'
	DB	'PPET', 00H					; `string'
CONST	ENDS
;	COMDAT ??_C@_0BO@BLCPKGIA@AICITYSTRATEGY_UNDER_BLOCKADE?$AA@
CONST	SEGMENT
??_C@_0BO@BLCPKGIA@AICITYSTRATEGY_UNDER_BLOCKADE?$AA@ DB 'AICITYSTRATEGY_'
	DB	'UNDER_BLOCKADE', 00H			; `string'
CONST	ENDS
;	COMDAT ??_C@_0CJ@DDNEONLN@AICITYSTRATEGY_FIRST_PRODUCTION_@
CONST	SEGMENT
??_C@_0CJ@DDNEONLN@AICITYSTRATEGY_FIRST_PRODUCTION_@ DB 'AICITYSTRATEGY_F'
	DB	'IRST_PRODUCTION_BUILDING', 00H		; `string'
CONST	ENDS
;	COMDAT ??_C@_0CE@LMKDOHOB@AICITYSTRATEGY_FIRST_FAITH_BUILD@
CONST	SEGMENT
??_C@_0CE@LMKDOHOB@AICITYSTRATEGY_FIRST_FAITH_BUILD@ DB 'AICITYSTRATEGY_F'
	DB	'IRST_FAITH_BUILDING', 00H			; `string'
CONST	ENDS
;	COMDAT ??_C@_0CD@HEMHCPMD@AICITYSTRATEGY_FIRST_GOLD_BUILDI@
CONST	SEGMENT
??_C@_0CD@HEMHCPMD@AICITYSTRATEGY_FIRST_GOLD_BUILDI@ DB 'AICITYSTRATEGY_F'
	DB	'IRST_GOLD_BUILDING', 00H			; `string'
CONST	ENDS
;	COMDAT ??_C@_0CG@MOOPCMID@AICITYSTRATEGY_FIRST_SCIENCE_BUI@
CONST	SEGMENT
??_C@_0CG@MOOPCMID@AICITYSTRATEGY_FIRST_SCIENCE_BUI@ DB 'AICITYSTRATEGY_F'
	DB	'IRST_SCIENCE_BUILDING', 00H			; `string'
CONST	ENDS
;	COMDAT ??_C@_0CG@GAEBDJPP@AICITYSTRATEGY_FIRST_CULTURE_BUI@
CONST	SEGMENT
??_C@_0CG@GAEBDJPP@AICITYSTRATEGY_FIRST_CULTURE_BUI@ DB 'AICITYSTRATEGY_F'
	DB	'IRST_CULTURE_BUILDING', 00H			; `string'
CONST	ENDS
;	COMDAT ??_C@_0DA@IEELANCN@AICITYSTRATEGY_FIRST_CULTURE_BUI@
CONST	SEGMENT
??_C@_0DA@IEELANCN@AICITYSTRATEGY_FIRST_CULTURE_BUI@ DB 'AICITYSTRATEGY_F'
	DB	'IRST_CULTURE_BUILDING_EMERGENCY', 00H	; `string'
CONST	ENDS
;	COMDAT ??_C@_0CE@HFBDFGBB@AICITYSTRATEGY_CAPITAL_UNDER_THR@
CONST	SEGMENT
??_C@_0CE@HFBDFGBB@AICITYSTRATEGY_CAPITAL_UNDER_THR@ DB 'AICITYSTRATEGY_C'
	DB	'APITAL_UNDER_THREAT', 00H			; `string'
CONST	ENDS
;	COMDAT ??_C@_0CE@MJEFENGK@AICITYSTRATEGY_CAPITAL_NEED_SETT@
CONST	SEGMENT
??_C@_0CE@MJEFENGK@AICITYSTRATEGY_CAPITAL_NEED_SETT@ DB 'AICITYSTRATEGY_C'
	DB	'APITAL_NEED_SETTLER', 00H			; `string'
CONST	ENDS
;	COMDAT ??_C@_0CG@OLENHIPE@AICITYSTRATEGY_HAVE_TRAINING_FAC@
CONST	SEGMENT
??_C@_0CG@OLENHIPE@AICITYSTRATEGY_HAVE_TRAINING_FAC@ DB 'AICITYSTRATEGY_H'
	DB	'AVE_TRAINING_FACILITY', 00H			; `string'
CONST	ENDS
;	COMDAT ??_C@_0CL@MLCMCMNB@AICITYSTRATEGY_NEED_IMPROVEMENT_@
CONST	SEGMENT
??_C@_0CL@MLCMCMNB@AICITYSTRATEGY_NEED_IMPROVEMENT_@ DB 'AICITYSTRATEGY_N'
