; Listing generated by Microsoft (R) Optimizing Compiler Version 15.00.30729.01 

	TITLE	D:\sources\Lekmod_git\checkout\LEKMOD_DLL\CvGameCoreDLL_Expansion2\CvCitySpecializationAI.cpp
	.686P
	.XMM
	include listing.inc
	.model	flat

INCLUDELIB MSVCRT
INCLUDELIB OLDNAMES

PUBLIC	?NO_QUEST_DATA@CvMinorCivQuest@@2HB		; CvMinorCivQuest::NO_QUEST_DATA
PUBLIC	?NO_TURN@CvMinorCivQuest@@2HB			; CvMinorCivQuest::NO_TURN
;	COMDAT ?NO_TURN@CvMinorCivQuest@@2HB
CONST	SEGMENT
?NO_TURN@CvMinorCivQuest@@2HB DD 0ffffffffH		; CvMinorCivQuest::NO_TURN
CONST	ENDS
;	COMDAT ?NO_QUEST_DATA@CvMinorCivQuest@@2HB
CONST	SEGMENT
?NO_QUEST_DATA@CvMinorCivQuest@@2HB DD 0ffffffffH	; CvMinorCivQuest::NO_QUEST_DATA
CONST	ENDS
PUBLIC	??_7CvCitySpecializationXMLEntry@@6B@		; CvCitySpecializationXMLEntry::`vftable'
PUBLIC	??0CvCitySpecializationXMLEntry@@QAE@XZ		; CvCitySpecializationXMLEntry::CvCitySpecializationXMLEntry
PUBLIC	?CacheResults@CvCitySpecializationXMLEntry@@UAE_NAAVResults@Database@@AAVCvDatabaseUtility@@@Z ; CvCitySpecializationXMLEntry::CacheResults
EXTRN	??0CvBaseInfo@@QAE@XZ:PROC			; CvBaseInfo::CvBaseInfo
EXTRN	??8CvBaseInfo@@UBE_NABV0@@Z:PROC		; CvBaseInfo::operator==
EXTRN	?readFrom@CvBaseInfo@@UAEXAAVFDataStream@@@Z:PROC ; CvBaseInfo::readFrom
EXTRN	?writeTo@CvBaseInfo@@UBEXAAVFDataStream@@@Z:PROC ; CvBaseInfo::writeTo
EXTRN	??_ECvCitySpecializationXMLEntry@@UAEPAXI@Z:PROC ; CvCitySpecializationXMLEntry::`vector deleting destructor'
;	COMDAT ??_7CvCitySpecializationXMLEntry@@6B@
; File d:\sources\lekmod_git\checkout\lekmod_dll\cvgamecoredll_expansion2\cvcityspecializationai.cpp
CONST	SEGMENT
??_7CvCitySpecializationXMLEntry@@6B@ DD FLAT:?CacheResults@CvCitySpecializationXMLEntry@@UAE_NAAVResults@Database@@AAVCvDatabaseUtility@@@Z ; CvCitySpecializationXMLEntry::`vftable'
	DD	FLAT:??8CvBaseInfo@@UBE_NABV0@@Z
	DD	FLAT:?readFrom@CvBaseInfo@@UAEXAAVFDataStream@@@Z
	DD	FLAT:?writeTo@CvBaseInfo@@UBEXAAVFDataStream@@@Z
	DD	FLAT:??_ECvCitySpecializationXMLEntry@@UAEPAXI@Z
; Function compile flags: /Odtp
CONST	ENDS
;	COMDAT ??0CvCitySpecializationXMLEntry@@QAE@XZ
_TEXT	SEGMENT
_this$ = -4						; size = 4
??0CvCitySpecializationXMLEntry@@QAE@XZ PROC		; CvCitySpecializationXMLEntry::CvCitySpecializationXMLEntry, COMDAT
; _this$ = ecx

; 37   : {

	push	ebp
	mov	ebp, esp
	push	ecx
	mov	DWORD PTR _this$[ebp], ecx
	mov	ecx, DWORD PTR _this$[ebp]
	call	??0CvBaseInfo@@QAE@XZ			; CvBaseInfo::CvBaseInfo
	mov	eax, DWORD PTR _this$[ebp]
	mov	DWORD PTR [eax], OFFSET ??_7CvCitySpecializationXMLEntry@@6B@
	mov	ecx, DWORD PTR _this$[ebp]
	mov	DWORD PTR [ecx+260], 0
	mov	edx, DWORD PTR _this$[ebp]
	mov	DWORD PTR [edx+264], -1
	mov	eax, DWORD PTR _this$[ebp]
	mov	DWORD PTR [eax+268], 0
	mov	ecx, DWORD PTR _this$[ebp]
	mov	BYTE PTR [ecx+272], 0
	mov	edx, DWORD PTR _this$[ebp]
	mov	BYTE PTR [edx+273], 0
	mov	eax, DWORD PTR _this$[ebp]
	mov	BYTE PTR [eax+274], 0
	mov	ecx, DWORD PTR _this$[ebp]
	mov	BYTE PTR [ecx+275], 0
	mov	edx, DWORD PTR _this$[ebp]
	mov	DWORD PTR [edx+276], 0

; 38   : }

	mov	eax, DWORD PTR _this$[ebp]
	mov	esp, ebp
	pop	ebp
	ret	0
??0CvCitySpecializationXMLEntry@@QAE@XZ ENDP		; CvCitySpecializationXMLEntry::CvCitySpecializationXMLEntry
_TEXT	ENDS
PUBLIC	??1CvCitySpecializationXMLEntry@@UAE@XZ		; CvCitySpecializationXMLEntry::~CvCitySpecializationXMLEntry
EXTRN	??3@YAXPAX@Z:PROC				; operator delete
; Function compile flags: /Odtp
;	COMDAT ??_GCvCitySpecializationXMLEntry@@UAEPAXI@Z
_TEXT	SEGMENT
_this$ = -4						; size = 4
___flags$ = 8						; size = 4
??_GCvCitySpecializationXMLEntry@@UAEPAXI@Z PROC	; CvCitySpecializationXMLEntry::`scalar deleting destructor', COMDAT
; _this$ = ecx
	push	ebp
	mov	ebp, esp
	push	ecx
	mov	DWORD PTR _this$[ebp], ecx
	mov	ecx, DWORD PTR _this$[ebp]
	call	??1CvCitySpecializationXMLEntry@@UAE@XZ	; CvCitySpecializationXMLEntry::~CvCitySpecializationXMLEntry
	mov	eax, DWORD PTR ___flags$[ebp]
	and	eax, 1
	je	SHORT $LN1@scalar
	mov	ecx, DWORD PTR _this$[ebp]
	push	ecx
	call	??3@YAXPAX@Z				; operator delete
	add	esp, 4
$LN1@scalar:
	mov	eax, DWORD PTR _this$[ebp]
	mov	esp, ebp
	pop	ebp
	ret	4
??_GCvCitySpecializationXMLEntry@@UAEPAXI@Z ENDP	; CvCitySpecializationXMLEntry::`scalar deleting destructor'
_TEXT	ENDS
PUBLIC	??1CvBaseInfo@@QAE@XZ				; CvBaseInfo::~CvBaseInfo
EXTRN	??_V@YAXPAX@Z:PROC				; operator delete[]
; Function compile flags: /Odtp
;	COMDAT ??1CvCitySpecializationXMLEntry@@UAE@XZ
_TEXT	SEGMENT
_this$ = -56						; size = 4
$T229545 = -16						; size = 4
$T229544 = -12						; size = 4
$T229539 = -8						; size = 4
$T229538 = -4						; size = 4
??1CvCitySpecializationXMLEntry@@UAE@XZ PROC		; CvCitySpecializationXMLEntry::~CvCitySpecializationXMLEntry, COMDAT
; _this$ = ecx

; 41   : {

	push	ebp
	mov	ebp, esp
	sub	esp, 56					; 00000038H
	mov	DWORD PTR _this$[ebp], ecx
	mov	eax, DWORD PTR _this$[ebp]
	mov	DWORD PTR [eax], OFFSET ??_7CvCitySpecializationXMLEntry@@6B@

; 42   : 	SAFE_DELETE_ARRAY(m_piFlavorValue);

	mov	ecx, DWORD PTR _this$[ebp]
	add	ecx, 260				; 00000104H
	mov	DWORD PTR $T229539[ebp], ecx
	mov	edx, DWORD PTR $T229539[ebp]
	mov	eax, DWORD PTR [edx]
	mov	DWORD PTR $T229538[ebp], eax
	mov	ecx, DWORD PTR $T229538[ebp]
	push	ecx
	call	??_V@YAXPAX@Z				; operator delete[]
	add	esp, 4
	mov	edx, DWORD PTR $T229539[ebp]
	mov	DWORD PTR [edx], 0

; 43   : 	SAFE_DELETE_ARRAY(m_piYieldTargetTimes100);

	mov	eax, DWORD PTR _this$[ebp]
	add	eax, 276				; 00000114H
	mov	DWORD PTR $T229545[ebp], eax
	mov	ecx, DWORD PTR $T229545[ebp]
	mov	edx, DWORD PTR [ecx]
	mov	DWORD PTR $T229544[ebp], edx
	mov	eax, DWORD PTR $T229544[ebp]
	push	eax
	call	??_V@YAXPAX@Z				; operator delete[]
	add	esp, 4
	mov	ecx, DWORD PTR $T229545[ebp]
	mov	DWORD PTR [ecx], 0

; 44   : }

	mov	ecx, DWORD PTR _this$[ebp]
	call	??1CvBaseInfo@@QAE@XZ
	mov	esp, ebp
	pop	ebp
	ret	0
??1CvCitySpecializationXMLEntry@@UAE@XZ ENDP		; CvCitySpecializationXMLEntry::~CvCitySpecializationXMLEntry
_TEXT	ENDS
PUBLIC	??1CvString@@QAE@XZ				; CvString::~CvString
EXTRN	__imp_??1?$basic_string@DU?$char_traits@D@std@@V?$allocator@D@2@@std@@QAE@XZ:PROC
EXTRN	___security_cookie:DWORD
EXTRN	___CxxFrameHandler3:PROC
EXTRN	@__security_check_cookie@4:PROC
;	COMDAT xdata$x
xdata$x	SEGMENT
__ehfuncinfo$??1CvBaseInfo@@QAE@XZ DD 019930522H
	DD	08H
	DD	FLAT:__unwindtable$??1CvBaseInfo@@QAE@XZ
	DD	2 DUP(00H)
	DD	2 DUP(00H)
	DD	00H
	DD	01H
__unwindtable$??1CvBaseInfo@@QAE@XZ DD 0ffffffffH
	DD	FLAT:__unwindfunclet$??1CvBaseInfo@@QAE@XZ$0
	DD	00H
	DD	FLAT:__unwindfunclet$??1CvBaseInfo@@QAE@XZ$1
	DD	01H
	DD	FLAT:__unwindfunclet$??1CvBaseInfo@@QAE@XZ$2
	DD	02H
	DD	FLAT:__unwindfunclet$??1CvBaseInfo@@QAE@XZ$3
	DD	03H
	DD	FLAT:__unwindfunclet$??1CvBaseInfo@@QAE@XZ$4
	DD	04H
	DD	FLAT:__unwindfunclet$??1CvBaseInfo@@QAE@XZ$5
	DD	05H
	DD	FLAT:__unwindfunclet$??1CvBaseInfo@@QAE@XZ$6
	DD	06H
	DD	FLAT:__unwindfunclet$??1CvBaseInfo@@QAE@XZ$7
; Function compile flags: /Odtp
xdata$x	ENDS
;	COMDAT ??1CvBaseInfo@@QAE@XZ
_TEXT	SEGMENT
_this$ = -52						; size = 4
$T229656 = -48						; size = 4
$T229651 = -44						; size = 4
$T229646 = -40						; size = 4
$T229641 = -36						; size = 4
$T229636 = -32						; size = 4
$T229631 = -28						; size = 4
$T229626 = -24						; size = 4
$T229621 = -20						; size = 4
$T229616 = -16						; size = 4
__$EHRec$ = -12						; size = 12
??1CvBaseInfo@@QAE@XZ PROC				; CvBaseInfo::~CvBaseInfo, COMDAT
; _this$ = ecx
	push	ebp
	mov	ebp, esp
	push	-1
	push	__ehhandler$??1CvBaseInfo@@QAE@XZ
	mov	eax, DWORD PTR fs:0
	push	eax
	sub	esp, 40					; 00000028H
	mov	eax, DWORD PTR ___security_cookie
	xor	eax, ebp
	push	eax
	lea	eax, DWORD PTR __$EHRec$[ebp]
	mov	DWORD PTR fs:0, eax
	mov	DWORD PTR _this$[ebp], ecx
	mov	DWORD PTR __$EHRec$[ebp+8], 7
	mov	eax, DWORD PTR _this$[ebp]
	add	eax, 232				; 000000e8H
	mov	DWORD PTR $T229616[ebp], eax
	mov	ecx, DWORD PTR $T229616[ebp]
	call	DWORD PTR __imp_??1?$basic_string@DU?$char_traits@D@std@@V?$allocator@D@2@@std@@QAE@XZ
	mov	BYTE PTR __$EHRec$[ebp+8], 6
	mov	ecx, DWORD PTR _this$[ebp]
	add	ecx, 204				; 000000ccH
	mov	DWORD PTR $T229621[ebp], ecx
	mov	ecx, DWORD PTR $T229621[ebp]
	call	DWORD PTR __imp_??1?$basic_string@DU?$char_traits@D@std@@V?$allocator@D@2@@std@@QAE@XZ
	mov	BYTE PTR __$EHRec$[ebp+8], 5
	mov	edx, DWORD PTR _this$[ebp]
	add	edx, 176				; 000000b0H
	mov	DWORD PTR $T229626[ebp], edx
	mov	ecx, DWORD PTR $T229626[ebp]
	call	DWORD PTR __imp_??1?$basic_string@DU?$char_traits@D@std@@V?$allocator@D@2@@std@@QAE@XZ
	mov	BYTE PTR __$EHRec$[ebp+8], 4
	mov	eax, DWORD PTR _this$[ebp]
	add	eax, 148				; 00000094H
	mov	DWORD PTR $T229631[ebp], eax
	mov	ecx, DWORD PTR $T229631[ebp]
	call	DWORD PTR __imp_??1?$basic_string@DU?$char_traits@D@std@@V?$allocator@D@2@@std@@QAE@XZ
	mov	BYTE PTR __$EHRec$[ebp+8], 3
	mov	ecx, DWORD PTR _this$[ebp]
	add	ecx, 120				; 00000078H
	mov	DWORD PTR $T229636[ebp], ecx
	mov	ecx, DWORD PTR $T229636[ebp]
	call	DWORD PTR __imp_??1?$basic_string@DU?$char_traits@D@std@@V?$allocator@D@2@@std@@QAE@XZ
	mov	BYTE PTR __$EHRec$[ebp+8], 2
	mov	edx, DWORD PTR _this$[ebp]
	add	edx, 92					; 0000005cH
	mov	DWORD PTR $T229641[ebp], edx
	mov	ecx, DWORD PTR $T229641[ebp]
	call	DWORD PTR __imp_??1?$basic_string@DU?$char_traits@D@std@@V?$allocator@D@2@@std@@QAE@XZ
	mov	BYTE PTR __$EHRec$[ebp+8], 1
	mov	eax, DWORD PTR _this$[ebp]
	add	eax, 64					; 00000040H
	mov	DWORD PTR $T229646[ebp], eax
	mov	ecx, DWORD PTR $T229646[ebp]
	call	DWORD PTR __imp_??1?$basic_string@DU?$char_traits@D@std@@V?$allocator@D@2@@std@@QAE@XZ
	mov	BYTE PTR __$EHRec$[ebp+8], 0
	mov	ecx, DWORD PTR _this$[ebp]
	add	ecx, 36					; 00000024H
	mov	DWORD PTR $T229651[ebp], ecx
	mov	ecx, DWORD PTR $T229651[ebp]
	call	DWORD PTR __imp_??1?$basic_string@DU?$char_traits@D@std@@V?$allocator@D@2@@std@@QAE@XZ
	mov	DWORD PTR __$EHRec$[ebp+8], -1
	mov	edx, DWORD PTR _this$[ebp]
	add	edx, 8
	mov	DWORD PTR $T229656[ebp], edx
	mov	ecx, DWORD PTR $T229656[ebp]
	call	DWORD PTR __imp_??1?$basic_string@DU?$char_traits@D@std@@V?$allocator@D@2@@std@@QAE@XZ
	mov	ecx, DWORD PTR __$EHRec$[ebp]
	mov	DWORD PTR fs:0, ecx
	pop	ecx
	mov	esp, ebp
	pop	ebp
	ret	0
_TEXT	ENDS
;	COMDAT text$x
text$x	SEGMENT
__unwindfunclet$??1CvBaseInfo@@QAE@XZ$0:
	mov	ecx, DWORD PTR _this$[ebp]
	add	ecx, 8
	jmp	??1CvString@@QAE@XZ			; CvString::~CvString
__unwindfunclet$??1CvBaseInfo@@QAE@XZ$1:
	mov	ecx, DWORD PTR _this$[ebp]
	add	ecx, 36					; 00000024H
	jmp	??1CvString@@QAE@XZ			; CvString::~CvString
__unwindfunclet$??1CvBaseInfo@@QAE@XZ$2:
	mov	ecx, DWORD PTR _this$[ebp]
	add	ecx, 64					; 00000040H
	jmp	??1CvString@@QAE@XZ			; CvString::~CvString
__unwindfunclet$??1CvBaseInfo@@QAE@XZ$3:
	mov	ecx, DWORD PTR _this$[ebp]
	add	ecx, 92					; 0000005cH
	jmp	??1CvString@@QAE@XZ			; CvString::~CvString
__unwindfunclet$??1CvBaseInfo@@QAE@XZ$4:
	mov	ecx, DWORD PTR _this$[ebp]
	add	ecx, 120				; 00000078H
	jmp	??1CvString@@QAE@XZ			; CvString::~CvString
__unwindfunclet$??1CvBaseInfo@@QAE@XZ$5:
	mov	ecx, DWORD PTR _this$[ebp]
	add	ecx, 148				; 00000094H
	jmp	??1CvString@@QAE@XZ			; CvString::~CvString
__unwindfunclet$??1CvBaseInfo@@QAE@XZ$6:
	mov	ecx, DWORD PTR _this$[ebp]
	add	ecx, 176				; 000000b0H
	jmp	??1CvString@@QAE@XZ			; CvString::~CvString
__unwindfunclet$??1CvBaseInfo@@QAE@XZ$7:
	mov	ecx, DWORD PTR _this$[ebp]
	add	ecx, 204				; 000000ccH
	jmp	??1CvString@@QAE@XZ			; CvString::~CvString
__ehhandler$??1CvBaseInfo@@QAE@XZ:
	mov	edx, DWORD PTR [esp+8]
	lea	eax, DWORD PTR [edx+12]
	mov	ecx, DWORD PTR [edx-44]
	xor	ecx, eax
	call	@__security_check_cookie@4
	mov	eax, OFFSET __ehfuncinfo$??1CvBaseInfo@@QAE@XZ
	jmp	___CxxFrameHandler3
text$x	ENDS
??1CvBaseInfo@@QAE@XZ ENDP				; CvBaseInfo::~CvBaseInfo
PUBLIC	??_C@_0BI@ILFMGGJJ@IsOperationUnitProvider?$AA@	; `string'
PUBLIC	??_C@_0O@CNHOKCJD@MustBeCoastal?$AA@		; `string'
PUBLIC	??_C@_09OPCNIHAE@IsDefault?$AA@			; `string'
PUBLIC	??_C@_08JHJLBJAP@IsWonder?$AA@			; `string'
PUBLIC	??_C@_0CA@ODEHHJOA@CitySpecialization_TargetYields?$AA@ ; `string'
PUBLIC	??_C@_0BL@CBAGCDLA@CitySpecialization_Flavors?$AA@ ; `string'
PUBLIC	??_C@_0BH@CAIGOBOC@CitySpecializationType?$AA@	; `string'
PUBLIC	??_C@_09HJBDLJFJ@YieldType?$AA@			; `string'
PUBLIC	??_C@_07CNMHPEMB@SubType?$AA@			; `string'
EXTRN	__imp_?GetBool@Results@Database@@QAE_NPBD@Z:PROC
EXTRN	?SetYields@CvDatabaseUtility@@QAE_NAAPAHPBD11@Z:PROC ; CvDatabaseUtility::SetYields
EXTRN	?SetFlavors@CvDatabaseUtility@@QAE_NAAPAHPBD11H@Z:PROC ; CvDatabaseUtility::SetFlavors
EXTRN	__imp_?c_str@?$basic_string@DU?$char_traits@D@std@@V?$allocator@D@2@@std@@QBEPBDXZ:PROC
EXTRN	?getInfoTypeForString@CvGlobals@@QBEHPBD_N@Z:PROC ; CvGlobals::getInfoTypeForString
EXTRN	?gGlobals@@3VCvGlobals@@A:BYTE			; gGlobals
EXTRN	__imp_?GetText@Results@Database@@QAEPBDPBD@Z:PROC
EXTRN	__imp_?GetInt@Results@Database@@QAEHPBD@Z:PROC
EXTRN	?CacheResults@CvBaseInfo@@UAE_NAAVResults@Database@@AAVCvDatabaseUtility@@@Z:PROC ; CvBaseInfo::CacheResults
;	COMDAT ??_C@_0BI@ILFMGGJJ@IsOperationUnitProvider?$AA@
; File d:\sources\lekmod_git\checkout\lekmod_dll\cvgamecoredll_expansion2\cvinfos.h
CONST	SEGMENT
??_C@_0BI@ILFMGGJJ@IsOperationUnitProvider?$AA@ DB 'IsOperationUnitProvid'
	DB	'er', 00H					; `string'
CONST	ENDS
;	COMDAT ??_C@_0O@CNHOKCJD@MustBeCoastal?$AA@
CONST	SEGMENT
??_C@_0O@CNHOKCJD@MustBeCoastal?$AA@ DB 'MustBeCoastal', 00H ; `string'
CONST	ENDS
;	COMDAT ??_C@_09OPCNIHAE@IsDefault?$AA@
CONST	SEGMENT
??_C@_09OPCNIHAE@IsDefault?$AA@ DB 'IsDefault', 00H	; `string'
CONST	ENDS
;	COMDAT ??_C@_08JHJLBJAP@IsWonder?$AA@
CONST	SEGMENT
??_C@_08JHJLBJAP@IsWonder?$AA@ DB 'IsWonder', 00H	; `string'
CONST	ENDS
;	COMDAT ??_C@_0CA@ODEHHJOA@CitySpecialization_TargetYields?$AA@
CONST	SEGMENT
??_C@_0CA@ODEHHJOA@CitySpecialization_TargetYields?$AA@ DB 'CitySpecializ'
	DB	'ation_TargetYields', 00H			; `string'
CONST	ENDS
;	COMDAT ??_C@_0BL@CBAGCDLA@CitySpecialization_Flavors?$AA@
CONST	SEGMENT
??_C@_0BL@CBAGCDLA@CitySpecialization_Flavors?$AA@ DB 'CitySpecialization'
	DB	'_Flavors', 00H				; `string'
CONST	ENDS
;	COMDAT ??_C@_0BH@CAIGOBOC@CitySpecializationType?$AA@
CONST	SEGMENT
??_C@_0BH@CAIGOBOC@CitySpecializationType?$AA@ DB 'CitySpecializationType'
	DB	00H						; `string'
CONST	ENDS
;	COMDAT ??_C@_09HJBDLJFJ@YieldType?$AA@
CONST	SEGMENT
??_C@_09HJBDLJFJ@YieldType?$AA@ DB 'YieldType', 00H	; `string'
CONST	ENDS
;	COMDAT ??_C@_07CNMHPEMB@SubType?$AA@
CONST	SEGMENT
??_C@_07CNMHPEMB@SubType?$AA@ DB 'SubType', 00H		; `string'
; Function compile flags: /Odtp
; File d:\sources\lekmod_git\checkout\lekmod_dll\cvgamecoredll_expansion2\cvcityspecializationai.cpp
CONST	ENDS
;	COMDAT ?CacheResults@CvCitySpecializationXMLEntry@@UAE_NAAVResults@Database@@AAVCvDatabaseUtility@@@Z
_TEXT	SEGMENT
_this$ = -12						; size = 4
_szType$ = -8						; size = 4
_szYieldType$ = -4					; size = 4
_kResults$ = 8						; size = 4
_kUtility$ = 12						; size = 4
?CacheResults@CvCitySpecializationXMLEntry@@UAE_NAAVResults@Database@@AAVCvDatabaseUtility@@@Z PROC ; CvCitySpecializationXMLEntry::CacheResults, COMDAT
; _this$ = ecx

; 47   : {

	push	ebp
	mov	ebp, esp
	sub	esp, 12					; 0000000cH
	mov	DWORD PTR _this$[ebp], ecx

; 48   : 	if(!CvBaseInfo::CacheResults(kResults, kUtility))

	mov	eax, DWORD PTR _kUtility$[ebp]
	push	eax
	mov	ecx, DWORD PTR _kResults$[ebp]
	push	ecx
	mov	ecx, DWORD PTR _this$[ebp]
	call	?CacheResults@CvBaseInfo@@UAE_NAAVResults@Database@@AAVCvDatabaseUtility@@@Z ; CvBaseInfo::CacheResults
	movzx	edx, al
	test	edx, edx
	jne	SHORT $LN2@CacheResul

; 49   : 		return false;

	xor	al, al
	jmp	$LN3@CacheResul
$LN2@CacheResul:

; 50   : 
; 51   : 	//Basic Properties
; 52   : 	m_iSubtype = kResults.GetInt("SubType");

	push	OFFSET ??_C@_07CNMHPEMB@SubType?$AA@
	mov	ecx, DWORD PTR _kResults$[ebp]
	call	DWORD PTR __imp_?GetInt@Results@Database@@QAEHPBD@Z
	mov	ecx, DWORD PTR _this$[ebp]
	mov	DWORD PTR [ecx+268], eax

; 53   : 
; 54   : 	//References
; 55   : 	const char* szYieldType = kResults.GetText("YieldType");

	push	OFFSET ??_C@_09HJBDLJFJ@YieldType?$AA@
	mov	ecx, DWORD PTR _kResults$[ebp]
	call	DWORD PTR __imp_?GetText@Results@Database@@QAEPBDPBD@Z
	mov	DWORD PTR _szYieldType$[ebp], eax

; 56   : 	if(szYieldType != NULL)

	cmp	DWORD PTR _szYieldType$[ebp], 0
	je	SHORT $LN5@CacheResul

; 57   : 	{
; 58   : 		m_eYieldType = (YieldTypes)GC.getInfoTypeForString(szYieldType);

	push	0
	mov	edx, DWORD PTR _szYieldType$[ebp]
	push	edx
	mov	ecx, OFFSET ?gGlobals@@3VCvGlobals@@A	; gGlobals
	call	?getInfoTypeForString@CvGlobals@@QBEHPBD_N@Z ; CvGlobals::getInfoTypeForString
	mov	ecx, DWORD PTR _this$[ebp]
	mov	DWORD PTR [ecx+264], eax

; 59   : 	}
; 60   : 
; 61   : 	//Arrays
; 62   : 	const char* szType = GetType();

$LN5@CacheResul:
	mov	ecx, DWORD PTR _this$[ebp]
	add	ecx, 176				; 000000b0H
	call	DWORD PTR __imp_?c_str@?$basic_string@DU?$char_traits@D@std@@V?$allocator@D@2@@std@@QBEPBDXZ
	mov	DWORD PTR _szType$[ebp], eax

; 63   : 	kUtility.SetFlavors(m_piFlavorValue, "CitySpecialization_Flavors", "CitySpecializationType", szType);

	push	0
	mov	edx, DWORD PTR _szType$[ebp]
	push	edx
	push	OFFSET ??_C@_0BH@CAIGOBOC@CitySpecializationType?$AA@
	push	OFFSET ??_C@_0BL@CBAGCDLA@CitySpecialization_Flavors?$AA@
	mov	eax, DWORD PTR _this$[ebp]
	add	eax, 260				; 00000104H
	push	eax
	mov	ecx, DWORD PTR _kUtility$[ebp]
	call	?SetFlavors@CvDatabaseUtility@@QAE_NAAPAHPBD11H@Z ; CvDatabaseUtility::SetFlavors

; 64   : 	kUtility.SetYields(m_piYieldTargetTimes100, "CitySpecialization_TargetYields", "CitySpecializationType", szType);

	mov	ecx, DWORD PTR _szType$[ebp]
	push	ecx
	push	OFFSET ??_C@_0BH@CAIGOBOC@CitySpecializationType?$AA@
	push	OFFSET ??_C@_0CA@ODEHHJOA@CitySpecialization_TargetYields?$AA@
	mov	edx, DWORD PTR _this$[ebp]
	add	edx, 276				; 00000114H
	push	edx
	mov	ecx, DWORD PTR _kUtility$[ebp]
	call	?SetYields@CvDatabaseUtility@@QAE_NAAPAHPBD11@Z ; CvDatabaseUtility::SetYields

; 65   : 
; 66   : 	//Booleans
; 67   : 	m_bWonder = kResults.GetBool("IsWonder");

	push	OFFSET ??_C@_08JHJLBJAP@IsWonder?$AA@
	mov	ecx, DWORD PTR _kResults$[ebp]
	call	DWORD PTR __imp_?GetBool@Results@Database@@QAE_NPBD@Z
	mov	ecx, DWORD PTR _this$[ebp]
	mov	BYTE PTR [ecx+272], al

; 68   : 	m_bDefault = kResults.GetBool("IsDefault");

	push	OFFSET ??_C@_09OPCNIHAE@IsDefault?$AA@
	mov	ecx, DWORD PTR _kResults$[ebp]
	call	DWORD PTR __imp_?GetBool@Results@Database@@QAE_NPBD@Z
	mov	edx, DWORD PTR _this$[ebp]
	mov	BYTE PTR [edx+273], al

; 69   : 	m_bMustBeCoastal = kResults.GetBool("MustBeCoastal");

	push	OFFSET ??_C@_0O@CNHOKCJD@MustBeCoastal?$AA@
	mov	ecx, DWORD PTR _kResults$[ebp]
	call	DWORD PTR __imp_?GetBool@Results@Database@@QAE_NPBD@Z
	mov	ecx, DWORD PTR _this$[ebp]
	mov	BYTE PTR [ecx+274], al

; 70   : 	m_bOperationUnitProvider = kResults.GetBool("IsOperationUnitProvider");

	push	OFFSET ??_C@_0BI@ILFMGGJJ@IsOperationUnitProvider?$AA@
	mov	ecx, DWORD PTR _kResults$[ebp]
	call	DWORD PTR __imp_?GetBool@Results@Database@@QAE_NPBD@Z
	mov	edx, DWORD PTR _this$[ebp]
	mov	BYTE PTR [edx+275], al

; 71   : 
; 72   : 	return true;

	mov	al, 1
$LN3@CacheResul:

; 73   : }

	mov	esp, ebp
	pop	ebp
	ret	8
?CacheResults@CvCitySpecializationXMLEntry@@UAE_NAAVResults@Database@@AAVCvDatabaseUtility@@@Z ENDP ; CvCitySpecializationXMLEntry::CacheResults
_TEXT	ENDS
PUBLIC	?GetFlavorValue@CvCitySpecializationXMLEntry@@QBEHH@Z ; CvCitySpecializationXMLEntry::GetFlavorValue
; Function compile flags: /Odtp
;	COMDAT ?GetFlavorValue@CvCitySpecializationXMLEntry@@QBEHH@Z
_TEXT	SEGMENT
tv69 = -8						; size = 4
_this$ = -4						; size = 4
_i$ = 8							; size = 4
?GetFlavorValue@CvCitySpecializationXMLEntry@@QBEHH@Z PROC ; CvCitySpecializationXMLEntry::GetFlavorValue, COMDAT
; _this$ = ecx

; 77   : {

	push	ebp
	mov	ebp, esp
	sub	esp, 8
	mov	DWORD PTR _this$[ebp], ecx

; 78   : 	FAssertMsg(i < GC.getNumFlavorTypes(), "Index out of bounds");
; 79   : 	FAssertMsg(i > -1, "Index out of bounds");
; 80   : 	return m_piFlavorValue ? m_piFlavorValue[i] : -1;

	mov	eax, DWORD PTR _this$[ebp]
	cmp	DWORD PTR [eax+260], 0
	je	SHORT $LN3@GetFlavorV
	mov	ecx, DWORD PTR _this$[ebp]
	mov	edx, DWORD PTR [ecx+260]
	mov	eax, DWORD PTR _i$[ebp]
	mov	ecx, DWORD PTR [edx+eax*4]
	mov	DWORD PTR tv69[ebp], ecx
	jmp	SHORT $LN4@GetFlavorV
$LN3@GetFlavorV:
	mov	DWORD PTR tv69[ebp], -1
$LN4@GetFlavorV:
	mov	eax, DWORD PTR tv69[ebp]

; 81   : }

	mov	esp, ebp
	pop	ebp
	ret	4
?GetFlavorValue@CvCitySpecializationXMLEntry@@QBEHH@Z ENDP ; CvCitySpecializationXMLEntry::GetFlavorValue
_TEXT	ENDS
PUBLIC	?GetYieldType@CvCitySpecializationXMLEntry@@QBE?AW4YieldTypes@@XZ ; CvCitySpecializationXMLEntry::GetYieldType
; Function compile flags: /Odtp
;	COMDAT ?GetYieldType@CvCitySpecializationXMLEntry@@QBE?AW4YieldTypes@@XZ
_TEXT	SEGMENT
_this$ = -4						; size = 4
?GetYieldType@CvCitySpecializationXMLEntry@@QBE?AW4YieldTypes@@XZ PROC ; CvCitySpecializationXMLEntry::GetYieldType, COMDAT
; _this$ = ecx

; 85   : {

	push	ebp
	mov	ebp, esp
	push	ecx
	mov	DWORD PTR _this$[ebp], ecx

; 86   : 	return m_eYieldType;

	mov	eax, DWORD PTR _this$[ebp]
	mov	eax, DWORD PTR [eax+264]

; 87   : }

	mov	esp, ebp
	pop	ebp
	ret	0
?GetYieldType@CvCitySpecializationXMLEntry@@QBE?AW4YieldTypes@@XZ ENDP ; CvCitySpecializationXMLEntry::GetYieldType
_TEXT	ENDS
PUBLIC	?GetYieldTargetTimes100@CvCitySpecializationXMLEntry@@QBEHW4YieldTypes@@@Z ; CvCitySpecializationXMLEntry::GetYieldTargetTimes100
; Function compile flags: /Odtp
;	COMDAT ?GetYieldTargetTimes100@CvCitySpecializationXMLEntry@@QBEHW4YieldTypes@@@Z
_TEXT	SEGMENT
_this$ = -4						; size = 4
_eYield$ = 8						; size = 4
?GetYieldTargetTimes100@CvCitySpecializationXMLEntry@@QBEHW4YieldTypes@@@Z PROC ; CvCitySpecializationXMLEntry::GetYieldTargetTimes100, COMDAT
; _this$ = ecx

; 90   : {

	push	ebp
	mov	ebp, esp
	push	ecx
	mov	DWORD PTR _this$[ebp], ecx

; 91   : 	return m_piYieldTargetTimes100[eYield];

	mov	eax, DWORD PTR _this$[ebp]
	mov	ecx, DWORD PTR [eax+276]
	mov	edx, DWORD PTR _eYield$[ebp]
	mov	eax, DWORD PTR [ecx+edx*4]

; 92   : }

	mov	esp, ebp
	pop	ebp
	ret	4
?GetYieldTargetTimes100@CvCitySpecializationXMLEntry@@QBEHW4YieldTypes@@@Z ENDP ; CvCitySpecializationXMLEntry::GetYieldTargetTimes100
_TEXT	ENDS
PUBLIC	?GetSubtype@CvCitySpecializationXMLEntry@@QBEHXZ ; CvCitySpecializationXMLEntry::GetSubtype
; Function compile flags: /Odtp
;	COMDAT ?GetSubtype@CvCitySpecializationXMLEntry@@QBEHXZ
_TEXT	SEGMENT
_this$ = -4						; size = 4
?GetSubtype@CvCitySpecializationXMLEntry@@QBEHXZ PROC	; CvCitySpecializationXMLEntry::GetSubtype, COMDAT
; _this$ = ecx

; 97   : {

	push	ebp
	mov	ebp, esp
	push	ecx
	mov	DWORD PTR _this$[ebp], ecx

; 98   : 	return m_iSubtype;

	mov	eax, DWORD PTR _this$[ebp]
	mov	eax, DWORD PTR [eax+268]

; 99   : }

	mov	esp, ebp
	pop	ebp
	ret	0
?GetSubtype@CvCitySpecializationXMLEntry@@QBEHXZ ENDP	; CvCitySpecializationXMLEntry::GetSubtype
_TEXT	ENDS
PUBLIC	?IsWonder@CvCitySpecializationXMLEntry@@QBE_NXZ	; CvCitySpecializationXMLEntry::IsWonder
; Function compile flags: /Odtp
;	COMDAT ?IsWonder@CvCitySpecializationXMLEntry@@QBE_NXZ
_TEXT	SEGMENT
_this$ = -4						; size = 4
?IsWonder@CvCitySpecializationXMLEntry@@QBE_NXZ PROC	; CvCitySpecializationXMLEntry::IsWonder, COMDAT
; _this$ = ecx

; 103  : {

	push	ebp
	mov	ebp, esp
	push	ecx
	mov	DWORD PTR _this$[ebp], ecx

; 104  : 	return m_bWonder;

	mov	eax, DWORD PTR _this$[ebp]
	mov	al, BYTE PTR [eax+272]

; 105  : }

	mov	esp, ebp
	pop	ebp
	ret	0
?IsWonder@CvCitySpecializationXMLEntry@@QBE_NXZ ENDP	; CvCitySpecializationXMLEntry::IsWonder
_TEXT	ENDS
PUBLIC	?IsDefault@CvCitySpecializationXMLEntry@@QBE_NXZ ; CvCitySpecializationXMLEntry::IsDefault
; Function compile flags: /Odtp
;	COMDAT ?IsDefault@CvCitySpecializationXMLEntry@@QBE_NXZ
_TEXT	SEGMENT
_this$ = -4						; size = 4
?IsDefault@CvCitySpecializationXMLEntry@@QBE_NXZ PROC	; CvCitySpecializationXMLEntry::IsDefault, COMDAT
; _this$ = ecx

; 109  : {

	push	ebp
	mov	ebp, esp
	push	ecx
	mov	DWORD PTR _this$[ebp], ecx

; 110  : 	return m_bDefault;

	mov	eax, DWORD PTR _this$[ebp]
	mov	al, BYTE PTR [eax+273]

; 111  : }

	mov	esp, ebp
	pop	ebp
	ret	0
?IsDefault@CvCitySpecializationXMLEntry@@QBE_NXZ ENDP	; CvCitySpecializationXMLEntry::IsDefault
_TEXT	ENDS
PUBLIC	?IsMustBeCoastal@CvCitySpecializationXMLEntry@@QBE_NXZ ; CvCitySpecializationXMLEntry::IsMustBeCoastal
; Function compile flags: /Odtp
;	COMDAT ?IsMustBeCoastal@CvCitySpecializationXMLEntry@@QBE_NXZ
_TEXT	SEGMENT
_this$ = -4						; size = 4
?IsMustBeCoastal@CvCitySpecializationXMLEntry@@QBE_NXZ PROC ; CvCitySpecializationXMLEntry::IsMustBeCoastal, COMDAT
; _this$ = ecx

; 115  : {

	push	ebp
	mov	ebp, esp
	push	ecx
	mov	DWORD PTR _this$[ebp], ecx

; 116  : 	return m_bMustBeCoastal;

	mov	eax, DWORD PTR _this$[ebp]
	mov	al, BYTE PTR [eax+274]

; 117  : }

	mov	esp, ebp
	pop	ebp
	ret	0
?IsMustBeCoastal@CvCitySpecializationXMLEntry@@QBE_NXZ ENDP ; CvCitySpecializationXMLEntry::IsMustBeCoastal
_TEXT	ENDS
PUBLIC	?IsOperationUnitProvider@CvCitySpecializationXMLEntry@@QBE_NXZ ; CvCitySpecializationXMLEntry::IsOperationUnitProvider
; Function compile flags: /Odtp
;	COMDAT ?IsOperationUnitProvider@CvCitySpecializationXMLEntry@@QBE_NXZ
_TEXT	SEGMENT
_this$ = -4						; size = 4
?IsOperationUnitProvider@CvCitySpecializationXMLEntry@@QBE_NXZ PROC ; CvCitySpecializationXMLEntry::IsOperationUnitProvider, COMDAT
; _this$ = ecx

; 121  : {

	push	ebp
	mov	ebp, esp
	push	ecx
	mov	DWORD PTR _this$[ebp], ecx

; 122  : 	return m_bOperationUnitProvider;

	mov	eax, DWORD PTR _this$[ebp]
	mov	al, BYTE PTR [eax+275]

; 123  : }

	mov	esp, ebp
	pop	ebp
	ret	0
?IsOperationUnitProvider@CvCitySpecializationXMLEntry@@QBE_NXZ ENDP ; CvCitySpecializationXMLEntry::IsOperationUnitProvider
_TEXT	ENDS
PUBLIC	??1?$_Vector_val@PAVCvCitySpecializationXMLEntry@@V?$allocator@PAVCvCitySpecializationXMLEntry@@@std@@@std@@QAE@XZ ; std::_Vector_val<CvCitySpecializationXMLEntry *,std::allocator<CvCitySpecializationXMLEntry *> >::~_Vector_val<CvCitySpecializationXMLEntry *,std::allocator<CvCitySpecializationXMLEntry *> >
PUBLIC	?_Buy@?$vector@PAVCvCitySpecializationXMLEntry@@V?$allocator@PAVCvCitySpecializationXMLEntry@@@std@@@std@@IAE_NI@Z ; std::vector<CvCitySpecializationXMLEntry *,std::allocator<CvCitySpecializationXMLEntry *> >::_Buy
PUBLIC	??0CvCitySpecializationXMLEntries@@QAE@XZ	; CvCitySpecializationXMLEntries::CvCitySpecializationXMLEntries
EXTRN	__CxxThrowException@8:PROC
;	COMDAT xdata$x
; File c:\program files (x86)\microsoft visual studio 9.0\vc\include\exception
xdata$x	SEGMENT
__unwindtable$??0CvCitySpecializationXMLEntries@@QAE@XZ DD 0ffffffffH
	DD	FLAT:__unwindfunclet$??0CvCitySpecializationXMLEntries@@QAE@XZ$1
__ehfuncinfo$??0CvCitySpecializationXMLEntries@@QAE@XZ DD 019930522H
	DD	01H
	DD	FLAT:__unwindtable$??0CvCitySpecializationXMLEntries@@QAE@XZ
	DD	2 DUP(00H)
	DD	2 DUP(00H)
	DD	00H
	DD	01H
; Function compile flags: /Odtp
; File d:\sources\lekmod_git\checkout\lekmod_dll\cvgamecoredll_expansion2\cvcityspecializationai.cpp
xdata$x	ENDS
;	COMDAT ??0CvCitySpecializationXMLEntries@@QAE@XZ
_TEXT	SEGMENT
tv92 = -132						; size = 4
tv149 = -128						; size = 4
_this$ = -124						; size = 4
$T229724 = -30						; size = 1
$T229711 = -29						; size = 1
$T229707 = -28						; size = 4
$T229700 = -20						; size = 4
__$EHRec$ = -12						; size = 12
??0CvCitySpecializationXMLEntries@@QAE@XZ PROC		; CvCitySpecializationXMLEntries::CvCitySpecializationXMLEntries, COMDAT
; _this$ = ecx

; 130  : {

	push	ebp
	mov	ebp, esp
	push	-1
	push	__ehhandler$??0CvCitySpecializationXMLEntries@@QAE@XZ
	mov	eax, DWORD PTR fs:0
	push	eax
	sub	esp, 120				; 00000078H
	mov	eax, DWORD PTR ___security_cookie
	xor	eax, ebp
	push	eax
	lea	eax, DWORD PTR __$EHRec$[ebp]
	mov	DWORD PTR fs:0, eax
	mov	DWORD PTR _this$[ebp], ecx
	lea	eax, DWORD PTR $T229724[ebp]
	mov	DWORD PTR $T229700[ebp], eax
	lea	ecx, DWORD PTR $T229711[ebp]
	mov	DWORD PTR $T229707[ebp], ecx
	mov	edx, DWORD PTR _this$[ebp]
	mov	DWORD PTR tv149[ebp], edx
	mov	eax, DWORD PTR _this$[ebp]
	mov	DWORD PTR tv92[ebp], eax
	mov	DWORD PTR __$EHRec$[ebp+8], 0
	push	0
	mov	ecx, DWORD PTR _this$[ebp]
	call	?_Buy@?$vector@PAVCvCitySpecializationXMLEntry@@V?$allocator@PAVCvCitySpecializationXMLEntry@@@std@@@std@@IAE_NI@Z ; std::vector<CvCitySpecializationXMLEntry *,std::allocator<CvCitySpecializationXMLEntry *> >::_Buy
	mov	DWORD PTR __$EHRec$[ebp+8], -1

; 131  : #ifdef AUI_WARNING_FIXES
; 132  : 	m_CurrentIndex = 0;
; 133  : 	m_CurrentYield = NO_YIELD;
; 134  : #endif
; 135  : }

	mov	eax, DWORD PTR _this$[ebp]
	mov	ecx, DWORD PTR __$EHRec$[ebp]
	mov	DWORD PTR fs:0, ecx
	pop	ecx
	mov	esp, ebp
	pop	ebp
	ret	0
_TEXT	ENDS
;	COMDAT text$x
text$x	SEGMENT
__unwindfunclet$??0CvCitySpecializationXMLEntries@@QAE@XZ$1:
	mov	ecx, DWORD PTR _this$[ebp]
	jmp	??1?$_Vector_val@PAVCvCitySpecializationXMLEntry@@V?$allocator@PAVCvCitySpecializationXMLEntry@@@std@@@std@@QAE@XZ
__ehhandler$??0CvCitySpecializationXMLEntries@@QAE@XZ:
	mov	edx, DWORD PTR [esp+8]
	lea	eax, DWORD PTR [edx+12]
	mov	ecx, DWORD PTR [edx-124]
	xor	ecx, eax
	call	@__security_check_cookie@4
	mov	eax, OFFSET __ehfuncinfo$??0CvCitySpecializationXMLEntries@@QAE@XZ
	jmp	___CxxFrameHandler3
text$x	ENDS
??0CvCitySpecializationXMLEntries@@QAE@XZ ENDP		; CvCitySpecializationXMLEntries::CvCitySpecializationXMLEntries
PUBLIC	??1?$vector@PAVCvCitySpecializationXMLEntry@@V?$allocator@PAVCvCitySpecializationXMLEntry@@@std@@@std@@QAE@XZ ; std::vector<CvCitySpecializationXMLEntry *,std::allocator<CvCitySpecializationXMLEntry *> >::~vector<CvCitySpecializationXMLEntry *,std::allocator<CvCitySpecializationXMLEntry *> >
PUBLIC	?_Tidy@?$vector@PAVCvCitySpecializationXMLEntry@@V?$allocator@PAVCvCitySpecializationXMLEntry@@@std@@@std@@IAEXXZ ; std::vector<CvCitySpecializationXMLEntry *,std::allocator<CvCitySpecializationXMLEntry *> >::_Tidy
PUBLIC	?DeleteArray@CvCitySpecializationXMLEntries@@QAEXXZ ; CvCitySpecializationXMLEntries::DeleteArray
PUBLIC	??1CvCitySpecializationXMLEntries@@QAE@XZ	; CvCitySpecializationXMLEntries::~CvCitySpecializationXMLEntries
;	COMDAT xdata$x
; File c:\program files (x86)\microsoft visual studio 9.0\vc\include\xutility
xdata$x	SEGMENT
__unwindtable$??1CvCitySpecializationXMLEntries@@QAE@XZ DD 0ffffffffH
	DD	FLAT:__unwindfunclet$??1CvCitySpecializationXMLEntries@@QAE@XZ$0
	DD	0ffffffffH
	DD	FLAT:__unwindfunclet$??1CvCitySpecializationXMLEntries@@QAE@XZ$1
__ehfuncinfo$??1CvCitySpecializationXMLEntries@@QAE@XZ DD 019930522H
	DD	02H
	DD	FLAT:__unwindtable$??1CvCitySpecializationXMLEntries@@QAE@XZ
	DD	2 DUP(00H)
	DD	2 DUP(00H)
	DD	00H
	DD	01H
; Function compile flags: /Odtp
; File d:\sources\lekmod_git\checkout\lekmod_dll\cvgamecoredll_expansion2\cvcityspecializationai.cpp
xdata$x	ENDS
;	COMDAT ??1CvCitySpecializationXMLEntries@@QAE@XZ
_TEXT	SEGMENT
_this$ = -44						; size = 4
__$EHRec$ = -12						; size = 12
??1CvCitySpecializationXMLEntries@@QAE@XZ PROC		; CvCitySpecializationXMLEntries::~CvCitySpecializationXMLEntries, COMDAT
; _this$ = ecx

; 139  : {

	push	ebp
	mov	ebp, esp
	push	-1
	push	__ehhandler$??1CvCitySpecializationXMLEntries@@QAE@XZ
	mov	eax, DWORD PTR fs:0
	push	eax
	sub	esp, 32					; 00000020H
	mov	eax, DWORD PTR ___security_cookie
	xor	eax, ebp
	push	eax
	lea	eax, DWORD PTR __$EHRec$[ebp]
	mov	DWORD PTR fs:0, eax
	mov	DWORD PTR _this$[ebp], ecx
	mov	DWORD PTR __$EHRec$[ebp+8], 0

; 140  : 	DeleteArray();

	mov	ecx, DWORD PTR _this$[ebp]
	call	?DeleteArray@CvCitySpecializationXMLEntries@@QAEXXZ ; CvCitySpecializationXMLEntries::DeleteArray

; 141  : }

	mov	DWORD PTR __$EHRec$[ebp+8], 1
	mov	ecx, DWORD PTR _this$[ebp]
	call	?_Tidy@?$vector@PAVCvCitySpecializationXMLEntry@@V?$allocator@PAVCvCitySpecializationXMLEntry@@@std@@@std@@IAEXXZ ; std::vector<CvCitySpecializationXMLEntry *,std::allocator<CvCitySpecializationXMLEntry *> >::_Tidy
	mov	DWORD PTR __$EHRec$[ebp+8], -1
	mov	ecx, DWORD PTR __$EHRec$[ebp]
	mov	DWORD PTR fs:0, ecx
	pop	ecx
	mov	esp, ebp
	pop	ebp
	ret	0
_TEXT	ENDS
;	COMDAT text$x
text$x	SEGMENT
__unwindfunclet$??1CvCitySpecializationXMLEntries@@QAE@XZ$0:
	mov	ecx, DWORD PTR _this$[ebp]
	jmp	??1?$vector@PAVCvCitySpecializationXMLEntry@@V?$allocator@PAVCvCitySpecializationXMLEntry@@@std@@@std@@QAE@XZ ; std::vector<CvCitySpecializationXMLEntry *,std::allocator<CvCitySpecializationXMLEntry *> >::~vector<CvCitySpecializationXMLEntry *,std::allocator<CvCitySpecializationXMLEntry *> >
__unwindfunclet$??1CvCitySpecializationXMLEntries@@QAE@XZ$1:
	mov	ecx, DWORD PTR _this$[ebp]
	jmp	??1?$_Vector_val@PAVCvCitySpecializationXMLEntry@@V?$allocator@PAVCvCitySpecializationXMLEntry@@@std@@@std@@QAE@XZ
__ehhandler$??1CvCitySpecializationXMLEntries@@QAE@XZ:
	mov	edx, DWORD PTR [esp+8]
	lea	eax, DWORD PTR [edx+12]
	mov	ecx, DWORD PTR [edx-36]
	xor	ecx, eax
	call	@__security_check_cookie@4
	mov	eax, OFFSET __ehfuncinfo$??1CvCitySpecializationXMLEntries@@QAE@XZ
	jmp	___CxxFrameHandler3
text$x	ENDS
??1CvCitySpecializationXMLEntries@@QAE@XZ ENDP		; CvCitySpecializationXMLEntries::~CvCitySpecializationXMLEntries
PUBLIC	?GetCitySpecializationEntries@CvCitySpecializationXMLEntries@@QAEAAV?$vector@PAVCvCitySpecializationXMLEntry@@V?$allocator@PAVCvCitySpecializationXMLEntry@@@std@@@std@@XZ ; CvCitySpecializationXMLEntries::GetCitySpecializationEntries
; Function compile flags: /Odtp
;	COMDAT ?GetCitySpecializationEntries@CvCitySpecializationXMLEntries@@QAEAAV?$vector@PAVCvCitySpecializationXMLEntry@@V?$allocator@PAVCvCitySpecializationXMLEntry@@@std@@@std@@XZ
_TEXT	SEGMENT
_this$ = -4						; size = 4
?GetCitySpecializationEntries@CvCitySpecializationXMLEntries@@QAEAAV?$vector@PAVCvCitySpecializationXMLEntry@@V?$allocator@PAVCvCitySpecializationXMLEntry@@@std@@@std@@XZ PROC ; CvCitySpecializationXMLEntries::GetCitySpecializationEntries, COMDAT
; _this$ = ecx

; 145  : {

	push	ebp
	mov	ebp, esp
	push	ecx
	mov	DWORD PTR _this$[ebp], ecx

; 146  : 	return m_paCitySpecializationEntries;

	mov	eax, DWORD PTR _this$[ebp]

; 147  : }

	mov	esp, ebp
	pop	ebp
	ret	0
?GetCitySpecializationEntries@CvCitySpecializationXMLEntries@@QAEAAV?$vector@PAVCvCitySpecializationXMLEntry@@V?$allocator@PAVCvCitySpecializationXMLEntry@@@std@@@std@@XZ ENDP ; CvCitySpecializationXMLEntries::GetCitySpecializationEntries
_TEXT	ENDS
PUBLIC	?GetNumCitySpecializations@CvCitySpecializationXMLEntries@@QAEHXZ ; CvCitySpecializationXMLEntries::GetNumCitySpecializations
; Function compile flags: /Odtp
;	COMDAT ?GetNumCitySpecializations@CvCitySpecializationXMLEntries@@QAEHXZ
_TEXT	SEGMENT
_this$ = -4						; size = 4
?GetNumCitySpecializations@CvCitySpecializationXMLEntries@@QAEHXZ PROC ; CvCitySpecializationXMLEntries::GetNumCitySpecializations, COMDAT
; _this$ = ecx

; 151  : {

	push	ebp
	mov	ebp, esp
	push	ecx
	mov	DWORD PTR _this$[ebp], ecx

; 152  : 	return m_paCitySpecializationEntries.size();

	mov	eax, DWORD PTR _this$[ebp]
	mov	ecx, DWORD PTR _this$[ebp]
	mov	eax, DWORD PTR [eax+8]
	sub	eax, DWORD PTR [ecx+4]
	sar	eax, 2

; 153  : }

	mov	esp, ebp
	pop	ebp
	ret	0
?GetNumCitySpecializations@CvCitySpecializationXMLEntries@@QAEHXZ ENDP ; CvCitySpecializationXMLEntries::GetNumCitySpecializations
_TEXT	ENDS
PUBLIC	?GetEntry@CvCitySpecializationXMLEntries@@QAEPAVCvCitySpecializationXMLEntry@@H@Z ; CvCitySpecializationXMLEntries::GetEntry
; Function compile flags: /Odtp
;	COMDAT ?GetEntry@CvCitySpecializationXMLEntries@@QAEPAVCvCitySpecializationXMLEntry@@H@Z
_TEXT	SEGMENT
_this$ = -4						; size = 4
_index$ = 8						; size = 4
?GetEntry@CvCitySpecializationXMLEntries@@QAEPAVCvCitySpecializationXMLEntry@@H@Z PROC ; CvCitySpecializationXMLEntries::GetEntry, COMDAT
; _this$ = ecx

; 157  : {

	push	ebp
	mov	ebp, esp
	push	ecx
	mov	DWORD PTR _this$[ebp], ecx

; 158  : 	return m_paCitySpecializationEntries[index];

	mov	eax, DWORD PTR _this$[ebp]
	mov	ecx, DWORD PTR [eax+4]
	mov	edx, DWORD PTR _index$[ebp]
	mov	eax, DWORD PTR [ecx+edx*4]

; 159  : }

	mov	esp, ebp
	pop	ebp
	ret	4
?GetEntry@CvCitySpecializationXMLEntries@@QAEPAVCvCitySpecializationXMLEntry@@H@Z ENDP ; CvCitySpecializationXMLEntries::GetEntry
_TEXT	ENDS
PUBLIC	?GetFirstSpecializationForYield@CvCitySpecializationXMLEntries@@QAE?AW4CitySpecializationTypes@@W4YieldTypes@@@Z ; CvCitySpecializationXMLEntries::GetFirstSpecializationForYield
; Function compile flags: /Odtp
;	COMDAT ?GetFirstSpecializationForYield@CvCitySpecializationXMLEntries@@QAE?AW4CitySpecializationTypes@@W4YieldTypes@@@Z
_TEXT	SEGMENT
_this$ = -8						; size = 4
$T229871 = -4						; size = 4
_eYield$ = 8						; size = 4
?GetFirstSpecializationForYield@CvCitySpecializationXMLEntries@@QAE?AW4CitySpecializationTypes@@W4YieldTypes@@@Z PROC ; CvCitySpecializationXMLEntries::GetFirstSpecializationForYield, COMDAT
; _this$ = ecx

; 163  : {

	push	ebp
	mov	ebp, esp
	sub	esp, 8
	mov	DWORD PTR _this$[ebp], ecx

; 164  : 	m_CurrentYield = eYield;

	mov	eax, DWORD PTR _this$[ebp]
	mov	ecx, DWORD PTR _eYield$[ebp]
	mov	DWORD PTR [eax+20], ecx

; 165  : 	for(m_CurrentIndex = 0; m_CurrentIndex < (int)m_paCitySpecializationEntries.size(); m_CurrentIndex++)

	mov	edx, DWORD PTR _this$[ebp]
	mov	DWORD PTR [edx+16], 0
	jmp	SHORT $LN7@GetFirstSp
$LN3@GetFirstSp:
	mov	eax, DWORD PTR _this$[ebp]
	mov	ecx, DWORD PTR [eax+16]
	add	ecx, 1
	mov	edx, DWORD PTR _this$[ebp]
	mov	DWORD PTR [edx+16], ecx
$LN7@GetFirstSp:
	mov	eax, DWORD PTR _this$[ebp]
	mov	ecx, DWORD PTR _this$[ebp]
	mov	edx, DWORD PTR [eax+8]
	sub	edx, DWORD PTR [ecx+4]
	sar	edx, 2
	mov	eax, DWORD PTR _this$[ebp]
	cmp	DWORD PTR [eax+16], edx
	jge	SHORT $LN2@GetFirstSp

; 166  : 	{
; 167  : 		if(m_paCitySpecializationEntries[m_CurrentIndex]->GetYieldType() == m_CurrentYield)

	mov	ecx, DWORD PTR _this$[ebp]
	mov	edx, DWORD PTR [ecx+16]
	mov	eax, DWORD PTR _this$[ebp]
	mov	ecx, DWORD PTR [eax+4]
	lea	edx, DWORD PTR [ecx+edx*4]
	mov	DWORD PTR $T229871[ebp], edx
	mov	eax, DWORD PTR $T229871[ebp]
	mov	ecx, DWORD PTR [eax]
	call	?GetYieldType@CvCitySpecializationXMLEntry@@QBE?AW4YieldTypes@@XZ ; CvCitySpecializationXMLEntry::GetYieldType
	mov	ecx, DWORD PTR _this$[ebp]
	cmp	eax, DWORD PTR [ecx+20]
	jne	SHORT $LN1@GetFirstSp

; 168  : 		{
; 169  : 			return (CitySpecializationTypes)m_CurrentIndex;

	mov	edx, DWORD PTR _this$[ebp]
	mov	eax, DWORD PTR [edx+16]
	jmp	SHORT $LN5@GetFirstSp
$LN1@GetFirstSp:

; 170  : 		}
; 171  : 	}

	jmp	SHORT $LN3@GetFirstSp
$LN2@GetFirstSp:

; 172  : 	return NO_CITY_SPECIALIZATION;

	or	eax, -1
$LN5@GetFirstSp:

; 173  : }

	mov	esp, ebp
	pop	ebp
	ret	4
?GetFirstSpecializationForYield@CvCitySpecializationXMLEntries@@QAE?AW4CitySpecializationTypes@@W4YieldTypes@@@Z ENDP ; CvCitySpecializationXMLEntries::GetFirstSpecializationForYield
_TEXT	ENDS
PUBLIC	?GetNextSpecializationForYield@CvCitySpecializationXMLEntries@@QAE?AW4CitySpecializationTypes@@XZ ; CvCitySpecializationXMLEntries::GetNextSpecializationForYield
; Function compile flags: /Odtp
;	COMDAT ?GetNextSpecializationForYield@CvCitySpecializationXMLEntries@@QAE?AW4CitySpecializationTypes@@XZ
_TEXT	SEGMENT
_this$ = -8						; size = 4
$T229880 = -4						; size = 4
?GetNextSpecializationForYield@CvCitySpecializationXMLEntries@@QAE?AW4CitySpecializationTypes@@XZ PROC ; CvCitySpecializationXMLEntries::GetNextSpecializationForYield, COMDAT
; _this$ = ecx

; 177  : {

	push	ebp
	mov	ebp, esp
	sub	esp, 8
	mov	DWORD PTR _this$[ebp], ecx

; 178  : #ifdef AUI_WARNING_FIXES
; 179  : 	for (m_CurrentIndex = m_CurrentIndex + 1; m_CurrentIndex < (int)m_paCitySpecializationEntries.size(); m_CurrentIndex++)
; 180  : #else
; 181  : 	for(m_CurrentIndex = m_CurrentIndex++; m_CurrentIndex < (int)m_paCitySpecializationEntries.size(); m_CurrentIndex++)

	mov	eax, DWORD PTR _this$[ebp]
	mov	ecx, DWORD PTR _this$[ebp]
	mov	edx, DWORD PTR [ecx+16]
	mov	DWORD PTR [eax+16], edx
	mov	eax, DWORD PTR _this$[ebp]
	mov	ecx, DWORD PTR [eax+16]
	add	ecx, 1
	mov	edx, DWORD PTR _this$[ebp]
	mov	DWORD PTR [edx+16], ecx
	jmp	SHORT $LN7@GetNextSpe
$LN3@GetNextSpe:
	mov	eax, DWORD PTR _this$[ebp]
	mov	ecx, DWORD PTR [eax+16]
	add	ecx, 1
	mov	edx, DWORD PTR _this$[ebp]
	mov	DWORD PTR [edx+16], ecx
$LN7@GetNextSpe:
	mov	eax, DWORD PTR _this$[ebp]
	mov	ecx, DWORD PTR _this$[ebp]
	mov	edx, DWORD PTR [eax+8]
	sub	edx, DWORD PTR [ecx+4]
	sar	edx, 2
	mov	eax, DWORD PTR _this$[ebp]
	cmp	DWORD PTR [eax+16], edx
	jge	SHORT $LN2@GetNextSpe

; 182  : #endif
; 183  : 	{
; 184  : 		if(m_paCitySpecializationEntries[m_CurrentIndex]->GetYieldType() == m_CurrentYield)

	mov	ecx, DWORD PTR _this$[ebp]
	mov	edx, DWORD PTR [ecx+16]
	mov	eax, DWORD PTR _this$[ebp]
	mov	ecx, DWORD PTR [eax+4]
	lea	edx, DWORD PTR [ecx+edx*4]
	mov	DWORD PTR $T229880[ebp], edx
	mov	eax, DWORD PTR $T229880[ebp]
	mov	ecx, DWORD PTR [eax]
	call	?GetYieldType@CvCitySpecializationXMLEntry@@QBE?AW4YieldTypes@@XZ ; CvCitySpecializationXMLEntry::GetYieldType
	mov	ecx, DWORD PTR _this$[ebp]
	cmp	eax, DWORD PTR [ecx+20]
	jne	SHORT $LN1@GetNextSpe

; 185  : 		{
; 186  : 			return (CitySpecializationTypes)m_CurrentIndex;

	mov	edx, DWORD PTR _this$[ebp]
	mov	eax, DWORD PTR [edx+16]
	jmp	SHORT $LN5@GetNextSpe
$LN1@GetNextSpe:

; 187  : 		}
; 188  : 	}

	jmp	SHORT $LN3@GetNextSpe
$LN2@GetNextSpe:

; 189  : 	return NO_CITY_SPECIALIZATION;

	or	eax, -1
$LN5@GetNextSpe:

; 190  : }

	mov	esp, ebp
	pop	ebp
	ret	0
?GetNextSpecializationForYield@CvCitySpecializationXMLEntries@@QAE?AW4CitySpecializationTypes@@XZ ENDP ; CvCitySpecializationXMLEntries::GetNextSpecializationForYield
_TEXT	ENDS
PUBLIC	?GetNumSpecializationsForYield@CvCitySpecializationXMLEntries@@QAEHW4YieldTypes@@@Z ; CvCitySpecializationXMLEntries::GetNumSpecializationsForYield
; Function compile flags: /Odtp
;	COMDAT ?GetNumSpecializationsForYield@CvCitySpecializationXMLEntries@@QAEHW4YieldTypes@@@Z
_TEXT	SEGMENT
_this$ = -16						; size = 4
$T229889 = -12						; size = 4
_iI$224968 = -8						; size = 4
_iRtnValue$ = -4					; size = 4
_eYield$ = 8						; size = 4
?GetNumSpecializationsForYield@CvCitySpecializationXMLEntries@@QAEHW4YieldTypes@@@Z PROC ; CvCitySpecializationXMLEntries::GetNumSpecializationsForYield, COMDAT
; _this$ = ecx

; 194  : {

	push	ebp
	mov	ebp, esp
	sub	esp, 16					; 00000010H
	mov	DWORD PTR _this$[ebp], ecx

; 195  : 	int iRtnValue = 0;

	mov	DWORD PTR _iRtnValue$[ebp], 0

; 196  : 	for(int iI = 0; iI < (int)m_paCitySpecializationEntries.size(); iI++)

	mov	DWORD PTR _iI$224968[ebp], 0
	jmp	SHORT $LN7@GetNumSpec
$LN3@GetNumSpec:
	mov	eax, DWORD PTR _iI$224968[ebp]
	add	eax, 1
	mov	DWORD PTR _iI$224968[ebp], eax
$LN7@GetNumSpec:
	mov	ecx, DWORD PTR _this$[ebp]
	mov	edx, DWORD PTR _this$[ebp]
	mov	eax, DWORD PTR [ecx+8]
	sub	eax, DWORD PTR [edx+4]
	sar	eax, 2
	cmp	DWORD PTR _iI$224968[ebp], eax
	jge	SHORT $LN2@GetNumSpec

; 197  : 	{
; 198  : 		if(m_paCitySpecializationEntries[iI]->GetYieldType() == eYield)

	mov	ecx, DWORD PTR _this$[ebp]
	mov	edx, DWORD PTR [ecx+4]
	mov	eax, DWORD PTR _iI$224968[ebp]
	lea	ecx, DWORD PTR [edx+eax*4]
	mov	DWORD PTR $T229889[ebp], ecx
	mov	edx, DWORD PTR $T229889[ebp]
	mov	ecx, DWORD PTR [edx]
	call	?GetYieldType@CvCitySpecializationXMLEntry@@QBE?AW4YieldTypes@@XZ ; CvCitySpecializationXMLEntry::GetYieldType
	cmp	eax, DWORD PTR _eYield$[ebp]
	jne	SHORT $LN1@GetNumSpec

; 199  : 		{
; 200  : 			iRtnValue++;

	mov	eax, DWORD PTR _iRtnValue$[ebp]
	add	eax, 1
	mov	DWORD PTR _iRtnValue$[ebp], eax
$LN1@GetNumSpec:

; 201  : 		}
; 202  : 	}

	jmp	SHORT $LN3@GetNumSpec
$LN2@GetNumSpec:

; 203  : 
; 204  : 	return iRtnValue;

	mov	eax, DWORD PTR _iRtnValue$[ebp]

; 205  : }

	mov	esp, ebp
	pop	ebp
	ret	4
?GetNumSpecializationsForYield@CvCitySpecializationXMLEntries@@QAEHW4YieldTypes@@@Z ENDP ; CvCitySpecializationXMLEntries::GetNumSpecializationsForYield
_TEXT	ENDS
PUBLIC	?erase@?$vector@PAVCvCitySpecializationXMLEntry@@V?$allocator@PAVCvCitySpecializationXMLEntry@@@std@@@std@@QAE?AV?$_Vector_iterator@PAVCvCitySpecializationXMLEntry@@V?$allocator@PAVCvCitySpecializationXMLEntry@@@std@@@2@V?$_Vector_const_iterator@PAVCvCitySpecializationXMLEntry@@V?$allocator@PAVCvCitySpecializationXMLEntry@@@std@@@2@0@Z ; std::vector<CvCitySpecializationXMLEntry *,std::allocator<CvCitySpecializationXMLEntry *> >::erase
; Function compile flags: /Odtp
;	COMDAT ?DeleteArray@CvCitySpecializationXMLEntries@@QAEXXZ
_TEXT	SEGMENT
tv145 = -116						; size = 4
_this$ = -112						; size = 4
$T229992 = -56						; size = 4
$T229976 = -52						; size = 4
$T230097 = -48						; size = 4
$T230096 = -44						; size = 4
$T230095 = -40						; size = 4
$T230094 = -36						; size = 4
$T230093 = -32						; size = 4
$T229960 = -28						; size = 4
$T229957 = -24						; size = 4
$T229956 = -20						; size = 4
$T229926 = -16						; size = 4
$T229902 = -12						; size = 4
$T229892 = -8						; size = 4
_it$225128 = -4						; size = 4
?DeleteArray@CvCitySpecializationXMLEntries@@QAEXXZ PROC ; CvCitySpecializationXMLEntries::DeleteArray, COMDAT
; _this$ = ecx

; 209  : {

	push	ebp
	mov	ebp, esp
	sub	esp, 116				; 00000074H
	mov	DWORD PTR _this$[ebp], ecx

; 210  : 	for(std::vector<CvCitySpecializationXMLEntry*>::iterator it = m_paCitySpecializationEntries.begin(); it != m_paCitySpecializationEntries.end(); ++it)

	mov	eax, DWORD PTR _this$[ebp]
	mov	ecx, DWORD PTR [eax+4]
	mov	DWORD PTR $T229902[ebp], ecx
	mov	edx, DWORD PTR $T229902[ebp]
	mov	DWORD PTR _it$225128[ebp], edx
	jmp	SHORT $LN3@DeleteArra
$LN2@DeleteArra:
	mov	eax, DWORD PTR _it$225128[ebp]
	add	eax, 4
	mov	DWORD PTR _it$225128[ebp], eax
$LN3@DeleteArra:
	mov	ecx, DWORD PTR _this$[ebp]
	mov	edx, DWORD PTR [ecx+8]
	mov	DWORD PTR $T229926[ebp], edx
	mov	eax, DWORD PTR $T229926[ebp]
	mov	DWORD PTR $T229892[ebp], eax
	mov	ecx, DWORD PTR _it$225128[ebp]
	xor	edx, edx
	cmp	ecx, DWORD PTR $T229892[ebp]
	sete	dl
	movzx	eax, dl
	neg	eax
	sbb	eax, eax
	add	eax, 1
	movzx	ecx, al
	test	ecx, ecx
	je	SHORT $LN1@DeleteArra

; 211  : 	{
; 212  : 		SAFE_DELETE(*it);

	mov	edx, DWORD PTR _it$225128[ebp]
	mov	DWORD PTR $T229960[ebp], edx
	mov	eax, DWORD PTR $T229960[ebp]
	mov	ecx, DWORD PTR [eax]
	mov	DWORD PTR $T229957[ebp], ecx
	mov	edx, DWORD PTR $T229957[ebp]
	mov	DWORD PTR $T229956[ebp], edx
	cmp	DWORD PTR $T229956[ebp], 0
	je	SHORT $LN32@DeleteArra
	push	1
	mov	eax, DWORD PTR $T229956[ebp]
	mov	edx, DWORD PTR [eax]
	mov	ecx, DWORD PTR $T229956[ebp]
	mov	eax, DWORD PTR [edx+16]
	call	eax
	mov	DWORD PTR tv145[ebp], eax
	jmp	SHORT $LN33@DeleteArra
$LN32@DeleteArra:
	mov	DWORD PTR tv145[ebp], 0
$LN33@DeleteArra:
	mov	ecx, DWORD PTR $T229960[ebp]
	mov	DWORD PTR [ecx], 0

; 213  : 	}

	jmp	SHORT $LN2@DeleteArra
$LN1@DeleteArra:

; 214  : 
; 215  : 	m_paCitySpecializationEntries.clear();

	mov	edx, DWORD PTR _this$[ebp]
	mov	eax, DWORD PTR [edx+8]
	mov	DWORD PTR $T229976[ebp], eax
	mov	ecx, DWORD PTR $T229976[ebp]
	mov	DWORD PTR $T230094[ebp], ecx
	mov	edx, DWORD PTR $T230094[ebp]
	mov	DWORD PTR $T230093[ebp], edx
	mov	eax, DWORD PTR _this$[ebp]
	mov	ecx, DWORD PTR [eax+4]
	mov	DWORD PTR $T229992[ebp], ecx
	mov	edx, DWORD PTR $T229992[ebp]
	mov	DWORD PTR $T230096[ebp], edx
	mov	eax, DWORD PTR $T230096[ebp]
	mov	DWORD PTR $T230095[ebp], eax
	mov	ecx, DWORD PTR $T230093[ebp]
	push	ecx
	mov	edx, DWORD PTR $T230095[ebp]
	push	edx
	lea	eax, DWORD PTR $T230097[ebp]
	push	eax
	mov	ecx, DWORD PTR _this$[ebp]
	call	?erase@?$vector@PAVCvCitySpecializationXMLEntry@@V?$allocator@PAVCvCitySpecializationXMLEntry@@@std@@@std@@QAE?AV?$_Vector_iterator@PAVCvCitySpecializationXMLEntry@@V?$allocator@PAVCvCitySpecializationXMLEntry@@@std@@@2@V?$_Vector_const_iterator@PAVCvCitySpecializationXMLEntry@@V?$allocator@PAVCvCitySpecializationXMLEntry@@@std@@@2@0@Z ; std::vector<CvCitySpecializationXMLEntry *,std::allocator<CvCitySpecializationXMLEntry *> >::erase

; 216  : }

	mov	esp, ebp
	pop	ebp
	ret	0
?DeleteArray@CvCitySpecializationXMLEntries@@QAEXXZ ENDP ; CvCitySpecializationXMLEntries::DeleteArray
_TEXT	ENDS
PUBLIC	??1?$CvWeightedVector@W4YieldTypes@@$04$00@@QAE@XZ ; CvWeightedVector<enum YieldTypes,5,1>::~CvWeightedVector<enum YieldTypes,5,1>
PUBLIC	??1?$list@W4CitySpecializationTypes@@V?$allocator@W4CitySpecializationTypes@@@std@@@std@@QAE@XZ ; std::list<enum CitySpecializationTypes,std::allocator<enum CitySpecializationTypes> >::~list<enum CitySpecializationTypes,std::allocator<enum CitySpecializationTypes> >
PUBLIC	??0?$FStaticVector@UWeightedElement@?$CvWeightedVector@W4ProductionSpecializationSubtypes@@$03$00@@$03$00$0A@$0A@@@QAE@XZ ; FStaticVector<CvWeightedVector<enum ProductionSpecializationSubtypes,4,1>::WeightedElement,4,1,0,0>::FStaticVector<CvWeightedVector<enum ProductionSpecializationSubtypes,4,1>::WeightedElement,4,1,0,0>
PUBLIC	??0?$FStaticVector@UWeightedElement@?$CvWeightedVector@W4YieldTypes@@$04$00@@$04$00$0A@$0A@@@QAE@XZ ; FStaticVector<CvWeightedVector<enum YieldTypes,5,1>::WeightedElement,5,1,0,0>::FStaticVector<CvWeightedVector<enum YieldTypes,5,1>::WeightedElement,5,1,0,0>
PUBLIC	??0?$list@W4CitySpecializationTypes@@V?$allocator@W4CitySpecializationTypes@@@std@@@std@@QAE@XZ ; std::list<enum CitySpecializationTypes,std::allocator<enum CitySpecializationTypes> >::list<enum CitySpecializationTypes,std::allocator<enum CitySpecializationTypes> >
PUBLIC	??0CvCitySpecializationAI@@QAE@XZ		; CvCitySpecializationAI::CvCitySpecializationAI
;	COMDAT xdata$x
; File d:\sources\lekmod_git\checkout\lekmod_dll\fireplace\include\fireworks\ffastvector.h
xdata$x	SEGMENT
__unwindtable$??0CvCitySpecializationAI@@QAE@XZ DD 0ffffffffH
	DD	FLAT:__unwindfunclet$??0CvCitySpecializationAI@@QAE@XZ$0
	DD	00H
	DD	FLAT:__unwindfunclet$??0CvCitySpecializationAI@@QAE@XZ$1
__ehfuncinfo$??0CvCitySpecializationAI@@QAE@XZ DD 019930522H
	DD	02H
	DD	FLAT:__unwindtable$??0CvCitySpecializationAI@@QAE@XZ
	DD	2 DUP(00H)
	DD	2 DUP(00H)
	DD	00H
	DD	01H
; Function compile flags: /Odtp
; File d:\sources\lekmod_git\checkout\lekmod_dll\cvgamecoredll_expansion2\cvcityspecializationai.cpp
xdata$x	ENDS
;	COMDAT ??0CvCitySpecializationAI@@QAE@XZ
_TEXT	SEGMENT
_this$ = -68						; size = 4
$T230198 = -64						; size = 4
$T230181 = -52						; size = 4
__$EHRec$ = -12						; size = 12
??0CvCitySpecializationAI@@QAE@XZ PROC			; CvCitySpecializationAI::CvCitySpecializationAI, COMDAT
; _this$ = ecx

; 239  : {

	push	ebp
	mov	ebp, esp
	push	-1
	push	__ehhandler$??0CvCitySpecializationAI@@QAE@XZ
	mov	eax, DWORD PTR fs:0
	push	eax
	sub	esp, 56					; 00000038H
	mov	eax, DWORD PTR ___security_cookie
	xor	eax, ebp
	push	eax
	lea	eax, DWORD PTR __$EHRec$[ebp]
	mov	DWORD PTR fs:0, eax
	mov	DWORD PTR _this$[ebp], ecx
	mov	eax, DWORD PTR _this$[ebp]
	mov	BYTE PTR [eax+8], 0
	mov	ecx, DWORD PTR _this$[ebp]
	mov	DWORD PTR [ecx+12], -1
	mov	ecx, DWORD PTR _this$[ebp]
	add	ecx, 16					; 00000010H
	call	??0?$list@W4CitySpecializationTypes@@V?$allocator@W4CitySpecializationTypes@@@std@@@std@@QAE@XZ ; std::list<enum CitySpecializationTypes,std::allocator<enum CitySpecializationTypes> >::list<enum CitySpecializationTypes,std::allocator<enum CitySpecializationTypes> >
	mov	DWORD PTR __$EHRec$[ebp+8], 0
	mov	edx, DWORD PTR _this$[ebp]
	add	edx, 44					; 0000002cH
	mov	DWORD PTR $T230181[ebp], edx
	mov	ecx, DWORD PTR $T230181[ebp]
	call	??0?$FStaticVector@UWeightedElement@?$CvWeightedVector@W4YieldTypes@@$04$00@@$04$00$0A@$0A@@@QAE@XZ ; FStaticVector<CvWeightedVector<enum YieldTypes,5,1>::WeightedElement,5,1,0,0>::FStaticVector<CvWeightedVector<enum YieldTypes,5,1>::WeightedElement,5,1,0,0>
	mov	BYTE PTR __$EHRec$[ebp+8], 1
	mov	eax, DWORD PTR _this$[ebp]
	add	eax, 120				; 00000078H
	mov	DWORD PTR $T230198[ebp], eax
	mov	ecx, DWORD PTR $T230198[ebp]
	call	??0?$FStaticVector@UWeightedElement@?$CvWeightedVector@W4ProductionSpecializationSubtypes@@$03$00@@$03$00$0A@$0A@@@QAE@XZ ; FStaticVector<CvWeightedVector<enum ProductionSpecializationSubtypes,4,1>::WeightedElement,4,1,0,0>::FStaticVector<CvWeightedVector<enum ProductionSpecializationSubtypes,4,1>::WeightedElement,4,1,0,0>
	mov	ecx, DWORD PTR _this$[ebp]
	mov	DWORD PTR [ecx+188], 0
	mov	edx, DWORD PTR _this$[ebp]
	mov	BYTE PTR [edx+192], 0
	mov	eax, DWORD PTR _this$[ebp]
	mov	DWORD PTR [eax+196], -1
	mov	ecx, DWORD PTR _this$[ebp]
	mov	DWORD PTR [ecx+200], -1
	mov	edx, DWORD PTR _this$[ebp]
	mov	DWORD PTR [edx+204], 0

; 240  : }

	mov	DWORD PTR __$EHRec$[ebp+8], -1
	mov	eax, DWORD PTR _this$[ebp]
	mov	ecx, DWORD PTR __$EHRec$[ebp]
	mov	DWORD PTR fs:0, ecx
	pop	ecx
	mov	esp, ebp
	pop	ebp
	ret	0
_TEXT	ENDS
;	COMDAT text$x
text$x	SEGMENT
__unwindfunclet$??0CvCitySpecializationAI@@QAE@XZ$0:
	mov	ecx, DWORD PTR _this$[ebp]
	add	ecx, 16					; 00000010H
	jmp	??1?$list@W4CitySpecializationTypes@@V?$allocator@W4CitySpecializationTypes@@@std@@@std@@QAE@XZ ; std::list<enum CitySpecializationTypes,std::allocator<enum CitySpecializationTypes> >::~list<enum CitySpecializationTypes,std::allocator<enum CitySpecializationTypes> >
__unwindfunclet$??0CvCitySpecializationAI@@QAE@XZ$1:
	mov	ecx, DWORD PTR _this$[ebp]
	add	ecx, 44					; 0000002cH
	jmp	??1?$CvWeightedVector@W4YieldTypes@@$04$00@@QAE@XZ ; CvWeightedVector<enum YieldTypes,5,1>::~CvWeightedVector<enum YieldTypes,5,1>
__ehhandler$??0CvCitySpecializationAI@@QAE@XZ:
	mov	edx, DWORD PTR [esp+8]
	lea	eax, DWORD PTR [edx+12]
	mov	ecx, DWORD PTR [edx-60]
	xor	ecx, eax
	call	@__security_check_cookie@4
	mov	eax, OFFSET __ehfuncinfo$??0CvCitySpecializationAI@@QAE@XZ
	jmp	___CxxFrameHandler3
text$x	ENDS
??0CvCitySpecializationAI@@QAE@XZ ENDP			; CvCitySpecializationAI::CvCitySpecializationAI
PUBLIC	??1?$_List_val@W4CitySpecializationTypes@@V?$allocator@W4CitySpecializationTypes@@@std@@@std@@QAE@XZ ; std::_List_val<enum CitySpecializationTypes,std::allocator<enum CitySpecializationTypes> >::~_List_val<enum CitySpecializationTypes,std::allocator<enum CitySpecializationTypes> >
PUBLIC	??1?$CvWeightedVector@W4ProductionSpecializationSubtypes@@$03$00@@QAE@XZ ; CvWeightedVector<enum ProductionSpecializationSubtypes,4,1>::~CvWeightedVector<enum ProductionSpecializationSubtypes,4,1>
PUBLIC	?clear@?$list@W4CitySpecializationTypes@@V?$allocator@W4CitySpecializationTypes@@@std@@@std@@QAEXXZ ; std::list<enum CitySpecializationTypes,std::allocator<enum CitySpecializationTypes> >::clear
PUBLIC	??1?$FStaticVector@UWeightedElement@?$CvWeightedVector@W4YieldTypes@@$04$00@@$04$00$0A@$0A@@@QAE@XZ ; FStaticVector<CvWeightedVector<enum YieldTypes,5,1>::WeightedElement,5,1,0,0>::~FStaticVector<CvWeightedVector<enum YieldTypes,5,1>::WeightedElement,5,1,0,0>
PUBLIC	??1?$FStaticVector@UWeightedElement@?$CvWeightedVector@W4ProductionSpecializationSubtypes@@$03$00@@$03$00$0A@$0A@@@QAE@XZ ; FStaticVector<CvWeightedVector<enum ProductionSpecializationSubtypes,4,1>::WeightedElement,4,1,0,0>::~FStaticVector<CvWeightedVector<enum ProductionSpecializationSubtypes,4,1>::WeightedElement,4,1,0,0>
PUBLIC	?Uninit@CvCitySpecializationAI@@QAEXXZ		; CvCitySpecializationAI::Uninit
PUBLIC	??1CvCitySpecializationAI@@QAE@XZ		; CvCitySpecializationAI::~CvCitySpecializationAI
;	COMDAT xdata$x
; File c:\program files (x86)\microsoft visual studio 9.0\vc\include\xutility
xdata$x	SEGMENT
__unwindtable$??1CvCitySpecializationAI@@QAE@XZ DD 0ffffffffH
	DD	FLAT:__unwindfunclet$??1CvCitySpecializationAI@@QAE@XZ$0
	DD	00H
	DD	FLAT:__unwindfunclet$??1CvCitySpecializationAI@@QAE@XZ$1
	DD	01H
	DD	FLAT:__unwindfunclet$??1CvCitySpecializationAI@@QAE@XZ$2
	DD	0ffffffffH
	DD	FLAT:__unwindfunclet$??1CvCitySpecializationAI@@QAE@XZ$7
__ehfuncinfo$??1CvCitySpecializationAI@@QAE@XZ DD 019930522H
	DD	04H
	DD	FLAT:__unwindtable$??1CvCitySpecializationAI@@QAE@XZ
	DD	2 DUP(00H)
	DD	2 DUP(00H)
	DD	00H
	DD	01H
; Function compile flags: /Odtp
; File d:\sources\lekmod_git\checkout\lekmod_dll\cvgamecoredll_expansion2\cvcityspecializationai.cpp
xdata$x	ENDS
;	COMDAT ??1CvCitySpecializationAI@@QAE@XZ
_TEXT	SEGMENT
_this$ = -76						; size = 4
$T230399 = -72						; size = 4
$T230329 = -68						; size = 4
$T230306 = -64						; size = 4
$T230273 = -44						; size = 4
$T230241 = -28						; size = 4
__$EHRec$ = -12						; size = 12
??1CvCitySpecializationAI@@QAE@XZ PROC			; CvCitySpecializationAI::~CvCitySpecializationAI, COMDAT
; _this$ = ecx

; 244  : {

	push	ebp
	mov	ebp, esp
	push	-1
	push	__ehhandler$??1CvCitySpecializationAI@@QAE@XZ
	mov	eax, DWORD PTR fs:0
	push	eax
	sub	esp, 64					; 00000040H
	mov	eax, DWORD PTR ___security_cookie
	xor	eax, ebp
	push	eax
	lea	eax, DWORD PTR __$EHRec$[ebp]
	mov	DWORD PTR fs:0, eax
	mov	DWORD PTR _this$[ebp], ecx
	mov	DWORD PTR __$EHRec$[ebp+8], 2

; 245  : 	Uninit();

	mov	ecx, DWORD PTR _this$[ebp]
	call	?Uninit@CvCitySpecializationAI@@QAEXXZ	; CvCitySpecializationAI::Uninit

; 246  : }

	mov	BYTE PTR __$EHRec$[ebp+8], 1
	mov	eax, DWORD PTR _this$[ebp]
	add	eax, 120				; 00000078H
	mov	DWORD PTR $T230241[ebp], eax
	mov	ecx, DWORD PTR $T230241[ebp]
	call	??1?$FStaticVector@UWeightedElement@?$CvWeightedVector@W4ProductionSpecializationSubtypes@@$03$00@@$03$00$0A@$0A@@@QAE@XZ ; FStaticVector<CvWeightedVector<enum ProductionSpecializationSubtypes,4,1>::WeightedElement,4,1,0,0>::~FStaticVector<CvWeightedVector<enum ProductionSpecializationSubtypes,4,1>::WeightedElement,4,1,0,0>
	mov	BYTE PTR __$EHRec$[ebp+8], 0
	mov	ecx, DWORD PTR _this$[ebp]
	add	ecx, 44					; 0000002cH
	mov	DWORD PTR $T230273[ebp], ecx
	mov	ecx, DWORD PTR $T230273[ebp]
	call	??1?$FStaticVector@UWeightedElement@?$CvWeightedVector@W4YieldTypes@@$04$00@@$04$00$0A@$0A@@@QAE@XZ ; FStaticVector<CvWeightedVector<enum YieldTypes,5,1>::WeightedElement,5,1,0,0>::~FStaticVector<CvWeightedVector<enum YieldTypes,5,1>::WeightedElement,5,1,0,0>
	mov	DWORD PTR __$EHRec$[ebp+8], -1
	mov	edx, DWORD PTR _this$[ebp]
	add	edx, 16					; 00000010H
	mov	DWORD PTR $T230399[ebp], edx
	mov	DWORD PTR __$EHRec$[ebp+8], 3
	mov	ecx, DWORD PTR $T230399[ebp]
	call	?clear@?$list@W4CitySpecializationTypes@@V?$allocator@W4CitySpecializationTypes@@@std@@@std@@QAEXXZ ; std::list<enum CitySpecializationTypes,std::allocator<enum CitySpecializationTypes> >::clear
	mov	eax, DWORD PTR $T230399[ebp]
	mov	ecx, DWORD PTR [eax+4]
	mov	DWORD PTR $T230306[ebp], ecx
	mov	edx, DWORD PTR $T230399[ebp]
	mov	eax, DWORD PTR [edx+4]
	mov	DWORD PTR $T230329[ebp], eax
	mov	ecx, DWORD PTR $T230329[ebp]
	push	ecx
	call	??3@YAXPAX@Z				; operator delete
	add	esp, 4
	mov	edx, DWORD PTR $T230399[ebp]
	mov	DWORD PTR [edx+4], 0
	mov	DWORD PTR __$EHRec$[ebp+8], -1
	mov	ecx, DWORD PTR __$EHRec$[ebp]
	mov	DWORD PTR fs:0, ecx
	pop	ecx
	mov	esp, ebp
	pop	ebp
	ret	0
_TEXT	ENDS
;	COMDAT text$x
text$x	SEGMENT
__unwindfunclet$??1CvCitySpecializationAI@@QAE@XZ$0:
	mov	ecx, DWORD PTR _this$[ebp]
	add	ecx, 16					; 00000010H
	jmp	??1?$list@W4CitySpecializationTypes@@V?$allocator@W4CitySpecializationTypes@@@std@@@std@@QAE@XZ ; std::list<enum CitySpecializationTypes,std::allocator<enum CitySpecializationTypes> >::~list<enum CitySpecializationTypes,std::allocator<enum CitySpecializationTypes> >
__unwindfunclet$??1CvCitySpecializationAI@@QAE@XZ$1:
	mov	ecx, DWORD PTR _this$[ebp]
	add	ecx, 44					; 0000002cH
	jmp	??1?$CvWeightedVector@W4YieldTypes@@$04$00@@QAE@XZ ; CvWeightedVector<enum YieldTypes,5,1>::~CvWeightedVector<enum YieldTypes,5,1>
__unwindfunclet$??1CvCitySpecializationAI@@QAE@XZ$2:
	mov	ecx, DWORD PTR _this$[ebp]
	add	ecx, 120				; 00000078H
	jmp	??1?$CvWeightedVector@W4ProductionSpecializationSubtypes@@$03$00@@QAE@XZ ; CvWeightedVector<enum ProductionSpecializationSubtypes,4,1>::~CvWeightedVector<enum ProductionSpecializationSubtypes,4,1>
__unwindfunclet$??1CvCitySpecializationAI@@QAE@XZ$7:
	mov	ecx, DWORD PTR $T230399[ebp]
	jmp	??1?$_List_val@W4CitySpecializationTypes@@V?$allocator@W4CitySpecializationTypes@@@std@@@std@@QAE@XZ
__ehhandler$??1CvCitySpecializationAI@@QAE@XZ:
	mov	edx, DWORD PTR [esp+8]
	lea	eax, DWORD PTR [edx+12]
	mov	ecx, DWORD PTR [edx-68]
	xor	ecx, eax
	call	@__security_check_cookie@4
	mov	eax, OFFSET __ehfuncinfo$??1CvCitySpecializationAI@@QAE@XZ
	jmp	___CxxFrameHandler3
text$x	ENDS
??1CvCitySpecializationAI@@QAE@XZ ENDP			; CvCitySpecializationAI::~CvCitySpecializationAI
PUBLIC	?Reset@CvCitySpecializationAI@@QAEXXZ		; CvCitySpecializationAI::Reset
PUBLIC	?Init@CvCitySpecializationAI@@QAEXPAVCvCitySpecializationXMLEntries@@PAVCvPlayer@@@Z ; CvCitySpecializationAI::Init
; Function compile flags: /Odtp
;	COMDAT ?Init@CvCitySpecializationAI@@QAEXPAVCvCitySpecializationXMLEntries@@PAVCvPlayer@@@Z
_TEXT	SEGMENT
_this$ = -4						; size = 4
_pSpecializations$ = 8					; size = 4
_pPlayer$ = 12						; size = 4
?Init@CvCitySpecializationAI@@QAEXPAVCvCitySpecializationXMLEntries@@PAVCvPlayer@@@Z PROC ; CvCitySpecializationAI::Init, COMDAT
; _this$ = ecx

; 250  : {

	push	ebp
	mov	ebp, esp
	push	ecx
	mov	DWORD PTR _this$[ebp], ecx

; 251  : 	m_pSpecializations = pSpecializations;

	mov	eax, DWORD PTR _this$[ebp]
	mov	ecx, DWORD PTR _pSpecializations$[ebp]
	mov	DWORD PTR [eax+4], ecx

; 252  : 	m_pPlayer = pPlayer;

	mov	edx, DWORD PTR _this$[ebp]
	mov	eax, DWORD PTR _pPlayer$[ebp]
	mov	DWORD PTR [edx], eax

; 253  : 
; 254  : 	Reset();

	mov	ecx, DWORD PTR _this$[ebp]
	call	?Reset@CvCitySpecializationAI@@QAEXXZ	; CvCitySpecializationAI::Reset

; 255  : }

	mov	esp, ebp
	pop	ebp
	ret	8
?Init@CvCitySpecializationAI@@QAEXPAVCvCitySpecializationXMLEntries@@PAVCvPlayer@@@Z ENDP ; CvCitySpecializationAI::Init
; Function compile flags: /Odtp
_TEXT	ENDS
;	COMDAT ?Uninit@CvCitySpecializationAI@@QAEXXZ
_TEXT	SEGMENT
_this$ = -4						; size = 4
?Uninit@CvCitySpecializationAI@@QAEXXZ PROC		; CvCitySpecializationAI::Uninit, COMDAT
; _this$ = ecx

; 259  : {

	push	ebp
	mov	ebp, esp
	push	ecx
	mov	DWORD PTR _this$[ebp], ecx

; 260  : }

	mov	esp, ebp
	pop	ebp
	ret	0
?Uninit@CvCitySpecializationAI@@QAEXXZ ENDP		; CvCitySpecializationAI::Uninit
; Function compile flags: /Odtp
_TEXT	ENDS
;	COMDAT ?Reset@CvCitySpecializationAI@@QAEXXZ
_TEXT	SEGMENT
_this$ = -20						; size = 4
$T230473 = -16						; size = 4
_i$230466 = -12						; size = 4
$T230442 = -8						; size = 4
_i$230436 = -4						; size = 4
?Reset@CvCitySpecializationAI@@QAEXXZ PROC		; CvCitySpecializationAI::Reset, COMDAT
; _this$ = ecx

; 264  : {

	push	ebp
	mov	ebp, esp
	sub	esp, 20					; 00000014H
	mov	DWORD PTR _this$[ebp], ecx

; 265  : 	m_bSpecializationsDirty = false;

	mov	eax, DWORD PTR _this$[ebp]
	mov	BYTE PTR [eax+8], 0

; 266  : 	m_bInterruptWonders = false;

	mov	ecx, DWORD PTR _this$[ebp]
	mov	BYTE PTR [ecx+192], 0

; 267  : 	m_eNextSpecializationDesired = NO_CITY_SPECIALIZATION;

	mov	edx, DWORD PTR _this$[ebp]
	mov	DWORD PTR [edx+12], -1

; 268  : 	m_eNextWonderDesired = NO_BUILDING;

	mov	eax, DWORD PTR _this$[ebp]
	mov	DWORD PTR [eax+196], -1

; 269  : 	m_iWonderCityID = -1;

	mov	ecx, DWORD PTR _this$[ebp]
	mov	DWORD PTR [ecx+200], -1

; 270  : 	m_iNextWonderWeight = 0;

	mov	edx, DWORD PTR _this$[ebp]
	mov	DWORD PTR [edx+204], 0

; 271  : 	m_YieldWeights.clear();

	mov	eax, DWORD PTR _this$[ebp]
	add	eax, 44					; 0000002cH
	mov	DWORD PTR $T230442[ebp], eax
	xor	ecx, ecx
	je	SHORT $LN11@Reset
	mov	DWORD PTR _i$230436[ebp], 0
	jmp	SHORT $LN9@Reset
$LN8@Reset:
	mov	edx, DWORD PTR _i$230436[ebp]
	add	edx, 1
	mov	DWORD PTR _i$230436[ebp], edx
$LN9@Reset:
	mov	eax, DWORD PTR $T230442[ebp]
	mov	ecx, DWORD PTR _i$230436[ebp]
	cmp	ecx, DWORD PTR [eax+4]
	jae	SHORT $LN11@Reset
	jmp	SHORT $LN8@Reset
$LN11@Reset:
	mov	edx, DWORD PTR $T230442[ebp]
	mov	DWORD PTR [edx+4], 0

; 272  : 	m_ProductionSubtypeWeights.clear();

	mov	eax, DWORD PTR _this$[ebp]
	add	eax, 120				; 00000078H
	mov	DWORD PTR $T230473[ebp], eax
	xor	ecx, ecx
	je	SHORT $LN21@Reset
	mov	DWORD PTR _i$230466[ebp], 0
	jmp	SHORT $LN19@Reset
$LN18@Reset:
	mov	edx, DWORD PTR _i$230466[ebp]
	add	edx, 1
	mov	DWORD PTR _i$230466[ebp], edx
$LN19@Reset:
	mov	eax, DWORD PTR $T230473[ebp]
	mov	ecx, DWORD PTR _i$230466[ebp]
	cmp	ecx, DWORD PTR [eax+4]
	jae	SHORT $LN21@Reset
	jmp	SHORT $LN18@Reset
$LN21@Reset:
	mov	edx, DWORD PTR $T230473[ebp]
	mov	DWORD PTR [edx+4], 0

; 273  : 	m_iLastTurnEvaluated = 0;

	mov	eax, DWORD PTR _this$[ebp]
	mov	DWORD PTR [eax+188], 0

; 274  : }

	mov	esp, ebp
	pop	ebp
	ret	0
?Reset@CvCitySpecializationAI@@QAEXXZ ENDP		; CvCitySpecializationAI::Reset
_TEXT	ENDS
PUBLIC	?Read@CvCitySpecializationAI@@QAEXAAVFDataStream@@@Z ; CvCitySpecializationAI::Read
EXTRN	?Read@FDataStream@@IAEXAAH@Z:PROC		; FDataStream::Read
EXTRN	??5@YAAAVFDataStream@@AAV0@AAW4CitySpecializationTypes@@@Z:PROC ; operator>>
EXTRN	?Read@FDataStream@@IAEXAA_N@Z:PROC		; FDataStream::Read
EXTRN	?Read@FDataStream@@IAEXAAI@Z:PROC		; FDataStream::Read
; Function compile flags: /Odtp
;	COMDAT ?Read@CvCitySpecializationAI@@QAEXAAVFDataStream@@@Z
_TEXT	SEGMENT
_this$ = -8						; size = 4
_uiVersion$ = -4					; size = 4
_kStream$ = 8						; size = 4
?Read@CvCitySpecializationAI@@QAEXAAVFDataStream@@@Z PROC ; CvCitySpecializationAI::Read, COMDAT
; _this$ = ecx

; 278  : {

	push	ebp
	mov	ebp, esp
	sub	esp, 8
	mov	DWORD PTR _this$[ebp], ecx

; 279  : 	// Version number to maintain backwards compatibility
; 280  : 	uint uiVersion;
; 281  : 	kStream >> uiVersion;

	lea	eax, DWORD PTR _uiVersion$[ebp]
	push	eax
	mov	ecx, DWORD PTR _kStream$[ebp]
	call	?Read@FDataStream@@IAEXAAI@Z		; FDataStream::Read

; 282  : 
; 283  : 	kStream >> m_bSpecializationsDirty;

	mov	ecx, DWORD PTR _this$[ebp]
	add	ecx, 8
	push	ecx
	mov	ecx, DWORD PTR _kStream$[ebp]
	call	?Read@FDataStream@@IAEXAA_N@Z		; FDataStream::Read

; 284  : 	kStream >> m_bInterruptWonders;

	mov	edx, DWORD PTR _this$[ebp]
	add	edx, 192				; 000000c0H
	push	edx
	mov	ecx, DWORD PTR _kStream$[ebp]
	call	?Read@FDataStream@@IAEXAA_N@Z		; FDataStream::Read

; 285  : 	kStream >> m_eNextSpecializationDesired;

	mov	eax, DWORD PTR _this$[ebp]
	add	eax, 12					; 0000000cH
	push	eax
	mov	ecx, DWORD PTR _kStream$[ebp]
	push	ecx
	call	??5@YAAAVFDataStream@@AAV0@AAW4CitySpecializationTypes@@@Z ; operator>>
	add	esp, 8

; 286  : 	kStream >> (int&)m_eNextWonderDesired;

	mov	edx, DWORD PTR _this$[ebp]
	add	edx, 196				; 000000c4H
	push	edx
	mov	ecx, DWORD PTR _kStream$[ebp]
	call	?Read@FDataStream@@IAEXAAH@Z		; FDataStream::Read

; 287  : 	kStream >> m_iWonderCityID;

	mov	eax, DWORD PTR _this$[ebp]
	add	eax, 200				; 000000c8H
	push	eax
	mov	ecx, DWORD PTR _kStream$[ebp]
	call	?Read@FDataStream@@IAEXAAH@Z		; FDataStream::Read

; 288  : 	kStream >> m_iNextWonderWeight;

	mov	ecx, DWORD PTR _this$[ebp]
	add	ecx, 204				; 000000ccH
	push	ecx
	mov	ecx, DWORD PTR _kStream$[ebp]
	call	?Read@FDataStream@@IAEXAAH@Z		; FDataStream::Read

; 289  : 
; 290  : 	if (uiVersion >= 2)

	cmp	DWORD PTR _uiVersion$[ebp], 2
	jb	SHORT $LN2@Read

; 291  : 	{
; 292  : 		kStream >> m_iLastTurnEvaluated;

	mov	edx, DWORD PTR _this$[ebp]
	add	edx, 188				; 000000bcH
	push	edx
	mov	ecx, DWORD PTR _kStream$[ebp]
	call	?Read@FDataStream@@IAEXAAH@Z		; FDataStream::Read

; 293  : 	}
; 294  : 	else

	jmp	SHORT $LN3@Read
$LN2@Read:

; 295  : 	{
; 296  : 		m_iLastTurnEvaluated = 0;

	mov	eax, DWORD PTR _this$[ebp]
	mov	DWORD PTR [eax+188], 0

; 297  : 		m_bSpecializationsDirty = true;

	mov	ecx, DWORD PTR _this$[ebp]
	mov	BYTE PTR [ecx+8], 1
$LN3@Read:

; 298  : 	}
; 299  : }

	mov	esp, ebp
	pop	ebp
	ret	4
?Read@CvCitySpecializationAI@@QAEXAAVFDataStream@@@Z ENDP ; CvCitySpecializationAI::Read
_TEXT	ENDS
PUBLIC	?Write@CvCitySpecializationAI@@QBEXAAVFDataStream@@@Z ; CvCitySpecializationAI::Write
EXTRN	?Write@FDataStream@@IAEXABH@Z:PROC		; FDataStream::Write
EXTRN	??6@YAAAVFDataStream@@AAV0@ABW4BuildingTypes@@@Z:PROC ; operator<<
EXTRN	??6@YAAAVFDataStream@@AAV0@ABW4CitySpecializationTypes@@@Z:PROC ; operator<<
EXTRN	?Write@FDataStream@@IAEXAB_N@Z:PROC		; FDataStream::Write
EXTRN	?Write@FDataStream@@IAEXABI@Z:PROC		; FDataStream::Write
; Function compile flags: /Odtp
;	COMDAT ?Write@CvCitySpecializationAI@@QBEXAAVFDataStream@@@Z
_TEXT	SEGMENT
_this$ = -8						; size = 4
_uiVersion$ = -4					; size = 4
_kStream$ = 8						; size = 4
?Write@CvCitySpecializationAI@@QBEXAAVFDataStream@@@Z PROC ; CvCitySpecializationAI::Write, COMDAT
; _this$ = ecx

; 303  : {

	push	ebp
	mov	ebp, esp
	sub	esp, 8
	mov	DWORD PTR _this$[ebp], ecx

; 304  : 	// Current version number
; 305  : 	uint uiVersion = 2;

	mov	DWORD PTR _uiVersion$[ebp], 2

; 306  : 	kStream << uiVersion;

	lea	eax, DWORD PTR _uiVersion$[ebp]
	push	eax
	mov	ecx, DWORD PTR _kStream$[ebp]
	call	?Write@FDataStream@@IAEXABI@Z		; FDataStream::Write

; 307  : 
; 308  : 	kStream << m_bSpecializationsDirty;

	mov	ecx, DWORD PTR _this$[ebp]
	add	ecx, 8
	push	ecx
	mov	ecx, DWORD PTR _kStream$[ebp]
	call	?Write@FDataStream@@IAEXAB_N@Z		; FDataStream::Write

; 309  : 	kStream << m_bInterruptWonders;

	mov	edx, DWORD PTR _this$[ebp]
	add	edx, 192				; 000000c0H
	push	edx
	mov	ecx, DWORD PTR _kStream$[ebp]
	call	?Write@FDataStream@@IAEXAB_N@Z		; FDataStream::Write

; 310  : 	kStream << m_eNextSpecializationDesired;

	mov	eax, DWORD PTR _this$[ebp]
	add	eax, 12					; 0000000cH
	push	eax
	mov	ecx, DWORD PTR _kStream$[ebp]
	push	ecx
	call	??6@YAAAVFDataStream@@AAV0@ABW4CitySpecializationTypes@@@Z ; operator<<
	add	esp, 8

; 311  : 	kStream << m_eNextWonderDesired;

	mov	edx, DWORD PTR _this$[ebp]
	add	edx, 196				; 000000c4H
	push	edx
	mov	eax, DWORD PTR _kStream$[ebp]
	push	eax
	call	??6@YAAAVFDataStream@@AAV0@ABW4BuildingTypes@@@Z ; operator<<
	add	esp, 8

; 312  : 	kStream << m_iWonderCityID;

	mov	ecx, DWORD PTR _this$[ebp]
	add	ecx, 200				; 000000c8H
	push	ecx
	mov	ecx, DWORD PTR _kStream$[ebp]
	call	?Write@FDataStream@@IAEXABH@Z		; FDataStream::Write

; 313  : 	kStream << m_iNextWonderWeight;

	mov	edx, DWORD PTR _this$[ebp]
	add	edx, 204				; 000000ccH
	push	edx
	mov	ecx, DWORD PTR _kStream$[ebp]
	call	?Write@FDataStream@@IAEXABH@Z		; FDataStream::Write

; 314  : 	kStream << m_iLastTurnEvaluated;

	mov	eax, DWORD PTR _this$[ebp]
	add	eax, 188				; 000000bcH
	push	eax
	mov	ecx, DWORD PTR _kStream$[ebp]
	call	?Write@FDataStream@@IAEXABH@Z		; FDataStream::Write

; 315  : }

	mov	esp, ebp
	pop	ebp
	ret	4
?Write@CvCitySpecializationAI@@QBEXAAVFDataStream@@@Z ENDP ; CvCitySpecializationAI::Write
_TEXT	ENDS
PUBLIC	?GetPlayer@CvCitySpecializationAI@@QAEPAVCvPlayer@@XZ ; CvCitySpecializationAI::GetPlayer
; Function compile flags: /Odtp
;	COMDAT ?GetPlayer@CvCitySpecializationAI@@QAEPAVCvPlayer@@XZ
_TEXT	SEGMENT
_this$ = -4						; size = 4
?GetPlayer@CvCitySpecializationAI@@QAEPAVCvPlayer@@XZ PROC ; CvCitySpecializationAI::GetPlayer, COMDAT
; _this$ = ecx

; 319  : {

	push	ebp
	mov	ebp, esp
	push	ecx
	mov	DWORD PTR _this$[ebp], ecx

; 320  : 	return m_pPlayer;

	mov	eax, DWORD PTR _this$[ebp]
	mov	eax, DWORD PTR [eax]

; 321  : }

	mov	esp, ebp
	pop	ebp
	ret	0
?GetPlayer@CvCitySpecializationAI@@QAEPAVCvPlayer@@XZ ENDP ; CvCitySpecializationAI::GetPlayer
_TEXT	ENDS
PUBLIC	?GetCitySpecializations@CvCitySpecializationAI@@QAEPAVCvCitySpecializationXMLEntries@@XZ ; CvCitySpecializationAI::GetCitySpecializations
; Function compile flags: /Odtp
;	COMDAT ?GetCitySpecializations@CvCitySpecializationAI@@QAEPAVCvCitySpecializationXMLEntries@@XZ
_TEXT	SEGMENT
_this$ = -4						; size = 4
?GetCitySpecializations@CvCitySpecializationAI@@QAEPAVCvCitySpecializationXMLEntries@@XZ PROC ; CvCitySpecializationAI::GetCitySpecializations, COMDAT
; _this$ = ecx

; 325  : {

	push	ebp
	mov	ebp, esp
	push	ecx
	mov	DWORD PTR _this$[ebp], ecx

; 326  : 	return m_pSpecializations;

	mov	eax, DWORD PTR _this$[ebp]
	mov	eax, DWORD PTR [eax+4]

; 327  : }

	mov	esp, ebp
	pop	ebp
	ret	0
?GetCitySpecializations@CvCitySpecializationAI@@QAEPAVCvCitySpecializationXMLEntries@@XZ ENDP ; CvCitySpecializationAI::GetCitySpecializations
_TEXT	ENDS
PUBLIC	?AssignSpecializations@CvCitySpecializationAI@@AAEXXZ ; CvCitySpecializationAI::AssignSpecializations
PUBLIC	?WeightSpecializations@CvCitySpecializationAI@@AAEXXZ ; CvCitySpecializationAI::WeightSpecializations
PUBLIC	?DoTurn@CvCitySpecializationAI@@QAEXXZ		; CvCitySpecializationAI::DoTurn
EXTRN	?nextCity@CvPlayer@@QAEPAVCvCity@@PAH_N@Z:PROC	; CvPlayer::nextCity
EXTRN	?firstCity@CvPlayer@@QAEPAVCvCity@@PAH_N@Z:PROC	; CvPlayer::firstCity
EXTRN	?ChooseWonder@CvWonderProductionAI@@QAE?AW4BuildingTypes@@_N0AAH@Z:PROC ; CvWonderProductionAI::ChooseWonder
EXTRN	?GetWonderProductionAI@CvPlayer@@QBEPAVCvWonderProductionAI@@XZ:PROC ; CvPlayer::GetWonderProductionAI
EXTRN	?getNumCities@CvPlayer@@QBEHXZ:PROC		; CvPlayer::getNumCities
EXTRN	?getGameTurn@CvGame@@QAEHXZ:PROC		; CvGame::getGameTurn
EXTRN	?isMinorCiv@CvPlayer@@QBE_NXZ:PROC		; CvPlayer::isMinorCiv
EXTRN	?isHuman@CvPlayer@@QBE_NXZ:PROC			; CvPlayer::isHuman
; Function compile flags: /Odtp
;	COMDAT ?DoTurn@CvCitySpecializationAI@@QAEXXZ
_TEXT	SEGMENT
_this$ = -32						; size = 4
$T230542 = -28						; size = 4
$T230538 = -24						; size = 4
$T230534 = -20						; size = 4
$T230530 = -16						; size = 4
$T230526 = -12						; size = 4
_pLoopCity$225206 = -8					; size = 4
_iCityLoop$ = -4					; size = 4
?DoTurn@CvCitySpecializationAI@@QAEXXZ PROC		; CvCitySpecializationAI::DoTurn, COMDAT
; _this$ = ecx

; 331  : {

	push	ebp
	mov	ebp, esp
	sub	esp, 32					; 00000020H
	push	esi
	mov	DWORD PTR _this$[ebp], ecx

; 332  : 	AI_PERF_FORMAT("AI-perf.csv", ("CvCitySpecializationAI::DoTurn, Turn %03d, %s", GC.getGame().getElapsedGameTurns(), GetPlayer()->getCivilizationShortDescription()) );
; 333  : 
; 334  : 	int iCityLoop = 0;

	mov	DWORD PTR _iCityLoop$[ebp], 0

; 335  : 
; 336  : 	// No city specializations for humans!
; 337  : 	if(m_pPlayer->isHuman())

	mov	eax, DWORD PTR _this$[ebp]
	mov	ecx, DWORD PTR [eax]
	call	?isHuman@CvPlayer@@QBE_NXZ		; CvPlayer::isHuman
	movzx	ecx, al
	test	ecx, ecx
	je	SHORT $LN11@DoTurn

; 338  : 	{
; 339  : 		return;

	jmp	$LN12@DoTurn
$LN11@DoTurn:

; 340  : 	}
; 341  : 
; 342  : 	// No city specializations for minor civs
; 343  : 	if(m_pPlayer->isMinorCiv())

	mov	edx, DWORD PTR _this$[ebp]
	mov	ecx, DWORD PTR [edx]
	call	?isMinorCiv@CvPlayer@@QBE_NXZ		; CvPlayer::isMinorCiv
	movzx	eax, al
	test	eax, eax
	je	SHORT $LN10@DoTurn

; 344  : 	{
; 345  : 		return;

	jmp	$LN12@DoTurn
$LN10@DoTurn:

; 346  : 	}
; 347  : 
; 348  : 	// No city specializations early in the game
; 349  : 	if(GC.getGame().getGameTurn() < GC.getAI_CITY_SPECIALIZATION_EARLIEST_TURN())

	mov	ecx, DWORD PTR ?gGlobals@@3VCvGlobals@@A+48
	mov	DWORD PTR $T230526[ebp], ecx
	mov	edx, DWORD PTR ?gGlobals@@3VCvGlobals@@A+2208
	mov	DWORD PTR $T230530[ebp], edx
	mov	ecx, DWORD PTR $T230526[ebp]
	call	?getGameTurn@CvGame@@QAEHXZ		; CvGame::getGameTurn
	cmp	eax, DWORD PTR $T230530[ebp]
	jge	SHORT $LN9@DoTurn

; 350  : 	{
; 351  : 		return;

	jmp	$LN12@DoTurn
$LN9@DoTurn:

; 352  : 	}
; 353  : 
; 354  : 	// No city specialization if we don't have enough cities
; 355  : 	if(m_pPlayer->getNumCities() < 2)

	mov	eax, DWORD PTR _this$[ebp]
	mov	ecx, DWORD PTR [eax]
	call	?getNumCities@CvPlayer@@QBEHXZ		; CvPlayer::getNumCities
	cmp	eax, 2
	jge	SHORT $LN8@DoTurn

; 356  : 	{
; 357  : 		return;

	jmp	$LN12@DoTurn
$LN8@DoTurn:

; 358  : 	}
; 359  : 
; 360  : 	// See if need to update assignments
; 361  : 	if(m_bSpecializationsDirty || (m_iLastTurnEvaluated + GC.getAI_CITY_SPECIALIZATION_REEVALUATION_INTERVAL() > GC.getGame().getGameTurn()))

	mov	ecx, DWORD PTR _this$[ebp]
	movzx	edx, BYTE PTR [ecx+8]
	test	edx, edx
	jne	SHORT $LN6@DoTurn
	mov	eax, DWORD PTR ?gGlobals@@3VCvGlobals@@A+2212
	mov	DWORD PTR $T230534[ebp], eax
	mov	ecx, DWORD PTR ?gGlobals@@3VCvGlobals@@A+48
	mov	DWORD PTR $T230538[ebp], ecx
	mov	edx, DWORD PTR _this$[ebp]
	mov	esi, DWORD PTR [edx+188]
	add	esi, DWORD PTR $T230534[ebp]
	mov	ecx, DWORD PTR $T230538[ebp]
	call	?getGameTurn@CvGame@@QAEHXZ		; CvGame::getGameTurn
	cmp	esi, eax
	jle	$LN12@DoTurn
$LN6@DoTurn:

; 362  : 	{
; 363  : 		m_eNextWonderDesired = m_pPlayer->GetWonderProductionAI()->ChooseWonder(false /*bUseAsyncRandom*/, true /*bAdjustForOtherPlayers*/, m_iNextWonderWeight);

	mov	eax, DWORD PTR _this$[ebp]
	add	eax, 204				; 000000ccH
	push	eax
	push	1
	push	0
	mov	ecx, DWORD PTR _this$[ebp]
	mov	ecx, DWORD PTR [ecx]
	call	?GetWonderProductionAI@CvPlayer@@QBEPAVCvWonderProductionAI@@XZ ; CvPlayer::GetWonderProductionAI
	mov	ecx, eax
	call	?ChooseWonder@CvWonderProductionAI@@QAE?AW4BuildingTypes@@_N0AAH@Z ; CvWonderProductionAI::ChooseWonder
	mov	edx, DWORD PTR _this$[ebp]
	mov	DWORD PTR [edx+196], eax

; 364  : 		WeightSpecializations();

	mov	ecx, DWORD PTR _this$[ebp]
	call	?WeightSpecializations@CvCitySpecializationAI@@AAEXXZ ; CvCitySpecializationAI::WeightSpecializations

; 365  : 		AssignSpecializations();

	mov	ecx, DWORD PTR _this$[ebp]
	call	?AssignSpecializations@CvCitySpecializationAI@@AAEXXZ ; CvCitySpecializationAI::AssignSpecializations

; 366  : 		m_bSpecializationsDirty = false;

	mov	eax, DWORD PTR _this$[ebp]
	mov	BYTE PTR [eax+8], 0

; 367  : 		m_iLastTurnEvaluated = GC.getGame().getGameTurn();

	mov	ecx, DWORD PTR ?gGlobals@@3VCvGlobals@@A+48
	mov	DWORD PTR $T230542[ebp], ecx
	mov	ecx, DWORD PTR $T230542[ebp]
	call	?getGameTurn@CvGame@@QAEHXZ		; CvGame::getGameTurn
	mov	edx, DWORD PTR _this$[ebp]
	mov	DWORD PTR [edx+188], eax

; 368  : 
; 369  : 		// Do we need to choose production again at all our cities?
; 370  : 		if(m_bInterruptWonders)

	mov	eax, DWORD PTR _this$[ebp]
	movzx	ecx, BYTE PTR [eax+192]
	test	ecx, ecx
	je	SHORT $LN5@DoTurn

; 371  : 		{
; 372  : 			CvCity* pLoopCity = NULL;

	mov	DWORD PTR _pLoopCity$225206[ebp], 0

; 373  : 			for(pLoopCity = m_pPlayer->firstCity(&iCityLoop); pLoopCity != NULL; pLoopCity = m_pPlayer->nextCity(&iCityLoop))

	push	0
	lea	edx, DWORD PTR _iCityLoop$[ebp]
	push	edx
	mov	eax, DWORD PTR _this$[ebp]
	mov	ecx, DWORD PTR [eax]
	call	?firstCity@CvPlayer@@QAEPAVCvCity@@PAH_N@Z ; CvPlayer::firstCity
	mov	DWORD PTR _pLoopCity$225206[ebp], eax
	jmp	SHORT $LN4@DoTurn
$LN3@DoTurn:
	push	0
	lea	ecx, DWORD PTR _iCityLoop$[ebp]
	push	ecx
	mov	edx, DWORD PTR _this$[ebp]
	mov	ecx, DWORD PTR [edx]
	call	?nextCity@CvPlayer@@QAEPAVCvCity@@PAH_N@Z ; CvPlayer::nextCity
	mov	DWORD PTR _pLoopCity$225206[ebp], eax
$LN4@DoTurn:
	cmp	DWORD PTR _pLoopCity$225206[ebp], 0
	je	SHORT $LN5@DoTurn

; 374  : 			{
; 375  : 				if(!pLoopCity->IsBuildingUnitForOperation())

	mov	eax, DWORD PTR _pLoopCity$225206[ebp]
	mov	edx, DWORD PTR [eax]
	mov	ecx, DWORD PTR _pLoopCity$225206[ebp]
	mov	eax, DWORD PTR [edx+36]
	call	eax
	movzx	ecx, al
	test	ecx, ecx
	jne	SHORT $LN1@DoTurn

; 376  : 				{
; 377  : 					pLoopCity->AI_chooseProduction(true /*bInterruptWonders*/);

	push	1
	mov	edx, DWORD PTR _pLoopCity$225206[ebp]
	mov	eax, DWORD PTR [edx]
	mov	ecx, DWORD PTR _pLoopCity$225206[ebp]
	mov	edx, DWORD PTR [eax+16]
	call	edx
$LN1@DoTurn:

; 378  : 				}
; 379  : 			}

	jmp	SHORT $LN3@DoTurn
$LN5@DoTurn:

; 380  : 		}
; 381  : 
; 382  : 		// Reset this flag -- need a new high priority event before we'll interrupt again
; 383  : 		m_bInterruptWonders = false;

	mov	eax, DWORD PTR _this$[ebp]
	mov	BYTE PTR [eax+192], 0
$LN12@DoTurn:

; 384  : 	}
; 385  : }

	pop	esi
	mov	esp, ebp
	pop	ebp
	ret	0
?DoTurn@CvCitySpecializationAI@@QAEXXZ ENDP		; CvCitySpecializationAI::DoTurn
_TEXT	ENDS
PUBLIC	?LogSpecializationUpdate@CvCitySpecializationAI@@AAEXW4CitySpecializationUpdateType@@@Z ; CvCitySpecializationAI::LogSpecializationUpdate
PUBLIC	?SetSpecializationsDirty@CvCitySpecializationAI@@QAEXW4CitySpecializationUpdateType@@@Z ; CvCitySpecializationAI::SetSpecializationsDirty
; Function compile flags: /Odtp
;	COMDAT ?SetSpecializationsDirty@CvCitySpecializationAI@@QAEXW4CitySpecializationUpdateType@@@Z
_TEXT	SEGMENT
tv71 = -8						; size = 4
_this$ = -4						; size = 4
_eUpdateType$ = 8					; size = 4
?SetSpecializationsDirty@CvCitySpecializationAI@@QAEXW4CitySpecializationUpdateType@@@Z PROC ; CvCitySpecializationAI::SetSpecializationsDirty, COMDAT
; _this$ = ecx

; 389  : {

	push	ebp
	mov	ebp, esp
	sub	esp, 8
	mov	DWORD PTR _this$[ebp], ecx

; 390  : 	// No city specializations for minor civs
; 391  : 	if(!m_pPlayer->isMinorCiv())

	mov	eax, DWORD PTR _this$[ebp]
	mov	ecx, DWORD PTR [eax]
	call	?isMinorCiv@CvPlayer@@QBE_NXZ		; CvPlayer::isMinorCiv
	movzx	ecx, al
	test	ecx, ecx
	jne	SHORT $LN6@SetSpecial

; 392  : 	{
; 393  : 		m_bSpecializationsDirty = true;

	mov	edx, DWORD PTR _this$[ebp]
	mov	BYTE PTR [edx+8], 1

; 394  : 		LogSpecializationUpdate(eUpdateType);

	mov	eax, DWORD PTR _eUpdateType$[ebp]
	push	eax
	mov	ecx, DWORD PTR _this$[ebp]
	call	?LogSpecializationUpdate@CvCitySpecializationAI@@AAEXW4CitySpecializationUpdateType@@@Z ; CvCitySpecializationAI::LogSpecializationUpdate

; 395  : 
; 396  : 		switch(eUpdateType)

	mov	ecx, DWORD PTR _eUpdateType$[ebp]
	mov	DWORD PTR tv71[ebp], ecx
	cmp	DWORD PTR tv71[ebp], 1
	je	SHORT $LN2@SetSpecial
	cmp	DWORD PTR tv71[ebp], 3
	je	SHORT $LN2@SetSpecial
	jmp	SHORT $LN6@SetSpecial
$LN2@SetSpecial:

; 397  : 		{
; 398  : 		case SPECIALIZATION_UPDATE_NOW_AT_WAR:
; 399  : 		case SPECIALIZATION_UPDATE_MY_CITY_CAPTURED:
; 400  : 			m_bInterruptWonders = true;

	mov	edx, DWORD PTR _this$[ebp]
	mov	BYTE PTR [edx+192], 1
$LN6@SetSpecial:

; 401  : 			break;
; 402  : 		default:
; 403  : 			// Don't set it to false for these other cases!
; 404  : 			// We shouldn't set it to false until after the next time we've picked specializations.
; 405  : 			break;
; 406  : 		}
; 407  : 	}
; 408  : 
; 409  : 	return;
; 410  : }

	mov	esp, ebp
	pop	ebp
	ret	4
?SetSpecializationsDirty@CvCitySpecializationAI@@QAEXW4CitySpecializationUpdateType@@@Z ENDP ; CvCitySpecializationAI::SetSpecializationsDirty
_TEXT	ENDS
PUBLIC	?GetWonderBuildCity@CvCitySpecializationAI@@QBEPAVCvCity@@XZ ; CvCitySpecializationAI::GetWonderBuildCity
EXTRN	?getCity@CvPlayer@@QAEPAVCvCity@@H@Z:PROC	; CvPlayer::getCity
; Function compile flags: /Odtp
;	COMDAT ?GetWonderBuildCity@CvCitySpecializationAI@@QBEPAVCvCity@@XZ
_TEXT	SEGMENT
_this$ = -8						; size = 4
_pRtnValue$ = -4					; size = 4
?GetWonderBuildCity@CvCitySpecializationAI@@QBEPAVCvCity@@XZ PROC ; CvCitySpecializationAI::GetWonderBuildCity, COMDAT
; _this$ = ecx

; 414  : {

	push	ebp
	mov	ebp, esp
	sub	esp, 8
	mov	DWORD PTR _this$[ebp], ecx

; 415  : 	CvCity* pRtnValue = NULL;

	mov	DWORD PTR _pRtnValue$[ebp], 0

; 416  : 	if(m_iWonderCityID != -1)

	mov	eax, DWORD PTR _this$[ebp]
	cmp	DWORD PTR [eax+200], -1
	je	SHORT $LN1@GetWonderB

; 417  : 	{
; 418  : 		pRtnValue = m_pPlayer->getCity(m_iWonderCityID);

	mov	ecx, DWORD PTR _this$[ebp]
	mov	edx, DWORD PTR [ecx+200]
	push	edx
	mov	eax, DWORD PTR _this$[ebp]
	mov	ecx, DWORD PTR [eax]
	call	?getCity@CvPlayer@@QAEPAVCvCity@@H@Z	; CvPlayer::getCity
	mov	DWORD PTR _pRtnValue$[ebp], eax
$LN1@GetWonderB:

; 419  : 	}
; 420  : 	return pRtnValue;

	mov	eax, DWORD PTR _pRtnValue$[ebp]

; 421  : }

	mov	esp, ebp
	pop	ebp
	ret	0
?GetWonderBuildCity@CvCitySpecializationAI@@QBEPAVCvCity@@XZ ENDP ; CvCitySpecializationAI::GetWonderBuildCity
_TEXT	ENDS
PUBLIC	?LogSpecializationWeights@CvCitySpecializationAI@@AAEXXZ ; CvCitySpecializationAI::LogSpecializationWeights
PUBLIC	?push_back@?$FStaticVector@UWeightedElement@?$CvWeightedVector@W4YieldTypes@@$04$00@@$04$00$0A@$0A@@@QAEIABUWeightedElement@?$CvWeightedVector@W4YieldTypes@@$04$00@@@Z ; FStaticVector<CvWeightedVector<enum YieldTypes,5,1>::WeightedElement,5,1,0,0>::push_back
PUBLIC	?WeightProductionSubtypes@CvCitySpecializationAI@@AAEHHH@Z ; CvCitySpecializationAI::WeightProductionSubtypes
PUBLIC	??_C@_0CD@CKIOFBEO@ECONOMICAISTRATEGY_EARLY_EXPANSI@ ; `string'
PUBLIC	??_C@_0BB@EDNPBEHK@FLAVOR_SPACESHIP?$AA@	; `string'
PUBLIC	??_C@_0P@NPJBAHPJ@FLAVOR_SCIENCE?$AA@		; `string'
PUBLIC	??_C@_0M@IKAIFEKA@FLAVOR_GOLD?$AA@		; `string'
PUBLIC	??_C@_0O@CBMDBMFP@FLAVOR_WONDER?$AA@		; `string'
PUBLIC	??_C@_0BB@PHIOLDJK@FLAVOR_EXPANSION?$AA@	; `string'
EXTRN	?GetSpecializationBoost@CvAIGrandStrategyXMLEntry@@QBEHW4YieldTypes@@@Z:PROC ; CvAIGrandStrategyXMLEntry::GetSpecializationBoost
EXTRN	?GetActiveGrandStrategy@CvGrandStrategyAI@@QBE?AW4AIGrandStrategyTypes@@XZ:PROC ; CvGrandStrategyAI::GetActiveGrandStrategy
EXTRN	?GetGrandStrategyAI@CvPlayer@@QBEPAVCvGrandStrategyAI@@XZ:PROC ; CvPlayer::GetGrandStrategyAI
EXTRN	?getAIGrandStrategyInfo@CvGlobals@@QAEPAVCvAIGrandStrategyXMLEntry@@W4AIGrandStrategyTypes@@@Z:PROC ; CvGlobals::getAIGrandStrategyInfo
EXTRN	?getNumAIGrandStrategyInfos@CvGlobals@@QAEHXZ:PROC ; CvGlobals::getNumAIGrandStrategyInfos
EXTRN	?GetTotalLandDisputeLevel@CvDiplomacyAI@@QAEHXZ:PROC ; CvDiplomacyAI::GetTotalLandDisputeLevel
EXTRN	?GetDiplomacyAI@CvPlayer@@QBEPAVCvDiplomacyAI@@XZ:PROC ; CvPlayer::GetDiplomacyAI
EXTRN	?getNumTiles@CvArea@@QBEHXZ:PROC		; CvArea::getNumTiles
EXTRN	?IsUsingStrategy@CvEconomicAI@@QAE_NW4EconomicAIStrategyTypes@@@Z:PROC ; CvEconomicAI::IsUsingStrategy
EXTRN	?GetEconomicAI@CvPlayer@@QBEPAVCvEconomicAI@@XZ:PROC ; CvPlayer::GetEconomicAI
EXTRN	?GetNumUnitsWithUnitAI@CvPlayer@@QAEHW4UnitAITypes@@_N1@Z:PROC ; CvPlayer::GetNumUnitsWithUnitAI
EXTRN	?getNumUnownedTiles@CvArea@@QBEHXZ:PROC		; CvArea::getNumUnownedTiles
EXTRN	?getArea@CvMap@@QAEPAVCvArea@@H@Z:PROC		; CvMap::getArea
EXTRN	?getArea@CvCity@@QBEHXZ:PROC			; CvCity::getArea
EXTRN	?GetIndividualFlavor@CvFlavorManager@@QAEHW4FlavorTypes@@@Z:PROC ; CvFlavorManager::GetIndividualFlavor
EXTRN	?GetFlavorManager@CvPlayer@@QBEPAVCvFlavorManager@@XZ:PROC ; CvPlayer::GetFlavorManager
EXTRN	?getCapitalCity@CvPlayer@@QAEPAVCvCity@@XZ:PROC	; CvPlayer::getCapitalCity
;	COMDAT ??_C@_0CD@CKIOFBEO@ECONOMICAISTRATEGY_EARLY_EXPANSI@
; File d:\sources\lekmod_git\checkout\lekmod_dll\cvgamecoredllutil\include\cvweightedvector.h
CONST	SEGMENT
??_C@_0CD@CKIOFBEO@ECONOMICAISTRATEGY_EARLY_EXPANSI@ DB 'ECONOMICAISTRATE'
	DB	'GY_EARLY_EXPANSION', 00H			; `string'
CONST	ENDS
;	COMDAT ??_C@_0BB@EDNPBEHK@FLAVOR_SPACESHIP?$AA@
CONST	SEGMENT
??_C@_0BB@EDNPBEHK@FLAVOR_SPACESHIP?$AA@ DB 'FLAVOR_SPACESHIP', 00H ; `string'
CONST	ENDS
;	COMDAT ??_C@_0P@NPJBAHPJ@FLAVOR_SCIENCE?$AA@
CONST	SEGMENT
??_C@_0P@NPJBAHPJ@FLAVOR_SCIENCE?$AA@ DB 'FLAVOR_SCIENCE', 00H ; `string'
CONST	ENDS
;	COMDAT ??_C@_0M@IKAIFEKA@FLAVOR_GOLD?$AA@
CONST	SEGMENT
??_C@_0M@IKAIFEKA@FLAVOR_GOLD?$AA@ DB 'FLAVOR_GOLD', 00H ; `string'
CONST	ENDS
;	COMDAT ??_C@_0O@CBMDBMFP@FLAVOR_WONDER?$AA@
CONST	SEGMENT
??_C@_0O@CBMDBMFP@FLAVOR_WONDER?$AA@ DB 'FLAVOR_WONDER', 00H ; `string'
CONST	ENDS
;	COMDAT ??_C@_0BB@PHIOLDJK@FLAVOR_EXPANSION?$AA@
CONST	SEGMENT
??_C@_0BB@PHIOLDJK@FLAVOR_EXPANSION?$AA@ DB 'FLAVOR_EXPANSION', 00H ; `string'
; Function compile flags: /Odtp
; File d:\sources\lekmod_git\checkout\lekmod_dll\cvgamecoredll_expansion2\cvcityspecializationai.cpp
CONST	ENDS
;	COMDAT ?WeightSpecializations@CvCitySpecializationAI@@AAEXXZ
_TEXT	SEGMENT
_this$ = -232						; size = 4
_weightedElem$230763 = -220				; size = 8
_weightedElem$230742 = -204				; size = 8
_weightedElem$230721 = -188				; size = 8
_weightedElem$230700 = -172				; size = 8
_weightedElem$230679 = -156				; size = 8
$T230655 = -148						; size = 4
$T230651 = -144						; size = 4
$T230647 = -140						; size = 4
$T230643 = -136						; size = 4
$T230639 = -132						; size = 4
$T230635 = -128						; size = 4
$T230631 = -124						; size = 4
$T230627 = -120						; size = 4
$T230623 = -116						; size = 4
$T230619 = -112						; size = 4
$T230615 = -108						; size = 4
_i$230608 = -104					; size = 4
$T230584 = -100						; size = 4
_i$230578 = -96						; size = 4
$T230553 = -92						; size = 4
$T230552 = -88						; size = 4
$T230551 = -84						; size = 4
$T230550 = -80						; size = 4
$T230549 = -76						; size = 4
_grandStrategy$225271 = -72				; size = 4
_iGrandStrategyLoop$225267 = -68			; size = 4
_iFlavorWonder$225237 = -64				; size = 4
_pArea$225256 = -60					; size = 4
_iFlavorExpansion$225236 = -56				; size = 4
_iFlavorScience$225239 = -52				; size = 4
_iFlavorSpaceship$225240 = -48				; size = 4
_iNumCities$225258 = -44				; size = 4
_eStrategy$225260 = -40					; size = 4
_iLandDisputeLevel$225266 = -36				; size = 4
_iNumUnownedTiles$225257 = -32				; size = 4
_iFlavorGold$225238 = -28				; size = 4
_iNumSettlers$225259 = -24				; size = 4
_iFoodYieldWeight$ = -20				; size = 4
_iGoldYieldWeight$ = -16				; size = 4
_iProductionYieldWeight$ = -12				; size = 4
_iScienceYieldWeight$ = -8				; size = 4
_iGeneralEconomicWeight$ = -4				; size = 4
?WeightSpecializations@CvCitySpecializationAI@@AAEXXZ PROC ; CvCitySpecializationAI::WeightSpecializations, COMDAT
; _this$ = ecx

; 427  : {

	push	ebp
	mov	ebp, esp
	sub	esp, 232				; 000000e8H
	push	esi
	mov	DWORD PTR _this$[ebp], ecx

; 428  : 	int iFoodYieldWeight = 0;

	mov	DWORD PTR _iFoodYieldWeight$[ebp], 0

; 429  : 	int iProductionYieldWeight = 0;

	mov	DWORD PTR _iProductionYieldWeight$[ebp], 0

; 430  : 	int iGoldYieldWeight = 0;

	mov	DWORD PTR _iGoldYieldWeight$[ebp], 0

; 431  : 	int iScienceYieldWeight = 0;

	mov	DWORD PTR _iScienceYieldWeight$[ebp], 0

; 432  : 	int iGeneralEconomicWeight = 0;

	mov	DWORD PTR _iGeneralEconomicWeight$[ebp], 0

; 433  : 
; 434  : 	// Clear old weights
; 435  : 	m_YieldWeights.clear();

	mov	eax, DWORD PTR _this$[ebp]
	add	eax, 44					; 0000002cH
	mov	DWORD PTR $T230584[ebp], eax
	xor	ecx, ecx
	je	SHORT $LN25@WeightSpec
	mov	DWORD PTR _i$230578[ebp], 0
	jmp	SHORT $LN23@WeightSpec
$LN22@WeightSpec:
	mov	edx, DWORD PTR _i$230578[ebp]
	add	edx, 1
	mov	DWORD PTR _i$230578[ebp], edx
$LN23@WeightSpec:
	mov	eax, DWORD PTR $T230584[ebp]
	mov	ecx, DWORD PTR _i$230578[ebp]
	cmp	ecx, DWORD PTR [eax+4]
	jae	SHORT $LN25@WeightSpec
	jmp	SHORT $LN22@WeightSpec
$LN25@WeightSpec:
	mov	edx, DWORD PTR $T230584[ebp]
	mov	DWORD PTR [edx+4], 0

; 436  : 	m_ProductionSubtypeWeights.clear();

	mov	eax, DWORD PTR _this$[ebp]
	add	eax, 120				; 00000078H
	mov	DWORD PTR $T230615[ebp], eax
	xor	ecx, ecx
	je	SHORT $LN35@WeightSpec
	mov	DWORD PTR _i$230608[ebp], 0
	jmp	SHORT $LN33@WeightSpec
$LN32@WeightSpec:
	mov	edx, DWORD PTR _i$230608[ebp]
	add	edx, 1
	mov	DWORD PTR _i$230608[ebp], edx
$LN33@WeightSpec:
	mov	eax, DWORD PTR $T230615[ebp]
	mov	ecx, DWORD PTR _i$230608[ebp]
	cmp	ecx, DWORD PTR [eax+4]
	jae	SHORT $LN35@WeightSpec
	jmp	SHORT $LN32@WeightSpec
$LN35@WeightSpec:
	mov	edx, DWORD PTR $T230615[ebp]
	mov	DWORD PTR [edx+4], 0

; 437  : 
; 438  : 	// Must have a capital to do any specialization
; 439  : 	if(m_pPlayer->getCapitalCity() != NULL)

	mov	eax, DWORD PTR _this$[ebp]
	mov	ecx, DWORD PTR [eax]
	call	?getCapitalCity@CvPlayer@@QAEPAVCvCity@@XZ ; CvPlayer::getCapitalCity
	test	eax, eax
	je	$LN15@WeightSpec

; 440  : 	{
; 441  : 		int iFlavorExpansion = 0;

	mov	DWORD PTR _iFlavorExpansion$225236[ebp], 0

; 442  : 		int iFlavorWonder = 0;

	mov	DWORD PTR _iFlavorWonder$225237[ebp], 0

; 443  : 		int iFlavorGold = 0;

	mov	DWORD PTR _iFlavorGold$225238[ebp], 0

; 444  : 		int iFlavorScience = 0;

	mov	DWORD PTR _iFlavorScience$225239[ebp], 0

; 445  : 		int iFlavorSpaceship = 0;

	mov	DWORD PTR _iFlavorSpaceship$225240[ebp], 0

; 446  : 
; 447  : 		iFlavorExpansion = m_pPlayer->GetFlavorManager()->GetIndividualFlavor((FlavorTypes)GC.getInfoTypeForString("FLAVOR_EXPANSION"));

	push	0
	push	OFFSET ??_C@_0BB@PHIOLDJK@FLAVOR_EXPANSION?$AA@
	mov	ecx, OFFSET ?gGlobals@@3VCvGlobals@@A	; gGlobals
	call	?getInfoTypeForString@CvGlobals@@QBEHPBD_N@Z ; CvGlobals::getInfoTypeForString
	push	eax
	mov	ecx, DWORD PTR _this$[ebp]
	mov	ecx, DWORD PTR [ecx]
	call	?GetFlavorManager@CvPlayer@@QBEPAVCvFlavorManager@@XZ ; CvPlayer::GetFlavorManager
	mov	ecx, eax
	call	?GetIndividualFlavor@CvFlavorManager@@QAEHW4FlavorTypes@@@Z ; CvFlavorManager::GetIndividualFlavor
	mov	DWORD PTR _iFlavorExpansion$225236[ebp], eax

; 448  : 		if(iFlavorExpansion < 0) iFlavorExpansion = 0;

	cmp	DWORD PTR _iFlavorExpansion$225236[ebp], 0
	jge	SHORT $LN13@WeightSpec
	mov	DWORD PTR _iFlavorExpansion$225236[ebp], 0
$LN13@WeightSpec:

; 449  : 		iFlavorWonder = m_pPlayer->GetFlavorManager()->GetIndividualFlavor((FlavorTypes)GC.getInfoTypeForString("FLAVOR_WONDER"));

	push	0
	push	OFFSET ??_C@_0O@CBMDBMFP@FLAVOR_WONDER?$AA@
	mov	ecx, OFFSET ?gGlobals@@3VCvGlobals@@A	; gGlobals
	call	?getInfoTypeForString@CvGlobals@@QBEHPBD_N@Z ; CvGlobals::getInfoTypeForString
	push	eax
	mov	edx, DWORD PTR _this$[ebp]
	mov	ecx, DWORD PTR [edx]
	call	?GetFlavorManager@CvPlayer@@QBEPAVCvFlavorManager@@XZ ; CvPlayer::GetFlavorManager
	mov	ecx, eax
	call	?GetIndividualFlavor@CvFlavorManager@@QAEHW4FlavorTypes@@@Z ; CvFlavorManager::GetIndividualFlavor
	mov	DWORD PTR _iFlavorWonder$225237[ebp], eax

; 450  : 		if(iFlavorWonder < 0) iFlavorWonder = 0;

	cmp	DWORD PTR _iFlavorWonder$225237[ebp], 0
	jge	SHORT $LN12@WeightSpec
	mov	DWORD PTR _iFlavorWonder$225237[ebp], 0
$LN12@WeightSpec:

; 451  : 		iFlavorGold = m_pPlayer->GetFlavorManager()->GetIndividualFlavor((FlavorTypes)GC.getInfoTypeForString("FLAVOR_GOLD"));

	push	0
	push	OFFSET ??_C@_0M@IKAIFEKA@FLAVOR_GOLD?$AA@
	mov	ecx, OFFSET ?gGlobals@@3VCvGlobals@@A	; gGlobals
	call	?getInfoTypeForString@CvGlobals@@QBEHPBD_N@Z ; CvGlobals::getInfoTypeForString
	push	eax
	mov	eax, DWORD PTR _this$[ebp]
	mov	ecx, DWORD PTR [eax]
	call	?GetFlavorManager@CvPlayer@@QBEPAVCvFlavorManager@@XZ ; CvPlayer::GetFlavorManager
	mov	ecx, eax
	call	?GetIndividualFlavor@CvFlavorManager@@QAEHW4FlavorTypes@@@Z ; CvFlavorManager::GetIndividualFlavor
	mov	DWORD PTR _iFlavorGold$225238[ebp], eax

; 452  : 		if(iFlavorGold < 0) iFlavorGold = 0;

	cmp	DWORD PTR _iFlavorGold$225238[ebp], 0
	jge	SHORT $LN11@WeightSpec
	mov	DWORD PTR _iFlavorGold$225238[ebp], 0
$LN11@WeightSpec:

; 453  : 		iFlavorScience = m_pPlayer->GetFlavorManager()->GetIndividualFlavor((FlavorTypes)GC.getInfoTypeForString("FLAVOR_SCIENCE"));

	push	0
	push	OFFSET ??_C@_0P@NPJBAHPJ@FLAVOR_SCIENCE?$AA@
	mov	ecx, OFFSET ?gGlobals@@3VCvGlobals@@A	; gGlobals
	call	?getInfoTypeForString@CvGlobals@@QBEHPBD_N@Z ; CvGlobals::getInfoTypeForString
	push	eax
	mov	ecx, DWORD PTR _this$[ebp]
	mov	ecx, DWORD PTR [ecx]
	call	?GetFlavorManager@CvPlayer@@QBEPAVCvFlavorManager@@XZ ; CvPlayer::GetFlavorManager
	mov	ecx, eax
	call	?GetIndividualFlavor@CvFlavorManager@@QAEHW4FlavorTypes@@@Z ; CvFlavorManager::GetIndividualFlavor
	mov	DWORD PTR _iFlavorScience$225239[ebp], eax

; 454  : 		if(iFlavorScience < 0) iFlavorScience = 0;

	cmp	DWORD PTR _iFlavorScience$225239[ebp], 0
	jge	SHORT $LN10@WeightSpec
	mov	DWORD PTR _iFlavorScience$225239[ebp], 0
$LN10@WeightSpec:

; 455  : 		iFlavorSpaceship = m_pPlayer->GetFlavorManager()->GetIndividualFlavor((FlavorTypes)GC.getInfoTypeForString("FLAVOR_SPACESHIP"));

	push	0
	push	OFFSET ??_C@_0BB@EDNPBEHK@FLAVOR_SPACESHIP?$AA@
	mov	ecx, OFFSET ?gGlobals@@3VCvGlobals@@A	; gGlobals
	call	?getInfoTypeForString@CvGlobals@@QBEHPBD_N@Z ; CvGlobals::getInfoTypeForString
	push	eax
	mov	edx, DWORD PTR _this$[ebp]
	mov	ecx, DWORD PTR [edx]
	call	?GetFlavorManager@CvPlayer@@QBEPAVCvFlavorManager@@XZ ; CvPlayer::GetFlavorManager
	mov	ecx, eax
	call	?GetIndividualFlavor@CvFlavorManager@@QAEHW4FlavorTypes@@@Z ; CvFlavorManager::GetIndividualFlavor
	mov	DWORD PTR _iFlavorSpaceship$225240[ebp], eax

; 456  : 		if(iFlavorSpaceship < 0) iFlavorSpaceship = 0;

	cmp	DWORD PTR _iFlavorSpaceship$225240[ebp], 0
	jge	SHORT $LN9@WeightSpec
	mov	DWORD PTR _iFlavorSpaceship$225240[ebp], 0
$LN9@WeightSpec:

; 457  : 
; 458  : 		// COMPUTE NEW WEIGHTS
; 459  : 
; 460  : 		//   Food
; 461  : 		CvArea* pArea = GC.getMap().getArea(m_pPlayer->getCapitalCity()->getArea());

	mov	eax, DWORD PTR ?gGlobals@@3VCvGlobals@@A+52
	mov	DWORD PTR $T230619[ebp], eax
	mov	ecx, DWORD PTR _this$[ebp]
	mov	ecx, DWORD PTR [ecx]
	call	?getCapitalCity@CvPlayer@@QAEPAVCvCity@@XZ ; CvPlayer::getCapitalCity
	mov	ecx, eax
	call	?getArea@CvCity@@QBEHXZ			; CvCity::getArea
	push	eax
	mov	ecx, DWORD PTR $T230619[ebp]
	call	?getArea@CvMap@@QAEPAVCvArea@@H@Z	; CvMap::getArea
	mov	DWORD PTR _pArea$225256[ebp], eax

; 462  : 		int iNumUnownedTiles = pArea->getNumUnownedTiles();

	mov	ecx, DWORD PTR _pArea$225256[ebp]
	call	?getNumUnownedTiles@CvArea@@QBEHXZ	; CvArea::getNumUnownedTiles
	mov	DWORD PTR _iNumUnownedTiles$225257[ebp], eax

; 463  : 		int iNumCities = m_pPlayer->getNumCities();

	mov	edx, DWORD PTR _this$[ebp]
	mov	ecx, DWORD PTR [edx]
	call	?getNumCities@CvPlayer@@QBEHXZ		; CvPlayer::getNumCities
	mov	DWORD PTR _iNumCities$225258[ebp], eax

; 464  : 		int iNumSettlers = m_pPlayer->GetNumUnitsWithUnitAI(UNITAI_SETTLE, true);

	push	1
	push	1
	push	1
	mov	eax, DWORD PTR _this$[ebp]
	mov	ecx, DWORD PTR [eax]
	call	?GetNumUnitsWithUnitAI@CvPlayer@@QAEHW4UnitAITypes@@_N1@Z ; CvPlayer::GetNumUnitsWithUnitAI
	mov	DWORD PTR _iNumSettlers$225259[ebp], eax

; 465  : 		EconomicAIStrategyTypes eStrategy = (EconomicAIStrategyTypes) GC.getInfoTypeForString("ECONOMICAISTRATEGY_EARLY_EXPANSION");

	push	0
	push	OFFSET ??_C@_0CD@CKIOFBEO@ECONOMICAISTRATEGY_EARLY_EXPANSI@
	mov	ecx, OFFSET ?gGlobals@@3VCvGlobals@@A	; gGlobals
	call	?getInfoTypeForString@CvGlobals@@QBEHPBD_N@Z ; CvGlobals::getInfoTypeForString
	mov	DWORD PTR _eStrategy$225260[ebp], eax

; 466  : 		if(eStrategy != NO_ECONOMICAISTRATEGY && m_pPlayer->GetEconomicAI()->IsUsingStrategy(eStrategy))

	cmp	DWORD PTR _eStrategy$225260[ebp], -1
	je	SHORT $LN8@WeightSpec
	mov	ecx, DWORD PTR _eStrategy$225260[ebp]
	push	ecx
	mov	edx, DWORD PTR _this$[ebp]
	mov	ecx, DWORD PTR [edx]
	call	?GetEconomicAI@CvPlayer@@QBEPAVCvEconomicAI@@XZ ; CvPlayer::GetEconomicAI
	mov	ecx, eax
	call	?IsUsingStrategy@CvEconomicAI@@QAE_NW4EconomicAIStrategyTypes@@@Z ; CvEconomicAI::IsUsingStrategy
	movzx	eax, al
	test	eax, eax
	je	SHORT $LN8@WeightSpec

; 467  : 		{
; 468  : 			iFoodYieldWeight += GC.getAI_CITY_SPECIALIZATION_FOOD_WEIGHT_EARLY_EXPANSION() /* 500 */;

	mov	ecx, DWORD PTR ?gGlobals@@3VCvGlobals@@A+2236
	mov	DWORD PTR $T230623[ebp], ecx
	mov	edx, DWORD PTR _iFoodYieldWeight$[ebp]
	add	edx, DWORD PTR $T230623[ebp]
	mov	DWORD PTR _iFoodYieldWeight$[ebp], edx
$LN8@WeightSpec:

; 469  : 		}
; 470  : 		iFoodYieldWeight += iFlavorExpansion * GC.getAI_CITY_SPECIALIZATION_FOOD_WEIGHT_FLAVOR_EXPANSION() /* 5 */;

	mov	eax, DWORD PTR ?gGlobals@@3VCvGlobals@@A+2220
	mov	DWORD PTR $T230627[ebp], eax
	mov	ecx, DWORD PTR _iFlavorExpansion$225236[ebp]
	imul	ecx, DWORD PTR $T230627[ebp]
	add	ecx, DWORD PTR _iFoodYieldWeight$[ebp]
	mov	DWORD PTR _iFoodYieldWeight$[ebp], ecx

; 471  : 		iFoodYieldWeight += (iNumUnownedTiles * 100) / pArea->getNumTiles() * GC.getAI_CITY_SPECIALIZATION_FOOD_WEIGHT_PERCENT_CONTINENT_UNOWNED() /* 5 */;;

	mov	edx, DWORD PTR ?gGlobals@@3VCvGlobals@@A+2224
	mov	DWORD PTR $T230631[ebp], edx
	mov	esi, DWORD PTR _iNumUnownedTiles$225257[ebp]
	imul	esi, 100				; 00000064H
	mov	ecx, DWORD PTR _pArea$225256[ebp]
	call	?getNumTiles@CvArea@@QBEHXZ		; CvArea::getNumTiles
	mov	ecx, eax
	mov	eax, esi
	cdq
	idiv	ecx
	imul	eax, DWORD PTR $T230631[ebp]
	add	eax, DWORD PTR _iFoodYieldWeight$[ebp]
	mov	DWORD PTR _iFoodYieldWeight$[ebp], eax

; 472  : 		iFoodYieldWeight += iNumCities * GC.getAI_CITY_SPECIALIZATION_FOOD_WEIGHT_NUM_CITIES() /* -50 */;

	mov	edx, DWORD PTR ?gGlobals@@3VCvGlobals@@A+2228
	mov	DWORD PTR $T230635[ebp], edx
	mov	eax, DWORD PTR _iNumCities$225258[ebp]
	imul	eax, DWORD PTR $T230635[ebp]
	add	eax, DWORD PTR _iFoodYieldWeight$[ebp]
	mov	DWORD PTR _iFoodYieldWeight$[ebp], eax

; 473  : 		iFoodYieldWeight += iNumSettlers * GC.getAI_CITY_SPECIALIZATION_FOOD_WEIGHT_NUM_SETTLERS() /* -40 */;

	mov	ecx, DWORD PTR ?gGlobals@@3VCvGlobals@@A+2232
	mov	DWORD PTR $T230639[ebp], ecx
	mov	edx, DWORD PTR _iNumSettlers$225259[ebp]
	imul	edx, DWORD PTR $T230639[ebp]
	add	edx, DWORD PTR _iFoodYieldWeight$[ebp]
	mov	DWORD PTR _iFoodYieldWeight$[ebp], edx

; 474  : 		if((iNumCities + iNumSettlers) == 1)

	mov	eax, DWORD PTR _iNumCities$225258[ebp]
	add	eax, DWORD PTR _iNumSettlers$225259[ebp]
	cmp	eax, 1
	jne	SHORT $LN7@WeightSpec

; 475  : 		{
; 476  : 			iFoodYieldWeight *= 3;   // Really want to get up over 1 city

	mov	ecx, DWORD PTR _iFoodYieldWeight$[ebp]
	imul	ecx, 3
	mov	DWORD PTR _iFoodYieldWeight$[ebp], ecx
$LN7@WeightSpec:

; 477  : 		}
; 478  : 		if(iFoodYieldWeight < 0) iFoodYieldWeight = 0;

	cmp	DWORD PTR _iFoodYieldWeight$[ebp], 0
	jge	SHORT $LN6@WeightSpec
	mov	DWORD PTR _iFoodYieldWeight$[ebp], 0
$LN6@WeightSpec:

; 479  : 
; 480  : 		//   Production
; 481  : 		iProductionYieldWeight = WeightProductionSubtypes(iFlavorWonder, iFlavorSpaceship);

	mov	edx, DWORD PTR _iFlavorSpaceship$225240[ebp]
	push	edx
	mov	eax, DWORD PTR _iFlavorWonder$225237[ebp]
	push	eax
	mov	ecx, DWORD PTR _this$[ebp]
	call	?WeightProductionSubtypes@CvCitySpecializationAI@@AAEHHH@Z ; CvCitySpecializationAI::WeightProductionSubtypes
	mov	DWORD PTR _iProductionYieldWeight$[ebp], eax

; 482  : 
; 483  : 		//   Trade
; 484  : 		int iLandDisputeLevel = m_pPlayer->GetDiplomacyAI()->GetTotalLandDisputeLevel();

	mov	ecx, DWORD PTR _this$[ebp]
	mov	ecx, DWORD PTR [ecx]
	call	?GetDiplomacyAI@CvPlayer@@QBEPAVCvDiplomacyAI@@XZ ; CvPlayer::GetDiplomacyAI
	mov	ecx, eax
	call	?GetTotalLandDisputeLevel@CvDiplomacyAI@@QAEHXZ ; CvDiplomacyAI::GetTotalLandDisputeLevel
	mov	DWORD PTR _iLandDisputeLevel$225266[ebp], eax

; 485  : 		iGoldYieldWeight += iFlavorGold * GC.getAI_CITY_SPECIALIZATION_GOLD_WEIGHT_FLAVOR_GOLD() /* 20 */;

	mov	edx, DWORD PTR ?gGlobals@@3VCvGlobals@@A+2288
	mov	DWORD PTR $T230643[ebp], edx
	mov	eax, DWORD PTR _iFlavorGold$225238[ebp]
	imul	eax, DWORD PTR $T230643[ebp]
	add	eax, DWORD PTR _iGoldYieldWeight$[ebp]
	mov	DWORD PTR _iGoldYieldWeight$[ebp], eax

; 486  : 		iGoldYieldWeight += iLandDisputeLevel * GC.getAI_CITY_SPECIALIZATION_GOLD_WEIGHT_LAND_DISPUTE() /* 10 */;

	mov	ecx, DWORD PTR ?gGlobals@@3VCvGlobals@@A+2292
	mov	DWORD PTR $T230647[ebp], ecx
	mov	edx, DWORD PTR _iLandDisputeLevel$225266[ebp]
	imul	edx, DWORD PTR $T230647[ebp]
	add	edx, DWORD PTR _iGoldYieldWeight$[ebp]
	mov	DWORD PTR _iGoldYieldWeight$[ebp], edx

; 487  : 
; 488  : 		//   Science
; 489  : 		iScienceYieldWeight += iFlavorScience * GC.getAI_CITY_SPECIALIZATION_SCIENCE_WEIGHT_FLAVOR_SCIENCE() /* 20 */;

	mov	eax, DWORD PTR ?gGlobals@@3VCvGlobals@@A+2296
	mov	DWORD PTR $T230651[ebp], eax
	mov	ecx, DWORD PTR _iFlavorScience$225239[ebp]
	imul	ecx, DWORD PTR $T230651[ebp]
	add	ecx, DWORD PTR _iScienceYieldWeight$[ebp]
	mov	DWORD PTR _iScienceYieldWeight$[ebp], ecx

; 490  : 		iScienceYieldWeight += iFlavorSpaceship * GC.getAI_CITY_SPECIALIZATION_SCIENCE_WEIGHT_FLAVOR_SPACESHIP() /* 10 */;

	mov	edx, DWORD PTR ?gGlobals@@3VCvGlobals@@A+2300
	mov	DWORD PTR $T230655[ebp], edx
	mov	eax, DWORD PTR _iFlavorSpaceship$225240[ebp]
	imul	eax, DWORD PTR $T230655[ebp]
	add	eax, DWORD PTR _iScienceYieldWeight$[ebp]
	mov	DWORD PTR _iScienceYieldWeight$[ebp], eax

; 491  : 
; 492  : 		//   General Economics
; 493  : 		iGeneralEconomicWeight = GC.getAI_CITY_SPECIALIZATION_GENERAL_ECONOMIC_WEIGHT() /* 200 */;

	mov	ecx, DWORD PTR ?gGlobals@@3VCvGlobals@@A+2216
	mov	DWORD PTR _iGeneralEconomicWeight$[ebp], ecx

; 494  : 
; 495  : 		//   Add in any contribution from the current grand strategy
; 496  : #ifdef AUI_WARNING_FIXES
; 497  : 		for (uint iGrandStrategyLoop = 0; iGrandStrategyLoop < GC.getNumAIGrandStrategyInfos(); iGrandStrategyLoop++)
; 498  : #else
; 499  : 		for(int iGrandStrategyLoop = 0; iGrandStrategyLoop < GC.getNumAIGrandStrategyInfos(); iGrandStrategyLoop++)

	mov	DWORD PTR _iGrandStrategyLoop$225267[ebp], 0
	jmp	SHORT $LN5@WeightSpec
$LN4@WeightSpec:
	mov	edx, DWORD PTR _iGrandStrategyLoop$225267[ebp]
	add	edx, 1
	mov	DWORD PTR _iGrandStrategyLoop$225267[ebp], edx
$LN5@WeightSpec:
	mov	ecx, OFFSET ?gGlobals@@3VCvGlobals@@A	; gGlobals
	call	?getNumAIGrandStrategyInfos@CvGlobals@@QAEHXZ ; CvGlobals::getNumAIGrandStrategyInfos
	cmp	DWORD PTR _iGrandStrategyLoop$225267[ebp], eax
	jge	SHORT $LN3@WeightSpec

; 500  : #endif
; 501  : 		{
; 502  : 			CvAIGrandStrategyXMLEntry* grandStrategy = GC.getAIGrandStrategyInfo((AIGrandStrategyTypes)iGrandStrategyLoop);

	mov	eax, DWORD PTR _iGrandStrategyLoop$225267[ebp]
	push	eax
	mov	ecx, OFFSET ?gGlobals@@3VCvGlobals@@A	; gGlobals
	call	?getAIGrandStrategyInfo@CvGlobals@@QAEPAVCvAIGrandStrategyXMLEntry@@W4AIGrandStrategyTypes@@@Z ; CvGlobals::getAIGrandStrategyInfo
	mov	DWORD PTR _grandStrategy$225271[ebp], eax

; 503  : 			if(grandStrategy)

	cmp	DWORD PTR _grandStrategy$225271[ebp], 0
	je	SHORT $LN2@WeightSpec

; 504  : 			{
; 505  : #ifdef AUI_WARNING_FIXES
; 506  : 				if(iGrandStrategyLoop == (uint)m_pPlayer->GetGrandStrategyAI()->GetActiveGrandStrategy())
; 507  : #else
; 508  : 				if(iGrandStrategyLoop == m_pPlayer->GetGrandStrategyAI()->GetActiveGrandStrategy())

	mov	ecx, DWORD PTR _this$[ebp]
	mov	ecx, DWORD PTR [ecx]
	call	?GetGrandStrategyAI@CvPlayer@@QBEPAVCvGrandStrategyAI@@XZ ; CvPlayer::GetGrandStrategyAI
	mov	ecx, eax
	call	?GetActiveGrandStrategy@CvGrandStrategyAI@@QBE?AW4AIGrandStrategyTypes@@XZ ; CvGrandStrategyAI::GetActiveGrandStrategy
	cmp	DWORD PTR _iGrandStrategyLoop$225267[ebp], eax
	jne	SHORT $LN2@WeightSpec

; 509  : #endif
; 510  : 				{
; 511  : 					iFoodYieldWeight +=	grandStrategy->GetSpecializationBoost(YIELD_FOOD);

	push	0
	mov	ecx, DWORD PTR _grandStrategy$225271[ebp]
	call	?GetSpecializationBoost@CvAIGrandStrategyXMLEntry@@QBEHW4YieldTypes@@@Z ; CvAIGrandStrategyXMLEntry::GetSpecializationBoost
	add	eax, DWORD PTR _iFoodYieldWeight$[ebp]
	mov	DWORD PTR _iFoodYieldWeight$[ebp], eax

; 512  : 					iGoldYieldWeight += grandStrategy->GetSpecializationBoost(YIELD_GOLD);

	push	2
	mov	ecx, DWORD PTR _grandStrategy$225271[ebp]
	call	?GetSpecializationBoost@CvAIGrandStrategyXMLEntry@@QBEHW4YieldTypes@@@Z ; CvAIGrandStrategyXMLEntry::GetSpecializationBoost
	add	eax, DWORD PTR _iGoldYieldWeight$[ebp]
	mov	DWORD PTR _iGoldYieldWeight$[ebp], eax

; 513  : 					iScienceYieldWeight += grandStrategy->GetSpecializationBoost(YIELD_SCIENCE);

	push	3
	mov	ecx, DWORD PTR _grandStrategy$225271[ebp]
	call	?GetSpecializationBoost@CvAIGrandStrategyXMLEntry@@QBEHW4YieldTypes@@@Z ; CvAIGrandStrategyXMLEntry::GetSpecializationBoost
	add	eax, DWORD PTR _iScienceYieldWeight$[ebp]
	mov	DWORD PTR _iScienceYieldWeight$[ebp], eax
$LN2@WeightSpec:

; 514  : 				}
; 515  : 			}
; 516  : 		}

	jmp	SHORT $LN4@WeightSpec
$LN3@WeightSpec:

; 517  : 
; 518  : 		// Add weights to our weighted vector
; 519  : 		m_YieldWeights.push_back(YIELD_FOOD, iFoodYieldWeight);

	mov	DWORD PTR $T230549[ebp], 0
	mov	DWORD PTR _weightedElem$230679[ebp], 0
	mov	DWORD PTR _weightedElem$230679[ebp+4], 0
	mov	edx, DWORD PTR $T230549[ebp]
	mov	DWORD PTR _weightedElem$230679[ebp], edx
	mov	eax, DWORD PTR _iFoodYieldWeight$[ebp]
	mov	DWORD PTR _weightedElem$230679[ebp+4], eax
	lea	ecx, DWORD PTR _weightedElem$230679[ebp]
	push	ecx
	mov	ecx, DWORD PTR _this$[ebp]
	add	ecx, 44					; 0000002cH
	call	?push_back@?$FStaticVector@UWeightedElement@?$CvWeightedVector@W4YieldTypes@@$04$00@@$04$00$0A@$0A@@@QAEIABUWeightedElement@?$CvWeightedVector@W4YieldTypes@@$04$00@@@Z ; FStaticVector<CvWeightedVector<enum YieldTypes,5,1>::WeightedElement,5,1,0,0>::push_back

; 520  : 		m_YieldWeights.push_back(YIELD_PRODUCTION, iProductionYieldWeight);

	mov	DWORD PTR $T230550[ebp], 1
	mov	DWORD PTR _weightedElem$230700[ebp], 0
	mov	DWORD PTR _weightedElem$230700[ebp+4], 0
	mov	edx, DWORD PTR $T230550[ebp]
	mov	DWORD PTR _weightedElem$230700[ebp], edx
	mov	eax, DWORD PTR _iProductionYieldWeight$[ebp]
	mov	DWORD PTR _weightedElem$230700[ebp+4], eax
	lea	ecx, DWORD PTR _weightedElem$230700[ebp]
	push	ecx
	mov	ecx, DWORD PTR _this$[ebp]
	add	ecx, 44					; 0000002cH
	call	?push_back@?$FStaticVector@UWeightedElement@?$CvWeightedVector@W4YieldTypes@@$04$00@@$04$00$0A@$0A@@@QAEIABUWeightedElement@?$CvWeightedVector@W4YieldTypes@@$04$00@@@Z ; FStaticVector<CvWeightedVector<enum YieldTypes,5,1>::WeightedElement,5,1,0,0>::push_back

; 521  : 		m_YieldWeights.push_back(YIELD_GOLD, iGoldYieldWeight);

	mov	DWORD PTR $T230551[ebp], 2
	mov	DWORD PTR _weightedElem$230721[ebp], 0
	mov	DWORD PTR _weightedElem$230721[ebp+4], 0
	mov	edx, DWORD PTR $T230551[ebp]
	mov	DWORD PTR _weightedElem$230721[ebp], edx
	mov	eax, DWORD PTR _iGoldYieldWeight$[ebp]
	mov	DWORD PTR _weightedElem$230721[ebp+4], eax
	lea	ecx, DWORD PTR _weightedElem$230721[ebp]
	push	ecx
	mov	ecx, DWORD PTR _this$[ebp]
	add	ecx, 44					; 0000002cH
	call	?push_back@?$FStaticVector@UWeightedElement@?$CvWeightedVector@W4YieldTypes@@$04$00@@$04$00$0A@$0A@@@QAEIABUWeightedElement@?$CvWeightedVector@W4YieldTypes@@$04$00@@@Z ; FStaticVector<CvWeightedVector<enum YieldTypes,5,1>::WeightedElement,5,1,0,0>::push_back

; 522  : 		m_YieldWeights.push_back(YIELD_SCIENCE, iScienceYieldWeight);

	mov	DWORD PTR $T230552[ebp], 3
	mov	DWORD PTR _weightedElem$230742[ebp], 0
	mov	DWORD PTR _weightedElem$230742[ebp+4], 0
	mov	edx, DWORD PTR $T230552[ebp]
	mov	DWORD PTR _weightedElem$230742[ebp], edx
	mov	eax, DWORD PTR _iScienceYieldWeight$[ebp]
	mov	DWORD PTR _weightedElem$230742[ebp+4], eax
	lea	ecx, DWORD PTR _weightedElem$230742[ebp]
	push	ecx
	mov	ecx, DWORD PTR _this$[ebp]
	add	ecx, 44					; 0000002cH
	call	?push_back@?$FStaticVector@UWeightedElement@?$CvWeightedVector@W4YieldTypes@@$04$00@@$04$00$0A@$0A@@@QAEIABUWeightedElement@?$CvWeightedVector@W4YieldTypes@@$04$00@@@Z ; FStaticVector<CvWeightedVector<enum YieldTypes,5,1>::WeightedElement,5,1,0,0>::push_back

; 523  : 		m_YieldWeights.push_back(NO_YIELD, iGeneralEconomicWeight);

	mov	DWORD PTR $T230553[ebp], -1
	mov	DWORD PTR _weightedElem$230763[ebp], 0
	mov	DWORD PTR _weightedElem$230763[ebp+4], 0
	mov	edx, DWORD PTR $T230553[ebp]
	mov	DWORD PTR _weightedElem$230763[ebp], edx
	mov	eax, DWORD PTR _iGeneralEconomicWeight$[ebp]
	mov	DWORD PTR _weightedElem$230763[ebp+4], eax
	lea	ecx, DWORD PTR _weightedElem$230763[ebp]
	push	ecx
	mov	ecx, DWORD PTR _this$[ebp]
	add	ecx, 44					; 0000002cH
	call	?push_back@?$FStaticVector@UWeightedElement@?$CvWeightedVector@W4YieldTypes@@$04$00@@$04$00$0A@$0A@@@QAEIABUWeightedElement@?$CvWeightedVector@W4YieldTypes@@$04$00@@@Z ; FStaticVector<CvWeightedVector<enum YieldTypes,5,1>::WeightedElement,5,1,0,0>::push_back

; 524  : 
; 525  : 		// Log results
; 526  : 		LogSpecializationWeights();

	mov	ecx, DWORD PTR _this$[ebp]
	call	?LogSpecializationWeights@CvCitySpecializationAI@@AAEXXZ ; CvCitySpecializationAI::LogSpecializationWeights
$LN15@WeightSpec:

; 527  : 	}
; 528  : 
; 529  : 	return;
; 530  : }

	pop	esi
	mov	esp, ebp
	pop	ebp
	ret	0
?WeightSpecializations@CvCitySpecializationAI@@AAEXXZ ENDP ; CvCitySpecializationAI::WeightSpecializations
_TEXT	ENDS
PUBLIC	?push_back@?$FStaticVector@UWeightedElement@?$CvWeightedVector@W4ProductionSpecializationSubtypes@@$03$00@@$03$00$0A@$0A@@@QAEIABUWeightedElement@?$CvWeightedVector@W4ProductionSpecializationSubtypes@@$03$00@@@Z ; FStaticVector<CvWeightedVector<enum ProductionSpecializationSubtypes,4,1>::WeightedElement,4,1,0,0>::push_back
PUBLIC	?CanBuildSpaceshipParts@CvCitySpecializationAI@@AAE_NXZ ; CvCitySpecializationAI::CanBuildSpaceshipParts
PUBLIC	??_C@_0CG@NDHAKJJN@MILITARYAISTRATEGY_ENOUGH_NAVAL_@ ; `string'
PUBLIC	??_C@_0CN@NADDHBK@MILITARYAISTRATEGY_NEED_NAVAL_UN@ ; `string'
PUBLIC	??_C@_0CE@CPIEOHHN@MILITARYAISTRATEGY_NEED_NAVAL_UN@ ; `string'
PUBLIC	??_C@_0CJ@ECLOIKB@MILITARYAISTRATEGY_ENOUGH_MILITA@ ; `string'
PUBLIC	??_C@_0CL@CKCIKBIK@MILITARYAISTRATEGY_EMPIRE_DEFENS@ ; `string'
PUBLIC	??_C@_0CC@KNPAEDG@MILITARYAISTRATEGY_EMPIRE_DEFENS@ ; `string'
PUBLIC	??_C@_0CE@MNJNOLKD@MILITARYAISTRATEGY_WAR_MOBILIZAT@ ; `string'
PUBLIC	??_C@_0CE@HFBDFGBB@AICITYSTRATEGY_CAPITAL_UNDER_THR@ ; `string'
PUBLIC	??_C@_0P@ELMNBNJP@FLAVOR_OFFENSE?$AA@		; `string'
EXTRN	?GetFlavorValue@CvAIGrandStrategyXMLEntry@@QBEHH@Z:PROC ; CvAIGrandStrategyXMLEntry::GetFlavorValue
EXTRN	?IsUsingStrategy@CvMilitaryAI@@QAE_NW4MilitaryAIStrategyTypes@@@Z:PROC ; CvMilitaryAI::IsUsingStrategy
EXTRN	?IsUsingCityStrategy@CvCityStrategyAI@@QAE_NW4AICityStrategyTypes@@@Z:PROC ; CvCityStrategyAI::IsUsingCityStrategy
EXTRN	?GetCityStrategyAI@CvCity@@QBEPAVCvCityStrategyAI@@XZ:PROC ; CvCity::GetCityStrategyAI
EXTRN	?GetNumberCivsAtWarWith@CvMilitaryAI@@QBEHXZ:PROC ; CvMilitaryAI::GetNumberCivsAtWarWith
EXTRN	?GetMilitaryAI@CvPlayer@@QBEPAVCvMilitaryAI@@XZ:PROC ; CvPlayer::GetMilitaryAI
EXTRN	?GetPersonalityMajorCivApproachBias@CvDiplomacyAI@@QBEHW4MajorCivApproachTypes@@@Z:PROC ; CvDiplomacyAI::GetPersonalityMajorCivApproachBias
EXTRN	?GetPersonalityAndGrandStrategy@CvGrandStrategyAI@@QAEHW4FlavorTypes@@@Z:PROC ; CvGrandStrategyAI::GetPersonalityAndGrandStrategy
EXTRN	__fltused:DWORD
;	COMDAT ??_C@_0CG@NDHAKJJN@MILITARYAISTRATEGY_ENOUGH_NAVAL_@
; File d:\sources\lekmod_git\checkout\lekmod_dll\cvgamecoredllutil\include\cvweightedvector.h
CONST	SEGMENT
??_C@_0CG@NDHAKJJN@MILITARYAISTRATEGY_ENOUGH_NAVAL_@ DB 'MILITARYAISTRATE'
	DB	'GY_ENOUGH_NAVAL_UNITS', 00H			; `string'
CONST	ENDS
;	COMDAT ??_C@_0CN@NADDHBK@MILITARYAISTRATEGY_NEED_NAVAL_UN@
CONST	SEGMENT
??_C@_0CN@NADDHBK@MILITARYAISTRATEGY_NEED_NAVAL_UN@ DB 'MILITARYAISTRATEG'
	DB	'Y_NEED_NAVAL_UNITS_CRITICAL', 00H		; `string'
CONST	ENDS
;	COMDAT ??_C@_0CE@CPIEOHHN@MILITARYAISTRATEGY_NEED_NAVAL_UN@
CONST	SEGMENT
??_C@_0CE@CPIEOHHN@MILITARYAISTRATEGY_NEED_NAVAL_UN@ DB 'MILITARYAISTRATE'
	DB	'GY_NEED_NAVAL_UNITS', 00H			; `string'
CONST	ENDS
;	COMDAT ??_C@_0CJ@ECLOIKB@MILITARYAISTRATEGY_ENOUGH_MILITA@
CONST	SEGMENT
??_C@_0CJ@ECLOIKB@MILITARYAISTRATEGY_ENOUGH_MILITA@ DB 'MILITARYAISTRATEG'
	DB	'Y_ENOUGH_MILITARY_UNITS', 00H		; `string'
CONST	ENDS
;	COMDAT ??_C@_0CL@CKCIKBIK@MILITARYAISTRATEGY_EMPIRE_DEFENS@
CONST	SEGMENT
??_C@_0CL@CKCIKBIK@MILITARYAISTRATEGY_EMPIRE_DEFENS@ DB 'MILITARYAISTRATE'
	DB	'GY_EMPIRE_DEFENSE_CRITICAL', 00H		; `string'
CONST	ENDS
;	COMDAT ??_C@_0CC@KNPAEDG@MILITARYAISTRATEGY_EMPIRE_DEFENS@
CONST	SEGMENT
??_C@_0CC@KNPAEDG@MILITARYAISTRATEGY_EMPIRE_DEFENS@ DB 'MILITARYAISTRATEG'
	DB	'Y_EMPIRE_DEFENSE', 00H			; `string'
CONST	ENDS
;	COMDAT ??_C@_0CE@MNJNOLKD@MILITARYAISTRATEGY_WAR_MOBILIZAT@
CONST	SEGMENT
??_C@_0CE@MNJNOLKD@MILITARYAISTRATEGY_WAR_MOBILIZAT@ DB 'MILITARYAISTRATE'
	DB	'GY_WAR_MOBILIZATION', 00H			; `string'
CONST	ENDS
;	COMDAT ??_C@_0CE@HFBDFGBB@AICITYSTRATEGY_CAPITAL_UNDER_THR@
CONST	SEGMENT
??_C@_0CE@HFBDFGBB@AICITYSTRATEGY_CAPITAL_UNDER_THR@ DB 'AICITYSTRATEGY_C'
	DB	'APITAL_UNDER_THREAT', 00H			; `string'
CONST	ENDS
;	COMDAT ??_C@_0P@ELMNBNJP@FLAVOR_OFFENSE?$AA@
CONST	SEGMENT
??_C@_0P@ELMNBNJP@FLAVOR_OFFENSE?$AA@ DB 'FLAVOR_OFFENSE', 00H ; `string'
; Function compile flags: /Odtp
; File d:\sources\lekmod_git\checkout\lekmod_dll\cvgamecoredll_expansion2\cvcityspecializationai.cpp
CONST	ENDS
;	COMDAT ?WeightProductionSubtypes@CvCitySpecializationAI@@AAEHHH@Z
_TEXT	SEGMENT
tv265 = -296						; size = 4
tv346 = -292						; size = 4
_this$ = -288						; size = 4
_weightedElem$230977 = -244				; size = 8
$T230939 = -236						; size = 4
_weightedElem$230935 = -200				; size = 8
_weightedElem$230901 = -184				; size = 8
_weightedElem$230883 = -168				; size = 8
_weightedElem$230862 = -152				; size = 8
$T230841 = -144						; size = 4
$T230835 = -140						; size = 4
$T230826 = -136						; size = 4
$T230819 = -132						; size = 4
$T230815 = -128						; size = 4
$T230811 = -124						; size = 4
$T230807 = -120						; size = 4
$T230803 = -116						; size = 4
$T230799 = -112						; size = 4
$T230795 = -108						; size = 4
$T230791 = -104						; size = 4
$T230787 = -100						; size = 4
$T230783 = -96						; size = 4
$T230779 = -92						; size = 4
$T230775 = -88						; size = 4
$T230771 = -84						; size = 4
$T230770 = -80						; size = 4
$T230769 = -76						; size = 4
$T230768 = -72						; size = 4
$T230767 = -68						; size = 4
$T230766 = -64						; size = 4
_grandStrategy$225337 = -60				; size = 4
_iGrandStrategyLoop$225333 = -56			; size = 4
_pCapital$ = -52					; size = 4
_iSpaceshipWeight$ = -48				; size = 4
_iMilitaryTrainingWeight$ = -44				; size = 4
_iEmergencyUnitWeight$ = -40				; size = 4
_iFlavorOffense$ = -36					; size = 4
_iUnitsRequested$ = -32					; size = 4
_bCriticalDefenseOn$ = -25				; size = 1
_eCityStrategy$ = -24					; size = 4
_iWonderFlavorWeight$ = -20				; size = 4
_eStrategy$ = -16					; size = 4
_iWonderWeight$ = -12					; size = 4
_iWeightOfWonders$ = -8					; size = 4
_iSeaWeight$ = -4					; size = 4
_iFlavorWonder$ = 8					; size = 4
_iFlavorSpaceship$ = 12					; size = 4
?WeightProductionSubtypes@CvCitySpecializationAI@@AAEHHH@Z PROC ; CvCitySpecializationAI::WeightProductionSubtypes, COMDAT
; _this$ = ecx

; 534  : {

	push	ebp
	mov	ebp, esp
	sub	esp, 296				; 00000128H
	mov	DWORD PTR _this$[ebp], ecx

; 535  : 	bool bCriticalDefenseOn = false;

	mov	BYTE PTR _bCriticalDefenseOn$[ebp], 0

; 536  : 
; 537  : 	int iMilitaryTrainingWeight = 0;

	mov	DWORD PTR _iMilitaryTrainingWeight$[ebp], 0

; 538  : 	int iEmergencyUnitWeight = 0;

	mov	DWORD PTR _iEmergencyUnitWeight$[ebp], 0

; 539  : 	int iSeaWeight = 0;

	mov	DWORD PTR _iSeaWeight$[ebp], 0

; 540  : 	int iWonderWeight = 0;

	mov	DWORD PTR _iWonderWeight$[ebp], 0

; 541  : 	int iSpaceshipWeight = 0;

	mov	DWORD PTR _iSpaceshipWeight$[ebp], 0

; 542  : 
; 543  : 	int iFlavorOffense = 0;

	mov	DWORD PTR _iFlavorOffense$[ebp], 0

; 544  : 	iFlavorOffense = m_pPlayer->GetGrandStrategyAI()->GetPersonalityAndGrandStrategy((FlavorTypes)GC.getInfoTypeForString("FLAVOR_OFFENSE"));

	push	0
	push	OFFSET ??_C@_0P@ELMNBNJP@FLAVOR_OFFENSE?$AA@
	mov	ecx, OFFSET ?gGlobals@@3VCvGlobals@@A	; gGlobals
	call	?getInfoTypeForString@CvGlobals@@QBEHPBD_N@Z ; CvGlobals::getInfoTypeForString
	push	eax
	mov	eax, DWORD PTR _this$[ebp]
	mov	ecx, DWORD PTR [eax]
	call	?GetGrandStrategyAI@CvPlayer@@QBEPAVCvGrandStrategyAI@@XZ ; CvPlayer::GetGrandStrategyAI
	mov	ecx, eax
	call	?GetPersonalityAndGrandStrategy@CvGrandStrategyAI@@QAEHW4FlavorTypes@@@Z ; CvGrandStrategyAI::GetPersonalityAndGrandStrategy
	mov	DWORD PTR _iFlavorOffense$[ebp], eax

; 545  : 
; 546  : 	int iUnitsRequested = m_pPlayer->GetNumUnitsNeededToBeBuilt();

	mov	ecx, DWORD PTR _this$[ebp]
	mov	edx, DWORD PTR [ecx]
	mov	eax, DWORD PTR _this$[ebp]
	mov	ecx, DWORD PTR [eax]
	mov	edx, DWORD PTR [edx]
	mov	eax, DWORD PTR [edx+88]
	call	eax
	mov	DWORD PTR _iUnitsRequested$[ebp], eax

; 547  : 
; 548  : 	// LONG-TERM MILITARY BUILD-UP
; 549  : 	iMilitaryTrainingWeight += (iFlavorOffense * GC.getAI_CITY_SPECIALIZATION_PRODUCTION_TRAINING_PER_OFFENSE()) /* 10 */;

	mov	ecx, DWORD PTR ?gGlobals@@3VCvGlobals@@A+2280
	mov	DWORD PTR $T230775[ebp], ecx
	mov	edx, DWORD PTR _iFlavorOffense$[ebp]
	imul	edx, DWORD PTR $T230775[ebp]
	add	edx, DWORD PTR _iMilitaryTrainingWeight$[ebp]
	mov	DWORD PTR _iMilitaryTrainingWeight$[ebp], edx

; 550  : 	iMilitaryTrainingWeight += (m_pPlayer->GetDiplomacyAI()->GetPersonalityMajorCivApproachBias(MAJOR_CIV_APPROACH_WAR) * GC.getAI_CITY_SPECIALIZATION_PRODUCTION_TRAINING_PER_PERSONALITY() /* 10 */);

	mov	eax, DWORD PTR ?gGlobals@@3VCvGlobals@@A+2284
	mov	DWORD PTR $T230779[ebp], eax
	push	0
	mov	ecx, DWORD PTR _this$[ebp]
	mov	ecx, DWORD PTR [ecx]
	call	?GetDiplomacyAI@CvPlayer@@QBEPAVCvDiplomacyAI@@XZ ; CvPlayer::GetDiplomacyAI
	mov	ecx, eax
	call	?GetPersonalityMajorCivApproachBias@CvDiplomacyAI@@QBEHW4MajorCivApproachTypes@@@Z ; CvDiplomacyAI::GetPersonalityMajorCivApproachBias
	imul	eax, DWORD PTR $T230779[ebp]
	add	eax, DWORD PTR _iMilitaryTrainingWeight$[ebp]
	mov	DWORD PTR _iMilitaryTrainingWeight$[ebp], eax

; 551  : 
; 552  : 	// EMERGENCY UNITS
; 553  : 	iEmergencyUnitWeight += iUnitsRequested * GC.getAI_CITY_SPECIALIZATION_PRODUCTION_WEIGHT_OPERATIONAL_UNITS_REQUESTED() /* 10 */;

	mov	edx, DWORD PTR ?gGlobals@@3VCvGlobals@@A+2240
	mov	DWORD PTR $T230783[ebp], edx
	mov	eax, DWORD PTR _iUnitsRequested$[ebp]
	imul	eax, DWORD PTR $T230783[ebp]
	add	eax, DWORD PTR _iEmergencyUnitWeight$[ebp]
	mov	DWORD PTR _iEmergencyUnitWeight$[ebp], eax

; 554  : 	iEmergencyUnitWeight += m_pPlayer->GetMilitaryAI()->GetNumberCivsAtWarWith() * GC.getAI_CITY_SPECIALIZATION_PRODUCTION_WEIGHT_CIVS_AT_WAR_WITH() /* 100 */;

	mov	ecx, DWORD PTR ?gGlobals@@3VCvGlobals@@A+2244
	mov	DWORD PTR $T230787[ebp], ecx
	mov	edx, DWORD PTR _this$[ebp]
	mov	ecx, DWORD PTR [edx]
	call	?GetMilitaryAI@CvPlayer@@QBEPAVCvMilitaryAI@@XZ ; CvPlayer::GetMilitaryAI
	mov	ecx, eax
	call	?GetNumberCivsAtWarWith@CvMilitaryAI@@QBEHXZ ; CvMilitaryAI::GetNumberCivsAtWarWith
	imul	eax, DWORD PTR $T230787[ebp]
	add	eax, DWORD PTR _iEmergencyUnitWeight$[ebp]
	mov	DWORD PTR _iEmergencyUnitWeight$[ebp], eax

; 555  : 
; 556  : 	// Is our capital under threat?
; 557  : 	AICityStrategyTypes eCityStrategy = (AICityStrategyTypes) GC.getInfoTypeForString("AICITYSTRATEGY_CAPITAL_UNDER_THREAT");

	push	0
	push	OFFSET ??_C@_0CE@HFBDFGBB@AICITYSTRATEGY_CAPITAL_UNDER_THR@
	mov	ecx, OFFSET ?gGlobals@@3VCvGlobals@@A	; gGlobals
	call	?getInfoTypeForString@CvGlobals@@QBEHPBD_N@Z ; CvGlobals::getInfoTypeForString
	mov	DWORD PTR _eCityStrategy$[ebp], eax

; 558  : 	CvCity* pCapital;
; 559  : 	pCapital = m_pPlayer->getCapitalCity();

	mov	eax, DWORD PTR _this$[ebp]
	mov	ecx, DWORD PTR [eax]
	call	?getCapitalCity@CvPlayer@@QAEPAVCvCity@@XZ ; CvPlayer::getCapitalCity
	mov	DWORD PTR _pCapital$[ebp], eax

; 560  : 	if(pCapital && eCityStrategy != NO_AICITYSTRATEGY && pCapital->GetCityStrategyAI()->IsUsingCityStrategy(eCityStrategy))

	cmp	DWORD PTR _pCapital$[ebp], 0
	je	SHORT $LN19@WeightProd
	cmp	DWORD PTR _eCityStrategy$[ebp], -1
	je	SHORT $LN19@WeightProd
	mov	ecx, DWORD PTR _eCityStrategy$[ebp]
	push	ecx
	mov	ecx, DWORD PTR _pCapital$[ebp]
	call	?GetCityStrategyAI@CvCity@@QBEPAVCvCityStrategyAI@@XZ ; CvCity::GetCityStrategyAI
	mov	ecx, eax
	call	?IsUsingCityStrategy@CvCityStrategyAI@@QAE_NW4AICityStrategyTypes@@@Z ; CvCityStrategyAI::IsUsingCityStrategy
	movzx	edx, al
	test	edx, edx
	je	SHORT $LN19@WeightProd

; 561  : 	{
; 562  : 		iEmergencyUnitWeight += GC.getAI_CITY_SPECIALIZATION_PRODUCTION_WEIGHT_CAPITAL_THREAT() /* 50 */;

	mov	eax, DWORD PTR ?gGlobals@@3VCvGlobals@@A+2260
	mov	DWORD PTR $T230791[ebp], eax
	mov	ecx, DWORD PTR _iEmergencyUnitWeight$[ebp]
	add	ecx, DWORD PTR $T230791[ebp]
	mov	DWORD PTR _iEmergencyUnitWeight$[ebp], ecx
$LN19@WeightProd:

; 563  : 	}
; 564  : 
; 565  : 	// Add in weights depending on what the military AI is up to
; 566  : 	MilitaryAIStrategyTypes eStrategy = (MilitaryAIStrategyTypes) GC.getInfoTypeForString("MILITARYAISTRATEGY_WAR_MOBILIZATION");

	push	0
	push	OFFSET ??_C@_0CE@MNJNOLKD@MILITARYAISTRATEGY_WAR_MOBILIZAT@
	mov	ecx, OFFSET ?gGlobals@@3VCvGlobals@@A	; gGlobals
	call	?getInfoTypeForString@CvGlobals@@QBEHPBD_N@Z ; CvGlobals::getInfoTypeForString
	mov	DWORD PTR _eStrategy$[ebp], eax

; 567  : 	if(eStrategy != NO_MILITARYAISTRATEGY && m_pPlayer->GetMilitaryAI()->IsUsingStrategy(eStrategy))

	cmp	DWORD PTR _eStrategy$[ebp], -1
	je	SHORT $LN18@WeightProd
	mov	edx, DWORD PTR _eStrategy$[ebp]
	push	edx
	mov	eax, DWORD PTR _this$[ebp]
	mov	ecx, DWORD PTR [eax]
	call	?GetMilitaryAI@CvPlayer@@QBEPAVCvMilitaryAI@@XZ ; CvPlayer::GetMilitaryAI
	mov	ecx, eax
	call	?IsUsingStrategy@CvMilitaryAI@@QAE_NW4MilitaryAIStrategyTypes@@@Z ; CvMilitaryAI::IsUsingStrategy
	movzx	ecx, al
	test	ecx, ecx
	je	SHORT $LN18@WeightProd

; 568  : 	{
; 569  : 		iMilitaryTrainingWeight += GC.getAI_CITY_SPECIALIZATION_PRODUCTION_WEIGHT_WAR_MOBILIZATION() /* 150 */;

	mov	edx, DWORD PTR ?gGlobals@@3VCvGlobals@@A+2248
	mov	DWORD PTR $T230795[ebp], edx
	mov	eax, DWORD PTR _iMilitaryTrainingWeight$[ebp]
	add	eax, DWORD PTR $T230795[ebp]
	mov	DWORD PTR _iMilitaryTrainingWeight$[ebp], eax
$LN18@WeightProd:

; 570  : 	}
; 571  : 	eStrategy = (MilitaryAIStrategyTypes) GC.getInfoTypeForString("MILITARYAISTRATEGY_EMPIRE_DEFENSE");

	push	0
	push	OFFSET ??_C@_0CC@KNPAEDG@MILITARYAISTRATEGY_EMPIRE_DEFENS@
	mov	ecx, OFFSET ?gGlobals@@3VCvGlobals@@A	; gGlobals
	call	?getInfoTypeForString@CvGlobals@@QBEHPBD_N@Z ; CvGlobals::getInfoTypeForString
	mov	DWORD PTR _eStrategy$[ebp], eax

; 572  : 	if(eStrategy != NO_MILITARYAISTRATEGY && m_pPlayer->GetMilitaryAI()->IsUsingStrategy(eStrategy))

	cmp	DWORD PTR _eStrategy$[ebp], -1
	je	SHORT $LN17@WeightProd
	mov	ecx, DWORD PTR _eStrategy$[ebp]
	push	ecx
	mov	edx, DWORD PTR _this$[ebp]
	mov	ecx, DWORD PTR [edx]
	call	?GetMilitaryAI@CvPlayer@@QBEPAVCvMilitaryAI@@XZ ; CvPlayer::GetMilitaryAI
	mov	ecx, eax
	call	?IsUsingStrategy@CvMilitaryAI@@QAE_NW4MilitaryAIStrategyTypes@@@Z ; CvMilitaryAI::IsUsingStrategy
	movzx	eax, al
	test	eax, eax
	je	SHORT $LN17@WeightProd

; 573  : 	{
; 574  : 		iEmergencyUnitWeight += GC.getAI_CITY_SPECIALIZATION_PRODUCTION_WEIGHT_EMPIRE_DEFENSE() /* 150 */;

	mov	ecx, DWORD PTR ?gGlobals@@3VCvGlobals@@A+2252
	mov	DWORD PTR $T230799[ebp], ecx
	mov	edx, DWORD PTR _iEmergencyUnitWeight$[ebp]
	add	edx, DWORD PTR $T230799[ebp]
	mov	DWORD PTR _iEmergencyUnitWeight$[ebp], edx
$LN17@WeightProd:

; 575  : 	}
; 576  : 	eStrategy = (MilitaryAIStrategyTypes) GC.getInfoTypeForString("MILITARYAISTRATEGY_EMPIRE_DEFENSE_CRITICAL");

	push	0
	push	OFFSET ??_C@_0CL@CKCIKBIK@MILITARYAISTRATEGY_EMPIRE_DEFENS@
	mov	ecx, OFFSET ?gGlobals@@3VCvGlobals@@A	; gGlobals
	call	?getInfoTypeForString@CvGlobals@@QBEHPBD_N@Z ; CvGlobals::getInfoTypeForString
	mov	DWORD PTR _eStrategy$[ebp], eax

; 577  : 	if(eStrategy != NO_MILITARYAISTRATEGY && m_pPlayer->GetMilitaryAI()->IsUsingStrategy(eStrategy))

	cmp	DWORD PTR _eStrategy$[ebp], -1
	je	SHORT $LN16@WeightProd
	mov	eax, DWORD PTR _eStrategy$[ebp]
	push	eax
	mov	ecx, DWORD PTR _this$[ebp]
	mov	ecx, DWORD PTR [ecx]
	call	?GetMilitaryAI@CvPlayer@@QBEPAVCvMilitaryAI@@XZ ; CvPlayer::GetMilitaryAI
	mov	ecx, eax
	call	?IsUsingStrategy@CvMilitaryAI@@QAE_NW4MilitaryAIStrategyTypes@@@Z ; CvMilitaryAI::IsUsingStrategy
	movzx	edx, al
	test	edx, edx
	je	SHORT $LN16@WeightProd

; 578  : 	{
; 579  : 		bCriticalDefenseOn = true;

	mov	BYTE PTR _bCriticalDefenseOn$[ebp], 1

; 580  : 		iEmergencyUnitWeight += GC.getAI_CITY_SPECIALIZATION_PRODUCTION_WEIGHT_EMPIRE_DEFENSE_CRITICAL() /* 1000 */;

	mov	eax, DWORD PTR ?gGlobals@@3VCvGlobals@@A+2256
	mov	DWORD PTR $T230803[ebp], eax
	mov	ecx, DWORD PTR _iEmergencyUnitWeight$[ebp]
	add	ecx, DWORD PTR $T230803[ebp]
	mov	DWORD PTR _iEmergencyUnitWeight$[ebp], ecx
$LN16@WeightProd:

; 581  : 	}
; 582  : 
; 583  : 	// Override all this if have too many units!
; 584  : 	eStrategy = (MilitaryAIStrategyTypes) GC.getInfoTypeForString("MILITARYAISTRATEGY_ENOUGH_MILITARY_UNITS");

	push	0
	push	OFFSET ??_C@_0CJ@ECLOIKB@MILITARYAISTRATEGY_ENOUGH_MILITA@
	mov	ecx, OFFSET ?gGlobals@@3VCvGlobals@@A	; gGlobals
	call	?getInfoTypeForString@CvGlobals@@QBEHPBD_N@Z ; CvGlobals::getInfoTypeForString
	mov	DWORD PTR _eStrategy$[ebp], eax

; 585  : 	if(eStrategy != NO_MILITARYAISTRATEGY && m_pPlayer->GetMilitaryAI()->IsUsingStrategy(eStrategy))

	cmp	DWORD PTR _eStrategy$[ebp], -1
	je	SHORT $LN15@WeightProd
	mov	edx, DWORD PTR _eStrategy$[ebp]
	push	edx
	mov	eax, DWORD PTR _this$[ebp]
	mov	ecx, DWORD PTR [eax]
	call	?GetMilitaryAI@CvPlayer@@QBEPAVCvMilitaryAI@@XZ ; CvPlayer::GetMilitaryAI
	mov	ecx, eax
	call	?IsUsingStrategy@CvMilitaryAI@@QAE_NW4MilitaryAIStrategyTypes@@@Z ; CvMilitaryAI::IsUsingStrategy
	movzx	ecx, al
	test	ecx, ecx
	je	SHORT $LN15@WeightProd

; 586  : 	{
; 587  : 		iMilitaryTrainingWeight = 0;

	mov	DWORD PTR _iMilitaryTrainingWeight$[ebp], 0

; 588  : 		iEmergencyUnitWeight = 0;

	mov	DWORD PTR _iEmergencyUnitWeight$[ebp], 0
$LN15@WeightProd:

; 589  : 	}
; 590  : 
; 591  : 	eStrategy = (MilitaryAIStrategyTypes) GC.getInfoTypeForString("MILITARYAISTRATEGY_NEED_NAVAL_UNITS");

	push	0
	push	OFFSET ??_C@_0CE@CPIEOHHN@MILITARYAISTRATEGY_NEED_NAVAL_UN@
	mov	ecx, OFFSET ?gGlobals@@3VCvGlobals@@A	; gGlobals
	call	?getInfoTypeForString@CvGlobals@@QBEHPBD_N@Z ; CvGlobals::getInfoTypeForString
	mov	DWORD PTR _eStrategy$[ebp], eax

; 592  : 	if(eStrategy != NO_MILITARYAISTRATEGY && m_pPlayer->GetMilitaryAI()->IsUsingStrategy(eStrategy))

	cmp	DWORD PTR _eStrategy$[ebp], -1
	je	SHORT $LN14@WeightProd
	mov	edx, DWORD PTR _eStrategy$[ebp]
	push	edx
	mov	eax, DWORD PTR _this$[ebp]
	mov	ecx, DWORD PTR [eax]
	call	?GetMilitaryAI@CvPlayer@@QBEPAVCvMilitaryAI@@XZ ; CvPlayer::GetMilitaryAI
	mov	ecx, eax
	call	?IsUsingStrategy@CvMilitaryAI@@QAE_NW4MilitaryAIStrategyTypes@@@Z ; CvMilitaryAI::IsUsingStrategy
	movzx	ecx, al
	test	ecx, ecx
	je	SHORT $LN14@WeightProd

; 593  : 	{
; 594  : 		iSeaWeight += GC.getAI_CITY_SPECIALIZATION_PRODUCTION_WEIGHT_NEED_NAVAL_UNITS() /* 50 */;

	mov	edx, DWORD PTR ?gGlobals@@3VCvGlobals@@A+2264
	mov	DWORD PTR $T230807[ebp], edx
	mov	eax, DWORD PTR _iSeaWeight$[ebp]
	add	eax, DWORD PTR $T230807[ebp]
	mov	DWORD PTR _iSeaWeight$[ebp], eax
$LN14@WeightProd:

; 595  : 	}
; 596  : 	eStrategy = (MilitaryAIStrategyTypes) GC.getInfoTypeForString("MILITARYAISTRATEGY_NEED_NAVAL_UNITS_CRITICAL");

	push	0
	push	OFFSET ??_C@_0CN@NADDHBK@MILITARYAISTRATEGY_NEED_NAVAL_UN@
	mov	ecx, OFFSET ?gGlobals@@3VCvGlobals@@A	; gGlobals
	call	?getInfoTypeForString@CvGlobals@@QBEHPBD_N@Z ; CvGlobals::getInfoTypeForString
	mov	DWORD PTR _eStrategy$[ebp], eax

; 597  : 	if(eStrategy != NO_MILITARYAISTRATEGY && m_pPlayer->GetMilitaryAI()->IsUsingStrategy(eStrategy))

	cmp	DWORD PTR _eStrategy$[ebp], -1
	je	SHORT $LN13@WeightProd
	mov	ecx, DWORD PTR _eStrategy$[ebp]
	push	ecx
	mov	edx, DWORD PTR _this$[ebp]
	mov	ecx, DWORD PTR [edx]
	call	?GetMilitaryAI@CvPlayer@@QBEPAVCvMilitaryAI@@XZ ; CvPlayer::GetMilitaryAI
	mov	ecx, eax
	call	?IsUsingStrategy@CvMilitaryAI@@QAE_NW4MilitaryAIStrategyTypes@@@Z ; CvMilitaryAI::IsUsingStrategy
	movzx	eax, al
	test	eax, eax
	je	SHORT $LN13@WeightProd

; 598  : 	{
; 599  : 		iSeaWeight += GC.getAI_CITY_SPECIALIZATION_PRODUCTION_WEIGHT_NEED_NAVAL_UNITS_CRITICAL() /* 250 */;

	mov	ecx, DWORD PTR ?gGlobals@@3VCvGlobals@@A+2268
	mov	DWORD PTR $T230811[ebp], ecx
	mov	edx, DWORD PTR _iSeaWeight$[ebp]
	add	edx, DWORD PTR $T230811[ebp]
	mov	DWORD PTR _iSeaWeight$[ebp], edx
$LN13@WeightProd:

; 600  : 	}
; 601  : 	eStrategy = (MilitaryAIStrategyTypes) GC.getInfoTypeForString("MILITARYAISTRATEGY_ENOUGH_NAVAL_UNITS");

	push	0
	push	OFFSET ??_C@_0CG@NDHAKJJN@MILITARYAISTRATEGY_ENOUGH_NAVAL_@
	mov	ecx, OFFSET ?gGlobals@@3VCvGlobals@@A	; gGlobals
	call	?getInfoTypeForString@CvGlobals@@QBEHPBD_N@Z ; CvGlobals::getInfoTypeForString
	mov	DWORD PTR _eStrategy$[ebp], eax

; 602  : 	if(eStrategy != NO_MILITARYAISTRATEGY && m_pPlayer->GetMilitaryAI()->IsUsingStrategy(eStrategy))

	cmp	DWORD PTR _eStrategy$[ebp], -1
	je	SHORT $LN12@WeightProd
	mov	eax, DWORD PTR _eStrategy$[ebp]
	push	eax
	mov	ecx, DWORD PTR _this$[ebp]
	mov	ecx, DWORD PTR [ecx]
	call	?GetMilitaryAI@CvPlayer@@QBEPAVCvMilitaryAI@@XZ ; CvPlayer::GetMilitaryAI
	mov	ecx, eax
	call	?IsUsingStrategy@CvMilitaryAI@@QAE_NW4MilitaryAIStrategyTypes@@@Z ; CvMilitaryAI::IsUsingStrategy
	movzx	edx, al
	test	edx, edx
	je	SHORT $LN12@WeightProd

; 603  : 	{
; 604  : 		iSeaWeight = 0;

	mov	DWORD PTR _iSeaWeight$[ebp], 0
$LN12@WeightProd:

; 605  : 	}
; 606  : 
; 607  : 	// Wonder is MIN between weight of wonders available to build and value from flavors (but not less than zero)
; 608  : 	int iWonderFlavorWeight = iFlavorWonder * GC.getAI_CITY_SPECIALIZATION_PRODUCTION_WEIGHT_FLAVOR_WONDER() /* 200 */;

	mov	eax, DWORD PTR ?gGlobals@@3VCvGlobals@@A+2272
	mov	DWORD PTR $T230815[ebp], eax
	mov	ecx, DWORD PTR _iFlavorWonder$[ebp]
	imul	ecx, DWORD PTR $T230815[ebp]
	mov	DWORD PTR _iWonderFlavorWeight$[ebp], ecx

; 609  : 	int iWeightOfWonders = (int)(m_iNextWonderWeight * GC.getAI_CITY_SPECIALIZATION_PRODUCTION_WEIGHT_NEXT_WONDER()); /* 0.2 */

	movss	xmm0, DWORD PTR ?gGlobals@@3VCvGlobals@@A+8044
	movss	DWORD PTR $T230819[ebp], xmm0
	mov	edx, DWORD PTR _this$[ebp]
	cvtsi2ss xmm0, DWORD PTR [edx+204]
	mulss	xmm0, DWORD PTR $T230819[ebp]
	cvttss2si eax, xmm0
	mov	DWORD PTR _iWeightOfWonders$[ebp], eax

; 610  : 	iWonderWeight = min(iWonderFlavorWeight, iWeightOfWonders);

	mov	ecx, DWORD PTR _iWeightOfWonders$[ebp]
	cmp	ecx, DWORD PTR _iWonderFlavorWeight$[ebp]
	jge	SHORT $LN48@WeightProd
	lea	edx, DWORD PTR _iWeightOfWonders$[ebp]
	mov	DWORD PTR tv346[ebp], edx
	jmp	SHORT $LN49@WeightProd
$LN48@WeightProd:
	lea	eax, DWORD PTR _iWonderFlavorWeight$[ebp]
	mov	DWORD PTR tv346[ebp], eax
$LN49@WeightProd:
	mov	ecx, DWORD PTR tv346[ebp]
	mov	DWORD PTR $T230826[ebp], ecx
	mov	edx, DWORD PTR $T230826[ebp]
	mov	eax, DWORD PTR [edx]
	mov	DWORD PTR _iWonderWeight$[ebp], eax

; 611  : 	iWonderWeight = max(iWonderWeight, 0);

	mov	DWORD PTR $T230766[ebp], 0
	mov	ecx, DWORD PTR _iWonderWeight$[ebp]
	cmp	ecx, DWORD PTR $T230766[ebp]
	jge	SHORT $LN52@WeightProd
	lea	edx, DWORD PTR $T230766[ebp]
	mov	DWORD PTR tv265[ebp], edx
	jmp	SHORT $LN53@WeightProd
$LN52@WeightProd:
	lea	eax, DWORD PTR _iWonderWeight$[ebp]
	mov	DWORD PTR tv265[ebp], eax
$LN53@WeightProd:
	mov	ecx, DWORD PTR tv265[ebp]
	mov	DWORD PTR $T230835[ebp], ecx
	mov	edx, DWORD PTR $T230835[ebp]
	mov	eax, DWORD PTR [edx]
	mov	DWORD PTR _iWonderWeight$[ebp], eax

; 612  : 
; 613  : 	// One-half of normal weight if critical defense is on
; 614  : 	if(bCriticalDefenseOn)

	movzx	ecx, BYTE PTR _bCriticalDefenseOn$[ebp]
	test	ecx, ecx
	je	SHORT $LN11@WeightProd

; 615  : 	{
; 616  : 		iWonderWeight /= 2;

	mov	eax, DWORD PTR _iWonderWeight$[ebp]
	cdq
	sub	eax, edx
	sar	eax, 1
	mov	DWORD PTR _iWonderWeight$[ebp], eax
$LN11@WeightProd:

; 617  : 	}
; 618  : 
; 619  : 	if(CanBuildSpaceshipParts())

	mov	ecx, DWORD PTR _this$[ebp]
	call	?CanBuildSpaceshipParts@CvCitySpecializationAI@@AAE_NXZ ; CvCitySpecializationAI::CanBuildSpaceshipParts
	movzx	edx, al
	test	edx, edx
	je	SHORT $LN10@WeightProd

; 620  : 	{
; 621  : 		iSpaceshipWeight += iFlavorSpaceship * GC.getAI_CITY_SPECIALIZATION_PRODUCTION_WEIGHT_FLAVOR_SPACESHIP() /* 5 */;

	mov	eax, DWORD PTR ?gGlobals@@3VCvGlobals@@A+2276
	mov	DWORD PTR $T230841[ebp], eax
	mov	ecx, DWORD PTR _iFlavorSpaceship$[ebp]
	imul	ecx, DWORD PTR $T230841[ebp]
	add	ecx, DWORD PTR _iSpaceshipWeight$[ebp]
	mov	DWORD PTR _iSpaceshipWeight$[ebp], ecx
$LN10@WeightProd:

; 622  : 	}
; 623  : 
; 624  : #ifdef AUI_WARNING_FIXES
; 625  : 	for (uint iGrandStrategyLoop = 0; iGrandStrategyLoop < GC.getNumAIGrandStrategyInfos(); iGrandStrategyLoop++)
; 626  : #else
; 627  : 	for(int iGrandStrategyLoop = 0; iGrandStrategyLoop < GC.getNumAIGrandStrategyInfos(); iGrandStrategyLoop++)

	mov	DWORD PTR _iGrandStrategyLoop$225333[ebp], 0
	jmp	SHORT $LN9@WeightProd
$LN8@WeightProd:
	mov	edx, DWORD PTR _iGrandStrategyLoop$225333[ebp]
	add	edx, 1
	mov	DWORD PTR _iGrandStrategyLoop$225333[ebp], edx
$LN9@WeightProd:
	mov	ecx, OFFSET ?gGlobals@@3VCvGlobals@@A	; gGlobals
	call	?getNumAIGrandStrategyInfos@CvGlobals@@QAEHXZ ; CvGlobals::getNumAIGrandStrategyInfos
	cmp	DWORD PTR _iGrandStrategyLoop$225333[ebp], eax
	jge	$LN7@WeightProd

; 628  : #endif
; 629  : 	{
; 630  : 		CvAIGrandStrategyXMLEntry* grandStrategy = GC.getAIGrandStrategyInfo((AIGrandStrategyTypes)iGrandStrategyLoop);

	mov	eax, DWORD PTR _iGrandStrategyLoop$225333[ebp]
	push	eax
	mov	ecx, OFFSET ?gGlobals@@3VCvGlobals@@A	; gGlobals
	call	?getAIGrandStrategyInfo@CvGlobals@@QAEPAVCvAIGrandStrategyXMLEntry@@W4AIGrandStrategyTypes@@@Z ; CvGlobals::getAIGrandStrategyInfo
	mov	DWORD PTR _grandStrategy$225337[ebp], eax

; 631  : 		if(grandStrategy)

	cmp	DWORD PTR _grandStrategy$225337[ebp], 0
	je	$LN1@WeightProd

; 632  : 		{
; 633  : #ifdef AUI_WARNING_FIXES
; 634  : 			if (iGrandStrategyLoop == (uint)m_pPlayer->GetGrandStrategyAI()->GetActiveGrandStrategy())
; 635  : #else
; 636  : 			if(iGrandStrategyLoop == m_pPlayer->GetGrandStrategyAI()->GetActiveGrandStrategy())

	mov	ecx, DWORD PTR _this$[ebp]
	mov	ecx, DWORD PTR [ecx]
	call	?GetGrandStrategyAI@CvPlayer@@QBEPAVCvGrandStrategyAI@@XZ ; CvPlayer::GetGrandStrategyAI
	mov	ecx, eax
	call	?GetActiveGrandStrategy@CvGrandStrategyAI@@QBE?AW4AIGrandStrategyTypes@@XZ ; CvGrandStrategyAI::GetActiveGrandStrategy
	cmp	DWORD PTR _iGrandStrategyLoop$225333[ebp], eax
	jne	SHORT $LN1@WeightProd

; 637  : #endif
; 638  : 			{
; 639  : 				if(grandStrategy->GetSpecializationBoost(YIELD_PRODUCTION) > 0)

	push	1
	mov	ecx, DWORD PTR _grandStrategy$225337[ebp]
	call	?GetSpecializationBoost@CvAIGrandStrategyXMLEntry@@QBEHW4YieldTypes@@@Z ; CvAIGrandStrategyXMLEntry::GetSpecializationBoost
	test	eax, eax
	jle	SHORT $LN1@WeightProd

; 640  : 				{
; 641  : 					if(grandStrategy->GetFlavorValue((FlavorTypes)GC.getInfoTypeForString("FLAVOR_OFFENSE")) > 0)

	push	0
	push	OFFSET ??_C@_0P@ELMNBNJP@FLAVOR_OFFENSE?$AA@
	mov	ecx, OFFSET ?gGlobals@@3VCvGlobals@@A	; gGlobals
	call	?getInfoTypeForString@CvGlobals@@QBEHPBD_N@Z ; CvGlobals::getInfoTypeForString
	push	eax
	mov	ecx, DWORD PTR _grandStrategy$225337[ebp]
	call	?GetFlavorValue@CvAIGrandStrategyXMLEntry@@QBEHH@Z ; CvAIGrandStrategyXMLEntry::GetFlavorValue
	test	eax, eax
	jle	SHORT $LN3@WeightProd

; 642  : 					{
; 643  : 						iMilitaryTrainingWeight += grandStrategy->GetSpecializationBoost(YIELD_PRODUCTION);

	push	1
	mov	ecx, DWORD PTR _grandStrategy$225337[ebp]
	call	?GetSpecializationBoost@CvAIGrandStrategyXMLEntry@@QBEHW4YieldTypes@@@Z ; CvAIGrandStrategyXMLEntry::GetSpecializationBoost
	add	eax, DWORD PTR _iMilitaryTrainingWeight$[ebp]
	mov	DWORD PTR _iMilitaryTrainingWeight$[ebp], eax
	jmp	SHORT $LN1@WeightProd
$LN3@WeightProd:

; 644  : 					}
; 645  : 					else if(grandStrategy->GetFlavorValue((FlavorTypes)GC.getInfoTypeForString("FLAVOR_SPACESHIP")) > 0)

	push	0
	push	OFFSET ??_C@_0BB@EDNPBEHK@FLAVOR_SPACESHIP?$AA@
	mov	ecx, OFFSET ?gGlobals@@3VCvGlobals@@A	; gGlobals
	call	?getInfoTypeForString@CvGlobals@@QBEHPBD_N@Z ; CvGlobals::getInfoTypeForString
	push	eax
	mov	ecx, DWORD PTR _grandStrategy$225337[ebp]
	call	?GetFlavorValue@CvAIGrandStrategyXMLEntry@@QBEHH@Z ; CvAIGrandStrategyXMLEntry::GetFlavorValue
	test	eax, eax
	jle	SHORT $LN1@WeightProd

; 646  : 					{
; 647  : 						iSpaceshipWeight += grandStrategy->GetSpecializationBoost(YIELD_PRODUCTION);

	push	1
	mov	ecx, DWORD PTR _grandStrategy$225337[ebp]
	call	?GetSpecializationBoost@CvAIGrandStrategyXMLEntry@@QBEHW4YieldTypes@@@Z ; CvAIGrandStrategyXMLEntry::GetSpecializationBoost
	add	eax, DWORD PTR _iSpaceshipWeight$[ebp]
	mov	DWORD PTR _iSpaceshipWeight$[ebp], eax
$LN1@WeightProd:

; 648  : 					}
; 649  : 				}
; 650  : 			}
; 651  : 		}
; 652  : 	}

	jmp	$LN8@WeightProd
$LN7@WeightProd:

; 653  : 
; 654  : 	// Add weights to our weighted vector
; 655  : 	m_ProductionSubtypeWeights.push_back(PRODUCTION_SPECIALIZATION_MILITARY_TRAINING, iMilitaryTrainingWeight);

	mov	DWORD PTR $T230767[ebp], 0
	mov	DWORD PTR _weightedElem$230862[ebp], 0
	mov	DWORD PTR _weightedElem$230862[ebp+4], 0
	mov	edx, DWORD PTR $T230767[ebp]
	mov	DWORD PTR _weightedElem$230862[ebp], edx
	mov	eax, DWORD PTR _iMilitaryTrainingWeight$[ebp]
	mov	DWORD PTR _weightedElem$230862[ebp+4], eax
	lea	ecx, DWORD PTR _weightedElem$230862[ebp]
	push	ecx
	mov	ecx, DWORD PTR _this$[ebp]
	add	ecx, 120				; 00000078H
	call	?push_back@?$FStaticVector@UWeightedElement@?$CvWeightedVector@W4ProductionSpecializationSubtypes@@$03$00@@$03$00$0A@$0A@@@QAEIABUWeightedElement@?$CvWeightedVector@W4ProductionSpecializationSubtypes@@$03$00@@@Z ; FStaticVector<CvWeightedVector<enum ProductionSpecializationSubtypes,4,1>::WeightedElement,4,1,0,0>::push_back

; 656  : 	m_ProductionSubtypeWeights.push_back(PRODUCTION_SPECIALIZATION_EMERGENCY_UNITS, iEmergencyUnitWeight);

	mov	DWORD PTR $T230768[ebp], 1
	mov	DWORD PTR _weightedElem$230883[ebp], 0
	mov	DWORD PTR _weightedElem$230883[ebp+4], 0
	mov	edx, DWORD PTR $T230768[ebp]
	mov	DWORD PTR _weightedElem$230883[ebp], edx
	mov	eax, DWORD PTR _iEmergencyUnitWeight$[ebp]
	mov	DWORD PTR _weightedElem$230883[ebp+4], eax
	lea	ecx, DWORD PTR _weightedElem$230883[ebp]
	push	ecx
	mov	ecx, DWORD PTR _this$[ebp]
	add	ecx, 120				; 00000078H
	call	?push_back@?$FStaticVector@UWeightedElement@?$CvWeightedVector@W4ProductionSpecializationSubtypes@@$03$00@@$03$00$0A@$0A@@@QAEIABUWeightedElement@?$CvWeightedVector@W4ProductionSpecializationSubtypes@@$03$00@@@Z ; FStaticVector<CvWeightedVector<enum ProductionSpecializationSubtypes,4,1>::WeightedElement,4,1,0,0>::push_back

; 657  : 	m_ProductionSubtypeWeights.push_back(PRODUCTION_SPECIALIZATION_MILITARY_NAVAL, iSeaWeight);

	mov	DWORD PTR $T230769[ebp], 2
	mov	DWORD PTR _weightedElem$230901[ebp], 0
	mov	DWORD PTR _weightedElem$230901[ebp+4], 0
	mov	edx, DWORD PTR $T230769[ebp]
	mov	DWORD PTR _weightedElem$230901[ebp], edx
	mov	eax, DWORD PTR _iSeaWeight$[ebp]
	mov	DWORD PTR _weightedElem$230901[ebp+4], eax
	lea	ecx, DWORD PTR _weightedElem$230901[ebp]
	push	ecx
	mov	ecx, DWORD PTR _this$[ebp]
	add	ecx, 120				; 00000078H
	call	?push_back@?$FStaticVector@UWeightedElement@?$CvWeightedVector@W4ProductionSpecializationSubtypes@@$03$00@@$03$00$0A@$0A@@@QAEIABUWeightedElement@?$CvWeightedVector@W4ProductionSpecializationSubtypes@@$03$00@@@Z ; FStaticVector<CvWeightedVector<enum ProductionSpecializationSubtypes,4,1>::WeightedElement,4,1,0,0>::push_back

; 658  : 	m_ProductionSubtypeWeights.push_back(PRODUCTION_SPECIALIZATION_WONDER, iWonderWeight);

	mov	DWORD PTR $T230770[ebp], 3
	mov	edx, DWORD PTR _iWonderWeight$[ebp]
	mov	DWORD PTR $T230939[ebp], edx
	mov	DWORD PTR _weightedElem$230935[ebp], 0
	mov	DWORD PTR _weightedElem$230935[ebp+4], 0
	mov	eax, DWORD PTR $T230770[ebp]
	mov	DWORD PTR _weightedElem$230935[ebp], eax
	mov	ecx, DWORD PTR $T230939[ebp]
	mov	DWORD PTR _weightedElem$230935[ebp+4], ecx
	lea	edx, DWORD PTR _weightedElem$230935[ebp]
	push	edx
	mov	ecx, DWORD PTR _this$[ebp]
	add	ecx, 120				; 00000078H
	call	?push_back@?$FStaticVector@UWeightedElement@?$CvWeightedVector@W4ProductionSpecializationSubtypes@@$03$00@@$03$00$0A@$0A@@@QAEIABUWeightedElement@?$CvWeightedVector@W4ProductionSpecializationSubtypes@@$03$00@@@Z ; FStaticVector<CvWeightedVector<enum ProductionSpecializationSubtypes,4,1>::WeightedElement,4,1,0,0>::push_back

; 659  : 	m_ProductionSubtypeWeights.push_back(PRODUCTION_SPECIALIZATION_SPACESHIP, iSpaceshipWeight);

	mov	DWORD PTR $T230771[ebp], 4
	mov	DWORD PTR _weightedElem$230977[ebp], 0
	mov	DWORD PTR _weightedElem$230977[ebp+4], 0
	mov	eax, DWORD PTR $T230771[ebp]
	mov	DWORD PTR _weightedElem$230977[ebp], eax
	mov	ecx, DWORD PTR _iSpaceshipWeight$[ebp]
	mov	DWORD PTR _weightedElem$230977[ebp+4], ecx
	lea	edx, DWORD PTR _weightedElem$230977[ebp]
	push	edx
	mov	ecx, DWORD PTR _this$[ebp]
	add	ecx, 120				; 00000078H
	call	?push_back@?$FStaticVector@UWeightedElement@?$CvWeightedVector@W4ProductionSpecializationSubtypes@@$03$00@@$03$00$0A@$0A@@@QAEIABUWeightedElement@?$CvWeightedVector@W4ProductionSpecializationSubtypes@@$03$00@@@Z ; FStaticVector<CvWeightedVector<enum ProductionSpecializationSubtypes,4,1>::WeightedElement,4,1,0,0>::push_back

; 660  : 
; 661  : 	return iMilitaryTrainingWeight + iEmergencyUnitWeight + iSeaWeight + iWonderWeight + iSpaceshipWeight;

	mov	eax, DWORD PTR _iMilitaryTrainingWeight$[ebp]
	add	eax, DWORD PTR _iEmergencyUnitWeight$[ebp]
	add	eax, DWORD PTR _iSeaWeight$[ebp]
	add	eax, DWORD PTR _iWonderWeight$[ebp]
	add	eax, DWORD PTR _iSpaceshipWeight$[ebp]

; 662  : }

	mov	esp, ebp
	pop	ebp
	ret	8
?WeightProductionSubtypes@CvCitySpecializationAI@@AAEHHH@Z ENDP ; CvCitySpecializationAI::WeightProductionSubtypes
_TEXT	ENDS
PUBLIC	??1?$CvWeightedVector@H$03$00@@QAE@XZ		; CvWeightedVector<int,4,1>::~CvWeightedVector<int,4,1>
PUBLIC	??1?$_List_val@VCitySpecializationData@@V?$allocator@VCitySpecializationData@@@std@@@std@@QAE@XZ ; std::_List_val<CitySpecializationData,std::allocator<CitySpecializationData> >::~_List_val<CitySpecializationData,std::allocator<CitySpecializationData> >
PUBLIC	??1?$list@VCitySpecializationData@@V?$allocator@VCitySpecializationData@@@std@@@std@@QAE@XZ ; std::list<CitySpecializationData,std::allocator<CitySpecializationData> >::~list<CitySpecializationData,std::allocator<CitySpecializationData> >
PUBLIC	?erase@?$list@VCitySpecializationData@@V?$allocator@VCitySpecializationData@@@std@@@std@@QAE?AV?$_Iterator@$0A@@12@V?$_Const_iterator@$0A@@12@@Z ; std::list<CitySpecializationData,std::allocator<CitySpecializationData> >::erase
PUBLIC	??1?$FStaticVector@UWeightedElement@?$CvWeightedVector@H$03$00@@$03$00$0A@$0A@@@QAE@XZ ; FStaticVector<CvWeightedVector<int,4,1>::WeightedElement,4,1,0,0>::~FStaticVector<CvWeightedVector<int,4,1>::WeightedElement,4,1,0,0>
PUBLIC	?SortItems@?$CvWeightedVector@H$03$00@@QAEXXZ	; CvWeightedVector<int,4,1>::SortItems
PUBLIC	?push_back@?$FStaticVector@UWeightedElement@?$CvWeightedVector@H$03$00@@$03$00$0A@$0A@@@QAEIABUWeightedElement@?$CvWeightedVector@H$03$00@@@Z ; FStaticVector<CvWeightedVector<int,4,1>::WeightedElement,4,1,0,0>::push_back
PUBLIC	??0?$FStaticVector@UWeightedElement@?$CvWeightedVector@H$03$00@@$03$00$0A@$0A@@@QAE@XZ ; FStaticVector<CvWeightedVector<int,4,1>::WeightedElement,4,1,0,0>::FStaticVector<CvWeightedVector<int,4,1>::WeightedElement,4,1,0,0>
PUBLIC	?FindBestSites@CvCitySpecializationAI@@AAEXXZ	; CvCitySpecializationAI::FindBestSites
PUBLIC	?_Tidy@?$list@VCitySpecializationData@@V?$allocator@VCitySpecializationData@@@std@@@std@@IAEXXZ ; std::list<CitySpecializationData,std::allocator<CitySpecializationData> >::_Tidy
PUBLIC	?LogNextSpecialization@CvCitySpecializationAI@@AAEXW4CitySpecializationTypes@@@Z ; CvCitySpecializationAI::LogNextSpecialization
PUBLIC	?LogCity@CvCitySpecializationAI@@AAEXPAVCvCity@@VCitySpecializationData@@@Z ; CvCitySpecializationAI::LogCity
PUBLIC	?_Insert@?$list@VCitySpecializationData@@V?$allocator@VCitySpecializationData@@@std@@@std@@QAEXV?$_Const_iterator@$0A@@12@ABVCitySpecializationData@@@Z ; std::list<CitySpecializationData,std::allocator<CitySpecializationData> >::_Insert
PUBLIC	?AdjustValueBasedOnBuildings@CvCitySpecializationAI@@AAEHPAVCvCity@@W4YieldTypes@@H@Z ; CvCitySpecializationAI::AdjustValueBasedOnBuildings
PUBLIC	?PlotValueForSpecificYield@CvCitySpecializationAI@@AAEHPAVCvPlot@@W4YieldTypes@@@Z ; CvCitySpecializationAI::PlotValueForSpecificYield
PUBLIC	?PlotValueForScience@CvCitySpecializationAI@@AAEHPAVCvPlot@@@Z ; CvCitySpecializationAI::PlotValueForScience
PUBLIC	?erase@?$list@W4CitySpecializationTypes@@V?$allocator@W4CitySpecializationTypes@@@std@@@std@@QAE?AV?$_Iterator@$0A@@12@V?$_Const_iterator@$0A@@12@@Z ; std::list<enum CitySpecializationTypes,std::allocator<enum CitySpecializationTypes> >::erase
PUBLIC	??$_Find@V?$_Iterator@$0A@@?$list@W4CitySpecializationTypes@@V?$allocator@W4CitySpecializationTypes@@@std@@@std@@W4CitySpecializationTypes@@@std@@YA?AV?$_Iterator@$0A@@?$list@W4CitySpecializationTypes@@V?$allocator@W4CitySpecializationTypes@@@std@@@0@V120@0ABW4CitySpecializationTypes@@@Z ; std::_Find<std::list<enum CitySpecializationTypes,std::allocator<enum CitySpecializationTypes> >::_Iterator<0>,enum CitySpecializationTypes>
PUBLIC	?LogSpecializationAssignment@CvCitySpecializationAI@@AAEXPAVCvCity@@W4CitySpecializationTypes@@_N@Z ; CvCitySpecializationAI::LogSpecializationAssignment
PUBLIC	?GetEconomicDefaultSpecialization@CvCitySpecializationAI@@ABE?AW4CitySpecializationTypes@@XZ ; CvCitySpecializationAI::GetEconomicDefaultSpecialization
PUBLIC	?SelectSpecializations@CvCitySpecializationAI@@AAEXXZ ; CvCitySpecializationAI::SelectSpecializations
PUBLIC	?GetWonderSpecialization@CvCitySpecializationAI@@QBE?AW4CitySpecializationTypes@@XZ ; CvCitySpecializationAI::GetWonderSpecialization
PUBLIC	?clear@?$list@VCitySpecializationData@@V?$allocator@VCitySpecializationData@@@std@@@std@@QAEXXZ ; std::list<CitySpecializationData,std::allocator<CitySpecializationData> >::clear
PUBLIC	??0?$list@VCitySpecializationData@@V?$allocator@VCitySpecializationData@@@std@@@std@@QAE@XZ ; std::list<CitySpecializationData,std::allocator<CitySpecializationData> >::list<CitySpecializationData,std::allocator<CitySpecializationData> >
PUBLIC	__$ArrayPad$
EXTRN	?isCoastal@CvCity@@QBE_NH@Z:PROC		; CvCity::isCoastal
EXTRN	?getCitySpecializationInfo@CvGlobals@@QAEPAVCvCitySpecializationXMLEntry@@W4CitySpecializationTypes@@@Z:PROC ; CvGlobals::getCitySpecializationInfo
EXTRN	?plot@CvCity@@QBEPAVCvPlot@@XZ:PROC		; CvCity::plot
EXTRN	?SetSpecialization@CvCityStrategyAI@@QAE_NW4CitySpecializationTypes@@@Z:PROC ; CvCityStrategyAI::SetSpecialization
EXTRN	?IsPuppet@CvCity@@QBE_NXZ:PROC			; CvCity::IsPuppet
;	COMDAT xdata$x
; File c:\program files (x86)\microsoft visual studio 9.0\vc\include\xutility
xdata$x	SEGMENT
__unwindtable$?AssignSpecializations@CvCitySpecializationAI@@AAEXXZ DD 0ffffffffH
	DD	FLAT:__unwindfunclet$?AssignSpecializations@CvCitySpecializationAI@@AAEXXZ$0
	DD	0ffffffffH
	DD	FLAT:__unwindfunclet$?AssignSpecializations@CvCitySpecializationAI@@AAEXXZ$3
	DD	00H
	DD	FLAT:__unwindfunclet$?AssignSpecializations@CvCitySpecializationAI@@AAEXXZ$1
	DD	0ffffffffH
	DD	FLAT:__unwindfunclet$?AssignSpecializations@CvCitySpecializationAI@@AAEXXZ$11
__ehfuncinfo$?AssignSpecializations@CvCitySpecializationAI@@AAEXXZ DD 019930522H
	DD	04H
	DD	FLAT:__unwindtable$?AssignSpecializations@CvCitySpecializationAI@@AAEXXZ
	DD	2 DUP(00H)
	DD	2 DUP(00H)
	DD	00H
	DD	01H
; Function compile flags: /Odtp
; File d:\sources\lekmod_git\checkout\lekmod_dll\cvgamecoredll_expansion2\cvcityspecializationai.cpp
xdata$x	ENDS
;	COMDAT ?AssignSpecializations@CvCitySpecializationAI@@AAEXXZ
_TEXT	SEGMENT
_this$ = -808						; size = 4
$T232431 = -764						; size = 4
$T232422 = -760						; size = 4
$T232417 = -756						; size = 4
$T232384 = -752						; size = 4
$T232375 = -748						; size = 4
$T232304 = -728						; size = 4
$T232265 = -724						; size = 4
$T232211 = -720						; size = 4
$T232193 = -716						; size = 4
$T232184 = -712						; size = 4
$T232173 = -708						; size = 4
$T232119 = -704						; size = 4
$T232101 = -700						; size = 4
$T232092 = -696						; size = 4
$T231961 = -668						; size = 4
$T231943 = -664						; size = 4
$T231934 = -660						; size = 4
$T231917 = -656						; size = 4
_weightedElem$231897 = -644				; size = 8
$T231838 = -636						; size = 4
$T231820 = -632						; size = 4
$T231811 = -628						; size = 4
$T231732 = -608						; size = 4
$T231723 = -604						; size = 4
$T231674 = -600						; size = 4
$T231656 = -596						; size = 4
$T231647 = -592						; size = 4
$T231580 = -588						; size = 4
$T231571 = -584						; size = 4
$T231547 = -580						; size = 4
$T231556 = -576						; size = 4
$T231555 = -572						; size = 4
$T231534 = -568						; size = 4
$T231445 = -548						; size = 4
$T231435 = -544						; size = 4
$T231434 = -540						; size = 4
$T231432 = -536						; size = 4
$T231420 = -532						; size = 4
$T231411 = -528						; size = 4
$T231400 = -524						; size = 4
$T231390 = -520						; size = 4
$T231389 = -516						; size = 4
$T231305 = -496						; size = 4
$T231295 = -492						; size = 4
$T231294 = -488						; size = 4
$T231293 = -484						; size = 4
$T231280 = -480						; size = 4
$T231271 = -476						; size = 4
$T231260 = -472						; size = 4
$T231250 = -468						; size = 4
$T231249 = -464						; size = 4
$T231165 = -444						; size = 4
$T231155 = -440						; size = 4
$T231154 = -436						; size = 4
$T231153 = -432						; size = 4
$T231140 = -428						; size = 4
$T231131 = -424						; size = 4
$T231120 = -420						; size = 4
$T231110 = -416						; size = 4
$T231026 = -388						; size = 4
$T231025 = -384						; size = 4
$T231024 = -380						; size = 4
$T231023 = -376						; size = 4
$T231022 = -372						; size = 4
$T231021 = -368						; size = 4
$T231020 = -364						; size = 4
$T231019 = -360						; size = 4
$T231018 = -356						; size = 4
$T231017 = -352						; size = 4
$T231016 = -348						; size = 4
$T231015 = -344						; size = 4
$T231014 = -340						; size = 4
$T231013 = -336						; size = 4
$T231012 = -332						; size = 4
$T231011 = -328						; size = 4
$T231010 = -324						; size = 4
$T231009 = -320						; size = 4
$T231008 = -316						; size = 4
$T231007 = -312						; size = 4
$T231006 = -308						; size = 4
$T231005 = -304						; size = 4
$T231004 = -300						; size = 4
$T231003 = -296						; size = 4
$T231002 = -292						; size = 4
$T231001 = -288						; size = 4
$T231000 = -284						; size = 4
$T230999 = -280						; size = 4
$T230998 = -276						; size = 4
$T230997 = -272						; size = 4
$T230996 = -268						; size = 4
$T230995 = -264						; size = 4
$T230994 = -260						; size = 4
$T230993 = -256						; size = 4
$T230992 = -252						; size = 4
$T230991 = -248						; size = 4
$T230990 = -244						; size = 4
$T230989 = -240						; size = 4
$T230988 = -236						; size = 4
$T230987 = -232						; size = 4
$T230986 = -228						; size = 4
$T230985 = -224						; size = 4
_pCity$226225 = -220					; size = 4
_pCity$226221 = -216					; size = 4
_iCityValue$226210 = -212				; size = 4
_eYield$226199 = -208					; size = 4
_bCoastal$226200 = -201					; size = 1
_pkCitySpecializationEntry$226197 = -200		; size = 4
_iBestValue$226202 = -196				; size = 4
_eType$226196 = -192					; size = 4
_eYield$226186 = -188					; size = 4
_eType$226185 = -184					; size = 4
_eMostImprovedYield$226178 = -180			; size = 4
_iImprovementWithNewCity$226171 = -176			; size = 4
_bFoundIt$226174 = -169					; size = 1
_iBestDelta$226153 = -168				; size = 16
_iCurrentDelta$226152 = -152				; size = 4
_yieldImprovements$226167 = -148			; size = 48
__$ArrayPad$ = -100					; size = 4
_eType$226145 = -96					; size = 4
_bAllGeneral$ = -89					; size = 1
_eWonderSpecialiation$ = -88				; size = 4
_cityIter$ = -84					; size = 4
_cityData$ = -80					; size = 24
_citiesWithoutSpecialization$ = -56			; size = 12
_iterEnd$ = -44						; size = 4
_iI$ = -40						; size = 4
_cityIterEnd$ = -36					; size = 4
_eSpecialization$ = -32					; size = 4
_pLoopCity$ = -28					; size = 4
_it$ = -24						; size = 4
_bestCity$ = -20					; size = 4
_iLoop$ = -16						; size = 4
__$EHRec$ = -12						; size = 12
?AssignSpecializations@CvCitySpecializationAI@@AAEXXZ PROC ; CvCitySpecializationAI::AssignSpecializations, COMDAT
; _this$ = ecx

; 666  : {

	push	ebp
	mov	ebp, esp
	push	-1
	push	__ehhandler$?AssignSpecializations@CvCitySpecializationAI@@AAEXXZ
	mov	eax, DWORD PTR fs:0
	push	eax
	sub	esp, 796				; 0000031cH
	mov	eax, DWORD PTR ___security_cookie
	xor	eax, ebp
	mov	DWORD PTR __$ArrayPad$[ebp], eax
	push	eax
	lea	eax, DWORD PTR __$EHRec$[ebp]
	mov	DWORD PTR fs:0, eax
	mov	DWORD PTR _this$[ebp], ecx

; 667  : 	int iI;
; 668  : 	CitySpecializationTypes eSpecialization;
; 669  : 	CitySpecializationData cityData;
; 670  : 	list<CitySpecializationData> citiesWithoutSpecialization;

	lea	ecx, DWORD PTR _citiesWithoutSpecialization$[ebp]
	call	??0?$list@VCitySpecializationData@@V?$allocator@VCitySpecializationData@@@std@@@std@@QAE@XZ ; std::list<CitySpecializationData,std::allocator<CitySpecializationData> >::list<CitySpecializationData,std::allocator<CitySpecializationData> >
	mov	DWORD PTR __$EHRec$[ebp+8], 0

; 671  : 	list<CitySpecializationTypes>::iterator it;

	mov	DWORD PTR _it$[ebp], 0

; 672  : 	list<CitySpecializationTypes>::iterator iterEnd;

	mov	DWORD PTR _iterEnd$[ebp], 0

; 673  : 	list<CitySpecializationData>::iterator cityIter;

	mov	DWORD PTR _cityIter$[ebp], 0

; 674  : 	list<CitySpecializationData>::iterator cityIterEnd;

	mov	DWORD PTR _cityIterEnd$[ebp], 0

; 675  : 	list<CitySpecializationData>::iterator bestCity;

	mov	DWORD PTR _bestCity$[ebp], 0

; 676  : 
; 677  : 	m_eNextSpecializationDesired = NO_CITY_SPECIALIZATION;

	mov	eax, DWORD PTR _this$[ebp]
	mov	DWORD PTR [eax+12], -1

; 678  : 	citiesWithoutSpecialization.clear();

	lea	ecx, DWORD PTR _citiesWithoutSpecialization$[ebp]
	call	?clear@?$list@VCitySpecializationData@@V?$allocator@VCitySpecializationData@@@std@@@std@@QAEXXZ ; std::list<CitySpecializationData,std::allocator<CitySpecializationData> >::clear

; 679  : 
; 680  : 	CitySpecializationTypes eWonderSpecialiation = GetWonderSpecialization();

	mov	ecx, DWORD PTR _this$[ebp]
	call	?GetWonderSpecialization@CvCitySpecializationAI@@QBE?AW4CitySpecializationTypes@@XZ ; CvCitySpecializationAI::GetWonderSpecialization
	mov	DWORD PTR _eWonderSpecialiation$[ebp], eax

; 681  : 
; 682  : 	// Find specializations needed (including for the next city we build)
; 683  : 	SelectSpecializations();

	mov	ecx, DWORD PTR _this$[ebp]
	call	?SelectSpecializations@CvCitySpecializationAI@@AAEXXZ ; CvCitySpecializationAI::SelectSpecializations

; 684  : 
; 685  : 	// OBVIOUS ASSIGNMENTS: Loop through our cities making obvious assignments
; 686  : 	CvCity* pLoopCity;
; 687  : 	int iLoop;
; 688  : 	for(pLoopCity = m_pPlayer->firstCity(&iLoop); pLoopCity != NULL; pLoopCity = m_pPlayer->nextCity(&iLoop))

	push	0
	lea	ecx, DWORD PTR _iLoop$[ebp]
	push	ecx
	mov	edx, DWORD PTR _this$[ebp]
	mov	ecx, DWORD PTR [edx]
	call	?firstCity@CvPlayer@@QAEPAVCvCity@@PAH_N@Z ; CvPlayer::firstCity
	mov	DWORD PTR _pLoopCity$[ebp], eax
	jmp	SHORT $LN63@AssignSpec
$LN62@AssignSpec:
	push	0
	lea	eax, DWORD PTR _iLoop$[ebp]
	push	eax
	mov	ecx, DWORD PTR _this$[ebp]
	mov	ecx, DWORD PTR [ecx]
	call	?nextCity@CvPlayer@@QAEPAVCvCity@@PAH_N@Z ; CvPlayer::nextCity
	mov	DWORD PTR _pLoopCity$[ebp], eax
$LN63@AssignSpec:
	cmp	DWORD PTR _pLoopCity$[ebp], 0
	je	$LN315@AssignSpec

; 689  : 	{
; 690  : 		if(pLoopCity->IsPuppet())

	mov	ecx, DWORD PTR _pLoopCity$[ebp]
	call	?IsPuppet@CvCity@@QBE_NXZ		; CvCity::IsPuppet
	movzx	edx, al
	test	edx, edx
	je	SHORT $LN60@AssignSpec

; 691  : 		{
; 692  : 			pLoopCity->GetCityStrategyAI()->SetSpecialization(GetEconomicDefaultSpecialization());

	mov	ecx, DWORD PTR _this$[ebp]
	call	?GetEconomicDefaultSpecialization@CvCitySpecializationAI@@ABE?AW4CitySpecializationTypes@@XZ ; CvCitySpecializationAI::GetEconomicDefaultSpecialization
	push	eax
	mov	ecx, DWORD PTR _pLoopCity$[ebp]
	call	?GetCityStrategyAI@CvCity@@QBEPAVCvCityStrategyAI@@XZ ; CvCity::GetCityStrategyAI
	mov	ecx, eax
	call	?SetSpecialization@CvCityStrategyAI@@QAE_NW4CitySpecializationTypes@@@Z ; CvCityStrategyAI::SetSpecialization

; 693  : 			LogSpecializationAssignment(pLoopCity, GetEconomicDefaultSpecialization(), true);

	push	1
	mov	ecx, DWORD PTR _this$[ebp]
	call	?GetEconomicDefaultSpecialization@CvCitySpecializationAI@@ABE?AW4CitySpecializationTypes@@XZ ; CvCitySpecializationAI::GetEconomicDefaultSpecialization
	push	eax
	mov	eax, DWORD PTR _pLoopCity$[ebp]
	push	eax
	mov	ecx, DWORD PTR _this$[ebp]
	call	?LogSpecializationAssignment@CvCitySpecializationAI@@AAEXPAVCvCity@@W4CitySpecializationTypes@@_N@Z ; CvCitySpecializationAI::LogSpecializationAssignment

; 694  : 			continue;

	jmp	SHORT $LN62@AssignSpec
$LN60@AssignSpec:

; 695  : 		}
; 696  : 
; 697  : 		// If this is the city to build our current wonder in, mark all that
; 698  : 		if(m_bWonderChosen && pLoopCity->GetID() == m_iWonderCityID)

	mov	ecx, DWORD PTR _this$[ebp]
	movzx	edx, BYTE PTR [ecx+208]
	test	edx, edx
	je	$LN59@AssignSpec
	mov	eax, DWORD PTR _pLoopCity$[ebp]
	mov	ecx, DWORD PTR [eax+120]
	mov	DWORD PTR $T231110[ebp], ecx
	mov	edx, DWORD PTR _this$[ebp]
	mov	eax, DWORD PTR $T231110[ebp]
	cmp	eax, DWORD PTR [edx+200]
	jne	$LN59@AssignSpec

; 699  : 		{
; 700  : 			it = find(m_SpecializationsNeeded.begin(), m_SpecializationsNeeded.end(), eWonderSpecialiation);

	mov	ecx, DWORD PTR _this$[ebp]
	mov	edx, DWORD PTR [ecx+20]
	mov	DWORD PTR $T231120[ebp], edx
	mov	eax, DWORD PTR $T231120[ebp]
	mov	DWORD PTR $T230985[ebp], eax
	mov	ecx, DWORD PTR _this$[ebp]
	mov	edx, DWORD PTR [ecx+20]
	mov	DWORD PTR $T231131[ebp], edx
	mov	eax, DWORD PTR $T231131[ebp]
	mov	ecx, DWORD PTR [eax]
	mov	DWORD PTR $T231140[ebp], ecx
	mov	edx, DWORD PTR $T231140[ebp]
	mov	DWORD PTR $T230986[ebp], edx
	mov	eax, DWORD PTR $T230985[ebp]
	mov	DWORD PTR $T231155[ebp], eax
	mov	ecx, DWORD PTR $T230986[ebp]
	mov	DWORD PTR $T231154[ebp], ecx
	lea	edx, DWORD PTR _eWonderSpecialiation$[ebp]
	push	edx
	mov	eax, DWORD PTR $T231155[ebp]
	push	eax
	mov	ecx, DWORD PTR $T231154[ebp]
	push	ecx
	lea	edx, DWORD PTR $T231153[ebp]
	push	edx
	call	??$_Find@V?$_Iterator@$0A@@?$list@W4CitySpecializationTypes@@V?$allocator@W4CitySpecializationTypes@@@std@@@std@@W4CitySpecializationTypes@@@std@@YA?AV?$_Iterator@$0A@@?$list@W4CitySpecializationTypes@@V?$allocator@W4CitySpecializationTypes@@@std@@@0@V120@0ABW4CitySpecializationTypes@@@Z ; std::_Find<std::list<enum CitySpecializationTypes,std::allocator<enum CitySpecializationTypes> >::_Iterator<0>,enum CitySpecializationTypes>
	add	esp, 16					; 00000010H
	mov	eax, DWORD PTR [eax]
	mov	DWORD PTR $T231154[ebp], eax
	mov	ecx, DWORD PTR $T231154[ebp]
	mov	DWORD PTR $T230987[ebp], ecx
	mov	edx, DWORD PTR $T230987[ebp]
	mov	DWORD PTR _it$[ebp], edx

; 701  : 			if(it != m_SpecializationsNeeded.end())

	mov	eax, DWORD PTR _this$[ebp]
	mov	ecx, DWORD PTR [eax+20]
	mov	DWORD PTR $T231165[ebp], ecx
	mov	edx, DWORD PTR $T231165[ebp]
	mov	DWORD PTR $T230988[ebp], edx
	mov	eax, DWORD PTR _it$[ebp]
	xor	ecx, ecx
	cmp	eax, DWORD PTR $T230988[ebp]
	sete	cl
	movzx	edx, cl
	neg	edx
	sbb	edx, edx
	add	edx, 1
	movzx	eax, dl
	test	eax, eax
	je	SHORT $LN59@AssignSpec

; 702  : 			{
; 703  : 				m_SpecializationsNeeded.erase(it);

	mov	ecx, DWORD PTR _it$[ebp]
	mov	DWORD PTR $T230989[ebp], ecx
	mov	edx, DWORD PTR $T230989[ebp]
	push	edx
	lea	eax, DWORD PTR $T230990[ebp]
	push	eax
	mov	ecx, DWORD PTR _this$[ebp]
	add	ecx, 16					; 00000010H
	call	?erase@?$list@W4CitySpecializationTypes@@V?$allocator@W4CitySpecializationTypes@@@std@@@std@@QAE?AV?$_Iterator@$0A@@12@V?$_Const_iterator@$0A@@12@@Z ; std::list<enum CitySpecializationTypes,std::allocator<enum CitySpecializationTypes> >::erase

; 704  : 				pLoopCity->GetCityStrategyAI()->SetSpecialization(eWonderSpecialiation);

	mov	ecx, DWORD PTR _eWonderSpecialiation$[ebp]
	push	ecx
	mov	ecx, DWORD PTR _pLoopCity$[ebp]
	call	?GetCityStrategyAI@CvCity@@QBEPAVCvCityStrategyAI@@XZ ; CvCity::GetCityStrategyAI
	mov	ecx, eax
	call	?SetSpecialization@CvCityStrategyAI@@QAE_NW4CitySpecializationTypes@@@Z ; CvCityStrategyAI::SetSpecialization

; 705  : 				LogSpecializationAssignment(pLoopCity, eWonderSpecialiation, true);

	push	1
	mov	edx, DWORD PTR _eWonderSpecialiation$[ebp]
	push	edx
	mov	eax, DWORD PTR _pLoopCity$[ebp]
	push	eax
	mov	ecx, DWORD PTR _this$[ebp]
	call	?LogSpecializationAssignment@CvCitySpecializationAI@@AAEXPAVCvCity@@W4CitySpecializationTypes@@_N@Z ; CvCitySpecializationAI::LogSpecializationAssignment

; 706  : 				continue;

	jmp	$LN62@AssignSpec
$LN59@AssignSpec:

; 707  : 			}
; 708  : 		}
; 709  : 
; 710  : 		// If city default is equal to a needed type, go with that
; 711  : 		eSpecialization = pLoopCity->GetCityStrategyAI()->GetDefaultSpecialization();

	mov	ecx, DWORD PTR _pLoopCity$[ebp]
	call	?GetCityStrategyAI@CvCity@@QBEPAVCvCityStrategyAI@@XZ ; CvCity::GetCityStrategyAI
	mov	DWORD PTR $T231249[ebp], eax
	mov	ecx, DWORD PTR $T231249[ebp]
	mov	edx, DWORD PTR [ecx+24]
	mov	DWORD PTR $T231250[ebp], edx
	mov	eax, DWORD PTR $T231250[ebp]
	mov	DWORD PTR _eSpecialization$[ebp], eax

; 712  : 		it = find(m_SpecializationsNeeded.begin(), m_SpecializationsNeeded.end(), eSpecialization);

	mov	ecx, DWORD PTR _this$[ebp]
	mov	edx, DWORD PTR [ecx+20]
	mov	DWORD PTR $T231260[ebp], edx
	mov	eax, DWORD PTR $T231260[ebp]
	mov	DWORD PTR $T230991[ebp], eax
	mov	ecx, DWORD PTR _this$[ebp]
	mov	edx, DWORD PTR [ecx+20]
	mov	DWORD PTR $T231271[ebp], edx
	mov	eax, DWORD PTR $T231271[ebp]
	mov	ecx, DWORD PTR [eax]
	mov	DWORD PTR $T231280[ebp], ecx
	mov	edx, DWORD PTR $T231280[ebp]
	mov	DWORD PTR $T230992[ebp], edx
	mov	eax, DWORD PTR $T230991[ebp]
	mov	DWORD PTR $T231295[ebp], eax
	mov	ecx, DWORD PTR $T230992[ebp]
	mov	DWORD PTR $T231294[ebp], ecx
	lea	edx, DWORD PTR _eSpecialization$[ebp]
	push	edx
	mov	eax, DWORD PTR $T231295[ebp]
	push	eax
	mov	ecx, DWORD PTR $T231294[ebp]
	push	ecx
	lea	edx, DWORD PTR $T231293[ebp]
	push	edx
	call	??$_Find@V?$_Iterator@$0A@@?$list@W4CitySpecializationTypes@@V?$allocator@W4CitySpecializationTypes@@@std@@@std@@W4CitySpecializationTypes@@@std@@YA?AV?$_Iterator@$0A@@?$list@W4CitySpecializationTypes@@V?$allocator@W4CitySpecializationTypes@@@std@@@0@V120@0ABW4CitySpecializationTypes@@@Z ; std::_Find<std::list<enum CitySpecializationTypes,std::allocator<enum CitySpecializationTypes> >::_Iterator<0>,enum CitySpecializationTypes>
	add	esp, 16					; 00000010H
	mov	eax, DWORD PTR [eax]
	mov	DWORD PTR $T231294[ebp], eax
	mov	ecx, DWORD PTR $T231294[ebp]
	mov	DWORD PTR $T230993[ebp], ecx
	mov	edx, DWORD PTR $T230993[ebp]
	mov	DWORD PTR _it$[ebp], edx

; 713  : 		if(it != m_SpecializationsNeeded.end())

	mov	eax, DWORD PTR _this$[ebp]
	mov	ecx, DWORD PTR [eax+20]
	mov	DWORD PTR $T231305[ebp], ecx
	mov	edx, DWORD PTR $T231305[ebp]
	mov	DWORD PTR $T230994[ebp], edx
	mov	eax, DWORD PTR _it$[ebp]
	xor	ecx, ecx
	cmp	eax, DWORD PTR $T230994[ebp]
	sete	cl
	movzx	edx, cl
	neg	edx
	sbb	edx, edx
	add	edx, 1
	movzx	eax, dl
	test	eax, eax
	je	SHORT $LN57@AssignSpec

; 714  : 		{
; 715  : 			m_SpecializationsNeeded.erase(it);

	mov	ecx, DWORD PTR _it$[ebp]
	mov	DWORD PTR $T230995[ebp], ecx
	mov	edx, DWORD PTR $T230995[ebp]
	push	edx
	lea	eax, DWORD PTR $T230996[ebp]
	push	eax
	mov	ecx, DWORD PTR _this$[ebp]
	add	ecx, 16					; 00000010H
	call	?erase@?$list@W4CitySpecializationTypes@@V?$allocator@W4CitySpecializationTypes@@@std@@@std@@QAE?AV?$_Iterator@$0A@@12@V?$_Const_iterator@$0A@@12@@Z ; std::list<enum CitySpecializationTypes,std::allocator<enum CitySpecializationTypes> >::erase

; 716  : 			pLoopCity->GetCityStrategyAI()->SetSpecialization(eSpecialization);

	mov	ecx, DWORD PTR _eSpecialization$[ebp]
	push	ecx
	mov	ecx, DWORD PTR _pLoopCity$[ebp]
	call	?GetCityStrategyAI@CvCity@@QBEPAVCvCityStrategyAI@@XZ ; CvCity::GetCityStrategyAI
	mov	ecx, eax
	call	?SetSpecialization@CvCityStrategyAI@@QAE_NW4CitySpecializationTypes@@@Z ; CvCityStrategyAI::SetSpecialization

; 717  : 			LogSpecializationAssignment(pLoopCity, eSpecialization);

	push	0
	mov	edx, DWORD PTR _eSpecialization$[ebp]
	push	edx
	mov	eax, DWORD PTR _pLoopCity$[ebp]
	push	eax
	mov	ecx, DWORD PTR _this$[ebp]
	call	?LogSpecializationAssignment@CvCitySpecializationAI@@AAEXPAVCvCity@@W4CitySpecializationTypes@@_N@Z ; CvCitySpecializationAI::LogSpecializationAssignment

; 718  : 		}
; 719  : 		else

	jmp	$LN56@AssignSpec
$LN57@AssignSpec:

; 720  : 		{
; 721  : 			// If cities' current specialization is needed, stick with that
; 722  : 			eSpecialization = pLoopCity->GetCityStrategyAI()->GetSpecialization();

	mov	ecx, DWORD PTR _pLoopCity$[ebp]
	call	?GetCityStrategyAI@CvCity@@QBEPAVCvCityStrategyAI@@XZ ; CvCity::GetCityStrategyAI
	mov	DWORD PTR $T231389[ebp], eax
	mov	ecx, DWORD PTR $T231389[ebp]
	mov	edx, DWORD PTR [ecx+20]
	mov	DWORD PTR $T231390[ebp], edx
	mov	eax, DWORD PTR $T231390[ebp]
	mov	DWORD PTR _eSpecialization$[ebp], eax

; 723  : 			it = find(m_SpecializationsNeeded.begin(), m_SpecializationsNeeded.end(), eSpecialization);

	mov	ecx, DWORD PTR _this$[ebp]
	mov	edx, DWORD PTR [ecx+20]
	mov	DWORD PTR $T231400[ebp], edx
	mov	eax, DWORD PTR $T231400[ebp]
	mov	DWORD PTR $T230997[ebp], eax
	mov	ecx, DWORD PTR _this$[ebp]
	mov	edx, DWORD PTR [ecx+20]
	mov	DWORD PTR $T231411[ebp], edx
	mov	eax, DWORD PTR $T231411[ebp]
	mov	ecx, DWORD PTR [eax]
	mov	DWORD PTR $T231420[ebp], ecx
	mov	edx, DWORD PTR $T231420[ebp]
	mov	DWORD PTR $T230998[ebp], edx
	mov	eax, DWORD PTR $T230997[ebp]
	mov	DWORD PTR $T231435[ebp], eax
	mov	ecx, DWORD PTR $T230998[ebp]
	mov	DWORD PTR $T231434[ebp], ecx
	lea	edx, DWORD PTR _eSpecialization$[ebp]
	push	edx
	mov	eax, DWORD PTR $T231435[ebp]
	push	eax
	mov	ecx, DWORD PTR $T231434[ebp]
	push	ecx
	lea	edx, DWORD PTR $T231432[ebp]
	push	edx
	call	??$_Find@V?$_Iterator@$0A@@?$list@W4CitySpecializationTypes@@V?$allocator@W4CitySpecializationTypes@@@std@@@std@@W4CitySpecializationTypes@@@std@@YA?AV?$_Iterator@$0A@@?$list@W4CitySpecializationTypes@@V?$allocator@W4CitySpecializationTypes@@@std@@@0@V120@0ABW4CitySpecializationTypes@@@Z ; std::_Find<std::list<enum CitySpecializationTypes,std::allocator<enum CitySpecializationTypes> >::_Iterator<0>,enum CitySpecializationTypes>
	add	esp, 16					; 00000010H
	mov	eax, DWORD PTR [eax]
	mov	DWORD PTR $T231434[ebp], eax
	mov	ecx, DWORD PTR $T231434[ebp]
	mov	DWORD PTR $T230999[ebp], ecx
	mov	edx, DWORD PTR $T230999[ebp]
	mov	DWORD PTR _it$[ebp], edx

; 724  : 			if(it != m_SpecializationsNeeded.end())

	mov	eax, DWORD PTR _this$[ebp]
	mov	ecx, DWORD PTR [eax+20]
	mov	DWORD PTR $T231445[ebp], ecx
	mov	edx, DWORD PTR $T231445[ebp]
	mov	DWORD PTR $T231000[ebp], edx
	mov	eax, DWORD PTR _it$[ebp]
	xor	ecx, ecx
	cmp	eax, DWORD PTR $T231000[ebp]
	sete	cl
	movzx	edx, cl
	neg	edx
	sbb	edx, edx
	add	edx, 1
	movzx	eax, dl
	test	eax, eax
	je	SHORT $LN305@AssignSpec

; 725  : 			{
; 726  : 				m_SpecializationsNeeded.erase(it);

	mov	ecx, DWORD PTR _it$[ebp]
	mov	DWORD PTR $T231001[ebp], ecx
	mov	edx, DWORD PTR $T231001[ebp]
	push	edx
	lea	eax, DWORD PTR $T231002[ebp]
	push	eax
	mov	ecx, DWORD PTR _this$[ebp]
	add	ecx, 16					; 00000010H
	call	?erase@?$list@W4CitySpecializationTypes@@V?$allocator@W4CitySpecializationTypes@@@std@@@std@@QAE?AV?$_Iterator@$0A@@12@V?$_Const_iterator@$0A@@12@@Z ; std::list<enum CitySpecializationTypes,std::allocator<enum CitySpecializationTypes> >::erase

; 727  : 				pLoopCity->GetCityStrategyAI()->SetSpecialization(eSpecialization);

	mov	ecx, DWORD PTR _eSpecialization$[ebp]
	push	ecx
	mov	ecx, DWORD PTR _pLoopCity$[ebp]
	call	?GetCityStrategyAI@CvCity@@QBEPAVCvCityStrategyAI@@XZ ; CvCity::GetCityStrategyAI
	mov	ecx, eax
	call	?SetSpecialization@CvCityStrategyAI@@QAE_NW4CitySpecializationTypes@@@Z ; CvCityStrategyAI::SetSpecialization

; 728  : 				LogSpecializationAssignment(pLoopCity, eSpecialization);

	push	0
	mov	edx, DWORD PTR _eSpecialization$[ebp]
	push	edx
	mov	eax, DWORD PTR _pLoopCity$[ebp]
	push	eax
	mov	ecx, DWORD PTR _this$[ebp]
	call	?LogSpecializationAssignment@CvCitySpecializationAI@@AAEXPAVCvCity@@W4CitySpecializationTypes@@_N@Z ; CvCitySpecializationAI::LogSpecializationAssignment

; 729  : 			}
; 730  : 
; 731  : 			// Save this city off (with detailed data about what it is good at) to assign later
; 732  : 			else

	jmp	$LN56@AssignSpec

; 733  : 			{
; 734  : 				cityData.m_eID = pLoopCity->GetID();

$LN305@AssignSpec:
	mov	ecx, DWORD PTR _pLoopCity$[ebp]
	mov	edx, DWORD PTR [ecx+120]
	mov	DWORD PTR $T231534[ebp], edx
	mov	eax, DWORD PTR $T231534[ebp]
	mov	DWORD PTR _cityData$[ebp], eax

; 735  : 				for(iI = 0; iI <= YIELD_SCIENCE; iI++)

	mov	DWORD PTR _iI$[ebp], 0
	jmp	SHORT $LN53@AssignSpec
$LN52@AssignSpec:
	mov	ecx, DWORD PTR _iI$[ebp]
	add	ecx, 1
	mov	DWORD PTR _iI$[ebp], ecx
$LN53@AssignSpec:
	cmp	DWORD PTR _iI$[ebp], 3
	jg	SHORT $LN51@AssignSpec

; 736  : 				{
; 737  : 					if(iI == YIELD_SCIENCE)

	cmp	DWORD PTR _iI$[ebp], 3
	jne	SHORT $LN50@AssignSpec

; 738  : 					{
; 739  : 						cityData.m_iWeight[iI] = PlotValueForScience(pLoopCity->plot()); // -- BKW, looks like PlotValueForScience is making some assumptions that are no longer true

	mov	ecx, DWORD PTR _pLoopCity$[ebp]
	call	?plot@CvCity@@QBEPAVCvPlot@@XZ		; CvCity::plot
	push	eax
	mov	ecx, DWORD PTR _this$[ebp]
	call	?PlotValueForScience@CvCitySpecializationAI@@AAEHPAVCvPlot@@@Z ; CvCitySpecializationAI::PlotValueForScience
	mov	edx, DWORD PTR _iI$[ebp]
	mov	DWORD PTR _cityData$[ebp+edx*4+4], eax

; 740  : 					}
; 741  : 					else

	jmp	SHORT $LN49@AssignSpec
$LN50@AssignSpec:

; 742  : 					{
; 743  : 						cityData.m_iWeight[iI] = PlotValueForSpecificYield(pLoopCity->plot(), (YieldTypes)iI);

	mov	eax, DWORD PTR _iI$[ebp]
	push	eax
	mov	ecx, DWORD PTR _pLoopCity$[ebp]
	call	?plot@CvCity@@QBEPAVCvPlot@@XZ		; CvCity::plot
	push	eax
	mov	ecx, DWORD PTR _this$[ebp]
	call	?PlotValueForSpecificYield@CvCitySpecializationAI@@AAEHPAVCvPlot@@W4YieldTypes@@@Z ; CvCitySpecializationAI::PlotValueForSpecificYield
	mov	ecx, DWORD PTR _iI$[ebp]
	mov	DWORD PTR _cityData$[ebp+ecx*4+4], eax
$LN49@AssignSpec:

; 744  : 					}
; 745  : 					cityData.m_iWeight[iI] = AdjustValueBasedOnBuildings(pLoopCity, (YieldTypes)iI, cityData.m_iWeight[iI]);

	mov	edx, DWORD PTR _iI$[ebp]
	mov	eax, DWORD PTR _cityData$[ebp+edx*4+4]
	push	eax
	mov	ecx, DWORD PTR _iI$[ebp]
	push	ecx
	mov	edx, DWORD PTR _pLoopCity$[ebp]
	push	edx
	mov	ecx, DWORD PTR _this$[ebp]
	call	?AdjustValueBasedOnBuildings@CvCitySpecializationAI@@AAEHPAVCvCity@@W4YieldTypes@@H@Z ; CvCitySpecializationAI::AdjustValueBasedOnBuildings
	mov	ecx, DWORD PTR _iI$[ebp]
	mov	DWORD PTR _cityData$[ebp+ecx*4+4], eax

; 746  : 					if(cityData.m_iWeight[iI] < 0)

	mov	edx, DWORD PTR _iI$[ebp]
	cmp	DWORD PTR _cityData$[ebp+edx*4+4], 0
	jge	SHORT $LN48@AssignSpec

; 747  : 					{
; 748  : 						cityData.m_iWeight[iI] = 0;

	mov	eax, DWORD PTR _iI$[ebp]
	mov	DWORD PTR _cityData$[ebp+eax*4+4], 0
$LN48@AssignSpec:

; 749  : 					}
; 750  : 				}

	jmp	$LN52@AssignSpec
$LN51@AssignSpec:

; 751  : 				citiesWithoutSpecialization.push_back(cityData);

	mov	ecx, DWORD PTR _citiesWithoutSpecialization$[ebp+4]
	mov	DWORD PTR $T231547[ebp], ecx
	mov	edx, DWORD PTR $T231547[ebp]
	mov	DWORD PTR $T231556[ebp], edx
	mov	eax, DWORD PTR $T231556[ebp]
	mov	DWORD PTR $T231555[ebp], eax
	lea	ecx, DWORD PTR _cityData$[ebp]
	push	ecx
	mov	edx, DWORD PTR $T231555[ebp]
	push	edx
	lea	ecx, DWORD PTR _citiesWithoutSpecialization$[ebp]
	call	?_Insert@?$list@VCitySpecializationData@@V?$allocator@VCitySpecializationData@@@std@@@std@@QAEXV?$_Const_iterator@$0A@@12@ABVCitySpecializationData@@@Z ; std::list<CitySpecializationData,std::allocator<CitySpecializationData> >::_Insert

; 752  : 
; 753  : 				LogCity(pLoopCity, cityData);

	sub	esp, 24					; 00000018H
	mov	eax, esp
	mov	ecx, DWORD PTR _cityData$[ebp]
	mov	DWORD PTR [eax], ecx
	mov	edx, DWORD PTR _cityData$[ebp+4]
	mov	DWORD PTR [eax+4], edx
	mov	ecx, DWORD PTR _cityData$[ebp+8]
	mov	DWORD PTR [eax+8], ecx
	mov	edx, DWORD PTR _cityData$[ebp+12]
	mov	DWORD PTR [eax+12], edx
	mov	ecx, DWORD PTR _cityData$[ebp+16]
	mov	DWORD PTR [eax+16], ecx
	mov	edx, DWORD PTR _cityData$[ebp+20]
	mov	DWORD PTR [eax+20], edx
	mov	eax, DWORD PTR _pLoopCity$[ebp]
	push	eax
	mov	ecx, DWORD PTR _this$[ebp]
	call	?LogCity@CvCitySpecializationAI@@AAEXPAVCvCity@@VCitySpecializationData@@@Z ; CvCitySpecializationAI::LogCity
$LN56@AssignSpec:

; 754  : 
; 755  : 			}
; 756  : 		}
; 757  : 	}

	jmp	$LN62@AssignSpec

; 758  : 
; 759  : 	FAssert(citiesWithoutSpecialization.size() + 1 == m_SpecializationsNeeded.size());
; 760  : 
; 761  : 	// NEXT SPECIALIZATION NEEDED: Now figure out what we want to assign as our "next specialization needed"
; 762  : 
; 763  : 	// If only one specialization left, it's easy
; 764  : 	if(citiesWithoutSpecialization.empty())

$LN315@AssignSpec:
	xor	ecx, ecx
	cmp	DWORD PTR _citiesWithoutSpecialization$[ebp+8], 0
	sete	cl
	movzx	edx, cl
	test	edx, edx
	je	SHORT $LN47@AssignSpec

; 765  : 	{
; 766  : 		it = m_SpecializationsNeeded.begin();

	mov	eax, DWORD PTR _this$[ebp]
	mov	ecx, DWORD PTR [eax+20]
	mov	DWORD PTR $T231571[ebp], ecx
	mov	edx, DWORD PTR $T231571[ebp]
	mov	eax, DWORD PTR [edx]
	mov	DWORD PTR $T231580[ebp], eax
	mov	ecx, DWORD PTR $T231580[ebp]
	mov	DWORD PTR $T231003[ebp], ecx
	mov	edx, DWORD PTR $T231003[ebp]
	mov	DWORD PTR _it$[ebp], edx

; 767  : 		m_eNextSpecializationDesired = *it;

	mov	eax, DWORD PTR _this$[ebp]
	mov	ecx, DWORD PTR _it$[ebp]
	mov	edx, DWORD PTR [ecx+8]
	mov	DWORD PTR [eax+12], edx

; 768  : 		LogNextSpecialization(m_eNextSpecializationDesired);

	mov	eax, DWORD PTR _this$[ebp]
	mov	ecx, DWORD PTR [eax+12]
	push	ecx
	mov	ecx, DWORD PTR _this$[ebp]
	call	?LogNextSpecialization@CvCitySpecializationAI@@AAEXW4CitySpecializationTypes@@@Z ; CvCitySpecializationAI::LogNextSpecialization

; 769  : 		return;

	mov	DWORD PTR __$EHRec$[ebp+8], 1
	lea	ecx, DWORD PTR _citiesWithoutSpecialization$[ebp]
	call	?_Tidy@?$list@VCitySpecializationData@@V?$allocator@VCitySpecializationData@@@std@@@std@@IAEXXZ ; std::list<CitySpecializationData,std::allocator<CitySpecializationData> >::_Tidy
	mov	DWORD PTR __$EHRec$[ebp+8], -1
	jmp	$LN64@AssignSpec
$LN47@AssignSpec:

; 770  : 	}
; 771  : 
; 772  : 	// If all specializations left are "general economic", set that as next needed
; 773  : 	bool bAllGeneral = true;

	mov	BYTE PTR _bAllGeneral$[ebp], 1

; 774  : 	it = m_SpecializationsNeeded.begin();

	mov	edx, DWORD PTR _this$[ebp]
	mov	eax, DWORD PTR [edx+20]
	mov	DWORD PTR $T231647[ebp], eax
	mov	ecx, DWORD PTR $T231647[ebp]
	mov	edx, DWORD PTR [ecx]
	mov	DWORD PTR $T231656[ebp], edx
	mov	eax, DWORD PTR $T231656[ebp]
	mov	DWORD PTR $T231004[ebp], eax
	mov	ecx, DWORD PTR $T231004[ebp]
	mov	DWORD PTR _it$[ebp], ecx

; 775  : 	iterEnd = m_SpecializationsNeeded.end();

	mov	edx, DWORD PTR _this$[ebp]
	mov	eax, DWORD PTR [edx+20]
	mov	DWORD PTR $T231674[ebp], eax
	mov	ecx, DWORD PTR $T231674[ebp]
	mov	DWORD PTR $T231005[ebp], ecx
	mov	edx, DWORD PTR $T231005[ebp]
	mov	DWORD PTR _iterEnd$[ebp], edx

; 776  : 	for(; it != iterEnd; ++it)

	jmp	SHORT $LN365@AssignSpec
$LN363@AssignSpec:
	mov	eax, DWORD PTR _it$[ebp]
	mov	ecx, DWORD PTR [eax]
	mov	DWORD PTR _it$[ebp], ecx
$LN365@AssignSpec:
	mov	edx, DWORD PTR _it$[ebp]
	xor	eax, eax
	cmp	edx, DWORD PTR _iterEnd$[ebp]
	sete	al
	movzx	ecx, al
	neg	ecx
	sbb	ecx, ecx
	add	ecx, 1
	movzx	edx, cl
	test	edx, edx
	je	SHORT $LN44@AssignSpec

; 777  : 	{
; 778  : 		CitySpecializationTypes eType = *it;

	mov	eax, DWORD PTR _it$[ebp]
	mov	ecx, DWORD PTR [eax+8]
	mov	DWORD PTR _eType$226145[ebp], ecx

; 779  : 		if(eType != GetEconomicDefaultSpecialization())

	mov	ecx, DWORD PTR _this$[ebp]
	call	?GetEconomicDefaultSpecialization@CvCitySpecializationAI@@ABE?AW4CitySpecializationTypes@@XZ ; CvCitySpecializationAI::GetEconomicDefaultSpecialization
	cmp	DWORD PTR _eType$226145[ebp], eax
	je	SHORT $LN43@AssignSpec

; 780  : 		{
; 781  : 			bAllGeneral = false;

	mov	BYTE PTR _bAllGeneral$[ebp], 0
$LN43@AssignSpec:

; 782  : 		}
; 783  : 	}

	jmp	SHORT $LN363@AssignSpec
$LN44@AssignSpec:

; 784  : 
; 785  : 	if(bAllGeneral)

	movzx	edx, BYTE PTR _bAllGeneral$[ebp]
	test	edx, edx
	je	SHORT $LN42@AssignSpec

; 786  : 	{
; 787  : 		m_eNextSpecializationDesired = GetEconomicDefaultSpecialization();

	mov	ecx, DWORD PTR _this$[ebp]
	call	?GetEconomicDefaultSpecialization@CvCitySpecializationAI@@ABE?AW4CitySpecializationTypes@@XZ ; CvCitySpecializationAI::GetEconomicDefaultSpecialization
	mov	ecx, DWORD PTR _this$[ebp]
	mov	DWORD PTR [ecx+12], eax

; 788  : 		LogNextSpecialization(m_eNextSpecializationDesired);

	mov	edx, DWORD PTR _this$[ebp]
	mov	eax, DWORD PTR [edx+12]
	push	eax
	mov	ecx, DWORD PTR _this$[ebp]
	call	?LogNextSpecialization@CvCitySpecializationAI@@AAEXW4CitySpecializationTypes@@@Z ; CvCitySpecializationAI::LogNextSpecialization

; 789  : 		m_SpecializationsNeeded.erase(m_SpecializationsNeeded.begin());

	mov	ecx, DWORD PTR _this$[ebp]
	mov	edx, DWORD PTR [ecx+20]
	mov	DWORD PTR $T231723[ebp], edx
	mov	eax, DWORD PTR $T231723[ebp]
	mov	ecx, DWORD PTR [eax]
	mov	DWORD PTR $T231732[ebp], ecx
	mov	edx, DWORD PTR $T231732[ebp]
	mov	DWORD PTR $T231007[ebp], edx
	mov	eax, DWORD PTR $T231007[ebp]
	mov	DWORD PTR $T231006[ebp], eax
	mov	ecx, DWORD PTR $T231006[ebp]
	push	ecx
	lea	edx, DWORD PTR $T231008[ebp]
	push	edx
	mov	ecx, DWORD PTR _this$[ebp]
	add	ecx, 16					; 00000010H
	call	?erase@?$list@W4CitySpecializationTypes@@V?$allocator@W4CitySpecializationTypes@@@std@@@std@@QAE?AV?$_Iterator@$0A@@12@V?$_Const_iterator@$0A@@12@@Z ; std::list<enum CitySpecializationTypes,std::allocator<enum CitySpecializationTypes> >::erase

; 790  : 	}
; 791  : 
; 792  : 	else

	jmp	$LN41@AssignSpec
$LN42@AssignSpec:

; 793  : 	{
; 794  : 		// Find best possible sites for each of the yield types
; 795  : 		FindBestSites();

	mov	ecx, DWORD PTR _this$[ebp]
	call	?FindBestSites@CvCitySpecializationAI@@AAEXXZ ; CvCitySpecializationAI::FindBestSites

; 796  : 
; 797  : 		// Compute the yield which we can improve the most with a new city
; 798  : 		int iCurrentDelta;
; 799  : 		int iBestDelta[YIELD_SCIENCE + 1];
; 800  : 		for(iI = 0; iI <= YIELD_SCIENCE; iI++)

	mov	DWORD PTR _iI$[ebp], 0
	jmp	SHORT $LN40@AssignSpec
$LN39@AssignSpec:
	mov	eax, DWORD PTR _iI$[ebp]
	add	eax, 1
	mov	DWORD PTR _iI$[ebp], eax
$LN40@AssignSpec:
	cmp	DWORD PTR _iI$[ebp], 3
	jg	SHORT $LN38@AssignSpec

; 801  : 		{
; 802  : 			iBestDelta[iI] = MIN_INT;

	mov	ecx, DWORD PTR _iI$[ebp]
	mov	DWORD PTR _iBestDelta$226153[ebp+ecx*4], -2147483648 ; 80000000H

; 803  : 		}

	jmp	SHORT $LN39@AssignSpec
$LN38@AssignSpec:

; 804  : 		cityIter = citiesWithoutSpecialization.begin();

	mov	edx, DWORD PTR _citiesWithoutSpecialization$[ebp+4]
	mov	DWORD PTR $T231811[ebp], edx
	mov	eax, DWORD PTR $T231811[ebp]
	mov	ecx, DWORD PTR [eax]
	mov	DWORD PTR $T231820[ebp], ecx
	mov	edx, DWORD PTR $T231820[ebp]
	mov	DWORD PTR $T231009[ebp], edx
	mov	eax, DWORD PTR $T231009[ebp]
	mov	DWORD PTR _cityIter$[ebp], eax

; 805  : 		cityIterEnd = citiesWithoutSpecialization.end();

	mov	ecx, DWORD PTR _citiesWithoutSpecialization$[ebp+4]
	mov	DWORD PTR $T231838[ebp], ecx
	mov	edx, DWORD PTR $T231838[ebp]
	mov	DWORD PTR $T231010[ebp], edx
	mov	eax, DWORD PTR $T231010[ebp]
	mov	DWORD PTR _cityIterEnd$[ebp], eax

; 806  : 		for(; cityIter != cityIterEnd; ++cityIter)

	jmp	SHORT $LN438@AssignSpec
$LN436@AssignSpec:
	mov	ecx, DWORD PTR _cityIter$[ebp]
	mov	edx, DWORD PTR [ecx]
	mov	DWORD PTR _cityIter$[ebp], edx
$LN438@AssignSpec:
	mov	eax, DWORD PTR _cityIter$[ebp]
	xor	ecx, ecx
	cmp	eax, DWORD PTR _cityIterEnd$[ebp]
	sete	cl
	movzx	edx, cl
	neg	edx
	sbb	edx, edx
	add	edx, 1
	movzx	eax, dl
	test	eax, eax
	je	$LN35@AssignSpec

; 807  : 		{
; 808  : 			cityData = *cityIter;

	mov	ecx, DWORD PTR _cityIter$[ebp]
	add	ecx, 8
	mov	edx, DWORD PTR [ecx]
	mov	DWORD PTR _cityData$[ebp], edx
	mov	eax, DWORD PTR [ecx+4]
	mov	DWORD PTR _cityData$[ebp+4], eax
	mov	edx, DWORD PTR [ecx+8]
	mov	DWORD PTR _cityData$[ebp+8], edx
	mov	eax, DWORD PTR [ecx+12]
	mov	DWORD PTR _cityData$[ebp+12], eax
	mov	edx, DWORD PTR [ecx+16]
	mov	DWORD PTR _cityData$[ebp+16], edx
	mov	eax, DWORD PTR [ecx+20]
	mov	DWORD PTR _cityData$[ebp+20], eax

; 809  : 			for(iI = 0; iI <= YIELD_SCIENCE; iI++)

	mov	DWORD PTR _iI$[ebp], 0
	jmp	SHORT $LN34@AssignSpec
$LN33@AssignSpec:
	mov	ecx, DWORD PTR _iI$[ebp]
	add	ecx, 1
	mov	DWORD PTR _iI$[ebp], ecx
$LN34@AssignSpec:
	cmp	DWORD PTR _iI$[ebp], 3
	jg	SHORT $LN32@AssignSpec

; 810  : 			{
; 811  : 				iCurrentDelta = cityData.m_iWeight[iI] - m_iBestValue[iI];

	mov	edx, DWORD PTR _iI$[ebp]
	mov	eax, DWORD PTR _iI$[ebp]
	mov	ecx, DWORD PTR _this$[ebp]
	mov	edx, DWORD PTR _cityData$[ebp+edx*4+4]
	sub	edx, DWORD PTR [ecx+eax*4+28]
	mov	DWORD PTR _iCurrentDelta$226152[ebp], edx

; 812  : 				if(iCurrentDelta > iBestDelta[iI])

	mov	eax, DWORD PTR _iI$[ebp]
	mov	ecx, DWORD PTR _iCurrentDelta$226152[ebp]
	cmp	ecx, DWORD PTR _iBestDelta$226153[ebp+eax*4]
	jle	SHORT $LN31@AssignSpec

; 813  : 				{
; 814  : 					iBestDelta[iI] = iCurrentDelta;

	mov	edx, DWORD PTR _iI$[ebp]
	mov	eax, DWORD PTR _iCurrentDelta$226152[ebp]
	mov	DWORD PTR _iBestDelta$226153[ebp+edx*4], eax
$LN31@AssignSpec:

; 815  : 				}
; 816  : 			}

	jmp	SHORT $LN33@AssignSpec
$LN32@AssignSpec:

; 817  : 		}

	jmp	$LN436@AssignSpec
$LN35@AssignSpec:

; 818  : 
; 819  : 		// Save yield improvements in a vector we can sort
; 820  : 		CvWeightedVector<int, YIELD_SCIENCE+1, true> yieldImprovements;

	lea	ecx, DWORD PTR _yieldImprovements$226167[ebp]
	call	??0?$FStaticVector@UWeightedElement@?$CvWeightedVector@H$03$00@@$03$00$0A@$0A@@@QAE@XZ ; FStaticVector<CvWeightedVector<int,4,1>::WeightedElement,4,1,0,0>::FStaticVector<CvWeightedVector<int,4,1>::WeightedElement,4,1,0,0>
	mov	BYTE PTR __$EHRec$[ebp+8], 2

; 821  : 		for(iI = 0; iI <= YIELD_SCIENCE; iI++)

	mov	DWORD PTR _iI$[ebp], 0
	jmp	SHORT $LN30@AssignSpec
$LN29@AssignSpec:
	mov	ecx, DWORD PTR _iI$[ebp]
	add	ecx, 1
	mov	DWORD PTR _iI$[ebp], ecx
$LN30@AssignSpec:
	cmp	DWORD PTR _iI$[ebp], 3
	jg	SHORT $LN28@AssignSpec

; 822  : 		{
; 823  : 			int iImprovementWithNewCity;
; 824  : 			if(iBestDelta[iI] > 0)

	mov	edx, DWORD PTR _iI$[ebp]
	cmp	DWORD PTR _iBestDelta$226153[ebp+edx*4], 0
	jle	SHORT $LN27@AssignSpec

; 825  : 			{
; 826  : 				iImprovementWithNewCity = 0;

	mov	DWORD PTR _iImprovementWithNewCity$226171[ebp], 0

; 827  : 			}
; 828  : 			else

	jmp	SHORT $LN26@AssignSpec
$LN27@AssignSpec:

; 829  : 			{
; 830  : 				iImprovementWithNewCity = -iBestDelta[iI];

	mov	eax, DWORD PTR _iI$[ebp]
	mov	ecx, DWORD PTR _iBestDelta$226153[ebp+eax*4]
	neg	ecx
	mov	DWORD PTR _iImprovementWithNewCity$226171[ebp], ecx
$LN26@AssignSpec:

; 831  : 			}
; 832  : 			yieldImprovements.push_back(iI, iImprovementWithNewCity);

	mov	DWORD PTR _weightedElem$231897[ebp], 0
	mov	DWORD PTR _weightedElem$231897[ebp+4], 0
	mov	edx, DWORD PTR _iI$[ebp]
	mov	DWORD PTR _weightedElem$231897[ebp], edx
	mov	eax, DWORD PTR _iImprovementWithNewCity$226171[ebp]
	mov	DWORD PTR _weightedElem$231897[ebp+4], eax
	lea	ecx, DWORD PTR _weightedElem$231897[ebp]
	push	ecx
	lea	ecx, DWORD PTR _yieldImprovements$226167[ebp]
	call	?push_back@?$FStaticVector@UWeightedElement@?$CvWeightedVector@H$03$00@@$03$00$0A@$0A@@@QAEIABUWeightedElement@?$CvWeightedVector@H$03$00@@@Z ; FStaticVector<CvWeightedVector<int,4,1>::WeightedElement,4,1,0,0>::push_back

; 833  : 		}

	jmp	SHORT $LN29@AssignSpec
$LN28@AssignSpec:

; 834  : 		yieldImprovements.SortItems();

	lea	ecx, DWORD PTR _yieldImprovements$226167[ebp]
	call	?SortItems@?$CvWeightedVector@H$03$00@@QAEXXZ ; CvWeightedVector<int,4,1>::SortItems

; 835  : 
; 836  : 		// Take them out in order and see if we need this specialization
; 837  : 		bool bFoundIt = false;

	mov	BYTE PTR _bFoundIt$226174[ebp], 0

; 838  : 		for(iI = 0; iI < yieldImprovements.size(); iI++)

	mov	DWORD PTR _iI$[ebp], 0
	jmp	SHORT $LN25@AssignSpec
$LN24@AssignSpec:
	mov	edx, DWORD PTR _iI$[ebp]
	add	edx, 1
	mov	DWORD PTR _iI$[ebp], edx
$LN25@AssignSpec:
	mov	eax, DWORD PTR _yieldImprovements$226167[ebp+4]
	mov	DWORD PTR $T231917[ebp], eax
	mov	ecx, DWORD PTR _iI$[ebp]
	cmp	ecx, DWORD PTR $T231917[ebp]
	jge	$LN23@AssignSpec

; 839  : 		{
; 840  : 			YieldTypes eMostImprovedYield = (YieldTypes)yieldImprovements.GetElement(iI);

	mov	edx, DWORD PTR _iI$[ebp]
	mov	eax, DWORD PTR _yieldImprovements$226167[ebp]
	mov	ecx, DWORD PTR [eax+edx*8]
	mov	DWORD PTR _eMostImprovedYield$226178[ebp], ecx

; 841  : 
; 842  : 			// Loop through needed specializations until we find one that matches
; 843  : 			it = m_SpecializationsNeeded.begin();

	mov	edx, DWORD PTR _this$[ebp]
	mov	eax, DWORD PTR [edx+20]
	mov	DWORD PTR $T231934[ebp], eax
	mov	ecx, DWORD PTR $T231934[ebp]
	mov	edx, DWORD PTR [ecx]
	mov	DWORD PTR $T231943[ebp], edx
	mov	eax, DWORD PTR $T231943[ebp]
	mov	DWORD PTR $T231011[ebp], eax
	mov	ecx, DWORD PTR $T231011[ebp]
	mov	DWORD PTR _it$[ebp], ecx

; 844  : 			iterEnd = m_SpecializationsNeeded.end();

	mov	edx, DWORD PTR _this$[ebp]
	mov	eax, DWORD PTR [edx+20]
	mov	DWORD PTR $T231961[ebp], eax
	mov	ecx, DWORD PTR $T231961[ebp]
	mov	DWORD PTR $T231012[ebp], ecx
	mov	edx, DWORD PTR $T231012[ebp]
	mov	DWORD PTR _iterEnd$[ebp], edx

; 845  : 			for(; it != iterEnd; ++it)

	jmp	SHORT $LN496@AssignSpec
$LN494@AssignSpec:
	mov	eax, DWORD PTR _it$[ebp]
	mov	ecx, DWORD PTR [eax]
	mov	DWORD PTR _it$[ebp], ecx
$LN496@AssignSpec:
	mov	edx, DWORD PTR _it$[ebp]
	xor	eax, eax
	cmp	edx, DWORD PTR _iterEnd$[ebp]
	sete	al
	movzx	ecx, al
	neg	ecx
	sbb	ecx, ecx
	add	ecx, 1
	movzx	edx, cl
	test	edx, edx
	je	$LN20@AssignSpec

; 846  : 			{
; 847  : 				CitySpecializationTypes eType = *it;

	mov	eax, DWORD PTR _it$[ebp]
	mov	ecx, DWORD PTR [eax+8]
	mov	DWORD PTR _eType$226185[ebp], ecx

; 848  : 				YieldTypes eYield = GC.getCitySpecializationInfo(eType)->GetYieldType();

	mov	edx, DWORD PTR _eType$226185[ebp]
	push	edx
	mov	ecx, OFFSET ?gGlobals@@3VCvGlobals@@A	; gGlobals
	call	?getCitySpecializationInfo@CvGlobals@@QAEPAVCvCitySpecializationXMLEntry@@W4CitySpecializationTypes@@@Z ; CvGlobals::getCitySpecializationInfo
	mov	ecx, eax
	call	?GetYieldType@CvCitySpecializationXMLEntry@@QBE?AW4YieldTypes@@XZ ; CvCitySpecializationXMLEntry::GetYieldType
	mov	DWORD PTR _eYield$226186[ebp], eax

; 849  : 				if(eYield == eMostImprovedYield)

	mov	eax, DWORD PTR _eYield$226186[ebp]
	cmp	eax, DWORD PTR _eMostImprovedYield$226178[ebp]
	jne	SHORT $LN19@AssignSpec

; 850  : 				{
; 851  : 					m_eNextSpecializationDesired = eType;

	mov	ecx, DWORD PTR _this$[ebp]
	mov	edx, DWORD PTR _eType$226185[ebp]
	mov	DWORD PTR [ecx+12], edx

; 852  : 					LogNextSpecialization(m_eNextSpecializationDesired);

	mov	eax, DWORD PTR _this$[ebp]
	mov	ecx, DWORD PTR [eax+12]
	push	ecx
	mov	ecx, DWORD PTR _this$[ebp]
	call	?LogNextSpecialization@CvCitySpecializationAI@@AAEXW4CitySpecializationTypes@@@Z ; CvCitySpecializationAI::LogNextSpecialization

; 853  : 					m_SpecializationsNeeded.erase(it);

	mov	edx, DWORD PTR _it$[ebp]
	mov	DWORD PTR $T231013[ebp], edx
	mov	eax, DWORD PTR $T231013[ebp]
	push	eax
	lea	ecx, DWORD PTR $T231014[ebp]
	push	ecx
	mov	ecx, DWORD PTR _this$[ebp]
	add	ecx, 16					; 00000010H
	call	?erase@?$list@W4CitySpecializationTypes@@V?$allocator@W4CitySpecializationTypes@@@std@@@std@@QAE?AV?$_Iterator@$0A@@12@V?$_Const_iterator@$0A@@12@@Z ; std::list<enum CitySpecializationTypes,std::allocator<enum CitySpecializationTypes> >::erase

; 854  : 					bFoundIt = true;

	mov	BYTE PTR _bFoundIt$226174[ebp], 1

; 855  : 					break;

	jmp	SHORT $LN20@AssignSpec
$LN19@AssignSpec:

; 856  : 				}
; 857  : 			}

	jmp	$LN494@AssignSpec
$LN20@AssignSpec:

; 858  : 			if(bFoundIt)

	movzx	edx, BYTE PTR _bFoundIt$226174[ebp]
	test	edx, edx
	je	SHORT $LN18@AssignSpec

; 859  : 			{
; 860  : 				break;

	jmp	SHORT $LN23@AssignSpec
$LN18@AssignSpec:

; 861  : 			}
; 862  : 		}

	jmp	$LN24@AssignSpec
$LN23@AssignSpec:

; 863  : 	}

	mov	BYTE PTR __$EHRec$[ebp+8], 0
	lea	ecx, DWORD PTR _yieldImprovements$226167[ebp]
	call	??1?$FStaticVector@UWeightedElement@?$CvWeightedVector@H$03$00@@$03$00$0A@$0A@@@QAE@XZ ; FStaticVector<CvWeightedVector<int,4,1>::WeightedElement,4,1,0,0>::~FStaticVector<CvWeightedVector<int,4,1>::WeightedElement,4,1,0,0>
$LN41@AssignSpec:

; 864  : 
; 865  : 	FAssert(citiesWithoutSpecialization.size() == m_SpecializationsNeeded.size());
; 866  : 
; 867  : 	// REMAINING ASSIGNMENTS: Make the rest of the assignments
; 868  : 	it = m_SpecializationsNeeded.begin();

	mov	eax, DWORD PTR _this$[ebp]
	mov	ecx, DWORD PTR [eax+20]
	mov	DWORD PTR $T232092[ebp], ecx
	mov	edx, DWORD PTR $T232092[ebp]
	mov	eax, DWORD PTR [edx]
	mov	DWORD PTR $T232101[ebp], eax
	mov	ecx, DWORD PTR $T232101[ebp]
	mov	DWORD PTR $T231015[ebp], ecx
	mov	edx, DWORD PTR $T231015[ebp]
	mov	DWORD PTR _it$[ebp], edx

; 869  : 	iterEnd = m_SpecializationsNeeded.end();

	mov	eax, DWORD PTR _this$[ebp]
	mov	ecx, DWORD PTR [eax+20]
	mov	DWORD PTR $T232119[ebp], ecx
	mov	edx, DWORD PTR $T232119[ebp]
	mov	DWORD PTR $T231016[ebp], edx
	mov	eax, DWORD PTR $T231016[ebp]
	mov	DWORD PTR _iterEnd$[ebp], eax

; 870  : 	for(; it != iterEnd; ++it)

	jmp	SHORT $LN573@AssignSpec
$LN571@AssignSpec:
	mov	ecx, DWORD PTR _it$[ebp]
	mov	edx, DWORD PTR [ecx]
	mov	DWORD PTR _it$[ebp], edx
$LN573@AssignSpec:
	mov	eax, DWORD PTR _it$[ebp]
	xor	ecx, ecx
	cmp	eax, DWORD PTR _iterEnd$[ebp]
	sete	cl
	movzx	edx, cl
	neg	edx
	sbb	edx, edx
	add	edx, 1
	movzx	eax, dl
	test	eax, eax
	je	$LN15@AssignSpec

; 871  : 	{
; 872  : 		const CitySpecializationTypes eType = *it;

	mov	ecx, DWORD PTR _it$[ebp]
	mov	edx, DWORD PTR [ecx+8]
	mov	DWORD PTR _eType$226196[ebp], edx

; 873  : 		CvCitySpecializationXMLEntry* pkCitySpecializationEntry = GC.getCitySpecializationInfo(eType);

	mov	eax, DWORD PTR _eType$226196[ebp]
	push	eax
	mov	ecx, OFFSET ?gGlobals@@3VCvGlobals@@A	; gGlobals
	call	?getCitySpecializationInfo@CvGlobals@@QAEPAVCvCitySpecializationXMLEntry@@W4CitySpecializationTypes@@@Z ; CvGlobals::getCitySpecializationInfo
	mov	DWORD PTR _pkCitySpecializationEntry$226197[ebp], eax

; 874  : 		if(pkCitySpecializationEntry == NULL)

	cmp	DWORD PTR _pkCitySpecializationEntry$226197[ebp], 0
	jne	SHORT $LN14@AssignSpec

; 875  : 			continue;

	jmp	SHORT $LN571@AssignSpec
$LN14@AssignSpec:

; 876  : 
; 877  : 		YieldTypes eYield = pkCitySpecializationEntry->GetYieldType();

	mov	ecx, DWORD PTR _pkCitySpecializationEntry$226197[ebp]
	call	?GetYieldType@CvCitySpecializationXMLEntry@@QBE?AW4YieldTypes@@XZ ; CvCitySpecializationXMLEntry::GetYieldType
	mov	DWORD PTR _eYield$226199[ebp], eax

; 878  : 		bool bCoastal = pkCitySpecializationEntry->IsMustBeCoastal();

	mov	ecx, DWORD PTR _pkCitySpecializationEntry$226197[ebp]
	call	?IsMustBeCoastal@CvCitySpecializationXMLEntry@@QBE_NXZ ; CvCitySpecializationXMLEntry::IsMustBeCoastal
	mov	BYTE PTR _bCoastal$226200[ebp], al

; 879  : 		bestCity = citiesWithoutSpecialization.end();

	mov	ecx, DWORD PTR _citiesWithoutSpecialization$[ebp+4]
	mov	DWORD PTR $T232173[ebp], ecx
	mov	edx, DWORD PTR $T232173[ebp]
	mov	DWORD PTR $T231017[ebp], edx
	mov	eax, DWORD PTR $T231017[ebp]
	mov	DWORD PTR _bestCity$[ebp], eax

; 880  : 
; 881  : 		// Pick best existing city based on a better computation of existing city's value for a yield type
; 882  : 		int iBestValue = -1;

	mov	DWORD PTR _iBestValue$226202[ebp], -1

; 883  : 		cityIter = citiesWithoutSpecialization.begin();

	mov	ecx, DWORD PTR _citiesWithoutSpecialization$[ebp+4]
	mov	DWORD PTR $T232184[ebp], ecx
	mov	edx, DWORD PTR $T232184[ebp]
	mov	eax, DWORD PTR [edx]
	mov	DWORD PTR $T232193[ebp], eax
	mov	ecx, DWORD PTR $T232193[ebp]
	mov	DWORD PTR $T231018[ebp], ecx
	mov	edx, DWORD PTR $T231018[ebp]
	mov	DWORD PTR _cityIter$[ebp], edx

; 884  : 		cityIterEnd = citiesWithoutSpecialization.end();

	mov	eax, DWORD PTR _citiesWithoutSpecialization$[ebp+4]
	mov	DWORD PTR $T232211[ebp], eax
	mov	ecx, DWORD PTR $T232211[ebp]
	mov	DWORD PTR $T231019[ebp], ecx
	mov	edx, DWORD PTR $T231019[ebp]
	mov	DWORD PTR _cityIterEnd$[ebp], edx

; 885  : 		for(; cityIter != cityIterEnd; ++cityIter)

	jmp	SHORT $LN609@AssignSpec
$LN607@AssignSpec:
	mov	eax, DWORD PTR _cityIter$[ebp]
	mov	ecx, DWORD PTR [eax]
	mov	DWORD PTR _cityIter$[ebp], ecx
$LN609@AssignSpec:
	mov	edx, DWORD PTR _cityIter$[ebp]
	xor	eax, eax
	cmp	edx, DWORD PTR _cityIterEnd$[ebp]
	sete	al
	movzx	ecx, al
	neg	ecx
	sbb	ecx, ecx
	add	ecx, 1
	movzx	edx, cl
	test	edx, edx
	je	$LN11@AssignSpec

; 886  : 		{
; 887  : 			cityData = *cityIter;

	mov	eax, DWORD PTR _cityIter$[ebp]
	add	eax, 8
	mov	ecx, DWORD PTR [eax]
	mov	DWORD PTR _cityData$[ebp], ecx
	mov	edx, DWORD PTR [eax+4]
	mov	DWORD PTR _cityData$[ebp+4], edx
	mov	ecx, DWORD PTR [eax+8]
	mov	DWORD PTR _cityData$[ebp+8], ecx
	mov	edx, DWORD PTR [eax+12]
	mov	DWORD PTR _cityData$[ebp+12], edx
	mov	ecx, DWORD PTR [eax+16]
	mov	DWORD PTR _cityData$[ebp+16], ecx
	mov	edx, DWORD PTR [eax+20]
	mov	DWORD PTR _cityData$[ebp+20], edx

; 888  : 
; 889  : 			if(bCoastal && !m_pPlayer->getCity(cityData.m_eID)->isCoastal(100))

	movzx	eax, BYTE PTR _bCoastal$226200[ebp]
	test	eax, eax
	je	SHORT $LN10@AssignSpec
	push	100					; 00000064H
	mov	ecx, DWORD PTR _cityData$[ebp]
	push	ecx
	mov	edx, DWORD PTR _this$[ebp]
	mov	ecx, DWORD PTR [edx]
	call	?getCity@CvPlayer@@QAEPAVCvCity@@H@Z	; CvPlayer::getCity
	mov	ecx, eax
	call	?isCoastal@CvCity@@QBE_NH@Z		; CvCity::isCoastal
	movzx	eax, al
	test	eax, eax
	jne	SHORT $LN10@AssignSpec

; 890  : 			{
; 891  : 				continue;

	jmp	SHORT $LN607@AssignSpec
$LN10@AssignSpec:

; 892  : 			}
; 893  : 
; 894  : 			if(eYield == NO_YIELD)

	cmp	DWORD PTR _eYield$226199[ebp], -1
	jne	SHORT $LN9@AssignSpec

; 895  : 			{
; 896  : 				// General economic is all yields added together
; 897  : 				int iCityValue = 0;

	mov	DWORD PTR _iCityValue$226210[ebp], 0

; 898  : 				for(iI = 0; iI <= YIELD_SCIENCE; iI++)

	mov	DWORD PTR _iI$[ebp], 0
	jmp	SHORT $LN8@AssignSpec
$LN7@AssignSpec:
	mov	ecx, DWORD PTR _iI$[ebp]
	add	ecx, 1
	mov	DWORD PTR _iI$[ebp], ecx
$LN8@AssignSpec:
	cmp	DWORD PTR _iI$[ebp], 3
	jg	SHORT $LN6@AssignSpec

; 899  : 				{
; 900  : 					iCityValue += cityData.m_iWeight[iI];

	mov	edx, DWORD PTR _iI$[ebp]
	mov	eax, DWORD PTR _iCityValue$226210[ebp]
	add	eax, DWORD PTR _cityData$[ebp+edx*4+4]
	mov	DWORD PTR _iCityValue$226210[ebp], eax

; 901  : 				}

	jmp	SHORT $LN7@AssignSpec
$LN6@AssignSpec:

; 902  : 				if(iCityValue > iBestValue)

	mov	ecx, DWORD PTR _iCityValue$226210[ebp]
	cmp	ecx, DWORD PTR _iBestValue$226202[ebp]
	jle	SHORT $LN5@AssignSpec

; 903  : 				{
; 904  : 					iBestValue = iCityValue;

	mov	edx, DWORD PTR _iCityValue$226210[ebp]
	mov	DWORD PTR _iBestValue$226202[ebp], edx

; 905  : 					bestCity = cityIter;

	mov	eax, DWORD PTR _cityIter$[ebp]
	mov	DWORD PTR _bestCity$[ebp], eax
$LN5@AssignSpec:

; 906  : 				}
; 907  : 			}
; 908  : 			else

	jmp	SHORT $LN4@AssignSpec
$LN9@AssignSpec:

; 909  : 			{
; 910  : 				if(cityData.m_iWeight[(int)eYield] > iBestValue)

	mov	ecx, DWORD PTR _eYield$226199[ebp]
	mov	edx, DWORD PTR _cityData$[ebp+ecx*4+4]
	cmp	edx, DWORD PTR _iBestValue$226202[ebp]
	jle	SHORT $LN4@AssignSpec

; 911  : 				{
; 912  : 					iBestValue = cityData.m_iWeight[(int)eYield];

	mov	eax, DWORD PTR _eYield$226199[ebp]
	mov	ecx, DWORD PTR _cityData$[ebp+eax*4+4]
	mov	DWORD PTR _iBestValue$226202[ebp], ecx

; 913  : 					bestCity = cityIter;

	mov	edx, DWORD PTR _cityIter$[ebp]
	mov	DWORD PTR _bestCity$[ebp], edx
$LN4@AssignSpec:

; 914  : 				}
; 915  : 			}
; 916  : 		}

	jmp	$LN607@AssignSpec
$LN11@AssignSpec:

; 917  : 
; 918  : 		// Found a city to set
; 919  : 		if(bestCity != citiesWithoutSpecialization.end())

	mov	eax, DWORD PTR _citiesWithoutSpecialization$[ebp+4]
	mov	DWORD PTR $T232265[ebp], eax
	mov	ecx, DWORD PTR $T232265[ebp]
	mov	DWORD PTR $T231020[ebp], ecx
	mov	edx, DWORD PTR _bestCity$[ebp]
	xor	eax, eax
	cmp	edx, DWORD PTR $T231020[ebp]
	sete	al
	movzx	ecx, al
	neg	ecx
	sbb	ecx, ecx
	add	ecx, 1
	movzx	edx, cl
	test	edx, edx
	je	$LN2@AssignSpec

; 920  : 		{
; 921  : 			CvCity* pCity = m_pPlayer->getCity(bestCity->m_eID);

	mov	eax, DWORD PTR _bestCity$[ebp]
	add	eax, 8
	mov	DWORD PTR $T232304[ebp], eax
	mov	ecx, DWORD PTR $T232304[ebp]
	mov	edx, DWORD PTR [ecx]
	push	edx
	mov	eax, DWORD PTR _this$[ebp]
	mov	ecx, DWORD PTR [eax]
	call	?getCity@CvPlayer@@QAEPAVCvCity@@H@Z	; CvPlayer::getCity
	mov	DWORD PTR _pCity$226221[ebp], eax

; 922  : 			pCity->GetCityStrategyAI()->SetSpecialization(eType);

	mov	ecx, DWORD PTR _eType$226196[ebp]
	push	ecx
	mov	ecx, DWORD PTR _pCity$226221[ebp]
	call	?GetCityStrategyAI@CvCity@@QBEPAVCvCityStrategyAI@@XZ ; CvCity::GetCityStrategyAI
	mov	ecx, eax
	call	?SetSpecialization@CvCityStrategyAI@@QAE_NW4CitySpecializationTypes@@@Z ; CvCityStrategyAI::SetSpecialization

; 923  : 			LogSpecializationAssignment(pCity, eType);

	push	0
	mov	edx, DWORD PTR _eType$226196[ebp]
	push	edx
	mov	eax, DWORD PTR _pCity$226221[ebp]
	push	eax
	mov	ecx, DWORD PTR _this$[ebp]
	call	?LogSpecializationAssignment@CvCitySpecializationAI@@AAEXPAVCvCity@@W4CitySpecializationTypes@@_N@Z ; CvCitySpecializationAI::LogSpecializationAssignment

; 924  : 			citiesWithoutSpecialization.erase(bestCity);

	mov	ecx, DWORD PTR _bestCity$[ebp]
	mov	DWORD PTR $T231021[ebp], ecx
	mov	edx, DWORD PTR $T231021[ebp]
	push	edx
	lea	eax, DWORD PTR $T231022[ebp]
	push	eax
	lea	ecx, DWORD PTR _citiesWithoutSpecialization$[ebp]
	call	?erase@?$list@VCitySpecializationData@@V?$allocator@VCitySpecializationData@@@std@@@std@@QAE?AV?$_Iterator@$0A@@12@V?$_Const_iterator@$0A@@12@@Z ; std::list<CitySpecializationData,std::allocator<CitySpecializationData> >::erase

; 925  : 		}
; 926  : 
; 927  : 		// No (coastal) city found, use default specialization as last resort
; 928  : 		else

	jmp	$LN1@AssignSpec
$LN2@AssignSpec:

; 929  : 		{
; 930  : 			CvCity* pCity = m_pPlayer->getCity(citiesWithoutSpecialization.begin()->m_eID);

	mov	ecx, DWORD PTR _citiesWithoutSpecialization$[ebp+4]
	mov	DWORD PTR $T232375[ebp], ecx
	mov	edx, DWORD PTR $T232375[ebp]
	mov	eax, DWORD PTR [edx]
	mov	DWORD PTR $T232384[ebp], eax
	mov	ecx, DWORD PTR $T232384[ebp]
	mov	DWORD PTR $T231023[ebp], ecx
	mov	edx, DWORD PTR $T231023[ebp]
	add	edx, 8
	mov	DWORD PTR $T232417[ebp], edx
	mov	eax, DWORD PTR $T232417[ebp]
	mov	ecx, DWORD PTR [eax]
	push	ecx
	mov	edx, DWORD PTR _this$[ebp]
	mov	ecx, DWORD PTR [edx]
	call	?getCity@CvPlayer@@QAEPAVCvCity@@H@Z	; CvPlayer::getCity
	mov	DWORD PTR _pCity$226225[ebp], eax

; 931  : 			pCity->GetCityStrategyAI()->SetSpecialization(GetEconomicDefaultSpecialization());

	mov	ecx, DWORD PTR _this$[ebp]
	call	?GetEconomicDefaultSpecialization@CvCitySpecializationAI@@ABE?AW4CitySpecializationTypes@@XZ ; CvCitySpecializationAI::GetEconomicDefaultSpecialization
	push	eax
	mov	ecx, DWORD PTR _pCity$226225[ebp]
	call	?GetCityStrategyAI@CvCity@@QBEPAVCvCityStrategyAI@@XZ ; CvCity::GetCityStrategyAI
	mov	ecx, eax
	call	?SetSpecialization@CvCityStrategyAI@@QAE_NW4CitySpecializationTypes@@@Z ; CvCityStrategyAI::SetSpecialization

; 932  : 			LogSpecializationAssignment(pCity, GetEconomicDefaultSpecialization());

	push	0
	mov	ecx, DWORD PTR _this$[ebp]
	call	?GetEconomicDefaultSpecialization@CvCitySpecializationAI@@ABE?AW4CitySpecializationTypes@@XZ ; CvCitySpecializationAI::GetEconomicDefaultSpecialization
	push	eax
	mov	eax, DWORD PTR _pCity$226225[ebp]
	push	eax
	mov	ecx, DWORD PTR _this$[ebp]
	call	?LogSpecializationAssignment@CvCitySpecializationAI@@AAEXPAVCvCity@@W4CitySpecializationTypes@@_N@Z ; CvCitySpecializationAI::LogSpecializationAssignment

; 933  : 			citiesWithoutSpecialization.erase(citiesWithoutSpecialization.begin());

	mov	ecx, DWORD PTR _citiesWithoutSpecialization$[ebp+4]
	mov	DWORD PTR $T232422[ebp], ecx
	mov	edx, DWORD PTR $T232422[ebp]
	mov	eax, DWORD PTR [edx]
	mov	DWORD PTR $T232431[ebp], eax
	mov	ecx, DWORD PTR $T232431[ebp]
	mov	DWORD PTR $T231025[ebp], ecx
	mov	edx, DWORD PTR $T231025[ebp]
	mov	DWORD PTR $T231024[ebp], edx
	mov	eax, DWORD PTR $T231024[ebp]
	push	eax
	lea	ecx, DWORD PTR $T231026[ebp]
	push	ecx
	lea	ecx, DWORD PTR _citiesWithoutSpecialization$[ebp]
	call	?erase@?$list@VCitySpecializationData@@V?$allocator@VCitySpecializationData@@@std@@@std@@QAE?AV?$_Iterator@$0A@@12@V?$_Const_iterator@$0A@@12@@Z ; std::list<CitySpecializationData,std::allocator<CitySpecializationData> >::erase
$LN1@AssignSpec:

; 934  : 		}
; 935  : 	}

	jmp	$LN571@AssignSpec
$LN15@AssignSpec:

; 936  : 
; 937  : 	return;

	mov	DWORD PTR __$EHRec$[ebp+8], 3
	lea	ecx, DWORD PTR _citiesWithoutSpecialization$[ebp]
	call	?_Tidy@?$list@VCitySpecializationData@@V?$allocator@VCitySpecializationData@@@std@@@std@@IAEXXZ ; std::list<CitySpecializationData,std::allocator<CitySpecializationData> >::_Tidy
	mov	DWORD PTR __$EHRec$[ebp+8], -1
$LN64@AssignSpec:

; 938  : }

	mov	ecx, DWORD PTR __$EHRec$[ebp]
	mov	DWORD PTR fs:0, ecx
	pop	ecx
	mov	ecx, DWORD PTR __$ArrayPad$[ebp]
	xor	ecx, ebp
	call	@__security_check_cookie@4
	mov	esp, ebp
	pop	ebp
	ret	0
_TEXT	ENDS
;	COMDAT text$x
text$x	SEGMENT
__unwindfunclet$?AssignSpecializations@CvCitySpecializationAI@@AAEXXZ$0:
	lea	ecx, DWORD PTR _citiesWithoutSpecialization$[ebp]
	jmp	??1?$list@VCitySpecializationData@@V?$allocator@VCitySpecializationData@@@std@@@std@@QAE@XZ ; std::list<CitySpecializationData,std::allocator<CitySpecializationData> >::~list<CitySpecializationData,std::allocator<CitySpecializationData> >
__unwindfunclet$?AssignSpecializations@CvCitySpecializationAI@@AAEXXZ$3:
	lea	ecx, DWORD PTR _citiesWithoutSpecialization$[ebp]
	jmp	??1?$_List_val@VCitySpecializationData@@V?$allocator@VCitySpecializationData@@@std@@@std@@QAE@XZ
__unwindfunclet$?AssignSpecializations@CvCitySpecializationAI@@AAEXXZ$1:
	lea	ecx, DWORD PTR _yieldImprovements$226167[ebp]
	jmp	??1?$CvWeightedVector@H$03$00@@QAE@XZ	; CvWeightedVector<int,4,1>::~CvWeightedVector<int,4,1>
__unwindfunclet$?AssignSpecializations@CvCitySpecializationAI@@AAEXXZ$11:
	lea	ecx, DWORD PTR _citiesWithoutSpecialization$[ebp]
	jmp	??1?$_List_val@VCitySpecializationData@@V?$allocator@VCitySpecializationData@@@std@@@std@@QAE@XZ
__ehhandler$?AssignSpecializations@CvCitySpecializationAI@@AAEXXZ:
	mov	edx, DWORD PTR [esp+8]
	lea	eax, DWORD PTR [edx+12]
	mov	ecx, DWORD PTR [edx-800]
	xor	ecx, eax
	call	@__security_check_cookie@4
	mov	ecx, DWORD PTR [edx-88]
	xor	ecx, eax
	call	@__security_check_cookie@4
	mov	eax, OFFSET __ehfuncinfo$?AssignSpecializations@CvCitySpecializationAI@@AAEXXZ
	jmp	___CxxFrameHandler3
text$x	ENDS
?AssignSpecializations@CvCitySpecializationAI@@AAEXXZ ENDP ; CvCitySpecializationAI::AssignSpecializations
PUBLIC	?SelectProductionSpecialization@CvCitySpecializationAI@@AAE?AW4CitySpecializationTypes@@AAH@Z ; CvCitySpecializationAI::SelectProductionSpecialization
PUBLIC	??$_Sort@PAUWeightedElement@?$CvWeightedVector@W4YieldTypes@@$04$00@@H@std@@YAXPAUWeightedElement@?$CvWeightedVector@W4YieldTypes@@$04$00@@0H@Z ; std::_Sort<CvWeightedVector<enum YieldTypes,5,1>::WeightedElement *,int>
PUBLIC	?GetWonderSubtype@CvCitySpecializationAI@@ABEHXZ ; CvCitySpecializationAI::GetWonderSubtype
PUBLIC	?_Insert@?$list@W4CitySpecializationTypes@@V?$allocator@W4CitySpecializationTypes@@@std@@@std@@QAEXV?$_Const_iterator@$0A@@12@ABW4CitySpecializationTypes@@@Z ; std::list<enum CitySpecializationTypes,std::allocator<enum CitySpecializationTypes> >::_Insert
EXTRN	?GetGameCitySpecializations@CvGlobals@@QBEPAVCvCitySpecializationXMLEntries@@XZ:PROC ; CvGlobals::GetGameCitySpecializations
EXTRN	?IsWonder@CvWonderProductionAI@@QBE_NABVCvBuildingEntry@@@Z:PROC ; CvWonderProductionAI::IsWonder
EXTRN	?getBuildingInfo@CvGlobals@@QAEPAVCvBuildingEntry@@W4BuildingTypes@@@Z:PROC ; CvGlobals::getBuildingInfo
EXTRN	?getProductionBuilding@CvCity@@QBE?AW4BuildingTypes@@XZ:PROC ; CvCity::getProductionBuilding
EXTRN	?GetNumPuppetCities@CvPlayer@@QBEHXZ:PROC	; CvPlayer::GetNumPuppetCities
; Function compile flags: /Odtp
;	COMDAT ?SelectSpecializations@CvCitySpecializationAI@@AAEXXZ
_TEXT	SEGMENT
_this$ = -240						; size = 4
$T232858 = -236						; size = 4
$T232800 = -148						; size = 4
$T232850 = -144						; size = 4
$T232849 = -140						; size = 4
_elem$232779 = -136					; size = 8
_elem$232757 = -128					; size = 8
$T232735 = -120						; size = 4
$T232723 = -116						; size = 4
$T232719 = -112						; size = 4
$T232714 = -108						; size = 4
$T232710 = -104						; size = 4
$T232701 = -100						; size = 4
$T232692 = -96						; size = 4
_elem$232691 = -92					; size = 8
_elem$232677 = -84					; size = 8
$T232663 = -76						; size = 4
$T232646 = -72						; size = 4
$T232655 = -68						; size = 4
$T232654 = -64						; size = 4
$T232607 = -44						; size = 4
_eYield$226258 = -40					; size = 4
_iI$226244 = -36					; size = 4
_iI$226240 = -32					; size = 4
_iSpecializationsToAssign$ = -28			; size = 4
_iOldWeight$ = -24					; size = 4
_iNewWeight$ = -20					; size = 4
_iReductionAmount$ = -16				; size = 4
_pkProductionBuildingInfo$ = -12			; size = 4
_eSpecialization$ = -8					; size = 4
_pkWonderBuildCity$ = -4				; size = 4
?SelectSpecializations@CvCitySpecializationAI@@AAEXXZ PROC ; CvCitySpecializationAI::SelectSpecializations, COMDAT
; _this$ = ecx

; 942  : {

	push	ebp
	mov	ebp, esp
	sub	esp, 240				; 000000f0H
	push	esi
	mov	DWORD PTR _this$[ebp], ecx

; 943  : 	CitySpecializationTypes eSpecialization;
; 944  : 	unsigned int iSpecializationsToAssign = (unsigned int)m_pPlayer->getNumCities() - (unsigned int) m_pPlayer->GetNumPuppetCities() + 1;

	mov	eax, DWORD PTR _this$[ebp]
	mov	ecx, DWORD PTR [eax]
	call	?getNumCities@CvPlayer@@QBEHXZ		; CvPlayer::getNumCities
	mov	esi, eax
	mov	ecx, DWORD PTR _this$[ebp]
	mov	ecx, DWORD PTR [ecx]
	call	?GetNumPuppetCities@CvPlayer@@QBEHXZ	; CvPlayer::GetNumPuppetCities
	sub	esi, eax
	add	esi, 1
	mov	DWORD PTR _iSpecializationsToAssign$[ebp], esi

; 945  : 	int iOldWeight;
; 946  : 	int iNewWeight;
; 947  : 	int iReductionAmount;
; 948  : 
; 949  : 	m_SpecializationsNeeded.clear();

	mov	ecx, DWORD PTR _this$[ebp]
	add	ecx, 16					; 00000010H
	call	?clear@?$list@W4CitySpecializationTypes@@V?$allocator@W4CitySpecializationTypes@@@std@@@std@@QAEXXZ ; std::list<enum CitySpecializationTypes,std::allocator<enum CitySpecializationTypes> >::clear

; 950  : 	m_bWonderChosen = false;

	mov	edx, DWORD PTR _this$[ebp]
	mov	BYTE PTR [edx+208], 0

; 951  : 
; 952  : 	// Clear info about what we've picked
; 953  : 	for(int iI = 0; iI < NUM_SPECIALIZATION_YIELDS; iI++)

	mov	DWORD PTR _iI$226240[ebp], 0
	jmp	SHORT $LN15@SelectSpec
$LN14@SelectSpec:
	mov	eax, DWORD PTR _iI$226240[ebp]
	add	eax, 1
	mov	DWORD PTR _iI$226240[ebp], eax
$LN15@SelectSpec:
	cmp	DWORD PTR _iI$226240[ebp], 5
	jge	SHORT $LN13@SelectSpec

; 954  : 	{
; 955  : 		m_iNumSpecializationsForThisYield[iI] = 0;

	mov	ecx, DWORD PTR _iI$226240[ebp]
	mov	edx, DWORD PTR _this$[ebp]
	mov	DWORD PTR [edx+ecx*4+100], 0

; 956  : 	}

	jmp	SHORT $LN14@SelectSpec
$LN13@SelectSpec:

; 957  : 	for(int iI = 0; iI < NUM_PRODUCTION_SPECIALIZATION_SUBTYPES; iI++)

	mov	DWORD PTR _iI$226244[ebp], 0
	jmp	SHORT $LN12@SelectSpec
$LN11@SelectSpec:
	mov	eax, DWORD PTR _iI$226244[ebp]
	add	eax, 1
	mov	DWORD PTR _iI$226244[ebp], eax
$LN12@SelectSpec:
	cmp	DWORD PTR _iI$226244[ebp], 5
	jge	SHORT $LN10@SelectSpec

; 958  : 	{
; 959  : 		m_iNumSpecializationsForThisSubtype[iI] = 0;

	mov	ecx, DWORD PTR _iI$226244[ebp]
	mov	edx, DWORD PTR _this$[ebp]
	mov	DWORD PTR [edx+ecx*4+168], 0

; 960  : 	}

	jmp	SHORT $LN11@SelectSpec
$LN10@SelectSpec:

; 961  : 
; 962  : 	CvCity* pkWonderBuildCity = GetWonderBuildCity();

	mov	ecx, DWORD PTR _this$[ebp]
	call	?GetWonderBuildCity@CvCitySpecializationAI@@QBEPAVCvCity@@XZ ; CvCitySpecializationAI::GetWonderBuildCity
	mov	DWORD PTR _pkWonderBuildCity$[ebp], eax

; 963  : 	CvBuildingEntry* pkProductionBuildingInfo = NULL;

	mov	DWORD PTR _pkProductionBuildingInfo$[ebp], 0

; 964  : 	if(NULL != pkWonderBuildCity && pkWonderBuildCity->getProductionBuilding() != NO_BUILDING)

	cmp	DWORD PTR _pkWonderBuildCity$[ebp], 0
	je	SHORT $LN9@SelectSpec
	mov	ecx, DWORD PTR _pkWonderBuildCity$[ebp]
	call	?getProductionBuilding@CvCity@@QBE?AW4BuildingTypes@@XZ ; CvCity::getProductionBuilding
	cmp	eax, -1
	je	SHORT $LN9@SelectSpec

; 965  : 	{
; 966  : 		pkProductionBuildingInfo = GC.getBuildingInfo(pkWonderBuildCity->getProductionBuilding());

	mov	ecx, DWORD PTR _pkWonderBuildCity$[ebp]
	call	?getProductionBuilding@CvCity@@QBE?AW4BuildingTypes@@XZ ; CvCity::getProductionBuilding
	push	eax
	mov	ecx, OFFSET ?gGlobals@@3VCvGlobals@@A	; gGlobals
	call	?getBuildingInfo@CvGlobals@@QAEPAVCvBuildingEntry@@W4BuildingTypes@@@Z ; CvGlobals::getBuildingInfo
	mov	DWORD PTR _pkProductionBuildingInfo$[ebp], eax
$LN9@SelectSpec:

; 967  : 	}
; 968  : 
; 969  : 	// Do we have a wonder build in progress that we can't interrupt?
; 970  : 	if(!m_bInterruptWonders && NULL != pkProductionBuildingInfo && m_pPlayer->GetWonderProductionAI()->IsWonder(*pkProductionBuildingInfo))

	mov	eax, DWORD PTR _this$[ebp]
	movzx	ecx, BYTE PTR [eax+192]
	test	ecx, ecx
	jne	$LN8@SelectSpec
	cmp	DWORD PTR _pkProductionBuildingInfo$[ebp], 0
	je	$LN8@SelectSpec
	mov	edx, DWORD PTR _pkProductionBuildingInfo$[ebp]
	push	edx
	mov	eax, DWORD PTR _this$[ebp]
	mov	ecx, DWORD PTR [eax]
	call	?GetWonderProductionAI@CvPlayer@@QBEPAVCvWonderProductionAI@@XZ ; CvPlayer::GetWonderProductionAI
	mov	ecx, eax
	call	?IsWonder@CvWonderProductionAI@@QBE_NABVCvBuildingEntry@@@Z ; CvWonderProductionAI::IsWonder
	movzx	ecx, al
	test	ecx, ecx
	je	$LN8@SelectSpec

; 971  : 	{
; 972  : 		m_SpecializationsNeeded.push_back(GetWonderSpecialization());

	mov	ecx, DWORD PTR _this$[ebp]
	call	?GetWonderSpecialization@CvCitySpecializationAI@@QBE?AW4CitySpecializationTypes@@XZ ; CvCitySpecializationAI::GetWonderSpecialization
	mov	DWORD PTR $T232607[ebp], eax
	mov	edx, DWORD PTR _this$[ebp]
	add	edx, 16					; 00000010H
	mov	DWORD PTR $T232663[ebp], edx
	mov	eax, DWORD PTR $T232663[ebp]
	mov	ecx, DWORD PTR [eax+4]
	mov	DWORD PTR $T232646[ebp], ecx
	mov	edx, DWORD PTR $T232646[ebp]
	mov	DWORD PTR $T232655[ebp], edx
	mov	eax, DWORD PTR $T232655[ebp]
	mov	DWORD PTR $T232654[ebp], eax
	lea	ecx, DWORD PTR $T232607[ebp]
	push	ecx
	mov	edx, DWORD PTR $T232654[ebp]
	push	edx
	mov	ecx, DWORD PTR $T232663[ebp]
	call	?_Insert@?$list@W4CitySpecializationTypes@@V?$allocator@W4CitySpecializationTypes@@@std@@@std@@QAEXV?$_Const_iterator@$0A@@12@ABW4CitySpecializationTypes@@@Z ; std::list<enum CitySpecializationTypes,std::allocator<enum CitySpecializationTypes> >::_Insert

; 973  : 		m_iNumSpecializationsForThisYield[1 + (int)YIELD_PRODUCTION]++;

	mov	eax, DWORD PTR _this$[ebp]
	mov	ecx, DWORD PTR [eax+108]
	add	ecx, 1
	mov	edx, DWORD PTR _this$[ebp]
	mov	DWORD PTR [edx+108], ecx

; 974  : 		iOldWeight = m_YieldWeights.GetWeight(YIELD_PRODUCTION);

	mov	DWORD PTR _elem$232677[ebp], 0
	mov	DWORD PTR _elem$232677[ebp+4], 0
	mov	eax, 1
	shl	eax, 3
	mov	ecx, DWORD PTR _this$[ebp]
	mov	edx, DWORD PTR [ecx+44]
	mov	ecx, DWORD PTR [edx+eax]
	mov	edx, DWORD PTR [edx+eax+4]
	mov	DWORD PTR _elem$232677[ebp], ecx
	mov	DWORD PTR _elem$232677[ebp+4], edx
	mov	eax, DWORD PTR _elem$232677[ebp+4]
	mov	DWORD PTR _iOldWeight$[ebp], eax

; 975  : 		iReductionAmount = m_ProductionSubtypeWeights.GetWeight(GetWonderSubtype());

	mov	ecx, DWORD PTR _this$[ebp]
	call	?GetWonderSubtype@CvCitySpecializationAI@@ABEHXZ ; CvCitySpecializationAI::GetWonderSubtype
	mov	DWORD PTR $T232692[ebp], eax
	mov	DWORD PTR _elem$232691[ebp], 0
	mov	DWORD PTR _elem$232691[ebp+4], 0
	mov	ecx, DWORD PTR _this$[ebp]
	mov	edx, DWORD PTR [ecx+120]
	mov	eax, DWORD PTR $T232692[ebp]
	mov	ecx, DWORD PTR [edx+eax*8]
	mov	edx, DWORD PTR [edx+eax*8+4]
	mov	DWORD PTR _elem$232691[ebp], ecx
	mov	DWORD PTR _elem$232691[ebp+4], edx
	mov	eax, DWORD PTR _elem$232691[ebp+4]
	mov	DWORD PTR _iReductionAmount$[ebp], eax

; 976  : 		m_YieldWeights.SetWeight(YIELD_PRODUCTION, (iOldWeight - iReductionAmount));

	mov	ecx, DWORD PTR _iOldWeight$[ebp]
	sub	ecx, DWORD PTR _iReductionAmount$[ebp]
	mov	DWORD PTR $T232701[ebp], ecx
	mov	edx, 1
	shl	edx, 3
	mov	eax, DWORD PTR _this$[ebp]
	mov	ecx, DWORD PTR [eax+44]
	mov	eax, DWORD PTR $T232701[ebp]
	mov	DWORD PTR [ecx+edx+4], eax

; 977  : 
; 978  : 		// Only one wonder at a time, so zero out the weight for this subtype entirely
; 979  : 		m_ProductionSubtypeWeights.SetWeight(GetWonderSubtype(), 0);

	mov	ecx, DWORD PTR _this$[ebp]
	call	?GetWonderSubtype@CvCitySpecializationAI@@ABEHXZ ; CvCitySpecializationAI::GetWonderSubtype
	mov	DWORD PTR $T232710[ebp], eax
	mov	ecx, DWORD PTR _this$[ebp]
	mov	edx, DWORD PTR [ecx+120]
	mov	eax, DWORD PTR $T232710[ebp]
	mov	DWORD PTR [edx+eax*8+4], 0

; 980  : 		m_bWonderChosen = true;

	mov	ecx, DWORD PTR _this$[ebp]
	mov	BYTE PTR [ecx+208], 1

; 981  : 	}
; 982  : 	else

	jmp	SHORT $LN6@SelectSpec
$LN8@SelectSpec:

; 983  : 	{
; 984  : 		m_iWonderCityID = -1;

	mov	edx, DWORD PTR _this$[ebp]
	mov	DWORD PTR [edx+200], -1
$LN6@SelectSpec:

; 985  : 	}
; 986  : 
; 987  : 	// LOOP as many times as we have cities PLUS ONE
; 988  : 	while(m_SpecializationsNeeded.size() < iSpecializationsToAssign)

	mov	eax, DWORD PTR _this$[ebp]
	mov	ecx, DWORD PTR [eax+24]
	mov	DWORD PTR $T232714[ebp], ecx
	mov	edx, DWORD PTR $T232714[ebp]
	cmp	edx, DWORD PTR _iSpecializationsToAssign$[ebp]
	jae	$LN16@SelectSpec

; 989  : 	{
; 990  : 		// Find highest weighted specialization
; 991  : 		m_YieldWeights.SortItems();

	mov	eax, DWORD PTR _this$[ebp]
	add	eax, 44					; 0000002cH
	mov	DWORD PTR $T232735[ebp], eax
	mov	ecx, DWORD PTR $T232735[ebp]
	mov	edx, DWORD PTR [ecx+4]
	mov	eax, DWORD PTR $T232735[ebp]
	mov	ecx, DWORD PTR [eax]
	lea	edx, DWORD PTR [ecx+edx*8]
	mov	DWORD PTR $T232719[ebp], edx
	mov	eax, DWORD PTR $T232735[ebp]
	mov	ecx, DWORD PTR [eax]
	mov	DWORD PTR $T232723[ebp], ecx
	mov	edx, DWORD PTR $T232719[ebp]
	sub	edx, DWORD PTR $T232723[ebp]
	sar	edx, 3
	push	edx
	mov	eax, DWORD PTR $T232719[ebp]
	push	eax
	mov	ecx, DWORD PTR $T232723[ebp]
	push	ecx
	call	??$_Sort@PAUWeightedElement@?$CvWeightedVector@W4YieldTypes@@$04$00@@H@std@@YAXPAUWeightedElement@?$CvWeightedVector@W4YieldTypes@@$04$00@@0H@Z ; std::_Sort<CvWeightedVector<enum YieldTypes,5,1>::WeightedElement *,int>
	add	esp, 12					; 0000000cH

; 992  : 
; 993  : 		// Mark that we need one city of this type
; 994  : 		YieldTypes eYield = m_YieldWeights.GetElement(0);

	xor	edx, edx
	shl	edx, 3
	mov	eax, DWORD PTR _this$[ebp]
	mov	ecx, DWORD PTR [eax+44]
	mov	edx, DWORD PTR [edx+ecx]
	mov	DWORD PTR _eYield$226258[ebp], edx

; 995  : 		if(GC.GetGameCitySpecializations()->GetNumSpecializationsForYield(eYield) > 1)

	mov	eax, DWORD PTR _eYield$226258[ebp]
	push	eax
	mov	ecx, OFFSET ?gGlobals@@3VCvGlobals@@A	; gGlobals
	call	?GetGameCitySpecializations@CvGlobals@@QBEPAVCvCitySpecializationXMLEntries@@XZ ; CvGlobals::GetGameCitySpecializations
	mov	ecx, eax
	call	?GetNumSpecializationsForYield@CvCitySpecializationXMLEntries@@QAEHW4YieldTypes@@@Z ; CvCitySpecializationXMLEntries::GetNumSpecializationsForYield
	cmp	eax, 1
	jle	$LN4@SelectSpec

; 996  : 		{
; 997  : 			if(eYield == YIELD_PRODUCTION)

	cmp	DWORD PTR _eYield$226258[ebp], 1
	jne	SHORT $LN2@SelectSpec

; 998  : 			{
; 999  : 				eSpecialization = SelectProductionSpecialization(iReductionAmount);

	lea	ecx, DWORD PTR _iReductionAmount$[ebp]
	push	ecx
	mov	ecx, DWORD PTR _this$[ebp]
	call	?SelectProductionSpecialization@CvCitySpecializationAI@@AAE?AW4CitySpecializationTypes@@AAH@Z ; CvCitySpecializationAI::SelectProductionSpecialization
	mov	DWORD PTR _eSpecialization$[ebp], eax

; 1000 : 
; 1001 : 				iOldWeight = m_YieldWeights.GetWeight(0);

	mov	DWORD PTR _elem$232757[ebp], 0
	mov	DWORD PTR _elem$232757[ebp+4], 0
	xor	edx, edx
	shl	edx, 3
	mov	eax, DWORD PTR _this$[ebp]
	mov	ecx, DWORD PTR [eax+44]
	mov	eax, DWORD PTR [ecx+edx]
	mov	ecx, DWORD PTR [ecx+edx+4]
	mov	DWORD PTR _elem$232757[ebp], eax
	mov	DWORD PTR _elem$232757[ebp+4], ecx
	mov	edx, DWORD PTR _elem$232757[ebp+4]
	mov	DWORD PTR _iOldWeight$[ebp], edx

; 1002 : 				m_iNumSpecializationsForThisYield[1 + (int)eYield]++;

	mov	eax, DWORD PTR _eYield$226258[ebp]
	mov	ecx, DWORD PTR _this$[ebp]
	mov	edx, DWORD PTR [ecx+eax*4+104]
	add	edx, 1
	mov	eax, DWORD PTR _eYield$226258[ebp]
	mov	ecx, DWORD PTR _this$[ebp]
	mov	DWORD PTR [ecx+eax*4+104], edx

; 1003 : 				iNewWeight = iOldWeight - iReductionAmount;

	mov	edx, DWORD PTR _iOldWeight$[ebp]
	sub	edx, DWORD PTR _iReductionAmount$[ebp]
	mov	DWORD PTR _iNewWeight$[ebp], edx

; 1004 : 				m_YieldWeights.SetWeight(0, iNewWeight);

	xor	eax, eax
	shl	eax, 3
	mov	ecx, DWORD PTR _this$[ebp]
	mov	edx, DWORD PTR [ecx+44]
	mov	ecx, DWORD PTR _iNewWeight$[ebp]
	mov	DWORD PTR [edx+eax+4], ecx
$LN2@SelectSpec:

; 1005 : 			}
; 1006 : 			else
; 1007 : 			{
; 1008 : 				FAssertMsg(false, "Code does not support > 1 specialization for yields other than production.");
; 1009 : 			}
; 1010 : 		}
; 1011 : 		else

	jmp	$LN1@SelectSpec
$LN4@SelectSpec:

; 1012 : 		{
; 1013 : 			eSpecialization = GC.GetGameCitySpecializations()->GetFirstSpecializationForYield(eYield);

	mov	edx, DWORD PTR _eYield$226258[ebp]
	push	edx
	mov	ecx, OFFSET ?gGlobals@@3VCvGlobals@@A	; gGlobals
	call	?GetGameCitySpecializations@CvGlobals@@QBEPAVCvCitySpecializationXMLEntries@@XZ ; CvGlobals::GetGameCitySpecializations
	mov	ecx, eax
	call	?GetFirstSpecializationForYield@CvCitySpecializationXMLEntries@@QAE?AW4CitySpecializationTypes@@W4YieldTypes@@@Z ; CvCitySpecializationXMLEntries::GetFirstSpecializationForYield
	mov	DWORD PTR _eSpecialization$[ebp], eax

; 1014 : 
; 1015 : 			// Reduce weight for this specialization based on dividing original weight by <num of this type + 1>
; 1016 : 			iOldWeight = m_YieldWeights.GetWeight(0);

	mov	DWORD PTR _elem$232779[ebp], 0
	mov	DWORD PTR _elem$232779[ebp+4], 0
	xor	eax, eax
	shl	eax, 3
	mov	ecx, DWORD PTR _this$[ebp]
	mov	edx, DWORD PTR [ecx+44]
	mov	ecx, DWORD PTR [edx+eax]
	mov	edx, DWORD PTR [edx+eax+4]
	mov	DWORD PTR _elem$232779[ebp], ecx
	mov	DWORD PTR _elem$232779[ebp+4], edx
	mov	eax, DWORD PTR _elem$232779[ebp+4]
	mov	DWORD PTR _iOldWeight$[ebp], eax

; 1017 : 			m_iNumSpecializationsForThisYield[1 + (int)eYield]++;

	mov	ecx, DWORD PTR _eYield$226258[ebp]
	mov	edx, DWORD PTR _this$[ebp]
	mov	eax, DWORD PTR [edx+ecx*4+104]
	add	eax, 1
	mov	ecx, DWORD PTR _eYield$226258[ebp]
	mov	edx, DWORD PTR _this$[ebp]
	mov	DWORD PTR [edx+ecx*4+104], eax

; 1018 : 			iNewWeight = iOldWeight * m_iNumSpecializationsForThisYield[1 + (int)eYield] / (m_iNumSpecializationsForThisYield[1 + (int)eYield] + 1);

	mov	eax, DWORD PTR _eYield$226258[ebp]
	mov	ecx, DWORD PTR _this$[ebp]
	mov	edx, DWORD PTR _iOldWeight$[ebp]
	imul	edx, DWORD PTR [ecx+eax*4+104]
	mov	eax, DWORD PTR _eYield$226258[ebp]
	mov	ecx, DWORD PTR _this$[ebp]
	mov	ecx, DWORD PTR [ecx+eax*4+104]
	add	ecx, 1
	mov	eax, edx
	cdq
	idiv	ecx
	mov	DWORD PTR _iNewWeight$[ebp], eax

; 1019 : 			m_YieldWeights.SetWeight(0, iNewWeight);

	xor	edx, edx
	shl	edx, 3
	mov	eax, DWORD PTR _this$[ebp]
	mov	ecx, DWORD PTR [eax+44]
	mov	eax, DWORD PTR _iNewWeight$[ebp]
	mov	DWORD PTR [ecx+edx+4], eax
$LN1@SelectSpec:

; 1020 : 		}
; 1021 : 		m_SpecializationsNeeded.push_back(eSpecialization);

	mov	ecx, DWORD PTR _this$[ebp]
	add	ecx, 16					; 00000010H
	mov	DWORD PTR $T232858[ebp], ecx
	mov	edx, DWORD PTR $T232858[ebp]
	mov	eax, DWORD PTR [edx+4]
	mov	DWORD PTR $T232800[ebp], eax
	mov	ecx, DWORD PTR $T232800[ebp]
	mov	DWORD PTR $T232850[ebp], ecx
	mov	edx, DWORD PTR $T232850[ebp]
	mov	DWORD PTR $T232849[ebp], edx
	lea	eax, DWORD PTR _eSpecialization$[ebp]
	push	eax
	mov	ecx, DWORD PTR $T232849[ebp]
	push	ecx
	mov	ecx, DWORD PTR $T232858[ebp]
	call	?_Insert@?$list@W4CitySpecializationTypes@@V?$allocator@W4CitySpecializationTypes@@@std@@@std@@QAEXV?$_Const_iterator@$0A@@12@ABW4CitySpecializationTypes@@@Z ; std::list<enum CitySpecializationTypes,std::allocator<enum CitySpecializationTypes> >::_Insert

; 1022 : 	}

	jmp	$LN6@SelectSpec
$LN16@SelectSpec:

; 1023 : }

	pop	esi
	mov	esp, ebp
	pop	ebp
	ret	0
?SelectSpecializations@CvCitySpecializationAI@@AAEXXZ ENDP ; CvCitySpecializationAI::SelectSpecializations
_TEXT	ENDS
PUBLIC	?FindBestWonderCity@CvCitySpecializationAI@@ABEPAVCvCity@@XZ ; CvCitySpecializationAI::FindBestWonderCity
PUBLIC	??$_Sort@PAUWeightedElement@?$CvWeightedVector@W4ProductionSpecializationSubtypes@@$03$00@@H@std@@YAXPAUWeightedElement@?$CvWeightedVector@W4ProductionSpecializationSubtypes@@$03$00@@0H@Z ; std::_Sort<CvWeightedVector<enum ProductionSpecializationSubtypes,4,1>::WeightedElement *,int>
; Function compile flags: /Odtp
;	COMDAT ?SelectProductionSpecialization@CvCitySpecializationAI@@AAE?AW4CitySpecializationTypes@@AAH@Z
_TEXT	SEGMENT
_this$ = -60						; size = 4
_elem$232929 = -56					; size = 8
_elem$232912 = -48					; size = 8
$T232898 = -40						; size = 4
$T232881 = -36						; size = 4
$T232869 = -32						; size = 4
$T232865 = -28						; size = 4
_iOldWeight$226283 = -24				; size = 4
_iNewWeight$226285 = -20				; size = 4
_pCity$226279 = -16					; size = 4
_eSpecialization$ = -12					; size = 4
_iNumSubTypes$ = -8					; size = 4
_eSubtype$ = -4						; size = 4
_iReductionAmount$ = 8					; size = 4
?SelectProductionSpecialization@CvCitySpecializationAI@@AAE?AW4CitySpecializationTypes@@AAH@Z PROC ; CvCitySpecializationAI::SelectProductionSpecialization, COMDAT
; _this$ = ecx

; 1027 : {

	push	ebp
	mov	ebp, esp
	sub	esp, 60					; 0000003cH
	mov	DWORD PTR _this$[ebp], ecx

; 1028 : 	CitySpecializationTypes eSpecialization;
; 1029 : 
; 1030 : 	// Find highest weighted subtype
; 1031 : 	m_ProductionSubtypeWeights.SortItems();

	mov	eax, DWORD PTR _this$[ebp]
	add	eax, 120				; 00000078H
	mov	DWORD PTR $T232881[ebp], eax
	mov	ecx, DWORD PTR $T232881[ebp]
	mov	edx, DWORD PTR [ecx+4]
	mov	eax, DWORD PTR $T232881[ebp]
	mov	ecx, DWORD PTR [eax]
	lea	edx, DWORD PTR [ecx+edx*8]
	mov	DWORD PTR $T232865[ebp], edx
	mov	eax, DWORD PTR $T232881[ebp]
	mov	ecx, DWORD PTR [eax]
	mov	DWORD PTR $T232869[ebp], ecx
	mov	edx, DWORD PTR $T232865[ebp]
	sub	edx, DWORD PTR $T232869[ebp]
	sar	edx, 3
	push	edx
	mov	eax, DWORD PTR $T232865[ebp]
	push	eax
	mov	ecx, DWORD PTR $T232869[ebp]
	push	ecx
	call	??$_Sort@PAUWeightedElement@?$CvWeightedVector@W4ProductionSpecializationSubtypes@@$03$00@@H@std@@YAXPAUWeightedElement@?$CvWeightedVector@W4ProductionSpecializationSubtypes@@$03$00@@0H@Z ; std::_Sort<CvWeightedVector<enum ProductionSpecializationSubtypes,4,1>::WeightedElement *,int>
	add	esp, 12					; 0000000cH

; 1032 : 
; 1033 : 	ProductionSpecializationSubtypes eSubtype = m_ProductionSubtypeWeights.GetElement(0);

	xor	edx, edx
	shl	edx, 3
	mov	eax, DWORD PTR _this$[ebp]
	mov	ecx, DWORD PTR [eax+120]
	mov	edx, DWORD PTR [edx+ecx]
	mov	DWORD PTR _eSubtype$[ebp], edx

; 1034 : 
; 1035 : 	int iNumSubTypes = 0;

	mov	DWORD PTR _iNumSubTypes$[ebp], 0

; 1036 : 	eSpecialization = GC.GetGameCitySpecializations()->GetFirstSpecializationForYield(YIELD_PRODUCTION);

	push	1
	mov	ecx, OFFSET ?gGlobals@@3VCvGlobals@@A	; gGlobals
	call	?GetGameCitySpecializations@CvGlobals@@QBEPAVCvCitySpecializationXMLEntries@@XZ ; CvGlobals::GetGameCitySpecializations
	mov	ecx, eax
	call	?GetFirstSpecializationForYield@CvCitySpecializationXMLEntries@@QAE?AW4CitySpecializationTypes@@W4YieldTypes@@@Z ; CvCitySpecializationXMLEntries::GetFirstSpecializationForYield
	mov	DWORD PTR _eSpecialization$[ebp], eax
$LN6@SelectProd:

; 1037 : 	while(iNumSubTypes != (int)eSubtype)

	mov	eax, DWORD PTR _iNumSubTypes$[ebp]
	cmp	eax, DWORD PTR _eSubtype$[ebp]
	je	SHORT $LN5@SelectProd

; 1038 : 	{
; 1039 : 		eSpecialization = GC.GetGameCitySpecializations()->GetNextSpecializationForYield();

	mov	ecx, OFFSET ?gGlobals@@3VCvGlobals@@A	; gGlobals
	call	?GetGameCitySpecializations@CvGlobals@@QBEPAVCvCitySpecializationXMLEntries@@XZ ; CvGlobals::GetGameCitySpecializations
	mov	ecx, eax
	call	?GetNextSpecializationForYield@CvCitySpecializationXMLEntries@@QAE?AW4CitySpecializationTypes@@XZ ; CvCitySpecializationXMLEntries::GetNextSpecializationForYield
	mov	DWORD PTR _eSpecialization$[ebp], eax

; 1040 : 		iNumSubTypes++;

	mov	ecx, DWORD PTR _iNumSubTypes$[ebp]
	add	ecx, 1
	mov	DWORD PTR _iNumSubTypes$[ebp], ecx

; 1041 : 		FAssertMsg(eSpecialization != NO_CITY_SPECIALIZATION, "Production specializations in XML doesn't match NUM_PRODUCTION_SPECIALIZATION_SUBTYPES");
; 1042 : 	}

	jmp	SHORT $LN6@SelectProd
$LN5@SelectProd:

; 1043 : 
; 1044 : 	// If this is the wonder type, make sure we have a city to build it
; 1045 : 	if(eSubtype == GetWonderSubtype())

	mov	ecx, DWORD PTR _this$[ebp]
	call	?GetWonderSubtype@CvCitySpecializationAI@@ABEHXZ ; CvCitySpecializationAI::GetWonderSubtype
	cmp	DWORD PTR _eSubtype$[ebp], eax
	jne	$LN4@SelectProd

; 1046 : 	{
; 1047 : 		CvCity* pCity = FindBestWonderCity();

	mov	ecx, DWORD PTR _this$[ebp]
	call	?FindBestWonderCity@CvCitySpecializationAI@@ABEPAVCvCity@@XZ ; CvCitySpecializationAI::FindBestWonderCity
	mov	DWORD PTR _pCity$226279[ebp], eax

; 1048 : 		if(pCity != NULL)

	cmp	DWORD PTR _pCity$226279[ebp], 0
	je	SHORT $LN3@SelectProd

; 1049 : 		{
; 1050 : 			m_iWonderCityID = pCity->GetID();

	mov	edx, DWORD PTR _pCity$226279[ebp]
	mov	eax, DWORD PTR [edx+120]
	mov	DWORD PTR $T232898[ebp], eax
	mov	ecx, DWORD PTR _this$[ebp]
	mov	edx, DWORD PTR $T232898[ebp]
	mov	DWORD PTR [ecx+200], edx

; 1051 : 			m_bWonderChosen = true;

	mov	eax, DWORD PTR _this$[ebp]
	mov	BYTE PTR [eax+208], 1

; 1052 : 		}
; 1053 : 
; 1054 : 		// No wonder city, substitute default specialization instead
; 1055 : 		else

	jmp	SHORT $LN2@SelectProd
$LN3@SelectProd:

; 1056 : 		{
; 1057 : 			eSpecialization = GetEconomicDefaultSpecialization();

	mov	ecx, DWORD PTR _this$[ebp]
	call	?GetEconomicDefaultSpecialization@CvCitySpecializationAI@@ABE?AW4CitySpecializationTypes@@XZ ; CvCitySpecializationAI::GetEconomicDefaultSpecialization
	mov	DWORD PTR _eSpecialization$[ebp], eax
$LN2@SelectProd:

; 1058 : 		}
; 1059 : 		iReductionAmount = m_ProductionSubtypeWeights.GetWeight(0);

	mov	DWORD PTR _elem$232912[ebp], 0
	mov	DWORD PTR _elem$232912[ebp+4], 0
	xor	ecx, ecx
	shl	ecx, 3
	mov	edx, DWORD PTR _this$[ebp]
	mov	eax, DWORD PTR [edx+120]
	mov	edx, DWORD PTR [eax+ecx]
	mov	eax, DWORD PTR [eax+ecx+4]
	mov	DWORD PTR _elem$232912[ebp], edx
	mov	DWORD PTR _elem$232912[ebp+4], eax
	mov	ecx, DWORD PTR _iReductionAmount$[ebp]
	mov	edx, DWORD PTR _elem$232912[ebp+4]
	mov	DWORD PTR [ecx], edx

; 1060 : 		m_ProductionSubtypeWeights.SetWeight(0, 0);

	xor	eax, eax
	shl	eax, 3
	mov	ecx, DWORD PTR _this$[ebp]
	mov	edx, DWORD PTR [ecx+120]
	mov	DWORD PTR [edx+eax+4], 0

; 1061 : 	}
; 1062 : 
; 1063 : 	else

	jmp	$LN1@SelectProd
$LN4@SelectProd:

; 1064 : 	{
; 1065 : 		// Reduce weight for this subtype based on dividing original weight by <num of this type + 1>
; 1066 : 		int iOldWeight = m_ProductionSubtypeWeights.GetWeight(0);

	mov	DWORD PTR _elem$232929[ebp], 0
	mov	DWORD PTR _elem$232929[ebp+4], 0
	xor	eax, eax
	shl	eax, 3
	mov	ecx, DWORD PTR _this$[ebp]
	mov	edx, DWORD PTR [ecx+120]
	mov	ecx, DWORD PTR [edx+eax]
	mov	edx, DWORD PTR [edx+eax+4]
	mov	DWORD PTR _elem$232929[ebp], ecx
	mov	DWORD PTR _elem$232929[ebp+4], edx
	mov	eax, DWORD PTR _elem$232929[ebp+4]
	mov	DWORD PTR _iOldWeight$226283[ebp], eax

; 1067 : 		m_iNumSpecializationsForThisSubtype[(int)iNumSubTypes]++;

	mov	ecx, DWORD PTR _iNumSubTypes$[ebp]
	mov	edx, DWORD PTR _this$[ebp]
	mov	eax, DWORD PTR [edx+ecx*4+168]
	add	eax, 1
	mov	ecx, DWORD PTR _iNumSubTypes$[ebp]
	mov	edx, DWORD PTR _this$[ebp]
	mov	DWORD PTR [edx+ecx*4+168], eax

; 1068 : 		int iNewWeight = iOldWeight * m_iNumSpecializationsForThisSubtype[(int)iNumSubTypes] / (m_iNumSpecializationsForThisSubtype[(int)iNumSubTypes] + 1);

	mov	eax, DWORD PTR _iNumSubTypes$[ebp]
	mov	ecx, DWORD PTR _this$[ebp]
	mov	edx, DWORD PTR _iOldWeight$226283[ebp]
	imul	edx, DWORD PTR [ecx+eax*4+168]
	mov	eax, DWORD PTR _iNumSubTypes$[ebp]
	mov	ecx, DWORD PTR _this$[ebp]
	mov	ecx, DWORD PTR [ecx+eax*4+168]
	add	ecx, 1
	mov	eax, edx
	cdq
	idiv	ecx
	mov	DWORD PTR _iNewWeight$226285[ebp], eax

; 1069 : 		iReductionAmount = iOldWeight - iNewWeight;

	mov	edx, DWORD PTR _iOldWeight$226283[ebp]
	sub	edx, DWORD PTR _iNewWeight$226285[ebp]
	mov	eax, DWORD PTR _iReductionAmount$[ebp]
	mov	DWORD PTR [eax], edx

; 1070 : 		m_ProductionSubtypeWeights.SetWeight(0, iNewWeight);

	xor	ecx, ecx
	shl	ecx, 3
	mov	edx, DWORD PTR _this$[ebp]
	mov	eax, DWORD PTR [edx+120]
	mov	edx, DWORD PTR _iNewWeight$226285[ebp]
	mov	DWORD PTR [eax+ecx+4], edx
$LN1@SelectProd:

; 1071 : 	}
; 1072 : 
; 1073 : 	return eSpecialization;

	mov	eax, DWORD PTR _eSpecialization$[ebp]

; 1074 : }

	mov	esp, ebp
	pop	ebp
	ret	4
?SelectProductionSpecialization@CvCitySpecializationAI@@AAE?AW4CitySpecializationTypes@@AAH@Z ENDP ; CvCitySpecializationAI::SelectProductionSpecialization
_TEXT	ENDS
EXTRN	?getNumCitySpecializationInfos@CvGlobals@@QAEHXZ:PROC ; CvGlobals::getNumCitySpecializationInfos
; Function compile flags: /Odtp
;	COMDAT ?GetWonderSpecialization@CvCitySpecializationAI@@QBE?AW4CitySpecializationTypes@@XZ
_TEXT	SEGMENT
_this$ = -12						; size = 4
_iI$226292 = -8						; size = 4
_pEntry$ = -4						; size = 4
?GetWonderSpecialization@CvCitySpecializationAI@@QBE?AW4CitySpecializationTypes@@XZ PROC ; CvCitySpecializationAI::GetWonderSpecialization, COMDAT
; _this$ = ecx

; 1078 : {

	push	ebp
	mov	ebp, esp
	sub	esp, 12					; 0000000cH
	mov	DWORD PTR _this$[ebp], ecx

; 1079 : 	CvCitySpecializationXMLEntry* pEntry;
; 1080 : 
; 1081 : #ifdef AUI_WARNING_FIXES
; 1082 : 	for (uint iI = 0; iI < GC.getNumCitySpecializationInfos(); iI++)
; 1083 : #else
; 1084 : 	for(int iI = 0; iI < GC.getNumCitySpecializationInfos(); iI++)

	mov	DWORD PTR _iI$226292[ebp], 0
	jmp	SHORT $LN4@GetWonderS
$LN3@GetWonderS:
	mov	eax, DWORD PTR _iI$226292[ebp]
	add	eax, 1
	mov	DWORD PTR _iI$226292[ebp], eax
$LN4@GetWonderS:
	mov	ecx, OFFSET ?gGlobals@@3VCvGlobals@@A	; gGlobals
	call	?getNumCitySpecializationInfos@CvGlobals@@QAEHXZ ; CvGlobals::getNumCitySpecializationInfos
	cmp	DWORD PTR _iI$226292[ebp], eax
	jge	SHORT $LN2@GetWonderS

; 1085 : #endif
; 1086 : 	{
; 1087 : 		pEntry = GC.GetGameCitySpecializations()->GetEntry(iI);

	mov	ecx, DWORD PTR _iI$226292[ebp]
	push	ecx
	mov	ecx, OFFSET ?gGlobals@@3VCvGlobals@@A	; gGlobals
	call	?GetGameCitySpecializations@CvGlobals@@QBEPAVCvCitySpecializationXMLEntries@@XZ ; CvGlobals::GetGameCitySpecializations
	mov	ecx, eax
	call	?GetEntry@CvCitySpecializationXMLEntries@@QAEPAVCvCitySpecializationXMLEntry@@H@Z ; CvCitySpecializationXMLEntries::GetEntry
	mov	DWORD PTR _pEntry$[ebp], eax

; 1088 : 		if(pEntry->IsWonder())

	mov	ecx, DWORD PTR _pEntry$[ebp]
	call	?IsWonder@CvCitySpecializationXMLEntry@@QBE_NXZ ; CvCitySpecializationXMLEntry::IsWonder
	movzx	edx, al
	test	edx, edx
	je	SHORT $LN1@GetWonderS

; 1089 : 		{
; 1090 : 			return (CitySpecializationTypes)iI;

	mov	eax, DWORD PTR _iI$226292[ebp]
	jmp	SHORT $LN5@GetWonderS
$LN1@GetWonderS:

; 1091 : 		}
; 1092 : 	}

	jmp	SHORT $LN3@GetWonderS
$LN2@GetWonderS:

; 1093 : 
; 1094 : 	return (CitySpecializationTypes)-1;

	or	eax, -1
$LN5@GetWonderS:

; 1095 : }

	mov	esp, ebp
	pop	ebp
	ret	0
?GetWonderSpecialization@CvCitySpecializationAI@@QBE?AW4CitySpecializationTypes@@XZ ENDP ; CvCitySpecializationAI::GetWonderSpecialization
; Function compile flags: /Odtp
_TEXT	ENDS
;	COMDAT ?GetEconomicDefaultSpecialization@CvCitySpecializationAI@@ABE?AW4CitySpecializationTypes@@XZ
_TEXT	SEGMENT
_this$ = -12						; size = 4
_iI$226303 = -8						; size = 4
_pEntry$ = -4						; size = 4
?GetEconomicDefaultSpecialization@CvCitySpecializationAI@@ABE?AW4CitySpecializationTypes@@XZ PROC ; CvCitySpecializationAI::GetEconomicDefaultSpecialization, COMDAT
; _this$ = ecx

; 1099 : {

	push	ebp
	mov	ebp, esp
	sub	esp, 12					; 0000000cH
	mov	DWORD PTR _this$[ebp], ecx

; 1100 : 	CvCitySpecializationXMLEntry* pEntry;
; 1101 : 
; 1102 : #ifdef AUI_WARNING_FIXES
; 1103 : 	for (uint iI = 0; iI < GC.getNumCitySpecializationInfos(); iI++)
; 1104 : #else
; 1105 : 	for(int iI = 0; iI < GC.getNumCitySpecializationInfos(); iI++)

	mov	DWORD PTR _iI$226303[ebp], 0
	jmp	SHORT $LN4@GetEconomi
$LN3@GetEconomi:
	mov	eax, DWORD PTR _iI$226303[ebp]
	add	eax, 1
	mov	DWORD PTR _iI$226303[ebp], eax
$LN4@GetEconomi:
	mov	ecx, OFFSET ?gGlobals@@3VCvGlobals@@A	; gGlobals
	call	?getNumCitySpecializationInfos@CvGlobals@@QAEHXZ ; CvGlobals::getNumCitySpecializationInfos
	cmp	DWORD PTR _iI$226303[ebp], eax
	jge	SHORT $LN2@GetEconomi

; 1106 : #endif
; 1107 : 	{
; 1108 : 		pEntry = GC.GetGameCitySpecializations()->GetEntry(iI);

	mov	ecx, DWORD PTR _iI$226303[ebp]
	push	ecx
	mov	ecx, OFFSET ?gGlobals@@3VCvGlobals@@A	; gGlobals
	call	?GetGameCitySpecializations@CvGlobals@@QBEPAVCvCitySpecializationXMLEntries@@XZ ; CvGlobals::GetGameCitySpecializations
	mov	ecx, eax
	call	?GetEntry@CvCitySpecializationXMLEntries@@QAEPAVCvCitySpecializationXMLEntry@@H@Z ; CvCitySpecializationXMLEntries::GetEntry
	mov	DWORD PTR _pEntry$[ebp], eax

; 1109 : 		if(pEntry->IsDefault())

	mov	ecx, DWORD PTR _pEntry$[ebp]
	call	?IsDefault@CvCitySpecializationXMLEntry@@QBE_NXZ ; CvCitySpecializationXMLEntry::IsDefault
	movzx	edx, al
	test	edx, edx
	je	SHORT $LN1@GetEconomi

; 1110 : 		{
; 1111 : 			return (CitySpecializationTypes)iI;

	mov	eax, DWORD PTR _iI$226303[ebp]
	jmp	SHORT $LN5@GetEconomi
$LN1@GetEconomi:

; 1112 : 		}
; 1113 : 	}

	jmp	SHORT $LN3@GetEconomi
$LN2@GetEconomi:

; 1114 : 
; 1115 : 	return (CitySpecializationTypes)-1;

	or	eax, -1
$LN5@GetEconomi:

; 1116 : }

	mov	esp, ebp
	pop	ebp
	ret	0
?GetEconomicDefaultSpecialization@CvCitySpecializationAI@@ABE?AW4CitySpecializationTypes@@XZ ENDP ; CvCitySpecializationAI::GetEconomicDefaultSpecialization
; Function compile flags: /Odtp
_TEXT	ENDS
;	COMDAT ?GetWonderSubtype@CvCitySpecializationAI@@ABEHXZ
_TEXT	SEGMENT
_this$ = -16						; size = 4
_iI$226315 = -12					; size = 4
_iSubType$ = -8						; size = 4
_pEntry$ = -4						; size = 4
?GetWonderSubtype@CvCitySpecializationAI@@ABEHXZ PROC	; CvCitySpecializationAI::GetWonderSubtype, COMDAT
; _this$ = ecx

; 1120 : {

	push	ebp
	mov	ebp, esp
	sub	esp, 16					; 00000010H
	mov	DWORD PTR _this$[ebp], ecx

; 1121 : 	CvCitySpecializationXMLEntry* pEntry;
; 1122 : 	int iSubType = -1;

	mov	DWORD PTR _iSubType$[ebp], -1

; 1123 : 
; 1124 : #ifdef AUI_WARNING_FIXES
; 1125 : 	for (uint iI = 0; iI < GC.getNumCitySpecializationInfos(); iI++)
; 1126 : #else
; 1127 : 	for(int iI = 0; iI < GC.getNumCitySpecializationInfos(); iI++)

	mov	DWORD PTR _iI$226315[ebp], 0
	jmp	SHORT $LN5@GetWonderS@2
$LN4@GetWonderS@2:
	mov	eax, DWORD PTR _iI$226315[ebp]
	add	eax, 1
	mov	DWORD PTR _iI$226315[ebp], eax
$LN5@GetWonderS@2:
	mov	ecx, OFFSET ?gGlobals@@3VCvGlobals@@A	; gGlobals
	call	?getNumCitySpecializationInfos@CvGlobals@@QAEHXZ ; CvGlobals::getNumCitySpecializationInfos
	cmp	DWORD PTR _iI$226315[ebp], eax
	jge	SHORT $LN3@GetWonderS@2

; 1128 : #endif
; 1129 : 	{
; 1130 : 		pEntry = GC.GetGameCitySpecializations()->GetEntry(iI);

	mov	ecx, DWORD PTR _iI$226315[ebp]
	push	ecx
	mov	ecx, OFFSET ?gGlobals@@3VCvGlobals@@A	; gGlobals
	call	?GetGameCitySpecializations@CvGlobals@@QBEPAVCvCitySpecializationXMLEntries@@XZ ; CvGlobals::GetGameCitySpecializations
	mov	ecx, eax
	call	?GetEntry@CvCitySpecializationXMLEntries@@QAEPAVCvCitySpecializationXMLEntry@@H@Z ; CvCitySpecializationXMLEntries::GetEntry
	mov	DWORD PTR _pEntry$[ebp], eax

; 1131 : 		if(pEntry->GetYieldType() == YIELD_PRODUCTION)

	mov	ecx, DWORD PTR _pEntry$[ebp]
	call	?GetYieldType@CvCitySpecializationXMLEntry@@QBE?AW4YieldTypes@@XZ ; CvCitySpecializationXMLEntry::GetYieldType
	cmp	eax, 1
	jne	SHORT $LN2@GetWonderS@2

; 1132 : 		{
; 1133 : 			iSubType++;

	mov	edx, DWORD PTR _iSubType$[ebp]
	add	edx, 1
	mov	DWORD PTR _iSubType$[ebp], edx
$LN2@GetWonderS@2:

; 1134 : 		}
; 1135 : 		if(pEntry->IsWonder())

	mov	ecx, DWORD PTR _pEntry$[ebp]
	call	?IsWonder@CvCitySpecializationXMLEntry@@QBE_NXZ ; CvCitySpecializationXMLEntry::IsWonder
	movzx	eax, al
	test	eax, eax
	je	SHORT $LN1@GetWonderS@2

; 1136 : 		{
; 1137 : 			return iSubType;

	mov	eax, DWORD PTR _iSubType$[ebp]
	jmp	SHORT $LN6@GetWonderS@2
$LN1@GetWonderS@2:

; 1138 : 		}
; 1139 : 	}

	jmp	SHORT $LN4@GetWonderS@2
$LN3@GetWonderS@2:

; 1140 : 
; 1141 : 	return iSubType;

	mov	eax, DWORD PTR _iSubType$[ebp]
$LN6@GetWonderS@2:

; 1142 : }

	mov	esp, ebp
	pop	ebp
	ret	0
?GetWonderSubtype@CvCitySpecializationAI@@ABEHXZ ENDP	; CvCitySpecializationAI::GetWonderSubtype
_TEXT	ENDS
EXTRN	?GetWonderProductionModifier@CvCity@@QBEHXZ:PROC ; CvCity::GetWonderProductionModifier
EXTRN	?getCurrentProductionDifference@CvCity@@QBEH_N0@Z:PROC ; CvCity::getCurrentProductionDifference
EXTRN	?canConstruct@CvCity@@QBE_NW4BuildingTypes@@_N11PAVCvString@@@Z:PROC ; CvCity::canConstruct
; Function compile flags: /Odtp
;	COMDAT ?FindBestWonderCity@CvCitySpecializationAI@@ABEPAVCvCity@@XZ
_TEXT	SEGMENT
_this$ = -36						; size = 4
$T232955 = -32						; size = 4
$T232954 = -28						; size = 4
_iBestProduction$ = -24					; size = 4
_pBestCity$ = -20					; size = 4
_iProduction$ = -16					; size = 4
_pkProductionBuildingInfo$ = -12			; size = 4
_pLoopCity$ = -8					; size = 4
_iLoop$ = -4						; size = 4
?FindBestWonderCity@CvCitySpecializationAI@@ABEPAVCvCity@@XZ PROC ; CvCitySpecializationAI::FindBestWonderCity, COMDAT
; _this$ = ecx

; 1146 : {

	push	ebp
	mov	ebp, esp
	sub	esp, 36					; 00000024H
	mov	DWORD PTR _this$[ebp], ecx

; 1147 : 	CvCity* pBestCity = NULL;

	mov	DWORD PTR _pBestCity$[ebp], 0

; 1148 : 	CvCity* pLoopCity;
; 1149 : 	int iLoop;
; 1150 : 	int iBestProduction = 0;

	mov	DWORD PTR _iBestProduction$[ebp], 0

; 1151 : 	int iProduction;
; 1152 : 
; 1153 : 	// First, see if we already have a wonder underway somewhere.  If so that's our wonder city
; 1154 : 	pLoopCity = NULL;//GetWonderBuildCity();

	mov	DWORD PTR _pLoopCity$[ebp], 0

; 1155 : 
; 1156 : 	CvBuildingEntry* pkProductionBuildingInfo = NULL;

	mov	DWORD PTR _pkProductionBuildingInfo$[ebp], 0

; 1157 : 	if(pLoopCity != NULL && pLoopCity->getProductionBuilding() != NO_BUILDING)

	cmp	DWORD PTR _pLoopCity$[ebp], 0
	je	SHORT $LN12@FindBestWo
	mov	ecx, DWORD PTR _pLoopCity$[ebp]
	call	?getProductionBuilding@CvCity@@QBE?AW4BuildingTypes@@XZ ; CvCity::getProductionBuilding
	cmp	eax, -1
	je	SHORT $LN12@FindBestWo

; 1158 : 	{
; 1159 : 		pkProductionBuildingInfo = GC.getBuildingInfo(pLoopCity->getProductionBuilding());

	mov	ecx, DWORD PTR _pLoopCity$[ebp]
	call	?getProductionBuilding@CvCity@@QBE?AW4BuildingTypes@@XZ ; CvCity::getProductionBuilding
	push	eax
	mov	ecx, OFFSET ?gGlobals@@3VCvGlobals@@A	; gGlobals
	call	?getBuildingInfo@CvGlobals@@QAEPAVCvBuildingEntry@@W4BuildingTypes@@@Z ; CvGlobals::getBuildingInfo
	mov	DWORD PTR _pkProductionBuildingInfo$[ebp], eax
$LN12@FindBestWo:

; 1160 : 	}
; 1161 : 
; 1162 : 	if(pkProductionBuildingInfo && m_pPlayer->GetWonderProductionAI()->IsWonder(*pkProductionBuildingInfo))

	cmp	DWORD PTR _pkProductionBuildingInfo$[ebp], 0
	je	SHORT $LN11@FindBestWo
	mov	eax, DWORD PTR _pkProductionBuildingInfo$[ebp]
	push	eax
	mov	ecx, DWORD PTR _this$[ebp]
	mov	ecx, DWORD PTR [ecx]
	call	?GetWonderProductionAI@CvPlayer@@QBEPAVCvWonderProductionAI@@XZ ; CvPlayer::GetWonderProductionAI
	mov	ecx, eax
	call	?IsWonder@CvWonderProductionAI@@QBE_NABVCvBuildingEntry@@@Z ; CvWonderProductionAI::IsWonder
	movzx	edx, al
	test	edx, edx
	je	SHORT $LN11@FindBestWo

; 1163 : 	{
; 1164 : 		if(!pLoopCity->IsPuppet())

	mov	ecx, DWORD PTR _pLoopCity$[ebp]
	call	?IsPuppet@CvCity@@QBE_NXZ		; CvCity::IsPuppet
	movzx	eax, al
	test	eax, eax
	jne	SHORT $LN10@FindBestWo

; 1165 : 		{
; 1166 : 			return pLoopCity;

	mov	eax, DWORD PTR _pLoopCity$[ebp]
	jmp	$LN13@FindBestWo
$LN10@FindBestWo:

; 1167 : 		}
; 1168 : 	}

	jmp	$LN9@FindBestWo
$LN11@FindBestWo:

; 1169 : 	else if(m_eNextWonderDesired != NO_BUILDING)

	mov	ecx, DWORD PTR _this$[ebp]
	cmp	DWORD PTR [ecx+196], -1
	je	$LN9@FindBestWo

; 1170 : 	{
; 1171 : 		for(pLoopCity = m_pPlayer->firstCity(&iLoop); pLoopCity != NULL; pLoopCity = m_pPlayer->nextCity(&iLoop))

	push	0
	lea	edx, DWORD PTR _iLoop$[ebp]
	push	edx
	mov	eax, DWORD PTR _this$[ebp]
	mov	ecx, DWORD PTR [eax]
	call	?firstCity@CvPlayer@@QAEPAVCvCity@@PAH_N@Z ; CvPlayer::firstCity
	mov	DWORD PTR _pLoopCity$[ebp], eax
	jmp	SHORT $LN7@FindBestWo
$LN6@FindBestWo:
	push	0
	lea	ecx, DWORD PTR _iLoop$[ebp]
	push	ecx
	mov	edx, DWORD PTR _this$[ebp]
	mov	ecx, DWORD PTR [edx]
	call	?nextCity@CvPlayer@@QAEPAVCvCity@@PAH_N@Z ; CvPlayer::nextCity
	mov	DWORD PTR _pLoopCity$[ebp], eax
$LN7@FindBestWo:
	cmp	DWORD PTR _pLoopCity$[ebp], 0
	je	$LN9@FindBestWo

; 1172 : 		{
; 1173 : 			if(!pLoopCity->IsPuppet())

	mov	ecx, DWORD PTR _pLoopCity$[ebp]
	call	?IsPuppet@CvCity@@QBE_NXZ		; CvCity::IsPuppet
	movzx	eax, al
	test	eax, eax
	jne	$LN4@FindBestWo

; 1174 : 			{
; 1175 : 				if(pLoopCity->canConstruct(m_eNextWonderDesired))

	push	0
	push	0
	push	0
	push	0
	mov	ecx, DWORD PTR _this$[ebp]
	mov	edx, DWORD PTR [ecx+196]
	push	edx
	mov	ecx, DWORD PTR _pLoopCity$[ebp]
	call	?canConstruct@CvCity@@QBE_NW4BuildingTypes@@_N11PAVCvString@@@Z ; CvCity::canConstruct
	movzx	eax, al
	test	eax, eax
	je	SHORT $LN4@FindBestWo

; 1176 : 				{
; 1177 : 					iProduction = pLoopCity->getCurrentProductionDifference(true, false);

	push	0
	push	1
	mov	ecx, DWORD PTR _pLoopCity$[ebp]
	call	?getCurrentProductionDifference@CvCity@@QBEH_N0@Z ; CvCity::getCurrentProductionDifference
	mov	DWORD PTR _iProduction$[ebp], eax

; 1178 : 					if(pLoopCity->GetCityStrategyAI()->GetDefaultSpecialization() == GetWonderSpecialization())

	mov	ecx, DWORD PTR _pLoopCity$[ebp]
	call	?GetCityStrategyAI@CvCity@@QBEPAVCvCityStrategyAI@@XZ ; CvCity::GetCityStrategyAI
	mov	DWORD PTR $T232954[ebp], eax
	mov	ecx, DWORD PTR $T232954[ebp]
	mov	edx, DWORD PTR [ecx+24]
	mov	DWORD PTR $T232955[ebp], edx
	mov	ecx, DWORD PTR _this$[ebp]
	call	?GetWonderSpecialization@CvCitySpecializationAI@@QBE?AW4CitySpecializationTypes@@XZ ; CvCitySpecializationAI::GetWonderSpecialization
	cmp	DWORD PTR $T232955[ebp], eax
	jne	SHORT $LN2@FindBestWo

; 1179 : 					{
; 1180 : 						iProduction = (iProduction * 3) / 2;

	mov	eax, DWORD PTR _iProduction$[ebp]
	imul	eax, 3
	cdq
	sub	eax, edx
	sar	eax, 1
	mov	DWORD PTR _iProduction$[ebp], eax
$LN2@FindBestWo:

; 1181 : 					}
; 1182 : 
; 1183 : 					// factor in Marble, etc.
; 1184 : 					iProduction = (iProduction * (100 + pLoopCity->GetWonderProductionModifier())) / 100;

	mov	ecx, DWORD PTR _pLoopCity$[ebp]
	call	?GetWonderProductionModifier@CvCity@@QBEHXZ ; CvCity::GetWonderProductionModifier
	add	eax, 100				; 00000064H
	imul	eax, DWORD PTR _iProduction$[ebp]
	cdq
	mov	ecx, 100				; 00000064H
	idiv	ecx
	mov	DWORD PTR _iProduction$[ebp], eax

; 1185 : 
; 1186 : 					if(iProduction > iBestProduction)

	mov	edx, DWORD PTR _iProduction$[ebp]
	cmp	edx, DWORD PTR _iBestProduction$[ebp]
	jle	SHORT $LN4@FindBestWo

; 1187 : 					{
; 1188 : 						pBestCity = pLoopCity;

	mov	eax, DWORD PTR _pLoopCity$[ebp]
	mov	DWORD PTR _pBestCity$[ebp], eax

; 1189 : 						iBestProduction = iProduction;

	mov	ecx, DWORD PTR _iProduction$[ebp]
	mov	DWORD PTR _iBestProduction$[ebp], ecx
$LN4@FindBestWo:

; 1190 : 					}
; 1191 : 				}
; 1192 : 			}
; 1193 : 		}

	jmp	$LN6@FindBestWo
$LN9@FindBestWo:

; 1194 : 	}
; 1195 : 
; 1196 : 	return pBestCity;

	mov	eax, DWORD PTR _pBestCity$[ebp]
$LN13@FindBestWo:

; 1197 : }

	mov	esp, ebp
	pop	ebp
	ret	0
?FindBestWonderCity@CvCitySpecializationAI@@ABEPAVCvCity@@XZ ENDP ; CvCitySpecializationAI::FindBestWonderCity
_TEXT	ENDS
PUBLIC	?LogBestSites@CvCitySpecializationAI@@AAEXXZ	; CvCitySpecializationAI::LogBestSites
PUBLIC	?plotDistance@@YAHHHHH@Z			; plotDistance
EXTRN	?findCity@CvMap@@QAEPAVCvCity@@HHW4PlayerTypes@@W4TeamTypes@@_N21W4DirectionTypes@@PBV2@@Z:PROC ; CvMap::findCity
EXTRN	?GetSettlerSiteEvaluator@CvGame@@QAEPAVCvSiteEvaluatorForSettler@@XZ:PROC ; CvGame::GetSettlerSiteEvaluator
; Function compile flags: /Odtp
;	COMDAT ?FindBestSites@CvCitySpecializationAI@@AAEXXZ
_TEXT	SEGMENT
_this$ = -168						; size = 4
$T233027 = -84						; size = 4
$T233023 = -80						; size = 4
$T233019 = -76						; size = 4
$T233010 = -72						; size = 4
$T233001 = -68						; size = 4
$T232997 = -64						; size = 4
$T232993 = -60						; size = 4
$T232989 = -56						; size = 4
$T232977 = -52						; size = 4
$T232973 = -48						; size = 4
$T232969 = -44						; size = 4
$T232965 = -40						; size = 4
$T232961 = -36						; size = 4
_iI$226361 = -32					; size = 4
_iI$226349 = -28					; size = 4
_pNearestCity$ = -24					; size = 4
_pPlot$ = -20						; size = 4
_pSiteEval$ = -16					; size = 4
_iPlotLoop$ = -12					; size = 4
_iEvalDistance$ = -8					; size = 4
_iPlotValue$ = -4					; size = 4
?FindBestSites@CvCitySpecializationAI@@AAEXXZ PROC	; CvCitySpecializationAI::FindBestSites, COMDAT
; _this$ = ecx

; 1201 : {

	push	ebp
	mov	ebp, esp
	sub	esp, 168				; 000000a8H
	mov	DWORD PTR _this$[ebp], ecx

; 1202 : 	CvPlot* pPlot;
; 1203 : 	int iPlotValue;
; 1204 : #ifdef AUI_WARNING_FIXES
; 1205 : 	uint iPlotLoop;
; 1206 : #else
; 1207 : 	int iPlotLoop;
; 1208 : #endif
; 1209 : 	CvCity* pNearestCity;
; 1210 : 
; 1211 : 	// Clear output
; 1212 : 	for(int iI = 0; iI <= YIELD_SCIENCE; iI++)

	mov	DWORD PTR _iI$226349[ebp], 0
	jmp	SHORT $LN15@FindBestSi
$LN14@FindBestSi:
	mov	eax, DWORD PTR _iI$226349[ebp]
	add	eax, 1
	mov	DWORD PTR _iI$226349[ebp], eax
$LN15@FindBestSi:
	cmp	DWORD PTR _iI$226349[ebp], 3
	jg	SHORT $LN13@FindBestSi

; 1213 : 	{
; 1214 : 		m_iBestValue[iI] = 0;

	mov	ecx, DWORD PTR _iI$226349[ebp]
	mov	edx, DWORD PTR _this$[ebp]
	mov	DWORD PTR [edx+ecx*4+28], 0

; 1215 : 	}

	jmp	SHORT $LN14@FindBestSi
$LN13@FindBestSi:

; 1216 : 
; 1217 : 	// Found value drops off based on distance, so safe to only look halfway out
; 1218 : 	int iEvalDistance = GC.getSETTLER_EVALUATION_DISTANCE() / 2;

	mov	eax, DWORD PTR ?gGlobals@@3VCvGlobals@@A+7252
	mov	DWORD PTR $T232961[ebp], eax
	mov	eax, DWORD PTR $T232961[ebp]
	cdq
	sub	eax, edx
	sar	eax, 1
	mov	DWORD PTR _iEvalDistance$[ebp], eax

; 1219 : 
; 1220 : 	CvSiteEvaluatorForSettler* pSiteEval = GC.getGame().GetSettlerSiteEvaluator();

	mov	ecx, DWORD PTR ?gGlobals@@3VCvGlobals@@A+48
	mov	DWORD PTR $T232965[ebp], ecx
	mov	ecx, DWORD PTR $T232965[ebp]
	call	?GetSettlerSiteEvaluator@CvGame@@QAEPAVCvSiteEvaluatorForSettler@@XZ ; CvGame::GetSettlerSiteEvaluator
	mov	DWORD PTR _pSiteEval$[ebp], eax

; 1221 : 	for(iPlotLoop = 0; iPlotLoop < GC.getMap().numPlots(); iPlotLoop++)

	mov	DWORD PTR _iPlotLoop$[ebp], 0
	jmp	SHORT $LN12@FindBestSi
$LN11@FindBestSi:
	mov	edx, DWORD PTR _iPlotLoop$[ebp]
	add	edx, 1
	mov	DWORD PTR _iPlotLoop$[ebp], edx
$LN12@FindBestSi:
	mov	eax, DWORD PTR ?gGlobals@@3VCvGlobals@@A+52
	mov	DWORD PTR $T232969[ebp], eax
	mov	ecx, DWORD PTR $T232969[ebp]
	mov	edx, DWORD PTR [ecx+4028]
	mov	DWORD PTR $T232973[ebp], edx
	mov	eax, DWORD PTR _iPlotLoop$[ebp]
	cmp	eax, DWORD PTR $T232973[ebp]
	jge	$LN10@FindBestSi

; 1222 : 	{
; 1223 : 		pPlot = GC.getMap().plotByIndexUnchecked(iPlotLoop);

	mov	ecx, DWORD PTR ?gGlobals@@3VCvGlobals@@A+52
	mov	DWORD PTR $T232977[ebp], ecx
	mov	edx, DWORD PTR _iPlotLoop$[ebp]
	imul	edx, 484				; 000001e4H
	mov	eax, DWORD PTR $T232977[ebp]
	add	edx, DWORD PTR [eax+4068]
	mov	DWORD PTR _pPlot$[ebp], edx

; 1224 : 
; 1225 : 		if(pSiteEval->CanFound(pPlot, m_pPlayer, true))

	push	1
	mov	ecx, DWORD PTR _this$[ebp]
	mov	edx, DWORD PTR [ecx]
	push	edx
	mov	eax, DWORD PTR _pPlot$[ebp]
	push	eax
	mov	ecx, DWORD PTR _pSiteEval$[ebp]
	mov	edx, DWORD PTR [ecx]
	mov	ecx, DWORD PTR _pSiteEval$[ebp]
	mov	eax, DWORD PTR [edx+8]
	call	eax
	movzx	ecx, al
	test	ecx, ecx
	je	$LN9@FindBestSi

; 1226 : 		{
; 1227 : 			// Check if within range of any of our cities
; 1228 : 			pNearestCity = GC.getMap().findCity(pPlot->getX(), pPlot->getY(), m_pPlayer->GetID(), NO_TEAM, true /* bSameArea */);

	mov	edx, DWORD PTR _this$[ebp]
	mov	eax, DWORD PTR [edx]
	mov	ecx, DWORD PTR [eax+44]
	mov	DWORD PTR $T232989[ebp], ecx
	mov	edx, DWORD PTR _pPlot$[ebp]
	movsx	eax, WORD PTR [edx+2]
	mov	DWORD PTR $T232993[ebp], eax
	mov	ecx, DWORD PTR _pPlot$[ebp]
	movsx	edx, WORD PTR [ecx]
	mov	DWORD PTR $T232997[ebp], edx
	mov	eax, DWORD PTR ?gGlobals@@3VCvGlobals@@A+52
	mov	DWORD PTR $T233001[ebp], eax
	push	0
	push	-1
	push	-1
	push	0
	push	1
	push	-1
	mov	ecx, DWORD PTR $T232989[ebp]
	push	ecx
	mov	edx, DWORD PTR $T232993[ebp]
	push	edx
	mov	eax, DWORD PTR $T232997[ebp]
	push	eax
	mov	ecx, DWORD PTR $T233001[ebp]
	call	?findCity@CvMap@@QAEPAVCvCity@@HHW4PlayerTypes@@W4TeamTypes@@_N21W4DirectionTypes@@PBV2@@Z ; CvMap::findCity
	mov	DWORD PTR _pNearestCity$[ebp], eax

; 1229 : 			if(pNearestCity != NULL)

	cmp	DWORD PTR _pNearestCity$[ebp], 0
	je	$LN9@FindBestSi

; 1230 : 			{
; 1231 : 				if(plotDistance(pPlot->getX(), pPlot->getY(), pNearestCity->getX(), pNearestCity->getY()) <= iEvalDistance)

	mov	ecx, DWORD PTR _pNearestCity$[ebp]
	mov	edx, DWORD PTR [ecx+108]
	mov	DWORD PTR $T233010[ebp], edx
	mov	eax, DWORD PTR _pNearestCity$[ebp]
	mov	ecx, DWORD PTR [eax+96]
	mov	DWORD PTR $T233019[ebp], ecx
	mov	edx, DWORD PTR _pPlot$[ebp]
	movsx	eax, WORD PTR [edx+2]
	mov	DWORD PTR $T233023[ebp], eax
	mov	ecx, DWORD PTR _pPlot$[ebp]
	movsx	edx, WORD PTR [ecx]
	mov	DWORD PTR $T233027[ebp], edx
	mov	eax, DWORD PTR $T233010[ebp]
	push	eax
	mov	ecx, DWORD PTR $T233019[ebp]
	push	ecx
	mov	edx, DWORD PTR $T233023[ebp]
	push	edx
	mov	eax, DWORD PTR $T233027[ebp]
	push	eax
	call	?plotDistance@@YAHHHHH@Z		; plotDistance
	add	esp, 16					; 00000010H
	cmp	eax, DWORD PTR _iEvalDistance$[ebp]
	jg	SHORT $LN9@FindBestSi

; 1232 : 				{
; 1233 : 					for(int iI = 0; iI <= YIELD_SCIENCE; iI++)

	mov	DWORD PTR _iI$226361[ebp], 0
	jmp	SHORT $LN6@FindBestSi
$LN5@FindBestSi:
	mov	ecx, DWORD PTR _iI$226361[ebp]
	add	ecx, 1
	mov	DWORD PTR _iI$226361[ebp], ecx
$LN6@FindBestSi:
	cmp	DWORD PTR _iI$226361[ebp], 3
	jg	SHORT $LN9@FindBestSi

; 1234 : 					{
; 1235 : 						if(iI != YIELD_SCIENCE)

	cmp	DWORD PTR _iI$226361[ebp], 3
	je	SHORT $LN3@FindBestSi

; 1236 : 						{
; 1237 : 							iPlotValue = PlotValueForSpecificYield(pPlot, (YieldTypes)iI);

	mov	edx, DWORD PTR _iI$226361[ebp]
	push	edx
	mov	eax, DWORD PTR _pPlot$[ebp]
	push	eax
