; Listing generated by Microsoft (R) Optimizing Compiler Version 15.00.30729.01 

	TITLE	D:\sources\Lekmod_git\checkout\LEKMOD_DLL\CvGameCoreDLL_Expansion2\CvCultureClasses.cpp
	.686P
	.XMM
	include listing.inc
	.model	flat

INCLUDELIB MSVCRT
INCLUDELIB OLDNAMES

PUBLIC	?NO_QUEST_DATA@CvMinorCivQuest@@2HB		; CvMinorCivQuest::NO_QUEST_DATA
PUBLIC	?NO_TURN@CvMinorCivQuest@@2HB			; CvMinorCivQuest::NO_TURN
;	COMDAT ?NO_TURN@CvMinorCivQuest@@2HB
CONST	SEGMENT
?NO_TURN@CvMinorCivQuest@@2HB DD 0ffffffffH		; CvMinorCivQuest::NO_TURN
CONST	ENDS
;	COMDAT ?NO_QUEST_DATA@CvMinorCivQuest@@2HB
CONST	SEGMENT
?NO_QUEST_DATA@CvMinorCivQuest@@2HB DD 0ffffffffH	; CvMinorCivQuest::NO_QUEST_DATA
CONST	ENDS
PUBLIC	??0CvGreatWork@@QAE@XZ				; CvGreatWork::CvGreatWork
EXTRN	__imp_??0?$basic_string@DU?$char_traits@D@std@@V?$allocator@D@2@@std@@QAE@XZ:PROC
; Function compile flags: /Odtp
; File d:\sources\lekmod_git\checkout\lekmod_dll\cvgamecoredll_expansion2\cvcultureclasses.cpp
;	COMDAT ??0CvGreatWork@@QAE@XZ
_TEXT	SEGMENT
_this$ = -4						; size = 4
??0CvGreatWork@@QAE@XZ PROC				; CvGreatWork::CvGreatWork, COMDAT
; _this$ = ecx

; 31   : {

	push	ebp
	mov	ebp, esp
	push	ecx
	mov	DWORD PTR _this$[ebp], ecx
	mov	ecx, DWORD PTR _this$[ebp]
	call	DWORD PTR __imp_??0?$basic_string@DU?$char_traits@D@std@@V?$allocator@D@2@@std@@QAE@XZ
	mov	eax, DWORD PTR _this$[ebp]
	mov	DWORD PTR [eax+28], -1
	mov	ecx, DWORD PTR _this$[ebp]
	mov	DWORD PTR [ecx+32], -1
	mov	edx, DWORD PTR _this$[ebp]
	mov	DWORD PTR [edx+36], -1
	mov	eax, DWORD PTR _this$[ebp]
	mov	DWORD PTR [eax+40], -1
	mov	ecx, DWORD PTR _this$[ebp]
	mov	DWORD PTR [ecx+44], -1

; 32   : }

	mov	eax, DWORD PTR _this$[ebp]
	mov	esp, ebp
	pop	ebp
	ret	0
??0CvGreatWork@@QAE@XZ ENDP				; CvGreatWork::CvGreatWork
_TEXT	ENDS
PUBLIC	??1CvString@@QAE@XZ				; CvString::~CvString
PUBLIC	??0CvGreatWork@@QAE@VCvString@@W4GreatWorkType@@W4GreatWorkClass@@HW4EraTypes@@W4PlayerTypes@@@Z ; CvGreatWork::CvGreatWork
EXTRN	__imp_??1?$basic_string@DU?$char_traits@D@std@@V?$allocator@D@2@@std@@QAE@XZ:PROC
EXTRN	?getGameTurn@CvGame@@QAEHXZ:PROC		; CvGame::getGameTurn
EXTRN	?gGlobals@@3VCvGlobals@@A:BYTE			; gGlobals
EXTRN	__imp_??0?$basic_string@DU?$char_traits@D@std@@V?$allocator@D@2@@std@@QAE@ABV01@@Z:PROC
EXTRN	___security_cookie:DWORD
EXTRN	___CxxFrameHandler3:PROC
EXTRN	@__security_check_cookie@4:PROC
;	COMDAT xdata$x
; File d:\sources\lekmod_git\checkout\lekmod_dll\cvgamecoredllutil\include\cvstring.h
xdata$x	SEGMENT
__unwindtable$??0CvGreatWork@@QAE@VCvString@@W4GreatWorkType@@W4GreatWorkClass@@HW4EraTypes@@W4PlayerTypes@@@Z DD 0ffffffffH
	DD	FLAT:__unwindfunclet$??0CvGreatWork@@QAE@VCvString@@W4GreatWorkType@@W4GreatWorkClass@@HW4EraTypes@@W4PlayerTypes@@@Z$0
	DD	00H
	DD	FLAT:__unwindfunclet$??0CvGreatWork@@QAE@VCvString@@W4GreatWorkType@@W4GreatWorkClass@@HW4EraTypes@@W4PlayerTypes@@@Z$1
__ehfuncinfo$??0CvGreatWork@@QAE@VCvString@@W4GreatWorkType@@W4GreatWorkClass@@HW4EraTypes@@W4PlayerTypes@@@Z DD 019930522H
	DD	02H
	DD	FLAT:__unwindtable$??0CvGreatWork@@QAE@VCvString@@W4GreatWorkType@@W4GreatWorkClass@@HW4EraTypes@@W4PlayerTypes@@@Z
	DD	2 DUP(00H)
	DD	2 DUP(00H)
	DD	00H
	DD	01H
; Function compile flags: /Odtp
; File d:\sources\lekmod_git\checkout\lekmod_dll\cvgamecoredll_expansion2\cvcultureclasses.cpp
xdata$x	ENDS
;	COMDAT ??0CvGreatWork@@QAE@VCvString@@W4GreatWorkType@@W4GreatWorkClass@@HW4EraTypes@@W4PlayerTypes@@@Z
_TEXT	SEGMENT
_this$ = -24						; size = 4
$T232132 = -20						; size = 4
__$EHRec$ = -12						; size = 12
_szGreatPersonName$ = 8					; size = 28
_eType$ = 36						; size = 4
_eClassType$ = 40					; size = 4
_iTurn$ = 44						; size = 4
_eEra$ = 48						; size = 4
_ePlayer$ = 52						; size = 4
??0CvGreatWork@@QAE@VCvString@@W4GreatWorkType@@W4GreatWorkClass@@HW4EraTypes@@W4PlayerTypes@@@Z PROC ; CvGreatWork::CvGreatWork, COMDAT
; _this$ = ecx

; 42   : {

	push	ebp
	mov	ebp, esp
	push	-1
	push	__ehhandler$??0CvGreatWork@@QAE@VCvString@@W4GreatWorkType@@W4GreatWorkClass@@HW4EraTypes@@W4PlayerTypes@@@Z
	mov	eax, DWORD PTR fs:0
	push	eax
	sub	esp, 12					; 0000000cH
	mov	eax, DWORD PTR ___security_cookie
	xor	eax, ebp
	push	eax
	lea	eax, DWORD PTR __$EHRec$[ebp]
	mov	DWORD PTR fs:0, eax
	mov	DWORD PTR _this$[ebp], ecx
	mov	DWORD PTR __$EHRec$[ebp+8], 0
	lea	eax, DWORD PTR _szGreatPersonName$[ebp]
	push	eax
	mov	ecx, DWORD PTR _this$[ebp]
	call	DWORD PTR __imp_??0?$basic_string@DU?$char_traits@D@std@@V?$allocator@D@2@@std@@QAE@ABV01@@Z
	mov	BYTE PTR __$EHRec$[ebp+8], 1
	mov	ecx, DWORD PTR _this$[ebp]
	mov	edx, DWORD PTR _eType$[ebp]
	mov	DWORD PTR [ecx+28], edx
	mov	eax, DWORD PTR _this$[ebp]
	mov	ecx, DWORD PTR _eClassType$[ebp]
	mov	DWORD PTR [eax+32], ecx
	mov	edx, DWORD PTR _this$[ebp]
	mov	eax, DWORD PTR _iTurn$[ebp]
	mov	DWORD PTR [edx+36], eax
	mov	ecx, DWORD PTR _this$[ebp]
	mov	edx, DWORD PTR _eEra$[ebp]
	mov	DWORD PTR [ecx+40], edx
	mov	eax, DWORD PTR _this$[ebp]
	mov	ecx, DWORD PTR _ePlayer$[ebp]
	mov	DWORD PTR [eax+44], ecx

; 43   : 	m_iTurnFounded = GC.getGame().getGameTurn();

	mov	edx, DWORD PTR ?gGlobals@@3VCvGlobals@@A+48
	mov	DWORD PTR $T232132[ebp], edx
	mov	ecx, DWORD PTR $T232132[ebp]
	call	?getGameTurn@CvGame@@QAEHXZ		; CvGame::getGameTurn
	mov	ecx, DWORD PTR _this$[ebp]
	mov	DWORD PTR [ecx+36], eax

; 44   : }

	mov	DWORD PTR __$EHRec$[ebp+8], -1
	lea	ecx, DWORD PTR _szGreatPersonName$[ebp]
	call	DWORD PTR __imp_??1?$basic_string@DU?$char_traits@D@std@@V?$allocator@D@2@@std@@QAE@XZ
	mov	eax, DWORD PTR _this$[ebp]
	mov	ecx, DWORD PTR __$EHRec$[ebp]
	mov	DWORD PTR fs:0, ecx
	pop	ecx
	mov	esp, ebp
	pop	ebp
	ret	48					; 00000030H
_TEXT	ENDS
;	COMDAT text$x
text$x	SEGMENT
__unwindfunclet$??0CvGreatWork@@QAE@VCvString@@W4GreatWorkType@@W4GreatWorkClass@@HW4EraTypes@@W4PlayerTypes@@@Z$0:
	lea	ecx, DWORD PTR _szGreatPersonName$[ebp]
	jmp	??1CvString@@QAE@XZ			; CvString::~CvString
__unwindfunclet$??0CvGreatWork@@QAE@VCvString@@W4GreatWorkType@@W4GreatWorkClass@@HW4EraTypes@@W4PlayerTypes@@@Z$1:
	mov	ecx, DWORD PTR _this$[ebp]
	jmp	??1CvString@@QAE@XZ			; CvString::~CvString
__ehhandler$??0CvGreatWork@@QAE@VCvString@@W4GreatWorkType@@W4GreatWorkClass@@HW4EraTypes@@W4PlayerTypes@@@Z:
	mov	edx, DWORD PTR [esp+8]
	lea	eax, DWORD PTR [edx+12]
	mov	ecx, DWORD PTR [edx-16]
	xor	ecx, eax
	call	@__security_check_cookie@4
	mov	eax, OFFSET __ehfuncinfo$??0CvGreatWork@@QAE@VCvString@@W4GreatWorkType@@W4GreatWorkClass@@HW4EraTypes@@W4PlayerTypes@@@Z
	jmp	___CxxFrameHandler3
text$x	ENDS
??0CvGreatWork@@QAE@VCvString@@W4GreatWorkType@@W4GreatWorkClass@@HW4EraTypes@@W4PlayerTypes@@@Z ENDP ; CvGreatWork::CvGreatWork
PUBLIC	?GetGreatWorkClass@CultureHelpers@@YA?AW4GreatWorkClass@@W4GreatWorkType@@@Z ; CultureHelpers::GetGreatWorkClass
PUBLIC	__$ArrayPad$
PUBLIC	??5@YAAAVFDataStream@@AAV0@AAVCvGreatWork@@@Z	; operator>>
EXTRN	??5@YAAAVFDataStream@@AAV0@AAW4PlayerTypes@@@Z:PROC ; operator>>
EXTRN	??5@YAAAVFDataStream@@AAV0@AAW4EraTypes@@@Z:PROC ; operator>>
EXTRN	?Read@FDataStream@@IAEXAAH@Z:PROC		; FDataStream::Read
EXTRN	?Read@FDataStream@@IAEXAAV?$basic_string@DU?$char_traits@D@std@@V?$allocator@D@2@@std@@@Z:PROC ; FDataStream::Read
EXTRN	?Read@FDataStream@@IAEXAAI@Z:PROC		; FDataStream::Read
;	COMDAT xdata$x
; File d:\sources\lekmod_git\checkout\lekmod_dll\fireplace\include\fireworks\fdatastream.h
xdata$x	SEGMENT
__unwindtable$??5@YAAAVFDataStream@@AAV0@AAVCvGreatWork@@@Z DD 0ffffffffH
	DD	FLAT:__unwindfunclet$??5@YAAAVFDataStream@@AAV0@AAVCvGreatWork@@@Z$0
__ehfuncinfo$??5@YAAAVFDataStream@@AAV0@AAVCvGreatWork@@@Z DD 019930522H
	DD	01H
	DD	FLAT:__unwindtable$??5@YAAAVFDataStream@@AAV0@AAVCvGreatWork@@@Z
	DD	2 DUP(00H)
	DD	2 DUP(00H)
	DD	00H
	DD	01H
; Function compile flags: /Odtp
; File d:\sources\lekmod_git\checkout\lekmod_dll\cvgamecoredll_expansion2\cvcultureclasses.cpp
xdata$x	ENDS
;	COMDAT ??5@YAAAVFDataStream@@AAV0@AAVCvGreatWork@@@Z
_TEXT	SEGMENT
_oldGreatWorkName$222525 = -52				; size = 28
__$ArrayPad$ = -24					; size = 4
_uiVersion$ = -20					; size = 4
_iTemp$ = -16						; size = 4
__$EHRec$ = -12						; size = 12
_loadFrom$ = 8						; size = 4
_writeTo$ = 12						; size = 4
??5@YAAAVFDataStream@@AAV0@AAVCvGreatWork@@@Z PROC	; operator>>, COMDAT

; 48   : {

	push	ebp
	mov	ebp, esp
	push	-1
	push	__ehhandler$??5@YAAAVFDataStream@@AAV0@AAVCvGreatWork@@@Z
	mov	eax, DWORD PTR fs:0
	push	eax
	sub	esp, 40					; 00000028H
	mov	eax, DWORD PTR ___security_cookie
	xor	eax, ebp
	mov	DWORD PTR __$ArrayPad$[ebp], eax
	push	eax
	lea	eax, DWORD PTR __$EHRec$[ebp]
	mov	DWORD PTR fs:0, eax

; 49   : 	int iTemp;
; 50   : 
; 51   : 	uint uiVersion;
; 52   : 	loadFrom >> uiVersion;

	lea	eax, DWORD PTR _uiVersion$[ebp]
	push	eax
	mov	ecx, DWORD PTR _loadFrom$[ebp]
	call	?Read@FDataStream@@IAEXAAI@Z		; FDataStream::Read

; 53   : 
; 54   : 	if(uiVersion == 1)

	cmp	DWORD PTR _uiVersion$[ebp], 1
	jne	SHORT $LN3@operator

; 55   : 	{
; 56   : 		CvString oldGreatWorkName;

	lea	ecx, DWORD PTR _oldGreatWorkName$222525[ebp]
	call	DWORD PTR __imp_??0?$basic_string@DU?$char_traits@D@std@@V?$allocator@D@2@@std@@QAE@XZ
	mov	DWORD PTR __$EHRec$[ebp+8], 0

; 57   : 		loadFrom >> oldGreatWorkName;

	lea	ecx, DWORD PTR _oldGreatWorkName$222525[ebp]
	push	ecx
	mov	ecx, DWORD PTR _loadFrom$[ebp]
	call	?Read@FDataStream@@IAEXAAV?$basic_string@DU?$char_traits@D@std@@V?$allocator@D@2@@std@@@Z ; FDataStream::Read

; 58   : 	}

	mov	DWORD PTR __$EHRec$[ebp+8], -1
	lea	ecx, DWORD PTR _oldGreatWorkName$222525[ebp]
	call	DWORD PTR __imp_??1?$basic_string@DU?$char_traits@D@std@@V?$allocator@D@2@@std@@QAE@XZ
$LN3@operator:

; 59   : 
; 60   : 	loadFrom >> writeTo.m_szGreatPersonName;

	mov	edx, DWORD PTR _writeTo$[ebp]
	push	edx
	mov	ecx, DWORD PTR _loadFrom$[ebp]
	call	?Read@FDataStream@@IAEXAAV?$basic_string@DU?$char_traits@D@std@@V?$allocator@D@2@@std@@@Z ; FDataStream::Read

; 61   : 
; 62   : 	loadFrom >> iTemp;

	lea	eax, DWORD PTR _iTemp$[ebp]
	push	eax
	mov	ecx, DWORD PTR _loadFrom$[ebp]
	call	?Read@FDataStream@@IAEXAAH@Z		; FDataStream::Read

; 63   : 	writeTo.m_eType = (GreatWorkType)iTemp;

	mov	ecx, DWORD PTR _writeTo$[ebp]
	mov	edx, DWORD PTR _iTemp$[ebp]
	mov	DWORD PTR [ecx+28], edx

; 64   : 
; 65   : 	if (uiVersion >= 3)

	cmp	DWORD PTR _uiVersion$[ebp], 3
	jb	SHORT $LN2@operator

; 66   : 	{
; 67   : 		loadFrom >> iTemp;

	lea	eax, DWORD PTR _iTemp$[ebp]
	push	eax
	mov	ecx, DWORD PTR _loadFrom$[ebp]
	call	?Read@FDataStream@@IAEXAAH@Z		; FDataStream::Read

; 68   : 		writeTo.m_eClassType = (GreatWorkClass)iTemp;

	mov	ecx, DWORD PTR _writeTo$[ebp]
	mov	edx, DWORD PTR _iTemp$[ebp]
	mov	DWORD PTR [ecx+32], edx

; 69   : 	}
; 70   : 	else

	jmp	SHORT $LN1@operator
$LN2@operator:

; 71   : 	{
; 72   : 		writeTo.m_eClassType = CultureHelpers::GetGreatWorkClass(writeTo.m_eType);

	mov	eax, DWORD PTR _writeTo$[ebp]
	mov	ecx, DWORD PTR [eax+28]
	push	ecx
	call	?GetGreatWorkClass@CultureHelpers@@YA?AW4GreatWorkClass@@W4GreatWorkType@@@Z ; CultureHelpers::GetGreatWorkClass
	add	esp, 4
	mov	edx, DWORD PTR _writeTo$[ebp]
	mov	DWORD PTR [edx+32], eax
$LN1@operator:

; 73   : 	}
; 74   : 
; 75   : 	loadFrom >> writeTo.m_iTurnFounded;

	mov	eax, DWORD PTR _writeTo$[ebp]
	add	eax, 36					; 00000024H
	push	eax
	mov	ecx, DWORD PTR _loadFrom$[ebp]
	call	?Read@FDataStream@@IAEXAAH@Z		; FDataStream::Read

; 76   : 	loadFrom >> writeTo.m_eEra;

	mov	ecx, DWORD PTR _writeTo$[ebp]
	add	ecx, 40					; 00000028H
	push	ecx
	mov	edx, DWORD PTR _loadFrom$[ebp]
	push	edx
	call	??5@YAAAVFDataStream@@AAV0@AAW4EraTypes@@@Z ; operator>>
	add	esp, 8

; 77   : 	loadFrom >> writeTo.m_ePlayer;

	mov	eax, DWORD PTR _writeTo$[ebp]
	add	eax, 44					; 0000002cH
	push	eax
	mov	ecx, DWORD PTR _loadFrom$[ebp]
	push	ecx
	call	??5@YAAAVFDataStream@@AAV0@AAW4PlayerTypes@@@Z ; operator>>
	add	esp, 8

; 78   : 
; 79   : 	return loadFrom;

	mov	eax, DWORD PTR _loadFrom$[ebp]

; 80   : }

	mov	ecx, DWORD PTR __$EHRec$[ebp]
	mov	DWORD PTR fs:0, ecx
	pop	ecx
	mov	ecx, DWORD PTR __$ArrayPad$[ebp]
	xor	ecx, ebp
	call	@__security_check_cookie@4
	mov	esp, ebp
	pop	ebp
	ret	0
_TEXT	ENDS
;	COMDAT text$x
text$x	SEGMENT
__unwindfunclet$??5@YAAAVFDataStream@@AAV0@AAVCvGreatWork@@@Z$0:
	lea	ecx, DWORD PTR _oldGreatWorkName$222525[ebp]
	jmp	??1CvString@@QAE@XZ			; CvString::~CvString
__ehhandler$??5@YAAAVFDataStream@@AAV0@AAVCvGreatWork@@@Z:
	mov	edx, DWORD PTR [esp+8]
	lea	eax, DWORD PTR [edx+12]
	mov	ecx, DWORD PTR [edx-44]
	xor	ecx, eax
	call	@__security_check_cookie@4
	mov	ecx, DWORD PTR [edx-12]
	xor	ecx, eax
	call	@__security_check_cookie@4
	mov	eax, OFFSET __ehfuncinfo$??5@YAAAVFDataStream@@AAV0@AAVCvGreatWork@@@Z
	jmp	___CxxFrameHandler3
text$x	ENDS
??5@YAAAVFDataStream@@AAV0@AAVCvGreatWork@@@Z ENDP	; operator>>
PUBLIC	??6@YAAAVFDataStream@@AAV0@ABVCvGreatWork@@@Z	; operator<<
EXTRN	??6@YAAAVFDataStream@@AAV0@ABW4PlayerTypes@@@Z:PROC ; operator<<
EXTRN	??6@YAAAVFDataStream@@AAV0@ABW4EraTypes@@@Z:PROC ; operator<<
EXTRN	?Write@FDataStream@@IAEXABH@Z:PROC		; FDataStream::Write
EXTRN	?Write@FDataStream@@IAEXABV?$basic_string@DU?$char_traits@D@std@@V?$allocator@D@2@@std@@@Z:PROC ; FDataStream::Write
EXTRN	?Write@FDataStream@@IAEXABI@Z:PROC		; FDataStream::Write
; Function compile flags: /Odtp
;	COMDAT ??6@YAAAVFDataStream@@AAV0@ABVCvGreatWork@@@Z
_TEXT	SEGMENT
$T232201 = -12						; size = 4
$T232196 = -8						; size = 4
_uiVersion$ = -4					; size = 4
_saveTo$ = 8						; size = 4
_readFrom$ = 12						; size = 4
??6@YAAAVFDataStream@@AAV0@ABVCvGreatWork@@@Z PROC	; operator<<, COMDAT

; 84   : {

	push	ebp
	mov	ebp, esp
	sub	esp, 12					; 0000000cH

; 85   : 	uint uiVersion = 3;

	mov	DWORD PTR _uiVersion$[ebp], 3

; 86   : 	saveTo << uiVersion;

	lea	eax, DWORD PTR _uiVersion$[ebp]
	push	eax
	mov	ecx, DWORD PTR _saveTo$[ebp]
	call	?Write@FDataStream@@IAEXABI@Z		; FDataStream::Write

; 87   : 
; 88   : 	saveTo << readFrom.m_szGreatPersonName;

	mov	ecx, DWORD PTR _readFrom$[ebp]
	push	ecx
	mov	ecx, DWORD PTR _saveTo$[ebp]
	call	?Write@FDataStream@@IAEXABV?$basic_string@DU?$char_traits@D@std@@V?$allocator@D@2@@std@@@Z ; FDataStream::Write

; 89   : 
; 90   : 	saveTo << readFrom.m_eType;

	mov	edx, DWORD PTR _readFrom$[ebp]
	mov	eax, DWORD PTR [edx+28]
	mov	DWORD PTR $T232196[ebp], eax
	lea	ecx, DWORD PTR $T232196[ebp]
	push	ecx
	mov	ecx, DWORD PTR _saveTo$[ebp]
	call	?Write@FDataStream@@IAEXABH@Z		; FDataStream::Write

; 91   : 	saveTo << readFrom.m_eClassType;

	mov	edx, DWORD PTR _readFrom$[ebp]
	mov	eax, DWORD PTR [edx+32]
	mov	DWORD PTR $T232201[ebp], eax
	lea	ecx, DWORD PTR $T232201[ebp]
	push	ecx
	mov	ecx, DWORD PTR _saveTo$[ebp]
	call	?Write@FDataStream@@IAEXABH@Z		; FDataStream::Write

; 92   : 	
; 93   : 	saveTo << readFrom.m_iTurnFounded;

	mov	edx, DWORD PTR _readFrom$[ebp]
	add	edx, 36					; 00000024H
	push	edx
	mov	ecx, DWORD PTR _saveTo$[ebp]
	call	?Write@FDataStream@@IAEXABH@Z		; FDataStream::Write

; 94   : 	saveTo << readFrom.m_eEra;

	mov	eax, DWORD PTR _readFrom$[ebp]
	add	eax, 40					; 00000028H
	push	eax
	mov	ecx, DWORD PTR _saveTo$[ebp]
	push	ecx
	call	??6@YAAAVFDataStream@@AAV0@ABW4EraTypes@@@Z ; operator<<
	add	esp, 8

; 95   : 	saveTo << readFrom.m_ePlayer;

	mov	edx, DWORD PTR _readFrom$[ebp]
	add	edx, 44					; 0000002cH
	push	edx
	mov	eax, DWORD PTR _saveTo$[ebp]
	push	eax
	call	??6@YAAAVFDataStream@@AAV0@ABW4PlayerTypes@@@Z ; operator<<
	add	esp, 8

; 96   : 
; 97   : 	return saveTo;

	mov	eax, DWORD PTR _saveTo$[ebp]

; 98   : }

	mov	esp, ebp
	pop	ebp
	ret	0
??6@YAAAVFDataStream@@AAV0@ABVCvGreatWork@@@Z ENDP	; operator<<
_TEXT	ENDS
PUBLIC	??1?$FStaticVector@VCvGreatWork@@$0BG@$0A@$0BCJ@$0A@@@QAE@XZ ; FStaticVector<CvGreatWork,22,0,297,0>::~FStaticVector<CvGreatWork,22,0,297,0>
PUBLIC	?clear@?$BaseVector@VCvGreatWork@@$0A@@@QAEXXZ	; BaseVector<CvGreatWork,0>::clear
PUBLIC	??0?$FStaticVector@VCvGreatWork@@$0BG@$0A@$0BCJ@$0A@@@QAE@XZ ; FStaticVector<CvGreatWork,22,0,297,0>::FStaticVector<CvGreatWork,22,0,297,0>
PUBLIC	??0CvGameCulture@@QAE@XZ			; CvGameCulture::CvGameCulture
;	COMDAT xdata$x
; File d:\sources\lekmod_git\checkout\lekmod_dll\cvgamecoredllutil\include\cvstring.h
xdata$x	SEGMENT
__unwindtable$??0CvGameCulture@@QAE@XZ DD 0ffffffffH
	DD	FLAT:__unwindfunclet$??0CvGameCulture@@QAE@XZ$0
__ehfuncinfo$??0CvGameCulture@@QAE@XZ DD 019930522H
	DD	01H
	DD	FLAT:__unwindtable$??0CvGameCulture@@QAE@XZ
	DD	2 DUP(00H)
	DD	2 DUP(00H)
	DD	00H
	DD	01H
; Function compile flags: /Odtp
; File d:\sources\lekmod_git\checkout\lekmod_dll\cvgamecoredll_expansion2\cvcultureclasses.cpp
xdata$x	ENDS
;	COMDAT ??0CvGameCulture@@QAE@XZ
_TEXT	SEGMENT
_this$ = -40						; size = 4
__$EHRec$ = -12						; size = 12
??0CvGameCulture@@QAE@XZ PROC				; CvGameCulture::CvGameCulture, COMDAT
; _this$ = ecx

; 105  : {

	push	ebp
	mov	ebp, esp
	push	-1
	push	__ehhandler$??0CvGameCulture@@QAE@XZ
	mov	eax, DWORD PTR fs:0
	push	eax
	sub	esp, 28					; 0000001cH
	mov	eax, DWORD PTR ___security_cookie
	xor	eax, ebp
	push	eax
	lea	eax, DWORD PTR __$EHRec$[ebp]
	mov	DWORD PTR fs:0, eax
	mov	DWORD PTR _this$[ebp], ecx
	mov	ecx, DWORD PTR _this$[ebp]
	call	??0?$FStaticVector@VCvGreatWork@@$0BG@$0A@$0BCJ@$0A@@@QAE@XZ ; FStaticVector<CvGreatWork,22,0,297,0>::FStaticVector<CvGreatWork,22,0,297,0>
	mov	DWORD PTR __$EHRec$[ebp+8], 0

; 106  : 	m_CurrentGreatWorks.clear();

	mov	ecx, DWORD PTR _this$[ebp]
	call	?clear@?$BaseVector@VCvGreatWork@@$0A@@@QAEXXZ ; BaseVector<CvGreatWork,0>::clear

; 107  : 
; 108  : 	m_bReportedSomeoneInfluential = false;

	mov	eax, DWORD PTR _this$[ebp]
	mov	BYTE PTR [eax+1072], 0

; 109  : }

	mov	DWORD PTR __$EHRec$[ebp+8], -1
	mov	eax, DWORD PTR _this$[ebp]
	mov	ecx, DWORD PTR __$EHRec$[ebp]
	mov	DWORD PTR fs:0, ecx
	pop	ecx
	mov	esp, ebp
	pop	ebp
	ret	0
_TEXT	ENDS
;	COMDAT text$x
text$x	SEGMENT
__unwindfunclet$??0CvGameCulture@@QAE@XZ$0:
	mov	ecx, DWORD PTR _this$[ebp]
	jmp	??1?$FStaticVector@VCvGreatWork@@$0BG@$0A@$0BCJ@$0A@@@QAE@XZ ; FStaticVector<CvGreatWork,22,0,297,0>::~FStaticVector<CvGreatWork,22,0,297,0>
__ehhandler$??0CvGameCulture@@QAE@XZ:
	mov	edx, DWORD PTR [esp+8]
	lea	eax, DWORD PTR [edx+12]
	mov	ecx, DWORD PTR [edx-32]
	xor	ecx, eax
	call	@__security_check_cookie@4
	mov	eax, OFFSET __ehfuncinfo$??0CvGameCulture@@QAE@XZ
	jmp	___CxxFrameHandler3
text$x	ENDS
??0CvGameCulture@@QAE@XZ ENDP				; CvGameCulture::CvGameCulture
PUBLIC	??1?$BaseVector@VCvGreatWork@@$0A@@@QAE@XZ	; BaseVector<CvGreatWork,0>::~BaseVector<CvGreatWork,0>
PUBLIC	?Free@?$FStaticVector@VCvGreatWork@@$0BG@$0A@$0BCJ@$0A@@@IAEXPAVCvGreatWork@@I@Z ; FStaticVector<CvGreatWork,22,0,297,0>::Free
PUBLIC	??1CvGameCulture@@QAE@XZ			; CvGameCulture::~CvGameCulture
;	COMDAT xdata$x
; File d:\sources\lekmod_git\checkout\lekmod_dll\fireplace\include\fireworks\ffastvector.h
xdata$x	SEGMENT
__unwindtable$??1CvGameCulture@@QAE@XZ DD 0ffffffffH
	DD	FLAT:__unwindfunclet$??1CvGameCulture@@QAE@XZ$1
__ehfuncinfo$??1CvGameCulture@@QAE@XZ DD 019930522H
	DD	01H
	DD	FLAT:__unwindtable$??1CvGameCulture@@QAE@XZ
	DD	2 DUP(00H)
	DD	2 DUP(00H)
	DD	00H
	DD	01H
; Function compile flags: /Odtp
; File d:\sources\lekmod_git\checkout\lekmod_dll\cvgamecoredll_expansion2\cvcultureclasses.cpp
xdata$x	ENDS
;	COMDAT ??1CvGameCulture@@QAE@XZ
_TEXT	SEGMENT
_this$ = -24						; size = 4
__$EHRec$ = -12						; size = 12
??1CvGameCulture@@QAE@XZ PROC				; CvGameCulture::~CvGameCulture, COMDAT
; _this$ = ecx

; 113  : {

	push	ebp
	mov	ebp, esp
	push	-1
	push	__ehhandler$??1CvGameCulture@@QAE@XZ
	mov	eax, DWORD PTR fs:0
	push	eax
	sub	esp, 12					; 0000000cH
	mov	eax, DWORD PTR ___security_cookie
	xor	eax, ebp
	push	eax
	lea	eax, DWORD PTR __$EHRec$[ebp]
	mov	DWORD PTR fs:0, eax
	mov	DWORD PTR _this$[ebp], ecx

; 114  : }

	mov	DWORD PTR __$EHRec$[ebp+8], 0
	mov	eax, DWORD PTR _this$[ebp]
	mov	ecx, DWORD PTR [eax+4]
	push	ecx
	mov	edx, DWORD PTR _this$[ebp]
	mov	eax, DWORD PTR [edx]
	push	eax
	mov	ecx, DWORD PTR _this$[ebp]
	call	?Free@?$FStaticVector@VCvGreatWork@@$0BG@$0A@$0BCJ@$0A@@@IAEXPAVCvGreatWork@@I@Z ; FStaticVector<CvGreatWork,22,0,297,0>::Free
	mov	DWORD PTR __$EHRec$[ebp+8], -1
	mov	ecx, DWORD PTR __$EHRec$[ebp]
	mov	DWORD PTR fs:0, ecx
	pop	ecx
	mov	esp, ebp
	pop	ebp
	ret	0
_TEXT	ENDS
;	COMDAT text$x
text$x	SEGMENT
__unwindfunclet$??1CvGameCulture@@QAE@XZ$1:
	mov	ecx, DWORD PTR _this$[ebp]
	jmp	??1?$BaseVector@VCvGreatWork@@$0A@@@QAE@XZ ; BaseVector<CvGreatWork,0>::~BaseVector<CvGreatWork,0>
__ehhandler$??1CvGameCulture@@QAE@XZ:
	mov	edx, DWORD PTR [esp+8]
	lea	eax, DWORD PTR [edx+12]
	mov	ecx, DWORD PTR [edx-16]
	xor	ecx, eax
	call	@__security_check_cookie@4
	mov	eax, OFFSET __ehfuncinfo$??1CvGameCulture@@QAE@XZ
	jmp	___CxxFrameHandler3
text$x	ENDS
??1CvGameCulture@@QAE@XZ ENDP				; CvGameCulture::~CvGameCulture
PUBLIC	?DoTurn@CvPlayerCulture@@QAEXXZ			; CvPlayerCulture::DoTurn
PUBLIC	?DoTurn@CvGameCulture@@QAEXXZ			; CvGameCulture::DoTurn
EXTRN	?GetCulture@CvPlayer@@QBEPAVCvPlayerCulture@@XZ:PROC ; CvPlayer::GetCulture
EXTRN	?m_aPlayers@CvPlayerAI@@1PAV1@A:DWORD		; CvPlayerAI::m_aPlayers
; Function compile flags: /Odtp
;	COMDAT ?DoTurn@CvGameCulture@@QAEXXZ
_TEXT	SEGMENT
_this$ = -20						; size = 4
$T232329 = -13						; size = 1
_ePlayer$222577 = -12					; size = 4
_kPlayer$222579 = -8					; size = 4
_uiPlayer$222573 = -4					; size = 4
?DoTurn@CvGameCulture@@QAEXXZ PROC			; CvGameCulture::DoTurn, COMDAT
; _this$ = ecx

; 118  : {

	push	ebp
	mov	ebp, esp
	sub	esp, 20					; 00000014H
	mov	DWORD PTR _this$[ebp], ecx

; 119  : 	for (uint uiPlayer = 0; uiPlayer < MAX_MAJOR_CIVS; uiPlayer++)

	mov	DWORD PTR _uiPlayer$222573[ebp], 0
	jmp	SHORT $LN4@DoTurn
$LN3@DoTurn:
	mov	eax, DWORD PTR _uiPlayer$222573[ebp]
	add	eax, 1
	mov	DWORD PTR _uiPlayer$222573[ebp], eax
$LN4@DoTurn:
	cmp	DWORD PTR _uiPlayer$222573[ebp], 22	; 00000016H
	jae	SHORT $LN5@DoTurn

; 120  : 	{
; 121  : 		PlayerTypes ePlayer = (PlayerTypes)uiPlayer;

	mov	ecx, DWORD PTR _uiPlayer$222573[ebp]
	mov	DWORD PTR _ePlayer$222577[ebp], ecx

; 122  : 		CvPlayer &kPlayer = GET_PLAYER(ePlayer);

	mov	edx, DWORD PTR _ePlayer$222577[ebp]
	imul	edx, 63236				; 0000f704H
	add	edx, DWORD PTR ?m_aPlayers@CvPlayerAI@@1PAV1@A ; CvPlayerAI::m_aPlayers
	mov	DWORD PTR _kPlayer$222579[ebp], edx

; 123  : 		if (kPlayer.isAlive())

	mov	eax, DWORD PTR _kPlayer$222579[ebp]
	mov	cl, BYTE PTR [eax+2256]
	mov	BYTE PTR $T232329[ebp], cl
	movzx	edx, BYTE PTR $T232329[ebp]
	test	edx, edx
	je	SHORT $LN1@DoTurn

; 124  : 		{
; 125  : 			kPlayer.GetCulture()->DoTurn();

	mov	ecx, DWORD PTR _kPlayer$222579[ebp]
	call	?GetCulture@CvPlayer@@QBEPAVCvPlayerCulture@@XZ ; CvPlayer::GetCulture
	mov	ecx, eax
	call	?DoTurn@CvPlayerCulture@@QAEXXZ		; CvPlayerCulture::DoTurn
$LN1@DoTurn:

; 126  : 		}

	jmp	SHORT $LN3@DoTurn
$LN5@DoTurn:

; 127  : 	}
; 128  : }

	mov	esp, ebp
	pop	ebp
	ret	0
?DoTurn@CvGameCulture@@QAEXXZ ENDP			; CvGameCulture::DoTurn
_TEXT	ENDS
PUBLIC	??1CvGreatWork@@QAE@XZ				; CvGreatWork::~CvGreatWork
PUBLIC	?push_back@?$FStaticVector@VCvGreatWork@@$0BG@$0A@$0BCJ@$0A@@@QAEIABVCvGreatWork@@@Z ; FStaticVector<CvGreatWork,22,0,297,0>::push_back
PUBLIC	__$ArrayPad$
PUBLIC	?CreateGreatWork@CvGameCulture@@QAEHW4GreatWorkType@@W4GreatWorkClass@@W4PlayerTypes@@W4EraTypes@@VCvString@@@Z ; CvGameCulture::CreateGreatWork
EXTRN	__imp_??4?$basic_string@DU?$char_traits@D@std@@V?$allocator@D@2@@std@@QAEAAV01@ABV01@@Z:PROC
;	COMDAT xdata$x
; File d:\sources\lekmod_git\checkout\lekmod_dll\cvgamecoredllutil\include\cvstring.h
xdata$x	SEGMENT
__unwindtable$?CreateGreatWork@CvGameCulture@@QAEHW4GreatWorkType@@W4GreatWorkClass@@W4PlayerTypes@@W4EraTypes@@VCvString@@@Z DD 0ffffffffH
	DD	FLAT:__unwindfunclet$?CreateGreatWork@CvGameCulture@@QAEHW4GreatWorkType@@W4GreatWorkClass@@W4PlayerTypes@@W4EraTypes@@VCvString@@@Z$0
	DD	00H
	DD	FLAT:__unwindfunclet$?CreateGreatWork@CvGameCulture@@QAEHW4GreatWorkType@@W4GreatWorkClass@@W4PlayerTypes@@W4EraTypes@@VCvString@@@Z$1
__ehfuncinfo$?CreateGreatWork@CvGameCulture@@QAEHW4GreatWorkType@@W4GreatWorkClass@@W4PlayerTypes@@W4EraTypes@@VCvString@@@Z DD 019930522H
	DD	02H
	DD	FLAT:__unwindtable$?CreateGreatWork@CvGameCulture@@QAEHW4GreatWorkType@@W4GreatWorkClass@@W4PlayerTypes@@W4EraTypes@@VCvString@@@Z
	DD	2 DUP(00H)
	DD	2 DUP(00H)
	DD	00H
	DD	01H
; Function compile flags: /Odtp
; File d:\sources\lekmod_git\checkout\lekmod_dll\cvgamecoredll_expansion2\cvcultureclasses.cpp
xdata$x	ENDS
;	COMDAT ?CreateGreatWork@CvGameCulture@@QAEHW4GreatWorkType@@W4GreatWorkClass@@W4PlayerTypes@@W4EraTypes@@VCvString@@@Z
_TEXT	SEGMENT
_this$ = -92						; size = 4
$T232346 = -80						; size = 4
$T232339 = -76						; size = 4
$T232333 = -72						; size = 4
_newGreatWork$ = -68					; size = 48
_iNumGreatWorks$ = -20					; size = 4
__$ArrayPad$ = -16					; size = 4
__$EHRec$ = -12						; size = 12
_eType$ = 8						; size = 4
_eClass$ = 12						; size = 4
_ePlayer$ = 16						; size = 4
_eEra$ = 20						; size = 4
_szCreator$ = 24					; size = 28
?CreateGreatWork@CvGameCulture@@QAEHW4GreatWorkType@@W4GreatWorkClass@@W4PlayerTypes@@W4EraTypes@@VCvString@@@Z PROC ; CvGameCulture::CreateGreatWork, COMDAT
; _this$ = ecx

; 132  : {

	push	ebp
	mov	ebp, esp
	push	-1
	push	__ehhandler$?CreateGreatWork@CvGameCulture@@QAEHW4GreatWorkType@@W4GreatWorkClass@@W4PlayerTypes@@W4EraTypes@@VCvString@@@Z
	mov	eax, DWORD PTR fs:0
	push	eax
	sub	esp, 80					; 00000050H
	mov	eax, DWORD PTR ___security_cookie
	xor	eax, ebp
	mov	DWORD PTR __$ArrayPad$[ebp], eax
	push	eax
	lea	eax, DWORD PTR __$EHRec$[ebp]
	mov	DWORD PTR fs:0, eax
	mov	DWORD PTR _this$[ebp], ecx
	mov	DWORD PTR __$EHRec$[ebp+8], 0

; 133  : 	CvGreatWork newGreatWork;

	lea	ecx, DWORD PTR _newGreatWork$[ebp]
	call	??0CvGreatWork@@QAE@XZ			; CvGreatWork::CvGreatWork
	mov	BYTE PTR __$EHRec$[ebp+8], 1

; 134  : 	newGreatWork.m_eType = eType;

	mov	eax, DWORD PTR _eType$[ebp]
	mov	DWORD PTR _newGreatWork$[ebp+28], eax

; 135  : 	newGreatWork.m_eClassType = eClass;

	mov	ecx, DWORD PTR _eClass$[ebp]
	mov	DWORD PTR _newGreatWork$[ebp+32], ecx

; 136  : 	newGreatWork.m_eEra = eEra;

	mov	edx, DWORD PTR _eEra$[ebp]
	mov	DWORD PTR _newGreatWork$[ebp+40], edx

; 137  : 	newGreatWork.m_ePlayer = ePlayer;

	mov	eax, DWORD PTR _ePlayer$[ebp]
	mov	DWORD PTR _newGreatWork$[ebp+44], eax

; 138  : 	newGreatWork.m_iTurnFounded = GC.getGame().getGameTurn();

	mov	ecx, DWORD PTR ?gGlobals@@3VCvGlobals@@A+48
	mov	DWORD PTR $T232339[ebp], ecx
	mov	ecx, DWORD PTR $T232339[ebp]
	call	?getGameTurn@CvGame@@QAEHXZ		; CvGame::getGameTurn
	mov	DWORD PTR _newGreatWork$[ebp+36], eax

; 139  : 	newGreatWork.m_szGreatPersonName = szCreator;

	lea	edx, DWORD PTR _szCreator$[ebp]
	push	edx
	lea	ecx, DWORD PTR _newGreatWork$[ebp]
	call	DWORD PTR __imp_??4?$basic_string@DU?$char_traits@D@std@@V?$allocator@D@2@@std@@QAEAAV01@ABV01@@Z

; 140  : 
; 141  : 	int iNumGreatWorks = m_CurrentGreatWorks.size();

	mov	eax, DWORD PTR _this$[ebp]
	mov	ecx, DWORD PTR [eax+4]
	mov	DWORD PTR $T232346[ebp], ecx
	mov	edx, DWORD PTR $T232346[ebp]
	mov	DWORD PTR _iNumGreatWorks$[ebp], edx

; 142  : 
; 143  : 	m_CurrentGreatWorks.push_back(newGreatWork);

	lea	eax, DWORD PTR _newGreatWork$[ebp]
	push	eax
	mov	ecx, DWORD PTR _this$[ebp]
	call	?push_back@?$FStaticVector@VCvGreatWork@@$0BG@$0A@$0BCJ@$0A@@@QAEIABVCvGreatWork@@@Z ; FStaticVector<CvGreatWork,22,0,297,0>::push_back

; 144  : 
; 145  : 	return iNumGreatWorks;

	mov	ecx, DWORD PTR _iNumGreatWorks$[ebp]
	mov	DWORD PTR $T232333[ebp], ecx
	mov	BYTE PTR __$EHRec$[ebp+8], 0
	lea	ecx, DWORD PTR _newGreatWork$[ebp]
	call	DWORD PTR __imp_??1?$basic_string@DU?$char_traits@D@std@@V?$allocator@D@2@@std@@QAE@XZ
	mov	DWORD PTR __$EHRec$[ebp+8], -1
	lea	ecx, DWORD PTR _szCreator$[ebp]
	call	DWORD PTR __imp_??1?$basic_string@DU?$char_traits@D@std@@V?$allocator@D@2@@std@@QAE@XZ
	mov	eax, DWORD PTR $T232333[ebp]

; 146  : }

	mov	ecx, DWORD PTR __$EHRec$[ebp]
	mov	DWORD PTR fs:0, ecx
	pop	ecx
	mov	ecx, DWORD PTR __$ArrayPad$[ebp]
	xor	ecx, ebp
	call	@__security_check_cookie@4
	mov	esp, ebp
	pop	ebp
	ret	44					; 0000002cH
_TEXT	ENDS
;	COMDAT text$x
text$x	SEGMENT
__unwindfunclet$?CreateGreatWork@CvGameCulture@@QAEHW4GreatWorkType@@W4GreatWorkClass@@W4PlayerTypes@@W4EraTypes@@VCvString@@@Z$0:
	lea	ecx, DWORD PTR _szCreator$[ebp]
	jmp	??1CvString@@QAE@XZ			; CvString::~CvString
__unwindfunclet$?CreateGreatWork@CvGameCulture@@QAEHW4GreatWorkType@@W4GreatWorkClass@@W4PlayerTypes@@W4EraTypes@@VCvString@@@Z$1:
	lea	ecx, DWORD PTR _newGreatWork$[ebp]
	jmp	??1CvGreatWork@@QAE@XZ
__ehhandler$?CreateGreatWork@CvGameCulture@@QAEHW4GreatWorkType@@W4GreatWorkClass@@W4PlayerTypes@@W4EraTypes@@VCvString@@@Z:
	mov	edx, DWORD PTR [esp+8]
	lea	eax, DWORD PTR [edx+12]
	mov	ecx, DWORD PTR [edx-84]
	xor	ecx, eax
	call	@__security_check_cookie@4
	mov	ecx, DWORD PTR [edx-4]
	xor	ecx, eax
	call	@__security_check_cookie@4
	mov	eax, OFFSET __ehfuncinfo$?CreateGreatWork@CvGameCulture@@QAEHW4GreatWorkType@@W4GreatWorkClass@@W4PlayerTypes@@W4EraTypes@@VCvString@@@Z
	jmp	___CxxFrameHandler3
text$x	ENDS
?CreateGreatWork@CvGameCulture@@QAEHW4GreatWorkType@@W4GreatWorkClass@@W4PlayerTypes@@W4EraTypes@@VCvString@@@Z ENDP ; CvGameCulture::CreateGreatWork
; Function compile flags: /Odtp
;	COMDAT ??1CvGreatWork@@QAE@XZ
_TEXT	SEGMENT
_this$ = -4						; size = 4
??1CvGreatWork@@QAE@XZ PROC				; CvGreatWork::~CvGreatWork, COMDAT
; _this$ = ecx
	push	ebp
	mov	ebp, esp
	push	ecx
	mov	DWORD PTR _this$[ebp], ecx
	mov	ecx, DWORD PTR _this$[ebp]
	call	DWORD PTR __imp_??1?$basic_string@DU?$char_traits@D@std@@V?$allocator@D@2@@std@@QAE@XZ
	mov	esp, ebp
	pop	ebp
	ret	0
??1CvGreatWork@@QAE@XZ ENDP				; CvGreatWork::~CvGreatWork
_TEXT	ENDS
PUBLIC	?GetGreatWorkType@CvGameCulture@@QBE?AW4GreatWorkType@@H@Z ; CvGameCulture::GetGreatWorkType
; Function compile flags: /Odtp
;	COMDAT ?GetGreatWorkType@CvGameCulture@@QBE?AW4GreatWorkType@@H@Z
_TEXT	SEGMENT
_this$ = -8						; size = 4
_pWork$ = -4						; size = 4
_iIndex$ = 8						; size = 4
?GetGreatWorkType@CvGameCulture@@QBE?AW4GreatWorkType@@H@Z PROC ; CvGameCulture::GetGreatWorkType, COMDAT
; _this$ = ecx

; 149  : {

	push	ebp
	mov	ebp, esp
	sub	esp, 8
	mov	DWORD PTR _this$[ebp], ecx

; 150  : 	CvAssertMsg (iIndex < GetNumGreatWorks(), "Bad Great Work index");
; 151  : 	const CvGreatWork* pWork = &m_CurrentGreatWorks[iIndex];

	mov	eax, DWORD PTR _iIndex$[ebp]
	imul	eax, 48					; 00000030H
	mov	ecx, DWORD PTR _this$[ebp]
	add	eax, DWORD PTR [ecx]
	mov	DWORD PTR _pWork$[ebp], eax

; 152  : 	return pWork->m_eType;

	mov	edx, DWORD PTR _pWork$[ebp]
	mov	eax, DWORD PTR [edx+28]

; 153  : }

	mov	esp, ebp
	pop	ebp
	ret	4
?GetGreatWorkType@CvGameCulture@@QBE?AW4GreatWorkType@@H@Z ENDP ; CvGameCulture::GetGreatWorkType
_TEXT	ENDS
PUBLIC	?GetGreatWorkClass@CvGameCulture@@QBE?AW4GreatWorkClass@@H@Z ; CvGameCulture::GetGreatWorkClass
; Function compile flags: /Odtp
;	COMDAT ?GetGreatWorkClass@CvGameCulture@@QBE?AW4GreatWorkClass@@H@Z
_TEXT	SEGMENT
_this$ = -8						; size = 4
_pWork$ = -4						; size = 4
_iIndex$ = 8						; size = 4
?GetGreatWorkClass@CvGameCulture@@QBE?AW4GreatWorkClass@@H@Z PROC ; CvGameCulture::GetGreatWorkClass, COMDAT
; _this$ = ecx

; 156  : {

	push	ebp
	mov	ebp, esp
	sub	esp, 8
	mov	DWORD PTR _this$[ebp], ecx

; 157  : 	CvAssertMsg (iIndex < GetNumGreatWorks(), "Bad Great Work index");
; 158  : 	const CvGreatWork* pWork = &m_CurrentGreatWorks[iIndex];

	mov	eax, DWORD PTR _iIndex$[ebp]
	imul	eax, 48					; 00000030H
	mov	ecx, DWORD PTR _this$[ebp]
	add	eax, DWORD PTR [ecx]
	mov	DWORD PTR _pWork$[ebp], eax

; 159  : 	return pWork->m_eClassType;

	mov	edx, DWORD PTR _pWork$[ebp]
	mov	eax, DWORD PTR [edx+32]

; 160  : }

	mov	esp, ebp
	pop	ebp
	ret	4
?GetGreatWorkClass@CvGameCulture@@QBE?AW4GreatWorkClass@@H@Z ENDP ; CvGameCulture::GetGreatWorkClass
_TEXT	ENDS
PUBLIC	?Format@CvString@@QAAXPBDZZ			; CvString::Format
PUBLIC	??_C@_0CH@IEKOAALF@?$CL?$CFd?5?$FLICON_CULTURE?$FN?0?5?$CL?$CFd?5?$FLICON_TO@ ; `string'
PUBLIC	??_C@_01PKGAHCOL@?$CJ?$AA@			; `string'
PUBLIC	??_C@_02GFKOMOKH@?5?$CI?$AA@			; `string'
PUBLIC	??_C@_09ODCIJKAA@?$FLNEWLINE?$FN?$AA@		; `string'
PUBLIC	?GetGreatWorkName@CultureHelpers@@YA?AVCvString@@W4GreatWorkType@@@Z ; CultureHelpers::GetGreatWorkName
PUBLIC	??_C@_00CNPNBAHC@?$AA@				; `string'
PUBLIC	__$ArrayPad$
PUBLIC	?GetGreatWorkTooltip@CvGameCulture@@QBE?AVCvString@@HW4PlayerTypes@@@Z ; CvGameCulture::GetGreatWorkTooltip
EXTRN	__imp_??1String@Localization@@UAE@XZ:PROC
EXTRN	?GetNumericModifier@CvPlayerPolicies@@QAEHW4PolicyModifierType@@@Z:PROC ; CvPlayerPolicies::GetNumericModifier
EXTRN	?GetPlayerPolicies@CvPlayer@@QBEPAVCvPlayerPolicies@@XZ:PROC ; CvPlayer::GetPlayerPolicies
EXTRN	?GetGreatWorkYieldChange@CvPlayer@@QBEHW4YieldTypes@@@Z:PROC ; CvPlayer::GetGreatWorkYieldChange
EXTRN	?getEraInfo@CvGlobals@@QAEPAVCvEraInfo@@W4EraTypes@@@Z:PROC ; CvGlobals::getEraInfo
EXTRN	?getCivilizationShortDescription@CvPlayer@@QBEPBDXZ:PROC ; CvPlayer::getCivilizationShortDescription
EXTRN	__imp_??Y?$basic_string@DU?$char_traits@D@std@@V?$allocator@D@2@@std@@QAEAAV01@ABV01@@Z:PROC
EXTRN	__imp_??Y?$basic_string@DU?$char_traits@D@std@@V?$allocator@D@2@@std@@QAEAAV01@PBD@Z:PROC
EXTRN	__imp_?clear@?$basic_string@DU?$char_traits@D@std@@V?$allocator@D@2@@std@@QAEXXZ:PROC
EXTRN	__imp_?assign@?$basic_string@DU?$char_traits@D@std@@V?$allocator@D@2@@std@@QAEAAV12@PBD@Z:PROC
EXTRN	__imp_?toUTF8@String@Localization@@QAEPBDXZ:PROC
EXTRN	__imp_?Lookup@Localization@@YA?AVString@1@PBD@Z:PROC
EXTRN	__imp_?c_str@?$basic_string@DU?$char_traits@D@std@@V?$allocator@D@2@@std@@QBEPBDXZ:PROC
EXTRN	?setDateStr@CvGameTextMgr@@SAXAAVCvString@@H_NW4CalendarTypes@@HW4GameSpeedTypes@@@Z:PROC ; CvGameTextMgr::setDateStr
EXTRN	?getCalendar@CvGame@@QBE?AW4CalendarTypes@@XZ:PROC ; CvGame::getCalendar
EXTRN	?getStartYear@CvGame@@QBEHXZ:PROC		; CvGame::getStartYear
EXTRN	?getGameSpeedType@CvGame@@QBE?AW4GameSpeedTypes@@XZ:PROC ; CvGame::getGameSpeedType
EXTRN	__imp_??0?$basic_string@DU?$char_traits@D@std@@V?$allocator@D@2@@std@@QAE@PBD@Z:PROC
;	COMDAT ??_C@_0CH@IEKOAALF@?$CL?$CFd?5?$FLICON_CULTURE?$FN?0?5?$CL?$CFd?5?$FLICON_TO@
; File d:\sources\lekmod_git\checkout\lekmod_dll\cvgamecoredllutil\include\cvstring.h
CONST	SEGMENT
??_C@_0CH@IEKOAALF@?$CL?$CFd?5?$FLICON_CULTURE?$FN?0?5?$CL?$CFd?5?$FLICON_TO@ DB '+'
	DB	'%d [ICON_CULTURE], +%d [ICON_TOURISM]', 00H	; `string'
CONST	ENDS
;	COMDAT ??_C@_01PKGAHCOL@?$CJ?$AA@
CONST	SEGMENT
??_C@_01PKGAHCOL@?$CJ?$AA@ DB ')', 00H			; `string'
CONST	ENDS
;	COMDAT ??_C@_02GFKOMOKH@?5?$CI?$AA@
CONST	SEGMENT
??_C@_02GFKOMOKH@?5?$CI?$AA@ DB ' (', 00H		; `string'
CONST	ENDS
;	COMDAT ??_C@_09ODCIJKAA@?$FLNEWLINE?$FN?$AA@
CONST	SEGMENT
??_C@_09ODCIJKAA@?$FLNEWLINE?$FN?$AA@ DB '[NEWLINE]', 00H ; `string'
CONST	ENDS
;	COMDAT ??_C@_00CNPNBAHC@?$AA@
CONST	SEGMENT
??_C@_00CNPNBAHC@?$AA@ DB 00H				; `string'
CONST	ENDS
;	COMDAT xdata$x
xdata$x	SEGMENT
__ehfuncinfo$?GetGreatWorkTooltip@CvGameCulture@@QBE?AVCvString@@HW4PlayerTypes@@@Z DD 019930522H
	DD	07H
	DD	FLAT:__unwindtable$?GetGreatWorkTooltip@CvGameCulture@@QBE?AVCvString@@HW4PlayerTypes@@@Z
	DD	2 DUP(00H)
	DD	2 DUP(00H)
	DD	00H
	DD	01H
__unwindtable$?GetGreatWorkTooltip@CvGameCulture@@QBE?AVCvString@@HW4PlayerTypes@@@Z DD 0ffffffffH
	DD	FLAT:__unwindfunclet$?GetGreatWorkTooltip@CvGameCulture@@QBE?AVCvString@@HW4PlayerTypes@@@Z$5
	DD	00H
	DD	FLAT:__unwindfunclet$?GetGreatWorkTooltip@CvGameCulture@@QBE?AVCvString@@HW4PlayerTypes@@@Z$0
	DD	01H
	DD	FLAT:__unwindfunclet$?GetGreatWorkTooltip@CvGameCulture@@QBE?AVCvString@@HW4PlayerTypes@@@Z$1
	DD	02H
	DD	FLAT:__unwindfunclet$?GetGreatWorkTooltip@CvGameCulture@@QBE?AVCvString@@HW4PlayerTypes@@@Z$2
	DD	03H
	DD	FLAT:__unwindfunclet$?GetGreatWorkTooltip@CvGameCulture@@QBE?AVCvString@@HW4PlayerTypes@@@Z$3
	DD	02H
	DD	FLAT:__unwindfunclet$?GetGreatWorkTooltip@CvGameCulture@@QBE?AVCvString@@HW4PlayerTypes@@@Z$3
	DD	05H
	DD	FLAT:__unwindfunclet$?GetGreatWorkTooltip@CvGameCulture@@QBE?AVCvString@@HW4PlayerTypes@@@Z$4
; Function compile flags: /Odtp
; File d:\sources\lekmod_git\checkout\lekmod_dll\cvgamecoredll_expansion2\cvcultureclasses.cpp
xdata$x	ENDS
;	COMDAT ?GetGreatWorkTooltip@CvGameCulture@@QBE?AVCvString@@HW4PlayerTypes@@@Z
_TEXT	SEGMENT
tv155 = -296						; size = 4
tv426 = -289						; size = 1
tv423 = -288						; size = 4
tv420 = -284						; size = 4
tv371 = -280						; size = 4
tv306 = -276						; size = 4
_this$ = -272						; size = 4
$T232481 = -268						; size = 4
$T232474 = -264						; size = 4
$T232463 = -260						; size = 4
$T232459 = -256						; size = 4
$T232452 = -252						; size = 4
$T232442 = -248						; size = 4
$T232441 = -244						; size = 4
$T232437 = -240						; size = 4
$T232433 = -236						; size = 4
$T232429 = -232						; size = 4
$T232409 = -228						; size = 4
$T232402 = -224						; size = 28
_strGreatWorkName$ = -196				; size = 80
_strYearString$ = -112					; size = 28
_cultureString$ = -84					; size = 28
_iCulturePerWork$ = -56					; size = 4
_iTourismPerWork$ = -52					; size = 4
_szTooltip$ = -48					; size = 28
__$ArrayPad$ = -20					; size = 4
_pWork$ = -16						; size = 4
__$EHRec$ = -12						; size = 12
___$ReturnUdt$ = 8					; size = 4
_iIndex$ = 12						; size = 4
_eOwner$ = 16						; size = 4
?GetGreatWorkTooltip@CvGameCulture@@QBE?AVCvString@@HW4PlayerTypes@@@Z PROC ; CvGameCulture::GetGreatWorkTooltip, COMDAT
; _this$ = ecx

; 164  : {

	push	ebp
	mov	ebp, esp
	push	-1
	push	__ehhandler$?GetGreatWorkTooltip@CvGameCulture@@QBE?AVCvString@@HW4PlayerTypes@@@Z
	mov	eax, DWORD PTR fs:0
	push	eax
	sub	esp, 284				; 0000011cH
	mov	eax, DWORD PTR ___security_cookie
	xor	eax, ebp
	mov	DWORD PTR __$ArrayPad$[ebp], eax
	push	eax
	lea	eax, DWORD PTR __$EHRec$[ebp]
	mov	DWORD PTR fs:0, eax
	mov	DWORD PTR _this$[ebp], ecx
	mov	DWORD PTR $T232409[ebp], 0

; 165  : 	CvAssertMsg (iIndex < GetNumGreatWorks(), "Bad Great Work index");
; 166  : 	CvString szTooltip = "";

	mov	eax, OFFSET ??_C@_00CNPNBAHC@?$AA@
	test	eax, eax
	je	SHORT $LN13@GetGreatWo
	mov	DWORD PTR tv306[ebp], OFFSET ??_C@_00CNPNBAHC@?$AA@
	jmp	SHORT $LN14@GetGreatWo
$LN13@GetGreatWo:
	mov	DWORD PTR tv306[ebp], OFFSET ??_C@_00CNPNBAHC@?$AA@
$LN14@GetGreatWo:
	mov	ecx, DWORD PTR tv306[ebp]
	push	ecx
	lea	ecx, DWORD PTR _szTooltip$[ebp]
	call	DWORD PTR __imp_??0?$basic_string@DU?$char_traits@D@std@@V?$allocator@D@2@@std@@QAE@PBD@Z
	mov	DWORD PTR __$EHRec$[ebp+8], 1

; 167  : 
; 168  : 	const CvGreatWork *pWork = &m_CurrentGreatWorks[iIndex];

	mov	edx, DWORD PTR _iIndex$[ebp]
	imul	edx, 48					; 00000030H
	mov	eax, DWORD PTR _this$[ebp]
	add	edx, DWORD PTR [eax]
	mov	DWORD PTR _pWork$[ebp], edx

; 169  : 
; 170  : 	CvString strYearString;

	lea	ecx, DWORD PTR _strYearString$[ebp]
	call	DWORD PTR __imp_??0?$basic_string@DU?$char_traits@D@std@@V?$allocator@D@2@@std@@QAE@XZ
	mov	BYTE PTR __$EHRec$[ebp+8], 2

; 171  : 	CvGameTextMgr::setDateStr(strYearString,
; 172  : 		pWork->m_iTurnFounded,
; 173  : 		false /*bSave*/,
; 174  : 		GC.getGame().getCalendar(),
; 175  : 		GC.getGame().getStartYear(),
; 176  : 		GC.getGame().getGameSpeedType());

	mov	ecx, DWORD PTR ?gGlobals@@3VCvGlobals@@A+48
	mov	DWORD PTR $T232429[ebp], ecx
	mov	edx, DWORD PTR ?gGlobals@@3VCvGlobals@@A+48
	mov	DWORD PTR $T232433[ebp], edx
	mov	eax, DWORD PTR ?gGlobals@@3VCvGlobals@@A+48
	mov	DWORD PTR $T232437[ebp], eax
	mov	ecx, DWORD PTR $T232429[ebp]
	call	?getGameSpeedType@CvGame@@QBE?AW4GameSpeedTypes@@XZ ; CvGame::getGameSpeedType
	push	eax
	mov	ecx, DWORD PTR $T232433[ebp]
	call	?getStartYear@CvGame@@QBEHXZ		; CvGame::getStartYear
	push	eax
	mov	ecx, DWORD PTR $T232437[ebp]
	call	?getCalendar@CvGame@@QBE?AW4CalendarTypes@@XZ ; CvGame::getCalendar
	push	eax
	push	0
	mov	ecx, DWORD PTR _pWork$[ebp]
	mov	edx, DWORD PTR [ecx+36]
	push	edx
	lea	eax, DWORD PTR _strYearString$[ebp]
	push	eax
	call	?setDateStr@CvGameTextMgr@@SAXAAVCvString@@H_NW4CalendarTypes@@HW4GameSpeedTypes@@@Z ; CvGameTextMgr::setDateStr
	add	esp, 24					; 00000018H

; 177  : 
; 178  : 	Localization::String strGreatWorkName = Localization::Lookup(CultureHelpers::GetGreatWorkName(pWork->m_eType));

	mov	ecx, DWORD PTR _pWork$[ebp]
	mov	edx, DWORD PTR [ecx+28]
	push	edx
	lea	eax, DWORD PTR $T232402[ebp]
	push	eax
	call	?GetGreatWorkName@CultureHelpers@@YA?AVCvString@@W4GreatWorkType@@@Z ; CultureHelpers::GetGreatWorkName
	add	esp, 8
	mov	DWORD PTR tv371[ebp], eax
	mov	ecx, DWORD PTR tv371[ebp]
	mov	DWORD PTR $T232441[ebp], ecx
	mov	BYTE PTR __$EHRec$[ebp+8], 3
	mov	ecx, DWORD PTR $T232441[ebp]
	call	DWORD PTR __imp_?c_str@?$basic_string@DU?$char_traits@D@std@@V?$allocator@D@2@@std@@QBEPBDXZ
	mov	DWORD PTR $T232442[ebp], eax
	mov	edx, DWORD PTR $T232442[ebp]
	push	edx
	lea	eax, DWORD PTR _strGreatWorkName$[ebp]
	push	eax
	call	DWORD PTR __imp_?Lookup@Localization@@YA?AVString@1@PBD@Z
	add	esp, 8
	mov	BYTE PTR __$EHRec$[ebp+8], 5
	lea	ecx, DWORD PTR $T232402[ebp]
	call	DWORD PTR __imp_??1?$basic_string@DU?$char_traits@D@std@@V?$allocator@D@2@@std@@QAE@XZ

; 179  : 
; 180  : 	szTooltip = strGreatWorkName.toUTF8();

	lea	ecx, DWORD PTR _strGreatWorkName$[ebp]
	call	DWORD PTR __imp_?toUTF8@String@Localization@@QAEPBDXZ
	mov	DWORD PTR $T232452[ebp], eax
	cmp	DWORD PTR $T232452[ebp], 0
	je	SHORT $LN33@GetGreatWo
	mov	ecx, DWORD PTR $T232452[ebp]
	push	ecx
	lea	ecx, DWORD PTR _szTooltip$[ebp]
	call	DWORD PTR __imp_?assign@?$basic_string@DU?$char_traits@D@std@@V?$allocator@D@2@@std@@QAEAAV12@PBD@Z
	jmp	SHORT $LN34@GetGreatWo
$LN33@GetGreatWo:
	lea	ecx, DWORD PTR _szTooltip$[ebp]
	call	DWORD PTR __imp_?clear@?$basic_string@DU?$char_traits@D@std@@V?$allocator@D@2@@std@@QAEXXZ
$LN34@GetGreatWo:

; 181  : 	szTooltip += "[NEWLINE]";

	push	OFFSET ??_C@_09ODCIJKAA@?$FLNEWLINE?$FN?$AA@
	lea	ecx, DWORD PTR _szTooltip$[ebp]
	call	DWORD PTR __imp_??Y?$basic_string@DU?$char_traits@D@std@@V?$allocator@D@2@@std@@QAEAAV01@PBD@Z

; 182  : 
; 183  : #ifdef AUI_WARNING_FIXES
; 184  : 	if (pWork->m_szGreatPersonName[0] != '\0')
; 185  : #else
; 186  : 	if (strlen(pWork->m_szGreatPersonName) > 0)

	mov	ecx, DWORD PTR _pWork$[ebp]
	call	DWORD PTR __imp_?c_str@?$basic_string@DU?$char_traits@D@std@@V?$allocator@D@2@@std@@QBEPBDXZ
	mov	DWORD PTR tv420[ebp], eax
	mov	edx, DWORD PTR tv420[ebp]
	add	edx, 1
	mov	DWORD PTR tv423[ebp], edx
$LL65@GetGreatWo:
	mov	eax, DWORD PTR tv420[ebp]
	mov	cl, BYTE PTR [eax]
	mov	BYTE PTR tv426[ebp], cl
	add	DWORD PTR tv420[ebp], 1
	cmp	BYTE PTR tv426[ebp], 0
	jne	SHORT $LL65@GetGreatWo
	mov	edx, DWORD PTR tv420[ebp]
	sub	edx, DWORD PTR tv423[ebp]
	mov	DWORD PTR tv155[ebp], edx
	je	SHORT $LN1@GetGreatWo

; 187  : #endif
; 188  : 	{
; 189  : 		szTooltip += pWork->m_szGreatPersonName;

	mov	eax, DWORD PTR _pWork$[ebp]
	push	eax
	lea	ecx, DWORD PTR _szTooltip$[ebp]
	call	DWORD PTR __imp_??Y?$basic_string@DU?$char_traits@D@std@@V?$allocator@D@2@@std@@QAEAAV01@ABV01@@Z

; 190  : 		szTooltip += "[NEWLINE]";

	push	OFFSET ??_C@_09ODCIJKAA@?$FLNEWLINE?$FN?$AA@
	lea	ecx, DWORD PTR _szTooltip$[ebp]
	call	DWORD PTR __imp_??Y?$basic_string@DU?$char_traits@D@std@@V?$allocator@D@2@@std@@QAEAAV01@PBD@Z
$LN1@GetGreatWo:

; 191  : 	}
; 192  : 	szTooltip += GET_PLAYER(pWork->m_ePlayer).getCivilizationShortDescription();

	mov	ecx, DWORD PTR _pWork$[ebp]
	mov	edx, DWORD PTR [ecx+44]
	imul	edx, 63236				; 0000f704H
	add	edx, DWORD PTR ?m_aPlayers@CvPlayerAI@@1PAV1@A ; CvPlayerAI::m_aPlayers
	mov	DWORD PTR $T232459[ebp], edx
	mov	ecx, DWORD PTR $T232459[ebp]
	call	?getCivilizationShortDescription@CvPlayer@@QBEPBDXZ ; CvPlayer::getCivilizationShortDescription
	push	eax
	lea	ecx, DWORD PTR _szTooltip$[ebp]
	call	DWORD PTR __imp_??Y?$basic_string@DU?$char_traits@D@std@@V?$allocator@D@2@@std@@QAEAAV01@PBD@Z

; 193  : 	szTooltip += "[NEWLINE]";

	push	OFFSET ??_C@_09ODCIJKAA@?$FLNEWLINE?$FN?$AA@
	lea	ecx, DWORD PTR _szTooltip$[ebp]
	call	DWORD PTR __imp_??Y?$basic_string@DU?$char_traits@D@std@@V?$allocator@D@2@@std@@QAEAAV01@PBD@Z

; 194  : 	szTooltip += GC.getEraInfo(pWork->m_eEra)->GetDescription();

	mov	eax, DWORD PTR _pWork$[ebp]
	mov	ecx, DWORD PTR [eax+40]
	push	ecx
	mov	ecx, OFFSET ?gGlobals@@3VCvGlobals@@A	; gGlobals
	call	?getEraInfo@CvGlobals@@QAEPAVCvEraInfo@@W4EraTypes@@@Z ; CvGlobals::getEraInfo
	mov	DWORD PTR $T232463[ebp], eax
	mov	ecx, DWORD PTR $T232463[ebp]
	add	ecx, 36					; 00000024H
	call	DWORD PTR __imp_?c_str@?$basic_string@DU?$char_traits@D@std@@V?$allocator@D@2@@std@@QBEPBDXZ
	push	eax
	lea	ecx, DWORD PTR _szTooltip$[ebp]
	call	DWORD PTR __imp_??Y?$basic_string@DU?$char_traits@D@std@@V?$allocator@D@2@@std@@QAEAAV01@PBD@Z

; 195  : 	szTooltip += " (";

	push	OFFSET ??_C@_02GFKOMOKH@?5?$CI?$AA@
	lea	ecx, DWORD PTR _szTooltip$[ebp]
	call	DWORD PTR __imp_??Y?$basic_string@DU?$char_traits@D@std@@V?$allocator@D@2@@std@@QAEAAV01@PBD@Z

; 196  : 	szTooltip += strYearString;

	lea	edx, DWORD PTR _strYearString$[ebp]
	push	edx
	lea	ecx, DWORD PTR _szTooltip$[ebp]
	call	DWORD PTR __imp_??Y?$basic_string@DU?$char_traits@D@std@@V?$allocator@D@2@@std@@QAEAAV01@ABV01@@Z

; 197  : 	szTooltip += ")";

	push	OFFSET ??_C@_01PKGAHCOL@?$CJ?$AA@
	lea	ecx, DWORD PTR _szTooltip$[ebp]
	call	DWORD PTR __imp_??Y?$basic_string@DU?$char_traits@D@std@@V?$allocator@D@2@@std@@QAEAAV01@PBD@Z

; 198  : 	szTooltip += "[NEWLINE]";

	push	OFFSET ??_C@_09ODCIJKAA@?$FLNEWLINE?$FN?$AA@
	lea	ecx, DWORD PTR _szTooltip$[ebp]
	call	DWORD PTR __imp_??Y?$basic_string@DU?$char_traits@D@std@@V?$allocator@D@2@@std@@QAEAAV01@PBD@Z

; 199  : 	CvString cultureString;

	lea	ecx, DWORD PTR _cultureString$[ebp]
	call	DWORD PTR __imp_??0?$basic_string@DU?$char_traits@D@std@@V?$allocator@D@2@@std@@QAE@XZ
	mov	BYTE PTR __$EHRec$[ebp+8], 6

; 200  : 	int iCulturePerWork = GC.getBASE_CULTURE_PER_GREAT_WORK();

	mov	eax, DWORD PTR ?gGlobals@@3VCvGlobals@@A+8208
	mov	DWORD PTR _iCulturePerWork$[ebp], eax

; 201  : 	iCulturePerWork += GET_PLAYER(eOwner).GetGreatWorkYieldChange(YIELD_CULTURE);

	mov	ecx, DWORD PTR _eOwner$[ebp]
	imul	ecx, 63236				; 0000f704H
	add	ecx, DWORD PTR ?m_aPlayers@CvPlayerAI@@1PAV1@A ; CvPlayerAI::m_aPlayers
	mov	DWORD PTR $T232474[ebp], ecx
	push	4
	mov	ecx, DWORD PTR $T232474[ebp]
	call	?GetGreatWorkYieldChange@CvPlayer@@QBEHW4YieldTypes@@@Z ; CvPlayer::GetGreatWorkYieldChange
	add	eax, DWORD PTR _iCulturePerWork$[ebp]
	mov	DWORD PTR _iCulturePerWork$[ebp], eax

; 202  : 	int iTourismPerWork = GC.getBASE_TOURISM_PER_GREAT_WORK();

	mov	edx, DWORD PTR ?gGlobals@@3VCvGlobals@@A+8212
	mov	DWORD PTR _iTourismPerWork$[ebp], edx

; 203  : 	iTourismPerWork += GET_PLAYER(eOwner).GetPlayerPolicies()->GetNumericModifier(POLICYMOD_EXTRA_TOURISM_PER_GREAT_WORK); // NQMP GJS - Cultural Exchange

	mov	eax, DWORD PTR _eOwner$[ebp]
	imul	eax, 63236				; 0000f704H
	add	eax, DWORD PTR ?m_aPlayers@CvPlayerAI@@1PAV1@A ; CvPlayerAI::m_aPlayers
	mov	DWORD PTR $T232481[ebp], eax
	push	63					; 0000003fH
	mov	ecx, DWORD PTR $T232481[ebp]
	call	?GetPlayerPolicies@CvPlayer@@QBEPAVCvPlayerPolicies@@XZ ; CvPlayer::GetPlayerPolicies
	mov	ecx, eax
	call	?GetNumericModifier@CvPlayerPolicies@@QAEHW4PolicyModifierType@@@Z ; CvPlayerPolicies::GetNumericModifier
	add	eax, DWORD PTR _iTourismPerWork$[ebp]
	mov	DWORD PTR _iTourismPerWork$[ebp], eax

; 204  : 
; 205  : 
; 206  : 	cultureString.Format ("+%d [ICON_CULTURE], +%d [ICON_TOURISM]", iCulturePerWork, iTourismPerWork);

	mov	ecx, DWORD PTR _iTourismPerWork$[ebp]
	push	ecx
	mov	edx, DWORD PTR _iCulturePerWork$[ebp]
	push	edx
	push	OFFSET ??_C@_0CH@IEKOAALF@?$CL?$CFd?5?$FLICON_CULTURE?$FN?0?5?$CL?$CFd?5?$FLICON_TO@
	lea	eax, DWORD PTR _cultureString$[ebp]
	push	eax
	call	?Format@CvString@@QAAXPBDZZ		; CvString::Format
	add	esp, 16					; 00000010H

; 207  : 	szTooltip += cultureString;

	lea	ecx, DWORD PTR _cultureString$[ebp]
	push	ecx
	lea	ecx, DWORD PTR _szTooltip$[ebp]
	call	DWORD PTR __imp_??Y?$basic_string@DU?$char_traits@D@std@@V?$allocator@D@2@@std@@QAEAAV01@ABV01@@Z

; 208  : 
; 209  : 	return szTooltip;

	lea	edx, DWORD PTR _szTooltip$[ebp]
	push	edx
	mov	ecx, DWORD PTR ___$ReturnUdt$[ebp]
	call	DWORD PTR __imp_??0?$basic_string@DU?$char_traits@D@std@@V?$allocator@D@2@@std@@QAE@ABV01@@Z
	mov	eax, DWORD PTR $T232409[ebp]
	or	eax, 1
	mov	DWORD PTR $T232409[ebp], eax
	mov	BYTE PTR __$EHRec$[ebp+8], 5
	lea	ecx, DWORD PTR _cultureString$[ebp]
	call	DWORD PTR __imp_??1?$basic_string@DU?$char_traits@D@std@@V?$allocator@D@2@@std@@QAE@XZ
	mov	BYTE PTR __$EHRec$[ebp+8], 2
	lea	ecx, DWORD PTR _strGreatWorkName$[ebp]
	call	DWORD PTR __imp_??1String@Localization@@UAE@XZ
	mov	BYTE PTR __$EHRec$[ebp+8], 1
	lea	ecx, DWORD PTR _strYearString$[ebp]
	call	DWORD PTR __imp_??1?$basic_string@DU?$char_traits@D@std@@V?$allocator@D@2@@std@@QAE@XZ
	mov	BYTE PTR __$EHRec$[ebp+8], 0
	lea	ecx, DWORD PTR _szTooltip$[ebp]
	call	DWORD PTR __imp_??1?$basic_string@DU?$char_traits@D@std@@V?$allocator@D@2@@std@@QAE@XZ
	mov	eax, DWORD PTR ___$ReturnUdt$[ebp]

; 210  : }

	mov	ecx, DWORD PTR __$EHRec$[ebp]
	mov	DWORD PTR fs:0, ecx
	pop	ecx
	mov	ecx, DWORD PTR __$ArrayPad$[ebp]
	xor	ecx, ebp
	call	@__security_check_cookie@4
	mov	esp, ebp
	pop	ebp
	ret	12					; 0000000cH
_TEXT	ENDS
;	COMDAT text$x
text$x	SEGMENT
__unwindfunclet$?GetGreatWorkTooltip@CvGameCulture@@QBE?AVCvString@@HW4PlayerTypes@@@Z$0:
	lea	ecx, DWORD PTR _szTooltip$[ebp]
	jmp	??1CvString@@QAE@XZ			; CvString::~CvString
__unwindfunclet$?GetGreatWorkTooltip@CvGameCulture@@QBE?AVCvString@@HW4PlayerTypes@@@Z$1:
	lea	ecx, DWORD PTR _strYearString$[ebp]
	jmp	??1CvString@@QAE@XZ			; CvString::~CvString
__unwindfunclet$?GetGreatWorkTooltip@CvGameCulture@@QBE?AVCvString@@HW4PlayerTypes@@@Z$2:
	lea	ecx, DWORD PTR $T232402[ebp]
	jmp	??1CvString@@QAE@XZ			; CvString::~CvString
__unwindfunclet$?GetGreatWorkTooltip@CvGameCulture@@QBE?AVCvString@@HW4PlayerTypes@@@Z$3:
	lea	ecx, DWORD PTR _strGreatWorkName$[ebp]
	jmp	DWORD PTR __imp_??1String@Localization@@UAE@XZ
__unwindfunclet$?GetGreatWorkTooltip@CvGameCulture@@QBE?AVCvString@@HW4PlayerTypes@@@Z$4:
	lea	ecx, DWORD PTR _cultureString$[ebp]
	jmp	??1CvString@@QAE@XZ			; CvString::~CvString
__unwindfunclet$?GetGreatWorkTooltip@CvGameCulture@@QBE?AVCvString@@HW4PlayerTypes@@@Z$5:
	mov	eax, DWORD PTR $T232409[ebp]
	and	eax, 1
	je	$LN10@GetGreatWo
	and	DWORD PTR $T232409[ebp], -2		; fffffffeH
	mov	ecx, DWORD PTR ___$ReturnUdt$[ebp]
	jmp	??1CvString@@QAE@XZ			; CvString::~CvString
$LN10@GetGreatWo:
	ret	0
__ehhandler$?GetGreatWorkTooltip@CvGameCulture@@QBE?AVCvString@@HW4PlayerTypes@@@Z:
	mov	edx, DWORD PTR [esp+8]
	lea	eax, DWORD PTR [edx+12]
	mov	ecx, DWORD PTR [edx-288]
	xor	ecx, eax
	call	@__security_check_cookie@4
	mov	ecx, DWORD PTR [edx-8]
	xor	ecx, eax
	call	@__security_check_cookie@4
	mov	eax, OFFSET __ehfuncinfo$?GetGreatWorkTooltip@CvGameCulture@@QBE?AVCvString@@HW4PlayerTypes@@@Z
	jmp	___CxxFrameHandler3
text$x	ENDS
?GetGreatWorkTooltip@CvGameCulture@@QBE?AVCvString@@HW4PlayerTypes@@@Z ENDP ; CvGameCulture::GetGreatWorkTooltip
PUBLIC	?GetGreatWorkName@CvGameCulture@@QBE?AVCvString@@H@Z ; CvGameCulture::GetGreatWorkName
; Function compile flags: /Odtp
;	COMDAT ?GetGreatWorkName@CvGameCulture@@QBE?AVCvString@@H@Z
_TEXT	SEGMENT
_this$ = -12						; size = 4
$T232508 = -8						; size = 4
_pWork$ = -4						; size = 4
___$ReturnUdt$ = 8					; size = 4
_iIndex$ = 12						; size = 4
?GetGreatWorkName@CvGameCulture@@QBE?AVCvString@@H@Z PROC ; CvGameCulture::GetGreatWorkName, COMDAT
; _this$ = ecx

; 214  : {

	push	ebp
	mov	ebp, esp
	sub	esp, 12					; 0000000cH
	mov	DWORD PTR _this$[ebp], ecx
	mov	DWORD PTR $T232508[ebp], 0

; 215  : 	CvAssertMsg (iIndex < GetNumGreatWorks(), "Bad Great Work index");
; 216  : 	const CvGreatWork* pWork = &m_CurrentGreatWorks[iIndex];

	mov	eax, DWORD PTR _iIndex$[ebp]
	imul	eax, 48					; 00000030H
	mov	ecx, DWORD PTR _this$[ebp]
	add	eax, DWORD PTR [ecx]
	mov	DWORD PTR _pWork$[ebp], eax

; 217  : 
; 218  : 	return CultureHelpers::GetGreatWorkName(pWork->m_eType);

	mov	edx, DWORD PTR _pWork$[ebp]
	mov	eax, DWORD PTR [edx+28]
	push	eax
	mov	ecx, DWORD PTR ___$ReturnUdt$[ebp]
	push	ecx
	call	?GetGreatWorkName@CultureHelpers@@YA?AVCvString@@W4GreatWorkType@@@Z ; CultureHelpers::GetGreatWorkName
	add	esp, 8
	mov	edx, DWORD PTR $T232508[ebp]
	or	edx, 1
	mov	DWORD PTR $T232508[ebp], edx
	mov	eax, DWORD PTR ___$ReturnUdt$[ebp]

; 219  : }

	mov	esp, ebp
	pop	ebp
	ret	8
?GetGreatWorkName@CvGameCulture@@QBE?AVCvString@@H@Z ENDP ; CvGameCulture::GetGreatWorkName
_TEXT	ENDS
PUBLIC	__$ArrayPad$
PUBLIC	?GetGreatWorkArtist@CvGameCulture@@QBE?AVCvString@@H@Z ; CvGameCulture::GetGreatWorkArtist
;	COMDAT xdata$x
; File d:\sources\lekmod_git\checkout\lekmod_dll\cvgamecoredllutil\include\cvstring.h
xdata$x	SEGMENT
__unwindtable$?GetGreatWorkArtist@CvGameCulture@@QBE?AVCvString@@H@Z DD 0ffffffffH
	DD	FLAT:__unwindfunclet$?GetGreatWorkArtist@CvGameCulture@@QBE?AVCvString@@H@Z$1
	DD	00H
	DD	FLAT:__unwindfunclet$?GetGreatWorkArtist@CvGameCulture@@QBE?AVCvString@@H@Z$0
__ehfuncinfo$?GetGreatWorkArtist@CvGameCulture@@QBE?AVCvString@@H@Z DD 019930522H
	DD	02H
	DD	FLAT:__unwindtable$?GetGreatWorkArtist@CvGameCulture@@QBE?AVCvString@@H@Z
	DD	2 DUP(00H)
	DD	2 DUP(00H)
	DD	00H
	DD	01H
; Function compile flags: /Odtp
; File d:\sources\lekmod_git\checkout\lekmod_dll\cvgamecoredll_expansion2\cvcultureclasses.cpp
xdata$x	ENDS
;	COMDAT ?GetGreatWorkArtist@CvGameCulture@@QBE?AVCvString@@H@Z
_TEXT	SEGMENT
tv94 = -60						; size = 4
_this$ = -56						; size = 4
$T232518 = -52						; size = 4
_szArtist$ = -48					; size = 28
__$ArrayPad$ = -20					; size = 4
_pWork$ = -16						; size = 4
__$EHRec$ = -12						; size = 12
___$ReturnUdt$ = 8					; size = 4
_iIndex$ = 12						; size = 4
?GetGreatWorkArtist@CvGameCulture@@QBE?AVCvString@@H@Z PROC ; CvGameCulture::GetGreatWorkArtist, COMDAT
; _this$ = ecx

; 223  : {

	push	ebp
	mov	ebp, esp
	push	-1
	push	__ehhandler$?GetGreatWorkArtist@CvGameCulture@@QBE?AVCvString@@H@Z
	mov	eax, DWORD PTR fs:0
	push	eax
	sub	esp, 48					; 00000030H
	mov	eax, DWORD PTR ___security_cookie
	xor	eax, ebp
	mov	DWORD PTR __$ArrayPad$[ebp], eax
	push	eax
	lea	eax, DWORD PTR __$EHRec$[ebp]
	mov	DWORD PTR fs:0, eax
	mov	DWORD PTR _this$[ebp], ecx
	mov	DWORD PTR $T232518[ebp], 0

; 224  : 	CvAssertMsg (iIndex < GetNumGreatWorks(), "Bad Great Work index");
; 225  : 	CvString szArtist = "";

	mov	eax, OFFSET ??_C@_00CNPNBAHC@?$AA@
	test	eax, eax
	je	SHORT $LN8@GetGreatWo@2
	mov	DWORD PTR tv94[ebp], OFFSET ??_C@_00CNPNBAHC@?$AA@
	jmp	SHORT $LN9@GetGreatWo@2
$LN8@GetGreatWo@2:
	mov	DWORD PTR tv94[ebp], OFFSET ??_C@_00CNPNBAHC@?$AA@
$LN9@GetGreatWo@2:
	mov	ecx, DWORD PTR tv94[ebp]
	push	ecx
	lea	ecx, DWORD PTR _szArtist$[ebp]
	call	DWORD PTR __imp_??0?$basic_string@DU?$char_traits@D@std@@V?$allocator@D@2@@std@@QAE@PBD@Z
	mov	DWORD PTR __$EHRec$[ebp+8], 1

; 226  : 
; 227  : 	const CvGreatWork *pWork = &m_CurrentGreatWorks[iIndex];

	mov	edx, DWORD PTR _iIndex$[ebp]
	imul	edx, 48					; 00000030H
	mov	eax, DWORD PTR _this$[ebp]
	add	edx, DWORD PTR [eax]
	mov	DWORD PTR _pWork$[ebp], edx

; 228  : 	szArtist = pWork->m_szGreatPersonName;

	mov	ecx, DWORD PTR _pWork$[ebp]
	push	ecx
	lea	ecx, DWORD PTR _szArtist$[ebp]
	call	DWORD PTR __imp_??4?$basic_string@DU?$char_traits@D@std@@V?$allocator@D@2@@std@@QAEAAV01@ABV01@@Z

; 229  : 
; 230  : 	return szArtist;

	lea	edx, DWORD PTR _szArtist$[ebp]
	push	edx
	mov	ecx, DWORD PTR ___$ReturnUdt$[ebp]
	call	DWORD PTR __imp_??0?$basic_string@DU?$char_traits@D@std@@V?$allocator@D@2@@std@@QAE@ABV01@@Z
	mov	eax, DWORD PTR $T232518[ebp]
	or	eax, 1
	mov	DWORD PTR $T232518[ebp], eax
	mov	BYTE PTR __$EHRec$[ebp+8], 0
	lea	ecx, DWORD PTR _szArtist$[ebp]
	call	DWORD PTR __imp_??1?$basic_string@DU?$char_traits@D@std@@V?$allocator@D@2@@std@@QAE@XZ
	mov	eax, DWORD PTR ___$ReturnUdt$[ebp]

; 231  : }

	mov	ecx, DWORD PTR __$EHRec$[ebp]
	mov	DWORD PTR fs:0, ecx
	pop	ecx
	mov	ecx, DWORD PTR __$ArrayPad$[ebp]
	xor	ecx, ebp
	call	@__security_check_cookie@4
	mov	esp, ebp
	pop	ebp
	ret	8
_TEXT	ENDS
;	COMDAT text$x
text$x	SEGMENT
__unwindfunclet$?GetGreatWorkArtist@CvGameCulture@@QBE?AVCvString@@H@Z$0:
	lea	ecx, DWORD PTR _szArtist$[ebp]
	jmp	??1CvString@@QAE@XZ			; CvString::~CvString
__unwindfunclet$?GetGreatWorkArtist@CvGameCulture@@QBE?AVCvString@@H@Z$1:
	mov	eax, DWORD PTR $T232518[ebp]
	and	eax, 1
	je	$LN5@GetGreatWo@2
	and	DWORD PTR $T232518[ebp], -2		; fffffffeH
	mov	ecx, DWORD PTR ___$ReturnUdt$[ebp]
	jmp	??1CvString@@QAE@XZ			; CvString::~CvString
$LN5@GetGreatWo@2:
	ret	0
__ehhandler$?GetGreatWorkArtist@CvGameCulture@@QBE?AVCvString@@H@Z:
	mov	edx, DWORD PTR [esp+8]
	lea	eax, DWORD PTR [edx+12]
	mov	ecx, DWORD PTR [edx-52]
	xor	ecx, eax
	call	@__security_check_cookie@4
	mov	ecx, DWORD PTR [edx-8]
	xor	ecx, eax
	call	@__security_check_cookie@4
	mov	eax, OFFSET __ehfuncinfo$?GetGreatWorkArtist@CvGameCulture@@QBE?AVCvString@@H@Z
	jmp	___CxxFrameHandler3
text$x	ENDS
?GetGreatWorkArtist@CvGameCulture@@QBE?AVCvString@@H@Z ENDP ; CvGameCulture::GetGreatWorkArtist
PUBLIC	__$ArrayPad$
PUBLIC	?GetGreatWorkEra@CvGameCulture@@QBE?AVCvString@@H@Z ; CvGameCulture::GetGreatWorkEra
;	COMDAT xdata$x
; File d:\sources\lekmod_git\checkout\lekmod_dll\cvgamecoredllutil\include\cvstring.h
xdata$x	SEGMENT
__unwindtable$?GetGreatWorkEra@CvGameCulture@@QBE?AVCvString@@H@Z DD 0ffffffffH
	DD	FLAT:__unwindfunclet$?GetGreatWorkEra@CvGameCulture@@QBE?AVCvString@@H@Z$2
	DD	00H
	DD	FLAT:__unwindfunclet$?GetGreatWorkEra@CvGameCulture@@QBE?AVCvString@@H@Z$0
	DD	01H
	DD	FLAT:__unwindfunclet$?GetGreatWorkEra@CvGameCulture@@QBE?AVCvString@@H@Z$1
__ehfuncinfo$?GetGreatWorkEra@CvGameCulture@@QBE?AVCvString@@H@Z DD 019930522H
	DD	03H
	DD	FLAT:__unwindtable$?GetGreatWorkEra@CvGameCulture@@QBE?AVCvString@@H@Z
	DD	2 DUP(00H)
	DD	2 DUP(00H)
	DD	00H
	DD	01H
; Function compile flags: /Odtp
; File d:\sources\lekmod_git\checkout\lekmod_dll\cvgamecoredll_expansion2\cvcultureclasses.cpp
xdata$x	ENDS
;	COMDAT ?GetGreatWorkEra@CvGameCulture@@QBE?AVCvString@@H@Z
_TEXT	SEGMENT
tv186 = -104						; size = 4
_this$ = -100						; size = 4
$T232586 = -96						; size = 4
$T232582 = -92						; size = 4
$T232578 = -88						; size = 4
$T232574 = -84						; size = 4
$T232554 = -80						; size = 4
_strYearString$ = -76					; size = 28
_szEra$ = -48						; size = 28
__$ArrayPad$ = -20					; size = 4
_pWork$ = -16						; size = 4
__$EHRec$ = -12						; size = 12
___$ReturnUdt$ = 8					; size = 4
_iIndex$ = 12						; size = 4
?GetGreatWorkEra@CvGameCulture@@QBE?AVCvString@@H@Z PROC ; CvGameCulture::GetGreatWorkEra, COMDAT
; _this$ = ecx

; 235  : {

	push	ebp
	mov	ebp, esp
	push	-1
	push	__ehhandler$?GetGreatWorkEra@CvGameCulture@@QBE?AVCvString@@H@Z
	mov	eax, DWORD PTR fs:0
	push	eax
	sub	esp, 92					; 0000005cH
	mov	eax, DWORD PTR ___security_cookie
	xor	eax, ebp
	mov	DWORD PTR __$ArrayPad$[ebp], eax
	push	eax
	lea	eax, DWORD PTR __$EHRec$[ebp]
	mov	DWORD PTR fs:0, eax
	mov	DWORD PTR _this$[ebp], ecx
	mov	DWORD PTR $T232554[ebp], 0

; 236  : 	CvAssertMsg (iIndex < GetNumGreatWorks(), "Bad Great Work index");
; 237  : 	CvString szEra = "";

	mov	eax, OFFSET ??_C@_00CNPNBAHC@?$AA@
	test	eax, eax
	je	SHORT $LN9@GetGreatWo@3
	mov	DWORD PTR tv186[ebp], OFFSET ??_C@_00CNPNBAHC@?$AA@
	jmp	SHORT $LN10@GetGreatWo@3
$LN9@GetGreatWo@3:
	mov	DWORD PTR tv186[ebp], OFFSET ??_C@_00CNPNBAHC@?$AA@
$LN10@GetGreatWo@3:
	mov	ecx, DWORD PTR tv186[ebp]
	push	ecx
	lea	ecx, DWORD PTR _szEra$[ebp]
	call	DWORD PTR __imp_??0?$basic_string@DU?$char_traits@D@std@@V?$allocator@D@2@@std@@QAE@PBD@Z
	mov	DWORD PTR __$EHRec$[ebp+8], 1

; 238  : 
; 239  : 	const CvGreatWork *pWork = &m_CurrentGreatWorks[iIndex];

	mov	edx, DWORD PTR _iIndex$[ebp]
	imul	edx, 48					; 00000030H
	mov	eax, DWORD PTR _this$[ebp]
	add	edx, DWORD PTR [eax]
	mov	DWORD PTR _pWork$[ebp], edx

; 240  : 
; 241  : 	CvString strYearString;

	lea	ecx, DWORD PTR _strYearString$[ebp]
	call	DWORD PTR __imp_??0?$basic_string@DU?$char_traits@D@std@@V?$allocator@D@2@@std@@QAE@XZ
	mov	BYTE PTR __$EHRec$[ebp+8], 2

; 242  : 	CvGameTextMgr::setDateStr(strYearString,
; 243  : 		pWork->m_iTurnFounded,
; 244  : 		false /*bSave*/,
; 245  : 		GC.getGame().getCalendar(),
; 246  : 		GC.getGame().getStartYear(),
; 247  : 		GC.getGame().getGameSpeedType());

	mov	ecx, DWORD PTR ?gGlobals@@3VCvGlobals@@A+48
	mov	DWORD PTR $T232574[ebp], ecx
	mov	edx, DWORD PTR ?gGlobals@@3VCvGlobals@@A+48
	mov	DWORD PTR $T232578[ebp], edx
	mov	eax, DWORD PTR ?gGlobals@@3VCvGlobals@@A+48
	mov	DWORD PTR $T232582[ebp], eax
	mov	ecx, DWORD PTR $T232574[ebp]
	call	?getGameSpeedType@CvGame@@QBE?AW4GameSpeedTypes@@XZ ; CvGame::getGameSpeedType
	push	eax
	mov	ecx, DWORD PTR $T232578[ebp]
	call	?getStartYear@CvGame@@QBEHXZ		; CvGame::getStartYear
	push	eax
	mov	ecx, DWORD PTR $T232582[ebp]
	call	?getCalendar@CvGame@@QBE?AW4CalendarTypes@@XZ ; CvGame::getCalendar
	push	eax
	push	0
	mov	ecx, DWORD PTR _pWork$[ebp]
	mov	edx, DWORD PTR [ecx+36]
	push	edx
	lea	eax, DWORD PTR _strYearString$[ebp]
	push	eax
	call	?setDateStr@CvGameTextMgr@@SAXAAVCvString@@H_NW4CalendarTypes@@HW4GameSpeedTypes@@@Z ; CvGameTextMgr::setDateStr
	add	esp, 24					; 00000018H

; 248  : 
; 249  : 	szEra += GC.getEraInfo(pWork->m_eEra)->GetDescription();

	mov	ecx, DWORD PTR _pWork$[ebp]
	mov	edx, DWORD PTR [ecx+40]
	push	edx
	mov	ecx, OFFSET ?gGlobals@@3VCvGlobals@@A	; gGlobals
	call	?getEraInfo@CvGlobals@@QAEPAVCvEraInfo@@W4EraTypes@@@Z ; CvGlobals::getEraInfo
	mov	DWORD PTR $T232586[ebp], eax
	mov	ecx, DWORD PTR $T232586[ebp]
	add	ecx, 36					; 00000024H
	call	DWORD PTR __imp_?c_str@?$basic_string@DU?$char_traits@D@std@@V?$allocator@D@2@@std@@QBEPBDXZ
	push	eax
	lea	ecx, DWORD PTR _szEra$[ebp]
	call	DWORD PTR __imp_??Y?$basic_string@DU?$char_traits@D@std@@V?$allocator@D@2@@std@@QAEAAV01@PBD@Z

; 250  : 	szEra += " (";

	push	OFFSET ??_C@_02GFKOMOKH@?5?$CI?$AA@
	lea	ecx, DWORD PTR _szEra$[ebp]
	call	DWORD PTR __imp_??Y?$basic_string@DU?$char_traits@D@std@@V?$allocator@D@2@@std@@QAEAAV01@PBD@Z

; 251  : 	szEra += strYearString;

	lea	eax, DWORD PTR _strYearString$[ebp]
	push	eax
	lea	ecx, DWORD PTR _szEra$[ebp]
	call	DWORD PTR __imp_??Y?$basic_string@DU?$char_traits@D@std@@V?$allocator@D@2@@std@@QAEAAV01@ABV01@@Z

; 252  : 	szEra += ")";

	push	OFFSET ??_C@_01PKGAHCOL@?$CJ?$AA@
	lea	ecx, DWORD PTR _szEra$[ebp]
	call	DWORD PTR __imp_??Y?$basic_string@DU?$char_traits@D@std@@V?$allocator@D@2@@std@@QAEAAV01@PBD@Z

; 253  : 
; 254  : 	return szEra;

	lea	ecx, DWORD PTR _szEra$[ebp]
	push	ecx
	mov	ecx, DWORD PTR ___$ReturnUdt$[ebp]
	call	DWORD PTR __imp_??0?$basic_string@DU?$char_traits@D@std@@V?$allocator@D@2@@std@@QAE@ABV01@@Z
	mov	edx, DWORD PTR $T232554[ebp]
	or	edx, 1
	mov	DWORD PTR $T232554[ebp], edx
	mov	BYTE PTR __$EHRec$[ebp+8], 1
	lea	ecx, DWORD PTR _strYearString$[ebp]
	call	DWORD PTR __imp_??1?$basic_string@DU?$char_traits@D@std@@V?$allocator@D@2@@std@@QAE@XZ
	mov	BYTE PTR __$EHRec$[ebp+8], 0
	lea	ecx, DWORD PTR _szEra$[ebp]
	call	DWORD PTR __imp_??1?$basic_string@DU?$char_traits@D@std@@V?$allocator@D@2@@std@@QAE@XZ
	mov	eax, DWORD PTR ___$ReturnUdt$[ebp]

; 255  : }

	mov	ecx, DWORD PTR __$EHRec$[ebp]
	mov	DWORD PTR fs:0, ecx
	pop	ecx
	mov	ecx, DWORD PTR __$ArrayPad$[ebp]
	xor	ecx, ebp
	call	@__security_check_cookie@4
	mov	esp, ebp
	pop	ebp
	ret	8
_TEXT	ENDS
;	COMDAT text$x
text$x	SEGMENT
__unwindfunclet$?GetGreatWorkEra@CvGameCulture@@QBE?AVCvString@@H@Z$0:
	lea	ecx, DWORD PTR _szEra$[ebp]
	jmp	??1CvString@@QAE@XZ			; CvString::~CvString
__unwindfunclet$?GetGreatWorkEra@CvGameCulture@@QBE?AVCvString@@H@Z$1:
	lea	ecx, DWORD PTR _strYearString$[ebp]
	jmp	??1CvString@@QAE@XZ			; CvString::~CvString
__unwindfunclet$?GetGreatWorkEra@CvGameCulture@@QBE?AVCvString@@H@Z$2:
	mov	eax, DWORD PTR $T232554[ebp]
	and	eax, 1
	je	$LN6@GetGreatWo@3
	and	DWORD PTR $T232554[ebp], -2		; fffffffeH
	mov	ecx, DWORD PTR ___$ReturnUdt$[ebp]
	jmp	??1CvString@@QAE@XZ			; CvString::~CvString
$LN6@GetGreatWo@3:
	ret	0
__ehhandler$?GetGreatWorkEra@CvGameCulture@@QBE?AVCvString@@H@Z:
	mov	edx, DWORD PTR [esp+8]
	lea	eax, DWORD PTR [edx+12]
	mov	ecx, DWORD PTR [edx-96]
	xor	ecx, eax
	call	@__security_check_cookie@4
	mov	ecx, DWORD PTR [edx-8]
	xor	ecx, eax
	call	@__security_check_cookie@4
	mov	eax, OFFSET __ehfuncinfo$?GetGreatWorkEra@CvGameCulture@@QBE?AVCvString@@H@Z
	jmp	___CxxFrameHandler3
text$x	ENDS
?GetGreatWorkEra@CvGameCulture@@QBE?AVCvString@@H@Z ENDP ; CvGameCulture::GetGreatWorkEra
PUBLIC	__$ArrayPad$
PUBLIC	?GetGreatWorkEraAbbreviation@CvGameCulture@@QBE?AVCvString@@H@Z ; CvGameCulture::GetGreatWorkEraAbbreviation
EXTRN	?getAbbreviation@CvEraInfo@@QBEPBDXZ:PROC	; CvEraInfo::getAbbreviation
;	COMDAT xdata$x
; File d:\sources\lekmod_git\checkout\lekmod_dll\cvgamecoredllutil\include\cvstring.h
xdata$x	SEGMENT
__unwindtable$?GetGreatWorkEraAbbreviation@CvGameCulture@@QBE?AVCvString@@H@Z DD 0ffffffffH
	DD	FLAT:__unwindfunclet$?GetGreatWorkEraAbbreviation@CvGameCulture@@QBE?AVCvString@@H@Z$1
	DD	00H
	DD	FLAT:__unwindfunclet$?GetGreatWorkEraAbbreviation@CvGameCulture@@QBE?AVCvString@@H@Z$0
__ehfuncinfo$?GetGreatWorkEraAbbreviation@CvGameCulture@@QBE?AVCvString@@H@Z DD 019930522H
	DD	02H
	DD	FLAT:__unwindtable$?GetGreatWorkEraAbbreviation@CvGameCulture@@QBE?AVCvString@@H@Z
	DD	2 DUP(00H)
	DD	2 DUP(00H)
	DD	00H
	DD	01H
; Function compile flags: /Odtp
; File d:\sources\lekmod_git\checkout\lekmod_dll\cvgamecoredll_expansion2\cvcultureclasses.cpp
xdata$x	ENDS
;	COMDAT ?GetGreatWorkEraAbbreviation@CvGameCulture@@QBE?AVCvString@@H@Z
_TEXT	SEGMENT
tv132 = -64						; size = 4
_this$ = -60						; size = 4
$T232628 = -56						; size = 4
$T232610 = -52						; size = 4
_szEra$ = -48						; size = 28
__$ArrayPad$ = -20					; size = 4
_pWork$ = -16						; size = 4
__$EHRec$ = -12						; size = 12
___$ReturnUdt$ = 8					; size = 4
_iIndex$ = 12						; size = 4
?GetGreatWorkEraAbbreviation@CvGameCulture@@QBE?AVCvString@@H@Z PROC ; CvGameCulture::GetGreatWorkEraAbbreviation, COMDAT
; _this$ = ecx

; 258  : {

	push	ebp
	mov	ebp, esp
	push	-1
	push	__ehhandler$?GetGreatWorkEraAbbreviation@CvGameCulture@@QBE?AVCvString@@H@Z
	mov	eax, DWORD PTR fs:0
	push	eax
	sub	esp, 52					; 00000034H
	mov	eax, DWORD PTR ___security_cookie
	xor	eax, ebp
	mov	DWORD PTR __$ArrayPad$[ebp], eax
	push	eax
	lea	eax, DWORD PTR __$EHRec$[ebp]
	mov	DWORD PTR fs:0, eax
	mov	DWORD PTR _this$[ebp], ecx
	mov	DWORD PTR $T232610[ebp], 0

; 259  : 	CvAssertMsg (iIndex < GetNumGreatWorks(), "Bad Great Work index");
; 260  : 	CvString szEra = "";

	mov	eax, OFFSET ??_C@_00CNPNBAHC@?$AA@
	test	eax, eax
	je	SHORT $LN8@GetGreatWo@4
	mov	DWORD PTR tv132[ebp], OFFSET ??_C@_00CNPNBAHC@?$AA@
	jmp	SHORT $LN9@GetGreatWo@4
$LN8@GetGreatWo@4:
	mov	DWORD PTR tv132[ebp], OFFSET ??_C@_00CNPNBAHC@?$AA@
$LN9@GetGreatWo@4:
	mov	ecx, DWORD PTR tv132[ebp]
	push	ecx
	lea	ecx, DWORD PTR _szEra$[ebp]
	call	DWORD PTR __imp_??0?$basic_string@DU?$char_traits@D@std@@V?$allocator@D@2@@std@@QAE@PBD@Z
	mov	DWORD PTR __$EHRec$[ebp+8], 1

; 261  : 
; 262  : 	const CvGreatWork *pWork = &m_CurrentGreatWorks[iIndex];

	mov	edx, DWORD PTR _iIndex$[ebp]
	imul	edx, 48					; 00000030H
	mov	eax, DWORD PTR _this$[ebp]
	add	edx, DWORD PTR [eax]
	mov	DWORD PTR _pWork$[ebp], edx

; 263  : 	szEra = GC.getEraInfo(pWork->m_eEra)->getAbbreviation();

	mov	ecx, DWORD PTR _pWork$[ebp]
	mov	edx, DWORD PTR [ecx+40]
	push	edx
	mov	ecx, OFFSET ?gGlobals@@3VCvGlobals@@A	; gGlobals
	call	?getEraInfo@CvGlobals@@QAEPAVCvEraInfo@@W4EraTypes@@@Z ; CvGlobals::getEraInfo
	mov	ecx, eax
	call	?getAbbreviation@CvEraInfo@@QBEPBDXZ	; CvEraInfo::getAbbreviation
	mov	DWORD PTR $T232628[ebp], eax
	cmp	DWORD PTR $T232628[ebp], 0
	je	SHORT $LN14@GetGreatWo@4
	mov	eax, DWORD PTR $T232628[ebp]
	push	eax
	lea	ecx, DWORD PTR _szEra$[ebp]
	call	DWORD PTR __imp_?assign@?$basic_string@DU?$char_traits@D@std@@V?$allocator@D@2@@std@@QAEAAV12@PBD@Z
	jmp	SHORT $LN15@GetGreatWo@4
$LN14@GetGreatWo@4:
	lea	ecx, DWORD PTR _szEra$[ebp]
	call	DWORD PTR __imp_?clear@?$basic_string@DU?$char_traits@D@std@@V?$allocator@D@2@@std@@QAEXXZ
$LN15@GetGreatWo@4:

; 264  : 
; 265  : 	return szEra;	

	lea	ecx, DWORD PTR _szEra$[ebp]
	push	ecx
	mov	ecx, DWORD PTR ___$ReturnUdt$[ebp]
	call	DWORD PTR __imp_??0?$basic_string@DU?$char_traits@D@std@@V?$allocator@D@2@@std@@QAE@ABV01@@Z
	mov	edx, DWORD PTR $T232610[ebp]
	or	edx, 1
	mov	DWORD PTR $T232610[ebp], edx
	mov	BYTE PTR __$EHRec$[ebp+8], 0
	lea	ecx, DWORD PTR _szEra$[ebp]
	call	DWORD PTR __imp_??1?$basic_string@DU?$char_traits@D@std@@V?$allocator@D@2@@std@@QAE@XZ
	mov	eax, DWORD PTR ___$ReturnUdt$[ebp]

; 266  : }

	mov	ecx, DWORD PTR __$EHRec$[ebp]
	mov	DWORD PTR fs:0, ecx
	pop	ecx
	mov	ecx, DWORD PTR __$ArrayPad$[ebp]
	xor	ecx, ebp
	call	@__security_check_cookie@4
	mov	esp, ebp
	pop	ebp
	ret	8
_TEXT	ENDS
;	COMDAT text$x
text$x	SEGMENT
__unwindfunclet$?GetGreatWorkEraAbbreviation@CvGameCulture@@QBE?AVCvString@@H@Z$0:
	lea	ecx, DWORD PTR _szEra$[ebp]
	jmp	??1CvString@@QAE@XZ			; CvString::~CvString
__unwindfunclet$?GetGreatWorkEraAbbreviation@CvGameCulture@@QBE?AVCvString@@H@Z$1:
	mov	eax, DWORD PTR $T232610[ebp]
	and	eax, 1
	je	$LN5@GetGreatWo@4
	and	DWORD PTR $T232610[ebp], -2		; fffffffeH
	mov	ecx, DWORD PTR ___$ReturnUdt$[ebp]
	jmp	??1CvString@@QAE@XZ			; CvString::~CvString
$LN5@GetGreatWo@4:
	ret	0
__ehhandler$?GetGreatWorkEraAbbreviation@CvGameCulture@@QBE?AVCvString@@H@Z:
	mov	edx, DWORD PTR [esp+8]
	lea	eax, DWORD PTR [edx+12]
	mov	ecx, DWORD PTR [edx-56]
	xor	ecx, eax
	call	@__security_check_cookie@4
	mov	ecx, DWORD PTR [edx-8]
	xor	ecx, eax
	call	@__security_check_cookie@4
	mov	eax, OFFSET __ehfuncinfo$?GetGreatWorkEraAbbreviation@CvGameCulture@@QBE?AVCvString@@H@Z
	jmp	___CxxFrameHandler3
text$x	ENDS
?GetGreatWorkEraAbbreviation@CvGameCulture@@QBE?AVCvString@@H@Z ENDP ; CvGameCulture::GetGreatWorkEraAbbreviation
PUBLIC	__$ArrayPad$
PUBLIC	?GetGreatWorkEraShort@CvGameCulture@@QBE?AVCvString@@H@Z ; CvGameCulture::GetGreatWorkEraShort
EXTRN	?getShortDesc@CvEraInfo@@QBEPBDXZ:PROC		; CvEraInfo::getShortDesc
;	COMDAT xdata$x
; File d:\sources\lekmod_git\checkout\lekmod_dll\cvgamecoredllutil\include\cvstring.h
xdata$x	SEGMENT
__unwindtable$?GetGreatWorkEraShort@CvGameCulture@@QBE?AVCvString@@H@Z DD 0ffffffffH
	DD	FLAT:__unwindfunclet$?GetGreatWorkEraShort@CvGameCulture@@QBE?AVCvString@@H@Z$1
	DD	00H
	DD	FLAT:__unwindfunclet$?GetGreatWorkEraShort@CvGameCulture@@QBE?AVCvString@@H@Z$0
__ehfuncinfo$?GetGreatWorkEraShort@CvGameCulture@@QBE?AVCvString@@H@Z DD 019930522H
	DD	02H
	DD	FLAT:__unwindtable$?GetGreatWorkEraShort@CvGameCulture@@QBE?AVCvString@@H@Z
	DD	2 DUP(00H)
	DD	2 DUP(00H)
	DD	00H
	DD	01H
; Function compile flags: /Odtp
; File d:\sources\lekmod_git\checkout\lekmod_dll\cvgamecoredll_expansion2\cvcultureclasses.cpp
xdata$x	ENDS
;	COMDAT ?GetGreatWorkEraShort@CvGameCulture@@QBE?AVCvString@@H@Z
_TEXT	SEGMENT
tv132 = -64						; size = 4
_this$ = -60						; size = 4
$T232666 = -56						; size = 4
$T232648 = -52						; size = 4
_szEra$ = -48						; size = 28
__$ArrayPad$ = -20					; size = 4
_pWork$ = -16						; size = 4
__$EHRec$ = -12						; size = 12
___$ReturnUdt$ = 8					; size = 4
_iIndex$ = 12						; size = 4
?GetGreatWorkEraShort@CvGameCulture@@QBE?AVCvString@@H@Z PROC ; CvGameCulture::GetGreatWorkEraShort, COMDAT
; _this$ = ecx

; 269  : {

	push	ebp
	mov	ebp, esp
	push	-1
	push	__ehhandler$?GetGreatWorkEraShort@CvGameCulture@@QBE?AVCvString@@H@Z
	mov	eax, DWORD PTR fs:0
	push	eax
	sub	esp, 52					; 00000034H
	mov	eax, DWORD PTR ___security_cookie
	xor	eax, ebp
	mov	DWORD PTR __$ArrayPad$[ebp], eax
	push	eax
	lea	eax, DWORD PTR __$EHRec$[ebp]
	mov	DWORD PTR fs:0, eax
	mov	DWORD PTR _this$[ebp], ecx
	mov	DWORD PTR $T232648[ebp], 0

; 270  : 	CvAssertMsg (iIndex < GetNumGreatWorks(), "Bad Great Work index");
; 271  : 	CvString szEra = "";

	mov	eax, OFFSET ??_C@_00CNPNBAHC@?$AA@
	test	eax, eax
	je	SHORT $LN8@GetGreatWo@5
	mov	DWORD PTR tv132[ebp], OFFSET ??_C@_00CNPNBAHC@?$AA@
	jmp	SHORT $LN9@GetGreatWo@5
$LN8@GetGreatWo@5:
	mov	DWORD PTR tv132[ebp], OFFSET ??_C@_00CNPNBAHC@?$AA@
$LN9@GetGreatWo@5:
	mov	ecx, DWORD PTR tv132[ebp]
	push	ecx
	lea	ecx, DWORD PTR _szEra$[ebp]
	call	DWORD PTR __imp_??0?$basic_string@DU?$char_traits@D@std@@V?$allocator@D@2@@std@@QAE@PBD@Z
	mov	DWORD PTR __$EHRec$[ebp+8], 1

; 272  : 
; 273  : 	const CvGreatWork *pWork = &m_CurrentGreatWorks[iIndex];

	mov	edx, DWORD PTR _iIndex$[ebp]
	imul	edx, 48					; 00000030H
	mov	eax, DWORD PTR _this$[ebp]
	add	edx, DWORD PTR [eax]
	mov	DWORD PTR _pWork$[ebp], edx

; 274  : 	szEra = GC.getEraInfo(pWork->m_eEra)->getShortDesc();

	mov	ecx, DWORD PTR _pWork$[ebp]
	mov	edx, DWORD PTR [ecx+40]
	push	edx
	mov	ecx, OFFSET ?gGlobals@@3VCvGlobals@@A	; gGlobals
	call	?getEraInfo@CvGlobals@@QAEPAVCvEraInfo@@W4EraTypes@@@Z ; CvGlobals::getEraInfo
	mov	ecx, eax
	call	?getShortDesc@CvEraInfo@@QBEPBDXZ	; CvEraInfo::getShortDesc
	mov	DWORD PTR $T232666[ebp], eax
	cmp	DWORD PTR $T232666[ebp], 0
	je	SHORT $LN14@GetGreatWo@5
	mov	eax, DWORD PTR $T232666[ebp]
	push	eax
	lea	ecx, DWORD PTR _szEra$[ebp]
	call	DWORD PTR __imp_?assign@?$basic_string@DU?$char_traits@D@std@@V?$allocator@D@2@@std@@QAEAAV12@PBD@Z
	jmp	SHORT $LN15@GetGreatWo@5
$LN14@GetGreatWo@5:
	lea	ecx, DWORD PTR _szEra$[ebp]
	call	DWORD PTR __imp_?clear@?$basic_string@DU?$char_traits@D@std@@V?$allocator@D@2@@std@@QAEXXZ
$LN15@GetGreatWo@5:

; 275  : 
; 276  : 	return szEra;	

	lea	ecx, DWORD PTR _szEra$[ebp]
	push	ecx
	mov	ecx, DWORD PTR ___$ReturnUdt$[ebp]
	call	DWORD PTR __imp_??0?$basic_string@DU?$char_traits@D@std@@V?$allocator@D@2@@std@@QAE@ABV01@@Z
	mov	edx, DWORD PTR $T232648[ebp]
	or	edx, 1
	mov	DWORD PTR $T232648[ebp], edx
	mov	BYTE PTR __$EHRec$[ebp+8], 0
	lea	ecx, DWORD PTR _szEra$[ebp]
	call	DWORD PTR __imp_??1?$basic_string@DU?$char_traits@D@std@@V?$allocator@D@2@@std@@QAE@XZ
	mov	eax, DWORD PTR ___$ReturnUdt$[ebp]

; 277  : }

	mov	ecx, DWORD PTR __$EHRec$[ebp]
	mov	DWORD PTR fs:0, ecx
	pop	ecx
	mov	ecx, DWORD PTR __$ArrayPad$[ebp]
	xor	ecx, ebp
	call	@__security_check_cookie@4
	mov	esp, ebp
	pop	ebp
	ret	8
_TEXT	ENDS
;	COMDAT text$x
text$x	SEGMENT
__unwindfunclet$?GetGreatWorkEraShort@CvGameCulture@@QBE?AVCvString@@H@Z$0:
	lea	ecx, DWORD PTR _szEra$[ebp]
	jmp	??1CvString@@QAE@XZ			; CvString::~CvString
__unwindfunclet$?GetGreatWorkEraShort@CvGameCulture@@QBE?AVCvString@@H@Z$1:
	mov	eax, DWORD PTR $T232648[ebp]
	and	eax, 1
	je	$LN5@GetGreatWo@5
	and	DWORD PTR $T232648[ebp], -2		; fffffffeH
	mov	ecx, DWORD PTR ___$ReturnUdt$[ebp]
	jmp	??1CvString@@QAE@XZ			; CvString::~CvString
$LN5@GetGreatWo@5:
	ret	0
__ehhandler$?GetGreatWorkEraShort@CvGameCulture@@QBE?AVCvString@@H@Z:
	mov	edx, DWORD PTR [esp+8]
	lea	eax, DWORD PTR [edx+12]
	mov	ecx, DWORD PTR [edx-56]
	xor	ecx, eax
	call	@__security_check_cookie@4
	mov	ecx, DWORD PTR [edx-8]
	xor	ecx, eax
	call	@__security_check_cookie@4
	mov	eax, OFFSET __ehfuncinfo$?GetGreatWorkEraShort@CvGameCulture@@QBE?AVCvString@@H@Z
	jmp	___CxxFrameHandler3
text$x	ENDS
?GetGreatWorkEraShort@CvGameCulture@@QBE?AVCvString@@H@Z ENDP ; CvGameCulture::GetGreatWorkEraShort
PUBLIC	?GetGreatWorkCreator@CvGameCulture@@QBE?AW4PlayerTypes@@H@Z ; CvGameCulture::GetGreatWorkCreator
; Function compile flags: /Odtp
;	COMDAT ?GetGreatWorkCreator@CvGameCulture@@QBE?AW4PlayerTypes@@H@Z
_TEXT	SEGMENT
_this$ = -8						; size = 4
_pWork$ = -4						; size = 4
_iIndex$ = 8						; size = 4
?GetGreatWorkCreator@CvGameCulture@@QBE?AW4PlayerTypes@@H@Z PROC ; CvGameCulture::GetGreatWorkCreator, COMDAT
; _this$ = ecx

; 280  : {

	push	ebp
	mov	ebp, esp
	sub	esp, 8
	mov	DWORD PTR _this$[ebp], ecx

; 281  : 	CvAssertMsg (iIndex < GetNumGreatWorks(), "Bad Great Work index");
; 282  : 	const CvGreatWork *pWork = &m_CurrentGreatWorks[iIndex];

	mov	eax, DWORD PTR _iIndex$[ebp]
	imul	eax, 48					; 00000030H
	mov	ecx, DWORD PTR _this$[ebp]
	add	eax, DWORD PTR [ecx]
	mov	DWORD PTR _pWork$[ebp], eax

; 283  : 	return pWork->m_ePlayer;

	mov	edx, DWORD PTR _pWork$[ebp]
	mov	eax, DWORD PTR [edx+44]

; 284  : }

	mov	esp, ebp
	pop	ebp
	ret	4
?GetGreatWorkCreator@CvGameCulture@@QBE?AW4PlayerTypes@@H@Z ENDP ; CvGameCulture::GetGreatWorkCreator
_TEXT	ENDS
PUBLIC	?GetGreatWorkController@CvGameCulture@@QBE?AW4PlayerTypes@@H@Z ; CvGameCulture::GetGreatWorkController
EXTRN	?GetBuildingGreatWork@CvCityBuildings@@QBEHW4BuildingClassTypes@@H@Z:PROC ; CvCityBuildings::GetBuildingGreatWork
EXTRN	?GetGreatWorkCount@CvBuildingEntry@@QBEHXZ:PROC	; CvBuildingEntry::GetGreatWorkCount
EXTRN	?GetNumBuilding@CvCityBuildings@@QBEHW4BuildingTypes@@@Z:PROC ; CvCityBuildings::GetNumBuilding
EXTRN	?GetCityBuildings@CvCity@@QBEPAVCvCityBuildings@@XZ:PROC ; CvCity::GetCityBuildings
EXTRN	?getBuildingInfo@CvGlobals@@QAEPAVCvBuildingEntry@@W4BuildingTypes@@@Z:PROC ; CvGlobals::getBuildingInfo
EXTRN	?getCivilizationBuildings@CvCivilizationInfo@@QBEHH@Z:PROC ; CvCivilizationInfo::getCivilizationBuildings
EXTRN	?getCivilizationInfo@CvPlayer@@QBEAAVCvCivilizationInfo@@XZ:PROC ; CvPlayer::getCivilizationInfo
EXTRN	?getNumBuildingClassInfos@CvGlobals@@QAEHXZ:PROC ; CvGlobals::getNumBuildingClassInfos
EXTRN	?nextCity@CvPlayer@@QAEPAVCvCity@@PAH_N@Z:PROC	; CvPlayer::nextCity
EXTRN	?firstCity@CvPlayer@@QAEPAVCvCity@@PAH_N@Z:PROC	; CvPlayer::firstCity
; Function compile flags: /Odtp
;	COMDAT ?GetGreatWorkController@CvGameCulture@@QBE?AW4PlayerTypes@@H@Z
_TEXT	SEGMENT
_this$ = -60						; size = 4
$T232699 = -56						; size = 4
$T232695 = -52						; size = 4
$T232691 = -48						; size = 4
_iGreatWorkIndex$222697 = -44				; size = 4
_iI$222693 = -40					; size = 4
_iNumSlots$222692 = -36					; size = 4
_pkBuilding$222689 = -32				; size = 4
_eBuilding$222685 = -28					; size = 4
_playerCivilizationInfo$222684 = -24			; size = 4
_iBuildingClassLoop$222680 = -20			; size = 4
_ePlayer$222673 = -16					; size = 4
_iCityLoop$222675 = -12					; size = 4
_pCity$222676 = -8					; size = 4
_uiPlayer$222669 = -4					; size = 4
_iIndex$ = 8						; size = 4
?GetGreatWorkController@CvGameCulture@@QBE?AW4PlayerTypes@@H@Z PROC ; CvGameCulture::GetGreatWorkController, COMDAT
; _this$ = ecx

; 287  : {

	push	ebp
	mov	ebp, esp
	sub	esp, 60					; 0000003cH
	mov	DWORD PTR _this$[ebp], ecx

; 288  : 	CvAssertMsg (iIndex < GetNumGreatWorks(), "Bad Great Work index");
; 289  : 	
; 290  : 	// for each player
; 291  : 	//   for each building
; 292  : 	//     for each slot
; 293  : 	//       check to see if it holds this work
; 294  : 
; 295  : 	for (uint uiPlayer = 0; uiPlayer < MAX_MAJOR_CIVS; uiPlayer++)

	mov	DWORD PTR _uiPlayer$222669[ebp], 0
	jmp	SHORT $LN16@GetGreatWo@6
$LN15@GetGreatWo@6:
	mov	eax, DWORD PTR _uiPlayer$222669[ebp]
	add	eax, 1
	mov	DWORD PTR _uiPlayer$222669[ebp], eax
$LN16@GetGreatWo@6:
	cmp	DWORD PTR _uiPlayer$222669[ebp], 22	; 00000016H
	jae	$LN14@GetGreatWo@6

; 296  : 	{
; 297  : 		PlayerTypes ePlayer = (PlayerTypes)uiPlayer;

	mov	ecx, DWORD PTR _uiPlayer$222669[ebp]
	mov	DWORD PTR _ePlayer$222673[ebp], ecx

; 298  : 
; 299  : 		int iCityLoop;
; 300  : 		CvCity* pCity = NULL;

	mov	DWORD PTR _pCity$222676[ebp], 0

; 301  : 		for (pCity = GET_PLAYER(ePlayer).firstCity(&iCityLoop); pCity != NULL; pCity = GET_PLAYER(ePlayer).nextCity(&iCityLoop))

	mov	edx, DWORD PTR _ePlayer$222673[ebp]
	imul	edx, 63236				; 0000f704H
	add	edx, DWORD PTR ?m_aPlayers@CvPlayerAI@@1PAV1@A ; CvPlayerAI::m_aPlayers
	mov	DWORD PTR $T232691[ebp], edx
	push	0
	lea	eax, DWORD PTR _iCityLoop$222675[ebp]
	push	eax
	mov	ecx, DWORD PTR $T232691[ebp]
	call	?firstCity@CvPlayer@@QAEPAVCvCity@@PAH_N@Z ; CvPlayer::firstCity
	mov	DWORD PTR _pCity$222676[ebp], eax
	jmp	SHORT $LN13@GetGreatWo@6
$LN12@GetGreatWo@6:
	mov	ecx, DWORD PTR _ePlayer$222673[ebp]
	imul	ecx, 63236				; 0000f704H
	add	ecx, DWORD PTR ?m_aPlayers@CvPlayerAI@@1PAV1@A ; CvPlayerAI::m_aPlayers
	mov	DWORD PTR $T232695[ebp], ecx
	push	0
	lea	edx, DWORD PTR _iCityLoop$222675[ebp]
	push	edx
	mov	ecx, DWORD PTR $T232695[ebp]
	call	?nextCity@CvPlayer@@QAEPAVCvCity@@PAH_N@Z ; CvPlayer::nextCity
	mov	DWORD PTR _pCity$222676[ebp], eax
$LN13@GetGreatWo@6:
	cmp	DWORD PTR _pCity$222676[ebp], 0
	je	$LN11@GetGreatWo@6

; 302  : 		{
; 303  : #ifdef AUI_WARNING_FIXES
; 304  : 			for (uint iBuildingClassLoop = 0; iBuildingClassLoop < GC.getNumBuildingClassInfos(); iBuildingClassLoop++)
; 305  : #else
; 306  : 			for(int iBuildingClassLoop = 0; iBuildingClassLoop < GC.getNumBuildingClassInfos(); iBuildingClassLoop++)

	mov	DWORD PTR _iBuildingClassLoop$222680[ebp], 0
	jmp	SHORT $LN10@GetGreatWo@6
$LN9@GetGreatWo@6:
	mov	eax, DWORD PTR _iBuildingClassLoop$222680[ebp]
	add	eax, 1
	mov	DWORD PTR _iBuildingClassLoop$222680[ebp], eax
$LN10@GetGreatWo@6:
	mov	ecx, OFFSET ?gGlobals@@3VCvGlobals@@A	; gGlobals
	call	?getNumBuildingClassInfos@CvGlobals@@QAEHXZ ; CvGlobals::getNumBuildingClassInfos
	cmp	DWORD PTR _iBuildingClassLoop$222680[ebp], eax
	jge	$LN8@GetGreatWo@6

; 307  : #endif
; 308  : 			{
; 309  : 				CvCivilizationInfo& playerCivilizationInfo = GET_PLAYER(ePlayer).getCivilizationInfo();

	mov	ecx, DWORD PTR _ePlayer$222673[ebp]
	imul	ecx, 63236				; 0000f704H
	add	ecx, DWORD PTR ?m_aPlayers@CvPlayerAI@@1PAV1@A ; CvPlayerAI::m_aPlayers
	mov	DWORD PTR $T232699[ebp], ecx
	mov	ecx, DWORD PTR $T232699[ebp]
	call	?getCivilizationInfo@CvPlayer@@QBEAAVCvCivilizationInfo@@XZ ; CvPlayer::getCivilizationInfo
	mov	DWORD PTR _playerCivilizationInfo$222684[ebp], eax

; 310  : 				BuildingTypes eBuilding = (BuildingTypes)playerCivilizationInfo.getCivilizationBuildings((BuildingClassTypes)iBuildingClassLoop);

	mov	edx, DWORD PTR _iBuildingClassLoop$222680[ebp]
	push	edx
	mov	ecx, DWORD PTR _playerCivilizationInfo$222684[ebp]
	call	?getCivilizationBuildings@CvCivilizationInfo@@QBEHH@Z ; CvCivilizationInfo::getCivilizationBuildings
	mov	DWORD PTR _eBuilding$222685[ebp], eax

; 311  : 				if (eBuilding != NO_BUILDING)

	cmp	DWORD PTR _eBuilding$222685[ebp], -1
	je	SHORT $LN7@GetGreatWo@6

; 312  : 				{
; 313  : 					CvBuildingEntry *pkBuilding = GC.getBuildingInfo(eBuilding);

	mov	eax, DWORD PTR _eBuilding$222685[ebp]
	push	eax
	mov	ecx, OFFSET ?gGlobals@@3VCvGlobals@@A	; gGlobals
	call	?getBuildingInfo@CvGlobals@@QAEPAVCvBuildingEntry@@W4BuildingTypes@@@Z ; CvGlobals::getBuildingInfo
	mov	DWORD PTR _pkBuilding$222689[ebp], eax

; 314  : 					if (pkBuilding)

	cmp	DWORD PTR _pkBuilding$222689[ebp], 0
	je	SHORT $LN7@GetGreatWo@6

; 315  : 					{
; 316  : 						if (pCity->GetCityBuildings()->GetNumBuilding(eBuilding) > 0)

	mov	ecx, DWORD PTR _eBuilding$222685[ebp]
	push	ecx
	mov	ecx, DWORD PTR _pCity$222676[ebp]
	call	?GetCityBuildings@CvCity@@QBEPAVCvCityBuildings@@XZ ; CvCity::GetCityBuildings
	mov	ecx, eax
	call	?GetNumBuilding@CvCityBuildings@@QBEHW4BuildingTypes@@@Z ; CvCityBuildings::GetNumBuilding
	test	eax, eax
	jle	SHORT $LN7@GetGreatWo@6

; 317  : 						{
; 318  : 							int iNumSlots = pkBuilding->GetGreatWorkCount();

	mov	ecx, DWORD PTR _pkBuilding$222689[ebp]
	call	?GetGreatWorkCount@CvBuildingEntry@@QBEHXZ ; CvBuildingEntry::GetGreatWorkCount
	mov	DWORD PTR _iNumSlots$222692[ebp], eax

; 319  : 							for (int iI = 0; iI < iNumSlots; iI++)

	mov	DWORD PTR _iI$222693[ebp], 0
	jmp	SHORT $LN4@GetGreatWo@6
$LN3@GetGreatWo@6:
	mov	edx, DWORD PTR _iI$222693[ebp]
	add	edx, 1
	mov	DWORD PTR _iI$222693[ebp], edx
$LN4@GetGreatWo@6:
	mov	eax, DWORD PTR _iI$222693[ebp]
	cmp	eax, DWORD PTR _iNumSlots$222692[ebp]
	jge	SHORT $LN7@GetGreatWo@6

; 320  : 							{
; 321  : 								int iGreatWorkIndex = pCity->GetCityBuildings()->GetBuildingGreatWork((BuildingClassTypes)iBuildingClassLoop, iI);

	mov	ecx, DWORD PTR _iI$222693[ebp]
	push	ecx
	mov	edx, DWORD PTR _iBuildingClassLoop$222680[ebp]
	push	edx
	mov	ecx, DWORD PTR _pCity$222676[ebp]
	call	?GetCityBuildings@CvCity@@QBEPAVCvCityBuildings@@XZ ; CvCity::GetCityBuildings
	mov	ecx, eax
	call	?GetBuildingGreatWork@CvCityBuildings@@QBEHW4BuildingClassTypes@@H@Z ; CvCityBuildings::GetBuildingGreatWork
	mov	DWORD PTR _iGreatWorkIndex$222697[ebp], eax

; 322  : 								if (iGreatWorkIndex == iIndex)

	mov	eax, DWORD PTR _iGreatWorkIndex$222697[ebp]
	cmp	eax, DWORD PTR _iIndex$[ebp]
	jne	SHORT $LN1@GetGreatWo@6

; 323  : 								{
; 324  : 									return ePlayer;

	mov	eax, DWORD PTR _ePlayer$222673[ebp]
	jmp	SHORT $LN17@GetGreatWo@6
$LN1@GetGreatWo@6:

; 325  : 								}
; 326  : 							}

	jmp	SHORT $LN3@GetGreatWo@6
$LN7@GetGreatWo@6:

; 327  : 						}
; 328  : 					}
; 329  : 				}
; 330  : 			}

	jmp	$LN9@GetGreatWo@6
$LN8@GetGreatWo@6:

; 331  : 		}

	jmp	$LN12@GetGreatWo@6
$LN11@GetGreatWo@6:

; 332  : 	}

	jmp	$LN15@GetGreatWo@6
$LN14@GetGreatWo@6:

; 333  : 
; 334  : 	return NO_PLAYER;

	or	eax, -1
$LN17@GetGreatWo@6:

; 335  : }

	mov	esp, ebp
	pop	ebp
	ret	4
?GetGreatWorkController@CvGameCulture@@QBE?AW4PlayerTypes@@H@Z ENDP ; CvGameCulture::GetGreatWorkController
_TEXT	ENDS
PUBLIC	?GetThemingBonus@CvCityCulture@@QBEHW4BuildingClassTypes@@@Z ; CvCityCulture::GetThemingBonus
PUBLIC	?GetGreatWorkCurrentThemingBonus@CvGameCulture@@QBEHH@Z ; CvGameCulture::GetGreatWorkCurrentThemingBonus
EXTRN	?GetCityCulture@CvCity@@QBEPAVCvCityCulture@@XZ:PROC ; CvCity::GetCityCulture
; Function compile flags: /Odtp
;	COMDAT ?GetGreatWorkCurrentThemingBonus@CvGameCulture@@QBEHH@Z
_TEXT	SEGMENT
_this$ = -64						; size = 4
$T232713 = -60						; size = 4
$T232709 = -56						; size = 4
$T232705 = -52						; size = 4
_iGreatWorkIndex$222733 = -48				; size = 4
_iI$222729 = -44					; size = 4
_iNumSlots$222728 = -40					; size = 4
_pkBuilding$222725 = -36				; size = 4
_eBuilding$222722 = -32					; size = 4
_playerCivilizationInfo$222721 = -28			; size = 4
_eBuildingClass$222719 = -24				; size = 4
_iBuildingClassLoop$222715 = -20			; size = 4
_ePlayer$222708 = -16					; size = 4
_iCityLoop$222710 = -12					; size = 4
_pCity$222711 = -8					; size = 4
_uiPlayer$222704 = -4					; size = 4
_iIndex$ = 8						; size = 4
?GetGreatWorkCurrentThemingBonus@CvGameCulture@@QBEHH@Z PROC ; CvGameCulture::GetGreatWorkCurrentThemingBonus, COMDAT
; _this$ = ecx

; 338  : {

	push	ebp
	mov	ebp, esp
	sub	esp, 64					; 00000040H
	mov	DWORD PTR _this$[ebp], ecx

; 339  : 	CvAssertMsg (iIndex < GetNumGreatWorks(), "Bad Great Work index");
; 340  : 
; 341  : 	// for each player
; 342  : 	//   for each building
; 343  : 	//     for each slot
; 344  : 	//       check to see if it holds this work
; 345  : 
; 346  : 	for (uint uiPlayer = 0; uiPlayer < MAX_MAJOR_CIVS; uiPlayer++)

	mov	DWORD PTR _uiPlayer$222704[ebp], 0
	jmp	SHORT $LN16@GetGreatWo@7
$LN15@GetGreatWo@7:
	mov	eax, DWORD PTR _uiPlayer$222704[ebp]
	add	eax, 1
	mov	DWORD PTR _uiPlayer$222704[ebp], eax
$LN16@GetGreatWo@7:
	cmp	DWORD PTR _uiPlayer$222704[ebp], 22	; 00000016H
	jae	$LN14@GetGreatWo@7

; 347  : 	{
; 348  : 		PlayerTypes ePlayer = (PlayerTypes)uiPlayer;

	mov	ecx, DWORD PTR _uiPlayer$222704[ebp]
	mov	DWORD PTR _ePlayer$222708[ebp], ecx

; 349  : 
; 350  : 		int iCityLoop;
; 351  : 		CvCity* pCity = NULL;

	mov	DWORD PTR _pCity$222711[ebp], 0

; 352  : 		for (pCity = GET_PLAYER(ePlayer).firstCity(&iCityLoop); pCity != NULL; pCity = GET_PLAYER(ePlayer).nextCity(&iCityLoop))

	mov	edx, DWORD PTR _ePlayer$222708[ebp]
	imul	edx, 63236				; 0000f704H
	add	edx, DWORD PTR ?m_aPlayers@CvPlayerAI@@1PAV1@A ; CvPlayerAI::m_aPlayers
	mov	DWORD PTR $T232705[ebp], edx
	push	0
	lea	eax, DWORD PTR _iCityLoop$222710[ebp]
	push	eax
	mov	ecx, DWORD PTR $T232705[ebp]
	call	?firstCity@CvPlayer@@QAEPAVCvCity@@PAH_N@Z ; CvPlayer::firstCity
	mov	DWORD PTR _pCity$222711[ebp], eax
	jmp	SHORT $LN13@GetGreatWo@7
$LN12@GetGreatWo@7:
	mov	ecx, DWORD PTR _ePlayer$222708[ebp]
	imul	ecx, 63236				; 0000f704H
	add	ecx, DWORD PTR ?m_aPlayers@CvPlayerAI@@1PAV1@A ; CvPlayerAI::m_aPlayers
	mov	DWORD PTR $T232709[ebp], ecx
	push	0
	lea	edx, DWORD PTR _iCityLoop$222710[ebp]
	push	edx
	mov	ecx, DWORD PTR $T232709[ebp]
	call	?nextCity@CvPlayer@@QAEPAVCvCity@@PAH_N@Z ; CvPlayer::nextCity
	mov	DWORD PTR _pCity$222711[ebp], eax
$LN13@GetGreatWo@7:
	cmp	DWORD PTR _pCity$222711[ebp], 0
	je	$LN11@GetGreatWo@7

; 353  : 		{
; 354  : #ifdef AUI_WARNING_FIXES
; 355  : 			for (uint iBuildingClassLoop = 0; iBuildingClassLoop < GC.getNumBuildingClassInfos(); iBuildingClassLoop++)
; 356  : #else
; 357  : 			for(int iBuildingClassLoop = 0; iBuildingClassLoop < GC.getNumBuildingClassInfos(); iBuildingClassLoop++)

	mov	DWORD PTR _iBuildingClassLoop$222715[ebp], 0
	jmp	SHORT $LN10@GetGreatWo@7
$LN9@GetGreatWo@7:
	mov	eax, DWORD PTR _iBuildingClassLoop$222715[ebp]
	add	eax, 1
	mov	DWORD PTR _iBuildingClassLoop$222715[ebp], eax
$LN10@GetGreatWo@7:
	mov	ecx, OFFSET ?gGlobals@@3VCvGlobals@@A	; gGlobals
	call	?getNumBuildingClassInfos@CvGlobals@@QAEHXZ ; CvGlobals::getNumBuildingClassInfos
	cmp	DWORD PTR _iBuildingClassLoop$222715[ebp], eax
	jge	$LN8@GetGreatWo@7

; 358  : #endif
; 359  : 			{
; 360  : 				BuildingClassTypes eBuildingClass = (BuildingClassTypes)iBuildingClassLoop;

	mov	ecx, DWORD PTR _iBuildingClassLoop$222715[ebp]
	mov	DWORD PTR _eBuildingClass$222719[ebp], ecx

; 361  : 				CvCivilizationInfo& playerCivilizationInfo = GET_PLAYER(ePlayer).getCivilizationInfo();

	mov	edx, DWORD PTR _ePlayer$222708[ebp]
	imul	edx, 63236				; 0000f704H
	add	edx, DWORD PTR ?m_aPlayers@CvPlayerAI@@1PAV1@A ; CvPlayerAI::m_aPlayers
	mov	DWORD PTR $T232713[ebp], edx
	mov	ecx, DWORD PTR $T232713[ebp]
	call	?getCivilizationInfo@CvPlayer@@QBEAAVCvCivilizationInfo@@XZ ; CvPlayer::getCivilizationInfo
	mov	DWORD PTR _playerCivilizationInfo$222721[ebp], eax

; 362  : 				BuildingTypes eBuilding = (BuildingTypes)playerCivilizationInfo.getCivilizationBuildings(eBuildingClass);

	mov	eax, DWORD PTR _eBuildingClass$222719[ebp]
	push	eax
	mov	ecx, DWORD PTR _playerCivilizationInfo$222721[ebp]
	call	?getCivilizationBuildings@CvCivilizationInfo@@QBEHH@Z ; CvCivilizationInfo::getCivilizationBuildings
	mov	DWORD PTR _eBuilding$222722[ebp], eax

; 363  : 				if (eBuilding != NO_BUILDING)

	cmp	DWORD PTR _eBuilding$222722[ebp], -1
	je	$LN7@GetGreatWo@7

; 364  : 				{
; 365  : 					CvBuildingEntry *pkBuilding = GC.getBuildingInfo(eBuilding);

	mov	ecx, DWORD PTR _eBuilding$222722[ebp]
	push	ecx
	mov	ecx, OFFSET ?gGlobals@@3VCvGlobals@@A	; gGlobals
	call	?getBuildingInfo@CvGlobals@@QAEPAVCvBuildingEntry@@W4BuildingTypes@@@Z ; CvGlobals::getBuildingInfo
	mov	DWORD PTR _pkBuilding$222725[ebp], eax

; 366  : 					if (pkBuilding)

	cmp	DWORD PTR _pkBuilding$222725[ebp], 0
	je	SHORT $LN7@GetGreatWo@7

; 367  : 					{
; 368  : 						if (pCity->GetCityBuildings()->GetNumBuilding(eBuilding) > 0)

	mov	edx, DWORD PTR _eBuilding$222722[ebp]
	push	edx
	mov	ecx, DWORD PTR _pCity$222711[ebp]
	call	?GetCityBuildings@CvCity@@QBEPAVCvCityBuildings@@XZ ; CvCity::GetCityBuildings
	mov	ecx, eax
	call	?GetNumBuilding@CvCityBuildings@@QBEHW4BuildingTypes@@@Z ; CvCityBuildings::GetNumBuilding
	test	eax, eax
	jle	SHORT $LN7@GetGreatWo@7

; 369  : 						{
; 370  : 							int iNumSlots = pkBuilding->GetGreatWorkCount();

	mov	ecx, DWORD PTR _pkBuilding$222725[ebp]
	call	?GetGreatWorkCount@CvBuildingEntry@@QBEHXZ ; CvBuildingEntry::GetGreatWorkCount
	mov	DWORD PTR _iNumSlots$222728[ebp], eax

; 371  : 							for (int iI = 0; iI < iNumSlots; iI++)

	mov	DWORD PTR _iI$222729[ebp], 0
	jmp	SHORT $LN4@GetGreatWo@7
$LN3@GetGreatWo@7:
	mov	eax, DWORD PTR _iI$222729[ebp]
	add	eax, 1
	mov	DWORD PTR _iI$222729[ebp], eax
$LN4@GetGreatWo@7:
	mov	ecx, DWORD PTR _iI$222729[ebp]
	cmp	ecx, DWORD PTR _iNumSlots$222728[ebp]
	jge	SHORT $LN7@GetGreatWo@7

; 372  : 							{
; 373  : 								int iGreatWorkIndex = pCity->GetCityBuildings()->GetBuildingGreatWork((BuildingClassTypes)iBuildingClassLoop, iI);

	mov	edx, DWORD PTR _iI$222729[ebp]
	push	edx
	mov	eax, DWORD PTR _iBuildingClassLoop$222715[ebp]
	push	eax
	mov	ecx, DWORD PTR _pCity$222711[ebp]
	call	?GetCityBuildings@CvCity@@QBEPAVCvCityBuildings@@XZ ; CvCity::GetCityBuildings
	mov	ecx, eax
	call	?GetBuildingGreatWork@CvCityBuildings@@QBEHW4BuildingClassTypes@@H@Z ; CvCityBuildings::GetBuildingGreatWork
	mov	DWORD PTR _iGreatWorkIndex$222733[ebp], eax

; 374  : 								if (iGreatWorkIndex == iIndex)

	mov	ecx, DWORD PTR _iGreatWorkIndex$222733[ebp]
	cmp	ecx, DWORD PTR _iIndex$[ebp]
	jne	SHORT $LN1@GetGreatWo@7

; 375  : 								{
; 376  : 									return pCity->GetCityCulture()->GetThemingBonus(eBuildingClass);

	mov	edx, DWORD PTR _eBuildingClass$222719[ebp]
	push	edx
	mov	ecx, DWORD PTR _pCity$222711[ebp]
	call	?GetCityCulture@CvCity@@QBEPAVCvCityCulture@@XZ ; CvCity::GetCityCulture
	mov	ecx, eax
	call	?GetThemingBonus@CvCityCulture@@QBEHW4BuildingClassTypes@@@Z ; CvCityCulture::GetThemingBonus
	jmp	SHORT $LN17@GetGreatWo@7
$LN1@GetGreatWo@7:

; 377  : 								}
; 378  : 							}

	jmp	SHORT $LN3@GetGreatWo@7
$LN7@GetGreatWo@7:

; 379  : 						}
; 380  : 					}
; 381  : 				}
; 382  : 			}

	jmp	$LN9@GetGreatWo@7
$LN8@GetGreatWo@7:

; 383  : 		}

	jmp	$LN12@GetGreatWo@7
$LN11@GetGreatWo@7:

; 384  : 	}

	jmp	$LN15@GetGreatWo@7
$LN14@GetGreatWo@7:

; 385  : 
; 386  : 	return 0;

	xor	eax, eax
$LN17@GetGreatWo@7:

; 387  : }

	mov	esp, ebp
	pop	ebp
	ret	4
?GetGreatWorkCurrentThemingBonus@CvGameCulture@@QBEHH@Z ENDP ; CvGameCulture::GetGreatWorkCurrentThemingBonus
_TEXT	ENDS
PUBLIC	?SetSwappableMusicIndex@CvPlayerCulture@@QAEXH@Z ; CvPlayerCulture::SetSwappableMusicIndex
PUBLIC	?GetSwappableMusicIndex@CvPlayerCulture@@QBEHXZ	; CvPlayerCulture::GetSwappableMusicIndex
PUBLIC	?SetSwappableArtifactIndex@CvPlayerCulture@@QAEXH@Z ; CvPlayerCulture::SetSwappableArtifactIndex
PUBLIC	?GetSwappableArtifactIndex@CvPlayerCulture@@QBEHXZ ; CvPlayerCulture::GetSwappableArtifactIndex
PUBLIC	?SetSwappableArtIndex@CvPlayerCulture@@QAEXH@Z	; CvPlayerCulture::SetSwappableArtIndex
PUBLIC	?GetSwappableArtIndex@CvPlayerCulture@@QBEHXZ	; CvPlayerCulture::GetSwappableArtIndex
PUBLIC	?SetSwappableWritingIndex@CvPlayerCulture@@QAEXH@Z ; CvPlayerCulture::SetSwappableWritingIndex
PUBLIC	?GetSwappableWritingIndex@CvPlayerCulture@@QBEHXZ ; CvPlayerCulture::GetSwappableWritingIndex
PUBLIC	??_C@_0BB@FLEDFIEC@GREAT_WORK_MUSIC?$AA@	; `string'
PUBLIC	??_C@_0BE@IALMEBOB@GREAT_WORK_ARTIFACT?$AA@	; `string'
PUBLIC	??_C@_0P@CLPANGAI@GREAT_WORK_ART?$AA@		; `string'
PUBLIC	??_C@_0BG@BOBAMEPE@GREAT_WORK_LITERATURE?$AA@	; `string'
PUBLIC	?SwapGreatWorks@CvGameCulture@@QAE_NW4PlayerTypes@@H0H@Z ; CvGameCulture::SwapGreatWorks
EXTRN	?SetBuildingGreatWork@CvCityBuildings@@QAEXW4BuildingClassTypes@@HH@Z:PROC ; CvCityBuildings::SetBuildingGreatWork
EXTRN	?getInfoTypeForString@CvGlobals@@QBEHPBD_N@Z:PROC ; CvGlobals::getInfoTypeForString
;	COMDAT ??_C@_0BB@FLEDFIEC@GREAT_WORK_MUSIC?$AA@
; File d:\sources\lekmod_git\checkout\lekmod_dll\cvgamecoredll_expansion2\cvglobals.h
CONST	SEGMENT
??_C@_0BB@FLEDFIEC@GREAT_WORK_MUSIC?$AA@ DB 'GREAT_WORK_MUSIC', 00H ; `string'
CONST	ENDS
;	COMDAT ??_C@_0BE@IALMEBOB@GREAT_WORK_ARTIFACT?$AA@
CONST	SEGMENT
??_C@_0BE@IALMEBOB@GREAT_WORK_ARTIFACT?$AA@ DB 'GREAT_WORK_ARTIFACT', 00H ; `string'
CONST	ENDS
;	COMDAT ??_C@_0P@CLPANGAI@GREAT_WORK_ART?$AA@
CONST	SEGMENT
??_C@_0P@CLPANGAI@GREAT_WORK_ART?$AA@ DB 'GREAT_WORK_ART', 00H ; `string'
CONST	ENDS
;	COMDAT ??_C@_0BG@BOBAMEPE@GREAT_WORK_LITERATURE?$AA@
CONST	SEGMENT
??_C@_0BG@BOBAMEPE@GREAT_WORK_LITERATURE?$AA@ DB 'GREAT_WORK_LITERATURE', 00H ; `string'
; Function compile flags: /Odtp
; File d:\sources\lekmod_git\checkout\lekmod_dll\cvgamecoredll_expansion2\cvcultureclasses.cpp
CONST	ENDS
;	COMDAT ?SwapGreatWorks@CvGameCulture@@QAE_NW4PlayerTypes@@H0H@Z
_TEXT	SEGMENT
tv314 = -156						; size = 4
tv213 = -152						; size = 4
_this$ = -148						; size = 4
$T232765 = -144						; size = 4
$T232761 = -140						; size = 4
$T232757 = -136						; size = 4
$T232753 = -132						; size = 4
$T232749 = -128						; size = 4
$T232745 = -124						; size = 4
$T232741 = -117						; size = 1
$T232732 = -116						; size = 4
$T232728 = -109						; size = 1
$T232719 = -108						; size = 4
_iGreatWorkIndex$222830 = -104				; size = 4
_iI$222826 = -100					; size = 4
_iNumSlots$222825 = -96					; size = 4
_pkBuilding$222822 = -92				; size = 4
_eBuilding$222818 = -88					; size = 4
_playerCivilizationInfo$222817 = -84			; size = 4
_iBuildingClassLoop$222813 = -80			; size = 4
_eTempPlayer$222803 = -76				; size = 4
_ui$222799 = -72					; size = 4
_iSwapIndex1$ = -68					; size = 4
_pCulture1$ = -64					; size = 4
_eClass1$ = -60						; size = 4
_pCity1$ = -56						; size = 4
_eArtClass$ = -52					; size = 4
_iCityLoop$ = -48					; size = 4
_bFoundSwappable$ = -41					; size = 1
_eWritingClass$ = -40					; size = 4
_eArtifactsClass$ = -36					; size = 4
_pCity$ = -32						; size = 4
_eMusicClass$ = -28					; size = 4
_eClass2$ = -24						; size = 4
_pCity2$ = -20						; size = 4
_eBuildingClass1$ = -16					; size = 4
_eBuildingClass2$ = -12					; size = 4
_pCulture2$ = -8					; size = 4
_iSwapIndex2$ = -4					; size = 4
_ePlayer1$ = 8						; size = 4
_iWork1$ = 12						; size = 4
_ePlayer2$ = 16						; size = 4
_iWork2$ = 20						; size = 4
?SwapGreatWorks@CvGameCulture@@QAE_NW4PlayerTypes@@H0H@Z PROC ; CvGameCulture::SwapGreatWorks, COMDAT
; _this$ = ecx

; 391  : {

	push	ebp
	mov	ebp, esp
	sub	esp, 156				; 0000009cH
	mov	DWORD PTR _this$[ebp], ecx

; 392  : 	if (ePlayer1 == NO_PLAYER || ePlayer2 == NO_PLAYER)

	cmp	DWORD PTR _ePlayer1$[ebp], -1
	je	SHORT $LN60@SwapGreatW
	cmp	DWORD PTR _ePlayer2$[ebp], -1
	jne	SHORT $LN61@SwapGreatW
$LN60@SwapGreatW:

; 393  : 	{
; 394  : 		return false;

	xor	al, al
	jmp	$LN62@SwapGreatW
$LN61@SwapGreatW:

; 395  : 	}
; 396  : 
; 397  : 	if (iWork1 == -1 || iWork2 == -1)

	cmp	DWORD PTR _iWork1$[ebp], -1
	je	SHORT $LN58@SwapGreatW
	cmp	DWORD PTR _iWork2$[ebp], -1
	jne	SHORT $LN59@SwapGreatW
$LN58@SwapGreatW:

; 398  : 	{
; 399  : 		return false;

	xor	al, al
	jmp	$LN62@SwapGreatW
$LN59@SwapGreatW:

; 400  : 	}
; 401  : 	
; 402  : 	if (!GET_PLAYER(ePlayer1).isAlive() || !GET_PLAYER(ePlayer2).isAlive())

	mov	eax, DWORD PTR _ePlayer1$[ebp]
	imul	eax, 63236				; 0000f704H
	add	eax, DWORD PTR ?m_aPlayers@CvPlayerAI@@1PAV1@A ; CvPlayerAI::m_aPlayers
	mov	DWORD PTR $T232719[ebp], eax
	mov	ecx, DWORD PTR $T232719[ebp]
	mov	dl, BYTE PTR [ecx+2256]
	mov	BYTE PTR $T232728[ebp], dl
	movzx	eax, BYTE PTR $T232728[ebp]
	test	eax, eax
	je	SHORT $LN56@SwapGreatW
	mov	ecx, DWORD PTR _ePlayer2$[ebp]
	imul	ecx, 63236				; 0000f704H
	add	ecx, DWORD PTR ?m_aPlayers@CvPlayerAI@@1PAV1@A ; CvPlayerAI::m_aPlayers
	mov	DWORD PTR $T232732[ebp], ecx
	mov	edx, DWORD PTR $T232732[ebp]
	mov	al, BYTE PTR [edx+2256]
	mov	BYTE PTR $T232741[ebp], al
	movzx	ecx, BYTE PTR $T232741[ebp]
	test	ecx, ecx
	jne	SHORT $LN57@SwapGreatW
$LN56@SwapGreatW:

; 403  : 	{
; 404  : 		return false;

	xor	al, al
	jmp	$LN62@SwapGreatW
$LN57@SwapGreatW:

; 405  : 	}
; 406  : 
; 407  : 	CvPlayerCulture* pCulture1 = GET_PLAYER(ePlayer1).GetCulture();

	mov	edx, DWORD PTR _ePlayer1$[ebp]
	imul	edx, 63236				; 0000f704H
	add	edx, DWORD PTR ?m_aPlayers@CvPlayerAI@@1PAV1@A ; CvPlayerAI::m_aPlayers
	mov	DWORD PTR $T232745[ebp], edx
	mov	ecx, DWORD PTR $T232745[ebp]
	call	?GetCulture@CvPlayer@@QBEPAVCvPlayerCulture@@XZ ; CvPlayer::GetCulture
	mov	DWORD PTR _pCulture1$[ebp], eax

; 408  : 	CvPlayerCulture* pCulture2 = GET_PLAYER(ePlayer2).GetCulture();

	mov	eax, DWORD PTR _ePlayer2$[ebp]
	imul	eax, 63236				; 0000f704H
	add	eax, DWORD PTR ?m_aPlayers@CvPlayerAI@@1PAV1@A ; CvPlayerAI::m_aPlayers
	mov	DWORD PTR $T232749[ebp], eax
	mov	ecx, DWORD PTR $T232749[ebp]
	call	?GetCulture@CvPlayer@@QBEPAVCvPlayerCulture@@XZ ; CvPlayer::GetCulture
	mov	DWORD PTR _pCulture2$[ebp], eax

; 409  : 
; 410  : 	GreatWorkClass eWritingClass = (GreatWorkClass)GC.getInfoTypeForString("GREAT_WORK_LITERATURE");

	push	0
	push	OFFSET ??_C@_0BG@BOBAMEPE@GREAT_WORK_LITERATURE?$AA@
	mov	ecx, OFFSET ?gGlobals@@3VCvGlobals@@A	; gGlobals
	call	?getInfoTypeForString@CvGlobals@@QBEHPBD_N@Z ; CvGlobals::getInfoTypeForString
	mov	DWORD PTR _eWritingClass$[ebp], eax

; 411  : 	GreatWorkClass eArtClass = (GreatWorkClass)GC.getInfoTypeForString("GREAT_WORK_ART");

	push	0
	push	OFFSET ??_C@_0P@CLPANGAI@GREAT_WORK_ART?$AA@
	mov	ecx, OFFSET ?gGlobals@@3VCvGlobals@@A	; gGlobals
	call	?getInfoTypeForString@CvGlobals@@QBEHPBD_N@Z ; CvGlobals::getInfoTypeForString
	mov	DWORD PTR _eArtClass$[ebp], eax

; 412  : 	GreatWorkClass eArtifactsClass = (GreatWorkClass)GC.getInfoTypeForString("GREAT_WORK_ARTIFACT");

	push	0
	push	OFFSET ??_C@_0BE@IALMEBOB@GREAT_WORK_ARTIFACT?$AA@
	mov	ecx, OFFSET ?gGlobals@@3VCvGlobals@@A	; gGlobals
	call	?getInfoTypeForString@CvGlobals@@QBEHPBD_N@Z ; CvGlobals::getInfoTypeForString
	mov	DWORD PTR _eArtifactsClass$[ebp], eax

; 413  : 	GreatWorkClass eMusicClass = (GreatWorkClass)GC.getInfoTypeForString("GREAT_WORK_MUSIC");

	push	0
	push	OFFSET ??_C@_0BB@FLEDFIEC@GREAT_WORK_MUSIC?$AA@
	mov	ecx, OFFSET ?gGlobals@@3VCvGlobals@@A	; gGlobals
	call	?getInfoTypeForString@CvGlobals@@QBEHPBD_N@Z ; CvGlobals::getInfoTypeForString
	mov	DWORD PTR _eMusicClass$[ebp], eax

; 414  : 
; 415  : 	GreatWorkClass eClass1 = GetGreatWorkClass(iWork1);

	mov	ecx, DWORD PTR _iWork1$[ebp]
	push	ecx
	mov	ecx, DWORD PTR _this$[ebp]
	call	?GetGreatWorkClass@CvGameCulture@@QBE?AW4GreatWorkClass@@H@Z ; CvGameCulture::GetGreatWorkClass
	mov	DWORD PTR _eClass1$[ebp], eax

; 416  : 	GreatWorkClass eClass2 = GetGreatWorkClass(iWork2);

	mov	edx, DWORD PTR _iWork2$[ebp]
	push	edx
	mov	ecx, DWORD PTR _this$[ebp]
	call	?GetGreatWorkClass@CvGameCulture@@QBE?AW4GreatWorkClass@@H@Z ; CvGameCulture::GetGreatWorkClass
	mov	DWORD PTR _eClass2$[ebp], eax

; 417  : 
; 418  : 	if (eClass1 != eClass2)

	mov	eax, DWORD PTR _eClass1$[ebp]
	cmp	eax, DWORD PTR _eClass2$[ebp]
	je	SHORT $LN55@SwapGreatW

; 419  : 	{
; 420  : 		return false;

	xor	al, al
	jmp	$LN62@SwapGreatW
$LN55@SwapGreatW:

; 421  : 	}
; 422  : 	
; 423  : 	// We can't trade things that aren't in our swappable slots
; 424  : 	bool bFoundSwappable = false;

	mov	BYTE PTR _bFoundSwappable$[ebp], 0

; 425  : 	if (eClass1 == eWritingClass)

	mov	ecx, DWORD PTR _eClass1$[ebp]
	cmp	ecx, DWORD PTR _eWritingClass$[ebp]
	jne	SHORT $LN54@SwapGreatW

; 426  : 	{
; 427  : 		if (pCulture1->GetSwappableWritingIndex() == iWork1)

	mov	ecx, DWORD PTR _pCulture1$[ebp]
	call	?GetSwappableWritingIndex@CvPlayerCulture@@QBEHXZ ; CvPlayerCulture::GetSwappableWritingIndex
	cmp	eax, DWORD PTR _iWork1$[ebp]
	jne	SHORT $LN53@SwapGreatW

; 428  : 		{
; 429  : 			pCulture1->SetSwappableWritingIndex(-1);

	push	-1
	mov	ecx, DWORD PTR _pCulture1$[ebp]
	call	?SetSwappableWritingIndex@CvPlayerCulture@@QAEXH@Z ; CvPlayerCulture::SetSwappableWritingIndex

; 430  : 			bFoundSwappable = true;

	mov	BYTE PTR _bFoundSwappable$[ebp], 1
$LN53@SwapGreatW:

; 431  : 		}
; 432  : 	}

	jmp	SHORT $LN52@SwapGreatW
$LN54@SwapGreatW:

; 433  : 	else if (eClass1 == eArtClass)

	mov	edx, DWORD PTR _eClass1$[ebp]
	cmp	edx, DWORD PTR _eArtClass$[ebp]
	jne	SHORT $LN51@SwapGreatW

; 434  : 	{
; 435  : 		if (pCulture1->GetSwappableArtIndex() == iWork1)

	mov	ecx, DWORD PTR _pCulture1$[ebp]
	call	?GetSwappableArtIndex@CvPlayerCulture@@QBEHXZ ; CvPlayerCulture::GetSwappableArtIndex
	cmp	eax, DWORD PTR _iWork1$[ebp]
	jne	SHORT $LN50@SwapGreatW

; 436  : 		{
; 437  : 			pCulture1->SetSwappableArtIndex(-1);

	push	-1
	mov	ecx, DWORD PTR _pCulture1$[ebp]
	call	?SetSwappableArtIndex@CvPlayerCulture@@QAEXH@Z ; CvPlayerCulture::SetSwappableArtIndex

; 438  : 			bFoundSwappable = true;

	mov	BYTE PTR _bFoundSwappable$[ebp], 1
$LN50@SwapGreatW:

; 439  : 		}
; 440  : 	}

	jmp	SHORT $LN52@SwapGreatW
$LN51@SwapGreatW:

; 441  : 	else if (eClass1 == eArtifactsClass)

	mov	eax, DWORD PTR _eClass1$[ebp]
	cmp	eax, DWORD PTR _eArtifactsClass$[ebp]
	jne	SHORT $LN48@SwapGreatW

; 442  : 	{
; 443  : 		if (pCulture1->GetSwappableArtifactIndex() == iWork1)

	mov	ecx, DWORD PTR _pCulture1$[ebp]
	call	?GetSwappableArtifactIndex@CvPlayerCulture@@QBEHXZ ; CvPlayerCulture::GetSwappableArtifactIndex
	cmp	eax, DWORD PTR _iWork1$[ebp]
	jne	SHORT $LN47@SwapGreatW

; 444  : 		{
; 445  : 			pCulture1->SetSwappableArtifactIndex(-1);

	push	-1
	mov	ecx, DWORD PTR _pCulture1$[ebp]
	call	?SetSwappableArtifactIndex@CvPlayerCulture@@QAEXH@Z ; CvPlayerCulture::SetSwappableArtifactIndex

; 446  : 			bFoundSwappable = true;

	mov	BYTE PTR _bFoundSwappable$[ebp], 1
$LN47@SwapGreatW:

; 447  : 		}
; 448  : 	}

	jmp	SHORT $LN52@SwapGreatW
$LN48@SwapGreatW:

; 449  : 	else if (eClass1 == eMusicClass)

	mov	ecx, DWORD PTR _eClass1$[ebp]
	cmp	ecx, DWORD PTR _eMusicClass$[ebp]
	jne	SHORT $LN52@SwapGreatW

; 450  : 	{
; 451  : 		if (pCulture1->GetSwappableMusicIndex() == iWork1)

	mov	ecx, DWORD PTR _pCulture1$[ebp]
	call	?GetSwappableMusicIndex@CvPlayerCulture@@QBEHXZ ; CvPlayerCulture::GetSwappableMusicIndex
	cmp	eax, DWORD PTR _iWork1$[ebp]
	jne	SHORT $LN52@SwapGreatW

; 452  : 		{
; 453  : 			pCulture1->SetSwappableMusicIndex(-1);

	push	-1
	mov	ecx, DWORD PTR _pCulture1$[ebp]
	call	?SetSwappableMusicIndex@CvPlayerCulture@@QAEXH@Z ; CvPlayerCulture::SetSwappableMusicIndex

; 454  : 			bFoundSwappable = true;

	mov	BYTE PTR _bFoundSwappable$[ebp], 1
$LN52@SwapGreatW:

; 455  : 		}
; 456  : 	}
; 457  : 
; 458  : 	if (!bFoundSwappable)

	movzx	edx, BYTE PTR _bFoundSwappable$[ebp]
	test	edx, edx
	jne	SHORT $LN43@SwapGreatW

; 459  : 	{
; 460  : 		return false;

	xor	al, al
	jmp	$LN62@SwapGreatW
$LN43@SwapGreatW:

; 461  : 	}
; 462  : 
; 463  : 	bFoundSwappable = false;

	mov	BYTE PTR _bFoundSwappable$[ebp], 0

; 464  : 	if (eClass2 == eWritingClass)

	mov	eax, DWORD PTR _eClass2$[ebp]
	cmp	eax, DWORD PTR _eWritingClass$[ebp]
	jne	SHORT $LN42@SwapGreatW

; 465  : 	{
; 466  : 		if (pCulture2->GetSwappableWritingIndex() == iWork2)

	mov	ecx, DWORD PTR _pCulture2$[ebp]
	call	?GetSwappableWritingIndex@CvPlayerCulture@@QBEHXZ ; CvPlayerCulture::GetSwappableWritingIndex
	cmp	eax, DWORD PTR _iWork2$[ebp]
	jne	SHORT $LN41@SwapGreatW

; 467  : 		{
; 468  : 			pCulture2->SetSwappableWritingIndex(-1);

	push	-1
	mov	ecx, DWORD PTR _pCulture2$[ebp]
	call	?SetSwappableWritingIndex@CvPlayerCulture@@QAEXH@Z ; CvPlayerCulture::SetSwappableWritingIndex

; 469  : 			bFoundSwappable = true;

	mov	BYTE PTR _bFoundSwappable$[ebp], 1
$LN41@SwapGreatW:

; 470  : 		}
; 471  : 	}

	jmp	SHORT $LN40@SwapGreatW
$LN42@SwapGreatW:

; 472  : 	else if (eClass2 == eArtClass)

	mov	ecx, DWORD PTR _eClass2$[ebp]
	cmp	ecx, DWORD PTR _eArtClass$[ebp]
	jne	SHORT $LN39@SwapGreatW

; 473  : 	{
; 474  : 		if (pCulture2->GetSwappableArtIndex() == iWork2)

	mov	ecx, DWORD PTR _pCulture2$[ebp]
	call	?GetSwappableArtIndex@CvPlayerCulture@@QBEHXZ ; CvPlayerCulture::GetSwappableArtIndex
	cmp	eax, DWORD PTR _iWork2$[ebp]
	jne	SHORT $LN38@SwapGreatW

; 475  : 		{
; 476  : 			pCulture2->SetSwappableArtIndex(-1);

	push	-1
	mov	ecx, DWORD PTR _pCulture2$[ebp]
	call	?SetSwappableArtIndex@CvPlayerCulture@@QAEXH@Z ; CvPlayerCulture::SetSwappableArtIndex

; 477  : 			bFoundSwappable = true;

	mov	BYTE PTR _bFoundSwappable$[ebp], 1
$LN38@SwapGreatW:

; 478  : 		}
; 479  : 	}

	jmp	SHORT $LN40@SwapGreatW
$LN39@SwapGreatW:

; 480  : 	else if (eClass2 == eArtifactsClass)

	mov	edx, DWORD PTR _eClass2$[ebp]
	cmp	edx, DWORD PTR _eArtifactsClass$[ebp]
	jne	SHORT $LN36@SwapGreatW

; 481  : 	{
; 482  : 		if (pCulture2->GetSwappableArtifactIndex() == iWork2)

	mov	ecx, DWORD PTR _pCulture2$[ebp]
	call	?GetSwappableArtifactIndex@CvPlayerCulture@@QBEHXZ ; CvPlayerCulture::GetSwappableArtifactIndex
	cmp	eax, DWORD PTR _iWork2$[ebp]
	jne	SHORT $LN35@SwapGreatW

; 483  : 		{
; 484  : 			pCulture2->SetSwappableArtifactIndex(-1);

	push	-1
	mov	ecx, DWORD PTR _pCulture2$[ebp]
	call	?SetSwappableArtifactIndex@CvPlayerCulture@@QAEXH@Z ; CvPlayerCulture::SetSwappableArtifactIndex

; 485  : 			bFoundSwappable = true;

	mov	BYTE PTR _bFoundSwappable$[ebp], 1
$LN35@SwapGreatW:

; 486  : 		}
; 487  : 	}

	jmp	SHORT $LN40@SwapGreatW
$LN36@SwapGreatW:

; 488  : 	else if (eClass2 == eMusicClass)

	mov	eax, DWORD PTR _eClass2$[ebp]
	cmp	eax, DWORD PTR _eMusicClass$[ebp]
	jne	SHORT $LN40@SwapGreatW

; 489  : 	{
; 490  : 		if (pCulture2->GetSwappableMusicIndex() == iWork2)

	mov	ecx, DWORD PTR _pCulture2$[ebp]
	call	?GetSwappableMusicIndex@CvPlayerCulture@@QBEHXZ ; CvPlayerCulture::GetSwappableMusicIndex
	cmp	eax, DWORD PTR _iWork2$[ebp]
	jne	SHORT $LN40@SwapGreatW

; 491  : 		{
; 492  : 			pCulture2->SetSwappableMusicIndex(-1);

	push	-1
	mov	ecx, DWORD PTR _pCulture2$[ebp]
	call	?SetSwappableMusicIndex@CvPlayerCulture@@QAEXH@Z ; CvPlayerCulture::SetSwappableMusicIndex

; 493  : 			bFoundSwappable = true;

	mov	BYTE PTR _bFoundSwappable$[ebp], 1
$LN40@SwapGreatW:

; 494  : 		}
; 495  : 	}
; 496  : 
; 497  : 	if (!bFoundSwappable)

	movzx	ecx, BYTE PTR _bFoundSwappable$[ebp]
	test	ecx, ecx
	jne	SHORT $LN31@SwapGreatW

; 498  : 	{
; 499  : 		return false;

	xor	al, al
	jmp	$LN62@SwapGreatW
$LN31@SwapGreatW:

; 500  : 	}
; 501  : 
; 502  : 	CvCity* pCity1 = NULL;

	mov	DWORD PTR _pCity1$[ebp], 0

; 503  : 	BuildingClassTypes eBuildingClass1 = NO_BUILDINGCLASS;

	mov	DWORD PTR _eBuildingClass1$[ebp], -1

; 504  : 	int iSwapIndex1 = -1;

	mov	DWORD PTR _iSwapIndex1$[ebp], -1

; 505  : 
; 506  : 	CvCity* pCity2 = NULL;

	mov	DWORD PTR _pCity2$[ebp], 0

; 507  : 	BuildingClassTypes eBuildingClass2 = NO_BUILDINGCLASS;

	mov	DWORD PTR _eBuildingClass2$[ebp], -1

; 508  : 	int iSwapIndex2 = -1;

	mov	DWORD PTR _iSwapIndex2$[ebp], -1

; 509  : 
; 510  : 	int iCityLoop;
; 511  : 	CvCity* pCity = NULL;

	mov	DWORD PTR _pCity$[ebp], 0

; 512  : 	for (uint ui = 0; ui < 2; ui++)

	mov	DWORD PTR _ui$222799[ebp], 0
	jmp	SHORT $LN30@SwapGreatW
$LN29@SwapGreatW:
	mov	edx, DWORD PTR _ui$222799[ebp]
	add	edx, 1
	mov	DWORD PTR _ui$222799[ebp], edx
$LN30@SwapGreatW:
	cmp	DWORD PTR _ui$222799[ebp], 2
	jae	$LN28@SwapGreatW

; 513  : 	{
; 514  : 		PlayerTypes eTempPlayer = NO_PLAYER;

	mov	DWORD PTR _eTempPlayer$222803[ebp], -1

; 515  : 		switch (ui)

	mov	eax, DWORD PTR _ui$222799[ebp]
	mov	DWORD PTR tv213[ebp], eax
	cmp	DWORD PTR tv213[ebp], 0
	je	SHORT $LN25@SwapGreatW
	cmp	DWORD PTR tv213[ebp], 1
	je	SHORT $LN24@SwapGreatW
	jmp	SHORT $LN26@SwapGreatW
$LN25@SwapGreatW:

; 516  : 		{
; 517  : 		case 0:
; 518  : 			eTempPlayer = ePlayer1;

	mov	ecx, DWORD PTR _ePlayer1$[ebp]
	mov	DWORD PTR _eTempPlayer$222803[ebp], ecx

; 519  : 			break;

	jmp	SHORT $LN26@SwapGreatW
$LN24@SwapGreatW:

; 520  : 		case 1:
; 521  : 			eTempPlayer = ePlayer2;

	mov	edx, DWORD PTR _ePlayer2$[ebp]
	mov	DWORD PTR _eTempPlayer$222803[ebp], edx
$LN26@SwapGreatW:

; 522  : 			break;
; 523  : 		}
; 524  : 
; 525  : 		for (pCity = GET_PLAYER(eTempPlayer).firstCity(&iCityLoop); pCity != NULL; pCity = GET_PLAYER(eTempPlayer).nextCity(&iCityLoop))

	mov	eax, DWORD PTR _eTempPlayer$222803[ebp]
	imul	eax, 63236				; 0000f704H
	add	eax, DWORD PTR ?m_aPlayers@CvPlayerAI@@1PAV1@A ; CvPlayerAI::m_aPlayers
	mov	DWORD PTR $T232753[ebp], eax
	push	0
	lea	ecx, DWORD PTR _iCityLoop$[ebp]
	push	ecx
	mov	ecx, DWORD PTR $T232753[ebp]
	call	?firstCity@CvPlayer@@QAEPAVCvCity@@PAH_N@Z ; CvPlayer::firstCity
	mov	DWORD PTR _pCity$[ebp], eax
	jmp	SHORT $LN23@SwapGreatW
$LN22@SwapGreatW:
	mov	edx, DWORD PTR _eTempPlayer$222803[ebp]
	imul	edx, 63236				; 0000f704H
	add	edx, DWORD PTR ?m_aPlayers@CvPlayerAI@@1PAV1@A ; CvPlayerAI::m_aPlayers
	mov	DWORD PTR $T232757[ebp], edx
	push	0
	lea	eax, DWORD PTR _iCityLoop$[ebp]
	push	eax
	mov	ecx, DWORD PTR $T232757[ebp]
	call	?nextCity@CvPlayer@@QAEPAVCvCity@@PAH_N@Z ; CvPlayer::nextCity
	mov	DWORD PTR _pCity$[ebp], eax
$LN23@SwapGreatW:
	cmp	DWORD PTR _pCity$[ebp], 0
	je	$LN21@SwapGreatW

; 526  : 		{
; 527  : #ifdef AUI_WARNING_FIXES
; 528  : 			for (uint iBuildingClassLoop = 0; iBuildingClassLoop < GC.getNumBuildingClassInfos(); iBuildingClassLoop++)
; 529  : #else
; 530  : 			for(int iBuildingClassLoop = 0; iBuildingClassLoop < GC.getNumBuildingClassInfos(); iBuildingClassLoop++)

	mov	DWORD PTR _iBuildingClassLoop$222813[ebp], 0
	jmp	SHORT $LN20@SwapGreatW
$LN19@SwapGreatW:
	mov	ecx, DWORD PTR _iBuildingClassLoop$222813[ebp]
	add	ecx, 1
	mov	DWORD PTR _iBuildingClassLoop$222813[ebp], ecx
$LN20@SwapGreatW:
	mov	ecx, OFFSET ?gGlobals@@3VCvGlobals@@A	; gGlobals
	call	?getNumBuildingClassInfos@CvGlobals@@QAEHXZ ; CvGlobals::getNumBuildingClassInfos
	cmp	DWORD PTR _iBuildingClassLoop$222813[ebp], eax
	jge	$LN18@SwapGreatW

; 531  : #endif
; 532  : 			{
; 533  : 				CvCivilizationInfo& playerCivilizationInfo = GET_PLAYER(eTempPlayer).getCivilizationInfo();

	mov	edx, DWORD PTR _eTempPlayer$222803[ebp]
	imul	edx, 63236				; 0000f704H
	add	edx, DWORD PTR ?m_aPlayers@CvPlayerAI@@1PAV1@A ; CvPlayerAI::m_aPlayers
	mov	DWORD PTR $T232761[ebp], edx
	mov	ecx, DWORD PTR $T232761[ebp]
	call	?getCivilizationInfo@CvPlayer@@QBEAAVCvCivilizationInfo@@XZ ; CvPlayer::getCivilizationInfo
	mov	DWORD PTR _playerCivilizationInfo$222817[ebp], eax

; 534  : 				BuildingTypes eBuilding = (BuildingTypes)playerCivilizationInfo.getCivilizationBuildings((BuildingClassTypes)iBuildingClassLoop);

	mov	eax, DWORD PTR _iBuildingClassLoop$222813[ebp]
	push	eax
	mov	ecx, DWORD PTR _playerCivilizationInfo$222817[ebp]
	call	?getCivilizationBuildings@CvCivilizationInfo@@QBEHH@Z ; CvCivilizationInfo::getCivilizationBuildings
	mov	DWORD PTR _eBuilding$222818[ebp], eax

; 535  : 				if (eBuilding != NO_BUILDING)

	cmp	DWORD PTR _eBuilding$222818[ebp], -1
	je	$LN17@SwapGreatW

; 536  : 				{
; 537  : 					CvBuildingEntry *pkBuilding = GC.getBuildingInfo(eBuilding);

	mov	ecx, DWORD PTR _eBuilding$222818[ebp]
	push	ecx
	mov	ecx, OFFSET ?gGlobals@@3VCvGlobals@@A	; gGlobals
	call	?getBuildingInfo@CvGlobals@@QAEPAVCvBuildingEntry@@W4BuildingTypes@@@Z ; CvGlobals::getBuildingInfo
	mov	DWORD PTR _pkBuilding$222822[ebp], eax

; 538  : 					if (pkBuilding)

	cmp	DWORD PTR _pkBuilding$222822[ebp], 0
	je	$LN17@SwapGreatW

; 539  : 					{
; 540  : 						if (pCity->GetCityBuildings()->GetNumBuilding(eBuilding) > 0)

	mov	edx, DWORD PTR _eBuilding$222818[ebp]
	push	edx
	mov	ecx, DWORD PTR _pCity$[ebp]
	call	?GetCityBuildings@CvCity@@QBEPAVCvCityBuildings@@XZ ; CvCity::GetCityBuildings
	mov	ecx, eax
	call	?GetNumBuilding@CvCityBuildings@@QBEHW4BuildingTypes@@@Z ; CvCityBuildings::GetNumBuilding
	test	eax, eax
	jle	$LN17@SwapGreatW

; 541  : 						{
; 542  : 							int iNumSlots = pkBuilding->GetGreatWorkCount();

	mov	ecx, DWORD PTR _pkBuilding$222822[ebp]
	call	?GetGreatWorkCount@CvBuildingEntry@@QBEHXZ ; CvBuildingEntry::GetGreatWorkCount
	mov	DWORD PTR _iNumSlots$222825[ebp], eax

; 543  : 							for (int iI = 0; iI < iNumSlots; iI++)

	mov	DWORD PTR _iI$222826[ebp], 0
	jmp	SHORT $LN14@SwapGreatW
$LN13@SwapGreatW:
	mov	eax, DWORD PTR _iI$222826[ebp]
	add	eax, 1
	mov	DWORD PTR _iI$222826[ebp], eax
$LN14@SwapGreatW:
	mov	ecx, DWORD PTR _iI$222826[ebp]
	cmp	ecx, DWORD PTR _iNumSlots$222825[ebp]
	jge	SHORT $LN17@SwapGreatW

; 544  : 							{
; 545  : 								int iGreatWorkIndex = pCity->GetCityBuildings()->GetBuildingGreatWork((BuildingClassTypes)iBuildingClassLoop, iI);

	mov	edx, DWORD PTR _iI$222826[ebp]
	push	edx
	mov	eax, DWORD PTR _iBuildingClassLoop$222813[ebp]
	push	eax
	mov	ecx, DWORD PTR _pCity$[ebp]
	call	?GetCityBuildings@CvCity@@QBEPAVCvCityBuildings@@XZ ; CvCity::GetCityBuildings
	mov	ecx, eax
	call	?GetBuildingGreatWork@CvCityBuildings@@QBEHW4BuildingClassTypes@@H@Z ; CvCityBuildings::GetBuildingGreatWork
	mov	DWORD PTR _iGreatWorkIndex$222830[ebp], eax

; 546  : 								if (ui == 0)

	cmp	DWORD PTR _ui$222799[ebp], 0
	jne	SHORT $LN11@SwapGreatW

; 547  : 								{
; 548  : 									if (iGreatWorkIndex == iWork1)

	mov	ecx, DWORD PTR _iGreatWorkIndex$222830[ebp]
	cmp	ecx, DWORD PTR _iWork1$[ebp]
	jne	SHORT $LN10@SwapGreatW

; 549  : 									{
; 550  : 										pCity1 = pCity;

	mov	edx, DWORD PTR _pCity$[ebp]
	mov	DWORD PTR _pCity1$[ebp], edx

; 551  : 										eBuildingClass1 = (BuildingClassTypes)iBuildingClassLoop;

	mov	eax, DWORD PTR _iBuildingClassLoop$222813[ebp]
	mov	DWORD PTR _eBuildingClass1$[ebp], eax

; 552  : 										iSwapIndex1 = iI;

	mov	ecx, DWORD PTR _iI$222826[ebp]
	mov	DWORD PTR _iSwapIndex1$[ebp], ecx

; 553  : 										break;

	jmp	SHORT $LN17@SwapGreatW
$LN10@SwapGreatW:

; 554  : 									}
; 555  : 								}

	jmp	SHORT $LN9@SwapGreatW
$LN11@SwapGreatW:

; 556  : 								else if (ui == 1)

	cmp	DWORD PTR _ui$222799[ebp], 1
	jne	SHORT $LN9@SwapGreatW

; 557  : 								{
; 558  : 									if (iGreatWorkIndex == iWork2)

	mov	edx, DWORD PTR _iGreatWorkIndex$222830[ebp]
	cmp	edx, DWORD PTR _iWork2$[ebp]
	jne	SHORT $LN9@SwapGreatW

; 559  : 									{
; 560  : 										pCity2 = pCity;

	mov	eax, DWORD PTR _pCity$[ebp]
	mov	DWORD PTR _pCity2$[ebp], eax

; 561  : 										eBuildingClass2 = (BuildingClassTypes)iBuildingClassLoop;

	mov	ecx, DWORD PTR _iBuildingClassLoop$222813[ebp]
	mov	DWORD PTR _eBuildingClass2$[ebp], ecx

; 562  : 										iSwapIndex2 = iI;

	mov	edx, DWORD PTR _iI$222826[ebp]
	mov	DWORD PTR _iSwapIndex2$[ebp], edx

; 563  : 										break;

	jmp	SHORT $LN17@SwapGreatW
$LN9@SwapGreatW:

; 564  : 									}
; 565  : 								}
; 566  : 							}

	jmp	SHORT $LN13@SwapGreatW
$LN17@SwapGreatW:

; 567  : 						}
; 568  : 					}
; 569  : 				}
; 570  : 			}

	jmp	$LN19@SwapGreatW
$LN18@SwapGreatW:

; 571  : 		}

	jmp	$LN22@SwapGreatW
$LN21@SwapGreatW:

; 572  : 	}

	jmp	$LN29@SwapGreatW
$LN28@SwapGreatW:

; 573  : 
; 574  : 	if (pCity1 == NULL || pCity2 == NULL)

	cmp	DWORD PTR _pCity1$[ebp], 0
	je	SHORT $LN5@SwapGreatW
	cmp	DWORD PTR _pCity2$[ebp], 0
	jne	SHORT $LN6@SwapGreatW
$LN5@SwapGreatW:

; 575  : 	{
; 576  : 		return false;

	xor	al, al
	jmp	$LN62@SwapGreatW
$LN6@SwapGreatW:

; 577  : 	}
; 578  : 
; 579  : 	if (eBuildingClass1 == NO_BUILDINGCLASS || eBuildingClass2 == NO_BUILDINGCLASS)

	cmp	DWORD PTR _eBuildingClass1$[ebp], -1
	je	SHORT $LN3@SwapGreatW
	cmp	DWORD PTR _eBuildingClass2$[ebp], -1
	jne	SHORT $LN4@SwapGreatW
$LN3@SwapGreatW:

; 580  : 	{
; 581  : 		return false;

	xor	al, al
	jmp	$LN62@SwapGreatW
$LN4@SwapGreatW:

; 582  : 	}
; 583  : 
; 584  : 	if (iSwapIndex1 == -1 || iSwapIndex2 == -1)

	cmp	DWORD PTR _iSwapIndex1$[ebp], -1
	je	SHORT $LN1@SwapGreatW
	cmp	DWORD PTR _iSwapIndex2$[ebp], -1
	jne	SHORT $LN2@SwapGreatW
$LN1@SwapGreatW:

; 585  : 	{
; 586  : 		return false;

	xor	al, al
	jmp	$LN62@SwapGreatW
$LN2@SwapGreatW:

; 587  : 	}
; 588  : 
; 589  : 	// remove existing great works
; 590  : 	pCity1->GetCityBuildings()->SetBuildingGreatWork(eBuildingClass1, iSwapIndex1, NO_GREAT_WORK);

	push	-1
	mov	eax, DWORD PTR _iSwapIndex1$[ebp]
	push	eax
	mov	ecx, DWORD PTR _eBuildingClass1$[ebp]
	push	ecx
	mov	ecx, DWORD PTR _pCity1$[ebp]
	call	?GetCityBuildings@CvCity@@QBEPAVCvCityBuildings@@XZ ; CvCity::GetCityBuildings
	mov	ecx, eax
	call	?SetBuildingGreatWork@CvCityBuildings@@QAEXW4BuildingClassTypes@@HH@Z ; CvCityBuildings::SetBuildingGreatWork

; 591  : 	pCity2->GetCityBuildings()->SetBuildingGreatWork(eBuildingClass2, iSwapIndex2, NO_GREAT_WORK);

	push	-1
	mov	edx, DWORD PTR _iSwapIndex2$[ebp]
	push	edx
	mov	eax, DWORD PTR _eBuildingClass2$[ebp]
	push	eax
	mov	ecx, DWORD PTR _pCity2$[ebp]
	call	?GetCityBuildings@CvCity@@QBEPAVCvCityBuildings@@XZ ; CvCity::GetCityBuildings
	mov	ecx, eax
	call	?SetBuildingGreatWork@CvCityBuildings@@QAEXW4BuildingClassTypes@@HH@Z ; CvCityBuildings::SetBuildingGreatWork

; 592  : 
; 593  : 	// add in new works
; 594  : 	pCity1->GetCityBuildings()->SetBuildingGreatWork(eBuildingClass1, iSwapIndex1, iWork2);

	mov	ecx, DWORD PTR _iWork2$[ebp]
	push	ecx
	mov	edx, DWORD PTR _iSwapIndex1$[ebp]
	push	edx
	mov	eax, DWORD PTR _eBuildingClass1$[ebp]
	push	eax
	mov	ecx, DWORD PTR _pCity1$[ebp]
	call	?GetCityBuildings@CvCity@@QBEPAVCvCityBuildings@@XZ ; CvCity::GetCityBuildings
	mov	ecx, eax
	call	?SetBuildingGreatWork@CvCityBuildings@@QAEXW4BuildingClassTypes@@HH@Z ; CvCityBuildings::SetBuildingGreatWork

; 595  : 	pCity2->GetCityBuildings()->SetBuildingGreatWork(eBuildingClass2, iSwapIndex2, iWork1);

	mov	ecx, DWORD PTR _iWork1$[ebp]
	push	ecx
	mov	edx, DWORD PTR _iSwapIndex2$[ebp]
	push	edx
	mov	eax, DWORD PTR _eBuildingClass2$[ebp]
	push	eax
	mov	ecx, DWORD PTR _pCity2$[ebp]
	call	?GetCityBuildings@CvCity@@QBEPAVCvCityBuildings@@XZ ; CvCity::GetCityBuildings
	mov	ecx, eax
	call	?SetBuildingGreatWork@CvCityBuildings@@QAEXW4BuildingClassTypes@@HH@Z ; CvCityBuildings::SetBuildingGreatWork

; 596  : 	
; 597  : 	GC.GetEngineUserInterface()->setDirty(GreatWorksScreen_DIRTY_BIT, true);

	mov	ecx, DWORD PTR $T232765[ebp]
	mov	DWORD PTR tv314[ebp], ecx
	mov	edx, DWORD PTR ?gGlobals@@3VCvGlobals@@A+8568
	mov	DWORD PTR tv314[ebp], edx
	push	1
	push	36					; 00000024H
	mov	eax, DWORD PTR tv314[ebp]
	mov	edx, DWORD PTR [eax]
	mov	ecx, DWORD PTR tv314[ebp]
	mov	eax, DWORD PTR [edx+260]
	call	eax

; 598  : 
; 599  : 	return true;

	mov	al, 1
$LN62@SwapGreatW:

; 600  : }

	mov	esp, ebp
	pop	ebp
	ret	16					; 00000010H
?SwapGreatWorks@CvGameCulture@@QAE_NW4PlayerTypes@@H0H@Z ENDP ; CvGameCulture::SwapGreatWorks
_TEXT	ENDS
PUBLIC	?MoveGreatWorks@CvGameCulture@@QAEXW4PlayerTypes@@HHHHHH@Z ; CvGameCulture::MoveGreatWorks
EXTRN	?getCity@CvPlayer@@QAEPAVCvCity@@H@Z:PROC	; CvPlayer::getCity
; Function compile flags: /Odtp
;	COMDAT ?MoveGreatWorks@CvGameCulture@@QAEXW4PlayerTypes@@HHHHHH@Z
_TEXT	SEGMENT
_this$ = -28						; size = 4
$T232779 = -21						; size = 1
_pCity1$ = -20						; size = 4
_workType2$ = -16					; size = 4
_pCity2$ = -12						; size = 4
_workType1$ = -8					; size = 4
_kPlayer$ = -4						; size = 4
_ePlayer$ = 8						; size = 4
_iCity1$ = 12						; size = 4
_iBuildingClass1$ = 16					; size = 4
_iWorkIndex1$ = 20					; size = 4
_iCity2$ = 24						; size = 4
_iBuildingClass2$ = 28					; size = 4
_iWorkIndex2$ = 32					; size = 4
?MoveGreatWorks@CvGameCulture@@QAEXW4PlayerTypes@@HHHHHH@Z PROC ; CvGameCulture::MoveGreatWorks, COMDAT
; _this$ = ecx

; 604  : {

	push	ebp
	mov	ebp, esp
	sub	esp, 28					; 0000001cH
	mov	DWORD PTR _this$[ebp], ecx

; 605  : 	if(ePlayer == NO_PLAYER){

	cmp	DWORD PTR _ePlayer$[ebp], -1
	jne	SHORT $LN7@MoveGreatW

; 606  : 		return;

	jmp	$LN5@MoveGreatW

; 607  : 	}
; 608  : 
; 609  : 	CvPlayer& kPlayer = GET_PLAYER(ePlayer);

$LN7@MoveGreatW:
	mov	eax, DWORD PTR _ePlayer$[ebp]
	imul	eax, 63236				; 0000f704H
	add	eax, DWORD PTR ?m_aPlayers@CvPlayerAI@@1PAV1@A ; CvPlayerAI::m_aPlayers
	mov	DWORD PTR _kPlayer$[ebp], eax

; 610  : 	if (!kPlayer.isAlive()){

	mov	ecx, DWORD PTR _kPlayer$[ebp]
	mov	dl, BYTE PTR [ecx+2256]
	mov	BYTE PTR $T232779[ebp], dl
	movzx	eax, BYTE PTR $T232779[ebp]
	test	eax, eax
	jne	SHORT $LN3@MoveGreatW

; 611  : 		return;

	jmp	$LN5@MoveGreatW
$LN3@MoveGreatW:

; 612  : 	}
; 613  : 
; 614  : 	CvCity* pCity1 = kPlayer.getCity(iCity1);

	mov	ecx, DWORD PTR _iCity1$[ebp]
	push	ecx
	mov	ecx, DWORD PTR _kPlayer$[ebp]
	call	?getCity@CvPlayer@@QAEPAVCvCity@@H@Z	; CvPlayer::getCity
	mov	DWORD PTR _pCity1$[ebp], eax

; 615  : 	CvCity* pCity2 = kPlayer.getCity(iCity2);

	mov	edx, DWORD PTR _iCity2$[ebp]
	push	edx
	mov	ecx, DWORD PTR _kPlayer$[ebp]
	call	?getCity@CvPlayer@@QAEPAVCvCity@@H@Z	; CvPlayer::getCity
	mov	DWORD PTR _pCity2$[ebp], eax

; 616  : 	if(!pCity1 || !pCity2){

	cmp	DWORD PTR _pCity1$[ebp], 0
	je	SHORT $LN1@MoveGreatW
	cmp	DWORD PTR _pCity2$[ebp], 0
	jne	SHORT $LN2@MoveGreatW
$LN1@MoveGreatW:

; 617  : 		return;

	jmp	SHORT $LN5@MoveGreatW
$LN2@MoveGreatW:

; 618  : 	}
; 619  : 
; 620  : 	int workType1 = pCity1->GetCityBuildings()->GetBuildingGreatWork((BuildingClassTypes)iBuildingClass1, iWorkIndex1);

	mov	eax, DWORD PTR _iWorkIndex1$[ebp]
	push	eax
	mov	ecx, DWORD PTR _iBuildingClass1$[ebp]
	push	ecx
	mov	ecx, DWORD PTR _pCity1$[ebp]
	call	?GetCityBuildings@CvCity@@QBEPAVCvCityBuildings@@XZ ; CvCity::GetCityBuildings
	mov	ecx, eax
	call	?GetBuildingGreatWork@CvCityBuildings@@QBEHW4BuildingClassTypes@@H@Z ; CvCityBuildings::GetBuildingGreatWork
	mov	DWORD PTR _workType1$[ebp], eax

; 621  : 	int workType2 = pCity2->GetCityBuildings()->GetBuildingGreatWork((BuildingClassTypes)iBuildingClass2, iWorkIndex2);

	mov	edx, DWORD PTR _iWorkIndex2$[ebp]
	push	edx
	mov	eax, DWORD PTR _iBuildingClass2$[ebp]
	push	eax
	mov	ecx, DWORD PTR _pCity2$[ebp]
	call	?GetCityBuildings@CvCity@@QBEPAVCvCityBuildings@@XZ ; CvCity::GetCityBuildings
	mov	ecx, eax
	call	?GetBuildingGreatWork@CvCityBuildings@@QBEHW4BuildingClassTypes@@H@Z ; CvCityBuildings::GetBuildingGreatWork
	mov	DWORD PTR _workType2$[ebp], eax

; 622  : 	pCity1->GetCityBuildings()->SetBuildingGreatWork((BuildingClassTypes)iBuildingClass1, iWorkIndex1, workType2);

	mov	ecx, DWORD PTR _workType2$[ebp]
	push	ecx
	mov	edx, DWORD PTR _iWorkIndex1$[ebp]
	push	edx
	mov	eax, DWORD PTR _iBuildingClass1$[ebp]
	push	eax
	mov	ecx, DWORD PTR _pCity1$[ebp]
	call	?GetCityBuildings@CvCity@@QBEPAVCvCityBuildings@@XZ ; CvCity::GetCityBuildings
	mov	ecx, eax
	call	?SetBuildingGreatWork@CvCityBuildings@@QAEXW4BuildingClassTypes@@HH@Z ; CvCityBuildings::SetBuildingGreatWork

; 623  : 	pCity2->GetCityBuildings()->SetBuildingGreatWork((BuildingClassTypes)iBuildingClass2, iWorkIndex2, workType1);

	mov	ecx, DWORD PTR _workType1$[ebp]
	push	ecx
	mov	edx, DWORD PTR _iWorkIndex2$[ebp]
	push	edx
	mov	eax, DWORD PTR _iBuildingClass2$[ebp]
	push	eax
	mov	ecx, DWORD PTR _pCity2$[ebp]
	call	?GetCityBuildings@CvCity@@QBEPAVCvCityBuildings@@XZ ; CvCity::GetCityBuildings
	mov	ecx, eax
	call	?SetBuildingGreatWork@CvCityBuildings@@QAEXW4BuildingClassTypes@@HH@Z ; CvCityBuildings::SetBuildingGreatWork
$LN5@MoveGreatW:

; 624  : }

	mov	esp, ebp
	pop	ebp
	ret	28					; 0000001cH
?MoveGreatWorks@CvGameCulture@@QAEXW4PlayerTypes@@HHHHHH@Z ENDP ; CvGameCulture::MoveGreatWorks
_TEXT	ENDS
PUBLIC	?GetNumCivsInfluentialForWin@CvGameCulture@@QBEHXZ ; CvGameCulture::GetNumCivsInfluentialForWin
EXTRN	?isBarbarian@CvPlayer@@QBE_NXZ:PROC		; CvPlayer::isBarbarian
EXTRN	?isMinorCiv@CvPlayer@@QBE_NXZ:PROC		; CvPlayer::isMinorCiv
; Function compile flags: /Odtp
;	COMDAT ?GetNumCivsInfluentialForWin@CvGameCulture@@QBEHXZ
_TEXT	SEGMENT
_this$ = -20						; size = 4
$T232793 = -13						; size = 1
_kPlayer$222876 = -12					; size = 4
_iPlayerLoop$222872 = -8				; size = 4
_iAliveMajors$ = -4					; size = 4
?GetNumCivsInfluentialForWin@CvGameCulture@@QBEHXZ PROC	; CvGameCulture::GetNumCivsInfluentialForWin, COMDAT
; _this$ = ecx

; 628  : {

	push	ebp
	mov	ebp, esp
	sub	esp, 20					; 00000014H
	mov	DWORD PTR _this$[ebp], ecx

; 629  : 	// How many players are alive?
; 630  : 	int iAliveMajors = 0;

	mov	DWORD PTR _iAliveMajors$[ebp], 0

; 631  : 	for(int iPlayerLoop = 0; iPlayerLoop < MAX_PLAYERS; iPlayerLoop++)

	mov	DWORD PTR _iPlayerLoop$222872[ebp], 0
	jmp	SHORT $LN4@GetNumCivs
$LN3@GetNumCivs:
	mov	eax, DWORD PTR _iPlayerLoop$222872[ebp]
	add	eax, 1
	mov	DWORD PTR _iPlayerLoop$222872[ebp], eax
$LN4@GetNumCivs:
	cmp	DWORD PTR _iPlayerLoop$222872[ebp], 64	; 00000040H
	jge	SHORT $LN2@GetNumCivs

; 632  : 	{
; 633  : 		CvPlayer &kPlayer = GET_PLAYER((PlayerTypes)iPlayerLoop);

	mov	ecx, DWORD PTR _iPlayerLoop$222872[ebp]
	imul	ecx, 63236				; 0000f704H
	add	ecx, DWORD PTR ?m_aPlayers@CvPlayerAI@@1PAV1@A ; CvPlayerAI::m_aPlayers
	mov	DWORD PTR _kPlayer$222876[ebp], ecx

; 634  : 		if (kPlayer.isAlive() && !kPlayer.isMinorCiv() && !kPlayer.isBarbarian())

	mov	edx, DWORD PTR _kPlayer$222876[ebp]
	mov	al, BYTE PTR [edx+2256]
	mov	BYTE PTR $T232793[ebp], al
	movzx	ecx, BYTE PTR $T232793[ebp]
	test	ecx, ecx
	je	SHORT $LN1@GetNumCivs
	mov	ecx, DWORD PTR _kPlayer$222876[ebp]
	call	?isMinorCiv@CvPlayer@@QBE_NXZ		; CvPlayer::isMinorCiv
	movzx	edx, al
	test	edx, edx
	jne	SHORT $LN1@GetNumCivs
	mov	ecx, DWORD PTR _kPlayer$222876[ebp]
	call	?isBarbarian@CvPlayer@@QBE_NXZ		; CvPlayer::isBarbarian
	movzx	eax, al
	test	eax, eax
	jne	SHORT $LN1@GetNumCivs

; 635  : 		{
; 636  : 			iAliveMajors++;

	mov	ecx, DWORD PTR _iAliveMajors$[ebp]
	add	ecx, 1
	mov	DWORD PTR _iAliveMajors$[ebp], ecx
$LN1@GetNumCivs:

; 637  : 		}
; 638  : 	}

	jmp	SHORT $LN3@GetNumCivs
$LN2@GetNumCivs:

; 639  : 
; 640  : 	return iAliveMajors - 1;  // Don't have to be influential over yourself

	mov	eax, DWORD PTR _iAliveMajors$[ebp]
	sub	eax, 1

; 641  : }

	mov	esp, ebp
	pop	ebp
	ret	0
?GetNumCivsInfluentialForWin@CvGameCulture@@QBEHXZ ENDP	; CvGameCulture::GetNumCivsInfluentialForWin
_TEXT	ENDS
PUBLIC	__$ArrayPad$
PUBLIC	??5@YAAAVFDataStream@@AAV0@AAVCvGameCulture@@@Z	; operator>>
EXTRN	?Read@FDataStream@@IAEXAA_N@Z:PROC		; FDataStream::Read
;	COMDAT xdata$x
; File d:\sources\lekmod_git\checkout\lekmod_dll\cvgamecoredllutil\include\cvstring.h
xdata$x	SEGMENT
__unwindtable$??5@YAAAVFDataStream@@AAV0@AAVCvGameCulture@@@Z DD 0ffffffffH
	DD	FLAT:__unwindfunclet$??5@YAAAVFDataStream@@AAV0@AAVCvGameCulture@@@Z$0
__ehfuncinfo$??5@YAAAVFDataStream@@AAV0@AAVCvGameCulture@@@Z DD 019930522H
	DD	01H
	DD	FLAT:__unwindtable$??5@YAAAVFDataStream@@AAV0@AAVCvGameCulture@@@Z
	DD	2 DUP(00H)
	DD	2 DUP(00H)
	DD	00H
	DD	01H
; Function compile flags: /Odtp
; File d:\sources\lekmod_git\checkout\lekmod_dll\cvgamecoredll_expansion2\cvcultureclasses.cpp
xdata$x	ENDS
;	COMDAT ??5@YAAAVFDataStream@@AAV0@AAVCvGameCulture@@@Z
_TEXT	SEGMENT
$T232863 = -109						; size = 1
$T232797 = -84						; size = 4
_bTempBool$222894 = -77					; size = 1
_iI$222886 = -76					; size = 4
_iEntriesToRead$ = -72					; size = 4
_uiVersion$ = -68					; size = 4
_tempItem$ = -64					; size = 48
__$ArrayPad$ = -16					; size = 4
__$EHRec$ = -12						; size = 12
_loadFrom$ = 8						; size = 4
_writeTo$ = 12						; size = 4
??5@YAAAVFDataStream@@AAV0@AAVCvGameCulture@@@Z PROC	; operator>>, COMDAT

; 647  : {

	push	ebp
	mov	ebp, esp
	push	-1
	push	__ehhandler$??5@YAAAVFDataStream@@AAV0@AAVCvGameCulture@@@Z
	mov	eax, DWORD PTR fs:0
	push	eax
	sub	esp, 100				; 00000064H
	mov	eax, DWORD PTR ___security_cookie
	xor	eax, ebp
	mov	DWORD PTR __$ArrayPad$[ebp], eax
	push	eax
	lea	eax, DWORD PTR __$EHRec$[ebp]
	mov	DWORD PTR fs:0, eax

; 648  : 	uint uiVersion;
; 649  : 
; 650  : 	loadFrom >> uiVersion;

	lea	eax, DWORD PTR _uiVersion$[ebp]
	push	eax
	mov	ecx, DWORD PTR _loadFrom$[ebp]
	call	?Read@FDataStream@@IAEXAAI@Z		; FDataStream::Read

; 651  : 
; 652  : 	int iEntriesToRead;
; 653  : 	CvGreatWork tempItem;

	lea	ecx, DWORD PTR _tempItem$[ebp]
	call	??0CvGreatWork@@QAE@XZ			; CvGreatWork::CvGreatWork
	mov	DWORD PTR __$EHRec$[ebp+8], 0

; 654  : 
; 655  : 	writeTo.m_CurrentGreatWorks.clear();

	mov	ecx, DWORD PTR _writeTo$[ebp]
	call	?clear@?$BaseVector@VCvGreatWork@@$0A@@@QAEXXZ ; BaseVector<CvGreatWork,0>::clear

; 656  : 	loadFrom >> iEntriesToRead;

	lea	ecx, DWORD PTR _iEntriesToRead$[ebp]
	push	ecx
	mov	ecx, DWORD PTR _loadFrom$[ebp]
	call	?Read@FDataStream@@IAEXAAH@Z		; FDataStream::Read

; 657  : 	for(int iI = 0; iI < iEntriesToRead; iI++)

	mov	DWORD PTR _iI$222886[ebp], 0
	jmp	SHORT $LN5@operator@2
$LN4@operator@2:
	mov	edx, DWORD PTR _iI$222886[ebp]
	add	edx, 1
	mov	DWORD PTR _iI$222886[ebp], edx
$LN5@operator@2:
	mov	eax, DWORD PTR _iI$222886[ebp]
	cmp	eax, DWORD PTR _iEntriesToRead$[ebp]
	jge	SHORT $LN3@operator@2

; 658  : 	{
; 659  : 		loadFrom >> tempItem;

	lea	ecx, DWORD PTR _tempItem$[ebp]
	push	ecx
	mov	edx, DWORD PTR _loadFrom$[ebp]
	push	edx
	call	??5@YAAAVFDataStream@@AAV0@AAVCvGreatWork@@@Z ; operator>>
	add	esp, 8

; 660  : 		writeTo.m_CurrentGreatWorks.push_back(tempItem);

	lea	eax, DWORD PTR _tempItem$[ebp]
	push	eax
	mov	ecx, DWORD PTR _writeTo$[ebp]
	call	?push_back@?$FStaticVector@VCvGreatWork@@$0BG@$0A@$0BCJ@$0A@@@QAEIABVCvGreatWork@@@Z ; FStaticVector<CvGreatWork,22,0,297,0>::push_back

; 661  : 	}

	jmp	SHORT $LN4@operator@2
$LN3@operator@2:

; 662  : 
; 663  : 	if (uiVersion >= 2)

	cmp	DWORD PTR _uiVersion$[ebp], 2
	jb	SHORT $LN2@operator@2

; 664  : 	{
; 665  : 		bool bTempBool;
; 666  : 		loadFrom >> bTempBool;

	lea	ecx, DWORD PTR _bTempBool$222894[ebp]
	push	ecx
	mov	ecx, DWORD PTR _loadFrom$[ebp]
	call	?Read@FDataStream@@IAEXAA_N@Z		; FDataStream::Read

; 667  : 		writeTo.SetReportedSomeoneInfluential(bTempBool);

	mov	dl, BYTE PTR _bTempBool$222894[ebp]
	mov	BYTE PTR $T232863[ebp], dl
	mov	eax, DWORD PTR _writeTo$[ebp]
	mov	cl, BYTE PTR $T232863[ebp]
	mov	BYTE PTR [eax+1072], cl

; 668  : 	}
; 669  : 	else

	jmp	SHORT $LN1@operator@2
$LN2@operator@2:

; 670  : 	{
; 671  : 		writeTo.SetReportedSomeoneInfluential(false);

	mov	edx, DWORD PTR _writeTo$[ebp]
	mov	BYTE PTR [edx+1072], 0
$LN1@operator@2:

; 672  : 	}
; 673  : 
; 674  : 	return loadFrom;

	mov	eax, DWORD PTR _loadFrom$[ebp]
	mov	DWORD PTR $T232797[ebp], eax
	mov	DWORD PTR __$EHRec$[ebp+8], -1
	lea	ecx, DWORD PTR _tempItem$[ebp]
	call	DWORD PTR __imp_??1?$basic_string@DU?$char_traits@D@std@@V?$allocator@D@2@@std@@QAE@XZ
	mov	eax, DWORD PTR $T232797[ebp]

; 675  : }

	mov	ecx, DWORD PTR __$EHRec$[ebp]
	mov	DWORD PTR fs:0, ecx
	pop	ecx
	mov	ecx, DWORD PTR __$ArrayPad$[ebp]
	xor	ecx, ebp
	call	@__security_check_cookie@4
	mov	esp, ebp
	pop	ebp
	ret	0
_TEXT	ENDS
;	COMDAT text$x
text$x	SEGMENT
__unwindfunclet$??5@YAAAVFDataStream@@AAV0@AAVCvGameCulture@@@Z$0:
	lea	ecx, DWORD PTR _tempItem$[ebp]
	jmp	??1CvGreatWork@@QAE@XZ
__ehhandler$??5@YAAAVFDataStream@@AAV0@AAVCvGameCulture@@@Z:
	mov	edx, DWORD PTR [esp+8]
	lea	eax, DWORD PTR [edx+12]
	mov	ecx, DWORD PTR [edx-104]
	xor	ecx, eax
	call	@__security_check_cookie@4
	mov	ecx, DWORD PTR [edx-4]
	xor	ecx, eax
	call	@__security_check_cookie@4
	mov	eax, OFFSET __ehfuncinfo$??5@YAAAVFDataStream@@AAV0@AAVCvGameCulture@@@Z
	jmp	___CxxFrameHandler3
text$x	ENDS
??5@YAAAVFDataStream@@AAV0@AAVCvGameCulture@@@Z ENDP	; operator>>
PUBLIC	??6@YAAAVFDataStream@@AAV0@ABVCvGameCulture@@@Z	; operator<<
EXTRN	?Write@FDataStream@@IAEXAB_N@Z:PROC		; FDataStream::Write
; Function compile flags: /Odtp
;	COMDAT ??6@YAAAVFDataStream@@AAV0@ABVCvGameCulture@@@Z
_TEXT	SEGMENT
$T232906 = -21						; size = 1
$T232893 = -20						; size = 4
$T232886 = -13						; size = 1
$T232885 = -12						; size = 4
_uiVersion$ = -8					; size = 4
_it$ = -4						; size = 4
_saveTo$ = 8						; size = 4
_readFrom$ = 12						; size = 4
??6@YAAAVFDataStream@@AAV0@ABVCvGameCulture@@@Z PROC	; operator<<, COMDAT

; 679  : {

	push	ebp
	mov	ebp, esp
	sub	esp, 24					; 00000018H

; 680  : 	uint uiVersion = 2;

	mov	DWORD PTR _uiVersion$[ebp], 2

; 681  : 	saveTo << uiVersion;

	lea	eax, DWORD PTR _uiVersion$[ebp]
	push	eax
	mov	ecx, DWORD PTR _saveTo$[ebp]
	call	?Write@FDataStream@@IAEXABI@Z		; FDataStream::Write

; 682  : 
; 683  : 	GreatWorkList::const_iterator it;
; 684  : 	saveTo << readFrom.m_CurrentGreatWorks.size();

	mov	ecx, DWORD PTR _readFrom$[ebp]
	mov	edx, DWORD PTR [ecx+4]
	mov	DWORD PTR $T232893[ebp], edx
	mov	eax, DWORD PTR $T232893[ebp]
	mov	DWORD PTR $T232885[ebp], eax
	lea	ecx, DWORD PTR $T232885[ebp]
	push	ecx
	mov	ecx, DWORD PTR _saveTo$[ebp]
	call	?Write@FDataStream@@IAEXABI@Z		; FDataStream::Write

; 685  : #ifdef AUI_ITERATOR_POSTFIX_INCREMENT_OPTIMIZATIONS
; 686  : 	for (it = readFrom.m_CurrentGreatWorks.begin(); it != readFrom.m_CurrentGreatWorks.end(); ++it)
; 687  : #else
; 688  : 	for(it = readFrom.m_CurrentGreatWorks.begin(); it != readFrom.m_CurrentGreatWorks.end(); it++)

	mov	edx, DWORD PTR _readFrom$[ebp]
	mov	eax, DWORD PTR [edx]
	mov	DWORD PTR _it$[ebp], eax
	jmp	SHORT $LN14@operator@3
$LN2@operator@3:
	mov	ecx, DWORD PTR _it$[ebp]
	add	ecx, 48					; 00000030H
	mov	DWORD PTR _it$[ebp], ecx
$LN14@operator@3:
	mov	edx, DWORD PTR _readFrom$[ebp]
	mov	eax, DWORD PTR [edx+4]
	imul	eax, 48					; 00000030H
	mov	ecx, DWORD PTR _readFrom$[ebp]
	add	eax, DWORD PTR [ecx]
	cmp	DWORD PTR _it$[ebp], eax
	je	SHORT $LN1@operator@3

; 689  : #endif
; 690  : 	{
; 691  : 		saveTo << *it;

	mov	edx, DWORD PTR _it$[ebp]
	push	edx
	mov	eax, DWORD PTR _saveTo$[ebp]
	push	eax
	call	??6@YAAAVFDataStream@@AAV0@ABVCvGreatWork@@@Z ; operator<<
	add	esp, 8

; 692  : 	}

	jmp	SHORT $LN2@operator@3
$LN1@operator@3:

; 693  : 
; 694  : 	saveTo << readFrom.GetReportedSomeoneInfluential();

	mov	ecx, DWORD PTR _readFrom$[ebp]
	mov	dl, BYTE PTR [ecx+1072]
	mov	BYTE PTR $T232906[ebp], dl
	mov	al, BYTE PTR $T232906[ebp]
	mov	BYTE PTR $T232886[ebp], al
	lea	ecx, DWORD PTR $T232886[ebp]
	push	ecx
	mov	ecx, DWORD PTR _saveTo$[ebp]
	call	?Write@FDataStream@@IAEXAB_N@Z		; FDataStream::Write

; 695  : 
; 696  : 	return saveTo;

	mov	eax, DWORD PTR _saveTo$[ebp]

; 697  : }

	mov	esp, ebp
	pop	ebp
	ret	0
??6@YAAAVFDataStream@@AAV0@ABVCvGameCulture@@@Z ENDP	; operator<<
_TEXT	ENDS
PUBLIC	??0CvGreatWorkInMyEmpire@@QAE@XZ		; CvGreatWorkInMyEmpire::CvGreatWorkInMyEmpire
; Function compile flags: /Odtp
;	COMDAT ??0CvGreatWorkInMyEmpire@@QAE@XZ
_TEXT	SEGMENT
_this$ = -4						; size = 4
??0CvGreatWorkInMyEmpire@@QAE@XZ PROC			; CvGreatWorkInMyEmpire::CvGreatWorkInMyEmpire, COMDAT
; _this$ = ecx

; 714  : {

	push	ebp
	mov	ebp, esp
	push	ecx
	mov	DWORD PTR _this$[ebp], ecx
	mov	eax, DWORD PTR _this$[ebp]
	mov	DWORD PTR [eax], -1
	mov	ecx, DWORD PTR _this$[ebp]
	mov	DWORD PTR [ecx+4], -1
	mov	edx, DWORD PTR _this$[ebp]
	mov	DWORD PTR [edx+8], -1
	mov	eax, DWORD PTR _this$[ebp]
	mov	DWORD PTR [eax+12], -1

; 715  : }

	mov	eax, DWORD PTR _this$[ebp]
	mov	esp, ebp
	pop	ebp
	ret	0
??0CvGreatWorkInMyEmpire@@QAE@XZ ENDP			; CvGreatWorkInMyEmpire::CvGreatWorkInMyEmpire
_TEXT	ENDS
PUBLIC	??0CvGreatWorkInMyEmpire@@QAE@HHW4BuildingTypes@@HW4PlayerTypes@@W4EraTypes@@@Z ; CvGreatWorkInMyEmpire::CvGreatWorkInMyEmpire
; Function compile flags: /Odtp
;	COMDAT ??0CvGreatWorkInMyEmpire@@QAE@HHW4BuildingTypes@@HW4PlayerTypes@@W4EraTypes@@@Z
_TEXT	SEGMENT
_this$ = -4						; size = 4
_iIndex$ = 8						; size = 4
_iCityID$ = 12						; size = 4
_eBuilding$ = 16					; size = 4
_iSlot$ = 20						; size = 4
_ePlayer$ = 24						; size = 4
_eEra$ = 28						; size = 4
??0CvGreatWorkInMyEmpire@@QAE@HHW4BuildingTypes@@HW4PlayerTypes@@W4EraTypes@@@Z PROC ; CvGreatWorkInMyEmpire::CvGreatWorkInMyEmpire, COMDAT
; _this$ = ecx

; 729  : {

	push	ebp
	mov	ebp, esp
	push	ecx
	mov	DWORD PTR _this$[ebp], ecx
	mov	eax, DWORD PTR _this$[ebp]
	mov	ecx, DWORD PTR _iIndex$[ebp]
	mov	DWORD PTR [eax], ecx
	mov	edx, DWORD PTR _this$[ebp]
	mov	eax, DWORD PTR _iCityID$[ebp]
	mov	DWORD PTR [edx+4], eax
	mov	ecx, DWORD PTR _this$[ebp]
	mov	edx, DWORD PTR _eBuilding$[ebp]
	mov	DWORD PTR [ecx+8], edx
	mov	eax, DWORD PTR _this$[ebp]
	mov	ecx, DWORD PTR _iSlot$[ebp]
	mov	DWORD PTR [eax+12], ecx
	mov	edx, DWORD PTR _this$[ebp]
	mov	eax, DWORD PTR _ePlayer$[ebp]
	mov	DWORD PTR [edx+16], eax
	mov	ecx, DWORD PTR _this$[ebp]
	mov	edx, DWORD PTR _eEra$[ebp]
	mov	DWORD PTR [ecx+20], edx

; 730  : }

	mov	eax, DWORD PTR _this$[ebp]
	mov	esp, ebp
	pop	ebp
	ret	24					; 00000018H
??0CvGreatWorkInMyEmpire@@QAE@HHW4BuildingTypes@@HW4PlayerTypes@@W4EraTypes@@@Z ENDP ; CvGreatWorkInMyEmpire::CvGreatWorkInMyEmpire
_TEXT	ENDS
PUBLIC	??0CvGreatWorkBuildingInMyEmpire@@QAE@XZ	; CvGreatWorkBuildingInMyEmpire::CvGreatWorkBuildingInMyEmpire
; Function compile flags: /Odtp
;	COMDAT ??0CvGreatWorkBuildingInMyEmpire@@QAE@XZ
_TEXT	SEGMENT
_this$ = -4						; size = 4
??0CvGreatWorkBuildingInMyEmpire@@QAE@XZ PROC		; CvGreatWorkBuildingInMyEmpire::CvGreatWorkBuildingInMyEmpire, COMDAT
; _this$ = ecx

; 739  : {

	push	ebp
	mov	ebp, esp
	push	ecx
	mov	DWORD PTR _this$[ebp], ecx
	mov	eax, DWORD PTR _this$[ebp]
	mov	DWORD PTR [eax], -1
	mov	ecx, DWORD PTR _this$[ebp]
	mov	DWORD PTR [ecx+4], -1

; 740  : 	m_bThemed = false;

	mov	edx, DWORD PTR _this$[ebp]
	mov	BYTE PTR [edx+8], 0

; 741  : 	m_bEndangered = false;

	mov	eax, DWORD PTR _this$[ebp]
	mov	BYTE PTR [eax+9], 0

; 742  : }

	mov	eax, DWORD PTR _this$[ebp]
	mov	esp, ebp
	pop	ebp
	ret	0
??0CvGreatWorkBuildingInMyEmpire@@QAE@XZ ENDP		; CvGreatWorkBuildingInMyEmpire::CvGreatWorkBuildingInMyEmpire
_TEXT	ENDS
PUBLIC	??0CvGreatWorkBuildingInMyEmpire@@QAE@HW4BuildingTypes@@@Z ; CvGreatWorkBuildingInMyEmpire::CvGreatWorkBuildingInMyEmpire
; Function compile flags: /Odtp
;	COMDAT ??0CvGreatWorkBuildingInMyEmpire@@QAE@HW4BuildingTypes@@@Z
_TEXT	SEGMENT
_this$ = -4						; size = 4
_iCityID$ = 8						; size = 4
_eBuilding$ = 12					; size = 4
??0CvGreatWorkBuildingInMyEmpire@@QAE@HW4BuildingTypes@@@Z PROC ; CvGreatWorkBuildingInMyEmpire::CvGreatWorkBuildingInMyEmpire, COMDAT
; _this$ = ecx

; 748  : {

	push	ebp
	mov	ebp, esp
	push	ecx
	mov	DWORD PTR _this$[ebp], ecx
	mov	eax, DWORD PTR _this$[ebp]
	mov	ecx, DWORD PTR _iCityID$[ebp]
	mov	DWORD PTR [eax], ecx
	mov	edx, DWORD PTR _this$[ebp]
	mov	eax, DWORD PTR _eBuilding$[ebp]
	mov	DWORD PTR [edx+4], eax

; 749  : 	m_bThemed = false;

	mov	ecx, DWORD PTR _this$[ebp]
	mov	BYTE PTR [ecx+8], 0

; 750  : 	m_bEndangered = false;

	mov	edx, DWORD PTR _this$[ebp]
	mov	BYTE PTR [edx+9], 0

; 751  : }

	mov	eax, DWORD PTR _this$[ebp]
	mov	esp, ebp
	pop	ebp
	ret	8
??0CvGreatWorkBuildingInMyEmpire@@QAE@HW4BuildingTypes@@@Z ENDP ; CvGreatWorkBuildingInMyEmpire::CvGreatWorkBuildingInMyEmpire
_TEXT	ENDS
PUBLIC	??1?$vector@PAVCvPlot@@V?$allocator@PAVCvPlot@@@std@@@std@@QAE@XZ ; std::vector<CvPlot *,std::allocator<CvPlot *> >::~vector<CvPlot *,std::allocator<CvPlot *> >
PUBLIC	??1?$_Vector_val@PAVCvPlot@@V?$allocator@PAVCvPlot@@@std@@@std@@QAE@XZ ; std::_Vector_val<CvPlot *,std::allocator<CvPlot *> >::~_Vector_val<CvPlot *,std::allocator<CvPlot *> >
PUBLIC	?_Buy@?$vector@PAVCvPlot@@V?$allocator@PAVCvPlot@@@std@@@std@@IAE_NI@Z ; std::vector<CvPlot *,std::allocator<CvPlot *> >::_Buy
PUBLIC	??0CvPlayerCulture@@QAE@XZ			; CvPlayerCulture::CvPlayerCulture
EXTRN	__CxxThrowException@8:PROC
;	COMDAT xdata$x
; File d:\sources\lekmod_git\checkout\lekmod_dll\cvgamecoredllutil\include\cvstring.h
xdata$x	SEGMENT
__unwindtable$??0CvPlayerCulture@@QAE@XZ DD 0ffffffffH
	DD	FLAT:__unwindfunclet$??0CvPlayerCulture@@QAE@XZ$3
	DD	0ffffffffH
	DD	FLAT:__unwindfunclet$??0CvPlayerCulture@@QAE@XZ$0
	DD	01H
	DD	FLAT:__unwindfunclet$??0CvPlayerCulture@@QAE@XZ$1
__ehfuncinfo$??0CvPlayerCulture@@QAE@XZ DD 019930522H
	DD	03H
	DD	FLAT:__unwindtable$??0CvPlayerCulture@@QAE@XZ
	DD	2 DUP(00H)
	DD	2 DUP(00H)
	DD	00H
	DD	01H
; Function compile flags: /Odtp
; File d:\sources\lekmod_git\checkout\lekmod_dll\cvgamecoredll_expansion2\cvcultureclasses.cpp
xdata$x	ENDS
;	COMDAT ??0CvPlayerCulture@@QAE@XZ
_TEXT	SEGMENT
tv139 = -124						; size = 4
tv164 = -120						; size = 4
_this$ = -116						; size = 4
$T233002 = -112						; size = 4
$T232997 = -108						; size = 4
$T232953 = -30						; size = 1
$T232940 = -29						; size = 1
$T232936 = -28						; size = 4
$T232929 = -20						; size = 4
__$EHRec$ = -12						; size = 12
??0CvPlayerCulture@@QAE@XZ PROC				; CvPlayerCulture::CvPlayerCulture, COMDAT
; _this$ = ecx

; 759  : {

	push	ebp
	mov	ebp, esp
	push	-1
	push	__ehhandler$??0CvPlayerCulture@@QAE@XZ
	mov	eax, DWORD PTR fs:0
	push	eax
	sub	esp, 112				; 00000070H
	mov	eax, DWORD PTR ___security_cookie
	xor	eax, ebp
	push	eax
	lea	eax, DWORD PTR __$EHRec$[ebp]
	mov	DWORD PTR fs:0, eax
	mov	DWORD PTR _this$[ebp], ecx
	lea	eax, DWORD PTR $T232953[ebp]
	mov	DWORD PTR $T232929[ebp], eax
	lea	ecx, DWORD PTR $T232940[ebp]
	mov	DWORD PTR $T232936[ebp], ecx
	mov	edx, DWORD PTR _this$[ebp]
	mov	DWORD PTR tv164[ebp], edx
	mov	eax, DWORD PTR _this$[ebp]
	mov	DWORD PTR tv139[ebp], eax
	mov	DWORD PTR __$EHRec$[ebp+8], 0
	push	0
	mov	ecx, DWORD PTR _this$[ebp]
	call	?_Buy@?$vector@PAVCvPlot@@V?$allocator@PAVCvPlot@@@std@@@std@@IAE_NI@Z ; std::vector<CvPlot *,std::allocator<CvPlot *> >::_Buy
	mov	DWORD PTR __$EHRec$[ebp+8], 1
	mov	ecx, DWORD PTR _this$[ebp]
	add	ecx, 220				; 000000dcH
	mov	DWORD PTR $T232997[ebp], ecx
	mov	ecx, DWORD PTR $T232997[ebp]
	call	DWORD PTR __imp_??0?$basic_string@DU?$char_traits@D@std@@V?$allocator@D@2@@std@@QAE@XZ
	mov	BYTE PTR __$EHRec$[ebp+8], 2
	mov	edx, DWORD PTR _this$[ebp]
	add	edx, 248				; 000000f8H
	mov	DWORD PTR $T233002[ebp], edx
	mov	ecx, DWORD PTR $T233002[ebp]
	call	DWORD PTR __imp_??0?$basic_string@DU?$char_traits@D@std@@V?$allocator@D@2@@std@@QAE@XZ
	mov	eax, DWORD PTR _this$[ebp]
	mov	DWORD PTR [eax+292], 0

; 760  : }

	mov	DWORD PTR __$EHRec$[ebp+8], -1
	mov	eax, DWORD PTR _this$[ebp]
	mov	ecx, DWORD PTR __$EHRec$[ebp]
	mov	DWORD PTR fs:0, ecx
	pop	ecx
	mov	esp, ebp
	pop	ebp
	ret	0
_TEXT	ENDS
;	COMDAT text$x
text$x	SEGMENT
__unwindfunclet$??0CvPlayerCulture@@QAE@XZ$3:
	mov	ecx, DWORD PTR _this$[ebp]
	jmp	??1?$_Vector_val@PAVCvPlot@@V?$allocator@PAVCvPlot@@@std@@@std@@QAE@XZ
__unwindfunclet$??0CvPlayerCulture@@QAE@XZ$0:
	mov	ecx, DWORD PTR _this$[ebp]
	jmp	??1?$vector@PAVCvPlot@@V?$allocator@PAVCvPlot@@@std@@@std@@QAE@XZ ; std::vector<CvPlot *,std::allocator<CvPlot *> >::~vector<CvPlot *,std::allocator<CvPlot *> >
__unwindfunclet$??0CvPlayerCulture@@QAE@XZ$1:
	mov	ecx, DWORD PTR _this$[ebp]
	add	ecx, 220				; 000000dcH
	jmp	??1CvString@@QAE@XZ			; CvString::~CvString
__ehhandler$??0CvPlayerCulture@@QAE@XZ:
	mov	edx, DWORD PTR [esp+8]
	lea	eax, DWORD PTR [edx+12]
	mov	ecx, DWORD PTR [edx-116]
	xor	ecx, eax
	call	@__security_check_cookie@4
	mov	eax, OFFSET __ehfuncinfo$??0CvPlayerCulture@@QAE@XZ
	jmp	___CxxFrameHandler3
text$x	ENDS
??0CvPlayerCulture@@QAE@XZ ENDP				; CvPlayerCulture::CvPlayerCulture
PUBLIC	?_Tidy@?$vector@PAVCvPlot@@V?$allocator@PAVCvPlot@@@std@@@std@@IAEXXZ ; std::vector<CvPlot *,std::allocator<CvPlot *> >::_Tidy
PUBLIC	??1CvPlayerCulture@@QAE@XZ			; CvPlayerCulture::~CvPlayerCulture
;	COMDAT xdata$x
; File c:\program files (x86)\microsoft visual studio 9.0\vc\include\xutility
xdata$x	SEGMENT
__unwindtable$??1CvPlayerCulture@@QAE@XZ DD 0ffffffffH
	DD	FLAT:__unwindfunclet$??1CvPlayerCulture@@QAE@XZ$0
	DD	00H
	DD	FLAT:__unwindfunclet$??1CvPlayerCulture@@QAE@XZ$1
	DD	0ffffffffH
	DD	FLAT:__unwindfunclet$??1CvPlayerCulture@@QAE@XZ$5
__ehfuncinfo$??1CvPlayerCulture@@QAE@XZ DD 019930522H
	DD	03H
	DD	FLAT:__unwindtable$??1CvPlayerCulture@@QAE@XZ
	DD	2 DUP(00H)
	DD	2 DUP(00H)
	DD	00H
	DD	01H
; Function compile flags: /Odtp
; File d:\sources\lekmod_git\checkout\lekmod_dll\cvgamecoredll_expansion2\cvcultureclasses.cpp
xdata$x	ENDS
;	COMDAT ??1CvPlayerCulture@@QAE@XZ
_TEXT	SEGMENT
_this$ = -52						; size = 4
$T233023 = -20						; size = 4
$T233018 = -16						; size = 4
__$EHRec$ = -12						; size = 12
??1CvPlayerCulture@@QAE@XZ PROC				; CvPlayerCulture::~CvPlayerCulture, COMDAT
; _this$ = ecx

; 764  : {

	push	ebp
	mov	ebp, esp
	push	-1
	push	__ehhandler$??1CvPlayerCulture@@QAE@XZ
	mov	eax, DWORD PTR fs:0
	push	eax
	sub	esp, 40					; 00000028H
	mov	eax, DWORD PTR ___security_cookie
	xor	eax, ebp
	push	eax
	lea	eax, DWORD PTR __$EHRec$[ebp]
	mov	DWORD PTR fs:0, eax
	mov	DWORD PTR _this$[ebp], ecx
	mov	DWORD PTR __$EHRec$[ebp+8], 1

; 765  : }

	mov	eax, DWORD PTR _this$[ebp]
	add	eax, 248				; 000000f8H
	mov	DWORD PTR $T233018[ebp], eax
	mov	ecx, DWORD PTR $T233018[ebp]
	call	DWORD PTR __imp_??1?$basic_string@DU?$char_traits@D@std@@V?$allocator@D@2@@std@@QAE@XZ
	mov	BYTE PTR __$EHRec$[ebp+8], 0
	mov	ecx, DWORD PTR _this$[ebp]
	add	ecx, 220				; 000000dcH
	mov	DWORD PTR $T233023[ebp], ecx
	mov	ecx, DWORD PTR $T233023[ebp]
	call	DWORD PTR __imp_??1?$basic_string@DU?$char_traits@D@std@@V?$allocator@D@2@@std@@QAE@XZ
	mov	DWORD PTR __$EHRec$[ebp+8], 2
	mov	ecx, DWORD PTR _this$[ebp]
	call	?_Tidy@?$vector@PAVCvPlot@@V?$allocator@PAVCvPlot@@@std@@@std@@IAEXXZ ; std::vector<CvPlot *,std::allocator<CvPlot *> >::_Tidy
	mov	DWORD PTR __$EHRec$[ebp+8], -1
	mov	ecx, DWORD PTR __$EHRec$[ebp]
	mov	DWORD PTR fs:0, ecx
	pop	ecx
	mov	esp, ebp
	pop	ebp
	ret	0
_TEXT	ENDS
;	COMDAT text$x
text$x	SEGMENT
__unwindfunclet$??1CvPlayerCulture@@QAE@XZ$0:
	mov	ecx, DWORD PTR _this$[ebp]
	jmp	??1?$vector@PAVCvPlot@@V?$allocator@PAVCvPlot@@@std@@@std@@QAE@XZ ; std::vector<CvPlot *,std::allocator<CvPlot *> >::~vector<CvPlot *,std::allocator<CvPlot *> >
__unwindfunclet$??1CvPlayerCulture@@QAE@XZ$1:
	mov	ecx, DWORD PTR _this$[ebp]
	add	ecx, 220				; 000000dcH
	jmp	??1CvString@@QAE@XZ			; CvString::~CvString
__unwindfunclet$??1CvPlayerCulture@@QAE@XZ$5:
	mov	ecx, DWORD PTR _this$[ebp]
	jmp	??1?$_Vector_val@PAVCvPlot@@V?$allocator@PAVCvPlot@@@std@@@std@@QAE@XZ
__ehhandler$??1CvPlayerCulture@@QAE@XZ:
	mov	edx, DWORD PTR [esp+8]
	lea	eax, DWORD PTR [edx+12]
	mov	ecx, DWORD PTR [edx-44]
	xor	ecx, eax
	call	@__security_check_cookie@4
	mov	eax, OFFSET __ehfuncinfo$??1CvPlayerCulture@@QAE@XZ
	jmp	___CxxFrameHandler3
text$x	ENDS
??1CvPlayerCulture@@QAE@XZ ENDP				; CvPlayerCulture::~CvPlayerCulture
PUBLIC	?ResetDigCompletePlots@CvPlayerCulture@@QAEXXZ	; CvPlayerCulture::ResetDigCompletePlots
PUBLIC	?Init@CvPlayerCulture@@QAEXPAVCvPlayer@@@Z	; CvPlayerCulture::Init
; Function compile flags: /Odtp
;	COMDAT ?Init@CvPlayerCulture@@QAEXPAVCvPlayer@@@Z
_TEXT	SEGMENT
_this$ = -8						; size = 4
_iI$222948 = -4						; size = 4
_pPlayer$ = 8						; size = 4
?Init@CvPlayerCulture@@QAEXPAVCvPlayer@@@Z PROC		; CvPlayerCulture::Init, COMDAT
; _this$ = ecx

; 769  : {

	push	ebp
	mov	ebp, esp
	sub	esp, 8
	mov	DWORD PTR _this$[ebp], ecx

; 770  : 	m_pPlayer = pPlayer;

	mov	eax, DWORD PTR _this$[ebp]
	mov	ecx, DWORD PTR _pPlayer$[ebp]
	mov	DWORD PTR [eax+292], ecx

; 771  : 
; 772  : 	ResetDigCompletePlots();

	mov	ecx, DWORD PTR _this$[ebp]
	call	?ResetDigCompletePlots@CvPlayerCulture@@QAEXXZ ; CvPlayerCulture::ResetDigCompletePlots

; 773  : 
; 774  : 	m_iLastTurnLifetimeCulture = 0;

	mov	edx, DWORD PTR _this$[ebp]
	mov	DWORD PTR [edx+16], 0

; 775  : 	m_iOpinionUnhappiness = 0;

	mov	eax, DWORD PTR _this$[ebp]
	mov	DWORD PTR [eax+216], 0

; 776  : 
; 777  : 	for (int iI = 0; iI < MAX_MAJOR_CIVS; iI++)

	mov	DWORD PTR _iI$222948[ebp], 0
	jmp	SHORT $LN3@Init
$LN2@Init:
	mov	ecx, DWORD PTR _iI$222948[ebp]
	add	ecx, 1
	mov	DWORD PTR _iI$222948[ebp], ecx
$LN3@Init:
	cmp	DWORD PTR _iI$222948[ebp], 22		; 00000016H
	jge	SHORT $LN1@Init

; 778  : 	{
; 779  : 		m_aiCulturalInfluence[iI] = 0;

	mov	edx, DWORD PTR _iI$222948[ebp]
	mov	eax, DWORD PTR _this$[ebp]
	mov	DWORD PTR [eax+edx*4+20], 0

; 780  : 		m_aiLastTurnCulturalInfluence[iI] = 0;

	mov	ecx, DWORD PTR _iI$222948[ebp]
	mov	edx, DWORD PTR _this$[ebp]
	mov	DWORD PTR [edx+ecx*4+108], 0

; 781  : 	}

	jmp	SHORT $LN2@Init
$LN1@Init:

; 782  : 
; 783  : 	m_bReportedTwoCivsAway = false;

	mov	eax, DWORD PTR _this$[ebp]
	mov	BYTE PTR [eax+196], 0

; 784  : 	m_bReportedOneCivAway = false;

	mov	ecx, DWORD PTR _this$[ebp]
	mov	BYTE PTR [ecx+197], 0

; 785  : 
; 786  : 	m_iSwappableWritingIndex  = -1;

	mov	edx, DWORD PTR _this$[ebp]
	mov	DWORD PTR [edx+276], -1

; 787  : 	m_iSwappableArtIndex      = -1;

	mov	eax, DWORD PTR _this$[ebp]
	mov	DWORD PTR [eax+280], -1

; 788  : 	m_iSwappableArtifactIndex = -1;

	mov	ecx, DWORD PTR _this$[ebp]
	mov	DWORD PTR [ecx+284], -1

; 789  : 	m_iSwappableMusicIndex    = -1;

	mov	edx, DWORD PTR _this$[ebp]
	mov	DWORD PTR [edx+288], -1

; 790  : 
; 791  : 	m_iTurnIdeologySwitch = -1;

	mov	eax, DWORD PTR _this$[ebp]
	mov	DWORD PTR [eax+208], -1

; 792  : }

	mov	esp, ebp
	pop	ebp
	ret	4
?Init@CvPlayerCulture@@QAEXPAVCvPlayer@@@Z ENDP		; CvPlayerCulture::Init
_TEXT	ENDS
PUBLIC	?HasAvailableGreatWorkSlot@CvPlayerCulture@@QAE_NW4GreatWorkSlotType@@@Z ; CvPlayerCulture::HasAvailableGreatWorkSlot
EXTRN	?HasAvailableGreatWorkSlot@CvCityBuildings@@QBE_NW4GreatWorkSlotType@@@Z:PROC ; CvCityBuildings::HasAvailableGreatWorkSlot
; Function compile flags: /Odtp
;	COMDAT ?HasAvailableGreatWorkSlot@CvPlayerCulture@@QAE_NW4GreatWorkSlotType@@@Z
_TEXT	SEGMENT
_this$ = -12						; size = 4
_pCity$222957 = -8					; size = 4
_iLoop$ = -4						; size = 4
_eGreatWorkSlot$ = 8					; size = 4
?HasAvailableGreatWorkSlot@CvPlayerCulture@@QAE_NW4GreatWorkSlotType@@@Z PROC ; CvPlayerCulture::HasAvailableGreatWorkSlot, COMDAT
; _this$ = ecx

; 798  : {

	push	ebp
	mov	ebp, esp
	sub	esp, 12					; 0000000cH
	mov	DWORD PTR _this$[ebp], ecx

; 799  : 	int iLoop;
; 800  : 	for (CvCity* pCity = m_pPlayer->firstCity(&iLoop); pCity != NULL; pCity = m_pPlayer->nextCity(&iLoop))

	push	0
	lea	eax, DWORD PTR _iLoop$[ebp]
	push	eax
	mov	ecx, DWORD PTR _this$[ebp]
	mov	ecx, DWORD PTR [ecx+292]
	call	?firstCity@CvPlayer@@QAEPAVCvCity@@PAH_N@Z ; CvPlayer::firstCity
	mov	DWORD PTR _pCity$222957[ebp], eax
	jmp	SHORT $LN4@HasAvailab
$LN3@HasAvailab:
	push	0
	lea	edx, DWORD PTR _iLoop$[ebp]
	push	edx
	mov	eax, DWORD PTR _this$[ebp]
	mov	ecx, DWORD PTR [eax+292]
	call	?nextCity@CvPlayer@@QAEPAVCvCity@@PAH_N@Z ; CvPlayer::nextCity
	mov	DWORD PTR _pCity$222957[ebp], eax
$LN4@HasAvailab:
	cmp	DWORD PTR _pCity$222957[ebp], 0
	je	SHORT $LN2@HasAvailab

; 801  : 	{
; 802  : 		if (pCity->GetCityBuildings()->HasAvailableGreatWorkSlot(eGreatWorkSlot))

	mov	ecx, DWORD PTR _eGreatWorkSlot$[ebp]
	push	ecx
	mov	ecx, DWORD PTR _pCity$222957[ebp]
	call	?GetCityBuildings@CvCity@@QBEPAVCvCityBuildings@@XZ ; CvCity::GetCityBuildings
	mov	ecx, eax
	call	?HasAvailableGreatWorkSlot@CvCityBuildings@@QBE_NW4GreatWorkSlotType@@@Z ; CvCityBuildings::HasAvailableGreatWorkSlot
	movzx	edx, al
	test	edx, edx
	je	SHORT $LN1@HasAvailab

; 803  : 		{
; 804  : 			return true;

	mov	al, 1
	jmp	SHORT $LN5@HasAvailab
$LN1@HasAvailab:

; 805  : 		}
; 806  : 	}

	jmp	SHORT $LN3@HasAvailab
$LN2@HasAvailab:

; 807  : 	return false;

	xor	al, al
$LN5@HasAvailab:

; 808  : }

	mov	esp, ebp
	pop	ebp
	ret	4
?HasAvailableGreatWorkSlot@CvPlayerCulture@@QAE_NW4GreatWorkSlotType@@@Z ENDP ; CvPlayerCulture::HasAvailableGreatWorkSlot
_TEXT	ENDS
PUBLIC	?GetNumAvailableGreatWorkSlots@CvPlayerCulture@@QBEHW4GreatWorkSlotType@@@Z ; CvPlayerCulture::GetNumAvailableGreatWorkSlots
EXTRN	?GetNumAvailableGreatWorkSlots@CvCityBuildings@@QBEHW4GreatWorkSlotType@@@Z:PROC ; CvCityBuildings::GetNumAvailableGreatWorkSlots
; Function compile flags: /Odtp
;	COMDAT ?GetNumAvailableGreatWorkSlots@CvPlayerCulture@@QBEHW4GreatWorkSlotType@@@Z
_TEXT	SEGMENT
_this$ = -16						; size = 4
_pCity$222968 = -12					; size = 4
_iCount$ = -8						; size = 4
_iLoop$ = -4						; size = 4
_eGreatWorkSlot$ = 8					; size = 4
?GetNumAvailableGreatWorkSlots@CvPlayerCulture@@QBEHW4GreatWorkSlotType@@@Z PROC ; CvPlayerCulture::GetNumAvailableGreatWorkSlots, COMDAT
; _this$ = ecx

; 818  : {

	push	ebp
	mov	ebp, esp
	sub	esp, 16					; 00000010H
	mov	DWORD PTR _this$[ebp], ecx

; 819  : 	int iLoop;
; 820  : 	int iCount = 0;

	mov	DWORD PTR _iCount$[ebp], 0

; 821  : #endif
; 822  : 
; 823  : 	for (CvCity* pCity = m_pPlayer->firstCity(&iLoop); pCity != NULL; pCity = m_pPlayer->nextCity(&iLoop))

	push	0
	lea	eax, DWORD PTR _iLoop$[ebp]
	push	eax
	mov	ecx, DWORD PTR _this$[ebp]
	mov	ecx, DWORD PTR [ecx+292]
	call	?firstCity@CvPlayer@@QAEPAVCvCity@@PAH_N@Z ; CvPlayer::firstCity
	mov	DWORD PTR _pCity$222968[ebp], eax
	jmp	SHORT $LN3@GetNumAvai
$LN2@GetNumAvai:
	push	0
	lea	edx, DWORD PTR _iLoop$[ebp]
	push	edx
	mov	eax, DWORD PTR _this$[ebp]
	mov	ecx, DWORD PTR [eax+292]
	call	?nextCity@CvPlayer@@QAEPAVCvCity@@PAH_N@Z ; CvPlayer::nextCity
	mov	DWORD PTR _pCity$222968[ebp], eax
$LN3@GetNumAvai:
	cmp	DWORD PTR _pCity$222968[ebp], 0
	je	SHORT $LN1@GetNumAvai

; 824  : 	{
; 825  : 		iCount += pCity->GetCityBuildings()->GetNumAvailableGreatWorkSlots(eGreatWorkSlot);

	mov	ecx, DWORD PTR _eGreatWorkSlot$[ebp]
	push	ecx
	mov	ecx, DWORD PTR _pCity$222968[ebp]
	call	?GetCityBuildings@CvCity@@QBEPAVCvCityBuildings@@XZ ; CvCity::GetCityBuildings
	mov	ecx, eax
	call	?GetNumAvailableGreatWorkSlots@CvCityBuildings@@QBEHW4GreatWorkSlotType@@@Z ; CvCityBuildings::GetNumAvailableGreatWorkSlots
	add	eax, DWORD PTR _iCount$[ebp]
	mov	DWORD PTR _iCount$[ebp], eax

; 826  : 	}

	jmp	SHORT $LN2@GetNumAvai
$LN1@GetNumAvai:

; 827  : 	return iCount;

	mov	eax, DWORD PTR _iCount$[ebp]

; 828  : }

	mov	esp, ebp
	pop	ebp
	ret	4
?GetNumAvailableGreatWorkSlots@CvPlayerCulture@@QBEHW4GreatWorkSlotType@@@Z ENDP ; CvPlayerCulture::GetNumAvailableGreatWorkSlots
_TEXT	ENDS
PUBLIC	?plotDistance@@YAHHHHH@Z			; plotDistance
PUBLIC	?GetClosestAvailableGreatWorkSlot@CvPlayerCulture@@QBEPAVCvCity@@HHW4GreatWorkSlotType@@PAW4BuildingClassTypes@@PAH@Z ; CvPlayerCulture::GetClosestAvailableGreatWorkSlot
EXTRN	?GetNextAvailableGreatWorkSlot@CvCityBuildings@@QBE_NW4GreatWorkSlotType@@PAW4BuildingClassTypes@@PAH@Z:PROC ; CvCityBuildings::GetNextAvailableGreatWorkSlot
; Function compile flags: /Odtp
;	COMDAT ?GetClosestAvailableGreatWorkSlot@CvPlayerCulture@@QBEPAVCvCity@@HHW4GreatWorkSlotType@@PAW4BuildingClassTypes@@PAH@Z
_TEXT	SEGMENT
_this$ = -120						; size = 4
$T233110 = -36						; size = 4
$T233101 = -32						; size = 4
_iDistance$222989 = -28					; size = 4
_pCity$222985 = -24					; size = 4
_eBuildingClassReturned$ = -20				; size = 4
_iBestDistance$ = -16					; size = 4
_iSlotReturned$ = -12					; size = 4
_pBestCity$ = -8					; size = 4
_iLoop$ = -4						; size = 4
_iX$ = 8						; size = 4
_iY$ = 12						; size = 4
_eGreatWorkSlot$ = 16					; size = 4
_eBuildingClass$ = 20					; size = 4
_iSlot$ = 24						; size = 4
?GetClosestAvailableGreatWorkSlot@CvPlayerCulture@@QBEPAVCvCity@@HHW4GreatWorkSlotType@@PAW4BuildingClassTypes@@PAH@Z PROC ; CvPlayerCulture::GetClosestAvailableGreatWorkSlot, COMDAT
; _this$ = ecx

; 836  : {

	push	ebp
	mov	ebp, esp
	sub	esp, 120				; 00000078H
	mov	DWORD PTR _this$[ebp], ecx

; 837  : 	int iLoop;
; 838  : 	int iBestDistance = MAX_INT;

	mov	DWORD PTR _iBestDistance$[ebp], 2147483647 ; 7fffffffH

; 839  : 	CvCity *pBestCity = NULL;

	mov	DWORD PTR _pBestCity$[ebp], 0

; 840  : 	BuildingClassTypes eBuildingClassReturned = NO_BUILDINGCLASS; // Passed by reference below

	mov	DWORD PTR _eBuildingClassReturned$[ebp], -1

; 841  : #ifdef AUI_WARNING_FIXES
; 842  : 	uint iSlotReturned = MAX_UNSIGNED_INT; // Passed by reference below
; 843  : #else
; 844  : 	int iSlotReturned = -1; // Passed by reference below

	mov	DWORD PTR _iSlotReturned$[ebp], -1

; 845  : #endif
; 846  : 
; 847  : 	for (CvCity* pCity = m_pPlayer->firstCity(&iLoop); pCity != NULL; pCity = m_pPlayer->nextCity(&iLoop))

	push	0
	lea	eax, DWORD PTR _iLoop$[ebp]
	push	eax
	mov	ecx, DWORD PTR _this$[ebp]
	mov	ecx, DWORD PTR [ecx+292]
	call	?firstCity@CvPlayer@@QAEPAVCvCity@@PAH_N@Z ; CvPlayer::firstCity
	mov	DWORD PTR _pCity$222985[ebp], eax
	jmp	SHORT $LN5@GetClosest
$LN4@GetClosest:
	push	0
	lea	edx, DWORD PTR _iLoop$[ebp]
	push	edx
	mov	eax, DWORD PTR _this$[ebp]
	mov	ecx, DWORD PTR [eax+292]
	call	?nextCity@CvPlayer@@QAEPAVCvCity@@PAH_N@Z ; CvPlayer::nextCity
	mov	DWORD PTR _pCity$222985[ebp], eax
$LN5@GetClosest:
	cmp	DWORD PTR _pCity$222985[ebp], 0
	je	SHORT $LN3@GetClosest

; 848  : 	{
; 849  : 		int iDistance = plotDistance (iX, iY, pCity->getX(), pCity->getY());

	mov	ecx, DWORD PTR _pCity$222985[ebp]
	mov	edx, DWORD PTR [ecx+108]
	mov	DWORD PTR $T233101[ebp], edx
	mov	eax, DWORD PTR _pCity$222985[ebp]
	mov	ecx, DWORD PTR [eax+96]
	mov	DWORD PTR $T233110[ebp], ecx
	mov	edx, DWORD PTR $T233101[ebp]
	push	edx
	mov	eax, DWORD PTR $T233110[ebp]
	push	eax
	mov	ecx, DWORD PTR _iY$[ebp]
	push	ecx
	mov	edx, DWORD PTR _iX$[ebp]
	push	edx
	call	?plotDistance@@YAHHHHH@Z		; plotDistance
	add	esp, 16					; 00000010H
	mov	DWORD PTR _iDistance$222989[ebp], eax

; 850  : 
; 851  : 		if (iDistance < iBestDistance)

	mov	eax, DWORD PTR _iDistance$222989[ebp]
	cmp	eax, DWORD PTR _iBestDistance$[ebp]
	jge	SHORT $LN2@GetClosest

; 852  : 		{
; 853  : 			if (pCity->GetCityBuildings()->GetNextAvailableGreatWorkSlot(eGreatWorkSlot, &eBuildingClassReturned, &iSlotReturned))

	lea	ecx, DWORD PTR _iSlotReturned$[ebp]
	push	ecx
	lea	edx, DWORD PTR _eBuildingClassReturned$[ebp]
	push	edx
	mov	eax, DWORD PTR _eGreatWorkSlot$[ebp]
	push	eax
	mov	ecx, DWORD PTR _pCity$222985[ebp]
	call	?GetCityBuildings@CvCity@@QBEPAVCvCityBuildings@@XZ ; CvCity::GetCityBuildings
	mov	ecx, eax
	call	?GetNextAvailableGreatWorkSlot@CvCityBuildings@@QBE_NW4GreatWorkSlotType@@PAW4BuildingClassTypes@@PAH@Z ; CvCityBuildings::GetNextAvailableGreatWorkSlot
	movzx	ecx, al
	test	ecx, ecx
	je	SHORT $LN2@GetClosest

; 854  : 			{
; 855  : 				iBestDistance = iDistance;

	mov	edx, DWORD PTR _iDistance$222989[ebp]
	mov	DWORD PTR _iBestDistance$[ebp], edx

; 856  : 				pBestCity = pCity;

	mov	eax, DWORD PTR _pCity$222985[ebp]
	mov	DWORD PTR _pBestCity$[ebp], eax

; 857  : 				*eBuildingClass = eBuildingClassReturned;

	mov	ecx, DWORD PTR _eBuildingClass$[ebp]
	mov	edx, DWORD PTR _eBuildingClassReturned$[ebp]
	mov	DWORD PTR [ecx], edx

; 858  : 				*iSlot = iSlotReturned;

	mov	eax, DWORD PTR _iSlot$[ebp]
	mov	ecx, DWORD PTR _iSlotReturned$[ebp]
	mov	DWORD PTR [eax], ecx
$LN2@GetClosest:

; 859  : 			}
; 860  : 		}
; 861  : 	}

	jmp	$LN4@GetClosest
$LN3@GetClosest:

; 862  : 
; 863  : 	return pBestCity;

	mov	eax, DWORD PTR _pBestCity$[ebp]

; 864  : }

	mov	esp, ebp
	pop	ebp
	ret	20					; 00000014H
?GetClosestAvailableGreatWorkSlot@CvPlayerCulture@@QBEPAVCvCity@@HHW4GreatWorkSlotType@@PAW4BuildingClassTypes@@PAH@Z ENDP ; CvPlayerCulture::GetClosestAvailableGreatWorkSlot
_TEXT	ENDS
PUBLIC	?dyWrap@@YAHH@Z					; dyWrap
PUBLIC	?dxWrap@@YAHH@Z					; dxWrap
; Function compile flags: /Odtp
; File d:\sources\lekmod_git\checkout\lekmod_dll\cvgamecoredll_expansion2\cvgamecoreutils.h
;	COMDAT ?plotDistance@@YAHHHHH@Z
_TEXT	SEGMENT
tv157 = -92						; size = 4
tv138 = -88						; size = 4
tv135 = -84						; size = 4
$T233279 = -80						; size = 4
$T233252 = -60						; size = 4
_iDY$ = -24						; size = 4
_iDX$ = -20						; size = 4
_iWrappedDX$ = -16					; size = 4
_iHX1$ = -12						; size = 4
_iHX2$ = -8						; size = 4
_iWrappedDY$ = -4					; size = 4
_iX1$ = 8						; size = 4
_iY1$ = 12						; size = 4
_iX2$ = 16						; size = 4
_iY2$ = 20						; size = 4
?plotDistance@@YAHHHHH@Z PROC				; plotDistance, COMDAT

; 144  : {

	push	ebp
	mov	ebp, esp
	sub	esp, 92					; 0000005cH

; 145  : 	int iDX;
; 146  : 	int iWrappedDX = dxWrap(iX2 - iX1);

	mov	eax, DWORD PTR _iX2$[ebp]
	sub	eax, DWORD PTR _iX1$[ebp]
	push	eax
	call	?dxWrap@@YAHH@Z				; dxWrap
	add	esp, 4
	mov	DWORD PTR _iWrappedDX$[ebp], eax

; 147  : 	int iWrappedDY = dyWrap(iY2 - iY1);

	mov	ecx, DWORD PTR _iY2$[ebp]
	sub	ecx, DWORD PTR _iY1$[ebp]
	push	ecx
	call	?dyWrap@@YAHH@Z				; dyWrap
	add	esp, 4
	mov	DWORD PTR _iWrappedDY$[ebp], eax

; 148  : 	int iDY = abs(iWrappedDY);

	mov	eax, DWORD PTR _iWrappedDY$[ebp]
	cdq
	xor	eax, edx
	sub	eax, edx
	mov	DWORD PTR _iDY$[ebp], eax

; 149  : 
; 150  : 	// convert to hex-space coordinates - the coordinate system axes are E and NE (not orthogonal)
; 151  : 	int iHX1 = xToHexspaceX(iX1, iY1);

	cmp	DWORD PTR _iY1$[ebp], 0
	jl	SHORT $LN35@plotDistan
	mov	edx, DWORD PTR _iY1$[ebp]
	sar	edx, 1
	mov	DWORD PTR tv135[ebp], edx
	jmp	SHORT $LN33@plotDistan
$LN35@plotDistan:
	mov	eax, DWORD PTR _iY1$[ebp]
	sub	eax, 1
	cdq
	sub	eax, edx
	sar	eax, 1
	mov	DWORD PTR tv135[ebp], eax
$LN33@plotDistan:
	mov	eax, DWORD PTR _iX1$[ebp]
	sub	eax, DWORD PTR tv135[ebp]
	mov	DWORD PTR _iHX1$[ebp], eax

; 152  : 	int iHX2 = xToHexspaceX(iX1 + iWrappedDX, iY1 + iWrappedDY);

	mov	ecx, DWORD PTR _iY1$[ebp]
	add	ecx, DWORD PTR _iWrappedDY$[ebp]
	mov	DWORD PTR $T233252[ebp], ecx
	js	SHORT $LN39@plotDistan
	mov	edx, DWORD PTR $T233252[ebp]
	sar	edx, 1
	mov	DWORD PTR tv138[ebp], edx
	jmp	SHORT $LN37@plotDistan
$LN39@plotDistan:
	mov	eax, DWORD PTR $T233252[ebp]
	sub	eax, 1
	cdq
	sub	eax, edx
	sar	eax, 1
	mov	DWORD PTR tv138[ebp], eax
$LN37@plotDistan:
	mov	eax, DWORD PTR _iX1$[ebp]
	add	eax, DWORD PTR _iWrappedDX$[ebp]
	sub	eax, DWORD PTR tv138[ebp]
	mov	DWORD PTR _iHX2$[ebp], eax

; 153  : 
; 154  : 	iDX = abs(dxWrap(iHX2 - iHX1));

	mov	ecx, DWORD PTR _iHX2$[ebp]
	sub	ecx, DWORD PTR _iHX1$[ebp]
	push	ecx
	call	?dxWrap@@YAHH@Z				; dxWrap
	add	esp, 4
	cdq
	xor	eax, edx
	sub	eax, edx
	mov	DWORD PTR _iDX$[ebp], eax

; 155  : 
; 156  : #ifdef NQM_GAME_CORE_UTILS_OPTIMIZATIONS
; 157  : 	if (((iHX2 - iHX1) ^ (iWrappedDY)) >= 0)  // the signs match
; 158  : #else
; 159  : 	if((iHX2 - iHX1 >= 0) == (iWrappedDY >= 0))  // the signs match

	mov	edx, DWORD PTR _iHX2$[ebp]
	sub	edx, DWORD PTR _iHX1$[ebp]
	xor	eax, eax
	test	edx, edx
	setge	al
	xor	ecx, ecx
	cmp	DWORD PTR _iWrappedDY$[ebp], 0
	setge	cl
	cmp	eax, ecx
	jne	SHORT $LN2@plotDistan

; 160  : #endif
; 161  : 	{
; 162  : 		return iDX + iDY;

	mov	eax, DWORD PTR _iDX$[ebp]
	add	eax, DWORD PTR _iDY$[ebp]
	jmp	SHORT $LN3@plotDistan

; 163  : 	}
; 164  : 	else

	jmp	SHORT $LN3@plotDistan
$LN2@plotDistan:

; 165  : 	{
; 166  : #ifdef NQM_FAST_COMP
; 167  : 		return (MAX(iDX, iDY));
; 168  : #else
; 169  : 		return (std::max(iDX, iDY));

	mov	edx, DWORD PTR _iDX$[ebp]
	cmp	edx, DWORD PTR _iDY$[ebp]
	jge	SHORT $LN57@plotDistan
	lea	eax, DWORD PTR _iDY$[ebp]
	mov	DWORD PTR tv157[ebp], eax
	jmp	SHORT $LN58@plotDistan
$LN57@plotDistan:
	lea	ecx, DWORD PTR _iDX$[ebp]
	mov	DWORD PTR tv157[ebp], ecx
$LN58@plotDistan:
	mov	edx, DWORD PTR tv157[ebp]
	mov	DWORD PTR $T233279[ebp], edx
	mov	eax, DWORD PTR $T233279[ebp]
	mov	eax, DWORD PTR [eax]
$LN3@plotDistan:

; 170  : #endif
; 171  : 	}
; 172  : }

	mov	esp, ebp
	pop	ebp
	ret	0
?plotDistance@@YAHHHHH@Z ENDP				; plotDistance
; Function compile flags: /Odtp
_TEXT	ENDS
;	COMDAT ?dxWrap@@YAHH@Z
_TEXT	SEGMENT
$T233302 = -16						; size = 4
$T233294 = -12						; size = 4
$T233290 = -5						; size = 1
_kMap$ = -4						; size = 4
_iDX$ = 8						; size = 4
?dxWrap@@YAHH@Z PROC					; dxWrap, COMDAT

; 73   : {

	push	ebp
	mov	ebp, esp
	sub	esp, 16					; 00000010H

; 74   : 	const CvMap& kMap = GC.getMap();

	mov	eax, DWORD PTR ?gGlobals@@3VCvGlobals@@A+52
	mov	DWORD PTR _kMap$[ebp], eax

; 75   : 	return wrapCoordDifference(iDX, kMap.getGridWidth(), kMap.isWrapX());

	mov	ecx, DWORD PTR _kMap$[ebp]
	mov	dl, BYTE PTR [ecx+4056]
	mov	BYTE PTR $T233290[ebp], dl
	mov	eax, DWORD PTR _kMap$[ebp]
	mov	ecx, DWORD PTR [eax+4020]
	mov	DWORD PTR $T233294[ebp], ecx
	movzx	edx, BYTE PTR $T233290[ebp]
	test	edx, edx
	je	SHORT $LN12@dxWrap
	mov	eax, DWORD PTR $T233294[ebp]
	shr	eax, 1
	cmp	DWORD PTR _iDX$[ebp], eax
	jle	SHORT $LN11@dxWrap
	mov	ecx, DWORD PTR _iDX$[ebp]
	sub	ecx, DWORD PTR $T233294[ebp]
	mov	DWORD PTR $T233302[ebp], ecx
	jmp	SHORT $LN13@dxWrap
	jmp	SHORT $LN12@dxWrap
$LN11@dxWrap:
	mov	edx, DWORD PTR $T233294[ebp]
	shr	edx, 1
	neg	edx
	cmp	DWORD PTR _iDX$[ebp], edx
	jge	SHORT $LN12@dxWrap
	mov	eax, DWORD PTR _iDX$[ebp]
	add	eax, DWORD PTR $T233294[ebp]
	mov	DWORD PTR $T233302[ebp], eax
	jmp	SHORT $LN13@dxWrap
$LN12@dxWrap:
	mov	ecx, DWORD PTR _iDX$[ebp]
	mov	DWORD PTR $T233302[ebp], ecx
$LN13@dxWrap:
	mov	eax, DWORD PTR $T233302[ebp]

; 76   : }

	mov	esp, ebp
	pop	ebp
	ret	0
?dxWrap@@YAHH@Z ENDP					; dxWrap
; Function compile flags: /Odtp
_TEXT	ENDS
;	COMDAT ?dyWrap@@YAHH@Z
_TEXT	SEGMENT
$T233323 = -16						; size = 4
$T233315 = -12						; size = 4
$T233311 = -5						; size = 1
_kMap$ = -4						; size = 4
_iDY$ = 8						; size = 4
?dyWrap@@YAHH@Z PROC					; dyWrap, COMDAT

; 79   : {

	push	ebp
	mov	ebp, esp
	sub	esp, 16					; 00000010H

; 80   : 	const CvMap& kMap = GC.getMap();

	mov	eax, DWORD PTR ?gGlobals@@3VCvGlobals@@A+52
	mov	DWORD PTR _kMap$[ebp], eax

; 81   : 	return wrapCoordDifference(iDY, kMap.getGridHeight(), kMap.isWrapY());

	mov	ecx, DWORD PTR _kMap$[ebp]
	mov	dl, BYTE PTR [ecx+4057]
	mov	BYTE PTR $T233311[ebp], dl
	mov	eax, DWORD PTR _kMap$[ebp]
	mov	ecx, DWORD PTR [eax+4024]
	mov	DWORD PTR $T233315[ebp], ecx
	movzx	edx, BYTE PTR $T233311[ebp]
	test	edx, edx
	je	SHORT $LN12@dyWrap
	mov	eax, DWORD PTR $T233315[ebp]
	shr	eax, 1
	cmp	DWORD PTR _iDY$[ebp], eax
	jle	SHORT $LN11@dyWrap
	mov	ecx, DWORD PTR _iDY$[ebp]
	sub	ecx, DWORD PTR $T233315[ebp]
	mov	DWORD PTR $T233323[ebp], ecx
	jmp	SHORT $LN13@dyWrap
	jmp	SHORT $LN12@dyWrap
$LN11@dyWrap:
	mov	edx, DWORD PTR $T233315[ebp]
	shr	edx, 1
	neg	edx
	cmp	DWORD PTR _iDY$[ebp], edx
	jge	SHORT $LN12@dyWrap
	mov	eax, DWORD PTR _iDY$[ebp]
	add	eax, DWORD PTR $T233315[ebp]
	mov	DWORD PTR $T233323[ebp], eax
	jmp	SHORT $LN13@dyWrap
$LN12@dyWrap:
	mov	ecx, DWORD PTR _iDY$[ebp]
	mov	DWORD PTR $T233323[ebp], ecx
$LN13@dyWrap:
	mov	eax, DWORD PTR $T233323[ebp]

; 82   : }

	mov	esp, ebp
	pop	ebp
	ret	0
?dyWrap@@YAHH@Z ENDP					; dyWrap
_TEXT	ENDS
PUBLIC	?GetNumGreatWorks@CvCityCulture@@QBEHXZ		; CvCityCulture::GetNumGreatWorks
PUBLIC	?GetNumGreatWorks@CvPlayerCulture@@QBEHXZ	; CvPlayerCulture::GetNumGreatWorks
; Function compile flags: /Odtp
; File d:\sources\lekmod_git\checkout\lekmod_dll\cvgamecoredll_expansion2\cvcultureclasses.cpp
;	COMDAT ?GetNumGreatWorks@CvPlayerCulture@@QBEHXZ
_TEXT	SEGMENT
_this$ = -16						; size = 4
_iRtnValue$ = -12					; size = 4
_pLoopCity$ = -8					; size = 4
_iLoop$ = -4						; size = 4
?GetNumGreatWorks@CvPlayerCulture@@QBEHXZ PROC		; CvPlayerCulture::GetNumGreatWorks, COMDAT
; _this$ = ecx

; 872  : {

	push	ebp
	mov	ebp, esp
	sub	esp, 16					; 00000010H
	mov	DWORD PTR _this$[ebp], ecx

; 873  : 	CvCity* pLoopCity = NULL;

	mov	DWORD PTR _pLoopCity$[ebp], 0

; 874  : 	int iLoop = 0;

	mov	DWORD PTR _iLoop$[ebp], 0

; 875  : #ifdef AUI_WARNING_FIXES
; 876  : 	uint iRtnValue = 0;
; 877  : #else
; 878  : 	int iRtnValue = 0;

	mov	DWORD PTR _iRtnValue$[ebp], 0

; 879  : #endif
; 880  : 
; 881  : 	for(pLoopCity = m_pPlayer->firstCity(&iLoop); pLoopCity != NULL; pLoopCity = m_pPlayer->nextCity(&iLoop))

	push	0
	lea	eax, DWORD PTR _iLoop$[ebp]
	push	eax
	mov	ecx, DWORD PTR _this$[ebp]
	mov	ecx, DWORD PTR [ecx+292]
	call	?firstCity@CvPlayer@@QAEPAVCvCity@@PAH_N@Z ; CvPlayer::firstCity
	mov	DWORD PTR _pLoopCity$[ebp], eax
	jmp	SHORT $LN3@GetNumGrea
$LN2@GetNumGrea:
	push	0
	lea	edx, DWORD PTR _iLoop$[ebp]
	push	edx
	mov	eax, DWORD PTR _this$[ebp]
	mov	ecx, DWORD PTR [eax+292]
	call	?nextCity@CvPlayer@@QAEPAVCvCity@@PAH_N@Z ; CvPlayer::nextCity
	mov	DWORD PTR _pLoopCity$[ebp], eax
$LN3@GetNumGrea:
	cmp	DWORD PTR _pLoopCity$[ebp], 0
	je	SHORT $LN1@GetNumGrea

; 882  : 	{
; 883  : 		iRtnValue += pLoopCity->GetCityCulture()->GetNumGreatWorks();

	mov	ecx, DWORD PTR _pLoopCity$[ebp]
	call	?GetCityCulture@CvCity@@QBEPAVCvCityCulture@@XZ ; CvCity::GetCityCulture
	mov	ecx, eax
	call	?GetNumGreatWorks@CvCityCulture@@QBEHXZ	; CvCityCulture::GetNumGreatWorks
	add	eax, DWORD PTR _iRtnValue$[ebp]
	mov	DWORD PTR _iRtnValue$[ebp], eax

; 884  : 	}

	jmp	SHORT $LN2@GetNumGrea
$LN1@GetNumGrea:

; 885  : 
; 886  : 	return iRtnValue;

	mov	eax, DWORD PTR _iRtnValue$[ebp]

; 887  : }

	mov	esp, ebp
	pop	ebp
	ret	0
?GetNumGreatWorks@CvPlayerCulture@@QBEHXZ ENDP		; CvPlayerCulture::GetNumGreatWorks
_TEXT	ENDS
PUBLIC	?GetNumGreatWorkSlots@CvCityCulture@@QBEHXZ	; CvCityCulture::GetNumGreatWorkSlots
PUBLIC	?GetNumGreatWorkSlots@CvPlayerCulture@@QBEHXZ	; CvPlayerCulture::GetNumGreatWorkSlots
; Function compile flags: /Odtp
;	COMDAT ?GetNumGreatWorkSlots@CvPlayerCulture@@QBEHXZ
_TEXT	SEGMENT
_this$ = -16						; size = 4
_iRtnValue$ = -12					; size = 4
_pLoopCity$ = -8					; size = 4
_iLoop$ = -4						; size = 4
?GetNumGreatWorkSlots@CvPlayerCulture@@QBEHXZ PROC	; CvPlayerCulture::GetNumGreatWorkSlots, COMDAT
; _this$ = ecx

; 895  : {

	push	ebp
	mov	ebp, esp
	sub	esp, 16					; 00000010H
	mov	DWORD PTR _this$[ebp], ecx

; 896  : 	CvCity* pLoopCity = NULL;

	mov	DWORD PTR _pLoopCity$[ebp], 0

; 897  : 	int iLoop = 0;

	mov	DWORD PTR _iLoop$[ebp], 0

; 898  : #ifdef AUI_WARNING_FIXES
; 899  : 	uint iRtnValue = 0;
; 900  : #else
; 901  : 	int iRtnValue = 0;

	mov	DWORD PTR _iRtnValue$[ebp], 0

; 902  : #endif
; 903  : 
; 904  : 	for(pLoopCity = m_pPlayer->firstCity(&iLoop); pLoopCity != NULL; pLoopCity = m_pPlayer->nextCity(&iLoop))

	push	0
	lea	eax, DWORD PTR _iLoop$[ebp]
	push	eax
	mov	ecx, DWORD PTR _this$[ebp]
	mov	ecx, DWORD PTR [ecx+292]
	call	?firstCity@CvPlayer@@QAEPAVCvCity@@PAH_N@Z ; CvPlayer::firstCity
	mov	DWORD PTR _pLoopCity$[ebp], eax
	jmp	SHORT $LN3@GetNumGrea@2
$LN2@GetNumGrea@2:
	push	0
	lea	edx, DWORD PTR _iLoop$[ebp]
	push	edx
	mov	eax, DWORD PTR _this$[ebp]
	mov	ecx, DWORD PTR [eax+292]
	call	?nextCity@CvPlayer@@QAEPAVCvCity@@PAH_N@Z ; CvPlayer::nextCity
	mov	DWORD PTR _pLoopCity$[ebp], eax
$LN3@GetNumGrea@2:
	cmp	DWORD PTR _pLoopCity$[ebp], 0
	je	SHORT $LN1@GetNumGrea@2

; 905  : 	{
; 906  : 		iRtnValue += pLoopCity->GetCityCulture()->GetNumGreatWorkSlots();

	mov	ecx, DWORD PTR _pLoopCity$[ebp]
	call	?GetCityCulture@CvCity@@QBEPAVCvCityCulture@@XZ ; CvCity::GetCityCulture
	mov	ecx, eax
	call	?GetNumGreatWorkSlots@CvCityCulture@@QBEHXZ ; CvCityCulture::GetNumGreatWorkSlots
	add	eax, DWORD PTR _iRtnValue$[ebp]
	mov	DWORD PTR _iRtnValue$[ebp], eax

; 907  : 	}

	jmp	SHORT $LN2@GetNumGrea@2
$LN1@GetNumGrea@2:

; 908  : 
; 909  : 	return iRtnValue;

	mov	eax, DWORD PTR _iRtnValue$[ebp]

; 910  : }

	mov	esp, ebp
	pop	ebp
	ret	0
?GetNumGreatWorkSlots@CvPlayerCulture@@QBEHXZ ENDP	; CvPlayerCulture::GetNumGreatWorkSlots
_TEXT	ENDS
PUBLIC	?GetNumAvailableGreatWorkSlots@CvCityCulture@@QBEHW4GreatWorkSlotType@@@Z ; CvCityCulture::GetNumAvailableGreatWorkSlots
PUBLIC	?GetNumGreatWorkSlots@CvPlayerCulture@@QBEHW4GreatWorkSlotType@@@Z ; CvPlayerCulture::GetNumGreatWorkSlots
; Function compile flags: /Odtp
;	COMDAT ?GetNumGreatWorkSlots@CvPlayerCulture@@QBEHW4GreatWorkSlotType@@@Z
_TEXT	SEGMENT
_this$ = -16						; size = 4
_iRtnValue$ = -12					; size = 4
_pLoopCity$ = -8					; size = 4
_iLoop$ = -4						; size = 4
_eSlotType$ = 8						; size = 4
?GetNumGreatWorkSlots@CvPlayerCulture@@QBEHW4GreatWorkSlotType@@@Z PROC ; CvPlayerCulture::GetNumGreatWorkSlots, COMDAT
; _this$ = ecx

; 918  : {

	push	ebp
	mov	ebp, esp
	sub	esp, 16					; 00000010H
	mov	DWORD PTR _this$[ebp], ecx

; 919  : 	CvCity* pLoopCity = NULL;

	mov	DWORD PTR _pLoopCity$[ebp], 0

; 920  : 	int iLoop = 0;

	mov	DWORD PTR _iLoop$[ebp], 0

; 921  : #ifdef AUI_WARNING_FIXES
; 922  : 	uint iRtnValue = 0;
; 923  : #else
; 924  : 	int iRtnValue = 0;

	mov	DWORD PTR _iRtnValue$[ebp], 0

; 925  : #endif
; 926  : 
; 927  : 	for(pLoopCity = m_pPlayer->firstCity(&iLoop); pLoopCity != NULL; pLoopCity = m_pPlayer->nextCity(&iLoop))

	push	0
	lea	eax, DWORD PTR _iLoop$[ebp]
	push	eax
	mov	ecx, DWORD PTR _this$[ebp]
	mov	ecx, DWORD PTR [ecx+292]
	call	?firstCity@CvPlayer@@QAEPAVCvCity@@PAH_N@Z ; CvPlayer::firstCity
	mov	DWORD PTR _pLoopCity$[ebp], eax
	jmp	SHORT $LN3@GetNumGrea@3
$LN2@GetNumGrea@3:
	push	0
	lea	edx, DWORD PTR _iLoop$[ebp]
	push	edx
	mov	eax, DWORD PTR _this$[ebp]
	mov	ecx, DWORD PTR [eax+292]
	call	?nextCity@CvPlayer@@QAEPAVCvCity@@PAH_N@Z ; CvPlayer::nextCity
	mov	DWORD PTR _pLoopCity$[ebp], eax
$LN3@GetNumGrea@3:
	cmp	DWORD PTR _pLoopCity$[ebp], 0
	je	SHORT $LN1@GetNumGrea@3

; 928  : 	{
; 929  : 		iRtnValue += pLoopCity->GetCityCulture()->GetNumAvailableGreatWorkSlots(eSlotType);

	mov	ecx, DWORD PTR _eSlotType$[ebp]
	push	ecx
	mov	ecx, DWORD PTR _pLoopCity$[ebp]
	call	?GetCityCulture@CvCity@@QBEPAVCvCityCulture@@XZ ; CvCity::GetCityCulture
	mov	ecx, eax
	call	?GetNumAvailableGreatWorkSlots@CvCityCulture@@QBEHW4GreatWorkSlotType@@@Z ; CvCityCulture::GetNumAvailableGreatWorkSlots
	add	eax, DWORD PTR _iRtnValue$[ebp]
	mov	DWORD PTR _iRtnValue$[ebp], eax

; 930  : 	}

	jmp	SHORT $LN2@GetNumGrea@3
$LN1@GetNumGrea@3:

; 931  : 
; 932  : 	return iRtnValue;

	mov	eax, DWORD PTR _iRtnValue$[ebp]

; 933  : }

	mov	esp, ebp
	pop	ebp
	ret	4
?GetNumGreatWorkSlots@CvPlayerCulture@@QBEHW4GreatWorkSlotType@@@Z ENDP ; CvPlayerCulture::GetNumGreatWorkSlots
_TEXT	ENDS
PUBLIC	?ControlsGreatWork@CvPlayerCulture@@QAE_NH@Z	; CvPlayerCulture::ControlsGreatWork
; Function compile flags: /Odtp
;	COMDAT ?ControlsGreatWork@CvPlayerCulture@@QAE_NH@Z
_TEXT	SEGMENT
_this$ = -40						; size = 4
_iGreatWorkIndex$223046 = -36				; size = 4
_iI$223042 = -32					; size = 4
_iNumSlots$223041 = -28					; size = 4
_pkBuilding$223038 = -24				; size = 4
_eBuilding$223034 = -20					; size = 4
_playerCivilizationInfo$223033 = -16			; size = 4
_iBuildingClassLoop$223029 = -12			; size = 4
_pLoopCity$ = -8					; size = 4
_iLoop$ = -4						; size = 4
_iIndex$ = 8						; size = 4
?ControlsGreatWork@CvPlayerCulture@@QAE_NH@Z PROC	; CvPlayerCulture::ControlsGreatWork, COMDAT
; _this$ = ecx

; 937  : {

	push	ebp
	mov	ebp, esp
	sub	esp, 40					; 00000028H
	mov	DWORD PTR _this$[ebp], ecx

; 938  : 	CvCity* pLoopCity = NULL;

	mov	DWORD PTR _pLoopCity$[ebp], 0

; 939  : 	int iLoop = 0;

	mov	DWORD PTR _iLoop$[ebp], 0

; 940  : 
; 941  : 	for(pLoopCity = m_pPlayer->firstCity(&iLoop); pLoopCity != NULL; pLoopCity = m_pPlayer->nextCity(&iLoop))

	push	0
	lea	eax, DWORD PTR _iLoop$[ebp]
	push	eax
	mov	ecx, DWORD PTR _this$[ebp]
	mov	ecx, DWORD PTR [ecx+292]
	call	?firstCity@CvPlayer@@QAEPAVCvCity@@PAH_N@Z ; CvPlayer::firstCity
	mov	DWORD PTR _pLoopCity$[ebp], eax
	jmp	SHORT $LN13@ControlsGr
$LN12@ControlsGr:
	push	0
	lea	edx, DWORD PTR _iLoop$[ebp]
	push	edx
	mov	eax, DWORD PTR _this$[ebp]
	mov	ecx, DWORD PTR [eax+292]
	call	?nextCity@CvPlayer@@QAEPAVCvCity@@PAH_N@Z ; CvPlayer::nextCity
	mov	DWORD PTR _pLoopCity$[ebp], eax
$LN13@ControlsGr:
	cmp	DWORD PTR _pLoopCity$[ebp], 0
	je	$LN11@ControlsGr

; 942  : 	{
; 943  : #ifdef AUI_WARNING_FIXES
; 944  : 		for (uint iBuildingClassLoop = 0; iBuildingClassLoop < GC.getNumBuildingClassInfos(); iBuildingClassLoop++)
; 945  : #else
; 946  : 		for(int iBuildingClassLoop = 0; iBuildingClassLoop < GC.getNumBuildingClassInfos(); iBuildingClassLoop++)

	mov	DWORD PTR _iBuildingClassLoop$223029[ebp], 0
	jmp	SHORT $LN10@ControlsGr
$LN9@ControlsGr:
	mov	ecx, DWORD PTR _iBuildingClassLoop$223029[ebp]
	add	ecx, 1
	mov	DWORD PTR _iBuildingClassLoop$223029[ebp], ecx
$LN10@ControlsGr:
	mov	ecx, OFFSET ?gGlobals@@3VCvGlobals@@A	; gGlobals
	call	?getNumBuildingClassInfos@CvGlobals@@QAEHXZ ; CvGlobals::getNumBuildingClassInfos
	cmp	DWORD PTR _iBuildingClassLoop$223029[ebp], eax
	jge	$LN8@ControlsGr

; 947  : #endif
; 948  : 		{
; 949  : 			CvCivilizationInfo& playerCivilizationInfo = m_pPlayer->getCivilizationInfo();

	mov	edx, DWORD PTR _this$[ebp]
	mov	ecx, DWORD PTR [edx+292]
	call	?getCivilizationInfo@CvPlayer@@QBEAAVCvCivilizationInfo@@XZ ; CvPlayer::getCivilizationInfo
	mov	DWORD PTR _playerCivilizationInfo$223033[ebp], eax

; 950  : 			BuildingTypes eBuilding = (BuildingTypes)playerCivilizationInfo.getCivilizationBuildings((BuildingClassTypes)iBuildingClassLoop);

	mov	eax, DWORD PTR _iBuildingClassLoop$223029[ebp]
	push	eax
	mov	ecx, DWORD PTR _playerCivilizationInfo$223033[ebp]
	call	?getCivilizationBuildings@CvCivilizationInfo@@QBEHH@Z ; CvCivilizationInfo::getCivilizationBuildings
	mov	DWORD PTR _eBuilding$223034[ebp], eax

; 951  : 			if (eBuilding != NO_BUILDING)

	cmp	DWORD PTR _eBuilding$223034[ebp], -1
	je	SHORT $LN7@ControlsGr

; 952  : 			{
; 953  : 				CvBuildingEntry *pkBuilding = GC.getBuildingInfo(eBuilding);

	mov	ecx, DWORD PTR _eBuilding$223034[ebp]
	push	ecx
	mov	ecx, OFFSET ?gGlobals@@3VCvGlobals@@A	; gGlobals
	call	?getBuildingInfo@CvGlobals@@QAEPAVCvBuildingEntry@@W4BuildingTypes@@@Z ; CvGlobals::getBuildingInfo
	mov	DWORD PTR _pkBuilding$223038[ebp], eax

; 954  : 				if (pkBuilding)

	cmp	DWORD PTR _pkBuilding$223038[ebp], 0
	je	SHORT $LN7@ControlsGr

; 955  : 				{
; 956  : 					if (pLoopCity->GetCityBuildings()->GetNumBuilding(eBuilding) > 0)

	mov	edx, DWORD PTR _eBuilding$223034[ebp]
	push	edx
	mov	ecx, DWORD PTR _pLoopCity$[ebp]
	call	?GetCityBuildings@CvCity@@QBEPAVCvCityBuildings@@XZ ; CvCity::GetCityBuildings
	mov	ecx, eax
	call	?GetNumBuilding@CvCityBuildings@@QBEHW4BuildingTypes@@@Z ; CvCityBuildings::GetNumBuilding
	test	eax, eax
	jle	SHORT $LN7@ControlsGr

; 957  : 					{
; 958  : 						int iNumSlots = pkBuilding->GetGreatWorkCount();

	mov	ecx, DWORD PTR _pkBuilding$223038[ebp]
	call	?GetGreatWorkCount@CvBuildingEntry@@QBEHXZ ; CvBuildingEntry::GetGreatWorkCount
	mov	DWORD PTR _iNumSlots$223041[ebp], eax

; 959  : 						for (int iI = 0; iI < iNumSlots; iI++)

	mov	DWORD PTR _iI$223042[ebp], 0
	jmp	SHORT $LN4@ControlsGr
$LN3@ControlsGr:
	mov	eax, DWORD PTR _iI$223042[ebp]
	add	eax, 1
	mov	DWORD PTR _iI$223042[ebp], eax
$LN4@ControlsGr:
	mov	ecx, DWORD PTR _iI$223042[ebp]
	cmp	ecx, DWORD PTR _iNumSlots$223041[ebp]
	jge	SHORT $LN7@ControlsGr

; 960  : 						{
; 961  : 							int iGreatWorkIndex = pLoopCity->GetCityBuildings()->GetBuildingGreatWork((BuildingClassTypes)iBuildingClassLoop, iI);

	mov	edx, DWORD PTR _iI$223042[ebp]
	push	edx
	mov	eax, DWORD PTR _iBuildingClassLoop$223029[ebp]
	push	eax
	mov	ecx, DWORD PTR _pLoopCity$[ebp]
	call	?GetCityBuildings@CvCity@@QBEPAVCvCityBuildings@@XZ ; CvCity::GetCityBuildings
	mov	ecx, eax
	call	?GetBuildingGreatWork@CvCityBuildings@@QBEHW4BuildingClassTypes@@H@Z ; CvCityBuildings::GetBuildingGreatWork
	mov	DWORD PTR _iGreatWorkIndex$223046[ebp], eax

; 962  : 							if (iGreatWorkIndex == iIndex)

	mov	ecx, DWORD PTR _iGreatWorkIndex$223046[ebp]
	cmp	ecx, DWORD PTR _iIndex$[ebp]
	jne	SHORT $LN1@ControlsGr

; 963  : 							{
; 964  : 								return true;

	mov	al, 1
	jmp	SHORT $LN14@ControlsGr
$LN1@ControlsGr:

; 965  : 							}
; 966  : 						}

	jmp	SHORT $LN3@ControlsGr
$LN7@ControlsGr:

; 967  : 					}
; 968  : 				}
; 969  : 			}
; 970  : 		}

	jmp	$LN9@ControlsGr
$LN8@ControlsGr:

; 971  : 	}

	jmp	$LN12@ControlsGr
$LN11@ControlsGr:

; 972  : 
; 973  : 	return false;	

	xor	al, al
$LN14@ControlsGr:

; 974  : }

	mov	esp, ebp
	pop	ebp
	ret	4
?ControlsGreatWork@CvPlayerCulture@@QAE_NH@Z ENDP	; CvPlayerCulture::ControlsGreatWork
_TEXT	ENDS
PUBLIC	?GetGreatWorkLocation@CvPlayerCulture@@QAE_NHAAHAAW4BuildingTypes@@0@Z ; CvPlayerCulture::GetGreatWorkLocation
; Function compile flags: /Odtp
;	COMDAT ?GetGreatWorkLocation@CvPlayerCulture@@QAE_NHAAHAAW4BuildingTypes@@0@Z
_TEXT	SEGMENT
_this$ = -44						; size = 4
$T233342 = -40						; size = 4
_iGreatWorkIndex$223078 = -36				; size = 4
_iI$223074 = -32					; size = 4
_iNumSlots$223073 = -28					; size = 4
_pkBuilding$223070 = -24				; size = 4
_eBuilding$223066 = -20					; size = 4
_playerCivilizationInfo$223065 = -16			; size = 4
_iBuildingClassLoop$223061 = -12			; size = 4
_pLoopCity$ = -8					; size = 4
_iLoop$ = -4						; size = 4
_iSearchIndex$ = 8					; size = 4
_iReturnCityID$ = 12					; size = 4
_eReturnBuilding$ = 16					; size = 4
_iReturnSlot$ = 20					; size = 4
?GetGreatWorkLocation@CvPlayerCulture@@QAE_NHAAHAAW4BuildingTypes@@0@Z PROC ; CvPlayerCulture::GetGreatWorkLocation, COMDAT
; _this$ = ecx

; 981  : {

	push	ebp
	mov	ebp, esp
	sub	esp, 44					; 0000002cH
	mov	DWORD PTR _this$[ebp], ecx

; 982  : 	CvCity* pLoopCity = NULL;

	mov	DWORD PTR _pLoopCity$[ebp], 0

; 983  : 	int iLoop = 0;

	mov	DWORD PTR _iLoop$[ebp], 0

; 984  : 
; 985  : 	for(pLoopCity = m_pPlayer->firstCity(&iLoop); pLoopCity != NULL; pLoopCity = m_pPlayer->nextCity(&iLoop))

	push	0
	lea	eax, DWORD PTR _iLoop$[ebp]
	push	eax
	mov	ecx, DWORD PTR _this$[ebp]
	mov	ecx, DWORD PTR [ecx+292]
	call	?firstCity@CvPlayer@@QAEPAVCvCity@@PAH_N@Z ; CvPlayer::firstCity
	mov	DWORD PTR _pLoopCity$[ebp], eax
	jmp	SHORT $LN13@GetGreatWo@8
$LN12@GetGreatWo@8:
	push	0
	lea	edx, DWORD PTR _iLoop$[ebp]
	push	edx
	mov	eax, DWORD PTR _this$[ebp]
	mov	ecx, DWORD PTR [eax+292]
	call	?nextCity@CvPlayer@@QAEPAVCvCity@@PAH_N@Z ; CvPlayer::nextCity
	mov	DWORD PTR _pLoopCity$[ebp], eax
$LN13@GetGreatWo@8:
	cmp	DWORD PTR _pLoopCity$[ebp], 0
	je	$LN11@GetGreatWo@8

; 986  : 	{
; 987  : #ifdef AUI_WARNING_FIXES
; 988  : 		for (uint iBuildingClassLoop = 0; iBuildingClassLoop < GC.getNumBuildingClassInfos(); iBuildingClassLoop++)
; 989  : #else
; 990  : 		for(int iBuildingClassLoop = 0; iBuildingClassLoop < GC.getNumBuildingClassInfos(); iBuildingClassLoop++)

	mov	DWORD PTR _iBuildingClassLoop$223061[ebp], 0
	jmp	SHORT $LN10@GetGreatWo@8
$LN9@GetGreatWo@8:
	mov	ecx, DWORD PTR _iBuildingClassLoop$223061[ebp]
	add	ecx, 1
	mov	DWORD PTR _iBuildingClassLoop$223061[ebp], ecx
$LN10@GetGreatWo@8:
	mov	ecx, OFFSET ?gGlobals@@3VCvGlobals@@A	; gGlobals
	call	?getNumBuildingClassInfos@CvGlobals@@QAEHXZ ; CvGlobals::getNumBuildingClassInfos
	cmp	DWORD PTR _iBuildingClassLoop$223061[ebp], eax
	jge	$LN8@GetGreatWo@8

; 991  : #endif
; 992  : 		{
; 993  : 			CvCivilizationInfo& playerCivilizationInfo = m_pPlayer->getCivilizationInfo();

	mov	edx, DWORD PTR _this$[ebp]
	mov	ecx, DWORD PTR [edx+292]
	call	?getCivilizationInfo@CvPlayer@@QBEAAVCvCivilizationInfo@@XZ ; CvPlayer::getCivilizationInfo
	mov	DWORD PTR _playerCivilizationInfo$223065[ebp], eax

; 994  : 			BuildingTypes eBuilding = (BuildingTypes)playerCivilizationInfo.getCivilizationBuildings((BuildingClassTypes)iBuildingClassLoop);

	mov	eax, DWORD PTR _iBuildingClassLoop$223061[ebp]
	push	eax
	mov	ecx, DWORD PTR _playerCivilizationInfo$223065[ebp]
	call	?getCivilizationBuildings@CvCivilizationInfo@@QBEHH@Z ; CvCivilizationInfo::getCivilizationBuildings
	mov	DWORD PTR _eBuilding$223066[ebp], eax

; 995  : 			if (eBuilding != NO_BUILDING)

	cmp	DWORD PTR _eBuilding$223066[ebp], -1
	je	$LN7@GetGreatWo@8

; 996  : 			{
; 997  : 				CvBuildingEntry *pkBuilding = GC.getBuildingInfo(eBuilding);

	mov	ecx, DWORD PTR _eBuilding$223066[ebp]
	push	ecx
	mov	ecx, OFFSET ?gGlobals@@3VCvGlobals@@A	; gGlobals
	call	?getBuildingInfo@CvGlobals@@QAEPAVCvBuildingEntry@@W4BuildingTypes@@@Z ; CvGlobals::getBuildingInfo
	mov	DWORD PTR _pkBuilding$223070[ebp], eax

; 998  : 				if (pkBuilding)

	cmp	DWORD PTR _pkBuilding$223070[ebp], 0
	je	$LN7@GetGreatWo@8

; 999  : 				{
; 1000 : 					if (pLoopCity->GetCityBuildings()->GetNumBuilding(eBuilding) > 0)

	mov	edx, DWORD PTR _eBuilding$223066[ebp]
	push	edx
	mov	ecx, DWORD PTR _pLoopCity$[ebp]
	call	?GetCityBuildings@CvCity@@QBEPAVCvCityBuildings@@XZ ; CvCity::GetCityBuildings
	mov	ecx, eax
	call	?GetNumBuilding@CvCityBuildings@@QBEHW4BuildingTypes@@@Z ; CvCityBuildings::GetNumBuilding
	test	eax, eax
	jle	SHORT $LN7@GetGreatWo@8

; 1001 : 					{
; 1002 : #ifdef AUI_WARNING_FIXES
; 1003 : 						for (uint iI = 0; iI < pkBuilding->GetGreatWorkCount(); iI++)
; 1004 : #else
; 1005 : 						int iNumSlots = pkBuilding->GetGreatWorkCount();

	mov	ecx, DWORD PTR _pkBuilding$223070[ebp]
	call	?GetGreatWorkCount@CvBuildingEntry@@QBEHXZ ; CvBuildingEntry::GetGreatWorkCount
	mov	DWORD PTR _iNumSlots$223073[ebp], eax

; 1006 : 						for (int iI = 0; iI < iNumSlots; iI++)

	mov	DWORD PTR _iI$223074[ebp], 0
	jmp	SHORT $LN4@GetGreatWo@8
$LN3@GetGreatWo@8:
	mov	eax, DWORD PTR _iI$223074[ebp]
	add	eax, 1
	mov	DWORD PTR _iI$223074[ebp], eax
$LN4@GetGreatWo@8:
	mov	ecx, DWORD PTR _iI$223074[ebp]
	cmp	ecx, DWORD PTR _iNumSlots$223073[ebp]
	jge	SHORT $LN7@GetGreatWo@8

; 1007 : #endif
; 1008 : 						{
; 1009 : 							int iGreatWorkIndex = pLoopCity->GetCityBuildings()->GetBuildingGreatWork((BuildingClassTypes)iBuildingClassLoop, iI);

	mov	edx, DWORD PTR _iI$223074[ebp]
	push	edx
	mov	eax, DWORD PTR _iBuildingClassLoop$223061[ebp]
	push	eax
	mov	ecx, DWORD PTR _pLoopCity$[ebp]
	call	?GetCityBuildings@CvCity@@QBEPAVCvCityBuildings@@XZ ; CvCity::GetCityBuildings
	mov	ecx, eax
	call	?GetBuildingGreatWork@CvCityBuildings@@QBEHW4BuildingClassTypes@@H@Z ; CvCityBuildings::GetBuildingGreatWork
	mov	DWORD PTR _iGreatWorkIndex$223078[ebp], eax

; 1010 : 							if (iGreatWorkIndex == iSearchIndex)

	mov	ecx, DWORD PTR _iGreatWorkIndex$223078[ebp]
	cmp	ecx, DWORD PTR _iSearchIndex$[ebp]
	jne	SHORT $LN1@GetGreatWo@8

; 1011 : 							{
; 1012 : 								iReturnCityID = pLoopCity->GetID();

	mov	edx, DWORD PTR _pLoopCity$[ebp]
	mov	eax, DWORD PTR [edx+120]
	mov	DWORD PTR $T233342[ebp], eax
	mov	ecx, DWORD PTR _iReturnCityID$[ebp]
	mov	edx, DWORD PTR $T233342[ebp]
	mov	DWORD PTR [ecx], edx

; 1013 : 								eReturnBuilding = eBuilding;

	mov	eax, DWORD PTR _eReturnBuilding$[ebp]
	mov	ecx, DWORD PTR _eBuilding$223066[ebp]
	mov	DWORD PTR [eax], ecx

; 1014 : 								iReturnSlot = iI;

	mov	edx, DWORD PTR _iReturnSlot$[ebp]
	mov	eax, DWORD PTR _iI$223074[ebp]
	mov	DWORD PTR [edx], eax

; 1015 : 								return true;

	mov	al, 1
	jmp	SHORT $LN14@GetGreatWo@8
$LN1@GetGreatWo@8:

; 1016 : 							}
; 1017 : 						}

	jmp	SHORT $LN3@GetGreatWo@8
$LN7@GetGreatWo@8:

; 1018 : 					}
; 1019 : 				}
; 1020 : 			}
; 1021 : 		}

	jmp	$LN9@GetGreatWo@8
$LN8@GetGreatWo@8:

; 1022 : 	}

	jmp	$LN12@GetGreatWo@8
$LN11@GetGreatWo@8:

; 1023 : 
; 1024 : 	return false;	

	xor	al, al
$LN14@GetGreatWo@8:

; 1025 : }

	mov	esp, ebp
	pop	ebp
	ret	16					; 00000010H
?GetGreatWorkLocation@CvPlayerCulture@@QAE_NHAAHAAW4BuildingTypes@@0@Z ENDP ; CvPlayerCulture::GetGreatWorkLocation
_TEXT	ENDS
PUBLIC	??1?$_Vector_val@VCvGreatWorkInMyEmpire@@V?$allocator@VCvGreatWorkInMyEmpire@@@std@@@std@@QAE@XZ ; std::_Vector_val<CvGreatWorkInMyEmpire,std::allocator<CvGreatWorkInMyEmpire> >::~_Vector_val<CvGreatWorkInMyEmpire,std::allocator<CvGreatWorkInMyEmpire> >
PUBLIC	??1?$_Vector_val@VCvGreatWorkBuildingInMyEmpire@@V?$allocator@VCvGreatWorkBuildingInMyEmpire@@@std@@@std@@QAE@XZ ; std::_Vector_val<CvGreatWorkBuildingInMyEmpire,std::allocator<CvGreatWorkBuildingInMyEmpire> >::~_Vector_val<CvGreatWorkBuildingInMyEmpire,std::allocator<CvGreatWorkBuildingInMyEmpire> >
PUBLIC	??1?$vector@VCvGreatWorkBuildingInMyEmpire@@V?$allocator@VCvGreatWorkBuildingInMyEmpire@@@std@@@std@@QAE@XZ ; std::vector<CvGreatWorkBuildingInMyEmpire,std::allocator<CvGreatWorkBuildingInMyEmpire> >::~vector<CvGreatWorkBuildingInMyEmpire,std::allocator<CvGreatWorkBuildingInMyEmpire> >
PUBLIC	??1?$vector@VCvGreatWorkInMyEmpire@@V?$allocator@VCvGreatWorkInMyEmpire@@@std@@@std@@QAE@XZ ; std::vector<CvGreatWorkInMyEmpire,std::allocator<CvGreatWorkInMyEmpire> >::~vector<CvGreatWorkInMyEmpire,std::allocator<CvGreatWorkInMyEmpire> >
PUBLIC	?_Tidy@?$vector@VCvGreatWorkInMyEmpire@@V?$allocator@VCvGreatWorkInMyEmpire@@@std@@@std@@IAEXXZ ; std::vector<CvGreatWorkInMyEmpire,std::allocator<CvGreatWorkInMyEmpire> >::_Tidy
PUBLIC	?_Tidy@?$vector@VCvGreatWorkBuildingInMyEmpire@@V?$allocator@VCvGreatWorkBuildingInMyEmpire@@@std@@@std@@IAEXXZ ; std::vector<CvGreatWorkBuildingInMyEmpire,std::allocator<CvGreatWorkBuildingInMyEmpire> >::_Tidy
PUBLIC	?MoveWorks@CvPlayerCulture@@QAEXW4GreatWorkSlotType@@AAV?$vector@VCvGreatWorkBuildingInMyEmpire@@V?$allocator@VCvGreatWorkBuildingInMyEmpire@@@std@@@std@@AAV?$vector@VCvGreatWorkInMyEmpire@@V?$allocator@VCvGreatWorkInMyEmpire@@@std@@@4@2@Z ; CvPlayerCulture::MoveWorks
PUBLIC	?push_back@?$vector@VCvGreatWorkInMyEmpire@@V?$allocator@VCvGreatWorkInMyEmpire@@@std@@@std@@QAEXABVCvGreatWorkInMyEmpire@@@Z ; std::vector<CvGreatWorkInMyEmpire,std::allocator<CvGreatWorkInMyEmpire> >::push_back
PUBLIC	?push_back@?$vector@VCvGreatWorkBuildingInMyEmpire@@V?$allocator@VCvGreatWorkBuildingInMyEmpire@@@std@@@std@@QAEXABVCvGreatWorkBuildingInMyEmpire@@@Z ; std::vector<CvGreatWorkBuildingInMyEmpire,std::allocator<CvGreatWorkBuildingInMyEmpire> >::push_back
PUBLIC	??0?$vector@VCvGreatWorkBuildingInMyEmpire@@V?$allocator@VCvGreatWorkBuildingInMyEmpire@@@std@@@std@@QAE@XZ ; std::vector<CvGreatWorkBuildingInMyEmpire,std::allocator<CvGreatWorkBuildingInMyEmpire> >::vector<CvGreatWorkBuildingInMyEmpire,std::allocator<CvGreatWorkBuildingInMyEmpire> >
PUBLIC	??0?$vector@VCvGreatWorkInMyEmpire@@V?$allocator@VCvGreatWorkInMyEmpire@@@std@@@std@@QAE@XZ ; std::vector<CvGreatWorkInMyEmpire,std::allocator<CvGreatWorkInMyEmpire> >::vector<CvGreatWorkInMyEmpire,std::allocator<CvGreatWorkInMyEmpire> >
PUBLIC	?DoSwapGreatWorks@CvPlayerCulture@@QAEXXZ	; CvPlayerCulture::DoSwapGreatWorks
EXTRN	?GetGameCulture@CvGame@@QAEPAVCvGameCulture@@XZ:PROC ; CvGame::GetGameCulture
EXTRN	?getGREAT_WORK_SLOT_MUSIC@CvTypes@@YA?BW4GreatWorkSlotType@@XZ:PROC ; CvTypes::getGREAT_WORK_SLOT_MUSIC
EXTRN	?getGREAT_WORK_SLOT_ART_ARTIFACT@CvTypes@@YA?BW4GreatWorkSlotType@@XZ:PROC ; CvTypes::getGREAT_WORK_SLOT_ART_ARTIFACT
EXTRN	?getGREAT_WORK_SLOT_LITERATURE@CvTypes@@YA?BW4GreatWorkSlotType@@XZ:PROC ; CvTypes::getGREAT_WORK_SLOT_LITERATURE
EXTRN	?GetGreatWorkSlotType@CvBuildingEntry@@QBE?AW4GreatWorkSlotType@@XZ:PROC ; CvBuildingEntry::GetGreatWorkSlotType
EXTRN	?getDamage@CvCity@@QBEHXZ:PROC			; CvCity::getDamage
;	COMDAT xdata$x
; File c:\program files (x86)\microsoft visual studio 9.0\vc\include\xutility
xdata$x	SEGMENT
__ehfuncinfo$?DoSwapGreatWorks@CvPlayerCulture@@QAEXXZ DD 019930522H
	DD	010H
	DD	FLAT:__unwindtable$?DoSwapGreatWorks@CvPlayerCulture@@QAEXXZ
	DD	2 DUP(00H)
	DD	2 DUP(00H)
	DD	00H
	DD	01H
__unwindtable$?DoSwapGreatWorks@CvPlayerCulture@@QAEXXZ DD 0ffffffffH
	DD	FLAT:__unwindfunclet$?DoSwapGreatWorks@CvPlayerCulture@@QAEXXZ$0
	DD	00H
	DD	FLAT:__unwindfunclet$?DoSwapGreatWorks@CvPlayerCulture@@QAEXXZ$1
	DD	01H
	DD	FLAT:__unwindfunclet$?DoSwapGreatWorks@CvPlayerCulture@@QAEXXZ$2
	DD	02H
	DD	FLAT:__unwindfunclet$?DoSwapGreatWorks@CvPlayerCulture@@QAEXXZ$3
	DD	03H
	DD	FLAT:__unwindfunclet$?DoSwapGreatWorks@CvPlayerCulture@@QAEXXZ$4
	DD	04H
	DD	FLAT:__unwindfunclet$?DoSwapGreatWorks@CvPlayerCulture@@QAEXXZ$5
	DD	05H
	DD	FLAT:__unwindfunclet$?DoSwapGreatWorks@CvPlayerCulture@@QAEXXZ$6
	DD	06H
	DD	FLAT:__unwindfunclet$?DoSwapGreatWorks@CvPlayerCulture@@QAEXXZ$7
	DD	06H
	DD	FLAT:__unwindfunclet$?DoSwapGreatWorks@CvPlayerCulture@@QAEXXZ$16
	DD	05H
	DD	FLAT:__unwindfunclet$?DoSwapGreatWorks@CvPlayerCulture@@QAEXXZ$18
	DD	04H
	DD	FLAT:__unwindfunclet$?DoSwapGreatWorks@CvPlayerCulture@@QAEXXZ$20
	DD	03H
	DD	FLAT:__unwindfunclet$?DoSwapGreatWorks@CvPlayerCulture@@QAEXXZ$22
	DD	02H
	DD	FLAT:__unwindfunclet$?DoSwapGreatWorks@CvPlayerCulture@@QAEXXZ$24
	DD	01H
	DD	FLAT:__unwindfunclet$?DoSwapGreatWorks@CvPlayerCulture@@QAEXXZ$26
	DD	00H
	DD	FLAT:__unwindfunclet$?DoSwapGreatWorks@CvPlayerCulture@@QAEXXZ$28
	DD	0ffffffffH
	DD	FLAT:__unwindfunclet$?DoSwapGreatWorks@CvPlayerCulture@@QAEXXZ$30
; Function compile flags: /Odtp
; File d:\sources\lekmod_git\checkout\lekmod_dll\cvgamecoredll_expansion2\cvcultureclasses.cpp
xdata$x	ENDS
;	COMDAT ?DoSwapGreatWorks@CvPlayerCulture@@QAEXXZ
_TEXT	SEGMENT
_this$ = -576						; size = 4
$T233535 = -388						; size = 4
$T233531 = -384						; size = 4
$T233527 = -380						; size = 4
$T233523 = -376						; size = 4
$T233519 = -372						; size = 4
$T233417 = -308						; size = 4
_eGWClass$223461 = -240					; size = 4
_work$223459 = -236					; size = 24
_eGreatWorkType$223460 = -212				; size = 4
_iGreatWorkIndex$223456 = -208				; size = 4
_iI$223452 = -204					; size = 4
_iNumSlots$223451 = -200				; size = 4
_building$223444 = -196					; size = 12
_eSlotType$223445 = -184				; size = 4
_pkBuilding$223441 = -180				; size = 4
_eBuilding$223437 = -176				; size = 4
_playerCivilizationInfo$223436 = -172			; size = 4
_iBuildingClassLoop$223432 = -168			; size = 4
_eArtClass$ = -164					; size = 4
_aGreatWorksArt$ = -160					; size = 16
_aGreatWorksArtifacts$ = -144				; size = 16
_aNull$ = -128						; size = 16
_eWritingClass$ = -112					; size = 4
_eArtifactsClass$ = -108				; size = 4
_eMusicClass$ = -104					; size = 4
_aGreatWorksWriting$ = -100				; size = 16
_aGreatWorkBuildingsMusic$ = -84			; size = 16
_aGreatWorksMusic$ = -68				; size = 16
_pLoopCity$ = -52					; size = 4
_aGreatWorkBuildingsWriting$ = -48			; size = 16
_aGreatWorkBuildingsArt$ = -32				; size = 16
_iLoop$ = -16						; size = 4
__$EHRec$ = -12						; size = 12
?DoSwapGreatWorks@CvPlayerCulture@@QAEXXZ PROC		; CvPlayerCulture::DoSwapGreatWorks, COMDAT
; _this$ = ecx

; 1029 : {

	push	ebp
	mov	ebp, esp
	push	-1
	push	__ehhandler$?DoSwapGreatWorks@CvPlayerCulture@@QAEXXZ
	mov	eax, DWORD PTR fs:0
	push	eax
	sub	esp, 564				; 00000234H
	mov	eax, DWORD PTR ___security_cookie
	xor	eax, ebp
	push	eax
	lea	eax, DWORD PTR __$EHRec$[ebp]
	mov	DWORD PTR fs:0, eax
	mov	DWORD PTR _this$[ebp], ecx

; 1030 : 	GreatWorkClass eWritingClass = (GreatWorkClass)GC.getInfoTypeForString("GREAT_WORK_LITERATURE");

	push	0
	push	OFFSET ??_C@_0BG@BOBAMEPE@GREAT_WORK_LITERATURE?$AA@
	mov	ecx, OFFSET ?gGlobals@@3VCvGlobals@@A	; gGlobals
	call	?getInfoTypeForString@CvGlobals@@QBEHPBD_N@Z ; CvGlobals::getInfoTypeForString
	mov	DWORD PTR _eWritingClass$[ebp], eax

; 1031 : 	GreatWorkClass eArtClass = (GreatWorkClass)GC.getInfoTypeForString("GREAT_WORK_ART");

	push	0
	push	OFFSET ??_C@_0P@CLPANGAI@GREAT_WORK_ART?$AA@
	mov	ecx, OFFSET ?gGlobals@@3VCvGlobals@@A	; gGlobals
	call	?getInfoTypeForString@CvGlobals@@QBEHPBD_N@Z ; CvGlobals::getInfoTypeForString
	mov	DWORD PTR _eArtClass$[ebp], eax

; 1032 : 	GreatWorkClass eArtifactsClass = (GreatWorkClass)GC.getInfoTypeForString("GREAT_WORK_ARTIFACT");

	push	0
	push	OFFSET ??_C@_0BE@IALMEBOB@GREAT_WORK_ARTIFACT?$AA@
	mov	ecx, OFFSET ?gGlobals@@3VCvGlobals@@A	; gGlobals
	call	?getInfoTypeForString@CvGlobals@@QBEHPBD_N@Z ; CvGlobals::getInfoTypeForString
	mov	DWORD PTR _eArtifactsClass$[ebp], eax

; 1033 : 	GreatWorkClass eMusicClass = (GreatWorkClass)GC.getInfoTypeForString("GREAT_WORK_MUSIC");

	push	0
	push	OFFSET ??_C@_0BB@FLEDFIEC@GREAT_WORK_MUSIC?$AA@
	mov	ecx, OFFSET ?gGlobals@@3VCvGlobals@@A	; gGlobals
	call	?getInfoTypeForString@CvGlobals@@QBEHPBD_N@Z ; CvGlobals::getInfoTypeForString
	mov	DWORD PTR _eMusicClass$[ebp], eax

; 1034 : 
; 1035 : 	vector<CvGreatWorkInMyEmpire> aGreatWorksWriting;

	lea	ecx, DWORD PTR _aGreatWorksWriting$[ebp]
	call	??0?$vector@VCvGreatWorkInMyEmpire@@V?$allocator@VCvGreatWorkInMyEmpire@@@std@@@std@@QAE@XZ ; std::vector<CvGreatWorkInMyEmpire,std::allocator<CvGreatWorkInMyEmpire> >::vector<CvGreatWorkInMyEmpire,std::allocator<CvGreatWorkInMyEmpire> >
	mov	DWORD PTR __$EHRec$[ebp+8], 0

; 1036 : 	vector<CvGreatWorkInMyEmpire> aGreatWorksArt;

	lea	ecx, DWORD PTR _aGreatWorksArt$[ebp]
	call	??0?$vector@VCvGreatWorkInMyEmpire@@V?$allocator@VCvGreatWorkInMyEmpire@@@std@@@std@@QAE@XZ ; std::vector<CvGreatWorkInMyEmpire,std::allocator<CvGreatWorkInMyEmpire> >::vector<CvGreatWorkInMyEmpire,std::allocator<CvGreatWorkInMyEmpire> >
	mov	BYTE PTR __$EHRec$[ebp+8], 1

; 1037 : 	vector<CvGreatWorkInMyEmpire> aGreatWorksArtifacts;

	lea	ecx, DWORD PTR _aGreatWorksArtifacts$[ebp]
	call	??0?$vector@VCvGreatWorkInMyEmpire@@V?$allocator@VCvGreatWorkInMyEmpire@@@std@@@std@@QAE@XZ ; std::vector<CvGreatWorkInMyEmpire,std::allocator<CvGreatWorkInMyEmpire> >::vector<CvGreatWorkInMyEmpire,std::allocator<CvGreatWorkInMyEmpire> >
	mov	BYTE PTR __$EHRec$[ebp+8], 2

; 1038 : 	vector<CvGreatWorkInMyEmpire> aGreatWorksMusic;

	lea	ecx, DWORD PTR _aGreatWorksMusic$[ebp]
	call	??0?$vector@VCvGreatWorkInMyEmpire@@V?$allocator@VCvGreatWorkInMyEmpire@@@std@@@std@@QAE@XZ ; std::vector<CvGreatWorkInMyEmpire,std::allocator<CvGreatWorkInMyEmpire> >::vector<CvGreatWorkInMyEmpire,std::allocator<CvGreatWorkInMyEmpire> >
	mov	BYTE PTR __$EHRec$[ebp+8], 3

; 1039 : 	vector<CvGreatWorkInMyEmpire> aNull;

	lea	ecx, DWORD PTR _aNull$[ebp]
	call	??0?$vector@VCvGreatWorkInMyEmpire@@V?$allocator@VCvGreatWorkInMyEmpire@@@std@@@std@@QAE@XZ ; std::vector<CvGreatWorkInMyEmpire,std::allocator<CvGreatWorkInMyEmpire> >::vector<CvGreatWorkInMyEmpire,std::allocator<CvGreatWorkInMyEmpire> >
	mov	BYTE PTR __$EHRec$[ebp+8], 4

; 1040 : 
; 1041 : 	vector<CvGreatWorkBuildingInMyEmpire> aGreatWorkBuildingsWriting;

	lea	ecx, DWORD PTR _aGreatWorkBuildingsWriting$[ebp]
	call	??0?$vector@VCvGreatWorkBuildingInMyEmpire@@V?$allocator@VCvGreatWorkBuildingInMyEmpire@@@std@@@std@@QAE@XZ ; std::vector<CvGreatWorkBuildingInMyEmpire,std::allocator<CvGreatWorkBuildingInMyEmpire> >::vector<CvGreatWorkBuildingInMyEmpire,std::allocator<CvGreatWorkBuildingInMyEmpire> >
	mov	BYTE PTR __$EHRec$[ebp+8], 5

; 1042 : 	vector<CvGreatWorkBuildingInMyEmpire> aGreatWorkBuildingsArt;

	lea	ecx, DWORD PTR _aGreatWorkBuildingsArt$[ebp]
	call	??0?$vector@VCvGreatWorkBuildingInMyEmpire@@V?$allocator@VCvGreatWorkBuildingInMyEmpire@@@std@@@std@@QAE@XZ ; std::vector<CvGreatWorkBuildingInMyEmpire,std::allocator<CvGreatWorkBuildingInMyEmpire> >::vector<CvGreatWorkBuildingInMyEmpire,std::allocator<CvGreatWorkBuildingInMyEmpire> >
	mov	BYTE PTR __$EHRec$[ebp+8], 6

; 1043 : 	vector<CvGreatWorkBuildingInMyEmpire> aGreatWorkBuildingsMusic;

	lea	ecx, DWORD PTR _aGreatWorkBuildingsMusic$[ebp]
	call	??0?$vector@VCvGreatWorkBuildingInMyEmpire@@V?$allocator@VCvGreatWorkBuildingInMyEmpire@@@std@@@std@@QAE@XZ ; std::vector<CvGreatWorkBuildingInMyEmpire,std::allocator<CvGreatWorkBuildingInMyEmpire> >::vector<CvGreatWorkBuildingInMyEmpire,std::allocator<CvGreatWorkBuildingInMyEmpire> >
	mov	BYTE PTR __$EHRec$[ebp+8], 7

; 1044 : 
; 1045 : 	CvCity* pLoopCity = NULL;

	mov	DWORD PTR _pLoopCity$[ebp], 0

; 1046 : 	int iLoop = 0;

	mov	DWORD PTR _iLoop$[ebp], 0

; 1047 : 
; 1048 : 	for(pLoopCity = m_pPlayer->firstCity(&iLoop); pLoopCity != NULL; pLoopCity = m_pPlayer->nextCity(&iLoop))

	push	0
	lea	eax, DWORD PTR _iLoop$[ebp]
	push	eax
	mov	ecx, DWORD PTR _this$[ebp]
	mov	ecx, DWORD PTR [ecx+292]
	call	?firstCity@CvPlayer@@QAEPAVCvCity@@PAH_N@Z ; CvPlayer::firstCity
	mov	DWORD PTR _pLoopCity$[ebp], eax
	jmp	SHORT $LN25@DoSwapGrea
$LN24@DoSwapGrea:
	push	0
	lea	edx, DWORD PTR _iLoop$[ebp]
	push	edx
	mov	eax, DWORD PTR _this$[ebp]
	mov	ecx, DWORD PTR [eax+292]
	call	?nextCity@CvPlayer@@QAEPAVCvCity@@PAH_N@Z ; CvPlayer::nextCity
	mov	DWORD PTR _pLoopCity$[ebp], eax
$LN25@DoSwapGrea:
	cmp	DWORD PTR _pLoopCity$[ebp], 0
	je	$LN23@DoSwapGrea

; 1049 : 	{
; 1050 : #ifdef AUI_WARNING_FIXES
; 1051 : 		for (uint iBuildingClassLoop = 0; iBuildingClassLoop < GC.getNumBuildingClassInfos(); iBuildingClassLoop++)
; 1052 : #else
; 1053 : 		for(int iBuildingClassLoop = 0; iBuildingClassLoop < GC.getNumBuildingClassInfos(); iBuildingClassLoop++)

	mov	DWORD PTR _iBuildingClassLoop$223432[ebp], 0
	jmp	SHORT $LN22@DoSwapGrea
$LN21@DoSwapGrea:
	mov	ecx, DWORD PTR _iBuildingClassLoop$223432[ebp]
	add	ecx, 1
	mov	DWORD PTR _iBuildingClassLoop$223432[ebp], ecx
$LN22@DoSwapGrea:
	mov	ecx, OFFSET ?gGlobals@@3VCvGlobals@@A	; gGlobals
	call	?getNumBuildingClassInfos@CvGlobals@@QAEHXZ ; CvGlobals::getNumBuildingClassInfos
	cmp	DWORD PTR _iBuildingClassLoop$223432[ebp], eax
	jge	$LN20@DoSwapGrea

; 1054 : #endif
; 1055 : 		{
; 1056 : 			CvCivilizationInfo& playerCivilizationInfo = m_pPlayer->getCivilizationInfo();

	mov	edx, DWORD PTR _this$[ebp]
	mov	ecx, DWORD PTR [edx+292]
	call	?getCivilizationInfo@CvPlayer@@QBEAAVCvCivilizationInfo@@XZ ; CvPlayer::getCivilizationInfo
	mov	DWORD PTR _playerCivilizationInfo$223436[ebp], eax

; 1057 : 			BuildingTypes eBuilding = (BuildingTypes)playerCivilizationInfo.getCivilizationBuildings((BuildingClassTypes)iBuildingClassLoop);

	mov	eax, DWORD PTR _iBuildingClassLoop$223432[ebp]
	push	eax
	mov	ecx, DWORD PTR _playerCivilizationInfo$223436[ebp]
	call	?getCivilizationBuildings@CvCivilizationInfo@@QBEHH@Z ; CvCivilizationInfo::getCivilizationBuildings
	mov	DWORD PTR _eBuilding$223437[ebp], eax

; 1058 : 			if (eBuilding != NO_BUILDING)

	cmp	DWORD PTR _eBuilding$223437[ebp], -1
	je	$LN19@DoSwapGrea

; 1059 : 			{
; 1060 : 				CvBuildingEntry *pkBuilding = GC.getBuildingInfo(eBuilding);

	mov	ecx, DWORD PTR _eBuilding$223437[ebp]
	push	ecx
	mov	ecx, OFFSET ?gGlobals@@3VCvGlobals@@A	; gGlobals
	call	?getBuildingInfo@CvGlobals@@QAEPAVCvBuildingEntry@@W4BuildingTypes@@@Z ; CvGlobals::getBuildingInfo
	mov	DWORD PTR _pkBuilding$223441[ebp], eax

; 1061 : 				if (pkBuilding)

	cmp	DWORD PTR _pkBuilding$223441[ebp], 0
	je	$LN19@DoSwapGrea

; 1062 : 				{
; 1063 : 					if (pLoopCity->GetCityBuildings()->GetNumBuilding(eBuilding) > 0)

	mov	edx, DWORD PTR _eBuilding$223437[ebp]
	push	edx
	mov	ecx, DWORD PTR _pLoopCity$[ebp]
	call	?GetCityBuildings@CvCity@@QBEPAVCvCityBuildings@@XZ ; CvCity::GetCityBuildings
	mov	ecx, eax
	call	?GetNumBuilding@CvCityBuildings@@QBEHW4BuildingTypes@@@Z ; CvCityBuildings::GetNumBuilding
	test	eax, eax
	jle	$LN19@DoSwapGrea

; 1064 : 					{
; 1065 : 						CvGreatWorkBuildingInMyEmpire building;

	lea	ecx, DWORD PTR _building$223444[ebp]
	call	??0CvGreatWorkBuildingInMyEmpire@@QAE@XZ ; CvGreatWorkBuildingInMyEmpire::CvGreatWorkBuildingInMyEmpire

; 1066 : 						building.m_eBuilding = eBuilding;

	mov	eax, DWORD PTR _eBuilding$223437[ebp]
	mov	DWORD PTR _building$223444[ebp+4], eax

; 1067 : 						building.m_iCityID = pLoopCity->GetID();

	mov	ecx, DWORD PTR _pLoopCity$[ebp]
	mov	edx, DWORD PTR [ecx+120]
	mov	DWORD PTR $T233417[ebp], edx
	mov	eax, DWORD PTR $T233417[ebp]
	mov	DWORD PTR _building$223444[ebp], eax

; 1068 : 						building.m_bEndangered = (pLoopCity->getDamage() > 0);

	mov	ecx, DWORD PTR _pLoopCity$[ebp]
	call	?getDamage@CvCity@@QBEHXZ		; CvCity::getDamage
	xor	ecx, ecx
	test	eax, eax
	setg	cl
	mov	BYTE PTR _building$223444[ebp+9], cl

; 1069 : 
; 1070 : 						GreatWorkSlotType eSlotType = pkBuilding->GetGreatWorkSlotType();

	mov	ecx, DWORD PTR _pkBuilding$223441[ebp]
	call	?GetGreatWorkSlotType@CvBuildingEntry@@QBE?AW4GreatWorkSlotType@@XZ ; CvBuildingEntry::GetGreatWorkSlotType
	mov	DWORD PTR _eSlotType$223445[ebp], eax

; 1071 : 						if (eSlotType == CvTypes::getGREAT_WORK_SLOT_LITERATURE())

	call	?getGREAT_WORK_SLOT_LITERATURE@CvTypes@@YA?BW4GreatWorkSlotType@@XZ ; CvTypes::getGREAT_WORK_SLOT_LITERATURE
	cmp	DWORD PTR _eSlotType$223445[ebp], eax
	jne	SHORT $LN16@DoSwapGrea

; 1072 : 						{
; 1073 : 							aGreatWorkBuildingsWriting.push_back(building);

	lea	edx, DWORD PTR _building$223444[ebp]
	push	edx
	lea	ecx, DWORD PTR _aGreatWorkBuildingsWriting$[ebp]
	call	?push_back@?$vector@VCvGreatWorkBuildingInMyEmpire@@V?$allocator@VCvGreatWorkBuildingInMyEmpire@@@std@@@std@@QAEXABVCvGreatWorkBuildingInMyEmpire@@@Z ; std::vector<CvGreatWorkBuildingInMyEmpire,std::allocator<CvGreatWorkBuildingInMyEmpire> >::push_back
	jmp	SHORT $LN15@DoSwapGrea
$LN16@DoSwapGrea:

; 1074 : 						}
; 1075 : 						else if (eSlotType == CvTypes::getGREAT_WORK_SLOT_ART_ARTIFACT())

	call	?getGREAT_WORK_SLOT_ART_ARTIFACT@CvTypes@@YA?BW4GreatWorkSlotType@@XZ ; CvTypes::getGREAT_WORK_SLOT_ART_ARTIFACT
	cmp	DWORD PTR _eSlotType$223445[ebp], eax
	jne	SHORT $LN14@DoSwapGrea

; 1076 : 						{
; 1077 : 							aGreatWorkBuildingsArt.push_back(building);

	lea	eax, DWORD PTR _building$223444[ebp]
	push	eax
	lea	ecx, DWORD PTR _aGreatWorkBuildingsArt$[ebp]
	call	?push_back@?$vector@VCvGreatWorkBuildingInMyEmpire@@V?$allocator@VCvGreatWorkBuildingInMyEmpire@@@std@@@std@@QAEXABVCvGreatWorkBuildingInMyEmpire@@@Z ; std::vector<CvGreatWorkBuildingInMyEmpire,std::allocator<CvGreatWorkBuildingInMyEmpire> >::push_back
	jmp	SHORT $LN15@DoSwapGrea
$LN14@DoSwapGrea:

; 1078 : 						}
; 1079 : 						else if (eSlotType == CvTypes::getGREAT_WORK_SLOT_MUSIC())

	call	?getGREAT_WORK_SLOT_MUSIC@CvTypes@@YA?BW4GreatWorkSlotType@@XZ ; CvTypes::getGREAT_WORK_SLOT_MUSIC
	cmp	DWORD PTR _eSlotType$223445[ebp], eax
	jne	SHORT $LN15@DoSwapGrea

; 1080 : 						{
; 1081 : 							aGreatWorkBuildingsMusic.push_back(building);

	lea	ecx, DWORD PTR _building$223444[ebp]
	push	ecx
	lea	ecx, DWORD PTR _aGreatWorkBuildingsMusic$[ebp]
	call	?push_back@?$vector@VCvGreatWorkBuildingInMyEmpire@@V?$allocator@VCvGreatWorkBuildingInMyEmpire@@@std@@@std@@QAEXABVCvGreatWorkBuildingInMyEmpire@@@Z ; std::vector<CvGreatWorkBuildingInMyEmpire,std::allocator<CvGreatWorkBuildingInMyEmpire> >::push_back
$LN15@DoSwapGrea:

; 1082 : 						}
; 1083 : 
; 1084 : 						int iNumSlots = pkBuilding->GetGreatWorkCount();

	mov	ecx, DWORD PTR _pkBuilding$223441[ebp]
	call	?GetGreatWorkCount@CvBuildingEntry@@QBEHXZ ; CvBuildingEntry::GetGreatWorkCount
	mov	DWORD PTR _iNumSlots$223451[ebp], eax

; 1085 : 						for (int iI = 0; iI < iNumSlots; iI++)

	mov	DWORD PTR _iI$223452[ebp], 0
	jmp	SHORT $LN11@DoSwapGrea
$LN10@DoSwapGrea:
	mov	edx, DWORD PTR _iI$223452[ebp]
	add	edx, 1
	mov	DWORD PTR _iI$223452[ebp], edx
$LN11@DoSwapGrea:
	mov	eax, DWORD PTR _iI$223452[ebp]
	cmp	eax, DWORD PTR _iNumSlots$223451[ebp]
	jge	$LN19@DoSwapGrea

; 1086 : 						{
; 1087 : 							int iGreatWorkIndex = pLoopCity->GetCityBuildings()->GetBuildingGreatWork((BuildingClassTypes)iBuildingClassLoop, iI);

	mov	ecx, DWORD PTR _iI$223452[ebp]
	push	ecx
	mov	edx, DWORD PTR _iBuildingClassLoop$223432[ebp]
	push	edx
	mov	ecx, DWORD PTR _pLoopCity$[ebp]
	call	?GetCityBuildings@CvCity@@QBEPAVCvCityBuildings@@XZ ; CvCity::GetCityBuildings
	mov	ecx, eax
	call	?GetBuildingGreatWork@CvCityBuildings@@QBEHW4BuildingClassTypes@@H@Z ; CvCityBuildings::GetBuildingGreatWork
	mov	DWORD PTR _iGreatWorkIndex$223456[ebp], eax

; 1088 : 							if (iGreatWorkIndex != -1)

	cmp	DWORD PTR _iGreatWorkIndex$223456[ebp], -1
	je	$LN8@DoSwapGrea

; 1089 : 							{
; 1090 : 								CvGreatWorkInMyEmpire work;

	lea	ecx, DWORD PTR _work$223459[ebp]
	call	??0CvGreatWorkInMyEmpire@@QAE@XZ	; CvGreatWorkInMyEmpire::CvGreatWorkInMyEmpire

; 1091 : 								work.m_eBuilding = eBuilding;

	mov	eax, DWORD PTR _eBuilding$223437[ebp]
	mov	DWORD PTR _work$223459[ebp+8], eax

; 1092 : 								work.m_iCityID = pLoopCity->GetID();

	mov	ecx, DWORD PTR _pLoopCity$[ebp]
	mov	edx, DWORD PTR [ecx+120]
	mov	DWORD PTR $T233519[ebp], edx
	mov	eax, DWORD PTR $T233519[ebp]
	mov	DWORD PTR _work$223459[ebp+4], eax

; 1093 : 								work.m_iGreatWorkIndex = iGreatWorkIndex;

	mov	ecx, DWORD PTR _iGreatWorkIndex$223456[ebp]
	mov	DWORD PTR _work$223459[ebp], ecx

; 1094 : 								work.m_iSlot = iI;

	mov	edx, DWORD PTR _iI$223452[ebp]
	mov	DWORD PTR _work$223459[ebp+12], edx

; 1095 : 								work.m_ePlayer = GC.getGame().GetGameCulture()->GetGreatWorkCreator(iGreatWorkIndex);

	mov	eax, DWORD PTR ?gGlobals@@3VCvGlobals@@A+48
	mov	DWORD PTR $T233523[ebp], eax
	mov	ecx, DWORD PTR _iGreatWorkIndex$223456[ebp]
	push	ecx
	mov	ecx, DWORD PTR $T233523[ebp]
	call	?GetGameCulture@CvGame@@QAEPAVCvGameCulture@@XZ ; CvGame::GetGameCulture
	mov	ecx, eax
	call	?GetGreatWorkCreator@CvGameCulture@@QBE?AW4PlayerTypes@@H@Z ; CvGameCulture::GetGreatWorkCreator
	mov	DWORD PTR _work$223459[ebp+16], eax

; 1096 : 								work.m_eEra = GC.getGame().GetGameCulture()->m_CurrentGreatWorks[iGreatWorkIndex].m_eEra;

	mov	edx, DWORD PTR ?gGlobals@@3VCvGlobals@@A+48
	mov	DWORD PTR $T233527[ebp], edx
	mov	ecx, DWORD PTR $T233527[ebp]
	call	?GetGameCulture@CvGame@@QAEPAVCvGameCulture@@XZ ; CvGame::GetGameCulture
	mov	DWORD PTR $T233531[ebp], eax
	mov	eax, DWORD PTR _iGreatWorkIndex$223456[ebp]
	imul	eax, 48					; 00000030H
	mov	ecx, DWORD PTR $T233531[ebp]
	mov	edx, DWORD PTR [ecx]
	mov	eax, DWORD PTR [edx+eax+40]
	mov	DWORD PTR _work$223459[ebp+20], eax

; 1097 : 
; 1098 : 								GreatWorkType eGreatWorkType = GC.getGame().GetGameCulture()->GetGreatWorkType(iGreatWorkIndex);

	mov	ecx, DWORD PTR ?gGlobals@@3VCvGlobals@@A+48
	mov	DWORD PTR $T233535[ebp], ecx
	mov	edx, DWORD PTR _iGreatWorkIndex$223456[ebp]
	push	edx
	mov	ecx, DWORD PTR $T233535[ebp]
	call	?GetGameCulture@CvGame@@QAEPAVCvGameCulture@@XZ ; CvGame::GetGameCulture
	mov	ecx, eax
	call	?GetGreatWorkType@CvGameCulture@@QBE?AW4GreatWorkType@@H@Z ; CvGameCulture::GetGreatWorkType
	mov	DWORD PTR _eGreatWorkType$223460[ebp], eax

; 1099 : 								GreatWorkClass eGWClass = CultureHelpers::GetGreatWorkClass(eGreatWorkType);

	mov	eax, DWORD PTR _eGreatWorkType$223460[ebp]
	push	eax
	call	?GetGreatWorkClass@CultureHelpers@@YA?AW4GreatWorkClass@@W4GreatWorkType@@@Z ; CultureHelpers::GetGreatWorkClass
	add	esp, 4
	mov	DWORD PTR _eGWClass$223461[ebp], eax

; 1100 : 								if (eGWClass == eWritingClass)

	mov	ecx, DWORD PTR _eGWClass$223461[ebp]
	cmp	ecx, DWORD PTR _eWritingClass$[ebp]
	jne	SHORT $LN7@DoSwapGrea

; 1101 : 								{
; 1102 : 									aGreatWorksWriting.push_back(work);

	lea	edx, DWORD PTR _work$223459[ebp]
	push	edx
	lea	ecx, DWORD PTR _aGreatWorksWriting$[ebp]
	call	?push_back@?$vector@VCvGreatWorkInMyEmpire@@V?$allocator@VCvGreatWorkInMyEmpire@@@std@@@std@@QAEXABVCvGreatWorkInMyEmpire@@@Z ; std::vector<CvGreatWorkInMyEmpire,std::allocator<CvGreatWorkInMyEmpire> >::push_back
	jmp	SHORT $LN8@DoSwapGrea
$LN7@DoSwapGrea:

; 1103 : 								}
; 1104 : 								else if (eGWClass == eArtClass)

	mov	eax, DWORD PTR _eGWClass$223461[ebp]
	cmp	eax, DWORD PTR _eArtClass$[ebp]
	jne	SHORT $LN5@DoSwapGrea

; 1105 : 								{
; 1106 : 									aGreatWorksArt.push_back(work);

	lea	ecx, DWORD PTR _work$223459[ebp]
	push	ecx
	lea	ecx, DWORD PTR _aGreatWorksArt$[ebp]
	call	?push_back@?$vector@VCvGreatWorkInMyEmpire@@V?$allocator@VCvGreatWorkInMyEmpire@@@std@@@std@@QAEXABVCvGreatWorkInMyEmpire@@@Z ; std::vector<CvGreatWorkInMyEmpire,std::allocator<CvGreatWorkInMyEmpire> >::push_back
	jmp	SHORT $LN8@DoSwapGrea
$LN5@DoSwapGrea:

; 1107 : 								}
; 1108 : 								else if (eGWClass == eArtifactsClass)

	mov	edx, DWORD PTR _eGWClass$223461[ebp]
	cmp	edx, DWORD PTR _eArtifactsClass$[ebp]
	jne	SHORT $LN3@DoSwapGrea

; 1109 : 								{
; 1110 : 									aGreatWorksArtifacts.push_back(work);

	lea	eax, DWORD PTR _work$223459[ebp]
	push	eax
	lea	ecx, DWORD PTR _aGreatWorksArtifacts$[ebp]
	call	?push_back@?$vector@VCvGreatWorkInMyEmpire@@V?$allocator@VCvGreatWorkInMyEmpire@@@std@@@std@@QAEXABVCvGreatWorkInMyEmpire@@@Z ; std::vector<CvGreatWorkInMyEmpire,std::allocator<CvGreatWorkInMyEmpire> >::push_back
	jmp	SHORT $LN8@DoSwapGrea
$LN3@DoSwapGrea:

; 1111 : 								}
; 1112 : 								else if (eGWClass == eMusicClass)

	mov	ecx, DWORD PTR _eGWClass$223461[ebp]
	cmp	ecx, DWORD PTR _eMusicClass$[ebp]
	jne	SHORT $LN8@DoSwapGrea

; 1113 : 								{
; 1114 : 									aGreatWorksMusic.push_back(work);

	lea	edx, DWORD PTR _work$223459[ebp]
	push	edx
	lea	ecx, DWORD PTR _aGreatWorksMusic$[ebp]
	call	?push_back@?$vector@VCvGreatWorkInMyEmpire@@V?$allocator@VCvGreatWorkInMyEmpire@@@std@@@std@@QAEXABVCvGreatWorkInMyEmpire@@@Z ; std::vector<CvGreatWorkInMyEmpire,std::allocator<CvGreatWorkInMyEmpire> >::push_back
$LN8@DoSwapGrea:

; 1115 : 								}
; 1116 : 							}
; 1117 : 						}

	jmp	$LN10@DoSwapGrea
$LN19@DoSwapGrea:

; 1118 : 					}
; 1119 : 				}
; 1120 : 			}
; 1121 : 		}

	jmp	$LN21@DoSwapGrea
$LN20@DoSwapGrea:

; 1122 : 	}

	jmp	$LN24@DoSwapGrea
$LN23@DoSwapGrea:

; 1123 : 
; 1124 : 	MoveWorks (CvTypes::getGREAT_WORK_SLOT_LITERATURE(), aGreatWorkBuildingsWriting, aGreatWorksWriting, aNull);

	lea	eax, DWORD PTR _aNull$[ebp]
	push	eax
	lea	ecx, DWORD PTR _aGreatWorksWriting$[ebp]
	push	ecx
	lea	edx, DWORD PTR _aGreatWorkBuildingsWriting$[ebp]
	push	edx
	call	?getGREAT_WORK_SLOT_LITERATURE@CvTypes@@YA?BW4GreatWorkSlotType@@XZ ; CvTypes::getGREAT_WORK_SLOT_LITERATURE
	push	eax
	mov	ecx, DWORD PTR _this$[ebp]
	call	?MoveWorks@CvPlayerCulture@@QAEXW4GreatWorkSlotType@@AAV?$vector@VCvGreatWorkBuildingInMyEmpire@@V?$allocator@VCvGreatWorkBuildingInMyEmpire@@@std@@@std@@AAV?$vector@VCvGreatWorkInMyEmpire@@V?$allocator@VCvGreatWorkInMyEmpire@@@std@@@4@2@Z ; CvPlayerCulture::MoveWorks

; 1125 : 	MoveWorks (CvTypes::getGREAT_WORK_SLOT_ART_ARTIFACT(), aGreatWorkBuildingsArt, aGreatWorksArt, aGreatWorksArtifacts);

	lea	eax, DWORD PTR _aGreatWorksArtifacts$[ebp]
	push	eax
	lea	ecx, DWORD PTR _aGreatWorksArt$[ebp]
	push	ecx
	lea	edx, DWORD PTR _aGreatWorkBuildingsArt$[ebp]
	push	edx
	call	?getGREAT_WORK_SLOT_ART_ARTIFACT@CvTypes@@YA?BW4GreatWorkSlotType@@XZ ; CvTypes::getGREAT_WORK_SLOT_ART_ARTIFACT
	push	eax
	mov	ecx, DWORD PTR _this$[ebp]
	call	?MoveWorks@CvPlayerCulture@@QAEXW4GreatWorkSlotType@@AAV?$vector@VCvGreatWorkBuildingInMyEmpire@@V?$allocator@VCvGreatWorkBuildingInMyEmpire@@@std@@@std@@AAV?$vector@VCvGreatWorkInMyEmpire@@V?$allocator@VCvGreatWorkInMyEmpire@@@std@@@4@2@Z ; CvPlayerCulture::MoveWorks

; 1126 : 	MoveWorks (CvTypes::getGREAT_WORK_SLOT_MUSIC(), aGreatWorkBuildingsMusic, aGreatWorksMusic, aNull);

	lea	eax, DWORD PTR _aNull$[ebp]
	push	eax
	lea	ecx, DWORD PTR _aGreatWorksMusic$[ebp]
	push	ecx
	lea	edx, DWORD PTR _aGreatWorkBuildingsMusic$[ebp]
	push	edx
	call	?getGREAT_WORK_SLOT_MUSIC@CvTypes@@YA?BW4GreatWorkSlotType@@XZ ; CvTypes::getGREAT_WORK_SLOT_MUSIC
	push	eax
	mov	ecx, DWORD PTR _this$[ebp]
	call	?MoveWorks@CvPlayerCulture@@QAEXW4GreatWorkSlotType@@AAV?$vector@VCvGreatWorkBuildingInMyEmpire@@V?$allocator@VCvGreatWorkBuildingInMyEmpire@@@std@@@std@@AAV?$vector@VCvGreatWorkInMyEmpire@@V?$allocator@VCvGreatWorkInMyEmpire@@@std@@@4@2@Z ; CvPlayerCulture::MoveWorks

; 1127 : }

	mov	BYTE PTR __$EHRec$[ebp+8], 8
	lea	ecx, DWORD PTR _aGreatWorkBuildingsMusic$[ebp]
	call	?_Tidy@?$vector@VCvGreatWorkBuildingInMyEmpire@@V?$allocator@VCvGreatWorkBuildingInMyEmpire@@@std@@@std@@IAEXXZ ; std::vector<CvGreatWorkBuildingInMyEmpire,std::allocator<CvGreatWorkBuildingInMyEmpire> >::_Tidy
	mov	BYTE PTR __$EHRec$[ebp+8], 6
	mov	BYTE PTR __$EHRec$[ebp+8], 9
	lea	ecx, DWORD PTR _aGreatWorkBuildingsArt$[ebp]
	call	?_Tidy@?$vector@VCvGreatWorkBuildingInMyEmpire@@V?$allocator@VCvGreatWorkBuildingInMyEmpire@@@std@@@std@@IAEXXZ ; std::vector<CvGreatWorkBuildingInMyEmpire,std::allocator<CvGreatWorkBuildingInMyEmpire> >::_Tidy
	mov	BYTE PTR __$EHRec$[ebp+8], 5
	mov	BYTE PTR __$EHRec$[ebp+8], 10		; 0000000aH
	lea	ecx, DWORD PTR _aGreatWorkBuildingsWriting$[ebp]
	call	?_Tidy@?$vector@VCvGreatWorkBuildingInMyEmpire@@V?$allocator@VCvGreatWorkBuildingInMyEmpire@@@std@@@std@@IAEXXZ ; std::vector<CvGreatWorkBuildingInMyEmpire,std::allocator<CvGreatWorkBuildingInMyEmpire> >::_Tidy
	mov	BYTE PTR __$EHRec$[ebp+8], 4
	mov	BYTE PTR __$EHRec$[ebp+8], 11		; 0000000bH
	lea	ecx, DWORD PTR _aNull$[ebp]
	call	?_Tidy@?$vector@VCvGreatWorkInMyEmpire@@V?$allocator@VCvGreatWorkInMyEmpire@@@std@@@std@@IAEXXZ ; std::vector<CvGreatWorkInMyEmpire,std::allocator<CvGreatWorkInMyEmpire> >::_Tidy
	mov	BYTE PTR __$EHRec$[ebp+8], 3
	mov	BYTE PTR __$EHRec$[ebp+8], 12		; 0000000cH
	lea	ecx, DWORD PTR _aGreatWorksMusic$[ebp]
	call	?_Tidy@?$vector@VCvGreatWorkInMyEmpire@@V?$allocator@VCvGreatWorkInMyEmpire@@@std@@@std@@IAEXXZ ; std::vector<CvGreatWorkInMyEmpire,std::allocator<CvGreatWorkInMyEmpire> >::_Tidy
	mov	BYTE PTR __$EHRec$[ebp+8], 2
	mov	BYTE PTR __$EHRec$[ebp+8], 13		; 0000000dH
	lea	ecx, DWORD PTR _aGreatWorksArtifacts$[ebp]
	call	?_Tidy@?$vector@VCvGreatWorkInMyEmpire@@V?$allocator@VCvGreatWorkInMyEmpire@@@std@@@std@@IAEXXZ ; std::vector<CvGreatWorkInMyEmpire,std::allocator<CvGreatWorkInMyEmpire> >::_Tidy
	mov	BYTE PTR __$EHRec$[ebp+8], 1
	mov	BYTE PTR __$EHRec$[ebp+8], 14		; 0000000eH
	lea	ecx, DWORD PTR _aGreatWorksArt$[ebp]
	call	?_Tidy@?$vector@VCvGreatWorkInMyEmpire@@V?$allocator@VCvGreatWorkInMyEmpire@@@std@@@std@@IAEXXZ ; std::vector<CvGreatWorkInMyEmpire,std::allocator<CvGreatWorkInMyEmpire> >::_Tidy
	mov	BYTE PTR __$EHRec$[ebp+8], 0
	mov	DWORD PTR __$EHRec$[ebp+8], 15		; 0000000fH
	lea	ecx, DWORD PTR _aGreatWorksWriting$[ebp]
	call	?_Tidy@?$vector@VCvGreatWorkInMyEmpire@@V?$allocator@VCvGreatWorkInMyEmpire@@@std@@@std@@IAEXXZ ; std::vector<CvGreatWorkInMyEmpire,std::allocator<CvGreatWorkInMyEmpire> >::_Tidy
	mov	DWORD PTR __$EHRec$[ebp+8], -1
	mov	ecx, DWORD PTR __$EHRec$[ebp]
	mov	DWORD PTR fs:0, ecx
	pop	ecx
	mov	esp, ebp
	pop	ebp
	ret	0
_TEXT	ENDS
;	COMDAT text$x
text$x	SEGMENT
__unwindfunclet$?DoSwapGreatWorks@CvPlayerCulture@@QAEXXZ$0:
	lea	ecx, DWORD PTR _aGreatWorksWriting$[ebp]
	jmp	??1?$vector@VCvGreatWorkInMyEmpire@@V?$allocator@VCvGreatWorkInMyEmpire@@@std@@@std@@QAE@XZ ; std::vector<CvGreatWorkInMyEmpire,std::allocator<CvGreatWorkInMyEmpire> >::~vector<CvGreatWorkInMyEmpire,std::allocator<CvGreatWorkInMyEmpire> >
__unwindfunclet$?DoSwapGreatWorks@CvPlayerCulture@@QAEXXZ$1:
	lea	ecx, DWORD PTR _aGreatWorksArt$[ebp]
	jmp	??1?$vector@VCvGreatWorkInMyEmpire@@V?$allocator@VCvGreatWorkInMyEmpire@@@std@@@std@@QAE@XZ ; std::vector<CvGreatWorkInMyEmpire,std::allocator<CvGreatWorkInMyEmpire> >::~vector<CvGreatWorkInMyEmpire,std::allocator<CvGreatWorkInMyEmpire> >
__unwindfunclet$?DoSwapGreatWorks@CvPlayerCulture@@QAEXXZ$2:
	lea	ecx, DWORD PTR _aGreatWorksArtifacts$[ebp]
	jmp	??1?$vector@VCvGreatWorkInMyEmpire@@V?$allocator@VCvGreatWorkInMyEmpire@@@std@@@std@@QAE@XZ ; std::vector<CvGreatWorkInMyEmpire,std::allocator<CvGreatWorkInMyEmpire> >::~vector<CvGreatWorkInMyEmpire,std::allocator<CvGreatWorkInMyEmpire> >
__unwindfunclet$?DoSwapGreatWorks@CvPlayerCulture@@QAEXXZ$3:
	lea	ecx, DWORD PTR _aGreatWorksMusic$[ebp]
	jmp	??1?$vector@VCvGreatWorkInMyEmpire@@V?$allocator@VCvGreatWorkInMyEmpire@@@std@@@std@@QAE@XZ ; std::vector<CvGreatWorkInMyEmpire,std::allocator<CvGreatWorkInMyEmpire> >::~vector<CvGreatWorkInMyEmpire,std::allocator<CvGreatWorkInMyEmpire> >
__unwindfunclet$?DoSwapGreatWorks@CvPlayerCulture@@QAEXXZ$4:
	lea	ecx, DWORD PTR _aNull$[ebp]
	jmp	??1?$vector@VCvGreatWorkInMyEmpire@@V?$allocator@VCvGreatWorkInMyEmpire@@@std@@@std@@QAE@XZ ; std::vector<CvGreatWorkInMyEmpire,std::allocator<CvGreatWorkInMyEmpire> >::~vector<CvGreatWorkInMyEmpire,std::allocator<CvGreatWorkInMyEmpire> >
__unwindfunclet$?DoSwapGreatWorks@CvPlayerCulture@@QAEXXZ$5:
	lea	ecx, DWORD PTR _aGreatWorkBuildingsWriting$[ebp]
	jmp	??1?$vector@VCvGreatWorkBuildingInMyEmpire@@V?$allocator@VCvGreatWorkBuildingInMyEmpire@@@std@@@std@@QAE@XZ ; std::vector<CvGreatWorkBuildingInMyEmpire,std::allocator<CvGreatWorkBuildingInMyEmpire> >::~vector<CvGreatWorkBuildingInMyEmpire,std::allocator<CvGreatWorkBuildingInMyEmpire> >
__unwindfunclet$?DoSwapGreatWorks@CvPlayerCulture@@QAEXXZ$6:
	lea	ecx, DWORD PTR _aGreatWorkBuildingsArt$[ebp]
	jmp	??1?$vector@VCvGreatWorkBuildingInMyEmpire@@V?$allocator@VCvGreatWorkBuildingInMyEmpire@@@std@@@std@@QAE@XZ ; std::vector<CvGreatWorkBuildingInMyEmpire,std::allocator<CvGreatWorkBuildingInMyEmpire> >::~vector<CvGreatWorkBuildingInMyEmpire,std::allocator<CvGreatWorkBuildingInMyEmpire> >
__unwindfunclet$?DoSwapGreatWorks@CvPlayerCulture@@QAEXXZ$7:
	lea	ecx, DWORD PTR _aGreatWorkBuildingsMusic$[ebp]
	jmp	??1?$vector@VCvGreatWorkBuildingInMyEmpire@@V?$allocator@VCvGreatWorkBuildingInMyEmpire@@@std@@@std@@QAE@XZ ; std::vector<CvGreatWorkBuildingInMyEmpire,std::allocator<CvGreatWorkBuildingInMyEmpire> >::~vector<CvGreatWorkBuildingInMyEmpire,std::allocator<CvGreatWorkBuildingInMyEmpire> >
__unwindfunclet$?DoSwapGreatWorks@CvPlayerCulture@@QAEXXZ$16:
	lea	ecx, DWORD PTR _aGreatWorkBuildingsMusic$[ebp]
	jmp	??1?$_Vector_val@VCvGreatWorkBuildingInMyEmpire@@V?$allocator@VCvGreatWorkBuildingInMyEmpire@@@std@@@std@@QAE@XZ
__unwindfunclet$?DoSwapGreatWorks@CvPlayerCulture@@QAEXXZ$18:
	lea	ecx, DWORD PTR _aGreatWorkBuildingsArt$[ebp]
	jmp	??1?$_Vector_val@VCvGreatWorkBuildingInMyEmpire@@V?$allocator@VCvGreatWorkBuildingInMyEmpire@@@std@@@std@@QAE@XZ
__unwindfunclet$?DoSwapGreatWorks@CvPlayerCulture@@QAEXXZ$20:
	lea	ecx, DWORD PTR _aGreatWorkBuildingsWriting$[ebp]
	jmp	??1?$_Vector_val@VCvGreatWorkBuildingInMyEmpire@@V?$allocator@VCvGreatWorkBuildingInMyEmpire@@@std@@@std@@QAE@XZ
__unwindfunclet$?DoSwapGreatWorks@CvPlayerCulture@@QAEXXZ$22:
	lea	ecx, DWORD PTR _aNull$[ebp]
	jmp	??1?$_Vector_val@VCvGreatWorkInMyEmpire@@V?$allocator@VCvGreatWorkInMyEmpire@@@std@@@std@@QAE@XZ
__unwindfunclet$?DoSwapGreatWorks@CvPlayerCulture@@QAEXXZ$24:
	lea	ecx, DWORD PTR _aGreatWorksMusic$[ebp]
	jmp	??1?$_Vector_val@VCvGreatWorkInMyEmpire@@V?$allocator@VCvGreatWorkInMyEmpire@@@std@@@std@@QAE@XZ
__unwindfunclet$?DoSwapGreatWorks@CvPlayerCulture@@QAEXXZ$26:
	lea	ecx, DWORD PTR _aGreatWorksArtifacts$[ebp]
	jmp	??1?$_Vector_val@VCvGreatWorkInMyEmpire@@V?$allocator@VCvGreatWorkInMyEmpire@@@std@@@std@@QAE@XZ
__unwindfunclet$?DoSwapGreatWorks@CvPlayerCulture@@QAEXXZ$28:
	lea	ecx, DWORD PTR _aGreatWorksArt$[ebp]
	jmp	??1?$_Vector_val@VCvGreatWorkInMyEmpire@@V?$allocator@VCvGreatWorkInMyEmpire@@@std@@@std@@QAE@XZ
__unwindfunclet$?DoSwapGreatWorks@CvPlayerCulture@@QAEXXZ$30:
	lea	ecx, DWORD PTR _aGreatWorksWriting$[ebp]
	jmp	??1?$_Vector_val@VCvGreatWorkInMyEmpire@@V?$allocator@VCvGreatWorkInMyEmpire@@@std@@@std@@QAE@XZ
__ehhandler$?DoSwapGreatWorks@CvPlayerCulture@@QAEXXZ:
	mov	edx, DWORD PTR [esp+8]
	lea	eax, DWORD PTR [edx+12]
	mov	ecx, DWORD PTR [edx-568]
	xor	ecx, eax
	call	@__security_check_cookie@4
	mov	eax, OFFSET __ehfuncinfo$?DoSwapGreatWorks@CvPlayerCulture@@QAEXXZ
	jmp	___CxxFrameHandler3
text$x	ENDS
?DoSwapGreatWorks@CvPlayerCulture@@QAEXXZ ENDP		; CvPlayerCulture::DoSwapGreatWorks
PUBLIC	?FillBuilding@CvPlayerCulture@@QAE_NV?$_Vector_const_iterator@VCvGreatWorkBuildingInMyEmpire@@V?$allocator@VCvGreatWorkBuildingInMyEmpire@@@std@@@std@@AAV?$vector@VCvGreatWorkInMyEmpire@@V?$allocator@VCvGreatWorkInMyEmpire@@@std@@@3@1@Z ; CvPlayerCulture::FillBuilding
PUBLIC	?ThemeBuilding@CvPlayerCulture@@QAE_NV?$_Vector_const_iterator@VCvGreatWorkBuildingInMyEmpire@@V?$allocator@VCvGreatWorkBuildingInMyEmpire@@@std@@@std@@AAV?$vector@VCvGreatWorkInMyEmpire@@V?$allocator@VCvGreatWorkInMyEmpire@@@std@@@3@1_N@Z ; CvPlayerCulture::ThemeBuilding
PUBLIC	??$_Sort@V?$_Vector_iterator@VCvGreatWorkBuildingInMyEmpire@@V?$allocator@VCvGreatWorkBuildingInMyEmpire@@@std@@@std@@HP6A_NABVCvGreatWorkBuildingInMyEmpire@@0@Z@std@@YAXV?$_Vector_iterator@VCvGreatWorkBuildingInMyEmpire@@V?$allocator@VCvGreatWorkBuildingInMyEmpire@@@std@@@0@0HP6A_NABVCvGreatWorkBuildingInMyEmpire@@1@Z@Z ; std::_Sort<std::_Vector_iterator<CvGreatWorkBuildingInMyEmpire,std::allocator<CvGreatWorkBuildingInMyEmpire> >,int,bool (__cdecl*)(CvGreatWorkBuildingInMyEmpire const &,CvGreatWorkBuildingInMyEmpire const &)>
; Function compile flags: /Odtp
;	COMDAT ?MoveWorks@CvPlayerCulture@@QAEXW4GreatWorkSlotType@@AAV?$vector@VCvGreatWorkBuildingInMyEmpire@@V?$allocator@VCvGreatWorkBuildingInMyEmpire@@@std@@@std@@AAV?$vector@VCvGreatWorkInMyEmpire@@V?$allocator@VCvGreatWorkInMyEmpire@@@std@@@4@2@Z
_TEXT	SEGMENT
_this$ = -172						; size = 4
$T234543 = -168						; size = 4
__Tmp$234533 = -164					; size = 4
$T234511 = -160						; size = 4
$T234457 = -156						; size = 4
__Tmp$234442 = -152					; size = 4
$T234425 = -148						; size = 4
$T234338 = -144						; size = 4
__Tmp$234323 = -140					; size = 4
$T234306 = -136						; size = 4
$T234237 = -132						; size = 4
__Tmp$234222 = -128					; size = 4
$T234205 = -124						; size = 4
$T234136 = -120						; size = 4
__Tmp$234121 = -116					; size = 4
$T234104 = -112						; size = 4
$T234086 = -108						; size = 4
$T234085 = -104						; size = 4
$T234063 = -100						; size = 4
$T234047 = -96						; size = 4
$T234037 = -92						; size = 4
$T234036 = -88						; size = 4
$T234035 = -84						; size = 4
$T234034 = -80						; size = 4
$T234033 = -76						; size = 4
$T234032 = -72						; size = 4
$T234031 = -68						; size = 4
$T234030 = -64						; size = 4
$T234029 = -60						; size = 4
$T234028 = -56						; size = 4
$T234027 = -52						; size = 4
$T234026 = -48						; size = 4
$T234025 = -44						; size = 4
$T234024 = -40						; size = 4
$T234023 = -36						; size = 4
$T234022 = -32						; size = 4
$T234021 = -28						; size = 4
$T234020 = -24						; size = 4
$T234019 = -20						; size = 4
$T234018 = -16						; size = 4
$T234017 = -12						; size = 4
$T234016 = -8						; size = 4
_itBuilding$ = -4					; size = 4
_eType$ = 8						; size = 4
_buildings$ = 12					; size = 4
_works1$ = 16						; size = 4
_works2$ = 20						; size = 4
?MoveWorks@CvPlayerCulture@@QAEXW4GreatWorkSlotType@@AAV?$vector@VCvGreatWorkBuildingInMyEmpire@@V?$allocator@VCvGreatWorkBuildingInMyEmpire@@@std@@@std@@AAV?$vector@VCvGreatWorkInMyEmpire@@V?$allocator@VCvGreatWorkInMyEmpire@@@std@@@4@2@Z PROC ; CvPlayerCulture::MoveWorks, COMDAT
; _this$ = ecx

; 1155 : {

	push	ebp
	mov	ebp, esp
	sub	esp, 172				; 000000acH
	mov	DWORD PTR _this$[ebp], ecx

; 1156 : 	std::sort (buildings.begin(), buildings.end(), SortThemingBonus);

	mov	eax, DWORD PTR _buildings$[ebp]
	mov	ecx, DWORD PTR [eax+8]
	mov	DWORD PTR $T234047[ebp], ecx
	mov	edx, DWORD PTR $T234047[ebp]
	mov	DWORD PTR $T234016[ebp], edx
	mov	eax, DWORD PTR _buildings$[ebp]
	mov	ecx, DWORD PTR [eax+4]
	mov	DWORD PTR $T234063[ebp], ecx
	mov	edx, DWORD PTR $T234063[ebp]
	mov	DWORD PTR $T234017[ebp], edx
	mov	eax, DWORD PTR $T234016[ebp]
	mov	DWORD PTR $T234086[ebp], eax
	mov	ecx, DWORD PTR $T234017[ebp]
	mov	DWORD PTR $T234085[ebp], ecx
	push	OFFSET ?SortThemingBonus@@YA_NABVCvGreatWorkBuildingInMyEmpire@@0@Z ; SortThemingBonus
	mov	eax, DWORD PTR $T234086[ebp]
	sub	eax, DWORD PTR $T234085[ebp]
	cdq
	mov	ecx, 12					; 0000000cH
	idiv	ecx
	push	eax
	mov	edx, DWORD PTR $T234086[ebp]
	push	edx
	mov	eax, DWORD PTR $T234085[ebp]
	push	eax
	call	??$_Sort@V?$_Vector_iterator@VCvGreatWorkBuildingInMyEmpire@@V?$allocator@VCvGreatWorkBuildingInMyEmpire@@@std@@@std@@HP6A_NABVCvGreatWorkBuildingInMyEmpire@@0@Z@std@@YAXV?$_Vector_iterator@VCvGreatWorkBuildingInMyEmpire@@V?$allocator@VCvGreatWorkBuildingInMyEmpire@@@std@@@0@0HP6A_NABVCvGreatWorkBuildingInMyEmpire@@1@Z@Z ; std::_Sort<std::_Vector_iterator<CvGreatWorkBuildingInMyEmpire,std::allocator<CvGreatWorkBuildingInMyEmpire> >,int,bool (__cdecl*)(CvGreatWorkBuildingInMyEmpire const &,CvGreatWorkBuildingInMyEmpire const &)>
	add	esp, 16					; 00000010H

; 1157 : 
; 1158 : 	// First building that are not endangered
; 1159 : 	vector<CvGreatWorkBuildingInMyEmpire>::iterator itBuilding;

	mov	DWORD PTR _itBuilding$[ebp], 0

; 1160 : #ifdef AUI_ITERATOR_POSTFIX_INCREMENT_OPTIMIZATIONS
; 1161 : 	for (itBuilding = buildings.begin(); itBuilding != buildings.end(); ++itBuilding)
; 1162 : #else
; 1163 : 	for (itBuilding = buildings.begin(); itBuilding != buildings.end(); itBuilding++)

	mov	ecx, DWORD PTR _buildings$[ebp]
	mov	edx, DWORD PTR [ecx+4]
	mov	DWORD PTR $T234104[ebp], edx
	mov	eax, DWORD PTR $T234104[ebp]
	mov	DWORD PTR $T234018[ebp], eax
	mov	ecx, DWORD PTR $T234018[ebp]
	mov	DWORD PTR _itBuilding$[ebp], ecx
	jmp	SHORT $LN34@MoveWorks
$LN33@MoveWorks:
	mov	edx, DWORD PTR _itBuilding$[ebp]
	mov	DWORD PTR __Tmp$234121[ebp], edx
	mov	eax, DWORD PTR _itBuilding$[ebp]
	add	eax, 12					; 0000000cH
	mov	DWORD PTR _itBuilding$[ebp], eax
	mov	ecx, DWORD PTR __Tmp$234121[ebp]
	mov	DWORD PTR $T234019[ebp], ecx
$LN34@MoveWorks:
	mov	edx, DWORD PTR _buildings$[ebp]
	mov	eax, DWORD PTR [edx+8]
	mov	DWORD PTR $T234136[ebp], eax
	mov	ecx, DWORD PTR $T234136[ebp]
	mov	DWORD PTR $T234020[ebp], ecx
	mov	edx, DWORD PTR _itBuilding$[ebp]
	xor	eax, eax
	cmp	edx, DWORD PTR $T234020[ebp]
	sete	al
	movzx	ecx, al
	neg	ecx
	sbb	ecx, ecx
	add	ecx, 1
	movzx	edx, cl
	test	edx, edx
	je	SHORT $LN32@MoveWorks

; 1164 : #endif
; 1165 : 	{
; 1166 : 		if (!itBuilding->m_bEndangered)

	mov	eax, DWORD PTR _itBuilding$[ebp]
	movzx	ecx, BYTE PTR [eax+9]
	test	ecx, ecx
	jne	SHORT $LN31@MoveWorks

; 1167 : 		{
; 1168 : 			itBuilding->m_bThemed = false;

	mov	edx, DWORD PTR _itBuilding$[ebp]
	mov	BYTE PTR [edx+8], 0

; 1169 : 			if (ThemeBuilding(itBuilding, works1, works2, false /*bConsiderOtherPlayers*/))

	mov	eax, DWORD PTR _itBuilding$[ebp]
	mov	DWORD PTR $T234021[ebp], eax
	push	0
	mov	ecx, DWORD PTR _works2$[ebp]
	push	ecx
	mov	edx, DWORD PTR _works1$[ebp]
	push	edx
	mov	eax, DWORD PTR $T234021[ebp]
	push	eax
	mov	ecx, DWORD PTR _this$[ebp]
	call	?ThemeBuilding@CvPlayerCulture@@QAE_NV?$_Vector_const_iterator@VCvGreatWorkBuildingInMyEmpire@@V?$allocator@VCvGreatWorkBuildingInMyEmpire@@@std@@@std@@AAV?$vector@VCvGreatWorkInMyEmpire@@V?$allocator@VCvGreatWorkInMyEmpire@@@std@@@3@1_N@Z ; CvPlayerCulture::ThemeBuilding
	movzx	ecx, al
	test	ecx, ecx
	je	SHORT $LN31@MoveWorks

; 1170 : 			{
; 1171 : 				itBuilding->m_bThemed = true;

	mov	edx, DWORD PTR _itBuilding$[ebp]
	mov	BYTE PTR [edx+8], 1
$LN31@MoveWorks:

; 1172 : 			}
; 1173 : 		}
; 1174 : 	}

	jmp	$LN33@MoveWorks
$LN32@MoveWorks:

; 1175 : 
; 1176 : 	// Then endangered ones
; 1177 : #ifdef AUI_ITERATOR_POSTFIX_INCREMENT_OPTIMIZATIONS
; 1178 : 	for (itBuilding = buildings.begin(); itBuilding != buildings.end(); ++itBuilding)
; 1179 : #else
; 1180 : 	for (itBuilding = buildings.begin(); itBuilding != buildings.end(); itBuilding++)

	mov	eax, DWORD PTR _buildings$[ebp]
	mov	ecx, DWORD PTR [eax+4]
	mov	DWORD PTR $T234205[ebp], ecx
	mov	edx, DWORD PTR $T234205[ebp]
	mov	DWORD PTR $T234022[ebp], edx
	mov	eax, DWORD PTR $T234022[ebp]
	mov	DWORD PTR _itBuilding$[ebp], eax
	jmp	SHORT $LN29@MoveWorks
$LN28@MoveWorks:
	mov	ecx, DWORD PTR _itBuilding$[ebp]
	mov	DWORD PTR __Tmp$234222[ebp], ecx
	mov	edx, DWORD PTR _itBuilding$[ebp]
	add	edx, 12					; 0000000cH
	mov	DWORD PTR _itBuilding$[ebp], edx
	mov	eax, DWORD PTR __Tmp$234222[ebp]
	mov	DWORD PTR $T234023[ebp], eax
$LN29@MoveWorks:
	mov	ecx, DWORD PTR _buildings$[ebp]
	mov	edx, DWORD PTR [ecx+8]
	mov	DWORD PTR $T234237[ebp], edx
	mov	eax, DWORD PTR $T234237[ebp]
	mov	DWORD PTR $T234024[ebp], eax
	mov	ecx, DWORD PTR _itBuilding$[ebp]
	xor	edx, edx
	cmp	ecx, DWORD PTR $T234024[ebp]
	sete	dl
	movzx	eax, dl
	neg	eax
	sbb	eax, eax
	add	eax, 1
	movzx	ecx, al
	test	ecx, ecx
	je	SHORT $LN27@MoveWorks

; 1181 : #endif
; 1182 : 	{
; 1183 : 		if (itBuilding->m_bEndangered)

	mov	edx, DWORD PTR _itBuilding$[ebp]
	movzx	eax, BYTE PTR [edx+9]
	test	eax, eax
	je	SHORT $LN26@MoveWorks

; 1184 : 		{
; 1185 : 			itBuilding->m_bThemed = false;

	mov	ecx, DWORD PTR _itBuilding$[ebp]
	mov	BYTE PTR [ecx+8], 0

; 1186 : 			if (ThemeBuilding(itBuilding, works1, works2, false /*bConsiderOtherPlayers*/))

	mov	edx, DWORD PTR _itBuilding$[ebp]
	mov	DWORD PTR $T234025[ebp], edx
	push	0
	mov	eax, DWORD PTR _works2$[ebp]
	push	eax
	mov	ecx, DWORD PTR _works1$[ebp]
	push	ecx
	mov	edx, DWORD PTR $T234025[ebp]
	push	edx
	mov	ecx, DWORD PTR _this$[ebp]
	call	?ThemeBuilding@CvPlayerCulture@@QAE_NV?$_Vector_const_iterator@VCvGreatWorkBuildingInMyEmpire@@V?$allocator@VCvGreatWorkBuildingInMyEmpire@@@std@@@std@@AAV?$vector@VCvGreatWorkInMyEmpire@@V?$allocator@VCvGreatWorkInMyEmpire@@@std@@@3@1_N@Z ; CvPlayerCulture::ThemeBuilding
	movzx	eax, al
	test	eax, eax
	je	SHORT $LN26@MoveWorks

; 1187 : 			{
; 1188 : 				itBuilding->m_bThemed = true;

	mov	ecx, DWORD PTR _itBuilding$[ebp]
	mov	BYTE PTR [ecx+8], 1
$LN26@MoveWorks:

; 1189 : 			}
; 1190 : 		}
; 1191 : 	}

	jmp	$LN28@MoveWorks
$LN27@MoveWorks:

; 1192 : 
; 1193 : 	// One more pass through those that are not endangered to see if swapping with another player would help (as long as this isn't Music)
; 1194 : 	if (eType != CvTypes::getGREAT_WORK_SLOT_MUSIC())

	call	?getGREAT_WORK_SLOT_MUSIC@CvTypes@@YA?BW4GreatWorkSlotType@@XZ ; CvTypes::getGREAT_WORK_SLOT_MUSIC
	cmp	DWORD PTR _eType$[ebp], eax
	je	$LN24@MoveWorks

; 1195 : 	{
; 1196 : 		for (itBuilding = buildings.begin(); itBuilding != buildings.end(); itBuilding++)

	mov	edx, DWORD PTR _buildings$[ebp]
	mov	eax, DWORD PTR [edx+4]
	mov	DWORD PTR $T234306[ebp], eax
	mov	ecx, DWORD PTR $T234306[ebp]
	mov	DWORD PTR $T234026[ebp], ecx
	mov	edx, DWORD PTR $T234026[ebp]
	mov	DWORD PTR _itBuilding$[ebp], edx
	jmp	SHORT $LN23@MoveWorks
$LN22@MoveWorks:
	mov	eax, DWORD PTR _itBuilding$[ebp]
	mov	DWORD PTR __Tmp$234323[ebp], eax
	mov	ecx, DWORD PTR _itBuilding$[ebp]
	add	ecx, 12					; 0000000cH
	mov	DWORD PTR _itBuilding$[ebp], ecx
	mov	edx, DWORD PTR __Tmp$234323[ebp]
	mov	DWORD PTR $T234027[ebp], edx
$LN23@MoveWorks:
	mov	eax, DWORD PTR _buildings$[ebp]
	mov	ecx, DWORD PTR [eax+8]
	mov	DWORD PTR $T234338[ebp], ecx
	mov	edx, DWORD PTR $T234338[ebp]
	mov	DWORD PTR $T234028[ebp], edx
	mov	eax, DWORD PTR _itBuilding$[ebp]
	xor	ecx, ecx
	cmp	eax, DWORD PTR $T234028[ebp]
	sete	cl
	movzx	edx, cl
	neg	edx
	sbb	edx, edx
	add	edx, 1
	movzx	eax, dl
	test	eax, eax
	je	SHORT $LN24@MoveWorks

; 1197 : 		{
; 1198 : 			if (!itBuilding->m_bEndangered && !itBuilding->m_bThemed)

	mov	ecx, DWORD PTR _itBuilding$[ebp]
	movzx	edx, BYTE PTR [ecx+9]
	test	edx, edx
	jne	SHORT $LN20@MoveWorks
	mov	eax, DWORD PTR _itBuilding$[ebp]
	movzx	ecx, BYTE PTR [eax+8]
	test	ecx, ecx
	jne	SHORT $LN20@MoveWorks

; 1199 : 			{
; 1200 : 				if (ThemeBuilding(itBuilding, works1, works2, true /*bConsiderOtherPlayers*/))

	mov	edx, DWORD PTR _itBuilding$[ebp]
	mov	DWORD PTR $T234029[ebp], edx
	push	1
	mov	eax, DWORD PTR _works2$[ebp]
	push	eax
	mov	ecx, DWORD PTR _works1$[ebp]
	push	ecx
	mov	edx, DWORD PTR $T234029[ebp]
	push	edx
	mov	ecx, DWORD PTR _this$[ebp]
	call	?ThemeBuilding@CvPlayerCulture@@QAE_NV?$_Vector_const_iterator@VCvGreatWorkBuildingInMyEmpire@@V?$allocator@VCvGreatWorkBuildingInMyEmpire@@@std@@@std@@AAV?$vector@VCvGreatWorkInMyEmpire@@V?$allocator@VCvGreatWorkInMyEmpire@@@std@@@3@1_N@Z ; CvPlayerCulture::ThemeBuilding
	movzx	eax, al
	test	eax, eax
	je	SHORT $LN20@MoveWorks

; 1201 : 				{
; 1202 : 					itBuilding->m_bThemed = true;

	mov	ecx, DWORD PTR _itBuilding$[ebp]
	mov	BYTE PTR [ecx+8], 1
$LN20@MoveWorks:

; 1203 : 				}
; 1204 : 			}
; 1205 : 		}

	jmp	$LN22@MoveWorks
$LN24@MoveWorks:

; 1206 : 	}
; 1207 : 
; 1208 : 	// Set the first work left that we haven't themed as something we'd be willing to trade
; 1209 : 	//    for Writing
; 1210 : 	if (eType == CvTypes::getGREAT_WORK_SLOT_LITERATURE())

	call	?getGREAT_WORK_SLOT_LITERATURE@CvTypes@@YA?BW4GreatWorkSlotType@@XZ ; CvTypes::getGREAT_WORK_SLOT_LITERATURE
	cmp	DWORD PTR _eType$[ebp], eax
	jne	SHORT $LN18@MoveWorks

; 1211 : 	{
; 1212 : 		if (works1.size() > 0)

	mov	edx, DWORD PTR _works1$[ebp]
	mov	eax, DWORD PTR _works1$[ebp]
	mov	ecx, DWORD PTR [edx+8]
	sub	ecx, DWORD PTR [eax+4]
	mov	eax, ecx
	cdq
	mov	ecx, 24					; 00000018H
	idiv	ecx
	test	eax, eax
	jbe	SHORT $LN17@MoveWorks

; 1213 : 		{
; 1214 : 			SetSwappableWritingIndex(works1[0].m_iGreatWorkIndex);

	xor	edx, edx
	imul	edx, 24					; 00000018H
	mov	eax, DWORD PTR _works1$[ebp]
	mov	ecx, DWORD PTR [eax+4]
	mov	edx, DWORD PTR [ecx+edx]
	push	edx
	mov	ecx, DWORD PTR _this$[ebp]
	call	?SetSwappableWritingIndex@CvPlayerCulture@@QAEXH@Z ; CvPlayerCulture::SetSwappableWritingIndex

; 1215 : 		}
; 1216 : 		else

	jmp	SHORT $LN16@MoveWorks
$LN17@MoveWorks:

; 1217 : 		{
; 1218 : 			SetSwappableWritingIndex(-1);

	push	-1
	mov	ecx, DWORD PTR _this$[ebp]
	call	?SetSwappableWritingIndex@CvPlayerCulture@@QAEXH@Z ; CvPlayerCulture::SetSwappableWritingIndex
$LN16@MoveWorks:

; 1219 : 		}
; 1220 : 	}
; 1221 : 
; 1222 : 	//    for Art and Artifacts
; 1223 : 	else

	jmp	$LN15@MoveWorks
$LN18@MoveWorks:

; 1224 : 	{
; 1225 : 		if (eType == CvTypes::getGREAT_WORK_SLOT_ART_ARTIFACT())

	call	?getGREAT_WORK_SLOT_ART_ARTIFACT@CvTypes@@YA?BW4GreatWorkSlotType@@XZ ; CvTypes::getGREAT_WORK_SLOT_ART_ARTIFACT
	cmp	DWORD PTR _eType$[ebp], eax
	jne	SHORT $LN14@MoveWorks

; 1226 : 		{
; 1227 : 			if (works1.size() > 0)

	mov	eax, DWORD PTR _works1$[ebp]
	mov	ecx, DWORD PTR _works1$[ebp]
	mov	eax, DWORD PTR [eax+8]
	sub	eax, DWORD PTR [ecx+4]
	cdq
	mov	ecx, 24					; 00000018H
	idiv	ecx
	test	eax, eax
	jbe	SHORT $LN13@MoveWorks

; 1228 : 			{
; 1229 : 				SetSwappableArtIndex(works1[0].m_iGreatWorkIndex);

	xor	edx, edx
	imul	edx, 24					; 00000018H
	mov	eax, DWORD PTR _works1$[ebp]
	mov	ecx, DWORD PTR [eax+4]
	mov	edx, DWORD PTR [ecx+edx]
	push	edx
	mov	ecx, DWORD PTR _this$[ebp]
	call	?SetSwappableArtIndex@CvPlayerCulture@@QAEXH@Z ; CvPlayerCulture::SetSwappableArtIndex

; 1230 : 			}
; 1231 : 			else

	jmp	SHORT $LN14@MoveWorks
$LN13@MoveWorks:

; 1232 : 			{
; 1233 : 				SetSwappableArtIndex(-1);

	push	-1
	mov	ecx, DWORD PTR _this$[ebp]
	call	?SetSwappableArtIndex@CvPlayerCulture@@QAEXH@Z ; CvPlayerCulture::SetSwappableArtIndex
$LN14@MoveWorks:

; 1234 : 			}
; 1235 : 		}
; 1236 : 		if (eType == CvTypes::getGREAT_WORK_SLOT_ART_ARTIFACT())

	call	?getGREAT_WORK_SLOT_ART_ARTIFACT@CvTypes@@YA?BW4GreatWorkSlotType@@XZ ; CvTypes::getGREAT_WORK_SLOT_ART_ARTIFACT
	cmp	DWORD PTR _eType$[ebp], eax
	jne	SHORT $LN15@MoveWorks

; 1237 : 		{
; 1238 : 			if (works2.size() > 0)

	mov	eax, DWORD PTR _works2$[ebp]
	mov	ecx, DWORD PTR _works2$[ebp]
	mov	eax, DWORD PTR [eax+8]
	sub	eax, DWORD PTR [ecx+4]
	cdq
	mov	ecx, 24					; 00000018H
	idiv	ecx
	test	eax, eax
	jbe	SHORT $LN10@MoveWorks

; 1239 : 			{
; 1240 : 				SetSwappableArtifactIndex(works2[0].m_iGreatWorkIndex);

	xor	edx, edx
	imul	edx, 24					; 00000018H
	mov	eax, DWORD PTR _works2$[ebp]
	mov	ecx, DWORD PTR [eax+4]
	mov	edx, DWORD PTR [ecx+edx]
	push	edx
	mov	ecx, DWORD PTR _this$[ebp]
	call	?SetSwappableArtifactIndex@CvPlayerCulture@@QAEXH@Z ; CvPlayerCulture::SetSwappableArtifactIndex

; 1241 : 			}
; 1242 : 			else

	jmp	SHORT $LN15@MoveWorks
$LN10@MoveWorks:

; 1243 : 			{
; 1244 : 				SetSwappableArtifactIndex(-1);

	push	-1
	mov	ecx, DWORD PTR _this$[ebp]
	call	?SetSwappableArtifactIndex@CvPlayerCulture@@QAEXH@Z ; CvPlayerCulture::SetSwappableArtifactIndex
$LN15@MoveWorks:

; 1245 : 			}
; 1246 : 		}
; 1247 : 	}
; 1248 : 
; 1249 : 	// Fill unthemed buildings, first those that aren't endangered
; 1250 : #ifdef AUI_ITERATOR_POSTFIX_INCREMENT_OPTIMIZATIONS
; 1251 : 	for (itBuilding = buildings.begin(); itBuilding != buildings.end(); ++itBuilding)
; 1252 : #else
; 1253 : 	for (itBuilding = buildings.begin(); itBuilding != buildings.end(); itBuilding++)

	mov	eax, DWORD PTR _buildings$[ebp]
	mov	ecx, DWORD PTR [eax+4]
	mov	DWORD PTR $T234425[ebp], ecx
	mov	edx, DWORD PTR $T234425[ebp]
	mov	DWORD PTR $T234030[ebp], edx
	mov	eax, DWORD PTR $T234030[ebp]
	mov	DWORD PTR _itBuilding$[ebp], eax
	jmp	SHORT $LN8@MoveWorks
$LN7@MoveWorks:
	mov	ecx, DWORD PTR _itBuilding$[ebp]
	mov	DWORD PTR __Tmp$234442[ebp], ecx
	mov	edx, DWORD PTR _itBuilding$[ebp]
	add	edx, 12					; 0000000cH
	mov	DWORD PTR _itBuilding$[ebp], edx
	mov	eax, DWORD PTR __Tmp$234442[ebp]
	mov	DWORD PTR $T234031[ebp], eax
$LN8@MoveWorks:
	mov	ecx, DWORD PTR _buildings$[ebp]
	mov	edx, DWORD PTR [ecx+8]
	mov	DWORD PTR $T234457[ebp], edx
	mov	eax, DWORD PTR $T234457[ebp]
	mov	DWORD PTR $T234032[ebp], eax
	mov	ecx, DWORD PTR _itBuilding$[ebp]
	xor	edx, edx
	cmp	ecx, DWORD PTR $T234032[ebp]
	sete	dl
	movzx	eax, dl
	neg	eax
	sbb	eax, eax
	add	eax, 1
	movzx	ecx, al
	test	ecx, ecx
	je	SHORT $LN6@MoveWorks

; 1254 : #endif
; 1255 : 	{
; 1256 : 		if (!itBuilding->m_bEndangered && !itBuilding->m_bThemed)

	mov	edx, DWORD PTR _itBuilding$[ebp]
	movzx	eax, BYTE PTR [edx+9]
	test	eax, eax
	jne	SHORT $LN5@MoveWorks
	mov	ecx, DWORD PTR _itBuilding$[ebp]
	movzx	edx, BYTE PTR [ecx+8]
	test	edx, edx
	jne	SHORT $LN5@MoveWorks

; 1257 : 		{
; 1258 : 			FillBuilding(itBuilding, works1, works2);

	mov	eax, DWORD PTR _itBuilding$[ebp]
	mov	DWORD PTR $T234033[ebp], eax
	mov	ecx, DWORD PTR _works2$[ebp]
	push	ecx
	mov	edx, DWORD PTR _works1$[ebp]
	push	edx
	mov	eax, DWORD PTR $T234033[ebp]
	push	eax
	mov	ecx, DWORD PTR _this$[ebp]
	call	?FillBuilding@CvPlayerCulture@@QAE_NV?$_Vector_const_iterator@VCvGreatWorkBuildingInMyEmpire@@V?$allocator@VCvGreatWorkBuildingInMyEmpire@@@std@@@std@@AAV?$vector@VCvGreatWorkInMyEmpire@@V?$allocator@VCvGreatWorkInMyEmpire@@@std@@@3@1@Z ; CvPlayerCulture::FillBuilding
$LN5@MoveWorks:

; 1259 : 		}
; 1260 : 	}

	jmp	$LN7@MoveWorks
$LN6@MoveWorks:

; 1261 : #ifdef AUI_ITERATOR_POSTFIX_INCREMENT_OPTIMIZATIONS
; 1262 : 	for (itBuilding = buildings.begin(); itBuilding != buildings.end(); ++itBuilding)
; 1263 : #else
; 1264 : 	for (itBuilding = buildings.begin(); itBuilding != buildings.end(); itBuilding++)

	mov	ecx, DWORD PTR _buildings$[ebp]
	mov	edx, DWORD PTR [ecx+4]
	mov	DWORD PTR $T234511[ebp], edx
	mov	eax, DWORD PTR $T234511[ebp]
	mov	DWORD PTR $T234034[ebp], eax
	mov	ecx, DWORD PTR $T234034[ebp]
	mov	DWORD PTR _itBuilding$[ebp], ecx
	jmp	SHORT $LN4@MoveWorks
$LN3@MoveWorks:
	mov	edx, DWORD PTR _itBuilding$[ebp]
	mov	DWORD PTR __Tmp$234533[ebp], edx
	mov	eax, DWORD PTR _itBuilding$[ebp]
	add	eax, 12					; 0000000cH
	mov	DWORD PTR _itBuilding$[ebp], eax
	mov	ecx, DWORD PTR __Tmp$234533[ebp]
	mov	DWORD PTR $T234035[ebp], ecx
$LN4@MoveWorks:
	mov	edx, DWORD PTR _buildings$[ebp]
	mov	eax, DWORD PTR [edx+8]
	mov	DWORD PTR $T234543[ebp], eax
	mov	ecx, DWORD PTR $T234543[ebp]
	mov	DWORD PTR $T234036[ebp], ecx
	mov	edx, DWORD PTR _itBuilding$[ebp]
	xor	eax, eax
	cmp	edx, DWORD PTR $T234036[ebp]
	sete	al
	movzx	ecx, al
	neg	ecx
	sbb	ecx, ecx
	add	ecx, 1
	movzx	edx, cl
	test	edx, edx
	je	SHORT $LN35@MoveWorks

; 1265 : #endif
; 1266 : 	{
; 1267 : 		if (itBuilding->m_bEndangered && !itBuilding->m_bThemed)

	mov	eax, DWORD PTR _itBuilding$[ebp]
	movzx	ecx, BYTE PTR [eax+9]
	test	ecx, ecx
	je	SHORT $LN1@MoveWorks
	mov	edx, DWORD PTR _itBuilding$[ebp]
	movzx	eax, BYTE PTR [edx+8]
	test	eax, eax
	jne	SHORT $LN1@MoveWorks

; 1268 : 		{
; 1269 : 			FillBuilding(itBuilding, works1, works2);

	mov	ecx, DWORD PTR _itBuilding$[ebp]
	mov	DWORD PTR $T234037[ebp], ecx
	mov	edx, DWORD PTR _works2$[ebp]
	push	edx
	mov	eax, DWORD PTR _works1$[ebp]
	push	eax
	mov	ecx, DWORD PTR $T234037[ebp]
	push	ecx
	mov	ecx, DWORD PTR _this$[ebp]
	call	?FillBuilding@CvPlayerCulture@@QAE_NV?$_Vector_const_iterator@VCvGreatWorkBuildingInMyEmpire@@V?$allocator@VCvGreatWorkBuildingInMyEmpire@@@std@@@std@@AAV?$vector@VCvGreatWorkInMyEmpire@@V?$allocator@VCvGreatWorkInMyEmpire@@@std@@@3@1@Z ; CvPlayerCulture::FillBuilding
$LN1@MoveWorks:

; 1270 : 		}

	jmp	$LN3@MoveWorks
$LN35@MoveWorks:

; 1271 : 	}
; 1272 : }

	mov	esp, ebp
	pop	ebp
	ret	16					; 00000010H
?MoveWorks@CvPlayerCulture@@QAEXW4GreatWorkSlotType@@AAV?$vector@VCvGreatWorkBuildingInMyEmpire@@V?$allocator@VCvGreatWorkBuildingInMyEmpire@@@std@@@std@@AAV?$vector@VCvGreatWorkInMyEmpire@@V?$allocator@VCvGreatWorkInMyEmpire@@@std@@@4@2@Z ENDP ; CvPlayerCulture::MoveWorks
_TEXT	ENDS
EXTRN	?GetThemingBonusInfo@CvBuildingEntry@@QBEPAVCvThemingBonusInfo@@H@Z:PROC ; CvBuildingEntry::GetThemingBonusInfo
EXTRN	?GetEntry@CvBuildingXMLEntries@@QAEPAVCvBuildingEntry@@H@Z:PROC ; CvBuildingXMLEntries::GetEntry
EXTRN	?GetGameBuildings@CvGlobals@@QBEPAVCvBuildingXMLEntries@@XZ:PROC ; CvGlobals::GetGameBuildings
; Function compile flags: /Odtp
;	COMDAT ?SortThemingBonus@@YA_NABVCvGreatWorkBuildingInMyEmpire@@0@Z
_TEXT	SEGMENT
$T234597 = -24						; size = 4
$T234593 = -20						; size = 4
_pBonus2$223477 = -16					; size = 4
_pBonus1$223476 = -12					; size = 4
_pEntry2$ = -8						; size = 4
_pEntry1$ = -4						; size = 4
_kEntry1$ = 8						; size = 4
_kEntry2$ = 12						; size = 4
?SortThemingBonus@@YA_NABVCvGreatWorkBuildingInMyEmpire@@0@Z PROC ; SortThemingBonus, COMDAT

; 1131 : {

	push	ebp
	mov	ebp, esp
	sub	esp, 24					; 00000018H

; 1132 : 	CvBuildingEntry *pEntry1 = GC.GetGameBuildings()->GetEntry(kEntry1.m_eBuilding);

	mov	eax, DWORD PTR _kEntry1$[ebp]
	mov	ecx, DWORD PTR [eax+4]
	push	ecx
	mov	ecx, OFFSET ?gGlobals@@3VCvGlobals@@A	; gGlobals
	call	?GetGameBuildings@CvGlobals@@QBEPAVCvBuildingXMLEntries@@XZ ; CvGlobals::GetGameBuildings
	mov	ecx, eax
	call	?GetEntry@CvBuildingXMLEntries@@QAEPAVCvBuildingEntry@@H@Z ; CvBuildingXMLEntries::GetEntry
	mov	DWORD PTR _pEntry1$[ebp], eax

; 1133 : 	CvBuildingEntry *pEntry2 = GC.GetGameBuildings()->GetEntry(kEntry2.m_eBuilding);

	mov	edx, DWORD PTR _kEntry2$[ebp]
	mov	eax, DWORD PTR [edx+4]
	push	eax
	mov	ecx, OFFSET ?gGlobals@@3VCvGlobals@@A	; gGlobals
	call	?GetGameBuildings@CvGlobals@@QBEPAVCvBuildingXMLEntries@@XZ ; CvGlobals::GetGameBuildings
	mov	ecx, eax
	call	?GetEntry@CvBuildingXMLEntries@@QAEPAVCvBuildingEntry@@H@Z ; CvBuildingXMLEntries::GetEntry
	mov	DWORD PTR _pEntry2$[ebp], eax

; 1134 : 
; 1135 : 	if (pEntry1 && pEntry2)

	cmp	DWORD PTR _pEntry1$[ebp], 0
	je	SHORT $LN4@SortThemin
	cmp	DWORD PTR _pEntry2$[ebp], 0
	je	SHORT $LN4@SortThemin

; 1136 : 	{
; 1137 : 		CvThemingBonusInfo *pBonus1 = pEntry1->GetThemingBonusInfo(0);

	push	0
	mov	ecx, DWORD PTR _pEntry1$[ebp]
	call	?GetThemingBonusInfo@CvBuildingEntry@@QBEPAVCvThemingBonusInfo@@H@Z ; CvBuildingEntry::GetThemingBonusInfo
	mov	DWORD PTR _pBonus1$223476[ebp], eax

; 1138 : 		CvThemingBonusInfo *pBonus2 = pEntry2->GetThemingBonusInfo(0);

	push	0
	mov	ecx, DWORD PTR _pEntry2$[ebp]
	call	?GetThemingBonusInfo@CvBuildingEntry@@QBEPAVCvThemingBonusInfo@@H@Z ; CvBuildingEntry::GetThemingBonusInfo
	mov	DWORD PTR _pBonus2$223477[ebp], eax

; 1139 : 
; 1140 : 		if (pBonus1 && pBonus2)

	cmp	DWORD PTR _pBonus1$223476[ebp], 0
	je	SHORT $LN3@SortThemin
	cmp	DWORD PTR _pBonus2$223477[ebp], 0
	je	SHORT $LN3@SortThemin

; 1141 : 		{
; 1142 : 			return (pBonus1->GetAIPriority() > pBonus2->GetAIPriority());

	mov	ecx, DWORD PTR _pBonus1$223476[ebp]
	mov	edx, DWORD PTR [ecx+44]
	mov	DWORD PTR $T234593[ebp], edx
	mov	eax, DWORD PTR _pBonus2$223477[ebp]
	mov	ecx, DWORD PTR [eax+44]
	mov	DWORD PTR $T234597[ebp], ecx
	mov	edx, DWORD PTR $T234593[ebp]
	xor	eax, eax
	cmp	edx, DWORD PTR $T234597[ebp]
	setg	al
	jmp	SHORT $LN5@SortThemin
	jmp	SHORT $LN4@SortThemin
$LN3@SortThemin:

; 1143 : 		}
; 1144 : 		else if (pBonus1)

	cmp	DWORD PTR _pBonus1$223476[ebp], 0
	je	SHORT $LN4@SortThemin

; 1145 : 		{
; 1146 : 			return true;

	mov	al, 1
	jmp	SHORT $LN5@SortThemin
$LN4@SortThemin:

; 1147 : 		}
; 1148 : 	}
; 1149 : 
; 1150 : 	return false;

	xor	al, al
$LN5@SortThemin:

; 1151 : }

	mov	esp, ebp
	pop	ebp
	ret	0
?SortThemingBonus@@YA_NABVCvGreatWorkBuildingInMyEmpire@@0@Z ENDP ; SortThemingBonus
_TEXT	ENDS
PUBLIC	??1?$_Vector_val@HV?$allocator@H@std@@@std@@QAE@XZ ; std::_Vector_val<int,std::allocator<int> >::~_Vector_val<int,std::allocator<int> >
PUBLIC	??1?$_Vector_val@W4PlayerTypes@@V?$allocator@W4PlayerTypes@@@std@@@std@@QAE@XZ ; std::_Vector_val<enum PlayerTypes,std::allocator<enum PlayerTypes> >::~_Vector_val<enum PlayerTypes,std::allocator<enum PlayerTypes> >
PUBLIC	??1?$_Vector_val@W4EraTypes@@V?$allocator@W4EraTypes@@@std@@@std@@QAE@XZ ; std::_Vector_val<enum EraTypes,std::allocator<enum EraTypes> >::~_Vector_val<enum EraTypes,std::allocator<enum EraTypes> >
PUBLIC	??1?$vector@W4EraTypes@@V?$allocator@W4EraTypes@@@std@@@std@@QAE@XZ ; std::vector<enum EraTypes,std::allocator<enum EraTypes> >::~vector<enum EraTypes,std::allocator<enum EraTypes> >
PUBLIC	??1?$vector@W4PlayerTypes@@V?$allocator@W4PlayerTypes@@@std@@@std@@QAE@XZ ; std::vector<enum PlayerTypes,std::allocator<enum PlayerTypes> >::~vector<enum PlayerTypes,std::allocator<enum PlayerTypes> >
PUBLIC	??1?$vector@HV?$allocator@H@std@@@std@@QAE@XZ	; std::vector<int,std::allocator<int> >::~vector<int,std::allocator<int> >
PUBLIC	?LogThemedBuilding@CvPlayerCulture@@AAEXHW4BuildingTypes@@H@Z ; CvPlayerCulture::LogThemedBuilding
PUBLIC	??$_Find@V?$_Vector_iterator@HV?$allocator@H@std@@@std@@H@std@@YA?AV?$_Vector_iterator@HV?$allocator@H@std@@@0@V10@0ABH@Z ; std::_Find<std::_Vector_iterator<int,std::allocator<int> >,int>
PUBLIC	?MoveWorkIntoSlot@CvPlayerCulture@@QAEXVCvGreatWorkInMyEmpire@@HW4BuildingTypes@@H@Z ; CvPlayerCulture::MoveWorkIntoSlot
PUBLIC	?SendArtSwapNotification@CultureHelpers@@YAXW4GreatWorkSlotType@@_NW4PlayerTypes@@2HH@Z ; CultureHelpers::SendArtSwapNotification
PUBLIC	?erase@?$vector@VCvGreatWorkInMyEmpire@@V?$allocator@VCvGreatWorkInMyEmpire@@@std@@@std@@QAE?AV?$_Vector_iterator@VCvGreatWorkInMyEmpire@@V?$allocator@VCvGreatWorkInMyEmpire@@@std@@@2@V?$_Vector_const_iterator@VCvGreatWorkInMyEmpire@@V?$allocator@VCvGreatWorkInMyEmpire@@@std@@@2@0@Z ; std::vector<CvGreatWorkInMyEmpire,std::allocator<CvGreatWorkInMyEmpire> >::erase
PUBLIC	?LogSwapWorks@CvPlayerCulture@@AAEXW4PlayerTypes@@HH@Z ; CvPlayerCulture::LogSwapWorks
PUBLIC	?FindWorkNotChosen@CultureHelpers@@YAHAAV?$vector@VCvGreatWorkInMyEmpire@@V?$allocator@VCvGreatWorkInMyEmpire@@@std@@@std@@AAV?$vector@HV?$allocator@H@std@@@3@@Z ; CultureHelpers::FindWorkNotChosen
PUBLIC	?GetThemingBonusIndex@CultureHelpers@@YAHW4PlayerTypes@@PAVCvBuildingEntry@@AAV?$vector@HV?$allocator@H@std@@@std@@@Z ; CultureHelpers::GetThemingBonusIndex
PUBLIC	?IsValidForThemingBonus@CultureHelpers@@YA_NPAVCvThemingBonusInfo@@W4EraTypes@@AAV?$vector@W4EraTypes@@V?$allocator@W4EraTypes@@@std@@@std@@W4PlayerTypes@@AAV?$vector@W4PlayerTypes@@V?$allocator@W4PlayerTypes@@@std@@@5@3@Z ; CultureHelpers::IsValidForThemingBonus
PUBLIC	?push_back@?$vector@W4EraTypes@@V?$allocator@W4EraTypes@@@std@@@std@@QAEXABW4EraTypes@@@Z ; std::vector<enum EraTypes,std::allocator<enum EraTypes> >::push_back
PUBLIC	?push_back@?$vector@W4PlayerTypes@@V?$allocator@W4PlayerTypes@@@std@@@std@@QAEXABW4PlayerTypes@@@Z ; std::vector<enum PlayerTypes,std::allocator<enum PlayerTypes> >::push_back
PUBLIC	?push_back@?$vector@HV?$allocator@H@std@@@std@@QAEXABH@Z ; std::vector<int,std::allocator<int> >::push_back
PUBLIC	?erase@?$vector@W4EraTypes@@V?$allocator@W4EraTypes@@@std@@@std@@QAE?AV?$_Vector_iterator@W4EraTypes@@V?$allocator@W4EraTypes@@@std@@@2@V?$_Vector_const_iterator@W4EraTypes@@V?$allocator@W4EraTypes@@@std@@@2@0@Z ; std::vector<enum EraTypes,std::allocator<enum EraTypes> >::erase
PUBLIC	?erase@?$vector@W4PlayerTypes@@V?$allocator@W4PlayerTypes@@@std@@@std@@QAE?AV?$_Vector_iterator@W4PlayerTypes@@V?$allocator@W4PlayerTypes@@@std@@@2@V?$_Vector_const_iterator@W4PlayerTypes@@V?$allocator@W4PlayerTypes@@@std@@@2@0@Z ; std::vector<enum PlayerTypes,std::allocator<enum PlayerTypes> >::erase
PUBLIC	?erase@?$vector@HV?$allocator@H@std@@@std@@QAE?AV?$_Vector_iterator@HV?$allocator@H@std@@@2@V?$_Vector_const_iterator@HV?$allocator@H@std@@@2@0@Z ; std::vector<int,std::allocator<int> >::erase
