; Listing generated by Microsoft (R) Optimizing Compiler Version 15.00.30729.01 

	TITLE	D:\sources\Lekmod_git\checkout\LEKMOD_DLL\CvGameCoreDLL_Expansion2\CvDatabaseUtility.cpp
	.686P
	.XMM
	include listing.inc
	.model	flat

INCLUDELIB MSVCRT
INCLUDELIB OLDNAMES

PUBLIC	??0?$_Hash@V?$_Hmap_traits@V?$basic_string@DU?$char_traits@D@std@@V?$allocator@D@2@@std@@PAVResults@Database@@V?$hash_compare@V?$basic_string@DU?$char_traits@D@std@@V?$allocator@D@2@@std@@U?$less@V?$basic_string@DU?$char_traits@D@std@@V?$allocator@D@2@@std@@@2@@stdext@@V?$allocator@U?$pair@$$CBV?$basic_string@DU?$char_traits@D@std@@V?$allocator@D@2@@std@@PAVResults@Database@@@std@@@2@$0A@@stdext@@@stdext@@QAE@ABV?$hash_compare@V?$basic_string@DU?$char_traits@D@std@@V?$allocator@D@2@@std@@U?$less@V?$basic_string@DU?$char_traits@D@std@@V?$allocator@D@2@@std@@@2@@1@ABV?$allocator@U?$pair@$$CBV?$basic_string@DU?$char_traits@D@std@@V?$allocator@D@2@@std@@PAVResults@Database@@@std@@@std@@@Z ; stdext::_Hash<stdext::_Hmap_traits<std::basic_string<char,std::char_traits<char>,std::allocator<char> >,Database::Results *,stdext::hash_compare<std::basic_string<char,std::char_traits<char>,std::allocator<char> >,std::less<std::basic_string<char,std::char_traits<char>,std::allocator<char> > > >,std::allocator<std::pair<std::basic_string<char,std::char_traits<char>,std::allocator<char> > const ,Database::Results *> >,0> >::_Hash<stdext::_Hmap_traits<std::basic_string<char,std::char_traits<char>,std::allocator<char> >,Database::Results *,stdext::hash_compare<std::basic_string<char,std::char_traits<char>,std::allocator<char> >,std::less<std::basic_string<char,std::char_traits<char>,std::allocator<char> > > >,std::allocator<std::pair<std::basic_string<char,std::char_traits<char>,std::allocator<char> > const ,Database::Results *> >,0> >
PUBLIC	??0CvDatabaseUtility@@QAE@XZ			; CvDatabaseUtility::CvDatabaseUtility
EXTRN	__fltused:DWORD
EXTRN	__CxxThrowException@8:PROC
; Function compile flags: /Odtp
; File d:\sources\lekmod_git\checkout\lekmod_dll\cvgamecoredll_expansion2\cvdatabaseutility.cpp
;	COMDAT ??0CvDatabaseUtility@@QAE@XZ
_TEXT	SEGMENT
_this$ = -228						; size = 4
$T219100 = -2						; size = 1
$T219099 = -1						; size = 1
??0CvDatabaseUtility@@QAE@XZ PROC			; CvDatabaseUtility::CvDatabaseUtility, COMDAT
; _this$ = ecx

; 16   : {

	push	ebp
	mov	ebp, esp
	sub	esp, 228				; 000000e4H
	mov	DWORD PTR _this$[ebp], ecx
	lea	eax, DWORD PTR $T219099[ebp]
	push	eax
	lea	ecx, DWORD PTR $T219100[ebp]
	push	ecx
	mov	ecx, DWORD PTR _this$[ebp]
	call	??0?$_Hash@V?$_Hmap_traits@V?$basic_string@DU?$char_traits@D@std@@V?$allocator@D@2@@std@@PAVResults@Database@@V?$hash_compare@V?$basic_string@DU?$char_traits@D@std@@V?$allocator@D@2@@std@@U?$less@V?$basic_string@DU?$char_traits@D@std@@V?$allocator@D@2@@std@@@2@@stdext@@V?$allocator@U?$pair@$$CBV?$basic_string@DU?$char_traits@D@std@@V?$allocator@D@2@@std@@PAVResults@Database@@@std@@@2@$0A@@stdext@@@stdext@@QAE@ABV?$hash_compare@V?$basic_string@DU?$char_traits@D@std@@V?$allocator@D@2@@std@@U?$less@V?$basic_string@DU?$char_traits@D@std@@V?$allocator@D@2@@std@@@2@@1@ABV?$allocator@U?$pair@$$CBV?$basic_string@DU?$char_traits@D@std@@V?$allocator@D@2@@std@@PAVResults@Database@@@std@@@std@@@Z ; stdext::_Hash<stdext::_Hmap_traits<std::basic_string<char,std::char_traits<char>,std::allocator<char> >,Database::Results *,stdext::hash_compare<std::basic_string<char,std::char_traits<char>,std::allocator<char> >,std::less<std::basic_string<char,std::char_traits<char>,std::allocator<char> > > >,std::allocator<std::pair<std::basic_string<char,std::char_traits<char>,std::allocator<char> > const ,Database::Results *> >,0> >::_Hash<stdext::_Hmap_traits<std::basic_string<char,std::char_traits<char>,std::allocator<char> >,Database::Results *,stdext::hash_compare<std::basic_string<char,std::char_traits<char>,std::allocator<char> >,std::less<std::basic_string<char,std::char_traits<char>,std::allocator<char> > > >,std::allocator<std::pair<std::basic_string<char,std::char_traits<char>,std::allocator<char> > const ,Database::Results *> >,0> >

; 17   : 
; 18   : }

	mov	eax, DWORD PTR _this$[ebp]
	mov	esp, ebp
	pop	ebp
	ret	0
??0CvDatabaseUtility@@QAE@XZ ENDP			; CvDatabaseUtility::CvDatabaseUtility
_TEXT	ENDS
PUBLIC	??1?$hash_map@V?$basic_string@DU?$char_traits@D@std@@V?$allocator@D@2@@std@@PAVResults@Database@@V?$hash_compare@V?$basic_string@DU?$char_traits@D@std@@V?$allocator@D@2@@std@@U?$less@V?$basic_string@DU?$char_traits@D@std@@V?$allocator@D@2@@std@@@2@@stdext@@V?$allocator@U?$pair@$$CBV?$basic_string@DU?$char_traits@D@std@@V?$allocator@D@2@@std@@PAVResults@Database@@@std@@@2@@stdext@@QAE@XZ ; stdext::hash_map<std::basic_string<char,std::char_traits<char>,std::allocator<char> >,Database::Results *,stdext::hash_compare<std::basic_string<char,std::char_traits<char>,std::allocator<char> >,std::less<std::basic_string<char,std::char_traits<char>,std::allocator<char> > > >,std::allocator<std::pair<std::basic_string<char,std::char_traits<char>,std::allocator<char> > const ,Database::Results *> > >::~hash_map<std::basic_string<char,std::char_traits<char>,std::allocator<char> >,Database::Results *,stdext::hash_compare<std::basic_string<char,std::char_traits<char>,std::allocator<char> >,std::less<std::basic_string<char,std::char_traits<char>,std::allocator<char> > > >,std::allocator<std::pair<std::basic_string<char,std::char_traits<char>,std::allocator<char> > const ,Database::Results *> > >
PUBLIC	??1?$_Hash@V?$_Hmap_traits@V?$basic_string@DU?$char_traits@D@std@@V?$allocator@D@2@@std@@PAVResults@Database@@V?$hash_compare@V?$basic_string@DU?$char_traits@D@std@@V?$allocator@D@2@@std@@U?$less@V?$basic_string@DU?$char_traits@D@std@@V?$allocator@D@2@@std@@@2@@stdext@@V?$allocator@U?$pair@$$CBV?$basic_string@DU?$char_traits@D@std@@V?$allocator@D@2@@std@@PAVResults@Database@@@std@@@2@$0A@@stdext@@@stdext@@QAE@XZ ; stdext::_Hash<stdext::_Hmap_traits<std::basic_string<char,std::char_traits<char>,std::allocator<char> >,Database::Results *,stdext::hash_compare<std::basic_string<char,std::char_traits<char>,std::allocator<char> >,std::less<std::basic_string<char,std::char_traits<char>,std::allocator<char> > > >,std::allocator<std::pair<std::basic_string<char,std::char_traits<char>,std::allocator<char> > const ,Database::Results *> >,0> >::~_Hash<stdext::_Hmap_traits<std::basic_string<char,std::char_traits<char>,std::allocator<char> >,Database::Results *,stdext::hash_compare<std::basic_string<char,std::char_traits<char>,std::allocator<char> >,std::less<std::basic_string<char,std::char_traits<char>,std::allocator<char> > > >,std::allocator<std::pair<std::basic_string<char,std::char_traits<char>,std::allocator<char> > const ,Database::Results *> >,0> >
PUBLIC	?ClearResults@CvDatabaseUtility@@QAEXXZ		; CvDatabaseUtility::ClearResults
PUBLIC	??1CvDatabaseUtility@@QAE@XZ			; CvDatabaseUtility::~CvDatabaseUtility
EXTRN	___security_cookie:DWORD
EXTRN	___CxxFrameHandler3:PROC
EXTRN	@__security_check_cookie@4:PROC
;	COMDAT xdata$x
; File c:\program files (x86)\microsoft visual studio 9.0\vc\include\xutility
xdata$x	SEGMENT
__unwindtable$??1CvDatabaseUtility@@QAE@XZ DD 0ffffffffH
	DD	FLAT:__unwindfunclet$??1CvDatabaseUtility@@QAE@XZ$0
__ehfuncinfo$??1CvDatabaseUtility@@QAE@XZ DD 019930522H
	DD	01H
	DD	FLAT:__unwindtable$??1CvDatabaseUtility@@QAE@XZ
	DD	2 DUP(00H)
	DD	2 DUP(00H)
	DD	00H
	DD	01H
; Function compile flags: /Odtp
; File d:\sources\lekmod_git\checkout\lekmod_dll\cvgamecoredll_expansion2\cvdatabaseutility.cpp
xdata$x	ENDS
;	COMDAT ??1CvDatabaseUtility@@QAE@XZ
_TEXT	SEGMENT
_this$ = -84						; size = 4
__$EHRec$ = -12						; size = 12
??1CvDatabaseUtility@@QAE@XZ PROC			; CvDatabaseUtility::~CvDatabaseUtility, COMDAT
; _this$ = ecx

; 21   : {

	push	ebp
	mov	ebp, esp
	push	-1
	push	__ehhandler$??1CvDatabaseUtility@@QAE@XZ
	mov	eax, DWORD PTR fs:0
	push	eax
	sub	esp, 72					; 00000048H
	mov	eax, DWORD PTR ___security_cookie
	xor	eax, ebp
	push	eax
	lea	eax, DWORD PTR __$EHRec$[ebp]
	mov	DWORD PTR fs:0, eax
	mov	DWORD PTR _this$[ebp], ecx
	mov	DWORD PTR __$EHRec$[ebp+8], 0

; 22   : 	//Remove any cached statements
; 23   : 	ClearResults();

	mov	ecx, DWORD PTR _this$[ebp]
	call	?ClearResults@CvDatabaseUtility@@QAEXXZ	; CvDatabaseUtility::ClearResults

; 24   : }

	mov	DWORD PTR __$EHRec$[ebp+8], -1
	mov	ecx, DWORD PTR _this$[ebp]
	call	??1?$_Hash@V?$_Hmap_traits@V?$basic_string@DU?$char_traits@D@std@@V?$allocator@D@2@@std@@PAVResults@Database@@V?$hash_compare@V?$basic_string@DU?$char_traits@D@std@@V?$allocator@D@2@@std@@U?$less@V?$basic_string@DU?$char_traits@D@std@@V?$allocator@D@2@@std@@@2@@stdext@@V?$allocator@U?$pair@$$CBV?$basic_string@DU?$char_traits@D@std@@V?$allocator@D@2@@std@@PAVResults@Database@@@std@@@2@$0A@@stdext@@@stdext@@QAE@XZ ; stdext::_Hash<stdext::_Hmap_traits<std::basic_string<char,std::char_traits<char>,std::allocator<char> >,Database::Results *,stdext::hash_compare<std::basic_string<char,std::char_traits<char>,std::allocator<char> >,std::less<std::basic_string<char,std::char_traits<char>,std::allocator<char> > > >,std::allocator<std::pair<std::basic_string<char,std::char_traits<char>,std::allocator<char> > const ,Database::Results *> >,0> >::~_Hash<stdext::_Hmap_traits<std::basic_string<char,std::char_traits<char>,std::allocator<char> >,Database::Results *,stdext::hash_compare<std::basic_string<char,std::char_traits<char>,std::allocator<char> >,std::less<std::basic_string<char,std::char_traits<char>,std::allocator<char> > > >,std::allocator<std::pair<std::basic_string<char,std::char_traits<char>,std::allocator<char> > const ,Database::Results *> >,0> >
	mov	ecx, DWORD PTR __$EHRec$[ebp]
	mov	DWORD PTR fs:0, ecx
	pop	ecx
	mov	esp, ebp
	pop	ebp
	ret	0
_TEXT	ENDS
;	COMDAT text$x
text$x	SEGMENT
__unwindfunclet$??1CvDatabaseUtility@@QAE@XZ$0:
	mov	ecx, DWORD PTR _this$[ebp]
	jmp	??1?$hash_map@V?$basic_string@DU?$char_traits@D@std@@V?$allocator@D@2@@std@@PAVResults@Database@@V?$hash_compare@V?$basic_string@DU?$char_traits@D@std@@V?$allocator@D@2@@std@@U?$less@V?$basic_string@DU?$char_traits@D@std@@V?$allocator@D@2@@std@@@2@@stdext@@V?$allocator@U?$pair@$$CBV?$basic_string@DU?$char_traits@D@std@@V?$allocator@D@2@@std@@PAVResults@Database@@@std@@@2@@stdext@@QAE@XZ
__ehhandler$??1CvDatabaseUtility@@QAE@XZ:
	mov	edx, DWORD PTR [esp+8]
	lea	eax, DWORD PTR [edx+12]
	mov	ecx, DWORD PTR [edx-76]
	xor	ecx, eax
	call	@__security_check_cookie@4
	mov	eax, OFFSET __ehfuncinfo$??1CvDatabaseUtility@@QAE@XZ
	jmp	___CxxFrameHandler3
text$x	ENDS
??1CvDatabaseUtility@@QAE@XZ ENDP			; CvDatabaseUtility::~CvDatabaseUtility
; Function compile flags: /Odtp
;	COMDAT ??1?$hash_map@V?$basic_string@DU?$char_traits@D@std@@V?$allocator@D@2@@std@@PAVResults@Database@@V?$hash_compare@V?$basic_string@DU?$char_traits@D@std@@V?$allocator@D@2@@std@@U?$less@V?$basic_string@DU?$char_traits@D@std@@V?$allocator@D@2@@std@@@2@@stdext@@V?$allocator@U?$pair@$$CBV?$basic_string@DU?$char_traits@D@std@@V?$allocator@D@2@@std@@PAVResults@Database@@@std@@@2@@stdext@@QAE@XZ
_TEXT	SEGMENT
_this$ = -72						; size = 4
??1?$hash_map@V?$basic_string@DU?$char_traits@D@std@@V?$allocator@D@2@@std@@PAVResults@Database@@V?$hash_compare@V?$basic_string@DU?$char_traits@D@std@@V?$allocator@D@2@@std@@U?$less@V?$basic_string@DU?$char_traits@D@std@@V?$allocator@D@2@@std@@@2@@stdext@@V?$allocator@U?$pair@$$CBV?$basic_string@DU?$char_traits@D@std@@V?$allocator@D@2@@std@@PAVResults@Database@@@std@@@2@@stdext@@QAE@XZ PROC ; stdext::hash_map<std::basic_string<char,std::char_traits<char>,std::allocator<char> >,Database::Results *,stdext::hash_compare<std::basic_string<char,std::char_traits<char>,std::allocator<char> >,std::less<std::basic_string<char,std::char_traits<char>,std::allocator<char> > > >,std::allocator<std::pair<std::basic_string<char,std::char_traits<char>,std::allocator<char> > const ,Database::Results *> > >::~hash_map<std::basic_string<char,std::char_traits<char>,std::allocator<char> >,Database::Results *,stdext::hash_compare<std::basic_string<char,std::char_traits<char>,std::allocator<char> >,std::less<std::basic_string<char,std::char_traits<char>,std::allocator<char> > > >,std::allocator<std::pair<std::basic_string<char,std::char_traits<char>,std::allocator<char> > const ,Database::Results *> > >, COMDAT
; _this$ = ecx
	push	ebp
	mov	ebp, esp
	sub	esp, 72					; 00000048H
	mov	DWORD PTR _this$[ebp], ecx
	mov	ecx, DWORD PTR _this$[ebp]
	call	??1?$_Hash@V?$_Hmap_traits@V?$basic_string@DU?$char_traits@D@std@@V?$allocator@D@2@@std@@PAVResults@Database@@V?$hash_compare@V?$basic_string@DU?$char_traits@D@std@@V?$allocator@D@2@@std@@U?$less@V?$basic_string@DU?$char_traits@D@std@@V?$allocator@D@2@@std@@@2@@stdext@@V?$allocator@U?$pair@$$CBV?$basic_string@DU?$char_traits@D@std@@V?$allocator@D@2@@std@@PAVResults@Database@@@std@@@2@$0A@@stdext@@@stdext@@QAE@XZ ; stdext::_Hash<stdext::_Hmap_traits<std::basic_string<char,std::char_traits<char>,std::allocator<char> >,Database::Results *,stdext::hash_compare<std::basic_string<char,std::char_traits<char>,std::allocator<char> >,std::less<std::basic_string<char,std::char_traits<char>,std::allocator<char> > > >,std::allocator<std::pair<std::basic_string<char,std::char_traits<char>,std::allocator<char> > const ,Database::Results *> >,0> >::~_Hash<stdext::_Hmap_traits<std::basic_string<char,std::char_traits<char>,std::allocator<char> >,Database::Results *,stdext::hash_compare<std::basic_string<char,std::char_traits<char>,std::allocator<char> >,std::less<std::basic_string<char,std::char_traits<char>,std::allocator<char> > > >,std::allocator<std::pair<std::basic_string<char,std::char_traits<char>,std::allocator<char> > const ,Database::Results *> >,0> >
	mov	esp, ebp
	pop	ebp
	ret	0
??1?$hash_map@V?$basic_string@DU?$char_traits@D@std@@V?$allocator@D@2@@std@@PAVResults@Database@@V?$hash_compare@V?$basic_string@DU?$char_traits@D@std@@V?$allocator@D@2@@std@@U?$less@V?$basic_string@DU?$char_traits@D@std@@V?$allocator@D@2@@std@@@2@@stdext@@V?$allocator@U?$pair@$$CBV?$basic_string@DU?$char_traits@D@std@@V?$allocator@D@2@@std@@PAVResults@Database@@@std@@@2@@stdext@@QAE@XZ ENDP ; stdext::hash_map<std::basic_string<char,std::char_traits<char>,std::allocator<char> >,Database::Results *,stdext::hash_compare<std::basic_string<char,std::char_traits<char>,std::allocator<char> >,std::less<std::basic_string<char,std::char_traits<char>,std::allocator<char> > > >,std::allocator<std::pair<std::basic_string<char,std::char_traits<char>,std::allocator<char> > const ,Database::Results *> > >::~hash_map<std::basic_string<char,std::char_traits<char>,std::allocator<char> >,Database::Results *,stdext::hash_compare<std::basic_string<char,std::char_traits<char>,std::allocator<char> >,std::less<std::basic_string<char,std::char_traits<char>,std::allocator<char> > > >,std::allocator<std::pair<std::basic_string<char,std::char_traits<char>,std::allocator<char> > const ,Database::Results *> > >
_TEXT	ENDS
PUBLIC	?_Init@?$_Hash@V?$_Hmap_traits@V?$basic_string@DU?$char_traits@D@std@@V?$allocator@D@2@@std@@PAVResults@Database@@V?$hash_compare@V?$basic_string@DU?$char_traits@D@std@@V?$allocator@D@2@@std@@U?$less@V?$basic_string@DU?$char_traits@D@std@@V?$allocator@D@2@@std@@@2@@stdext@@V?$allocator@U?$pair@$$CBV?$basic_string@DU?$char_traits@D@std@@V?$allocator@D@2@@std@@PAVResults@Database@@@std@@@2@$0A@@stdext@@@stdext@@IAEXI@Z ; stdext::_Hash<stdext::_Hmap_traits<std::basic_string<char,std::char_traits<char>,std::allocator<char> >,Database::Results *,stdext::hash_compare<std::basic_string<char,std::char_traits<char>,std::allocator<char> >,std::less<std::basic_string<char,std::char_traits<char>,std::allocator<char> > > >,std::allocator<std::pair<std::basic_string<char,std::char_traits<char>,std::allocator<char> > const ,Database::Results *> >,0> >::_Init
PUBLIC	?clear@?$list@U?$pair@$$CBV?$basic_string@DU?$char_traits@D@std@@V?$allocator@D@2@@std@@PAVResults@Database@@@std@@V?$allocator@U?$pair@$$CBV?$basic_string@DU?$char_traits@D@std@@V?$allocator@D@2@@std@@PAVResults@Database@@@std@@@2@@std@@QAEXXZ ; std::list<std::pair<std::basic_string<char,std::char_traits<char>,std::allocator<char> > const ,Database::Results *>,std::allocator<std::pair<std::basic_string<char,std::char_traits<char>,std::allocator<char> > const ,Database::Results *> > >::clear
; Function compile flags: /Odtp
;	COMDAT ?ClearResults@CvDatabaseUtility@@QAEXXZ
_TEXT	SEGMENT
tv134 = -180						; size = 4
_this$ = -176						; size = 4
$T219683 = -36						; size = 4
$T219646 = -32						; size = 4
$T219637 = -28						; size = 4
$T219629 = -24						; size = 4
$T219628 = -20						; size = 4
$T219627 = -16						; size = 4
$T219626 = -12						; size = 4
_pResults$216773 = -8					; size = 4
_it$216741 = -4						; size = 4
?ClearResults@CvDatabaseUtility@@QAEXXZ PROC		; CvDatabaseUtility::ClearResults, COMDAT
; _this$ = ecx

; 27   : {

	push	ebp
	mov	ebp, esp
	sub	esp, 180				; 000000b4H
	mov	DWORD PTR _this$[ebp], ecx

; 28   : 	for(ResultsMap::const_iterator it = m_storedResults.begin(); it != m_storedResults.end(); ++it)

	mov	eax, DWORD PTR _this$[ebp]
	mov	ecx, DWORD PTR [eax+8]
	mov	DWORD PTR $T219637[ebp], ecx
	mov	edx, DWORD PTR $T219637[ebp]
	mov	eax, DWORD PTR [edx]
	mov	DWORD PTR $T219646[ebp], eax
	mov	ecx, DWORD PTR $T219646[ebp]
	mov	DWORD PTR $T219626[ebp], ecx
	mov	edx, DWORD PTR $T219626[ebp]
	mov	DWORD PTR _it$216741[ebp], edx
	jmp	SHORT $LN3@ClearResul
$LN20@ClearResul:
	mov	eax, DWORD PTR _it$216741[ebp]
	mov	ecx, DWORD PTR [eax]
	mov	DWORD PTR _it$216741[ebp], ecx
$LN3@ClearResul:
	mov	edx, DWORD PTR _this$[ebp]
	mov	eax, DWORD PTR [edx+8]
	mov	DWORD PTR $T219683[ebp], eax
	mov	ecx, DWORD PTR $T219683[ebp]
	mov	DWORD PTR $T219627[ebp], ecx
	mov	edx, DWORD PTR _it$216741[ebp]
	xor	eax, eax
	cmp	edx, DWORD PTR $T219627[ebp]
	sete	al
	movzx	ecx, al
	neg	ecx
	sbb	ecx, ecx
	add	ecx, 1
	movzx	edx, cl
	test	edx, edx
	je	SHORT $LN1@ClearResul

; 29   : 	{
; 30   : 		Database::Results* pResults = it->second;

	mov	eax, DWORD PTR _it$216741[ebp]
	mov	ecx, DWORD PTR [eax+36]
	mov	DWORD PTR _pResults$216773[ebp], ecx

; 31   : 		delete pResults;

	mov	edx, DWORD PTR _pResults$216773[ebp]
	mov	DWORD PTR $T219629[ebp], edx
	mov	eax, DWORD PTR $T219629[ebp]
	mov	DWORD PTR $T219628[ebp], eax
	cmp	DWORD PTR $T219628[ebp], 0
	je	SHORT $LN6@ClearResul
	push	1
	mov	ecx, DWORD PTR $T219628[ebp]
	mov	edx, DWORD PTR [ecx]
	mov	ecx, DWORD PTR $T219628[ebp]
	mov	eax, DWORD PTR [edx]
	call	eax
	mov	DWORD PTR tv134[ebp], eax
	jmp	SHORT $LN7@ClearResul
$LN6@ClearResul:
	mov	DWORD PTR tv134[ebp], 0
$LN7@ClearResul:

; 32   : 	}

	jmp	SHORT $LN20@ClearResul
$LN1@ClearResul:

; 33   : 
; 34   : 	m_storedResults.clear();

	mov	ecx, DWORD PTR _this$[ebp]
	add	ecx, 4
	call	?clear@?$list@U?$pair@$$CBV?$basic_string@DU?$char_traits@D@std@@V?$allocator@D@2@@std@@PAVResults@Database@@@std@@V?$allocator@U?$pair@$$CBV?$basic_string@DU?$char_traits@D@std@@V?$allocator@D@2@@std@@PAVResults@Database@@@std@@@2@@std@@QAEXXZ ; std::list<std::pair<std::basic_string<char,std::char_traits<char>,std::allocator<char> > const ,Database::Results *>,std::allocator<std::pair<std::basic_string<char,std::char_traits<char>,std::allocator<char> > const ,Database::Results *> > >::clear
	push	8
	mov	ecx, DWORD PTR _this$[ebp]
	call	?_Init@?$_Hash@V?$_Hmap_traits@V?$basic_string@DU?$char_traits@D@std@@V?$allocator@D@2@@std@@PAVResults@Database@@V?$hash_compare@V?$basic_string@DU?$char_traits@D@std@@V?$allocator@D@2@@std@@U?$less@V?$basic_string@DU?$char_traits@D@std@@V?$allocator@D@2@@std@@@2@@stdext@@V?$allocator@U?$pair@$$CBV?$basic_string@DU?$char_traits@D@std@@V?$allocator@D@2@@std@@PAVResults@Database@@@std@@@2@$0A@@stdext@@@stdext@@IAEXI@Z ; stdext::_Hash<stdext::_Hmap_traits<std::basic_string<char,std::char_traits<char>,std::allocator<char> >,Database::Results *,stdext::hash_compare<std::basic_string<char,std::char_traits<char>,std::allocator<char> >,std::less<std::basic_string<char,std::char_traits<char>,std::allocator<char> > > >,std::allocator<std::pair<std::basic_string<char,std::char_traits<char>,std::allocator<char> > const ,Database::Results *> >,0> >::_Init

; 35   : }

	mov	esp, ebp
	pop	ebp
	ret	0
?ClearResults@CvDatabaseUtility@@QAEXXZ ENDP		; CvDatabaseUtility::ClearResults
_TEXT	ENDS
PUBLIC	?erase@?$_Hash@V?$_Hmap_traits@V?$basic_string@DU?$char_traits@D@std@@V?$allocator@D@2@@std@@PAVResults@Database@@V?$hash_compare@V?$basic_string@DU?$char_traits@D@std@@V?$allocator@D@2@@std@@U?$less@V?$basic_string@DU?$char_traits@D@std@@V?$allocator@D@2@@std@@@2@@stdext@@V?$allocator@U?$pair@$$CBV?$basic_string@DU?$char_traits@D@std@@V?$allocator@D@2@@std@@PAVResults@Database@@@std@@@2@$0A@@stdext@@@stdext@@QAEIABV?$basic_string@DU?$char_traits@D@std@@V?$allocator@D@2@@std@@@Z ; stdext::_Hash<stdext::_Hmap_traits<std::basic_string<char,std::char_traits<char>,std::allocator<char> >,Database::Results *,stdext::hash_compare<std::basic_string<char,std::char_traits<char>,std::allocator<char> >,std::less<std::basic_string<char,std::char_traits<char>,std::allocator<char> > > >,std::allocator<std::pair<std::basic_string<char,std::char_traits<char>,std::allocator<char> > const ,Database::Results *> >,0> >::erase
PUBLIC	?GetResults@CvDatabaseUtility@@QAEPAVResults@Database@@ABV?$basic_string@DU?$char_traits@D@std@@V?$allocator@D@2@@std@@@Z ; CvDatabaseUtility::GetResults
PUBLIC	?ClearResults@CvDatabaseUtility@@QAEXABV?$basic_string@DU?$char_traits@D@std@@V?$allocator@D@2@@std@@@Z ; CvDatabaseUtility::ClearResults
; Function compile flags: /Odtp
;	COMDAT ?ClearResults@CvDatabaseUtility@@QAEXABV?$basic_string@DU?$char_traits@D@std@@V?$allocator@D@2@@std@@@Z
_TEXT	SEGMENT
tv74 = -188						; size = 4
_this$ = -184						; size = 4
$T220016 = -12						; size = 4
$T220015 = -8						; size = 4
_pResults$ = -4						; size = 4
_strKey$ = 8						; size = 4
?ClearResults@CvDatabaseUtility@@QAEXABV?$basic_string@DU?$char_traits@D@std@@V?$allocator@D@2@@std@@@Z PROC ; CvDatabaseUtility::ClearResults, COMDAT
; _this$ = ecx

; 38   : {

	push	ebp
	mov	ebp, esp
	sub	esp, 188				; 000000bcH
	mov	DWORD PTR _this$[ebp], ecx

; 39   : 	Database::Results* pResults = GetResults(strKey);

	mov	eax, DWORD PTR _strKey$[ebp]
	push	eax
	mov	ecx, DWORD PTR _this$[ebp]
	call	?GetResults@CvDatabaseUtility@@QAEPAVResults@Database@@ABV?$basic_string@DU?$char_traits@D@std@@V?$allocator@D@2@@std@@@Z ; CvDatabaseUtility::GetResults
	mov	DWORD PTR _pResults$[ebp], eax

; 40   : 	if(pResults)

	cmp	DWORD PTR _pResults$[ebp], 0
	je	SHORT $LN2@ClearResul@2

; 41   : 	{
; 42   : 		delete pResults;

	mov	ecx, DWORD PTR _pResults$[ebp]
	mov	DWORD PTR $T220016[ebp], ecx
	mov	edx, DWORD PTR $T220016[ebp]
	mov	DWORD PTR $T220015[ebp], edx
	cmp	DWORD PTR $T220015[ebp], 0
	je	SHORT $LN4@ClearResul@2
	push	1
	mov	eax, DWORD PTR $T220015[ebp]
	mov	edx, DWORD PTR [eax]
	mov	ecx, DWORD PTR $T220015[ebp]
	mov	eax, DWORD PTR [edx]
	call	eax
	mov	DWORD PTR tv74[ebp], eax
	jmp	SHORT $LN5@ClearResul@2
$LN4@ClearResul@2:
	mov	DWORD PTR tv74[ebp], 0
$LN5@ClearResul@2:

; 43   : 		m_storedResults.erase(strKey);

	mov	ecx, DWORD PTR _strKey$[ebp]
	push	ecx
	mov	ecx, DWORD PTR _this$[ebp]
	call	?erase@?$_Hash@V?$_Hmap_traits@V?$basic_string@DU?$char_traits@D@std@@V?$allocator@D@2@@std@@PAVResults@Database@@V?$hash_compare@V?$basic_string@DU?$char_traits@D@std@@V?$allocator@D@2@@std@@U?$less@V?$basic_string@DU?$char_traits@D@std@@V?$allocator@D@2@@std@@@2@@stdext@@V?$allocator@U?$pair@$$CBV?$basic_string@DU?$char_traits@D@std@@V?$allocator@D@2@@std@@PAVResults@Database@@@std@@@2@$0A@@stdext@@@stdext@@QAEIABV?$basic_string@DU?$char_traits@D@std@@V?$allocator@D@2@@std@@@Z ; stdext::_Hash<stdext::_Hmap_traits<std::basic_string<char,std::char_traits<char>,std::allocator<char> >,Database::Results *,stdext::hash_compare<std::basic_string<char,std::char_traits<char>,std::allocator<char> >,std::less<std::basic_string<char,std::char_traits<char>,std::allocator<char> > > >,std::allocator<std::pair<std::basic_string<char,std::char_traits<char>,std::allocator<char> > const ,Database::Results *> >,0> >::erase
$LN2@ClearResul@2:

; 44   : 	}
; 45   : }

	mov	esp, ebp
	pop	ebp
	ret	4
?ClearResults@CvDatabaseUtility@@QAEXABV?$basic_string@DU?$char_traits@D@std@@V?$allocator@D@2@@std@@@Z ENDP ; CvDatabaseUtility::ClearResults
_TEXT	ENDS
PUBLIC	?lower_bound@?$_Hash@V?$_Hmap_traits@V?$basic_string@DU?$char_traits@D@std@@V?$allocator@D@2@@std@@PAVResults@Database@@V?$hash_compare@V?$basic_string@DU?$char_traits@D@std@@V?$allocator@D@2@@std@@U?$less@V?$basic_string@DU?$char_traits@D@std@@V?$allocator@D@2@@std@@@2@@stdext@@V?$allocator@U?$pair@$$CBV?$basic_string@DU?$char_traits@D@std@@V?$allocator@D@2@@std@@PAVResults@Database@@@std@@@2@$0A@@stdext@@@stdext@@QAE?AV?$_Iterator@$0A@@?$list@U?$pair@$$CBV?$basic_string@DU?$char_traits@D@std@@V?$allocator@D@2@@std@@PAVResults@Database@@@std@@V?$allocator@U?$pair@$$CBV?$basic_string@DU?$char_traits@D@std@@V?$allocator@D@2@@std@@PAVResults@Database@@@std@@@2@@std@@ABV?$basic_string@DU?$char_traits@D@std@@V?$allocator@D@2@@5@@Z ; stdext::_Hash<stdext::_Hmap_traits<std::basic_string<char,std::char_traits<char>,std::allocator<char> >,Database::Results *,stdext::hash_compare<std::basic_string<char,std::char_traits<char>,std::allocator<char> >,std::less<std::basic_string<char,std::char_traits<char>,std::allocator<char> > > >,std::allocator<std::pair<std::basic_string<char,std::char_traits<char>,std::allocator<char> > const ,Database::Results *> >,0> >::lower_bound
EXTRN	__imp_?Reset@Results@Database@@QAE_NXZ:PROC
; Function compile flags: /Odtp
;	COMDAT ?GetResults@CvDatabaseUtility@@QAEPAVResults@Database@@ABV?$basic_string@DU?$char_traits@D@std@@V?$allocator@D@2@@std@@@Z
_TEXT	SEGMENT
_this$ = -64						; size = 4
$T220679 = -60						; size = 4
$T220513 = -12						; size = 4
$T220512 = -8						; size = 4
_it$ = -4						; size = 4
_strKey$ = 8						; size = 4
?GetResults@CvDatabaseUtility@@QAEPAVResults@Database@@ABV?$basic_string@DU?$char_traits@D@std@@V?$allocator@D@2@@std@@@Z PROC ; CvDatabaseUtility::GetResults, COMDAT
; _this$ = ecx

; 48   : {

	push	ebp
	mov	ebp, esp
	sub	esp, 64					; 00000040H
	mov	DWORD PTR _this$[ebp], ecx

; 49   : 	ResultsMap::const_iterator it = m_storedResults.find(strKey);

	mov	eax, DWORD PTR _strKey$[ebp]
	push	eax
	lea	ecx, DWORD PTR $T220512[ebp]
	push	ecx
	mov	ecx, DWORD PTR _this$[ebp]
	call	?lower_bound@?$_Hash@V?$_Hmap_traits@V?$basic_string@DU?$char_traits@D@std@@V?$allocator@D@2@@std@@PAVResults@Database@@V?$hash_compare@V?$basic_string@DU?$char_traits@D@std@@V?$allocator@D@2@@std@@U?$less@V?$basic_string@DU?$char_traits@D@std@@V?$allocator@D@2@@std@@@2@@stdext@@V?$allocator@U?$pair@$$CBV?$basic_string@DU?$char_traits@D@std@@V?$allocator@D@2@@std@@PAVResults@Database@@@std@@@2@$0A@@stdext@@@stdext@@QAE?AV?$_Iterator@$0A@@?$list@U?$pair@$$CBV?$basic_string@DU?$char_traits@D@std@@V?$allocator@D@2@@std@@PAVResults@Database@@@std@@V?$allocator@U?$pair@$$CBV?$basic_string@DU?$char_traits@D@std@@V?$allocator@D@2@@std@@PAVResults@Database@@@std@@@2@@std@@ABV?$basic_string@DU?$char_traits@D@std@@V?$allocator@D@2@@5@@Z ; stdext::_Hash<stdext::_Hmap_traits<std::basic_string<char,std::char_traits<char>,std::allocator<char> >,Database::Results *,stdext::hash_compare<std::basic_string<char,std::char_traits<char>,std::allocator<char> >,std::less<std::basic_string<char,std::char_traits<char>,std::allocator<char> > > >,std::allocator<std::pair<std::basic_string<char,std::char_traits<char>,std::allocator<char> > const ,Database::Results *> >,0> >::lower_bound
	mov	edx, DWORD PTR $T220512[ebp]
	mov	DWORD PTR _it$[ebp], edx

; 50   : 	if(it != m_storedResults.end())

	mov	eax, DWORD PTR _this$[ebp]
	mov	ecx, DWORD PTR [eax+8]
	mov	DWORD PTR $T220679[ebp], ecx
	mov	edx, DWORD PTR $T220679[ebp]
	mov	DWORD PTR $T220513[ebp], edx
	mov	eax, DWORD PTR _it$[ebp]
	xor	ecx, ecx
	cmp	eax, DWORD PTR $T220513[ebp]
	sete	cl
	movzx	edx, cl
	neg	edx
	sbb	edx, edx
	add	edx, 1
	movzx	eax, dl
	test	eax, eax
	je	SHORT $LN1@GetResults

; 51   : 	{
; 52   : 		it->second->Reset();

	mov	ecx, DWORD PTR _it$[ebp]
	mov	ecx, DWORD PTR [ecx+36]
	call	DWORD PTR __imp_?Reset@Results@Database@@QAE_NXZ

; 53   : 		return it->second;

	mov	edx, DWORD PTR _it$[ebp]
	mov	eax, DWORD PTR [edx+36]
	jmp	SHORT $LN2@GetResults
$LN1@GetResults:

; 54   : 	}
; 55   : 
; 56   : 	return NULL;

	xor	eax, eax
$LN2@GetResults:

; 57   : }

	mov	esp, ebp
	pop	ebp
	ret	4
?GetResults@CvDatabaseUtility@@QAEPAVResults@Database@@ABV?$basic_string@DU?$char_traits@D@std@@V?$allocator@D@2@@std@@@Z ENDP ; CvDatabaseUtility::GetResults
_TEXT	ENDS
PUBLIC	??A?$hash_map@V?$basic_string@DU?$char_traits@D@std@@V?$allocator@D@2@@std@@PAVResults@Database@@V?$hash_compare@V?$basic_string@DU?$char_traits@D@std@@V?$allocator@D@2@@std@@U?$less@V?$basic_string@DU?$char_traits@D@std@@V?$allocator@D@2@@std@@@2@@stdext@@V?$allocator@U?$pair@$$CBV?$basic_string@DU?$char_traits@D@std@@V?$allocator@D@2@@std@@PAVResults@Database@@@std@@@2@@stdext@@QAEAAPAVResults@Database@@ABV?$basic_string@DU?$char_traits@D@std@@V?$allocator@D@2@@std@@@Z ; stdext::hash_map<std::basic_string<char,std::char_traits<char>,std::allocator<char> >,Database::Results *,stdext::hash_compare<std::basic_string<char,std::char_traits<char>,std::allocator<char> >,std::less<std::basic_string<char,std::char_traits<char>,std::allocator<char> > > >,std::allocator<std::pair<std::basic_string<char,std::char_traits<char>,std::allocator<char> > const ,Database::Results *> > >::operator[]
PUBLIC	?PrepareResults@CvDatabaseUtility@@QAEPAVResults@Database@@ABV?$basic_string@DU?$char_traits@D@std@@V?$allocator@D@2@@std@@PBD@Z ; CvDatabaseUtility::PrepareResults
EXTRN	__imp_??3Results@Database@@SAXPAX@Z:PROC
EXTRN	__imp_?Execute@Connection@Database@@QBE_NAAVResults@2@PBDH@Z:PROC
EXTRN	?gGlobals@@3VCvGlobals@@A:BYTE			; gGlobals
EXTRN	__imp_??0Results@Database@@QAE@PBD@Z:PROC
EXTRN	__imp_??2Results@Database@@SAPAXI@Z:PROC
;	COMDAT xdata$x
; File c:\program files (x86)\microsoft visual studio 9.0\vc\include\list
xdata$x	SEGMENT
__unwindtable$?PrepareResults@CvDatabaseUtility@@QAEPAVResults@Database@@ABV?$basic_string@DU?$char_traits@D@std@@V?$allocator@D@2@@std@@PBD@Z DD 0ffffffffH
	DD	FLAT:__unwindfunclet$?PrepareResults@CvDatabaseUtility@@QAEPAVResults@Database@@ABV?$basic_string@DU?$char_traits@D@std@@V?$allocator@D@2@@std@@PBD@Z$0
__ehfuncinfo$?PrepareResults@CvDatabaseUtility@@QAEPAVResults@Database@@ABV?$basic_string@DU?$char_traits@D@std@@V?$allocator@D@2@@std@@PBD@Z DD 019930522H
	DD	01H
	DD	FLAT:__unwindtable$?PrepareResults@CvDatabaseUtility@@QAEPAVResults@Database@@ABV?$basic_string@DU?$char_traits@D@std@@V?$allocator@D@2@@std@@PBD@Z
	DD	2 DUP(00H)
	DD	2 DUP(00H)
	DD	00H
	DD	01H
; Function compile flags: /Odtp
; File d:\sources\lekmod_git\checkout\lekmod_dll\cvgamecoredll_expansion2\cvdatabaseutility.cpp
xdata$x	ENDS
;	COMDAT ?PrepareResults@CvDatabaseUtility@@QAEPAVResults@Database@@ABV?$basic_string@DU?$char_traits@D@std@@V?$allocator@D@2@@std@@PBD@Z
_TEXT	SEGMENT
tv133 = -180						; size = 4
tv91 = -176						; size = 4
tv72 = -172						; size = 4
_this$ = -168						; size = 4
$T220750 = -48						; size = 4
$T220743 = -44						; size = 4
$T220742 = -40						; size = 4
$T220739 = -36						; size = 4
$T220738 = -32						; size = 4
$T220735 = -28						; size = 4
$T220734 = -24						; size = 4
_pOldResults$216831 = -20				; size = 4
_pResults$ = -16					; size = 4
__$EHRec$ = -12						; size = 12
_strKey$ = 8						; size = 4
_szStmt$ = 12						; size = 4
?PrepareResults@CvDatabaseUtility@@QAEPAVResults@Database@@ABV?$basic_string@DU?$char_traits@D@std@@V?$allocator@D@2@@std@@PBD@Z PROC ; CvDatabaseUtility::PrepareResults, COMDAT
; _this$ = ecx

; 60   : {

	push	ebp
	mov	ebp, esp
	push	-1
	push	__ehhandler$?PrepareResults@CvDatabaseUtility@@QAEPAVResults@Database@@ABV?$basic_string@DU?$char_traits@D@std@@V?$allocator@D@2@@std@@PBD@Z
	mov	eax, DWORD PTR fs:0
	push	eax
	sub	esp, 168				; 000000a8H
	mov	eax, DWORD PTR ___security_cookie
	xor	eax, ebp
	push	eax
	lea	eax, DWORD PTR __$EHRec$[ebp]
	mov	DWORD PTR fs:0, eax
	mov	DWORD PTR _this$[ebp], ecx

; 61   : 	Database::Results* pResults = new Database::Results();

	push	64					; 00000040H
	call	DWORD PTR __imp_??2Results@Database@@SAPAXI@Z
	add	esp, 4
	mov	DWORD PTR $T220735[ebp], eax
	mov	DWORD PTR __$EHRec$[ebp+8], 0
	cmp	DWORD PTR $T220735[ebp], 0
	je	SHORT $LN6@PrepareRes
	push	0
	mov	ecx, DWORD PTR $T220735[ebp]
	call	DWORD PTR __imp_??0Results@Database@@QAE@PBD@Z
	mov	DWORD PTR tv72[ebp], eax
	jmp	SHORT $LN7@PrepareRes
$LN6@PrepareRes:
	mov	DWORD PTR tv72[ebp], 0
$LN7@PrepareRes:
	mov	eax, DWORD PTR tv72[ebp]
	mov	DWORD PTR $T220734[ebp], eax
	mov	DWORD PTR __$EHRec$[ebp+8], -1
	mov	ecx, DWORD PTR $T220734[ebp]
	mov	DWORD PTR _pResults$[ebp], ecx

; 62   : 
; 63   : 	if(DB.Execute(*pResults, szStmt))

	mov	edx, DWORD PTR ?gGlobals@@3VCvGlobals@@A+912
	mov	DWORD PTR $T220750[ebp], edx
	push	-1
	mov	eax, DWORD PTR _szStmt$[ebp]
	push	eax
	mov	ecx, DWORD PTR _pResults$[ebp]
	push	ecx
	mov	ecx, DWORD PTR $T220750[ebp]
	call	DWORD PTR __imp_?Execute@Connection@Database@@QBE_NAAVResults@2@PBDH@Z
	movzx	edx, al
	test	edx, edx
	je	SHORT $LN3@PrepareRes

; 64   : 	{
; 65   : 		Database::Results* pOldResults = GetResults(strKey);

	mov	eax, DWORD PTR _strKey$[ebp]
	push	eax
	mov	ecx, DWORD PTR _this$[ebp]
	call	?GetResults@CvDatabaseUtility@@QAEPAVResults@Database@@ABV?$basic_string@DU?$char_traits@D@std@@V?$allocator@D@2@@std@@@Z ; CvDatabaseUtility::GetResults
	mov	DWORD PTR _pOldResults$216831[ebp], eax

; 66   : #ifndef AUI_WARNING_FIXES
; 67   : 		if(pOldResults)

	cmp	DWORD PTR _pOldResults$216831[ebp], 0
	je	SHORT $LN2@PrepareRes

; 68   : #endif
; 69   : 			delete pOldResults;

	mov	ecx, DWORD PTR _pOldResults$216831[ebp]
	mov	DWORD PTR $T220739[ebp], ecx
	mov	edx, DWORD PTR $T220739[ebp]
	mov	DWORD PTR $T220738[ebp], edx
	cmp	DWORD PTR $T220738[ebp], 0
	je	SHORT $LN8@PrepareRes
	push	1
	mov	eax, DWORD PTR $T220738[ebp]
	mov	edx, DWORD PTR [eax]
	mov	ecx, DWORD PTR $T220738[ebp]
	mov	eax, DWORD PTR [edx]
	call	eax
	mov	DWORD PTR tv91[ebp], eax
	jmp	SHORT $LN2@PrepareRes
$LN8@PrepareRes:
	mov	DWORD PTR tv91[ebp], 0
$LN2@PrepareRes:

; 70   : 
; 71   : 		m_storedResults[strKey] = pResults;

	mov	ecx, DWORD PTR _strKey$[ebp]
	push	ecx
	mov	ecx, DWORD PTR _this$[ebp]
	call	??A?$hash_map@V?$basic_string@DU?$char_traits@D@std@@V?$allocator@D@2@@std@@PAVResults@Database@@V?$hash_compare@V?$basic_string@DU?$char_traits@D@std@@V?$allocator@D@2@@std@@U?$less@V?$basic_string@DU?$char_traits@D@std@@V?$allocator@D@2@@std@@@2@@stdext@@V?$allocator@U?$pair@$$CBV?$basic_string@DU?$char_traits@D@std@@V?$allocator@D@2@@std@@PAVResults@Database@@@std@@@2@@stdext@@QAEAAPAVResults@Database@@ABV?$basic_string@DU?$char_traits@D@std@@V?$allocator@D@2@@std@@@Z ; stdext::hash_map<std::basic_string<char,std::char_traits<char>,std::allocator<char> >,Database::Results *,stdext::hash_compare<std::basic_string<char,std::char_traits<char>,std::allocator<char> >,std::less<std::basic_string<char,std::char_traits<char>,std::allocator<char> > > >,std::allocator<std::pair<std::basic_string<char,std::char_traits<char>,std::allocator<char> > const ,Database::Results *> > >::operator[]
	mov	edx, DWORD PTR _pResults$[ebp]
	mov	DWORD PTR [eax], edx

; 72   : 		return pResults;

	mov	eax, DWORD PTR _pResults$[ebp]
	jmp	SHORT $LN4@PrepareRes

; 73   : 	}
; 74   : 	else

	jmp	SHORT $LN1@PrepareRes
$LN3@PrepareRes:

; 75   : 	{
; 76   : 		delete pResults;

	mov	eax, DWORD PTR _pResults$[ebp]
	mov	DWORD PTR $T220743[ebp], eax
	mov	ecx, DWORD PTR $T220743[ebp]
	mov	DWORD PTR $T220742[ebp], ecx
	cmp	DWORD PTR $T220742[ebp], 0
	je	SHORT $LN10@PrepareRes
	push	1
	mov	edx, DWORD PTR $T220742[ebp]
	mov	eax, DWORD PTR [edx]
	mov	ecx, DWORD PTR $T220742[ebp]
	mov	edx, DWORD PTR [eax]
	call	edx
	mov	DWORD PTR tv133[ebp], eax
	jmp	SHORT $LN1@PrepareRes
$LN10@PrepareRes:
	mov	DWORD PTR tv133[ebp], 0
$LN1@PrepareRes:

; 77   : 	}
; 78   : 
; 79   : 	return NULL;

	xor	eax, eax
$LN4@PrepareRes:

; 80   : }

	mov	ecx, DWORD PTR __$EHRec$[ebp]
	mov	DWORD PTR fs:0, ecx
	pop	ecx
	mov	esp, ebp
	pop	ebp
	ret	8
_TEXT	ENDS
;	COMDAT text$x
text$x	SEGMENT
__unwindfunclet$?PrepareResults@CvDatabaseUtility@@QAEPAVResults@Database@@ABV?$basic_string@DU?$char_traits@D@std@@V?$allocator@D@2@@std@@PBD@Z$0:
	mov	eax, DWORD PTR $T220735[ebp]
	push	eax
	call	DWORD PTR __imp_??3Results@Database@@SAXPAX@Z
	pop	ecx
	ret	0
__ehhandler$?PrepareResults@CvDatabaseUtility@@QAEPAVResults@Database@@ABV?$basic_string@DU?$char_traits@D@std@@V?$allocator@D@2@@std@@PBD@Z:
	mov	edx, DWORD PTR [esp+8]
	lea	eax, DWORD PTR [edx+12]
	mov	ecx, DWORD PTR [edx-172]
	xor	ecx, eax
	call	@__security_check_cookie@4
	mov	eax, OFFSET __ehfuncinfo$?PrepareResults@CvDatabaseUtility@@QAEPAVResults@Database@@ABV?$basic_string@DU?$char_traits@D@std@@V?$allocator@D@2@@std@@PBD@Z
	jmp	___CxxFrameHandler3
text$x	ENDS
?PrepareResults@CvDatabaseUtility@@QAEPAVResults@Database@@ABV?$basic_string@DU?$char_traits@D@std@@V?$allocator@D@2@@std@@PBD@Z ENDP ; CvDatabaseUtility::PrepareResults
PUBLIC	?MaxRows@CvDatabaseUtility@@QAEHPBD@Z		; CvDatabaseUtility::MaxRows
PUBLIC	?Initialize2DArray@CvDatabaseUtility@@QAE_NAAPAPAHPBD1H@Z ; CvDatabaseUtility::Initialize2DArray
EXTRN	??_U@YAPAXI@Z:PROC				; operator new[]
; Function compile flags: /Odtp
;	COMDAT ?Initialize2DArray@CvDatabaseUtility@@QAE_NAAPAPAHPBD1H@Z
_TEXT	SEGMENT
_this$ = -36						; size = 4
$T221012 = -32						; size = 4
_j$216866 = -28						; size = 4
_i$216862 = -24						; size = 4
_i$216858 = -20						; size = 4
_iNumBytes$ = -16					; size = 4
_iCount2$ = -12						; size = 4
_iCount1$ = -8						; size = 4
_pData$ = -4						; size = 4
_ppArray$ = 8						; size = 4
_szTable1Name$ = 12					; size = 4
_szTable2Name$ = 16					; size = 4
_iDefault$ = 20						; size = 4
?Initialize2DArray@CvDatabaseUtility@@QAE_NAAPAPAHPBD1H@Z PROC ; CvDatabaseUtility::Initialize2DArray, COMDAT
; _this$ = ecx

; 83   : {

	push	ebp
	mov	ebp, esp
	sub	esp, 36					; 00000024H
	mov	DWORD PTR _this$[ebp], ecx

; 84   : #ifdef AUI_DATABASE_UTILITY_PROPER_2D_ALLOCATION_AND_DESTRUCTION
; 85   : 	const size_t iCount1 = MaxRows(szTable1Name);
; 86   : 	const size_t iCount2 = MaxRows(szTable2Name);
; 87   : 
; 88   : 	return Initialize2DArray(ppArray, iCount1, iCount2, iDefault);
; 89   : #else
; 90   : 	const int iCount1 = MaxRows(szTable1Name);

	mov	eax, DWORD PTR _szTable1Name$[ebp]
	push	eax
	mov	ecx, DWORD PTR _this$[ebp]
	call	?MaxRows@CvDatabaseUtility@@QAEHPBD@Z	; CvDatabaseUtility::MaxRows
	mov	DWORD PTR _iCount1$[ebp], eax

; 91   : 	const int iCount2 = MaxRows(szTable2Name);

	mov	ecx, DWORD PTR _szTable2Name$[ebp]
	push	ecx
	mov	ecx, DWORD PTR _this$[ebp]
	call	?MaxRows@CvDatabaseUtility@@QAEHPBD@Z	; CvDatabaseUtility::MaxRows
	mov	DWORD PTR _iCount2$[ebp], eax

; 92   : 
; 93   : 	if(iCount1 <= 0 || iCount2 <= 0)

	cmp	DWORD PTR _iCount1$[ebp], 0
	jle	SHORT $LN10@Initialize
	cmp	DWORD PTR _iCount2$[ebp], 0
	jg	SHORT $LN11@Initialize
$LN10@Initialize:

; 94   : 	{
; 95   : 		ppArray = NULL;

	mov	edx, DWORD PTR _ppArray$[ebp]
	mov	DWORD PTR [edx], 0

; 96   : 		CvAssertMsg(false, "Cannot initialize array to 0 size.");
; 97   : 		return false;

	xor	al, al
	jmp	$LN12@Initialize
$LN11@Initialize:

; 98   : 	}
; 99   : 
; 100  : 	unsigned int iNumBytes = iCount1 * sizeof(int*) + iCount1 * iCount2 * sizeof(int);

	mov	eax, DWORD PTR _iCount1$[ebp]
	imul	eax, DWORD PTR _iCount2$[ebp]
	shl	eax, 2
	mov	ecx, DWORD PTR _iCount1$[ebp]
	lea	edx, DWORD PTR [eax+ecx*4]
	mov	DWORD PTR _iNumBytes$[ebp], edx

; 101  : 	unsigned char* pData = FNEW(unsigned char[iNumBytes], c_eCiv5GameplayDLL, 0);

	mov	eax, DWORD PTR _iNumBytes$[ebp]
	push	eax
	call	??_U@YAPAXI@Z				; operator new[]
	add	esp, 4
	mov	DWORD PTR $T221012[ebp], eax
	mov	ecx, DWORD PTR $T221012[ebp]
	mov	DWORD PTR _pData$[ebp], ecx

; 102  : 	ppArray = (int**)pData;

	mov	edx, DWORD PTR _ppArray$[ebp]
	mov	eax, DWORD PTR _pData$[ebp]
	mov	DWORD PTR [edx], eax

; 103  : 	ppArray[0] = (int*)(pData + iCount1 * sizeof(int*));

	mov	ecx, DWORD PTR _iCount1$[ebp]
	mov	edx, DWORD PTR _pData$[ebp]
	lea	eax, DWORD PTR [edx+ecx*4]
	mov	ecx, DWORD PTR _ppArray$[ebp]
	mov	edx, DWORD PTR [ecx]
	mov	DWORD PTR [edx], eax

; 104  : 	for(int i = 0; i < iCount2; ++i)

	mov	DWORD PTR _i$216858[ebp], 0
	jmp	SHORT $LN9@Initialize
$LN8@Initialize:
	mov	eax, DWORD PTR _i$216858[ebp]
	add	eax, 1
	mov	DWORD PTR _i$216858[ebp], eax
$LN9@Initialize:
	mov	ecx, DWORD PTR _i$216858[ebp]
	cmp	ecx, DWORD PTR _iCount2$[ebp]
	jge	SHORT $LN7@Initialize

; 105  : 	{
; 106  : 		ppArray[0][i] = iDefault;

	mov	edx, DWORD PTR _ppArray$[ebp]
	mov	eax, DWORD PTR [edx]
	mov	ecx, DWORD PTR [eax]
	mov	edx, DWORD PTR _i$216858[ebp]
	mov	eax, DWORD PTR _iDefault$[ebp]
	mov	DWORD PTR [ecx+edx*4], eax

; 107  : 	}

	jmp	SHORT $LN8@Initialize
$LN7@Initialize:

; 108  : 	for(int i = 1; i < iCount1; i++)

	mov	DWORD PTR _i$216862[ebp], 1
	jmp	SHORT $LN6@Initialize
$LN5@Initialize:
	mov	ecx, DWORD PTR _i$216862[ebp]
	add	ecx, 1
	mov	DWORD PTR _i$216862[ebp], ecx
$LN6@Initialize:
	mov	edx, DWORD PTR _i$216862[ebp]
	cmp	edx, DWORD PTR _iCount1$[ebp]
	jge	SHORT $LN4@Initialize

; 109  : 	{
; 110  : 		ppArray[i] = ppArray[i-1] + iCount2;

	mov	eax, DWORD PTR _ppArray$[ebp]
	mov	ecx, DWORD PTR [eax]
	mov	edx, DWORD PTR _i$216862[ebp]
	mov	eax, DWORD PTR [ecx+edx*4-4]
	mov	ecx, DWORD PTR _iCount2$[ebp]
	lea	edx, DWORD PTR [eax+ecx*4]
	mov	eax, DWORD PTR _ppArray$[ebp]
	mov	ecx, DWORD PTR [eax]
	mov	eax, DWORD PTR _i$216862[ebp]
	mov	DWORD PTR [ecx+eax*4], edx

; 111  : 		for(int j = 0; j < iCount2; ++j)

	mov	DWORD PTR _j$216866[ebp], 0
	jmp	SHORT $LN3@Initialize
$LN2@Initialize:
	mov	ecx, DWORD PTR _j$216866[ebp]
	add	ecx, 1
	mov	DWORD PTR _j$216866[ebp], ecx
$LN3@Initialize:
	mov	edx, DWORD PTR _j$216866[ebp]
	cmp	edx, DWORD PTR _iCount2$[ebp]
	jge	SHORT $LN1@Initialize

; 112  : 		{
; 113  : 			ppArray[i][j] = iDefault;

	mov	eax, DWORD PTR _ppArray$[ebp]
	mov	ecx, DWORD PTR [eax]
	mov	edx, DWORD PTR _i$216862[ebp]
	mov	eax, DWORD PTR [ecx+edx*4]
	mov	ecx, DWORD PTR _j$216866[ebp]
	mov	edx, DWORD PTR _iDefault$[ebp]
	mov	DWORD PTR [eax+ecx*4], edx

; 114  : 		}

	jmp	SHORT $LN2@Initialize
$LN1@Initialize:

; 115  : 	}

	jmp	SHORT $LN5@Initialize
$LN4@Initialize:

; 116  : 
; 117  : 	return true;

	mov	al, 1
$LN12@Initialize:

; 118  : #endif
; 119  : }

	mov	esp, ebp
	pop	ebp
	ret	16					; 00000010H
?Initialize2DArray@CvDatabaseUtility@@QAE_NAAPAPAHPBD1H@Z ENDP ; CvDatabaseUtility::Initialize2DArray
_TEXT	ENDS
PUBLIC	?Initialize2DArray@CvDatabaseUtility@@QAEXAAPAPAHIIH@Z ; CvDatabaseUtility::Initialize2DArray
; Function compile flags: /Odtp
;	COMDAT ?Initialize2DArray@CvDatabaseUtility@@QAEXAAPAPAHIIH@Z
_TEXT	SEGMENT
_this$ = -28						; size = 4
$T221015 = -24						; size = 4
_j$216896 = -20						; size = 4
_i$216892 = -16						; size = 4
_i$216888 = -12						; size = 4
_iNumBytes$ = -8					; size = 4
_pData$ = -4						; size = 4
_ppArray$ = 8						; size = 4
_iCount1$ = 12						; size = 4
_iCount2$ = 16						; size = 4
_iDefault$ = 20						; size = 4
?Initialize2DArray@CvDatabaseUtility@@QAEXAAPAPAHIIH@Z PROC ; CvDatabaseUtility::Initialize2DArray, COMDAT
; _this$ = ecx

; 126  : {

	push	ebp
	mov	ebp, esp
	sub	esp, 28					; 0000001cH
	mov	DWORD PTR _this$[ebp], ecx

; 127  : 	if(iCount1 <= 0 || iCount2 <= 0)

	cmp	DWORD PTR _iCount1$[ebp], 0
	jbe	SHORT $LN10@Initialize@2
	cmp	DWORD PTR _iCount2$[ebp], 0
	ja	SHORT $LN11@Initialize@2
$LN10@Initialize@2:

; 128  : 	{
; 129  : 		CvAssertMsg(false, "Cannot initialize array to 0 size.");
; 130  : #ifdef AUI_DATABASE_UTILITY_PROPER_2D_ALLOCATION_AND_DESTRUCTION
; 131  : 		return false;
; 132  : 	}
; 133  : 
; 134  : 	ppArray = FNEW(int*[iCount1], c_eCiv5GameplayDLL, 0);
; 135  : 	for (size_t i = 0; i < iCount1; i++)
; 136  : 	{
; 137  : 		ppArray[i] = FNEW(int[iCount2], c_eCiv5GameplayDLL, 0);
; 138  : 	}
; 139  : 	for (size_t i = 0; i < iCount1; i++)
; 140  : 	{
; 141  : 		for (size_t j = 0; j < iCount2; j++)
; 142  : 		{
; 143  : 			ppArray[i][j] = iDefault;
; 144  : 		}
; 145  : 	}
; 146  : 
; 147  : 	return true;
; 148  : #else
; 149  : 		return;

	jmp	$LN12@Initialize@2
$LN11@Initialize@2:

; 150  : 	}
; 151  : 
; 152  : 	unsigned int iNumBytes = iCount1 * sizeof(int*) + iCount1 * iCount2 * sizeof(int);

	mov	eax, DWORD PTR _iCount1$[ebp]
	imul	eax, DWORD PTR _iCount2$[ebp]
	shl	eax, 2
	mov	ecx, DWORD PTR _iCount1$[ebp]
	lea	edx, DWORD PTR [eax+ecx*4]
	mov	DWORD PTR _iNumBytes$[ebp], edx

; 153  : 	unsigned char* pData = FNEW(unsigned char[iNumBytes], c_eCiv5GameplayDLL, 0);

	mov	eax, DWORD PTR _iNumBytes$[ebp]
	push	eax
	call	??_U@YAPAXI@Z				; operator new[]
	add	esp, 4
	mov	DWORD PTR $T221015[ebp], eax
	mov	ecx, DWORD PTR $T221015[ebp]
	mov	DWORD PTR _pData$[ebp], ecx

; 154  : 	ppArray = (int**)pData;

	mov	edx, DWORD PTR _ppArray$[ebp]
	mov	eax, DWORD PTR _pData$[ebp]
	mov	DWORD PTR [edx], eax

; 155  : 	ppArray[0] = (int*)(pData + iCount1 * sizeof(int*));

	mov	ecx, DWORD PTR _iCount1$[ebp]
	mov	edx, DWORD PTR _pData$[ebp]
	lea	eax, DWORD PTR [edx+ecx*4]
	mov	ecx, DWORD PTR _ppArray$[ebp]
	mov	edx, DWORD PTR [ecx]
	mov	DWORD PTR [edx], eax

; 156  : 	for(unsigned int i = 0; i < iCount2; ++i)

	mov	DWORD PTR _i$216888[ebp], 0
	jmp	SHORT $LN9@Initialize@2
$LN8@Initialize@2:
	mov	eax, DWORD PTR _i$216888[ebp]
	add	eax, 1
	mov	DWORD PTR _i$216888[ebp], eax
$LN9@Initialize@2:
	mov	ecx, DWORD PTR _i$216888[ebp]
	cmp	ecx, DWORD PTR _iCount2$[ebp]
	jae	SHORT $LN7@Initialize@2

; 157  : 	{
; 158  : 		ppArray[0][i] = iDefault;

	mov	edx, DWORD PTR _ppArray$[ebp]
	mov	eax, DWORD PTR [edx]
	mov	ecx, DWORD PTR [eax]
	mov	edx, DWORD PTR _i$216888[ebp]
	mov	eax, DWORD PTR _iDefault$[ebp]
	mov	DWORD PTR [ecx+edx*4], eax

; 159  : 	}

	jmp	SHORT $LN8@Initialize@2
$LN7@Initialize@2:

; 160  : 	for(unsigned int i = 1; i < iCount1; i++)

	mov	DWORD PTR _i$216892[ebp], 1
	jmp	SHORT $LN6@Initialize@2
$LN5@Initialize@2:
	mov	ecx, DWORD PTR _i$216892[ebp]
	add	ecx, 1
	mov	DWORD PTR _i$216892[ebp], ecx
$LN6@Initialize@2:
	mov	edx, DWORD PTR _i$216892[ebp]
	cmp	edx, DWORD PTR _iCount1$[ebp]
	jae	SHORT $LN12@Initialize@2

; 161  : 	{
; 162  : 		ppArray[i] = ppArray[i-1] + iCount2;

	mov	eax, DWORD PTR _ppArray$[ebp]
	mov	ecx, DWORD PTR [eax]
	mov	edx, DWORD PTR _i$216892[ebp]
	mov	eax, DWORD PTR [ecx+edx*4-4]
	mov	ecx, DWORD PTR _iCount2$[ebp]
	lea	edx, DWORD PTR [eax+ecx*4]
	mov	eax, DWORD PTR _ppArray$[ebp]
	mov	ecx, DWORD PTR [eax]
	mov	eax, DWORD PTR _i$216892[ebp]
	mov	DWORD PTR [ecx+eax*4], edx

; 163  : 		for(unsigned int j = 0; j < iCount2; ++j)

	mov	DWORD PTR _j$216896[ebp], 0
	jmp	SHORT $LN3@Initialize@2
$LN2@Initialize@2:
	mov	ecx, DWORD PTR _j$216896[ebp]
	add	ecx, 1
	mov	DWORD PTR _j$216896[ebp], ecx
$LN3@Initialize@2:
	mov	edx, DWORD PTR _j$216896[ebp]
	cmp	edx, DWORD PTR _iCount2$[ebp]
	jae	SHORT $LN1@Initialize@2

; 164  : 		{
; 165  : 			ppArray[i][j] = iDefault;

	mov	eax, DWORD PTR _ppArray$[ebp]
	mov	ecx, DWORD PTR [eax]
	mov	edx, DWORD PTR _i$216892[ebp]
	mov	eax, DWORD PTR [ecx+edx*4]
	mov	ecx, DWORD PTR _j$216896[ebp]
	mov	edx, DWORD PTR _iDefault$[ebp]
	mov	DWORD PTR [eax+ecx*4], edx

; 166  : 		}

	jmp	SHORT $LN2@Initialize@2
$LN1@Initialize@2:

; 167  : 	}

	jmp	SHORT $LN5@Initialize@2
$LN12@Initialize@2:

; 168  : #endif
; 169  : }

	mov	esp, ebp
	pop	ebp
	ret	16					; 00000010H
?Initialize2DArray@CvDatabaseUtility@@QAEXAAPAPAHIIH@Z ENDP ; CvDatabaseUtility::Initialize2DArray
_TEXT	ENDS
PUBLIC	?SafeDelete2DArray@CvDatabaseUtility@@SAXAAPAPAH@Z ; CvDatabaseUtility::SafeDelete2DArray
EXTRN	??_V@YAXPAX@Z:PROC				; operator delete[]
; Function compile flags: /Odtp
;	COMDAT ?SafeDelete2DArray@CvDatabaseUtility@@SAXAAPAPAH@Z
_TEXT	SEGMENT
$T221018 = -4						; size = 4
_ppArray$ = 8						; size = 4
?SafeDelete2DArray@CvDatabaseUtility@@SAXAAPAPAH@Z PROC	; CvDatabaseUtility::SafeDelete2DArray, COMDAT

; 188  : {

	push	ebp
	mov	ebp, esp
	push	ecx

; 189  : #endif
; 190  : 	delete[] ppArray;

	mov	eax, DWORD PTR _ppArray$[ebp]
	mov	ecx, DWORD PTR [eax]
	mov	DWORD PTR $T221018[ebp], ecx
	mov	edx, DWORD PTR $T221018[ebp]
	push	edx
	call	??_V@YAXPAX@Z				; operator delete[]
	add	esp, 4

; 191  : 	ppArray = NULL;

	mov	eax, DWORD PTR _ppArray$[ebp]
	mov	DWORD PTR [eax], 0

; 192  : }

	mov	esp, ebp
	pop	ebp
	ret	0
?SafeDelete2DArray@CvDatabaseUtility@@SAXAAPAPAH@Z ENDP	; CvDatabaseUtility::SafeDelete2DArray
_TEXT	ENDS
PUBLIC	??$sprintf_s@$0CAA@@@YAHAAY0CAA@DPBDZZ		; sprintf_s<512>
PUBLIC	??_C@_0EA@KPINOIAP@select?5?$CFs?4ID?5from?5?$CFs?5inner?5join?5@ ; `string'
PUBLIC	??_C@_06KEHMFONH@_PABE_?$AA@			; `string'
PUBLIC	__real@00000000
PUBLIC	__$ArrayPad$
PUBLIC	?PopulateArrayByExistence@CvDatabaseUtility@@QAE_NAAPA_NPBD1111@Z ; CvDatabaseUtility::PopulateArrayByExistence
EXTRN	__imp_?GetInt@Results@Database@@QAEHH@Z:PROC
EXTRN	__imp_?Step@Results@Database@@QAE_NXZ:PROC
EXTRN	__imp_?Bind@Results@Database@@QAE_NHPBD_N@Z:PROC
EXTRN	__imp_??1?$basic_string@DU?$char_traits@D@std@@V?$allocator@D@2@@std@@QAE@XZ:PROC
EXTRN	__imp_?append@?$basic_string@DU?$char_traits@D@std@@V?$allocator@D@2@@std@@QAEAAV12@PBD@Z:PROC
EXTRN	__imp_??0?$basic_string@DU?$char_traits@D@std@@V?$allocator@D@2@@std@@QAE@PBD@Z:PROC
EXTRN	_memset:PROC
;	COMDAT ??_C@_0EA@KPINOIAP@select?5?$CFs?4ID?5from?5?$CFs?5inner?5join?5@
; File d:\sources\lekmod_git\checkout\lekmod_dll\cvgamecoredll_expansion2\cvdatabaseutility.h
CONST	SEGMENT
??_C@_0EA@KPINOIAP@select?5?$CFs?4ID?5from?5?$CFs?5inner?5join?5@ DB 'sel'
	DB	'ect %s.ID from %s inner join %s on %s = %s.Type where %s = ?', 00H ; `string'
CONST	ENDS
;	COMDAT ??_C@_06KEHMFONH@_PABE_?$AA@
CONST	SEGMENT
??_C@_06KEHMFONH@_PABE_?$AA@ DB '_PABE_', 00H		; `string'
CONST	ENDS
;	COMDAT __real@00000000
CONST	SEGMENT
__real@00000000 DD 000000000r			; 0
CONST	ENDS
;	COMDAT xdata$x
xdata$x	SEGMENT
__unwindtable$?PopulateArrayByExistence@CvDatabaseUtility@@QAE_NAAPA_NPBD1111@Z DD 0ffffffffH
	DD	FLAT:__unwindfunclet$?PopulateArrayByExistence@CvDatabaseUtility@@QAE_NAAPA_NPBD1111@Z$0
__ehfuncinfo$?PopulateArrayByExistence@CvDatabaseUtility@@QAE_NAAPA_NPBD1111@Z DD 019930522H
	DD	01H
	DD	FLAT:__unwindtable$?PopulateArrayByExistence@CvDatabaseUtility@@QAE_NAAPA_NPBD1111@Z
	DD	2 DUP(00H)
	DD	2 DUP(00H)
	DD	00H
	DD	01H
; Function compile flags: /Odtp
; File d:\sources\lekmod_git\checkout\lekmod_dll\cvgamecoredll_expansion2\cvdatabaseutility.cpp
xdata$x	ENDS
;	COMDAT ?PopulateArrayByExistence@CvDatabaseUtility@@QAE_NAAPA_NPBD1111@Z
_TEXT	SEGMENT
_this$ = -588						; size = 4
$T221037 = -584						; size = 4
$T221036 = -580						; size = 4
_i$221031 = -576					; size = 4
$T221024 = -571						; size = 1
$T221023 = -570						; size = 1
$T221022 = -569						; size = 1
_idx$216936 = -568					; size = 4
_szSQL$216922 = -564					; size = 512
_pResults$ = -48					; size = 4
_strKey$ = -44						; size = 28
__$ArrayPad$ = -16					; size = 4
__$EHRec$ = -12						; size = 12
_pArray$ = 8						; size = 4
_szTypeTableName$ = 12					; size = 4
_szDataTableName$ = 16					; size = 4
_szTypeColumn$ = 20					; size = 4
_szFilterColumn$ = 24					; size = 4
_szFilterValue$ = 28					; size = 4
?PopulateArrayByExistence@CvDatabaseUtility@@QAE_NAAPA_NPBD1111@Z PROC ; CvDatabaseUtility::PopulateArrayByExistence, COMDAT
; _this$ = ecx

; 196  : {

	push	ebp
	mov	ebp, esp
	push	-1
	push	__ehhandler$?PopulateArrayByExistence@CvDatabaseUtility@@QAE_NAAPA_NPBD1111@Z
	mov	eax, DWORD PTR fs:0
	push	eax
	sub	esp, 576				; 00000240H
	mov	eax, DWORD PTR ___security_cookie
	xor	eax, ebp
	mov	DWORD PTR __$ArrayPad$[ebp], eax
	push	eax
	lea	eax, DWORD PTR __$EHRec$[ebp]
	mov	DWORD PTR fs:0, eax
	mov	DWORD PTR _this$[ebp], ecx

; 197  : 	InitializeArray(pArray, MaxRows(szTypeTableName), false);

	mov	eax, DWORD PTR _szTypeTableName$[ebp]
	push	eax
	mov	ecx, DWORD PTR _this$[ebp]
	call	?MaxRows@CvDatabaseUtility@@QAEHPBD@Z	; CvDatabaseUtility::MaxRows
	mov	DWORD PTR $T221037[ebp], eax
	mov	ecx, DWORD PTR $T221037[ebp]
	push	ecx
	call	??_U@YAPAXI@Z				; operator new[]
	add	esp, 4
	mov	DWORD PTR $T221036[ebp], eax
	mov	edx, DWORD PTR _pArray$[ebp]
	mov	eax, DWORD PTR $T221036[ebp]
	mov	DWORD PTR [edx], eax
	xor	ecx, ecx
	cvtsi2ss xmm0, ecx
	ucomiss	xmm0, DWORD PTR __real@00000000
	lahf
	test	ah, 68					; 00000044H
	jp	SHORT $LN13@PopulateAr
	mov	edx, DWORD PTR $T221037[ebp]
	push	edx
	push	0
	mov	eax, DWORD PTR _pArray$[ebp]
	mov	ecx, DWORD PTR [eax]
	push	ecx
	call	_memset
	add	esp, 12					; 0000000cH
	jmp	SHORT $LN9@PopulateAr
$LN13@PopulateAr:
	mov	DWORD PTR _i$221031[ebp], 0
	jmp	SHORT $LN11@PopulateAr
$LN10@PopulateAr:
	mov	edx, DWORD PTR _i$221031[ebp]
	add	edx, 1
	mov	DWORD PTR _i$221031[ebp], edx
$LN11@PopulateAr:
	mov	eax, DWORD PTR _i$221031[ebp]
	cmp	eax, DWORD PTR $T221037[ebp]
	jae	SHORT $LN9@PopulateAr
	mov	ecx, DWORD PTR _pArray$[ebp]
	mov	edx, DWORD PTR [ecx]
	mov	eax, DWORD PTR _i$221031[ebp]
	mov	BYTE PTR [edx+eax], 0
	jmp	SHORT $LN10@PopulateAr
$LN9@PopulateAr:

; 198  : 
; 199  : 	std::string strKey = "_PABE_";

	push	OFFSET ??_C@_06KEHMFONH@_PABE_?$AA@
	lea	ecx, DWORD PTR _strKey$[ebp]
	call	DWORD PTR __imp_??0?$basic_string@DU?$char_traits@D@std@@V?$allocator@D@2@@std@@QAE@PBD@Z
	mov	DWORD PTR __$EHRec$[ebp+8], 0

; 200  : 	strKey.append(szTypeTableName);

	mov	ecx, DWORD PTR _szTypeTableName$[ebp]
	push	ecx
	lea	ecx, DWORD PTR _strKey$[ebp]
	call	DWORD PTR __imp_?append@?$basic_string@DU?$char_traits@D@std@@V?$allocator@D@2@@std@@QAEAAV12@PBD@Z

; 201  : 	strKey.append(szDataTableName);

	mov	edx, DWORD PTR _szDataTableName$[ebp]
	push	edx
	lea	ecx, DWORD PTR _strKey$[ebp]
	call	DWORD PTR __imp_?append@?$basic_string@DU?$char_traits@D@std@@V?$allocator@D@2@@std@@QAEAAV12@PBD@Z

; 202  : 	strKey.append(szFilterColumn);

	mov	eax, DWORD PTR _szFilterColumn$[ebp]
	push	eax
	lea	ecx, DWORD PTR _strKey$[ebp]
	call	DWORD PTR __imp_?append@?$basic_string@DU?$char_traits@D@std@@V?$allocator@D@2@@std@@QAEAAV12@PBD@Z

; 203  : 
; 204  : 	Database::Results* pResults = GetResults(strKey);

	lea	ecx, DWORD PTR _strKey$[ebp]
	push	ecx
	mov	ecx, DWORD PTR _this$[ebp]
	call	?GetResults@CvDatabaseUtility@@QAEPAVResults@Database@@ABV?$basic_string@DU?$char_traits@D@std@@V?$allocator@D@2@@std@@@Z ; CvDatabaseUtility::GetResults
	mov	DWORD PTR _pResults$[ebp], eax

; 205  : 	if(pResults == NULL)

	cmp	DWORD PTR _pResults$[ebp], 0
	jne	SHORT $LN4@PopulateAr

; 206  : 	{
; 207  : 		char szSQL[512];
; 208  : 		sprintf_s(szSQL, "select %s.ID from %s inner join %s on %s = %s.Type where %s = ?", szTypeTableName, szDataTableName, szTypeTableName, szTypeColumn, szTypeTableName, szFilterColumn);

	mov	edx, DWORD PTR _szFilterColumn$[ebp]
	push	edx
	mov	eax, DWORD PTR _szTypeTableName$[ebp]
	push	eax
	mov	ecx, DWORD PTR _szTypeColumn$[ebp]
	push	ecx
	mov	edx, DWORD PTR _szTypeTableName$[ebp]
	push	edx
	mov	eax, DWORD PTR _szDataTableName$[ebp]
	push	eax
	mov	ecx, DWORD PTR _szTypeTableName$[ebp]
	push	ecx
	push	OFFSET ??_C@_0EA@KPINOIAP@select?5?$CFs?4ID?5from?5?$CFs?5inner?5join?5@
	lea	edx, DWORD PTR _szSQL$216922[ebp]
	push	edx
	call	??$sprintf_s@$0CAA@@@YAHAAY0CAA@DPBDZZ	; sprintf_s<512>
	add	esp, 32					; 00000020H

; 209  : 
; 210  : 		pResults = PrepareResults(strKey, szSQL);

	lea	eax, DWORD PTR _szSQL$216922[ebp]
	push	eax
	lea	ecx, DWORD PTR _strKey$[ebp]
	push	ecx
	mov	ecx, DWORD PTR _this$[ebp]
	call	?PrepareResults@CvDatabaseUtility@@QAEPAVResults@Database@@ABV?$basic_string@DU?$char_traits@D@std@@V?$allocator@D@2@@std@@PBD@Z ; CvDatabaseUtility::PrepareResults
	mov	DWORD PTR _pResults$[ebp], eax

; 211  : 		if(pResults == NULL)

	cmp	DWORD PTR _pResults$[ebp], 0
	jne	SHORT $LN4@PopulateAr

; 212  : 			return false;

	mov	BYTE PTR $T221022[ebp], 0
	mov	DWORD PTR __$EHRec$[ebp+8], -1
	lea	ecx, DWORD PTR _strKey$[ebp]
	call	DWORD PTR __imp_??1?$basic_string@DU?$char_traits@D@std@@V?$allocator@D@2@@std@@QAE@XZ
	mov	al, BYTE PTR $T221022[ebp]
	jmp	$LN6@PopulateAr
$LN4@PopulateAr:

; 213  : 	}
; 214  : 
; 215  : 	if(!pResults->Bind(1, szFilterValue, false))

	push	0
	mov	edx, DWORD PTR _szFilterValue$[ebp]
	push	edx
	push	1
	mov	ecx, DWORD PTR _pResults$[ebp]
	call	DWORD PTR __imp_?Bind@Results@Database@@QAE_NHPBD_N@Z
	movzx	eax, al
	test	eax, eax
	jne	SHORT $LN3@PopulateAr

; 216  : 	{
; 217  : 		CvAssertMsg(false, GetErrorMessage());
; 218  : 		return false;

	mov	BYTE PTR $T221023[ebp], 0
	mov	DWORD PTR __$EHRec$[ebp+8], -1
	lea	ecx, DWORD PTR _strKey$[ebp]
	call	DWORD PTR __imp_??1?$basic_string@DU?$char_traits@D@std@@V?$allocator@D@2@@std@@QAE@XZ
	mov	al, BYTE PTR $T221023[ebp]
	jmp	SHORT $LN6@PopulateAr
$LN3@PopulateAr:

; 219  : 	}
; 220  : 
; 221  : 	while(pResults->Step())

	mov	ecx, DWORD PTR _pResults$[ebp]
	call	DWORD PTR __imp_?Step@Results@Database@@QAE_NXZ
	movzx	ecx, al
	test	ecx, ecx
	je	SHORT $LN1@PopulateAr

; 222  : 	{
; 223  : 		const int idx = pResults->GetInt(0);

	push	0
	mov	ecx, DWORD PTR _pResults$[ebp]
	call	DWORD PTR __imp_?GetInt@Results@Database@@QAEHH@Z
	mov	DWORD PTR _idx$216936[ebp], eax

; 224  : 		pArray[idx] = true;

	mov	edx, DWORD PTR _pArray$[ebp]
	mov	eax, DWORD PTR [edx]
	mov	ecx, DWORD PTR _idx$216936[ebp]
	mov	BYTE PTR [eax+ecx], 1

; 225  : 	}

	jmp	SHORT $LN3@PopulateAr
$LN1@PopulateAr:

; 226  : 
; 227  : 	pResults->Reset();

	mov	ecx, DWORD PTR _pResults$[ebp]
	call	DWORD PTR __imp_?Reset@Results@Database@@QAE_NXZ

; 228  : 
; 229  : 	return true;

	mov	BYTE PTR $T221024[ebp], 1
	mov	DWORD PTR __$EHRec$[ebp+8], -1
	lea	ecx, DWORD PTR _strKey$[ebp]
	call	DWORD PTR __imp_??1?$basic_string@DU?$char_traits@D@std@@V?$allocator@D@2@@std@@QAE@XZ
	mov	al, BYTE PTR $T221024[ebp]
$LN6@PopulateAr:

; 230  : }

	mov	ecx, DWORD PTR __$EHRec$[ebp]
	mov	DWORD PTR fs:0, ecx
	pop	ecx
	mov	ecx, DWORD PTR __$ArrayPad$[ebp]
	xor	ecx, ebp
	call	@__security_check_cookie@4
	mov	esp, ebp
	pop	ebp
	ret	24					; 00000018H
_TEXT	ENDS
;	COMDAT text$x
text$x	SEGMENT
__unwindfunclet$?PopulateArrayByExistence@CvDatabaseUtility@@QAE_NAAPA_NPBD1111@Z$0:
	lea	ecx, DWORD PTR _strKey$[ebp]
	jmp	DWORD PTR __imp_??1?$basic_string@DU?$char_traits@D@std@@V?$allocator@D@2@@std@@QAE@XZ
__ehhandler$?PopulateArrayByExistence@CvDatabaseUtility@@QAE_NAAPA_NPBD1111@Z:
	mov	edx, DWORD PTR [esp+8]
	lea	eax, DWORD PTR [edx+12]
	mov	ecx, DWORD PTR [edx-580]
	xor	ecx, eax
	call	@__security_check_cookie@4
	mov	ecx, DWORD PTR [edx-4]
	xor	ecx, eax
	call	@__security_check_cookie@4
	mov	eax, OFFSET __ehfuncinfo$?PopulateArrayByExistence@CvDatabaseUtility@@QAE_NAAPA_NPBD1111@Z
	jmp	___CxxFrameHandler3
text$x	ENDS
?PopulateArrayByExistence@CvDatabaseUtility@@QAE_NAAPA_NPBD1111@Z ENDP ; CvDatabaseUtility::PopulateArrayByExistence
PUBLIC	?InitializeArray@CvDatabaseUtility@@QAEXAAPAHIH@Z ; CvDatabaseUtility::InitializeArray
PUBLIC	__$ArrayPad$
PUBLIC	?PopulateArrayByExistence@CvDatabaseUtility@@QAE_NAAPAHPBD1111@Z ; CvDatabaseUtility::PopulateArrayByExistence
;	COMDAT xdata$x
; File d:\sources\lekmod_git\checkout\lekmod_dll\cvgamecoredll_expansion2\cvdatabaseutility.h
xdata$x	SEGMENT
__unwindtable$?PopulateArrayByExistence@CvDatabaseUtility@@QAE_NAAPAHPBD1111@Z DD 0ffffffffH
	DD	FLAT:__unwindfunclet$?PopulateArrayByExistence@CvDatabaseUtility@@QAE_NAAPAHPBD1111@Z$0
__ehfuncinfo$?PopulateArrayByExistence@CvDatabaseUtility@@QAE_NAAPAHPBD1111@Z DD 019930522H
	DD	01H
	DD	FLAT:__unwindtable$?PopulateArrayByExistence@CvDatabaseUtility@@QAE_NAAPAHPBD1111@Z
	DD	2 DUP(00H)
	DD	2 DUP(00H)
	DD	00H
	DD	01H
; Function compile flags: /Odtp
; File d:\sources\lekmod_git\checkout\lekmod_dll\cvgamecoredll_expansion2\cvdatabaseutility.cpp
xdata$x	ENDS
;	COMDAT ?PopulateArrayByExistence@CvDatabaseUtility@@QAE_NAAPAHPBD1111@Z
_TEXT	SEGMENT
_this$ = -580						; size = 4
$T221052 = -567						; size = 1
$T221051 = -566						; size = 1
$T221050 = -565						; size = 1
_szSQL$216955 = -564					; size = 512
_pResults$ = -52					; size = 4
_idx$ = -48						; size = 4
_strKey$ = -44						; size = 28
__$ArrayPad$ = -16					; size = 4
__$EHRec$ = -12						; size = 12
_pArray$ = 8						; size = 4
_szTypeTableName$ = 12					; size = 4
_szDataTableName$ = 16					; size = 4
_szTypeColumn$ = 20					; size = 4
_szFilterColumn$ = 24					; size = 4
_szFilterValue$ = 28					; size = 4
?PopulateArrayByExistence@CvDatabaseUtility@@QAE_NAAPAHPBD1111@Z PROC ; CvDatabaseUtility::PopulateArrayByExistence, COMDAT
; _this$ = ecx

; 233  : {

	push	ebp
	mov	ebp, esp
	push	-1
	push	__ehhandler$?PopulateArrayByExistence@CvDatabaseUtility@@QAE_NAAPAHPBD1111@Z
	mov	eax, DWORD PTR fs:0
	push	eax
	sub	esp, 568				; 00000238H
	mov	eax, DWORD PTR ___security_cookie
	xor	eax, ebp
	mov	DWORD PTR __$ArrayPad$[ebp], eax
	push	eax
	lea	eax, DWORD PTR __$EHRec$[ebp]
	mov	DWORD PTR fs:0, eax
	mov	DWORD PTR _this$[ebp], ecx

; 234  : 	InitializeArray(pArray, MaxRows(szTypeTableName), -1);

	push	-1
	mov	eax, DWORD PTR _szTypeTableName$[ebp]
	push	eax
	mov	ecx, DWORD PTR _this$[ebp]
	call	?MaxRows@CvDatabaseUtility@@QAEHPBD@Z	; CvDatabaseUtility::MaxRows
	push	eax
	mov	ecx, DWORD PTR _pArray$[ebp]
	push	ecx
	mov	ecx, DWORD PTR _this$[ebp]
	call	?InitializeArray@CvDatabaseUtility@@QAEXAAPAHIH@Z ; CvDatabaseUtility::InitializeArray

; 235  : 
; 236  : 	std::string strKey = "_PABE_";

	push	OFFSET ??_C@_06KEHMFONH@_PABE_?$AA@
	lea	ecx, DWORD PTR _strKey$[ebp]
	call	DWORD PTR __imp_??0?$basic_string@DU?$char_traits@D@std@@V?$allocator@D@2@@std@@QAE@PBD@Z
	mov	DWORD PTR __$EHRec$[ebp+8], 0

; 237  : 	strKey.append(szTypeTableName);

	mov	edx, DWORD PTR _szTypeTableName$[ebp]
	push	edx
	lea	ecx, DWORD PTR _strKey$[ebp]
	call	DWORD PTR __imp_?append@?$basic_string@DU?$char_traits@D@std@@V?$allocator@D@2@@std@@QAEAAV12@PBD@Z

; 238  : 	strKey.append(szDataTableName);

	mov	eax, DWORD PTR _szDataTableName$[ebp]
	push	eax
	lea	ecx, DWORD PTR _strKey$[ebp]
	call	DWORD PTR __imp_?append@?$basic_string@DU?$char_traits@D@std@@V?$allocator@D@2@@std@@QAEAAV12@PBD@Z

; 239  : 	strKey.append(szFilterColumn);

	mov	ecx, DWORD PTR _szFilterColumn$[ebp]
	push	ecx
	lea	ecx, DWORD PTR _strKey$[ebp]
	call	DWORD PTR __imp_?append@?$basic_string@DU?$char_traits@D@std@@V?$allocator@D@2@@std@@QAEAAV12@PBD@Z

; 240  : 
; 241  : 	Database::Results* pResults = GetResults(strKey);

	lea	edx, DWORD PTR _strKey$[ebp]
	push	edx
	mov	ecx, DWORD PTR _this$[ebp]
	call	?GetResults@CvDatabaseUtility@@QAEPAVResults@Database@@ABV?$basic_string@DU?$char_traits@D@std@@V?$allocator@D@2@@std@@@Z ; CvDatabaseUtility::GetResults
	mov	DWORD PTR _pResults$[ebp], eax

; 242  : 	if(pResults == NULL)

	cmp	DWORD PTR _pResults$[ebp], 0
	jne	SHORT $LN5@PopulateAr@2

; 243  : 	{
; 244  : 		char szSQL[512];
; 245  : 		sprintf_s(szSQL, "select %s.ID from %s inner join %s on %s = %s.Type where %s = ?", szTypeTableName, szDataTableName, szTypeTableName, szTypeColumn, szTypeTableName, szFilterColumn);

	mov	eax, DWORD PTR _szFilterColumn$[ebp]
	push	eax
	mov	ecx, DWORD PTR _szTypeTableName$[ebp]
	push	ecx
	mov	edx, DWORD PTR _szTypeColumn$[ebp]
	push	edx
	mov	eax, DWORD PTR _szTypeTableName$[ebp]
	push	eax
	mov	ecx, DWORD PTR _szDataTableName$[ebp]
	push	ecx
	mov	edx, DWORD PTR _szTypeTableName$[ebp]
	push	edx
	push	OFFSET ??_C@_0EA@KPINOIAP@select?5?$CFs?4ID?5from?5?$CFs?5inner?5join?5@
	lea	eax, DWORD PTR _szSQL$216955[ebp]
	push	eax
	call	??$sprintf_s@$0CAA@@@YAHAAY0CAA@DPBDZZ	; sprintf_s<512>
	add	esp, 32					; 00000020H

; 246  : 		pResults = PrepareResults(strKey, szSQL);

	lea	ecx, DWORD PTR _szSQL$216955[ebp]
	push	ecx
	lea	edx, DWORD PTR _strKey$[ebp]
	push	edx
	mov	ecx, DWORD PTR _this$[ebp]
	call	?PrepareResults@CvDatabaseUtility@@QAEPAVResults@Database@@ABV?$basic_string@DU?$char_traits@D@std@@V?$allocator@D@2@@std@@PBD@Z ; CvDatabaseUtility::PrepareResults
	mov	DWORD PTR _pResults$[ebp], eax

; 247  : 		if(pResults == NULL)

	cmp	DWORD PTR _pResults$[ebp], 0
	jne	SHORT $LN5@PopulateAr@2

; 248  : 			return false;

	mov	BYTE PTR $T221050[ebp], 0
	mov	DWORD PTR __$EHRec$[ebp+8], -1
	lea	ecx, DWORD PTR _strKey$[ebp]
	call	DWORD PTR __imp_??1?$basic_string@DU?$char_traits@D@std@@V?$allocator@D@2@@std@@QAE@XZ
	mov	al, BYTE PTR $T221050[ebp]
	jmp	$LN6@PopulateAr@2
$LN5@PopulateAr@2:

; 249  : 	}
; 250  : 
; 251  : 	if(!pResults->Bind(1, szFilterValue, false))

	push	0
	mov	eax, DWORD PTR _szFilterValue$[ebp]
	push	eax
	push	1
	mov	ecx, DWORD PTR _pResults$[ebp]
	call	DWORD PTR __imp_?Bind@Results@Database@@QAE_NHPBD_N@Z
	movzx	ecx, al
	test	ecx, ecx
	jne	SHORT $LN3@PopulateAr@2

; 252  : 	{
; 253  : 		CvAssertMsg(false, GetErrorMessage());
; 254  : 		return false;

	mov	BYTE PTR $T221051[ebp], 0
	mov	DWORD PTR __$EHRec$[ebp+8], -1
	lea	ecx, DWORD PTR _strKey$[ebp]
	call	DWORD PTR __imp_??1?$basic_string@DU?$char_traits@D@std@@V?$allocator@D@2@@std@@QAE@XZ
	mov	al, BYTE PTR $T221051[ebp]
	jmp	SHORT $LN6@PopulateAr@2
$LN3@PopulateAr@2:

; 255  : 	}
; 256  : 
; 257  : 	int idx = 0;

	mov	DWORD PTR _idx$[ebp], 0
$LN2@PopulateAr@2:

; 258  : 	while(pResults->Step())

	mov	ecx, DWORD PTR _pResults$[ebp]
	call	DWORD PTR __imp_?Step@Results@Database@@QAE_NXZ
	movzx	edx, al
	test	edx, edx
	je	SHORT $LN1@PopulateAr@2

; 259  : 	{
; 260  : 		pArray[idx++] = pResults->GetInt(0);

	push	0
	mov	ecx, DWORD PTR _pResults$[ebp]
	call	DWORD PTR __imp_?GetInt@Results@Database@@QAEHH@Z
	mov	ecx, DWORD PTR _pArray$[ebp]
	mov	edx, DWORD PTR [ecx]
	mov	ecx, DWORD PTR _idx$[ebp]
	mov	DWORD PTR [edx+ecx*4], eax
	mov	edx, DWORD PTR _idx$[ebp]
	add	edx, 1
	mov	DWORD PTR _idx$[ebp], edx

; 261  : 	}

	jmp	SHORT $LN2@PopulateAr@2
$LN1@PopulateAr@2:

; 262  : 
; 263  : 	pResults->Reset();

	mov	ecx, DWORD PTR _pResults$[ebp]
	call	DWORD PTR __imp_?Reset@Results@Database@@QAE_NXZ

; 264  : 
; 265  : 	return true;

	mov	BYTE PTR $T221052[ebp], 1
	mov	DWORD PTR __$EHRec$[ebp+8], -1
	lea	ecx, DWORD PTR _strKey$[ebp]
	call	DWORD PTR __imp_??1?$basic_string@DU?$char_traits@D@std@@V?$allocator@D@2@@std@@QAE@XZ
	mov	al, BYTE PTR $T221052[ebp]
$LN6@PopulateAr@2:

; 266  : }

	mov	ecx, DWORD PTR __$EHRec$[ebp]
	mov	DWORD PTR fs:0, ecx
	pop	ecx
	mov	ecx, DWORD PTR __$ArrayPad$[ebp]
	xor	ecx, ebp
	call	@__security_check_cookie@4
	mov	esp, ebp
	pop	ebp
	ret	24					; 00000018H
_TEXT	ENDS
;	COMDAT text$x
text$x	SEGMENT
__unwindfunclet$?PopulateArrayByExistence@CvDatabaseUtility@@QAE_NAAPAHPBD1111@Z$0:
	lea	ecx, DWORD PTR _strKey$[ebp]
	jmp	DWORD PTR __imp_??1?$basic_string@DU?$char_traits@D@std@@V?$allocator@D@2@@std@@QAE@XZ
__ehhandler$?PopulateArrayByExistence@CvDatabaseUtility@@QAE_NAAPAHPBD1111@Z:
	mov	edx, DWORD PTR [esp+8]
	lea	eax, DWORD PTR [edx+12]
	mov	ecx, DWORD PTR [edx-572]
	xor	ecx, eax
	call	@__security_check_cookie@4
	mov	ecx, DWORD PTR [edx-4]
	xor	ecx, eax
	call	@__security_check_cookie@4
	mov	eax, OFFSET __ehfuncinfo$?PopulateArrayByExistence@CvDatabaseUtility@@QAE_NAAPAHPBD1111@Z
	jmp	___CxxFrameHandler3
text$x	ENDS
?PopulateArrayByExistence@CvDatabaseUtility@@QAE_NAAPAHPBD1111@Z ENDP ; CvDatabaseUtility::PopulateArrayByExistence
PUBLIC	??_C@_0EE@HBKNPGAE@select?5?$CFs?4ID?0?5?$CFs?5from?5?$CFs?5inner?5j@ ; `string'
PUBLIC	??_C@_06LKBMEDPO@_PABV_?$AA@			; `string'
PUBLIC	__$ArrayPad$
PUBLIC	?PopulateArrayByValue@CvDatabaseUtility@@QAE_NAAPAHPBD11111HH@Z ; CvDatabaseUtility::PopulateArrayByValue
;	COMDAT ??_C@_0EE@HBKNPGAE@select?5?$CFs?4ID?0?5?$CFs?5from?5?$CFs?5inner?5j@
; File d:\sources\lekmod_git\checkout\lekmod_dll\cvgamecoredll_expansion2\cvdatabaseutility.h
CONST	SEGMENT
??_C@_0EE@HBKNPGAE@select?5?$CFs?4ID?0?5?$CFs?5from?5?$CFs?5inner?5j@ DB 's'
	DB	'elect %s.ID, %s from %s inner join %s on %s = %s.Type where %'
	DB	's = ?', 00H					; `string'
CONST	ENDS
;	COMDAT ??_C@_06LKBMEDPO@_PABV_?$AA@
CONST	SEGMENT
??_C@_06LKBMEDPO@_PABV_?$AA@ DB '_PABV_', 00H		; `string'
CONST	ENDS
;	COMDAT xdata$x
xdata$x	SEGMENT
__unwindtable$?PopulateArrayByValue@CvDatabaseUtility@@QAE_NAAPAHPBD11111HH@Z DD 0ffffffffH
	DD	FLAT:__unwindfunclet$?PopulateArrayByValue@CvDatabaseUtility@@QAE_NAAPAHPBD11111HH@Z$0
__ehfuncinfo$?PopulateArrayByValue@CvDatabaseUtility@@QAE_NAAPAHPBD11111HH@Z DD 019930522H
	DD	01H
	DD	FLAT:__unwindtable$?PopulateArrayByValue@CvDatabaseUtility@@QAE_NAAPAHPBD11111HH@Z
	DD	2 DUP(00H)
	DD	2 DUP(00H)
	DD	00H
	DD	01H
; Function compile flags: /Odtp
; File d:\sources\lekmod_git\checkout\lekmod_dll\cvgamecoredll_expansion2\cvdatabaseutility.cpp
xdata$x	ENDS
;	COMDAT ?PopulateArrayByValue@CvDatabaseUtility@@QAE_NAAPAHPBD11111HH@Z
_TEXT	SEGMENT
tv70 = -592						; size = 4
_this$ = -588						; size = 4
$T221069 = -575						; size = 1
$T221068 = -574						; size = 1
$T221067 = -573						; size = 1
_idx$216991 = -572					; size = 4
_value$216992 = -568					; size = 4
_szSQL$216982 = -564					; size = 512
_iSize$ = -52						; size = 4
_pResults$ = -48					; size = 4
_strKey$ = -44						; size = 28
__$ArrayPad$ = -16					; size = 4
__$EHRec$ = -12						; size = 12
_pArray$ = 8						; size = 4
_szTypeTableName$ = 12					; size = 4
_szDataTableName$ = 16					; size = 4
_szTypeColumn$ = 20					; size = 4
_szFilterColumn$ = 24					; size = 4
_szFilterValue$ = 28					; size = 4
_szValueColumn$ = 32					; size = 4
_iDefaultValue$ = 36					; size = 4
_iMinArraySize$ = 40					; size = 4
?PopulateArrayByValue@CvDatabaseUtility@@QAE_NAAPAHPBD11111HH@Z PROC ; CvDatabaseUtility::PopulateArrayByValue, COMDAT
; _this$ = ecx

; 269  : {

	push	ebp
	mov	ebp, esp
	push	-1
	push	__ehhandler$?PopulateArrayByValue@CvDatabaseUtility@@QAE_NAAPAHPBD11111HH@Z
	mov	eax, DWORD PTR fs:0
	push	eax
	sub	esp, 580				; 00000244H
	mov	eax, DWORD PTR ___security_cookie
	xor	eax, ebp
	mov	DWORD PTR __$ArrayPad$[ebp], eax
	push	eax
	lea	eax, DWORD PTR __$EHRec$[ebp]
	mov	DWORD PTR fs:0, eax
	mov	DWORD PTR _this$[ebp], ecx

; 270  : 	int iSize = MaxRows(szTypeTableName);

	mov	eax, DWORD PTR _szTypeTableName$[ebp]
	push	eax
	mov	ecx, DWORD PTR _this$[ebp]
	call	?MaxRows@CvDatabaseUtility@@QAEHPBD@Z	; CvDatabaseUtility::MaxRows
	mov	DWORD PTR _iSize$[ebp], eax

; 271  : 	InitializeArray(pArray, (iSize<iMinArraySize)?iMinArraySize:iSize, iDefaultValue);

	mov	ecx, DWORD PTR _iSize$[ebp]
	cmp	ecx, DWORD PTR _iMinArraySize$[ebp]
	jge	SHORT $LN8@PopulateAr@3
	mov	edx, DWORD PTR _iMinArraySize$[ebp]
	mov	DWORD PTR tv70[ebp], edx
	jmp	SHORT $LN9@PopulateAr@3
$LN8@PopulateAr@3:
	mov	eax, DWORD PTR _iSize$[ebp]
	mov	DWORD PTR tv70[ebp], eax
$LN9@PopulateAr@3:
	mov	ecx, DWORD PTR _iDefaultValue$[ebp]
	push	ecx
	mov	edx, DWORD PTR tv70[ebp]
	push	edx
	mov	eax, DWORD PTR _pArray$[ebp]
	push	eax
	mov	ecx, DWORD PTR _this$[ebp]
	call	?InitializeArray@CvDatabaseUtility@@QAEXAAPAHIH@Z ; CvDatabaseUtility::InitializeArray

; 272  : 
; 273  : 	std::string strKey = "_PABV_";

	push	OFFSET ??_C@_06LKBMEDPO@_PABV_?$AA@
	lea	ecx, DWORD PTR _strKey$[ebp]
	call	DWORD PTR __imp_??0?$basic_string@DU?$char_traits@D@std@@V?$allocator@D@2@@std@@QAE@PBD@Z
	mov	DWORD PTR __$EHRec$[ebp+8], 0

; 274  : 	strKey.append(szTypeTableName);

	mov	ecx, DWORD PTR _szTypeTableName$[ebp]
	push	ecx
	lea	ecx, DWORD PTR _strKey$[ebp]
	call	DWORD PTR __imp_?append@?$basic_string@DU?$char_traits@D@std@@V?$allocator@D@2@@std@@QAEAAV12@PBD@Z

; 275  : 	strKey.append(szDataTableName);

	mov	edx, DWORD PTR _szDataTableName$[ebp]
	push	edx
	lea	ecx, DWORD PTR _strKey$[ebp]
	call	DWORD PTR __imp_?append@?$basic_string@DU?$char_traits@D@std@@V?$allocator@D@2@@std@@QAEAAV12@PBD@Z

; 276  : 	strKey.append(szFilterColumn);

	mov	eax, DWORD PTR _szFilterColumn$[ebp]
	push	eax
	lea	ecx, DWORD PTR _strKey$[ebp]
	call	DWORD PTR __imp_?append@?$basic_string@DU?$char_traits@D@std@@V?$allocator@D@2@@std@@QAEAAV12@PBD@Z

; 277  : 	strKey.append(szValueColumn);

	mov	ecx, DWORD PTR _szValueColumn$[ebp]
	push	ecx
	lea	ecx, DWORD PTR _strKey$[ebp]
	call	DWORD PTR __imp_?append@?$basic_string@DU?$char_traits@D@std@@V?$allocator@D@2@@std@@QAEAAV12@PBD@Z

; 278  : 
; 279  : 	Database::Results* pResults = GetResults(strKey);

	lea	edx, DWORD PTR _strKey$[ebp]
	push	edx
	mov	ecx, DWORD PTR _this$[ebp]
	call	?GetResults@CvDatabaseUtility@@QAEPAVResults@Database@@ABV?$basic_string@DU?$char_traits@D@std@@V?$allocator@D@2@@std@@@Z ; CvDatabaseUtility::GetResults
	mov	DWORD PTR _pResults$[ebp], eax

; 280  : 	if(pResults == NULL)

	cmp	DWORD PTR _pResults$[ebp], 0
	jne	SHORT $LN5@PopulateAr@3

; 281  : 	{
; 282  : 		char szSQL[512];
; 283  : 		sprintf_s(szSQL, "select %s.ID, %s from %s inner join %s on %s = %s.Type where %s = ?", szTypeTableName, szValueColumn, szDataTableName, szTypeTableName, szTypeColumn, szTypeTableName, szFilterColumn);

	mov	eax, DWORD PTR _szFilterColumn$[ebp]
	push	eax
	mov	ecx, DWORD PTR _szTypeTableName$[ebp]
	push	ecx
	mov	edx, DWORD PTR _szTypeColumn$[ebp]
	push	edx
	mov	eax, DWORD PTR _szTypeTableName$[ebp]
	push	eax
	mov	ecx, DWORD PTR _szDataTableName$[ebp]
	push	ecx
	mov	edx, DWORD PTR _szValueColumn$[ebp]
	push	edx
	mov	eax, DWORD PTR _szTypeTableName$[ebp]
	push	eax
	push	OFFSET ??_C@_0EE@HBKNPGAE@select?5?$CFs?4ID?0?5?$CFs?5from?5?$CFs?5inner?5j@
	lea	ecx, DWORD PTR _szSQL$216982[ebp]
	push	ecx
	call	??$sprintf_s@$0CAA@@@YAHAAY0CAA@DPBDZZ	; sprintf_s<512>
	add	esp, 36					; 00000024H

; 284  : 		pResults = PrepareResults(strKey, szSQL);

	lea	edx, DWORD PTR _szSQL$216982[ebp]
	push	edx
	lea	eax, DWORD PTR _strKey$[ebp]
	push	eax
	mov	ecx, DWORD PTR _this$[ebp]
	call	?PrepareResults@CvDatabaseUtility@@QAEPAVResults@Database@@ABV?$basic_string@DU?$char_traits@D@std@@V?$allocator@D@2@@std@@PBD@Z ; CvDatabaseUtility::PrepareResults
	mov	DWORD PTR _pResults$[ebp], eax

; 285  : 		if(pResults == NULL)

	cmp	DWORD PTR _pResults$[ebp], 0
	jne	SHORT $LN5@PopulateAr@3

; 286  : 			return false;

	mov	BYTE PTR $T221067[ebp], 0
	mov	DWORD PTR __$EHRec$[ebp+8], -1
	lea	ecx, DWORD PTR _strKey$[ebp]
	call	DWORD PTR __imp_??1?$basic_string@DU?$char_traits@D@std@@V?$allocator@D@2@@std@@QAE@XZ
	mov	al, BYTE PTR $T221067[ebp]
	jmp	$LN6@PopulateAr@3
$LN5@PopulateAr@3:

; 287  : 	}
; 288  : 
; 289  : 	if(!pResults->Bind(1, szFilterValue, false))

	push	0
	mov	ecx, DWORD PTR _szFilterValue$[ebp]
	push	ecx
	push	1
	mov	ecx, DWORD PTR _pResults$[ebp]
	call	DWORD PTR __imp_?Bind@Results@Database@@QAE_NHPBD_N@Z
	movzx	edx, al
	test	edx, edx
	jne	SHORT $LN2@PopulateAr@3

; 290  : 	{
; 291  : 		CvAssertMsg(false, GetErrorMessage());
; 292  : 		return false;

	mov	BYTE PTR $T221068[ebp], 0
	mov	DWORD PTR __$EHRec$[ebp+8], -1
	lea	ecx, DWORD PTR _strKey$[ebp]
	call	DWORD PTR __imp_??1?$basic_string@DU?$char_traits@D@std@@V?$allocator@D@2@@std@@QAE@XZ
	mov	al, BYTE PTR $T221068[ebp]
	jmp	SHORT $LN6@PopulateAr@3
$LN2@PopulateAr@3:

; 293  : 	}
; 294  : 	while(pResults->Step())

	mov	ecx, DWORD PTR _pResults$[ebp]
	call	DWORD PTR __imp_?Step@Results@Database@@QAE_NXZ
	movzx	eax, al
	test	eax, eax
	je	SHORT $LN1@PopulateAr@3

; 295  : 	{
; 296  : 		const int idx = pResults->GetInt(0);

	push	0
	mov	ecx, DWORD PTR _pResults$[ebp]
	call	DWORD PTR __imp_?GetInt@Results@Database@@QAEHH@Z
	mov	DWORD PTR _idx$216991[ebp], eax

; 297  : 		const int value = pResults->GetInt(1);

	push	1
	mov	ecx, DWORD PTR _pResults$[ebp]
	call	DWORD PTR __imp_?GetInt@Results@Database@@QAEHH@Z
	mov	DWORD PTR _value$216992[ebp], eax

; 298  : 		pArray[idx] = value;

	mov	ecx, DWORD PTR _pArray$[ebp]
	mov	edx, DWORD PTR [ecx]
	mov	eax, DWORD PTR _idx$216991[ebp]
	mov	ecx, DWORD PTR _value$216992[ebp]
	mov	DWORD PTR [edx+eax*4], ecx

; 299  : 	}

	jmp	SHORT $LN2@PopulateAr@3
$LN1@PopulateAr@3:

; 300  : 
; 301  : 	pResults->Reset();

	mov	ecx, DWORD PTR _pResults$[ebp]
	call	DWORD PTR __imp_?Reset@Results@Database@@QAE_NXZ

; 302  : 
; 303  : 	return true;

	mov	BYTE PTR $T221069[ebp], 1
	mov	DWORD PTR __$EHRec$[ebp+8], -1
	lea	ecx, DWORD PTR _strKey$[ebp]
	call	DWORD PTR __imp_??1?$basic_string@DU?$char_traits@D@std@@V?$allocator@D@2@@std@@QAE@XZ
	mov	al, BYTE PTR $T221069[ebp]
$LN6@PopulateAr@3:

; 304  : }

	mov	ecx, DWORD PTR __$EHRec$[ebp]
	mov	DWORD PTR fs:0, ecx
	pop	ecx
	mov	ecx, DWORD PTR __$ArrayPad$[ebp]
	xor	ecx, ebp
	call	@__security_check_cookie@4
	mov	esp, ebp
	pop	ebp
	ret	36					; 00000024H
_TEXT	ENDS
;	COMDAT text$x
text$x	SEGMENT
__unwindfunclet$?PopulateArrayByValue@CvDatabaseUtility@@QAE_NAAPAHPBD11111HH@Z$0:
	lea	ecx, DWORD PTR _strKey$[ebp]
	jmp	DWORD PTR __imp_??1?$basic_string@DU?$char_traits@D@std@@V?$allocator@D@2@@std@@QAE@XZ
__ehhandler$?PopulateArrayByValue@CvDatabaseUtility@@QAE_NAAPAHPBD11111HH@Z:
	mov	edx, DWORD PTR [esp+8]
	lea	eax, DWORD PTR [edx+12]
	mov	ecx, DWORD PTR [edx-584]
	xor	ecx, eax
	call	@__security_check_cookie@4
	mov	ecx, DWORD PTR [edx-4]
	xor	ecx, eax
	call	@__security_check_cookie@4
	mov	eax, OFFSET __ehfuncinfo$?PopulateArrayByValue@CvDatabaseUtility@@QAE_NAAPAHPBD11111HH@Z
	jmp	___CxxFrameHandler3
text$x	ENDS
?PopulateArrayByValue@CvDatabaseUtility@@QAE_NAAPAHPBD11111HH@Z ENDP ; CvDatabaseUtility::PopulateArrayByValue
PUBLIC	??_C@_07LMCBHFKD@Flavors?$AA@			; `string'
PUBLIC	??_C@_0L@OMLCJFNI@FlavorType?$AA@		; `string'
PUBLIC	??_C@_06IOPKJJDH@Flavor?$AA@			; `string'
PUBLIC	?SetFlavors@CvDatabaseUtility@@QAE_NAAPAHPBD11H@Z ; CvDatabaseUtility::SetFlavors
;	COMDAT ??_C@_07LMCBHFKD@Flavors?$AA@
CONST	SEGMENT
??_C@_07LMCBHFKD@Flavors?$AA@ DB 'Flavors', 00H		; `string'
CONST	ENDS
;	COMDAT ??_C@_0L@OMLCJFNI@FlavorType?$AA@
CONST	SEGMENT
??_C@_0L@OMLCJFNI@FlavorType?$AA@ DB 'FlavorType', 00H	; `string'
CONST	ENDS
;	COMDAT ??_C@_06IOPKJJDH@Flavor?$AA@
CONST	SEGMENT
??_C@_06IOPKJJDH@Flavor?$AA@ DB 'Flavor', 00H		; `string'
; Function compile flags: /Odtp
CONST	ENDS
;	COMDAT ?SetFlavors@CvDatabaseUtility@@QAE_NAAPAHPBD11H@Z
_TEXT	SEGMENT
_this$ = -4						; size = 4
_pFlavorsArray$ = 8					; size = 4
_szTableName$ = 12					; size = 4
_szFilterColumn$ = 16					; size = 4
_szFilterValue$ = 20					; size = 4
_iDefaultValue$ = 24					; size = 4
?SetFlavors@CvDatabaseUtility@@QAE_NAAPAHPBD11H@Z PROC	; CvDatabaseUtility::SetFlavors, COMDAT
; _this$ = ecx

; 311  : {

	push	ebp
	mov	ebp, esp
	push	ecx
	mov	DWORD PTR _this$[ebp], ecx

; 312  : 	return PopulateArrayByValue(pFlavorsArray, "Flavors", szTableName,
; 313  : 	                            "FlavorType", szFilterColumn, szFilterValue, "Flavor", iDefaultValue);

	push	0
	mov	eax, DWORD PTR _iDefaultValue$[ebp]
	push	eax
	push	OFFSET ??_C@_06IOPKJJDH@Flavor?$AA@
	mov	ecx, DWORD PTR _szFilterValue$[ebp]
	push	ecx
	mov	edx, DWORD PTR _szFilterColumn$[ebp]
	push	edx
	push	OFFSET ??_C@_0L@OMLCJFNI@FlavorType?$AA@
	mov	eax, DWORD PTR _szTableName$[ebp]
	push	eax
	push	OFFSET ??_C@_07LMCBHFKD@Flavors?$AA@
	mov	ecx, DWORD PTR _pFlavorsArray$[ebp]
	push	ecx
	mov	ecx, DWORD PTR _this$[ebp]
	call	?PopulateArrayByValue@CvDatabaseUtility@@QAE_NAAPAHPBD11111HH@Z ; CvDatabaseUtility::PopulateArrayByValue

; 314  : }

	mov	esp, ebp
	pop	ebp
	ret	20					; 00000014H
?SetFlavors@CvDatabaseUtility@@QAE_NAAPAHPBD11H@Z ENDP	; CvDatabaseUtility::SetFlavors
_TEXT	ENDS
PUBLIC	??_C@_06JAMLCLDI@Yields?$AA@			; `string'
PUBLIC	??_C@_09HJBDLJFJ@YieldType?$AA@			; `string'
PUBLIC	??_C@_05LNDKIJIJ@Yield?$AA@			; `string'
PUBLIC	?SetYields@CvDatabaseUtility@@QAE_NAAPAHPBD11@Z	; CvDatabaseUtility::SetYields
;	COMDAT ??_C@_06JAMLCLDI@Yields?$AA@
CONST	SEGMENT
??_C@_06JAMLCLDI@Yields?$AA@ DB 'Yields', 00H		; `string'
CONST	ENDS
;	COMDAT ??_C@_09HJBDLJFJ@YieldType?$AA@
CONST	SEGMENT
??_C@_09HJBDLJFJ@YieldType?$AA@ DB 'YieldType', 00H	; `string'
CONST	ENDS
;	COMDAT ??_C@_05LNDKIJIJ@Yield?$AA@
CONST	SEGMENT
??_C@_05LNDKIJIJ@Yield?$AA@ DB 'Yield', 00H		; `string'
; Function compile flags: /Odtp
CONST	ENDS
;	COMDAT ?SetYields@CvDatabaseUtility@@QAE_NAAPAHPBD11@Z
_TEXT	SEGMENT
_this$ = -4						; size = 4
_pYieldsArray$ = 8					; size = 4
_szTableName$ = 12					; size = 4
_szFilterColumn$ = 16					; size = 4
_szFilterValue$ = 20					; size = 4
?SetYields@CvDatabaseUtility@@QAE_NAAPAHPBD11@Z PROC	; CvDatabaseUtility::SetYields, COMDAT
; _this$ = ecx

; 320  : {

	push	ebp
	mov	ebp, esp
	push	ecx
	mov	DWORD PTR _this$[ebp], ecx

; 321  : 	return PopulateArrayByValue(pYieldsArray, "Yields", szTableName,
; 322  : 	                            "YieldType", szFilterColumn, szFilterValue, "Yield");

	push	0
	push	0
	push	OFFSET ??_C@_05LNDKIJIJ@Yield?$AA@
	mov	eax, DWORD PTR _szFilterValue$[ebp]
	push	eax
	mov	ecx, DWORD PTR _szFilterColumn$[ebp]
	push	ecx
	push	OFFSET ??_C@_09HJBDLJFJ@YieldType?$AA@
	mov	edx, DWORD PTR _szTableName$[ebp]
	push	edx
	push	OFFSET ??_C@_06JAMLCLDI@Yields?$AA@
	mov	eax, DWORD PTR _pYieldsArray$[ebp]
	push	eax
	mov	ecx, DWORD PTR _this$[ebp]
	call	?PopulateArrayByValue@CvDatabaseUtility@@QAE_NAAPAHPBD11111HH@Z ; CvDatabaseUtility::PopulateArrayByValue

; 323  : }

	mov	esp, ebp
	pop	ebp
	ret	16					; 00000010H
?SetYields@CvDatabaseUtility@@QAE_NAAPAHPBD11@Z ENDP	; CvDatabaseUtility::SetYields
_TEXT	ENDS
PUBLIC	??$sprintf_s@$0BAA@@@YAHAAY0BAA@DPBDZZ		; sprintf_s<256>
PUBLIC	??_C@_0BK@GEOLBLOP@SELECT?5max?$CIrowid?$CJ?5from?5?$CFs?$AA@ ; `string'
PUBLIC	__$ArrayPad$
EXTRN	__imp_??1Results@Database@@UAE@XZ:PROC
;	COMDAT ??_C@_0BK@GEOLBLOP@SELECT?5max?$CIrowid?$CJ?5from?5?$CFs?$AA@
; File d:\sources\lekmod_git\checkout\lekmod_dll\cvgamecoredll_expansion2\cvglobals.h
CONST	SEGMENT
??_C@_0BK@GEOLBLOP@SELECT?5max?$CIrowid?$CJ?5from?5?$CFs?$AA@ DB 'SELECT '
	DB	'max(rowid) from %s', 00H			; `string'
CONST	ENDS
;	COMDAT xdata$x
xdata$x	SEGMENT
__unwindtable$?MaxRows@CvDatabaseUtility@@QAEHPBD@Z DD 0ffffffffH
	DD	FLAT:__unwindfunclet$?MaxRows@CvDatabaseUtility@@QAEHPBD@Z$0
__ehfuncinfo$?MaxRows@CvDatabaseUtility@@QAEHPBD@Z DD 019930522H
	DD	01H
	DD	FLAT:__unwindtable$?MaxRows@CvDatabaseUtility@@QAEHPBD@Z
	DD	2 DUP(00H)
	DD	2 DUP(00H)
	DD	00H
	DD	01H
; Function compile flags: /Odtp
; File d:\sources\lekmod_git\checkout\lekmod_dll\cvgamecoredll_expansion2\cvdatabaseutility.cpp
xdata$x	ENDS
;	COMDAT ?MaxRows@CvDatabaseUtility@@QAEHPBD@Z
_TEXT	SEGMENT
_this$ = -360						; size = 4
$T221091 = -356						; size = 4
$T221086 = -352						; size = 4
_szSQL$ = -348						; size = 256
__$ArrayPad$ = -88					; size = 4
_kResults$ = -84					; size = 64
_maxValue$ = -16					; size = 4
__$EHRec$ = -12						; size = 12
_szTableName$ = 8					; size = 4
?MaxRows@CvDatabaseUtility@@QAEHPBD@Z PROC		; CvDatabaseUtility::MaxRows, COMDAT
; _this$ = ecx

; 326  : {

	push	ebp
	mov	ebp, esp
	push	-1
	push	__ehhandler$?MaxRows@CvDatabaseUtility@@QAEHPBD@Z
	mov	eax, DWORD PTR fs:0
	push	eax
	sub	esp, 348				; 0000015cH
	mov	eax, DWORD PTR ___security_cookie
	xor	eax, ebp
	mov	DWORD PTR __$ArrayPad$[ebp], eax
	push	eax
	lea	eax, DWORD PTR __$EHRec$[ebp]
	mov	DWORD PTR fs:0, eax
	mov	DWORD PTR _this$[ebp], ecx

; 327  : 	char szSQL[256] = {0};

	mov	BYTE PTR _szSQL$[ebp], 0
	push	255					; 000000ffH
	push	0
	lea	eax, DWORD PTR _szSQL$[ebp+1]
	push	eax
	call	_memset
	add	esp, 12					; 0000000cH

; 328  : 	sprintf_s(szSQL, "SELECT max(rowid) from %s", szTableName);

	mov	ecx, DWORD PTR _szTableName$[ebp]
	push	ecx
	push	OFFSET ??_C@_0BK@GEOLBLOP@SELECT?5max?$CIrowid?$CJ?5from?5?$CFs?$AA@
	lea	edx, DWORD PTR _szSQL$[ebp]
	push	edx
	call	??$sprintf_s@$0BAA@@@YAHAAY0BAA@DPBDZZ	; sprintf_s<256>
	add	esp, 12					; 0000000cH

; 329  : 	Database::Results kResults;

	push	0
	lea	ecx, DWORD PTR _kResults$[ebp]
	call	DWORD PTR __imp_??0Results@Database@@QAE@PBD@Z
	mov	DWORD PTR __$EHRec$[ebp+8], 0

; 330  : 	int maxValue = 0;

	mov	DWORD PTR _maxValue$[ebp], 0

; 331  : 	if(DB.Execute(kResults, szSQL))

	mov	eax, DWORD PTR ?gGlobals@@3VCvGlobals@@A+912
	mov	DWORD PTR $T221091[ebp], eax
	push	-1
	lea	ecx, DWORD PTR _szSQL$[ebp]
	push	ecx
	lea	edx, DWORD PTR _kResults$[ebp]
	push	edx
	mov	ecx, DWORD PTR $T221091[ebp]
	call	DWORD PTR __imp_?Execute@Connection@Database@@QBE_NAAVResults@2@PBDH@Z
	movzx	eax, al
	test	eax, eax
	je	SHORT $LN2@MaxRows

; 332  : 	{
; 333  : 		if(kResults.Step())

	lea	ecx, DWORD PTR _kResults$[ebp]
	call	DWORD PTR __imp_?Step@Results@Database@@QAE_NXZ
	movzx	ecx, al
	test	ecx, ecx
	je	SHORT $LN2@MaxRows

; 334  : 		{
; 335  : 			//Since some rowid's start at 0 in Civ, let's increase this # by 1.
; 336  : 			maxValue = kResults.GetInt(0) + 1;

	push	0
	lea	ecx, DWORD PTR _kResults$[ebp]
	call	DWORD PTR __imp_?GetInt@Results@Database@@QAEHH@Z
	add	eax, 1
	mov	DWORD PTR _maxValue$[ebp], eax
$LN2@MaxRows:

; 337  : 		}
; 338  : 	}
; 339  : 
; 340  : 	return maxValue;

	mov	edx, DWORD PTR _maxValue$[ebp]
	mov	DWORD PTR $T221086[ebp], edx
	mov	DWORD PTR __$EHRec$[ebp+8], -1
	lea	ecx, DWORD PTR _kResults$[ebp]
	call	DWORD PTR __imp_??1Results@Database@@UAE@XZ
	mov	eax, DWORD PTR $T221086[ebp]

; 341  : }

	mov	ecx, DWORD PTR __$EHRec$[ebp]
	mov	DWORD PTR fs:0, ecx
	pop	ecx
	mov	ecx, DWORD PTR __$ArrayPad$[ebp]
	xor	ecx, ebp
	call	@__security_check_cookie@4
	mov	esp, ebp
	pop	ebp
	ret	4
_TEXT	ENDS
;	COMDAT text$x
text$x	SEGMENT
__unwindfunclet$?MaxRows@CvDatabaseUtility@@QAEHPBD@Z$0:
	lea	ecx, DWORD PTR _kResults$[ebp]
	jmp	DWORD PTR __imp_??1Results@Database@@UAE@XZ
__ehhandler$?MaxRows@CvDatabaseUtility@@QAEHPBD@Z:
	mov	edx, DWORD PTR [esp+8]
	lea	eax, DWORD PTR [edx+12]
	mov	ecx, DWORD PTR [edx-352]
	xor	ecx, eax
	call	@__security_check_cookie@4
	mov	ecx, DWORD PTR [edx-76]
	xor	ecx, eax
	call	@__security_check_cookie@4
	mov	eax, OFFSET __ehfuncinfo$?MaxRows@CvDatabaseUtility@@QAEHPBD@Z
	jmp	___CxxFrameHandler3
text$x	ENDS
?MaxRows@CvDatabaseUtility@@QAEHPBD@Z ENDP		; CvDatabaseUtility::MaxRows
PUBLIC	?GetErrorMessage@CvDatabaseUtility@@QBEPBDXZ	; CvDatabaseUtility::GetErrorMessage
EXTRN	__imp_?ErrorMessage@Connection@Database@@QBEPBDXZ:PROC
; Function compile flags: /Odtp
;	COMDAT ?GetErrorMessage@CvDatabaseUtility@@QBEPBDXZ
_TEXT	SEGMENT
_this$ = -8						; size = 4
$T221103 = -4						; size = 4
?GetErrorMessage@CvDatabaseUtility@@QBEPBDXZ PROC	; CvDatabaseUtility::GetErrorMessage, COMDAT
; _this$ = ecx

; 344  : {

	push	ebp
	mov	ebp, esp
	sub	esp, 8
	mov	DWORD PTR _this$[ebp], ecx

; 345  : 	return DB.ErrorMessage();

	mov	eax, DWORD PTR ?gGlobals@@3VCvGlobals@@A+912
	mov	DWORD PTR $T221103[ebp], eax
	mov	ecx, DWORD PTR $T221103[ebp]
	call	DWORD PTR __imp_?ErrorMessage@Connection@Database@@QBEPBDXZ

; 346  : }

	mov	esp, ebp
	pop	ebp
	ret	0
?GetErrorMessage@CvDatabaseUtility@@QBEPBDXZ ENDP	; CvDatabaseUtility::GetErrorMessage
_TEXT	ENDS
PUBLIC	??1?$pair@$$CBV?$basic_string@DU?$char_traits@D@std@@V?$allocator@D@2@@std@@PAVResults@Database@@@std@@QAE@XZ ; std::pair<std::basic_string<char,std::char_traits<char>,std::allocator<char> > const ,Database::Results *>::~pair<std::basic_string<char,std::char_traits<char>,std::allocator<char> > const ,Database::Results *>
PUBLIC	?_Insert@?$_Hash@V?$_Hmap_traits@V?$basic_string@DU?$char_traits@D@std@@V?$allocator@D@2@@std@@PAVResults@Database@@V?$hash_compare@V?$basic_string@DU?$char_traits@D@std@@V?$allocator@D@2@@std@@U?$less@V?$basic_string@DU?$char_traits@D@std@@V?$allocator@D@2@@std@@@2@@stdext@@V?$allocator@U?$pair@$$CBV?$basic_string@DU?$char_traits@D@std@@V?$allocator@D@2@@std@@PAVResults@Database@@@std@@@2@$0A@@stdext@@@stdext@@IAE?AU?$pair@V?$_Iterator@$0A@@?$list@U?$pair@$$CBV?$basic_string@DU?$char_traits@D@std@@V?$allocator@D@2@@std@@PAVResults@Database@@@std@@V?$allocator@U?$pair@$$CBV?$basic_string@DU?$char_traits@D@std@@V?$allocator@D@2@@std@@PAVResults@Database@@@std@@@2@@std@@_N@std@@ABU?$pair@$$CBV?$basic_string@DU?$char_traits@D@std@@V?$allocator@D@2@@std@@PAVResults@Database@@@4@V?$_Iterator@$0A@@?$list@U?$pair@$$CBV?$basic_string@DU?$char_traits@D@std@@V?$allocator@D@2@@std@@PAVResults@Database@@@std@@V?$allocator@U?$pair@$$CBV?$basic_string@DU?$char_traits@D@std@@V?$allocator@D@2@@std@@PAVResults@Database@@@std@@@2@@4@@Z ; stdext::_Hash<stdext::_Hmap_traits<std::basic_string<char,std::char_traits<char>,std::allocator<char> >,Database::Results *,stdext::hash_compare<std::basic_string<char,std::char_traits<char>,std::allocator<char> >,std::less<std::basic_string<char,std::char_traits<char>,std::allocator<char> > > >,std::allocator<std::pair<std::basic_string<char,std::char_traits<char>,std::allocator<char> > const ,Database::Results *> >,0> >::_Insert
EXTRN	__imp_??0?$basic_string@DU?$char_traits@D@std@@V?$allocator@D@2@@std@@QAE@ABV01@@Z:PROC
;	COMDAT xdata$x
; File c:\program files (x86)\microsoft visual studio 9.0\vc\include\list
xdata$x	SEGMENT
__unwindtable$??A?$hash_map@V?$basic_string@DU?$char_traits@D@std@@V?$allocator@D@2@@std@@PAVResults@Database@@V?$hash_compare@V?$basic_string@DU?$char_traits@D@std@@V?$allocator@D@2@@std@@U?$less@V?$basic_string@DU?$char_traits@D@std@@V?$allocator@D@2@@std@@@2@@stdext@@V?$allocator@U?$pair@$$CBV?$basic_string@DU?$char_traits@D@std@@V?$allocator@D@2@@std@@PAVResults@Database@@@std@@@2@@stdext@@QAEAAPAVResults@Database@@ABV?$basic_string@DU?$char_traits@D@std@@V?$allocator@D@2@@std@@@Z DD 0ffffffffH
	DD	FLAT:__unwindfunclet$??A?$hash_map@V?$basic_string@DU?$char_traits@D@std@@V?$allocator@D@2@@std@@PAVResults@Database@@V?$hash_compare@V?$basic_string@DU?$char_traits@D@std@@V?$allocator@D@2@@std@@U?$less@V?$basic_string@DU?$char_traits@D@std@@V?$allocator@D@2@@std@@@2@@stdext@@V?$allocator@U?$pair@$$CBV?$basic_string@DU?$char_traits@D@std@@V?$allocator@D@2@@std@@PAVResults@Database@@@std@@@2@@stdext@@QAEAAPAVResults@Database@@ABV?$basic_string@DU?$char_traits@D@std@@V?$allocator@D@2@@std@@@Z$0
__ehfuncinfo$??A?$hash_map@V?$basic_string@DU?$char_traits@D@std@@V?$allocator@D@2@@std@@PAVResults@Database@@V?$hash_compare@V?$basic_string@DU?$char_traits@D@std@@V?$allocator@D@2@@std@@U?$less@V?$basic_string@DU?$char_traits@D@std@@V?$allocator@D@2@@std@@@2@@stdext@@V?$allocator@U?$pair@$$CBV?$basic_string@DU?$char_traits@D@std@@V?$allocator@D@2@@std@@PAVResults@Database@@@std@@@2@@stdext@@QAEAAPAVResults@Database@@ABV?$basic_string@DU?$char_traits@D@std@@V?$allocator@D@2@@std@@@Z DD 019930522H
	DD	01H
	DD	FLAT:__unwindtable$??A?$hash_map@V?$basic_string@DU?$char_traits@D@std@@V?$allocator@D@2@@std@@PAVResults@Database@@V?$hash_compare@V?$basic_string@DU?$char_traits@D@std@@V?$allocator@D@2@@std@@U?$less@V?$basic_string@DU?$char_traits@D@std@@V?$allocator@D@2@@std@@@2@@stdext@@V?$allocator@U?$pair@$$CBV?$basic_string@DU?$char_traits@D@std@@V?$allocator@D@2@@std@@PAVResults@Database@@@std@@@2@@stdext@@QAEAAPAVResults@Database@@ABV?$basic_string@DU?$char_traits@D@std@@V?$allocator@D@2@@std@@@Z
	DD	2 DUP(00H)
	DD	2 DUP(00H)
	DD	00H
	DD	01H
; Function compile flags: /Odtp
; File c:\program files (x86)\microsoft visual studio 9.0\vc\include\hash_map
xdata$x	ENDS
;	COMDAT ??A?$hash_map@V?$basic_string@DU?$char_traits@D@std@@V?$allocator@D@2@@std@@PAVResults@Database@@V?$hash_compare@V?$basic_string@DU?$char_traits@D@std@@V?$allocator@D@2@@std@@U?$less@V?$basic_string@DU?$char_traits@D@std@@V?$allocator@D@2@@std@@@2@@stdext@@V?$allocator@U?$pair@$$CBV?$basic_string@DU?$char_traits@D@std@@V?$allocator@D@2@@std@@PAVResults@Database@@@std@@@2@@stdext@@QAEAAPAVResults@Database@@ABV?$basic_string@DU?$char_traits@D@std@@V?$allocator@D@2@@std@@@Z
_TEXT	SEGMENT
_this$ = -132						; size = 4
$T221338 = -128						; size = 4
$T221312 = -124						; size = 4
$T221329 = -120						; size = 4
$T221278 = -116						; size = 4
$T221109 = -64						; size = 8
$T221108 = -56						; size = 4
$T221107 = -52						; size = 32
$T221106 = -20						; size = 4
__Where$ = -16						; size = 4
__$EHRec$ = -12						; size = 12
__Keyval$ = 8						; size = 4
??A?$hash_map@V?$basic_string@DU?$char_traits@D@std@@V?$allocator@D@2@@std@@PAVResults@Database@@V?$hash_compare@V?$basic_string@DU?$char_traits@D@std@@V?$allocator@D@2@@std@@U?$less@V?$basic_string@DU?$char_traits@D@std@@V?$allocator@D@2@@std@@@2@@stdext@@V?$allocator@U?$pair@$$CBV?$basic_string@DU?$char_traits@D@std@@V?$allocator@D@2@@std@@PAVResults@Database@@@std@@@2@@stdext@@QAEAAPAVResults@Database@@ABV?$basic_string@DU?$char_traits@D@std@@V?$allocator@D@2@@std@@@Z PROC ; stdext::hash_map<std::basic_string<char,std::char_traits<char>,std::allocator<char> >,Database::Results *,stdext::hash_compare<std::basic_string<char,std::char_traits<char>,std::allocator<char> >,std::less<std::basic_string<char,std::char_traits<char>,std::allocator<char> > > >,std::allocator<std::pair<std::basic_string<char,std::char_traits<char>,std::allocator<char> > const ,Database::Results *> > >::operator[], COMDAT
; _this$ = ecx

; 157  : 		{	// find element matching _Keyval or insert with default mapped

	push	ebp
	mov	ebp, esp
	push	-1
	push	__ehhandler$??A?$hash_map@V?$basic_string@DU?$char_traits@D@std@@V?$allocator@D@2@@std@@PAVResults@Database@@V?$hash_compare@V?$basic_string@DU?$char_traits@D@std@@V?$allocator@D@2@@std@@U?$less@V?$basic_string@DU?$char_traits@D@std@@V?$allocator@D@2@@std@@@2@@stdext@@V?$allocator@U?$pair@$$CBV?$basic_string@DU?$char_traits@D@std@@V?$allocator@D@2@@std@@PAVResults@Database@@@std@@@2@@stdext@@QAEAAPAVResults@Database@@ABV?$basic_string@DU?$char_traits@D@std@@V?$allocator@D@2@@std@@@Z
	mov	eax, DWORD PTR fs:0
	push	eax
	sub	esp, 120				; 00000078H
	mov	eax, DWORD PTR ___security_cookie
	xor	eax, ebp
	push	eax
	lea	eax, DWORD PTR __$EHRec$[ebp]
	mov	DWORD PTR fs:0, eax
	mov	DWORD PTR _this$[ebp], ecx

; 158  : 		iterator _Where = this->lower_bound(_Keyval);

	mov	eax, DWORD PTR __Keyval$[ebp]
	push	eax
	lea	ecx, DWORD PTR __Where$[ebp]
	push	ecx
	mov	ecx, DWORD PTR _this$[ebp]
	call	?lower_bound@?$_Hash@V?$_Hmap_traits@V?$basic_string@DU?$char_traits@D@std@@V?$allocator@D@2@@std@@PAVResults@Database@@V?$hash_compare@V?$basic_string@DU?$char_traits@D@std@@V?$allocator@D@2@@std@@U?$less@V?$basic_string@DU?$char_traits@D@std@@V?$allocator@D@2@@std@@@2@@stdext@@V?$allocator@U?$pair@$$CBV?$basic_string@DU?$char_traits@D@std@@V?$allocator@D@2@@std@@PAVResults@Database@@@std@@@2@$0A@@stdext@@@stdext@@QAE?AV?$_Iterator@$0A@@?$list@U?$pair@$$CBV?$basic_string@DU?$char_traits@D@std@@V?$allocator@D@2@@std@@PAVResults@Database@@@std@@V?$allocator@U?$pair@$$CBV?$basic_string@DU?$char_traits@D@std@@V?$allocator@D@2@@std@@PAVResults@Database@@@std@@@2@@std@@ABV?$basic_string@DU?$char_traits@D@std@@V?$allocator@D@2@@5@@Z ; stdext::_Hash<stdext::_Hmap_traits<std::basic_string<char,std::char_traits<char>,std::allocator<char> >,Database::Results *,stdext::hash_compare<std::basic_string<char,std::char_traits<char>,std::allocator<char> >,std::less<std::basic_string<char,std::char_traits<char>,std::allocator<char> > > >,std::allocator<std::pair<std::basic_string<char,std::char_traits<char>,std::allocator<char> > const ,Database::Results *> >,0> >::lower_bound

; 159  : 		if (_Where == this->end())

	mov	edx, DWORD PTR _this$[ebp]
	mov	eax, DWORD PTR [edx+8]
	mov	DWORD PTR $T221278[ebp], eax
	mov	ecx, DWORD PTR $T221278[ebp]
	mov	DWORD PTR $T221106[ebp], ecx
	mov	edx, DWORD PTR __Where$[ebp]
	xor	eax, eax
	cmp	edx, DWORD PTR $T221106[ebp]
	sete	al
	movzx	ecx, al
	test	ecx, ecx
	je	SHORT $LN102@operator

; 160  : 			_Where = this->insert(value_type(_Keyval, mapped_type())).first;

	mov	DWORD PTR $T221108[ebp], 0
	mov	edx, DWORD PTR __Keyval$[ebp]
	push	edx
	lea	ecx, DWORD PTR $T221107[ebp]
	call	DWORD PTR __imp_??0?$basic_string@DU?$char_traits@D@std@@V?$allocator@D@2@@std@@QAE@ABV01@@Z
	mov	eax, DWORD PTR $T221108[ebp]
	mov	DWORD PTR $T221107[ebp+28], eax
	lea	ecx, DWORD PTR $T221107[ebp]
	mov	DWORD PTR $T221338[ebp], ecx
	mov	DWORD PTR __$EHRec$[ebp+8], 0
	mov	edx, DWORD PTR _this$[ebp]
	mov	eax, DWORD PTR [edx+8]
	mov	DWORD PTR $T221312[ebp], eax
	mov	ecx, DWORD PTR $T221312[ebp]
	mov	DWORD PTR $T221329[ebp], ecx
	mov	edx, DWORD PTR $T221329[ebp]
	push	edx
	mov	eax, DWORD PTR $T221338[ebp]
	push	eax
	lea	ecx, DWORD PTR $T221109[ebp]
	push	ecx
	mov	ecx, DWORD PTR _this$[ebp]
	call	?_Insert@?$_Hash@V?$_Hmap_traits@V?$basic_string@DU?$char_traits@D@std@@V?$allocator@D@2@@std@@PAVResults@Database@@V?$hash_compare@V?$basic_string@DU?$char_traits@D@std@@V?$allocator@D@2@@std@@U?$less@V?$basic_string@DU?$char_traits@D@std@@V?$allocator@D@2@@std@@@2@@stdext@@V?$allocator@U?$pair@$$CBV?$basic_string@DU?$char_traits@D@std@@V?$allocator@D@2@@std@@PAVResults@Database@@@std@@@2@$0A@@stdext@@@stdext@@IAE?AU?$pair@V?$_Iterator@$0A@@?$list@U?$pair@$$CBV?$basic_string@DU?$char_traits@D@std@@V?$allocator@D@2@@std@@PAVResults@Database@@@std@@V?$allocator@U?$pair@$$CBV?$basic_string@DU?$char_traits@D@std@@V?$allocator@D@2@@std@@PAVResults@Database@@@std@@@2@@std@@_N@std@@ABU?$pair@$$CBV?$basic_string@DU?$char_traits@D@std@@V?$allocator@D@2@@std@@PAVResults@Database@@@4@V?$_Iterator@$0A@@?$list@U?$pair@$$CBV?$basic_string@DU?$char_traits@D@std@@V?$allocator@D@2@@std@@PAVResults@Database@@@std@@V?$allocator@U?$pair@$$CBV?$basic_string@DU?$char_traits@D@std@@V?$allocator@D@2@@std@@PAVResults@Database@@@std@@@2@@4@@Z ; stdext::_Hash<stdext::_Hmap_traits<std::basic_string<char,std::char_traits<char>,std::allocator<char> >,Database::Results *,stdext::hash_compare<std::basic_string<char,std::char_traits<char>,std::allocator<char> >,std::less<std::basic_string<char,std::char_traits<char>,std::allocator<char> > > >,std::allocator<std::pair<std::basic_string<char,std::char_traits<char>,std::allocator<char> > const ,Database::Results *> >,0> >::_Insert
	mov	edx, DWORD PTR $T221109[ebp]
	mov	DWORD PTR __Where$[ebp], edx
	mov	DWORD PTR __$EHRec$[ebp+8], -1
	lea	ecx, DWORD PTR $T221107[ebp]
	call	DWORD PTR __imp_??1?$basic_string@DU?$char_traits@D@std@@V?$allocator@D@2@@std@@QAE@XZ

; 161  : 		return ((*_Where).second);

$LN102@operator:
	mov	eax, DWORD PTR __Where$[ebp]
	add	eax, 36					; 00000024H

; 162  : 		}

	mov	ecx, DWORD PTR __$EHRec$[ebp]
	mov	DWORD PTR fs:0, ecx
	pop	ecx
	mov	esp, ebp
	pop	ebp
	ret	4
_TEXT	ENDS
;	COMDAT text$x
text$x	SEGMENT
__unwindfunclet$??A?$hash_map@V?$basic_string@DU?$char_traits@D@std@@V?$allocator@D@2@@std@@PAVResults@Database@@V?$hash_compare@V?$basic_string@DU?$char_traits@D@std@@V?$allocator@D@2@@std@@U?$less@V?$basic_string@DU?$char_traits@D@std@@V?$allocator@D@2@@std@@@2@@stdext@@V?$allocator@U?$pair@$$CBV?$basic_string@DU?$char_traits@D@std@@V?$allocator@D@2@@std@@PAVResults@Database@@@std@@@2@@stdext@@QAEAAPAVResults@Database@@ABV?$basic_string@DU?$char_traits@D@std@@V?$allocator@D@2@@std@@@Z$0:
	lea	ecx, DWORD PTR $T221107[ebp]
	jmp	??1?$pair@$$CBV?$basic_string@DU?$char_traits@D@std@@V?$allocator@D@2@@std@@PAVResults@Database@@@std@@QAE@XZ
__ehhandler$??A?$hash_map@V?$basic_string@DU?$char_traits@D@std@@V?$allocator@D@2@@std@@PAVResults@Database@@V?$hash_compare@V?$basic_string@DU?$char_traits@D@std@@V?$allocator@D@2@@std@@U?$less@V?$basic_string@DU?$char_traits@D@std@@V?$allocator@D@2@@std@@@2@@stdext@@V?$allocator@U?$pair@$$CBV?$basic_string@DU?$char_traits@D@std@@V?$allocator@D@2@@std@@PAVResults@Database@@@std@@@2@@stdext@@QAEAAPAVResults@Database@@ABV?$basic_string@DU?$char_traits@D@std@@V?$allocator@D@2@@std@@@Z:
	mov	edx, DWORD PTR [esp+8]
	lea	eax, DWORD PTR [edx+12]
	mov	ecx, DWORD PTR [edx-124]
	xor	ecx, eax
	call	@__security_check_cookie@4
	mov	eax, OFFSET __ehfuncinfo$??A?$hash_map@V?$basic_string@DU?$char_traits@D@std@@V?$allocator@D@2@@std@@PAVResults@Database@@V?$hash_compare@V?$basic_string@DU?$char_traits@D@std@@V?$allocator@D@2@@std@@U?$less@V?$basic_string@DU?$char_traits@D@std@@V?$allocator@D@2@@std@@@2@@stdext@@V?$allocator@U?$pair@$$CBV?$basic_string@DU?$char_traits@D@std@@V?$allocator@D@2@@std@@PAVResults@Database@@@std@@@2@@stdext@@QAEAAPAVResults@Database@@ABV?$basic_string@DU?$char_traits@D@std@@V?$allocator@D@2@@std@@@Z
	jmp	___CxxFrameHandler3
text$x	ENDS
??A?$hash_map@V?$basic_string@DU?$char_traits@D@std@@V?$allocator@D@2@@std@@PAVResults@Database@@V?$hash_compare@V?$basic_string@DU?$char_traits@D@std@@V?$allocator@D@2@@std@@U?$less@V?$basic_string@DU?$char_traits@D@std@@V?$allocator@D@2@@std@@@2@@stdext@@V?$allocator@U?$pair@$$CBV?$basic_string@DU?$char_traits@D@std@@V?$allocator@D@2@@std@@PAVResults@Database@@@std@@@2@@stdext@@QAEAAPAVResults@Database@@ABV?$basic_string@DU?$char_traits@D@std@@V?$allocator@D@2@@std@@@Z ENDP ; stdext::hash_map<std::basic_string<char,std::char_traits<char>,std::allocator<char> >,Database::Results *,stdext::hash_compare<std::basic_string<char,std::char_traits<char>,std::allocator<char> >,std::less<std::basic_string<char,std::char_traits<char>,std::allocator<char> > > >,std::allocator<std::pair<std::basic_string<char,std::char_traits<char>,std::allocator<char> > const ,Database::Results *> > >::operator[]
PUBLIC	??1?$_List_val@U?$pair@$$CBV?$basic_string@DU?$char_traits@D@std@@V?$allocator@D@2@@std@@PAVResults@Database@@@std@@V?$allocator@U?$pair@$$CBV?$basic_string@DU?$char_traits@D@std@@V?$allocator@D@2@@std@@PAVResults@Database@@@std@@@2@@std@@QAE@XZ ; std::_List_val<std::pair<std::basic_string<char,std::char_traits<char>,std::allocator<char> > const ,Database::Results *>,std::allocator<std::pair<std::basic_string<char,std::char_traits<char>,std::allocator<char> > const ,Database::Results *> > >::~_List_val<std::pair<std::basic_string<char,std::char_traits<char>,std::allocator<char> > const ,Database::Results *>,std::allocator<std::pair<std::basic_string<char,std::char_traits<char>,std::allocator<char> > const ,Database::Results *> > >
PUBLIC	??1?$_Vector_val@V?$_Iterator@$0A@@?$list@U?$pair@$$CBV?$basic_string@DU?$char_traits@D@std@@V?$allocator@D@2@@std@@PAVResults@Database@@@std@@V?$allocator@U?$pair@$$CBV?$basic_string@DU?$char_traits@D@std@@V?$allocator@D@2@@std@@PAVResults@Database@@@std@@@2@@std@@V?$allocator@V?$_Iterator@$0A@@?$list@U?$pair@$$CBV?$basic_string@DU?$char_traits@D@std@@V?$allocator@D@2@@std@@PAVResults@Database@@@std@@V?$allocator@U?$pair@$$CBV?$basic_string@DU?$char_traits@D@std@@V?$allocator@D@2@@std@@PAVResults@Database@@@std@@@2@@std@@@3@@std@@QAE@XZ ; std::_Vector_val<std::list<std::pair<std::basic_string<char,std::char_traits<char>,std::allocator<char> > const ,Database::Results *>,std::allocator<std::pair<std::basic_string<char,std::char_traits<char>,std::allocator<char> > const ,Database::Results *> > >::_Iterator<0>,std::allocator<std::list<std::pair<std::basic_string<char,std::char_traits<char>,std::allocator<char> > const ,Database::Results *>,std::allocator<std::pair<std::basic_string<char,std::char_traits<char>,std::allocator<char> > const ,Database::Results *> > >::_Iterator<0> > >::~_Vector_val<std::list<std::pair<std::basic_string<char,std::char_traits<char>,std::allocator<char> > const ,Database::Results *>,std::allocator<std::pair<std::basic_string<char,std::char_traits<char>,std::allocator<char> > const ,Database::Results *> > >::_Iterator<0>,std::allocator<std::list<std::pair<std::basic_string<char,std::char_traits<char>,std::allocator<char> > const ,Database::Results *>,std::allocator<std::pair<std::basic_string<char,std::char_traits<char>,std::allocator<char> > const ,Database::Results *> > >::_Iterator<0> > >
PUBLIC	??1?$list@U?$pair@$$CBV?$basic_string@DU?$char_traits@D@std@@V?$allocator@D@2@@std@@PAVResults@Database@@@std@@V?$allocator@U?$pair@$$CBV?$basic_string@DU?$char_traits@D@std@@V?$allocator@D@2@@std@@PAVResults@Database@@@std@@@2@@std@@QAE@XZ ; std::list<std::pair<std::basic_string<char,std::char_traits<char>,std::allocator<char> > const ,Database::Results *>,std::allocator<std::pair<std::basic_string<char,std::char_traits<char>,std::allocator<char> > const ,Database::Results *> > >::~list<std::pair<std::basic_string<char,std::char_traits<char>,std::allocator<char> > const ,Database::Results *>,std::allocator<std::pair<std::basic_string<char,std::char_traits<char>,std::allocator<char> > const ,Database::Results *> > >
PUBLIC	?_Tidy@?$vector@V?$_Iterator@$0A@@?$list@U?$pair@$$CBV?$basic_string@DU?$char_traits@D@std@@V?$allocator@D@2@@std@@PAVResults@Database@@@std@@V?$allocator@U?$pair@$$CBV?$basic_string@DU?$char_traits@D@std@@V?$allocator@D@2@@std@@PAVResults@Database@@@std@@@2@@std@@V?$allocator@V?$_Iterator@$0A@@?$list@U?$pair@$$CBV?$basic_string@DU?$char_traits@D@std@@V?$allocator@D@2@@std@@PAVResults@Database@@@std@@V?$allocator@U?$pair@$$CBV?$basic_string@DU?$char_traits@D@std@@V?$allocator@D@2@@std@@PAVResults@Database@@@std@@@2@@std@@@3@@std@@IAEXXZ ; std::vector<std::list<std::pair<std::basic_string<char,std::char_traits<char>,std::allocator<char> > const ,Database::Results *>,std::allocator<std::pair<std::basic_string<char,std::char_traits<char>,std::allocator<char> > const ,Database::Results *> > >::_Iterator<0>,std::allocator<std::list<std::pair<std::basic_string<char,std::char_traits<char>,std::allocator<char> > const ,Database::Results *>,std::allocator<std::pair<std::basic_string<char,std::char_traits<char>,std::allocator<char> > const ,Database::Results *> > >::_Iterator<0> > >::_Tidy
EXTRN	??3@YAXPAX@Z:PROC				; operator delete
;	COMDAT xdata$x
; File c:\program files (x86)\microsoft visual studio 9.0\vc\include\xutility
xdata$x	SEGMENT
__unwindtable$??1?$_Hash@V?$_Hmap_traits@V?$basic_string@DU?$char_traits@D@std@@V?$allocator@D@2@@std@@PAVResults@Database@@V?$hash_compare@V?$basic_string@DU?$char_traits@D@std@@V?$allocator@D@2@@std@@U?$less@V?$basic_string@DU?$char_traits@D@std@@V?$allocator@D@2@@std@@@2@@stdext@@V?$allocator@U?$pair@$$CBV?$basic_string@DU?$char_traits@D@std@@V?$allocator@D@2@@std@@PAVResults@Database@@@std@@@2@$0A@@stdext@@@stdext@@QAE@XZ DD 0ffffffffH
	DD	FLAT:__unwindfunclet$??1?$_Hash@V?$_Hmap_traits@V?$basic_string@DU?$char_traits@D@std@@V?$allocator@D@2@@std@@PAVResults@Database@@V?$hash_compare@V?$basic_string@DU?$char_traits@D@std@@V?$allocator@D@2@@std@@U?$less@V?$basic_string@DU?$char_traits@D@std@@V?$allocator@D@2@@std@@@2@@stdext@@V?$allocator@U?$pair@$$CBV?$basic_string@DU?$char_traits@D@std@@V?$allocator@D@2@@std@@PAVResults@Database@@@std@@@2@$0A@@stdext@@@stdext@@QAE@XZ$0
	DD	00H
	DD	FLAT:__unwindfunclet$??1?$_Hash@V?$_Hmap_traits@V?$basic_string@DU?$char_traits@D@std@@V?$allocator@D@2@@std@@PAVResults@Database@@V?$hash_compare@V?$basic_string@DU?$char_traits@D@std@@V?$allocator@D@2@@std@@U?$less@V?$basic_string@DU?$char_traits@D@std@@V?$allocator@D@2@@std@@@2@@stdext@@V?$allocator@U?$pair@$$CBV?$basic_string@DU?$char_traits@D@std@@V?$allocator@D@2@@std@@PAVResults@Database@@@std@@@2@$0A@@stdext@@@stdext@@QAE@XZ$2
	DD	0ffffffffH
	DD	FLAT:__unwindfunclet$??1?$_Hash@V?$_Hmap_traits@V?$basic_string@DU?$char_traits@D@std@@V?$allocator@D@2@@std@@PAVResults@Database@@V?$hash_compare@V?$basic_string@DU?$char_traits@D@std@@V?$allocator@D@2@@std@@U?$less@V?$basic_string@DU?$char_traits@D@std@@V?$allocator@D@2@@std@@@2@@stdext@@V?$allocator@U?$pair@$$CBV?$basic_string@DU?$char_traits@D@std@@V?$allocator@D@2@@std@@PAVResults@Database@@@std@@@2@$0A@@stdext@@@stdext@@QAE@XZ$4
__ehfuncinfo$??1?$_Hash@V?$_Hmap_traits@V?$basic_string@DU?$char_traits@D@std@@V?$allocator@D@2@@std@@PAVResults@Database@@V?$hash_compare@V?$basic_string@DU?$char_traits@D@std@@V?$allocator@D@2@@std@@U?$less@V?$basic_string@DU?$char_traits@D@std@@V?$allocator@D@2@@std@@@2@@stdext@@V?$allocator@U?$pair@$$CBV?$basic_string@DU?$char_traits@D@std@@V?$allocator@D@2@@std@@PAVResults@Database@@@std@@@2@$0A@@stdext@@@stdext@@QAE@XZ DD 019930522H
	DD	03H
	DD	FLAT:__unwindtable$??1?$_Hash@V?$_Hmap_traits@V?$basic_string@DU?$char_traits@D@std@@V?$allocator@D@2@@std@@PAVResults@Database@@V?$hash_compare@V?$basic_string@DU?$char_traits@D@std@@V?$allocator@D@2@@std@@U?$less@V?$basic_string@DU?$char_traits@D@std@@V?$allocator@D@2@@std@@@2@@stdext@@V?$allocator@U?$pair@$$CBV?$basic_string@DU?$char_traits@D@std@@V?$allocator@D@2@@std@@PAVResults@Database@@@std@@@2@$0A@@stdext@@@stdext@@QAE@XZ
	DD	2 DUP(00H)
	DD	2 DUP(00H)
	DD	00H
	DD	01H
; Function compile flags: /Odtp
; File c:\program files (x86)\microsoft visual studio 9.0\vc\include\xhash
xdata$x	ENDS
;	COMDAT ??1?$_Hash@V?$_Hmap_traits@V?$basic_string@DU?$char_traits@D@std@@V?$allocator@D@2@@std@@PAVResults@Database@@V?$hash_compare@V?$basic_string@DU?$char_traits@D@std@@V?$allocator@D@2@@std@@U?$less@V?$basic_string@DU?$char_traits@D@std@@V?$allocator@D@2@@std@@@2@@stdext@@V?$allocator@U?$pair@$$CBV?$basic_string@DU?$char_traits@D@std@@V?$allocator@D@2@@std@@PAVResults@Database@@@std@@@2@$0A@@stdext@@@stdext@@QAE@XZ
_TEXT	SEGMENT
_this$ = -84						; size = 4
$T221612 = -80						; size = 4
$T221542 = -76						; size = 4
$T221519 = -72						; size = 4
$T221453 = -48						; size = 4
__$EHRec$ = -12						; size = 12
??1?$_Hash@V?$_Hmap_traits@V?$basic_string@DU?$char_traits@D@std@@V?$allocator@D@2@@std@@PAVResults@Database@@V?$hash_compare@V?$basic_string@DU?$char_traits@D@std@@V?$allocator@D@2@@std@@U?$less@V?$basic_string@DU?$char_traits@D@std@@V?$allocator@D@2@@std@@@2@@stdext@@V?$allocator@U?$pair@$$CBV?$basic_string@DU?$char_traits@D@std@@V?$allocator@D@2@@std@@PAVResults@Database@@@std@@@2@$0A@@stdext@@@stdext@@QAE@XZ PROC ; stdext::_Hash<stdext::_Hmap_traits<std::basic_string<char,std::char_traits<char>,std::allocator<char> >,Database::Results *,stdext::hash_compare<std::basic_string<char,std::char_traits<char>,std::allocator<char> >,std::less<std::basic_string<char,std::char_traits<char>,std::allocator<char> > > >,std::allocator<std::pair<std::basic_string<char,std::char_traits<char>,std::allocator<char> > const ,Database::Results *> >,0> >::~_Hash<stdext::_Hmap_traits<std::basic_string<char,std::char_traits<char>,std::allocator<char> >,Database::Results *,stdext::hash_compare<std::basic_string<char,std::char_traits<char>,std::allocator<char> >,std::less<std::basic_string<char,std::char_traits<char>,std::allocator<char> > > >,std::allocator<std::pair<std::basic_string<char,std::char_traits<char>,std::allocator<char> > const ,Database::Results *> >,0> >, COMDAT
; _this$ = ecx

; 365  : 		{	// destroy hash table

	push	ebp
	mov	ebp, esp
	push	-1
	push	__ehhandler$??1?$_Hash@V?$_Hmap_traits@V?$basic_string@DU?$char_traits@D@std@@V?$allocator@D@2@@std@@PAVResults@Database@@V?$hash_compare@V?$basic_string@DU?$char_traits@D@std@@V?$allocator@D@2@@std@@U?$less@V?$basic_string@DU?$char_traits@D@std@@V?$allocator@D@2@@std@@@2@@stdext@@V?$allocator@U?$pair@$$CBV?$basic_string@DU?$char_traits@D@std@@V?$allocator@D@2@@std@@PAVResults@Database@@@std@@@2@$0A@@stdext@@@stdext@@QAE@XZ
	mov	eax, DWORD PTR fs:0
	push	eax
	sub	esp, 72					; 00000048H
	mov	eax, DWORD PTR ___security_cookie
	xor	eax, ebp
	push	eax
	lea	eax, DWORD PTR __$EHRec$[ebp]
	mov	DWORD PTR fs:0, eax
	mov	DWORD PTR _this$[ebp], ecx
	mov	DWORD PTR __$EHRec$[ebp+8], 0

; 366  : 		}

	mov	eax, DWORD PTR _this$[ebp]
	add	eax, 16					; 00000010H
	mov	DWORD PTR $T221453[ebp], eax
	mov	BYTE PTR __$EHRec$[ebp+8], 1
	mov	ecx, DWORD PTR $T221453[ebp]
	call	?_Tidy@?$vector@V?$_Iterator@$0A@@?$list@U?$pair@$$CBV?$basic_string@DU?$char_traits@D@std@@V?$allocator@D@2@@std@@PAVResults@Database@@@std@@V?$allocator@U?$pair@$$CBV?$basic_string@DU?$char_traits@D@std@@V?$allocator@D@2@@std@@PAVResults@Database@@@std@@@2@@std@@V?$allocator@V?$_Iterator@$0A@@?$list@U?$pair@$$CBV?$basic_string@DU?$char_traits@D@std@@V?$allocator@D@2@@std@@PAVResults@Database@@@std@@V?$allocator@U?$pair@$$CBV?$basic_string@DU?$char_traits@D@std@@V?$allocator@D@2@@std@@PAVResults@Database@@@std@@@2@@std@@@3@@std@@IAEXXZ ; std::vector<std::list<std::pair<std::basic_string<char,std::char_traits<char>,std::allocator<char> > const ,Database::Results *>,std::allocator<std::pair<std::basic_string<char,std::char_traits<char>,std::allocator<char> > const ,Database::Results *> > >::_Iterator<0>,std::allocator<std::list<std::pair<std::basic_string<char,std::char_traits<char>,std::allocator<char> > const ,Database::Results *>,std::allocator<std::pair<std::basic_string<char,std::char_traits<char>,std::allocator<char> > const ,Database::Results *> > >::_Iterator<0> > >::_Tidy
	mov	BYTE PTR __$EHRec$[ebp+8], 0
	mov	DWORD PTR __$EHRec$[ebp+8], -1
	mov	ecx, DWORD PTR _this$[ebp]
	add	ecx, 4
	mov	DWORD PTR $T221612[ebp], ecx
	mov	DWORD PTR __$EHRec$[ebp+8], 2
	mov	ecx, DWORD PTR $T221612[ebp]
	call	?clear@?$list@U?$pair@$$CBV?$basic_string@DU?$char_traits@D@std@@V?$allocator@D@2@@std@@PAVResults@Database@@@std@@V?$allocator@U?$pair@$$CBV?$basic_string@DU?$char_traits@D@std@@V?$allocator@D@2@@std@@PAVResults@Database@@@std@@@2@@std@@QAEXXZ ; std::list<std::pair<std::basic_string<char,std::char_traits<char>,std::allocator<char> > const ,Database::Results *>,std::allocator<std::pair<std::basic_string<char,std::char_traits<char>,std::allocator<char> > const ,Database::Results *> > >::clear
	mov	edx, DWORD PTR $T221612[ebp]
	mov	eax, DWORD PTR [edx+4]
	mov	DWORD PTR $T221519[ebp], eax
	mov	ecx, DWORD PTR $T221612[ebp]
	mov	edx, DWORD PTR [ecx+4]
	mov	DWORD PTR $T221542[ebp], edx
	mov	eax, DWORD PTR $T221542[ebp]
	push	eax
	call	??3@YAXPAX@Z				; operator delete
	add	esp, 4
	mov	ecx, DWORD PTR $T221612[ebp]
	mov	DWORD PTR [ecx+4], 0
	mov	DWORD PTR __$EHRec$[ebp+8], -1
	mov	ecx, DWORD PTR __$EHRec$[ebp]
	mov	DWORD PTR fs:0, ecx
	pop	ecx
	mov	esp, ebp
	pop	ebp
	ret	0
_TEXT	ENDS
;	COMDAT text$x
text$x	SEGMENT
__unwindfunclet$??1?$_Hash@V?$_Hmap_traits@V?$basic_string@DU?$char_traits@D@std@@V?$allocator@D@2@@std@@PAVResults@Database@@V?$hash_compare@V?$basic_string@DU?$char_traits@D@std@@V?$allocator@D@2@@std@@U?$less@V?$basic_string@DU?$char_traits@D@std@@V?$allocator@D@2@@std@@@2@@stdext@@V?$allocator@U?$pair@$$CBV?$basic_string@DU?$char_traits@D@std@@V?$allocator@D@2@@std@@PAVResults@Database@@@std@@@2@$0A@@stdext@@@stdext@@QAE@XZ$0:
	mov	ecx, DWORD PTR _this$[ebp]
	add	ecx, 4
	jmp	??1?$list@U?$pair@$$CBV?$basic_string@DU?$char_traits@D@std@@V?$allocator@D@2@@std@@PAVResults@Database@@@std@@V?$allocator@U?$pair@$$CBV?$basic_string@DU?$char_traits@D@std@@V?$allocator@D@2@@std@@PAVResults@Database@@@std@@@2@@std@@QAE@XZ ; std::list<std::pair<std::basic_string<char,std::char_traits<char>,std::allocator<char> > const ,Database::Results *>,std::allocator<std::pair<std::basic_string<char,std::char_traits<char>,std::allocator<char> > const ,Database::Results *> > >::~list<std::pair<std::basic_string<char,std::char_traits<char>,std::allocator<char> > const ,Database::Results *>,std::allocator<std::pair<std::basic_string<char,std::char_traits<char>,std::allocator<char> > const ,Database::Results *> > >
__unwindfunclet$??1?$_Hash@V?$_Hmap_traits@V?$basic_string@DU?$char_traits@D@std@@V?$allocator@D@2@@std@@PAVResults@Database@@V?$hash_compare@V?$basic_string@DU?$char_traits@D@std@@V?$allocator@D@2@@std@@U?$less@V?$basic_string@DU?$char_traits@D@std@@V?$allocator@D@2@@std@@@2@@stdext@@V?$allocator@U?$pair@$$CBV?$basic_string@DU?$char_traits@D@std@@V?$allocator@D@2@@std@@PAVResults@Database@@@std@@@2@$0A@@stdext@@@stdext@@QAE@XZ$2:
	mov	ecx, DWORD PTR $T221453[ebp]
	jmp	??1?$_Vector_val@V?$_Iterator@$0A@@?$list@U?$pair@$$CBV?$basic_string@DU?$char_traits@D@std@@V?$allocator@D@2@@std@@PAVResults@Database@@@std@@V?$allocator@U?$pair@$$CBV?$basic_string@DU?$char_traits@D@std@@V?$allocator@D@2@@std@@PAVResults@Database@@@std@@@2@@std@@V?$allocator@V?$_Iterator@$0A@@?$list@U?$pair@$$CBV?$basic_string@DU?$char_traits@D@std@@V?$allocator@D@2@@std@@PAVResults@Database@@@std@@V?$allocator@U?$pair@$$CBV?$basic_string@DU?$char_traits@D@std@@V?$allocator@D@2@@std@@PAVResults@Database@@@std@@@2@@std@@@3@@std@@QAE@XZ
__unwindfunclet$??1?$_Hash@V?$_Hmap_traits@V?$basic_string@DU?$char_traits@D@std@@V?$allocator@D@2@@std@@PAVResults@Database@@V?$hash_compare@V?$basic_string@DU?$char_traits@D@std@@V?$allocator@D@2@@std@@U?$less@V?$basic_string@DU?$char_traits@D@std@@V?$allocator@D@2@@std@@@2@@stdext@@V?$allocator@U?$pair@$$CBV?$basic_string@DU?$char_traits@D@std@@V?$allocator@D@2@@std@@PAVResults@Database@@@std@@@2@$0A@@stdext@@@stdext@@QAE@XZ$4:
	mov	ecx, DWORD PTR $T221612[ebp]
	jmp	??1?$_List_val@U?$pair@$$CBV?$basic_string@DU?$char_traits@D@std@@V?$allocator@D@2@@std@@PAVResults@Database@@@std@@V?$allocator@U?$pair@$$CBV?$basic_string@DU?$char_traits@D@std@@V?$allocator@D@2@@std@@PAVResults@Database@@@std@@@2@@std@@QAE@XZ
__ehhandler$??1?$_Hash@V?$_Hmap_traits@V?$basic_string@DU?$char_traits@D@std@@V?$allocator@D@2@@std@@PAVResults@Database@@V?$hash_compare@V?$basic_string@DU?$char_traits@D@std@@V?$allocator@D@2@@std@@U?$less@V?$basic_string@DU?$char_traits@D@std@@V?$allocator@D@2@@std@@@2@@stdext@@V?$allocator@U?$pair@$$CBV?$basic_string@DU?$char_traits@D@std@@V?$allocator@D@2@@std@@PAVResults@Database@@@std@@@2@$0A@@stdext@@@stdext@@QAE@XZ:
	mov	edx, DWORD PTR [esp+8]
	lea	eax, DWORD PTR [edx+12]
	mov	ecx, DWORD PTR [edx-76]
	xor	ecx, eax
	call	@__security_check_cookie@4
	mov	eax, OFFSET __ehfuncinfo$??1?$_Hash@V?$_Hmap_traits@V?$basic_string@DU?$char_traits@D@std@@V?$allocator@D@2@@std@@PAVResults@Database@@V?$hash_compare@V?$basic_string@DU?$char_traits@D@std@@V?$allocator@D@2@@std@@U?$less@V?$basic_string@DU?$char_traits@D@std@@V?$allocator@D@2@@std@@@2@@stdext@@V?$allocator@U?$pair@$$CBV?$basic_string@DU?$char_traits@D@std@@V?$allocator@D@2@@std@@PAVResults@Database@@@std@@@2@$0A@@stdext@@@stdext@@QAE@XZ
	jmp	___CxxFrameHandler3
text$x	ENDS
??1?$_Hash@V?$_Hmap_traits@V?$basic_string@DU?$char_traits@D@std@@V?$allocator@D@2@@std@@PAVResults@Database@@V?$hash_compare@V?$basic_string@DU?$char_traits@D@std@@V?$allocator@D@2@@std@@U?$less@V?$basic_string@DU?$char_traits@D@std@@V?$allocator@D@2@@std@@@2@@stdext@@V?$allocator@U?$pair@$$CBV?$basic_string@DU?$char_traits@D@std@@V?$allocator@D@2@@std@@PAVResults@Database@@@std@@@2@$0A@@stdext@@@stdext@@QAE@XZ ENDP ; stdext::_Hash<stdext::_Hmap_traits<std::basic_string<char,std::char_traits<char>,std::allocator<char> >,Database::Results *,stdext::hash_compare<std::basic_string<char,std::char_traits<char>,std::allocator<char> >,std::less<std::basic_string<char,std::char_traits<char>,std::allocator<char> > > >,std::allocator<std::pair<std::basic_string<char,std::char_traits<char>,std::allocator<char> > const ,Database::Results *> >,0> >::~_Hash<stdext::_Hmap_traits<std::basic_string<char,std::char_traits<char>,std::allocator<char> >,Database::Results *,stdext::hash_compare<std::basic_string<char,std::char_traits<char>,std::allocator<char> >,std::less<std::basic_string<char,std::char_traits<char>,std::allocator<char> > > >,std::allocator<std::pair<std::basic_string<char,std::char_traits<char>,std::allocator<char> > const ,Database::Results *> >,0> >
PUBLIC	?erase@?$_Hash@V?$_Hmap_traits@V?$basic_string@DU?$char_traits@D@std@@V?$allocator@D@2@@std@@PAVResults@Database@@V?$hash_compare@V?$basic_string@DU?$char_traits@D@std@@V?$allocator@D@2@@std@@U?$less@V?$basic_string@DU?$char_traits@D@std@@V?$allocator@D@2@@std@@@2@@stdext@@V?$allocator@U?$pair@$$CBV?$basic_string@DU?$char_traits@D@std@@V?$allocator@D@2@@std@@PAVResults@Database@@@std@@@2@$0A@@stdext@@@stdext@@QAE?AV?$_Iterator@$0A@@?$list@U?$pair@$$CBV?$basic_string@DU?$char_traits@D@std@@V?$allocator@D@2@@std@@PAVResults@Database@@@std@@V?$allocator@U?$pair@$$CBV?$basic_string@DU?$char_traits@D@std@@V?$allocator@D@2@@std@@PAVResults@Database@@@std@@@2@@std@@V?$_Const_iterator@$0A@@45@0@Z ; stdext::_Hash<stdext::_Hmap_traits<std::basic_string<char,std::char_traits<char>,std::allocator<char> >,Database::Results *,stdext::hash_compare<std::basic_string<char,std::char_traits<char>,std::allocator<char> >,std::less<std::basic_string<char,std::char_traits<char>,std::allocator<char> > > >,std::allocator<std::pair<std::basic_string<char,std::char_traits<char>,std::allocator<char> > const ,Database::Results *> >,0> >::erase
PUBLIC	?equal_range@?$_Hash@V?$_Hmap_traits@V?$basic_string@DU?$char_traits@D@std@@V?$allocator@D@2@@std@@PAVResults@Database@@V?$hash_compare@V?$basic_string@DU?$char_traits@D@std@@V?$allocator@D@2@@std@@U?$less@V?$basic_string@DU?$char_traits@D@std@@V?$allocator@D@2@@std@@@2@@stdext@@V?$allocator@U?$pair@$$CBV?$basic_string@DU?$char_traits@D@std@@V?$allocator@D@2@@std@@PAVResults@Database@@@std@@@2@$0A@@stdext@@@stdext@@QAE?AU?$pair@V?$_Iterator@$0A@@?$list@U?$pair@$$CBV?$basic_string@DU?$char_traits@D@std@@V?$allocator@D@2@@std@@PAVResults@Database@@@std@@V?$allocator@U?$pair@$$CBV?$basic_string@DU?$char_traits@D@std@@V?$allocator@D@2@@std@@PAVResults@Database@@@std@@@2@@std@@V123@@std@@ABV?$basic_string@DU?$char_traits@D@std@@V?$allocator@D@2@@4@@Z ; stdext::_Hash<stdext::_Hmap_traits<std::basic_string<char,std::char_traits<char>,std::allocator<char> >,Database::Results *,stdext::hash_compare<std::basic_string<char,std::char_traits<char>,std::allocator<char> >,std::less<std::basic_string<char,std::char_traits<char>,std::allocator<char> > > >,std::allocator<std::pair<std::basic_string<char,std::char_traits<char>,std::allocator<char> > const ,Database::Results *> >,0> >::equal_range
; Function compile flags: /Odtp
;	COMDAT ?erase@?$_Hash@V?$_Hmap_traits@V?$basic_string@DU?$char_traits@D@std@@V?$allocator@D@2@@std@@PAVResults@Database@@V?$hash_compare@V?$basic_string@DU?$char_traits@D@std@@V?$allocator@D@2@@std@@U?$less@V?$basic_string@DU?$char_traits@D@std@@V?$allocator@D@2@@std@@@2@@stdext@@V?$allocator@U?$pair@$$CBV?$basic_string@DU?$char_traits@D@std@@V?$allocator@D@2@@std@@PAVResults@Database@@@std@@@2@$0A@@stdext@@@stdext@@QAEIABV?$basic_string@DU?$char_traits@D@std@@V?$allocator@D@2@@std@@@Z
_TEXT	SEGMENT
_this$ = -172						; size = 4
$T221891 = -96						; size = 4
$T221869 = -92						; size = 4
$T221868 = -88						; size = 4
$T221623 = -24						; size = 4
$T221622 = -20						; size = 4
$T221621 = -16						; size = 4
__Where$ = -12						; size = 8
__Num$ = -4						; size = 4
__Keyval$ = 8						; size = 4
?erase@?$_Hash@V?$_Hmap_traits@V?$basic_string@DU?$char_traits@D@std@@V?$allocator@D@2@@std@@PAVResults@Database@@V?$hash_compare@V?$basic_string@DU?$char_traits@D@std@@V?$allocator@D@2@@std@@U?$less@V?$basic_string@DU?$char_traits@D@std@@V?$allocator@D@2@@std@@@2@@stdext@@V?$allocator@U?$pair@$$CBV?$basic_string@DU?$char_traits@D@std@@V?$allocator@D@2@@std@@PAVResults@Database@@@std@@@2@$0A@@stdext@@@stdext@@QAEIABV?$basic_string@DU?$char_traits@D@std@@V?$allocator@D@2@@std@@@Z PROC ; stdext::_Hash<stdext::_Hmap_traits<std::basic_string<char,std::char_traits<char>,std::allocator<char> >,Database::Results *,stdext::hash_compare<std::basic_string<char,std::char_traits<char>,std::allocator<char> >,std::less<std::basic_string<char,std::char_traits<char>,std::allocator<char> > > >,std::allocator<std::pair<std::basic_string<char,std::char_traits<char>,std::allocator<char> > const ,Database::Results *> >,0> >::erase, COMDAT
; _this$ = ecx

; 596  : 		{	// erase and count all that match _Keyval

	push	ebp
	mov	ebp, esp
	sub	esp, 172				; 000000acH
	mov	DWORD PTR _this$[ebp], ecx

; 597  : 		_Pairii _Where = equal_range(_Keyval);

	mov	eax, DWORD PTR __Keyval$[ebp]
	push	eax
	lea	ecx, DWORD PTR __Where$[ebp]
	push	ecx
	mov	ecx, DWORD PTR _this$[ebp]
	call	?equal_range@?$_Hash@V?$_Hmap_traits@V?$basic_string@DU?$char_traits@D@std@@V?$allocator@D@2@@std@@PAVResults@Database@@V?$hash_compare@V?$basic_string@DU?$char_traits@D@std@@V?$allocator@D@2@@std@@U?$less@V?$basic_string@DU?$char_traits@D@std@@V?$allocator@D@2@@std@@@2@@stdext@@V?$allocator@U?$pair@$$CBV?$basic_string@DU?$char_traits@D@std@@V?$allocator@D@2@@std@@PAVResults@Database@@@std@@@2@$0A@@stdext@@@stdext@@QAE?AU?$pair@V?$_Iterator@$0A@@?$list@U?$pair@$$CBV?$basic_string@DU?$char_traits@D@std@@V?$allocator@D@2@@std@@PAVResults@Database@@@std@@V?$allocator@U?$pair@$$CBV?$basic_string@DU?$char_traits@D@std@@V?$allocator@D@2@@std@@PAVResults@Database@@@std@@@2@@std@@V123@@std@@ABV?$basic_string@DU?$char_traits@D@std@@V?$allocator@D@2@@4@@Z ; stdext::_Hash<stdext::_Hmap_traits<std::basic_string<char,std::char_traits<char>,std::allocator<char> >,Database::Results *,stdext::hash_compare<std::basic_string<char,std::char_traits<char>,std::allocator<char> >,std::less<std::basic_string<char,std::char_traits<char>,std::allocator<char> > > >,std::allocator<std::pair<std::basic_string<char,std::char_traits<char>,std::allocator<char> > const ,Database::Results *> >,0> >::equal_range

; 598  : 		size_type _Num = 0;

	mov	DWORD PTR __Num$[ebp], 0

; 599  : 		_Distance(_Where.first, _Where.second, _Num);

	mov	edx, DWORD PTR __Where$[ebp]
	mov	DWORD PTR $T221891[ebp], edx
	mov	eax, DWORD PTR __Where$[ebp+4]
	mov	DWORD PTR $T221869[ebp], eax
	mov	ecx, DWORD PTR $T221891[ebp]
	mov	DWORD PTR $T221868[ebp], ecx
	jmp	SHORT $LN114@erase
$LN112@erase:
	mov	edx, DWORD PTR $T221868[ebp]
	mov	eax, DWORD PTR [edx]
	mov	DWORD PTR $T221868[ebp], eax
$LN114@erase:
	mov	ecx, DWORD PTR $T221868[ebp]
	xor	edx, edx
	cmp	ecx, DWORD PTR $T221869[ebp]
	sete	dl
	movzx	eax, dl
	neg	eax
	sbb	eax, eax
	add	eax, 1
	movzx	ecx, al
	test	ecx, ecx
	je	SHORT $LN99@erase
	mov	edx, DWORD PTR __Num$[ebp]
	add	edx, 1
	mov	DWORD PTR __Num$[ebp], edx
	jmp	SHORT $LN112@erase
$LN99@erase:

; 600  : 		erase(_Where.first, _Where.second);

	mov	eax, DWORD PTR __Where$[ebp+4]
	mov	DWORD PTR $T221621[ebp], eax
	mov	ecx, DWORD PTR __Where$[ebp]
	mov	DWORD PTR $T221622[ebp], ecx
	mov	edx, DWORD PTR $T221621[ebp]
	push	edx
	mov	eax, DWORD PTR $T221622[ebp]
	push	eax
	lea	ecx, DWORD PTR $T221623[ebp]
	push	ecx
	mov	ecx, DWORD PTR _this$[ebp]
	call	?erase@?$_Hash@V?$_Hmap_traits@V?$basic_string@DU?$char_traits@D@std@@V?$allocator@D@2@@std@@PAVResults@Database@@V?$hash_compare@V?$basic_string@DU?$char_traits@D@std@@V?$allocator@D@2@@std@@U?$less@V?$basic_string@DU?$char_traits@D@std@@V?$allocator@D@2@@std@@@2@@stdext@@V?$allocator@U?$pair@$$CBV?$basic_string@DU?$char_traits@D@std@@V?$allocator@D@2@@std@@PAVResults@Database@@@std@@@2@$0A@@stdext@@@stdext@@QAE?AV?$_Iterator@$0A@@?$list@U?$pair@$$CBV?$basic_string@DU?$char_traits@D@std@@V?$allocator@D@2@@std@@PAVResults@Database@@@std@@V?$allocator@U?$pair@$$CBV?$basic_string@DU?$char_traits@D@std@@V?$allocator@D@2@@std@@PAVResults@Database@@@std@@@2@@std@@V?$_Const_iterator@$0A@@45@0@Z ; stdext::_Hash<stdext::_Hmap_traits<std::basic_string<char,std::char_traits<char>,std::allocator<char> >,Database::Results *,stdext::hash_compare<std::basic_string<char,std::char_traits<char>,std::allocator<char> >,std::less<std::basic_string<char,std::char_traits<char>,std::allocator<char> > > >,std::allocator<std::pair<std::basic_string<char,std::char_traits<char>,std::allocator<char> > const ,Database::Results *> >,0> >::erase

; 601  : 		return (_Num);

	mov	eax, DWORD PTR __Num$[ebp]

; 602  : 		}

	mov	esp, ebp
	pop	ebp
	ret	4
?erase@?$_Hash@V?$_Hmap_traits@V?$basic_string@DU?$char_traits@D@std@@V?$allocator@D@2@@std@@PAVResults@Database@@V?$hash_compare@V?$basic_string@DU?$char_traits@D@std@@V?$allocator@D@2@@std@@U?$less@V?$basic_string@DU?$char_traits@D@std@@V?$allocator@D@2@@std@@@2@@stdext@@V?$allocator@U?$pair@$$CBV?$basic_string@DU?$char_traits@D@std@@V?$allocator@D@2@@std@@PAVResults@Database@@@std@@@2@$0A@@stdext@@@stdext@@QAEIABV?$basic_string@DU?$char_traits@D@std@@V?$allocator@D@2@@std@@@Z ENDP ; stdext::_Hash<stdext::_Hmap_traits<std::basic_string<char,std::char_traits<char>,std::allocator<char> >,Database::Results *,stdext::hash_compare<std::basic_string<char,std::char_traits<char>,std::allocator<char> >,std::less<std::basic_string<char,std::char_traits<char>,std::allocator<char> > > >,std::allocator<std::pair<std::basic_string<char,std::char_traits<char>,std::allocator<char> > const ,Database::Results *> >,0> >::erase
; Function compile flags: /Odtp
_TEXT	ENDS
;	COMDAT ??1?$pair@$$CBV?$basic_string@DU?$char_traits@D@std@@V?$allocator@D@2@@std@@PAVResults@Database@@@std@@QAE@XZ
_TEXT	SEGMENT
_this$ = -4						; size = 4
??1?$pair@$$CBV?$basic_string@DU?$char_traits@D@std@@V?$allocator@D@2@@std@@PAVResults@Database@@@std@@QAE@XZ PROC ; std::pair<std::basic_string<char,std::char_traits<char>,std::allocator<char> > const ,Database::Results *>::~pair<std::basic_string<char,std::char_traits<char>,std::allocator<char> > const ,Database::Results *>, COMDAT
; _this$ = ecx
	push	ebp
	mov	ebp, esp
	push	ecx
	mov	DWORD PTR _this$[ebp], ecx
	mov	ecx, DWORD PTR _this$[ebp]
	call	DWORD PTR __imp_??1?$basic_string@DU?$char_traits@D@std@@V?$allocator@D@2@@std@@QAE@XZ
	mov	esp, ebp
	pop	ebp
	ret	0
??1?$pair@$$CBV?$basic_string@DU?$char_traits@D@std@@V?$allocator@D@2@@std@@PAVResults@Database@@@std@@QAE@XZ ENDP ; std::pair<std::basic_string<char,std::char_traits<char>,std::allocator<char> > const ,Database::Results *>::~pair<std::basic_string<char,std::char_traits<char>,std::allocator<char> > const ,Database::Results *>
_TEXT	ENDS
;	COMDAT xdata$x
; File c:\program files (x86)\microsoft visual studio 9.0\vc\include\xutility
xdata$x	SEGMENT
__unwindtable$??1?$list@U?$pair@$$CBV?$basic_string@DU?$char_traits@D@std@@V?$allocator@D@2@@std@@PAVResults@Database@@@std@@V?$allocator@U?$pair@$$CBV?$basic_string@DU?$char_traits@D@std@@V?$allocator@D@2@@std@@PAVResults@Database@@@std@@@2@@std@@QAE@XZ DD 0ffffffffH
	DD	FLAT:__unwindfunclet$??1?$list@U?$pair@$$CBV?$basic_string@DU?$char_traits@D@std@@V?$allocator@D@2@@std@@PAVResults@Database@@@std@@V?$allocator@U?$pair@$$CBV?$basic_string@DU?$char_traits@D@std@@V?$allocator@D@2@@std@@PAVResults@Database@@@std@@@2@@std@@QAE@XZ$0
__ehfuncinfo$??1?$list@U?$pair@$$CBV?$basic_string@DU?$char_traits@D@std@@V?$allocator@D@2@@std@@PAVResults@Database@@@std@@V?$allocator@U?$pair@$$CBV?$basic_string@DU?$char_traits@D@std@@V?$allocator@D@2@@std@@PAVResults@Database@@@std@@@2@@std@@QAE@XZ DD 019930522H
	DD	01H
	DD	FLAT:__unwindtable$??1?$list@U?$pair@$$CBV?$basic_string@DU?$char_traits@D@std@@V?$allocator@D@2@@std@@PAVResults@Database@@@std@@V?$allocator@U?$pair@$$CBV?$basic_string@DU?$char_traits@D@std@@V?$allocator@D@2@@std@@PAVResults@Database@@@std@@@2@@std@@QAE@XZ
	DD	2 DUP(00H)
	DD	2 DUP(00H)
	DD	00H
	DD	01H
; Function compile flags: /Odtp
; File c:\program files (x86)\microsoft visual studio 9.0\vc\include\list
xdata$x	ENDS
;	COMDAT ??1?$list@U?$pair@$$CBV?$basic_string@DU?$char_traits@D@std@@V?$allocator@D@2@@std@@PAVResults@Database@@@std@@V?$allocator@U?$pair@$$CBV?$basic_string@DU?$char_traits@D@std@@V?$allocator@D@2@@std@@PAVResults@Database@@@std@@@2@@std@@QAE@XZ
_TEXT	SEGMENT
_this$ = -44						; size = 4
$T222203 = -40						; size = 4
$T222180 = -36						; size = 4
__$EHRec$ = -12						; size = 12
??1?$list@U?$pair@$$CBV?$basic_string@DU?$char_traits@D@std@@V?$allocator@D@2@@std@@PAVResults@Database@@@std@@V?$allocator@U?$pair@$$CBV?$basic_string@DU?$char_traits@D@std@@V?$allocator@D@2@@std@@PAVResults@Database@@@std@@@2@@std@@QAE@XZ PROC ; std::list<std::pair<std::basic_string<char,std::char_traits<char>,std::allocator<char> > const ,Database::Results *>,std::allocator<std::pair<std::basic_string<char,std::char_traits<char>,std::allocator<char> > const ,Database::Results *> > >::~list<std::pair<std::basic_string<char,std::char_traits<char>,std::allocator<char> > const ,Database::Results *>,std::allocator<std::pair<std::basic_string<char,std::char_traits<char>,std::allocator<char> > const ,Database::Results *> > >, COMDAT
; _this$ = ecx

; 520  : 		{	// destroy the object

	push	ebp
	mov	ebp, esp
	push	-1
	push	__ehhandler$??1?$list@U?$pair@$$CBV?$basic_string@DU?$char_traits@D@std@@V?$allocator@D@2@@std@@PAVResults@Database@@@std@@V?$allocator@U?$pair@$$CBV?$basic_string@DU?$char_traits@D@std@@V?$allocator@D@2@@std@@PAVResults@Database@@@std@@@2@@std@@QAE@XZ
	mov	eax, DWORD PTR fs:0
	push	eax
	sub	esp, 32					; 00000020H
	mov	eax, DWORD PTR ___security_cookie
	xor	eax, ebp
	push	eax
	lea	eax, DWORD PTR __$EHRec$[ebp]
	mov	DWORD PTR fs:0, eax
	mov	DWORD PTR _this$[ebp], ecx
	mov	DWORD PTR __$EHRec$[ebp+8], 0

; 521  : 		_Tidy();

	mov	ecx, DWORD PTR _this$[ebp]
	call	?clear@?$list@U?$pair@$$CBV?$basic_string@DU?$char_traits@D@std@@V?$allocator@D@2@@std@@PAVResults@Database@@@std@@V?$allocator@U?$pair@$$CBV?$basic_string@DU?$char_traits@D@std@@V?$allocator@D@2@@std@@PAVResults@Database@@@std@@@2@@std@@QAEXXZ ; std::list<std::pair<std::basic_string<char,std::char_traits<char>,std::allocator<char> > const ,Database::Results *>,std::allocator<std::pair<std::basic_string<char,std::char_traits<char>,std::allocator<char> > const ,Database::Results *> > >::clear
	mov	eax, DWORD PTR _this$[ebp]
	mov	ecx, DWORD PTR [eax+4]
	mov	DWORD PTR $T222180[ebp], ecx
	mov	edx, DWORD PTR _this$[ebp]
	mov	eax, DWORD PTR [edx+4]
	mov	DWORD PTR $T222203[ebp], eax
	mov	ecx, DWORD PTR $T222203[ebp]
	push	ecx
	call	??3@YAXPAX@Z				; operator delete
	add	esp, 4
	mov	edx, DWORD PTR _this$[ebp]
	mov	DWORD PTR [edx+4], 0

; 522  : 		}

	mov	DWORD PTR __$EHRec$[ebp+8], -1
	mov	ecx, DWORD PTR __$EHRec$[ebp]
	mov	DWORD PTR fs:0, ecx
	pop	ecx
	mov	esp, ebp
	pop	ebp
	ret	0
_TEXT	ENDS
;	COMDAT text$x
text$x	SEGMENT
__unwindfunclet$??1?$list@U?$pair@$$CBV?$basic_string@DU?$char_traits@D@std@@V?$allocator@D@2@@std@@PAVResults@Database@@@std@@V?$allocator@U?$pair@$$CBV?$basic_string@DU?$char_traits@D@std@@V?$allocator@D@2@@std@@PAVResults@Database@@@std@@@2@@std@@QAE@XZ$0:
	mov	ecx, DWORD PTR _this$[ebp]
	jmp	??1?$_List_val@U?$pair@$$CBV?$basic_string@DU?$char_traits@D@std@@V?$allocator@D@2@@std@@PAVResults@Database@@@std@@V?$allocator@U?$pair@$$CBV?$basic_string@DU?$char_traits@D@std@@V?$allocator@D@2@@std@@PAVResults@Database@@@std@@@2@@std@@QAE@XZ
__ehhandler$??1?$list@U?$pair@$$CBV?$basic_string@DU?$char_traits@D@std@@V?$allocator@D@2@@std@@PAVResults@Database@@@std@@V?$allocator@U?$pair@$$CBV?$basic_string@DU?$char_traits@D@std@@V?$allocator@D@2@@std@@PAVResults@Database@@@std@@@2@@std@@QAE@XZ:
	mov	edx, DWORD PTR [esp+8]
	lea	eax, DWORD PTR [edx+12]
	mov	ecx, DWORD PTR [edx-36]
	xor	ecx, eax
	call	@__security_check_cookie@4
	mov	eax, OFFSET __ehfuncinfo$??1?$list@U?$pair@$$CBV?$basic_string@DU?$char_traits@D@std@@V?$allocator@D@2@@std@@PAVResults@Database@@@std@@V?$allocator@U?$pair@$$CBV?$basic_string@DU?$char_traits@D@std@@V?$allocator@D@2@@std@@PAVResults@Database@@@std@@@2@@std@@QAE@XZ
	jmp	___CxxFrameHandler3
text$x	ENDS
??1?$list@U?$pair@$$CBV?$basic_string@DU?$char_traits@D@std@@V?$allocator@D@2@@std@@PAVResults@Database@@@std@@V?$allocator@U?$pair@$$CBV?$basic_string@DU?$char_traits@D@std@@V?$allocator@D@2@@std@@PAVResults@Database@@@std@@@2@@std@@QAE@XZ ENDP ; std::list<std::pair<std::basic_string<char,std::char_traits<char>,std::allocator<char> > const ,Database::Results *>,std::allocator<std::pair<std::basic_string<char,std::char_traits<char>,std::allocator<char> > const ,Database::Results *> > >::~list<std::pair<std::basic_string<char,std::char_traits<char>,std::allocator<char> > const ,Database::Results *>,std::allocator<std::pair<std::basic_string<char,std::char_traits<char>,std::allocator<char> > const ,Database::Results *> > >
; Function compile flags: /Odtp
;	COMDAT ?clear@?$list@U?$pair@$$CBV?$basic_string@DU?$char_traits@D@std@@V?$allocator@D@2@@std@@PAVResults@Database@@@std@@V?$allocator@U?$pair@$$CBV?$basic_string@DU?$char_traits@D@std@@V?$allocator@D@2@@std@@PAVResults@Database@@@std@@@2@@std@@QAEXXZ
_TEXT	SEGMENT
_this$ = -24						; size = 4
$T222278 = -20						; size = 4
$T222262 = -16						; size = 4
$T222258 = -12						; size = 4
__Pnext$ = -8						; size = 4
__Pnode$ = -4						; size = 4
?clear@?$list@U?$pair@$$CBV?$basic_string@DU?$char_traits@D@std@@V?$allocator@D@2@@std@@PAVResults@Database@@@std@@V?$allocator@U?$pair@$$CBV?$basic_string@DU?$char_traits@D@std@@V?$allocator@D@2@@std@@PAVResults@Database@@@std@@@2@@std@@QAEXXZ PROC ; std::list<std::pair<std::basic_string<char,std::char_traits<char>,std::allocator<char> > const ,Database::Results *>,std::allocator<std::pair<std::basic_string<char,std::char_traits<char>,std::allocator<char> > const ,Database::Results *> > >::clear, COMDAT
; _this$ = ecx

; 825  : 		{	// erase all

	push	ebp
	mov	ebp, esp
	sub	esp, 24					; 00000018H
	mov	DWORD PTR _this$[ebp], ecx

; 826  : 
; 827  :  #if _HAS_ITERATOR_DEBUGGING
; 828  : 		this->_Orphan_ptr(*this, 0);
; 829  :  #endif /* _HAS_ITERATOR_DEBUGGING */
; 830  : 
; 831  : 		_Nodeptr _Pnext;
; 832  : 		_Nodeptr _Pnode = _Nextnode(_Myhead);

	mov	eax, DWORD PTR _this$[ebp]
	mov	ecx, DWORD PTR [eax+4]
	mov	DWORD PTR $T222258[ebp], ecx
	mov	edx, DWORD PTR $T222258[ebp]
	mov	eax, DWORD PTR [edx]
	mov	DWORD PTR __Pnode$[ebp], eax

; 833  : 		_Nextnode(_Myhead) = _Myhead;

	mov	ecx, DWORD PTR _this$[ebp]
	mov	edx, DWORD PTR [ecx+4]
	mov	DWORD PTR $T222262[ebp], edx
	mov	eax, DWORD PTR $T222262[ebp]
	mov	ecx, DWORD PTR _this$[ebp]
	mov	edx, DWORD PTR [ecx+4]
	mov	DWORD PTR [eax], edx

; 834  : 		_Prevnode(_Myhead) = _Myhead;

	mov	eax, DWORD PTR _this$[ebp]
	mov	ecx, DWORD PTR [eax+4]
	mov	edx, DWORD PTR _this$[ebp]
	mov	eax, DWORD PTR [edx+4]
	mov	DWORD PTR [ecx+4], eax

; 835  : 		_Mysize = 0;

	mov	ecx, DWORD PTR _this$[ebp]
	mov	DWORD PTR [ecx+8], 0

; 836  : 
; 837  : 		for (; _Pnode != _Myhead; _Pnode = _Pnext)

	jmp	SHORT $LN3@clear
$LN2@clear:
	mov	edx, DWORD PTR __Pnext$[ebp]
	mov	DWORD PTR __Pnode$[ebp], edx
$LN3@clear:
	mov	eax, DWORD PTR _this$[ebp]
	mov	ecx, DWORD PTR __Pnode$[ebp]
	cmp	ecx, DWORD PTR [eax+4]
	je	SHORT $LN4@clear

; 838  : 			{	// delete an element
; 839  : 			_Pnext = _Nextnode(_Pnode);

	mov	edx, DWORD PTR __Pnode$[ebp]
	mov	eax, DWORD PTR [edx]
	mov	DWORD PTR __Pnext$[ebp], eax

; 840  : 			this->_Alnod.destroy(_Pnode);

	mov	ecx, DWORD PTR __Pnode$[ebp]
	add	ecx, 8
	mov	DWORD PTR $T222278[ebp], ecx
	mov	ecx, DWORD PTR $T222278[ebp]
	call	DWORD PTR __imp_??1?$basic_string@DU?$char_traits@D@std@@V?$allocator@D@2@@std@@QAE@XZ
	xor	edx, edx
	and	edx, 1
	je	SHORT $LN14@clear
	mov	eax, DWORD PTR __Pnode$[ebp]
	push	eax
	call	??3@YAXPAX@Z				; operator delete
	add	esp, 4
$LN14@clear:

; 841  : 			this->_Alnod.deallocate(_Pnode, 1);

	mov	ecx, DWORD PTR __Pnode$[ebp]
	push	ecx
	call	??3@YAXPAX@Z				; operator delete
	add	esp, 4

; 842  : 			}

	jmp	SHORT $LN2@clear
$LN4@clear:

; 843  : 		}

	mov	esp, ebp
	pop	ebp
	ret	0
?clear@?$list@U?$pair@$$CBV?$basic_string@DU?$char_traits@D@std@@V?$allocator@D@2@@std@@PAVResults@Database@@@std@@V?$allocator@U?$pair@$$CBV?$basic_string@DU?$char_traits@D@std@@V?$allocator@D@2@@std@@PAVResults@Database@@@std@@@2@@std@@QAEXXZ ENDP ; std::list<std::pair<std::basic_string<char,std::char_traits<char>,std::allocator<char> > const ,Database::Results *>,std::allocator<std::pair<std::basic_string<char,std::char_traits<char>,std::allocator<char> > const ,Database::Results *> > >::clear
_TEXT	ENDS
PUBLIC	??1?$vector@V?$_Iterator@$0A@@?$list@U?$pair@$$CBV?$basic_string@DU?$char_traits@D@std@@V?$allocator@D@2@@std@@PAVResults@Database@@@std@@V?$allocator@U?$pair@$$CBV?$basic_string@DU?$char_traits@D@std@@V?$allocator@D@2@@std@@PAVResults@Database@@@std@@@2@@std@@V?$allocator@V?$_Iterator@$0A@@?$list@U?$pair@$$CBV?$basic_string@DU?$char_traits@D@std@@V?$allocator@D@2@@std@@PAVResults@Database@@@std@@V?$allocator@U?$pair@$$CBV?$basic_string@DU?$char_traits@D@std@@V?$allocator@D@2@@std@@PAVResults@Database@@@std@@@2@@std@@@3@@std@@QAE@XZ ; std::vector<std::list<std::pair<std::basic_string<char,std::char_traits<char>,std::allocator<char> > const ,Database::Results *>,std::allocator<std::pair<std::basic_string<char,std::char_traits<char>,std::allocator<char> > const ,Database::Results *> > >::_Iterator<0>,std::allocator<std::list<std::pair<std::basic_string<char,std::char_traits<char>,std::allocator<char> > const ,Database::Results *>,std::allocator<std::pair<std::basic_string<char,std::char_traits<char>,std::allocator<char> > const ,Database::Results *> > >::_Iterator<0> > >::~vector<std::list<std::pair<std::basic_string<char,std::char_traits<char>,std::allocator<char> > const ,Database::Results *>,std::allocator<std::pair<std::basic_string<char,std::char_traits<char>,std::allocator<char> > const ,Database::Results *> > >::_Iterator<0>,std::allocator<std::list<std::pair<std::basic_string<char,std::char_traits<char>,std::allocator<char> > const ,Database::Results *>,std::allocator<std::pair<std::basic_string<char,std::char_traits<char>,std::allocator<char> > const ,Database::Results *> > >::_Iterator<0> > >
PUBLIC	__real@40800000
PUBLIC	?_Buy@?$vector@V?$_Iterator@$0A@@?$list@U?$pair@$$CBV?$basic_string@DU?$char_traits@D@std@@V?$allocator@D@2@@std@@PAVResults@Database@@@std@@V?$allocator@U?$pair@$$CBV?$basic_string@DU?$char_traits@D@std@@V?$allocator@D@2@@std@@PAVResults@Database@@@std@@@2@@std@@V?$allocator@V?$_Iterator@$0A@@?$list@U?$pair@$$CBV?$basic_string@DU?$char_traits@D@std@@V?$allocator@D@2@@std@@PAVResults@Database@@@std@@V?$allocator@U?$pair@$$CBV?$basic_string@DU?$char_traits@D@std@@V?$allocator@D@2@@std@@PAVResults@Database@@@std@@@2@@std@@@3@@std@@IAE_NI@Z ; std::vector<std::list<std::pair<std::basic_string<char,std::char_traits<char>,std::allocator<char> > const ,Database::Results *>,std::allocator<std::pair<std::basic_string<char,std::char_traits<char>,std::allocator<char> > const ,Database::Results *> > >::_Iterator<0>,std::allocator<std::list<std::pair<std::basic_string<char,std::char_traits<char>,std::allocator<char> > const ,Database::Results *>,std::allocator<std::pair<std::basic_string<char,std::char_traits<char>,std::allocator<char> > const ,Database::Results *> > >::_Iterator<0> > >::_Buy
PUBLIC	??0?$list@U?$pair@$$CBV?$basic_string@DU?$char_traits@D@std@@V?$allocator@D@2@@std@@PAVResults@Database@@@std@@V?$allocator@U?$pair@$$CBV?$basic_string@DU?$char_traits@D@std@@V?$allocator@D@2@@std@@PAVResults@Database@@@std@@@2@@std@@QAE@ABV?$allocator@U?$pair@$$CBV?$basic_string@DU?$char_traits@D@std@@V?$allocator@D@2@@std@@PAVResults@Database@@@std@@@1@@Z ; std::list<std::pair<std::basic_string<char,std::char_traits<char>,std::allocator<char> > const ,Database::Results *>,std::allocator<std::pair<std::basic_string<char,std::char_traits<char>,std::allocator<char> > const ,Database::Results *> > >::list<std::pair<std::basic_string<char,std::char_traits<char>,std::allocator<char> > const ,Database::Results *>,std::allocator<std::pair<std::basic_string<char,std::char_traits<char>,std::allocator<char> > const ,Database::Results *> > >
;	COMDAT __real@40800000
; File c:\program files (x86)\microsoft visual studio 9.0\vc\include\vector
CONST	SEGMENT
__real@40800000 DD 040800000r			; 4
CONST	ENDS
;	COMDAT xdata$x
xdata$x	SEGMENT
__unwindtable$??0?$_Hash@V?$_Hmap_traits@V?$basic_string@DU?$char_traits@D@std@@V?$allocator@D@2@@std@@PAVResults@Database@@V?$hash_compare@V?$basic_string@DU?$char_traits@D@std@@V?$allocator@D@2@@std@@U?$less@V?$basic_string@DU?$char_traits@D@std@@V?$allocator@D@2@@std@@@2@@stdext@@V?$allocator@U?$pair@$$CBV?$basic_string@DU?$char_traits@D@std@@V?$allocator@D@2@@std@@PAVResults@Database@@@std@@@2@$0A@@stdext@@@stdext@@QAE@ABV?$hash_compare@V?$basic_string@DU?$char_traits@D@std@@V?$allocator@D@2@@std@@U?$less@V?$basic_string@DU?$char_traits@D@std@@V?$allocator@D@2@@std@@@2@@1@ABV?$allocator@U?$pair@$$CBV?$basic_string@DU?$char_traits@D@std@@V?$allocator@D@2@@std@@PAVResults@Database@@@std@@@std@@@Z DD 0ffffffffH
	DD	FLAT:__unwindfunclet$??0?$_Hash@V?$_Hmap_traits@V?$basic_string@DU?$char_traits@D@std@@V?$allocator@D@2@@std@@PAVResults@Database@@V?$hash_compare@V?$basic_string@DU?$char_traits@D@std@@V?$allocator@D@2@@std@@U?$less@V?$basic_string@DU?$char_traits@D@std@@V?$allocator@D@2@@std@@@2@@stdext@@V?$allocator@U?$pair@$$CBV?$basic_string@DU?$char_traits@D@std@@V?$allocator@D@2@@std@@PAVResults@Database@@@std@@@2@$0A@@stdext@@@stdext@@QAE@ABV?$hash_compare@V?$basic_string@DU?$char_traits@D@std@@V?$allocator@D@2@@std@@U?$less@V?$basic_string@DU?$char_traits@D@std@@V?$allocator@D@2@@std@@@2@@1@ABV?$allocator@U?$pair@$$CBV?$basic_string@DU?$char_traits@D@std@@V?$allocator@D@2@@std@@PAVResults@Database@@@std@@@std@@@Z$0
	DD	00H
	DD	FLAT:__unwindfunclet$??0?$_Hash@V?$_Hmap_traits@V?$basic_string@DU?$char_traits@D@std@@V?$allocator@D@2@@std@@PAVResults@Database@@V?$hash_compare@V?$basic_string@DU?$char_traits@D@std@@V?$allocator@D@2@@std@@U?$less@V?$basic_string@DU?$char_traits@D@std@@V?$allocator@D@2@@std@@@2@@stdext@@V?$allocator@U?$pair@$$CBV?$basic_string@DU?$char_traits@D@std@@V?$allocator@D@2@@std@@PAVResults@Database@@@std@@@2@$0A@@stdext@@@stdext@@QAE@ABV?$hash_compare@V?$basic_string@DU?$char_traits@D@std@@V?$allocator@D@2@@std@@U?$less@V?$basic_string@DU?$char_traits@D@std@@V?$allocator@D@2@@std@@@2@@1@ABV?$allocator@U?$pair@$$CBV?$basic_string@DU?$char_traits@D@std@@V?$allocator@D@2@@std@@PAVResults@Database@@@std@@@std@@@Z$5
	DD	00H
	DD	FLAT:__unwindfunclet$??0?$_Hash@V?$_Hmap_traits@V?$basic_string@DU?$char_traits@D@std@@V?$allocator@D@2@@std@@PAVResults@Database@@V?$hash_compare@V?$basic_string@DU?$char_traits@D@std@@V?$allocator@D@2@@std@@U?$less@V?$basic_string@DU?$char_traits@D@std@@V?$allocator@D@2@@std@@@2@@stdext@@V?$allocator@U?$pair@$$CBV?$basic_string@DU?$char_traits@D@std@@V?$allocator@D@2@@std@@PAVResults@Database@@@std@@@2@$0A@@stdext@@@stdext@@QAE@ABV?$hash_compare@V?$basic_string@DU?$char_traits@D@std@@V?$allocator@D@2@@std@@U?$less@V?$basic_string@DU?$char_traits@D@std@@V?$allocator@D@2@@std@@@2@@1@ABV?$allocator@U?$pair@$$CBV?$basic_string@DU?$char_traits@D@std@@V?$allocator@D@2@@std@@PAVResults@Database@@@std@@@std@@@Z$1
__ehfuncinfo$??0?$_Hash@V?$_Hmap_traits@V?$basic_string@DU?$char_traits@D@std@@V?$allocator@D@2@@std@@PAVResults@Database@@V?$hash_compare@V?$basic_string@DU?$char_traits@D@std@@V?$allocator@D@2@@std@@U?$less@V?$basic_string@DU?$char_traits@D@std@@V?$allocator@D@2@@std@@@2@@stdext@@V?$allocator@U?$pair@$$CBV?$basic_string@DU?$char_traits@D@std@@V?$allocator@D@2@@std@@PAVResults@Database@@@std@@@2@$0A@@stdext@@@stdext@@QAE@ABV?$hash_compare@V?$basic_string@DU?$char_traits@D@std@@V?$allocator@D@2@@std@@U?$less@V?$basic_string@DU?$char_traits@D@std@@V?$allocator@D@2@@std@@@2@@1@ABV?$allocator@U?$pair@$$CBV?$basic_string@DU?$char_traits@D@std@@V?$allocator@D@2@@std@@PAVResults@Database@@@std@@@std@@@Z DD 019930522H
	DD	03H
	DD	FLAT:__unwindtable$??0?$_Hash@V?$_Hmap_traits@V?$basic_string@DU?$char_traits@D@std@@V?$allocator@D@2@@std@@PAVResults@Database@@V?$hash_compare@V?$basic_string@DU?$char_traits@D@std@@V?$allocator@D@2@@std@@U?$less@V?$basic_string@DU?$char_traits@D@std@@V?$allocator@D@2@@std@@@2@@stdext@@V?$allocator@U?$pair@$$CBV?$basic_string@DU?$char_traits@D@std@@V?$allocator@D@2@@std@@PAVResults@Database@@@std@@@2@$0A@@stdext@@@stdext@@QAE@ABV?$hash_compare@V?$basic_string@DU?$char_traits@D@std@@V?$allocator@D@2@@std@@U?$less@V?$basic_string@DU?$char_traits@D@std@@V?$allocator@D@2@@std@@@2@@1@ABV?$allocator@U?$pair@$$CBV?$basic_string@DU?$char_traits@D@std@@V?$allocator@D@2@@std@@PAVResults@Database@@@std@@@std@@@Z
	DD	2 DUP(00H)
	DD	2 DUP(00H)
	DD	00H
	DD	01H
; Function compile flags: /Odtp
; File c:\program files (x86)\microsoft visual studio 9.0\vc\include\xhash
xdata$x	ENDS
;	COMDAT ??0?$_Hash@V?$_Hmap_traits@V?$basic_string@DU?$char_traits@D@std@@V?$allocator@D@2@@std@@PAVResults@Database@@V?$hash_compare@V?$basic_string@DU?$char_traits@D@std@@V?$allocator@D@2@@std@@U?$less@V?$basic_string@DU?$char_traits@D@std@@V?$allocator@D@2@@std@@@2@@stdext@@V?$allocator@U?$pair@$$CBV?$basic_string@DU?$char_traits@D@std@@V?$allocator@D@2@@std@@PAVResults@Database@@@std@@@2@$0A@@stdext@@@stdext@@QAE@ABV?$hash_compare@V?$basic_string@DU?$char_traits@D@std@@V?$allocator@D@2@@std@@U?$less@V?$basic_string@DU?$char_traits@D@std@@V?$allocator@D@2@@std@@@2@@1@ABV?$allocator@U?$pair@$$CBV?$basic_string@DU?$char_traits@D@std@@V?$allocator@D@2@@std@@PAVResults@Database@@@std@@@std@@@Z
_TEXT	SEGMENT
tv152 = -272						; size = 4
tv218 = -268						; size = 4
_this$ = -264						; size = 4
$T222453 = -156						; size = 4
$T222404 = -62						; size = 1
$T222391 = -61						; size = 1
$T222387 = -60						; size = 4
$T222380 = -52						; size = 4
__$EHRec$ = -12						; size = 12
__Parg$ = 8						; size = 4
__Al$ = 12						; size = 4
??0?$_Hash@V?$_Hmap_traits@V?$basic_string@DU?$char_traits@D@std@@V?$allocator@D@2@@std@@PAVResults@Database@@V?$hash_compare@V?$basic_string@DU?$char_traits@D@std@@V?$allocator@D@2@@std@@U?$less@V?$basic_string@DU?$char_traits@D@std@@V?$allocator@D@2@@std@@@2@@stdext@@V?$allocator@U?$pair@$$CBV?$basic_string@DU?$char_traits@D@std@@V?$allocator@D@2@@std@@PAVResults@Database@@@std@@@2@$0A@@stdext@@@stdext@@QAE@ABV?$hash_compare@V?$basic_string@DU?$char_traits@D@std@@V?$allocator@D@2@@std@@U?$less@V?$basic_string@DU?$char_traits@D@std@@V?$allocator@D@2@@std@@@2@@1@ABV?$allocator@U?$pair@$$CBV?$basic_string@DU?$char_traits@D@std@@V?$allocator@D@2@@std@@PAVResults@Database@@@std@@@std@@@Z PROC ; stdext::_Hash<stdext::_Hmap_traits<std::basic_string<char,std::char_traits<char>,std::allocator<char> >,Database::Results *,stdext::hash_compare<std::basic_string<char,std::char_traits<char>,std::allocator<char> >,std::less<std::basic_string<char,std::char_traits<char>,std::allocator<char> > > >,std::allocator<std::pair<std::basic_string<char,std::char_traits<char>,std::allocator<char> > const ,Database::Results *> >,0> >::_Hash<stdext::_Hmap_traits<std::basic_string<char,std::char_traits<char>,std::allocator<char> >,Database::Results *,stdext::hash_compare<std::basic_string<char,std::char_traits<char>,std::allocator<char> >,std::less<std::basic_string<char,std::char_traits<char>,std::allocator<char> > > >,std::allocator<std::pair<std::basic_string<char,std::char_traits<char>,std::allocator<char> > const ,Database::Results *> >,0> >, COMDAT
; _this$ = ecx

; 343  : 		{	// construct empty hash table

	push	ebp
	mov	ebp, esp
	push	-1
	push	__ehhandler$??0?$_Hash@V?$_Hmap_traits@V?$basic_string@DU?$char_traits@D@std@@V?$allocator@D@2@@std@@PAVResults@Database@@V?$hash_compare@V?$basic_string@DU?$char_traits@D@std@@V?$allocator@D@2@@std@@U?$less@V?$basic_string@DU?$char_traits@D@std@@V?$allocator@D@2@@std@@@2@@stdext@@V?$allocator@U?$pair@$$CBV?$basic_string@DU?$char_traits@D@std@@V?$allocator@D@2@@std@@PAVResults@Database@@@std@@@2@$0A@@stdext@@@stdext@@QAE@ABV?$hash_compare@V?$basic_string@DU?$char_traits@D@std@@V?$allocator@D@2@@std@@U?$less@V?$basic_string@DU?$char_traits@D@std@@V?$allocator@D@2@@std@@@2@@1@ABV?$allocator@U?$pair@$$CBV?$basic_string@DU?$char_traits@D@std@@V?$allocator@D@2@@std@@PAVResults@Database@@@std@@@std@@@Z
	mov	eax, DWORD PTR fs:0
	push	eax
	sub	esp, 260				; 00000104H
	mov	eax, DWORD PTR ___security_cookie
	xor	eax, ebp
	push	eax
	lea	eax, DWORD PTR __$EHRec$[ebp]
	mov	DWORD PTR fs:0, eax
	mov	DWORD PTR _this$[ebp], ecx
	mov	eax, DWORD PTR __Parg$[ebp]
	mov	cl, BYTE PTR [eax]
	mov	edx, DWORD PTR _this$[ebp]
	mov	BYTE PTR [edx], cl
	mov	eax, DWORD PTR __Al$[ebp]
	push	eax
	mov	ecx, DWORD PTR _this$[ebp]
	add	ecx, 4
	call	??0?$list@U?$pair@$$CBV?$basic_string@DU?$char_traits@D@std@@V?$allocator@D@2@@std@@PAVResults@Database@@@std@@V?$allocator@U?$pair@$$CBV?$basic_string@DU?$char_traits@D@std@@V?$allocator@D@2@@std@@PAVResults@Database@@@std@@@2@@std@@QAE@ABV?$allocator@U?$pair@$$CBV?$basic_string@DU?$char_traits@D@std@@V?$allocator@D@2@@std@@PAVResults@Database@@@std@@@1@@Z ; std::list<std::pair<std::basic_string<char,std::char_traits<char>,std::allocator<char> > const ,Database::Results *>,std::allocator<std::pair<std::basic_string<char,std::char_traits<char>,std::allocator<char> > const ,Database::Results *> > >::list<std::pair<std::basic_string<char,std::char_traits<char>,std::allocator<char> > const ,Database::Results *>,std::allocator<std::pair<std::basic_string<char,std::char_traits<char>,std::allocator<char> > const ,Database::Results *> > >
	mov	DWORD PTR __$EHRec$[ebp+8], 0
	mov	ecx, DWORD PTR _this$[ebp]
	add	ecx, 16					; 00000010H
	mov	DWORD PTR $T222453[ebp], ecx
	lea	edx, DWORD PTR $T222404[ebp]
	mov	DWORD PTR $T222380[ebp], edx
	lea	eax, DWORD PTR $T222391[ebp]
	mov	DWORD PTR $T222387[ebp], eax
	mov	ecx, DWORD PTR $T222453[ebp]
	mov	DWORD PTR tv218[ebp], ecx
	mov	edx, DWORD PTR $T222453[ebp]
	mov	DWORD PTR tv152[ebp], edx
	mov	BYTE PTR __$EHRec$[ebp+8], 1
	push	0
	mov	ecx, DWORD PTR $T222453[ebp]
	call	?_Buy@?$vector@V?$_Iterator@$0A@@?$list@U?$pair@$$CBV?$basic_string@DU?$char_traits@D@std@@V?$allocator@D@2@@std@@PAVResults@Database@@@std@@V?$allocator@U?$pair@$$CBV?$basic_string@DU?$char_traits@D@std@@V?$allocator@D@2@@std@@PAVResults@Database@@@std@@@2@@std@@V?$allocator@V?$_Iterator@$0A@@?$list@U?$pair@$$CBV?$basic_string@DU?$char_traits@D@std@@V?$allocator@D@2@@std@@PAVResults@Database@@@std@@V?$allocator@U?$pair@$$CBV?$basic_string@DU?$char_traits@D@std@@V?$allocator@D@2@@std@@PAVResults@Database@@@std@@@2@@std@@@3@@std@@IAE_NI@Z ; std::vector<std::list<std::pair<std::basic_string<char,std::char_traits<char>,std::allocator<char> > const ,Database::Results *>,std::allocator<std::pair<std::basic_string<char,std::char_traits<char>,std::allocator<char> > const ,Database::Results *> > >::_Iterator<0>,std::allocator<std::list<std::pair<std::basic_string<char,std::char_traits<char>,std::allocator<char> > const ,Database::Results *>,std::allocator<std::pair<std::basic_string<char,std::char_traits<char>,std::allocator<char> > const ,Database::Results *> > >::_Iterator<0> > >::_Buy
	mov	BYTE PTR __$EHRec$[ebp+8], 2
	mov	eax, DWORD PTR _this$[ebp]
	movss	xmm0, DWORD PTR __real@40800000
	movss	DWORD PTR [eax+40], xmm0

; 344  : 		_Init();

	push	8
	mov	ecx, DWORD PTR _this$[ebp]
	call	?_Init@?$_Hash@V?$_Hmap_traits@V?$basic_string@DU?$char_traits@D@std@@V?$allocator@D@2@@std@@PAVResults@Database@@V?$hash_compare@V?$basic_string@DU?$char_traits@D@std@@V?$allocator@D@2@@std@@U?$less@V?$basic_string@DU?$char_traits@D@std@@V?$allocator@D@2@@std@@@2@@stdext@@V?$allocator@U?$pair@$$CBV?$basic_string@DU?$char_traits@D@std@@V?$allocator@D@2@@std@@PAVResults@Database@@@std@@@2@$0A@@stdext@@@stdext@@IAEXI@Z ; stdext::_Hash<stdext::_Hmap_traits<std::basic_string<char,std::char_traits<char>,std::allocator<char> >,Database::Results *,stdext::hash_compare<std::basic_string<char,std::char_traits<char>,std::allocator<char> >,std::less<std::basic_string<char,std::char_traits<char>,std::allocator<char> > > >,std::allocator<std::pair<std::basic_string<char,std::char_traits<char>,std::allocator<char> > const ,Database::Results *> >,0> >::_Init

; 345  : 		}

	mov	DWORD PTR __$EHRec$[ebp+8], -1
	mov	eax, DWORD PTR _this$[ebp]
	mov	ecx, DWORD PTR __$EHRec$[ebp]
	mov	DWORD PTR fs:0, ecx
	pop	ecx
	mov	esp, ebp
	pop	ebp
	ret	8
_TEXT	ENDS
;	COMDAT text$x
text$x	SEGMENT
__unwindfunclet$??0?$_Hash@V?$_Hmap_traits@V?$basic_string@DU?$char_traits@D@std@@V?$allocator@D@2@@std@@PAVResults@Database@@V?$hash_compare@V?$basic_string@DU?$char_traits@D@std@@V?$allocator@D@2@@std@@U?$less@V?$basic_string@DU?$char_traits@D@std@@V?$allocator@D@2@@std@@@2@@stdext@@V?$allocator@U?$pair@$$CBV?$basic_string@DU?$char_traits@D@std@@V?$allocator@D@2@@std@@PAVResults@Database@@@std@@@2@$0A@@stdext@@@stdext@@QAE@ABV?$hash_compare@V?$basic_string@DU?$char_traits@D@std@@V?$allocator@D@2@@std@@U?$less@V?$basic_string@DU?$char_traits@D@std@@V?$allocator@D@2@@std@@@2@@1@ABV?$allocator@U?$pair@$$CBV?$basic_string@DU?$char_traits@D@std@@V?$allocator@D@2@@std@@PAVResults@Database@@@std@@@std@@@Z$0:
	mov	ecx, DWORD PTR _this$[ebp]
	add	ecx, 4
	jmp	??1?$list@U?$pair@$$CBV?$basic_string@DU?$char_traits@D@std@@V?$allocator@D@2@@std@@PAVResults@Database@@@std@@V?$allocator@U?$pair@$$CBV?$basic_string@DU?$char_traits@D@std@@V?$allocator@D@2@@std@@PAVResults@Database@@@std@@@2@@std@@QAE@XZ ; std::list<std::pair<std::basic_string<char,std::char_traits<char>,std::allocator<char> > const ,Database::Results *>,std::allocator<std::pair<std::basic_string<char,std::char_traits<char>,std::allocator<char> > const ,Database::Results *> > >::~list<std::pair<std::basic_string<char,std::char_traits<char>,std::allocator<char> > const ,Database::Results *>,std::allocator<std::pair<std::basic_string<char,std::char_traits<char>,std::allocator<char> > const ,Database::Results *> > >
__unwindfunclet$??0?$_Hash@V?$_Hmap_traits@V?$basic_string@DU?$char_traits@D@std@@V?$allocator@D@2@@std@@PAVResults@Database@@V?$hash_compare@V?$basic_string@DU?$char_traits@D@std@@V?$allocator@D@2@@std@@U?$less@V?$basic_string@DU?$char_traits@D@std@@V?$allocator@D@2@@std@@@2@@stdext@@V?$allocator@U?$pair@$$CBV?$basic_string@DU?$char_traits@D@std@@V?$allocator@D@2@@std@@PAVResults@Database@@@std@@@2@$0A@@stdext@@@stdext@@QAE@ABV?$hash_compare@V?$basic_string@DU?$char_traits@D@std@@V?$allocator@D@2@@std@@U?$less@V?$basic_string@DU?$char_traits@D@std@@V?$allocator@D@2@@std@@@2@@1@ABV?$allocator@U?$pair@$$CBV?$basic_string@DU?$char_traits@D@std@@V?$allocator@D@2@@std@@PAVResults@Database@@@std@@@std@@@Z$5:
	mov	ecx, DWORD PTR $T222453[ebp]
	jmp	??1?$_Vector_val@V?$_Iterator@$0A@@?$list@U?$pair@$$CBV?$basic_string@DU?$char_traits@D@std@@V?$allocator@D@2@@std@@PAVResults@Database@@@std@@V?$allocator@U?$pair@$$CBV?$basic_string@DU?$char_traits@D@std@@V?$allocator@D@2@@std@@PAVResults@Database@@@std@@@2@@std@@V?$allocator@V?$_Iterator@$0A@@?$list@U?$pair@$$CBV?$basic_string@DU?$char_traits@D@std@@V?$allocator@D@2@@std@@PAVResults@Database@@@std@@V?$allocator@U?$pair@$$CBV?$basic_string@DU?$char_traits@D@std@@V?$allocator@D@2@@std@@PAVResults@Database@@@std@@@2@@std@@@3@@std@@QAE@XZ
__unwindfunclet$??0?$_Hash@V?$_Hmap_traits@V?$basic_string@DU?$char_traits@D@std@@V?$allocator@D@2@@std@@PAVResults@Database@@V?$hash_compare@V?$basic_string@DU?$char_traits@D@std@@V?$allocator@D@2@@std@@U?$less@V?$basic_string@DU?$char_traits@D@std@@V?$allocator@D@2@@std@@@2@@stdext@@V?$allocator@U?$pair@$$CBV?$basic_string@DU?$char_traits@D@std@@V?$allocator@D@2@@std@@PAVResults@Database@@@std@@@2@$0A@@stdext@@@stdext@@QAE@ABV?$hash_compare@V?$basic_string@DU?$char_traits@D@std@@V?$allocator@D@2@@std@@U?$less@V?$basic_string@DU?$char_traits@D@std@@V?$allocator@D@2@@std@@@2@@1@ABV?$allocator@U?$pair@$$CBV?$basic_string@DU?$char_traits@D@std@@V?$allocator@D@2@@std@@PAVResults@Database@@@std@@@std@@@Z$1:
	mov	ecx, DWORD PTR _this$[ebp]
	add	ecx, 16					; 00000010H
	jmp	??1?$vector@V?$_Iterator@$0A@@?$list@U?$pair@$$CBV?$basic_string@DU?$char_traits@D@std@@V?$allocator@D@2@@std@@PAVResults@Database@@@std@@V?$allocator@U?$pair@$$CBV?$basic_string@DU?$char_traits@D@std@@V?$allocator@D@2@@std@@PAVResults@Database@@@std@@@2@@std@@V?$allocator@V?$_Iterator@$0A@@?$list@U?$pair@$$CBV?$basic_string@DU?$char_traits@D@std@@V?$allocator@D@2@@std@@PAVResults@Database@@@std@@V?$allocator@U?$pair@$$CBV?$basic_string@DU?$char_traits@D@std@@V?$allocator@D@2@@std@@PAVResults@Database@@@std@@@2@@std@@@3@@std@@QAE@XZ ; std::vector<std::list<std::pair<std::basic_string<char,std::char_traits<char>,std::allocator<char> > const ,Database::Results *>,std::allocator<std::pair<std::basic_string<char,std::char_traits<char>,std::allocator<char> > const ,Database::Results *> > >::_Iterator<0>,std::allocator<std::list<std::pair<std::basic_string<char,std::char_traits<char>,std::allocator<char> > const ,Database::Results *>,std::allocator<std::pair<std::basic_string<char,std::char_traits<char>,std::allocator<char> > const ,Database::Results *> > >::_Iterator<0> > >::~vector<std::list<std::pair<std::basic_string<char,std::char_traits<char>,std::allocator<char> > const ,Database::Results *>,std::allocator<std::pair<std::basic_string<char,std::char_traits<char>,std::allocator<char> > const ,Database::Results *> > >::_Iterator<0>,std::allocator<std::list<std::pair<std::basic_string<char,std::char_traits<char>,std::allocator<char> > const ,Database::Results *>,std::allocator<std::pair<std::basic_string<char,std::char_traits<char>,std::allocator<char> > const ,Database::Results *> > >::_Iterator<0> > >
__ehhandler$??0?$_Hash@V?$_Hmap_traits@V?$basic_string@DU?$char_traits@D@std@@V?$allocator@D@2@@std@@PAVResults@Database@@V?$hash_compare@V?$basic_string@DU?$char_traits@D@std@@V?$allocator@D@2@@std@@U?$less@V?$basic_string@DU?$char_traits@D@std@@V?$allocator@D@2@@std@@@2@@stdext@@V?$allocator@U?$pair@$$CBV?$basic_string@DU?$char_traits@D@std@@V?$allocator@D@2@@std@@PAVResults@Database@@@std@@@2@$0A@@stdext@@@stdext@@QAE@ABV?$hash_compare@V?$basic_string@DU?$char_traits@D@std@@V?$allocator@D@2@@std@@U?$less@V?$basic_string@DU?$char_traits@D@std@@V?$allocator@D@2@@std@@@2@@1@ABV?$allocator@U?$pair@$$CBV?$basic_string@DU?$char_traits@D@std@@V?$allocator@D@2@@std@@PAVResults@Database@@@std@@@std@@@Z:
	mov	edx, DWORD PTR [esp+8]
	lea	eax, DWORD PTR [edx+12]
	mov	ecx, DWORD PTR [edx-264]
	xor	ecx, eax
	call	@__security_check_cookie@4
	mov	eax, OFFSET __ehfuncinfo$??0?$_Hash@V?$_Hmap_traits@V?$basic_string@DU?$char_traits@D@std@@V?$allocator@D@2@@std@@PAVResults@Database@@V?$hash_compare@V?$basic_string@DU?$char_traits@D@std@@V?$allocator@D@2@@std@@U?$less@V?$basic_string@DU?$char_traits@D@std@@V?$allocator@D@2@@std@@@2@@stdext@@V?$allocator@U?$pair@$$CBV?$basic_string@DU?$char_traits@D@std@@V?$allocator@D@2@@std@@PAVResults@Database@@@std@@@2@$0A@@stdext@@@stdext@@QAE@ABV?$hash_compare@V?$basic_string@DU?$char_traits@D@std@@V?$allocator@D@2@@std@@U?$less@V?$basic_string@DU?$char_traits@D@std@@V?$allocator@D@2@@std@@@2@@1@ABV?$allocator@U?$pair@$$CBV?$basic_string@DU?$char_traits@D@std@@V?$allocator@D@2@@std@@PAVResults@Database@@@std@@@std@@@Z
	jmp	___CxxFrameHandler3
text$x	ENDS
??0?$_Hash@V?$_Hmap_traits@V?$basic_string@DU?$char_traits@D@std@@V?$allocator@D@2@@std@@PAVResults@Database@@V?$hash_compare@V?$basic_string@DU?$char_traits@D@std@@V?$allocator@D@2@@std@@U?$less@V?$basic_string@DU?$char_traits@D@std@@V?$allocator@D@2@@std@@@2@@stdext@@V?$allocator@U?$pair@$$CBV?$basic_string@DU?$char_traits@D@std@@V?$allocator@D@2@@std@@PAVResults@Database@@@std@@@2@$0A@@stdext@@@stdext@@QAE@ABV?$hash_compare@V?$basic_string@DU?$char_traits@D@std@@V?$allocator@D@2@@std@@U?$less@V?$basic_string@DU?$char_traits@D@std@@V?$allocator@D@2@@std@@@2@@1@ABV?$allocator@U?$pair@$$CBV?$basic_string@DU?$char_traits@D@std@@V?$allocator@D@2@@std@@PAVResults@Database@@@std@@@std@@@Z ENDP ; stdext::_Hash<stdext::_Hmap_traits<std::basic_string<char,std::char_traits<char>,std::allocator<char> >,Database::Results *,stdext::hash_compare<std::basic_string<char,std::char_traits<char>,std::allocator<char> >,std::less<std::basic_string<char,std::char_traits<char>,std::allocator<char> > > >,std::allocator<std::pair<std::basic_string<char,std::char_traits<char>,std::allocator<char> > const ,Database::Results *> >,0> >::_Hash<stdext::_Hmap_traits<std::basic_string<char,std::char_traits<char>,std::allocator<char> >,Database::Results *,stdext::hash_compare<std::basic_string<char,std::char_traits<char>,std::allocator<char> >,std::less<std::basic_string<char,std::char_traits<char>,std::allocator<char> > > >,std::allocator<std::pair<std::basic_string<char,std::char_traits<char>,std::allocator<char> > const ,Database::Results *> >,0> >
;	COMDAT xdata$x
; File c:\program files (x86)\microsoft visual studio 9.0\vc\include\xutility
xdata$x	SEGMENT
__unwindtable$??1?$vector@V?$_Iterator@$0A@@?$list@U?$pair@$$CBV?$basic_string@DU?$char_traits@D@std@@V?$allocator@D@2@@std@@PAVResults@Database@@@std@@V?$allocator@U?$pair@$$CBV?$basic_string@DU?$char_traits@D@std@@V?$allocator@D@2@@std@@PAVResults@Database@@@std@@@2@@std@@V?$allocator@V?$_Iterator@$0A@@?$list@U?$pair@$$CBV?$basic_string@DU?$char_traits@D@std@@V?$allocator@D@2@@std@@PAVResults@Database@@@std@@V?$allocator@U?$pair@$$CBV?$basic_string@DU?$char_traits@D@std@@V?$allocator@D@2@@std@@PAVResults@Database@@@std@@@2@@std@@@3@@std@@QAE@XZ DD 0ffffffffH
	DD	FLAT:__unwindfunclet$??1?$vector@V?$_Iterator@$0A@@?$list@U?$pair@$$CBV?$basic_string@DU?$char_traits@D@std@@V?$allocator@D@2@@std@@PAVResults@Database@@@std@@V?$allocator@U?$pair@$$CBV?$basic_string@DU?$char_traits@D@std@@V?$allocator@D@2@@std@@PAVResults@Database@@@std@@@2@@std@@V?$allocator@V?$_Iterator@$0A@@?$list@U?$pair@$$CBV?$basic_string@DU?$char_traits@D@std@@V?$allocator@D@2@@std@@PAVResults@Database@@@std@@V?$allocator@U?$pair@$$CBV?$basic_string@DU?$char_traits@D@std@@V?$allocator@D@2@@std@@PAVResults@Database@@@std@@@2@@std@@@3@@std@@QAE@XZ$0
__ehfuncinfo$??1?$vector@V?$_Iterator@$0A@@?$list@U?$pair@$$CBV?$basic_string@DU?$char_traits@D@std@@V?$allocator@D@2@@std@@PAVResults@Database@@@std@@V?$allocator@U?$pair@$$CBV?$basic_string@DU?$char_traits@D@std@@V?$allocator@D@2@@std@@PAVResults@Database@@@std@@@2@@std@@V?$allocator@V?$_Iterator@$0A@@?$list@U?$pair@$$CBV?$basic_string@DU?$char_traits@D@std@@V?$allocator@D@2@@std@@PAVResults@Database@@@std@@V?$allocator@U?$pair@$$CBV?$basic_string@DU?$char_traits@D@std@@V?$allocator@D@2@@std@@PAVResults@Database@@@std@@@2@@std@@@3@@std@@QAE@XZ DD 019930522H
	DD	01H
	DD	FLAT:__unwindtable$??1?$vector@V?$_Iterator@$0A@@?$list@U?$pair@$$CBV?$basic_string@DU?$char_traits@D@std@@V?$allocator@D@2@@std@@PAVResults@Database@@@std@@V?$allocator@U?$pair@$$CBV?$basic_string@DU?$char_traits@D@std@@V?$allocator@D@2@@std@@PAVResults@Database@@@std@@@2@@std@@V?$allocator@V?$_Iterator@$0A@@?$list@U?$pair@$$CBV?$basic_string@DU?$char_traits@D@std@@V?$allocator@D@2@@std@@PAVResults@Database@@@std@@V?$allocator@U?$pair@$$CBV?$basic_string@DU?$char_traits@D@std@@V?$allocator@D@2@@std@@PAVResults@Database@@@std@@@2@@std@@@3@@std@@QAE@XZ
	DD	2 DUP(00H)
	DD	2 DUP(00H)
	DD	00H
	DD	01H
; Function compile flags: /Odtp
; File c:\program files (x86)\microsoft visual studio 9.0\vc\include\vector
xdata$x	ENDS
;	COMDAT ??1?$vector@V?$_Iterator@$0A@@?$list@U?$pair@$$CBV?$basic_string@DU?$char_traits@D@std@@V?$allocator@D@2@@std@@PAVResults@Database@@@std@@V?$allocator@U?$pair@$$CBV?$basic_string@DU?$char_traits@D@std@@V?$allocator@D@2@@std@@PAVResults@Database@@@std@@@2@@std@@V?$allocator@V?$_Iterator@$0A@@?$list@U?$pair@$$CBV?$basic_string@DU?$char_traits@D@std@@V?$allocator@D@2@@std@@PAVResults@Database@@@std@@V?$allocator@U?$pair@$$CBV?$basic_string@DU?$char_traits@D@std@@V?$allocator@D@2@@std@@PAVResults@Database@@@std@@@2@@std@@@3@@std@@QAE@XZ
_TEXT	SEGMENT
_this$ = -48						; size = 4
__$EHRec$ = -12						; size = 12
??1?$vector@V?$_Iterator@$0A@@?$list@U?$pair@$$CBV?$basic_string@DU?$char_traits@D@std@@V?$allocator@D@2@@std@@PAVResults@Database@@@std@@V?$allocator@U?$pair@$$CBV?$basic_string@DU?$char_traits@D@std@@V?$allocator@D@2@@std@@PAVResults@Database@@@std@@@2@@std@@V?$allocator@V?$_Iterator@$0A@@?$list@U?$pair@$$CBV?$basic_string@DU?$char_traits@D@std@@V?$allocator@D@2@@std@@PAVResults@Database@@@std@@V?$allocator@U?$pair@$$CBV?$basic_string@DU?$char_traits@D@std@@V?$allocator@D@2@@std@@PAVResults@Database@@@std@@@2@@std@@@3@@std@@QAE@XZ PROC ; std::vector<std::list<std::pair<std::basic_string<char,std::char_traits<char>,std::allocator<char> > const ,Database::Results *>,std::allocator<std::pair<std::basic_string<char,std::char_traits<char>,std::allocator<char> > const ,Database::Results *> > >::_Iterator<0>,std::allocator<std::list<std::pair<std::basic_string<char,std::char_traits<char>,std::allocator<char> > const ,Database::Results *>,std::allocator<std::pair<std::basic_string<char,std::char_traits<char>,std::allocator<char> > const ,Database::Results *> > >::_Iterator<0> > >::~vector<std::list<std::pair<std::basic_string<char,std::char_traits<char>,std::allocator<char> > const ,Database::Results *>,std::allocator<std::pair<std::basic_string<char,std::char_traits<char>,std::allocator<char> > const ,Database::Results *> > >::_Iterator<0>,std::allocator<std::list<std::pair<std::basic_string<char,std::char_traits<char>,std::allocator<char> > const ,Database::Results *>,std::allocator<std::pair<std::basic_string<char,std::char_traits<char>,std::allocator<char> > const ,Database::Results *> > >::_Iterator<0> > >, COMDAT
; _this$ = ecx

; 558  : 		{	// destroy the object

	push	ebp
	mov	ebp, esp
	push	-1
	push	__ehhandler$??1?$vector@V?$_Iterator@$0A@@?$list@U?$pair@$$CBV?$basic_string@DU?$char_traits@D@std@@V?$allocator@D@2@@std@@PAVResults@Database@@@std@@V?$allocator@U?$pair@$$CBV?$basic_string@DU?$char_traits@D@std@@V?$allocator@D@2@@std@@PAVResults@Database@@@std@@@2@@std@@V?$allocator@V?$_Iterator@$0A@@?$list@U?$pair@$$CBV?$basic_string@DU?$char_traits@D@std@@V?$allocator@D@2@@std@@PAVResults@Database@@@std@@V?$allocator@U?$pair@$$CBV?$basic_string@DU?$char_traits@D@std@@V?$allocator@D@2@@std@@PAVResults@Database@@@std@@@2@@std@@@3@@std@@QAE@XZ
	mov	eax, DWORD PTR fs:0
	push	eax
	sub	esp, 36					; 00000024H
	mov	eax, DWORD PTR ___security_cookie
	xor	eax, ebp
	push	eax
	lea	eax, DWORD PTR __$EHRec$[ebp]
	mov	DWORD PTR fs:0, eax
	mov	DWORD PTR _this$[ebp], ecx
	mov	DWORD PTR __$EHRec$[ebp+8], 0

; 559  : 		_Tidy();

	mov	ecx, DWORD PTR _this$[ebp]
	call	?_Tidy@?$vector@V?$_Iterator@$0A@@?$list@U?$pair@$$CBV?$basic_string@DU?$char_traits@D@std@@V?$allocator@D@2@@std@@PAVResults@Database@@@std@@V?$allocator@U?$pair@$$CBV?$basic_string@DU?$char_traits@D@std@@V?$allocator@D@2@@std@@PAVResults@Database@@@std@@@2@@std@@V?$allocator@V?$_Iterator@$0A@@?$list@U?$pair@$$CBV?$basic_string@DU?$char_traits@D@std@@V?$allocator@D@2@@std@@PAVResults@Database@@@std@@V?$allocator@U?$pair@$$CBV?$basic_string@DU?$char_traits@D@std@@V?$allocator@D@2@@std@@PAVResults@Database@@@std@@@2@@std@@@3@@std@@IAEXXZ ; std::vector<std::list<std::pair<std::basic_string<char,std::char_traits<char>,std::allocator<char> > const ,Database::Results *>,std::allocator<std::pair<std::basic_string<char,std::char_traits<char>,std::allocator<char> > const ,Database::Results *> > >::_Iterator<0>,std::allocator<std::list<std::pair<std::basic_string<char,std::char_traits<char>,std::allocator<char> > const ,Database::Results *>,std::allocator<std::pair<std::basic_string<char,std::char_traits<char>,std::allocator<char> > const ,Database::Results *> > >::_Iterator<0> > >::_Tidy

; 560  : 		}

	mov	DWORD PTR __$EHRec$[ebp+8], -1
	mov	ecx, DWORD PTR __$EHRec$[ebp]
	mov	DWORD PTR fs:0, ecx
	pop	ecx
	mov	esp, ebp
	pop	ebp
	ret	0
_TEXT	ENDS
;	COMDAT text$x
text$x	SEGMENT
__unwindfunclet$??1?$vector@V?$_Iterator@$0A@@?$list@U?$pair@$$CBV?$basic_string@DU?$char_traits@D@std@@V?$allocator@D@2@@std@@PAVResults@Database@@@std@@V?$allocator@U?$pair@$$CBV?$basic_string@DU?$char_traits@D@std@@V?$allocator@D@2@@std@@PAVResults@Database@@@std@@@2@@std@@V?$allocator@V?$_Iterator@$0A@@?$list@U?$pair@$$CBV?$basic_string@DU?$char_traits@D@std@@V?$allocator@D@2@@std@@PAVResults@Database@@@std@@V?$allocator@U?$pair@$$CBV?$basic_string@DU?$char_traits@D@std@@V?$allocator@D@2@@std@@PAVResults@Database@@@std@@@2@@std@@@3@@std@@QAE@XZ$0:
	mov	ecx, DWORD PTR _this$[ebp]
	jmp	??1?$_Vector_val@V?$_Iterator@$0A@@?$list@U?$pair@$$CBV?$basic_string@DU?$char_traits@D@std@@V?$allocator@D@2@@std@@PAVResults@Database@@@std@@V?$allocator@U?$pair@$$CBV?$basic_string@DU?$char_traits@D@std@@V?$allocator@D@2@@std@@PAVResults@Database@@@std@@@2@@std@@V?$allocator@V?$_Iterator@$0A@@?$list@U?$pair@$$CBV?$basic_string@DU?$char_traits@D@std@@V?$allocator@D@2@@std@@PAVResults@Database@@@std@@V?$allocator@U?$pair@$$CBV?$basic_string@DU?$char_traits@D@std@@V?$allocator@D@2@@std@@PAVResults@Database@@@std@@@2@@std@@@3@@std@@QAE@XZ
__ehhandler$??1?$vector@V?$_Iterator@$0A@@?$list@U?$pair@$$CBV?$basic_string@DU?$char_traits@D@std@@V?$allocator@D@2@@std@@PAVResults@Database@@@std@@V?$allocator@U?$pair@$$CBV?$basic_string@DU?$char_traits@D@std@@V?$allocator@D@2@@std@@PAVResults@Database@@@std@@@2@@std@@V?$allocator@V?$_Iterator@$0A@@?$list@U?$pair@$$CBV?$basic_string@DU?$char_traits@D@std@@V?$allocator@D@2@@std@@PAVResults@Database@@@std@@V?$allocator@U?$pair@$$CBV?$basic_string@DU?$char_traits@D@std@@V?$allocator@D@2@@std@@PAVResults@Database@@@std@@@2@@std@@@3@@std@@QAE@XZ:
	mov	edx, DWORD PTR [esp+8]
	lea	eax, DWORD PTR [edx+12]
	mov	ecx, DWORD PTR [edx-40]
	xor	ecx, eax
	call	@__security_check_cookie@4
	mov	eax, OFFSET __ehfuncinfo$??1?$vector@V?$_Iterator@$0A@@?$list@U?$pair@$$CBV?$basic_string@DU?$char_traits@D@std@@V?$allocator@D@2@@std@@PAVResults@Database@@@std@@V?$allocator@U?$pair@$$CBV?$basic_string@DU?$char_traits@D@std@@V?$allocator@D@2@@std@@PAVResults@Database@@@std@@@2@@std@@V?$allocator@V?$_Iterator@$0A@@?$list@U?$pair@$$CBV?$basic_string@DU?$char_traits@D@std@@V?$allocator@D@2@@std@@PAVResults@Database@@@std@@V?$allocator@U?$pair@$$CBV?$basic_string@DU?$char_traits@D@std@@V?$allocator@D@2@@std@@PAVResults@Database@@@std@@@2@@std@@@3@@std@@QAE@XZ
	jmp	___CxxFrameHandler3
text$x	ENDS
??1?$vector@V?$_Iterator@$0A@@?$list@U?$pair@$$CBV?$basic_string@DU?$char_traits@D@std@@V?$allocator@D@2@@std@@PAVResults@Database@@@std@@V?$allocator@U?$pair@$$CBV?$basic_string@DU?$char_traits@D@std@@V?$allocator@D@2@@std@@PAVResults@Database@@@std@@@2@@std@@V?$allocator@V?$_Iterator@$0A@@?$list@U?$pair@$$CBV?$basic_string@DU?$char_traits@D@std@@V?$allocator@D@2@@std@@PAVResults@Database@@@std@@V?$allocator@U?$pair@$$CBV?$basic_string@DU?$char_traits@D@std@@V?$allocator@D@2@@std@@PAVResults@Database@@@std@@@2@@std@@@3@@std@@QAE@XZ ENDP ; std::vector<std::list<std::pair<std::basic_string<char,std::char_traits<char>,std::allocator<char> > const ,Database::Results *>,std::allocator<std::pair<std::basic_string<char,std::char_traits<char>,std::allocator<char> > const ,Database::Results *> > >::_Iterator<0>,std::allocator<std::list<std::pair<std::basic_string<char,std::char_traits<char>,std::allocator<char> > const ,Database::Results *>,std::allocator<std::pair<std::basic_string<char,std::char_traits<char>,std::allocator<char> > const ,Database::Results *> > >::_Iterator<0> > >::~vector<std::list<std::pair<std::basic_string<char,std::char_traits<char>,std::allocator<char> > const ,Database::Results *>,std::allocator<std::pair<std::basic_string<char,std::char_traits<char>,std::allocator<char> > const ,Database::Results *> > >::_Iterator<0>,std::allocator<std::list<std::pair<std::basic_string<char,std::char_traits<char>,std::allocator<char> > const ,Database::Results *>,std::allocator<std::pair<std::basic_string<char,std::char_traits<char>,std::allocator<char> > const ,Database::Results *> > >::_Iterator<0> > >
PUBLIC	?erase@?$_Hash@V?$_Hmap_traits@V?$basic_string@DU?$char_traits@D@std@@V?$allocator@D@2@@std@@PAVResults@Database@@V?$hash_compare@V?$basic_string@DU?$char_traits@D@std@@V?$allocator@D@2@@std@@U?$less@V?$basic_string@DU?$char_traits@D@std@@V?$allocator@D@2@@std@@@2@@stdext@@V?$allocator@U?$pair@$$CBV?$basic_string@DU?$char_traits@D@std@@V?$allocator@D@2@@std@@PAVResults@Database@@@std@@@2@$0A@@stdext@@@stdext@@QAE?AV?$_Iterator@$0A@@?$list@U?$pair@$$CBV?$basic_string@DU?$char_traits@D@std@@V?$allocator@D@2@@std@@PAVResults@Database@@@std@@V?$allocator@U?$pair@$$CBV?$basic_string@DU?$char_traits@D@std@@V?$allocator@D@2@@std@@PAVResults@Database@@@std@@@2@@std@@V?$_Const_iterator@$0A@@45@@Z ; stdext::_Hash<stdext::_Hmap_traits<std::basic_string<char,std::char_traits<char>,std::allocator<char> >,Database::Results *,stdext::hash_compare<std::basic_string<char,std::char_traits<char>,std::allocator<char> >,std::less<std::basic_string<char,std::char_traits<char>,std::allocator<char> > > >,std::allocator<std::pair<std::basic_string<char,std::char_traits<char>,std::allocator<char> > const ,Database::Results *> >,0> >::erase
; Function compile flags: /Odtp
; File c:\program files (x86)\microsoft visual studio 9.0\vc\include\xhash
;	COMDAT ?erase@?$_Hash@V?$_Hmap_traits@V?$basic_string@DU?$char_traits@D@std@@V?$allocator@D@2@@std@@PAVResults@Database@@V?$hash_compare@V?$basic_string@DU?$char_traits@D@std@@V?$allocator@D@2@@std@@U?$less@V?$basic_string@DU?$char_traits@D@std@@V?$allocator@D@2@@std@@@2@@stdext@@V?$allocator@U?$pair@$$CBV?$basic_string@DU?$char_traits@D@std@@V?$allocator@D@2@@std@@PAVResults@Database@@@std@@@2@$0A@@stdext@@@stdext@@QAE?AV?$_Iterator@$0A@@?$list@U?$pair@$$CBV?$basic_string@DU?$char_traits@D@std@@V?$allocator@D@2@@std@@PAVResults@Database@@@std@@V?$allocator@U?$pair@$$CBV?$basic_string@DU?$char_traits@D@std@@V?$allocator@D@2@@std@@PAVResults@Database@@@std@@@2@@std@@V?$_Const_iterator@$0A@@45@0@Z
_TEXT	SEGMENT
_this$ = -112						; size = 4
$T223111 = -108						; size = 4
__Tmp$222946 = -60					; size = 4
$T222909 = -56						; size = 4
$T222900 = -52						; size = 4
$T222815 = -28						; size = 4
$T222783 = -24						; size = 4
$T222774 = -20						; size = 4
$T222768 = -16						; size = 4
$T222767 = -12						; size = 4
$T222766 = -8						; size = 4
$T222765 = -4						; size = 4
___$ReturnUdt$ = 8					; size = 4
__First$ = 12						; size = 4
__Last$ = 16						; size = 4
?erase@?$_Hash@V?$_Hmap_traits@V?$basic_string@DU?$char_traits@D@std@@V?$allocator@D@2@@std@@PAVResults@Database@@V?$hash_compare@V?$basic_string@DU?$char_traits@D@std@@V?$allocator@D@2@@std@@U?$less@V?$basic_string@DU?$char_traits@D@std@@V?$allocator@D@2@@std@@@2@@stdext@@V?$allocator@U?$pair@$$CBV?$basic_string@DU?$char_traits@D@std@@V?$allocator@D@2@@std@@PAVResults@Database@@@std@@@2@$0A@@stdext@@@stdext@@QAE?AV?$_Iterator@$0A@@?$list@U?$pair@$$CBV?$basic_string@DU?$char_traits@D@std@@V?$allocator@D@2@@std@@PAVResults@Database@@@std@@V?$allocator@U?$pair@$$CBV?$basic_string@DU?$char_traits@D@std@@V?$allocator@D@2@@std@@PAVResults@Database@@@std@@@2@@std@@V?$_Const_iterator@$0A@@45@0@Z PROC ; stdext::_Hash<stdext::_Hmap_traits<std::basic_string<char,std::char_traits<char>,std::allocator<char> >,Database::Results *,stdext::hash_compare<std::basic_string<char,std::char_traits<char>,std::allocator<char> >,std::less<std::basic_string<char,std::char_traits<char>,std::allocator<char> > > >,std::allocator<std::pair<std::basic_string<char,std::char_traits<char>,std::allocator<char> > const ,Database::Results *> >,0> >::erase, COMDAT
; _this$ = ecx

; 580  : 		{	// erase [_First, _Last)

	push	ebp
	mov	ebp, esp
	sub	esp, 112				; 00000070H
	mov	DWORD PTR _this$[ebp], ecx

; 581  : 		_DEBUG_RANGE(_First, _Last);
; 582  : 		if (_First == begin() && _Last == end())

	mov	eax, DWORD PTR _this$[ebp]
	mov	ecx, DWORD PTR [eax+8]
	mov	DWORD PTR $T222774[ebp], ecx
	mov	edx, DWORD PTR $T222774[ebp]
	mov	eax, DWORD PTR [edx]
	mov	DWORD PTR $T222783[ebp], eax
	mov	ecx, DWORD PTR $T222783[ebp]
	mov	DWORD PTR $T222765[ebp], ecx
	mov	edx, DWORD PTR __First$[ebp]
	xor	eax, eax
	cmp	edx, DWORD PTR $T222765[ebp]
	sete	al
	movzx	ecx, al
	test	ecx, ecx
	je	SHORT $LN69@erase@2
	mov	edx, DWORD PTR _this$[ebp]
	mov	eax, DWORD PTR [edx+8]
	mov	DWORD PTR $T222815[ebp], eax
	mov	ecx, DWORD PTR $T222815[ebp]
	mov	DWORD PTR $T222766[ebp], ecx
	mov	edx, DWORD PTR __Last$[ebp]
	xor	eax, eax
	cmp	edx, DWORD PTR $T222766[ebp]
	sete	al
	movzx	ecx, al
	test	ecx, ecx
	je	SHORT $LN69@erase@2

; 583  : 			{	// erase all
; 584  : 			clear();

	mov	ecx, DWORD PTR _this$[ebp]
	add	ecx, 4
	call	?clear@?$list@U?$pair@$$CBV?$basic_string@DU?$char_traits@D@std@@V?$allocator@D@2@@std@@PAVResults@Database@@@std@@V?$allocator@U?$pair@$$CBV?$basic_string@DU?$char_traits@D@std@@V?$allocator@D@2@@std@@PAVResults@Database@@@std@@@2@@std@@QAEXXZ ; std::list<std::pair<std::basic_string<char,std::char_traits<char>,std::allocator<char> > const ,Database::Results *>,std::allocator<std::pair<std::basic_string<char,std::char_traits<char>,std::allocator<char> > const ,Database::Results *> > >::clear
	push	8
	mov	ecx, DWORD PTR _this$[ebp]
	call	?_Init@?$_Hash@V?$_Hmap_traits@V?$basic_string@DU?$char_traits@D@std@@V?$allocator@D@2@@std@@PAVResults@Database@@V?$hash_compare@V?$basic_string@DU?$char_traits@D@std@@V?$allocator@D@2@@std@@U?$less@V?$basic_string@DU?$char_traits@D@std@@V?$allocator@D@2@@std@@@2@@stdext@@V?$allocator@U?$pair@$$CBV?$basic_string@DU?$char_traits@D@std@@V?$allocator@D@2@@std@@PAVResults@Database@@@std@@@2@$0A@@stdext@@@stdext@@IAEXI@Z ; stdext::_Hash<stdext::_Hmap_traits<std::basic_string<char,std::char_traits<char>,std::allocator<char> >,Database::Results *,stdext::hash_compare<std::basic_string<char,std::char_traits<char>,std::allocator<char> >,std::less<std::basic_string<char,std::char_traits<char>,std::allocator<char> > > >,std::allocator<std::pair<std::basic_string<char,std::char_traits<char>,std::allocator<char> > const ,Database::Results *> >,0> >::_Init

; 585  : 			return (begin());

	mov	edx, DWORD PTR _this$[ebp]
	mov	eax, DWORD PTR [edx+8]
	mov	DWORD PTR $T222900[ebp], eax
	mov	ecx, DWORD PTR $T222900[ebp]
	mov	edx, DWORD PTR [ecx]
	mov	DWORD PTR $T222909[ebp], edx
	mov	eax, DWORD PTR ___$ReturnUdt$[ebp]
	mov	ecx, DWORD PTR $T222909[ebp]
	mov	DWORD PTR [eax], ecx
	mov	eax, DWORD PTR ___$ReturnUdt$[ebp]
	jmp	SHORT $LN5@erase@2

; 586  : 			}
; 587  : 		else

	jmp	SHORT $LN5@erase@2

; 588  : 			{	// partial erase, one at a time
; 589  : 			while (_First != _Last)

$LN69@erase@2:
	mov	edx, DWORD PTR __First$[ebp]
	xor	eax, eax
	cmp	edx, DWORD PTR __Last$[ebp]
	sete	al
	movzx	ecx, al
	neg	ecx
	sbb	ecx, ecx
	add	ecx, 1
	movzx	edx, cl
	test	edx, edx
	je	SHORT $LN1@erase@2

; 590  : 				erase(_First++);

	mov	eax, DWORD PTR __First$[ebp]
	mov	DWORD PTR __Tmp$222946[ebp], eax
	mov	ecx, DWORD PTR __First$[ebp]
	mov	edx, DWORD PTR [ecx]
	mov	DWORD PTR __First$[ebp], edx
	mov	eax, DWORD PTR __Tmp$222946[ebp]
	mov	DWORD PTR $T222767[ebp], eax
	mov	ecx, DWORD PTR $T222767[ebp]
	push	ecx
	lea	edx, DWORD PTR $T222768[ebp]
	push	edx
	mov	ecx, DWORD PTR _this$[ebp]
	call	?erase@?$_Hash@V?$_Hmap_traits@V?$basic_string@DU?$char_traits@D@std@@V?$allocator@D@2@@std@@PAVResults@Database@@V?$hash_compare@V?$basic_string@DU?$char_traits@D@std@@V?$allocator@D@2@@std@@U?$less@V?$basic_string@DU?$char_traits@D@std@@V?$allocator@D@2@@std@@@2@@stdext@@V?$allocator@U?$pair@$$CBV?$basic_string@DU?$char_traits@D@std@@V?$allocator@D@2@@std@@PAVResults@Database@@@std@@@2@$0A@@stdext@@@stdext@@QAE?AV?$_Iterator@$0A@@?$list@U?$pair@$$CBV?$basic_string@DU?$char_traits@D@std@@V?$allocator@D@2@@std@@PAVResults@Database@@@std@@V?$allocator@U?$pair@$$CBV?$basic_string@DU?$char_traits@D@std@@V?$allocator@D@2@@std@@PAVResults@Database@@@std@@@2@@std@@V?$_Const_iterator@$0A@@45@@Z ; stdext::_Hash<stdext::_Hmap_traits<std::basic_string<char,std::char_traits<char>,std::allocator<char> >,Database::Results *,stdext::hash_compare<std::basic_string<char,std::char_traits<char>,std::allocator<char> >,std::less<std::basic_string<char,std::char_traits<char>,std::allocator<char> > > >,std::allocator<std::pair<std::basic_string<char,std::char_traits<char>,std::allocator<char> > const ,Database::Results *> >,0> >::erase
	jmp	SHORT $LN69@erase@2
$LN1@erase@2:

; 591  : 			return (_List._Make_iter(_First));

	mov	eax, DWORD PTR __First$[ebp]
	mov	DWORD PTR $T223111[ebp], eax
	mov	ecx, DWORD PTR ___$ReturnUdt$[ebp]
	mov	edx, DWORD PTR $T223111[ebp]
	mov	DWORD PTR [ecx], edx
	mov	eax, DWORD PTR ___$ReturnUdt$[ebp]
$LN5@erase@2:

; 592  : 			}
; 593  : 		}

	mov	esp, ebp
	pop	ebp
	ret	12					; 0000000cH
?erase@?$_Hash@V?$_Hmap_traits@V?$basic_string@DU?$char_traits@D@std@@V?$allocator@D@2@@std@@PAVResults@Database@@V?$hash_compare@V?$basic_string@DU?$char_traits@D@std@@V?$allocator@D@2@@std@@U?$less@V?$basic_string@DU?$char_traits@D@std@@V?$allocator@D@2@@std@@@2@@stdext@@V?$allocator@U?$pair@$$CBV?$basic_string@DU?$char_traits@D@std@@V?$allocator@D@2@@std@@PAVResults@Database@@@std@@@2@$0A@@stdext@@@stdext@@QAE?AV?$_Iterator@$0A@@?$list@U?$pair@$$CBV?$basic_string@DU?$char_traits@D@std@@V?$allocator@D@2@@std@@PAVResults@Database@@@std@@V?$allocator@U?$pair@$$CBV?$basic_string@DU?$char_traits@D@std@@V?$allocator@D@2@@std@@PAVResults@Database@@@std@@@2@@std@@V?$_Const_iterator@$0A@@45@0@Z ENDP ; stdext::_Hash<stdext::_Hmap_traits<std::basic_string<char,std::char_traits<char>,std::allocator<char> >,Database::Results *,stdext::hash_compare<std::basic_string<char,std::char_traits<char>,std::allocator<char> >,std::less<std::basic_string<char,std::char_traits<char>,std::allocator<char> > > >,std::allocator<std::pair<std::basic_string<char,std::char_traits<char>,std::allocator<char> > const ,Database::Results *> >,0> >::erase
_TEXT	ENDS
PUBLIC	??R?$hash_compare@V?$basic_string@DU?$char_traits@D@std@@V?$allocator@D@2@@std@@U?$less@V?$basic_string@DU?$char_traits@D@std@@V?$allocator@D@2@@std@@@2@@stdext@@QBEIABV?$basic_string@DU?$char_traits@D@std@@V?$allocator@D@2@@std@@@Z ; stdext::hash_compare<std::basic_string<char,std::char_traits<char>,std::allocator<char> >,std::less<std::basic_string<char,std::char_traits<char>,std::allocator<char> > > >::operator()
EXTRN	__imp_??$?MDU?$char_traits@D@std@@V?$allocator@D@1@@std@@YA_NABV?$basic_string@DU?$char_traits@D@std@@V?$allocator@D@2@@0@0@Z:PROC
; Function compile flags: /Odtp
;	COMDAT ?lower_bound@?$_Hash@V?$_Hmap_traits@V?$basic_string@DU?$char_traits@D@std@@V?$allocator@D@2@@std@@PAVResults@Database@@V?$hash_compare@V?$basic_string@DU?$char_traits@D@std@@V?$allocator@D@2@@std@@U?$less@V?$basic_string@DU?$char_traits@D@std@@V?$allocator@D@2@@std@@@2@@stdext@@V?$allocator@U?$pair@$$CBV?$basic_string@DU?$char_traits@D@std@@V?$allocator@D@2@@std@@PAVResults@Database@@@std@@@2@$0A@@stdext@@@stdext@@QAE?AV?$_Iterator@$0A@@?$list@U?$pair@$$CBV?$basic_string@DU?$char_traits@D@std@@V?$allocator@D@2@@std@@PAVResults@Database@@@std@@V?$allocator@U?$pair@$$CBV?$basic_string@DU?$char_traits@D@std@@V?$allocator@D@2@@std@@PAVResults@Database@@@std@@@2@@std@@ABV?$basic_string@DU?$char_traits@D@std@@V?$allocator@D@2@@5@@Z
_TEXT	SEGMENT
tv161 = -56						; size = 4
_this$ = -52						; size = 4
$T223255 = -48						; size = 4
$T223230 = -44						; size = 4
$T223208 = -40						; size = 4
$T223181 = -36						; size = 4
$T223157 = -32						; size = 4
$T223135 = -28						; size = 4
__Num$223121 = -24					; size = 4
$T223116 = -20						; size = 4
$T223115 = -16						; size = 4
$T223114 = -12						; size = 4
__Where$ = -8						; size = 4
__Bucket$ = -4						; size = 4
___$ReturnUdt$ = 8					; size = 4
__Keyval$ = 12						; size = 4
?lower_bound@?$_Hash@V?$_Hmap_traits@V?$basic_string@DU?$char_traits@D@std@@V?$allocator@D@2@@std@@PAVResults@Database@@V?$hash_compare@V?$basic_string@DU?$char_traits@D@std@@V?$allocator@D@2@@std@@U?$less@V?$basic_string@DU?$char_traits@D@std@@V?$allocator@D@2@@std@@@2@@stdext@@V?$allocator@U?$pair@$$CBV?$basic_string@DU?$char_traits@D@std@@V?$allocator@D@2@@std@@PAVResults@Database@@@std@@@2@$0A@@stdext@@@stdext@@QAE?AV?$_Iterator@$0A@@?$list@U?$pair@$$CBV?$basic_string@DU?$char_traits@D@std@@V?$allocator@D@2@@std@@PAVResults@Database@@@std@@V?$allocator@U?$pair@$$CBV?$basic_string@DU?$char_traits@D@std@@V?$allocator@D@2@@std@@PAVResults@Database@@@std@@@2@@std@@ABV?$basic_string@DU?$char_traits@D@std@@V?$allocator@D@2@@5@@Z PROC ; stdext::_Hash<stdext::_Hmap_traits<std::basic_string<char,std::char_traits<char>,std::allocator<char> >,Database::Results *,stdext::hash_compare<std::basic_string<char,std::char_traits<char>,std::allocator<char> >,std::less<std::basic_string<char,std::char_traits<char>,std::allocator<char> > > >,std::allocator<std::pair<std::basic_string<char,std::char_traits<char>,std::allocator<char> > const ,Database::Results *> >,0> >::lower_bound, COMDAT
; _this$ = ecx

; 637  : 		{	// find leftmost not less than _Keyval in mutable hash table

	push	ebp
	mov	ebp, esp
	sub	esp, 56					; 00000038H
	mov	DWORD PTR _this$[ebp], ecx

; 638  : 		size_type _Bucket = _Hashval(_Keyval);

	mov	eax, DWORD PTR __Keyval$[ebp]
	push	eax
	mov	ecx, DWORD PTR _this$[ebp]
	call	??R?$hash_compare@V?$basic_string@DU?$char_traits@D@std@@V?$allocator@D@2@@std@@U?$less@V?$basic_string@DU?$char_traits@D@std@@V?$allocator@D@2@@std@@@2@@stdext@@QBEIABV?$basic_string@DU?$char_traits@D@std@@V?$allocator@D@2@@std@@@Z ; stdext::hash_compare<std::basic_string<char,std::char_traits<char>,std::allocator<char> >,std::less<std::basic_string<char,std::char_traits<char>,std::allocator<char> > > >::operator()
	mov	ecx, DWORD PTR _this$[ebp]
	and	eax, DWORD PTR [ecx+32]
	mov	DWORD PTR __Num$223121[ebp], eax
	mov	edx, DWORD PTR _this$[ebp]
	mov	eax, DWORD PTR [edx+36]
	cmp	eax, DWORD PTR __Num$223121[ebp]
	ja	SHORT $LN10@lower_boun
	mov	ecx, DWORD PTR _this$[ebp]
	mov	edx, DWORD PTR [ecx+32]
	shr	edx, 1
	add	edx, 1
	mov	eax, DWORD PTR __Num$223121[ebp]
	sub	eax, edx
	mov	DWORD PTR __Num$223121[ebp], eax
$LN10@lower_boun:
	mov	ecx, DWORD PTR __Num$223121[ebp]
	mov	DWORD PTR __Bucket$[ebp], ecx

; 639  : 		iterator _Where;

	mov	DWORD PTR __Where$[ebp], 0

; 640  : 		for (_Where = _Get_iter_from_vec(_Vec[_Bucket]); _Vec[_Bucket + 1] != _Where; ++_Where)

	mov	edx, DWORD PTR _this$[ebp]
	mov	eax, DWORD PTR [edx+20]
	mov	ecx, DWORD PTR __Bucket$[ebp]
	lea	edx, DWORD PTR [eax+ecx*4]
	mov	DWORD PTR $T223135[ebp], edx
	mov	eax, DWORD PTR $T223135[ebp]
	mov	ecx, DWORD PTR [eax]
	mov	DWORD PTR $T223114[ebp], ecx
	mov	edx, DWORD PTR $T223114[ebp]
	mov	DWORD PTR __Where$[ebp], edx
	jmp	SHORT $LN4@lower_boun
$LN24@lower_boun:
	mov	eax, DWORD PTR __Where$[ebp]
	mov	ecx, DWORD PTR [eax]
	mov	DWORD PTR __Where$[ebp], ecx
$LN4@lower_boun:
	mov	edx, DWORD PTR _this$[ebp]
	mov	eax, DWORD PTR [edx+20]
	mov	ecx, DWORD PTR __Bucket$[ebp]
	lea	edx, DWORD PTR [eax+ecx*4+4]
	mov	DWORD PTR $T223157[ebp], edx
	mov	eax, DWORD PTR $T223157[ebp]
	mov	ecx, DWORD PTR [eax]
	xor	edx, edx
	cmp	ecx, DWORD PTR __Where$[ebp]
	sete	dl
	movzx	eax, dl
	neg	eax
	sbb	eax, eax
	add	eax, 1
	movzx	ecx, al
	test	ecx, ecx
	je	SHORT $LN2@lower_boun

; 641  : 			if (!this->comp(this->_Kfn(*_Where), _Keyval))

	mov	edx, DWORD PTR __Where$[ebp]
	add	edx, 8
	mov	DWORD PTR $T223181[ebp], edx
	mov	eax, DWORD PTR __Keyval$[ebp]
	push	eax
	mov	ecx, DWORD PTR $T223181[ebp]
	push	ecx
	call	DWORD PTR __imp_??$?MDU?$char_traits@D@std@@V?$allocator@D@1@@std@@YA_NABV?$basic_string@DU?$char_traits@D@std@@V?$allocator@D@2@@0@0@Z
	add	esp, 8
	movzx	edx, al
	test	edx, edx
	jne	SHORT $LN1@lower_boun

; 642  : 				return (this->comp(_Keyval,
; 643  : 					this->_Kfn(*_Where)) ? end() : _Where);

	mov	eax, DWORD PTR __Where$[ebp]
	add	eax, 8
	mov	DWORD PTR $T223208[ebp], eax
	mov	ecx, DWORD PTR $T223208[ebp]
	push	ecx
	mov	edx, DWORD PTR __Keyval$[ebp]
	push	edx
	call	DWORD PTR __imp_??$?MDU?$char_traits@D@std@@V?$allocator@D@1@@std@@YA_NABV?$basic_string@DU?$char_traits@D@std@@V?$allocator@D@2@@0@0@Z
	add	esp, 8
	movzx	eax, al
	test	eax, eax
	je	SHORT $LN7@lower_boun
	mov	ecx, DWORD PTR _this$[ebp]
	mov	edx, DWORD PTR [ecx+8]
	mov	DWORD PTR $T223230[ebp], edx
	mov	eax, DWORD PTR $T223230[ebp]
	mov	DWORD PTR $T223116[ebp], eax
	lea	ecx, DWORD PTR $T223116[ebp]
	mov	DWORD PTR tv161[ebp], ecx
	jmp	SHORT $LN8@lower_boun
$LN7@lower_boun:
	lea	edx, DWORD PTR __Where$[ebp]
	mov	DWORD PTR tv161[ebp], edx
$LN8@lower_boun:
	mov	eax, DWORD PTR tv161[ebp]
	mov	DWORD PTR $T223115[ebp], eax
	mov	ecx, DWORD PTR $T223115[ebp]
	mov	edx, DWORD PTR [ecx]
	mov	eax, DWORD PTR ___$ReturnUdt$[ebp]
	mov	DWORD PTR [eax], edx
	mov	eax, DWORD PTR ___$ReturnUdt$[ebp]
	jmp	SHORT $LN5@lower_boun
$LN1@lower_boun:

; 644  : 		return (end());

	jmp	$LN24@lower_boun
$LN2@lower_boun:
	mov	ecx, DWORD PTR _this$[ebp]
	mov	edx, DWORD PTR [ecx+8]
	mov	DWORD PTR $T223255[ebp], edx
	mov	eax, DWORD PTR ___$ReturnUdt$[ebp]
	mov	ecx, DWORD PTR $T223255[ebp]
	mov	DWORD PTR [eax], ecx
	mov	eax, DWORD PTR ___$ReturnUdt$[ebp]
$LN5@lower_boun:

; 645  : 		}

	mov	esp, ebp
	pop	ebp
	ret	8
?lower_bound@?$_Hash@V?$_Hmap_traits@V?$basic_string@DU?$char_traits@D@std@@V?$allocator@D@2@@std@@PAVResults@Database@@V?$hash_compare@V?$basic_string@DU?$char_traits@D@std@@V?$allocator@D@2@@std@@U?$less@V?$basic_string@DU?$char_traits@D@std@@V?$allocator@D@2@@std@@@2@@stdext@@V?$allocator@U?$pair@$$CBV?$basic_string@DU?$char_traits@D@std@@V?$allocator@D@2@@std@@PAVResults@Database@@@std@@@2@$0A@@stdext@@@stdext@@QAE?AV?$_Iterator@$0A@@?$list@U?$pair@$$CBV?$basic_string@DU?$char_traits@D@std@@V?$allocator@D@2@@std@@PAVResults@Database@@@std@@V?$allocator@U?$pair@$$CBV?$basic_string@DU?$char_traits@D@std@@V?$allocator@D@2@@std@@PAVResults@Database@@@std@@@2@@std@@ABV?$basic_string@DU?$char_traits@D@std@@V?$allocator@D@2@@5@@Z ENDP ; stdext::_Hash<stdext::_Hmap_traits<std::basic_string<char,std::char_traits<char>,std::allocator<char> >,Database::Results *,stdext::hash_compare<std::basic_string<char,std::char_traits<char>,std::allocator<char> >,std::less<std::basic_string<char,std::char_traits<char>,std::allocator<char> > > >,std::allocator<std::pair<std::basic_string<char,std::char_traits<char>,std::allocator<char> > const ,Database::Results *> >,0> >::lower_bound
; Function compile flags: /Odtp
_TEXT	ENDS
;	COMDAT ?equal_range@?$_Hash@V?$_Hmap_traits@V?$basic_string@DU?$char_traits@D@std@@V?$allocator@D@2@@std@@PAVResults@Database@@V?$hash_compare@V?$basic_string@DU?$char_traits@D@std@@V?$allocator@D@2@@std@@U?$less@V?$basic_string@DU?$char_traits@D@std@@V?$allocator@D@2@@std@@@2@@stdext@@V?$allocator@U?$pair@$$CBV?$basic_string@DU?$char_traits@D@std@@V?$allocator@D@2@@std@@PAVResults@Database@@@std@@@2@$0A@@stdext@@@stdext@@QAE?AU?$pair@V?$_Iterator@$0A@@?$list@U?$pair@$$CBV?$basic_string@DU?$char_traits@D@std@@V?$allocator@D@2@@std@@PAVResults@Database@@@std@@V?$allocator@U?$pair@$$CBV?$basic_string@DU?$char_traits@D@std@@V?$allocator@D@2@@std@@PAVResults@Database@@@std@@@2@@std@@V123@@std@@ABV?$basic_string@DU?$char_traits@D@std@@V?$allocator@D@2@@4@@Z
_TEXT	SEGMENT
_this$ = -60						; size = 4
$T223452 = -56						; size = 4
$T223427 = -52						; size = 4
$T223399 = -48						; size = 4
$T223375 = -44						; size = 4
$T223345 = -40						; size = 4
$T223321 = -36						; size = 4
$T223299 = -32						; size = 4
__Num$223278 = -28					; size = 4
$T223274 = -24						; size = 4
$T223273 = -20						; size = 4
$T223272 = -16						; size = 4
__Where$ = -12						; size = 4
__Bucket$ = -8						; size = 4
__First$ = -4						; size = 4
___$ReturnUdt$ = 8					; size = 4
__Keyval$ = 12						; size = 4
?equal_range@?$_Hash@V?$_Hmap_traits@V?$basic_string@DU?$char_traits@D@std@@V?$allocator@D@2@@std@@PAVResults@Database@@V?$hash_compare@V?$basic_string@DU?$char_traits@D@std@@V?$allocator@D@2@@std@@U?$less@V?$basic_string@DU?$char_traits@D@std@@V?$allocator@D@2@@std@@@2@@stdext@@V?$allocator@U?$pair@$$CBV?$basic_string@DU?$char_traits@D@std@@V?$allocator@D@2@@std@@PAVResults@Database@@@std@@@2@$0A@@stdext@@@stdext@@QAE?AU?$pair@V?$_Iterator@$0A@@?$list@U?$pair@$$CBV?$basic_string@DU?$char_traits@D@std@@V?$allocator@D@2@@std@@PAVResults@Database@@@std@@V?$allocator@U?$pair@$$CBV?$basic_string@DU?$char_traits@D@std@@V?$allocator@D@2@@std@@PAVResults@Database@@@std@@@2@@std@@V123@@std@@ABV?$basic_string@DU?$char_traits@D@std@@V?$allocator@D@2@@4@@Z PROC ; stdext::_Hash<stdext::_Hmap_traits<std::basic_string<char,std::char_traits<char>,std::allocator<char> >,Database::Results *,stdext::hash_compare<std::basic_string<char,std::char_traits<char>,std::allocator<char> >,std::less<std::basic_string<char,std::char_traits<char>,std::allocator<char> > > >,std::allocator<std::pair<std::basic_string<char,std::char_traits<char>,std::allocator<char> > const ,Database::Results *> >,0> >::equal_range, COMDAT
; _this$ = ecx

; 681  : 		{	// find range equivalent to _Keyval in mutable hash table

	push	ebp
	mov	ebp, esp
	sub	esp, 60					; 0000003cH
	mov	DWORD PTR _this$[ebp], ecx

; 682  : 		size_type _Bucket = _Hashval(_Keyval);

	mov	eax, DWORD PTR __Keyval$[ebp]
	push	eax
	mov	ecx, DWORD PTR _this$[ebp]
	call	??R?$hash_compare@V?$basic_string@DU?$char_traits@D@std@@V?$allocator@D@2@@std@@U?$less@V?$basic_string@DU?$char_traits@D@std@@V?$allocator@D@2@@std@@@2@@stdext@@QBEIABV?$basic_string@DU?$char_traits@D@std@@V?$allocator@D@2@@std@@@Z ; stdext::hash_compare<std::basic_string<char,std::char_traits<char>,std::allocator<char> >,std::less<std::basic_string<char,std::char_traits<char>,std::allocator<char> > > >::operator()
	mov	ecx, DWORD PTR _this$[ebp]
	and	eax, DWORD PTR [ecx+32]
	mov	DWORD PTR __Num$223278[ebp], eax
	mov	edx, DWORD PTR _this$[ebp]
	mov	eax, DWORD PTR [edx+36]
	cmp	eax, DWORD PTR __Num$223278[ebp]
	ja	SHORT $LN13@equal_rang
	mov	ecx, DWORD PTR _this$[ebp]
	mov	edx, DWORD PTR [ecx+32]
	shr	edx, 1
	add	edx, 1
	mov	eax, DWORD PTR __Num$223278[ebp]
	sub	eax, edx
	mov	DWORD PTR __Num$223278[ebp], eax
$LN13@equal_rang:
	mov	ecx, DWORD PTR __Num$223278[ebp]
	mov	DWORD PTR __Bucket$[ebp], ecx

; 683  : 		iterator _First, _Where;

	mov	DWORD PTR __First$[ebp], 0
	mov	DWORD PTR __Where$[ebp], 0

; 684  : 		for (_Where = _Get_iter_from_vec(_Vec[_Bucket]); _Vec[_Bucket + 1] != _Where; ++_Where)

	mov	edx, DWORD PTR _this$[ebp]
	mov	eax, DWORD PTR [edx+20]
	mov	ecx, DWORD PTR __Bucket$[ebp]
	lea	edx, DWORD PTR [eax+ecx*4]
	mov	DWORD PTR $T223299[ebp], edx
	mov	eax, DWORD PTR $T223299[ebp]
	mov	ecx, DWORD PTR [eax]
	mov	DWORD PTR $T223272[ebp], ecx
	mov	edx, DWORD PTR $T223272[ebp]
	mov	DWORD PTR __Where$[ebp], edx
	jmp	SHORT $LN9@equal_rang
$LN31@equal_rang:
	mov	eax, DWORD PTR __Where$[ebp]
	mov	ecx, DWORD PTR [eax]
	mov	DWORD PTR __Where$[ebp], ecx
$LN9@equal_rang:
	mov	edx, DWORD PTR _this$[ebp]
	mov	eax, DWORD PTR [edx+20]
	mov	ecx, DWORD PTR __Bucket$[ebp]
	lea	edx, DWORD PTR [eax+ecx*4+4]
	mov	DWORD PTR $T223321[ebp], edx
	mov	eax, DWORD PTR $T223321[ebp]
	mov	ecx, DWORD PTR [eax]
	xor	edx, edx
	cmp	ecx, DWORD PTR __Where$[ebp]
	sete	dl
	movzx	eax, dl
	neg	eax
	sbb	eax, eax
	add	eax, 1
	movzx	ecx, al
	test	ecx, ecx
	je	$LN7@equal_rang

; 685  : 			if (!this->comp(this->_Kfn(*_Where), _Keyval))

	mov	edx, DWORD PTR __Where$[ebp]
	add	edx, 8
	mov	DWORD PTR $T223345[ebp], edx
	mov	eax, DWORD PTR __Keyval$[ebp]
	push	eax
	mov	ecx, DWORD PTR $T223345[ebp]
	push	ecx
	call	DWORD PTR __imp_??$?MDU?$char_traits@D@std@@V?$allocator@D@1@@std@@YA_NABV?$basic_string@DU?$char_traits@D@std@@V?$allocator@D@2@@0@0@Z
	add	esp, 8
	movzx	edx, al
	test	edx, edx
	jne	$LN6@equal_rang

; 686  : 				{	// found _First, look for end of range
; 687  : 				for (_First = _Where; _Vec[_Bucket + 1] != _Where; ++_Where)

	mov	eax, DWORD PTR __Where$[ebp]
	mov	DWORD PTR __First$[ebp], eax
	jmp	SHORT $LN5@equal_rang
$LN55@equal_rang:
	mov	ecx, DWORD PTR __Where$[ebp]
	mov	edx, DWORD PTR [ecx]
	mov	DWORD PTR __Where$[ebp], edx
$LN5@equal_rang:
	mov	eax, DWORD PTR _this$[ebp]
	mov	ecx, DWORD PTR [eax+20]
	mov	edx, DWORD PTR __Bucket$[ebp]
	lea	eax, DWORD PTR [ecx+edx*4+4]
	mov	DWORD PTR $T223375[ebp], eax
	mov	ecx, DWORD PTR $T223375[ebp]
	mov	edx, DWORD PTR [ecx]
	xor	eax, eax
	cmp	edx, DWORD PTR __Where$[ebp]
	sete	al
	movzx	ecx, al
	neg	ecx
	sbb	ecx, ecx
	add	ecx, 1
	movzx	edx, cl
	test	edx, edx
	je	SHORT $LN75@equal_rang

; 688  : 					if (this->comp(_Keyval, this->_Kfn(*_Where)))

	mov	eax, DWORD PTR __Where$[ebp]
	add	eax, 8
	mov	DWORD PTR $T223399[ebp], eax
	mov	ecx, DWORD PTR $T223399[ebp]
	push	ecx
	mov	edx, DWORD PTR __Keyval$[ebp]
	push	edx
	call	DWORD PTR __imp_??$?MDU?$char_traits@D@std@@V?$allocator@D@1@@std@@YA_NABV?$basic_string@DU?$char_traits@D@std@@V?$allocator@D@2@@0@0@Z
	add	esp, 8
	movzx	eax, al
	test	eax, eax
	je	SHORT $LN2@equal_rang

; 689  : 						break;

	jmp	SHORT $LN75@equal_rang
$LN2@equal_rang:

; 690  : 				if (_First == _Where)

	jmp	SHORT $LN55@equal_rang
$LN75@equal_rang:
	mov	ecx, DWORD PTR __First$[ebp]
	xor	edx, edx
	cmp	ecx, DWORD PTR __Where$[ebp]
	sete	dl
	movzx	eax, dl
	test	eax, eax
	je	SHORT $LN1@equal_rang

; 691  : 					break;

	jmp	SHORT $LN7@equal_rang
$LN1@equal_rang:

; 692  : 				return (_Pairii(_First, _Where));

	mov	ecx, DWORD PTR __First$[ebp]
	mov	edx, DWORD PTR ___$ReturnUdt$[ebp]
	mov	DWORD PTR [edx], ecx
	mov	eax, DWORD PTR __Where$[ebp]
	mov	ecx, DWORD PTR ___$ReturnUdt$[ebp]
	mov	DWORD PTR [ecx+4], eax
	mov	eax, DWORD PTR ___$ReturnUdt$[ebp]
	jmp	SHORT $LN10@equal_rang
$LN6@equal_rang:

; 693  : 				}

	jmp	$LN31@equal_rang
$LN7@equal_rang:

; 694  : 		return (_Pairii(end(), end()));

	mov	edx, DWORD PTR _this$[ebp]
	mov	eax, DWORD PTR [edx+8]
	mov	DWORD PTR $T223427[ebp], eax
	mov	ecx, DWORD PTR $T223427[ebp]
	mov	DWORD PTR $T223273[ebp], ecx
	mov	edx, DWORD PTR _this$[ebp]
	mov	eax, DWORD PTR [edx+8]
	mov	DWORD PTR $T223452[ebp], eax
	mov	ecx, DWORD PTR $T223452[ebp]
	mov	DWORD PTR $T223274[ebp], ecx
	mov	edx, DWORD PTR $T223274[ebp]
	mov	eax, DWORD PTR ___$ReturnUdt$[ebp]
	mov	DWORD PTR [eax], edx
	mov	ecx, DWORD PTR $T223273[ebp]
	mov	edx, DWORD PTR ___$ReturnUdt$[ebp]
	mov	DWORD PTR [edx+4], ecx
	mov	eax, DWORD PTR ___$ReturnUdt$[ebp]
$LN10@equal_rang:

; 695  : 		}

	mov	esp, ebp
	pop	ebp
	ret	8
?equal_range@?$_Hash@V?$_Hmap_traits@V?$basic_string@DU?$char_traits@D@std@@V?$allocator@D@2@@std@@PAVResults@Database@@V?$hash_compare@V?$basic_string@DU?$char_traits@D@std@@V?$allocator@D@2@@std@@U?$less@V?$basic_string@DU?$char_traits@D@std@@V?$allocator@D@2@@std@@@2@@stdext@@V?$allocator@U?$pair@$$CBV?$basic_string@DU?$char_traits@D@std@@V?$allocator@D@2@@std@@PAVResults@Database@@@std@@@2@$0A@@stdext@@@stdext@@QAE?AU?$pair@V?$_Iterator@$0A@@?$list@U?$pair@$$CBV?$basic_string@DU?$char_traits@D@std@@V?$allocator@D@2@@std@@PAVResults@Database@@@std@@V?$allocator@U?$pair@$$CBV?$basic_string@DU?$char_traits@D@std@@V?$allocator@D@2@@std@@PAVResults@Database@@@std@@@2@@std@@V123@@std@@ABV?$basic_string@DU?$char_traits@D@std@@V?$allocator@D@2@@4@@Z ENDP ; stdext::_Hash<stdext::_Hmap_traits<std::basic_string<char,std::char_traits<char>,std::allocator<char> >,Database::Results *,stdext::hash_compare<std::basic_string<char,std::char_traits<char>,std::allocator<char> >,std::less<std::basic_string<char,std::char_traits<char>,std::allocator<char> > > >,std::allocator<std::pair<std::basic_string<char,std::char_traits<char>,std::allocator<char> > const ,Database::Results *> >,0> >::equal_range
_TEXT	ENDS
PUBLIC	?_Assign_n@?$vector@V?$_Iterator@$0A@@?$list@U?$pair@$$CBV?$basic_string@DU?$char_traits@D@std@@V?$allocator@D@2@@std@@PAVResults@Database@@@std@@V?$allocator@U?$pair@$$CBV?$basic_string@DU?$char_traits@D@std@@V?$allocator@D@2@@std@@PAVResults@Database@@@std@@@2@@std@@V?$allocator@V?$_Iterator@$0A@@?$list@U?$pair@$$CBV?$basic_string@DU?$char_traits@D@std@@V?$allocator@D@2@@std@@PAVResults@Database@@@std@@V?$allocator@U?$pair@$$CBV?$basic_string@DU?$char_traits@D@std@@V?$allocator@D@2@@std@@PAVResults@Database@@@std@@@2@@std@@@3@@std@@IAEXIABV?$_Iterator@$0A@@?$list@U?$pair@$$CBV?$basic_string@DU?$char_traits@D@std@@V?$allocator@D@2@@std@@PAVResults@Database@@@std@@V?$allocator@U?$pair@$$CBV?$basic_string@DU?$char_traits@D@std@@V?$allocator@D@2@@std@@PAVResults@Database@@@std@@@2@@2@@Z ; std::vector<std::list<std::pair<std::basic_string<char,std::char_traits<char>,std::allocator<char> > const ,Database::Results *>,std::allocator<std::pair<std::basic_string<char,std::char_traits<char>,std::allocator<char> > const ,Database::Results *> > >::_Iterator<0>,std::allocator<std::list<std::pair<std::basic_string<char,std::char_traits<char>,std::allocator<char> > const ,Database::Results *>,std::allocator<std::pair<std::basic_string<char,std::char_traits<char>,std::allocator<char> > const ,Database::Results *> > >::_Iterator<0> > >::_Assign_n
; Function compile flags: /Odtp
;	COMDAT ?_Init@?$_Hash@V?$_Hmap_traits@V?$basic_string@DU?$char_traits@D@std@@V?$allocator@D@2@@std@@PAVResults@Database@@V?$hash_compare@V?$basic_string@DU?$char_traits@D@std@@V?$allocator@D@2@@std@@U?$less@V?$basic_string@DU?$char_traits@D@std@@V?$allocator@D@2@@std@@@2@@stdext@@V?$allocator@U?$pair@$$CBV?$basic_string@DU?$char_traits@D@std@@V?$allocator@D@2@@std@@PAVResults@Database@@@std@@@2@$0A@@stdext@@@stdext@@IAEXI@Z
_TEXT	SEGMENT
_this$ = -120						; size = 4
$T223483 = -8						; size = 4
$T223472 = -4						; size = 4
__Buckets$ = 8						; size = 4
?_Init@?$_Hash@V?$_Hmap_traits@V?$basic_string@DU?$char_traits@D@std@@V?$allocator@D@2@@std@@PAVResults@Database@@V?$hash_compare@V?$basic_string@DU?$char_traits@D@std@@V?$allocator@D@2@@std@@U?$less@V?$basic_string@DU?$char_traits@D@std@@V?$allocator@D@2@@std@@@2@@stdext@@V?$allocator@U?$pair@$$CBV?$basic_string@DU?$char_traits@D@std@@V?$allocator@D@2@@std@@PAVResults@Database@@@std@@@2@$0A@@stdext@@@stdext@@IAEXI@Z PROC ; stdext::_Hash<stdext::_Hmap_traits<std::basic_string<char,std::char_traits<char>,std::allocator<char> >,Database::Results *,stdext::hash_compare<std::basic_string<char,std::char_traits<char>,std::allocator<char> >,std::less<std::basic_string<char,std::char_traits<char>,std::allocator<char> > > >,std::allocator<std::pair<std::basic_string<char,std::char_traits<char>,std::allocator<char> > const ,Database::Results *> >,0> >::_Init, COMDAT
; _this$ = ecx

; 829  : 		{	// initialize hash table with _Buckets buckets, leave list alone

	push	ebp
	mov	ebp, esp
	sub	esp, 120				; 00000078H
	mov	DWORD PTR _this$[ebp], ecx

; 830  : 		_Vec.assign(_Buckets + 1, end());

	mov	eax, DWORD PTR _this$[ebp]
	mov	ecx, DWORD PTR [eax+8]
	mov	DWORD PTR $T223483[ebp], ecx
	mov	edx, DWORD PTR $T223483[ebp]
	mov	DWORD PTR $T223472[ebp], edx
	lea	eax, DWORD PTR $T223472[ebp]
	push	eax
	mov	ecx, DWORD PTR __Buckets$[ebp]
	add	ecx, 1
	push	ecx
	mov	ecx, DWORD PTR _this$[ebp]
	add	ecx, 16					; 00000010H
	call	?_Assign_n@?$vector@V?$_Iterator@$0A@@?$list@U?$pair@$$CBV?$basic_string@DU?$char_traits@D@std@@V?$allocator@D@2@@std@@PAVResults@Database@@@std@@V?$allocator@U?$pair@$$CBV?$basic_string@DU?$char_traits@D@std@@V?$allocator@D@2@@std@@PAVResults@Database@@@std@@@2@@std@@V?$allocator@V?$_Iterator@$0A@@?$list@U?$pair@$$CBV?$basic_string@DU?$char_traits@D@std@@V?$allocator@D@2@@std@@PAVResults@Database@@@std@@V?$allocator@U?$pair@$$CBV?$basic_string@DU?$char_traits@D@std@@V?$allocator@D@2@@std@@PAVResults@Database@@@std@@@2@@std@@@3@@std@@IAEXIABV?$_Iterator@$0A@@?$list@U?$pair@$$CBV?$basic_string@DU?$char_traits@D@std@@V?$allocator@D@2@@std@@PAVResults@Database@@@std@@V?$allocator@U?$pair@$$CBV?$basic_string@DU?$char_traits@D@std@@V?$allocator@D@2@@std@@PAVResults@Database@@@std@@@2@@2@@Z ; std::vector<std::list<std::pair<std::basic_string<char,std::char_traits<char>,std::allocator<char> > const ,Database::Results *>,std::allocator<std::pair<std::basic_string<char,std::char_traits<char>,std::allocator<char> > const ,Database::Results *> > >::_Iterator<0>,std::allocator<std::list<std::pair<std::basic_string<char,std::char_traits<char>,std::allocator<char> > const ,Database::Results *>,std::allocator<std::pair<std::basic_string<char,std::char_traits<char>,std::allocator<char> > const ,Database::Results *> > >::_Iterator<0> > >::_Assign_n

; 831  : 		_Mask = _Buckets - 1;

	mov	edx, DWORD PTR __Buckets$[ebp]
	sub	edx, 1
	mov	eax, DWORD PTR _this$[ebp]
	mov	DWORD PTR [eax+32], edx

; 832  : 		_Maxidx = _Buckets;

	mov	ecx, DWORD PTR _this$[ebp]
	mov	edx, DWORD PTR __Buckets$[ebp]
	mov	DWORD PTR [ecx+36], edx

; 833  : 		}

	mov	esp, ebp
	pop	ebp
	ret	4
?_Init@?$_Hash@V?$_Hmap_traits@V?$basic_string@DU?$char_traits@D@std@@V?$allocator@D@2@@std@@PAVResults@Database@@V?$hash_compare@V?$basic_string@DU?$char_traits@D@std@@V?$allocator@D@2@@std@@U?$less@V?$basic_string@DU?$char_traits@D@std@@V?$allocator@D@2@@std@@@2@@stdext@@V?$allocator@U?$pair@$$CBV?$basic_string@DU?$char_traits@D@std@@V?$allocator@D@2@@std@@PAVResults@Database@@@std@@@2@$0A@@stdext@@@stdext@@IAEXI@Z ENDP ; stdext::_Hash<stdext::_Hmap_traits<std::basic_string<char,std::char_traits<char>,std::allocator<char> >,Database::Results *,stdext::hash_compare<std::basic_string<char,std::char_traits<char>,std::allocator<char> >,std::less<std::basic_string<char,std::char_traits<char>,std::allocator<char> > > >,std::allocator<std::pair<std::basic_string<char,std::char_traits<char>,std::allocator<char> > const ,Database::Results *> >,0> >::_Init
; Function compile flags: /Odtp
_TEXT	ENDS
;	COMDAT ??1?$_List_val@U?$pair@$$CBV?$basic_string@DU?$char_traits@D@std@@V?$allocator@D@2@@std@@PAVResults@Database@@@std@@V?$allocator@U?$pair@$$CBV?$basic_string@DU?$char_traits@D@std@@V?$allocator@D@2@@std@@PAVResults@Database@@@std@@@2@@std@@QAE@XZ
_TEXT	SEGMENT
_this$ = -4						; size = 4
??1?$_List_val@U?$pair@$$CBV?$basic_string@DU?$char_traits@D@std@@V?$allocator@D@2@@std@@PAVResults@Database@@@std@@V?$allocator@U?$pair@$$CBV?$basic_string@DU?$char_traits@D@std@@V?$allocator@D@2@@std@@PAVResults@Database@@@std@@@2@@std@@QAE@XZ PROC ; std::_List_val<std::pair<std::basic_string<char,std::char_traits<char>,std::allocator<char> > const ,Database::Results *>,std::allocator<std::pair<std::basic_string<char,std::char_traits<char>,std::allocator<char> > const ,Database::Results *> > >::~_List_val<std::pair<std::basic_string<char,std::char_traits<char>,std::allocator<char> > const ,Database::Results *>,std::allocator<std::pair<std::basic_string<char,std::char_traits<char>,std::allocator<char> > const ,Database::Results *> > >, COMDAT
; _this$ = ecx
	push	ebp
	mov	ebp, esp
	push	ecx
	mov	DWORD PTR _this$[ebp], ecx
	mov	esp, ebp
	pop	ebp
	ret	0
??1?$_List_val@U?$pair@$$CBV?$basic_string@DU?$char_traits@D@std@@V?$allocator@D@2@@std@@PAVResults@Database@@@std@@V?$allocator@U?$pair@$$CBV?$basic_string@DU?$char_traits@D@std@@V?$allocator@D@2@@std@@PAVResults@Database@@@std@@@2@@std@@QAE@XZ ENDP ; std::_List_val<std::pair<std::basic_string<char,std::char_traits<char>,std::allocator<char> > const ,Database::Results *>,std::allocator<std::pair<std::basic_string<char,std::char_traits<char>,std::allocator<char> > const ,Database::Results *> > >::~_List_val<std::pair<std::basic_string<char,std::char_traits<char>,std::allocator<char> > const ,Database::Results *>,std::allocator<std::pair<std::basic_string<char,std::char_traits<char>,std::allocator<char> > const ,Database::Results *> > >
; Function compile flags: /Odtp
_TEXT	ENDS
;	COMDAT ??1?$_Vector_val@V?$_Iterator@$0A@@?$list@U?$pair@$$CBV?$basic_string@DU?$char_traits@D@std@@V?$allocator@D@2@@std@@PAVResults@Database@@@std@@V?$allocator@U?$pair@$$CBV?$basic_string@DU?$char_traits@D@std@@V?$allocator@D@2@@std@@PAVResults@Database@@@std@@@2@@std@@V?$allocator@V?$_Iterator@$0A@@?$list@U?$pair@$$CBV?$basic_string@DU?$char_traits@D@std@@V?$allocator@D@2@@std@@PAVResults@Database@@@std@@V?$allocator@U?$pair@$$CBV?$basic_string@DU?$char_traits@D@std@@V?$allocator@D@2@@std@@PAVResults@Database@@@std@@@2@@std@@@3@@std@@QAE@XZ
_TEXT	SEGMENT
_this$ = -4						; size = 4
??1?$_Vector_val@V?$_Iterator@$0A@@?$list@U?$pair@$$CBV?$basic_string@DU?$char_traits@D@std@@V?$allocator@D@2@@std@@PAVResults@Database@@@std@@V?$allocator@U?$pair@$$CBV?$basic_string@DU?$char_traits@D@std@@V?$allocator@D@2@@std@@PAVResults@Database@@@std@@@2@@std@@V?$allocator@V?$_Iterator@$0A@@?$list@U?$pair@$$CBV?$basic_string@DU?$char_traits@D@std@@V?$allocator@D@2@@std@@PAVResults@Database@@@std@@V?$allocator@U?$pair@$$CBV?$basic_string@DU?$char_traits@D@std@@V?$allocator@D@2@@std@@PAVResults@Database@@@std@@@2@@std@@@3@@std@@QAE@XZ PROC ; std::_Vector_val<std::list<std::pair<std::basic_string<char,std::char_traits<char>,std::allocator<char> > const ,Database::Results *>,std::allocator<std::pair<std::basic_string<char,std::char_traits<char>,std::allocator<char> > const ,Database::Results *> > >::_Iterator<0>,std::allocator<std::list<std::pair<std::basic_string<char,std::char_traits<char>,std::allocator<char> > const ,Database::Results *>,std::allocator<std::pair<std::basic_string<char,std::char_traits<char>,std::allocator<char> > const ,Database::Results *> > >::_Iterator<0> > >::~_Vector_val<std::list<std::pair<std::basic_string<char,std::char_traits<char>,std::allocator<char> > const ,Database::Results *>,std::allocator<std::pair<std::basic_string<char,std::char_traits<char>,std::allocator<char> > const ,Database::Results *> > >::_Iterator<0>,std::allocator<std::list<std::pair<std::basic_string<char,std::char_traits<char>,std::allocator<char> > const ,Database::Results *>,std::allocator<std::pair<std::basic_string<char,std::char_traits<char>,std::allocator<char> > const ,Database::Results *> > >::_Iterator<0> > >, COMDAT
; _this$ = ecx
	push	ebp
	mov	ebp, esp
	push	ecx
	mov	DWORD PTR _this$[ebp], ecx
	mov	esp, ebp
	pop	ebp
	ret	0
??1?$_Vector_val@V?$_Iterator@$0A@@?$list@U?$pair@$$CBV?$basic_string@DU?$char_traits@D@std@@V?$allocator@D@2@@std@@PAVResults@Database@@@std@@V?$allocator@U?$pair@$$CBV?$basic_string@DU?$char_traits@D@std@@V?$allocator@D@2@@std@@PAVResults@Database@@@std@@@2@@std@@V?$allocator@V?$_Iterator@$0A@@?$list@U?$pair@$$CBV?$basic_string@DU?$char_traits@D@std@@V?$allocator@D@2@@std@@PAVResults@Database@@@std@@V?$allocator@U?$pair@$$CBV?$basic_string@DU?$char_traits@D@std@@V?$allocator@D@2@@std@@PAVResults@Database@@@std@@@2@@std@@@3@@std@@QAE@XZ ENDP ; std::_Vector_val<std::list<std::pair<std::basic_string<char,std::char_traits<char>,std::allocator<char> > const ,Database::Results *>,std::allocator<std::pair<std::basic_string<char,std::char_traits<char>,std::allocator<char> > const ,Database::Results *> > >::_Iterator<0>,std::allocator<std::list<std::pair<std::basic_string<char,std::char_traits<char>,std::allocator<char> > const ,Database::Results *>,std::allocator<std::pair<std::basic_string<char,std::char_traits<char>,std::allocator<char> > const ,Database::Results *> > >::_Iterator<0> > >::~_Vector_val<std::list<std::pair<std::basic_string<char,std::char_traits<char>,std::allocator<char> > const ,Database::Results *>,std::allocator<std::pair<std::basic_string<char,std::char_traits<char>,std::allocator<char> > const ,Database::Results *> > >::_Iterator<0>,std::allocator<std::list<std::pair<std::basic_string<char,std::char_traits<char>,std::allocator<char> > const ,Database::Results *>,std::allocator<std::pair<std::basic_string<char,std::char_traits<char>,std::allocator<char> > const ,Database::Results *> > >::_Iterator<0> > >
_TEXT	ENDS
PUBLIC	?_Buynode@?$list@U?$pair@$$CBV?$basic_string@DU?$char_traits@D@std@@V?$allocator@D@2@@std@@PAVResults@Database@@@std@@V?$allocator@U?$pair@$$CBV?$basic_string@DU?$char_traits@D@std@@V?$allocator@D@2@@std@@PAVResults@Database@@@std@@@2@@std@@IAEPAU_Node@?$_List_nod@U?$pair@$$CBV?$basic_string@DU?$char_traits@D@std@@V?$allocator@D@2@@std@@PAVResults@Database@@@std@@V?$allocator@U?$pair@$$CBV?$basic_string@DU?$char_traits@D@std@@V?$allocator@D@2@@std@@PAVResults@Database@@@std@@@2@@2@XZ ; std::list<std::pair<std::basic_string<char,std::char_traits<char>,std::allocator<char> > const ,Database::Results *>,std::allocator<std::pair<std::basic_string<char,std::char_traits<char>,std::allocator<char> > const ,Database::Results *> > >::_Buynode
;	COMDAT xdata$x
; File c:\program files (x86)\microsoft visual studio 9.0\vc\include\xmemory
xdata$x	SEGMENT
__unwindtable$??0?$list@U?$pair@$$CBV?$basic_string@DU?$char_traits@D@std@@V?$allocator@D@2@@std@@PAVResults@Database@@@std@@V?$allocator@U?$pair@$$CBV?$basic_string@DU?$char_traits@D@std@@V?$allocator@D@2@@std@@PAVResults@Database@@@std@@@2@@std@@QAE@ABV?$allocator@U?$pair@$$CBV?$basic_string@DU?$char_traits@D@std@@V?$allocator@D@2@@std@@PAVResults@Database@@@std@@@1@@Z DD 0ffffffffH
	DD	FLAT:__unwindfunclet$??0?$list@U?$pair@$$CBV?$basic_string@DU?$char_traits@D@std@@V?$allocator@D@2@@std@@PAVResults@Database@@@std@@V?$allocator@U?$pair@$$CBV?$basic_string@DU?$char_traits@D@std@@V?$allocator@D@2@@std@@PAVResults@Database@@@std@@@2@@std@@QAE@ABV?$allocator@U?$pair@$$CBV?$basic_string@DU?$char_traits@D@std@@V?$allocator@D@2@@std@@PAVResults@Database@@@std@@@1@@Z$0
__ehfuncinfo$??0?$list@U?$pair@$$CBV?$basic_string@DU?$char_traits@D@std@@V?$allocator@D@2@@std@@PAVResults@Database@@@std@@V?$allocator@U?$pair@$$CBV?$basic_string@DU?$char_traits@D@std@@V?$allocator@D@2@@std@@PAVResults@Database@@@std@@@2@@std@@QAE@ABV?$allocator@U?$pair@$$CBV?$basic_string@DU?$char_traits@D@std@@V?$allocator@D@2@@std@@PAVResults@Database@@@std@@@1@@Z DD 019930522H
	DD	01H
	DD	FLAT:__unwindtable$??0?$list@U?$pair@$$CBV?$basic_string@DU?$char_traits@D@std@@V?$allocator@D@2@@std@@PAVResults@Database@@@std@@V?$allocator@U?$pair@$$CBV?$basic_string@DU?$char_traits@D@std@@V?$allocator@D@2@@std@@PAVResults@Database@@@std@@@2@@std@@QAE@ABV?$allocator@U?$pair@$$CBV?$basic_string@DU?$char_traits@D@std@@V?$allocator@D@2@@std@@PAVResults@Database@@@std@@@1@@Z
	DD	2 DUP(00H)
	DD	2 DUP(00H)
	DD	00H
	DD	01H
; Function compile flags: /Odtp
; File c:\program files (x86)\microsoft visual studio 9.0\vc\include\list
xdata$x	ENDS
;	COMDAT ??0?$list@U?$pair@$$CBV?$basic_string@DU?$char_traits@D@std@@V?$allocator@D@2@@std@@PAVResults@Database@@@std@@V?$allocator@U?$pair@$$CBV?$basic_string@DU?$char_traits@D@std@@V?$allocator@D@2@@std@@PAVResults@Database@@@std@@@2@@std@@QAE@ABV?$allocator@U?$pair@$$CBV?$basic_string@DU?$char_traits@D@std@@V?$allocator@D@2@@std@@PAVResults@Database@@@std@@@1@@Z
_TEXT	SEGMENT
tv91 = -68						; size = 4
tv148 = -64						; size = 4
tv173 = -60						; size = 4
tv197 = -56						; size = 4
_this$ = -52						; size = 4
$T223819 = -48						; size = 1
$T223792 = -47						; size = 1
$T223772 = -46						; size = 1
$T223759 = -45						; size = 1
$T223755 = -44						; size = 4
$T223748 = -36						; size = 4
$T223741 = -28						; size = 4
$T223734 = -20						; size = 4
__$EHRec$ = -12						; size = 12
__Al$ = 8						; size = 4
??0?$list@U?$pair@$$CBV?$basic_string@DU?$char_traits@D@std@@V?$allocator@D@2@@std@@PAVResults@Database@@@std@@V?$allocator@U?$pair@$$CBV?$basic_string@DU?$char_traits@D@std@@V?$allocator@D@2@@std@@PAVResults@Database@@@std@@@2@@std@@QAE@ABV?$allocator@U?$pair@$$CBV?$basic_string@DU?$char_traits@D@std@@V?$allocator@D@2@@std@@PAVResults@Database@@@std@@@1@@Z PROC ; std::list<std::pair<std::basic_string<char,std::char_traits<char>,std::allocator<char> > const ,Database::Results *>,std::allocator<std::pair<std::basic_string<char,std::char_traits<char>,std::allocator<char> > const ,Database::Results *> > >::list<std::pair<std::basic_string<char,std::char_traits<char>,std::allocator<char> > const ,Database::Results *>,std::allocator<std::pair<std::basic_string<char,std::char_traits<char>,std::allocator<char> > const ,Database::Results *> > >, COMDAT
; _this$ = ecx

; 441  : 		{	// construct empty list, allocator

	push	ebp
	mov	ebp, esp
	push	-1
	push	__ehhandler$??0?$list@U?$pair@$$CBV?$basic_string@DU?$char_traits@D@std@@V?$allocator@D@2@@std@@PAVResults@Database@@@std@@V?$allocator@U?$pair@$$CBV?$basic_string@DU?$char_traits@D@std@@V?$allocator@D@2@@std@@PAVResults@Database@@@std@@@2@@std@@QAE@ABV?$allocator@U?$pair@$$CBV?$basic_string@DU?$char_traits@D@std@@V?$allocator@D@2@@std@@PAVResults@Database@@@std@@@1@@Z
	mov	eax, DWORD PTR fs:0
	push	eax
	sub	esp, 56					; 00000038H
	mov	eax, DWORD PTR ___security_cookie
	xor	eax, ebp
	push	eax
	lea	eax, DWORD PTR __$EHRec$[ebp]
	mov	DWORD PTR fs:0, eax
	mov	DWORD PTR _this$[ebp], ecx
	lea	eax, DWORD PTR $T223819[ebp]
	mov	DWORD PTR $T223734[ebp], eax
	lea	ecx, DWORD PTR $T223792[ebp]
	mov	DWORD PTR $T223741[ebp], ecx
	lea	edx, DWORD PTR $T223772[ebp]
	mov	DWORD PTR $T223748[ebp], edx
	lea	eax, DWORD PTR $T223759[ebp]
	mov	DWORD PTR $T223755[ebp], eax
	mov	ecx, DWORD PTR _this$[ebp]
	mov	DWORD PTR tv197[ebp], ecx
	mov	edx, DWORD PTR _this$[ebp]
	mov	DWORD PTR tv173[ebp], edx
	mov	eax, DWORD PTR _this$[ebp]
	mov	DWORD PTR tv148[ebp], eax
	mov	ecx, DWORD PTR _this$[ebp]
	mov	DWORD PTR tv91[ebp], ecx
	mov	DWORD PTR __$EHRec$[ebp+8], 0
	mov	ecx, DWORD PTR _this$[ebp]
	call	?_Buynode@?$list@U?$pair@$$CBV?$basic_string@DU?$char_traits@D@std@@V?$allocator@D@2@@std@@PAVResults@Database@@@std@@V?$allocator@U?$pair@$$CBV?$basic_string@DU?$char_traits@D@std@@V?$allocator@D@2@@std@@PAVResults@Database@@@std@@@2@@std@@IAEPAU_Node@?$_List_nod@U?$pair@$$CBV?$basic_string@DU?$char_traits@D@std@@V?$allocator@D@2@@std@@PAVResults@Database@@@std@@V?$allocator@U?$pair@$$CBV?$basic_string@DU?$char_traits@D@std@@V?$allocator@D@2@@std@@PAVResults@Database@@@std@@@2@@2@XZ ; std::list<std::pair<std::basic_string<char,std::char_traits<char>,std::allocator<char> > const ,Database::Results *>,std::allocator<std::pair<std::basic_string<char,std::char_traits<char>,std::allocator<char> > const ,Database::Results *> > >::_Buynode
	mov	edx, DWORD PTR _this$[ebp]
	mov	DWORD PTR [edx+4], eax
	mov	eax, DWORD PTR _this$[ebp]
	mov	DWORD PTR [eax+8], 0

; 442  : 		}

	mov	DWORD PTR __$EHRec$[ebp+8], -1
	mov	eax, DWORD PTR _this$[ebp]
	mov	ecx, DWORD PTR __$EHRec$[ebp]
	mov	DWORD PTR fs:0, ecx
	pop	ecx
	mov	esp, ebp
	pop	ebp
	ret	4
_TEXT	ENDS
;	COMDAT text$x
text$x	SEGMENT
__unwindfunclet$??0?$list@U?$pair@$$CBV?$basic_string@DU?$char_traits@D@std@@V?$allocator@D@2@@std@@PAVResults@Database@@@std@@V?$allocator@U?$pair@$$CBV?$basic_string@DU?$char_traits@D@std@@V?$allocator@D@2@@std@@PAVResults@Database@@@std@@@2@@std@@QAE@ABV?$allocator@U?$pair@$$CBV?$basic_string@DU?$char_traits@D@std@@V?$allocator@D@2@@std@@PAVResults@Database@@@std@@@1@@Z$0:
	mov	ecx, DWORD PTR _this$[ebp]
	jmp	??1?$_List_val@U?$pair@$$CBV?$basic_string@DU?$char_traits@D@std@@V?$allocator@D@2@@std@@PAVResults@Database@@@std@@V?$allocator@U?$pair@$$CBV?$basic_string@DU?$char_traits@D@std@@V?$allocator@D@2@@std@@PAVResults@Database@@@std@@@2@@std@@QAE@XZ
__ehhandler$??0?$list@U?$pair@$$CBV?$basic_string@DU?$char_traits@D@std@@V?$allocator@D@2@@std@@PAVResults@Database@@@std@@V?$allocator@U?$pair@$$CBV?$basic_string@DU?$char_traits@D@std@@V?$allocator@D@2@@std@@PAVResults@Database@@@std@@@2@@std@@QAE@ABV?$allocator@U?$pair@$$CBV?$basic_string@DU?$char_traits@D@std@@V?$allocator@D@2@@std@@PAVResults@Database@@@std@@@1@@Z:
	mov	edx, DWORD PTR [esp+8]
	lea	eax, DWORD PTR [edx+12]
	mov	ecx, DWORD PTR [edx-60]
	xor	ecx, eax
	call	@__security_check_cookie@4
	mov	eax, OFFSET __ehfuncinfo$??0?$list@U?$pair@$$CBV?$basic_string@DU?$char_traits@D@std@@V?$allocator@D@2@@std@@PAVResults@Database@@@std@@V?$allocator@U?$pair@$$CBV?$basic_string@DU?$char_traits@D@std@@V?$allocator@D@2@@std@@PAVResults@Database@@@std@@@2@@std@@QAE@ABV?$allocator@U?$pair@$$CBV?$basic_string@DU?$char_traits@D@std@@V?$allocator@D@2@@std@@PAVResults@Database@@@std@@@1@@Z
	jmp	___CxxFrameHandler3
text$x	ENDS
??0?$list@U?$pair@$$CBV?$basic_string@DU?$char_traits@D@std@@V?$allocator@D@2@@std@@PAVResults@Database@@@std@@V?$allocator@U?$pair@$$CBV?$basic_string@DU?$char_traits@D@std@@V?$allocator@D@2@@std@@PAVResults@Database@@@std@@@2@@std@@QAE@ABV?$allocator@U?$pair@$$CBV?$basic_string@DU?$char_traits@D@std@@V?$allocator@D@2@@std@@PAVResults@Database@@@std@@@1@@Z ENDP ; std::list<std::pair<std::basic_string<char,std::char_traits<char>,std::allocator<char> > const ,Database::Results *>,std::allocator<std::pair<std::basic_string<char,std::char_traits<char>,std::allocator<char> > const ,Database::Results *> > >::list<std::pair<std::basic_string<char,std::char_traits<char>,std::allocator<char> > const ,Database::Results *>,std::allocator<std::pair<std::basic_string<char,std::char_traits<char>,std::allocator<char> > const ,Database::Results *> > >
; Function compile flags: /Odtp
; File c:\program files (x86)\microsoft visual studio 9.0\vc\include\vector
;	COMDAT ?_Tidy@?$vector@V?$_Iterator@$0A@@?$list@U?$pair@$$CBV?$basic_string@DU?$char_traits@D@std@@V?$allocator@D@2@@std@@PAVResults@Database@@@std@@V?$allocator@U?$pair@$$CBV?$basic_string@DU?$char_traits@D@std@@V?$allocator@D@2@@std@@PAVResults@Database@@@std@@@2@@std@@V?$allocator@V?$_Iterator@$0A@@?$list@U?$pair@$$CBV?$basic_string@DU?$char_traits@D@std@@V?$allocator@D@2@@std@@PAVResults@Database@@@std@@V?$allocator@U?$pair@$$CBV?$basic_string@DU?$char_traits@D@std@@V?$allocator@D@2@@std@@PAVResults@Database@@@std@@@2@@std@@@3@@std@@IAEXXZ
_TEXT	SEGMENT
_this$ = -36						; size = 4
$T223894 = -32						; size = 4
$T223893 = -28						; size = 4
$T223889 = -24						; size = 4
$T223888 = -20						; size = 4
$T223870 = -16						; size = 4
$T223869 = -12						; size = 4
$T223853 = -8						; size = 4
__Cat$223876 = -2					; size = 1
$T223874 = -1						; size = 1
?_Tidy@?$vector@V?$_Iterator@$0A@@?$list@U?$pair@$$CBV?$basic_string@DU?$char_traits@D@std@@V?$allocator@D@2@@std@@PAVResults@Database@@@std@@V?$allocator@U?$pair@$$CBV?$basic_string@DU?$char_traits@D@std@@V?$allocator@D@2@@std@@PAVResults@Database@@@std@@@2@@std@@V?$allocator@V?$_Iterator@$0A@@?$list@U?$pair@$$CBV?$basic_string@DU?$char_traits@D@std@@V?$allocator@D@2@@std@@PAVResults@Database@@@std@@V?$allocator@U?$pair@$$CBV?$basic_string@DU?$char_traits@D@std@@V?$allocator@D@2@@std@@PAVResults@Database@@@std@@@2@@std@@@3@@std@@IAEXXZ PROC ; std::vector<std::list<std::pair<std::basic_string<char,std::char_traits<char>,std::allocator<char> > const ,Database::Results *>,std::allocator<std::pair<std::basic_string<char,std::char_traits<char>,std::allocator<char> > const ,Database::Results *> > >::_Iterator<0>,std::allocator<std::list<std::pair<std::basic_string<char,std::char_traits<char>,std::allocator<char> > const ,Database::Results *>,std::allocator<std::pair<std::basic_string<char,std::char_traits<char>,std::allocator<char> > const ,Database::Results *> > >::_Iterator<0> > >::_Tidy, COMDAT
; _this$ = ecx

; 1123 : 		{	// free all storage

	push	ebp
	mov	ebp, esp
	sub	esp, 36					; 00000024H
	mov	DWORD PTR _this$[ebp], ecx

; 1124 : 		if (_Myfirst != 0)

	mov	eax, DWORD PTR _this$[ebp]
	cmp	DWORD PTR [eax+4], 0
	je	SHORT $LN1@Tidy

; 1125 : 			{	// something to free, destroy and deallocate it
; 1126 : 
; 1127 :  #if _HAS_ITERATOR_DEBUGGING
; 1128 : 			this->_Orphan_all();
; 1129 :  #endif /* _HAS_ITERATOR_DEBUGGING */
; 1130 : 
; 1131 : 			_Destroy(_Myfirst, _Mylast);

	mov	ecx, DWORD PTR _this$[ebp]
	mov	edx, DWORD PTR [ecx+8]
	mov	DWORD PTR $T223889[ebp], edx
	mov	eax, DWORD PTR _this$[ebp]
	mov	ecx, DWORD PTR [eax+4]
	mov	DWORD PTR $T223888[ebp], ecx
	mov	edx, DWORD PTR $T223889[ebp]
	mov	DWORD PTR $T223870[ebp], edx
	mov	eax, DWORD PTR $T223888[ebp]
	mov	DWORD PTR $T223869[ebp], eax
	mov	cl, BYTE PTR __Cat$223876[ebp]
	mov	BYTE PTR $T223874[ebp], cl
	mov	edx, DWORD PTR $T223869[ebp]
	mov	DWORD PTR $T223853[ebp], edx
	jmp	SHORT $LN12@Tidy
$LN11@Tidy:
	mov	eax, DWORD PTR $T223853[ebp]
	add	eax, 4
	mov	DWORD PTR $T223853[ebp], eax
$LN12@Tidy:
	mov	ecx, DWORD PTR $T223853[ebp]
	cmp	ecx, DWORD PTR $T223870[ebp]
	je	SHORT $LN4@Tidy
	jmp	SHORT $LN11@Tidy
$LN4@Tidy:

; 1132 : 			this->_Alval.deallocate(_Myfirst, _Myend - _Myfirst);

	mov	edx, DWORD PTR _this$[ebp]
	mov	eax, DWORD PTR _this$[ebp]
	mov	ecx, DWORD PTR [edx+12]
	sub	ecx, DWORD PTR [eax+4]
	sar	ecx, 2
	mov	DWORD PTR $T223894[ebp], ecx
	mov	edx, DWORD PTR _this$[ebp]
	mov	eax, DWORD PTR [edx+4]
	mov	DWORD PTR $T223893[ebp], eax
	mov	ecx, DWORD PTR $T223893[ebp]
	push	ecx
	call	??3@YAXPAX@Z				; operator delete
	add	esp, 4
$LN1@Tidy:

; 1133 : 			}
; 1134 : 		_Myfirst = 0, _Mylast = 0, _Myend = 0;

	mov	edx, DWORD PTR _this$[ebp]
	mov	DWORD PTR [edx+4], 0
	mov	eax, DWORD PTR _this$[ebp]
	mov	DWORD PTR [eax+8], 0
	mov	ecx, DWORD PTR _this$[ebp]
	mov	DWORD PTR [ecx+12], 0

; 1135 : 		}

	mov	esp, ebp
	pop	ebp
	ret	0
?_Tidy@?$vector@V?$_Iterator@$0A@@?$list@U?$pair@$$CBV?$basic_string@DU?$char_traits@D@std@@V?$allocator@D@2@@std@@PAVResults@Database@@@std@@V?$allocator@U?$pair@$$CBV?$basic_string@DU?$char_traits@D@std@@V?$allocator@D@2@@std@@PAVResults@Database@@@std@@@2@@std@@V?$allocator@V?$_Iterator@$0A@@?$list@U?$pair@$$CBV?$basic_string@DU?$char_traits@D@std@@V?$allocator@D@2@@std@@PAVResults@Database@@@std@@V?$allocator@U?$pair@$$CBV?$basic_string@DU?$char_traits@D@std@@V?$allocator@D@2@@std@@PAVResults@Database@@@std@@@2@@std@@@3@@std@@IAEXXZ ENDP ; std::vector<std::list<std::pair<std::basic_string<char,std::char_traits<char>,std::allocator<char> > const ,Database::Results *>,std::allocator<std::pair<std::basic_string<char,std::char_traits<char>,std::allocator<char> > const ,Database::Results *> > >::_Iterator<0>,std::allocator<std::list<std::pair<std::basic_string<char,std::char_traits<char>,std::allocator<char> > const ,Database::Results *>,std::allocator<std::pair<std::basic_string<char,std::char_traits<char>,std::allocator<char> > const ,Database::Results *> > >::_Iterator<0> > >::_Tidy
_TEXT	ENDS
PUBLIC	?erase@?$list@U?$pair@$$CBV?$basic_string@DU?$char_traits@D@std@@V?$allocator@D@2@@std@@PAVResults@Database@@@std@@V?$allocator@U?$pair@$$CBV?$basic_string@DU?$char_traits@D@std@@V?$allocator@D@2@@std@@PAVResults@Database@@@std@@@2@@std@@QAE?AV?$_Iterator@$0A@@12@V?$_Const_iterator@$0A@@12@@Z ; std::list<std::pair<std::basic_string<char,std::char_traits<char>,std::allocator<char> > const ,Database::Results *>,std::allocator<std::pair<std::basic_string<char,std::char_traits<char>,std::allocator<char> > const ,Database::Results *> > >::erase
; Function compile flags: /Odtp
; File c:\program files (x86)\microsoft visual studio 9.0\vc\include\xhash
;	COMDAT ?erase@?$_Hash@V?$_Hmap_traits@V?$basic_string@DU?$char_traits@D@std@@V?$allocator@D@2@@std@@PAVResults@Database@@V?$hash_compare@V?$basic_string@DU?$char_traits@D@std@@V?$allocator@D@2@@std@@U?$less@V?$basic_string@DU?$char_traits@D@std@@V?$allocator@D@2@@std@@@2@@stdext@@V?$allocator@U?$pair@$$CBV?$basic_string@DU?$char_traits@D@std@@V?$allocator@D@2@@std@@PAVResults@Database@@@std@@@2@$0A@@stdext@@@stdext@@QAE?AV?$_Iterator@$0A@@?$list@U?$pair@$$CBV?$basic_string@DU?$char_traits@D@std@@V?$allocator@D@2@@std@@PAVResults@Database@@@std@@V?$allocator@U?$pair@$$CBV?$basic_string@DU?$char_traits@D@std@@V?$allocator@D@2@@std@@PAVResults@Database@@@std@@@2@@std@@V?$_Const_iterator@$0A@@45@@Z
_TEXT	SEGMENT
_this$ = -88						; size = 4
$T223951 = -60						; size = 4
$T223940 = -56						; size = 4
$T223928 = -52						; size = 4
__Num$223922 = -12					; size = 4
$T223905 = -8						; size = 4
__Bucket$ = -4						; size = 4
___$ReturnUdt$ = 8					; size = 4
__Where$ = 12						; size = 4
?erase@?$_Hash@V?$_Hmap_traits@V?$basic_string@DU?$char_traits@D@std@@V?$allocator@D@2@@std@@PAVResults@Database@@V?$hash_compare@V?$basic_string@DU?$char_traits@D@std@@V?$allocator@D@2@@std@@U?$less@V?$basic_string@DU?$char_traits@D@std@@V?$allocator@D@2@@std@@@2@@stdext@@V?$allocator@U?$pair@$$CBV?$basic_string@DU?$char_traits@D@std@@V?$allocator@D@2@@std@@PAVResults@Database@@@std@@@2@$0A@@stdext@@@stdext@@QAE?AV?$_Iterator@$0A@@?$list@U?$pair@$$CBV?$basic_string@DU?$char_traits@D@std@@V?$allocator@D@2@@std@@PAVResults@Database@@@std@@V?$allocator@U?$pair@$$CBV?$basic_string@DU?$char_traits@D@std@@V?$allocator@D@2@@std@@PAVResults@Database@@@std@@@2@@std@@V?$_Const_iterator@$0A@@45@@Z PROC ; stdext::_Hash<stdext::_Hmap_traits<std::basic_string<char,std::char_traits<char>,std::allocator<char> >,Database::Results *,stdext::hash_compare<std::basic_string<char,std::char_traits<char>,std::allocator<char> >,std::less<std::basic_string<char,std::char_traits<char>,std::allocator<char> > > >,std::allocator<std::pair<std::basic_string<char,std::char_traits<char>,std::allocator<char> > const ,Database::Results *> >,0> >::erase, COMDAT
; _this$ = ecx

; 562  : 		{	// erase element at _Where

	push	ebp
	mov	ebp, esp
	sub	esp, 88					; 00000058H
	mov	DWORD PTR _this$[ebp], ecx

; 563  : 		size_type _Bucket = _Hashval(this->_Kfn(*_Where));

	mov	eax, DWORD PTR __Where$[ebp]
	add	eax, 8
	mov	DWORD PTR $T223905[ebp], eax
	mov	ecx, DWORD PTR $T223905[ebp]
	push	ecx
	mov	ecx, DWORD PTR _this$[ebp]
	call	??R?$hash_compare@V?$basic_string@DU?$char_traits@D@std@@V?$allocator@D@2@@std@@U?$less@V?$basic_string@DU?$char_traits@D@std@@V?$allocator@D@2@@std@@@2@@stdext@@QBEIABV?$basic_string@DU?$char_traits@D@std@@V?$allocator@D@2@@std@@@Z ; stdext::hash_compare<std::basic_string<char,std::char_traits<char>,std::allocator<char> >,std::less<std::basic_string<char,std::char_traits<char>,std::allocator<char> > > >::operator()
	mov	edx, DWORD PTR _this$[ebp]
	and	eax, DWORD PTR [edx+32]
	mov	DWORD PTR __Num$223922[ebp], eax
	mov	eax, DWORD PTR _this$[ebp]
	mov	ecx, DWORD PTR [eax+36]
	cmp	ecx, DWORD PTR __Num$223922[ebp]
	ja	SHORT $LN14@erase@3
	mov	edx, DWORD PTR _this$[ebp]
	mov	eax, DWORD PTR [edx+32]
	shr	eax, 1
	add	eax, 1
	mov	ecx, DWORD PTR __Num$223922[ebp]
	sub	ecx, eax
	mov	DWORD PTR __Num$223922[ebp], ecx
$LN14@erase@3:
	mov	edx, DWORD PTR __Num$223922[ebp]
	mov	DWORD PTR __Bucket$[ebp], edx

; 564  : 		for (; _Vec[_Bucket] == _Where; --_Bucket)

	jmp	SHORT $LN4@erase@3
$LN3@erase@3:
	mov	eax, DWORD PTR __Bucket$[ebp]
	sub	eax, 1
	mov	DWORD PTR __Bucket$[ebp], eax
$LN4@erase@3:
	mov	ecx, DWORD PTR _this$[ebp]
	mov	edx, DWORD PTR [ecx+20]
	mov	eax, DWORD PTR __Bucket$[ebp]
	lea	ecx, DWORD PTR [edx+eax*4]
	mov	DWORD PTR $T223928[ebp], ecx
	mov	edx, DWORD PTR $T223928[ebp]
	mov	eax, DWORD PTR [edx]
	xor	ecx, ecx
	cmp	eax, DWORD PTR __Where$[ebp]
	sete	cl
	movzx	edx, cl
	test	edx, edx
	je	SHORT $LN2@erase@3

; 565  : 			{	// update end iterators if erasing first
; 566  : #if _SECURE_SCL && !_HAS_ITERATOR_DEBUGGING
; 567  : 			iterator _Vec_iter = _Get_iter_from_vec(_Vec[_Bucket]);
; 568  : 			++_Vec_iter;
; 569  : 			_Vec[_Bucket] = _Vec_iter;
; 570  : #else
; 571  : 			++_Vec[_Bucket];

	mov	eax, DWORD PTR _this$[ebp]
	mov	ecx, DWORD PTR [eax+20]
	mov	edx, DWORD PTR __Bucket$[ebp]
	lea	eax, DWORD PTR [ecx+edx*4]
	mov	DWORD PTR $T223951[ebp], eax
	mov	ecx, DWORD PTR $T223951[ebp]
	mov	edx, DWORD PTR [ecx]
	mov	DWORD PTR $T223940[ebp], edx
	mov	eax, DWORD PTR $T223951[ebp]
	mov	ecx, DWORD PTR $T223940[ebp]
	mov	edx, DWORD PTR [ecx]
	mov	DWORD PTR [eax], edx

; 572  : #endif
; 573  : 			if (_Bucket == 0)

	cmp	DWORD PTR __Bucket$[ebp], 0
	jne	SHORT $LN1@erase@3

; 574  : 				break;

	jmp	SHORT $LN2@erase@3
$LN1@erase@3:

; 575  : 			}

	jmp	SHORT $LN3@erase@3
$LN2@erase@3:

; 576  : 		return (_List.erase(_Where));

	mov	eax, DWORD PTR __Where$[ebp]
	push	eax
	mov	ecx, DWORD PTR ___$ReturnUdt$[ebp]
	push	ecx
	mov	ecx, DWORD PTR _this$[ebp]
	add	ecx, 4
	call	?erase@?$list@U?$pair@$$CBV?$basic_string@DU?$char_traits@D@std@@V?$allocator@D@2@@std@@PAVResults@Database@@@std@@V?$allocator@U?$pair@$$CBV?$basic_string@DU?$char_traits@D@std@@V?$allocator@D@2@@std@@PAVResults@Database@@@std@@@2@@std@@QAE?AV?$_Iterator@$0A@@12@V?$_Const_iterator@$0A@@12@@Z ; std::list<std::pair<std::basic_string<char,std::char_traits<char>,std::allocator<char> > const ,Database::Results *>,std::allocator<std::pair<std::basic_string<char,std::char_traits<char>,std::allocator<char> > const ,Database::Results *> > >::erase
	mov	eax, DWORD PTR ___$ReturnUdt$[ebp]

; 577  : 		}

	mov	esp, ebp
	pop	ebp
	ret	8
?erase@?$_Hash@V?$_Hmap_traits@V?$basic_string@DU?$char_traits@D@std@@V?$allocator@D@2@@std@@PAVResults@Database@@V?$hash_compare@V?$basic_string@DU?$char_traits@D@std@@V?$allocator@D@2@@std@@U?$less@V?$basic_string@DU?$char_traits@D@std@@V?$allocator@D@2@@std@@@2@@stdext@@V?$allocator@U?$pair@$$CBV?$basic_string@DU?$char_traits@D@std@@V?$allocator@D@2@@std@@PAVResults@Database@@@std@@@2@$0A@@stdext@@@stdext@@QAE?AV?$_Iterator@$0A@@?$list@U?$pair@$$CBV?$basic_string@DU?$char_traits@D@std@@V?$allocator@D@2@@std@@PAVResults@Database@@@std@@V?$allocator@U?$pair@$$CBV?$basic_string@DU?$char_traits@D@std@@V?$allocator@D@2@@std@@PAVResults@Database@@@std@@@2@@std@@V?$_Const_iterator@$0A@@45@@Z ENDP ; stdext::_Hash<stdext::_Hmap_traits<std::basic_string<char,std::char_traits<char>,std::allocator<char> >,Database::Results *,stdext::hash_compare<std::basic_string<char,std::char_traits<char>,std::allocator<char> >,std::less<std::basic_string<char,std::char_traits<char>,std::allocator<char> > > >,std::allocator<std::pair<std::basic_string<char,std::char_traits<char>,std::allocator<char> > const ,Database::Results *> >,0> >::erase
_TEXT	ENDS
PUBLIC	?_Reinsert@?$_Hash@V?$_Hmap_traits@V?$basic_string@DU?$char_traits@D@std@@V?$allocator@D@2@@std@@PAVResults@Database@@V?$hash_compare@V?$basic_string@DU?$char_traits@D@std@@V?$allocator@D@2@@std@@U?$less@V?$basic_string@DU?$char_traits@D@std@@V?$allocator@D@2@@std@@@2@@stdext@@V?$allocator@U?$pair@$$CBV?$basic_string@DU?$char_traits@D@std@@V?$allocator@D@2@@std@@PAVResults@Database@@@std@@@2@$0A@@stdext@@@stdext@@IAEXXZ ; stdext::_Hash<stdext::_Hmap_traits<std::basic_string<char,std::char_traits<char>,std::allocator<char> >,Database::Results *,stdext::hash_compare<std::basic_string<char,std::char_traits<char>,std::allocator<char> >,std::less<std::basic_string<char,std::char_traits<char>,std::allocator<char> > > >,std::allocator<std::pair<std::basic_string<char,std::char_traits<char>,std::allocator<char> > const ,Database::Results *> >,0> >::_Reinsert
PUBLIC	?_Insert@?$list@U?$pair@$$CBV?$basic_string@DU?$char_traits@D@std@@V?$allocator@D@2@@std@@PAVResults@Database@@@std@@V?$allocator@U?$pair@$$CBV?$basic_string@DU?$char_traits@D@std@@V?$allocator@D@2@@std@@PAVResults@Database@@@std@@@2@@std@@QAEXV?$_Const_iterator@$0A@@12@ABU?$pair@$$CBV?$basic_string@DU?$char_traits@D@std@@V?$allocator@D@2@@std@@PAVResults@Database@@@2@@Z ; std::list<std::pair<std::basic_string<char,std::char_traits<char>,std::allocator<char> > const ,Database::Results *>,std::allocator<std::pair<std::basic_string<char,std::char_traits<char>,std::allocator<char> > const ,Database::Results *> > >::_Insert
PUBLIC	?splice@?$list@U?$pair@$$CBV?$basic_string@DU?$char_traits@D@std@@V?$allocator@D@2@@std@@PAVResults@Database@@@std@@V?$allocator@U?$pair@$$CBV?$basic_string@DU?$char_traits@D@std@@V?$allocator@D@2@@std@@PAVResults@Database@@@std@@@2@@std@@QAEXV?$_Const_iterator@$0A@@12@AAV12@0@Z ; std::list<std::pair<std::basic_string<char,std::char_traits<char>,std::allocator<char> > const ,Database::Results *>,std::allocator<std::pair<std::basic_string<char,std::char_traits<char>,std::allocator<char> > const ,Database::Results *> > >::splice
; Function compile flags: /Odtp
;	COMDAT ?_Insert@?$_Hash@V?$_Hmap_traits@V?$basic_string@DU?$char_traits@D@std@@V?$allocator@D@2@@std@@PAVResults@Database@@V?$hash_compare@V?$basic_string@DU?$char_traits@D@std@@V?$allocator@D@2@@std@@U?$less@V?$basic_string@DU?$char_traits@D@std@@V?$allocator@D@2@@std@@@2@@stdext@@V?$allocator@U?$pair@$$CBV?$basic_string@DU?$char_traits@D@std@@V?$allocator@D@2@@std@@PAVResults@Database@@@std@@@2@$0A@@stdext@@@stdext@@IAE?AU?$pair@V?$_Iterator@$0A@@?$list@U?$pair@$$CBV?$basic_string@DU?$char_traits@D@std@@V?$allocator@D@2@@std@@PAVResults@Database@@@std@@V?$allocator@U?$pair@$$CBV?$basic_string@DU?$char_traits@D@std@@V?$allocator@D@2@@std@@PAVResults@Database@@@std@@@2@@std@@_N@std@@ABU?$pair@$$CBV?$basic_string@DU?$char_traits@D@std@@V?$allocator@D@2@@std@@PAVResults@Database@@@4@V?$_Iterator@$0A@@?$list@U?$pair@$$CBV?$basic_string@DU?$char_traits@D@std@@V?$allocator@D@2@@std@@PAVResults@Database@@@std@@V?$allocator@U?$pair@$$CBV?$basic_string@DU?$char_traits@D@std@@V?$allocator@D@2@@std@@PAVResults@Database@@@std@@@2@@4@@Z
_TEXT	SEGMENT
tv372 = -292						; size = 4
tv652 = -288						; size = 8
tv648 = -280						; size = 8
_this$ = -272						; size = 4
__Count$224494 = -152					; size = 4
$T224471 = -148						; size = 4
$T224463 = -144						; size = 4
$T224457 = -140						; size = 4
$T224444 = -136						; size = 4
$T224440 = -132						; size = 4
$T224331 = -116						; size = 4
$T224196 = -92						; size = 4
$T224159 = -88						; size = 4
$T224126 = -84						; size = 4
$T224084 = -80						; size = 4
$T224080 = -76						; size = 4
__Num$224071 = -72					; size = 4
$T224065 = -65						; size = 1
$T224064 = -64						; size = 4
$T224063 = -60						; size = 4
$T224062 = -56						; size = 4
$T224061 = -52						; size = 4
$T224060 = -48						; size = 4
$T224059 = -44						; size = 4
$T224058 = -37						; size = 1
$T224057 = -36						; size = 4
$T224056 = -32						; size = 4
$T224055 = -28						; size = 4
$T224054 = -24						; size = 4
__Idx$217372 = -20					; size = 4
__Maxsize$217370 = -16					; size = 4
__Newsize$217371 = -12					; size = 4
__Bucket$ = -8						; size = 4
__Plist$ = -4						; size = 4
___$ReturnUdt$ = 8					; size = 4
__Val$ = 12						; size = 4
__Where$ = 16						; size = 4
?_Insert@?$_Hash@V?$_Hmap_traits@V?$basic_string@DU?$char_traits@D@std@@V?$allocator@D@2@@std@@PAVResults@Database@@V?$hash_compare@V?$basic_string@DU?$char_traits@D@std@@V?$allocator@D@2@@std@@U?$less@V?$basic_string@DU?$char_traits@D@std@@V?$allocator@D@2@@std@@@2@@stdext@@V?$allocator@U?$pair@$$CBV?$basic_string@DU?$char_traits@D@std@@V?$allocator@D@2@@std@@PAVResults@Database@@@std@@@2@$0A@@stdext@@@stdext@@IAE?AU?$pair@V?$_Iterator@$0A@@?$list@U?$pair@$$CBV?$basic_string@DU?$char_traits@D@std@@V?$allocator@D@2@@std@@PAVResults@Database@@@std@@V?$allocator@U?$pair@$$CBV?$basic_string@DU?$char_traits@D@std@@V?$allocator@D@2@@std@@PAVResults@Database@@@std@@@2@@std@@_N@std@@ABU?$pair@$$CBV?$basic_string@DU?$char_traits@D@std@@V?$allocator@D@2@@std@@PAVResults@Database@@@4@V?$_Iterator@$0A@@?$list@U?$pair@$$CBV?$basic_string@DU?$char_traits@D@std@@V?$allocator@D@2@@std@@PAVResults@Database@@@std@@V?$allocator@U?$pair@$$CBV?$basic_string@DU?$char_traits@D@std@@V?$allocator@D@2@@std@@PAVResults@Database@@@std@@@2@@4@@Z PROC ; stdext::_Hash<stdext::_Hmap_traits<std::basic_string<char,std::char_traits<char>,std::allocator<char> >,Database::Results *,stdext::hash_compare<std::basic_string<char,std::char_traits<char>,std::allocator<char> >,std::less<std::basic_string<char,std::char_traits<char>,std::allocator<char> > > >,std::allocator<std::pair<std::basic_string<char,std::char_traits<char>,std::allocator<char> > const ,Database::Results *> >,0> >::_Insert, COMDAT
; _this$ = ecx

; 836  : 		{	// try to insert (possibly existing) node with value _Val

	push	ebp
	mov	ebp, esp
	sub	esp, 292				; 00000124H
	mov	DWORD PTR _this$[ebp], ecx

; 837  : 		size_type _Bucket = _Hashval(this->_Kfn(_Val));

	mov	eax, DWORD PTR __Val$[ebp]
	push	eax
	mov	ecx, DWORD PTR _this$[ebp]
	call	??R?$hash_compare@V?$basic_string@DU?$char_traits@D@std@@V?$allocator@D@2@@std@@U?$less@V?$basic_string@DU?$char_traits@D@std@@V?$allocator@D@2@@std@@@2@@stdext@@QBEIABV?$basic_string@DU?$char_traits@D@std@@V?$allocator@D@2@@std@@@Z ; stdext::hash_compare<std::basic_string<char,std::char_traits<char>,std::allocator<char> >,std::less<std::basic_string<char,std::char_traits<char>,std::allocator<char> > > >::operator()
	mov	ecx, DWORD PTR _this$[ebp]
	and	eax, DWORD PTR [ecx+32]
	mov	DWORD PTR __Num$224071[ebp], eax
	mov	edx, DWORD PTR _this$[ebp]
	mov	eax, DWORD PTR [edx+36]
	cmp	eax, DWORD PTR __Num$224071[ebp]
	ja	SHORT $LN23@Insert
	mov	ecx, DWORD PTR _this$[ebp]
	mov	edx, DWORD PTR [ecx+32]
	shr	edx, 1
	add	edx, 1
	mov	eax, DWORD PTR __Num$224071[ebp]
	sub	eax, edx
	mov	DWORD PTR __Num$224071[ebp], eax
$LN23@Insert:
	mov	ecx, DWORD PTR __Num$224071[ebp]
	mov	DWORD PTR __Bucket$[ebp], ecx

; 838  : 		iterator _Plist = _Get_iter_from_vec(_Vec[_Bucket + 1]);

	mov	edx, DWORD PTR _this$[ebp]
	mov	eax, DWORD PTR [edx+20]
	mov	ecx, DWORD PTR __Bucket$[ebp]
	lea	edx, DWORD PTR [eax+ecx*4+4]
	mov	DWORD PTR $T224080[ebp], edx
	mov	eax, DWORD PTR $T224080[ebp]
	mov	ecx, DWORD PTR [eax]
	mov	DWORD PTR __Plist$[ebp], ecx
$LN28@Insert:

; 839  : 
; 840  : 		for (; _Plist != _Get_iter_from_vec(_Vec[_Bucket]); )

	mov	edx, DWORD PTR _this$[ebp]
	mov	eax, DWORD PTR [edx+20]
	mov	ecx, DWORD PTR __Bucket$[ebp]
	lea	edx, DWORD PTR [eax+ecx*4]
	mov	DWORD PTR $T224084[ebp], edx
	mov	eax, DWORD PTR $T224084[ebp]
	mov	ecx, DWORD PTR [eax]
	mov	DWORD PTR $T224054[ebp], ecx
	mov	edx, DWORD PTR __Plist$[ebp]
	xor	eax, eax
	cmp	edx, DWORD PTR $T224054[ebp]
	sete	al
	movzx	ecx, al
	neg	ecx
	sbb	ecx, ecx
	add	ecx, 1
	movzx	edx, cl
	test	edx, edx
	je	$LN17@Insert

; 841  : 			if (this->comp(this->_Kfn(_Val), this->_Kfn(*--_Plist)))

	mov	eax, DWORD PTR __Plist$[ebp]
	mov	ecx, DWORD PTR [eax+4]
	mov	DWORD PTR __Plist$[ebp], ecx
	mov	edx, DWORD PTR __Plist$[ebp]
	add	edx, 8
	mov	DWORD PTR $T224126[ebp], edx
	mov	eax, DWORD PTR $T224126[ebp]
	push	eax
	mov	ecx, DWORD PTR __Val$[ebp]
	push	ecx
	call	DWORD PTR __imp_??$?MDU?$char_traits@D@std@@V?$allocator@D@1@@std@@YA_NABV?$basic_string@DU?$char_traits@D@std@@V?$allocator@D@2@@0@0@Z
	add	esp, 8
	movzx	edx, al
	test	edx, edx
	je	SHORT $LN16@Insert

; 842  : 				;	// still too high in bucket list
; 843  : 			else if (_Multi

	jmp	$LN12@Insert
$LN16@Insert:

; 844  : 				|| this->comp(this->_Kfn(*_Plist), this->_Kfn(_Val)))

	xor	eax, eax
	jne	SHORT $LN13@Insert
	mov	ecx, DWORD PTR __Plist$[ebp]
	add	ecx, 8
	mov	DWORD PTR $T224159[ebp], ecx
	mov	edx, DWORD PTR __Val$[ebp]
	push	edx
	mov	eax, DWORD PTR $T224159[ebp]
	push	eax
	call	DWORD PTR __imp_??$?MDU?$char_traits@D@std@@V?$allocator@D@1@@std@@YA_NABV?$basic_string@DU?$char_traits@D@std@@V?$allocator@D@2@@0@0@Z
	add	esp, 8
	movzx	ecx, al
	test	ecx, ecx
	je	SHORT $LN14@Insert
$LN13@Insert:

; 845  : 				{	// found insertion point, back up to it
; 846  : 				++_Plist;

	mov	edx, DWORD PTR __Plist$[ebp]
	mov	eax, DWORD PTR [edx]
	mov	DWORD PTR __Plist$[ebp], eax

; 847  : 				break;

	jmp	SHORT $LN17@Insert

; 848  : 				}
; 849  : 			else

	jmp	SHORT $LN12@Insert
$LN14@Insert:

; 850  : 				{	// discard new list element and return existing
; 851  : 				if (_Where != end())

	mov	ecx, DWORD PTR _this$[ebp]
	mov	edx, DWORD PTR [ecx+8]
	mov	DWORD PTR $T224196[ebp], edx
	mov	eax, DWORD PTR $T224196[ebp]
	mov	DWORD PTR $T224055[ebp], eax
	mov	ecx, DWORD PTR __Where$[ebp]
	xor	edx, edx
	cmp	ecx, DWORD PTR $T224055[ebp]
	sete	dl
	movzx	eax, dl
	neg	eax
	sbb	eax, eax
	add	eax, 1
	movzx	ecx, al
	test	ecx, ecx
	je	SHORT $LN11@Insert

; 852  : 					_List.erase(_Where);

	mov	edx, DWORD PTR __Where$[ebp]
	mov	DWORD PTR $T224056[ebp], edx
	mov	eax, DWORD PTR $T224056[ebp]
	push	eax
	lea	ecx, DWORD PTR $T224057[ebp]
	push	ecx
	mov	ecx, DWORD PTR _this$[ebp]
	add	ecx, 4
	call	?erase@?$list@U?$pair@$$CBV?$basic_string@DU?$char_traits@D@std@@V?$allocator@D@2@@std@@PAVResults@Database@@@std@@V?$allocator@U?$pair@$$CBV?$basic_string@DU?$char_traits@D@std@@V?$allocator@D@2@@std@@PAVResults@Database@@@std@@@2@@std@@QAE?AV?$_Iterator@$0A@@12@V?$_Const_iterator@$0A@@12@@Z ; std::list<std::pair<std::basic_string<char,std::char_traits<char>,std::allocator<char> > const ,Database::Results *>,std::allocator<std::pair<std::basic_string<char,std::char_traits<char>,std::allocator<char> > const ,Database::Results *> > >::erase
$LN11@Insert:

; 853  : 				return (_Pairib(_Plist, false));

	mov	BYTE PTR $T224058[ebp], 0
	mov	edx, DWORD PTR __Plist$[ebp]
	mov	eax, DWORD PTR ___$ReturnUdt$[ebp]
	mov	DWORD PTR [eax], edx
	mov	ecx, DWORD PTR ___$ReturnUdt$[ebp]
	mov	dl, BYTE PTR $T224058[ebp]
	mov	BYTE PTR [ecx+4], dl
	mov	eax, DWORD PTR ___$ReturnUdt$[ebp]
	jmp	$LN19@Insert
$LN12@Insert:

; 854  : 				}

	jmp	$LN28@Insert
$LN17@Insert:

; 855  : 
; 856  : 		if (_Where != end())

	mov	eax, DWORD PTR _this$[ebp]
	mov	ecx, DWORD PTR [eax+8]
	mov	DWORD PTR $T224331[ebp], ecx
	mov	edx, DWORD PTR $T224331[ebp]
	mov	DWORD PTR $T224059[ebp], edx
	mov	eax, DWORD PTR __Where$[ebp]
	xor	ecx, ecx
	cmp	eax, DWORD PTR $T224059[ebp]
	sete	cl
	movzx	edx, cl
	neg	edx
	sbb	edx, edx
	add	edx, 1
	movzx	eax, dl
	test	eax, eax
	je	SHORT $LN10@Insert

; 857  : 			_List.splice(_Plist, _List, _Where);	// move element into place

	mov	ecx, DWORD PTR __Where$[ebp]
	mov	DWORD PTR $T224060[ebp], ecx
	mov	edx, DWORD PTR __Plist$[ebp]
	mov	DWORD PTR $T224061[ebp], edx
	mov	eax, DWORD PTR $T224060[ebp]
	push	eax
	mov	ecx, DWORD PTR _this$[ebp]
	add	ecx, 4
	push	ecx
	mov	edx, DWORD PTR $T224061[ebp]
	push	edx
	mov	ecx, DWORD PTR _this$[ebp]
	add	ecx, 4
	call	?splice@?$list@U?$pair@$$CBV?$basic_string@DU?$char_traits@D@std@@V?$allocator@D@2@@std@@PAVResults@Database@@@std@@V?$allocator@U?$pair@$$CBV?$basic_string@DU?$char_traits@D@std@@V?$allocator@D@2@@std@@PAVResults@Database@@@std@@@2@@std@@QAEXV?$_Const_iterator@$0A@@12@AAV12@0@Z ; std::list<std::pair<std::basic_string<char,std::char_traits<char>,std::allocator<char> > const ,Database::Results *>,std::allocator<std::pair<std::basic_string<char,std::char_traits<char>,std::allocator<char> > const ,Database::Results *> > >::splice

; 858  : 		else

	jmp	SHORT $LN9@Insert
$LN10@Insert:

; 859  : 			_Where = _List.insert(_Plist, _Val);	// insert new element

	mov	eax, DWORD PTR __Plist$[ebp]
	mov	DWORD PTR $T224062[ebp], eax
	mov	ecx, DWORD PTR $T224062[ebp]
	mov	DWORD PTR $T224440[ebp], ecx
	mov	edx, DWORD PTR __Val$[ebp]
	push	edx
	mov	eax, DWORD PTR $T224440[ebp]
	push	eax
	mov	ecx, DWORD PTR _this$[ebp]
	add	ecx, 4
	call	?_Insert@?$list@U?$pair@$$CBV?$basic_string@DU?$char_traits@D@std@@V?$allocator@D@2@@std@@PAVResults@Database@@@std@@V?$allocator@U?$pair@$$CBV?$basic_string@DU?$char_traits@D@std@@V?$allocator@D@2@@std@@PAVResults@Database@@@std@@@2@@std@@QAEXV?$_Const_iterator@$0A@@12@ABU?$pair@$$CBV?$basic_string@DU?$char_traits@D@std@@V?$allocator@D@2@@std@@PAVResults@Database@@@2@@Z ; std::list<std::pair<std::basic_string<char,std::char_traits<char>,std::allocator<char> > const ,Database::Results *>,std::allocator<std::pair<std::basic_string<char,std::char_traits<char>,std::allocator<char> > const ,Database::Results *> > >::_Insert
	mov	ecx, DWORD PTR $T224440[ebp]
	mov	edx, DWORD PTR [ecx+4]
	mov	DWORD PTR $T224440[ebp], edx
	mov	eax, DWORD PTR $T224440[ebp]
	mov	DWORD PTR $T224063[ebp], eax
	mov	ecx, DWORD PTR $T224063[ebp]
	mov	DWORD PTR __Where$[ebp], ecx
$LN9@Insert:
	jmp	SHORT $LN8@Insert
$LN7@Insert:

; 860  : 		for (; _Plist == _Get_iter_from_vec(_Vec[_Bucket]); --_Bucket)

	mov	edx, DWORD PTR __Bucket$[ebp]
	sub	edx, 1
	mov	DWORD PTR __Bucket$[ebp], edx
$LN8@Insert:
	mov	eax, DWORD PTR _this$[ebp]
	mov	ecx, DWORD PTR [eax+20]
	mov	edx, DWORD PTR __Bucket$[ebp]
	lea	eax, DWORD PTR [ecx+edx*4]
	mov	DWORD PTR $T224444[ebp], eax
	mov	ecx, DWORD PTR $T224444[ebp]
	mov	edx, DWORD PTR [ecx]
	mov	DWORD PTR $T224064[ebp], edx
	mov	eax, DWORD PTR __Plist$[ebp]
	xor	ecx, ecx
	cmp	eax, DWORD PTR $T224064[ebp]
	sete	cl
	movzx	edx, cl
	test	edx, edx
	je	SHORT $LN6@Insert

; 861  : 			{	// update end iterators if new first bucket element
; 862  : 			_Vec[_Bucket] = _Where;

	mov	eax, DWORD PTR _this$[ebp]
	mov	ecx, DWORD PTR [eax+20]
	mov	edx, DWORD PTR __Bucket$[ebp]
	mov	eax, DWORD PTR __Where$[ebp]
	mov	DWORD PTR [ecx+edx*4], eax

; 863  : 			if (_Bucket == 0)

	cmp	DWORD PTR __Bucket$[ebp], 0
	jne	SHORT $LN5@Insert

; 864  : 				break;

	jmp	SHORT $LN6@Insert
$LN5@Insert:

; 865  : 			}

	jmp	SHORT $LN7@Insert
$LN6@Insert:

; 866  : 
; 867  : 		if (max_load_factor() < load_factor())

	mov	ecx, DWORD PTR _this$[ebp]
	movss	xmm0, DWORD PTR [ecx+40]
	movss	DWORD PTR $T224457[ebp], xmm0
	mov	edx, DWORD PTR _this$[ebp]
	mov	eax, DWORD PTR [edx+12]
	mov	DWORD PTR $T224463[ebp], eax
	mov	ecx, DWORD PTR _this$[ebp]
	mov	edx, DWORD PTR [ecx+36]
	mov	DWORD PTR $T224471[ebp], edx
	mov	eax, DWORD PTR $T224471[ebp]
	mov	DWORD PTR tv648[ebp], eax
	mov	DWORD PTR tv648[ebp+4], 0
	fild	QWORD PTR tv648[ebp]
	mov	ecx, DWORD PTR $T224463[ebp]
	mov	DWORD PTR tv652[ebp], ecx
	mov	DWORD PTR tv652[ebp+4], 0
	fild	QWORD PTR tv652[ebp]
	fdivrp	ST(1), ST(0)
	fld	DWORD PTR $T224457[ebp]
	fxch	ST(1)
	fcomip	ST(1)
	fstp	ST(0)
	jbe	$LN4@Insert

; 868  :  #if _HAS_INCREMENTAL_HASH
; 869  : 			_Grow();	// too dense, need to grow hash table
; 870  : 
; 871  :  #else /* _HAS_INCREMENTAL_HASH */
; 872  : 			{	// rehash to bigger table
; 873  : 			size_type _Maxsize = _Vec.max_size() / 2;

	mov	DWORD PTR __Count$224494[ebp], 1073741823 ; 3fffffffH
	cmp	DWORD PTR __Count$224494[ebp], 0
	jbe	SHORT $LN209@Insert
	mov	edx, DWORD PTR __Count$224494[ebp]
	mov	DWORD PTR tv372[ebp], edx
	jmp	SHORT $LN210@Insert
$LN209@Insert:
	mov	DWORD PTR tv372[ebp], 1
$LN210@Insert:
	mov	eax, DWORD PTR tv372[ebp]
	shr	eax, 1
	mov	DWORD PTR __Maxsize$217370[ebp], eax

; 874  : 			size_type _Newsize = bucket_count();

	mov	ecx, DWORD PTR _this$[ebp]
	mov	edx, DWORD PTR [ecx+36]
	mov	DWORD PTR __Newsize$217371[ebp], edx

; 875  : 
; 876  : 			for (int _Idx = 0; _Idx < 3 && _Newsize < _Maxsize; ++_Idx)

	mov	DWORD PTR __Idx$217372[ebp], 0
	jmp	SHORT $LN3@Insert
$LN2@Insert:
	mov	eax, DWORD PTR __Idx$217372[ebp]
	add	eax, 1
	mov	DWORD PTR __Idx$217372[ebp], eax
$LN3@Insert:
