; Listing generated by Microsoft (R) Optimizing Compiler Version 15.00.30729.01 

	TITLE	D:\sources\Lekmod_git\checkout\LEKMOD_DLL\CvGameCoreDLL_Expansion2\CvDllResourceInfo.cpp
	.686P
	.XMM
	include listing.inc
	.model	flat

INCLUDELIB MSVCRT
INCLUDELIB OLDNAMES

PUBLIC	??_C@_05OCFELOIJ@1?40?40?$AA@			; `string'
CONST	SEGMENT
_guidICvUnknown DD 0d89ba82fH
	DW	09fa3H
	DW	04696H
	DB	0b3H
	DB	0f4H
	DB	052H
	DB	0bdH
	DB	0b1H
	DB	01H
	DB	0cfH
	DB	0b2H
_guidICvResourceInfo1 DD 020415753H
	DW	0638dH
	DW	04a6dH
	DB	092H
	DB	02fH
	DB	08aH
	DB	09dH
	DB	011H
	DB	0f6H
	DB	00H
	DB	08eH
CONST	ENDS
_DATA	SEGMENT
_CIV5_XP2_DLL_VERSION DD FLAT:??_C@_05OCFELOIJ@1?40?40?$AA@
_DATA	ENDS
;	COMDAT ??_C@_05OCFELOIJ@1?40?40?$AA@
CONST	SEGMENT
??_C@_05OCFELOIJ@1?40?40?$AA@ DB '1.0.0', 00H		; `string'
CONST	ENDS
PUBLIC	??_7CvDllResourceInfo@@6B@			; CvDllResourceInfo::`vftable'
PUBLIC	??_7ICvResourceInfo1@@6B@			; ICvResourceInfo1::`vftable'
PUBLIC	??_7ICvUnknown@@6B@				; ICvUnknown::`vftable'
PUBLIC	??0CvDllResourceInfo@@QAE@PAVCvResourceInfo@@@Z	; CvDllResourceInfo::CvDllResourceInfo
PUBLIC	?QueryInterface@CvDllResourceInfo@@UAGPAXU_GUID@@@Z ; CvDllResourceInfo::QueryInterface
PUBLIC	?Destroy@CvDllResourceInfo@@EAGXXZ		; CvDllResourceInfo::Destroy
PUBLIC	?GetType@CvDllResourceInfo@@UAGPBDXZ		; CvDllResourceInfo::GetType
PUBLIC	?GetDescription@CvDllResourceInfo@@UAGPBDXZ	; CvDllResourceInfo::GetDescription
PUBLIC	?GetResourceClassType@CvDllResourceInfo@@UAGHXZ	; CvDllResourceInfo::GetResourceClassType
PUBLIC	?GetResourceUsage@CvDllResourceInfo@@UAG?AW4ResourceUsageTypes@@XZ ; CvDllResourceInfo::GetResourceUsage
PUBLIC	?GetIconString@CvDllResourceInfo@@UAGPBDXZ	; CvDllResourceInfo::GetIconString
PUBLIC	?GetArtDefineTag@CvDllResourceInfo@@UAGPBDXZ	; CvDllResourceInfo::GetArtDefineTag
PUBLIC	?GetArtDefineTagHeavy@CvDllResourceInfo@@UAGPBDXZ ; CvDllResourceInfo::GetArtDefineTagHeavy
PUBLIC	?GetAltArtDefineTag@CvDllResourceInfo@@UAGPBDXZ	; CvDllResourceInfo::GetAltArtDefineTag
PUBLIC	?GetAltArtDefineTagHeavy@CvDllResourceInfo@@UAGPBDXZ ; CvDllResourceInfo::GetAltArtDefineTagHeavy
PUBLIC	?IsTerrain@CvDllResourceInfo@@UAG_NH@Z		; CvDllResourceInfo::IsTerrain
PUBLIC	?IsFeature@CvDllResourceInfo@@UAG_NH@Z		; CvDllResourceInfo::IsFeature
PUBLIC	?IsFeatureTerrain@CvDllResourceInfo@@UAG_NH@Z	; CvDllResourceInfo::IsFeatureTerrain
EXTRN	__purecall:PROC
;	COMDAT ??_7CvDllResourceInfo@@6B@
; File d:\sources\lekmod_git\checkout\lekmod_dll\cvgamecoredll_expansion2\cvdllresourceinfo.cpp
CONST	SEGMENT
??_7CvDllResourceInfo@@6B@ DD FLAT:?QueryInterface@CvDllResourceInfo@@UAGPAXU_GUID@@@Z ; CvDllResourceInfo::`vftable'
	DD	FLAT:?Destroy@CvDllResourceInfo@@EAGXXZ
	DD	FLAT:?GetType@CvDllResourceInfo@@UAGPBDXZ
	DD	FLAT:?GetDescription@CvDllResourceInfo@@UAGPBDXZ
	DD	FLAT:?GetResourceClassType@CvDllResourceInfo@@UAGHXZ
	DD	FLAT:?GetResourceUsage@CvDllResourceInfo@@UAG?AW4ResourceUsageTypes@@XZ
	DD	FLAT:?GetIconString@CvDllResourceInfo@@UAGPBDXZ
	DD	FLAT:?GetArtDefineTag@CvDllResourceInfo@@UAGPBDXZ
	DD	FLAT:?GetArtDefineTagHeavy@CvDllResourceInfo@@UAGPBDXZ
	DD	FLAT:?GetAltArtDefineTag@CvDllResourceInfo@@UAGPBDXZ
	DD	FLAT:?GetAltArtDefineTagHeavy@CvDllResourceInfo@@UAGPBDXZ
	DD	FLAT:?IsTerrain@CvDllResourceInfo@@UAG_NH@Z
	DD	FLAT:?IsFeature@CvDllResourceInfo@@UAG_NH@Z
	DD	FLAT:?IsFeatureTerrain@CvDllResourceInfo@@UAG_NH@Z
CONST	ENDS
;	COMDAT ??_7ICvResourceInfo1@@6B@
CONST	SEGMENT
??_7ICvResourceInfo1@@6B@ DD FLAT:__purecall		; ICvResourceInfo1::`vftable'
	DD	FLAT:__purecall
	DD	FLAT:__purecall
	DD	FLAT:__purecall
	DD	FLAT:__purecall
	DD	FLAT:__purecall
	DD	FLAT:__purecall
	DD	FLAT:__purecall
	DD	FLAT:__purecall
	DD	FLAT:__purecall
	DD	FLAT:__purecall
	DD	FLAT:__purecall
	DD	FLAT:__purecall
	DD	FLAT:__purecall
CONST	ENDS
;	COMDAT ??_7ICvUnknown@@6B@
CONST	SEGMENT
??_7ICvUnknown@@6B@ DD FLAT:__purecall			; ICvUnknown::`vftable'
	DD	FLAT:__purecall
; Function compile flags: /Odtp
CONST	ENDS
;	COMDAT ??0CvDllResourceInfo@@QAE@PAVCvResourceInfo@@@Z
_TEXT	SEGMENT
_this$ = -4						; size = 4
_pResourceInfo$ = 8					; size = 4
??0CvDllResourceInfo@@QAE@PAVCvResourceInfo@@@Z PROC	; CvDllResourceInfo::CvDllResourceInfo, COMDAT
; _this$ = ecx

; 19   : {

	push	ebp
	mov	ebp, esp
	push	ecx
	mov	DWORD PTR _this$[ebp], ecx
	mov	eax, DWORD PTR _this$[ebp]
	mov	DWORD PTR [eax], OFFSET ??_7ICvUnknown@@6B@
	mov	ecx, DWORD PTR _this$[ebp]
	mov	DWORD PTR [ecx], OFFSET ??_7ICvResourceInfo1@@6B@
	mov	edx, DWORD PTR _this$[ebp]
	mov	DWORD PTR [edx], OFFSET ??_7CvDllResourceInfo@@6B@
	mov	eax, DWORD PTR _this$[ebp]
	mov	DWORD PTR [eax+4], 1
	mov	ecx, DWORD PTR _this$[ebp]
	mov	edx, DWORD PTR _pResourceInfo$[ebp]
	mov	DWORD PTR [ecx+8], edx

; 20   : 	FAssertMsg(pResourceInfo != NULL, "SHOULD NOT HAPPEN");
; 21   : }

	mov	eax, DWORD PTR _this$[ebp]
	mov	esp, ebp
	pop	ebp
	ret	4
??0CvDllResourceInfo@@QAE@PAVCvResourceInfo@@@Z ENDP	; CvDllResourceInfo::CvDllResourceInfo
_TEXT	ENDS
PUBLIC	??1CvDllResourceInfo@@QAE@XZ			; CvDllResourceInfo::~CvDllResourceInfo
; Function compile flags: /Odtp
;	COMDAT ??1CvDllResourceInfo@@QAE@XZ
_TEXT	SEGMENT
_this$ = -4						; size = 4
??1CvDllResourceInfo@@QAE@XZ PROC			; CvDllResourceInfo::~CvDllResourceInfo, COMDAT
; _this$ = ecx

; 24   : {

	push	ebp
	mov	ebp, esp
	push	ecx
	mov	DWORD PTR _this$[ebp], ecx
	mov	eax, DWORD PTR _this$[ebp]
	mov	DWORD PTR [eax], OFFSET ??_7CvDllResourceInfo@@6B@

; 25   : }

	mov	esp, ebp
	pop	ebp
	ret	0
??1CvDllResourceInfo@@QAE@XZ ENDP			; CvDllResourceInfo::~CvDllResourceInfo
_TEXT	ENDS
PUBLIC	?IncrementReference@CvDllResourceInfo@@QAEIXZ	; CvDllResourceInfo::IncrementReference
; Function compile flags: /Odtp
;	COMDAT ?QueryInterface@CvDllResourceInfo@@UAGPAXU_GUID@@@Z
_TEXT	SEGMENT
tv90 = -88						; size = 4
tv161 = -84						; size = 4
tv85 = -80						; size = 4
tv137 = -76						; size = 4
$T218018 = -72						; size = 16
$T218017 = -56						; size = 16
$T218016 = -40						; size = 16
$T218015 = -20						; size = 16
_this$ = 8						; size = 4
_guidInterface$ = 12					; size = 16
?QueryInterface@CvDllResourceInfo@@UAGPAXU_GUID@@@Z PROC ; CvDllResourceInfo::QueryInterface, COMDAT

; 28   : {

	push	ebp
	mov	ebp, esp
	sub	esp, 88					; 00000058H
	push	esi
	push	edi

; 29   : 	if(guidInterface == ICvUnknown::GetInterfaceId() ||
; 30   : 	        guidInterface == ICvResourceInfo1::GetInterfaceId())

	mov	eax, DWORD PTR _guidICvUnknown
	mov	DWORD PTR $T218016[ebp], eax
	mov	ecx, DWORD PTR _guidICvUnknown+4
	mov	DWORD PTR $T218016[ebp+4], ecx
	mov	edx, DWORD PTR _guidICvUnknown+8
	mov	DWORD PTR $T218016[ebp+8], edx
	mov	eax, DWORD PTR _guidICvUnknown+12
	mov	DWORD PTR $T218016[ebp+12], eax
	mov	ecx, DWORD PTR $T218016[ebp]
	mov	DWORD PTR $T218015[ebp], ecx
	mov	edx, DWORD PTR $T218016[ebp+4]
	mov	DWORD PTR $T218015[ebp+4], edx
	mov	eax, DWORD PTR $T218016[ebp+8]
	mov	DWORD PTR $T218015[ebp+8], eax
	mov	ecx, DWORD PTR $T218016[ebp+12]
	mov	DWORD PTR $T218015[ebp+12], ecx
	mov	ecx, 16					; 00000010H
	lea	edi, DWORD PTR $T218015[ebp]
	lea	esi, DWORD PTR _guidInterface$[ebp]
	xor	edx, edx
	mov	DWORD PTR tv137[ebp], edx
	repe cmpsb
	je	SHORT $LN17@QueryInter
	sbb	eax, eax
	sbb	eax, -1
	mov	DWORD PTR tv137[ebp], eax
$LN17@QueryInter:
	mov	ecx, DWORD PTR tv137[ebp]
	mov	DWORD PTR tv85[ebp], ecx
	xor	edx, edx
	cmp	DWORD PTR tv85[ebp], 0
	sete	dl
	test	edx, edx
	jne	SHORT $LN1@QueryInter
	mov	eax, DWORD PTR _guidICvResourceInfo1
	mov	DWORD PTR $T218018[ebp], eax
	mov	ecx, DWORD PTR _guidICvResourceInfo1+4
	mov	DWORD PTR $T218018[ebp+4], ecx
	mov	edx, DWORD PTR _guidICvResourceInfo1+8
	mov	DWORD PTR $T218018[ebp+8], edx
	mov	eax, DWORD PTR _guidICvResourceInfo1+12
	mov	DWORD PTR $T218018[ebp+12], eax
	mov	ecx, DWORD PTR $T218018[ebp]
	mov	DWORD PTR $T218017[ebp], ecx
	mov	edx, DWORD PTR $T218018[ebp+4]
	mov	DWORD PTR $T218017[ebp+4], edx
	mov	eax, DWORD PTR $T218018[ebp+8]
	mov	DWORD PTR $T218017[ebp+8], eax
	mov	ecx, DWORD PTR $T218018[ebp+12]
	mov	DWORD PTR $T218017[ebp+12], ecx
	mov	ecx, 16					; 00000010H
	lea	edi, DWORD PTR $T218017[ebp]
	lea	esi, DWORD PTR _guidInterface$[ebp]
	xor	edx, edx
	mov	DWORD PTR tv161[ebp], edx
	repe cmpsb
	je	SHORT $LN18@QueryInter
	sbb	eax, eax
	sbb	eax, -1
	mov	DWORD PTR tv161[ebp], eax
$LN18@QueryInter:
	mov	ecx, DWORD PTR tv161[ebp]
	mov	DWORD PTR tv90[ebp], ecx
	xor	edx, edx
	cmp	DWORD PTR tv90[ebp], 0
	sete	dl
	test	edx, edx
	je	SHORT $LN2@QueryInter
$LN1@QueryInter:

; 31   : 	{
; 32   : 		IncrementReference();

	mov	ecx, DWORD PTR _this$[ebp]
	call	?IncrementReference@CvDllResourceInfo@@QAEIXZ ; CvDllResourceInfo::IncrementReference

; 33   : 		return this;

	mov	eax, DWORD PTR _this$[ebp]
	jmp	SHORT $LN3@QueryInter
$LN2@QueryInter:

; 34   : 	}
; 35   : 
; 36   : 	return NULL;

	xor	eax, eax
$LN3@QueryInter:

; 37   : }

	pop	edi
	pop	esi
	mov	esp, ebp
	pop	ebp
	ret	20					; 00000014H
?QueryInterface@CvDllResourceInfo@@UAGPAXU_GUID@@@Z ENDP ; CvDllResourceInfo::QueryInterface
; Function compile flags: /Odtp
_TEXT	ENDS
;	COMDAT ?IncrementReference@CvDllResourceInfo@@QAEIXZ
_TEXT	SEGMENT
_this$ = -4						; size = 4
?IncrementReference@CvDllResourceInfo@@QAEIXZ PROC	; CvDllResourceInfo::IncrementReference, COMDAT
; _this$ = ecx

; 40   : {

	push	ebp
	mov	ebp, esp
	push	ecx
	mov	DWORD PTR _this$[ebp], ecx

; 41   : 	++m_uiRefCount;

	mov	eax, DWORD PTR _this$[ebp]
	mov	ecx, DWORD PTR [eax+4]
	add	ecx, 1
	mov	edx, DWORD PTR _this$[ebp]
	mov	DWORD PTR [edx+4], ecx

; 42   : 	return m_uiRefCount;

	mov	eax, DWORD PTR _this$[ebp]
	mov	eax, DWORD PTR [eax+4]

; 43   : }

	mov	esp, ebp
	pop	ebp
	ret	0
?IncrementReference@CvDllResourceInfo@@QAEIXZ ENDP	; CvDllResourceInfo::IncrementReference
_TEXT	ENDS
PUBLIC	??3CvDllResourceInfo@@SAXPAX@Z			; CvDllResourceInfo::operator delete
PUBLIC	?DecrementReference@CvDllResourceInfo@@QAEIXZ	; CvDllResourceInfo::DecrementReference
; Function compile flags: /Odtp
;	COMDAT ?DecrementReference@CvDllResourceInfo@@QAEIXZ
_TEXT	SEGMENT
tv70 = -16						; size = 4
_this$ = -12						; size = 4
$T218050 = -8						; size = 4
$T218049 = -4						; size = 4
?DecrementReference@CvDllResourceInfo@@QAEIXZ PROC	; CvDllResourceInfo::DecrementReference, COMDAT
; _this$ = ecx

; 46   : {

	push	ebp
	mov	ebp, esp
	sub	esp, 16					; 00000010H
	mov	DWORD PTR _this$[ebp], ecx

; 47   : 	if(m_uiRefCount == 1)

	mov	eax, DWORD PTR _this$[ebp]
	cmp	DWORD PTR [eax+4], 1
	jne	SHORT $LN2@DecrementR

; 48   : 	{
; 49   : 		delete this;

	mov	ecx, DWORD PTR _this$[ebp]
	mov	DWORD PTR $T218050[ebp], ecx
	mov	edx, DWORD PTR $T218050[ebp]
	mov	DWORD PTR $T218049[ebp], edx
	cmp	DWORD PTR $T218049[ebp], 0
	je	SHORT $LN5@DecrementR
	mov	ecx, DWORD PTR $T218049[ebp]
	call	??1CvDllResourceInfo@@QAE@XZ		; CvDllResourceInfo::~CvDllResourceInfo
	mov	eax, 1
	and	eax, 1
	je	SHORT $LN8@DecrementR
	mov	ecx, DWORD PTR $T218049[ebp]
	push	ecx
	call	??3CvDllResourceInfo@@SAXPAX@Z		; CvDllResourceInfo::operator delete
	add	esp, 4
$LN8@DecrementR:
	mov	edx, DWORD PTR $T218049[ebp]
	mov	DWORD PTR tv70[ebp], edx
	jmp	SHORT $LN6@DecrementR
$LN5@DecrementR:
	mov	DWORD PTR tv70[ebp], 0
$LN6@DecrementR:

; 50   : 		return 0;

	xor	eax, eax
	jmp	SHORT $LN3@DecrementR

; 51   : 	}
; 52   : 	else

	jmp	SHORT $LN3@DecrementR
$LN2@DecrementR:

; 53   : 	{
; 54   : 		--m_uiRefCount;

	mov	eax, DWORD PTR _this$[ebp]
	mov	ecx, DWORD PTR [eax+4]
	sub	ecx, 1
	mov	edx, DWORD PTR _this$[ebp]
	mov	DWORD PTR [edx+4], ecx

; 55   : 		return m_uiRefCount;

	mov	eax, DWORD PTR _this$[ebp]
	mov	eax, DWORD PTR [eax+4]
$LN3@DecrementR:

; 56   : 	}
; 57   : }

	mov	esp, ebp
	pop	ebp
	ret	0
?DecrementReference@CvDllResourceInfo@@QAEIXZ ENDP	; CvDllResourceInfo::DecrementReference
_TEXT	ENDS
PUBLIC	?GetReferenceCount@CvDllResourceInfo@@QAEIXZ	; CvDllResourceInfo::GetReferenceCount
; Function compile flags: /Odtp
;	COMDAT ?GetReferenceCount@CvDllResourceInfo@@QAEIXZ
_TEXT	SEGMENT
_this$ = -4						; size = 4
?GetReferenceCount@CvDllResourceInfo@@QAEIXZ PROC	; CvDllResourceInfo::GetReferenceCount, COMDAT
; _this$ = ecx

; 60   : {

	push	ebp
	mov	ebp, esp
	push	ecx
	mov	DWORD PTR _this$[ebp], ecx

; 61   : 	return m_uiRefCount;

	mov	eax, DWORD PTR _this$[ebp]
	mov	eax, DWORD PTR [eax+4]

; 62   : }

	mov	esp, ebp
	pop	ebp
	ret	0
?GetReferenceCount@CvDllResourceInfo@@QAEIXZ ENDP	; CvDllResourceInfo::GetReferenceCount
; Function compile flags: /Odtp
_TEXT	ENDS
;	COMDAT ?Destroy@CvDllResourceInfo@@EAGXXZ
_TEXT	SEGMENT
_this$ = 8						; size = 4
?Destroy@CvDllResourceInfo@@EAGXXZ PROC			; CvDllResourceInfo::Destroy, COMDAT

; 65   : {

	push	ebp
	mov	ebp, esp

; 66   : 	DecrementReference();

	mov	ecx, DWORD PTR _this$[ebp]
	call	?DecrementReference@CvDllResourceInfo@@QAEIXZ ; CvDllResourceInfo::DecrementReference

; 67   : }

	pop	ebp
	ret	4
?Destroy@CvDllResourceInfo@@EAGXXZ ENDP			; CvDllResourceInfo::Destroy
_TEXT	ENDS
EXTRN	?Free@CvDllGameContext@@SAXPAX@Z:PROC		; CvDllGameContext::Free
; Function compile flags: /Odtp
;	COMDAT ??3CvDllResourceInfo@@SAXPAX@Z
_TEXT	SEGMENT
_p$ = 8							; size = 4
??3CvDllResourceInfo@@SAXPAX@Z PROC			; CvDllResourceInfo::operator delete, COMDAT

; 70   : {

	push	ebp
	mov	ebp, esp

; 71   : 	CvDllGameContext::Free(p);

	mov	eax, DWORD PTR _p$[ebp]
	push	eax
	call	?Free@CvDllGameContext@@SAXPAX@Z	; CvDllGameContext::Free
	add	esp, 4

; 72   : }

	pop	ebp
	ret	0
??3CvDllResourceInfo@@SAXPAX@Z ENDP			; CvDllResourceInfo::operator delete
_TEXT	ENDS
PUBLIC	??2CvDllResourceInfo@@SAPAXI@Z			; CvDllResourceInfo::operator new
EXTRN	?Allocate@CvDllGameContext@@SAPAXI@Z:PROC	; CvDllGameContext::Allocate
; Function compile flags: /Odtp
;	COMDAT ??2CvDllResourceInfo@@SAPAXI@Z
_TEXT	SEGMENT
_bytes$ = 8						; size = 4
??2CvDllResourceInfo@@SAPAXI@Z PROC			; CvDllResourceInfo::operator new, COMDAT

; 75   : {

	push	ebp
	mov	ebp, esp

; 76   : 	return CvDllGameContext::Allocate(bytes);

	mov	eax, DWORD PTR _bytes$[ebp]
	push	eax
	call	?Allocate@CvDllGameContext@@SAPAXI@Z	; CvDllGameContext::Allocate
	add	esp, 4

; 77   : }

	pop	ebp
	ret	0
??2CvDllResourceInfo@@SAPAXI@Z ENDP			; CvDllResourceInfo::operator new
_TEXT	ENDS
PUBLIC	?GetInstance@CvDllResourceInfo@@QAEPAVCvResourceInfo@@XZ ; CvDllResourceInfo::GetInstance
; Function compile flags: /Odtp
;	COMDAT ?GetInstance@CvDllResourceInfo@@QAEPAVCvResourceInfo@@XZ
_TEXT	SEGMENT
_this$ = -4						; size = 4
?GetInstance@CvDllResourceInfo@@QAEPAVCvResourceInfo@@XZ PROC ; CvDllResourceInfo::GetInstance, COMDAT
; _this$ = ecx

; 80   : {

	push	ebp
	mov	ebp, esp
	push	ecx
	mov	DWORD PTR _this$[ebp], ecx

; 81   : 	return m_pResourceInfo;

	mov	eax, DWORD PTR _this$[ebp]
	mov	eax, DWORD PTR [eax+8]

; 82   : }

	mov	esp, ebp
	pop	ebp
	ret	0
?GetInstance@CvDllResourceInfo@@QAEPAVCvResourceInfo@@XZ ENDP ; CvDllResourceInfo::GetInstance
_TEXT	ENDS
EXTRN	__imp_?c_str@?$basic_string@DU?$char_traits@D@std@@V?$allocator@D@2@@std@@QBEPBDXZ:PROC
; Function compile flags: /Odtp
;	COMDAT ?GetType@CvDllResourceInfo@@UAGPBDXZ
_TEXT	SEGMENT
$T218072 = -4						; size = 4
_this$ = 8						; size = 4
?GetType@CvDllResourceInfo@@UAGPBDXZ PROC		; CvDllResourceInfo::GetType, COMDAT

; 85   : {

	push	ebp
	mov	ebp, esp
	push	ecx

; 86   : 	return m_pResourceInfo->GetType();

	mov	eax, DWORD PTR _this$[ebp]
	mov	ecx, DWORD PTR [eax+8]
	mov	DWORD PTR $T218072[ebp], ecx
	mov	ecx, DWORD PTR $T218072[ebp]
	add	ecx, 176				; 000000b0H
	call	DWORD PTR __imp_?c_str@?$basic_string@DU?$char_traits@D@std@@V?$allocator@D@2@@std@@QBEPBDXZ

; 87   : }

	mov	esp, ebp
	pop	ebp
	ret	4
?GetType@CvDllResourceInfo@@UAGPBDXZ ENDP		; CvDllResourceInfo::GetType
; Function compile flags: /Odtp
_TEXT	ENDS
;	COMDAT ?GetDescription@CvDllResourceInfo@@UAGPBDXZ
_TEXT	SEGMENT
$T218078 = -4						; size = 4
_this$ = 8						; size = 4
?GetDescription@CvDllResourceInfo@@UAGPBDXZ PROC	; CvDllResourceInfo::GetDescription, COMDAT

; 90   : {

	push	ebp
	mov	ebp, esp
	push	ecx

; 91   : 	return m_pResourceInfo->GetDescription();

	mov	eax, DWORD PTR _this$[ebp]
	mov	ecx, DWORD PTR [eax+8]
	mov	DWORD PTR $T218078[ebp], ecx
	mov	ecx, DWORD PTR $T218078[ebp]
	add	ecx, 36					; 00000024H
	call	DWORD PTR __imp_?c_str@?$basic_string@DU?$char_traits@D@std@@V?$allocator@D@2@@std@@QBEPBDXZ

; 92   : }

	mov	esp, ebp
	pop	ebp
	ret	4
?GetDescription@CvDllResourceInfo@@UAGPBDXZ ENDP	; CvDllResourceInfo::GetDescription
_TEXT	ENDS
EXTRN	?getResourceClassType@CvResourceInfo@@QBEHXZ:PROC ; CvResourceInfo::getResourceClassType
; Function compile flags: /Odtp
;	COMDAT ?GetResourceClassType@CvDllResourceInfo@@UAGHXZ
_TEXT	SEGMENT
_this$ = 8						; size = 4
?GetResourceClassType@CvDllResourceInfo@@UAGHXZ PROC	; CvDllResourceInfo::GetResourceClassType, COMDAT

; 95   : {

	push	ebp
	mov	ebp, esp

; 96   : 	return m_pResourceInfo->getResourceClassType();

	mov	eax, DWORD PTR _this$[ebp]
	mov	ecx, DWORD PTR [eax+8]
	call	?getResourceClassType@CvResourceInfo@@QBEHXZ ; CvResourceInfo::getResourceClassType

; 97   : }

	pop	ebp
	ret	4
?GetResourceClassType@CvDllResourceInfo@@UAGHXZ ENDP	; CvDllResourceInfo::GetResourceClassType
_TEXT	ENDS
EXTRN	?getResourceUsage@CvResourceInfo@@QBE?AW4ResourceUsageTypes@@XZ:PROC ; CvResourceInfo::getResourceUsage
; Function compile flags: /Odtp
;	COMDAT ?GetResourceUsage@CvDllResourceInfo@@UAG?AW4ResourceUsageTypes@@XZ
_TEXT	SEGMENT
_this$ = 8						; size = 4
?GetResourceUsage@CvDllResourceInfo@@UAG?AW4ResourceUsageTypes@@XZ PROC ; CvDllResourceInfo::GetResourceUsage, COMDAT

; 100  : {

	push	ebp
	mov	ebp, esp

; 101  : 	return m_pResourceInfo->getResourceUsage();

	mov	eax, DWORD PTR _this$[ebp]
	mov	ecx, DWORD PTR [eax+8]
	call	?getResourceUsage@CvResourceInfo@@QBE?AW4ResourceUsageTypes@@XZ ; CvResourceInfo::getResourceUsage

; 102  : }

	pop	ebp
	ret	4
?GetResourceUsage@CvDllResourceInfo@@UAG?AW4ResourceUsageTypes@@XZ ENDP ; CvDllResourceInfo::GetResourceUsage
_TEXT	ENDS
EXTRN	?GetIconString@CvResourceInfo@@QBEPBDXZ:PROC	; CvResourceInfo::GetIconString
; Function compile flags: /Odtp
;	COMDAT ?GetIconString@CvDllResourceInfo@@UAGPBDXZ
_TEXT	SEGMENT
_this$ = 8						; size = 4
?GetIconString@CvDllResourceInfo@@UAGPBDXZ PROC		; CvDllResourceInfo::GetIconString, COMDAT

; 105  : {

	push	ebp
	mov	ebp, esp

; 106  : 	return m_pResourceInfo->GetIconString();

	mov	eax, DWORD PTR _this$[ebp]
	mov	ecx, DWORD PTR [eax+8]
	call	?GetIconString@CvResourceInfo@@QBEPBDXZ	; CvResourceInfo::GetIconString

; 107  : }

	pop	ebp
	ret	4
?GetIconString@CvDllResourceInfo@@UAGPBDXZ ENDP		; CvDllResourceInfo::GetIconString
_TEXT	ENDS
EXTRN	?getArtDefineTag@CvResourceInfo@@QBEPBDXZ:PROC	; CvResourceInfo::getArtDefineTag
; Function compile flags: /Odtp
;	COMDAT ?GetArtDefineTag@CvDllResourceInfo@@UAGPBDXZ
_TEXT	SEGMENT
_this$ = 8						; size = 4
?GetArtDefineTag@CvDllResourceInfo@@UAGPBDXZ PROC	; CvDllResourceInfo::GetArtDefineTag, COMDAT

; 110  : {

	push	ebp
	mov	ebp, esp

; 111  : 	return m_pResourceInfo->getArtDefineTag();

	mov	eax, DWORD PTR _this$[ebp]
	mov	ecx, DWORD PTR [eax+8]
	call	?getArtDefineTag@CvResourceInfo@@QBEPBDXZ ; CvResourceInfo::getArtDefineTag

; 112  : }

	pop	ebp
	ret	4
?GetArtDefineTag@CvDllResourceInfo@@UAGPBDXZ ENDP	; CvDllResourceInfo::GetArtDefineTag
_TEXT	ENDS
EXTRN	?getArtDefineTagHeavy@CvResourceInfo@@QBEPBDXZ:PROC ; CvResourceInfo::getArtDefineTagHeavy
; Function compile flags: /Odtp
;	COMDAT ?GetArtDefineTagHeavy@CvDllResourceInfo@@UAGPBDXZ
_TEXT	SEGMENT
_this$ = 8						; size = 4
?GetArtDefineTagHeavy@CvDllResourceInfo@@UAGPBDXZ PROC	; CvDllResourceInfo::GetArtDefineTagHeavy, COMDAT

; 115  : {

	push	ebp
	mov	ebp, esp

; 116  : 	return m_pResourceInfo->getArtDefineTagHeavy();

	mov	eax, DWORD PTR _this$[ebp]
	mov	ecx, DWORD PTR [eax+8]
	call	?getArtDefineTagHeavy@CvResourceInfo@@QBEPBDXZ ; CvResourceInfo::getArtDefineTagHeavy

; 117  : }

	pop	ebp
	ret	4
?GetArtDefineTagHeavy@CvDllResourceInfo@@UAGPBDXZ ENDP	; CvDllResourceInfo::GetArtDefineTagHeavy
_TEXT	ENDS
EXTRN	?getAltArtDefineTag@CvResourceInfo@@QBEPBDXZ:PROC ; CvResourceInfo::getAltArtDefineTag
; Function compile flags: /Odtp
;	COMDAT ?GetAltArtDefineTag@CvDllResourceInfo@@UAGPBDXZ
_TEXT	SEGMENT
_this$ = 8						; size = 4
?GetAltArtDefineTag@CvDllResourceInfo@@UAGPBDXZ PROC	; CvDllResourceInfo::GetAltArtDefineTag, COMDAT

; 120  : {

	push	ebp
	mov	ebp, esp

; 121  : 	return m_pResourceInfo->getAltArtDefineTag();

	mov	eax, DWORD PTR _this$[ebp]
	mov	ecx, DWORD PTR [eax+8]
	call	?getAltArtDefineTag@CvResourceInfo@@QBEPBDXZ ; CvResourceInfo::getAltArtDefineTag

; 122  : }

	pop	ebp
	ret	4
?GetAltArtDefineTag@CvDllResourceInfo@@UAGPBDXZ ENDP	; CvDllResourceInfo::GetAltArtDefineTag
_TEXT	ENDS
EXTRN	?getAltArtDefineTagHeavy@CvResourceInfo@@QBEPBDXZ:PROC ; CvResourceInfo::getAltArtDefineTagHeavy
; Function compile flags: /Odtp
;	COMDAT ?GetAltArtDefineTagHeavy@CvDllResourceInfo@@UAGPBDXZ
_TEXT	SEGMENT
_this$ = 8						; size = 4
?GetAltArtDefineTagHeavy@CvDllResourceInfo@@UAGPBDXZ PROC ; CvDllResourceInfo::GetAltArtDefineTagHeavy, COMDAT

; 125  : {

	push	ebp
	mov	ebp, esp

; 126  : 	return m_pResourceInfo->getAltArtDefineTagHeavy();

	mov	eax, DWORD PTR _this$[ebp]
	mov	ecx, DWORD PTR [eax+8]
	call	?getAltArtDefineTagHeavy@CvResourceInfo@@QBEPBDXZ ; CvResourceInfo::getAltArtDefineTagHeavy

; 127  : }

	pop	ebp
	ret	4
?GetAltArtDefineTagHeavy@CvDllResourceInfo@@UAGPBDXZ ENDP ; CvDllResourceInfo::GetAltArtDefineTagHeavy
_TEXT	ENDS
EXTRN	?isTerrain@CvResourceInfo@@QBE_NH@Z:PROC	; CvResourceInfo::isTerrain
; Function compile flags: /Odtp
;	COMDAT ?IsTerrain@CvDllResourceInfo@@UAG_NH@Z
_TEXT	SEGMENT
_this$ = 8						; size = 4
_i$ = 12						; size = 4
?IsTerrain@CvDllResourceInfo@@UAG_NH@Z PROC		; CvDllResourceInfo::IsTerrain, COMDAT

; 130  : {

	push	ebp
	mov	ebp, esp

; 131  : 	return m_pResourceInfo->isTerrain(i);

	mov	eax, DWORD PTR _i$[ebp]
	push	eax
	mov	ecx, DWORD PTR _this$[ebp]
	mov	ecx, DWORD PTR [ecx+8]
	call	?isTerrain@CvResourceInfo@@QBE_NH@Z	; CvResourceInfo::isTerrain

; 132  : }

	pop	ebp
	ret	8
?IsTerrain@CvDllResourceInfo@@UAG_NH@Z ENDP		; CvDllResourceInfo::IsTerrain
_TEXT	ENDS
EXTRN	?isFeature@CvResourceInfo@@QBE_NH@Z:PROC	; CvResourceInfo::isFeature
; Function compile flags: /Odtp
;	COMDAT ?IsFeature@CvDllResourceInfo@@UAG_NH@Z
_TEXT	SEGMENT
_this$ = 8						; size = 4
_i$ = 12						; size = 4
?IsFeature@CvDllResourceInfo@@UAG_NH@Z PROC		; CvDllResourceInfo::IsFeature, COMDAT

; 135  : {

	push	ebp
	mov	ebp, esp

; 136  : 	return m_pResourceInfo->isFeature(i);

	mov	eax, DWORD PTR _i$[ebp]
	push	eax
	mov	ecx, DWORD PTR _this$[ebp]
	mov	ecx, DWORD PTR [ecx+8]
	call	?isFeature@CvResourceInfo@@QBE_NH@Z	; CvResourceInfo::isFeature

; 137  : }

	pop	ebp
	ret	8
?IsFeature@CvDllResourceInfo@@UAG_NH@Z ENDP		; CvDllResourceInfo::IsFeature
_TEXT	ENDS
EXTRN	?isFeatureTerrain@CvResourceInfo@@QBE_NH@Z:PROC	; CvResourceInfo::isFeatureTerrain
; Function compile flags: /Odtp
;	COMDAT ?IsFeatureTerrain@CvDllResourceInfo@@UAG_NH@Z
_TEXT	SEGMENT
_this$ = 8						; size = 4
_i$ = 12						; size = 4
?IsFeatureTerrain@CvDllResourceInfo@@UAG_NH@Z PROC	; CvDllResourceInfo::IsFeatureTerrain, COMDAT

; 140  : {

	push	ebp
	mov	ebp, esp

; 141  : 	return m_pResourceInfo->isFeatureTerrain(i);

	mov	eax, DWORD PTR _i$[ebp]
	push	eax
	mov	ecx, DWORD PTR _this$[ebp]
	mov	ecx, DWORD PTR [ecx+8]
	call	?isFeatureTerrain@CvResourceInfo@@QBE_NH@Z ; CvResourceInfo::isFeatureTerrain

; 142  : }

	pop	ebp
	ret	8
?IsFeatureTerrain@CvDllResourceInfo@@UAG_NH@Z ENDP	; CvDllResourceInfo::IsFeatureTerrain
_TEXT	ENDS
END
