; Listing generated by Microsoft (R) Optimizing Compiler Version 15.00.30729.01 

	TITLE	D:\sources\Lekmod_git\checkout\LEKMOD_DLL\CvGameCoreDLL_Expansion2\CvDllWorldBuilderMapLoader.cpp
	.686P
	.XMM
	include listing.inc
	.model	flat

INCLUDELIB MSVCRT
INCLUDELIB OLDNAMES

PUBLIC	??_C@_05OCFELOIJ@1?40?40?$AA@			; `string'
CONST	SEGMENT
_guidICvUnknown DD 0d89ba82fH
	DW	09fa3H
	DW	04696H
	DB	0b3H
	DB	0f4H
	DB	052H
	DB	0bdH
	DB	0b1H
	DB	01H
	DB	0cfH
	DB	0b2H
_guidICvWorldBuilderMapLoader1 DD 039474804H
	DW	014f7H
	DW	044e3H
	DB	0b5H
	DB	051H
	DB	0a2H
	DB	049H
	DB	08dH
	DB	0caH
	DB	0d1H
	DB	01cH
_guidICvWorldBuilderMapLoader2 DD 06f009d2aH
	DW	0247eH
	DW	04818H
	DB	0acH
	DB	01cH
	DB	051H
	DB	097H
	DB	0a8H
	DB	0a7H
	DB	095H
	DB	059H
CONST	ENDS
_DATA	SEGMENT
_CIV5_XP2_DLL_VERSION DD FLAT:??_C@_05OCFELOIJ@1?40?40?$AA@
_DATA	ENDS
;	COMDAT ??_C@_05OCFELOIJ@1?40?40?$AA@
CONST	SEGMENT
??_C@_05OCFELOIJ@1?40?40?$AA@ DB '1.0.0', 00H		; `string'
CONST	ENDS
PUBLIC	??_7CvDllWorldBuilderMapLoader@@6B@		; CvDllWorldBuilderMapLoader::`vftable'
PUBLIC	??_7ICvWorldBuilderMapLoader2@@6B@		; ICvWorldBuilderMapLoader2::`vftable'
PUBLIC	??_7ICvWorldBuilderMapLoader1@@6B@		; ICvWorldBuilderMapLoader1::`vftable'
PUBLIC	??_7ICvUnknown@@6B@				; ICvUnknown::`vftable'
PUBLIC	??0CvDllWorldBuilderMapLoader@@QAE@XZ		; CvDllWorldBuilderMapLoader::CvDllWorldBuilderMapLoader
PUBLIC	?QueryInterface@CvDllWorldBuilderMapLoader@@UAGPAXU_GUID@@@Z ; CvDllWorldBuilderMapLoader::QueryInterface
PUBLIC	?Destroy@CvDllWorldBuilderMapLoader@@EAGXXZ	; CvDllWorldBuilderMapLoader::Destroy
PUBLIC	?GetCurrentMapInfo@CvDllWorldBuilderMapLoader@@UAGABUCvWorldBuilderMapLoaderMapInfo@@XZ ; CvDllWorldBuilderMapLoader::GetCurrentMapInfo
PUBLIC	?Preload@CvDllWorldBuilderMapLoader@@UAG_NPB_W_N@Z ; CvDllWorldBuilderMapLoader::Preload
PUBLIC	?SetupGameOptions@CvDllWorldBuilderMapLoader@@UAGXXZ ; CvDllWorldBuilderMapLoader::SetupGameOptions
PUBLIC	?SetupPlayers@CvDllWorldBuilderMapLoader@@UAGXXZ ; CvDllWorldBuilderMapLoader::SetupPlayers
PUBLIC	?SetInitialItems@CvDllWorldBuilderMapLoader@@UAGX_N@Z ; CvDllWorldBuilderMapLoader::SetInitialItems
PUBLIC	?InitMap@CvDllWorldBuilderMapLoader@@UAG_NXZ	; CvDllWorldBuilderMapLoader::InitMap
PUBLIC	?Save@CvDllWorldBuilderMapLoader@@UAG_NPB_WPBD@Z ; CvDllWorldBuilderMapLoader::Save
PUBLIC	?LoadModData@CvDllWorldBuilderMapLoader@@UAGHPAUlua_State@@@Z ; CvDllWorldBuilderMapLoader::LoadModData
PUBLIC	?ValidateTerrain@CvDllWorldBuilderMapLoader@@UAGXXZ ; CvDllWorldBuilderMapLoader::ValidateTerrain
PUBLIC	?ValidateCoast@CvDllWorldBuilderMapLoader@@UAGXXZ ; CvDllWorldBuilderMapLoader::ValidateCoast
PUBLIC	?ClearResources@CvDllWorldBuilderMapLoader@@UAGXXZ ; CvDllWorldBuilderMapLoader::ClearResources
PUBLIC	?ClearGoodies@CvDllWorldBuilderMapLoader@@UAGXXZ ; CvDllWorldBuilderMapLoader::ClearGoodies
PUBLIC	?ResetPlayerSlots@CvDllWorldBuilderMapLoader@@UAGXXZ ; CvDllWorldBuilderMapLoader::ResetPlayerSlots
PUBLIC	?MapPlayerToSlot@CvDllWorldBuilderMapLoader@@UAGXIW4PlayerTypes@@@Z ; CvDllWorldBuilderMapLoader::MapPlayerToSlot
PUBLIC	?PreviewPlayableCivCount@CvDllWorldBuilderMapLoader@@UAGIPB_W@Z ; CvDllWorldBuilderMapLoader::PreviewPlayableCivCount
PUBLIC	?GetMapPreview@CvDllWorldBuilderMapLoader@@UAGHPAUlua_State@@@Z ; CvDllWorldBuilderMapLoader::GetMapPreview
PUBLIC	?GetMapPlayers@CvDllWorldBuilderMapLoader@@UAGHPAUlua_State@@@Z ; CvDllWorldBuilderMapLoader::GetMapPlayers
PUBLIC	?AddRandomItems@CvDllWorldBuilderMapLoader@@UAGHPAUlua_State@@@Z ; CvDllWorldBuilderMapLoader::AddRandomItems
PUBLIC	?ScatterResources@CvDllWorldBuilderMapLoader@@UAGHPAUlua_State@@@Z ; CvDllWorldBuilderMapLoader::ScatterResources
PUBLIC	?ScatterGoodies@CvDllWorldBuilderMapLoader@@UAGHPAUlua_State@@@Z ; CvDllWorldBuilderMapLoader::ScatterGoodies
PUBLIC	?GetMapPlayerSlot@CvDllWorldBuilderMapLoader@@UAG?AW4PlayerTypes@@I@Z ; CvDllWorldBuilderMapLoader::GetMapPlayerSlot
PUBLIC	?GetMapPlayerCount@CvDllWorldBuilderMapLoader@@UAGHXZ ; CvDllWorldBuilderMapLoader::GetMapPlayerCount
PUBLIC	?GenerateRandomMap@CvDllWorldBuilderMapLoader@@UAGXPBD@Z ; CvDllWorldBuilderMapLoader::GenerateRandomMap
PUBLIC	?GetWorldSizeType@CvDllWorldBuilderMapLoader@@UBG?AW4WorldSizeTypes@@XZ ; CvDllWorldBuilderMapLoader::GetWorldSizeType
EXTRN	__purecall:PROC
;	COMDAT ??_7CvDllWorldBuilderMapLoader@@6B@
; File d:\sources\lekmod_git\checkout\lekmod_dll\cvgamecoredll_expansion2\cvdllworldbuildermaploader.cpp
CONST	SEGMENT
??_7CvDllWorldBuilderMapLoader@@6B@ DD FLAT:?QueryInterface@CvDllWorldBuilderMapLoader@@UAGPAXU_GUID@@@Z ; CvDllWorldBuilderMapLoader::`vftable'
	DD	FLAT:?Destroy@CvDllWorldBuilderMapLoader@@EAGXXZ
	DD	FLAT:?GetCurrentMapInfo@CvDllWorldBuilderMapLoader@@UAGABUCvWorldBuilderMapLoaderMapInfo@@XZ
	DD	FLAT:?Preload@CvDllWorldBuilderMapLoader@@UAG_NPB_W_N@Z
	DD	FLAT:?SetupGameOptions@CvDllWorldBuilderMapLoader@@UAGXXZ
	DD	FLAT:?SetupPlayers@CvDllWorldBuilderMapLoader@@UAGXXZ
	DD	FLAT:?SetInitialItems@CvDllWorldBuilderMapLoader@@UAGX_N@Z
	DD	FLAT:?InitMap@CvDllWorldBuilderMapLoader@@UAG_NXZ
	DD	FLAT:?Save@CvDllWorldBuilderMapLoader@@UAG_NPB_WPBD@Z
	DD	FLAT:?LoadModData@CvDllWorldBuilderMapLoader@@UAGHPAUlua_State@@@Z
	DD	FLAT:?ValidateTerrain@CvDllWorldBuilderMapLoader@@UAGXXZ
	DD	FLAT:?ValidateCoast@CvDllWorldBuilderMapLoader@@UAGXXZ
	DD	FLAT:?ClearResources@CvDllWorldBuilderMapLoader@@UAGXXZ
	DD	FLAT:?ClearGoodies@CvDllWorldBuilderMapLoader@@UAGXXZ
	DD	FLAT:?ResetPlayerSlots@CvDllWorldBuilderMapLoader@@UAGXXZ
	DD	FLAT:?MapPlayerToSlot@CvDllWorldBuilderMapLoader@@UAGXIW4PlayerTypes@@@Z
	DD	FLAT:?PreviewPlayableCivCount@CvDllWorldBuilderMapLoader@@UAGIPB_W@Z
	DD	FLAT:?GetMapPreview@CvDllWorldBuilderMapLoader@@UAGHPAUlua_State@@@Z
	DD	FLAT:?GetMapPlayers@CvDllWorldBuilderMapLoader@@UAGHPAUlua_State@@@Z
	DD	FLAT:?AddRandomItems@CvDllWorldBuilderMapLoader@@UAGHPAUlua_State@@@Z
	DD	FLAT:?ScatterResources@CvDllWorldBuilderMapLoader@@UAGHPAUlua_State@@@Z
	DD	FLAT:?ScatterGoodies@CvDllWorldBuilderMapLoader@@UAGHPAUlua_State@@@Z
	DD	FLAT:?GetMapPlayerSlot@CvDllWorldBuilderMapLoader@@UAG?AW4PlayerTypes@@I@Z
	DD	FLAT:?GetMapPlayerCount@CvDllWorldBuilderMapLoader@@UAGHXZ
	DD	FLAT:?GenerateRandomMap@CvDllWorldBuilderMapLoader@@UAGXPBD@Z
	DD	FLAT:?GetWorldSizeType@CvDllWorldBuilderMapLoader@@UBG?AW4WorldSizeTypes@@XZ
CONST	ENDS
;	COMDAT ??_7ICvWorldBuilderMapLoader2@@6B@
CONST	SEGMENT
??_7ICvWorldBuilderMapLoader2@@6B@ DD FLAT:__purecall	; ICvWorldBuilderMapLoader2::`vftable'
	DD	FLAT:__purecall
	DD	FLAT:__purecall
	DD	FLAT:__purecall
	DD	FLAT:__purecall
	DD	FLAT:__purecall
	DD	FLAT:__purecall
	DD	FLAT:__purecall
	DD	FLAT:__purecall
	DD	FLAT:__purecall
	DD	FLAT:__purecall
	DD	FLAT:__purecall
	DD	FLAT:__purecall
	DD	FLAT:__purecall
	DD	FLAT:__purecall
	DD	FLAT:__purecall
	DD	FLAT:__purecall
	DD	FLAT:__purecall
	DD	FLAT:__purecall
	DD	FLAT:__purecall
	DD	FLAT:__purecall
	DD	FLAT:__purecall
	DD	FLAT:__purecall
	DD	FLAT:__purecall
	DD	FLAT:__purecall
	DD	FLAT:__purecall
CONST	ENDS
;	COMDAT ??_7ICvWorldBuilderMapLoader1@@6B@
CONST	SEGMENT
??_7ICvWorldBuilderMapLoader1@@6B@ DD FLAT:__purecall	; ICvWorldBuilderMapLoader1::`vftable'
	DD	FLAT:__purecall
	DD	FLAT:__purecall
	DD	FLAT:__purecall
	DD	FLAT:__purecall
	DD	FLAT:__purecall
	DD	FLAT:__purecall
	DD	FLAT:__purecall
	DD	FLAT:__purecall
	DD	FLAT:__purecall
	DD	FLAT:__purecall
	DD	FLAT:__purecall
	DD	FLAT:__purecall
	DD	FLAT:__purecall
	DD	FLAT:__purecall
	DD	FLAT:__purecall
	DD	FLAT:__purecall
	DD	FLAT:__purecall
	DD	FLAT:__purecall
	DD	FLAT:__purecall
	DD	FLAT:__purecall
	DD	FLAT:__purecall
	DD	FLAT:__purecall
	DD	FLAT:__purecall
	DD	FLAT:__purecall
CONST	ENDS
;	COMDAT ??_7ICvUnknown@@6B@
CONST	SEGMENT
??_7ICvUnknown@@6B@ DD FLAT:__purecall			; ICvUnknown::`vftable'
	DD	FLAT:__purecall
; Function compile flags: /Odtp
CONST	ENDS
;	COMDAT ??0CvDllWorldBuilderMapLoader@@QAE@XZ
_TEXT	SEGMENT
_this$ = -4						; size = 4
??0CvDllWorldBuilderMapLoader@@QAE@XZ PROC		; CvDllWorldBuilderMapLoader::CvDllWorldBuilderMapLoader, COMDAT
; _this$ = ecx

; 17   : {

	push	ebp
	mov	ebp, esp
	push	ecx
	mov	DWORD PTR _this$[ebp], ecx
	mov	eax, DWORD PTR _this$[ebp]
	mov	DWORD PTR [eax], OFFSET ??_7ICvUnknown@@6B@
	mov	ecx, DWORD PTR _this$[ebp]
	mov	DWORD PTR [ecx], OFFSET ??_7ICvWorldBuilderMapLoader1@@6B@
	mov	edx, DWORD PTR _this$[ebp]
	mov	DWORD PTR [edx], OFFSET ??_7ICvWorldBuilderMapLoader2@@6B@
	mov	eax, DWORD PTR _this$[ebp]
	mov	DWORD PTR [eax], OFFSET ??_7CvDllWorldBuilderMapLoader@@6B@

; 18   : }

	mov	eax, DWORD PTR _this$[ebp]
	mov	esp, ebp
	pop	ebp
	ret	0
??0CvDllWorldBuilderMapLoader@@QAE@XZ ENDP		; CvDllWorldBuilderMapLoader::CvDllWorldBuilderMapLoader
_TEXT	ENDS
PUBLIC	??1CvDllWorldBuilderMapLoader@@QAE@XZ		; CvDllWorldBuilderMapLoader::~CvDllWorldBuilderMapLoader
; Function compile flags: /Odtp
;	COMDAT ??1CvDllWorldBuilderMapLoader@@QAE@XZ
_TEXT	SEGMENT
_this$ = -4						; size = 4
??1CvDllWorldBuilderMapLoader@@QAE@XZ PROC		; CvDllWorldBuilderMapLoader::~CvDllWorldBuilderMapLoader, COMDAT
; _this$ = ecx

; 21   : {

	push	ebp
	mov	ebp, esp
	push	ecx
	mov	DWORD PTR _this$[ebp], ecx
	mov	eax, DWORD PTR _this$[ebp]
	mov	DWORD PTR [eax], OFFSET ??_7CvDllWorldBuilderMapLoader@@6B@

; 22   : }

	mov	esp, ebp
	pop	ebp
	ret	0
??1CvDllWorldBuilderMapLoader@@QAE@XZ ENDP		; CvDllWorldBuilderMapLoader::~CvDllWorldBuilderMapLoader
; Function compile flags: /Odtp
_TEXT	ENDS
;	COMDAT ?QueryInterface@CvDllWorldBuilderMapLoader@@UAGPAXU_GUID@@@Z
_TEXT	SEGMENT
tv133 = -128						; size = 4
tv196 = -124						; size = 4
tv128 = -120						; size = 4
tv172 = -116						; size = 4
tv91 = -112						; size = 4
tv148 = -108						; size = 4
$T218162 = -104						; size = 16
$T218161 = -88						; size = 16
$T218160 = -72						; size = 16
$T218159 = -56						; size = 16
$T218158 = -40						; size = 16
$T218157 = -20						; size = 16
_this$ = 8						; size = 4
_guidInterface$ = 12					; size = 16
?QueryInterface@CvDllWorldBuilderMapLoader@@UAGPAXU_GUID@@@Z PROC ; CvDllWorldBuilderMapLoader::QueryInterface, COMDAT

; 25   : {

	push	ebp
	mov	ebp, esp
	sub	esp, 128				; 00000080H
	push	esi
	push	edi

; 26   : 	if(	guidInterface == ICvUnknown::GetInterfaceId() ||
; 27   : 	    guidInterface == ICvWorldBuilderMapLoader1::GetInterfaceId() || 
; 28   : 		guidInterface == ICvWorldBuilderMapLoader2::GetInterfaceId())

	mov	eax, DWORD PTR _guidICvUnknown
	mov	DWORD PTR $T218158[ebp], eax
	mov	ecx, DWORD PTR _guidICvUnknown+4
	mov	DWORD PTR $T218158[ebp+4], ecx
	mov	edx, DWORD PTR _guidICvUnknown+8
	mov	DWORD PTR $T218158[ebp+8], edx
	mov	eax, DWORD PTR _guidICvUnknown+12
	mov	DWORD PTR $T218158[ebp+12], eax
	mov	ecx, DWORD PTR $T218158[ebp]
	mov	DWORD PTR $T218157[ebp], ecx
	mov	edx, DWORD PTR $T218158[ebp+4]
	mov	DWORD PTR $T218157[ebp+4], edx
	mov	eax, DWORD PTR $T218158[ebp+8]
	mov	DWORD PTR $T218157[ebp+8], eax
	mov	ecx, DWORD PTR $T218158[ebp+12]
	mov	DWORD PTR $T218157[ebp+12], ecx
	mov	ecx, 16					; 00000010H
	lea	edi, DWORD PTR $T218157[ebp]
	lea	esi, DWORD PTR _guidInterface$[ebp]
	xor	edx, edx
	mov	DWORD PTR tv148[ebp], edx
	repe cmpsb
	je	SHORT $LN23@QueryInter
	sbb	eax, eax
	sbb	eax, -1
	mov	DWORD PTR tv148[ebp], eax
$LN23@QueryInter:
	mov	ecx, DWORD PTR tv148[ebp]
	mov	DWORD PTR tv91[ebp], ecx
	xor	edx, edx
	cmp	DWORD PTR tv91[ebp], 0
	sete	dl
	test	edx, edx
	jne	$LN1@QueryInter
	mov	eax, DWORD PTR _guidICvWorldBuilderMapLoader1
	mov	DWORD PTR $T218160[ebp], eax
	mov	ecx, DWORD PTR _guidICvWorldBuilderMapLoader1+4
	mov	DWORD PTR $T218160[ebp+4], ecx
	mov	edx, DWORD PTR _guidICvWorldBuilderMapLoader1+8
	mov	DWORD PTR $T218160[ebp+8], edx
	mov	eax, DWORD PTR _guidICvWorldBuilderMapLoader1+12
	mov	DWORD PTR $T218160[ebp+12], eax
	mov	ecx, DWORD PTR $T218160[ebp]
	mov	DWORD PTR $T218159[ebp], ecx
	mov	edx, DWORD PTR $T218160[ebp+4]
	mov	DWORD PTR $T218159[ebp+4], edx
	mov	eax, DWORD PTR $T218160[ebp+8]
	mov	DWORD PTR $T218159[ebp+8], eax
	mov	ecx, DWORD PTR $T218160[ebp+12]
	mov	DWORD PTR $T218159[ebp+12], ecx
	mov	ecx, 16					; 00000010H
	lea	edi, DWORD PTR $T218159[ebp]
	lea	esi, DWORD PTR _guidInterface$[ebp]
	xor	edx, edx
	mov	DWORD PTR tv172[ebp], edx
	repe cmpsb
	je	SHORT $LN24@QueryInter
	sbb	eax, eax
	sbb	eax, -1
	mov	DWORD PTR tv172[ebp], eax
$LN24@QueryInter:
	mov	ecx, DWORD PTR tv172[ebp]
	mov	DWORD PTR tv128[ebp], ecx
	xor	edx, edx
	cmp	DWORD PTR tv128[ebp], 0
	sete	dl
	test	edx, edx
	jne	SHORT $LN1@QueryInter
	mov	eax, DWORD PTR _guidICvWorldBuilderMapLoader2
	mov	DWORD PTR $T218162[ebp], eax
	mov	ecx, DWORD PTR _guidICvWorldBuilderMapLoader2+4
	mov	DWORD PTR $T218162[ebp+4], ecx
	mov	edx, DWORD PTR _guidICvWorldBuilderMapLoader2+8
	mov	DWORD PTR $T218162[ebp+8], edx
	mov	eax, DWORD PTR _guidICvWorldBuilderMapLoader2+12
	mov	DWORD PTR $T218162[ebp+12], eax
	mov	ecx, DWORD PTR $T218162[ebp]
	mov	DWORD PTR $T218161[ebp], ecx
	mov	edx, DWORD PTR $T218162[ebp+4]
	mov	DWORD PTR $T218161[ebp+4], edx
	mov	eax, DWORD PTR $T218162[ebp+8]
	mov	DWORD PTR $T218161[ebp+8], eax
	mov	ecx, DWORD PTR $T218162[ebp+12]
	mov	DWORD PTR $T218161[ebp+12], ecx
	mov	ecx, 16					; 00000010H
	lea	edi, DWORD PTR $T218161[ebp]
	lea	esi, DWORD PTR _guidInterface$[ebp]
	xor	edx, edx
	mov	DWORD PTR tv196[ebp], edx
	repe cmpsb
	je	SHORT $LN25@QueryInter
	sbb	eax, eax
	sbb	eax, -1
	mov	DWORD PTR tv196[ebp], eax
$LN25@QueryInter:
	mov	ecx, DWORD PTR tv196[ebp]
	mov	DWORD PTR tv133[ebp], ecx
	xor	edx, edx
	cmp	DWORD PTR tv133[ebp], 0
	sete	dl
	test	edx, edx
	je	SHORT $LN2@QueryInter
$LN1@QueryInter:

; 29   : 	{
; 30   : 		return this;

	mov	eax, DWORD PTR _this$[ebp]
	jmp	SHORT $LN3@QueryInter
$LN2@QueryInter:

; 31   : 	}
; 32   : 
; 33   : 	return NULL;

	xor	eax, eax
$LN3@QueryInter:

; 34   : }

	pop	edi
	pop	esi
	mov	esp, ebp
	pop	ebp
	ret	20					; 00000014H
?QueryInterface@CvDllWorldBuilderMapLoader@@UAGPAXU_GUID@@@Z ENDP ; CvDllWorldBuilderMapLoader::QueryInterface
; Function compile flags: /Odtp
_TEXT	ENDS
;	COMDAT ?Destroy@CvDllWorldBuilderMapLoader@@EAGXXZ
_TEXT	SEGMENT
_this$ = 8						; size = 4
?Destroy@CvDllWorldBuilderMapLoader@@EAGXXZ PROC	; CvDllWorldBuilderMapLoader::Destroy, COMDAT

; 37   : {

	push	ebp
	mov	ebp, esp

; 38   : 	// Do nothing.
; 39   : 	// This is a static class whose instance is managed externally.
; 40   : }

	pop	ebp
	ret	4
?Destroy@CvDllWorldBuilderMapLoader@@EAGXXZ ENDP	; CvDllWorldBuilderMapLoader::Destroy
_TEXT	ENDS
PUBLIC	??3CvDllWorldBuilderMapLoader@@SAXPAX@Z		; CvDllWorldBuilderMapLoader::operator delete
EXTRN	?Free@CvDllGameContext@@SAXPAX@Z:PROC		; CvDllGameContext::Free
; Function compile flags: /Odtp
;	COMDAT ??3CvDllWorldBuilderMapLoader@@SAXPAX@Z
_TEXT	SEGMENT
_p$ = 8							; size = 4
??3CvDllWorldBuilderMapLoader@@SAXPAX@Z PROC		; CvDllWorldBuilderMapLoader::operator delete, COMDAT

; 43   : {

	push	ebp
	mov	ebp, esp

; 44   : 	CvDllGameContext::Free(p);

	mov	eax, DWORD PTR _p$[ebp]
	push	eax
	call	?Free@CvDllGameContext@@SAXPAX@Z	; CvDllGameContext::Free
	add	esp, 4

; 45   : }

	pop	ebp
	ret	0
??3CvDllWorldBuilderMapLoader@@SAXPAX@Z ENDP		; CvDllWorldBuilderMapLoader::operator delete
_TEXT	ENDS
PUBLIC	??2CvDllWorldBuilderMapLoader@@SAPAXI@Z		; CvDllWorldBuilderMapLoader::operator new
EXTRN	?Allocate@CvDllGameContext@@SAPAXI@Z:PROC	; CvDllGameContext::Allocate
; Function compile flags: /Odtp
;	COMDAT ??2CvDllWorldBuilderMapLoader@@SAPAXI@Z
_TEXT	SEGMENT
_bytes$ = 8						; size = 4
??2CvDllWorldBuilderMapLoader@@SAPAXI@Z PROC		; CvDllWorldBuilderMapLoader::operator new, COMDAT

; 48   : {

	push	ebp
	mov	ebp, esp

; 49   : 	return CvDllGameContext::Allocate(bytes);

	mov	eax, DWORD PTR _bytes$[ebp]
	push	eax
	call	?Allocate@CvDllGameContext@@SAPAXI@Z	; CvDllGameContext::Allocate
	add	esp, 4

; 50   : }

	pop	ebp
	ret	0
??2CvDllWorldBuilderMapLoader@@SAPAXI@Z ENDP		; CvDllWorldBuilderMapLoader::operator new
_TEXT	ENDS
EXTRN	?GetCurrentMapInfo@CvWorldBuilderMapLoader@@SAABUCvWorldBuilderMapLoaderMapInfo@@XZ:PROC ; CvWorldBuilderMapLoader::GetCurrentMapInfo
; Function compile flags: /Odtp
;	COMDAT ?GetCurrentMapInfo@CvDllWorldBuilderMapLoader@@UAGABUCvWorldBuilderMapLoaderMapInfo@@XZ
_TEXT	SEGMENT
_this$ = 8						; size = 4
?GetCurrentMapInfo@CvDllWorldBuilderMapLoader@@UAGABUCvWorldBuilderMapLoaderMapInfo@@XZ PROC ; CvDllWorldBuilderMapLoader::GetCurrentMapInfo, COMDAT

; 53   : {

	push	ebp
	mov	ebp, esp

; 54   : 	return CvWorldBuilderMapLoader::GetCurrentMapInfo();

	call	?GetCurrentMapInfo@CvWorldBuilderMapLoader@@SAABUCvWorldBuilderMapLoaderMapInfo@@XZ ; CvWorldBuilderMapLoader::GetCurrentMapInfo

; 55   : }

	pop	ebp
	ret	4
?GetCurrentMapInfo@CvDllWorldBuilderMapLoader@@UAGABUCvWorldBuilderMapLoaderMapInfo@@XZ ENDP ; CvDllWorldBuilderMapLoader::GetCurrentMapInfo
_TEXT	ENDS
EXTRN	?Preload@CvWorldBuilderMapLoader@@SA_NPB_W_N@Z:PROC ; CvWorldBuilderMapLoader::Preload
; Function compile flags: /Odtp
;	COMDAT ?Preload@CvDllWorldBuilderMapLoader@@UAG_NPB_W_N@Z
_TEXT	SEGMENT
_this$ = 8						; size = 4
_wszFilename$ = 12					; size = 4
_bScenario$ = 16					; size = 1
?Preload@CvDllWorldBuilderMapLoader@@UAG_NPB_W_N@Z PROC	; CvDllWorldBuilderMapLoader::Preload, COMDAT

; 62   : {

	push	ebp
	mov	ebp, esp

; 63   : 	return CvWorldBuilderMapLoader::Preload(wszFilename, bScenario);

	movzx	eax, BYTE PTR _bScenario$[ebp]
	push	eax
	mov	ecx, DWORD PTR _wszFilename$[ebp]
	push	ecx
	call	?Preload@CvWorldBuilderMapLoader@@SA_NPB_W_N@Z ; CvWorldBuilderMapLoader::Preload
	add	esp, 8

; 64   : }

	pop	ebp
	ret	12					; 0000000cH
?Preload@CvDllWorldBuilderMapLoader@@UAG_NPB_W_N@Z ENDP	; CvDllWorldBuilderMapLoader::Preload
_TEXT	ENDS
EXTRN	?SetupGameOptions@CvWorldBuilderMapLoader@@SAXXZ:PROC ; CvWorldBuilderMapLoader::SetupGameOptions
; Function compile flags: /Odtp
;	COMDAT ?SetupGameOptions@CvDllWorldBuilderMapLoader@@UAGXXZ
_TEXT	SEGMENT
_this$ = 8						; size = 4
?SetupGameOptions@CvDllWorldBuilderMapLoader@@UAGXXZ PROC ; CvDllWorldBuilderMapLoader::SetupGameOptions, COMDAT

; 67   : {

	push	ebp
	mov	ebp, esp

; 68   : 	CvWorldBuilderMapLoader::SetupGameOptions();

	call	?SetupGameOptions@CvWorldBuilderMapLoader@@SAXXZ ; CvWorldBuilderMapLoader::SetupGameOptions

; 69   : }

	pop	ebp
	ret	4
?SetupGameOptions@CvDllWorldBuilderMapLoader@@UAGXXZ ENDP ; CvDllWorldBuilderMapLoader::SetupGameOptions
_TEXT	ENDS
EXTRN	?SetupPlayers@CvWorldBuilderMapLoader@@SAXXZ:PROC ; CvWorldBuilderMapLoader::SetupPlayers
; Function compile flags: /Odtp
;	COMDAT ?SetupPlayers@CvDllWorldBuilderMapLoader@@UAGXXZ
_TEXT	SEGMENT
_this$ = 8						; size = 4
?SetupPlayers@CvDllWorldBuilderMapLoader@@UAGXXZ PROC	; CvDllWorldBuilderMapLoader::SetupPlayers, COMDAT

; 72   : {

	push	ebp
	mov	ebp, esp

; 73   : 	CvWorldBuilderMapLoader::SetupPlayers();

	call	?SetupPlayers@CvWorldBuilderMapLoader@@SAXXZ ; CvWorldBuilderMapLoader::SetupPlayers

; 74   : }

	pop	ebp
	ret	4
?SetupPlayers@CvDllWorldBuilderMapLoader@@UAGXXZ ENDP	; CvDllWorldBuilderMapLoader::SetupPlayers
_TEXT	ENDS
EXTRN	?SetInitialItems@CvWorldBuilderMapLoader@@SAX_N@Z:PROC ; CvWorldBuilderMapLoader::SetInitialItems
; Function compile flags: /Odtp
;	COMDAT ?SetInitialItems@CvDllWorldBuilderMapLoader@@UAGX_N@Z
_TEXT	SEGMENT
_this$ = 8						; size = 4
_bFirstCall$ = 12					; size = 1
?SetInitialItems@CvDllWorldBuilderMapLoader@@UAGX_N@Z PROC ; CvDllWorldBuilderMapLoader::SetInitialItems, COMDAT

; 77   : {

	push	ebp
	mov	ebp, esp

; 78   : 	CvWorldBuilderMapLoader::SetInitialItems(bFirstCall);

	movzx	eax, BYTE PTR _bFirstCall$[ebp]
	push	eax
	call	?SetInitialItems@CvWorldBuilderMapLoader@@SAX_N@Z ; CvWorldBuilderMapLoader::SetInitialItems
	add	esp, 4

; 79   : }

	pop	ebp
	ret	8
?SetInitialItems@CvDllWorldBuilderMapLoader@@UAGX_N@Z ENDP ; CvDllWorldBuilderMapLoader::SetInitialItems
_TEXT	ENDS
EXTRN	?InitMap@CvWorldBuilderMapLoader@@SA_NXZ:PROC	; CvWorldBuilderMapLoader::InitMap
; Function compile flags: /Odtp
;	COMDAT ?InitMap@CvDllWorldBuilderMapLoader@@UAG_NXZ
_TEXT	SEGMENT
_this$ = 8						; size = 4
?InitMap@CvDllWorldBuilderMapLoader@@UAG_NXZ PROC	; CvDllWorldBuilderMapLoader::InitMap, COMDAT

; 82   : {

	push	ebp
	mov	ebp, esp

; 83   : 	return CvWorldBuilderMapLoader::InitMap();

	call	?InitMap@CvWorldBuilderMapLoader@@SA_NXZ ; CvWorldBuilderMapLoader::InitMap

; 84   : }

	pop	ebp
	ret	4
?InitMap@CvDllWorldBuilderMapLoader@@UAG_NXZ ENDP	; CvDllWorldBuilderMapLoader::InitMap
_TEXT	ENDS
EXTRN	?Save@CvWorldBuilderMapLoader@@SA_NPB_WPBD@Z:PROC ; CvWorldBuilderMapLoader::Save
; Function compile flags: /Odtp
;	COMDAT ?Save@CvDllWorldBuilderMapLoader@@UAG_NPB_WPBD@Z
_TEXT	SEGMENT
_this$ = 8						; size = 4
_wszFilename$ = 12					; size = 4
_szMapName$ = 16					; size = 4
?Save@CvDllWorldBuilderMapLoader@@UAG_NPB_WPBD@Z PROC	; CvDllWorldBuilderMapLoader::Save, COMDAT

; 91   : {

	push	ebp
	mov	ebp, esp

; 92   : 	return CvWorldBuilderMapLoader::Save(wszFilename, szMapName);

	mov	eax, DWORD PTR _szMapName$[ebp]
	push	eax
	mov	ecx, DWORD PTR _wszFilename$[ebp]
	push	ecx
	call	?Save@CvWorldBuilderMapLoader@@SA_NPB_WPBD@Z ; CvWorldBuilderMapLoader::Save
	add	esp, 8

; 93   : }

	pop	ebp
	ret	12					; 0000000cH
?Save@CvDllWorldBuilderMapLoader@@UAG_NPB_WPBD@Z ENDP	; CvDllWorldBuilderMapLoader::Save
_TEXT	ENDS
EXTRN	?LoadModData@CvWorldBuilderMapLoader@@SAHPAUlua_State@@@Z:PROC ; CvWorldBuilderMapLoader::LoadModData
; Function compile flags: /Odtp
;	COMDAT ?LoadModData@CvDllWorldBuilderMapLoader@@UAGHPAUlua_State@@@Z
_TEXT	SEGMENT
_this$ = 8						; size = 4
_L$ = 12						; size = 4
?LoadModData@CvDllWorldBuilderMapLoader@@UAGHPAUlua_State@@@Z PROC ; CvDllWorldBuilderMapLoader::LoadModData, COMDAT

; 96   : {

	push	ebp
	mov	ebp, esp

; 97   : 	return CvWorldBuilderMapLoader::LoadModData(L);

	mov	eax, DWORD PTR _L$[ebp]
	push	eax
	call	?LoadModData@CvWorldBuilderMapLoader@@SAHPAUlua_State@@@Z ; CvWorldBuilderMapLoader::LoadModData
	add	esp, 4

; 98   : }

	pop	ebp
	ret	8
?LoadModData@CvDllWorldBuilderMapLoader@@UAGHPAUlua_State@@@Z ENDP ; CvDllWorldBuilderMapLoader::LoadModData
_TEXT	ENDS
EXTRN	?ValidateTerrain@CvWorldBuilderMapLoader@@SAXXZ:PROC ; CvWorldBuilderMapLoader::ValidateTerrain
; Function compile flags: /Odtp
;	COMDAT ?ValidateTerrain@CvDllWorldBuilderMapLoader@@UAGXXZ
_TEXT	SEGMENT
_this$ = 8						; size = 4
?ValidateTerrain@CvDllWorldBuilderMapLoader@@UAGXXZ PROC ; CvDllWorldBuilderMapLoader::ValidateTerrain, COMDAT

; 101  : {

	push	ebp
	mov	ebp, esp

; 102  : 	CvWorldBuilderMapLoader::ValidateTerrain();

	call	?ValidateTerrain@CvWorldBuilderMapLoader@@SAXXZ ; CvWorldBuilderMapLoader::ValidateTerrain

; 103  : }

	pop	ebp
	ret	4
?ValidateTerrain@CvDllWorldBuilderMapLoader@@UAGXXZ ENDP ; CvDllWorldBuilderMapLoader::ValidateTerrain
_TEXT	ENDS
EXTRN	?ValidateCoast@CvWorldBuilderMapLoader@@SAXXZ:PROC ; CvWorldBuilderMapLoader::ValidateCoast
; Function compile flags: /Odtp
;	COMDAT ?ValidateCoast@CvDllWorldBuilderMapLoader@@UAGXXZ
_TEXT	SEGMENT
_this$ = 8						; size = 4
?ValidateCoast@CvDllWorldBuilderMapLoader@@UAGXXZ PROC	; CvDllWorldBuilderMapLoader::ValidateCoast, COMDAT

; 106  : {

	push	ebp
	mov	ebp, esp

; 107  : 	CvWorldBuilderMapLoader::ValidateCoast();

	call	?ValidateCoast@CvWorldBuilderMapLoader@@SAXXZ ; CvWorldBuilderMapLoader::ValidateCoast

; 108  : }

	pop	ebp
	ret	4
?ValidateCoast@CvDllWorldBuilderMapLoader@@UAGXXZ ENDP	; CvDllWorldBuilderMapLoader::ValidateCoast
_TEXT	ENDS
EXTRN	?ClearResources@CvWorldBuilderMapLoader@@SAXXZ:PROC ; CvWorldBuilderMapLoader::ClearResources
; Function compile flags: /Odtp
;	COMDAT ?ClearResources@CvDllWorldBuilderMapLoader@@UAGXXZ
_TEXT	SEGMENT
_this$ = 8						; size = 4
?ClearResources@CvDllWorldBuilderMapLoader@@UAGXXZ PROC	; CvDllWorldBuilderMapLoader::ClearResources, COMDAT

; 111  : {

	push	ebp
	mov	ebp, esp

; 112  : 	CvWorldBuilderMapLoader::ClearResources();

	call	?ClearResources@CvWorldBuilderMapLoader@@SAXXZ ; CvWorldBuilderMapLoader::ClearResources

; 113  : }

	pop	ebp
	ret	4
?ClearResources@CvDllWorldBuilderMapLoader@@UAGXXZ ENDP	; CvDllWorldBuilderMapLoader::ClearResources
_TEXT	ENDS
EXTRN	?ClearGoodies@CvWorldBuilderMapLoader@@SAXXZ:PROC ; CvWorldBuilderMapLoader::ClearGoodies
; Function compile flags: /Odtp
;	COMDAT ?ClearGoodies@CvDllWorldBuilderMapLoader@@UAGXXZ
_TEXT	SEGMENT
_this$ = 8						; size = 4
?ClearGoodies@CvDllWorldBuilderMapLoader@@UAGXXZ PROC	; CvDllWorldBuilderMapLoader::ClearGoodies, COMDAT

; 116  : {

	push	ebp
	mov	ebp, esp

; 117  : 	CvWorldBuilderMapLoader::ClearGoodies();

	call	?ClearGoodies@CvWorldBuilderMapLoader@@SAXXZ ; CvWorldBuilderMapLoader::ClearGoodies

; 118  : }

	pop	ebp
	ret	4
?ClearGoodies@CvDllWorldBuilderMapLoader@@UAGXXZ ENDP	; CvDllWorldBuilderMapLoader::ClearGoodies
_TEXT	ENDS
EXTRN	?ResetPlayerSlots@CvWorldBuilderMapLoader@@SAXXZ:PROC ; CvWorldBuilderMapLoader::ResetPlayerSlots
; Function compile flags: /Odtp
;	COMDAT ?ResetPlayerSlots@CvDllWorldBuilderMapLoader@@UAGXXZ
_TEXT	SEGMENT
_this$ = 8						; size = 4
?ResetPlayerSlots@CvDllWorldBuilderMapLoader@@UAGXXZ PROC ; CvDllWorldBuilderMapLoader::ResetPlayerSlots, COMDAT

; 121  : {

	push	ebp
	mov	ebp, esp

; 122  : 	CvWorldBuilderMapLoader::ResetPlayerSlots();

	call	?ResetPlayerSlots@CvWorldBuilderMapLoader@@SAXXZ ; CvWorldBuilderMapLoader::ResetPlayerSlots

; 123  : }

	pop	ebp
	ret	4
?ResetPlayerSlots@CvDllWorldBuilderMapLoader@@UAGXXZ ENDP ; CvDllWorldBuilderMapLoader::ResetPlayerSlots
_TEXT	ENDS
EXTRN	?MapPlayerToSlot@CvWorldBuilderMapLoader@@SAXIW4PlayerTypes@@@Z:PROC ; CvWorldBuilderMapLoader::MapPlayerToSlot
; Function compile flags: /Odtp
;	COMDAT ?MapPlayerToSlot@CvDllWorldBuilderMapLoader@@UAGXIW4PlayerTypes@@@Z
_TEXT	SEGMENT
_this$ = 8						; size = 4
_uiPlayer$ = 12						; size = 4
_ePlayerSlot$ = 16					; size = 4
?MapPlayerToSlot@CvDllWorldBuilderMapLoader@@UAGXIW4PlayerTypes@@@Z PROC ; CvDllWorldBuilderMapLoader::MapPlayerToSlot, COMDAT

; 126  : {

	push	ebp
	mov	ebp, esp

; 127  : 	CvWorldBuilderMapLoader::MapPlayerToSlot(uiPlayer, ePlayerSlot);

	mov	eax, DWORD PTR _ePlayerSlot$[ebp]
	push	eax
	mov	ecx, DWORD PTR _uiPlayer$[ebp]
	push	ecx
	call	?MapPlayerToSlot@CvWorldBuilderMapLoader@@SAXIW4PlayerTypes@@@Z ; CvWorldBuilderMapLoader::MapPlayerToSlot
	add	esp, 8

; 128  : }

	pop	ebp
	ret	12					; 0000000cH
?MapPlayerToSlot@CvDllWorldBuilderMapLoader@@UAGXIW4PlayerTypes@@@Z ENDP ; CvDllWorldBuilderMapLoader::MapPlayerToSlot
_TEXT	ENDS
EXTRN	?PreviewPlayableCivCount@CvWorldBuilderMapLoader@@SAIPB_W@Z:PROC ; CvWorldBuilderMapLoader::PreviewPlayableCivCount
; Function compile flags: /Odtp
;	COMDAT ?PreviewPlayableCivCount@CvDllWorldBuilderMapLoader@@UAGIPB_W@Z
_TEXT	SEGMENT
_this$ = 8						; size = 4
_wszFilename$ = 12					; size = 4
?PreviewPlayableCivCount@CvDllWorldBuilderMapLoader@@UAGIPB_W@Z PROC ; CvDllWorldBuilderMapLoader::PreviewPlayableCivCount, COMDAT

; 135  : {

	push	ebp
	mov	ebp, esp

; 136  : 	return CvWorldBuilderMapLoader::PreviewPlayableCivCount(wszFilename);

	mov	eax, DWORD PTR _wszFilename$[ebp]
	push	eax
	call	?PreviewPlayableCivCount@CvWorldBuilderMapLoader@@SAIPB_W@Z ; CvWorldBuilderMapLoader::PreviewPlayableCivCount
	add	esp, 4

; 137  : }

	pop	ebp
	ret	8
?PreviewPlayableCivCount@CvDllWorldBuilderMapLoader@@UAGIPB_W@Z ENDP ; CvDllWorldBuilderMapLoader::PreviewPlayableCivCount
_TEXT	ENDS
EXTRN	?GetMapPreview@CvWorldBuilderMapLoader@@SAHPAUlua_State@@@Z:PROC ; CvWorldBuilderMapLoader::GetMapPreview
; Function compile flags: /Odtp
;	COMDAT ?GetMapPreview@CvDllWorldBuilderMapLoader@@UAGHPAUlua_State@@@Z
_TEXT	SEGMENT
_this$ = 8						; size = 4
_L$ = 12						; size = 4
?GetMapPreview@CvDllWorldBuilderMapLoader@@UAGHPAUlua_State@@@Z PROC ; CvDllWorldBuilderMapLoader::GetMapPreview, COMDAT

; 140  : {

	push	ebp
	mov	ebp, esp

; 141  : 	return CvWorldBuilderMapLoader::GetMapPreview(L);

	mov	eax, DWORD PTR _L$[ebp]
	push	eax
	call	?GetMapPreview@CvWorldBuilderMapLoader@@SAHPAUlua_State@@@Z ; CvWorldBuilderMapLoader::GetMapPreview
	add	esp, 4

; 142  : }

	pop	ebp
	ret	8
?GetMapPreview@CvDllWorldBuilderMapLoader@@UAGHPAUlua_State@@@Z ENDP ; CvDllWorldBuilderMapLoader::GetMapPreview
_TEXT	ENDS
EXTRN	?GetMapPlayers@CvWorldBuilderMapLoader@@SAHPAUlua_State@@@Z:PROC ; CvWorldBuilderMapLoader::GetMapPlayers
; Function compile flags: /Odtp
;	COMDAT ?GetMapPlayers@CvDllWorldBuilderMapLoader@@UAGHPAUlua_State@@@Z
_TEXT	SEGMENT
_this$ = 8						; size = 4
_L$ = 12						; size = 4
?GetMapPlayers@CvDllWorldBuilderMapLoader@@UAGHPAUlua_State@@@Z PROC ; CvDllWorldBuilderMapLoader::GetMapPlayers, COMDAT

; 145  : {

	push	ebp
	mov	ebp, esp

; 146  : 	return CvWorldBuilderMapLoader::GetMapPlayers(L);

	mov	eax, DWORD PTR _L$[ebp]
	push	eax
	call	?GetMapPlayers@CvWorldBuilderMapLoader@@SAHPAUlua_State@@@Z ; CvWorldBuilderMapLoader::GetMapPlayers
	add	esp, 4

; 147  : }

	pop	ebp
	ret	8
?GetMapPlayers@CvDllWorldBuilderMapLoader@@UAGHPAUlua_State@@@Z ENDP ; CvDllWorldBuilderMapLoader::GetMapPlayers
_TEXT	ENDS
EXTRN	?AddRandomItems@CvWorldBuilderMapLoader@@SAHPAUlua_State@@@Z:PROC ; CvWorldBuilderMapLoader::AddRandomItems
; Function compile flags: /Odtp
;	COMDAT ?AddRandomItems@CvDllWorldBuilderMapLoader@@UAGHPAUlua_State@@@Z
_TEXT	SEGMENT
_this$ = 8						; size = 4
_L$ = 12						; size = 4
?AddRandomItems@CvDllWorldBuilderMapLoader@@UAGHPAUlua_State@@@Z PROC ; CvDllWorldBuilderMapLoader::AddRandomItems, COMDAT

; 150  : {

	push	ebp
	mov	ebp, esp

; 151  : 	return CvWorldBuilderMapLoader::AddRandomItems(L);

	mov	eax, DWORD PTR _L$[ebp]
	push	eax
	call	?AddRandomItems@CvWorldBuilderMapLoader@@SAHPAUlua_State@@@Z ; CvWorldBuilderMapLoader::AddRandomItems
	add	esp, 4

; 152  : }

	pop	ebp
	ret	8
?AddRandomItems@CvDllWorldBuilderMapLoader@@UAGHPAUlua_State@@@Z ENDP ; CvDllWorldBuilderMapLoader::AddRandomItems
_TEXT	ENDS
EXTRN	?ScatterResources@CvWorldBuilderMapLoader@@SAHPAUlua_State@@@Z:PROC ; CvWorldBuilderMapLoader::ScatterResources
; Function compile flags: /Odtp
;	COMDAT ?ScatterResources@CvDllWorldBuilderMapLoader@@UAGHPAUlua_State@@@Z
_TEXT	SEGMENT
_this$ = 8						; size = 4
_L$ = 12						; size = 4
?ScatterResources@CvDllWorldBuilderMapLoader@@UAGHPAUlua_State@@@Z PROC ; CvDllWorldBuilderMapLoader::ScatterResources, COMDAT

; 155  : {

	push	ebp
	mov	ebp, esp

; 156  : 	return CvWorldBuilderMapLoader::ScatterResources(L);

	mov	eax, DWORD PTR _L$[ebp]
	push	eax
	call	?ScatterResources@CvWorldBuilderMapLoader@@SAHPAUlua_State@@@Z ; CvWorldBuilderMapLoader::ScatterResources
	add	esp, 4

; 157  : }

	pop	ebp
	ret	8
?ScatterResources@CvDllWorldBuilderMapLoader@@UAGHPAUlua_State@@@Z ENDP ; CvDllWorldBuilderMapLoader::ScatterResources
_TEXT	ENDS
EXTRN	?ScatterGoodies@CvWorldBuilderMapLoader@@SAHPAUlua_State@@@Z:PROC ; CvWorldBuilderMapLoader::ScatterGoodies
; Function compile flags: /Odtp
;	COMDAT ?ScatterGoodies@CvDllWorldBuilderMapLoader@@UAGHPAUlua_State@@@Z
_TEXT	SEGMENT
_this$ = 8						; size = 4
_L$ = 12						; size = 4
?ScatterGoodies@CvDllWorldBuilderMapLoader@@UAGHPAUlua_State@@@Z PROC ; CvDllWorldBuilderMapLoader::ScatterGoodies, COMDAT

; 160  : {

	push	ebp
	mov	ebp, esp

; 161  : 	return CvWorldBuilderMapLoader::ScatterGoodies(L);

	mov	eax, DWORD PTR _L$[ebp]
	push	eax
	call	?ScatterGoodies@CvWorldBuilderMapLoader@@SAHPAUlua_State@@@Z ; CvWorldBuilderMapLoader::ScatterGoodies
	add	esp, 4

; 162  : }

	pop	ebp
	ret	8
?ScatterGoodies@CvDllWorldBuilderMapLoader@@UAGHPAUlua_State@@@Z ENDP ; CvDllWorldBuilderMapLoader::ScatterGoodies
_TEXT	ENDS
EXTRN	?GetMapPlayerSlot@CvWorldBuilderMapLoader@@SA?AW4PlayerTypes@@I@Z:PROC ; CvWorldBuilderMapLoader::GetMapPlayerSlot
; Function compile flags: /Odtp
;	COMDAT ?GetMapPlayerSlot@CvDllWorldBuilderMapLoader@@UAG?AW4PlayerTypes@@I@Z
_TEXT	SEGMENT
_this$ = 8						; size = 4
_uiPlayer$ = 12						; size = 4
?GetMapPlayerSlot@CvDllWorldBuilderMapLoader@@UAG?AW4PlayerTypes@@I@Z PROC ; CvDllWorldBuilderMapLoader::GetMapPlayerSlot, COMDAT

; 165  : {

	push	ebp
	mov	ebp, esp

; 166  : 	return CvWorldBuilderMapLoader::GetMapPlayerSlot(uiPlayer);

	mov	eax, DWORD PTR _uiPlayer$[ebp]
	push	eax
	call	?GetMapPlayerSlot@CvWorldBuilderMapLoader@@SA?AW4PlayerTypes@@I@Z ; CvWorldBuilderMapLoader::GetMapPlayerSlot
	add	esp, 4

; 167  : }

	pop	ebp
	ret	8
?GetMapPlayerSlot@CvDllWorldBuilderMapLoader@@UAG?AW4PlayerTypes@@I@Z ENDP ; CvDllWorldBuilderMapLoader::GetMapPlayerSlot
_TEXT	ENDS
EXTRN	?GetMapPlayerCount@CvWorldBuilderMapLoader@@SAHXZ:PROC ; CvWorldBuilderMapLoader::GetMapPlayerCount
; Function compile flags: /Odtp
;	COMDAT ?GetMapPlayerCount@CvDllWorldBuilderMapLoader@@UAGHXZ
_TEXT	SEGMENT
_this$ = 8						; size = 4
?GetMapPlayerCount@CvDllWorldBuilderMapLoader@@UAGHXZ PROC ; CvDllWorldBuilderMapLoader::GetMapPlayerCount, COMDAT

; 170  : {

	push	ebp
	mov	ebp, esp

; 171  : 	return CvWorldBuilderMapLoader::GetMapPlayerCount();

	call	?GetMapPlayerCount@CvWorldBuilderMapLoader@@SAHXZ ; CvWorldBuilderMapLoader::GetMapPlayerCount

; 172  : }

	pop	ebp
	ret	4
?GetMapPlayerCount@CvDllWorldBuilderMapLoader@@UAGHXZ ENDP ; CvDllWorldBuilderMapLoader::GetMapPlayerCount
_TEXT	ENDS
EXTRN	??1CvMapGenerator@@UAE@XZ:PROC			; CvMapGenerator::~CvMapGenerator
EXTRN	?GenerateRandomMap@CvMapGenerator@@QAEXXZ:PROC	; CvMapGenerator::GenerateRandomMap
EXTRN	??0CvMapGenerator@@QAE@PBD@Z:PROC		; CvMapGenerator::CvMapGenerator
EXTRN	___security_cookie:DWORD
EXTRN	___CxxFrameHandler3:PROC
EXTRN	@__security_check_cookie@4:PROC
;	COMDAT xdata$x
xdata$x	SEGMENT
__unwindtable$?GenerateRandomMap@CvDllWorldBuilderMapLoader@@UAGXPBD@Z DD 0ffffffffH
	DD	FLAT:__unwindfunclet$?GenerateRandomMap@CvDllWorldBuilderMapLoader@@UAGXPBD@Z$0
__ehfuncinfo$?GenerateRandomMap@CvDllWorldBuilderMapLoader@@UAGXPBD@Z DD 019930522H
	DD	01H
	DD	FLAT:__unwindtable$?GenerateRandomMap@CvDllWorldBuilderMapLoader@@UAGXPBD@Z
	DD	2 DUP(00H)
	DD	2 DUP(00H)
	DD	00H
	DD	01H
; Function compile flags: /Odtp
xdata$x	ENDS
;	COMDAT ?GenerateRandomMap@CvDllWorldBuilderMapLoader@@UAGXPBD@Z
_TEXT	SEGMENT
_kGenerator$ = -20					; size = 8
__$EHRec$ = -12						; size = 12
_this$ = 8						; size = 4
_szMapScript$ = 12					; size = 4
?GenerateRandomMap@CvDllWorldBuilderMapLoader@@UAGXPBD@Z PROC ; CvDllWorldBuilderMapLoader::GenerateRandomMap, COMDAT

; 175  : {

	push	ebp
	mov	ebp, esp
	push	-1
	push	__ehhandler$?GenerateRandomMap@CvDllWorldBuilderMapLoader@@UAGXPBD@Z
	mov	eax, DWORD PTR fs:0
	push	eax
	sub	esp, 8
	mov	eax, DWORD PTR ___security_cookie
	xor	eax, ebp
	push	eax
	lea	eax, DWORD PTR __$EHRec$[ebp]
	mov	DWORD PTR fs:0, eax

; 176  : 	CvMapGenerator kGenerator(szMapScript);

	mov	eax, DWORD PTR _szMapScript$[ebp]
	push	eax
	lea	ecx, DWORD PTR _kGenerator$[ebp]
	call	??0CvMapGenerator@@QAE@PBD@Z		; CvMapGenerator::CvMapGenerator
	mov	DWORD PTR __$EHRec$[ebp+8], 0

; 177  : 	kGenerator.GenerateRandomMap();

	lea	ecx, DWORD PTR _kGenerator$[ebp]
	call	?GenerateRandomMap@CvMapGenerator@@QAEXXZ ; CvMapGenerator::GenerateRandomMap

; 178  : }

	mov	DWORD PTR __$EHRec$[ebp+8], -1
	lea	ecx, DWORD PTR _kGenerator$[ebp]
	call	??1CvMapGenerator@@UAE@XZ		; CvMapGenerator::~CvMapGenerator
	mov	ecx, DWORD PTR __$EHRec$[ebp]
	mov	DWORD PTR fs:0, ecx
	pop	ecx
	mov	esp, ebp
	pop	ebp
	ret	8
_TEXT	ENDS
;	COMDAT text$x
text$x	SEGMENT
__unwindfunclet$?GenerateRandomMap@CvDllWorldBuilderMapLoader@@UAGXPBD@Z$0:
	lea	ecx, DWORD PTR _kGenerator$[ebp]
	jmp	??1CvMapGenerator@@UAE@XZ		; CvMapGenerator::~CvMapGenerator
__ehhandler$?GenerateRandomMap@CvDllWorldBuilderMapLoader@@UAGXPBD@Z:
	mov	edx, DWORD PTR [esp+8]
	lea	eax, DWORD PTR [edx+12]
	mov	ecx, DWORD PTR [edx-12]
	xor	ecx, eax
	call	@__security_check_cookie@4
	mov	eax, OFFSET __ehfuncinfo$?GenerateRandomMap@CvDllWorldBuilderMapLoader@@UAGXPBD@Z
	jmp	___CxxFrameHandler3
text$x	ENDS
?GenerateRandomMap@CvDllWorldBuilderMapLoader@@UAGXPBD@Z ENDP ; CvDllWorldBuilderMapLoader::GenerateRandomMap
EXTRN	?GetCurrentWorldSizeType@CvWorldBuilderMapLoader@@SA?AW4WorldSizeTypes@@XZ:PROC ; CvWorldBuilderMapLoader::GetCurrentWorldSizeType
; Function compile flags: /Odtp
;	COMDAT ?GetWorldSizeType@CvDllWorldBuilderMapLoader@@UBG?AW4WorldSizeTypes@@XZ
_TEXT	SEGMENT
_this$ = 8						; size = 4
?GetWorldSizeType@CvDllWorldBuilderMapLoader@@UBG?AW4WorldSizeTypes@@XZ PROC ; CvDllWorldBuilderMapLoader::GetWorldSizeType, COMDAT

; 181  : {

	push	ebp
	mov	ebp, esp

; 182  : 	return CvWorldBuilderMapLoader::GetCurrentWorldSizeType();

	call	?GetCurrentWorldSizeType@CvWorldBuilderMapLoader@@SA?AW4WorldSizeTypes@@XZ ; CvWorldBuilderMapLoader::GetCurrentWorldSizeType

; 183  : }

	pop	ebp
	ret	4
?GetWorldSizeType@CvDllWorldBuilderMapLoader@@UBG?AW4WorldSizeTypes@@XZ ENDP ; CvDllWorldBuilderMapLoader::GetWorldSizeType
_TEXT	ENDS
END
