; Listing generated by Microsoft (R) Optimizing Compiler Version 15.00.30729.01 

	TITLE	D:\sources\Lekmod_git\checkout\LEKMOD_DLL\CvGameCoreDLL_Expansion2\CvDllMissionData.cpp
	.686P
	.XMM
	include listing.inc
	.model	flat

INCLUDELIB MSVCRT
INCLUDELIB OLDNAMES

PUBLIC	??_C@_05OCFELOIJ@1?40?40?$AA@			; `string'
CONST	SEGMENT
_guidICvUnknown DD 0d89ba82fH
	DW	09fa3H
	DW	04696H
	DB	0b3H
	DB	0f4H
	DB	052H
	DB	0bdH
	DB	0b1H
	DB	01H
	DB	0cfH
	DB	0b2H
_guidICvMissionData1 DD 0d97f1045H
	DW	0472fH
	DW	048e7H
	DB	08cH
	DB	061H
	DB	059H
	DB	093H
	DB	0deH
	DB	0ccH
	DB	026H
	DB	077H
CONST	ENDS
_DATA	SEGMENT
_CIV5_XP2_DLL_VERSION DD FLAT:??_C@_05OCFELOIJ@1?40?40?$AA@
_DATA	ENDS
;	COMDAT ??_C@_05OCFELOIJ@1?40?40?$AA@
CONST	SEGMENT
??_C@_05OCFELOIJ@1?40?40?$AA@ DB '1.0.0', 00H		; `string'
CONST	ENDS
PUBLIC	??_7CvDllMissionData@@6B@			; CvDllMissionData::`vftable'
PUBLIC	??_7ICvMissionData1@@6B@			; ICvMissionData1::`vftable'
PUBLIC	??_7ICvUnknown@@6B@				; ICvUnknown::`vftable'
PUBLIC	??0CvDllMissionData@@QAE@PBUMissionData@@@Z	; CvDllMissionData::CvDllMissionData
PUBLIC	?QueryInterface@CvDllMissionData@@UAGPAXU_GUID@@@Z ; CvDllMissionData::QueryInterface
PUBLIC	?Destroy@CvDllMissionData@@EAGXXZ		; CvDllMissionData::Destroy
PUBLIC	?GetData1@CvDllMissionData@@UBGHXZ		; CvDllMissionData::GetData1
PUBLIC	?GetData2@CvDllMissionData@@UBGHXZ		; CvDllMissionData::GetData2
PUBLIC	?GetFlags@CvDllMissionData@@UBGHXZ		; CvDllMissionData::GetFlags
PUBLIC	?GetPushTurn@CvDllMissionData@@UBGHXZ		; CvDllMissionData::GetPushTurn
PUBLIC	?GetMissionType@CvDllMissionData@@UBG?AW4MissionTypes@@XZ ; CvDllMissionData::GetMissionType
EXTRN	__purecall:PROC
;	COMDAT ??_7CvDllMissionData@@6B@
; File d:\sources\lekmod_git\checkout\lekmod_dll\cvgamecoredll_expansion2\cvdllmissiondata.cpp
CONST	SEGMENT
??_7CvDllMissionData@@6B@ DD FLAT:?QueryInterface@CvDllMissionData@@UAGPAXU_GUID@@@Z ; CvDllMissionData::`vftable'
	DD	FLAT:?Destroy@CvDllMissionData@@EAGXXZ
	DD	FLAT:?GetData1@CvDllMissionData@@UBGHXZ
	DD	FLAT:?GetData2@CvDllMissionData@@UBGHXZ
	DD	FLAT:?GetFlags@CvDllMissionData@@UBGHXZ
	DD	FLAT:?GetPushTurn@CvDllMissionData@@UBGHXZ
	DD	FLAT:?GetMissionType@CvDllMissionData@@UBG?AW4MissionTypes@@XZ
CONST	ENDS
;	COMDAT ??_7ICvMissionData1@@6B@
CONST	SEGMENT
??_7ICvMissionData1@@6B@ DD FLAT:__purecall		; ICvMissionData1::`vftable'
	DD	FLAT:__purecall
	DD	FLAT:__purecall
	DD	FLAT:__purecall
	DD	FLAT:__purecall
	DD	FLAT:__purecall
	DD	FLAT:__purecall
CONST	ENDS
;	COMDAT ??_7ICvUnknown@@6B@
CONST	SEGMENT
??_7ICvUnknown@@6B@ DD FLAT:__purecall			; ICvUnknown::`vftable'
	DD	FLAT:__purecall
; Function compile flags: /Odtp
CONST	ENDS
;	COMDAT ??0CvDllMissionData@@QAE@PBUMissionData@@@Z
_TEXT	SEGMENT
_this$ = -4						; size = 4
_pMissionData$ = 8					; size = 4
??0CvDllMissionData@@QAE@PBUMissionData@@@Z PROC	; CvDllMissionData::CvDllMissionData, COMDAT
; _this$ = ecx

; 19   : {

	push	ebp
	mov	ebp, esp
	push	ecx
	mov	DWORD PTR _this$[ebp], ecx
	mov	eax, DWORD PTR _this$[ebp]
	mov	DWORD PTR [eax], OFFSET ??_7ICvUnknown@@6B@
	mov	ecx, DWORD PTR _this$[ebp]
	mov	DWORD PTR [ecx], OFFSET ??_7ICvMissionData1@@6B@
	mov	edx, DWORD PTR _this$[ebp]
	mov	DWORD PTR [edx], OFFSET ??_7CvDllMissionData@@6B@
	mov	eax, DWORD PTR _this$[ebp]
	mov	DWORD PTR [eax+4], 1
	mov	ecx, DWORD PTR _this$[ebp]
	mov	edx, DWORD PTR _pMissionData$[ebp]
	mov	DWORD PTR [ecx+8], edx

; 20   : }

	mov	eax, DWORD PTR _this$[ebp]
	mov	esp, ebp
	pop	ebp
	ret	4
??0CvDllMissionData@@QAE@PBUMissionData@@@Z ENDP	; CvDllMissionData::CvDllMissionData
_TEXT	ENDS
PUBLIC	??1CvDllMissionData@@QAE@XZ			; CvDllMissionData::~CvDllMissionData
; Function compile flags: /Odtp
;	COMDAT ??1CvDllMissionData@@QAE@XZ
_TEXT	SEGMENT
_this$ = -4						; size = 4
??1CvDllMissionData@@QAE@XZ PROC			; CvDllMissionData::~CvDllMissionData, COMDAT
; _this$ = ecx

; 23   : {

	push	ebp
	mov	ebp, esp
	push	ecx
	mov	DWORD PTR _this$[ebp], ecx
	mov	eax, DWORD PTR _this$[ebp]
	mov	DWORD PTR [eax], OFFSET ??_7CvDllMissionData@@6B@

; 24   : }

	mov	esp, ebp
	pop	ebp
	ret	0
??1CvDllMissionData@@QAE@XZ ENDP			; CvDllMissionData::~CvDllMissionData
_TEXT	ENDS
PUBLIC	?IncrementReference@CvDllMissionData@@QAEIXZ	; CvDllMissionData::IncrementReference
; Function compile flags: /Odtp
;	COMDAT ?QueryInterface@CvDllMissionData@@UAGPAXU_GUID@@@Z
_TEXT	SEGMENT
tv90 = -88						; size = 4
tv161 = -84						; size = 4
tv85 = -80						; size = 4
tv137 = -76						; size = 4
$T217966 = -72						; size = 16
$T217965 = -56						; size = 16
$T217964 = -40						; size = 16
$T217963 = -20						; size = 16
_this$ = 8						; size = 4
_guidInterface$ = 12					; size = 16
?QueryInterface@CvDllMissionData@@UAGPAXU_GUID@@@Z PROC	; CvDllMissionData::QueryInterface, COMDAT

; 27   : {

	push	ebp
	mov	ebp, esp
	sub	esp, 88					; 00000058H
	push	esi
	push	edi

; 28   : 	if(guidInterface == ICvUnknown::GetInterfaceId() ||
; 29   : 	        guidInterface == ICvMissionData1::GetInterfaceId())

	mov	eax, DWORD PTR _guidICvUnknown
	mov	DWORD PTR $T217964[ebp], eax
	mov	ecx, DWORD PTR _guidICvUnknown+4
	mov	DWORD PTR $T217964[ebp+4], ecx
	mov	edx, DWORD PTR _guidICvUnknown+8
	mov	DWORD PTR $T217964[ebp+8], edx
	mov	eax, DWORD PTR _guidICvUnknown+12
	mov	DWORD PTR $T217964[ebp+12], eax
	mov	ecx, DWORD PTR $T217964[ebp]
	mov	DWORD PTR $T217963[ebp], ecx
	mov	edx, DWORD PTR $T217964[ebp+4]
	mov	DWORD PTR $T217963[ebp+4], edx
	mov	eax, DWORD PTR $T217964[ebp+8]
	mov	DWORD PTR $T217963[ebp+8], eax
	mov	ecx, DWORD PTR $T217964[ebp+12]
	mov	DWORD PTR $T217963[ebp+12], ecx
	mov	ecx, 16					; 00000010H
	lea	edi, DWORD PTR $T217963[ebp]
	lea	esi, DWORD PTR _guidInterface$[ebp]
	xor	edx, edx
	mov	DWORD PTR tv137[ebp], edx
	repe cmpsb
	je	SHORT $LN17@QueryInter
	sbb	eax, eax
	sbb	eax, -1
	mov	DWORD PTR tv137[ebp], eax
$LN17@QueryInter:
	mov	ecx, DWORD PTR tv137[ebp]
	mov	DWORD PTR tv85[ebp], ecx
	xor	edx, edx
	cmp	DWORD PTR tv85[ebp], 0
	sete	dl
	test	edx, edx
	jne	SHORT $LN1@QueryInter
	mov	eax, DWORD PTR _guidICvMissionData1
	mov	DWORD PTR $T217966[ebp], eax
	mov	ecx, DWORD PTR _guidICvMissionData1+4
	mov	DWORD PTR $T217966[ebp+4], ecx
	mov	edx, DWORD PTR _guidICvMissionData1+8
	mov	DWORD PTR $T217966[ebp+8], edx
	mov	eax, DWORD PTR _guidICvMissionData1+12
	mov	DWORD PTR $T217966[ebp+12], eax
	mov	ecx, DWORD PTR $T217966[ebp]
	mov	DWORD PTR $T217965[ebp], ecx
	mov	edx, DWORD PTR $T217966[ebp+4]
	mov	DWORD PTR $T217965[ebp+4], edx
	mov	eax, DWORD PTR $T217966[ebp+8]
	mov	DWORD PTR $T217965[ebp+8], eax
	mov	ecx, DWORD PTR $T217966[ebp+12]
	mov	DWORD PTR $T217965[ebp+12], ecx
	mov	ecx, 16					; 00000010H
	lea	edi, DWORD PTR $T217965[ebp]
	lea	esi, DWORD PTR _guidInterface$[ebp]
	xor	edx, edx
	mov	DWORD PTR tv161[ebp], edx
	repe cmpsb
	je	SHORT $LN18@QueryInter
	sbb	eax, eax
	sbb	eax, -1
	mov	DWORD PTR tv161[ebp], eax
$LN18@QueryInter:
	mov	ecx, DWORD PTR tv161[ebp]
	mov	DWORD PTR tv90[ebp], ecx
	xor	edx, edx
	cmp	DWORD PTR tv90[ebp], 0
	sete	dl
	test	edx, edx
	je	SHORT $LN2@QueryInter
$LN1@QueryInter:

; 30   : 	{
; 31   : 		IncrementReference();

	mov	ecx, DWORD PTR _this$[ebp]
	call	?IncrementReference@CvDllMissionData@@QAEIXZ ; CvDllMissionData::IncrementReference

; 32   : 		return this;

	mov	eax, DWORD PTR _this$[ebp]
	jmp	SHORT $LN3@QueryInter
$LN2@QueryInter:

; 33   : 	}
; 34   : 
; 35   : 	return NULL;

	xor	eax, eax
$LN3@QueryInter:

; 36   : }

	pop	edi
	pop	esi
	mov	esp, ebp
	pop	ebp
	ret	20					; 00000014H
?QueryInterface@CvDllMissionData@@UAGPAXU_GUID@@@Z ENDP	; CvDllMissionData::QueryInterface
; Function compile flags: /Odtp
_TEXT	ENDS
;	COMDAT ?IncrementReference@CvDllMissionData@@QAEIXZ
_TEXT	SEGMENT
_this$ = -4						; size = 4
?IncrementReference@CvDllMissionData@@QAEIXZ PROC	; CvDllMissionData::IncrementReference, COMDAT
; _this$ = ecx

; 39   : {

	push	ebp
	mov	ebp, esp
	push	ecx
	mov	DWORD PTR _this$[ebp], ecx

; 40   : 	++m_uiRefCount;

	mov	eax, DWORD PTR _this$[ebp]
	mov	ecx, DWORD PTR [eax+4]
	add	ecx, 1
	mov	edx, DWORD PTR _this$[ebp]
	mov	DWORD PTR [edx+4], ecx

; 41   : 	return m_uiRefCount;

	mov	eax, DWORD PTR _this$[ebp]
	mov	eax, DWORD PTR [eax+4]

; 42   : }

	mov	esp, ebp
	pop	ebp
	ret	0
?IncrementReference@CvDllMissionData@@QAEIXZ ENDP	; CvDllMissionData::IncrementReference
_TEXT	ENDS
PUBLIC	??3CvDllMissionData@@SAXPAX@Z			; CvDllMissionData::operator delete
PUBLIC	?DecrementReference@CvDllMissionData@@QAEIXZ	; CvDllMissionData::DecrementReference
; Function compile flags: /Odtp
;	COMDAT ?DecrementReference@CvDllMissionData@@QAEIXZ
_TEXT	SEGMENT
tv70 = -16						; size = 4
_this$ = -12						; size = 4
$T217998 = -8						; size = 4
$T217997 = -4						; size = 4
?DecrementReference@CvDllMissionData@@QAEIXZ PROC	; CvDllMissionData::DecrementReference, COMDAT
; _this$ = ecx

; 45   : {

	push	ebp
	mov	ebp, esp
	sub	esp, 16					; 00000010H
	mov	DWORD PTR _this$[ebp], ecx

; 46   : 	if(m_uiRefCount == 1)

	mov	eax, DWORD PTR _this$[ebp]
	cmp	DWORD PTR [eax+4], 1
	jne	SHORT $LN2@DecrementR

; 47   : 	{
; 48   : 		delete this;

	mov	ecx, DWORD PTR _this$[ebp]
	mov	DWORD PTR $T217998[ebp], ecx
	mov	edx, DWORD PTR $T217998[ebp]
	mov	DWORD PTR $T217997[ebp], edx
	cmp	DWORD PTR $T217997[ebp], 0
	je	SHORT $LN5@DecrementR
	mov	ecx, DWORD PTR $T217997[ebp]
	call	??1CvDllMissionData@@QAE@XZ		; CvDllMissionData::~CvDllMissionData
	mov	eax, 1
	and	eax, 1
	je	SHORT $LN8@DecrementR
	mov	ecx, DWORD PTR $T217997[ebp]
	push	ecx
	call	??3CvDllMissionData@@SAXPAX@Z		; CvDllMissionData::operator delete
	add	esp, 4
$LN8@DecrementR:
	mov	edx, DWORD PTR $T217997[ebp]
	mov	DWORD PTR tv70[ebp], edx
	jmp	SHORT $LN6@DecrementR
$LN5@DecrementR:
	mov	DWORD PTR tv70[ebp], 0
$LN6@DecrementR:

; 49   : 		return 0;

	xor	eax, eax
	jmp	SHORT $LN3@DecrementR

; 50   : 	}
; 51   : 	else

	jmp	SHORT $LN3@DecrementR
$LN2@DecrementR:

; 52   : 	{
; 53   : 		--m_uiRefCount;

	mov	eax, DWORD PTR _this$[ebp]
	mov	ecx, DWORD PTR [eax+4]
	sub	ecx, 1
	mov	edx, DWORD PTR _this$[ebp]
	mov	DWORD PTR [edx+4], ecx

; 54   : 		return m_uiRefCount;

	mov	eax, DWORD PTR _this$[ebp]
	mov	eax, DWORD PTR [eax+4]
$LN3@DecrementR:

; 55   : 	}
; 56   : }

	mov	esp, ebp
	pop	ebp
	ret	0
?DecrementReference@CvDllMissionData@@QAEIXZ ENDP	; CvDllMissionData::DecrementReference
_TEXT	ENDS
PUBLIC	?GetReferenceCount@CvDllMissionData@@QAEIXZ	; CvDllMissionData::GetReferenceCount
; Function compile flags: /Odtp
;	COMDAT ?GetReferenceCount@CvDllMissionData@@QAEIXZ
_TEXT	SEGMENT
_this$ = -4						; size = 4
?GetReferenceCount@CvDllMissionData@@QAEIXZ PROC	; CvDllMissionData::GetReferenceCount, COMDAT
; _this$ = ecx

; 59   : {

	push	ebp
	mov	ebp, esp
	push	ecx
	mov	DWORD PTR _this$[ebp], ecx

; 60   : 	return m_uiRefCount;

	mov	eax, DWORD PTR _this$[ebp]
	mov	eax, DWORD PTR [eax+4]

; 61   : }

	mov	esp, ebp
	pop	ebp
	ret	0
?GetReferenceCount@CvDllMissionData@@QAEIXZ ENDP	; CvDllMissionData::GetReferenceCount
; Function compile flags: /Odtp
_TEXT	ENDS
;	COMDAT ?Destroy@CvDllMissionData@@EAGXXZ
_TEXT	SEGMENT
_this$ = 8						; size = 4
?Destroy@CvDllMissionData@@EAGXXZ PROC			; CvDllMissionData::Destroy, COMDAT

; 64   : {

	push	ebp
	mov	ebp, esp

; 65   : 	DecrementReference();

	mov	ecx, DWORD PTR _this$[ebp]
	call	?DecrementReference@CvDllMissionData@@QAEIXZ ; CvDllMissionData::DecrementReference

; 66   : }

	pop	ebp
	ret	4
?Destroy@CvDllMissionData@@EAGXXZ ENDP			; CvDllMissionData::Destroy
_TEXT	ENDS
EXTRN	?Free@CvDllGameContext@@SAXPAX@Z:PROC		; CvDllGameContext::Free
; Function compile flags: /Odtp
;	COMDAT ??3CvDllMissionData@@SAXPAX@Z
_TEXT	SEGMENT
_p$ = 8							; size = 4
??3CvDllMissionData@@SAXPAX@Z PROC			; CvDllMissionData::operator delete, COMDAT

; 69   : {

	push	ebp
	mov	ebp, esp

; 70   : 	CvDllGameContext::Free(p);

	mov	eax, DWORD PTR _p$[ebp]
	push	eax
	call	?Free@CvDllGameContext@@SAXPAX@Z	; CvDllGameContext::Free
	add	esp, 4

; 71   : }

	pop	ebp
	ret	0
??3CvDllMissionData@@SAXPAX@Z ENDP			; CvDllMissionData::operator delete
_TEXT	ENDS
PUBLIC	??2CvDllMissionData@@SAPAXI@Z			; CvDllMissionData::operator new
EXTRN	?Allocate@CvDllGameContext@@SAPAXI@Z:PROC	; CvDllGameContext::Allocate
; Function compile flags: /Odtp
;	COMDAT ??2CvDllMissionData@@SAPAXI@Z
_TEXT	SEGMENT
_bytes$ = 8						; size = 4
??2CvDllMissionData@@SAPAXI@Z PROC			; CvDllMissionData::operator new, COMDAT

; 74   : {

	push	ebp
	mov	ebp, esp

; 75   : 	return CvDllGameContext::Allocate(bytes);

	mov	eax, DWORD PTR _bytes$[ebp]
	push	eax
	call	?Allocate@CvDllGameContext@@SAPAXI@Z	; CvDllGameContext::Allocate
	add	esp, 4

; 76   : }

	pop	ebp
	ret	0
??2CvDllMissionData@@SAPAXI@Z ENDP			; CvDllMissionData::operator new
; Function compile flags: /Odtp
_TEXT	ENDS
;	COMDAT ?GetData1@CvDllMissionData@@UBGHXZ
_TEXT	SEGMENT
_this$ = 8						; size = 4
?GetData1@CvDllMissionData@@UBGHXZ PROC			; CvDllMissionData::GetData1, COMDAT

; 79   : {

	push	ebp
	mov	ebp, esp

; 80   : 	return m_pMissionData->iData1;

	mov	eax, DWORD PTR _this$[ebp]
	mov	ecx, DWORD PTR [eax+8]
	mov	eax, DWORD PTR [ecx+4]

; 81   : }

	pop	ebp
	ret	4
?GetData1@CvDllMissionData@@UBGHXZ ENDP			; CvDllMissionData::GetData1
; Function compile flags: /Odtp
_TEXT	ENDS
;	COMDAT ?GetData2@CvDllMissionData@@UBGHXZ
_TEXT	SEGMENT
_this$ = 8						; size = 4
?GetData2@CvDllMissionData@@UBGHXZ PROC			; CvDllMissionData::GetData2, COMDAT

; 84   : {

	push	ebp
	mov	ebp, esp

; 85   : 	return m_pMissionData->iData2;

	mov	eax, DWORD PTR _this$[ebp]
	mov	ecx, DWORD PTR [eax+8]
	mov	eax, DWORD PTR [ecx+8]

; 86   : }

	pop	ebp
	ret	4
?GetData2@CvDllMissionData@@UBGHXZ ENDP			; CvDllMissionData::GetData2
; Function compile flags: /Odtp
_TEXT	ENDS
;	COMDAT ?GetFlags@CvDllMissionData@@UBGHXZ
_TEXT	SEGMENT
_this$ = 8						; size = 4
?GetFlags@CvDllMissionData@@UBGHXZ PROC			; CvDllMissionData::GetFlags, COMDAT

; 89   : {

	push	ebp
	mov	ebp, esp

; 90   : 	return m_pMissionData->iFlags;

	mov	eax, DWORD PTR _this$[ebp]
	mov	ecx, DWORD PTR [eax+8]
	mov	eax, DWORD PTR [ecx+12]

; 91   : }

	pop	ebp
	ret	4
?GetFlags@CvDllMissionData@@UBGHXZ ENDP			; CvDllMissionData::GetFlags
; Function compile flags: /Odtp
_TEXT	ENDS
;	COMDAT ?GetPushTurn@CvDllMissionData@@UBGHXZ
_TEXT	SEGMENT
_this$ = 8						; size = 4
?GetPushTurn@CvDllMissionData@@UBGHXZ PROC		; CvDllMissionData::GetPushTurn, COMDAT

; 94   : {

	push	ebp
	mov	ebp, esp

; 95   : 	return m_pMissionData->iPushTurn;

	mov	eax, DWORD PTR _this$[ebp]
	mov	ecx, DWORD PTR [eax+8]
	mov	eax, DWORD PTR [ecx+16]

; 96   : }

	pop	ebp
	ret	4
?GetPushTurn@CvDllMissionData@@UBGHXZ ENDP		; CvDllMissionData::GetPushTurn
; Function compile flags: /Odtp
_TEXT	ENDS
;	COMDAT ?GetMissionType@CvDllMissionData@@UBG?AW4MissionTypes@@XZ
_TEXT	SEGMENT
_this$ = 8						; size = 4
?GetMissionType@CvDllMissionData@@UBG?AW4MissionTypes@@XZ PROC ; CvDllMissionData::GetMissionType, COMDAT

; 99   : {

	push	ebp
	mov	ebp, esp

; 100  : 	return m_pMissionData->eMissionType;

	mov	eax, DWORD PTR _this$[ebp]
	mov	ecx, DWORD PTR [eax+8]
	mov	eax, DWORD PTR [ecx]

; 101  : }

	pop	ebp
	ret	4
?GetMissionType@CvDllMissionData@@UBG?AW4MissionTypes@@XZ ENDP ; CvDllMissionData::GetMissionType
_TEXT	ENDS
END
