; Listing generated by Microsoft (R) Optimizing Compiler Version 15.00.30729.01 

	TITLE	D:\sources\Lekmod_git\checkout\LEKMOD_DLL\CvGameCoreDLL_Expansion2\CvDllBuildInfo.cpp
	.686P
	.XMM
	include listing.inc
	.model	flat

INCLUDELIB MSVCRT
INCLUDELIB OLDNAMES

PUBLIC	??_C@_05OCFELOIJ@1?40?40?$AA@			; `string'
CONST	SEGMENT
_guidICvUnknown DD 0d89ba82fH
	DW	09fa3H
	DW	04696H
	DB	0b3H
	DB	0f4H
	DB	052H
	DB	0bdH
	DB	0b1H
	DB	01H
	DB	0cfH
	DB	0b2H
_guidICvBuildInfo1 DD 0d347c353H
	DW	02ba5H
	DW	04da7H
	DB	088H
	DB	01fH
	DB	046H
	DB	0a5H
	DB	0f8H
	DB	060H
	DB	0b7H
	DB	04aH
CONST	ENDS
_DATA	SEGMENT
_CIV5_XP2_DLL_VERSION DD FLAT:??_C@_05OCFELOIJ@1?40?40?$AA@
_DATA	ENDS
;	COMDAT ??_C@_05OCFELOIJ@1?40?40?$AA@
CONST	SEGMENT
??_C@_05OCFELOIJ@1?40?40?$AA@ DB '1.0.0', 00H		; `string'
CONST	ENDS
PUBLIC	??_7CvDllBuildInfo@@6B@				; CvDllBuildInfo::`vftable'
PUBLIC	??_7ICvBuildInfo1@@6B@				; ICvBuildInfo1::`vftable'
PUBLIC	??_7ICvUnknown@@6B@				; ICvUnknown::`vftable'
PUBLIC	??0CvDllBuildInfo@@QAE@PAVCvBuildInfo@@@Z	; CvDllBuildInfo::CvDllBuildInfo
PUBLIC	?QueryInterface@CvDllBuildInfo@@UAGPAXU_GUID@@@Z ; CvDllBuildInfo::QueryInterface
PUBLIC	?Destroy@CvDllBuildInfo@@EAGXXZ			; CvDllBuildInfo::Destroy
PUBLIC	?GetType@CvDllBuildInfo@@UAGPBDXZ		; CvDllBuildInfo::GetType
PUBLIC	?GetImprovement@CvDllBuildInfo@@UAGHXZ		; CvDllBuildInfo::GetImprovement
PUBLIC	?GetRoute@CvDllBuildInfo@@UAGHXZ		; CvDllBuildInfo::GetRoute
EXTRN	__purecall:PROC
;	COMDAT ??_7CvDllBuildInfo@@6B@
; File d:\sources\lekmod_git\checkout\lekmod_dll\cvgamecoredll_expansion2\cvdllbuildinfo.cpp
CONST	SEGMENT
??_7CvDllBuildInfo@@6B@ DD FLAT:?QueryInterface@CvDllBuildInfo@@UAGPAXU_GUID@@@Z ; CvDllBuildInfo::`vftable'
	DD	FLAT:?Destroy@CvDllBuildInfo@@EAGXXZ
	DD	FLAT:?GetType@CvDllBuildInfo@@UAGPBDXZ
	DD	FLAT:?GetImprovement@CvDllBuildInfo@@UAGHXZ
	DD	FLAT:?GetRoute@CvDllBuildInfo@@UAGHXZ
CONST	ENDS
;	COMDAT ??_7ICvBuildInfo1@@6B@
CONST	SEGMENT
??_7ICvBuildInfo1@@6B@ DD FLAT:__purecall		; ICvBuildInfo1::`vftable'
	DD	FLAT:__purecall
	DD	FLAT:__purecall
	DD	FLAT:__purecall
	DD	FLAT:__purecall
CONST	ENDS
;	COMDAT ??_7ICvUnknown@@6B@
CONST	SEGMENT
??_7ICvUnknown@@6B@ DD FLAT:__purecall			; ICvUnknown::`vftable'
	DD	FLAT:__purecall
; Function compile flags: /Odtp
CONST	ENDS
;	COMDAT ??0CvDllBuildInfo@@QAE@PAVCvBuildInfo@@@Z
_TEXT	SEGMENT
_this$ = -4						; size = 4
_pBuildInfo$ = 8					; size = 4
??0CvDllBuildInfo@@QAE@PAVCvBuildInfo@@@Z PROC		; CvDllBuildInfo::CvDllBuildInfo, COMDAT
; _this$ = ecx

; 19   : {

	push	ebp
	mov	ebp, esp
	push	ecx
	mov	DWORD PTR _this$[ebp], ecx
	mov	eax, DWORD PTR _this$[ebp]
	mov	DWORD PTR [eax], OFFSET ??_7ICvUnknown@@6B@
	mov	ecx, DWORD PTR _this$[ebp]
	mov	DWORD PTR [ecx], OFFSET ??_7ICvBuildInfo1@@6B@
	mov	edx, DWORD PTR _this$[ebp]
	mov	DWORD PTR [edx], OFFSET ??_7CvDllBuildInfo@@6B@
	mov	eax, DWORD PTR _this$[ebp]
	mov	DWORD PTR [eax+4], 1
	mov	ecx, DWORD PTR _this$[ebp]
	mov	edx, DWORD PTR _pBuildInfo$[ebp]
	mov	DWORD PTR [ecx+8], edx

; 20   : 	FAssertMsg(pBuildInfo != NULL, "SHOULD NOT HAPPEN");
; 21   : }

	mov	eax, DWORD PTR _this$[ebp]
	mov	esp, ebp
	pop	ebp
	ret	4
??0CvDllBuildInfo@@QAE@PAVCvBuildInfo@@@Z ENDP		; CvDllBuildInfo::CvDllBuildInfo
_TEXT	ENDS
PUBLIC	??1CvDllBuildInfo@@QAE@XZ			; CvDllBuildInfo::~CvDllBuildInfo
; Function compile flags: /Odtp
;	COMDAT ??1CvDllBuildInfo@@QAE@XZ
_TEXT	SEGMENT
_this$ = -4						; size = 4
??1CvDllBuildInfo@@QAE@XZ PROC				; CvDllBuildInfo::~CvDllBuildInfo, COMDAT
; _this$ = ecx

; 24   : {

	push	ebp
	mov	ebp, esp
	push	ecx
	mov	DWORD PTR _this$[ebp], ecx
	mov	eax, DWORD PTR _this$[ebp]
	mov	DWORD PTR [eax], OFFSET ??_7CvDllBuildInfo@@6B@

; 25   : }

	mov	esp, ebp
	pop	ebp
	ret	0
??1CvDllBuildInfo@@QAE@XZ ENDP				; CvDllBuildInfo::~CvDllBuildInfo
_TEXT	ENDS
PUBLIC	?IncrementReference@CvDllBuildInfo@@QAEIXZ	; CvDllBuildInfo::IncrementReference
; Function compile flags: /Odtp
;	COMDAT ?QueryInterface@CvDllBuildInfo@@UAGPAXU_GUID@@@Z
_TEXT	SEGMENT
tv90 = -88						; size = 4
tv161 = -84						; size = 4
tv85 = -80						; size = 4
tv137 = -76						; size = 4
$T217966 = -72						; size = 16
$T217965 = -56						; size = 16
$T217964 = -40						; size = 16
$T217963 = -20						; size = 16
_this$ = 8						; size = 4
_guidInterface$ = 12					; size = 16
?QueryInterface@CvDllBuildInfo@@UAGPAXU_GUID@@@Z PROC	; CvDllBuildInfo::QueryInterface, COMDAT

; 28   : {

	push	ebp
	mov	ebp, esp
	sub	esp, 88					; 00000058H
	push	esi
	push	edi

; 29   : 	if(guidInterface == ICvUnknown::GetInterfaceId() ||
; 30   : 	        guidInterface == ICvBuildInfo1::GetInterfaceId())

	mov	eax, DWORD PTR _guidICvUnknown
	mov	DWORD PTR $T217964[ebp], eax
	mov	ecx, DWORD PTR _guidICvUnknown+4
	mov	DWORD PTR $T217964[ebp+4], ecx
	mov	edx, DWORD PTR _guidICvUnknown+8
	mov	DWORD PTR $T217964[ebp+8], edx
	mov	eax, DWORD PTR _guidICvUnknown+12
	mov	DWORD PTR $T217964[ebp+12], eax
	mov	ecx, DWORD PTR $T217964[ebp]
	mov	DWORD PTR $T217963[ebp], ecx
	mov	edx, DWORD PTR $T217964[ebp+4]
	mov	DWORD PTR $T217963[ebp+4], edx
	mov	eax, DWORD PTR $T217964[ebp+8]
	mov	DWORD PTR $T217963[ebp+8], eax
	mov	ecx, DWORD PTR $T217964[ebp+12]
	mov	DWORD PTR $T217963[ebp+12], ecx
	mov	ecx, 16					; 00000010H
	lea	edi, DWORD PTR $T217963[ebp]
	lea	esi, DWORD PTR _guidInterface$[ebp]
	xor	edx, edx
	mov	DWORD PTR tv137[ebp], edx
	repe cmpsb
	je	SHORT $LN17@QueryInter
	sbb	eax, eax
	sbb	eax, -1
	mov	DWORD PTR tv137[ebp], eax
$LN17@QueryInter:
	mov	ecx, DWORD PTR tv137[ebp]
	mov	DWORD PTR tv85[ebp], ecx
	xor	edx, edx
	cmp	DWORD PTR tv85[ebp], 0
	sete	dl
	test	edx, edx
	jne	SHORT $LN1@QueryInter
	mov	eax, DWORD PTR _guidICvBuildInfo1
	mov	DWORD PTR $T217966[ebp], eax
	mov	ecx, DWORD PTR _guidICvBuildInfo1+4
	mov	DWORD PTR $T217966[ebp+4], ecx
	mov	edx, DWORD PTR _guidICvBuildInfo1+8
	mov	DWORD PTR $T217966[ebp+8], edx
	mov	eax, DWORD PTR _guidICvBuildInfo1+12
	mov	DWORD PTR $T217966[ebp+12], eax
	mov	ecx, DWORD PTR $T217966[ebp]
	mov	DWORD PTR $T217965[ebp], ecx
	mov	edx, DWORD PTR $T217966[ebp+4]
	mov	DWORD PTR $T217965[ebp+4], edx
	mov	eax, DWORD PTR $T217966[ebp+8]
	mov	DWORD PTR $T217965[ebp+8], eax
	mov	ecx, DWORD PTR $T217966[ebp+12]
	mov	DWORD PTR $T217965[ebp+12], ecx
	mov	ecx, 16					; 00000010H
	lea	edi, DWORD PTR $T217965[ebp]
	lea	esi, DWORD PTR _guidInterface$[ebp]
	xor	edx, edx
	mov	DWORD PTR tv161[ebp], edx
	repe cmpsb
	je	SHORT $LN18@QueryInter
	sbb	eax, eax
	sbb	eax, -1
	mov	DWORD PTR tv161[ebp], eax
$LN18@QueryInter:
	mov	ecx, DWORD PTR tv161[ebp]
	mov	DWORD PTR tv90[ebp], ecx
	xor	edx, edx
	cmp	DWORD PTR tv90[ebp], 0
	sete	dl
	test	edx, edx
	je	SHORT $LN2@QueryInter
$LN1@QueryInter:

; 31   : 	{
; 32   : 		IncrementReference();

	mov	ecx, DWORD PTR _this$[ebp]
	call	?IncrementReference@CvDllBuildInfo@@QAEIXZ ; CvDllBuildInfo::IncrementReference

; 33   : 		return this;

	mov	eax, DWORD PTR _this$[ebp]
	jmp	SHORT $LN3@QueryInter
$LN2@QueryInter:

; 34   : 	}
; 35   : 
; 36   : 	return NULL;

	xor	eax, eax
$LN3@QueryInter:

; 37   : }

	pop	edi
	pop	esi
	mov	esp, ebp
	pop	ebp
	ret	20					; 00000014H
?QueryInterface@CvDllBuildInfo@@UAGPAXU_GUID@@@Z ENDP	; CvDllBuildInfo::QueryInterface
; Function compile flags: /Odtp
_TEXT	ENDS
;	COMDAT ?IncrementReference@CvDllBuildInfo@@QAEIXZ
_TEXT	SEGMENT
_this$ = -4						; size = 4
?IncrementReference@CvDllBuildInfo@@QAEIXZ PROC		; CvDllBuildInfo::IncrementReference, COMDAT
; _this$ = ecx

; 40   : {

	push	ebp
	mov	ebp, esp
	push	ecx
	mov	DWORD PTR _this$[ebp], ecx

; 41   : 	++m_uiRefCount;

	mov	eax, DWORD PTR _this$[ebp]
	mov	ecx, DWORD PTR [eax+4]
	add	ecx, 1
	mov	edx, DWORD PTR _this$[ebp]
	mov	DWORD PTR [edx+4], ecx

; 42   : 	return m_uiRefCount;

	mov	eax, DWORD PTR _this$[ebp]
	mov	eax, DWORD PTR [eax+4]

; 43   : }

	mov	esp, ebp
	pop	ebp
	ret	0
?IncrementReference@CvDllBuildInfo@@QAEIXZ ENDP		; CvDllBuildInfo::IncrementReference
_TEXT	ENDS
PUBLIC	??3CvDllBuildInfo@@SAXPAX@Z			; CvDllBuildInfo::operator delete
PUBLIC	?DecrementReference@CvDllBuildInfo@@QAEIXZ	; CvDllBuildInfo::DecrementReference
; Function compile flags: /Odtp
;	COMDAT ?DecrementReference@CvDllBuildInfo@@QAEIXZ
_TEXT	SEGMENT
tv70 = -16						; size = 4
_this$ = -12						; size = 4
$T217998 = -8						; size = 4
$T217997 = -4						; size = 4
?DecrementReference@CvDllBuildInfo@@QAEIXZ PROC		; CvDllBuildInfo::DecrementReference, COMDAT
; _this$ = ecx

; 46   : {

	push	ebp
	mov	ebp, esp
	sub	esp, 16					; 00000010H
	mov	DWORD PTR _this$[ebp], ecx

; 47   : 	if(m_uiRefCount == 1)

	mov	eax, DWORD PTR _this$[ebp]
	cmp	DWORD PTR [eax+4], 1
	jne	SHORT $LN2@DecrementR

; 48   : 	{
; 49   : 		delete this;

	mov	ecx, DWORD PTR _this$[ebp]
	mov	DWORD PTR $T217998[ebp], ecx
	mov	edx, DWORD PTR $T217998[ebp]
	mov	DWORD PTR $T217997[ebp], edx
	cmp	DWORD PTR $T217997[ebp], 0
	je	SHORT $LN5@DecrementR
	mov	ecx, DWORD PTR $T217997[ebp]
	call	??1CvDllBuildInfo@@QAE@XZ		; CvDllBuildInfo::~CvDllBuildInfo
	mov	eax, 1
	and	eax, 1
	je	SHORT $LN8@DecrementR
	mov	ecx, DWORD PTR $T217997[ebp]
	push	ecx
	call	??3CvDllBuildInfo@@SAXPAX@Z		; CvDllBuildInfo::operator delete
	add	esp, 4
$LN8@DecrementR:
	mov	edx, DWORD PTR $T217997[ebp]
	mov	DWORD PTR tv70[ebp], edx
	jmp	SHORT $LN6@DecrementR
$LN5@DecrementR:
	mov	DWORD PTR tv70[ebp], 0
$LN6@DecrementR:

; 50   : 		return 0;

	xor	eax, eax
	jmp	SHORT $LN3@DecrementR

; 51   : 	}
; 52   : 	else

	jmp	SHORT $LN3@DecrementR
$LN2@DecrementR:

; 53   : 	{
; 54   : 		--m_uiRefCount;

	mov	eax, DWORD PTR _this$[ebp]
	mov	ecx, DWORD PTR [eax+4]
	sub	ecx, 1
	mov	edx, DWORD PTR _this$[ebp]
	mov	DWORD PTR [edx+4], ecx

; 55   : 		return m_uiRefCount;

	mov	eax, DWORD PTR _this$[ebp]
	mov	eax, DWORD PTR [eax+4]
$LN3@DecrementR:

; 56   : 	}
; 57   : }

	mov	esp, ebp
	pop	ebp
	ret	0
?DecrementReference@CvDllBuildInfo@@QAEIXZ ENDP		; CvDllBuildInfo::DecrementReference
_TEXT	ENDS
PUBLIC	?GetReferenceCount@CvDllBuildInfo@@QAEIXZ	; CvDllBuildInfo::GetReferenceCount
; Function compile flags: /Odtp
;	COMDAT ?GetReferenceCount@CvDllBuildInfo@@QAEIXZ
_TEXT	SEGMENT
_this$ = -4						; size = 4
?GetReferenceCount@CvDllBuildInfo@@QAEIXZ PROC		; CvDllBuildInfo::GetReferenceCount, COMDAT
; _this$ = ecx

; 60   : {

	push	ebp
	mov	ebp, esp
	push	ecx
	mov	DWORD PTR _this$[ebp], ecx

; 61   : 	return m_uiRefCount;

	mov	eax, DWORD PTR _this$[ebp]
	mov	eax, DWORD PTR [eax+4]

; 62   : }

	mov	esp, ebp
	pop	ebp
	ret	0
?GetReferenceCount@CvDllBuildInfo@@QAEIXZ ENDP		; CvDllBuildInfo::GetReferenceCount
; Function compile flags: /Odtp
_TEXT	ENDS
;	COMDAT ?Destroy@CvDllBuildInfo@@EAGXXZ
_TEXT	SEGMENT
_this$ = 8						; size = 4
?Destroy@CvDllBuildInfo@@EAGXXZ PROC			; CvDllBuildInfo::Destroy, COMDAT

; 65   : {

	push	ebp
	mov	ebp, esp

; 66   : 	DecrementReference();

	mov	ecx, DWORD PTR _this$[ebp]
	call	?DecrementReference@CvDllBuildInfo@@QAEIXZ ; CvDllBuildInfo::DecrementReference

; 67   : }

	pop	ebp
	ret	4
?Destroy@CvDllBuildInfo@@EAGXXZ ENDP			; CvDllBuildInfo::Destroy
_TEXT	ENDS
EXTRN	?Free@CvDllGameContext@@SAXPAX@Z:PROC		; CvDllGameContext::Free
; Function compile flags: /Odtp
;	COMDAT ??3CvDllBuildInfo@@SAXPAX@Z
_TEXT	SEGMENT
_p$ = 8							; size = 4
??3CvDllBuildInfo@@SAXPAX@Z PROC			; CvDllBuildInfo::operator delete, COMDAT

; 70   : {

	push	ebp
	mov	ebp, esp

; 71   : 	CvDllGameContext::Free(p);

	mov	eax, DWORD PTR _p$[ebp]
	push	eax
	call	?Free@CvDllGameContext@@SAXPAX@Z	; CvDllGameContext::Free
	add	esp, 4

; 72   : }

	pop	ebp
	ret	0
??3CvDllBuildInfo@@SAXPAX@Z ENDP			; CvDllBuildInfo::operator delete
_TEXT	ENDS
PUBLIC	??2CvDllBuildInfo@@SAPAXI@Z			; CvDllBuildInfo::operator new
EXTRN	?Allocate@CvDllGameContext@@SAPAXI@Z:PROC	; CvDllGameContext::Allocate
; Function compile flags: /Odtp
;	COMDAT ??2CvDllBuildInfo@@SAPAXI@Z
_TEXT	SEGMENT
_bytes$ = 8						; size = 4
??2CvDllBuildInfo@@SAPAXI@Z PROC			; CvDllBuildInfo::operator new, COMDAT

; 75   : {

	push	ebp
	mov	ebp, esp

; 76   : 	return CvDllGameContext::Allocate(bytes);

	mov	eax, DWORD PTR _bytes$[ebp]
	push	eax
	call	?Allocate@CvDllGameContext@@SAPAXI@Z	; CvDllGameContext::Allocate
	add	esp, 4

; 77   : }

	pop	ebp
	ret	0
??2CvDllBuildInfo@@SAPAXI@Z ENDP			; CvDllBuildInfo::operator new
_TEXT	ENDS
PUBLIC	?GetInstance@CvDllBuildInfo@@QAEPAVCvBuildInfo@@XZ ; CvDllBuildInfo::GetInstance
; Function compile flags: /Odtp
;	COMDAT ?GetInstance@CvDllBuildInfo@@QAEPAVCvBuildInfo@@XZ
_TEXT	SEGMENT
_this$ = -4						; size = 4
?GetInstance@CvDllBuildInfo@@QAEPAVCvBuildInfo@@XZ PROC	; CvDllBuildInfo::GetInstance, COMDAT
; _this$ = ecx

; 80   : {

	push	ebp
	mov	ebp, esp
	push	ecx
	mov	DWORD PTR _this$[ebp], ecx

; 81   : 	return m_pBuildInfo;

	mov	eax, DWORD PTR _this$[ebp]
	mov	eax, DWORD PTR [eax+8]

; 82   : }

	mov	esp, ebp
	pop	ebp
	ret	0
?GetInstance@CvDllBuildInfo@@QAEPAVCvBuildInfo@@XZ ENDP	; CvDllBuildInfo::GetInstance
_TEXT	ENDS
EXTRN	__imp_?c_str@?$basic_string@DU?$char_traits@D@std@@V?$allocator@D@2@@std@@QBEPBDXZ:PROC
; Function compile flags: /Odtp
;	COMDAT ?GetType@CvDllBuildInfo@@UAGPBDXZ
_TEXT	SEGMENT
$T218020 = -4						; size = 4
_this$ = 8						; size = 4
?GetType@CvDllBuildInfo@@UAGPBDXZ PROC			; CvDllBuildInfo::GetType, COMDAT

; 85   : {

	push	ebp
	mov	ebp, esp
	push	ecx

; 86   : 	return m_pBuildInfo->GetType();

	mov	eax, DWORD PTR _this$[ebp]
	mov	ecx, DWORD PTR [eax+8]
	mov	DWORD PTR $T218020[ebp], ecx
	mov	ecx, DWORD PTR $T218020[ebp]
	add	ecx, 176				; 000000b0H
	call	DWORD PTR __imp_?c_str@?$basic_string@DU?$char_traits@D@std@@V?$allocator@D@2@@std@@QBEPBDXZ

; 87   : }

	mov	esp, ebp
	pop	ebp
	ret	4
?GetType@CvDllBuildInfo@@UAGPBDXZ ENDP			; CvDllBuildInfo::GetType
_TEXT	ENDS
EXTRN	?getImprovement@CvBuildInfo@@QBEHXZ:PROC	; CvBuildInfo::getImprovement
; Function compile flags: /Odtp
;	COMDAT ?GetImprovement@CvDllBuildInfo@@UAGHXZ
_TEXT	SEGMENT
_this$ = 8						; size = 4
?GetImprovement@CvDllBuildInfo@@UAGHXZ PROC		; CvDllBuildInfo::GetImprovement, COMDAT

; 90   : {

	push	ebp
	mov	ebp, esp

; 91   : 	return m_pBuildInfo->getImprovement();

	mov	eax, DWORD PTR _this$[ebp]
	mov	ecx, DWORD PTR [eax+8]
	call	?getImprovement@CvBuildInfo@@QBEHXZ	; CvBuildInfo::getImprovement

; 92   : }

	pop	ebp
	ret	4
?GetImprovement@CvDllBuildInfo@@UAGHXZ ENDP		; CvDllBuildInfo::GetImprovement
_TEXT	ENDS
EXTRN	?getRoute@CvBuildInfo@@QBEHXZ:PROC		; CvBuildInfo::getRoute
; Function compile flags: /Odtp
;	COMDAT ?GetRoute@CvDllBuildInfo@@UAGHXZ
_TEXT	SEGMENT
_this$ = 8						; size = 4
?GetRoute@CvDllBuildInfo@@UAGHXZ PROC			; CvDllBuildInfo::GetRoute, COMDAT

; 95   : {

	push	ebp
	mov	ebp, esp

; 96   : 	return m_pBuildInfo->getRoute();

	mov	eax, DWORD PTR _this$[ebp]
	mov	ecx, DWORD PTR [eax+8]
	call	?getRoute@CvBuildInfo@@QBEHXZ		; CvBuildInfo::getRoute

; 97   : }

	pop	ebp
	ret	4
?GetRoute@CvDllBuildInfo@@UAGHXZ ENDP			; CvDllBuildInfo::GetRoute
_TEXT	ENDS
END
