; Listing generated by Microsoft (R) Optimizing Compiler Version 15.00.30729.01 

	TITLE	D:\sources\Lekmod_git\checkout\LEKMOD_DLL\CvGameCoreDLL_Expansion2\CvDllDiplomacyAI.cpp
	.686P
	.XMM
	include listing.inc
	.model	flat

INCLUDELIB MSVCRT
INCLUDELIB OLDNAMES

PUBLIC	??_C@_05OCFELOIJ@1?40?40?$AA@			; `string'
PUBLIC	?NO_QUEST_DATA@CvMinorCivQuest@@2HB		; CvMinorCivQuest::NO_QUEST_DATA
PUBLIC	?NO_TURN@CvMinorCivQuest@@2HB			; CvMinorCivQuest::NO_TURN
CONST	SEGMENT
_guidICvUnknown DD 0d89ba82fH
	DW	09fa3H
	DW	04696H
	DB	0b3H
	DB	0f4H
	DB	052H
	DB	0bdH
	DB	0b1H
	DB	01H
	DB	0cfH
	DB	0b2H
_guidICvDiplomacyAI1 DD 05215a1c1H
	DW	05649H
	DW	046a7H
	DB	0a0H
	DB	0d2H
	DB	058H
	DB	019H
	DB	053H
	DB	06aH
	DB	062H
	DB	0f1H
CONST	ENDS
_DATA	SEGMENT
_CIV5_XP2_DLL_VERSION DD FLAT:??_C@_05OCFELOIJ@1?40?40?$AA@
_DATA	ENDS
;	COMDAT ??_C@_05OCFELOIJ@1?40?40?$AA@
CONST	SEGMENT
??_C@_05OCFELOIJ@1?40?40?$AA@ DB '1.0.0', 00H		; `string'
CONST	ENDS
;	COMDAT ?NO_TURN@CvMinorCivQuest@@2HB
CONST	SEGMENT
?NO_TURN@CvMinorCivQuest@@2HB DD 0ffffffffH		; CvMinorCivQuest::NO_TURN
CONST	ENDS
;	COMDAT ?NO_QUEST_DATA@CvMinorCivQuest@@2HB
CONST	SEGMENT
?NO_QUEST_DATA@CvMinorCivQuest@@2HB DD 0ffffffffH	; CvMinorCivQuest::NO_QUEST_DATA
CONST	ENDS
PUBLIC	??_7CvDllDiplomacyAI@@6B@			; CvDllDiplomacyAI::`vftable'
PUBLIC	??_7ICvDiplomacyAI1@@6B@			; ICvDiplomacyAI1::`vftable'
PUBLIC	??_7ICvUnknown@@6B@				; ICvUnknown::`vftable'
PUBLIC	??0CvDllDiplomacyAI@@QAE@PAVCvDiplomacyAI@@@Z	; CvDllDiplomacyAI::CvDllDiplomacyAI
PUBLIC	?QueryInterface@CvDllDiplomacyAI@@UAGPAXU_GUID@@@Z ; CvDllDiplomacyAI::QueryInterface
PUBLIC	?Destroy@CvDllDiplomacyAI@@EAGXXZ		; CvDllDiplomacyAI::Destroy
PUBLIC	?DoBeginDiploWithHuman@CvDllDiplomacyAI@@UAGXXZ	; CvDllDiplomacyAI::DoBeginDiploWithHuman
PUBLIC	?GetDiploStringForMessage@CvDllDiplomacyAI@@UAGPBDW4DiploMessageTypes@@W4PlayerTypes@@PBD@Z ; CvDllDiplomacyAI::GetDiploStringForMessage
PUBLIC	?TestUIDiploStatement@CvDllDiplomacyAI@@UAGXW4PlayerTypes@@W4DiploStatementTypes@@H@Z ; CvDllDiplomacyAI::TestUIDiploStatement
EXTRN	__purecall:PROC
;	COMDAT ??_7CvDllDiplomacyAI@@6B@
; File d:\sources\lekmod_git\checkout\lekmod_dll\cvgamecoredll_expansion2\cvdlldiplomacyai.cpp
CONST	SEGMENT
??_7CvDllDiplomacyAI@@6B@ DD FLAT:?QueryInterface@CvDllDiplomacyAI@@UAGPAXU_GUID@@@Z ; CvDllDiplomacyAI::`vftable'
	DD	FLAT:?Destroy@CvDllDiplomacyAI@@EAGXXZ
	DD	FLAT:?DoBeginDiploWithHuman@CvDllDiplomacyAI@@UAGXXZ
	DD	FLAT:?GetDiploStringForMessage@CvDllDiplomacyAI@@UAGPBDW4DiploMessageTypes@@W4PlayerTypes@@PBD@Z
	DD	FLAT:?TestUIDiploStatement@CvDllDiplomacyAI@@UAGXW4PlayerTypes@@W4DiploStatementTypes@@H@Z
CONST	ENDS
;	COMDAT ??_7ICvDiplomacyAI1@@6B@
CONST	SEGMENT
??_7ICvDiplomacyAI1@@6B@ DD FLAT:__purecall		; ICvDiplomacyAI1::`vftable'
	DD	FLAT:__purecall
	DD	FLAT:__purecall
	DD	FLAT:__purecall
	DD	FLAT:__purecall
CONST	ENDS
;	COMDAT ??_7ICvUnknown@@6B@
CONST	SEGMENT
??_7ICvUnknown@@6B@ DD FLAT:__purecall			; ICvUnknown::`vftable'
	DD	FLAT:__purecall
; Function compile flags: /Odtp
CONST	ENDS
;	COMDAT ??0CvDllDiplomacyAI@@QAE@PAVCvDiplomacyAI@@@Z
_TEXT	SEGMENT
_this$ = -4						; size = 4
_pDiplomacyAI$ = 8					; size = 4
??0CvDllDiplomacyAI@@QAE@PAVCvDiplomacyAI@@@Z PROC	; CvDllDiplomacyAI::CvDllDiplomacyAI, COMDAT
; _this$ = ecx

; 21   : {

	push	ebp
	mov	ebp, esp
	push	ecx
	mov	DWORD PTR _this$[ebp], ecx
	mov	eax, DWORD PTR _this$[ebp]
	mov	DWORD PTR [eax], OFFSET ??_7ICvUnknown@@6B@
	mov	ecx, DWORD PTR _this$[ebp]
	mov	DWORD PTR [ecx], OFFSET ??_7ICvDiplomacyAI1@@6B@
	mov	edx, DWORD PTR _this$[ebp]
	mov	DWORD PTR [edx], OFFSET ??_7CvDllDiplomacyAI@@6B@
	mov	eax, DWORD PTR _this$[ebp]
	mov	DWORD PTR [eax+4], 1
	mov	ecx, DWORD PTR _this$[ebp]
	mov	edx, DWORD PTR _pDiplomacyAI$[ebp]
	mov	DWORD PTR [ecx+8], edx

; 22   : }

	mov	eax, DWORD PTR _this$[ebp]
	mov	esp, ebp
	pop	ebp
	ret	4
??0CvDllDiplomacyAI@@QAE@PAVCvDiplomacyAI@@@Z ENDP	; CvDllDiplomacyAI::CvDllDiplomacyAI
_TEXT	ENDS
PUBLIC	??1CvDllDiplomacyAI@@QAE@XZ			; CvDllDiplomacyAI::~CvDllDiplomacyAI
; Function compile flags: /Odtp
;	COMDAT ??1CvDllDiplomacyAI@@QAE@XZ
_TEXT	SEGMENT
_this$ = -4						; size = 4
??1CvDllDiplomacyAI@@QAE@XZ PROC			; CvDllDiplomacyAI::~CvDllDiplomacyAI, COMDAT
; _this$ = ecx

; 25   : {

	push	ebp
	mov	ebp, esp
	push	ecx
	mov	DWORD PTR _this$[ebp], ecx
	mov	eax, DWORD PTR _this$[ebp]
	mov	DWORD PTR [eax], OFFSET ??_7CvDllDiplomacyAI@@6B@

; 26   : }

	mov	esp, ebp
	pop	ebp
	ret	0
??1CvDllDiplomacyAI@@QAE@XZ ENDP			; CvDllDiplomacyAI::~CvDllDiplomacyAI
_TEXT	ENDS
PUBLIC	?IncrementReference@CvDllDiplomacyAI@@QAEIXZ	; CvDllDiplomacyAI::IncrementReference
; Function compile flags: /Odtp
;	COMDAT ?QueryInterface@CvDllDiplomacyAI@@UAGPAXU_GUID@@@Z
_TEXT	SEGMENT
tv90 = -88						; size = 4
tv161 = -84						; size = 4
tv85 = -80						; size = 4
tv137 = -76						; size = 4
$T221479 = -72						; size = 16
$T221478 = -56						; size = 16
$T221477 = -40						; size = 16
$T221476 = -20						; size = 16
_this$ = 8						; size = 4
_guidInterface$ = 12					; size = 16
?QueryInterface@CvDllDiplomacyAI@@UAGPAXU_GUID@@@Z PROC	; CvDllDiplomacyAI::QueryInterface, COMDAT

; 29   : {

	push	ebp
	mov	ebp, esp
	sub	esp, 88					; 00000058H
	push	esi
	push	edi

; 30   : 	if(guidInterface == ICvUnknown::GetInterfaceId() ||
; 31   : 	        guidInterface == ICvDiplomacyAI1::GetInterfaceId())

	mov	eax, DWORD PTR _guidICvUnknown
	mov	DWORD PTR $T221477[ebp], eax
	mov	ecx, DWORD PTR _guidICvUnknown+4
	mov	DWORD PTR $T221477[ebp+4], ecx
	mov	edx, DWORD PTR _guidICvUnknown+8
	mov	DWORD PTR $T221477[ebp+8], edx
	mov	eax, DWORD PTR _guidICvUnknown+12
	mov	DWORD PTR $T221477[ebp+12], eax
	mov	ecx, DWORD PTR $T221477[ebp]
	mov	DWORD PTR $T221476[ebp], ecx
	mov	edx, DWORD PTR $T221477[ebp+4]
	mov	DWORD PTR $T221476[ebp+4], edx
	mov	eax, DWORD PTR $T221477[ebp+8]
	mov	DWORD PTR $T221476[ebp+8], eax
	mov	ecx, DWORD PTR $T221477[ebp+12]
	mov	DWORD PTR $T221476[ebp+12], ecx
	mov	ecx, 16					; 00000010H
	lea	edi, DWORD PTR $T221476[ebp]
	lea	esi, DWORD PTR _guidInterface$[ebp]
	xor	edx, edx
	mov	DWORD PTR tv137[ebp], edx
	repe cmpsb
	je	SHORT $LN17@QueryInter
	sbb	eax, eax
	sbb	eax, -1
	mov	DWORD PTR tv137[ebp], eax
$LN17@QueryInter:
	mov	ecx, DWORD PTR tv137[ebp]
	mov	DWORD PTR tv85[ebp], ecx
	xor	edx, edx
	cmp	DWORD PTR tv85[ebp], 0
	sete	dl
	test	edx, edx
	jne	SHORT $LN1@QueryInter
	mov	eax, DWORD PTR _guidICvDiplomacyAI1
	mov	DWORD PTR $T221479[ebp], eax
	mov	ecx, DWORD PTR _guidICvDiplomacyAI1+4
	mov	DWORD PTR $T221479[ebp+4], ecx
	mov	edx, DWORD PTR _guidICvDiplomacyAI1+8
	mov	DWORD PTR $T221479[ebp+8], edx
	mov	eax, DWORD PTR _guidICvDiplomacyAI1+12
	mov	DWORD PTR $T221479[ebp+12], eax
	mov	ecx, DWORD PTR $T221479[ebp]
	mov	DWORD PTR $T221478[ebp], ecx
	mov	edx, DWORD PTR $T221479[ebp+4]
	mov	DWORD PTR $T221478[ebp+4], edx
	mov	eax, DWORD PTR $T221479[ebp+8]
	mov	DWORD PTR $T221478[ebp+8], eax
	mov	ecx, DWORD PTR $T221479[ebp+12]
	mov	DWORD PTR $T221478[ebp+12], ecx
	mov	ecx, 16					; 00000010H
	lea	edi, DWORD PTR $T221478[ebp]
	lea	esi, DWORD PTR _guidInterface$[ebp]
	xor	edx, edx
	mov	DWORD PTR tv161[ebp], edx
	repe cmpsb
	je	SHORT $LN18@QueryInter
	sbb	eax, eax
	sbb	eax, -1
	mov	DWORD PTR tv161[ebp], eax
$LN18@QueryInter:
	mov	ecx, DWORD PTR tv161[ebp]
	mov	DWORD PTR tv90[ebp], ecx
	xor	edx, edx
	cmp	DWORD PTR tv90[ebp], 0
	sete	dl
	test	edx, edx
	je	SHORT $LN2@QueryInter
$LN1@QueryInter:

; 32   : 	{
; 33   : 		IncrementReference();

	mov	ecx, DWORD PTR _this$[ebp]
	call	?IncrementReference@CvDllDiplomacyAI@@QAEIXZ ; CvDllDiplomacyAI::IncrementReference

; 34   : 		return this;

	mov	eax, DWORD PTR _this$[ebp]
	jmp	SHORT $LN3@QueryInter
$LN2@QueryInter:

; 35   : 	}
; 36   : 
; 37   : 	return NULL;

	xor	eax, eax
$LN3@QueryInter:

; 38   : }

	pop	edi
	pop	esi
	mov	esp, ebp
	pop	ebp
	ret	20					; 00000014H
?QueryInterface@CvDllDiplomacyAI@@UAGPAXU_GUID@@@Z ENDP	; CvDllDiplomacyAI::QueryInterface
; Function compile flags: /Odtp
_TEXT	ENDS
;	COMDAT ?IncrementReference@CvDllDiplomacyAI@@QAEIXZ
_TEXT	SEGMENT
_this$ = -4						; size = 4
?IncrementReference@CvDllDiplomacyAI@@QAEIXZ PROC	; CvDllDiplomacyAI::IncrementReference, COMDAT
; _this$ = ecx

; 41   : {

	push	ebp
	mov	ebp, esp
	push	ecx
	mov	DWORD PTR _this$[ebp], ecx

; 42   : 	++m_uiRefCount;

	mov	eax, DWORD PTR _this$[ebp]
	mov	ecx, DWORD PTR [eax+4]
	add	ecx, 1
	mov	edx, DWORD PTR _this$[ebp]
	mov	DWORD PTR [edx+4], ecx

; 43   : 	return m_uiRefCount;

	mov	eax, DWORD PTR _this$[ebp]
	mov	eax, DWORD PTR [eax+4]

; 44   : }

	mov	esp, ebp
	pop	ebp
	ret	0
?IncrementReference@CvDllDiplomacyAI@@QAEIXZ ENDP	; CvDllDiplomacyAI::IncrementReference
_TEXT	ENDS
PUBLIC	??3CvDllDiplomacyAI@@SAXPAX@Z			; CvDllDiplomacyAI::operator delete
PUBLIC	?DecrementReference@CvDllDiplomacyAI@@QAEIXZ	; CvDllDiplomacyAI::DecrementReference
; Function compile flags: /Odtp
;	COMDAT ?DecrementReference@CvDllDiplomacyAI@@QAEIXZ
_TEXT	SEGMENT
tv70 = -16						; size = 4
_this$ = -12						; size = 4
$T221511 = -8						; size = 4
$T221510 = -4						; size = 4
?DecrementReference@CvDllDiplomacyAI@@QAEIXZ PROC	; CvDllDiplomacyAI::DecrementReference, COMDAT
; _this$ = ecx

; 47   : {

	push	ebp
	mov	ebp, esp
	sub	esp, 16					; 00000010H
	mov	DWORD PTR _this$[ebp], ecx

; 48   : 	if(m_uiRefCount == 1)

	mov	eax, DWORD PTR _this$[ebp]
	cmp	DWORD PTR [eax+4], 1
	jne	SHORT $LN2@DecrementR

; 49   : 	{
; 50   : 		delete this;

	mov	ecx, DWORD PTR _this$[ebp]
	mov	DWORD PTR $T221511[ebp], ecx
	mov	edx, DWORD PTR $T221511[ebp]
	mov	DWORD PTR $T221510[ebp], edx
	cmp	DWORD PTR $T221510[ebp], 0
	je	SHORT $LN5@DecrementR
	mov	ecx, DWORD PTR $T221510[ebp]
	call	??1CvDllDiplomacyAI@@QAE@XZ		; CvDllDiplomacyAI::~CvDllDiplomacyAI
	mov	eax, 1
	and	eax, 1
	je	SHORT $LN8@DecrementR
	mov	ecx, DWORD PTR $T221510[ebp]
	push	ecx
	call	??3CvDllDiplomacyAI@@SAXPAX@Z		; CvDllDiplomacyAI::operator delete
	add	esp, 4
$LN8@DecrementR:
	mov	edx, DWORD PTR $T221510[ebp]
	mov	DWORD PTR tv70[ebp], edx
	jmp	SHORT $LN6@DecrementR
$LN5@DecrementR:
	mov	DWORD PTR tv70[ebp], 0
$LN6@DecrementR:

; 51   : 		return 0;

	xor	eax, eax
	jmp	SHORT $LN3@DecrementR

; 52   : 	}
; 53   : 	else

	jmp	SHORT $LN3@DecrementR
$LN2@DecrementR:

; 54   : 	{
; 55   : 		--m_uiRefCount;

	mov	eax, DWORD PTR _this$[ebp]
	mov	ecx, DWORD PTR [eax+4]
	sub	ecx, 1
	mov	edx, DWORD PTR _this$[ebp]
	mov	DWORD PTR [edx+4], ecx

; 56   : 		return m_uiRefCount;

	mov	eax, DWORD PTR _this$[ebp]
	mov	eax, DWORD PTR [eax+4]
$LN3@DecrementR:

; 57   : 	}
; 58   : }

	mov	esp, ebp
	pop	ebp
	ret	0
?DecrementReference@CvDllDiplomacyAI@@QAEIXZ ENDP	; CvDllDiplomacyAI::DecrementReference
_TEXT	ENDS
PUBLIC	?GetReferenceCount@CvDllDiplomacyAI@@QAEIXZ	; CvDllDiplomacyAI::GetReferenceCount
; Function compile flags: /Odtp
;	COMDAT ?GetReferenceCount@CvDllDiplomacyAI@@QAEIXZ
_TEXT	SEGMENT
_this$ = -4						; size = 4
?GetReferenceCount@CvDllDiplomacyAI@@QAEIXZ PROC	; CvDllDiplomacyAI::GetReferenceCount, COMDAT
; _this$ = ecx

; 61   : {

	push	ebp
	mov	ebp, esp
	push	ecx
	mov	DWORD PTR _this$[ebp], ecx

; 62   : 	return m_uiRefCount;

	mov	eax, DWORD PTR _this$[ebp]
	mov	eax, DWORD PTR [eax+4]

; 63   : }

	mov	esp, ebp
	pop	ebp
	ret	0
?GetReferenceCount@CvDllDiplomacyAI@@QAEIXZ ENDP	; CvDllDiplomacyAI::GetReferenceCount
; Function compile flags: /Odtp
_TEXT	ENDS
;	COMDAT ?Destroy@CvDllDiplomacyAI@@EAGXXZ
_TEXT	SEGMENT
_this$ = 8						; size = 4
?Destroy@CvDllDiplomacyAI@@EAGXXZ PROC			; CvDllDiplomacyAI::Destroy, COMDAT

; 66   : {

	push	ebp
	mov	ebp, esp

; 67   : 	DecrementReference();

	mov	ecx, DWORD PTR _this$[ebp]
	call	?DecrementReference@CvDllDiplomacyAI@@QAEIXZ ; CvDllDiplomacyAI::DecrementReference

; 68   : }

	pop	ebp
	ret	4
?Destroy@CvDllDiplomacyAI@@EAGXXZ ENDP			; CvDllDiplomacyAI::Destroy
_TEXT	ENDS
EXTRN	?Free@CvDllGameContext@@SAXPAX@Z:PROC		; CvDllGameContext::Free
; Function compile flags: /Odtp
;	COMDAT ??3CvDllDiplomacyAI@@SAXPAX@Z
_TEXT	SEGMENT
_p$ = 8							; size = 4
??3CvDllDiplomacyAI@@SAXPAX@Z PROC			; CvDllDiplomacyAI::operator delete, COMDAT

; 71   : {

	push	ebp
	mov	ebp, esp

; 72   : 	CvDllGameContext::Free(p);

	mov	eax, DWORD PTR _p$[ebp]
	push	eax
	call	?Free@CvDllGameContext@@SAXPAX@Z	; CvDllGameContext::Free
	add	esp, 4

; 73   : }

	pop	ebp
	ret	0
??3CvDllDiplomacyAI@@SAXPAX@Z ENDP			; CvDllDiplomacyAI::operator delete
_TEXT	ENDS
PUBLIC	??2CvDllDiplomacyAI@@SAPAXI@Z			; CvDllDiplomacyAI::operator new
EXTRN	?Allocate@CvDllGameContext@@SAPAXI@Z:PROC	; CvDllGameContext::Allocate
; Function compile flags: /Odtp
;	COMDAT ??2CvDllDiplomacyAI@@SAPAXI@Z
_TEXT	SEGMENT
_bytes$ = 8						; size = 4
??2CvDllDiplomacyAI@@SAPAXI@Z PROC			; CvDllDiplomacyAI::operator new, COMDAT

; 76   : {

	push	ebp
	mov	ebp, esp

; 77   : 	return CvDllGameContext::Allocate(bytes);

	mov	eax, DWORD PTR _bytes$[ebp]
	push	eax
	call	?Allocate@CvDllGameContext@@SAPAXI@Z	; CvDllGameContext::Allocate
	add	esp, 4

; 78   : }

	pop	ebp
	ret	0
??2CvDllDiplomacyAI@@SAPAXI@Z ENDP			; CvDllDiplomacyAI::operator new
_TEXT	ENDS
PUBLIC	?GetInstance@CvDllDiplomacyAI@@QAEPAVCvDiplomacyAI@@XZ ; CvDllDiplomacyAI::GetInstance
; Function compile flags: /Odtp
;	COMDAT ?GetInstance@CvDllDiplomacyAI@@QAEPAVCvDiplomacyAI@@XZ
_TEXT	SEGMENT
_this$ = -4						; size = 4
?GetInstance@CvDllDiplomacyAI@@QAEPAVCvDiplomacyAI@@XZ PROC ; CvDllDiplomacyAI::GetInstance, COMDAT
; _this$ = ecx

; 81   : {

	push	ebp
	mov	ebp, esp
	push	ecx
	mov	DWORD PTR _this$[ebp], ecx

; 82   : 	return m_pDiplomacyAI;

	mov	eax, DWORD PTR _this$[ebp]
	mov	eax, DWORD PTR [eax+8]

; 83   : }

	mov	esp, ebp
	pop	ebp
	ret	0
?GetInstance@CvDllDiplomacyAI@@QAEPAVCvDiplomacyAI@@XZ ENDP ; CvDllDiplomacyAI::GetInstance
_TEXT	ENDS
EXTRN	?DoBeginDiploWithHuman@CvDiplomacyAI@@QAEXXZ:PROC ; CvDiplomacyAI::DoBeginDiploWithHuman
; Function compile flags: /Odtp
;	COMDAT ?DoBeginDiploWithHuman@CvDllDiplomacyAI@@UAGXXZ
_TEXT	SEGMENT
_this$ = 8						; size = 4
?DoBeginDiploWithHuman@CvDllDiplomacyAI@@UAGXXZ PROC	; CvDllDiplomacyAI::DoBeginDiploWithHuman, COMDAT

; 86   : {

	push	ebp
	mov	ebp, esp

; 87   : 	m_pDiplomacyAI->DoBeginDiploWithHuman();

	mov	eax, DWORD PTR _this$[ebp]
	mov	ecx, DWORD PTR [eax+8]
	call	?DoBeginDiploWithHuman@CvDiplomacyAI@@QAEXXZ ; CvDiplomacyAI::DoBeginDiploWithHuman

; 88   : }

	pop	ebp
	ret	4
?DoBeginDiploWithHuman@CvDllDiplomacyAI@@UAGXXZ ENDP	; CvDllDiplomacyAI::DoBeginDiploWithHuman
_TEXT	ENDS
EXTRN	__imp_??1String@Localization@@UAE@XZ:PROC
EXTRN	?GetDiploStringForMessage@CvDiplomacyAI@@QAEPBDW4DiploMessageTypes@@W4PlayerTypes@@ABVString@Localization@@@Z:PROC ; CvDiplomacyAI::GetDiploStringForMessage
EXTRN	__imp_??0String@Localization@@QAE@PBD@Z:PROC
EXTRN	___security_cookie:DWORD
EXTRN	___CxxFrameHandler3:PROC
EXTRN	@__security_check_cookie@4:PROC
;	COMDAT xdata$x
xdata$x	SEGMENT
__unwindtable$?GetDiploStringForMessage@CvDllDiplomacyAI@@UAGPBDW4DiploMessageTypes@@W4PlayerTypes@@PBD@Z DD 0ffffffffH
	DD	FLAT:__unwindfunclet$?GetDiploStringForMessage@CvDllDiplomacyAI@@UAGPBDW4DiploMessageTypes@@W4PlayerTypes@@PBD@Z$0
__ehfuncinfo$?GetDiploStringForMessage@CvDllDiplomacyAI@@UAGPBDW4DiploMessageTypes@@W4PlayerTypes@@PBD@Z DD 019930522H
	DD	01H
	DD	FLAT:__unwindtable$?GetDiploStringForMessage@CvDllDiplomacyAI@@UAGPBDW4DiploMessageTypes@@W4PlayerTypes@@PBD@Z
	DD	2 DUP(00H)
	DD	2 DUP(00H)
	DD	00H
	DD	01H
; Function compile flags: /Odtp
xdata$x	ENDS
;	COMDAT ?GetDiploStringForMessage@CvDllDiplomacyAI@@UAGPBDW4DiploMessageTypes@@W4PlayerTypes@@PBD@Z
_TEXT	SEGMENT
$T221533 = -96						; size = 80
$T221532 = -16						; size = 4
__$EHRec$ = -12						; size = 12
_this$ = 8						; size = 4
_eDiploMessage$ = 12					; size = 4
_eForPlayer$ = 16					; size = 4
_szOptionalKey1$ = 20					; size = 4
?GetDiploStringForMessage@CvDllDiplomacyAI@@UAGPBDW4DiploMessageTypes@@W4PlayerTypes@@PBD@Z PROC ; CvDllDiplomacyAI::GetDiploStringForMessage, COMDAT

; 91   : {

	push	ebp
	mov	ebp, esp
	push	-1
	push	__ehhandler$?GetDiploStringForMessage@CvDllDiplomacyAI@@UAGPBDW4DiploMessageTypes@@W4PlayerTypes@@PBD@Z
	mov	eax, DWORD PTR fs:0
	push	eax
	sub	esp, 84					; 00000054H
	mov	eax, DWORD PTR ___security_cookie
	xor	eax, ebp
	push	eax
	lea	eax, DWORD PTR __$EHRec$[ebp]
	mov	DWORD PTR fs:0, eax

; 92   : 	return m_pDiplomacyAI->GetDiploStringForMessage(eDiploMessage, eForPlayer, szOptionalKey1);

	mov	eax, DWORD PTR _szOptionalKey1$[ebp]
	push	eax
	lea	ecx, DWORD PTR $T221533[ebp]
	call	DWORD PTR __imp_??0String@Localization@@QAE@PBD@Z
	mov	DWORD PTR __$EHRec$[ebp+8], 0
	lea	ecx, DWORD PTR $T221533[ebp]
	push	ecx
	mov	edx, DWORD PTR _eForPlayer$[ebp]
	push	edx
	mov	eax, DWORD PTR _eDiploMessage$[ebp]
	push	eax
	mov	ecx, DWORD PTR _this$[ebp]
	mov	ecx, DWORD PTR [ecx+8]
	call	?GetDiploStringForMessage@CvDiplomacyAI@@QAEPBDW4DiploMessageTypes@@W4PlayerTypes@@ABVString@Localization@@@Z ; CvDiplomacyAI::GetDiploStringForMessage
	mov	DWORD PTR $T221532[ebp], eax
	mov	DWORD PTR __$EHRec$[ebp+8], -1
	lea	ecx, DWORD PTR $T221533[ebp]
	call	DWORD PTR __imp_??1String@Localization@@UAE@XZ
	mov	eax, DWORD PTR $T221532[ebp]

; 93   : }

	mov	ecx, DWORD PTR __$EHRec$[ebp]
	mov	DWORD PTR fs:0, ecx
	pop	ecx
	mov	esp, ebp
	pop	ebp
	ret	16					; 00000010H
_TEXT	ENDS
;	COMDAT text$x
text$x	SEGMENT
__unwindfunclet$?GetDiploStringForMessage@CvDllDiplomacyAI@@UAGPBDW4DiploMessageTypes@@W4PlayerTypes@@PBD@Z$0:
	lea	ecx, DWORD PTR $T221533[ebp]
	jmp	DWORD PTR __imp_??1String@Localization@@UAE@XZ
__ehhandler$?GetDiploStringForMessage@CvDllDiplomacyAI@@UAGPBDW4DiploMessageTypes@@W4PlayerTypes@@PBD@Z:
	mov	edx, DWORD PTR [esp+8]
	lea	eax, DWORD PTR [edx+12]
	mov	ecx, DWORD PTR [edx-88]
	xor	ecx, eax
	call	@__security_check_cookie@4
	mov	eax, OFFSET __ehfuncinfo$?GetDiploStringForMessage@CvDllDiplomacyAI@@UAGPBDW4DiploMessageTypes@@W4PlayerTypes@@PBD@Z
	jmp	___CxxFrameHandler3
text$x	ENDS
?GetDiploStringForMessage@CvDllDiplomacyAI@@UAGPBDW4DiploMessageTypes@@W4PlayerTypes@@PBD@Z ENDP ; CvDllDiplomacyAI::GetDiploStringForMessage
EXTRN	?TestUIDiploStatement@CvDiplomacyAI@@QAEXW4PlayerTypes@@W4DiploStatementTypes@@H@Z:PROC ; CvDiplomacyAI::TestUIDiploStatement
; Function compile flags: /Odtp
;	COMDAT ?TestUIDiploStatement@CvDllDiplomacyAI@@UAGXW4PlayerTypes@@W4DiploStatementTypes@@H@Z
_TEXT	SEGMENT
_this$ = 8						; size = 4
_eToPlayer$ = 12					; size = 4
_eStatement$ = 16					; size = 4
_iArg1$ = 20						; size = 4
?TestUIDiploStatement@CvDllDiplomacyAI@@UAGXW4PlayerTypes@@W4DiploStatementTypes@@H@Z PROC ; CvDllDiplomacyAI::TestUIDiploStatement, COMDAT

; 96   : {

	push	ebp
	mov	ebp, esp

; 97   : 	m_pDiplomacyAI->TestUIDiploStatement(eToPlayer, eStatement, iArg1);

	mov	eax, DWORD PTR _iArg1$[ebp]
	push	eax
	mov	ecx, DWORD PTR _eStatement$[ebp]
	push	ecx
	mov	edx, DWORD PTR _eToPlayer$[ebp]
	push	edx
	mov	eax, DWORD PTR _this$[ebp]
	mov	ecx, DWORD PTR [eax+8]
	call	?TestUIDiploStatement@CvDiplomacyAI@@QAEXW4PlayerTypes@@W4DiploStatementTypes@@H@Z ; CvDiplomacyAI::TestUIDiploStatement

; 98   : }

	pop	ebp
	ret	16					; 00000010H
?TestUIDiploStatement@CvDllDiplomacyAI@@UAGXW4PlayerTypes@@W4DiploStatementTypes@@H@Z ENDP ; CvDllDiplomacyAI::TestUIDiploStatement
_TEXT	ENDS
END
