; Listing generated by Microsoft (R) Optimizing Compiler Version 15.00.30729.01 

	TITLE	D:\sources\Lekmod_git\checkout\LEKMOD_DLL\CvGameCoreDLL_Expansion2\CvDllGameOptionInfo.cpp
	.686P
	.XMM
	include listing.inc
	.model	flat

INCLUDELIB MSVCRT
INCLUDELIB OLDNAMES

PUBLIC	??_C@_05OCFELOIJ@1?40?40?$AA@			; `string'
CONST	SEGMENT
_guidICvUnknown DD 0d89ba82fH
	DW	09fa3H
	DW	04696H
	DB	0b3H
	DB	0f4H
	DB	052H
	DB	0bdH
	DB	0b1H
	DB	01H
	DB	0cfH
	DB	0b2H
_guidICvGameOptionInfo1 DD 0baac0587H
	DW	05b40H
	DW	04611H
	DB	0a7H
	DB	05aH
	DB	019H
	DB	0eH
	DB	03cH
	DB	0b8H
	DB	06fH
	DB	079H
CONST	ENDS
_DATA	SEGMENT
_CIV5_XP2_DLL_VERSION DD FLAT:??_C@_05OCFELOIJ@1?40?40?$AA@
_DATA	ENDS
;	COMDAT ??_C@_05OCFELOIJ@1?40?40?$AA@
CONST	SEGMENT
??_C@_05OCFELOIJ@1?40?40?$AA@ DB '1.0.0', 00H		; `string'
CONST	ENDS
PUBLIC	??_7CvDllGameOptionInfo@@6B@			; CvDllGameOptionInfo::`vftable'
PUBLIC	??_7ICvGameOptionInfo1@@6B@			; ICvGameOptionInfo1::`vftable'
PUBLIC	??_7ICvUnknown@@6B@				; ICvUnknown::`vftable'
PUBLIC	??0CvDllGameOptionInfo@@QAE@PAVCvGameOptionInfo@@@Z ; CvDllGameOptionInfo::CvDllGameOptionInfo
PUBLIC	?QueryInterface@CvDllGameOptionInfo@@UAGPAXU_GUID@@@Z ; CvDllGameOptionInfo::QueryInterface
PUBLIC	?Destroy@CvDllGameOptionInfo@@EAGXXZ		; CvDllGameOptionInfo::Destroy
PUBLIC	?GetType@CvDllGameOptionInfo@@UAGPBDXZ		; CvDllGameOptionInfo::GetType
PUBLIC	?GetDescription@CvDllGameOptionInfo@@UAGPBDXZ	; CvDllGameOptionInfo::GetDescription
PUBLIC	?GetDefault@CvDllGameOptionInfo@@UAG_NXZ	; CvDllGameOptionInfo::GetDefault
EXTRN	__purecall:PROC
;	COMDAT ??_7CvDllGameOptionInfo@@6B@
; File d:\sources\lekmod_git\checkout\lekmod_dll\cvgamecoredll_expansion2\cvdllgameoptioninfo.cpp
CONST	SEGMENT
??_7CvDllGameOptionInfo@@6B@ DD FLAT:?QueryInterface@CvDllGameOptionInfo@@UAGPAXU_GUID@@@Z ; CvDllGameOptionInfo::`vftable'
	DD	FLAT:?Destroy@CvDllGameOptionInfo@@EAGXXZ
	DD	FLAT:?GetType@CvDllGameOptionInfo@@UAGPBDXZ
	DD	FLAT:?GetDescription@CvDllGameOptionInfo@@UAGPBDXZ
	DD	FLAT:?GetDefault@CvDllGameOptionInfo@@UAG_NXZ
CONST	ENDS
;	COMDAT ??_7ICvGameOptionInfo1@@6B@
CONST	SEGMENT
??_7ICvGameOptionInfo1@@6B@ DD FLAT:__purecall		; ICvGameOptionInfo1::`vftable'
	DD	FLAT:__purecall
	DD	FLAT:__purecall
	DD	FLAT:__purecall
	DD	FLAT:__purecall
CONST	ENDS
;	COMDAT ??_7ICvUnknown@@6B@
CONST	SEGMENT
??_7ICvUnknown@@6B@ DD FLAT:__purecall			; ICvUnknown::`vftable'
	DD	FLAT:__purecall
; Function compile flags: /Odtp
CONST	ENDS
;	COMDAT ??0CvDllGameOptionInfo@@QAE@PAVCvGameOptionInfo@@@Z
_TEXT	SEGMENT
_this$ = -4						; size = 4
_pGameOptionInfo$ = 8					; size = 4
??0CvDllGameOptionInfo@@QAE@PAVCvGameOptionInfo@@@Z PROC ; CvDllGameOptionInfo::CvDllGameOptionInfo, COMDAT
; _this$ = ecx

; 19   : {

	push	ebp
	mov	ebp, esp
	push	ecx
	mov	DWORD PTR _this$[ebp], ecx
	mov	eax, DWORD PTR _this$[ebp]
	mov	DWORD PTR [eax], OFFSET ??_7ICvUnknown@@6B@
	mov	ecx, DWORD PTR _this$[ebp]
	mov	DWORD PTR [ecx], OFFSET ??_7ICvGameOptionInfo1@@6B@
	mov	edx, DWORD PTR _this$[ebp]
	mov	DWORD PTR [edx], OFFSET ??_7CvDllGameOptionInfo@@6B@
	mov	eax, DWORD PTR _this$[ebp]
	mov	DWORD PTR [eax+4], 1
	mov	ecx, DWORD PTR _this$[ebp]
	mov	edx, DWORD PTR _pGameOptionInfo$[ebp]
	mov	DWORD PTR [ecx+8], edx

; 20   : 	FAssertMsg(pGameOptionInfo != NULL, "SHOULD NOT HAPPEN");
; 21   : }

	mov	eax, DWORD PTR _this$[ebp]
	mov	esp, ebp
	pop	ebp
	ret	4
??0CvDllGameOptionInfo@@QAE@PAVCvGameOptionInfo@@@Z ENDP ; CvDllGameOptionInfo::CvDllGameOptionInfo
_TEXT	ENDS
PUBLIC	??1CvDllGameOptionInfo@@QAE@XZ			; CvDllGameOptionInfo::~CvDllGameOptionInfo
; Function compile flags: /Odtp
;	COMDAT ??1CvDllGameOptionInfo@@QAE@XZ
_TEXT	SEGMENT
_this$ = -4						; size = 4
??1CvDllGameOptionInfo@@QAE@XZ PROC			; CvDllGameOptionInfo::~CvDllGameOptionInfo, COMDAT
; _this$ = ecx

; 24   : {

	push	ebp
	mov	ebp, esp
	push	ecx
	mov	DWORD PTR _this$[ebp], ecx
	mov	eax, DWORD PTR _this$[ebp]
	mov	DWORD PTR [eax], OFFSET ??_7CvDllGameOptionInfo@@6B@

; 25   : }

	mov	esp, ebp
	pop	ebp
	ret	0
??1CvDllGameOptionInfo@@QAE@XZ ENDP			; CvDllGameOptionInfo::~CvDllGameOptionInfo
_TEXT	ENDS
PUBLIC	?IncrementReference@CvDllGameOptionInfo@@QAEIXZ	; CvDllGameOptionInfo::IncrementReference
; Function compile flags: /Odtp
;	COMDAT ?QueryInterface@CvDllGameOptionInfo@@UAGPAXU_GUID@@@Z
_TEXT	SEGMENT
tv90 = -88						; size = 4
tv161 = -84						; size = 4
tv85 = -80						; size = 4
tv137 = -76						; size = 4
$T217967 = -72						; size = 16
$T217966 = -56						; size = 16
$T217965 = -40						; size = 16
$T217964 = -20						; size = 16
_this$ = 8						; size = 4
_guidInterface$ = 12					; size = 16
?QueryInterface@CvDllGameOptionInfo@@UAGPAXU_GUID@@@Z PROC ; CvDllGameOptionInfo::QueryInterface, COMDAT

; 28   : {

	push	ebp
	mov	ebp, esp
	sub	esp, 88					; 00000058H
	push	esi
	push	edi

; 29   : 	if(guidInterface == ICvUnknown::GetInterfaceId() ||
; 30   : 	        guidInterface == ICvGameOptionInfo1::GetInterfaceId())

	mov	eax, DWORD PTR _guidICvUnknown
	mov	DWORD PTR $T217965[ebp], eax
	mov	ecx, DWORD PTR _guidICvUnknown+4
	mov	DWORD PTR $T217965[ebp+4], ecx
	mov	edx, DWORD PTR _guidICvUnknown+8
	mov	DWORD PTR $T217965[ebp+8], edx
	mov	eax, DWORD PTR _guidICvUnknown+12
	mov	DWORD PTR $T217965[ebp+12], eax
	mov	ecx, DWORD PTR $T217965[ebp]
	mov	DWORD PTR $T217964[ebp], ecx
	mov	edx, DWORD PTR $T217965[ebp+4]
	mov	DWORD PTR $T217964[ebp+4], edx
	mov	eax, DWORD PTR $T217965[ebp+8]
	mov	DWORD PTR $T217964[ebp+8], eax
	mov	ecx, DWORD PTR $T217965[ebp+12]
	mov	DWORD PTR $T217964[ebp+12], ecx
	mov	ecx, 16					; 00000010H
	lea	edi, DWORD PTR $T217964[ebp]
	lea	esi, DWORD PTR _guidInterface$[ebp]
	xor	edx, edx
	mov	DWORD PTR tv137[ebp], edx
	repe cmpsb
	je	SHORT $LN17@QueryInter
	sbb	eax, eax
	sbb	eax, -1
	mov	DWORD PTR tv137[ebp], eax
$LN17@QueryInter:
	mov	ecx, DWORD PTR tv137[ebp]
	mov	DWORD PTR tv85[ebp], ecx
	xor	edx, edx
	cmp	DWORD PTR tv85[ebp], 0
	sete	dl
	test	edx, edx
	jne	SHORT $LN1@QueryInter
	mov	eax, DWORD PTR _guidICvGameOptionInfo1
	mov	DWORD PTR $T217967[ebp], eax
	mov	ecx, DWORD PTR _guidICvGameOptionInfo1+4
	mov	DWORD PTR $T217967[ebp+4], ecx
	mov	edx, DWORD PTR _guidICvGameOptionInfo1+8
	mov	DWORD PTR $T217967[ebp+8], edx
	mov	eax, DWORD PTR _guidICvGameOptionInfo1+12
	mov	DWORD PTR $T217967[ebp+12], eax
	mov	ecx, DWORD PTR $T217967[ebp]
	mov	DWORD PTR $T217966[ebp], ecx
	mov	edx, DWORD PTR $T217967[ebp+4]
	mov	DWORD PTR $T217966[ebp+4], edx
	mov	eax, DWORD PTR $T217967[ebp+8]
	mov	DWORD PTR $T217966[ebp+8], eax
	mov	ecx, DWORD PTR $T217967[ebp+12]
	mov	DWORD PTR $T217966[ebp+12], ecx
	mov	ecx, 16					; 00000010H
	lea	edi, DWORD PTR $T217966[ebp]
	lea	esi, DWORD PTR _guidInterface$[ebp]
	xor	edx, edx
	mov	DWORD PTR tv161[ebp], edx
	repe cmpsb
	je	SHORT $LN18@QueryInter
	sbb	eax, eax
	sbb	eax, -1
	mov	DWORD PTR tv161[ebp], eax
$LN18@QueryInter:
	mov	ecx, DWORD PTR tv161[ebp]
	mov	DWORD PTR tv90[ebp], ecx
	xor	edx, edx
	cmp	DWORD PTR tv90[ebp], 0
	sete	dl
	test	edx, edx
	je	SHORT $LN2@QueryInter
$LN1@QueryInter:

; 31   : 	{
; 32   : 		IncrementReference();

	mov	ecx, DWORD PTR _this$[ebp]
	call	?IncrementReference@CvDllGameOptionInfo@@QAEIXZ ; CvDllGameOptionInfo::IncrementReference

; 33   : 		return this;

	mov	eax, DWORD PTR _this$[ebp]
	jmp	SHORT $LN3@QueryInter
$LN2@QueryInter:

; 34   : 	}
; 35   : 
; 36   : 	return NULL;

	xor	eax, eax
$LN3@QueryInter:

; 37   : }

	pop	edi
	pop	esi
	mov	esp, ebp
	pop	ebp
	ret	20					; 00000014H
?QueryInterface@CvDllGameOptionInfo@@UAGPAXU_GUID@@@Z ENDP ; CvDllGameOptionInfo::QueryInterface
; Function compile flags: /Odtp
_TEXT	ENDS
;	COMDAT ?IncrementReference@CvDllGameOptionInfo@@QAEIXZ
_TEXT	SEGMENT
_this$ = -4						; size = 4
?IncrementReference@CvDllGameOptionInfo@@QAEIXZ PROC	; CvDllGameOptionInfo::IncrementReference, COMDAT
; _this$ = ecx

; 40   : {

	push	ebp
	mov	ebp, esp
	push	ecx
	mov	DWORD PTR _this$[ebp], ecx

; 41   : 	++m_uiRefCount;

	mov	eax, DWORD PTR _this$[ebp]
	mov	ecx, DWORD PTR [eax+4]
	add	ecx, 1
	mov	edx, DWORD PTR _this$[ebp]
	mov	DWORD PTR [edx+4], ecx

; 42   : 	return m_uiRefCount;

	mov	eax, DWORD PTR _this$[ebp]
	mov	eax, DWORD PTR [eax+4]

; 43   : }

	mov	esp, ebp
	pop	ebp
	ret	0
?IncrementReference@CvDllGameOptionInfo@@QAEIXZ ENDP	; CvDllGameOptionInfo::IncrementReference
_TEXT	ENDS
PUBLIC	??3CvDllGameOptionInfo@@SAXPAX@Z		; CvDllGameOptionInfo::operator delete
PUBLIC	?DecrementReference@CvDllGameOptionInfo@@QAEIXZ	; CvDllGameOptionInfo::DecrementReference
; Function compile flags: /Odtp
;	COMDAT ?DecrementReference@CvDllGameOptionInfo@@QAEIXZ
_TEXT	SEGMENT
tv70 = -16						; size = 4
_this$ = -12						; size = 4
$T217999 = -8						; size = 4
$T217998 = -4						; size = 4
?DecrementReference@CvDllGameOptionInfo@@QAEIXZ PROC	; CvDllGameOptionInfo::DecrementReference, COMDAT
; _this$ = ecx

; 46   : {

	push	ebp
	mov	ebp, esp
	sub	esp, 16					; 00000010H
	mov	DWORD PTR _this$[ebp], ecx

; 47   : 	if(m_uiRefCount == 1)

	mov	eax, DWORD PTR _this$[ebp]
	cmp	DWORD PTR [eax+4], 1
	jne	SHORT $LN2@DecrementR

; 48   : 	{
; 49   : 		delete this;

	mov	ecx, DWORD PTR _this$[ebp]
	mov	DWORD PTR $T217999[ebp], ecx
	mov	edx, DWORD PTR $T217999[ebp]
	mov	DWORD PTR $T217998[ebp], edx
	cmp	DWORD PTR $T217998[ebp], 0
	je	SHORT $LN5@DecrementR
	mov	ecx, DWORD PTR $T217998[ebp]
	call	??1CvDllGameOptionInfo@@QAE@XZ		; CvDllGameOptionInfo::~CvDllGameOptionInfo
	mov	eax, 1
	and	eax, 1
	je	SHORT $LN8@DecrementR
	mov	ecx, DWORD PTR $T217998[ebp]
	push	ecx
	call	??3CvDllGameOptionInfo@@SAXPAX@Z	; CvDllGameOptionInfo::operator delete
	add	esp, 4
$LN8@DecrementR:
	mov	edx, DWORD PTR $T217998[ebp]
	mov	DWORD PTR tv70[ebp], edx
	jmp	SHORT $LN6@DecrementR
$LN5@DecrementR:
	mov	DWORD PTR tv70[ebp], 0
$LN6@DecrementR:

; 50   : 		return 0;

	xor	eax, eax
	jmp	SHORT $LN3@DecrementR

; 51   : 	}
; 52   : 	else

	jmp	SHORT $LN3@DecrementR
$LN2@DecrementR:

; 53   : 	{
; 54   : 		--m_uiRefCount;

	mov	eax, DWORD PTR _this$[ebp]
	mov	ecx, DWORD PTR [eax+4]
	sub	ecx, 1
	mov	edx, DWORD PTR _this$[ebp]
	mov	DWORD PTR [edx+4], ecx

; 55   : 		return m_uiRefCount;

	mov	eax, DWORD PTR _this$[ebp]
	mov	eax, DWORD PTR [eax+4]
$LN3@DecrementR:

; 56   : 	}
; 57   : }

	mov	esp, ebp
	pop	ebp
	ret	0
?DecrementReference@CvDllGameOptionInfo@@QAEIXZ ENDP	; CvDllGameOptionInfo::DecrementReference
_TEXT	ENDS
PUBLIC	?GetReferenceCount@CvDllGameOptionInfo@@QAEIXZ	; CvDllGameOptionInfo::GetReferenceCount
; Function compile flags: /Odtp
;	COMDAT ?GetReferenceCount@CvDllGameOptionInfo@@QAEIXZ
_TEXT	SEGMENT
_this$ = -4						; size = 4
?GetReferenceCount@CvDllGameOptionInfo@@QAEIXZ PROC	; CvDllGameOptionInfo::GetReferenceCount, COMDAT
; _this$ = ecx

; 60   : {

	push	ebp
	mov	ebp, esp
	push	ecx
	mov	DWORD PTR _this$[ebp], ecx

; 61   : 	return m_uiRefCount;

	mov	eax, DWORD PTR _this$[ebp]
	mov	eax, DWORD PTR [eax+4]

; 62   : }

	mov	esp, ebp
	pop	ebp
	ret	0
?GetReferenceCount@CvDllGameOptionInfo@@QAEIXZ ENDP	; CvDllGameOptionInfo::GetReferenceCount
; Function compile flags: /Odtp
_TEXT	ENDS
;	COMDAT ?Destroy@CvDllGameOptionInfo@@EAGXXZ
_TEXT	SEGMENT
_this$ = 8						; size = 4
?Destroy@CvDllGameOptionInfo@@EAGXXZ PROC		; CvDllGameOptionInfo::Destroy, COMDAT

; 65   : {

	push	ebp
	mov	ebp, esp

; 66   : 	DecrementReference();

	mov	ecx, DWORD PTR _this$[ebp]
	call	?DecrementReference@CvDllGameOptionInfo@@QAEIXZ ; CvDllGameOptionInfo::DecrementReference

; 67   : }

	pop	ebp
	ret	4
?Destroy@CvDllGameOptionInfo@@EAGXXZ ENDP		; CvDllGameOptionInfo::Destroy
_TEXT	ENDS
EXTRN	?Free@CvDllGameContext@@SAXPAX@Z:PROC		; CvDllGameContext::Free
; Function compile flags: /Odtp
;	COMDAT ??3CvDllGameOptionInfo@@SAXPAX@Z
_TEXT	SEGMENT
_p$ = 8							; size = 4
??3CvDllGameOptionInfo@@SAXPAX@Z PROC			; CvDllGameOptionInfo::operator delete, COMDAT

; 70   : {

	push	ebp
	mov	ebp, esp

; 71   : 	CvDllGameContext::Free(p);

	mov	eax, DWORD PTR _p$[ebp]
	push	eax
	call	?Free@CvDllGameContext@@SAXPAX@Z	; CvDllGameContext::Free
	add	esp, 4

; 72   : }

	pop	ebp
	ret	0
??3CvDllGameOptionInfo@@SAXPAX@Z ENDP			; CvDllGameOptionInfo::operator delete
_TEXT	ENDS
PUBLIC	??2CvDllGameOptionInfo@@SAPAXI@Z		; CvDllGameOptionInfo::operator new
EXTRN	?Allocate@CvDllGameContext@@SAPAXI@Z:PROC	; CvDllGameContext::Allocate
; Function compile flags: /Odtp
;	COMDAT ??2CvDllGameOptionInfo@@SAPAXI@Z
_TEXT	SEGMENT
_bytes$ = 8						; size = 4
??2CvDllGameOptionInfo@@SAPAXI@Z PROC			; CvDllGameOptionInfo::operator new, COMDAT

; 75   : {

	push	ebp
	mov	ebp, esp

; 76   : 	return CvDllGameContext::Allocate(bytes);

	mov	eax, DWORD PTR _bytes$[ebp]
	push	eax
	call	?Allocate@CvDllGameContext@@SAPAXI@Z	; CvDllGameContext::Allocate
	add	esp, 4

; 77   : }

	pop	ebp
	ret	0
??2CvDllGameOptionInfo@@SAPAXI@Z ENDP			; CvDllGameOptionInfo::operator new
_TEXT	ENDS
PUBLIC	?GetInstance@CvDllGameOptionInfo@@QAEPAVCvGameOptionInfo@@XZ ; CvDllGameOptionInfo::GetInstance
; Function compile flags: /Odtp
;	COMDAT ?GetInstance@CvDllGameOptionInfo@@QAEPAVCvGameOptionInfo@@XZ
_TEXT	SEGMENT
_this$ = -4						; size = 4
?GetInstance@CvDllGameOptionInfo@@QAEPAVCvGameOptionInfo@@XZ PROC ; CvDllGameOptionInfo::GetInstance, COMDAT
; _this$ = ecx

; 80   : {

	push	ebp
	mov	ebp, esp
	push	ecx
	mov	DWORD PTR _this$[ebp], ecx

; 81   : 	return m_pGameOptionInfo;

	mov	eax, DWORD PTR _this$[ebp]
	mov	eax, DWORD PTR [eax+8]

; 82   : }

	mov	esp, ebp
	pop	ebp
	ret	0
?GetInstance@CvDllGameOptionInfo@@QAEPAVCvGameOptionInfo@@XZ ENDP ; CvDllGameOptionInfo::GetInstance
_TEXT	ENDS
EXTRN	__imp_?c_str@?$basic_string@DU?$char_traits@D@std@@V?$allocator@D@2@@std@@QBEPBDXZ:PROC
; Function compile flags: /Odtp
;	COMDAT ?GetType@CvDllGameOptionInfo@@UAGPBDXZ
_TEXT	SEGMENT
$T218021 = -4						; size = 4
_this$ = 8						; size = 4
?GetType@CvDllGameOptionInfo@@UAGPBDXZ PROC		; CvDllGameOptionInfo::GetType, COMDAT

; 85   : {

	push	ebp
	mov	ebp, esp
	push	ecx

; 86   : 	return m_pGameOptionInfo->GetType();

	mov	eax, DWORD PTR _this$[ebp]
	mov	ecx, DWORD PTR [eax+8]
	mov	DWORD PTR $T218021[ebp], ecx
	mov	ecx, DWORD PTR $T218021[ebp]
	add	ecx, 176				; 000000b0H
	call	DWORD PTR __imp_?c_str@?$basic_string@DU?$char_traits@D@std@@V?$allocator@D@2@@std@@QBEPBDXZ

; 87   : }

	mov	esp, ebp
	pop	ebp
	ret	4
?GetType@CvDllGameOptionInfo@@UAGPBDXZ ENDP		; CvDllGameOptionInfo::GetType
; Function compile flags: /Odtp
_TEXT	ENDS
;	COMDAT ?GetDescription@CvDllGameOptionInfo@@UAGPBDXZ
_TEXT	SEGMENT
$T218027 = -4						; size = 4
_this$ = 8						; size = 4
?GetDescription@CvDllGameOptionInfo@@UAGPBDXZ PROC	; CvDllGameOptionInfo::GetDescription, COMDAT

; 90   : {

	push	ebp
	mov	ebp, esp
	push	ecx

; 91   : 	return m_pGameOptionInfo->GetDescription();

	mov	eax, DWORD PTR _this$[ebp]
	mov	ecx, DWORD PTR [eax+8]
	mov	DWORD PTR $T218027[ebp], ecx
	mov	ecx, DWORD PTR $T218027[ebp]
	add	ecx, 36					; 00000024H
	call	DWORD PTR __imp_?c_str@?$basic_string@DU?$char_traits@D@std@@V?$allocator@D@2@@std@@QBEPBDXZ

; 92   : }

	mov	esp, ebp
	pop	ebp
	ret	4
?GetDescription@CvDllGameOptionInfo@@UAGPBDXZ ENDP	; CvDllGameOptionInfo::GetDescription
_TEXT	ENDS
EXTRN	?getDefault@CvGameOptionInfo@@QBE_NXZ:PROC	; CvGameOptionInfo::getDefault
; Function compile flags: /Odtp
;	COMDAT ?GetDefault@CvDllGameOptionInfo@@UAG_NXZ
_TEXT	SEGMENT
_this$ = 8						; size = 4
?GetDefault@CvDllGameOptionInfo@@UAG_NXZ PROC		; CvDllGameOptionInfo::GetDefault, COMDAT

; 95   : {

	push	ebp
	mov	ebp, esp

; 96   : 	return m_pGameOptionInfo->getDefault();

	mov	eax, DWORD PTR _this$[ebp]
	mov	ecx, DWORD PTR [eax+8]
	call	?getDefault@CvGameOptionInfo@@QBE_NXZ	; CvGameOptionInfo::getDefault

; 97   : }

	pop	ebp
	ret	4
?GetDefault@CvDllGameOptionInfo@@UAG_NXZ ENDP		; CvDllGameOptionInfo::GetDefault
_TEXT	ENDS
END
