; Listing generated by Microsoft (R) Optimizing Compiler Version 15.00.30729.01 

	TITLE	D:\sources\Lekmod_git\checkout\LEKMOD_DLL\CvGameCoreDLL_Expansion2\CvDllPlayerColorInfo.cpp
	.686P
	.XMM
	include listing.inc
	.model	flat

INCLUDELIB MSVCRT
INCLUDELIB OLDNAMES

PUBLIC	??_C@_05OCFELOIJ@1?40?40?$AA@			; `string'
CONST	SEGMENT
_guidICvUnknown DD 0d89ba82fH
	DW	09fa3H
	DW	04696H
	DB	0b3H
	DB	0f4H
	DB	052H
	DB	0bdH
	DB	0b1H
	DB	01H
	DB	0cfH
	DB	0b2H
_guidICvPlayerColorInfo1 DD 01ed0ae82H
	DW	0b7aH
	DW	0431eH
	DB	0adH
	DB	052H
	DB	0e0H
	DB	0eeH
	DB	05H
	DB	0f8H
	DB	0a5H
	DB	06aH
CONST	ENDS
_DATA	SEGMENT
_CIV5_XP2_DLL_VERSION DD FLAT:??_C@_05OCFELOIJ@1?40?40?$AA@
_DATA	ENDS
;	COMDAT ??_C@_05OCFELOIJ@1?40?40?$AA@
CONST	SEGMENT
??_C@_05OCFELOIJ@1?40?40?$AA@ DB '1.0.0', 00H		; `string'
CONST	ENDS
PUBLIC	??_7CvDllPlayerColorInfo@@6B@			; CvDllPlayerColorInfo::`vftable'
PUBLIC	??_7ICvPlayerColorInfo1@@6B@			; ICvPlayerColorInfo1::`vftable'
PUBLIC	??_7ICvUnknown@@6B@				; ICvUnknown::`vftable'
PUBLIC	??0CvDllPlayerColorInfo@@QAE@PAVCvPlayerColorInfo@@@Z ; CvDllPlayerColorInfo::CvDllPlayerColorInfo
PUBLIC	?QueryInterface@CvDllPlayerColorInfo@@UAGPAXU_GUID@@@Z ; CvDllPlayerColorInfo::QueryInterface
PUBLIC	?Destroy@CvDllPlayerColorInfo@@EAGXXZ		; CvDllPlayerColorInfo::Destroy
PUBLIC	?GetType@CvDllPlayerColorInfo@@UAGPBDXZ		; CvDllPlayerColorInfo::GetType
PUBLIC	?GetColorTypePrimary@CvDllPlayerColorInfo@@UAG?AW4ColorTypes@@XZ ; CvDllPlayerColorInfo::GetColorTypePrimary
PUBLIC	?GetColorTypeSecondary@CvDllPlayerColorInfo@@UAG?AW4ColorTypes@@XZ ; CvDllPlayerColorInfo::GetColorTypeSecondary
EXTRN	__purecall:PROC
;	COMDAT ??_7CvDllPlayerColorInfo@@6B@
; File d:\sources\lekmod_git\checkout\lekmod_dll\cvgamecoredll_expansion2\cvdllplayercolorinfo.cpp
CONST	SEGMENT
??_7CvDllPlayerColorInfo@@6B@ DD FLAT:?QueryInterface@CvDllPlayerColorInfo@@UAGPAXU_GUID@@@Z ; CvDllPlayerColorInfo::`vftable'
	DD	FLAT:?Destroy@CvDllPlayerColorInfo@@EAGXXZ
	DD	FLAT:?GetType@CvDllPlayerColorInfo@@UAGPBDXZ
	DD	FLAT:?GetColorTypePrimary@CvDllPlayerColorInfo@@UAG?AW4ColorTypes@@XZ
	DD	FLAT:?GetColorTypeSecondary@CvDllPlayerColorInfo@@UAG?AW4ColorTypes@@XZ
CONST	ENDS
;	COMDAT ??_7ICvPlayerColorInfo1@@6B@
CONST	SEGMENT
??_7ICvPlayerColorInfo1@@6B@ DD FLAT:__purecall		; ICvPlayerColorInfo1::`vftable'
	DD	FLAT:__purecall
	DD	FLAT:__purecall
	DD	FLAT:__purecall
	DD	FLAT:__purecall
CONST	ENDS
;	COMDAT ??_7ICvUnknown@@6B@
CONST	SEGMENT
??_7ICvUnknown@@6B@ DD FLAT:__purecall			; ICvUnknown::`vftable'
	DD	FLAT:__purecall
; Function compile flags: /Odtp
CONST	ENDS
;	COMDAT ??0CvDllPlayerColorInfo@@QAE@PAVCvPlayerColorInfo@@@Z
_TEXT	SEGMENT
_this$ = -4						; size = 4
_pPlayerColorInfo$ = 8					; size = 4
??0CvDllPlayerColorInfo@@QAE@PAVCvPlayerColorInfo@@@Z PROC ; CvDllPlayerColorInfo::CvDllPlayerColorInfo, COMDAT
; _this$ = ecx

; 19   : {

	push	ebp
	mov	ebp, esp
	push	ecx
	mov	DWORD PTR _this$[ebp], ecx
	mov	eax, DWORD PTR _this$[ebp]
	mov	DWORD PTR [eax], OFFSET ??_7ICvUnknown@@6B@
	mov	ecx, DWORD PTR _this$[ebp]
	mov	DWORD PTR [ecx], OFFSET ??_7ICvPlayerColorInfo1@@6B@
	mov	edx, DWORD PTR _this$[ebp]
	mov	DWORD PTR [edx], OFFSET ??_7CvDllPlayerColorInfo@@6B@
	mov	eax, DWORD PTR _this$[ebp]
	mov	DWORD PTR [eax+4], 1
	mov	ecx, DWORD PTR _this$[ebp]
	mov	edx, DWORD PTR _pPlayerColorInfo$[ebp]
	mov	DWORD PTR [ecx+8], edx

; 20   : 	FAssertMsg(pPlayerColorInfo != NULL, "SHOULD NOT HAPPEN");
; 21   : }

	mov	eax, DWORD PTR _this$[ebp]
	mov	esp, ebp
	pop	ebp
	ret	4
??0CvDllPlayerColorInfo@@QAE@PAVCvPlayerColorInfo@@@Z ENDP ; CvDllPlayerColorInfo::CvDllPlayerColorInfo
_TEXT	ENDS
PUBLIC	??1CvDllPlayerColorInfo@@QAE@XZ			; CvDllPlayerColorInfo::~CvDllPlayerColorInfo
; Function compile flags: /Odtp
;	COMDAT ??1CvDllPlayerColorInfo@@QAE@XZ
_TEXT	SEGMENT
_this$ = -4						; size = 4
??1CvDllPlayerColorInfo@@QAE@XZ PROC			; CvDllPlayerColorInfo::~CvDllPlayerColorInfo, COMDAT
; _this$ = ecx

; 24   : {

	push	ebp
	mov	ebp, esp
	push	ecx
	mov	DWORD PTR _this$[ebp], ecx
	mov	eax, DWORD PTR _this$[ebp]
	mov	DWORD PTR [eax], OFFSET ??_7CvDllPlayerColorInfo@@6B@

; 25   : }

	mov	esp, ebp
	pop	ebp
	ret	0
??1CvDllPlayerColorInfo@@QAE@XZ ENDP			; CvDllPlayerColorInfo::~CvDllPlayerColorInfo
_TEXT	ENDS
PUBLIC	?IncrementReference@CvDllPlayerColorInfo@@QAEIXZ ; CvDllPlayerColorInfo::IncrementReference
; Function compile flags: /Odtp
;	COMDAT ?QueryInterface@CvDllPlayerColorInfo@@UAGPAXU_GUID@@@Z
_TEXT	SEGMENT
tv90 = -88						; size = 4
tv161 = -84						; size = 4
tv85 = -80						; size = 4
tv137 = -76						; size = 4
$T217974 = -72						; size = 16
$T217973 = -56						; size = 16
$T217972 = -40						; size = 16
$T217971 = -20						; size = 16
_this$ = 8						; size = 4
_guidInterface$ = 12					; size = 16
?QueryInterface@CvDllPlayerColorInfo@@UAGPAXU_GUID@@@Z PROC ; CvDllPlayerColorInfo::QueryInterface, COMDAT

; 28   : {

	push	ebp
	mov	ebp, esp
	sub	esp, 88					; 00000058H
	push	esi
	push	edi

; 29   : 	if(guidInterface == ICvUnknown::GetInterfaceId() ||
; 30   : 	        guidInterface == ICvPlayerColorInfo1::GetInterfaceId())

	mov	eax, DWORD PTR _guidICvUnknown
	mov	DWORD PTR $T217972[ebp], eax
	mov	ecx, DWORD PTR _guidICvUnknown+4
	mov	DWORD PTR $T217972[ebp+4], ecx
	mov	edx, DWORD PTR _guidICvUnknown+8
	mov	DWORD PTR $T217972[ebp+8], edx
	mov	eax, DWORD PTR _guidICvUnknown+12
	mov	DWORD PTR $T217972[ebp+12], eax
	mov	ecx, DWORD PTR $T217972[ebp]
	mov	DWORD PTR $T217971[ebp], ecx
	mov	edx, DWORD PTR $T217972[ebp+4]
	mov	DWORD PTR $T217971[ebp+4], edx
	mov	eax, DWORD PTR $T217972[ebp+8]
	mov	DWORD PTR $T217971[ebp+8], eax
	mov	ecx, DWORD PTR $T217972[ebp+12]
	mov	DWORD PTR $T217971[ebp+12], ecx
	mov	ecx, 16					; 00000010H
	lea	edi, DWORD PTR $T217971[ebp]
	lea	esi, DWORD PTR _guidInterface$[ebp]
	xor	edx, edx
	mov	DWORD PTR tv137[ebp], edx
	repe cmpsb
	je	SHORT $LN17@QueryInter
	sbb	eax, eax
	sbb	eax, -1
	mov	DWORD PTR tv137[ebp], eax
$LN17@QueryInter:
	mov	ecx, DWORD PTR tv137[ebp]
	mov	DWORD PTR tv85[ebp], ecx
	xor	edx, edx
	cmp	DWORD PTR tv85[ebp], 0
	sete	dl
	test	edx, edx
	jne	SHORT $LN1@QueryInter
	mov	eax, DWORD PTR _guidICvPlayerColorInfo1
	mov	DWORD PTR $T217974[ebp], eax
	mov	ecx, DWORD PTR _guidICvPlayerColorInfo1+4
	mov	DWORD PTR $T217974[ebp+4], ecx
	mov	edx, DWORD PTR _guidICvPlayerColorInfo1+8
	mov	DWORD PTR $T217974[ebp+8], edx
	mov	eax, DWORD PTR _guidICvPlayerColorInfo1+12
	mov	DWORD PTR $T217974[ebp+12], eax
	mov	ecx, DWORD PTR $T217974[ebp]
	mov	DWORD PTR $T217973[ebp], ecx
	mov	edx, DWORD PTR $T217974[ebp+4]
	mov	DWORD PTR $T217973[ebp+4], edx
	mov	eax, DWORD PTR $T217974[ebp+8]
	mov	DWORD PTR $T217973[ebp+8], eax
	mov	ecx, DWORD PTR $T217974[ebp+12]
	mov	DWORD PTR $T217973[ebp+12], ecx
	mov	ecx, 16					; 00000010H
	lea	edi, DWORD PTR $T217973[ebp]
	lea	esi, DWORD PTR _guidInterface$[ebp]
	xor	edx, edx
	mov	DWORD PTR tv161[ebp], edx
	repe cmpsb
	je	SHORT $LN18@QueryInter
	sbb	eax, eax
	sbb	eax, -1
	mov	DWORD PTR tv161[ebp], eax
$LN18@QueryInter:
	mov	ecx, DWORD PTR tv161[ebp]
	mov	DWORD PTR tv90[ebp], ecx
	xor	edx, edx
	cmp	DWORD PTR tv90[ebp], 0
	sete	dl
	test	edx, edx
	je	SHORT $LN2@QueryInter
$LN1@QueryInter:

; 31   : 	{
; 32   : 		IncrementReference();

	mov	ecx, DWORD PTR _this$[ebp]
	call	?IncrementReference@CvDllPlayerColorInfo@@QAEIXZ ; CvDllPlayerColorInfo::IncrementReference

; 33   : 		return this;

	mov	eax, DWORD PTR _this$[ebp]
	jmp	SHORT $LN3@QueryInter
$LN2@QueryInter:

; 34   : 	}
; 35   : 
; 36   : 	return NULL;

	xor	eax, eax
$LN3@QueryInter:

; 37   : }

	pop	edi
	pop	esi
	mov	esp, ebp
	pop	ebp
	ret	20					; 00000014H
?QueryInterface@CvDllPlayerColorInfo@@UAGPAXU_GUID@@@Z ENDP ; CvDllPlayerColorInfo::QueryInterface
; Function compile flags: /Odtp
_TEXT	ENDS
;	COMDAT ?IncrementReference@CvDllPlayerColorInfo@@QAEIXZ
_TEXT	SEGMENT
_this$ = -4						; size = 4
?IncrementReference@CvDllPlayerColorInfo@@QAEIXZ PROC	; CvDllPlayerColorInfo::IncrementReference, COMDAT
; _this$ = ecx

; 40   : {

	push	ebp
	mov	ebp, esp
	push	ecx
	mov	DWORD PTR _this$[ebp], ecx

; 41   : 	++m_uiRefCount;

	mov	eax, DWORD PTR _this$[ebp]
	mov	ecx, DWORD PTR [eax+4]
	add	ecx, 1
	mov	edx, DWORD PTR _this$[ebp]
	mov	DWORD PTR [edx+4], ecx

; 42   : 	return m_uiRefCount;

	mov	eax, DWORD PTR _this$[ebp]
	mov	eax, DWORD PTR [eax+4]

; 43   : }

	mov	esp, ebp
	pop	ebp
	ret	0
?IncrementReference@CvDllPlayerColorInfo@@QAEIXZ ENDP	; CvDllPlayerColorInfo::IncrementReference
_TEXT	ENDS
PUBLIC	??3CvDllPlayerColorInfo@@SAXPAX@Z		; CvDllPlayerColorInfo::operator delete
PUBLIC	?DecrementReference@CvDllPlayerColorInfo@@QAEIXZ ; CvDllPlayerColorInfo::DecrementReference
; Function compile flags: /Odtp
;	COMDAT ?DecrementReference@CvDllPlayerColorInfo@@QAEIXZ
_TEXT	SEGMENT
tv70 = -16						; size = 4
_this$ = -12						; size = 4
$T218006 = -8						; size = 4
$T218005 = -4						; size = 4
?DecrementReference@CvDllPlayerColorInfo@@QAEIXZ PROC	; CvDllPlayerColorInfo::DecrementReference, COMDAT
; _this$ = ecx

; 46   : {

	push	ebp
	mov	ebp, esp
	sub	esp, 16					; 00000010H
	mov	DWORD PTR _this$[ebp], ecx

; 47   : 	if(m_uiRefCount == 1)

	mov	eax, DWORD PTR _this$[ebp]
	cmp	DWORD PTR [eax+4], 1
	jne	SHORT $LN2@DecrementR

; 48   : 	{
; 49   : 		delete this;

	mov	ecx, DWORD PTR _this$[ebp]
	mov	DWORD PTR $T218006[ebp], ecx
	mov	edx, DWORD PTR $T218006[ebp]
	mov	DWORD PTR $T218005[ebp], edx
	cmp	DWORD PTR $T218005[ebp], 0
	je	SHORT $LN5@DecrementR
	mov	ecx, DWORD PTR $T218005[ebp]
	call	??1CvDllPlayerColorInfo@@QAE@XZ		; CvDllPlayerColorInfo::~CvDllPlayerColorInfo
	mov	eax, 1
	and	eax, 1
	je	SHORT $LN8@DecrementR
	mov	ecx, DWORD PTR $T218005[ebp]
	push	ecx
	call	??3CvDllPlayerColorInfo@@SAXPAX@Z	; CvDllPlayerColorInfo::operator delete
	add	esp, 4
$LN8@DecrementR:
	mov	edx, DWORD PTR $T218005[ebp]
	mov	DWORD PTR tv70[ebp], edx
	jmp	SHORT $LN6@DecrementR
$LN5@DecrementR:
	mov	DWORD PTR tv70[ebp], 0
$LN6@DecrementR:

; 50   : 		return 0;

	xor	eax, eax
	jmp	SHORT $LN3@DecrementR

; 51   : 	}
; 52   : 	else

	jmp	SHORT $LN3@DecrementR
$LN2@DecrementR:

; 53   : 	{
; 54   : 		--m_uiRefCount;

	mov	eax, DWORD PTR _this$[ebp]
	mov	ecx, DWORD PTR [eax+4]
	sub	ecx, 1
	mov	edx, DWORD PTR _this$[ebp]
	mov	DWORD PTR [edx+4], ecx

; 55   : 		return m_uiRefCount;

	mov	eax, DWORD PTR _this$[ebp]
	mov	eax, DWORD PTR [eax+4]
$LN3@DecrementR:

; 56   : 	}
; 57   : }

	mov	esp, ebp
	pop	ebp
	ret	0
?DecrementReference@CvDllPlayerColorInfo@@QAEIXZ ENDP	; CvDllPlayerColorInfo::DecrementReference
_TEXT	ENDS
PUBLIC	?GetReferenceCount@CvDllPlayerColorInfo@@QAEIXZ	; CvDllPlayerColorInfo::GetReferenceCount
; Function compile flags: /Odtp
;	COMDAT ?GetReferenceCount@CvDllPlayerColorInfo@@QAEIXZ
_TEXT	SEGMENT
_this$ = -4						; size = 4
?GetReferenceCount@CvDllPlayerColorInfo@@QAEIXZ PROC	; CvDllPlayerColorInfo::GetReferenceCount, COMDAT
; _this$ = ecx

; 60   : {

	push	ebp
	mov	ebp, esp
	push	ecx
	mov	DWORD PTR _this$[ebp], ecx

; 61   : 	return m_uiRefCount;

	mov	eax, DWORD PTR _this$[ebp]
	mov	eax, DWORD PTR [eax+4]

; 62   : }

	mov	esp, ebp
	pop	ebp
	ret	0
?GetReferenceCount@CvDllPlayerColorInfo@@QAEIXZ ENDP	; CvDllPlayerColorInfo::GetReferenceCount
; Function compile flags: /Odtp
_TEXT	ENDS
;	COMDAT ?Destroy@CvDllPlayerColorInfo@@EAGXXZ
_TEXT	SEGMENT
_this$ = 8						; size = 4
?Destroy@CvDllPlayerColorInfo@@EAGXXZ PROC		; CvDllPlayerColorInfo::Destroy, COMDAT

; 65   : {

	push	ebp
	mov	ebp, esp

; 66   : 	DecrementReference();

	mov	ecx, DWORD PTR _this$[ebp]
	call	?DecrementReference@CvDllPlayerColorInfo@@QAEIXZ ; CvDllPlayerColorInfo::DecrementReference

; 67   : }

	pop	ebp
	ret	4
?Destroy@CvDllPlayerColorInfo@@EAGXXZ ENDP		; CvDllPlayerColorInfo::Destroy
_TEXT	ENDS
EXTRN	?Free@CvDllGameContext@@SAXPAX@Z:PROC		; CvDllGameContext::Free
; Function compile flags: /Odtp
;	COMDAT ??3CvDllPlayerColorInfo@@SAXPAX@Z
_TEXT	SEGMENT
_p$ = 8							; size = 4
??3CvDllPlayerColorInfo@@SAXPAX@Z PROC			; CvDllPlayerColorInfo::operator delete, COMDAT

; 70   : {

	push	ebp
	mov	ebp, esp

; 71   : 	CvDllGameContext::Free(p);

	mov	eax, DWORD PTR _p$[ebp]
	push	eax
	call	?Free@CvDllGameContext@@SAXPAX@Z	; CvDllGameContext::Free
	add	esp, 4

; 72   : }

	pop	ebp
	ret	0
??3CvDllPlayerColorInfo@@SAXPAX@Z ENDP			; CvDllPlayerColorInfo::operator delete
_TEXT	ENDS
PUBLIC	??2CvDllPlayerColorInfo@@SAPAXI@Z		; CvDllPlayerColorInfo::operator new
EXTRN	?Allocate@CvDllGameContext@@SAPAXI@Z:PROC	; CvDllGameContext::Allocate
; Function compile flags: /Odtp
;	COMDAT ??2CvDllPlayerColorInfo@@SAPAXI@Z
_TEXT	SEGMENT
_bytes$ = 8						; size = 4
??2CvDllPlayerColorInfo@@SAPAXI@Z PROC			; CvDllPlayerColorInfo::operator new, COMDAT

; 75   : {

	push	ebp
	mov	ebp, esp

; 76   : 	return CvDllGameContext::Allocate(bytes);

	mov	eax, DWORD PTR _bytes$[ebp]
	push	eax
	call	?Allocate@CvDllGameContext@@SAPAXI@Z	; CvDllGameContext::Allocate
	add	esp, 4

; 77   : }

	pop	ebp
	ret	0
??2CvDllPlayerColorInfo@@SAPAXI@Z ENDP			; CvDllPlayerColorInfo::operator new
_TEXT	ENDS
PUBLIC	?GetInstance@CvDllPlayerColorInfo@@QAEPAVCvPlayerColorInfo@@XZ ; CvDllPlayerColorInfo::GetInstance
; Function compile flags: /Odtp
;	COMDAT ?GetInstance@CvDllPlayerColorInfo@@QAEPAVCvPlayerColorInfo@@XZ
_TEXT	SEGMENT
_this$ = -4						; size = 4
?GetInstance@CvDllPlayerColorInfo@@QAEPAVCvPlayerColorInfo@@XZ PROC ; CvDllPlayerColorInfo::GetInstance, COMDAT
; _this$ = ecx

; 80   : {

	push	ebp
	mov	ebp, esp
	push	ecx
	mov	DWORD PTR _this$[ebp], ecx

; 81   : 	return m_pPlayerColorInfo;

	mov	eax, DWORD PTR _this$[ebp]
	mov	eax, DWORD PTR [eax+8]

; 82   : }

	mov	esp, ebp
	pop	ebp
	ret	0
?GetInstance@CvDllPlayerColorInfo@@QAEPAVCvPlayerColorInfo@@XZ ENDP ; CvDllPlayerColorInfo::GetInstance
_TEXT	ENDS
EXTRN	__imp_?c_str@?$basic_string@DU?$char_traits@D@std@@V?$allocator@D@2@@std@@QBEPBDXZ:PROC
; Function compile flags: /Odtp
;	COMDAT ?GetType@CvDllPlayerColorInfo@@UAGPBDXZ
_TEXT	SEGMENT
$T218028 = -4						; size = 4
_this$ = 8						; size = 4
?GetType@CvDllPlayerColorInfo@@UAGPBDXZ PROC		; CvDllPlayerColorInfo::GetType, COMDAT

; 85   : {

	push	ebp
	mov	ebp, esp
	push	ecx

; 86   : 	return m_pPlayerColorInfo->GetType();

	mov	eax, DWORD PTR _this$[ebp]
	mov	ecx, DWORD PTR [eax+8]
	mov	DWORD PTR $T218028[ebp], ecx
	mov	ecx, DWORD PTR $T218028[ebp]
	add	ecx, 176				; 000000b0H
	call	DWORD PTR __imp_?c_str@?$basic_string@DU?$char_traits@D@std@@V?$allocator@D@2@@std@@QBEPBDXZ

; 87   : }

	mov	esp, ebp
	pop	ebp
	ret	4
?GetType@CvDllPlayerColorInfo@@UAGPBDXZ ENDP		; CvDllPlayerColorInfo::GetType
_TEXT	ENDS
PUBLIC	?GetDescription@CvDllPlayerColorInfo@@QAGPBDXZ	; CvDllPlayerColorInfo::GetDescription
; Function compile flags: /Odtp
;	COMDAT ?GetDescription@CvDllPlayerColorInfo@@QAGPBDXZ
_TEXT	SEGMENT
$T218034 = -4						; size = 4
_this$ = 8						; size = 4
?GetDescription@CvDllPlayerColorInfo@@QAGPBDXZ PROC	; CvDllPlayerColorInfo::GetDescription, COMDAT

; 90   : {

	push	ebp
	mov	ebp, esp
	push	ecx

; 91   : 	return m_pPlayerColorInfo->GetDescription();

	mov	eax, DWORD PTR _this$[ebp]
	mov	ecx, DWORD PTR [eax+8]
	mov	DWORD PTR $T218034[ebp], ecx
	mov	ecx, DWORD PTR $T218034[ebp]
	add	ecx, 36					; 00000024H
	call	DWORD PTR __imp_?c_str@?$basic_string@DU?$char_traits@D@std@@V?$allocator@D@2@@std@@QBEPBDXZ

; 92   : }

	mov	esp, ebp
	pop	ebp
	ret	4
?GetDescription@CvDllPlayerColorInfo@@QAGPBDXZ ENDP	; CvDllPlayerColorInfo::GetDescription
_TEXT	ENDS
EXTRN	?GetColorTypePrimary@CvPlayerColorInfo@@QBEHXZ:PROC ; CvPlayerColorInfo::GetColorTypePrimary
; Function compile flags: /Odtp
;	COMDAT ?GetColorTypePrimary@CvDllPlayerColorInfo@@UAG?AW4ColorTypes@@XZ
_TEXT	SEGMENT
_this$ = 8						; size = 4
?GetColorTypePrimary@CvDllPlayerColorInfo@@UAG?AW4ColorTypes@@XZ PROC ; CvDllPlayerColorInfo::GetColorTypePrimary, COMDAT

; 95   : {

	push	ebp
	mov	ebp, esp

; 96   : 	return static_cast<ColorTypes>(m_pPlayerColorInfo->GetColorTypePrimary());

	mov	eax, DWORD PTR _this$[ebp]
	mov	ecx, DWORD PTR [eax+8]
	call	?GetColorTypePrimary@CvPlayerColorInfo@@QBEHXZ ; CvPlayerColorInfo::GetColorTypePrimary

; 97   : }

	pop	ebp
	ret	4
?GetColorTypePrimary@CvDllPlayerColorInfo@@UAG?AW4ColorTypes@@XZ ENDP ; CvDllPlayerColorInfo::GetColorTypePrimary
_TEXT	ENDS
EXTRN	?GetColorTypeSecondary@CvPlayerColorInfo@@QBEHXZ:PROC ; CvPlayerColorInfo::GetColorTypeSecondary
; Function compile flags: /Odtp
;	COMDAT ?GetColorTypeSecondary@CvDllPlayerColorInfo@@UAG?AW4ColorTypes@@XZ
_TEXT	SEGMENT
_this$ = 8						; size = 4
?GetColorTypeSecondary@CvDllPlayerColorInfo@@UAG?AW4ColorTypes@@XZ PROC ; CvDllPlayerColorInfo::GetColorTypeSecondary, COMDAT

; 100  : {

	push	ebp
	mov	ebp, esp

; 101  : 	return static_cast<ColorTypes>(m_pPlayerColorInfo->GetColorTypeSecondary());

	mov	eax, DWORD PTR _this$[ebp]
	mov	ecx, DWORD PTR [eax+8]
	call	?GetColorTypeSecondary@CvPlayerColorInfo@@QBEHXZ ; CvPlayerColorInfo::GetColorTypeSecondary

; 102  : }

	pop	ebp
	ret	4
?GetColorTypeSecondary@CvDllPlayerColorInfo@@UAG?AW4ColorTypes@@XZ ENDP ; CvDllPlayerColorInfo::GetColorTypeSecondary
_TEXT	ENDS
END
