; Listing generated by Microsoft (R) Optimizing Compiler Version 15.00.30729.01 

	TITLE	D:\sources\Lekmod_git\checkout\LEKMOD_DLL\CvGameCoreDLL_Expansion2\CvDllGameDeals.cpp
	.686P
	.XMM
	include listing.inc
	.model	flat

INCLUDELIB MSVCRT
INCLUDELIB OLDNAMES

PUBLIC	??_C@_05OCFELOIJ@1?40?40?$AA@			; `string'
CONST	SEGMENT
_guidICvUnknown DD 0d89ba82fH
	DW	09fa3H
	DW	04696H
	DB	0b3H
	DB	0f4H
	DB	052H
	DB	0bdH
	DB	0b1H
	DB	01H
	DB	0cfH
	DB	0b2H
_guidICvGameDeals1 DD 04e021163H
	DW	0b771H
	DW	04cfbH
	DB	098H
	DB	0aaH
	DB	04fH
	DB	07aH
	DB	0d9H
	DB	0bcH
	DB	0a3H
	DB	07eH
CONST	ENDS
_DATA	SEGMENT
_CIV5_XP2_DLL_VERSION DD FLAT:??_C@_05OCFELOIJ@1?40?40?$AA@
_DATA	ENDS
;	COMDAT ??_C@_05OCFELOIJ@1?40?40?$AA@
CONST	SEGMENT
??_C@_05OCFELOIJ@1?40?40?$AA@ DB '1.0.0', 00H		; `string'
CONST	ENDS
PUBLIC	??_7CvDllGameDeals@@6B@				; CvDllGameDeals::`vftable'
PUBLIC	??_7ICvGameDeals1@@6B@				; ICvGameDeals1::`vftable'
PUBLIC	??_7ICvUnknown@@6B@				; ICvUnknown::`vftable'
PUBLIC	??0CvDllGameDeals@@QAE@PAVCvGameDeals@@@Z	; CvDllGameDeals::CvDllGameDeals
PUBLIC	?QueryInterface@CvDllGameDeals@@UAGPAXU_GUID@@@Z ; CvDllGameDeals::QueryInterface
PUBLIC	?Destroy@CvDllGameDeals@@EAGXXZ			; CvDllGameDeals::Destroy
PUBLIC	?AddProposedDeal@CvDllGameDeals@@UAGXPAVICvDeal1@@@Z ; CvDllGameDeals::AddProposedDeal
PUBLIC	?FinalizeDeal@CvDllGameDeals@@UAG_NW4PlayerTypes@@0_N@Z ; CvDllGameDeals::FinalizeDeal
PUBLIC	?GetTempDeal@CvDllGameDeals@@UAGPAVICvDeal1@@XZ	; CvDllGameDeals::GetTempDeal
PUBLIC	?SetTempDeal@CvDllGameDeals@@UAGXPAVICvDeal1@@@Z ; CvDllGameDeals::SetTempDeal
PUBLIC	?HasMadeProposal@CvDllGameDeals@@UAG?AW4PlayerTypes@@W42@@Z ; CvDllGameDeals::HasMadeProposal
PUBLIC	?ProposedDealExists@CvDllGameDeals@@UAG_NW4PlayerTypes@@0@Z ; CvDllGameDeals::ProposedDealExists
PUBLIC	?GetProposedDeal@CvDllGameDeals@@UAGPAVICvDeal1@@W4PlayerTypes@@0@Z ; CvDllGameDeals::GetProposedDeal
PUBLIC	?GetCurrentDeal@CvDllGameDeals@@UAGPAVICvDeal1@@W4PlayerTypes@@I@Z ; CvDllGameDeals::GetCurrentDeal
PUBLIC	?GetHistoricDeal@CvDllGameDeals@@UAGPAVICvDeal1@@W4PlayerTypes@@I@Z ; CvDllGameDeals::GetHistoricDeal
PUBLIC	?GetNumCurrentDeals@CvDllGameDeals@@UAGIW4PlayerTypes@@@Z ; CvDllGameDeals::GetNumCurrentDeals
PUBLIC	?GetNumHistoricDeals@CvDllGameDeals@@UAGIW4PlayerTypes@@@Z ; CvDllGameDeals::GetNumHistoricDeals
PUBLIC	?CreateDeal@CvDllGameDeals@@UAGIXZ		; CvDllGameDeals::CreateDeal
PUBLIC	?GetDeal@CvDllGameDeals@@UAGPAVICvDeal1@@I@Z	; CvDllGameDeals::GetDeal
PUBLIC	?DestroyDeal@CvDllGameDeals@@UAGXI@Z		; CvDllGameDeals::DestroyDeal
EXTRN	__purecall:PROC
;	COMDAT ??_7CvDllGameDeals@@6B@
; File d:\sources\lekmod_git\checkout\lekmod_dll\cvgamecoredll_expansion2\cvdllgamedeals.cpp
CONST	SEGMENT
??_7CvDllGameDeals@@6B@ DD FLAT:?QueryInterface@CvDllGameDeals@@UAGPAXU_GUID@@@Z ; CvDllGameDeals::`vftable'
	DD	FLAT:?Destroy@CvDllGameDeals@@EAGXXZ
	DD	FLAT:?AddProposedDeal@CvDllGameDeals@@UAGXPAVICvDeal1@@@Z
	DD	FLAT:?FinalizeDeal@CvDllGameDeals@@UAG_NW4PlayerTypes@@0_N@Z
	DD	FLAT:?GetTempDeal@CvDllGameDeals@@UAGPAVICvDeal1@@XZ
	DD	FLAT:?SetTempDeal@CvDllGameDeals@@UAGXPAVICvDeal1@@@Z
	DD	FLAT:?HasMadeProposal@CvDllGameDeals@@UAG?AW4PlayerTypes@@W42@@Z
	DD	FLAT:?ProposedDealExists@CvDllGameDeals@@UAG_NW4PlayerTypes@@0@Z
	DD	FLAT:?GetProposedDeal@CvDllGameDeals@@UAGPAVICvDeal1@@W4PlayerTypes@@0@Z
	DD	FLAT:?GetCurrentDeal@CvDllGameDeals@@UAGPAVICvDeal1@@W4PlayerTypes@@I@Z
	DD	FLAT:?GetHistoricDeal@CvDllGameDeals@@UAGPAVICvDeal1@@W4PlayerTypes@@I@Z
	DD	FLAT:?GetNumCurrentDeals@CvDllGameDeals@@UAGIW4PlayerTypes@@@Z
	DD	FLAT:?GetNumHistoricDeals@CvDllGameDeals@@UAGIW4PlayerTypes@@@Z
	DD	FLAT:?CreateDeal@CvDllGameDeals@@UAGIXZ
	DD	FLAT:?GetDeal@CvDllGameDeals@@UAGPAVICvDeal1@@I@Z
	DD	FLAT:?DestroyDeal@CvDllGameDeals@@UAGXI@Z
CONST	ENDS
;	COMDAT ??_7ICvGameDeals1@@6B@
CONST	SEGMENT
??_7ICvGameDeals1@@6B@ DD FLAT:__purecall		; ICvGameDeals1::`vftable'
	DD	FLAT:__purecall
	DD	FLAT:__purecall
	DD	FLAT:__purecall
	DD	FLAT:__purecall
	DD	FLAT:__purecall
	DD	FLAT:__purecall
	DD	FLAT:__purecall
	DD	FLAT:__purecall
	DD	FLAT:__purecall
	DD	FLAT:__purecall
	DD	FLAT:__purecall
	DD	FLAT:__purecall
	DD	FLAT:__purecall
	DD	FLAT:__purecall
	DD	FLAT:__purecall
CONST	ENDS
;	COMDAT ??_7ICvUnknown@@6B@
CONST	SEGMENT
??_7ICvUnknown@@6B@ DD FLAT:__purecall			; ICvUnknown::`vftable'
	DD	FLAT:__purecall
; Function compile flags: /Odtp
CONST	ENDS
;	COMDAT ??0CvDllGameDeals@@QAE@PAVCvGameDeals@@@Z
_TEXT	SEGMENT
_this$ = -4						; size = 4
_pGameDeals$ = 8					; size = 4
??0CvDllGameDeals@@QAE@PAVCvGameDeals@@@Z PROC		; CvDllGameDeals::CvDllGameDeals, COMDAT
; _this$ = ecx

; 21   : {

	push	ebp
	mov	ebp, esp
	push	ecx
	mov	DWORD PTR _this$[ebp], ecx
	mov	eax, DWORD PTR _this$[ebp]
	mov	DWORD PTR [eax], OFFSET ??_7ICvUnknown@@6B@
	mov	ecx, DWORD PTR _this$[ebp]
	mov	DWORD PTR [ecx], OFFSET ??_7ICvGameDeals1@@6B@
	mov	edx, DWORD PTR _this$[ebp]
	mov	DWORD PTR [edx], OFFSET ??_7CvDllGameDeals@@6B@
	mov	eax, DWORD PTR _this$[ebp]
	mov	DWORD PTR [eax+4], 1
	mov	ecx, DWORD PTR _this$[ebp]
	mov	edx, DWORD PTR _pGameDeals$[ebp]
	mov	DWORD PTR [ecx+8], edx

; 22   : }

	mov	eax, DWORD PTR _this$[ebp]
	mov	esp, ebp
	pop	ebp
	ret	4
??0CvDllGameDeals@@QAE@PAVCvGameDeals@@@Z ENDP		; CvDllGameDeals::CvDllGameDeals
_TEXT	ENDS
PUBLIC	??1CvDllGameDeals@@QAE@XZ			; CvDllGameDeals::~CvDllGameDeals
; Function compile flags: /Odtp
;	COMDAT ??1CvDllGameDeals@@QAE@XZ
_TEXT	SEGMENT
_this$ = -4						; size = 4
??1CvDllGameDeals@@QAE@XZ PROC				; CvDllGameDeals::~CvDllGameDeals, COMDAT
; _this$ = ecx

; 25   : {

	push	ebp
	mov	ebp, esp
	push	ecx
	mov	DWORD PTR _this$[ebp], ecx
	mov	eax, DWORD PTR _this$[ebp]
	mov	DWORD PTR [eax], OFFSET ??_7CvDllGameDeals@@6B@

; 26   : }

	mov	esp, ebp
	pop	ebp
	ret	0
??1CvDllGameDeals@@QAE@XZ ENDP				; CvDllGameDeals::~CvDllGameDeals
_TEXT	ENDS
PUBLIC	?IncrementReference@CvDllGameDeals@@QAEIXZ	; CvDllGameDeals::IncrementReference
; Function compile flags: /Odtp
;	COMDAT ?QueryInterface@CvDllGameDeals@@UAGPAXU_GUID@@@Z
_TEXT	SEGMENT
tv90 = -88						; size = 4
tv161 = -84						; size = 4
tv85 = -80						; size = 4
tv137 = -76						; size = 4
$T218124 = -72						; size = 16
$T218123 = -56						; size = 16
$T218122 = -40						; size = 16
$T218121 = -20						; size = 16
_this$ = 8						; size = 4
_guidInterface$ = 12					; size = 16
?QueryInterface@CvDllGameDeals@@UAGPAXU_GUID@@@Z PROC	; CvDllGameDeals::QueryInterface, COMDAT

; 29   : {

	push	ebp
	mov	ebp, esp
	sub	esp, 88					; 00000058H
	push	esi
	push	edi

; 30   : 	if(guidInterface == ICvUnknown::GetInterfaceId() ||
; 31   : 	        guidInterface == ICvGameDeals1::GetInterfaceId())

	mov	eax, DWORD PTR _guidICvUnknown
	mov	DWORD PTR $T218122[ebp], eax
	mov	ecx, DWORD PTR _guidICvUnknown+4
	mov	DWORD PTR $T218122[ebp+4], ecx
	mov	edx, DWORD PTR _guidICvUnknown+8
	mov	DWORD PTR $T218122[ebp+8], edx
	mov	eax, DWORD PTR _guidICvUnknown+12
	mov	DWORD PTR $T218122[ebp+12], eax
	mov	ecx, DWORD PTR $T218122[ebp]
	mov	DWORD PTR $T218121[ebp], ecx
	mov	edx, DWORD PTR $T218122[ebp+4]
	mov	DWORD PTR $T218121[ebp+4], edx
	mov	eax, DWORD PTR $T218122[ebp+8]
	mov	DWORD PTR $T218121[ebp+8], eax
	mov	ecx, DWORD PTR $T218122[ebp+12]
	mov	DWORD PTR $T218121[ebp+12], ecx
	mov	ecx, 16					; 00000010H
	lea	edi, DWORD PTR $T218121[ebp]
	lea	esi, DWORD PTR _guidInterface$[ebp]
	xor	edx, edx
	mov	DWORD PTR tv137[ebp], edx
	repe cmpsb
	je	SHORT $LN17@QueryInter
	sbb	eax, eax
	sbb	eax, -1
	mov	DWORD PTR tv137[ebp], eax
$LN17@QueryInter:
	mov	ecx, DWORD PTR tv137[ebp]
	mov	DWORD PTR tv85[ebp], ecx
	xor	edx, edx
	cmp	DWORD PTR tv85[ebp], 0
	sete	dl
	test	edx, edx
	jne	SHORT $LN1@QueryInter
	mov	eax, DWORD PTR _guidICvGameDeals1
	mov	DWORD PTR $T218124[ebp], eax
	mov	ecx, DWORD PTR _guidICvGameDeals1+4
	mov	DWORD PTR $T218124[ebp+4], ecx
	mov	edx, DWORD PTR _guidICvGameDeals1+8
	mov	DWORD PTR $T218124[ebp+8], edx
	mov	eax, DWORD PTR _guidICvGameDeals1+12
	mov	DWORD PTR $T218124[ebp+12], eax
	mov	ecx, DWORD PTR $T218124[ebp]
	mov	DWORD PTR $T218123[ebp], ecx
	mov	edx, DWORD PTR $T218124[ebp+4]
	mov	DWORD PTR $T218123[ebp+4], edx
	mov	eax, DWORD PTR $T218124[ebp+8]
	mov	DWORD PTR $T218123[ebp+8], eax
	mov	ecx, DWORD PTR $T218124[ebp+12]
	mov	DWORD PTR $T218123[ebp+12], ecx
	mov	ecx, 16					; 00000010H
	lea	edi, DWORD PTR $T218123[ebp]
	lea	esi, DWORD PTR _guidInterface$[ebp]
	xor	edx, edx
	mov	DWORD PTR tv161[ebp], edx
	repe cmpsb
	je	SHORT $LN18@QueryInter
	sbb	eax, eax
	sbb	eax, -1
	mov	DWORD PTR tv161[ebp], eax
$LN18@QueryInter:
	mov	ecx, DWORD PTR tv161[ebp]
	mov	DWORD PTR tv90[ebp], ecx
	xor	edx, edx
	cmp	DWORD PTR tv90[ebp], 0
	sete	dl
	test	edx, edx
	je	SHORT $LN2@QueryInter
$LN1@QueryInter:

; 32   : 	{
; 33   : 		IncrementReference();

	mov	ecx, DWORD PTR _this$[ebp]
	call	?IncrementReference@CvDllGameDeals@@QAEIXZ ; CvDllGameDeals::IncrementReference

; 34   : 		return this;

	mov	eax, DWORD PTR _this$[ebp]
	jmp	SHORT $LN3@QueryInter
$LN2@QueryInter:

; 35   : 	}
; 36   : 
; 37   : 	return NULL;

	xor	eax, eax
$LN3@QueryInter:

; 38   : }

	pop	edi
	pop	esi
	mov	esp, ebp
	pop	ebp
	ret	20					; 00000014H
?QueryInterface@CvDllGameDeals@@UAGPAXU_GUID@@@Z ENDP	; CvDllGameDeals::QueryInterface
; Function compile flags: /Odtp
_TEXT	ENDS
;	COMDAT ?IncrementReference@CvDllGameDeals@@QAEIXZ
_TEXT	SEGMENT
_this$ = -4						; size = 4
?IncrementReference@CvDllGameDeals@@QAEIXZ PROC		; CvDllGameDeals::IncrementReference, COMDAT
; _this$ = ecx

; 41   : {

	push	ebp
	mov	ebp, esp
	push	ecx
	mov	DWORD PTR _this$[ebp], ecx

; 42   : 	++m_uiRefCount;

	mov	eax, DWORD PTR _this$[ebp]
	mov	ecx, DWORD PTR [eax+4]
	add	ecx, 1
	mov	edx, DWORD PTR _this$[ebp]
	mov	DWORD PTR [edx+4], ecx

; 43   : 	return m_uiRefCount;

	mov	eax, DWORD PTR _this$[ebp]
	mov	eax, DWORD PTR [eax+4]

; 44   : }

	mov	esp, ebp
	pop	ebp
	ret	0
?IncrementReference@CvDllGameDeals@@QAEIXZ ENDP		; CvDllGameDeals::IncrementReference
_TEXT	ENDS
PUBLIC	??3CvDllGameDeals@@SAXPAX@Z			; CvDllGameDeals::operator delete
PUBLIC	?DecrementReference@CvDllGameDeals@@QAEIXZ	; CvDllGameDeals::DecrementReference
; Function compile flags: /Odtp
;	COMDAT ?DecrementReference@CvDllGameDeals@@QAEIXZ
_TEXT	SEGMENT
tv70 = -16						; size = 4
_this$ = -12						; size = 4
$T218156 = -8						; size = 4
$T218155 = -4						; size = 4
?DecrementReference@CvDllGameDeals@@QAEIXZ PROC		; CvDllGameDeals::DecrementReference, COMDAT
; _this$ = ecx

; 47   : {

	push	ebp
	mov	ebp, esp
	sub	esp, 16					; 00000010H
	mov	DWORD PTR _this$[ebp], ecx

; 48   : 	if(m_uiRefCount == 1)

	mov	eax, DWORD PTR _this$[ebp]
	cmp	DWORD PTR [eax+4], 1
	jne	SHORT $LN2@DecrementR

; 49   : 	{
; 50   : 		delete this;

	mov	ecx, DWORD PTR _this$[ebp]
	mov	DWORD PTR $T218156[ebp], ecx
	mov	edx, DWORD PTR $T218156[ebp]
	mov	DWORD PTR $T218155[ebp], edx
	cmp	DWORD PTR $T218155[ebp], 0
	je	SHORT $LN5@DecrementR
	mov	ecx, DWORD PTR $T218155[ebp]
	call	??1CvDllGameDeals@@QAE@XZ		; CvDllGameDeals::~CvDllGameDeals
	mov	eax, 1
	and	eax, 1
	je	SHORT $LN8@DecrementR
	mov	ecx, DWORD PTR $T218155[ebp]
	push	ecx
	call	??3CvDllGameDeals@@SAXPAX@Z		; CvDllGameDeals::operator delete
	add	esp, 4
$LN8@DecrementR:
	mov	edx, DWORD PTR $T218155[ebp]
	mov	DWORD PTR tv70[ebp], edx
	jmp	SHORT $LN6@DecrementR
$LN5@DecrementR:
	mov	DWORD PTR tv70[ebp], 0
$LN6@DecrementR:

; 51   : 		return 0;

	xor	eax, eax
	jmp	SHORT $LN3@DecrementR

; 52   : 	}
; 53   : 	else

	jmp	SHORT $LN3@DecrementR
$LN2@DecrementR:

; 54   : 	{
; 55   : 		--m_uiRefCount;

	mov	eax, DWORD PTR _this$[ebp]
	mov	ecx, DWORD PTR [eax+4]
	sub	ecx, 1
	mov	edx, DWORD PTR _this$[ebp]
	mov	DWORD PTR [edx+4], ecx

; 56   : 		return m_uiRefCount;

	mov	eax, DWORD PTR _this$[ebp]
	mov	eax, DWORD PTR [eax+4]
$LN3@DecrementR:

; 57   : 	}
; 58   : }

	mov	esp, ebp
	pop	ebp
	ret	0
?DecrementReference@CvDllGameDeals@@QAEIXZ ENDP		; CvDllGameDeals::DecrementReference
_TEXT	ENDS
PUBLIC	?GetReferenceCount@CvDllGameDeals@@QAEIXZ	; CvDllGameDeals::GetReferenceCount
; Function compile flags: /Odtp
;	COMDAT ?GetReferenceCount@CvDllGameDeals@@QAEIXZ
_TEXT	SEGMENT
_this$ = -4						; size = 4
?GetReferenceCount@CvDllGameDeals@@QAEIXZ PROC		; CvDllGameDeals::GetReferenceCount, COMDAT
; _this$ = ecx

; 61   : {

	push	ebp
	mov	ebp, esp
	push	ecx
	mov	DWORD PTR _this$[ebp], ecx

; 62   : 	return m_uiRefCount;

	mov	eax, DWORD PTR _this$[ebp]
	mov	eax, DWORD PTR [eax+4]

; 63   : }

	mov	esp, ebp
	pop	ebp
	ret	0
?GetReferenceCount@CvDllGameDeals@@QAEIXZ ENDP		; CvDllGameDeals::GetReferenceCount
; Function compile flags: /Odtp
_TEXT	ENDS
;	COMDAT ?Destroy@CvDllGameDeals@@EAGXXZ
_TEXT	SEGMENT
_this$ = 8						; size = 4
?Destroy@CvDllGameDeals@@EAGXXZ PROC			; CvDllGameDeals::Destroy, COMDAT

; 66   : {

	push	ebp
	mov	ebp, esp

; 67   : 	DecrementReference();

	mov	ecx, DWORD PTR _this$[ebp]
	call	?DecrementReference@CvDllGameDeals@@QAEIXZ ; CvDllGameDeals::DecrementReference

; 68   : }

	pop	ebp
	ret	4
?Destroy@CvDllGameDeals@@EAGXXZ ENDP			; CvDllGameDeals::Destroy
_TEXT	ENDS
EXTRN	?Free@CvDllGameContext@@SAXPAX@Z:PROC		; CvDllGameContext::Free
; Function compile flags: /Odtp
;	COMDAT ??3CvDllGameDeals@@SAXPAX@Z
_TEXT	SEGMENT
_p$ = 8							; size = 4
??3CvDllGameDeals@@SAXPAX@Z PROC			; CvDllGameDeals::operator delete, COMDAT

; 71   : {

	push	ebp
	mov	ebp, esp

; 72   : 	CvDllGameContext::Free(p);

	mov	eax, DWORD PTR _p$[ebp]
	push	eax
	call	?Free@CvDllGameContext@@SAXPAX@Z	; CvDllGameContext::Free
	add	esp, 4

; 73   : }

	pop	ebp
	ret	0
??3CvDllGameDeals@@SAXPAX@Z ENDP			; CvDllGameDeals::operator delete
_TEXT	ENDS
PUBLIC	??2CvDllGameDeals@@SAPAXI@Z			; CvDllGameDeals::operator new
EXTRN	?Allocate@CvDllGameContext@@SAPAXI@Z:PROC	; CvDllGameContext::Allocate
; Function compile flags: /Odtp
;	COMDAT ??2CvDllGameDeals@@SAPAXI@Z
_TEXT	SEGMENT
_bytes$ = 8						; size = 4
??2CvDllGameDeals@@SAPAXI@Z PROC			; CvDllGameDeals::operator new, COMDAT

; 76   : {

	push	ebp
	mov	ebp, esp

; 77   : 	return CvDllGameContext::Allocate(bytes);

	mov	eax, DWORD PTR _bytes$[ebp]
	push	eax
	call	?Allocate@CvDllGameContext@@SAPAXI@Z	; CvDllGameContext::Allocate
	add	esp, 4

; 78   : }

	pop	ebp
	ret	0
??2CvDllGameDeals@@SAPAXI@Z ENDP			; CvDllGameDeals::operator new
_TEXT	ENDS
PUBLIC	?GetInstance@CvDllGameDeals@@QAEPAVCvGameDeals@@XZ ; CvDllGameDeals::GetInstance
; Function compile flags: /Odtp
;	COMDAT ?GetInstance@CvDllGameDeals@@QAEPAVCvGameDeals@@XZ
_TEXT	SEGMENT
_this$ = -4						; size = 4
?GetInstance@CvDllGameDeals@@QAEPAVCvGameDeals@@XZ PROC	; CvDllGameDeals::GetInstance, COMDAT
; _this$ = ecx

; 81   : {

	push	ebp
	mov	ebp, esp
	push	ecx
	mov	DWORD PTR _this$[ebp], ecx

; 82   : 	return m_pGameDeals;

	mov	eax, DWORD PTR _this$[ebp]
	mov	eax, DWORD PTR [eax+8]

; 83   : }

	mov	esp, ebp
	pop	ebp
	ret	0
?GetInstance@CvDllGameDeals@@QAEPAVCvGameDeals@@XZ ENDP	; CvDllGameDeals::GetInstance
_TEXT	ENDS
EXTRN	?AddProposedDeal@CvGameDeals@@QAEXVCvDeal@@@Z:PROC ; CvGameDeals::AddProposedDeal
EXTRN	??0CvDeal@@QAE@ABV0@@Z:PROC			; CvDeal::CvDeal
EXTRN	?GetInstance@CvDllDeal@@QAEPAVCvDeal@@XZ:PROC	; CvDllDeal::GetInstance
; Function compile flags: /Odtp
;	COMDAT ?AddProposedDeal@CvDllGameDeals@@UAGXPAVICvDeal1@@@Z
_TEXT	SEGMENT
tv90 = -16						; size = 4
tv71 = -12						; size = 4
$T218177 = -8						; size = 4
_pkDeal$ = -4						; size = 4
_this$ = 8						; size = 4
_pDeal$ = 12						; size = 4
?AddProposedDeal@CvDllGameDeals@@UAGXPAVICvDeal1@@@Z PROC ; CvDllGameDeals::AddProposedDeal, COMDAT

; 86   : {

	push	ebp
	mov	ebp, esp
	sub	esp, 16					; 00000010H

; 87   : 	CvDeal* pkDeal = (NULL != pDeal)? static_cast<CvDllDeal*>(pDeal)->GetInstance() : NULL;

	cmp	DWORD PTR _pDeal$[ebp], 0
	je	SHORT $LN4@AddPropose
	mov	ecx, DWORD PTR _pDeal$[ebp]
	call	?GetInstance@CvDllDeal@@QAEPAVCvDeal@@XZ ; CvDllDeal::GetInstance
	mov	DWORD PTR tv71[ebp], eax
	jmp	SHORT $LN5@AddPropose
$LN4@AddPropose:
	mov	DWORD PTR tv71[ebp], 0
$LN5@AddPropose:
	mov	eax, DWORD PTR tv71[ebp]
	mov	DWORD PTR _pkDeal$[ebp], eax

; 88   : 	if(pkDeal != NULL)

	cmp	DWORD PTR _pkDeal$[ebp], 0
	je	SHORT $LN2@AddPropose

; 89   : 	{
; 90   : 		m_pGameDeals->AddProposedDeal(*pkDeal);

	sub	esp, 76					; 0000004cH
	mov	ecx, esp
	mov	DWORD PTR $T218177[ebp], esp
	mov	edx, DWORD PTR _pkDeal$[ebp]
	push	edx
	call	??0CvDeal@@QAE@ABV0@@Z			; CvDeal::CvDeal
	mov	DWORD PTR tv90[ebp], eax
	mov	eax, DWORD PTR _this$[ebp]
	mov	ecx, DWORD PTR [eax+8]
	call	?AddProposedDeal@CvGameDeals@@QAEXVCvDeal@@@Z ; CvGameDeals::AddProposedDeal
$LN2@AddPropose:

; 91   : 	}
; 92   : }

	mov	esp, ebp
	pop	ebp
	ret	8
?AddProposedDeal@CvDllGameDeals@@UAGXPAVICvDeal1@@@Z ENDP ; CvDllGameDeals::AddProposedDeal
_TEXT	ENDS
EXTRN	?FinalizeDeal@CvGameDeals@@QAE_NW4PlayerTypes@@0_N@Z:PROC ; CvGameDeals::FinalizeDeal
; Function compile flags: /Odtp
;	COMDAT ?FinalizeDeal@CvDllGameDeals@@UAG_NW4PlayerTypes@@0_N@Z
_TEXT	SEGMENT
_this$ = 8						; size = 4
_eFromPlayer$ = 12					; size = 4
_eToPlayer$ = 16					; size = 4
_bAccepted$ = 20					; size = 1
?FinalizeDeal@CvDllGameDeals@@UAG_NW4PlayerTypes@@0_N@Z PROC ; CvDllGameDeals::FinalizeDeal, COMDAT

; 95   : {

	push	ebp
	mov	ebp, esp

; 96   : 	return m_pGameDeals->FinalizeDeal(eFromPlayer, eToPlayer, bAccepted);

	movzx	eax, BYTE PTR _bAccepted$[ebp]
	push	eax
	mov	ecx, DWORD PTR _eToPlayer$[ebp]
	push	ecx
	mov	edx, DWORD PTR _eFromPlayer$[ebp]
	push	edx
	mov	eax, DWORD PTR _this$[ebp]
	mov	ecx, DWORD PTR [eax+8]
	call	?FinalizeDeal@CvGameDeals@@QAE_NW4PlayerTypes@@0_N@Z ; CvGameDeals::FinalizeDeal

; 97   : }

	pop	ebp
	ret	16					; 00000010H
?FinalizeDeal@CvDllGameDeals@@UAG_NW4PlayerTypes@@0_N@Z ENDP ; CvDllGameDeals::FinalizeDeal
_TEXT	ENDS
EXTRN	??3CvDllDeal@@SAXPAX@Z:PROC			; CvDllDeal::operator delete
EXTRN	??0CvDllDeal@@QAE@PAVCvDeal@@@Z:PROC		; CvDllDeal::CvDllDeal
EXTRN	??2CvDllDeal@@SAPAXI@Z:PROC			; CvDllDeal::operator new
EXTRN	?GetTempDeal@CvGameDeals@@QAEPAVCvDeal@@XZ:PROC	; CvGameDeals::GetTempDeal
EXTRN	___security_cookie:DWORD
EXTRN	___CxxFrameHandler3:PROC
EXTRN	@__security_check_cookie@4:PROC
;	COMDAT xdata$x
xdata$x	SEGMENT
__unwindtable$?GetTempDeal@CvDllGameDeals@@UAGPAVICvDeal1@@XZ DD 0ffffffffH
	DD	FLAT:__unwindfunclet$?GetTempDeal@CvDllGameDeals@@UAGPAVICvDeal1@@XZ$0
__ehfuncinfo$?GetTempDeal@CvDllGameDeals@@UAGPAVICvDeal1@@XZ DD 019930522H
	DD	01H
	DD	FLAT:__unwindtable$?GetTempDeal@CvDllGameDeals@@UAGPAVICvDeal1@@XZ
	DD	2 DUP(00H)
	DD	2 DUP(00H)
	DD	00H
	DD	01H
; Function compile flags: /Odtp
xdata$x	ENDS
;	COMDAT ?GetTempDeal@CvDllGameDeals@@UAGPAVICvDeal1@@XZ
_TEXT	SEGMENT
tv74 = -32						; size = 4
tv79 = -28						; size = 4
$T218184 = -24						; size = 4
$T218183 = -20						; size = 4
_pDeal$ = -16						; size = 4
__$EHRec$ = -12						; size = 12
_this$ = 8						; size = 4
?GetTempDeal@CvDllGameDeals@@UAGPAVICvDeal1@@XZ PROC	; CvDllGameDeals::GetTempDeal, COMDAT

; 100  : {

	push	ebp
	mov	ebp, esp
	push	-1
	push	__ehhandler$?GetTempDeal@CvDllGameDeals@@UAGPAVICvDeal1@@XZ
	mov	eax, DWORD PTR fs:0
	push	eax
	sub	esp, 20					; 00000014H
	mov	eax, DWORD PTR ___security_cookie
	xor	eax, ebp
	push	eax
	lea	eax, DWORD PTR __$EHRec$[ebp]
	mov	DWORD PTR fs:0, eax

; 101  : 	CvDeal* pDeal = m_pGameDeals->GetTempDeal();

	mov	eax, DWORD PTR _this$[ebp]
	mov	ecx, DWORD PTR [eax+8]
	call	?GetTempDeal@CvGameDeals@@QAEPAVCvDeal@@XZ ; CvGameDeals::GetTempDeal
	mov	DWORD PTR _pDeal$[ebp], eax

; 102  : 	return (NULL != pDeal)? new CvDllDeal(pDeal) : NULL;

	cmp	DWORD PTR _pDeal$[ebp], 0
	je	SHORT $LN5@GetTempDea
	push	12					; 0000000cH
	call	??2CvDllDeal@@SAPAXI@Z			; CvDllDeal::operator new
	add	esp, 4
	mov	DWORD PTR $T218184[ebp], eax
	mov	DWORD PTR __$EHRec$[ebp+8], 0
	cmp	DWORD PTR $T218184[ebp], 0
	je	SHORT $LN3@GetTempDea
	mov	ecx, DWORD PTR _pDeal$[ebp]
	push	ecx
	mov	ecx, DWORD PTR $T218184[ebp]
	call	??0CvDllDeal@@QAE@PAVCvDeal@@@Z		; CvDllDeal::CvDllDeal
	mov	DWORD PTR tv79[ebp], eax
	jmp	SHORT $LN4@GetTempDea
$LN3@GetTempDea:
	mov	DWORD PTR tv79[ebp], 0
$LN4@GetTempDea:
	mov	edx, DWORD PTR tv79[ebp]
	mov	DWORD PTR $T218183[ebp], edx
	mov	DWORD PTR __$EHRec$[ebp+8], -1
	mov	eax, DWORD PTR $T218183[ebp]
	mov	DWORD PTR tv74[ebp], eax
	jmp	SHORT $LN6@GetTempDea
$LN5@GetTempDea:
	mov	DWORD PTR tv74[ebp], 0
$LN6@GetTempDea:
	mov	eax, DWORD PTR tv74[ebp]

; 103  : }

	mov	ecx, DWORD PTR __$EHRec$[ebp]
	mov	DWORD PTR fs:0, ecx
	pop	ecx
	mov	esp, ebp
	pop	ebp
	ret	4
_TEXT	ENDS
;	COMDAT text$x
text$x	SEGMENT
__unwindfunclet$?GetTempDeal@CvDllGameDeals@@UAGPAVICvDeal1@@XZ$0:
	mov	eax, DWORD PTR $T218184[ebp]
	push	eax
	call	??3CvDllDeal@@SAXPAX@Z			; CvDllDeal::operator delete
	pop	ecx
	ret	0
__ehhandler$?GetTempDeal@CvDllGameDeals@@UAGPAVICvDeal1@@XZ:
	mov	edx, DWORD PTR [esp+8]
	lea	eax, DWORD PTR [edx+12]
	mov	ecx, DWORD PTR [edx-24]
	xor	ecx, eax
	call	@__security_check_cookie@4
	mov	eax, OFFSET __ehfuncinfo$?GetTempDeal@CvDllGameDeals@@UAGPAVICvDeal1@@XZ
	jmp	___CxxFrameHandler3
text$x	ENDS
?GetTempDeal@CvDllGameDeals@@UAGPAVICvDeal1@@XZ ENDP	; CvDllGameDeals::GetTempDeal
EXTRN	?SetTempDeal@CvGameDeals@@QAEXPAVCvDeal@@@Z:PROC ; CvGameDeals::SetTempDeal
; Function compile flags: /Odtp
;	COMDAT ?SetTempDeal@CvDllGameDeals@@UAGXPAVICvDeal1@@@Z
_TEXT	SEGMENT
tv71 = -8						; size = 4
_pkDeal$ = -4						; size = 4
_this$ = 8						; size = 4
_pDeal$ = 12						; size = 4
?SetTempDeal@CvDllGameDeals@@UAGXPAVICvDeal1@@@Z PROC	; CvDllGameDeals::SetTempDeal, COMDAT

; 106  : {

	push	ebp
	mov	ebp, esp
	sub	esp, 8

; 107  : 	CvDeal* pkDeal = (NULL != pDeal)? static_cast<CvDllDeal*>(pDeal)->GetInstance() : NULL;

	cmp	DWORD PTR _pDeal$[ebp], 0
	je	SHORT $LN3@SetTempDea
	mov	ecx, DWORD PTR _pDeal$[ebp]
	call	?GetInstance@CvDllDeal@@QAEPAVCvDeal@@XZ ; CvDllDeal::GetInstance
	mov	DWORD PTR tv71[ebp], eax
	jmp	SHORT $LN4@SetTempDea
$LN3@SetTempDea:
	mov	DWORD PTR tv71[ebp], 0
$LN4@SetTempDea:
	mov	eax, DWORD PTR tv71[ebp]
	mov	DWORD PTR _pkDeal$[ebp], eax

; 108  : 	m_pGameDeals->SetTempDeal(pkDeal);

	mov	ecx, DWORD PTR _pkDeal$[ebp]
	push	ecx
	mov	edx, DWORD PTR _this$[ebp]
	mov	ecx, DWORD PTR [edx+8]
	call	?SetTempDeal@CvGameDeals@@QAEXPAVCvDeal@@@Z ; CvGameDeals::SetTempDeal

; 109  : }

	mov	esp, ebp
	pop	ebp
	ret	8
?SetTempDeal@CvDllGameDeals@@UAGXPAVICvDeal1@@@Z ENDP	; CvDllGameDeals::SetTempDeal
_TEXT	ENDS
EXTRN	?HasMadeProposal@CvGameDeals@@QAE?AW4PlayerTypes@@W42@@Z:PROC ; CvGameDeals::HasMadeProposal
; Function compile flags: /Odtp
;	COMDAT ?HasMadeProposal@CvDllGameDeals@@UAG?AW4PlayerTypes@@W42@@Z
_TEXT	SEGMENT
_this$ = 8						; size = 4
_eFromPlayer$ = 12					; size = 4
?HasMadeProposal@CvDllGameDeals@@UAG?AW4PlayerTypes@@W42@@Z PROC ; CvDllGameDeals::HasMadeProposal, COMDAT

; 112  : {

	push	ebp
	mov	ebp, esp

; 113  : 	return m_pGameDeals->HasMadeProposal(eFromPlayer);

	mov	eax, DWORD PTR _eFromPlayer$[ebp]
	push	eax
	mov	ecx, DWORD PTR _this$[ebp]
	mov	ecx, DWORD PTR [ecx+8]
	call	?HasMadeProposal@CvGameDeals@@QAE?AW4PlayerTypes@@W42@@Z ; CvGameDeals::HasMadeProposal

; 114  : }

	pop	ebp
	ret	8
?HasMadeProposal@CvDllGameDeals@@UAG?AW4PlayerTypes@@W42@@Z ENDP ; CvDllGameDeals::HasMadeProposal
_TEXT	ENDS
EXTRN	?ProposedDealExists@CvGameDeals@@QAE_NW4PlayerTypes@@0@Z:PROC ; CvGameDeals::ProposedDealExists
; Function compile flags: /Odtp
;	COMDAT ?ProposedDealExists@CvDllGameDeals@@UAG_NW4PlayerTypes@@0@Z
_TEXT	SEGMENT
_this$ = 8						; size = 4
_eFromPlayer$ = 12					; size = 4
_eToPlayer$ = 16					; size = 4
?ProposedDealExists@CvDllGameDeals@@UAG_NW4PlayerTypes@@0@Z PROC ; CvDllGameDeals::ProposedDealExists, COMDAT

; 117  : {

	push	ebp
	mov	ebp, esp

; 118  : 	return m_pGameDeals->ProposedDealExists(eFromPlayer, eToPlayer);

	mov	eax, DWORD PTR _eToPlayer$[ebp]
	push	eax
	mov	ecx, DWORD PTR _eFromPlayer$[ebp]
	push	ecx
	mov	edx, DWORD PTR _this$[ebp]
	mov	ecx, DWORD PTR [edx+8]
	call	?ProposedDealExists@CvGameDeals@@QAE_NW4PlayerTypes@@0@Z ; CvGameDeals::ProposedDealExists

; 119  : }

	pop	ebp
	ret	12					; 0000000cH
?ProposedDealExists@CvDllGameDeals@@UAG_NW4PlayerTypes@@0@Z ENDP ; CvDllGameDeals::ProposedDealExists
_TEXT	ENDS
EXTRN	?GetProposedDeal@CvGameDeals@@QAEPAVCvDeal@@W4PlayerTypes@@0@Z:PROC ; CvGameDeals::GetProposedDeal
;	COMDAT xdata$x
xdata$x	SEGMENT
__unwindtable$?GetProposedDeal@CvDllGameDeals@@UAGPAVICvDeal1@@W4PlayerTypes@@0@Z DD 0ffffffffH
	DD	FLAT:__unwindfunclet$?GetProposedDeal@CvDllGameDeals@@UAGPAVICvDeal1@@W4PlayerTypes@@0@Z$0
__ehfuncinfo$?GetProposedDeal@CvDllGameDeals@@UAGPAVICvDeal1@@W4PlayerTypes@@0@Z DD 019930522H
	DD	01H
	DD	FLAT:__unwindtable$?GetProposedDeal@CvDllGameDeals@@UAGPAVICvDeal1@@W4PlayerTypes@@0@Z
	DD	2 DUP(00H)
	DD	2 DUP(00H)
	DD	00H
	DD	01H
; Function compile flags: /Odtp
xdata$x	ENDS
;	COMDAT ?GetProposedDeal@CvDllGameDeals@@UAGPAVICvDeal1@@W4PlayerTypes@@0@Z
_TEXT	SEGMENT
tv76 = -32						; size = 4
tv81 = -28						; size = 4
$T218212 = -24						; size = 4
$T218211 = -20						; size = 4
_pDeal$ = -16						; size = 4
__$EHRec$ = -12						; size = 12
_this$ = 8						; size = 4
_eFromPlayer$ = 12					; size = 4
_eToPlayer$ = 16					; size = 4
?GetProposedDeal@CvDllGameDeals@@UAGPAVICvDeal1@@W4PlayerTypes@@0@Z PROC ; CvDllGameDeals::GetProposedDeal, COMDAT

; 122  : {

	push	ebp
	mov	ebp, esp
	push	-1
	push	__ehhandler$?GetProposedDeal@CvDllGameDeals@@UAGPAVICvDeal1@@W4PlayerTypes@@0@Z
	mov	eax, DWORD PTR fs:0
	push	eax
	sub	esp, 20					; 00000014H
	mov	eax, DWORD PTR ___security_cookie
	xor	eax, ebp
	push	eax
	lea	eax, DWORD PTR __$EHRec$[ebp]
	mov	DWORD PTR fs:0, eax

; 123  : 	CvDeal* pDeal = m_pGameDeals->GetProposedDeal(eFromPlayer, eToPlayer);

	mov	eax, DWORD PTR _eToPlayer$[ebp]
	push	eax
	mov	ecx, DWORD PTR _eFromPlayer$[ebp]
	push	ecx
	mov	edx, DWORD PTR _this$[ebp]
	mov	ecx, DWORD PTR [edx+8]
	call	?GetProposedDeal@CvGameDeals@@QAEPAVCvDeal@@W4PlayerTypes@@0@Z ; CvGameDeals::GetProposedDeal
	mov	DWORD PTR _pDeal$[ebp], eax

; 124  : 	return (NULL != pDeal)? new CvDllDeal(pDeal) : NULL;

	cmp	DWORD PTR _pDeal$[ebp], 0
	je	SHORT $LN5@GetPropose
	push	12					; 0000000cH
	call	??2CvDllDeal@@SAPAXI@Z			; CvDllDeal::operator new
	add	esp, 4
	mov	DWORD PTR $T218212[ebp], eax
	mov	DWORD PTR __$EHRec$[ebp+8], 0
	cmp	DWORD PTR $T218212[ebp], 0
	je	SHORT $LN3@GetPropose
	mov	eax, DWORD PTR _pDeal$[ebp]
	push	eax
	mov	ecx, DWORD PTR $T218212[ebp]
	call	??0CvDllDeal@@QAE@PAVCvDeal@@@Z		; CvDllDeal::CvDllDeal
	mov	DWORD PTR tv81[ebp], eax
	jmp	SHORT $LN4@GetPropose
$LN3@GetPropose:
	mov	DWORD PTR tv81[ebp], 0
$LN4@GetPropose:
	mov	ecx, DWORD PTR tv81[ebp]
	mov	DWORD PTR $T218211[ebp], ecx
	mov	DWORD PTR __$EHRec$[ebp+8], -1
	mov	edx, DWORD PTR $T218211[ebp]
	mov	DWORD PTR tv76[ebp], edx
	jmp	SHORT $LN6@GetPropose
$LN5@GetPropose:
	mov	DWORD PTR tv76[ebp], 0
$LN6@GetPropose:
	mov	eax, DWORD PTR tv76[ebp]

; 125  : }

	mov	ecx, DWORD PTR __$EHRec$[ebp]
	mov	DWORD PTR fs:0, ecx
	pop	ecx
	mov	esp, ebp
	pop	ebp
	ret	12					; 0000000cH
_TEXT	ENDS
;	COMDAT text$x
text$x	SEGMENT
__unwindfunclet$?GetProposedDeal@CvDllGameDeals@@UAGPAVICvDeal1@@W4PlayerTypes@@0@Z$0:
	mov	eax, DWORD PTR $T218212[ebp]
	push	eax
	call	??3CvDllDeal@@SAXPAX@Z			; CvDllDeal::operator delete
	pop	ecx
	ret	0
__ehhandler$?GetProposedDeal@CvDllGameDeals@@UAGPAVICvDeal1@@W4PlayerTypes@@0@Z:
	mov	edx, DWORD PTR [esp+8]
	lea	eax, DWORD PTR [edx+12]
	mov	ecx, DWORD PTR [edx-24]
	xor	ecx, eax
	call	@__security_check_cookie@4
	mov	eax, OFFSET __ehfuncinfo$?GetProposedDeal@CvDllGameDeals@@UAGPAVICvDeal1@@W4PlayerTypes@@0@Z
	jmp	___CxxFrameHandler3
text$x	ENDS
?GetProposedDeal@CvDllGameDeals@@UAGPAVICvDeal1@@W4PlayerTypes@@0@Z ENDP ; CvDllGameDeals::GetProposedDeal
EXTRN	?GetCurrentDeal@CvGameDeals@@QAEPAVCvDeal@@W4PlayerTypes@@I@Z:PROC ; CvGameDeals::GetCurrentDeal
;	COMDAT xdata$x
xdata$x	SEGMENT
__unwindtable$?GetCurrentDeal@CvDllGameDeals@@UAGPAVICvDeal1@@W4PlayerTypes@@I@Z DD 0ffffffffH
	DD	FLAT:__unwindfunclet$?GetCurrentDeal@CvDllGameDeals@@UAGPAVICvDeal1@@W4PlayerTypes@@I@Z$0
__ehfuncinfo$?GetCurrentDeal@CvDllGameDeals@@UAGPAVICvDeal1@@W4PlayerTypes@@I@Z DD 019930522H
	DD	01H
	DD	FLAT:__unwindtable$?GetCurrentDeal@CvDllGameDeals@@UAGPAVICvDeal1@@W4PlayerTypes@@I@Z
	DD	2 DUP(00H)
	DD	2 DUP(00H)
	DD	00H
	DD	01H
; Function compile flags: /Odtp
xdata$x	ENDS
;	COMDAT ?GetCurrentDeal@CvDllGameDeals@@UAGPAVICvDeal1@@W4PlayerTypes@@I@Z
_TEXT	SEGMENT
tv76 = -32						; size = 4
tv81 = -28						; size = 4
$T218227 = -24						; size = 4
$T218226 = -20						; size = 4
_pDeal$ = -16						; size = 4
__$EHRec$ = -12						; size = 12
_this$ = 8						; size = 4
_ePlayer$ = 12						; size = 4
_index$ = 16						; size = 4
?GetCurrentDeal@CvDllGameDeals@@UAGPAVICvDeal1@@W4PlayerTypes@@I@Z PROC ; CvDllGameDeals::GetCurrentDeal, COMDAT

; 129  : {

	push	ebp
	mov	ebp, esp
	push	-1
	push	__ehhandler$?GetCurrentDeal@CvDllGameDeals@@UAGPAVICvDeal1@@W4PlayerTypes@@I@Z
	mov	eax, DWORD PTR fs:0
	push	eax
	sub	esp, 20					; 00000014H
	mov	eax, DWORD PTR ___security_cookie
	xor	eax, ebp
	push	eax
	lea	eax, DWORD PTR __$EHRec$[ebp]
	mov	DWORD PTR fs:0, eax

; 130  : 	CvDeal* pDeal = m_pGameDeals->GetCurrentDeal(ePlayer, index);

	mov	eax, DWORD PTR _index$[ebp]
	push	eax
	mov	ecx, DWORD PTR _ePlayer$[ebp]
	push	ecx
	mov	edx, DWORD PTR _this$[ebp]
	mov	ecx, DWORD PTR [edx+8]
	call	?GetCurrentDeal@CvGameDeals@@QAEPAVCvDeal@@W4PlayerTypes@@I@Z ; CvGameDeals::GetCurrentDeal
	mov	DWORD PTR _pDeal$[ebp], eax

; 131  : 	return (NULL != pDeal)? new CvDllDeal(pDeal) : NULL;

	cmp	DWORD PTR _pDeal$[ebp], 0
	je	SHORT $LN5@GetCurrent
	push	12					; 0000000cH
	call	??2CvDllDeal@@SAPAXI@Z			; CvDllDeal::operator new
	add	esp, 4
	mov	DWORD PTR $T218227[ebp], eax
	mov	DWORD PTR __$EHRec$[ebp+8], 0
	cmp	DWORD PTR $T218227[ebp], 0
	je	SHORT $LN3@GetCurrent
	mov	eax, DWORD PTR _pDeal$[ebp]
	push	eax
	mov	ecx, DWORD PTR $T218227[ebp]
	call	??0CvDllDeal@@QAE@PAVCvDeal@@@Z		; CvDllDeal::CvDllDeal
	mov	DWORD PTR tv81[ebp], eax
	jmp	SHORT $LN4@GetCurrent
$LN3@GetCurrent:
	mov	DWORD PTR tv81[ebp], 0
$LN4@GetCurrent:
	mov	ecx, DWORD PTR tv81[ebp]
	mov	DWORD PTR $T218226[ebp], ecx
	mov	DWORD PTR __$EHRec$[ebp+8], -1
	mov	edx, DWORD PTR $T218226[ebp]
	mov	DWORD PTR tv76[ebp], edx
	jmp	SHORT $LN6@GetCurrent
$LN5@GetCurrent:
	mov	DWORD PTR tv76[ebp], 0
$LN6@GetCurrent:
	mov	eax, DWORD PTR tv76[ebp]

; 132  : }

	mov	ecx, DWORD PTR __$EHRec$[ebp]
	mov	DWORD PTR fs:0, ecx
	pop	ecx
	mov	esp, ebp
	pop	ebp
	ret	12					; 0000000cH
_TEXT	ENDS
;	COMDAT text$x
text$x	SEGMENT
__unwindfunclet$?GetCurrentDeal@CvDllGameDeals@@UAGPAVICvDeal1@@W4PlayerTypes@@I@Z$0:
	mov	eax, DWORD PTR $T218227[ebp]
	push	eax
	call	??3CvDllDeal@@SAXPAX@Z			; CvDllDeal::operator delete
	pop	ecx
	ret	0
__ehhandler$?GetCurrentDeal@CvDllGameDeals@@UAGPAVICvDeal1@@W4PlayerTypes@@I@Z:
	mov	edx, DWORD PTR [esp+8]
	lea	eax, DWORD PTR [edx+12]
	mov	ecx, DWORD PTR [edx-24]
	xor	ecx, eax
	call	@__security_check_cookie@4
	mov	eax, OFFSET __ehfuncinfo$?GetCurrentDeal@CvDllGameDeals@@UAGPAVICvDeal1@@W4PlayerTypes@@I@Z
	jmp	___CxxFrameHandler3
text$x	ENDS
?GetCurrentDeal@CvDllGameDeals@@UAGPAVICvDeal1@@W4PlayerTypes@@I@Z ENDP ; CvDllGameDeals::GetCurrentDeal
EXTRN	?GetHistoricDeal@CvGameDeals@@QAEPAVCvDeal@@W4PlayerTypes@@I@Z:PROC ; CvGameDeals::GetHistoricDeal
;	COMDAT xdata$x
xdata$x	SEGMENT
__unwindtable$?GetHistoricDeal@CvDllGameDeals@@UAGPAVICvDeal1@@W4PlayerTypes@@I@Z DD 0ffffffffH
	DD	FLAT:__unwindfunclet$?GetHistoricDeal@CvDllGameDeals@@UAGPAVICvDeal1@@W4PlayerTypes@@I@Z$0
__ehfuncinfo$?GetHistoricDeal@CvDllGameDeals@@UAGPAVICvDeal1@@W4PlayerTypes@@I@Z DD 019930522H
	DD	01H
	DD	FLAT:__unwindtable$?GetHistoricDeal@CvDllGameDeals@@UAGPAVICvDeal1@@W4PlayerTypes@@I@Z
	DD	2 DUP(00H)
	DD	2 DUP(00H)
	DD	00H
	DD	01H
; Function compile flags: /Odtp
xdata$x	ENDS
;	COMDAT ?GetHistoricDeal@CvDllGameDeals@@UAGPAVICvDeal1@@W4PlayerTypes@@I@Z
_TEXT	SEGMENT
tv76 = -32						; size = 4
tv81 = -28						; size = 4
$T218242 = -24						; size = 4
$T218241 = -20						; size = 4
_pDeal$ = -16						; size = 4
__$EHRec$ = -12						; size = 12
_this$ = 8						; size = 4
_ePlayer$ = 12						; size = 4
_indx$ = 16						; size = 4
?GetHistoricDeal@CvDllGameDeals@@UAGPAVICvDeal1@@W4PlayerTypes@@I@Z PROC ; CvDllGameDeals::GetHistoricDeal, COMDAT

; 135  : {

	push	ebp
	mov	ebp, esp
	push	-1
	push	__ehhandler$?GetHistoricDeal@CvDllGameDeals@@UAGPAVICvDeal1@@W4PlayerTypes@@I@Z
	mov	eax, DWORD PTR fs:0
	push	eax
	sub	esp, 20					; 00000014H
	mov	eax, DWORD PTR ___security_cookie
	xor	eax, ebp
	push	eax
	lea	eax, DWORD PTR __$EHRec$[ebp]
	mov	DWORD PTR fs:0, eax

; 136  : 	CvDeal* pDeal = m_pGameDeals->GetHistoricDeal(ePlayer, indx);

	mov	eax, DWORD PTR _indx$[ebp]
	push	eax
	mov	ecx, DWORD PTR _ePlayer$[ebp]
	push	ecx
	mov	edx, DWORD PTR _this$[ebp]
	mov	ecx, DWORD PTR [edx+8]
	call	?GetHistoricDeal@CvGameDeals@@QAEPAVCvDeal@@W4PlayerTypes@@I@Z ; CvGameDeals::GetHistoricDeal
	mov	DWORD PTR _pDeal$[ebp], eax

; 137  : 	return (NULL != pDeal)? new CvDllDeal(pDeal) : NULL;

	cmp	DWORD PTR _pDeal$[ebp], 0
	je	SHORT $LN5@GetHistori
	push	12					; 0000000cH
	call	??2CvDllDeal@@SAPAXI@Z			; CvDllDeal::operator new
	add	esp, 4
	mov	DWORD PTR $T218242[ebp], eax
	mov	DWORD PTR __$EHRec$[ebp+8], 0
	cmp	DWORD PTR $T218242[ebp], 0
	je	SHORT $LN3@GetHistori
	mov	eax, DWORD PTR _pDeal$[ebp]
	push	eax
	mov	ecx, DWORD PTR $T218242[ebp]
	call	??0CvDllDeal@@QAE@PAVCvDeal@@@Z		; CvDllDeal::CvDllDeal
	mov	DWORD PTR tv81[ebp], eax
	jmp	SHORT $LN4@GetHistori
$LN3@GetHistori:
	mov	DWORD PTR tv81[ebp], 0
$LN4@GetHistori:
	mov	ecx, DWORD PTR tv81[ebp]
	mov	DWORD PTR $T218241[ebp], ecx
	mov	DWORD PTR __$EHRec$[ebp+8], -1
	mov	edx, DWORD PTR $T218241[ebp]
	mov	DWORD PTR tv76[ebp], edx
	jmp	SHORT $LN6@GetHistori
$LN5@GetHistori:
	mov	DWORD PTR tv76[ebp], 0
$LN6@GetHistori:
	mov	eax, DWORD PTR tv76[ebp]

; 138  : }

	mov	ecx, DWORD PTR __$EHRec$[ebp]
	mov	DWORD PTR fs:0, ecx
	pop	ecx
	mov	esp, ebp
	pop	ebp
	ret	12					; 0000000cH
_TEXT	ENDS
;	COMDAT text$x
text$x	SEGMENT
__unwindfunclet$?GetHistoricDeal@CvDllGameDeals@@UAGPAVICvDeal1@@W4PlayerTypes@@I@Z$0:
	mov	eax, DWORD PTR $T218242[ebp]
	push	eax
	call	??3CvDllDeal@@SAXPAX@Z			; CvDllDeal::operator delete
	pop	ecx
	ret	0
__ehhandler$?GetHistoricDeal@CvDllGameDeals@@UAGPAVICvDeal1@@W4PlayerTypes@@I@Z:
	mov	edx, DWORD PTR [esp+8]
	lea	eax, DWORD PTR [edx+12]
	mov	ecx, DWORD PTR [edx-24]
	xor	ecx, eax
	call	@__security_check_cookie@4
	mov	eax, OFFSET __ehfuncinfo$?GetHistoricDeal@CvDllGameDeals@@UAGPAVICvDeal1@@W4PlayerTypes@@I@Z
	jmp	___CxxFrameHandler3
text$x	ENDS
?GetHistoricDeal@CvDllGameDeals@@UAGPAVICvDeal1@@W4PlayerTypes@@I@Z ENDP ; CvDllGameDeals::GetHistoricDeal
EXTRN	?GetNumCurrentDeals@CvGameDeals@@QAEIW4PlayerTypes@@@Z:PROC ; CvGameDeals::GetNumCurrentDeals
; Function compile flags: /Odtp
;	COMDAT ?GetNumCurrentDeals@CvDllGameDeals@@UAGIW4PlayerTypes@@@Z
_TEXT	SEGMENT
_this$ = 8						; size = 4
_ePlayer$ = 12						; size = 4
?GetNumCurrentDeals@CvDllGameDeals@@UAGIW4PlayerTypes@@@Z PROC ; CvDllGameDeals::GetNumCurrentDeals, COMDAT

; 141  : {

	push	ebp
	mov	ebp, esp

; 142  : 	return m_pGameDeals->GetNumCurrentDeals(ePlayer);

	mov	eax, DWORD PTR _ePlayer$[ebp]
	push	eax
	mov	ecx, DWORD PTR _this$[ebp]
	mov	ecx, DWORD PTR [ecx+8]
	call	?GetNumCurrentDeals@CvGameDeals@@QAEIW4PlayerTypes@@@Z ; CvGameDeals::GetNumCurrentDeals

; 143  : }

	pop	ebp
	ret	8
?GetNumCurrentDeals@CvDllGameDeals@@UAGIW4PlayerTypes@@@Z ENDP ; CvDllGameDeals::GetNumCurrentDeals
_TEXT	ENDS
EXTRN	?GetNumHistoricDeals@CvGameDeals@@QAEIW4PlayerTypes@@@Z:PROC ; CvGameDeals::GetNumHistoricDeals
; Function compile flags: /Odtp
;	COMDAT ?GetNumHistoricDeals@CvDllGameDeals@@UAGIW4PlayerTypes@@@Z
_TEXT	SEGMENT
_this$ = 8						; size = 4
_ePlayer$ = 12						; size = 4
?GetNumHistoricDeals@CvDllGameDeals@@UAGIW4PlayerTypes@@@Z PROC ; CvDllGameDeals::GetNumHistoricDeals, COMDAT

; 146  : {

	push	ebp
	mov	ebp, esp

; 147  : 	return m_pGameDeals->GetNumHistoricDeals(ePlayer);

	mov	eax, DWORD PTR _ePlayer$[ebp]
	push	eax
	mov	ecx, DWORD PTR _this$[ebp]
	mov	ecx, DWORD PTR [ecx+8]
	call	?GetNumHistoricDeals@CvGameDeals@@QAEIW4PlayerTypes@@@Z ; CvGameDeals::GetNumHistoricDeals

; 148  : }

	pop	ebp
	ret	8
?GetNumHistoricDeals@CvDllGameDeals@@UAGIW4PlayerTypes@@@Z ENDP ; CvDllGameDeals::GetNumHistoricDeals
_TEXT	ENDS
EXTRN	?CreateDeal@CvGameDeals@@QAEIXZ:PROC		; CvGameDeals::CreateDeal
; Function compile flags: /Odtp
;	COMDAT ?CreateDeal@CvDllGameDeals@@UAGIXZ
_TEXT	SEGMENT
_this$ = 8						; size = 4
?CreateDeal@CvDllGameDeals@@UAGIXZ PROC			; CvDllGameDeals::CreateDeal, COMDAT

; 151  : {

	push	ebp
	mov	ebp, esp

; 152  : 	return m_pGameDeals->CreateDeal();

	mov	eax, DWORD PTR _this$[ebp]
	mov	ecx, DWORD PTR [eax+8]
	call	?CreateDeal@CvGameDeals@@QAEIXZ		; CvGameDeals::CreateDeal

; 153  : }

	pop	ebp
	ret	4
?CreateDeal@CvDllGameDeals@@UAGIXZ ENDP			; CvDllGameDeals::CreateDeal
_TEXT	ENDS
EXTRN	?GetDeal@CvGameDeals@@QAEPAVCvDeal@@I@Z:PROC	; CvGameDeals::GetDeal
;	COMDAT xdata$x
xdata$x	SEGMENT
__unwindtable$?GetDeal@CvDllGameDeals@@UAGPAVICvDeal1@@I@Z DD 0ffffffffH
	DD	FLAT:__unwindfunclet$?GetDeal@CvDllGameDeals@@UAGPAVICvDeal1@@I@Z$0
__ehfuncinfo$?GetDeal@CvDllGameDeals@@UAGPAVICvDeal1@@I@Z DD 019930522H
	DD	01H
	DD	FLAT:__unwindtable$?GetDeal@CvDllGameDeals@@UAGPAVICvDeal1@@I@Z
	DD	2 DUP(00H)
	DD	2 DUP(00H)
	DD	00H
	DD	01H
; Function compile flags: /Odtp
xdata$x	ENDS
;	COMDAT ?GetDeal@CvDllGameDeals@@UAGPAVICvDeal1@@I@Z
_TEXT	SEGMENT
tv75 = -32						; size = 4
tv80 = -28						; size = 4
$T218263 = -24						; size = 4
$T218262 = -20						; size = 4
_pDeal$ = -16						; size = 4
__$EHRec$ = -12						; size = 12
_this$ = 8						; size = 4
_index$ = 12						; size = 4
?GetDeal@CvDllGameDeals@@UAGPAVICvDeal1@@I@Z PROC	; CvDllGameDeals::GetDeal, COMDAT

; 156  : {

	push	ebp
	mov	ebp, esp
	push	-1
	push	__ehhandler$?GetDeal@CvDllGameDeals@@UAGPAVICvDeal1@@I@Z
	mov	eax, DWORD PTR fs:0
	push	eax
	sub	esp, 20					; 00000014H
	mov	eax, DWORD PTR ___security_cookie
	xor	eax, ebp
	push	eax
	lea	eax, DWORD PTR __$EHRec$[ebp]
	mov	DWORD PTR fs:0, eax

; 157  : 	CvDeal* pDeal = m_pGameDeals->GetDeal(index);

	mov	eax, DWORD PTR _index$[ebp]
	push	eax
	mov	ecx, DWORD PTR _this$[ebp]
	mov	ecx, DWORD PTR [ecx+8]
	call	?GetDeal@CvGameDeals@@QAEPAVCvDeal@@I@Z	; CvGameDeals::GetDeal
	mov	DWORD PTR _pDeal$[ebp], eax

; 158  : 	return (NULL != pDeal)? new CvDllDeal(pDeal) : NULL;

	cmp	DWORD PTR _pDeal$[ebp], 0
	je	SHORT $LN5@GetDeal
	push	12					; 0000000cH
	call	??2CvDllDeal@@SAPAXI@Z			; CvDllDeal::operator new
	add	esp, 4
	mov	DWORD PTR $T218263[ebp], eax
	mov	DWORD PTR __$EHRec$[ebp+8], 0
	cmp	DWORD PTR $T218263[ebp], 0
	je	SHORT $LN3@GetDeal
	mov	edx, DWORD PTR _pDeal$[ebp]
	push	edx
	mov	ecx, DWORD PTR $T218263[ebp]
	call	??0CvDllDeal@@QAE@PAVCvDeal@@@Z		; CvDllDeal::CvDllDeal
	mov	DWORD PTR tv80[ebp], eax
	jmp	SHORT $LN4@GetDeal
$LN3@GetDeal:
	mov	DWORD PTR tv80[ebp], 0
$LN4@GetDeal:
	mov	eax, DWORD PTR tv80[ebp]
	mov	DWORD PTR $T218262[ebp], eax
	mov	DWORD PTR __$EHRec$[ebp+8], -1
	mov	ecx, DWORD PTR $T218262[ebp]
	mov	DWORD PTR tv75[ebp], ecx
	jmp	SHORT $LN6@GetDeal
$LN5@GetDeal:
	mov	DWORD PTR tv75[ebp], 0
$LN6@GetDeal:
	mov	eax, DWORD PTR tv75[ebp]

; 159  : }

	mov	ecx, DWORD PTR __$EHRec$[ebp]
	mov	DWORD PTR fs:0, ecx
	pop	ecx
	mov	esp, ebp
	pop	ebp
	ret	8
_TEXT	ENDS
;	COMDAT text$x
text$x	SEGMENT
__unwindfunclet$?GetDeal@CvDllGameDeals@@UAGPAVICvDeal1@@I@Z$0:
	mov	eax, DWORD PTR $T218263[ebp]
	push	eax
	call	??3CvDllDeal@@SAXPAX@Z			; CvDllDeal::operator delete
	pop	ecx
	ret	0
__ehhandler$?GetDeal@CvDllGameDeals@@UAGPAVICvDeal1@@I@Z:
	mov	edx, DWORD PTR [esp+8]
	lea	eax, DWORD PTR [edx+12]
	mov	ecx, DWORD PTR [edx-24]
	xor	ecx, eax
	call	@__security_check_cookie@4
	mov	eax, OFFSET __ehfuncinfo$?GetDeal@CvDllGameDeals@@UAGPAVICvDeal1@@I@Z
	jmp	___CxxFrameHandler3
text$x	ENDS
?GetDeal@CvDllGameDeals@@UAGPAVICvDeal1@@I@Z ENDP	; CvDllGameDeals::GetDeal
EXTRN	?DestroyDeal@CvGameDeals@@QAEXI@Z:PROC		; CvGameDeals::DestroyDeal
; Function compile flags: /Odtp
;	COMDAT ?DestroyDeal@CvDllGameDeals@@UAGXI@Z
_TEXT	SEGMENT
_this$ = 8						; size = 4
_index$ = 12						; size = 4
?DestroyDeal@CvDllGameDeals@@UAGXI@Z PROC		; CvDllGameDeals::DestroyDeal, COMDAT

; 162  : {

	push	ebp
	mov	ebp, esp

; 163  : 	m_pGameDeals->DestroyDeal(index);

	mov	eax, DWORD PTR _index$[ebp]
	push	eax
	mov	ecx, DWORD PTR _this$[ebp]
	mov	ecx, DWORD PTR [ecx+8]
	call	?DestroyDeal@CvGameDeals@@QAEXI@Z	; CvGameDeals::DestroyDeal

; 164  : }

	pop	ebp
	ret	8
?DestroyDeal@CvDllGameDeals@@UAGXI@Z ENDP		; CvDllGameDeals::DestroyDeal
_TEXT	ENDS
END
