; Listing generated by Microsoft (R) Optimizing Compiler Version 15.00.30729.01 

	TITLE	D:\sources\Lekmod_git\checkout\LEKMOD_DLL\CvGameCoreDLL_Expansion2\CvDllContext.cpp
	.686P
	.XMM
	include listing.inc
	.model	flat

INCLUDELIB MSVCRT
INCLUDELIB OLDNAMES

PUBLIC	??_C@_05OCFELOIJ@1?40?40?$AA@			; `string'
PUBLIC	?s_pSingleton@CvDllGameContext@@0PAV1@A		; CvDllGameContext::s_pSingleton
PUBLIC	?s_hHeap@CvDllGameContext@@0PAXA		; CvDllGameContext::s_hHeap
_BSS	SEGMENT
?s_pSingleton@CvDllGameContext@@0PAV1@A DD 01H DUP (?)	; CvDllGameContext::s_pSingleton
_BSS	ENDS
_DATA	SEGMENT
_CIV5_XP2_DLL_VERSION DD FLAT:??_C@_05OCFELOIJ@1?40?40?$AA@
?s_hHeap@CvDllGameContext@@0PAXA DD 0ffffffffH		; CvDllGameContext::s_hHeap
_DATA	ENDS
;	COMDAT ??_C@_05OCFELOIJ@1?40?40?$AA@
CONST	SEGMENT
??_C@_05OCFELOIJ@1?40?40?$AA@ DB '1.0.0', 00H		; `string'
CONST	ENDS
CONST	SEGMENT
_CIV5_XP2_DLL_GUID DD 013c6ca53H
	DW	050ffH
	DW	04a66H
	DB	094H
	DB	01bH
	DB	05dH
	DB	05dH
	DB	0aaH
	DB	090H
	DB	0c6H
	DB	084H
_guidICvUnknown DD 0d89ba82fH
	DW	09fa3H
	DW	04696H
	DB	0b3H
	DB	0f4H
	DB	052H
	DB	0bdH
	DB	0b1H
	DB	01H
	DB	0cfH
	DB	0b2H
_guidICvGameContext1 DD 0a309fa38H
	DW	0cf60H
	DW	04239H
	DB	0a1H
	DB	062H
	DB	085H
	DB	086H
	DB	0c0H
	DB	0d1H
	DB	0c7H
	DB	0d3H
_guidICvNetMessageHandler1 DD 055b80da7H
	DW	0d175H
	DW	04ea7H
	DB	0b5H
	DB	055H
	DB	0b9H
	DB	088H
	DB	045H
	DB	0ddH
	DB	0dcH
	DB	08eH
_guidICvGameContext2 DD 0cf7820cdH
	DW	0e960H
	DW	041efH
	DB	09cH
	DB	05aH
	DB	09dH
	DB	03H
	DB	0cH
	DB	03bH
	DB	0c3H
	DB	0bH
_guidICvGameContext3 DD 08921e7a6H
	DW	0a1fdH
	DW	04301H
	DB	094H
	DB	0b9H
	DB	0d5H
	DB	083H
	DB	0ccH
	DB	010H
	DB	02aH
	DB	011H
_guidICvEngineUtility4 DD 0dd8a29a2H
	DW	0e752H
	DW	04bf7H
	DB	09eH
	DB	0e0H
	DB	042H
	DB	0b8H
	DB	015H
	DB	05fH
	DB	017H
	DB	05fH
CONST	ENDS
PUBLIC	??1?$vector@U?$pair@IPAVCvDllNetLoadGameInfo@@@std@@V?$allocator@U?$pair@IPAVCvDllNetLoadGameInfo@@@std@@@2@@std@@QAE@XZ ; std::vector<std::pair<unsigned int,CvDllNetLoadGameInfo *>,std::allocator<std::pair<unsigned int,CvDllNetLoadGameInfo *> > >::~vector<std::pair<unsigned int,CvDllNetLoadGameInfo *>,std::allocator<std::pair<unsigned int,CvDllNetLoadGameInfo *> > >
PUBLIC	??1?$_Vector_val@U?$pair@IPAVCvDllNetLoadGameInfo@@@std@@V?$allocator@U?$pair@IPAVCvDllNetLoadGameInfo@@@std@@@2@@std@@QAE@XZ ; std::_Vector_val<std::pair<unsigned int,CvDllNetLoadGameInfo *>,std::allocator<std::pair<unsigned int,CvDllNetLoadGameInfo *> > >::~_Vector_val<std::pair<unsigned int,CvDllNetLoadGameInfo *>,std::allocator<std::pair<unsigned int,CvDllNetLoadGameInfo *> > >
PUBLIC	??1?$vector@U?$pair@IPAVCvDllNetInitInfo@@@std@@V?$allocator@U?$pair@IPAVCvDllNetInitInfo@@@std@@@2@@std@@QAE@XZ ; std::vector<std::pair<unsigned int,CvDllNetInitInfo *>,std::allocator<std::pair<unsigned int,CvDllNetInitInfo *> > >::~vector<std::pair<unsigned int,CvDllNetInitInfo *>,std::allocator<std::pair<unsigned int,CvDllNetInitInfo *> > >
PUBLIC	??1?$_Vector_val@U?$pair@IPAVCvDllNetInitInfo@@@std@@V?$allocator@U?$pair@IPAVCvDllNetInitInfo@@@std@@@2@@std@@QAE@XZ ; std::_Vector_val<std::pair<unsigned int,CvDllNetInitInfo *>,std::allocator<std::pair<unsigned int,CvDllNetInitInfo *> > >::~_Vector_val<std::pair<unsigned int,CvDllNetInitInfo *>,std::allocator<std::pair<unsigned int,CvDllNetInitInfo *> > >
PUBLIC	??1?$vector@U?$pair@IPAVCvRandom@@@std@@V?$allocator@U?$pair@IPAVCvRandom@@@std@@@2@@std@@QAE@XZ ; std::vector<std::pair<unsigned int,CvRandom *>,std::allocator<std::pair<unsigned int,CvRandom *> > >::~vector<std::pair<unsigned int,CvRandom *>,std::allocator<std::pair<unsigned int,CvRandom *> > >
PUBLIC	??1?$_Vector_val@U?$pair@IPAVCvRandom@@@std@@V?$allocator@U?$pair@IPAVCvRandom@@@std@@@2@@std@@QAE@XZ ; std::_Vector_val<std::pair<unsigned int,CvRandom *>,std::allocator<std::pair<unsigned int,CvRandom *> > >::~_Vector_val<std::pair<unsigned int,CvRandom *>,std::allocator<std::pair<unsigned int,CvRandom *> > >
PUBLIC	?_Buy@?$vector@U?$pair@IPAVCvDllNetLoadGameInfo@@@std@@V?$allocator@U?$pair@IPAVCvDllNetLoadGameInfo@@@std@@@2@@std@@IAE_NI@Z ; std::vector<std::pair<unsigned int,CvDllNetLoadGameInfo *>,std::allocator<std::pair<unsigned int,CvDllNetLoadGameInfo *> > >::_Buy
PUBLIC	?_Buy@?$vector@U?$pair@IPAVCvDllNetInitInfo@@@std@@V?$allocator@U?$pair@IPAVCvDllNetInitInfo@@@std@@@2@@std@@IAE_NI@Z ; std::vector<std::pair<unsigned int,CvDllNetInitInfo *>,std::allocator<std::pair<unsigned int,CvDllNetInitInfo *> > >::_Buy
PUBLIC	?_Buy@?$vector@U?$pair@IPAVCvRandom@@@std@@V?$allocator@U?$pair@IPAVCvRandom@@@std@@@2@@std@@IAE_NI@Z ; std::vector<std::pair<unsigned int,CvRandom *>,std::allocator<std::pair<unsigned int,CvRandom *> > >::_Buy
PUBLIC	??_7CvDllGameContext@@6B@			; CvDllGameContext::`vftable'
PUBLIC	??_7ICvGameContext3@@6B@			; ICvGameContext3::`vftable'
PUBLIC	??_7ICvGameContext2@@6B@			; ICvGameContext2::`vftable'
PUBLIC	??_7ICvGameContext1@@6B@			; ICvGameContext1::`vftable'
PUBLIC	??_7ICvUnknown@@6B@				; ICvUnknown::`vftable'
PUBLIC	??0CvDllGameContext@@IAE@XZ			; CvDllGameContext::CvDllGameContext
PUBLIC	?QueryInterface@CvDllGameContext@@UAGPAXU_GUID@@@Z ; CvDllGameContext::QueryInterface
PUBLIC	?Destroy@CvDllGameContext@@MAGXXZ		; CvDllGameContext::Destroy
PUBLIC	?GetDLLGUID@CvDllGameContext@@UAG?AU_GUID@@XZ	; CvDllGameContext::GetDLLGUID
PUBLIC	?GetDLLVersion@CvDllGameContext@@UAGPBDXZ	; CvDllGameContext::GetDLLVersion
PUBLIC	?GetNetworkSyncronizer@CvDllGameContext@@UAGPAVICvNetworkSyncronization1@@XZ ; CvDllGameContext::GetNetworkSyncronizer
PUBLIC	?GetNetMessageHandler@CvDllGameContext@@UAGPAVICvNetMessageHandler1@@XZ ; CvDllGameContext::GetNetMessageHandler
PUBLIC	?GetWorldBuilderMapLoader@CvDllGameContext@@UAGPAVICvWorldBuilderMapLoader1@@XZ ; CvDllGameContext::GetWorldBuilderMapLoader
PUBLIC	?GetPreGame@CvDllGameContext@@UAGPAVICvPreGame1@@XZ ; CvDllGameContext::GetPreGame
PUBLIC	?GetGame@CvDllGameContext@@UAGPAVICvGame1@@XZ	; CvDllGameContext::GetGame
PUBLIC	?GetGameAsynch@CvDllGameContext@@UAGPAVICvGameAsynch1@@XZ ; CvDllGameContext::GetGameAsynch
PUBLIC	?GetMap@CvDllGameContext@@UAGPAVICvMap1@@XZ	; CvDllGameContext::GetMap
PUBLIC	?GetTeam@CvDllGameContext@@UAGPAVICvTeam1@@W4TeamTypes@@@Z ; CvDllGameContext::GetTeam
PUBLIC	?GetInfoTypeForString@CvDllGameContext@@UBGHPBD_N@Z ; CvDllGameContext::GetInfoTypeForString
PUBLIC	?GetInfoTypeForHash@CvDllGameContext@@UBGHI_N@Z	; CvDllGameContext::GetInfoTypeForHash
PUBLIC	?GetCivilizationInfoIndex@CvDllGameContext@@UAG?AW4CivilizationTypes@@PBD@Z ; CvDllGameContext::GetCivilizationInfoIndex
PUBLIC	?GetNumPlayableCivilizationInfos@CvDllGameContext@@UAGHXZ ; CvDllGameContext::GetNumPlayableCivilizationInfos
PUBLIC	?GetNumAIPlayableCivilizationInfos@CvDllGameContext@@UAGHXZ ; CvDllGameContext::GetNumAIPlayableCivilizationInfos
PUBLIC	?GetNumPlayableMinorCivs@CvDllGameContext@@UAGHXZ ; CvDllGameContext::GetNumPlayableMinorCivs
PUBLIC	?GetNumBuildInfos@CvDllGameContext@@UAGHXZ	; CvDllGameContext::GetNumBuildInfos
PUBLIC	?GetNumBuildingInfos@CvDllGameContext@@UAGHXZ	; CvDllGameContext::GetNumBuildingInfos
PUBLIC	?GetNumCivilizationInfos@CvDllGameContext@@UAGHXZ ; CvDllGameContext::GetNumCivilizationInfos
PUBLIC	?GetNumClimateInfos@CvDllGameContext@@UAGHXZ	; CvDllGameContext::GetNumClimateInfos
PUBLIC	?GetNumColorInfos@CvDllGameContext@@UAGHXZ	; CvDllGameContext::GetNumColorInfos
PUBLIC	?GetNumEraInfos@CvDllGameContext@@UAGHXZ	; CvDllGameContext::GetNumEraInfos
PUBLIC	?GetNumFeatureInfos@CvDllGameContext@@UAGHXZ	; CvDllGameContext::GetNumFeatureInfos
PUBLIC	?GetNumGameOptionInfos@CvDllGameContext@@UAGHXZ	; CvDllGameContext::GetNumGameOptionInfos
PUBLIC	?GetNumGameSpeedInfos@CvDllGameContext@@UAGHXZ	; CvDllGameContext::GetNumGameSpeedInfos
PUBLIC	?GetNumHandicapInfos@CvDllGameContext@@UAGHXZ	; CvDllGameContext::GetNumHandicapInfos
PUBLIC	?GetNumImprovementInfos@CvDllGameContext@@UAGHXZ ; CvDllGameContext::GetNumImprovementInfos
PUBLIC	?GetNumLeaderHeadInfos@CvDllGameContext@@UAGHXZ	; CvDllGameContext::GetNumLeaderHeadInfos
PUBLIC	?GetNumMinorCivInfos@CvDllGameContext@@UAGHXZ	; CvDllGameContext::GetNumMinorCivInfos
PUBLIC	?GetNumPlayerColorInfos@CvDllGameContext@@UAGHXZ ; CvDllGameContext::GetNumPlayerColorInfos
PUBLIC	?GetNumPolicyInfos@CvDllGameContext@@UAGHXZ	; CvDllGameContext::GetNumPolicyInfos
PUBLIC	?GetNumPromotionInfos@CvDllGameContext@@UAGHXZ	; CvDllGameContext::GetNumPromotionInfos
PUBLIC	?GetNumResourceInfos@CvDllGameContext@@UAGHXZ	; CvDllGameContext::GetNumResourceInfos
PUBLIC	?GetNumSeaLevelInfos@CvDllGameContext@@UAGHXZ	; CvDllGameContext::GetNumSeaLevelInfos
PUBLIC	?GetNumTechInfos@CvDllGameContext@@UAGHXZ	; CvDllGameContext::GetNumTechInfos
PUBLIC	?GetNumTerrainInfos@CvDllGameContext@@UAGHXZ	; CvDllGameContext::GetNumTerrainInfos
PUBLIC	?GetNumUnitCombatClassInfos@CvDllGameContext@@UAGHXZ ; CvDllGameContext::GetNumUnitCombatClassInfos
PUBLIC	?GetNumUnitInfos@CvDllGameContext@@UAGHXZ	; CvDllGameContext::GetNumUnitInfos
PUBLIC	?GetNumVictoryInfos@CvDllGameContext@@UAGHXZ	; CvDllGameContext::GetNumVictoryInfos
PUBLIC	?GetNumWorldInfos@CvDllGameContext@@UAGHXZ	; CvDllGameContext::GetNumWorldInfos
PUBLIC	?GetBuildInfo@CvDllGameContext@@UAGPAVICvBuildInfo1@@W4BuildTypes@@@Z ; CvDllGameContext::GetBuildInfo
PUBLIC	?GetBuildingInfo@CvDllGameContext@@UAGPAVICvBuildingInfo1@@W4BuildingTypes@@@Z ; CvDllGameContext::GetBuildingInfo
PUBLIC	?GetCivilizationInfo@CvDllGameContext@@UAGPAVICvCivilizationInfo1@@W4CivilizationTypes@@@Z ; CvDllGameContext::GetCivilizationInfo
PUBLIC	?GetColorInfo@CvDllGameContext@@UAGPAVICvColorInfo1@@W4ColorTypes@@@Z ; CvDllGameContext::GetColorInfo
PUBLIC	?GetEraInfo@CvDllGameContext@@UAGPAVICvEraInfo1@@W4EraTypes@@@Z ; CvDllGameContext::GetEraInfo
PUBLIC	?GetFeatureInfo@CvDllGameContext@@UAGPAVICvFeatureInfo1@@W4FeatureTypes@@@Z ; CvDllGameContext::GetFeatureInfo
PUBLIC	?GetGameOptionInfo@CvDllGameContext@@UAGPAVICvGameOptionInfo1@@W4GameOptionTypes@@@Z ; CvDllGameContext::GetGameOptionInfo
PUBLIC	?GetGameSpeedInfo@CvDllGameContext@@UAGPAVICvGameSpeedInfo1@@W4GameSpeedTypes@@@Z ; CvDllGameContext::GetGameSpeedInfo
PUBLIC	?GetHandicapInfo@CvDllGameContext@@UAGPAVICvHandicapInfo1@@W4HandicapTypes@@@Z ; CvDllGameContext::GetHandicapInfo
PUBLIC	?GetInterfaceModeInfo@CvDllGameContext@@UAGPAVICvInterfaceModeInfo1@@W4InterfaceModeTypes@@@Z ; CvDllGameContext::GetInterfaceModeInfo
PUBLIC	?GetImprovementInfo@CvDllGameContext@@UAGPAVICvImprovementInfo1@@W4ImprovementTypes@@@Z ; CvDllGameContext::GetImprovementInfo
PUBLIC	?GetLeaderHeadInfo@CvDllGameContext@@UAGPAVICvLeaderHeadInfo1@@W4LeaderHeadTypes@@@Z ; CvDllGameContext::GetLeaderHeadInfo
PUBLIC	?GetMinorCivInfo@CvDllGameContext@@UAGPAVICvMinorCivInfo1@@W4MinorCivTypes@@@Z ; CvDllGameContext::GetMinorCivInfo
PUBLIC	?GetMissionInfo@CvDllGameContext@@UAGPAVICvMissionInfo1@@W4MissionTypes@@@Z ; CvDllGameContext::GetMissionInfo
PUBLIC	?GetPlayerColorInfo@CvDllGameContext@@UAGPAVICvPlayerColorInfo1@@W4PlayerColorTypes@@@Z ; CvDllGameContext::GetPlayerColorInfo
PUBLIC	?GetPlayerOptionInfo@CvDllGameContext@@UAGPAVICvPlayerOptionInfo1@@W4PlayerOptionTypes@@@Z ; CvDllGameContext::GetPlayerOptionInfo
PUBLIC	?GetPolicyInfo@CvDllGameContext@@UAGPAVICvPolicyInfo1@@W4PolicyTypes@@@Z ; CvDllGameContext::GetPolicyInfo
PUBLIC	?GetPromotionInfo@CvDllGameContext@@UAGPAVICvPromotionInfo1@@W4PromotionTypes@@@Z ; CvDllGameContext::GetPromotionInfo
PUBLIC	?GetResourceInfo@CvDllGameContext@@UAGPAVICvResourceInfo1@@W4ResourceTypes@@@Z ; CvDllGameContext::GetResourceInfo
PUBLIC	?GetTechInfo@CvDllGameContext@@UAGPAVICvTechInfo1@@W4TechTypes@@@Z ; CvDllGameContext::GetTechInfo
PUBLIC	?GetTerrainInfo@CvDllGameContext@@UAGPAVICvTerrainInfo1@@W4TerrainTypes@@@Z ; CvDllGameContext::GetTerrainInfo
PUBLIC	?GetUnitInfo@CvDllGameContext@@UAGPAVICvUnitInfo1@@W4UnitTypes@@@Z ; CvDllGameContext::GetUnitInfo
PUBLIC	?GetUnitCombatClassInfo@CvDllGameContext@@UAGPAVICvUnitCombatClassInfo1@@W4UnitCombatTypes@@@Z ; CvDllGameContext::GetUnitCombatClassInfo
PUBLIC	?GetVictoryInfo@CvDllGameContext@@UAGPAVICvVictoryInfo1@@W4VictoryTypes@@@Z ; CvDllGameContext::GetVictoryInfo
PUBLIC	?GetDefineSTRING@CvDllGameContext@@UAG_NPADIPBD_N@Z ; CvDllGameContext::GetDefineSTRING
PUBLIC	?GetMOVE_DENOMINATOR@CvDllGameContext@@UBGHXZ	; CvDllGameContext::GetMOVE_DENOMINATOR
PUBLIC	?GetMAX_CITY_HIT_POINTS@CvDllGameContext@@UBGHXZ ; CvDllGameContext::GetMAX_CITY_HIT_POINTS
PUBLIC	?GetCITY_ZOOM_OFFSET@CvDllGameContext@@UBGMXZ	; CvDllGameContext::GetCITY_ZOOM_OFFSET
PUBLIC	?GetCITY_ZOOM_LEVEL_1@CvDllGameContext@@UBGMXZ	; CvDllGameContext::GetCITY_ZOOM_LEVEL_1
PUBLIC	?GetCITY_ZOOM_LEVEL_2@CvDllGameContext@@UBGMXZ	; CvDllGameContext::GetCITY_ZOOM_LEVEL_2
PUBLIC	?GetCITY_ZOOM_LEVEL_3@CvDllGameContext@@UBGMXZ	; CvDllGameContext::GetCITY_ZOOM_LEVEL_3
PUBLIC	?GetRUINS_IMPROVEMENT@CvDllGameContext@@UBGHXZ	; CvDllGameContext::GetRUINS_IMPROVEMENT
PUBLIC	?GetSHALLOW_WATER_TERRAIN@CvDllGameContext@@UBGHXZ ; CvDllGameContext::GetSHALLOW_WATER_TERRAIN
PUBLIC	?GetDEFICIT_UNIT_DISBANDING_THRESHOLD@CvDllGameContext@@UBGHXZ ; CvDllGameContext::GetDEFICIT_UNIT_DISBANDING_THRESHOLD
PUBLIC	?GetLAST_UNIT_ART_ERA@CvDllGameContext@@UBGHXZ	; CvDllGameContext::GetLAST_UNIT_ART_ERA
PUBLIC	?GetLAST_EMBARK_ART_ERA@CvDllGameContext@@UBGHXZ ; CvDllGameContext::GetLAST_EMBARK_ART_ERA
PUBLIC	?GetHEAVY_RESOURCE_THRESHOLD@CvDllGameContext@@UBGHXZ ; CvDllGameContext::GetHEAVY_RESOURCE_THRESHOLD
PUBLIC	?GetSTANDARD_HANDICAP@CvDllGameContext@@UBGHXZ	; CvDllGameContext::GetSTANDARD_HANDICAP
PUBLIC	?GetSTANDARD_GAMESPEED@CvDllGameContext@@UBGHXZ	; CvDllGameContext::GetSTANDARD_GAMESPEED
PUBLIC	?GetLAST_BRIDGE_ART_ERA@CvDllGameContext@@UBGHXZ ; CvDllGameContext::GetLAST_BRIDGE_ART_ERA
PUBLIC	?GetBARBARIAN_CIVILIZATION@CvDllGameContext@@UBGHXZ ; CvDllGameContext::GetBARBARIAN_CIVILIZATION
PUBLIC	?GetMINOR_CIVILIZATION@CvDllGameContext@@UBGHXZ	; CvDllGameContext::GetMINOR_CIVILIZATION
PUBLIC	?GetBARBARIAN_HANDICAP@CvDllGameContext@@UBGHXZ	; CvDllGameContext::GetBARBARIAN_HANDICAP
PUBLIC	?GetBARBARIAN_LEADER@CvDllGameContext@@UBGHXZ	; CvDllGameContext::GetBARBARIAN_LEADER
PUBLIC	?GetMINOR_CIV_HANDICAP@CvDllGameContext@@UBGHXZ	; CvDllGameContext::GetMINOR_CIV_HANDICAP
PUBLIC	?GetWALLS_BUILDINGCLASS@CvDllGameContext@@UBGHXZ ; CvDllGameContext::GetWALLS_BUILDINGCLASS
PUBLIC	?GetAI_HANDICAP@CvDllGameContext@@UBGHXZ	; CvDllGameContext::GetAI_HANDICAP
PUBLIC	?GetNUM_CITY_PLOTS@CvDllGameContext@@UBGHXZ	; CvDllGameContext::GetNUM_CITY_PLOTS
PUBLIC	?GetHexDebugLayerNames@CvDllGameContext@@UAGPAPBDXZ ; CvDllGameContext::GetHexDebugLayerNames
PUBLIC	?GetHexDebugLayerScale@CvDllGameContext@@UAGMPBD@Z ; CvDllGameContext::GetHexDebugLayerScale
PUBLIC	?GetHexDebugLayerString@CvDllGameContext@@UAG_NPAVICvPlot1@@PBDW4PlayerTypes@@PADI@Z ; CvDllGameContext::GetHexDebugLayerString
PUBLIC	?Init@CvDllGameContext@@UAGXXZ			; CvDllGameContext::Init
PUBLIC	?Uninit@CvDllGameContext@@UAGXXZ		; CvDllGameContext::Uninit
PUBLIC	?GetScriptSystemUtility@CvDllGameContext@@UAGPAVICvScriptSystemUtility1@@XZ ; CvDllGameContext::GetScriptSystemUtility
PUBLIC	?GetNotificationType@CvDllGameContext@@UBGPBDH@Z ; CvDllGameContext::GetNotificationType
PUBLIC	?GetLogging@CvDllGameContext@@UAG_NXZ		; CvDllGameContext::GetLogging
PUBLIC	?SetLogging@CvDllGameContext@@UAGX_N@Z		; CvDllGameContext::SetLogging
PUBLIC	?GetRandLogging@CvDllGameContext@@UAGHXZ	; CvDllGameContext::GetRandLogging
PUBLIC	?SetRandLogging@CvDllGameContext@@UAGXH@Z	; CvDllGameContext::SetRandLogging
PUBLIC	?GetAILogging@CvDllGameContext@@UAG_NXZ		; CvDllGameContext::GetAILogging
PUBLIC	?SetAILogging@CvDllGameContext@@UAGX_N@Z	; CvDllGameContext::SetAILogging
PUBLIC	?GetAIPerfLogging@CvDllGameContext@@UAG_NXZ	; CvDllGameContext::GetAIPerfLogging
PUBLIC	?SetAIPerfLogging@CvDllGameContext@@UAGX_N@Z	; CvDllGameContext::SetAIPerfLogging
PUBLIC	?GetBuilderAILogging@CvDllGameContext@@UAG_NXZ	; CvDllGameContext::GetBuilderAILogging
PUBLIC	?SetBuilderAILogging@CvDllGameContext@@UAGX_N@Z	; CvDllGameContext::SetBuilderAILogging
PUBLIC	?GetPlayerAndCityAILogSplit@CvDllGameContext@@UAG_NXZ ; CvDllGameContext::GetPlayerAndCityAILogSplit
PUBLIC	?SetPlayerAndCityAILogSplit@CvDllGameContext@@UAGX_N@Z ; CvDllGameContext::SetPlayerAndCityAILogSplit
PUBLIC	?GetTutorialLogging@CvDllGameContext@@UAG_NXZ	; CvDllGameContext::GetTutorialLogging
PUBLIC	?SetTutorialLogging@CvDllGameContext@@UAGX_N@Z	; CvDllGameContext::SetTutorialLogging
PUBLIC	?GetTutorialDebugging@CvDllGameContext@@UAG_NXZ	; CvDllGameContext::GetTutorialDebugging
PUBLIC	?SetTutorialDebugging@CvDllGameContext@@UAGX_N@Z ; CvDllGameContext::SetTutorialDebugging
PUBLIC	?GetAllowRClickMovementWhileScrolling@CvDllGameContext@@UAG_NXZ ; CvDllGameContext::GetAllowRClickMovementWhileScrolling
PUBLIC	?SetAllowRClickMovementWhileScrolling@CvDllGameContext@@UAGX_N@Z ; CvDllGameContext::SetAllowRClickMovementWhileScrolling
PUBLIC	?GetPostTurnAutosaves@CvDllGameContext@@UAG_NXZ	; CvDllGameContext::GetPostTurnAutosaves
PUBLIC	?SetPostTurnAutosaves@CvDllGameContext@@UAGX_N@Z ; CvDllGameContext::SetPostTurnAutosaves
PUBLIC	?GetDatabaseLoadUtility@CvDllGameContext@@UAGPAVICvDLLDatabaseUtility1@@XZ ; CvDllGameContext::GetDatabaseLoadUtility
PUBLIC	?GetPlotDirectionX@CvDllGameContext@@UAGPAHXZ	; CvDllGameContext::GetPlotDirectionX
PUBLIC	?GetPlotDirectionY@CvDllGameContext@@UAGPAHXZ	; CvDllGameContext::GetPlotDirectionY
PUBLIC	?GetCityPlotX@CvDllGameContext@@UAGPAHXZ	; CvDllGameContext::GetCityPlotX
PUBLIC	?GetCityPlotY@CvDllGameContext@@UAGPAHXZ	; CvDllGameContext::GetCityPlotY
PUBLIC	?SetGameDatabase@CvDllGameContext@@UAGXPAVConnection@Database@@@Z ; CvDllGameContext::SetGameDatabase
PUBLIC	?SetDLLIFace@CvDllGameContext@@UAG_NPAVICvEngineUtility1@@@Z ; CvDllGameContext::SetDLLIFace
PUBLIC	?IsGraphicsInitialized@CvDllGameContext@@UBG_NXZ ; CvDllGameContext::IsGraphicsInitialized
PUBLIC	?SetGraphicsInitialized@CvDllGameContext@@UAGX_N@Z ; CvDllGameContext::SetGraphicsInitialized
PUBLIC	?SetOutOfSyncDebuggingEnabled@CvDllGameContext@@UAGX_N@Z ; CvDllGameContext::SetOutOfSyncDebuggingEnabled
PUBLIC	?RandomNumberGeneratorSyncCheck@CvDllGameContext@@UAG_NW4PlayerTypes@@PAVICvRandom1@@_N@Z ; CvDllGameContext::RandomNumberGeneratorSyncCheck
PUBLIC	?CreateRandomNumberGenerator@CvDllGameContext@@UAGIXZ ; CvDllGameContext::CreateRandomNumberGenerator
PUBLIC	?GetRandomNumberGenerator@CvDllGameContext@@UAGPAVICvRandom1@@I@Z ; CvDllGameContext::GetRandomNumberGenerator
PUBLIC	?DestroyRandomNumberGenerator@CvDllGameContext@@UAGXI@Z ; CvDllGameContext::DestroyRandomNumberGenerator
PUBLIC	?CreateNetInitInfo@CvDllGameContext@@UAGIXZ	; CvDllGameContext::CreateNetInitInfo
PUBLIC	?GetNetInitInfo@CvDllGameContext@@UAGPAVICvNetInitInfo1@@I@Z ; CvDllGameContext::GetNetInitInfo
PUBLIC	?DestroyNetInitInfo@CvDllGameContext@@UAGXI@Z	; CvDllGameContext::DestroyNetInitInfo
PUBLIC	?CreateNetLoadGameInfo@CvDllGameContext@@UAGIXZ	; CvDllGameContext::CreateNetLoadGameInfo
PUBLIC	?GetNetLoadGameInfo@CvDllGameContext@@UAGPAVICvNetLoadGameInfo1@@I@Z ; CvDllGameContext::GetNetLoadGameInfo
PUBLIC	?DestroyNetLoadGameInfo@CvDllGameContext@@UAGXI@Z ; CvDllGameContext::DestroyNetLoadGameInfo
PUBLIC	?TEMPOnHexUnitChanged@CvDllGameContext@@UAGXPAVICvUnit1@@@Z ; CvDllGameContext::TEMPOnHexUnitChanged
PUBLIC	?TEMPOnHexUnitChangedAttack@CvDllGameContext@@UAGXPAVICvUnit1@@@Z ; CvDllGameContext::TEMPOnHexUnitChangedAttack
PUBLIC	?TEMPCalculatePathFinderUpdates@CvDllGameContext@@UAGPAVICvEnumerator@@PAVICvUnit1@@HH@Z ; CvDllGameContext::TEMPCalculatePathFinderUpdates
PUBLIC	?ResetPathFinder@CvDllGameContext@@UAGXXZ	; CvDllGameContext::ResetPathFinder
PUBLIC	?SetEngineUserInterface@CvDllGameContext@@UAGXPAVICvUserInterface2@@@Z ; CvDllGameContext::SetEngineUserInterface
PUBLIC	?Debug_GetHeap@CvDllGameContext@@UBGPAXXZ	; CvDllGameContext::Debug_GetHeap
EXTRN	??3CvDllWorldBuilderMapLoader@@SAXPAX@Z:PROC	; CvDllWorldBuilderMapLoader::operator delete
EXTRN	??3CvDllScriptSystemUtility@@SAXPAX@Z:PROC	; CvDllScriptSystemUtility::operator delete
EXTRN	??3CvDllNetMessageHandler@@SAXPAX@Z:PROC	; CvDllNetMessageHandler::operator delete
EXTRN	??3CvDllNetworkSyncronization@@SAXPAX@Z:PROC	; CvDllNetworkSyncronization::operator delete
EXTRN	??0CvDllWorldBuilderMapLoader@@QAE@XZ:PROC	; CvDllWorldBuilderMapLoader::CvDllWorldBuilderMapLoader
EXTRN	??2CvDllWorldBuilderMapLoader@@SAPAXI@Z:PROC	; CvDllWorldBuilderMapLoader::operator new
EXTRN	??0CvDllScriptSystemUtility@@QAE@XZ:PROC	; CvDllScriptSystemUtility::CvDllScriptSystemUtility
EXTRN	??2CvDllScriptSystemUtility@@SAPAXI@Z:PROC	; CvDllScriptSystemUtility::operator new
EXTRN	??0CvDllNetMessageHandler@@QAE@XZ:PROC		; CvDllNetMessageHandler::CvDllNetMessageHandler
EXTRN	??2CvDllNetMessageHandler@@SAPAXI@Z:PROC	; CvDllNetMessageHandler::operator new
EXTRN	??0CvDllNetworkSyncronization@@QAE@XZ:PROC	; CvDllNetworkSyncronization::CvDllNetworkSyncronization
EXTRN	??2CvDllNetworkSyncronization@@SAPAXI@Z:PROC	; CvDllNetworkSyncronization::operator new
EXTRN	___security_cookie:DWORD
EXTRN	___CxxFrameHandler3:PROC
EXTRN	@__security_check_cookie@4:PROC
EXTRN	__CxxThrowException@8:PROC
EXTRN	__purecall:PROC
;	COMDAT ??_7CvDllGameContext@@6B@
; File c:\program files (x86)\microsoft visual studio 9.0\vc\include\xmemory
CONST	SEGMENT
??_7CvDllGameContext@@6B@ DD FLAT:?QueryInterface@CvDllGameContext@@UAGPAXU_GUID@@@Z ; CvDllGameContext::`vftable'
	DD	FLAT:?Destroy@CvDllGameContext@@MAGXXZ
	DD	FLAT:?GetDLLGUID@CvDllGameContext@@UAG?AU_GUID@@XZ
	DD	FLAT:?GetDLLVersion@CvDllGameContext@@UAGPBDXZ
	DD	FLAT:?GetNetworkSyncronizer@CvDllGameContext@@UAGPAVICvNetworkSyncronization1@@XZ
	DD	FLAT:?GetNetMessageHandler@CvDllGameContext@@UAGPAVICvNetMessageHandler1@@XZ
	DD	FLAT:?GetWorldBuilderMapLoader@CvDllGameContext@@UAGPAVICvWorldBuilderMapLoader1@@XZ
	DD	FLAT:?GetPreGame@CvDllGameContext@@UAGPAVICvPreGame1@@XZ
	DD	FLAT:?GetGame@CvDllGameContext@@UAGPAVICvGame1@@XZ
	DD	FLAT:?GetGameAsynch@CvDllGameContext@@UAGPAVICvGameAsynch1@@XZ
	DD	FLAT:?GetMap@CvDllGameContext@@UAGPAVICvMap1@@XZ
	DD	FLAT:?GetTeam@CvDllGameContext@@UAGPAVICvTeam1@@W4TeamTypes@@@Z
	DD	FLAT:?GetInfoTypeForString@CvDllGameContext@@UBGHPBD_N@Z
	DD	FLAT:?GetInfoTypeForHash@CvDllGameContext@@UBGHI_N@Z
	DD	FLAT:?GetCivilizationInfoIndex@CvDllGameContext@@UAG?AW4CivilizationTypes@@PBD@Z
	DD	FLAT:?GetNumPlayableCivilizationInfos@CvDllGameContext@@UAGHXZ
	DD	FLAT:?GetNumAIPlayableCivilizationInfos@CvDllGameContext@@UAGHXZ
	DD	FLAT:?GetNumPlayableMinorCivs@CvDllGameContext@@UAGHXZ
	DD	FLAT:?GetNumBuildInfos@CvDllGameContext@@UAGHXZ
	DD	FLAT:?GetNumBuildingInfos@CvDllGameContext@@UAGHXZ
	DD	FLAT:?GetNumCivilizationInfos@CvDllGameContext@@UAGHXZ
	DD	FLAT:?GetNumClimateInfos@CvDllGameContext@@UAGHXZ
	DD	FLAT:?GetNumColorInfos@CvDllGameContext@@UAGHXZ
	DD	FLAT:?GetNumEraInfos@CvDllGameContext@@UAGHXZ
	DD	FLAT:?GetNumFeatureInfos@CvDllGameContext@@UAGHXZ
	DD	FLAT:?GetNumGameOptionInfos@CvDllGameContext@@UAGHXZ
	DD	FLAT:?GetNumGameSpeedInfos@CvDllGameContext@@UAGHXZ
	DD	FLAT:?GetNumHandicapInfos@CvDllGameContext@@UAGHXZ
	DD	FLAT:?GetNumImprovementInfos@CvDllGameContext@@UAGHXZ
	DD	FLAT:?GetNumLeaderHeadInfos@CvDllGameContext@@UAGHXZ
	DD	FLAT:?GetNumMinorCivInfos@CvDllGameContext@@UAGHXZ
	DD	FLAT:?GetNumPlayerColorInfos@CvDllGameContext@@UAGHXZ
	DD	FLAT:?GetNumPolicyInfos@CvDllGameContext@@UAGHXZ
	DD	FLAT:?GetNumPromotionInfos@CvDllGameContext@@UAGHXZ
	DD	FLAT:?GetNumResourceInfos@CvDllGameContext@@UAGHXZ
	DD	FLAT:?GetNumSeaLevelInfos@CvDllGameContext@@UAGHXZ
	DD	FLAT:?GetNumTechInfos@CvDllGameContext@@UAGHXZ
	DD	FLAT:?GetNumTerrainInfos@CvDllGameContext@@UAGHXZ
	DD	FLAT:?GetNumUnitCombatClassInfos@CvDllGameContext@@UAGHXZ
	DD	FLAT:?GetNumUnitInfos@CvDllGameContext@@UAGHXZ
	DD	FLAT:?GetNumVictoryInfos@CvDllGameContext@@UAGHXZ
	DD	FLAT:?GetNumWorldInfos@CvDllGameContext@@UAGHXZ
	DD	FLAT:?GetBuildInfo@CvDllGameContext@@UAGPAVICvBuildInfo1@@W4BuildTypes@@@Z
	DD	FLAT:?GetBuildingInfo@CvDllGameContext@@UAGPAVICvBuildingInfo1@@W4BuildingTypes@@@Z
	DD	FLAT:?GetCivilizationInfo@CvDllGameContext@@UAGPAVICvCivilizationInfo1@@W4CivilizationTypes@@@Z
	DD	FLAT:?GetColorInfo@CvDllGameContext@@UAGPAVICvColorInfo1@@W4ColorTypes@@@Z
	DD	FLAT:?GetEraInfo@CvDllGameContext@@UAGPAVICvEraInfo1@@W4EraTypes@@@Z
	DD	FLAT:?GetFeatureInfo@CvDllGameContext@@UAGPAVICvFeatureInfo1@@W4FeatureTypes@@@Z
	DD	FLAT:?GetGameOptionInfo@CvDllGameContext@@UAGPAVICvGameOptionInfo1@@W4GameOptionTypes@@@Z
	DD	FLAT:?GetGameSpeedInfo@CvDllGameContext@@UAGPAVICvGameSpeedInfo1@@W4GameSpeedTypes@@@Z
	DD	FLAT:?GetHandicapInfo@CvDllGameContext@@UAGPAVICvHandicapInfo1@@W4HandicapTypes@@@Z
	DD	FLAT:?GetInterfaceModeInfo@CvDllGameContext@@UAGPAVICvInterfaceModeInfo1@@W4InterfaceModeTypes@@@Z
	DD	FLAT:?GetImprovementInfo@CvDllGameContext@@UAGPAVICvImprovementInfo1@@W4ImprovementTypes@@@Z
	DD	FLAT:?GetLeaderHeadInfo@CvDllGameContext@@UAGPAVICvLeaderHeadInfo1@@W4LeaderHeadTypes@@@Z
	DD	FLAT:?GetMinorCivInfo@CvDllGameContext@@UAGPAVICvMinorCivInfo1@@W4MinorCivTypes@@@Z
	DD	FLAT:?GetMissionInfo@CvDllGameContext@@UAGPAVICvMissionInfo1@@W4MissionTypes@@@Z
	DD	FLAT:?GetPlayerColorInfo@CvDllGameContext@@UAGPAVICvPlayerColorInfo1@@W4PlayerColorTypes@@@Z
	DD	FLAT:?GetPlayerOptionInfo@CvDllGameContext@@UAGPAVICvPlayerOptionInfo1@@W4PlayerOptionTypes@@@Z
	DD	FLAT:?GetPolicyInfo@CvDllGameContext@@UAGPAVICvPolicyInfo1@@W4PolicyTypes@@@Z
	DD	FLAT:?GetPromotionInfo@CvDllGameContext@@UAGPAVICvPromotionInfo1@@W4PromotionTypes@@@Z
	DD	FLAT:?GetResourceInfo@CvDllGameContext@@UAGPAVICvResourceInfo1@@W4ResourceTypes@@@Z
	DD	FLAT:?GetTechInfo@CvDllGameContext@@UAGPAVICvTechInfo1@@W4TechTypes@@@Z
	DD	FLAT:?GetTerrainInfo@CvDllGameContext@@UAGPAVICvTerrainInfo1@@W4TerrainTypes@@@Z
	DD	FLAT:?GetUnitInfo@CvDllGameContext@@UAGPAVICvUnitInfo1@@W4UnitTypes@@@Z
	DD	FLAT:?GetUnitCombatClassInfo@CvDllGameContext@@UAGPAVICvUnitCombatClassInfo1@@W4UnitCombatTypes@@@Z
	DD	FLAT:?GetVictoryInfo@CvDllGameContext@@UAGPAVICvVictoryInfo1@@W4VictoryTypes@@@Z
	DD	FLAT:?GetDefineSTRING@CvDllGameContext@@UAG_NPADIPBD_N@Z
	DD	FLAT:?GetMOVE_DENOMINATOR@CvDllGameContext@@UBGHXZ
	DD	FLAT:?GetMAX_CITY_HIT_POINTS@CvDllGameContext@@UBGHXZ
	DD	FLAT:?GetCITY_ZOOM_OFFSET@CvDllGameContext@@UBGMXZ
	DD	FLAT:?GetCITY_ZOOM_LEVEL_1@CvDllGameContext@@UBGMXZ
	DD	FLAT:?GetCITY_ZOOM_LEVEL_2@CvDllGameContext@@UBGMXZ
	DD	FLAT:?GetCITY_ZOOM_LEVEL_3@CvDllGameContext@@UBGMXZ
	DD	FLAT:?GetRUINS_IMPROVEMENT@CvDllGameContext@@UBGHXZ
	DD	FLAT:?GetSHALLOW_WATER_TERRAIN@CvDllGameContext@@UBGHXZ
	DD	FLAT:?GetDEFICIT_UNIT_DISBANDING_THRESHOLD@CvDllGameContext@@UBGHXZ
	DD	FLAT:?GetLAST_UNIT_ART_ERA@CvDllGameContext@@UBGHXZ
	DD	FLAT:?GetLAST_EMBARK_ART_ERA@CvDllGameContext@@UBGHXZ
	DD	FLAT:?GetHEAVY_RESOURCE_THRESHOLD@CvDllGameContext@@UBGHXZ
	DD	FLAT:?GetSTANDARD_HANDICAP@CvDllGameContext@@UBGHXZ
	DD	FLAT:?GetSTANDARD_GAMESPEED@CvDllGameContext@@UBGHXZ
	DD	FLAT:?GetLAST_BRIDGE_ART_ERA@CvDllGameContext@@UBGHXZ
	DD	FLAT:?GetBARBARIAN_CIVILIZATION@CvDllGameContext@@UBGHXZ
	DD	FLAT:?GetMINOR_CIVILIZATION@CvDllGameContext@@UBGHXZ
	DD	FLAT:?GetBARBARIAN_HANDICAP@CvDllGameContext@@UBGHXZ
	DD	FLAT:?GetBARBARIAN_LEADER@CvDllGameContext@@UBGHXZ
	DD	FLAT:?GetMINOR_CIV_HANDICAP@CvDllGameContext@@UBGHXZ
	DD	FLAT:?GetWALLS_BUILDINGCLASS@CvDllGameContext@@UBGHXZ
	DD	FLAT:?GetAI_HANDICAP@CvDllGameContext@@UBGHXZ
	DD	FLAT:?GetNUM_CITY_PLOTS@CvDllGameContext@@UBGHXZ
	DD	FLAT:?GetHexDebugLayerNames@CvDllGameContext@@UAGPAPBDXZ
	DD	FLAT:?GetHexDebugLayerScale@CvDllGameContext@@UAGMPBD@Z
	DD	FLAT:?GetHexDebugLayerString@CvDllGameContext@@UAG_NPAVICvPlot1@@PBDW4PlayerTypes@@PADI@Z
	DD	FLAT:?Init@CvDllGameContext@@UAGXXZ
	DD	FLAT:?Uninit@CvDllGameContext@@UAGXXZ
	DD	FLAT:?GetScriptSystemUtility@CvDllGameContext@@UAGPAVICvScriptSystemUtility1@@XZ
	DD	FLAT:?GetNotificationType@CvDllGameContext@@UBGPBDH@Z
	DD	FLAT:?GetLogging@CvDllGameContext@@UAG_NXZ
	DD	FLAT:?SetLogging@CvDllGameContext@@UAGX_N@Z
	DD	FLAT:?GetRandLogging@CvDllGameContext@@UAGHXZ
	DD	FLAT:?SetRandLogging@CvDllGameContext@@UAGXH@Z
	DD	FLAT:?GetAILogging@CvDllGameContext@@UAG_NXZ
	DD	FLAT:?SetAILogging@CvDllGameContext@@UAGX_N@Z
	DD	FLAT:?GetAIPerfLogging@CvDllGameContext@@UAG_NXZ
	DD	FLAT:?SetAIPerfLogging@CvDllGameContext@@UAGX_N@Z
	DD	FLAT:?GetBuilderAILogging@CvDllGameContext@@UAG_NXZ
	DD	FLAT:?SetBuilderAILogging@CvDllGameContext@@UAGX_N@Z
	DD	FLAT:?GetPlayerAndCityAILogSplit@CvDllGameContext@@UAG_NXZ
	DD	FLAT:?SetPlayerAndCityAILogSplit@CvDllGameContext@@UAGX_N@Z
	DD	FLAT:?GetTutorialLogging@CvDllGameContext@@UAG_NXZ
	DD	FLAT:?SetTutorialLogging@CvDllGameContext@@UAGX_N@Z
	DD	FLAT:?GetTutorialDebugging@CvDllGameContext@@UAG_NXZ
	DD	FLAT:?SetTutorialDebugging@CvDllGameContext@@UAGX_N@Z
	DD	FLAT:?GetAllowRClickMovementWhileScrolling@CvDllGameContext@@UAG_NXZ
	DD	FLAT:?SetAllowRClickMovementWhileScrolling@CvDllGameContext@@UAGX_N@Z
	DD	FLAT:?GetPostTurnAutosaves@CvDllGameContext@@UAG_NXZ
	DD	FLAT:?SetPostTurnAutosaves@CvDllGameContext@@UAGX_N@Z
	DD	FLAT:?GetDatabaseLoadUtility@CvDllGameContext@@UAGPAVICvDLLDatabaseUtility1@@XZ
	DD	FLAT:?GetPlotDirectionX@CvDllGameContext@@UAGPAHXZ
	DD	FLAT:?GetPlotDirectionY@CvDllGameContext@@UAGPAHXZ
	DD	FLAT:?GetCityPlotX@CvDllGameContext@@UAGPAHXZ
	DD	FLAT:?GetCityPlotY@CvDllGameContext@@UAGPAHXZ
	DD	FLAT:?SetGameDatabase@CvDllGameContext@@UAGXPAVConnection@Database@@@Z
	DD	FLAT:?SetDLLIFace@CvDllGameContext@@UAG_NPAVICvEngineUtility1@@@Z
	DD	FLAT:?IsGraphicsInitialized@CvDllGameContext@@UBG_NXZ
	DD	FLAT:?SetGraphicsInitialized@CvDllGameContext@@UAGX_N@Z
	DD	FLAT:?SetOutOfSyncDebuggingEnabled@CvDllGameContext@@UAGX_N@Z
	DD	FLAT:?RandomNumberGeneratorSyncCheck@CvDllGameContext@@UAG_NW4PlayerTypes@@PAVICvRandom1@@_N@Z
	DD	FLAT:?CreateRandomNumberGenerator@CvDllGameContext@@UAGIXZ
	DD	FLAT:?GetRandomNumberGenerator@CvDllGameContext@@UAGPAVICvRandom1@@I@Z
	DD	FLAT:?DestroyRandomNumberGenerator@CvDllGameContext@@UAGXI@Z
	DD	FLAT:?CreateNetInitInfo@CvDllGameContext@@UAGIXZ
	DD	FLAT:?GetNetInitInfo@CvDllGameContext@@UAGPAVICvNetInitInfo1@@I@Z
	DD	FLAT:?DestroyNetInitInfo@CvDllGameContext@@UAGXI@Z
	DD	FLAT:?CreateNetLoadGameInfo@CvDllGameContext@@UAGIXZ
	DD	FLAT:?GetNetLoadGameInfo@CvDllGameContext@@UAGPAVICvNetLoadGameInfo1@@I@Z
	DD	FLAT:?DestroyNetLoadGameInfo@CvDllGameContext@@UAGXI@Z
	DD	FLAT:?TEMPOnHexUnitChanged@CvDllGameContext@@UAGXPAVICvUnit1@@@Z
	DD	FLAT:?TEMPOnHexUnitChangedAttack@CvDllGameContext@@UAGXPAVICvUnit1@@@Z
	DD	FLAT:?TEMPCalculatePathFinderUpdates@CvDllGameContext@@UAGPAVICvEnumerator@@PAVICvUnit1@@HH@Z
	DD	FLAT:?ResetPathFinder@CvDllGameContext@@UAGXXZ
	DD	FLAT:?SetEngineUserInterface@CvDllGameContext@@UAGXPAVICvUserInterface2@@@Z
	DD	FLAT:?Debug_GetHeap@CvDllGameContext@@UBGPAXXZ
CONST	ENDS
;	COMDAT ??_7ICvGameContext3@@6B@
CONST	SEGMENT
??_7ICvGameContext3@@6B@ DD FLAT:__purecall		; ICvGameContext3::`vftable'
	DD	FLAT:__purecall
	DD	FLAT:__purecall
	DD	FLAT:__purecall
	DD	FLAT:__purecall
	DD	FLAT:__purecall
	DD	FLAT:__purecall
	DD	FLAT:__purecall
	DD	FLAT:__purecall
	DD	FLAT:__purecall
	DD	FLAT:__purecall
	DD	FLAT:__purecall
	DD	FLAT:__purecall
	DD	FLAT:__purecall
	DD	FLAT:__purecall
	DD	FLAT:__purecall
	DD	FLAT:__purecall
	DD	FLAT:__purecall
	DD	FLAT:__purecall
	DD	FLAT:__purecall
	DD	FLAT:__purecall
	DD	FLAT:__purecall
	DD	FLAT:__purecall
	DD	FLAT:__purecall
	DD	FLAT:__purecall
	DD	FLAT:__purecall
	DD	FLAT:__purecall
	DD	FLAT:__purecall
	DD	FLAT:__purecall
	DD	FLAT:__purecall
	DD	FLAT:__purecall
	DD	FLAT:__purecall
	DD	FLAT:__purecall
	DD	FLAT:__purecall
	DD	FLAT:__purecall
	DD	FLAT:__purecall
	DD	FLAT:__purecall
	DD	FLAT:__purecall
	DD	FLAT:__purecall
	DD	FLAT:__purecall
	DD	FLAT:__purecall
	DD	FLAT:__purecall
	DD	FLAT:__purecall
	DD	FLAT:__purecall
	DD	FLAT:__purecall
	DD	FLAT:__purecall
	DD	FLAT:__purecall
	DD	FLAT:__purecall
	DD	FLAT:__purecall
	DD	FLAT:__purecall
	DD	FLAT:__purecall
	DD	FLAT:__purecall
	DD	FLAT:__purecall
	DD	FLAT:__purecall
	DD	FLAT:__purecall
	DD	FLAT:__purecall
	DD	FLAT:__purecall
	DD	FLAT:__purecall
	DD	FLAT:__purecall
	DD	FLAT:__purecall
	DD	FLAT:__purecall
	DD	FLAT:__purecall
	DD	FLAT:__purecall
	DD	FLAT:__purecall
	DD	FLAT:__purecall
	DD	FLAT:__purecall
	DD	FLAT:__purecall
	DD	FLAT:__purecall
	DD	FLAT:__purecall
	DD	FLAT:__purecall
	DD	FLAT:__purecall
	DD	FLAT:__purecall
	DD	FLAT:__purecall
	DD	FLAT:__purecall
	DD	FLAT:__purecall
	DD	FLAT:__purecall
	DD	FLAT:__purecall
	DD	FLAT:__purecall
	DD	FLAT:__purecall
	DD	FLAT:__purecall
	DD	FLAT:__purecall
	DD	FLAT:__purecall
	DD	FLAT:__purecall
	DD	FLAT:__purecall
	DD	FLAT:__purecall
	DD	FLAT:__purecall
	DD	FLAT:__purecall
	DD	FLAT:__purecall
	DD	FLAT:__purecall
	DD	FLAT:__purecall
	DD	FLAT:__purecall
	DD	FLAT:__purecall
	DD	FLAT:__purecall
	DD	FLAT:__purecall
	DD	FLAT:__purecall
	DD	FLAT:__purecall
	DD	FLAT:__purecall
	DD	FLAT:__purecall
	DD	FLAT:__purecall
	DD	FLAT:__purecall
	DD	FLAT:__purecall
	DD	FLAT:__purecall
	DD	FLAT:__purecall
	DD	FLAT:__purecall
	DD	FLAT:__purecall
	DD	FLAT:__purecall
	DD	FLAT:__purecall
	DD	FLAT:__purecall
	DD	FLAT:__purecall
	DD	FLAT:__purecall
	DD	FLAT:__purecall
	DD	FLAT:__purecall
	DD	FLAT:__purecall
	DD	FLAT:__purecall
	DD	FLAT:__purecall
	DD	FLAT:__purecall
	DD	FLAT:__purecall
	DD	FLAT:__purecall
	DD	FLAT:__purecall
	DD	FLAT:__purecall
	DD	FLAT:__purecall
	DD	FLAT:__purecall
	DD	FLAT:__purecall
	DD	FLAT:__purecall
	DD	FLAT:__purecall
	DD	FLAT:__purecall
	DD	FLAT:__purecall
	DD	FLAT:__purecall
	DD	FLAT:__purecall
	DD	FLAT:__purecall
	DD	FLAT:__purecall
	DD	FLAT:__purecall
	DD	FLAT:__purecall
	DD	FLAT:__purecall
	DD	FLAT:__purecall
	DD	FLAT:__purecall
	DD	FLAT:__purecall
	DD	FLAT:__purecall
	DD	FLAT:__purecall
	DD	FLAT:__purecall
	DD	FLAT:__purecall
	DD	FLAT:__purecall
	DD	FLAT:__purecall
CONST	ENDS
;	COMDAT ??_7ICvGameContext2@@6B@
CONST	SEGMENT
??_7ICvGameContext2@@6B@ DD FLAT:__purecall		; ICvGameContext2::`vftable'
	DD	FLAT:__purecall
	DD	FLAT:__purecall
	DD	FLAT:__purecall
	DD	FLAT:__purecall
	DD	FLAT:__purecall
	DD	FLAT:__purecall
	DD	FLAT:__purecall
	DD	FLAT:__purecall
	DD	FLAT:__purecall
	DD	FLAT:__purecall
	DD	FLAT:__purecall
	DD	FLAT:__purecall
	DD	FLAT:__purecall
	DD	FLAT:__purecall
	DD	FLAT:__purecall
	DD	FLAT:__purecall
	DD	FLAT:__purecall
	DD	FLAT:__purecall
	DD	FLAT:__purecall
	DD	FLAT:__purecall
	DD	FLAT:__purecall
	DD	FLAT:__purecall
	DD	FLAT:__purecall
	DD	FLAT:__purecall
	DD	FLAT:__purecall
	DD	FLAT:__purecall
	DD	FLAT:__purecall
	DD	FLAT:__purecall
	DD	FLAT:__purecall
	DD	FLAT:__purecall
	DD	FLAT:__purecall
	DD	FLAT:__purecall
	DD	FLAT:__purecall
	DD	FLAT:__purecall
	DD	FLAT:__purecall
	DD	FLAT:__purecall
	DD	FLAT:__purecall
	DD	FLAT:__purecall
	DD	FLAT:__purecall
	DD	FLAT:__purecall
	DD	FLAT:__purecall
	DD	FLAT:__purecall
	DD	FLAT:__purecall
	DD	FLAT:__purecall
	DD	FLAT:__purecall
	DD	FLAT:__purecall
	DD	FLAT:__purecall
	DD	FLAT:__purecall
	DD	FLAT:__purecall
	DD	FLAT:__purecall
	DD	FLAT:__purecall
	DD	FLAT:__purecall
	DD	FLAT:__purecall
	DD	FLAT:__purecall
	DD	FLAT:__purecall
	DD	FLAT:__purecall
	DD	FLAT:__purecall
	DD	FLAT:__purecall
	DD	FLAT:__purecall
	DD	FLAT:__purecall
	DD	FLAT:__purecall
	DD	FLAT:__purecall
	DD	FLAT:__purecall
	DD	FLAT:__purecall
	DD	FLAT:__purecall
	DD	FLAT:__purecall
	DD	FLAT:__purecall
	DD	FLAT:__purecall
	DD	FLAT:__purecall
	DD	FLAT:__purecall
	DD	FLAT:__purecall
	DD	FLAT:__purecall
	DD	FLAT:__purecall
	DD	FLAT:__purecall
	DD	FLAT:__purecall
	DD	FLAT:__purecall
	DD	FLAT:__purecall
	DD	FLAT:__purecall
	DD	FLAT:__purecall
	DD	FLAT:__purecall
	DD	FLAT:__purecall
	DD	FLAT:__purecall
	DD	FLAT:__purecall
	DD	FLAT:__purecall
	DD	FLAT:__purecall
	DD	FLAT:__purecall
	DD	FLAT:__purecall
	DD	FLAT:__purecall
	DD	FLAT:__purecall
	DD	FLAT:__purecall
	DD	FLAT:__purecall
	DD	FLAT:__purecall
	DD	FLAT:__purecall
	DD	FLAT:__purecall
	DD	FLAT:__purecall
	DD	FLAT:__purecall
	DD	FLAT:__purecall
	DD	FLAT:__purecall
	DD	FLAT:__purecall
	DD	FLAT:__purecall
	DD	FLAT:__purecall
	DD	FLAT:__purecall
	DD	FLAT:__purecall
	DD	FLAT:__purecall
	DD	FLAT:__purecall
	DD	FLAT:__purecall
	DD	FLAT:__purecall
	DD	FLAT:__purecall
	DD	FLAT:__purecall
	DD	FLAT:__purecall
	DD	FLAT:__purecall
	DD	FLAT:__purecall
	DD	FLAT:__purecall
	DD	FLAT:__purecall
	DD	FLAT:__purecall
	DD	FLAT:__purecall
	DD	FLAT:__purecall
	DD	FLAT:__purecall
	DD	FLAT:__purecall
	DD	FLAT:__purecall
	DD	FLAT:__purecall
	DD	FLAT:__purecall
	DD	FLAT:__purecall
	DD	FLAT:__purecall
	DD	FLAT:__purecall
	DD	FLAT:__purecall
	DD	FLAT:__purecall
	DD	FLAT:__purecall
	DD	FLAT:__purecall
	DD	FLAT:__purecall
	DD	FLAT:__purecall
	DD	FLAT:__purecall
	DD	FLAT:__purecall
	DD	FLAT:__purecall
	DD	FLAT:__purecall
	DD	FLAT:__purecall
	DD	FLAT:__purecall
	DD	FLAT:__purecall
	DD	FLAT:__purecall
	DD	FLAT:__purecall
	DD	FLAT:__purecall
CONST	ENDS
;	COMDAT ??_7ICvGameContext1@@6B@
CONST	SEGMENT
??_7ICvGameContext1@@6B@ DD FLAT:__purecall		; ICvGameContext1::`vftable'
	DD	FLAT:__purecall
	DD	FLAT:__purecall
	DD	FLAT:__purecall
	DD	FLAT:__purecall
	DD	FLAT:__purecall
	DD	FLAT:__purecall
	DD	FLAT:__purecall
	DD	FLAT:__purecall
	DD	FLAT:__purecall
	DD	FLAT:__purecall
	DD	FLAT:__purecall
	DD	FLAT:__purecall
	DD	FLAT:__purecall
	DD	FLAT:__purecall
	DD	FLAT:__purecall
	DD	FLAT:__purecall
	DD	FLAT:__purecall
	DD	FLAT:__purecall
	DD	FLAT:__purecall
	DD	FLAT:__purecall
	DD	FLAT:__purecall
	DD	FLAT:__purecall
	DD	FLAT:__purecall
	DD	FLAT:__purecall
	DD	FLAT:__purecall
	DD	FLAT:__purecall
	DD	FLAT:__purecall
	DD	FLAT:__purecall
	DD	FLAT:__purecall
	DD	FLAT:__purecall
	DD	FLAT:__purecall
	DD	FLAT:__purecall
	DD	FLAT:__purecall
	DD	FLAT:__purecall
	DD	FLAT:__purecall
	DD	FLAT:__purecall
	DD	FLAT:__purecall
	DD	FLAT:__purecall
	DD	FLAT:__purecall
	DD	FLAT:__purecall
	DD	FLAT:__purecall
	DD	FLAT:__purecall
	DD	FLAT:__purecall
	DD	FLAT:__purecall
	DD	FLAT:__purecall
	DD	FLAT:__purecall
	DD	FLAT:__purecall
	DD	FLAT:__purecall
	DD	FLAT:__purecall
	DD	FLAT:__purecall
	DD	FLAT:__purecall
	DD	FLAT:__purecall
	DD	FLAT:__purecall
	DD	FLAT:__purecall
	DD	FLAT:__purecall
	DD	FLAT:__purecall
	DD	FLAT:__purecall
	DD	FLAT:__purecall
	DD	FLAT:__purecall
	DD	FLAT:__purecall
	DD	FLAT:__purecall
	DD	FLAT:__purecall
	DD	FLAT:__purecall
	DD	FLAT:__purecall
	DD	FLAT:__purecall
	DD	FLAT:__purecall
	DD	FLAT:__purecall
	DD	FLAT:__purecall
	DD	FLAT:__purecall
	DD	FLAT:__purecall
	DD	FLAT:__purecall
	DD	FLAT:__purecall
	DD	FLAT:__purecall
	DD	FLAT:__purecall
	DD	FLAT:__purecall
	DD	FLAT:__purecall
	DD	FLAT:__purecall
	DD	FLAT:__purecall
	DD	FLAT:__purecall
	DD	FLAT:__purecall
	DD	FLAT:__purecall
	DD	FLAT:__purecall
	DD	FLAT:__purecall
	DD	FLAT:__purecall
	DD	FLAT:__purecall
	DD	FLAT:__purecall
	DD	FLAT:__purecall
	DD	FLAT:__purecall
	DD	FLAT:__purecall
	DD	FLAT:__purecall
	DD	FLAT:__purecall
	DD	FLAT:__purecall
	DD	FLAT:__purecall
	DD	FLAT:__purecall
	DD	FLAT:__purecall
	DD	FLAT:__purecall
	DD	FLAT:__purecall
	DD	FLAT:__purecall
	DD	FLAT:__purecall
	DD	FLAT:__purecall
	DD	FLAT:__purecall
	DD	FLAT:__purecall
	DD	FLAT:__purecall
	DD	FLAT:__purecall
	DD	FLAT:__purecall
	DD	FLAT:__purecall
	DD	FLAT:__purecall
	DD	FLAT:__purecall
	DD	FLAT:__purecall
	DD	FLAT:__purecall
	DD	FLAT:__purecall
	DD	FLAT:__purecall
	DD	FLAT:__purecall
	DD	FLAT:__purecall
	DD	FLAT:__purecall
	DD	FLAT:__purecall
	DD	FLAT:__purecall
	DD	FLAT:__purecall
	DD	FLAT:__purecall
	DD	FLAT:__purecall
	DD	FLAT:__purecall
	DD	FLAT:__purecall
	DD	FLAT:__purecall
	DD	FLAT:__purecall
	DD	FLAT:__purecall
	DD	FLAT:__purecall
	DD	FLAT:__purecall
	DD	FLAT:__purecall
	DD	FLAT:__purecall
	DD	FLAT:__purecall
	DD	FLAT:__purecall
	DD	FLAT:__purecall
	DD	FLAT:__purecall
	DD	FLAT:__purecall
	DD	FLAT:__purecall
	DD	FLAT:__purecall
	DD	FLAT:__purecall
	DD	FLAT:__purecall
	DD	FLAT:__purecall
	DD	FLAT:__purecall
CONST	ENDS
;	COMDAT ??_7ICvUnknown@@6B@
CONST	SEGMENT
??_7ICvUnknown@@6B@ DD FLAT:__purecall			; ICvUnknown::`vftable'
	DD	FLAT:__purecall
CONST	ENDS
;	COMDAT xdata$x
xdata$x	SEGMENT
__ehfuncinfo$??0CvDllGameContext@@IAE@XZ DD 019930522H
	DD	0aH
	DD	FLAT:__unwindtable$??0CvDllGameContext@@IAE@XZ
	DD	2 DUP(00H)
	DD	2 DUP(00H)
	DD	00H
	DD	01H
__unwindtable$??0CvDllGameContext@@IAE@XZ DD 0ffffffffH
	DD	FLAT:__unwindfunclet$??0CvDllGameContext@@IAE@XZ$7
	DD	0ffffffffH
	DD	FLAT:__unwindfunclet$??0CvDllGameContext@@IAE@XZ$0
	DD	01H
	DD	FLAT:__unwindfunclet$??0CvDllGameContext@@IAE@XZ$10
	DD	01H
	DD	FLAT:__unwindfunclet$??0CvDllGameContext@@IAE@XZ$1
	DD	03H
	DD	FLAT:__unwindfunclet$??0CvDllGameContext@@IAE@XZ$12
	DD	03H
	DD	FLAT:__unwindfunclet$??0CvDllGameContext@@IAE@XZ$2
	DD	05H
	DD	FLAT:__unwindfunclet$??0CvDllGameContext@@IAE@XZ$3
	DD	05H
	DD	FLAT:__unwindfunclet$??0CvDllGameContext@@IAE@XZ$4
	DD	05H
	DD	FLAT:__unwindfunclet$??0CvDllGameContext@@IAE@XZ$5
	DD	05H
	DD	FLAT:__unwindfunclet$??0CvDllGameContext@@IAE@XZ$6
; Function compile flags: /Odtp
; File d:\sources\lekmod_git\checkout\lekmod_dll\cvgamecoredll_expansion2\cvdllcontext.cpp
xdata$x	ENDS
;	COMDAT ??0CvDllGameContext@@IAE@XZ
_TEXT	SEGMENT
tv156 = -240						; size = 4
tv148 = -236						; size = 4
tv140 = -232						; size = 4
tv132 = -228						; size = 4
tv325 = -224						; size = 4
tv350 = -220						; size = 4
tv267 = -216						; size = 4
tv296 = -212						; size = 4
tv216 = -208						; size = 4
tv241 = -204						; size = 4
_this$ = -200						; size = 4
$T226983 = -196						; size = 4
$T226948 = -186						; size = 1
$T226935 = -185						; size = 1
$T226931 = -184						; size = 4
$T226924 = -176						; size = 4
$T226917 = -168						; size = 4
$T226882 = -158						; size = 1
$T226869 = -157						; size = 1
$T226865 = -156						; size = 4
$T226858 = -148						; size = 4
$T226851 = -140						; size = 4
$T226811 = -62						; size = 1
$T226798 = -61						; size = 1
$T226794 = -60						; size = 4
$T226787 = -52						; size = 4
$T226747 = -44						; size = 4
$T226746 = -40						; size = 4
$T226743 = -36						; size = 4
$T226742 = -32						; size = 4
$T226739 = -28						; size = 4
$T226738 = -24						; size = 4
$T226735 = -20						; size = 4
$T226734 = -16						; size = 4
__$EHRec$ = -12						; size = 12
??0CvDllGameContext@@IAE@XZ PROC			; CvDllGameContext::CvDllGameContext, COMDAT
; _this$ = ecx

; 59   : {

	push	ebp
	mov	ebp, esp
	push	-1
	push	__ehhandler$??0CvDllGameContext@@IAE@XZ
	mov	eax, DWORD PTR fs:0
	push	eax
	sub	esp, 228				; 000000e4H
	mov	eax, DWORD PTR ___security_cookie
	xor	eax, ebp
	push	eax
	lea	eax, DWORD PTR __$EHRec$[ebp]
	mov	DWORD PTR fs:0, eax
	mov	DWORD PTR _this$[ebp], ecx
	mov	eax, DWORD PTR _this$[ebp]
	mov	DWORD PTR [eax], OFFSET ??_7ICvUnknown@@6B@
	mov	ecx, DWORD PTR _this$[ebp]
	mov	DWORD PTR [ecx], OFFSET ??_7ICvGameContext1@@6B@
	mov	edx, DWORD PTR _this$[ebp]
	mov	DWORD PTR [edx], OFFSET ??_7ICvGameContext2@@6B@
	mov	eax, DWORD PTR _this$[ebp]
	mov	DWORD PTR [eax], OFFSET ??_7ICvGameContext3@@6B@
	mov	ecx, DWORD PTR _this$[ebp]
	mov	DWORD PTR [ecx], OFFSET ??_7CvDllGameContext@@6B@
	mov	edx, DWORD PTR _this$[ebp]
	add	edx, 20					; 00000014H
	mov	DWORD PTR $T226851[ebp], edx
	lea	eax, DWORD PTR $T226811[ebp]
	mov	DWORD PTR $T226787[ebp], eax
	lea	ecx, DWORD PTR $T226798[ebp]
	mov	DWORD PTR $T226794[ebp], ecx
	mov	edx, DWORD PTR $T226851[ebp]
	mov	DWORD PTR tv241[ebp], edx
	mov	eax, DWORD PTR $T226851[ebp]
	mov	DWORD PTR tv216[ebp], eax
	mov	DWORD PTR __$EHRec$[ebp+8], 0
	push	0
	mov	ecx, DWORD PTR $T226851[ebp]
	call	?_Buy@?$vector@U?$pair@IPAVCvRandom@@@std@@V?$allocator@U?$pair@IPAVCvRandom@@@std@@@2@@std@@IAE_NI@Z ; std::vector<std::pair<unsigned int,CvRandom *>,std::allocator<std::pair<unsigned int,CvRandom *> > >::_Buy
	mov	DWORD PTR __$EHRec$[ebp+8], 1
	mov	ecx, DWORD PTR _this$[ebp]
	mov	DWORD PTR [ecx+36], 0
	mov	edx, DWORD PTR _this$[ebp]
	add	edx, 40					; 00000028H
	mov	DWORD PTR $T226917[ebp], edx
	lea	eax, DWORD PTR $T226882[ebp]
	mov	DWORD PTR $T226858[ebp], eax
	lea	ecx, DWORD PTR $T226869[ebp]
	mov	DWORD PTR $T226865[ebp], ecx
	mov	edx, DWORD PTR $T226917[ebp]
	mov	DWORD PTR tv296[ebp], edx
	mov	eax, DWORD PTR $T226917[ebp]
	mov	DWORD PTR tv267[ebp], eax
	mov	BYTE PTR __$EHRec$[ebp+8], 2
	push	0
	mov	ecx, DWORD PTR $T226917[ebp]
	call	?_Buy@?$vector@U?$pair@IPAVCvDllNetInitInfo@@@std@@V?$allocator@U?$pair@IPAVCvDllNetInitInfo@@@std@@@2@@std@@IAE_NI@Z ; std::vector<std::pair<unsigned int,CvDllNetInitInfo *>,std::allocator<std::pair<unsigned int,CvDllNetInitInfo *> > >::_Buy
	mov	BYTE PTR __$EHRec$[ebp+8], 3
	mov	ecx, DWORD PTR _this$[ebp]
	mov	DWORD PTR [ecx+56], 0
	mov	edx, DWORD PTR _this$[ebp]
	add	edx, 60					; 0000003cH
	mov	DWORD PTR $T226983[ebp], edx
	lea	eax, DWORD PTR $T226948[ebp]
	mov	DWORD PTR $T226924[ebp], eax
	lea	ecx, DWORD PTR $T226935[ebp]
	mov	DWORD PTR $T226931[ebp], ecx
	mov	edx, DWORD PTR $T226983[ebp]
	mov	DWORD PTR tv350[ebp], edx
	mov	eax, DWORD PTR $T226983[ebp]
	mov	DWORD PTR tv325[ebp], eax
	mov	BYTE PTR __$EHRec$[ebp+8], 4
	push	0
	mov	ecx, DWORD PTR $T226983[ebp]
	call	?_Buy@?$vector@U?$pair@IPAVCvDllNetLoadGameInfo@@@std@@V?$allocator@U?$pair@IPAVCvDllNetLoadGameInfo@@@std@@@2@@std@@IAE_NI@Z ; std::vector<std::pair<unsigned int,CvDllNetLoadGameInfo *>,std::allocator<std::pair<unsigned int,CvDllNetLoadGameInfo *> > >::_Buy
	mov	BYTE PTR __$EHRec$[ebp+8], 5
	mov	ecx, DWORD PTR _this$[ebp]
	mov	DWORD PTR [ecx+76], 0

; 60   : 	m_pNetworkSyncronizer = new CvDllNetworkSyncronization();

	push	4
	call	??2CvDllNetworkSyncronization@@SAPAXI@Z	; CvDllNetworkSyncronization::operator new
	add	esp, 4
	mov	DWORD PTR $T226735[ebp], eax
	mov	BYTE PTR __$EHRec$[ebp+8], 6
	cmp	DWORD PTR $T226735[ebp], 0
	je	SHORT $LN3@CvDllGameC
	mov	ecx, DWORD PTR $T226735[ebp]
	call	??0CvDllNetworkSyncronization@@QAE@XZ	; CvDllNetworkSyncronization::CvDllNetworkSyncronization
	mov	DWORD PTR tv132[ebp], eax
	jmp	SHORT $LN4@CvDllGameC
$LN3@CvDllGameC:
	mov	DWORD PTR tv132[ebp], 0
$LN4@CvDllGameC:
	mov	edx, DWORD PTR tv132[ebp]
	mov	DWORD PTR $T226734[ebp], edx
	mov	BYTE PTR __$EHRec$[ebp+8], 5
	mov	eax, DWORD PTR _this$[ebp]
	mov	ecx, DWORD PTR $T226734[ebp]
	mov	DWORD PTR [eax+4], ecx

; 61   : 	m_pNetMessageHandler = new CvDllNetMessageHandler();

	push	4
	call	??2CvDllNetMessageHandler@@SAPAXI@Z	; CvDllNetMessageHandler::operator new
	add	esp, 4
	mov	DWORD PTR $T226739[ebp], eax
	mov	BYTE PTR __$EHRec$[ebp+8], 7
	cmp	DWORD PTR $T226739[ebp], 0
	je	SHORT $LN5@CvDllGameC
	mov	ecx, DWORD PTR $T226739[ebp]
	call	??0CvDllNetMessageHandler@@QAE@XZ	; CvDllNetMessageHandler::CvDllNetMessageHandler
	mov	DWORD PTR tv140[ebp], eax
	jmp	SHORT $LN6@CvDllGameC
$LN5@CvDllGameC:
	mov	DWORD PTR tv140[ebp], 0
$LN6@CvDllGameC:
	mov	edx, DWORD PTR tv140[ebp]
	mov	DWORD PTR $T226738[ebp], edx
	mov	BYTE PTR __$EHRec$[ebp+8], 5
	mov	eax, DWORD PTR _this$[ebp]
	mov	ecx, DWORD PTR $T226738[ebp]
	mov	DWORD PTR [eax+8], ecx

; 62   : 	m_pScriptSystemUtility = new CvDllScriptSystemUtility();

	push	4
	call	??2CvDllScriptSystemUtility@@SAPAXI@Z	; CvDllScriptSystemUtility::operator new
	add	esp, 4
	mov	DWORD PTR $T226743[ebp], eax
	mov	BYTE PTR __$EHRec$[ebp+8], 8
	cmp	DWORD PTR $T226743[ebp], 0
	je	SHORT $LN7@CvDllGameC
	mov	ecx, DWORD PTR $T226743[ebp]
	call	??0CvDllScriptSystemUtility@@QAE@XZ	; CvDllScriptSystemUtility::CvDllScriptSystemUtility
	mov	DWORD PTR tv148[ebp], eax
	jmp	SHORT $LN8@CvDllGameC
$LN7@CvDllGameC:
	mov	DWORD PTR tv148[ebp], 0
$LN8@CvDllGameC:
	mov	edx, DWORD PTR tv148[ebp]
	mov	DWORD PTR $T226742[ebp], edx
	mov	BYTE PTR __$EHRec$[ebp+8], 5
	mov	eax, DWORD PTR _this$[ebp]
	mov	ecx, DWORD PTR $T226742[ebp]
	mov	DWORD PTR [eax+12], ecx

; 63   : 	m_pWorldBuilderMapLoader = new CvDllWorldBuilderMapLoader();

	push	4
	call	??2CvDllWorldBuilderMapLoader@@SAPAXI@Z	; CvDllWorldBuilderMapLoader::operator new
	add	esp, 4
	mov	DWORD PTR $T226747[ebp], eax
	mov	BYTE PTR __$EHRec$[ebp+8], 9
	cmp	DWORD PTR $T226747[ebp], 0
	je	SHORT $LN9@CvDllGameC
	mov	ecx, DWORD PTR $T226747[ebp]
	call	??0CvDllWorldBuilderMapLoader@@QAE@XZ	; CvDllWorldBuilderMapLoader::CvDllWorldBuilderMapLoader
	mov	DWORD PTR tv156[ebp], eax
	jmp	SHORT $LN10@CvDllGameC
$LN9@CvDllGameC:
	mov	DWORD PTR tv156[ebp], 0
$LN10@CvDllGameC:
	mov	edx, DWORD PTR tv156[ebp]
	mov	DWORD PTR $T226746[ebp], edx
	mov	BYTE PTR __$EHRec$[ebp+8], 5
	mov	eax, DWORD PTR _this$[ebp]
	mov	ecx, DWORD PTR $T226746[ebp]
	mov	DWORD PTR [eax+16], ecx

; 64   : }

	mov	DWORD PTR __$EHRec$[ebp+8], -1
	mov	eax, DWORD PTR _this$[ebp]
	mov	ecx, DWORD PTR __$EHRec$[ebp]
	mov	DWORD PTR fs:0, ecx
	pop	ecx
	mov	esp, ebp
	pop	ebp
	ret	0
_TEXT	ENDS
;	COMDAT text$x
text$x	SEGMENT
__unwindfunclet$??0CvDllGameContext@@IAE@XZ$7:
	mov	ecx, DWORD PTR $T226851[ebp]
	jmp	??1?$_Vector_val@U?$pair@IPAVCvRandom@@@std@@V?$allocator@U?$pair@IPAVCvRandom@@@std@@@2@@std@@QAE@XZ
__unwindfunclet$??0CvDllGameContext@@IAE@XZ$0:
	mov	ecx, DWORD PTR _this$[ebp]
	add	ecx, 20					; 00000014H
	jmp	??1?$vector@U?$pair@IPAVCvRandom@@@std@@V?$allocator@U?$pair@IPAVCvRandom@@@std@@@2@@std@@QAE@XZ ; std::vector<std::pair<unsigned int,CvRandom *>,std::allocator<std::pair<unsigned int,CvRandom *> > >::~vector<std::pair<unsigned int,CvRandom *>,std::allocator<std::pair<unsigned int,CvRandom *> > >
__unwindfunclet$??0CvDllGameContext@@IAE@XZ$10:
	mov	ecx, DWORD PTR $T226917[ebp]
	jmp	??1?$_Vector_val@U?$pair@IPAVCvDllNetInitInfo@@@std@@V?$allocator@U?$pair@IPAVCvDllNetInitInfo@@@std@@@2@@std@@QAE@XZ
__unwindfunclet$??0CvDllGameContext@@IAE@XZ$1:
	mov	ecx, DWORD PTR _this$[ebp]
	add	ecx, 40					; 00000028H
	jmp	??1?$vector@U?$pair@IPAVCvDllNetInitInfo@@@std@@V?$allocator@U?$pair@IPAVCvDllNetInitInfo@@@std@@@2@@std@@QAE@XZ ; std::vector<std::pair<unsigned int,CvDllNetInitInfo *>,std::allocator<std::pair<unsigned int,CvDllNetInitInfo *> > >::~vector<std::pair<unsigned int,CvDllNetInitInfo *>,std::allocator<std::pair<unsigned int,CvDllNetInitInfo *> > >
__unwindfunclet$??0CvDllGameContext@@IAE@XZ$12:
	mov	ecx, DWORD PTR $T226983[ebp]
	jmp	??1?$_Vector_val@U?$pair@IPAVCvDllNetLoadGameInfo@@@std@@V?$allocator@U?$pair@IPAVCvDllNetLoadGameInfo@@@std@@@2@@std@@QAE@XZ
__unwindfunclet$??0CvDllGameContext@@IAE@XZ$2:
	mov	ecx, DWORD PTR _this$[ebp]
	add	ecx, 60					; 0000003cH
	jmp	??1?$vector@U?$pair@IPAVCvDllNetLoadGameInfo@@@std@@V?$allocator@U?$pair@IPAVCvDllNetLoadGameInfo@@@std@@@2@@std@@QAE@XZ ; std::vector<std::pair<unsigned int,CvDllNetLoadGameInfo *>,std::allocator<std::pair<unsigned int,CvDllNetLoadGameInfo *> > >::~vector<std::pair<unsigned int,CvDllNetLoadGameInfo *>,std::allocator<std::pair<unsigned int,CvDllNetLoadGameInfo *> > >
__unwindfunclet$??0CvDllGameContext@@IAE@XZ$3:
	mov	eax, DWORD PTR $T226735[ebp]
	push	eax
	call	??3CvDllNetworkSyncronization@@SAXPAX@Z	; CvDllNetworkSyncronization::operator delete
	pop	ecx
	ret	0
__unwindfunclet$??0CvDllGameContext@@IAE@XZ$4:
	mov	eax, DWORD PTR $T226739[ebp]
	push	eax
	call	??3CvDllNetMessageHandler@@SAXPAX@Z	; CvDllNetMessageHandler::operator delete
	pop	ecx
	ret	0
__unwindfunclet$??0CvDllGameContext@@IAE@XZ$5:
	mov	eax, DWORD PTR $T226743[ebp]
	push	eax
	call	??3CvDllScriptSystemUtility@@SAXPAX@Z	; CvDllScriptSystemUtility::operator delete
	pop	ecx
	ret	0
__unwindfunclet$??0CvDllGameContext@@IAE@XZ$6:
	mov	eax, DWORD PTR $T226747[ebp]
	push	eax
	call	??3CvDllWorldBuilderMapLoader@@SAXPAX@Z	; CvDllWorldBuilderMapLoader::operator delete
	pop	ecx
	ret	0
__ehhandler$??0CvDllGameContext@@IAE@XZ:
	mov	edx, DWORD PTR [esp+8]
	lea	eax, DWORD PTR [edx+12]
	mov	ecx, DWORD PTR [edx-232]
	xor	ecx, eax
	call	@__security_check_cookie@4
	mov	eax, OFFSET __ehfuncinfo$??0CvDllGameContext@@IAE@XZ
	jmp	___CxxFrameHandler3
text$x	ENDS
??0CvDllGameContext@@IAE@XZ ENDP			; CvDllGameContext::CvDllGameContext
PUBLIC	?_Tidy@?$vector@U?$pair@IPAVCvRandom@@@std@@V?$allocator@U?$pair@IPAVCvRandom@@@std@@@2@@std@@IAEXXZ ; std::vector<std::pair<unsigned int,CvRandom *>,std::allocator<std::pair<unsigned int,CvRandom *> > >::_Tidy
PUBLIC	?_Tidy@?$vector@U?$pair@IPAVCvDllNetInitInfo@@@std@@V?$allocator@U?$pair@IPAVCvDllNetInitInfo@@@std@@@2@@std@@IAEXXZ ; std::vector<std::pair<unsigned int,CvDllNetInitInfo *>,std::allocator<std::pair<unsigned int,CvDllNetInitInfo *> > >::_Tidy
PUBLIC	?_Tidy@?$vector@U?$pair@IPAVCvDllNetLoadGameInfo@@@std@@V?$allocator@U?$pair@IPAVCvDllNetLoadGameInfo@@@std@@@2@@std@@IAEXXZ ; std::vector<std::pair<unsigned int,CvDllNetLoadGameInfo *>,std::allocator<std::pair<unsigned int,CvDllNetLoadGameInfo *> > >::_Tidy
PUBLIC	?erase@?$vector@U?$pair@IPAVCvDllNetLoadGameInfo@@@std@@V?$allocator@U?$pair@IPAVCvDllNetLoadGameInfo@@@std@@@2@@std@@QAE?AV?$_Vector_iterator@U?$pair@IPAVCvDllNetLoadGameInfo@@@std@@V?$allocator@U?$pair@IPAVCvDllNetLoadGameInfo@@@std@@@2@@2@V?$_Vector_const_iterator@U?$pair@IPAVCvDllNetLoadGameInfo@@@std@@V?$allocator@U?$pair@IPAVCvDllNetLoadGameInfo@@@std@@@2@@2@0@Z ; std::vector<std::pair<unsigned int,CvDllNetLoadGameInfo *>,std::allocator<std::pair<unsigned int,CvDllNetLoadGameInfo *> > >::erase
PUBLIC	?erase@?$vector@U?$pair@IPAVCvDllNetInitInfo@@@std@@V?$allocator@U?$pair@IPAVCvDllNetInitInfo@@@std@@@2@@std@@QAE?AV?$_Vector_iterator@U?$pair@IPAVCvDllNetInitInfo@@@std@@V?$allocator@U?$pair@IPAVCvDllNetInitInfo@@@std@@@2@@2@V?$_Vector_const_iterator@U?$pair@IPAVCvDllNetInitInfo@@@std@@V?$allocator@U?$pair@IPAVCvDllNetInitInfo@@@std@@@2@@2@0@Z ; std::vector<std::pair<unsigned int,CvDllNetInitInfo *>,std::allocator<std::pair<unsigned int,CvDllNetInitInfo *> > >::erase
PUBLIC	?erase@?$vector@U?$pair@IPAVCvRandom@@@std@@V?$allocator@U?$pair@IPAVCvRandom@@@std@@@2@@std@@QAE?AV?$_Vector_iterator@U?$pair@IPAVCvRandom@@@std@@V?$allocator@U?$pair@IPAVCvRandom@@@std@@@2@@2@V?$_Vector_const_iterator@U?$pair@IPAVCvRandom@@@std@@V?$allocator@U?$pair@IPAVCvRandom@@@std@@@2@@2@0@Z ; std::vector<std::pair<unsigned int,CvRandom *>,std::allocator<std::pair<unsigned int,CvRandom *> > >::erase
PUBLIC	??1CvDllGameContext@@QAE@XZ			; CvDllGameContext::~CvDllGameContext
EXTRN	??3CvDllNetLoadGameInfo@@SAXPAX@Z:PROC		; CvDllNetLoadGameInfo::operator delete
EXTRN	??1CvDllNetLoadGameInfo@@QAE@XZ:PROC		; CvDllNetLoadGameInfo::~CvDllNetLoadGameInfo
EXTRN	??3CvDllNetInitInfo@@SAXPAX@Z:PROC		; CvDllNetInitInfo::operator delete
EXTRN	??1CvDllNetInitInfo@@QAE@XZ:PROC		; CvDllNetInitInfo::~CvDllNetInitInfo
EXTRN	??1CvDllWorldBuilderMapLoader@@QAE@XZ:PROC	; CvDllWorldBuilderMapLoader::~CvDllWorldBuilderMapLoader
EXTRN	??1CvDllScriptSystemUtility@@QAE@XZ:PROC	; CvDllScriptSystemUtility::~CvDllScriptSystemUtility
EXTRN	??1CvDllNetMessageHandler@@QAE@XZ:PROC		; CvDllNetMessageHandler::~CvDllNetMessageHandler
EXTRN	??1CvDllNetworkSyncronization@@QAE@XZ:PROC	; CvDllNetworkSyncronization::~CvDllNetworkSyncronization
;	COMDAT xdata$x
; File c:\program files (x86)\microsoft visual studio 9.0\vc\include\xutility
xdata$x	SEGMENT
__ehfuncinfo$??1CvDllGameContext@@QAE@XZ DD 019930522H
	DD	06H
	DD	FLAT:__unwindtable$??1CvDllGameContext@@QAE@XZ
	DD	2 DUP(00H)
	DD	2 DUP(00H)
	DD	00H
	DD	01H
__unwindtable$??1CvDllGameContext@@QAE@XZ DD 0ffffffffH
	DD	FLAT:__unwindfunclet$??1CvDllGameContext@@QAE@XZ$0
	DD	00H
	DD	FLAT:__unwindfunclet$??1CvDllGameContext@@QAE@XZ$1
	DD	01H
	DD	FLAT:__unwindfunclet$??1CvDllGameContext@@QAE@XZ$2
	DD	01H
	DD	FLAT:__unwindfunclet$??1CvDllGameContext@@QAE@XZ$3
	DD	00H
	DD	FLAT:__unwindfunclet$??1CvDllGameContext@@QAE@XZ$5
	DD	0ffffffffH
	DD	FLAT:__unwindfunclet$??1CvDllGameContext@@QAE@XZ$7
; Function compile flags: /Odtp
; File d:\sources\lekmod_git\checkout\lekmod_dll\cvgamecoredll_expansion2\cvdllcontext.cpp
xdata$x	ENDS
;	COMDAT ??1CvDllGameContext@@QAE@XZ
_TEXT	SEGMENT
tv229 = -404						; size = 4
tv195 = -400						; size = 4
tv161 = -396						; size = 4
tv130 = -392						; size = 4
tv92 = -388						; size = 4
tv86 = -384						; size = 4
tv80 = -380						; size = 4
_this$ = -376						; size = 4
$T227825 = -372						; size = 4
$T227739 = -336						; size = 4
$T227653 = -300						; size = 4
$T227567 = -264						; size = 4
$T227415 = -208						; size = 4
$T227399 = -204						; size = 4
$T227553 = -200						; size = 4
$T227552 = -196						; size = 4
$T227551 = -192						; size = 4
$T227550 = -188						; size = 4
$T227549 = -184						; size = 4
$T227342 = -180						; size = 4
$T227318 = -176						; size = 4
$T227308 = -172						; size = 4
$T227282 = -168						; size = 4
$T227266 = -164						; size = 4
$T227295 = -160						; size = 4
$T227294 = -156						; size = 4
$T227293 = -152						; size = 4
$T227292 = -148						; size = 4
$T227291 = -144						; size = 4
$T227209 = -140						; size = 4
$T227185 = -136						; size = 4
$T227175 = -132						; size = 4
$T227149 = -128						; size = 4
$T227133 = -124						; size = 4
$T227162 = -120						; size = 4
$T227161 = -116						; size = 4
$T227160 = -112						; size = 4
$T227159 = -108						; size = 4
$T227158 = -104						; size = 4
$T227080 = -100						; size = 4
$T227056 = -96						; size = 4
$T227025 = -92						; size = 4
$T227024 = -88						; size = 4
$T227023 = -84						; size = 4
$T227020 = -80						; size = 4
$T227019 = -76						; size = 4
$T227018 = -72						; size = 4
$T227015 = -68						; size = 4
$T227014 = -64						; size = 4
$T227013 = -60						; size = 4
$T227010 = -56						; size = 4
$T227009 = -52						; size = 4
$T227006 = -48						; size = 4
$T227005 = -44						; size = 4
$T227002 = -40						; size = 4
$T227001 = -36						; size = 4
$T226998 = -32						; size = 4
$T226997 = -28						; size = 4
_it$221689 = -24					; size = 4
_it$221502 = -20					; size = 4
_it$221315 = -16					; size = 4
__$EHRec$ = -12						; size = 12
??1CvDllGameContext@@QAE@XZ PROC			; CvDllGameContext::~CvDllGameContext, COMDAT
; _this$ = ecx

; 67   : {

	push	ebp
	mov	ebp, esp
	push	-1
	push	__ehhandler$??1CvDllGameContext@@QAE@XZ
	mov	eax, DWORD PTR fs:0
	push	eax
	sub	esp, 392				; 00000188H
	mov	eax, DWORD PTR ___security_cookie
	xor	eax, ebp
	push	eax
	lea	eax, DWORD PTR __$EHRec$[ebp]
	mov	DWORD PTR fs:0, eax
	mov	DWORD PTR _this$[ebp], ecx
	mov	eax, DWORD PTR _this$[ebp]
	mov	DWORD PTR [eax], OFFSET ??_7CvDllGameContext@@6B@
	mov	DWORD PTR __$EHRec$[ebp+8], 2

; 68   : 	delete m_pNetworkSyncronizer;

	mov	ecx, DWORD PTR _this$[ebp]
	mov	edx, DWORD PTR [ecx+4]
	mov	DWORD PTR $T226998[ebp], edx
	mov	eax, DWORD PTR $T226998[ebp]
	mov	DWORD PTR $T226997[ebp], eax
	cmp	DWORD PTR $T226997[ebp], 0
	je	SHORT $LN12@CvDllGameC@2
	mov	ecx, DWORD PTR $T226997[ebp]
	call	??1CvDllNetworkSyncronization@@QAE@XZ	; CvDllNetworkSyncronization::~CvDllNetworkSyncronization
	mov	ecx, 1
	and	ecx, 1
	je	SHORT $LN30@CvDllGameC@2
	mov	edx, DWORD PTR $T226997[ebp]
	push	edx
	call	??3CvDllNetworkSyncronization@@SAXPAX@Z	; CvDllNetworkSyncronization::operator delete
	add	esp, 4
$LN30@CvDllGameC@2:
	mov	eax, DWORD PTR $T226997[ebp]
	mov	DWORD PTR tv80[ebp], eax
	jmp	SHORT $LN13@CvDllGameC@2
$LN12@CvDllGameC@2:
	mov	DWORD PTR tv80[ebp], 0
$LN13@CvDllGameC@2:

; 69   : 	delete m_pNetMessageHandler;

	mov	ecx, DWORD PTR _this$[ebp]
	mov	edx, DWORD PTR [ecx+8]
	mov	DWORD PTR $T227002[ebp], edx
	mov	eax, DWORD PTR $T227002[ebp]
	mov	DWORD PTR $T227001[ebp], eax
	cmp	DWORD PTR $T227001[ebp], 0
	je	SHORT $LN14@CvDllGameC@2
	mov	ecx, DWORD PTR $T227001[ebp]
	call	??1CvDllNetMessageHandler@@QAE@XZ	; CvDllNetMessageHandler::~CvDllNetMessageHandler
	mov	ecx, 1
	and	ecx, 1
	je	SHORT $LN33@CvDllGameC@2
	mov	edx, DWORD PTR $T227001[ebp]
	push	edx
	call	??3CvDllNetMessageHandler@@SAXPAX@Z	; CvDllNetMessageHandler::operator delete
	add	esp, 4
$LN33@CvDllGameC@2:
	mov	eax, DWORD PTR $T227001[ebp]
	mov	DWORD PTR tv86[ebp], eax
	jmp	SHORT $LN15@CvDllGameC@2
$LN14@CvDllGameC@2:
	mov	DWORD PTR tv86[ebp], 0
$LN15@CvDllGameC@2:

; 70   : 	delete m_pScriptSystemUtility;

	mov	ecx, DWORD PTR _this$[ebp]
	mov	edx, DWORD PTR [ecx+12]
	mov	DWORD PTR $T227006[ebp], edx
	mov	eax, DWORD PTR $T227006[ebp]
	mov	DWORD PTR $T227005[ebp], eax
	cmp	DWORD PTR $T227005[ebp], 0
	je	SHORT $LN16@CvDllGameC@2
	mov	ecx, DWORD PTR $T227005[ebp]
	call	??1CvDllScriptSystemUtility@@QAE@XZ	; CvDllScriptSystemUtility::~CvDllScriptSystemUtility
	mov	ecx, 1
	and	ecx, 1
	je	SHORT $LN36@CvDllGameC@2
	mov	edx, DWORD PTR $T227005[ebp]
	push	edx
	call	??3CvDllScriptSystemUtility@@SAXPAX@Z	; CvDllScriptSystemUtility::operator delete
	add	esp, 4
$LN36@CvDllGameC@2:
	mov	eax, DWORD PTR $T227005[ebp]
	mov	DWORD PTR tv92[ebp], eax
	jmp	SHORT $LN17@CvDllGameC@2
$LN16@CvDllGameC@2:
	mov	DWORD PTR tv92[ebp], 0
$LN17@CvDllGameC@2:

; 71   : 	delete m_pWorldBuilderMapLoader;

	mov	ecx, DWORD PTR _this$[ebp]
	mov	edx, DWORD PTR [ecx+16]
	mov	DWORD PTR $T227010[ebp], edx
	mov	eax, DWORD PTR $T227010[ebp]
	mov	DWORD PTR $T227009[ebp], eax
	cmp	DWORD PTR $T227009[ebp], 0
	je	SHORT $LN18@CvDllGameC@2
	mov	ecx, DWORD PTR $T227009[ebp]
	call	??1CvDllWorldBuilderMapLoader@@QAE@XZ	; CvDllWorldBuilderMapLoader::~CvDllWorldBuilderMapLoader
	mov	ecx, 1
	and	ecx, 1
	je	SHORT $LN39@CvDllGameC@2
	mov	edx, DWORD PTR $T227009[ebp]
	push	edx
	call	??3CvDllWorldBuilderMapLoader@@SAXPAX@Z	; CvDllWorldBuilderMapLoader::operator delete
	add	esp, 4
$LN39@CvDllGameC@2:
	mov	eax, DWORD PTR $T227009[ebp]
	mov	DWORD PTR tv130[ebp], eax
	jmp	SHORT $LN19@CvDllGameC@2
$LN18@CvDllGameC@2:
	mov	DWORD PTR tv130[ebp], 0
$LN19@CvDllGameC@2:

; 72   : 
; 73   : 	for(std::vector<std::pair<uint, CvRandom*> >::iterator it = m_RandomNumberGenerators.begin();

	mov	ecx, DWORD PTR _this$[ebp]
	mov	edx, DWORD PTR [ecx+24]
	mov	DWORD PTR $T227056[ebp], edx
	mov	eax, DWORD PTR $T227056[ebp]
	mov	DWORD PTR _it$221315[ebp], eax

; 74   : 	        it != m_RandomNumberGenerators.end(); ++it)

	jmp	SHORT $LN9@CvDllGameC@2
$LN8@CvDllGameC@2:
	mov	ecx, DWORD PTR _it$221315[ebp]
	add	ecx, 8
	mov	DWORD PTR _it$221315[ebp], ecx
$LN9@CvDllGameC@2:
	mov	edx, DWORD PTR _this$[ebp]
	mov	eax, DWORD PTR [edx+28]
	mov	DWORD PTR $T227080[ebp], eax
	mov	ecx, DWORD PTR $T227080[ebp]
	mov	DWORD PTR $T227013[ebp], ecx
	mov	edx, DWORD PTR _it$221315[ebp]
	xor	eax, eax
	cmp	edx, DWORD PTR $T227013[ebp]
	sete	al
	movzx	ecx, al
	neg	ecx
	sbb	ecx, ecx
	add	ecx, 1
	movzx	edx, cl
	test	edx, edx
	je	SHORT $LN7@CvDllGameC@2

; 75   : 	{
; 76   : 		delete(*it).second;

	mov	eax, DWORD PTR _it$221315[ebp]
	mov	ecx, DWORD PTR [eax+4]
	mov	DWORD PTR $T227015[ebp], ecx
	mov	edx, DWORD PTR $T227015[ebp]
	mov	DWORD PTR $T227014[ebp], edx
	cmp	DWORD PTR $T227014[ebp], 0
	je	SHORT $LN20@CvDllGameC@2
	push	1
	mov	eax, DWORD PTR $T227014[ebp]
	mov	edx, DWORD PTR [eax]
	mov	ecx, DWORD PTR $T227014[ebp]
	mov	eax, DWORD PTR [edx]
	call	eax
	mov	DWORD PTR tv161[ebp], eax
	jmp	SHORT $LN65@CvDllGameC@2
$LN20@CvDllGameC@2:
	mov	DWORD PTR tv161[ebp], 0

; 77   : 		it->second = NULL;

$LN65@CvDllGameC@2:
	mov	ecx, DWORD PTR _it$221315[ebp]
	mov	DWORD PTR [ecx+4], 0

; 78   : 	}

	jmp	SHORT $LN8@CvDllGameC@2
$LN7@CvDllGameC@2:

; 79   : 	m_RandomNumberGenerators.clear();

	mov	edx, DWORD PTR _this$[ebp]
	add	edx, 20					; 00000014H
	mov	DWORD PTR $T227175[ebp], edx
	mov	eax, DWORD PTR $T227175[ebp]
	mov	ecx, DWORD PTR [eax+8]
	mov	DWORD PTR $T227133[ebp], ecx
	mov	edx, DWORD PTR $T227133[ebp]
	mov	DWORD PTR $T227159[ebp], edx
	mov	eax, DWORD PTR $T227159[ebp]
	mov	DWORD PTR $T227158[ebp], eax
	mov	ecx, DWORD PTR $T227175[ebp]
	mov	edx, DWORD PTR [ecx+4]
	mov	DWORD PTR $T227149[ebp], edx
	mov	eax, DWORD PTR $T227149[ebp]
	mov	DWORD PTR $T227161[ebp], eax
	mov	ecx, DWORD PTR $T227161[ebp]
	mov	DWORD PTR $T227160[ebp], ecx
	mov	edx, DWORD PTR $T227158[ebp]
	push	edx
	mov	eax, DWORD PTR $T227160[ebp]
	push	eax
	lea	ecx, DWORD PTR $T227162[ebp]
	push	ecx
	mov	ecx, DWORD PTR $T227175[ebp]
	call	?erase@?$vector@U?$pair@IPAVCvRandom@@@std@@V?$allocator@U?$pair@IPAVCvRandom@@@std@@@2@@std@@QAE?AV?$_Vector_iterator@U?$pair@IPAVCvRandom@@@std@@V?$allocator@U?$pair@IPAVCvRandom@@@std@@@2@@2@V?$_Vector_const_iterator@U?$pair@IPAVCvRandom@@@std@@V?$allocator@U?$pair@IPAVCvRandom@@@std@@@2@@2@0@Z ; std::vector<std::pair<unsigned int,CvRandom *>,std::allocator<std::pair<unsigned int,CvRandom *> > >::erase

; 80   : 
; 81   : 	for(std::vector<std::pair<uint, CvDllNetInitInfo*> >::iterator it = m_NetInitInfos.begin();

	mov	edx, DWORD PTR _this$[ebp]
	mov	eax, DWORD PTR [edx+44]
	mov	DWORD PTR $T227185[ebp], eax
	mov	ecx, DWORD PTR $T227185[ebp]
	mov	DWORD PTR _it$221502[ebp], ecx

; 82   : 	        it != m_NetInitInfos.end(); ++it)

	jmp	SHORT $LN6@CvDllGameC@2
$LN5@CvDllGameC@2:
	mov	edx, DWORD PTR _it$221502[ebp]
	add	edx, 8
	mov	DWORD PTR _it$221502[ebp], edx
$LN6@CvDllGameC@2:
	mov	eax, DWORD PTR _this$[ebp]
	mov	ecx, DWORD PTR [eax+48]
	mov	DWORD PTR $T227209[ebp], ecx
	mov	edx, DWORD PTR $T227209[ebp]
	mov	DWORD PTR $T227018[ebp], edx
	mov	eax, DWORD PTR _it$221502[ebp]
	xor	ecx, ecx
	cmp	eax, DWORD PTR $T227018[ebp]
	sete	cl
	movzx	edx, cl
	neg	edx
	sbb	edx, edx
	add	edx, 1
	movzx	eax, dl
	test	eax, eax
	je	SHORT $LN4@CvDllGameC@2

; 83   : 	{
; 84   : 		delete(*it).second;

	mov	ecx, DWORD PTR _it$221502[ebp]
	mov	edx, DWORD PTR [ecx+4]
	mov	DWORD PTR $T227020[ebp], edx
	mov	eax, DWORD PTR $T227020[ebp]
	mov	DWORD PTR $T227019[ebp], eax
	cmp	DWORD PTR $T227019[ebp], 0
	je	SHORT $LN22@CvDllGameC@2
	mov	ecx, DWORD PTR $T227019[ebp]
	call	??1CvDllNetInitInfo@@QAE@XZ		; CvDllNetInitInfo::~CvDllNetInitInfo
	mov	ecx, 1
	and	ecx, 1
	je	SHORT $LN110@CvDllGameC@2
	mov	edx, DWORD PTR $T227019[ebp]
	push	edx
	call	??3CvDllNetInitInfo@@SAXPAX@Z		; CvDllNetInitInfo::operator delete
	add	esp, 4
$LN110@CvDllGameC@2:
	mov	eax, DWORD PTR $T227019[ebp]
	mov	DWORD PTR tv195[ebp], eax
	jmp	SHORT $LN112@CvDllGameC@2
$LN22@CvDllGameC@2:
	mov	DWORD PTR tv195[ebp], 0

; 85   : 		it->second = NULL;

$LN112@CvDllGameC@2:
	mov	ecx, DWORD PTR _it$221502[ebp]
	mov	DWORD PTR [ecx+4], 0

; 86   : 	}

	jmp	$LN5@CvDllGameC@2
$LN4@CvDllGameC@2:

; 87   : 	m_NetInitInfos.clear();

	mov	edx, DWORD PTR _this$[ebp]
	add	edx, 40					; 00000028H
	mov	DWORD PTR $T227308[ebp], edx
	mov	eax, DWORD PTR $T227308[ebp]
	mov	ecx, DWORD PTR [eax+8]
	mov	DWORD PTR $T227266[ebp], ecx
	mov	edx, DWORD PTR $T227266[ebp]
	mov	DWORD PTR $T227292[ebp], edx
	mov	eax, DWORD PTR $T227292[ebp]
	mov	DWORD PTR $T227291[ebp], eax
	mov	ecx, DWORD PTR $T227308[ebp]
	mov	edx, DWORD PTR [ecx+4]
	mov	DWORD PTR $T227282[ebp], edx
	mov	eax, DWORD PTR $T227282[ebp]
	mov	DWORD PTR $T227294[ebp], eax
	mov	ecx, DWORD PTR $T227294[ebp]
	mov	DWORD PTR $T227293[ebp], ecx
	mov	edx, DWORD PTR $T227291[ebp]
	push	edx
	mov	eax, DWORD PTR $T227293[ebp]
	push	eax
	lea	ecx, DWORD PTR $T227295[ebp]
	push	ecx
	mov	ecx, DWORD PTR $T227308[ebp]
	call	?erase@?$vector@U?$pair@IPAVCvDllNetInitInfo@@@std@@V?$allocator@U?$pair@IPAVCvDllNetInitInfo@@@std@@@2@@std@@QAE?AV?$_Vector_iterator@U?$pair@IPAVCvDllNetInitInfo@@@std@@V?$allocator@U?$pair@IPAVCvDllNetInitInfo@@@std@@@2@@2@V?$_Vector_const_iterator@U?$pair@IPAVCvDllNetInitInfo@@@std@@V?$allocator@U?$pair@IPAVCvDllNetInitInfo@@@std@@@2@@2@0@Z ; std::vector<std::pair<unsigned int,CvDllNetInitInfo *>,std::allocator<std::pair<unsigned int,CvDllNetInitInfo *> > >::erase

; 88   : 
; 89   : 
; 90   : 	for(std::vector<std::pair<uint, CvDllNetLoadGameInfo*> >::iterator it = m_NetLoadGameInfos.begin();

	mov	edx, DWORD PTR _this$[ebp]
	mov	eax, DWORD PTR [edx+64]
	mov	DWORD PTR $T227318[ebp], eax
	mov	ecx, DWORD PTR $T227318[ebp]
	mov	DWORD PTR _it$221689[ebp], ecx

; 91   : 	        it != m_NetLoadGameInfos.end(); ++it)

	jmp	SHORT $LN3@CvDllGameC@2
$LN2@CvDllGameC@2:
	mov	edx, DWORD PTR _it$221689[ebp]
	add	edx, 8
	mov	DWORD PTR _it$221689[ebp], edx
$LN3@CvDllGameC@2:
	mov	eax, DWORD PTR _this$[ebp]
	mov	ecx, DWORD PTR [eax+68]
	mov	DWORD PTR $T227342[ebp], ecx
	mov	edx, DWORD PTR $T227342[ebp]
	mov	DWORD PTR $T227023[ebp], edx
	mov	eax, DWORD PTR _it$221689[ebp]
	xor	ecx, ecx
	cmp	eax, DWORD PTR $T227023[ebp]
	sete	cl
	movzx	edx, cl
	neg	edx
	sbb	edx, edx
	add	edx, 1
	movzx	eax, dl
	test	eax, eax
	je	SHORT $LN1@CvDllGameC@2

; 92   : 	{
; 93   : 		delete(*it).second;

	mov	ecx, DWORD PTR _it$221689[ebp]
	mov	edx, DWORD PTR [ecx+4]
	mov	DWORD PTR $T227025[ebp], edx
	mov	eax, DWORD PTR $T227025[ebp]
	mov	DWORD PTR $T227024[ebp], eax
	cmp	DWORD PTR $T227024[ebp], 0
	je	SHORT $LN24@CvDllGameC@2
	mov	ecx, DWORD PTR $T227024[ebp]
	call	??1CvDllNetLoadGameInfo@@QAE@XZ		; CvDllNetLoadGameInfo::~CvDllNetLoadGameInfo
	mov	ecx, 1
	and	ecx, 1
	je	SHORT $LN157@CvDllGameC@2
	mov	edx, DWORD PTR $T227024[ebp]
	push	edx
	call	??3CvDllNetLoadGameInfo@@SAXPAX@Z	; CvDllNetLoadGameInfo::operator delete
	add	esp, 4
$LN157@CvDllGameC@2:
	mov	eax, DWORD PTR $T227024[ebp]
	mov	DWORD PTR tv229[ebp], eax
	jmp	SHORT $LN159@CvDllGameC@2
$LN24@CvDllGameC@2:
	mov	DWORD PTR tv229[ebp], 0

; 94   : 		it->second = NULL;

$LN159@CvDllGameC@2:
	mov	ecx, DWORD PTR _it$221689[ebp]
	mov	DWORD PTR [ecx+4], 0

; 95   : 	}

	jmp	$LN2@CvDllGameC@2
$LN1@CvDllGameC@2:

; 96   : 	m_NetLoadGameInfos.clear();

	mov	edx, DWORD PTR _this$[ebp]
	add	edx, 60					; 0000003cH
	mov	DWORD PTR $T227567[ebp], edx
	mov	eax, DWORD PTR $T227567[ebp]
	mov	ecx, DWORD PTR [eax+8]
	mov	DWORD PTR $T227399[ebp], ecx
	mov	edx, DWORD PTR $T227399[ebp]
	mov	DWORD PTR $T227550[ebp], edx
	mov	eax, DWORD PTR $T227550[ebp]
	mov	DWORD PTR $T227549[ebp], eax
	mov	ecx, DWORD PTR $T227567[ebp]
	mov	edx, DWORD PTR [ecx+4]
	mov	DWORD PTR $T227415[ebp], edx
	mov	eax, DWORD PTR $T227415[ebp]
	mov	DWORD PTR $T227552[ebp], eax
	mov	ecx, DWORD PTR $T227552[ebp]
	mov	DWORD PTR $T227551[ebp], ecx
	mov	edx, DWORD PTR $T227549[ebp]
	push	edx
	mov	eax, DWORD PTR $T227551[ebp]
	push	eax
	lea	ecx, DWORD PTR $T227553[ebp]
	push	ecx
	mov	ecx, DWORD PTR $T227567[ebp]
	call	?erase@?$vector@U?$pair@IPAVCvDllNetLoadGameInfo@@@std@@V?$allocator@U?$pair@IPAVCvDllNetLoadGameInfo@@@std@@@2@@std@@QAE?AV?$_Vector_iterator@U?$pair@IPAVCvDllNetLoadGameInfo@@@std@@V?$allocator@U?$pair@IPAVCvDllNetLoadGameInfo@@@std@@@2@@2@V?$_Vector_const_iterator@U?$pair@IPAVCvDllNetLoadGameInfo@@@std@@V?$allocator@U?$pair@IPAVCvDllNetLoadGameInfo@@@std@@@2@@2@0@Z ; std::vector<std::pair<unsigned int,CvDllNetLoadGameInfo *>,std::allocator<std::pair<unsigned int,CvDllNetLoadGameInfo *> > >::erase

; 97   : }

	mov	BYTE PTR __$EHRec$[ebp+8], 1
	mov	edx, DWORD PTR _this$[ebp]
	add	edx, 60					; 0000003cH
	mov	DWORD PTR $T227653[ebp], edx
	mov	BYTE PTR __$EHRec$[ebp+8], 3
	mov	ecx, DWORD PTR $T227653[ebp]
	call	?_Tidy@?$vector@U?$pair@IPAVCvDllNetLoadGameInfo@@@std@@V?$allocator@U?$pair@IPAVCvDllNetLoadGameInfo@@@std@@@2@@std@@IAEXXZ ; std::vector<std::pair<unsigned int,CvDllNetLoadGameInfo *>,std::allocator<std::pair<unsigned int,CvDllNetLoadGameInfo *> > >::_Tidy
	mov	BYTE PTR __$EHRec$[ebp+8], 1
	mov	BYTE PTR __$EHRec$[ebp+8], 0
	mov	eax, DWORD PTR _this$[ebp]
	add	eax, 40					; 00000028H
	mov	DWORD PTR $T227739[ebp], eax
	mov	BYTE PTR __$EHRec$[ebp+8], 4
	mov	ecx, DWORD PTR $T227739[ebp]
	call	?_Tidy@?$vector@U?$pair@IPAVCvDllNetInitInfo@@@std@@V?$allocator@U?$pair@IPAVCvDllNetInitInfo@@@std@@@2@@std@@IAEXXZ ; std::vector<std::pair<unsigned int,CvDllNetInitInfo *>,std::allocator<std::pair<unsigned int,CvDllNetInitInfo *> > >::_Tidy
	mov	BYTE PTR __$EHRec$[ebp+8], 0
	mov	DWORD PTR __$EHRec$[ebp+8], -1
	mov	ecx, DWORD PTR _this$[ebp]
	add	ecx, 20					; 00000014H
	mov	DWORD PTR $T227825[ebp], ecx
	mov	DWORD PTR __$EHRec$[ebp+8], 5
	mov	ecx, DWORD PTR $T227825[ebp]
	call	?_Tidy@?$vector@U?$pair@IPAVCvRandom@@@std@@V?$allocator@U?$pair@IPAVCvRandom@@@std@@@2@@std@@IAEXXZ ; std::vector<std::pair<unsigned int,CvRandom *>,std::allocator<std::pair<unsigned int,CvRandom *> > >::_Tidy
	mov	DWORD PTR __$EHRec$[ebp+8], -1
	mov	ecx, DWORD PTR __$EHRec$[ebp]
	mov	DWORD PTR fs:0, ecx
	pop	ecx
	mov	esp, ebp
	pop	ebp
	ret	0
_TEXT	ENDS
;	COMDAT text$x
text$x	SEGMENT
__unwindfunclet$??1CvDllGameContext@@QAE@XZ$0:
	mov	ecx, DWORD PTR _this$[ebp]
	add	ecx, 20					; 00000014H
	jmp	??1?$vector@U?$pair@IPAVCvRandom@@@std@@V?$allocator@U?$pair@IPAVCvRandom@@@std@@@2@@std@@QAE@XZ ; std::vector<std::pair<unsigned int,CvRandom *>,std::allocator<std::pair<unsigned int,CvRandom *> > >::~vector<std::pair<unsigned int,CvRandom *>,std::allocator<std::pair<unsigned int,CvRandom *> > >
__unwindfunclet$??1CvDllGameContext@@QAE@XZ$1:
	mov	ecx, DWORD PTR _this$[ebp]
	add	ecx, 40					; 00000028H
	jmp	??1?$vector@U?$pair@IPAVCvDllNetInitInfo@@@std@@V?$allocator@U?$pair@IPAVCvDllNetInitInfo@@@std@@@2@@std@@QAE@XZ ; std::vector<std::pair<unsigned int,CvDllNetInitInfo *>,std::allocator<std::pair<unsigned int,CvDllNetInitInfo *> > >::~vector<std::pair<unsigned int,CvDllNetInitInfo *>,std::allocator<std::pair<unsigned int,CvDllNetInitInfo *> > >
__unwindfunclet$??1CvDllGameContext@@QAE@XZ$2:
	mov	ecx, DWORD PTR _this$[ebp]
	add	ecx, 60					; 0000003cH
	jmp	??1?$vector@U?$pair@IPAVCvDllNetLoadGameInfo@@@std@@V?$allocator@U?$pair@IPAVCvDllNetLoadGameInfo@@@std@@@2@@std@@QAE@XZ ; std::vector<std::pair<unsigned int,CvDllNetLoadGameInfo *>,std::allocator<std::pair<unsigned int,CvDllNetLoadGameInfo *> > >::~vector<std::pair<unsigned int,CvDllNetLoadGameInfo *>,std::allocator<std::pair<unsigned int,CvDllNetLoadGameInfo *> > >
__unwindfunclet$??1CvDllGameContext@@QAE@XZ$3:
	mov	ecx, DWORD PTR $T227653[ebp]
	jmp	??1?$_Vector_val@U?$pair@IPAVCvDllNetLoadGameInfo@@@std@@V?$allocator@U?$pair@IPAVCvDllNetLoadGameInfo@@@std@@@2@@std@@QAE@XZ
__unwindfunclet$??1CvDllGameContext@@QAE@XZ$5:
	mov	ecx, DWORD PTR $T227739[ebp]
	jmp	??1?$_Vector_val@U?$pair@IPAVCvDllNetInitInfo@@@std@@V?$allocator@U?$pair@IPAVCvDllNetInitInfo@@@std@@@2@@std@@QAE@XZ
__unwindfunclet$??1CvDllGameContext@@QAE@XZ$7:
	mov	ecx, DWORD PTR $T227825[ebp]
	jmp	??1?$_Vector_val@U?$pair@IPAVCvRandom@@@std@@V?$allocator@U?$pair@IPAVCvRandom@@@std@@@2@@std@@QAE@XZ
__ehhandler$??1CvDllGameContext@@QAE@XZ:
	mov	edx, DWORD PTR [esp+8]
	lea	eax, DWORD PTR [edx+12]
	mov	ecx, DWORD PTR [edx-396]
	xor	ecx, eax
	call	@__security_check_cookie@4
	mov	eax, OFFSET __ehfuncinfo$??1CvDllGameContext@@QAE@XZ
	jmp	___CxxFrameHandler3
text$x	ENDS
??1CvDllGameContext@@QAE@XZ ENDP			; CvDllGameContext::~CvDllGameContext
; Function compile flags: /Odtp
;	COMDAT ?QueryInterface@CvDllGameContext@@UAGPAXU_GUID@@@Z
_TEXT	SEGMENT
tv145 = -168						; size = 4
tv264 = -164						; size = 4
tv140 = -160						; size = 4
tv208 = -156						; size = 4
tv135 = -152						; size = 4
tv184 = -148						; size = 4
tv130 = -144						; size = 4
tv160 = -140						; size = 4
$T227842 = -136						; size = 16
$T227841 = -120						; size = 16
$T227840 = -104						; size = 16
$T227839 = -88						; size = 16
$T227838 = -72						; size = 16
$T227837 = -56						; size = 16
$T227836 = -40						; size = 16
$T227835 = -20						; size = 16
_this$ = 8						; size = 4
_guidInterface$ = 12					; size = 16
?QueryInterface@CvDllGameContext@@UAGPAXU_GUID@@@Z PROC	; CvDllGameContext::QueryInterface, COMDAT

; 100  : {

	push	ebp
	mov	ebp, esp
	sub	esp, 168				; 000000a8H
	push	esi
	push	edi

; 101  : 	if(	guidInterface == ICvUnknown::GetInterfaceId() ||
; 102  :         guidInterface == ICvGameContext1::GetInterfaceId() ||
; 103  : 		guidInterface == ICvGameContext2::GetInterfaceId() ||
; 104  : 		guidInterface == ICvGameContext3::GetInterfaceId())

	mov	eax, DWORD PTR _guidICvUnknown
	mov	DWORD PTR $T227836[ebp], eax
	mov	ecx, DWORD PTR _guidICvUnknown+4
	mov	DWORD PTR $T227836[ebp+4], ecx
	mov	edx, DWORD PTR _guidICvUnknown+8
	mov	DWORD PTR $T227836[ebp+8], edx
	mov	eax, DWORD PTR _guidICvUnknown+12
	mov	DWORD PTR $T227836[ebp+12], eax
	mov	ecx, DWORD PTR $T227836[ebp]
	mov	DWORD PTR $T227835[ebp], ecx
	mov	edx, DWORD PTR $T227836[ebp+4]
	mov	DWORD PTR $T227835[ebp+4], edx
	mov	eax, DWORD PTR $T227836[ebp+8]
	mov	DWORD PTR $T227835[ebp+8], eax
	mov	ecx, DWORD PTR $T227836[ebp+12]
	mov	DWORD PTR $T227835[ebp+12], ecx
	mov	ecx, 16					; 00000010H
	lea	edi, DWORD PTR $T227835[ebp]
	lea	esi, DWORD PTR _guidInterface$[ebp]
	xor	edx, edx
	mov	DWORD PTR tv160[ebp], edx
	repe cmpsb
	je	SHORT $LN29@QueryInter
	sbb	eax, eax
	sbb	eax, -1
	mov	DWORD PTR tv160[ebp], eax
$LN29@QueryInter:
	mov	ecx, DWORD PTR tv160[ebp]
	mov	DWORD PTR tv130[ebp], ecx
	xor	edx, edx
	cmp	DWORD PTR tv130[ebp], 0
	sete	dl
	test	edx, edx
	jne	$LN1@QueryInter
	mov	eax, DWORD PTR _guidICvGameContext1
	mov	DWORD PTR $T227838[ebp], eax
	mov	ecx, DWORD PTR _guidICvGameContext1+4
	mov	DWORD PTR $T227838[ebp+4], ecx
	mov	edx, DWORD PTR _guidICvGameContext1+8
	mov	DWORD PTR $T227838[ebp+8], edx
	mov	eax, DWORD PTR _guidICvGameContext1+12
	mov	DWORD PTR $T227838[ebp+12], eax
	mov	ecx, DWORD PTR $T227838[ebp]
	mov	DWORD PTR $T227837[ebp], ecx
	mov	edx, DWORD PTR $T227838[ebp+4]
	mov	DWORD PTR $T227837[ebp+4], edx
	mov	eax, DWORD PTR $T227838[ebp+8]
	mov	DWORD PTR $T227837[ebp+8], eax
	mov	ecx, DWORD PTR $T227838[ebp+12]
	mov	DWORD PTR $T227837[ebp+12], ecx
	mov	ecx, 16					; 00000010H
	lea	edi, DWORD PTR $T227837[ebp]
	lea	esi, DWORD PTR _guidInterface$[ebp]
	xor	edx, edx
	mov	DWORD PTR tv184[ebp], edx
	repe cmpsb
	je	SHORT $LN30@QueryInter
	sbb	eax, eax
	sbb	eax, -1
	mov	DWORD PTR tv184[ebp], eax
$LN30@QueryInter:
	mov	ecx, DWORD PTR tv184[ebp]
	mov	DWORD PTR tv135[ebp], ecx
	xor	edx, edx
	cmp	DWORD PTR tv135[ebp], 0
	sete	dl
	test	edx, edx
	jne	$LN1@QueryInter
	mov	eax, DWORD PTR _guidICvGameContext2
	mov	DWORD PTR $T227840[ebp], eax
	mov	ecx, DWORD PTR _guidICvGameContext2+4
	mov	DWORD PTR $T227840[ebp+4], ecx
	mov	edx, DWORD PTR _guidICvGameContext2+8
	mov	DWORD PTR $T227840[ebp+8], edx
	mov	eax, DWORD PTR _guidICvGameContext2+12
	mov	DWORD PTR $T227840[ebp+12], eax
	mov	ecx, DWORD PTR $T227840[ebp]
	mov	DWORD PTR $T227839[ebp], ecx
	mov	edx, DWORD PTR $T227840[ebp+4]
	mov	DWORD PTR $T227839[ebp+4], edx
	mov	eax, DWORD PTR $T227840[ebp+8]
	mov	DWORD PTR $T227839[ebp+8], eax
	mov	ecx, DWORD PTR $T227840[ebp+12]
	mov	DWORD PTR $T227839[ebp+12], ecx
	mov	ecx, 16					; 00000010H
	lea	edi, DWORD PTR $T227839[ebp]
	lea	esi, DWORD PTR _guidInterface$[ebp]
	xor	edx, edx
	mov	DWORD PTR tv208[ebp], edx
	repe cmpsb
	je	SHORT $LN31@QueryInter
	sbb	eax, eax
	sbb	eax, -1
	mov	DWORD PTR tv208[ebp], eax
$LN31@QueryInter:
	mov	ecx, DWORD PTR tv208[ebp]
	mov	DWORD PTR tv140[ebp], ecx
	xor	edx, edx
	cmp	DWORD PTR tv140[ebp], 0
	sete	dl
	test	edx, edx
	jne	$LN1@QueryInter
	mov	eax, DWORD PTR _guidICvGameContext3
	mov	DWORD PTR $T227842[ebp], eax
	mov	ecx, DWORD PTR _guidICvGameContext3+4
	mov	DWORD PTR $T227842[ebp+4], ecx
	mov	edx, DWORD PTR _guidICvGameContext3+8
	mov	DWORD PTR $T227842[ebp+8], edx
	mov	eax, DWORD PTR _guidICvGameContext3+12
	mov	DWORD PTR $T227842[ebp+12], eax
	mov	ecx, DWORD PTR $T227842[ebp]
	mov	DWORD PTR $T227841[ebp], ecx
	mov	edx, DWORD PTR $T227842[ebp+4]
	mov	DWORD PTR $T227841[ebp+4], edx
	mov	eax, DWORD PTR $T227842[ebp+8]
	mov	DWORD PTR $T227841[ebp+8], eax
	mov	ecx, DWORD PTR $T227842[ebp+12]
	mov	DWORD PTR $T227841[ebp+12], ecx
	mov	ecx, 16					; 00000010H
	lea	edi, DWORD PTR $T227841[ebp]
	lea	esi, DWORD PTR _guidInterface$[ebp]
	xor	edx, edx
	mov	DWORD PTR tv264[ebp], edx
	repe cmpsb
	je	SHORT $LN32@QueryInter
	sbb	eax, eax
	sbb	eax, -1
	mov	DWORD PTR tv264[ebp], eax
$LN32@QueryInter:
	mov	ecx, DWORD PTR tv264[ebp]
	mov	DWORD PTR tv145[ebp], ecx
	xor	edx, edx
	cmp	DWORD PTR tv145[ebp], 0
	sete	dl
	test	edx, edx
	je	SHORT $LN2@QueryInter
$LN1@QueryInter:

; 105  : 	{
; 106  : 		return this;

	mov	eax, DWORD PTR _this$[ebp]
	jmp	SHORT $LN3@QueryInter
$LN2@QueryInter:

; 107  : 	}
; 108  : 
; 109  : 	return NULL;

	xor	eax, eax
$LN3@QueryInter:

; 110  : }

	pop	edi
	pop	esi
	mov	esp, ebp
	pop	ebp
	ret	20					; 00000014H
?QueryInterface@CvDllGameContext@@UAGPAXU_GUID@@@Z ENDP	; CvDllGameContext::QueryInterface
; Function compile flags: /Odtp
_TEXT	ENDS
;	COMDAT ?GetDLLGUID@CvDllGameContext@@UAG?AU_GUID@@XZ
_TEXT	SEGMENT
_this$ = 8						; size = 4
___$ReturnUdt$ = 12					; size = 4
?GetDLLGUID@CvDllGameContext@@UAG?AU_GUID@@XZ PROC	; CvDllGameContext::GetDLLGUID, COMDAT

; 114  : {

	push	ebp
	mov	ebp, esp

; 115  : 	return CIV5_XP2_DLL_GUID;

	mov	eax, DWORD PTR ___$ReturnUdt$[ebp]
	mov	ecx, DWORD PTR _CIV5_XP2_DLL_GUID
	mov	DWORD PTR [eax], ecx
	mov	edx, DWORD PTR _CIV5_XP2_DLL_GUID+4
	mov	DWORD PTR [eax+4], edx
	mov	ecx, DWORD PTR _CIV5_XP2_DLL_GUID+8
	mov	DWORD PTR [eax+8], ecx
	mov	edx, DWORD PTR _CIV5_XP2_DLL_GUID+12
	mov	DWORD PTR [eax+12], edx
	mov	eax, DWORD PTR ___$ReturnUdt$[ebp]

; 116  : }

	pop	ebp
	ret	8
?GetDLLGUID@CvDllGameContext@@UAG?AU_GUID@@XZ ENDP	; CvDllGameContext::GetDLLGUID
; Function compile flags: /Odtp
_TEXT	ENDS
;	COMDAT ?GetDLLVersion@CvDllGameContext@@UAGPBDXZ
_TEXT	SEGMENT
_this$ = 8						; size = 4
?GetDLLVersion@CvDllGameContext@@UAGPBDXZ PROC		; CvDllGameContext::GetDLLVersion, COMDAT

; 120  : {

	push	ebp
	mov	ebp, esp

; 121  : 	return CIV5_XP2_DLL_VERSION;

	mov	eax, DWORD PTR _CIV5_XP2_DLL_VERSION

; 122  : }

	pop	ebp
	ret	4
?GetDLLVersion@CvDllGameContext@@UAGPBDXZ ENDP		; CvDllGameContext::GetDLLVersion
; Function compile flags: /Odtp
_TEXT	ENDS
;	COMDAT ?Destroy@CvDllGameContext@@MAGXXZ
_TEXT	SEGMENT
_this$ = 8						; size = 4
?Destroy@CvDllGameContext@@MAGXXZ PROC			; CvDllGameContext::Destroy, COMDAT

; 126  : {

	push	ebp
	mov	ebp, esp

; 127  : 	//Do nothing, it's a singleton controlled by the DLL.
; 128  : }

	pop	ebp
	ret	4
?Destroy@CvDllGameContext@@MAGXXZ ENDP			; CvDllGameContext::Destroy
_TEXT	ENDS
PUBLIC	??3ICvUnknown@@SGXPAX@Z				; ICvUnknown::operator delete
PUBLIC	?InitializeSingleton@CvDllGameContext@@SAXXZ	; CvDllGameContext::InitializeSingleton
EXTRN	??2@YAPAXI@Z:PROC				; operator new
EXTRN	__imp__HeapSetInformation@16:PROC
EXTRN	__imp__HeapCreate@12:PROC
;	COMDAT xdata$x
xdata$x	SEGMENT
__unwindtable$?InitializeSingleton@CvDllGameContext@@SAXXZ DD 0ffffffffH
	DD	FLAT:__unwindfunclet$?InitializeSingleton@CvDllGameContext@@SAXXZ$0
__ehfuncinfo$?InitializeSingleton@CvDllGameContext@@SAXXZ DD 019930522H
	DD	01H
	DD	FLAT:__unwindtable$?InitializeSingleton@CvDllGameContext@@SAXXZ
	DD	2 DUP(00H)
	DD	2 DUP(00H)
	DD	00H
	DD	01H
; Function compile flags: /Odtp
xdata$x	ENDS
;	COMDAT ?InitializeSingleton@CvDllGameContext@@SAXXZ
_TEXT	SEGMENT
tv80 = -28						; size = 4
$T227904 = -24						; size = 4
$T227903 = -20						; size = 4
_HeapInformation$221770 = -16				; size = 4
__$EHRec$ = -12						; size = 12
?InitializeSingleton@CvDllGameContext@@SAXXZ PROC	; CvDllGameContext::InitializeSingleton, COMDAT

; 131  : {

	push	ebp
	mov	ebp, esp
	push	-1
	push	__ehhandler$?InitializeSingleton@CvDllGameContext@@SAXXZ
	mov	eax, DWORD PTR fs:0
	push	eax
	sub	esp, 16					; 00000010H
	mov	eax, DWORD PTR ___security_cookie
	xor	eax, ebp
	push	eax
	lea	eax, DWORD PTR __$EHRec$[ebp]
	mov	DWORD PTR fs:0, eax

; 132  : 	if(s_pSingleton == NULL)

	cmp	DWORD PTR ?s_pSingleton@CvDllGameContext@@0PAV1@A, 0 ; CvDllGameContext::s_pSingleton
	jne	SHORT $LN1@Initialize

; 133  : 	{
; 134  : 		FAssert(s_hHeap == INVALID_HANDLE_VALUE);
; 135  : 		s_hHeap = HeapCreate(0, 0, 0);

	push	0
	push	0
	push	0
	call	DWORD PTR __imp__HeapCreate@12
	mov	DWORD PTR ?s_hHeap@CvDllGameContext@@0PAXA, eax ; CvDllGameContext::s_hHeap

; 136  : 
; 137  : 		//
; 138  : 		// Enable the low-fragmentation heap (LFH). Starting with Windows Vista,
; 139  : 		// the LFH is enabled by default but this call does not cause an error.
; 140  : 		//
; 141  : 		ULONG HeapInformation = 2;	//Low Fragmentation Heap

	mov	DWORD PTR _HeapInformation$221770[ebp], 2

; 142  : 		HeapSetInformation(s_hHeap,
; 143  : 		                   HeapCompatibilityInformation,
; 144  : 		                   &HeapInformation,
; 145  : 		                   sizeof(HeapInformation));

	push	4
	lea	eax, DWORD PTR _HeapInformation$221770[ebp]
	push	eax
	push	0
	mov	ecx, DWORD PTR ?s_hHeap@CvDllGameContext@@0PAXA ; CvDllGameContext::s_hHeap
	push	ecx
	call	DWORD PTR __imp__HeapSetInformation@16
$LN1@Initialize:

; 146  : 
; 147  : 	}
; 148  : 	s_pSingleton = FNEW(CvDllGameContext(), c_eCiv5GameplayDLL, 0);

	push	80					; 00000050H
	call	??2@YAPAXI@Z				; operator new
	add	esp, 4
	mov	DWORD PTR $T227904[ebp], eax
	mov	DWORD PTR __$EHRec$[ebp+8], 0
	cmp	DWORD PTR $T227904[ebp], 0
	je	SHORT $LN4@Initialize
	mov	ecx, DWORD PTR $T227904[ebp]
	call	??0CvDllGameContext@@IAE@XZ		; CvDllGameContext::CvDllGameContext
	mov	DWORD PTR tv80[ebp], eax
	jmp	SHORT $LN5@Initialize
$LN4@Initialize:
	mov	DWORD PTR tv80[ebp], 0
$LN5@Initialize:
	mov	edx, DWORD PTR tv80[ebp]
	mov	DWORD PTR $T227903[ebp], edx
	mov	DWORD PTR __$EHRec$[ebp+8], -1
	mov	eax, DWORD PTR $T227903[ebp]
	mov	DWORD PTR ?s_pSingleton@CvDllGameContext@@0PAV1@A, eax ; CvDllGameContext::s_pSingleton

; 149  : }

	mov	ecx, DWORD PTR __$EHRec$[ebp]
	mov	DWORD PTR fs:0, ecx
	pop	ecx
	mov	esp, ebp
	pop	ebp
	ret	0
_TEXT	ENDS
;	COMDAT text$x
text$x	SEGMENT
__unwindfunclet$?InitializeSingleton@CvDllGameContext@@SAXXZ$0:
	mov	eax, DWORD PTR $T227904[ebp]
	push	eax
	call	??3ICvUnknown@@SGXPAX@Z			; ICvUnknown::operator delete
	ret	0
__ehhandler$?InitializeSingleton@CvDllGameContext@@SAXXZ:
	mov	edx, DWORD PTR [esp+8]
	lea	eax, DWORD PTR [edx+12]
	mov	ecx, DWORD PTR [edx-20]
	xor	ecx, eax
	call	@__security_check_cookie@4
	mov	eax, OFFSET __ehfuncinfo$?InitializeSingleton@CvDllGameContext@@SAXXZ
	jmp	___CxxFrameHandler3
text$x	ENDS
?InitializeSingleton@CvDllGameContext@@SAXXZ ENDP	; CvDllGameContext::InitializeSingleton
PUBLIC	?DestroySingleton@CvDllGameContext@@SAXXZ	; CvDllGameContext::DestroySingleton
EXTRN	__imp__HeapDestroy@4:PROC
; Function compile flags: /Odtp
;	COMDAT ?DestroySingleton@CvDllGameContext@@SAXXZ
_TEXT	SEGMENT
tv70 = -16						; size = 4
_inst$227944 = -12					; size = 4
$T227937 = -8						; size = 4
$T227936 = -4						; size = 4
?DestroySingleton@CvDllGameContext@@SAXXZ PROC		; CvDllGameContext::DestroySingleton, COMDAT

; 152  : {

	push	ebp
	mov	ebp, esp
	sub	esp, 16					; 00000010H

; 153  : 	SAFE_DELETE(s_pSingleton);

	mov	eax, DWORD PTR ?s_pSingleton@CvDllGameContext@@0PAV1@A ; CvDllGameContext::s_pSingleton
	mov	DWORD PTR $T227937[ebp], eax
	mov	ecx, DWORD PTR $T227937[ebp]
	mov	DWORD PTR $T227936[ebp], ecx
	cmp	DWORD PTR $T227936[ebp], 0
	je	SHORT $LN5@DestroySin
	mov	ecx, DWORD PTR $T227936[ebp]
	call	??1CvDllGameContext@@QAE@XZ		; CvDllGameContext::~CvDllGameContext
	mov	edx, 1
	and	edx, 1
	je	SHORT $LN8@DestroySin
	cmp	DWORD PTR $T227936[ebp], 0
	je	SHORT $LN8@DestroySin
	mov	eax, DWORD PTR $T227936[ebp]
	mov	DWORD PTR _inst$227944[ebp], eax
	mov	ecx, DWORD PTR _inst$227944[ebp]
	mov	edx, DWORD PTR [ecx]
	mov	eax, DWORD PTR _inst$227944[ebp]
	push	eax
	mov	ecx, DWORD PTR [edx+4]
	call	ecx
$LN8@DestroySin:
	mov	edx, DWORD PTR $T227936[ebp]
	mov	DWORD PTR tv70[ebp], edx
	jmp	SHORT $LN6@DestroySin
$LN5@DestroySin:
	mov	DWORD PTR tv70[ebp], 0
$LN6@DestroySin:
	mov	DWORD PTR ?s_pSingleton@CvDllGameContext@@0PAV1@A, 0 ; CvDllGameContext::s_pSingleton

; 154  : 	HeapDestroy(s_hHeap);

	mov	eax, DWORD PTR ?s_hHeap@CvDllGameContext@@0PAXA ; CvDllGameContext::s_hHeap
	push	eax
	call	DWORD PTR __imp__HeapDestroy@4

; 155  : 	s_hHeap = INVALID_HANDLE_VALUE;

	mov	DWORD PTR ?s_hHeap@CvDllGameContext@@0PAXA, -1 ; CvDllGameContext::s_hHeap

; 156  : }

	mov	esp, ebp
	pop	ebp
	ret	0
?DestroySingleton@CvDllGameContext@@SAXXZ ENDP		; CvDllGameContext::DestroySingleton
_TEXT	ENDS
PUBLIC	?GetSingleton@CvDllGameContext@@SAPAV1@XZ	; CvDllGameContext::GetSingleton
; Function compile flags: /Odtp
;	COMDAT ?GetSingleton@CvDllGameContext@@SAPAV1@XZ
_TEXT	SEGMENT
?GetSingleton@CvDllGameContext@@SAPAV1@XZ PROC		; CvDllGameContext::GetSingleton, COMDAT

; 159  : {

	push	ebp
	mov	ebp, esp

; 160  : 	return s_pSingleton;

	mov	eax, DWORD PTR ?s_pSingleton@CvDllGameContext@@0PAV1@A ; CvDllGameContext::s_pSingleton

; 161  : }

	pop	ebp
	ret	0
?GetSingleton@CvDllGameContext@@SAPAV1@XZ ENDP		; CvDllGameContext::GetSingleton
_TEXT	ENDS
PUBLIC	?GetHeap@CvDllGameContext@@QAEPAXXZ		; CvDllGameContext::GetHeap
; Function compile flags: /Odtp
;	COMDAT ?GetHeap@CvDllGameContext@@QAEPAXXZ
_TEXT	SEGMENT
_this$ = -4						; size = 4
?GetHeap@CvDllGameContext@@QAEPAXXZ PROC		; CvDllGameContext::GetHeap, COMDAT
; _this$ = ecx

; 164  : {

	push	ebp
	mov	ebp, esp
	push	ecx
	mov	DWORD PTR _this$[ebp], ecx

; 165  : 	return s_hHeap;

	mov	eax, DWORD PTR ?s_hHeap@CvDllGameContext@@0PAXA ; CvDllGameContext::s_hHeap

; 166  : }

	mov	esp, ebp
	pop	ebp
	ret	0
?GetHeap@CvDllGameContext@@QAEPAXXZ ENDP		; CvDllGameContext::GetHeap
; Function compile flags: /Odtp
_TEXT	ENDS
;	COMDAT ?Debug_GetHeap@CvDllGameContext@@UBGPAXXZ
_TEXT	SEGMENT
_this$ = 8						; size = 4
?Debug_GetHeap@CvDllGameContext@@UBGPAXXZ PROC		; CvDllGameContext::Debug_GetHeap, COMDAT

; 169  : {

	push	ebp
	mov	ebp, esp

; 170  : 	return s_hHeap;

	mov	eax, DWORD PTR ?s_hHeap@CvDllGameContext@@0PAXA ; CvDllGameContext::s_hHeap

; 171  : }

	pop	ebp
	ret	4
?Debug_GetHeap@CvDllGameContext@@UBGPAXXZ ENDP		; CvDllGameContext::Debug_GetHeap
_TEXT	ENDS
PUBLIC	?Allocate@CvDllGameContext@@SAPAXI@Z		; CvDllGameContext::Allocate
EXTRN	__imp__HeapAlloc@12:PROC
; Function compile flags: /Odtp
;	COMDAT ?Allocate@CvDllGameContext@@SAPAXI@Z
_TEXT	SEGMENT
_bytes$ = 8						; size = 4
?Allocate@CvDllGameContext@@SAPAXI@Z PROC		; CvDllGameContext::Allocate, COMDAT

; 178  : {

	push	ebp
	mov	ebp, esp

; 179  : 	return HeapAlloc(s_hHeap, 0, bytes);

	mov	eax, DWORD PTR _bytes$[ebp]
	push	eax
	push	0
	mov	ecx, DWORD PTR ?s_hHeap@CvDllGameContext@@0PAXA ; CvDllGameContext::s_hHeap
	push	ecx
	call	DWORD PTR __imp__HeapAlloc@12

; 180  : }

	pop	ebp
	ret	0
?Allocate@CvDllGameContext@@SAPAXI@Z ENDP		; CvDllGameContext::Allocate
_TEXT	ENDS
PUBLIC	?Free@CvDllGameContext@@SAXPAX@Z		; CvDllGameContext::Free
EXTRN	__imp__HeapFree@12:PROC
; Function compile flags: /Odtp
;	COMDAT ?Free@CvDllGameContext@@SAXPAX@Z
_TEXT	SEGMENT
_p$ = 8							; size = 4
?Free@CvDllGameContext@@SAXPAX@Z PROC			; CvDllGameContext::Free, COMDAT

; 187  : {

	push	ebp
	mov	ebp, esp

; 188  : 	HeapFree(s_hHeap, 0, p);

	mov	eax, DWORD PTR _p$[ebp]
	push	eax
	push	0
	mov	ecx, DWORD PTR ?s_hHeap@CvDllGameContext@@0PAXA ; CvDllGameContext::s_hHeap
	push	ecx
	call	DWORD PTR __imp__HeapFree@12

; 189  : }

	pop	ebp
	ret	0
?Free@CvDllGameContext@@SAXPAX@Z ENDP			; CvDllGameContext::Free
; Function compile flags: /Odtp
_TEXT	ENDS
;	COMDAT ?GetNetworkSyncronizer@CvDllGameContext@@UAGPAVICvNetworkSyncronization1@@XZ
_TEXT	SEGMENT
_this$ = 8						; size = 4
?GetNetworkSyncronizer@CvDllGameContext@@UAGPAVICvNetworkSyncronization1@@XZ PROC ; CvDllGameContext::GetNetworkSyncronizer, COMDAT

; 192  : {

	push	ebp
	mov	ebp, esp

; 193  : 	return m_pNetworkSyncronizer;

	mov	eax, DWORD PTR _this$[ebp]
	mov	eax, DWORD PTR [eax+4]

; 194  : }

	pop	ebp
	ret	4
?GetNetworkSyncronizer@CvDllGameContext@@UAGPAVICvNetworkSyncronization1@@XZ ENDP ; CvDllGameContext::GetNetworkSyncronizer
; Function compile flags: /Odtp
_TEXT	ENDS
;	COMDAT ?GetNetMessageHandler@CvDllGameContext@@UAGPAVICvNetMessageHandler1@@XZ
_TEXT	SEGMENT
$T227962 = -32						; size = 16
$T227961 = -16						; size = 16
_this$ = 8						; size = 4
?GetNetMessageHandler@CvDllGameContext@@UAGPAVICvNetMessageHandler1@@XZ PROC ; CvDllGameContext::GetNetMessageHandler, COMDAT

; 197  : {

	push	ebp
	mov	ebp, esp
	sub	esp, 32					; 00000020H

; 198  : 	return (ICvNetMessageHandler1*)m_pNetMessageHandler->QueryInterface(ICvNetMessageHandler1::GetInterfaceId());

	mov	eax, DWORD PTR _guidICvNetMessageHandler1
	mov	DWORD PTR $T227962[ebp], eax
	mov	ecx, DWORD PTR _guidICvNetMessageHandler1+4
	mov	DWORD PTR $T227962[ebp+4], ecx
	mov	edx, DWORD PTR _guidICvNetMessageHandler1+8
	mov	DWORD PTR $T227962[ebp+8], edx
	mov	eax, DWORD PTR _guidICvNetMessageHandler1+12
	mov	DWORD PTR $T227962[ebp+12], eax
	mov	ecx, DWORD PTR $T227962[ebp]
	mov	DWORD PTR $T227961[ebp], ecx
	mov	edx, DWORD PTR $T227962[ebp+4]
	mov	DWORD PTR $T227961[ebp+4], edx
	mov	eax, DWORD PTR $T227962[ebp+8]
	mov	DWORD PTR $T227961[ebp+8], eax
	mov	ecx, DWORD PTR $T227962[ebp+12]
	mov	DWORD PTR $T227961[ebp+12], ecx
	sub	esp, 16					; 00000010H
	mov	edx, esp
	mov	eax, DWORD PTR $T227961[ebp]
	mov	DWORD PTR [edx], eax
	mov	ecx, DWORD PTR $T227961[ebp+4]
	mov	DWORD PTR [edx+4], ecx
	mov	eax, DWORD PTR $T227961[ebp+8]
	mov	DWORD PTR [edx+8], eax
	mov	ecx, DWORD PTR $T227961[ebp+12]
	mov	DWORD PTR [edx+12], ecx
	mov	edx, DWORD PTR _this$[ebp]
	mov	eax, DWORD PTR [edx+8]
	mov	ecx, DWORD PTR _this$[ebp]
	mov	edx, DWORD PTR [ecx+8]
	mov	eax, DWORD PTR [eax]
	push	edx
	mov	ecx, DWORD PTR [eax]
	call	ecx

; 199  : }

	mov	esp, ebp
	pop	ebp
	ret	4
?GetNetMessageHandler@CvDllGameContext@@UAGPAVICvNetMessageHandler1@@XZ ENDP ; CvDllGameContext::GetNetMessageHandler
; Function compile flags: /Odtp
_TEXT	ENDS
;	COMDAT ?GetWorldBuilderMapLoader@CvDllGameContext@@UAGPAVICvWorldBuilderMapLoader1@@XZ
_TEXT	SEGMENT
_this$ = 8						; size = 4
?GetWorldBuilderMapLoader@CvDllGameContext@@UAGPAVICvWorldBuilderMapLoader1@@XZ PROC ; CvDllGameContext::GetWorldBuilderMapLoader, COMDAT

; 202  : {

	push	ebp
	mov	ebp, esp

; 203  : 	return m_pWorldBuilderMapLoader;

	mov	eax, DWORD PTR _this$[ebp]
	mov	eax, DWORD PTR [eax+16]

; 204  : }

	pop	ebp
	ret	4
?GetWorldBuilderMapLoader@CvDllGameContext@@UAGPAVICvWorldBuilderMapLoader1@@XZ ENDP ; CvDllGameContext::GetWorldBuilderMapLoader
_TEXT	ENDS
EXTRN	??3CvDllPreGame@@SAXPAX@Z:PROC			; CvDllPreGame::operator delete
EXTRN	??0CvDllPreGame@@QAE@XZ:PROC			; CvDllPreGame::CvDllPreGame
EXTRN	??2CvDllPreGame@@SAPAXI@Z:PROC			; CvDllPreGame::operator new
;	COMDAT xdata$x
xdata$x	SEGMENT
__unwindtable$?GetPreGame@CvDllGameContext@@UAGPAVICvPreGame1@@XZ DD 0ffffffffH
	DD	FLAT:__unwindfunclet$?GetPreGame@CvDllGameContext@@UAGPAVICvPreGame1@@XZ$0
__ehfuncinfo$?GetPreGame@CvDllGameContext@@UAGPAVICvPreGame1@@XZ DD 019930522H
	DD	01H
	DD	FLAT:__unwindtable$?GetPreGame@CvDllGameContext@@UAGPAVICvPreGame1@@XZ
	DD	2 DUP(00H)
	DD	2 DUP(00H)
	DD	00H
	DD	01H
; Function compile flags: /Odtp
xdata$x	ENDS
;	COMDAT ?GetPreGame@CvDllGameContext@@UAGPAVICvPreGame1@@XZ
_TEXT	SEGMENT
tv74 = -24						; size = 4
$T227972 = -20						; size = 4
$T227971 = -16						; size = 4
__$EHRec$ = -12						; size = 12
_this$ = 8						; size = 4
?GetPreGame@CvDllGameContext@@UAGPAVICvPreGame1@@XZ PROC ; CvDllGameContext::GetPreGame, COMDAT

; 207  : {

	push	ebp
	mov	ebp, esp
	push	-1
	push	__ehhandler$?GetPreGame@CvDllGameContext@@UAGPAVICvPreGame1@@XZ
	mov	eax, DWORD PTR fs:0
	push	eax
	sub	esp, 12					; 0000000cH
	mov	eax, DWORD PTR ___security_cookie
	xor	eax, ebp
	push	eax
	lea	eax, DWORD PTR __$EHRec$[ebp]
	mov	DWORD PTR fs:0, eax

; 208  : 	return new CvDllPreGame();

	push	4
	call	??2CvDllPreGame@@SAPAXI@Z		; CvDllPreGame::operator new
	add	esp, 4
	mov	DWORD PTR $T227972[ebp], eax
	mov	DWORD PTR __$EHRec$[ebp+8], 0
	cmp	DWORD PTR $T227972[ebp], 0
	je	SHORT $LN3@GetPreGame
	mov	ecx, DWORD PTR $T227972[ebp]
	call	??0CvDllPreGame@@QAE@XZ			; CvDllPreGame::CvDllPreGame
	mov	DWORD PTR tv74[ebp], eax
	jmp	SHORT $LN4@GetPreGame
$LN3@GetPreGame:
	mov	DWORD PTR tv74[ebp], 0
$LN4@GetPreGame:
	mov	eax, DWORD PTR tv74[ebp]
	mov	DWORD PTR $T227971[ebp], eax
	mov	DWORD PTR __$EHRec$[ebp+8], -1
	mov	eax, DWORD PTR $T227971[ebp]

; 209  : }

	mov	ecx, DWORD PTR __$EHRec$[ebp]
	mov	DWORD PTR fs:0, ecx
	pop	ecx
	mov	esp, ebp
	pop	ebp
	ret	4
_TEXT	ENDS
;	COMDAT text$x
text$x	SEGMENT
__unwindfunclet$?GetPreGame@CvDllGameContext@@UAGPAVICvPreGame1@@XZ$0:
	mov	eax, DWORD PTR $T227972[ebp]
	push	eax
	call	??3CvDllPreGame@@SAXPAX@Z		; CvDllPreGame::operator delete
	pop	ecx
	ret	0
__ehhandler$?GetPreGame@CvDllGameContext@@UAGPAVICvPreGame1@@XZ:
	mov	edx, DWORD PTR [esp+8]
	lea	eax, DWORD PTR [edx+12]
	mov	ecx, DWORD PTR [edx-16]
	xor	ecx, eax
	call	@__security_check_cookie@4
	mov	eax, OFFSET __ehfuncinfo$?GetPreGame@CvDllGameContext@@UAGPAVICvPreGame1@@XZ
	jmp	___CxxFrameHandler3
text$x	ENDS
?GetPreGame@CvDllGameContext@@UAGPAVICvPreGame1@@XZ ENDP ; CvDllGameContext::GetPreGame
EXTRN	??3CvDllGame@@SAXPAX@Z:PROC			; CvDllGame::operator delete
EXTRN	??0CvDllGame@@QAE@PAVCvGame@@@Z:PROC		; CvDllGame::CvDllGame
EXTRN	??2CvDllGame@@SAPAXI@Z:PROC			; CvDllGame::operator new
EXTRN	?gGlobals@@3VCvGlobals@@A:BYTE			; gGlobals
;	COMDAT xdata$x
; File d:\sources\lekmod_git\checkout\lekmod_dll\cvgamecoredll_expansion2\cvglobals.h
xdata$x	SEGMENT
__unwindtable$?GetGame@CvDllGameContext@@UAGPAVICvGame1@@XZ DD 0ffffffffH
	DD	FLAT:__unwindfunclet$?GetGame@CvDllGameContext@@UAGPAVICvGame1@@XZ$0
__ehfuncinfo$?GetGame@CvDllGameContext@@UAGPAVICvGame1@@XZ DD 019930522H
	DD	01H
	DD	FLAT:__unwindtable$?GetGame@CvDllGameContext@@UAGPAVICvGame1@@XZ
	DD	2 DUP(00H)
	DD	2 DUP(00H)
	DD	00H
	DD	01H
; Function compile flags: /Odtp
; File d:\sources\lekmod_git\checkout\lekmod_dll\cvgamecoredll_expansion2\cvdllcontext.cpp
xdata$x	ENDS
;	COMDAT ?GetGame@CvDllGameContext@@UAGPAVICvGame1@@XZ
_TEXT	SEGMENT
tv78 = -28						; size = 4
$T227985 = -24						; size = 4
$T227984 = -20						; size = 4
_pkGame$ = -16						; size = 4
__$EHRec$ = -12						; size = 12
_this$ = 8						; size = 4
?GetGame@CvDllGameContext@@UAGPAVICvGame1@@XZ PROC	; CvDllGameContext::GetGame, COMDAT

; 212  : {

	push	ebp
	mov	ebp, esp
	push	-1
	push	__ehhandler$?GetGame@CvDllGameContext@@UAGPAVICvGame1@@XZ
	mov	eax, DWORD PTR fs:0
	push	eax
	sub	esp, 16					; 00000010H
	mov	eax, DWORD PTR ___security_cookie
	xor	eax, ebp
	push	eax
	lea	eax, DWORD PTR __$EHRec$[ebp]
	mov	DWORD PTR fs:0, eax

; 213  : 	CvGame* pkGame = GC.getGamePointer();

	mov	eax, DWORD PTR ?gGlobals@@3VCvGlobals@@A+48
	mov	DWORD PTR _pkGame$[ebp], eax

; 214  : 	if(pkGame)

	cmp	DWORD PTR _pkGame$[ebp], 0
	je	SHORT $LN1@GetGame

; 215  : 		return new CvDllGame(pkGame);

	push	12					; 0000000cH
	call	??2CvDllGame@@SAPAXI@Z			; CvDllGame::operator new
	add	esp, 4
	mov	DWORD PTR $T227985[ebp], eax
	mov	DWORD PTR __$EHRec$[ebp+8], 0
	cmp	DWORD PTR $T227985[ebp], 0
	je	SHORT $LN4@GetGame
	mov	ecx, DWORD PTR _pkGame$[ebp]
	push	ecx
	mov	ecx, DWORD PTR $T227985[ebp]
	call	??0CvDllGame@@QAE@PAVCvGame@@@Z		; CvDllGame::CvDllGame
	mov	DWORD PTR tv78[ebp], eax
	jmp	SHORT $LN5@GetGame
$LN4@GetGame:
	mov	DWORD PTR tv78[ebp], 0
$LN5@GetGame:
	mov	edx, DWORD PTR tv78[ebp]
	mov	DWORD PTR $T227984[ebp], edx
	mov	DWORD PTR __$EHRec$[ebp+8], -1
	mov	eax, DWORD PTR $T227984[ebp]
	jmp	SHORT $LN2@GetGame
$LN1@GetGame:

; 216  : 	return NULL;

	xor	eax, eax
$LN2@GetGame:

; 217  : }

	mov	ecx, DWORD PTR __$EHRec$[ebp]
	mov	DWORD PTR fs:0, ecx
	pop	ecx
	mov	esp, ebp
	pop	ebp
	ret	4
_TEXT	ENDS
;	COMDAT text$x
text$x	SEGMENT
__unwindfunclet$?GetGame@CvDllGameContext@@UAGPAVICvGame1@@XZ$0:
	mov	eax, DWORD PTR $T227985[ebp]
	push	eax
	call	??3CvDllGame@@SAXPAX@Z			; CvDllGame::operator delete
	pop	ecx
	ret	0
__ehhandler$?GetGame@CvDllGameContext@@UAGPAVICvGame1@@XZ:
	mov	edx, DWORD PTR [esp+8]
	lea	eax, DWORD PTR [edx+12]
	mov	ecx, DWORD PTR [edx-20]
	xor	ecx, eax
	call	@__security_check_cookie@4
	mov	eax, OFFSET __ehfuncinfo$?GetGame@CvDllGameContext@@UAGPAVICvGame1@@XZ
	jmp	___CxxFrameHandler3
text$x	ENDS
?GetGame@CvDllGameContext@@UAGPAVICvGame1@@XZ ENDP	; CvDllGameContext::GetGame
EXTRN	??3CvDllGameAsynch@@SAXPAX@Z:PROC		; CvDllGameAsynch::operator delete
EXTRN	??0CvDllGameAsynch@@QAE@PAVCvGame@@@Z:PROC	; CvDllGameAsynch::CvDllGameAsynch
EXTRN	??2CvDllGameAsynch@@SAPAXI@Z:PROC		; CvDllGameAsynch::operator new
;	COMDAT xdata$x
; File d:\sources\lekmod_git\checkout\lekmod_dll\cvgamecoredll_expansion2\cvglobals.h
xdata$x	SEGMENT
__unwindtable$?GetGameAsynch@CvDllGameContext@@UAGPAVICvGameAsynch1@@XZ DD 0ffffffffH
	DD	FLAT:__unwindfunclet$?GetGameAsynch@CvDllGameContext@@UAGPAVICvGameAsynch1@@XZ$0
__ehfuncinfo$?GetGameAsynch@CvDllGameContext@@UAGPAVICvGameAsynch1@@XZ DD 019930522H
	DD	01H
	DD	FLAT:__unwindtable$?GetGameAsynch@CvDllGameContext@@UAGPAVICvGameAsynch1@@XZ
	DD	2 DUP(00H)
	DD	2 DUP(00H)
	DD	00H
	DD	01H
; Function compile flags: /Odtp
; File d:\sources\lekmod_git\checkout\lekmod_dll\cvgamecoredll_expansion2\cvdllcontext.cpp
xdata$x	ENDS
;	COMDAT ?GetGameAsynch@CvDllGameContext@@UAGPAVICvGameAsynch1@@XZ
_TEXT	SEGMENT
tv78 = -28						; size = 4
$T228001 = -24						; size = 4
$T228000 = -20						; size = 4
_pkGame$ = -16						; size = 4
__$EHRec$ = -12						; size = 12
_this$ = 8						; size = 4
?GetGameAsynch@CvDllGameContext@@UAGPAVICvGameAsynch1@@XZ PROC ; CvDllGameContext::GetGameAsynch, COMDAT

; 220  : {

	push	ebp
	mov	ebp, esp
	push	-1
	push	__ehhandler$?GetGameAsynch@CvDllGameContext@@UAGPAVICvGameAsynch1@@XZ
	mov	eax, DWORD PTR fs:0
	push	eax
	sub	esp, 16					; 00000010H
	mov	eax, DWORD PTR ___security_cookie
	xor	eax, ebp
	push	eax
	lea	eax, DWORD PTR __$EHRec$[ebp]
	mov	DWORD PTR fs:0, eax

; 221  : 	CvGame* pkGame = GC.getGamePointer();

	mov	eax, DWORD PTR ?gGlobals@@3VCvGlobals@@A+48
	mov	DWORD PTR _pkGame$[ebp], eax

; 222  : 	if(pkGame)

	cmp	DWORD PTR _pkGame$[ebp], 0
	je	SHORT $LN1@GetGameAsy

; 223  : 		return new CvDllGameAsynch(pkGame);

	push	12					; 0000000cH
	call	??2CvDllGameAsynch@@SAPAXI@Z		; CvDllGameAsynch::operator new
	add	esp, 4
	mov	DWORD PTR $T228001[ebp], eax
	mov	DWORD PTR __$EHRec$[ebp+8], 0
	cmp	DWORD PTR $T228001[ebp], 0
	je	SHORT $LN4@GetGameAsy
	mov	ecx, DWORD PTR _pkGame$[ebp]
	push	ecx
	mov	ecx, DWORD PTR $T228001[ebp]
	call	??0CvDllGameAsynch@@QAE@PAVCvGame@@@Z	; CvDllGameAsynch::CvDllGameAsynch
	mov	DWORD PTR tv78[ebp], eax
	jmp	SHORT $LN5@GetGameAsy
$LN4@GetGameAsy:
	mov	DWORD PTR tv78[ebp], 0
$LN5@GetGameAsy:
	mov	edx, DWORD PTR tv78[ebp]
	mov	DWORD PTR $T228000[ebp], edx
	mov	DWORD PTR __$EHRec$[ebp+8], -1
	mov	eax, DWORD PTR $T228000[ebp]
	jmp	SHORT $LN2@GetGameAsy
$LN1@GetGameAsy:

; 224  : 	return NULL;

	xor	eax, eax
$LN2@GetGameAsy:

; 225  : }

	mov	ecx, DWORD PTR __$EHRec$[ebp]
	mov	DWORD PTR fs:0, ecx
	pop	ecx
	mov	esp, ebp
	pop	ebp
	ret	4
_TEXT	ENDS
;	COMDAT text$x
text$x	SEGMENT
__unwindfunclet$?GetGameAsynch@CvDllGameContext@@UAGPAVICvGameAsynch1@@XZ$0:
	mov	eax, DWORD PTR $T228001[ebp]
	push	eax
	call	??3CvDllGameAsynch@@SAXPAX@Z		; CvDllGameAsynch::operator delete
	pop	ecx
	ret	0
__ehhandler$?GetGameAsynch@CvDllGameContext@@UAGPAVICvGameAsynch1@@XZ:
	mov	edx, DWORD PTR [esp+8]
	lea	eax, DWORD PTR [edx+12]
	mov	ecx, DWORD PTR [edx-20]
	xor	ecx, eax
	call	@__security_check_cookie@4
	mov	eax, OFFSET __ehfuncinfo$?GetGameAsynch@CvDllGameContext@@UAGPAVICvGameAsynch1@@XZ
	jmp	___CxxFrameHandler3
text$x	ENDS
?GetGameAsynch@CvDllGameContext@@UAGPAVICvGameAsynch1@@XZ ENDP ; CvDllGameContext::GetGameAsynch
EXTRN	??3CvDllMap@@SAXPAX@Z:PROC			; CvDllMap::operator delete
EXTRN	??0CvDllMap@@QAE@PAVCvMap@@@Z:PROC		; CvDllMap::CvDllMap
EXTRN	??2CvDllMap@@SAPAXI@Z:PROC			; CvDllMap::operator new
;	COMDAT xdata$x
; File d:\sources\lekmod_git\checkout\lekmod_dll\cvgamecoredll_expansion2\cvglobals.h
xdata$x	SEGMENT
__unwindtable$?GetMap@CvDllGameContext@@UAGPAVICvMap1@@XZ DD 0ffffffffH
	DD	FLAT:__unwindfunclet$?GetMap@CvDllGameContext@@UAGPAVICvMap1@@XZ$0
__ehfuncinfo$?GetMap@CvDllGameContext@@UAGPAVICvMap1@@XZ DD 019930522H
	DD	01H
	DD	FLAT:__unwindtable$?GetMap@CvDllGameContext@@UAGPAVICvMap1@@XZ
	DD	2 DUP(00H)
	DD	2 DUP(00H)
	DD	00H
	DD	01H
; Function compile flags: /Odtp
; File d:\sources\lekmod_git\checkout\lekmod_dll\cvgamecoredll_expansion2\cvdllcontext.cpp
xdata$x	ENDS
;	COMDAT ?GetMap@CvDllGameContext@@UAGPAVICvMap1@@XZ
_TEXT	SEGMENT
tv78 = -28						; size = 4
$T228017 = -24						; size = 4
$T228016 = -20						; size = 4
_pkMap$ = -16						; size = 4
__$EHRec$ = -12						; size = 12
_this$ = 8						; size = 4
?GetMap@CvDllGameContext@@UAGPAVICvMap1@@XZ PROC	; CvDllGameContext::GetMap, COMDAT

; 228  : {

	push	ebp
	mov	ebp, esp
	push	-1
	push	__ehhandler$?GetMap@CvDllGameContext@@UAGPAVICvMap1@@XZ
	mov	eax, DWORD PTR fs:0
	push	eax
	sub	esp, 16					; 00000010H
	mov	eax, DWORD PTR ___security_cookie
	xor	eax, ebp
	push	eax
	lea	eax, DWORD PTR __$EHRec$[ebp]
	mov	DWORD PTR fs:0, eax

; 229  : 	CvMap* pkMap = GC.getMapPointer();

	mov	eax, DWORD PTR ?gGlobals@@3VCvGlobals@@A+52
	mov	DWORD PTR _pkMap$[ebp], eax

; 230  : 	if(pkMap)

	cmp	DWORD PTR _pkMap$[ebp], 0
	je	SHORT $LN1@GetMap

; 231  : 		return new CvDllMap(pkMap);

	push	12					; 0000000cH
	call	??2CvDllMap@@SAPAXI@Z			; CvDllMap::operator new
	add	esp, 4
	mov	DWORD PTR $T228017[ebp], eax
	mov	DWORD PTR __$EHRec$[ebp+8], 0
	cmp	DWORD PTR $T228017[ebp], 0
	je	SHORT $LN4@GetMap
	mov	ecx, DWORD PTR _pkMap$[ebp]
	push	ecx
	mov	ecx, DWORD PTR $T228017[ebp]
	call	??0CvDllMap@@QAE@PAVCvMap@@@Z		; CvDllMap::CvDllMap
	mov	DWORD PTR tv78[ebp], eax
	jmp	SHORT $LN5@GetMap
$LN4@GetMap:
	mov	DWORD PTR tv78[ebp], 0
$LN5@GetMap:
	mov	edx, DWORD PTR tv78[ebp]
	mov	DWORD PTR $T228016[ebp], edx
	mov	DWORD PTR __$EHRec$[ebp+8], -1
	mov	eax, DWORD PTR $T228016[ebp]
	jmp	SHORT $LN2@GetMap
$LN1@GetMap:

; 232  : 	return NULL;

	xor	eax, eax
$LN2@GetMap:

; 233  : }

	mov	ecx, DWORD PTR __$EHRec$[ebp]
	mov	DWORD PTR fs:0, ecx
	pop	ecx
	mov	esp, ebp
	pop	ebp
	ret	4
_TEXT	ENDS
;	COMDAT text$x
text$x	SEGMENT
__unwindfunclet$?GetMap@CvDllGameContext@@UAGPAVICvMap1@@XZ$0:
	mov	eax, DWORD PTR $T228017[ebp]
	push	eax
	call	??3CvDllMap@@SAXPAX@Z			; CvDllMap::operator delete
	pop	ecx
	ret	0
__ehhandler$?GetMap@CvDllGameContext@@UAGPAVICvMap1@@XZ:
	mov	edx, DWORD PTR [esp+8]
	lea	eax, DWORD PTR [edx+12]
	mov	ecx, DWORD PTR [edx-20]
	xor	ecx, eax
	call	@__security_check_cookie@4
	mov	eax, OFFSET __ehfuncinfo$?GetMap@CvDllGameContext@@UAGPAVICvMap1@@XZ
	jmp	___CxxFrameHandler3
text$x	ENDS
?GetMap@CvDllGameContext@@UAGPAVICvMap1@@XZ ENDP	; CvDllGameContext::GetMap
EXTRN	??3CvDllTeam@@SAXPAX@Z:PROC			; CvDllTeam::operator delete
EXTRN	??0CvDllTeam@@QAE@PAVCvTeam@@@Z:PROC		; CvDllTeam::CvDllTeam
EXTRN	??2CvDllTeam@@SAPAXI@Z:PROC			; CvDllTeam::operator new
EXTRN	?m_aTeams@CvTeam@@1PAV1@A:DWORD			; CvTeam::m_aTeams
;	COMDAT xdata$x
; File d:\sources\lekmod_git\checkout\lekmod_dll\cvgamecoredll_expansion2\cvteam.h
xdata$x	SEGMENT
__unwindtable$?GetTeam@CvDllGameContext@@UAGPAVICvTeam1@@W4TeamTypes@@@Z DD 0ffffffffH
	DD	FLAT:__unwindfunclet$?GetTeam@CvDllGameContext@@UAGPAVICvTeam1@@W4TeamTypes@@@Z$0
__ehfuncinfo$?GetTeam@CvDllGameContext@@UAGPAVICvTeam1@@W4TeamTypes@@@Z DD 019930522H
	DD	01H
	DD	FLAT:__unwindtable$?GetTeam@CvDllGameContext@@UAGPAVICvTeam1@@W4TeamTypes@@@Z
	DD	2 DUP(00H)
	DD	2 DUP(00H)
	DD	00H
	DD	01H
; Function compile flags: /Odtp
; File d:\sources\lekmod_git\checkout\lekmod_dll\cvgamecoredll_expansion2\cvdllcontext.cpp
xdata$x	ENDS
;	COMDAT ?GetTeam@CvDllGameContext@@UAGPAVICvTeam1@@W4TeamTypes@@@Z
_TEXT	SEGMENT
tv78 = -28						; size = 4
$T228033 = -24						; size = 4
$T228032 = -20						; size = 4
_kTeam$221847 = -16					; size = 4
__$EHRec$ = -12						; size = 12
_this$ = 8						; size = 4
_eTeam$ = 12						; size = 4
?GetTeam@CvDllGameContext@@UAGPAVICvTeam1@@W4TeamTypes@@@Z PROC ; CvDllGameContext::GetTeam, COMDAT

; 236  : {

	push	ebp
	mov	ebp, esp
	push	-1
	push	__ehhandler$?GetTeam@CvDllGameContext@@UAGPAVICvTeam1@@W4TeamTypes@@@Z
	mov	eax, DWORD PTR fs:0
	push	eax
	sub	esp, 16					; 00000010H
	mov	eax, DWORD PTR ___security_cookie
	xor	eax, ebp
	push	eax
	lea	eax, DWORD PTR __$EHRec$[ebp]
	mov	DWORD PTR fs:0, eax

; 237  : 	if(eTeam < MAX_TEAMS)

	cmp	DWORD PTR _eTeam$[ebp], 64		; 00000040H
	jge	SHORT $LN1@GetTeam

; 238  : 	{
; 239  : 		CvTeam& kTeam = CvTeam::getTeam(eTeam);

	mov	eax, DWORD PTR _eTeam$[ebp]
	imul	eax, 2984				; 00000ba8H
	add	eax, DWORD PTR ?m_aTeams@CvTeam@@1PAV1@A ; CvTeam::m_aTeams
	mov	DWORD PTR _kTeam$221847[ebp], eax

; 240  : 		return new CvDllTeam(&kTeam);

	push	12					; 0000000cH
	call	??2CvDllTeam@@SAPAXI@Z			; CvDllTeam::operator new
	add	esp, 4
	mov	DWORD PTR $T228033[ebp], eax
	mov	DWORD PTR __$EHRec$[ebp+8], 0
	cmp	DWORD PTR $T228033[ebp], 0
	je	SHORT $LN4@GetTeam
	mov	ecx, DWORD PTR _kTeam$221847[ebp]
	push	ecx
	mov	ecx, DWORD PTR $T228033[ebp]
	call	??0CvDllTeam@@QAE@PAVCvTeam@@@Z		; CvDllTeam::CvDllTeam
	mov	DWORD PTR tv78[ebp], eax
	jmp	SHORT $LN5@GetTeam
$LN4@GetTeam:
	mov	DWORD PTR tv78[ebp], 0
$LN5@GetTeam:
	mov	edx, DWORD PTR tv78[ebp]
	mov	DWORD PTR $T228032[ebp], edx
	mov	DWORD PTR __$EHRec$[ebp+8], -1
	mov	eax, DWORD PTR $T228032[ebp]
	jmp	SHORT $LN2@GetTeam
$LN1@GetTeam:

; 241  : 	}
; 242  : 
; 243  : 	return NULL;

	xor	eax, eax
$LN2@GetTeam:

; 244  : }

	mov	ecx, DWORD PTR __$EHRec$[ebp]
	mov	DWORD PTR fs:0, ecx
	pop	ecx
	mov	esp, ebp
	pop	ebp
	ret	8
_TEXT	ENDS
;	COMDAT text$x
text$x	SEGMENT
__unwindfunclet$?GetTeam@CvDllGameContext@@UAGPAVICvTeam1@@W4TeamTypes@@@Z$0:
	mov	eax, DWORD PTR $T228033[ebp]
	push	eax
	call	??3CvDllTeam@@SAXPAX@Z			; CvDllTeam::operator delete
	pop	ecx
	ret	0
__ehhandler$?GetTeam@CvDllGameContext@@UAGPAVICvTeam1@@W4TeamTypes@@@Z:
	mov	edx, DWORD PTR [esp+8]
	lea	eax, DWORD PTR [edx+12]
	mov	ecx, DWORD PTR [edx-20]
	xor	ecx, eax
	call	@__security_check_cookie@4
	mov	eax, OFFSET __ehfuncinfo$?GetTeam@CvDllGameContext@@UAGPAVICvTeam1@@W4TeamTypes@@@Z
	jmp	___CxxFrameHandler3
text$x	ENDS
?GetTeam@CvDllGameContext@@UAGPAVICvTeam1@@W4TeamTypes@@@Z ENDP ; CvDllGameContext::GetTeam
EXTRN	?getInfoTypeForString@CvGlobals@@QBEHPBD_N@Z:PROC ; CvGlobals::getInfoTypeForString
; Function compile flags: /Odtp
;	COMDAT ?GetInfoTypeForString@CvDllGameContext@@UBGHPBD_N@Z
_TEXT	SEGMENT
_this$ = 8						; size = 4
_szType$ = 12						; size = 4
_hideAssert$ = 16					; size = 1
?GetInfoTypeForString@CvDllGameContext@@UBGHPBD_N@Z PROC ; CvDllGameContext::GetInfoTypeForString, COMDAT

; 247  : {

	push	ebp
	mov	ebp, esp

; 248  : 	return GC.getInfoTypeForString(szType, hideAssert);

	movzx	eax, BYTE PTR _hideAssert$[ebp]
	push	eax
	mov	ecx, DWORD PTR _szType$[ebp]
	push	ecx
	mov	ecx, OFFSET ?gGlobals@@3VCvGlobals@@A	; gGlobals
	call	?getInfoTypeForString@CvGlobals@@QBEHPBD_N@Z ; CvGlobals::getInfoTypeForString

; 249  : }

	pop	ebp
	ret	12					; 0000000cH
?GetInfoTypeForString@CvDllGameContext@@UBGHPBD_N@Z ENDP ; CvDllGameContext::GetInfoTypeForString
_TEXT	ENDS
EXTRN	?getInfoTypeForHash@CvGlobals@@QBEHI_N@Z:PROC	; CvGlobals::getInfoTypeForHash
; Function compile flags: /Odtp
;	COMDAT ?GetInfoTypeForHash@CvDllGameContext@@UBGHI_N@Z
_TEXT	SEGMENT
_this$ = 8						; size = 4
_uiHash$ = 12						; size = 4
_hideAssert$ = 16					; size = 1
?GetInfoTypeForHash@CvDllGameContext@@UBGHI_N@Z PROC	; CvDllGameContext::GetInfoTypeForHash, COMDAT

; 252  : {

	push	ebp
	mov	ebp, esp

; 253  : 	return GC.getInfoTypeForHash(uiHash, hideAssert);

	movzx	eax, BYTE PTR _hideAssert$[ebp]
	push	eax
	mov	ecx, DWORD PTR _uiHash$[ebp]
	push	ecx
	mov	ecx, OFFSET ?gGlobals@@3VCvGlobals@@A	; gGlobals
	call	?getInfoTypeForHash@CvGlobals@@QBEHI_N@Z ; CvGlobals::getInfoTypeForHash

; 254  : }

	pop	ebp
	ret	12					; 0000000cH
?GetInfoTypeForHash@CvDllGameContext@@UBGHI_N@Z ENDP	; CvDllGameContext::GetInfoTypeForHash
_TEXT	ENDS
EXTRN	?getCivilizationInfoIndex@CvGlobals@@QAE?AW4CivilizationTypes@@PBD@Z:PROC ; CvGlobals::getCivilizationInfoIndex
; Function compile flags: /Odtp
;	COMDAT ?GetCivilizationInfoIndex@CvDllGameContext@@UAG?AW4CivilizationTypes@@PBD@Z
_TEXT	SEGMENT
_this$ = 8						; size = 4
_pszType$ = 12						; size = 4
?GetCivilizationInfoIndex@CvDllGameContext@@UAG?AW4CivilizationTypes@@PBD@Z PROC ; CvDllGameContext::GetCivilizationInfoIndex, COMDAT

; 257  : {

	push	ebp
	mov	ebp, esp

; 258  : 	return GC.getCivilizationInfoIndex(pszType);

	mov	eax, DWORD PTR _pszType$[ebp]
	push	eax
	mov	ecx, OFFSET ?gGlobals@@3VCvGlobals@@A	; gGlobals
	call	?getCivilizationInfoIndex@CvGlobals@@QAE?AW4CivilizationTypes@@PBD@Z ; CvGlobals::getCivilizationInfoIndex

; 259  : }

	pop	ebp
	ret	8
?GetCivilizationInfoIndex@CvDllGameContext@@UAG?AW4CivilizationTypes@@PBD@Z ENDP ; CvDllGameContext::GetCivilizationInfoIndex
_TEXT	ENDS
EXTRN	?getNumPlayableCivilizationInfos@CvGlobals@@QAEAAHXZ:PROC ; CvGlobals::getNumPlayableCivilizationInfos
; Function compile flags: /Odtp
;	COMDAT ?GetNumPlayableCivilizationInfos@CvDllGameContext@@UAGHXZ
_TEXT	SEGMENT
_this$ = 8						; size = 4
?GetNumPlayableCivilizationInfos@CvDllGameContext@@UAGHXZ PROC ; CvDllGameContext::GetNumPlayableCivilizationInfos, COMDAT

; 262  : {

	push	ebp
	mov	ebp, esp

; 263  : 	return GC.getNumPlayableCivilizationInfos();

	mov	ecx, OFFSET ?gGlobals@@3VCvGlobals@@A	; gGlobals
	call	?getNumPlayableCivilizationInfos@CvGlobals@@QAEAAHXZ ; CvGlobals::getNumPlayableCivilizationInfos
	mov	eax, DWORD PTR [eax]

; 264  : }

	pop	ebp
	ret	4
?GetNumPlayableCivilizationInfos@CvDllGameContext@@UAGHXZ ENDP ; CvDllGameContext::GetNumPlayableCivilizationInfos
_TEXT	ENDS
EXTRN	?getNumAIPlayableCivilizationInfos@CvGlobals@@QAEAAHXZ:PROC ; CvGlobals::getNumAIPlayableCivilizationInfos
; Function compile flags: /Odtp
;	COMDAT ?GetNumAIPlayableCivilizationInfos@CvDllGameContext@@UAGHXZ
_TEXT	SEGMENT
_this$ = 8						; size = 4
?GetNumAIPlayableCivilizationInfos@CvDllGameContext@@UAGHXZ PROC ; CvDllGameContext::GetNumAIPlayableCivilizationInfos, COMDAT

; 267  : {

	push	ebp
	mov	ebp, esp

; 268  : 	return GC.getNumAIPlayableCivilizationInfos();

	mov	ecx, OFFSET ?gGlobals@@3VCvGlobals@@A	; gGlobals
	call	?getNumAIPlayableCivilizationInfos@CvGlobals@@QAEAAHXZ ; CvGlobals::getNumAIPlayableCivilizationInfos
	mov	eax, DWORD PTR [eax]

; 269  : }

	pop	ebp
	ret	4
?GetNumAIPlayableCivilizationInfos@CvDllGameContext@@UAGHXZ ENDP ; CvDllGameContext::GetNumAIPlayableCivilizationInfos
_TEXT	ENDS
EXTRN	?GetNumPlayableMinorCivs@CvGlobals@@QBEHXZ:PROC	; CvGlobals::GetNumPlayableMinorCivs
; Function compile flags: /Odtp
;	COMDAT ?GetNumPlayableMinorCivs@CvDllGameContext@@UAGHXZ
_TEXT	SEGMENT
_this$ = 8						; size = 4
?GetNumPlayableMinorCivs@CvDllGameContext@@UAGHXZ PROC	; CvDllGameContext::GetNumPlayableMinorCivs, COMDAT

; 272  : {

	push	ebp
	mov	ebp, esp

; 273  : 	return GC.GetNumPlayableMinorCivs();

	mov	ecx, OFFSET ?gGlobals@@3VCvGlobals@@A	; gGlobals
	call	?GetNumPlayableMinorCivs@CvGlobals@@QBEHXZ ; CvGlobals::GetNumPlayableMinorCivs

; 274  : }

	pop	ebp
	ret	4
?GetNumPlayableMinorCivs@CvDllGameContext@@UAGHXZ ENDP	; CvDllGameContext::GetNumPlayableMinorCivs
_TEXT	ENDS
EXTRN	?getNumBuildInfos@CvGlobals@@QAEHXZ:PROC	; CvGlobals::getNumBuildInfos
; Function compile flags: /Odtp
;	COMDAT ?GetNumBuildInfos@CvDllGameContext@@UAGHXZ
_TEXT	SEGMENT
_this$ = 8						; size = 4
?GetNumBuildInfos@CvDllGameContext@@UAGHXZ PROC		; CvDllGameContext::GetNumBuildInfos, COMDAT

; 277  : {

	push	ebp
	mov	ebp, esp

; 278  : 	return GC.getNumBuildInfos();

	mov	ecx, OFFSET ?gGlobals@@3VCvGlobals@@A	; gGlobals
	call	?getNumBuildInfos@CvGlobals@@QAEHXZ	; CvGlobals::getNumBuildInfos

; 279  : }

	pop	ebp
	ret	4
?GetNumBuildInfos@CvDllGameContext@@UAGHXZ ENDP		; CvDllGameContext::GetNumBuildInfos
_TEXT	ENDS
EXTRN	?getNumBuildingInfos@CvGlobals@@QAEHXZ:PROC	; CvGlobals::getNumBuildingInfos
; Function compile flags: /Odtp
;	COMDAT ?GetNumBuildingInfos@CvDllGameContext@@UAGHXZ
_TEXT	SEGMENT
_this$ = 8						; size = 4
?GetNumBuildingInfos@CvDllGameContext@@UAGHXZ PROC	; CvDllGameContext::GetNumBuildingInfos, COMDAT

; 282  : {

	push	ebp
	mov	ebp, esp

; 283  : 	return GC.getNumBuildingInfos();

	mov	ecx, OFFSET ?gGlobals@@3VCvGlobals@@A	; gGlobals
	call	?getNumBuildingInfos@CvGlobals@@QAEHXZ	; CvGlobals::getNumBuildingInfos

; 284  : }

	pop	ebp
	ret	4
?GetNumBuildingInfos@CvDllGameContext@@UAGHXZ ENDP	; CvDllGameContext::GetNumBuildingInfos
_TEXT	ENDS
EXTRN	?getNumCivilizationInfos@CvGlobals@@QAEHXZ:PROC	; CvGlobals::getNumCivilizationInfos
; Function compile flags: /Odtp
;	COMDAT ?GetNumCivilizationInfos@CvDllGameContext@@UAGHXZ
_TEXT	SEGMENT
_this$ = 8						; size = 4
?GetNumCivilizationInfos@CvDllGameContext@@UAGHXZ PROC	; CvDllGameContext::GetNumCivilizationInfos, COMDAT

; 287  : {

	push	ebp
	mov	ebp, esp

; 288  : 	return GC.getNumCivilizationInfos();

	mov	ecx, OFFSET ?gGlobals@@3VCvGlobals@@A	; gGlobals
	call	?getNumCivilizationInfos@CvGlobals@@QAEHXZ ; CvGlobals::getNumCivilizationInfos

; 289  : }

	pop	ebp
	ret	4
?GetNumCivilizationInfos@CvDllGameContext@@UAGHXZ ENDP	; CvDllGameContext::GetNumCivilizationInfos
_TEXT	ENDS
EXTRN	?getNumClimateInfos@CvGlobals@@QAEHXZ:PROC	; CvGlobals::getNumClimateInfos
; Function compile flags: /Odtp
;	COMDAT ?GetNumClimateInfos@CvDllGameContext@@UAGHXZ
_TEXT	SEGMENT
_this$ = 8						; size = 4
?GetNumClimateInfos@CvDllGameContext@@UAGHXZ PROC	; CvDllGameContext::GetNumClimateInfos, COMDAT

; 292  : {

	push	ebp
	mov	ebp, esp

; 293  : 	return GC.getNumClimateInfos();

	mov	ecx, OFFSET ?gGlobals@@3VCvGlobals@@A	; gGlobals
	call	?getNumClimateInfos@CvGlobals@@QAEHXZ	; CvGlobals::getNumClimateInfos

; 294  : }

	pop	ebp
	ret	4
?GetNumClimateInfos@CvDllGameContext@@UAGHXZ ENDP	; CvDllGameContext::GetNumClimateInfos
_TEXT	ENDS
EXTRN	?GetNumColorInfos@CvGlobals@@QAEHXZ:PROC	; CvGlobals::GetNumColorInfos
; Function compile flags: /Odtp
;	COMDAT ?GetNumColorInfos@CvDllGameContext@@UAGHXZ
_TEXT	SEGMENT
_this$ = 8						; size = 4
?GetNumColorInfos@CvDllGameContext@@UAGHXZ PROC		; CvDllGameContext::GetNumColorInfos, COMDAT

; 297  : {

	push	ebp
	mov	ebp, esp

; 298  : 	return GC.GetNumColorInfos();

	mov	ecx, OFFSET ?gGlobals@@3VCvGlobals@@A	; gGlobals
	call	?GetNumColorInfos@CvGlobals@@QAEHXZ	; CvGlobals::GetNumColorInfos

; 299  : }

	pop	ebp
	ret	4
?GetNumColorInfos@CvDllGameContext@@UAGHXZ ENDP		; CvDllGameContext::GetNumColorInfos
_TEXT	ENDS
EXTRN	?getNumEraInfos@CvGlobals@@QAEHXZ:PROC		; CvGlobals::getNumEraInfos
; Function compile flags: /Odtp
;	COMDAT ?GetNumEraInfos@CvDllGameContext@@UAGHXZ
_TEXT	SEGMENT
_this$ = 8						; size = 4
?GetNumEraInfos@CvDllGameContext@@UAGHXZ PROC		; CvDllGameContext::GetNumEraInfos, COMDAT

; 302  : {

	push	ebp
	mov	ebp, esp

; 303  : 	return GC.getNumEraInfos();

	mov	ecx, OFFSET ?gGlobals@@3VCvGlobals@@A	; gGlobals
	call	?getNumEraInfos@CvGlobals@@QAEHXZ	; CvGlobals::getNumEraInfos

; 304  : }

	pop	ebp
	ret	4
?GetNumEraInfos@CvDllGameContext@@UAGHXZ ENDP		; CvDllGameContext::GetNumEraInfos
_TEXT	ENDS
EXTRN	?getNumFeatureInfos@CvGlobals@@QAEHXZ:PROC	; CvGlobals::getNumFeatureInfos
; Function compile flags: /Odtp
;	COMDAT ?GetNumFeatureInfos@CvDllGameContext@@UAGHXZ
_TEXT	SEGMENT
_this$ = 8						; size = 4
?GetNumFeatureInfos@CvDllGameContext@@UAGHXZ PROC	; CvDllGameContext::GetNumFeatureInfos, COMDAT

; 307  : {

	push	ebp
	mov	ebp, esp

; 308  : 	return GC.getNumFeatureInfos();

	mov	ecx, OFFSET ?gGlobals@@3VCvGlobals@@A	; gGlobals
	call	?getNumFeatureInfos@CvGlobals@@QAEHXZ	; CvGlobals::getNumFeatureInfos

; 309  : }

	pop	ebp
	ret	4
?GetNumFeatureInfos@CvDllGameContext@@UAGHXZ ENDP	; CvDllGameContext::GetNumFeatureInfos
_TEXT	ENDS
EXTRN	?getNumGameOptionInfos@CvGlobals@@QAEHXZ:PROC	; CvGlobals::getNumGameOptionInfos
; Function compile flags: /Odtp
;	COMDAT ?GetNumGameOptionInfos@CvDllGameContext@@UAGHXZ
_TEXT	SEGMENT
_this$ = 8						; size = 4
?GetNumGameOptionInfos@CvDllGameContext@@UAGHXZ PROC	; CvDllGameContext::GetNumGameOptionInfos, COMDAT

; 312  : {

	push	ebp
	mov	ebp, esp

; 313  : 	return GC.getNumGameOptionInfos();

	mov	ecx, OFFSET ?gGlobals@@3VCvGlobals@@A	; gGlobals
	call	?getNumGameOptionInfos@CvGlobals@@QAEHXZ ; CvGlobals::getNumGameOptionInfos

; 314  : }

	pop	ebp
	ret	4
?GetNumGameOptionInfos@CvDllGameContext@@UAGHXZ ENDP	; CvDllGameContext::GetNumGameOptionInfos
_TEXT	ENDS
EXTRN	?getNumGameSpeedInfos@CvGlobals@@QAEHXZ:PROC	; CvGlobals::getNumGameSpeedInfos
; Function compile flags: /Odtp
;	COMDAT ?GetNumGameSpeedInfos@CvDllGameContext@@UAGHXZ
_TEXT	SEGMENT
_this$ = 8						; size = 4
?GetNumGameSpeedInfos@CvDllGameContext@@UAGHXZ PROC	; CvDllGameContext::GetNumGameSpeedInfos, COMDAT

; 317  : {

	push	ebp
	mov	ebp, esp

; 318  : 	return GC.getNumGameSpeedInfos();

	mov	ecx, OFFSET ?gGlobals@@3VCvGlobals@@A	; gGlobals
	call	?getNumGameSpeedInfos@CvGlobals@@QAEHXZ	; CvGlobals::getNumGameSpeedInfos

; 319  : }

	pop	ebp
	ret	4
?GetNumGameSpeedInfos@CvDllGameContext@@UAGHXZ ENDP	; CvDllGameContext::GetNumGameSpeedInfos
_TEXT	ENDS
EXTRN	?getNumHandicapInfos@CvGlobals@@QAEHXZ:PROC	; CvGlobals::getNumHandicapInfos
; Function compile flags: /Odtp
;	COMDAT ?GetNumHandicapInfos@CvDllGameContext@@UAGHXZ
_TEXT	SEGMENT
_this$ = 8						; size = 4
?GetNumHandicapInfos@CvDllGameContext@@UAGHXZ PROC	; CvDllGameContext::GetNumHandicapInfos, COMDAT

; 322  : {

	push	ebp
	mov	ebp, esp

; 323  : 	return GC.getNumHandicapInfos();

	mov	ecx, OFFSET ?gGlobals@@3VCvGlobals@@A	; gGlobals
	call	?getNumHandicapInfos@CvGlobals@@QAEHXZ	; CvGlobals::getNumHandicapInfos

; 324  : }

	pop	ebp
	ret	4
?GetNumHandicapInfos@CvDllGameContext@@UAGHXZ ENDP	; CvDllGameContext::GetNumHandicapInfos
_TEXT	ENDS
EXTRN	?getNumImprovementInfos@CvGlobals@@QAEHXZ:PROC	; CvGlobals::getNumImprovementInfos
; Function compile flags: /Odtp
;	COMDAT ?GetNumImprovementInfos@CvDllGameContext@@UAGHXZ
_TEXT	SEGMENT
_this$ = 8						; size = 4
?GetNumImprovementInfos@CvDllGameContext@@UAGHXZ PROC	; CvDllGameContext::GetNumImprovementInfos, COMDAT

; 327  : {

	push	ebp
	mov	ebp, esp

; 328  : 	return GC.getNumImprovementInfos();

	mov	ecx, OFFSET ?gGlobals@@3VCvGlobals@@A	; gGlobals
	call	?getNumImprovementInfos@CvGlobals@@QAEHXZ ; CvGlobals::getNumImprovementInfos

; 329  : }

	pop	ebp
	ret	4
?GetNumImprovementInfos@CvDllGameContext@@UAGHXZ ENDP	; CvDllGameContext::GetNumImprovementInfos
_TEXT	ENDS
EXTRN	?getNumLeaderHeadInfos@CvGlobals@@QAEHXZ:PROC	; CvGlobals::getNumLeaderHeadInfos
; Function compile flags: /Odtp
;	COMDAT ?GetNumLeaderHeadInfos@CvDllGameContext@@UAGHXZ
_TEXT	SEGMENT
_this$ = 8						; size = 4
?GetNumLeaderHeadInfos@CvDllGameContext@@UAGHXZ PROC	; CvDllGameContext::GetNumLeaderHeadInfos, COMDAT

; 332  : {

	push	ebp
	mov	ebp, esp

; 333  : 	return GC.getNumLeaderHeadInfos();

	mov	ecx, OFFSET ?gGlobals@@3VCvGlobals@@A	; gGlobals
	call	?getNumLeaderHeadInfos@CvGlobals@@QAEHXZ ; CvGlobals::getNumLeaderHeadInfos

; 334  : }

	pop	ebp
	ret	4
?GetNumLeaderHeadInfos@CvDllGameContext@@UAGHXZ ENDP	; CvDllGameContext::GetNumLeaderHeadInfos
_TEXT	ENDS
EXTRN	?getNumMinorCivInfos@CvGlobals@@QAEHXZ:PROC	; CvGlobals::getNumMinorCivInfos
; Function compile flags: /Odtp
;	COMDAT ?GetNumMinorCivInfos@CvDllGameContext@@UAGHXZ
_TEXT	SEGMENT
_this$ = 8						; size = 4
?GetNumMinorCivInfos@CvDllGameContext@@UAGHXZ PROC	; CvDllGameContext::GetNumMinorCivInfos, COMDAT

; 337  : {

	push	ebp
	mov	ebp, esp

; 338  : 	return GC.getNumMinorCivInfos();

	mov	ecx, OFFSET ?gGlobals@@3VCvGlobals@@A	; gGlobals
	call	?getNumMinorCivInfos@CvGlobals@@QAEHXZ	; CvGlobals::getNumMinorCivInfos

; 339  : }

	pop	ebp
	ret	4
?GetNumMinorCivInfos@CvDllGameContext@@UAGHXZ ENDP	; CvDllGameContext::GetNumMinorCivInfos
_TEXT	ENDS
EXTRN	?GetNumPlayerColorInfos@CvGlobals@@QAEHXZ:PROC	; CvGlobals::GetNumPlayerColorInfos
; Function compile flags: /Odtp
;	COMDAT ?GetNumPlayerColorInfos@CvDllGameContext@@UAGHXZ
_TEXT	SEGMENT
_this$ = 8						; size = 4
?GetNumPlayerColorInfos@CvDllGameContext@@UAGHXZ PROC	; CvDllGameContext::GetNumPlayerColorInfos, COMDAT

; 342  : {

	push	ebp
	mov	ebp, esp

; 343  : 	return GC.GetNumPlayerColorInfos();

	mov	ecx, OFFSET ?gGlobals@@3VCvGlobals@@A	; gGlobals
	call	?GetNumPlayerColorInfos@CvGlobals@@QAEHXZ ; CvGlobals::GetNumPlayerColorInfos

; 344  : }

	pop	ebp
	ret	4
?GetNumPlayerColorInfos@CvDllGameContext@@UAGHXZ ENDP	; CvDllGameContext::GetNumPlayerColorInfos
_TEXT	ENDS
EXTRN	?getNumPolicyInfos@CvGlobals@@QAEHXZ:PROC	; CvGlobals::getNumPolicyInfos
; Function compile flags: /Odtp
;	COMDAT ?GetNumPolicyInfos@CvDllGameContext@@UAGHXZ
_TEXT	SEGMENT
_this$ = 8						; size = 4
?GetNumPolicyInfos@CvDllGameContext@@UAGHXZ PROC	; CvDllGameContext::GetNumPolicyInfos, COMDAT

; 347  : {

	push	ebp
	mov	ebp, esp

; 348  : 	return GC.getNumPolicyInfos();

	mov	ecx, OFFSET ?gGlobals@@3VCvGlobals@@A	; gGlobals
	call	?getNumPolicyInfos@CvGlobals@@QAEHXZ	; CvGlobals::getNumPolicyInfos

; 349  : }

	pop	ebp
	ret	4
?GetNumPolicyInfos@CvDllGameContext@@UAGHXZ ENDP	; CvDllGameContext::GetNumPolicyInfos
_TEXT	ENDS
EXTRN	?getNumPromotionInfos@CvGlobals@@QAEHXZ:PROC	; CvGlobals::getNumPromotionInfos
; Function compile flags: /Odtp
;	COMDAT ?GetNumPromotionInfos@CvDllGameContext@@UAGHXZ
_TEXT	SEGMENT
_this$ = 8						; size = 4
?GetNumPromotionInfos@CvDllGameContext@@UAGHXZ PROC	; CvDllGameContext::GetNumPromotionInfos, COMDAT

; 352  : {

	push	ebp
	mov	ebp, esp

; 353  : 	return GC.getNumPromotionInfos();

	mov	ecx, OFFSET ?gGlobals@@3VCvGlobals@@A	; gGlobals
	call	?getNumPromotionInfos@CvGlobals@@QAEHXZ	; CvGlobals::getNumPromotionInfos

; 354  : }

	pop	ebp
	ret	4
?GetNumPromotionInfos@CvDllGameContext@@UAGHXZ ENDP	; CvDllGameContext::GetNumPromotionInfos
_TEXT	ENDS
EXTRN	?getNumResourceInfos@CvGlobals@@QAEHXZ:PROC	; CvGlobals::getNumResourceInfos
; Function compile flags: /Odtp
;	COMDAT ?GetNumResourceInfos@CvDllGameContext@@UAGHXZ
_TEXT	SEGMENT
_this$ = 8						; size = 4
?GetNumResourceInfos@CvDllGameContext@@UAGHXZ PROC	; CvDllGameContext::GetNumResourceInfos, COMDAT

; 357  : {

	push	ebp
	mov	ebp, esp

; 358  : 	return GC.getNumResourceInfos();

	mov	ecx, OFFSET ?gGlobals@@3VCvGlobals@@A	; gGlobals
	call	?getNumResourceInfos@CvGlobals@@QAEHXZ	; CvGlobals::getNumResourceInfos

; 359  : }

	pop	ebp
	ret	4
?GetNumResourceInfos@CvDllGameContext@@UAGHXZ ENDP	; CvDllGameContext::GetNumResourceInfos
_TEXT	ENDS
EXTRN	?getNumSeaLevelInfos@CvGlobals@@QAEHXZ:PROC	; CvGlobals::getNumSeaLevelInfos
; Function compile flags: /Odtp
;	COMDAT ?GetNumSeaLevelInfos@CvDllGameContext@@UAGHXZ
_TEXT	SEGMENT
_this$ = 8						; size = 4
?GetNumSeaLevelInfos@CvDllGameContext@@UAGHXZ PROC	; CvDllGameContext::GetNumSeaLevelInfos, COMDAT

; 362  : {

	push	ebp
	mov	ebp, esp

; 363  : 	return GC.getNumSeaLevelInfos();

	mov	ecx, OFFSET ?gGlobals@@3VCvGlobals@@A	; gGlobals
	call	?getNumSeaLevelInfos@CvGlobals@@QAEHXZ	; CvGlobals::getNumSeaLevelInfos

; 364  : }

	pop	ebp
	ret	4
?GetNumSeaLevelInfos@CvDllGameContext@@UAGHXZ ENDP	; CvDllGameContext::GetNumSeaLevelInfos
_TEXT	ENDS
EXTRN	?getNumTechInfos@CvGlobals@@QAEHXZ:PROC		; CvGlobals::getNumTechInfos
; Function compile flags: /Odtp
;	COMDAT ?GetNumTechInfos@CvDllGameContext@@UAGHXZ
_TEXT	SEGMENT
_this$ = 8						; size = 4
?GetNumTechInfos@CvDllGameContext@@UAGHXZ PROC		; CvDllGameContext::GetNumTechInfos, COMDAT

; 367  : {

	push	ebp
	mov	ebp, esp

; 368  : 	return GC.getNumTechInfos();

	mov	ecx, OFFSET ?gGlobals@@3VCvGlobals@@A	; gGlobals
	call	?getNumTechInfos@CvGlobals@@QAEHXZ	; CvGlobals::getNumTechInfos

; 369  : }

	pop	ebp
	ret	4
?GetNumTechInfos@CvDllGameContext@@UAGHXZ ENDP		; CvDllGameContext::GetNumTechInfos
_TEXT	ENDS
EXTRN	?getNumTerrainInfos@CvGlobals@@QAEHXZ:PROC	; CvGlobals::getNumTerrainInfos
; Function compile flags: /Odtp
;	COMDAT ?GetNumTerrainInfos@CvDllGameContext@@UAGHXZ
_TEXT	SEGMENT
_this$ = 8						; size = 4
?GetNumTerrainInfos@CvDllGameContext@@UAGHXZ PROC	; CvDllGameContext::GetNumTerrainInfos, COMDAT

; 372  : {

	push	ebp
	mov	ebp, esp

; 373  : 	return GC.getNumTerrainInfos();

	mov	ecx, OFFSET ?gGlobals@@3VCvGlobals@@A	; gGlobals
	call	?getNumTerrainInfos@CvGlobals@@QAEHXZ	; CvGlobals::getNumTerrainInfos

; 374  : }

	pop	ebp
	ret	4
?GetNumTerrainInfos@CvDllGameContext@@UAGHXZ ENDP	; CvDllGameContext::GetNumTerrainInfos
_TEXT	ENDS
EXTRN	?getNumUnitCombatClassInfos@CvGlobals@@QAEHXZ:PROC ; CvGlobals::getNumUnitCombatClassInfos
; Function compile flags: /Odtp
;	COMDAT ?GetNumUnitCombatClassInfos@CvDllGameContext@@UAGHXZ
_TEXT	SEGMENT
_this$ = 8						; size = 4
?GetNumUnitCombatClassInfos@CvDllGameContext@@UAGHXZ PROC ; CvDllGameContext::GetNumUnitCombatClassInfos, COMDAT

; 377  : {

	push	ebp
	mov	ebp, esp

; 378  : 	return GC.getNumUnitCombatClassInfos();

	mov	ecx, OFFSET ?gGlobals@@3VCvGlobals@@A	; gGlobals
	call	?getNumUnitCombatClassInfos@CvGlobals@@QAEHXZ ; CvGlobals::getNumUnitCombatClassInfos

; 379  : }

	pop	ebp
	ret	4
?GetNumUnitCombatClassInfos@CvDllGameContext@@UAGHXZ ENDP ; CvDllGameContext::GetNumUnitCombatClassInfos
_TEXT	ENDS
EXTRN	?getNumUnitInfos@CvGlobals@@QAEHXZ:PROC		; CvGlobals::getNumUnitInfos
; Function compile flags: /Odtp
;	COMDAT ?GetNumUnitInfos@CvDllGameContext@@UAGHXZ
_TEXT	SEGMENT
_this$ = 8						; size = 4
?GetNumUnitInfos@CvDllGameContext@@UAGHXZ PROC		; CvDllGameContext::GetNumUnitInfos, COMDAT

; 382  : {

	push	ebp
	mov	ebp, esp

; 383  : 	return GC.getNumUnitInfos();

	mov	ecx, OFFSET ?gGlobals@@3VCvGlobals@@A	; gGlobals
	call	?getNumUnitInfos@CvGlobals@@QAEHXZ	; CvGlobals::getNumUnitInfos

; 384  : }

	pop	ebp
	ret	4
?GetNumUnitInfos@CvDllGameContext@@UAGHXZ ENDP		; CvDllGameContext::GetNumUnitInfos
_TEXT	ENDS
EXTRN	?getNumVictoryInfos@CvGlobals@@QAEHXZ:PROC	; CvGlobals::getNumVictoryInfos
; Function compile flags: /Odtp
;	COMDAT ?GetNumVictoryInfos@CvDllGameContext@@UAGHXZ
_TEXT	SEGMENT
_this$ = 8						; size = 4
?GetNumVictoryInfos@CvDllGameContext@@UAGHXZ PROC	; CvDllGameContext::GetNumVictoryInfos, COMDAT

; 387  : {

	push	ebp
	mov	ebp, esp

; 388  : 	return GC.getNumVictoryInfos();

	mov	ecx, OFFSET ?gGlobals@@3VCvGlobals@@A	; gGlobals
	call	?getNumVictoryInfos@CvGlobals@@QAEHXZ	; CvGlobals::getNumVictoryInfos

; 389  : }

	pop	ebp
	ret	4
?GetNumVictoryInfos@CvDllGameContext@@UAGHXZ ENDP	; CvDllGameContext::GetNumVictoryInfos
_TEXT	ENDS
EXTRN	?getNumWorldInfos@CvGlobals@@QAEHXZ:PROC	; CvGlobals::getNumWorldInfos
; Function compile flags: /Odtp
;	COMDAT ?GetNumWorldInfos@CvDllGameContext@@UAGHXZ
_TEXT	SEGMENT
_this$ = 8						; size = 4
?GetNumWorldInfos@CvDllGameContext@@UAGHXZ PROC		; CvDllGameContext::GetNumWorldInfos, COMDAT

; 392  : {

	push	ebp
	mov	ebp, esp

; 393  : 	return GC.getNumWorldInfos();

	mov	ecx, OFFSET ?gGlobals@@3VCvGlobals@@A	; gGlobals
	call	?getNumWorldInfos@CvGlobals@@QAEHXZ	; CvGlobals::getNumWorldInfos

; 394  : }

	pop	ebp
	ret	4
?GetNumWorldInfos@CvDllGameContext@@UAGHXZ ENDP		; CvDllGameContext::GetNumWorldInfos
_TEXT	ENDS
EXTRN	??3CvDllBuildInfo@@SAXPAX@Z:PROC		; CvDllBuildInfo::operator delete
EXTRN	??0CvDllBuildInfo@@QAE@PAVCvBuildInfo@@@Z:PROC	; CvDllBuildInfo::CvDllBuildInfo
EXTRN	??2CvDllBuildInfo@@SAPAXI@Z:PROC		; CvDllBuildInfo::operator new
EXTRN	?getBuildInfo@CvGlobals@@QAEPAVCvBuildInfo@@W4BuildTypes@@@Z:PROC ; CvGlobals::getBuildInfo
;	COMDAT xdata$x
xdata$x	SEGMENT
__unwindtable$?GetBuildInfo@CvDllGameContext@@UAGPAVICvBuildInfo1@@W4BuildTypes@@@Z DD 0ffffffffH
	DD	FLAT:__unwindfunclet$?GetBuildInfo@CvDllGameContext@@UAGPAVICvBuildInfo1@@W4BuildTypes@@@Z$0
__ehfuncinfo$?GetBuildInfo@CvDllGameContext@@UAGPAVICvBuildInfo1@@W4BuildTypes@@@Z DD 019930522H
	DD	01H
	DD	FLAT:__unwindtable$?GetBuildInfo@CvDllGameContext@@UAGPAVICvBuildInfo1@@W4BuildTypes@@@Z
	DD	2 DUP(00H)
	DD	2 DUP(00H)
	DD	00H
	DD	01H
; Function compile flags: /Odtp
xdata$x	ENDS
;	COMDAT ?GetBuildInfo@CvDllGameContext@@UAGPAVICvBuildInfo1@@W4BuildTypes@@@Z
_TEXT	SEGMENT
tv74 = -32						; size = 4
tv79 = -28						; size = 4
$T228109 = -24						; size = 4
$T228108 = -20						; size = 4
_pkInfo$ = -16						; size = 4
__$EHRec$ = -12						; size = 12
_this$ = 8						; size = 4
_eBuildNum$ = 12					; size = 4
?GetBuildInfo@CvDllGameContext@@UAGPAVICvBuildInfo1@@W4BuildTypes@@@Z PROC ; CvDllGameContext::GetBuildInfo, COMDAT

; 397  : {

	push	ebp
	mov	ebp, esp
	push	-1
	push	__ehhandler$?GetBuildInfo@CvDllGameContext@@UAGPAVICvBuildInfo1@@W4BuildTypes@@@Z
	mov	eax, DWORD PTR fs:0
	push	eax
	sub	esp, 20					; 00000014H
	mov	eax, DWORD PTR ___security_cookie
	xor	eax, ebp
	push	eax
	lea	eax, DWORD PTR __$EHRec$[ebp]
	mov	DWORD PTR fs:0, eax

; 398  : 	CvBuildInfo* pkInfo = GC.getBuildInfo(eBuildNum);

	mov	eax, DWORD PTR _eBuildNum$[ebp]
	push	eax
	mov	ecx, OFFSET ?gGlobals@@3VCvGlobals@@A	; gGlobals
	call	?getBuildInfo@CvGlobals@@QAEPAVCvBuildInfo@@W4BuildTypes@@@Z ; CvGlobals::getBuildInfo
	mov	DWORD PTR _pkInfo$[ebp], eax

; 399  : 	return (NULL != pkInfo)? new CvDllBuildInfo(pkInfo) : NULL;

	cmp	DWORD PTR _pkInfo$[ebp], 0
	je	SHORT $LN5@GetBuildIn
	push	12					; 0000000cH
	call	??2CvDllBuildInfo@@SAPAXI@Z		; CvDllBuildInfo::operator new
	add	esp, 4
	mov	DWORD PTR $T228109[ebp], eax
	mov	DWORD PTR __$EHRec$[ebp+8], 0
	cmp	DWORD PTR $T228109[ebp], 0
	je	SHORT $LN3@GetBuildIn
	mov	ecx, DWORD PTR _pkInfo$[ebp]
	push	ecx
	mov	ecx, DWORD PTR $T228109[ebp]
	call	??0CvDllBuildInfo@@QAE@PAVCvBuildInfo@@@Z ; CvDllBuildInfo::CvDllBuildInfo
	mov	DWORD PTR tv79[ebp], eax
	jmp	SHORT $LN4@GetBuildIn
$LN3@GetBuildIn:
	mov	DWORD PTR tv79[ebp], 0
$LN4@GetBuildIn:
	mov	edx, DWORD PTR tv79[ebp]
	mov	DWORD PTR $T228108[ebp], edx
	mov	DWORD PTR __$EHRec$[ebp+8], -1
	mov	eax, DWORD PTR $T228108[ebp]
	mov	DWORD PTR tv74[ebp], eax
	jmp	SHORT $LN6@GetBuildIn
$LN5@GetBuildIn:
	mov	DWORD PTR tv74[ebp], 0
$LN6@GetBuildIn:
	mov	eax, DWORD PTR tv74[ebp]

; 400  : }

	mov	ecx, DWORD PTR __$EHRec$[ebp]
	mov	DWORD PTR fs:0, ecx
	pop	ecx
	mov	esp, ebp
	pop	ebp
	ret	8
_TEXT	ENDS
;	COMDAT text$x
text$x	SEGMENT
__unwindfunclet$?GetBuildInfo@CvDllGameContext@@UAGPAVICvBuildInfo1@@W4BuildTypes@@@Z$0:
	mov	eax, DWORD PTR $T228109[ebp]
	push	eax
	call	??3CvDllBuildInfo@@SAXPAX@Z		; CvDllBuildInfo::operator delete
	pop	ecx
	ret	0
__ehhandler$?GetBuildInfo@CvDllGameContext@@UAGPAVICvBuildInfo1@@W4BuildTypes@@@Z:
	mov	edx, DWORD PTR [esp+8]
	lea	eax, DWORD PTR [edx+12]
	mov	ecx, DWORD PTR [edx-24]
	xor	ecx, eax
	call	@__security_check_cookie@4
	mov	eax, OFFSET __ehfuncinfo$?GetBuildInfo@CvDllGameContext@@UAGPAVICvBuildInfo1@@W4BuildTypes@@@Z
	jmp	___CxxFrameHandler3
text$x	ENDS
?GetBuildInfo@CvDllGameContext@@UAGPAVICvBuildInfo1@@W4BuildTypes@@@Z ENDP ; CvDllGameContext::GetBuildInfo
EXTRN	??3CvDllBuildingInfo@@SAXPAX@Z:PROC		; CvDllBuildingInfo::operator delete
EXTRN	??0CvDllBuildingInfo@@QAE@PAVCvBuildingEntry@@@Z:PROC ; CvDllBuildingInfo::CvDllBuildingInfo
EXTRN	??2CvDllBuildingInfo@@SAPAXI@Z:PROC		; CvDllBuildingInfo::operator new
EXTRN	?getBuildingInfo@CvGlobals@@QAEPAVCvBuildingEntry@@W4BuildingTypes@@@Z:PROC ; CvGlobals::getBuildingInfo
;	COMDAT xdata$x
xdata$x	SEGMENT
__unwindtable$?GetBuildingInfo@CvDllGameContext@@UAGPAVICvBuildingInfo1@@W4BuildingTypes@@@Z DD 0ffffffffH
	DD	FLAT:__unwindfunclet$?GetBuildingInfo@CvDllGameContext@@UAGPAVICvBuildingInfo1@@W4BuildingTypes@@@Z$0
__ehfuncinfo$?GetBuildingInfo@CvDllGameContext@@UAGPAVICvBuildingInfo1@@W4BuildingTypes@@@Z DD 019930522H
	DD	01H
	DD	FLAT:__unwindtable$?GetBuildingInfo@CvDllGameContext@@UAGPAVICvBuildingInfo1@@W4BuildingTypes@@@Z
	DD	2 DUP(00H)
	DD	2 DUP(00H)
	DD	00H
	DD	01H
; Function compile flags: /Odtp
xdata$x	ENDS
;	COMDAT ?GetBuildingInfo@CvDllGameContext@@UAGPAVICvBuildingInfo1@@W4BuildingTypes@@@Z
_TEXT	SEGMENT
tv74 = -32						; size = 4
tv79 = -28						; size = 4
$T228124 = -24						; size = 4
$T228123 = -20						; size = 4
_pkEntry$ = -16						; size = 4
__$EHRec$ = -12						; size = 12
_this$ = 8						; size = 4
_eBuilding$ = 12					; size = 4
?GetBuildingInfo@CvDllGameContext@@UAGPAVICvBuildingInfo1@@W4BuildingTypes@@@Z PROC ; CvDllGameContext::GetBuildingInfo, COMDAT

; 403  : {

	push	ebp
	mov	ebp, esp
	push	-1
	push	__ehhandler$?GetBuildingInfo@CvDllGameContext@@UAGPAVICvBuildingInfo1@@W4BuildingTypes@@@Z
	mov	eax, DWORD PTR fs:0
	push	eax
	sub	esp, 20					; 00000014H
	mov	eax, DWORD PTR ___security_cookie
	xor	eax, ebp
	push	eax
	lea	eax, DWORD PTR __$EHRec$[ebp]
	mov	DWORD PTR fs:0, eax

; 404  : 	CvBuildingEntry* pkEntry = GC.getBuildingInfo(eBuilding);

	mov	eax, DWORD PTR _eBuilding$[ebp]
	push	eax
	mov	ecx, OFFSET ?gGlobals@@3VCvGlobals@@A	; gGlobals
	call	?getBuildingInfo@CvGlobals@@QAEPAVCvBuildingEntry@@W4BuildingTypes@@@Z ; CvGlobals::getBuildingInfo
	mov	DWORD PTR _pkEntry$[ebp], eax

; 405  : 	return (NULL != pkEntry)? new CvDllBuildingInfo(pkEntry) : NULL;

	cmp	DWORD PTR _pkEntry$[ebp], 0
	je	SHORT $LN5@GetBuildin
	push	12					; 0000000cH
	call	??2CvDllBuildingInfo@@SAPAXI@Z		; CvDllBuildingInfo::operator new
	add	esp, 4
	mov	DWORD PTR $T228124[ebp], eax
	mov	DWORD PTR __$EHRec$[ebp+8], 0
	cmp	DWORD PTR $T228124[ebp], 0
	je	SHORT $LN3@GetBuildin
	mov	ecx, DWORD PTR _pkEntry$[ebp]
	push	ecx
	mov	ecx, DWORD PTR $T228124[ebp]
	call	??0CvDllBuildingInfo@@QAE@PAVCvBuildingEntry@@@Z ; CvDllBuildingInfo::CvDllBuildingInfo
	mov	DWORD PTR tv79[ebp], eax
	jmp	SHORT $LN4@GetBuildin
$LN3@GetBuildin:
	mov	DWORD PTR tv79[ebp], 0
$LN4@GetBuildin:
	mov	edx, DWORD PTR tv79[ebp]
	mov	DWORD PTR $T228123[ebp], edx
	mov	DWORD PTR __$EHRec$[ebp+8], -1
	mov	eax, DWORD PTR $T228123[ebp]
	mov	DWORD PTR tv74[ebp], eax
	jmp	SHORT $LN6@GetBuildin
$LN5@GetBuildin:
	mov	DWORD PTR tv74[ebp], 0
$LN6@GetBuildin:
	mov	eax, DWORD PTR tv74[ebp]

; 406  : }

	mov	ecx, DWORD PTR __$EHRec$[ebp]
	mov	DWORD PTR fs:0, ecx
	pop	ecx
	mov	esp, ebp
	pop	ebp
	ret	8
_TEXT	ENDS
;	COMDAT text$x
text$x	SEGMENT
__unwindfunclet$?GetBuildingInfo@CvDllGameContext@@UAGPAVICvBuildingInfo1@@W4BuildingTypes@@@Z$0:
	mov	eax, DWORD PTR $T228124[ebp]
	push	eax
	call	??3CvDllBuildingInfo@@SAXPAX@Z		; CvDllBuildingInfo::operator delete
	pop	ecx
	ret	0
__ehhandler$?GetBuildingInfo@CvDllGameContext@@UAGPAVICvBuildingInfo1@@W4BuildingTypes@@@Z:
	mov	edx, DWORD PTR [esp+8]
	lea	eax, DWORD PTR [edx+12]
	mov	ecx, DWORD PTR [edx-24]
	xor	ecx, eax
	call	@__security_check_cookie@4
	mov	eax, OFFSET __ehfuncinfo$?GetBuildingInfo@CvDllGameContext@@UAGPAVICvBuildingInfo1@@W4BuildingTypes@@@Z
	jmp	___CxxFrameHandler3
text$x	ENDS
?GetBuildingInfo@CvDllGameContext@@UAGPAVICvBuildingInfo1@@W4BuildingTypes@@@Z ENDP ; CvDllGameContext::GetBuildingInfo
EXTRN	??3CvDllCivilizationInfo@@SAXPAX@Z:PROC		; CvDllCivilizationInfo::operator delete
EXTRN	??0CvDllCivilizationInfo@@QAE@PAVCvCivilizationInfo@@@Z:PROC ; CvDllCivilizationInfo::CvDllCivilizationInfo
EXTRN	??2CvDllCivilizationInfo@@SAPAXI@Z:PROC		; CvDllCivilizationInfo::operator new
EXTRN	?getCivilizationInfo@CvGlobals@@QAEPAVCvCivilizationInfo@@W4CivilizationTypes@@@Z:PROC ; CvGlobals::getCivilizationInfo
;	COMDAT xdata$x
xdata$x	SEGMENT
__unwindtable$?GetCivilizationInfo@CvDllGameContext@@UAGPAVICvCivilizationInfo1@@W4CivilizationTypes@@@Z DD 0ffffffffH
	DD	FLAT:__unwindfunclet$?GetCivilizationInfo@CvDllGameContext@@UAGPAVICvCivilizationInfo1@@W4CivilizationTypes@@@Z$0
__ehfuncinfo$?GetCivilizationInfo@CvDllGameContext@@UAGPAVICvCivilizationInfo1@@W4CivilizationTypes@@@Z DD 019930522H
	DD	01H
	DD	FLAT:__unwindtable$?GetCivilizationInfo@CvDllGameContext@@UAGPAVICvCivilizationInfo1@@W4CivilizationTypes@@@Z
	DD	2 DUP(00H)
	DD	2 DUP(00H)
	DD	00H
	DD	01H
; Function compile flags: /Odtp
xdata$x	ENDS
;	COMDAT ?GetCivilizationInfo@CvDllGameContext@@UAGPAVICvCivilizationInfo1@@W4CivilizationTypes@@@Z
_TEXT	SEGMENT
tv74 = -32						; size = 4
tv79 = -28						; size = 4
$T228139 = -24						; size = 4
$T228138 = -20						; size = 4
_pkInfo$ = -16						; size = 4
__$EHRec$ = -12						; size = 12
_this$ = 8						; size = 4
_eCivilizationNum$ = 12					; size = 4
?GetCivilizationInfo@CvDllGameContext@@UAGPAVICvCivilizationInfo1@@W4CivilizationTypes@@@Z PROC ; CvDllGameContext::GetCivilizationInfo, COMDAT

; 409  : {

	push	ebp
	mov	ebp, esp
	push	-1
	push	__ehhandler$?GetCivilizationInfo@CvDllGameContext@@UAGPAVICvCivilizationInfo1@@W4CivilizationTypes@@@Z
	mov	eax, DWORD PTR fs:0
	push	eax
	sub	esp, 20					; 00000014H
	mov	eax, DWORD PTR ___security_cookie
	xor	eax, ebp
	push	eax
	lea	eax, DWORD PTR __$EHRec$[ebp]
	mov	DWORD PTR fs:0, eax

; 410  : 	CvCivilizationInfo* pkInfo = GC.getCivilizationInfo(eCivilizationNum);

	mov	eax, DWORD PTR _eCivilizationNum$[ebp]
	push	eax
	mov	ecx, OFFSET ?gGlobals@@3VCvGlobals@@A	; gGlobals
	call	?getCivilizationInfo@CvGlobals@@QAEPAVCvCivilizationInfo@@W4CivilizationTypes@@@Z ; CvGlobals::getCivilizationInfo
	mov	DWORD PTR _pkInfo$[ebp], eax

; 411  : 	return (NULL != pkInfo)? new CvDllCivilizationInfo(pkInfo) : NULL;

	cmp	DWORD PTR _pkInfo$[ebp], 0
	je	SHORT $LN5@GetCiviliz
	push	12					; 0000000cH
	call	??2CvDllCivilizationInfo@@SAPAXI@Z	; CvDllCivilizationInfo::operator new
	add	esp, 4
	mov	DWORD PTR $T228139[ebp], eax
	mov	DWORD PTR __$EHRec$[ebp+8], 0
	cmp	DWORD PTR $T228139[ebp], 0
	je	SHORT $LN3@GetCiviliz
	mov	ecx, DWORD PTR _pkInfo$[ebp]
	push	ecx
	mov	ecx, DWORD PTR $T228139[ebp]
	call	??0CvDllCivilizationInfo@@QAE@PAVCvCivilizationInfo@@@Z ; CvDllCivilizationInfo::CvDllCivilizationInfo
	mov	DWORD PTR tv79[ebp], eax
	jmp	SHORT $LN4@GetCiviliz
$LN3@GetCiviliz:
	mov	DWORD PTR tv79[ebp], 0
$LN4@GetCiviliz:
	mov	edx, DWORD PTR tv79[ebp]
	mov	DWORD PTR $T228138[ebp], edx
	mov	DWORD PTR __$EHRec$[ebp+8], -1
	mov	eax, DWORD PTR $T228138[ebp]
	mov	DWORD PTR tv74[ebp], eax
	jmp	SHORT $LN6@GetCiviliz
$LN5@GetCiviliz:
	mov	DWORD PTR tv74[ebp], 0
$LN6@GetCiviliz:
	mov	eax, DWORD PTR tv74[ebp]

; 412  : }

	mov	ecx, DWORD PTR __$EHRec$[ebp]
	mov	DWORD PTR fs:0, ecx
	pop	ecx
	mov	esp, ebp
	pop	ebp
	ret	8
_TEXT	ENDS
;	COMDAT text$x
text$x	SEGMENT
__unwindfunclet$?GetCivilizationInfo@CvDllGameContext@@UAGPAVICvCivilizationInfo1@@W4CivilizationTypes@@@Z$0:
	mov	eax, DWORD PTR $T228139[ebp]
	push	eax
	call	??3CvDllCivilizationInfo@@SAXPAX@Z	; CvDllCivilizationInfo::operator delete
	pop	ecx
	ret	0
__ehhandler$?GetCivilizationInfo@CvDllGameContext@@UAGPAVICvCivilizationInfo1@@W4CivilizationTypes@@@Z:
	mov	edx, DWORD PTR [esp+8]
	lea	eax, DWORD PTR [edx+12]
	mov	ecx, DWORD PTR [edx-24]
	xor	ecx, eax
	call	@__security_check_cookie@4
	mov	eax, OFFSET __ehfuncinfo$?GetCivilizationInfo@CvDllGameContext@@UAGPAVICvCivilizationInfo1@@W4CivilizationTypes@@@Z
	jmp	___CxxFrameHandler3
text$x	ENDS
?GetCivilizationInfo@CvDllGameContext@@UAGPAVICvCivilizationInfo1@@W4CivilizationTypes@@@Z ENDP ; CvDllGameContext::GetCivilizationInfo
EXTRN	??3CvDllColorInfo@@SAXPAX@Z:PROC		; CvDllColorInfo::operator delete
EXTRN	??0CvDllColorInfo@@QAE@PAVCvColorInfo@@@Z:PROC	; CvDllColorInfo::CvDllColorInfo
EXTRN	??2CvDllColorInfo@@SAPAXI@Z:PROC		; CvDllColorInfo::operator new
EXTRN	?GetColorInfo@CvGlobals@@QAEPAVCvColorInfo@@W4ColorTypes@@@Z:PROC ; CvGlobals::GetColorInfo
;	COMDAT xdata$x
xdata$x	SEGMENT
__unwindtable$?GetColorInfo@CvDllGameContext@@UAGPAVICvColorInfo1@@W4ColorTypes@@@Z DD 0ffffffffH
	DD	FLAT:__unwindfunclet$?GetColorInfo@CvDllGameContext@@UAGPAVICvColorInfo1@@W4ColorTypes@@@Z$0
__ehfuncinfo$?GetColorInfo@CvDllGameContext@@UAGPAVICvColorInfo1@@W4ColorTypes@@@Z DD 019930522H
	DD	01H
	DD	FLAT:__unwindtable$?GetColorInfo@CvDllGameContext@@UAGPAVICvColorInfo1@@W4ColorTypes@@@Z
	DD	2 DUP(00H)
	DD	2 DUP(00H)
	DD	00H
	DD	01H
; Function compile flags: /Odtp
xdata$x	ENDS
;	COMDAT ?GetColorInfo@CvDllGameContext@@UAGPAVICvColorInfo1@@W4ColorTypes@@@Z
_TEXT	SEGMENT
tv74 = -32						; size = 4
tv79 = -28						; size = 4
$T228154 = -24						; size = 4
$T228153 = -20						; size = 4
_pkInfo$ = -16						; size = 4
__$EHRec$ = -12						; size = 12
_this$ = 8						; size = 4
_e$ = 12						; size = 4
?GetColorInfo@CvDllGameContext@@UAGPAVICvColorInfo1@@W4ColorTypes@@@Z PROC ; CvDllGameContext::GetColorInfo, COMDAT

; 415  : {

	push	ebp
	mov	ebp, esp
	push	-1
	push	__ehhandler$?GetColorInfo@CvDllGameContext@@UAGPAVICvColorInfo1@@W4ColorTypes@@@Z
	mov	eax, DWORD PTR fs:0
	push	eax
	sub	esp, 20					; 00000014H
	mov	eax, DWORD PTR ___security_cookie
	xor	eax, ebp
	push	eax
	lea	eax, DWORD PTR __$EHRec$[ebp]
	mov	DWORD PTR fs:0, eax

; 416  : 	CvColorInfo* pkInfo = GC.GetColorInfo(e);

	mov	eax, DWORD PTR _e$[ebp]
	push	eax
	mov	ecx, OFFSET ?gGlobals@@3VCvGlobals@@A	; gGlobals
	call	?GetColorInfo@CvGlobals@@QAEPAVCvColorInfo@@W4ColorTypes@@@Z ; CvGlobals::GetColorInfo
	mov	DWORD PTR _pkInfo$[ebp], eax

; 417  : 	return (NULL != pkInfo)? new CvDllColorInfo(pkInfo) : NULL;

	cmp	DWORD PTR _pkInfo$[ebp], 0
	je	SHORT $LN5@GetColorIn
	push	12					; 0000000cH
	call	??2CvDllColorInfo@@SAPAXI@Z		; CvDllColorInfo::operator new
	add	esp, 4
	mov	DWORD PTR $T228154[ebp], eax
	mov	DWORD PTR __$EHRec$[ebp+8], 0
	cmp	DWORD PTR $T228154[ebp], 0
	je	SHORT $LN3@GetColorIn
	mov	ecx, DWORD PTR _pkInfo$[ebp]
	push	ecx
	mov	ecx, DWORD PTR $T228154[ebp]
	call	??0CvDllColorInfo@@QAE@PAVCvColorInfo@@@Z ; CvDllColorInfo::CvDllColorInfo
	mov	DWORD PTR tv79[ebp], eax
	jmp	SHORT $LN4@GetColorIn
$LN3@GetColorIn:
	mov	DWORD PTR tv79[ebp], 0
$LN4@GetColorIn:
	mov	edx, DWORD PTR tv79[ebp]
	mov	DWORD PTR $T228153[ebp], edx
	mov	DWORD PTR __$EHRec$[ebp+8], -1
	mov	eax, DWORD PTR $T228153[ebp]
	mov	DWORD PTR tv74[ebp], eax
	jmp	SHORT $LN6@GetColorIn
$LN5@GetColorIn:
	mov	DWORD PTR tv74[ebp], 0
$LN6@GetColorIn:
	mov	eax, DWORD PTR tv74[ebp]

; 418  : }

	mov	ecx, DWORD PTR __$EHRec$[ebp]
	mov	DWORD PTR fs:0, ecx
	pop	ecx
	mov	esp, ebp
	pop	ebp
	ret	8
_TEXT	ENDS
;	COMDAT text$x
text$x	SEGMENT
__unwindfunclet$?GetColorInfo@CvDllGameContext@@UAGPAVICvColorInfo1@@W4ColorTypes@@@Z$0:
	mov	eax, DWORD PTR $T228154[ebp]
	push	eax
	call	??3CvDllColorInfo@@SAXPAX@Z		; CvDllColorInfo::operator delete
	pop	ecx
	ret	0
__ehhandler$?GetColorInfo@CvDllGameContext@@UAGPAVICvColorInfo1@@W4ColorTypes@@@Z:
	mov	edx, DWORD PTR [esp+8]
	lea	eax, DWORD PTR [edx+12]
	mov	ecx, DWORD PTR [edx-24]
	xor	ecx, eax
	call	@__security_check_cookie@4
	mov	eax, OFFSET __ehfuncinfo$?GetColorInfo@CvDllGameContext@@UAGPAVICvColorInfo1@@W4ColorTypes@@@Z
	jmp	___CxxFrameHandler3
text$x	ENDS
?GetColorInfo@CvDllGameContext@@UAGPAVICvColorInfo1@@W4ColorTypes@@@Z ENDP ; CvDllGameContext::GetColorInfo
EXTRN	??3CvDllEraInfo@@SAXPAX@Z:PROC			; CvDllEraInfo::operator delete
EXTRN	??0CvDllEraInfo@@QAE@PAVCvEraInfo@@@Z:PROC	; CvDllEraInfo::CvDllEraInfo
EXTRN	??2CvDllEraInfo@@SAPAXI@Z:PROC			; CvDllEraInfo::operator new
EXTRN	?getEraInfo@CvGlobals@@QAEPAVCvEraInfo@@W4EraTypes@@@Z:PROC ; CvGlobals::getEraInfo
;	COMDAT xdata$x
xdata$x	SEGMENT
__unwindtable$?GetEraInfo@CvDllGameContext@@UAGPAVICvEraInfo1@@W4EraTypes@@@Z DD 0ffffffffH
	DD	FLAT:__unwindfunclet$?GetEraInfo@CvDllGameContext@@UAGPAVICvEraInfo1@@W4EraTypes@@@Z$0
__ehfuncinfo$?GetEraInfo@CvDllGameContext@@UAGPAVICvEraInfo1@@W4EraTypes@@@Z DD 019930522H
	DD	01H
	DD	FLAT:__unwindtable$?GetEraInfo@CvDllGameContext@@UAGPAVICvEraInfo1@@W4EraTypes@@@Z
	DD	2 DUP(00H)
	DD	2 DUP(00H)
	DD	00H
	DD	01H
; Function compile flags: /Odtp
xdata$x	ENDS
;	COMDAT ?GetEraInfo@CvDllGameContext@@UAGPAVICvEraInfo1@@W4EraTypes@@@Z
_TEXT	SEGMENT
tv74 = -32						; size = 4
tv79 = -28						; size = 4
$T228169 = -24						; size = 4
$T228168 = -20						; size = 4
_pkInfo$ = -16						; size = 4
__$EHRec$ = -12						; size = 12
_this$ = 8						; size = 4
_eEraNum$ = 12						; size = 4
?GetEraInfo@CvDllGameContext@@UAGPAVICvEraInfo1@@W4EraTypes@@@Z PROC ; CvDllGameContext::GetEraInfo, COMDAT

; 421  : {

	push	ebp
	mov	ebp, esp
	push	-1
	push	__ehhandler$?GetEraInfo@CvDllGameContext@@UAGPAVICvEraInfo1@@W4EraTypes@@@Z
	mov	eax, DWORD PTR fs:0
	push	eax
	sub	esp, 20					; 00000014H
	mov	eax, DWORD PTR ___security_cookie
	xor	eax, ebp
	push	eax
	lea	eax, DWORD PTR __$EHRec$[ebp]
	mov	DWORD PTR fs:0, eax

; 422  : 	CvEraInfo* pkInfo = GC.getEraInfo(eEraNum);

	mov	eax, DWORD PTR _eEraNum$[ebp]
	push	eax
	mov	ecx, OFFSET ?gGlobals@@3VCvGlobals@@A	; gGlobals
	call	?getEraInfo@CvGlobals@@QAEPAVCvEraInfo@@W4EraTypes@@@Z ; CvGlobals::getEraInfo
	mov	DWORD PTR _pkInfo$[ebp], eax

; 423  : 	return (NULL != pkInfo)? new CvDllEraInfo(pkInfo) : NULL;

	cmp	DWORD PTR _pkInfo$[ebp], 0
	je	SHORT $LN5@GetEraInfo
	push	12					; 0000000cH
	call	??2CvDllEraInfo@@SAPAXI@Z		; CvDllEraInfo::operator new
	add	esp, 4
	mov	DWORD PTR $T228169[ebp], eax
	mov	DWORD PTR __$EHRec$[ebp+8], 0
	cmp	DWORD PTR $T228169[ebp], 0
	je	SHORT $LN3@GetEraInfo
	mov	ecx, DWORD PTR _pkInfo$[ebp]
	push	ecx
	mov	ecx, DWORD PTR $T228169[ebp]
	call	??0CvDllEraInfo@@QAE@PAVCvEraInfo@@@Z	; CvDllEraInfo::CvDllEraInfo
	mov	DWORD PTR tv79[ebp], eax
	jmp	SHORT $LN4@GetEraInfo
$LN3@GetEraInfo:
	mov	DWORD PTR tv79[ebp], 0
$LN4@GetEraInfo:
	mov	edx, DWORD PTR tv79[ebp]
	mov	DWORD PTR $T228168[ebp], edx
	mov	DWORD PTR __$EHRec$[ebp+8], -1
	mov	eax, DWORD PTR $T228168[ebp]
	mov	DWORD PTR tv74[ebp], eax
	jmp	SHORT $LN6@GetEraInfo
$LN5@GetEraInfo:
	mov	DWORD PTR tv74[ebp], 0
$LN6@GetEraInfo:
	mov	eax, DWORD PTR tv74[ebp]

; 424  : }

	mov	ecx, DWORD PTR __$EHRec$[ebp]
	mov	DWORD PTR fs:0, ecx
	pop	ecx
	mov	esp, ebp
	pop	ebp
	ret	8
_TEXT	ENDS
;	COMDAT text$x
text$x	SEGMENT
__unwindfunclet$?GetEraInfo@CvDllGameContext@@UAGPAVICvEraInfo1@@W4EraTypes@@@Z$0:
	mov	eax, DWORD PTR $T228169[ebp]
	push	eax
	call	??3CvDllEraInfo@@SAXPAX@Z		; CvDllEraInfo::operator delete
	pop	ecx
	ret	0
__ehhandler$?GetEraInfo@CvDllGameContext@@UAGPAVICvEraInfo1@@W4EraTypes@@@Z:
	mov	edx, DWORD PTR [esp+8]
	lea	eax, DWORD PTR [edx+12]
	mov	ecx, DWORD PTR [edx-24]
	xor	ecx, eax
	call	@__security_check_cookie@4
	mov	eax, OFFSET __ehfuncinfo$?GetEraInfo@CvDllGameContext@@UAGPAVICvEraInfo1@@W4EraTypes@@@Z
	jmp	___CxxFrameHandler3
text$x	ENDS
?GetEraInfo@CvDllGameContext@@UAGPAVICvEraInfo1@@W4EraTypes@@@Z ENDP ; CvDllGameContext::GetEraInfo
EXTRN	??3CvDllFeatureInfo@@SAXPAX@Z:PROC		; CvDllFeatureInfo::operator delete
EXTRN	??0CvDllFeatureInfo@@QAE@PAVCvFeatureInfo@@@Z:PROC ; CvDllFeatureInfo::CvDllFeatureInfo
EXTRN	??2CvDllFeatureInfo@@SAPAXI@Z:PROC		; CvDllFeatureInfo::operator new
EXTRN	?getFeatureInfo@CvGlobals@@QAEPAVCvFeatureInfo@@W4FeatureTypes@@@Z:PROC ; CvGlobals::getFeatureInfo
;	COMDAT xdata$x
xdata$x	SEGMENT
__unwindtable$?GetFeatureInfo@CvDllGameContext@@UAGPAVICvFeatureInfo1@@W4FeatureTypes@@@Z DD 0ffffffffH
	DD	FLAT:__unwindfunclet$?GetFeatureInfo@CvDllGameContext@@UAGPAVICvFeatureInfo1@@W4FeatureTypes@@@Z$0
__ehfuncinfo$?GetFeatureInfo@CvDllGameContext@@UAGPAVICvFeatureInfo1@@W4FeatureTypes@@@Z DD 019930522H
	DD	01H
	DD	FLAT:__unwindtable$?GetFeatureInfo@CvDllGameContext@@UAGPAVICvFeatureInfo1@@W4FeatureTypes@@@Z
	DD	2 DUP(00H)
	DD	2 DUP(00H)
	DD	00H
	DD	01H
; Function compile flags: /Odtp
xdata$x	ENDS
;	COMDAT ?GetFeatureInfo@CvDllGameContext@@UAGPAVICvFeatureInfo1@@W4FeatureTypes@@@Z
_TEXT	SEGMENT
tv74 = -32						; size = 4
tv79 = -28						; size = 4
$T228184 = -24						; size = 4
$T228183 = -20						; size = 4
_pkInfo$ = -16						; size = 4
__$EHRec$ = -12						; size = 12
_this$ = 8						; size = 4
_eFeatureNum$ = 12					; size = 4
?GetFeatureInfo@CvDllGameContext@@UAGPAVICvFeatureInfo1@@W4FeatureTypes@@@Z PROC ; CvDllGameContext::GetFeatureInfo, COMDAT

; 427  : {

	push	ebp
	mov	ebp, esp
	push	-1
	push	__ehhandler$?GetFeatureInfo@CvDllGameContext@@UAGPAVICvFeatureInfo1@@W4FeatureTypes@@@Z
	mov	eax, DWORD PTR fs:0
	push	eax
	sub	esp, 20					; 00000014H
	mov	eax, DWORD PTR ___security_cookie
	xor	eax, ebp
	push	eax
	lea	eax, DWORD PTR __$EHRec$[ebp]
	mov	DWORD PTR fs:0, eax

; 428  : 	CvFeatureInfo* pkInfo = GC.getFeatureInfo(eFeatureNum);

	mov	eax, DWORD PTR _eFeatureNum$[ebp]
	push	eax
	mov	ecx, OFFSET ?gGlobals@@3VCvGlobals@@A	; gGlobals
	call	?getFeatureInfo@CvGlobals@@QAEPAVCvFeatureInfo@@W4FeatureTypes@@@Z ; CvGlobals::getFeatureInfo
	mov	DWORD PTR _pkInfo$[ebp], eax

; 429  : 	return (NULL != pkInfo)? new CvDllFeatureInfo(pkInfo) : NULL;

	cmp	DWORD PTR _pkInfo$[ebp], 0
	je	SHORT $LN5@GetFeature
	push	12					; 0000000cH
	call	??2CvDllFeatureInfo@@SAPAXI@Z		; CvDllFeatureInfo::operator new
	add	esp, 4
	mov	DWORD PTR $T228184[ebp], eax
	mov	DWORD PTR __$EHRec$[ebp+8], 0
	cmp	DWORD PTR $T228184[ebp], 0
	je	SHORT $LN3@GetFeature
	mov	ecx, DWORD PTR _pkInfo$[ebp]
	push	ecx
	mov	ecx, DWORD PTR $T228184[ebp]
	call	??0CvDllFeatureInfo@@QAE@PAVCvFeatureInfo@@@Z ; CvDllFeatureInfo::CvDllFeatureInfo
	mov	DWORD PTR tv79[ebp], eax
	jmp	SHORT $LN4@GetFeature
$LN3@GetFeature:
	mov	DWORD PTR tv79[ebp], 0
$LN4@GetFeature:
	mov	edx, DWORD PTR tv79[ebp]
	mov	DWORD PTR $T228183[ebp], edx
	mov	DWORD PTR __$EHRec$[ebp+8], -1
	mov	eax, DWORD PTR $T228183[ebp]
	mov	DWORD PTR tv74[ebp], eax
	jmp	SHORT $LN6@GetFeature
$LN5@GetFeature:
	mov	DWORD PTR tv74[ebp], 0
$LN6@GetFeature:
	mov	eax, DWORD PTR tv74[ebp]

; 430  : }

	mov	ecx, DWORD PTR __$EHRec$[ebp]
	mov	DWORD PTR fs:0, ecx
	pop	ecx
	mov	esp, ebp
	pop	ebp
	ret	8
_TEXT	ENDS
;	COMDAT text$x
text$x	SEGMENT
__unwindfunclet$?GetFeatureInfo@CvDllGameContext@@UAGPAVICvFeatureInfo1@@W4FeatureTypes@@@Z$0:
	mov	eax, DWORD PTR $T228184[ebp]
	push	eax
	call	??3CvDllFeatureInfo@@SAXPAX@Z		; CvDllFeatureInfo::operator delete
	pop	ecx
	ret	0
__ehhandler$?GetFeatureInfo@CvDllGameContext@@UAGPAVICvFeatureInfo1@@W4FeatureTypes@@@Z:
	mov	edx, DWORD PTR [esp+8]
	lea	eax, DWORD PTR [edx+12]
	mov	ecx, DWORD PTR [edx-24]
	xor	ecx, eax
	call	@__security_check_cookie@4
	mov	eax, OFFSET __ehfuncinfo$?GetFeatureInfo@CvDllGameContext@@UAGPAVICvFeatureInfo1@@W4FeatureTypes@@@Z
	jmp	___CxxFrameHandler3
text$x	ENDS
?GetFeatureInfo@CvDllGameContext@@UAGPAVICvFeatureInfo1@@W4FeatureTypes@@@Z ENDP ; CvDllGameContext::GetFeatureInfo
EXTRN	??3CvDllGameOptionInfo@@SAXPAX@Z:PROC		; CvDllGameOptionInfo::operator delete
EXTRN	??0CvDllGameOptionInfo@@QAE@PAVCvGameOptionInfo@@@Z:PROC ; CvDllGameOptionInfo::CvDllGameOptionInfo
EXTRN	??2CvDllGameOptionInfo@@SAPAXI@Z:PROC		; CvDllGameOptionInfo::operator new
EXTRN	?getGameOptionInfo@CvGlobals@@QAEPAVCvGameOptionInfo@@W4GameOptionTypes@@@Z:PROC ; CvGlobals::getGameOptionInfo
;	COMDAT xdata$x
xdata$x	SEGMENT
__unwindtable$?GetGameOptionInfo@CvDllGameContext@@UAGPAVICvGameOptionInfo1@@W4GameOptionTypes@@@Z DD 0ffffffffH
	DD	FLAT:__unwindfunclet$?GetGameOptionInfo@CvDllGameContext@@UAGPAVICvGameOptionInfo1@@W4GameOptionTypes@@@Z$0
__ehfuncinfo$?GetGameOptionInfo@CvDllGameContext@@UAGPAVICvGameOptionInfo1@@W4GameOptionTypes@@@Z DD 019930522H
	DD	01H
	DD	FLAT:__unwindtable$?GetGameOptionInfo@CvDllGameContext@@UAGPAVICvGameOptionInfo1@@W4GameOptionTypes@@@Z
	DD	2 DUP(00H)
	DD	2 DUP(00H)
	DD	00H
	DD	01H
; Function compile flags: /Odtp
xdata$x	ENDS
;	COMDAT ?GetGameOptionInfo@CvDllGameContext@@UAGPAVICvGameOptionInfo1@@W4GameOptionTypes@@@Z
_TEXT	SEGMENT
tv74 = -32						; size = 4
tv79 = -28						; size = 4
$T228199 = -24						; size = 4
$T228198 = -20						; size = 4
_pkInfo$ = -16						; size = 4
__$EHRec$ = -12						; size = 12
_this$ = 8						; size = 4
_eGameOptionNum$ = 12					; size = 4
?GetGameOptionInfo@CvDllGameContext@@UAGPAVICvGameOptionInfo1@@W4GameOptionTypes@@@Z PROC ; CvDllGameContext::GetGameOptionInfo, COMDAT

; 433  : {

	push	ebp
	mov	ebp, esp
	push	-1
	push	__ehhandler$?GetGameOptionInfo@CvDllGameContext@@UAGPAVICvGameOptionInfo1@@W4GameOptionTypes@@@Z
	mov	eax, DWORD PTR fs:0
	push	eax
	sub	esp, 20					; 00000014H
	mov	eax, DWORD PTR ___security_cookie
	xor	eax, ebp
	push	eax
	lea	eax, DWORD PTR __$EHRec$[ebp]
	mov	DWORD PTR fs:0, eax

; 434  : 	CvGameOptionInfo* pkInfo = GC.getGameOptionInfo(eGameOptionNum);

	mov	eax, DWORD PTR _eGameOptionNum$[ebp]
	push	eax
	mov	ecx, OFFSET ?gGlobals@@3VCvGlobals@@A	; gGlobals
	call	?getGameOptionInfo@CvGlobals@@QAEPAVCvGameOptionInfo@@W4GameOptionTypes@@@Z ; CvGlobals::getGameOptionInfo
	mov	DWORD PTR _pkInfo$[ebp], eax

; 435  : 	return (NULL != pkInfo)? new CvDllGameOptionInfo(pkInfo) : NULL;

	cmp	DWORD PTR _pkInfo$[ebp], 0
	je	SHORT $LN5@GetGameOpt
	push	12					; 0000000cH
	call	??2CvDllGameOptionInfo@@SAPAXI@Z	; CvDllGameOptionInfo::operator new
	add	esp, 4
	mov	DWORD PTR $T228199[ebp], eax
	mov	DWORD PTR __$EHRec$[ebp+8], 0
	cmp	DWORD PTR $T228199[ebp], 0
	je	SHORT $LN3@GetGameOpt
	mov	ecx, DWORD PTR _pkInfo$[ebp]
	push	ecx
	mov	ecx, DWORD PTR $T228199[ebp]
	call	??0CvDllGameOptionInfo@@QAE@PAVCvGameOptionInfo@@@Z ; CvDllGameOptionInfo::CvDllGameOptionInfo
	mov	DWORD PTR tv79[ebp], eax
	jmp	SHORT $LN4@GetGameOpt
$LN3@GetGameOpt:
	mov	DWORD PTR tv79[ebp], 0
$LN4@GetGameOpt:
	mov	edx, DWORD PTR tv79[ebp]
	mov	DWORD PTR $T228198[ebp], edx
	mov	DWORD PTR __$EHRec$[ebp+8], -1
	mov	eax, DWORD PTR $T228198[ebp]
	mov	DWORD PTR tv74[ebp], eax
	jmp	SHORT $LN6@GetGameOpt
$LN5@GetGameOpt:
	mov	DWORD PTR tv74[ebp], 0
$LN6@GetGameOpt:
	mov	eax, DWORD PTR tv74[ebp]

; 436  : }

	mov	ecx, DWORD PTR __$EHRec$[ebp]
	mov	DWORD PTR fs:0, ecx
	pop	ecx
	mov	esp, ebp
	pop	ebp
	ret	8
_TEXT	ENDS
;	COMDAT text$x
text$x	SEGMENT
__unwindfunclet$?GetGameOptionInfo@CvDllGameContext@@UAGPAVICvGameOptionInfo1@@W4GameOptionTypes@@@Z$0:
	mov	eax, DWORD PTR $T228199[ebp]
	push	eax
	call	??3CvDllGameOptionInfo@@SAXPAX@Z	; CvDllGameOptionInfo::operator delete
	pop	ecx
	ret	0
__ehhandler$?GetGameOptionInfo@CvDllGameContext@@UAGPAVICvGameOptionInfo1@@W4GameOptionTypes@@@Z:
	mov	edx, DWORD PTR [esp+8]
	lea	eax, DWORD PTR [edx+12]
	mov	ecx, DWORD PTR [edx-24]
	xor	ecx, eax
	call	@__security_check_cookie@4
	mov	eax, OFFSET __ehfuncinfo$?GetGameOptionInfo@CvDllGameContext@@UAGPAVICvGameOptionInfo1@@W4GameOptionTypes@@@Z
	jmp	___CxxFrameHandler3
text$x	ENDS
?GetGameOptionInfo@CvDllGameContext@@UAGPAVICvGameOptionInfo1@@W4GameOptionTypes@@@Z ENDP ; CvDllGameContext::GetGameOptionInfo
EXTRN	??3CvDllGameSpeedInfo@@SAXPAX@Z:PROC		; CvDllGameSpeedInfo::operator delete
EXTRN	??0CvDllGameSpeedInfo@@QAE@PAVCvGameSpeedInfo@@@Z:PROC ; CvDllGameSpeedInfo::CvDllGameSpeedInfo
EXTRN	??2CvDllGameSpeedInfo@@SAPAXI@Z:PROC		; CvDllGameSpeedInfo::operator new
EXTRN	?getGameSpeedInfo@CvGlobals@@QAEPAVCvGameSpeedInfo@@W4GameSpeedTypes@@@Z:PROC ; CvGlobals::getGameSpeedInfo
;	COMDAT xdata$x
xdata$x	SEGMENT
__unwindtable$?GetGameSpeedInfo@CvDllGameContext@@UAGPAVICvGameSpeedInfo1@@W4GameSpeedTypes@@@Z DD 0ffffffffH
	DD	FLAT:__unwindfunclet$?GetGameSpeedInfo@CvDllGameContext@@UAGPAVICvGameSpeedInfo1@@W4GameSpeedTypes@@@Z$0
__ehfuncinfo$?GetGameSpeedInfo@CvDllGameContext@@UAGPAVICvGameSpeedInfo1@@W4GameSpeedTypes@@@Z DD 019930522H
	DD	01H
	DD	FLAT:__unwindtable$?GetGameSpeedInfo@CvDllGameContext@@UAGPAVICvGameSpeedInfo1@@W4GameSpeedTypes@@@Z
	DD	2 DUP(00H)
	DD	2 DUP(00H)
	DD	00H
	DD	01H
; Function compile flags: /Odtp
xdata$x	ENDS
;	COMDAT ?GetGameSpeedInfo@CvDllGameContext@@UAGPAVICvGameSpeedInfo1@@W4GameSpeedTypes@@@Z
_TEXT	SEGMENT
tv74 = -32						; size = 4
tv79 = -28						; size = 4
$T228214 = -24						; size = 4
$T228213 = -20						; size = 4
_pkInfo$ = -16						; size = 4
__$EHRec$ = -12						; size = 12
_this$ = 8						; size = 4
_eGameSpeedNum$ = 12					; size = 4
?GetGameSpeedInfo@CvDllGameContext@@UAGPAVICvGameSpeedInfo1@@W4GameSpeedTypes@@@Z PROC ; CvDllGameContext::GetGameSpeedInfo, COMDAT

; 439  : {

	push	ebp
	mov	ebp, esp
	push	-1
	push	__ehhandler$?GetGameSpeedInfo@CvDllGameContext@@UAGPAVICvGameSpeedInfo1@@W4GameSpeedTypes@@@Z
	mov	eax, DWORD PTR fs:0
	push	eax
	sub	esp, 20					; 00000014H
	mov	eax, DWORD PTR ___security_cookie
	xor	eax, ebp
	push	eax
	lea	eax, DWORD PTR __$EHRec$[ebp]
	mov	DWORD PTR fs:0, eax

; 440  : 	CvGameSpeedInfo* pkInfo = GC.getGameSpeedInfo(eGameSpeedNum);

	mov	eax, DWORD PTR _eGameSpeedNum$[ebp]
	push	eax
	mov	ecx, OFFSET ?gGlobals@@3VCvGlobals@@A	; gGlobals
	call	?getGameSpeedInfo@CvGlobals@@QAEPAVCvGameSpeedInfo@@W4GameSpeedTypes@@@Z ; CvGlobals::getGameSpeedInfo
	mov	DWORD PTR _pkInfo$[ebp], eax

; 441  : 	return (NULL != pkInfo)? new CvDllGameSpeedInfo(pkInfo) : NULL;

	cmp	DWORD PTR _pkInfo$[ebp], 0
	je	SHORT $LN5@GetGameSpe
	push	12					; 0000000cH
	call	??2CvDllGameSpeedInfo@@SAPAXI@Z		; CvDllGameSpeedInfo::operator new
	add	esp, 4
	mov	DWORD PTR $T228214[ebp], eax
	mov	DWORD PTR __$EHRec$[ebp+8], 0
	cmp	DWORD PTR $T228214[ebp], 0
	je	SHORT $LN3@GetGameSpe
	mov	ecx, DWORD PTR _pkInfo$[ebp]
	push	ecx
	mov	ecx, DWORD PTR $T228214[ebp]
	call	??0CvDllGameSpeedInfo@@QAE@PAVCvGameSpeedInfo@@@Z ; CvDllGameSpeedInfo::CvDllGameSpeedInfo
	mov	DWORD PTR tv79[ebp], eax
	jmp	SHORT $LN4@GetGameSpe
$LN3@GetGameSpe:
	mov	DWORD PTR tv79[ebp], 0
$LN4@GetGameSpe:
	mov	edx, DWORD PTR tv79[ebp]
	mov	DWORD PTR $T228213[ebp], edx
	mov	DWORD PTR __$EHRec$[ebp+8], -1
	mov	eax, DWORD PTR $T228213[ebp]
	mov	DWORD PTR tv74[ebp], eax
	jmp	SHORT $LN6@GetGameSpe
$LN5@GetGameSpe:
	mov	DWORD PTR tv74[ebp], 0
$LN6@GetGameSpe:
	mov	eax, DWORD PTR tv74[ebp]

; 442  : }

	mov	ecx, DWORD PTR __$EHRec$[ebp]
	mov	DWORD PTR fs:0, ecx
	pop	ecx
	mov	esp, ebp
	pop	ebp
	ret	8
_TEXT	ENDS
;	COMDAT text$x
text$x	SEGMENT
__unwindfunclet$?GetGameSpeedInfo@CvDllGameContext@@UAGPAVICvGameSpeedInfo1@@W4GameSpeedTypes@@@Z$0:
	mov	eax, DWORD PTR $T228214[ebp]
	push	eax
	call	??3CvDllGameSpeedInfo@@SAXPAX@Z		; CvDllGameSpeedInfo::operator delete
	pop	ecx
	ret	0
__ehhandler$?GetGameSpeedInfo@CvDllGameContext@@UAGPAVICvGameSpeedInfo1@@W4GameSpeedTypes@@@Z:
	mov	edx, DWORD PTR [esp+8]
	lea	eax, DWORD PTR [edx+12]
	mov	ecx, DWORD PTR [edx-24]
	xor	ecx, eax
	call	@__security_check_cookie@4
	mov	eax, OFFSET __ehfuncinfo$?GetGameSpeedInfo@CvDllGameContext@@UAGPAVICvGameSpeedInfo1@@W4GameSpeedTypes@@@Z
	jmp	___CxxFrameHandler3
text$x	ENDS
?GetGameSpeedInfo@CvDllGameContext@@UAGPAVICvGameSpeedInfo1@@W4GameSpeedTypes@@@Z ENDP ; CvDllGameContext::GetGameSpeedInfo
EXTRN	??3CvDllHandicapInfo@@SAXPAX@Z:PROC		; CvDllHandicapInfo::operator delete
EXTRN	??0CvDllHandicapInfo@@QAE@PAVCvHandicapInfo@@@Z:PROC ; CvDllHandicapInfo::CvDllHandicapInfo
EXTRN	??2CvDllHandicapInfo@@SAPAXI@Z:PROC		; CvDllHandicapInfo::operator new
EXTRN	?getHandicapInfo@CvGlobals@@QAEPAVCvHandicapInfo@@W4HandicapTypes@@@Z:PROC ; CvGlobals::getHandicapInfo
;	COMDAT xdata$x
xdata$x	SEGMENT
__unwindtable$?GetHandicapInfo@CvDllGameContext@@UAGPAVICvHandicapInfo1@@W4HandicapTypes@@@Z DD 0ffffffffH
	DD	FLAT:__unwindfunclet$?GetHandicapInfo@CvDllGameContext@@UAGPAVICvHandicapInfo1@@W4HandicapTypes@@@Z$0
__ehfuncinfo$?GetHandicapInfo@CvDllGameContext@@UAGPAVICvHandicapInfo1@@W4HandicapTypes@@@Z DD 019930522H
	DD	01H
	DD	FLAT:__unwindtable$?GetHandicapInfo@CvDllGameContext@@UAGPAVICvHandicapInfo1@@W4HandicapTypes@@@Z
	DD	2 DUP(00H)
	DD	2 DUP(00H)
	DD	00H
	DD	01H
; Function compile flags: /Odtp
xdata$x	ENDS
;	COMDAT ?GetHandicapInfo@CvDllGameContext@@UAGPAVICvHandicapInfo1@@W4HandicapTypes@@@Z
_TEXT	SEGMENT
tv74 = -32						; size = 4
tv79 = -28						; size = 4
$T228229 = -24						; size = 4
$T228228 = -20						; size = 4
_pkInfo$ = -16						; size = 4
__$EHRec$ = -12						; size = 12
_this$ = 8						; size = 4
_eHandicapNum$ = 12					; size = 4
?GetHandicapInfo@CvDllGameContext@@UAGPAVICvHandicapInfo1@@W4HandicapTypes@@@Z PROC ; CvDllGameContext::GetHandicapInfo, COMDAT

; 445  : {

	push	ebp
	mov	ebp, esp
	push	-1
	push	__ehhandler$?GetHandicapInfo@CvDllGameContext@@UAGPAVICvHandicapInfo1@@W4HandicapTypes@@@Z
	mov	eax, DWORD PTR fs:0
	push	eax
	sub	esp, 20					; 00000014H
	mov	eax, DWORD PTR ___security_cookie
	xor	eax, ebp
	push	eax
	lea	eax, DWORD PTR __$EHRec$[ebp]
	mov	DWORD PTR fs:0, eax

; 446  : 	CvHandicapInfo* pkInfo = GC.getHandicapInfo(eHandicapNum);

	mov	eax, DWORD PTR _eHandicapNum$[ebp]
	push	eax
	mov	ecx, OFFSET ?gGlobals@@3VCvGlobals@@A	; gGlobals
	call	?getHandicapInfo@CvGlobals@@QAEPAVCvHandicapInfo@@W4HandicapTypes@@@Z ; CvGlobals::getHandicapInfo
	mov	DWORD PTR _pkInfo$[ebp], eax

; 447  : 	return (NULL != pkInfo)? new CvDllHandicapInfo(pkInfo) : NULL;

	cmp	DWORD PTR _pkInfo$[ebp], 0
	je	SHORT $LN5@GetHandica
	push	12					; 0000000cH
	call	??2CvDllHandicapInfo@@SAPAXI@Z		; CvDllHandicapInfo::operator new
	add	esp, 4
	mov	DWORD PTR $T228229[ebp], eax
	mov	DWORD PTR __$EHRec$[ebp+8], 0
	cmp	DWORD PTR $T228229[ebp], 0
	je	SHORT $LN3@GetHandica
	mov	ecx, DWORD PTR _pkInfo$[ebp]
	push	ecx
	mov	ecx, DWORD PTR $T228229[ebp]
	call	??0CvDllHandicapInfo@@QAE@PAVCvHandicapInfo@@@Z ; CvDllHandicapInfo::CvDllHandicapInfo
	mov	DWORD PTR tv79[ebp], eax
	jmp	SHORT $LN4@GetHandica
$LN3@GetHandica:
	mov	DWORD PTR tv79[ebp], 0
$LN4@GetHandica:
	mov	edx, DWORD PTR tv79[ebp]
	mov	DWORD PTR $T228228[ebp], edx
	mov	DWORD PTR __$EHRec$[ebp+8], -1
	mov	eax, DWORD PTR $T228228[ebp]
	mov	DWORD PTR tv74[ebp], eax
	jmp	SHORT $LN6@GetHandica
$LN5@GetHandica:
	mov	DWORD PTR tv74[ebp], 0
$LN6@GetHandica:
	mov	eax, DWORD PTR tv74[ebp]

; 448  : }

	mov	ecx, DWORD PTR __$EHRec$[ebp]
	mov	DWORD PTR fs:0, ecx
	pop	ecx
	mov	esp, ebp
	pop	ebp
	ret	8
_TEXT	ENDS
;	COMDAT text$x
text$x	SEGMENT
__unwindfunclet$?GetHandicapInfo@CvDllGameContext@@UAGPAVICvHandicapInfo1@@W4HandicapTypes@@@Z$0:
	mov	eax, DWORD PTR $T228229[ebp]
	push	eax
	call	??3CvDllHandicapInfo@@SAXPAX@Z		; CvDllHandicapInfo::operator delete
	pop	ecx
	ret	0
__ehhandler$?GetHandicapInfo@CvDllGameContext@@UAGPAVICvHandicapInfo1@@W4HandicapTypes@@@Z:
	mov	edx, DWORD PTR [esp+8]
	lea	eax, DWORD PTR [edx+12]
	mov	ecx, DWORD PTR [edx-24]
	xor	ecx, eax
	call	@__security_check_cookie@4
	mov	eax, OFFSET __ehfuncinfo$?GetHandicapInfo@CvDllGameContext@@UAGPAVICvHandicapInfo1@@W4HandicapTypes@@@Z
	jmp	___CxxFrameHandler3
text$x	ENDS
?GetHandicapInfo@CvDllGameContext@@UAGPAVICvHandicapInfo1@@W4HandicapTypes@@@Z ENDP ; CvDllGameContext::GetHandicapInfo
EXTRN	??3CvDllInterfaceModeInfo@@SAXPAX@Z:PROC	; CvDllInterfaceModeInfo::operator delete
EXTRN	??0CvDllInterfaceModeInfo@@QAE@PAVCvInterfaceModeInfo@@@Z:PROC ; CvDllInterfaceModeInfo::CvDllInterfaceModeInfo
EXTRN	??2CvDllInterfaceModeInfo@@SAPAXI@Z:PROC	; CvDllInterfaceModeInfo::operator new
EXTRN	?getInterfaceModeInfo@CvGlobals@@QAEPAVCvInterfaceModeInfo@@W4InterfaceModeTypes@@@Z:PROC ; CvGlobals::getInterfaceModeInfo
;	COMDAT xdata$x
xdata$x	SEGMENT
__unwindtable$?GetInterfaceModeInfo@CvDllGameContext@@UAGPAVICvInterfaceModeInfo1@@W4InterfaceModeTypes@@@Z DD 0ffffffffH
	DD	FLAT:__unwindfunclet$?GetInterfaceModeInfo@CvDllGameContext@@UAGPAVICvInterfaceModeInfo1@@W4InterfaceModeTypes@@@Z$0
__ehfuncinfo$?GetInterfaceModeInfo@CvDllGameContext@@UAGPAVICvInterfaceModeInfo1@@W4InterfaceModeTypes@@@Z DD 019930522H
	DD	01H
	DD	FLAT:__unwindtable$?GetInterfaceModeInfo@CvDllGameContext@@UAGPAVICvInterfaceModeInfo1@@W4InterfaceModeTypes@@@Z
	DD	2 DUP(00H)
	DD	2 DUP(00H)
	DD	00H
	DD	01H
; Function compile flags: /Odtp
xdata$x	ENDS
;	COMDAT ?GetInterfaceModeInfo@CvDllGameContext@@UAGPAVICvInterfaceModeInfo1@@W4InterfaceModeTypes@@@Z
_TEXT	SEGMENT
tv74 = -32						; size = 4
tv79 = -28						; size = 4
$T228244 = -24						; size = 4
$T228243 = -20						; size = 4
_pkInfo$ = -16						; size = 4
__$EHRec$ = -12						; size = 12
_this$ = 8						; size = 4
_e$ = 12						; size = 4
?GetInterfaceModeInfo@CvDllGameContext@@UAGPAVICvInterfaceModeInfo1@@W4InterfaceModeTypes@@@Z PROC ; CvDllGameContext::GetInterfaceModeInfo, COMDAT

; 451  : {

	push	ebp
	mov	ebp, esp
	push	-1
	push	__ehhandler$?GetInterfaceModeInfo@CvDllGameContext@@UAGPAVICvInterfaceModeInfo1@@W4InterfaceModeTypes@@@Z
	mov	eax, DWORD PTR fs:0
	push	eax
	sub	esp, 20					; 00000014H
	mov	eax, DWORD PTR ___security_cookie
	xor	eax, ebp
	push	eax
	lea	eax, DWORD PTR __$EHRec$[ebp]
	mov	DWORD PTR fs:0, eax

; 452  : 	CvInterfaceModeInfo* pkInfo = GC.getInterfaceModeInfo(e);

	mov	eax, DWORD PTR _e$[ebp]
	push	eax
	mov	ecx, OFFSET ?gGlobals@@3VCvGlobals@@A	; gGlobals
	call	?getInterfaceModeInfo@CvGlobals@@QAEPAVCvInterfaceModeInfo@@W4InterfaceModeTypes@@@Z ; CvGlobals::getInterfaceModeInfo
	mov	DWORD PTR _pkInfo$[ebp], eax

; 453  : 	return (NULL != pkInfo)? new CvDllInterfaceModeInfo(pkInfo) : NULL;

	cmp	DWORD PTR _pkInfo$[ebp], 0
	je	SHORT $LN5@GetInterfa
	push	12					; 0000000cH
	call	??2CvDllInterfaceModeInfo@@SAPAXI@Z	; CvDllInterfaceModeInfo::operator new
	add	esp, 4
	mov	DWORD PTR $T228244[ebp], eax
	mov	DWORD PTR __$EHRec$[ebp+8], 0
	cmp	DWORD PTR $T228244[ebp], 0
	je	SHORT $LN3@GetInterfa
	mov	ecx, DWORD PTR _pkInfo$[ebp]
	push	ecx
	mov	ecx, DWORD PTR $T228244[ebp]
	call	??0CvDllInterfaceModeInfo@@QAE@PAVCvInterfaceModeInfo@@@Z ; CvDllInterfaceModeInfo::CvDllInterfaceModeInfo
	mov	DWORD PTR tv79[ebp], eax
	jmp	SHORT $LN4@GetInterfa
$LN3@GetInterfa:
	mov	DWORD PTR tv79[ebp], 0
$LN4@GetInterfa:
	mov	edx, DWORD PTR tv79[ebp]
	mov	DWORD PTR $T228243[ebp], edx
	mov	DWORD PTR __$EHRec$[ebp+8], -1
	mov	eax, DWORD PTR $T228243[ebp]
	mov	DWORD PTR tv74[ebp], eax
	jmp	SHORT $LN6@GetInterfa
$LN5@GetInterfa:
	mov	DWORD PTR tv74[ebp], 0
$LN6@GetInterfa:
	mov	eax, DWORD PTR tv74[ebp]

; 454  : }

	mov	ecx, DWORD PTR __$EHRec$[ebp]
	mov	DWORD PTR fs:0, ecx
	pop	ecx
	mov	esp, ebp
	pop	ebp
	ret	8
_TEXT	ENDS
;	COMDAT text$x
text$x	SEGMENT
__unwindfunclet$?GetInterfaceModeInfo@CvDllGameContext@@UAGPAVICvInterfaceModeInfo1@@W4InterfaceModeTypes@@@Z$0:
	mov	eax, DWORD PTR $T228244[ebp]
	push	eax
	call	??3CvDllInterfaceModeInfo@@SAXPAX@Z	; CvDllInterfaceModeInfo::operator delete
	pop	ecx
	ret	0
__ehhandler$?GetInterfaceModeInfo@CvDllGameContext@@UAGPAVICvInterfaceModeInfo1@@W4InterfaceModeTypes@@@Z:
	mov	edx, DWORD PTR [esp+8]
	lea	eax, DWORD PTR [edx+12]
	mov	ecx, DWORD PTR [edx-24]
	xor	ecx, eax
	call	@__security_check_cookie@4
	mov	eax, OFFSET __ehfuncinfo$?GetInterfaceModeInfo@CvDllGameContext@@UAGPAVICvInterfaceModeInfo1@@W4InterfaceModeTypes@@@Z
	jmp	___CxxFrameHandler3
text$x	ENDS
?GetInterfaceModeInfo@CvDllGameContext@@UAGPAVICvInterfaceModeInfo1@@W4InterfaceModeTypes@@@Z ENDP ; CvDllGameContext::GetInterfaceModeInfo
EXTRN	??3CvDllImprovementInfo@@SAXPAX@Z:PROC		; CvDllImprovementInfo::operator delete
EXTRN	??0CvDllImprovementInfo@@QAE@PAVCvImprovementEntry@@@Z:PROC ; CvDllImprovementInfo::CvDllImprovementInfo
EXTRN	??2CvDllImprovementInfo@@SAPAXI@Z:PROC		; CvDllImprovementInfo::operator new
EXTRN	?getImprovementInfo@CvGlobals@@QAEPAVCvImprovementEntry@@W4ImprovementTypes@@@Z:PROC ; CvGlobals::getImprovementInfo
;	COMDAT xdata$x
xdata$x	SEGMENT
__unwindtable$?GetImprovementInfo@CvDllGameContext@@UAGPAVICvImprovementInfo1@@W4ImprovementTypes@@@Z DD 0ffffffffH
	DD	FLAT:__unwindfunclet$?GetImprovementInfo@CvDllGameContext@@UAGPAVICvImprovementInfo1@@W4ImprovementTypes@@@Z$0
__ehfuncinfo$?GetImprovementInfo@CvDllGameContext@@UAGPAVICvImprovementInfo1@@W4ImprovementTypes@@@Z DD 019930522H
	DD	01H
	DD	FLAT:__unwindtable$?GetImprovementInfo@CvDllGameContext@@UAGPAVICvImprovementInfo1@@W4ImprovementTypes@@@Z
	DD	2 DUP(00H)
	DD	2 DUP(00H)
	DD	00H
	DD	01H
; Function compile flags: /Odtp
xdata$x	ENDS
;	COMDAT ?GetImprovementInfo@CvDllGameContext@@UAGPAVICvImprovementInfo1@@W4ImprovementTypes@@@Z
_TEXT	SEGMENT
tv74 = -32						; size = 4
tv79 = -28						; size = 4
$T228259 = -24						; size = 4
$T228258 = -20						; size = 4
_pkEntry$ = -16						; size = 4
__$EHRec$ = -12						; size = 12
_this$ = 8						; size = 4
_eImprovement$ = 12					; size = 4
?GetImprovementInfo@CvDllGameContext@@UAGPAVICvImprovementInfo1@@W4ImprovementTypes@@@Z PROC ; CvDllGameContext::GetImprovementInfo, COMDAT

; 457  : {

	push	ebp
	mov	ebp, esp
	push	-1
	push	__ehhandler$?GetImprovementInfo@CvDllGameContext@@UAGPAVICvImprovementInfo1@@W4ImprovementTypes@@@Z
	mov	eax, DWORD PTR fs:0
	push	eax
	sub	esp, 20					; 00000014H
	mov	eax, DWORD PTR ___security_cookie
	xor	eax, ebp
	push	eax
	lea	eax, DWORD PTR __$EHRec$[ebp]
	mov	DWORD PTR fs:0, eax

; 458  : 	CvImprovementEntry* pkEntry = GC.getImprovementInfo(eImprovement);

	mov	eax, DWORD PTR _eImprovement$[ebp]
	push	eax
	mov	ecx, OFFSET ?gGlobals@@3VCvGlobals@@A	; gGlobals
	call	?getImprovementInfo@CvGlobals@@QAEPAVCvImprovementEntry@@W4ImprovementTypes@@@Z ; CvGlobals::getImprovementInfo
	mov	DWORD PTR _pkEntry$[ebp], eax

; 459  : 	return (NULL != pkEntry)? new CvDllImprovementInfo(pkEntry) : NULL;

	cmp	DWORD PTR _pkEntry$[ebp], 0
	je	SHORT $LN5@GetImprove
	push	12					; 0000000cH
	call	??2CvDllImprovementInfo@@SAPAXI@Z	; CvDllImprovementInfo::operator new
	add	esp, 4
	mov	DWORD PTR $T228259[ebp], eax
	mov	DWORD PTR __$EHRec$[ebp+8], 0
	cmp	DWORD PTR $T228259[ebp], 0
	je	SHORT $LN3@GetImprove
	mov	ecx, DWORD PTR _pkEntry$[ebp]
	push	ecx
	mov	ecx, DWORD PTR $T228259[ebp]
	call	??0CvDllImprovementInfo@@QAE@PAVCvImprovementEntry@@@Z ; CvDllImprovementInfo::CvDllImprovementInfo
	mov	DWORD PTR tv79[ebp], eax
	jmp	SHORT $LN4@GetImprove
$LN3@GetImprove:
	mov	DWORD PTR tv79[ebp], 0
$LN4@GetImprove:
	mov	edx, DWORD PTR tv79[ebp]
	mov	DWORD PTR $T228258[ebp], edx
	mov	DWORD PTR __$EHRec$[ebp+8], -1
	mov	eax, DWORD PTR $T228258[ebp]
	mov	DWORD PTR tv74[ebp], eax
	jmp	SHORT $LN6@GetImprove
$LN5@GetImprove:
	mov	DWORD PTR tv74[ebp], 0
$LN6@GetImprove:
	mov	eax, DWORD PTR tv74[ebp]

; 460  : }

	mov	ecx, DWORD PTR __$EHRec$[ebp]
	mov	DWORD PTR fs:0, ecx
	pop	ecx
	mov	esp, ebp
	pop	ebp
	ret	8
_TEXT	ENDS
;	COMDAT text$x
text$x	SEGMENT
__unwindfunclet$?GetImprovementInfo@CvDllGameContext@@UAGPAVICvImprovementInfo1@@W4ImprovementTypes@@@Z$0:
	mov	eax, DWORD PTR $T228259[ebp]
	push	eax
	call	??3CvDllImprovementInfo@@SAXPAX@Z	; CvDllImprovementInfo::operator delete
	pop	ecx
	ret	0
__ehhandler$?GetImprovementInfo@CvDllGameContext@@UAGPAVICvImprovementInfo1@@W4ImprovementTypes@@@Z:
	mov	edx, DWORD PTR [esp+8]
	lea	eax, DWORD PTR [edx+12]
	mov	ecx, DWORD PTR [edx-24]
	xor	ecx, eax
	call	@__security_check_cookie@4
	mov	eax, OFFSET __ehfuncinfo$?GetImprovementInfo@CvDllGameContext@@UAGPAVICvImprovementInfo1@@W4ImprovementTypes@@@Z
	jmp	___CxxFrameHandler3
text$x	ENDS
?GetImprovementInfo@CvDllGameContext@@UAGPAVICvImprovementInfo1@@W4ImprovementTypes@@@Z ENDP ; CvDllGameContext::GetImprovementInfo
EXTRN	??3CvDllLeaderHeadInfo@@SAXPAX@Z:PROC		; CvDllLeaderHeadInfo::operator delete
EXTRN	??0CvDllLeaderHeadInfo@@QAE@PAVCvLeaderHeadInfo@@@Z:PROC ; CvDllLeaderHeadInfo::CvDllLeaderHeadInfo
EXTRN	??2CvDllLeaderHeadInfo@@SAPAXI@Z:PROC		; CvDllLeaderHeadInfo::operator new
EXTRN	?getLeaderHeadInfo@CvGlobals@@QAEPAVCvLeaderHeadInfo@@W4LeaderHeadTypes@@@Z:PROC ; CvGlobals::getLeaderHeadInfo
;	COMDAT xdata$x
xdata$x	SEGMENT
__unwindtable$?GetLeaderHeadInfo@CvDllGameContext@@UAGPAVICvLeaderHeadInfo1@@W4LeaderHeadTypes@@@Z DD 0ffffffffH
	DD	FLAT:__unwindfunclet$?GetLeaderHeadInfo@CvDllGameContext@@UAGPAVICvLeaderHeadInfo1@@W4LeaderHeadTypes@@@Z$0
__ehfuncinfo$?GetLeaderHeadInfo@CvDllGameContext@@UAGPAVICvLeaderHeadInfo1@@W4LeaderHeadTypes@@@Z DD 019930522H
	DD	01H
	DD	FLAT:__unwindtable$?GetLeaderHeadInfo@CvDllGameContext@@UAGPAVICvLeaderHeadInfo1@@W4LeaderHeadTypes@@@Z
	DD	2 DUP(00H)
	DD	2 DUP(00H)
	DD	00H
	DD	01H
; Function compile flags: /Odtp
xdata$x	ENDS
;	COMDAT ?GetLeaderHeadInfo@CvDllGameContext@@UAGPAVICvLeaderHeadInfo1@@W4LeaderHeadTypes@@@Z
_TEXT	SEGMENT
tv74 = -32						; size = 4
tv79 = -28						; size = 4
$T228274 = -24						; size = 4
$T228273 = -20						; size = 4
_pkInfo$ = -16						; size = 4
__$EHRec$ = -12						; size = 12
_this$ = 8						; size = 4
_eLeaderHeadNum$ = 12					; size = 4
?GetLeaderHeadInfo@CvDllGameContext@@UAGPAVICvLeaderHeadInfo1@@W4LeaderHeadTypes@@@Z PROC ; CvDllGameContext::GetLeaderHeadInfo, COMDAT

; 463  : {

	push	ebp
	mov	ebp, esp
	push	-1
	push	__ehhandler$?GetLeaderHeadInfo@CvDllGameContext@@UAGPAVICvLeaderHeadInfo1@@W4LeaderHeadTypes@@@Z
	mov	eax, DWORD PTR fs:0
	push	eax
	sub	esp, 20					; 00000014H
	mov	eax, DWORD PTR ___security_cookie
	xor	eax, ebp
	push	eax
	lea	eax, DWORD PTR __$EHRec$[ebp]
	mov	DWORD PTR fs:0, eax

; 464  : 	CvLeaderHeadInfo* pkInfo = GC.getLeaderHeadInfo(eLeaderHeadNum);

	mov	eax, DWORD PTR _eLeaderHeadNum$[ebp]
	push	eax
	mov	ecx, OFFSET ?gGlobals@@3VCvGlobals@@A	; gGlobals
	call	?getLeaderHeadInfo@CvGlobals@@QAEPAVCvLeaderHeadInfo@@W4LeaderHeadTypes@@@Z ; CvGlobals::getLeaderHeadInfo
	mov	DWORD PTR _pkInfo$[ebp], eax

; 465  : 	return (NULL != pkInfo)? new CvDllLeaderHeadInfo(pkInfo) : NULL;

	cmp	DWORD PTR _pkInfo$[ebp], 0
	je	SHORT $LN5@GetLeaderH
	push	12					; 0000000cH
	call	??2CvDllLeaderHeadInfo@@SAPAXI@Z	; CvDllLeaderHeadInfo::operator new
	add	esp, 4
	mov	DWORD PTR $T228274[ebp], eax
	mov	DWORD PTR __$EHRec$[ebp+8], 0
	cmp	DWORD PTR $T228274[ebp], 0
	je	SHORT $LN3@GetLeaderH
	mov	ecx, DWORD PTR _pkInfo$[ebp]
	push	ecx
	mov	ecx, DWORD PTR $T228274[ebp]
	call	??0CvDllLeaderHeadInfo@@QAE@PAVCvLeaderHeadInfo@@@Z ; CvDllLeaderHeadInfo::CvDllLeaderHeadInfo
	mov	DWORD PTR tv79[ebp], eax
	jmp	SHORT $LN4@GetLeaderH
$LN3@GetLeaderH:
	mov	DWORD PTR tv79[ebp], 0
$LN4@GetLeaderH:
	mov	edx, DWORD PTR tv79[ebp]
	mov	DWORD PTR $T228273[ebp], edx
	mov	DWORD PTR __$EHRec$[ebp+8], -1
	mov	eax, DWORD PTR $T228273[ebp]
	mov	DWORD PTR tv74[ebp], eax
	jmp	SHORT $LN6@GetLeaderH
$LN5@GetLeaderH:
	mov	DWORD PTR tv74[ebp], 0
$LN6@GetLeaderH:
	mov	eax, DWORD PTR tv74[ebp]

; 466  : }

	mov	ecx, DWORD PTR __$EHRec$[ebp]
	mov	DWORD PTR fs:0, ecx
	pop	ecx
	mov	esp, ebp
	pop	ebp
	ret	8
_TEXT	ENDS
;	COMDAT text$x
text$x	SEGMENT
__unwindfunclet$?GetLeaderHeadInfo@CvDllGameContext@@UAGPAVICvLeaderHeadInfo1@@W4LeaderHeadTypes@@@Z$0:
	mov	eax, DWORD PTR $T228274[ebp]
	push	eax
	call	??3CvDllLeaderHeadInfo@@SAXPAX@Z	; CvDllLeaderHeadInfo::operator delete
	pop	ecx
	ret	0
__ehhandler$?GetLeaderHeadInfo@CvDllGameContext@@UAGPAVICvLeaderHeadInfo1@@W4LeaderHeadTypes@@@Z:
	mov	edx, DWORD PTR [esp+8]
	lea	eax, DWORD PTR [edx+12]
	mov	ecx, DWORD PTR [edx-24]
	xor	ecx, eax
	call	@__security_check_cookie@4
	mov	eax, OFFSET __ehfuncinfo$?GetLeaderHeadInfo@CvDllGameContext@@UAGPAVICvLeaderHeadInfo1@@W4LeaderHeadTypes@@@Z
	jmp	___CxxFrameHandler3
text$x	ENDS
?GetLeaderHeadInfo@CvDllGameContext@@UAGPAVICvLeaderHeadInfo1@@W4LeaderHeadTypes@@@Z ENDP ; CvDllGameContext::GetLeaderHeadInfo
EXTRN	??3CvDllMinorCivInfo@@SAXPAX@Z:PROC		; CvDllMinorCivInfo::operator delete
EXTRN	??0CvDllMinorCivInfo@@QAE@PAVCvMinorCivInfo@@@Z:PROC ; CvDllMinorCivInfo::CvDllMinorCivInfo
EXTRN	??2CvDllMinorCivInfo@@SAPAXI@Z:PROC		; CvDllMinorCivInfo::operator new
EXTRN	?getMinorCivInfo@CvGlobals@@QAEPAVCvMinorCivInfo@@W4MinorCivTypes@@@Z:PROC ; CvGlobals::getMinorCivInfo
;	COMDAT xdata$x
xdata$x	SEGMENT
__unwindtable$?GetMinorCivInfo@CvDllGameContext@@UAGPAVICvMinorCivInfo1@@W4MinorCivTypes@@@Z DD 0ffffffffH
	DD	FLAT:__unwindfunclet$?GetMinorCivInfo@CvDllGameContext@@UAGPAVICvMinorCivInfo1@@W4MinorCivTypes@@@Z$0
__ehfuncinfo$?GetMinorCivInfo@CvDllGameContext@@UAGPAVICvMinorCivInfo1@@W4MinorCivTypes@@@Z DD 019930522H
	DD	01H
	DD	FLAT:__unwindtable$?GetMinorCivInfo@CvDllGameContext@@UAGPAVICvMinorCivInfo1@@W4MinorCivTypes@@@Z
	DD	2 DUP(00H)
	DD	2 DUP(00H)
	DD	00H
	DD	01H
; Function compile flags: /Odtp
xdata$x	ENDS
;	COMDAT ?GetMinorCivInfo@CvDllGameContext@@UAGPAVICvMinorCivInfo1@@W4MinorCivTypes@@@Z
_TEXT	SEGMENT
tv74 = -32						; size = 4
tv79 = -28						; size = 4
$T228289 = -24						; size = 4
$T228288 = -20						; size = 4
_pkInfo$ = -16						; size = 4
__$EHRec$ = -12						; size = 12
_this$ = 8						; size = 4
_eMinorCiv$ = 12					; size = 4
?GetMinorCivInfo@CvDllGameContext@@UAGPAVICvMinorCivInfo1@@W4MinorCivTypes@@@Z PROC ; CvDllGameContext::GetMinorCivInfo, COMDAT

; 469  : {

	push	ebp
	mov	ebp, esp
	push	-1
	push	__ehhandler$?GetMinorCivInfo@CvDllGameContext@@UAGPAVICvMinorCivInfo1@@W4MinorCivTypes@@@Z
	mov	eax, DWORD PTR fs:0
	push	eax
	sub	esp, 20					; 00000014H
	mov	eax, DWORD PTR ___security_cookie
	xor	eax, ebp
	push	eax
	lea	eax, DWORD PTR __$EHRec$[ebp]
	mov	DWORD PTR fs:0, eax

; 470  : 	CvMinorCivInfo* pkInfo = GC.getMinorCivInfo(eMinorCiv);

	mov	eax, DWORD PTR _eMinorCiv$[ebp]
	push	eax
	mov	ecx, OFFSET ?gGlobals@@3VCvGlobals@@A	; gGlobals
	call	?getMinorCivInfo@CvGlobals@@QAEPAVCvMinorCivInfo@@W4MinorCivTypes@@@Z ; CvGlobals::getMinorCivInfo
	mov	DWORD PTR _pkInfo$[ebp], eax

; 471  : 	return (NULL != pkInfo)? new CvDllMinorCivInfo(pkInfo) : NULL;

	cmp	DWORD PTR _pkInfo$[ebp], 0
	je	SHORT $LN5@GetMinorCi
	push	12					; 0000000cH
	call	??2CvDllMinorCivInfo@@SAPAXI@Z		; CvDllMinorCivInfo::operator new
	add	esp, 4
	mov	DWORD PTR $T228289[ebp], eax
	mov	DWORD PTR __$EHRec$[ebp+8], 0
	cmp	DWORD PTR $T228289[ebp], 0
	je	SHORT $LN3@GetMinorCi
	mov	ecx, DWORD PTR _pkInfo$[ebp]
	push	ecx
	mov	ecx, DWORD PTR $T228289[ebp]
	call	??0CvDllMinorCivInfo@@QAE@PAVCvMinorCivInfo@@@Z ; CvDllMinorCivInfo::CvDllMinorCivInfo
	mov	DWORD PTR tv79[ebp], eax
	jmp	SHORT $LN4@GetMinorCi
$LN3@GetMinorCi:
	mov	DWORD PTR tv79[ebp], 0
$LN4@GetMinorCi:
	mov	edx, DWORD PTR tv79[ebp]
	mov	DWORD PTR $T228288[ebp], edx
	mov	DWORD PTR __$EHRec$[ebp+8], -1
	mov	eax, DWORD PTR $T228288[ebp]
	mov	DWORD PTR tv74[ebp], eax
	jmp	SHORT $LN6@GetMinorCi
$LN5@GetMinorCi:
	mov	DWORD PTR tv74[ebp], 0
$LN6@GetMinorCi:
	mov	eax, DWORD PTR tv74[ebp]

; 472  : }

	mov	ecx, DWORD PTR __$EHRec$[ebp]
	mov	DWORD PTR fs:0, ecx
	pop	ecx
	mov	esp, ebp
	pop	ebp
	ret	8
_TEXT	ENDS
;	COMDAT text$x
text$x	SEGMENT
__unwindfunclet$?GetMinorCivInfo@CvDllGameContext@@UAGPAVICvMinorCivInfo1@@W4MinorCivTypes@@@Z$0:
	mov	eax, DWORD PTR $T228289[ebp]
	push	eax
	call	??3CvDllMinorCivInfo@@SAXPAX@Z		; CvDllMinorCivInfo::operator delete
	pop	ecx
	ret	0
__ehhandler$?GetMinorCivInfo@CvDllGameContext@@UAGPAVICvMinorCivInfo1@@W4MinorCivTypes@@@Z:
	mov	edx, DWORD PTR [esp+8]
	lea	eax, DWORD PTR [edx+12]
	mov	ecx, DWORD PTR [edx-24]
	xor	ecx, eax
	call	@__security_check_cookie@4
	mov	eax, OFFSET __ehfuncinfo$?GetMinorCivInfo@CvDllGameContext@@UAGPAVICvMinorCivInfo1@@W4MinorCivTypes@@@Z
	jmp	___CxxFrameHandler3
text$x	ENDS
?GetMinorCivInfo@CvDllGameContext@@UAGPAVICvMinorCivInfo1@@W4MinorCivTypes@@@Z ENDP ; CvDllGameContext::GetMinorCivInfo
EXTRN	??3CvDllMissionInfo@@SAXPAX@Z:PROC		; CvDllMissionInfo::operator delete
EXTRN	??0CvDllMissionInfo@@QAE@PAVCvMissionInfo@@@Z:PROC ; CvDllMissionInfo::CvDllMissionInfo
EXTRN	??2CvDllMissionInfo@@SAPAXI@Z:PROC		; CvDllMissionInfo::operator new
EXTRN	?getMissionInfo@CvGlobals@@QAEPAVCvMissionInfo@@W4MissionTypes@@@Z:PROC ; CvGlobals::getMissionInfo
;	COMDAT xdata$x
xdata$x	SEGMENT
__unwindtable$?GetMissionInfo@CvDllGameContext@@UAGPAVICvMissionInfo1@@W4MissionTypes@@@Z DD 0ffffffffH
	DD	FLAT:__unwindfunclet$?GetMissionInfo@CvDllGameContext@@UAGPAVICvMissionInfo1@@W4MissionTypes@@@Z$0
__ehfuncinfo$?GetMissionInfo@CvDllGameContext@@UAGPAVICvMissionInfo1@@W4MissionTypes@@@Z DD 019930522H
	DD	01H
	DD	FLAT:__unwindtable$?GetMissionInfo@CvDllGameContext@@UAGPAVICvMissionInfo1@@W4MissionTypes@@@Z
	DD	2 DUP(00H)
	DD	2 DUP(00H)
	DD	00H
	DD	01H
; Function compile flags: /Odtp
xdata$x	ENDS
;	COMDAT ?GetMissionInfo@CvDllGameContext@@UAGPAVICvMissionInfo1@@W4MissionTypes@@@Z
_TEXT	SEGMENT
tv74 = -32						; size = 4
tv79 = -28						; size = 4
$T228304 = -24						; size = 4
$T228303 = -20						; size = 4
_pkInfo$ = -16						; size = 4
__$EHRec$ = -12						; size = 12
_this$ = 8						; size = 4
_eMission$ = 12						; size = 4
?GetMissionInfo@CvDllGameContext@@UAGPAVICvMissionInfo1@@W4MissionTypes@@@Z PROC ; CvDllGameContext::GetMissionInfo, COMDAT

; 475  : {

	push	ebp
	mov	ebp, esp
	push	-1
	push	__ehhandler$?GetMissionInfo@CvDllGameContext@@UAGPAVICvMissionInfo1@@W4MissionTypes@@@Z
	mov	eax, DWORD PTR fs:0
	push	eax
	sub	esp, 20					; 00000014H
	mov	eax, DWORD PTR ___security_cookie
	xor	eax, ebp
	push	eax
	lea	eax, DWORD PTR __$EHRec$[ebp]
	mov	DWORD PTR fs:0, eax

; 476  : 	CvMissionInfo* pkInfo = GC.getMissionInfo(eMission);

	mov	eax, DWORD PTR _eMission$[ebp]
	push	eax
	mov	ecx, OFFSET ?gGlobals@@3VCvGlobals@@A	; gGlobals
	call	?getMissionInfo@CvGlobals@@QAEPAVCvMissionInfo@@W4MissionTypes@@@Z ; CvGlobals::getMissionInfo
	mov	DWORD PTR _pkInfo$[ebp], eax

; 477  : 	return (NULL != pkInfo)? new CvDllMissionInfo(pkInfo) : NULL;

	cmp	DWORD PTR _pkInfo$[ebp], 0
	je	SHORT $LN5@GetMission
	push	12					; 0000000cH
	call	??2CvDllMissionInfo@@SAPAXI@Z		; CvDllMissionInfo::operator new
	add	esp, 4
	mov	DWORD PTR $T228304[ebp], eax
	mov	DWORD PTR __$EHRec$[ebp+8], 0
	cmp	DWORD PTR $T228304[ebp], 0
	je	SHORT $LN3@GetMission
	mov	ecx, DWORD PTR _pkInfo$[ebp]
	push	ecx
	mov	ecx, DWORD PTR $T228304[ebp]
	call	??0CvDllMissionInfo@@QAE@PAVCvMissionInfo@@@Z ; CvDllMissionInfo::CvDllMissionInfo
	mov	DWORD PTR tv79[ebp], eax
	jmp	SHORT $LN4@GetMission
$LN3@GetMission:
	mov	DWORD PTR tv79[ebp], 0
$LN4@GetMission:
	mov	edx, DWORD PTR tv79[ebp]
	mov	DWORD PTR $T228303[ebp], edx
	mov	DWORD PTR __$EHRec$[ebp+8], -1
	mov	eax, DWORD PTR $T228303[ebp]
	mov	DWORD PTR tv74[ebp], eax
	jmp	SHORT $LN6@GetMission
$LN5@GetMission:
	mov	DWORD PTR tv74[ebp], 0
$LN6@GetMission:
	mov	eax, DWORD PTR tv74[ebp]

; 478  : }

	mov	ecx, DWORD PTR __$EHRec$[ebp]
	mov	DWORD PTR fs:0, ecx
	pop	ecx
	mov	esp, ebp
	pop	ebp
	ret	8
_TEXT	ENDS
;	COMDAT text$x
text$x	SEGMENT
__unwindfunclet$?GetMissionInfo@CvDllGameContext@@UAGPAVICvMissionInfo1@@W4MissionTypes@@@Z$0:
	mov	eax, DWORD PTR $T228304[ebp]
	push	eax
	call	??3CvDllMissionInfo@@SAXPAX@Z		; CvDllMissionInfo::operator delete
	pop	ecx
	ret	0
__ehhandler$?GetMissionInfo@CvDllGameContext@@UAGPAVICvMissionInfo1@@W4MissionTypes@@@Z:
	mov	edx, DWORD PTR [esp+8]
	lea	eax, DWORD PTR [edx+12]
	mov	ecx, DWORD PTR [edx-24]
	xor	ecx, eax
	call	@__security_check_cookie@4
	mov	eax, OFFSET __ehfuncinfo$?GetMissionInfo@CvDllGameContext@@UAGPAVICvMissionInfo1@@W4MissionTypes@@@Z
	jmp	___CxxFrameHandler3
text$x	ENDS
?GetMissionInfo@CvDllGameContext@@UAGPAVICvMissionInfo1@@W4MissionTypes@@@Z ENDP ; CvDllGameContext::GetMissionInfo
EXTRN	??3CvDllPlayerColorInfo@@SAXPAX@Z:PROC		; CvDllPlayerColorInfo::operator delete
EXTRN	??0CvDllPlayerColorInfo@@QAE@PAVCvPlayerColorInfo@@@Z:PROC ; CvDllPlayerColorInfo::CvDllPlayerColorInfo
EXTRN	??2CvDllPlayerColorInfo@@SAPAXI@Z:PROC		; CvDllPlayerColorInfo::operator new
EXTRN	?GetPlayerColorInfo@CvGlobals@@QAEPAVCvPlayerColorInfo@@W4PlayerColorTypes@@@Z:PROC ; CvGlobals::GetPlayerColorInfo
;	COMDAT xdata$x
xdata$x	SEGMENT
__unwindtable$?GetPlayerColorInfo@CvDllGameContext@@UAGPAVICvPlayerColorInfo1@@W4PlayerColorTypes@@@Z DD 0ffffffffH
	DD	FLAT:__unwindfunclet$?GetPlayerColorInfo@CvDllGameContext@@UAGPAVICvPlayerColorInfo1@@W4PlayerColorTypes@@@Z$0
__ehfuncinfo$?GetPlayerColorInfo@CvDllGameContext@@UAGPAVICvPlayerColorInfo1@@W4PlayerColorTypes@@@Z DD 019930522H
	DD	01H
	DD	FLAT:__unwindtable$?GetPlayerColorInfo@CvDllGameContext@@UAGPAVICvPlayerColorInfo1@@W4PlayerColorTypes@@@Z
	DD	2 DUP(00H)
	DD	2 DUP(00H)
	DD	00H
	DD	01H
; Function compile flags: /Odtp
xdata$x	ENDS
;	COMDAT ?GetPlayerColorInfo@CvDllGameContext@@UAGPAVICvPlayerColorInfo1@@W4PlayerColorTypes@@@Z
_TEXT	SEGMENT
tv74 = -32						; size = 4
tv79 = -28						; size = 4
$T228319 = -24						; size = 4
$T228318 = -20						; size = 4
_pkInfo$ = -16						; size = 4
__$EHRec$ = -12						; size = 12
_this$ = 8						; size = 4
_e$ = 12						; size = 4
?GetPlayerColorInfo@CvDllGameContext@@UAGPAVICvPlayerColorInfo1@@W4PlayerColorTypes@@@Z PROC ; CvDllGameContext::GetPlayerColorInfo, COMDAT

; 481  : {

	push	ebp
	mov	ebp, esp
	push	-1
	push	__ehhandler$?GetPlayerColorInfo@CvDllGameContext@@UAGPAVICvPlayerColorInfo1@@W4PlayerColorTypes@@@Z
	mov	eax, DWORD PTR fs:0
	push	eax
	sub	esp, 20					; 00000014H
	mov	eax, DWORD PTR ___security_cookie
	xor	eax, ebp
	push	eax
	lea	eax, DWORD PTR __$EHRec$[ebp]
	mov	DWORD PTR fs:0, eax

; 482  : 	CvPlayerColorInfo* pkInfo = GC.GetPlayerColorInfo(e);

	mov	eax, DWORD PTR _e$[ebp]
	push	eax
	mov	ecx, OFFSET ?gGlobals@@3VCvGlobals@@A	; gGlobals
	call	?GetPlayerColorInfo@CvGlobals@@QAEPAVCvPlayerColorInfo@@W4PlayerColorTypes@@@Z ; CvGlobals::GetPlayerColorInfo
	mov	DWORD PTR _pkInfo$[ebp], eax

; 483  : 	return (NULL != pkInfo)? new CvDllPlayerColorInfo(pkInfo) : NULL;

	cmp	DWORD PTR _pkInfo$[ebp], 0
	je	SHORT $LN5@GetPlayerC
	push	12					; 0000000cH
	call	??2CvDllPlayerColorInfo@@SAPAXI@Z	; CvDllPlayerColorInfo::operator new
	add	esp, 4
	mov	DWORD PTR $T228319[ebp], eax
	mov	DWORD PTR __$EHRec$[ebp+8], 0
	cmp	DWORD PTR $T228319[ebp], 0
	je	SHORT $LN3@GetPlayerC
	mov	ecx, DWORD PTR _pkInfo$[ebp]
	push	ecx
	mov	ecx, DWORD PTR $T228319[ebp]
	call	??0CvDllPlayerColorInfo@@QAE@PAVCvPlayerColorInfo@@@Z ; CvDllPlayerColorInfo::CvDllPlayerColorInfo
	mov	DWORD PTR tv79[ebp], eax
	jmp	SHORT $LN4@GetPlayerC
$LN3@GetPlayerC:
	mov	DWORD PTR tv79[ebp], 0
$LN4@GetPlayerC:
	mov	edx, DWORD PTR tv79[ebp]
	mov	DWORD PTR $T228318[ebp], edx
	mov	DWORD PTR __$EHRec$[ebp+8], -1
	mov	eax, DWORD PTR $T228318[ebp]
	mov	DWORD PTR tv74[ebp], eax
	jmp	SHORT $LN6@GetPlayerC
$LN5@GetPlayerC:
	mov	DWORD PTR tv74[ebp], 0
$LN6@GetPlayerC:
	mov	eax, DWORD PTR tv74[ebp]

; 484  : }

	mov	ecx, DWORD PTR __$EHRec$[ebp]
	mov	DWORD PTR fs:0, ecx
	pop	ecx
	mov	esp, ebp
	pop	ebp
	ret	8
_TEXT	ENDS
;	COMDAT text$x
text$x	SEGMENT
__unwindfunclet$?GetPlayerColorInfo@CvDllGameContext@@UAGPAVICvPlayerColorInfo1@@W4PlayerColorTypes@@@Z$0:
	mov	eax, DWORD PTR $T228319[ebp]
	push	eax
	call	??3CvDllPlayerColorInfo@@SAXPAX@Z	; CvDllPlayerColorInfo::operator delete
	pop	ecx
	ret	0
__ehhandler$?GetPlayerColorInfo@CvDllGameContext@@UAGPAVICvPlayerColorInfo1@@W4PlayerColorTypes@@@Z:
	mov	edx, DWORD PTR [esp+8]
	lea	eax, DWORD PTR [edx+12]
	mov	ecx, DWORD PTR [edx-24]
	xor	ecx, eax
	call	@__security_check_cookie@4
	mov	eax, OFFSET __ehfuncinfo$?GetPlayerColorInfo@CvDllGameContext@@UAGPAVICvPlayerColorInfo1@@W4PlayerColorTypes@@@Z
	jmp	___CxxFrameHandler3
text$x	ENDS
?GetPlayerColorInfo@CvDllGameContext@@UAGPAVICvPlayerColorInfo1@@W4PlayerColorTypes@@@Z ENDP ; CvDllGameContext::GetPlayerColorInfo
EXTRN	??3CvDllPlayerOptionInfo@@SAXPAX@Z:PROC		; CvDllPlayerOptionInfo::operator delete
EXTRN	??0CvDllPlayerOptionInfo@@QAE@PAVCvPlayerOptionInfo@@@Z:PROC ; CvDllPlayerOptionInfo::CvDllPlayerOptionInfo
EXTRN	??2CvDllPlayerOptionInfo@@SAPAXI@Z:PROC		; CvDllPlayerOptionInfo::operator new
EXTRN	?getPlayerOptionInfo@CvGlobals@@QAEPAVCvPlayerOptionInfo@@W4PlayerOptionTypes@@@Z:PROC ; CvGlobals::getPlayerOptionInfo
;	COMDAT xdata$x
xdata$x	SEGMENT
__unwindtable$?GetPlayerOptionInfo@CvDllGameContext@@UAGPAVICvPlayerOptionInfo1@@W4PlayerOptionTypes@@@Z DD 0ffffffffH
	DD	FLAT:__unwindfunclet$?GetPlayerOptionInfo@CvDllGameContext@@UAGPAVICvPlayerOptionInfo1@@W4PlayerOptionTypes@@@Z$0
__ehfuncinfo$?GetPlayerOptionInfo@CvDllGameContext@@UAGPAVICvPlayerOptionInfo1@@W4PlayerOptionTypes@@@Z DD 019930522H
	DD	01H
	DD	FLAT:__unwindtable$?GetPlayerOptionInfo@CvDllGameContext@@UAGPAVICvPlayerOptionInfo1@@W4PlayerOptionTypes@@@Z
	DD	2 DUP(00H)
	DD	2 DUP(00H)
	DD	00H
	DD	01H
; Function compile flags: /Odtp
xdata$x	ENDS
;	COMDAT ?GetPlayerOptionInfo@CvDllGameContext@@UAGPAVICvPlayerOptionInfo1@@W4PlayerOptionTypes@@@Z
_TEXT	SEGMENT
tv74 = -32						; size = 4
tv79 = -28						; size = 4
$T228334 = -24						; size = 4
$T228333 = -20						; size = 4
_pkInfo$ = -16						; size = 4
__$EHRec$ = -12						; size = 12
_this$ = 8						; size = 4
_ePlayerOptionNum$ = 12					; size = 4
?GetPlayerOptionInfo@CvDllGameContext@@UAGPAVICvPlayerOptionInfo1@@W4PlayerOptionTypes@@@Z PROC ; CvDllGameContext::GetPlayerOptionInfo, COMDAT

; 487  : {

	push	ebp
	mov	ebp, esp
	push	-1
	push	__ehhandler$?GetPlayerOptionInfo@CvDllGameContext@@UAGPAVICvPlayerOptionInfo1@@W4PlayerOptionTypes@@@Z
	mov	eax, DWORD PTR fs:0
	push	eax
	sub	esp, 20					; 00000014H
	mov	eax, DWORD PTR ___security_cookie
	xor	eax, ebp
	push	eax
	lea	eax, DWORD PTR __$EHRec$[ebp]
	mov	DWORD PTR fs:0, eax

; 488  : 	CvPlayerOptionInfo* pkInfo = GC.getPlayerOptionInfo(ePlayerOptionNum);

	mov	eax, DWORD PTR _ePlayerOptionNum$[ebp]
	push	eax
	mov	ecx, OFFSET ?gGlobals@@3VCvGlobals@@A	; gGlobals
	call	?getPlayerOptionInfo@CvGlobals@@QAEPAVCvPlayerOptionInfo@@W4PlayerOptionTypes@@@Z ; CvGlobals::getPlayerOptionInfo
	mov	DWORD PTR _pkInfo$[ebp], eax

; 489  : 	return (NULL != pkInfo)? new CvDllPlayerOptionInfo(pkInfo) : NULL;

	cmp	DWORD PTR _pkInfo$[ebp], 0
	je	SHORT $LN5@GetPlayerO
	push	12					; 0000000cH
	call	??2CvDllPlayerOptionInfo@@SAPAXI@Z	; CvDllPlayerOptionInfo::operator new
	add	esp, 4
	mov	DWORD PTR $T228334[ebp], eax
	mov	DWORD PTR __$EHRec$[ebp+8], 0
	cmp	DWORD PTR $T228334[ebp], 0
	je	SHORT $LN3@GetPlayerO
	mov	ecx, DWORD PTR _pkInfo$[ebp]
	push	ecx
	mov	ecx, DWORD PTR $T228334[ebp]
	call	??0CvDllPlayerOptionInfo@@QAE@PAVCvPlayerOptionInfo@@@Z ; CvDllPlayerOptionInfo::CvDllPlayerOptionInfo
	mov	DWORD PTR tv79[ebp], eax
	jmp	SHORT $LN4@GetPlayerO
$LN3@GetPlayerO:
	mov	DWORD PTR tv79[ebp], 0
$LN4@GetPlayerO:
	mov	edx, DWORD PTR tv79[ebp]
	mov	DWORD PTR $T228333[ebp], edx
	mov	DWORD PTR __$EHRec$[ebp+8], -1
	mov	eax, DWORD PTR $T228333[ebp]
	mov	DWORD PTR tv74[ebp], eax
	jmp	SHORT $LN6@GetPlayerO
$LN5@GetPlayerO:
	mov	DWORD PTR tv74[ebp], 0
$LN6@GetPlayerO:
	mov	eax, DWORD PTR tv74[ebp]

; 490  : }

	mov	ecx, DWORD PTR __$EHRec$[ebp]
	mov	DWORD PTR fs:0, ecx
	pop	ecx
	mov	esp, ebp
	pop	ebp
	ret	8
_TEXT	ENDS
;	COMDAT text$x
text$x	SEGMENT
__unwindfunclet$?GetPlayerOptionInfo@CvDllGameContext@@UAGPAVICvPlayerOptionInfo1@@W4PlayerOptionTypes@@@Z$0:
	mov	eax, DWORD PTR $T228334[ebp]
	push	eax
	call	??3CvDllPlayerOptionInfo@@SAXPAX@Z	; CvDllPlayerOptionInfo::operator delete
	pop	ecx
	ret	0
__ehhandler$?GetPlayerOptionInfo@CvDllGameContext@@UAGPAVICvPlayerOptionInfo1@@W4PlayerOptionTypes@@@Z:
	mov	edx, DWORD PTR [esp+8]
	lea	eax, DWORD PTR [edx+12]
	mov	ecx, DWORD PTR [edx-24]
	xor	ecx, eax
	call	@__security_check_cookie@4
	mov	eax, OFFSET __ehfuncinfo$?GetPlayerOptionInfo@CvDllGameContext@@UAGPAVICvPlayerOptionInfo1@@W4PlayerOptionTypes@@@Z
	jmp	___CxxFrameHandler3
text$x	ENDS
?GetPlayerOptionInfo@CvDllGameContext@@UAGPAVICvPlayerOptionInfo1@@W4PlayerOptionTypes@@@Z ENDP ; CvDllGameContext::GetPlayerOptionInfo
EXTRN	??3CvDllPolicyInfo@@SAXPAX@Z:PROC		; CvDllPolicyInfo::operator delete
EXTRN	??0CvDllPolicyInfo@@QAE@PAVCvPolicyEntry@@@Z:PROC ; CvDllPolicyInfo::CvDllPolicyInfo
EXTRN	??2CvDllPolicyInfo@@SAPAXI@Z:PROC		; CvDllPolicyInfo::operator new
EXTRN	?getPolicyInfo@CvGlobals@@QAEPAVCvPolicyEntry@@W4PolicyTypes@@@Z:PROC ; CvGlobals::getPolicyInfo
;	COMDAT xdata$x
xdata$x	SEGMENT
__unwindtable$?GetPolicyInfo@CvDllGameContext@@UAGPAVICvPolicyInfo1@@W4PolicyTypes@@@Z DD 0ffffffffH
	DD	FLAT:__unwindfunclet$?GetPolicyInfo@CvDllGameContext@@UAGPAVICvPolicyInfo1@@W4PolicyTypes@@@Z$0
__ehfuncinfo$?GetPolicyInfo@CvDllGameContext@@UAGPAVICvPolicyInfo1@@W4PolicyTypes@@@Z DD 019930522H
	DD	01H
	DD	FLAT:__unwindtable$?GetPolicyInfo@CvDllGameContext@@UAGPAVICvPolicyInfo1@@W4PolicyTypes@@@Z
	DD	2 DUP(00H)
	DD	2 DUP(00H)
	DD	00H
	DD	01H
; Function compile flags: /Odtp
xdata$x	ENDS
;	COMDAT ?GetPolicyInfo@CvDllGameContext@@UAGPAVICvPolicyInfo1@@W4PolicyTypes@@@Z
_TEXT	SEGMENT
tv74 = -32						; size = 4
tv79 = -28						; size = 4
$T228349 = -24						; size = 4
$T228348 = -20						; size = 4
_pkInfo$ = -16						; size = 4
__$EHRec$ = -12						; size = 12
_this$ = 8						; size = 4
_ePolicy$ = 12						; size = 4
?GetPolicyInfo@CvDllGameContext@@UAGPAVICvPolicyInfo1@@W4PolicyTypes@@@Z PROC ; CvDllGameContext::GetPolicyInfo, COMDAT

; 493  : {

	push	ebp
	mov	ebp, esp
	push	-1
	push	__ehhandler$?GetPolicyInfo@CvDllGameContext@@UAGPAVICvPolicyInfo1@@W4PolicyTypes@@@Z
	mov	eax, DWORD PTR fs:0
	push	eax
	sub	esp, 20					; 00000014H
	mov	eax, DWORD PTR ___security_cookie
	xor	eax, ebp
	push	eax
	lea	eax, DWORD PTR __$EHRec$[ebp]
	mov	DWORD PTR fs:0, eax

; 494  : 	CvPolicyEntry* pkInfo = GC.getPolicyInfo(ePolicy);

	mov	eax, DWORD PTR _ePolicy$[ebp]
	push	eax
	mov	ecx, OFFSET ?gGlobals@@3VCvGlobals@@A	; gGlobals
	call	?getPolicyInfo@CvGlobals@@QAEPAVCvPolicyEntry@@W4PolicyTypes@@@Z ; CvGlobals::getPolicyInfo
	mov	DWORD PTR _pkInfo$[ebp], eax

; 495  : 	return (NULL != pkInfo)? new CvDllPolicyInfo(pkInfo) : NULL;

	cmp	DWORD PTR _pkInfo$[ebp], 0
	je	SHORT $LN5@GetPolicyI
	push	12					; 0000000cH
	call	??2CvDllPolicyInfo@@SAPAXI@Z		; CvDllPolicyInfo::operator new
	add	esp, 4
	mov	DWORD PTR $T228349[ebp], eax
	mov	DWORD PTR __$EHRec$[ebp+8], 0
	cmp	DWORD PTR $T228349[ebp], 0
	je	SHORT $LN3@GetPolicyI
	mov	ecx, DWORD PTR _pkInfo$[ebp]
	push	ecx
	mov	ecx, DWORD PTR $T228349[ebp]
	call	??0CvDllPolicyInfo@@QAE@PAVCvPolicyEntry@@@Z ; CvDllPolicyInfo::CvDllPolicyInfo
	mov	DWORD PTR tv79[ebp], eax
	jmp	SHORT $LN4@GetPolicyI
$LN3@GetPolicyI:
	mov	DWORD PTR tv79[ebp], 0
$LN4@GetPolicyI:
	mov	edx, DWORD PTR tv79[ebp]
	mov	DWORD PTR $T228348[ebp], edx
	mov	DWORD PTR __$EHRec$[ebp+8], -1
	mov	eax, DWORD PTR $T228348[ebp]
	mov	DWORD PTR tv74[ebp], eax
	jmp	SHORT $LN6@GetPolicyI
$LN5@GetPolicyI:
	mov	DWORD PTR tv74[ebp], 0
$LN6@GetPolicyI:
	mov	eax, DWORD PTR tv74[ebp]

; 496  : }

	mov	ecx, DWORD PTR __$EHRec$[ebp]
	mov	DWORD PTR fs:0, ecx
	pop	ecx
	mov	esp, ebp
	pop	ebp
	ret	8
_TEXT	ENDS
;	COMDAT text$x
text$x	SEGMENT
__unwindfunclet$?GetPolicyInfo@CvDllGameContext@@UAGPAVICvPolicyInfo1@@W4PolicyTypes@@@Z$0:
	mov	eax, DWORD PTR $T228349[ebp]
	push	eax
	call	??3CvDllPolicyInfo@@SAXPAX@Z		; CvDllPolicyInfo::operator delete
	pop	ecx
	ret	0
__ehhandler$?GetPolicyInfo@CvDllGameContext@@UAGPAVICvPolicyInfo1@@W4PolicyTypes@@@Z:
	mov	edx, DWORD PTR [esp+8]
	lea	eax, DWORD PTR [edx+12]
	mov	ecx, DWORD PTR [edx-24]
	xor	ecx, eax
	call	@__security_check_cookie@4
	mov	eax, OFFSET __ehfuncinfo$?GetPolicyInfo@CvDllGameContext@@UAGPAVICvPolicyInfo1@@W4PolicyTypes@@@Z
	jmp	___CxxFrameHandler3
text$x	ENDS
?GetPolicyInfo@CvDllGameContext@@UAGPAVICvPolicyInfo1@@W4PolicyTypes@@@Z ENDP ; CvDllGameContext::GetPolicyInfo
EXTRN	??3CvDllPromotionInfo@@SAXPAX@Z:PROC		; CvDllPromotionInfo::operator delete
EXTRN	??0CvDllPromotionInfo@@QAE@PAVCvPromotionEntry@@@Z:PROC ; CvDllPromotionInfo::CvDllPromotionInfo
EXTRN	??2CvDllPromotionInfo@@SAPAXI@Z:PROC		; CvDllPromotionInfo::operator new
EXTRN	?getPromotionInfo@CvGlobals@@QAEPAVCvPromotionEntry@@W4PromotionTypes@@@Z:PROC ; CvGlobals::getPromotionInfo
;	COMDAT xdata$x
xdata$x	SEGMENT
__unwindtable$?GetPromotionInfo@CvDllGameContext@@UAGPAVICvPromotionInfo1@@W4PromotionTypes@@@Z DD 0ffffffffH
	DD	FLAT:__unwindfunclet$?GetPromotionInfo@CvDllGameContext@@UAGPAVICvPromotionInfo1@@W4PromotionTypes@@@Z$0
__ehfuncinfo$?GetPromotionInfo@CvDllGameContext@@UAGPAVICvPromotionInfo1@@W4PromotionTypes@@@Z DD 019930522H
	DD	01H
	DD	FLAT:__unwindtable$?GetPromotionInfo@CvDllGameContext@@UAGPAVICvPromotionInfo1@@W4PromotionTypes@@@Z
	DD	2 DUP(00H)
	DD	2 DUP(00H)
	DD	00H
	DD	01H
; Function compile flags: /Odtp
xdata$x	ENDS
;	COMDAT ?GetPromotionInfo@CvDllGameContext@@UAGPAVICvPromotionInfo1@@W4PromotionTypes@@@Z
_TEXT	SEGMENT
tv74 = -32						; size = 4
tv79 = -28						; size = 4
$T228364 = -24						; size = 4
$T228363 = -20						; size = 4
_pkInfo$ = -16						; size = 4
__$EHRec$ = -12						; size = 12
_this$ = 8						; size = 4
_ePromotion$ = 12					; size = 4
?GetPromotionInfo@CvDllGameContext@@UAGPAVICvPromotionInfo1@@W4PromotionTypes@@@Z PROC ; CvDllGameContext::GetPromotionInfo, COMDAT

; 499  : {

	push	ebp
	mov	ebp, esp
	push	-1
	push	__ehhandler$?GetPromotionInfo@CvDllGameContext@@UAGPAVICvPromotionInfo1@@W4PromotionTypes@@@Z
	mov	eax, DWORD PTR fs:0
	push	eax
	sub	esp, 20					; 00000014H
	mov	eax, DWORD PTR ___security_cookie
	xor	eax, ebp
	push	eax
	lea	eax, DWORD PTR __$EHRec$[ebp]
	mov	DWORD PTR fs:0, eax

; 500  : 	CvPromotionEntry* pkInfo = GC.getPromotionInfo(ePromotion);

	mov	eax, DWORD PTR _ePromotion$[ebp]
	push	eax
	mov	ecx, OFFSET ?gGlobals@@3VCvGlobals@@A	; gGlobals
	call	?getPromotionInfo@CvGlobals@@QAEPAVCvPromotionEntry@@W4PromotionTypes@@@Z ; CvGlobals::getPromotionInfo
	mov	DWORD PTR _pkInfo$[ebp], eax

; 501  : 	return (NULL != pkInfo)? new CvDllPromotionInfo(pkInfo) : NULL;

	cmp	DWORD PTR _pkInfo$[ebp], 0
	je	SHORT $LN5@GetPromoti
	push	12					; 0000000cH
	call	??2CvDllPromotionInfo@@SAPAXI@Z		; CvDllPromotionInfo::operator new
	add	esp, 4
	mov	DWORD PTR $T228364[ebp], eax
	mov	DWORD PTR __$EHRec$[ebp+8], 0
	cmp	DWORD PTR $T228364[ebp], 0
	je	SHORT $LN3@GetPromoti
	mov	ecx, DWORD PTR _pkInfo$[ebp]
	push	ecx
	mov	ecx, DWORD PTR $T228364[ebp]
	call	??0CvDllPromotionInfo@@QAE@PAVCvPromotionEntry@@@Z ; CvDllPromotionInfo::CvDllPromotionInfo
	mov	DWORD PTR tv79[ebp], eax
	jmp	SHORT $LN4@GetPromoti
$LN3@GetPromoti:
	mov	DWORD PTR tv79[ebp], 0
$LN4@GetPromoti:
	mov	edx, DWORD PTR tv79[ebp]
	mov	DWORD PTR $T228363[ebp], edx
	mov	DWORD PTR __$EHRec$[ebp+8], -1
	mov	eax, DWORD PTR $T228363[ebp]
	mov	DWORD PTR tv74[ebp], eax
	jmp	SHORT $LN6@GetPromoti
$LN5@GetPromoti:
	mov	DWORD PTR tv74[ebp], 0
$LN6@GetPromoti:
	mov	eax, DWORD PTR tv74[ebp]

; 502  : }

	mov	ecx, DWORD PTR __$EHRec$[ebp]
	mov	DWORD PTR fs:0, ecx
	pop	ecx
	mov	esp, ebp
	pop	ebp
	ret	8
_TEXT	ENDS
;	COMDAT text$x
text$x	SEGMENT
__unwindfunclet$?GetPromotionInfo@CvDllGameContext@@UAGPAVICvPromotionInfo1@@W4PromotionTypes@@@Z$0:
	mov	eax, DWORD PTR $T228364[ebp]
	push	eax
	call	??3CvDllPromotionInfo@@SAXPAX@Z		; CvDllPromotionInfo::operator delete
	pop	ecx
	ret	0
__ehhandler$?GetPromotionInfo@CvDllGameContext@@UAGPAVICvPromotionInfo1@@W4PromotionTypes@@@Z:
	mov	edx, DWORD PTR [esp+8]
	lea	eax, DWORD PTR [edx+12]
	mov	ecx, DWORD PTR [edx-24]
	xor	ecx, eax
	call	@__security_check_cookie@4
	mov	eax, OFFSET __ehfuncinfo$?GetPromotionInfo@CvDllGameContext@@UAGPAVICvPromotionInfo1@@W4PromotionTypes@@@Z
	jmp	___CxxFrameHandler3
text$x	ENDS
?GetPromotionInfo@CvDllGameContext@@UAGPAVICvPromotionInfo1@@W4PromotionTypes@@@Z ENDP ; CvDllGameContext::GetPromotionInfo
EXTRN	??3CvDllResourceInfo@@SAXPAX@Z:PROC		; CvDllResourceInfo::operator delete
EXTRN	??0CvDllResourceInfo@@QAE@PAVCvResourceInfo@@@Z:PROC ; CvDllResourceInfo::CvDllResourceInfo
EXTRN	??2CvDllResourceInfo@@SAPAXI@Z:PROC		; CvDllResourceInfo::operator new
EXTRN	?getResourceInfo@CvGlobals@@QAEPAVCvResourceInfo@@W4ResourceTypes@@@Z:PROC ; CvGlobals::getResourceInfo
;	COMDAT xdata$x
xdata$x	SEGMENT
__unwindtable$?GetResourceInfo@CvDllGameContext@@UAGPAVICvResourceInfo1@@W4ResourceTypes@@@Z DD 0ffffffffH
	DD	FLAT:__unwindfunclet$?GetResourceInfo@CvDllGameContext@@UAGPAVICvResourceInfo1@@W4ResourceTypes@@@Z$0
__ehfuncinfo$?GetResourceInfo@CvDllGameContext@@UAGPAVICvResourceInfo1@@W4ResourceTypes@@@Z DD 019930522H
	DD	01H
	DD	FLAT:__unwindtable$?GetResourceInfo@CvDllGameContext@@UAGPAVICvResourceInfo1@@W4ResourceTypes@@@Z
	DD	2 DUP(00H)
	DD	2 DUP(00H)
	DD	00H
	DD	01H
; Function compile flags: /Odtp
xdata$x	ENDS
;	COMDAT ?GetResourceInfo@CvDllGameContext@@UAGPAVICvResourceInfo1@@W4ResourceTypes@@@Z
_TEXT	SEGMENT
tv74 = -32						; size = 4
tv79 = -28						; size = 4
$T228379 = -24						; size = 4
$T228378 = -20						; size = 4
_pkInfo$ = -16						; size = 4
__$EHRec$ = -12						; size = 12
_this$ = 8						; size = 4
_eResourceNum$ = 12					; size = 4
?GetResourceInfo@CvDllGameContext@@UAGPAVICvResourceInfo1@@W4ResourceTypes@@@Z PROC ; CvDllGameContext::GetResourceInfo, COMDAT

; 505  : {

	push	ebp
	mov	ebp, esp
	push	-1
	push	__ehhandler$?GetResourceInfo@CvDllGameContext@@UAGPAVICvResourceInfo1@@W4ResourceTypes@@@Z
	mov	eax, DWORD PTR fs:0
	push	eax
	sub	esp, 20					; 00000014H
	mov	eax, DWORD PTR ___security_cookie
	xor	eax, ebp
	push	eax
	lea	eax, DWORD PTR __$EHRec$[ebp]
	mov	DWORD PTR fs:0, eax

; 506  : 	CvResourceInfo* pkInfo = GC.getResourceInfo(eResourceNum);

	mov	eax, DWORD PTR _eResourceNum$[ebp]
	push	eax
	mov	ecx, OFFSET ?gGlobals@@3VCvGlobals@@A	; gGlobals
	call	?getResourceInfo@CvGlobals@@QAEPAVCvResourceInfo@@W4ResourceTypes@@@Z ; CvGlobals::getResourceInfo
	mov	DWORD PTR _pkInfo$[ebp], eax

; 507  : 	return (NULL != pkInfo)? new CvDllResourceInfo(pkInfo) : NULL;

	cmp	DWORD PTR _pkInfo$[ebp], 0
	je	SHORT $LN5@GetResourc
	push	12					; 0000000cH
	call	??2CvDllResourceInfo@@SAPAXI@Z		; CvDllResourceInfo::operator new
	add	esp, 4
	mov	DWORD PTR $T228379[ebp], eax
	mov	DWORD PTR __$EHRec$[ebp+8], 0
	cmp	DWORD PTR $T228379[ebp], 0
	je	SHORT $LN3@GetResourc
	mov	ecx, DWORD PTR _pkInfo$[ebp]
	push	ecx
	mov	ecx, DWORD PTR $T228379[ebp]
	call	??0CvDllResourceInfo@@QAE@PAVCvResourceInfo@@@Z ; CvDllResourceInfo::CvDllResourceInfo
	mov	DWORD PTR tv79[ebp], eax
	jmp	SHORT $LN4@GetResourc
$LN3@GetResourc:
	mov	DWORD PTR tv79[ebp], 0
$LN4@GetResourc:
	mov	edx, DWORD PTR tv79[ebp]
	mov	DWORD PTR $T228378[ebp], edx
	mov	DWORD PTR __$EHRec$[ebp+8], -1
	mov	eax, DWORD PTR $T228378[ebp]
	mov	DWORD PTR tv74[ebp], eax
	jmp	SHORT $LN6@GetResourc
$LN5@GetResourc:
	mov	DWORD PTR tv74[ebp], 0
$LN6@GetResourc:
	mov	eax, DWORD PTR tv74[ebp]

; 508  : }

	mov	ecx, DWORD PTR __$EHRec$[ebp]
	mov	DWORD PTR fs:0, ecx
	pop	ecx
	mov	esp, ebp
	pop	ebp
	ret	8
_TEXT	ENDS
;	COMDAT text$x
text$x	SEGMENT
__unwindfunclet$?GetResourceInfo@CvDllGameContext@@UAGPAVICvResourceInfo1@@W4ResourceTypes@@@Z$0:
	mov	eax, DWORD PTR $T228379[ebp]
	push	eax
	call	??3CvDllResourceInfo@@SAXPAX@Z		; CvDllResourceInfo::operator delete
	pop	ecx
	ret	0
__ehhandler$?GetResourceInfo@CvDllGameContext@@UAGPAVICvResourceInfo1@@W4ResourceTypes@@@Z:
	mov	edx, DWORD PTR [esp+8]
	lea	eax, DWORD PTR [edx+12]
	mov	ecx, DWORD PTR [edx-24]
	xor	ecx, eax
	call	@__security_check_cookie@4
	mov	eax, OFFSET __ehfuncinfo$?GetResourceInfo@CvDllGameContext@@UAGPAVICvResourceInfo1@@W4ResourceTypes@@@Z
	jmp	___CxxFrameHandler3
text$x	ENDS
?GetResourceInfo@CvDllGameContext@@UAGPAVICvResourceInfo1@@W4ResourceTypes@@@Z ENDP ; CvDllGameContext::GetResourceInfo
EXTRN	??3CvDllTechInfo@@SAXPAX@Z:PROC			; CvDllTechInfo::operator delete
EXTRN	??0CvDllTechInfo@@QAE@PAVCvTechEntry@@@Z:PROC	; CvDllTechInfo::CvDllTechInfo
EXTRN	??2CvDllTechInfo@@SAPAXI@Z:PROC			; CvDllTechInfo::operator new
EXTRN	?getTechInfo@CvGlobals@@QAEPAVCvTechEntry@@W4TechTypes@@@Z:PROC ; CvGlobals::getTechInfo
;	COMDAT xdata$x
xdata$x	SEGMENT
__unwindtable$?GetTechInfo@CvDllGameContext@@UAGPAVICvTechInfo1@@W4TechTypes@@@Z DD 0ffffffffH
	DD	FLAT:__unwindfunclet$?GetTechInfo@CvDllGameContext@@UAGPAVICvTechInfo1@@W4TechTypes@@@Z$0
__ehfuncinfo$?GetTechInfo@CvDllGameContext@@UAGPAVICvTechInfo1@@W4TechTypes@@@Z DD 019930522H
	DD	01H
	DD	FLAT:__unwindtable$?GetTechInfo@CvDllGameContext@@UAGPAVICvTechInfo1@@W4TechTypes@@@Z
	DD	2 DUP(00H)
	DD	2 DUP(00H)
	DD	00H
	DD	01H
; Function compile flags: /Odtp
xdata$x	ENDS
;	COMDAT ?GetTechInfo@CvDllGameContext@@UAGPAVICvTechInfo1@@W4TechTypes@@@Z
_TEXT	SEGMENT
tv74 = -32						; size = 4
tv79 = -28						; size = 4
$T228394 = -24						; size = 4
$T228393 = -20						; size = 4
_pkEntry$ = -16						; size = 4
__$EHRec$ = -12						; size = 12
_this$ = 8						; size = 4
_eTech$ = 12						; size = 4
?GetTechInfo@CvDllGameContext@@UAGPAVICvTechInfo1@@W4TechTypes@@@Z PROC ; CvDllGameContext::GetTechInfo, COMDAT

; 511  : {

	push	ebp
	mov	ebp, esp
	push	-1
	push	__ehhandler$?GetTechInfo@CvDllGameContext@@UAGPAVICvTechInfo1@@W4TechTypes@@@Z
	mov	eax, DWORD PTR fs:0
	push	eax
	sub	esp, 20					; 00000014H
	mov	eax, DWORD PTR ___security_cookie
	xor	eax, ebp
	push	eax
	lea	eax, DWORD PTR __$EHRec$[ebp]
	mov	DWORD PTR fs:0, eax

; 512  : 	CvTechEntry* pkEntry = GC.getTechInfo(eTech);

	mov	eax, DWORD PTR _eTech$[ebp]
	push	eax
	mov	ecx, OFFSET ?gGlobals@@3VCvGlobals@@A	; gGlobals
	call	?getTechInfo@CvGlobals@@QAEPAVCvTechEntry@@W4TechTypes@@@Z ; CvGlobals::getTechInfo
	mov	DWORD PTR _pkEntry$[ebp], eax

; 513  : 	return (NULL != pkEntry)? new CvDllTechInfo(pkEntry) : NULL;

	cmp	DWORD PTR _pkEntry$[ebp], 0
	je	SHORT $LN5@GetTechInf
	push	12					; 0000000cH
	call	??2CvDllTechInfo@@SAPAXI@Z		; CvDllTechInfo::operator new
	add	esp, 4
	mov	DWORD PTR $T228394[ebp], eax
	mov	DWORD PTR __$EHRec$[ebp+8], 0
	cmp	DWORD PTR $T228394[ebp], 0
	je	SHORT $LN3@GetTechInf
	mov	ecx, DWORD PTR _pkEntry$[ebp]
	push	ecx
	mov	ecx, DWORD PTR $T228394[ebp]
	call	??0CvDllTechInfo@@QAE@PAVCvTechEntry@@@Z ; CvDllTechInfo::CvDllTechInfo
	mov	DWORD PTR tv79[ebp], eax
	jmp	SHORT $LN4@GetTechInf
$LN3@GetTechInf:
	mov	DWORD PTR tv79[ebp], 0
$LN4@GetTechInf:
	mov	edx, DWORD PTR tv79[ebp]
	mov	DWORD PTR $T228393[ebp], edx
	mov	DWORD PTR __$EHRec$[ebp+8], -1
	mov	eax, DWORD PTR $T228393[ebp]
	mov	DWORD PTR tv74[ebp], eax
	jmp	SHORT $LN6@GetTechInf
$LN5@GetTechInf:
	mov	DWORD PTR tv74[ebp], 0
$LN6@GetTechInf:
	mov	eax, DWORD PTR tv74[ebp]

; 514  : }

	mov	ecx, DWORD PTR __$EHRec$[ebp]
	mov	DWORD PTR fs:0, ecx
	pop	ecx
	mov	esp, ebp
	pop	ebp
	ret	8
_TEXT	ENDS
;	COMDAT text$x
text$x	SEGMENT
__unwindfunclet$?GetTechInfo@CvDllGameContext@@UAGPAVICvTechInfo1@@W4TechTypes@@@Z$0:
	mov	eax, DWORD PTR $T228394[ebp]
	push	eax
	call	??3CvDllTechInfo@@SAXPAX@Z		; CvDllTechInfo::operator delete
	pop	ecx
	ret	0
__ehhandler$?GetTechInfo@CvDllGameContext@@UAGPAVICvTechInfo1@@W4TechTypes@@@Z:
	mov	edx, DWORD PTR [esp+8]
	lea	eax, DWORD PTR [edx+12]
	mov	ecx, DWORD PTR [edx-24]
	xor	ecx, eax
	call	@__security_check_cookie@4
	mov	eax, OFFSET __ehfuncinfo$?GetTechInfo@CvDllGameContext@@UAGPAVICvTechInfo1@@W4TechTypes@@@Z
	jmp	___CxxFrameHandler3
text$x	ENDS
?GetTechInfo@CvDllGameContext@@UAGPAVICvTechInfo1@@W4TechTypes@@@Z ENDP ; CvDllGameContext::GetTechInfo
EXTRN	??3CvDllTerrainInfo@@SAXPAX@Z:PROC		; CvDllTerrainInfo::operator delete
EXTRN	??0CvDllTerrainInfo@@QAE@PAVCvTerrainInfo@@@Z:PROC ; CvDllTerrainInfo::CvDllTerrainInfo
EXTRN	??2CvDllTerrainInfo@@SAPAXI@Z:PROC		; CvDllTerrainInfo::operator new
EXTRN	?getTerrainInfo@CvGlobals@@QAEPAVCvTerrainInfo@@W4TerrainTypes@@@Z:PROC ; CvGlobals::getTerrainInfo
;	COMDAT xdata$x
xdata$x	SEGMENT
__unwindtable$?GetTerrainInfo@CvDllGameContext@@UAGPAVICvTerrainInfo1@@W4TerrainTypes@@@Z DD 0ffffffffH
	DD	FLAT:__unwindfunclet$?GetTerrainInfo@CvDllGameContext@@UAGPAVICvTerrainInfo1@@W4TerrainTypes@@@Z$0
__ehfuncinfo$?GetTerrainInfo@CvDllGameContext@@UAGPAVICvTerrainInfo1@@W4TerrainTypes@@@Z DD 019930522H
	DD	01H
	DD	FLAT:__unwindtable$?GetTerrainInfo@CvDllGameContext@@UAGPAVICvTerrainInfo1@@W4TerrainTypes@@@Z
	DD	2 DUP(00H)
	DD	2 DUP(00H)
	DD	00H
	DD	01H
; Function compile flags: /Odtp
xdata$x	ENDS
;	COMDAT ?GetTerrainInfo@CvDllGameContext@@UAGPAVICvTerrainInfo1@@W4TerrainTypes@@@Z
_TEXT	SEGMENT
tv74 = -32						; size = 4
tv79 = -28						; size = 4
$T228409 = -24						; size = 4
$T228408 = -20						; size = 4
_pkInfo$ = -16						; size = 4
__$EHRec$ = -12						; size = 12
_this$ = 8						; size = 4
_eTerrainNum$ = 12					; size = 4
?GetTerrainInfo@CvDllGameContext@@UAGPAVICvTerrainInfo1@@W4TerrainTypes@@@Z PROC ; CvDllGameContext::GetTerrainInfo, COMDAT

; 517  : {

	push	ebp
	mov	ebp, esp
	push	-1
	push	__ehhandler$?GetTerrainInfo@CvDllGameContext@@UAGPAVICvTerrainInfo1@@W4TerrainTypes@@@Z
	mov	eax, DWORD PTR fs:0
	push	eax
	sub	esp, 20					; 00000014H
	mov	eax, DWORD PTR ___security_cookie
	xor	eax, ebp
	push	eax
	lea	eax, DWORD PTR __$EHRec$[ebp]
	mov	DWORD PTR fs:0, eax

; 518  : 	CvTerrainInfo* pkInfo = GC.getTerrainInfo(eTerrainNum);

	mov	eax, DWORD PTR _eTerrainNum$[ebp]
	push	eax
	mov	ecx, OFFSET ?gGlobals@@3VCvGlobals@@A	; gGlobals
	call	?getTerrainInfo@CvGlobals@@QAEPAVCvTerrainInfo@@W4TerrainTypes@@@Z ; CvGlobals::getTerrainInfo
	mov	DWORD PTR _pkInfo$[ebp], eax

; 519  : 	return (NULL != pkInfo)? new CvDllTerrainInfo(pkInfo) : NULL;

	cmp	DWORD PTR _pkInfo$[ebp], 0
	je	SHORT $LN5@GetTerrain
	push	12					; 0000000cH
	call	??2CvDllTerrainInfo@@SAPAXI@Z		; CvDllTerrainInfo::operator new
	add	esp, 4
	mov	DWORD PTR $T228409[ebp], eax
	mov	DWORD PTR __$EHRec$[ebp+8], 0
	cmp	DWORD PTR $T228409[ebp], 0
	je	SHORT $LN3@GetTerrain
	mov	ecx, DWORD PTR _pkInfo$[ebp]
	push	ecx
	mov	ecx, DWORD PTR $T228409[ebp]
	call	??0CvDllTerrainInfo@@QAE@PAVCvTerrainInfo@@@Z ; CvDllTerrainInfo::CvDllTerrainInfo
	mov	DWORD PTR tv79[ebp], eax
	jmp	SHORT $LN4@GetTerrain
$LN3@GetTerrain:
	mov	DWORD PTR tv79[ebp], 0
$LN4@GetTerrain:
	mov	edx, DWORD PTR tv79[ebp]
	mov	DWORD PTR $T228408[ebp], edx
	mov	DWORD PTR __$EHRec$[ebp+8], -1
	mov	eax, DWORD PTR $T228408[ebp]
	mov	DWORD PTR tv74[ebp], eax
	jmp	SHORT $LN6@GetTerrain
$LN5@GetTerrain:
	mov	DWORD PTR tv74[ebp], 0
$LN6@GetTerrain:
	mov	eax, DWORD PTR tv74[ebp]

; 520  : }

	mov	ecx, DWORD PTR __$EHRec$[ebp]
	mov	DWORD PTR fs:0, ecx
	pop	ecx
	mov	esp, ebp
	pop	ebp
	ret	8
_TEXT	ENDS
;	COMDAT text$x
text$x	SEGMENT
__unwindfunclet$?GetTerrainInfo@CvDllGameContext@@UAGPAVICvTerrainInfo1@@W4TerrainTypes@@@Z$0:
	mov	eax, DWORD PTR $T228409[ebp]
	push	eax
	call	??3CvDllTerrainInfo@@SAXPAX@Z		; CvDllTerrainInfo::operator delete
	pop	ecx
	ret	0
__ehhandler$?GetTerrainInfo@CvDllGameContext@@UAGPAVICvTerrainInfo1@@W4TerrainTypes@@@Z:
	mov	edx, DWORD PTR [esp+8]
	lea	eax, DWORD PTR [edx+12]
	mov	ecx, DWORD PTR [edx-24]
	xor	ecx, eax
	call	@__security_check_cookie@4
	mov	eax, OFFSET __ehfuncinfo$?GetTerrainInfo@CvDllGameContext@@UAGPAVICvTerrainInfo1@@W4TerrainTypes@@@Z
	jmp	___CxxFrameHandler3
text$x	ENDS
?GetTerrainInfo@CvDllGameContext@@UAGPAVICvTerrainInfo1@@W4TerrainTypes@@@Z ENDP ; CvDllGameContext::GetTerrainInfo
EXTRN	??3CvDllUnitInfo@@SAXPAX@Z:PROC			; CvDllUnitInfo::operator delete
EXTRN	??0CvDllUnitInfo@@QAE@PAVCvUnitEntry@@@Z:PROC	; CvDllUnitInfo::CvDllUnitInfo
EXTRN	??2CvDllUnitInfo@@SAPAXI@Z:PROC			; CvDllUnitInfo::operator new
EXTRN	?getUnitInfo@CvGlobals@@QAEPAVCvUnitEntry@@W4UnitTypes@@@Z:PROC ; CvGlobals::getUnitInfo
;	COMDAT xdata$x
xdata$x	SEGMENT
__unwindtable$?GetUnitInfo@CvDllGameContext@@UAGPAVICvUnitInfo1@@W4UnitTypes@@@Z DD 0ffffffffH
	DD	FLAT:__unwindfunclet$?GetUnitInfo@CvDllGameContext@@UAGPAVICvUnitInfo1@@W4UnitTypes@@@Z$0
__ehfuncinfo$?GetUnitInfo@CvDllGameContext@@UAGPAVICvUnitInfo1@@W4UnitTypes@@@Z DD 019930522H
	DD	01H
	DD	FLAT:__unwindtable$?GetUnitInfo@CvDllGameContext@@UAGPAVICvUnitInfo1@@W4UnitTypes@@@Z
	DD	2 DUP(00H)
	DD	2 DUP(00H)
	DD	00H
	DD	01H
; Function compile flags: /Odtp
xdata$x	ENDS
;	COMDAT ?GetUnitInfo@CvDllGameContext@@UAGPAVICvUnitInfo1@@W4UnitTypes@@@Z
_TEXT	SEGMENT
tv74 = -32						; size = 4
tv79 = -28						; size = 4
$T228424 = -24						; size = 4
$T228423 = -20						; size = 4
_pkEntry$ = -16						; size = 4
__$EHRec$ = -12						; size = 12
_this$ = 8						; size = 4
_eUnit$ = 12						; size = 4
?GetUnitInfo@CvDllGameContext@@UAGPAVICvUnitInfo1@@W4UnitTypes@@@Z PROC ; CvDllGameContext::GetUnitInfo, COMDAT

; 523  : {

	push	ebp
	mov	ebp, esp
	push	-1
	push	__ehhandler$?GetUnitInfo@CvDllGameContext@@UAGPAVICvUnitInfo1@@W4UnitTypes@@@Z
	mov	eax, DWORD PTR fs:0
	push	eax
	sub	esp, 20					; 00000014H
	mov	eax, DWORD PTR ___security_cookie
	xor	eax, ebp
	push	eax
	lea	eax, DWORD PTR __$EHRec$[ebp]
	mov	DWORD PTR fs:0, eax

; 524  : 	CvUnitEntry* pkEntry = GC.getUnitInfo(eUnit);

	mov	eax, DWORD PTR _eUnit$[ebp]
	push	eax
	mov	ecx, OFFSET ?gGlobals@@3VCvGlobals@@A	; gGlobals
	call	?getUnitInfo@CvGlobals@@QAEPAVCvUnitEntry@@W4UnitTypes@@@Z ; CvGlobals::getUnitInfo
	mov	DWORD PTR _pkEntry$[ebp], eax

; 525  : 	return (NULL != pkEntry)? new CvDllUnitInfo(pkEntry) : NULL;

	cmp	DWORD PTR _pkEntry$[ebp], 0
	je	SHORT $LN5@GetUnitInf
	push	12					; 0000000cH
	call	??2CvDllUnitInfo@@SAPAXI@Z		; CvDllUnitInfo::operator new
	add	esp, 4
	mov	DWORD PTR $T228424[ebp], eax
	mov	DWORD PTR __$EHRec$[ebp+8], 0
	cmp	DWORD PTR $T228424[ebp], 0
	je	SHORT $LN3@GetUnitInf
	mov	ecx, DWORD PTR _pkEntry$[ebp]
	push	ecx
	mov	ecx, DWORD PTR $T228424[ebp]
	call	??0CvDllUnitInfo@@QAE@PAVCvUnitEntry@@@Z ; CvDllUnitInfo::CvDllUnitInfo
	mov	DWORD PTR tv79[ebp], eax
	jmp	SHORT $LN4@GetUnitInf
$LN3@GetUnitInf:
	mov	DWORD PTR tv79[ebp], 0
$LN4@GetUnitInf:
	mov	edx, DWORD PTR tv79[ebp]
	mov	DWORD PTR $T228423[ebp], edx
	mov	DWORD PTR __$EHRec$[ebp+8], -1
	mov	eax, DWORD PTR $T228423[ebp]
	mov	DWORD PTR tv74[ebp], eax
	jmp	SHORT $LN6@GetUnitInf
$LN5@GetUnitInf:
	mov	DWORD PTR tv74[ebp], 0
$LN6@GetUnitInf:
	mov	eax, DWORD PTR tv74[ebp]

; 526  : }

	mov	ecx, DWORD PTR __$EHRec$[ebp]
	mov	DWORD PTR fs:0, ecx
	pop	ecx
	mov	esp, ebp
	pop	ebp
	ret	8
_TEXT	ENDS
;	COMDAT text$x
text$x	SEGMENT
__unwindfunclet$?GetUnitInfo@CvDllGameContext@@UAGPAVICvUnitInfo1@@W4UnitTypes@@@Z$0:
	mov	eax, DWORD PTR $T228424[ebp]
	push	eax
	call	??3CvDllUnitInfo@@SAXPAX@Z		; CvDllUnitInfo::operator delete
	pop	ecx
	ret	0
__ehhandler$?GetUnitInfo@CvDllGameContext@@UAGPAVICvUnitInfo1@@W4UnitTypes@@@Z:
	mov	edx, DWORD PTR [esp+8]
	lea	eax, DWORD PTR [edx+12]
	mov	ecx, DWORD PTR [edx-24]
	xor	ecx, eax
	call	@__security_check_cookie@4
	mov	eax, OFFSET __ehfuncinfo$?GetUnitInfo@CvDllGameContext@@UAGPAVICvUnitInfo1@@W4UnitTypes@@@Z
	jmp	___CxxFrameHandler3
text$x	ENDS
?GetUnitInfo@CvDllGameContext@@UAGPAVICvUnitInfo1@@W4UnitTypes@@@Z ENDP ; CvDllGameContext::GetUnitInfo
EXTRN	??3CvDllUnitCombatClassInfo@@SAXPAX@Z:PROC	; CvDllUnitCombatClassInfo::operator delete
EXTRN	??0CvDllUnitCombatClassInfo@@QAE@PAVCvBaseInfo@@@Z:PROC ; CvDllUnitCombatClassInfo::CvDllUnitCombatClassInfo
EXTRN	??2CvDllUnitCombatClassInfo@@SAPAXI@Z:PROC	; CvDllUnitCombatClassInfo::operator new
EXTRN	?getUnitCombatClassInfo@CvGlobals@@QAEPAVCvBaseInfo@@W4UnitCombatTypes@@@Z:PROC ; CvGlobals::getUnitCombatClassInfo
;	COMDAT xdata$x
xdata$x	SEGMENT
__unwindtable$?GetUnitCombatClassInfo@CvDllGameContext@@UAGPAVICvUnitCombatClassInfo1@@W4UnitCombatTypes@@@Z DD 0ffffffffH
	DD	FLAT:__unwindfunclet$?GetUnitCombatClassInfo@CvDllGameContext@@UAGPAVICvUnitCombatClassInfo1@@W4UnitCombatTypes@@@Z$0
__ehfuncinfo$?GetUnitCombatClassInfo@CvDllGameContext@@UAGPAVICvUnitCombatClassInfo1@@W4UnitCombatTypes@@@Z DD 019930522H
	DD	01H
	DD	FLAT:__unwindtable$?GetUnitCombatClassInfo@CvDllGameContext@@UAGPAVICvUnitCombatClassInfo1@@W4UnitCombatTypes@@@Z
	DD	2 DUP(00H)
	DD	2 DUP(00H)
	DD	00H
	DD	01H
; Function compile flags: /Odtp
xdata$x	ENDS
;	COMDAT ?GetUnitCombatClassInfo@CvDllGameContext@@UAGPAVICvUnitCombatClassInfo1@@W4UnitCombatTypes@@@Z
_TEXT	SEGMENT
tv74 = -32						; size = 4
tv79 = -28						; size = 4
$T228439 = -24						; size = 4
$T228438 = -20						; size = 4
_pkEntry$ = -16						; size = 4
__$EHRec$ = -12						; size = 12
_this$ = 8						; size = 4
_eUnitCombat$ = 12					; size = 4
?GetUnitCombatClassInfo@CvDllGameContext@@UAGPAVICvUnitCombatClassInfo1@@W4UnitCombatTypes@@@Z PROC ; CvDllGameContext::GetUnitCombatClassInfo, COMDAT

; 529  : {

	push	ebp
	mov	ebp, esp
	push	-1
	push	__ehhandler$?GetUnitCombatClassInfo@CvDllGameContext@@UAGPAVICvUnitCombatClassInfo1@@W4UnitCombatTypes@@@Z
	mov	eax, DWORD PTR fs:0
	push	eax
	sub	esp, 20					; 00000014H
	mov	eax, DWORD PTR ___security_cookie
	xor	eax, ebp
	push	eax
	lea	eax, DWORD PTR __$EHRec$[ebp]
	mov	DWORD PTR fs:0, eax

; 530  : 	CvBaseInfo* pkEntry = GC.getUnitCombatClassInfo(eUnitCombat);

	mov	eax, DWORD PTR _eUnitCombat$[ebp]
	push	eax
	mov	ecx, OFFSET ?gGlobals@@3VCvGlobals@@A	; gGlobals
	call	?getUnitCombatClassInfo@CvGlobals@@QAEPAVCvBaseInfo@@W4UnitCombatTypes@@@Z ; CvGlobals::getUnitCombatClassInfo
	mov	DWORD PTR _pkEntry$[ebp], eax

; 531  : 	return (NULL != pkEntry)? new CvDllUnitCombatClassInfo(pkEntry) : NULL;

	cmp	DWORD PTR _pkEntry$[ebp], 0
	je	SHORT $LN5@GetUnitCom
	push	12					; 0000000cH
	call	??2CvDllUnitCombatClassInfo@@SAPAXI@Z	; CvDllUnitCombatClassInfo::operator new
	add	esp, 4
	mov	DWORD PTR $T228439[ebp], eax
	mov	DWORD PTR __$EHRec$[ebp+8], 0
	cmp	DWORD PTR $T228439[ebp], 0
	je	SHORT $LN3@GetUnitCom
	mov	ecx, DWORD PTR _pkEntry$[ebp]
	push	ecx
	mov	ecx, DWORD PTR $T228439[ebp]
	call	??0CvDllUnitCombatClassInfo@@QAE@PAVCvBaseInfo@@@Z ; CvDllUnitCombatClassInfo::CvDllUnitCombatClassInfo
	mov	DWORD PTR tv79[ebp], eax
	jmp	SHORT $LN4@GetUnitCom
$LN3@GetUnitCom:
	mov	DWORD PTR tv79[ebp], 0
$LN4@GetUnitCom:
	mov	edx, DWORD PTR tv79[ebp]
	mov	DWORD PTR $T228438[ebp], edx
	mov	DWORD PTR __$EHRec$[ebp+8], -1
	mov	eax, DWORD PTR $T228438[ebp]
	mov	DWORD PTR tv74[ebp], eax
	jmp	SHORT $LN6@GetUnitCom
$LN5@GetUnitCom:
	mov	DWORD PTR tv74[ebp], 0
$LN6@GetUnitCom:
	mov	eax, DWORD PTR tv74[ebp]

; 532  : }

	mov	ecx, DWORD PTR __$EHRec$[ebp]
	mov	DWORD PTR fs:0, ecx
	pop	ecx
	mov	esp, ebp
	pop	ebp
	ret	8
_TEXT	ENDS
;	COMDAT text$x
text$x	SEGMENT
__unwindfunclet$?GetUnitCombatClassInfo@CvDllGameContext@@UAGPAVICvUnitCombatClassInfo1@@W4UnitCombatTypes@@@Z$0:
	mov	eax, DWORD PTR $T228439[ebp]
	push	eax
	call	??3CvDllUnitCombatClassInfo@@SAXPAX@Z	; CvDllUnitCombatClassInfo::operator delete
	pop	ecx
	ret	0
__ehhandler$?GetUnitCombatClassInfo@CvDllGameContext@@UAGPAVICvUnitCombatClassInfo1@@W4UnitCombatTypes@@@Z:
	mov	edx, DWORD PTR [esp+8]
	lea	eax, DWORD PTR [edx+12]
	mov	ecx, DWORD PTR [edx-24]
	xor	ecx, eax
	call	@__security_check_cookie@4
	mov	eax, OFFSET __ehfuncinfo$?GetUnitCombatClassInfo@CvDllGameContext@@UAGPAVICvUnitCombatClassInfo1@@W4UnitCombatTypes@@@Z
	jmp	___CxxFrameHandler3
text$x	ENDS
?GetUnitCombatClassInfo@CvDllGameContext@@UAGPAVICvUnitCombatClassInfo1@@W4UnitCombatTypes@@@Z ENDP ; CvDllGameContext::GetUnitCombatClassInfo
EXTRN	??3CvDllVictoryInfo@@SAXPAX@Z:PROC		; CvDllVictoryInfo::operator delete
EXTRN	??0CvDllVictoryInfo@@QAE@PAVCvVictoryInfo@@@Z:PROC ; CvDllVictoryInfo::CvDllVictoryInfo
EXTRN	??2CvDllVictoryInfo@@SAPAXI@Z:PROC		; CvDllVictoryInfo::operator new
EXTRN	?getVictoryInfo@CvGlobals@@QAEPAVCvVictoryInfo@@W4VictoryTypes@@@Z:PROC ; CvGlobals::getVictoryInfo
;	COMDAT xdata$x
xdata$x	SEGMENT
__unwindtable$?GetVictoryInfo@CvDllGameContext@@UAGPAVICvVictoryInfo1@@W4VictoryTypes@@@Z DD 0ffffffffH
	DD	FLAT:__unwindfunclet$?GetVictoryInfo@CvDllGameContext@@UAGPAVICvVictoryInfo1@@W4VictoryTypes@@@Z$0
__ehfuncinfo$?GetVictoryInfo@CvDllGameContext@@UAGPAVICvVictoryInfo1@@W4VictoryTypes@@@Z DD 019930522H
	DD	01H
	DD	FLAT:__unwindtable$?GetVictoryInfo@CvDllGameContext@@UAGPAVICvVictoryInfo1@@W4VictoryTypes@@@Z
	DD	2 DUP(00H)
	DD	2 DUP(00H)
	DD	00H
	DD	01H
; Function compile flags: /Odtp
xdata$x	ENDS
;	COMDAT ?GetVictoryInfo@CvDllGameContext@@UAGPAVICvVictoryInfo1@@W4VictoryTypes@@@Z
_TEXT	SEGMENT
tv74 = -32						; size = 4
tv79 = -28						; size = 4
$T228454 = -24						; size = 4
$T228453 = -20						; size = 4
_pkEntry$ = -16						; size = 4
__$EHRec$ = -12						; size = 12
_this$ = 8						; size = 4
_eVictoryType$ = 12					; size = 4
?GetVictoryInfo@CvDllGameContext@@UAGPAVICvVictoryInfo1@@W4VictoryTypes@@@Z PROC ; CvDllGameContext::GetVictoryInfo, COMDAT

; 535  : {

	push	ebp
	mov	ebp, esp
	push	-1
	push	__ehhandler$?GetVictoryInfo@CvDllGameContext@@UAGPAVICvVictoryInfo1@@W4VictoryTypes@@@Z
	mov	eax, DWORD PTR fs:0
	push	eax
	sub	esp, 20					; 00000014H
	mov	eax, DWORD PTR ___security_cookie
	xor	eax, ebp
	push	eax
	lea	eax, DWORD PTR __$EHRec$[ebp]
	mov	DWORD PTR fs:0, eax

; 536  : 	CvVictoryInfo* pkEntry = GC.getVictoryInfo(eVictoryType);

	mov	eax, DWORD PTR _eVictoryType$[ebp]
	push	eax
	mov	ecx, OFFSET ?gGlobals@@3VCvGlobals@@A	; gGlobals
	call	?getVictoryInfo@CvGlobals@@QAEPAVCvVictoryInfo@@W4VictoryTypes@@@Z ; CvGlobals::getVictoryInfo
	mov	DWORD PTR _pkEntry$[ebp], eax

; 537  : 	return (NULL != pkEntry)? new CvDllVictoryInfo(pkEntry) : NULL;

	cmp	DWORD PTR _pkEntry$[ebp], 0
	je	SHORT $LN5@GetVictory
	push	12					; 0000000cH
	call	??2CvDllVictoryInfo@@SAPAXI@Z		; CvDllVictoryInfo::operator new
	add	esp, 4
	mov	DWORD PTR $T228454[ebp], eax
	mov	DWORD PTR __$EHRec$[ebp+8], 0
	cmp	DWORD PTR $T228454[ebp], 0
	je	SHORT $LN3@GetVictory
	mov	ecx, DWORD PTR _pkEntry$[ebp]
	push	ecx
	mov	ecx, DWORD PTR $T228454[ebp]
	call	??0CvDllVictoryInfo@@QAE@PAVCvVictoryInfo@@@Z ; CvDllVictoryInfo::CvDllVictoryInfo
	mov	DWORD PTR tv79[ebp], eax
	jmp	SHORT $LN4@GetVictory
$LN3@GetVictory:
	mov	DWORD PTR tv79[ebp], 0
$LN4@GetVictory:
	mov	edx, DWORD PTR tv79[ebp]
	mov	DWORD PTR $T228453[ebp], edx
	mov	DWORD PTR __$EHRec$[ebp+8], -1
	mov	eax, DWORD PTR $T228453[ebp]
	mov	DWORD PTR tv74[ebp], eax
	jmp	SHORT $LN6@GetVictory
$LN5@GetVictory:
	mov	DWORD PTR tv74[ebp], 0
$LN6@GetVictory:
	mov	eax, DWORD PTR tv74[ebp]

; 538  : }

	mov	ecx, DWORD PTR __$EHRec$[ebp]
	mov	DWORD PTR fs:0, ecx
	pop	ecx
	mov	esp, ebp
	pop	ebp
	ret	8
_TEXT	ENDS
;	COMDAT text$x
text$x	SEGMENT
__unwindfunclet$?GetVictoryInfo@CvDllGameContext@@UAGPAVICvVictoryInfo1@@W4VictoryTypes@@@Z$0:
	mov	eax, DWORD PTR $T228454[ebp]
	push	eax
	call	??3CvDllVictoryInfo@@SAXPAX@Z		; CvDllVictoryInfo::operator delete
	pop	ecx
	ret	0
__ehhandler$?GetVictoryInfo@CvDllGameContext@@UAGPAVICvVictoryInfo1@@W4VictoryTypes@@@Z:
	mov	edx, DWORD PTR [esp+8]
	lea	eax, DWORD PTR [edx+12]
	mov	ecx, DWORD PTR [edx-24]
	xor	ecx, eax
	call	@__security_check_cookie@4
	mov	eax, OFFSET __ehfuncinfo$?GetVictoryInfo@CvDllGameContext@@UAGPAVICvVictoryInfo1@@W4VictoryTypes@@@Z
	jmp	___CxxFrameHandler3
text$x	ENDS
?GetVictoryInfo@CvDllGameContext@@UAGPAVICvVictoryInfo1@@W4VictoryTypes@@@Z ENDP ; CvDllGameContext::GetVictoryInfo
PUBLIC	??1CvString@@QAE@XZ				; CvString::~CvString
PUBLIC	__$ArrayPad$
EXTRN	__imp_??1?$basic_string@DU?$char_traits@D@std@@V?$allocator@D@2@@std@@QAE@XZ:PROC
EXTRN	__imp__strncpy_s:PROC
EXTRN	__imp_?c_str@?$basic_string@DU?$char_traits@D@std@@V?$allocator@D@2@@std@@QBEPBDXZ:PROC
EXTRN	__imp_?size@?$basic_string@DU?$char_traits@D@std@@V?$allocator@D@2@@std@@QBEIXZ:PROC
EXTRN	?getDefineSTRING@CvGlobals@@QAE?AVCvString@@PBD_N@Z:PROC ; CvGlobals::getDefineSTRING
;	COMDAT xdata$x
; File d:\sources\lekmod_git\checkout\lekmod_dll\cvgamecoredllutil\include\cvstring.h
xdata$x	SEGMENT
__unwindtable$?GetDefineSTRING@CvDllGameContext@@UAG_NPADIPBD_N@Z DD 0ffffffffH
	DD	FLAT:__unwindfunclet$?GetDefineSTRING@CvDllGameContext@@UAG_NPADIPBD_N@Z$0
__ehfuncinfo$?GetDefineSTRING@CvDllGameContext@@UAG_NPADIPBD_N@Z DD 019930522H
	DD	01H
	DD	FLAT:__unwindtable$?GetDefineSTRING@CvDllGameContext@@UAG_NPADIPBD_N@Z
	DD	2 DUP(00H)
	DD	2 DUP(00H)
	DD	00H
	DD	01H
; Function compile flags: /Odtp
; File d:\sources\lekmod_git\checkout\lekmod_dll\cvgamecoredll_expansion2\cvdllcontext.cpp
xdata$x	ENDS
;	COMDAT ?GetDefineSTRING@CvDllGameContext@@UAG_NPADIPBD_N@Z
_TEXT	SEGMENT
$T228469 = -45						; size = 1
_strDefine$222171 = -44					; size = 28
__$ArrayPad$ = -16					; size = 4
__$EHRec$ = -12						; size = 12
_this$ = 8						; size = 4
_szBuffer$ = 12						; size = 4
_lenBuffer$ = 16					; size = 4
_szName$ = 20						; size = 4
_bReportErrors$ = 24					; size = 1
?GetDefineSTRING@CvDllGameContext@@UAG_NPADIPBD_N@Z PROC ; CvDllGameContext::GetDefineSTRING, COMDAT

; 541  : {

	push	ebp
	mov	ebp, esp
	push	-1
	push	__ehhandler$?GetDefineSTRING@CvDllGameContext@@UAG_NPADIPBD_N@Z
	mov	eax, DWORD PTR fs:0
	push	eax
	sub	esp, 36					; 00000024H
	mov	eax, DWORD PTR ___security_cookie
	xor	eax, ebp
	mov	DWORD PTR __$ArrayPad$[ebp], eax
	push	eax
	lea	eax, DWORD PTR __$EHRec$[ebp]
	mov	DWORD PTR fs:0, eax

; 542  : 	if(szBuffer != NULL && lenBuffer > 0)

	cmp	DWORD PTR _szBuffer$[ebp], 0
	je	$LN2@GetDefineS
	cmp	DWORD PTR _lenBuffer$[ebp], 0
	jbe	SHORT $LN2@GetDefineS

; 543  : 	{
; 544  : 		CvString strDefine = GC.getDefineSTRING(szName, bReportErrors);

	movzx	eax, BYTE PTR _bReportErrors$[ebp]
	push	eax
	mov	ecx, DWORD PTR _szName$[ebp]
	push	ecx
	lea	edx, DWORD PTR _strDefine$222171[ebp]
	push	edx
	mov	ecx, OFFSET ?gGlobals@@3VCvGlobals@@A	; gGlobals
	call	?getDefineSTRING@CvGlobals@@QAE?AVCvString@@PBD_N@Z ; CvGlobals::getDefineSTRING
	mov	DWORD PTR __$EHRec$[ebp+8], 0

; 545  : 		if(strDefine.size() < lenBuffer)

	lea	ecx, DWORD PTR _strDefine$222171[ebp]
	call	DWORD PTR __imp_?size@?$basic_string@DU?$char_traits@D@std@@V?$allocator@D@2@@std@@QBEIXZ
	cmp	eax, DWORD PTR _lenBuffer$[ebp]
	jae	SHORT $LN1@GetDefineS

; 546  : 		{
; 547  : 			strncpy_s(szBuffer, lenBuffer, strDefine.c_str(), strDefine.size());

	lea	ecx, DWORD PTR _strDefine$222171[ebp]
	call	DWORD PTR __imp_?size@?$basic_string@DU?$char_traits@D@std@@V?$allocator@D@2@@std@@QBEIXZ
	push	eax
	lea	ecx, DWORD PTR _strDefine$222171[ebp]
	call	DWORD PTR __imp_?c_str@?$basic_string@DU?$char_traits@D@std@@V?$allocator@D@2@@std@@QBEPBDXZ
	push	eax
	mov	eax, DWORD PTR _lenBuffer$[ebp]
	push	eax
	mov	ecx, DWORD PTR _szBuffer$[ebp]
	push	ecx
	call	DWORD PTR __imp__strncpy_s
	add	esp, 16					; 00000010H

; 548  : 			return true;

	mov	BYTE PTR $T228469[ebp], 1
	mov	DWORD PTR __$EHRec$[ebp+8], -1
	lea	ecx, DWORD PTR _strDefine$222171[ebp]
	call	DWORD PTR __imp_??1?$basic_string@DU?$char_traits@D@std@@V?$allocator@D@2@@std@@QAE@XZ
	mov	al, BYTE PTR $T228469[ebp]
	jmp	SHORT $LN3@GetDefineS
$LN1@GetDefineS:

; 549  : 		}
; 550  : 	}

	mov	DWORD PTR __$EHRec$[ebp+8], -1
	lea	ecx, DWORD PTR _strDefine$222171[ebp]
	call	DWORD PTR __imp_??1?$basic_string@DU?$char_traits@D@std@@V?$allocator@D@2@@std@@QAE@XZ
$LN2@GetDefineS:

; 551  : 
; 552  : 	return false;

	xor	al, al
$LN3@GetDefineS:

; 553  : }

	mov	ecx, DWORD PTR __$EHRec$[ebp]
	mov	DWORD PTR fs:0, ecx
	pop	ecx
	mov	ecx, DWORD PTR __$ArrayPad$[ebp]
	xor	ecx, ebp
	call	@__security_check_cookie@4
	mov	esp, ebp
	pop	ebp
	ret	20					; 00000014H
_TEXT	ENDS
;	COMDAT text$x
text$x	SEGMENT
__unwindfunclet$?GetDefineSTRING@CvDllGameContext@@UAG_NPADIPBD_N@Z$0:
	lea	ecx, DWORD PTR _strDefine$222171[ebp]
	jmp	??1CvString@@QAE@XZ			; CvString::~CvString
__ehhandler$?GetDefineSTRING@CvDllGameContext@@UAG_NPADIPBD_N@Z:
	mov	edx, DWORD PTR [esp+8]
	lea	eax, DWORD PTR [edx+12]
	mov	ecx, DWORD PTR [edx-40]
	xor	ecx, eax
	call	@__security_check_cookie@4
	mov	ecx, DWORD PTR [edx-4]
	xor	ecx, eax
	call	@__security_check_cookie@4
	mov	eax, OFFSET __ehfuncinfo$?GetDefineSTRING@CvDllGameContext@@UAG_NPADIPBD_N@Z
	jmp	___CxxFrameHandler3
text$x	ENDS
?GetDefineSTRING@CvDllGameContext@@UAG_NPADIPBD_N@Z ENDP ; CvDllGameContext::GetDefineSTRING
; Function compile flags: /Odtp
;	COMDAT ?GetMOVE_DENOMINATOR@CvDllGameContext@@UBGHXZ
_TEXT	SEGMENT
$T228490 = -4						; size = 4
_this$ = 8						; size = 4
?GetMOVE_DENOMINATOR@CvDllGameContext@@UBGHXZ PROC	; CvDllGameContext::GetMOVE_DENOMINATOR, COMDAT

; 556  : {

	push	ebp
	mov	ebp, esp
	push	ecx

; 557  : 	return GC.getMOVE_DENOMINATOR();

	mov	eax, DWORD PTR ?gGlobals@@3VCvGlobals@@A+6236
	mov	DWORD PTR $T228490[ebp], eax
	mov	eax, DWORD PTR $T228490[ebp]

; 558  : }

	mov	esp, ebp
	pop	ebp
	ret	4
?GetMOVE_DENOMINATOR@CvDllGameContext@@UBGHXZ ENDP	; CvDllGameContext::GetMOVE_DENOMINATOR
; Function compile flags: /Odtp
_TEXT	ENDS
;	COMDAT ?GetMAX_CITY_HIT_POINTS@CvDllGameContext@@UBGHXZ
_TEXT	SEGMENT
$T228496 = -4						; size = 4
_this$ = 8						; size = 4
?GetMAX_CITY_HIT_POINTS@CvDllGameContext@@UBGHXZ PROC	; CvDllGameContext::GetMAX_CITY_HIT_POINTS, COMDAT

; 561  : {

	push	ebp
	mov	ebp, esp
	push	ecx

; 562  : 	return GC.getMAX_CITY_HIT_POINTS();

	mov	eax, DWORD PTR ?gGlobals@@3VCvGlobals@@A+7372
	mov	DWORD PTR $T228496[ebp], eax
	mov	eax, DWORD PTR $T228496[ebp]

; 563  : }

	mov	esp, ebp
	pop	ebp
	ret	4
?GetMAX_CITY_HIT_POINTS@CvDllGameContext@@UBGHXZ ENDP	; CvDllGameContext::GetMAX_CITY_HIT_POINTS
_TEXT	ENDS
EXTRN	__fltused:DWORD
; Function compile flags: /Odtp
;	COMDAT ?GetCITY_ZOOM_OFFSET@CvDllGameContext@@UBGMXZ
_TEXT	SEGMENT
$T228502 = -4						; size = 4
_this$ = 8						; size = 4
?GetCITY_ZOOM_OFFSET@CvDllGameContext@@UBGMXZ PROC	; CvDllGameContext::GetCITY_ZOOM_OFFSET, COMDAT

; 566  : {

	push	ebp
	mov	ebp, esp
	push	ecx

; 567  : 	return GC.getCITY_ZOOM_OFFSET();

	movss	xmm0, DWORD PTR ?gGlobals@@3VCvGlobals@@A+8032
	movss	DWORD PTR $T228502[ebp], xmm0
	fld	DWORD PTR $T228502[ebp]

; 568  : }

	mov	esp, ebp
	pop	ebp
	ret	4
?GetCITY_ZOOM_OFFSET@CvDllGameContext@@UBGMXZ ENDP	; CvDllGameContext::GetCITY_ZOOM_OFFSET
; Function compile flags: /Odtp
_TEXT	ENDS
;	COMDAT ?GetCITY_ZOOM_LEVEL_1@CvDllGameContext@@UBGMXZ
_TEXT	SEGMENT
$T228509 = -4						; size = 4
_this$ = 8						; size = 4
?GetCITY_ZOOM_LEVEL_1@CvDllGameContext@@UBGMXZ PROC	; CvDllGameContext::GetCITY_ZOOM_LEVEL_1, COMDAT

; 571  : {

	push	ebp
	mov	ebp, esp
	push	ecx

; 572  : 	return GC.getCITY_ZOOM_LEVEL_1();

	movss	xmm0, DWORD PTR ?gGlobals@@3VCvGlobals@@A+8020
	movss	DWORD PTR $T228509[ebp], xmm0
	fld	DWORD PTR $T228509[ebp]

; 573  : }

	mov	esp, ebp
	pop	ebp
	ret	4
?GetCITY_ZOOM_LEVEL_1@CvDllGameContext@@UBGMXZ ENDP	; CvDllGameContext::GetCITY_ZOOM_LEVEL_1
; Function compile flags: /Odtp
_TEXT	ENDS
;	COMDAT ?GetCITY_ZOOM_LEVEL_2@CvDllGameContext@@UBGMXZ
_TEXT	SEGMENT
$T228515 = -4						; size = 4
_this$ = 8						; size = 4
?GetCITY_ZOOM_LEVEL_2@CvDllGameContext@@UBGMXZ PROC	; CvDllGameContext::GetCITY_ZOOM_LEVEL_2, COMDAT

; 576  : {

	push	ebp
	mov	ebp, esp
	push	ecx

; 577  : 	return GC.getCITY_ZOOM_LEVEL_2();

	movss	xmm0, DWORD PTR ?gGlobals@@3VCvGlobals@@A+8024
	movss	DWORD PTR $T228515[ebp], xmm0
	fld	DWORD PTR $T228515[ebp]

; 578  : }

	mov	esp, ebp
	pop	ebp
	ret	4
?GetCITY_ZOOM_LEVEL_2@CvDllGameContext@@UBGMXZ ENDP	; CvDllGameContext::GetCITY_ZOOM_LEVEL_2
; Function compile flags: /Odtp
_TEXT	ENDS
;	COMDAT ?GetCITY_ZOOM_LEVEL_3@CvDllGameContext@@UBGMXZ
_TEXT	SEGMENT
$T228521 = -4						; size = 4
_this$ = 8						; size = 4
?GetCITY_ZOOM_LEVEL_3@CvDllGameContext@@UBGMXZ PROC	; CvDllGameContext::GetCITY_ZOOM_LEVEL_3, COMDAT

; 581  : {

	push	ebp
	mov	ebp, esp
	push	ecx

; 582  : 	return GC.getCITY_ZOOM_LEVEL_3();

	movss	xmm0, DWORD PTR ?gGlobals@@3VCvGlobals@@A+8028
	movss	DWORD PTR $T228521[ebp], xmm0
	fld	DWORD PTR $T228521[ebp]

; 583  : }

	mov	esp, ebp
	pop	ebp
	ret	4
?GetCITY_ZOOM_LEVEL_3@CvDllGameContext@@UBGMXZ ENDP	; CvDllGameContext::GetCITY_ZOOM_LEVEL_3
; Function compile flags: /Odtp
_TEXT	ENDS
;	COMDAT ?GetRUINS_IMPROVEMENT@CvDllGameContext@@UBGHXZ
_TEXT	SEGMENT
$T228527 = -4						; size = 4
_this$ = 8						; size = 4
?GetRUINS_IMPROVEMENT@CvDllGameContext@@UBGHXZ PROC	; CvDllGameContext::GetRUINS_IMPROVEMENT, COMDAT

; 586  : {

	push	ebp
	mov	ebp, esp
	push	ecx

; 587  : 	return GC.getRUINS_IMPROVEMENT();

	mov	eax, DWORD PTR ?gGlobals@@3VCvGlobals@@A+8400
	mov	DWORD PTR $T228527[ebp], eax
	mov	eax, DWORD PTR $T228527[ebp]

; 588  : }

	mov	esp, ebp
	pop	ebp
	ret	4
?GetRUINS_IMPROVEMENT@CvDllGameContext@@UBGHXZ ENDP	; CvDllGameContext::GetRUINS_IMPROVEMENT
; Function compile flags: /Odtp
_TEXT	ENDS
;	COMDAT ?GetSHALLOW_WATER_TERRAIN@CvDllGameContext@@UBGHXZ
_TEXT	SEGMENT
$T228533 = -4						; size = 4
_this$ = 8						; size = 4
?GetSHALLOW_WATER_TERRAIN@CvDllGameContext@@UBGHXZ PROC	; CvDllGameContext::GetSHALLOW_WATER_TERRAIN, COMDAT

; 591  : {

	push	ebp
	mov	ebp, esp
	push	ecx

; 592  : 	return GC.getSHALLOW_WATER_TERRAIN();

	mov	eax, DWORD PTR ?gGlobals@@3VCvGlobals@@A+8396
	mov	DWORD PTR $T228533[ebp], eax
	mov	eax, DWORD PTR $T228533[ebp]

; 593  : }

	mov	esp, ebp
	pop	ebp
	ret	4
?GetSHALLOW_WATER_TERRAIN@CvDllGameContext@@UBGHXZ ENDP	; CvDllGameContext::GetSHALLOW_WATER_TERRAIN
; Function compile flags: /Odtp
_TEXT	ENDS
;	COMDAT ?GetDEFICIT_UNIT_DISBANDING_THRESHOLD@CvDllGameContext@@UBGHXZ
_TEXT	SEGMENT
$T228539 = -4						; size = 4
_this$ = 8						; size = 4
?GetDEFICIT_UNIT_DISBANDING_THRESHOLD@CvDllGameContext@@UBGHXZ PROC ; CvDllGameContext::GetDEFICIT_UNIT_DISBANDING_THRESHOLD, COMDAT

; 596  : {

	push	ebp
	mov	ebp, esp
	push	ecx

; 597  : 	return GC.getDEFICIT_UNIT_DISBANDING_THRESHOLD();

	mov	eax, DWORD PTR ?gGlobals@@3VCvGlobals@@A+6548
	mov	DWORD PTR $T228539[ebp], eax
	mov	eax, DWORD PTR $T228539[ebp]

; 598  : }

	mov	esp, ebp
	pop	ebp
	ret	4
?GetDEFICIT_UNIT_DISBANDING_THRESHOLD@CvDllGameContext@@UBGHXZ ENDP ; CvDllGameContext::GetDEFICIT_UNIT_DISBANDING_THRESHOLD
; Function compile flags: /Odtp
_TEXT	ENDS
;	COMDAT ?GetLAST_UNIT_ART_ERA@CvDllGameContext@@UBGHXZ
_TEXT	SEGMENT
$T228545 = -4						; size = 4
_this$ = 8						; size = 4
?GetLAST_UNIT_ART_ERA@CvDllGameContext@@UBGHXZ PROC	; CvDllGameContext::GetLAST_UNIT_ART_ERA, COMDAT

; 601  : {

	push	ebp
	mov	ebp, esp
	push	ecx

; 602  : 	return GC.getLAST_UNIT_ART_ERA();

	mov	eax, DWORD PTR ?gGlobals@@3VCvGlobals@@A+8492
	mov	DWORD PTR $T228545[ebp], eax
	mov	eax, DWORD PTR $T228545[ebp]

; 603  : }

	mov	esp, ebp
	pop	ebp
	ret	4
?GetLAST_UNIT_ART_ERA@CvDllGameContext@@UBGHXZ ENDP	; CvDllGameContext::GetLAST_UNIT_ART_ERA
; Function compile flags: /Odtp
_TEXT	ENDS
;	COMDAT ?GetLAST_EMBARK_ART_ERA@CvDllGameContext@@UBGHXZ
_TEXT	SEGMENT
$T228551 = -4						; size = 4
_this$ = 8						; size = 4
?GetLAST_EMBARK_ART_ERA@CvDllGameContext@@UBGHXZ PROC	; CvDllGameContext::GetLAST_EMBARK_ART_ERA, COMDAT

; 606  : {

	push	ebp
	mov	ebp, esp
	push	ecx

; 607  : 	return GC.getLAST_EMBARK_ART_ERA();

	mov	eax, DWORD PTR ?gGlobals@@3VCvGlobals@@A+8488
	mov	DWORD PTR $T228551[ebp], eax
	mov	eax, DWORD PTR $T228551[ebp]

; 608  : }

	mov	esp, ebp
	pop	ebp
	ret	4
?GetLAST_EMBARK_ART_ERA@CvDllGameContext@@UBGHXZ ENDP	; CvDllGameContext::GetLAST_EMBARK_ART_ERA
; Function compile flags: /Odtp
_TEXT	ENDS
;	COMDAT ?GetHEAVY_RESOURCE_THRESHOLD@CvDllGameContext@@UBGHXZ
_TEXT	SEGMENT
$T228557 = -4						; size = 4
_this$ = 8						; size = 4
?GetHEAVY_RESOURCE_THRESHOLD@CvDllGameContext@@UBGHXZ PROC ; CvDllGameContext::GetHEAVY_RESOURCE_THRESHOLD, COMDAT

; 611  : {

	push	ebp
	mov	ebp, esp
	push	ecx

; 612  : 	return GC.getHEAVY_RESOURCE_THRESHOLD();

	mov	eax, DWORD PTR ?gGlobals@@3VCvGlobals@@A+7808
	mov	DWORD PTR $T228557[ebp], eax
	mov	eax, DWORD PTR $T228557[ebp]

; 613  : }

	mov	esp, ebp
	pop	ebp
	ret	4
?GetHEAVY_RESOURCE_THRESHOLD@CvDllGameContext@@UBGHXZ ENDP ; CvDllGameContext::GetHEAVY_RESOURCE_THRESHOLD
; Function compile flags: /Odtp
_TEXT	ENDS
;	COMDAT ?GetSTANDARD_HANDICAP@CvDllGameContext@@UBGHXZ
_TEXT	SEGMENT
$T228563 = -4						; size = 4
_this$ = 8						; size = 4
?GetSTANDARD_HANDICAP@CvDllGameContext@@UBGHXZ PROC	; CvDllGameContext::GetSTANDARD_HANDICAP, COMDAT

; 616  : {

	push	ebp
	mov	ebp, esp
	push	ecx

; 617  : 	return GC.getSTANDARD_HANDICAP();

	mov	eax, DWORD PTR ?gGlobals@@3VCvGlobals@@A+8452
	mov	DWORD PTR $T228563[ebp], eax
	mov	eax, DWORD PTR $T228563[ebp]

; 618  : }

	mov	esp, ebp
	pop	ebp
	ret	4
?GetSTANDARD_HANDICAP@CvDllGameContext@@UBGHXZ ENDP	; CvDllGameContext::GetSTANDARD_HANDICAP
; Function compile flags: /Odtp
_TEXT	ENDS
;	COMDAT ?GetSTANDARD_GAMESPEED@CvDllGameContext@@UBGHXZ
_TEXT	SEGMENT
$T228569 = -4						; size = 4
_this$ = 8						; size = 4
?GetSTANDARD_GAMESPEED@CvDllGameContext@@UBGHXZ PROC	; CvDllGameContext::GetSTANDARD_GAMESPEED, COMDAT

; 621  : {

	push	ebp
	mov	ebp, esp
	push	ecx

; 622  : 	return GC.getSTANDARD_GAMESPEED();

	mov	eax, DWORD PTR ?gGlobals@@3VCvGlobals@@A+8464
	mov	DWORD PTR $T228569[ebp], eax
	mov	eax, DWORD PTR $T228569[ebp]

; 623  : }

	mov	esp, ebp
	pop	ebp
	ret	4
?GetSTANDARD_GAMESPEED@CvDllGameContext@@UBGHXZ ENDP	; CvDllGameContext::GetSTANDARD_GAMESPEED
; Function compile flags: /Odtp
_TEXT	ENDS
;	COMDAT ?GetLAST_BRIDGE_ART_ERA@CvDllGameContext@@UBGHXZ
_TEXT	SEGMENT
$T228575 = -4						; size = 4
_this$ = 8						; size = 4
?GetLAST_BRIDGE_ART_ERA@CvDllGameContext@@UBGHXZ PROC	; CvDllGameContext::GetLAST_BRIDGE_ART_ERA, COMDAT

; 626  : {

	push	ebp
	mov	ebp, esp
	push	ecx

; 627  : 	return GC.getLAST_BRIDGE_ART_ERA();

	mov	eax, DWORD PTR ?gGlobals@@3VCvGlobals@@A+8496
	mov	DWORD PTR $T228575[ebp], eax
	mov	eax, DWORD PTR $T228575[ebp]

; 628  : }

	mov	esp, ebp
	pop	ebp
	ret	4
?GetLAST_BRIDGE_ART_ERA@CvDllGameContext@@UBGHXZ ENDP	; CvDllGameContext::GetLAST_BRIDGE_ART_ERA
; Function compile flags: /Odtp
_TEXT	ENDS
;	COMDAT ?GetBARBARIAN_CIVILIZATION@CvDllGameContext@@UBGHXZ
_TEXT	SEGMENT
$T228581 = -4						; size = 4
_this$ = 8						; size = 4
?GetBARBARIAN_CIVILIZATION@CvDllGameContext@@UBGHXZ PROC ; CvDllGameContext::GetBARBARIAN_CIVILIZATION, COMDAT

; 631  : {

	push	ebp
	mov	ebp, esp
	push	ecx

; 632  : 	return GC.getBARBARIAN_CIVILIZATION();

	mov	eax, DWORD PTR ?gGlobals@@3VCvGlobals@@A+8508
	mov	DWORD PTR $T228581[ebp], eax
	mov	eax, DWORD PTR $T228581[ebp]

; 633  : }

	mov	esp, ebp
	pop	ebp
	ret	4
?GetBARBARIAN_CIVILIZATION@CvDllGameContext@@UBGHXZ ENDP ; CvDllGameContext::GetBARBARIAN_CIVILIZATION
; Function compile flags: /Odtp
_TEXT	ENDS
;	COMDAT ?GetMINOR_CIVILIZATION@CvDllGameContext@@UBGHXZ
_TEXT	SEGMENT
$T228587 = -4						; size = 4
_this$ = 8						; size = 4
?GetMINOR_CIVILIZATION@CvDllGameContext@@UBGHXZ PROC	; CvDllGameContext::GetMINOR_CIVILIZATION, COMDAT

; 636  : {

	push	ebp
	mov	ebp, esp
	push	ecx

; 637  : 	return GC.getMINOR_CIVILIZATION();

	mov	eax, DWORD PTR ?gGlobals@@3VCvGlobals@@A+8520
	mov	DWORD PTR $T228587[ebp], eax
	mov	eax, DWORD PTR $T228587[ebp]

; 638  : }

	mov	esp, ebp
	pop	ebp
	ret	4
?GetMINOR_CIVILIZATION@CvDllGameContext@@UBGHXZ ENDP	; CvDllGameContext::GetMINOR_CIVILIZATION
; Function compile flags: /Odtp
_TEXT	ENDS
;	COMDAT ?GetBARBARIAN_HANDICAP@CvDllGameContext@@UBGHXZ
_TEXT	SEGMENT
$T228593 = -4						; size = 4
_this$ = 8						; size = 4
?GetBARBARIAN_HANDICAP@CvDllGameContext@@UBGHXZ PROC	; CvDllGameContext::GetBARBARIAN_HANDICAP, COMDAT

; 641  : {

	push	ebp
	mov	ebp, esp
	push	ecx

; 642  : 	return GC.getBARBARIAN_HANDICAP();

	mov	eax, DWORD PTR ?gGlobals@@3VCvGlobals@@A+8504
	mov	DWORD PTR $T228593[ebp], eax
	mov	eax, DWORD PTR $T228593[ebp]

; 643  : }

	mov	esp, ebp
	pop	ebp
	ret	4
?GetBARBARIAN_HANDICAP@CvDllGameContext@@UBGHXZ ENDP	; CvDllGameContext::GetBARBARIAN_HANDICAP
; Function compile flags: /Odtp
_TEXT	ENDS
;	COMDAT ?GetBARBARIAN_LEADER@CvDllGameContext@@UBGHXZ
_TEXT	SEGMENT
$T228599 = -4						; size = 4
_this$ = 8						; size = 4
?GetBARBARIAN_LEADER@CvDllGameContext@@UBGHXZ PROC	; CvDllGameContext::GetBARBARIAN_LEADER, COMDAT

; 646  : {

	push	ebp
	mov	ebp, esp
	push	ecx

; 647  : 	return GC.getBARBARIAN_LEADER();

	mov	eax, DWORD PTR ?gGlobals@@3VCvGlobals@@A+8512
	mov	DWORD PTR $T228599[ebp], eax
	mov	eax, DWORD PTR $T228599[ebp]

; 648  : }

	mov	esp, ebp
	pop	ebp
	ret	4
?GetBARBARIAN_LEADER@CvDllGameContext@@UBGHXZ ENDP	; CvDllGameContext::GetBARBARIAN_LEADER
; Function compile flags: /Odtp
_TEXT	ENDS
;	COMDAT ?GetMINOR_CIV_HANDICAP@CvDllGameContext@@UBGHXZ
_TEXT	SEGMENT
$T228605 = -4						; size = 4
_this$ = 8						; size = 4
?GetMINOR_CIV_HANDICAP@CvDllGameContext@@UBGHXZ PROC	; CvDllGameContext::GetMINOR_CIV_HANDICAP, COMDAT

; 651  : {

	push	ebp
	mov	ebp, esp
	push	ecx

; 652  : 	return GC.getMINOR_CIV_HANDICAP();

	mov	eax, DWORD PTR ?gGlobals@@3VCvGlobals@@A+8516
	mov	DWORD PTR $T228605[ebp], eax
	mov	eax, DWORD PTR $T228605[ebp]

; 653  : }

	mov	esp, ebp
	pop	ebp
	ret	4
?GetMINOR_CIV_HANDICAP@CvDllGameContext@@UBGHXZ ENDP	; CvDllGameContext::GetMINOR_CIV_HANDICAP
; Function compile flags: /Odtp
_TEXT	ENDS
;	COMDAT ?GetWALLS_BUILDINGCLASS@CvDllGameContext@@UBGHXZ
_TEXT	SEGMENT
$T228611 = -4						; size = 4
_this$ = 8						; size = 4
?GetWALLS_BUILDINGCLASS@CvDllGameContext@@UBGHXZ PROC	; CvDllGameContext::GetWALLS_BUILDINGCLASS, COMDAT

; 656  : {

	push	ebp
	mov	ebp, esp
	push	ecx

; 657  : 	return GC.getWALLS_BUILDINGCLASS();

	mov	eax, DWORD PTR ?gGlobals@@3VCvGlobals@@A+8552
	mov	DWORD PTR $T228611[ebp], eax
	mov	eax, DWORD PTR $T228611[ebp]

; 658  : }

	mov	esp, ebp
	pop	ebp
	ret	4
?GetWALLS_BUILDINGCLASS@CvDllGameContext@@UBGHXZ ENDP	; CvDllGameContext::GetWALLS_BUILDINGCLASS
; Function compile flags: /Odtp
_TEXT	ENDS
;	COMDAT ?GetAI_HANDICAP@CvDllGameContext@@UBGHXZ
_TEXT	SEGMENT
$T228617 = -4						; size = 4
_this$ = 8						; size = 4
?GetAI_HANDICAP@CvDllGameContext@@UBGHXZ PROC		; CvDllGameContext::GetAI_HANDICAP, COMDAT

; 661  : {

	push	ebp
	mov	ebp, esp
	push	ecx

; 662  : 	return GC.getAI_HANDICAP();

	mov	eax, DWORD PTR ?gGlobals@@3VCvGlobals@@A+8544
	mov	DWORD PTR $T228617[ebp], eax
	mov	eax, DWORD PTR $T228617[ebp]

; 663  : }

	mov	esp, ebp
	pop	ebp
	ret	4
?GetAI_HANDICAP@CvDllGameContext@@UBGHXZ ENDP		; CvDllGameContext::GetAI_HANDICAP
; Function compile flags: /Odtp
_TEXT	ENDS
;	COMDAT ?GetNUM_CITY_PLOTS@CvDllGameContext@@UBGHXZ
_TEXT	SEGMENT
_this$ = 8						; size = 4
?GetNUM_CITY_PLOTS@CvDllGameContext@@UBGHXZ PROC	; CvDllGameContext::GetNUM_CITY_PLOTS, COMDAT

; 666  : {

	push	ebp
	mov	ebp, esp

; 667  : 	return NUM_CITY_PLOTS;

	mov	eax, 37					; 00000025H

; 668  : }

	pop	ebp
	ret	4
?GetNUM_CITY_PLOTS@CvDllGameContext@@UBGHXZ ENDP	; CvDllGameContext::GetNUM_CITY_PLOTS
_TEXT	ENDS
EXTRN	?GetHexDebugLayerNames@CvGlobals@@QAEPAPBDXZ:PROC ; CvGlobals::GetHexDebugLayerNames
; Function compile flags: /Odtp
;	COMDAT ?GetHexDebugLayerNames@CvDllGameContext@@UAGPAPBDXZ
_TEXT	SEGMENT
_this$ = 8						; size = 4
?GetHexDebugLayerNames@CvDllGameContext@@UAGPAPBDXZ PROC ; CvDllGameContext::GetHexDebugLayerNames, COMDAT

; 671  : {

	push	ebp
	mov	ebp, esp

; 672  : 	return GC.GetHexDebugLayerNames();

	mov	ecx, OFFSET ?gGlobals@@3VCvGlobals@@A	; gGlobals
	call	?GetHexDebugLayerNames@CvGlobals@@QAEPAPBDXZ ; CvGlobals::GetHexDebugLayerNames

; 673  : }

	pop	ebp
	ret	4
?GetHexDebugLayerNames@CvDllGameContext@@UAGPAPBDXZ ENDP ; CvDllGameContext::GetHexDebugLayerNames
_TEXT	ENDS
EXTRN	?GetHexDebugLayerScale@CvGlobals@@QAEMPBD@Z:PROC ; CvGlobals::GetHexDebugLayerScale
; Function compile flags: /Odtp
;	COMDAT ?GetHexDebugLayerScale@CvDllGameContext@@UAGMPBD@Z
_TEXT	SEGMENT
_this$ = 8						; size = 4
_szLayerName$ = 12					; size = 4
?GetHexDebugLayerScale@CvDllGameContext@@UAGMPBD@Z PROC	; CvDllGameContext::GetHexDebugLayerScale, COMDAT

; 676  : {

	push	ebp
	mov	ebp, esp

; 677  : 	return GC.GetHexDebugLayerScale(szLayerName);

	mov	eax, DWORD PTR _szLayerName$[ebp]
	push	eax
	mov	ecx, OFFSET ?gGlobals@@3VCvGlobals@@A	; gGlobals
	call	?GetHexDebugLayerScale@CvGlobals@@QAEMPBD@Z ; CvGlobals::GetHexDebugLayerScale

; 678  : }

	pop	ebp
	ret	8
?GetHexDebugLayerScale@CvDllGameContext@@UAGMPBD@Z ENDP	; CvDllGameContext::GetHexDebugLayerScale
_TEXT	ENDS
EXTRN	?GetHexDebugLayerString@CvGlobals@@QAE_NPAVCvPlot@@PBDW4PlayerTypes@@PADI@Z:PROC ; CvGlobals::GetHexDebugLayerString
EXTRN	?GetInstance@CvDllPlot@@QAEPAVCvPlot@@XZ:PROC	; CvDllPlot::GetInstance
; Function compile flags: /Odtp
;	COMDAT ?GetHexDebugLayerString@CvDllGameContext@@UAG_NPAVICvPlot1@@PBDW4PlayerTypes@@PADI@Z
_TEXT	SEGMENT
tv71 = -8						; size = 4
_pkPlot$ = -4						; size = 4
_this$ = 8						; size = 4
_pPlot$ = 12						; size = 4
_szLayerName$ = 16					; size = 4
_ePlayer$ = 20						; size = 4
_szBuffer$ = 24						; size = 4
_uiBufferLength$ = 28					; size = 4
?GetHexDebugLayerString@CvDllGameContext@@UAG_NPAVICvPlot1@@PBDW4PlayerTypes@@PADI@Z PROC ; CvDllGameContext::GetHexDebugLayerString, COMDAT

; 681  : {

	push	ebp
	mov	ebp, esp
	sub	esp, 8

; 682  : 	CvPlot* pkPlot = (NULL != pPlot)? static_cast<CvDllPlot*>(pPlot)->GetInstance() : NULL;

	cmp	DWORD PTR _pPlot$[ebp], 0
	je	SHORT $LN4@GetHexDebu
	mov	ecx, DWORD PTR _pPlot$[ebp]
	call	?GetInstance@CvDllPlot@@QAEPAVCvPlot@@XZ ; CvDllPlot::GetInstance
	mov	DWORD PTR tv71[ebp], eax
	jmp	SHORT $LN5@GetHexDebu
$LN4@GetHexDebu:
	mov	DWORD PTR tv71[ebp], 0
$LN5@GetHexDebu:
	mov	eax, DWORD PTR tv71[ebp]
	mov	DWORD PTR _pkPlot$[ebp], eax

; 683  : 	if(pkPlot != NULL)

	cmp	DWORD PTR _pkPlot$[ebp], 0
	je	SHORT $LN1@GetHexDebu

; 684  : 	{
; 685  : 		return GC.GetHexDebugLayerString(pkPlot, szLayerName, ePlayer, szBuffer, uiBufferLength);

	mov	ecx, DWORD PTR _uiBufferLength$[ebp]
	push	ecx
	mov	edx, DWORD PTR _szBuffer$[ebp]
	push	edx
	mov	eax, DWORD PTR _ePlayer$[ebp]
	push	eax
	mov	ecx, DWORD PTR _szLayerName$[ebp]
	push	ecx
	mov	edx, DWORD PTR _pkPlot$[ebp]
	push	edx
	mov	ecx, OFFSET ?gGlobals@@3VCvGlobals@@A	; gGlobals
	call	?GetHexDebugLayerString@CvGlobals@@QAE_NPAVCvPlot@@PBDW4PlayerTypes@@PADI@Z ; CvGlobals::GetHexDebugLayerString
	jmp	SHORT $LN2@GetHexDebu
$LN1@GetHexDebu:

; 686  : 	}
; 687  : 
; 688  : 	return false;

	xor	al, al
$LN2@GetHexDebu:

; 689  : }

	mov	esp, ebp
	pop	ebp
	ret	24					; 00000018H
?GetHexDebugLayerString@CvDllGameContext@@UAG_NPAVICvPlot1@@PBDW4PlayerTypes@@PADI@Z ENDP ; CvDllGameContext::GetHexDebugLayerString
_TEXT	ENDS
EXTRN	?init@CvGlobals@@QAEXXZ:PROC			; CvGlobals::init
; Function compile flags: /Odtp
;	COMDAT ?Init@CvDllGameContext@@UAGXXZ
_TEXT	SEGMENT
_this$ = 8						; size = 4
?Init@CvDllGameContext@@UAGXXZ PROC			; CvDllGameContext::Init, COMDAT

; 692  : {

	push	ebp
	mov	ebp, esp

; 693  : 	GC.init();

	mov	ecx, OFFSET ?gGlobals@@3VCvGlobals@@A	; gGlobals
	call	?init@CvGlobals@@QAEXXZ			; CvGlobals::init

; 694  : }

	pop	ebp
	ret	4
?Init@CvDllGameContext@@UAGXXZ ENDP			; CvDllGameContext::Init
_TEXT	ENDS
EXTRN	?uninit@CvGlobals@@QAEXXZ:PROC			; CvGlobals::uninit
; Function compile flags: /Odtp
;	COMDAT ?Uninit@CvDllGameContext@@UAGXXZ
_TEXT	SEGMENT
_this$ = 8						; size = 4
?Uninit@CvDllGameContext@@UAGXXZ PROC			; CvDllGameContext::Uninit, COMDAT

; 697  : {

	push	ebp
	mov	ebp, esp

; 698  : 	GC.uninit();

	mov	ecx, OFFSET ?gGlobals@@3VCvGlobals@@A	; gGlobals
	call	?uninit@CvGlobals@@QAEXXZ		; CvGlobals::uninit

; 699  : }

	pop	ebp
	ret	4
?Uninit@CvDllGameContext@@UAGXXZ ENDP			; CvDllGameContext::Uninit
; Function compile flags: /Odtp
_TEXT	ENDS
;	COMDAT ?GetScriptSystemUtility@CvDllGameContext@@UAGPAVICvScriptSystemUtility1@@XZ
_TEXT	SEGMENT
_this$ = 8						; size = 4
?GetScriptSystemUtility@CvDllGameContext@@UAGPAVICvScriptSystemUtility1@@XZ PROC ; CvDllGameContext::GetScriptSystemUtility, COMDAT

; 702  : {

	push	ebp
	mov	ebp, esp

; 703  : 	return m_pScriptSystemUtility;

	mov	eax, DWORD PTR _this$[ebp]
	mov	eax, DWORD PTR [eax+12]

; 704  : }

	pop	ebp
	ret	4
?GetScriptSystemUtility@CvDllGameContext@@UAGPAVICvScriptSystemUtility1@@XZ ENDP ; CvDllGameContext::GetScriptSystemUtility
_TEXT	ENDS
EXTRN	?GetTypeName@CvNotificationEntry@@QAEPBDXZ:PROC	; CvNotificationEntry::GetTypeName
EXTRN	?GetEntry@CvNotificationXMLEntries@@QAEPAVCvNotificationEntry@@H@Z:PROC ; CvNotificationXMLEntries::GetEntry
EXTRN	?GetNotificationEntries@CvGlobals@@QAEPAVCvNotificationXMLEntries@@XZ:PROC ; CvGlobals::GetNotificationEntries
; Function compile flags: /Odtp
;	COMDAT ?GetNotificationType@CvDllGameContext@@UBGPBDH@Z
_TEXT	SEGMENT
_pkEntry$222277 = -8					; size = 4
_pkEntries$ = -4					; size = 4
_this$ = 8						; size = 4
_NotificationID$ = 12					; size = 4
?GetNotificationType@CvDllGameContext@@UBGPBDH@Z PROC	; CvDllGameContext::GetNotificationType, COMDAT

; 707  : {

	push	ebp
	mov	ebp, esp
	sub	esp, 8

; 708  : 	CvNotificationXMLEntries* pkEntries = GC.GetNotificationEntries();

	mov	ecx, OFFSET ?gGlobals@@3VCvGlobals@@A	; gGlobals
	call	?GetNotificationEntries@CvGlobals@@QAEPAVCvNotificationXMLEntries@@XZ ; CvGlobals::GetNotificationEntries
	mov	DWORD PTR _pkEntries$[ebp], eax

; 709  : 	if(pkEntries != NULL)

	cmp	DWORD PTR _pkEntries$[ebp], 0
	je	SHORT $LN2@GetNotific

; 710  : 	{
; 711  : 		CvNotificationEntry* pkEntry = pkEntries->GetEntry(NotificationID);

	mov	eax, DWORD PTR _NotificationID$[ebp]
	push	eax
	mov	ecx, DWORD PTR _pkEntries$[ebp]
	call	?GetEntry@CvNotificationXMLEntries@@QAEPAVCvNotificationEntry@@H@Z ; CvNotificationXMLEntries::GetEntry
	mov	DWORD PTR _pkEntry$222277[ebp], eax

; 712  : 		if(pkEntry != NULL)

	cmp	DWORD PTR _pkEntry$222277[ebp], 0
	je	SHORT $LN2@GetNotific

; 713  : 			return pkEntry->GetTypeName();

	mov	ecx, DWORD PTR _pkEntry$222277[ebp]
	call	?GetTypeName@CvNotificationEntry@@QAEPBDXZ ; CvNotificationEntry::GetTypeName
	jmp	SHORT $LN3@GetNotific
$LN2@GetNotific:

; 714  : 	}
; 715  : 
; 716  : 	return NULL;

	xor	eax, eax
$LN3@GetNotific:

; 717  : }

	mov	esp, ebp
	pop	ebp
	ret	8
?GetNotificationType@CvDllGameContext@@UBGPBDH@Z ENDP	; CvDllGameContext::GetNotificationType
_TEXT	ENDS
EXTRN	?getLogging@CvGlobals@@QAE_NXZ:PROC		; CvGlobals::getLogging
; Function compile flags: /Odtp
;	COMDAT ?GetLogging@CvDllGameContext@@UAG_NXZ
_TEXT	SEGMENT
_this$ = 8						; size = 4
?GetLogging@CvDllGameContext@@UAG_NXZ PROC		; CvDllGameContext::GetLogging, COMDAT

; 720  : {

	push	ebp
	mov	ebp, esp

; 721  : 	return GC.getLogging();

	mov	ecx, OFFSET ?gGlobals@@3VCvGlobals@@A	; gGlobals
	call	?getLogging@CvGlobals@@QAE_NXZ		; CvGlobals::getLogging

; 722  : }

	pop	ebp
	ret	4
?GetLogging@CvDllGameContext@@UAG_NXZ ENDP		; CvDllGameContext::GetLogging
_TEXT	ENDS
EXTRN	?setLogging@CvGlobals@@QAEX_N@Z:PROC		; CvGlobals::setLogging
; Function compile flags: /Odtp
;	COMDAT ?SetLogging@CvDllGameContext@@UAGX_N@Z
_TEXT	SEGMENT
_this$ = 8						; size = 4
_bEnable$ = 12						; size = 1
?SetLogging@CvDllGameContext@@UAGX_N@Z PROC		; CvDllGameContext::SetLogging, COMDAT

; 725  : {

	push	ebp
	mov	ebp, esp

; 726  : 	GC.setLogging(bEnable);

	movzx	eax, BYTE PTR _bEnable$[ebp]
	push	eax
	mov	ecx, OFFSET ?gGlobals@@3VCvGlobals@@A	; gGlobals
	call	?setLogging@CvGlobals@@QAEX_N@Z		; CvGlobals::setLogging

; 727  : }

	pop	ebp
	ret	8
?SetLogging@CvDllGameContext@@UAGX_N@Z ENDP		; CvDllGameContext::SetLogging
_TEXT	ENDS
EXTRN	?getRandLogging@CvGlobals@@QAEHXZ:PROC		; CvGlobals::getRandLogging
; Function compile flags: /Odtp
;	COMDAT ?GetRandLogging@CvDllGameContext@@UAGHXZ
_TEXT	SEGMENT
_this$ = 8						; size = 4
?GetRandLogging@CvDllGameContext@@UAGHXZ PROC		; CvDllGameContext::GetRandLogging, COMDAT

; 730  : {

	push	ebp
	mov	ebp, esp

; 731  : 	return GC.getRandLogging();

	mov	ecx, OFFSET ?gGlobals@@3VCvGlobals@@A	; gGlobals
	call	?getRandLogging@CvGlobals@@QAEHXZ	; CvGlobals::getRandLogging

; 732  : }

	pop	ebp
	ret	4
?GetRandLogging@CvDllGameContext@@UAGHXZ ENDP		; CvDllGameContext::GetRandLogging
_TEXT	ENDS
EXTRN	?setRandLogging@CvGlobals@@QAEXH@Z:PROC		; CvGlobals::setRandLogging
; Function compile flags: /Odtp
;	COMDAT ?SetRandLogging@CvDllGameContext@@UAGXH@Z
_TEXT	SEGMENT
_this$ = 8						; size = 4
_iRandLoggingFlags$ = 12				; size = 4
?SetRandLogging@CvDllGameContext@@UAGXH@Z PROC		; CvDllGameContext::SetRandLogging, COMDAT

; 735  : {

	push	ebp
	mov	ebp, esp

; 736  : 	GC.setRandLogging(iRandLoggingFlags);

	mov	eax, DWORD PTR _iRandLoggingFlags$[ebp]
	push	eax
	mov	ecx, OFFSET ?gGlobals@@3VCvGlobals@@A	; gGlobals
	call	?setRandLogging@CvGlobals@@QAEXH@Z	; CvGlobals::setRandLogging

; 737  : }

	pop	ebp
	ret	8
?SetRandLogging@CvDllGameContext@@UAGXH@Z ENDP		; CvDllGameContext::SetRandLogging
_TEXT	ENDS
