; Listing generated by Microsoft (R) Optimizing Compiler Version 15.00.30729.01 

	TITLE	D:\sources\Lekmod_git\checkout\LEKMOD_DLL\CvGameCoreDLL_Expansion2\CvDllMinorCivInfo.cpp
	.686P
	.XMM
	include listing.inc
	.model	flat

INCLUDELIB MSVCRT
INCLUDELIB OLDNAMES

PUBLIC	??_C@_05OCFELOIJ@1?40?40?$AA@			; `string'
PUBLIC	?NO_QUEST_DATA@CvMinorCivQuest@@2HB		; CvMinorCivQuest::NO_QUEST_DATA
PUBLIC	?NO_TURN@CvMinorCivQuest@@2HB			; CvMinorCivQuest::NO_TURN
CONST	SEGMENT
_guidICvUnknown DD 0d89ba82fH
	DW	09fa3H
	DW	04696H
	DB	0b3H
	DB	0f4H
	DB	052H
	DB	0bdH
	DB	0b1H
	DB	01H
	DB	0cfH
	DB	0b2H
_guidICvMinorCivInfo1 DD 0ddf7a39H
	DW	04801H
	DW	047ceH
	DB	08dH
	DB	09cH
	DB	053H
	DB	08eH
	DB	0d9H
	DB	0c4H
	DB	0a4H
	DB	079H
CONST	ENDS
;	COMDAT ?NO_TURN@CvMinorCivQuest@@2HB
CONST	SEGMENT
?NO_TURN@CvMinorCivQuest@@2HB DD 0ffffffffH		; CvMinorCivQuest::NO_TURN
CONST	ENDS
;	COMDAT ?NO_QUEST_DATA@CvMinorCivQuest@@2HB
CONST	SEGMENT
?NO_QUEST_DATA@CvMinorCivQuest@@2HB DD 0ffffffffH	; CvMinorCivQuest::NO_QUEST_DATA
CONST	ENDS
_DATA	SEGMENT
_CIV5_XP2_DLL_VERSION DD FLAT:??_C@_05OCFELOIJ@1?40?40?$AA@
_DATA	ENDS
;	COMDAT ??_C@_05OCFELOIJ@1?40?40?$AA@
CONST	SEGMENT
??_C@_05OCFELOIJ@1?40?40?$AA@ DB '1.0.0', 00H		; `string'
CONST	ENDS
PUBLIC	??_7CvDllMinorCivInfo@@6B@			; CvDllMinorCivInfo::`vftable'
PUBLIC	??_7ICvMinorCivInfo1@@6B@			; ICvMinorCivInfo1::`vftable'
PUBLIC	??_7ICvUnknown@@6B@				; ICvUnknown::`vftable'
PUBLIC	??0CvDllMinorCivInfo@@QAE@PAVCvMinorCivInfo@@@Z	; CvDllMinorCivInfo::CvDllMinorCivInfo
PUBLIC	?QueryInterface@CvDllMinorCivInfo@@UAGPAXU_GUID@@@Z ; CvDllMinorCivInfo::QueryInterface
PUBLIC	?Destroy@CvDllMinorCivInfo@@EAGXXZ		; CvDllMinorCivInfo::Destroy
PUBLIC	?GetType@CvDllMinorCivInfo@@UAGPBDXZ		; CvDllMinorCivInfo::GetType
PUBLIC	?GetDescription@CvDllMinorCivInfo@@UAGPBDXZ	; CvDllMinorCivInfo::GetDescription
PUBLIC	?GetDefaultPlayerColor@CvDllMinorCivInfo@@UBGHXZ ; CvDllMinorCivInfo::GetDefaultPlayerColor
PUBLIC	?GetArtStyleType@CvDllMinorCivInfo@@UBGHXZ	; CvDllMinorCivInfo::GetArtStyleType
PUBLIC	?GetNumCityNames@CvDllMinorCivInfo@@UBGHXZ	; CvDllMinorCivInfo::GetNumCityNames
PUBLIC	?GetArtStylePrefix@CvDllMinorCivInfo@@UBGPBDXZ	; CvDllMinorCivInfo::GetArtStylePrefix
PUBLIC	?GetArtStyleSuffix@CvDllMinorCivInfo@@UBGPBDXZ	; CvDllMinorCivInfo::GetArtStyleSuffix
PUBLIC	?GetCityNames@CvDllMinorCivInfo@@UBGPBDH@Z	; CvDllMinorCivInfo::GetCityNames
EXTRN	__purecall:PROC
;	COMDAT ??_7CvDllMinorCivInfo@@6B@
; File d:\sources\lekmod_git\checkout\lekmod_dll\cvgamecoredll_expansion2\cvdllminorcivinfo.cpp
CONST	SEGMENT
??_7CvDllMinorCivInfo@@6B@ DD FLAT:?QueryInterface@CvDllMinorCivInfo@@UAGPAXU_GUID@@@Z ; CvDllMinorCivInfo::`vftable'
	DD	FLAT:?Destroy@CvDllMinorCivInfo@@EAGXXZ
	DD	FLAT:?GetType@CvDllMinorCivInfo@@UAGPBDXZ
	DD	FLAT:?GetDescription@CvDllMinorCivInfo@@UAGPBDXZ
	DD	FLAT:?GetDefaultPlayerColor@CvDllMinorCivInfo@@UBGHXZ
	DD	FLAT:?GetArtStyleType@CvDllMinorCivInfo@@UBGHXZ
	DD	FLAT:?GetNumCityNames@CvDllMinorCivInfo@@UBGHXZ
	DD	FLAT:?GetArtStylePrefix@CvDllMinorCivInfo@@UBGPBDXZ
	DD	FLAT:?GetArtStyleSuffix@CvDllMinorCivInfo@@UBGPBDXZ
	DD	FLAT:?GetCityNames@CvDllMinorCivInfo@@UBGPBDH@Z
CONST	ENDS
;	COMDAT ??_7ICvMinorCivInfo1@@6B@
CONST	SEGMENT
??_7ICvMinorCivInfo1@@6B@ DD FLAT:__purecall		; ICvMinorCivInfo1::`vftable'
	DD	FLAT:__purecall
	DD	FLAT:__purecall
	DD	FLAT:__purecall
	DD	FLAT:__purecall
	DD	FLAT:__purecall
	DD	FLAT:__purecall
	DD	FLAT:__purecall
	DD	FLAT:__purecall
	DD	FLAT:__purecall
CONST	ENDS
;	COMDAT ??_7ICvUnknown@@6B@
CONST	SEGMENT
??_7ICvUnknown@@6B@ DD FLAT:__purecall			; ICvUnknown::`vftable'
	DD	FLAT:__purecall
; Function compile flags: /Odtp
CONST	ENDS
;	COMDAT ??0CvDllMinorCivInfo@@QAE@PAVCvMinorCivInfo@@@Z
_TEXT	SEGMENT
_this$ = -4						; size = 4
_pMinorCivInfo$ = 8					; size = 4
??0CvDllMinorCivInfo@@QAE@PAVCvMinorCivInfo@@@Z PROC	; CvDllMinorCivInfo::CvDllMinorCivInfo, COMDAT
; _this$ = ecx

; 21   : {

	push	ebp
	mov	ebp, esp
	push	ecx
	mov	DWORD PTR _this$[ebp], ecx
	mov	eax, DWORD PTR _this$[ebp]
	mov	DWORD PTR [eax], OFFSET ??_7ICvUnknown@@6B@
	mov	ecx, DWORD PTR _this$[ebp]
	mov	DWORD PTR [ecx], OFFSET ??_7ICvMinorCivInfo1@@6B@
	mov	edx, DWORD PTR _this$[ebp]
	mov	DWORD PTR [edx], OFFSET ??_7CvDllMinorCivInfo@@6B@
	mov	eax, DWORD PTR _this$[ebp]
	mov	DWORD PTR [eax+4], 1
	mov	ecx, DWORD PTR _this$[ebp]
	mov	edx, DWORD PTR _pMinorCivInfo$[ebp]
	mov	DWORD PTR [ecx+8], edx

; 22   : 	FAssertMsg(pMinorCivInfo != NULL, "SHOULD NOT HAPPEN");
; 23   : }

	mov	eax, DWORD PTR _this$[ebp]
	mov	esp, ebp
	pop	ebp
	ret	4
??0CvDllMinorCivInfo@@QAE@PAVCvMinorCivInfo@@@Z ENDP	; CvDllMinorCivInfo::CvDllMinorCivInfo
_TEXT	ENDS
PUBLIC	??1CvDllMinorCivInfo@@QAE@XZ			; CvDllMinorCivInfo::~CvDllMinorCivInfo
; Function compile flags: /Odtp
;	COMDAT ??1CvDllMinorCivInfo@@QAE@XZ
_TEXT	SEGMENT
_this$ = -4						; size = 4
??1CvDllMinorCivInfo@@QAE@XZ PROC			; CvDllMinorCivInfo::~CvDllMinorCivInfo, COMDAT
; _this$ = ecx

; 26   : {

	push	ebp
	mov	ebp, esp
	push	ecx
	mov	DWORD PTR _this$[ebp], ecx
	mov	eax, DWORD PTR _this$[ebp]
	mov	DWORD PTR [eax], OFFSET ??_7CvDllMinorCivInfo@@6B@

; 27   : }

	mov	esp, ebp
	pop	ebp
	ret	0
??1CvDllMinorCivInfo@@QAE@XZ ENDP			; CvDllMinorCivInfo::~CvDllMinorCivInfo
_TEXT	ENDS
PUBLIC	?IncrementReference@CvDllMinorCivInfo@@QAEIXZ	; CvDllMinorCivInfo::IncrementReference
; Function compile flags: /Odtp
;	COMDAT ?QueryInterface@CvDllMinorCivInfo@@UAGPAXU_GUID@@@Z
_TEXT	SEGMENT
tv90 = -88						; size = 4
tv161 = -84						; size = 4
tv85 = -80						; size = 4
tv137 = -76						; size = 4
$T219119 = -72						; size = 16
$T219118 = -56						; size = 16
$T219117 = -40						; size = 16
$T219116 = -20						; size = 16
_this$ = 8						; size = 4
_guidInterface$ = 12					; size = 16
?QueryInterface@CvDllMinorCivInfo@@UAGPAXU_GUID@@@Z PROC ; CvDllMinorCivInfo::QueryInterface, COMDAT

; 30   : {

	push	ebp
	mov	ebp, esp
	sub	esp, 88					; 00000058H
	push	esi
	push	edi

; 31   : 	if(guidInterface == ICvUnknown::GetInterfaceId() ||
; 32   : 	        guidInterface == ICvMinorCivInfo1::GetInterfaceId())

	mov	eax, DWORD PTR _guidICvUnknown
	mov	DWORD PTR $T219117[ebp], eax
	mov	ecx, DWORD PTR _guidICvUnknown+4
	mov	DWORD PTR $T219117[ebp+4], ecx
	mov	edx, DWORD PTR _guidICvUnknown+8
	mov	DWORD PTR $T219117[ebp+8], edx
	mov	eax, DWORD PTR _guidICvUnknown+12
	mov	DWORD PTR $T219117[ebp+12], eax
	mov	ecx, DWORD PTR $T219117[ebp]
	mov	DWORD PTR $T219116[ebp], ecx
	mov	edx, DWORD PTR $T219117[ebp+4]
	mov	DWORD PTR $T219116[ebp+4], edx
	mov	eax, DWORD PTR $T219117[ebp+8]
	mov	DWORD PTR $T219116[ebp+8], eax
	mov	ecx, DWORD PTR $T219117[ebp+12]
	mov	DWORD PTR $T219116[ebp+12], ecx
	mov	ecx, 16					; 00000010H
	lea	edi, DWORD PTR $T219116[ebp]
	lea	esi, DWORD PTR _guidInterface$[ebp]
	xor	edx, edx
	mov	DWORD PTR tv137[ebp], edx
	repe cmpsb
	je	SHORT $LN17@QueryInter
	sbb	eax, eax
	sbb	eax, -1
	mov	DWORD PTR tv137[ebp], eax
$LN17@QueryInter:
	mov	ecx, DWORD PTR tv137[ebp]
	mov	DWORD PTR tv85[ebp], ecx
	xor	edx, edx
	cmp	DWORD PTR tv85[ebp], 0
	sete	dl
	test	edx, edx
	jne	SHORT $LN1@QueryInter
	mov	eax, DWORD PTR _guidICvMinorCivInfo1
	mov	DWORD PTR $T219119[ebp], eax
	mov	ecx, DWORD PTR _guidICvMinorCivInfo1+4
	mov	DWORD PTR $T219119[ebp+4], ecx
	mov	edx, DWORD PTR _guidICvMinorCivInfo1+8
	mov	DWORD PTR $T219119[ebp+8], edx
	mov	eax, DWORD PTR _guidICvMinorCivInfo1+12
	mov	DWORD PTR $T219119[ebp+12], eax
	mov	ecx, DWORD PTR $T219119[ebp]
	mov	DWORD PTR $T219118[ebp], ecx
	mov	edx, DWORD PTR $T219119[ebp+4]
	mov	DWORD PTR $T219118[ebp+4], edx
	mov	eax, DWORD PTR $T219119[ebp+8]
	mov	DWORD PTR $T219118[ebp+8], eax
	mov	ecx, DWORD PTR $T219119[ebp+12]
	mov	DWORD PTR $T219118[ebp+12], ecx
	mov	ecx, 16					; 00000010H
	lea	edi, DWORD PTR $T219118[ebp]
	lea	esi, DWORD PTR _guidInterface$[ebp]
	xor	edx, edx
	mov	DWORD PTR tv161[ebp], edx
	repe cmpsb
	je	SHORT $LN18@QueryInter
	sbb	eax, eax
	sbb	eax, -1
	mov	DWORD PTR tv161[ebp], eax
$LN18@QueryInter:
	mov	ecx, DWORD PTR tv161[ebp]
	mov	DWORD PTR tv90[ebp], ecx
	xor	edx, edx
	cmp	DWORD PTR tv90[ebp], 0
	sete	dl
	test	edx, edx
	je	SHORT $LN2@QueryInter
$LN1@QueryInter:

; 33   : 	{
; 34   : 		IncrementReference();

	mov	ecx, DWORD PTR _this$[ebp]
	call	?IncrementReference@CvDllMinorCivInfo@@QAEIXZ ; CvDllMinorCivInfo::IncrementReference

; 35   : 		return this;

	mov	eax, DWORD PTR _this$[ebp]
	jmp	SHORT $LN3@QueryInter
$LN2@QueryInter:

; 36   : 	}
; 37   : 
; 38   : 	return NULL;

	xor	eax, eax
$LN3@QueryInter:

; 39   : }

	pop	edi
	pop	esi
	mov	esp, ebp
	pop	ebp
	ret	20					; 00000014H
?QueryInterface@CvDllMinorCivInfo@@UAGPAXU_GUID@@@Z ENDP ; CvDllMinorCivInfo::QueryInterface
; Function compile flags: /Odtp
_TEXT	ENDS
;	COMDAT ?IncrementReference@CvDllMinorCivInfo@@QAEIXZ
_TEXT	SEGMENT
_this$ = -4						; size = 4
?IncrementReference@CvDllMinorCivInfo@@QAEIXZ PROC	; CvDllMinorCivInfo::IncrementReference, COMDAT
; _this$ = ecx

; 42   : {

	push	ebp
	mov	ebp, esp
	push	ecx
	mov	DWORD PTR _this$[ebp], ecx

; 43   : 	++m_uiRefCount;

	mov	eax, DWORD PTR _this$[ebp]
	mov	ecx, DWORD PTR [eax+4]
	add	ecx, 1
	mov	edx, DWORD PTR _this$[ebp]
	mov	DWORD PTR [edx+4], ecx

; 44   : 	return m_uiRefCount;

	mov	eax, DWORD PTR _this$[ebp]
	mov	eax, DWORD PTR [eax+4]

; 45   : }

	mov	esp, ebp
	pop	ebp
	ret	0
?IncrementReference@CvDllMinorCivInfo@@QAEIXZ ENDP	; CvDllMinorCivInfo::IncrementReference
_TEXT	ENDS
PUBLIC	??3CvDllMinorCivInfo@@SAXPAX@Z			; CvDllMinorCivInfo::operator delete
PUBLIC	?DecrementReference@CvDllMinorCivInfo@@QAEIXZ	; CvDllMinorCivInfo::DecrementReference
; Function compile flags: /Odtp
;	COMDAT ?DecrementReference@CvDllMinorCivInfo@@QAEIXZ
_TEXT	SEGMENT
tv70 = -16						; size = 4
_this$ = -12						; size = 4
$T219151 = -8						; size = 4
$T219150 = -4						; size = 4
?DecrementReference@CvDllMinorCivInfo@@QAEIXZ PROC	; CvDllMinorCivInfo::DecrementReference, COMDAT
; _this$ = ecx

; 48   : {

	push	ebp
	mov	ebp, esp
	sub	esp, 16					; 00000010H
	mov	DWORD PTR _this$[ebp], ecx

; 49   : 	if(m_uiRefCount == 1)

	mov	eax, DWORD PTR _this$[ebp]
	cmp	DWORD PTR [eax+4], 1
	jne	SHORT $LN2@DecrementR

; 50   : 	{
; 51   : 		delete this;

	mov	ecx, DWORD PTR _this$[ebp]
	mov	DWORD PTR $T219151[ebp], ecx
	mov	edx, DWORD PTR $T219151[ebp]
	mov	DWORD PTR $T219150[ebp], edx
	cmp	DWORD PTR $T219150[ebp], 0
	je	SHORT $LN5@DecrementR
	mov	ecx, DWORD PTR $T219150[ebp]
	call	??1CvDllMinorCivInfo@@QAE@XZ		; CvDllMinorCivInfo::~CvDllMinorCivInfo
	mov	eax, 1
	and	eax, 1
	je	SHORT $LN8@DecrementR
	mov	ecx, DWORD PTR $T219150[ebp]
	push	ecx
	call	??3CvDllMinorCivInfo@@SAXPAX@Z		; CvDllMinorCivInfo::operator delete
	add	esp, 4
$LN8@DecrementR:
	mov	edx, DWORD PTR $T219150[ebp]
	mov	DWORD PTR tv70[ebp], edx
	jmp	SHORT $LN6@DecrementR
$LN5@DecrementR:
	mov	DWORD PTR tv70[ebp], 0
$LN6@DecrementR:

; 52   : 		return 0;

	xor	eax, eax
	jmp	SHORT $LN3@DecrementR

; 53   : 	}
; 54   : 	else

	jmp	SHORT $LN3@DecrementR
$LN2@DecrementR:

; 55   : 	{
; 56   : 		--m_uiRefCount;

	mov	eax, DWORD PTR _this$[ebp]
	mov	ecx, DWORD PTR [eax+4]
	sub	ecx, 1
	mov	edx, DWORD PTR _this$[ebp]
	mov	DWORD PTR [edx+4], ecx

; 57   : 		return m_uiRefCount;

	mov	eax, DWORD PTR _this$[ebp]
	mov	eax, DWORD PTR [eax+4]
$LN3@DecrementR:

; 58   : 	}
; 59   : }

	mov	esp, ebp
	pop	ebp
	ret	0
?DecrementReference@CvDllMinorCivInfo@@QAEIXZ ENDP	; CvDllMinorCivInfo::DecrementReference
_TEXT	ENDS
PUBLIC	?GetReferenceCount@CvDllMinorCivInfo@@QAEIXZ	; CvDllMinorCivInfo::GetReferenceCount
; Function compile flags: /Odtp
;	COMDAT ?GetReferenceCount@CvDllMinorCivInfo@@QAEIXZ
_TEXT	SEGMENT
_this$ = -4						; size = 4
?GetReferenceCount@CvDllMinorCivInfo@@QAEIXZ PROC	; CvDllMinorCivInfo::GetReferenceCount, COMDAT
; _this$ = ecx

; 62   : {

	push	ebp
	mov	ebp, esp
	push	ecx
	mov	DWORD PTR _this$[ebp], ecx

; 63   : 	return m_uiRefCount;

	mov	eax, DWORD PTR _this$[ebp]
	mov	eax, DWORD PTR [eax+4]

; 64   : }

	mov	esp, ebp
	pop	ebp
	ret	0
?GetReferenceCount@CvDllMinorCivInfo@@QAEIXZ ENDP	; CvDllMinorCivInfo::GetReferenceCount
; Function compile flags: /Odtp
_TEXT	ENDS
;	COMDAT ?Destroy@CvDllMinorCivInfo@@EAGXXZ
_TEXT	SEGMENT
_this$ = 8						; size = 4
?Destroy@CvDllMinorCivInfo@@EAGXXZ PROC			; CvDllMinorCivInfo::Destroy, COMDAT

; 67   : {

	push	ebp
	mov	ebp, esp

; 68   : 	DecrementReference();

	mov	ecx, DWORD PTR _this$[ebp]
	call	?DecrementReference@CvDllMinorCivInfo@@QAEIXZ ; CvDllMinorCivInfo::DecrementReference

; 69   : }

	pop	ebp
	ret	4
?Destroy@CvDllMinorCivInfo@@EAGXXZ ENDP			; CvDllMinorCivInfo::Destroy
_TEXT	ENDS
EXTRN	?Free@CvDllGameContext@@SAXPAX@Z:PROC		; CvDllGameContext::Free
; Function compile flags: /Odtp
;	COMDAT ??3CvDllMinorCivInfo@@SAXPAX@Z
_TEXT	SEGMENT
_p$ = 8							; size = 4
??3CvDllMinorCivInfo@@SAXPAX@Z PROC			; CvDllMinorCivInfo::operator delete, COMDAT

; 72   : {

	push	ebp
	mov	ebp, esp

; 73   : 	CvDllGameContext::Free(p);

	mov	eax, DWORD PTR _p$[ebp]
	push	eax
	call	?Free@CvDllGameContext@@SAXPAX@Z	; CvDllGameContext::Free
	add	esp, 4

; 74   : }

	pop	ebp
	ret	0
??3CvDllMinorCivInfo@@SAXPAX@Z ENDP			; CvDllMinorCivInfo::operator delete
_TEXT	ENDS
PUBLIC	??2CvDllMinorCivInfo@@SAPAXI@Z			; CvDllMinorCivInfo::operator new
EXTRN	?Allocate@CvDllGameContext@@SAPAXI@Z:PROC	; CvDllGameContext::Allocate
; Function compile flags: /Odtp
;	COMDAT ??2CvDllMinorCivInfo@@SAPAXI@Z
_TEXT	SEGMENT
_bytes$ = 8						; size = 4
??2CvDllMinorCivInfo@@SAPAXI@Z PROC			; CvDllMinorCivInfo::operator new, COMDAT

; 77   : {

	push	ebp
	mov	ebp, esp

; 78   : 	return CvDllGameContext::Allocate(bytes);

	mov	eax, DWORD PTR _bytes$[ebp]
	push	eax
	call	?Allocate@CvDllGameContext@@SAPAXI@Z	; CvDllGameContext::Allocate
	add	esp, 4

; 79   : }

	pop	ebp
	ret	0
??2CvDllMinorCivInfo@@SAPAXI@Z ENDP			; CvDllMinorCivInfo::operator new
_TEXT	ENDS
PUBLIC	?GetInstance@CvDllMinorCivInfo@@QAEPAVCvMinorCivInfo@@XZ ; CvDllMinorCivInfo::GetInstance
; Function compile flags: /Odtp
;	COMDAT ?GetInstance@CvDllMinorCivInfo@@QAEPAVCvMinorCivInfo@@XZ
_TEXT	SEGMENT
_this$ = -4						; size = 4
?GetInstance@CvDllMinorCivInfo@@QAEPAVCvMinorCivInfo@@XZ PROC ; CvDllMinorCivInfo::GetInstance, COMDAT
; _this$ = ecx

; 82   : {

	push	ebp
	mov	ebp, esp
	push	ecx
	mov	DWORD PTR _this$[ebp], ecx

; 83   : 	return m_pMinorCivInfo;

	mov	eax, DWORD PTR _this$[ebp]
	mov	eax, DWORD PTR [eax+8]

; 84   : }

	mov	esp, ebp
	pop	ebp
	ret	0
?GetInstance@CvDllMinorCivInfo@@QAEPAVCvMinorCivInfo@@XZ ENDP ; CvDllMinorCivInfo::GetInstance
_TEXT	ENDS
EXTRN	__imp_?c_str@?$basic_string@DU?$char_traits@D@std@@V?$allocator@D@2@@std@@QBEPBDXZ:PROC
; Function compile flags: /Odtp
;	COMDAT ?GetType@CvDllMinorCivInfo@@UAGPBDXZ
_TEXT	SEGMENT
$T219173 = -4						; size = 4
_this$ = 8						; size = 4
?GetType@CvDllMinorCivInfo@@UAGPBDXZ PROC		; CvDllMinorCivInfo::GetType, COMDAT

; 87   : {

	push	ebp
	mov	ebp, esp
	push	ecx

; 88   : 	return m_pMinorCivInfo->GetType();

	mov	eax, DWORD PTR _this$[ebp]
	mov	ecx, DWORD PTR [eax+8]
	mov	DWORD PTR $T219173[ebp], ecx
	mov	ecx, DWORD PTR $T219173[ebp]
	add	ecx, 176				; 000000b0H
	call	DWORD PTR __imp_?c_str@?$basic_string@DU?$char_traits@D@std@@V?$allocator@D@2@@std@@QBEPBDXZ

; 89   : }

	mov	esp, ebp
	pop	ebp
	ret	4
?GetType@CvDllMinorCivInfo@@UAGPBDXZ ENDP		; CvDllMinorCivInfo::GetType
; Function compile flags: /Odtp
_TEXT	ENDS
;	COMDAT ?GetDescription@CvDllMinorCivInfo@@UAGPBDXZ
_TEXT	SEGMENT
$T219179 = -4						; size = 4
_this$ = 8						; size = 4
?GetDescription@CvDllMinorCivInfo@@UAGPBDXZ PROC	; CvDllMinorCivInfo::GetDescription, COMDAT

; 92   : {

	push	ebp
	mov	ebp, esp
	push	ecx

; 93   : 	return m_pMinorCivInfo->GetDescription();

	mov	eax, DWORD PTR _this$[ebp]
	mov	ecx, DWORD PTR [eax+8]
	mov	DWORD PTR $T219179[ebp], ecx
	mov	ecx, DWORD PTR $T219179[ebp]
	add	ecx, 36					; 00000024H
	call	DWORD PTR __imp_?c_str@?$basic_string@DU?$char_traits@D@std@@V?$allocator@D@2@@std@@QBEPBDXZ

; 94   : }

	mov	esp, ebp
	pop	ebp
	ret	4
?GetDescription@CvDllMinorCivInfo@@UAGPBDXZ ENDP	; CvDllMinorCivInfo::GetDescription
_TEXT	ENDS
EXTRN	?getDefaultPlayerColor@CvMinorCivInfo@@QBEHXZ:PROC ; CvMinorCivInfo::getDefaultPlayerColor
; Function compile flags: /Odtp
;	COMDAT ?GetDefaultPlayerColor@CvDllMinorCivInfo@@UBGHXZ
_TEXT	SEGMENT
_this$ = 8						; size = 4
?GetDefaultPlayerColor@CvDllMinorCivInfo@@UBGHXZ PROC	; CvDllMinorCivInfo::GetDefaultPlayerColor, COMDAT

; 97   : {

	push	ebp
	mov	ebp, esp

; 98   : 	return m_pMinorCivInfo->getDefaultPlayerColor();

	mov	eax, DWORD PTR _this$[ebp]
	mov	ecx, DWORD PTR [eax+8]
	call	?getDefaultPlayerColor@CvMinorCivInfo@@QBEHXZ ; CvMinorCivInfo::getDefaultPlayerColor

; 99   : }

	pop	ebp
	ret	4
?GetDefaultPlayerColor@CvDllMinorCivInfo@@UBGHXZ ENDP	; CvDllMinorCivInfo::GetDefaultPlayerColor
_TEXT	ENDS
EXTRN	?getArtStyleType@CvMinorCivInfo@@QBEHXZ:PROC	; CvMinorCivInfo::getArtStyleType
; Function compile flags: /Odtp
;	COMDAT ?GetArtStyleType@CvDllMinorCivInfo@@UBGHXZ
_TEXT	SEGMENT
_this$ = 8						; size = 4
?GetArtStyleType@CvDllMinorCivInfo@@UBGHXZ PROC		; CvDllMinorCivInfo::GetArtStyleType, COMDAT

; 102  : {

	push	ebp
	mov	ebp, esp

; 103  : 	return m_pMinorCivInfo->getArtStyleType();

	mov	eax, DWORD PTR _this$[ebp]
	mov	ecx, DWORD PTR [eax+8]
	call	?getArtStyleType@CvMinorCivInfo@@QBEHXZ	; CvMinorCivInfo::getArtStyleType

; 104  : }

	pop	ebp
	ret	4
?GetArtStyleType@CvDllMinorCivInfo@@UBGHXZ ENDP		; CvDllMinorCivInfo::GetArtStyleType
_TEXT	ENDS
EXTRN	?getNumCityNames@CvMinorCivInfo@@QBEHXZ:PROC	; CvMinorCivInfo::getNumCityNames
; Function compile flags: /Odtp
;	COMDAT ?GetNumCityNames@CvDllMinorCivInfo@@UBGHXZ
_TEXT	SEGMENT
_this$ = 8						; size = 4
?GetNumCityNames@CvDllMinorCivInfo@@UBGHXZ PROC		; CvDllMinorCivInfo::GetNumCityNames, COMDAT

; 107  : {

	push	ebp
	mov	ebp, esp

; 108  : 	return m_pMinorCivInfo->getNumCityNames();

	mov	eax, DWORD PTR _this$[ebp]
	mov	ecx, DWORD PTR [eax+8]
	call	?getNumCityNames@CvMinorCivInfo@@QBEHXZ	; CvMinorCivInfo::getNumCityNames

; 109  : }

	pop	ebp
	ret	4
?GetNumCityNames@CvDllMinorCivInfo@@UBGHXZ ENDP		; CvDllMinorCivInfo::GetNumCityNames
_TEXT	ENDS
EXTRN	?getArtStylePrefix@CvMinorCivInfo@@QBEPBDXZ:PROC ; CvMinorCivInfo::getArtStylePrefix
; Function compile flags: /Odtp
;	COMDAT ?GetArtStylePrefix@CvDllMinorCivInfo@@UBGPBDXZ
_TEXT	SEGMENT
_this$ = 8						; size = 4
?GetArtStylePrefix@CvDllMinorCivInfo@@UBGPBDXZ PROC	; CvDllMinorCivInfo::GetArtStylePrefix, COMDAT

; 112  : {

	push	ebp
	mov	ebp, esp

; 113  : 	return m_pMinorCivInfo->getArtStylePrefix();

	mov	eax, DWORD PTR _this$[ebp]
	mov	ecx, DWORD PTR [eax+8]
	call	?getArtStylePrefix@CvMinorCivInfo@@QBEPBDXZ ; CvMinorCivInfo::getArtStylePrefix

; 114  : }

	pop	ebp
	ret	4
?GetArtStylePrefix@CvDllMinorCivInfo@@UBGPBDXZ ENDP	; CvDllMinorCivInfo::GetArtStylePrefix
_TEXT	ENDS
EXTRN	?getArtStyleSuffix@CvMinorCivInfo@@QBEPBDXZ:PROC ; CvMinorCivInfo::getArtStyleSuffix
; Function compile flags: /Odtp
;	COMDAT ?GetArtStyleSuffix@CvDllMinorCivInfo@@UBGPBDXZ
_TEXT	SEGMENT
_this$ = 8						; size = 4
?GetArtStyleSuffix@CvDllMinorCivInfo@@UBGPBDXZ PROC	; CvDllMinorCivInfo::GetArtStyleSuffix, COMDAT

; 117  : {

	push	ebp
	mov	ebp, esp

; 118  : 	return m_pMinorCivInfo->getArtStyleSuffix();

	mov	eax, DWORD PTR _this$[ebp]
	mov	ecx, DWORD PTR [eax+8]
	call	?getArtStyleSuffix@CvMinorCivInfo@@QBEPBDXZ ; CvMinorCivInfo::getArtStyleSuffix

; 119  : }

	pop	ebp
	ret	4
?GetArtStyleSuffix@CvDllMinorCivInfo@@UBGPBDXZ ENDP	; CvDllMinorCivInfo::GetArtStyleSuffix
_TEXT	ENDS
EXTRN	?getCityNames@CvMinorCivInfo@@QBEABV?$basic_string@DU?$char_traits@D@std@@V?$allocator@D@2@@std@@H@Z:PROC ; CvMinorCivInfo::getCityNames
; Function compile flags: /Odtp
;	COMDAT ?GetCityNames@CvDllMinorCivInfo@@UBGPBDH@Z
_TEXT	SEGMENT
_this$ = 8						; size = 4
_i$ = 12						; size = 4
?GetCityNames@CvDllMinorCivInfo@@UBGPBDH@Z PROC		; CvDllMinorCivInfo::GetCityNames, COMDAT

; 122  : {

	push	ebp
	mov	ebp, esp

; 123  : 	return m_pMinorCivInfo->getCityNames(i).c_str();

	mov	eax, DWORD PTR _i$[ebp]
	push	eax
	mov	ecx, DWORD PTR _this$[ebp]
	mov	ecx, DWORD PTR [ecx+8]
	call	?getCityNames@CvMinorCivInfo@@QBEABV?$basic_string@DU?$char_traits@D@std@@V?$allocator@D@2@@std@@H@Z ; CvMinorCivInfo::getCityNames
	mov	ecx, eax
	call	DWORD PTR __imp_?c_str@?$basic_string@DU?$char_traits@D@std@@V?$allocator@D@2@@std@@QBEPBDXZ

; 124  : }

	pop	ebp
	ret	8
?GetCityNames@CvDllMinorCivInfo@@UBGPBDH@Z ENDP		; CvDllMinorCivInfo::GetCityNames
_TEXT	ENDS
END
