; Listing generated by Microsoft (R) Optimizing Compiler Version 15.00.30729.01 

	TITLE	D:\sources\Lekmod_git\checkout\LEKMOD_DLL\CvGameCoreDLL_Expansion2\CvDllCivilizationInfo.cpp
	.686P
	.XMM
	include listing.inc
	.model	flat

INCLUDELIB MSVCRT
INCLUDELIB OLDNAMES

PUBLIC	??_C@_05OCFELOIJ@1?40?40?$AA@			; `string'
CONST	SEGMENT
_guidICvUnknown DD 0d89ba82fH
	DW	09fa3H
	DW	04696H
	DB	0b3H
	DB	0f4H
	DB	052H
	DB	0bdH
	DB	0b1H
	DB	01H
	DB	0cfH
	DB	0b2H
_guidICvCivilizationInfo1 DD 049c59819H
	DW	0a545H
	DW	04c34H
	DB	093H
	DB	028H
	DB	0caH
	DB	03aH
	DB	0ceH
	DB	0d9H
	DB	032H
	DB	0b8H
CONST	ENDS
_DATA	SEGMENT
_CIV5_XP2_DLL_VERSION DD FLAT:??_C@_05OCFELOIJ@1?40?40?$AA@
_DATA	ENDS
;	COMDAT ??_C@_05OCFELOIJ@1?40?40?$AA@
CONST	SEGMENT
??_C@_05OCFELOIJ@1?40?40?$AA@ DB '1.0.0', 00H		; `string'
CONST	ENDS
PUBLIC	??_7CvDllCivilizationInfo@@6B@			; CvDllCivilizationInfo::`vftable'
PUBLIC	??_7ICvCivilizationInfo1@@6B@			; ICvCivilizationInfo1::`vftable'
PUBLIC	??_7ICvUnknown@@6B@				; ICvUnknown::`vftable'
PUBLIC	??0CvDllCivilizationInfo@@QAE@PAVCvCivilizationInfo@@@Z ; CvDllCivilizationInfo::CvDllCivilizationInfo
PUBLIC	?QueryInterface@CvDllCivilizationInfo@@UAGPAXU_GUID@@@Z ; CvDllCivilizationInfo::QueryInterface
PUBLIC	?Destroy@CvDllCivilizationInfo@@EAGXXZ		; CvDllCivilizationInfo::Destroy
PUBLIC	?GetType@CvDllCivilizationInfo@@UAGPBDXZ	; CvDllCivilizationInfo::GetType
PUBLIC	?GetDescription@CvDllCivilizationInfo@@UAGPBDXZ	; CvDllCivilizationInfo::GetDescription
PUBLIC	?IsAIPlayable@CvDllCivilizationInfo@@UAG_NXZ	; CvDllCivilizationInfo::IsAIPlayable
PUBLIC	?IsPlayable@CvDllCivilizationInfo@@UAG_NXZ	; CvDllCivilizationInfo::IsPlayable
PUBLIC	?GetShortDescription@CvDllCivilizationInfo@@UAGPBDXZ ; CvDllCivilizationInfo::GetShortDescription
PUBLIC	?GetDefaultPlayerColor@CvDllCivilizationInfo@@UAGHXZ ; CvDllCivilizationInfo::GetDefaultPlayerColor
PUBLIC	?GetArtStyleType@CvDllCivilizationInfo@@UAGHXZ	; CvDllCivilizationInfo::GetArtStyleType
PUBLIC	?GetNumCityNames@CvDllCivilizationInfo@@UAGHXZ	; CvDllCivilizationInfo::GetNumCityNames
PUBLIC	?GetArtStylePrefix@CvDllCivilizationInfo@@UAGPBDXZ ; CvDllCivilizationInfo::GetArtStylePrefix
PUBLIC	?GetArtStyleSuffix@CvDllCivilizationInfo@@UAGPBDXZ ; CvDllCivilizationInfo::GetArtStyleSuffix
PUBLIC	?GetDawnOfManAudio@CvDllCivilizationInfo@@UAGPBDXZ ; CvDllCivilizationInfo::GetDawnOfManAudio
PUBLIC	?GetCivilizationBuildings@CvDllCivilizationInfo@@UAGHH@Z ; CvDllCivilizationInfo::GetCivilizationBuildings
PUBLIC	?IsLeaders@CvDllCivilizationInfo@@UAG_NH@Z	; CvDllCivilizationInfo::IsLeaders
PUBLIC	?GetCityNames@CvDllCivilizationInfo@@UAGPBDH@Z	; CvDllCivilizationInfo::GetCityNames
PUBLIC	?GetSoundtrackKey@CvDllCivilizationInfo@@UAGPBDXZ ; CvDllCivilizationInfo::GetSoundtrackKey
EXTRN	__purecall:PROC
;	COMDAT ??_7CvDllCivilizationInfo@@6B@
; File d:\sources\lekmod_git\checkout\lekmod_dll\cvgamecoredll_expansion2\cvdllcivilizationinfo.cpp
CONST	SEGMENT
??_7CvDllCivilizationInfo@@6B@ DD FLAT:?QueryInterface@CvDllCivilizationInfo@@UAGPAXU_GUID@@@Z ; CvDllCivilizationInfo::`vftable'
	DD	FLAT:?Destroy@CvDllCivilizationInfo@@EAGXXZ
	DD	FLAT:?GetType@CvDllCivilizationInfo@@UAGPBDXZ
	DD	FLAT:?GetDescription@CvDllCivilizationInfo@@UAGPBDXZ
	DD	FLAT:?IsAIPlayable@CvDllCivilizationInfo@@UAG_NXZ
	DD	FLAT:?IsPlayable@CvDllCivilizationInfo@@UAG_NXZ
	DD	FLAT:?GetShortDescription@CvDllCivilizationInfo@@UAGPBDXZ
	DD	FLAT:?GetDefaultPlayerColor@CvDllCivilizationInfo@@UAGHXZ
	DD	FLAT:?GetArtStyleType@CvDllCivilizationInfo@@UAGHXZ
	DD	FLAT:?GetNumCityNames@CvDllCivilizationInfo@@UAGHXZ
	DD	FLAT:?GetArtStylePrefix@CvDllCivilizationInfo@@UAGPBDXZ
	DD	FLAT:?GetArtStyleSuffix@CvDllCivilizationInfo@@UAGPBDXZ
	DD	FLAT:?GetDawnOfManAudio@CvDllCivilizationInfo@@UAGPBDXZ
	DD	FLAT:?GetCivilizationBuildings@CvDllCivilizationInfo@@UAGHH@Z
	DD	FLAT:?IsLeaders@CvDllCivilizationInfo@@UAG_NH@Z
	DD	FLAT:?GetCityNames@CvDllCivilizationInfo@@UAGPBDH@Z
	DD	FLAT:?GetSoundtrackKey@CvDllCivilizationInfo@@UAGPBDXZ
CONST	ENDS
;	COMDAT ??_7ICvCivilizationInfo1@@6B@
CONST	SEGMENT
??_7ICvCivilizationInfo1@@6B@ DD FLAT:__purecall	; ICvCivilizationInfo1::`vftable'
	DD	FLAT:__purecall
	DD	FLAT:__purecall
	DD	FLAT:__purecall
	DD	FLAT:__purecall
	DD	FLAT:__purecall
	DD	FLAT:__purecall
	DD	FLAT:__purecall
	DD	FLAT:__purecall
	DD	FLAT:__purecall
	DD	FLAT:__purecall
	DD	FLAT:__purecall
	DD	FLAT:__purecall
	DD	FLAT:__purecall
	DD	FLAT:__purecall
	DD	FLAT:__purecall
	DD	FLAT:__purecall
CONST	ENDS
;	COMDAT ??_7ICvUnknown@@6B@
CONST	SEGMENT
??_7ICvUnknown@@6B@ DD FLAT:__purecall			; ICvUnknown::`vftable'
	DD	FLAT:__purecall
; Function compile flags: /Odtp
CONST	ENDS
;	COMDAT ??0CvDllCivilizationInfo@@QAE@PAVCvCivilizationInfo@@@Z
_TEXT	SEGMENT
_this$ = -4						; size = 4
_pCivilizationInfo$ = 8					; size = 4
??0CvDllCivilizationInfo@@QAE@PAVCvCivilizationInfo@@@Z PROC ; CvDllCivilizationInfo::CvDllCivilizationInfo, COMDAT
; _this$ = ecx

; 19   : {

	push	ebp
	mov	ebp, esp
	push	ecx
	mov	DWORD PTR _this$[ebp], ecx
	mov	eax, DWORD PTR _this$[ebp]
	mov	DWORD PTR [eax], OFFSET ??_7ICvUnknown@@6B@
	mov	ecx, DWORD PTR _this$[ebp]
	mov	DWORD PTR [ecx], OFFSET ??_7ICvCivilizationInfo1@@6B@
	mov	edx, DWORD PTR _this$[ebp]
	mov	DWORD PTR [edx], OFFSET ??_7CvDllCivilizationInfo@@6B@
	mov	eax, DWORD PTR _this$[ebp]
	mov	DWORD PTR [eax+4], 1
	mov	ecx, DWORD PTR _this$[ebp]
	mov	edx, DWORD PTR _pCivilizationInfo$[ebp]
	mov	DWORD PTR [ecx+8], edx

; 20   : 	FAssertMsg(pCivilizationInfo != NULL, "SHOULD NOT HAPPEN");
; 21   : }

	mov	eax, DWORD PTR _this$[ebp]
	mov	esp, ebp
	pop	ebp
	ret	4
??0CvDllCivilizationInfo@@QAE@PAVCvCivilizationInfo@@@Z ENDP ; CvDllCivilizationInfo::CvDllCivilizationInfo
_TEXT	ENDS
PUBLIC	??1CvDllCivilizationInfo@@QAE@XZ		; CvDllCivilizationInfo::~CvDllCivilizationInfo
; Function compile flags: /Odtp
;	COMDAT ??1CvDllCivilizationInfo@@QAE@XZ
_TEXT	SEGMENT
_this$ = -4						; size = 4
??1CvDllCivilizationInfo@@QAE@XZ PROC			; CvDllCivilizationInfo::~CvDllCivilizationInfo, COMDAT
; _this$ = ecx

; 24   : {

	push	ebp
	mov	ebp, esp
	push	ecx
	mov	DWORD PTR _this$[ebp], ecx
	mov	eax, DWORD PTR _this$[ebp]
	mov	DWORD PTR [eax], OFFSET ??_7CvDllCivilizationInfo@@6B@

; 25   : }

	mov	esp, ebp
	pop	ebp
	ret	0
??1CvDllCivilizationInfo@@QAE@XZ ENDP			; CvDllCivilizationInfo::~CvDllCivilizationInfo
_TEXT	ENDS
PUBLIC	?IncrementReference@CvDllCivilizationInfo@@QAEIXZ ; CvDllCivilizationInfo::IncrementReference
; Function compile flags: /Odtp
;	COMDAT ?QueryInterface@CvDllCivilizationInfo@@UAGPAXU_GUID@@@Z
_TEXT	SEGMENT
tv90 = -88						; size = 4
tv161 = -84						; size = 4
tv85 = -80						; size = 4
tv137 = -76						; size = 4
$T218033 = -72						; size = 16
$T218032 = -56						; size = 16
$T218031 = -40						; size = 16
$T218030 = -20						; size = 16
_this$ = 8						; size = 4
_guidInterface$ = 12					; size = 16
?QueryInterface@CvDllCivilizationInfo@@UAGPAXU_GUID@@@Z PROC ; CvDllCivilizationInfo::QueryInterface, COMDAT

; 28   : {

	push	ebp
	mov	ebp, esp
	sub	esp, 88					; 00000058H
	push	esi
	push	edi

; 29   : 	if(guidInterface == ICvUnknown::GetInterfaceId() ||
; 30   : 	        guidInterface == ICvCivilizationInfo1::GetInterfaceId())

	mov	eax, DWORD PTR _guidICvUnknown
	mov	DWORD PTR $T218031[ebp], eax
	mov	ecx, DWORD PTR _guidICvUnknown+4
	mov	DWORD PTR $T218031[ebp+4], ecx
	mov	edx, DWORD PTR _guidICvUnknown+8
	mov	DWORD PTR $T218031[ebp+8], edx
	mov	eax, DWORD PTR _guidICvUnknown+12
	mov	DWORD PTR $T218031[ebp+12], eax
	mov	ecx, DWORD PTR $T218031[ebp]
	mov	DWORD PTR $T218030[ebp], ecx
	mov	edx, DWORD PTR $T218031[ebp+4]
	mov	DWORD PTR $T218030[ebp+4], edx
	mov	eax, DWORD PTR $T218031[ebp+8]
	mov	DWORD PTR $T218030[ebp+8], eax
	mov	ecx, DWORD PTR $T218031[ebp+12]
	mov	DWORD PTR $T218030[ebp+12], ecx
	mov	ecx, 16					; 00000010H
	lea	edi, DWORD PTR $T218030[ebp]
	lea	esi, DWORD PTR _guidInterface$[ebp]
	xor	edx, edx
	mov	DWORD PTR tv137[ebp], edx
	repe cmpsb
	je	SHORT $LN17@QueryInter
	sbb	eax, eax
	sbb	eax, -1
	mov	DWORD PTR tv137[ebp], eax
$LN17@QueryInter:
	mov	ecx, DWORD PTR tv137[ebp]
	mov	DWORD PTR tv85[ebp], ecx
	xor	edx, edx
	cmp	DWORD PTR tv85[ebp], 0
	sete	dl
	test	edx, edx
	jne	SHORT $LN1@QueryInter
	mov	eax, DWORD PTR _guidICvCivilizationInfo1
	mov	DWORD PTR $T218033[ebp], eax
	mov	ecx, DWORD PTR _guidICvCivilizationInfo1+4
	mov	DWORD PTR $T218033[ebp+4], ecx
	mov	edx, DWORD PTR _guidICvCivilizationInfo1+8
	mov	DWORD PTR $T218033[ebp+8], edx
	mov	eax, DWORD PTR _guidICvCivilizationInfo1+12
	mov	DWORD PTR $T218033[ebp+12], eax
	mov	ecx, DWORD PTR $T218033[ebp]
	mov	DWORD PTR $T218032[ebp], ecx
	mov	edx, DWORD PTR $T218033[ebp+4]
	mov	DWORD PTR $T218032[ebp+4], edx
	mov	eax, DWORD PTR $T218033[ebp+8]
	mov	DWORD PTR $T218032[ebp+8], eax
	mov	ecx, DWORD PTR $T218033[ebp+12]
	mov	DWORD PTR $T218032[ebp+12], ecx
	mov	ecx, 16					; 00000010H
	lea	edi, DWORD PTR $T218032[ebp]
	lea	esi, DWORD PTR _guidInterface$[ebp]
	xor	edx, edx
	mov	DWORD PTR tv161[ebp], edx
	repe cmpsb
	je	SHORT $LN18@QueryInter
	sbb	eax, eax
	sbb	eax, -1
	mov	DWORD PTR tv161[ebp], eax
$LN18@QueryInter:
	mov	ecx, DWORD PTR tv161[ebp]
	mov	DWORD PTR tv90[ebp], ecx
	xor	edx, edx
	cmp	DWORD PTR tv90[ebp], 0
	sete	dl
	test	edx, edx
	je	SHORT $LN2@QueryInter
$LN1@QueryInter:

; 31   : 	{
; 32   : 		IncrementReference();

	mov	ecx, DWORD PTR _this$[ebp]
	call	?IncrementReference@CvDllCivilizationInfo@@QAEIXZ ; CvDllCivilizationInfo::IncrementReference

; 33   : 		return this;

	mov	eax, DWORD PTR _this$[ebp]
	jmp	SHORT $LN3@QueryInter
$LN2@QueryInter:

; 34   : 	}
; 35   : 
; 36   : 	return NULL;

	xor	eax, eax
$LN3@QueryInter:

; 37   : }

	pop	edi
	pop	esi
	mov	esp, ebp
	pop	ebp
	ret	20					; 00000014H
?QueryInterface@CvDllCivilizationInfo@@UAGPAXU_GUID@@@Z ENDP ; CvDllCivilizationInfo::QueryInterface
; Function compile flags: /Odtp
_TEXT	ENDS
;	COMDAT ?IncrementReference@CvDllCivilizationInfo@@QAEIXZ
_TEXT	SEGMENT
_this$ = -4						; size = 4
?IncrementReference@CvDllCivilizationInfo@@QAEIXZ PROC	; CvDllCivilizationInfo::IncrementReference, COMDAT
; _this$ = ecx

; 40   : {

	push	ebp
	mov	ebp, esp
	push	ecx
	mov	DWORD PTR _this$[ebp], ecx

; 41   : 	++m_uiRefCount;

	mov	eax, DWORD PTR _this$[ebp]
	mov	ecx, DWORD PTR [eax+4]
	add	ecx, 1
	mov	edx, DWORD PTR _this$[ebp]
	mov	DWORD PTR [edx+4], ecx

; 42   : 	return m_uiRefCount;

	mov	eax, DWORD PTR _this$[ebp]
	mov	eax, DWORD PTR [eax+4]

; 43   : }

	mov	esp, ebp
	pop	ebp
	ret	0
?IncrementReference@CvDllCivilizationInfo@@QAEIXZ ENDP	; CvDllCivilizationInfo::IncrementReference
_TEXT	ENDS
PUBLIC	??3CvDllCivilizationInfo@@SAXPAX@Z		; CvDllCivilizationInfo::operator delete
PUBLIC	?DecrementReference@CvDllCivilizationInfo@@QAEIXZ ; CvDllCivilizationInfo::DecrementReference
; Function compile flags: /Odtp
;	COMDAT ?DecrementReference@CvDllCivilizationInfo@@QAEIXZ
_TEXT	SEGMENT
tv70 = -16						; size = 4
_this$ = -12						; size = 4
$T218065 = -8						; size = 4
$T218064 = -4						; size = 4
?DecrementReference@CvDllCivilizationInfo@@QAEIXZ PROC	; CvDllCivilizationInfo::DecrementReference, COMDAT
; _this$ = ecx

; 46   : {

	push	ebp
	mov	ebp, esp
	sub	esp, 16					; 00000010H
	mov	DWORD PTR _this$[ebp], ecx

; 47   : 	if(m_uiRefCount == 1)

	mov	eax, DWORD PTR _this$[ebp]
	cmp	DWORD PTR [eax+4], 1
	jne	SHORT $LN2@DecrementR

; 48   : 	{
; 49   : 		delete this;

	mov	ecx, DWORD PTR _this$[ebp]
	mov	DWORD PTR $T218065[ebp], ecx
	mov	edx, DWORD PTR $T218065[ebp]
	mov	DWORD PTR $T218064[ebp], edx
	cmp	DWORD PTR $T218064[ebp], 0
	je	SHORT $LN5@DecrementR
	mov	ecx, DWORD PTR $T218064[ebp]
	call	??1CvDllCivilizationInfo@@QAE@XZ	; CvDllCivilizationInfo::~CvDllCivilizationInfo
	mov	eax, 1
	and	eax, 1
	je	SHORT $LN8@DecrementR
	mov	ecx, DWORD PTR $T218064[ebp]
	push	ecx
	call	??3CvDllCivilizationInfo@@SAXPAX@Z	; CvDllCivilizationInfo::operator delete
	add	esp, 4
$LN8@DecrementR:
	mov	edx, DWORD PTR $T218064[ebp]
	mov	DWORD PTR tv70[ebp], edx
	jmp	SHORT $LN6@DecrementR
$LN5@DecrementR:
	mov	DWORD PTR tv70[ebp], 0
$LN6@DecrementR:

; 50   : 		return 0;

	xor	eax, eax
	jmp	SHORT $LN3@DecrementR

; 51   : 	}
; 52   : 	else

	jmp	SHORT $LN3@DecrementR
$LN2@DecrementR:

; 53   : 	{
; 54   : 		--m_uiRefCount;

	mov	eax, DWORD PTR _this$[ebp]
	mov	ecx, DWORD PTR [eax+4]
	sub	ecx, 1
	mov	edx, DWORD PTR _this$[ebp]
	mov	DWORD PTR [edx+4], ecx

; 55   : 		return m_uiRefCount;

	mov	eax, DWORD PTR _this$[ebp]
	mov	eax, DWORD PTR [eax+4]
$LN3@DecrementR:

; 56   : 	}
; 57   : }

	mov	esp, ebp
	pop	ebp
	ret	0
?DecrementReference@CvDllCivilizationInfo@@QAEIXZ ENDP	; CvDllCivilizationInfo::DecrementReference
_TEXT	ENDS
PUBLIC	?GetReferenceCount@CvDllCivilizationInfo@@QAEIXZ ; CvDllCivilizationInfo::GetReferenceCount
; Function compile flags: /Odtp
;	COMDAT ?GetReferenceCount@CvDllCivilizationInfo@@QAEIXZ
_TEXT	SEGMENT
_this$ = -4						; size = 4
?GetReferenceCount@CvDllCivilizationInfo@@QAEIXZ PROC	; CvDllCivilizationInfo::GetReferenceCount, COMDAT
; _this$ = ecx

; 60   : {

	push	ebp
	mov	ebp, esp
	push	ecx
	mov	DWORD PTR _this$[ebp], ecx

; 61   : 	return m_uiRefCount;

	mov	eax, DWORD PTR _this$[ebp]
	mov	eax, DWORD PTR [eax+4]

; 62   : }

	mov	esp, ebp
	pop	ebp
	ret	0
?GetReferenceCount@CvDllCivilizationInfo@@QAEIXZ ENDP	; CvDllCivilizationInfo::GetReferenceCount
; Function compile flags: /Odtp
_TEXT	ENDS
;	COMDAT ?Destroy@CvDllCivilizationInfo@@EAGXXZ
_TEXT	SEGMENT
_this$ = 8						; size = 4
?Destroy@CvDllCivilizationInfo@@EAGXXZ PROC		; CvDllCivilizationInfo::Destroy, COMDAT

; 65   : {

	push	ebp
	mov	ebp, esp

; 66   : 	DecrementReference();

	mov	ecx, DWORD PTR _this$[ebp]
	call	?DecrementReference@CvDllCivilizationInfo@@QAEIXZ ; CvDllCivilizationInfo::DecrementReference

; 67   : }

	pop	ebp
	ret	4
?Destroy@CvDllCivilizationInfo@@EAGXXZ ENDP		; CvDllCivilizationInfo::Destroy
_TEXT	ENDS
EXTRN	?Free@CvDllGameContext@@SAXPAX@Z:PROC		; CvDllGameContext::Free
; Function compile flags: /Odtp
;	COMDAT ??3CvDllCivilizationInfo@@SAXPAX@Z
_TEXT	SEGMENT
_p$ = 8							; size = 4
??3CvDllCivilizationInfo@@SAXPAX@Z PROC			; CvDllCivilizationInfo::operator delete, COMDAT

; 70   : {

	push	ebp
	mov	ebp, esp

; 71   : 	CvDllGameContext::Free(p);

	mov	eax, DWORD PTR _p$[ebp]
	push	eax
	call	?Free@CvDllGameContext@@SAXPAX@Z	; CvDllGameContext::Free
	add	esp, 4

; 72   : }

	pop	ebp
	ret	0
??3CvDllCivilizationInfo@@SAXPAX@Z ENDP			; CvDllCivilizationInfo::operator delete
_TEXT	ENDS
PUBLIC	??2CvDllCivilizationInfo@@SAPAXI@Z		; CvDllCivilizationInfo::operator new
EXTRN	?Allocate@CvDllGameContext@@SAPAXI@Z:PROC	; CvDllGameContext::Allocate
; Function compile flags: /Odtp
;	COMDAT ??2CvDllCivilizationInfo@@SAPAXI@Z
_TEXT	SEGMENT
_bytes$ = 8						; size = 4
??2CvDllCivilizationInfo@@SAPAXI@Z PROC			; CvDllCivilizationInfo::operator new, COMDAT

; 75   : {

	push	ebp
	mov	ebp, esp

; 76   : 	return CvDllGameContext::Allocate(bytes);

	mov	eax, DWORD PTR _bytes$[ebp]
	push	eax
	call	?Allocate@CvDllGameContext@@SAPAXI@Z	; CvDllGameContext::Allocate
	add	esp, 4

; 77   : }

	pop	ebp
	ret	0
??2CvDllCivilizationInfo@@SAPAXI@Z ENDP			; CvDllCivilizationInfo::operator new
_TEXT	ENDS
PUBLIC	?GetInstance@CvDllCivilizationInfo@@QAEPAVCvCivilizationInfo@@XZ ; CvDllCivilizationInfo::GetInstance
; Function compile flags: /Odtp
;	COMDAT ?GetInstance@CvDllCivilizationInfo@@QAEPAVCvCivilizationInfo@@XZ
_TEXT	SEGMENT
_this$ = -4						; size = 4
?GetInstance@CvDllCivilizationInfo@@QAEPAVCvCivilizationInfo@@XZ PROC ; CvDllCivilizationInfo::GetInstance, COMDAT
; _this$ = ecx

; 80   : {

	push	ebp
	mov	ebp, esp
	push	ecx
	mov	DWORD PTR _this$[ebp], ecx

; 81   : 	return m_pCivilizationInfo;

	mov	eax, DWORD PTR _this$[ebp]
	mov	eax, DWORD PTR [eax+8]

; 82   : }

	mov	esp, ebp
	pop	ebp
	ret	0
?GetInstance@CvDllCivilizationInfo@@QAEPAVCvCivilizationInfo@@XZ ENDP ; CvDllCivilizationInfo::GetInstance
_TEXT	ENDS
EXTRN	__imp_?c_str@?$basic_string@DU?$char_traits@D@std@@V?$allocator@D@2@@std@@QBEPBDXZ:PROC
; Function compile flags: /Odtp
;	COMDAT ?GetType@CvDllCivilizationInfo@@UAGPBDXZ
_TEXT	SEGMENT
$T218087 = -4						; size = 4
_this$ = 8						; size = 4
?GetType@CvDllCivilizationInfo@@UAGPBDXZ PROC		; CvDllCivilizationInfo::GetType, COMDAT

; 85   : {

	push	ebp
	mov	ebp, esp
	push	ecx

; 86   : 	return m_pCivilizationInfo->GetType();

	mov	eax, DWORD PTR _this$[ebp]
	mov	ecx, DWORD PTR [eax+8]
	mov	DWORD PTR $T218087[ebp], ecx
	mov	ecx, DWORD PTR $T218087[ebp]
	add	ecx, 176				; 000000b0H
	call	DWORD PTR __imp_?c_str@?$basic_string@DU?$char_traits@D@std@@V?$allocator@D@2@@std@@QBEPBDXZ

; 87   : }

	mov	esp, ebp
	pop	ebp
	ret	4
?GetType@CvDllCivilizationInfo@@UAGPBDXZ ENDP		; CvDllCivilizationInfo::GetType
; Function compile flags: /Odtp
_TEXT	ENDS
;	COMDAT ?GetDescription@CvDllCivilizationInfo@@UAGPBDXZ
_TEXT	SEGMENT
$T218093 = -4						; size = 4
_this$ = 8						; size = 4
?GetDescription@CvDllCivilizationInfo@@UAGPBDXZ PROC	; CvDllCivilizationInfo::GetDescription, COMDAT

; 90   : {

	push	ebp
	mov	ebp, esp
	push	ecx

; 91   : 	return m_pCivilizationInfo->GetDescription();

	mov	eax, DWORD PTR _this$[ebp]
	mov	ecx, DWORD PTR [eax+8]
	mov	DWORD PTR $T218093[ebp], ecx
	mov	ecx, DWORD PTR $T218093[ebp]
	add	ecx, 36					; 00000024H
	call	DWORD PTR __imp_?c_str@?$basic_string@DU?$char_traits@D@std@@V?$allocator@D@2@@std@@QBEPBDXZ

; 92   : }

	mov	esp, ebp
	pop	ebp
	ret	4
?GetDescription@CvDllCivilizationInfo@@UAGPBDXZ ENDP	; CvDllCivilizationInfo::GetDescription
_TEXT	ENDS
EXTRN	?isAIPlayable@CvCivilizationBaseInfo@@QBE_NXZ:PROC ; CvCivilizationBaseInfo::isAIPlayable
; Function compile flags: /Odtp
;	COMDAT ?IsAIPlayable@CvDllCivilizationInfo@@UAG_NXZ
_TEXT	SEGMENT
_this$ = 8						; size = 4
?IsAIPlayable@CvDllCivilizationInfo@@UAG_NXZ PROC	; CvDllCivilizationInfo::IsAIPlayable, COMDAT

; 95   : {

	push	ebp
	mov	ebp, esp

; 96   : 	return m_pCivilizationInfo->isAIPlayable();

	mov	eax, DWORD PTR _this$[ebp]
	mov	ecx, DWORD PTR [eax+8]
	call	?isAIPlayable@CvCivilizationBaseInfo@@QBE_NXZ ; CvCivilizationBaseInfo::isAIPlayable

; 97   : }

	pop	ebp
	ret	4
?IsAIPlayable@CvDllCivilizationInfo@@UAG_NXZ ENDP	; CvDllCivilizationInfo::IsAIPlayable
_TEXT	ENDS
EXTRN	?isPlayable@CvCivilizationBaseInfo@@QBE_NXZ:PROC ; CvCivilizationBaseInfo::isPlayable
; Function compile flags: /Odtp
;	COMDAT ?IsPlayable@CvDllCivilizationInfo@@UAG_NXZ
_TEXT	SEGMENT
_this$ = 8						; size = 4
?IsPlayable@CvDllCivilizationInfo@@UAG_NXZ PROC		; CvDllCivilizationInfo::IsPlayable, COMDAT

; 100  : {

	push	ebp
	mov	ebp, esp

; 101  : 	return m_pCivilizationInfo->isPlayable();

	mov	eax, DWORD PTR _this$[ebp]
	mov	ecx, DWORD PTR [eax+8]
	call	?isPlayable@CvCivilizationBaseInfo@@QBE_NXZ ; CvCivilizationBaseInfo::isPlayable

; 102  : }

	pop	ebp
	ret	4
?IsPlayable@CvDllCivilizationInfo@@UAG_NXZ ENDP		; CvDllCivilizationInfo::IsPlayable
_TEXT	ENDS
EXTRN	?getShortDescription@CvCivilizationBaseInfo@@QBEPBDXZ:PROC ; CvCivilizationBaseInfo::getShortDescription
; Function compile flags: /Odtp
;	COMDAT ?GetShortDescription@CvDllCivilizationInfo@@UAGPBDXZ
_TEXT	SEGMENT
_this$ = 8						; size = 4
?GetShortDescription@CvDllCivilizationInfo@@UAGPBDXZ PROC ; CvDllCivilizationInfo::GetShortDescription, COMDAT

; 105  : {

	push	ebp
	mov	ebp, esp

; 106  : 	return m_pCivilizationInfo->getShortDescription();

	mov	eax, DWORD PTR _this$[ebp]
	mov	ecx, DWORD PTR [eax+8]
	call	?getShortDescription@CvCivilizationBaseInfo@@QBEPBDXZ ; CvCivilizationBaseInfo::getShortDescription

; 107  : }

	pop	ebp
	ret	4
?GetShortDescription@CvDllCivilizationInfo@@UAGPBDXZ ENDP ; CvDllCivilizationInfo::GetShortDescription
_TEXT	ENDS
EXTRN	?getDefaultPlayerColor@CvCivilizationInfo@@QBEHXZ:PROC ; CvCivilizationInfo::getDefaultPlayerColor
; Function compile flags: /Odtp
;	COMDAT ?GetDefaultPlayerColor@CvDllCivilizationInfo@@UAGHXZ
_TEXT	SEGMENT
_this$ = 8						; size = 4
?GetDefaultPlayerColor@CvDllCivilizationInfo@@UAGHXZ PROC ; CvDllCivilizationInfo::GetDefaultPlayerColor, COMDAT

; 110  : {

	push	ebp
	mov	ebp, esp

; 111  : 	return m_pCivilizationInfo->getDefaultPlayerColor();

	mov	eax, DWORD PTR _this$[ebp]
	mov	ecx, DWORD PTR [eax+8]
	call	?getDefaultPlayerColor@CvCivilizationInfo@@QBEHXZ ; CvCivilizationInfo::getDefaultPlayerColor

; 112  : }

	pop	ebp
	ret	4
?GetDefaultPlayerColor@CvDllCivilizationInfo@@UAGHXZ ENDP ; CvDllCivilizationInfo::GetDefaultPlayerColor
_TEXT	ENDS
EXTRN	?getArtStyleType@CvCivilizationInfo@@QBEHXZ:PROC ; CvCivilizationInfo::getArtStyleType
; Function compile flags: /Odtp
;	COMDAT ?GetArtStyleType@CvDllCivilizationInfo@@UAGHXZ
_TEXT	SEGMENT
_this$ = 8						; size = 4
?GetArtStyleType@CvDllCivilizationInfo@@UAGHXZ PROC	; CvDllCivilizationInfo::GetArtStyleType, COMDAT

; 115  : {

	push	ebp
	mov	ebp, esp

; 116  : 	return m_pCivilizationInfo->getArtStyleType();

	mov	eax, DWORD PTR _this$[ebp]
	mov	ecx, DWORD PTR [eax+8]
	call	?getArtStyleType@CvCivilizationInfo@@QBEHXZ ; CvCivilizationInfo::getArtStyleType

; 117  : }

	pop	ebp
	ret	4
?GetArtStyleType@CvDllCivilizationInfo@@UAGHXZ ENDP	; CvDllCivilizationInfo::GetArtStyleType
_TEXT	ENDS
EXTRN	?getNumCityNames@CvCivilizationInfo@@QBEHXZ:PROC ; CvCivilizationInfo::getNumCityNames
; Function compile flags: /Odtp
;	COMDAT ?GetNumCityNames@CvDllCivilizationInfo@@UAGHXZ
_TEXT	SEGMENT
_this$ = 8						; size = 4
?GetNumCityNames@CvDllCivilizationInfo@@UAGHXZ PROC	; CvDllCivilizationInfo::GetNumCityNames, COMDAT

; 120  : {

	push	ebp
	mov	ebp, esp

; 121  : 	return m_pCivilizationInfo->getNumCityNames();

	mov	eax, DWORD PTR _this$[ebp]
	mov	ecx, DWORD PTR [eax+8]
	call	?getNumCityNames@CvCivilizationInfo@@QBEHXZ ; CvCivilizationInfo::getNumCityNames

; 122  : }

	pop	ebp
	ret	4
?GetNumCityNames@CvDllCivilizationInfo@@UAGHXZ ENDP	; CvDllCivilizationInfo::GetNumCityNames
_TEXT	ENDS
EXTRN	?getArtStylePrefix@CvCivilizationInfo@@QBEPBDXZ:PROC ; CvCivilizationInfo::getArtStylePrefix
; Function compile flags: /Odtp
;	COMDAT ?GetArtStylePrefix@CvDllCivilizationInfo@@UAGPBDXZ
_TEXT	SEGMENT
_this$ = 8						; size = 4
?GetArtStylePrefix@CvDllCivilizationInfo@@UAGPBDXZ PROC	; CvDllCivilizationInfo::GetArtStylePrefix, COMDAT

; 125  : {

	push	ebp
	mov	ebp, esp

; 126  : 	return m_pCivilizationInfo->getArtStylePrefix();

	mov	eax, DWORD PTR _this$[ebp]
	mov	ecx, DWORD PTR [eax+8]
	call	?getArtStylePrefix@CvCivilizationInfo@@QBEPBDXZ ; CvCivilizationInfo::getArtStylePrefix

; 127  : }

	pop	ebp
	ret	4
?GetArtStylePrefix@CvDllCivilizationInfo@@UAGPBDXZ ENDP	; CvDllCivilizationInfo::GetArtStylePrefix
_TEXT	ENDS
EXTRN	?getArtStyleSuffix@CvCivilizationInfo@@QBEPBDXZ:PROC ; CvCivilizationInfo::getArtStyleSuffix
; Function compile flags: /Odtp
;	COMDAT ?GetArtStyleSuffix@CvDllCivilizationInfo@@UAGPBDXZ
_TEXT	SEGMENT
_this$ = 8						; size = 4
?GetArtStyleSuffix@CvDllCivilizationInfo@@UAGPBDXZ PROC	; CvDllCivilizationInfo::GetArtStyleSuffix, COMDAT

; 130  : {

	push	ebp
	mov	ebp, esp

; 131  : 	return m_pCivilizationInfo->getArtStyleSuffix();

	mov	eax, DWORD PTR _this$[ebp]
	mov	ecx, DWORD PTR [eax+8]
	call	?getArtStyleSuffix@CvCivilizationInfo@@QBEPBDXZ ; CvCivilizationInfo::getArtStyleSuffix

; 132  : }

	pop	ebp
	ret	4
?GetArtStyleSuffix@CvDllCivilizationInfo@@UAGPBDXZ ENDP	; CvDllCivilizationInfo::GetArtStyleSuffix
_TEXT	ENDS
EXTRN	?GetDawnOfManAudio@CvCivilizationInfo@@QBEPBDXZ:PROC ; CvCivilizationInfo::GetDawnOfManAudio
; Function compile flags: /Odtp
;	COMDAT ?GetDawnOfManAudio@CvDllCivilizationInfo@@UAGPBDXZ
_TEXT	SEGMENT
_this$ = 8						; size = 4
?GetDawnOfManAudio@CvDllCivilizationInfo@@UAGPBDXZ PROC	; CvDllCivilizationInfo::GetDawnOfManAudio, COMDAT

; 135  : {

	push	ebp
	mov	ebp, esp

; 136  : 	return m_pCivilizationInfo->GetDawnOfManAudio();

	mov	eax, DWORD PTR _this$[ebp]
	mov	ecx, DWORD PTR [eax+8]
	call	?GetDawnOfManAudio@CvCivilizationInfo@@QBEPBDXZ ; CvCivilizationInfo::GetDawnOfManAudio

; 137  : }

	pop	ebp
	ret	4
?GetDawnOfManAudio@CvDllCivilizationInfo@@UAGPBDXZ ENDP	; CvDllCivilizationInfo::GetDawnOfManAudio
_TEXT	ENDS
EXTRN	?getCivilizationBuildings@CvCivilizationInfo@@QBEHH@Z:PROC ; CvCivilizationInfo::getCivilizationBuildings
; Function compile flags: /Odtp
;	COMDAT ?GetCivilizationBuildings@CvDllCivilizationInfo@@UAGHH@Z
_TEXT	SEGMENT
_this$ = 8						; size = 4
_i$ = 12						; size = 4
?GetCivilizationBuildings@CvDllCivilizationInfo@@UAGHH@Z PROC ; CvDllCivilizationInfo::GetCivilizationBuildings, COMDAT

; 140  : {

	push	ebp
	mov	ebp, esp

; 141  : 	return m_pCivilizationInfo->getCivilizationBuildings(i);

	mov	eax, DWORD PTR _i$[ebp]
	push	eax
	mov	ecx, DWORD PTR _this$[ebp]
	mov	ecx, DWORD PTR [ecx+8]
	call	?getCivilizationBuildings@CvCivilizationInfo@@QBEHH@Z ; CvCivilizationInfo::getCivilizationBuildings

; 142  : }

	pop	ebp
	ret	8
?GetCivilizationBuildings@CvDllCivilizationInfo@@UAGHH@Z ENDP ; CvDllCivilizationInfo::GetCivilizationBuildings
_TEXT	ENDS
EXTRN	?isLeaders@CvCivilizationInfo@@QBE_NH@Z:PROC	; CvCivilizationInfo::isLeaders
; Function compile flags: /Odtp
;	COMDAT ?IsLeaders@CvDllCivilizationInfo@@UAG_NH@Z
_TEXT	SEGMENT
_this$ = 8						; size = 4
_i$ = 12						; size = 4
?IsLeaders@CvDllCivilizationInfo@@UAG_NH@Z PROC		; CvDllCivilizationInfo::IsLeaders, COMDAT

; 145  : {

	push	ebp
	mov	ebp, esp

; 146  : 	return m_pCivilizationInfo->isLeaders(i);

	mov	eax, DWORD PTR _i$[ebp]
	push	eax
	mov	ecx, DWORD PTR _this$[ebp]
	mov	ecx, DWORD PTR [ecx+8]
	call	?isLeaders@CvCivilizationInfo@@QBE_NH@Z	; CvCivilizationInfo::isLeaders

; 147  : }

	pop	ebp
	ret	8
?IsLeaders@CvDllCivilizationInfo@@UAG_NH@Z ENDP		; CvDllCivilizationInfo::IsLeaders
_TEXT	ENDS
EXTRN	?getCityNames@CvCivilizationInfo@@QBEPBDH@Z:PROC ; CvCivilizationInfo::getCityNames
; Function compile flags: /Odtp
;	COMDAT ?GetCityNames@CvDllCivilizationInfo@@UAGPBDH@Z
_TEXT	SEGMENT
_this$ = 8						; size = 4
_i$ = 12						; size = 4
?GetCityNames@CvDllCivilizationInfo@@UAGPBDH@Z PROC	; CvDllCivilizationInfo::GetCityNames, COMDAT

; 150  : {

	push	ebp
	mov	ebp, esp

; 151  : 	return m_pCivilizationInfo->getCityNames(i);

	mov	eax, DWORD PTR _i$[ebp]
	push	eax
	mov	ecx, DWORD PTR _this$[ebp]
	mov	ecx, DWORD PTR [ecx+8]
	call	?getCityNames@CvCivilizationInfo@@QBEPBDH@Z ; CvCivilizationInfo::getCityNames

; 152  : }

	pop	ebp
	ret	8
?GetCityNames@CvDllCivilizationInfo@@UAGPBDH@Z ENDP	; CvDllCivilizationInfo::GetCityNames
_TEXT	ENDS
EXTRN	?getSoundtrackKey@CvCivilizationInfo@@QBEPBDXZ:PROC ; CvCivilizationInfo::getSoundtrackKey
; Function compile flags: /Odtp
;	COMDAT ?GetSoundtrackKey@CvDllCivilizationInfo@@UAGPBDXZ
_TEXT	SEGMENT
_this$ = 8						; size = 4
?GetSoundtrackKey@CvDllCivilizationInfo@@UAGPBDXZ PROC	; CvDllCivilizationInfo::GetSoundtrackKey, COMDAT

; 155  : {

	push	ebp
	mov	ebp, esp

; 156  : 	return m_pCivilizationInfo->getSoundtrackKey();

	mov	eax, DWORD PTR _this$[ebp]
	mov	ecx, DWORD PTR [eax+8]
	call	?getSoundtrackKey@CvCivilizationInfo@@QBEPBDXZ ; CvCivilizationInfo::getSoundtrackKey

; 157  : }

	pop	ebp
	ret	4
?GetSoundtrackKey@CvDllCivilizationInfo@@UAGPBDXZ ENDP	; CvDllCivilizationInfo::GetSoundtrackKey
_TEXT	ENDS
END
