; Listing generated by Microsoft (R) Optimizing Compiler Version 15.00.30729.01 

	TITLE	D:\sources\Lekmod_git\checkout\LEKMOD_DLL\CvGameCoreDLL_Expansion2\CvDllInterfaceModeInfo.cpp
	.686P
	.XMM
	include listing.inc
	.model	flat

INCLUDELIB MSVCRT
INCLUDELIB OLDNAMES

PUBLIC	??_C@_05OCFELOIJ@1?40?40?$AA@			; `string'
CONST	SEGMENT
_guidICvUnknown DD 0d89ba82fH
	DW	09fa3H
	DW	04696H
	DB	0b3H
	DB	0f4H
	DB	052H
	DB	0bdH
	DB	0b1H
	DB	01H
	DB	0cfH
	DB	0b2H
_guidICvUnit1 DD 09f157e04H
	DW	04b2dH
	DW	04797H
	DB	09aH
	DB	0a5H
	DB	013H
	DB	025H
	DB	0deH
	DB	022H
	DB	016H
	DB	07H
CONST	ENDS
_DATA	SEGMENT
_CIV5_XP2_DLL_VERSION DD FLAT:??_C@_05OCFELOIJ@1?40?40?$AA@
_DATA	ENDS
;	COMDAT ??_C@_05OCFELOIJ@1?40?40?$AA@
CONST	SEGMENT
??_C@_05OCFELOIJ@1?40?40?$AA@ DB '1.0.0', 00H		; `string'
CONST	ENDS
PUBLIC	??_7CvDllInterfaceModeInfo@@6B@			; CvDllInterfaceModeInfo::`vftable'
PUBLIC	??_7ICvInterfaceModeInfo1@@6B@			; ICvInterfaceModeInfo1::`vftable'
PUBLIC	??_7ICvUnknown@@6B@				; ICvUnknown::`vftable'
PUBLIC	??0CvDllInterfaceModeInfo@@QAE@PAVCvInterfaceModeInfo@@@Z ; CvDllInterfaceModeInfo::CvDllInterfaceModeInfo
PUBLIC	?QueryInterface@CvDllInterfaceModeInfo@@UAGPAXU_GUID@@@Z ; CvDllInterfaceModeInfo::QueryInterface
PUBLIC	?Destroy@CvDllInterfaceModeInfo@@EAGXXZ		; CvDllInterfaceModeInfo::Destroy
PUBLIC	?GetMissionType@CvDllInterfaceModeInfo@@UAGHXZ	; CvDllInterfaceModeInfo::GetMissionType
EXTRN	__purecall:PROC
;	COMDAT ??_7CvDllInterfaceModeInfo@@6B@
; File d:\sources\lekmod_git\checkout\lekmod_dll\cvgamecoredll_expansion2\cvdllinterfacemodeinfo.cpp
CONST	SEGMENT
??_7CvDllInterfaceModeInfo@@6B@ DD FLAT:?QueryInterface@CvDllInterfaceModeInfo@@UAGPAXU_GUID@@@Z ; CvDllInterfaceModeInfo::`vftable'
	DD	FLAT:?Destroy@CvDllInterfaceModeInfo@@EAGXXZ
	DD	FLAT:?GetMissionType@CvDllInterfaceModeInfo@@UAGHXZ
CONST	ENDS
;	COMDAT ??_7ICvInterfaceModeInfo1@@6B@
CONST	SEGMENT
??_7ICvInterfaceModeInfo1@@6B@ DD FLAT:__purecall	; ICvInterfaceModeInfo1::`vftable'
	DD	FLAT:__purecall
	DD	FLAT:__purecall
CONST	ENDS
;	COMDAT ??_7ICvUnknown@@6B@
CONST	SEGMENT
??_7ICvUnknown@@6B@ DD FLAT:__purecall			; ICvUnknown::`vftable'
	DD	FLAT:__purecall
; Function compile flags: /Odtp
CONST	ENDS
;	COMDAT ??0CvDllInterfaceModeInfo@@QAE@PAVCvInterfaceModeInfo@@@Z
_TEXT	SEGMENT
_this$ = -4						; size = 4
_pInterfaceModeInfo$ = 8				; size = 4
??0CvDllInterfaceModeInfo@@QAE@PAVCvInterfaceModeInfo@@@Z PROC ; CvDllInterfaceModeInfo::CvDllInterfaceModeInfo, COMDAT
; _this$ = ecx

; 19   : {

	push	ebp
	mov	ebp, esp
	push	ecx
	mov	DWORD PTR _this$[ebp], ecx
	mov	eax, DWORD PTR _this$[ebp]
	mov	DWORD PTR [eax], OFFSET ??_7ICvUnknown@@6B@
	mov	ecx, DWORD PTR _this$[ebp]
	mov	DWORD PTR [ecx], OFFSET ??_7ICvInterfaceModeInfo1@@6B@
	mov	edx, DWORD PTR _this$[ebp]
	mov	DWORD PTR [edx], OFFSET ??_7CvDllInterfaceModeInfo@@6B@
	mov	eax, DWORD PTR _this$[ebp]
	mov	DWORD PTR [eax+4], 1
	mov	ecx, DWORD PTR _this$[ebp]
	mov	edx, DWORD PTR _pInterfaceModeInfo$[ebp]
	mov	DWORD PTR [ecx+8], edx

; 20   : 	FAssertMsg(pInterfaceModeInfo != NULL, "SHOULD NOT HAPPEN");
; 21   : }

	mov	eax, DWORD PTR _this$[ebp]
	mov	esp, ebp
	pop	ebp
	ret	4
??0CvDllInterfaceModeInfo@@QAE@PAVCvInterfaceModeInfo@@@Z ENDP ; CvDllInterfaceModeInfo::CvDllInterfaceModeInfo
_TEXT	ENDS
PUBLIC	??1CvDllInterfaceModeInfo@@QAE@XZ		; CvDllInterfaceModeInfo::~CvDllInterfaceModeInfo
; Function compile flags: /Odtp
;	COMDAT ??1CvDllInterfaceModeInfo@@QAE@XZ
_TEXT	SEGMENT
_this$ = -4						; size = 4
??1CvDllInterfaceModeInfo@@QAE@XZ PROC			; CvDllInterfaceModeInfo::~CvDllInterfaceModeInfo, COMDAT
; _this$ = ecx

; 24   : {

	push	ebp
	mov	ebp, esp
	push	ecx
	mov	DWORD PTR _this$[ebp], ecx
	mov	eax, DWORD PTR _this$[ebp]
	mov	DWORD PTR [eax], OFFSET ??_7CvDllInterfaceModeInfo@@6B@

; 25   : }

	mov	esp, ebp
	pop	ebp
	ret	0
??1CvDllInterfaceModeInfo@@QAE@XZ ENDP			; CvDllInterfaceModeInfo::~CvDllInterfaceModeInfo
_TEXT	ENDS
PUBLIC	?IncrementReference@CvDllInterfaceModeInfo@@QAEIXZ ; CvDllInterfaceModeInfo::IncrementReference
; Function compile flags: /Odtp
;	COMDAT ?QueryInterface@CvDllInterfaceModeInfo@@UAGPAXU_GUID@@@Z
_TEXT	SEGMENT
tv90 = -88						; size = 4
tv161 = -84						; size = 4
tv85 = -80						; size = 4
tv137 = -76						; size = 4
$T217951 = -72						; size = 16
$T217950 = -56						; size = 16
$T217949 = -40						; size = 16
$T217948 = -20						; size = 16
_this$ = 8						; size = 4
_guidInterface$ = 12					; size = 16
?QueryInterface@CvDllInterfaceModeInfo@@UAGPAXU_GUID@@@Z PROC ; CvDllInterfaceModeInfo::QueryInterface, COMDAT

; 28   : {

	push	ebp
	mov	ebp, esp
	sub	esp, 88					; 00000058H
	push	esi
	push	edi

; 29   : 	if(guidInterface == ICvUnknown::GetInterfaceId() ||
; 30   : 	        guidInterface == ICvUnit1::GetInterfaceId())

	mov	eax, DWORD PTR _guidICvUnknown
	mov	DWORD PTR $T217949[ebp], eax
	mov	ecx, DWORD PTR _guidICvUnknown+4
	mov	DWORD PTR $T217949[ebp+4], ecx
	mov	edx, DWORD PTR _guidICvUnknown+8
	mov	DWORD PTR $T217949[ebp+8], edx
	mov	eax, DWORD PTR _guidICvUnknown+12
	mov	DWORD PTR $T217949[ebp+12], eax
	mov	ecx, DWORD PTR $T217949[ebp]
	mov	DWORD PTR $T217948[ebp], ecx
	mov	edx, DWORD PTR $T217949[ebp+4]
	mov	DWORD PTR $T217948[ebp+4], edx
	mov	eax, DWORD PTR $T217949[ebp+8]
	mov	DWORD PTR $T217948[ebp+8], eax
	mov	ecx, DWORD PTR $T217949[ebp+12]
	mov	DWORD PTR $T217948[ebp+12], ecx
	mov	ecx, 16					; 00000010H
	lea	edi, DWORD PTR $T217948[ebp]
	lea	esi, DWORD PTR _guidInterface$[ebp]
	xor	edx, edx
	mov	DWORD PTR tv137[ebp], edx
	repe cmpsb
	je	SHORT $LN17@QueryInter
	sbb	eax, eax
	sbb	eax, -1
	mov	DWORD PTR tv137[ebp], eax
$LN17@QueryInter:
	mov	ecx, DWORD PTR tv137[ebp]
	mov	DWORD PTR tv85[ebp], ecx
	xor	edx, edx
	cmp	DWORD PTR tv85[ebp], 0
	sete	dl
	test	edx, edx
	jne	SHORT $LN1@QueryInter
	mov	eax, DWORD PTR _guidICvUnit1
	mov	DWORD PTR $T217951[ebp], eax
	mov	ecx, DWORD PTR _guidICvUnit1+4
	mov	DWORD PTR $T217951[ebp+4], ecx
	mov	edx, DWORD PTR _guidICvUnit1+8
	mov	DWORD PTR $T217951[ebp+8], edx
	mov	eax, DWORD PTR _guidICvUnit1+12
	mov	DWORD PTR $T217951[ebp+12], eax
	mov	ecx, DWORD PTR $T217951[ebp]
	mov	DWORD PTR $T217950[ebp], ecx
	mov	edx, DWORD PTR $T217951[ebp+4]
	mov	DWORD PTR $T217950[ebp+4], edx
	mov	eax, DWORD PTR $T217951[ebp+8]
	mov	DWORD PTR $T217950[ebp+8], eax
	mov	ecx, DWORD PTR $T217951[ebp+12]
	mov	DWORD PTR $T217950[ebp+12], ecx
	mov	ecx, 16					; 00000010H
	lea	edi, DWORD PTR $T217950[ebp]
	lea	esi, DWORD PTR _guidInterface$[ebp]
	xor	edx, edx
	mov	DWORD PTR tv161[ebp], edx
	repe cmpsb
	je	SHORT $LN18@QueryInter
	sbb	eax, eax
	sbb	eax, -1
	mov	DWORD PTR tv161[ebp], eax
$LN18@QueryInter:
	mov	ecx, DWORD PTR tv161[ebp]
	mov	DWORD PTR tv90[ebp], ecx
	xor	edx, edx
	cmp	DWORD PTR tv90[ebp], 0
	sete	dl
	test	edx, edx
	je	SHORT $LN2@QueryInter
$LN1@QueryInter:

; 31   : 	{
; 32   : 		IncrementReference();

	mov	ecx, DWORD PTR _this$[ebp]
	call	?IncrementReference@CvDllInterfaceModeInfo@@QAEIXZ ; CvDllInterfaceModeInfo::IncrementReference

; 33   : 		return this;

	mov	eax, DWORD PTR _this$[ebp]
	jmp	SHORT $LN3@QueryInter
$LN2@QueryInter:

; 34   : 	}
; 35   : 
; 36   : 	return NULL;

	xor	eax, eax
$LN3@QueryInter:

; 37   : }

	pop	edi
	pop	esi
	mov	esp, ebp
	pop	ebp
	ret	20					; 00000014H
?QueryInterface@CvDllInterfaceModeInfo@@UAGPAXU_GUID@@@Z ENDP ; CvDllInterfaceModeInfo::QueryInterface
; Function compile flags: /Odtp
_TEXT	ENDS
;	COMDAT ?IncrementReference@CvDllInterfaceModeInfo@@QAEIXZ
_TEXT	SEGMENT
_this$ = -4						; size = 4
?IncrementReference@CvDllInterfaceModeInfo@@QAEIXZ PROC	; CvDllInterfaceModeInfo::IncrementReference, COMDAT
; _this$ = ecx

; 40   : {

	push	ebp
	mov	ebp, esp
	push	ecx
	mov	DWORD PTR _this$[ebp], ecx

; 41   : 	++m_uiRefCount;

	mov	eax, DWORD PTR _this$[ebp]
	mov	ecx, DWORD PTR [eax+4]
	add	ecx, 1
	mov	edx, DWORD PTR _this$[ebp]
	mov	DWORD PTR [edx+4], ecx

; 42   : 	return m_uiRefCount;

	mov	eax, DWORD PTR _this$[ebp]
	mov	eax, DWORD PTR [eax+4]

; 43   : }

	mov	esp, ebp
	pop	ebp
	ret	0
?IncrementReference@CvDllInterfaceModeInfo@@QAEIXZ ENDP	; CvDllInterfaceModeInfo::IncrementReference
_TEXT	ENDS
PUBLIC	??3CvDllInterfaceModeInfo@@SAXPAX@Z		; CvDllInterfaceModeInfo::operator delete
PUBLIC	?DecrementReference@CvDllInterfaceModeInfo@@QAEIXZ ; CvDllInterfaceModeInfo::DecrementReference
; Function compile flags: /Odtp
;	COMDAT ?DecrementReference@CvDllInterfaceModeInfo@@QAEIXZ
_TEXT	SEGMENT
tv70 = -16						; size = 4
_this$ = -12						; size = 4
$T217983 = -8						; size = 4
$T217982 = -4						; size = 4
?DecrementReference@CvDllInterfaceModeInfo@@QAEIXZ PROC	; CvDllInterfaceModeInfo::DecrementReference, COMDAT
; _this$ = ecx

; 46   : {

	push	ebp
	mov	ebp, esp
	sub	esp, 16					; 00000010H
	mov	DWORD PTR _this$[ebp], ecx

; 47   : 	if(m_uiRefCount == 1)

	mov	eax, DWORD PTR _this$[ebp]
	cmp	DWORD PTR [eax+4], 1
	jne	SHORT $LN2@DecrementR

; 48   : 	{
; 49   : 		delete this;

	mov	ecx, DWORD PTR _this$[ebp]
	mov	DWORD PTR $T217983[ebp], ecx
	mov	edx, DWORD PTR $T217983[ebp]
	mov	DWORD PTR $T217982[ebp], edx
	cmp	DWORD PTR $T217982[ebp], 0
	je	SHORT $LN5@DecrementR
	mov	ecx, DWORD PTR $T217982[ebp]
	call	??1CvDllInterfaceModeInfo@@QAE@XZ	; CvDllInterfaceModeInfo::~CvDllInterfaceModeInfo
	mov	eax, 1
	and	eax, 1
	je	SHORT $LN8@DecrementR
	mov	ecx, DWORD PTR $T217982[ebp]
	push	ecx
	call	??3CvDllInterfaceModeInfo@@SAXPAX@Z	; CvDllInterfaceModeInfo::operator delete
	add	esp, 4
$LN8@DecrementR:
	mov	edx, DWORD PTR $T217982[ebp]
	mov	DWORD PTR tv70[ebp], edx
	jmp	SHORT $LN6@DecrementR
$LN5@DecrementR:
	mov	DWORD PTR tv70[ebp], 0
$LN6@DecrementR:

; 50   : 		return 0;

	xor	eax, eax
	jmp	SHORT $LN3@DecrementR

; 51   : 	}
; 52   : 	else

	jmp	SHORT $LN3@DecrementR
$LN2@DecrementR:

; 53   : 	{
; 54   : 		--m_uiRefCount;

	mov	eax, DWORD PTR _this$[ebp]
	mov	ecx, DWORD PTR [eax+4]
	sub	ecx, 1
	mov	edx, DWORD PTR _this$[ebp]
	mov	DWORD PTR [edx+4], ecx

; 55   : 		return m_uiRefCount;

	mov	eax, DWORD PTR _this$[ebp]
	mov	eax, DWORD PTR [eax+4]
$LN3@DecrementR:

; 56   : 	}
; 57   : }

	mov	esp, ebp
	pop	ebp
	ret	0
?DecrementReference@CvDllInterfaceModeInfo@@QAEIXZ ENDP	; CvDllInterfaceModeInfo::DecrementReference
_TEXT	ENDS
PUBLIC	?GetReferenceCount@CvDllInterfaceModeInfo@@QAEIXZ ; CvDllInterfaceModeInfo::GetReferenceCount
; Function compile flags: /Odtp
;	COMDAT ?GetReferenceCount@CvDllInterfaceModeInfo@@QAEIXZ
_TEXT	SEGMENT
_this$ = -4						; size = 4
?GetReferenceCount@CvDllInterfaceModeInfo@@QAEIXZ PROC	; CvDllInterfaceModeInfo::GetReferenceCount, COMDAT
; _this$ = ecx

; 60   : {

	push	ebp
	mov	ebp, esp
	push	ecx
	mov	DWORD PTR _this$[ebp], ecx

; 61   : 	return m_uiRefCount;

	mov	eax, DWORD PTR _this$[ebp]
	mov	eax, DWORD PTR [eax+4]

; 62   : }

	mov	esp, ebp
	pop	ebp
	ret	0
?GetReferenceCount@CvDllInterfaceModeInfo@@QAEIXZ ENDP	; CvDllInterfaceModeInfo::GetReferenceCount
; Function compile flags: /Odtp
_TEXT	ENDS
;	COMDAT ?Destroy@CvDllInterfaceModeInfo@@EAGXXZ
_TEXT	SEGMENT
_this$ = 8						; size = 4
?Destroy@CvDllInterfaceModeInfo@@EAGXXZ PROC		; CvDllInterfaceModeInfo::Destroy, COMDAT

; 65   : {

	push	ebp
	mov	ebp, esp

; 66   : 	DecrementReference();

	mov	ecx, DWORD PTR _this$[ebp]
	call	?DecrementReference@CvDllInterfaceModeInfo@@QAEIXZ ; CvDllInterfaceModeInfo::DecrementReference

; 67   : }

	pop	ebp
	ret	4
?Destroy@CvDllInterfaceModeInfo@@EAGXXZ ENDP		; CvDllInterfaceModeInfo::Destroy
_TEXT	ENDS
EXTRN	?Free@CvDllGameContext@@SAXPAX@Z:PROC		; CvDllGameContext::Free
; Function compile flags: /Odtp
;	COMDAT ??3CvDllInterfaceModeInfo@@SAXPAX@Z
_TEXT	SEGMENT
_p$ = 8							; size = 4
??3CvDllInterfaceModeInfo@@SAXPAX@Z PROC		; CvDllInterfaceModeInfo::operator delete, COMDAT

; 70   : {

	push	ebp
	mov	ebp, esp

; 71   : 	CvDllGameContext::Free(p);

	mov	eax, DWORD PTR _p$[ebp]
	push	eax
	call	?Free@CvDllGameContext@@SAXPAX@Z	; CvDllGameContext::Free
	add	esp, 4

; 72   : }

	pop	ebp
	ret	0
??3CvDllInterfaceModeInfo@@SAXPAX@Z ENDP		; CvDllInterfaceModeInfo::operator delete
_TEXT	ENDS
PUBLIC	??2CvDllInterfaceModeInfo@@SAPAXI@Z		; CvDllInterfaceModeInfo::operator new
EXTRN	?Allocate@CvDllGameContext@@SAPAXI@Z:PROC	; CvDllGameContext::Allocate
; Function compile flags: /Odtp
;	COMDAT ??2CvDllInterfaceModeInfo@@SAPAXI@Z
_TEXT	SEGMENT
_bytes$ = 8						; size = 4
??2CvDllInterfaceModeInfo@@SAPAXI@Z PROC		; CvDllInterfaceModeInfo::operator new, COMDAT

; 75   : {

	push	ebp
	mov	ebp, esp

; 76   : 	return CvDllGameContext::Allocate(bytes);

	mov	eax, DWORD PTR _bytes$[ebp]
	push	eax
	call	?Allocate@CvDllGameContext@@SAPAXI@Z	; CvDllGameContext::Allocate
	add	esp, 4

; 77   : }

	pop	ebp
	ret	0
??2CvDllInterfaceModeInfo@@SAPAXI@Z ENDP		; CvDllInterfaceModeInfo::operator new
_TEXT	ENDS
PUBLIC	?GetInstance@CvDllInterfaceModeInfo@@QAEPAVCvInterfaceModeInfo@@XZ ; CvDllInterfaceModeInfo::GetInstance
; Function compile flags: /Odtp
;	COMDAT ?GetInstance@CvDllInterfaceModeInfo@@QAEPAVCvInterfaceModeInfo@@XZ
_TEXT	SEGMENT
_this$ = -4						; size = 4
?GetInstance@CvDllInterfaceModeInfo@@QAEPAVCvInterfaceModeInfo@@XZ PROC ; CvDllInterfaceModeInfo::GetInstance, COMDAT
; _this$ = ecx

; 80   : {

	push	ebp
	mov	ebp, esp
	push	ecx
	mov	DWORD PTR _this$[ebp], ecx

; 81   : 	return m_pInterfaceModeInfo;

	mov	eax, DWORD PTR _this$[ebp]
	mov	eax, DWORD PTR [eax+8]

; 82   : }

	mov	esp, ebp
	pop	ebp
	ret	0
?GetInstance@CvDllInterfaceModeInfo@@QAEPAVCvInterfaceModeInfo@@XZ ENDP ; CvDllInterfaceModeInfo::GetInstance
_TEXT	ENDS
EXTRN	?getMissionType@CvInterfaceModeInfo@@QBEHXZ:PROC ; CvInterfaceModeInfo::getMissionType
; Function compile flags: /Odtp
;	COMDAT ?GetMissionType@CvDllInterfaceModeInfo@@UAGHXZ
_TEXT	SEGMENT
_this$ = 8						; size = 4
?GetMissionType@CvDllInterfaceModeInfo@@UAGHXZ PROC	; CvDllInterfaceModeInfo::GetMissionType, COMDAT

; 85   : {

	push	ebp
	mov	ebp, esp

; 86   : 	return m_pInterfaceModeInfo->getMissionType();

	mov	eax, DWORD PTR _this$[ebp]
	mov	ecx, DWORD PTR [eax+8]
	call	?getMissionType@CvInterfaceModeInfo@@QBEHXZ ; CvInterfaceModeInfo::getMissionType

; 87   : }

	pop	ebp
	ret	4
?GetMissionType@CvDllInterfaceModeInfo@@UAGHXZ ENDP	; CvDllInterfaceModeInfo::GetMissionType
_TEXT	ENDS
END
