; Listing generated by Microsoft (R) Optimizing Compiler Version 15.00.30729.01 

	TITLE	D:\sources\Lekmod_git\checkout\LEKMOD_DLL\CvGameCoreDLL_Expansion2\CvDllTerrainInfo.cpp
	.686P
	.XMM
	include listing.inc
	.model	flat

INCLUDELIB MSVCRT
INCLUDELIB OLDNAMES

PUBLIC	??_C@_05OCFELOIJ@1?40?40?$AA@			; `string'
CONST	SEGMENT
_guidICvUnknown DD 0d89ba82fH
	DW	09fa3H
	DW	04696H
	DB	0b3H
	DB	0f4H
	DB	052H
	DB	0bdH
	DB	0b1H
	DB	01H
	DB	0cfH
	DB	0b2H
_guidICvTerrainInfo1 DD 0ede50abH
	DW	037d4H
	DW	04272H
	DB	0bdH
	DB	0afH
	DB	0bH
	DB	025H
	DB	0e2H
	DB	0a0H
	DB	05fH
	DB	0adH
CONST	ENDS
_DATA	SEGMENT
_CIV5_XP2_DLL_VERSION DD FLAT:??_C@_05OCFELOIJ@1?40?40?$AA@
_DATA	ENDS
;	COMDAT ??_C@_05OCFELOIJ@1?40?40?$AA@
CONST	SEGMENT
??_C@_05OCFELOIJ@1?40?40?$AA@ DB '1.0.0', 00H		; `string'
CONST	ENDS
PUBLIC	??_7CvDllTerrainInfo@@6B@			; CvDllTerrainInfo::`vftable'
PUBLIC	??_7ICvTerrainInfo1@@6B@			; ICvTerrainInfo1::`vftable'
PUBLIC	??_7ICvUnknown@@6B@				; ICvUnknown::`vftable'
PUBLIC	??0CvDllTerrainInfo@@QAE@PAVCvTerrainInfo@@@Z	; CvDllTerrainInfo::CvDllTerrainInfo
PUBLIC	?QueryInterface@CvDllTerrainInfo@@UAGPAXU_GUID@@@Z ; CvDllTerrainInfo::QueryInterface
PUBLIC	?Destroy@CvDllTerrainInfo@@EAGXXZ		; CvDllTerrainInfo::Destroy
PUBLIC	?GetType@CvDllTerrainInfo@@UAGPBDXZ		; CvDllTerrainInfo::GetType
PUBLIC	?GetDescription@CvDllTerrainInfo@@UAGPBDXZ	; CvDllTerrainInfo::GetDescription
PUBLIC	?IsWater@CvDllTerrainInfo@@UAG_NXZ		; CvDllTerrainInfo::IsWater
PUBLIC	?GetArtDefineTag@CvDllTerrainInfo@@UAGPBDXZ	; CvDllTerrainInfo::GetArtDefineTag
PUBLIC	?GetWorldSoundscapeScriptId@CvDllTerrainInfo@@UAGHXZ ; CvDllTerrainInfo::GetWorldSoundscapeScriptId
PUBLIC	?GetEffectTypeTag@CvDllTerrainInfo@@UAGPBDXZ	; CvDllTerrainInfo::GetEffectTypeTag
EXTRN	__purecall:PROC
;	COMDAT ??_7CvDllTerrainInfo@@6B@
; File d:\sources\lekmod_git\checkout\lekmod_dll\cvgamecoredll_expansion2\cvdllterraininfo.cpp
CONST	SEGMENT
??_7CvDllTerrainInfo@@6B@ DD FLAT:?QueryInterface@CvDllTerrainInfo@@UAGPAXU_GUID@@@Z ; CvDllTerrainInfo::`vftable'
	DD	FLAT:?Destroy@CvDllTerrainInfo@@EAGXXZ
	DD	FLAT:?GetType@CvDllTerrainInfo@@UAGPBDXZ
	DD	FLAT:?GetDescription@CvDllTerrainInfo@@UAGPBDXZ
	DD	FLAT:?IsWater@CvDllTerrainInfo@@UAG_NXZ
	DD	FLAT:?GetArtDefineTag@CvDllTerrainInfo@@UAGPBDXZ
	DD	FLAT:?GetWorldSoundscapeScriptId@CvDllTerrainInfo@@UAGHXZ
	DD	FLAT:?GetEffectTypeTag@CvDllTerrainInfo@@UAGPBDXZ
CONST	ENDS
;	COMDAT ??_7ICvTerrainInfo1@@6B@
CONST	SEGMENT
??_7ICvTerrainInfo1@@6B@ DD FLAT:__purecall		; ICvTerrainInfo1::`vftable'
	DD	FLAT:__purecall
	DD	FLAT:__purecall
	DD	FLAT:__purecall
	DD	FLAT:__purecall
	DD	FLAT:__purecall
	DD	FLAT:__purecall
	DD	FLAT:__purecall
CONST	ENDS
;	COMDAT ??_7ICvUnknown@@6B@
CONST	SEGMENT
??_7ICvUnknown@@6B@ DD FLAT:__purecall			; ICvUnknown::`vftable'
	DD	FLAT:__purecall
; Function compile flags: /Odtp
CONST	ENDS
;	COMDAT ??0CvDllTerrainInfo@@QAE@PAVCvTerrainInfo@@@Z
_TEXT	SEGMENT
_this$ = -4						; size = 4
_pTerrainInfo$ = 8					; size = 4
??0CvDllTerrainInfo@@QAE@PAVCvTerrainInfo@@@Z PROC	; CvDllTerrainInfo::CvDllTerrainInfo, COMDAT
; _this$ = ecx

; 19   : {

	push	ebp
	mov	ebp, esp
	push	ecx
	mov	DWORD PTR _this$[ebp], ecx
	mov	eax, DWORD PTR _this$[ebp]
	mov	DWORD PTR [eax], OFFSET ??_7ICvUnknown@@6B@
	mov	ecx, DWORD PTR _this$[ebp]
	mov	DWORD PTR [ecx], OFFSET ??_7ICvTerrainInfo1@@6B@
	mov	edx, DWORD PTR _this$[ebp]
	mov	DWORD PTR [edx], OFFSET ??_7CvDllTerrainInfo@@6B@
	mov	eax, DWORD PTR _this$[ebp]
	mov	DWORD PTR [eax+4], 1
	mov	ecx, DWORD PTR _this$[ebp]
	mov	edx, DWORD PTR _pTerrainInfo$[ebp]
	mov	DWORD PTR [ecx+8], edx

; 20   : 	FAssertMsg(pTerrainInfo != NULL, "SHOULD NOT HAPPEN");
; 21   : }

	mov	eax, DWORD PTR _this$[ebp]
	mov	esp, ebp
	pop	ebp
	ret	4
??0CvDllTerrainInfo@@QAE@PAVCvTerrainInfo@@@Z ENDP	; CvDllTerrainInfo::CvDllTerrainInfo
_TEXT	ENDS
PUBLIC	??1CvDllTerrainInfo@@QAE@XZ			; CvDllTerrainInfo::~CvDllTerrainInfo
; Function compile flags: /Odtp
;	COMDAT ??1CvDllTerrainInfo@@QAE@XZ
_TEXT	SEGMENT
_this$ = -4						; size = 4
??1CvDllTerrainInfo@@QAE@XZ PROC			; CvDllTerrainInfo::~CvDllTerrainInfo, COMDAT
; _this$ = ecx

; 24   : {

	push	ebp
	mov	ebp, esp
	push	ecx
	mov	DWORD PTR _this$[ebp], ecx
	mov	eax, DWORD PTR _this$[ebp]
	mov	DWORD PTR [eax], OFFSET ??_7CvDllTerrainInfo@@6B@

; 25   : }

	mov	esp, ebp
	pop	ebp
	ret	0
??1CvDllTerrainInfo@@QAE@XZ ENDP			; CvDllTerrainInfo::~CvDllTerrainInfo
_TEXT	ENDS
PUBLIC	?IncrementReference@CvDllTerrainInfo@@QAEIXZ	; CvDllTerrainInfo::IncrementReference
; Function compile flags: /Odtp
;	COMDAT ?QueryInterface@CvDllTerrainInfo@@UAGPAXU_GUID@@@Z
_TEXT	SEGMENT
tv90 = -88						; size = 4
tv161 = -84						; size = 4
tv85 = -80						; size = 4
tv137 = -76						; size = 4
$T217982 = -72						; size = 16
$T217981 = -56						; size = 16
$T217980 = -40						; size = 16
$T217979 = -20						; size = 16
_this$ = 8						; size = 4
_guidInterface$ = 12					; size = 16
?QueryInterface@CvDllTerrainInfo@@UAGPAXU_GUID@@@Z PROC	; CvDllTerrainInfo::QueryInterface, COMDAT

; 28   : {

	push	ebp
	mov	ebp, esp
	sub	esp, 88					; 00000058H
	push	esi
	push	edi

; 29   : 	if(guidInterface == ICvUnknown::GetInterfaceId() ||
; 30   : 	        guidInterface == ICvTerrainInfo1::GetInterfaceId())

	mov	eax, DWORD PTR _guidICvUnknown
	mov	DWORD PTR $T217980[ebp], eax
	mov	ecx, DWORD PTR _guidICvUnknown+4
	mov	DWORD PTR $T217980[ebp+4], ecx
	mov	edx, DWORD PTR _guidICvUnknown+8
	mov	DWORD PTR $T217980[ebp+8], edx
	mov	eax, DWORD PTR _guidICvUnknown+12
	mov	DWORD PTR $T217980[ebp+12], eax
	mov	ecx, DWORD PTR $T217980[ebp]
	mov	DWORD PTR $T217979[ebp], ecx
	mov	edx, DWORD PTR $T217980[ebp+4]
	mov	DWORD PTR $T217979[ebp+4], edx
	mov	eax, DWORD PTR $T217980[ebp+8]
	mov	DWORD PTR $T217979[ebp+8], eax
	mov	ecx, DWORD PTR $T217980[ebp+12]
	mov	DWORD PTR $T217979[ebp+12], ecx
	mov	ecx, 16					; 00000010H
	lea	edi, DWORD PTR $T217979[ebp]
	lea	esi, DWORD PTR _guidInterface$[ebp]
	xor	edx, edx
	mov	DWORD PTR tv137[ebp], edx
	repe cmpsb
	je	SHORT $LN17@QueryInter
	sbb	eax, eax
	sbb	eax, -1
	mov	DWORD PTR tv137[ebp], eax
$LN17@QueryInter:
	mov	ecx, DWORD PTR tv137[ebp]
	mov	DWORD PTR tv85[ebp], ecx
	xor	edx, edx
	cmp	DWORD PTR tv85[ebp], 0
	sete	dl
	test	edx, edx
	jne	SHORT $LN1@QueryInter
	mov	eax, DWORD PTR _guidICvTerrainInfo1
	mov	DWORD PTR $T217982[ebp], eax
	mov	ecx, DWORD PTR _guidICvTerrainInfo1+4
	mov	DWORD PTR $T217982[ebp+4], ecx
	mov	edx, DWORD PTR _guidICvTerrainInfo1+8
	mov	DWORD PTR $T217982[ebp+8], edx
	mov	eax, DWORD PTR _guidICvTerrainInfo1+12
	mov	DWORD PTR $T217982[ebp+12], eax
	mov	ecx, DWORD PTR $T217982[ebp]
	mov	DWORD PTR $T217981[ebp], ecx
	mov	edx, DWORD PTR $T217982[ebp+4]
	mov	DWORD PTR $T217981[ebp+4], edx
	mov	eax, DWORD PTR $T217982[ebp+8]
	mov	DWORD PTR $T217981[ebp+8], eax
	mov	ecx, DWORD PTR $T217982[ebp+12]
	mov	DWORD PTR $T217981[ebp+12], ecx
	mov	ecx, 16					; 00000010H
	lea	edi, DWORD PTR $T217981[ebp]
	lea	esi, DWORD PTR _guidInterface$[ebp]
	xor	edx, edx
	mov	DWORD PTR tv161[ebp], edx
	repe cmpsb
	je	SHORT $LN18@QueryInter
	sbb	eax, eax
	sbb	eax, -1
	mov	DWORD PTR tv161[ebp], eax
$LN18@QueryInter:
	mov	ecx, DWORD PTR tv161[ebp]
	mov	DWORD PTR tv90[ebp], ecx
	xor	edx, edx
	cmp	DWORD PTR tv90[ebp], 0
	sete	dl
	test	edx, edx
	je	SHORT $LN2@QueryInter
$LN1@QueryInter:

; 31   : 	{
; 32   : 		IncrementReference();

	mov	ecx, DWORD PTR _this$[ebp]
	call	?IncrementReference@CvDllTerrainInfo@@QAEIXZ ; CvDllTerrainInfo::IncrementReference

; 33   : 		return this;

	mov	eax, DWORD PTR _this$[ebp]
	jmp	SHORT $LN3@QueryInter
$LN2@QueryInter:

; 34   : 	}
; 35   : 
; 36   : 	return NULL;

	xor	eax, eax
$LN3@QueryInter:

; 37   : }

	pop	edi
	pop	esi
	mov	esp, ebp
	pop	ebp
	ret	20					; 00000014H
?QueryInterface@CvDllTerrainInfo@@UAGPAXU_GUID@@@Z ENDP	; CvDllTerrainInfo::QueryInterface
; Function compile flags: /Odtp
_TEXT	ENDS
;	COMDAT ?IncrementReference@CvDllTerrainInfo@@QAEIXZ
_TEXT	SEGMENT
_this$ = -4						; size = 4
?IncrementReference@CvDllTerrainInfo@@QAEIXZ PROC	; CvDllTerrainInfo::IncrementReference, COMDAT
; _this$ = ecx

; 40   : {

	push	ebp
	mov	ebp, esp
	push	ecx
	mov	DWORD PTR _this$[ebp], ecx

; 41   : 	++m_uiRefCount;

	mov	eax, DWORD PTR _this$[ebp]
	mov	ecx, DWORD PTR [eax+4]
	add	ecx, 1
	mov	edx, DWORD PTR _this$[ebp]
	mov	DWORD PTR [edx+4], ecx

; 42   : 	return m_uiRefCount;

	mov	eax, DWORD PTR _this$[ebp]
	mov	eax, DWORD PTR [eax+4]

; 43   : }

	mov	esp, ebp
	pop	ebp
	ret	0
?IncrementReference@CvDllTerrainInfo@@QAEIXZ ENDP	; CvDllTerrainInfo::IncrementReference
_TEXT	ENDS
PUBLIC	??3CvDllTerrainInfo@@SAXPAX@Z			; CvDllTerrainInfo::operator delete
PUBLIC	?DecrementReference@CvDllTerrainInfo@@QAEIXZ	; CvDllTerrainInfo::DecrementReference
; Function compile flags: /Odtp
;	COMDAT ?DecrementReference@CvDllTerrainInfo@@QAEIXZ
_TEXT	SEGMENT
tv70 = -16						; size = 4
_this$ = -12						; size = 4
$T218014 = -8						; size = 4
$T218013 = -4						; size = 4
?DecrementReference@CvDllTerrainInfo@@QAEIXZ PROC	; CvDllTerrainInfo::DecrementReference, COMDAT
; _this$ = ecx

; 46   : {

	push	ebp
	mov	ebp, esp
	sub	esp, 16					; 00000010H
	mov	DWORD PTR _this$[ebp], ecx

; 47   : 	if(m_uiRefCount == 1)

	mov	eax, DWORD PTR _this$[ebp]
	cmp	DWORD PTR [eax+4], 1
	jne	SHORT $LN2@DecrementR

; 48   : 	{
; 49   : 		delete this;

	mov	ecx, DWORD PTR _this$[ebp]
	mov	DWORD PTR $T218014[ebp], ecx
	mov	edx, DWORD PTR $T218014[ebp]
	mov	DWORD PTR $T218013[ebp], edx
	cmp	DWORD PTR $T218013[ebp], 0
	je	SHORT $LN5@DecrementR
	mov	ecx, DWORD PTR $T218013[ebp]
	call	??1CvDllTerrainInfo@@QAE@XZ		; CvDllTerrainInfo::~CvDllTerrainInfo
	mov	eax, 1
	and	eax, 1
	je	SHORT $LN8@DecrementR
	mov	ecx, DWORD PTR $T218013[ebp]
	push	ecx
	call	??3CvDllTerrainInfo@@SAXPAX@Z		; CvDllTerrainInfo::operator delete
	add	esp, 4
$LN8@DecrementR:
	mov	edx, DWORD PTR $T218013[ebp]
	mov	DWORD PTR tv70[ebp], edx
	jmp	SHORT $LN6@DecrementR
$LN5@DecrementR:
	mov	DWORD PTR tv70[ebp], 0
$LN6@DecrementR:

; 50   : 		return 0;

	xor	eax, eax
	jmp	SHORT $LN3@DecrementR

; 51   : 	}
; 52   : 	else

	jmp	SHORT $LN3@DecrementR
$LN2@DecrementR:

; 53   : 	{
; 54   : 		--m_uiRefCount;

	mov	eax, DWORD PTR _this$[ebp]
	mov	ecx, DWORD PTR [eax+4]
	sub	ecx, 1
	mov	edx, DWORD PTR _this$[ebp]
	mov	DWORD PTR [edx+4], ecx

; 55   : 		return m_uiRefCount;

	mov	eax, DWORD PTR _this$[ebp]
	mov	eax, DWORD PTR [eax+4]
$LN3@DecrementR:

; 56   : 	}
; 57   : }

	mov	esp, ebp
	pop	ebp
	ret	0
?DecrementReference@CvDllTerrainInfo@@QAEIXZ ENDP	; CvDllTerrainInfo::DecrementReference
_TEXT	ENDS
PUBLIC	?GetReferenceCount@CvDllTerrainInfo@@QAEIXZ	; CvDllTerrainInfo::GetReferenceCount
; Function compile flags: /Odtp
;	COMDAT ?GetReferenceCount@CvDllTerrainInfo@@QAEIXZ
_TEXT	SEGMENT
_this$ = -4						; size = 4
?GetReferenceCount@CvDllTerrainInfo@@QAEIXZ PROC	; CvDllTerrainInfo::GetReferenceCount, COMDAT
; _this$ = ecx

; 60   : {

	push	ebp
	mov	ebp, esp
	push	ecx
	mov	DWORD PTR _this$[ebp], ecx

; 61   : 	return m_uiRefCount;

	mov	eax, DWORD PTR _this$[ebp]
	mov	eax, DWORD PTR [eax+4]

; 62   : }

	mov	esp, ebp
	pop	ebp
	ret	0
?GetReferenceCount@CvDllTerrainInfo@@QAEIXZ ENDP	; CvDllTerrainInfo::GetReferenceCount
; Function compile flags: /Odtp
_TEXT	ENDS
;	COMDAT ?Destroy@CvDllTerrainInfo@@EAGXXZ
_TEXT	SEGMENT
_this$ = 8						; size = 4
?Destroy@CvDllTerrainInfo@@EAGXXZ PROC			; CvDllTerrainInfo::Destroy, COMDAT

; 65   : {

	push	ebp
	mov	ebp, esp

; 66   : 	DecrementReference();

	mov	ecx, DWORD PTR _this$[ebp]
	call	?DecrementReference@CvDllTerrainInfo@@QAEIXZ ; CvDllTerrainInfo::DecrementReference

; 67   : }

	pop	ebp
	ret	4
?Destroy@CvDllTerrainInfo@@EAGXXZ ENDP			; CvDllTerrainInfo::Destroy
_TEXT	ENDS
EXTRN	?Free@CvDllGameContext@@SAXPAX@Z:PROC		; CvDllGameContext::Free
; Function compile flags: /Odtp
;	COMDAT ??3CvDllTerrainInfo@@SAXPAX@Z
_TEXT	SEGMENT
_p$ = 8							; size = 4
??3CvDllTerrainInfo@@SAXPAX@Z PROC			; CvDllTerrainInfo::operator delete, COMDAT

; 70   : {

	push	ebp
	mov	ebp, esp

; 71   : 	CvDllGameContext::Free(p);

	mov	eax, DWORD PTR _p$[ebp]
	push	eax
	call	?Free@CvDllGameContext@@SAXPAX@Z	; CvDllGameContext::Free
	add	esp, 4

; 72   : }

	pop	ebp
	ret	0
??3CvDllTerrainInfo@@SAXPAX@Z ENDP			; CvDllTerrainInfo::operator delete
_TEXT	ENDS
PUBLIC	??2CvDllTerrainInfo@@SAPAXI@Z			; CvDllTerrainInfo::operator new
EXTRN	?Allocate@CvDllGameContext@@SAPAXI@Z:PROC	; CvDllGameContext::Allocate
; Function compile flags: /Odtp
;	COMDAT ??2CvDllTerrainInfo@@SAPAXI@Z
_TEXT	SEGMENT
_bytes$ = 8						; size = 4
??2CvDllTerrainInfo@@SAPAXI@Z PROC			; CvDllTerrainInfo::operator new, COMDAT

; 75   : {

	push	ebp
	mov	ebp, esp

; 76   : 	return CvDllGameContext::Allocate(bytes);

	mov	eax, DWORD PTR _bytes$[ebp]
	push	eax
	call	?Allocate@CvDllGameContext@@SAPAXI@Z	; CvDllGameContext::Allocate
	add	esp, 4

; 77   : }

	pop	ebp
	ret	0
??2CvDllTerrainInfo@@SAPAXI@Z ENDP			; CvDllTerrainInfo::operator new
_TEXT	ENDS
PUBLIC	?GetInstance@CvDllTerrainInfo@@QAEPAVCvTerrainInfo@@XZ ; CvDllTerrainInfo::GetInstance
; Function compile flags: /Odtp
;	COMDAT ?GetInstance@CvDllTerrainInfo@@QAEPAVCvTerrainInfo@@XZ
_TEXT	SEGMENT
_this$ = -4						; size = 4
?GetInstance@CvDllTerrainInfo@@QAEPAVCvTerrainInfo@@XZ PROC ; CvDllTerrainInfo::GetInstance, COMDAT
; _this$ = ecx

; 80   : {

	push	ebp
	mov	ebp, esp
	push	ecx
	mov	DWORD PTR _this$[ebp], ecx

; 81   : 	return m_pTerrainInfo;

	mov	eax, DWORD PTR _this$[ebp]
	mov	eax, DWORD PTR [eax+8]

; 82   : }

	mov	esp, ebp
	pop	ebp
	ret	0
?GetInstance@CvDllTerrainInfo@@QAEPAVCvTerrainInfo@@XZ ENDP ; CvDllTerrainInfo::GetInstance
_TEXT	ENDS
EXTRN	__imp_?c_str@?$basic_string@DU?$char_traits@D@std@@V?$allocator@D@2@@std@@QBEPBDXZ:PROC
; Function compile flags: /Odtp
;	COMDAT ?GetType@CvDllTerrainInfo@@UAGPBDXZ
_TEXT	SEGMENT
$T218036 = -4						; size = 4
_this$ = 8						; size = 4
?GetType@CvDllTerrainInfo@@UAGPBDXZ PROC		; CvDllTerrainInfo::GetType, COMDAT

; 85   : {

	push	ebp
	mov	ebp, esp
	push	ecx

; 86   : 	return m_pTerrainInfo->GetType();

	mov	eax, DWORD PTR _this$[ebp]
	mov	ecx, DWORD PTR [eax+8]
	mov	DWORD PTR $T218036[ebp], ecx
	mov	ecx, DWORD PTR $T218036[ebp]
	add	ecx, 176				; 000000b0H
	call	DWORD PTR __imp_?c_str@?$basic_string@DU?$char_traits@D@std@@V?$allocator@D@2@@std@@QBEPBDXZ

; 87   : }

	mov	esp, ebp
	pop	ebp
	ret	4
?GetType@CvDllTerrainInfo@@UAGPBDXZ ENDP		; CvDllTerrainInfo::GetType
; Function compile flags: /Odtp
_TEXT	ENDS
;	COMDAT ?GetDescription@CvDllTerrainInfo@@UAGPBDXZ
_TEXT	SEGMENT
$T218042 = -4						; size = 4
_this$ = 8						; size = 4
?GetDescription@CvDllTerrainInfo@@UAGPBDXZ PROC		; CvDllTerrainInfo::GetDescription, COMDAT

; 90   : {

	push	ebp
	mov	ebp, esp
	push	ecx

; 91   : 	return m_pTerrainInfo->GetDescription();

	mov	eax, DWORD PTR _this$[ebp]
	mov	ecx, DWORD PTR [eax+8]
	mov	DWORD PTR $T218042[ebp], ecx
	mov	ecx, DWORD PTR $T218042[ebp]
	add	ecx, 36					; 00000024H
	call	DWORD PTR __imp_?c_str@?$basic_string@DU?$char_traits@D@std@@V?$allocator@D@2@@std@@QBEPBDXZ

; 92   : }

	mov	esp, ebp
	pop	ebp
	ret	4
?GetDescription@CvDllTerrainInfo@@UAGPBDXZ ENDP		; CvDllTerrainInfo::GetDescription
_TEXT	ENDS
EXTRN	?isWater@CvTerrainInfo@@QBE_NXZ:PROC		; CvTerrainInfo::isWater
; Function compile flags: /Odtp
;	COMDAT ?IsWater@CvDllTerrainInfo@@UAG_NXZ
_TEXT	SEGMENT
_this$ = 8						; size = 4
?IsWater@CvDllTerrainInfo@@UAG_NXZ PROC			; CvDllTerrainInfo::IsWater, COMDAT

; 95   : {

	push	ebp
	mov	ebp, esp

; 96   : 	return m_pTerrainInfo->isWater();

	mov	eax, DWORD PTR _this$[ebp]
	mov	ecx, DWORD PTR [eax+8]
	call	?isWater@CvTerrainInfo@@QBE_NXZ		; CvTerrainInfo::isWater

; 97   : }

	pop	ebp
	ret	4
?IsWater@CvDllTerrainInfo@@UAG_NXZ ENDP			; CvDllTerrainInfo::IsWater
_TEXT	ENDS
EXTRN	?getArtDefineTag@CvTerrainInfo@@QBEPBDXZ:PROC	; CvTerrainInfo::getArtDefineTag
; Function compile flags: /Odtp
;	COMDAT ?GetArtDefineTag@CvDllTerrainInfo@@UAGPBDXZ
_TEXT	SEGMENT
_this$ = 8						; size = 4
?GetArtDefineTag@CvDllTerrainInfo@@UAGPBDXZ PROC	; CvDllTerrainInfo::GetArtDefineTag, COMDAT

; 100  : {

	push	ebp
	mov	ebp, esp

; 101  : 	return m_pTerrainInfo->getArtDefineTag();

	mov	eax, DWORD PTR _this$[ebp]
	mov	ecx, DWORD PTR [eax+8]
	call	?getArtDefineTag@CvTerrainInfo@@QBEPBDXZ ; CvTerrainInfo::getArtDefineTag

; 102  : }

	pop	ebp
	ret	4
?GetArtDefineTag@CvDllTerrainInfo@@UAGPBDXZ ENDP	; CvDllTerrainInfo::GetArtDefineTag
_TEXT	ENDS
EXTRN	?getWorldSoundscapeScriptId@CvTerrainInfo@@QBEHXZ:PROC ; CvTerrainInfo::getWorldSoundscapeScriptId
; Function compile flags: /Odtp
;	COMDAT ?GetWorldSoundscapeScriptId@CvDllTerrainInfo@@UAGHXZ
_TEXT	SEGMENT
_this$ = 8						; size = 4
?GetWorldSoundscapeScriptId@CvDllTerrainInfo@@UAGHXZ PROC ; CvDllTerrainInfo::GetWorldSoundscapeScriptId, COMDAT

; 105  : {

	push	ebp
	mov	ebp, esp

; 106  : 	return m_pTerrainInfo->getWorldSoundscapeScriptId();

	mov	eax, DWORD PTR _this$[ebp]
	mov	ecx, DWORD PTR [eax+8]
	call	?getWorldSoundscapeScriptId@CvTerrainInfo@@QBEHXZ ; CvTerrainInfo::getWorldSoundscapeScriptId

; 107  : }

	pop	ebp
	ret	4
?GetWorldSoundscapeScriptId@CvDllTerrainInfo@@UAGHXZ ENDP ; CvDllTerrainInfo::GetWorldSoundscapeScriptId
_TEXT	ENDS
EXTRN	?getEffectTypeTag@CvTerrainInfo@@QBEPBDXZ:PROC	; CvTerrainInfo::getEffectTypeTag
; Function compile flags: /Odtp
;	COMDAT ?GetEffectTypeTag@CvDllTerrainInfo@@UAGPBDXZ
_TEXT	SEGMENT
_this$ = 8						; size = 4
?GetEffectTypeTag@CvDllTerrainInfo@@UAGPBDXZ PROC	; CvDllTerrainInfo::GetEffectTypeTag, COMDAT

; 110  : {

	push	ebp
	mov	ebp, esp

; 111  : 	return m_pTerrainInfo->getEffectTypeTag();

	mov	eax, DWORD PTR _this$[ebp]
	mov	ecx, DWORD PTR [eax+8]
	call	?getEffectTypeTag@CvTerrainInfo@@QBEPBDXZ ; CvTerrainInfo::getEffectTypeTag

; 112  : }

	pop	ebp
	ret	4
?GetEffectTypeTag@CvDllTerrainInfo@@UAGPBDXZ ENDP	; CvDllTerrainInfo::GetEffectTypeTag
_TEXT	ENDS
END
