; Listing generated by Microsoft (R) Optimizing Compiler Version 15.00.30729.01 

	TITLE	D:\sources\Lekmod_git\checkout\LEKMOD_DLL\CvGameCoreDLL_Expansion2\CvDllTeam.cpp
	.686P
	.XMM
	include listing.inc
	.model	flat

INCLUDELIB MSVCRT
INCLUDELIB OLDNAMES

PUBLIC	??_C@_05OCFELOIJ@1?40?40?$AA@			; `string'
CONST	SEGMENT
_guidICvUnknown DD 0d89ba82fH
	DW	09fa3H
	DW	04696H
	DB	0b3H
	DB	0f4H
	DB	052H
	DB	0bdH
	DB	0b1H
	DB	01H
	DB	0cfH
	DB	0b2H
_guidICvTeam1 DD 0ac702e9cH
	DW	08ef0H
	DW	045deH
	DB	099H
	DB	051H
	DB	0ddH
	DB	0feH
	DB	08bH
	DB	0ccH
	DB	052H
	DB	0cdH
CONST	ENDS
_DATA	SEGMENT
_CIV5_XP2_DLL_VERSION DD FLAT:??_C@_05OCFELOIJ@1?40?40?$AA@
_DATA	ENDS
;	COMDAT ??_C@_05OCFELOIJ@1?40?40?$AA@
CONST	SEGMENT
??_C@_05OCFELOIJ@1?40?40?$AA@ DB '1.0.0', 00H		; `string'
CONST	ENDS
PUBLIC	??_7CvDllTeam@@6B@				; CvDllTeam::`vftable'
PUBLIC	??_7ICvTeam1@@6B@				; ICvTeam1::`vftable'
PUBLIC	??_7ICvUnknown@@6B@				; ICvUnknown::`vftable'
PUBLIC	??0CvDllTeam@@QAE@PAVCvTeam@@@Z			; CvDllTeam::CvDllTeam
PUBLIC	?QueryInterface@CvDllTeam@@UAGPAXU_GUID@@@Z	; CvDllTeam::QueryInterface
PUBLIC	?Destroy@CvDllTeam@@EAGXXZ			; CvDllTeam::Destroy
PUBLIC	?CanEmbarkAllWaterPassage@CvDllTeam@@UBG_NXZ	; CvDllTeam::CanEmbarkAllWaterPassage
PUBLIC	?GetAtWarCount@CvDllTeam@@UBGH_N@Z		; CvDllTeam::GetAtWarCount
PUBLIC	?GetCurrentEra@CvDllTeam@@UBG?AW4EraTypes@@XZ	; CvDllTeam::GetCurrentEra
PUBLIC	?GetLeaderID@CvDllTeam@@UBG?AW4PlayerTypes@@XZ	; CvDllTeam::GetLeaderID
PUBLIC	?GetProjectCount@CvDllTeam@@UBGHW4ProjectTypes@@@Z ; CvDllTeam::GetProjectCount
PUBLIC	?GetTotalSecuredVotes@CvDllTeam@@UBGHXZ		; CvDllTeam::GetTotalSecuredVotes
PUBLIC	?Init@CvDllTeam@@UAGXW4TeamTypes@@@Z		; CvDllTeam::Init
PUBLIC	?IsAlive@CvDllTeam@@UBG_NXZ			; CvDllTeam::IsAlive
PUBLIC	?IsAtWar@CvDllTeam@@UBG_NW4TeamTypes@@@Z	; CvDllTeam::IsAtWar
PUBLIC	?IsBarbarian@CvDllTeam@@UBG_NXZ			; CvDllTeam::IsBarbarian
PUBLIC	?IsBridgeBuilding@CvDllTeam@@UBG_NXZ		; CvDllTeam::IsBridgeBuilding
PUBLIC	?IsHasMet@CvDllTeam@@UBG_NW4TeamTypes@@@Z	; CvDllTeam::IsHasMet
PUBLIC	?IsHomeOfUnitedNations@CvDllTeam@@UBG_NXZ	; CvDllTeam::IsHomeOfUnitedNations
PUBLIC	?Uninit@CvDllTeam@@UAGXXZ			; CvDllTeam::Uninit
PUBLIC	?Read@CvDllTeam@@UAGXAAVFDataStream@@@Z		; CvDllTeam::Read
PUBLIC	?Write@CvDllTeam@@UBGXAAVFDataStream@@@Z	; CvDllTeam::Write
PUBLIC	?GetTechCount@CvDllTeam@@UBGHXZ			; CvDllTeam::GetTechCount
PUBLIC	?GetTechs@CvDllTeam@@UBGHPAW4TechTypes@@I@Z	; CvDllTeam::GetTechs
EXTRN	__purecall:PROC
;	COMDAT ??_7CvDllTeam@@6B@
; File d:\sources\lekmod_git\checkout\lekmod_dll\cvgamecoredll_expansion2\cvdllteam.cpp
CONST	SEGMENT
??_7CvDllTeam@@6B@ DD FLAT:?QueryInterface@CvDllTeam@@UAGPAXU_GUID@@@Z ; CvDllTeam::`vftable'
	DD	FLAT:?Destroy@CvDllTeam@@EAGXXZ
	DD	FLAT:?CanEmbarkAllWaterPassage@CvDllTeam@@UBG_NXZ
	DD	FLAT:?GetAtWarCount@CvDllTeam@@UBGH_N@Z
	DD	FLAT:?GetCurrentEra@CvDllTeam@@UBG?AW4EraTypes@@XZ
	DD	FLAT:?GetLeaderID@CvDllTeam@@UBG?AW4PlayerTypes@@XZ
	DD	FLAT:?GetProjectCount@CvDllTeam@@UBGHW4ProjectTypes@@@Z
	DD	FLAT:?GetTotalSecuredVotes@CvDllTeam@@UBGHXZ
	DD	FLAT:?Init@CvDllTeam@@UAGXW4TeamTypes@@@Z
	DD	FLAT:?IsAlive@CvDllTeam@@UBG_NXZ
	DD	FLAT:?IsAtWar@CvDllTeam@@UBG_NW4TeamTypes@@@Z
	DD	FLAT:?IsBarbarian@CvDllTeam@@UBG_NXZ
	DD	FLAT:?IsBridgeBuilding@CvDllTeam@@UBG_NXZ
	DD	FLAT:?IsHasMet@CvDllTeam@@UBG_NW4TeamTypes@@@Z
	DD	FLAT:?IsHomeOfUnitedNations@CvDllTeam@@UBG_NXZ
	DD	FLAT:?Uninit@CvDllTeam@@UAGXXZ
	DD	FLAT:?Read@CvDllTeam@@UAGXAAVFDataStream@@@Z
	DD	FLAT:?Write@CvDllTeam@@UBGXAAVFDataStream@@@Z
	DD	FLAT:?GetTechCount@CvDllTeam@@UBGHXZ
	DD	FLAT:?GetTechs@CvDllTeam@@UBGHPAW4TechTypes@@I@Z
CONST	ENDS
;	COMDAT ??_7ICvTeam1@@6B@
CONST	SEGMENT
??_7ICvTeam1@@6B@ DD FLAT:__purecall			; ICvTeam1::`vftable'
	DD	FLAT:__purecall
	DD	FLAT:__purecall
	DD	FLAT:__purecall
	DD	FLAT:__purecall
	DD	FLAT:__purecall
	DD	FLAT:__purecall
	DD	FLAT:__purecall
	DD	FLAT:__purecall
	DD	FLAT:__purecall
	DD	FLAT:__purecall
	DD	FLAT:__purecall
	DD	FLAT:__purecall
	DD	FLAT:__purecall
	DD	FLAT:__purecall
	DD	FLAT:__purecall
	DD	FLAT:__purecall
	DD	FLAT:__purecall
	DD	FLAT:__purecall
	DD	FLAT:__purecall
CONST	ENDS
;	COMDAT ??_7ICvUnknown@@6B@
CONST	SEGMENT
??_7ICvUnknown@@6B@ DD FLAT:__purecall			; ICvUnknown::`vftable'
	DD	FLAT:__purecall
; Function compile flags: /Odtp
CONST	ENDS
;	COMDAT ??0CvDllTeam@@QAE@PAVCvTeam@@@Z
_TEXT	SEGMENT
_this$ = -4						; size = 4
_pTeam$ = 8						; size = 4
??0CvDllTeam@@QAE@PAVCvTeam@@@Z PROC			; CvDllTeam::CvDllTeam, COMDAT
; _this$ = ecx

; 19   : {

	push	ebp
	mov	ebp, esp
	push	ecx
	mov	DWORD PTR _this$[ebp], ecx
	mov	eax, DWORD PTR _this$[ebp]
	mov	DWORD PTR [eax], OFFSET ??_7ICvUnknown@@6B@
	mov	ecx, DWORD PTR _this$[ebp]
	mov	DWORD PTR [ecx], OFFSET ??_7ICvTeam1@@6B@
	mov	edx, DWORD PTR _this$[ebp]
	mov	DWORD PTR [edx], OFFSET ??_7CvDllTeam@@6B@
	mov	eax, DWORD PTR _this$[ebp]
	mov	DWORD PTR [eax+4], 1
	mov	ecx, DWORD PTR _this$[ebp]
	mov	edx, DWORD PTR _pTeam$[ebp]
	mov	DWORD PTR [ecx+8], edx

; 20   : }

	mov	eax, DWORD PTR _this$[ebp]
	mov	esp, ebp
	pop	ebp
	ret	4
??0CvDllTeam@@QAE@PAVCvTeam@@@Z ENDP			; CvDllTeam::CvDllTeam
_TEXT	ENDS
PUBLIC	??1CvDllTeam@@QAE@XZ				; CvDllTeam::~CvDllTeam
; Function compile flags: /Odtp
;	COMDAT ??1CvDllTeam@@QAE@XZ
_TEXT	SEGMENT
_this$ = -4						; size = 4
??1CvDllTeam@@QAE@XZ PROC				; CvDllTeam::~CvDllTeam, COMDAT
; _this$ = ecx

; 23   : {

	push	ebp
	mov	ebp, esp
	push	ecx
	mov	DWORD PTR _this$[ebp], ecx
	mov	eax, DWORD PTR _this$[ebp]
	mov	DWORD PTR [eax], OFFSET ??_7CvDllTeam@@6B@

; 24   : }

	mov	esp, ebp
	pop	ebp
	ret	0
??1CvDllTeam@@QAE@XZ ENDP				; CvDllTeam::~CvDllTeam
_TEXT	ENDS
PUBLIC	?IncrementReference@CvDllTeam@@QAEIXZ		; CvDllTeam::IncrementReference
; Function compile flags: /Odtp
;	COMDAT ?QueryInterface@CvDllTeam@@UAGPAXU_GUID@@@Z
_TEXT	SEGMENT
tv90 = -88						; size = 4
tv161 = -84						; size = 4
tv85 = -80						; size = 4
tv137 = -76						; size = 4
$T218069 = -72						; size = 16
$T218068 = -56						; size = 16
$T218067 = -40						; size = 16
$T218066 = -20						; size = 16
_this$ = 8						; size = 4
_guidInterface$ = 12					; size = 16
?QueryInterface@CvDllTeam@@UAGPAXU_GUID@@@Z PROC	; CvDllTeam::QueryInterface, COMDAT

; 27   : {

	push	ebp
	mov	ebp, esp
	sub	esp, 88					; 00000058H
	push	esi
	push	edi

; 28   : 	if(guidInterface == ICvUnknown::GetInterfaceId() ||
; 29   : 	        guidInterface == ICvTeam1::GetInterfaceId())

	mov	eax, DWORD PTR _guidICvUnknown
	mov	DWORD PTR $T218067[ebp], eax
	mov	ecx, DWORD PTR _guidICvUnknown+4
	mov	DWORD PTR $T218067[ebp+4], ecx
	mov	edx, DWORD PTR _guidICvUnknown+8
	mov	DWORD PTR $T218067[ebp+8], edx
	mov	eax, DWORD PTR _guidICvUnknown+12
	mov	DWORD PTR $T218067[ebp+12], eax
	mov	ecx, DWORD PTR $T218067[ebp]
	mov	DWORD PTR $T218066[ebp], ecx
	mov	edx, DWORD PTR $T218067[ebp+4]
	mov	DWORD PTR $T218066[ebp+4], edx
	mov	eax, DWORD PTR $T218067[ebp+8]
	mov	DWORD PTR $T218066[ebp+8], eax
	mov	ecx, DWORD PTR $T218067[ebp+12]
	mov	DWORD PTR $T218066[ebp+12], ecx
	mov	ecx, 16					; 00000010H
	lea	edi, DWORD PTR $T218066[ebp]
	lea	esi, DWORD PTR _guidInterface$[ebp]
	xor	edx, edx
	mov	DWORD PTR tv137[ebp], edx
	repe cmpsb
	je	SHORT $LN17@QueryInter
	sbb	eax, eax
	sbb	eax, -1
	mov	DWORD PTR tv137[ebp], eax
$LN17@QueryInter:
	mov	ecx, DWORD PTR tv137[ebp]
	mov	DWORD PTR tv85[ebp], ecx
	xor	edx, edx
	cmp	DWORD PTR tv85[ebp], 0
	sete	dl
	test	edx, edx
	jne	SHORT $LN1@QueryInter
	mov	eax, DWORD PTR _guidICvTeam1
	mov	DWORD PTR $T218069[ebp], eax
	mov	ecx, DWORD PTR _guidICvTeam1+4
	mov	DWORD PTR $T218069[ebp+4], ecx
	mov	edx, DWORD PTR _guidICvTeam1+8
	mov	DWORD PTR $T218069[ebp+8], edx
	mov	eax, DWORD PTR _guidICvTeam1+12
	mov	DWORD PTR $T218069[ebp+12], eax
	mov	ecx, DWORD PTR $T218069[ebp]
	mov	DWORD PTR $T218068[ebp], ecx
	mov	edx, DWORD PTR $T218069[ebp+4]
	mov	DWORD PTR $T218068[ebp+4], edx
	mov	eax, DWORD PTR $T218069[ebp+8]
	mov	DWORD PTR $T218068[ebp+8], eax
	mov	ecx, DWORD PTR $T218069[ebp+12]
	mov	DWORD PTR $T218068[ebp+12], ecx
	mov	ecx, 16					; 00000010H
	lea	edi, DWORD PTR $T218068[ebp]
	lea	esi, DWORD PTR _guidInterface$[ebp]
	xor	edx, edx
	mov	DWORD PTR tv161[ebp], edx
	repe cmpsb
	je	SHORT $LN18@QueryInter
	sbb	eax, eax
	sbb	eax, -1
	mov	DWORD PTR tv161[ebp], eax
$LN18@QueryInter:
	mov	ecx, DWORD PTR tv161[ebp]
	mov	DWORD PTR tv90[ebp], ecx
	xor	edx, edx
	cmp	DWORD PTR tv90[ebp], 0
	sete	dl
	test	edx, edx
	je	SHORT $LN2@QueryInter
$LN1@QueryInter:

; 30   : 	{
; 31   : 		IncrementReference();

	mov	ecx, DWORD PTR _this$[ebp]
	call	?IncrementReference@CvDllTeam@@QAEIXZ	; CvDllTeam::IncrementReference

; 32   : 		return this;

	mov	eax, DWORD PTR _this$[ebp]
	jmp	SHORT $LN3@QueryInter
$LN2@QueryInter:

; 33   : 	}
; 34   : 
; 35   : 	return NULL;

	xor	eax, eax
$LN3@QueryInter:

; 36   : }

	pop	edi
	pop	esi
	mov	esp, ebp
	pop	ebp
	ret	20					; 00000014H
?QueryInterface@CvDllTeam@@UAGPAXU_GUID@@@Z ENDP	; CvDllTeam::QueryInterface
; Function compile flags: /Odtp
_TEXT	ENDS
;	COMDAT ?IncrementReference@CvDllTeam@@QAEIXZ
_TEXT	SEGMENT
_this$ = -4						; size = 4
?IncrementReference@CvDllTeam@@QAEIXZ PROC		; CvDllTeam::IncrementReference, COMDAT
; _this$ = ecx

; 39   : {

	push	ebp
	mov	ebp, esp
	push	ecx
	mov	DWORD PTR _this$[ebp], ecx

; 40   : 	++m_uiRefCount;

	mov	eax, DWORD PTR _this$[ebp]
	mov	ecx, DWORD PTR [eax+4]
	add	ecx, 1
	mov	edx, DWORD PTR _this$[ebp]
	mov	DWORD PTR [edx+4], ecx

; 41   : 	return m_uiRefCount;

	mov	eax, DWORD PTR _this$[ebp]
	mov	eax, DWORD PTR [eax+4]

; 42   : }

	mov	esp, ebp
	pop	ebp
	ret	0
?IncrementReference@CvDllTeam@@QAEIXZ ENDP		; CvDllTeam::IncrementReference
_TEXT	ENDS
PUBLIC	??3CvDllTeam@@SAXPAX@Z				; CvDllTeam::operator delete
PUBLIC	?DecrementReference@CvDllTeam@@QAEIXZ		; CvDllTeam::DecrementReference
; Function compile flags: /Odtp
;	COMDAT ?DecrementReference@CvDllTeam@@QAEIXZ
_TEXT	SEGMENT
tv70 = -16						; size = 4
_this$ = -12						; size = 4
$T218101 = -8						; size = 4
$T218100 = -4						; size = 4
?DecrementReference@CvDllTeam@@QAEIXZ PROC		; CvDllTeam::DecrementReference, COMDAT
; _this$ = ecx

; 45   : {

	push	ebp
	mov	ebp, esp
	sub	esp, 16					; 00000010H
	mov	DWORD PTR _this$[ebp], ecx

; 46   : 	if(m_uiRefCount == 1)

	mov	eax, DWORD PTR _this$[ebp]
	cmp	DWORD PTR [eax+4], 1
	jne	SHORT $LN2@DecrementR

; 47   : 	{
; 48   : 		delete this;

	mov	ecx, DWORD PTR _this$[ebp]
	mov	DWORD PTR $T218101[ebp], ecx
	mov	edx, DWORD PTR $T218101[ebp]
	mov	DWORD PTR $T218100[ebp], edx
	cmp	DWORD PTR $T218100[ebp], 0
	je	SHORT $LN5@DecrementR
	mov	ecx, DWORD PTR $T218100[ebp]
	call	??1CvDllTeam@@QAE@XZ			; CvDllTeam::~CvDllTeam
	mov	eax, 1
	and	eax, 1
	je	SHORT $LN8@DecrementR
	mov	ecx, DWORD PTR $T218100[ebp]
	push	ecx
	call	??3CvDllTeam@@SAXPAX@Z			; CvDllTeam::operator delete
	add	esp, 4
$LN8@DecrementR:
	mov	edx, DWORD PTR $T218100[ebp]
	mov	DWORD PTR tv70[ebp], edx
	jmp	SHORT $LN6@DecrementR
$LN5@DecrementR:
	mov	DWORD PTR tv70[ebp], 0
$LN6@DecrementR:

; 49   : 		return 0;

	xor	eax, eax
	jmp	SHORT $LN3@DecrementR

; 50   : 	}
; 51   : 	else

	jmp	SHORT $LN3@DecrementR
$LN2@DecrementR:

; 52   : 	{
; 53   : 		--m_uiRefCount;

	mov	eax, DWORD PTR _this$[ebp]
	mov	ecx, DWORD PTR [eax+4]
	sub	ecx, 1
	mov	edx, DWORD PTR _this$[ebp]
	mov	DWORD PTR [edx+4], ecx

; 54   : 		return m_uiRefCount;

	mov	eax, DWORD PTR _this$[ebp]
	mov	eax, DWORD PTR [eax+4]
$LN3@DecrementR:

; 55   : 	}
; 56   : }

	mov	esp, ebp
	pop	ebp
	ret	0
?DecrementReference@CvDllTeam@@QAEIXZ ENDP		; CvDllTeam::DecrementReference
_TEXT	ENDS
PUBLIC	?GetReferenceCount@CvDllTeam@@QAEIXZ		; CvDllTeam::GetReferenceCount
; Function compile flags: /Odtp
;	COMDAT ?GetReferenceCount@CvDllTeam@@QAEIXZ
_TEXT	SEGMENT
_this$ = -4						; size = 4
?GetReferenceCount@CvDllTeam@@QAEIXZ PROC		; CvDllTeam::GetReferenceCount, COMDAT
; _this$ = ecx

; 59   : {

	push	ebp
	mov	ebp, esp
	push	ecx
	mov	DWORD PTR _this$[ebp], ecx

; 60   : 	return m_uiRefCount;

	mov	eax, DWORD PTR _this$[ebp]
	mov	eax, DWORD PTR [eax+4]

; 61   : }

	mov	esp, ebp
	pop	ebp
	ret	0
?GetReferenceCount@CvDllTeam@@QAEIXZ ENDP		; CvDllTeam::GetReferenceCount
; Function compile flags: /Odtp
_TEXT	ENDS
;	COMDAT ?Destroy@CvDllTeam@@EAGXXZ
_TEXT	SEGMENT
_this$ = 8						; size = 4
?Destroy@CvDllTeam@@EAGXXZ PROC				; CvDllTeam::Destroy, COMDAT

; 64   : {

	push	ebp
	mov	ebp, esp

; 65   : 	DecrementReference();

	mov	ecx, DWORD PTR _this$[ebp]
	call	?DecrementReference@CvDllTeam@@QAEIXZ	; CvDllTeam::DecrementReference

; 66   : }

	pop	ebp
	ret	4
?Destroy@CvDllTeam@@EAGXXZ ENDP				; CvDllTeam::Destroy
_TEXT	ENDS
EXTRN	?Free@CvDllGameContext@@SAXPAX@Z:PROC		; CvDllGameContext::Free
; Function compile flags: /Odtp
;	COMDAT ??3CvDllTeam@@SAXPAX@Z
_TEXT	SEGMENT
_p$ = 8							; size = 4
??3CvDllTeam@@SAXPAX@Z PROC				; CvDllTeam::operator delete, COMDAT

; 69   : {

	push	ebp
	mov	ebp, esp

; 70   : 	CvDllGameContext::Free(p);

	mov	eax, DWORD PTR _p$[ebp]
	push	eax
	call	?Free@CvDllGameContext@@SAXPAX@Z	; CvDllGameContext::Free
	add	esp, 4

; 71   : }

	pop	ebp
	ret	0
??3CvDllTeam@@SAXPAX@Z ENDP				; CvDllTeam::operator delete
_TEXT	ENDS
PUBLIC	??2CvDllTeam@@SAPAXI@Z				; CvDllTeam::operator new
EXTRN	?Allocate@CvDllGameContext@@SAPAXI@Z:PROC	; CvDllGameContext::Allocate
; Function compile flags: /Odtp
;	COMDAT ??2CvDllTeam@@SAPAXI@Z
_TEXT	SEGMENT
_bytes$ = 8						; size = 4
??2CvDllTeam@@SAPAXI@Z PROC				; CvDllTeam::operator new, COMDAT

; 74   : {

	push	ebp
	mov	ebp, esp

; 75   : 	return CvDllGameContext::Allocate(bytes);

	mov	eax, DWORD PTR _bytes$[ebp]
	push	eax
	call	?Allocate@CvDllGameContext@@SAPAXI@Z	; CvDllGameContext::Allocate
	add	esp, 4

; 76   : }

	pop	ebp
	ret	0
??2CvDllTeam@@SAPAXI@Z ENDP				; CvDllTeam::operator new
_TEXT	ENDS
PUBLIC	?GetInstance@CvDllTeam@@QAEPAVCvTeam@@XZ	; CvDllTeam::GetInstance
; Function compile flags: /Odtp
;	COMDAT ?GetInstance@CvDllTeam@@QAEPAVCvTeam@@XZ
_TEXT	SEGMENT
_this$ = -4						; size = 4
?GetInstance@CvDllTeam@@QAEPAVCvTeam@@XZ PROC		; CvDllTeam::GetInstance, COMDAT
; _this$ = ecx

; 79   : {

	push	ebp
	mov	ebp, esp
	push	ecx
	mov	DWORD PTR _this$[ebp], ecx

; 80   : 	return m_pTeam;

	mov	eax, DWORD PTR _this$[ebp]
	mov	eax, DWORD PTR [eax+8]

; 81   : }

	mov	esp, ebp
	pop	ebp
	ret	0
?GetInstance@CvDllTeam@@QAEPAVCvTeam@@XZ ENDP		; CvDllTeam::GetInstance
_TEXT	ENDS
EXTRN	?canEmbarkAllWaterPassage@CvTeam@@QBE_NXZ:PROC	; CvTeam::canEmbarkAllWaterPassage
; Function compile flags: /Odtp
;	COMDAT ?CanEmbarkAllWaterPassage@CvDllTeam@@UBG_NXZ
_TEXT	SEGMENT
_this$ = 8						; size = 4
?CanEmbarkAllWaterPassage@CvDllTeam@@UBG_NXZ PROC	; CvDllTeam::CanEmbarkAllWaterPassage, COMDAT

; 84   : {

	push	ebp
	mov	ebp, esp

; 85   : 	return m_pTeam->canEmbarkAllWaterPassage();

	mov	eax, DWORD PTR _this$[ebp]
	mov	ecx, DWORD PTR [eax+8]
	call	?canEmbarkAllWaterPassage@CvTeam@@QBE_NXZ ; CvTeam::canEmbarkAllWaterPassage

; 86   : }

	pop	ebp
	ret	4
?CanEmbarkAllWaterPassage@CvDllTeam@@UBG_NXZ ENDP	; CvDllTeam::CanEmbarkAllWaterPassage
_TEXT	ENDS
EXTRN	?getAtWarCount@CvTeam@@QBEH_N@Z:PROC		; CvTeam::getAtWarCount
; Function compile flags: /Odtp
;	COMDAT ?GetAtWarCount@CvDllTeam@@UBGH_N@Z
_TEXT	SEGMENT
_this$ = 8						; size = 4
_bIgnoreMinors$ = 12					; size = 1
?GetAtWarCount@CvDllTeam@@UBGH_N@Z PROC			; CvDllTeam::GetAtWarCount, COMDAT

; 89   : {

	push	ebp
	mov	ebp, esp

; 90   : 	return m_pTeam->getAtWarCount(bIgnoreMinors);

	movzx	eax, BYTE PTR _bIgnoreMinors$[ebp]
	push	eax
	mov	ecx, DWORD PTR _this$[ebp]
	mov	ecx, DWORD PTR [ecx+8]
	call	?getAtWarCount@CvTeam@@QBEH_N@Z		; CvTeam::getAtWarCount

; 91   : }

	pop	ebp
	ret	8
?GetAtWarCount@CvDllTeam@@UBGH_N@Z ENDP			; CvDllTeam::GetAtWarCount
_TEXT	ENDS
EXTRN	?GetCurrentEra@CvTeam@@QBE?AW4EraTypes@@XZ:PROC	; CvTeam::GetCurrentEra
; Function compile flags: /Odtp
;	COMDAT ?GetCurrentEra@CvDllTeam@@UBG?AW4EraTypes@@XZ
_TEXT	SEGMENT
_this$ = 8						; size = 4
?GetCurrentEra@CvDllTeam@@UBG?AW4EraTypes@@XZ PROC	; CvDllTeam::GetCurrentEra, COMDAT

; 94   : {

	push	ebp
	mov	ebp, esp

; 95   : 	return m_pTeam->GetCurrentEra();

	mov	eax, DWORD PTR _this$[ebp]
	mov	ecx, DWORD PTR [eax+8]
	call	?GetCurrentEra@CvTeam@@QBE?AW4EraTypes@@XZ ; CvTeam::GetCurrentEra

; 96   : }

	pop	ebp
	ret	4
?GetCurrentEra@CvDllTeam@@UBG?AW4EraTypes@@XZ ENDP	; CvDllTeam::GetCurrentEra
_TEXT	ENDS
EXTRN	?getLeaderID@CvTeam@@QBE?AW4PlayerTypes@@XZ:PROC ; CvTeam::getLeaderID
; Function compile flags: /Odtp
;	COMDAT ?GetLeaderID@CvDllTeam@@UBG?AW4PlayerTypes@@XZ
_TEXT	SEGMENT
_this$ = 8						; size = 4
?GetLeaderID@CvDllTeam@@UBG?AW4PlayerTypes@@XZ PROC	; CvDllTeam::GetLeaderID, COMDAT

; 99   : {

	push	ebp
	mov	ebp, esp

; 100  : 	return m_pTeam->getLeaderID();

	mov	eax, DWORD PTR _this$[ebp]
	mov	ecx, DWORD PTR [eax+8]
	call	?getLeaderID@CvTeam@@QBE?AW4PlayerTypes@@XZ ; CvTeam::getLeaderID

; 101  : }

	pop	ebp
	ret	4
?GetLeaderID@CvDllTeam@@UBG?AW4PlayerTypes@@XZ ENDP	; CvDllTeam::GetLeaderID
_TEXT	ENDS
EXTRN	?getProjectCount@CvTeam@@QBEHW4ProjectTypes@@@Z:PROC ; CvTeam::getProjectCount
; Function compile flags: /Odtp
;	COMDAT ?GetProjectCount@CvDllTeam@@UBGHW4ProjectTypes@@@Z
_TEXT	SEGMENT
_this$ = 8						; size = 4
_eIndex$ = 12						; size = 4
?GetProjectCount@CvDllTeam@@UBGHW4ProjectTypes@@@Z PROC	; CvDllTeam::GetProjectCount, COMDAT

; 104  : {

	push	ebp
	mov	ebp, esp

; 105  : 	return m_pTeam->getProjectCount(eIndex);

	mov	eax, DWORD PTR _eIndex$[ebp]
	push	eax
	mov	ecx, DWORD PTR _this$[ebp]
	mov	ecx, DWORD PTR [ecx+8]
	call	?getProjectCount@CvTeam@@QBEHW4ProjectTypes@@@Z ; CvTeam::getProjectCount

; 106  : }

	pop	ebp
	ret	8
?GetProjectCount@CvDllTeam@@UBGHW4ProjectTypes@@@Z ENDP	; CvDllTeam::GetProjectCount
_TEXT	ENDS
EXTRN	?GetTotalSecuredVotes@CvTeam@@QBEHXZ:PROC	; CvTeam::GetTotalSecuredVotes
; Function compile flags: /Odtp
;	COMDAT ?GetTotalSecuredVotes@CvDllTeam@@UBGHXZ
_TEXT	SEGMENT
_this$ = 8						; size = 4
?GetTotalSecuredVotes@CvDllTeam@@UBGHXZ PROC		; CvDllTeam::GetTotalSecuredVotes, COMDAT

; 109  : {

	push	ebp
	mov	ebp, esp

; 110  : 	return m_pTeam->GetTotalSecuredVotes();

	mov	eax, DWORD PTR _this$[ebp]
	mov	ecx, DWORD PTR [eax+8]
	call	?GetTotalSecuredVotes@CvTeam@@QBEHXZ	; CvTeam::GetTotalSecuredVotes

; 111  : }

	pop	ebp
	ret	4
?GetTotalSecuredVotes@CvDllTeam@@UBGHXZ ENDP		; CvDllTeam::GetTotalSecuredVotes
_TEXT	ENDS
EXTRN	?init@CvTeam@@QAEXW4TeamTypes@@@Z:PROC		; CvTeam::init
; Function compile flags: /Odtp
;	COMDAT ?Init@CvDllTeam@@UAGXW4TeamTypes@@@Z
_TEXT	SEGMENT
_this$ = 8						; size = 4
_eID$ = 12						; size = 4
?Init@CvDllTeam@@UAGXW4TeamTypes@@@Z PROC		; CvDllTeam::Init, COMDAT

; 114  : {

	push	ebp
	mov	ebp, esp

; 115  : 	m_pTeam->init(eID);

	mov	eax, DWORD PTR _eID$[ebp]
	push	eax
	mov	ecx, DWORD PTR _this$[ebp]
	mov	ecx, DWORD PTR [ecx+8]
	call	?init@CvTeam@@QAEXW4TeamTypes@@@Z	; CvTeam::init

; 116  : }

	pop	ebp
	ret	8
?Init@CvDllTeam@@UAGXW4TeamTypes@@@Z ENDP		; CvDllTeam::Init
; Function compile flags: /Odtp
_TEXT	ENDS
;	COMDAT ?IsAlive@CvDllTeam@@UBG_NXZ
_TEXT	SEGMENT
_this$ = 8						; size = 4
?IsAlive@CvDllTeam@@UBG_NXZ PROC			; CvDllTeam::IsAlive, COMDAT

; 119  : {

	push	ebp
	mov	ebp, esp

; 120  : 	return m_pTeam->isAlive();

	mov	eax, DWORD PTR _this$[ebp]
	mov	ecx, DWORD PTR [eax+8]
	xor	eax, eax
	cmp	DWORD PTR [ecx+12], 0
	setg	al

; 121  : }

	pop	ebp
	ret	4
?IsAlive@CvDllTeam@@UBG_NXZ ENDP			; CvDllTeam::IsAlive
_TEXT	ENDS
EXTRN	?isAtWar@CvTeam@@QBE_NW4TeamTypes@@@Z:PROC	; CvTeam::isAtWar
; Function compile flags: /Odtp
;	COMDAT ?IsAtWar@CvDllTeam@@UBG_NW4TeamTypes@@@Z
_TEXT	SEGMENT
_this$ = 8						; size = 4
_eIndex$ = 12						; size = 4
?IsAtWar@CvDllTeam@@UBG_NW4TeamTypes@@@Z PROC		; CvDllTeam::IsAtWar, COMDAT

; 124  : {

	push	ebp
	mov	ebp, esp

; 125  : 	return m_pTeam->isAtWar(eIndex);

	mov	eax, DWORD PTR _eIndex$[ebp]
	push	eax
	mov	ecx, DWORD PTR _this$[ebp]
	mov	ecx, DWORD PTR [ecx+8]
	call	?isAtWar@CvTeam@@QBE_NW4TeamTypes@@@Z	; CvTeam::isAtWar

; 126  : }

	pop	ebp
	ret	8
?IsAtWar@CvDllTeam@@UBG_NW4TeamTypes@@@Z ENDP		; CvDllTeam::IsAtWar
_TEXT	ENDS
EXTRN	?isBarbarian@CvTeam@@QBE_NXZ:PROC		; CvTeam::isBarbarian
; Function compile flags: /Odtp
;	COMDAT ?IsBarbarian@CvDllTeam@@UBG_NXZ
_TEXT	SEGMENT
_this$ = 8						; size = 4
?IsBarbarian@CvDllTeam@@UBG_NXZ PROC			; CvDllTeam::IsBarbarian, COMDAT

; 129  : {

	push	ebp
	mov	ebp, esp

; 130  : 	return m_pTeam->isBarbarian();

	mov	eax, DWORD PTR _this$[ebp]
	mov	ecx, DWORD PTR [eax+8]
	call	?isBarbarian@CvTeam@@QBE_NXZ		; CvTeam::isBarbarian

; 131  : }

	pop	ebp
	ret	4
?IsBarbarian@CvDllTeam@@UBG_NXZ ENDP			; CvDllTeam::IsBarbarian
_TEXT	ENDS
EXTRN	?isBridgeBuilding@CvTeam@@QBE_NXZ:PROC		; CvTeam::isBridgeBuilding
; Function compile flags: /Odtp
;	COMDAT ?IsBridgeBuilding@CvDllTeam@@UBG_NXZ
_TEXT	SEGMENT
_this$ = 8						; size = 4
?IsBridgeBuilding@CvDllTeam@@UBG_NXZ PROC		; CvDllTeam::IsBridgeBuilding, COMDAT

; 134  : {

	push	ebp
	mov	ebp, esp

; 135  : 	return m_pTeam->isBridgeBuilding();

	mov	eax, DWORD PTR _this$[ebp]
	mov	ecx, DWORD PTR [eax+8]
	call	?isBridgeBuilding@CvTeam@@QBE_NXZ	; CvTeam::isBridgeBuilding

; 136  : }

	pop	ebp
	ret	4
?IsBridgeBuilding@CvDllTeam@@UBG_NXZ ENDP		; CvDllTeam::IsBridgeBuilding
_TEXT	ENDS
EXTRN	?isHasMet@CvTeam@@QBE_NW4TeamTypes@@@Z:PROC	; CvTeam::isHasMet
; Function compile flags: /Odtp
;	COMDAT ?IsHasMet@CvDllTeam@@UBG_NW4TeamTypes@@@Z
_TEXT	SEGMENT
_this$ = 8						; size = 4
_eIndex$ = 12						; size = 4
?IsHasMet@CvDllTeam@@UBG_NW4TeamTypes@@@Z PROC		; CvDllTeam::IsHasMet, COMDAT

; 139  : {

	push	ebp
	mov	ebp, esp

; 140  : 	return m_pTeam->isHasMet(eIndex);

	mov	eax, DWORD PTR _eIndex$[ebp]
	push	eax
	mov	ecx, DWORD PTR _this$[ebp]
	mov	ecx, DWORD PTR [ecx+8]
	call	?isHasMet@CvTeam@@QBE_NW4TeamTypes@@@Z	; CvTeam::isHasMet

; 141  : }

	pop	ebp
	ret	8
?IsHasMet@CvDllTeam@@UBG_NW4TeamTypes@@@Z ENDP		; CvDllTeam::IsHasMet
_TEXT	ENDS
EXTRN	?IsHomeOfUnitedNations@CvTeam@@QBE_NXZ:PROC	; CvTeam::IsHomeOfUnitedNations
; Function compile flags: /Odtp
;	COMDAT ?IsHomeOfUnitedNations@CvDllTeam@@UBG_NXZ
_TEXT	SEGMENT
_this$ = 8						; size = 4
?IsHomeOfUnitedNations@CvDllTeam@@UBG_NXZ PROC		; CvDllTeam::IsHomeOfUnitedNations, COMDAT

; 144  : {

	push	ebp
	mov	ebp, esp

; 145  : 	return m_pTeam->IsHomeOfUnitedNations();

	mov	eax, DWORD PTR _this$[ebp]
	mov	ecx, DWORD PTR [eax+8]
	call	?IsHomeOfUnitedNations@CvTeam@@QBE_NXZ	; CvTeam::IsHomeOfUnitedNations

; 146  : }

	pop	ebp
	ret	4
?IsHomeOfUnitedNations@CvDllTeam@@UBG_NXZ ENDP		; CvDllTeam::IsHomeOfUnitedNations
_TEXT	ENDS
EXTRN	?uninit@CvTeam@@QAEXXZ:PROC			; CvTeam::uninit
; Function compile flags: /Odtp
;	COMDAT ?Uninit@CvDllTeam@@UAGXXZ
_TEXT	SEGMENT
_this$ = 8						; size = 4
?Uninit@CvDllTeam@@UAGXXZ PROC				; CvDllTeam::Uninit, COMDAT

; 149  : {

	push	ebp
	mov	ebp, esp

; 150  : 	m_pTeam->uninit();

	mov	eax, DWORD PTR _this$[ebp]
	mov	ecx, DWORD PTR [eax+8]
	call	?uninit@CvTeam@@QAEXXZ			; CvTeam::uninit

; 151  : }

	pop	ebp
	ret	4
?Uninit@CvDllTeam@@UAGXXZ ENDP				; CvDllTeam::Uninit
; Function compile flags: /Odtp
_TEXT	ENDS
;	COMDAT ?Read@CvDllTeam@@UAGXAAVFDataStream@@@Z
_TEXT	SEGMENT
_this$ = 8						; size = 4
_kStream$ = 12						; size = 4
?Read@CvDllTeam@@UAGXAAVFDataStream@@@Z PROC		; CvDllTeam::Read, COMDAT

; 154  : {

	push	ebp
	mov	ebp, esp

; 155  : 	m_pTeam->Read(kStream);

	mov	eax, DWORD PTR _kStream$[ebp]
	push	eax
	mov	ecx, DWORD PTR _this$[ebp]
	mov	edx, DWORD PTR [ecx+8]
	mov	eax, DWORD PTR _this$[ebp]
	mov	ecx, DWORD PTR [eax+8]
	mov	edx, DWORD PTR [edx]
	mov	eax, DWORD PTR [edx]
	call	eax

; 156  : }

	pop	ebp
	ret	8
?Read@CvDllTeam@@UAGXAAVFDataStream@@@Z ENDP		; CvDllTeam::Read
; Function compile flags: /Odtp
_TEXT	ENDS
;	COMDAT ?Write@CvDllTeam@@UBGXAAVFDataStream@@@Z
_TEXT	SEGMENT
_this$ = 8						; size = 4
_kStream$ = 12						; size = 4
?Write@CvDllTeam@@UBGXAAVFDataStream@@@Z PROC		; CvDllTeam::Write, COMDAT

; 159  : {

	push	ebp
	mov	ebp, esp

; 160  : 	m_pTeam->Write(kStream);

	mov	eax, DWORD PTR _kStream$[ebp]
	push	eax
	mov	ecx, DWORD PTR _this$[ebp]
	mov	edx, DWORD PTR [ecx+8]
	mov	eax, DWORD PTR _this$[ebp]
	mov	ecx, DWORD PTR [eax+8]
	mov	edx, DWORD PTR [edx]
	mov	eax, DWORD PTR [edx+4]
	call	eax

; 161  : }

	pop	ebp
	ret	8
?Write@CvDllTeam@@UBGXAAVFDataStream@@@Z ENDP		; CvDllTeam::Write
_TEXT	ENDS
EXTRN	?GetNumTechsKnown@CvTeamTechs@@QBEHXZ:PROC	; CvTeamTechs::GetNumTechsKnown
EXTRN	?GetTeamTechs@CvTeam@@QBEPAVCvTeamTechs@@XZ:PROC ; CvTeam::GetTeamTechs
; Function compile flags: /Odtp
;	COMDAT ?GetTechCount@CvDllTeam@@UBGHXZ
_TEXT	SEGMENT
_pkTeamTechs$ = -4					; size = 4
_this$ = 8						; size = 4
?GetTechCount@CvDllTeam@@UBGHXZ PROC			; CvDllTeam::GetTechCount, COMDAT

; 164  : {

	push	ebp
	mov	ebp, esp
	push	ecx

; 165  : 	CvTeamTechs* pkTeamTechs = m_pTeam->GetTeamTechs();

	mov	eax, DWORD PTR _this$[ebp]
	mov	ecx, DWORD PTR [eax+8]
	call	?GetTeamTechs@CvTeam@@QBEPAVCvTeamTechs@@XZ ; CvTeam::GetTeamTechs
	mov	DWORD PTR _pkTeamTechs$[ebp], eax

; 166  : 	if (pkTeamTechs)

	cmp	DWORD PTR _pkTeamTechs$[ebp], 0
	je	SHORT $LN1@GetTechCou

; 167  : 	{
; 168  : 		return pkTeamTechs->GetNumTechsKnown();

	mov	ecx, DWORD PTR _pkTeamTechs$[ebp]
	call	?GetNumTechsKnown@CvTeamTechs@@QBEHXZ	; CvTeamTechs::GetNumTechsKnown
	jmp	SHORT $LN2@GetTechCou
$LN1@GetTechCou:

; 169  : 	}
; 170  : 	return 0;

	xor	eax, eax
$LN2@GetTechCou:

; 171  : }

	mov	esp, ebp
	pop	ebp
	ret	4
?GetTechCount@CvDllTeam@@UBGHXZ ENDP			; CvDllTeam::GetTechCount
_TEXT	ENDS
EXTRN	?GetTechCount@CvTeamTechs@@QBEHW4TechTypes@@@Z:PROC ; CvTeamTechs::GetTechCount
EXTRN	?HasTech@CvTeamTechs@@QBE_NW4TechTypes@@@Z:PROC	; CvTeamTechs::HasTech
EXTRN	?getNumTechInfos@CvGlobals@@QAEHXZ:PROC		; CvGlobals::getNumTechInfos
EXTRN	?gGlobals@@3VCvGlobals@@A:BYTE			; gGlobals
; Function compile flags: /Odtp
;	COMDAT ?GetTechs@CvDllTeam@@UBGHPAW4TechTypes@@I@Z
_TEXT	SEGMENT
_iTechLoop$217998 = -12					; size = 4
_pkTeamTechs$ = -8					; size = 4
_iFoundTechs$ = -4					; size = 4
_this$ = 8						; size = 4
_pkTechArray$ = 12					; size = 4
_uiArraySize$ = 16					; size = 4
?GetTechs@CvDllTeam@@UBGHPAW4TechTypes@@I@Z PROC	; CvDllTeam::GetTechs, COMDAT

; 174  : {

	push	ebp
	mov	ebp, esp
	sub	esp, 12					; 0000000cH

; 175  : 	int iFoundTechs = 0;

	mov	DWORD PTR _iFoundTechs$[ebp], 0

; 176  : 	CvTeamTechs* pkTeamTechs = m_pTeam->GetTeamTechs();

	mov	eax, DWORD PTR _this$[ebp]
	mov	ecx, DWORD PTR [eax+8]
	call	?GetTeamTechs@CvTeam@@QBEPAVCvTeamTechs@@XZ ; CvTeam::GetTeamTechs
	mov	DWORD PTR _pkTeamTechs$[ebp], eax

; 177  : 	if (pkTeamTechs)

	cmp	DWORD PTR _pkTeamTechs$[ebp], 0
	je	SHORT $LN6@GetTechs

; 178  : 	{
; 179  : #ifdef AUI_WARNING_FIXES
; 180  : 		for (uint iTechLoop = 0; iTechLoop < GC.getNumTechInfos() && uiArraySize--; iTechLoop++)
; 181  : #else
; 182  : 		for (int iTechLoop = 0; iTechLoop < GC.getNumTechInfos() && uiArraySize--; iTechLoop++)

	mov	DWORD PTR _iTechLoop$217998[ebp], 0
	jmp	SHORT $LN5@GetTechs
$LN4@GetTechs:
	mov	ecx, DWORD PTR _iTechLoop$217998[ebp]
	add	ecx, 1
	mov	DWORD PTR _iTechLoop$217998[ebp], ecx
$LN5@GetTechs:
	mov	ecx, OFFSET ?gGlobals@@3VCvGlobals@@A	; gGlobals
	call	?getNumTechInfos@CvGlobals@@QAEHXZ	; CvGlobals::getNumTechInfos
	cmp	DWORD PTR _iTechLoop$217998[ebp], eax
	jge	SHORT $LN6@GetTechs
	mov	edx, DWORD PTR _uiArraySize$[ebp]
	mov	eax, DWORD PTR _uiArraySize$[ebp]
	sub	eax, 1
	mov	DWORD PTR _uiArraySize$[ebp], eax
	test	edx, edx
	je	SHORT $LN6@GetTechs

; 183  : #endif
; 184  : 		{
; 185  : 			if (pkTeamTechs->HasTech((TechTypes) iTechLoop) || pkTeamTechs->GetTechCount((TechTypes)iTechLoop) > 0)

	mov	ecx, DWORD PTR _iTechLoop$217998[ebp]
	push	ecx
	mov	ecx, DWORD PTR _pkTeamTechs$[ebp]
	call	?HasTech@CvTeamTechs@@QBE_NW4TechTypes@@@Z ; CvTeamTechs::HasTech
	movzx	edx, al
	test	edx, edx
	jne	SHORT $LN1@GetTechs
	mov	eax, DWORD PTR _iTechLoop$217998[ebp]
	push	eax
	mov	ecx, DWORD PTR _pkTeamTechs$[ebp]
	call	?GetTechCount@CvTeamTechs@@QBEHW4TechTypes@@@Z ; CvTeamTechs::GetTechCount
	test	eax, eax
	jle	SHORT $LN2@GetTechs
$LN1@GetTechs:

; 186  : 			{
; 187  : 				*pkTechArray++ = (TechTypes)iTechLoop;

	mov	ecx, DWORD PTR _pkTechArray$[ebp]
	mov	edx, DWORD PTR _iTechLoop$217998[ebp]
	mov	DWORD PTR [ecx], edx
	mov	eax, DWORD PTR _pkTechArray$[ebp]
	add	eax, 4
	mov	DWORD PTR _pkTechArray$[ebp], eax

; 188  : 				++iFoundTechs;

	mov	ecx, DWORD PTR _iFoundTechs$[ebp]
	add	ecx, 1
	mov	DWORD PTR _iFoundTechs$[ebp], ecx
$LN2@GetTechs:

; 189  : 			}
; 190  : 		}

	jmp	SHORT $LN4@GetTechs
$LN6@GetTechs:

; 191  : 	}
; 192  : 	return iFoundTechs;

	mov	eax, DWORD PTR _iFoundTechs$[ebp]

; 193  : }

	mov	esp, ebp
	pop	ebp
	ret	12					; 0000000cH
?GetTechs@CvDllTeam@@UBGHPAW4TechTypes@@I@Z ENDP	; CvDllTeam::GetTechs
_TEXT	ENDS
END
