; Listing generated by Microsoft (R) Optimizing Compiler Version 15.00.30729.01 

	TITLE	D:\sources\Lekmod_git\checkout\LEKMOD_DLL\CvGameCoreDLL_Expansion2\CvDllUnit.cpp
	.686P
	.XMM
	include listing.inc
	.model	flat

INCLUDELIB MSVCRT
INCLUDELIB OLDNAMES

PUBLIC	??_C@_05OCFELOIJ@1?40?40?$AA@			; `string'
CONST	SEGMENT
_guidICvUnknown DD 0d89ba82fH
	DW	09fa3H
	DW	04696H
	DB	0b3H
	DB	0f4H
	DB	052H
	DB	0bdH
	DB	0b1H
	DB	01H
	DB	0cfH
	DB	0b2H
_guidICvUnit1 DD 09f157e04H
	DW	04b2dH
	DW	04797H
	DB	09aH
	DB	0a5H
	DB	013H
	DB	025H
	DB	0deH
	DB	022H
	DB	016H
	DB	07H
_guidICvUnit2 DD 03c93cecH
	DW	0650aH
	DW	043deH
	DB	09eH
	DB	01bH
	DB	0feH
	DB	015H
	DB	0d7H
	DB	05eH
	DB	0baH
	DB	092H
CONST	ENDS
_DATA	SEGMENT
_CIV5_XP2_DLL_VERSION DD FLAT:??_C@_05OCFELOIJ@1?40?40?$AA@
_DATA	ENDS
;	COMDAT ??_C@_05OCFELOIJ@1?40?40?$AA@
CONST	SEGMENT
??_C@_05OCFELOIJ@1?40?40?$AA@ DB '1.0.0', 00H		; `string'
CONST	ENDS
PUBLIC	??_7CvDllUnit@@6B@				; CvDllUnit::`vftable'
PUBLIC	??_7ICvUnit2@@6B@				; ICvUnit2::`vftable'
PUBLIC	??_7ICvUnit1@@6B@				; ICvUnit1::`vftable'
PUBLIC	??_7ICvUnknown@@6B@				; ICvUnknown::`vftable'
PUBLIC	??0CvDllUnit@@QAE@PAVCvUnit@@@Z			; CvDllUnit::CvDllUnit
PUBLIC	?QueryInterface@CvDllUnit@@UAGPAXU_GUID@@@Z	; CvDllUnit::QueryInterface
PUBLIC	?Destroy@CvDllUnit@@EAGXXZ			; CvDllUnit::Destroy
PUBLIC	?GetID@CvDllUnit@@UBGHXZ			; CvDllUnit::GetID
PUBLIC	?GetOwner@CvDllUnit@@UBG?AW4PlayerTypes@@XZ	; CvDllUnit::GetOwner
PUBLIC	?GetDamage@CvDllUnit@@UBGHXZ			; CvDllUnit::GetDamage
PUBLIC	?GetMoves@CvDllUnit@@UBGHXZ			; CvDllUnit::GetMoves
PUBLIC	?IsSelected@CvDllUnit@@UBG_NXZ			; CvDllUnit::IsSelected
PUBLIC	?GetMaxHitPoints@CvDllUnit@@UBGHXZ		; CvDllUnit::GetMaxHitPoints
PUBLIC	?GetCivilizationType@CvDllUnit@@UBG?AW4CivilizationTypes@@XZ ; CvDllUnit::GetCivilizationType
PUBLIC	?GetTeam@CvDllUnit@@UBG?AW4TeamTypes@@XZ	; CvDllUnit::GetTeam
PUBLIC	?GetDomainType@CvDllUnit@@UBG?AW4DomainTypes@@XZ ; CvDllUnit::GetDomainType
PUBLIC	?IsCombatUnit@CvDllUnit@@UBG_NXZ		; CvDllUnit::IsCombatUnit
PUBLIC	?IsBarbarian@CvDllUnit@@UBG_NXZ			; CvDllUnit::IsBarbarian
PUBLIC	?IsHoveringUnit@CvDllUnit@@UBG_NXZ		; CvDllUnit::IsHoveringUnit
PUBLIC	?IsInvisible@CvDllUnit@@UBG_NW4TeamTypes@@_N@Z	; CvDllUnit::IsInvisible
PUBLIC	?CanMoveImpassable@CvDllUnit@@UBG_NXZ		; CvDllUnit::CanMoveImpassable
PUBLIC	?GetFacingDirection@CvDllUnit@@UBG?AW4DirectionTypes@@_N@Z ; CvDllUnit::GetFacingDirection
PUBLIC	?GetPlot@CvDllUnit@@UBGPAVICvPlot1@@XZ		; CvDllUnit::GetPlot
PUBLIC	?GetUnitInfo@CvDllUnit@@UBGPAVICvUnitInfo1@@XZ	; CvDllUnit::GetUnitInfo
PUBLIC	?IsEmbarked@CvDllUnit@@UBG_NXZ			; CvDllUnit::IsEmbarked
PUBLIC	?IsGarrisoned@CvDllUnit@@UBG_NXZ		; CvDllUnit::IsGarrisoned
PUBLIC	?GetHeadMissionData@CvDllUnit@@UBGPAVICvMissionData1@@XZ ; CvDllUnit::GetHeadMissionData
PUBLIC	?GetUnitCombatType@CvDllUnit@@UAG?AW4UnitCombatTypes@@XZ ; CvDllUnit::GetUnitCombatType
PUBLIC	?GetX@CvDllUnit@@UBGHXZ				; CvDllUnit::GetX
PUBLIC	?GetY@CvDllUnit@@UBGHXZ				; CvDllUnit::GetY
PUBLIC	?GetPosition@CvDllUnit@@UBGXAAH0@Z		; CvDllUnit::GetPosition
PUBLIC	?CanSwapWithUnitHere@CvDllUnit@@UBG_NPAVICvPlot1@@@Z ; CvDllUnit::CanSwapWithUnitHere
PUBLIC	?CanEmbarkOnto@CvDllUnit@@UBG_NPAVICvPlot1@@0_N@Z ; CvDllUnit::CanEmbarkOnto
PUBLIC	?CanDisembarkOnto@CvDllUnit@@UBG_NPAVICvPlot1@@0_N@Z ; CvDllUnit::CanDisembarkOnto
PUBLIC	?IsFirstTimeSelected@CvDllUnit@@UBG_NXZ		; CvDllUnit::IsFirstTimeSelected
PUBLIC	?GetUnitType@CvDllUnit@@UBG?AW4UnitTypes@@XZ	; CvDllUnit::GetUnitType
PUBLIC	?IsDelayedDeathExported@CvDllUnit@@UBG_NXZ	; CvDllUnit::IsDelayedDeathExported
PUBLIC	?IsBusy@CvDllUnit@@UBG_NXZ			; CvDllUnit::IsBusy
PUBLIC	?SetupGraphical@CvDllUnit@@UAGXXZ		; CvDllUnit::SetupGraphical
PUBLIC	?GetName@CvDllUnit@@UBG?AVCvString@@XZ		; CvDllUnit::GetName
PUBLIC	?DoCommand@CvDllUnit@@UAGXW4CommandTypes@@HH@Z	; CvDllUnit::DoCommand
PUBLIC	?CanDoInterfaceMode@CvDllUnit@@UAG_NW4InterfaceModeTypes@@_N@Z ; CvDllUnit::CanDoInterfaceMode
PUBLIC	?GetIDInfo@CvDllUnit@@UBG?AUIDInfo@@XZ		; CvDllUnit::GetIDInfo
PUBLIC	?MovesLeft@CvDllUnit@@UBGHXZ			; CvDllUnit::MovesLeft
PUBLIC	?CanMoveInto@CvDllUnit@@UBG_NPAVICvPlot1@@E@Z	; CvDllUnit::CanMoveInto
PUBLIC	?GetDeclareWarMove@CvDllUnit@@UBG?AW4TeamTypes@@PAVICvPlot1@@@Z ; CvDllUnit::GetDeclareWarMove
PUBLIC	?ReadyToSelect@CvDllUnit@@UBG_NXZ		; CvDllUnit::ReadyToSelect
PUBLIC	?CanWork@CvDllUnit@@UBG_NXZ			; CvDllUnit::CanWork
PUBLIC	?CanFound@CvDllUnit@@UBG_NXZ			; CvDllUnit::CanFound
PUBLIC	?GetSyncArchive@CvDllUnit@@UAGAAVFAutoArchive@@XZ ; CvDllUnit::GetSyncArchive
PUBLIC	?IsTrade@CvDllUnit@@UBG_NXZ			; CvDllUnit::IsTrade
EXTRN	__purecall:PROC
;	COMDAT ??_7CvDllUnit@@6B@
; File d:\sources\lekmod_git\checkout\lekmod_dll\cvgamecoredll_expansion2\cvdllunit.cpp
CONST	SEGMENT
??_7CvDllUnit@@6B@ DD FLAT:?QueryInterface@CvDllUnit@@UAGPAXU_GUID@@@Z ; CvDllUnit::`vftable'
	DD	FLAT:?Destroy@CvDllUnit@@EAGXXZ
	DD	FLAT:?GetID@CvDllUnit@@UBGHXZ
	DD	FLAT:?GetOwner@CvDllUnit@@UBG?AW4PlayerTypes@@XZ
	DD	FLAT:?GetDamage@CvDllUnit@@UBGHXZ
	DD	FLAT:?GetMoves@CvDllUnit@@UBGHXZ
	DD	FLAT:?IsSelected@CvDllUnit@@UBG_NXZ
	DD	FLAT:?GetMaxHitPoints@CvDllUnit@@UBGHXZ
	DD	FLAT:?GetCivilizationType@CvDllUnit@@UBG?AW4CivilizationTypes@@XZ
	DD	FLAT:?GetTeam@CvDllUnit@@UBG?AW4TeamTypes@@XZ
	DD	FLAT:?GetDomainType@CvDllUnit@@UBG?AW4DomainTypes@@XZ
	DD	FLAT:?IsCombatUnit@CvDllUnit@@UBG_NXZ
	DD	FLAT:?IsBarbarian@CvDllUnit@@UBG_NXZ
	DD	FLAT:?IsHoveringUnit@CvDllUnit@@UBG_NXZ
	DD	FLAT:?IsInvisible@CvDllUnit@@UBG_NW4TeamTypes@@_N@Z
	DD	FLAT:?CanMoveImpassable@CvDllUnit@@UBG_NXZ
	DD	FLAT:?GetFacingDirection@CvDllUnit@@UBG?AW4DirectionTypes@@_N@Z
	DD	FLAT:?GetPlot@CvDllUnit@@UBGPAVICvPlot1@@XZ
	DD	FLAT:?GetUnitInfo@CvDllUnit@@UBGPAVICvUnitInfo1@@XZ
	DD	FLAT:?IsEmbarked@CvDllUnit@@UBG_NXZ
	DD	FLAT:?IsGarrisoned@CvDllUnit@@UBG_NXZ
	DD	FLAT:?GetHeadMissionData@CvDllUnit@@UBGPAVICvMissionData1@@XZ
	DD	FLAT:?GetUnitCombatType@CvDllUnit@@UAG?AW4UnitCombatTypes@@XZ
	DD	FLAT:?GetX@CvDllUnit@@UBGHXZ
	DD	FLAT:?GetY@CvDllUnit@@UBGHXZ
	DD	FLAT:?GetPosition@CvDllUnit@@UBGXAAH0@Z
	DD	FLAT:?CanSwapWithUnitHere@CvDllUnit@@UBG_NPAVICvPlot1@@@Z
	DD	FLAT:?CanEmbarkOnto@CvDllUnit@@UBG_NPAVICvPlot1@@0_N@Z
	DD	FLAT:?CanDisembarkOnto@CvDllUnit@@UBG_NPAVICvPlot1@@0_N@Z
	DD	FLAT:?IsFirstTimeSelected@CvDllUnit@@UBG_NXZ
	DD	FLAT:?GetUnitType@CvDllUnit@@UBG?AW4UnitTypes@@XZ
	DD	FLAT:?IsDelayedDeathExported@CvDllUnit@@UBG_NXZ
	DD	FLAT:?IsBusy@CvDllUnit@@UBG_NXZ
	DD	FLAT:?SetupGraphical@CvDllUnit@@UAGXXZ
	DD	FLAT:?GetName@CvDllUnit@@UBG?AVCvString@@XZ
	DD	FLAT:?DoCommand@CvDllUnit@@UAGXW4CommandTypes@@HH@Z
	DD	FLAT:?CanDoInterfaceMode@CvDllUnit@@UAG_NW4InterfaceModeTypes@@_N@Z
	DD	FLAT:?GetIDInfo@CvDllUnit@@UBG?AUIDInfo@@XZ
	DD	FLAT:?MovesLeft@CvDllUnit@@UBGHXZ
	DD	FLAT:?CanMoveInto@CvDllUnit@@UBG_NPAVICvPlot1@@E@Z
	DD	FLAT:?GetDeclareWarMove@CvDllUnit@@UBG?AW4TeamTypes@@PAVICvPlot1@@@Z
	DD	FLAT:?ReadyToSelect@CvDllUnit@@UBG_NXZ
	DD	FLAT:?CanWork@CvDllUnit@@UBG_NXZ
	DD	FLAT:?CanFound@CvDllUnit@@UBG_NXZ
	DD	FLAT:?GetSyncArchive@CvDllUnit@@UAGAAVFAutoArchive@@XZ
	DD	FLAT:?IsTrade@CvDllUnit@@UBG_NXZ
CONST	ENDS
;	COMDAT ??_7ICvUnit2@@6B@
CONST	SEGMENT
??_7ICvUnit2@@6B@ DD FLAT:__purecall			; ICvUnit2::`vftable'
	DD	FLAT:__purecall
	DD	FLAT:__purecall
	DD	FLAT:__purecall
	DD	FLAT:__purecall
	DD	FLAT:__purecall
	DD	FLAT:__purecall
	DD	FLAT:__purecall
	DD	FLAT:__purecall
	DD	FLAT:__purecall
	DD	FLAT:__purecall
	DD	FLAT:__purecall
	DD	FLAT:__purecall
	DD	FLAT:__purecall
	DD	FLAT:__purecall
	DD	FLAT:__purecall
	DD	FLAT:__purecall
	DD	FLAT:__purecall
	DD	FLAT:__purecall
	DD	FLAT:__purecall
	DD	FLAT:__purecall
	DD	FLAT:__purecall
	DD	FLAT:__purecall
	DD	FLAT:__purecall
	DD	FLAT:__purecall
	DD	FLAT:__purecall
	DD	FLAT:__purecall
	DD	FLAT:__purecall
	DD	FLAT:__purecall
	DD	FLAT:__purecall
	DD	FLAT:__purecall
	DD	FLAT:__purecall
	DD	FLAT:__purecall
	DD	FLAT:__purecall
	DD	FLAT:__purecall
	DD	FLAT:__purecall
	DD	FLAT:__purecall
	DD	FLAT:__purecall
	DD	FLAT:__purecall
	DD	FLAT:__purecall
	DD	FLAT:__purecall
	DD	FLAT:__purecall
	DD	FLAT:__purecall
	DD	FLAT:__purecall
	DD	FLAT:__purecall
	DD	FLAT:__purecall
CONST	ENDS
;	COMDAT ??_7ICvUnit1@@6B@
CONST	SEGMENT
??_7ICvUnit1@@6B@ DD FLAT:__purecall			; ICvUnit1::`vftable'
	DD	FLAT:__purecall
	DD	FLAT:__purecall
	DD	FLAT:__purecall
	DD	FLAT:__purecall
	DD	FLAT:__purecall
	DD	FLAT:__purecall
	DD	FLAT:__purecall
	DD	FLAT:__purecall
	DD	FLAT:__purecall
	DD	FLAT:__purecall
	DD	FLAT:__purecall
	DD	FLAT:__purecall
	DD	FLAT:__purecall
	DD	FLAT:__purecall
	DD	FLAT:__purecall
	DD	FLAT:__purecall
	DD	FLAT:__purecall
	DD	FLAT:__purecall
	DD	FLAT:__purecall
	DD	FLAT:__purecall
	DD	FLAT:__purecall
	DD	FLAT:__purecall
	DD	FLAT:__purecall
	DD	FLAT:__purecall
	DD	FLAT:__purecall
	DD	FLAT:__purecall
	DD	FLAT:__purecall
	DD	FLAT:__purecall
	DD	FLAT:__purecall
	DD	FLAT:__purecall
	DD	FLAT:__purecall
	DD	FLAT:__purecall
	DD	FLAT:__purecall
	DD	FLAT:__purecall
	DD	FLAT:__purecall
	DD	FLAT:__purecall
	DD	FLAT:__purecall
	DD	FLAT:__purecall
	DD	FLAT:__purecall
	DD	FLAT:__purecall
	DD	FLAT:__purecall
	DD	FLAT:__purecall
	DD	FLAT:__purecall
	DD	FLAT:__purecall
CONST	ENDS
;	COMDAT ??_7ICvUnknown@@6B@
CONST	SEGMENT
??_7ICvUnknown@@6B@ DD FLAT:__purecall			; ICvUnknown::`vftable'
	DD	FLAT:__purecall
; Function compile flags: /Odtp
CONST	ENDS
;	COMDAT ??0CvDllUnit@@QAE@PAVCvUnit@@@Z
_TEXT	SEGMENT
_this$ = -4						; size = 4
_pUnit$ = 8						; size = 4
??0CvDllUnit@@QAE@PAVCvUnit@@@Z PROC			; CvDllUnit::CvDllUnit, COMDAT
; _this$ = ecx

; 22   : {

	push	ebp
	mov	ebp, esp
	push	ecx
	mov	DWORD PTR _this$[ebp], ecx
	mov	eax, DWORD PTR _this$[ebp]
	mov	DWORD PTR [eax], OFFSET ??_7ICvUnknown@@6B@
	mov	ecx, DWORD PTR _this$[ebp]
	mov	DWORD PTR [ecx], OFFSET ??_7ICvUnit1@@6B@
	mov	edx, DWORD PTR _this$[ebp]
	mov	DWORD PTR [edx], OFFSET ??_7ICvUnit2@@6B@
	mov	eax, DWORD PTR _this$[ebp]
	mov	DWORD PTR [eax], OFFSET ??_7CvDllUnit@@6B@
	mov	ecx, DWORD PTR _this$[ebp]
	mov	DWORD PTR [ecx+4], 1
	mov	edx, DWORD PTR _this$[ebp]
	mov	eax, DWORD PTR _pUnit$[ebp]
	mov	DWORD PTR [edx+8], eax

; 23   : 	FAssertMsg(pUnit != NULL, "SHOULD NOT HAPPEN");
; 24   : }

	mov	eax, DWORD PTR _this$[ebp]
	mov	esp, ebp
	pop	ebp
	ret	4
??0CvDllUnit@@QAE@PAVCvUnit@@@Z ENDP			; CvDllUnit::CvDllUnit
_TEXT	ENDS
PUBLIC	??1CvDllUnit@@QAE@XZ				; CvDllUnit::~CvDllUnit
; Function compile flags: /Odtp
;	COMDAT ??1CvDllUnit@@QAE@XZ
_TEXT	SEGMENT
_this$ = -4						; size = 4
??1CvDllUnit@@QAE@XZ PROC				; CvDllUnit::~CvDllUnit, COMDAT
; _this$ = ecx

; 27   : {

	push	ebp
	mov	ebp, esp
	push	ecx
	mov	DWORD PTR _this$[ebp], ecx
	mov	eax, DWORD PTR _this$[ebp]
	mov	DWORD PTR [eax], OFFSET ??_7CvDllUnit@@6B@

; 28   : }

	mov	esp, ebp
	pop	ebp
	ret	0
??1CvDllUnit@@QAE@XZ ENDP				; CvDllUnit::~CvDllUnit
_TEXT	ENDS
PUBLIC	?IncrementReference@CvDllUnit@@QAEIXZ		; CvDllUnit::IncrementReference
; Function compile flags: /Odtp
;	COMDAT ?QueryInterface@CvDllUnit@@UAGPAXU_GUID@@@Z
_TEXT	SEGMENT
tv134 = -128						; size = 4
tv197 = -124						; size = 4
tv129 = -120						; size = 4
tv173 = -116						; size = 4
tv92 = -112						; size = 4
tv149 = -108						; size = 4
$T218467 = -104						; size = 16
$T218466 = -88						; size = 16
$T218465 = -72						; size = 16
$T218464 = -56						; size = 16
$T218463 = -40						; size = 16
$T218462 = -20						; size = 16
_this$ = 8						; size = 4
_guidInterface$ = 12					; size = 16
?QueryInterface@CvDllUnit@@UAGPAXU_GUID@@@Z PROC	; CvDllUnit::QueryInterface, COMDAT

; 31   : {

	push	ebp
	mov	ebp, esp
	sub	esp, 128				; 00000080H
	push	esi
	push	edi

; 32   : 	if(	guidInterface == ICvUnknown::GetInterfaceId()	||
; 33   : 	    guidInterface == ICvUnit1::GetInterfaceId()		||
; 34   : 		guidInterface == ICvUnit2::GetInterfaceId())

	mov	eax, DWORD PTR _guidICvUnknown
	mov	DWORD PTR $T218463[ebp], eax
	mov	ecx, DWORD PTR _guidICvUnknown+4
	mov	DWORD PTR $T218463[ebp+4], ecx
	mov	edx, DWORD PTR _guidICvUnknown+8
	mov	DWORD PTR $T218463[ebp+8], edx
	mov	eax, DWORD PTR _guidICvUnknown+12
	mov	DWORD PTR $T218463[ebp+12], eax
	mov	ecx, DWORD PTR $T218463[ebp]
	mov	DWORD PTR $T218462[ebp], ecx
	mov	edx, DWORD PTR $T218463[ebp+4]
	mov	DWORD PTR $T218462[ebp+4], edx
	mov	eax, DWORD PTR $T218463[ebp+8]
	mov	DWORD PTR $T218462[ebp+8], eax
	mov	ecx, DWORD PTR $T218463[ebp+12]
	mov	DWORD PTR $T218462[ebp+12], ecx
	mov	ecx, 16					; 00000010H
	lea	edi, DWORD PTR $T218462[ebp]
	lea	esi, DWORD PTR _guidInterface$[ebp]
	xor	edx, edx
	mov	DWORD PTR tv149[ebp], edx
	repe cmpsb
	je	SHORT $LN23@QueryInter
	sbb	eax, eax
	sbb	eax, -1
	mov	DWORD PTR tv149[ebp], eax
$LN23@QueryInter:
	mov	ecx, DWORD PTR tv149[ebp]
	mov	DWORD PTR tv92[ebp], ecx
	xor	edx, edx
	cmp	DWORD PTR tv92[ebp], 0
	sete	dl
	test	edx, edx
	jne	$LN1@QueryInter
	mov	eax, DWORD PTR _guidICvUnit1
	mov	DWORD PTR $T218465[ebp], eax
	mov	ecx, DWORD PTR _guidICvUnit1+4
	mov	DWORD PTR $T218465[ebp+4], ecx
	mov	edx, DWORD PTR _guidICvUnit1+8
	mov	DWORD PTR $T218465[ebp+8], edx
	mov	eax, DWORD PTR _guidICvUnit1+12
	mov	DWORD PTR $T218465[ebp+12], eax
	mov	ecx, DWORD PTR $T218465[ebp]
	mov	DWORD PTR $T218464[ebp], ecx
	mov	edx, DWORD PTR $T218465[ebp+4]
	mov	DWORD PTR $T218464[ebp+4], edx
	mov	eax, DWORD PTR $T218465[ebp+8]
	mov	DWORD PTR $T218464[ebp+8], eax
	mov	ecx, DWORD PTR $T218465[ebp+12]
	mov	DWORD PTR $T218464[ebp+12], ecx
	mov	ecx, 16					; 00000010H
	lea	edi, DWORD PTR $T218464[ebp]
	lea	esi, DWORD PTR _guidInterface$[ebp]
	xor	edx, edx
	mov	DWORD PTR tv173[ebp], edx
	repe cmpsb
	je	SHORT $LN24@QueryInter
	sbb	eax, eax
	sbb	eax, -1
	mov	DWORD PTR tv173[ebp], eax
$LN24@QueryInter:
	mov	ecx, DWORD PTR tv173[ebp]
	mov	DWORD PTR tv129[ebp], ecx
	xor	edx, edx
	cmp	DWORD PTR tv129[ebp], 0
	sete	dl
	test	edx, edx
	jne	SHORT $LN1@QueryInter
	mov	eax, DWORD PTR _guidICvUnit2
	mov	DWORD PTR $T218467[ebp], eax
	mov	ecx, DWORD PTR _guidICvUnit2+4
	mov	DWORD PTR $T218467[ebp+4], ecx
	mov	edx, DWORD PTR _guidICvUnit2+8
	mov	DWORD PTR $T218467[ebp+8], edx
	mov	eax, DWORD PTR _guidICvUnit2+12
	mov	DWORD PTR $T218467[ebp+12], eax
	mov	ecx, DWORD PTR $T218467[ebp]
	mov	DWORD PTR $T218466[ebp], ecx
	mov	edx, DWORD PTR $T218467[ebp+4]
	mov	DWORD PTR $T218466[ebp+4], edx
	mov	eax, DWORD PTR $T218467[ebp+8]
	mov	DWORD PTR $T218466[ebp+8], eax
	mov	ecx, DWORD PTR $T218467[ebp+12]
	mov	DWORD PTR $T218466[ebp+12], ecx
	mov	ecx, 16					; 00000010H
	lea	edi, DWORD PTR $T218466[ebp]
	lea	esi, DWORD PTR _guidInterface$[ebp]
	xor	edx, edx
	mov	DWORD PTR tv197[ebp], edx
	repe cmpsb
	je	SHORT $LN25@QueryInter
	sbb	eax, eax
	sbb	eax, -1
	mov	DWORD PTR tv197[ebp], eax
$LN25@QueryInter:
	mov	ecx, DWORD PTR tv197[ebp]
	mov	DWORD PTR tv134[ebp], ecx
	xor	edx, edx
	cmp	DWORD PTR tv134[ebp], 0
	sete	dl
	test	edx, edx
	je	SHORT $LN2@QueryInter
$LN1@QueryInter:

; 35   : 	{
; 36   : 		IncrementReference();

	mov	ecx, DWORD PTR _this$[ebp]
	call	?IncrementReference@CvDllUnit@@QAEIXZ	; CvDllUnit::IncrementReference

; 37   : 		return this;

	mov	eax, DWORD PTR _this$[ebp]
	jmp	SHORT $LN3@QueryInter
$LN2@QueryInter:

; 38   : 	}
; 39   : 
; 40   : 	return NULL;

	xor	eax, eax
$LN3@QueryInter:

; 41   : }

	pop	edi
	pop	esi
	mov	esp, ebp
	pop	ebp
	ret	20					; 00000014H
?QueryInterface@CvDllUnit@@UAGPAXU_GUID@@@Z ENDP	; CvDllUnit::QueryInterface
; Function compile flags: /Odtp
_TEXT	ENDS
;	COMDAT ?IncrementReference@CvDllUnit@@QAEIXZ
_TEXT	SEGMENT
_this$ = -4						; size = 4
?IncrementReference@CvDllUnit@@QAEIXZ PROC		; CvDllUnit::IncrementReference, COMDAT
; _this$ = ecx

; 44   : {

	push	ebp
	mov	ebp, esp
	push	ecx
	mov	DWORD PTR _this$[ebp], ecx

; 45   : 	++m_uiRefCount;

	mov	eax, DWORD PTR _this$[ebp]
	mov	ecx, DWORD PTR [eax+4]
	add	ecx, 1
	mov	edx, DWORD PTR _this$[ebp]
	mov	DWORD PTR [edx+4], ecx

; 46   : 	return m_uiRefCount;

	mov	eax, DWORD PTR _this$[ebp]
	mov	eax, DWORD PTR [eax+4]

; 47   : }

	mov	esp, ebp
	pop	ebp
	ret	0
?IncrementReference@CvDllUnit@@QAEIXZ ENDP		; CvDllUnit::IncrementReference
_TEXT	ENDS
PUBLIC	??3CvDllUnit@@SAXPAX@Z				; CvDllUnit::operator delete
PUBLIC	?DecrementReference@CvDllUnit@@QAEIXZ		; CvDllUnit::DecrementReference
; Function compile flags: /Odtp
;	COMDAT ?DecrementReference@CvDllUnit@@QAEIXZ
_TEXT	SEGMENT
tv70 = -16						; size = 4
_this$ = -12						; size = 4
$T218512 = -8						; size = 4
$T218511 = -4						; size = 4
?DecrementReference@CvDllUnit@@QAEIXZ PROC		; CvDllUnit::DecrementReference, COMDAT
; _this$ = ecx

; 50   : {

	push	ebp
	mov	ebp, esp
	sub	esp, 16					; 00000010H
	mov	DWORD PTR _this$[ebp], ecx

; 51   : 	if(m_uiRefCount == 1)

	mov	eax, DWORD PTR _this$[ebp]
	cmp	DWORD PTR [eax+4], 1
	jne	SHORT $LN2@DecrementR

; 52   : 	{
; 53   : 		delete this;

	mov	ecx, DWORD PTR _this$[ebp]
	mov	DWORD PTR $T218512[ebp], ecx
	mov	edx, DWORD PTR $T218512[ebp]
	mov	DWORD PTR $T218511[ebp], edx
	cmp	DWORD PTR $T218511[ebp], 0
	je	SHORT $LN5@DecrementR
	mov	ecx, DWORD PTR $T218511[ebp]
	call	??1CvDllUnit@@QAE@XZ			; CvDllUnit::~CvDllUnit
	mov	eax, 1
	and	eax, 1
	je	SHORT $LN8@DecrementR
	mov	ecx, DWORD PTR $T218511[ebp]
	push	ecx
	call	??3CvDllUnit@@SAXPAX@Z			; CvDllUnit::operator delete
	add	esp, 4
$LN8@DecrementR:
	mov	edx, DWORD PTR $T218511[ebp]
	mov	DWORD PTR tv70[ebp], edx
	jmp	SHORT $LN6@DecrementR
$LN5@DecrementR:
	mov	DWORD PTR tv70[ebp], 0
$LN6@DecrementR:

; 54   : 		return 0;

	xor	eax, eax
	jmp	SHORT $LN3@DecrementR

; 55   : 	}
; 56   : 	else

	jmp	SHORT $LN3@DecrementR
$LN2@DecrementR:

; 57   : 	{
; 58   : 		--m_uiRefCount;

	mov	eax, DWORD PTR _this$[ebp]
	mov	ecx, DWORD PTR [eax+4]
	sub	ecx, 1
	mov	edx, DWORD PTR _this$[ebp]
	mov	DWORD PTR [edx+4], ecx

; 59   : 		return m_uiRefCount;

	mov	eax, DWORD PTR _this$[ebp]
	mov	eax, DWORD PTR [eax+4]
$LN3@DecrementR:

; 60   : 	}
; 61   : }

	mov	esp, ebp
	pop	ebp
	ret	0
?DecrementReference@CvDllUnit@@QAEIXZ ENDP		; CvDllUnit::DecrementReference
_TEXT	ENDS
PUBLIC	?GetReferenceCount@CvDllUnit@@QAEIXZ		; CvDllUnit::GetReferenceCount
; Function compile flags: /Odtp
;	COMDAT ?GetReferenceCount@CvDllUnit@@QAEIXZ
_TEXT	SEGMENT
_this$ = -4						; size = 4
?GetReferenceCount@CvDllUnit@@QAEIXZ PROC		; CvDllUnit::GetReferenceCount, COMDAT
; _this$ = ecx

; 64   : {

	push	ebp
	mov	ebp, esp
	push	ecx
	mov	DWORD PTR _this$[ebp], ecx

; 65   : 	return m_uiRefCount;

	mov	eax, DWORD PTR _this$[ebp]
	mov	eax, DWORD PTR [eax+4]

; 66   : }

	mov	esp, ebp
	pop	ebp
	ret	0
?GetReferenceCount@CvDllUnit@@QAEIXZ ENDP		; CvDllUnit::GetReferenceCount
; Function compile flags: /Odtp
_TEXT	ENDS
;	COMDAT ?Destroy@CvDllUnit@@EAGXXZ
_TEXT	SEGMENT
_this$ = 8						; size = 4
?Destroy@CvDllUnit@@EAGXXZ PROC				; CvDllUnit::Destroy, COMDAT

; 69   : {

	push	ebp
	mov	ebp, esp

; 70   : 	DecrementReference();

	mov	ecx, DWORD PTR _this$[ebp]
	call	?DecrementReference@CvDllUnit@@QAEIXZ	; CvDllUnit::DecrementReference

; 71   : }

	pop	ebp
	ret	4
?Destroy@CvDllUnit@@EAGXXZ ENDP				; CvDllUnit::Destroy
_TEXT	ENDS
EXTRN	?Free@CvDllGameContext@@SAXPAX@Z:PROC		; CvDllGameContext::Free
; Function compile flags: /Odtp
;	COMDAT ??3CvDllUnit@@SAXPAX@Z
_TEXT	SEGMENT
_p$ = 8							; size = 4
??3CvDllUnit@@SAXPAX@Z PROC				; CvDllUnit::operator delete, COMDAT

; 74   : {

	push	ebp
	mov	ebp, esp

; 75   : 	CvDllGameContext::Free(p);

	mov	eax, DWORD PTR _p$[ebp]
	push	eax
	call	?Free@CvDllGameContext@@SAXPAX@Z	; CvDllGameContext::Free
	add	esp, 4

; 76   : }

	pop	ebp
	ret	0
??3CvDllUnit@@SAXPAX@Z ENDP				; CvDllUnit::operator delete
_TEXT	ENDS
PUBLIC	??2CvDllUnit@@SAPAXI@Z				; CvDllUnit::operator new
EXTRN	?Allocate@CvDllGameContext@@SAPAXI@Z:PROC	; CvDllGameContext::Allocate
; Function compile flags: /Odtp
;	COMDAT ??2CvDllUnit@@SAPAXI@Z
_TEXT	SEGMENT
_bytes$ = 8						; size = 4
??2CvDllUnit@@SAPAXI@Z PROC				; CvDllUnit::operator new, COMDAT

; 79   : {

	push	ebp
	mov	ebp, esp

; 80   : 	return CvDllGameContext::Allocate(bytes);

	mov	eax, DWORD PTR _bytes$[ebp]
	push	eax
	call	?Allocate@CvDllGameContext@@SAPAXI@Z	; CvDllGameContext::Allocate
	add	esp, 4

; 81   : }

	pop	ebp
	ret	0
??2CvDllUnit@@SAPAXI@Z ENDP				; CvDllUnit::operator new
_TEXT	ENDS
PUBLIC	?GetInstance@CvDllUnit@@QAEPAVCvUnit@@XZ	; CvDllUnit::GetInstance
; Function compile flags: /Odtp
;	COMDAT ?GetInstance@CvDllUnit@@QAEPAVCvUnit@@XZ
_TEXT	SEGMENT
_this$ = -4						; size = 4
?GetInstance@CvDllUnit@@QAEPAVCvUnit@@XZ PROC		; CvDllUnit::GetInstance, COMDAT
; _this$ = ecx

; 84   : {

	push	ebp
	mov	ebp, esp
	push	ecx
	mov	DWORD PTR _this$[ebp], ecx

; 85   : 	return m_pUnit;

	mov	eax, DWORD PTR _this$[ebp]
	mov	eax, DWORD PTR [eax+8]

; 86   : }

	mov	esp, ebp
	pop	ebp
	ret	0
?GetInstance@CvDllUnit@@QAEPAVCvUnit@@XZ ENDP		; CvDllUnit::GetInstance
; Function compile flags: /Odtp
_TEXT	ENDS
;	COMDAT ?GetID@CvDllUnit@@UBGHXZ
_TEXT	SEGMENT
$T218539 = -4						; size = 4
_this$ = 8						; size = 4
?GetID@CvDllUnit@@UBGHXZ PROC				; CvDllUnit::GetID, COMDAT

; 89   : {

	push	ebp
	mov	ebp, esp
	push	ecx

; 90   : 	return m_pUnit->GetID();

	mov	eax, DWORD PTR _this$[ebp]
	mov	ecx, DWORD PTR [eax+8]
	mov	edx, DWORD PTR [ecx+100]
	mov	DWORD PTR $T218539[ebp], edx
	mov	eax, DWORD PTR $T218539[ebp]

; 91   : }

	mov	esp, ebp
	pop	ebp
	ret	4
?GetID@CvDllUnit@@UBGHXZ ENDP				; CvDllUnit::GetID
; Function compile flags: /Odtp
_TEXT	ENDS
;	COMDAT ?GetOwner@CvDllUnit@@UBG?AW4PlayerTypes@@XZ
_TEXT	SEGMENT
$T218550 = -4						; size = 4
_this$ = 8						; size = 4
?GetOwner@CvDllUnit@@UBG?AW4PlayerTypes@@XZ PROC	; CvDllUnit::GetOwner, COMDAT

; 94   : {

	push	ebp
	mov	ebp, esp
	push	ecx

; 95   : 	return m_pUnit->getOwner();

	mov	eax, DWORD PTR _this$[ebp]
	mov	ecx, DWORD PTR [eax+8]
	mov	edx, DWORD PTR [ecx+40]
	mov	DWORD PTR $T218550[ebp], edx
	mov	eax, DWORD PTR $T218550[ebp]

; 96   : }

	mov	esp, ebp
	pop	ebp
	ret	4
?GetOwner@CvDllUnit@@UBG?AW4PlayerTypes@@XZ ENDP	; CvDllUnit::GetOwner
_TEXT	ENDS
EXTRN	?getDamage@CvUnit@@QBEHXZ:PROC			; CvUnit::getDamage
; Function compile flags: /Odtp
;	COMDAT ?GetDamage@CvDllUnit@@UBGHXZ
_TEXT	SEGMENT
_this$ = 8						; size = 4
?GetDamage@CvDllUnit@@UBGHXZ PROC			; CvDllUnit::GetDamage, COMDAT

; 99   : {

	push	ebp
	mov	ebp, esp

; 100  : 	return m_pUnit->getDamage();

	mov	eax, DWORD PTR _this$[ebp]
	mov	ecx, DWORD PTR [eax+8]
	call	?getDamage@CvUnit@@QBEHXZ		; CvUnit::getDamage

; 101  : }

	pop	ebp
	ret	4
?GetDamage@CvDllUnit@@UBGHXZ ENDP			; CvDllUnit::GetDamage
_TEXT	ENDS
EXTRN	?getMoves@CvUnit@@QBEHXZ:PROC			; CvUnit::getMoves
; Function compile flags: /Odtp
;	COMDAT ?GetMoves@CvDllUnit@@UBGHXZ
_TEXT	SEGMENT
_this$ = 8						; size = 4
?GetMoves@CvDllUnit@@UBGHXZ PROC			; CvDllUnit::GetMoves, COMDAT

; 104  : {

	push	ebp
	mov	ebp, esp

; 105  : 	return m_pUnit->getMoves();

	mov	eax, DWORD PTR _this$[ebp]
	mov	ecx, DWORD PTR [eax+8]
	call	?getMoves@CvUnit@@QBEHXZ		; CvUnit::getMoves

; 106  : }

	pop	ebp
	ret	4
?GetMoves@CvDllUnit@@UBGHXZ ENDP			; CvDllUnit::GetMoves
_TEXT	ENDS
EXTRN	?IsSelected@CvUnit@@QBE_NXZ:PROC		; CvUnit::IsSelected
; Function compile flags: /Odtp
;	COMDAT ?IsSelected@CvDllUnit@@UBG_NXZ
_TEXT	SEGMENT
_this$ = 8						; size = 4
?IsSelected@CvDllUnit@@UBG_NXZ PROC			; CvDllUnit::IsSelected, COMDAT

; 109  : {

	push	ebp
	mov	ebp, esp

; 110  : 	return m_pUnit->IsSelected();

	mov	eax, DWORD PTR _this$[ebp]
	mov	ecx, DWORD PTR [eax+8]
	call	?IsSelected@CvUnit@@QBE_NXZ		; CvUnit::IsSelected

; 111  : }

	pop	ebp
	ret	4
?IsSelected@CvDllUnit@@UBG_NXZ ENDP			; CvDllUnit::IsSelected
_TEXT	ENDS
EXTRN	?GetMaxHitPoints@CvUnit@@QBEHXZ:PROC		; CvUnit::GetMaxHitPoints
; Function compile flags: /Odtp
;	COMDAT ?GetMaxHitPoints@CvDllUnit@@UBGHXZ
_TEXT	SEGMENT
_this$ = 8						; size = 4
?GetMaxHitPoints@CvDllUnit@@UBGHXZ PROC			; CvDllUnit::GetMaxHitPoints, COMDAT

; 114  : {

	push	ebp
	mov	ebp, esp

; 115  : 	return m_pUnit->GetMaxHitPoints();

	mov	eax, DWORD PTR _this$[ebp]
	mov	ecx, DWORD PTR [eax+8]
	call	?GetMaxHitPoints@CvUnit@@QBEHXZ		; CvUnit::GetMaxHitPoints

; 116  : }

	pop	ebp
	ret	4
?GetMaxHitPoints@CvDllUnit@@UBGHXZ ENDP			; CvDllUnit::GetMaxHitPoints
_TEXT	ENDS
EXTRN	?getCivilizationType@CvUnit@@QBE?AW4CivilizationTypes@@XZ:PROC ; CvUnit::getCivilizationType
; Function compile flags: /Odtp
;	COMDAT ?GetCivilizationType@CvDllUnit@@UBG?AW4CivilizationTypes@@XZ
_TEXT	SEGMENT
_this$ = 8						; size = 4
?GetCivilizationType@CvDllUnit@@UBG?AW4CivilizationTypes@@XZ PROC ; CvDllUnit::GetCivilizationType, COMDAT

; 119  : {

	push	ebp
	mov	ebp, esp

; 120  : 	return m_pUnit->getCivilizationType();

	mov	eax, DWORD PTR _this$[ebp]
	mov	ecx, DWORD PTR [eax+8]
	call	?getCivilizationType@CvUnit@@QBE?AW4CivilizationTypes@@XZ ; CvUnit::getCivilizationType

; 121  : }

	pop	ebp
	ret	4
?GetCivilizationType@CvDllUnit@@UBG?AW4CivilizationTypes@@XZ ENDP ; CvDllUnit::GetCivilizationType
_TEXT	ENDS
EXTRN	?getTeam@CvUnit@@QBE?AW4TeamTypes@@XZ:PROC	; CvUnit::getTeam
; Function compile flags: /Odtp
;	COMDAT ?GetTeam@CvDllUnit@@UBG?AW4TeamTypes@@XZ
_TEXT	SEGMENT
_this$ = 8						; size = 4
?GetTeam@CvDllUnit@@UBG?AW4TeamTypes@@XZ PROC		; CvDllUnit::GetTeam, COMDAT

; 124  : {

	push	ebp
	mov	ebp, esp

; 125  : 	return m_pUnit->getTeam();

	mov	eax, DWORD PTR _this$[ebp]
	mov	ecx, DWORD PTR [eax+8]
	call	?getTeam@CvUnit@@QBE?AW4TeamTypes@@XZ	; CvUnit::getTeam

; 126  : }

	pop	ebp
	ret	4
?GetTeam@CvDllUnit@@UBG?AW4TeamTypes@@XZ ENDP		; CvDllUnit::GetTeam
_TEXT	ENDS
EXTRN	?getDomainType@CvUnit@@QBE?AW4DomainTypes@@XZ:PROC ; CvUnit::getDomainType
; Function compile flags: /Odtp
;	COMDAT ?GetDomainType@CvDllUnit@@UBG?AW4DomainTypes@@XZ
_TEXT	SEGMENT
_this$ = 8						; size = 4
?GetDomainType@CvDllUnit@@UBG?AW4DomainTypes@@XZ PROC	; CvDllUnit::GetDomainType, COMDAT

; 129  : {

	push	ebp
	mov	ebp, esp

; 130  : 	return m_pUnit->getDomainType();

	mov	eax, DWORD PTR _this$[ebp]
	mov	ecx, DWORD PTR [eax+8]
	call	?getDomainType@CvUnit@@QBE?AW4DomainTypes@@XZ ; CvUnit::getDomainType

; 131  : }

	pop	ebp
	ret	4
?GetDomainType@CvDllUnit@@UBG?AW4DomainTypes@@XZ ENDP	; CvDllUnit::GetDomainType
; Function compile flags: /Odtp
_TEXT	ENDS
;	COMDAT ?IsCombatUnit@CvDllUnit@@UBG_NXZ
_TEXT	SEGMENT
_this$ = 8						; size = 4
?IsCombatUnit@CvDllUnit@@UBG_NXZ PROC			; CvDllUnit::IsCombatUnit, COMDAT

; 134  : {

	push	ebp
	mov	ebp, esp

; 135  : 	return m_pUnit->IsCombatUnit();

	mov	eax, DWORD PTR _this$[ebp]
	mov	ecx, DWORD PTR [eax+8]
	xor	eax, eax
	cmp	DWORD PTR [ecx+1044], 0
	setg	al

; 136  : }

	pop	ebp
	ret	4
?IsCombatUnit@CvDllUnit@@UBG_NXZ ENDP			; CvDllUnit::IsCombatUnit
_TEXT	ENDS
EXTRN	?isBarbarian@CvUnit@@QBE_NXZ:PROC		; CvUnit::isBarbarian
; Function compile flags: /Odtp
;	COMDAT ?IsBarbarian@CvDllUnit@@UBG_NXZ
_TEXT	SEGMENT
_this$ = 8						; size = 4
?IsBarbarian@CvDllUnit@@UBG_NXZ PROC			; CvDllUnit::IsBarbarian, COMDAT

; 139  : {

	push	ebp
	mov	ebp, esp

; 140  : 	return m_pUnit->isBarbarian();

	mov	eax, DWORD PTR _this$[ebp]
	mov	ecx, DWORD PTR [eax+8]
	call	?isBarbarian@CvUnit@@QBE_NXZ		; CvUnit::isBarbarian

; 141  : }

	pop	ebp
	ret	4
?IsBarbarian@CvDllUnit@@UBG_NXZ ENDP			; CvDllUnit::IsBarbarian
_TEXT	ENDS
EXTRN	?IsHoveringUnit@CvUnit@@QBE_NXZ:PROC		; CvUnit::IsHoveringUnit
; Function compile flags: /Odtp
;	COMDAT ?IsHoveringUnit@CvDllUnit@@UBG_NXZ
_TEXT	SEGMENT
_this$ = 8						; size = 4
?IsHoveringUnit@CvDllUnit@@UBG_NXZ PROC			; CvDllUnit::IsHoveringUnit, COMDAT

; 144  : {

	push	ebp
	mov	ebp, esp

; 145  : 	return m_pUnit->IsHoveringUnit();

	mov	eax, DWORD PTR _this$[ebp]
	mov	ecx, DWORD PTR [eax+8]
	call	?IsHoveringUnit@CvUnit@@QBE_NXZ		; CvUnit::IsHoveringUnit

; 146  : }

	pop	ebp
	ret	4
?IsHoveringUnit@CvDllUnit@@UBG_NXZ ENDP			; CvDllUnit::IsHoveringUnit
_TEXT	ENDS
EXTRN	?isInvisible@CvUnit@@QBE_NW4TeamTypes@@_N1@Z:PROC ; CvUnit::isInvisible
; Function compile flags: /Odtp
;	COMDAT ?IsInvisible@CvDllUnit@@UBG_NW4TeamTypes@@_N@Z
_TEXT	SEGMENT
_this$ = 8						; size = 4
_eTeam$ = 12						; size = 4
_bDebug$ = 16						; size = 1
?IsInvisible@CvDllUnit@@UBG_NW4TeamTypes@@_N@Z PROC	; CvDllUnit::IsInvisible, COMDAT

; 149  : {

	push	ebp
	mov	ebp, esp

; 150  : 	return m_pUnit->isInvisible(eTeam, bDebug);

	push	1
	movzx	eax, BYTE PTR _bDebug$[ebp]
	push	eax
	mov	ecx, DWORD PTR _eTeam$[ebp]
	push	ecx
	mov	edx, DWORD PTR _this$[ebp]
	mov	ecx, DWORD PTR [edx+8]
	call	?isInvisible@CvUnit@@QBE_NW4TeamTypes@@_N1@Z ; CvUnit::isInvisible

; 151  : }

	pop	ebp
	ret	12					; 0000000cH
?IsInvisible@CvDllUnit@@UBG_NW4TeamTypes@@_N@Z ENDP	; CvDllUnit::IsInvisible
_TEXT	ENDS
EXTRN	?canMoveImpassable@CvUnit@@QBE_NXZ:PROC		; CvUnit::canMoveImpassable
; Function compile flags: /Odtp
;	COMDAT ?CanMoveImpassable@CvDllUnit@@UBG_NXZ
_TEXT	SEGMENT
_this$ = 8						; size = 4
?CanMoveImpassable@CvDllUnit@@UBG_NXZ PROC		; CvDllUnit::CanMoveImpassable, COMDAT

; 154  : {

	push	ebp
	mov	ebp, esp

; 155  : 	return m_pUnit->canMoveImpassable();

	mov	eax, DWORD PTR _this$[ebp]
	mov	ecx, DWORD PTR [eax+8]
	call	?canMoveImpassable@CvUnit@@QBE_NXZ	; CvUnit::canMoveImpassable

; 156  : }

	pop	ebp
	ret	4
?CanMoveImpassable@CvDllUnit@@UBG_NXZ ENDP		; CvDllUnit::CanMoveImpassable
_TEXT	ENDS
EXTRN	?getFacingDirection@CvUnit@@QBE?AW4DirectionTypes@@_N@Z:PROC ; CvUnit::getFacingDirection
; Function compile flags: /Odtp
;	COMDAT ?GetFacingDirection@CvDllUnit@@UBG?AW4DirectionTypes@@_N@Z
_TEXT	SEGMENT
_this$ = 8						; size = 4
_checkLineOfSightProperty$ = 12				; size = 1
?GetFacingDirection@CvDllUnit@@UBG?AW4DirectionTypes@@_N@Z PROC ; CvDllUnit::GetFacingDirection, COMDAT

; 159  : {

	push	ebp
	mov	ebp, esp

; 160  : 	return m_pUnit->getFacingDirection(checkLineOfSightProperty);

	movzx	eax, BYTE PTR _checkLineOfSightProperty$[ebp]
	push	eax
	mov	ecx, DWORD PTR _this$[ebp]
	mov	ecx, DWORD PTR [ecx+8]
	call	?getFacingDirection@CvUnit@@QBE?AW4DirectionTypes@@_N@Z ; CvUnit::getFacingDirection

; 161  : }

	pop	ebp
	ret	8
?GetFacingDirection@CvDllUnit@@UBG?AW4DirectionTypes@@_N@Z ENDP ; CvDllUnit::GetFacingDirection
_TEXT	ENDS
EXTRN	??3CvDllPlot@@SAXPAX@Z:PROC			; CvDllPlot::operator delete
EXTRN	??0CvDllPlot@@QAE@PAVCvPlot@@@Z:PROC		; CvDllPlot::CvDllPlot
EXTRN	??2CvDllPlot@@SAPAXI@Z:PROC			; CvDllPlot::operator new
EXTRN	?plot@CvUnit@@QBEPAVCvPlot@@XZ:PROC		; CvUnit::plot
EXTRN	___security_cookie:DWORD
EXTRN	___CxxFrameHandler3:PROC
EXTRN	@__security_check_cookie@4:PROC
;	COMDAT xdata$x
xdata$x	SEGMENT
__unwindtable$?GetPlot@CvDllUnit@@UBGPAVICvPlot1@@XZ DD 0ffffffffH
	DD	FLAT:__unwindfunclet$?GetPlot@CvDllUnit@@UBGPAVICvPlot1@@XZ$0
__ehfuncinfo$?GetPlot@CvDllUnit@@UBGPAVICvPlot1@@XZ DD 019930522H
	DD	01H
	DD	FLAT:__unwindtable$?GetPlot@CvDllUnit@@UBGPAVICvPlot1@@XZ
	DD	2 DUP(00H)
	DD	2 DUP(00H)
	DD	00H
	DD	01H
; Function compile flags: /Odtp
xdata$x	ENDS
;	COMDAT ?GetPlot@CvDllUnit@@UBGPAVICvPlot1@@XZ
_TEXT	SEGMENT
tv74 = -32						; size = 4
tv79 = -28						; size = 4
$T218588 = -24						; size = 4
$T218587 = -20						; size = 4
_pkPlot$ = -16						; size = 4
__$EHRec$ = -12						; size = 12
_this$ = 8						; size = 4
?GetPlot@CvDllUnit@@UBGPAVICvPlot1@@XZ PROC		; CvDllUnit::GetPlot, COMDAT

; 164  : {

	push	ebp
	mov	ebp, esp
	push	-1
	push	__ehhandler$?GetPlot@CvDllUnit@@UBGPAVICvPlot1@@XZ
	mov	eax, DWORD PTR fs:0
	push	eax
	sub	esp, 20					; 00000014H
	mov	eax, DWORD PTR ___security_cookie
	xor	eax, ebp
	push	eax
	lea	eax, DWORD PTR __$EHRec$[ebp]
	mov	DWORD PTR fs:0, eax

; 165  : 	CvPlot* pkPlot = m_pUnit->plot();

	mov	eax, DWORD PTR _this$[ebp]
	mov	ecx, DWORD PTR [eax+8]
	call	?plot@CvUnit@@QBEPAVCvPlot@@XZ		; CvUnit::plot
	mov	DWORD PTR _pkPlot$[ebp], eax

; 166  : 	return (NULL != pkPlot)? new CvDllPlot(pkPlot) : NULL;

	cmp	DWORD PTR _pkPlot$[ebp], 0
	je	SHORT $LN5@GetPlot
	push	12					; 0000000cH
	call	??2CvDllPlot@@SAPAXI@Z			; CvDllPlot::operator new
	add	esp, 4
	mov	DWORD PTR $T218588[ebp], eax
	mov	DWORD PTR __$EHRec$[ebp+8], 0
	cmp	DWORD PTR $T218588[ebp], 0
	je	SHORT $LN3@GetPlot
	mov	ecx, DWORD PTR _pkPlot$[ebp]
	push	ecx
	mov	ecx, DWORD PTR $T218588[ebp]
	call	??0CvDllPlot@@QAE@PAVCvPlot@@@Z		; CvDllPlot::CvDllPlot
	mov	DWORD PTR tv79[ebp], eax
	jmp	SHORT $LN4@GetPlot
$LN3@GetPlot:
	mov	DWORD PTR tv79[ebp], 0
$LN4@GetPlot:
	mov	edx, DWORD PTR tv79[ebp]
	mov	DWORD PTR $T218587[ebp], edx
	mov	DWORD PTR __$EHRec$[ebp+8], -1
	mov	eax, DWORD PTR $T218587[ebp]
	mov	DWORD PTR tv74[ebp], eax
	jmp	SHORT $LN6@GetPlot
$LN5@GetPlot:
	mov	DWORD PTR tv74[ebp], 0
$LN6@GetPlot:
	mov	eax, DWORD PTR tv74[ebp]

; 167  : }

	mov	ecx, DWORD PTR __$EHRec$[ebp]
	mov	DWORD PTR fs:0, ecx
	pop	ecx
	mov	esp, ebp
	pop	ebp
	ret	4
_TEXT	ENDS
;	COMDAT text$x
text$x	SEGMENT
__unwindfunclet$?GetPlot@CvDllUnit@@UBGPAVICvPlot1@@XZ$0:
	mov	eax, DWORD PTR $T218588[ebp]
	push	eax
	call	??3CvDllPlot@@SAXPAX@Z			; CvDllPlot::operator delete
	pop	ecx
	ret	0
__ehhandler$?GetPlot@CvDllUnit@@UBGPAVICvPlot1@@XZ:
	mov	edx, DWORD PTR [esp+8]
	lea	eax, DWORD PTR [edx+12]
	mov	ecx, DWORD PTR [edx-24]
	xor	ecx, eax
	call	@__security_check_cookie@4
	mov	eax, OFFSET __ehfuncinfo$?GetPlot@CvDllUnit@@UBGPAVICvPlot1@@XZ
	jmp	___CxxFrameHandler3
text$x	ENDS
?GetPlot@CvDllUnit@@UBGPAVICvPlot1@@XZ ENDP		; CvDllUnit::GetPlot
EXTRN	??3CvDllUnitInfo@@SAXPAX@Z:PROC			; CvDllUnitInfo::operator delete
EXTRN	??0CvDllUnitInfo@@QAE@PAVCvUnitEntry@@@Z:PROC	; CvDllUnitInfo::CvDllUnitInfo
EXTRN	?getUnitInfo@CvUnit@@QBEAAVCvUnitEntry@@XZ:PROC	; CvUnit::getUnitInfo
EXTRN	??2CvDllUnitInfo@@SAPAXI@Z:PROC			; CvDllUnitInfo::operator new
;	COMDAT xdata$x
xdata$x	SEGMENT
__unwindtable$?GetUnitInfo@CvDllUnit@@UBGPAVICvUnitInfo1@@XZ DD 0ffffffffH
	DD	FLAT:__unwindfunclet$?GetUnitInfo@CvDllUnit@@UBGPAVICvUnitInfo1@@XZ$0
__ehfuncinfo$?GetUnitInfo@CvDllUnit@@UBGPAVICvUnitInfo1@@XZ DD 019930522H
	DD	01H
	DD	FLAT:__unwindtable$?GetUnitInfo@CvDllUnit@@UBGPAVICvUnitInfo1@@XZ
	DD	2 DUP(00H)
	DD	2 DUP(00H)
	DD	00H
	DD	01H
; Function compile flags: /Odtp
xdata$x	ENDS
;	COMDAT ?GetUnitInfo@CvDllUnit@@UBGPAVICvUnitInfo1@@XZ
_TEXT	SEGMENT
tv78 = -24						; size = 4
$T218608 = -20						; size = 4
$T218607 = -16						; size = 4
__$EHRec$ = -12						; size = 12
_this$ = 8						; size = 4
?GetUnitInfo@CvDllUnit@@UBGPAVICvUnitInfo1@@XZ PROC	; CvDllUnit::GetUnitInfo, COMDAT

; 170  : {

	push	ebp
	mov	ebp, esp
	push	-1
	push	__ehhandler$?GetUnitInfo@CvDllUnit@@UBGPAVICvUnitInfo1@@XZ
	mov	eax, DWORD PTR fs:0
	push	eax
	sub	esp, 12					; 0000000cH
	mov	eax, DWORD PTR ___security_cookie
	xor	eax, ebp
	push	eax
	lea	eax, DWORD PTR __$EHRec$[ebp]
	mov	DWORD PTR fs:0, eax

; 171  : 	return new CvDllUnitInfo(&m_pUnit->getUnitInfo());

	push	12					; 0000000cH
	call	??2CvDllUnitInfo@@SAPAXI@Z		; CvDllUnitInfo::operator new
	add	esp, 4
	mov	DWORD PTR $T218608[ebp], eax
	mov	DWORD PTR __$EHRec$[ebp+8], 0
	cmp	DWORD PTR $T218608[ebp], 0
	je	SHORT $LN3@GetUnitInf
	mov	eax, DWORD PTR _this$[ebp]
	mov	ecx, DWORD PTR [eax+8]
	call	?getUnitInfo@CvUnit@@QBEAAVCvUnitEntry@@XZ ; CvUnit::getUnitInfo
	push	eax
	mov	ecx, DWORD PTR $T218608[ebp]
	call	??0CvDllUnitInfo@@QAE@PAVCvUnitEntry@@@Z ; CvDllUnitInfo::CvDllUnitInfo
	mov	DWORD PTR tv78[ebp], eax
	jmp	SHORT $LN4@GetUnitInf
$LN3@GetUnitInf:
	mov	DWORD PTR tv78[ebp], 0
$LN4@GetUnitInf:
	mov	ecx, DWORD PTR tv78[ebp]
	mov	DWORD PTR $T218607[ebp], ecx
	mov	DWORD PTR __$EHRec$[ebp+8], -1
	mov	eax, DWORD PTR $T218607[ebp]

; 172  : }

	mov	ecx, DWORD PTR __$EHRec$[ebp]
	mov	DWORD PTR fs:0, ecx
	pop	ecx
	mov	esp, ebp
	pop	ebp
	ret	4
_TEXT	ENDS
;	COMDAT text$x
text$x	SEGMENT
__unwindfunclet$?GetUnitInfo@CvDllUnit@@UBGPAVICvUnitInfo1@@XZ$0:
	mov	eax, DWORD PTR $T218608[ebp]
	push	eax
	call	??3CvDllUnitInfo@@SAXPAX@Z		; CvDllUnitInfo::operator delete
	pop	ecx
	ret	0
__ehhandler$?GetUnitInfo@CvDllUnit@@UBGPAVICvUnitInfo1@@XZ:
	mov	edx, DWORD PTR [esp+8]
	lea	eax, DWORD PTR [edx+12]
	mov	ecx, DWORD PTR [edx-16]
	xor	ecx, eax
	call	@__security_check_cookie@4
	mov	eax, OFFSET __ehfuncinfo$?GetUnitInfo@CvDllUnit@@UBGPAVICvUnitInfo1@@XZ
	jmp	___CxxFrameHandler3
text$x	ENDS
?GetUnitInfo@CvDllUnit@@UBGPAVICvUnitInfo1@@XZ ENDP	; CvDllUnit::GetUnitInfo
; Function compile flags: /Odtp
;	COMDAT ?IsEmbarked@CvDllUnit@@UBG_NXZ
_TEXT	SEGMENT
$T218628 = -1						; size = 1
_this$ = 8						; size = 4
?IsEmbarked@CvDllUnit@@UBG_NXZ PROC			; CvDllUnit::IsEmbarked, COMDAT

; 175  : {

	push	ebp
	mov	ebp, esp
	push	ecx

; 176  : 	return m_pUnit->isEmbarked();

	mov	eax, DWORD PTR _this$[ebp]
	mov	ecx, DWORD PTR [eax+8]
	mov	dl, BYTE PTR [ecx+1652]
	mov	BYTE PTR $T218628[ebp], dl
	mov	al, BYTE PTR $T218628[ebp]

; 177  : }

	mov	esp, ebp
	pop	ebp
	ret	4
?IsEmbarked@CvDllUnit@@UBG_NXZ ENDP			; CvDllUnit::IsEmbarked
_TEXT	ENDS
EXTRN	?IsGarrisoned@CvUnit@@QBE_NXZ:PROC		; CvUnit::IsGarrisoned
; Function compile flags: /Odtp
;	COMDAT ?IsGarrisoned@CvDllUnit@@UBG_NXZ
_TEXT	SEGMENT
_this$ = 8						; size = 4
?IsGarrisoned@CvDllUnit@@UBG_NXZ PROC			; CvDllUnit::IsGarrisoned, COMDAT

; 180  : {

	push	ebp
	mov	ebp, esp

; 181  : 	return m_pUnit->IsGarrisoned();

	mov	eax, DWORD PTR _this$[ebp]
	mov	ecx, DWORD PTR [eax+8]
	call	?IsGarrisoned@CvUnit@@QBE_NXZ		; CvUnit::IsGarrisoned

; 182  : }

	pop	ebp
	ret	4
?IsGarrisoned@CvDllUnit@@UBG_NXZ ENDP			; CvDllUnit::IsGarrisoned
_TEXT	ENDS
EXTRN	??3CvDllMissionData@@SAXPAX@Z:PROC		; CvDllMissionData::operator delete
EXTRN	??0CvDllMissionData@@QAE@PBUMissionData@@@Z:PROC ; CvDllMissionData::CvDllMissionData
EXTRN	??2CvDllMissionData@@SAPAXI@Z:PROC		; CvDllMissionData::operator new
EXTRN	?GetHeadMissionData@CvUnit@@QAEPBUMissionData@@XZ:PROC ; CvUnit::GetHeadMissionData
;	COMDAT xdata$x
xdata$x	SEGMENT
__unwindtable$?GetHeadMissionData@CvDllUnit@@UBGPAVICvMissionData1@@XZ DD 0ffffffffH
	DD	FLAT:__unwindfunclet$?GetHeadMissionData@CvDllUnit@@UBGPAVICvMissionData1@@XZ$0
__ehfuncinfo$?GetHeadMissionData@CvDllUnit@@UBGPAVICvMissionData1@@XZ DD 019930522H
	DD	01H
	DD	FLAT:__unwindtable$?GetHeadMissionData@CvDllUnit@@UBGPAVICvMissionData1@@XZ
	DD	2 DUP(00H)
	DD	2 DUP(00H)
	DD	00H
	DD	01H
; Function compile flags: /Odtp
xdata$x	ENDS
;	COMDAT ?GetHeadMissionData@CvDllUnit@@UBGPAVICvMissionData1@@XZ
_TEXT	SEGMENT
tv74 = -32						; size = 4
tv79 = -28						; size = 4
$T218634 = -24						; size = 4
$T218633 = -20						; size = 4
_pData$ = -16						; size = 4
__$EHRec$ = -12						; size = 12
_this$ = 8						; size = 4
?GetHeadMissionData@CvDllUnit@@UBGPAVICvMissionData1@@XZ PROC ; CvDllUnit::GetHeadMissionData, COMDAT

; 185  : {

	push	ebp
	mov	ebp, esp
	push	-1
	push	__ehhandler$?GetHeadMissionData@CvDllUnit@@UBGPAVICvMissionData1@@XZ
	mov	eax, DWORD PTR fs:0
	push	eax
	sub	esp, 20					; 00000014H
	mov	eax, DWORD PTR ___security_cookie
	xor	eax, ebp
	push	eax
	lea	eax, DWORD PTR __$EHRec$[ebp]
	mov	DWORD PTR fs:0, eax

; 186  : 	const MissionData* pData = m_pUnit->GetHeadMissionData();

	mov	eax, DWORD PTR _this$[ebp]
	mov	ecx, DWORD PTR [eax+8]
	call	?GetHeadMissionData@CvUnit@@QAEPBUMissionData@@XZ ; CvUnit::GetHeadMissionData
	mov	DWORD PTR _pData$[ebp], eax

; 187  : 	return (NULL != pData)? new CvDllMissionData(pData) : NULL;

	cmp	DWORD PTR _pData$[ebp], 0
	je	SHORT $LN5@GetHeadMis
	push	12					; 0000000cH
	call	??2CvDllMissionData@@SAPAXI@Z		; CvDllMissionData::operator new
	add	esp, 4
	mov	DWORD PTR $T218634[ebp], eax
	mov	DWORD PTR __$EHRec$[ebp+8], 0
	cmp	DWORD PTR $T218634[ebp], 0
	je	SHORT $LN3@GetHeadMis
	mov	ecx, DWORD PTR _pData$[ebp]
	push	ecx
	mov	ecx, DWORD PTR $T218634[ebp]
	call	??0CvDllMissionData@@QAE@PBUMissionData@@@Z ; CvDllMissionData::CvDllMissionData
	mov	DWORD PTR tv79[ebp], eax
	jmp	SHORT $LN4@GetHeadMis
$LN3@GetHeadMis:
	mov	DWORD PTR tv79[ebp], 0
$LN4@GetHeadMis:
	mov	edx, DWORD PTR tv79[ebp]
	mov	DWORD PTR $T218633[ebp], edx
	mov	DWORD PTR __$EHRec$[ebp+8], -1
	mov	eax, DWORD PTR $T218633[ebp]
	mov	DWORD PTR tv74[ebp], eax
	jmp	SHORT $LN6@GetHeadMis
$LN5@GetHeadMis:
	mov	DWORD PTR tv74[ebp], 0
$LN6@GetHeadMis:
	mov	eax, DWORD PTR tv74[ebp]

; 188  : }

	mov	ecx, DWORD PTR __$EHRec$[ebp]
	mov	DWORD PTR fs:0, ecx
	pop	ecx
	mov	esp, ebp
	pop	ebp
	ret	4
_TEXT	ENDS
;	COMDAT text$x
text$x	SEGMENT
__unwindfunclet$?GetHeadMissionData@CvDllUnit@@UBGPAVICvMissionData1@@XZ$0:
	mov	eax, DWORD PTR $T218634[ebp]
	push	eax
	call	??3CvDllMissionData@@SAXPAX@Z		; CvDllMissionData::operator delete
	pop	ecx
	ret	0
__ehhandler$?GetHeadMissionData@CvDllUnit@@UBGPAVICvMissionData1@@XZ:
	mov	edx, DWORD PTR [esp+8]
	lea	eax, DWORD PTR [edx+12]
	mov	ecx, DWORD PTR [edx-24]
	xor	ecx, eax
	call	@__security_check_cookie@4
	mov	eax, OFFSET __ehfuncinfo$?GetHeadMissionData@CvDllUnit@@UBGPAVICvMissionData1@@XZ
	jmp	___CxxFrameHandler3
text$x	ENDS
?GetHeadMissionData@CvDllUnit@@UBGPAVICvMissionData1@@XZ ENDP ; CvDllUnit::GetHeadMissionData
EXTRN	?getUnitCombatType@CvUnit@@QBE?AW4UnitCombatTypes@@XZ:PROC ; CvUnit::getUnitCombatType
; Function compile flags: /Odtp
;	COMDAT ?GetUnitCombatType@CvDllUnit@@UAG?AW4UnitCombatTypes@@XZ
_TEXT	SEGMENT
_this$ = 8						; size = 4
?GetUnitCombatType@CvDllUnit@@UAG?AW4UnitCombatTypes@@XZ PROC ; CvDllUnit::GetUnitCombatType, COMDAT

; 191  : {

	push	ebp
	mov	ebp, esp

; 192  : 	return m_pUnit->getUnitCombatType();

	mov	eax, DWORD PTR _this$[ebp]
	mov	ecx, DWORD PTR [eax+8]
	call	?getUnitCombatType@CvUnit@@QBE?AW4UnitCombatTypes@@XZ ; CvUnit::getUnitCombatType

; 193  : }

	pop	ebp
	ret	4
?GetUnitCombatType@CvDllUnit@@UAG?AW4UnitCombatTypes@@XZ ENDP ; CvDllUnit::GetUnitCombatType
; Function compile flags: /Odtp
_TEXT	ENDS
;	COMDAT ?GetX@CvDllUnit@@UBGHXZ
_TEXT	SEGMENT
$T218658 = -4						; size = 4
_this$ = 8						; size = 4
?GetX@CvDllUnit@@UBGHXZ PROC				; CvDllUnit::GetX, COMDAT

; 196  : {

	push	ebp
	mov	ebp, esp
	push	ecx

; 197  : 	return m_pUnit->getX();

	mov	eax, DWORD PTR _this$[ebp]
	mov	ecx, DWORD PTR [eax+8]
	mov	edx, DWORD PTR [ecx+76]
	mov	DWORD PTR $T218658[ebp], edx
	mov	eax, DWORD PTR $T218658[ebp]

; 198  : }

	mov	esp, ebp
	pop	ebp
	ret	4
?GetX@CvDllUnit@@UBGHXZ ENDP				; CvDllUnit::GetX
; Function compile flags: /Odtp
_TEXT	ENDS
;	COMDAT ?GetY@CvDllUnit@@UBGHXZ
_TEXT	SEGMENT
$T218669 = -4						; size = 4
_this$ = 8						; size = 4
?GetY@CvDllUnit@@UBGHXZ PROC				; CvDllUnit::GetY, COMDAT

; 201  : {

	push	ebp
	mov	ebp, esp
	push	ecx

; 202  : 	return m_pUnit->getY();

	mov	eax, DWORD PTR _this$[ebp]
	mov	ecx, DWORD PTR [eax+8]
	mov	edx, DWORD PTR [ecx+88]
	mov	DWORD PTR $T218669[ebp], edx
	mov	eax, DWORD PTR $T218669[ebp]

; 203  : }

	mov	esp, ebp
	pop	ebp
	ret	4
?GetY@CvDllUnit@@UBGHXZ ENDP				; CvDllUnit::GetY
; Function compile flags: /Odtp
_TEXT	ENDS
;	COMDAT ?GetPosition@CvDllUnit@@UBGXAAH0@Z
_TEXT	SEGMENT
$T218689 = -8						; size = 4
$T218680 = -4						; size = 4
_this$ = 8						; size = 4
_iX$ = 12						; size = 4
_iY$ = 16						; size = 4
?GetPosition@CvDllUnit@@UBGXAAH0@Z PROC			; CvDllUnit::GetPosition, COMDAT

; 206  : {

	push	ebp
	mov	ebp, esp
	sub	esp, 8

; 207  : 	iX = m_pUnit->getX();

	mov	eax, DWORD PTR _this$[ebp]
	mov	ecx, DWORD PTR [eax+8]
	mov	edx, DWORD PTR [ecx+76]
	mov	DWORD PTR $T218680[ebp], edx
	mov	eax, DWORD PTR _iX$[ebp]
	mov	ecx, DWORD PTR $T218680[ebp]
	mov	DWORD PTR [eax], ecx

; 208  : 	iY = m_pUnit->getY();

	mov	edx, DWORD PTR _this$[ebp]
	mov	eax, DWORD PTR [edx+8]
	mov	ecx, DWORD PTR [eax+88]
	mov	DWORD PTR $T218689[ebp], ecx
	mov	edx, DWORD PTR _iY$[ebp]
	mov	eax, DWORD PTR $T218689[ebp]
	mov	DWORD PTR [edx], eax

; 209  : }

	mov	esp, ebp
	pop	ebp
	ret	12					; 0000000cH
?GetPosition@CvDllUnit@@UBGXAAH0@Z ENDP			; CvDllUnit::GetPosition
_TEXT	ENDS
EXTRN	?CanSwapWithUnitHere@CvUnit@@QBE_NAAVCvPlot@@@Z:PROC ; CvUnit::CanSwapWithUnitHere
EXTRN	?GetInstance@CvDllPlot@@QAEPAVCvPlot@@XZ:PROC	; CvDllPlot::GetInstance
; Function compile flags: /Odtp
;	COMDAT ?CanSwapWithUnitHere@CvDllUnit@@UBG_NPAVICvPlot1@@@Z
_TEXT	SEGMENT
tv71 = -8						; size = 4
_pkPlot$ = -4						; size = 4
_this$ = 8						; size = 4
_pPlot$ = 12						; size = 4
?CanSwapWithUnitHere@CvDllUnit@@UBG_NPAVICvPlot1@@@Z PROC ; CvDllUnit::CanSwapWithUnitHere, COMDAT

; 216  : {

	push	ebp
	mov	ebp, esp
	sub	esp, 8

; 217  : 	CvPlot* pkPlot = (NULL != pPlot)? static_cast<CvDllPlot*>(pPlot)->GetInstance() : NULL;

	cmp	DWORD PTR _pPlot$[ebp], 0
	je	SHORT $LN5@CanSwapWit
	mov	ecx, DWORD PTR _pPlot$[ebp]
	call	?GetInstance@CvDllPlot@@QAEPAVCvPlot@@XZ ; CvDllPlot::GetInstance
	mov	DWORD PTR tv71[ebp], eax
	jmp	SHORT $LN6@CanSwapWit
$LN5@CanSwapWit:
	mov	DWORD PTR tv71[ebp], 0
$LN6@CanSwapWit:
	mov	eax, DWORD PTR tv71[ebp]
	mov	DWORD PTR _pkPlot$[ebp], eax

; 218  : 	FAssert(pkPlot != NULL);
; 219  : 	if(pkPlot != NULL)

	cmp	DWORD PTR _pkPlot$[ebp], 0
	je	SHORT $LN2@CanSwapWit

; 220  : 		return m_pUnit->CanSwapWithUnitHere(*pkPlot);

	mov	ecx, DWORD PTR _pkPlot$[ebp]
	push	ecx
	mov	edx, DWORD PTR _this$[ebp]
	mov	ecx, DWORD PTR [edx+8]
	call	?CanSwapWithUnitHere@CvUnit@@QBE_NAAVCvPlot@@@Z ; CvUnit::CanSwapWithUnitHere
	jmp	SHORT $LN3@CanSwapWit

; 221  : 	else

	jmp	SHORT $LN3@CanSwapWit
$LN2@CanSwapWit:

; 222  : 		return false;

	xor	al, al
$LN3@CanSwapWit:

; 223  : }

	mov	esp, ebp
	pop	ebp
	ret	8
?CanSwapWithUnitHere@CvDllUnit@@UBG_NPAVICvPlot1@@@Z ENDP ; CvDllUnit::CanSwapWithUnitHere
_TEXT	ENDS
EXTRN	?canEmbarkOnto@CvUnit@@QBE_NABVCvPlot@@0_N1@Z:PROC ; CvUnit::canEmbarkOnto
; Function compile flags: /Odtp
;	COMDAT ?CanEmbarkOnto@CvDllUnit@@UBG_NPAVICvPlot1@@0_N@Z
_TEXT	SEGMENT
tv79 = -16						; size = 4
tv71 = -12						; size = 4
_pkTargetPlot$ = -8					; size = 4
_pkOriginPlot$ = -4					; size = 4
_this$ = 8						; size = 4
_pOriginPlot$ = 12					; size = 4
_pTargetPlot$ = 16					; size = 4
_bOverrideEmbarkedCheck$ = 20				; size = 1
?CanEmbarkOnto@CvDllUnit@@UBG_NPAVICvPlot1@@0_N@Z PROC	; CvDllUnit::CanEmbarkOnto, COMDAT

; 230  : {

	push	ebp
	mov	ebp, esp
	sub	esp, 16					; 00000010H

; 231  : 	CvPlot* pkOriginPlot = (NULL != pOriginPlot)? static_cast<CvDllPlot*>(pOriginPlot)->GetInstance() : NULL;

	cmp	DWORD PTR _pOriginPlot$[ebp], 0
	je	SHORT $LN5@CanEmbarkO
	mov	ecx, DWORD PTR _pOriginPlot$[ebp]
	call	?GetInstance@CvDllPlot@@QAEPAVCvPlot@@XZ ; CvDllPlot::GetInstance
	mov	DWORD PTR tv71[ebp], eax
	jmp	SHORT $LN6@CanEmbarkO
$LN5@CanEmbarkO:
	mov	DWORD PTR tv71[ebp], 0
$LN6@CanEmbarkO:
	mov	eax, DWORD PTR tv71[ebp]
	mov	DWORD PTR _pkOriginPlot$[ebp], eax

; 232  : 	CvPlot* pkTargetPlot = (NULL != pTargetPlot)? static_cast<CvDllPlot*>(pTargetPlot)->GetInstance() : NULL;

	cmp	DWORD PTR _pTargetPlot$[ebp], 0
	je	SHORT $LN7@CanEmbarkO
	mov	ecx, DWORD PTR _pTargetPlot$[ebp]
	call	?GetInstance@CvDllPlot@@QAEPAVCvPlot@@XZ ; CvDllPlot::GetInstance
	mov	DWORD PTR tv79[ebp], eax
	jmp	SHORT $LN8@CanEmbarkO
$LN7@CanEmbarkO:
	mov	DWORD PTR tv79[ebp], 0
$LN8@CanEmbarkO:
	mov	ecx, DWORD PTR tv79[ebp]
	mov	DWORD PTR _pkTargetPlot$[ebp], ecx

; 233  : 	FAssert(pkOriginPlot != NULL);
; 234  : 	FAssert(pkTargetPlot != NULL);
; 235  : 
; 236  : 	if(pkOriginPlot != NULL && pkTargetPlot != NULL)

	cmp	DWORD PTR _pkOriginPlot$[ebp], 0
	je	SHORT $LN2@CanEmbarkO
	cmp	DWORD PTR _pkTargetPlot$[ebp], 0
	je	SHORT $LN2@CanEmbarkO

; 237  : 		return m_pUnit->canEmbarkOnto(*pkOriginPlot, *pkTargetPlot, bOverrideEmbarkedCheck);

	push	0
	movzx	edx, BYTE PTR _bOverrideEmbarkedCheck$[ebp]
	push	edx
	mov	eax, DWORD PTR _pkTargetPlot$[ebp]
	push	eax
	mov	ecx, DWORD PTR _pkOriginPlot$[ebp]
	push	ecx
	mov	edx, DWORD PTR _this$[ebp]
	mov	ecx, DWORD PTR [edx+8]
	call	?canEmbarkOnto@CvUnit@@QBE_NABVCvPlot@@0_N1@Z ; CvUnit::canEmbarkOnto
	jmp	SHORT $LN3@CanEmbarkO

; 238  : 	else

	jmp	SHORT $LN3@CanEmbarkO
$LN2@CanEmbarkO:

; 239  : 		return false;

	xor	al, al
$LN3@CanEmbarkO:

; 240  : }

	mov	esp, ebp
	pop	ebp
	ret	16					; 00000010H
?CanEmbarkOnto@CvDllUnit@@UBG_NPAVICvPlot1@@0_N@Z ENDP	; CvDllUnit::CanEmbarkOnto
_TEXT	ENDS
EXTRN	?canDisembarkOnto@CvUnit@@QBE_NABVCvPlot@@0_N1@Z:PROC ; CvUnit::canDisembarkOnto
; Function compile flags: /Odtp
;	COMDAT ?CanDisembarkOnto@CvDllUnit@@UBG_NPAVICvPlot1@@0_N@Z
_TEXT	SEGMENT
tv79 = -16						; size = 4
tv71 = -12						; size = 4
_pkTargetPlot$ = -8					; size = 4
_pkOriginPlot$ = -4					; size = 4
_this$ = 8						; size = 4
_pOriginPlot$ = 12					; size = 4
_pTargetPlot$ = 16					; size = 4
_bOverrideEmbarkedCheck$ = 20				; size = 1
?CanDisembarkOnto@CvDllUnit@@UBG_NPAVICvPlot1@@0_N@Z PROC ; CvDllUnit::CanDisembarkOnto, COMDAT

; 247  : {

	push	ebp
	mov	ebp, esp
	sub	esp, 16					; 00000010H

; 248  : 	CvPlot* pkOriginPlot = (NULL != pOriginPlot)? static_cast<CvDllPlot*>(pOriginPlot)->GetInstance() : NULL;

	cmp	DWORD PTR _pOriginPlot$[ebp], 0
	je	SHORT $LN5@CanDisemba
	mov	ecx, DWORD PTR _pOriginPlot$[ebp]
	call	?GetInstance@CvDllPlot@@QAEPAVCvPlot@@XZ ; CvDllPlot::GetInstance
	mov	DWORD PTR tv71[ebp], eax
	jmp	SHORT $LN6@CanDisemba
$LN5@CanDisemba:
	mov	DWORD PTR tv71[ebp], 0
$LN6@CanDisemba:
	mov	eax, DWORD PTR tv71[ebp]
	mov	DWORD PTR _pkOriginPlot$[ebp], eax

; 249  : 	CvPlot* pkTargetPlot = (NULL != pTargetPlot)? static_cast<CvDllPlot*>(pTargetPlot)->GetInstance() : NULL;

	cmp	DWORD PTR _pTargetPlot$[ebp], 0
	je	SHORT $LN7@CanDisemba
	mov	ecx, DWORD PTR _pTargetPlot$[ebp]
	call	?GetInstance@CvDllPlot@@QAEPAVCvPlot@@XZ ; CvDllPlot::GetInstance
	mov	DWORD PTR tv79[ebp], eax
	jmp	SHORT $LN8@CanDisemba
$LN7@CanDisemba:
	mov	DWORD PTR tv79[ebp], 0
$LN8@CanDisemba:
	mov	ecx, DWORD PTR tv79[ebp]
	mov	DWORD PTR _pkTargetPlot$[ebp], ecx

; 250  : 	FAssert(pkOriginPlot != NULL);
; 251  : 	FAssert(pkTargetPlot != NULL);
; 252  : 	if(pkOriginPlot != NULL && pkTargetPlot != NULL)

	cmp	DWORD PTR _pkOriginPlot$[ebp], 0
	je	SHORT $LN2@CanDisemba
	cmp	DWORD PTR _pkTargetPlot$[ebp], 0
	je	SHORT $LN2@CanDisemba

; 253  : 		return m_pUnit->canDisembarkOnto(*pkOriginPlot, *pkTargetPlot, bOverrideEmbarkedCheck);

	push	0
	movzx	edx, BYTE PTR _bOverrideEmbarkedCheck$[ebp]
	push	edx
	mov	eax, DWORD PTR _pkTargetPlot$[ebp]
	push	eax
	mov	ecx, DWORD PTR _pkOriginPlot$[ebp]
	push	ecx
	mov	edx, DWORD PTR _this$[ebp]
	mov	ecx, DWORD PTR [edx+8]
	call	?canDisembarkOnto@CvUnit@@QBE_NABVCvPlot@@0_N1@Z ; CvUnit::canDisembarkOnto
	jmp	SHORT $LN3@CanDisemba

; 254  : 	else

	jmp	SHORT $LN3@CanDisemba
$LN2@CanDisemba:

; 255  : 		return false;

	xor	al, al
$LN3@CanDisemba:

; 256  : }

	mov	esp, ebp
	pop	ebp
	ret	16					; 00000010H
?CanDisembarkOnto@CvDllUnit@@UBG_NPAVICvPlot1@@0_N@Z ENDP ; CvDllUnit::CanDisembarkOnto
_TEXT	ENDS
EXTRN	?IsFirstTimeSelected@CvUnit@@QBE_NXZ:PROC	; CvUnit::IsFirstTimeSelected
; Function compile flags: /Odtp
;	COMDAT ?IsFirstTimeSelected@CvDllUnit@@UBG_NXZ
_TEXT	SEGMENT
_this$ = 8						; size = 4
?IsFirstTimeSelected@CvDllUnit@@UBG_NXZ PROC		; CvDllUnit::IsFirstTimeSelected, COMDAT

; 259  : {

	push	ebp
	mov	ebp, esp

; 260  : 	return m_pUnit->IsFirstTimeSelected();

	mov	eax, DWORD PTR _this$[ebp]
	mov	ecx, DWORD PTR [eax+8]
	call	?IsFirstTimeSelected@CvUnit@@QBE_NXZ	; CvUnit::IsFirstTimeSelected

; 261  : }

	pop	ebp
	ret	4
?IsFirstTimeSelected@CvDllUnit@@UBG_NXZ ENDP		; CvDllUnit::IsFirstTimeSelected
_TEXT	ENDS
EXTRN	?getUnitType@CvUnit@@QBE?BW4UnitTypes@@XZ:PROC	; CvUnit::getUnitType
; Function compile flags: /Odtp
;	COMDAT ?GetUnitType@CvDllUnit@@UBG?AW4UnitTypes@@XZ
_TEXT	SEGMENT
_this$ = 8						; size = 4
?GetUnitType@CvDllUnit@@UBG?AW4UnitTypes@@XZ PROC	; CvDllUnit::GetUnitType, COMDAT

; 264  : {

	push	ebp
	mov	ebp, esp

; 265  : 	return m_pUnit->getUnitType();

	mov	eax, DWORD PTR _this$[ebp]
	mov	ecx, DWORD PTR [eax+8]
	call	?getUnitType@CvUnit@@QBE?BW4UnitTypes@@XZ ; CvUnit::getUnitType

; 266  : }

	pop	ebp
	ret	4
?GetUnitType@CvDllUnit@@UBG?AW4UnitTypes@@XZ ENDP	; CvDllUnit::GetUnitType
_TEXT	ENDS
EXTRN	?isDelayedDeathExported@CvUnit@@QBE_NXZ:PROC	; CvUnit::isDelayedDeathExported
; Function compile flags: /Odtp
;	COMDAT ?IsDelayedDeathExported@CvDllUnit@@UBG_NXZ
_TEXT	SEGMENT
_this$ = 8						; size = 4
?IsDelayedDeathExported@CvDllUnit@@UBG_NXZ PROC		; CvDllUnit::IsDelayedDeathExported, COMDAT

; 269  : {

	push	ebp
	mov	ebp, esp

; 270  : 	return m_pUnit->isDelayedDeathExported();

	mov	eax, DWORD PTR _this$[ebp]
	mov	ecx, DWORD PTR [eax+8]
	call	?isDelayedDeathExported@CvUnit@@QBE_NXZ	; CvUnit::isDelayedDeathExported

; 271  : }

	pop	ebp
	ret	4
?IsDelayedDeathExported@CvDllUnit@@UBG_NXZ ENDP		; CvDllUnit::IsDelayedDeathExported
_TEXT	ENDS
EXTRN	?IsBusy@CvUnit@@QBE_NXZ:PROC			; CvUnit::IsBusy
; Function compile flags: /Odtp
;	COMDAT ?IsBusy@CvDllUnit@@UBG_NXZ
_TEXT	SEGMENT
_this$ = 8						; size = 4
?IsBusy@CvDllUnit@@UBG_NXZ PROC				; CvDllUnit::IsBusy, COMDAT

; 274  : {

	push	ebp
	mov	ebp, esp

; 275  : 	return m_pUnit->IsBusy();

	mov	eax, DWORD PTR _this$[ebp]
	mov	ecx, DWORD PTR [eax+8]
	call	?IsBusy@CvUnit@@QBE_NXZ			; CvUnit::IsBusy

; 276  : }

	pop	ebp
	ret	4
?IsBusy@CvDllUnit@@UBG_NXZ ENDP				; CvDllUnit::IsBusy
_TEXT	ENDS
EXTRN	?setupGraphical@CvUnit@@QAEXXZ:PROC		; CvUnit::setupGraphical
; Function compile flags: /Odtp
;	COMDAT ?SetupGraphical@CvDllUnit@@UAGXXZ
_TEXT	SEGMENT
_this$ = 8						; size = 4
?SetupGraphical@CvDllUnit@@UAGXXZ PROC			; CvDllUnit::SetupGraphical, COMDAT

; 279  : {

	push	ebp
	mov	ebp, esp

; 280  : 	m_pUnit->setupGraphical();

	mov	eax, DWORD PTR _this$[ebp]
	mov	ecx, DWORD PTR [eax+8]
	call	?setupGraphical@CvUnit@@QAEXXZ		; CvUnit::setupGraphical

; 281  : }

	pop	ebp
	ret	4
?SetupGraphical@CvDllUnit@@UAGXXZ ENDP			; CvDllUnit::SetupGraphical
_TEXT	ENDS
EXTRN	?getName@CvUnit@@QBE?BVCvString@@XZ:PROC	; CvUnit::getName
; Function compile flags: /Odtp
;	COMDAT ?GetName@CvDllUnit@@UBG?AVCvString@@XZ
_TEXT	SEGMENT
$T218719 = -4						; size = 4
_this$ = 8						; size = 4
___$ReturnUdt$ = 12					; size = 4
?GetName@CvDllUnit@@UBG?AVCvString@@XZ PROC		; CvDllUnit::GetName, COMDAT

; 284  : {

	push	ebp
	mov	ebp, esp
	push	ecx
	mov	DWORD PTR $T218719[ebp], 0

; 285  : 	return m_pUnit->getName();

	mov	eax, DWORD PTR ___$ReturnUdt$[ebp]
	push	eax
	mov	ecx, DWORD PTR _this$[ebp]
	mov	ecx, DWORD PTR [ecx+8]
	call	?getName@CvUnit@@QBE?BVCvString@@XZ	; CvUnit::getName
	mov	edx, DWORD PTR $T218719[ebp]
	or	edx, 1
	mov	DWORD PTR $T218719[ebp], edx
	mov	eax, DWORD PTR ___$ReturnUdt$[ebp]

; 286  : }

	mov	esp, ebp
	pop	ebp
	ret	8
?GetName@CvDllUnit@@UBG?AVCvString@@XZ ENDP		; CvDllUnit::GetName
_TEXT	ENDS
EXTRN	?doCommand@CvUnit@@QAEXW4CommandTypes@@HH@Z:PROC ; CvUnit::doCommand
; Function compile flags: /Odtp
;	COMDAT ?DoCommand@CvDllUnit@@UAGXW4CommandTypes@@HH@Z
_TEXT	SEGMENT
_this$ = 8						; size = 4
_eCommand$ = 12						; size = 4
_iData1$ = 16						; size = 4
_iData2$ = 20						; size = 4
?DoCommand@CvDllUnit@@UAGXW4CommandTypes@@HH@Z PROC	; CvDllUnit::DoCommand, COMDAT

; 289  : {

	push	ebp
	mov	ebp, esp

; 290  : 	m_pUnit->doCommand(eCommand, iData1, iData2);

	mov	eax, DWORD PTR _iData2$[ebp]
	push	eax
	mov	ecx, DWORD PTR _iData1$[ebp]
	push	ecx
	mov	edx, DWORD PTR _eCommand$[ebp]
	push	edx
	mov	eax, DWORD PTR _this$[ebp]
	mov	ecx, DWORD PTR [eax+8]
	call	?doCommand@CvUnit@@QAEXW4CommandTypes@@HH@Z ; CvUnit::doCommand

; 291  : }

	pop	ebp
	ret	16					; 00000010H
?DoCommand@CvDllUnit@@UAGXW4CommandTypes@@HH@Z ENDP	; CvDllUnit::DoCommand
_TEXT	ENDS
EXTRN	?CanDoInterfaceMode@CvUnit@@QAE_NW4InterfaceModeTypes@@_N@Z:PROC ; CvUnit::CanDoInterfaceMode
; Function compile flags: /Odtp
;	COMDAT ?CanDoInterfaceMode@CvDllUnit@@UAG_NW4InterfaceModeTypes@@_N@Z
_TEXT	SEGMENT
_this$ = 8						; size = 4
_eInterfaceMode$ = 12					; size = 4
_bTestVisibility$ = 16					; size = 1
?CanDoInterfaceMode@CvDllUnit@@UAG_NW4InterfaceModeTypes@@_N@Z PROC ; CvDllUnit::CanDoInterfaceMode, COMDAT

; 294  : {

	push	ebp
	mov	ebp, esp

; 295  : 	return m_pUnit->CanDoInterfaceMode(eInterfaceMode, bTestVisibility);

	movzx	eax, BYTE PTR _bTestVisibility$[ebp]
	push	eax
	mov	ecx, DWORD PTR _eInterfaceMode$[ebp]
	push	ecx
	mov	edx, DWORD PTR _this$[ebp]
	mov	ecx, DWORD PTR [edx+8]
	call	?CanDoInterfaceMode@CvUnit@@QAE_NW4InterfaceModeTypes@@_N@Z ; CvUnit::CanDoInterfaceMode

; 296  : }

	pop	ebp
	ret	12					; 0000000cH
?CanDoInterfaceMode@CvDllUnit@@UAG_NW4InterfaceModeTypes@@_N@Z ENDP ; CvDllUnit::CanDoInterfaceMode
_TEXT	ENDS
EXTRN	?GetIDInfo@CvUnit@@QBE?AUIDInfo@@XZ:PROC	; CvUnit::GetIDInfo
; Function compile flags: /Odtp
;	COMDAT ?GetIDInfo@CvDllUnit@@UBG?AUIDInfo@@XZ
_TEXT	SEGMENT
_this$ = 8						; size = 4
___$ReturnUdt$ = 12					; size = 4
?GetIDInfo@CvDllUnit@@UBG?AUIDInfo@@XZ PROC		; CvDllUnit::GetIDInfo, COMDAT

; 299  : {

	push	ebp
	mov	ebp, esp

; 300  : 	return m_pUnit->GetIDInfo();

	mov	eax, DWORD PTR ___$ReturnUdt$[ebp]
	push	eax
	mov	ecx, DWORD PTR _this$[ebp]
	mov	ecx, DWORD PTR [ecx+8]
	call	?GetIDInfo@CvUnit@@QBE?AUIDInfo@@XZ	; CvUnit::GetIDInfo
	mov	eax, DWORD PTR ___$ReturnUdt$[ebp]

; 301  : }

	pop	ebp
	ret	8
?GetIDInfo@CvDllUnit@@UBG?AUIDInfo@@XZ ENDP		; CvDllUnit::GetIDInfo
_TEXT	ENDS
EXTRN	?movesLeft@CvUnit@@QBEHXZ:PROC			; CvUnit::movesLeft
; Function compile flags: /Odtp
;	COMDAT ?MovesLeft@CvDllUnit@@UBGHXZ
_TEXT	SEGMENT
_this$ = 8						; size = 4
?MovesLeft@CvDllUnit@@UBGHXZ PROC			; CvDllUnit::MovesLeft, COMDAT

; 304  : {

	push	ebp
	mov	ebp, esp

; 305  : 	return m_pUnit->movesLeft();

	mov	eax, DWORD PTR _this$[ebp]
	mov	ecx, DWORD PTR [eax+8]
	call	?movesLeft@CvUnit@@QBEHXZ		; CvUnit::movesLeft

; 306  : }

	pop	ebp
	ret	4
?MovesLeft@CvDllUnit@@UBGHXZ ENDP			; CvDllUnit::MovesLeft
_TEXT	ENDS
EXTRN	?canMoveInto@CvUnit@@QBE_NABVCvPlot@@E@Z:PROC	; CvUnit::canMoveInto
; Function compile flags: /Odtp
;	COMDAT ?CanMoveInto@CvDllUnit@@UBG_NPAVICvPlot1@@E@Z
_TEXT	SEGMENT
tv71 = -8						; size = 4
_pkPlot$ = -4						; size = 4
_this$ = 8						; size = 4
_pPlot$ = 12						; size = 4
_bMoveFlags$ = 16					; size = 1
?CanMoveInto@CvDllUnit@@UBG_NPAVICvPlot1@@E@Z PROC	; CvDllUnit::CanMoveInto, COMDAT

; 309  : {

	push	ebp
	mov	ebp, esp
	sub	esp, 8

; 310  : 	CvPlot* pkPlot = (NULL != pPlot)? static_cast<CvDllPlot*>(pPlot)->GetInstance() : NULL;

	cmp	DWORD PTR _pPlot$[ebp], 0
	je	SHORT $LN5@CanMoveInt
	mov	ecx, DWORD PTR _pPlot$[ebp]
	call	?GetInstance@CvDllPlot@@QAEPAVCvPlot@@XZ ; CvDllPlot::GetInstance
	mov	DWORD PTR tv71[ebp], eax
	jmp	SHORT $LN6@CanMoveInt
$LN5@CanMoveInt:
	mov	DWORD PTR tv71[ebp], 0
$LN6@CanMoveInt:
	mov	eax, DWORD PTR tv71[ebp]
	mov	DWORD PTR _pkPlot$[ebp], eax

; 311  : 	if(pkPlot != NULL)

	cmp	DWORD PTR _pkPlot$[ebp], 0
	je	SHORT $LN2@CanMoveInt

; 312  : 		return m_pUnit->canMoveInto(*pkPlot, bMoveFlags);

	movzx	ecx, BYTE PTR _bMoveFlags$[ebp]
	push	ecx
	mov	edx, DWORD PTR _pkPlot$[ebp]
	push	edx
	mov	eax, DWORD PTR _this$[ebp]
	mov	ecx, DWORD PTR [eax+8]
	call	?canMoveInto@CvUnit@@QBE_NABVCvPlot@@E@Z ; CvUnit::canMoveInto
	jmp	SHORT $LN3@CanMoveInt

; 313  : 	else

	jmp	SHORT $LN3@CanMoveInt
$LN2@CanMoveInt:

; 314  : 		return false;

	xor	al, al
$LN3@CanMoveInt:

; 315  : }

	mov	esp, ebp
	pop	ebp
	ret	12					; 0000000cH
?CanMoveInto@CvDllUnit@@UBG_NPAVICvPlot1@@E@Z ENDP	; CvDllUnit::CanMoveInto
_TEXT	ENDS
EXTRN	?GetDeclareWarMove@CvUnit@@QBE?AW4TeamTypes@@ABVCvPlot@@@Z:PROC ; CvUnit::GetDeclareWarMove
; Function compile flags: /Odtp
;	COMDAT ?GetDeclareWarMove@CvDllUnit@@UBG?AW4TeamTypes@@PAVICvPlot1@@@Z
_TEXT	SEGMENT
tv71 = -8						; size = 4
_pkPlot$ = -4						; size = 4
_this$ = 8						; size = 4
_pPlot$ = 12						; size = 4
?GetDeclareWarMove@CvDllUnit@@UBG?AW4TeamTypes@@PAVICvPlot1@@@Z PROC ; CvDllUnit::GetDeclareWarMove, COMDAT

; 318  : {

	push	ebp
	mov	ebp, esp
	sub	esp, 8

; 319  : 	CvPlot* pkPlot = (NULL != pPlot)? static_cast<CvDllPlot*>(pPlot)->GetInstance() : NULL;

	cmp	DWORD PTR _pPlot$[ebp], 0
	je	SHORT $LN5@GetDeclare
	mov	ecx, DWORD PTR _pPlot$[ebp]
	call	?GetInstance@CvDllPlot@@QAEPAVCvPlot@@XZ ; CvDllPlot::GetInstance
	mov	DWORD PTR tv71[ebp], eax
	jmp	SHORT $LN6@GetDeclare
$LN5@GetDeclare:
	mov	DWORD PTR tv71[ebp], 0
$LN6@GetDeclare:
	mov	eax, DWORD PTR tv71[ebp]
	mov	DWORD PTR _pkPlot$[ebp], eax

; 320  : 	if(pkPlot != NULL)

	cmp	DWORD PTR _pkPlot$[ebp], 0
	je	SHORT $LN2@GetDeclare

; 321  : 		return m_pUnit->GetDeclareWarMove(*pkPlot);

	mov	ecx, DWORD PTR _pkPlot$[ebp]
	push	ecx
	mov	edx, DWORD PTR _this$[ebp]
	mov	ecx, DWORD PTR [edx+8]
	call	?GetDeclareWarMove@CvUnit@@QBE?AW4TeamTypes@@ABVCvPlot@@@Z ; CvUnit::GetDeclareWarMove
	jmp	SHORT $LN3@GetDeclare

; 322  : 	else

	jmp	SHORT $LN3@GetDeclare
$LN2@GetDeclare:

; 323  : 		return NO_TEAM;

	or	eax, -1
$LN3@GetDeclare:

; 324  : }

	mov	esp, ebp
	pop	ebp
	ret	8
?GetDeclareWarMove@CvDllUnit@@UBG?AW4TeamTypes@@PAVICvPlot1@@@Z ENDP ; CvDllUnit::GetDeclareWarMove
_TEXT	ENDS
EXTRN	?ReadyToSelect@CvUnit@@QBE_NXZ:PROC		; CvUnit::ReadyToSelect
; Function compile flags: /Odtp
;	COMDAT ?ReadyToSelect@CvDllUnit@@UBG_NXZ
_TEXT	SEGMENT
_this$ = 8						; size = 4
?ReadyToSelect@CvDllUnit@@UBG_NXZ PROC			; CvDllUnit::ReadyToSelect, COMDAT

; 327  : {

	push	ebp
	mov	ebp, esp

; 328  : 	return m_pUnit->ReadyToSelect();

	mov	eax, DWORD PTR _this$[ebp]
	mov	ecx, DWORD PTR [eax+8]
	call	?ReadyToSelect@CvUnit@@QBE_NXZ		; CvUnit::ReadyToSelect

; 329  : }

	pop	ebp
	ret	4
?ReadyToSelect@CvDllUnit@@UBG_NXZ ENDP			; CvDllUnit::ReadyToSelect
_TEXT	ENDS
EXTRN	?isFound@CvUnit@@QBE_NXZ:PROC			; CvUnit::isFound
; Function compile flags: /Odtp
;	COMDAT ?CanFound@CvDllUnit@@UBG_NXZ
_TEXT	SEGMENT
_this$ = 8						; size = 4
?CanFound@CvDllUnit@@UBG_NXZ PROC			; CvDllUnit::CanFound, COMDAT

; 332  : {

	push	ebp
	mov	ebp, esp

; 333  : 	return m_pUnit->isFound();

	mov	eax, DWORD PTR _this$[ebp]
	mov	ecx, DWORD PTR [eax+8]
	call	?isFound@CvUnit@@QBE_NXZ		; CvUnit::isFound

; 334  : }

	pop	ebp
	ret	4
?CanFound@CvDllUnit@@UBG_NXZ ENDP			; CvDllUnit::CanFound
_TEXT	ENDS
EXTRN	?IsWork@CvUnit@@QBE_NXZ:PROC			; CvUnit::IsWork
; Function compile flags: /Odtp
;	COMDAT ?CanWork@CvDllUnit@@UBG_NXZ
_TEXT	SEGMENT
_this$ = 8						; size = 4
?CanWork@CvDllUnit@@UBG_NXZ PROC			; CvDllUnit::CanWork, COMDAT

; 337  : {

	push	ebp
	mov	ebp, esp

; 338  : 	return m_pUnit->IsWork();

	mov	eax, DWORD PTR _this$[ebp]
	mov	ecx, DWORD PTR [eax+8]
	call	?IsWork@CvUnit@@QBE_NXZ			; CvUnit::IsWork

; 339  : }

	pop	ebp
	ret	4
?CanWork@CvDllUnit@@UBG_NXZ ENDP			; CvDllUnit::CanWork
_TEXT	ENDS
EXTRN	?isTrade@CvUnit@@QBE_NXZ:PROC			; CvUnit::isTrade
; Function compile flags: /Odtp
;	COMDAT ?IsTrade@CvDllUnit@@UBG_NXZ
_TEXT	SEGMENT
_this$ = 8						; size = 4
?IsTrade@CvDllUnit@@UBG_NXZ PROC			; CvDllUnit::IsTrade, COMDAT

; 342  : {

	push	ebp
	mov	ebp, esp

; 343  : 	return m_pUnit->isTrade();

	mov	eax, DWORD PTR _this$[ebp]
	mov	ecx, DWORD PTR [eax+8]
	call	?isTrade@CvUnit@@QBE_NXZ		; CvUnit::isTrade

; 344  : }

	pop	ebp
	ret	4
?IsTrade@CvDllUnit@@UBG_NXZ ENDP			; CvDllUnit::IsTrade
_TEXT	ENDS
EXTRN	?getSyncArchive@CvUnit@@QAEAAVFAutoArchive@@XZ:PROC ; CvUnit::getSyncArchive
; Function compile flags: /Odtp
;	COMDAT ?GetSyncArchive@CvDllUnit@@UAGAAVFAutoArchive@@XZ
_TEXT	SEGMENT
_this$ = 8						; size = 4
?GetSyncArchive@CvDllUnit@@UAGAAVFAutoArchive@@XZ PROC	; CvDllUnit::GetSyncArchive, COMDAT

; 347  : {

	push	ebp
	mov	ebp, esp

; 348  : 	return m_pUnit->getSyncArchive();

	mov	eax, DWORD PTR _this$[ebp]
	mov	ecx, DWORD PTR [eax+8]
	call	?getSyncArchive@CvUnit@@QAEAAVFAutoArchive@@XZ ; CvUnit::getSyncArchive

; 349  : }

	pop	ebp
	ret	4
?GetSyncArchive@CvDllUnit@@UAGAAVFAutoArchive@@XZ ENDP	; CvDllUnit::GetSyncArchive
_TEXT	ENDS
END
