; Listing generated by Microsoft (R) Optimizing Compiler Version 15.00.30729.01 

	TITLE	D:\sources\Lekmod_git\checkout\LEKMOD_DLL\CvGameCoreDLL_Expansion2\CvDllPlot.cpp
	.686P
	.XMM
	include listing.inc
	.model	flat

INCLUDELIB MSVCRT
INCLUDELIB OLDNAMES

PUBLIC	??_C@_05OCFELOIJ@1?40?40?$AA@			; `string'
CONST	SEGMENT
_guidICvUnknown DD 0d89ba82fH
	DW	09fa3H
	DW	04696H
	DB	0b3H
	DB	0f4H
	DB	052H
	DB	0bdH
	DB	0b1H
	DB	01H
	DB	0cfH
	DB	0b2H
_guidICvPlot1 DD 0611993fcH
	DW	02a77H
	DW	044eeH
	DB	082H
	DB	0afH
	DB	028H
	DB	0aeH
	DB	038H
	DB	038H
	DB	08H
	DB	03H
CONST	ENDS
_DATA	SEGMENT
_CIV5_XP2_DLL_VERSION DD FLAT:??_C@_05OCFELOIJ@1?40?40?$AA@
_DATA	ENDS
;	COMDAT ??_C@_05OCFELOIJ@1?40?40?$AA@
CONST	SEGMENT
??_C@_05OCFELOIJ@1?40?40?$AA@ DB '1.0.0', 00H		; `string'
CONST	ENDS
PUBLIC	??_7CvDllPlot@@6B@				; CvDllPlot::`vftable'
PUBLIC	??_7ICvPlot1@@6B@				; ICvPlot1::`vftable'
PUBLIC	??_7ICvUnknown@@6B@				; ICvUnknown::`vftable'
PUBLIC	??0CvDllPlot@@QAE@PAVCvPlot@@@Z			; CvDllPlot::CvDllPlot
PUBLIC	?QueryInterface@CvDllPlot@@UAGPAXU_GUID@@@Z	; CvDllPlot::QueryInterface
PUBLIC	?Destroy@CvDllPlot@@EAGXXZ			; CvDllPlot::Destroy
PUBLIC	?GetTeam@CvDllPlot@@UBG?AW4TeamTypes@@XZ	; CvDllPlot::GetTeam
PUBLIC	?GetActiveFogOfWarMode@CvDllPlot@@UBG?AW4FogOfWarModeTypes@@XZ ; CvDllPlot::GetActiveFogOfWarMode
PUBLIC	?UpdateCenterUnit@CvDllPlot@@UAGXXZ		; CvDllPlot::UpdateCenterUnit
PUBLIC	?IsAdjacent@CvDllPlot@@UBG_NPAVICvPlot1@@@Z	; CvDllPlot::IsAdjacent
PUBLIC	?IsRiver@CvDllPlot@@UBG_NXZ			; CvDllPlot::IsRiver
PUBLIC	?GetNeighboringPlot@CvDllPlot@@UBGPAVICvPlot1@@W4DirectionTypes@@@Z ; CvDllPlot::GetNeighboringPlot
PUBLIC	?GetBuildTime@CvDllPlot@@UBGHW4BuildTypes@@W4PlayerTypes@@@Z ; CvDllPlot::GetBuildTime
PUBLIC	?IsVisible@CvDllPlot@@UBG_NW4TeamTypes@@_N@Z	; CvDllPlot::IsVisible
PUBLIC	?IsCity@CvDllPlot@@UBG_NXZ			; CvDllPlot::IsCity
PUBLIC	?IsEnemyCity@CvDllPlot@@UBG_NPAVICvUnit1@@@Z	; CvDllPlot::IsEnemyCity
PUBLIC	?IsFighting@CvDllPlot@@UBG_NXZ			; CvDllPlot::IsFighting
PUBLIC	?IsTradeRoute@CvDllPlot@@UBG_NW4PlayerTypes@@@Z	; CvDllPlot::IsTradeRoute
PUBLIC	?IsImpassable@CvDllPlot@@UBG_NXZ		; CvDllPlot::IsImpassable
PUBLIC	?GetPosition@CvDllPlot@@UBGXAAH0@Z		; CvDllPlot::GetPosition
PUBLIC	?IsNEOfRiver@CvDllPlot@@UBG_NXZ			; CvDllPlot::IsNEOfRiver
PUBLIC	?IsWOfRiver@CvDllPlot@@UBG_NXZ			; CvDllPlot::IsWOfRiver
PUBLIC	?IsNWOfRiver@CvDllPlot@@UBG_NXZ			; CvDllPlot::IsNWOfRiver
PUBLIC	?GetRiverEFlowDirection@CvDllPlot@@UBG?AW4FlowDirectionTypes@@XZ ; CvDllPlot::GetRiverEFlowDirection
PUBLIC	?GetRiverSEFlowDirection@CvDllPlot@@UBG?AW4FlowDirectionTypes@@XZ ; CvDllPlot::GetRiverSEFlowDirection
PUBLIC	?GetRiverSWFlowDirection@CvDllPlot@@UBG?AW4FlowDirectionTypes@@XZ ; CvDllPlot::GetRiverSWFlowDirection
PUBLIC	?GetOwner@CvDllPlot@@UBG?AW4PlayerTypes@@XZ	; CvDllPlot::GetOwner
PUBLIC	?GetPlotType@CvDllPlot@@UBG?AW4PlotTypes@@XZ	; CvDllPlot::GetPlotType
PUBLIC	?IsWater@CvDllPlot@@UBG_NXZ			; CvDllPlot::IsWater
PUBLIC	?IsHills@CvDllPlot@@UBG_NXZ			; CvDllPlot::IsHills
PUBLIC	?IsOpenGround@CvDllPlot@@UBG_NXZ		; CvDllPlot::IsOpenGround
PUBLIC	?IsMountain@CvDllPlot@@UBG_NXZ			; CvDllPlot::IsMountain
PUBLIC	?GetTerrainType@CvDllPlot@@UBG?AW4TerrainTypes@@XZ ; CvDllPlot::GetTerrainType
PUBLIC	?GetFeatureType@CvDllPlot@@UBG?AW4FeatureTypes@@XZ ; CvDllPlot::GetFeatureType
PUBLIC	?GetResourceType@CvDllPlot@@UBG?AW4ResourceTypes@@W4TeamTypes@@@Z ; CvDllPlot::GetResourceType
PUBLIC	?GetNumResource@CvDllPlot@@UBGHXZ		; CvDllPlot::GetNumResource
PUBLIC	?GetImprovementType@CvDllPlot@@UBG?AW4ImprovementTypes@@XZ ; CvDllPlot::GetImprovementType
PUBLIC	?IsImprovementPillaged@CvDllPlot@@UBG_NXZ	; CvDllPlot::IsImprovementPillaged
PUBLIC	?GetWorldAnchor@CvDllPlot@@UBG?AW4GenericWorldAnchorTypes@@XZ ; CvDllPlot::GetWorldAnchor
PUBLIC	?GetWorldAnchorData@CvDllPlot@@UBGHXZ		; CvDllPlot::GetWorldAnchorData
PUBLIC	?GetRouteType@CvDllPlot@@UBG?AW4RouteTypes@@XZ	; CvDllPlot::GetRouteType
PUBLIC	?IsRoutePillaged@CvDllPlot@@UBG_NXZ		; CvDllPlot::IsRoutePillaged
PUBLIC	?GetPlotCity@CvDllPlot@@UBGPAVICvCity1@@XZ	; CvDllPlot::GetPlotCity
PUBLIC	?GetWorkingCity@CvDllPlot@@UBGPAVICvCity1@@XZ	; CvDllPlot::GetWorkingCity
PUBLIC	?IsRevealed@CvDllPlot@@UBG_NW4TeamTypes@@_N@Z	; CvDllPlot::IsRevealed
PUBLIC	?GetRevealedImprovementType@CvDllPlot@@UBG?AW4ImprovementTypes@@W4TeamTypes@@_N@Z ; CvDllPlot::GetRevealedImprovementType
PUBLIC	?GetBuildProgress@CvDllPlot@@UBGHW4BuildTypes@@@Z ; CvDllPlot::GetBuildProgress
PUBLIC	?GetAnyBuildProgress@CvDllPlot@@UBG_NXZ		; CvDllPlot::GetAnyBuildProgress
PUBLIC	?UpdateLayout@CvDllPlot@@UAGX_N@Z		; CvDllPlot::UpdateLayout
PUBLIC	?GetCenterUnit@CvDllPlot@@UAGPAVICvUnit1@@XZ	; CvDllPlot::GetCenterUnit
PUBLIC	?GetNumUnits@CvDllPlot@@UBGHXZ			; CvDllPlot::GetNumUnits
PUBLIC	?GetUnitByIndex@CvDllPlot@@UBGPAVICvUnit1@@H@Z	; CvDllPlot::GetUnitByIndex
PUBLIC	?AddUnit@CvDllPlot@@UAGXPAVICvUnit1@@_N@Z	; CvDllPlot::AddUnit
PUBLIC	?RemoveUnit@CvDllPlot@@UAGXPAVICvUnit1@@_N@Z	; CvDllPlot::RemoveUnit
PUBLIC	?NextUnitNode@CvDllPlot@@UAGPAUIDInfo@@PAU2@@Z	; CvDllPlot::NextUnitNode
PUBLIC	?NextUnitNode@CvDllPlot@@UBGPBUIDInfo@@PBU2@@Z	; CvDllPlot::NextUnitNode
PUBLIC	?HeadUnitNode@CvDllPlot@@UAGPAUIDInfo@@XZ	; CvDllPlot::HeadUnitNode
PUBLIC	?GetPlotIndex@CvDllPlot@@UBGHXZ			; CvDllPlot::GetPlotIndex
PUBLIC	?GetContinentType@CvDllPlot@@UBGDXZ		; CvDllPlot::GetContinentType
PUBLIC	?GetSyncArchive@CvDllPlot@@UAGAAVFAutoArchive@@XZ ; CvDllPlot::GetSyncArchive
EXTRN	__purecall:PROC
;	COMDAT ??_7CvDllPlot@@6B@
; File d:\sources\lekmod_git\checkout\lekmod_dll\cvgamecoredll_expansion2\cvdllplot.cpp
CONST	SEGMENT
??_7CvDllPlot@@6B@ DD FLAT:?QueryInterface@CvDllPlot@@UAGPAXU_GUID@@@Z ; CvDllPlot::`vftable'
	DD	FLAT:?Destroy@CvDllPlot@@EAGXXZ
	DD	FLAT:?GetTeam@CvDllPlot@@UBG?AW4TeamTypes@@XZ
	DD	FLAT:?GetActiveFogOfWarMode@CvDllPlot@@UBG?AW4FogOfWarModeTypes@@XZ
	DD	FLAT:?UpdateCenterUnit@CvDllPlot@@UAGXXZ
	DD	FLAT:?IsAdjacent@CvDllPlot@@UBG_NPAVICvPlot1@@@Z
	DD	FLAT:?IsRiver@CvDllPlot@@UBG_NXZ
	DD	FLAT:?GetNeighboringPlot@CvDllPlot@@UBGPAVICvPlot1@@W4DirectionTypes@@@Z
	DD	FLAT:?GetBuildTime@CvDllPlot@@UBGHW4BuildTypes@@W4PlayerTypes@@@Z
	DD	FLAT:?IsVisible@CvDllPlot@@UBG_NW4TeamTypes@@_N@Z
	DD	FLAT:?IsCity@CvDllPlot@@UBG_NXZ
	DD	FLAT:?IsEnemyCity@CvDllPlot@@UBG_NPAVICvUnit1@@@Z
	DD	FLAT:?IsFighting@CvDllPlot@@UBG_NXZ
	DD	FLAT:?IsTradeRoute@CvDllPlot@@UBG_NW4PlayerTypes@@@Z
	DD	FLAT:?IsImpassable@CvDllPlot@@UBG_NXZ
	DD	FLAT:?GetPosition@CvDllPlot@@UBGXAAH0@Z
	DD	FLAT:?IsNEOfRiver@CvDllPlot@@UBG_NXZ
	DD	FLAT:?IsWOfRiver@CvDllPlot@@UBG_NXZ
	DD	FLAT:?IsNWOfRiver@CvDllPlot@@UBG_NXZ
	DD	FLAT:?GetRiverEFlowDirection@CvDllPlot@@UBG?AW4FlowDirectionTypes@@XZ
	DD	FLAT:?GetRiverSEFlowDirection@CvDllPlot@@UBG?AW4FlowDirectionTypes@@XZ
	DD	FLAT:?GetRiverSWFlowDirection@CvDllPlot@@UBG?AW4FlowDirectionTypes@@XZ
	DD	FLAT:?GetOwner@CvDllPlot@@UBG?AW4PlayerTypes@@XZ
	DD	FLAT:?GetPlotType@CvDllPlot@@UBG?AW4PlotTypes@@XZ
	DD	FLAT:?IsWater@CvDllPlot@@UBG_NXZ
	DD	FLAT:?IsHills@CvDllPlot@@UBG_NXZ
	DD	FLAT:?IsOpenGround@CvDllPlot@@UBG_NXZ
	DD	FLAT:?IsMountain@CvDllPlot@@UBG_NXZ
	DD	FLAT:?GetTerrainType@CvDllPlot@@UBG?AW4TerrainTypes@@XZ
	DD	FLAT:?GetFeatureType@CvDllPlot@@UBG?AW4FeatureTypes@@XZ
	DD	FLAT:?GetResourceType@CvDllPlot@@UBG?AW4ResourceTypes@@W4TeamTypes@@@Z
	DD	FLAT:?GetNumResource@CvDllPlot@@UBGHXZ
	DD	FLAT:?GetImprovementType@CvDllPlot@@UBG?AW4ImprovementTypes@@XZ
	DD	FLAT:?IsImprovementPillaged@CvDllPlot@@UBG_NXZ
	DD	FLAT:?GetWorldAnchor@CvDllPlot@@UBG?AW4GenericWorldAnchorTypes@@XZ
	DD	FLAT:?GetWorldAnchorData@CvDllPlot@@UBGHXZ
	DD	FLAT:?GetRouteType@CvDllPlot@@UBG?AW4RouteTypes@@XZ
	DD	FLAT:?IsRoutePillaged@CvDllPlot@@UBG_NXZ
	DD	FLAT:?GetPlotCity@CvDllPlot@@UBGPAVICvCity1@@XZ
	DD	FLAT:?GetWorkingCity@CvDllPlot@@UBGPAVICvCity1@@XZ
	DD	FLAT:?IsRevealed@CvDllPlot@@UBG_NW4TeamTypes@@_N@Z
	DD	FLAT:?GetRevealedImprovementType@CvDllPlot@@UBG?AW4ImprovementTypes@@W4TeamTypes@@_N@Z
	DD	FLAT:?GetBuildProgress@CvDllPlot@@UBGHW4BuildTypes@@@Z
	DD	FLAT:?GetAnyBuildProgress@CvDllPlot@@UBG_NXZ
	DD	FLAT:?UpdateLayout@CvDllPlot@@UAGX_N@Z
	DD	FLAT:?GetCenterUnit@CvDllPlot@@UAGPAVICvUnit1@@XZ
	DD	FLAT:?GetNumUnits@CvDllPlot@@UBGHXZ
	DD	FLAT:?GetUnitByIndex@CvDllPlot@@UBGPAVICvUnit1@@H@Z
	DD	FLAT:?AddUnit@CvDllPlot@@UAGXPAVICvUnit1@@_N@Z
	DD	FLAT:?RemoveUnit@CvDllPlot@@UAGXPAVICvUnit1@@_N@Z
	DD	FLAT:?NextUnitNode@CvDllPlot@@UAGPAUIDInfo@@PAU2@@Z
	DD	FLAT:?NextUnitNode@CvDllPlot@@UBGPBUIDInfo@@PBU2@@Z
	DD	FLAT:?HeadUnitNode@CvDllPlot@@UAGPAUIDInfo@@XZ
	DD	FLAT:?GetPlotIndex@CvDllPlot@@UBGHXZ
	DD	FLAT:?GetContinentType@CvDllPlot@@UBGDXZ
	DD	FLAT:?GetSyncArchive@CvDllPlot@@UAGAAVFAutoArchive@@XZ
CONST	ENDS
;	COMDAT ??_7ICvPlot1@@6B@
CONST	SEGMENT
??_7ICvPlot1@@6B@ DD FLAT:__purecall			; ICvPlot1::`vftable'
	DD	FLAT:__purecall
	DD	FLAT:__purecall
	DD	FLAT:__purecall
	DD	FLAT:__purecall
	DD	FLAT:__purecall
	DD	FLAT:__purecall
	DD	FLAT:__purecall
	DD	FLAT:__purecall
	DD	FLAT:__purecall
	DD	FLAT:__purecall
	DD	FLAT:__purecall
	DD	FLAT:__purecall
	DD	FLAT:__purecall
	DD	FLAT:__purecall
	DD	FLAT:__purecall
	DD	FLAT:__purecall
	DD	FLAT:__purecall
	DD	FLAT:__purecall
	DD	FLAT:__purecall
	DD	FLAT:__purecall
	DD	FLAT:__purecall
	DD	FLAT:__purecall
	DD	FLAT:__purecall
	DD	FLAT:__purecall
	DD	FLAT:__purecall
	DD	FLAT:__purecall
	DD	FLAT:__purecall
	DD	FLAT:__purecall
	DD	FLAT:__purecall
	DD	FLAT:__purecall
	DD	FLAT:__purecall
	DD	FLAT:__purecall
	DD	FLAT:__purecall
	DD	FLAT:__purecall
	DD	FLAT:__purecall
	DD	FLAT:__purecall
	DD	FLAT:__purecall
	DD	FLAT:__purecall
	DD	FLAT:__purecall
	DD	FLAT:__purecall
	DD	FLAT:__purecall
	DD	FLAT:__purecall
	DD	FLAT:__purecall
	DD	FLAT:__purecall
	DD	FLAT:__purecall
	DD	FLAT:__purecall
	DD	FLAT:__purecall
	DD	FLAT:__purecall
	DD	FLAT:__purecall
	DD	FLAT:__purecall
	DD	FLAT:__purecall
	DD	FLAT:__purecall
	DD	FLAT:__purecall
	DD	FLAT:__purecall
	DD	FLAT:__purecall
CONST	ENDS
;	COMDAT ??_7ICvUnknown@@6B@
CONST	SEGMENT
??_7ICvUnknown@@6B@ DD FLAT:__purecall			; ICvUnknown::`vftable'
	DD	FLAT:__purecall
; Function compile flags: /Odtp
CONST	ENDS
;	COMDAT ??0CvDllPlot@@QAE@PAVCvPlot@@@Z
_TEXT	SEGMENT
_this$ = -4						; size = 4
_pPlot$ = 8						; size = 4
??0CvDllPlot@@QAE@PAVCvPlot@@@Z PROC			; CvDllPlot::CvDllPlot, COMDAT
; _this$ = ecx

; 22   : {

	push	ebp
	mov	ebp, esp
	push	ecx
	mov	DWORD PTR _this$[ebp], ecx
	mov	eax, DWORD PTR _this$[ebp]
	mov	DWORD PTR [eax], OFFSET ??_7ICvUnknown@@6B@
	mov	ecx, DWORD PTR _this$[ebp]
	mov	DWORD PTR [ecx], OFFSET ??_7ICvPlot1@@6B@
	mov	edx, DWORD PTR _this$[ebp]
	mov	DWORD PTR [edx], OFFSET ??_7CvDllPlot@@6B@
	mov	eax, DWORD PTR _this$[ebp]
	mov	DWORD PTR [eax+4], 1
	mov	ecx, DWORD PTR _this$[ebp]
	mov	edx, DWORD PTR _pPlot$[ebp]
	mov	DWORD PTR [ecx+8], edx

; 23   : 	FAssertMsg(pPlot != NULL, "SHOULD NOT HAPPEN");
; 24   : }

	mov	eax, DWORD PTR _this$[ebp]
	mov	esp, ebp
	pop	ebp
	ret	4
??0CvDllPlot@@QAE@PAVCvPlot@@@Z ENDP			; CvDllPlot::CvDllPlot
_TEXT	ENDS
PUBLIC	??1CvDllPlot@@QAE@XZ				; CvDllPlot::~CvDllPlot
; Function compile flags: /Odtp
;	COMDAT ??1CvDllPlot@@QAE@XZ
_TEXT	SEGMENT
_this$ = -4						; size = 4
??1CvDllPlot@@QAE@XZ PROC				; CvDllPlot::~CvDllPlot, COMDAT
; _this$ = ecx

; 27   : {

	push	ebp
	mov	ebp, esp
	push	ecx
	mov	DWORD PTR _this$[ebp], ecx
	mov	eax, DWORD PTR _this$[ebp]
	mov	DWORD PTR [eax], OFFSET ??_7CvDllPlot@@6B@

; 28   : }

	mov	esp, ebp
	pop	ebp
	ret	0
??1CvDllPlot@@QAE@XZ ENDP				; CvDllPlot::~CvDllPlot
_TEXT	ENDS
PUBLIC	?IncrementReference@CvDllPlot@@QAEIXZ		; CvDllPlot::IncrementReference
; Function compile flags: /Odtp
;	COMDAT ?QueryInterface@CvDllPlot@@UAGPAXU_GUID@@@Z
_TEXT	SEGMENT
tv90 = -88						; size = 4
tv161 = -84						; size = 4
tv85 = -80						; size = 4
tv137 = -76						; size = 4
$T218491 = -72						; size = 16
$T218490 = -56						; size = 16
$T218489 = -40						; size = 16
$T218488 = -20						; size = 16
_this$ = 8						; size = 4
_guidInterface$ = 12					; size = 16
?QueryInterface@CvDllPlot@@UAGPAXU_GUID@@@Z PROC	; CvDllPlot::QueryInterface, COMDAT

; 31   : {

	push	ebp
	mov	ebp, esp
	sub	esp, 88					; 00000058H
	push	esi
	push	edi

; 32   : 	if(guidInterface == ICvUnknown::GetInterfaceId() ||
; 33   : 	        guidInterface == ICvPlot1::GetInterfaceId())

	mov	eax, DWORD PTR _guidICvUnknown
	mov	DWORD PTR $T218489[ebp], eax
	mov	ecx, DWORD PTR _guidICvUnknown+4
	mov	DWORD PTR $T218489[ebp+4], ecx
	mov	edx, DWORD PTR _guidICvUnknown+8
	mov	DWORD PTR $T218489[ebp+8], edx
	mov	eax, DWORD PTR _guidICvUnknown+12
	mov	DWORD PTR $T218489[ebp+12], eax
	mov	ecx, DWORD PTR $T218489[ebp]
	mov	DWORD PTR $T218488[ebp], ecx
	mov	edx, DWORD PTR $T218489[ebp+4]
	mov	DWORD PTR $T218488[ebp+4], edx
	mov	eax, DWORD PTR $T218489[ebp+8]
	mov	DWORD PTR $T218488[ebp+8], eax
	mov	ecx, DWORD PTR $T218489[ebp+12]
	mov	DWORD PTR $T218488[ebp+12], ecx
	mov	ecx, 16					; 00000010H
	lea	edi, DWORD PTR $T218488[ebp]
	lea	esi, DWORD PTR _guidInterface$[ebp]
	xor	edx, edx
	mov	DWORD PTR tv137[ebp], edx
	repe cmpsb
	je	SHORT $LN17@QueryInter
	sbb	eax, eax
	sbb	eax, -1
	mov	DWORD PTR tv137[ebp], eax
$LN17@QueryInter:
	mov	ecx, DWORD PTR tv137[ebp]
	mov	DWORD PTR tv85[ebp], ecx
	xor	edx, edx
	cmp	DWORD PTR tv85[ebp], 0
	sete	dl
	test	edx, edx
	jne	SHORT $LN1@QueryInter
	mov	eax, DWORD PTR _guidICvPlot1
	mov	DWORD PTR $T218491[ebp], eax
	mov	ecx, DWORD PTR _guidICvPlot1+4
	mov	DWORD PTR $T218491[ebp+4], ecx
	mov	edx, DWORD PTR _guidICvPlot1+8
	mov	DWORD PTR $T218491[ebp+8], edx
	mov	eax, DWORD PTR _guidICvPlot1+12
	mov	DWORD PTR $T218491[ebp+12], eax
	mov	ecx, DWORD PTR $T218491[ebp]
	mov	DWORD PTR $T218490[ebp], ecx
	mov	edx, DWORD PTR $T218491[ebp+4]
	mov	DWORD PTR $T218490[ebp+4], edx
	mov	eax, DWORD PTR $T218491[ebp+8]
	mov	DWORD PTR $T218490[ebp+8], eax
	mov	ecx, DWORD PTR $T218491[ebp+12]
	mov	DWORD PTR $T218490[ebp+12], ecx
	mov	ecx, 16					; 00000010H
	lea	edi, DWORD PTR $T218490[ebp]
	lea	esi, DWORD PTR _guidInterface$[ebp]
	xor	edx, edx
	mov	DWORD PTR tv161[ebp], edx
	repe cmpsb
	je	SHORT $LN18@QueryInter
	sbb	eax, eax
	sbb	eax, -1
	mov	DWORD PTR tv161[ebp], eax
$LN18@QueryInter:
	mov	ecx, DWORD PTR tv161[ebp]
	mov	DWORD PTR tv90[ebp], ecx
	xor	edx, edx
	cmp	DWORD PTR tv90[ebp], 0
	sete	dl
	test	edx, edx
	je	SHORT $LN2@QueryInter
$LN1@QueryInter:

; 34   : 	{
; 35   : 		IncrementReference();

	mov	ecx, DWORD PTR _this$[ebp]
	call	?IncrementReference@CvDllPlot@@QAEIXZ	; CvDllPlot::IncrementReference

; 36   : 		return this;

	mov	eax, DWORD PTR _this$[ebp]
	jmp	SHORT $LN3@QueryInter
$LN2@QueryInter:

; 37   : 	}
; 38   : 
; 39   : 	return NULL;

	xor	eax, eax
$LN3@QueryInter:

; 40   : }

	pop	edi
	pop	esi
	mov	esp, ebp
	pop	ebp
	ret	20					; 00000014H
?QueryInterface@CvDllPlot@@UAGPAXU_GUID@@@Z ENDP	; CvDllPlot::QueryInterface
; Function compile flags: /Odtp
_TEXT	ENDS
;	COMDAT ?IncrementReference@CvDllPlot@@QAEIXZ
_TEXT	SEGMENT
_this$ = -4						; size = 4
?IncrementReference@CvDllPlot@@QAEIXZ PROC		; CvDllPlot::IncrementReference, COMDAT
; _this$ = ecx

; 43   : {

	push	ebp
	mov	ebp, esp
	push	ecx
	mov	DWORD PTR _this$[ebp], ecx

; 44   : 	++m_uiRefCount;

	mov	eax, DWORD PTR _this$[ebp]
	mov	ecx, DWORD PTR [eax+4]
	add	ecx, 1
	mov	edx, DWORD PTR _this$[ebp]
	mov	DWORD PTR [edx+4], ecx

; 45   : 	return m_uiRefCount;

	mov	eax, DWORD PTR _this$[ebp]
	mov	eax, DWORD PTR [eax+4]

; 46   : }

	mov	esp, ebp
	pop	ebp
	ret	0
?IncrementReference@CvDllPlot@@QAEIXZ ENDP		; CvDllPlot::IncrementReference
_TEXT	ENDS
PUBLIC	??3CvDllPlot@@SAXPAX@Z				; CvDllPlot::operator delete
PUBLIC	?DecrementReference@CvDllPlot@@QAEIXZ		; CvDllPlot::DecrementReference
; Function compile flags: /Odtp
;	COMDAT ?DecrementReference@CvDllPlot@@QAEIXZ
_TEXT	SEGMENT
tv70 = -16						; size = 4
_this$ = -12						; size = 4
$T218523 = -8						; size = 4
$T218522 = -4						; size = 4
?DecrementReference@CvDllPlot@@QAEIXZ PROC		; CvDllPlot::DecrementReference, COMDAT
; _this$ = ecx

; 49   : {

	push	ebp
	mov	ebp, esp
	sub	esp, 16					; 00000010H
	mov	DWORD PTR _this$[ebp], ecx

; 50   : 	if(m_uiRefCount == 1)

	mov	eax, DWORD PTR _this$[ebp]
	cmp	DWORD PTR [eax+4], 1
	jne	SHORT $LN2@DecrementR

; 51   : 	{
; 52   : 		delete this;

	mov	ecx, DWORD PTR _this$[ebp]
	mov	DWORD PTR $T218523[ebp], ecx
	mov	edx, DWORD PTR $T218523[ebp]
	mov	DWORD PTR $T218522[ebp], edx
	cmp	DWORD PTR $T218522[ebp], 0
	je	SHORT $LN5@DecrementR
	mov	ecx, DWORD PTR $T218522[ebp]
	call	??1CvDllPlot@@QAE@XZ			; CvDllPlot::~CvDllPlot
	mov	eax, 1
	and	eax, 1
	je	SHORT $LN8@DecrementR
	mov	ecx, DWORD PTR $T218522[ebp]
	push	ecx
	call	??3CvDllPlot@@SAXPAX@Z			; CvDllPlot::operator delete
	add	esp, 4
$LN8@DecrementR:
	mov	edx, DWORD PTR $T218522[ebp]
	mov	DWORD PTR tv70[ebp], edx
	jmp	SHORT $LN6@DecrementR
$LN5@DecrementR:
	mov	DWORD PTR tv70[ebp], 0
$LN6@DecrementR:

; 53   : 		return 0;

	xor	eax, eax
	jmp	SHORT $LN3@DecrementR

; 54   : 	}
; 55   : 	else

	jmp	SHORT $LN3@DecrementR
$LN2@DecrementR:

; 56   : 	{
; 57   : 		--m_uiRefCount;

	mov	eax, DWORD PTR _this$[ebp]
	mov	ecx, DWORD PTR [eax+4]
	sub	ecx, 1
	mov	edx, DWORD PTR _this$[ebp]
	mov	DWORD PTR [edx+4], ecx

; 58   : 		return m_uiRefCount;

	mov	eax, DWORD PTR _this$[ebp]
	mov	eax, DWORD PTR [eax+4]
$LN3@DecrementR:

; 59   : 	}
; 60   : }

	mov	esp, ebp
	pop	ebp
	ret	0
?DecrementReference@CvDllPlot@@QAEIXZ ENDP		; CvDllPlot::DecrementReference
_TEXT	ENDS
PUBLIC	?GetReferenceCount@CvDllPlot@@QAEIXZ		; CvDllPlot::GetReferenceCount
; Function compile flags: /Odtp
;	COMDAT ?GetReferenceCount@CvDllPlot@@QAEIXZ
_TEXT	SEGMENT
_this$ = -4						; size = 4
?GetReferenceCount@CvDllPlot@@QAEIXZ PROC		; CvDllPlot::GetReferenceCount, COMDAT
; _this$ = ecx

; 63   : {

	push	ebp
	mov	ebp, esp
	push	ecx
	mov	DWORD PTR _this$[ebp], ecx

; 64   : 	return m_uiRefCount;

	mov	eax, DWORD PTR _this$[ebp]
	mov	eax, DWORD PTR [eax+4]

; 65   : }

	mov	esp, ebp
	pop	ebp
	ret	0
?GetReferenceCount@CvDllPlot@@QAEIXZ ENDP		; CvDllPlot::GetReferenceCount
; Function compile flags: /Odtp
_TEXT	ENDS
;	COMDAT ?Destroy@CvDllPlot@@EAGXXZ
_TEXT	SEGMENT
_this$ = 8						; size = 4
?Destroy@CvDllPlot@@EAGXXZ PROC				; CvDllPlot::Destroy, COMDAT

; 68   : {

	push	ebp
	mov	ebp, esp

; 69   : 	DecrementReference();

	mov	ecx, DWORD PTR _this$[ebp]
	call	?DecrementReference@CvDllPlot@@QAEIXZ	; CvDllPlot::DecrementReference

; 70   : }

	pop	ebp
	ret	4
?Destroy@CvDllPlot@@EAGXXZ ENDP				; CvDllPlot::Destroy
_TEXT	ENDS
EXTRN	?Free@CvDllGameContext@@SAXPAX@Z:PROC		; CvDllGameContext::Free
; Function compile flags: /Odtp
;	COMDAT ??3CvDllPlot@@SAXPAX@Z
_TEXT	SEGMENT
_p$ = 8							; size = 4
??3CvDllPlot@@SAXPAX@Z PROC				; CvDllPlot::operator delete, COMDAT

; 73   : {

	push	ebp
	mov	ebp, esp

; 74   : 	CvDllGameContext::Free(p);

	mov	eax, DWORD PTR _p$[ebp]
	push	eax
	call	?Free@CvDllGameContext@@SAXPAX@Z	; CvDllGameContext::Free
	add	esp, 4

; 75   : }

	pop	ebp
	ret	0
??3CvDllPlot@@SAXPAX@Z ENDP				; CvDllPlot::operator delete
_TEXT	ENDS
PUBLIC	??2CvDllPlot@@SAPAXI@Z				; CvDllPlot::operator new
EXTRN	?Allocate@CvDllGameContext@@SAPAXI@Z:PROC	; CvDllGameContext::Allocate
; Function compile flags: /Odtp
;	COMDAT ??2CvDllPlot@@SAPAXI@Z
_TEXT	SEGMENT
_bytes$ = 8						; size = 4
??2CvDllPlot@@SAPAXI@Z PROC				; CvDllPlot::operator new, COMDAT

; 78   : {

	push	ebp
	mov	ebp, esp

; 79   : 	return CvDllGameContext::Allocate(bytes);

	mov	eax, DWORD PTR _bytes$[ebp]
	push	eax
	call	?Allocate@CvDllGameContext@@SAPAXI@Z	; CvDllGameContext::Allocate
	add	esp, 4

; 80   : }

	pop	ebp
	ret	0
??2CvDllPlot@@SAPAXI@Z ENDP				; CvDllPlot::operator new
_TEXT	ENDS
PUBLIC	?GetInstance@CvDllPlot@@QAEPAVCvPlot@@XZ	; CvDllPlot::GetInstance
; Function compile flags: /Odtp
;	COMDAT ?GetInstance@CvDllPlot@@QAEPAVCvPlot@@XZ
_TEXT	SEGMENT
_this$ = -4						; size = 4
?GetInstance@CvDllPlot@@QAEPAVCvPlot@@XZ PROC		; CvDllPlot::GetInstance, COMDAT
; _this$ = ecx

; 83   : {

	push	ebp
	mov	ebp, esp
	push	ecx
	mov	DWORD PTR _this$[ebp], ecx

; 84   : 	return m_pPlot;

	mov	eax, DWORD PTR _this$[ebp]
	mov	eax, DWORD PTR [eax+8]

; 85   : }

	mov	esp, ebp
	pop	ebp
	ret	0
?GetInstance@CvDllPlot@@QAEPAVCvPlot@@XZ ENDP		; CvDllPlot::GetInstance
; Function compile flags: /Odtp
_TEXT	ENDS
;	COMDAT ?GetTeam@CvDllPlot@@UBG?AW4TeamTypes@@XZ
_TEXT	SEGMENT
$T218559 = -12						; size = 4
$T218558 = -8						; size = 4
_playerID$218555 = -4					; size = 4
_this$ = 8						; size = 4
?GetTeam@CvDllPlot@@UBG?AW4TeamTypes@@XZ PROC		; CvDllPlot::GetTeam, COMDAT

; 88   : {

	push	ebp
	mov	ebp, esp
	sub	esp, 12					; 0000000cH

; 89   : 	return m_pPlot->getTeam();

	mov	eax, DWORD PTR _this$[ebp]
	mov	ecx, DWORD PTR [eax+8]
	mov	DWORD PTR $T218558[ebp], ecx
	mov	edx, DWORD PTR $T218558[ebp]
	movsx	eax, BYTE PTR [edx+4]
	mov	DWORD PTR _playerID$218555[ebp], eax
	cmp	DWORD PTR _playerID$218555[ebp], -1
	je	SHORT $LN4@GetTeam
	mov	ecx, DWORD PTR _playerID$218555[ebp]
	push	ecx
	call	?teamType@CvPreGame@@YA?AW4TeamTypes@@W4PlayerTypes@@@Z ; CvPreGame::teamType
	add	esp, 4
	mov	DWORD PTR $T218559[ebp], eax
	jmp	SHORT $LN5@GetTeam
	jmp	SHORT $LN5@GetTeam
$LN4@GetTeam:
	mov	DWORD PTR $T218559[ebp], -1
$LN5@GetTeam:
	mov	eax, DWORD PTR $T218559[ebp]

; 90   : }

	mov	esp, ebp
	pop	ebp
	ret	4
?GetTeam@CvDllPlot@@UBG?AW4TeamTypes@@XZ ENDP		; CvDllPlot::GetTeam
_TEXT	ENDS
EXTRN	?GetActiveFogOfWarMode@CvPlot@@QBE?AW4FogOfWarModeTypes@@XZ:PROC ; CvPlot::GetActiveFogOfWarMode
; Function compile flags: /Odtp
;	COMDAT ?GetActiveFogOfWarMode@CvDllPlot@@UBG?AW4FogOfWarModeTypes@@XZ
_TEXT	SEGMENT
_this$ = 8						; size = 4
?GetActiveFogOfWarMode@CvDllPlot@@UBG?AW4FogOfWarModeTypes@@XZ PROC ; CvDllPlot::GetActiveFogOfWarMode, COMDAT

; 93   : {

	push	ebp
	mov	ebp, esp

; 94   : 	return m_pPlot->GetActiveFogOfWarMode();

	mov	eax, DWORD PTR _this$[ebp]
	mov	ecx, DWORD PTR [eax+8]
	call	?GetActiveFogOfWarMode@CvPlot@@QBE?AW4FogOfWarModeTypes@@XZ ; CvPlot::GetActiveFogOfWarMode

; 95   : }

	pop	ebp
	ret	4
?GetActiveFogOfWarMode@CvDllPlot@@UBG?AW4FogOfWarModeTypes@@XZ ENDP ; CvDllPlot::GetActiveFogOfWarMode
_TEXT	ENDS
EXTRN	?updateCenterUnit@CvPlot@@QAEXXZ:PROC		; CvPlot::updateCenterUnit
; Function compile flags: /Odtp
;	COMDAT ?UpdateCenterUnit@CvDllPlot@@UAGXXZ
_TEXT	SEGMENT
_this$ = 8						; size = 4
?UpdateCenterUnit@CvDllPlot@@UAGXXZ PROC		; CvDllPlot::UpdateCenterUnit, COMDAT

; 98   : {

	push	ebp
	mov	ebp, esp

; 99   : 	m_pPlot->updateCenterUnit();

	mov	eax, DWORD PTR _this$[ebp]
	mov	ecx, DWORD PTR [eax+8]
	call	?updateCenterUnit@CvPlot@@QAEXXZ	; CvPlot::updateCenterUnit

; 100  : }

	pop	ebp
	ret	4
?UpdateCenterUnit@CvDllPlot@@UAGXXZ ENDP		; CvDllPlot::UpdateCenterUnit
_TEXT	ENDS
EXTRN	?isAdjacent@CvPlot@@QBE_NPBV1@@Z:PROC		; CvPlot::isAdjacent
; Function compile flags: /Odtp
;	COMDAT ?IsAdjacent@CvDllPlot@@UBG_NPAVICvPlot1@@@Z
_TEXT	SEGMENT
tv71 = -8						; size = 4
_pkPlot$ = -4						; size = 4
_this$ = 8						; size = 4
_pPlot$ = 12						; size = 4
?IsAdjacent@CvDllPlot@@UBG_NPAVICvPlot1@@@Z PROC	; CvDllPlot::IsAdjacent, COMDAT

; 103  : {

	push	ebp
	mov	ebp, esp
	sub	esp, 8

; 104  : 	CvPlot* pkPlot = (pPlot != NULL)? static_cast<CvDllPlot*>(pPlot)->GetInstance() : NULL;

	cmp	DWORD PTR _pPlot$[ebp], 0
	je	SHORT $LN3@IsAdjacent
	mov	ecx, DWORD PTR _pPlot$[ebp]
	call	?GetInstance@CvDllPlot@@QAEPAVCvPlot@@XZ ; CvDllPlot::GetInstance
	mov	DWORD PTR tv71[ebp], eax
	jmp	SHORT $LN4@IsAdjacent
$LN3@IsAdjacent:
	mov	DWORD PTR tv71[ebp], 0
$LN4@IsAdjacent:
	mov	eax, DWORD PTR tv71[ebp]
	mov	DWORD PTR _pkPlot$[ebp], eax

; 105  : 	return m_pPlot->isAdjacent(pkPlot);

	mov	ecx, DWORD PTR _pkPlot$[ebp]
	push	ecx
	mov	edx, DWORD PTR _this$[ebp]
	mov	ecx, DWORD PTR [edx+8]
	call	?isAdjacent@CvPlot@@QBE_NPBV1@@Z	; CvPlot::isAdjacent

; 106  : }

	mov	esp, ebp
	pop	ebp
	ret	8
?IsAdjacent@CvDllPlot@@UBG_NPAVICvPlot1@@@Z ENDP	; CvDllPlot::IsAdjacent
; Function compile flags: /Odtp
_TEXT	ENDS
;	COMDAT ?IsRiver@CvDllPlot@@UBG_NXZ
_TEXT	SEGMENT
_this$ = 8						; size = 4
?IsRiver@CvDllPlot@@UBG_NXZ PROC			; CvDllPlot::IsRiver, COMDAT

; 109  : {

	push	ebp
	mov	ebp, esp

; 110  : 	return m_pPlot->isRiver();

	mov	eax, DWORD PTR _this$[ebp]
	mov	ecx, DWORD PTR [eax+8]
	movsx	edx, BYTE PTR [ecx+457]
	xor	eax, eax
	test	edx, edx
	setg	al

; 111  : }

	pop	ebp
	ret	4
?IsRiver@CvDllPlot@@UBG_NXZ ENDP			; CvDllPlot::IsRiver
_TEXT	ENDS
EXTRN	?getNeighboringPlot@CvPlot@@QBEPAV1@W4DirectionTypes@@@Z:PROC ; CvPlot::getNeighboringPlot
EXTRN	___security_cookie:DWORD
EXTRN	___CxxFrameHandler3:PROC
EXTRN	@__security_check_cookie@4:PROC
;	COMDAT xdata$x
xdata$x	SEGMENT
__unwindtable$?GetNeighboringPlot@CvDllPlot@@UBGPAVICvPlot1@@W4DirectionTypes@@@Z DD 0ffffffffH
	DD	FLAT:__unwindfunclet$?GetNeighboringPlot@CvDllPlot@@UBGPAVICvPlot1@@W4DirectionTypes@@@Z$0
__ehfuncinfo$?GetNeighboringPlot@CvDllPlot@@UBGPAVICvPlot1@@W4DirectionTypes@@@Z DD 019930522H
	DD	01H
	DD	FLAT:__unwindtable$?GetNeighboringPlot@CvDllPlot@@UBGPAVICvPlot1@@W4DirectionTypes@@@Z
	DD	2 DUP(00H)
	DD	2 DUP(00H)
	DD	00H
	DD	01H
; Function compile flags: /Odtp
xdata$x	ENDS
;	COMDAT ?GetNeighboringPlot@CvDllPlot@@UBGPAVICvPlot1@@W4DirectionTypes@@@Z
_TEXT	SEGMENT
tv75 = -32						; size = 4
tv80 = -28						; size = 4
$T218576 = -24						; size = 4
$T218575 = -20						; size = 4
_pkPlot$ = -16						; size = 4
__$EHRec$ = -12						; size = 12
_this$ = 8						; size = 4
_eDirection$ = 12					; size = 4
?GetNeighboringPlot@CvDllPlot@@UBGPAVICvPlot1@@W4DirectionTypes@@@Z PROC ; CvDllPlot::GetNeighboringPlot, COMDAT

; 114  : {

	push	ebp
	mov	ebp, esp
	push	-1
	push	__ehhandler$?GetNeighboringPlot@CvDllPlot@@UBGPAVICvPlot1@@W4DirectionTypes@@@Z
	mov	eax, DWORD PTR fs:0
	push	eax
	sub	esp, 20					; 00000014H
	mov	eax, DWORD PTR ___security_cookie
	xor	eax, ebp
	push	eax
	lea	eax, DWORD PTR __$EHRec$[ebp]
	mov	DWORD PTR fs:0, eax

; 115  : 	CvPlot* pkPlot = m_pPlot->getNeighboringPlot(eDirection);

	mov	eax, DWORD PTR _eDirection$[ebp]
	push	eax
	mov	ecx, DWORD PTR _this$[ebp]
	mov	ecx, DWORD PTR [ecx+8]
	call	?getNeighboringPlot@CvPlot@@QBEPAV1@W4DirectionTypes@@@Z ; CvPlot::getNeighboringPlot
	mov	DWORD PTR _pkPlot$[ebp], eax

; 116  : 	return (NULL != pkPlot)? new CvDllPlot(pkPlot) : NULL;

	cmp	DWORD PTR _pkPlot$[ebp], 0
	je	SHORT $LN5@GetNeighbo
	push	12					; 0000000cH
	call	??2CvDllPlot@@SAPAXI@Z			; CvDllPlot::operator new
	add	esp, 4
	mov	DWORD PTR $T218576[ebp], eax
	mov	DWORD PTR __$EHRec$[ebp+8], 0
	cmp	DWORD PTR $T218576[ebp], 0
	je	SHORT $LN3@GetNeighbo
	mov	edx, DWORD PTR _pkPlot$[ebp]
	push	edx
	mov	ecx, DWORD PTR $T218576[ebp]
	call	??0CvDllPlot@@QAE@PAVCvPlot@@@Z		; CvDllPlot::CvDllPlot
	mov	DWORD PTR tv80[ebp], eax
	jmp	SHORT $LN4@GetNeighbo
$LN3@GetNeighbo:
	mov	DWORD PTR tv80[ebp], 0
$LN4@GetNeighbo:
	mov	eax, DWORD PTR tv80[ebp]
	mov	DWORD PTR $T218575[ebp], eax
	mov	DWORD PTR __$EHRec$[ebp+8], -1
	mov	ecx, DWORD PTR $T218575[ebp]
	mov	DWORD PTR tv75[ebp], ecx
	jmp	SHORT $LN6@GetNeighbo
$LN5@GetNeighbo:
	mov	DWORD PTR tv75[ebp], 0
$LN6@GetNeighbo:
	mov	eax, DWORD PTR tv75[ebp]

; 117  : }

	mov	ecx, DWORD PTR __$EHRec$[ebp]
	mov	DWORD PTR fs:0, ecx
	pop	ecx
	mov	esp, ebp
	pop	ebp
	ret	8
_TEXT	ENDS
;	COMDAT text$x
text$x	SEGMENT
__unwindfunclet$?GetNeighboringPlot@CvDllPlot@@UBGPAVICvPlot1@@W4DirectionTypes@@@Z$0:
	mov	eax, DWORD PTR $T218576[ebp]
	push	eax
	call	??3CvDllPlot@@SAXPAX@Z			; CvDllPlot::operator delete
	pop	ecx
	ret	0
__ehhandler$?GetNeighboringPlot@CvDllPlot@@UBGPAVICvPlot1@@W4DirectionTypes@@@Z:
	mov	edx, DWORD PTR [esp+8]
	lea	eax, DWORD PTR [edx+12]
	mov	ecx, DWORD PTR [edx-24]
	xor	ecx, eax
	call	@__security_check_cookie@4
	mov	eax, OFFSET __ehfuncinfo$?GetNeighboringPlot@CvDllPlot@@UBGPAVICvPlot1@@W4DirectionTypes@@@Z
	jmp	___CxxFrameHandler3
text$x	ENDS
?GetNeighboringPlot@CvDllPlot@@UBGPAVICvPlot1@@W4DirectionTypes@@@Z ENDP ; CvDllPlot::GetNeighboringPlot
EXTRN	?getBuildTime@CvPlot@@QBEHW4BuildTypes@@W4PlayerTypes@@@Z:PROC ; CvPlot::getBuildTime
; Function compile flags: /Odtp
;	COMDAT ?GetBuildTime@CvDllPlot@@UBGHW4BuildTypes@@W4PlayerTypes@@@Z
_TEXT	SEGMENT
_this$ = 8						; size = 4
_eBuild$ = 12						; size = 4
_ePlayer$ = 16						; size = 4
?GetBuildTime@CvDllPlot@@UBGHW4BuildTypes@@W4PlayerTypes@@@Z PROC ; CvDllPlot::GetBuildTime, COMDAT

; 120  : {

	push	ebp
	mov	ebp, esp

; 121  : 	return m_pPlot->getBuildTime(eBuild, ePlayer);

	mov	eax, DWORD PTR _ePlayer$[ebp]
	push	eax
	mov	ecx, DWORD PTR _eBuild$[ebp]
	push	ecx
	mov	edx, DWORD PTR _this$[ebp]
	mov	ecx, DWORD PTR [edx+8]
	call	?getBuildTime@CvPlot@@QBEHW4BuildTypes@@W4PlayerTypes@@@Z ; CvPlot::getBuildTime

; 122  : }

	pop	ebp
	ret	12					; 0000000cH
?GetBuildTime@CvDllPlot@@UBGHW4BuildTypes@@W4PlayerTypes@@@Z ENDP ; CvDllPlot::GetBuildTime
_TEXT	ENDS
EXTRN	?isDebugMode@CvGame@@QBE_NXZ:PROC		; CvGame::isDebugMode
EXTRN	?gGlobals@@3VCvGlobals@@A:BYTE			; gGlobals
; Function compile flags: /Odtp
;	COMDAT ?IsVisible@CvDllPlot@@UBG_NW4TeamTypes@@_N@Z
_TEXT	SEGMENT
$T218615 = -9						; size = 1
$T218614 = -8						; size = 4
$T218601 = -4						; size = 4
_this$ = 8						; size = 4
_eTeam$ = 12						; size = 4
_bDebug$ = 16						; size = 1
?IsVisible@CvDllPlot@@UBG_NW4TeamTypes@@_N@Z PROC	; CvDllPlot::IsVisible, COMDAT

; 125  : {

	push	ebp
	mov	ebp, esp
	sub	esp, 12					; 0000000cH

; 126  : 	return m_pPlot->isVisible(eTeam, bDebug);

	mov	eax, DWORD PTR _this$[ebp]
	mov	ecx, DWORD PTR [eax+8]
	mov	DWORD PTR $T218614[ebp], ecx
	movzx	edx, BYTE PTR _bDebug$[ebp]
	test	edx, edx
	je	SHORT $LN5@IsVisible
	mov	eax, DWORD PTR ?gGlobals@@3VCvGlobals@@A+48
	mov	DWORD PTR $T218601[ebp], eax
	mov	ecx, DWORD PTR $T218601[ebp]
	call	?isDebugMode@CvGame@@QBE_NXZ		; CvGame::isDebugMode
	movzx	ecx, al
	test	ecx, ecx
	je	SHORT $LN5@IsVisible
	mov	BYTE PTR $T218615[ebp], 1
	jmp	SHORT $LN6@IsVisible
	jmp	SHORT $LN6@IsVisible
$LN5@IsVisible:
	cmp	DWORD PTR _eTeam$[ebp], -1
	jne	SHORT $LN10@IsVisible
	mov	BYTE PTR $T218615[ebp], 0
	jmp	SHORT $LN6@IsVisible
$LN10@IsVisible:
	mov	edx, DWORD PTR $T218614[ebp]
	mov	eax, DWORD PTR [edx+156]
	mov	ecx, DWORD PTR _eTeam$[ebp]
	movsx	edx, WORD PTR [eax+ecx*2]
	xor	eax, eax
	test	edx, edx
	setg	al
	mov	BYTE PTR $T218615[ebp], al
$LN6@IsVisible:
	mov	al, BYTE PTR $T218615[ebp]

; 127  : }

	mov	esp, ebp
	pop	ebp
	ret	12					; 0000000cH
?IsVisible@CvDllPlot@@UBG_NW4TeamTypes@@_N@Z ENDP	; CvDllPlot::IsVisible
_TEXT	ENDS
PUBLIC	?isCity@CvPlot@@QBE_NXZ				; CvPlot::isCity
; Function compile flags: /Odtp
;	COMDAT ?IsCity@CvDllPlot@@UBG_NXZ
_TEXT	SEGMENT
_this$ = 8						; size = 4
?IsCity@CvDllPlot@@UBG_NXZ PROC				; CvDllPlot::IsCity, COMDAT

; 130  : {

	push	ebp
	mov	ebp, esp
	push	ecx

; 131  : 	return m_pPlot->isCity();

	mov	eax, DWORD PTR _this$[ebp]
	mov	ecx, DWORD PTR [eax+8]
	call	?isCity@CvPlot@@QBE_NXZ			; CvPlot::isCity

; 132  : }

	mov	esp, ebp
	pop	ebp
	ret	4
?IsCity@CvDllPlot@@UBG_NXZ ENDP				; CvDllPlot::IsCity
_TEXT	ENDS
PUBLIC	?getPlotCity@CvPlot@@QBEPAVCvCity@@XZ		; CvPlot::getPlotCity
EXTRN	?isEnemy@CvUnit@@QBE_NW4TeamTypes@@PBVCvPlot@@@Z:PROC ; CvUnit::isEnemy
EXTRN	?getTeam@CvCity@@QBE?AW4TeamTypes@@XZ:PROC	; CvCity::getTeam
EXTRN	?GetInstance@CvDllUnit@@QAEPAVCvUnit@@XZ:PROC	; CvDllUnit::GetInstance
; Function compile flags: /Odtp
;	COMDAT ?IsEnemyCity@CvDllPlot@@UBG_NPAVICvUnit1@@@Z
_TEXT	SEGMENT
tv71 = -24						; size = 4
$T218638 = -17						; size = 1
$T218637 = -16						; size = 4
_pCity$218635 = -8					; size = 4
_pkUnit$ = -4						; size = 4
_this$ = 8						; size = 4
_pUnit$ = 12						; size = 4
?IsEnemyCity@CvDllPlot@@UBG_NPAVICvUnit1@@@Z PROC	; CvDllPlot::IsEnemyCity, COMDAT

; 135  : {

	push	ebp
	mov	ebp, esp
	sub	esp, 24					; 00000018H

; 136  : 	CvUnit* pkUnit = (NULL != pUnit)? static_cast<CvDllUnit*>(pUnit)->GetInstance() : NULL;

	cmp	DWORD PTR _pUnit$[ebp], 0
	je	SHORT $LN5@IsEnemyCit
	mov	ecx, DWORD PTR _pUnit$[ebp]
	call	?GetInstance@CvDllUnit@@QAEPAVCvUnit@@XZ ; CvDllUnit::GetInstance
	mov	DWORD PTR tv71[ebp], eax
	jmp	SHORT $LN6@IsEnemyCit
$LN5@IsEnemyCit:
	mov	DWORD PTR tv71[ebp], 0
$LN6@IsEnemyCit:
	mov	eax, DWORD PTR tv71[ebp]
	mov	DWORD PTR _pkUnit$[ebp], eax

; 137  : 	if(pkUnit != NULL)

	cmp	DWORD PTR _pkUnit$[ebp], 0
	je	SHORT $LN2@IsEnemyCit

; 138  : 		return m_pPlot->isEnemyCity(*pkUnit);

	mov	ecx, DWORD PTR _this$[ebp]
	mov	edx, DWORD PTR [ecx+8]
	mov	DWORD PTR $T218637[ebp], edx
	mov	ecx, DWORD PTR $T218637[ebp]
	call	?getPlotCity@CvPlot@@QBEPAVCvCity@@XZ	; CvPlot::getPlotCity
	mov	DWORD PTR _pCity$218635[ebp], eax
	cmp	DWORD PTR _pCity$218635[ebp], 0
	je	SHORT $LN7@IsEnemyCit
	mov	eax, DWORD PTR $T218637[ebp]
	push	eax
	mov	ecx, DWORD PTR _pCity$218635[ebp]
	call	?getTeam@CvCity@@QBE?AW4TeamTypes@@XZ	; CvCity::getTeam
	push	eax
	mov	ecx, DWORD PTR _pkUnit$[ebp]
	call	?isEnemy@CvUnit@@QBE_NW4TeamTypes@@PBVCvPlot@@@Z ; CvUnit::isEnemy
	mov	BYTE PTR $T218638[ebp], al
	jmp	SHORT $LN8@IsEnemyCit
$LN7@IsEnemyCit:
	mov	BYTE PTR $T218638[ebp], 0
$LN8@IsEnemyCit:
	mov	al, BYTE PTR $T218638[ebp]
	jmp	SHORT $LN3@IsEnemyCit

; 139  : 	else

	jmp	SHORT $LN3@IsEnemyCit
$LN2@IsEnemyCit:

; 140  : 		return false;

	xor	al, al
$LN3@IsEnemyCit:

; 141  : }

	mov	esp, ebp
	pop	ebp
	ret	8
?IsEnemyCity@CvDllPlot@@UBG_NPAVICvUnit1@@@Z ENDP	; CvDllPlot::IsEnemyCity
_TEXT	ENDS
EXTRN	?isFighting@CvPlot@@QBE_NXZ:PROC		; CvPlot::isFighting
; Function compile flags: /Odtp
;	COMDAT ?IsFighting@CvDllPlot@@UBG_NXZ
_TEXT	SEGMENT
_this$ = 8						; size = 4
?IsFighting@CvDllPlot@@UBG_NXZ PROC			; CvDllPlot::IsFighting, COMDAT

; 144  : {

	push	ebp
	mov	ebp, esp

; 145  : 	return m_pPlot->isFighting();

	mov	eax, DWORD PTR _this$[ebp]
	mov	ecx, DWORD PTR [eax+8]
	call	?isFighting@CvPlot@@QBE_NXZ		; CvPlot::isFighting

; 146  : }

	pop	ebp
	ret	4
?IsFighting@CvDllPlot@@UBG_NXZ ENDP			; CvDllPlot::IsFighting
_TEXT	ENDS
EXTRN	?IsTradeRoute@CvPlot@@QBE_NW4PlayerTypes@@@Z:PROC ; CvPlot::IsTradeRoute
; Function compile flags: /Odtp
;	COMDAT ?IsTradeRoute@CvDllPlot@@UBG_NW4PlayerTypes@@@Z
_TEXT	SEGMENT
_this$ = 8						; size = 4
_ePlayer$ = 12						; size = 4
?IsTradeRoute@CvDllPlot@@UBG_NW4PlayerTypes@@@Z PROC	; CvDllPlot::IsTradeRoute, COMDAT

; 149  : {

	push	ebp
	mov	ebp, esp

; 150  : 	return m_pPlot->IsTradeRoute(ePlayer);

	mov	eax, DWORD PTR _ePlayer$[ebp]
	push	eax
	mov	ecx, DWORD PTR _this$[ebp]
	mov	ecx, DWORD PTR [ecx+8]
	call	?IsTradeRoute@CvPlot@@QBE_NW4PlayerTypes@@@Z ; CvPlot::IsTradeRoute

; 151  : }

	pop	ebp
	ret	8
?IsTradeRoute@CvDllPlot@@UBG_NW4PlayerTypes@@@Z ENDP	; CvDllPlot::IsTradeRoute
; Function compile flags: /Odtp
_TEXT	ENDS
;	COMDAT ?IsImpassable@CvDllPlot@@UBG_NXZ
_TEXT	SEGMENT
_this$ = 8						; size = 4
?IsImpassable@CvDllPlot@@UBG_NXZ PROC			; CvDllPlot::IsImpassable, COMDAT

; 154  : {

	push	ebp
	mov	ebp, esp

; 155  : 	return m_pPlot->isImpassable();

	mov	eax, DWORD PTR _this$[ebp]
	mov	ecx, DWORD PTR [eax+8]
	mov	al, BYTE PTR [ecx+462]
	shr	al, 7
	and	al, 1

; 156  : }

	pop	ebp
	ret	4
?IsImpassable@CvDllPlot@@UBG_NXZ ENDP			; CvDllPlot::IsImpassable
; Function compile flags: /Odtp
_TEXT	ENDS
;	COMDAT ?GetPosition@CvDllPlot@@UBGXAAH0@Z
_TEXT	SEGMENT
$T218653 = -4						; size = 4
_this$ = 8						; size = 4
_iX$ = 12						; size = 4
_iY$ = 16						; size = 4
?GetPosition@CvDllPlot@@UBGXAAH0@Z PROC			; CvDllPlot::GetPosition, COMDAT

; 159  : {

	push	ebp
	mov	ebp, esp
	push	ecx

; 160  : 	iX = m_pPlot->getX();

	mov	eax, DWORD PTR _this$[ebp]
	mov	ecx, DWORD PTR [eax+8]
	mov	DWORD PTR $T218653[ebp], ecx
	mov	edx, DWORD PTR $T218653[ebp]
	movsx	eax, WORD PTR [edx]
	mov	ecx, DWORD PTR _iX$[ebp]
	mov	DWORD PTR [ecx], eax

; 161  : 	iY = m_pPlot->getY();

	mov	edx, DWORD PTR _this$[ebp]
	mov	eax, DWORD PTR [edx+8]
	movsx	ecx, WORD PTR [eax+2]
	mov	edx, DWORD PTR _iY$[ebp]
	mov	DWORD PTR [edx], ecx

; 162  : }

	mov	esp, ebp
	pop	ebp
	ret	12					; 0000000cH
?GetPosition@CvDllPlot@@UBGXAAH0@Z ENDP			; CvDllPlot::GetPosition
_TEXT	ENDS
EXTRN	?isNEOfRiver@CvPlot@@QBE_NXZ:PROC		; CvPlot::isNEOfRiver
; Function compile flags: /Odtp
;	COMDAT ?IsNEOfRiver@CvDllPlot@@UBG_NXZ
_TEXT	SEGMENT
_this$ = 8						; size = 4
?IsNEOfRiver@CvDllPlot@@UBG_NXZ PROC			; CvDllPlot::IsNEOfRiver, COMDAT

; 165  : {

	push	ebp
	mov	ebp, esp

; 166  : 	return m_pPlot->isNEOfRiver();

	mov	eax, DWORD PTR _this$[ebp]
	mov	ecx, DWORD PTR [eax+8]
	call	?isNEOfRiver@CvPlot@@QBE_NXZ		; CvPlot::isNEOfRiver

; 167  : }

	pop	ebp
	ret	4
?IsNEOfRiver@CvDllPlot@@UBG_NXZ ENDP			; CvDllPlot::IsNEOfRiver
_TEXT	ENDS
EXTRN	?isWOfRiver@CvPlot@@QBE_NXZ:PROC		; CvPlot::isWOfRiver
; Function compile flags: /Odtp
;	COMDAT ?IsWOfRiver@CvDllPlot@@UBG_NXZ
_TEXT	SEGMENT
_this$ = 8						; size = 4
?IsWOfRiver@CvDllPlot@@UBG_NXZ PROC			; CvDllPlot::IsWOfRiver, COMDAT

; 170  : {

	push	ebp
	mov	ebp, esp

; 171  : 	return m_pPlot->isWOfRiver();

	mov	eax, DWORD PTR _this$[ebp]
	mov	ecx, DWORD PTR [eax+8]
	call	?isWOfRiver@CvPlot@@QBE_NXZ		; CvPlot::isWOfRiver

; 172  : }

	pop	ebp
	ret	4
?IsWOfRiver@CvDllPlot@@UBG_NXZ ENDP			; CvDllPlot::IsWOfRiver
_TEXT	ENDS
EXTRN	?isNWOfRiver@CvPlot@@QBE_NXZ:PROC		; CvPlot::isNWOfRiver
; Function compile flags: /Odtp
;	COMDAT ?IsNWOfRiver@CvDllPlot@@UBG_NXZ
_TEXT	SEGMENT
_this$ = 8						; size = 4
?IsNWOfRiver@CvDllPlot@@UBG_NXZ PROC			; CvDllPlot::IsNWOfRiver, COMDAT

; 175  : {

	push	ebp
	mov	ebp, esp

; 176  : 	return m_pPlot->isNWOfRiver();

	mov	eax, DWORD PTR _this$[ebp]
	mov	ecx, DWORD PTR [eax+8]
	call	?isNWOfRiver@CvPlot@@QBE_NXZ		; CvPlot::isNWOfRiver

; 177  : }

	pop	ebp
	ret	4
?IsNWOfRiver@CvDllPlot@@UBG_NXZ ENDP			; CvDllPlot::IsNWOfRiver
_TEXT	ENDS
EXTRN	?getRiverEFlowDirection@CvPlot@@QBE?AW4FlowDirectionTypes@@XZ:PROC ; CvPlot::getRiverEFlowDirection
; Function compile flags: /Odtp
;	COMDAT ?GetRiverEFlowDirection@CvDllPlot@@UBG?AW4FlowDirectionTypes@@XZ
_TEXT	SEGMENT
_this$ = 8						; size = 4
?GetRiverEFlowDirection@CvDllPlot@@UBG?AW4FlowDirectionTypes@@XZ PROC ; CvDllPlot::GetRiverEFlowDirection, COMDAT

; 180  : {

	push	ebp
	mov	ebp, esp

; 181  : 	return m_pPlot->getRiverEFlowDirection();

	mov	eax, DWORD PTR _this$[ebp]
	mov	ecx, DWORD PTR [eax+8]
	call	?getRiverEFlowDirection@CvPlot@@QBE?AW4FlowDirectionTypes@@XZ ; CvPlot::getRiverEFlowDirection

; 182  : }

	pop	ebp
	ret	4
?GetRiverEFlowDirection@CvDllPlot@@UBG?AW4FlowDirectionTypes@@XZ ENDP ; CvDllPlot::GetRiverEFlowDirection
_TEXT	ENDS
EXTRN	?getRiverSEFlowDirection@CvPlot@@QBE?AW4FlowDirectionTypes@@XZ:PROC ; CvPlot::getRiverSEFlowDirection
; Function compile flags: /Odtp
;	COMDAT ?GetRiverSEFlowDirection@CvDllPlot@@UBG?AW4FlowDirectionTypes@@XZ
_TEXT	SEGMENT
_this$ = 8						; size = 4
?GetRiverSEFlowDirection@CvDllPlot@@UBG?AW4FlowDirectionTypes@@XZ PROC ; CvDllPlot::GetRiverSEFlowDirection, COMDAT

; 185  : {

	push	ebp
	mov	ebp, esp

; 186  : 	return m_pPlot->getRiverSEFlowDirection();

	mov	eax, DWORD PTR _this$[ebp]
	mov	ecx, DWORD PTR [eax+8]
	call	?getRiverSEFlowDirection@CvPlot@@QBE?AW4FlowDirectionTypes@@XZ ; CvPlot::getRiverSEFlowDirection

; 187  : }

	pop	ebp
	ret	4
?GetRiverSEFlowDirection@CvDllPlot@@UBG?AW4FlowDirectionTypes@@XZ ENDP ; CvDllPlot::GetRiverSEFlowDirection
_TEXT	ENDS
EXTRN	?getRiverSWFlowDirection@CvPlot@@QBE?AW4FlowDirectionTypes@@XZ:PROC ; CvPlot::getRiverSWFlowDirection
; Function compile flags: /Odtp
;	COMDAT ?GetRiverSWFlowDirection@CvDllPlot@@UBG?AW4FlowDirectionTypes@@XZ
_TEXT	SEGMENT
_this$ = 8						; size = 4
?GetRiverSWFlowDirection@CvDllPlot@@UBG?AW4FlowDirectionTypes@@XZ PROC ; CvDllPlot::GetRiverSWFlowDirection, COMDAT

; 190  : {

	push	ebp
	mov	ebp, esp

; 191  : 	return m_pPlot->getRiverSWFlowDirection();

	mov	eax, DWORD PTR _this$[ebp]
	mov	ecx, DWORD PTR [eax+8]
	call	?getRiverSWFlowDirection@CvPlot@@QBE?AW4FlowDirectionTypes@@XZ ; CvPlot::getRiverSWFlowDirection

; 192  : }

	pop	ebp
	ret	4
?GetRiverSWFlowDirection@CvDllPlot@@UBG?AW4FlowDirectionTypes@@XZ ENDP ; CvDllPlot::GetRiverSWFlowDirection
; Function compile flags: /Odtp
_TEXT	ENDS
;	COMDAT ?GetOwner@CvDllPlot@@UBG?AW4PlayerTypes@@XZ
_TEXT	SEGMENT
_this$ = 8						; size = 4
?GetOwner@CvDllPlot@@UBG?AW4PlayerTypes@@XZ PROC	; CvDllPlot::GetOwner, COMDAT

; 195  : {

	push	ebp
	mov	ebp, esp

; 196  : 	return m_pPlot->getOwner();

	mov	eax, DWORD PTR _this$[ebp]
	mov	ecx, DWORD PTR [eax+8]
	movsx	eax, BYTE PTR [ecx+4]

; 197  : }

	pop	ebp
	ret	4
?GetOwner@CvDllPlot@@UBG?AW4PlayerTypes@@XZ ENDP	; CvDllPlot::GetOwner
; Function compile flags: /Odtp
_TEXT	ENDS
;	COMDAT ?GetPlotType@CvDllPlot@@UBG?AW4PlotTypes@@XZ
_TEXT	SEGMENT
_this$ = 8						; size = 4
?GetPlotType@CvDllPlot@@UBG?AW4PlotTypes@@XZ PROC	; CvDllPlot::GetPlotType, COMDAT

; 200  : {

	push	ebp
	mov	ebp, esp

; 201  : 	return m_pPlot->getPlotType();

	mov	eax, DWORD PTR _this$[ebp]
	mov	ecx, DWORD PTR [eax+8]
	movsx	eax, BYTE PTR [ecx+5]

; 202  : }

	pop	ebp
	ret	4
?GetPlotType@CvDllPlot@@UBG?AW4PlotTypes@@XZ ENDP	; CvDllPlot::GetPlotType
; Function compile flags: /Odtp
_TEXT	ENDS
;	COMDAT ?IsWater@CvDllPlot@@UBG_NXZ
_TEXT	SEGMENT
_this$ = 8						; size = 4
?IsWater@CvDllPlot@@UBG_NXZ PROC			; CvDllPlot::IsWater, COMDAT

; 205  : {

	push	ebp
	mov	ebp, esp

; 206  : 	return m_pPlot->isWater();

	mov	eax, DWORD PTR _this$[ebp]
	mov	ecx, DWORD PTR [eax+8]
	movsx	edx, BYTE PTR [ecx+5]
	xor	eax, eax
	cmp	edx, 3
	sete	al

; 207  : }

	pop	ebp
	ret	4
?IsWater@CvDllPlot@@UBG_NXZ ENDP			; CvDllPlot::IsWater
; Function compile flags: /Odtp
_TEXT	ENDS
;	COMDAT ?IsHills@CvDllPlot@@UBG_NXZ
_TEXT	SEGMENT
_this$ = 8						; size = 4
?IsHills@CvDllPlot@@UBG_NXZ PROC			; CvDllPlot::IsHills, COMDAT

; 210  : {

	push	ebp
	mov	ebp, esp

; 211  : 	return m_pPlot->isHills();

	mov	eax, DWORD PTR _this$[ebp]
	mov	ecx, DWORD PTR [eax+8]
	movsx	eax, BYTE PTR [ecx+5]
	sub	eax, 1
	neg	eax
	sbb	eax, eax
	add	eax, 1

; 212  : }

	pop	ebp
	ret	4
?IsHills@CvDllPlot@@UBG_NXZ ENDP			; CvDllPlot::IsHills
; Function compile flags: /Odtp
_TEXT	ENDS
;	COMDAT ?IsOpenGround@CvDllPlot@@UBG_NXZ
_TEXT	SEGMENT
$T218697 = -5						; size = 1
$T218696 = -4						; size = 4
_this$ = 8						; size = 4
?IsOpenGround@CvDllPlot@@UBG_NXZ PROC			; CvDllPlot::IsOpenGround, COMDAT

; 215  : {

	push	ebp
	mov	ebp, esp
	sub	esp, 8

; 216  : 	return m_pPlot->isOpenGround();

	mov	eax, DWORD PTR _this$[ebp]
	mov	ecx, DWORD PTR [eax+8]
	mov	DWORD PTR $T218696[ebp], ecx
	mov	edx, DWORD PTR $T218696[ebp]
	movsx	eax, BYTE PTR [edx+5]
	cmp	eax, 1
	je	SHORT $LN3@IsOpenGrou
	mov	ecx, DWORD PTR $T218696[ebp]
	movsx	edx, BYTE PTR [ecx+5]
	test	edx, edx
	je	SHORT $LN3@IsOpenGrou
	mov	eax, DWORD PTR $T218696[ebp]
	mov	cl, BYTE PTR [eax+462]
	shr	cl, 3
	and	cl, 1
	movzx	edx, cl
	test	edx, edx
	je	SHORT $LN4@IsOpenGrou
$LN3@IsOpenGrou:
	mov	BYTE PTR $T218697[ebp], 0
	jmp	SHORT $LN5@IsOpenGrou
$LN4@IsOpenGrou:
	mov	BYTE PTR $T218697[ebp], 1
$LN5@IsOpenGrou:
	mov	al, BYTE PTR $T218697[ebp]

; 217  : }

	mov	esp, ebp
	pop	ebp
	ret	4
?IsOpenGround@CvDllPlot@@UBG_NXZ ENDP			; CvDllPlot::IsOpenGround
; Function compile flags: /Odtp
_TEXT	ENDS
;	COMDAT ?IsMountain@CvDllPlot@@UBG_NXZ
_TEXT	SEGMENT
_this$ = 8						; size = 4
?IsMountain@CvDllPlot@@UBG_NXZ PROC			; CvDllPlot::IsMountain, COMDAT

; 220  : {

	push	ebp
	mov	ebp, esp

; 221  : 	return m_pPlot->isMountain();

	mov	eax, DWORD PTR _this$[ebp]
	mov	ecx, DWORD PTR [eax+8]
	movsx	eax, BYTE PTR [ecx+5]
	neg	eax
	sbb	eax, eax
	add	eax, 1

; 222  : }

	pop	ebp
	ret	4
?IsMountain@CvDllPlot@@UBG_NXZ ENDP			; CvDllPlot::IsMountain
; Function compile flags: /Odtp
_TEXT	ENDS
;	COMDAT ?GetTerrainType@CvDllPlot@@UBG?AW4TerrainTypes@@XZ
_TEXT	SEGMENT
_this$ = 8						; size = 4
?GetTerrainType@CvDllPlot@@UBG?AW4TerrainTypes@@XZ PROC	; CvDllPlot::GetTerrainType, COMDAT

; 225  : {

	push	ebp
	mov	ebp, esp

; 226  : 	return m_pPlot->getTerrainType();

	mov	eax, DWORD PTR _this$[ebp]
	mov	ecx, DWORD PTR [eax+8]
	movsx	eax, BYTE PTR [ecx+6]

; 227  : }

	pop	ebp
	ret	4
?GetTerrainType@CvDllPlot@@UBG?AW4TerrainTypes@@XZ ENDP	; CvDllPlot::GetTerrainType
; Function compile flags: /Odtp
_TEXT	ENDS
;	COMDAT ?GetFeatureType@CvDllPlot@@UBG?AW4FeatureTypes@@XZ
_TEXT	SEGMENT
_f$218715 = -1						; size = 1
_this$ = 8						; size = 4
?GetFeatureType@CvDllPlot@@UBG?AW4FeatureTypes@@XZ PROC	; CvDllPlot::GetFeatureType, COMDAT

; 230  : {

	push	ebp
	mov	ebp, esp
	push	ecx

; 231  : 	return m_pPlot->getFeatureType();

	mov	eax, DWORD PTR _this$[ebp]
	mov	ecx, DWORD PTR [eax+8]
	mov	dl, BYTE PTR [ecx+432]
	mov	BYTE PTR _f$218715[ebp], dl
	movsx	eax, BYTE PTR _f$218715[ebp]

; 232  : }

	mov	esp, ebp
	pop	ebp
	ret	4
?GetFeatureType@CvDllPlot@@UBG?AW4FeatureTypes@@XZ ENDP	; CvDllPlot::GetFeatureType
_TEXT	ENDS
EXTRN	?getResourceType@CvPlot@@QBE?AW4ResourceTypes@@W4TeamTypes@@@Z:PROC ; CvPlot::getResourceType
; Function compile flags: /Odtp
;	COMDAT ?GetResourceType@CvDllPlot@@UBG?AW4ResourceTypes@@W4TeamTypes@@@Z
_TEXT	SEGMENT
_this$ = 8						; size = 4
_eTeam$ = 12						; size = 4
?GetResourceType@CvDllPlot@@UBG?AW4ResourceTypes@@W4TeamTypes@@@Z PROC ; CvDllPlot::GetResourceType, COMDAT

; 235  : {

	push	ebp
	mov	ebp, esp

; 236  : 	return m_pPlot->getResourceType(eTeam);

	mov	eax, DWORD PTR _eTeam$[ebp]
	push	eax
	mov	ecx, DWORD PTR _this$[ebp]
	mov	ecx, DWORD PTR [ecx+8]
	call	?getResourceType@CvPlot@@QBE?AW4ResourceTypes@@W4TeamTypes@@@Z ; CvPlot::getResourceType

; 237  : }

	pop	ebp
	ret	8
?GetResourceType@CvDllPlot@@UBG?AW4ResourceTypes@@W4TeamTypes@@@Z ENDP ; CvDllPlot::GetResourceType
_TEXT	ENDS
EXTRN	?getNumResource@CvPlot@@QBEHXZ:PROC		; CvPlot::getNumResource
; Function compile flags: /Odtp
;	COMDAT ?GetNumResource@CvDllPlot@@UBGHXZ
_TEXT	SEGMENT
_this$ = 8						; size = 4
?GetNumResource@CvDllPlot@@UBGHXZ PROC			; CvDllPlot::GetNumResource, COMDAT

; 240  : {

	push	ebp
	mov	ebp, esp

; 241  : 	return m_pPlot->getNumResource();

	mov	eax, DWORD PTR _this$[ebp]
	mov	ecx, DWORD PTR [eax+8]
	call	?getNumResource@CvPlot@@QBEHXZ		; CvPlot::getNumResource

; 242  : }

	pop	ebp
	ret	4
?GetNumResource@CvDllPlot@@UBGHXZ ENDP			; CvDllPlot::GetNumResource
_TEXT	ENDS
EXTRN	?getImprovementType@CvPlot@@QBE?AW4ImprovementTypes@@XZ:PROC ; CvPlot::getImprovementType
; Function compile flags: /Odtp
;	COMDAT ?GetImprovementType@CvDllPlot@@UBG?AW4ImprovementTypes@@XZ
_TEXT	SEGMENT
_this$ = 8						; size = 4
?GetImprovementType@CvDllPlot@@UBG?AW4ImprovementTypes@@XZ PROC ; CvDllPlot::GetImprovementType, COMDAT

; 245  : {

	push	ebp
	mov	ebp, esp

; 246  : 	return m_pPlot->getImprovementType();

	mov	eax, DWORD PTR _this$[ebp]
	mov	ecx, DWORD PTR [eax+8]
	call	?getImprovementType@CvPlot@@QBE?AW4ImprovementTypes@@XZ ; CvPlot::getImprovementType

; 247  : }

	pop	ebp
	ret	4
?GetImprovementType@CvDllPlot@@UBG?AW4ImprovementTypes@@XZ ENDP ; CvDllPlot::GetImprovementType
_TEXT	ENDS
EXTRN	?IsImprovementPillaged@CvPlot@@QBE_NXZ:PROC	; CvPlot::IsImprovementPillaged
; Function compile flags: /Odtp
;	COMDAT ?IsImprovementPillaged@CvDllPlot@@UBG_NXZ
_TEXT	SEGMENT
_this$ = 8						; size = 4
?IsImprovementPillaged@CvDllPlot@@UBG_NXZ PROC		; CvDllPlot::IsImprovementPillaged, COMDAT

; 250  : {

	push	ebp
	mov	ebp, esp

; 251  : 	return m_pPlot->IsImprovementPillaged();

	mov	eax, DWORD PTR _this$[ebp]
	mov	ecx, DWORD PTR [eax+8]
	call	?IsImprovementPillaged@CvPlot@@QBE_NXZ	; CvPlot::IsImprovementPillaged

; 252  : }

	pop	ebp
	ret	4
?IsImprovementPillaged@CvDllPlot@@UBG_NXZ ENDP		; CvDllPlot::IsImprovementPillaged
_TEXT	ENDS
EXTRN	?GetWorldAnchor@CvPlot@@QBE?AW4GenericWorldAnchorTypes@@XZ:PROC ; CvPlot::GetWorldAnchor
; Function compile flags: /Odtp
;	COMDAT ?GetWorldAnchor@CvDllPlot@@UBG?AW4GenericWorldAnchorTypes@@XZ
_TEXT	SEGMENT
_this$ = 8						; size = 4
?GetWorldAnchor@CvDllPlot@@UBG?AW4GenericWorldAnchorTypes@@XZ PROC ; CvDllPlot::GetWorldAnchor, COMDAT

; 255  : {

	push	ebp
	mov	ebp, esp

; 256  : 	return m_pPlot->GetWorldAnchor();

	mov	eax, DWORD PTR _this$[ebp]
	mov	ecx, DWORD PTR [eax+8]
	call	?GetWorldAnchor@CvPlot@@QBE?AW4GenericWorldAnchorTypes@@XZ ; CvPlot::GetWorldAnchor

; 257  : }

	pop	ebp
	ret	4
?GetWorldAnchor@CvDllPlot@@UBG?AW4GenericWorldAnchorTypes@@XZ ENDP ; CvDllPlot::GetWorldAnchor
_TEXT	ENDS
EXTRN	?GetWorldAnchorData@CvPlot@@QBEHXZ:PROC		; CvPlot::GetWorldAnchorData
; Function compile flags: /Odtp
;	COMDAT ?GetWorldAnchorData@CvDllPlot@@UBGHXZ
_TEXT	SEGMENT
_this$ = 8						; size = 4
?GetWorldAnchorData@CvDllPlot@@UBGHXZ PROC		; CvDllPlot::GetWorldAnchorData, COMDAT

; 260  : {

	push	ebp
	mov	ebp, esp

; 261  : 	return m_pPlot->GetWorldAnchorData();

	mov	eax, DWORD PTR _this$[ebp]
	mov	ecx, DWORD PTR [eax+8]
	call	?GetWorldAnchorData@CvPlot@@QBEHXZ	; CvPlot::GetWorldAnchorData

; 262  : }

	pop	ebp
	ret	4
?GetWorldAnchorData@CvDllPlot@@UBGHXZ ENDP		; CvDllPlot::GetWorldAnchorData
_TEXT	ENDS
EXTRN	?getRouteType@CvPlot@@QBE?AW4RouteTypes@@XZ:PROC ; CvPlot::getRouteType
; Function compile flags: /Odtp
;	COMDAT ?GetRouteType@CvDllPlot@@UBG?AW4RouteTypes@@XZ
_TEXT	SEGMENT
_this$ = 8						; size = 4
?GetRouteType@CvDllPlot@@UBG?AW4RouteTypes@@XZ PROC	; CvDllPlot::GetRouteType, COMDAT

; 265  : {

	push	ebp
	mov	ebp, esp

; 266  : 	return m_pPlot->getRouteType();

	mov	eax, DWORD PTR _this$[ebp]
	mov	ecx, DWORD PTR [eax+8]
	call	?getRouteType@CvPlot@@QBE?AW4RouteTypes@@XZ ; CvPlot::getRouteType

; 267  : }

	pop	ebp
	ret	4
?GetRouteType@CvDllPlot@@UBG?AW4RouteTypes@@XZ ENDP	; CvDllPlot::GetRouteType
_TEXT	ENDS
EXTRN	?IsRoutePillaged@CvPlot@@QBE_NXZ:PROC		; CvPlot::IsRoutePillaged
; Function compile flags: /Odtp
;	COMDAT ?IsRoutePillaged@CvDllPlot@@UBG_NXZ
_TEXT	SEGMENT
_this$ = 8						; size = 4
?IsRoutePillaged@CvDllPlot@@UBG_NXZ PROC		; CvDllPlot::IsRoutePillaged, COMDAT

; 270  : {

	push	ebp
	mov	ebp, esp

; 271  : 	return m_pPlot->IsRoutePillaged();

	mov	eax, DWORD PTR _this$[ebp]
	mov	ecx, DWORD PTR [eax+8]
	call	?IsRoutePillaged@CvPlot@@QBE_NXZ	; CvPlot::IsRoutePillaged

; 272  : }

	pop	ebp
	ret	4
?IsRoutePillaged@CvDllPlot@@UBG_NXZ ENDP		; CvDllPlot::IsRoutePillaged
_TEXT	ENDS
EXTRN	??3CvDllCity@@SAXPAX@Z:PROC			; CvDllCity::operator delete
EXTRN	??0CvDllCity@@QAE@PAVCvCity@@@Z:PROC		; CvDllCity::CvDllCity
EXTRN	??2CvDllCity@@SAPAXI@Z:PROC			; CvDllCity::operator new
;	COMDAT xdata$x
; File d:\sources\lekmod_git\checkout\lekmod_dll\cvgamecoredll_expansion2\cvplayerai.h
xdata$x	SEGMENT
__unwindtable$?GetPlotCity@CvDllPlot@@UBGPAVICvCity1@@XZ DD 0ffffffffH
	DD	FLAT:__unwindfunclet$?GetPlotCity@CvDllPlot@@UBGPAVICvCity1@@XZ$0
__ehfuncinfo$?GetPlotCity@CvDllPlot@@UBGPAVICvCity1@@XZ DD 019930522H
	DD	01H
	DD	FLAT:__unwindtable$?GetPlotCity@CvDllPlot@@UBGPAVICvCity1@@XZ
	DD	2 DUP(00H)
	DD	2 DUP(00H)
	DD	00H
	DD	01H
; Function compile flags: /Odtp
; File d:\sources\lekmod_git\checkout\lekmod_dll\cvgamecoredll_expansion2\cvdllplot.cpp
xdata$x	ENDS
;	COMDAT ?GetPlotCity@CvDllPlot@@UBGPAVICvCity1@@XZ
_TEXT	SEGMENT
tv74 = -36						; size = 4
tv79 = -32						; size = 4
$T218738 = -24						; size = 4
$T218737 = -20						; size = 4
_pkCity$ = -16						; size = 4
__$EHRec$ = -12						; size = 12
_this$ = 8						; size = 4
?GetPlotCity@CvDllPlot@@UBGPAVICvCity1@@XZ PROC		; CvDllPlot::GetPlotCity, COMDAT

; 275  : {

	push	ebp
	mov	ebp, esp
	push	-1
	push	__ehhandler$?GetPlotCity@CvDllPlot@@UBGPAVICvCity1@@XZ
	mov	eax, DWORD PTR fs:0
	push	eax
	sub	esp, 24					; 00000018H
	mov	eax, DWORD PTR ___security_cookie
	xor	eax, ebp
	push	eax
	lea	eax, DWORD PTR __$EHRec$[ebp]
	mov	DWORD PTR fs:0, eax

; 276  : 	CvCity* pkCity = m_pPlot->getPlotCity();

	mov	eax, DWORD PTR _this$[ebp]
	mov	ecx, DWORD PTR [eax+8]
	call	?getPlotCity@CvPlot@@QBEPAVCvCity@@XZ	; CvPlot::getPlotCity
	mov	DWORD PTR _pkCity$[ebp], eax

; 277  : 	return (NULL != pkCity)? new CvDllCity(pkCity) : NULL;

	cmp	DWORD PTR _pkCity$[ebp], 0
	je	SHORT $LN5@GetPlotCit
	push	12					; 0000000cH
	call	??2CvDllCity@@SAPAXI@Z			; CvDllCity::operator new
	add	esp, 4
	mov	DWORD PTR $T218738[ebp], eax
	mov	DWORD PTR __$EHRec$[ebp+8], 0
	cmp	DWORD PTR $T218738[ebp], 0
	je	SHORT $LN3@GetPlotCit
	mov	ecx, DWORD PTR _pkCity$[ebp]
	push	ecx
	mov	ecx, DWORD PTR $T218738[ebp]
	call	??0CvDllCity@@QAE@PAVCvCity@@@Z		; CvDllCity::CvDllCity
	mov	DWORD PTR tv79[ebp], eax
	jmp	SHORT $LN4@GetPlotCit
$LN3@GetPlotCit:
	mov	DWORD PTR tv79[ebp], 0
$LN4@GetPlotCit:
	mov	edx, DWORD PTR tv79[ebp]
	mov	DWORD PTR $T218737[ebp], edx
	mov	DWORD PTR __$EHRec$[ebp+8], -1
	mov	eax, DWORD PTR $T218737[ebp]
	mov	DWORD PTR tv74[ebp], eax
	jmp	SHORT $LN6@GetPlotCit
$LN5@GetPlotCit:
	mov	DWORD PTR tv74[ebp], 0
$LN6@GetPlotCit:
	mov	eax, DWORD PTR tv74[ebp]

; 278  : }

	mov	ecx, DWORD PTR __$EHRec$[ebp]
	mov	DWORD PTR fs:0, ecx
	pop	ecx
	mov	esp, ebp
	pop	ebp
	ret	4
_TEXT	ENDS
;	COMDAT text$x
text$x	SEGMENT
__unwindfunclet$?GetPlotCity@CvDllPlot@@UBGPAVICvCity1@@XZ$0:
	mov	eax, DWORD PTR $T218738[ebp]
	push	eax
	call	??3CvDllCity@@SAXPAX@Z			; CvDllCity::operator delete
	pop	ecx
	ret	0
__ehhandler$?GetPlotCity@CvDllPlot@@UBGPAVICvCity1@@XZ:
	mov	edx, DWORD PTR [esp+8]
	lea	eax, DWORD PTR [edx+12]
	mov	ecx, DWORD PTR [edx-28]
	xor	ecx, eax
	call	@__security_check_cookie@4
	mov	eax, OFFSET __ehfuncinfo$?GetPlotCity@CvDllPlot@@UBGPAVICvCity1@@XZ
	jmp	___CxxFrameHandler3
text$x	ENDS
?GetPlotCity@CvDllPlot@@UBGPAVICvCity1@@XZ ENDP		; CvDllPlot::GetPlotCity
EXTRN	?getWorkingCity@CvPlot@@QBEPAVCvCity@@XZ:PROC	; CvPlot::getWorkingCity
;	COMDAT xdata$x
xdata$x	SEGMENT
__unwindtable$?GetWorkingCity@CvDllPlot@@UBGPAVICvCity1@@XZ DD 0ffffffffH
	DD	FLAT:__unwindfunclet$?GetWorkingCity@CvDllPlot@@UBGPAVICvCity1@@XZ$0
__ehfuncinfo$?GetWorkingCity@CvDllPlot@@UBGPAVICvCity1@@XZ DD 019930522H
	DD	01H
	DD	FLAT:__unwindtable$?GetWorkingCity@CvDllPlot@@UBGPAVICvCity1@@XZ
	DD	2 DUP(00H)
	DD	2 DUP(00H)
	DD	00H
	DD	01H
; Function compile flags: /Odtp
xdata$x	ENDS
;	COMDAT ?GetWorkingCity@CvDllPlot@@UBGPAVICvCity1@@XZ
_TEXT	SEGMENT
tv74 = -32						; size = 4
tv79 = -28						; size = 4
$T218758 = -24						; size = 4
$T218757 = -20						; size = 4
_pkCity$ = -16						; size = 4
__$EHRec$ = -12						; size = 12
_this$ = 8						; size = 4
?GetWorkingCity@CvDllPlot@@UBGPAVICvCity1@@XZ PROC	; CvDllPlot::GetWorkingCity, COMDAT

; 281  : {

	push	ebp
	mov	ebp, esp
	push	-1
	push	__ehhandler$?GetWorkingCity@CvDllPlot@@UBGPAVICvCity1@@XZ
	mov	eax, DWORD PTR fs:0
	push	eax
	sub	esp, 20					; 00000014H
	mov	eax, DWORD PTR ___security_cookie
	xor	eax, ebp
	push	eax
	lea	eax, DWORD PTR __$EHRec$[ebp]
	mov	DWORD PTR fs:0, eax

; 282  : 	CvCity* pkCity = m_pPlot->getWorkingCity();

	mov	eax, DWORD PTR _this$[ebp]
	mov	ecx, DWORD PTR [eax+8]
	call	?getWorkingCity@CvPlot@@QBEPAVCvCity@@XZ ; CvPlot::getWorkingCity
	mov	DWORD PTR _pkCity$[ebp], eax

; 283  : 	return (NULL != pkCity)? new CvDllCity(pkCity) : NULL;

	cmp	DWORD PTR _pkCity$[ebp], 0
	je	SHORT $LN5@GetWorking
	push	12					; 0000000cH
	call	??2CvDllCity@@SAPAXI@Z			; CvDllCity::operator new
	add	esp, 4
	mov	DWORD PTR $T218758[ebp], eax
	mov	DWORD PTR __$EHRec$[ebp+8], 0
	cmp	DWORD PTR $T218758[ebp], 0
	je	SHORT $LN3@GetWorking
	mov	ecx, DWORD PTR _pkCity$[ebp]
	push	ecx
	mov	ecx, DWORD PTR $T218758[ebp]
	call	??0CvDllCity@@QAE@PAVCvCity@@@Z		; CvDllCity::CvDllCity
	mov	DWORD PTR tv79[ebp], eax
	jmp	SHORT $LN4@GetWorking
$LN3@GetWorking:
	mov	DWORD PTR tv79[ebp], 0
$LN4@GetWorking:
	mov	edx, DWORD PTR tv79[ebp]
	mov	DWORD PTR $T218757[ebp], edx
	mov	DWORD PTR __$EHRec$[ebp+8], -1
	mov	eax, DWORD PTR $T218757[ebp]
	mov	DWORD PTR tv74[ebp], eax
	jmp	SHORT $LN6@GetWorking
$LN5@GetWorking:
	mov	DWORD PTR tv74[ebp], 0
$LN6@GetWorking:
	mov	eax, DWORD PTR tv74[ebp]

; 284  : }

	mov	ecx, DWORD PTR __$EHRec$[ebp]
	mov	DWORD PTR fs:0, ecx
	pop	ecx
	mov	esp, ebp
	pop	ebp
	ret	4
_TEXT	ENDS
;	COMDAT text$x
text$x	SEGMENT
__unwindfunclet$?GetWorkingCity@CvDllPlot@@UBGPAVICvCity1@@XZ$0:
	mov	eax, DWORD PTR $T218758[ebp]
	push	eax
	call	??3CvDllCity@@SAXPAX@Z			; CvDllCity::operator delete
	pop	ecx
	ret	0
__ehhandler$?GetWorkingCity@CvDllPlot@@UBGPAVICvCity1@@XZ:
	mov	edx, DWORD PTR [esp+8]
	lea	eax, DWORD PTR [edx+12]
	mov	ecx, DWORD PTR [edx-24]
	xor	ecx, eax
	call	@__security_check_cookie@4
	mov	eax, OFFSET __ehfuncinfo$?GetWorkingCity@CvDllPlot@@UBGPAVICvCity1@@XZ
	jmp	___CxxFrameHandler3
text$x	ENDS
?GetWorkingCity@CvDllPlot@@UBGPAVICvCity1@@XZ ENDP	; CvDllPlot::GetWorkingCity
PUBLIC	?isRevealed@CvPlot@@QBE_NW4TeamTypes@@_N@Z	; CvPlot::isRevealed
; Function compile flags: /Odtp
;	COMDAT ?IsRevealed@CvDllPlot@@UBG_NW4TeamTypes@@_N@Z
_TEXT	SEGMENT
_this$ = 8						; size = 4
_eTeam$ = 12						; size = 4
_bDebug$ = 16						; size = 1
?IsRevealed@CvDllPlot@@UBG_NW4TeamTypes@@_N@Z PROC	; CvDllPlot::IsRevealed, COMDAT

; 287  : {

	push	ebp
	mov	ebp, esp
	sub	esp, 8

; 288  : 	return m_pPlot->isRevealed(eTeam, bDebug);

	movzx	eax, BYTE PTR _bDebug$[ebp]
	push	eax
	mov	ecx, DWORD PTR _eTeam$[ebp]
	push	ecx
	mov	edx, DWORD PTR _this$[ebp]
	mov	ecx, DWORD PTR [edx+8]
	call	?isRevealed@CvPlot@@QBE_NW4TeamTypes@@_N@Z ; CvPlot::isRevealed

; 289  : }

	mov	esp, ebp
	pop	ebp
	ret	12					; 0000000cH
?IsRevealed@CvDllPlot@@UBG_NW4TeamTypes@@_N@Z ENDP	; CvDllPlot::IsRevealed
_TEXT	ENDS
EXTRN	?getRevealedImprovementType@CvPlot@@QBE?AW4ImprovementTypes@@W4TeamTypes@@_N@Z:PROC ; CvPlot::getRevealedImprovementType
; Function compile flags: /Odtp
;	COMDAT ?GetRevealedImprovementType@CvDllPlot@@UBG?AW4ImprovementTypes@@W4TeamTypes@@_N@Z
_TEXT	SEGMENT
_this$ = 8						; size = 4
_eTeam$ = 12						; size = 4
_bDebug$ = 16						; size = 1
?GetRevealedImprovementType@CvDllPlot@@UBG?AW4ImprovementTypes@@W4TeamTypes@@_N@Z PROC ; CvDllPlot::GetRevealedImprovementType, COMDAT

; 292  : {

	push	ebp
	mov	ebp, esp

; 293  : 	return m_pPlot->getRevealedImprovementType(eTeam, bDebug);

	movzx	eax, BYTE PTR _bDebug$[ebp]
	push	eax
	mov	ecx, DWORD PTR _eTeam$[ebp]
	push	ecx
	mov	edx, DWORD PTR _this$[ebp]
	mov	ecx, DWORD PTR [edx+8]
	call	?getRevealedImprovementType@CvPlot@@QBE?AW4ImprovementTypes@@W4TeamTypes@@_N@Z ; CvPlot::getRevealedImprovementType

; 294  : }

	pop	ebp
	ret	12					; 0000000cH
?GetRevealedImprovementType@CvDllPlot@@UBG?AW4ImprovementTypes@@W4TeamTypes@@_N@Z ENDP ; CvDllPlot::GetRevealedImprovementType
_TEXT	ENDS
EXTRN	?getBuildProgress@CvPlot@@QBEHW4BuildTypes@@@Z:PROC ; CvPlot::getBuildProgress
; Function compile flags: /Odtp
;	COMDAT ?GetBuildProgress@CvDllPlot@@UBGHW4BuildTypes@@@Z
_TEXT	SEGMENT
_this$ = 8						; size = 4
_eBuild$ = 12						; size = 4
?GetBuildProgress@CvDllPlot@@UBGHW4BuildTypes@@@Z PROC	; CvDllPlot::GetBuildProgress, COMDAT

; 297  : {

	push	ebp
	mov	ebp, esp

; 298  : 	return m_pPlot->getBuildProgress(eBuild);

	mov	eax, DWORD PTR _eBuild$[ebp]
	push	eax
	mov	ecx, DWORD PTR _this$[ebp]
	mov	ecx, DWORD PTR [ecx+8]
	call	?getBuildProgress@CvPlot@@QBEHW4BuildTypes@@@Z ; CvPlot::getBuildProgress

; 299  : }

	pop	ebp
	ret	8
?GetBuildProgress@CvDllPlot@@UBGHW4BuildTypes@@@Z ENDP	; CvDllPlot::GetBuildProgress
_TEXT	ENDS
EXTRN	?getAnyBuildProgress@CvPlot@@QBE_NXZ:PROC	; CvPlot::getAnyBuildProgress
; Function compile flags: /Odtp
;	COMDAT ?GetAnyBuildProgress@CvDllPlot@@UBG_NXZ
_TEXT	SEGMENT
_this$ = 8						; size = 4
?GetAnyBuildProgress@CvDllPlot@@UBG_NXZ PROC		; CvDllPlot::GetAnyBuildProgress, COMDAT

; 302  : {

	push	ebp
	mov	ebp, esp

; 303  : 	return m_pPlot->getAnyBuildProgress();

	mov	eax, DWORD PTR _this$[ebp]
	mov	ecx, DWORD PTR [eax+8]
	call	?getAnyBuildProgress@CvPlot@@QBE_NXZ	; CvPlot::getAnyBuildProgress

; 304  : }

	pop	ebp
	ret	4
?GetAnyBuildProgress@CvDllPlot@@UBG_NXZ ENDP		; CvDllPlot::GetAnyBuildProgress
_TEXT	ENDS
EXTRN	?updateLayout@CvPlot@@QAEX_N@Z:PROC		; CvPlot::updateLayout
; Function compile flags: /Odtp
;	COMDAT ?UpdateLayout@CvDllPlot@@UAGX_N@Z
_TEXT	SEGMENT
_this$ = 8						; size = 4
_bDebug$ = 12						; size = 1
?UpdateLayout@CvDllPlot@@UAGX_N@Z PROC			; CvDllPlot::UpdateLayout, COMDAT

; 307  : {

	push	ebp
	mov	ebp, esp

; 308  : 	return m_pPlot->updateLayout(bDebug);

	movzx	eax, BYTE PTR _bDebug$[ebp]
	push	eax
	mov	ecx, DWORD PTR _this$[ebp]
	mov	ecx, DWORD PTR [ecx+8]
	call	?updateLayout@CvPlot@@QAEX_N@Z		; CvPlot::updateLayout

; 309  : }

	pop	ebp
	ret	8
?UpdateLayout@CvDllPlot@@UAGX_N@Z ENDP			; CvDllPlot::UpdateLayout
_TEXT	ENDS
EXTRN	??3CvDllUnit@@SAXPAX@Z:PROC			; CvDllUnit::operator delete
EXTRN	??0CvDllUnit@@QAE@PAVCvUnit@@@Z:PROC		; CvDllUnit::CvDllUnit
EXTRN	??2CvDllUnit@@SAPAXI@Z:PROC			; CvDllUnit::operator new
EXTRN	?getDestructionNotification@CvUnit@@QAEAAU?$DestructionNotification@V?$FObjectHandle@VCvUnit@@@@@@XZ:PROC ; CvUnit::getDestructionNotification
EXTRN	?getCenterUnit@CvPlot@@QAE?AV?$FObjectHandle@VCvUnit@@@@XZ:PROC ; CvPlot::getCenterUnit
;	COMDAT xdata$x
; File d:\sources\lekmod_git\checkout\lekmod_dll\fireplace\include\fireworks\fobjecthandle.h
xdata$x	SEGMENT
__unwindtable$?GetCenterUnit@CvDllPlot@@UAGPAVICvUnit1@@XZ DD 0ffffffffH
	DD	FLAT:__unwindfunclet$?GetCenterUnit@CvDllPlot@@UAGPAVICvUnit1@@XZ$1
__ehfuncinfo$?GetCenterUnit@CvDllPlot@@UAGPAVICvUnit1@@XZ DD 019930522H
	DD	01H
	DD	FLAT:__unwindtable$?GetCenterUnit@CvDllPlot@@UAGPAVICvUnit1@@XZ
	DD	2 DUP(00H)
	DD	2 DUP(00H)
	DD	00H
	DD	01H
; Function compile flags: /Odtp
; File d:\sources\lekmod_git\checkout\lekmod_dll\cvgamecoredll_expansion2\cvdllplot.cpp
xdata$x	ENDS
;	COMDAT ?GetCenterUnit@CvDllPlot@@UAGPAVICvUnit1@@XZ
_TEXT	SEGMENT
tv79 = -44						; size = 4
tv84 = -40						; size = 4
$T218803 = -36						; size = 4
$T218793 = -32						; size = 4
$T218792 = -28						; size = 4
$T218791 = -24						; size = 8
_pkUnit$ = -16						; size = 4
__$EHRec$ = -12						; size = 12
_this$ = 8						; size = 4
?GetCenterUnit@CvDllPlot@@UAGPAVICvUnit1@@XZ PROC	; CvDllPlot::GetCenterUnit, COMDAT

; 312  : {

	push	ebp
	mov	ebp, esp
	push	-1
	push	__ehhandler$?GetCenterUnit@CvDllPlot@@UAGPAVICvUnit1@@XZ
	mov	eax, DWORD PTR fs:0
	push	eax
	sub	esp, 32					; 00000020H
	mov	eax, DWORD PTR ___security_cookie
	xor	eax, ebp
	push	eax
	lea	eax, DWORD PTR __$EHRec$[ebp]
	mov	DWORD PTR fs:0, eax

; 313  : 	CvUnit* pkUnit = m_pPlot->getCenterUnit().pointer();

	lea	eax, DWORD PTR $T218791[ebp]
	push	eax
	mov	ecx, DWORD PTR _this$[ebp]
	mov	ecx, DWORD PTR [ecx+8]
	call	?getCenterUnit@CvPlot@@QAE?AV?$FObjectHandle@VCvUnit@@@@XZ ; CvPlot::getCenterUnit
	mov	DWORD PTR $T218803[ebp], eax
	mov	edx, DWORD PTR $T218803[ebp]
	mov	eax, DWORD PTR [edx]
	mov	DWORD PTR _pkUnit$[ebp], eax
	cmp	DWORD PTR $T218791[ebp], 0
	je	SHORT $LN12@GetCenterU
	mov	ecx, DWORD PTR $T218791[ebp]
	call	?getDestructionNotification@CvUnit@@QAEAAU?$DestructionNotification@V?$FObjectHandle@VCvUnit@@@@@@XZ ; CvUnit::getDestructionNotification
$LN12@GetCenterU:

; 314  : 	return (NULL != pkUnit)? new CvDllUnit(pkUnit) : NULL;

	cmp	DWORD PTR _pkUnit$[ebp], 0
	je	SHORT $LN5@GetCenterU
	push	12					; 0000000cH
	call	??2CvDllUnit@@SAPAXI@Z			; CvDllUnit::operator new
	add	esp, 4
	mov	DWORD PTR $T218793[ebp], eax
	mov	DWORD PTR __$EHRec$[ebp+8], 0
	cmp	DWORD PTR $T218793[ebp], 0
	je	SHORT $LN3@GetCenterU
	mov	ecx, DWORD PTR _pkUnit$[ebp]
	push	ecx
	mov	ecx, DWORD PTR $T218793[ebp]
	call	??0CvDllUnit@@QAE@PAVCvUnit@@@Z		; CvDllUnit::CvDllUnit
	mov	DWORD PTR tv84[ebp], eax
	jmp	SHORT $LN4@GetCenterU
$LN3@GetCenterU:
	mov	DWORD PTR tv84[ebp], 0
$LN4@GetCenterU:
	mov	edx, DWORD PTR tv84[ebp]
	mov	DWORD PTR $T218792[ebp], edx
	mov	DWORD PTR __$EHRec$[ebp+8], -1
	mov	eax, DWORD PTR $T218792[ebp]
	mov	DWORD PTR tv79[ebp], eax
	jmp	SHORT $LN6@GetCenterU
$LN5@GetCenterU:
	mov	DWORD PTR tv79[ebp], 0
$LN6@GetCenterU:
	mov	eax, DWORD PTR tv79[ebp]

; 315  : }

	mov	ecx, DWORD PTR __$EHRec$[ebp]
	mov	DWORD PTR fs:0, ecx
	pop	ecx
	mov	esp, ebp
	pop	ebp
	ret	4
_TEXT	ENDS
;	COMDAT text$x
text$x	SEGMENT
__unwindfunclet$?GetCenterUnit@CvDllPlot@@UAGPAVICvUnit1@@XZ$1:
	mov	eax, DWORD PTR $T218793[ebp]
	push	eax
	call	??3CvDllUnit@@SAXPAX@Z			; CvDllUnit::operator delete
	pop	ecx
	ret	0
__ehhandler$?GetCenterUnit@CvDllPlot@@UAGPAVICvUnit1@@XZ:
	mov	edx, DWORD PTR [esp+8]
	lea	eax, DWORD PTR [edx+12]
	mov	ecx, DWORD PTR [edx-36]
	xor	ecx, eax
	call	@__security_check_cookie@4
	mov	eax, OFFSET __ehfuncinfo$?GetCenterUnit@CvDllPlot@@UAGPAVICvUnit1@@XZ
	jmp	___CxxFrameHandler3
text$x	ENDS
?GetCenterUnit@CvDllPlot@@UAGPAVICvUnit1@@XZ ENDP	; CvDllPlot::GetCenterUnit
EXTRN	?getNumUnits@CvPlot@@QBEHXZ:PROC		; CvPlot::getNumUnits
; Function compile flags: /Odtp
;	COMDAT ?GetNumUnits@CvDllPlot@@UBGHXZ
_TEXT	SEGMENT
_this$ = 8						; size = 4
?GetNumUnits@CvDllPlot@@UBGHXZ PROC			; CvDllPlot::GetNumUnits, COMDAT

; 318  : {

	push	ebp
	mov	ebp, esp

; 319  : #ifdef AUI_WARNING_FIXES
; 320  : 	return static_cast<const int>(m_pPlot->getNumUnits());
; 321  : #else
; 322  : 	return m_pPlot->getNumUnits();

	mov	eax, DWORD PTR _this$[ebp]
	mov	ecx, DWORD PTR [eax+8]
	call	?getNumUnits@CvPlot@@QBEHXZ		; CvPlot::getNumUnits

; 323  : #endif
; 324  : }

	pop	ebp
	ret	4
?GetNumUnits@CvDllPlot@@UBGHXZ ENDP			; CvDllPlot::GetNumUnits
_TEXT	ENDS
EXTRN	?getUnitByIndex@CvPlot@@QBEPAVCvUnit@@H@Z:PROC	; CvPlot::getUnitByIndex
;	COMDAT xdata$x
xdata$x	SEGMENT
__unwindtable$?GetUnitByIndex@CvDllPlot@@UBGPAVICvUnit1@@H@Z DD 0ffffffffH
	DD	FLAT:__unwindfunclet$?GetUnitByIndex@CvDllPlot@@UBGPAVICvUnit1@@H@Z$0
__ehfuncinfo$?GetUnitByIndex@CvDllPlot@@UBGPAVICvUnit1@@H@Z DD 019930522H
	DD	01H
	DD	FLAT:__unwindtable$?GetUnitByIndex@CvDllPlot@@UBGPAVICvUnit1@@H@Z
	DD	2 DUP(00H)
	DD	2 DUP(00H)
	DD	00H
	DD	01H
; Function compile flags: /Odtp
xdata$x	ENDS
;	COMDAT ?GetUnitByIndex@CvDllPlot@@UBGPAVICvUnit1@@H@Z
_TEXT	SEGMENT
tv75 = -32						; size = 4
tv80 = -28						; size = 4
$T218824 = -24						; size = 4
$T218823 = -20						; size = 4
_pkUnit$ = -16						; size = 4
__$EHRec$ = -12						; size = 12
_this$ = 8						; size = 4
_iIndex$ = 12						; size = 4
?GetUnitByIndex@CvDllPlot@@UBGPAVICvUnit1@@H@Z PROC	; CvDllPlot::GetUnitByIndex, COMDAT

; 327  : {

	push	ebp
	mov	ebp, esp
	push	-1
	push	__ehhandler$?GetUnitByIndex@CvDllPlot@@UBGPAVICvUnit1@@H@Z
	mov	eax, DWORD PTR fs:0
	push	eax
	sub	esp, 20					; 00000014H
	mov	eax, DWORD PTR ___security_cookie
	xor	eax, ebp
	push	eax
	lea	eax, DWORD PTR __$EHRec$[ebp]
	mov	DWORD PTR fs:0, eax

; 328  : 	CvUnit* pkUnit = m_pPlot->getUnitByIndex(iIndex);

	mov	eax, DWORD PTR _iIndex$[ebp]
	push	eax
	mov	ecx, DWORD PTR _this$[ebp]
	mov	ecx, DWORD PTR [ecx+8]
	call	?getUnitByIndex@CvPlot@@QBEPAVCvUnit@@H@Z ; CvPlot::getUnitByIndex
	mov	DWORD PTR _pkUnit$[ebp], eax

; 329  : 	return (NULL != pkUnit)? new CvDllUnit(pkUnit) : NULL;

	cmp	DWORD PTR _pkUnit$[ebp], 0
	je	SHORT $LN5@GetUnitByI
	push	12					; 0000000cH
	call	??2CvDllUnit@@SAPAXI@Z			; CvDllUnit::operator new
	add	esp, 4
	mov	DWORD PTR $T218824[ebp], eax
	mov	DWORD PTR __$EHRec$[ebp+8], 0
	cmp	DWORD PTR $T218824[ebp], 0
	je	SHORT $LN3@GetUnitByI
	mov	edx, DWORD PTR _pkUnit$[ebp]
	push	edx
	mov	ecx, DWORD PTR $T218824[ebp]
	call	??0CvDllUnit@@QAE@PAVCvUnit@@@Z		; CvDllUnit::CvDllUnit
	mov	DWORD PTR tv80[ebp], eax
	jmp	SHORT $LN4@GetUnitByI
$LN3@GetUnitByI:
	mov	DWORD PTR tv80[ebp], 0
$LN4@GetUnitByI:
	mov	eax, DWORD PTR tv80[ebp]
	mov	DWORD PTR $T218823[ebp], eax
	mov	DWORD PTR __$EHRec$[ebp+8], -1
	mov	ecx, DWORD PTR $T218823[ebp]
	mov	DWORD PTR tv75[ebp], ecx
	jmp	SHORT $LN6@GetUnitByI
$LN5@GetUnitByI:
	mov	DWORD PTR tv75[ebp], 0
$LN6@GetUnitByI:
	mov	eax, DWORD PTR tv75[ebp]

; 330  : }

	mov	ecx, DWORD PTR __$EHRec$[ebp]
	mov	DWORD PTR fs:0, ecx
	pop	ecx
	mov	esp, ebp
	pop	ebp
	ret	8
_TEXT	ENDS
;	COMDAT text$x
text$x	SEGMENT
__unwindfunclet$?GetUnitByIndex@CvDllPlot@@UBGPAVICvUnit1@@H@Z$0:
	mov	eax, DWORD PTR $T218824[ebp]
	push	eax
	call	??3CvDllUnit@@SAXPAX@Z			; CvDllUnit::operator delete
	pop	ecx
	ret	0
__ehhandler$?GetUnitByIndex@CvDllPlot@@UBGPAVICvUnit1@@H@Z:
	mov	edx, DWORD PTR [esp+8]
	lea	eax, DWORD PTR [edx+12]
	mov	ecx, DWORD PTR [edx-24]
	xor	ecx, eax
	call	@__security_check_cookie@4
	mov	eax, OFFSET __ehfuncinfo$?GetUnitByIndex@CvDllPlot@@UBGPAVICvUnit1@@H@Z
	jmp	___CxxFrameHandler3
text$x	ENDS
?GetUnitByIndex@CvDllPlot@@UBGPAVICvUnit1@@H@Z ENDP	; CvDllPlot::GetUnitByIndex
EXTRN	?addUnit@CvPlot@@QAEXPAVCvUnit@@_N@Z:PROC	; CvPlot::addUnit
; Function compile flags: /Odtp
;	COMDAT ?AddUnit@CvDllPlot@@UAGXPAVICvUnit1@@_N@Z
_TEXT	SEGMENT
tv71 = -8						; size = 4
_pkUnit$ = -4						; size = 4
_this$ = 8						; size = 4
_pUnit$ = 12						; size = 4
_bUpdate$ = 16						; size = 1
?AddUnit@CvDllPlot@@UAGXPAVICvUnit1@@_N@Z PROC		; CvDllPlot::AddUnit, COMDAT

; 333  : {

	push	ebp
	mov	ebp, esp
	sub	esp, 8

; 334  : 	CvUnit* pkUnit = (NULL != pUnit)? static_cast<CvDllUnit*>(pUnit)->GetInstance() : NULL;

	cmp	DWORD PTR _pUnit$[ebp], 0
	je	SHORT $LN3@AddUnit
	mov	ecx, DWORD PTR _pUnit$[ebp]
	call	?GetInstance@CvDllUnit@@QAEPAVCvUnit@@XZ ; CvDllUnit::GetInstance
	mov	DWORD PTR tv71[ebp], eax
	jmp	SHORT $LN4@AddUnit
$LN3@AddUnit:
	mov	DWORD PTR tv71[ebp], 0
$LN4@AddUnit:
	mov	eax, DWORD PTR tv71[ebp]
	mov	DWORD PTR _pkUnit$[ebp], eax

; 335  : 	return m_pPlot->addUnit(pkUnit, bUpdate);

	movzx	ecx, BYTE PTR _bUpdate$[ebp]
	push	ecx
	mov	edx, DWORD PTR _pkUnit$[ebp]
	push	edx
	mov	eax, DWORD PTR _this$[ebp]
	mov	ecx, DWORD PTR [eax+8]
	call	?addUnit@CvPlot@@QAEXPAVCvUnit@@_N@Z	; CvPlot::addUnit

; 336  : }

	mov	esp, ebp
	pop	ebp
	ret	12					; 0000000cH
?AddUnit@CvDllPlot@@UAGXPAVICvUnit1@@_N@Z ENDP		; CvDllPlot::AddUnit
_TEXT	ENDS
EXTRN	?removeUnit@CvPlot@@QAEXPAVCvUnit@@_N@Z:PROC	; CvPlot::removeUnit
; Function compile flags: /Odtp
;	COMDAT ?RemoveUnit@CvDllPlot@@UAGXPAVICvUnit1@@_N@Z
_TEXT	SEGMENT
tv71 = -8						; size = 4
_pkUnit$ = -4						; size = 4
_this$ = 8						; size = 4
_pUnit$ = 12						; size = 4
_bUpdate$ = 16						; size = 1
?RemoveUnit@CvDllPlot@@UAGXPAVICvUnit1@@_N@Z PROC	; CvDllPlot::RemoveUnit, COMDAT

; 339  : {

	push	ebp
	mov	ebp, esp
	sub	esp, 8

; 340  : 	CvUnit* pkUnit = (NULL != pUnit)? static_cast<CvDllUnit*>(pUnit)->GetInstance() : NULL;

	cmp	DWORD PTR _pUnit$[ebp], 0
	je	SHORT $LN3@RemoveUnit
	mov	ecx, DWORD PTR _pUnit$[ebp]
	call	?GetInstance@CvDllUnit@@QAEPAVCvUnit@@XZ ; CvDllUnit::GetInstance
	mov	DWORD PTR tv71[ebp], eax
	jmp	SHORT $LN4@RemoveUnit
$LN3@RemoveUnit:
	mov	DWORD PTR tv71[ebp], 0
$LN4@RemoveUnit:
	mov	eax, DWORD PTR tv71[ebp]
	mov	DWORD PTR _pkUnit$[ebp], eax

; 341  : 	return m_pPlot->removeUnit(pkUnit, bUpdate);

	movzx	ecx, BYTE PTR _bUpdate$[ebp]
	push	ecx
	mov	edx, DWORD PTR _pkUnit$[ebp]
	push	edx
	mov	eax, DWORD PTR _this$[ebp]
	mov	ecx, DWORD PTR [eax+8]
	call	?removeUnit@CvPlot@@QAEXPAVCvUnit@@_N@Z	; CvPlot::removeUnit

; 342  : }

	mov	esp, ebp
	pop	ebp
	ret	12					; 0000000cH
?RemoveUnit@CvDllPlot@@UAGXPAVICvUnit1@@_N@Z ENDP	; CvDllPlot::RemoveUnit
_TEXT	ENDS
EXTRN	?nextUnitNode@CvPlot@@QBEPBUIDInfo@@PBU2@@Z:PROC ; CvPlot::nextUnitNode
; Function compile flags: /Odtp
;	COMDAT ?NextUnitNode@CvDllPlot@@UBGPBUIDInfo@@PBU2@@Z
_TEXT	SEGMENT
_this$ = 8						; size = 4
_pNode$ = 12						; size = 4
?NextUnitNode@CvDllPlot@@UBGPBUIDInfo@@PBU2@@Z PROC	; CvDllPlot::NextUnitNode, COMDAT

; 345  : {

	push	ebp
	mov	ebp, esp

; 346  : 	return m_pPlot->nextUnitNode(pNode);

	mov	eax, DWORD PTR _pNode$[ebp]
	push	eax
	mov	ecx, DWORD PTR _this$[ebp]
	mov	ecx, DWORD PTR [ecx+8]
	call	?nextUnitNode@CvPlot@@QBEPBUIDInfo@@PBU2@@Z ; CvPlot::nextUnitNode

; 347  : }

	pop	ebp
	ret	8
?NextUnitNode@CvDllPlot@@UBGPBUIDInfo@@PBU2@@Z ENDP	; CvDllPlot::NextUnitNode
_TEXT	ENDS
EXTRN	?nextUnitNode@CvPlot@@QAEPAUIDInfo@@PAU2@@Z:PROC ; CvPlot::nextUnitNode
; Function compile flags: /Odtp
;	COMDAT ?NextUnitNode@CvDllPlot@@UAGPAUIDInfo@@PAU2@@Z
_TEXT	SEGMENT
_this$ = 8						; size = 4
_pNode$ = 12						; size = 4
?NextUnitNode@CvDllPlot@@UAGPAUIDInfo@@PAU2@@Z PROC	; CvDllPlot::NextUnitNode, COMDAT

; 350  : {

	push	ebp
	mov	ebp, esp

; 351  : 	return m_pPlot->nextUnitNode(pNode);

	mov	eax, DWORD PTR _pNode$[ebp]
	push	eax
	mov	ecx, DWORD PTR _this$[ebp]
	mov	ecx, DWORD PTR [ecx+8]
	call	?nextUnitNode@CvPlot@@QAEPAUIDInfo@@PAU2@@Z ; CvPlot::nextUnitNode

; 352  : }

	pop	ebp
	ret	8
?NextUnitNode@CvDllPlot@@UAGPAUIDInfo@@PAU2@@Z ENDP	; CvDllPlot::NextUnitNode
_TEXT	ENDS
EXTRN	?headUnitNode@CvPlot@@QAEPAUIDInfo@@XZ:PROC	; CvPlot::headUnitNode
; Function compile flags: /Odtp
;	COMDAT ?HeadUnitNode@CvDllPlot@@UAGPAUIDInfo@@XZ
_TEXT	SEGMENT
_this$ = 8						; size = 4
?HeadUnitNode@CvDllPlot@@UAGPAUIDInfo@@XZ PROC		; CvDllPlot::HeadUnitNode, COMDAT

; 355  : {

	push	ebp
	mov	ebp, esp

; 356  : 	return m_pPlot->headUnitNode();

	mov	eax, DWORD PTR _this$[ebp]
	mov	ecx, DWORD PTR [eax+8]
	call	?headUnitNode@CvPlot@@QAEPAUIDInfo@@XZ	; CvPlot::headUnitNode

; 357  : }

	pop	ebp
	ret	4
?HeadUnitNode@CvDllPlot@@UAGPAUIDInfo@@XZ ENDP		; CvDllPlot::HeadUnitNode
_TEXT	ENDS
EXTRN	?GetPlotIndex@CvPlot@@QBEHXZ:PROC		; CvPlot::GetPlotIndex
; Function compile flags: /Odtp
;	COMDAT ?GetPlotIndex@CvDllPlot@@UBGHXZ
_TEXT	SEGMENT
_this$ = 8						; size = 4
?GetPlotIndex@CvDllPlot@@UBGHXZ PROC			; CvDllPlot::GetPlotIndex, COMDAT

; 360  : {

	push	ebp
	mov	ebp, esp

; 361  : 	return m_pPlot->GetPlotIndex();

	mov	eax, DWORD PTR _this$[ebp]
	mov	ecx, DWORD PTR [eax+8]
	call	?GetPlotIndex@CvPlot@@QBEHXZ		; CvPlot::GetPlotIndex

; 362  : }

	pop	ebp
	ret	4
?GetPlotIndex@CvDllPlot@@UBGHXZ ENDP			; CvDllPlot::GetPlotIndex
_TEXT	ENDS
EXTRN	?GetContinentType@CvPlot@@QBEDXZ:PROC		; CvPlot::GetContinentType
; Function compile flags: /Odtp
;	COMDAT ?GetContinentType@CvDllPlot@@UBGDXZ
_TEXT	SEGMENT
_this$ = 8						; size = 4
?GetContinentType@CvDllPlot@@UBGDXZ PROC		; CvDllPlot::GetContinentType, COMDAT

; 365  : {

	push	ebp
	mov	ebp, esp

; 366  : #ifdef AUI_WARNING_FIXES
; 367  : 	return char(m_pPlot->GetContinentType());
; 368  : #else
; 369  : 	return m_pPlot->GetContinentType();

	mov	eax, DWORD PTR _this$[ebp]
	mov	ecx, DWORD PTR [eax+8]
	call	?GetContinentType@CvPlot@@QBEDXZ	; CvPlot::GetContinentType

; 370  : #endif
; 371  : }

	pop	ebp
	ret	4
?GetContinentType@CvDllPlot@@UBGDXZ ENDP		; CvDllPlot::GetContinentType
_TEXT	ENDS
EXTRN	?getSyncArchive@CvPlot@@QAEAAVFAutoArchive@@XZ:PROC ; CvPlot::getSyncArchive
; Function compile flags: /Odtp
;	COMDAT ?GetSyncArchive@CvDllPlot@@UAGAAVFAutoArchive@@XZ
_TEXT	SEGMENT
_this$ = 8						; size = 4
?GetSyncArchive@CvDllPlot@@UAGAAVFAutoArchive@@XZ PROC	; CvDllPlot::GetSyncArchive, COMDAT

; 374  : {

	push	ebp
	mov	ebp, esp

; 375  : 	return m_pPlot->getSyncArchive();

	mov	eax, DWORD PTR _this$[ebp]
	mov	ecx, DWORD PTR [eax+8]
	call	?getSyncArchive@CvPlot@@QAEAAVFAutoArchive@@XZ ; CvPlot::getSyncArchive

; 376  : }

	pop	ebp
	ret	4
?GetSyncArchive@CvDllPlot@@UAGAAVFAutoArchive@@XZ ENDP	; CvDllPlot::GetSyncArchive
_TEXT	ENDS
EXTRN	?sr_TeamTypes@CvPreGame@@3ABV?$vector@W4TeamTypes@@V?$allocator@W4TeamTypes@@@std@@@std@@B:DWORD ; CvPreGame::sr_TeamTypes
; Function compile flags: /Odtp
; File d:\sources\lekmod_git\checkout\lekmod_dll\cvgamecoredll_expansion2\cvpregame.h
;	COMDAT ?teamType@CvPreGame@@YA?AW4TeamTypes@@W4PlayerTypes@@@Z
_TEXT	SEGMENT
_p$ = 8							; size = 4
?teamType@CvPreGame@@YA?AW4TeamTypes@@W4PlayerTypes@@@Z PROC ; CvPreGame::teamType, COMDAT

; 298  : {

	push	ebp
	mov	ebp, esp

; 299  : 	if(p >= 0 && p < MAX_PLAYERS)

	cmp	DWORD PTR _p$[ebp], 0
	jl	SHORT $LN1@teamType
	cmp	DWORD PTR _p$[ebp], 64			; 00000040H
	jge	SHORT $LN1@teamType

; 300  : 		return sr_TeamTypes[p];

	mov	eax, DWORD PTR ?sr_TeamTypes@CvPreGame@@3ABV?$vector@W4TeamTypes@@V?$allocator@W4TeamTypes@@@std@@@std@@B ; CvPreGame::sr_TeamTypes
	mov	ecx, DWORD PTR [eax+4]
	mov	edx, DWORD PTR _p$[ebp]
	mov	eax, DWORD PTR [ecx+edx*4]
	jmp	SHORT $LN2@teamType
$LN1@teamType:

; 301  : 	return NO_TEAM;

	or	eax, -1
$LN2@teamType:

; 302  : }

	pop	ebp
	ret	0
?teamType@CvPreGame@@YA?AW4TeamTypes@@W4PlayerTypes@@@Z ENDP ; CvPreGame::teamType
_TEXT	ENDS
EXTRN	?getCity@CvPlayer@@QAEPAVCvCity@@H@Z:PROC	; CvPlayer::getCity
EXTRN	?m_aPlayers@CvPlayerAI@@1PAV1@A:DWORD		; CvPlayerAI::m_aPlayers
; Function compile flags: /Odtp
; File d:\sources\lekmod_git\checkout\lekmod_dll\cvgamecoredll_expansion2\cvplot.h
;	COMDAT ?isCity@CvPlot@@QBE_NXZ
_TEXT	SEGMENT
_this$ = -8						; size = 4
$T218866 = -4						; size = 4
?isCity@CvPlot@@QBE_NXZ PROC				; CvPlot::isCity, COMDAT
; _this$ = ecx

; 244  : 	{

	push	ebp
	mov	ebp, esp
	sub	esp, 8
	mov	DWORD PTR _this$[ebp], ecx

; 245  : 		if((m_plotCity.eOwner >= 0) && m_plotCity.eOwner < MAX_PLAYERS)

	mov	eax, DWORD PTR _this$[ebp]
	cmp	DWORD PTR [eax+104], 0
	jl	SHORT $LN1@isCity
	mov	ecx, DWORD PTR _this$[ebp]
	cmp	DWORD PTR [ecx+104], 64			; 00000040H
	jge	SHORT $LN1@isCity

; 246  : 			return (GET_PLAYER((PlayerTypes)m_plotCity.eOwner).getCity(m_plotCity.iID)) != NULL;

	mov	edx, DWORD PTR _this$[ebp]
	mov	eax, DWORD PTR [edx+104]
	imul	eax, 63236				; 0000f704H
	add	eax, DWORD PTR ?m_aPlayers@CvPlayerAI@@1PAV1@A ; CvPlayerAI::m_aPlayers
	mov	DWORD PTR $T218866[ebp], eax
	mov	ecx, DWORD PTR _this$[ebp]
	mov	edx, DWORD PTR [ecx+108]
	push	edx
	mov	ecx, DWORD PTR $T218866[ebp]
	call	?getCity@CvPlayer@@QAEPAVCvCity@@H@Z	; CvPlayer::getCity
	neg	eax
	sbb	eax, eax
	neg	eax
	jmp	SHORT $LN2@isCity
$LN1@isCity:

; 247  : 
; 248  : 		return false;

	xor	al, al
$LN2@isCity:

; 249  : 	}

	mov	esp, ebp
	pop	ebp
	ret	0
?isCity@CvPlot@@QBE_NXZ ENDP				; CvPlot::isCity
; Function compile flags: /Odtp
_TEXT	ENDS
;	COMDAT ?getPlotCity@CvPlot@@QBEPAVCvCity@@XZ
_TEXT	SEGMENT
_this$ = -8						; size = 4
$T218872 = -4						; size = 4
?getPlotCity@CvPlot@@QBEPAVCvCity@@XZ PROC		; CvPlot::getPlotCity, COMDAT
; _this$ = ecx

; 532  : 	{

	push	ebp
	mov	ebp, esp
	sub	esp, 8
	mov	DWORD PTR _this$[ebp], ecx

; 533  : 		if((m_plotCity.eOwner >= 0) && m_plotCity.eOwner < MAX_PLAYERS)

	mov	eax, DWORD PTR _this$[ebp]
	cmp	DWORD PTR [eax+104], 0
	jl	SHORT $LN1@getPlotCit
	mov	ecx, DWORD PTR _this$[ebp]
	cmp	DWORD PTR [ecx+104], 64			; 00000040H
	jge	SHORT $LN1@getPlotCit

; 534  : 			return (GET_PLAYER((PlayerTypes)m_plotCity.eOwner).getCity(m_plotCity.iID));

	mov	edx, DWORD PTR _this$[ebp]
	mov	eax, DWORD PTR [edx+104]
	imul	eax, 63236				; 0000f704H
	add	eax, DWORD PTR ?m_aPlayers@CvPlayerAI@@1PAV1@A ; CvPlayerAI::m_aPlayers
	mov	DWORD PTR $T218872[ebp], eax
	mov	ecx, DWORD PTR _this$[ebp]
	mov	edx, DWORD PTR [ecx+108]
	push	edx
	mov	ecx, DWORD PTR $T218872[ebp]
	call	?getCity@CvPlayer@@QAEPAVCvCity@@H@Z	; CvPlayer::getCity
	jmp	SHORT $LN2@getPlotCit
$LN1@getPlotCit:

; 535  : 
; 536  : 		return NULL;

	xor	eax, eax
$LN2@getPlotCit:

; 537  : 	}

	mov	esp, ebp
	pop	ebp
	ret	0
?getPlotCity@CvPlot@@QBEPAVCvCity@@XZ ENDP		; CvPlot::getPlotCity
; Function compile flags: /Odtp
_TEXT	ENDS
;	COMDAT ?isRevealed@CvPlot@@QBE_NW4TeamTypes@@_N@Z
_TEXT	SEGMENT
_this$ = -12						; size = 4
_uiOffset$218881 = -8					; size = 4
$T218878 = -4						; size = 4
_eTeam$ = 8						; size = 4
_bDebug$ = 12						; size = 1
?isRevealed@CvPlot@@QBE_NW4TeamTypes@@_N@Z PROC		; CvPlot::isRevealed, COMDAT
; _this$ = ecx

; 611  : 	{

	push	ebp
	mov	ebp, esp
	sub	esp, 12					; 0000000cH
	mov	DWORD PTR _this$[ebp], ecx

; 612  : 		if(bDebug && GC.getGame().isDebugMode())

	movzx	eax, BYTE PTR _bDebug$[ebp]
	test	eax, eax
	je	SHORT $LN1@isRevealed
	mov	ecx, DWORD PTR ?gGlobals@@3VCvGlobals@@A+48
	mov	DWORD PTR $T218878[ebp], ecx
	mov	ecx, DWORD PTR $T218878[ebp]
	call	?isDebugMode@CvGame@@QBE_NXZ		; CvGame::isDebugMode
	movzx	edx, al
	test	edx, edx
	je	SHORT $LN1@isRevealed

; 613  : 			return true;

	mov	al, 1
	jmp	SHORT $LN2@isRevealed
$LN1@isRevealed:

; 614  : 		CvAssertMsg(eTeam >= 0, "eTeam is expected to be non-negative (invalid Index)");
; 615  : 		CvAssertMsg(eTeam < MAX_TEAMS, "eTeam is expected to be within maximum bounds (invalid Index)");
; 616  : 		return m_bfRevealed.GetBit(eTeam);

	mov	eax, DWORD PTR _eTeam$[ebp]
	shr	eax, 5
	mov	DWORD PTR _uiOffset$218881[ebp], eax
	mov	ecx, DWORD PTR _uiOffset$218881[ebp]
	shl	ecx, 5
	mov	edx, DWORD PTR _eTeam$[ebp]
	sub	edx, ecx
	mov	eax, 1
	mov	ecx, edx
	shl	eax, cl
	mov	ecx, DWORD PTR _uiOffset$218881[ebp]
	mov	edx, DWORD PTR _this$[ebp]
	and	eax, DWORD PTR [edx+ecx*4+8]
	setne	al
$LN2@isRevealed:

; 617  : 	}

	mov	esp, ebp
	pop	ebp
	ret	8
?isRevealed@CvPlot@@QBE_NW4TeamTypes@@_N@Z ENDP		; CvPlot::isRevealed
_TEXT	ENDS
END
