; Listing generated by Microsoft (R) Optimizing Compiler Version 15.00.30729.01 

	TITLE	D:\sources\Lekmod_git\checkout\LEKMOD_DLL\CvGameCoreDLL_Expansion2\CvDllPolicyInfo.cpp
	.686P
	.XMM
	include listing.inc
	.model	flat

INCLUDELIB MSVCRT
INCLUDELIB OLDNAMES

PUBLIC	??_C@_05OCFELOIJ@1?40?40?$AA@			; `string'
CONST	SEGMENT
_guidICvUnknown DD 0d89ba82fH
	DW	09fa3H
	DW	04696H
	DB	0b3H
	DB	0f4H
	DB	052H
	DB	0bdH
	DB	0b1H
	DB	01H
	DB	0cfH
	DB	0b2H
_guidICvPolicyInfo1 DD 079c1dabaH
	DW	09d1dH
	DW	0421eH
	DB	083H
	DB	0ceH
	DB	083H
	DB	0f5H
	DB	081H
	DB	058H
	DB	026H
	DB	019H
CONST	ENDS
_DATA	SEGMENT
_CIV5_XP2_DLL_VERSION DD FLAT:??_C@_05OCFELOIJ@1?40?40?$AA@
_DATA	ENDS
;	COMDAT ??_C@_05OCFELOIJ@1?40?40?$AA@
CONST	SEGMENT
??_C@_05OCFELOIJ@1?40?40?$AA@ DB '1.0.0', 00H		; `string'
CONST	ENDS
PUBLIC	??_7CvDllPolicyInfo@@6B@			; CvDllPolicyInfo::`vftable'
PUBLIC	??_7ICvPolicyInfo1@@6B@				; ICvPolicyInfo1::`vftable'
PUBLIC	??_7ICvUnknown@@6B@				; ICvUnknown::`vftable'
PUBLIC	??0CvDllPolicyInfo@@QAE@PAVCvPolicyEntry@@@Z	; CvDllPolicyInfo::CvDllPolicyInfo
PUBLIC	?QueryInterface@CvDllPolicyInfo@@UAGPAXU_GUID@@@Z ; CvDllPolicyInfo::QueryInterface
PUBLIC	?Destroy@CvDllPolicyInfo@@EAGXXZ		; CvDllPolicyInfo::Destroy
PUBLIC	?GetType@CvDllPolicyInfo@@UAGPBDXZ		; CvDllPolicyInfo::GetType
PUBLIC	?GetDescription@CvDllPolicyInfo@@UAGPBDXZ	; CvDllPolicyInfo::GetDescription
EXTRN	__purecall:PROC
;	COMDAT ??_7CvDllPolicyInfo@@6B@
; File d:\sources\lekmod_git\checkout\lekmod_dll\cvgamecoredll_expansion2\cvdllpolicyinfo.cpp
CONST	SEGMENT
??_7CvDllPolicyInfo@@6B@ DD FLAT:?QueryInterface@CvDllPolicyInfo@@UAGPAXU_GUID@@@Z ; CvDllPolicyInfo::`vftable'
	DD	FLAT:?Destroy@CvDllPolicyInfo@@EAGXXZ
	DD	FLAT:?GetType@CvDllPolicyInfo@@UAGPBDXZ
	DD	FLAT:?GetDescription@CvDllPolicyInfo@@UAGPBDXZ
CONST	ENDS
;	COMDAT ??_7ICvPolicyInfo1@@6B@
CONST	SEGMENT
??_7ICvPolicyInfo1@@6B@ DD FLAT:__purecall		; ICvPolicyInfo1::`vftable'
	DD	FLAT:__purecall
	DD	FLAT:__purecall
	DD	FLAT:__purecall
CONST	ENDS
;	COMDAT ??_7ICvUnknown@@6B@
CONST	SEGMENT
??_7ICvUnknown@@6B@ DD FLAT:__purecall			; ICvUnknown::`vftable'
	DD	FLAT:__purecall
; Function compile flags: /Odtp
CONST	ENDS
;	COMDAT ??0CvDllPolicyInfo@@QAE@PAVCvPolicyEntry@@@Z
_TEXT	SEGMENT
_this$ = -4						; size = 4
_pPolicyInfo$ = 8					; size = 4
??0CvDllPolicyInfo@@QAE@PAVCvPolicyEntry@@@Z PROC	; CvDllPolicyInfo::CvDllPolicyInfo, COMDAT
; _this$ = ecx

; 19   : {

	push	ebp
	mov	ebp, esp
	push	ecx
	mov	DWORD PTR _this$[ebp], ecx
	mov	eax, DWORD PTR _this$[ebp]
	mov	DWORD PTR [eax], OFFSET ??_7ICvUnknown@@6B@
	mov	ecx, DWORD PTR _this$[ebp]
	mov	DWORD PTR [ecx], OFFSET ??_7ICvPolicyInfo1@@6B@
	mov	edx, DWORD PTR _this$[ebp]
	mov	DWORD PTR [edx], OFFSET ??_7CvDllPolicyInfo@@6B@
	mov	eax, DWORD PTR _this$[ebp]
	mov	DWORD PTR [eax+4], 1
	mov	ecx, DWORD PTR _this$[ebp]
	mov	edx, DWORD PTR _pPolicyInfo$[ebp]
	mov	DWORD PTR [ecx+8], edx

; 20   : 	FAssertMsg(pPolicyInfo != NULL, "SHOULD NOT HAPPEN");
; 21   : }

	mov	eax, DWORD PTR _this$[ebp]
	mov	esp, ebp
	pop	ebp
	ret	4
??0CvDllPolicyInfo@@QAE@PAVCvPolicyEntry@@@Z ENDP	; CvDllPolicyInfo::CvDllPolicyInfo
_TEXT	ENDS
PUBLIC	??1CvDllPolicyInfo@@QAE@XZ			; CvDllPolicyInfo::~CvDllPolicyInfo
; Function compile flags: /Odtp
;	COMDAT ??1CvDllPolicyInfo@@QAE@XZ
_TEXT	SEGMENT
_this$ = -4						; size = 4
??1CvDllPolicyInfo@@QAE@XZ PROC				; CvDllPolicyInfo::~CvDllPolicyInfo, COMDAT
; _this$ = ecx

; 24   : {

	push	ebp
	mov	ebp, esp
	push	ecx
	mov	DWORD PTR _this$[ebp], ecx
	mov	eax, DWORD PTR _this$[ebp]
	mov	DWORD PTR [eax], OFFSET ??_7CvDllPolicyInfo@@6B@

; 25   : }

	mov	esp, ebp
	pop	ebp
	ret	0
??1CvDllPolicyInfo@@QAE@XZ ENDP				; CvDllPolicyInfo::~CvDllPolicyInfo
_TEXT	ENDS
PUBLIC	?IncrementReference@CvDllPolicyInfo@@QAEIXZ	; CvDllPolicyInfo::IncrementReference
; Function compile flags: /Odtp
;	COMDAT ?QueryInterface@CvDllPolicyInfo@@UAGPAXU_GUID@@@Z
_TEXT	SEGMENT
tv90 = -88						; size = 4
tv161 = -84						; size = 4
tv85 = -80						; size = 4
tv137 = -76						; size = 4
$T217962 = -72						; size = 16
$T217961 = -56						; size = 16
$T217960 = -40						; size = 16
$T217959 = -20						; size = 16
_this$ = 8						; size = 4
_guidInterface$ = 12					; size = 16
?QueryInterface@CvDllPolicyInfo@@UAGPAXU_GUID@@@Z PROC	; CvDllPolicyInfo::QueryInterface, COMDAT

; 28   : {

	push	ebp
	mov	ebp, esp
	sub	esp, 88					; 00000058H
	push	esi
	push	edi

; 29   : 	if(guidInterface == ICvUnknown::GetInterfaceId() ||
; 30   : 	        guidInterface == ICvPolicyInfo1::GetInterfaceId())

	mov	eax, DWORD PTR _guidICvUnknown
	mov	DWORD PTR $T217960[ebp], eax
	mov	ecx, DWORD PTR _guidICvUnknown+4
	mov	DWORD PTR $T217960[ebp+4], ecx
	mov	edx, DWORD PTR _guidICvUnknown+8
	mov	DWORD PTR $T217960[ebp+8], edx
	mov	eax, DWORD PTR _guidICvUnknown+12
	mov	DWORD PTR $T217960[ebp+12], eax
	mov	ecx, DWORD PTR $T217960[ebp]
	mov	DWORD PTR $T217959[ebp], ecx
	mov	edx, DWORD PTR $T217960[ebp+4]
	mov	DWORD PTR $T217959[ebp+4], edx
	mov	eax, DWORD PTR $T217960[ebp+8]
	mov	DWORD PTR $T217959[ebp+8], eax
	mov	ecx, DWORD PTR $T217960[ebp+12]
	mov	DWORD PTR $T217959[ebp+12], ecx
	mov	ecx, 16					; 00000010H
	lea	edi, DWORD PTR $T217959[ebp]
	lea	esi, DWORD PTR _guidInterface$[ebp]
	xor	edx, edx
	mov	DWORD PTR tv137[ebp], edx
	repe cmpsb
	je	SHORT $LN17@QueryInter
	sbb	eax, eax
	sbb	eax, -1
	mov	DWORD PTR tv137[ebp], eax
$LN17@QueryInter:
	mov	ecx, DWORD PTR tv137[ebp]
	mov	DWORD PTR tv85[ebp], ecx
	xor	edx, edx
	cmp	DWORD PTR tv85[ebp], 0
	sete	dl
	test	edx, edx
	jne	SHORT $LN1@QueryInter
	mov	eax, DWORD PTR _guidICvPolicyInfo1
	mov	DWORD PTR $T217962[ebp], eax
	mov	ecx, DWORD PTR _guidICvPolicyInfo1+4
	mov	DWORD PTR $T217962[ebp+4], ecx
	mov	edx, DWORD PTR _guidICvPolicyInfo1+8
	mov	DWORD PTR $T217962[ebp+8], edx
	mov	eax, DWORD PTR _guidICvPolicyInfo1+12
	mov	DWORD PTR $T217962[ebp+12], eax
	mov	ecx, DWORD PTR $T217962[ebp]
	mov	DWORD PTR $T217961[ebp], ecx
	mov	edx, DWORD PTR $T217962[ebp+4]
	mov	DWORD PTR $T217961[ebp+4], edx
	mov	eax, DWORD PTR $T217962[ebp+8]
	mov	DWORD PTR $T217961[ebp+8], eax
	mov	ecx, DWORD PTR $T217962[ebp+12]
	mov	DWORD PTR $T217961[ebp+12], ecx
	mov	ecx, 16					; 00000010H
	lea	edi, DWORD PTR $T217961[ebp]
	lea	esi, DWORD PTR _guidInterface$[ebp]
	xor	edx, edx
	mov	DWORD PTR tv161[ebp], edx
	repe cmpsb
	je	SHORT $LN18@QueryInter
	sbb	eax, eax
	sbb	eax, -1
	mov	DWORD PTR tv161[ebp], eax
$LN18@QueryInter:
	mov	ecx, DWORD PTR tv161[ebp]
	mov	DWORD PTR tv90[ebp], ecx
	xor	edx, edx
	cmp	DWORD PTR tv90[ebp], 0
	sete	dl
	test	edx, edx
	je	SHORT $LN2@QueryInter
$LN1@QueryInter:

; 31   : 	{
; 32   : 		IncrementReference();

	mov	ecx, DWORD PTR _this$[ebp]
	call	?IncrementReference@CvDllPolicyInfo@@QAEIXZ ; CvDllPolicyInfo::IncrementReference

; 33   : 		return this;

	mov	eax, DWORD PTR _this$[ebp]
	jmp	SHORT $LN3@QueryInter
$LN2@QueryInter:

; 34   : 	}
; 35   : 
; 36   : 	return NULL;

	xor	eax, eax
$LN3@QueryInter:

; 37   : }

	pop	edi
	pop	esi
	mov	esp, ebp
	pop	ebp
	ret	20					; 00000014H
?QueryInterface@CvDllPolicyInfo@@UAGPAXU_GUID@@@Z ENDP	; CvDllPolicyInfo::QueryInterface
; Function compile flags: /Odtp
_TEXT	ENDS
;	COMDAT ?IncrementReference@CvDllPolicyInfo@@QAEIXZ
_TEXT	SEGMENT
_this$ = -4						; size = 4
?IncrementReference@CvDllPolicyInfo@@QAEIXZ PROC	; CvDllPolicyInfo::IncrementReference, COMDAT
; _this$ = ecx

; 40   : {

	push	ebp
	mov	ebp, esp
	push	ecx
	mov	DWORD PTR _this$[ebp], ecx

; 41   : 	++m_uiRefCount;

	mov	eax, DWORD PTR _this$[ebp]
	mov	ecx, DWORD PTR [eax+4]
	add	ecx, 1
	mov	edx, DWORD PTR _this$[ebp]
	mov	DWORD PTR [edx+4], ecx

; 42   : 	return m_uiRefCount;

	mov	eax, DWORD PTR _this$[ebp]
	mov	eax, DWORD PTR [eax+4]

; 43   : }

	mov	esp, ebp
	pop	ebp
	ret	0
?IncrementReference@CvDllPolicyInfo@@QAEIXZ ENDP	; CvDllPolicyInfo::IncrementReference
_TEXT	ENDS
PUBLIC	??3CvDllPolicyInfo@@SAXPAX@Z			; CvDllPolicyInfo::operator delete
PUBLIC	?DecrementReference@CvDllPolicyInfo@@QAEIXZ	; CvDllPolicyInfo::DecrementReference
; Function compile flags: /Odtp
;	COMDAT ?DecrementReference@CvDllPolicyInfo@@QAEIXZ
_TEXT	SEGMENT
tv70 = -16						; size = 4
_this$ = -12						; size = 4
$T217994 = -8						; size = 4
$T217993 = -4						; size = 4
?DecrementReference@CvDllPolicyInfo@@QAEIXZ PROC	; CvDllPolicyInfo::DecrementReference, COMDAT
; _this$ = ecx

; 46   : {

	push	ebp
	mov	ebp, esp
	sub	esp, 16					; 00000010H
	mov	DWORD PTR _this$[ebp], ecx

; 47   : 	if(m_uiRefCount == 1)

	mov	eax, DWORD PTR _this$[ebp]
	cmp	DWORD PTR [eax+4], 1
	jne	SHORT $LN2@DecrementR

; 48   : 	{
; 49   : 		delete this;

	mov	ecx, DWORD PTR _this$[ebp]
	mov	DWORD PTR $T217994[ebp], ecx
	mov	edx, DWORD PTR $T217994[ebp]
	mov	DWORD PTR $T217993[ebp], edx
	cmp	DWORD PTR $T217993[ebp], 0
	je	SHORT $LN5@DecrementR
	mov	ecx, DWORD PTR $T217993[ebp]
	call	??1CvDllPolicyInfo@@QAE@XZ		; CvDllPolicyInfo::~CvDllPolicyInfo
	mov	eax, 1
	and	eax, 1
	je	SHORT $LN8@DecrementR
	mov	ecx, DWORD PTR $T217993[ebp]
	push	ecx
	call	??3CvDllPolicyInfo@@SAXPAX@Z		; CvDllPolicyInfo::operator delete
	add	esp, 4
$LN8@DecrementR:
	mov	edx, DWORD PTR $T217993[ebp]
	mov	DWORD PTR tv70[ebp], edx
	jmp	SHORT $LN6@DecrementR
$LN5@DecrementR:
	mov	DWORD PTR tv70[ebp], 0
$LN6@DecrementR:

; 50   : 		return 0;

	xor	eax, eax
	jmp	SHORT $LN3@DecrementR

; 51   : 	}
; 52   : 	else

	jmp	SHORT $LN3@DecrementR
$LN2@DecrementR:

; 53   : 	{
; 54   : 		--m_uiRefCount;

	mov	eax, DWORD PTR _this$[ebp]
	mov	ecx, DWORD PTR [eax+4]
	sub	ecx, 1
	mov	edx, DWORD PTR _this$[ebp]
	mov	DWORD PTR [edx+4], ecx

; 55   : 		return m_uiRefCount;

	mov	eax, DWORD PTR _this$[ebp]
	mov	eax, DWORD PTR [eax+4]
$LN3@DecrementR:

; 56   : 	}
; 57   : }

	mov	esp, ebp
	pop	ebp
	ret	0
?DecrementReference@CvDllPolicyInfo@@QAEIXZ ENDP	; CvDllPolicyInfo::DecrementReference
_TEXT	ENDS
PUBLIC	?GetReferenceCount@CvDllPolicyInfo@@QAEIXZ	; CvDllPolicyInfo::GetReferenceCount
; Function compile flags: /Odtp
;	COMDAT ?GetReferenceCount@CvDllPolicyInfo@@QAEIXZ
_TEXT	SEGMENT
_this$ = -4						; size = 4
?GetReferenceCount@CvDllPolicyInfo@@QAEIXZ PROC		; CvDllPolicyInfo::GetReferenceCount, COMDAT
; _this$ = ecx

; 60   : {

	push	ebp
	mov	ebp, esp
	push	ecx
	mov	DWORD PTR _this$[ebp], ecx

; 61   : 	return m_uiRefCount;

	mov	eax, DWORD PTR _this$[ebp]
	mov	eax, DWORD PTR [eax+4]

; 62   : }

	mov	esp, ebp
	pop	ebp
	ret	0
?GetReferenceCount@CvDllPolicyInfo@@QAEIXZ ENDP		; CvDllPolicyInfo::GetReferenceCount
; Function compile flags: /Odtp
_TEXT	ENDS
;	COMDAT ?Destroy@CvDllPolicyInfo@@EAGXXZ
_TEXT	SEGMENT
_this$ = 8						; size = 4
?Destroy@CvDllPolicyInfo@@EAGXXZ PROC			; CvDllPolicyInfo::Destroy, COMDAT

; 65   : {

	push	ebp
	mov	ebp, esp

; 66   : 	DecrementReference();

	mov	ecx, DWORD PTR _this$[ebp]
	call	?DecrementReference@CvDllPolicyInfo@@QAEIXZ ; CvDllPolicyInfo::DecrementReference

; 67   : }

	pop	ebp
	ret	4
?Destroy@CvDllPolicyInfo@@EAGXXZ ENDP			; CvDllPolicyInfo::Destroy
_TEXT	ENDS
EXTRN	?Free@CvDllGameContext@@SAXPAX@Z:PROC		; CvDllGameContext::Free
; Function compile flags: /Odtp
;	COMDAT ??3CvDllPolicyInfo@@SAXPAX@Z
_TEXT	SEGMENT
_p$ = 8							; size = 4
??3CvDllPolicyInfo@@SAXPAX@Z PROC			; CvDllPolicyInfo::operator delete, COMDAT

; 70   : {

	push	ebp
	mov	ebp, esp

; 71   : 	CvDllGameContext::Free(p);

	mov	eax, DWORD PTR _p$[ebp]
	push	eax
	call	?Free@CvDllGameContext@@SAXPAX@Z	; CvDllGameContext::Free
	add	esp, 4

; 72   : }

	pop	ebp
	ret	0
??3CvDllPolicyInfo@@SAXPAX@Z ENDP			; CvDllPolicyInfo::operator delete
_TEXT	ENDS
PUBLIC	??2CvDllPolicyInfo@@SAPAXI@Z			; CvDllPolicyInfo::operator new
EXTRN	?Allocate@CvDllGameContext@@SAPAXI@Z:PROC	; CvDllGameContext::Allocate
; Function compile flags: /Odtp
;	COMDAT ??2CvDllPolicyInfo@@SAPAXI@Z
_TEXT	SEGMENT
_bytes$ = 8						; size = 4
??2CvDllPolicyInfo@@SAPAXI@Z PROC			; CvDllPolicyInfo::operator new, COMDAT

; 75   : {

	push	ebp
	mov	ebp, esp

; 76   : 	return CvDllGameContext::Allocate(bytes);

	mov	eax, DWORD PTR _bytes$[ebp]
	push	eax
	call	?Allocate@CvDllGameContext@@SAPAXI@Z	; CvDllGameContext::Allocate
	add	esp, 4

; 77   : }

	pop	ebp
	ret	0
??2CvDllPolicyInfo@@SAPAXI@Z ENDP			; CvDllPolicyInfo::operator new
_TEXT	ENDS
PUBLIC	?GetInstance@CvDllPolicyInfo@@QAEPAVCvPolicyEntry@@XZ ; CvDllPolicyInfo::GetInstance
; Function compile flags: /Odtp
;	COMDAT ?GetInstance@CvDllPolicyInfo@@QAEPAVCvPolicyEntry@@XZ
_TEXT	SEGMENT
_this$ = -4						; size = 4
?GetInstance@CvDllPolicyInfo@@QAEPAVCvPolicyEntry@@XZ PROC ; CvDllPolicyInfo::GetInstance, COMDAT
; _this$ = ecx

; 80   : {

	push	ebp
	mov	ebp, esp
	push	ecx
	mov	DWORD PTR _this$[ebp], ecx

; 81   : 	return m_pPolicyInfo;

	mov	eax, DWORD PTR _this$[ebp]
	mov	eax, DWORD PTR [eax+8]

; 82   : }

	mov	esp, ebp
	pop	ebp
	ret	0
?GetInstance@CvDllPolicyInfo@@QAEPAVCvPolicyEntry@@XZ ENDP ; CvDllPolicyInfo::GetInstance
_TEXT	ENDS
EXTRN	__imp_?c_str@?$basic_string@DU?$char_traits@D@std@@V?$allocator@D@2@@std@@QBEPBDXZ:PROC
; Function compile flags: /Odtp
;	COMDAT ?GetType@CvDllPolicyInfo@@UAGPBDXZ
_TEXT	SEGMENT
$T218016 = -4						; size = 4
_this$ = 8						; size = 4
?GetType@CvDllPolicyInfo@@UAGPBDXZ PROC			; CvDllPolicyInfo::GetType, COMDAT

; 85   : {

	push	ebp
	mov	ebp, esp
	push	ecx

; 86   : 	return m_pPolicyInfo->GetType();

	mov	eax, DWORD PTR _this$[ebp]
	mov	ecx, DWORD PTR [eax+8]
	mov	DWORD PTR $T218016[ebp], ecx
	mov	ecx, DWORD PTR $T218016[ebp]
	add	ecx, 176				; 000000b0H
	call	DWORD PTR __imp_?c_str@?$basic_string@DU?$char_traits@D@std@@V?$allocator@D@2@@std@@QBEPBDXZ

; 87   : }

	mov	esp, ebp
	pop	ebp
	ret	4
?GetType@CvDllPolicyInfo@@UAGPBDXZ ENDP			; CvDllPolicyInfo::GetType
; Function compile flags: /Odtp
_TEXT	ENDS
;	COMDAT ?GetDescription@CvDllPolicyInfo@@UAGPBDXZ
_TEXT	SEGMENT
$T218022 = -4						; size = 4
_this$ = 8						; size = 4
?GetDescription@CvDllPolicyInfo@@UAGPBDXZ PROC		; CvDllPolicyInfo::GetDescription, COMDAT

; 90   : {

	push	ebp
	mov	ebp, esp
	push	ecx

; 91   : 	return m_pPolicyInfo->GetDescription();

	mov	eax, DWORD PTR _this$[ebp]
	mov	ecx, DWORD PTR [eax+8]
	mov	DWORD PTR $T218022[ebp], ecx
	mov	ecx, DWORD PTR $T218022[ebp]
	add	ecx, 36					; 00000024H
	call	DWORD PTR __imp_?c_str@?$basic_string@DU?$char_traits@D@std@@V?$allocator@D@2@@std@@QBEPBDXZ

; 92   : }

	mov	esp, ebp
	pop	ebp
	ret	4
?GetDescription@CvDllPolicyInfo@@UAGPBDXZ ENDP		; CvDllPolicyInfo::GetDescription
_TEXT	ENDS
END
