; Listing generated by Microsoft (R) Optimizing Compiler Version 15.00.30729.01 

	TITLE	D:\sources\Lekmod_git\checkout\LEKMOD_DLL\CvGameCoreDLL_Expansion2\CvDllVictoryInfo.cpp
	.686P
	.XMM
	include listing.inc
	.model	flat

INCLUDELIB MSVCRT
INCLUDELIB OLDNAMES

PUBLIC	??_C@_05OCFELOIJ@1?40?40?$AA@			; `string'
CONST	SEGMENT
_guidICvUnknown DD 0d89ba82fH
	DW	09fa3H
	DW	04696H
	DB	0b3H
	DB	0f4H
	DB	052H
	DB	0bdH
	DB	0b1H
	DB	01H
	DB	0cfH
	DB	0b2H
_guidICvVictoryInfo1 DD 0afefdf63H
	DW	0db01H
	DW	0412aH
	DB	0b3H
	DB	070H
	DB	016H
	DB	02dH
	DB	0bbH
	DB	045H
	DB	02fH
	DB	0cH
CONST	ENDS
_DATA	SEGMENT
_CIV5_XP2_DLL_VERSION DD FLAT:??_C@_05OCFELOIJ@1?40?40?$AA@
_DATA	ENDS
;	COMDAT ??_C@_05OCFELOIJ@1?40?40?$AA@
CONST	SEGMENT
??_C@_05OCFELOIJ@1?40?40?$AA@ DB '1.0.0', 00H		; `string'
CONST	ENDS
PUBLIC	??_7CvDllVictoryInfo@@6B@			; CvDllVictoryInfo::`vftable'
PUBLIC	??_7ICvVictoryInfo1@@6B@			; ICvVictoryInfo1::`vftable'
PUBLIC	??_7ICvUnknown@@6B@				; ICvUnknown::`vftable'
PUBLIC	??0CvDllVictoryInfo@@QAE@PAVCvVictoryInfo@@@Z	; CvDllVictoryInfo::CvDllVictoryInfo
PUBLIC	?QueryInterface@CvDllVictoryInfo@@UAGPAXU_GUID@@@Z ; CvDllVictoryInfo::QueryInterface
PUBLIC	?Destroy@CvDllVictoryInfo@@EAGXXZ		; CvDllVictoryInfo::Destroy
PUBLIC	?GetType@CvDllVictoryInfo@@UAGPBDXZ		; CvDllVictoryInfo::GetType
PUBLIC	?GetDescription@CvDllVictoryInfo@@UAGPBDXZ	; CvDllVictoryInfo::GetDescription
EXTRN	__purecall:PROC
;	COMDAT ??_7CvDllVictoryInfo@@6B@
; File d:\sources\lekmod_git\checkout\lekmod_dll\cvgamecoredll_expansion2\cvdllvictoryinfo.cpp
CONST	SEGMENT
??_7CvDllVictoryInfo@@6B@ DD FLAT:?QueryInterface@CvDllVictoryInfo@@UAGPAXU_GUID@@@Z ; CvDllVictoryInfo::`vftable'
	DD	FLAT:?Destroy@CvDllVictoryInfo@@EAGXXZ
	DD	FLAT:?GetType@CvDllVictoryInfo@@UAGPBDXZ
	DD	FLAT:?GetDescription@CvDllVictoryInfo@@UAGPBDXZ
CONST	ENDS
;	COMDAT ??_7ICvVictoryInfo1@@6B@
CONST	SEGMENT
??_7ICvVictoryInfo1@@6B@ DD FLAT:__purecall		; ICvVictoryInfo1::`vftable'
	DD	FLAT:__purecall
	DD	FLAT:__purecall
	DD	FLAT:__purecall
CONST	ENDS
;	COMDAT ??_7ICvUnknown@@6B@
CONST	SEGMENT
??_7ICvUnknown@@6B@ DD FLAT:__purecall			; ICvUnknown::`vftable'
	DD	FLAT:__purecall
; Function compile flags: /Odtp
CONST	ENDS
;	COMDAT ??0CvDllVictoryInfo@@QAE@PAVCvVictoryInfo@@@Z
_TEXT	SEGMENT
_this$ = -4						; size = 4
_pVictoryInfo$ = 8					; size = 4
??0CvDllVictoryInfo@@QAE@PAVCvVictoryInfo@@@Z PROC	; CvDllVictoryInfo::CvDllVictoryInfo, COMDAT
; _this$ = ecx

; 20   : {

	push	ebp
	mov	ebp, esp
	push	ecx
	mov	DWORD PTR _this$[ebp], ecx
	mov	eax, DWORD PTR _this$[ebp]
	mov	DWORD PTR [eax], OFFSET ??_7ICvUnknown@@6B@
	mov	ecx, DWORD PTR _this$[ebp]
	mov	DWORD PTR [ecx], OFFSET ??_7ICvVictoryInfo1@@6B@
	mov	edx, DWORD PTR _this$[ebp]
	mov	DWORD PTR [edx], OFFSET ??_7CvDllVictoryInfo@@6B@
	mov	eax, DWORD PTR _this$[ebp]
	mov	DWORD PTR [eax+4], 1
	mov	ecx, DWORD PTR _this$[ebp]
	mov	edx, DWORD PTR _pVictoryInfo$[ebp]
	mov	DWORD PTR [ecx+8], edx

; 21   : 	FAssertMsg(pVictoryInfo != NULL, "SHOULD NOT HAPPEN");
; 22   : }

	mov	eax, DWORD PTR _this$[ebp]
	mov	esp, ebp
	pop	ebp
	ret	4
??0CvDllVictoryInfo@@QAE@PAVCvVictoryInfo@@@Z ENDP	; CvDllVictoryInfo::CvDllVictoryInfo
_TEXT	ENDS
PUBLIC	??1CvDllVictoryInfo@@QAE@XZ			; CvDllVictoryInfo::~CvDllVictoryInfo
; Function compile flags: /Odtp
;	COMDAT ??1CvDllVictoryInfo@@QAE@XZ
_TEXT	SEGMENT
_this$ = -4						; size = 4
??1CvDllVictoryInfo@@QAE@XZ PROC			; CvDllVictoryInfo::~CvDllVictoryInfo, COMDAT
; _this$ = ecx

; 25   : {

	push	ebp
	mov	ebp, esp
	push	ecx
	mov	DWORD PTR _this$[ebp], ecx
	mov	eax, DWORD PTR _this$[ebp]
	mov	DWORD PTR [eax], OFFSET ??_7CvDllVictoryInfo@@6B@

; 26   : }

	mov	esp, ebp
	pop	ebp
	ret	0
??1CvDllVictoryInfo@@QAE@XZ ENDP			; CvDllVictoryInfo::~CvDllVictoryInfo
_TEXT	ENDS
PUBLIC	?IncrementReference@CvDllVictoryInfo@@QAEIXZ	; CvDllVictoryInfo::IncrementReference
; Function compile flags: /Odtp
;	COMDAT ?QueryInterface@CvDllVictoryInfo@@UAGPAXU_GUID@@@Z
_TEXT	SEGMENT
tv90 = -88						; size = 4
tv161 = -84						; size = 4
tv85 = -80						; size = 4
tv137 = -76						; size = 4
$T217962 = -72						; size = 16
$T217961 = -56						; size = 16
$T217960 = -40						; size = 16
$T217959 = -20						; size = 16
_this$ = 8						; size = 4
_guidInterface$ = 12					; size = 16
?QueryInterface@CvDllVictoryInfo@@UAGPAXU_GUID@@@Z PROC	; CvDllVictoryInfo::QueryInterface, COMDAT

; 29   : {

	push	ebp
	mov	ebp, esp
	sub	esp, 88					; 00000058H
	push	esi
	push	edi

; 30   : 	if(guidInterface == ICvUnknown::GetInterfaceId() ||
; 31   : 	        guidInterface == ICvVictoryInfo1::GetInterfaceId())

	mov	eax, DWORD PTR _guidICvUnknown
	mov	DWORD PTR $T217960[ebp], eax
	mov	ecx, DWORD PTR _guidICvUnknown+4
	mov	DWORD PTR $T217960[ebp+4], ecx
	mov	edx, DWORD PTR _guidICvUnknown+8
	mov	DWORD PTR $T217960[ebp+8], edx
	mov	eax, DWORD PTR _guidICvUnknown+12
	mov	DWORD PTR $T217960[ebp+12], eax
	mov	ecx, DWORD PTR $T217960[ebp]
	mov	DWORD PTR $T217959[ebp], ecx
	mov	edx, DWORD PTR $T217960[ebp+4]
	mov	DWORD PTR $T217959[ebp+4], edx
	mov	eax, DWORD PTR $T217960[ebp+8]
	mov	DWORD PTR $T217959[ebp+8], eax
	mov	ecx, DWORD PTR $T217960[ebp+12]
	mov	DWORD PTR $T217959[ebp+12], ecx
	mov	ecx, 16					; 00000010H
	lea	edi, DWORD PTR $T217959[ebp]
	lea	esi, DWORD PTR _guidInterface$[ebp]
	xor	edx, edx
	mov	DWORD PTR tv137[ebp], edx
	repe cmpsb
	je	SHORT $LN17@QueryInter
	sbb	eax, eax
	sbb	eax, -1
	mov	DWORD PTR tv137[ebp], eax
$LN17@QueryInter:
	mov	ecx, DWORD PTR tv137[ebp]
	mov	DWORD PTR tv85[ebp], ecx
	xor	edx, edx
	cmp	DWORD PTR tv85[ebp], 0
	sete	dl
	test	edx, edx
	jne	SHORT $LN1@QueryInter
	mov	eax, DWORD PTR _guidICvVictoryInfo1
	mov	DWORD PTR $T217962[ebp], eax
	mov	ecx, DWORD PTR _guidICvVictoryInfo1+4
	mov	DWORD PTR $T217962[ebp+4], ecx
	mov	edx, DWORD PTR _guidICvVictoryInfo1+8
	mov	DWORD PTR $T217962[ebp+8], edx
	mov	eax, DWORD PTR _guidICvVictoryInfo1+12
	mov	DWORD PTR $T217962[ebp+12], eax
	mov	ecx, DWORD PTR $T217962[ebp]
	mov	DWORD PTR $T217961[ebp], ecx
	mov	edx, DWORD PTR $T217962[ebp+4]
	mov	DWORD PTR $T217961[ebp+4], edx
	mov	eax, DWORD PTR $T217962[ebp+8]
	mov	DWORD PTR $T217961[ebp+8], eax
	mov	ecx, DWORD PTR $T217962[ebp+12]
	mov	DWORD PTR $T217961[ebp+12], ecx
	mov	ecx, 16					; 00000010H
	lea	edi, DWORD PTR $T217961[ebp]
	lea	esi, DWORD PTR _guidInterface$[ebp]
	xor	edx, edx
	mov	DWORD PTR tv161[ebp], edx
	repe cmpsb
	je	SHORT $LN18@QueryInter
	sbb	eax, eax
	sbb	eax, -1
	mov	DWORD PTR tv161[ebp], eax
$LN18@QueryInter:
	mov	ecx, DWORD PTR tv161[ebp]
	mov	DWORD PTR tv90[ebp], ecx
	xor	edx, edx
	cmp	DWORD PTR tv90[ebp], 0
	sete	dl
	test	edx, edx
	je	SHORT $LN2@QueryInter
$LN1@QueryInter:

; 32   : 	{
; 33   : 		IncrementReference();

	mov	ecx, DWORD PTR _this$[ebp]
	call	?IncrementReference@CvDllVictoryInfo@@QAEIXZ ; CvDllVictoryInfo::IncrementReference

; 34   : 		return this;

	mov	eax, DWORD PTR _this$[ebp]
	jmp	SHORT $LN3@QueryInter
$LN2@QueryInter:

; 35   : 	}
; 36   : 
; 37   : 	return NULL;

	xor	eax, eax
$LN3@QueryInter:

; 38   : }

	pop	edi
	pop	esi
	mov	esp, ebp
	pop	ebp
	ret	20					; 00000014H
?QueryInterface@CvDllVictoryInfo@@UAGPAXU_GUID@@@Z ENDP	; CvDllVictoryInfo::QueryInterface
; Function compile flags: /Odtp
_TEXT	ENDS
;	COMDAT ?IncrementReference@CvDllVictoryInfo@@QAEIXZ
_TEXT	SEGMENT
_this$ = -4						; size = 4
?IncrementReference@CvDllVictoryInfo@@QAEIXZ PROC	; CvDllVictoryInfo::IncrementReference, COMDAT
; _this$ = ecx

; 41   : {

	push	ebp
	mov	ebp, esp
	push	ecx
	mov	DWORD PTR _this$[ebp], ecx

; 42   : 	++m_uiRefCount;

	mov	eax, DWORD PTR _this$[ebp]
	mov	ecx, DWORD PTR [eax+4]
	add	ecx, 1
	mov	edx, DWORD PTR _this$[ebp]
	mov	DWORD PTR [edx+4], ecx

; 43   : 	return m_uiRefCount;

	mov	eax, DWORD PTR _this$[ebp]
	mov	eax, DWORD PTR [eax+4]

; 44   : }

	mov	esp, ebp
	pop	ebp
	ret	0
?IncrementReference@CvDllVictoryInfo@@QAEIXZ ENDP	; CvDllVictoryInfo::IncrementReference
_TEXT	ENDS
PUBLIC	??3CvDllVictoryInfo@@SAXPAX@Z			; CvDllVictoryInfo::operator delete
PUBLIC	?DecrementReference@CvDllVictoryInfo@@QAEIXZ	; CvDllVictoryInfo::DecrementReference
; Function compile flags: /Odtp
;	COMDAT ?DecrementReference@CvDllVictoryInfo@@QAEIXZ
_TEXT	SEGMENT
tv70 = -16						; size = 4
_this$ = -12						; size = 4
$T217994 = -8						; size = 4
$T217993 = -4						; size = 4
?DecrementReference@CvDllVictoryInfo@@QAEIXZ PROC	; CvDllVictoryInfo::DecrementReference, COMDAT
; _this$ = ecx

; 47   : {

	push	ebp
	mov	ebp, esp
	sub	esp, 16					; 00000010H
	mov	DWORD PTR _this$[ebp], ecx

; 48   : 	if(m_uiRefCount == 1)

	mov	eax, DWORD PTR _this$[ebp]
	cmp	DWORD PTR [eax+4], 1
	jne	SHORT $LN2@DecrementR

; 49   : 	{
; 50   : 		delete this;

	mov	ecx, DWORD PTR _this$[ebp]
	mov	DWORD PTR $T217994[ebp], ecx
	mov	edx, DWORD PTR $T217994[ebp]
	mov	DWORD PTR $T217993[ebp], edx
	cmp	DWORD PTR $T217993[ebp], 0
	je	SHORT $LN5@DecrementR
	mov	ecx, DWORD PTR $T217993[ebp]
	call	??1CvDllVictoryInfo@@QAE@XZ		; CvDllVictoryInfo::~CvDllVictoryInfo
	mov	eax, 1
	and	eax, 1
	je	SHORT $LN8@DecrementR
	mov	ecx, DWORD PTR $T217993[ebp]
	push	ecx
	call	??3CvDllVictoryInfo@@SAXPAX@Z		; CvDllVictoryInfo::operator delete
	add	esp, 4
$LN8@DecrementR:
	mov	edx, DWORD PTR $T217993[ebp]
	mov	DWORD PTR tv70[ebp], edx
	jmp	SHORT $LN6@DecrementR
$LN5@DecrementR:
	mov	DWORD PTR tv70[ebp], 0
$LN6@DecrementR:

; 51   : 		return 0;

	xor	eax, eax
	jmp	SHORT $LN3@DecrementR

; 52   : 	}
; 53   : 	else

	jmp	SHORT $LN3@DecrementR
$LN2@DecrementR:

; 54   : 	{
; 55   : 		--m_uiRefCount;

	mov	eax, DWORD PTR _this$[ebp]
	mov	ecx, DWORD PTR [eax+4]
	sub	ecx, 1
	mov	edx, DWORD PTR _this$[ebp]
	mov	DWORD PTR [edx+4], ecx

; 56   : 		return m_uiRefCount;

	mov	eax, DWORD PTR _this$[ebp]
	mov	eax, DWORD PTR [eax+4]
$LN3@DecrementR:

; 57   : 	}
; 58   : }

	mov	esp, ebp
	pop	ebp
	ret	0
?DecrementReference@CvDllVictoryInfo@@QAEIXZ ENDP	; CvDllVictoryInfo::DecrementReference
_TEXT	ENDS
PUBLIC	?GetReferenceCount@CvDllVictoryInfo@@QAEIXZ	; CvDllVictoryInfo::GetReferenceCount
; Function compile flags: /Odtp
;	COMDAT ?GetReferenceCount@CvDllVictoryInfo@@QAEIXZ
_TEXT	SEGMENT
_this$ = -4						; size = 4
?GetReferenceCount@CvDllVictoryInfo@@QAEIXZ PROC	; CvDllVictoryInfo::GetReferenceCount, COMDAT
; _this$ = ecx

; 61   : {

	push	ebp
	mov	ebp, esp
	push	ecx
	mov	DWORD PTR _this$[ebp], ecx

; 62   : 	return m_uiRefCount;

	mov	eax, DWORD PTR _this$[ebp]
	mov	eax, DWORD PTR [eax+4]

; 63   : }

	mov	esp, ebp
	pop	ebp
	ret	0
?GetReferenceCount@CvDllVictoryInfo@@QAEIXZ ENDP	; CvDllVictoryInfo::GetReferenceCount
; Function compile flags: /Odtp
_TEXT	ENDS
;	COMDAT ?Destroy@CvDllVictoryInfo@@EAGXXZ
_TEXT	SEGMENT
_this$ = 8						; size = 4
?Destroy@CvDllVictoryInfo@@EAGXXZ PROC			; CvDllVictoryInfo::Destroy, COMDAT

; 66   : {

	push	ebp
	mov	ebp, esp

; 67   : 	DecrementReference();

	mov	ecx, DWORD PTR _this$[ebp]
	call	?DecrementReference@CvDllVictoryInfo@@QAEIXZ ; CvDllVictoryInfo::DecrementReference

; 68   : }

	pop	ebp
	ret	4
?Destroy@CvDllVictoryInfo@@EAGXXZ ENDP			; CvDllVictoryInfo::Destroy
_TEXT	ENDS
EXTRN	?Free@CvDllGameContext@@SAXPAX@Z:PROC		; CvDllGameContext::Free
; Function compile flags: /Odtp
;	COMDAT ??3CvDllVictoryInfo@@SAXPAX@Z
_TEXT	SEGMENT
_p$ = 8							; size = 4
??3CvDllVictoryInfo@@SAXPAX@Z PROC			; CvDllVictoryInfo::operator delete, COMDAT

; 71   : {

	push	ebp
	mov	ebp, esp

; 72   : 	CvDllGameContext::Free(p);

	mov	eax, DWORD PTR _p$[ebp]
	push	eax
	call	?Free@CvDllGameContext@@SAXPAX@Z	; CvDllGameContext::Free
	add	esp, 4

; 73   : }

	pop	ebp
	ret	0
??3CvDllVictoryInfo@@SAXPAX@Z ENDP			; CvDllVictoryInfo::operator delete
_TEXT	ENDS
PUBLIC	??2CvDllVictoryInfo@@SAPAXI@Z			; CvDllVictoryInfo::operator new
EXTRN	?Allocate@CvDllGameContext@@SAPAXI@Z:PROC	; CvDllGameContext::Allocate
; Function compile flags: /Odtp
;	COMDAT ??2CvDllVictoryInfo@@SAPAXI@Z
_TEXT	SEGMENT
_bytes$ = 8						; size = 4
??2CvDllVictoryInfo@@SAPAXI@Z PROC			; CvDllVictoryInfo::operator new, COMDAT

; 76   : {

	push	ebp
	mov	ebp, esp

; 77   : 	return CvDllGameContext::Allocate(bytes);

	mov	eax, DWORD PTR _bytes$[ebp]
	push	eax
	call	?Allocate@CvDllGameContext@@SAPAXI@Z	; CvDllGameContext::Allocate
	add	esp, 4

; 78   : }

	pop	ebp
	ret	0
??2CvDllVictoryInfo@@SAPAXI@Z ENDP			; CvDllVictoryInfo::operator new
_TEXT	ENDS
PUBLIC	?GetInstance@CvDllVictoryInfo@@QAEPAVCvVictoryInfo@@XZ ; CvDllVictoryInfo::GetInstance
; Function compile flags: /Odtp
;	COMDAT ?GetInstance@CvDllVictoryInfo@@QAEPAVCvVictoryInfo@@XZ
_TEXT	SEGMENT
_this$ = -4						; size = 4
?GetInstance@CvDllVictoryInfo@@QAEPAVCvVictoryInfo@@XZ PROC ; CvDllVictoryInfo::GetInstance, COMDAT
; _this$ = ecx

; 81   : {

	push	ebp
	mov	ebp, esp
	push	ecx
	mov	DWORD PTR _this$[ebp], ecx

; 82   : 	return m_pVictoryInfo;

	mov	eax, DWORD PTR _this$[ebp]
	mov	eax, DWORD PTR [eax+8]

; 83   : }

	mov	esp, ebp
	pop	ebp
	ret	0
?GetInstance@CvDllVictoryInfo@@QAEPAVCvVictoryInfo@@XZ ENDP ; CvDllVictoryInfo::GetInstance
_TEXT	ENDS
EXTRN	__imp_?c_str@?$basic_string@DU?$char_traits@D@std@@V?$allocator@D@2@@std@@QBEPBDXZ:PROC
; Function compile flags: /Odtp
;	COMDAT ?GetType@CvDllVictoryInfo@@UAGPBDXZ
_TEXT	SEGMENT
$T218016 = -4						; size = 4
_this$ = 8						; size = 4
?GetType@CvDllVictoryInfo@@UAGPBDXZ PROC		; CvDllVictoryInfo::GetType, COMDAT

; 86   : {

	push	ebp
	mov	ebp, esp
	push	ecx

; 87   : 	return m_pVictoryInfo->GetType();

	mov	eax, DWORD PTR _this$[ebp]
	mov	ecx, DWORD PTR [eax+8]
	mov	DWORD PTR $T218016[ebp], ecx
	mov	ecx, DWORD PTR $T218016[ebp]
	add	ecx, 176				; 000000b0H
	call	DWORD PTR __imp_?c_str@?$basic_string@DU?$char_traits@D@std@@V?$allocator@D@2@@std@@QBEPBDXZ

; 88   : }

	mov	esp, ebp
	pop	ebp
	ret	4
?GetType@CvDllVictoryInfo@@UAGPBDXZ ENDP		; CvDllVictoryInfo::GetType
; Function compile flags: /Odtp
_TEXT	ENDS
;	COMDAT ?GetDescription@CvDllVictoryInfo@@UAGPBDXZ
_TEXT	SEGMENT
$T218022 = -4						; size = 4
_this$ = 8						; size = 4
?GetDescription@CvDllVictoryInfo@@UAGPBDXZ PROC		; CvDllVictoryInfo::GetDescription, COMDAT

; 91   : {

	push	ebp
	mov	ebp, esp
	push	ecx

; 92   : 	return m_pVictoryInfo->GetDescription();

	mov	eax, DWORD PTR _this$[ebp]
	mov	ecx, DWORD PTR [eax+8]
	mov	DWORD PTR $T218022[ebp], ecx
	mov	ecx, DWORD PTR $T218022[ebp]
	add	ecx, 36					; 00000024H
	call	DWORD PTR __imp_?c_str@?$basic_string@DU?$char_traits@D@std@@V?$allocator@D@2@@std@@QBEPBDXZ

; 93   : }

	mov	esp, ebp
	pop	ebp
	ret	4
?GetDescription@CvDllVictoryInfo@@UAGPBDXZ ENDP		; CvDllVictoryInfo::GetDescription
_TEXT	ENDS
END
