; Listing generated by Microsoft (R) Optimizing Compiler Version 15.00.30729.01 

	TITLE	D:\sources\Lekmod_git\checkout\LEKMOD_DLL\CvGameCoreDLL_Expansion2\CvDllWorldInfo.cpp
	.686P
	.XMM
	include listing.inc
	.model	flat

INCLUDELIB MSVCRT
INCLUDELIB OLDNAMES

PUBLIC	??_C@_05OCFELOIJ@1?40?40?$AA@			; `string'
CONST	SEGMENT
_guidICvUnknown DD 0d89ba82fH
	DW	09fa3H
	DW	04696H
	DB	0b3H
	DB	0f4H
	DB	052H
	DB	0bdH
	DB	0b1H
	DB	01H
	DB	0cfH
	DB	0b2H
_guidICvWorldInfo1 DD 053507549H
	DW	01614H
	DW	0428eH
	DB	089H
	DB	09fH
	DB	025H
	DB	0ffH
	DB	0acH
	DB	080H
	DB	039H
	DB	038H
CONST	ENDS
_DATA	SEGMENT
_CIV5_XP2_DLL_VERSION DD FLAT:??_C@_05OCFELOIJ@1?40?40?$AA@
_DATA	ENDS
;	COMDAT ??_C@_05OCFELOIJ@1?40?40?$AA@
CONST	SEGMENT
??_C@_05OCFELOIJ@1?40?40?$AA@ DB '1.0.0', 00H		; `string'
CONST	ENDS
PUBLIC	??_7CvDllWorldInfo@@6B@				; CvDllWorldInfo::`vftable'
PUBLIC	??_7ICvWorldInfo1@@6B@				; ICvWorldInfo1::`vftable'
PUBLIC	??_7ICvUnknown@@6B@				; ICvUnknown::`vftable'
PUBLIC	??0CvDllWorldInfo@@QAE@PAVCvWorldInfo@@@Z	; CvDllWorldInfo::CvDllWorldInfo
PUBLIC	?QueryInterface@CvDllWorldInfo@@UAGPAXU_GUID@@@Z ; CvDllWorldInfo::QueryInterface
PUBLIC	?Destroy@CvDllWorldInfo@@EAGXXZ			; CvDllWorldInfo::Destroy
PUBLIC	?GetType@CvDllWorldInfo@@UAGPBDXZ		; CvDllWorldInfo::GetType
PUBLIC	?GetDescriptionKey@CvDllWorldInfo@@UAGPBDXZ	; CvDllWorldInfo::GetDescriptionKey
PUBLIC	?GetDefaultPlayers@CvDllWorldInfo@@UAGHXZ	; CvDllWorldInfo::GetDefaultPlayers
PUBLIC	?GetDefaultMinorCivs@CvDllWorldInfo@@UAGHXZ	; CvDllWorldInfo::GetDefaultMinorCivs
EXTRN	__purecall:PROC
;	COMDAT ??_7CvDllWorldInfo@@6B@
; File d:\sources\lekmod_git\checkout\lekmod_dll\cvgamecoredll_expansion2\cvdllworldinfo.cpp
CONST	SEGMENT
??_7CvDllWorldInfo@@6B@ DD FLAT:?QueryInterface@CvDllWorldInfo@@UAGPAXU_GUID@@@Z ; CvDllWorldInfo::`vftable'
	DD	FLAT:?Destroy@CvDllWorldInfo@@EAGXXZ
	DD	FLAT:?GetType@CvDllWorldInfo@@UAGPBDXZ
	DD	FLAT:?GetDescriptionKey@CvDllWorldInfo@@UAGPBDXZ
	DD	FLAT:?GetDefaultPlayers@CvDllWorldInfo@@UAGHXZ
	DD	FLAT:?GetDefaultMinorCivs@CvDllWorldInfo@@UAGHXZ
CONST	ENDS
;	COMDAT ??_7ICvWorldInfo1@@6B@
CONST	SEGMENT
??_7ICvWorldInfo1@@6B@ DD FLAT:__purecall		; ICvWorldInfo1::`vftable'
	DD	FLAT:__purecall
	DD	FLAT:__purecall
	DD	FLAT:__purecall
	DD	FLAT:__purecall
	DD	FLAT:__purecall
CONST	ENDS
;	COMDAT ??_7ICvUnknown@@6B@
CONST	SEGMENT
??_7ICvUnknown@@6B@ DD FLAT:__purecall			; ICvUnknown::`vftable'
	DD	FLAT:__purecall
; Function compile flags: /Odtp
CONST	ENDS
;	COMDAT ??0CvDllWorldInfo@@QAE@PAVCvWorldInfo@@@Z
_TEXT	SEGMENT
_this$ = -4						; size = 4
_pWorldInfo$ = 8					; size = 4
??0CvDllWorldInfo@@QAE@PAVCvWorldInfo@@@Z PROC		; CvDllWorldInfo::CvDllWorldInfo, COMDAT
; _this$ = ecx

; 20   : {

	push	ebp
	mov	ebp, esp
	push	ecx
	mov	DWORD PTR _this$[ebp], ecx
	mov	eax, DWORD PTR _this$[ebp]
	mov	DWORD PTR [eax], OFFSET ??_7ICvUnknown@@6B@
	mov	ecx, DWORD PTR _this$[ebp]
	mov	DWORD PTR [ecx], OFFSET ??_7ICvWorldInfo1@@6B@
	mov	edx, DWORD PTR _this$[ebp]
	mov	DWORD PTR [edx], OFFSET ??_7CvDllWorldInfo@@6B@
	mov	eax, DWORD PTR _this$[ebp]
	mov	DWORD PTR [eax+4], 1
	mov	ecx, DWORD PTR _this$[ebp]
	mov	edx, DWORD PTR _pWorldInfo$[ebp]
	mov	DWORD PTR [ecx+8], edx

; 21   : 	FAssertMsg(pWorldInfo != NULL, "SHOULD NOT HAPPEN");
; 22   : }

	mov	eax, DWORD PTR _this$[ebp]
	mov	esp, ebp
	pop	ebp
	ret	4
??0CvDllWorldInfo@@QAE@PAVCvWorldInfo@@@Z ENDP		; CvDllWorldInfo::CvDllWorldInfo
_TEXT	ENDS
PUBLIC	??1CvDllWorldInfo@@QAE@XZ			; CvDllWorldInfo::~CvDllWorldInfo
; Function compile flags: /Odtp
;	COMDAT ??1CvDllWorldInfo@@QAE@XZ
_TEXT	SEGMENT
_this$ = -4						; size = 4
??1CvDllWorldInfo@@QAE@XZ PROC				; CvDllWorldInfo::~CvDllWorldInfo, COMDAT
; _this$ = ecx

; 25   : {

	push	ebp
	mov	ebp, esp
	push	ecx
	mov	DWORD PTR _this$[ebp], ecx
	mov	eax, DWORD PTR _this$[ebp]
	mov	DWORD PTR [eax], OFFSET ??_7CvDllWorldInfo@@6B@

; 26   : }

	mov	esp, ebp
	pop	ebp
	ret	0
??1CvDllWorldInfo@@QAE@XZ ENDP				; CvDllWorldInfo::~CvDllWorldInfo
_TEXT	ENDS
PUBLIC	?IncrementReference@CvDllWorldInfo@@QAEIXZ	; CvDllWorldInfo::IncrementReference
; Function compile flags: /Odtp
;	COMDAT ?QueryInterface@CvDllWorldInfo@@UAGPAXU_GUID@@@Z
_TEXT	SEGMENT
tv90 = -88						; size = 4
tv161 = -84						; size = 4
tv85 = -80						; size = 4
tv137 = -76						; size = 4
$T217972 = -72						; size = 16
$T217971 = -56						; size = 16
$T217970 = -40						; size = 16
$T217969 = -20						; size = 16
_this$ = 8						; size = 4
_guidInterface$ = 12					; size = 16
?QueryInterface@CvDllWorldInfo@@UAGPAXU_GUID@@@Z PROC	; CvDllWorldInfo::QueryInterface, COMDAT

; 29   : {

	push	ebp
	mov	ebp, esp
	sub	esp, 88					; 00000058H
	push	esi
	push	edi

; 30   : 	if(guidInterface == ICvUnknown::GetInterfaceId() ||
; 31   : 	        guidInterface == ICvWorldInfo1::GetInterfaceId())

	mov	eax, DWORD PTR _guidICvUnknown
	mov	DWORD PTR $T217970[ebp], eax
	mov	ecx, DWORD PTR _guidICvUnknown+4
	mov	DWORD PTR $T217970[ebp+4], ecx
	mov	edx, DWORD PTR _guidICvUnknown+8
	mov	DWORD PTR $T217970[ebp+8], edx
	mov	eax, DWORD PTR _guidICvUnknown+12
	mov	DWORD PTR $T217970[ebp+12], eax
	mov	ecx, DWORD PTR $T217970[ebp]
	mov	DWORD PTR $T217969[ebp], ecx
	mov	edx, DWORD PTR $T217970[ebp+4]
	mov	DWORD PTR $T217969[ebp+4], edx
	mov	eax, DWORD PTR $T217970[ebp+8]
	mov	DWORD PTR $T217969[ebp+8], eax
	mov	ecx, DWORD PTR $T217970[ebp+12]
	mov	DWORD PTR $T217969[ebp+12], ecx
	mov	ecx, 16					; 00000010H
	lea	edi, DWORD PTR $T217969[ebp]
	lea	esi, DWORD PTR _guidInterface$[ebp]
	xor	edx, edx
	mov	DWORD PTR tv137[ebp], edx
	repe cmpsb
	je	SHORT $LN17@QueryInter
	sbb	eax, eax
	sbb	eax, -1
	mov	DWORD PTR tv137[ebp], eax
$LN17@QueryInter:
	mov	ecx, DWORD PTR tv137[ebp]
	mov	DWORD PTR tv85[ebp], ecx
	xor	edx, edx
	cmp	DWORD PTR tv85[ebp], 0
	sete	dl
	test	edx, edx
	jne	SHORT $LN1@QueryInter
	mov	eax, DWORD PTR _guidICvWorldInfo1
	mov	DWORD PTR $T217972[ebp], eax
	mov	ecx, DWORD PTR _guidICvWorldInfo1+4
	mov	DWORD PTR $T217972[ebp+4], ecx
	mov	edx, DWORD PTR _guidICvWorldInfo1+8
	mov	DWORD PTR $T217972[ebp+8], edx
	mov	eax, DWORD PTR _guidICvWorldInfo1+12
	mov	DWORD PTR $T217972[ebp+12], eax
	mov	ecx, DWORD PTR $T217972[ebp]
	mov	DWORD PTR $T217971[ebp], ecx
	mov	edx, DWORD PTR $T217972[ebp+4]
	mov	DWORD PTR $T217971[ebp+4], edx
	mov	eax, DWORD PTR $T217972[ebp+8]
	mov	DWORD PTR $T217971[ebp+8], eax
	mov	ecx, DWORD PTR $T217972[ebp+12]
	mov	DWORD PTR $T217971[ebp+12], ecx
	mov	ecx, 16					; 00000010H
	lea	edi, DWORD PTR $T217971[ebp]
	lea	esi, DWORD PTR _guidInterface$[ebp]
	xor	edx, edx
	mov	DWORD PTR tv161[ebp], edx
	repe cmpsb
	je	SHORT $LN18@QueryInter
	sbb	eax, eax
	sbb	eax, -1
	mov	DWORD PTR tv161[ebp], eax
$LN18@QueryInter:
	mov	ecx, DWORD PTR tv161[ebp]
	mov	DWORD PTR tv90[ebp], ecx
	xor	edx, edx
	cmp	DWORD PTR tv90[ebp], 0
	sete	dl
	test	edx, edx
	je	SHORT $LN2@QueryInter
$LN1@QueryInter:

; 32   : 	{
; 33   : 		IncrementReference();

	mov	ecx, DWORD PTR _this$[ebp]
	call	?IncrementReference@CvDllWorldInfo@@QAEIXZ ; CvDllWorldInfo::IncrementReference

; 34   : 		return this;

	mov	eax, DWORD PTR _this$[ebp]
	jmp	SHORT $LN3@QueryInter
$LN2@QueryInter:

; 35   : 	}
; 36   : 
; 37   : 	return NULL;

	xor	eax, eax
$LN3@QueryInter:

; 38   : }

	pop	edi
	pop	esi
	mov	esp, ebp
	pop	ebp
	ret	20					; 00000014H
?QueryInterface@CvDllWorldInfo@@UAGPAXU_GUID@@@Z ENDP	; CvDllWorldInfo::QueryInterface
; Function compile flags: /Odtp
_TEXT	ENDS
;	COMDAT ?IncrementReference@CvDllWorldInfo@@QAEIXZ
_TEXT	SEGMENT
_this$ = -4						; size = 4
?IncrementReference@CvDllWorldInfo@@QAEIXZ PROC		; CvDllWorldInfo::IncrementReference, COMDAT
; _this$ = ecx

; 41   : {

	push	ebp
	mov	ebp, esp
	push	ecx
	mov	DWORD PTR _this$[ebp], ecx

; 42   : 	++m_uiRefCount;

	mov	eax, DWORD PTR _this$[ebp]
	mov	ecx, DWORD PTR [eax+4]
	add	ecx, 1
	mov	edx, DWORD PTR _this$[ebp]
	mov	DWORD PTR [edx+4], ecx

; 43   : 	return m_uiRefCount;

	mov	eax, DWORD PTR _this$[ebp]
	mov	eax, DWORD PTR [eax+4]

; 44   : }

	mov	esp, ebp
	pop	ebp
	ret	0
?IncrementReference@CvDllWorldInfo@@QAEIXZ ENDP		; CvDllWorldInfo::IncrementReference
_TEXT	ENDS
PUBLIC	??3CvDllWorldInfo@@SAXPAX@Z			; CvDllWorldInfo::operator delete
PUBLIC	?DecrementReference@CvDllWorldInfo@@QAEIXZ	; CvDllWorldInfo::DecrementReference
; Function compile flags: /Odtp
;	COMDAT ?DecrementReference@CvDllWorldInfo@@QAEIXZ
_TEXT	SEGMENT
tv70 = -16						; size = 4
_this$ = -12						; size = 4
$T218004 = -8						; size = 4
$T218003 = -4						; size = 4
?DecrementReference@CvDllWorldInfo@@QAEIXZ PROC		; CvDllWorldInfo::DecrementReference, COMDAT
; _this$ = ecx

; 47   : {

	push	ebp
	mov	ebp, esp
	sub	esp, 16					; 00000010H
	mov	DWORD PTR _this$[ebp], ecx

; 48   : 	if(m_uiRefCount == 1)

	mov	eax, DWORD PTR _this$[ebp]
	cmp	DWORD PTR [eax+4], 1
	jne	SHORT $LN2@DecrementR

; 49   : 	{
; 50   : 		delete this;

	mov	ecx, DWORD PTR _this$[ebp]
	mov	DWORD PTR $T218004[ebp], ecx
	mov	edx, DWORD PTR $T218004[ebp]
	mov	DWORD PTR $T218003[ebp], edx
	cmp	DWORD PTR $T218003[ebp], 0
	je	SHORT $LN5@DecrementR
	mov	ecx, DWORD PTR $T218003[ebp]
	call	??1CvDllWorldInfo@@QAE@XZ		; CvDllWorldInfo::~CvDllWorldInfo
	mov	eax, 1
	and	eax, 1
	je	SHORT $LN8@DecrementR
	mov	ecx, DWORD PTR $T218003[ebp]
	push	ecx
	call	??3CvDllWorldInfo@@SAXPAX@Z		; CvDllWorldInfo::operator delete
	add	esp, 4
$LN8@DecrementR:
	mov	edx, DWORD PTR $T218003[ebp]
	mov	DWORD PTR tv70[ebp], edx
	jmp	SHORT $LN6@DecrementR
$LN5@DecrementR:
	mov	DWORD PTR tv70[ebp], 0
$LN6@DecrementR:

; 51   : 		return 0;

	xor	eax, eax
	jmp	SHORT $LN3@DecrementR

; 52   : 	}
; 53   : 	else

	jmp	SHORT $LN3@DecrementR
$LN2@DecrementR:

; 54   : 	{
; 55   : 		--m_uiRefCount;

	mov	eax, DWORD PTR _this$[ebp]
	mov	ecx, DWORD PTR [eax+4]
	sub	ecx, 1
	mov	edx, DWORD PTR _this$[ebp]
	mov	DWORD PTR [edx+4], ecx

; 56   : 		return m_uiRefCount;

	mov	eax, DWORD PTR _this$[ebp]
	mov	eax, DWORD PTR [eax+4]
$LN3@DecrementR:

; 57   : 	}
; 58   : }

	mov	esp, ebp
	pop	ebp
	ret	0
?DecrementReference@CvDllWorldInfo@@QAEIXZ ENDP		; CvDllWorldInfo::DecrementReference
_TEXT	ENDS
PUBLIC	?GetReferenceCount@CvDllWorldInfo@@QAEIXZ	; CvDllWorldInfo::GetReferenceCount
; Function compile flags: /Odtp
;	COMDAT ?GetReferenceCount@CvDllWorldInfo@@QAEIXZ
_TEXT	SEGMENT
_this$ = -4						; size = 4
?GetReferenceCount@CvDllWorldInfo@@QAEIXZ PROC		; CvDllWorldInfo::GetReferenceCount, COMDAT
; _this$ = ecx

; 61   : {

	push	ebp
	mov	ebp, esp
	push	ecx
	mov	DWORD PTR _this$[ebp], ecx

; 62   : 	return m_uiRefCount;

	mov	eax, DWORD PTR _this$[ebp]
	mov	eax, DWORD PTR [eax+4]

; 63   : }

	mov	esp, ebp
	pop	ebp
	ret	0
?GetReferenceCount@CvDllWorldInfo@@QAEIXZ ENDP		; CvDllWorldInfo::GetReferenceCount
; Function compile flags: /Odtp
_TEXT	ENDS
;	COMDAT ?Destroy@CvDllWorldInfo@@EAGXXZ
_TEXT	SEGMENT
_this$ = 8						; size = 4
?Destroy@CvDllWorldInfo@@EAGXXZ PROC			; CvDllWorldInfo::Destroy, COMDAT

; 66   : {

	push	ebp
	mov	ebp, esp

; 67   : 	DecrementReference();

	mov	ecx, DWORD PTR _this$[ebp]
	call	?DecrementReference@CvDllWorldInfo@@QAEIXZ ; CvDllWorldInfo::DecrementReference

; 68   : }

	pop	ebp
	ret	4
?Destroy@CvDllWorldInfo@@EAGXXZ ENDP			; CvDllWorldInfo::Destroy
_TEXT	ENDS
EXTRN	?Free@CvDllGameContext@@SAXPAX@Z:PROC		; CvDllGameContext::Free
; Function compile flags: /Odtp
;	COMDAT ??3CvDllWorldInfo@@SAXPAX@Z
_TEXT	SEGMENT
_p$ = 8							; size = 4
??3CvDllWorldInfo@@SAXPAX@Z PROC			; CvDllWorldInfo::operator delete, COMDAT

; 71   : {

	push	ebp
	mov	ebp, esp

; 72   : 	CvDllGameContext::Free(p);

	mov	eax, DWORD PTR _p$[ebp]
	push	eax
	call	?Free@CvDllGameContext@@SAXPAX@Z	; CvDllGameContext::Free
	add	esp, 4

; 73   : }

	pop	ebp
	ret	0
??3CvDllWorldInfo@@SAXPAX@Z ENDP			; CvDllWorldInfo::operator delete
_TEXT	ENDS
PUBLIC	??2CvDllWorldInfo@@SAPAXI@Z			; CvDllWorldInfo::operator new
EXTRN	?Allocate@CvDllGameContext@@SAPAXI@Z:PROC	; CvDllGameContext::Allocate
; Function compile flags: /Odtp
;	COMDAT ??2CvDllWorldInfo@@SAPAXI@Z
_TEXT	SEGMENT
_bytes$ = 8						; size = 4
??2CvDllWorldInfo@@SAPAXI@Z PROC			; CvDllWorldInfo::operator new, COMDAT

; 76   : {

	push	ebp
	mov	ebp, esp

; 77   : 	return CvDllGameContext::Allocate(bytes);

	mov	eax, DWORD PTR _bytes$[ebp]
	push	eax
	call	?Allocate@CvDllGameContext@@SAPAXI@Z	; CvDllGameContext::Allocate
	add	esp, 4

; 78   : }

	pop	ebp
	ret	0
??2CvDllWorldInfo@@SAPAXI@Z ENDP			; CvDllWorldInfo::operator new
_TEXT	ENDS
PUBLIC	?GetInstance@CvDllWorldInfo@@QAEPAVCvWorldInfo@@XZ ; CvDllWorldInfo::GetInstance
; Function compile flags: /Odtp
;	COMDAT ?GetInstance@CvDllWorldInfo@@QAEPAVCvWorldInfo@@XZ
_TEXT	SEGMENT
_this$ = -4						; size = 4
?GetInstance@CvDllWorldInfo@@QAEPAVCvWorldInfo@@XZ PROC	; CvDllWorldInfo::GetInstance, COMDAT
; _this$ = ecx

; 81   : {

	push	ebp
	mov	ebp, esp
	push	ecx
	mov	DWORD PTR _this$[ebp], ecx

; 82   : 	return m_pWorldInfo;

	mov	eax, DWORD PTR _this$[ebp]
	mov	eax, DWORD PTR [eax+8]

; 83   : }

	mov	esp, ebp
	pop	ebp
	ret	0
?GetInstance@CvDllWorldInfo@@QAEPAVCvWorldInfo@@XZ ENDP	; CvDllWorldInfo::GetInstance
_TEXT	ENDS
EXTRN	__imp_?c_str@?$basic_string@DU?$char_traits@D@std@@V?$allocator@D@2@@std@@QBEPBDXZ:PROC
; Function compile flags: /Odtp
;	COMDAT ?GetType@CvDllWorldInfo@@UAGPBDXZ
_TEXT	SEGMENT
$T218026 = -4						; size = 4
_this$ = 8						; size = 4
?GetType@CvDllWorldInfo@@UAGPBDXZ PROC			; CvDllWorldInfo::GetType, COMDAT

; 86   : {

	push	ebp
	mov	ebp, esp
	push	ecx

; 87   : 	return m_pWorldInfo->GetType();

	mov	eax, DWORD PTR _this$[ebp]
	mov	ecx, DWORD PTR [eax+8]
	mov	DWORD PTR $T218026[ebp], ecx
	mov	ecx, DWORD PTR $T218026[ebp]
	add	ecx, 176				; 000000b0H
	call	DWORD PTR __imp_?c_str@?$basic_string@DU?$char_traits@D@std@@V?$allocator@D@2@@std@@QBEPBDXZ

; 88   : }

	mov	esp, ebp
	pop	ebp
	ret	4
?GetType@CvDllWorldInfo@@UAGPBDXZ ENDP			; CvDllWorldInfo::GetType
; Function compile flags: /Odtp
_TEXT	ENDS
;	COMDAT ?GetDescriptionKey@CvDllWorldInfo@@UAGPBDXZ
_TEXT	SEGMENT
$T218032 = -4						; size = 4
_this$ = 8						; size = 4
?GetDescriptionKey@CvDllWorldInfo@@UAGPBDXZ PROC	; CvDllWorldInfo::GetDescriptionKey, COMDAT

; 91   : {

	push	ebp
	mov	ebp, esp
	push	ecx

; 92   : 	return m_pWorldInfo->GetDescriptionKey();

	mov	eax, DWORD PTR _this$[ebp]
	mov	ecx, DWORD PTR [eax+8]
	mov	DWORD PTR $T218032[ebp], ecx
	mov	ecx, DWORD PTR $T218032[ebp]
	add	ecx, 64					; 00000040H
	call	DWORD PTR __imp_?c_str@?$basic_string@DU?$char_traits@D@std@@V?$allocator@D@2@@std@@QBEPBDXZ

; 93   : }

	mov	esp, ebp
	pop	ebp
	ret	4
?GetDescriptionKey@CvDllWorldInfo@@UAGPBDXZ ENDP	; CvDllWorldInfo::GetDescriptionKey
_TEXT	ENDS
EXTRN	?getDefaultPlayers@CvWorldInfo@@QBEHXZ:PROC	; CvWorldInfo::getDefaultPlayers
; Function compile flags: /Odtp
;	COMDAT ?GetDefaultPlayers@CvDllWorldInfo@@UAGHXZ
_TEXT	SEGMENT
_this$ = 8						; size = 4
?GetDefaultPlayers@CvDllWorldInfo@@UAGHXZ PROC		; CvDllWorldInfo::GetDefaultPlayers, COMDAT

; 96   : {

	push	ebp
	mov	ebp, esp

; 97   : 	return m_pWorldInfo->getDefaultPlayers();

	mov	eax, DWORD PTR _this$[ebp]
	mov	ecx, DWORD PTR [eax+8]
	call	?getDefaultPlayers@CvWorldInfo@@QBEHXZ	; CvWorldInfo::getDefaultPlayers

; 98   : }

	pop	ebp
	ret	4
?GetDefaultPlayers@CvDllWorldInfo@@UAGHXZ ENDP		; CvDllWorldInfo::GetDefaultPlayers
_TEXT	ENDS
EXTRN	?getDefaultMinorCivs@CvWorldInfo@@QBEHXZ:PROC	; CvWorldInfo::getDefaultMinorCivs
; Function compile flags: /Odtp
;	COMDAT ?GetDefaultMinorCivs@CvDllWorldInfo@@UAGHXZ
_TEXT	SEGMENT
_this$ = 8						; size = 4
?GetDefaultMinorCivs@CvDllWorldInfo@@UAGHXZ PROC	; CvDllWorldInfo::GetDefaultMinorCivs, COMDAT

; 101  : {

	push	ebp
	mov	ebp, esp

; 102  : 	return m_pWorldInfo->getDefaultMinorCivs();

	mov	eax, DWORD PTR _this$[ebp]
	mov	ecx, DWORD PTR [eax+8]
	call	?getDefaultMinorCivs@CvWorldInfo@@QBEHXZ ; CvWorldInfo::getDefaultMinorCivs

; 103  : }

	pop	ebp
	ret	4
?GetDefaultMinorCivs@CvDllWorldInfo@@UAGHXZ ENDP	; CvDllWorldInfo::GetDefaultMinorCivs
_TEXT	ENDS
END
