; Listing generated by Microsoft (R) Optimizing Compiler Version 15.00.30729.01 

	TITLE	D:\sources\Lekmod_git\checkout\LEKMOD_DLL\CvGameCoreDLL_Expansion2\CvDllHandicapInfo.cpp
	.686P
	.XMM
	include listing.inc
	.model	flat

INCLUDELIB MSVCRT
INCLUDELIB OLDNAMES

PUBLIC	??_C@_05OCFELOIJ@1?40?40?$AA@			; `string'
CONST	SEGMENT
_guidICvUnknown DD 0d89ba82fH
	DW	09fa3H
	DW	04696H
	DB	0b3H
	DB	0f4H
	DB	052H
	DB	0bdH
	DB	0b1H
	DB	01H
	DB	0cfH
	DB	0b2H
_guidICvHandicapInfo1 DD 07597d310H
	DW	0517H
	DW	04e27H
	DB	080H
	DB	0b3H
	DB	0ceH
	DB	0a8H
	DB	062H
	DB	038H
	DB	05aH
	DB	0c1H
CONST	ENDS
_DATA	SEGMENT
_CIV5_XP2_DLL_VERSION DD FLAT:??_C@_05OCFELOIJ@1?40?40?$AA@
_DATA	ENDS
;	COMDAT ??_C@_05OCFELOIJ@1?40?40?$AA@
CONST	SEGMENT
??_C@_05OCFELOIJ@1?40?40?$AA@ DB '1.0.0', 00H		; `string'
CONST	ENDS
PUBLIC	??_7CvDllHandicapInfo@@6B@			; CvDllHandicapInfo::`vftable'
PUBLIC	??_7ICvHandicapInfo1@@6B@			; ICvHandicapInfo1::`vftable'
PUBLIC	??_7ICvUnknown@@6B@				; ICvUnknown::`vftable'
PUBLIC	??0CvDllHandicapInfo@@QAE@PAVCvHandicapInfo@@@Z	; CvDllHandicapInfo::CvDllHandicapInfo
PUBLIC	?QueryInterface@CvDllHandicapInfo@@UAGPAXU_GUID@@@Z ; CvDllHandicapInfo::QueryInterface
PUBLIC	?Destroy@CvDllHandicapInfo@@EAGXXZ		; CvDllHandicapInfo::Destroy
PUBLIC	?GetType@CvDllHandicapInfo@@UAGPBDXZ		; CvDllHandicapInfo::GetType
PUBLIC	?GetDescription@CvDllHandicapInfo@@UAGPBDXZ	; CvDllHandicapInfo::GetDescription
PUBLIC	?GetBarbSpawnMod@CvDllHandicapInfo@@UAGHXZ	; CvDllHandicapInfo::GetBarbSpawnMod
EXTRN	__purecall:PROC
;	COMDAT ??_7CvDllHandicapInfo@@6B@
; File d:\sources\lekmod_git\checkout\lekmod_dll\cvgamecoredll_expansion2\cvdllhandicapinfo.cpp
CONST	SEGMENT
??_7CvDllHandicapInfo@@6B@ DD FLAT:?QueryInterface@CvDllHandicapInfo@@UAGPAXU_GUID@@@Z ; CvDllHandicapInfo::`vftable'
	DD	FLAT:?Destroy@CvDllHandicapInfo@@EAGXXZ
	DD	FLAT:?GetType@CvDllHandicapInfo@@UAGPBDXZ
	DD	FLAT:?GetDescription@CvDllHandicapInfo@@UAGPBDXZ
	DD	FLAT:?GetBarbSpawnMod@CvDllHandicapInfo@@UAGHXZ
CONST	ENDS
;	COMDAT ??_7ICvHandicapInfo1@@6B@
CONST	SEGMENT
??_7ICvHandicapInfo1@@6B@ DD FLAT:__purecall		; ICvHandicapInfo1::`vftable'
	DD	FLAT:__purecall
	DD	FLAT:__purecall
	DD	FLAT:__purecall
	DD	FLAT:__purecall
CONST	ENDS
;	COMDAT ??_7ICvUnknown@@6B@
CONST	SEGMENT
??_7ICvUnknown@@6B@ DD FLAT:__purecall			; ICvUnknown::`vftable'
	DD	FLAT:__purecall
; Function compile flags: /Odtp
CONST	ENDS
;	COMDAT ??0CvDllHandicapInfo@@QAE@PAVCvHandicapInfo@@@Z
_TEXT	SEGMENT
_this$ = -4						; size = 4
_pHandicapInfo$ = 8					; size = 4
??0CvDllHandicapInfo@@QAE@PAVCvHandicapInfo@@@Z PROC	; CvDllHandicapInfo::CvDllHandicapInfo, COMDAT
; _this$ = ecx

; 19   : {

	push	ebp
	mov	ebp, esp
	push	ecx
	mov	DWORD PTR _this$[ebp], ecx
	mov	eax, DWORD PTR _this$[ebp]
	mov	DWORD PTR [eax], OFFSET ??_7ICvUnknown@@6B@
	mov	ecx, DWORD PTR _this$[ebp]
	mov	DWORD PTR [ecx], OFFSET ??_7ICvHandicapInfo1@@6B@
	mov	edx, DWORD PTR _this$[ebp]
	mov	DWORD PTR [edx], OFFSET ??_7CvDllHandicapInfo@@6B@
	mov	eax, DWORD PTR _this$[ebp]
	mov	DWORD PTR [eax+4], 1
	mov	ecx, DWORD PTR _this$[ebp]
	mov	edx, DWORD PTR _pHandicapInfo$[ebp]
	mov	DWORD PTR [ecx+8], edx

; 20   : 	FAssertMsg(pHandicapInfo != NULL, "SHOULD NOT HAPPEN");
; 21   : }

	mov	eax, DWORD PTR _this$[ebp]
	mov	esp, ebp
	pop	ebp
	ret	4
??0CvDllHandicapInfo@@QAE@PAVCvHandicapInfo@@@Z ENDP	; CvDllHandicapInfo::CvDllHandicapInfo
_TEXT	ENDS
PUBLIC	??1CvDllHandicapInfo@@QAE@XZ			; CvDllHandicapInfo::~CvDllHandicapInfo
; Function compile flags: /Odtp
;	COMDAT ??1CvDllHandicapInfo@@QAE@XZ
_TEXT	SEGMENT
_this$ = -4						; size = 4
??1CvDllHandicapInfo@@QAE@XZ PROC			; CvDllHandicapInfo::~CvDllHandicapInfo, COMDAT
; _this$ = ecx

; 24   : {

	push	ebp
	mov	ebp, esp
	push	ecx
	mov	DWORD PTR _this$[ebp], ecx
	mov	eax, DWORD PTR _this$[ebp]
	mov	DWORD PTR [eax], OFFSET ??_7CvDllHandicapInfo@@6B@

; 25   : }

	mov	esp, ebp
	pop	ebp
	ret	0
??1CvDllHandicapInfo@@QAE@XZ ENDP			; CvDllHandicapInfo::~CvDllHandicapInfo
_TEXT	ENDS
PUBLIC	?IncrementReference@CvDllHandicapInfo@@QAEIXZ	; CvDllHandicapInfo::IncrementReference
; Function compile flags: /Odtp
;	COMDAT ?QueryInterface@CvDllHandicapInfo@@UAGPAXU_GUID@@@Z
_TEXT	SEGMENT
tv90 = -88						; size = 4
tv161 = -84						; size = 4
tv85 = -80						; size = 4
tv137 = -76						; size = 4
$T217967 = -72						; size = 16
$T217966 = -56						; size = 16
$T217965 = -40						; size = 16
$T217964 = -20						; size = 16
_this$ = 8						; size = 4
_guidInterface$ = 12					; size = 16
?QueryInterface@CvDllHandicapInfo@@UAGPAXU_GUID@@@Z PROC ; CvDllHandicapInfo::QueryInterface, COMDAT

; 28   : {

	push	ebp
	mov	ebp, esp
	sub	esp, 88					; 00000058H
	push	esi
	push	edi

; 29   : 	if(guidInterface == ICvUnknown::GetInterfaceId() ||
; 30   : 	        guidInterface == ICvHandicapInfo1::GetInterfaceId())

	mov	eax, DWORD PTR _guidICvUnknown
	mov	DWORD PTR $T217965[ebp], eax
	mov	ecx, DWORD PTR _guidICvUnknown+4
	mov	DWORD PTR $T217965[ebp+4], ecx
	mov	edx, DWORD PTR _guidICvUnknown+8
	mov	DWORD PTR $T217965[ebp+8], edx
	mov	eax, DWORD PTR _guidICvUnknown+12
	mov	DWORD PTR $T217965[ebp+12], eax
	mov	ecx, DWORD PTR $T217965[ebp]
	mov	DWORD PTR $T217964[ebp], ecx
	mov	edx, DWORD PTR $T217965[ebp+4]
	mov	DWORD PTR $T217964[ebp+4], edx
	mov	eax, DWORD PTR $T217965[ebp+8]
	mov	DWORD PTR $T217964[ebp+8], eax
	mov	ecx, DWORD PTR $T217965[ebp+12]
	mov	DWORD PTR $T217964[ebp+12], ecx
	mov	ecx, 16					; 00000010H
	lea	edi, DWORD PTR $T217964[ebp]
	lea	esi, DWORD PTR _guidInterface$[ebp]
	xor	edx, edx
	mov	DWORD PTR tv137[ebp], edx
	repe cmpsb
	je	SHORT $LN17@QueryInter
	sbb	eax, eax
	sbb	eax, -1
	mov	DWORD PTR tv137[ebp], eax
$LN17@QueryInter:
	mov	ecx, DWORD PTR tv137[ebp]
	mov	DWORD PTR tv85[ebp], ecx
	xor	edx, edx
	cmp	DWORD PTR tv85[ebp], 0
	sete	dl
	test	edx, edx
	jne	SHORT $LN1@QueryInter
	mov	eax, DWORD PTR _guidICvHandicapInfo1
	mov	DWORD PTR $T217967[ebp], eax
	mov	ecx, DWORD PTR _guidICvHandicapInfo1+4
	mov	DWORD PTR $T217967[ebp+4], ecx
	mov	edx, DWORD PTR _guidICvHandicapInfo1+8
	mov	DWORD PTR $T217967[ebp+8], edx
	mov	eax, DWORD PTR _guidICvHandicapInfo1+12
	mov	DWORD PTR $T217967[ebp+12], eax
	mov	ecx, DWORD PTR $T217967[ebp]
	mov	DWORD PTR $T217966[ebp], ecx
	mov	edx, DWORD PTR $T217967[ebp+4]
	mov	DWORD PTR $T217966[ebp+4], edx
	mov	eax, DWORD PTR $T217967[ebp+8]
	mov	DWORD PTR $T217966[ebp+8], eax
	mov	ecx, DWORD PTR $T217967[ebp+12]
	mov	DWORD PTR $T217966[ebp+12], ecx
	mov	ecx, 16					; 00000010H
	lea	edi, DWORD PTR $T217966[ebp]
	lea	esi, DWORD PTR _guidInterface$[ebp]
	xor	edx, edx
	mov	DWORD PTR tv161[ebp], edx
	repe cmpsb
	je	SHORT $LN18@QueryInter
	sbb	eax, eax
	sbb	eax, -1
	mov	DWORD PTR tv161[ebp], eax
$LN18@QueryInter:
	mov	ecx, DWORD PTR tv161[ebp]
	mov	DWORD PTR tv90[ebp], ecx
	xor	edx, edx
	cmp	DWORD PTR tv90[ebp], 0
	sete	dl
	test	edx, edx
	je	SHORT $LN2@QueryInter
$LN1@QueryInter:

; 31   : 	{
; 32   : 		IncrementReference();

	mov	ecx, DWORD PTR _this$[ebp]
	call	?IncrementReference@CvDllHandicapInfo@@QAEIXZ ; CvDllHandicapInfo::IncrementReference

; 33   : 		return this;

	mov	eax, DWORD PTR _this$[ebp]
	jmp	SHORT $LN3@QueryInter
$LN2@QueryInter:

; 34   : 	}
; 35   : 
; 36   : 	return NULL;

	xor	eax, eax
$LN3@QueryInter:

; 37   : }

	pop	edi
	pop	esi
	mov	esp, ebp
	pop	ebp
	ret	20					; 00000014H
?QueryInterface@CvDllHandicapInfo@@UAGPAXU_GUID@@@Z ENDP ; CvDllHandicapInfo::QueryInterface
; Function compile flags: /Odtp
_TEXT	ENDS
;	COMDAT ?IncrementReference@CvDllHandicapInfo@@QAEIXZ
_TEXT	SEGMENT
_this$ = -4						; size = 4
?IncrementReference@CvDllHandicapInfo@@QAEIXZ PROC	; CvDllHandicapInfo::IncrementReference, COMDAT
; _this$ = ecx

; 40   : {

	push	ebp
	mov	ebp, esp
	push	ecx
	mov	DWORD PTR _this$[ebp], ecx

; 41   : 	++m_uiRefCount;

	mov	eax, DWORD PTR _this$[ebp]
	mov	ecx, DWORD PTR [eax+4]
	add	ecx, 1
	mov	edx, DWORD PTR _this$[ebp]
	mov	DWORD PTR [edx+4], ecx

; 42   : 	return m_uiRefCount;

	mov	eax, DWORD PTR _this$[ebp]
	mov	eax, DWORD PTR [eax+4]

; 43   : }

	mov	esp, ebp
	pop	ebp
	ret	0
?IncrementReference@CvDllHandicapInfo@@QAEIXZ ENDP	; CvDllHandicapInfo::IncrementReference
_TEXT	ENDS
PUBLIC	??3CvDllHandicapInfo@@SAXPAX@Z			; CvDllHandicapInfo::operator delete
PUBLIC	?DecrementReference@CvDllHandicapInfo@@QAEIXZ	; CvDllHandicapInfo::DecrementReference
; Function compile flags: /Odtp
;	COMDAT ?DecrementReference@CvDllHandicapInfo@@QAEIXZ
_TEXT	SEGMENT
tv70 = -16						; size = 4
_this$ = -12						; size = 4
$T217999 = -8						; size = 4
$T217998 = -4						; size = 4
?DecrementReference@CvDllHandicapInfo@@QAEIXZ PROC	; CvDllHandicapInfo::DecrementReference, COMDAT
; _this$ = ecx

; 46   : {

	push	ebp
	mov	ebp, esp
	sub	esp, 16					; 00000010H
	mov	DWORD PTR _this$[ebp], ecx

; 47   : 	if(m_uiRefCount == 1)

	mov	eax, DWORD PTR _this$[ebp]
	cmp	DWORD PTR [eax+4], 1
	jne	SHORT $LN2@DecrementR

; 48   : 	{
; 49   : 		delete this;

	mov	ecx, DWORD PTR _this$[ebp]
	mov	DWORD PTR $T217999[ebp], ecx
	mov	edx, DWORD PTR $T217999[ebp]
	mov	DWORD PTR $T217998[ebp], edx
	cmp	DWORD PTR $T217998[ebp], 0
	je	SHORT $LN5@DecrementR
	mov	ecx, DWORD PTR $T217998[ebp]
	call	??1CvDllHandicapInfo@@QAE@XZ		; CvDllHandicapInfo::~CvDllHandicapInfo
	mov	eax, 1
	and	eax, 1
	je	SHORT $LN8@DecrementR
	mov	ecx, DWORD PTR $T217998[ebp]
	push	ecx
	call	??3CvDllHandicapInfo@@SAXPAX@Z		; CvDllHandicapInfo::operator delete
	add	esp, 4
$LN8@DecrementR:
	mov	edx, DWORD PTR $T217998[ebp]
	mov	DWORD PTR tv70[ebp], edx
	jmp	SHORT $LN6@DecrementR
$LN5@DecrementR:
	mov	DWORD PTR tv70[ebp], 0
$LN6@DecrementR:

; 50   : 		return 0;

	xor	eax, eax
	jmp	SHORT $LN3@DecrementR

; 51   : 	}
; 52   : 	else

	jmp	SHORT $LN3@DecrementR
$LN2@DecrementR:

; 53   : 	{
; 54   : 		--m_uiRefCount;

	mov	eax, DWORD PTR _this$[ebp]
	mov	ecx, DWORD PTR [eax+4]
	sub	ecx, 1
	mov	edx, DWORD PTR _this$[ebp]
	mov	DWORD PTR [edx+4], ecx

; 55   : 		return m_uiRefCount;

	mov	eax, DWORD PTR _this$[ebp]
	mov	eax, DWORD PTR [eax+4]
$LN3@DecrementR:

; 56   : 	}
; 57   : }

	mov	esp, ebp
	pop	ebp
	ret	0
?DecrementReference@CvDllHandicapInfo@@QAEIXZ ENDP	; CvDllHandicapInfo::DecrementReference
_TEXT	ENDS
PUBLIC	?GetReferenceCount@CvDllHandicapInfo@@QAEIXZ	; CvDllHandicapInfo::GetReferenceCount
; Function compile flags: /Odtp
;	COMDAT ?GetReferenceCount@CvDllHandicapInfo@@QAEIXZ
_TEXT	SEGMENT
_this$ = -4						; size = 4
?GetReferenceCount@CvDllHandicapInfo@@QAEIXZ PROC	; CvDllHandicapInfo::GetReferenceCount, COMDAT
; _this$ = ecx

; 60   : {

	push	ebp
	mov	ebp, esp
	push	ecx
	mov	DWORD PTR _this$[ebp], ecx

; 61   : 	return m_uiRefCount;

	mov	eax, DWORD PTR _this$[ebp]
	mov	eax, DWORD PTR [eax+4]

; 62   : }

	mov	esp, ebp
	pop	ebp
	ret	0
?GetReferenceCount@CvDllHandicapInfo@@QAEIXZ ENDP	; CvDllHandicapInfo::GetReferenceCount
; Function compile flags: /Odtp
_TEXT	ENDS
;	COMDAT ?Destroy@CvDllHandicapInfo@@EAGXXZ
_TEXT	SEGMENT
_this$ = 8						; size = 4
?Destroy@CvDllHandicapInfo@@EAGXXZ PROC			; CvDllHandicapInfo::Destroy, COMDAT

; 65   : {

	push	ebp
	mov	ebp, esp

; 66   : 	DecrementReference();

	mov	ecx, DWORD PTR _this$[ebp]
	call	?DecrementReference@CvDllHandicapInfo@@QAEIXZ ; CvDllHandicapInfo::DecrementReference

; 67   : }

	pop	ebp
	ret	4
?Destroy@CvDllHandicapInfo@@EAGXXZ ENDP			; CvDllHandicapInfo::Destroy
_TEXT	ENDS
EXTRN	?Free@CvDllGameContext@@SAXPAX@Z:PROC		; CvDllGameContext::Free
; Function compile flags: /Odtp
;	COMDAT ??3CvDllHandicapInfo@@SAXPAX@Z
_TEXT	SEGMENT
_p$ = 8							; size = 4
??3CvDllHandicapInfo@@SAXPAX@Z PROC			; CvDllHandicapInfo::operator delete, COMDAT

; 70   : {

	push	ebp
	mov	ebp, esp

; 71   : 	CvDllGameContext::Free(p);

	mov	eax, DWORD PTR _p$[ebp]
	push	eax
	call	?Free@CvDllGameContext@@SAXPAX@Z	; CvDllGameContext::Free
	add	esp, 4

; 72   : }

	pop	ebp
	ret	0
??3CvDllHandicapInfo@@SAXPAX@Z ENDP			; CvDllHandicapInfo::operator delete
_TEXT	ENDS
PUBLIC	??2CvDllHandicapInfo@@SAPAXI@Z			; CvDllHandicapInfo::operator new
EXTRN	?Allocate@CvDllGameContext@@SAPAXI@Z:PROC	; CvDllGameContext::Allocate
; Function compile flags: /Odtp
;	COMDAT ??2CvDllHandicapInfo@@SAPAXI@Z
_TEXT	SEGMENT
_bytes$ = 8						; size = 4
??2CvDllHandicapInfo@@SAPAXI@Z PROC			; CvDllHandicapInfo::operator new, COMDAT

; 75   : {

	push	ebp
	mov	ebp, esp

; 76   : 	return CvDllGameContext::Allocate(bytes);

	mov	eax, DWORD PTR _bytes$[ebp]
	push	eax
	call	?Allocate@CvDllGameContext@@SAPAXI@Z	; CvDllGameContext::Allocate
	add	esp, 4

; 77   : }

	pop	ebp
	ret	0
??2CvDllHandicapInfo@@SAPAXI@Z ENDP			; CvDllHandicapInfo::operator new
_TEXT	ENDS
PUBLIC	?GetInstance@CvDllHandicapInfo@@QAEPAVCvHandicapInfo@@XZ ; CvDllHandicapInfo::GetInstance
; Function compile flags: /Odtp
;	COMDAT ?GetInstance@CvDllHandicapInfo@@QAEPAVCvHandicapInfo@@XZ
_TEXT	SEGMENT
_this$ = -4						; size = 4
?GetInstance@CvDllHandicapInfo@@QAEPAVCvHandicapInfo@@XZ PROC ; CvDllHandicapInfo::GetInstance, COMDAT
; _this$ = ecx

; 80   : {

	push	ebp
	mov	ebp, esp
	push	ecx
	mov	DWORD PTR _this$[ebp], ecx

; 81   : 	return m_pHandicapInfo;

	mov	eax, DWORD PTR _this$[ebp]
	mov	eax, DWORD PTR [eax+8]

; 82   : }

	mov	esp, ebp
	pop	ebp
	ret	0
?GetInstance@CvDllHandicapInfo@@QAEPAVCvHandicapInfo@@XZ ENDP ; CvDllHandicapInfo::GetInstance
_TEXT	ENDS
EXTRN	__imp_?c_str@?$basic_string@DU?$char_traits@D@std@@V?$allocator@D@2@@std@@QBEPBDXZ:PROC
; Function compile flags: /Odtp
;	COMDAT ?GetType@CvDllHandicapInfo@@UAGPBDXZ
_TEXT	SEGMENT
$T218021 = -4						; size = 4
_this$ = 8						; size = 4
?GetType@CvDllHandicapInfo@@UAGPBDXZ PROC		; CvDllHandicapInfo::GetType, COMDAT

; 85   : {

	push	ebp
	mov	ebp, esp
	push	ecx

; 86   : 	return m_pHandicapInfo->GetType();

	mov	eax, DWORD PTR _this$[ebp]
	mov	ecx, DWORD PTR [eax+8]
	mov	DWORD PTR $T218021[ebp], ecx
	mov	ecx, DWORD PTR $T218021[ebp]
	add	ecx, 176				; 000000b0H
	call	DWORD PTR __imp_?c_str@?$basic_string@DU?$char_traits@D@std@@V?$allocator@D@2@@std@@QBEPBDXZ

; 87   : }

	mov	esp, ebp
	pop	ebp
	ret	4
?GetType@CvDllHandicapInfo@@UAGPBDXZ ENDP		; CvDllHandicapInfo::GetType
; Function compile flags: /Odtp
_TEXT	ENDS
;	COMDAT ?GetDescription@CvDllHandicapInfo@@UAGPBDXZ
_TEXT	SEGMENT
$T218027 = -4						; size = 4
_this$ = 8						; size = 4
?GetDescription@CvDllHandicapInfo@@UAGPBDXZ PROC	; CvDllHandicapInfo::GetDescription, COMDAT

; 90   : {

	push	ebp
	mov	ebp, esp
	push	ecx

; 91   : 	return m_pHandicapInfo->GetDescription();

	mov	eax, DWORD PTR _this$[ebp]
	mov	ecx, DWORD PTR [eax+8]
	mov	DWORD PTR $T218027[ebp], ecx
	mov	ecx, DWORD PTR $T218027[ebp]
	add	ecx, 36					; 00000024H
	call	DWORD PTR __imp_?c_str@?$basic_string@DU?$char_traits@D@std@@V?$allocator@D@2@@std@@QBEPBDXZ

; 92   : }

	mov	esp, ebp
	pop	ebp
	ret	4
?GetDescription@CvDllHandicapInfo@@UAGPBDXZ ENDP	; CvDllHandicapInfo::GetDescription
_TEXT	ENDS
EXTRN	?getBarbSpawnMod@CvHandicapInfo@@QBEHXZ:PROC	; CvHandicapInfo::getBarbSpawnMod
; Function compile flags: /Odtp
;	COMDAT ?GetBarbSpawnMod@CvDllHandicapInfo@@UAGHXZ
_TEXT	SEGMENT
_this$ = 8						; size = 4
?GetBarbSpawnMod@CvDllHandicapInfo@@UAGHXZ PROC		; CvDllHandicapInfo::GetBarbSpawnMod, COMDAT

; 95   : {

	push	ebp
	mov	ebp, esp

; 96   : 	return m_pHandicapInfo->getBarbSpawnMod();

	mov	eax, DWORD PTR _this$[ebp]
	mov	ecx, DWORD PTR [eax+8]
	call	?getBarbSpawnMod@CvHandicapInfo@@QBEHXZ	; CvHandicapInfo::getBarbSpawnMod

; 97   : }

	pop	ebp
	ret	4
?GetBarbSpawnMod@CvDllHandicapInfo@@UAGHXZ ENDP		; CvDllHandicapInfo::GetBarbSpawnMod
_TEXT	ENDS
END
