; Listing generated by Microsoft (R) Optimizing Compiler Version 15.00.30729.01 

	TITLE	D:\sources\Lekmod_git\checkout\LEKMOD_DLL\CvGameCoreDLL_Expansion2\CvDllLeaderheadInfo.cpp
	.686P
	.XMM
	include listing.inc
	.model	flat

INCLUDELIB MSVCRT
INCLUDELIB OLDNAMES

PUBLIC	??_C@_05OCFELOIJ@1?40?40?$AA@			; `string'
CONST	SEGMENT
_guidICvUnknown DD 0d89ba82fH
	DW	09fa3H
	DW	04696H
	DB	0b3H
	DB	0f4H
	DB	052H
	DB	0bdH
	DB	0b1H
	DB	01H
	DB	0cfH
	DB	0b2H
_guidICvLeaderHeadInfo1 DD 0e264a94H
	DW	08802H
	DW	04062H
	DB	0a0H
	DB	0adH
	DB	03H
	DB	064H
	DB	0d9H
	DB	0ddH
	DB	029H
	DB	0a3H
CONST	ENDS
_DATA	SEGMENT
_CIV5_XP2_DLL_VERSION DD FLAT:??_C@_05OCFELOIJ@1?40?40?$AA@
_DATA	ENDS
;	COMDAT ??_C@_05OCFELOIJ@1?40?40?$AA@
CONST	SEGMENT
??_C@_05OCFELOIJ@1?40?40?$AA@ DB '1.0.0', 00H		; `string'
CONST	ENDS
PUBLIC	??_7CvDllLeaderHeadInfo@@6B@			; CvDllLeaderHeadInfo::`vftable'
PUBLIC	??_7ICvLeaderHeadInfo1@@6B@			; ICvLeaderHeadInfo1::`vftable'
PUBLIC	??_7ICvUnknown@@6B@				; ICvUnknown::`vftable'
PUBLIC	??0CvDllLeaderHeadInfo@@QAE@PAVCvLeaderHeadInfo@@@Z ; CvDllLeaderHeadInfo::CvDllLeaderHeadInfo
PUBLIC	?QueryInterface@CvDllLeaderHeadInfo@@UAGPAXU_GUID@@@Z ; CvDllLeaderHeadInfo::QueryInterface
PUBLIC	?Destroy@CvDllLeaderHeadInfo@@EAGXXZ		; CvDllLeaderHeadInfo::Destroy
PUBLIC	?GetDescription@CvDllLeaderHeadInfo@@UAGPBDXZ	; CvDllLeaderHeadInfo::GetDescription
PUBLIC	?GetArtDefineTag@CvDllLeaderHeadInfo@@UAGPBDXZ	; CvDllLeaderHeadInfo::GetArtDefineTag
EXTRN	__purecall:PROC
;	COMDAT ??_7CvDllLeaderHeadInfo@@6B@
; File d:\sources\lekmod_git\checkout\lekmod_dll\cvgamecoredll_expansion2\cvdllleaderheadinfo.cpp
CONST	SEGMENT
??_7CvDllLeaderHeadInfo@@6B@ DD FLAT:?QueryInterface@CvDllLeaderHeadInfo@@UAGPAXU_GUID@@@Z ; CvDllLeaderHeadInfo::`vftable'
	DD	FLAT:?Destroy@CvDllLeaderHeadInfo@@EAGXXZ
	DD	FLAT:?GetDescription@CvDllLeaderHeadInfo@@UAGPBDXZ
	DD	FLAT:?GetArtDefineTag@CvDllLeaderHeadInfo@@UAGPBDXZ
CONST	ENDS
;	COMDAT ??_7ICvLeaderHeadInfo1@@6B@
CONST	SEGMENT
??_7ICvLeaderHeadInfo1@@6B@ DD FLAT:__purecall		; ICvLeaderHeadInfo1::`vftable'
	DD	FLAT:__purecall
	DD	FLAT:__purecall
	DD	FLAT:__purecall
CONST	ENDS
;	COMDAT ??_7ICvUnknown@@6B@
CONST	SEGMENT
??_7ICvUnknown@@6B@ DD FLAT:__purecall			; ICvUnknown::`vftable'
	DD	FLAT:__purecall
; Function compile flags: /Odtp
CONST	ENDS
;	COMDAT ??0CvDllLeaderHeadInfo@@QAE@PAVCvLeaderHeadInfo@@@Z
_TEXT	SEGMENT
_this$ = -4						; size = 4
_pLeaderHeadInfo$ = 8					; size = 4
??0CvDllLeaderHeadInfo@@QAE@PAVCvLeaderHeadInfo@@@Z PROC ; CvDllLeaderHeadInfo::CvDllLeaderHeadInfo, COMDAT
; _this$ = ecx

; 19   : {

	push	ebp
	mov	ebp, esp
	push	ecx
	mov	DWORD PTR _this$[ebp], ecx
	mov	eax, DWORD PTR _this$[ebp]
	mov	DWORD PTR [eax], OFFSET ??_7ICvUnknown@@6B@
	mov	ecx, DWORD PTR _this$[ebp]
	mov	DWORD PTR [ecx], OFFSET ??_7ICvLeaderHeadInfo1@@6B@
	mov	edx, DWORD PTR _this$[ebp]
	mov	DWORD PTR [edx], OFFSET ??_7CvDllLeaderHeadInfo@@6B@
	mov	eax, DWORD PTR _this$[ebp]
	mov	DWORD PTR [eax+4], 1
	mov	ecx, DWORD PTR _this$[ebp]
	mov	edx, DWORD PTR _pLeaderHeadInfo$[ebp]
	mov	DWORD PTR [ecx+8], edx

; 20   : 	FAssertMsg(pLeaderHeadInfo != NULL, "SHOULD NOT HAPPEN");
; 21   : }

	mov	eax, DWORD PTR _this$[ebp]
	mov	esp, ebp
	pop	ebp
	ret	4
??0CvDllLeaderHeadInfo@@QAE@PAVCvLeaderHeadInfo@@@Z ENDP ; CvDllLeaderHeadInfo::CvDllLeaderHeadInfo
_TEXT	ENDS
PUBLIC	??1CvDllLeaderHeadInfo@@QAE@XZ			; CvDllLeaderHeadInfo::~CvDllLeaderHeadInfo
; Function compile flags: /Odtp
;	COMDAT ??1CvDllLeaderHeadInfo@@QAE@XZ
_TEXT	SEGMENT
_this$ = -4						; size = 4
??1CvDllLeaderHeadInfo@@QAE@XZ PROC			; CvDllLeaderHeadInfo::~CvDllLeaderHeadInfo, COMDAT
; _this$ = ecx

; 24   : {

	push	ebp
	mov	ebp, esp
	push	ecx
	mov	DWORD PTR _this$[ebp], ecx
	mov	eax, DWORD PTR _this$[ebp]
	mov	DWORD PTR [eax], OFFSET ??_7CvDllLeaderHeadInfo@@6B@

; 25   : }

	mov	esp, ebp
	pop	ebp
	ret	0
??1CvDllLeaderHeadInfo@@QAE@XZ ENDP			; CvDllLeaderHeadInfo::~CvDllLeaderHeadInfo
_TEXT	ENDS
PUBLIC	?IncrementReference@CvDllLeaderHeadInfo@@QAEIXZ	; CvDllLeaderHeadInfo::IncrementReference
; Function compile flags: /Odtp
;	COMDAT ?QueryInterface@CvDllLeaderHeadInfo@@UAGPAXU_GUID@@@Z
_TEXT	SEGMENT
tv90 = -88						; size = 4
tv161 = -84						; size = 4
tv85 = -80						; size = 4
tv137 = -76						; size = 4
$T217961 = -72						; size = 16
$T217960 = -56						; size = 16
$T217959 = -40						; size = 16
$T217958 = -20						; size = 16
_this$ = 8						; size = 4
_guidInterface$ = 12					; size = 16
?QueryInterface@CvDllLeaderHeadInfo@@UAGPAXU_GUID@@@Z PROC ; CvDllLeaderHeadInfo::QueryInterface, COMDAT

; 28   : {

	push	ebp
	mov	ebp, esp
	sub	esp, 88					; 00000058H
	push	esi
	push	edi

; 29   : 	if(guidInterface == ICvUnknown::GetInterfaceId() ||
; 30   : 	        guidInterface == ICvLeaderHeadInfo1::GetInterfaceId())

	mov	eax, DWORD PTR _guidICvUnknown
	mov	DWORD PTR $T217959[ebp], eax
	mov	ecx, DWORD PTR _guidICvUnknown+4
	mov	DWORD PTR $T217959[ebp+4], ecx
	mov	edx, DWORD PTR _guidICvUnknown+8
	mov	DWORD PTR $T217959[ebp+8], edx
	mov	eax, DWORD PTR _guidICvUnknown+12
	mov	DWORD PTR $T217959[ebp+12], eax
	mov	ecx, DWORD PTR $T217959[ebp]
	mov	DWORD PTR $T217958[ebp], ecx
	mov	edx, DWORD PTR $T217959[ebp+4]
	mov	DWORD PTR $T217958[ebp+4], edx
	mov	eax, DWORD PTR $T217959[ebp+8]
	mov	DWORD PTR $T217958[ebp+8], eax
	mov	ecx, DWORD PTR $T217959[ebp+12]
	mov	DWORD PTR $T217958[ebp+12], ecx
	mov	ecx, 16					; 00000010H
	lea	edi, DWORD PTR $T217958[ebp]
	lea	esi, DWORD PTR _guidInterface$[ebp]
	xor	edx, edx
	mov	DWORD PTR tv137[ebp], edx
	repe cmpsb
	je	SHORT $LN17@QueryInter
	sbb	eax, eax
	sbb	eax, -1
	mov	DWORD PTR tv137[ebp], eax
$LN17@QueryInter:
	mov	ecx, DWORD PTR tv137[ebp]
	mov	DWORD PTR tv85[ebp], ecx
	xor	edx, edx
	cmp	DWORD PTR tv85[ebp], 0
	sete	dl
	test	edx, edx
	jne	SHORT $LN1@QueryInter
	mov	eax, DWORD PTR _guidICvLeaderHeadInfo1
	mov	DWORD PTR $T217961[ebp], eax
	mov	ecx, DWORD PTR _guidICvLeaderHeadInfo1+4
	mov	DWORD PTR $T217961[ebp+4], ecx
	mov	edx, DWORD PTR _guidICvLeaderHeadInfo1+8
	mov	DWORD PTR $T217961[ebp+8], edx
	mov	eax, DWORD PTR _guidICvLeaderHeadInfo1+12
	mov	DWORD PTR $T217961[ebp+12], eax
	mov	ecx, DWORD PTR $T217961[ebp]
	mov	DWORD PTR $T217960[ebp], ecx
	mov	edx, DWORD PTR $T217961[ebp+4]
	mov	DWORD PTR $T217960[ebp+4], edx
	mov	eax, DWORD PTR $T217961[ebp+8]
	mov	DWORD PTR $T217960[ebp+8], eax
	mov	ecx, DWORD PTR $T217961[ebp+12]
	mov	DWORD PTR $T217960[ebp+12], ecx
	mov	ecx, 16					; 00000010H
	lea	edi, DWORD PTR $T217960[ebp]
	lea	esi, DWORD PTR _guidInterface$[ebp]
	xor	edx, edx
	mov	DWORD PTR tv161[ebp], edx
	repe cmpsb
	je	SHORT $LN18@QueryInter
	sbb	eax, eax
	sbb	eax, -1
	mov	DWORD PTR tv161[ebp], eax
$LN18@QueryInter:
	mov	ecx, DWORD PTR tv161[ebp]
	mov	DWORD PTR tv90[ebp], ecx
	xor	edx, edx
	cmp	DWORD PTR tv90[ebp], 0
	sete	dl
	test	edx, edx
	je	SHORT $LN2@QueryInter
$LN1@QueryInter:

; 31   : 	{
; 32   : 		IncrementReference();

	mov	ecx, DWORD PTR _this$[ebp]
	call	?IncrementReference@CvDllLeaderHeadInfo@@QAEIXZ ; CvDllLeaderHeadInfo::IncrementReference

; 33   : 		return this;

	mov	eax, DWORD PTR _this$[ebp]
	jmp	SHORT $LN3@QueryInter
$LN2@QueryInter:

; 34   : 	}
; 35   : 
; 36   : 	return NULL;

	xor	eax, eax
$LN3@QueryInter:

; 37   : }

	pop	edi
	pop	esi
	mov	esp, ebp
	pop	ebp
	ret	20					; 00000014H
?QueryInterface@CvDllLeaderHeadInfo@@UAGPAXU_GUID@@@Z ENDP ; CvDllLeaderHeadInfo::QueryInterface
; Function compile flags: /Odtp
_TEXT	ENDS
;	COMDAT ?IncrementReference@CvDllLeaderHeadInfo@@QAEIXZ
_TEXT	SEGMENT
_this$ = -4						; size = 4
?IncrementReference@CvDllLeaderHeadInfo@@QAEIXZ PROC	; CvDllLeaderHeadInfo::IncrementReference, COMDAT
; _this$ = ecx

; 40   : {

	push	ebp
	mov	ebp, esp
	push	ecx
	mov	DWORD PTR _this$[ebp], ecx

; 41   : 	++m_uiRefCount;

	mov	eax, DWORD PTR _this$[ebp]
	mov	ecx, DWORD PTR [eax+4]
	add	ecx, 1
	mov	edx, DWORD PTR _this$[ebp]
	mov	DWORD PTR [edx+4], ecx

; 42   : 	return m_uiRefCount;

	mov	eax, DWORD PTR _this$[ebp]
	mov	eax, DWORD PTR [eax+4]

; 43   : }

	mov	esp, ebp
	pop	ebp
	ret	0
?IncrementReference@CvDllLeaderHeadInfo@@QAEIXZ ENDP	; CvDllLeaderHeadInfo::IncrementReference
_TEXT	ENDS
PUBLIC	??3CvDllLeaderHeadInfo@@SAXPAX@Z		; CvDllLeaderHeadInfo::operator delete
PUBLIC	?DecrementReference@CvDllLeaderHeadInfo@@QAEIXZ	; CvDllLeaderHeadInfo::DecrementReference
; Function compile flags: /Odtp
;	COMDAT ?DecrementReference@CvDllLeaderHeadInfo@@QAEIXZ
_TEXT	SEGMENT
tv70 = -16						; size = 4
_this$ = -12						; size = 4
$T217993 = -8						; size = 4
$T217992 = -4						; size = 4
?DecrementReference@CvDllLeaderHeadInfo@@QAEIXZ PROC	; CvDllLeaderHeadInfo::DecrementReference, COMDAT
; _this$ = ecx

; 46   : {

	push	ebp
	mov	ebp, esp
	sub	esp, 16					; 00000010H
	mov	DWORD PTR _this$[ebp], ecx

; 47   : 	if(m_uiRefCount == 1)

	mov	eax, DWORD PTR _this$[ebp]
	cmp	DWORD PTR [eax+4], 1
	jne	SHORT $LN2@DecrementR

; 48   : 	{
; 49   : 		delete this;

	mov	ecx, DWORD PTR _this$[ebp]
	mov	DWORD PTR $T217993[ebp], ecx
	mov	edx, DWORD PTR $T217993[ebp]
	mov	DWORD PTR $T217992[ebp], edx
	cmp	DWORD PTR $T217992[ebp], 0
	je	SHORT $LN5@DecrementR
	mov	ecx, DWORD PTR $T217992[ebp]
	call	??1CvDllLeaderHeadInfo@@QAE@XZ		; CvDllLeaderHeadInfo::~CvDllLeaderHeadInfo
	mov	eax, 1
	and	eax, 1
	je	SHORT $LN8@DecrementR
	mov	ecx, DWORD PTR $T217992[ebp]
	push	ecx
	call	??3CvDllLeaderHeadInfo@@SAXPAX@Z	; CvDllLeaderHeadInfo::operator delete
	add	esp, 4
$LN8@DecrementR:
	mov	edx, DWORD PTR $T217992[ebp]
	mov	DWORD PTR tv70[ebp], edx
	jmp	SHORT $LN6@DecrementR
$LN5@DecrementR:
	mov	DWORD PTR tv70[ebp], 0
$LN6@DecrementR:

; 50   : 		return 0;

	xor	eax, eax
	jmp	SHORT $LN3@DecrementR

; 51   : 	}
; 52   : 	else

	jmp	SHORT $LN3@DecrementR
$LN2@DecrementR:

; 53   : 	{
; 54   : 		--m_uiRefCount;

	mov	eax, DWORD PTR _this$[ebp]
	mov	ecx, DWORD PTR [eax+4]
	sub	ecx, 1
	mov	edx, DWORD PTR _this$[ebp]
	mov	DWORD PTR [edx+4], ecx

; 55   : 		return m_uiRefCount;

	mov	eax, DWORD PTR _this$[ebp]
	mov	eax, DWORD PTR [eax+4]
$LN3@DecrementR:

; 56   : 	}
; 57   : }

	mov	esp, ebp
	pop	ebp
	ret	0
?DecrementReference@CvDllLeaderHeadInfo@@QAEIXZ ENDP	; CvDllLeaderHeadInfo::DecrementReference
_TEXT	ENDS
PUBLIC	?GetReferenceCount@CvDllLeaderHeadInfo@@QAEIXZ	; CvDllLeaderHeadInfo::GetReferenceCount
; Function compile flags: /Odtp
;	COMDAT ?GetReferenceCount@CvDllLeaderHeadInfo@@QAEIXZ
_TEXT	SEGMENT
_this$ = -4						; size = 4
?GetReferenceCount@CvDllLeaderHeadInfo@@QAEIXZ PROC	; CvDllLeaderHeadInfo::GetReferenceCount, COMDAT
; _this$ = ecx

; 60   : {

	push	ebp
	mov	ebp, esp
	push	ecx
	mov	DWORD PTR _this$[ebp], ecx

; 61   : 	return m_uiRefCount;

	mov	eax, DWORD PTR _this$[ebp]
	mov	eax, DWORD PTR [eax+4]

; 62   : }

	mov	esp, ebp
	pop	ebp
	ret	0
?GetReferenceCount@CvDllLeaderHeadInfo@@QAEIXZ ENDP	; CvDllLeaderHeadInfo::GetReferenceCount
; Function compile flags: /Odtp
_TEXT	ENDS
;	COMDAT ?Destroy@CvDllLeaderHeadInfo@@EAGXXZ
_TEXT	SEGMENT
_this$ = 8						; size = 4
?Destroy@CvDllLeaderHeadInfo@@EAGXXZ PROC		; CvDllLeaderHeadInfo::Destroy, COMDAT

; 65   : {

	push	ebp
	mov	ebp, esp

; 66   : 	DecrementReference();

	mov	ecx, DWORD PTR _this$[ebp]
	call	?DecrementReference@CvDllLeaderHeadInfo@@QAEIXZ ; CvDllLeaderHeadInfo::DecrementReference

; 67   : }

	pop	ebp
	ret	4
?Destroy@CvDllLeaderHeadInfo@@EAGXXZ ENDP		; CvDllLeaderHeadInfo::Destroy
_TEXT	ENDS
EXTRN	?Free@CvDllGameContext@@SAXPAX@Z:PROC		; CvDllGameContext::Free
; Function compile flags: /Odtp
;	COMDAT ??3CvDllLeaderHeadInfo@@SAXPAX@Z
_TEXT	SEGMENT
_p$ = 8							; size = 4
??3CvDllLeaderHeadInfo@@SAXPAX@Z PROC			; CvDllLeaderHeadInfo::operator delete, COMDAT

; 70   : {

	push	ebp
	mov	ebp, esp

; 71   : 	CvDllGameContext::Free(p);

	mov	eax, DWORD PTR _p$[ebp]
	push	eax
	call	?Free@CvDllGameContext@@SAXPAX@Z	; CvDllGameContext::Free
	add	esp, 4

; 72   : }

	pop	ebp
	ret	0
??3CvDllLeaderHeadInfo@@SAXPAX@Z ENDP			; CvDllLeaderHeadInfo::operator delete
_TEXT	ENDS
PUBLIC	??2CvDllLeaderHeadInfo@@SAPAXI@Z		; CvDllLeaderHeadInfo::operator new
EXTRN	?Allocate@CvDllGameContext@@SAPAXI@Z:PROC	; CvDllGameContext::Allocate
; Function compile flags: /Odtp
;	COMDAT ??2CvDllLeaderHeadInfo@@SAPAXI@Z
_TEXT	SEGMENT
_bytes$ = 8						; size = 4
??2CvDllLeaderHeadInfo@@SAPAXI@Z PROC			; CvDllLeaderHeadInfo::operator new, COMDAT

; 75   : {

	push	ebp
	mov	ebp, esp

; 76   : 	return CvDllGameContext::Allocate(bytes);

	mov	eax, DWORD PTR _bytes$[ebp]
	push	eax
	call	?Allocate@CvDllGameContext@@SAPAXI@Z	; CvDllGameContext::Allocate
	add	esp, 4

; 77   : }

	pop	ebp
	ret	0
??2CvDllLeaderHeadInfo@@SAPAXI@Z ENDP			; CvDllLeaderHeadInfo::operator new
_TEXT	ENDS
PUBLIC	?GetInstance@CvDllLeaderHeadInfo@@QAEPAVCvLeaderHeadInfo@@XZ ; CvDllLeaderHeadInfo::GetInstance
; Function compile flags: /Odtp
;	COMDAT ?GetInstance@CvDllLeaderHeadInfo@@QAEPAVCvLeaderHeadInfo@@XZ
_TEXT	SEGMENT
_this$ = -4						; size = 4
?GetInstance@CvDllLeaderHeadInfo@@QAEPAVCvLeaderHeadInfo@@XZ PROC ; CvDllLeaderHeadInfo::GetInstance, COMDAT
; _this$ = ecx

; 80   : {

	push	ebp
	mov	ebp, esp
	push	ecx
	mov	DWORD PTR _this$[ebp], ecx

; 81   : 	return m_pLeaderHeadInfo;

	mov	eax, DWORD PTR _this$[ebp]
	mov	eax, DWORD PTR [eax+8]

; 82   : }

	mov	esp, ebp
	pop	ebp
	ret	0
?GetInstance@CvDllLeaderHeadInfo@@QAEPAVCvLeaderHeadInfo@@XZ ENDP ; CvDllLeaderHeadInfo::GetInstance
_TEXT	ENDS
EXTRN	__imp_?c_str@?$basic_string@DU?$char_traits@D@std@@V?$allocator@D@2@@std@@QBEPBDXZ:PROC
; Function compile flags: /Odtp
;	COMDAT ?GetDescription@CvDllLeaderHeadInfo@@UAGPBDXZ
_TEXT	SEGMENT
$T218015 = -4						; size = 4
_this$ = 8						; size = 4
?GetDescription@CvDllLeaderHeadInfo@@UAGPBDXZ PROC	; CvDllLeaderHeadInfo::GetDescription, COMDAT

; 85   : {

	push	ebp
	mov	ebp, esp
	push	ecx

; 86   : 	return m_pLeaderHeadInfo->GetDescription();

	mov	eax, DWORD PTR _this$[ebp]
	mov	ecx, DWORD PTR [eax+8]
	mov	DWORD PTR $T218015[ebp], ecx
	mov	ecx, DWORD PTR $T218015[ebp]
	add	ecx, 36					; 00000024H
	call	DWORD PTR __imp_?c_str@?$basic_string@DU?$char_traits@D@std@@V?$allocator@D@2@@std@@QBEPBDXZ

; 87   : }

	mov	esp, ebp
	pop	ebp
	ret	4
?GetDescription@CvDllLeaderHeadInfo@@UAGPBDXZ ENDP	; CvDllLeaderHeadInfo::GetDescription
_TEXT	ENDS
EXTRN	?getArtDefineTag@CvLeaderHeadInfo@@QBEPBDXZ:PROC ; CvLeaderHeadInfo::getArtDefineTag
; Function compile flags: /Odtp
;	COMDAT ?GetArtDefineTag@CvDllLeaderHeadInfo@@UAGPBDXZ
_TEXT	SEGMENT
_this$ = 8						; size = 4
?GetArtDefineTag@CvDllLeaderHeadInfo@@UAGPBDXZ PROC	; CvDllLeaderHeadInfo::GetArtDefineTag, COMDAT

; 90   : {

	push	ebp
	mov	ebp, esp

; 91   : 	return m_pLeaderHeadInfo->getArtDefineTag();

	mov	eax, DWORD PTR _this$[ebp]
	mov	ecx, DWORD PTR [eax+8]
	call	?getArtDefineTag@CvLeaderHeadInfo@@QBEPBDXZ ; CvLeaderHeadInfo::getArtDefineTag

; 92   : }

	pop	ebp
	ret	4
?GetArtDefineTag@CvDllLeaderHeadInfo@@UAGPBDXZ ENDP	; CvDllLeaderHeadInfo::GetArtDefineTag
_TEXT	ENDS
END
