; Listing generated by Microsoft (R) Optimizing Compiler Version 15.00.30729.01 

	TITLE	D:\sources\Lekmod_git\checkout\LEKMOD_DLL\CvGameCoreDLL_Expansion2\CvEconomicAI.cpp
	.686P
	.XMM
	include listing.inc
	.model	flat

INCLUDELIB MSVCRT
INCLUDELIB OLDNAMES

PUBLIC	?NO_QUEST_DATA@CvMinorCivQuest@@2HB		; CvMinorCivQuest::NO_QUEST_DATA
PUBLIC	?NO_TURN@CvMinorCivQuest@@2HB			; CvMinorCivQuest::NO_TURN
;	COMDAT ?NO_TURN@CvMinorCivQuest@@2HB
CONST	SEGMENT
?NO_TURN@CvMinorCivQuest@@2HB DD 0ffffffffH		; CvMinorCivQuest::NO_TURN
CONST	ENDS
;	COMDAT ?NO_QUEST_DATA@CvMinorCivQuest@@2HB
CONST	SEGMENT
?NO_QUEST_DATA@CvMinorCivQuest@@2HB DD 0ffffffffH	; CvMinorCivQuest::NO_QUEST_DATA
CONST	ENDS
PUBLIC	??1CvBaseInfo@@QAE@XZ				; CvBaseInfo::~CvBaseInfo
PUBLIC	??_7CvEconomicAIStrategyXMLEntry@@6B@		; CvEconomicAIStrategyXMLEntry::`vftable'
PUBLIC	??0CvEconomicAIStrategyXMLEntry@@QAE@XZ		; CvEconomicAIStrategyXMLEntry::CvEconomicAIStrategyXMLEntry
PUBLIC	?CacheResults@CvEconomicAIStrategyXMLEntry@@UAE_NAAVResults@Database@@AAVCvDatabaseUtility@@@Z ; CvEconomicAIStrategyXMLEntry::CacheResults
EXTRN	__imp_??0?$basic_string@DU?$char_traits@D@std@@V?$allocator@D@2@@std@@QAE@XZ:PROC
EXTRN	??0CvBaseInfo@@QAE@XZ:PROC			; CvBaseInfo::CvBaseInfo
EXTRN	___security_cookie:DWORD
EXTRN	___CxxFrameHandler3:PROC
EXTRN	@__security_check_cookie@4:PROC
EXTRN	??8CvBaseInfo@@UBE_NABV0@@Z:PROC		; CvBaseInfo::operator==
EXTRN	?readFrom@CvBaseInfo@@UAEXAAVFDataStream@@@Z:PROC ; CvBaseInfo::readFrom
EXTRN	?writeTo@CvBaseInfo@@UBEXAAVFDataStream@@@Z:PROC ; CvBaseInfo::writeTo
EXTRN	??_ECvEconomicAIStrategyXMLEntry@@UAEPAXI@Z:PROC ; CvEconomicAIStrategyXMLEntry::`vector deleting destructor'
;	COMDAT ??_7CvEconomicAIStrategyXMLEntry@@6B@
; File d:\sources\lekmod_git\checkout\lekmod_dll\cvgamecoredllutil\include\cvstring.h
CONST	SEGMENT
??_7CvEconomicAIStrategyXMLEntry@@6B@ DD FLAT:?CacheResults@CvEconomicAIStrategyXMLEntry@@UAE_NAAVResults@Database@@AAVCvDatabaseUtility@@@Z ; CvEconomicAIStrategyXMLEntry::`vftable'
	DD	FLAT:??8CvBaseInfo@@UBE_NABV0@@Z
	DD	FLAT:?readFrom@CvBaseInfo@@UAEXAAVFDataStream@@@Z
	DD	FLAT:?writeTo@CvBaseInfo@@UBEXAAVFDataStream@@@Z
	DD	FLAT:??_ECvEconomicAIStrategyXMLEntry@@UAEPAXI@Z
CONST	ENDS
;	COMDAT xdata$x
xdata$x	SEGMENT
__unwindtable$??0CvEconomicAIStrategyXMLEntry@@QAE@XZ DD 0ffffffffH
	DD	FLAT:__unwindfunclet$??0CvEconomicAIStrategyXMLEntry@@QAE@XZ$0
__ehfuncinfo$??0CvEconomicAIStrategyXMLEntry@@QAE@XZ DD 019930522H
	DD	01H
	DD	FLAT:__unwindtable$??0CvEconomicAIStrategyXMLEntry@@QAE@XZ
	DD	2 DUP(00H)
	DD	2 DUP(00H)
	DD	00H
	DD	01H
; Function compile flags: /Odtp
; File d:\sources\lekmod_git\checkout\lekmod_dll\cvgamecoredll_expansion2\cveconomicai.cpp
xdata$x	ENDS
;	COMDAT ??0CvEconomicAIStrategyXMLEntry@@QAE@XZ
_TEXT	SEGMENT
_this$ = -20						; size = 4
$T230800 = -16						; size = 4
__$EHRec$ = -12						; size = 12
??0CvEconomicAIStrategyXMLEntry@@QAE@XZ PROC		; CvEconomicAIStrategyXMLEntry::CvEconomicAIStrategyXMLEntry, COMDAT
; _this$ = ecx

; 43   : {

	push	ebp
	mov	ebp, esp
	push	-1
	push	__ehhandler$??0CvEconomicAIStrategyXMLEntry@@QAE@XZ
	mov	eax, DWORD PTR fs:0
	push	eax
	sub	esp, 8
	mov	eax, DWORD PTR ___security_cookie
	xor	eax, ebp
	push	eax
	lea	eax, DWORD PTR __$EHRec$[ebp]
	mov	DWORD PTR fs:0, eax
	mov	DWORD PTR _this$[ebp], ecx
	mov	ecx, DWORD PTR _this$[ebp]
	call	??0CvBaseInfo@@QAE@XZ			; CvBaseInfo::CvBaseInfo
	mov	DWORD PTR __$EHRec$[ebp+8], 0
	mov	eax, DWORD PTR _this$[ebp]
	mov	DWORD PTR [eax], OFFSET ??_7CvEconomicAIStrategyXMLEntry@@6B@
	mov	ecx, DWORD PTR _this$[ebp]
	mov	DWORD PTR [ecx+260], 0
	mov	edx, DWORD PTR _this$[ebp]
	mov	DWORD PTR [edx+264], 0
	mov	eax, DWORD PTR _this$[ebp]
	mov	DWORD PTR [eax+268], 0
	mov	ecx, DWORD PTR _this$[ebp]
	mov	DWORD PTR [ecx+272], 0
	mov	edx, DWORD PTR _this$[ebp]
	mov	BYTE PTR [edx+276], 0
	mov	eax, DWORD PTR _this$[ebp]
	mov	DWORD PTR [eax+280], -1
	mov	ecx, DWORD PTR _this$[ebp]
	mov	DWORD PTR [ecx+284], -1
	mov	edx, DWORD PTR _this$[ebp]
	mov	DWORD PTR [edx+288], 0
	mov	eax, DWORD PTR _this$[ebp]
	mov	DWORD PTR [eax+292], 0
	mov	ecx, DWORD PTR _this$[ebp]
	mov	DWORD PTR [ecx+296], 0
	mov	edx, DWORD PTR _this$[ebp]
	mov	DWORD PTR [edx+300], -1
	mov	eax, DWORD PTR _this$[ebp]
	add	eax, 304				; 00000130H
	mov	DWORD PTR $T230800[ebp], eax
	mov	ecx, DWORD PTR $T230800[ebp]
	call	DWORD PTR __imp_??0?$basic_string@DU?$char_traits@D@std@@V?$allocator@D@2@@std@@QAE@XZ
	mov	ecx, DWORD PTR _this$[ebp]
	mov	DWORD PTR [ecx+332], 1

; 44   : }

	mov	DWORD PTR __$EHRec$[ebp+8], -1
	mov	eax, DWORD PTR _this$[ebp]
	mov	ecx, DWORD PTR __$EHRec$[ebp]
	mov	DWORD PTR fs:0, ecx
	pop	ecx
	mov	esp, ebp
	pop	ebp
	ret	0
_TEXT	ENDS
;	COMDAT text$x
text$x	SEGMENT
__unwindfunclet$??0CvEconomicAIStrategyXMLEntry@@QAE@XZ$0:
	mov	ecx, DWORD PTR _this$[ebp]
	jmp	??1CvBaseInfo@@QAE@XZ
__ehhandler$??0CvEconomicAIStrategyXMLEntry@@QAE@XZ:
	mov	edx, DWORD PTR [esp+8]
	lea	eax, DWORD PTR [edx+12]
	mov	ecx, DWORD PTR [edx-12]
	xor	ecx, eax
	call	@__security_check_cookie@4
	mov	eax, OFFSET __ehfuncinfo$??0CvEconomicAIStrategyXMLEntry@@QAE@XZ
	jmp	___CxxFrameHandler3
text$x	ENDS
??0CvEconomicAIStrategyXMLEntry@@QAE@XZ ENDP		; CvEconomicAIStrategyXMLEntry::CvEconomicAIStrategyXMLEntry
PUBLIC	??1CvEconomicAIStrategyXMLEntry@@UAE@XZ		; CvEconomicAIStrategyXMLEntry::~CvEconomicAIStrategyXMLEntry
EXTRN	??3@YAXPAX@Z:PROC				; operator delete
; Function compile flags: /Odtp
;	COMDAT ??_GCvEconomicAIStrategyXMLEntry@@UAEPAXI@Z
_TEXT	SEGMENT
_this$ = -4						; size = 4
___flags$ = 8						; size = 4
??_GCvEconomicAIStrategyXMLEntry@@UAEPAXI@Z PROC	; CvEconomicAIStrategyXMLEntry::`scalar deleting destructor', COMDAT
; _this$ = ecx
	push	ebp
	mov	ebp, esp
	push	ecx
	mov	DWORD PTR _this$[ebp], ecx
	mov	ecx, DWORD PTR _this$[ebp]
	call	??1CvEconomicAIStrategyXMLEntry@@UAE@XZ	; CvEconomicAIStrategyXMLEntry::~CvEconomicAIStrategyXMLEntry
	mov	eax, DWORD PTR ___flags$[ebp]
	and	eax, 1
	je	SHORT $LN1@scalar
	mov	ecx, DWORD PTR _this$[ebp]
	push	ecx
	call	??3@YAXPAX@Z				; operator delete
	add	esp, 4
$LN1@scalar:
	mov	eax, DWORD PTR _this$[ebp]
	mov	esp, ebp
	pop	ebp
	ret	4
??_GCvEconomicAIStrategyXMLEntry@@UAEPAXI@Z ENDP	; CvEconomicAIStrategyXMLEntry::`scalar deleting destructor'
_TEXT	ENDS
PUBLIC	??1CvString@@QAE@XZ				; CvString::~CvString
EXTRN	__imp_??1?$basic_string@DU?$char_traits@D@std@@V?$allocator@D@2@@std@@QAE@XZ:PROC
;	COMDAT xdata$x
xdata$x	SEGMENT
__ehfuncinfo$??1CvBaseInfo@@QAE@XZ DD 019930522H
	DD	08H
	DD	FLAT:__unwindtable$??1CvBaseInfo@@QAE@XZ
	DD	2 DUP(00H)
	DD	2 DUP(00H)
	DD	00H
	DD	01H
__unwindtable$??1CvBaseInfo@@QAE@XZ DD 0ffffffffH
	DD	FLAT:__unwindfunclet$??1CvBaseInfo@@QAE@XZ$0
	DD	00H
	DD	FLAT:__unwindfunclet$??1CvBaseInfo@@QAE@XZ$1
	DD	01H
	DD	FLAT:__unwindfunclet$??1CvBaseInfo@@QAE@XZ$2
	DD	02H
	DD	FLAT:__unwindfunclet$??1CvBaseInfo@@QAE@XZ$3
	DD	03H
	DD	FLAT:__unwindfunclet$??1CvBaseInfo@@QAE@XZ$4
	DD	04H
	DD	FLAT:__unwindfunclet$??1CvBaseInfo@@QAE@XZ$5
	DD	05H
	DD	FLAT:__unwindfunclet$??1CvBaseInfo@@QAE@XZ$6
	DD	06H
	DD	FLAT:__unwindfunclet$??1CvBaseInfo@@QAE@XZ$7
; Function compile flags: /Odtp
xdata$x	ENDS
;	COMDAT ??1CvBaseInfo@@QAE@XZ
_TEXT	SEGMENT
_this$ = -52						; size = 4
$T230869 = -48						; size = 4
$T230864 = -44						; size = 4
$T230859 = -40						; size = 4
$T230854 = -36						; size = 4
$T230849 = -32						; size = 4
$T230844 = -28						; size = 4
$T230839 = -24						; size = 4
$T230834 = -20						; size = 4
$T230829 = -16						; size = 4
__$EHRec$ = -12						; size = 12
??1CvBaseInfo@@QAE@XZ PROC				; CvBaseInfo::~CvBaseInfo, COMDAT
; _this$ = ecx
	push	ebp
	mov	ebp, esp
	push	-1
	push	__ehhandler$??1CvBaseInfo@@QAE@XZ
	mov	eax, DWORD PTR fs:0
	push	eax
	sub	esp, 40					; 00000028H
	mov	eax, DWORD PTR ___security_cookie
	xor	eax, ebp
	push	eax
	lea	eax, DWORD PTR __$EHRec$[ebp]
	mov	DWORD PTR fs:0, eax
	mov	DWORD PTR _this$[ebp], ecx
	mov	DWORD PTR __$EHRec$[ebp+8], 7
	mov	eax, DWORD PTR _this$[ebp]
	add	eax, 232				; 000000e8H
	mov	DWORD PTR $T230829[ebp], eax
	mov	ecx, DWORD PTR $T230829[ebp]
	call	DWORD PTR __imp_??1?$basic_string@DU?$char_traits@D@std@@V?$allocator@D@2@@std@@QAE@XZ
	mov	BYTE PTR __$EHRec$[ebp+8], 6
	mov	ecx, DWORD PTR _this$[ebp]
	add	ecx, 204				; 000000ccH
	mov	DWORD PTR $T230834[ebp], ecx
	mov	ecx, DWORD PTR $T230834[ebp]
	call	DWORD PTR __imp_??1?$basic_string@DU?$char_traits@D@std@@V?$allocator@D@2@@std@@QAE@XZ
	mov	BYTE PTR __$EHRec$[ebp+8], 5
	mov	edx, DWORD PTR _this$[ebp]
	add	edx, 176				; 000000b0H
	mov	DWORD PTR $T230839[ebp], edx
	mov	ecx, DWORD PTR $T230839[ebp]
	call	DWORD PTR __imp_??1?$basic_string@DU?$char_traits@D@std@@V?$allocator@D@2@@std@@QAE@XZ
	mov	BYTE PTR __$EHRec$[ebp+8], 4
	mov	eax, DWORD PTR _this$[ebp]
	add	eax, 148				; 00000094H
	mov	DWORD PTR $T230844[ebp], eax
	mov	ecx, DWORD PTR $T230844[ebp]
	call	DWORD PTR __imp_??1?$basic_string@DU?$char_traits@D@std@@V?$allocator@D@2@@std@@QAE@XZ
	mov	BYTE PTR __$EHRec$[ebp+8], 3
	mov	ecx, DWORD PTR _this$[ebp]
	add	ecx, 120				; 00000078H
	mov	DWORD PTR $T230849[ebp], ecx
	mov	ecx, DWORD PTR $T230849[ebp]
	call	DWORD PTR __imp_??1?$basic_string@DU?$char_traits@D@std@@V?$allocator@D@2@@std@@QAE@XZ
	mov	BYTE PTR __$EHRec$[ebp+8], 2
	mov	edx, DWORD PTR _this$[ebp]
	add	edx, 92					; 0000005cH
	mov	DWORD PTR $T230854[ebp], edx
	mov	ecx, DWORD PTR $T230854[ebp]
	call	DWORD PTR __imp_??1?$basic_string@DU?$char_traits@D@std@@V?$allocator@D@2@@std@@QAE@XZ
	mov	BYTE PTR __$EHRec$[ebp+8], 1
	mov	eax, DWORD PTR _this$[ebp]
	add	eax, 64					; 00000040H
	mov	DWORD PTR $T230859[ebp], eax
	mov	ecx, DWORD PTR $T230859[ebp]
	call	DWORD PTR __imp_??1?$basic_string@DU?$char_traits@D@std@@V?$allocator@D@2@@std@@QAE@XZ
	mov	BYTE PTR __$EHRec$[ebp+8], 0
	mov	ecx, DWORD PTR _this$[ebp]
	add	ecx, 36					; 00000024H
	mov	DWORD PTR $T230864[ebp], ecx
	mov	ecx, DWORD PTR $T230864[ebp]
	call	DWORD PTR __imp_??1?$basic_string@DU?$char_traits@D@std@@V?$allocator@D@2@@std@@QAE@XZ
	mov	DWORD PTR __$EHRec$[ebp+8], -1
	mov	edx, DWORD PTR _this$[ebp]
	add	edx, 8
	mov	DWORD PTR $T230869[ebp], edx
	mov	ecx, DWORD PTR $T230869[ebp]
	call	DWORD PTR __imp_??1?$basic_string@DU?$char_traits@D@std@@V?$allocator@D@2@@std@@QAE@XZ
	mov	ecx, DWORD PTR __$EHRec$[ebp]
	mov	DWORD PTR fs:0, ecx
	pop	ecx
	mov	esp, ebp
	pop	ebp
	ret	0
_TEXT	ENDS
;	COMDAT text$x
text$x	SEGMENT
__unwindfunclet$??1CvBaseInfo@@QAE@XZ$0:
	mov	ecx, DWORD PTR _this$[ebp]
	add	ecx, 8
	jmp	??1CvString@@QAE@XZ			; CvString::~CvString
__unwindfunclet$??1CvBaseInfo@@QAE@XZ$1:
	mov	ecx, DWORD PTR _this$[ebp]
	add	ecx, 36					; 00000024H
	jmp	??1CvString@@QAE@XZ			; CvString::~CvString
__unwindfunclet$??1CvBaseInfo@@QAE@XZ$2:
	mov	ecx, DWORD PTR _this$[ebp]
	add	ecx, 64					; 00000040H
	jmp	??1CvString@@QAE@XZ			; CvString::~CvString
__unwindfunclet$??1CvBaseInfo@@QAE@XZ$3:
	mov	ecx, DWORD PTR _this$[ebp]
	add	ecx, 92					; 0000005cH
	jmp	??1CvString@@QAE@XZ			; CvString::~CvString
__unwindfunclet$??1CvBaseInfo@@QAE@XZ$4:
	mov	ecx, DWORD PTR _this$[ebp]
	add	ecx, 120				; 00000078H
	jmp	??1CvString@@QAE@XZ			; CvString::~CvString
__unwindfunclet$??1CvBaseInfo@@QAE@XZ$5:
	mov	ecx, DWORD PTR _this$[ebp]
	add	ecx, 148				; 00000094H
	jmp	??1CvString@@QAE@XZ			; CvString::~CvString
__unwindfunclet$??1CvBaseInfo@@QAE@XZ$6:
	mov	ecx, DWORD PTR _this$[ebp]
	add	ecx, 176				; 000000b0H
	jmp	??1CvString@@QAE@XZ			; CvString::~CvString
__unwindfunclet$??1CvBaseInfo@@QAE@XZ$7:
	mov	ecx, DWORD PTR _this$[ebp]
	add	ecx, 204				; 000000ccH
	jmp	??1CvString@@QAE@XZ			; CvString::~CvString
__ehhandler$??1CvBaseInfo@@QAE@XZ:
	mov	edx, DWORD PTR [esp+8]
	lea	eax, DWORD PTR [edx+12]
	mov	ecx, DWORD PTR [edx-44]
	xor	ecx, eax
	call	@__security_check_cookie@4
	mov	eax, OFFSET __ehfuncinfo$??1CvBaseInfo@@QAE@XZ
	jmp	___CxxFrameHandler3
text$x	ENDS
??1CvBaseInfo@@QAE@XZ ENDP				; CvBaseInfo::~CvBaseInfo
EXTRN	??_V@YAXPAX@Z:PROC				; operator delete[]
;	COMDAT xdata$x
; File d:\sources\lekmod_git\checkout\lekmod_dll\cvgamecoredllutil\include\cvstring.h
xdata$x	SEGMENT
__unwindtable$??1CvEconomicAIStrategyXMLEntry@@UAE@XZ DD 0ffffffffH
	DD	FLAT:__unwindfunclet$??1CvEconomicAIStrategyXMLEntry@@UAE@XZ$0
__ehfuncinfo$??1CvEconomicAIStrategyXMLEntry@@UAE@XZ DD 019930522H
	DD	01H
	DD	FLAT:__unwindtable$??1CvEconomicAIStrategyXMLEntry@@UAE@XZ
	DD	2 DUP(00H)
	DD	2 DUP(00H)
	DD	00H
	DD	01H
; Function compile flags: /Odtp
; File d:\sources\lekmod_git\checkout\lekmod_dll\cvgamecoredll_expansion2\cveconomicai.cpp
xdata$x	ENDS
;	COMDAT ??1CvEconomicAIStrategyXMLEntry@@UAE@XZ
_TEXT	SEGMENT
_this$ = -80						; size = 4
$T230902 = -40						; size = 4
$T230897 = -36						; size = 4
$T230895 = -32						; size = 4
$T230891 = -28						; size = 4
$T230889 = -24						; size = 4
$T230885 = -20						; size = 4
$T230883 = -16						; size = 4
__$EHRec$ = -12						; size = 12
??1CvEconomicAIStrategyXMLEntry@@UAE@XZ PROC		; CvEconomicAIStrategyXMLEntry::~CvEconomicAIStrategyXMLEntry, COMDAT
; _this$ = ecx

; 47   : {

	push	ebp
	mov	ebp, esp
	push	-1
	push	__ehhandler$??1CvEconomicAIStrategyXMLEntry@@UAE@XZ
	mov	eax, DWORD PTR fs:0
	push	eax
	sub	esp, 68					; 00000044H
	mov	eax, DWORD PTR ___security_cookie
	xor	eax, ebp
	push	eax
	lea	eax, DWORD PTR __$EHRec$[ebp]
	mov	DWORD PTR fs:0, eax
	mov	DWORD PTR _this$[ebp], ecx
	mov	eax, DWORD PTR _this$[ebp]
	mov	DWORD PTR [eax], OFFSET ??_7CvEconomicAIStrategyXMLEntry@@6B@
	mov	DWORD PTR __$EHRec$[ebp+8], 0

; 48   : 	SAFE_DELETE_ARRAY(m_piPlayerFlavorValue);

	mov	ecx, DWORD PTR _this$[ebp]
	add	ecx, 260				; 00000104H
	mov	DWORD PTR $T230885[ebp], ecx
	mov	edx, DWORD PTR $T230885[ebp]
	mov	eax, DWORD PTR [edx]
	mov	DWORD PTR $T230883[ebp], eax
	mov	ecx, DWORD PTR $T230883[ebp]
	push	ecx
	call	??_V@YAXPAX@Z				; operator delete[]
	add	esp, 4
	mov	edx, DWORD PTR $T230885[ebp]
	mov	DWORD PTR [edx], 0

; 49   : 	SAFE_DELETE_ARRAY(m_piCityFlavorValue);

	mov	eax, DWORD PTR _this$[ebp]
	add	eax, 264				; 00000108H
	mov	DWORD PTR $T230891[ebp], eax
	mov	ecx, DWORD PTR $T230891[ebp]
	mov	edx, DWORD PTR [ecx]
	mov	DWORD PTR $T230889[ebp], edx
	mov	eax, DWORD PTR $T230889[ebp]
	push	eax
	call	??_V@YAXPAX@Z				; operator delete[]
	add	esp, 4
	mov	ecx, DWORD PTR $T230891[ebp]
	mov	DWORD PTR [ecx], 0

; 50   : 	SAFE_DELETE_ARRAY(m_piPersonalityFlavorThresholdMod);

	mov	edx, DWORD PTR _this$[ebp]
	add	edx, 272				; 00000110H
	mov	DWORD PTR $T230897[ebp], edx
	mov	eax, DWORD PTR $T230897[ebp]
	mov	ecx, DWORD PTR [eax]
	mov	DWORD PTR $T230895[ebp], ecx
	mov	edx, DWORD PTR $T230895[ebp]
	push	edx
	call	??_V@YAXPAX@Z				; operator delete[]
	add	esp, 4
	mov	eax, DWORD PTR $T230897[ebp]
	mov	DWORD PTR [eax], 0

; 51   : }

	mov	ecx, DWORD PTR _this$[ebp]
	add	ecx, 304				; 00000130H
	mov	DWORD PTR $T230902[ebp], ecx
	mov	ecx, DWORD PTR $T230902[ebp]
	call	DWORD PTR __imp_??1?$basic_string@DU?$char_traits@D@std@@V?$allocator@D@2@@std@@QAE@XZ
	mov	DWORD PTR __$EHRec$[ebp+8], -1
	mov	ecx, DWORD PTR _this$[ebp]
	call	??1CvBaseInfo@@QAE@XZ
	mov	ecx, DWORD PTR __$EHRec$[ebp]
	mov	DWORD PTR fs:0, ecx
	pop	ecx
	mov	esp, ebp
	pop	ebp
	ret	0
_TEXT	ENDS
;	COMDAT text$x
text$x	SEGMENT
__unwindfunclet$??1CvEconomicAIStrategyXMLEntry@@UAE@XZ$0:
	mov	ecx, DWORD PTR _this$[ebp]
	jmp	??1CvBaseInfo@@QAE@XZ
__ehhandler$??1CvEconomicAIStrategyXMLEntry@@UAE@XZ:
	mov	edx, DWORD PTR [esp+8]
	lea	eax, DWORD PTR [edx+12]
	mov	ecx, DWORD PTR [edx-72]
	xor	ecx, eax
	call	@__security_check_cookie@4
	mov	eax, OFFSET __ehfuncinfo$??1CvEconomicAIStrategyXMLEntry@@UAE@XZ
	jmp	___CxxFrameHandler3
text$x	ENDS
??1CvEconomicAIStrategyXMLEntry@@UAE@XZ ENDP		; CvEconomicAIStrategyXMLEntry::~CvEconomicAIStrategyXMLEntry
PUBLIC	??_C@_0DC@GLMFJHHA@AIEconomicStrategy_PersonalityFl@ ; `string'
PUBLIC	??_C@_0CA@JACMPKOA@AIEconomicStrategy_City_Flavors?$AA@ ; `string'
PUBLIC	??_C@_0CC@HBNMCKMO@AIEconomicStrategy_Player_Flavor@ ; `string'
PUBLIC	??_C@_0BH@NCAFLNII@AIEconomicStrategyType?$AA@	; `string'
PUBLIC	??_C@_0N@COMAJFAF@TechObsolete?$AA@		; `string'
PUBLIC	??_C@_0L@IANCLNMF@TechPrereq?$AA@		; `string'
PUBLIC	??_C@_0BJ@EDJBOKGB@AdvisorCounselImportance?$AA@ ; `string'
PUBLIC	??_C@_0P@KBBBKHGN@AdvisorCounsel?$AA@		; `string'
PUBLIC	??_C@_07IMKJABN@SCIENCE?$AA@			; `string'
PUBLIC	??_C@_07OLAKHONA@FOREIGN?$AA@			; `string'
PUBLIC	??_C@_08LKDCODGK@ECONOMIC?$AA@			; `string'
PUBLIC	??_C@_08EBHPNIPO@MILITARY?$AA@			; `string'
PUBLIC	??_C@_07GOECOJOI@Advisor?$AA@			; `string'
PUBLIC	??_C@_0BC@LIGEGMEA@FirstTurnExecuted?$AA@	; `string'
PUBLIC	??_C@_0BA@BKBCAEL@WeightThreshold?$AA@		; `string'
PUBLIC	??_C@_0BI@CIDKLIKO@MinimumNumTurnsExecuted?$AA@	; `string'
PUBLIC	??_C@_0BG@BFKLKDMO@CheckTriggerTurnCount?$AA@	; `string'
PUBLIC	??_C@_0M@PGLGACOH@NoMinorCivs?$AA@		; `string'
EXTRN	?SetFlavors@CvDatabaseUtility@@QAE_NAAPAHPBD11H@Z:PROC ; CvDatabaseUtility::SetFlavors
EXTRN	__imp_?c_str@?$basic_string@DU?$char_traits@D@std@@V?$allocator@D@2@@std@@QBEPBDXZ:PROC
EXTRN	?getInfoTypeForString@CvGlobals@@QBEHPBD_N@Z:PROC ; CvGlobals::getInfoTypeForString
EXTRN	?gGlobals@@3VCvGlobals@@A:BYTE			; gGlobals
EXTRN	__imp_?clear@?$basic_string@DU?$char_traits@D@std@@V?$allocator@D@2@@std@@QAEXXZ:PROC
EXTRN	__imp_?assign@?$basic_string@DU?$char_traits@D@std@@V?$allocator@D@2@@std@@QAEAAV12@PBD@Z:PROC
EXTRN	__imp_?GetText@Results@Database@@QAEPBDPBD@Z:PROC
EXTRN	__imp_?GetInt@Results@Database@@QAEHPBD@Z:PROC
EXTRN	__imp_?GetBool@Results@Database@@QAE_NPBD@Z:PROC
EXTRN	?CacheResults@CvBaseInfo@@UAE_NAAVResults@Database@@AAVCvDatabaseUtility@@@Z:PROC ; CvBaseInfo::CacheResults
;	COMDAT ??_C@_0DC@GLMFJHHA@AIEconomicStrategy_PersonalityFl@
; File d:\sources\lekmod_git\checkout\lekmod_dll\cvgamecoredll_expansion2\cvinfos.h
CONST	SEGMENT
??_C@_0DC@GLMFJHHA@AIEconomicStrategy_PersonalityFl@ DB 'AIEconomicStrate'
	DB	'gy_PersonalityFlavorThresholdMods', 00H	; `string'
CONST	ENDS
;	COMDAT ??_C@_0CA@JACMPKOA@AIEconomicStrategy_City_Flavors?$AA@
CONST	SEGMENT
??_C@_0CA@JACMPKOA@AIEconomicStrategy_City_Flavors?$AA@ DB 'AIEconomicStr'
	DB	'ategy_City_Flavors', 00H			; `string'
CONST	ENDS
;	COMDAT ??_C@_0CC@HBNMCKMO@AIEconomicStrategy_Player_Flavor@
CONST	SEGMENT
??_C@_0CC@HBNMCKMO@AIEconomicStrategy_Player_Flavor@ DB 'AIEconomicStrate'
	DB	'gy_Player_Flavors', 00H			; `string'
CONST	ENDS
;	COMDAT ??_C@_0BH@NCAFLNII@AIEconomicStrategyType?$AA@
CONST	SEGMENT
??_C@_0BH@NCAFLNII@AIEconomicStrategyType?$AA@ DB 'AIEconomicStrategyType'
	DB	00H						; `string'
CONST	ENDS
;	COMDAT ??_C@_0N@COMAJFAF@TechObsolete?$AA@
CONST	SEGMENT
??_C@_0N@COMAJFAF@TechObsolete?$AA@ DB 'TechObsolete', 00H ; `string'
CONST	ENDS
;	COMDAT ??_C@_0L@IANCLNMF@TechPrereq?$AA@
CONST	SEGMENT
??_C@_0L@IANCLNMF@TechPrereq?$AA@ DB 'TechPrereq', 00H	; `string'
CONST	ENDS
;	COMDAT ??_C@_0BJ@EDJBOKGB@AdvisorCounselImportance?$AA@
CONST	SEGMENT
??_C@_0BJ@EDJBOKGB@AdvisorCounselImportance?$AA@ DB 'AdvisorCounselImport'
	DB	'ance', 00H					; `string'
CONST	ENDS
;	COMDAT ??_C@_0P@KBBBKHGN@AdvisorCounsel?$AA@
CONST	SEGMENT
??_C@_0P@KBBBKHGN@AdvisorCounsel?$AA@ DB 'AdvisorCounsel', 00H ; `string'
CONST	ENDS
;	COMDAT ??_C@_07IMKJABN@SCIENCE?$AA@
CONST	SEGMENT
??_C@_07IMKJABN@SCIENCE?$AA@ DB 'SCIENCE', 00H		; `string'
CONST	ENDS
;	COMDAT ??_C@_07OLAKHONA@FOREIGN?$AA@
CONST	SEGMENT
??_C@_07OLAKHONA@FOREIGN?$AA@ DB 'FOREIGN', 00H		; `string'
CONST	ENDS
;	COMDAT ??_C@_08LKDCODGK@ECONOMIC?$AA@
CONST	SEGMENT
??_C@_08LKDCODGK@ECONOMIC?$AA@ DB 'ECONOMIC', 00H	; `string'
CONST	ENDS
;	COMDAT ??_C@_08EBHPNIPO@MILITARY?$AA@
CONST	SEGMENT
??_C@_08EBHPNIPO@MILITARY?$AA@ DB 'MILITARY', 00H	; `string'
CONST	ENDS
;	COMDAT ??_C@_07GOECOJOI@Advisor?$AA@
CONST	SEGMENT
??_C@_07GOECOJOI@Advisor?$AA@ DB 'Advisor', 00H		; `string'
CONST	ENDS
;	COMDAT ??_C@_0BC@LIGEGMEA@FirstTurnExecuted?$AA@
CONST	SEGMENT
??_C@_0BC@LIGEGMEA@FirstTurnExecuted?$AA@ DB 'FirstTurnExecuted', 00H ; `string'
CONST	ENDS
;	COMDAT ??_C@_0BA@BKBCAEL@WeightThreshold?$AA@
CONST	SEGMENT
??_C@_0BA@BKBCAEL@WeightThreshold?$AA@ DB 'WeightThreshold', 00H ; `string'
CONST	ENDS
;	COMDAT ??_C@_0BI@CIDKLIKO@MinimumNumTurnsExecuted?$AA@
CONST	SEGMENT
??_C@_0BI@CIDKLIKO@MinimumNumTurnsExecuted?$AA@ DB 'MinimumNumTurnsExecut'
	DB	'ed', 00H					; `string'
CONST	ENDS
;	COMDAT ??_C@_0BG@BFKLKDMO@CheckTriggerTurnCount?$AA@
CONST	SEGMENT
??_C@_0BG@BFKLKDMO@CheckTriggerTurnCount?$AA@ DB 'CheckTriggerTurnCount', 00H ; `string'
CONST	ENDS
;	COMDAT ??_C@_0M@PGLGACOH@NoMinorCivs?$AA@
CONST	SEGMENT
??_C@_0M@PGLGACOH@NoMinorCivs?$AA@ DB 'NoMinorCivs', 00H ; `string'
; Function compile flags: /Odtp
; File d:\sources\lekmod_git\checkout\lekmod_dll\cvgamecoredll_expansion2\cveconomicai.cpp
CONST	ENDS
;	COMDAT ?CacheResults@CvEconomicAIStrategyXMLEntry@@UAE_NAAVResults@Database@@AAVCvDatabaseUtility@@@Z
_TEXT	SEGMENT
tv152 = -104						; size = 4
tv326 = -100						; size = 4
tv321 = -94						; size = 1
tv314 = -93						; size = 1
tv309 = -92						; size = 4
tv311 = -88						; size = 4
tv146 = -84						; size = 4
tv303 = -80						; size = 4
tv298 = -74						; size = 1
tv291 = -73						; size = 1
tv286 = -72						; size = 4
tv288 = -68						; size = 4
tv140 = -64						; size = 4
tv280 = -60						; size = 4
tv275 = -54						; size = 1
tv268 = -53						; size = 1
tv263 = -52						; size = 4
tv265 = -48						; size = 4
tv134 = -44						; size = 4
tv257 = -40						; size = 4
tv252 = -34						; size = 1
tv245 = -33						; size = 1
tv240 = -32						; size = 4
tv242 = -28						; size = 4
_this$ = -24						; size = 4
$T230972 = -20						; size = 4
$T230971 = -16						; size = 4
_szType$ = -12						; size = 4
_strAdvisor$ = -8					; size = 4
_szTextVal$ = -4					; size = 4
_kResults$ = 8						; size = 4
_kUtility$ = 12						; size = 4
?CacheResults@CvEconomicAIStrategyXMLEntry@@UAE_NAAVResults@Database@@AAVCvDatabaseUtility@@@Z PROC ; CvEconomicAIStrategyXMLEntry::CacheResults, COMDAT
; _this$ = ecx

; 54   : {

	push	ebp
	mov	ebp, esp
	sub	esp, 104				; 00000068H
	mov	DWORD PTR _this$[ebp], ecx

; 55   : 	if(!CvBaseInfo::CacheResults(kResults, kUtility))

	mov	eax, DWORD PTR _kUtility$[ebp]
	push	eax
	mov	ecx, DWORD PTR _kResults$[ebp]
	push	ecx
	mov	ecx, DWORD PTR _this$[ebp]
	call	?CacheResults@CvBaseInfo@@UAE_NAAVResults@Database@@AAVCvDatabaseUtility@@@Z ; CvBaseInfo::CacheResults
	movzx	edx, al
	test	edx, edx
	jne	SHORT $LN9@CacheResul

; 56   : 		return false;

	xor	al, al
	jmp	$LN10@CacheResul
$LN9@CacheResul:

; 57   : 
; 58   : 	//Basic Properties
; 59   : 	m_bNoMinorCivs					= kResults.GetBool("NoMinorCivs");

	push	OFFSET ??_C@_0M@PGLGACOH@NoMinorCivs?$AA@
	mov	ecx, DWORD PTR _kResults$[ebp]
	call	DWORD PTR __imp_?GetBool@Results@Database@@QAE_NPBD@Z
	mov	ecx, DWORD PTR _this$[ebp]
	mov	BYTE PTR [ecx+276], al

; 60   : 	m_iCheckTriggerTurnCount		= kResults.GetInt("CheckTriggerTurnCount");

	push	OFFSET ??_C@_0BG@BFKLKDMO@CheckTriggerTurnCount?$AA@
	mov	ecx, DWORD PTR _kResults$[ebp]
	call	DWORD PTR __imp_?GetInt@Results@Database@@QAEHPBD@Z
	mov	edx, DWORD PTR _this$[ebp]
	mov	DWORD PTR [edx+292], eax

; 61   : 	m_iMinimumNumTurnsExecuted		= kResults.GetInt("MinimumNumTurnsExecuted");

	push	OFFSET ??_C@_0BI@CIDKLIKO@MinimumNumTurnsExecuted?$AA@
	mov	ecx, DWORD PTR _kResults$[ebp]
	call	DWORD PTR __imp_?GetInt@Results@Database@@QAEHPBD@Z
	mov	ecx, DWORD PTR _this$[ebp]
	mov	DWORD PTR [ecx+288], eax

; 62   : 	m_iWeightThreshold				= kResults.GetInt("WeightThreshold");

	push	OFFSET ??_C@_0BA@BKBCAEL@WeightThreshold?$AA@
	mov	ecx, DWORD PTR _kResults$[ebp]
	call	DWORD PTR __imp_?GetInt@Results@Database@@QAEHPBD@Z
	mov	edx, DWORD PTR _this$[ebp]
	mov	DWORD PTR [edx+268], eax

; 63   : 	m_iFirstTurnExecuted            = kResults.GetInt("FirstTurnExecuted");

	push	OFFSET ??_C@_0BC@LIGEGMEA@FirstTurnExecuted?$AA@
	mov	ecx, DWORD PTR _kResults$[ebp]
	call	DWORD PTR __imp_?GetInt@Results@Database@@QAEHPBD@Z
	mov	ecx, DWORD PTR _this$[ebp]
	mov	DWORD PTR [ecx+296], eax

; 64   : 
; 65   : 	const char* strAdvisor = kResults.GetText("Advisor");

	push	OFFSET ??_C@_07GOECOJOI@Advisor?$AA@
	mov	ecx, DWORD PTR _kResults$[ebp]
	call	DWORD PTR __imp_?GetText@Results@Database@@QAEPBDPBD@Z
	mov	DWORD PTR _strAdvisor$[ebp], eax

; 66   : 	m_eAdvisor = NO_ADVISOR_TYPE;

	mov	edx, DWORD PTR _this$[ebp]
	mov	DWORD PTR [edx+300], -1

; 67   : 	if(strAdvisor)

	cmp	DWORD PTR _strAdvisor$[ebp], 0
	je	$LN8@CacheResul

; 68   : 	{
; 69   : 		if(strcmp(strAdvisor, "MILITARY") == 0)

	mov	DWORD PTR tv242[ebp], OFFSET ??_C@_08EBHPNIPO@MILITARY?$AA@
	mov	eax, DWORD PTR _strAdvisor$[ebp]
	mov	DWORD PTR tv240[ebp], eax
$LL18@CacheResul:
	mov	ecx, DWORD PTR tv240[ebp]
	mov	dl, BYTE PTR [ecx]
	mov	BYTE PTR tv245[ebp], dl
	mov	eax, DWORD PTR tv242[ebp]
	cmp	dl, BYTE PTR [eax]
	jne	SHORT $LN19@CacheResul
	cmp	BYTE PTR tv245[ebp], 0
	je	SHORT $LN20@CacheResul
	mov	ecx, DWORD PTR tv240[ebp]
	mov	dl, BYTE PTR [ecx+1]
	mov	BYTE PTR tv252[ebp], dl
	mov	eax, DWORD PTR tv242[ebp]
	cmp	dl, BYTE PTR [eax+1]
	jne	SHORT $LN19@CacheResul
	add	DWORD PTR tv240[ebp], 2
	add	DWORD PTR tv242[ebp], 2
	cmp	BYTE PTR tv252[ebp], 0
	jne	SHORT $LL18@CacheResul
$LN20@CacheResul:
	mov	DWORD PTR tv257[ebp], 0
	jmp	SHORT $LN21@CacheResul
$LN19@CacheResul:
	sbb	ecx, ecx
	sbb	ecx, -1
	mov	DWORD PTR tv257[ebp], ecx
$LN21@CacheResul:
	mov	edx, DWORD PTR tv257[ebp]
	mov	DWORD PTR tv134[ebp], edx
	cmp	DWORD PTR tv134[ebp], 0
	jne	SHORT $LN7@CacheResul

; 70   : 		{
; 71   : 			m_eAdvisor = ADVISOR_MILITARY;

	mov	eax, DWORD PTR _this$[ebp]
	mov	DWORD PTR [eax+300], 0
	jmp	$LN8@CacheResul
$LN7@CacheResul:

; 72   : 		}
; 73   : 		else if(strcmp(strAdvisor, "ECONOMIC") == 0)

	mov	DWORD PTR tv265[ebp], OFFSET ??_C@_08LKDCODGK@ECONOMIC?$AA@
	mov	ecx, DWORD PTR _strAdvisor$[ebp]
	mov	DWORD PTR tv263[ebp], ecx
$LL22@CacheResul:
	mov	edx, DWORD PTR tv263[ebp]
	mov	al, BYTE PTR [edx]
	mov	BYTE PTR tv268[ebp], al
	mov	ecx, DWORD PTR tv265[ebp]
	cmp	al, BYTE PTR [ecx]
	jne	SHORT $LN23@CacheResul
	cmp	BYTE PTR tv268[ebp], 0
	je	SHORT $LN24@CacheResul
	mov	edx, DWORD PTR tv263[ebp]
	mov	al, BYTE PTR [edx+1]
	mov	BYTE PTR tv275[ebp], al
	mov	ecx, DWORD PTR tv265[ebp]
	cmp	al, BYTE PTR [ecx+1]
	jne	SHORT $LN23@CacheResul
	add	DWORD PTR tv263[ebp], 2
	add	DWORD PTR tv265[ebp], 2
	cmp	BYTE PTR tv275[ebp], 0
	jne	SHORT $LL22@CacheResul
$LN24@CacheResul:
	mov	DWORD PTR tv280[ebp], 0
	jmp	SHORT $LN25@CacheResul
$LN23@CacheResul:
	sbb	edx, edx
	sbb	edx, -1
	mov	DWORD PTR tv280[ebp], edx
$LN25@CacheResul:
	mov	eax, DWORD PTR tv280[ebp]
	mov	DWORD PTR tv140[ebp], eax
	cmp	DWORD PTR tv140[ebp], 0
	jne	SHORT $LN5@CacheResul

; 74   : 		{
; 75   : 			m_eAdvisor = ADVISOR_ECONOMIC;

	mov	ecx, DWORD PTR _this$[ebp]
	mov	DWORD PTR [ecx+300], 1
	jmp	$LN8@CacheResul
$LN5@CacheResul:

; 76   : 		}
; 77   : 		else if(strcmp(strAdvisor, "FOREIGN") == 0)

	mov	DWORD PTR tv288[ebp], OFFSET ??_C@_07OLAKHONA@FOREIGN?$AA@
	mov	edx, DWORD PTR _strAdvisor$[ebp]
	mov	DWORD PTR tv286[ebp], edx
$LL26@CacheResul:
	mov	eax, DWORD PTR tv286[ebp]
	mov	cl, BYTE PTR [eax]
	mov	BYTE PTR tv291[ebp], cl
	mov	edx, DWORD PTR tv288[ebp]
	cmp	cl, BYTE PTR [edx]
	jne	SHORT $LN27@CacheResul
	cmp	BYTE PTR tv291[ebp], 0
	je	SHORT $LN28@CacheResul
	mov	eax, DWORD PTR tv286[ebp]
	mov	cl, BYTE PTR [eax+1]
	mov	BYTE PTR tv298[ebp], cl
	mov	edx, DWORD PTR tv288[ebp]
	cmp	cl, BYTE PTR [edx+1]
	jne	SHORT $LN27@CacheResul
	add	DWORD PTR tv286[ebp], 2
	add	DWORD PTR tv288[ebp], 2
	cmp	BYTE PTR tv298[ebp], 0
	jne	SHORT $LL26@CacheResul
$LN28@CacheResul:
	mov	DWORD PTR tv303[ebp], 0
	jmp	SHORT $LN29@CacheResul
$LN27@CacheResul:
	sbb	eax, eax
	sbb	eax, -1
	mov	DWORD PTR tv303[ebp], eax
$LN29@CacheResul:
	mov	ecx, DWORD PTR tv303[ebp]
	mov	DWORD PTR tv146[ebp], ecx
	cmp	DWORD PTR tv146[ebp], 0
	jne	SHORT $LN3@CacheResul

; 78   : 		{
; 79   : 			m_eAdvisor = ADVISOR_FOREIGN;

	mov	edx, DWORD PTR _this$[ebp]
	mov	DWORD PTR [edx+300], 2
	jmp	SHORT $LN8@CacheResul
$LN3@CacheResul:

; 80   : 		}
; 81   : 		else if(strcmp(strAdvisor, "SCIENCE") == 0)

	mov	DWORD PTR tv311[ebp], OFFSET ??_C@_07IMKJABN@SCIENCE?$AA@
	mov	eax, DWORD PTR _strAdvisor$[ebp]
	mov	DWORD PTR tv309[ebp], eax
$LL30@CacheResul:
	mov	ecx, DWORD PTR tv309[ebp]
	mov	dl, BYTE PTR [ecx]
	mov	BYTE PTR tv314[ebp], dl
	mov	eax, DWORD PTR tv311[ebp]
	cmp	dl, BYTE PTR [eax]
	jne	SHORT $LN31@CacheResul
	cmp	BYTE PTR tv314[ebp], 0
	je	SHORT $LN32@CacheResul
	mov	ecx, DWORD PTR tv309[ebp]
	mov	dl, BYTE PTR [ecx+1]
	mov	BYTE PTR tv321[ebp], dl
	mov	eax, DWORD PTR tv311[ebp]
	cmp	dl, BYTE PTR [eax+1]
	jne	SHORT $LN31@CacheResul
	add	DWORD PTR tv309[ebp], 2
	add	DWORD PTR tv311[ebp], 2
	cmp	BYTE PTR tv321[ebp], 0
	jne	SHORT $LL30@CacheResul
$LN32@CacheResul:
	mov	DWORD PTR tv326[ebp], 0
	jmp	SHORT $LN33@CacheResul
$LN31@CacheResul:
	sbb	ecx, ecx
	sbb	ecx, -1
	mov	DWORD PTR tv326[ebp], ecx
$LN33@CacheResul:
	mov	edx, DWORD PTR tv326[ebp]
	mov	DWORD PTR tv152[ebp], edx
	cmp	DWORD PTR tv152[ebp], 0
	jne	SHORT $LN8@CacheResul

; 82   : 		{
; 83   : 			m_eAdvisor = ADVISOR_SCIENCE;

	mov	eax, DWORD PTR _this$[ebp]
	mov	DWORD PTR [eax+300], 3
$LN8@CacheResul:

; 84   : 		}
; 85   : 	}
; 86   : 
; 87   : 	m_strAdvisorCounselText = kResults.GetText("AdvisorCounsel");

	push	OFFSET ??_C@_0P@KBBBKHGN@AdvisorCounsel?$AA@
	mov	ecx, DWORD PTR _kResults$[ebp]
	call	DWORD PTR __imp_?GetText@Results@Database@@QAEPBDPBD@Z
	mov	DWORD PTR $T230972[ebp], eax
	mov	ecx, DWORD PTR _this$[ebp]
	add	ecx, 304				; 00000130H
	mov	DWORD PTR $T230971[ebp], ecx
	cmp	DWORD PTR $T230972[ebp], 0
	je	SHORT $LN13@CacheResul
	mov	edx, DWORD PTR $T230972[ebp]
	push	edx
	mov	ecx, DWORD PTR $T230971[ebp]
	call	DWORD PTR __imp_?assign@?$basic_string@DU?$char_traits@D@std@@V?$allocator@D@2@@std@@QAEAAV12@PBD@Z
	jmp	SHORT $LN14@CacheResul
$LN13@CacheResul:
	mov	ecx, DWORD PTR $T230971[ebp]
	call	DWORD PTR __imp_?clear@?$basic_string@DU?$char_traits@D@std@@V?$allocator@D@2@@std@@QAEXXZ
$LN14@CacheResul:

; 88   : 	m_iAdvisorCounselImportance = kResults.GetInt("AdvisorCounselImportance");

	push	OFFSET ??_C@_0BJ@EDJBOKGB@AdvisorCounselImportance?$AA@
	mov	ecx, DWORD PTR _kResults$[ebp]
	call	DWORD PTR __imp_?GetInt@Results@Database@@QAEHPBD@Z
	mov	ecx, DWORD PTR _this$[ebp]
	mov	DWORD PTR [ecx+332], eax

; 89   : 
; 90   : 	//References
; 91   : 	const char* szTextVal = NULL;

	mov	DWORD PTR _szTextVal$[ebp], 0

; 92   : 	szTextVal = kResults.GetText("TechPrereq");

	push	OFFSET ??_C@_0L@IANCLNMF@TechPrereq?$AA@
	mov	ecx, DWORD PTR _kResults$[ebp]
	call	DWORD PTR __imp_?GetText@Results@Database@@QAEPBDPBD@Z
	mov	DWORD PTR _szTextVal$[ebp], eax

; 93   : 	m_iTechPrereq = GC.getInfoTypeForString(szTextVal, true);

	push	1
	mov	edx, DWORD PTR _szTextVal$[ebp]
	push	edx
	mov	ecx, OFFSET ?gGlobals@@3VCvGlobals@@A	; gGlobals
	call	?getInfoTypeForString@CvGlobals@@QBEHPBD_N@Z ; CvGlobals::getInfoTypeForString
	mov	ecx, DWORD PTR _this$[ebp]
	mov	DWORD PTR [ecx+280], eax

; 94   : 
; 95   : 	szTextVal = kResults.GetText("TechObsolete");

	push	OFFSET ??_C@_0N@COMAJFAF@TechObsolete?$AA@
	mov	ecx, DWORD PTR _kResults$[ebp]
	call	DWORD PTR __imp_?GetText@Results@Database@@QAEPBDPBD@Z
	mov	DWORD PTR _szTextVal$[ebp], eax

; 96   : 	m_iTechObsolete = GC.getInfoTypeForString(szTextVal, true);

	push	1
	mov	edx, DWORD PTR _szTextVal$[ebp]
	push	edx
	mov	ecx, OFFSET ?gGlobals@@3VCvGlobals@@A	; gGlobals
	call	?getInfoTypeForString@CvGlobals@@QBEHPBD_N@Z ; CvGlobals::getInfoTypeForString
	mov	ecx, DWORD PTR _this$[ebp]
	mov	DWORD PTR [ecx+284], eax

; 97   : 
; 98   : 	//Arrays
; 99   : 	//Arrays
; 100  : 	const char* szType = GetType();

	mov	ecx, DWORD PTR _this$[ebp]
	add	ecx, 176				; 000000b0H
	call	DWORD PTR __imp_?c_str@?$basic_string@DU?$char_traits@D@std@@V?$allocator@D@2@@std@@QBEPBDXZ
	mov	DWORD PTR _szType$[ebp], eax

; 101  : 	kUtility.SetFlavors(m_piPlayerFlavorValue, "AIEconomicStrategy_Player_Flavors",
; 102  : 	                    "AIEconomicStrategyType", szType);

	push	0
	mov	edx, DWORD PTR _szType$[ebp]
	push	edx
	push	OFFSET ??_C@_0BH@NCAFLNII@AIEconomicStrategyType?$AA@
	push	OFFSET ??_C@_0CC@HBNMCKMO@AIEconomicStrategy_Player_Flavor@
	mov	eax, DWORD PTR _this$[ebp]
	add	eax, 260				; 00000104H
	push	eax
	mov	ecx, DWORD PTR _kUtility$[ebp]
	call	?SetFlavors@CvDatabaseUtility@@QAE_NAAPAHPBD11H@Z ; CvDatabaseUtility::SetFlavors

; 103  : 	kUtility.SetFlavors(m_piCityFlavorValue, "AIEconomicStrategy_City_Flavors",
; 104  : 		"AIEconomicStrategyType", szType);

	push	0
	mov	ecx, DWORD PTR _szType$[ebp]
	push	ecx
	push	OFFSET ??_C@_0BH@NCAFLNII@AIEconomicStrategyType?$AA@
	push	OFFSET ??_C@_0CA@JACMPKOA@AIEconomicStrategy_City_Flavors?$AA@
	mov	edx, DWORD PTR _this$[ebp]
	add	edx, 264				; 00000108H
	push	edx
	mov	ecx, DWORD PTR _kUtility$[ebp]
	call	?SetFlavors@CvDatabaseUtility@@QAE_NAAPAHPBD11H@Z ; CvDatabaseUtility::SetFlavors

; 105  : 
; 106  : 
; 107  : 	kUtility.SetFlavors(m_piPersonalityFlavorThresholdMod,
; 108  : 	                    "AIEconomicStrategy_PersonalityFlavorThresholdMods",
; 109  : 	                    "AIEconomicStrategyType", szType);

	push	0
	mov	eax, DWORD PTR _szType$[ebp]
	push	eax
	push	OFFSET ??_C@_0BH@NCAFLNII@AIEconomicStrategyType?$AA@
	push	OFFSET ??_C@_0DC@GLMFJHHA@AIEconomicStrategy_PersonalityFl@
	mov	ecx, DWORD PTR _this$[ebp]
	add	ecx, 272				; 00000110H
	push	ecx
	mov	ecx, DWORD PTR _kUtility$[ebp]
	call	?SetFlavors@CvDatabaseUtility@@QAE_NAAPAHPBD11H@Z ; CvDatabaseUtility::SetFlavors

; 110  : 
; 111  : 	return true;

	mov	al, 1
$LN10@CacheResul:

; 112  : }

	mov	esp, ebp
	pop	ebp
	ret	8
?CacheResults@CvEconomicAIStrategyXMLEntry@@UAE_NAAVResults@Database@@AAVCvDatabaseUtility@@@Z ENDP ; CvEconomicAIStrategyXMLEntry::CacheResults
_TEXT	ENDS
PUBLIC	?GetPlayerFlavorValue@CvEconomicAIStrategyXMLEntry@@QBEHH@Z ; CvEconomicAIStrategyXMLEntry::GetPlayerFlavorValue
; Function compile flags: /Odtp
;	COMDAT ?GetPlayerFlavorValue@CvEconomicAIStrategyXMLEntry@@QBEHH@Z
_TEXT	SEGMENT
tv69 = -8						; size = 4
_this$ = -4						; size = 4
_i$ = 8							; size = 4
?GetPlayerFlavorValue@CvEconomicAIStrategyXMLEntry@@QBEHH@Z PROC ; CvEconomicAIStrategyXMLEntry::GetPlayerFlavorValue, COMDAT
; _this$ = ecx

; 116  : {

	push	ebp
	mov	ebp, esp
	sub	esp, 8
	mov	DWORD PTR _this$[ebp], ecx

; 117  : 	FAssertMsg(i < GC.getNumFlavorTypes(), "Index out of bounds");
; 118  : 	FAssertMsg(i > -1, "Index out of bounds");
; 119  : 	return m_piPlayerFlavorValue ? m_piPlayerFlavorValue[i] : -1;

	mov	eax, DWORD PTR _this$[ebp]
	cmp	DWORD PTR [eax+260], 0
	je	SHORT $LN3@GetPlayerF
	mov	ecx, DWORD PTR _this$[ebp]
	mov	edx, DWORD PTR [ecx+260]
	mov	eax, DWORD PTR _i$[ebp]
	mov	ecx, DWORD PTR [edx+eax*4]
	mov	DWORD PTR tv69[ebp], ecx
	jmp	SHORT $LN4@GetPlayerF
$LN3@GetPlayerF:
	mov	DWORD PTR tv69[ebp], -1
$LN4@GetPlayerF:
	mov	eax, DWORD PTR tv69[ebp]

; 120  : }

	mov	esp, ebp
	pop	ebp
	ret	4
?GetPlayerFlavorValue@CvEconomicAIStrategyXMLEntry@@QBEHH@Z ENDP ; CvEconomicAIStrategyXMLEntry::GetPlayerFlavorValue
_TEXT	ENDS
PUBLIC	?GetCityFlavorValue@CvEconomicAIStrategyXMLEntry@@QBEHH@Z ; CvEconomicAIStrategyXMLEntry::GetCityFlavorValue
; Function compile flags: /Odtp
;	COMDAT ?GetCityFlavorValue@CvEconomicAIStrategyXMLEntry@@QBEHH@Z
_TEXT	SEGMENT
tv69 = -8						; size = 4
_this$ = -4						; size = 4
_i$ = 8							; size = 4
?GetCityFlavorValue@CvEconomicAIStrategyXMLEntry@@QBEHH@Z PROC ; CvEconomicAIStrategyXMLEntry::GetCityFlavorValue, COMDAT
; _this$ = ecx

; 124  : {

	push	ebp
	mov	ebp, esp
	sub	esp, 8
	mov	DWORD PTR _this$[ebp], ecx

; 125  : 	FAssertMsg(i < GC.getNumFlavorTypes(), "Index out of bounds");
; 126  : 	FAssertMsg(i > -1, "Index out of bounds");
; 127  : 	return m_piCityFlavorValue ? m_piCityFlavorValue[i] : -1;

	mov	eax, DWORD PTR _this$[ebp]
	cmp	DWORD PTR [eax+264], 0
	je	SHORT $LN3@GetCityFla
	mov	ecx, DWORD PTR _this$[ebp]
	mov	edx, DWORD PTR [ecx+264]
	mov	eax, DWORD PTR _i$[ebp]
	mov	ecx, DWORD PTR [edx+eax*4]
	mov	DWORD PTR tv69[ebp], ecx
	jmp	SHORT $LN4@GetCityFla
$LN3@GetCityFla:
	mov	DWORD PTR tv69[ebp], -1
$LN4@GetCityFla:
	mov	eax, DWORD PTR tv69[ebp]

; 128  : }

	mov	esp, ebp
	pop	ebp
	ret	4
?GetCityFlavorValue@CvEconomicAIStrategyXMLEntry@@QBEHH@Z ENDP ; CvEconomicAIStrategyXMLEntry::GetCityFlavorValue
_TEXT	ENDS
PUBLIC	?GetWeightThreshold@CvEconomicAIStrategyXMLEntry@@QBEHXZ ; CvEconomicAIStrategyXMLEntry::GetWeightThreshold
; Function compile flags: /Odtp
;	COMDAT ?GetWeightThreshold@CvEconomicAIStrategyXMLEntry@@QBEHXZ
_TEXT	SEGMENT
_this$ = -4						; size = 4
?GetWeightThreshold@CvEconomicAIStrategyXMLEntry@@QBEHXZ PROC ; CvEconomicAIStrategyXMLEntry::GetWeightThreshold, COMDAT
; _this$ = ecx

; 132  : {

	push	ebp
	mov	ebp, esp
	push	ecx
	mov	DWORD PTR _this$[ebp], ecx

; 133  : 	return m_iWeightThreshold;

	mov	eax, DWORD PTR _this$[ebp]
	mov	eax, DWORD PTR [eax+268]

; 134  : }

	mov	esp, ebp
	pop	ebp
	ret	0
?GetWeightThreshold@CvEconomicAIStrategyXMLEntry@@QBEHXZ ENDP ; CvEconomicAIStrategyXMLEntry::GetWeightThreshold
_TEXT	ENDS
PUBLIC	?GetPersonalityFlavorThresholdMod@CvEconomicAIStrategyXMLEntry@@QBEHH@Z ; CvEconomicAIStrategyXMLEntry::GetPersonalityFlavorThresholdMod
; Function compile flags: /Odtp
;	COMDAT ?GetPersonalityFlavorThresholdMod@CvEconomicAIStrategyXMLEntry@@QBEHH@Z
_TEXT	SEGMENT
tv69 = -8						; size = 4
_this$ = -4						; size = 4
_i$ = 8							; size = 4
?GetPersonalityFlavorThresholdMod@CvEconomicAIStrategyXMLEntry@@QBEHH@Z PROC ; CvEconomicAIStrategyXMLEntry::GetPersonalityFlavorThresholdMod, COMDAT
; _this$ = ecx

; 138  : {

	push	ebp
	mov	ebp, esp
	sub	esp, 8
	mov	DWORD PTR _this$[ebp], ecx

; 139  : 	FAssertMsg(i < GC.getNumFlavorTypes(), "Index out of bounds");
; 140  : 	FAssertMsg(i > -1, "Index out of bounds");
; 141  : 	return m_piPersonalityFlavorThresholdMod ? m_piPersonalityFlavorThresholdMod[i] : -1;

	mov	eax, DWORD PTR _this$[ebp]
	cmp	DWORD PTR [eax+272], 0
	je	SHORT $LN3@GetPersona
	mov	ecx, DWORD PTR _this$[ebp]
	mov	edx, DWORD PTR [ecx+272]
	mov	eax, DWORD PTR _i$[ebp]
	mov	ecx, DWORD PTR [edx+eax*4]
	mov	DWORD PTR tv69[ebp], ecx
	jmp	SHORT $LN4@GetPersona
$LN3@GetPersona:
	mov	DWORD PTR tv69[ebp], -1
$LN4@GetPersona:
	mov	eax, DWORD PTR tv69[ebp]

; 142  : }

	mov	esp, ebp
	pop	ebp
	ret	4
?GetPersonalityFlavorThresholdMod@CvEconomicAIStrategyXMLEntry@@QBEHH@Z ENDP ; CvEconomicAIStrategyXMLEntry::GetPersonalityFlavorThresholdMod
_TEXT	ENDS
PUBLIC	?IsNoMinorCivs@CvEconomicAIStrategyXMLEntry@@QBE_NXZ ; CvEconomicAIStrategyXMLEntry::IsNoMinorCivs
; Function compile flags: /Odtp
;	COMDAT ?IsNoMinorCivs@CvEconomicAIStrategyXMLEntry@@QBE_NXZ
_TEXT	SEGMENT
_this$ = -4						; size = 4
?IsNoMinorCivs@CvEconomicAIStrategyXMLEntry@@QBE_NXZ PROC ; CvEconomicAIStrategyXMLEntry::IsNoMinorCivs, COMDAT
; _this$ = ecx

; 146  : {

	push	ebp
	mov	ebp, esp
	push	ecx
	mov	DWORD PTR _this$[ebp], ecx

; 147  : 	return m_bNoMinorCivs;

	mov	eax, DWORD PTR _this$[ebp]
	mov	al, BYTE PTR [eax+276]

; 148  : }

	mov	esp, ebp
	pop	ebp
	ret	0
?IsNoMinorCivs@CvEconomicAIStrategyXMLEntry@@QBE_NXZ ENDP ; CvEconomicAIStrategyXMLEntry::IsNoMinorCivs
_TEXT	ENDS
PUBLIC	?GetTechPrereq@CvEconomicAIStrategyXMLEntry@@QBEHXZ ; CvEconomicAIStrategyXMLEntry::GetTechPrereq
; Function compile flags: /Odtp
;	COMDAT ?GetTechPrereq@CvEconomicAIStrategyXMLEntry@@QBEHXZ
_TEXT	SEGMENT
_this$ = -4						; size = 4
?GetTechPrereq@CvEconomicAIStrategyXMLEntry@@QBEHXZ PROC ; CvEconomicAIStrategyXMLEntry::GetTechPrereq, COMDAT
; _this$ = ecx

; 152  : {

	push	ebp
	mov	ebp, esp
	push	ecx
	mov	DWORD PTR _this$[ebp], ecx

; 153  : 	return m_iTechPrereq;

	mov	eax, DWORD PTR _this$[ebp]
	mov	eax, DWORD PTR [eax+280]

; 154  : }

	mov	esp, ebp
	pop	ebp
	ret	0
?GetTechPrereq@CvEconomicAIStrategyXMLEntry@@QBEHXZ ENDP ; CvEconomicAIStrategyXMLEntry::GetTechPrereq
_TEXT	ENDS
PUBLIC	?GetTechObsolete@CvEconomicAIStrategyXMLEntry@@QBEHXZ ; CvEconomicAIStrategyXMLEntry::GetTechObsolete
; Function compile flags: /Odtp
;	COMDAT ?GetTechObsolete@CvEconomicAIStrategyXMLEntry@@QBEHXZ
_TEXT	SEGMENT
_this$ = -4						; size = 4
?GetTechObsolete@CvEconomicAIStrategyXMLEntry@@QBEHXZ PROC ; CvEconomicAIStrategyXMLEntry::GetTechObsolete, COMDAT
; _this$ = ecx

; 158  : {

	push	ebp
	mov	ebp, esp
	push	ecx
	mov	DWORD PTR _this$[ebp], ecx

; 159  : 	return m_iTechObsolete;

	mov	eax, DWORD PTR _this$[ebp]
	mov	eax, DWORD PTR [eax+284]

; 160  : }

	mov	esp, ebp
	pop	ebp
	ret	0
?GetTechObsolete@CvEconomicAIStrategyXMLEntry@@QBEHXZ ENDP ; CvEconomicAIStrategyXMLEntry::GetTechObsolete
_TEXT	ENDS
PUBLIC	?GetMinimumNumTurnsExecuted@CvEconomicAIStrategyXMLEntry@@QBEHXZ ; CvEconomicAIStrategyXMLEntry::GetMinimumNumTurnsExecuted
; Function compile flags: /Odtp
;	COMDAT ?GetMinimumNumTurnsExecuted@CvEconomicAIStrategyXMLEntry@@QBEHXZ
_TEXT	SEGMENT
_this$ = -4						; size = 4
?GetMinimumNumTurnsExecuted@CvEconomicAIStrategyXMLEntry@@QBEHXZ PROC ; CvEconomicAIStrategyXMLEntry::GetMinimumNumTurnsExecuted, COMDAT
; _this$ = ecx

; 164  : {

	push	ebp
	mov	ebp, esp
	push	ecx
	mov	DWORD PTR _this$[ebp], ecx

; 165  : 	return m_iMinimumNumTurnsExecuted;

	mov	eax, DWORD PTR _this$[ebp]
	mov	eax, DWORD PTR [eax+288]

; 166  : }

	mov	esp, ebp
	pop	ebp
	ret	0
?GetMinimumNumTurnsExecuted@CvEconomicAIStrategyXMLEntry@@QBEHXZ ENDP ; CvEconomicAIStrategyXMLEntry::GetMinimumNumTurnsExecuted
_TEXT	ENDS
PUBLIC	?GetCheckTriggerTurnCount@CvEconomicAIStrategyXMLEntry@@QBEHXZ ; CvEconomicAIStrategyXMLEntry::GetCheckTriggerTurnCount
; Function compile flags: /Odtp
;	COMDAT ?GetCheckTriggerTurnCount@CvEconomicAIStrategyXMLEntry@@QBEHXZ
_TEXT	SEGMENT
_this$ = -4						; size = 4
?GetCheckTriggerTurnCount@CvEconomicAIStrategyXMLEntry@@QBEHXZ PROC ; CvEconomicAIStrategyXMLEntry::GetCheckTriggerTurnCount, COMDAT
; _this$ = ecx

; 170  : {

	push	ebp
	mov	ebp, esp
	push	ecx
	mov	DWORD PTR _this$[ebp], ecx

; 171  : 	return m_iCheckTriggerTurnCount;

	mov	eax, DWORD PTR _this$[ebp]
	mov	eax, DWORD PTR [eax+292]

; 172  : }

	mov	esp, ebp
	pop	ebp
	ret	0
?GetCheckTriggerTurnCount@CvEconomicAIStrategyXMLEntry@@QBEHXZ ENDP ; CvEconomicAIStrategyXMLEntry::GetCheckTriggerTurnCount
_TEXT	ENDS
PUBLIC	?GetFirstTurnExecuted@CvEconomicAIStrategyXMLEntry@@QBEHXZ ; CvEconomicAIStrategyXMLEntry::GetFirstTurnExecuted
; Function compile flags: /Odtp
;	COMDAT ?GetFirstTurnExecuted@CvEconomicAIStrategyXMLEntry@@QBEHXZ
_TEXT	SEGMENT
_this$ = -4						; size = 4
?GetFirstTurnExecuted@CvEconomicAIStrategyXMLEntry@@QBEHXZ PROC ; CvEconomicAIStrategyXMLEntry::GetFirstTurnExecuted, COMDAT
; _this$ = ecx

; 176  : {

	push	ebp
	mov	ebp, esp
	push	ecx
	mov	DWORD PTR _this$[ebp], ecx

; 177  : 	return m_iFirstTurnExecuted;

	mov	eax, DWORD PTR _this$[ebp]
	mov	eax, DWORD PTR [eax+296]

; 178  : }

	mov	esp, ebp
	pop	ebp
	ret	0
?GetFirstTurnExecuted@CvEconomicAIStrategyXMLEntry@@QBEHXZ ENDP ; CvEconomicAIStrategyXMLEntry::GetFirstTurnExecuted
_TEXT	ENDS
PUBLIC	?GetAdvisor@CvEconomicAIStrategyXMLEntry@@QBE?AW4AdvisorTypes@@XZ ; CvEconomicAIStrategyXMLEntry::GetAdvisor
; Function compile flags: /Odtp
;	COMDAT ?GetAdvisor@CvEconomicAIStrategyXMLEntry@@QBE?AW4AdvisorTypes@@XZ
_TEXT	SEGMENT
_this$ = -4						; size = 4
?GetAdvisor@CvEconomicAIStrategyXMLEntry@@QBE?AW4AdvisorTypes@@XZ PROC ; CvEconomicAIStrategyXMLEntry::GetAdvisor, COMDAT
; _this$ = ecx

; 181  : {

	push	ebp
	mov	ebp, esp
	push	ecx
	mov	DWORD PTR _this$[ebp], ecx

; 182  : 	return m_eAdvisor;

	mov	eax, DWORD PTR _this$[ebp]
	mov	eax, DWORD PTR [eax+300]

; 183  : }

	mov	esp, ebp
	pop	ebp
	ret	0
?GetAdvisor@CvEconomicAIStrategyXMLEntry@@QBE?AW4AdvisorTypes@@XZ ENDP ; CvEconomicAIStrategyXMLEntry::GetAdvisor
_TEXT	ENDS
PUBLIC	?GetAdvisorCounselText@CvEconomicAIStrategyXMLEntry@@QBEPBDXZ ; CvEconomicAIStrategyXMLEntry::GetAdvisorCounselText
; Function compile flags: /Odtp
;	COMDAT ?GetAdvisorCounselText@CvEconomicAIStrategyXMLEntry@@QBEPBDXZ
_TEXT	SEGMENT
_this$ = -4						; size = 4
?GetAdvisorCounselText@CvEconomicAIStrategyXMLEntry@@QBEPBDXZ PROC ; CvEconomicAIStrategyXMLEntry::GetAdvisorCounselText, COMDAT
; _this$ = ecx

; 186  : {

	push	ebp
	mov	ebp, esp
	push	ecx
	mov	DWORD PTR _this$[ebp], ecx

; 187  : 	return m_strAdvisorCounselText.c_str();

	mov	ecx, DWORD PTR _this$[ebp]
	add	ecx, 304				; 00000130H
	call	DWORD PTR __imp_?c_str@?$basic_string@DU?$char_traits@D@std@@V?$allocator@D@2@@std@@QBEPBDXZ

; 188  : }

	mov	esp, ebp
	pop	ebp
	ret	0
?GetAdvisorCounselText@CvEconomicAIStrategyXMLEntry@@QBEPBDXZ ENDP ; CvEconomicAIStrategyXMLEntry::GetAdvisorCounselText
_TEXT	ENDS
PUBLIC	?GetAdvisorCounselImportance@CvEconomicAIStrategyXMLEntry@@QBEHXZ ; CvEconomicAIStrategyXMLEntry::GetAdvisorCounselImportance
; Function compile flags: /Odtp
;	COMDAT ?GetAdvisorCounselImportance@CvEconomicAIStrategyXMLEntry@@QBEHXZ
_TEXT	SEGMENT
_this$ = -4						; size = 4
?GetAdvisorCounselImportance@CvEconomicAIStrategyXMLEntry@@QBEHXZ PROC ; CvEconomicAIStrategyXMLEntry::GetAdvisorCounselImportance, COMDAT
; _this$ = ecx

; 191  : {

	push	ebp
	mov	ebp, esp
	push	ecx
	mov	DWORD PTR _this$[ebp], ecx

; 192  : 	return m_iAdvisorCounselImportance;

	mov	eax, DWORD PTR _this$[ebp]
	mov	eax, DWORD PTR [eax+332]

; 193  : }

	mov	esp, ebp
	pop	ebp
	ret	0
?GetAdvisorCounselImportance@CvEconomicAIStrategyXMLEntry@@QBEHXZ ENDP ; CvEconomicAIStrategyXMLEntry::GetAdvisorCounselImportance
_TEXT	ENDS
PUBLIC	??1?$_Vector_val@PAVCvEconomicAIStrategyXMLEntry@@V?$allocator@PAVCvEconomicAIStrategyXMLEntry@@@std@@@std@@QAE@XZ ; std::_Vector_val<CvEconomicAIStrategyXMLEntry *,std::allocator<CvEconomicAIStrategyXMLEntry *> >::~_Vector_val<CvEconomicAIStrategyXMLEntry *,std::allocator<CvEconomicAIStrategyXMLEntry *> >
PUBLIC	?_Buy@?$vector@PAVCvEconomicAIStrategyXMLEntry@@V?$allocator@PAVCvEconomicAIStrategyXMLEntry@@@std@@@std@@IAE_NI@Z ; std::vector<CvEconomicAIStrategyXMLEntry *,std::allocator<CvEconomicAIStrategyXMLEntry *> >::_Buy
PUBLIC	??0CvEconomicAIStrategyXMLEntries@@QAE@XZ	; CvEconomicAIStrategyXMLEntries::CvEconomicAIStrategyXMLEntries
EXTRN	__CxxThrowException@8:PROC
;	COMDAT xdata$x
; File c:\program files (x86)\microsoft visual studio 9.0\vc\include\exception
xdata$x	SEGMENT
__unwindtable$??0CvEconomicAIStrategyXMLEntries@@QAE@XZ DD 0ffffffffH
	DD	FLAT:__unwindfunclet$??0CvEconomicAIStrategyXMLEntries@@QAE@XZ$1
__ehfuncinfo$??0CvEconomicAIStrategyXMLEntries@@QAE@XZ DD 019930522H
	DD	01H
	DD	FLAT:__unwindtable$??0CvEconomicAIStrategyXMLEntries@@QAE@XZ
	DD	2 DUP(00H)
	DD	2 DUP(00H)
	DD	00H
	DD	01H
; Function compile flags: /Odtp
; File d:\sources\lekmod_git\checkout\lekmod_dll\cvgamecoredll_expansion2\cveconomicai.cpp
xdata$x	ENDS
;	COMDAT ??0CvEconomicAIStrategyXMLEntries@@QAE@XZ
_TEXT	SEGMENT
tv92 = -132						; size = 4
tv149 = -128						; size = 4
_this$ = -124						; size = 4
$T231057 = -30						; size = 1
$T231044 = -29						; size = 1
$T231040 = -28						; size = 4
$T231033 = -20						; size = 4
__$EHRec$ = -12						; size = 12
??0CvEconomicAIStrategyXMLEntries@@QAE@XZ PROC		; CvEconomicAIStrategyXMLEntries::CvEconomicAIStrategyXMLEntries, COMDAT
; _this$ = ecx

; 200  : {

	push	ebp
	mov	ebp, esp
	push	-1
	push	__ehhandler$??0CvEconomicAIStrategyXMLEntries@@QAE@XZ
	mov	eax, DWORD PTR fs:0
	push	eax
	sub	esp, 120				; 00000078H
	mov	eax, DWORD PTR ___security_cookie
	xor	eax, ebp
	push	eax
	lea	eax, DWORD PTR __$EHRec$[ebp]
	mov	DWORD PTR fs:0, eax
	mov	DWORD PTR _this$[ebp], ecx
	lea	eax, DWORD PTR $T231057[ebp]
	mov	DWORD PTR $T231033[ebp], eax
	lea	ecx, DWORD PTR $T231044[ebp]
	mov	DWORD PTR $T231040[ebp], ecx
	mov	edx, DWORD PTR _this$[ebp]
	mov	DWORD PTR tv149[ebp], edx
	mov	eax, DWORD PTR _this$[ebp]
	mov	DWORD PTR tv92[ebp], eax
	mov	DWORD PTR __$EHRec$[ebp+8], 0
	push	0
	mov	ecx, DWORD PTR _this$[ebp]
	call	?_Buy@?$vector@PAVCvEconomicAIStrategyXMLEntry@@V?$allocator@PAVCvEconomicAIStrategyXMLEntry@@@std@@@std@@IAE_NI@Z ; std::vector<CvEconomicAIStrategyXMLEntry *,std::allocator<CvEconomicAIStrategyXMLEntry *> >::_Buy
	mov	DWORD PTR __$EHRec$[ebp+8], -1

; 201  : 
; 202  : }

	mov	eax, DWORD PTR _this$[ebp]
	mov	ecx, DWORD PTR __$EHRec$[ebp]
	mov	DWORD PTR fs:0, ecx
	pop	ecx
	mov	esp, ebp
	pop	ebp
	ret	0
_TEXT	ENDS
;	COMDAT text$x
text$x	SEGMENT
__unwindfunclet$??0CvEconomicAIStrategyXMLEntries@@QAE@XZ$1:
	mov	ecx, DWORD PTR _this$[ebp]
	jmp	??1?$_Vector_val@PAVCvEconomicAIStrategyXMLEntry@@V?$allocator@PAVCvEconomicAIStrategyXMLEntry@@@std@@@std@@QAE@XZ
__ehhandler$??0CvEconomicAIStrategyXMLEntries@@QAE@XZ:
	mov	edx, DWORD PTR [esp+8]
	lea	eax, DWORD PTR [edx+12]
	mov	ecx, DWORD PTR [edx-124]
	xor	ecx, eax
	call	@__security_check_cookie@4
	mov	eax, OFFSET __ehfuncinfo$??0CvEconomicAIStrategyXMLEntries@@QAE@XZ
	jmp	___CxxFrameHandler3
text$x	ENDS
??0CvEconomicAIStrategyXMLEntries@@QAE@XZ ENDP		; CvEconomicAIStrategyXMLEntries::CvEconomicAIStrategyXMLEntries
PUBLIC	??1?$vector@PAVCvEconomicAIStrategyXMLEntry@@V?$allocator@PAVCvEconomicAIStrategyXMLEntry@@@std@@@std@@QAE@XZ ; std::vector<CvEconomicAIStrategyXMLEntry *,std::allocator<CvEconomicAIStrategyXMLEntry *> >::~vector<CvEconomicAIStrategyXMLEntry *,std::allocator<CvEconomicAIStrategyXMLEntry *> >
PUBLIC	?_Tidy@?$vector@PAVCvEconomicAIStrategyXMLEntry@@V?$allocator@PAVCvEconomicAIStrategyXMLEntry@@@std@@@std@@IAEXXZ ; std::vector<CvEconomicAIStrategyXMLEntry *,std::allocator<CvEconomicAIStrategyXMLEntry *> >::_Tidy
PUBLIC	?DeleteArray@CvEconomicAIStrategyXMLEntries@@QAEXXZ ; CvEconomicAIStrategyXMLEntries::DeleteArray
PUBLIC	??1CvEconomicAIStrategyXMLEntries@@QAE@XZ	; CvEconomicAIStrategyXMLEntries::~CvEconomicAIStrategyXMLEntries
;	COMDAT xdata$x
; File c:\program files (x86)\microsoft visual studio 9.0\vc\include\xutility
xdata$x	SEGMENT
__unwindtable$??1CvEconomicAIStrategyXMLEntries@@QAE@XZ DD 0ffffffffH
	DD	FLAT:__unwindfunclet$??1CvEconomicAIStrategyXMLEntries@@QAE@XZ$0
	DD	0ffffffffH
	DD	FLAT:__unwindfunclet$??1CvEconomicAIStrategyXMLEntries@@QAE@XZ$1
__ehfuncinfo$??1CvEconomicAIStrategyXMLEntries@@QAE@XZ DD 019930522H
	DD	02H
	DD	FLAT:__unwindtable$??1CvEconomicAIStrategyXMLEntries@@QAE@XZ
	DD	2 DUP(00H)
	DD	2 DUP(00H)
	DD	00H
	DD	01H
; Function compile flags: /Odtp
; File d:\sources\lekmod_git\checkout\lekmod_dll\cvgamecoredll_expansion2\cveconomicai.cpp
xdata$x	ENDS
;	COMDAT ??1CvEconomicAIStrategyXMLEntries@@QAE@XZ
_TEXT	SEGMENT
_this$ = -44						; size = 4
__$EHRec$ = -12						; size = 12
??1CvEconomicAIStrategyXMLEntries@@QAE@XZ PROC		; CvEconomicAIStrategyXMLEntries::~CvEconomicAIStrategyXMLEntries, COMDAT
; _this$ = ecx

; 206  : {

	push	ebp
	mov	ebp, esp
	push	-1
	push	__ehhandler$??1CvEconomicAIStrategyXMLEntries@@QAE@XZ
	mov	eax, DWORD PTR fs:0
	push	eax
	sub	esp, 32					; 00000020H
	mov	eax, DWORD PTR ___security_cookie
	xor	eax, ebp
	push	eax
	lea	eax, DWORD PTR __$EHRec$[ebp]
	mov	DWORD PTR fs:0, eax
	mov	DWORD PTR _this$[ebp], ecx
	mov	DWORD PTR __$EHRec$[ebp+8], 0

; 207  : 	DeleteArray();

	mov	ecx, DWORD PTR _this$[ebp]
	call	?DeleteArray@CvEconomicAIStrategyXMLEntries@@QAEXXZ ; CvEconomicAIStrategyXMLEntries::DeleteArray

; 208  : }

	mov	DWORD PTR __$EHRec$[ebp+8], 1
	mov	ecx, DWORD PTR _this$[ebp]
	call	?_Tidy@?$vector@PAVCvEconomicAIStrategyXMLEntry@@V?$allocator@PAVCvEconomicAIStrategyXMLEntry@@@std@@@std@@IAEXXZ ; std::vector<CvEconomicAIStrategyXMLEntry *,std::allocator<CvEconomicAIStrategyXMLEntry *> >::_Tidy
	mov	DWORD PTR __$EHRec$[ebp+8], -1
	mov	ecx, DWORD PTR __$EHRec$[ebp]
	mov	DWORD PTR fs:0, ecx
	pop	ecx
	mov	esp, ebp
	pop	ebp
	ret	0
_TEXT	ENDS
;	COMDAT text$x
text$x	SEGMENT
__unwindfunclet$??1CvEconomicAIStrategyXMLEntries@@QAE@XZ$0:
	mov	ecx, DWORD PTR _this$[ebp]
	jmp	??1?$vector@PAVCvEconomicAIStrategyXMLEntry@@V?$allocator@PAVCvEconomicAIStrategyXMLEntry@@@std@@@std@@QAE@XZ ; std::vector<CvEconomicAIStrategyXMLEntry *,std::allocator<CvEconomicAIStrategyXMLEntry *> >::~vector<CvEconomicAIStrategyXMLEntry *,std::allocator<CvEconomicAIStrategyXMLEntry *> >
__unwindfunclet$??1CvEconomicAIStrategyXMLEntries@@QAE@XZ$1:
	mov	ecx, DWORD PTR _this$[ebp]
	jmp	??1?$_Vector_val@PAVCvEconomicAIStrategyXMLEntry@@V?$allocator@PAVCvEconomicAIStrategyXMLEntry@@@std@@@std@@QAE@XZ
__ehhandler$??1CvEconomicAIStrategyXMLEntries@@QAE@XZ:
	mov	edx, DWORD PTR [esp+8]
	lea	eax, DWORD PTR [edx+12]
	mov	ecx, DWORD PTR [edx-36]
	xor	ecx, eax
	call	@__security_check_cookie@4
	mov	eax, OFFSET __ehfuncinfo$??1CvEconomicAIStrategyXMLEntries@@QAE@XZ
	jmp	___CxxFrameHandler3
text$x	ENDS
??1CvEconomicAIStrategyXMLEntries@@QAE@XZ ENDP		; CvEconomicAIStrategyXMLEntries::~CvEconomicAIStrategyXMLEntries
PUBLIC	?GetEconomicAIStrategyEntries@CvEconomicAIStrategyXMLEntries@@QAEAAV?$vector@PAVCvEconomicAIStrategyXMLEntry@@V?$allocator@PAVCvEconomicAIStrategyXMLEntry@@@std@@@std@@XZ ; CvEconomicAIStrategyXMLEntries::GetEconomicAIStrategyEntries
; Function compile flags: /Odtp
;	COMDAT ?GetEconomicAIStrategyEntries@CvEconomicAIStrategyXMLEntries@@QAEAAV?$vector@PAVCvEconomicAIStrategyXMLEntry@@V?$allocator@PAVCvEconomicAIStrategyXMLEntry@@@std@@@std@@XZ
_TEXT	SEGMENT
_this$ = -4						; size = 4
?GetEconomicAIStrategyEntries@CvEconomicAIStrategyXMLEntries@@QAEAAV?$vector@PAVCvEconomicAIStrategyXMLEntry@@V?$allocator@PAVCvEconomicAIStrategyXMLEntry@@@std@@@std@@XZ PROC ; CvEconomicAIStrategyXMLEntries::GetEconomicAIStrategyEntries, COMDAT
; _this$ = ecx

; 212  : {

	push	ebp
	mov	ebp, esp
	push	ecx
	mov	DWORD PTR _this$[ebp], ecx

; 213  : 	return m_paAIStrategyEntries;

	mov	eax, DWORD PTR _this$[ebp]

; 214  : }

	mov	esp, ebp
	pop	ebp
	ret	0
?GetEconomicAIStrategyEntries@CvEconomicAIStrategyXMLEntries@@QAEAAV?$vector@PAVCvEconomicAIStrategyXMLEntry@@V?$allocator@PAVCvEconomicAIStrategyXMLEntry@@@std@@@std@@XZ ENDP ; CvEconomicAIStrategyXMLEntries::GetEconomicAIStrategyEntries
_TEXT	ENDS
PUBLIC	?GetNumEconomicAIStrategies@CvEconomicAIStrategyXMLEntries@@QAEHXZ ; CvEconomicAIStrategyXMLEntries::GetNumEconomicAIStrategies
; Function compile flags: /Odtp
;	COMDAT ?GetNumEconomicAIStrategies@CvEconomicAIStrategyXMLEntries@@QAEHXZ
_TEXT	SEGMENT
_this$ = -4						; size = 4
?GetNumEconomicAIStrategies@CvEconomicAIStrategyXMLEntries@@QAEHXZ PROC ; CvEconomicAIStrategyXMLEntries::GetNumEconomicAIStrategies, COMDAT
; _this$ = ecx

; 218  : {

	push	ebp
	mov	ebp, esp
	push	ecx
	mov	DWORD PTR _this$[ebp], ecx

; 219  : 	return m_paAIStrategyEntries.size();

	mov	eax, DWORD PTR _this$[ebp]
	mov	ecx, DWORD PTR _this$[ebp]
	mov	eax, DWORD PTR [eax+8]
	sub	eax, DWORD PTR [ecx+4]
	sar	eax, 2

; 220  : }

	mov	esp, ebp
	pop	ebp
	ret	0
?GetNumEconomicAIStrategies@CvEconomicAIStrategyXMLEntries@@QAEHXZ ENDP ; CvEconomicAIStrategyXMLEntries::GetNumEconomicAIStrategies
_TEXT	ENDS
PUBLIC	?erase@?$vector@PAVCvEconomicAIStrategyXMLEntry@@V?$allocator@PAVCvEconomicAIStrategyXMLEntry@@@std@@@std@@QAE?AV?$_Vector_iterator@PAVCvEconomicAIStrategyXMLEntry@@V?$allocator@PAVCvEconomicAIStrategyXMLEntry@@@std@@@2@V?$_Vector_const_iterator@PAVCvEconomicAIStrategyXMLEntry@@V?$allocator@PAVCvEconomicAIStrategyXMLEntry@@@std@@@2@0@Z ; std::vector<CvEconomicAIStrategyXMLEntry *,std::allocator<CvEconomicAIStrategyXMLEntry *> >::erase
; Function compile flags: /Odtp
;	COMDAT ?DeleteArray@CvEconomicAIStrategyXMLEntries@@QAEXXZ
_TEXT	SEGMENT
tv145 = -116						; size = 4
_this$ = -112						; size = 4
$T231293 = -56						; size = 4
$T231277 = -52						; size = 4
$T231398 = -48						; size = 4
$T231397 = -44						; size = 4
$T231396 = -40						; size = 4
$T231395 = -36						; size = 4
$T231394 = -32						; size = 4
$T231261 = -28						; size = 4
$T231257 = -24						; size = 4
$T231256 = -20						; size = 4
$T231227 = -16						; size = 4
$T231203 = -12						; size = 4
$T231193 = -8						; size = 4
_it$224931 = -4						; size = 4
?DeleteArray@CvEconomicAIStrategyXMLEntries@@QAEXXZ PROC ; CvEconomicAIStrategyXMLEntries::DeleteArray, COMDAT
; _this$ = ecx

; 224  : {

	push	ebp
	mov	ebp, esp
	sub	esp, 116				; 00000074H
	mov	DWORD PTR _this$[ebp], ecx

; 225  : 	for(std::vector<CvEconomicAIStrategyXMLEntry*>::iterator it = m_paAIStrategyEntries.begin(); it != m_paAIStrategyEntries.end(); ++it)

	mov	eax, DWORD PTR _this$[ebp]
	mov	ecx, DWORD PTR [eax+4]
	mov	DWORD PTR $T231203[ebp], ecx
	mov	edx, DWORD PTR $T231203[ebp]
	mov	DWORD PTR _it$224931[ebp], edx
	jmp	SHORT $LN3@DeleteArra
$LN2@DeleteArra:
	mov	eax, DWORD PTR _it$224931[ebp]
	add	eax, 4
	mov	DWORD PTR _it$224931[ebp], eax
$LN3@DeleteArra:
	mov	ecx, DWORD PTR _this$[ebp]
	mov	edx, DWORD PTR [ecx+8]
	mov	DWORD PTR $T231227[ebp], edx
	mov	eax, DWORD PTR $T231227[ebp]
	mov	DWORD PTR $T231193[ebp], eax
	mov	ecx, DWORD PTR _it$224931[ebp]
	xor	edx, edx
	cmp	ecx, DWORD PTR $T231193[ebp]
	sete	dl
	movzx	eax, dl
	neg	eax
	sbb	eax, eax
	add	eax, 1
	movzx	ecx, al
	test	ecx, ecx
	je	SHORT $LN1@DeleteArra

; 226  : 	{
; 227  : 		SAFE_DELETE(*it);

	mov	edx, DWORD PTR _it$224931[ebp]
	mov	DWORD PTR $T231261[ebp], edx
	mov	eax, DWORD PTR $T231261[ebp]
	mov	ecx, DWORD PTR [eax]
	mov	DWORD PTR $T231257[ebp], ecx
	mov	edx, DWORD PTR $T231257[ebp]
	mov	DWORD PTR $T231256[ebp], edx
	cmp	DWORD PTR $T231256[ebp], 0
	je	SHORT $LN32@DeleteArra
	push	1
	mov	eax, DWORD PTR $T231256[ebp]
	mov	edx, DWORD PTR [eax]
	mov	ecx, DWORD PTR $T231256[ebp]
	mov	eax, DWORD PTR [edx+16]
	call	eax
	mov	DWORD PTR tv145[ebp], eax
	jmp	SHORT $LN33@DeleteArra
$LN32@DeleteArra:
	mov	DWORD PTR tv145[ebp], 0
$LN33@DeleteArra:
	mov	ecx, DWORD PTR $T231261[ebp]
	mov	DWORD PTR [ecx], 0

; 228  : 	}

	jmp	SHORT $LN2@DeleteArra
$LN1@DeleteArra:

; 229  : 
; 230  : 	m_paAIStrategyEntries.clear();

	mov	edx, DWORD PTR _this$[ebp]
	mov	eax, DWORD PTR [edx+8]
	mov	DWORD PTR $T231277[ebp], eax
	mov	ecx, DWORD PTR $T231277[ebp]
	mov	DWORD PTR $T231395[ebp], ecx
	mov	edx, DWORD PTR $T231395[ebp]
	mov	DWORD PTR $T231394[ebp], edx
	mov	eax, DWORD PTR _this$[ebp]
	mov	ecx, DWORD PTR [eax+4]
	mov	DWORD PTR $T231293[ebp], ecx
	mov	edx, DWORD PTR $T231293[ebp]
	mov	DWORD PTR $T231397[ebp], edx
	mov	eax, DWORD PTR $T231397[ebp]
	mov	DWORD PTR $T231396[ebp], eax
	mov	ecx, DWORD PTR $T231394[ebp]
	push	ecx
	mov	edx, DWORD PTR $T231396[ebp]
	push	edx
	lea	eax, DWORD PTR $T231398[ebp]
	push	eax
	mov	ecx, DWORD PTR _this$[ebp]
	call	?erase@?$vector@PAVCvEconomicAIStrategyXMLEntry@@V?$allocator@PAVCvEconomicAIStrategyXMLEntry@@@std@@@std@@QAE?AV?$_Vector_iterator@PAVCvEconomicAIStrategyXMLEntry@@V?$allocator@PAVCvEconomicAIStrategyXMLEntry@@@std@@@2@V?$_Vector_const_iterator@PAVCvEconomicAIStrategyXMLEntry@@V?$allocator@PAVCvEconomicAIStrategyXMLEntry@@@std@@@2@0@Z ; std::vector<CvEconomicAIStrategyXMLEntry *,std::allocator<CvEconomicAIStrategyXMLEntry *> >::erase

; 231  : }

	mov	esp, ebp
	pop	ebp
	ret	0
?DeleteArray@CvEconomicAIStrategyXMLEntries@@QAEXXZ ENDP ; CvEconomicAIStrategyXMLEntries::DeleteArray
_TEXT	ENDS
PUBLIC	?GetEntry@CvEconomicAIStrategyXMLEntries@@QAEPAVCvEconomicAIStrategyXMLEntry@@H@Z ; CvEconomicAIStrategyXMLEntries::GetEntry
; Function compile flags: /Odtp
;	COMDAT ?GetEntry@CvEconomicAIStrategyXMLEntries@@QAEPAVCvEconomicAIStrategyXMLEntry@@H@Z
_TEXT	SEGMENT
_this$ = -4						; size = 4
_index$ = 8						; size = 4
?GetEntry@CvEconomicAIStrategyXMLEntries@@QAEPAVCvEconomicAIStrategyXMLEntry@@H@Z PROC ; CvEconomicAIStrategyXMLEntries::GetEntry, COMDAT
; _this$ = ecx

; 235  : {

	push	ebp
	mov	ebp, esp
	push	ecx
	mov	DWORD PTR _this$[ebp], ecx

; 236  : 	return m_paAIStrategyEntries[index];

	mov	eax, DWORD PTR _this$[ebp]
	mov	ecx, DWORD PTR [eax+4]
	mov	edx, DWORD PTR _index$[ebp]
	mov	eax, DWORD PTR [ecx+edx*4]

; 237  : }

	mov	esp, ebp
	pop	ebp
	ret	4
?GetEntry@CvEconomicAIStrategyXMLEntries@@QAEPAVCvEconomicAIStrategyXMLEntry@@H@Z ENDP ; CvEconomicAIStrategyXMLEntries::GetEntry
_TEXT	ENDS
PUBLIC	??1?$FStaticVector@VCvPurchaseRequest@@$05$00$0BCJ@$0A@@@QAE@XZ ; FStaticVector<CvPurchaseRequest,6,1,297,0>::~FStaticVector<CvPurchaseRequest,6,1,297,0>
PUBLIC	??1?$FFastVector@UGoodyHutUnitAssignment@CvEconomicAI@@$0A@$0A@$0A@UFDefaultFastVectorAllocator@?$BaseVector@UGoodyHutUnitAssignment@CvEconomicAI@@$0A@@@@@QAE@XZ ; FFastVector<CvEconomicAI::GoodyHutUnitAssignment,0,0,0,BaseVector<CvEconomicAI::GoodyHutUnitAssignment,0>::FDefaultFastVectorAllocator>::~FFastVector<CvEconomicAI::GoodyHutUnitAssignment,0,0,0,BaseVector<CvEconomicAI::GoodyHutUnitAssignment,0>::FDefaultFastVectorAllocator>
PUBLIC	??1?$FFastVector@H$0A@$0A@$0A@UFDefaultFastVectorAllocator@?$BaseVector@H$0A@@@@@QAE@XZ ; FFastVector<int,0,0,0,BaseVector<int,0>::FDefaultFastVectorAllocator>::~FFastVector<int,0,0,0,BaseVector<int,0>::FDefaultFastVectorAllocator>
PUBLIC	??1?$FFastVector@I$0A@$0A@$0A@UFDefaultFastVectorAllocator@?$BaseVector@I$0A@@@@@QAE@XZ ; FFastVector<unsigned int,0,0,0,BaseVector<unsigned int,0>::FDefaultFastVectorAllocator>::~FFastVector<unsigned int,0,0,0,BaseVector<unsigned int,0>::FDefaultFastVectorAllocator>
PUBLIC	??0?$FFastVector@PAVCvUnit@@$0A@$0A@$0A@UFDefaultFastVectorAllocator@?$BaseVector@PAVCvUnit@@$0A@@@@@QAE@I@Z ; FFastVector<CvUnit *,0,0,0,BaseVector<CvUnit *,0>::FDefaultFastVectorAllocator>::FFastVector<CvUnit *,0,0,0,BaseVector<CvUnit *,0>::FDefaultFastVectorAllocator>
PUBLIC	??0?$FStaticVector@VCvPurchaseRequest@@$05$00$0BCJ@$0A@@@QAE@XZ ; FStaticVector<CvPurchaseRequest,6,1,297,0>::FStaticVector<CvPurchaseRequest,6,1,297,0>
PUBLIC	??0?$FFastVector@UGoodyHutUnitAssignment@CvEconomicAI@@$0A@$0A@$0A@UFDefaultFastVectorAllocator@?$BaseVector@UGoodyHutUnitAssignment@CvEconomicAI@@$0A@@@@@QAE@I@Z ; FFastVector<CvEconomicAI::GoodyHutUnitAssignment,0,0,0,BaseVector<CvEconomicAI::GoodyHutUnitAssignment,0>::FDefaultFastVectorAllocator>::FFastVector<CvEconomicAI::GoodyHutUnitAssignment,0,0,0,BaseVector<CvEconomicAI::GoodyHutUnitAssignment,0>::FDefaultFastVectorAllocator>
PUBLIC	??0?$FFastVector@H$0A@$0A@$0A@UFDefaultFastVectorAllocator@?$BaseVector@H$0A@@@@@QAE@I@Z ; FFastVector<int,0,0,0,BaseVector<int,0>::FDefaultFastVectorAllocator>::FFastVector<int,0,0,0,BaseVector<int,0>::FDefaultFastVectorAllocator>
PUBLIC	??0?$FFastVector@I$0A@$0A@$0A@UFDefaultFastVectorAllocator@?$BaseVector@I$0A@@@@@QAE@I@Z ; FFastVector<unsigned int,0,0,0,BaseVector<unsigned int,0>::FDefaultFastVectorAllocator>::FFastVector<unsigned int,0,0,0,BaseVector<unsigned int,0>::FDefaultFastVectorAllocator>
PUBLIC	??0CvEconomicAI@@QAE@XZ				; CvEconomicAI::CvEconomicAI
;	COMDAT xdata$x
; File d:\sources\lekmod_git\checkout\lekmod_dll\fireplace\include\fireworks\ffastvector.h
xdata$x	SEGMENT
__ehfuncinfo$??0CvEconomicAI@@QAE@XZ DD 019930522H
	DD	07H
	DD	FLAT:__unwindtable$??0CvEconomicAI@@QAE@XZ
	DD	2 DUP(00H)
	DD	2 DUP(00H)
	DD	00H
	DD	01H
__unwindtable$??0CvEconomicAI@@QAE@XZ DD 0ffffffffH
	DD	FLAT:__unwindfunclet$??0CvEconomicAI@@QAE@XZ$0
	DD	00H
	DD	FLAT:__unwindfunclet$??0CvEconomicAI@@QAE@XZ$1
	DD	01H
	DD	FLAT:__unwindfunclet$??0CvEconomicAI@@QAE@XZ$2
	DD	02H
	DD	FLAT:__unwindfunclet$??0CvEconomicAI@@QAE@XZ$3
	DD	03H
	DD	FLAT:__unwindfunclet$??0CvEconomicAI@@QAE@XZ$4
	DD	04H
	DD	FLAT:__unwindfunclet$??0CvEconomicAI@@QAE@XZ$5
	DD	05H
	DD	FLAT:__unwindfunclet$??0CvEconomicAI@@QAE@XZ$6
; Function compile flags: /Odtp
; File d:\sources\lekmod_git\checkout\lekmod_dll\cvgamecoredll_expansion2\cveconomicai.cpp
xdata$x	ENDS
;	COMDAT ??0CvEconomicAI@@QAE@XZ
_TEXT	SEGMENT
_this$ = -80						; size = 4
__$EHRec$ = -12						; size = 12
??0CvEconomicAI@@QAE@XZ PROC				; CvEconomicAI::CvEconomicAI, COMDAT
; _this$ = ecx

; 249  : {

	push	ebp
	mov	ebp, esp
	push	-1
	push	__ehhandler$??0CvEconomicAI@@QAE@XZ
	mov	eax, DWORD PTR fs:0
	push	eax
	sub	esp, 68					; 00000044H
	mov	eax, DWORD PTR ___security_cookie
	xor	eax, ebp
	push	eax
	lea	eax, DWORD PTR __$EHRec$[ebp]
	mov	DWORD PTR fs:0, eax
	mov	DWORD PTR _this$[ebp], ecx
	mov	eax, DWORD PTR _this$[ebp]
	mov	DWORD PTR [eax+12], 0
	mov	ecx, DWORD PTR _this$[ebp]
	mov	DWORD PTR [ecx+16], 0
	mov	edx, DWORD PTR _this$[ebp]
	mov	DWORD PTR [edx+20], 0
	mov	eax, DWORD PTR _this$[ebp]
	mov	DWORD PTR [eax+24], 1
	push	0
	mov	ecx, DWORD PTR _this$[ebp]
	add	ecx, 52					; 00000034H
	call	??0?$FFastVector@I$0A@$0A@$0A@UFDefaultFastVectorAllocator@?$BaseVector@I$0A@@@@@QAE@I@Z ; FFastVector<unsigned int,0,0,0,BaseVector<unsigned int,0>::FDefaultFastVectorAllocator>::FFastVector<unsigned int,0,0,0,BaseVector<unsigned int,0>::FDefaultFastVectorAllocator>
	mov	DWORD PTR __$EHRec$[ebp+8], 0
	push	0
	mov	ecx, DWORD PTR _this$[ebp]
	add	ecx, 64					; 00000040H
	call	??0?$FFastVector@H$0A@$0A@$0A@UFDefaultFastVectorAllocator@?$BaseVector@H$0A@@@@@QAE@I@Z ; FFastVector<int,0,0,0,BaseVector<int,0>::FDefaultFastVectorAllocator>::FFastVector<int,0,0,0,BaseVector<int,0>::FDefaultFastVectorAllocator>
	mov	BYTE PTR __$EHRec$[ebp+8], 1
	push	0
	mov	ecx, DWORD PTR _this$[ebp]
	add	ecx, 76					; 0000004cH
	call	??0?$FFastVector@H$0A@$0A@$0A@UFDefaultFastVectorAllocator@?$BaseVector@H$0A@@@@@QAE@I@Z ; FFastVector<int,0,0,0,BaseVector<int,0>::FDefaultFastVectorAllocator>::FFastVector<int,0,0,0,BaseVector<int,0>::FDefaultFastVectorAllocator>
	mov	BYTE PTR __$EHRec$[ebp+8], 2
	push	0
	mov	ecx, DWORD PTR _this$[ebp]
	add	ecx, 88					; 00000058H
	call	??0?$FFastVector@H$0A@$0A@$0A@UFDefaultFastVectorAllocator@?$BaseVector@H$0A@@@@@QAE@I@Z ; FFastVector<int,0,0,0,BaseVector<int,0>::FDefaultFastVectorAllocator>::FFastVector<int,0,0,0,BaseVector<int,0>::FDefaultFastVectorAllocator>
	mov	BYTE PTR __$EHRec$[ebp+8], 3
	push	0
	mov	ecx, DWORD PTR _this$[ebp]
	add	ecx, 100				; 00000064H
	call	??0?$FFastVector@UGoodyHutUnitAssignment@CvEconomicAI@@$0A@$0A@$0A@UFDefaultFastVectorAllocator@?$BaseVector@UGoodyHutUnitAssignment@CvEconomicAI@@$0A@@@@@QAE@I@Z ; FFastVector<CvEconomicAI::GoodyHutUnitAssignment,0,0,0,BaseVector<CvEconomicAI::GoodyHutUnitAssignment,0>::FDefaultFastVectorAllocator>::FFastVector<CvEconomicAI::GoodyHutUnitAssignment,0,0,0,BaseVector<CvEconomicAI::GoodyHutUnitAssignment,0>::FDefaultFastVectorAllocator>
	mov	BYTE PTR __$EHRec$[ebp+8], 4
	mov	ecx, DWORD PTR _this$[ebp]
	add	ecx, 112				; 00000070H
	call	??0?$FStaticVector@VCvPurchaseRequest@@$05$00$0BCJ@$0A@@@QAE@XZ ; FStaticVector<CvPurchaseRequest,6,1,297,0>::FStaticVector<CvPurchaseRequest,6,1,297,0>
	mov	BYTE PTR __$EHRec$[ebp+8], 5
	mov	ecx, DWORD PTR _this$[ebp]
	add	ecx, 200				; 000000c8H
	call	??0?$FStaticVector@VCvPurchaseRequest@@$05$00$0BCJ@$0A@@@QAE@XZ ; FStaticVector<CvPurchaseRequest,6,1,297,0>::FStaticVector<CvPurchaseRequest,6,1,297,0>
	mov	BYTE PTR __$EHRec$[ebp+8], 6
	push	0
	mov	ecx, DWORD PTR _this$[ebp]
	add	ecx, 288				; 00000120H
	call	??0?$FFastVector@PAVCvUnit@@$0A@$0A@$0A@UFDefaultFastVectorAllocator@?$BaseVector@PAVCvUnit@@$0A@@@@@QAE@I@Z ; FFastVector<CvUnit *,0,0,0,BaseVector<CvUnit *,0>::FDefaultFastVectorAllocator>::FFastVector<CvUnit *,0,0,0,BaseVector<CvUnit *,0>::FDefaultFastVectorAllocator>

; 250  : }

	mov	DWORD PTR __$EHRec$[ebp+8], -1
	mov	eax, DWORD PTR _this$[ebp]
	mov	ecx, DWORD PTR __$EHRec$[ebp]
	mov	DWORD PTR fs:0, ecx
	pop	ecx
	mov	esp, ebp
	pop	ebp
	ret	0
_TEXT	ENDS
;	COMDAT text$x
text$x	SEGMENT
__unwindfunclet$??0CvEconomicAI@@QAE@XZ$0:
	mov	ecx, DWORD PTR _this$[ebp]
	add	ecx, 52					; 00000034H
	jmp	??1?$FFastVector@I$0A@$0A@$0A@UFDefaultFastVectorAllocator@?$BaseVector@I$0A@@@@@QAE@XZ ; FFastVector<unsigned int,0,0,0,BaseVector<unsigned int,0>::FDefaultFastVectorAllocator>::~FFastVector<unsigned int,0,0,0,BaseVector<unsigned int,0>::FDefaultFastVectorAllocator>
__unwindfunclet$??0CvEconomicAI@@QAE@XZ$1:
	mov	ecx, DWORD PTR _this$[ebp]
	add	ecx, 64					; 00000040H
	jmp	??1?$FFastVector@H$0A@$0A@$0A@UFDefaultFastVectorAllocator@?$BaseVector@H$0A@@@@@QAE@XZ ; FFastVector<int,0,0,0,BaseVector<int,0>::FDefaultFastVectorAllocator>::~FFastVector<int,0,0,0,BaseVector<int,0>::FDefaultFastVectorAllocator>
__unwindfunclet$??0CvEconomicAI@@QAE@XZ$2:
	mov	ecx, DWORD PTR _this$[ebp]
	add	ecx, 76					; 0000004cH
	jmp	??1?$FFastVector@H$0A@$0A@$0A@UFDefaultFastVectorAllocator@?$BaseVector@H$0A@@@@@QAE@XZ ; FFastVector<int,0,0,0,BaseVector<int,0>::FDefaultFastVectorAllocator>::~FFastVector<int,0,0,0,BaseVector<int,0>::FDefaultFastVectorAllocator>
__unwindfunclet$??0CvEconomicAI@@QAE@XZ$3:
	mov	ecx, DWORD PTR _this$[ebp]
	add	ecx, 88					; 00000058H
	jmp	??1?$FFastVector@H$0A@$0A@$0A@UFDefaultFastVectorAllocator@?$BaseVector@H$0A@@@@@QAE@XZ ; FFastVector<int,0,0,0,BaseVector<int,0>::FDefaultFastVectorAllocator>::~FFastVector<int,0,0,0,BaseVector<int,0>::FDefaultFastVectorAllocator>
__unwindfunclet$??0CvEconomicAI@@QAE@XZ$4:
	mov	ecx, DWORD PTR _this$[ebp]
	add	ecx, 100				; 00000064H
	jmp	??1?$FFastVector@UGoodyHutUnitAssignment@CvEconomicAI@@$0A@$0A@$0A@UFDefaultFastVectorAllocator@?$BaseVector@UGoodyHutUnitAssignment@CvEconomicAI@@$0A@@@@@QAE@XZ ; FFastVector<CvEconomicAI::GoodyHutUnitAssignment,0,0,0,BaseVector<CvEconomicAI::GoodyHutUnitAssignment,0>::FDefaultFastVectorAllocator>::~FFastVector<CvEconomicAI::GoodyHutUnitAssignment,0,0,0,BaseVector<CvEconomicAI::GoodyHutUnitAssignment,0>::FDefaultFastVectorAllocator>
__unwindfunclet$??0CvEconomicAI@@QAE@XZ$5:
	mov	ecx, DWORD PTR _this$[ebp]
	add	ecx, 112				; 00000070H
	jmp	??1?$FStaticVector@VCvPurchaseRequest@@$05$00$0BCJ@$0A@@@QAE@XZ ; FStaticVector<CvPurchaseRequest,6,1,297,0>::~FStaticVector<CvPurchaseRequest,6,1,297,0>
__unwindfunclet$??0CvEconomicAI@@QAE@XZ$6:
	mov	ecx, DWORD PTR _this$[ebp]
	add	ecx, 200				; 000000c8H
	jmp	??1?$FStaticVector@VCvPurchaseRequest@@$05$00$0BCJ@$0A@@@QAE@XZ ; FStaticVector<CvPurchaseRequest,6,1,297,0>::~FStaticVector<CvPurchaseRequest,6,1,297,0>
__ehhandler$??0CvEconomicAI@@QAE@XZ:
	mov	edx, DWORD PTR [esp+8]
	lea	eax, DWORD PTR [edx+12]
	mov	ecx, DWORD PTR [edx-72]
	xor	ecx, eax
	call	@__security_check_cookie@4
	mov	eax, OFFSET __ehfuncinfo$??0CvEconomicAI@@QAE@XZ
	jmp	___CxxFrameHandler3
text$x	ENDS
??0CvEconomicAI@@QAE@XZ ENDP				; CvEconomicAI::CvEconomicAI
PUBLIC	??1?$BaseVector@I$0A@@@QAE@XZ			; BaseVector<unsigned int,0>::~BaseVector<unsigned int,0>
PUBLIC	??1?$BaseVector@H$0A@@@QAE@XZ			; BaseVector<int,0>::~BaseVector<int,0>
PUBLIC	??1?$BaseVector@UGoodyHutUnitAssignment@CvEconomicAI@@$0A@@@QAE@XZ ; BaseVector<CvEconomicAI::GoodyHutUnitAssignment,0>::~BaseVector<CvEconomicAI::GoodyHutUnitAssignment,0>
PUBLIC	??1?$BaseVector@PAVCvUnit@@$0A@@@QAE@XZ		; BaseVector<CvUnit *,0>::~BaseVector<CvUnit *,0>
PUBLIC	??1?$FFastVector@PAVCvUnit@@$0A@$0A@$0A@UFDefaultFastVectorAllocator@?$BaseVector@PAVCvUnit@@$0A@@@@@QAE@XZ ; FFastVector<CvUnit *,0,0,0,BaseVector<CvUnit *,0>::FDefaultFastVectorAllocator>::~FFastVector<CvUnit *,0,0,0,BaseVector<CvUnit *,0>::FDefaultFastVectorAllocator>
PUBLIC	?Destroy@?$BaseVector@H$0A@@@IAEXPAHI@Z		; BaseVector<int,0>::Destroy
PUBLIC	?Destroy@?$BaseVector@UGoodyHutUnitAssignment@CvEconomicAI@@$0A@@@IAEXPAUGoodyHutUnitAssignment@CvEconomicAI@@I@Z ; BaseVector<CvEconomicAI::GoodyHutUnitAssignment,0>::Destroy
PUBLIC	?Destroy@?$BaseVector@PAVCvUnit@@$0A@@@IAEXPAPAVCvUnit@@I@Z ; BaseVector<CvUnit *,0>::Destroy
PUBLIC	?Uninit@CvEconomicAI@@QAEXXZ			; CvEconomicAI::Uninit
PUBLIC	??1CvEconomicAI@@QAE@XZ				; CvEconomicAI::~CvEconomicAI
EXTRN	?FireFreeAlignedNoTracking@@YAXPAX@Z:PROC	; FireFreeAlignedNoTracking
;	COMDAT xdata$x
; File d:\sources\lekmod_git\checkout\lekmod_dll\fireplace\include\fireworks\ffastvector.h
xdata$x	SEGMENT
__ehfuncinfo$??1CvEconomicAI@@QAE@XZ DD 019930522H
	DD	0eH
	DD	FLAT:__unwindtable$??1CvEconomicAI@@QAE@XZ
	DD	2 DUP(00H)
	DD	2 DUP(00H)
	DD	00H
	DD	01H
__unwindtable$??1CvEconomicAI@@QAE@XZ DD 0ffffffffH
	DD	FLAT:__unwindfunclet$??1CvEconomicAI@@QAE@XZ$0
	DD	00H
	DD	FLAT:__unwindfunclet$??1CvEconomicAI@@QAE@XZ$1
	DD	01H
	DD	FLAT:__unwindfunclet$??1CvEconomicAI@@QAE@XZ$2
	DD	02H
	DD	FLAT:__unwindfunclet$??1CvEconomicAI@@QAE@XZ$3
	DD	03H
	DD	FLAT:__unwindfunclet$??1CvEconomicAI@@QAE@XZ$4
	DD	04H
	DD	FLAT:__unwindfunclet$??1CvEconomicAI@@QAE@XZ$5
	DD	05H
	DD	FLAT:__unwindfunclet$??1CvEconomicAI@@QAE@XZ$6
	DD	06H
	DD	FLAT:__unwindfunclet$??1CvEconomicAI@@QAE@XZ$7
	DD	06H
	DD	FLAT:__unwindfunclet$??1CvEconomicAI@@QAE@XZ$8
	DD	03H
	DD	FLAT:__unwindfunclet$??1CvEconomicAI@@QAE@XZ$11
	DD	02H
	DD	FLAT:__unwindfunclet$??1CvEconomicAI@@QAE@XZ$12
	DD	01H
	DD	FLAT:__unwindfunclet$??1CvEconomicAI@@QAE@XZ$13
	DD	00H
	DD	FLAT:__unwindfunclet$??1CvEconomicAI@@QAE@XZ$14
	DD	0ffffffffH
	DD	FLAT:__unwindfunclet$??1CvEconomicAI@@QAE@XZ$15
; Function compile flags: /Odtp
; File d:\sources\lekmod_git\checkout\lekmod_dll\cvgamecoredll_expansion2\cveconomicai.cpp
xdata$x	ENDS
;	COMDAT ??1CvEconomicAI@@QAE@XZ
_TEXT	SEGMENT
_this$ = -112						; size = 4
$T231785 = -108						; size = 4
$T231765 = -104						; size = 4
$T231764 = -100						; size = 4
_i$231775 = -96						; size = 4
$T231737 = -92						; size = 4
$T231717 = -88						; size = 4
$T231716 = -84						; size = 4
_i$231727 = -80						; size = 4
$T231689 = -76						; size = 4
$T231676 = -72						; size = 4
$T231675 = -68						; size = 4
$T231663 = -64						; size = 4
$T231650 = -60						; size = 4
$T231649 = -56						; size = 4
$T231637 = -52						; size = 4
$T231624 = -48						; size = 4
$T231623 = -44						; size = 4
$T231587 = -24						; size = 4
$T231574 = -20						; size = 4
$T231573 = -16						; size = 4
__$EHRec$ = -12						; size = 12
??1CvEconomicAI@@QAE@XZ PROC				; CvEconomicAI::~CvEconomicAI, COMDAT
; _this$ = ecx

; 254  : {

	push	ebp
	mov	ebp, esp
	push	-1
	push	__ehhandler$??1CvEconomicAI@@QAE@XZ
	mov	eax, DWORD PTR fs:0
	push	eax
	sub	esp, 100				; 00000064H
	mov	eax, DWORD PTR ___security_cookie
	xor	eax, ebp
	push	eax
	lea	eax, DWORD PTR __$EHRec$[ebp]
	mov	DWORD PTR fs:0, eax
	mov	DWORD PTR _this$[ebp], ecx
	mov	DWORD PTR __$EHRec$[ebp+8], 7

; 255  : 	Uninit();

	mov	ecx, DWORD PTR _this$[ebp]
	call	?Uninit@CvEconomicAI@@QAEXXZ		; CvEconomicAI::Uninit

; 256  : }

	mov	BYTE PTR __$EHRec$[ebp+8], 6
	mov	eax, DWORD PTR _this$[ebp]
	add	eax, 288				; 00000120H
	mov	DWORD PTR $T231587[ebp], eax
	mov	BYTE PTR __$EHRec$[ebp+8], 8
	mov	ecx, DWORD PTR $T231587[ebp]
	mov	edx, DWORD PTR [ecx+4]
	mov	DWORD PTR $T231574[ebp], edx
	mov	eax, DWORD PTR $T231587[ebp]
	mov	ecx, DWORD PTR [eax]
	mov	DWORD PTR $T231573[ebp], ecx
	mov	edx, 1
	test	edx, edx
	je	SHORT $LN14@CvEconomic
	mov	eax, DWORD PTR $T231574[ebp]
	push	eax
	mov	ecx, DWORD PTR $T231573[ebp]
	push	ecx
	mov	ecx, DWORD PTR $T231587[ebp]
	call	?Destroy@?$BaseVector@PAVCvUnit@@$0A@@@IAEXPAPAVCvUnit@@I@Z ; BaseVector<CvUnit *,0>::Destroy
$LN14@CvEconomic:
	mov	edx, DWORD PTR $T231573[ebp]
	push	edx
	call	?FireFreeAlignedNoTracking@@YAXPAX@Z	; FireFreeAlignedNoTracking
	add	esp, 4
	mov	BYTE PTR __$EHRec$[ebp+8], 6
	mov	BYTE PTR __$EHRec$[ebp+8], 5
	mov	ecx, DWORD PTR _this$[ebp]
	add	ecx, 200				; 000000c8H
	call	??1?$FStaticVector@VCvPurchaseRequest@@$05$00$0BCJ@$0A@@@QAE@XZ ; FStaticVector<CvPurchaseRequest,6,1,297,0>::~FStaticVector<CvPurchaseRequest,6,1,297,0>
	mov	BYTE PTR __$EHRec$[ebp+8], 4
	mov	ecx, DWORD PTR _this$[ebp]
	add	ecx, 112				; 00000070H
	call	??1?$FStaticVector@VCvPurchaseRequest@@$05$00$0BCJ@$0A@@@QAE@XZ ; FStaticVector<CvPurchaseRequest,6,1,297,0>::~FStaticVector<CvPurchaseRequest,6,1,297,0>
	mov	BYTE PTR __$EHRec$[ebp+8], 3
	mov	eax, DWORD PTR _this$[ebp]
	add	eax, 100				; 00000064H
	mov	DWORD PTR $T231637[ebp], eax
	mov	BYTE PTR __$EHRec$[ebp+8], 9
	mov	ecx, DWORD PTR $T231637[ebp]
	mov	edx, DWORD PTR [ecx+4]
	mov	DWORD PTR $T231624[ebp], edx
	mov	eax, DWORD PTR $T231637[ebp]
	mov	ecx, DWORD PTR [eax]
	mov	DWORD PTR $T231623[ebp], ecx
	mov	edx, 1
	test	edx, edx
	je	SHORT $LN42@CvEconomic
	mov	eax, DWORD PTR $T231624[ebp]
	push	eax
	mov	ecx, DWORD PTR $T231623[ebp]
	push	ecx
	mov	ecx, DWORD PTR $T231637[ebp]
	call	?Destroy@?$BaseVector@UGoodyHutUnitAssignment@CvEconomicAI@@$0A@@@IAEXPAUGoodyHutUnitAssignment@CvEconomicAI@@I@Z ; BaseVector<CvEconomicAI::GoodyHutUnitAssignment,0>::Destroy
$LN42@CvEconomic:
	mov	edx, DWORD PTR $T231623[ebp]
	push	edx
	call	?FireFreeAlignedNoTracking@@YAXPAX@Z	; FireFreeAlignedNoTracking
	add	esp, 4
	mov	BYTE PTR __$EHRec$[ebp+8], 3
	mov	BYTE PTR __$EHRec$[ebp+8], 2
	mov	eax, DWORD PTR _this$[ebp]
	add	eax, 88					; 00000058H
	mov	DWORD PTR $T231663[ebp], eax
	mov	BYTE PTR __$EHRec$[ebp+8], 10		; 0000000aH
	mov	ecx, DWORD PTR $T231663[ebp]
	mov	edx, DWORD PTR [ecx+4]
	mov	DWORD PTR $T231650[ebp], edx
	mov	eax, DWORD PTR $T231663[ebp]
	mov	ecx, DWORD PTR [eax]
	mov	DWORD PTR $T231649[ebp], ecx
	mov	edx, 1
	test	edx, edx
	je	SHORT $LN52@CvEconomic
	mov	eax, DWORD PTR $T231650[ebp]
	push	eax
	mov	ecx, DWORD PTR $T231649[ebp]
	push	ecx
	mov	ecx, DWORD PTR $T231663[ebp]
	call	?Destroy@?$BaseVector@H$0A@@@IAEXPAHI@Z	; BaseVector<int,0>::Destroy
$LN52@CvEconomic:
	mov	edx, DWORD PTR $T231649[ebp]
	push	edx
	call	?FireFreeAlignedNoTracking@@YAXPAX@Z	; FireFreeAlignedNoTracking
	add	esp, 4
	mov	BYTE PTR __$EHRec$[ebp+8], 2
	mov	BYTE PTR __$EHRec$[ebp+8], 1
	mov	eax, DWORD PTR _this$[ebp]
	add	eax, 76					; 0000004cH
	mov	DWORD PTR $T231689[ebp], eax
	mov	BYTE PTR __$EHRec$[ebp+8], 11		; 0000000bH
	mov	ecx, DWORD PTR $T231689[ebp]
	mov	edx, DWORD PTR [ecx+4]
	mov	DWORD PTR $T231676[ebp], edx
	mov	eax, DWORD PTR $T231689[ebp]
	mov	ecx, DWORD PTR [eax]
	mov	DWORD PTR $T231675[ebp], ecx
	mov	edx, 1
	test	edx, edx
	je	SHORT $LN62@CvEconomic
	mov	eax, DWORD PTR $T231676[ebp]
	push	eax
	mov	ecx, DWORD PTR $T231675[ebp]
	push	ecx
	mov	ecx, DWORD PTR $T231689[ebp]
	call	?Destroy@?$BaseVector@H$0A@@@IAEXPAHI@Z	; BaseVector<int,0>::Destroy
$LN62@CvEconomic:
	mov	edx, DWORD PTR $T231675[ebp]
	push	edx
	call	?FireFreeAlignedNoTracking@@YAXPAX@Z	; FireFreeAlignedNoTracking
	add	esp, 4
	mov	BYTE PTR __$EHRec$[ebp+8], 1
	mov	BYTE PTR __$EHRec$[ebp+8], 0
	mov	eax, DWORD PTR _this$[ebp]
	add	eax, 64					; 00000040H
	mov	DWORD PTR $T231737[ebp], eax
	mov	BYTE PTR __$EHRec$[ebp+8], 12		; 0000000cH
	mov	ecx, DWORD PTR $T231737[ebp]
	mov	edx, DWORD PTR [ecx+4]
	mov	DWORD PTR $T231717[ebp], edx
	mov	eax, DWORD PTR $T231737[ebp]
	mov	ecx, DWORD PTR [eax]
	mov	DWORD PTR $T231716[ebp], ecx
	mov	edx, 1
	test	edx, edx
	je	SHORT $LN72@CvEconomic
	mov	eax, 1
	test	eax, eax
	je	SHORT $LN72@CvEconomic
	mov	DWORD PTR _i$231727[ebp], 0
	jmp	SHORT $LN77@CvEconomic
$LN76@CvEconomic:
	mov	ecx, DWORD PTR _i$231727[ebp]
	add	ecx, 1
	mov	DWORD PTR _i$231727[ebp], ecx
$LN77@CvEconomic:
	mov	edx, DWORD PTR _i$231727[ebp]
	cmp	edx, DWORD PTR $T231717[ebp]
	jae	SHORT $LN72@CvEconomic
	jmp	SHORT $LN76@CvEconomic
$LN72@CvEconomic:
	mov	eax, DWORD PTR $T231716[ebp]
	push	eax
	call	?FireFreeAlignedNoTracking@@YAXPAX@Z	; FireFreeAlignedNoTracking
	add	esp, 4
	mov	BYTE PTR __$EHRec$[ebp+8], 0
	mov	DWORD PTR __$EHRec$[ebp+8], -1
	mov	ecx, DWORD PTR _this$[ebp]
	add	ecx, 52					; 00000034H
	mov	DWORD PTR $T231785[ebp], ecx
	mov	DWORD PTR __$EHRec$[ebp+8], 13		; 0000000dH
	mov	edx, DWORD PTR $T231785[ebp]
	mov	eax, DWORD PTR [edx+4]
	mov	DWORD PTR $T231765[ebp], eax
	mov	ecx, DWORD PTR $T231785[ebp]
	mov	edx, DWORD PTR [ecx]
	mov	DWORD PTR $T231764[ebp], edx
	mov	eax, 1
	test	eax, eax
	je	SHORT $LN88@CvEconomic
	mov	ecx, 1
	test	ecx, ecx
	je	SHORT $LN88@CvEconomic
	mov	DWORD PTR _i$231775[ebp], 0
	jmp	SHORT $LN93@CvEconomic
$LN92@CvEconomic:
	mov	edx, DWORD PTR _i$231775[ebp]
	add	edx, 1
	mov	DWORD PTR _i$231775[ebp], edx
$LN93@CvEconomic:
	mov	eax, DWORD PTR _i$231775[ebp]
	cmp	eax, DWORD PTR $T231765[ebp]
	jae	SHORT $LN88@CvEconomic
	jmp	SHORT $LN92@CvEconomic
$LN88@CvEconomic:
	mov	ecx, DWORD PTR $T231764[ebp]
	push	ecx
	call	?FireFreeAlignedNoTracking@@YAXPAX@Z	; FireFreeAlignedNoTracking
	add	esp, 4
	mov	DWORD PTR __$EHRec$[ebp+8], -1
	mov	ecx, DWORD PTR __$EHRec$[ebp]
	mov	DWORD PTR fs:0, ecx
	pop	ecx
	mov	esp, ebp
	pop	ebp
	ret	0
_TEXT	ENDS
;	COMDAT text$x
text$x	SEGMENT
__unwindfunclet$??1CvEconomicAI@@QAE@XZ$0:
	mov	ecx, DWORD PTR _this$[ebp]
	add	ecx, 52					; 00000034H
	jmp	??1?$FFastVector@I$0A@$0A@$0A@UFDefaultFastVectorAllocator@?$BaseVector@I$0A@@@@@QAE@XZ ; FFastVector<unsigned int,0,0,0,BaseVector<unsigned int,0>::FDefaultFastVectorAllocator>::~FFastVector<unsigned int,0,0,0,BaseVector<unsigned int,0>::FDefaultFastVectorAllocator>
__unwindfunclet$??1CvEconomicAI@@QAE@XZ$1:
	mov	ecx, DWORD PTR _this$[ebp]
	add	ecx, 64					; 00000040H
	jmp	??1?$FFastVector@H$0A@$0A@$0A@UFDefaultFastVectorAllocator@?$BaseVector@H$0A@@@@@QAE@XZ ; FFastVector<int,0,0,0,BaseVector<int,0>::FDefaultFastVectorAllocator>::~FFastVector<int,0,0,0,BaseVector<int,0>::FDefaultFastVectorAllocator>
__unwindfunclet$??1CvEconomicAI@@QAE@XZ$2:
	mov	ecx, DWORD PTR _this$[ebp]
	add	ecx, 76					; 0000004cH
	jmp	??1?$FFastVector@H$0A@$0A@$0A@UFDefaultFastVectorAllocator@?$BaseVector@H$0A@@@@@QAE@XZ ; FFastVector<int,0,0,0,BaseVector<int,0>::FDefaultFastVectorAllocator>::~FFastVector<int,0,0,0,BaseVector<int,0>::FDefaultFastVectorAllocator>
__unwindfunclet$??1CvEconomicAI@@QAE@XZ$3:
	mov	ecx, DWORD PTR _this$[ebp]
	add	ecx, 88					; 00000058H
	jmp	??1?$FFastVector@H$0A@$0A@$0A@UFDefaultFastVectorAllocator@?$BaseVector@H$0A@@@@@QAE@XZ ; FFastVector<int,0,0,0,BaseVector<int,0>::FDefaultFastVectorAllocator>::~FFastVector<int,0,0,0,BaseVector<int,0>::FDefaultFastVectorAllocator>
__unwindfunclet$??1CvEconomicAI@@QAE@XZ$4:
	mov	ecx, DWORD PTR _this$[ebp]
	add	ecx, 100				; 00000064H
	jmp	??1?$FFastVector@UGoodyHutUnitAssignment@CvEconomicAI@@$0A@$0A@$0A@UFDefaultFastVectorAllocator@?$BaseVector@UGoodyHutUnitAssignment@CvEconomicAI@@$0A@@@@@QAE@XZ ; FFastVector<CvEconomicAI::GoodyHutUnitAssignment,0,0,0,BaseVector<CvEconomicAI::GoodyHutUnitAssignment,0>::FDefaultFastVectorAllocator>::~FFastVector<CvEconomicAI::GoodyHutUnitAssignment,0,0,0,BaseVector<CvEconomicAI::GoodyHutUnitAssignment,0>::FDefaultFastVectorAllocator>
__unwindfunclet$??1CvEconomicAI@@QAE@XZ$5:
	mov	ecx, DWORD PTR _this$[ebp]
	add	ecx, 112				; 00000070H
	jmp	??1?$FStaticVector@VCvPurchaseRequest@@$05$00$0BCJ@$0A@@@QAE@XZ ; FStaticVector<CvPurchaseRequest,6,1,297,0>::~FStaticVector<CvPurchaseRequest,6,1,297,0>
__unwindfunclet$??1CvEconomicAI@@QAE@XZ$6:
	mov	ecx, DWORD PTR _this$[ebp]
	add	ecx, 200				; 000000c8H
	jmp	??1?$FStaticVector@VCvPurchaseRequest@@$05$00$0BCJ@$0A@@@QAE@XZ ; FStaticVector<CvPurchaseRequest,6,1,297,0>::~FStaticVector<CvPurchaseRequest,6,1,297,0>
__unwindfunclet$??1CvEconomicAI@@QAE@XZ$7:
	mov	ecx, DWORD PTR _this$[ebp]
	add	ecx, 288				; 00000120H
	jmp	??1?$FFastVector@PAVCvUnit@@$0A@$0A@$0A@UFDefaultFastVectorAllocator@?$BaseVector@PAVCvUnit@@$0A@@@@@QAE@XZ ; FFastVector<CvUnit *,0,0,0,BaseVector<CvUnit *,0>::FDefaultFastVectorAllocator>::~FFastVector<CvUnit *,0,0,0,BaseVector<CvUnit *,0>::FDefaultFastVectorAllocator>
__unwindfunclet$??1CvEconomicAI@@QAE@XZ$8:
	mov	ecx, DWORD PTR $T231587[ebp]
	jmp	??1?$BaseVector@PAVCvUnit@@$0A@@@QAE@XZ	; BaseVector<CvUnit *,0>::~BaseVector<CvUnit *,0>
__unwindfunclet$??1CvEconomicAI@@QAE@XZ$11:
	mov	ecx, DWORD PTR $T231637[ebp]
	jmp	??1?$BaseVector@UGoodyHutUnitAssignment@CvEconomicAI@@$0A@@@QAE@XZ ; BaseVector<CvEconomicAI::GoodyHutUnitAssignment,0>::~BaseVector<CvEconomicAI::GoodyHutUnitAssignment,0>
__unwindfunclet$??1CvEconomicAI@@QAE@XZ$12:
	mov	ecx, DWORD PTR $T231663[ebp]
	jmp	??1?$BaseVector@H$0A@@@QAE@XZ		; BaseVector<int,0>::~BaseVector<int,0>
__unwindfunclet$??1CvEconomicAI@@QAE@XZ$13:
	mov	ecx, DWORD PTR $T231689[ebp]
	jmp	??1?$BaseVector@H$0A@@@QAE@XZ		; BaseVector<int,0>::~BaseVector<int,0>
__unwindfunclet$??1CvEconomicAI@@QAE@XZ$14:
	mov	ecx, DWORD PTR $T231737[ebp]
	jmp	??1?$BaseVector@H$0A@@@QAE@XZ		; BaseVector<int,0>::~BaseVector<int,0>
__unwindfunclet$??1CvEconomicAI@@QAE@XZ$15:
	mov	ecx, DWORD PTR $T231785[ebp]
	jmp	??1?$BaseVector@I$0A@@@QAE@XZ		; BaseVector<unsigned int,0>::~BaseVector<unsigned int,0>
__ehhandler$??1CvEconomicAI@@QAE@XZ:
	mov	edx, DWORD PTR [esp+8]
	lea	eax, DWORD PTR [edx+12]
	mov	ecx, DWORD PTR [edx-104]
	xor	ecx, eax
	call	@__security_check_cookie@4
	mov	eax, OFFSET __ehfuncinfo$??1CvEconomicAI@@QAE@XZ
	jmp	___CxxFrameHandler3
text$x	ENDS
??1CvEconomicAI@@QAE@XZ ENDP				; CvEconomicAI::~CvEconomicAI
PUBLIC	?Reset@CvEconomicAI@@QAEXXZ			; CvEconomicAI::Reset
PUBLIC	?push_back_copy@?$FFastVector@I$0A@$0A@$0A@UFDefaultFastVectorAllocator@?$BaseVector@I$0A@@@@@QAEXABII@Z ; FFastVector<unsigned int,0,0,0,BaseVector<unsigned int,0>::FDefaultFastVectorAllocator>::push_back_copy
PUBLIC	?Init@CvEconomicAI@@QAEXPAVCvEconomicAIStrategyXMLEntries@@PAVCvPlayer@@@Z ; CvEconomicAI::Init
EXTRN	??_U@YAPAXI@Z:PROC				; operator new[]
; Function compile flags: /Odtp
;	COMDAT ?Init@CvEconomicAI@@QAEXPAVCvEconomicAIStrategyXMLEntries@@PAVCvPlayer@@@Z
_TEXT	SEGMENT
_this$ = -68						; size = 4
$T231853 = -64						; size = 4
_i$231849 = -60						; size = 4
$T231820 = -28						; size = 4
_i$231816 = -24						; size = 4
$T231801 = -20						; size = 4
$T231797 = -16						; size = 4
$T231796 = -12						; size = 4
$T231795 = -8						; size = 4
$T231794 = -4						; size = 4
_pAIStrategies$ = 8					; size = 4
_pPlayer$ = 12						; size = 4
?Init@CvEconomicAI@@QAEXPAVCvEconomicAIStrategyXMLEntries@@PAVCvPlayer@@@Z PROC ; CvEconomicAI::Init, COMDAT
; _this$ = ecx

; 260  : {

	push	ebp
	mov	ebp, esp
	sub	esp, 68					; 00000044H
	mov	DWORD PTR _this$[ebp], ecx

; 261  : 	// Store off the pointer to the AIStrategies active for this game
; 262  : 	m_pAIStrategies = pAIStrategies;

	mov	eax, DWORD PTR _this$[ebp]
	mov	ecx, DWORD PTR _pAIStrategies$[ebp]
	mov	DWORD PTR [eax+8], ecx

; 263  : 
; 264  : 	m_pPlayer = pPlayer;

	mov	edx, DWORD PTR _this$[ebp]
	mov	eax, DWORD PTR _pPlayer$[ebp]
	mov	DWORD PTR [edx+4], eax

; 265  : 
; 266  : 	// Initialize arrays
; 267  : 	FAssertMsg(m_pabUsingStrategy==NULL, "about to leak memory, CvStrategyAI::m_pabUsingStrategy");
; 268  : 	m_pabUsingStrategy = FNEW(bool[m_pAIStrategies->GetNumEconomicAIStrategies()], c_eCiv5GameplayDLL, 0);

	mov	ecx, DWORD PTR _this$[ebp]
	mov	ecx, DWORD PTR [ecx+8]
	call	?GetNumEconomicAIStrategies@CvEconomicAIStrategyXMLEntries@@QAEHXZ ; CvEconomicAIStrategyXMLEntries::GetNumEconomicAIStrategies
	push	eax
	call	??_U@YAPAXI@Z				; operator new[]
	add	esp, 4
	mov	DWORD PTR $T231794[ebp], eax
	mov	edx, DWORD PTR _this$[ebp]
	mov	eax, DWORD PTR $T231794[ebp]
	mov	DWORD PTR [edx+12], eax

; 269  : 
; 270  : 	FAssertMsg(m_paiTurnStrategyAdopted==NULL, "about to leak memory, CvStrategyAI::m_paiTurnStrategyAdopted");
; 271  : 	m_paiTurnStrategyAdopted = FNEW(int[m_pAIStrategies->GetNumEconomicAIStrategies()], c_eCiv5GameplayDLL, 0);

	mov	ecx, DWORD PTR _this$[ebp]
	mov	ecx, DWORD PTR [ecx+8]
	call	?GetNumEconomicAIStrategies@CvEconomicAIStrategyXMLEntries@@QAEHXZ ; CvEconomicAIStrategyXMLEntries::GetNumEconomicAIStrategies
	xor	ecx, ecx
	mov	edx, 4
	mul	edx
	seto	cl
	neg	ecx
	or	ecx, eax
	push	ecx
	call	??_U@YAPAXI@Z				; operator new[]
	add	esp, 4
	mov	DWORD PTR $T231795[ebp], eax
	mov	eax, DWORD PTR _this$[ebp]
	mov	ecx, DWORD PTR $T231795[ebp]
	mov	DWORD PTR [eax+16], ecx

; 272  : 
; 273  : 	FAssertMsg(m_aiTempFlavors==NULL, "about to leak memory, CvStrategyAI::m_aiTempFlavors");
; 274  : 	m_aiTempFlavors = FNEW(int[GC.getNumFlavorTypes()], c_eCiv5GameplayDLL, 0);

	mov	edx, DWORD PTR ?gGlobals@@3VCvGlobals@@A+1764
	mov	DWORD PTR $T231801[ebp], edx
	xor	ecx, ecx
	mov	eax, DWORD PTR $T231801[ebp]
	mov	edx, 4
	mul	edx
	seto	cl
	neg	ecx
	or	ecx, eax
	push	ecx
	call	??_U@YAPAXI@Z				; operator new[]
	add	esp, 4
	mov	DWORD PTR $T231796[ebp], eax
	mov	eax, DWORD PTR _this$[ebp]
	mov	ecx, DWORD PTR $T231796[ebp]
	mov	DWORD PTR [eax+20], ecx

; 275  : 
; 276  : 	m_auiYields.clear();

	mov	edx, DWORD PTR _this$[ebp]
	add	edx, 52					; 00000034H
	mov	DWORD PTR $T231820[ebp], edx
	mov	eax, 1
	test	eax, eax
	je	SHORT $LN11@Init
	mov	DWORD PTR _i$231816[ebp], 0
	jmp	SHORT $LN9@Init
$LN8@Init:
	mov	ecx, DWORD PTR _i$231816[ebp]
	add	ecx, 1
	mov	DWORD PTR _i$231816[ebp], ecx
$LN9@Init:
	mov	edx, DWORD PTR $T231820[ebp]
	mov	eax, DWORD PTR _i$231816[ebp]
	cmp	eax, DWORD PTR [edx+4]
	jae	SHORT $LN11@Init
	jmp	SHORT $LN8@Init
$LN11@Init:
	mov	ecx, DWORD PTR $T231820[ebp]
	mov	DWORD PTR [ecx+4], 0

; 277  : #ifdef AUI_WARNING_FIXES
; 278  : 	m_auiYields.push_back_copy(0, uint(NUM_YIELD_TYPES));
; 279  : #else
; 280  : 	m_auiYields.push_back_copy(-1, NUM_YIELD_TYPES);

	mov	DWORD PTR $T231797[ebp], -1
	push	6
	lea	edx, DWORD PTR $T231797[ebp]
	push	edx
	mov	ecx, DWORD PTR _this$[ebp]
	add	ecx, 52					; 00000034H
	call	?push_back_copy@?$FFastVector@I$0A@$0A@$0A@UFDefaultFastVectorAllocator@?$BaseVector@I$0A@@@@@QAEXABII@Z ; FFastVector<unsigned int,0,0,0,BaseVector<unsigned int,0>::FDefaultFastVectorAllocator>::push_back_copy

; 281  : #endif
; 282  : 	m_RequestedSavings.clear();

	mov	eax, DWORD PTR _this$[ebp]
	add	eax, 112				; 00000070H
	mov	DWORD PTR $T231853[ebp], eax
	xor	ecx, ecx
	je	SHORT $LN46@Init
	mov	DWORD PTR _i$231849[ebp], 0
	jmp	SHORT $LN44@Init
$LN43@Init:
	mov	edx, DWORD PTR _i$231849[ebp]
	add	edx, 1
	mov	DWORD PTR _i$231849[ebp], edx
$LN44@Init:
	mov	eax, DWORD PTR $T231853[ebp]
	mov	ecx, DWORD PTR _i$231849[ebp]
	cmp	ecx, DWORD PTR [eax+4]
	jae	SHORT $LN46@Init
	jmp	SHORT $LN43@Init
$LN46@Init:
	mov	edx, DWORD PTR $T231853[ebp]
	mov	DWORD PTR [edx+4], 0

; 283  : 
; 284  : 	Reset();

	mov	ecx, DWORD PTR _this$[ebp]
	call	?Reset@CvEconomicAI@@QAEXXZ		; CvEconomicAI::Reset

; 285  : }

	mov	esp, ebp
	pop	ebp
	ret	8
?Init@CvEconomicAI@@QAEXPAVCvEconomicAIStrategyXMLEntries@@PAVCvPlayer@@@Z ENDP ; CvEconomicAI::Init
; Function compile flags: /Odtp
_TEXT	ENDS
;	COMDAT ?Uninit@CvEconomicAI@@QAEXXZ
_TEXT	SEGMENT
_this$ = -28						; size = 4
$T231873 = -24						; size = 4
$T231871 = -20						; size = 4
$T231867 = -16						; size = 4
$T231865 = -12						; size = 4
$T231861 = -8						; size = 4
$T231859 = -4						; size = 4
?Uninit@CvEconomicAI@@QAEXXZ PROC			; CvEconomicAI::Uninit, COMDAT
; _this$ = ecx

; 289  : {

	push	ebp
	mov	ebp, esp
	sub	esp, 28					; 0000001cH
	mov	DWORD PTR _this$[ebp], ecx

; 290  : 	SAFE_DELETE_ARRAY(m_pabUsingStrategy);

	mov	eax, DWORD PTR _this$[ebp]
	add	eax, 12					; 0000000cH
	mov	DWORD PTR $T231861[ebp], eax
	mov	ecx, DWORD PTR $T231861[ebp]
	mov	edx, DWORD PTR [ecx]
	mov	DWORD PTR $T231859[ebp], edx
	mov	eax, DWORD PTR $T231859[ebp]
	push	eax
	call	??_V@YAXPAX@Z				; operator delete[]
	add	esp, 4
	mov	ecx, DWORD PTR $T231861[ebp]
	mov	DWORD PTR [ecx], 0

; 291  : 	SAFE_DELETE_ARRAY(m_paiTurnStrategyAdopted);

	mov	edx, DWORD PTR _this$[ebp]
	add	edx, 16					; 00000010H
	mov	DWORD PTR $T231867[ebp], edx
	mov	eax, DWORD PTR $T231867[ebp]
	mov	ecx, DWORD PTR [eax]
	mov	DWORD PTR $T231865[ebp], ecx
	mov	edx, DWORD PTR $T231865[ebp]
	push	edx
	call	??_V@YAXPAX@Z				; operator delete[]
	add	esp, 4
	mov	eax, DWORD PTR $T231867[ebp]
	mov	DWORD PTR [eax], 0

; 292  : 	SAFE_DELETE_ARRAY(m_aiTempFlavors);

	mov	ecx, DWORD PTR _this$[ebp]
	add	ecx, 20					; 00000014H
	mov	DWORD PTR $T231873[ebp], ecx
	mov	edx, DWORD PTR $T231873[ebp]
	mov	eax, DWORD PTR [edx]
	mov	DWORD PTR $T231871[ebp], eax
	mov	ecx, DWORD PTR $T231871[ebp]
	push	ecx
	call	??_V@YAXPAX@Z				; operator delete[]
	add	esp, 4
	mov	edx, DWORD PTR $T231873[ebp]
	mov	DWORD PTR [edx], 0

; 293  : }

	mov	esp, ebp
	pop	ebp
	ret	0
?Uninit@CvEconomicAI@@QAEXXZ ENDP			; CvEconomicAI::Uninit
_TEXT	ENDS
PUBLIC	?push_back@?$FStaticVector@VCvPurchaseRequest@@$05$00$0BCJ@$0A@@@QAEIABVCvPurchaseRequest@@@Z ; FStaticVector<CvPurchaseRequest,6,1,297,0>::push_back
; Function compile flags: /Odtp
;	COMDAT ?Reset@CvEconomicAI@@QAEXXZ
_TEXT	SEGMENT
_this$ = -60						; size = 4
$T231920 = -56						; size = 4
$T231916 = -52						; size = 4
$T231902 = -44						; size = 4
$T231892 = -40						; size = 4
$T231882 = -36						; size = 4
_request$224994 = -32					; size = 12
_ui$224990 = -20					; size = 4
_ui$224986 = -16					; size = 4
_ui$224982 = -12					; size = 4
_ui$224978 = -8						; size = 4
_iI$ = -4						; size = 4
?Reset@CvEconomicAI@@QAEXXZ PROC			; CvEconomicAI::Reset, COMDAT
; _this$ = ecx

; 297  : {

	push	ebp
	mov	ebp, esp
	sub	esp, 60					; 0000003cH
	mov	DWORD PTR _this$[ebp], ecx

; 298  : 	int iI;
; 299  : 
; 300  : 	for(iI = 0; iI < m_pAIStrategies->GetNumEconomicAIStrategies(); iI++)

	mov	DWORD PTR _iI$[ebp], 0
	jmp	SHORT $LN15@Reset
$LN14@Reset:
	mov	eax, DWORD PTR _iI$[ebp]
	add	eax, 1
	mov	DWORD PTR _iI$[ebp], eax
$LN15@Reset:
	mov	ecx, DWORD PTR _this$[ebp]
	mov	ecx, DWORD PTR [ecx+8]
	call	?GetNumEconomicAIStrategies@CvEconomicAIStrategyXMLEntries@@QAEHXZ ; CvEconomicAIStrategyXMLEntries::GetNumEconomicAIStrategies
	cmp	DWORD PTR _iI$[ebp], eax
	jge	SHORT $LN13@Reset

; 301  : 	{
; 302  : 		m_pabUsingStrategy[iI] = false;

	mov	edx, DWORD PTR _this$[ebp]
	mov	eax, DWORD PTR [edx+12]
	mov	ecx, DWORD PTR _iI$[ebp]
	mov	BYTE PTR [eax+ecx], 0

; 303  : 		m_paiTurnStrategyAdopted[iI] = -1;

	mov	edx, DWORD PTR _this$[ebp]
	mov	eax, DWORD PTR [edx+16]
	mov	ecx, DWORD PTR _iI$[ebp]
	mov	DWORD PTR [eax+ecx*4], -1

; 304  : 	}

	jmp	SHORT $LN14@Reset
$LN13@Reset:

; 305  : 
; 306  : 	for(uint ui = 0; ui < NUM_YIELD_TYPES; ui++)

	mov	DWORD PTR _ui$224978[ebp], 0
	jmp	SHORT $LN12@Reset
$LN11@Reset:
	mov	edx, DWORD PTR _ui$224978[ebp]
	add	edx, 1
	mov	DWORD PTR _ui$224978[ebp], edx
$LN12@Reset:
	cmp	DWORD PTR _ui$224978[ebp], 6
	jae	SHORT $LN10@Reset

; 307  : 	{
; 308  : 		m_auiYields[ui] = 0;

	mov	eax, DWORD PTR _this$[ebp]
	mov	ecx, DWORD PTR [eax+52]
	mov	edx, DWORD PTR _ui$224978[ebp]
	mov	DWORD PTR [ecx+edx*4], 0

; 309  : 	}

	jmp	SHORT $LN11@Reset
$LN10@Reset:

; 310  : 
; 311  : 	for(uint ui = 0; ui < m_aiExplorationPlots.size(); ui++)

	mov	DWORD PTR _ui$224982[ebp], 0
	jmp	SHORT $LN9@Reset
$LN8@Reset:
	mov	eax, DWORD PTR _ui$224982[ebp]
	add	eax, 1
	mov	DWORD PTR _ui$224982[ebp], eax
$LN9@Reset:
	mov	ecx, DWORD PTR _this$[ebp]
	mov	edx, DWORD PTR [ecx+68]
	mov	DWORD PTR $T231882[ebp], edx
	mov	eax, DWORD PTR _ui$224982[ebp]
	cmp	eax, DWORD PTR $T231882[ebp]
	jae	SHORT $LN7@Reset

; 312  : 	{
; 313  : 		m_aiExplorationPlots[ui] = -1;

	mov	ecx, DWORD PTR _this$[ebp]
	mov	edx, DWORD PTR [ecx+64]
	mov	eax, DWORD PTR _ui$224982[ebp]
	mov	DWORD PTR [edx+eax*4], -1

; 314  : 		m_aiExplorationPlotRatings[ui] = -1;

	mov	ecx, DWORD PTR _this$[ebp]
	mov	edx, DWORD PTR [ecx+76]
	mov	eax, DWORD PTR _ui$224982[ebp]
	mov	DWORD PTR [edx+eax*4], -1

; 315  : 	}

	jmp	SHORT $LN8@Reset
$LN7@Reset:

; 316  : 
; 317  : 	for(uint ui = 0; ui < m_aiGoodyHutPlots.size(); ui++)

	mov	DWORD PTR _ui$224986[ebp], 0
	jmp	SHORT $LN6@Reset
$LN5@Reset:
	mov	ecx, DWORD PTR _ui$224986[ebp]
	add	ecx, 1
	mov	DWORD PTR _ui$224986[ebp], ecx
$LN6@Reset:
	mov	edx, DWORD PTR _this$[ebp]
	mov	eax, DWORD PTR [edx+92]
	mov	DWORD PTR $T231892[ebp], eax
	mov	ecx, DWORD PTR _ui$224986[ebp]
	cmp	ecx, DWORD PTR $T231892[ebp]
	jae	SHORT $LN4@Reset

; 318  : 	{
; 319  : 		m_aiGoodyHutPlots[ui] = -1;

	mov	edx, DWORD PTR _this$[ebp]
	mov	eax, DWORD PTR [edx+88]
	mov	ecx, DWORD PTR _ui$224986[ebp]
	mov	DWORD PTR [eax+ecx*4], -1

; 320  : 		m_aiGoodyHutUnitAssignments[ui].Clear();

	mov	edx, DWORD PTR _this$[ebp]
	mov	eax, DWORD PTR [edx+100]
	mov	ecx, DWORD PTR _ui$224986[ebp]
	lea	edx, DWORD PTR [eax+ecx*8]
	mov	DWORD PTR $T231902[ebp], edx
	mov	eax, DWORD PTR $T231902[ebp]
	mov	DWORD PTR [eax], -1
	mov	ecx, DWORD PTR $T231902[ebp]
	mov	DWORD PTR [ecx+4], -1

; 321  : 	}

	jmp	SHORT $LN5@Reset
$LN4@Reset:

; 322  : 
; 323  : 	m_bExplorationPlotsDirty = true;

	mov	edx, DWORD PTR _this$[ebp]
	mov	BYTE PTR [edx], 1

; 324  : 
; 325  : 	for(uint ui = 0; ui < NUM_PURCHASE_TYPES; ui++)

	mov	DWORD PTR _ui$224990[ebp], 0
	jmp	SHORT $LN3@Reset
$LN2@Reset:
	mov	eax, DWORD PTR _ui$224990[ebp]
	add	eax, 1
	mov	DWORD PTR _ui$224990[ebp], eax
$LN3@Reset:
	cmp	DWORD PTR _ui$224990[ebp], 6
	jae	SHORT $LN1@Reset

; 326  : 	{
; 327  : 		CvPurchaseRequest request;

	mov	DWORD PTR _request$224994[ebp], -1
	mov	DWORD PTR _request$224994[ebp+4], 0
	mov	DWORD PTR _request$224994[ebp+8], 0

; 328  : 		request.m_eType = (PurchaseType)ui;

	mov	ecx, DWORD PTR _ui$224990[ebp]
	mov	DWORD PTR _request$224994[ebp], ecx

; 329  : 		request.m_iAmount = 0;

	mov	DWORD PTR _request$224994[ebp+4], 0

; 330  : 		request.m_iPriority = 0;

	mov	DWORD PTR _request$224994[ebp+8], 0

; 331  : 		m_RequestedSavings.push_back(request);

	lea	edx, DWORD PTR _request$224994[ebp]
	push	edx
	mov	ecx, DWORD PTR _this$[ebp]
	add	ecx, 112				; 00000070H
	call	?push_back@?$FStaticVector@VCvPurchaseRequest@@$05$00$0BCJ@$0A@@@QAEIABVCvPurchaseRequest@@@Z ; FStaticVector<CvPurchaseRequest,6,1,297,0>::push_back

; 332  : 	}

	jmp	SHORT $LN2@Reset
$LN1@Reset:

; 333  : 
; 334  : 	m_iExplorersDisbanded = 0;

	mov	eax, DWORD PTR _this$[ebp]
	mov	DWORD PTR [eax+36], 0

; 335  : 	m_eReconState = NO_RECON_STATE;

	mov	ecx, DWORD PTR _this$[ebp]
	mov	DWORD PTR [ecx+28], -1

; 336  : 	m_eNavalReconState = NO_RECON_STATE;

	mov	edx, DWORD PTR _this$[ebp]
	mov	DWORD PTR [edx+32], -1

; 337  : 	m_iLastTurnWorkerDisbanded = -1;

	mov	eax, DWORD PTR _this$[ebp]
	mov	DWORD PTR [eax+40], -1

; 338  : 	m_iVisibleAntiquitySites = 0;

	mov	ecx, DWORD PTR _this$[ebp]
	mov	DWORD PTR [ecx+44], 0

; 339  : 
; 340  : 	// Cached AI defines
; 341  : 	m_iMinimumSettleFertility = GC.getAI_STRATEGY_MINIMUM_SETTLE_FERTILITY();

	mov	edx, DWORD PTR ?gGlobals@@3VCvGlobals@@A+2028
	mov	DWORD PTR $T231916[ebp], edx
	mov	eax, DWORD PTR _this$[ebp]
	mov	ecx, DWORD PTR $T231916[ebp]
	mov	DWORD PTR [eax+48], ecx

; 342  : 
; 343  : 	// Basic number of cities desired for early growth is in XML (10)
; 344  : 	// Later will scale that up or down based on ratio of FLAVOR_EXPANSION to FLAVOR_GROWTH
; 345  : 	m_iEarlyCityNumberTarget = GC.getAI_STRATEGY_EARLY_EXPANSION_NUM_CITIES_LIMIT();

	mov	edx, DWORD PTR ?gGlobals@@3VCvGlobals@@A+2012
	mov	DWORD PTR $T231920[ebp], edx
	mov	eax, DWORD PTR _this$[ebp]
	mov	ecx, DWORD PTR $T231920[ebp]
	mov	DWORD PTR [eax+24], ecx

; 346  : }

	mov	esp, ebp
	pop	ebp
	ret	0
?Reset@CvEconomicAI@@QAEXXZ ENDP			; CvEconomicAI::Reset
_TEXT	ENDS
PUBLIC	??5@YAAAVFDataStream@@AAV0@AAVCvPurchaseRequest@@@Z ; operator>>
PUBLIC	?GrowSize@?$FFastVector@UGoodyHutUnitAssignment@CvEconomicAI@@$0A@$0A@$0A@UFDefaultFastVectorAllocator@?$BaseVector@UGoodyHutUnitAssignment@CvEconomicAI@@$0A@@@@@IAEXI@Z ; FFastVector<CvEconomicAI::GoodyHutUnitAssignment,0,0,0,BaseVector<CvEconomicAI::GoodyHutUnitAssignment,0>::FDefaultFastVectorAllocator>::GrowSize
PUBLIC	?GrowSize@?$FFastVector@H$0A@$0A@$0A@UFDefaultFastVectorAllocator@?$BaseVector@H$0A@@@@@IAEXI@Z ; FFastVector<int,0,0,0,BaseVector<int,0>::FDefaultFastVectorAllocator>::GrowSize
PUBLIC	??$?5H@@YAAAVFDataStream@@AAV0@AAV?$ArrayWrapper@H@@@Z ; operator>><int>
PUBLIC	??$?5_N@@YAAAVFDataStream@@AAV0@AAV?$ArrayWrapper@_N@@@Z ; operator>><bool>
PUBLIC	?Read@CvEconomicAI@@QAEXAAVFDataStream@@@Z	; CvEconomicAI::Read
EXTRN	?Read@FDataStream@@IAEXAA_N@Z:PROC		; FDataStream::Read
EXTRN	?Read@FDataStream@@IAEXAAH@Z:PROC		; FDataStream::Read
EXTRN	?Read@FDataStream@@IAEXAAI@Z:PROC		; FDataStream::Read
; Function compile flags: /Odtp
;	COMDAT ?Read@CvEconomicAI@@QAEXAAVFDataStream@@@Z
_TEXT	SEGMENT
tv349 = -212						; size = 4
tv330 = -208						; size = 4
tv164 = -204						; size = 4
tv279 = -200						; size = 4
tv260 = -196						; size = 4
tv93 = -192						; size = 4
_this$ = -188						; size = 4
$T232099 = -184						; size = 4
$T232092 = -180						; size = 4
$T232085 = -176						; size = 4
$T232078 = -172						; size = 4
$T232077 = -168						; size = 4
$T232068 = -164						; size = 4
$T232074 = -160						; size = 4
$T232057 = -156						; size = 4
$T232056 = -152						; size = 4
$T232047 = -148						; size = 4
$T232053 = -144						; size = 4
$T232033 = -140						; size = 4
$T232018 = -136						; size = 4
$T232011 = -132						; size = 4
$T232004 = -128						; size = 4
$T232003 = -124						; size = 4
$T231994 = -120						; size = 4
$T232000 = -116						; size = 4
$T231983 = -112						; size = 4
$T231982 = -108						; size = 4
$T231973 = -104						; size = 4
$T231979 = -100						; size = 4
$T231959 = -96						; size = 4
$T231947 = -92						; size = 4
$T231940 = -88						; size = 4
$T231939 = -84						; size = 4
$T231935 = -80						; size = 4
$T231934 = -76						; size = 4
$T231924 = -72						; size = 4
$T231923 = -68						; size = 4
_i$225100 = -64						; size = 4
_iDummy$225096 = -60					; size = 4
_i$225092 = -56						; size = 4
_i$225088 = -52						; size = 4
_iDummy$225086 = -48					; size = 4
_i$225082 = -44						; size = 4
_i$225078 = -40						; size = 4
_ui$225067 = -36					; size = 4
_wrapGetNumEconomicAIStrategies$ = -32			; size = 8
_iEntriesToRead$ = -24					; size = 4
_iMaxEntriesToRead$ = -20				; size = 4
_uiVersion$ = -16					; size = 4
_wrapGetNumEconomicAIStrategies2$ = -12			; size = 8
_iTemp$ = -4						; size = 4
_kStream$ = 8						; size = 4
?Read@CvEconomicAI@@QAEXAAVFDataStream@@@Z PROC		; CvEconomicAI::Read, COMDAT
; _this$ = ecx

; 350  : {

	push	ebp
	mov	ebp, esp
	sub	esp, 212				; 000000d4H
	mov	DWORD PTR _this$[ebp], ecx

; 351  : 	// Version number to maintain backwards compatibility
; 352  : 	uint uiVersion;
; 353  : 	kStream >> uiVersion;

	lea	eax, DWORD PTR _uiVersion$[ebp]
	push	eax
	mov	ecx, DWORD PTR _kStream$[ebp]
	call	?Read@FDataStream@@IAEXAAI@Z		; FDataStream::Read

; 354  : 
; 355  : 	int iEntriesToRead;
; 356  : 
; 357  : 	FAssertMsg(m_pAIStrategies != NULL && m_pAIStrategies->GetNumEconomicAIStrategies() > 0, "Number of AIStrategies to serialize is expected to greater than 0");
; 358  : 
; 359  : 	kStream >> iEntriesToRead;

	lea	ecx, DWORD PTR _iEntriesToRead$[ebp]
	push	ecx
	mov	ecx, DWORD PTR _kStream$[ebp]
	call	?Read@FDataStream@@IAEXAAH@Z		; FDataStream::Read

; 360  : 
; 361  : #ifdef _MSC_VER
; 362  : #pragma warning ( push )
; 363  : #pragma warning ( disable : 6011 ) // no clear solution or recovery if m_pAIStrategies is ever NULL
; 364  : #endif//_MSC_VER
; 365  : 	ArrayWrapper<bool> wrapGetNumEconomicAIStrategies(iEntriesToRead, m_pabUsingStrategy);

	mov	edx, DWORD PTR _this$[ebp]
	mov	eax, DWORD PTR [edx+12]
	mov	DWORD PTR $T231935[ebp], eax
	mov	ecx, DWORD PTR _iEntriesToRead$[ebp]
	mov	DWORD PTR $T231934[ebp], ecx
	mov	edx, DWORD PTR $T231935[ebp]
	mov	DWORD PTR _wrapGetNumEconomicAIStrategies$[ebp], edx
	mov	eax, DWORD PTR $T231934[ebp]
	mov	DWORD PTR _wrapGetNumEconomicAIStrategies$[ebp+4], eax

; 366  : #ifdef _MSC_VER
; 367  : #pragma warning ( pop )
; 368  : #endif//_MSC_VER
; 369  : 
; 370  : 	kStream >> wrapGetNumEconomicAIStrategies;

	lea	ecx, DWORD PTR _wrapGetNumEconomicAIStrategies$[ebp]
	push	ecx
	mov	edx, DWORD PTR _kStream$[ebp]
	push	edx
	call	??$?5_N@@YAAAVFDataStream@@AAV0@AAV?$ArrayWrapper@_N@@@Z ; operator>><bool>
	add	esp, 8

; 371  : 
; 372  : 	ArrayWrapper<int> wrapGetNumEconomicAIStrategies2(iEntriesToRead, m_paiTurnStrategyAdopted);

	mov	eax, DWORD PTR _this$[ebp]
	mov	ecx, DWORD PTR [eax+16]
	mov	DWORD PTR $T231940[ebp], ecx
	mov	edx, DWORD PTR _iEntriesToRead$[ebp]
	mov	DWORD PTR $T231939[ebp], edx
	mov	eax, DWORD PTR $T231940[ebp]
	mov	DWORD PTR _wrapGetNumEconomicAIStrategies2$[ebp], eax
	mov	ecx, DWORD PTR $T231939[ebp]
	mov	DWORD PTR _wrapGetNumEconomicAIStrategies2$[ebp+4], ecx

; 373  : 	kStream >> wrapGetNumEconomicAIStrategies2;

	lea	edx, DWORD PTR _wrapGetNumEconomicAIStrategies2$[ebp]
	push	edx
	mov	eax, DWORD PTR _kStream$[ebp]
	push	eax
	call	??$?5H@@YAAAVFDataStream@@AAV0@AAV?$ArrayWrapper@H@@@Z ; operator>><int>
	add	esp, 8

; 374  : 
; 375  : 	for(uint ui = 0; ui < NUM_YIELD_TYPES; ui++)

	mov	DWORD PTR _ui$225067[ebp], 0
	jmp	SHORT $LN18@Read
$LN17@Read:
	mov	ecx, DWORD PTR _ui$225067[ebp]
	add	ecx, 1
	mov	DWORD PTR _ui$225067[ebp], ecx
$LN18@Read:
	cmp	DWORD PTR _ui$225067[ebp], 6
	jae	SHORT $LN16@Read

; 376  : 	{
; 377  : 		kStream >> m_auiYields[ui];

	mov	edx, DWORD PTR _this$[ebp]
	mov	eax, DWORD PTR [edx+52]
	mov	ecx, DWORD PTR _ui$225067[ebp]
	lea	edx, DWORD PTR [eax+ecx*4]
	mov	DWORD PTR $T231947[ebp], edx
	mov	eax, DWORD PTR $T231947[ebp]
	push	eax
	mov	ecx, DWORD PTR _kStream$[ebp]
	call	?Read@FDataStream@@IAEXAAI@Z		; FDataStream::Read

; 378  : 	}

	jmp	SHORT $LN17@Read
$LN16@Read:

; 379  : 
; 380  : 	kStream >> m_bExplorationPlotsDirty;

	mov	ecx, DWORD PTR _this$[ebp]
	push	ecx
	mov	ecx, DWORD PTR _kStream$[ebp]
	call	?Read@FDataStream@@IAEXAA_N@Z		; FDataStream::Read

; 381  : 
; 382  : 	kStream >> iEntriesToRead;

	lea	edx, DWORD PTR _iEntriesToRead$[ebp]
	push	edx
	mov	ecx, DWORD PTR _kStream$[ebp]
	call	?Read@FDataStream@@IAEXAAH@Z		; FDataStream::Read

; 383  : 
; 384  : #define MAX_PLOT_ARRAY_SIZE	((152+1)*(96+1))
; 385  : 	int iMaxEntriesToRead = MIN(MAX_PLOT_ARRAY_SIZE, iEntriesToRead);

	mov	DWORD PTR $T231923[ebp], 14841		; 000039f9H
	mov	eax, DWORD PTR _iEntriesToRead$[ebp]
	cmp	eax, DWORD PTR $T231923[ebp]
	jge	SHORT $LN39@Read
	lea	ecx, DWORD PTR _iEntriesToRead$[ebp]
	mov	DWORD PTR tv93[ebp], ecx
	jmp	SHORT $LN40@Read
$LN39@Read:
	lea	edx, DWORD PTR $T231923[ebp]
	mov	DWORD PTR tv93[ebp], edx
$LN40@Read:
	mov	eax, DWORD PTR tv93[ebp]
	mov	DWORD PTR $T231959[ebp], eax
	mov	ecx, DWORD PTR $T231959[ebp]
	mov	edx, DWORD PTR [ecx]
	mov	DWORD PTR _iMaxEntriesToRead$[ebp], edx

; 386  : 
; 387  : 	m_aiExplorationPlots.resize(iMaxEntriesToRead);

	mov	eax, DWORD PTR _iMaxEntriesToRead$[ebp]
	mov	DWORD PTR $T231983[ebp], eax
	mov	ecx, DWORD PTR _this$[ebp]
	add	ecx, 64					; 00000040H
	mov	DWORD PTR $T231982[ebp], ecx
	mov	edx, DWORD PTR $T231982[ebp]
	mov	eax, DWORD PTR [edx+8]
	cmp	eax, DWORD PTR $T231983[ebp]
	jae	SHORT $LN41@Read
	mov	ecx, DWORD PTR $T231983[ebp]
	push	ecx
	mov	ecx, DWORD PTR $T231982[ebp]
	call	?GrowSize@?$FFastVector@H$0A@$0A@$0A@UFDefaultFastVectorAllocator@?$BaseVector@H$0A@@@@@IAEXI@Z ; FFastVector<int,0,0,0,BaseVector<int,0>::FDefaultFastVectorAllocator>::GrowSize
$LN41@Read:
	mov	edx, DWORD PTR $T231982[ebp]
	add	edx, 8
	mov	DWORD PTR $T231973[ebp], edx
	mov	eax, DWORD PTR $T231973[ebp]
	mov	ecx, DWORD PTR [eax]
	cmp	ecx, DWORD PTR $T231983[ebp]
	jae	SHORT $LN46@Read
	mov	edx, DWORD PTR $T231973[ebp]
	mov	DWORD PTR tv260[ebp], edx
	jmp	SHORT $LN47@Read
$LN46@Read:
	lea	eax, DWORD PTR $T231983[ebp]
	mov	DWORD PTR tv260[ebp], eax
$LN47@Read:
	mov	ecx, DWORD PTR tv260[ebp]
	mov	DWORD PTR $T231979[ebp], ecx
	mov	edx, DWORD PTR $T231982[ebp]
	mov	eax, DWORD PTR $T231979[ebp]
	mov	ecx, DWORD PTR [eax]
	mov	DWORD PTR [edx+4], ecx

; 388  : 	m_aiExplorationPlotRatings.resize(iMaxEntriesToRead);

	mov	edx, DWORD PTR _iMaxEntriesToRead$[ebp]
	mov	DWORD PTR $T232004[ebp], edx
	mov	eax, DWORD PTR _this$[ebp]
	add	eax, 76					; 0000004cH
	mov	DWORD PTR $T232003[ebp], eax
	mov	ecx, DWORD PTR $T232003[ebp]
	mov	edx, DWORD PTR [ecx+8]
	cmp	edx, DWORD PTR $T232004[ebp]
	jae	SHORT $LN48@Read
	mov	eax, DWORD PTR $T232004[ebp]
	push	eax
	mov	ecx, DWORD PTR $T232003[ebp]
	call	?GrowSize@?$FFastVector@H$0A@$0A@$0A@UFDefaultFastVectorAllocator@?$BaseVector@H$0A@@@@@IAEXI@Z ; FFastVector<int,0,0,0,BaseVector<int,0>::FDefaultFastVectorAllocator>::GrowSize
$LN48@Read:
	mov	ecx, DWORD PTR $T232003[ebp]
	add	ecx, 8
	mov	DWORD PTR $T231994[ebp], ecx
	mov	edx, DWORD PTR $T231994[ebp]
	mov	eax, DWORD PTR [edx]
	cmp	eax, DWORD PTR $T232004[ebp]
	jae	SHORT $LN53@Read
	mov	ecx, DWORD PTR $T231994[ebp]
	mov	DWORD PTR tv279[ebp], ecx
	jmp	SHORT $LN54@Read
$LN53@Read:
	lea	edx, DWORD PTR $T232004[ebp]
	mov	DWORD PTR tv279[ebp], edx
$LN54@Read:
	mov	eax, DWORD PTR tv279[ebp]
	mov	DWORD PTR $T232000[ebp], eax
	mov	ecx, DWORD PTR $T232003[ebp]
	mov	edx, DWORD PTR $T232000[ebp]
	mov	eax, DWORD PTR [edx]
	mov	DWORD PTR [ecx+4], eax

; 389  : 
; 390  : 	for(int i = 0; i < iMaxEntriesToRead; i++)

	mov	DWORD PTR _i$225078[ebp], 0
	jmp	SHORT $LN15@Read
$LN14@Read:
	mov	ecx, DWORD PTR _i$225078[ebp]
	add	ecx, 1
	mov	DWORD PTR _i$225078[ebp], ecx
$LN15@Read:
	mov	edx, DWORD PTR _i$225078[ebp]
	cmp	edx, DWORD PTR _iMaxEntriesToRead$[ebp]
	jge	SHORT $LN13@Read

; 391  : 	{
; 392  : 		kStream >> m_aiExplorationPlots[i];

	mov	eax, DWORD PTR _this$[ebp]
	mov	ecx, DWORD PTR [eax+64]
	mov	edx, DWORD PTR _i$225078[ebp]
	lea	eax, DWORD PTR [ecx+edx*4]
	mov	DWORD PTR $T232011[ebp], eax
	mov	ecx, DWORD PTR $T232011[ebp]
	push	ecx
	mov	ecx, DWORD PTR _kStream$[ebp]
	call	?Read@FDataStream@@IAEXAAH@Z		; FDataStream::Read

; 393  : 		kStream >> m_aiExplorationPlotRatings[i];

	mov	edx, DWORD PTR _this$[ebp]
	mov	eax, DWORD PTR [edx+76]
	mov	ecx, DWORD PTR _i$225078[ebp]
	lea	edx, DWORD PTR [eax+ecx*4]
	mov	DWORD PTR $T232018[ebp], edx
	mov	eax, DWORD PTR $T232018[ebp]
	push	eax
	mov	ecx, DWORD PTR _kStream$[ebp]
	call	?Read@FDataStream@@IAEXAAH@Z		; FDataStream::Read

; 394  : 	}

	jmp	SHORT $LN14@Read
$LN13@Read:

; 395  : 
; 396  : 	// Skip any ones that go over the limit
; 397  : 	for(int i = iMaxEntriesToRead; i < iEntriesToRead; i++)

	mov	ecx, DWORD PTR _iMaxEntriesToRead$[ebp]
	mov	DWORD PTR _i$225082[ebp], ecx
	jmp	SHORT $LN12@Read
$LN11@Read:
	mov	edx, DWORD PTR _i$225082[ebp]
	add	edx, 1
	mov	DWORD PTR _i$225082[ebp], edx
$LN12@Read:
	mov	eax, DWORD PTR _i$225082[ebp]
	cmp	eax, DWORD PTR _iEntriesToRead$[ebp]
	jge	SHORT $LN10@Read

; 398  : 	{
; 399  : 		int iDummy;
; 400  : 		kStream >> iDummy;

	lea	ecx, DWORD PTR _iDummy$225086[ebp]
	push	ecx
	mov	ecx, DWORD PTR _kStream$[ebp]
	call	?Read@FDataStream@@IAEXAAH@Z		; FDataStream::Read

; 401  : 		kStream >> iDummy;

	lea	edx, DWORD PTR _iDummy$225086[ebp]
	push	edx
	mov	ecx, DWORD PTR _kStream$[ebp]
	call	?Read@FDataStream@@IAEXAAH@Z		; FDataStream::Read

; 402  : 	}

	jmp	SHORT $LN11@Read
$LN10@Read:

; 403  : 
; 404  : 	// goody hut plots
; 405  : 	kStream >> iEntriesToRead;

	lea	eax, DWORD PTR _iEntriesToRead$[ebp]
	push	eax
	mov	ecx, DWORD PTR _kStream$[ebp]
	call	?Read@FDataStream@@IAEXAAH@Z		; FDataStream::Read

; 406  : 	iMaxEntriesToRead = MIN(MAX_PLOT_ARRAY_SIZE, iEntriesToRead);

	mov	DWORD PTR $T231924[ebp], 14841		; 000039f9H
	mov	ecx, DWORD PTR _iEntriesToRead$[ebp]
	cmp	ecx, DWORD PTR $T231924[ebp]
	jge	SHORT $LN71@Read
	lea	edx, DWORD PTR _iEntriesToRead$[ebp]
	mov	DWORD PTR tv164[ebp], edx
	jmp	SHORT $LN72@Read
$LN71@Read:
	lea	eax, DWORD PTR $T231924[ebp]
	mov	DWORD PTR tv164[ebp], eax
$LN72@Read:
	mov	ecx, DWORD PTR tv164[ebp]
	mov	DWORD PTR $T232033[ebp], ecx
	mov	edx, DWORD PTR $T232033[ebp]
	mov	eax, DWORD PTR [edx]
	mov	DWORD PTR _iMaxEntriesToRead$[ebp], eax

; 407  : 	m_aiGoodyHutPlots.resize(iMaxEntriesToRead);

	mov	ecx, DWORD PTR _iMaxEntriesToRead$[ebp]
	mov	DWORD PTR $T232057[ebp], ecx
	mov	edx, DWORD PTR _this$[ebp]
	add	edx, 88					; 00000058H
	mov	DWORD PTR $T232056[ebp], edx
	mov	eax, DWORD PTR $T232056[ebp]
	mov	ecx, DWORD PTR [eax+8]
	cmp	ecx, DWORD PTR $T232057[ebp]
	jae	SHORT $LN73@Read
	mov	edx, DWORD PTR $T232057[ebp]
	push	edx
	mov	ecx, DWORD PTR $T232056[ebp]
	call	?GrowSize@?$FFastVector@H$0A@$0A@$0A@UFDefaultFastVectorAllocator@?$BaseVector@H$0A@@@@@IAEXI@Z ; FFastVector<int,0,0,0,BaseVector<int,0>::FDefaultFastVectorAllocator>::GrowSize
$LN73@Read:
	mov	eax, DWORD PTR $T232056[ebp]
	add	eax, 8
	mov	DWORD PTR $T232047[ebp], eax
	mov	ecx, DWORD PTR $T232047[ebp]
	mov	edx, DWORD PTR [ecx]
	cmp	edx, DWORD PTR $T232057[ebp]
	jae	SHORT $LN78@Read
	mov	eax, DWORD PTR $T232047[ebp]
	mov	DWORD PTR tv330[ebp], eax
	jmp	SHORT $LN79@Read
$LN78@Read:
	lea	ecx, DWORD PTR $T232057[ebp]
	mov	DWORD PTR tv330[ebp], ecx
$LN79@Read:
	mov	edx, DWORD PTR tv330[ebp]
	mov	DWORD PTR $T232053[ebp], edx
	mov	eax, DWORD PTR $T232056[ebp]
	mov	ecx, DWORD PTR $T232053[ebp]
	mov	edx, DWORD PTR [ecx]
	mov	DWORD PTR [eax+4], edx

; 408  : 	m_aiGoodyHutUnitAssignments.resize(iMaxEntriesToRead);

	mov	eax, DWORD PTR _iMaxEntriesToRead$[ebp]
	mov	DWORD PTR $T232078[ebp], eax
	mov	ecx, DWORD PTR _this$[ebp]
	add	ecx, 100				; 00000064H
	mov	DWORD PTR $T232077[ebp], ecx
	mov	edx, DWORD PTR $T232077[ebp]
	mov	eax, DWORD PTR [edx+8]
	cmp	eax, DWORD PTR $T232078[ebp]
	jae	SHORT $LN80@Read
	mov	ecx, DWORD PTR $T232078[ebp]
	push	ecx
	mov	ecx, DWORD PTR $T232077[ebp]
	call	?GrowSize@?$FFastVector@UGoodyHutUnitAssignment@CvEconomicAI@@$0A@$0A@$0A@UFDefaultFastVectorAllocator@?$BaseVector@UGoodyHutUnitAssignment@CvEconomicAI@@$0A@@@@@IAEXI@Z ; FFastVector<CvEconomicAI::GoodyHutUnitAssignment,0,0,0,BaseVector<CvEconomicAI::GoodyHutUnitAssignment,0>::FDefaultFastVectorAllocator>::GrowSize
$LN80@Read:
	mov	edx, DWORD PTR $T232077[ebp]
	add	edx, 8
	mov	DWORD PTR $T232068[ebp], edx
	mov	eax, DWORD PTR $T232068[ebp]
	mov	ecx, DWORD PTR [eax]
	cmp	ecx, DWORD PTR $T232078[ebp]
	jae	SHORT $LN85@Read
	mov	edx, DWORD PTR $T232068[ebp]
	mov	DWORD PTR tv349[ebp], edx
	jmp	SHORT $LN86@Read
$LN85@Read:
	lea	eax, DWORD PTR $T232078[ebp]
	mov	DWORD PTR tv349[ebp], eax
$LN86@Read:
	mov	ecx, DWORD PTR tv349[ebp]
	mov	DWORD PTR $T232074[ebp], ecx
	mov	edx, DWORD PTR $T232077[ebp]
	mov	eax, DWORD PTR $T232074[ebp]
	mov	ecx, DWORD PTR [eax]
	mov	DWORD PTR [edx+4], ecx

; 409  : 
; 410  : 	for(int i = 0; i < iMaxEntriesToRead; i++)

	mov	DWORD PTR _i$225088[ebp], 0
	jmp	SHORT $LN9@Read
$LN8@Read:
	mov	edx, DWORD PTR _i$225088[ebp]
	add	edx, 1
	mov	DWORD PTR _i$225088[ebp], edx
$LN9@Read:
	mov	eax, DWORD PTR _i$225088[ebp]
	cmp	eax, DWORD PTR _iMaxEntriesToRead$[ebp]
	jge	SHORT $LN7@Read

; 411  : 	{
; 412  : 		kStream >> m_aiGoodyHutPlots[i];

	mov	ecx, DWORD PTR _this$[ebp]
	mov	edx, DWORD PTR [ecx+88]
	mov	eax, DWORD PTR _i$225088[ebp]
	lea	ecx, DWORD PTR [edx+eax*4]
	mov	DWORD PTR $T232085[ebp], ecx
	mov	edx, DWORD PTR $T232085[ebp]
	push	edx
	mov	ecx, DWORD PTR _kStream$[ebp]
	call	?Read@FDataStream@@IAEXAAH@Z		; FDataStream::Read

; 413  : 		m_aiGoodyHutUnitAssignments[i].Clear();

	mov	eax, DWORD PTR _this$[ebp]
	mov	ecx, DWORD PTR [eax+100]
	mov	edx, DWORD PTR _i$225088[ebp]
	lea	eax, DWORD PTR [ecx+edx*8]
	mov	DWORD PTR $T232092[ebp], eax
	mov	ecx, DWORD PTR $T232092[ebp]
	mov	DWORD PTR [ecx], -1
	mov	edx, DWORD PTR $T232092[ebp]
	mov	DWORD PTR [edx+4], -1

; 414  : 		kStream >> m_aiGoodyHutUnitAssignments[i].m_iUnitID;

	mov	eax, DWORD PTR _this$[ebp]
	mov	ecx, DWORD PTR [eax+100]
	mov	edx, DWORD PTR _i$225088[ebp]
	lea	eax, DWORD PTR [ecx+edx*8]
	mov	DWORD PTR $T232099[ebp], eax
	mov	ecx, DWORD PTR $T232099[ebp]
	push	ecx
	mov	ecx, DWORD PTR _kStream$[ebp]
	call	?Read@FDataStream@@IAEXAAH@Z		; FDataStream::Read

; 415  : 	}

	jmp	$LN8@Read
$LN7@Read:

; 416  : 
; 417  : 	// Skip any ones that go over the limit
; 418  : 	for(int i = iMaxEntriesToRead; i < iEntriesToRead; i++)

	mov	edx, DWORD PTR _iMaxEntriesToRead$[ebp]
	mov	DWORD PTR _i$225092[ebp], edx
	jmp	SHORT $LN6@Read
$LN5@Read:
	mov	eax, DWORD PTR _i$225092[ebp]
	add	eax, 1
	mov	DWORD PTR _i$225092[ebp], eax
$LN6@Read:
	mov	ecx, DWORD PTR _i$225092[ebp]
	cmp	ecx, DWORD PTR _iEntriesToRead$[ebp]
	jge	SHORT $LN4@Read

; 419  : 	{
; 420  : 		int iDummy;
; 421  : 		kStream >> iDummy;

	lea	edx, DWORD PTR _iDummy$225096[ebp]
	push	edx
	mov	ecx, DWORD PTR _kStream$[ebp]
	call	?Read@FDataStream@@IAEXAAH@Z		; FDataStream::Read

; 422  : 		kStream >> iDummy;

	lea	eax, DWORD PTR _iDummy$225096[ebp]
	push	eax
	mov	ecx, DWORD PTR _kStream$[ebp]
	call	?Read@FDataStream@@IAEXAAH@Z		; FDataStream::Read

; 423  : 	}

	jmp	SHORT $LN5@Read
$LN4@Read:

; 424  : 
; 425  : 	int iTemp;
; 426  : 	kStream >> iTemp;

	lea	ecx, DWORD PTR _iTemp$[ebp]
	push	ecx
	mov	ecx, DWORD PTR _kStream$[ebp]
	call	?Read@FDataStream@@IAEXAAH@Z		; FDataStream::Read

; 427  : 	m_eReconState = (ReconState)iTemp;

	mov	edx, DWORD PTR _this$[ebp]
	mov	eax, DWORD PTR _iTemp$[ebp]
	mov	DWORD PTR [edx+28], eax

; 428  : 	kStream >> iTemp;

	lea	ecx, DWORD PTR _iTemp$[ebp]
	push	ecx
	mov	ecx, DWORD PTR _kStream$[ebp]
	call	?Read@FDataStream@@IAEXAAH@Z		; FDataStream::Read

; 429  : 	m_eNavalReconState = (ReconState)iTemp;

	mov	edx, DWORD PTR _this$[ebp]
	mov	eax, DWORD PTR _iTemp$[ebp]
	mov	DWORD PTR [edx+32], eax

; 430  : 
; 431  : 	kStream >> m_iExplorersDisbanded;

	mov	ecx, DWORD PTR _this$[ebp]
	add	ecx, 36					; 00000024H
	push	ecx
	mov	ecx, DWORD PTR _kStream$[ebp]
	call	?Read@FDataStream@@IAEXAAH@Z		; FDataStream::Read

; 432  : 	kStream >> m_iLastTurnWorkerDisbanded;

	mov	edx, DWORD PTR _this$[ebp]
	add	edx, 40					; 00000028H
	push	edx
	mov	ecx, DWORD PTR _kStream$[ebp]
	call	?Read@FDataStream@@IAEXAAH@Z		; FDataStream::Read

; 433  : 	kStream >> m_iVisibleAntiquitySites;

	mov	eax, DWORD PTR _this$[ebp]
	add	eax, 44					; 0000002cH
	push	eax
	mov	ecx, DWORD PTR _kStream$[ebp]
	call	?Read@FDataStream@@IAEXAAH@Z		; FDataStream::Read

; 434  : 
; 435  : 	kStream >> iEntriesToRead;

	lea	ecx, DWORD PTR _iEntriesToRead$[ebp]
	push	ecx
	mov	ecx, DWORD PTR _kStream$[ebp]
	call	?Read@FDataStream@@IAEXAAH@Z		; FDataStream::Read

; 436  : 	for(int i = 0; i < iEntriesToRead; i++)

	mov	DWORD PTR _i$225100[ebp], 0
	jmp	SHORT $LN3@Read
$LN2@Read:
	mov	edx, DWORD PTR _i$225100[ebp]
	add	edx, 1
	mov	DWORD PTR _i$225100[ebp], edx
$LN3@Read:
	mov	eax, DWORD PTR _i$225100[ebp]
	cmp	eax, DWORD PTR _iEntriesToRead$[ebp]
	jge	SHORT $LN19@Read

; 437  : 	{
; 438  : 		kStream >> m_RequestedSavings[i];

	mov	ecx, DWORD PTR _i$225100[ebp]
	imul	ecx, 12					; 0000000cH
	mov	edx, DWORD PTR _this$[ebp]
	add	ecx, DWORD PTR [edx+112]
	push	ecx
	mov	eax, DWORD PTR _kStream$[ebp]
	push	eax
	call	??5@YAAAVFDataStream@@AAV0@AAVCvPurchaseRequest@@@Z ; operator>>
	add	esp, 8
	jmp	SHORT $LN2@Read
$LN19@Read:

; 439  : 	}
; 440  : }

	mov	esp, ebp
	pop	ebp
	ret	4
?Read@CvEconomicAI@@QAEXAAVFDataStream@@@Z ENDP		; CvEconomicAI::Read
_TEXT	ENDS
PUBLIC	??6@YAAAVFDataStream@@AAV0@ABVCvPurchaseRequest@@@Z ; operator<<
PUBLIC	??$?6H@@YAAAVFDataStream@@AAV0@ABV?$ArrayWrapper@H@@@Z ; operator<<<int>
PUBLIC	??$?6_N@@YAAAVFDataStream@@AAV0@ABV?$ArrayWrapper@_N@@@Z ; operator<<<bool>
PUBLIC	?Write@CvEconomicAI@@QAEXAAVFDataStream@@@Z	; CvEconomicAI::Write
EXTRN	?Write@FDataStream@@IAEXAB_N@Z:PROC		; FDataStream::Write
EXTRN	?Write@FDataStream@@IAEXABH@Z:PROC		; FDataStream::Write
EXTRN	?Write@FDataStream@@IAEXABI@Z:PROC		; FDataStream::Write
; Function compile flags: /Odtp
;	COMDAT ?Write@CvEconomicAI@@QAEXAAVFDataStream@@@Z
_TEXT	SEGMENT
_this$ = -124						; size = 4
$T232238 = -120						; size = 4
$T232231 = -116						; size = 4
$T232212 = -112						; size = 4
$T232205 = -108						; size = 4
$T232198 = -104						; size = 4
$T232191 = -100						; size = 4
$T232187 = -96						; size = 4
$T232180 = -92						; size = 4
$T232173 = -88						; size = 4
$T232166 = -84						; size = 4
$T232159 = -80						; size = 4
$T232152 = -76						; size = 4
$T232151 = -72						; size = 4
$T232147 = -68						; size = 4
$T232146 = -64						; size = 4
$T232136 = -60						; size = 4
$T232135 = -56						; size = 4
$T232134 = -52						; size = 4
$T232133 = -48						; size = 4
$T232132 = -44						; size = 4
$T232131 = -40						; size = 8
$T232130 = -32						; size = 8
$T232129 = -24						; size = 4
_ui$225166 = -20					; size = 4
_ui$225156 = -16					; size = 4
_ui$225151 = -12					; size = 4
_ui$225146 = -8						; size = 4
_uiVersion$ = -4					; size = 4
_kStream$ = 8						; size = 4
?Write@CvEconomicAI@@QAEXAAVFDataStream@@@Z PROC	; CvEconomicAI::Write, COMDAT
; _this$ = ecx

; 444  : {

	push	ebp
	mov	ebp, esp
	sub	esp, 124				; 0000007cH
	mov	DWORD PTR _this$[ebp], ecx

; 445  : 	// Current version number
; 446  : 	uint uiVersion = 1;

	mov	DWORD PTR _uiVersion$[ebp], 1

; 447  : 	kStream << uiVersion;

	lea	eax, DWORD PTR _uiVersion$[ebp]
	push	eax
	mov	ecx, DWORD PTR _kStream$[ebp]
	call	?Write@FDataStream@@IAEXABI@Z		; FDataStream::Write

; 448  : 
; 449  : 	FAssertMsg(GC.getNumEconomicAIStrategyInfos() > 0, "Number of AIStrategies to serialize is expected to greater than 0");
; 450  : 	kStream << m_pAIStrategies->GetNumEconomicAIStrategies();

	mov	ecx, DWORD PTR _this$[ebp]
	mov	ecx, DWORD PTR [ecx+8]
	call	?GetNumEconomicAIStrategies@CvEconomicAIStrategyXMLEntries@@QAEHXZ ; CvEconomicAIStrategyXMLEntries::GetNumEconomicAIStrategies
	mov	DWORD PTR $T232129[ebp], eax
	lea	edx, DWORD PTR $T232129[ebp]
	push	edx
	mov	ecx, DWORD PTR _kStream$[ebp]
	call	?Write@FDataStream@@IAEXABH@Z		; FDataStream::Write

; 451  : 	kStream << ArrayWrapper<bool>(m_pAIStrategies->GetNumEconomicAIStrategies(), m_pabUsingStrategy);

	mov	eax, DWORD PTR _this$[ebp]
	mov	ecx, DWORD PTR [eax+12]
	mov	DWORD PTR $T232147[ebp], ecx
	mov	edx, DWORD PTR _this$[ebp]
	mov	ecx, DWORD PTR [edx+8]
	call	?GetNumEconomicAIStrategies@CvEconomicAIStrategyXMLEntries@@QAEHXZ ; CvEconomicAIStrategyXMLEntries::GetNumEconomicAIStrategies
	mov	DWORD PTR $T232146[ebp], eax
	mov	eax, DWORD PTR $T232147[ebp]
	mov	DWORD PTR $T232130[ebp], eax
	mov	ecx, DWORD PTR $T232146[ebp]
	mov	DWORD PTR $T232130[ebp+4], ecx
	lea	edx, DWORD PTR $T232130[ebp]
	push	edx
	mov	eax, DWORD PTR _kStream$[ebp]
	push	eax
	call	??$?6_N@@YAAAVFDataStream@@AAV0@ABV?$ArrayWrapper@_N@@@Z ; operator<<<bool>
	add	esp, 8

; 452  : 	kStream << ArrayWrapper<int>(m_pAIStrategies->GetNumEconomicAIStrategies(), m_paiTurnStrategyAdopted);

	mov	ecx, DWORD PTR _this$[ebp]
	mov	edx, DWORD PTR [ecx+16]
	mov	DWORD PTR $T232152[ebp], edx
	mov	eax, DWORD PTR _this$[ebp]
	mov	ecx, DWORD PTR [eax+8]
	call	?GetNumEconomicAIStrategies@CvEconomicAIStrategyXMLEntries@@QAEHXZ ; CvEconomicAIStrategyXMLEntries::GetNumEconomicAIStrategies
	mov	DWORD PTR $T232151[ebp], eax
	mov	ecx, DWORD PTR $T232152[ebp]
	mov	DWORD PTR $T232131[ebp], ecx
	mov	edx, DWORD PTR $T232151[ebp]
	mov	DWORD PTR $T232131[ebp+4], edx
	lea	eax, DWORD PTR $T232131[ebp]
	push	eax
	mov	ecx, DWORD PTR _kStream$[ebp]
	push	ecx
	call	??$?6H@@YAAAVFDataStream@@AAV0@ABV?$ArrayWrapper@H@@@Z ; operator<<<int>
	add	esp, 8

; 453  : 	for(uint ui = 0; ui < NUM_YIELD_TYPES; ui++)

	mov	DWORD PTR _ui$225146[ebp], 0
	jmp	SHORT $LN12@Write
$LN11@Write:
	mov	edx, DWORD PTR _ui$225146[ebp]
	add	edx, 1
	mov	DWORD PTR _ui$225146[ebp], edx
$LN12@Write:
	cmp	DWORD PTR _ui$225146[ebp], 6
	jae	SHORT $LN10@Write

; 454  : 	{
; 455  : 		kStream << m_auiYields[ui];

	mov	eax, DWORD PTR _this$[ebp]
	mov	ecx, DWORD PTR [eax+52]
	mov	edx, DWORD PTR _ui$225146[ebp]
	lea	eax, DWORD PTR [ecx+edx*4]
	mov	DWORD PTR $T232159[ebp], eax
	mov	ecx, DWORD PTR $T232159[ebp]
	push	ecx
	mov	ecx, DWORD PTR _kStream$[ebp]
	call	?Write@FDataStream@@IAEXABI@Z		; FDataStream::Write

; 456  : 	}

	jmp	SHORT $LN11@Write
$LN10@Write:

; 457  : 
; 458  : 	kStream << m_bExplorationPlotsDirty;

	mov	edx, DWORD PTR _this$[ebp]
	push	edx
	mov	ecx, DWORD PTR _kStream$[ebp]
	call	?Write@FDataStream@@IAEXAB_N@Z		; FDataStream::Write

; 459  : 	kStream << m_aiExplorationPlots.size();

	mov	eax, DWORD PTR _this$[ebp]
	mov	ecx, DWORD PTR [eax+68]
	mov	DWORD PTR $T232166[ebp], ecx
	mov	edx, DWORD PTR $T232166[ebp]
	mov	DWORD PTR $T232132[ebp], edx
	lea	eax, DWORD PTR $T232132[ebp]
	push	eax
	mov	ecx, DWORD PTR _kStream$[ebp]
	call	?Write@FDataStream@@IAEXABI@Z		; FDataStream::Write

; 460  : 	for(uint ui = 0; ui < m_aiExplorationPlots.size(); ui++)

	mov	DWORD PTR _ui$225151[ebp], 0
	jmp	SHORT $LN9@Write
$LN8@Write:
	mov	ecx, DWORD PTR _ui$225151[ebp]
	add	ecx, 1
	mov	DWORD PTR _ui$225151[ebp], ecx
$LN9@Write:
	mov	edx, DWORD PTR _this$[ebp]
	mov	eax, DWORD PTR [edx+68]
	mov	DWORD PTR $T232173[ebp], eax
	mov	ecx, DWORD PTR _ui$225151[ebp]
	cmp	ecx, DWORD PTR $T232173[ebp]
	jae	SHORT $LN7@Write

; 461  : 	{
; 462  : 		kStream << m_aiExplorationPlots[ui];

	mov	edx, DWORD PTR _this$[ebp]
	mov	eax, DWORD PTR [edx+64]
	mov	ecx, DWORD PTR _ui$225151[ebp]
	lea	edx, DWORD PTR [eax+ecx*4]
	mov	DWORD PTR $T232180[ebp], edx
	mov	eax, DWORD PTR $T232180[ebp]
	push	eax
	mov	ecx, DWORD PTR _kStream$[ebp]
	call	?Write@FDataStream@@IAEXABH@Z		; FDataStream::Write

; 463  : 		kStream << m_aiExplorationPlotRatings[ui];

	mov	ecx, DWORD PTR _this$[ebp]
	mov	edx, DWORD PTR [ecx+76]
	mov	eax, DWORD PTR _ui$225151[ebp]
	lea	ecx, DWORD PTR [edx+eax*4]
	mov	DWORD PTR $T232187[ebp], ecx
	mov	edx, DWORD PTR $T232187[ebp]
	push	edx
	mov	ecx, DWORD PTR _kStream$[ebp]
	call	?Write@FDataStream@@IAEXABH@Z		; FDataStream::Write

; 464  : 	}

	jmp	SHORT $LN8@Write
$LN7@Write:

; 465  : 
; 466  : 	kStream << m_aiGoodyHutPlots.size();

	mov	eax, DWORD PTR _this$[ebp]
	mov	ecx, DWORD PTR [eax+92]
	mov	DWORD PTR $T232191[ebp], ecx
	mov	edx, DWORD PTR $T232191[ebp]
	mov	DWORD PTR $T232133[ebp], edx
	lea	eax, DWORD PTR $T232133[ebp]
	push	eax
	mov	ecx, DWORD PTR _kStream$[ebp]
	call	?Write@FDataStream@@IAEXABI@Z		; FDataStream::Write

; 467  : 	for(uint ui = 0; ui < m_aiGoodyHutPlots.size(); ui++)

	mov	DWORD PTR _ui$225156[ebp], 0
	jmp	SHORT $LN6@Write
$LN5@Write:
	mov	ecx, DWORD PTR _ui$225156[ebp]
	add	ecx, 1
	mov	DWORD PTR _ui$225156[ebp], ecx
$LN6@Write:
	mov	edx, DWORD PTR _this$[ebp]
	mov	eax, DWORD PTR [edx+92]
	mov	DWORD PTR $T232198[ebp], eax
	mov	ecx, DWORD PTR _ui$225156[ebp]
	cmp	ecx, DWORD PTR $T232198[ebp]
	jae	SHORT $LN4@Write

; 468  : 	{
; 469  : 		kStream << m_aiGoodyHutPlots[ui];

	mov	edx, DWORD PTR _this$[ebp]
	mov	eax, DWORD PTR [edx+88]
	mov	ecx, DWORD PTR _ui$225156[ebp]
	lea	edx, DWORD PTR [eax+ecx*4]
	mov	DWORD PTR $T232205[ebp], edx
	mov	eax, DWORD PTR $T232205[ebp]
	push	eax
	mov	ecx, DWORD PTR _kStream$[ebp]
	call	?Write@FDataStream@@IAEXABH@Z		; FDataStream::Write

; 470  : 		kStream << m_aiGoodyHutUnitAssignments[ui].m_iUnitID;

	mov	ecx, DWORD PTR _this$[ebp]
	mov	edx, DWORD PTR [ecx+100]
	mov	eax, DWORD PTR _ui$225156[ebp]
	lea	ecx, DWORD PTR [edx+eax*8]
	mov	DWORD PTR $T232212[ebp], ecx
	mov	edx, DWORD PTR $T232212[ebp]
	push	edx
	mov	ecx, DWORD PTR _kStream$[ebp]
	call	?Write@FDataStream@@IAEXABH@Z		; FDataStream::Write

; 471  : 	}

	jmp	SHORT $LN5@Write
$LN4@Write:

; 472  : 
; 473  : 	kStream << (int)m_eReconState;

	mov	eax, DWORD PTR _this$[ebp]
	mov	ecx, DWORD PTR [eax+28]
	mov	DWORD PTR $T232134[ebp], ecx
	lea	edx, DWORD PTR $T232134[ebp]
	push	edx
	mov	ecx, DWORD PTR _kStream$[ebp]
	call	?Write@FDataStream@@IAEXABH@Z		; FDataStream::Write

; 474  : 	kStream << (int)m_eNavalReconState;

	mov	eax, DWORD PTR _this$[ebp]
	mov	ecx, DWORD PTR [eax+32]
	mov	DWORD PTR $T232135[ebp], ecx
	lea	edx, DWORD PTR $T232135[ebp]
	push	edx
	mov	ecx, DWORD PTR _kStream$[ebp]
	call	?Write@FDataStream@@IAEXABH@Z		; FDataStream::Write

; 475  : 	kStream << m_iExplorersDisbanded;

	mov	eax, DWORD PTR _this$[ebp]
	add	eax, 36					; 00000024H
	push	eax
	mov	ecx, DWORD PTR _kStream$[ebp]
	call	?Write@FDataStream@@IAEXABH@Z		; FDataStream::Write

; 476  : 	kStream << m_iLastTurnWorkerDisbanded;

	mov	ecx, DWORD PTR _this$[ebp]
	add	ecx, 40					; 00000028H
	push	ecx
	mov	ecx, DWORD PTR _kStream$[ebp]
	call	?Write@FDataStream@@IAEXABH@Z		; FDataStream::Write

; 477  : 	kStream << m_iVisibleAntiquitySites;

	mov	edx, DWORD PTR _this$[ebp]
	add	edx, 44					; 0000002cH
	push	edx
	mov	ecx, DWORD PTR _kStream$[ebp]
	call	?Write@FDataStream@@IAEXABH@Z		; FDataStream::Write

; 478  : 
; 479  : 	kStream << (int)m_RequestedSavings.size();

	mov	eax, DWORD PTR _this$[ebp]
	mov	ecx, DWORD PTR [eax+116]
	mov	DWORD PTR $T232231[ebp], ecx
	mov	edx, DWORD PTR $T232231[ebp]
	mov	DWORD PTR $T232136[ebp], edx
	lea	eax, DWORD PTR $T232136[ebp]
	push	eax
	mov	ecx, DWORD PTR _kStream$[ebp]
	call	?Write@FDataStream@@IAEXABH@Z		; FDataStream::Write

; 480  : 	for(uint ui = 0; ui < m_RequestedSavings.size(); ui++)

	mov	DWORD PTR _ui$225166[ebp], 0
	jmp	SHORT $LN3@Write
$LN2@Write:
	mov	ecx, DWORD PTR _ui$225166[ebp]
	add	ecx, 1
	mov	DWORD PTR _ui$225166[ebp], ecx
$LN3@Write:
	mov	edx, DWORD PTR _this$[ebp]
	mov	eax, DWORD PTR [edx+116]
	mov	DWORD PTR $T232238[ebp], eax
	mov	ecx, DWORD PTR _ui$225166[ebp]
	cmp	ecx, DWORD PTR $T232238[ebp]
	jae	SHORT $LN13@Write

; 481  : 	{
; 482  : 		kStream << m_RequestedSavings[ui];

	mov	edx, DWORD PTR _ui$225166[ebp]
	imul	edx, 12					; 0000000cH
	mov	eax, DWORD PTR _this$[ebp]
	add	edx, DWORD PTR [eax+112]
	push	edx
	mov	ecx, DWORD PTR _kStream$[ebp]
	push	ecx
	call	??6@YAAAVFDataStream@@AAV0@ABVCvPurchaseRequest@@@Z ; operator<<
	add	esp, 8
	jmp	SHORT $LN2@Write
$LN13@Write:

; 483  : 	}
; 484  : }

	mov	esp, ebp
	pop	ebp
	ret	4
?Write@CvEconomicAI@@QAEXAAVFDataStream@@@Z ENDP	; CvEconomicAI::Write
_TEXT	ENDS
PUBLIC	?GetPlayer@CvEconomicAI@@QAEPAVCvPlayer@@XZ	; CvEconomicAI::GetPlayer
; Function compile flags: /Odtp
;	COMDAT ?GetPlayer@CvEconomicAI@@QAEPAVCvPlayer@@XZ
_TEXT	SEGMENT
_this$ = -4						; size = 4
?GetPlayer@CvEconomicAI@@QAEPAVCvPlayer@@XZ PROC	; CvEconomicAI::GetPlayer, COMDAT
; _this$ = ecx

; 488  : {

	push	ebp
	mov	ebp, esp
	push	ecx
	mov	DWORD PTR _this$[ebp], ecx

; 489  : 	return m_pPlayer;

	mov	eax, DWORD PTR _this$[ebp]
	mov	eax, DWORD PTR [eax+4]

; 490  : }

	mov	esp, ebp
	pop	ebp
	ret	0
?GetPlayer@CvEconomicAI@@QAEPAVCvPlayer@@XZ ENDP	; CvEconomicAI::GetPlayer
_TEXT	ENDS
PUBLIC	?GetEconomicAIStrategies@CvEconomicAI@@QAEPAVCvEconomicAIStrategyXMLEntries@@XZ ; CvEconomicAI::GetEconomicAIStrategies
; Function compile flags: /Odtp
;	COMDAT ?GetEconomicAIStrategies@CvEconomicAI@@QAEPAVCvEconomicAIStrategyXMLEntries@@XZ
_TEXT	SEGMENT
_this$ = -4						; size = 4
?GetEconomicAIStrategies@CvEconomicAI@@QAEPAVCvEconomicAIStrategyXMLEntries@@XZ PROC ; CvEconomicAI::GetEconomicAIStrategies, COMDAT
; _this$ = ecx

; 494  : {

	push	ebp
	mov	ebp, esp
	push	ecx
	mov	DWORD PTR _this$[ebp], ecx

; 495  : 	return m_pAIStrategies;

	mov	eax, DWORD PTR _this$[ebp]
	mov	eax, DWORD PTR [eax+8]

; 496  : }

	mov	esp, ebp
	pop	ebp
	ret	0
?GetEconomicAIStrategies@CvEconomicAI@@QAEPAVCvEconomicAIStrategyXMLEntries@@XZ ENDP ; CvEconomicAI::GetEconomicAIStrategies
_TEXT	ENDS
PUBLIC	?IsUsingStrategy@CvEconomicAI@@QAE_NW4EconomicAIStrategyTypes@@@Z ; CvEconomicAI::IsUsingStrategy
; Function compile flags: /Odtp
;	COMDAT ?IsUsingStrategy@CvEconomicAI@@QAE_NW4EconomicAIStrategyTypes@@@Z
_TEXT	SEGMENT
_this$ = -4						; size = 4
_eStrategy$ = 8						; size = 4
?IsUsingStrategy@CvEconomicAI@@QAE_NW4EconomicAIStrategyTypes@@@Z PROC ; CvEconomicAI::IsUsingStrategy, COMDAT
; _this$ = ecx

; 504  : {

	push	ebp
	mov	ebp, esp
	push	ecx
	mov	DWORD PTR _this$[ebp], ecx

; 505  : 	return m_pabUsingStrategy[(int) eStrategy];

	mov	eax, DWORD PTR _this$[ebp]
	mov	ecx, DWORD PTR [eax+12]
	mov	edx, DWORD PTR _eStrategy$[ebp]
	mov	al, BYTE PTR [ecx+edx]

; 506  : }

	mov	esp, ebp
	pop	ebp
	ret	4
?IsUsingStrategy@CvEconomicAI@@QAE_NW4EconomicAIStrategyTypes@@@Z ENDP ; CvEconomicAI::IsUsingStrategy
_TEXT	ENDS
PUBLIC	?LogStrategy@CvEconomicAI@@AAEXW4EconomicAIStrategyTypes@@_N@Z ; CvEconomicAI::LogStrategy
PUBLIC	?SetTurnStrategyAdopted@CvEconomicAI@@QAEXW4EconomicAIStrategyTypes@@H@Z ; CvEconomicAI::SetTurnStrategyAdopted
PUBLIC	?SetUsingStrategy@CvEconomicAI@@QAEXW4EconomicAIStrategyTypes@@_N@Z ; CvEconomicAI::SetUsingStrategy
EXTRN	?getGameTurn@CvGame@@QAEHXZ:PROC		; CvGame::getGameTurn
; Function compile flags: /Odtp
;	COMDAT ?SetUsingStrategy@CvEconomicAI@@QAEXW4EconomicAIStrategyTypes@@_N@Z
_TEXT	SEGMENT
_this$ = -8						; size = 4
$T232253 = -4						; size = 4
_eStrategy$ = 8						; size = 4
_bValue$ = 12						; size = 1
?SetUsingStrategy@CvEconomicAI@@QAEXW4EconomicAIStrategyTypes@@_N@Z PROC ; CvEconomicAI::SetUsingStrategy, COMDAT
; _this$ = ecx

; 510  : {

	push	ebp
	mov	ebp, esp
	sub	esp, 8
	mov	DWORD PTR _this$[ebp], ecx

; 511  : 	if(m_pabUsingStrategy[eStrategy] != bValue)

	mov	eax, DWORD PTR _this$[ebp]
	mov	ecx, DWORD PTR [eax+12]
	mov	edx, DWORD PTR _eStrategy$[ebp]
	movzx	eax, BYTE PTR [ecx+edx]
	movzx	ecx, BYTE PTR _bValue$[ebp]
	cmp	eax, ecx
	je	SHORT $LN4@SetUsingSt

; 512  : 	{
; 513  : 		m_pabUsingStrategy[eStrategy] = bValue;

	mov	edx, DWORD PTR _this$[ebp]
	mov	eax, DWORD PTR [edx+12]
	mov	ecx, DWORD PTR _eStrategy$[ebp]
	mov	dl, BYTE PTR _bValue$[ebp]
	mov	BYTE PTR [eax+ecx], dl

; 514  : 
; 515  : 		if(bValue)

	movzx	eax, BYTE PTR _bValue$[ebp]
	test	eax, eax
	je	SHORT $LN2@SetUsingSt

; 516  : 		{
; 517  : 			SetTurnStrategyAdopted(eStrategy, GC.getGame().getGameTurn());

	mov	ecx, DWORD PTR ?gGlobals@@3VCvGlobals@@A+48
	mov	DWORD PTR $T232253[ebp], ecx
	mov	ecx, DWORD PTR $T232253[ebp]
	call	?getGameTurn@CvGame@@QAEHXZ		; CvGame::getGameTurn
	push	eax
	mov	edx, DWORD PTR _eStrategy$[ebp]
	push	edx
	mov	ecx, DWORD PTR _this$[ebp]
	call	?SetTurnStrategyAdopted@CvEconomicAI@@QAEXW4EconomicAIStrategyTypes@@H@Z ; CvEconomicAI::SetTurnStrategyAdopted

; 518  : 		}
; 519  : 		else

	jmp	SHORT $LN1@SetUsingSt
$LN2@SetUsingSt:

; 520  : 		{
; 521  : 			SetTurnStrategyAdopted(eStrategy, -1);

	push	-1
	mov	eax, DWORD PTR _eStrategy$[ebp]
	push	eax
	mov	ecx, DWORD PTR _this$[ebp]
	call	?SetTurnStrategyAdopted@CvEconomicAI@@QAEXW4EconomicAIStrategyTypes@@H@Z ; CvEconomicAI::SetTurnStrategyAdopted
$LN1@SetUsingSt:

; 522  : 		}
; 523  : 
; 524  : 		LogStrategy(eStrategy, bValue);

	movzx	ecx, BYTE PTR _bValue$[ebp]
	push	ecx
	mov	edx, DWORD PTR _eStrategy$[ebp]
	push	edx
	mov	ecx, DWORD PTR _this$[ebp]
	call	?LogStrategy@CvEconomicAI@@AAEXW4EconomicAIStrategyTypes@@_N@Z ; CvEconomicAI::LogStrategy
$LN4@SetUsingSt:

; 525  : 	}
; 526  : }

	mov	esp, ebp
	pop	ebp
	ret	8
?SetUsingStrategy@CvEconomicAI@@QAEXW4EconomicAIStrategyTypes@@_N@Z ENDP ; CvEconomicAI::SetUsingStrategy
_TEXT	ENDS
PUBLIC	?GetTurnStrategyAdopted@CvEconomicAI@@QAEHW4EconomicAIStrategyTypes@@@Z ; CvEconomicAI::GetTurnStrategyAdopted
; Function compile flags: /Odtp
;	COMDAT ?GetTurnStrategyAdopted@CvEconomicAI@@QAEHW4EconomicAIStrategyTypes@@@Z
_TEXT	SEGMENT
_this$ = -4						; size = 4
_eStrategy$ = 8						; size = 4
?GetTurnStrategyAdopted@CvEconomicAI@@QAEHW4EconomicAIStrategyTypes@@@Z PROC ; CvEconomicAI::GetTurnStrategyAdopted, COMDAT
; _this$ = ecx

; 534  : {

	push	ebp
	mov	ebp, esp
	push	ecx
	mov	DWORD PTR _this$[ebp], ecx

; 535  : 	return m_paiTurnStrategyAdopted[(int) eStrategy];

	mov	eax, DWORD PTR _this$[ebp]
	mov	ecx, DWORD PTR [eax+16]
	mov	edx, DWORD PTR _eStrategy$[ebp]
	mov	eax, DWORD PTR [ecx+edx*4]

; 536  : }

	mov	esp, ebp
	pop	ebp
	ret	4
?GetTurnStrategyAdopted@CvEconomicAI@@QAEHW4EconomicAIStrategyTypes@@@Z ENDP ; CvEconomicAI::GetTurnStrategyAdopted
; Function compile flags: /Odtp
_TEXT	ENDS
;	COMDAT ?SetTurnStrategyAdopted@CvEconomicAI@@QAEXW4EconomicAIStrategyTypes@@H@Z
_TEXT	SEGMENT
_this$ = -4						; size = 4
_eStrategy$ = 8						; size = 4
_iValue$ = 12						; size = 4
?SetTurnStrategyAdopted@CvEconomicAI@@QAEXW4EconomicAIStrategyTypes@@H@Z PROC ; CvEconomicAI::SetTurnStrategyAdopted, COMDAT
; _this$ = ecx

; 540  : {

	push	ebp
	mov	ebp, esp
	push	ecx
	mov	DWORD PTR _this$[ebp], ecx

; 541  : 	if(m_paiTurnStrategyAdopted[(int) eStrategy] != iValue)

	mov	eax, DWORD PTR _this$[ebp]
	mov	ecx, DWORD PTR [eax+16]
	mov	edx, DWORD PTR _eStrategy$[ebp]
	mov	eax, DWORD PTR [ecx+edx*4]
	cmp	eax, DWORD PTR _iValue$[ebp]
	je	SHORT $LN2@SetTurnStr

; 542  : 	{
; 543  : 		m_paiTurnStrategyAdopted[(int) eStrategy] = iValue;

	mov	ecx, DWORD PTR _this$[ebp]
	mov	edx, DWORD PTR [ecx+16]
	mov	eax, DWORD PTR _eStrategy$[ebp]
	mov	ecx, DWORD PTR _iValue$[ebp]
	mov	DWORD PTR [edx+eax*4], ecx
$LN2@SetTurnStr:

; 544  : 	}
; 545  : }

	mov	esp, ebp
	pop	ebp
	ret	8
?SetTurnStrategyAdopted@CvEconomicAI@@QAEXW4EconomicAIStrategyTypes@@H@Z ENDP ; CvEconomicAI::SetTurnStrategyAdopted
_TEXT	ENDS
PUBLIC	?DisbandExtraArchaeologists@CvEconomicAI@@AAEXXZ ; CvEconomicAI::DisbandExtraArchaeologists
PUBLIC	?DisbandExtraWorkers@CvEconomicAI@@AAEXXZ	; CvEconomicAI::DisbandExtraWorkers
PUBLIC	?DoPlotPurchases@CvEconomicAI@@AAEXXZ		; CvEconomicAI::DoPlotPurchases
PUBLIC	?DoHurry@CvEconomicAI@@AAEXXZ			; CvEconomicAI::DoHurry
PUBLIC	??_C@_0BM@BLKCLAIM@EconomicStrategyCanActivate?$AA@ ; `string'
PUBLIC	?IsTestStrategy_StartedPiety@EconomicAIHelpers@@YA_NPAVCvPlayer@@@Z ; EconomicAIHelpers::IsTestStrategy_StartedPiety
PUBLIC	??_C@_0CB@EPJOLIIN@ECONOMICAISTRATEGY_STARTED_PIETY@ ; `string'
PUBLIC	?IsTestStrategy_ConcertTour@EconomicAIHelpers@@YA_NW4EconomicAIStrategyTypes@@PAVCvPlayer@@@Z ; EconomicAIHelpers::IsTestStrategy_ConcertTour
PUBLIC	??_C@_0CA@PBGIMIOP@ECONOMICAISTRATEGY_CONCERT_TOUR?$AA@ ; `string'
PUBLIC	?IsTestStrategy_NeedGuilds@EconomicAIHelpers@@YA_NPAVCvPlayer@@@Z ; EconomicAIHelpers::IsTestStrategy_NeedGuilds
PUBLIC	??_C@_0BP@OKANEKEH@ECONOMICAISTRATEGY_NEED_GUILDS?$AA@ ; `string'
PUBLIC	?IsTestStrategy_NeedMuseums@EconomicAIHelpers@@YA_NPAVCvPlayer@@@Z ; EconomicAIHelpers::IsTestStrategy_NeedMuseums
PUBLIC	??_C@_0CA@LJEEDGCK@ECONOMICAISTRATEGY_NEED_MUSEUMS?$AA@ ; `string'
PUBLIC	?IsTestStrategy_EnoughArchaeologists@EconomicAIHelpers@@YA_NPAVCvPlayer@@@Z ; EconomicAIHelpers::IsTestStrategy_EnoughArchaeologists
PUBLIC	??_C@_0CJ@OJNNMPCJ@ECONOMICAISTRATEGY_ENOUGH_ARCHAE@ ; `string'
PUBLIC	?IsTestStrategy_NeedArchaeologists@EconomicAIHelpers@@YA_NPAVCvPlayer@@@Z ; EconomicAIHelpers::IsTestStrategy_NeedArchaeologists
PUBLIC	??_C@_0CH@JBCPGFFK@ECONOMICAISTRATEGY_NEED_ARCHAEOL@ ; `string'
PUBLIC	?IsTestStrategy_TechLeader@EconomicAIHelpers@@YA_NPAVCvPlayer@@@Z ; EconomicAIHelpers::IsTestStrategy_TechLeader
PUBLIC	??_C@_0BP@LMEKCLA@ECONOMICAISTRATEGY_TECH_LEADER?$AA@ ; `string'
PUBLIC	?IsTestStrategy_DevelopingReligion@EconomicAIHelpers@@YA_NPAVCvPlayer@@@Z ; EconomicAIHelpers::IsTestStrategy_DevelopingReligion
PUBLIC	??_C@_0CH@GNLJCNLK@ECONOMICAISTRATEGY_DEVELOPING_RE@ ; `string'
PUBLIC	?IsTestStrategy_OffshoreExpansionMap@EconomicAIHelpers@@YA_NPAVCvPlayer@@@Z ; EconomicAIHelpers::IsTestStrategy_OffshoreExpansionMap
PUBLIC	??_C@_0CK@OCGLJEIH@ECONOMICAISTRATEGY_OFFSHORE_EXPA@ ; `string'
PUBLIC	?IsTestStrategy_NavalMap@EconomicAIHelpers@@YA_NPAVCvPlayer@@@Z ; EconomicAIHelpers::IsTestStrategy_NavalMap
PUBLIC	??_C@_0BN@CEBPEMPC@ECONOMICAISTRATEGY_NAVAL_MAP?$AA@ ; `string'
PUBLIC	?IsTestStrategy_GS_SpaceshipHomestretch@EconomicAIHelpers@@YA_NPAVCvPlayer@@@Z ; EconomicAIHelpers::IsTestStrategy_GS_SpaceshipHomestretch
PUBLIC	??_C@_0CM@MOIMHCNJ@ECONOMICAISTRATEGY_GS_SPACESHIP_@ ; `string'
PUBLIC	?IsTestStrategy_GS_Spaceship@EconomicAIHelpers@@YA_NPAVCvPlayer@@@Z ; EconomicAIHelpers::IsTestStrategy_GS_Spaceship
PUBLIC	??_C@_0CA@GMLPPGJD@ECONOMICAISTRATEGY_GS_SPACESHIP?$AA@ ; `string'
PUBLIC	?IsTestStrategy_GS_Diplomacy@EconomicAIHelpers@@YA_NPAVCvPlayer@@@Z ; EconomicAIHelpers::IsTestStrategy_GS_Diplomacy
PUBLIC	??_C@_0CA@DAOBKCOE@ECONOMICAISTRATEGY_GS_DIPLOMACY?$AA@ ; `string'
PUBLIC	?IsTestStrategy_GS_Conquest@EconomicAIHelpers@@YA_NPAVCvPlayer@@@Z ; EconomicAIHelpers::IsTestStrategy_GS_Conquest
PUBLIC	??_C@_0BP@JJIICCGD@ECONOMICAISTRATEGY_GS_CONQUEST?$AA@ ; `string'
PUBLIC	?IsTestStrategy_GS_Culture@EconomicAIHelpers@@YA_NPAVCvPlayer@@@Z ; EconomicAIHelpers::IsTestStrategy_GS_Culture
PUBLIC	??_C@_0BO@KOACKBDH@ECONOMICAISTRATEGY_GS_CULTURE?$AA@ ; `string'
PUBLIC	?IsTestStrategy_GrowLikeCrazy@EconomicAIHelpers@@YA_NW4EconomicAIStrategyTypes@@PAVCvPlayer@@@Z ; EconomicAIHelpers::IsTestStrategy_GrowLikeCrazy
PUBLIC	??_C@_0CD@HFHBGCBF@ECONOMICAISTRATEGY_GROW_LIKE_CRA@ ; `string'
PUBLIC	?IsTestStrategy_ExpandLikeCrazy@EconomicAIHelpers@@YA_NW4EconomicAIStrategyTypes@@PAVCvPlayer@@@Z ; EconomicAIHelpers::IsTestStrategy_ExpandLikeCrazy
PUBLIC	??_C@_0CF@GIOLCFEP@ECONOMICAISTRATEGY_EXPAND_LIKE_C@ ; `string'
PUBLIC	?IsTestStrategy_MostlyOnTheCoast@EconomicAIHelpers@@YA_NPAVCvPlayer@@@Z ; EconomicAIHelpers::IsTestStrategy_MostlyOnTheCoast
PUBLIC	??_C@_0CH@HOLHLIDH@ECONOMICAISTRATEGY_MOSTLY_ON_THE@ ; `string'
PUBLIC	?IsTestStrategy_ReallyExpandToOtherContinents@EconomicAIHelpers@@YA_NPAVCvPlayer@@@Z ; EconomicAIHelpers::IsTestStrategy_ReallyExpandToOtherContinents
PUBLIC	??_C@_0DF@EDEAHICP@ECONOMICAISTRATEGY_REALLY_EXPAND@ ; `string'
PUBLIC	?IsTestStrategy_ExpandToOtherContinents@EconomicAIHelpers@@YA_NPAVCvPlayer@@@Z ; EconomicAIHelpers::IsTestStrategy_ExpandToOtherContinents
PUBLIC	??_C@_0CO@KFILJFKH@ECONOMICAISTRATEGY_EXPAND_TO_OTH@ ; `string'
PUBLIC	?IsTestStrategy_IslandStart@EconomicAIHelpers@@YA_NW4EconomicAIStrategyTypes@@PAVCvPlayer@@@Z ; EconomicAIHelpers::IsTestStrategy_IslandStart
PUBLIC	??_C@_0CA@GADCJDII@ECONOMICAISTRATEGY_ISLAND_START?$AA@ ; `string'
PUBLIC	?IsTestStrategy_TooManyUnits@EconomicAIHelpers@@YA_NPAVCvPlayer@@@Z ; EconomicAIHelpers::IsTestStrategy_TooManyUnits
PUBLIC	??_C@_0CC@ECECMFD@ECONOMICAISTRATEGY_TOO_MANY_UNIT@ ; `string'
PUBLIC	?IsTestStrategy_HaltGrowthBuildings@EconomicAIHelpers@@YA_NPAVCvPlayer@@@Z ; EconomicAIHelpers::IsTestStrategy_HaltGrowthBuildings
PUBLIC	??_C@_0CJ@BNOKMBDA@ECONOMICAISTRATEGY_HALT_GROWTH_B@ ; `string'
PUBLIC	?IsTestStrategy_LosingMoney@EconomicAIHelpers@@YA_NW4EconomicAIStrategyTypes@@PAVCvPlayer@@@Z ; EconomicAIHelpers::IsTestStrategy_LosingMoney
PUBLIC	??_C@_0CA@OBBOJGK@ECONOMICAISTRATEGY_LOSING_MONEY?$AA@ ; `string'
PUBLIC	?IsTestStrategy_OneOrFewerCoastalCities@EconomicAIHelpers@@YA_NPAVCvPlayer@@@Z ; EconomicAIHelpers::IsTestStrategy_OneOrFewerCoastalCities
PUBLIC	??_C@_0CP@JJNEAOJM@ECONOMICAISTRATEGY_ONE_OR_FEWER_@ ; `string'
PUBLIC	??_C@_0CP@DDBIBPAO@ECONOMICAISTRATEGY_NEED_IMPROVEM@ ; `string'
PUBLIC	?IsTestStrategy_NeedImprovement@EconomicAIHelpers@@YA_NPAVCvPlayer@@W4YieldTypes@@@Z ; EconomicAIHelpers::IsTestStrategy_NeedImprovement
PUBLIC	??_C@_0CJ@IKFAHECC@ECONOMICAISTRATEGY_NEED_IMPROVEM@ ; `string'
PUBLIC	?IsTestStrategy_TradeWithCityState@EconomicAIHelpers@@YA_NW4EconomicAIStrategyTypes@@PAVCvPlayer@@@Z ; EconomicAIHelpers::IsTestStrategy_TradeWithCityState
PUBLIC	??_C@_0CJ@MGEMDMLI@ECONOMICAISTRATEGY_TRADE_WITH_CI@ ; `string'
PUBLIC	?IsTestStrategy_FoundCity@EconomicAIHelpers@@YA_NW4EconomicAIStrategyTypes@@PAVCvPlayer@@@Z ; EconomicAIHelpers::IsTestStrategy_FoundCity
PUBLIC	??_C@_0BO@DCCLOFML@ECONOMICAISTRATEGY_FOUND_CITY?$AA@ ; `string'
PUBLIC	?IsTestStrategy_CitiesNeedNavalTileImprovement@EconomicAIHelpers@@YA_NW4EconomicAIStrategyTypes@@PAVCvPlayer@@@Z ; EconomicAIHelpers::IsTestStrategy_CitiesNeedNavalTileImprovement
PUBLIC	??_C@_0DG@KIGJKIPP@ECONOMICAISTRATEGY_CITIES_NEED_N@ ; `string'
PUBLIC	?IsTestStrategy_CitiesNeedNavalGrowth@EconomicAIHelpers@@YA_NW4EconomicAIStrategyTypes@@PAVCvPlayer@@@Z ; EconomicAIHelpers::IsTestStrategy_CitiesNeedNavalGrowth
PUBLIC	??_C@_0CM@CPBLKKDC@ECONOMICAISTRATEGY_CITIES_NEED_N@ ; `string'
PUBLIC	?IsTestStrategy_NeedHappinessCritical@EconomicAIHelpers@@YA_NW4EconomicAIStrategyTypes@@PAVCvPlayer@@@Z ; EconomicAIHelpers::IsTestStrategy_NeedHappinessCritical
PUBLIC	??_C@_0CL@FDIIBLEP@ECONOMICAISTRATEGY_NEED_HAPPINES@ ; `string'
PUBLIC	?IsTestStrategy_NeedHappiness@EconomicAIHelpers@@YA_NW4EconomicAIStrategyTypes@@PAVCvPlayer@@@Z ; EconomicAIHelpers::IsTestStrategy_NeedHappiness
PUBLIC	??_C@_0CC@LFBHKCEL@ECONOMICAISTRATEGY_NEED_HAPPINES@ ; `string'
PUBLIC	?IsTestStrategy_EnoughExpansion@EconomicAIHelpers@@YA_NW4EconomicAIStrategyTypes@@PAVCvPlayer@@@Z ; EconomicAIHelpers::IsTestStrategy_EnoughExpansion
PUBLIC	??_C@_0CE@OFIOLJNP@ECONOMICAISTRATEGY_ENOUGH_EXPANS@ ; `string'
PUBLIC	?IsTestStrategy_EarlyExpansion@EconomicAIHelpers@@YA_NPAVCvPlayer@@@Z ; EconomicAIHelpers::IsTestStrategy_EarlyExpansion
PUBLIC	??_C@_0CD@CKIOFBEO@ECONOMICAISTRATEGY_EARLY_EXPANSI@ ; `string'
PUBLIC	?IsTestStrategy_EnoughReconSea@EconomicAIHelpers@@YA_NPAVCvPlayer@@@Z ; EconomicAIHelpers::IsTestStrategy_EnoughReconSea
PUBLIC	??_C@_0CE@KPCDAIBO@ECONOMICAISTRATEGY_ENOUGH_RECON_@ ; `string'
PUBLIC	?IsTestStrategy_NeedReconSea@EconomicAIHelpers@@YA_NPAVCvPlayer@@@Z ; EconomicAIHelpers::IsTestStrategy_NeedReconSea
PUBLIC	??_C@_0CC@OOHNBBFB@ECONOMICAISTRATEGY_NEED_RECON_SE@ ; `string'
PUBLIC	?IsTestStrategy_ReallyNeedReconSea@EconomicAIHelpers@@YA_NPAVCvPlayer@@@Z ; EconomicAIHelpers::IsTestStrategy_ReallyNeedReconSea
PUBLIC	??_C@_0CJ@OIJNFMCA@ECONOMICAISTRATEGY_REALLY_NEED_R@ ; `string'
PUBLIC	?IsTestStrategy_EnoughRecon@EconomicAIHelpers@@YA_NPAVCvPlayer@@@Z ; EconomicAIHelpers::IsTestStrategy_EnoughRecon
PUBLIC	??_C@_0CA@LMJCENAC@ECONOMICAISTRATEGY_ENOUGH_RECON?$AA@ ; `string'
PUBLIC	?IsTestStrategy_NeedRecon@EconomicAIHelpers@@YA_NPAVCvPlayer@@@Z ; EconomicAIHelpers::IsTestStrategy_NeedRecon
PUBLIC	??_C@_0BO@IOIAMMNH@ECONOMICAISTRATEGY_NEED_RECON?$AA@ ; `string'
PUBLIC	??_C@_00CNPNBAHC@?$AA@				; `string'
PUBLIC	?DoAntiquitySites@CvEconomicAI@@AAEXXZ		; CvEconomicAI::DoAntiquitySites
PUBLIC	?DoReconState@CvEconomicAI@@AAEXXZ		; CvEconomicAI::DoReconState
PUBLIC	?LogCityMonitor@CvEconomicAI@@QAEXXZ		; CvEconomicAI::LogCityMonitor
PUBLIC	?LogMonitor@CvEconomicAI@@QAEXXZ		; CvEconomicAI::LogMonitor
PUBLIC	?UpdatePlots@CvEconomicAI@@QAEXXZ		; CvEconomicAI::UpdatePlots
PUBLIC	__$ArrayPad$
PUBLIC	?DoTurn@CvEconomicAI@@QAEXXZ			; CvEconomicAI::DoTurn
EXTRN	?DoSwapGreatWorks@CvPlayerCulture@@QAEXXZ:PROC	; CvPlayerCulture::DoSwapGreatWorks
EXTRN	?GetCulture@CvPlayer@@QBEPAVCvPlayerCulture@@XZ:PROC ; CvPlayer::GetCulture
EXTRN	?isBarbarian@CvPlayer@@QBE_NXZ:PROC		; CvPlayer::isBarbarian
EXTRN	?isHuman@CvPlayer@@QBE_NXZ:PROC			; CvPlayer::isHuman
EXTRN	?ChangeFlavors@CvFlavorManager@@QAEXPAH_N@Z:PROC ; CvFlavorManager::ChangeFlavors
EXTRN	?GetFlavorManager@CvPlayer@@QBEPAVCvFlavorManager@@XZ:PROC ; CvPlayer::GetFlavorManager
EXTRN	??1CvLuaArgsHandle@@QAE@XZ:PROC			; CvLuaArgsHandle::~CvLuaArgsHandle
EXTRN	?CallTestAll@LuaSupport@@YA_NPAVICvEngineScriptSystem1@@PBDPAVICvEngineScriptSystemArgs1@@AA_N@Z:PROC ; LuaSupport::CallTestAll
EXTRN	??0CvLuaArgsHandle@@QAE@XZ:PROC			; CvLuaArgsHandle::CvLuaArgsHandle
EXTRN	__imp_??$?8DU?$char_traits@D@std@@V?$allocator@D@1@@std@@YA_NABV?$basic_string@DU?$char_traits@D@std@@V?$allocator@D@2@@0@PBD@Z:PROC
EXTRN	__imp_??0?$basic_string@DU?$char_traits@D@std@@V?$allocator@D@2@@std@@QAE@PBD@Z:PROC
EXTRN	?HasTech@CvTeamTechs@@QBE_NW4TechTypes@@@Z:PROC	; CvTeamTechs::HasTech
EXTRN	?GetTeamTechs@CvTeam@@QBEPAVCvTeamTechs@@XZ:PROC ; CvTeam::GetTeamTechs
EXTRN	?m_aTeams@CvTeam@@1PAV1@A:DWORD			; CvTeam::m_aTeams
EXTRN	?isMinorCiv@CvPlayer@@QBE_NXZ:PROC		; CvPlayer::isMinorCiv
;	COMDAT ??_C@_0BM@BLKCLAIM@EconomicStrategyCanActivate?$AA@
; File d:\sources\lekmod_git\checkout\lekmod_dll\cvgamecoredll_expansion2\cvglobals.h
CONST	SEGMENT
??_C@_0BM@BLKCLAIM@EconomicStrategyCanActivate?$AA@ DB 'EconomicStrategyC'
	DB	'anActivate', 00H				; `string'
CONST	ENDS
;	COMDAT ??_C@_0CB@EPJOLIIN@ECONOMICAISTRATEGY_STARTED_PIETY@
CONST	SEGMENT
??_C@_0CB@EPJOLIIN@ECONOMICAISTRATEGY_STARTED_PIETY@ DB 'ECONOMICAISTRATE'
	DB	'GY_STARTED_PIETY', 00H			; `string'
CONST	ENDS
;	COMDAT ??_C@_0CA@PBGIMIOP@ECONOMICAISTRATEGY_CONCERT_TOUR?$AA@
CONST	SEGMENT
??_C@_0CA@PBGIMIOP@ECONOMICAISTRATEGY_CONCERT_TOUR?$AA@ DB 'ECONOMICAISTR'
	DB	'ATEGY_CONCERT_TOUR', 00H			; `string'
CONST	ENDS
;	COMDAT ??_C@_0BP@OKANEKEH@ECONOMICAISTRATEGY_NEED_GUILDS?$AA@
CONST	SEGMENT
??_C@_0BP@OKANEKEH@ECONOMICAISTRATEGY_NEED_GUILDS?$AA@ DB 'ECONOMICAISTRA'
	DB	'TEGY_NEED_GUILDS', 00H			; `string'
CONST	ENDS
;	COMDAT ??_C@_0CA@LJEEDGCK@ECONOMICAISTRATEGY_NEED_MUSEUMS?$AA@
CONST	SEGMENT
??_C@_0CA@LJEEDGCK@ECONOMICAISTRATEGY_NEED_MUSEUMS?$AA@ DB 'ECONOMICAISTR'
	DB	'ATEGY_NEED_MUSEUMS', 00H			; `string'
CONST	ENDS
;	COMDAT ??_C@_0CJ@OJNNMPCJ@ECONOMICAISTRATEGY_ENOUGH_ARCHAE@
CONST	SEGMENT
??_C@_0CJ@OJNNMPCJ@ECONOMICAISTRATEGY_ENOUGH_ARCHAE@ DB 'ECONOMICAISTRATE'
	DB	'GY_ENOUGH_ARCHAEOLOGISTS', 00H		; `string'
CONST	ENDS
;	COMDAT ??_C@_0CH@JBCPGFFK@ECONOMICAISTRATEGY_NEED_ARCHAEOL@
CONST	SEGMENT
??_C@_0CH@JBCPGFFK@ECONOMICAISTRATEGY_NEED_ARCHAEOL@ DB 'ECONOMICAISTRATE'
	DB	'GY_NEED_ARCHAEOLOGISTS', 00H		; `string'
CONST	ENDS
;	COMDAT ??_C@_0BP@LMEKCLA@ECONOMICAISTRATEGY_TECH_LEADER?$AA@
CONST	SEGMENT
??_C@_0BP@LMEKCLA@ECONOMICAISTRATEGY_TECH_LEADER?$AA@ DB 'ECONOMICAISTRAT'
	DB	'EGY_TECH_LEADER', 00H			; `string'
CONST	ENDS
;	COMDAT ??_C@_0CH@GNLJCNLK@ECONOMICAISTRATEGY_DEVELOPING_RE@
CONST	SEGMENT
??_C@_0CH@GNLJCNLK@ECONOMICAISTRATEGY_DEVELOPING_RE@ DB 'ECONOMICAISTRATE'
	DB	'GY_DEVELOPING_RELIGION', 00H		; `string'
CONST	ENDS
;	COMDAT ??_C@_0CK@OCGLJEIH@ECONOMICAISTRATEGY_OFFSHORE_EXPA@
CONST	SEGMENT
??_C@_0CK@OCGLJEIH@ECONOMICAISTRATEGY_OFFSHORE_EXPA@ DB 'ECONOMICAISTRATE'
	DB	'GY_OFFSHORE_EXPANSION_MAP', 00H		; `string'
CONST	ENDS
;	COMDAT ??_C@_0BN@CEBPEMPC@ECONOMICAISTRATEGY_NAVAL_MAP?$AA@
CONST	SEGMENT
??_C@_0BN@CEBPEMPC@ECONOMICAISTRATEGY_NAVAL_MAP?$AA@ DB 'ECONOMICAISTRATE'
	DB	'GY_NAVAL_MAP', 00H				; `string'
CONST	ENDS
;	COMDAT ??_C@_0CM@MOIMHCNJ@ECONOMICAISTRATEGY_GS_SPACESHIP_@
CONST	SEGMENT
??_C@_0CM@MOIMHCNJ@ECONOMICAISTRATEGY_GS_SPACESHIP_@ DB 'ECONOMICAISTRATE'
	DB	'GY_GS_SPACESHIP_HOMESTRETCH', 00H		; `string'
CONST	ENDS
;	COMDAT ??_C@_0CA@GMLPPGJD@ECONOMICAISTRATEGY_GS_SPACESHIP?$AA@
CONST	SEGMENT
??_C@_0CA@GMLPPGJD@ECONOMICAISTRATEGY_GS_SPACESHIP?$AA@ DB 'ECONOMICAISTR'
	DB	'ATEGY_GS_SPACESHIP', 00H			; `string'
CONST	ENDS
;	COMDAT ??_C@_0CA@DAOBKCOE@ECONOMICAISTRATEGY_GS_DIPLOMACY?$AA@
CONST	SEGMENT
??_C@_0CA@DAOBKCOE@ECONOMICAISTRATEGY_GS_DIPLOMACY?$AA@ DB 'ECONOMICAISTR'
	DB	'ATEGY_GS_DIPLOMACY', 00H			; `string'
CONST	ENDS
;	COMDAT ??_C@_0BP@JJIICCGD@ECONOMICAISTRATEGY_GS_CONQUEST?$AA@
CONST	SEGMENT
??_C@_0BP@JJIICCGD@ECONOMICAISTRATEGY_GS_CONQUEST?$AA@ DB 'ECONOMICAISTRA'
	DB	'TEGY_GS_CONQUEST', 00H			; `string'
CONST	ENDS
;	COMDAT ??_C@_0BO@KOACKBDH@ECONOMICAISTRATEGY_GS_CULTURE?$AA@
CONST	SEGMENT
??_C@_0BO@KOACKBDH@ECONOMICAISTRATEGY_GS_CULTURE?$AA@ DB 'ECONOMICAISTRAT'
	DB	'EGY_GS_CULTURE', 00H			; `string'
CONST	ENDS
;	COMDAT ??_C@_0CD@HFHBGCBF@ECONOMICAISTRATEGY_GROW_LIKE_CRA@
CONST	SEGMENT
??_C@_0CD@HFHBGCBF@ECONOMICAISTRATEGY_GROW_LIKE_CRA@ DB 'ECONOMICAISTRATE'
	DB	'GY_GROW_LIKE_CRAZY', 00H			; `string'
CONST	ENDS
;	COMDAT ??_C@_0CF@GIOLCFEP@ECONOMICAISTRATEGY_EXPAND_LIKE_C@
CONST	SEGMENT
??_C@_0CF@GIOLCFEP@ECONOMICAISTRATEGY_EXPAND_LIKE_C@ DB 'ECONOMICAISTRATE'
	DB	'GY_EXPAND_LIKE_CRAZY', 00H			; `string'
CONST	ENDS
;	COMDAT ??_C@_0CH@HOLHLIDH@ECONOMICAISTRATEGY_MOSTLY_ON_THE@
CONST	SEGMENT
??_C@_0CH@HOLHLIDH@ECONOMICAISTRATEGY_MOSTLY_ON_THE@ DB 'ECONOMICAISTRATE'
	DB	'GY_MOSTLY_ON_THE_COAST', 00H		; `string'
CONST	ENDS
;	COMDAT ??_C@_0DF@EDEAHICP@ECONOMICAISTRATEGY_REALLY_EXPAND@
CONST	SEGMENT
??_C@_0DF@EDEAHICP@ECONOMICAISTRATEGY_REALLY_EXPAND@ DB 'ECONOMICAISTRATE'
	DB	'GY_REALLY_EXPAND_TO_OTHER_CONTINENTS', 00H	; `string'
CONST	ENDS
;	COMDAT ??_C@_0CO@KFILJFKH@ECONOMICAISTRATEGY_EXPAND_TO_OTH@
CONST	SEGMENT
??_C@_0CO@KFILJFKH@ECONOMICAISTRATEGY_EXPAND_TO_OTH@ DB 'ECONOMICAISTRATE'
	DB	'GY_EXPAND_TO_OTHER_CONTINENTS', 00H		; `string'
CONST	ENDS
;	COMDAT ??_C@_0CA@GADCJDII@ECONOMICAISTRATEGY_ISLAND_START?$AA@
CONST	SEGMENT
??_C@_0CA@GADCJDII@ECONOMICAISTRATEGY_ISLAND_START?$AA@ DB 'ECONOMICAISTR'
	DB	'ATEGY_ISLAND_START', 00H			; `string'
CONST	ENDS
;	COMDAT ??_C@_0CC@ECECMFD@ECONOMICAISTRATEGY_TOO_MANY_UNIT@
CONST	SEGMENT
??_C@_0CC@ECECMFD@ECONOMICAISTRATEGY_TOO_MANY_UNIT@ DB 'ECONOMICAISTRATEG'
	DB	'Y_TOO_MANY_UNITS', 00H			; `string'
CONST	ENDS
;	COMDAT ??_C@_0CJ@BNOKMBDA@ECONOMICAISTRATEGY_HALT_GROWTH_B@
CONST	SEGMENT
??_C@_0CJ@BNOKMBDA@ECONOMICAISTRATEGY_HALT_GROWTH_B@ DB 'ECONOMICAISTRATE'
	DB	'GY_HALT_GROWTH_BUILDINGS', 00H		; `string'
CONST	ENDS
;	COMDAT ??_C@_0CA@OBBOJGK@ECONOMICAISTRATEGY_LOSING_MONEY?$AA@
CONST	SEGMENT
??_C@_0CA@OBBOJGK@ECONOMICAISTRATEGY_LOSING_MONEY?$AA@ DB 'ECONOMICAISTRA'
	DB	'TEGY_LOSING_MONEY', 00H			; `string'
CONST	ENDS
;	COMDAT ??_C@_0CP@JJNEAOJM@ECONOMICAISTRATEGY_ONE_OR_FEWER_@
CONST	SEGMENT
??_C@_0CP@JJNEAOJM@ECONOMICAISTRATEGY_ONE_OR_FEWER_@ DB 'ECONOMICAISTRATE'
	DB	'GY_ONE_OR_FEWER_COASTAL_CITIES', 00H	; `string'
CONST	ENDS
;	COMDAT ??_C@_0CP@DDBIBPAO@ECONOMICAISTRATEGY_NEED_IMPROVEM@
CONST	SEGMENT
??_C@_0CP@DDBIBPAO@ECONOMICAISTRATEGY_NEED_IMPROVEM@ DB 'ECONOMICAISTRATE'
	DB	'GY_NEED_IMPROVEMENT_PRODUCTION', 00H	; `string'
CONST	ENDS
;	COMDAT ??_C@_0CJ@IKFAHECC@ECONOMICAISTRATEGY_NEED_IMPROVEM@
CONST	SEGMENT
??_C@_0CJ@IKFAHECC@ECONOMICAISTRATEGY_NEED_IMPROVEM@ DB 'ECONOMICAISTRATE'
	DB	'GY_NEED_IMPROVEMENT_FOOD', 00H		; `string'
CONST	ENDS
;	COMDAT ??_C@_0CJ@MGEMDMLI@ECONOMICAISTRATEGY_TRADE_WITH_CI@
CONST	SEGMENT
??_C@_0CJ@MGEMDMLI@ECONOMICAISTRATEGY_TRADE_WITH_CI@ DB 'ECONOMICAISTRATE'
	DB	'GY_TRADE_WITH_CITY_STATE', 00H		; `string'
CONST	ENDS
;	COMDAT ??_C@_0BO@DCCLOFML@ECONOMICAISTRATEGY_FOUND_CITY?$AA@
CONST	SEGMENT
??_C@_0BO@DCCLOFML@ECONOMICAISTRATEGY_FOUND_CITY?$AA@ DB 'ECONOMICAISTRAT'
	DB	'EGY_FOUND_CITY', 00H			; `string'
CONST	ENDS
;	COMDAT ??_C@_0DG@KIGJKIPP@ECONOMICAISTRATEGY_CITIES_NEED_N@
CONST	SEGMENT
??_C@_0DG@KIGJKIPP@ECONOMICAISTRATEGY_CITIES_NEED_N@ DB 'ECONOMICAISTRATE'
	DB	'GY_CITIES_NEED_NAVAL_TILE_IMPROVEMENT', 00H	; `string'
CONST	ENDS
;	COMDAT ??_C@_0CM@CPBLKKDC@ECONOMICAISTRATEGY_CITIES_NEED_N@
CONST	SEGMENT
??_C@_0CM@CPBLKKDC@ECONOMICAISTRATEGY_CITIES_NEED_N@ DB 'ECONOMICAISTRATE'
	DB	'GY_CITIES_NEED_NAVAL_GROWTH', 00H		; `string'
CONST	ENDS
;	COMDAT ??_C@_0CL@FDIIBLEP@ECONOMICAISTRATEGY_NEED_HAPPINES@
CONST	SEGMENT
??_C@_0CL@FDIIBLEP@ECONOMICAISTRATEGY_NEED_HAPPINES@ DB 'ECONOMICAISTRATE'
	DB	'GY_NEED_HAPPINESS_CRITICAL', 00H		; `string'
CONST	ENDS
;	COMDAT ??_C@_0CC@LFBHKCEL@ECONOMICAISTRATEGY_NEED_HAPPINES@
CONST	SEGMENT
??_C@_0CC@LFBHKCEL@ECONOMICAISTRATEGY_NEED_HAPPINES@ DB 'ECONOMICAISTRATE'
	DB	'GY_NEED_HAPPINESS', 00H			; `string'
CONST	ENDS
;	COMDAT ??_C@_0CE@OFIOLJNP@ECONOMICAISTRATEGY_ENOUGH_EXPANS@
CONST	SEGMENT
??_C@_0CE@OFIOLJNP@ECONOMICAISTRATEGY_ENOUGH_EXPANS@ DB 'ECONOMICAISTRATE'
	DB	'GY_ENOUGH_EXPANSION', 00H			; `string'
CONST	ENDS
;	COMDAT ??_C@_0CD@CKIOFBEO@ECONOMICAISTRATEGY_EARLY_EXPANSI@
CONST	SEGMENT
??_C@_0CD@CKIOFBEO@ECONOMICAISTRATEGY_EARLY_EXPANSI@ DB 'ECONOMICAISTRATE'
	DB	'GY_EARLY_EXPANSION', 00H			; `string'
CONST	ENDS
;	COMDAT ??_C@_0CE@KPCDAIBO@ECONOMICAISTRATEGY_ENOUGH_RECON_@
CONST	SEGMENT
??_C@_0CE@KPCDAIBO@ECONOMICAISTRATEGY_ENOUGH_RECON_@ DB 'ECONOMICAISTRATE'
	DB	'GY_ENOUGH_RECON_SEA', 00H			; `string'
CONST	ENDS
;	COMDAT ??_C@_0CC@OOHNBBFB@ECONOMICAISTRATEGY_NEED_RECON_SE@
CONST	SEGMENT
??_C@_0CC@OOHNBBFB@ECONOMICAISTRATEGY_NEED_RECON_SE@ DB 'ECONOMICAISTRATE'
	DB	'GY_NEED_RECON_SEA', 00H			; `string'
CONST	ENDS
;	COMDAT ??_C@_0CJ@OIJNFMCA@ECONOMICAISTRATEGY_REALLY_NEED_R@
CONST	SEGMENT
??_C@_0CJ@OIJNFMCA@ECONOMICAISTRATEGY_REALLY_NEED_R@ DB 'ECONOMICAISTRATE'
	DB	'GY_REALLY_NEED_RECON_SEA', 00H		; `string'
CONST	ENDS
;	COMDAT ??_C@_0CA@LMJCENAC@ECONOMICAISTRATEGY_ENOUGH_RECON?$AA@
CONST	SEGMENT
??_C@_0CA@LMJCENAC@ECONOMICAISTRATEGY_ENOUGH_RECON?$AA@ DB 'ECONOMICAISTR'
	DB	'ATEGY_ENOUGH_RECON', 00H			; `string'
CONST	ENDS
;	COMDAT ??_C@_0BO@IOIAMMNH@ECONOMICAISTRATEGY_NEED_RECON?$AA@
CONST	SEGMENT
??_C@_0BO@IOIAMMNH@ECONOMICAISTRATEGY_NEED_RECON?$AA@ DB 'ECONOMICAISTRAT'
	DB	'EGY_NEED_RECON', 00H			; `string'
CONST	ENDS
;	COMDAT ??_C@_00CNPNBAHC@?$AA@
CONST	SEGMENT
??_C@_00CNPNBAHC@?$AA@ DB 00H				; `string'
CONST	ENDS
;	COMDAT xdata$x
xdata$x	SEGMENT
__unwindtable$?DoTurn@CvEconomicAI@@QAEXXZ DD 0ffffffffH
	DD	FLAT:__unwindfunclet$?DoTurn@CvEconomicAI@@QAEXXZ$0
	DD	00H
	DD	FLAT:__unwindfunclet$?DoTurn@CvEconomicAI@@QAEXXZ$1
__ehfuncinfo$?DoTurn@CvEconomicAI@@QAEXXZ DD 019930522H
	DD	02H
	DD	FLAT:__unwindtable$?DoTurn@CvEconomicAI@@QAEXXZ
	DD	2 DUP(00H)
	DD	2 DUP(00H)
	DD	00H
	DD	01H
; Function compile flags: /Odtp
; File d:\sources\lekmod_git\checkout\lekmod_dll\cvgamecoredll_expansion2\cveconomicai.cpp
xdata$x	ENDS
;	COMDAT ?DoTurn@CvEconomicAI@@QAEXXZ
_TEXT	SEGMENT
tv792 = -176						; size = 4
tv785 = -172						; size = 4
tv772 = -168						; size = 4
tv959 = -164						; size = 4
_this$ = -160						; size = 4
$T232371 = -156						; size = 4
$T232367 = -152						; size = 4
$T232363 = -148						; size = 4
$T232359 = -144						; size = 4
$T232351 = -140						; size = 4
$T232347 = -136						; size = 4
$T232332 = -132						; size = 4
$T232320 = -128						; size = 4
$T232316 = -124						; size = 4
$T232312 = -120						; size = 4
$T232311 = -116						; size = 4
$T232302 = -112						; size = 4
$T232298 = -108						; size = 4
$T232294 = -104						; size = 4
$T232290 = -100						; size = 4
$T232286 = -96						; size = 4
$T232285 = -92						; size = 4
$T232276 = -88						; size = 4
$T232272 = -84						; size = 4
$T232271 = -80						; size = 4
_iFlavorLoop$225382 = -76				; size = 4
_bResult$225368 = -69					; size = 1
_args$225367 = -68					; size = 4
_strStrategyName$225242 = -64				; size = 28
__$ArrayPad$ = -36					; size = 4
_pkScriptSystem$225365 = -32				; size = 4
_bAdoptOrEndStrategy$225372 = -28			; size = 1
_bStrategyShouldBeActive$225238 = -27			; size = 1
_bTestStrategyEnd$225230 = -26				; size = 1
_bTestStrategyStart$225222 = -25			; size = 1
_eStrategy$225218 = -24					; size = 4
_pStrategy$225220 = -20					; size = 4
_iStrategiesLoop$ = -16					; size = 4
__$EHRec$ = -12						; size = 12
?DoTurn@CvEconomicAI@@QAEXXZ PROC			; CvEconomicAI::DoTurn, COMDAT
; _this$ = ecx

; 551  : {

	push	ebp
	mov	ebp, esp
	push	-1
	push	__ehhandler$?DoTurn@CvEconomicAI@@QAEXXZ
	mov	eax, DWORD PTR fs:0
	push	eax
	sub	esp, 164				; 000000a4H
	mov	eax, DWORD PTR ___security_cookie
	xor	eax, ebp
	mov	DWORD PTR __$ArrayPad$[ebp], eax
	push	esi
	push	edi
	push	eax
	lea	eax, DWORD PTR __$EHRec$[ebp]
	mov	DWORD PTR fs:0, eax
	mov	DWORD PTR _this$[ebp], ecx

; 552  : 	AI_PERF_FORMAT("AI-perf.csv", ("CvEconomicAI::DoTurn, Turn %03d, %s", GC.getGame().getElapsedGameTurns(), GetPlayer()->getCivilizationShortDescription()) );
; 553  : 
; 554  : 	UpdatePlots();

	mov	ecx, DWORD PTR _this$[ebp]
	call	?UpdatePlots@CvEconomicAI@@QAEXXZ	; CvEconomicAI::UpdatePlots

; 555  : 	LogMonitor();

	mov	ecx, DWORD PTR _this$[ebp]
	call	?LogMonitor@CvEconomicAI@@QAEXXZ	; CvEconomicAI::LogMonitor

; 556  : 	LogCityMonitor();

	mov	ecx, DWORD PTR _this$[ebp]
	call	?LogCityMonitor@CvEconomicAI@@QAEXXZ	; CvEconomicAI::LogCityMonitor

; 557  : 
; 558  : 	// Functions that need to run before we look at strategies
; 559  : 	DoReconState();

	mov	ecx, DWORD PTR _this$[ebp]
	call	?DoReconState@CvEconomicAI@@AAEXXZ	; CvEconomicAI::DoReconState

; 560  : 	DoAntiquitySites();

	mov	ecx, DWORD PTR _this$[ebp]
	call	?DoAntiquitySites@CvEconomicAI@@AAEXXZ	; CvEconomicAI::DoAntiquitySites

; 561  : 
; 562  : 	int iStrategiesLoop = 0;

	mov	DWORD PTR _iStrategiesLoop$[ebp], 0

; 563  : 
; 564  : 	// Loop through all strategies
; 565  : 	for(iStrategiesLoop = 0; iStrategiesLoop < GetEconomicAIStrategies()->GetNumEconomicAIStrategies(); iStrategiesLoop++)

	mov	DWORD PTR _iStrategiesLoop$[ebp], 0
	jmp	SHORT $LN127@DoTurn
$LN126@DoTurn:
	mov	eax, DWORD PTR _iStrategiesLoop$[ebp]
	add	eax, 1
	mov	DWORD PTR _iStrategiesLoop$[ebp], eax
$LN127@DoTurn:
	mov	ecx, DWORD PTR _this$[ebp]
	call	?GetEconomicAIStrategies@CvEconomicAI@@QAEPAVCvEconomicAIStrategyXMLEntries@@XZ ; CvEconomicAI::GetEconomicAIStrategies
	mov	ecx, eax
	call	?GetNumEconomicAIStrategies@CvEconomicAIStrategyXMLEntries@@QAEHXZ ; CvEconomicAIStrategyXMLEntries::GetNumEconomicAIStrategies
	cmp	DWORD PTR _iStrategiesLoop$[ebp], eax
	jge	$LN125@DoTurn

; 566  : 	{
; 567  : 		EconomicAIStrategyTypes eStrategy = (EconomicAIStrategyTypes) iStrategiesLoop;

	mov	ecx, DWORD PTR _iStrategiesLoop$[ebp]
	mov	DWORD PTR _eStrategy$225218[ebp], ecx

; 568  : 		CvEconomicAIStrategyXMLEntry* pStrategy = GetEconomicAIStrategies()->GetEntry(iStrategiesLoop);

	mov	edx, DWORD PTR _iStrategiesLoop$[ebp]
	push	edx
	mov	ecx, DWORD PTR _this$[ebp]
	call	?GetEconomicAIStrategies@CvEconomicAI@@QAEPAVCvEconomicAIStrategyXMLEntries@@XZ ; CvEconomicAI::GetEconomicAIStrategies
	mov	ecx, eax
	call	?GetEntry@CvEconomicAIStrategyXMLEntries@@QAEPAVCvEconomicAIStrategyXMLEntry@@H@Z ; CvEconomicAIStrategyXMLEntries::GetEntry
	mov	DWORD PTR _pStrategy$225220[ebp], eax

; 569  : 
; 570  : 		// Minor Civs can't run some Strategies
; 571  : 		if(m_pPlayer->isMinorCiv() && pStrategy->IsNoMinorCivs())

	mov	eax, DWORD PTR _this$[ebp]
	mov	ecx, DWORD PTR [eax+4]
	call	?isMinorCiv@CvPlayer@@QBE_NXZ		; CvPlayer::isMinorCiv
	movzx	ecx, al
	test	ecx, ecx
	je	SHORT $LN124@DoTurn
	mov	ecx, DWORD PTR _pStrategy$225220[ebp]
	call	?IsNoMinorCivs@CvEconomicAIStrategyXMLEntry@@QBE_NXZ ; CvEconomicAIStrategyXMLEntry::IsNoMinorCivs
	movzx	edx, al
	test	edx, edx
	je	SHORT $LN124@DoTurn

; 572  : 		{
; 573  : 			continue;

	jmp	SHORT $LN126@DoTurn
$LN124@DoTurn:

; 574  : 		}
; 575  : 
; 576  : 		bool bTestStrategyStart = true;

	mov	BYTE PTR _bTestStrategyStart$225222[ebp], 1

; 577  : 
; 578  : 		// Do we already have this Strategy adopted?
; 579  : 		if(IsUsingStrategy(eStrategy))

	mov	eax, DWORD PTR _eStrategy$225218[ebp]
	push	eax
	mov	ecx, DWORD PTR _this$[ebp]
	call	?IsUsingStrategy@CvEconomicAI@@QAE_NW4EconomicAIStrategyTypes@@@Z ; CvEconomicAI::IsUsingStrategy
	movzx	ecx, al
	test	ecx, ecx
	je	SHORT $LN123@DoTurn

; 580  : 		{
; 581  : 			bTestStrategyStart = false;

	mov	BYTE PTR _bTestStrategyStart$225222[ebp], 0

; 582  : 		}
; 583  : 		else

	jmp	$LN122@DoTurn
$LN123@DoTurn:

; 584  : 		{
; 585  : 			// Has the prereq Tech necessary?
; 586  : 			if(pStrategy->GetTechPrereq() != NO_TECH && !GET_TEAM(GetPlayer()->getTeam()).GetTeamTechs()->HasTech((TechTypes) pStrategy->GetTechPrereq()))

	mov	ecx, DWORD PTR _pStrategy$225220[ebp]
	call	?GetTechPrereq@CvEconomicAIStrategyXMLEntry@@QBEHXZ ; CvEconomicAIStrategyXMLEntry::GetTechPrereq
	cmp	eax, -1
	je	SHORT $LN121@DoTurn
	mov	ecx, DWORD PTR _this$[ebp]
	call	?GetPlayer@CvEconomicAI@@QAEPAVCvPlayer@@XZ ; CvEconomicAI::GetPlayer
	mov	DWORD PTR $T232271[ebp], eax
	mov	edx, DWORD PTR $T232271[ebp]
	mov	eax, DWORD PTR [edx+44]
	push	eax
	call	?teamType@CvPreGame@@YA?AW4TeamTypes@@W4PlayerTypes@@@Z ; CvPreGame::teamType
	add	esp, 4
	mov	DWORD PTR $T232272[ebp], eax
	mov	ecx, DWORD PTR $T232272[ebp]
	imul	ecx, 2984				; 00000ba8H
	add	ecx, DWORD PTR ?m_aTeams@CvTeam@@1PAV1@A ; CvTeam::m_aTeams
	mov	DWORD PTR $T232276[ebp], ecx
	mov	ecx, DWORD PTR _pStrategy$225220[ebp]
	call	?GetTechPrereq@CvEconomicAIStrategyXMLEntry@@QBEHXZ ; CvEconomicAIStrategyXMLEntry::GetTechPrereq
	push	eax
	mov	ecx, DWORD PTR $T232276[ebp]
	call	?GetTeamTechs@CvTeam@@QBEPAVCvTeamTechs@@XZ ; CvTeam::GetTeamTechs
	mov	ecx, eax
	call	?HasTech@CvTeamTechs@@QBE_NW4TechTypes@@@Z ; CvTeamTechs::HasTech
	movzx	edx, al
	test	edx, edx
	jne	SHORT $LN121@DoTurn

; 587  : 			{
; 588  : 				bTestStrategyStart = false;

	mov	BYTE PTR _bTestStrategyStart$225222[ebp], 0
$LN121@DoTurn:

; 589  : 			}
; 590  : 
; 591  : 			// Has the Tech which obsoletes this Strategy?
; 592  : 			if(bTestStrategyStart && pStrategy->GetTechObsolete() != NO_TECH && GET_TEAM(GetPlayer()->getTeam()).GetTeamTechs()->HasTech((TechTypes) pStrategy->GetTechObsolete()))

	movzx	eax, BYTE PTR _bTestStrategyStart$225222[ebp]
	test	eax, eax
	je	SHORT $LN120@DoTurn
	mov	ecx, DWORD PTR _pStrategy$225220[ebp]
	call	?GetTechObsolete@CvEconomicAIStrategyXMLEntry@@QBEHXZ ; CvEconomicAIStrategyXMLEntry::GetTechObsolete
	cmp	eax, -1
	je	SHORT $LN120@DoTurn
	mov	ecx, DWORD PTR _this$[ebp]
	call	?GetPlayer@CvEconomicAI@@QAEPAVCvPlayer@@XZ ; CvEconomicAI::GetPlayer
	mov	DWORD PTR $T232285[ebp], eax
	mov	ecx, DWORD PTR $T232285[ebp]
	mov	edx, DWORD PTR [ecx+44]
	push	edx
	call	?teamType@CvPreGame@@YA?AW4TeamTypes@@W4PlayerTypes@@@Z ; CvPreGame::teamType
	add	esp, 4
	mov	DWORD PTR $T232286[ebp], eax
	mov	eax, DWORD PTR $T232286[ebp]
	imul	eax, 2984				; 00000ba8H
	add	eax, DWORD PTR ?m_aTeams@CvTeam@@1PAV1@A ; CvTeam::m_aTeams
	mov	DWORD PTR $T232290[ebp], eax
	mov	ecx, DWORD PTR _pStrategy$225220[ebp]
	call	?GetTechObsolete@CvEconomicAIStrategyXMLEntry@@QBEHXZ ; CvEconomicAIStrategyXMLEntry::GetTechObsolete
	push	eax
	mov	ecx, DWORD PTR $T232290[ebp]
	call	?GetTeamTechs@CvTeam@@QBEPAVCvTeamTechs@@XZ ; CvTeam::GetTeamTechs
	mov	ecx, eax
	call	?HasTech@CvTeamTechs@@QBE_NW4TechTypes@@@Z ; CvTeamTechs::HasTech
	movzx	ecx, al
	test	ecx, ecx
	je	SHORT $LN120@DoTurn

; 593  : 			{
; 594  : 				bTestStrategyStart = false;

	mov	BYTE PTR _bTestStrategyStart$225222[ebp], 0
$LN120@DoTurn:

; 595  : 			}
; 596  : 
; 597  : 			// Not time to check this yet?
; 598  : 			if(GC.getGame().getGameTurn() < pStrategy->GetFirstTurnExecuted())

	mov	edx, DWORD PTR ?gGlobals@@3VCvGlobals@@A+48
	mov	DWORD PTR $T232294[ebp], edx
	mov	ecx, DWORD PTR $T232294[ebp]
	call	?getGameTurn@CvGame@@QAEHXZ		; CvGame::getGameTurn
	mov	esi, eax
	mov	ecx, DWORD PTR _pStrategy$225220[ebp]
	call	?GetFirstTurnExecuted@CvEconomicAIStrategyXMLEntry@@QBEHXZ ; CvEconomicAIStrategyXMLEntry::GetFirstTurnExecuted
	cmp	esi, eax
	jge	SHORT $LN122@DoTurn

; 599  : 			{
; 600  : 				bTestStrategyStart = false;

	mov	BYTE PTR _bTestStrategyStart$225222[ebp], 0
$LN122@DoTurn:

; 601  : 			}
; 602  : 		}
; 603  : 
; 604  : 		bool bTestStrategyEnd = false;

	mov	BYTE PTR _bTestStrategyEnd$225230[ebp], 0

; 605  : 
; 606  : 		// Strategy is active, check to see if we should even try to disable it
; 607  : 		if(IsUsingStrategy(eStrategy))

	mov	eax, DWORD PTR _eStrategy$225218[ebp]
	push	eax
	mov	ecx, DWORD PTR _this$[ebp]
	call	?IsUsingStrategy@CvEconomicAI@@QAE_NW4EconomicAIStrategyTypes@@@Z ; CvEconomicAI::IsUsingStrategy
	movzx	ecx, al
	test	ecx, ecx
	je	$LN118@DoTurn

; 608  : 		{
; 609  : 			if(pStrategy->GetCheckTriggerTurnCount() > 0)

	mov	ecx, DWORD PTR _pStrategy$225220[ebp]
	call	?GetCheckTriggerTurnCount@CvEconomicAIStrategyXMLEntry@@QBEHXZ ; CvEconomicAIStrategyXMLEntry::GetCheckTriggerTurnCount
	test	eax, eax
	jle	SHORT $LN117@DoTurn

; 610  : 			{
; 611  : 				// Is it a turn where we want to check to see if this Strategy is maintained?
; 612  : 				if((GC.getGame().getGameTurn() - GetTurnStrategyAdopted(eStrategy)) % pStrategy->GetCheckTriggerTurnCount() == 0)

	mov	edx, DWORD PTR ?gGlobals@@3VCvGlobals@@A+48
	mov	DWORD PTR $T232298[ebp], edx
	mov	ecx, DWORD PTR $T232298[ebp]
	call	?getGameTurn@CvGame@@QAEHXZ		; CvGame::getGameTurn
	mov	esi, eax
	mov	eax, DWORD PTR _eStrategy$225218[ebp]
	push	eax
	mov	ecx, DWORD PTR _this$[ebp]
	call	?GetTurnStrategyAdopted@CvEconomicAI@@QAEHW4EconomicAIStrategyTypes@@@Z ; CvEconomicAI::GetTurnStrategyAdopted
	sub	esi, eax
	mov	ecx, DWORD PTR _pStrategy$225220[ebp]
	call	?GetCheckTriggerTurnCount@CvEconomicAIStrategyXMLEntry@@QBEHXZ ; CvEconomicAIStrategyXMLEntry::GetCheckTriggerTurnCount
	mov	ecx, eax
	mov	eax, esi
	cdq
	idiv	ecx
	test	edx, edx
	jne	SHORT $LN117@DoTurn

; 613  : 				{
; 614  : 					bTestStrategyEnd = true;

	mov	BYTE PTR _bTestStrategyEnd$225230[ebp], 1
$LN117@DoTurn:

; 615  : 				}
; 616  : 			}
; 617  : 
; 618  : 			if(bTestStrategyEnd && pStrategy->GetMinimumNumTurnsExecuted() > 0)

	movzx	edx, BYTE PTR _bTestStrategyEnd$225230[ebp]
	test	edx, edx
	je	SHORT $LN118@DoTurn
	mov	ecx, DWORD PTR _pStrategy$225220[ebp]
	call	?GetMinimumNumTurnsExecuted@CvEconomicAIStrategyXMLEntry@@QBEHXZ ; CvEconomicAIStrategyXMLEntry::GetMinimumNumTurnsExecuted
	test	eax, eax
	jle	SHORT $LN118@DoTurn

; 619  : 			{
; 620  : 				// Has the minimum # of turns passed for this Strategy?
; 621  : 				if(GC.getGame().getGameTurn() < GetTurnStrategyAdopted(eStrategy) + pStrategy->GetMinimumNumTurnsExecuted())

	mov	eax, DWORD PTR ?gGlobals@@3VCvGlobals@@A+48
	mov	DWORD PTR $T232302[ebp], eax
	mov	ecx, DWORD PTR $T232302[ebp]
	call	?getGameTurn@CvGame@@QAEHXZ		; CvGame::getGameTurn
	mov	esi, eax
	mov	ecx, DWORD PTR _eStrategy$225218[ebp]
	push	ecx
	mov	ecx, DWORD PTR _this$[ebp]
	call	?GetTurnStrategyAdopted@CvEconomicAI@@QAEHW4EconomicAIStrategyTypes@@@Z ; CvEconomicAI::GetTurnStrategyAdopted
	mov	edi, eax
	mov	ecx, DWORD PTR _pStrategy$225220[ebp]
	call	?GetMinimumNumTurnsExecuted@CvEconomicAIStrategyXMLEntry@@QBEHXZ ; CvEconomicAIStrategyXMLEntry::GetMinimumNumTurnsExecuted
	add	edi, eax
	cmp	esi, edi
	jge	SHORT $LN118@DoTurn

; 622  : 				{
; 623  : 					bTestStrategyEnd = false;

	mov	BYTE PTR _bTestStrategyEnd$225230[ebp], 0
$LN118@DoTurn:

; 624  : 				}
; 625  : 			}
; 626  : 		}
; 627  : 
; 628  : 		// Check Strategy Triggers
; 629  : 		// Functionality and existence of specific Strategies is hardcoded here, but data is stored in XML so it's easier to modify
; 630  : 
; 631  : 		if(bTestStrategyStart || bTestStrategyEnd)

	movzx	edx, BYTE PTR _bTestStrategyStart$225222[ebp]
	test	edx, edx
	jne	SHORT $LN112@DoTurn
	movzx	eax, BYTE PTR _bTestStrategyEnd$225230[ebp]
	test	eax, eax
	je	$LN113@DoTurn
$LN112@DoTurn:

; 632  : 		{
; 633  : 			bool bStrategyShouldBeActive = false;

	mov	BYTE PTR _bStrategyShouldBeActive$225238[ebp], 0

; 634  : 
; 635  : 			// Has the Tech which obsoletes this Strategy? If so, Strategy should be deactivated regardless of other factors
; 636  : 			if(pStrategy->GetTechObsolete() != NO_TECH && GET_TEAM(GetPlayer()->getTeam()).GetTeamTechs()->HasTech((TechTypes) pStrategy->GetTechObsolete()))

	mov	ecx, DWORD PTR _pStrategy$225220[ebp]
	call	?GetTechObsolete@CvEconomicAIStrategyXMLEntry@@QBEHXZ ; CvEconomicAIStrategyXMLEntry::GetTechObsolete
	cmp	eax, -1
	je	SHORT $LN111@DoTurn
	mov	ecx, DWORD PTR _this$[ebp]
	call	?GetPlayer@CvEconomicAI@@QAEPAVCvPlayer@@XZ ; CvEconomicAI::GetPlayer
	mov	DWORD PTR $T232311[ebp], eax
	mov	ecx, DWORD PTR $T232311[ebp]
	mov	edx, DWORD PTR [ecx+44]
	push	edx
	call	?teamType@CvPreGame@@YA?AW4TeamTypes@@W4PlayerTypes@@@Z ; CvPreGame::teamType
	add	esp, 4
	mov	DWORD PTR $T232312[ebp], eax
	mov	eax, DWORD PTR $T232312[ebp]
	imul	eax, 2984				; 00000ba8H
	add	eax, DWORD PTR ?m_aTeams@CvTeam@@1PAV1@A ; CvTeam::m_aTeams
	mov	DWORD PTR $T232316[ebp], eax
	mov	ecx, DWORD PTR _pStrategy$225220[ebp]
	call	?GetTechObsolete@CvEconomicAIStrategyXMLEntry@@QBEHXZ ; CvEconomicAIStrategyXMLEntry::GetTechObsolete
	push	eax
	mov	ecx, DWORD PTR $T232316[ebp]
	call	?GetTeamTechs@CvTeam@@QBEPAVCvTeamTechs@@XZ ; CvTeam::GetTeamTechs
	mov	ecx, eax
	call	?HasTech@CvTeamTechs@@QBE_NW4TechTypes@@@Z ; CvTeamTechs::HasTech
	movzx	ecx, al
	test	ecx, ecx
	je	SHORT $LN111@DoTurn

; 637  : 			{
; 638  : 				bStrategyShouldBeActive = false;

	mov	BYTE PTR _bStrategyShouldBeActive$225238[ebp], 0

; 639  : 			}
; 640  : 			// Strategy isn't obsolete, so test triggers as normal
; 641  : 			else

	jmp	$LN110@DoTurn
$LN111@DoTurn:

; 642  : 			{
; 643  : 				CvString strStrategyName = (CvString) pStrategy->GetType();

	mov	ecx, DWORD PTR _pStrategy$225220[ebp]
	add	ecx, 176				; 000000b0H
	call	DWORD PTR __imp_?c_str@?$basic_string@DU?$char_traits@D@std@@V?$allocator@D@2@@std@@QBEPBDXZ
	mov	DWORD PTR $T232320[ebp], eax
	cmp	DWORD PTR $T232320[ebp], 0
	je	SHORT $LN160@DoTurn
	mov	edx, DWORD PTR $T232320[ebp]
	mov	DWORD PTR tv959[ebp], edx
	jmp	SHORT $LN161@DoTurn
$LN160@DoTurn:
	mov	DWORD PTR tv959[ebp], OFFSET ??_C@_00CNPNBAHC@?$AA@
$LN161@DoTurn:
	mov	eax, DWORD PTR tv959[ebp]
	push	eax
	lea	ecx, DWORD PTR _strStrategyName$225242[ebp]
	call	DWORD PTR __imp_??0?$basic_string@DU?$char_traits@D@std@@V?$allocator@D@2@@std@@QAE@PBD@Z
	mov	DWORD PTR __$EHRec$[ebp+8], 0

; 644  : 
; 645  : 				// Check all of the Strategy Triggers
; 646  : 				if(strStrategyName == "ECONOMICAISTRATEGY_NEED_RECON")

	push	OFFSET ??_C@_0BO@IOIAMMNH@ECONOMICAISTRATEGY_NEED_RECON?$AA@
	lea	ecx, DWORD PTR _strStrategyName$225242[ebp]
	push	ecx
	call	DWORD PTR __imp_??$?8DU?$char_traits@D@std@@V?$allocator@D@1@@std@@YA_NABV?$basic_string@DU?$char_traits@D@std@@V?$allocator@D@2@@0@PBD@Z
	add	esp, 8
	movzx	edx, al
	test	edx, edx
	je	SHORT $LN109@DoTurn

; 647  : 					bStrategyShouldBeActive = EconomicAIHelpers::IsTestStrategy_NeedRecon(m_pPlayer);

	mov	eax, DWORD PTR _this$[ebp]
	mov	ecx, DWORD PTR [eax+4]
	push	ecx
	call	?IsTestStrategy_NeedRecon@EconomicAIHelpers@@YA_NPAVCvPlayer@@@Z ; EconomicAIHelpers::IsTestStrategy_NeedRecon
	add	esp, 4
	mov	BYTE PTR _bStrategyShouldBeActive$225238[ebp], al
	jmp	$LN108@DoTurn
$LN109@DoTurn:

; 648  : 				else if(strStrategyName == "ECONOMICAISTRATEGY_ENOUGH_RECON")

	push	OFFSET ??_C@_0CA@LMJCENAC@ECONOMICAISTRATEGY_ENOUGH_RECON?$AA@
	lea	edx, DWORD PTR _strStrategyName$225242[ebp]
	push	edx
	call	DWORD PTR __imp_??$?8DU?$char_traits@D@std@@V?$allocator@D@1@@std@@YA_NABV?$basic_string@DU?$char_traits@D@std@@V?$allocator@D@2@@0@PBD@Z
	add	esp, 8
	movzx	eax, al
	test	eax, eax
	je	SHORT $LN107@DoTurn

; 649  : 					bStrategyShouldBeActive = EconomicAIHelpers::IsTestStrategy_EnoughRecon(m_pPlayer);

	mov	ecx, DWORD PTR _this$[ebp]
	mov	edx, DWORD PTR [ecx+4]
	push	edx
	call	?IsTestStrategy_EnoughRecon@EconomicAIHelpers@@YA_NPAVCvPlayer@@@Z ; EconomicAIHelpers::IsTestStrategy_EnoughRecon
	add	esp, 4
	mov	BYTE PTR _bStrategyShouldBeActive$225238[ebp], al
	jmp	$LN108@DoTurn
$LN107@DoTurn:

; 650  : 				else if(strStrategyName == "ECONOMICAISTRATEGY_REALLY_NEED_RECON_SEA")

	push	OFFSET ??_C@_0CJ@OIJNFMCA@ECONOMICAISTRATEGY_REALLY_NEED_R@
	lea	eax, DWORD PTR _strStrategyName$225242[ebp]
	push	eax
	call	DWORD PTR __imp_??$?8DU?$char_traits@D@std@@V?$allocator@D@1@@std@@YA_NABV?$basic_string@DU?$char_traits@D@std@@V?$allocator@D@2@@0@PBD@Z
	add	esp, 8
	movzx	ecx, al
	test	ecx, ecx
	je	SHORT $LN105@DoTurn

; 651  : 					bStrategyShouldBeActive = EconomicAIHelpers::IsTestStrategy_ReallyNeedReconSea(m_pPlayer);

	mov	edx, DWORD PTR _this$[ebp]
	mov	eax, DWORD PTR [edx+4]
	push	eax
	call	?IsTestStrategy_ReallyNeedReconSea@EconomicAIHelpers@@YA_NPAVCvPlayer@@@Z ; EconomicAIHelpers::IsTestStrategy_ReallyNeedReconSea
	add	esp, 4
	mov	BYTE PTR _bStrategyShouldBeActive$225238[ebp], al
	jmp	$LN108@DoTurn
$LN105@DoTurn:

; 652  : 				else if(strStrategyName == "ECONOMICAISTRATEGY_NEED_RECON_SEA")

	push	OFFSET ??_C@_0CC@OOHNBBFB@ECONOMICAISTRATEGY_NEED_RECON_SE@
	lea	ecx, DWORD PTR _strStrategyName$225242[ebp]
	push	ecx
	call	DWORD PTR __imp_??$?8DU?$char_traits@D@std@@V?$allocator@D@1@@std@@YA_NABV?$basic_string@DU?$char_traits@D@std@@V?$allocator@D@2@@0@PBD@Z
	add	esp, 8
	movzx	edx, al
	test	edx, edx
	je	SHORT $LN103@DoTurn

; 653  : 					bStrategyShouldBeActive = EconomicAIHelpers::IsTestStrategy_NeedReconSea(m_pPlayer);

	mov	eax, DWORD PTR _this$[ebp]
	mov	ecx, DWORD PTR [eax+4]
	push	ecx
	call	?IsTestStrategy_NeedReconSea@EconomicAIHelpers@@YA_NPAVCvPlayer@@@Z ; EconomicAIHelpers::IsTestStrategy_NeedReconSea
	add	esp, 4
	mov	BYTE PTR _bStrategyShouldBeActive$225238[ebp], al
	jmp	$LN108@DoTurn
$LN103@DoTurn:

; 654  : 				else if(strStrategyName == "ECONOMICAISTRATEGY_ENOUGH_RECON_SEA")

	push	OFFSET ??_C@_0CE@KPCDAIBO@ECONOMICAISTRATEGY_ENOUGH_RECON_@
	lea	edx, DWORD PTR _strStrategyName$225242[ebp]
	push	edx
	call	DWORD PTR __imp_??$?8DU?$char_traits@D@std@@V?$allocator@D@1@@std@@YA_NABV?$basic_string@DU?$char_traits@D@std@@V?$allocator@D@2@@0@PBD@Z
	add	esp, 8
	movzx	eax, al
	test	eax, eax
	je	SHORT $LN101@DoTurn

; 655  : 					bStrategyShouldBeActive = EconomicAIHelpers::IsTestStrategy_EnoughReconSea(m_pPlayer);

	mov	ecx, DWORD PTR _this$[ebp]
	mov	edx, DWORD PTR [ecx+4]
	push	edx
	call	?IsTestStrategy_EnoughReconSea@EconomicAIHelpers@@YA_NPAVCvPlayer@@@Z ; EconomicAIHelpers::IsTestStrategy_EnoughReconSea
	add	esp, 4
	mov	BYTE PTR _bStrategyShouldBeActive$225238[ebp], al
	jmp	$LN108@DoTurn
$LN101@DoTurn:

; 656  : 				else if(strStrategyName == "ECONOMICAISTRATEGY_EARLY_EXPANSION")

	push	OFFSET ??_C@_0CD@CKIOFBEO@ECONOMICAISTRATEGY_EARLY_EXPANSI@
	lea	eax, DWORD PTR _strStrategyName$225242[ebp]
	push	eax
	call	DWORD PTR __imp_??$?8DU?$char_traits@D@std@@V?$allocator@D@1@@std@@YA_NABV?$basic_string@DU?$char_traits@D@std@@V?$allocator@D@2@@0@PBD@Z
	add	esp, 8
	movzx	ecx, al
	test	ecx, ecx
	je	SHORT $LN99@DoTurn

; 657  : 					bStrategyShouldBeActive = EconomicAIHelpers::IsTestStrategy_EarlyExpansion(m_pPlayer);

	mov	edx, DWORD PTR _this$[ebp]
	mov	eax, DWORD PTR [edx+4]
	push	eax
	call	?IsTestStrategy_EarlyExpansion@EconomicAIHelpers@@YA_NPAVCvPlayer@@@Z ; EconomicAIHelpers::IsTestStrategy_EarlyExpansion
	add	esp, 4
	mov	BYTE PTR _bStrategyShouldBeActive$225238[ebp], al
	jmp	$LN108@DoTurn
$LN99@DoTurn:

; 658  : 				else if(strStrategyName == "ECONOMICAISTRATEGY_ENOUGH_EXPANSION")

	push	OFFSET ??_C@_0CE@OFIOLJNP@ECONOMICAISTRATEGY_ENOUGH_EXPANS@
	lea	ecx, DWORD PTR _strStrategyName$225242[ebp]
	push	ecx
	call	DWORD PTR __imp_??$?8DU?$char_traits@D@std@@V?$allocator@D@1@@std@@YA_NABV?$basic_string@DU?$char_traits@D@std@@V?$allocator@D@2@@0@PBD@Z
	add	esp, 8
	movzx	edx, al
	test	edx, edx
	je	SHORT $LN97@DoTurn

; 659  : 					bStrategyShouldBeActive = EconomicAIHelpers::IsTestStrategy_EnoughExpansion(eStrategy, m_pPlayer);

	mov	eax, DWORD PTR _this$[ebp]
	mov	ecx, DWORD PTR [eax+4]
	push	ecx
	mov	edx, DWORD PTR _eStrategy$225218[ebp]
	push	edx
	call	?IsTestStrategy_EnoughExpansion@EconomicAIHelpers@@YA_NW4EconomicAIStrategyTypes@@PAVCvPlayer@@@Z ; EconomicAIHelpers::IsTestStrategy_EnoughExpansion
	add	esp, 8
	mov	BYTE PTR _bStrategyShouldBeActive$225238[ebp], al
	jmp	$LN108@DoTurn
$LN97@DoTurn:

; 660  : 				else if(strStrategyName == "ECONOMICAISTRATEGY_NEED_HAPPINESS")

	push	OFFSET ??_C@_0CC@LFBHKCEL@ECONOMICAISTRATEGY_NEED_HAPPINES@
	lea	eax, DWORD PTR _strStrategyName$225242[ebp]
	push	eax
	call	DWORD PTR __imp_??$?8DU?$char_traits@D@std@@V?$allocator@D@1@@std@@YA_NABV?$basic_string@DU?$char_traits@D@std@@V?$allocator@D@2@@0@PBD@Z
	add	esp, 8
	movzx	ecx, al
	test	ecx, ecx
	je	SHORT $LN95@DoTurn

; 661  : 					bStrategyShouldBeActive = EconomicAIHelpers::IsTestStrategy_NeedHappiness(eStrategy, m_pPlayer);

	mov	edx, DWORD PTR _this$[ebp]
	mov	eax, DWORD PTR [edx+4]
	push	eax
	mov	ecx, DWORD PTR _eStrategy$225218[ebp]
	push	ecx
	call	?IsTestStrategy_NeedHappiness@EconomicAIHelpers@@YA_NW4EconomicAIStrategyTypes@@PAVCvPlayer@@@Z ; EconomicAIHelpers::IsTestStrategy_NeedHappiness
	add	esp, 8
	mov	BYTE PTR _bStrategyShouldBeActive$225238[ebp], al
	jmp	$LN108@DoTurn
$LN95@DoTurn:

; 662  : 				else if(strStrategyName == "ECONOMICAISTRATEGY_NEED_HAPPINESS_CRITICAL")

	push	OFFSET ??_C@_0CL@FDIIBLEP@ECONOMICAISTRATEGY_NEED_HAPPINES@
	lea	edx, DWORD PTR _strStrategyName$225242[ebp]
	push	edx
	call	DWORD PTR __imp_??$?8DU?$char_traits@D@std@@V?$allocator@D@1@@std@@YA_NABV?$basic_string@DU?$char_traits@D@std@@V?$allocator@D@2@@0@PBD@Z
	add	esp, 8
	movzx	eax, al
	test	eax, eax
	je	SHORT $LN93@DoTurn

; 663  : 					bStrategyShouldBeActive = EconomicAIHelpers::IsTestStrategy_NeedHappinessCritical(eStrategy, m_pPlayer);

	mov	ecx, DWORD PTR _this$[ebp]
	mov	edx, DWORD PTR [ecx+4]
	push	edx
	mov	eax, DWORD PTR _eStrategy$225218[ebp]
	push	eax
	call	?IsTestStrategy_NeedHappinessCritical@EconomicAIHelpers@@YA_NW4EconomicAIStrategyTypes@@PAVCvPlayer@@@Z ; EconomicAIHelpers::IsTestStrategy_NeedHappinessCritical
	add	esp, 8
	mov	BYTE PTR _bStrategyShouldBeActive$225238[ebp], al
	jmp	$LN108@DoTurn
$LN93@DoTurn:

; 664  : 				else if(strStrategyName == "ECONOMICAISTRATEGY_CITIES_NEED_NAVAL_GROWTH")

	push	OFFSET ??_C@_0CM@CPBLKKDC@ECONOMICAISTRATEGY_CITIES_NEED_N@
	lea	ecx, DWORD PTR _strStrategyName$225242[ebp]
	push	ecx
	call	DWORD PTR __imp_??$?8DU?$char_traits@D@std@@V?$allocator@D@1@@std@@YA_NABV?$basic_string@DU?$char_traits@D@std@@V?$allocator@D@2@@0@PBD@Z
	add	esp, 8
	movzx	edx, al
	test	edx, edx
	je	SHORT $LN91@DoTurn

; 665  : 					bStrategyShouldBeActive = EconomicAIHelpers::IsTestStrategy_CitiesNeedNavalGrowth(eStrategy, m_pPlayer);

	mov	eax, DWORD PTR _this$[ebp]
	mov	ecx, DWORD PTR [eax+4]
	push	ecx
	mov	edx, DWORD PTR _eStrategy$225218[ebp]
	push	edx
	call	?IsTestStrategy_CitiesNeedNavalGrowth@EconomicAIHelpers@@YA_NW4EconomicAIStrategyTypes@@PAVCvPlayer@@@Z ; EconomicAIHelpers::IsTestStrategy_CitiesNeedNavalGrowth
	add	esp, 8
	mov	BYTE PTR _bStrategyShouldBeActive$225238[ebp], al
	jmp	$LN108@DoTurn
$LN91@DoTurn:

; 666  : 				else if(strStrategyName == "ECONOMICAISTRATEGY_CITIES_NEED_NAVAL_TILE_IMPROVEMENT")

	push	OFFSET ??_C@_0DG@KIGJKIPP@ECONOMICAISTRATEGY_CITIES_NEED_N@
	lea	eax, DWORD PTR _strStrategyName$225242[ebp]
	push	eax
	call	DWORD PTR __imp_??$?8DU?$char_traits@D@std@@V?$allocator@D@1@@std@@YA_NABV?$basic_string@DU?$char_traits@D@std@@V?$allocator@D@2@@0@PBD@Z
	add	esp, 8
	movzx	ecx, al
	test	ecx, ecx
	je	SHORT $LN89@DoTurn

; 667  : 					bStrategyShouldBeActive = EconomicAIHelpers::IsTestStrategy_CitiesNeedNavalTileImprovement(eStrategy, m_pPlayer);

	mov	edx, DWORD PTR _this$[ebp]
	mov	eax, DWORD PTR [edx+4]
	push	eax
	mov	ecx, DWORD PTR _eStrategy$225218[ebp]
	push	ecx
	call	?IsTestStrategy_CitiesNeedNavalTileImprovement@EconomicAIHelpers@@YA_NW4EconomicAIStrategyTypes@@PAVCvPlayer@@@Z ; EconomicAIHelpers::IsTestStrategy_CitiesNeedNavalTileImprovement
	add	esp, 8
	mov	BYTE PTR _bStrategyShouldBeActive$225238[ebp], al
	jmp	$LN108@DoTurn
$LN89@DoTurn:

; 668  : 				else if(strStrategyName == "ECONOMICAISTRATEGY_FOUND_CITY")

	push	OFFSET ??_C@_0BO@DCCLOFML@ECONOMICAISTRATEGY_FOUND_CITY?$AA@
	lea	edx, DWORD PTR _strStrategyName$225242[ebp]
	push	edx
	call	DWORD PTR __imp_??$?8DU?$char_traits@D@std@@V?$allocator@D@1@@std@@YA_NABV?$basic_string@DU?$char_traits@D@std@@V?$allocator@D@2@@0@PBD@Z
	add	esp, 8
	movzx	eax, al
	test	eax, eax
	je	SHORT $LN87@DoTurn

; 669  : 					bStrategyShouldBeActive = EconomicAIHelpers::IsTestStrategy_FoundCity(eStrategy, m_pPlayer);

	mov	ecx, DWORD PTR _this$[ebp]
	mov	edx, DWORD PTR [ecx+4]
	push	edx
	mov	eax, DWORD PTR _eStrategy$225218[ebp]
	push	eax
	call	?IsTestStrategy_FoundCity@EconomicAIHelpers@@YA_NW4EconomicAIStrategyTypes@@PAVCvPlayer@@@Z ; EconomicAIHelpers::IsTestStrategy_FoundCity
	add	esp, 8
	mov	BYTE PTR _bStrategyShouldBeActive$225238[ebp], al
	jmp	$LN108@DoTurn
$LN87@DoTurn:

; 670  : 				else if(strStrategyName == "ECONOMICAISTRATEGY_TRADE_WITH_CITY_STATE")

	push	OFFSET ??_C@_0CJ@MGEMDMLI@ECONOMICAISTRATEGY_TRADE_WITH_CI@
	lea	ecx, DWORD PTR _strStrategyName$225242[ebp]
	push	ecx
	call	DWORD PTR __imp_??$?8DU?$char_traits@D@std@@V?$allocator@D@1@@std@@YA_NABV?$basic_string@DU?$char_traits@D@std@@V?$allocator@D@2@@0@PBD@Z
	add	esp, 8
	movzx	edx, al
	test	edx, edx
	je	SHORT $LN85@DoTurn

; 671  : 					bStrategyShouldBeActive = EconomicAIHelpers::IsTestStrategy_TradeWithCityState(eStrategy, m_pPlayer);

	mov	eax, DWORD PTR _this$[ebp]
	mov	ecx, DWORD PTR [eax+4]
	push	ecx
	mov	edx, DWORD PTR _eStrategy$225218[ebp]
	push	edx
	call	?IsTestStrategy_TradeWithCityState@EconomicAIHelpers@@YA_NW4EconomicAIStrategyTypes@@PAVCvPlayer@@@Z ; EconomicAIHelpers::IsTestStrategy_TradeWithCityState
	add	esp, 8
	mov	BYTE PTR _bStrategyShouldBeActive$225238[ebp], al
	jmp	$LN108@DoTurn
$LN85@DoTurn:

; 672  : 				else if(strStrategyName == "ECONOMICAISTRATEGY_NEED_IMPROVEMENT_FOOD")

	push	OFFSET ??_C@_0CJ@IKFAHECC@ECONOMICAISTRATEGY_NEED_IMPROVEM@
	lea	eax, DWORD PTR _strStrategyName$225242[ebp]
	push	eax
	call	DWORD PTR __imp_??$?8DU?$char_traits@D@std@@V?$allocator@D@1@@std@@YA_NABV?$basic_string@DU?$char_traits@D@std@@V?$allocator@D@2@@0@PBD@Z
	add	esp, 8
	movzx	ecx, al
	test	ecx, ecx
	je	SHORT $LN83@DoTurn

; 673  : 					bStrategyShouldBeActive = EconomicAIHelpers::IsTestStrategy_NeedImprovement(m_pPlayer, YIELD_FOOD);

	push	0
	mov	edx, DWORD PTR _this$[ebp]
	mov	eax, DWORD PTR [edx+4]
	push	eax
	call	?IsTestStrategy_NeedImprovement@EconomicAIHelpers@@YA_NPAVCvPlayer@@W4YieldTypes@@@Z ; EconomicAIHelpers::IsTestStrategy_NeedImprovement
	add	esp, 8
	mov	BYTE PTR _bStrategyShouldBeActive$225238[ebp], al
	jmp	$LN108@DoTurn
$LN83@DoTurn:

; 674  : 				else if(strStrategyName == "ECONOMICAISTRATEGY_NEED_IMPROVEMENT_PRODUCTION")

	push	OFFSET ??_C@_0CP@DDBIBPAO@ECONOMICAISTRATEGY_NEED_IMPROVEM@
	lea	ecx, DWORD PTR _strStrategyName$225242[ebp]
	push	ecx
	call	DWORD PTR __imp_??$?8DU?$char_traits@D@std@@V?$allocator@D@1@@std@@YA_NABV?$basic_string@DU?$char_traits@D@std@@V?$allocator@D@2@@0@PBD@Z
	add	esp, 8
	movzx	edx, al
	test	edx, edx
	je	SHORT $LN81@DoTurn

; 675  : 					bStrategyShouldBeActive = EconomicAIHelpers::IsTestStrategy_NeedImprovement(m_pPlayer, YIELD_PRODUCTION);

	push	1
	mov	eax, DWORD PTR _this$[ebp]
	mov	ecx, DWORD PTR [eax+4]
	push	ecx
	call	?IsTestStrategy_NeedImprovement@EconomicAIHelpers@@YA_NPAVCvPlayer@@W4YieldTypes@@@Z ; EconomicAIHelpers::IsTestStrategy_NeedImprovement
	add	esp, 8
	mov	BYTE PTR _bStrategyShouldBeActive$225238[ebp], al
	jmp	$LN108@DoTurn
$LN81@DoTurn:

; 676  : 				else if(strStrategyName == "ECONOMICAISTRATEGY_ONE_OR_FEWER_COASTAL_CITIES")

	push	OFFSET ??_C@_0CP@JJNEAOJM@ECONOMICAISTRATEGY_ONE_OR_FEWER_@
	lea	edx, DWORD PTR _strStrategyName$225242[ebp]
	push	edx
	call	DWORD PTR __imp_??$?8DU?$char_traits@D@std@@V?$allocator@D@1@@std@@YA_NABV?$basic_string@DU?$char_traits@D@std@@V?$allocator@D@2@@0@PBD@Z
	add	esp, 8
	movzx	eax, al
	test	eax, eax
	je	SHORT $LN79@DoTurn

; 677  : 					bStrategyShouldBeActive = EconomicAIHelpers::IsTestStrategy_OneOrFewerCoastalCities(m_pPlayer);

	mov	ecx, DWORD PTR _this$[ebp]
	mov	edx, DWORD PTR [ecx+4]
	push	edx
	call	?IsTestStrategy_OneOrFewerCoastalCities@EconomicAIHelpers@@YA_NPAVCvPlayer@@@Z ; EconomicAIHelpers::IsTestStrategy_OneOrFewerCoastalCities
	add	esp, 4
	mov	BYTE PTR _bStrategyShouldBeActive$225238[ebp], al
	jmp	$LN108@DoTurn
$LN79@DoTurn:

; 678  : 				else if(strStrategyName == "ECONOMICAISTRATEGY_LOSING_MONEY")

	push	OFFSET ??_C@_0CA@OBBOJGK@ECONOMICAISTRATEGY_LOSING_MONEY?$AA@
	lea	eax, DWORD PTR _strStrategyName$225242[ebp]
	push	eax
	call	DWORD PTR __imp_??$?8DU?$char_traits@D@std@@V?$allocator@D@1@@std@@YA_NABV?$basic_string@DU?$char_traits@D@std@@V?$allocator@D@2@@0@PBD@Z
	add	esp, 8
	movzx	ecx, al
	test	ecx, ecx
	je	SHORT $LN77@DoTurn

; 679  : 					bStrategyShouldBeActive = EconomicAIHelpers::IsTestStrategy_LosingMoney(eStrategy, m_pPlayer);

	mov	edx, DWORD PTR _this$[ebp]
	mov	eax, DWORD PTR [edx+4]
	push	eax
	mov	ecx, DWORD PTR _eStrategy$225218[ebp]
	push	ecx
	call	?IsTestStrategy_LosingMoney@EconomicAIHelpers@@YA_NW4EconomicAIStrategyTypes@@PAVCvPlayer@@@Z ; EconomicAIHelpers::IsTestStrategy_LosingMoney
	add	esp, 8
	mov	BYTE PTR _bStrategyShouldBeActive$225238[ebp], al
	jmp	$LN108@DoTurn
$LN77@DoTurn:

; 680  : 				else if(strStrategyName == "ECONOMICAISTRATEGY_HALT_GROWTH_BUILDINGS")

	push	OFFSET ??_C@_0CJ@BNOKMBDA@ECONOMICAISTRATEGY_HALT_GROWTH_B@
	lea	edx, DWORD PTR _strStrategyName$225242[ebp]
	push	edx
	call	DWORD PTR __imp_??$?8DU?$char_traits@D@std@@V?$allocator@D@1@@std@@YA_NABV?$basic_string@DU?$char_traits@D@std@@V?$allocator@D@2@@0@PBD@Z
	add	esp, 8
	movzx	eax, al
	test	eax, eax
	je	SHORT $LN75@DoTurn

; 681  : 					bStrategyShouldBeActive = EconomicAIHelpers::IsTestStrategy_HaltGrowthBuildings(m_pPlayer);

	mov	ecx, DWORD PTR _this$[ebp]
	mov	edx, DWORD PTR [ecx+4]
	push	edx
	call	?IsTestStrategy_HaltGrowthBuildings@EconomicAIHelpers@@YA_NPAVCvPlayer@@@Z ; EconomicAIHelpers::IsTestStrategy_HaltGrowthBuildings
	add	esp, 4
	mov	BYTE PTR _bStrategyShouldBeActive$225238[ebp], al
	jmp	$LN108@DoTurn
$LN75@DoTurn:

; 682  : 				else if(strStrategyName == "ECONOMICAISTRATEGY_TOO_MANY_UNITS")

	push	OFFSET ??_C@_0CC@ECECMFD@ECONOMICAISTRATEGY_TOO_MANY_UNIT@
	lea	eax, DWORD PTR _strStrategyName$225242[ebp]
	push	eax
	call	DWORD PTR __imp_??$?8DU?$char_traits@D@std@@V?$allocator@D@1@@std@@YA_NABV?$basic_string@DU?$char_traits@D@std@@V?$allocator@D@2@@0@PBD@Z
	add	esp, 8
	movzx	ecx, al
	test	ecx, ecx
	je	SHORT $LN73@DoTurn

; 683  : 					bStrategyShouldBeActive = EconomicAIHelpers::IsTestStrategy_TooManyUnits(m_pPlayer);

	mov	edx, DWORD PTR _this$[ebp]
	mov	eax, DWORD PTR [edx+4]
	push	eax
	call	?IsTestStrategy_TooManyUnits@EconomicAIHelpers@@YA_NPAVCvPlayer@@@Z ; EconomicAIHelpers::IsTestStrategy_TooManyUnits
	add	esp, 4
	mov	BYTE PTR _bStrategyShouldBeActive$225238[ebp], al
	jmp	$LN108@DoTurn
$LN73@DoTurn:

; 684  : 				else if(strStrategyName == "ECONOMICAISTRATEGY_ISLAND_START")

	push	OFFSET ??_C@_0CA@GADCJDII@ECONOMICAISTRATEGY_ISLAND_START?$AA@
	lea	ecx, DWORD PTR _strStrategyName$225242[ebp]
	push	ecx
	call	DWORD PTR __imp_??$?8DU?$char_traits@D@std@@V?$allocator@D@1@@std@@YA_NABV?$basic_string@DU?$char_traits@D@std@@V?$allocator@D@2@@0@PBD@Z
	add	esp, 8
	movzx	edx, al
	test	edx, edx
	je	SHORT $LN71@DoTurn

; 685  : 					bStrategyShouldBeActive = EconomicAIHelpers::IsTestStrategy_IslandStart(eStrategy, m_pPlayer);

	mov	eax, DWORD PTR _this$[ebp]
	mov	ecx, DWORD PTR [eax+4]
	push	ecx
	mov	edx, DWORD PTR _eStrategy$225218[ebp]
	push	edx
	call	?IsTestStrategy_IslandStart@EconomicAIHelpers@@YA_NW4EconomicAIStrategyTypes@@PAVCvPlayer@@@Z ; EconomicAIHelpers::IsTestStrategy_IslandStart
	add	esp, 8
	mov	BYTE PTR _bStrategyShouldBeActive$225238[ebp], al
	jmp	$LN108@DoTurn
$LN71@DoTurn:

; 686  : 				else if(strStrategyName == "ECONOMICAISTRATEGY_EXPAND_TO_OTHER_CONTINENTS")

	push	OFFSET ??_C@_0CO@KFILJFKH@ECONOMICAISTRATEGY_EXPAND_TO_OTH@
	lea	eax, DWORD PTR _strStrategyName$225242[ebp]
	push	eax
	call	DWORD PTR __imp_??$?8DU?$char_traits@D@std@@V?$allocator@D@1@@std@@YA_NABV?$basic_string@DU?$char_traits@D@std@@V?$allocator@D@2@@0@PBD@Z
	add	esp, 8
	movzx	ecx, al
	test	ecx, ecx
	je	SHORT $LN69@DoTurn

; 687  : 					bStrategyShouldBeActive = EconomicAIHelpers::IsTestStrategy_ExpandToOtherContinents(m_pPlayer);

	mov	edx, DWORD PTR _this$[ebp]
	mov	eax, DWORD PTR [edx+4]
	push	eax
	call	?IsTestStrategy_ExpandToOtherContinents@EconomicAIHelpers@@YA_NPAVCvPlayer@@@Z ; EconomicAIHelpers::IsTestStrategy_ExpandToOtherContinents
	add	esp, 4
	mov	BYTE PTR _bStrategyShouldBeActive$225238[ebp], al
	jmp	$LN108@DoTurn
$LN69@DoTurn:

; 688  : 				else if(strStrategyName == "ECONOMICAISTRATEGY_REALLY_EXPAND_TO_OTHER_CONTINENTS")

	push	OFFSET ??_C@_0DF@EDEAHICP@ECONOMICAISTRATEGY_REALLY_EXPAND@
	lea	ecx, DWORD PTR _strStrategyName$225242[ebp]
	push	ecx
	call	DWORD PTR __imp_??$?8DU?$char_traits@D@std@@V?$allocator@D@1@@std@@YA_NABV?$basic_string@DU?$char_traits@D@std@@V?$allocator@D@2@@0@PBD@Z
	add	esp, 8
	movzx	edx, al
	test	edx, edx
	je	SHORT $LN67@DoTurn

; 689  : 					bStrategyShouldBeActive = EconomicAIHelpers::IsTestStrategy_ReallyExpandToOtherContinents(m_pPlayer);				

	mov	eax, DWORD PTR _this$[ebp]
	mov	ecx, DWORD PTR [eax+4]
	push	ecx
	call	?IsTestStrategy_ReallyExpandToOtherContinents@EconomicAIHelpers@@YA_NPAVCvPlayer@@@Z ; EconomicAIHelpers::IsTestStrategy_ReallyExpandToOtherContinents
	add	esp, 4
	mov	BYTE PTR _bStrategyShouldBeActive$225238[ebp], al
	jmp	$LN108@DoTurn
$LN67@DoTurn:

; 690  : 				else if(strStrategyName == "ECONOMICAISTRATEGY_MOSTLY_ON_THE_COAST")

	push	OFFSET ??_C@_0CH@HOLHLIDH@ECONOMICAISTRATEGY_MOSTLY_ON_THE@
	lea	edx, DWORD PTR _strStrategyName$225242[ebp]
	push	edx
	call	DWORD PTR __imp_??$?8DU?$char_traits@D@std@@V?$allocator@D@1@@std@@YA_NABV?$basic_string@DU?$char_traits@D@std@@V?$allocator@D@2@@0@PBD@Z
	add	esp, 8
	movzx	eax, al
	test	eax, eax
	je	SHORT $LN65@DoTurn

; 691  : 					bStrategyShouldBeActive = EconomicAIHelpers::IsTestStrategy_MostlyOnTheCoast(m_pPlayer);

	mov	ecx, DWORD PTR _this$[ebp]
	mov	edx, DWORD PTR [ecx+4]
	push	edx
	call	?IsTestStrategy_MostlyOnTheCoast@EconomicAIHelpers@@YA_NPAVCvPlayer@@@Z ; EconomicAIHelpers::IsTestStrategy_MostlyOnTheCoast
	add	esp, 4
	mov	BYTE PTR _bStrategyShouldBeActive$225238[ebp], al
	jmp	$LN108@DoTurn
$LN65@DoTurn:

; 692  : 				else if(strStrategyName == "ECONOMICAISTRATEGY_EXPAND_LIKE_CRAZY")

	push	OFFSET ??_C@_0CF@GIOLCFEP@ECONOMICAISTRATEGY_EXPAND_LIKE_C@
	lea	eax, DWORD PTR _strStrategyName$225242[ebp]
	push	eax
	call	DWORD PTR __imp_??$?8DU?$char_traits@D@std@@V?$allocator@D@1@@std@@YA_NABV?$basic_string@DU?$char_traits@D@std@@V?$allocator@D@2@@0@PBD@Z
	add	esp, 8
	movzx	ecx, al
	test	ecx, ecx
	je	SHORT $LN63@DoTurn

; 693  : 					bStrategyShouldBeActive = EconomicAIHelpers::IsTestStrategy_ExpandLikeCrazy(eStrategy, m_pPlayer);

	mov	edx, DWORD PTR _this$[ebp]
	mov	eax, DWORD PTR [edx+4]
	push	eax
	mov	ecx, DWORD PTR _eStrategy$225218[ebp]
	push	ecx
	call	?IsTestStrategy_ExpandLikeCrazy@EconomicAIHelpers@@YA_NW4EconomicAIStrategyTypes@@PAVCvPlayer@@@Z ; EconomicAIHelpers::IsTestStrategy_ExpandLikeCrazy
	add	esp, 8
	mov	BYTE PTR _bStrategyShouldBeActive$225238[ebp], al
	jmp	$LN108@DoTurn
$LN63@DoTurn:

; 694  : 				else if(strStrategyName == "ECONOMICAISTRATEGY_GROW_LIKE_CRAZY")

	push	OFFSET ??_C@_0CD@HFHBGCBF@ECONOMICAISTRATEGY_GROW_LIKE_CRA@
	lea	edx, DWORD PTR _strStrategyName$225242[ebp]
	push	edx
	call	DWORD PTR __imp_??$?8DU?$char_traits@D@std@@V?$allocator@D@1@@std@@YA_NABV?$basic_string@DU?$char_traits@D@std@@V?$allocator@D@2@@0@PBD@Z
	add	esp, 8
	movzx	eax, al
	test	eax, eax
	je	SHORT $LN61@DoTurn

; 695  : 					bStrategyShouldBeActive = EconomicAIHelpers::IsTestStrategy_GrowLikeCrazy(eStrategy, m_pPlayer);

	mov	ecx, DWORD PTR _this$[ebp]
	mov	edx, DWORD PTR [ecx+4]
	push	edx
	mov	eax, DWORD PTR _eStrategy$225218[ebp]
	push	eax
	call	?IsTestStrategy_GrowLikeCrazy@EconomicAIHelpers@@YA_NW4EconomicAIStrategyTypes@@PAVCvPlayer@@@Z ; EconomicAIHelpers::IsTestStrategy_GrowLikeCrazy
	add	esp, 8
	mov	BYTE PTR _bStrategyShouldBeActive$225238[ebp], al
	jmp	$LN108@DoTurn
$LN61@DoTurn:

; 696  : 				else if(strStrategyName == "ECONOMICAISTRATEGY_GS_CULTURE")

	push	OFFSET ??_C@_0BO@KOACKBDH@ECONOMICAISTRATEGY_GS_CULTURE?$AA@
	lea	ecx, DWORD PTR _strStrategyName$225242[ebp]
	push	ecx
	call	DWORD PTR __imp_??$?8DU?$char_traits@D@std@@V?$allocator@D@1@@std@@YA_NABV?$basic_string@DU?$char_traits@D@std@@V?$allocator@D@2@@0@PBD@Z
	add	esp, 8
	movzx	edx, al
	test	edx, edx
	je	SHORT $LN59@DoTurn

; 697  : 					bStrategyShouldBeActive = EconomicAIHelpers::IsTestStrategy_GS_Culture(m_pPlayer);

	mov	eax, DWORD PTR _this$[ebp]
	mov	ecx, DWORD PTR [eax+4]
	push	ecx
	call	?IsTestStrategy_GS_Culture@EconomicAIHelpers@@YA_NPAVCvPlayer@@@Z ; EconomicAIHelpers::IsTestStrategy_GS_Culture
	add	esp, 4
	mov	BYTE PTR _bStrategyShouldBeActive$225238[ebp], al
	jmp	$LN108@DoTurn
$LN59@DoTurn:

; 698  : 				else if(strStrategyName == "ECONOMICAISTRATEGY_GS_CONQUEST")

	push	OFFSET ??_C@_0BP@JJIICCGD@ECONOMICAISTRATEGY_GS_CONQUEST?$AA@
	lea	edx, DWORD PTR _strStrategyName$225242[ebp]
	push	edx
	call	DWORD PTR __imp_??$?8DU?$char_traits@D@std@@V?$allocator@D@1@@std@@YA_NABV?$basic_string@DU?$char_traits@D@std@@V?$allocator@D@2@@0@PBD@Z
	add	esp, 8
	movzx	eax, al
	test	eax, eax
	je	SHORT $LN57@DoTurn

; 699  : 					bStrategyShouldBeActive = EconomicAIHelpers::IsTestStrategy_GS_Conquest(m_pPlayer);

	mov	ecx, DWORD PTR _this$[ebp]
	mov	edx, DWORD PTR [ecx+4]
	push	edx
	call	?IsTestStrategy_GS_Conquest@EconomicAIHelpers@@YA_NPAVCvPlayer@@@Z ; EconomicAIHelpers::IsTestStrategy_GS_Conquest
	add	esp, 4
	mov	BYTE PTR _bStrategyShouldBeActive$225238[ebp], al
	jmp	$LN108@DoTurn
$LN57@DoTurn:

; 700  : 				else if(strStrategyName == "ECONOMICAISTRATEGY_GS_DIPLOMACY")

	push	OFFSET ??_C@_0CA@DAOBKCOE@ECONOMICAISTRATEGY_GS_DIPLOMACY?$AA@
	lea	eax, DWORD PTR _strStrategyName$225242[ebp]
	push	eax
	call	DWORD PTR __imp_??$?8DU?$char_traits@D@std@@V?$allocator@D@1@@std@@YA_NABV?$basic_string@DU?$char_traits@D@std@@V?$allocator@D@2@@0@PBD@Z
	add	esp, 8
	movzx	ecx, al
	test	ecx, ecx
	je	SHORT $LN55@DoTurn

; 701  : 					bStrategyShouldBeActive = EconomicAIHelpers::IsTestStrategy_GS_Diplomacy(m_pPlayer);

	mov	edx, DWORD PTR _this$[ebp]
	mov	eax, DWORD PTR [edx+4]
	push	eax
	call	?IsTestStrategy_GS_Diplomacy@EconomicAIHelpers@@YA_NPAVCvPlayer@@@Z ; EconomicAIHelpers::IsTestStrategy_GS_Diplomacy
	add	esp, 4
	mov	BYTE PTR _bStrategyShouldBeActive$225238[ebp], al
	jmp	$LN108@DoTurn
$LN55@DoTurn:

; 702  : 				else if(strStrategyName == "ECONOMICAISTRATEGY_GS_SPACESHIP")

	push	OFFSET ??_C@_0CA@GMLPPGJD@ECONOMICAISTRATEGY_GS_SPACESHIP?$AA@
	lea	ecx, DWORD PTR _strStrategyName$225242[ebp]
	push	ecx
	call	DWORD PTR __imp_??$?8DU?$char_traits@D@std@@V?$allocator@D@1@@std@@YA_NABV?$basic_string@DU?$char_traits@D@std@@V?$allocator@D@2@@0@PBD@Z
	add	esp, 8
	movzx	edx, al
	test	edx, edx
	je	SHORT $LN53@DoTurn

; 703  : 					bStrategyShouldBeActive = EconomicAIHelpers::IsTestStrategy_GS_Spaceship(m_pPlayer);

	mov	eax, DWORD PTR _this$[ebp]
	mov	ecx, DWORD PTR [eax+4]
	push	ecx
	call	?IsTestStrategy_GS_Spaceship@EconomicAIHelpers@@YA_NPAVCvPlayer@@@Z ; EconomicAIHelpers::IsTestStrategy_GS_Spaceship
	add	esp, 4
	mov	BYTE PTR _bStrategyShouldBeActive$225238[ebp], al
	jmp	$LN108@DoTurn
$LN53@DoTurn:

; 704  : 				else if(strStrategyName == "ECONOMICAISTRATEGY_GS_SPACESHIP_HOMESTRETCH")

	push	OFFSET ??_C@_0CM@MOIMHCNJ@ECONOMICAISTRATEGY_GS_SPACESHIP_@
	lea	edx, DWORD PTR _strStrategyName$225242[ebp]
	push	edx
	call	DWORD PTR __imp_??$?8DU?$char_traits@D@std@@V?$allocator@D@1@@std@@YA_NABV?$basic_string@DU?$char_traits@D@std@@V?$allocator@D@2@@0@PBD@Z
	add	esp, 8
	movzx	eax, al
	test	eax, eax
	je	SHORT $LN51@DoTurn

; 705  : 					bStrategyShouldBeActive = EconomicAIHelpers::IsTestStrategy_GS_SpaceshipHomestretch(m_pPlayer);

	mov	ecx, DWORD PTR _this$[ebp]
	mov	edx, DWORD PTR [ecx+4]
	push	edx
	call	?IsTestStrategy_GS_SpaceshipHomestretch@EconomicAIHelpers@@YA_NPAVCvPlayer@@@Z ; EconomicAIHelpers::IsTestStrategy_GS_SpaceshipHomestretch
	add	esp, 4
	mov	BYTE PTR _bStrategyShouldBeActive$225238[ebp], al
	jmp	$LN108@DoTurn
$LN51@DoTurn:

; 706  : 				else if(strStrategyName == "ECONOMICAISTRATEGY_NAVAL_MAP")

	push	OFFSET ??_C@_0BN@CEBPEMPC@ECONOMICAISTRATEGY_NAVAL_MAP?$AA@
	lea	eax, DWORD PTR _strStrategyName$225242[ebp]
	push	eax
	call	DWORD PTR __imp_??$?8DU?$char_traits@D@std@@V?$allocator@D@1@@std@@YA_NABV?$basic_string@DU?$char_traits@D@std@@V?$allocator@D@2@@0@PBD@Z
	add	esp, 8
	movzx	ecx, al
	test	ecx, ecx
	je	SHORT $LN49@DoTurn

; 707  : 					bStrategyShouldBeActive = EconomicAIHelpers::IsTestStrategy_NavalMap(m_pPlayer);

	mov	edx, DWORD PTR _this$[ebp]
	mov	eax, DWORD PTR [edx+4]
	push	eax
	call	?IsTestStrategy_NavalMap@EconomicAIHelpers@@YA_NPAVCvPlayer@@@Z ; EconomicAIHelpers::IsTestStrategy_NavalMap
	add	esp, 4
	mov	BYTE PTR _bStrategyShouldBeActive$225238[ebp], al
	jmp	$LN108@DoTurn
$LN49@DoTurn:

; 708  : 				else if(strStrategyName == "ECONOMICAISTRATEGY_OFFSHORE_EXPANSION_MAP")

	push	OFFSET ??_C@_0CK@OCGLJEIH@ECONOMICAISTRATEGY_OFFSHORE_EXPA@
	lea	ecx, DWORD PTR _strStrategyName$225242[ebp]
	push	ecx
	call	DWORD PTR __imp_??$?8DU?$char_traits@D@std@@V?$allocator@D@1@@std@@YA_NABV?$basic_string@DU?$char_traits@D@std@@V?$allocator@D@2@@0@PBD@Z
	add	esp, 8
	movzx	edx, al
	test	edx, edx
	je	SHORT $LN47@DoTurn

; 709  : 					bStrategyShouldBeActive = EconomicAIHelpers::IsTestStrategy_OffshoreExpansionMap(m_pPlayer);

	mov	eax, DWORD PTR _this$[ebp]
	mov	ecx, DWORD PTR [eax+4]
	push	ecx
	call	?IsTestStrategy_OffshoreExpansionMap@EconomicAIHelpers@@YA_NPAVCvPlayer@@@Z ; EconomicAIHelpers::IsTestStrategy_OffshoreExpansionMap
	add	esp, 4
	mov	BYTE PTR _bStrategyShouldBeActive$225238[ebp], al
	jmp	$LN108@DoTurn
$LN47@DoTurn:

; 710  : 				else if(strStrategyName == "ECONOMICAISTRATEGY_DEVELOPING_RELIGION")

	push	OFFSET ??_C@_0CH@GNLJCNLK@ECONOMICAISTRATEGY_DEVELOPING_RE@
	lea	edx, DWORD PTR _strStrategyName$225242[ebp]
	push	edx
	call	DWORD PTR __imp_??$?8DU?$char_traits@D@std@@V?$allocator@D@1@@std@@YA_NABV?$basic_string@DU?$char_traits@D@std@@V?$allocator@D@2@@0@PBD@Z
	add	esp, 8
	movzx	eax, al
	test	eax, eax
	je	SHORT $LN45@DoTurn

; 711  : 					bStrategyShouldBeActive = EconomicAIHelpers::IsTestStrategy_DevelopingReligion(m_pPlayer);

	mov	ecx, DWORD PTR _this$[ebp]
	mov	edx, DWORD PTR [ecx+4]
	push	edx
	call	?IsTestStrategy_DevelopingReligion@EconomicAIHelpers@@YA_NPAVCvPlayer@@@Z ; EconomicAIHelpers::IsTestStrategy_DevelopingReligion
	add	esp, 4
	mov	BYTE PTR _bStrategyShouldBeActive$225238[ebp], al
	jmp	$LN108@DoTurn
$LN45@DoTurn:

; 712  : 				else if(strStrategyName == "ECONOMICAISTRATEGY_TECH_LEADER")

	push	OFFSET ??_C@_0BP@LMEKCLA@ECONOMICAISTRATEGY_TECH_LEADER?$AA@
	lea	eax, DWORD PTR _strStrategyName$225242[ebp]
	push	eax
	call	DWORD PTR __imp_??$?8DU?$char_traits@D@std@@V?$allocator@D@1@@std@@YA_NABV?$basic_string@DU?$char_traits@D@std@@V?$allocator@D@2@@0@PBD@Z
	add	esp, 8
	movzx	ecx, al
	test	ecx, ecx
	je	SHORT $LN43@DoTurn

; 713  : 					bStrategyShouldBeActive = EconomicAIHelpers::IsTestStrategy_TechLeader(m_pPlayer);

	mov	edx, DWORD PTR _this$[ebp]
	mov	eax, DWORD PTR [edx+4]
	push	eax
	call	?IsTestStrategy_TechLeader@EconomicAIHelpers@@YA_NPAVCvPlayer@@@Z ; EconomicAIHelpers::IsTestStrategy_TechLeader
	add	esp, 4
	mov	BYTE PTR _bStrategyShouldBeActive$225238[ebp], al
	jmp	$LN108@DoTurn
$LN43@DoTurn:

; 714  : 				else if(strStrategyName == "ECONOMICAISTRATEGY_NEED_ARCHAEOLOGISTS")

	push	OFFSET ??_C@_0CH@JBCPGFFK@ECONOMICAISTRATEGY_NEED_ARCHAEOL@
	lea	ecx, DWORD PTR _strStrategyName$225242[ebp]
	push	ecx
	call	DWORD PTR __imp_??$?8DU?$char_traits@D@std@@V?$allocator@D@1@@std@@YA_NABV?$basic_string@DU?$char_traits@D@std@@V?$allocator@D@2@@0@PBD@Z
	add	esp, 8
	movzx	edx, al
	test	edx, edx
	je	SHORT $LN41@DoTurn

; 715  : 					bStrategyShouldBeActive = EconomicAIHelpers::IsTestStrategy_NeedArchaeologists(m_pPlayer);

	mov	eax, DWORD PTR _this$[ebp]
	mov	ecx, DWORD PTR [eax+4]
	push	ecx
	call	?IsTestStrategy_NeedArchaeologists@EconomicAIHelpers@@YA_NPAVCvPlayer@@@Z ; EconomicAIHelpers::IsTestStrategy_NeedArchaeologists
	add	esp, 4
	mov	BYTE PTR _bStrategyShouldBeActive$225238[ebp], al
	jmp	$LN108@DoTurn
$LN41@DoTurn:

; 716  : 				else if(strStrategyName == "ECONOMICAISTRATEGY_ENOUGH_ARCHAEOLOGISTS")

	push	OFFSET ??_C@_0CJ@OJNNMPCJ@ECONOMICAISTRATEGY_ENOUGH_ARCHAE@
	lea	edx, DWORD PTR _strStrategyName$225242[ebp]
	push	edx
	call	DWORD PTR __imp_??$?8DU?$char_traits@D@std@@V?$allocator@D@1@@std@@YA_NABV?$basic_string@DU?$char_traits@D@std@@V?$allocator@D@2@@0@PBD@Z
	add	esp, 8
	movzx	eax, al
	test	eax, eax
	je	SHORT $LN39@DoTurn

; 717  : 					bStrategyShouldBeActive = EconomicAIHelpers::IsTestStrategy_EnoughArchaeologists(m_pPlayer);

	mov	ecx, DWORD PTR _this$[ebp]
	mov	edx, DWORD PTR [ecx+4]
	push	edx
	call	?IsTestStrategy_EnoughArchaeologists@EconomicAIHelpers@@YA_NPAVCvPlayer@@@Z ; EconomicAIHelpers::IsTestStrategy_EnoughArchaeologists
	add	esp, 4
	mov	BYTE PTR _bStrategyShouldBeActive$225238[ebp], al
	jmp	$LN108@DoTurn
$LN39@DoTurn:

; 718  : 				else if(strStrategyName == "ECONOMICAISTRATEGY_NEED_MUSEUMS")

	push	OFFSET ??_C@_0CA@LJEEDGCK@ECONOMICAISTRATEGY_NEED_MUSEUMS?$AA@
	lea	eax, DWORD PTR _strStrategyName$225242[ebp]
	push	eax
	call	DWORD PTR __imp_??$?8DU?$char_traits@D@std@@V?$allocator@D@1@@std@@YA_NABV?$basic_string@DU?$char_traits@D@std@@V?$allocator@D@2@@0@PBD@Z
	add	esp, 8
	movzx	ecx, al
	test	ecx, ecx
	je	SHORT $LN37@DoTurn

; 719  : 					bStrategyShouldBeActive = EconomicAIHelpers::IsTestStrategy_NeedMuseums(m_pPlayer);

	mov	edx, DWORD PTR _this$[ebp]
	mov	eax, DWORD PTR [edx+4]
	push	eax
	call	?IsTestStrategy_NeedMuseums@EconomicAIHelpers@@YA_NPAVCvPlayer@@@Z ; EconomicAIHelpers::IsTestStrategy_NeedMuseums
	add	esp, 4
	mov	BYTE PTR _bStrategyShouldBeActive$225238[ebp], al
	jmp	$LN108@DoTurn
$LN37@DoTurn:

; 720  : 				else if(strStrategyName == "ECONOMICAISTRATEGY_NEED_GUILDS")

	push	OFFSET ??_C@_0BP@OKANEKEH@ECONOMICAISTRATEGY_NEED_GUILDS?$AA@
	lea	ecx, DWORD PTR _strStrategyName$225242[ebp]
	push	ecx
	call	DWORD PTR __imp_??$?8DU?$char_traits@D@std@@V?$allocator@D@1@@std@@YA_NABV?$basic_string@DU?$char_traits@D@std@@V?$allocator@D@2@@0@PBD@Z
	add	esp, 8
	movzx	edx, al
	test	edx, edx
	je	SHORT $LN35@DoTurn

; 721  : 					bStrategyShouldBeActive = EconomicAIHelpers::IsTestStrategy_NeedGuilds(m_pPlayer);

	mov	eax, DWORD PTR _this$[ebp]
	mov	ecx, DWORD PTR [eax+4]
	push	ecx
	call	?IsTestStrategy_NeedGuilds@EconomicAIHelpers@@YA_NPAVCvPlayer@@@Z ; EconomicAIHelpers::IsTestStrategy_NeedGuilds
	add	esp, 4
	mov	BYTE PTR _bStrategyShouldBeActive$225238[ebp], al
	jmp	SHORT $LN108@DoTurn
$LN35@DoTurn:

; 722  : 				else if(strStrategyName == "ECONOMICAISTRATEGY_CONCERT_TOUR")

	push	OFFSET ??_C@_0CA@PBGIMIOP@ECONOMICAISTRATEGY_CONCERT_TOUR?$AA@
	lea	edx, DWORD PTR _strStrategyName$225242[ebp]
	push	edx
	call	DWORD PTR __imp_??$?8DU?$char_traits@D@std@@V?$allocator@D@1@@std@@YA_NABV?$basic_string@DU?$char_traits@D@std@@V?$allocator@D@2@@0@PBD@Z
	add	esp, 8
	movzx	eax, al
	test	eax, eax
	je	SHORT $LN33@DoTurn

; 723  : 					bStrategyShouldBeActive = EconomicAIHelpers::IsTestStrategy_ConcertTour(eStrategy, m_pPlayer);

	mov	ecx, DWORD PTR _this$[ebp]
	mov	edx, DWORD PTR [ecx+4]
	push	edx
	mov	eax, DWORD PTR _eStrategy$225218[ebp]
	push	eax
	call	?IsTestStrategy_ConcertTour@EconomicAIHelpers@@YA_NW4EconomicAIStrategyTypes@@PAVCvPlayer@@@Z ; EconomicAIHelpers::IsTestStrategy_ConcertTour
	add	esp, 8
	mov	BYTE PTR _bStrategyShouldBeActive$225238[ebp], al
	jmp	SHORT $LN108@DoTurn
$LN33@DoTurn:

; 724  : 				else if(strStrategyName == "ECONOMICAISTRATEGY_STARTED_PIETY")

	push	OFFSET ??_C@_0CB@EPJOLIIN@ECONOMICAISTRATEGY_STARTED_PIETY@
	lea	ecx, DWORD PTR _strStrategyName$225242[ebp]
	push	ecx
	call	DWORD PTR __imp_??$?8DU?$char_traits@D@std@@V?$allocator@D@1@@std@@YA_NABV?$basic_string@DU?$char_traits@D@std@@V?$allocator@D@2@@0@PBD@Z
	add	esp, 8
	movzx	edx, al
	test	edx, edx
	je	SHORT $LN31@DoTurn

; 725  : 					bStrategyShouldBeActive = EconomicAIHelpers::IsTestStrategy_StartedPiety(m_pPlayer);

	mov	eax, DWORD PTR _this$[ebp]
	mov	ecx, DWORD PTR [eax+4]
	push	ecx
	call	?IsTestStrategy_StartedPiety@EconomicAIHelpers@@YA_NPAVCvPlayer@@@Z ; EconomicAIHelpers::IsTestStrategy_StartedPiety
	add	esp, 4
	mov	BYTE PTR _bStrategyShouldBeActive$225238[ebp], al

; 726  : 
; 727  : 				// Never found it?  Assume it is scenario-specific and should be on unless disabled by Lua hook
; 728  : 				else

	jmp	SHORT $LN108@DoTurn
$LN31@DoTurn:

; 729  : 				{
; 730  : 					bStrategyShouldBeActive = true;

	mov	BYTE PTR _bStrategyShouldBeActive$225238[ebp], 1
$LN108@DoTurn:

; 731  : 				}
; 732  : 
; 733  : 				// Check Lua hook
; 734  : 				ICvEngineScriptSystem1* pkScriptSystem = gDLL->GetScriptSystem();

	mov	edx, DWORD PTR $T232332[ebp]
	mov	DWORD PTR tv772[ebp], edx
	mov	eax, DWORD PTR ?gGlobals@@3VCvGlobals@@A+8564
	mov	DWORD PTR tv772[ebp], eax
	mov	ecx, DWORD PTR tv772[ebp]
	mov	edx, DWORD PTR [ecx]
	mov	ecx, DWORD PTR tv772[ebp]
	mov	eax, DWORD PTR [edx+12]
	call	eax
	mov	DWORD PTR _pkScriptSystem$225365[ebp], eax

; 735  : 				if(pkScriptSystem && bStrategyShouldBeActive)

	cmp	DWORD PTR _pkScriptSystem$225365[ebp], 0
	je	$LN29@DoTurn
	movzx	ecx, BYTE PTR _bStrategyShouldBeActive$225238[ebp]
	test	ecx, ecx
	je	$LN29@DoTurn

; 736  : 				{
; 737  : 					CvLuaArgsHandle args;

	lea	ecx, DWORD PTR _args$225367[ebp]
	call	??0CvLuaArgsHandle@@QAE@XZ		; CvLuaArgsHandle::CvLuaArgsHandle
	mov	BYTE PTR __$EHRec$[ebp+8], 1

; 738  : 					args->Push(iStrategiesLoop);

	mov	edx, DWORD PTR _args$225367[ebp]
	mov	DWORD PTR tv785[ebp], edx
	mov	eax, DWORD PTR _iStrategiesLoop$[ebp]
	push	eax
	mov	ecx, DWORD PTR tv785[ebp]
	mov	edx, DWORD PTR [ecx]
	mov	ecx, DWORD PTR tv785[ebp]
	mov	eax, DWORD PTR [edx+8]
	call	eax

; 739  : 					args->Push(m_pPlayer->GetID());

	mov	ecx, DWORD PTR _args$225367[ebp]
	mov	DWORD PTR tv792[ebp], ecx
	mov	edx, DWORD PTR _this$[ebp]
	mov	eax, DWORD PTR [edx+4]
	mov	ecx, DWORD PTR [eax+44]
	mov	DWORD PTR $T232347[ebp], ecx
	mov	edx, DWORD PTR $T232347[ebp]
	push	edx
	mov	eax, DWORD PTR tv792[ebp]
	mov	edx, DWORD PTR [eax]
	mov	ecx, DWORD PTR tv792[ebp]
	mov	eax, DWORD PTR [edx+8]
	call	eax

; 740  : 
; 741  : 					// Attempt to execute the game events.
; 742  : 					// Will return false if there are no registered listeners.
; 743  : 					bool bResult = false;

	mov	BYTE PTR _bResult$225368[ebp], 0

; 744  : 					if(LuaSupport::CallTestAll(pkScriptSystem, "EconomicStrategyCanActivate", args.get(), bResult))

	mov	ecx, DWORD PTR _args$225367[ebp]
	mov	DWORD PTR $T232351[ebp], ecx
	lea	edx, DWORD PTR _bResult$225368[ebp]
	push	edx
	mov	eax, DWORD PTR $T232351[ebp]
	push	eax
	push	OFFSET ??_C@_0BM@BLKCLAIM@EconomicStrategyCanActivate?$AA@
	mov	ecx, DWORD PTR _pkScriptSystem$225365[ebp]
	push	ecx
	call	?CallTestAll@LuaSupport@@YA_NPAVICvEngineScriptSystem1@@PBDPAVICvEngineScriptSystemArgs1@@AA_N@Z ; LuaSupport::CallTestAll
	add	esp, 16					; 00000010H
	movzx	edx, al
	test	edx, edx
	je	SHORT $LN28@DoTurn

; 745  : 					{
; 746  : 						// Check the result.
; 747  : 						if(bResult == false)

	movzx	eax, BYTE PTR _bResult$225368[ebp]
	test	eax, eax
	jne	SHORT $LN28@DoTurn

; 748  : 						{
; 749  : 							bStrategyShouldBeActive = false;

	mov	BYTE PTR _bStrategyShouldBeActive$225238[ebp], 0
$LN28@DoTurn:

; 750  : 						}
; 751  : 					}
; 752  : 				}

	mov	BYTE PTR __$EHRec$[ebp+8], 0
	lea	ecx, DWORD PTR _args$225367[ebp]
	call	??1CvLuaArgsHandle@@QAE@XZ		; CvLuaArgsHandle::~CvLuaArgsHandle
$LN29@DoTurn:

; 753  : 			}

	mov	DWORD PTR __$EHRec$[ebp+8], -1
	lea	ecx, DWORD PTR _strStrategyName$225242[ebp]
	call	DWORD PTR __imp_??1?$basic_string@DU?$char_traits@D@std@@V?$allocator@D@2@@std@@QAE@XZ
$LN110@DoTurn:

; 754  : 
; 755  : 			// This variable keeps track of whether or not we should be doing something (i.e. Strategy is active now but should be turned off, OR Strategy is inactive and should be enabled)
; 756  : 			bool bAdoptOrEndStrategy = false;

	mov	BYTE PTR _bAdoptOrEndStrategy$225372[ebp], 0

; 757  : 
; 758  : 			// Strategy should be on, and if it's not, turn it on
; 759  : 			if(bStrategyShouldBeActive)

	movzx	ecx, BYTE PTR _bStrategyShouldBeActive$225238[ebp]
	test	ecx, ecx
	je	SHORT $LN26@DoTurn

; 760  : 			{
; 761  : 				if(bTestStrategyStart)

	movzx	edx, BYTE PTR _bTestStrategyStart$225222[ebp]
	test	edx, edx
	je	SHORT $LN25@DoTurn

; 762  : 				{
; 763  : 					bAdoptOrEndStrategy = true;

	mov	BYTE PTR _bAdoptOrEndStrategy$225372[ebp], 1
	jmp	SHORT $LN24@DoTurn
$LN25@DoTurn:

; 764  : 				}
; 765  : 				else if(bTestStrategyEnd)

	movzx	eax, BYTE PTR _bTestStrategyEnd$225230[ebp]
	test	eax, eax
	je	SHORT $LN24@DoTurn

; 766  : 				{
; 767  : 					bAdoptOrEndStrategy = false;

	mov	BYTE PTR _bAdoptOrEndStrategy$225372[ebp], 0
$LN24@DoTurn:

; 768  : 				}
; 769  : 			}
; 770  : 			// Strategy should be off, and if it's not, turn it off
; 771  : 			else

	jmp	SHORT $LN22@DoTurn
$LN26@DoTurn:

; 772  : 			{
; 773  : 				if(bTestStrategyStart)

	movzx	ecx, BYTE PTR _bTestStrategyStart$225222[ebp]
	test	ecx, ecx
	je	SHORT $LN21@DoTurn

; 774  : 				{
; 775  : 					bAdoptOrEndStrategy = false;

	mov	BYTE PTR _bAdoptOrEndStrategy$225372[ebp], 0
	jmp	SHORT $LN22@DoTurn
$LN21@DoTurn:

; 776  : 				}
; 777  : 				else if(bTestStrategyEnd)

	movzx	edx, BYTE PTR _bTestStrategyEnd$225230[ebp]
	test	edx, edx
	je	SHORT $LN22@DoTurn

; 778  : 				{
; 779  : 					bAdoptOrEndStrategy = true;

	mov	BYTE PTR _bAdoptOrEndStrategy$225372[ebp], 1
$LN22@DoTurn:

; 780  : 				}
; 781  : 			}
; 782  : 
; 783  : 			// Flavor propagation
; 784  : 			if(bAdoptOrEndStrategy)

	movzx	eax, BYTE PTR _bAdoptOrEndStrategy$225372[ebp]
	test	eax, eax
	je	$LN113@DoTurn

; 785  : 			{
; 786  : 				int iFlavorLoop;
; 787  : 
; 788  : 				// We should adopt this Strategy
; 789  : 				if(bTestStrategyStart)

	movzx	ecx, BYTE PTR _bTestStrategyStart$225222[ebp]
	test	ecx, ecx
	je	$LN17@DoTurn

; 790  : 				{
; 791  : 					SetUsingStrategy(eStrategy, true);

	push	1
	mov	edx, DWORD PTR _eStrategy$225218[ebp]
	push	edx
	mov	ecx, DWORD PTR _this$[ebp]
	call	?SetUsingStrategy@CvEconomicAI@@QAEXW4EconomicAIStrategyTypes@@_N@Z ; CvEconomicAI::SetUsingStrategy

; 792  : 
; 793  : 					for(iFlavorLoop = 0; iFlavorLoop < GC.getNumFlavorTypes(); iFlavorLoop++)

	mov	DWORD PTR _iFlavorLoop$225382[ebp], 0
	jmp	SHORT $LN16@DoTurn
$LN15@DoTurn:
	mov	eax, DWORD PTR _iFlavorLoop$225382[ebp]
	add	eax, 1
	mov	DWORD PTR _iFlavorLoop$225382[ebp], eax
$LN16@DoTurn:
	mov	ecx, DWORD PTR ?gGlobals@@3VCvGlobals@@A+1764
	mov	DWORD PTR $T232359[ebp], ecx
	mov	edx, DWORD PTR _iFlavorLoop$225382[ebp]
	cmp	edx, DWORD PTR $T232359[ebp]
	jge	SHORT $LN14@DoTurn

; 794  : 					{
; 795  : 						m_aiTempFlavors[iFlavorLoop] = pStrategy->GetPlayerFlavorValue(iFlavorLoop);

	mov	eax, DWORD PTR _iFlavorLoop$225382[ebp]
	push	eax
	mov	ecx, DWORD PTR _pStrategy$225220[ebp]
	call	?GetPlayerFlavorValue@CvEconomicAIStrategyXMLEntry@@QBEHH@Z ; CvEconomicAIStrategyXMLEntry::GetPlayerFlavorValue
	mov	ecx, DWORD PTR _this$[ebp]
	mov	edx, DWORD PTR [ecx+20]
	mov	ecx, DWORD PTR _iFlavorLoop$225382[ebp]
	mov	DWORD PTR [edx+ecx*4], eax

; 796  : 					}

	jmp	SHORT $LN15@DoTurn
$LN14@DoTurn:

; 797  : 
; 798  : 					GetPlayer()->GetFlavorManager()->ChangeFlavors(m_aiTempFlavors, true);

	push	1
	mov	edx, DWORD PTR _this$[ebp]
	mov	eax, DWORD PTR [edx+20]
	push	eax
	mov	ecx, DWORD PTR _this$[ebp]
	call	?GetPlayer@CvEconomicAI@@QAEPAVCvPlayer@@XZ ; CvEconomicAI::GetPlayer
	mov	ecx, eax
	call	?GetFlavorManager@CvPlayer@@QBEPAVCvFlavorManager@@XZ ; CvPlayer::GetFlavorManager
	mov	ecx, eax
	call	?ChangeFlavors@CvFlavorManager@@QAEXPAH_N@Z ; CvFlavorManager::ChangeFlavors

; 799  : 
; 800  : 					for(iFlavorLoop = 0; iFlavorLoop < GC.getNumFlavorTypes(); iFlavorLoop++)

	mov	DWORD PTR _iFlavorLoop$225382[ebp], 0
	jmp	SHORT $LN13@DoTurn
$LN12@DoTurn:
	mov	ecx, DWORD PTR _iFlavorLoop$225382[ebp]
	add	ecx, 1
	mov	DWORD PTR _iFlavorLoop$225382[ebp], ecx
$LN13@DoTurn:
	mov	edx, DWORD PTR ?gGlobals@@3VCvGlobals@@A+1764
	mov	DWORD PTR $T232363[ebp], edx
	mov	eax, DWORD PTR _iFlavorLoop$225382[ebp]
	cmp	eax, DWORD PTR $T232363[ebp]
	jge	SHORT $LN11@DoTurn

; 801  : 					{
; 802  : 						m_aiTempFlavors[iFlavorLoop] = pStrategy->GetCityFlavorValue(iFlavorLoop);

	mov	ecx, DWORD PTR _iFlavorLoop$225382[ebp]
	push	ecx
	mov	ecx, DWORD PTR _pStrategy$225220[ebp]
	call	?GetCityFlavorValue@CvEconomicAIStrategyXMLEntry@@QBEHH@Z ; CvEconomicAIStrategyXMLEntry::GetCityFlavorValue
	mov	edx, DWORD PTR _this$[ebp]
	mov	ecx, DWORD PTR [edx+20]
	mov	edx, DWORD PTR _iFlavorLoop$225382[ebp]
	mov	DWORD PTR [ecx+edx*4], eax

; 803  : 					}

	jmp	SHORT $LN12@DoTurn
$LN11@DoTurn:

; 804  : 
; 805  : 					GetPlayer()->GetFlavorManager()->ChangeFlavors(m_aiTempFlavors, false);

	push	0
	mov	eax, DWORD PTR _this$[ebp]
	mov	ecx, DWORD PTR [eax+20]
	push	ecx
	mov	ecx, DWORD PTR _this$[ebp]
	call	?GetPlayer@CvEconomicAI@@QAEPAVCvPlayer@@XZ ; CvEconomicAI::GetPlayer
	mov	ecx, eax
	call	?GetFlavorManager@CvPlayer@@QBEPAVCvFlavorManager@@XZ ; CvPlayer::GetFlavorManager
	mov	ecx, eax
	call	?ChangeFlavors@CvFlavorManager@@QAEXPAH_N@Z ; CvFlavorManager::ChangeFlavors
	jmp	$LN113@DoTurn
$LN17@DoTurn:

; 806  : 				}
; 807  : 				// End the Strategy
; 808  : 				else if(bTestStrategyEnd)

	movzx	edx, BYTE PTR _bTestStrategyEnd$225230[ebp]
	test	edx, edx
	je	$LN113@DoTurn

; 809  : 				{
; 810  : 					SetUsingStrategy(eStrategy, false);

	push	0
	mov	eax, DWORD PTR _eStrategy$225218[ebp]
	push	eax
	mov	ecx, DWORD PTR _this$[ebp]
	call	?SetUsingStrategy@CvEconomicAI@@QAEXW4EconomicAIStrategyTypes@@_N@Z ; CvEconomicAI::SetUsingStrategy

; 811  : 
; 812  : 					for(iFlavorLoop = 0; iFlavorLoop < GC.getNumFlavorTypes(); iFlavorLoop++)

	mov	DWORD PTR _iFlavorLoop$225382[ebp], 0
	jmp	SHORT $LN8@DoTurn
$LN7@DoTurn:
	mov	ecx, DWORD PTR _iFlavorLoop$225382[ebp]
	add	ecx, 1
	mov	DWORD PTR _iFlavorLoop$225382[ebp], ecx
$LN8@DoTurn:
	mov	edx, DWORD PTR ?gGlobals@@3VCvGlobals@@A+1764
	mov	DWORD PTR $T232367[ebp], edx
	mov	eax, DWORD PTR _iFlavorLoop$225382[ebp]
	cmp	eax, DWORD PTR $T232367[ebp]
	jge	SHORT $LN6@DoTurn

; 813  : 					{
; 814  : 						m_aiTempFlavors[iFlavorLoop] = -pStrategy->GetPlayerFlavorValue(iFlavorLoop);

	mov	ecx, DWORD PTR _iFlavorLoop$225382[ebp]
	push	ecx
	mov	ecx, DWORD PTR _pStrategy$225220[ebp]
	call	?GetPlayerFlavorValue@CvEconomicAIStrategyXMLEntry@@QBEHH@Z ; CvEconomicAIStrategyXMLEntry::GetPlayerFlavorValue
	neg	eax
	mov	edx, DWORD PTR _this$[ebp]
	mov	ecx, DWORD PTR [edx+20]
	mov	edx, DWORD PTR _iFlavorLoop$225382[ebp]
	mov	DWORD PTR [ecx+edx*4], eax

; 815  : 					}

	jmp	SHORT $LN7@DoTurn
$LN6@DoTurn:

; 816  : 
; 817  : 					GetPlayer()->GetFlavorManager()->ChangeFlavors(m_aiTempFlavors, true);

	push	1
	mov	eax, DWORD PTR _this$[ebp]
	mov	ecx, DWORD PTR [eax+20]
	push	ecx
	mov	ecx, DWORD PTR _this$[ebp]
	call	?GetPlayer@CvEconomicAI@@QAEPAVCvPlayer@@XZ ; CvEconomicAI::GetPlayer
	mov	ecx, eax
	call	?GetFlavorManager@CvPlayer@@QBEPAVCvFlavorManager@@XZ ; CvPlayer::GetFlavorManager
	mov	ecx, eax
	call	?ChangeFlavors@CvFlavorManager@@QAEXPAH_N@Z ; CvFlavorManager::ChangeFlavors

; 818  : 
; 819  : 					for(iFlavorLoop = 0; iFlavorLoop < GC.getNumFlavorTypes(); iFlavorLoop++)

	mov	DWORD PTR _iFlavorLoop$225382[ebp], 0
	jmp	SHORT $LN5@DoTurn
$LN4@DoTurn:
	mov	edx, DWORD PTR _iFlavorLoop$225382[ebp]
	add	edx, 1
	mov	DWORD PTR _iFlavorLoop$225382[ebp], edx
$LN5@DoTurn:
	mov	eax, DWORD PTR ?gGlobals@@3VCvGlobals@@A+1764
	mov	DWORD PTR $T232371[ebp], eax
	mov	ecx, DWORD PTR _iFlavorLoop$225382[ebp]
	cmp	ecx, DWORD PTR $T232371[ebp]
	jge	SHORT $LN3@DoTurn

; 820  : 					{
; 821  : 						m_aiTempFlavors[iFlavorLoop] = -pStrategy->GetCityFlavorValue(iFlavorLoop);

	mov	edx, DWORD PTR _iFlavorLoop$225382[ebp]
	push	edx
	mov	ecx, DWORD PTR _pStrategy$225220[ebp]
	call	?GetCityFlavorValue@CvEconomicAIStrategyXMLEntry@@QBEHH@Z ; CvEconomicAIStrategyXMLEntry::GetCityFlavorValue
	neg	eax
	mov	ecx, DWORD PTR _this$[ebp]
	mov	edx, DWORD PTR [ecx+20]
	mov	ecx, DWORD PTR _iFlavorLoop$225382[ebp]
	mov	DWORD PTR [edx+ecx*4], eax

; 822  : 					}

	jmp	SHORT $LN4@DoTurn
$LN3@DoTurn:

; 823  : 
; 824  : 					GetPlayer()->GetFlavorManager()->ChangeFlavors(m_aiTempFlavors, false);

	push	0
	mov	edx, DWORD PTR _this$[ebp]
	mov	eax, DWORD PTR [edx+20]
	push	eax
	mov	ecx, DWORD PTR _this$[ebp]
	call	?GetPlayer@CvEconomicAI@@QAEPAVCvPlayer@@XZ ; CvEconomicAI::GetPlayer
	mov	ecx, eax
	call	?GetFlavorManager@CvPlayer@@QBEPAVCvFlavorManager@@XZ ; CvPlayer::GetFlavorManager
	mov	ecx, eax
	call	?ChangeFlavors@CvFlavorManager@@QAEXPAH_N@Z ; CvFlavorManager::ChangeFlavors
$LN113@DoTurn:

; 825  : 				}
; 826  : 			}
; 827  : 		}
; 828  : 	}

	jmp	$LN126@DoTurn
$LN125@DoTurn:

; 829  : 
; 830  : 	if(!m_pPlayer->isHuman())

	mov	ecx, DWORD PTR _this$[ebp]
	mov	ecx, DWORD PTR [ecx+4]
	call	?isHuman@CvPlayer@@QBE_NXZ		; CvPlayer::isHuman
	movzx	edx, al
	test	edx, edx
	jne	SHORT $LN128@DoTurn

; 831  : 	{
; 832  : 		DoHurry();

	mov	ecx, DWORD PTR _this$[ebp]
	call	?DoHurry@CvEconomicAI@@AAEXXZ		; CvEconomicAI::DoHurry

; 833  : 		DoPlotPurchases();

	mov	ecx, DWORD PTR _this$[ebp]
	call	?DoPlotPurchases@CvEconomicAI@@AAEXXZ	; CvEconomicAI::DoPlotPurchases

; 834  : 		DisbandExtraWorkers();

	mov	ecx, DWORD PTR _this$[ebp]
	call	?DisbandExtraWorkers@CvEconomicAI@@AAEXXZ ; CvEconomicAI::DisbandExtraWorkers

; 835  : 		if (!m_pPlayer->isMinorCiv() && !m_pPlayer->isBarbarian())

	mov	eax, DWORD PTR _this$[ebp]
	mov	ecx, DWORD PTR [eax+4]
	call	?isMinorCiv@CvPlayer@@QBE_NXZ		; CvPlayer::isMinorCiv
	movzx	ecx, al
	test	ecx, ecx
	jne	SHORT $LN128@DoTurn
	mov	edx, DWORD PTR _this$[ebp]
	mov	ecx, DWORD PTR [edx+4]
	call	?isBarbarian@CvPlayer@@QBE_NXZ		; CvPlayer::isBarbarian
	movzx	eax, al
	test	eax, eax
	jne	SHORT $LN128@DoTurn

; 836  : 		{
; 837  : 			DisbandExtraArchaeologists();

	mov	ecx, DWORD PTR _this$[ebp]
	call	?DisbandExtraArchaeologists@CvEconomicAI@@AAEXXZ ; CvEconomicAI::DisbandExtraArchaeologists

; 838  : 			m_pPlayer->GetCulture()->DoSwapGreatWorks();

	mov	ecx, DWORD PTR _this$[ebp]
	mov	ecx, DWORD PTR [ecx+4]
	call	?GetCulture@CvPlayer@@QBEPAVCvPlayerCulture@@XZ ; CvPlayer::GetCulture
	mov	ecx, eax
	call	?DoSwapGreatWorks@CvPlayerCulture@@QAEXXZ ; CvPlayerCulture::DoSwapGreatWorks
$LN128@DoTurn:

; 839  : 		}
; 840  : 	}
; 841  : }

	mov	ecx, DWORD PTR __$EHRec$[ebp]
	mov	DWORD PTR fs:0, ecx
	pop	ecx
	pop	edi
	pop	esi
	mov	ecx, DWORD PTR __$ArrayPad$[ebp]
	xor	ecx, ebp
	call	@__security_check_cookie@4
	mov	esp, ebp
	pop	ebp
	ret	0
_TEXT	ENDS
;	COMDAT text$x
text$x	SEGMENT
__unwindfunclet$?DoTurn@CvEconomicAI@@QAEXXZ$0:
	lea	ecx, DWORD PTR _strStrategyName$225242[ebp]
	jmp	??1CvString@@QAE@XZ			; CvString::~CvString
__unwindfunclet$?DoTurn@CvEconomicAI@@QAEXXZ$1:
	lea	ecx, DWORD PTR _args$225367[ebp]
	jmp	??1CvLuaArgsHandle@@QAE@XZ		; CvLuaArgsHandle::~CvLuaArgsHandle
__ehhandler$?DoTurn@CvEconomicAI@@QAEXXZ:
	mov	edx, DWORD PTR [esp+8]
	lea	eax, DWORD PTR [edx+12]
	mov	ecx, DWORD PTR [edx-176]
	xor	ecx, eax
	call	@__security_check_cookie@4
	mov	ecx, DWORD PTR [edx-24]
	xor	ecx, eax
	call	@__security_check_cookie@4
	mov	eax, OFFSET __ehfuncinfo$?DoTurn@CvEconomicAI@@QAEXXZ
	jmp	___CxxFrameHandler3
text$x	ENDS
?DoTurn@CvEconomicAI@@QAEXXZ ENDP			; CvEconomicAI::DoTurn
PUBLIC	?plotDistance@@YAHHHHH@Z			; plotDistance
PUBLIC	?GetBestGreatWorkCity@CvEconomicAI@@QBEPAVCvCity@@PAVCvPlot@@W4GreatWorkType@@@Z ; CvEconomicAI::GetBestGreatWorkCity
EXTRN	?getDamage@CvCity@@QBEHXZ:PROC			; CvCity::getDamage
EXTRN	?nextCity@CvPlayer@@QAEPAVCvCity@@PAH_N@Z:PROC	; CvPlayer::nextCity
EXTRN	?firstCity@CvPlayer@@QAEPAVCvCity@@PAH_N@Z:PROC	; CvPlayer::firstCity
EXTRN	?HasAvailableGreatWorkSlot@CvPlayerCulture@@QAE_NW4GreatWorkSlotType@@@Z:PROC ; CvPlayerCulture::HasAvailableGreatWorkSlot
EXTRN	?GetGreatWorkSlot@CultureHelpers@@YA?AW4GreatWorkSlotType@@W4GreatWorkType@@@Z:PROC ; CultureHelpers::GetGreatWorkSlot
; Function compile flags: /Odtp
;	COMDAT ?GetBestGreatWorkCity@CvEconomicAI@@QBEPAVCvCity@@PAVCvPlot@@W4GreatWorkType@@@Z
_TEXT	SEGMENT
_this$ = -124						; size = 4
$T232405 = -40						; size = 4
$T232401 = -36						; size = 4
$T232397 = -32						; size = 4
$T232388 = -28						; size = 4
_iDistance$225415 = -24					; size = 4
_iBestDistance$ = -20					; size = 4
_eGreatWorkSlot$ = -16					; size = 4
_pBestCity$ = -12					; size = 4
_pLoopCity$ = -8					; size = 4
_iLoop$ = -4						; size = 4
_pStartPlot$ = 8					; size = 4
_eGreatWork$ = 12					; size = 4
?GetBestGreatWorkCity@CvEconomicAI@@QBEPAVCvCity@@PAVCvPlot@@W4GreatWorkType@@@Z PROC ; CvEconomicAI::GetBestGreatWorkCity, COMDAT
; _this$ = ecx

; 845  : {

	push	ebp
	mov	ebp, esp
	sub	esp, 124				; 0000007cH
	mov	DWORD PTR _this$[ebp], ecx

; 846  : 	CvCity* pBestCity = NULL;

	mov	DWORD PTR _pBestCity$[ebp], 0

; 847  : 	CvCity* pLoopCity;
; 848  : 	int iLoop;
; 849  : 	int iBestDistance = MAX_INT;

	mov	DWORD PTR _iBestDistance$[ebp], 2147483647 ; 7fffffffH

; 850  : 
; 851  : 	// Make sure there is an undamaged city with a Great Work slot
; 852  : 	GreatWorkSlotType eGreatWorkSlot = CultureHelpers::GetGreatWorkSlot(eGreatWork);

	mov	eax, DWORD PTR _eGreatWork$[ebp]
	push	eax
	call	?GetGreatWorkSlot@CultureHelpers@@YA?AW4GreatWorkSlotType@@W4GreatWorkType@@@Z ; CultureHelpers::GetGreatWorkSlot
	add	esp, 4
	mov	DWORD PTR _eGreatWorkSlot$[ebp], eax

; 853  : 	if (m_pPlayer->GetCulture()->HasAvailableGreatWorkSlot(eGreatWorkSlot))

	mov	ecx, DWORD PTR _eGreatWorkSlot$[ebp]
	push	ecx
	mov	edx, DWORD PTR _this$[ebp]
	mov	ecx, DWORD PTR [edx+4]
	call	?GetCulture@CvPlayer@@QBEPAVCvPlayerCulture@@XZ ; CvPlayer::GetCulture
	mov	ecx, eax
	call	?HasAvailableGreatWorkSlot@CvPlayerCulture@@QAE_NW4GreatWorkSlotType@@@Z ; CvPlayerCulture::HasAvailableGreatWorkSlot
	movzx	eax, al
	test	eax, eax
	je	$LN6@GetBestGre

; 854  : 	{
; 855  : 		for(pLoopCity = m_pPlayer->firstCity(&iLoop); pLoopCity != NULL; pLoopCity = m_pPlayer->nextCity(&iLoop))

	push	0
	lea	ecx, DWORD PTR _iLoop$[ebp]
	push	ecx
	mov	edx, DWORD PTR _this$[ebp]
	mov	ecx, DWORD PTR [edx+4]
	call	?firstCity@CvPlayer@@QAEPAVCvCity@@PAH_N@Z ; CvPlayer::firstCity
	mov	DWORD PTR _pLoopCity$[ebp], eax
	jmp	SHORT $LN5@GetBestGre
$LN4@GetBestGre:
	push	0
	lea	eax, DWORD PTR _iLoop$[ebp]
	push	eax
	mov	ecx, DWORD PTR _this$[ebp]
	mov	ecx, DWORD PTR [ecx+4]
	call	?nextCity@CvPlayer@@QAEPAVCvCity@@PAH_N@Z ; CvPlayer::nextCity
	mov	DWORD PTR _pLoopCity$[ebp], eax
$LN5@GetBestGre:
	cmp	DWORD PTR _pLoopCity$[ebp], 0
	je	SHORT $LN6@GetBestGre

; 856  : 		{
; 857  : 			if (pLoopCity->getDamage() == 0)

	mov	ecx, DWORD PTR _pLoopCity$[ebp]
	call	?getDamage@CvCity@@QBEHXZ		; CvCity::getDamage
	test	eax, eax
	jne	SHORT $LN2@GetBestGre

; 858  : 			{
; 859  : 				int iDistance = plotDistance(pStartPlot->getX(), pStartPlot->getY(), pLoopCity->getX(), pLoopCity->getY());

	mov	edx, DWORD PTR _pLoopCity$[ebp]
	mov	eax, DWORD PTR [edx+108]
	mov	DWORD PTR $T232388[ebp], eax
	mov	ecx, DWORD PTR _pLoopCity$[ebp]
	mov	edx, DWORD PTR [ecx+96]
	mov	DWORD PTR $T232397[ebp], edx
	mov	eax, DWORD PTR _pStartPlot$[ebp]
	movsx	ecx, WORD PTR [eax+2]
	mov	DWORD PTR $T232401[ebp], ecx
	mov	edx, DWORD PTR _pStartPlot$[ebp]
	movsx	eax, WORD PTR [edx]
	mov	DWORD PTR $T232405[ebp], eax
	mov	ecx, DWORD PTR $T232388[ebp]
	push	ecx
	mov	edx, DWORD PTR $T232397[ebp]
	push	edx
	mov	eax, DWORD PTR $T232401[ebp]
	push	eax
	mov	ecx, DWORD PTR $T232405[ebp]
	push	ecx
	call	?plotDistance@@YAHHHHH@Z		; plotDistance
	add	esp, 16					; 00000010H
	mov	DWORD PTR _iDistance$225415[ebp], eax

; 860  : 				if(iDistance < iBestDistance)

	mov	edx, DWORD PTR _iDistance$225415[ebp]
	cmp	edx, DWORD PTR _iBestDistance$[ebp]
	jge	SHORT $LN2@GetBestGre

; 861  : 				{
; 862  : 					iBestDistance = iDistance;

	mov	eax, DWORD PTR _iDistance$225415[ebp]
	mov	DWORD PTR _iBestDistance$[ebp], eax

; 863  : 					pBestCity = pLoopCity;

	mov	ecx, DWORD PTR _pLoopCity$[ebp]
	mov	DWORD PTR _pBestCity$[ebp], ecx
$LN2@GetBestGre:

; 864  : 				}
; 865  : 			}
; 866  : 		}

	jmp	SHORT $LN4@GetBestGre
$LN6@GetBestGre:

; 867  : 	}
; 868  : 
; 869  : 	return pBestCity;

	mov	eax, DWORD PTR _pBestCity$[ebp]

; 870  : }

	mov	esp, ebp
	pop	ebp
	ret	8
?GetBestGreatWorkCity@CvEconomicAI@@QBEPAVCvCity@@PAVCvPlot@@W4GreatWorkType@@@Z ENDP ; CvEconomicAI::GetBestGreatWorkCity
_TEXT	ENDS
PUBLIC	?dyWrap@@YAHH@Z					; dyWrap
PUBLIC	?dxWrap@@YAHH@Z					; dxWrap
; Function compile flags: /Odtp
; File d:\sources\lekmod_git\checkout\lekmod_dll\cvgamecoredll_expansion2\cvgamecoreutils.h
;	COMDAT ?plotDistance@@YAHHHHH@Z
_TEXT	SEGMENT
tv157 = -92						; size = 4
tv138 = -88						; size = 4
tv135 = -84						; size = 4
$T232573 = -80						; size = 4
$T232547 = -60						; size = 4
_iDY$ = -24						; size = 4
_iDX$ = -20						; size = 4
_iWrappedDX$ = -16					; size = 4
_iHX1$ = -12						; size = 4
_iHX2$ = -8						; size = 4
_iWrappedDY$ = -4					; size = 4
_iX1$ = 8						; size = 4
_iY1$ = 12						; size = 4
_iX2$ = 16						; size = 4
_iY2$ = 20						; size = 4
?plotDistance@@YAHHHHH@Z PROC				; plotDistance, COMDAT

; 144  : {

	push	ebp
	mov	ebp, esp
	sub	esp, 92					; 0000005cH

; 145  : 	int iDX;
; 146  : 	int iWrappedDX = dxWrap(iX2 - iX1);

	mov	eax, DWORD PTR _iX2$[ebp]
	sub	eax, DWORD PTR _iX1$[ebp]
	push	eax
	call	?dxWrap@@YAHH@Z				; dxWrap
	add	esp, 4
	mov	DWORD PTR _iWrappedDX$[ebp], eax

; 147  : 	int iWrappedDY = dyWrap(iY2 - iY1);

	mov	ecx, DWORD PTR _iY2$[ebp]
	sub	ecx, DWORD PTR _iY1$[ebp]
	push	ecx
	call	?dyWrap@@YAHH@Z				; dyWrap
	add	esp, 4
	mov	DWORD PTR _iWrappedDY$[ebp], eax

; 148  : 	int iDY = abs(iWrappedDY);

	mov	eax, DWORD PTR _iWrappedDY$[ebp]
	cdq
	xor	eax, edx
	sub	eax, edx
	mov	DWORD PTR _iDY$[ebp], eax

; 149  : 
; 150  : 	// convert to hex-space coordinates - the coordinate system axes are E and NE (not orthogonal)
; 151  : 	int iHX1 = xToHexspaceX(iX1, iY1);

	cmp	DWORD PTR _iY1$[ebp], 0
	jl	SHORT $LN35@plotDistan
	mov	edx, DWORD PTR _iY1$[ebp]
	sar	edx, 1
	mov	DWORD PTR tv135[ebp], edx
	jmp	SHORT $LN33@plotDistan
$LN35@plotDistan:
	mov	eax, DWORD PTR _iY1$[ebp]
	sub	eax, 1
	cdq
	sub	eax, edx
	sar	eax, 1
	mov	DWORD PTR tv135[ebp], eax
$LN33@plotDistan:
	mov	eax, DWORD PTR _iX1$[ebp]
	sub	eax, DWORD PTR tv135[ebp]
	mov	DWORD PTR _iHX1$[ebp], eax

; 152  : 	int iHX2 = xToHexspaceX(iX1 + iWrappedDX, iY1 + iWrappedDY);

	mov	ecx, DWORD PTR _iY1$[ebp]
	add	ecx, DWORD PTR _iWrappedDY$[ebp]
	mov	DWORD PTR $T232547[ebp], ecx
	js	SHORT $LN39@plotDistan
	mov	edx, DWORD PTR $T232547[ebp]
	sar	edx, 1
	mov	DWORD PTR tv138[ebp], edx
	jmp	SHORT $LN37@plotDistan
$LN39@plotDistan:
	mov	eax, DWORD PTR $T232547[ebp]
	sub	eax, 1
	cdq
	sub	eax, edx
	sar	eax, 1
	mov	DWORD PTR tv138[ebp], eax
$LN37@plotDistan:
	mov	eax, DWORD PTR _iX1$[ebp]
	add	eax, DWORD PTR _iWrappedDX$[ebp]
	sub	eax, DWORD PTR tv138[ebp]
	mov	DWORD PTR _iHX2$[ebp], eax

; 153  : 
; 154  : 	iDX = abs(dxWrap(iHX2 - iHX1));

	mov	ecx, DWORD PTR _iHX2$[ebp]
	sub	ecx, DWORD PTR _iHX1$[ebp]
	push	ecx
	call	?dxWrap@@YAHH@Z				; dxWrap
	add	esp, 4
	cdq
	xor	eax, edx
	sub	eax, edx
	mov	DWORD PTR _iDX$[ebp], eax

; 155  : 
; 156  : #ifdef NQM_GAME_CORE_UTILS_OPTIMIZATIONS
; 157  : 	if (((iHX2 - iHX1) ^ (iWrappedDY)) >= 0)  // the signs match
; 158  : #else
; 159  : 	if((iHX2 - iHX1 >= 0) == (iWrappedDY >= 0))  // the signs match

	mov	edx, DWORD PTR _iHX2$[ebp]
	sub	edx, DWORD PTR _iHX1$[ebp]
	xor	eax, eax
	test	edx, edx
	setge	al
	xor	ecx, ecx
	cmp	DWORD PTR _iWrappedDY$[ebp], 0
	setge	cl
	cmp	eax, ecx
	jne	SHORT $LN2@plotDistan

; 160  : #endif
; 161  : 	{
; 162  : 		return iDX + iDY;

	mov	eax, DWORD PTR _iDX$[ebp]
	add	eax, DWORD PTR _iDY$[ebp]
	jmp	SHORT $LN3@plotDistan

; 163  : 	}
; 164  : 	else

	jmp	SHORT $LN3@plotDistan
$LN2@plotDistan:

; 165  : 	{
; 166  : #ifdef NQM_FAST_COMP
; 167  : 		return (MAX(iDX, iDY));
; 168  : #else
; 169  : 		return (std::max(iDX, iDY));

	mov	edx, DWORD PTR _iDX$[ebp]
	cmp	edx, DWORD PTR _iDY$[ebp]
	jge	SHORT $LN57@plotDistan
	lea	eax, DWORD PTR _iDY$[ebp]
	mov	DWORD PTR tv157[ebp], eax
	jmp	SHORT $LN58@plotDistan
$LN57@plotDistan:
	lea	ecx, DWORD PTR _iDX$[ebp]
	mov	DWORD PTR tv157[ebp], ecx
$LN58@plotDistan:
	mov	edx, DWORD PTR tv157[ebp]
	mov	DWORD PTR $T232573[ebp], edx
	mov	eax, DWORD PTR $T232573[ebp]
	mov	eax, DWORD PTR [eax]
$LN3@plotDistan:

; 170  : #endif
; 171  : 	}
; 172  : }

	mov	esp, ebp
	pop	ebp
	ret	0
?plotDistance@@YAHHHHH@Z ENDP				; plotDistance
; Function compile flags: /Odtp
_TEXT	ENDS
;	COMDAT ?dxWrap@@YAHH@Z
_TEXT	SEGMENT
$T232597 = -16						; size = 4
$T232589 = -12						; size = 4
$T232585 = -5						; size = 1
_kMap$ = -4						; size = 4
_iDX$ = 8						; size = 4
?dxWrap@@YAHH@Z PROC					; dxWrap, COMDAT

; 73   : {

	push	ebp
	mov	ebp, esp
	sub	esp, 16					; 00000010H

; 74   : 	const CvMap& kMap = GC.getMap();

	mov	eax, DWORD PTR ?gGlobals@@3VCvGlobals@@A+52
	mov	DWORD PTR _kMap$[ebp], eax

; 75   : 	return wrapCoordDifference(iDX, kMap.getGridWidth(), kMap.isWrapX());

	mov	ecx, DWORD PTR _kMap$[ebp]
	mov	dl, BYTE PTR [ecx+4056]
	mov	BYTE PTR $T232585[ebp], dl
	mov	eax, DWORD PTR _kMap$[ebp]
	mov	ecx, DWORD PTR [eax+4020]
	mov	DWORD PTR $T232589[ebp], ecx
	movzx	edx, BYTE PTR $T232585[ebp]
	test	edx, edx
	je	SHORT $LN12@dxWrap
	mov	eax, DWORD PTR $T232589[ebp]
	shr	eax, 1
	cmp	DWORD PTR _iDX$[ebp], eax
	jle	SHORT $LN11@dxWrap
	mov	ecx, DWORD PTR _iDX$[ebp]
	sub	ecx, DWORD PTR $T232589[ebp]
	mov	DWORD PTR $T232597[ebp], ecx
	jmp	SHORT $LN13@dxWrap
	jmp	SHORT $LN12@dxWrap
$LN11@dxWrap:
	mov	edx, DWORD PTR $T232589[ebp]
	shr	edx, 1
	neg	edx
	cmp	DWORD PTR _iDX$[ebp], edx
	jge	SHORT $LN12@dxWrap
	mov	eax, DWORD PTR _iDX$[ebp]
	add	eax, DWORD PTR $T232589[ebp]
	mov	DWORD PTR $T232597[ebp], eax
	jmp	SHORT $LN13@dxWrap
$LN12@dxWrap:
	mov	ecx, DWORD PTR _iDX$[ebp]
	mov	DWORD PTR $T232597[ebp], ecx
$LN13@dxWrap:
	mov	eax, DWORD PTR $T232597[ebp]

; 76   : }

	mov	esp, ebp
	pop	ebp
	ret	0
?dxWrap@@YAHH@Z ENDP					; dxWrap
; Function compile flags: /Odtp
_TEXT	ENDS
;	COMDAT ?dyWrap@@YAHH@Z
_TEXT	SEGMENT
$T232618 = -16						; size = 4
$T232610 = -12						; size = 4
$T232606 = -5						; size = 1
_kMap$ = -4						; size = 4
_iDY$ = 8						; size = 4
?dyWrap@@YAHH@Z PROC					; dyWrap, COMDAT

; 79   : {

	push	ebp
	mov	ebp, esp
	sub	esp, 16					; 00000010H

; 80   : 	const CvMap& kMap = GC.getMap();

	mov	eax, DWORD PTR ?gGlobals@@3VCvGlobals@@A+52
	mov	DWORD PTR _kMap$[ebp], eax

; 81   : 	return wrapCoordDifference(iDY, kMap.getGridHeight(), kMap.isWrapY());

	mov	ecx, DWORD PTR _kMap$[ebp]
	mov	dl, BYTE PTR [ecx+4057]
	mov	BYTE PTR $T232606[ebp], dl
	mov	eax, DWORD PTR _kMap$[ebp]
	mov	ecx, DWORD PTR [eax+4024]
	mov	DWORD PTR $T232610[ebp], ecx
	movzx	edx, BYTE PTR $T232606[ebp]
	test	edx, edx
	je	SHORT $LN12@dyWrap
	mov	eax, DWORD PTR $T232610[ebp]
	shr	eax, 1
	cmp	DWORD PTR _iDY$[ebp], eax
	jle	SHORT $LN11@dyWrap
	mov	ecx, DWORD PTR _iDY$[ebp]
	sub	ecx, DWORD PTR $T232610[ebp]
	mov	DWORD PTR $T232618[ebp], ecx
	jmp	SHORT $LN13@dyWrap
	jmp	SHORT $LN12@dyWrap
$LN11@dyWrap:
	mov	edx, DWORD PTR $T232610[ebp]
	shr	edx, 1
	neg	edx
	cmp	DWORD PTR _iDY$[ebp], edx
	jge	SHORT $LN12@dyWrap
	mov	eax, DWORD PTR _iDY$[ebp]
	add	eax, DWORD PTR $T232610[ebp]
	mov	DWORD PTR $T232618[ebp], eax
	jmp	SHORT $LN13@dyWrap
$LN12@dyWrap:
	mov	ecx, DWORD PTR _iDY$[ebp]
	mov	DWORD PTR $T232618[ebp], ecx
$LN13@dyWrap:
	mov	eax, DWORD PTR $T232618[ebp]

; 82   : }

	mov	esp, ebp
	pop	ebp
	ret	0
?dyWrap@@YAHH@Z ENDP					; dyWrap
_TEXT	ENDS
PUBLIC	??_C@_01IHBHIGKO@?0?$AA@			; `string'
PUBLIC	?AppendToLog@@YAXAAVCvString@@0V1@1@Z		; AppendToLog
EXTRN	__imp_??Y?$basic_string@DU?$char_traits@D@std@@V?$allocator@D@2@@std@@QAEAAV01@PBD@Z:PROC
EXTRN	__imp_??Y?$basic_string@DU?$char_traits@D@std@@V?$allocator@D@2@@std@@QAEAAV01@ABV01@@Z:PROC
;	COMDAT ??_C@_01IHBHIGKO@?0?$AA@
; File d:\sources\lekmod_git\checkout\lekmod_dll\cvgamecoredllutil\include\cvstring.h
CONST	SEGMENT
??_C@_01IHBHIGKO@?0?$AA@ DB ',', 00H			; `string'
CONST	ENDS
;	COMDAT xdata$x
xdata$x	SEGMENT
__unwindtable$?AppendToLog@@YAXAAVCvString@@0V1@1@Z DD 0ffffffffH
	DD	FLAT:__unwindfunclet$?AppendToLog@@YAXAAVCvString@@0V1@1@Z$0
	DD	00H
	DD	FLAT:__unwindfunclet$?AppendToLog@@YAXAAVCvString@@0V1@1@Z$1
__ehfuncinfo$?AppendToLog@@YAXAAVCvString@@0V1@1@Z DD 019930522H
	DD	02H
	DD	FLAT:__unwindtable$?AppendToLog@@YAXAAVCvString@@0V1@1@Z
	DD	2 DUP(00H)
	DD	2 DUP(00H)
	DD	00H
	DD	01H
; Function compile flags: /Odtp
; File d:\sources\lekmod_git\checkout\lekmod_dll\cvgamecoredll_expansion2\cveconomicai.cpp
xdata$x	ENDS
;	COMDAT ?AppendToLog@@YAXAAVCvString@@0V1@1@Z
_TEXT	SEGMENT
__$EHRec$ = -12						; size = 12
_strHeader$ = 8						; size = 4
_strLog$ = 12						; size = 4
_strHeaderValue$ = 16					; size = 28
_strValue$ = 44						; size = 28
?AppendToLog@@YAXAAVCvString@@0V1@1@Z PROC		; AppendToLog, COMDAT

; 877  : {

	push	ebp
	mov	ebp, esp
	push	-1
	push	__ehhandler$?AppendToLog@@YAXAAVCvString@@0V1@1@Z
	mov	eax, DWORD PTR fs:0
	push	eax
	push	ecx
	mov	eax, DWORD PTR ___security_cookie
	xor	eax, ebp
	push	eax
	lea	eax, DWORD PTR __$EHRec$[ebp]
	mov	DWORD PTR fs:0, eax
	mov	DWORD PTR __$EHRec$[ebp+8], 1

; 878  : 	strHeader += strHeaderValue;

	lea	eax, DWORD PTR _strHeaderValue$[ebp]
	push	eax
	mov	ecx, DWORD PTR _strHeader$[ebp]
	call	DWORD PTR __imp_??Y?$basic_string@DU?$char_traits@D@std@@V?$allocator@D@2@@std@@QAEAAV01@ABV01@@Z

; 879  : 	strHeader += ",";

	push	OFFSET ??_C@_01IHBHIGKO@?0?$AA@
	mov	ecx, DWORD PTR _strHeader$[ebp]
	call	DWORD PTR __imp_??Y?$basic_string@DU?$char_traits@D@std@@V?$allocator@D@2@@std@@QAEAAV01@PBD@Z

; 880  : 	strLog += strValue;

	lea	ecx, DWORD PTR _strValue$[ebp]
	push	ecx
	mov	ecx, DWORD PTR _strLog$[ebp]
	call	DWORD PTR __imp_??Y?$basic_string@DU?$char_traits@D@std@@V?$allocator@D@2@@std@@QAEAAV01@ABV01@@Z

; 881  : 	strLog += ",";

	push	OFFSET ??_C@_01IHBHIGKO@?0?$AA@
	mov	ecx, DWORD PTR _strLog$[ebp]
	call	DWORD PTR __imp_??Y?$basic_string@DU?$char_traits@D@std@@V?$allocator@D@2@@std@@QAEAAV01@PBD@Z

; 882  : }

	mov	BYTE PTR __$EHRec$[ebp+8], 0
	lea	ecx, DWORD PTR _strHeaderValue$[ebp]
	call	DWORD PTR __imp_??1?$basic_string@DU?$char_traits@D@std@@V?$allocator@D@2@@std@@QAE@XZ
	mov	DWORD PTR __$EHRec$[ebp+8], -1
	lea	ecx, DWORD PTR _strValue$[ebp]
	call	DWORD PTR __imp_??1?$basic_string@DU?$char_traits@D@std@@V?$allocator@D@2@@std@@QAE@XZ
	mov	ecx, DWORD PTR __$EHRec$[ebp]
	mov	DWORD PTR fs:0, ecx
	pop	ecx
	mov	esp, ebp
	pop	ebp
	ret	0
_TEXT	ENDS
;	COMDAT text$x
text$x	SEGMENT
__unwindfunclet$?AppendToLog@@YAXAAVCvString@@0V1@1@Z$0:
	lea	ecx, DWORD PTR _strValue$[ebp]
	jmp	??1CvString@@QAE@XZ			; CvString::~CvString
__unwindfunclet$?AppendToLog@@YAXAAVCvString@@0V1@1@Z$1:
	lea	ecx, DWORD PTR _strHeaderValue$[ebp]
	jmp	??1CvString@@QAE@XZ			; CvString::~CvString
__ehhandler$?AppendToLog@@YAXAAVCvString@@0V1@1@Z:
	mov	edx, DWORD PTR [esp+8]
	lea	eax, DWORD PTR [edx+12]
	mov	ecx, DWORD PTR [edx-8]
	xor	ecx, eax
	call	@__security_check_cookie@4
	mov	eax, OFFSET __ehfuncinfo$?AppendToLog@@YAXAAVCvString@@0V1@1@Z
	jmp	___CxxFrameHandler3
text$x	ENDS
?AppendToLog@@YAXAAVCvString@@0V1@1@Z ENDP		; AppendToLog
PUBLIC	?Format@CvString@@QAAXPBDZZ			; CvString::Format
PUBLIC	??_C@_03DPLIHHLN@?$CFd?0?$AA@			; `string'
PUBLIC	__$ArrayPad$
PUBLIC	?AppendToLog@@YAXAAVCvString@@0V1@H@Z		; AppendToLog
;	COMDAT ??_C@_03DPLIHHLN@?$CFd?0?$AA@
; File d:\sources\lekmod_git\checkout\lekmod_dll\cvgamecoredllutil\include\cvstring.h
CONST	SEGMENT
??_C@_03DPLIHHLN@?$CFd?0?$AA@ DB '%d,', 00H		; `string'
CONST	ENDS
;	COMDAT xdata$x
xdata$x	SEGMENT
__unwindtable$?AppendToLog@@YAXAAVCvString@@0V1@H@Z DD 0ffffffffH
	DD	FLAT:__unwindfunclet$?AppendToLog@@YAXAAVCvString@@0V1@H@Z$0
	DD	00H
	DD	FLAT:__unwindfunclet$?AppendToLog@@YAXAAVCvString@@0V1@H@Z$1
__ehfuncinfo$?AppendToLog@@YAXAAVCvString@@0V1@H@Z DD 019930522H
	DD	02H
	DD	FLAT:__unwindtable$?AppendToLog@@YAXAAVCvString@@0V1@H@Z
	DD	2 DUP(00H)
	DD	2 DUP(00H)
	DD	00H
	DD	01H
; Function compile flags: /Odtp
; File d:\sources\lekmod_git\checkout\lekmod_dll\cvgamecoredll_expansion2\cveconomicai.cpp
xdata$x	ENDS
;	COMDAT ?AppendToLog@@YAXAAVCvString@@0V1@H@Z
_TEXT	SEGMENT
_str$ = -44						; size = 28
__$ArrayPad$ = -16					; size = 4
__$EHRec$ = -12						; size = 12
_strHeader$ = 8						; size = 4
_strLog$ = 12						; size = 4
_strHeaderValue$ = 16					; size = 28
_iValue$ = 44						; size = 4
?AppendToLog@@YAXAAVCvString@@0V1@H@Z PROC		; AppendToLog, COMDAT

; 889  : {

	push	ebp
	mov	ebp, esp
	push	-1
	push	__ehhandler$?AppendToLog@@YAXAAVCvString@@0V1@H@Z
	mov	eax, DWORD PTR fs:0
	push	eax
	sub	esp, 32					; 00000020H
	mov	eax, DWORD PTR ___security_cookie
	xor	eax, ebp
	mov	DWORD PTR __$ArrayPad$[ebp], eax
	push	eax
	lea	eax, DWORD PTR __$EHRec$[ebp]
	mov	DWORD PTR fs:0, eax
	mov	DWORD PTR __$EHRec$[ebp+8], 0

; 890  : 	strHeader += strHeaderValue;

	lea	eax, DWORD PTR _strHeaderValue$[ebp]
	push	eax
	mov	ecx, DWORD PTR _strHeader$[ebp]
	call	DWORD PTR __imp_??Y?$basic_string@DU?$char_traits@D@std@@V?$allocator@D@2@@std@@QAEAAV01@ABV01@@Z

; 891  : 	strHeader += ",";

	push	OFFSET ??_C@_01IHBHIGKO@?0?$AA@
	mov	ecx, DWORD PTR _strHeader$[ebp]
	call	DWORD PTR __imp_??Y?$basic_string@DU?$char_traits@D@std@@V?$allocator@D@2@@std@@QAEAAV01@PBD@Z

; 892  : 	CvString str;

	lea	ecx, DWORD PTR _str$[ebp]
	call	DWORD PTR __imp_??0?$basic_string@DU?$char_traits@D@std@@V?$allocator@D@2@@std@@QAE@XZ
	mov	BYTE PTR __$EHRec$[ebp+8], 1

; 893  : 	str.Format("%d,", iValue);

	mov	ecx, DWORD PTR _iValue$[ebp]
	push	ecx
	push	OFFSET ??_C@_03DPLIHHLN@?$CFd?0?$AA@
	lea	edx, DWORD PTR _str$[ebp]
	push	edx
	call	?Format@CvString@@QAAXPBDZZ		; CvString::Format
	add	esp, 12					; 0000000cH

; 894  : 	strLog += str;

	lea	eax, DWORD PTR _str$[ebp]
	push	eax
	mov	ecx, DWORD PTR _strLog$[ebp]
	call	DWORD PTR __imp_??Y?$basic_string@DU?$char_traits@D@std@@V?$allocator@D@2@@std@@QAEAAV01@ABV01@@Z

; 895  : }

	mov	BYTE PTR __$EHRec$[ebp+8], 0
	lea	ecx, DWORD PTR _str$[ebp]
	call	DWORD PTR __imp_??1?$basic_string@DU?$char_traits@D@std@@V?$allocator@D@2@@std@@QAE@XZ
	mov	DWORD PTR __$EHRec$[ebp+8], -1
	lea	ecx, DWORD PTR _strHeaderValue$[ebp]
	call	DWORD PTR __imp_??1?$basic_string@DU?$char_traits@D@std@@V?$allocator@D@2@@std@@QAE@XZ
	mov	ecx, DWORD PTR __$EHRec$[ebp]
	mov	DWORD PTR fs:0, ecx
	pop	ecx
	mov	ecx, DWORD PTR __$ArrayPad$[ebp]
	xor	ecx, ebp
	call	@__security_check_cookie@4
	mov	esp, ebp
	pop	ebp
	ret	0
_TEXT	ENDS
;	COMDAT text$x
text$x	SEGMENT
__unwindfunclet$?AppendToLog@@YAXAAVCvString@@0V1@H@Z$0:
	lea	ecx, DWORD PTR _strHeaderValue$[ebp]
	jmp	??1CvString@@QAE@XZ			; CvString::~CvString
__unwindfunclet$?AppendToLog@@YAXAAVCvString@@0V1@H@Z$1:
	lea	ecx, DWORD PTR _str$[ebp]
	jmp	??1CvString@@QAE@XZ			; CvString::~CvString
__ehhandler$?AppendToLog@@YAXAAVCvString@@0V1@H@Z:
	mov	edx, DWORD PTR [esp+8]
	lea	eax, DWORD PTR [edx+12]
	mov	ecx, DWORD PTR [edx-36]
	xor	ecx, eax
	call	@__security_check_cookie@4
	mov	ecx, DWORD PTR [edx-4]
	xor	ecx, eax
	call	@__security_check_cookie@4
	mov	eax, OFFSET __ehfuncinfo$?AppendToLog@@YAXAAVCvString@@0V1@H@Z
	jmp	___CxxFrameHandler3
text$x	ENDS
?AppendToLog@@YAXAAVCvString@@0V1@H@Z ENDP		; AppendToLog
PUBLIC	??_C@_05EIOELHKK@?$CF?42f?0?$AA@		; `string'
PUBLIC	__$ArrayPad$
PUBLIC	?AppendToLog@@YAXAAVCvString@@0V1@M@Z		; AppendToLog
EXTRN	__fltused:DWORD
;	COMDAT ??_C@_05EIOELHKK@?$CF?42f?0?$AA@
; File d:\sources\lekmod_git\checkout\lekmod_dll\cvgamecoredllutil\include\cvstring.h
CONST	SEGMENT
??_C@_05EIOELHKK@?$CF?42f?0?$AA@ DB '%.2f,', 00H	; `string'
CONST	ENDS
;	COMDAT xdata$x
xdata$x	SEGMENT
__unwindtable$?AppendToLog@@YAXAAVCvString@@0V1@M@Z DD 0ffffffffH
	DD	FLAT:__unwindfunclet$?AppendToLog@@YAXAAVCvString@@0V1@M@Z$0
	DD	00H
	DD	FLAT:__unwindfunclet$?AppendToLog@@YAXAAVCvString@@0V1@M@Z$1
__ehfuncinfo$?AppendToLog@@YAXAAVCvString@@0V1@M@Z DD 019930522H
	DD	02H
	DD	FLAT:__unwindtable$?AppendToLog@@YAXAAVCvString@@0V1@M@Z
	DD	2 DUP(00H)
	DD	2 DUP(00H)
	DD	00H
	DD	01H
; Function compile flags: /Odtp
; File d:\sources\lekmod_git\checkout\lekmod_dll\cvgamecoredll_expansion2\cveconomicai.cpp
xdata$x	ENDS
;	COMDAT ?AppendToLog@@YAXAAVCvString@@0V1@M@Z
_TEXT	SEGMENT
_str$ = -44						; size = 28
__$ArrayPad$ = -16					; size = 4
__$EHRec$ = -12						; size = 12
_strHeader$ = 8						; size = 4
_strLog$ = 12						; size = 4
_strHeaderValue$ = 16					; size = 28
_fValue$ = 44						; size = 4
?AppendToLog@@YAXAAVCvString@@0V1@M@Z PROC		; AppendToLog, COMDAT

; 902  : {

	push	ebp
	mov	ebp, esp
	push	-1
	push	__ehhandler$?AppendToLog@@YAXAAVCvString@@0V1@M@Z
	mov	eax, DWORD PTR fs:0
	push	eax
	sub	esp, 32					; 00000020H
	mov	eax, DWORD PTR ___security_cookie
	xor	eax, ebp
	mov	DWORD PTR __$ArrayPad$[ebp], eax
	push	eax
	lea	eax, DWORD PTR __$EHRec$[ebp]
	mov	DWORD PTR fs:0, eax
	mov	DWORD PTR __$EHRec$[ebp+8], 0

; 903  : 	strHeader += strHeaderValue;

	lea	eax, DWORD PTR _strHeaderValue$[ebp]
	push	eax
	mov	ecx, DWORD PTR _strHeader$[ebp]
	call	DWORD PTR __imp_??Y?$basic_string@DU?$char_traits@D@std@@V?$allocator@D@2@@std@@QAEAAV01@ABV01@@Z

; 904  : 	strHeader += ",";

	push	OFFSET ??_C@_01IHBHIGKO@?0?$AA@
	mov	ecx, DWORD PTR _strHeader$[ebp]
	call	DWORD PTR __imp_??Y?$basic_string@DU?$char_traits@D@std@@V?$allocator@D@2@@std@@QAEAAV01@PBD@Z

; 905  : 	CvString str;

	lea	ecx, DWORD PTR _str$[ebp]
	call	DWORD PTR __imp_??0?$basic_string@DU?$char_traits@D@std@@V?$allocator@D@2@@std@@QAE@XZ
	mov	BYTE PTR __$EHRec$[ebp+8], 1

; 906  : 	str.Format("%.2f,", fValue);

	cvtss2sd xmm0, DWORD PTR _fValue$[ebp]
	sub	esp, 8
	movsd	QWORD PTR [esp], xmm0
	push	OFFSET ??_C@_05EIOELHKK@?$CF?42f?0?$AA@
	lea	ecx, DWORD PTR _str$[ebp]
	push	ecx
	call	?Format@CvString@@QAAXPBDZZ		; CvString::Format
	add	esp, 16					; 00000010H

; 907  : 	strLog += str;

	lea	edx, DWORD PTR _str$[ebp]
	push	edx
	mov	ecx, DWORD PTR _strLog$[ebp]
	call	DWORD PTR __imp_??Y?$basic_string@DU?$char_traits@D@std@@V?$allocator@D@2@@std@@QAEAAV01@ABV01@@Z

; 908  : }

	mov	BYTE PTR __$EHRec$[ebp+8], 0
	lea	ecx, DWORD PTR _str$[ebp]
	call	DWORD PTR __imp_??1?$basic_string@DU?$char_traits@D@std@@V?$allocator@D@2@@std@@QAE@XZ
	mov	DWORD PTR __$EHRec$[ebp+8], -1
	lea	ecx, DWORD PTR _strHeaderValue$[ebp]
	call	DWORD PTR __imp_??1?$basic_string@DU?$char_traits@D@std@@V?$allocator@D@2@@std@@QAE@XZ
	mov	ecx, DWORD PTR __$EHRec$[ebp]
	mov	DWORD PTR fs:0, ecx
	pop	ecx
	mov	ecx, DWORD PTR __$ArrayPad$[ebp]
	xor	ecx, ebp
	call	@__security_check_cookie@4
	mov	esp, ebp
	pop	ebp
	ret	0
_TEXT	ENDS
;	COMDAT text$x
text$x	SEGMENT
__unwindfunclet$?AppendToLog@@YAXAAVCvString@@0V1@M@Z$0:
	lea	ecx, DWORD PTR _strHeaderValue$[ebp]
	jmp	??1CvString@@QAE@XZ			; CvString::~CvString
__unwindfunclet$?AppendToLog@@YAXAAVCvString@@0V1@M@Z$1:
	lea	ecx, DWORD PTR _str$[ebp]
	jmp	??1CvString@@QAE@XZ			; CvString::~CvString
__ehhandler$?AppendToLog@@YAXAAVCvString@@0V1@M@Z:
	mov	edx, DWORD PTR [esp+8]
	lea	eax, DWORD PTR [edx+12]
	mov	ecx, DWORD PTR [edx-36]
	xor	ecx, eax
	call	@__security_check_cookie@4
	mov	ecx, DWORD PTR [edx-4]
	xor	ecx, eax
	call	@__security_check_cookie@4
	mov	eax, OFFSET __ehfuncinfo$?AppendToLog@@YAXAAVCvString@@0V1@M@Z
	jmp	___CxxFrameHandler3
text$x	ENDS
?AppendToLog@@YAXAAVCvString@@0V1@M@Z ENDP		; AppendToLog
PUBLIC	?GetExplorationPlots@CvEconomicAI@@QAEAAV?$FFastVector@H$0A@$0A@$0A@UFDefaultFastVectorAllocator@?$BaseVector@H$0A@@@@@XZ ; CvEconomicAI::GetExplorationPlots
; Function compile flags: /Odtp
;	COMDAT ?GetExplorationPlots@CvEconomicAI@@QAEAAV?$FFastVector@H$0A@$0A@$0A@UFDefaultFastVectorAllocator@?$BaseVector@H$0A@@@@@XZ
_TEXT	SEGMENT
_this$ = -4						; size = 4
?GetExplorationPlots@CvEconomicAI@@QAEAAV?$FFastVector@H$0A@$0A@$0A@UFDefaultFastVectorAllocator@?$BaseVector@H$0A@@@@@XZ PROC ; CvEconomicAI::GetExplorationPlots, COMDAT
; _this$ = ecx

; 911  : {

	push	ebp
	mov	ebp, esp
	push	ecx
	mov	DWORD PTR _this$[ebp], ecx

; 912  : 	if(m_bExplorationPlotsDirty)

	mov	eax, DWORD PTR _this$[ebp]
	movzx	ecx, BYTE PTR [eax]
	test	ecx, ecx
	je	SHORT $LN1@GetExplora

; 913  : 	{
; 914  : 		UpdatePlots();

	mov	ecx, DWORD PTR _this$[ebp]
	call	?UpdatePlots@CvEconomicAI@@QAEXXZ	; CvEconomicAI::UpdatePlots
$LN1@GetExplora:

; 915  : 	}
; 916  : 
; 917  : 	return m_aiExplorationPlots;

	mov	eax, DWORD PTR _this$[ebp]
	add	eax, 64					; 00000040H

; 918  : }

	mov	esp, ebp
	pop	ebp
	ret	0
?GetExplorationPlots@CvEconomicAI@@QAEAAV?$FFastVector@H$0A@$0A@$0A@UFDefaultFastVectorAllocator@?$BaseVector@H$0A@@@@@XZ ENDP ; CvEconomicAI::GetExplorationPlots
_TEXT	ENDS
PUBLIC	?GetExplorationPlotRatings@CvEconomicAI@@QAEAAV?$FFastVector@H$0A@$0A@$0A@UFDefaultFastVectorAllocator@?$BaseVector@H$0A@@@@@XZ ; CvEconomicAI::GetExplorationPlotRatings
; Function compile flags: /Odtp
;	COMDAT ?GetExplorationPlotRatings@CvEconomicAI@@QAEAAV?$FFastVector@H$0A@$0A@$0A@UFDefaultFastVectorAllocator@?$BaseVector@H$0A@@@@@XZ
_TEXT	SEGMENT
_this$ = -4						; size = 4
?GetExplorationPlotRatings@CvEconomicAI@@QAEAAV?$FFastVector@H$0A@$0A@$0A@UFDefaultFastVectorAllocator@?$BaseVector@H$0A@@@@@XZ PROC ; CvEconomicAI::GetExplorationPlotRatings, COMDAT
; _this$ = ecx

; 921  : {

	push	ebp
	mov	ebp, esp
	push	ecx
	mov	DWORD PTR _this$[ebp], ecx

; 922  : 	if(m_bExplorationPlotsDirty)

	mov	eax, DWORD PTR _this$[ebp]
	movzx	ecx, BYTE PTR [eax]
	test	ecx, ecx
	je	SHORT $LN1@GetExplora@2

; 923  : 	{
; 924  : 		UpdatePlots();

	mov	ecx, DWORD PTR _this$[ebp]
	call	?UpdatePlots@CvEconomicAI@@QAEXXZ	; CvEconomicAI::UpdatePlots
$LN1@GetExplora@2:

; 925  : 	}
; 926  : 
; 927  : 	return m_aiExplorationPlotRatings;

	mov	eax, DWORD PTR _this$[ebp]
	add	eax, 76					; 0000004cH

; 928  : }

	mov	esp, ebp
	pop	ebp
	ret	0
?GetExplorationPlotRatings@CvEconomicAI@@QAEAAV?$FFastVector@H$0A@$0A@$0A@UFDefaultFastVectorAllocator@?$BaseVector@H$0A@@@@@XZ ENDP ; CvEconomicAI::GetExplorationPlotRatings
_TEXT	ENDS
PUBLIC	?GetGoodyHutPlots@CvEconomicAI@@QAEAAV?$FFastVector@H$0A@$0A@$0A@UFDefaultFastVectorAllocator@?$BaseVector@H$0A@@@@@XZ ; CvEconomicAI::GetGoodyHutPlots
; Function compile flags: /Odtp
;	COMDAT ?GetGoodyHutPlots@CvEconomicAI@@QAEAAV?$FFastVector@H$0A@$0A@$0A@UFDefaultFastVectorAllocator@?$BaseVector@H$0A@@@@@XZ
_TEXT	SEGMENT
_this$ = -4						; size = 4
?GetGoodyHutPlots@CvEconomicAI@@QAEAAV?$FFastVector@H$0A@$0A@$0A@UFDefaultFastVectorAllocator@?$BaseVector@H$0A@@@@@XZ PROC ; CvEconomicAI::GetGoodyHutPlots, COMDAT
; _this$ = ecx

; 931  : {

	push	ebp
	mov	ebp, esp
	push	ecx
	mov	DWORD PTR _this$[ebp], ecx

; 932  : 	if(m_bExplorationPlotsDirty)

	mov	eax, DWORD PTR _this$[ebp]
	movzx	ecx, BYTE PTR [eax]
	test	ecx, ecx
	je	SHORT $LN1@GetGoodyHu

; 933  : 	{
; 934  : 		UpdatePlots();

	mov	ecx, DWORD PTR _this$[ebp]
	call	?UpdatePlots@CvEconomicAI@@QAEXXZ	; CvEconomicAI::UpdatePlots
$LN1@GetGoodyHu:

; 935  : 	}
; 936  : 
; 937  : 	return m_aiGoodyHutPlots;

	mov	eax, DWORD PTR _this$[ebp]
	add	eax, 88					; 00000058H

; 938  : }

	mov	esp, ebp
	pop	ebp
	ret	0
?GetGoodyHutPlots@CvEconomicAI@@QAEAAV?$FFastVector@H$0A@$0A@$0A@UFDefaultFastVectorAllocator@?$BaseVector@H$0A@@@@@XZ ENDP ; CvEconomicAI::GetGoodyHutPlots
_TEXT	ENDS
PUBLIC	?GetUnitTargetGoodyPlot@CvEconomicAI@@QAEPAVCvPlot@@PAVCvUnit@@PAPAV2@@Z ; CvEconomicAI::GetUnitTargetGoodyPlot
; Function compile flags: /Odtp
;	COMDAT ?GetUnitTargetGoodyPlot@CvEconomicAI@@QAEPAVCvPlot@@PAVCvUnit@@PAPAV2@@Z
_TEXT	SEGMENT
tv163 = -56						; size = 4
tv135 = -52						; size = 4
tv157 = -48						; size = 4
_this$ = -44						; size = 4
$T232751 = -40						; size = 4
$T232744 = -36						; size = 4
$T232737 = -32						; size = 4
$T232733 = -28						; size = 4
$T232723 = -24						; size = 4
$T232716 = -20						; size = 4
$T232706 = -16						; size = 4
_iStepPlotID$225493 = -12				; size = 4
_ui$225487 = -8						; size = 4
_iUnitID$ = -4						; size = 4
_pUnit$ = 8						; size = 4
_ppkStepPlot$ = 12					; size = 4
?GetUnitTargetGoodyPlot@CvEconomicAI@@QAEPAVCvPlot@@PAVCvUnit@@PAPAV2@@Z PROC ; CvEconomicAI::GetUnitTargetGoodyPlot, COMDAT
; _this$ = ecx

; 942  : {

	push	ebp
	mov	ebp, esp
	sub	esp, 56					; 00000038H
	mov	DWORD PTR _this$[ebp], ecx

; 943  : 	if(m_bExplorationPlotsDirty)

	mov	eax, DWORD PTR _this$[ebp]
	movzx	ecx, BYTE PTR [eax]
	test	ecx, ecx
	je	SHORT $LN13@GetUnitTar

; 944  : 	{
; 945  : 		UpdatePlots();

	mov	ecx, DWORD PTR _this$[ebp]
	call	?UpdatePlots@CvEconomicAI@@QAEXXZ	; CvEconomicAI::UpdatePlots

; 946  : 	}
; 947  : 
; 948  : 	int iUnitID = pUnit->GetID();

$LN13@GetUnitTar:
	mov	edx, DWORD PTR _pUnit$[ebp]
	mov	eax, DWORD PTR [edx+100]
	mov	DWORD PTR _iUnitID$[ebp], eax

; 949  : 	for(uint ui = 0; ui < m_aiGoodyHutUnitAssignments.size(); ui++)

	mov	DWORD PTR _ui$225487[ebp], 0
	jmp	SHORT $LN5@GetUnitTar
$LN4@GetUnitTar:
	mov	ecx, DWORD PTR _ui$225487[ebp]
	add	ecx, 1
	mov	DWORD PTR _ui$225487[ebp], ecx
$LN5@GetUnitTar:
	mov	edx, DWORD PTR _this$[ebp]
	mov	eax, DWORD PTR [edx+104]
	mov	DWORD PTR $T232706[ebp], eax
	mov	ecx, DWORD PTR _ui$225487[ebp]
	cmp	ecx, DWORD PTR $T232706[ebp]
	jae	$LN3@GetUnitTar

; 950  : 	{
; 951  : 		if(iUnitID == m_aiGoodyHutUnitAssignments[ui].m_iUnitID)

	mov	edx, DWORD PTR _this$[ebp]
	mov	eax, DWORD PTR [edx+100]
	mov	ecx, DWORD PTR _ui$225487[ebp]
	mov	edx, DWORD PTR _iUnitID$[ebp]
	cmp	edx, DWORD PTR [eax+ecx*8]
	jne	$LN2@GetUnitTar

; 952  : 		{
; 953  : 			if (ppkStepPlot)

	cmp	DWORD PTR _ppkStepPlot$[ebp], 0
	je	SHORT $LN1@GetUnitTar

; 954  : 			{
; 955  : 				int iStepPlotID = m_aiGoodyHutUnitAssignments[ui].m_iStepPlotID;

	mov	eax, DWORD PTR _this$[ebp]
	mov	ecx, DWORD PTR [eax+100]
	mov	edx, DWORD PTR _ui$225487[ebp]
	mov	eax, DWORD PTR [ecx+edx*8+4]
	mov	DWORD PTR _iStepPlotID$225493[ebp], eax

; 956  : 				*ppkStepPlot = (iStepPlotID != -1)?GC.getMap().plotByIndex(iStepPlotID):NULL;

	cmp	DWORD PTR _iStepPlotID$225493[ebp], -1
	je	SHORT $LN9@GetUnitTar
	mov	ecx, DWORD PTR ?gGlobals@@3VCvGlobals@@A+52
	mov	DWORD PTR $T232716[ebp], ecx
	cmp	DWORD PTR _iStepPlotID$225493[ebp], 0
	jl	SHORT $LN25@GetUnitTar
	mov	edx, DWORD PTR $T232716[ebp]
	mov	eax, DWORD PTR [edx+4028]
	mov	DWORD PTR $T232723[ebp], eax
	mov	ecx, DWORD PTR _iStepPlotID$225493[ebp]
	cmp	ecx, DWORD PTR $T232723[ebp]
	jge	SHORT $LN25@GetUnitTar
	mov	edx, DWORD PTR _iStepPlotID$225493[ebp]
	imul	edx, 484				; 000001e4H
	mov	eax, DWORD PTR $T232716[ebp]
	add	edx, DWORD PTR [eax+4068]
	mov	DWORD PTR tv157[ebp], edx
	jmp	SHORT $LN23@GetUnitTar
$LN25@GetUnitTar:
	mov	DWORD PTR tv157[ebp], 0
$LN23@GetUnitTar:
	mov	ecx, DWORD PTR tv157[ebp]
	mov	DWORD PTR tv135[ebp], ecx
	jmp	SHORT $LN10@GetUnitTar
$LN9@GetUnitTar:
	mov	DWORD PTR tv135[ebp], 0
$LN10@GetUnitTar:
	mov	edx, DWORD PTR _ppkStepPlot$[ebp]
	mov	eax, DWORD PTR tv135[ebp]
	mov	DWORD PTR [edx], eax
$LN1@GetUnitTar:

; 957  : 			}
; 958  : 			return GC.getMap().plotByIndex(m_aiGoodyHutPlots[ui]);

	mov	ecx, DWORD PTR _this$[ebp]
	mov	edx, DWORD PTR [ecx+88]
	mov	eax, DWORD PTR _ui$225487[ebp]
	lea	ecx, DWORD PTR [edx+eax*4]
	mov	DWORD PTR $T232733[ebp], ecx
	mov	edx, DWORD PTR ?gGlobals@@3VCvGlobals@@A+52
	mov	DWORD PTR $T232737[ebp], edx
	mov	eax, DWORD PTR $T232733[ebp]
	mov	ecx, DWORD PTR [eax]
	mov	DWORD PTR $T232751[ebp], ecx
	cmp	DWORD PTR $T232751[ebp], 0
	jl	SHORT $LN35@GetUnitTar
	mov	edx, DWORD PTR $T232737[ebp]
	mov	eax, DWORD PTR [edx+4028]
	mov	DWORD PTR $T232744[ebp], eax
	mov	ecx, DWORD PTR $T232751[ebp]
	cmp	ecx, DWORD PTR $T232744[ebp]
	jge	SHORT $LN35@GetUnitTar
	mov	edx, DWORD PTR $T232751[ebp]
	imul	edx, 484				; 000001e4H
	mov	eax, DWORD PTR $T232737[ebp]
	add	edx, DWORD PTR [eax+4068]
	mov	DWORD PTR tv163[ebp], edx
	jmp	SHORT $LN33@GetUnitTar
$LN35@GetUnitTar:
	mov	DWORD PTR tv163[ebp], 0
$LN33@GetUnitTar:
	mov	eax, DWORD PTR tv163[ebp]
