; Listing generated by Microsoft (R) Optimizing Compiler Version 15.00.30729.01 

	TITLE	D:\sources\Lekmod_git\checkout\LEKMOD_DLL\CvGameCoreDLL_Expansion2\CvEspionageClasses.cpp
	.686P
	.XMM
	include listing.inc
	.model	flat

INCLUDELIB MSVCRT
INCLUDELIB OLDNAMES

PUBLIC	??_C@_0CF@IGNANIEL@b103d2e0?93aab?940d7?9a2f3?9375d2eab@ ; `string'
PUBLIC	?NO_QUEST_DATA@CvMinorCivQuest@@2HB		; CvMinorCivQuest::NO_QUEST_DATA
PUBLIC	?NO_TURN@CvMinorCivQuest@@2HB			; CvMinorCivQuest::NO_TURN
PUBLIC	?g_eSortPlayer@@3W4PlayerTypes@@A		; g_eSortPlayer
CONST	SEGMENT
_CIV5_XP1_SCENARIO3_MODID DD FLAT:??_C@_0CF@IGNANIEL@b103d2e0?93aab?940d7?9a2f3?9375d2eab@
CONST	ENDS
;	COMDAT ??_C@_0CF@IGNANIEL@b103d2e0?93aab?940d7?9a2f3?9375d2eab@
CONST	SEGMENT
??_C@_0CF@IGNANIEL@b103d2e0?93aab?940d7?9a2f3?9375d2eab@ DB 'b103d2e0-3aa'
	DB	'b-40d7-a2f3-375d2eabfcaf', 00H		; `string'
CONST	ENDS
_DATA	SEGMENT
?g_eSortPlayer@@3W4PlayerTypes@@A DD 0ffffffffH		; g_eSortPlayer
_DATA	ENDS
;	COMDAT ?NO_TURN@CvMinorCivQuest@@2HB
CONST	SEGMENT
?NO_TURN@CvMinorCivQuest@@2HB DD 0ffffffffH		; CvMinorCivQuest::NO_TURN
CONST	ENDS
;	COMDAT ?NO_QUEST_DATA@CvMinorCivQuest@@2HB
CONST	SEGMENT
?NO_QUEST_DATA@CvMinorCivQuest@@2HB DD 0ffffffffH	; CvMinorCivQuest::NO_QUEST_DATA
CONST	ENDS
PUBLIC	??0CvEspionageSpy@@QAE@XZ			; CvEspionageSpy::CvEspionageSpy
; Function compile flags: /Odtp
; File d:\sources\lekmod_git\checkout\lekmod_dll\cvgamecoredll_expansion2\cvespionageclasses.cpp
;	COMDAT ??0CvEspionageSpy@@QAE@XZ
_TEXT	SEGMENT
_this$ = -4						; size = 4
??0CvEspionageSpy@@QAE@XZ PROC				; CvEspionageSpy::CvEspionageSpy, COMDAT
; _this$ = ecx

; 42   : {

	push	ebp
	mov	ebp, esp
	push	ecx
	mov	DWORD PTR _this$[ebp], ecx
	mov	eax, DWORD PTR _this$[ebp]
	mov	DWORD PTR [eax], -1
	mov	ecx, DWORD PTR _this$[ebp]
	mov	DWORD PTR [ecx+4], -1
	mov	edx, DWORD PTR _this$[ebp]
	mov	DWORD PTR [edx+8], -1
	mov	eax, DWORD PTR _this$[ebp]
	mov	DWORD PTR [eax+12], 3
	mov	ecx, DWORD PTR _this$[ebp]
	mov	DWORD PTR [ecx+16], 9
	mov	edx, DWORD PTR _this$[ebp]
	mov	DWORD PTR [edx+20], 0
	mov	eax, DWORD PTR _this$[ebp]
	mov	BYTE PTR [eax+24], 0
	mov	ecx, DWORD PTR _this$[ebp]
	mov	BYTE PTR [ecx+25], 1

; 43   : }

	mov	eax, DWORD PTR _this$[ebp]
	mov	esp, ebp
	pop	ebp
	ret	0
??0CvEspionageSpy@@QAE@XZ ENDP				; CvEspionageSpy::CvEspionageSpy
_TEXT	ENDS
PUBLIC	??5@YAAAVFDataStream@@AAV0@AAVCvEspionageSpy@@@Z ; operator>>
EXTRN	?Read@FDataStream@@IAEXAA_N@Z:PROC		; FDataStream::Read
EXTRN	?Read@FDataStream@@IAEXAAH@Z:PROC		; FDataStream::Read
EXTRN	?Read@FDataStream@@IAEXAAI@Z:PROC		; FDataStream::Read
; Function compile flags: /Odtp
;	COMDAT ??5@YAAAVFDataStream@@AAV0@AAVCvEspionageSpy@@@Z
_TEXT	SEGMENT
_uiVersion$ = -12					; size = 4
_iSpyState$ = -8					; size = 4
_iSpyRank$ = -4						; size = 4
_loadFrom$ = 8						; size = 4
_writeTo$ = 12						; size = 4
??5@YAAAVFDataStream@@AAV0@AAVCvEspionageSpy@@@Z PROC	; operator>>, COMDAT

; 47   : {

	push	ebp
	mov	ebp, esp
	sub	esp, 12					; 0000000cH

; 48   : 	uint uiVersion;
; 49   : 	loadFrom >> uiVersion;

	lea	eax, DWORD PTR _uiVersion$[ebp]
	push	eax
	mov	ecx, DWORD PTR _loadFrom$[ebp]
	call	?Read@FDataStream@@IAEXAAI@Z		; FDataStream::Read

; 50   : 
; 51   : 	loadFrom >> writeTo.m_iName;

	mov	ecx, DWORD PTR _writeTo$[ebp]
	push	ecx
	mov	ecx, DWORD PTR _loadFrom$[ebp]
	call	?Read@FDataStream@@IAEXAAH@Z		; FDataStream::Read

; 52   : 	int iSpyRank;
; 53   : 	loadFrom >> iSpyRank;

	lea	edx, DWORD PTR _iSpyRank$[ebp]
	push	edx
	mov	ecx, DWORD PTR _loadFrom$[ebp]
	call	?Read@FDataStream@@IAEXAAH@Z		; FDataStream::Read

; 54   : 	writeTo.m_eRank = (CvSpyRank)iSpyRank;

	mov	eax, DWORD PTR _writeTo$[ebp]
	mov	ecx, DWORD PTR _iSpyRank$[ebp]
	mov	DWORD PTR [eax+12], ecx

; 55   : 	loadFrom >> writeTo.m_iCityX;

	mov	edx, DWORD PTR _writeTo$[ebp]
	add	edx, 4
	push	edx
	mov	ecx, DWORD PTR _loadFrom$[ebp]
	call	?Read@FDataStream@@IAEXAAH@Z		; FDataStream::Read

; 56   : 	loadFrom >> writeTo.m_iCityY;

	mov	eax, DWORD PTR _writeTo$[ebp]
	add	eax, 8
	push	eax
	mov	ecx, DWORD PTR _loadFrom$[ebp]
	call	?Read@FDataStream@@IAEXAAH@Z		; FDataStream::Read

; 57   : 
; 58   : 	int iSpyState;
; 59   : 	loadFrom >> iSpyState;

	lea	ecx, DWORD PTR _iSpyState$[ebp]
	push	ecx
	mov	ecx, DWORD PTR _loadFrom$[ebp]
	call	?Read@FDataStream@@IAEXAAH@Z		; FDataStream::Read

; 60   : 	writeTo.m_eSpyState = (CvSpyState)iSpyState;

	mov	edx, DWORD PTR _writeTo$[ebp]
	mov	eax, DWORD PTR _iSpyState$[ebp]
	mov	DWORD PTR [edx+16], eax

; 61   : 
; 62   : 	loadFrom >> writeTo.m_iReviveCounter;

	mov	ecx, DWORD PTR _writeTo$[ebp]
	add	ecx, 20					; 00000014H
	push	ecx
	mov	ecx, DWORD PTR _loadFrom$[ebp]
	call	?Read@FDataStream@@IAEXAAH@Z		; FDataStream::Read

; 63   : 	if (uiVersion >= 1)

	cmp	DWORD PTR _uiVersion$[ebp], 1
	jb	SHORT $LN2@operator

; 64   : 	{
; 65   : 		loadFrom >> writeTo.m_bIsDiplomat;

	mov	edx, DWORD PTR _writeTo$[ebp]
	add	edx, 24					; 00000018H
	push	edx
	mov	ecx, DWORD PTR _loadFrom$[ebp]
	call	?Read@FDataStream@@IAEXAA_N@Z		; FDataStream::Read

; 66   : 	}
; 67   : 	else

	jmp	SHORT $LN1@operator
$LN2@operator:

; 68   : 	{
; 69   : 		writeTo.m_bIsDiplomat = false;

	mov	eax, DWORD PTR _writeTo$[ebp]
	mov	BYTE PTR [eax+24], 0
$LN1@operator:

; 70   : 	}
; 71   : 	
; 72   : 	loadFrom >> writeTo.m_bEvaluateReassignment;

	mov	ecx, DWORD PTR _writeTo$[ebp]
	add	ecx, 25					; 00000019H
	push	ecx
	mov	ecx, DWORD PTR _loadFrom$[ebp]
	call	?Read@FDataStream@@IAEXAA_N@Z		; FDataStream::Read

; 73   : 	writeTo.m_bEvaluateReassignment = true;

	mov	edx, DWORD PTR _writeTo$[ebp]
	mov	BYTE PTR [edx+25], 1

; 74   : 
; 75   : 	return loadFrom;

	mov	eax, DWORD PTR _loadFrom$[ebp]

; 76   : }

	mov	esp, ebp
	pop	ebp
	ret	0
??5@YAAAVFDataStream@@AAV0@AAVCvEspionageSpy@@@Z ENDP	; operator>>
_TEXT	ENDS
PUBLIC	??6@YAAAVFDataStream@@AAV0@ABVCvEspionageSpy@@@Z ; operator<<
EXTRN	?Write@FDataStream@@IAEXAB_N@Z:PROC		; FDataStream::Write
EXTRN	?Write@FDataStream@@IAEXABH@Z:PROC		; FDataStream::Write
EXTRN	?Write@FDataStream@@IAEXABI@Z:PROC		; FDataStream::Write
; Function compile flags: /Odtp
;	COMDAT ??6@YAAAVFDataStream@@AAV0@ABVCvEspionageSpy@@@Z
_TEXT	SEGMENT
$T232536 = -12						; size = 4
$T232535 = -8						; size = 4
_uiVersion$ = -4					; size = 4
_saveTo$ = 8						; size = 4
_readFrom$ = 12						; size = 4
??6@YAAAVFDataStream@@AAV0@ABVCvEspionageSpy@@@Z PROC	; operator<<, COMDAT

; 80   : {

	push	ebp
	mov	ebp, esp
	sub	esp, 12					; 0000000cH

; 81   : 	uint uiVersion = 1;

	mov	DWORD PTR _uiVersion$[ebp], 1

; 82   : 	saveTo << uiVersion;

	lea	eax, DWORD PTR _uiVersion$[ebp]
	push	eax
	mov	ecx, DWORD PTR _saveTo$[ebp]
	call	?Write@FDataStream@@IAEXABI@Z		; FDataStream::Write

; 83   : 
; 84   : 	saveTo << readFrom.m_iName;

	mov	ecx, DWORD PTR _readFrom$[ebp]
	push	ecx
	mov	ecx, DWORD PTR _saveTo$[ebp]
	call	?Write@FDataStream@@IAEXABH@Z		; FDataStream::Write

; 85   : 	saveTo << (int)readFrom.m_eRank;

	mov	edx, DWORD PTR _readFrom$[ebp]
	mov	eax, DWORD PTR [edx+12]
	mov	DWORD PTR $T232535[ebp], eax
	lea	ecx, DWORD PTR $T232535[ebp]
	push	ecx
	mov	ecx, DWORD PTR _saveTo$[ebp]
	call	?Write@FDataStream@@IAEXABH@Z		; FDataStream::Write

; 86   : 	saveTo << readFrom.m_iCityX;

	mov	edx, DWORD PTR _readFrom$[ebp]
	add	edx, 4
	push	edx
	mov	ecx, DWORD PTR _saveTo$[ebp]
	call	?Write@FDataStream@@IAEXABH@Z		; FDataStream::Write

; 87   : 	saveTo << readFrom.m_iCityY;

	mov	eax, DWORD PTR _readFrom$[ebp]
	add	eax, 8
	push	eax
	mov	ecx, DWORD PTR _saveTo$[ebp]
	call	?Write@FDataStream@@IAEXABH@Z		; FDataStream::Write

; 88   : 	saveTo << (int)readFrom.m_eSpyState;

	mov	ecx, DWORD PTR _readFrom$[ebp]
	mov	edx, DWORD PTR [ecx+16]
	mov	DWORD PTR $T232536[ebp], edx
	lea	eax, DWORD PTR $T232536[ebp]
	push	eax
	mov	ecx, DWORD PTR _saveTo$[ebp]
	call	?Write@FDataStream@@IAEXABH@Z		; FDataStream::Write

; 89   : 	saveTo << readFrom.m_iReviveCounter;

	mov	ecx, DWORD PTR _readFrom$[ebp]
	add	ecx, 20					; 00000014H
	push	ecx
	mov	ecx, DWORD PTR _saveTo$[ebp]
	call	?Write@FDataStream@@IAEXABH@Z		; FDataStream::Write

; 90   : 	saveTo << readFrom.m_bIsDiplomat;

	mov	edx, DWORD PTR _readFrom$[ebp]
	add	edx, 24					; 00000018H
	push	edx
	mov	ecx, DWORD PTR _saveTo$[ebp]
	call	?Write@FDataStream@@IAEXAB_N@Z		; FDataStream::Write

; 91   : 	saveTo << readFrom.m_bEvaluateReassignment;

	mov	eax, DWORD PTR _readFrom$[ebp]
	add	eax, 25					; 00000019H
	push	eax
	mov	ecx, DWORD PTR _saveTo$[ebp]
	call	?Write@FDataStream@@IAEXAB_N@Z		; FDataStream::Write

; 92   : 
; 93   : 	return saveTo;

	mov	eax, DWORD PTR _saveTo$[ebp]

; 94   : }

	mov	esp, ebp
	pop	ebp
	ret	0
??6@YAAAVFDataStream@@AAV0@ABVCvEspionageSpy@@@Z ENDP	; operator<<
_TEXT	ENDS
PUBLIC	?IsDisableTechSteal@CvTechEntry@@QBE_NXZ	; CvTechEntry::IsDisableTechSteal
; Function compile flags: /Odtp
;	COMDAT ?IsDisableTechSteal@CvTechEntry@@QBE_NXZ
_TEXT	SEGMENT
_this$ = -4						; size = 4
?IsDisableTechSteal@CvTechEntry@@QBE_NXZ PROC		; CvTechEntry::IsDisableTechSteal, COMDAT
; _this$ = ecx

; 99   : {

	push	ebp
	mov	ebp, esp
	push	ecx
	mov	DWORD PTR _this$[ebp], ecx

; 100  : 	return m_bDisableTechSteal;

	mov	eax, DWORD PTR _this$[ebp]
	mov	al, BYTE PTR [eax+341]

; 101  : }

	mov	esp, ebp
	pop	ebp
	ret	0
?IsDisableTechSteal@CvTechEntry@@QBE_NXZ ENDP		; CvTechEntry::IsDisableTechSteal
_TEXT	ENDS
PUBLIC	??1?$vector@UIntrigueNotificationMessage@@V?$allocator@UIntrigueNotificationMessage@@@std@@@std@@QAE@XZ ; std::vector<IntrigueNotificationMessage,std::allocator<IntrigueNotificationMessage> >::~vector<IntrigueNotificationMessage,std::allocator<IntrigueNotificationMessage> >
PUBLIC	??1?$_Vector_val@UIntrigueNotificationMessage@@V?$allocator@UIntrigueNotificationMessage@@@std@@@std@@QAE@XZ ; std::_Vector_val<IntrigueNotificationMessage,std::allocator<IntrigueNotificationMessage> >::~_Vector_val<IntrigueNotificationMessage,std::allocator<IntrigueNotificationMessage> >
PUBLIC	??1?$vector@USpyNotificationMessage@@V?$allocator@USpyNotificationMessage@@@std@@@std@@QAE@XZ ; std::vector<SpyNotificationMessage,std::allocator<SpyNotificationMessage> >::~vector<SpyNotificationMessage,std::allocator<SpyNotificationMessage> >
PUBLIC	??1?$_Vector_val@USpyNotificationMessage@@V?$allocator@USpyNotificationMessage@@@std@@@std@@QAE@XZ ; std::_Vector_val<SpyNotificationMessage,std::allocator<SpyNotificationMessage> >::~_Vector_val<SpyNotificationMessage,std::allocator<SpyNotificationMessage> >
PUBLIC	??1?$Array@V?$vector@UHeistLocation@@V?$allocator@UHeistLocation@@@std@@@std@@$0BG@@Firaxis@@QAE@XZ ; Firaxis::Array<std::vector<HeistLocation,std::allocator<HeistLocation> >,22>::~Array<std::vector<HeistLocation,std::allocator<HeistLocation> >,22>
PUBLIC	??1?$FStaticVector@H$0BG@$0A@$0BCJ@$0A@@@QAE@XZ	; FStaticVector<int,22,0,297,0>::~FStaticVector<int,22,0,297,0>
PUBLIC	??1?$FStaticVector@V?$FStaticVector@W4TechTypes@@$00$0A@$0BCJ@$0A@@@$0BG@$0A@$0BCJ@$0A@@@QAE@XZ ; FStaticVector<FStaticVector<enum TechTypes,1,0,297,0>,22,0,297,0>::~FStaticVector<FStaticVector<enum TechTypes,1,0,297,0>,22,0,297,0>
PUBLIC	??1?$vector@HV?$allocator@H@std@@@std@@QAE@XZ	; std::vector<int,std::allocator<int> >::~vector<int,std::allocator<int> >
PUBLIC	??1?$_Vector_val@HV?$allocator@H@std@@@std@@QAE@XZ ; std::_Vector_val<int,std::allocator<int> >::~_Vector_val<int,std::allocator<int> >
PUBLIC	??1?$FStaticVector@VCvEspionageSpy@@$07$0A@$0BCJ@$0A@@@QAE@XZ ; FStaticVector<CvEspionageSpy,8,0,297,0>::~FStaticVector<CvEspionageSpy,8,0,297,0>
PUBLIC	?Reset@CvPlayerEspionage@@QAEXXZ		; CvPlayerEspionage::Reset
PUBLIC	?_Buy@?$vector@UIntrigueNotificationMessage@@V?$allocator@UIntrigueNotificationMessage@@@std@@@std@@IAE_NI@Z ; std::vector<IntrigueNotificationMessage,std::allocator<IntrigueNotificationMessage> >::_Buy
PUBLIC	?_Buy@?$vector@USpyNotificationMessage@@V?$allocator@USpyNotificationMessage@@@std@@@std@@IAE_NI@Z ; std::vector<SpyNotificationMessage,std::allocator<SpyNotificationMessage> >::_Buy
PUBLIC	??0?$vector@UHeistLocation@@V?$allocator@UHeistLocation@@@std@@@std@@QAE@XZ ; std::vector<HeistLocation,std::allocator<HeistLocation> >::vector<HeistLocation,std::allocator<HeistLocation> >
PUBLIC	??1?$vector@UHeistLocation@@V?$allocator@UHeistLocation@@@std@@@std@@QAE@XZ ; std::vector<HeistLocation,std::allocator<HeistLocation> >::~vector<HeistLocation,std::allocator<HeistLocation> >
PUBLIC	??0?$FStaticVector@H$0BG@$0A@$0BCJ@$0A@@@QAE@XZ	; FStaticVector<int,22,0,297,0>::FStaticVector<int,22,0,297,0>
PUBLIC	??0?$FStaticVector@V?$FStaticVector@W4TechTypes@@$00$0A@$0BCJ@$0A@@@$0BG@$0A@$0BCJ@$0A@@@QAE@XZ ; FStaticVector<FStaticVector<enum TechTypes,1,0,297,0>,22,0,297,0>::FStaticVector<FStaticVector<enum TechTypes,1,0,297,0>,22,0,297,0>
PUBLIC	?_Buy@?$vector@HV?$allocator@H@std@@@std@@IAE_NI@Z ; std::vector<int,std::allocator<int> >::_Buy
PUBLIC	??0?$FStaticVector@VCvEspionageSpy@@$07$0A@$0BCJ@$0A@@@QAE@XZ ; FStaticVector<CvEspionageSpy,8,0,297,0>::FStaticVector<CvEspionageSpy,8,0,297,0>
PUBLIC	??0CvPlayerEspionage@@QAE@XZ			; CvPlayerEspionage::CvPlayerEspionage
EXTRN	??_L@YGXPAXIHP6EX0@Z1@Z:PROC			; `eh vector constructor iterator'
EXTRN	___security_cookie:DWORD
EXTRN	___CxxFrameHandler3:PROC
EXTRN	@__security_check_cookie@4:PROC
;	COMDAT xdata$x
; File c:\program files (x86)\microsoft visual studio 9.0\vc\include\xmemory
xdata$x	SEGMENT
__ehfuncinfo$??0CvPlayerEspionage@@QAE@XZ DD 019930522H
	DD	0aH
	DD	FLAT:__unwindtable$??0CvPlayerEspionage@@QAE@XZ
	DD	2 DUP(00H)
	DD	2 DUP(00H)
	DD	00H
	DD	01H
__unwindtable$??0CvPlayerEspionage@@QAE@XZ DD 0ffffffffH
	DD	FLAT:__unwindfunclet$??0CvPlayerEspionage@@QAE@XZ$0
	DD	00H
	DD	FLAT:__unwindfunclet$??0CvPlayerEspionage@@QAE@XZ$8
	DD	00H
	DD	FLAT:__unwindfunclet$??0CvPlayerEspionage@@QAE@XZ$1
	DD	02H
	DD	FLAT:__unwindfunclet$??0CvPlayerEspionage@@QAE@XZ$2
	DD	03H
	DD	FLAT:__unwindfunclet$??0CvPlayerEspionage@@QAE@XZ$3
	DD	04H
	DD	FLAT:__unwindfunclet$??0CvPlayerEspionage@@QAE@XZ$4
	DD	05H
	DD	FLAT:__unwindfunclet$??0CvPlayerEspionage@@QAE@XZ$13
	DD	05H
	DD	FLAT:__unwindfunclet$??0CvPlayerEspionage@@QAE@XZ$5
	DD	07H
	DD	FLAT:__unwindfunclet$??0CvPlayerEspionage@@QAE@XZ$15
	DD	07H
	DD	FLAT:__unwindfunclet$??0CvPlayerEspionage@@QAE@XZ$6
; Function compile flags: /Odtp
; File d:\sources\lekmod_git\checkout\lekmod_dll\cvgamecoredll_expansion2\cvespionageclasses.cpp
xdata$x	ENDS
;	COMDAT ??0CvPlayerEspionage@@QAE@XZ
_TEXT	SEGMENT
tv376 = -144						; size = 4
tv401 = -140						; size = 4
tv322 = -136						; size = 4
tv347 = -132						; size = 4
tv203 = -128						; size = 4
tv228 = -124						; size = 4
_this$ = -120						; size = 4
$T232773 = -116						; size = 4
$T232758 = -110						; size = 1
$T232745 = -109						; size = 1
$T232741 = -108						; size = 4
$T232734 = -100						; size = 4
$T232727 = -92						; size = 4
$T232692 = -82						; size = 1
$T232679 = -81						; size = 1
$T232675 = -80						; size = 4
$T232668 = -72						; size = 4
$T232661 = -64						; size = 4
$T232632 = -44						; size = 4
$T232617 = -38						; size = 1
$T232604 = -37						; size = 1
$T232600 = -36						; size = 4
$T232593 = -28						; size = 4
__$EHRec$ = -12						; size = 12
??0CvPlayerEspionage@@QAE@XZ PROC			; CvPlayerEspionage::CvPlayerEspionage, COMDAT
; _this$ = ecx

; 111  : {

	push	ebp
	mov	ebp, esp
	push	-1
	push	__ehhandler$??0CvPlayerEspionage@@QAE@XZ
	mov	eax, DWORD PTR fs:0
	push	eax
	sub	esp, 132				; 00000084H
	mov	eax, DWORD PTR ___security_cookie
	xor	eax, ebp
	push	eax
	lea	eax, DWORD PTR __$EHRec$[ebp]
	mov	DWORD PTR fs:0, eax
	mov	DWORD PTR _this$[ebp], ecx
	mov	ecx, DWORD PTR _this$[ebp]
	add	ecx, 4
	call	??0?$FStaticVector@VCvEspionageSpy@@$07$0A@$0BCJ@$0A@@@QAE@XZ ; FStaticVector<CvEspionageSpy,8,0,297,0>::FStaticVector<CvEspionageSpy,8,0,297,0>
	mov	DWORD PTR __$EHRec$[ebp+8], 0
	mov	eax, DWORD PTR _this$[ebp]
	add	eax, 244				; 000000f4H
	mov	DWORD PTR $T232632[ebp], eax
	lea	ecx, DWORD PTR $T232617[ebp]
	mov	DWORD PTR $T232593[ebp], ecx
	lea	edx, DWORD PTR $T232604[ebp]
	mov	DWORD PTR $T232600[ebp], edx
	mov	eax, DWORD PTR $T232632[ebp]
	mov	DWORD PTR tv228[ebp], eax
	mov	ecx, DWORD PTR $T232632[ebp]
	mov	DWORD PTR tv203[ebp], ecx
	mov	BYTE PTR __$EHRec$[ebp+8], 1
	push	0
	mov	ecx, DWORD PTR $T232632[ebp]
	call	?_Buy@?$vector@HV?$allocator@H@std@@@std@@IAE_NI@Z ; std::vector<int,std::allocator<int> >::_Buy
	mov	BYTE PTR __$EHRec$[ebp+8], 2
	mov	ecx, DWORD PTR _this$[ebp]
	add	ecx, 264				; 00000108H
	call	??0?$FStaticVector@V?$FStaticVector@W4TechTypes@@$00$0A@$0BCJ@$0A@@@$0BG@$0A@$0BCJ@$0A@@@QAE@XZ ; FStaticVector<FStaticVector<enum TechTypes,1,0,297,0>,22,0,297,0>::FStaticVector<FStaticVector<enum TechTypes,1,0,297,0>,22,0,297,0>
	mov	BYTE PTR __$EHRec$[ebp+8], 3
	mov	ecx, DWORD PTR _this$[ebp]
	add	ecx, 720				; 000002d0H
	call	??0?$FStaticVector@H$0BG@$0A@$0BCJ@$0A@@@QAE@XZ ; FStaticVector<int,22,0,297,0>::FStaticVector<int,22,0,297,0>
	mov	BYTE PTR __$EHRec$[ebp+8], 4
	mov	edx, DWORD PTR _this$[ebp]
	add	edx, 912				; 00000390H
	mov	DWORD PTR $T232661[ebp], edx
	push	OFFSET ??1?$vector@UHeistLocation@@V?$allocator@UHeistLocation@@@std@@@std@@QAE@XZ ; std::vector<HeistLocation,std::allocator<HeistLocation> >::~vector<HeistLocation,std::allocator<HeistLocation> >
	push	OFFSET ??0?$vector@UHeistLocation@@V?$allocator@UHeistLocation@@@std@@@std@@QAE@XZ ; std::vector<HeistLocation,std::allocator<HeistLocation> >::vector<HeistLocation,std::allocator<HeistLocation> >
	push	22					; 00000016H
	push	16					; 00000010H
	mov	eax, DWORD PTR $T232661[ebp]
	push	eax
	call	??_L@YGXPAXIHP6EX0@Z1@Z
	mov	BYTE PTR __$EHRec$[ebp+8], 5
	mov	ecx, DWORD PTR _this$[ebp]
	add	ecx, 1264				; 000004f0H
	mov	DWORD PTR $T232727[ebp], ecx
	lea	edx, DWORD PTR $T232692[ebp]
	mov	DWORD PTR $T232668[ebp], edx
	lea	eax, DWORD PTR $T232679[ebp]
	mov	DWORD PTR $T232675[ebp], eax
	mov	ecx, DWORD PTR $T232727[ebp]
	mov	DWORD PTR tv347[ebp], ecx
	mov	edx, DWORD PTR $T232727[ebp]
	mov	DWORD PTR tv322[ebp], edx
	mov	BYTE PTR __$EHRec$[ebp+8], 6
	push	0
	mov	ecx, DWORD PTR $T232727[ebp]
	call	?_Buy@?$vector@USpyNotificationMessage@@V?$allocator@USpyNotificationMessage@@@std@@@std@@IAE_NI@Z ; std::vector<SpyNotificationMessage,std::allocator<SpyNotificationMessage> >::_Buy
	mov	BYTE PTR __$EHRec$[ebp+8], 7
	mov	eax, DWORD PTR _this$[ebp]
	add	eax, 1280				; 00000500H
	mov	DWORD PTR $T232773[ebp], eax
	lea	ecx, DWORD PTR $T232758[ebp]
	mov	DWORD PTR $T232734[ebp], ecx
	lea	edx, DWORD PTR $T232745[ebp]
	mov	DWORD PTR $T232741[ebp], edx
	mov	eax, DWORD PTR $T232773[ebp]
	mov	DWORD PTR tv401[ebp], eax
	mov	ecx, DWORD PTR $T232773[ebp]
	mov	DWORD PTR tv376[ebp], ecx
	mov	BYTE PTR __$EHRec$[ebp+8], 8
	push	0
	mov	ecx, DWORD PTR $T232773[ebp]
	call	?_Buy@?$vector@UIntrigueNotificationMessage@@V?$allocator@UIntrigueNotificationMessage@@@std@@@std@@IAE_NI@Z ; std::vector<IntrigueNotificationMessage,std::allocator<IntrigueNotificationMessage> >::_Buy
	mov	BYTE PTR __$EHRec$[ebp+8], 9

; 112  : 	Reset();

	mov	ecx, DWORD PTR _this$[ebp]
	call	?Reset@CvPlayerEspionage@@QAEXXZ	; CvPlayerEspionage::Reset

; 113  : }

	mov	DWORD PTR __$EHRec$[ebp+8], -1
	mov	eax, DWORD PTR _this$[ebp]
	mov	ecx, DWORD PTR __$EHRec$[ebp]
	mov	DWORD PTR fs:0, ecx
	pop	ecx
	mov	esp, ebp
	pop	ebp
	ret	0
_TEXT	ENDS
;	COMDAT text$x
text$x	SEGMENT
__unwindfunclet$??0CvPlayerEspionage@@QAE@XZ$0:
	mov	ecx, DWORD PTR _this$[ebp]
	add	ecx, 4
	jmp	??1?$FStaticVector@VCvEspionageSpy@@$07$0A@$0BCJ@$0A@@@QAE@XZ ; FStaticVector<CvEspionageSpy,8,0,297,0>::~FStaticVector<CvEspionageSpy,8,0,297,0>
__unwindfunclet$??0CvPlayerEspionage@@QAE@XZ$8:
	mov	ecx, DWORD PTR $T232632[ebp]
	jmp	??1?$_Vector_val@HV?$allocator@H@std@@@std@@QAE@XZ
__unwindfunclet$??0CvPlayerEspionage@@QAE@XZ$1:
	mov	ecx, DWORD PTR _this$[ebp]
	add	ecx, 244				; 000000f4H
	jmp	??1?$vector@HV?$allocator@H@std@@@std@@QAE@XZ ; std::vector<int,std::allocator<int> >::~vector<int,std::allocator<int> >
__unwindfunclet$??0CvPlayerEspionage@@QAE@XZ$2:
	mov	ecx, DWORD PTR _this$[ebp]
	add	ecx, 264				; 00000108H
	jmp	??1?$FStaticVector@V?$FStaticVector@W4TechTypes@@$00$0A@$0BCJ@$0A@@@$0BG@$0A@$0BCJ@$0A@@@QAE@XZ ; FStaticVector<FStaticVector<enum TechTypes,1,0,297,0>,22,0,297,0>::~FStaticVector<FStaticVector<enum TechTypes,1,0,297,0>,22,0,297,0>
__unwindfunclet$??0CvPlayerEspionage@@QAE@XZ$3:
	mov	ecx, DWORD PTR _this$[ebp]
	add	ecx, 720				; 000002d0H
	jmp	??1?$FStaticVector@H$0BG@$0A@$0BCJ@$0A@@@QAE@XZ ; FStaticVector<int,22,0,297,0>::~FStaticVector<int,22,0,297,0>
__unwindfunclet$??0CvPlayerEspionage@@QAE@XZ$4:
	mov	ecx, DWORD PTR _this$[ebp]
	add	ecx, 912				; 00000390H
	jmp	??1?$Array@V?$vector@UHeistLocation@@V?$allocator@UHeistLocation@@@std@@@std@@$0BG@@Firaxis@@QAE@XZ
__unwindfunclet$??0CvPlayerEspionage@@QAE@XZ$13:
	mov	ecx, DWORD PTR $T232727[ebp]
	jmp	??1?$_Vector_val@USpyNotificationMessage@@V?$allocator@USpyNotificationMessage@@@std@@@std@@QAE@XZ
__unwindfunclet$??0CvPlayerEspionage@@QAE@XZ$5:
	mov	ecx, DWORD PTR _this$[ebp]
	add	ecx, 1264				; 000004f0H
	jmp	??1?$vector@USpyNotificationMessage@@V?$allocator@USpyNotificationMessage@@@std@@@std@@QAE@XZ ; std::vector<SpyNotificationMessage,std::allocator<SpyNotificationMessage> >::~vector<SpyNotificationMessage,std::allocator<SpyNotificationMessage> >
__unwindfunclet$??0CvPlayerEspionage@@QAE@XZ$15:
	mov	ecx, DWORD PTR $T232773[ebp]
	jmp	??1?$_Vector_val@UIntrigueNotificationMessage@@V?$allocator@UIntrigueNotificationMessage@@@std@@@std@@QAE@XZ
__unwindfunclet$??0CvPlayerEspionage@@QAE@XZ$6:
	mov	ecx, DWORD PTR _this$[ebp]
	add	ecx, 1280				; 00000500H
	jmp	??1?$vector@UIntrigueNotificationMessage@@V?$allocator@UIntrigueNotificationMessage@@@std@@@std@@QAE@XZ ; std::vector<IntrigueNotificationMessage,std::allocator<IntrigueNotificationMessage> >::~vector<IntrigueNotificationMessage,std::allocator<IntrigueNotificationMessage> >
__ehhandler$??0CvPlayerEspionage@@QAE@XZ:
	mov	edx, DWORD PTR [esp+8]
	lea	eax, DWORD PTR [edx+12]
	mov	ecx, DWORD PTR [edx-136]
	xor	ecx, eax
	call	@__security_check_cookie@4
	mov	eax, OFFSET __ehfuncinfo$??0CvPlayerEspionage@@QAE@XZ
	jmp	___CxxFrameHandler3
text$x	ENDS
??0CvPlayerEspionage@@QAE@XZ ENDP			; CvPlayerEspionage::CvPlayerEspionage
EXTRN	??_M@YGXPAXIHP6EX0@Z@Z:PROC			; `eh vector destructor iterator'
; Function compile flags: /Odtp
;	COMDAT ??1?$Array@V?$vector@UHeistLocation@@V?$allocator@UHeistLocation@@@std@@@std@@$0BG@@Firaxis@@QAE@XZ
_TEXT	SEGMENT
_this$ = -4						; size = 4
??1?$Array@V?$vector@UHeistLocation@@V?$allocator@UHeistLocation@@@std@@@std@@$0BG@@Firaxis@@QAE@XZ PROC ; Firaxis::Array<std::vector<HeistLocation,std::allocator<HeistLocation> >,22>::~Array<std::vector<HeistLocation,std::allocator<HeistLocation> >,22>, COMDAT
; _this$ = ecx
	push	ebp
	mov	ebp, esp
	push	ecx
	mov	DWORD PTR _this$[ebp], ecx
	push	OFFSET ??1?$vector@UHeistLocation@@V?$allocator@UHeistLocation@@@std@@@std@@QAE@XZ ; std::vector<HeistLocation,std::allocator<HeistLocation> >::~vector<HeistLocation,std::allocator<HeistLocation> >
	push	22					; 00000016H
	push	16					; 00000010H
	mov	eax, DWORD PTR _this$[ebp]
	push	eax
	call	??_M@YGXPAXIHP6EX0@Z@Z
	mov	esp, ebp
	pop	ebp
	ret	0
??1?$Array@V?$vector@UHeistLocation@@V?$allocator@UHeistLocation@@@std@@@std@@$0BG@@Firaxis@@QAE@XZ ENDP ; Firaxis::Array<std::vector<HeistLocation,std::allocator<HeistLocation> >,22>::~Array<std::vector<HeistLocation,std::allocator<HeistLocation> >,22>
_TEXT	ENDS
PUBLIC	??1?$BaseVector@V?$FStaticVector@W4TechTypes@@$00$0A@$0BCJ@$0A@@@$0A@@@QAE@XZ ; BaseVector<FStaticVector<enum TechTypes,1,0,297,0>,0>::~BaseVector<FStaticVector<enum TechTypes,1,0,297,0>,0>
PUBLIC	?_Tidy@?$vector@HV?$allocator@H@std@@@std@@IAEXXZ ; std::vector<int,std::allocator<int> >::_Tidy
PUBLIC	?Free@?$FStaticVector@V?$FStaticVector@W4TechTypes@@$00$0A@$0BCJ@$0A@@@$0BG@$0A@$0BCJ@$0A@@@IAEXPAV?$FStaticVector@W4TechTypes@@$00$0A@$0BCJ@$0A@@@I@Z ; FStaticVector<FStaticVector<enum TechTypes,1,0,297,0>,22,0,297,0>::Free
PUBLIC	?_Tidy@?$vector@USpyNotificationMessage@@V?$allocator@USpyNotificationMessage@@@std@@@std@@IAEXXZ ; std::vector<SpyNotificationMessage,std::allocator<SpyNotificationMessage> >::_Tidy
PUBLIC	?_Tidy@?$vector@UIntrigueNotificationMessage@@V?$allocator@UIntrigueNotificationMessage@@@std@@@std@@IAEXXZ ; std::vector<IntrigueNotificationMessage,std::allocator<IntrigueNotificationMessage> >::_Tidy
PUBLIC	??1CvPlayerEspionage@@QAE@XZ			; CvPlayerEspionage::~CvPlayerEspionage
;	COMDAT xdata$x
; File d:\sources\lekmod_git\checkout\lekmod_dll\fireplace\include\fireworks\ffastvector.h
xdata$x	SEGMENT
__ehfuncinfo$??1CvPlayerEspionage@@QAE@XZ DD 019930522H
	DD	0bH
	DD	FLAT:__unwindtable$??1CvPlayerEspionage@@QAE@XZ
	DD	2 DUP(00H)
	DD	2 DUP(00H)
	DD	00H
	DD	01H
__unwindtable$??1CvPlayerEspionage@@QAE@XZ DD 0ffffffffH
	DD	FLAT:__unwindfunclet$??1CvPlayerEspionage@@QAE@XZ$0
	DD	00H
	DD	FLAT:__unwindfunclet$??1CvPlayerEspionage@@QAE@XZ$1
	DD	01H
	DD	FLAT:__unwindfunclet$??1CvPlayerEspionage@@QAE@XZ$2
	DD	02H
	DD	FLAT:__unwindfunclet$??1CvPlayerEspionage@@QAE@XZ$3
	DD	03H
	DD	FLAT:__unwindfunclet$??1CvPlayerEspionage@@QAE@XZ$4
	DD	04H
	DD	FLAT:__unwindfunclet$??1CvPlayerEspionage@@QAE@XZ$5
	DD	05H
	DD	FLAT:__unwindfunclet$??1CvPlayerEspionage@@QAE@XZ$6
	DD	05H
	DD	FLAT:__unwindfunclet$??1CvPlayerEspionage@@QAE@XZ$7
	DD	04H
	DD	FLAT:__unwindfunclet$??1CvPlayerEspionage@@QAE@XZ$11
	DD	01H
	DD	FLAT:__unwindfunclet$??1CvPlayerEspionage@@QAE@XZ$15
	DD	00H
	DD	FLAT:__unwindfunclet$??1CvPlayerEspionage@@QAE@XZ$16
; Function compile flags: /Odtp
; File d:\sources\lekmod_git\checkout\lekmod_dll\cvgamecoredll_expansion2\cvespionageclasses.cpp
xdata$x	ENDS
;	COMDAT ??1CvPlayerEspionage@@QAE@XZ
_TEXT	SEGMENT
_this$ = -168						; size = 4
$T233138 = -152						; size = 4
$T233082 = -120						; size = 4
$T233028 = -96						; size = 4
$T233023 = -92						; size = 4
$T232937 = -56						; size = 4
__$EHRec$ = -12						; size = 12
??1CvPlayerEspionage@@QAE@XZ PROC			; CvPlayerEspionage::~CvPlayerEspionage, COMDAT
; _this$ = ecx

; 117  : {

	push	ebp
	mov	ebp, esp
	push	-1
	push	__ehhandler$??1CvPlayerEspionage@@QAE@XZ
	mov	eax, DWORD PTR fs:0
	push	eax
	sub	esp, 156				; 0000009cH
	mov	eax, DWORD PTR ___security_cookie
	xor	eax, ebp
	push	eax
	lea	eax, DWORD PTR __$EHRec$[ebp]
	mov	DWORD PTR fs:0, eax
	mov	DWORD PTR _this$[ebp], ecx
	mov	DWORD PTR __$EHRec$[ebp+8], 6

; 118  : 	Reset();

	mov	ecx, DWORD PTR _this$[ebp]
	call	?Reset@CvPlayerEspionage@@QAEXXZ	; CvPlayerEspionage::Reset

; 119  : }

	mov	BYTE PTR __$EHRec$[ebp+8], 5
	mov	eax, DWORD PTR _this$[ebp]
	add	eax, 1280				; 00000500H
	mov	DWORD PTR $T232937[ebp], eax
	mov	BYTE PTR __$EHRec$[ebp+8], 7
	mov	ecx, DWORD PTR $T232937[ebp]
	call	?_Tidy@?$vector@UIntrigueNotificationMessage@@V?$allocator@UIntrigueNotificationMessage@@@std@@@std@@IAEXXZ ; std::vector<IntrigueNotificationMessage,std::allocator<IntrigueNotificationMessage> >::_Tidy
	mov	BYTE PTR __$EHRec$[ebp+8], 5
	mov	BYTE PTR __$EHRec$[ebp+8], 4
	mov	ecx, DWORD PTR _this$[ebp]
	add	ecx, 1264				; 000004f0H
	mov	DWORD PTR $T233023[ebp], ecx
	mov	BYTE PTR __$EHRec$[ebp+8], 8
	mov	ecx, DWORD PTR $T233023[ebp]
	call	?_Tidy@?$vector@USpyNotificationMessage@@V?$allocator@USpyNotificationMessage@@@std@@@std@@IAEXXZ ; std::vector<SpyNotificationMessage,std::allocator<SpyNotificationMessage> >::_Tidy
	mov	BYTE PTR __$EHRec$[ebp+8], 4
	mov	BYTE PTR __$EHRec$[ebp+8], 3
	mov	edx, DWORD PTR _this$[ebp]
	add	edx, 912				; 00000390H
	mov	DWORD PTR $T233028[ebp], edx
	push	OFFSET ??1?$vector@UHeistLocation@@V?$allocator@UHeistLocation@@@std@@@std@@QAE@XZ ; std::vector<HeistLocation,std::allocator<HeistLocation> >::~vector<HeistLocation,std::allocator<HeistLocation> >
	push	22					; 00000016H
	push	16					; 00000010H
	mov	eax, DWORD PTR $T233028[ebp]
	push	eax
	call	??_M@YGXPAXIHP6EX0@Z@Z
	mov	BYTE PTR __$EHRec$[ebp+8], 2
	mov	ecx, DWORD PTR _this$[ebp]
	add	ecx, 720				; 000002d0H
	call	??1?$FStaticVector@H$0BG@$0A@$0BCJ@$0A@@@QAE@XZ ; FStaticVector<int,22,0,297,0>::~FStaticVector<int,22,0,297,0>
	mov	BYTE PTR __$EHRec$[ebp+8], 1
	mov	ecx, DWORD PTR _this$[ebp]
	add	ecx, 264				; 00000108H
	mov	DWORD PTR $T233082[ebp], ecx
	mov	BYTE PTR __$EHRec$[ebp+8], 9
	mov	edx, DWORD PTR $T233082[ebp]
	mov	eax, DWORD PTR [edx+4]
	push	eax
	mov	ecx, DWORD PTR $T233082[ebp]
	mov	edx, DWORD PTR [ecx]
	push	edx
	mov	ecx, DWORD PTR $T233082[ebp]
	call	?Free@?$FStaticVector@V?$FStaticVector@W4TechTypes@@$00$0A@$0BCJ@$0A@@@$0BG@$0A@$0BCJ@$0A@@@IAEXPAV?$FStaticVector@W4TechTypes@@$00$0A@$0BCJ@$0A@@@I@Z ; FStaticVector<FStaticVector<enum TechTypes,1,0,297,0>,22,0,297,0>::Free
	mov	BYTE PTR __$EHRec$[ebp+8], 1
	mov	BYTE PTR __$EHRec$[ebp+8], 0
	mov	eax, DWORD PTR _this$[ebp]
	add	eax, 244				; 000000f4H
	mov	DWORD PTR $T233138[ebp], eax
	mov	BYTE PTR __$EHRec$[ebp+8], 10		; 0000000aH
	mov	ecx, DWORD PTR $T233138[ebp]
	call	?_Tidy@?$vector@HV?$allocator@H@std@@@std@@IAEXXZ ; std::vector<int,std::allocator<int> >::_Tidy
	mov	BYTE PTR __$EHRec$[ebp+8], 0
	mov	DWORD PTR __$EHRec$[ebp+8], -1
	mov	ecx, DWORD PTR _this$[ebp]
	add	ecx, 4
	call	??1?$FStaticVector@VCvEspionageSpy@@$07$0A@$0BCJ@$0A@@@QAE@XZ ; FStaticVector<CvEspionageSpy,8,0,297,0>::~FStaticVector<CvEspionageSpy,8,0,297,0>
	mov	ecx, DWORD PTR __$EHRec$[ebp]
	mov	DWORD PTR fs:0, ecx
	pop	ecx
	mov	esp, ebp
	pop	ebp
	ret	0
_TEXT	ENDS
;	COMDAT text$x
text$x	SEGMENT
__unwindfunclet$??1CvPlayerEspionage@@QAE@XZ$0:
	mov	ecx, DWORD PTR _this$[ebp]
	add	ecx, 4
	jmp	??1?$FStaticVector@VCvEspionageSpy@@$07$0A@$0BCJ@$0A@@@QAE@XZ ; FStaticVector<CvEspionageSpy,8,0,297,0>::~FStaticVector<CvEspionageSpy,8,0,297,0>
__unwindfunclet$??1CvPlayerEspionage@@QAE@XZ$1:
	mov	ecx, DWORD PTR _this$[ebp]
	add	ecx, 244				; 000000f4H
	jmp	??1?$vector@HV?$allocator@H@std@@@std@@QAE@XZ ; std::vector<int,std::allocator<int> >::~vector<int,std::allocator<int> >
__unwindfunclet$??1CvPlayerEspionage@@QAE@XZ$2:
	mov	ecx, DWORD PTR _this$[ebp]
	add	ecx, 264				; 00000108H
	jmp	??1?$FStaticVector@V?$FStaticVector@W4TechTypes@@$00$0A@$0BCJ@$0A@@@$0BG@$0A@$0BCJ@$0A@@@QAE@XZ ; FStaticVector<FStaticVector<enum TechTypes,1,0,297,0>,22,0,297,0>::~FStaticVector<FStaticVector<enum TechTypes,1,0,297,0>,22,0,297,0>
__unwindfunclet$??1CvPlayerEspionage@@QAE@XZ$3:
	mov	ecx, DWORD PTR _this$[ebp]
	add	ecx, 720				; 000002d0H
	jmp	??1?$FStaticVector@H$0BG@$0A@$0BCJ@$0A@@@QAE@XZ ; FStaticVector<int,22,0,297,0>::~FStaticVector<int,22,0,297,0>
__unwindfunclet$??1CvPlayerEspionage@@QAE@XZ$4:
	mov	ecx, DWORD PTR _this$[ebp]
	add	ecx, 912				; 00000390H
	jmp	??1?$Array@V?$vector@UHeistLocation@@V?$allocator@UHeistLocation@@@std@@@std@@$0BG@@Firaxis@@QAE@XZ
__unwindfunclet$??1CvPlayerEspionage@@QAE@XZ$5:
	mov	ecx, DWORD PTR _this$[ebp]
	add	ecx, 1264				; 000004f0H
	jmp	??1?$vector@USpyNotificationMessage@@V?$allocator@USpyNotificationMessage@@@std@@@std@@QAE@XZ ; std::vector<SpyNotificationMessage,std::allocator<SpyNotificationMessage> >::~vector<SpyNotificationMessage,std::allocator<SpyNotificationMessage> >
__unwindfunclet$??1CvPlayerEspionage@@QAE@XZ$6:
	mov	ecx, DWORD PTR _this$[ebp]
	add	ecx, 1280				; 00000500H
	jmp	??1?$vector@UIntrigueNotificationMessage@@V?$allocator@UIntrigueNotificationMessage@@@std@@@std@@QAE@XZ ; std::vector<IntrigueNotificationMessage,std::allocator<IntrigueNotificationMessage> >::~vector<IntrigueNotificationMessage,std::allocator<IntrigueNotificationMessage> >
__unwindfunclet$??1CvPlayerEspionage@@QAE@XZ$7:
	mov	ecx, DWORD PTR $T232937[ebp]
	jmp	??1?$_Vector_val@UIntrigueNotificationMessage@@V?$allocator@UIntrigueNotificationMessage@@@std@@@std@@QAE@XZ
__unwindfunclet$??1CvPlayerEspionage@@QAE@XZ$11:
	mov	ecx, DWORD PTR $T233023[ebp]
	jmp	??1?$_Vector_val@USpyNotificationMessage@@V?$allocator@USpyNotificationMessage@@@std@@@std@@QAE@XZ
__unwindfunclet$??1CvPlayerEspionage@@QAE@XZ$15:
	mov	ecx, DWORD PTR $T233082[ebp]
	jmp	??1?$BaseVector@V?$FStaticVector@W4TechTypes@@$00$0A@$0BCJ@$0A@@@$0A@@@QAE@XZ ; BaseVector<FStaticVector<enum TechTypes,1,0,297,0>,0>::~BaseVector<FStaticVector<enum TechTypes,1,0,297,0>,0>
__unwindfunclet$??1CvPlayerEspionage@@QAE@XZ$16:
	mov	ecx, DWORD PTR $T233138[ebp]
	jmp	??1?$_Vector_val@HV?$allocator@H@std@@@std@@QAE@XZ
__ehhandler$??1CvPlayerEspionage@@QAE@XZ:
	mov	edx, DWORD PTR [esp+8]
	lea	eax, DWORD PTR [edx+12]
	mov	ecx, DWORD PTR [edx-160]
	xor	ecx, eax
	call	@__security_check_cookie@4
	mov	eax, OFFSET __ehfuncinfo$??1CvPlayerEspionage@@QAE@XZ
	jmp	___CxxFrameHandler3
text$x	ENDS
??1CvPlayerEspionage@@QAE@XZ ENDP			; CvPlayerEspionage::~CvPlayerEspionage
PUBLIC	?push_back@?$FStaticVector@H$0BG@$0A@$0BCJ@$0A@@@QAEIABH@Z ; FStaticVector<int,22,0,297,0>::push_back
PUBLIC	??1?$FStaticVector@W4TechTypes@@$00$0A@$0BCJ@$0A@@@QAE@XZ ; FStaticVector<enum TechTypes,1,0,297,0>::~FStaticVector<enum TechTypes,1,0,297,0>
PUBLIC	?push_back@?$FStaticVector@V?$FStaticVector@W4TechTypes@@$00$0A@$0BCJ@$0A@@@$0BG@$0A@$0BCJ@$0A@@@QAEIABV?$FStaticVector@W4TechTypes@@$00$0A@$0BCJ@$0A@@@@Z ; FStaticVector<FStaticVector<enum TechTypes,1,0,297,0>,22,0,297,0>::push_back
PUBLIC	??0?$FStaticVector@W4TechTypes@@$00$0A@$0BCJ@$0A@@@QAE@XZ ; FStaticVector<enum TechTypes,1,0,297,0>::FStaticVector<enum TechTypes,1,0,297,0>
PUBLIC	??_C@_0CG@CNMDIGMP@Randomizing?5m_aiSpyListNameOrder@ ; `string'
PUBLIC	?push_back@?$vector@HV?$allocator@H@std@@@std@@QAEXABH@Z ; std::vector<int,std::allocator<int> >::push_back
PUBLIC	__$ArrayPad$
PUBLIC	?Init@CvPlayerEspionage@@QAEXPAVCvPlayer@@@Z	; CvPlayerEspionage::Init
EXTRN	?getJonRandNum@CvGame@@QAEHHPBD@Z:PROC		; CvGame::getJonRandNum
EXTRN	?gGlobals@@3VCvGlobals@@A:BYTE			; gGlobals
EXTRN	?getNumSpyNames@CvCivilizationInfo@@QBEHXZ:PROC	; CvCivilizationInfo::getNumSpyNames
EXTRN	?isPlayable@CvCivilizationBaseInfo@@QBE_NXZ:PROC ; CvCivilizationBaseInfo::isPlayable
EXTRN	?getCivilizationInfo@CvPlayer@@QBEAAVCvCivilizationInfo@@XZ:PROC ; CvPlayer::getCivilizationInfo
EXTRN	?getCivilizationType@CvPlayer@@QBE?AW4CivilizationTypes@@XZ:PROC ; CvPlayer::getCivilizationType
;	COMDAT ??_C@_0CG@CNMDIGMP@Randomizing?5m_aiSpyListNameOrder@
; File c:\program files (x86)\microsoft visual studio 9.0\vc\include\new
CONST	SEGMENT
??_C@_0CG@CNMDIGMP@Randomizing?5m_aiSpyListNameOrder@ DB 'Randomizing m_a'
	DB	'iSpyListNameOrder list', 00H		; `string'
CONST	ENDS
;	COMDAT xdata$x
xdata$x	SEGMENT
__unwindtable$?Init@CvPlayerEspionage@@QAEXPAVCvPlayer@@@Z DD 0ffffffffH
	DD	FLAT:__unwindfunclet$?Init@CvPlayerEspionage@@QAEXPAVCvPlayer@@@Z$0
__ehfuncinfo$?Init@CvPlayerEspionage@@QAEXPAVCvPlayer@@@Z DD 019930522H
	DD	01H
	DD	FLAT:__unwindtable$?Init@CvPlayerEspionage@@QAEXPAVCvPlayer@@@Z
	DD	2 DUP(00H)
	DD	2 DUP(00H)
	DD	00H
	DD	01H
; Function compile flags: /Odtp
; File d:\sources\lekmod_git\checkout\lekmod_dll\cvgamecoredll_expansion2\cvespionageclasses.cpp
xdata$x	ENDS
;	COMDAT ?Init@CvPlayerEspionage@@QAEXPAVCvPlayer@@@Z
_TEXT	SEGMENT
_this$ = -160						; size = 4
$T233231 = -108						; size = 4
$T233224 = -104						; size = 4
$T233220 = -100						; size = 4
$T233219 = -96						; size = 4
$T233215 = -92						; size = 4
$T233175 = -64						; size = 4
_ui$222337 = -60					; size = 4
_aTechList$222336 = -56					; size = 20
__$ArrayPad$ = -36					; size = 4
_ui$222332 = -32					; size = 4
_uiTempValue$222329 = -28				; size = 4
_uiTargetSlot$222330 = -24				; size = 4
_ui$222325 = -20					; size = 4
_i$222321 = -16						; size = 4
__$EHRec$ = -12						; size = 12
_pPlayer$ = 8						; size = 4
?Init@CvPlayerEspionage@@QAEXPAVCvPlayer@@@Z PROC	; CvPlayerEspionage::Init, COMDAT
; _this$ = ecx

; 123  : {

	push	ebp
	mov	ebp, esp
	push	-1
	push	__ehhandler$?Init@CvPlayerEspionage@@QAEXPAVCvPlayer@@@Z
	mov	eax, DWORD PTR fs:0
	push	eax
	sub	esp, 148				; 00000094H
	mov	eax, DWORD PTR ___security_cookie
	xor	eax, ebp
	mov	DWORD PTR __$ArrayPad$[ebp], eax
	push	eax
	lea	eax, DWORD PTR __$EHRec$[ebp]
	mov	DWORD PTR fs:0, eax
	mov	DWORD PTR _this$[ebp], ecx

; 124  : 	Reset();

	mov	ecx, DWORD PTR _this$[ebp]
	call	?Reset@CvPlayerEspionage@@QAEXXZ	; CvPlayerEspionage::Reset

; 125  : 	m_pPlayer = pPlayer;

	mov	eax, DWORD PTR _this$[ebp]
	mov	ecx, DWORD PTR _pPlayer$[ebp]
	mov	DWORD PTR [eax+1296], ecx

; 126  : 
; 127  : 	// catching empty players, minor civs, and barbarians
; 128  : 	if(m_pPlayer->getCivilizationType() == NO_CIVILIZATION || !m_pPlayer->getCivilizationInfo().isPlayable())

	mov	edx, DWORD PTR _this$[ebp]
	mov	ecx, DWORD PTR [edx+1296]
	call	?getCivilizationType@CvPlayer@@QBE?AW4CivilizationTypes@@XZ ; CvPlayer::getCivilizationType
	cmp	eax, -1
	je	SHORT $LN13@Init
	mov	eax, DWORD PTR _this$[ebp]
	mov	ecx, DWORD PTR [eax+1296]
	call	?getCivilizationInfo@CvPlayer@@QBEAAVCvCivilizationInfo@@XZ ; CvPlayer::getCivilizationInfo
	mov	ecx, eax
	call	?isPlayable@CvCivilizationBaseInfo@@QBE_NXZ ; CvCivilizationBaseInfo::isPlayable
	movzx	ecx, al
	test	ecx, ecx
	jne	SHORT $LN14@Init
$LN13@Init:

; 129  : 	{
; 130  : 		return;

	jmp	$LN15@Init
$LN14@Init:

; 131  : 	}
; 132  : 
; 133  : 	// create m_aiSpyListNameOrder list
; 134  : 	for(int i = 0; i < m_pPlayer->getCivilizationInfo().getNumSpyNames(); i++)

	mov	DWORD PTR _i$222321[ebp], 0
	jmp	SHORT $LN12@Init
$LN11@Init:
	mov	edx, DWORD PTR _i$222321[ebp]
	add	edx, 1
	mov	DWORD PTR _i$222321[ebp], edx
$LN12@Init:
	mov	eax, DWORD PTR _this$[ebp]
	mov	ecx, DWORD PTR [eax+1296]
	call	?getCivilizationInfo@CvPlayer@@QBEAAVCvCivilizationInfo@@XZ ; CvPlayer::getCivilizationInfo
	mov	ecx, eax
	call	?getNumSpyNames@CvCivilizationInfo@@QBEHXZ ; CvCivilizationInfo::getNumSpyNames
	cmp	DWORD PTR _i$222321[ebp], eax
	jge	SHORT $LN10@Init

; 135  : 	{
; 136  : 		m_aiSpyListNameOrder.push_back(i);

	lea	ecx, DWORD PTR _i$222321[ebp]
	push	ecx
	mov	ecx, DWORD PTR _this$[ebp]
	add	ecx, 244				; 000000f4H
	call	?push_back@?$vector@HV?$allocator@H@std@@@std@@QAEXABH@Z ; std::vector<int,std::allocator<int> >::push_back

; 137  : 	}

	jmp	SHORT $LN11@Init
$LN10@Init:

; 138  : 
; 139  : 	for(uint ui = 0; ui < m_aiSpyListNameOrder.size(); ui++)

	mov	DWORD PTR _ui$222325[ebp], 0
	jmp	SHORT $LN9@Init
$LN8@Init:
	mov	edx, DWORD PTR _ui$222325[ebp]
	add	edx, 1
	mov	DWORD PTR _ui$222325[ebp], edx
$LN9@Init:
	mov	eax, DWORD PTR _this$[ebp]
	add	eax, 244				; 000000f4H
	mov	DWORD PTR $T233215[ebp], eax
	mov	ecx, DWORD PTR $T233215[ebp]
	mov	edx, DWORD PTR $T233215[ebp]
	mov	eax, DWORD PTR [ecx+8]
	sub	eax, DWORD PTR [edx+4]
	sar	eax, 2
	cmp	DWORD PTR _ui$222325[ebp], eax
	jae	$LN7@Init

; 140  : 	{
; 141  : 		uint uiTempValue;
; 142  : 		uint uiTargetSlot = GC.getGame().getJonRandNum(m_aiSpyListNameOrder.size(), "Randomizing m_aiSpyListNameOrder list");

	mov	ecx, DWORD PTR _this$[ebp]
	add	ecx, 244				; 000000f4H
	mov	DWORD PTR $T233219[ebp], ecx
	mov	edx, DWORD PTR $T233219[ebp]
	mov	eax, DWORD PTR $T233219[ebp]
	mov	ecx, DWORD PTR [edx+8]
	sub	ecx, DWORD PTR [eax+4]
	sar	ecx, 2
	mov	DWORD PTR $T233220[ebp], ecx
	mov	edx, DWORD PTR ?gGlobals@@3VCvGlobals@@A+48
	mov	DWORD PTR $T233224[ebp], edx
	push	OFFSET ??_C@_0CG@CNMDIGMP@Randomizing?5m_aiSpyListNameOrder@
	mov	eax, DWORD PTR $T233220[ebp]
	push	eax
	mov	ecx, DWORD PTR $T233224[ebp]
	call	?getJonRandNum@CvGame@@QAEHHPBD@Z	; CvGame::getJonRandNum
	mov	DWORD PTR _uiTargetSlot$222330[ebp], eax

; 143  : 		uiTempValue = m_aiSpyListNameOrder[ui];

	mov	ecx, DWORD PTR _this$[ebp]
	mov	edx, DWORD PTR [ecx+248]
	mov	eax, DWORD PTR _ui$222325[ebp]
	mov	ecx, DWORD PTR [edx+eax*4]
	mov	DWORD PTR _uiTempValue$222329[ebp], ecx

; 144  : 		m_aiSpyListNameOrder[ui] = m_aiSpyListNameOrder[uiTargetSlot];

	mov	edx, DWORD PTR _this$[ebp]
	mov	eax, DWORD PTR [edx+248]
	mov	ecx, DWORD PTR _uiTargetSlot$222330[ebp]
	lea	edx, DWORD PTR [eax+ecx*4]
	mov	DWORD PTR $T233231[ebp], edx
	mov	eax, DWORD PTR _this$[ebp]
	mov	ecx, DWORD PTR [eax+248]
	mov	edx, DWORD PTR _ui$222325[ebp]
	mov	eax, DWORD PTR $T233231[ebp]
	mov	eax, DWORD PTR [eax]
	mov	DWORD PTR [ecx+edx*4], eax

; 145  : 		m_aiSpyListNameOrder[uiTargetSlot] = uiTempValue;

	mov	ecx, DWORD PTR _this$[ebp]
	mov	edx, DWORD PTR [ecx+248]
	mov	eax, DWORD PTR _uiTargetSlot$222330[ebp]
	mov	ecx, DWORD PTR _uiTempValue$222329[ebp]
	mov	DWORD PTR [edx+eax*4], ecx

; 146  : 	}

	jmp	$LN8@Init
$LN7@Init:

; 147  : 	m_iSpyListNameOrderIndex = 0;

	mov	edx, DWORD PTR _this$[ebp]
	mov	DWORD PTR [edx+260], 0

; 148  : 
; 149  : 	for(uint ui = 0; ui < MAX_MAJOR_CIVS; ui++)

	mov	DWORD PTR _ui$222332[ebp], 0
	jmp	SHORT $LN6@Init
$LN5@Init:
	mov	eax, DWORD PTR _ui$222332[ebp]
	add	eax, 1
	mov	DWORD PTR _ui$222332[ebp], eax
$LN6@Init:
	cmp	DWORD PTR _ui$222332[ebp], 22		; 00000016H
	jae	SHORT $LN4@Init

; 150  : 	{
; 151  : 		TechList aTechList;

	lea	ecx, DWORD PTR _aTechList$222336[ebp]
	call	??0?$FStaticVector@W4TechTypes@@$00$0A@$0BCJ@$0A@@@QAE@XZ ; FStaticVector<enum TechTypes,1,0,297,0>::FStaticVector<enum TechTypes,1,0,297,0>
	mov	DWORD PTR __$EHRec$[ebp+8], 0

; 152  : 		m_aaPlayerStealableTechList.push_back(aTechList);

	lea	ecx, DWORD PTR _aTechList$222336[ebp]
	push	ecx
	mov	ecx, DWORD PTR _this$[ebp]
	add	ecx, 264				; 00000108H
	call	?push_back@?$FStaticVector@V?$FStaticVector@W4TechTypes@@$00$0A@$0BCJ@$0A@@@$0BG@$0A@$0BCJ@$0A@@@QAEIABV?$FStaticVector@W4TechTypes@@$00$0A@$0BCJ@$0A@@@@Z ; FStaticVector<FStaticVector<enum TechTypes,1,0,297,0>,22,0,297,0>::push_back

; 153  : 	}

	mov	DWORD PTR __$EHRec$[ebp+8], -1
	lea	ecx, DWORD PTR _aTechList$222336[ebp]
	call	??1?$FStaticVector@W4TechTypes@@$00$0A@$0BCJ@$0A@@@QAE@XZ ; FStaticVector<enum TechTypes,1,0,297,0>::~FStaticVector<enum TechTypes,1,0,297,0>
	jmp	SHORT $LN5@Init
$LN4@Init:

; 154  : 
; 155  : 	for(uint ui = 0; ui < MAX_MAJOR_CIVS; ui++)

	mov	DWORD PTR _ui$222337[ebp], 0
	jmp	SHORT $LN3@Init
$LN2@Init:
	mov	edx, DWORD PTR _ui$222337[ebp]
	add	edx, 1
	mov	DWORD PTR _ui$222337[ebp], edx
$LN3@Init:
	cmp	DWORD PTR _ui$222337[ebp], 22		; 00000016H
	jae	SHORT $LN15@Init

; 156  : 	{
; 157  : 		m_aiNumTechsToStealList.push_back(0);

	mov	DWORD PTR $T233175[ebp], 0
	lea	eax, DWORD PTR $T233175[ebp]
	push	eax
	mov	ecx, DWORD PTR _this$[ebp]
	add	ecx, 720				; 000002d0H
	call	?push_back@?$FStaticVector@H$0BG@$0A@$0BCJ@$0A@@@QAEIABH@Z ; FStaticVector<int,22,0,297,0>::push_back
	jmp	SHORT $LN2@Init
$LN15@Init:

; 158  : 	}
; 159  : }

	mov	ecx, DWORD PTR __$EHRec$[ebp]
	mov	DWORD PTR fs:0, ecx
	pop	ecx
	mov	ecx, DWORD PTR __$ArrayPad$[ebp]
	xor	ecx, ebp
	call	@__security_check_cookie@4
	mov	esp, ebp
	pop	ebp
	ret	4
_TEXT	ENDS
;	COMDAT text$x
text$x	SEGMENT
__unwindfunclet$?Init@CvPlayerEspionage@@QAEXPAVCvPlayer@@@Z$0:
	lea	ecx, DWORD PTR _aTechList$222336[ebp]
	jmp	??1?$FStaticVector@W4TechTypes@@$00$0A@$0BCJ@$0A@@@QAE@XZ ; FStaticVector<enum TechTypes,1,0,297,0>::~FStaticVector<enum TechTypes,1,0,297,0>
__ehhandler$?Init@CvPlayerEspionage@@QAEXPAVCvPlayer@@@Z:
	mov	edx, DWORD PTR [esp+8]
	lea	eax, DWORD PTR [edx+12]
	mov	ecx, DWORD PTR [edx-152]
	xor	ecx, eax
	call	@__security_check_cookie@4
	mov	ecx, DWORD PTR [edx-24]
	xor	ecx, eax
	call	@__security_check_cookie@4
	mov	eax, OFFSET __ehfuncinfo$?Init@CvPlayerEspionage@@QAEXPAVCvPlayer@@@Z
	jmp	___CxxFrameHandler3
text$x	ENDS
?Init@CvPlayerEspionage@@QAEXPAVCvPlayer@@@Z ENDP	; CvPlayerEspionage::Init
PUBLIC	?Uninit@CvPlayerEspionage@@QAEXXZ		; CvPlayerEspionage::Uninit
; Function compile flags: /Odtp
;	COMDAT ?Uninit@CvPlayerEspionage@@QAEXXZ
_TEXT	SEGMENT
_this$ = -4						; size = 4
?Uninit@CvPlayerEspionage@@QAEXXZ PROC			; CvPlayerEspionage::Uninit, COMDAT
; _this$ = ecx

; 163  : {

	push	ebp
	mov	ebp, esp
	push	ecx
	mov	DWORD PTR _this$[ebp], ecx

; 164  : 	Reset();

	mov	ecx, DWORD PTR _this$[ebp]
	call	?Reset@CvPlayerEspionage@@QAEXXZ	; CvPlayerEspionage::Reset

; 165  : }

	mov	esp, ebp
	pop	ebp
	ret	0
?Uninit@CvPlayerEspionage@@QAEXXZ ENDP			; CvPlayerEspionage::Uninit
_TEXT	ENDS
PUBLIC	?erase@?$vector@UHeistLocation@@V?$allocator@UHeistLocation@@@std@@@std@@QAE?AV?$_Vector_iterator@UHeistLocation@@V?$allocator@UHeistLocation@@@std@@@2@V?$_Vector_const_iterator@UHeistLocation@@V?$allocator@UHeistLocation@@@std@@@2@0@Z ; std::vector<HeistLocation,std::allocator<HeistLocation> >::erase
PUBLIC	?Destroy@?$BaseVector@V?$FStaticVector@W4TechTypes@@$00$0A@$0BCJ@$0A@@@$0A@@@IAEXPAV?$FStaticVector@W4TechTypes@@$00$0A@$0BCJ@$0A@@@I@Z ; BaseVector<FStaticVector<enum TechTypes,1,0,297,0>,0>::Destroy
PUBLIC	?erase@?$vector@UIntrigueNotificationMessage@@V?$allocator@UIntrigueNotificationMessage@@@std@@@std@@QAE?AV?$_Vector_iterator@UIntrigueNotificationMessage@@V?$allocator@UIntrigueNotificationMessage@@@std@@@2@V?$_Vector_const_iterator@UIntrigueNotificationMessage@@V?$allocator@UIntrigueNotificationMessage@@@std@@@2@0@Z ; std::vector<IntrigueNotificationMessage,std::allocator<IntrigueNotificationMessage> >::erase
PUBLIC	?erase@?$vector@HV?$allocator@H@std@@@std@@QAE?AV?$_Vector_iterator@HV?$allocator@H@std@@@2@V?$_Vector_const_iterator@HV?$allocator@H@std@@@2@0@Z ; std::vector<int,std::allocator<int> >::erase
; Function compile flags: /Odtp
;	COMDAT ?Reset@CvPlayerEspionage@@QAEXXZ
_TEXT	SEGMENT
_this$ = -236						; size = 4
$T233851 = -232						; size = 4
$T233684 = -164						; size = 4
$T233668 = -160						; size = 4
$T233838 = -156						; size = 4
$T233837 = -152						; size = 4
$T233836 = -148						; size = 4
$T233835 = -144						; size = 4
$T233834 = -140						; size = 4
$T233646 = -136						; size = 4
$T233623 = -124						; size = 4
$T233442 = -80						; size = 4
$T233426 = -76						; size = 4
$T233610 = -72						; size = 4
$T233609 = -68						; size = 4
$T233608 = -64						; size = 4
$T233607 = -60						; size = 4
$T233606 = -56						; size = 4
$T233410 = -52						; size = 4
_i$233405 = -48						; size = 4
$T233391 = -44						; size = 4
$T233365 = -40						; size = 4
$T233349 = -36						; size = 4
$T233377 = -32						; size = 4
$T233376 = -28						; size = 4
$T233375 = -24						; size = 4
$T233374 = -20						; size = 4
$T233373 = -16						; size = 4
$T233333 = -12						; size = 4
_i$233328 = -8						; size = 4
_ui$222348 = -4						; size = 4
?Reset@CvPlayerEspionage@@QAEXXZ PROC			; CvPlayerEspionage::Reset, COMDAT
; _this$ = ecx

; 168  : {

	push	ebp
	mov	ebp, esp
	sub	esp, 236				; 000000ecH
	mov	DWORD PTR _this$[ebp], ecx

; 169  : 	m_pPlayer = NULL;

	mov	eax, DWORD PTR _this$[ebp]
	mov	DWORD PTR [eax+1296], 0

; 170  : 	m_aSpyList.clear();

	mov	ecx, DWORD PTR _this$[ebp]
	add	ecx, 4
	mov	DWORD PTR $T233333[ebp], ecx
	mov	edx, 1
	test	edx, edx
	je	SHORT $LN12@Reset
	mov	DWORD PTR _i$233328[ebp], 0
	jmp	SHORT $LN10@Reset
$LN9@Reset:
	mov	eax, DWORD PTR _i$233328[ebp]
	add	eax, 1
	mov	DWORD PTR _i$233328[ebp], eax
$LN10@Reset:
	mov	ecx, DWORD PTR $T233333[ebp]
	mov	edx, DWORD PTR _i$233328[ebp]
	cmp	edx, DWORD PTR [ecx+4]
	jae	SHORT $LN12@Reset
	jmp	SHORT $LN9@Reset
$LN12@Reset:
	mov	eax, DWORD PTR $T233333[ebp]
	mov	DWORD PTR [eax+4], 0

; 171  : 	m_aiSpyListNameOrder.clear();

	mov	ecx, DWORD PTR _this$[ebp]
	add	ecx, 244				; 000000f4H
	mov	DWORD PTR $T233391[ebp], ecx
	mov	edx, DWORD PTR $T233391[ebp]
	mov	eax, DWORD PTR [edx+8]
	mov	DWORD PTR $T233349[ebp], eax
	mov	ecx, DWORD PTR $T233349[ebp]
	mov	DWORD PTR $T233374[ebp], ecx
	mov	edx, DWORD PTR $T233374[ebp]
	mov	DWORD PTR $T233373[ebp], edx
	mov	eax, DWORD PTR $T233391[ebp]
	mov	ecx, DWORD PTR [eax+4]
	mov	DWORD PTR $T233365[ebp], ecx
	mov	edx, DWORD PTR $T233365[ebp]
	mov	DWORD PTR $T233376[ebp], edx
	mov	eax, DWORD PTR $T233376[ebp]
	mov	DWORD PTR $T233375[ebp], eax
	mov	ecx, DWORD PTR $T233373[ebp]
	push	ecx
	mov	edx, DWORD PTR $T233375[ebp]
	push	edx
	lea	eax, DWORD PTR $T233377[ebp]
	push	eax
	mov	ecx, DWORD PTR $T233391[ebp]
	call	?erase@?$vector@HV?$allocator@H@std@@@std@@QAE?AV?$_Vector_iterator@HV?$allocator@H@std@@@2@V?$_Vector_const_iterator@HV?$allocator@H@std@@@2@0@Z ; std::vector<int,std::allocator<int> >::erase

; 172  : 	m_iSpyListNameOrderIndex = -1;

	mov	ecx, DWORD PTR _this$[ebp]
	mov	DWORD PTR [ecx+260], -1

; 173  : 	m_aiNumTechsToStealList.clear();

	mov	edx, DWORD PTR _this$[ebp]
	add	edx, 720				; 000002d0H
	mov	DWORD PTR $T233410[ebp], edx
	mov	eax, 1
	test	eax, eax
	je	SHORT $LN34@Reset
	mov	DWORD PTR _i$233405[ebp], 0
	jmp	SHORT $LN32@Reset
$LN31@Reset:
	mov	ecx, DWORD PTR _i$233405[ebp]
	add	ecx, 1
	mov	DWORD PTR _i$233405[ebp], ecx
$LN32@Reset:
	mov	edx, DWORD PTR $T233410[ebp]
	mov	eax, DWORD PTR _i$233405[ebp]
	cmp	eax, DWORD PTR [edx+4]
	jae	SHORT $LN34@Reset
	jmp	SHORT $LN31@Reset
$LN34@Reset:
	mov	ecx, DWORD PTR $T233410[ebp]
	mov	DWORD PTR [ecx+4], 0

; 174  : 	m_aIntrigueNotificationMessages.clear();

	mov	edx, DWORD PTR _this$[ebp]
	add	edx, 1280				; 00000500H
	mov	DWORD PTR $T233623[ebp], edx
	mov	eax, DWORD PTR $T233623[ebp]
	mov	ecx, DWORD PTR [eax+8]
	mov	DWORD PTR $T233426[ebp], ecx
	mov	edx, DWORD PTR $T233426[ebp]
	mov	DWORD PTR $T233607[ebp], edx
	mov	eax, DWORD PTR $T233607[ebp]
	mov	DWORD PTR $T233606[ebp], eax
	mov	ecx, DWORD PTR $T233623[ebp]
	mov	edx, DWORD PTR [ecx+4]
	mov	DWORD PTR $T233442[ebp], edx
	mov	eax, DWORD PTR $T233442[ebp]
	mov	DWORD PTR $T233609[ebp], eax
	mov	ecx, DWORD PTR $T233609[ebp]
	mov	DWORD PTR $T233608[ebp], ecx
	mov	edx, DWORD PTR $T233606[ebp]
	push	edx
	mov	eax, DWORD PTR $T233608[ebp]
	push	eax
	lea	ecx, DWORD PTR $T233610[ebp]
	push	ecx
	mov	ecx, DWORD PTR $T233623[ebp]
	call	?erase@?$vector@UIntrigueNotificationMessage@@V?$allocator@UIntrigueNotificationMessage@@@std@@@std@@QAE?AV?$_Vector_iterator@UIntrigueNotificationMessage@@V?$allocator@UIntrigueNotificationMessage@@@std@@@2@V?$_Vector_const_iterator@UIntrigueNotificationMessage@@V?$allocator@UIntrigueNotificationMessage@@@std@@@2@0@Z ; std::vector<IntrigueNotificationMessage,std::allocator<IntrigueNotificationMessage> >::erase

; 175  : 	m_aaPlayerStealableTechList.clear();

	mov	edx, DWORD PTR _this$[ebp]
	add	edx, 264				; 00000108H
	mov	DWORD PTR $T233646[ebp], edx
	mov	eax, DWORD PTR $T233646[ebp]
	mov	ecx, DWORD PTR [eax+4]
	push	ecx
	mov	edx, DWORD PTR $T233646[ebp]
	mov	eax, DWORD PTR [edx]
	push	eax
	mov	ecx, DWORD PTR $T233646[ebp]
	call	?Destroy@?$BaseVector@V?$FStaticVector@W4TechTypes@@$00$0A@$0BCJ@$0A@@@$0A@@@IAEXPAV?$FStaticVector@W4TechTypes@@$00$0A@$0BCJ@$0A@@@I@Z ; BaseVector<FStaticVector<enum TechTypes,1,0,297,0>,0>::Destroy
	mov	ecx, DWORD PTR $T233646[ebp]
	mov	DWORD PTR [ecx+4], 0

; 176  : 	for(uint ui = 0; ui < MAX_MAJOR_CIVS; ui++)

	mov	DWORD PTR _ui$222348[ebp], 0
	jmp	SHORT $LN3@Reset
$LN2@Reset:
	mov	edx, DWORD PTR _ui$222348[ebp]
	add	edx, 1
	mov	DWORD PTR _ui$222348[ebp], edx
$LN3@Reset:
	cmp	DWORD PTR _ui$222348[ebp], 22		; 00000016H
	jae	$LN4@Reset

; 177  : 	{
; 178  : 		m_aiMaxTechCost[ui] = -1;

	mov	eax, DWORD PTR _ui$222348[ebp]
	mov	ecx, DWORD PTR _this$[ebp]
	mov	DWORD PTR [ecx+eax*4+824], -1

; 179  : 		m_aHeistLocations[ui].clear();

	mov	edx, DWORD PTR _ui$222348[ebp]
	shl	edx, 4
	mov	eax, DWORD PTR _this$[ebp]
	lea	ecx, DWORD PTR [eax+edx+912]
	mov	DWORD PTR $T233851[ebp], ecx
	mov	edx, DWORD PTR $T233851[ebp]
	mov	eax, DWORD PTR [edx+8]
	mov	DWORD PTR $T233668[ebp], eax
	mov	ecx, DWORD PTR $T233668[ebp]
	mov	DWORD PTR $T233835[ebp], ecx
	mov	edx, DWORD PTR $T233835[ebp]
	mov	DWORD PTR $T233834[ebp], edx
	mov	eax, DWORD PTR $T233851[ebp]
	mov	ecx, DWORD PTR [eax+4]
	mov	DWORD PTR $T233684[ebp], ecx
	mov	edx, DWORD PTR $T233684[ebp]
	mov	DWORD PTR $T233837[ebp], edx
	mov	eax, DWORD PTR $T233837[ebp]
	mov	DWORD PTR $T233836[ebp], eax
	mov	ecx, DWORD PTR $T233834[ebp]
	push	ecx
	mov	edx, DWORD PTR $T233836[ebp]
	push	edx
	lea	eax, DWORD PTR $T233838[ebp]
	push	eax
	mov	ecx, DWORD PTR $T233851[ebp]
	call	?erase@?$vector@UHeistLocation@@V?$allocator@UHeistLocation@@@std@@@std@@QAE?AV?$_Vector_iterator@UHeistLocation@@V?$allocator@UHeistLocation@@@std@@@2@V?$_Vector_const_iterator@UHeistLocation@@V?$allocator@UHeistLocation@@@std@@@2@0@Z ; std::vector<HeistLocation,std::allocator<HeistLocation> >::erase

; 180  : 	}

	jmp	$LN2@Reset
$LN4@Reset:

; 181  : }

	mov	esp, ebp
	pop	ebp
	ret	0
?Reset@CvPlayerEspionage@@QAEXXZ ENDP			; CvPlayerEspionage::Reset
_TEXT	ENDS
PUBLIC	?ProcessSpy@CvPlayerEspionage@@QAEXI@Z		; CvPlayerEspionage::ProcessSpy
PUBLIC	?ProcessSpyMessages@CvPlayerEspionage@@QAEXXZ	; CvPlayerEspionage::ProcessSpyMessages
PUBLIC	?DoTurn@CvPlayerEspionage@@QAEXXZ		; CvPlayerEspionage::DoTurn
; Function compile flags: /Odtp
;	COMDAT ?DoTurn@CvPlayerEspionage@@QAEXXZ
_TEXT	SEGMENT
_this$ = -112						; size = 4
$T234059 = -108						; size = 4
$T234055 = -104						; size = 4
$T233888 = -36						; size = 4
$T233872 = -32						; size = 4
$T234042 = -28						; size = 4
$T234041 = -24						; size = 4
$T234040 = -20						; size = 4
$T234039 = -16						; size = 4
$T234038 = -12						; size = 4
_uiSpy$222360 = -8					; size = 4
_ui$222356 = -4						; size = 4
?DoTurn@CvPlayerEspionage@@QAEXXZ PROC			; CvPlayerEspionage::DoTurn, COMDAT
; _this$ = ecx

; 186  : {

	push	ebp
	mov	ebp, esp
	sub	esp, 112				; 00000070H
	mov	DWORD PTR _this$[ebp], ecx

; 187  : 	AI_PERF_FORMAT("AI-perf.csv", ("CvPlayerEspionage::DoTurn, Turn %03d, %s", GC.getGame().getElapsedGameTurns(), m_pPlayer->getCivilizationShortDescription()) );
; 188  : 	ProcessSpyMessages();

	mov	ecx, DWORD PTR _this$[ebp]
	call	?ProcessSpyMessages@CvPlayerEspionage@@QAEXXZ ; CvPlayerEspionage::ProcessSpyMessages

; 189  : 
; 190  : 	for(uint ui = 0; ui < MAX_MAJOR_CIVS; ui++)

	mov	DWORD PTR _ui$222356[ebp], 0
	jmp	SHORT $LN6@DoTurn
$LN5@DoTurn:
	mov	eax, DWORD PTR _ui$222356[ebp]
	add	eax, 1
	mov	DWORD PTR _ui$222356[ebp], eax
$LN6@DoTurn:
	cmp	DWORD PTR _ui$222356[ebp], 22		; 00000016H
	jae	SHORT $LN4@DoTurn

; 191  : 	{
; 192  : 		m_aHeistLocations[ui].clear();

	mov	ecx, DWORD PTR _ui$222356[ebp]
	shl	ecx, 4
	mov	edx, DWORD PTR _this$[ebp]
	lea	eax, DWORD PTR [edx+ecx+912]
	mov	DWORD PTR $T234055[ebp], eax
	mov	ecx, DWORD PTR $T234055[ebp]
	mov	edx, DWORD PTR [ecx+8]
	mov	DWORD PTR $T233872[ebp], edx
	mov	eax, DWORD PTR $T233872[ebp]
	mov	DWORD PTR $T234039[ebp], eax
	mov	ecx, DWORD PTR $T234039[ebp]
	mov	DWORD PTR $T234038[ebp], ecx
	mov	edx, DWORD PTR $T234055[ebp]
	mov	eax, DWORD PTR [edx+4]
	mov	DWORD PTR $T233888[ebp], eax
	mov	ecx, DWORD PTR $T233888[ebp]
	mov	DWORD PTR $T234041[ebp], ecx
	mov	edx, DWORD PTR $T234041[ebp]
	mov	DWORD PTR $T234040[ebp], edx
	mov	eax, DWORD PTR $T234038[ebp]
	push	eax
	mov	ecx, DWORD PTR $T234040[ebp]
	push	ecx
	lea	edx, DWORD PTR $T234042[ebp]
	push	edx
	mov	ecx, DWORD PTR $T234055[ebp]
	call	?erase@?$vector@UHeistLocation@@V?$allocator@UHeistLocation@@@std@@@std@@QAE?AV?$_Vector_iterator@UHeistLocation@@V?$allocator@UHeistLocation@@@std@@@2@V?$_Vector_const_iterator@UHeistLocation@@V?$allocator@UHeistLocation@@@std@@@2@0@Z ; std::vector<HeistLocation,std::allocator<HeistLocation> >::erase

; 193  : 	}

	jmp	SHORT $LN5@DoTurn
$LN4@DoTurn:

; 194  : 
; 195  : 	for(uint uiSpy = 0; uiSpy < m_aSpyList.size(); uiSpy++)

	mov	DWORD PTR _uiSpy$222360[ebp], 0
	jmp	SHORT $LN3@DoTurn
$LN2@DoTurn:
	mov	eax, DWORD PTR _uiSpy$222360[ebp]
	add	eax, 1
	mov	DWORD PTR _uiSpy$222360[ebp], eax
$LN3@DoTurn:
	mov	ecx, DWORD PTR _this$[ebp]
	mov	edx, DWORD PTR [ecx+8]
	mov	DWORD PTR $T234059[ebp], edx
	mov	eax, DWORD PTR _uiSpy$222360[ebp]
	cmp	eax, DWORD PTR $T234059[ebp]
	jae	SHORT $LN7@DoTurn

; 196  : 	{
; 197  : 		ProcessSpy(uiSpy);

	mov	ecx, DWORD PTR _uiSpy$222360[ebp]
	push	ecx
	mov	ecx, DWORD PTR _this$[ebp]
	call	?ProcessSpy@CvPlayerEspionage@@QAEXI@Z	; CvPlayerEspionage::ProcessSpy
	jmp	SHORT $LN2@DoTurn
$LN7@DoTurn:

; 198  : 	}
; 199  : }

	mov	esp, ebp
	pop	ebp
	ret	0
?DoTurn@CvPlayerEspionage@@QAEXXZ ENDP			; CvPlayerEspionage::DoTurn
_TEXT	ENDS
PUBLIC	??1CvString@@QAE@XZ				; CvString::~CvString
PUBLIC	?LogEspionageMsg@CvPlayerEspionage@@QAEXAAVCvString@@@Z ; CvPlayerEspionage::LogEspionageMsg
PUBLIC	?GetLocalizedText@@YA?AVCvString@@PBD@Z		; GetLocalizedText
PUBLIC	?Format@CvString@@QAAXPBDZZ			; CvString::Format
PUBLIC	??_C@_0N@FBIGLPBC@New?5Spy?0?5?$CFd?0?$AA@	; `string'
PUBLIC	??_C@_0CJ@JBAMNECA@TXT_KEY_NOTIFICATION_SUMMARY_SPY@ ; `string'
PUBLIC	??$GetLocalizedText@PBD@@YA?AVCvString@@PBD0@Z	; GetLocalizedText<char const *>
PUBLIC	??_C@_0CB@MPLODAEL@TXT_KEY_NOTIFICATION_SPY_CREATED@ ; `string'
PUBLIC	?push_back@?$FStaticVector@VCvEspionageSpy@@$07$0A@$0BCJ@$0A@@@QAEIABVCvEspionageSpy@@@Z ; FStaticVector<CvEspionageSpy,8,0,297,0>::push_back
PUBLIC	?GetNextSpyName@CvPlayerEspionage@@QAEHXZ	; CvPlayerEspionage::GetNextSpyName
PUBLIC	??_C@_0BI@ENEAAMEE@GAMEOPTION_NO_ESPIONAGE?$AA@	; `string'
PUBLIC	__$ArrayPad$
PUBLIC	?CreateSpy@CvPlayerEspionage@@QAEXXZ		; CvPlayerEspionage::CreateSpy
EXTRN	__imp_??Y?$basic_string@DU?$char_traits@D@std@@V?$allocator@D@2@@std@@QAEAAV01@ABV01@@Z:PROC
EXTRN	__imp_??0?$basic_string@DU?$char_traits@D@std@@V?$allocator@D@2@@std@@QAE@XZ:PROC
EXTRN	?getLogging@CvGlobals@@QAE_NXZ:PROC		; CvGlobals::getLogging
EXTRN	__imp_??1?$basic_string@DU?$char_traits@D@std@@V?$allocator@D@2@@std@@QAE@XZ:PROC
EXTRN	?Add@CvNotifications@@QAEHW4NotificationTypes@@PBD1HHHH@Z:PROC ; CvNotifications::Add
EXTRN	__imp_?c_str@?$basic_string@DU?$char_traits@D@std@@V?$allocator@D@2@@std@@QBEPBDXZ:PROC
EXTRN	?getSpyNames@CvCivilizationInfo@@QBEPBDH@Z:PROC	; CvCivilizationInfo::getSpyNames
EXTRN	?GetNotifications@CvPlayer@@QBEPAVCvNotifications@@XZ:PROC ; CvPlayer::GetNotifications
EXTRN	?GetStartingSpyRank@CvPlayer@@QBEHXZ:PROC	; CvPlayer::GetStartingSpyRank
EXTRN	?getGameTurn@CvGame@@QAEHXZ:PROC		; CvGame::getGameTurn
EXTRN	?GetEspionageAI@CvPlayer@@QBEPAVCvEspionageAI@@XZ:PROC ; CvPlayer::GetEspionageAI
EXTRN	?isOption@CvGame@@QBE_NPBD@Z:PROC		; CvGame::isOption
;	COMDAT ??_C@_0N@FBIGLPBC@New?5Spy?0?5?$CFd?0?$AA@
; File d:\sources\lekmod_git\checkout\lekmod_dll\cvgamecoredllutil\include\cvstring.h
CONST	SEGMENT
??_C@_0N@FBIGLPBC@New?5Spy?0?5?$CFd?0?$AA@ DB 'New Spy, %d,', 00H ; `string'
CONST	ENDS
;	COMDAT ??_C@_0CJ@JBAMNECA@TXT_KEY_NOTIFICATION_SUMMARY_SPY@
CONST	SEGMENT
??_C@_0CJ@JBAMNECA@TXT_KEY_NOTIFICATION_SUMMARY_SPY@ DB 'TXT_KEY_NOTIFICA'
	DB	'TION_SUMMARY_SPY_CREATED', 00H		; `string'
CONST	ENDS
;	COMDAT ??_C@_0CB@MPLODAEL@TXT_KEY_NOTIFICATION_SPY_CREATED@
CONST	SEGMENT
??_C@_0CB@MPLODAEL@TXT_KEY_NOTIFICATION_SPY_CREATED@ DB 'TXT_KEY_NOTIFICA'
	DB	'TION_SPY_CREATED', 00H			; `string'
CONST	ENDS
;	COMDAT ??_C@_0BI@ENEAAMEE@GAMEOPTION_NO_ESPIONAGE?$AA@
CONST	SEGMENT
??_C@_0BI@ENEAAMEE@GAMEOPTION_NO_ESPIONAGE?$AA@ DB 'GAMEOPTION_NO_ESPIONA'
	DB	'GE', 00H					; `string'
CONST	ENDS
;	COMDAT xdata$x
xdata$x	SEGMENT
__unwindtable$?CreateSpy@CvPlayerEspionage@@QAEXXZ DD 0ffffffffH
	DD	FLAT:__unwindfunclet$?CreateSpy@CvPlayerEspionage@@QAEXXZ$0
	DD	00H
	DD	FLAT:__unwindfunclet$?CreateSpy@CvPlayerEspionage@@QAEXXZ$1
	DD	0ffffffffH
	DD	FLAT:__unwindfunclet$?CreateSpy@CvPlayerEspionage@@QAEXXZ$2
	DD	02H
	DD	FLAT:__unwindfunclet$?CreateSpy@CvPlayerEspionage@@QAEXXZ$3
__ehfuncinfo$?CreateSpy@CvPlayerEspionage@@QAEXXZ DD 019930522H
	DD	04H
	DD	FLAT:__unwindtable$?CreateSpy@CvPlayerEspionage@@QAEXXZ
	DD	2 DUP(00H)
	DD	2 DUP(00H)
	DD	00H
	DD	01H
; Function compile flags: /Odtp
; File d:\sources\lekmod_git\checkout\lekmod_dll\cvgamecoredll_expansion2\cvespionageclasses.cpp
xdata$x	ENDS
;	COMDAT ?CreateSpy@CvPlayerEspionage@@QAEXXZ
_TEXT	SEGMENT
tv202 = -196						; size = 4
tv140 = -192						; size = 4
_this$ = -188						; size = 4
$T234105 = -184						; size = 4
$T234086 = -180						; size = 4
$T234075 = -172						; size = 4
$T234071 = -168						; size = 4
$T234063 = -164						; size = 28
_strMsg$222387 = -136					; size = 28
_strBuffer$222375 = -108				; size = 28
_strSummary$222383 = -80				; size = 28
__$ArrayPad$ = -52					; size = 4
_szSpyName$222374 = -48					; size = 4
_pNotifications$ = -44					; size = 4
_kNewSpy$ = -40						; size = 28
__$EHRec$ = -12						; size = 12
?CreateSpy@CvPlayerEspionage@@QAEXXZ PROC		; CvPlayerEspionage::CreateSpy, COMDAT
; _this$ = ecx

; 203  : {

	push	ebp
	mov	ebp, esp
	push	-1
	push	__ehhandler$?CreateSpy@CvPlayerEspionage@@QAEXXZ
	mov	eax, DWORD PTR fs:0
	push	eax
	sub	esp, 184				; 000000b8H
	mov	eax, DWORD PTR ___security_cookie
	xor	eax, ebp
	mov	DWORD PTR __$ArrayPad$[ebp], eax
	push	esi
	push	eax
	lea	eax, DWORD PTR __$EHRec$[ebp]
	mov	DWORD PTR fs:0, eax
	mov	DWORD PTR _this$[ebp], ecx

; 204  : 	// don't create spies if espionage is disabled
; 205  : 	if(GC.getGame().isOption(GAMEOPTION_NO_ESPIONAGE))

	mov	eax, DWORD PTR ?gGlobals@@3VCvGlobals@@A+48
	mov	DWORD PTR $T234071[ebp], eax
	push	OFFSET ??_C@_0BI@ENEAAMEE@GAMEOPTION_NO_ESPIONAGE?$AA@
	mov	ecx, DWORD PTR $T234071[ebp]
	call	?isOption@CvGame@@QBE_NPBD@Z		; CvGame::isOption
	movzx	ecx, al
	test	ecx, ecx
	je	SHORT $LN4@CreateSpy

; 206  : 	{
; 207  : 		return;

	jmp	$LN5@CreateSpy
$LN4@CreateSpy:

; 208  : 	}
; 209  : 
; 210  : 	if (m_pPlayer->GetEspionageAI()->m_iTurnEspionageStarted == -1)

	mov	edx, DWORD PTR _this$[ebp]
	mov	ecx, DWORD PTR [edx+1296]
	call	?GetEspionageAI@CvPlayer@@QBEPAVCvEspionageAI@@XZ ; CvPlayer::GetEspionageAI
	cmp	DWORD PTR [eax+736], -1
	jne	SHORT $LN3@CreateSpy

; 211  : 	{
; 212  : 		m_pPlayer->GetEspionageAI()->m_iTurnEspionageStarted = GC.getGame().getGameTurn();

	mov	eax, DWORD PTR ?gGlobals@@3VCvGlobals@@A+48
	mov	DWORD PTR $T234075[ebp], eax
	mov	ecx, DWORD PTR $T234075[ebp]
	call	?getGameTurn@CvGame@@QAEHXZ		; CvGame::getGameTurn
	mov	esi, eax
	mov	ecx, DWORD PTR _this$[ebp]
	mov	ecx, DWORD PTR [ecx+1296]
	call	?GetEspionageAI@CvPlayer@@QBEPAVCvEspionageAI@@XZ ; CvPlayer::GetEspionageAI
	mov	DWORD PTR [eax+736], esi
$LN3@CreateSpy:

; 213  : 	}
; 214  : 
; 215  : 	CvEspionageSpy kNewSpy;

	lea	ecx, DWORD PTR _kNewSpy$[ebp]
	call	??0CvEspionageSpy@@QAE@XZ		; CvEspionageSpy::CvEspionageSpy

; 216  : 	kNewSpy.m_eRank = (CvSpyRank)m_pPlayer->GetStartingSpyRank();

	mov	edx, DWORD PTR _this$[ebp]
	mov	ecx, DWORD PTR [edx+1296]
	call	?GetStartingSpyRank@CvPlayer@@QBEHXZ	; CvPlayer::GetStartingSpyRank
	mov	DWORD PTR _kNewSpy$[ebp+12], eax

; 217  : 	kNewSpy.m_eSpyState = SPY_STATE_UNASSIGNED;

	mov	DWORD PTR _kNewSpy$[ebp+16], 0

; 218  : 	kNewSpy.m_iName = GetNextSpyName();

	mov	ecx, DWORD PTR _this$[ebp]
	call	?GetNextSpyName@CvPlayerEspionage@@QAEHXZ ; CvPlayerEspionage::GetNextSpyName
	mov	DWORD PTR _kNewSpy$[ebp], eax

; 219  : 	kNewSpy.m_bEvaluateReassignment = true;

	mov	BYTE PTR _kNewSpy$[ebp+25], 1

; 220  : 
; 221  : 	m_aSpyList.push_back(kNewSpy);

	lea	eax, DWORD PTR _kNewSpy$[ebp]
	push	eax
	mov	ecx, DWORD PTR _this$[ebp]
	add	ecx, 4
	call	?push_back@?$FStaticVector@VCvEspionageSpy@@$07$0A@$0BCJ@$0A@@@QAEIABVCvEspionageSpy@@@Z ; FStaticVector<CvEspionageSpy,8,0,297,0>::push_back

; 222  : 
; 223  : 	CvNotifications* pNotifications = m_pPlayer->GetNotifications();

	mov	ecx, DWORD PTR _this$[ebp]
	mov	ecx, DWORD PTR [ecx+1296]
	call	?GetNotifications@CvPlayer@@QBEPAVCvNotifications@@XZ ; CvPlayer::GetNotifications
	mov	DWORD PTR _pNotifications$[ebp], eax

; 224  : 	if(pNotifications)

	cmp	DWORD PTR _pNotifications$[ebp], 0
	je	$LN2@CreateSpy

; 225  : 	{
; 226  : 		const char* szSpyName = m_pPlayer->getCivilizationInfo().getSpyNames(kNewSpy.m_iName);

	mov	edx, DWORD PTR _kNewSpy$[ebp]
	push	edx
	mov	eax, DWORD PTR _this$[ebp]
	mov	ecx, DWORD PTR [eax+1296]
	call	?getCivilizationInfo@CvPlayer@@QBEAAVCvCivilizationInfo@@XZ ; CvPlayer::getCivilizationInfo
	mov	ecx, eax
	call	?getSpyNames@CvCivilizationInfo@@QBEPBDH@Z ; CvCivilizationInfo::getSpyNames
	mov	DWORD PTR _szSpyName$222374[ebp], eax

; 227  : 		CvString strBuffer = GetLocalizedText("TXT_KEY_NOTIFICATION_SPY_CREATED", szSpyName);

	mov	ecx, DWORD PTR _szSpyName$222374[ebp]
	push	ecx
	push	OFFSET ??_C@_0CB@MPLODAEL@TXT_KEY_NOTIFICATION_SPY_CREATED@
	lea	edx, DWORD PTR _strBuffer$222375[ebp]
	push	edx
	call	??$GetLocalizedText@PBD@@YA?AVCvString@@PBD0@Z ; GetLocalizedText<char const *>
	add	esp, 12					; 0000000cH
	mov	DWORD PTR __$EHRec$[ebp+8], 0

; 228  : 		CvString strSummary = GetLocalizedText("TXT_KEY_NOTIFICATION_SUMMARY_SPY_CREATED", szSpyName);

	mov	eax, DWORD PTR _szSpyName$222374[ebp]
	push	eax
	push	OFFSET ??_C@_0CJ@JBAMNECA@TXT_KEY_NOTIFICATION_SUMMARY_SPY@
	lea	ecx, DWORD PTR _strSummary$222383[ebp]
	push	ecx
	call	??$GetLocalizedText@PBD@@YA?AVCvString@@PBD0@Z ; GetLocalizedText<char const *>
	add	esp, 12					; 0000000cH
	mov	BYTE PTR __$EHRec$[ebp+8], 1

; 229  : 		pNotifications->Add(NOTIFICATION_SPY_CREATED_ACTIVE_PLAYER, strBuffer, strSummary, -1, -1, 0);

	lea	ecx, DWORD PTR _strSummary$222383[ebp]
	call	DWORD PTR __imp_?c_str@?$basic_string@DU?$char_traits@D@std@@V?$allocator@D@2@@std@@QBEPBDXZ
	mov	DWORD PTR $T234086[ebp], eax
	push	-1
	push	0
	push	-1
	push	-1
	mov	edx, DWORD PTR $T234086[ebp]
	push	edx
	lea	ecx, DWORD PTR _strBuffer$222375[ebp]
	call	DWORD PTR __imp_?c_str@?$basic_string@DU?$char_traits@D@std@@V?$allocator@D@2@@std@@QBEPBDXZ
	push	eax
	push	-433658102				; e626e70aH
	mov	ecx, DWORD PTR _pNotifications$[ebp]
	call	?Add@CvNotifications@@QAEHW4NotificationTypes@@PBD1HHHH@Z ; CvNotifications::Add

; 230  : 	}

	mov	BYTE PTR __$EHRec$[ebp+8], 0
	lea	ecx, DWORD PTR _strSummary$222383[ebp]
	call	DWORD PTR __imp_??1?$basic_string@DU?$char_traits@D@std@@V?$allocator@D@2@@std@@QAE@XZ
	mov	DWORD PTR __$EHRec$[ebp+8], -1
	lea	ecx, DWORD PTR _strBuffer$222375[ebp]
	call	DWORD PTR __imp_??1?$basic_string@DU?$char_traits@D@std@@V?$allocator@D@2@@std@@QAE@XZ
$LN2@CreateSpy:

; 231  : 
; 232  : 	if(GC.getLogging())

	mov	ecx, OFFSET ?gGlobals@@3VCvGlobals@@A	; gGlobals
	call	?getLogging@CvGlobals@@QAE_NXZ		; CvGlobals::getLogging
	movzx	eax, al
	test	eax, eax
	je	$LN5@CreateSpy

; 233  : 	{
; 234  : 		CvString strMsg;

	lea	ecx, DWORD PTR _strMsg$222387[ebp]
	call	DWORD PTR __imp_??0?$basic_string@DU?$char_traits@D@std@@V?$allocator@D@2@@std@@QAE@XZ
	mov	DWORD PTR __$EHRec$[ebp+8], 2

; 235  : 		strMsg.Format("New Spy, %d,", m_aSpyList.size() - 1);

	mov	ecx, DWORD PTR _this$[ebp]
	mov	edx, DWORD PTR [ecx+8]
	mov	DWORD PTR $T234105[ebp], edx
	mov	eax, DWORD PTR $T234105[ebp]
	sub	eax, 1
	push	eax
	push	OFFSET ??_C@_0N@FBIGLPBC@New?5Spy?0?5?$CFd?0?$AA@
	lea	ecx, DWORD PTR _strMsg$222387[ebp]
	push	ecx
	call	?Format@CvString@@QAAXPBDZZ		; CvString::Format
	add	esp, 12					; 0000000cH

; 236  : 		strMsg += GetLocalizedText(m_pPlayer->getCivilizationInfo().getSpyNames(kNewSpy.m_iName));

	mov	edx, DWORD PTR _kNewSpy$[ebp]
	push	edx
	mov	eax, DWORD PTR _this$[ebp]
	mov	ecx, DWORD PTR [eax+1296]
	call	?getCivilizationInfo@CvPlayer@@QBEAAVCvCivilizationInfo@@XZ ; CvPlayer::getCivilizationInfo
	mov	ecx, eax
	call	?getSpyNames@CvCivilizationInfo@@QBEPBDH@Z ; CvCivilizationInfo::getSpyNames
	push	eax
	lea	ecx, DWORD PTR $T234063[ebp]
	push	ecx
	call	?GetLocalizedText@@YA?AVCvString@@PBD@Z	; GetLocalizedText
	add	esp, 8
	mov	DWORD PTR tv140[ebp], eax
	mov	edx, DWORD PTR tv140[ebp]
	mov	DWORD PTR tv202[ebp], edx
	mov	BYTE PTR __$EHRec$[ebp+8], 3
	mov	eax, DWORD PTR tv202[ebp]
	push	eax
	lea	ecx, DWORD PTR _strMsg$222387[ebp]
	call	DWORD PTR __imp_??Y?$basic_string@DU?$char_traits@D@std@@V?$allocator@D@2@@std@@QAEAAV01@ABV01@@Z
	mov	BYTE PTR __$EHRec$[ebp+8], 2
	lea	ecx, DWORD PTR $T234063[ebp]
	call	DWORD PTR __imp_??1?$basic_string@DU?$char_traits@D@std@@V?$allocator@D@2@@std@@QAE@XZ

; 237  : 		LogEspionageMsg(strMsg);

	lea	ecx, DWORD PTR _strMsg$222387[ebp]
	push	ecx
	mov	ecx, DWORD PTR _this$[ebp]
	call	?LogEspionageMsg@CvPlayerEspionage@@QAEXAAVCvString@@@Z ; CvPlayerEspionage::LogEspionageMsg

; 238  : 	}

	mov	DWORD PTR __$EHRec$[ebp+8], -1
	lea	ecx, DWORD PTR _strMsg$222387[ebp]
	call	DWORD PTR __imp_??1?$basic_string@DU?$char_traits@D@std@@V?$allocator@D@2@@std@@QAE@XZ
$LN5@CreateSpy:

; 239  : }

	mov	ecx, DWORD PTR __$EHRec$[ebp]
	mov	DWORD PTR fs:0, ecx
	pop	ecx
	pop	esi
	mov	ecx, DWORD PTR __$ArrayPad$[ebp]
	xor	ecx, ebp
	call	@__security_check_cookie@4
	mov	esp, ebp
	pop	ebp
	ret	0
_TEXT	ENDS
;	COMDAT text$x
text$x	SEGMENT
__unwindfunclet$?CreateSpy@CvPlayerEspionage@@QAEXXZ$0:
	lea	ecx, DWORD PTR _strBuffer$222375[ebp]
	jmp	??1CvString@@QAE@XZ			; CvString::~CvString
__unwindfunclet$?CreateSpy@CvPlayerEspionage@@QAEXXZ$1:
	lea	ecx, DWORD PTR _strSummary$222383[ebp]
	jmp	??1CvString@@QAE@XZ			; CvString::~CvString
__unwindfunclet$?CreateSpy@CvPlayerEspionage@@QAEXXZ$2:
	lea	ecx, DWORD PTR _strMsg$222387[ebp]
	jmp	??1CvString@@QAE@XZ			; CvString::~CvString
__unwindfunclet$?CreateSpy@CvPlayerEspionage@@QAEXXZ$3:
	lea	ecx, DWORD PTR $T234063[ebp]
	jmp	??1CvString@@QAE@XZ			; CvString::~CvString
__ehhandler$?CreateSpy@CvPlayerEspionage@@QAEXXZ:
	mov	edx, DWORD PTR [esp+8]
	lea	eax, DWORD PTR [edx+12]
	mov	ecx, DWORD PTR [edx-192]
	xor	ecx, eax
	call	@__security_check_cookie@4
	mov	ecx, DWORD PTR [edx-40]
	xor	ecx, eax
	call	@__security_check_cookie@4
	mov	eax, OFFSET __ehfuncinfo$?CreateSpy@CvPlayerEspionage@@QAEXXZ
	jmp	___CxxFrameHandler3
text$x	ENDS
?CreateSpy@CvPlayerEspionage@@QAEXXZ ENDP		; CvPlayerEspionage::CreateSpy
PUBLIC	__$ArrayPad$
EXTRN	__imp_??1String@Localization@@UAE@XZ:PROC
EXTRN	__imp_??0?$basic_string@DU?$char_traits@D@std@@V?$allocator@D@2@@std@@QAE@ABV01@@Z:PROC
EXTRN	__imp_?assign@?$basic_string@DU?$char_traits@D@std@@V?$allocator@D@2@@std@@QAEAAV12@PBDI@Z:PROC
EXTRN	__imp_?toUTF8@String@Localization@@QAEPBDAAIH@Z:PROC
EXTRN	__imp_?Lookup@Localization@@YA?AVString@1@PBD@Z:PROC
;	COMDAT xdata$x
; File d:\sources\lekmod_git\checkout\lekmod_dll\cvgamecoredllutil\include\cvstring.h
xdata$x	SEGMENT
__unwindtable$?GetLocalizedText@@YA?AVCvString@@PBD@Z DD 0ffffffffH
	DD	FLAT:__unwindfunclet$?GetLocalizedText@@YA?AVCvString@@PBD@Z$2
	DD	00H
	DD	FLAT:__unwindfunclet$?GetLocalizedText@@YA?AVCvString@@PBD@Z$0
	DD	01H
	DD	FLAT:__unwindfunclet$?GetLocalizedText@@YA?AVCvString@@PBD@Z$1
__ehfuncinfo$?GetLocalizedText@@YA?AVCvString@@PBD@Z DD 019930522H
	DD	03H
	DD	FLAT:__unwindtable$?GetLocalizedText@@YA?AVCvString@@PBD@Z
	DD	2 DUP(00H)
	DD	2 DUP(00H)
	DD	00H
	DD	01H
; Function compile flags: /Odtp
; File d:\sources\lekmod_git\checkout\lekmod_dll\cvgamecoredll_expansion2\cvgamecoreutils.h
xdata$x	ENDS
;	COMDAT ?GetLocalizedText@@YA?AVCvString@@PBD@Z
_TEXT	SEGMENT
$T234126 = -140						; size = 4
_str$ = -136						; size = 28
__$ArrayPad$ = -108					; size = 4
_bytes$ = -104						; size = 4
_text$ = -100						; size = 80
_szComposedString$ = -16				; size = 4
__$EHRec$ = -12						; size = 12
___$ReturnUdt$ = 8					; size = 4
_szString$ = 12						; size = 4
?GetLocalizedText@@YA?AVCvString@@PBD@Z PROC		; GetLocalizedText, COMDAT

; 489  : {

	push	ebp
	mov	ebp, esp
	push	-1
	push	__ehhandler$?GetLocalizedText@@YA?AVCvString@@PBD@Z
	mov	eax, DWORD PTR fs:0
	push	eax
	sub	esp, 128				; 00000080H
	mov	eax, DWORD PTR ___security_cookie
	xor	eax, ebp
	mov	DWORD PTR __$ArrayPad$[ebp], eax
	push	eax
	lea	eax, DWORD PTR __$EHRec$[ebp]
	mov	DWORD PTR fs:0, eax
	mov	DWORD PTR $T234126[ebp], 0

; 490  : 	Localization::String text = Localization::Lookup(szString);

	mov	eax, DWORD PTR _szString$[ebp]
	push	eax
	lea	ecx, DWORD PTR _text$[ebp]
	push	ecx
	call	DWORD PTR __imp_?Lookup@Localization@@YA?AVString@1@PBD@Z
	add	esp, 8
	mov	DWORD PTR __$EHRec$[ebp+8], 1

; 491  : 
; 492  : 	size_t bytes = 0;

	mov	DWORD PTR _bytes$[ebp], 0

; 493  : 	const char* szComposedString = text.toUTF8(bytes);

	push	1
	lea	edx, DWORD PTR _bytes$[ebp]
	push	edx
	lea	ecx, DWORD PTR _text$[ebp]
	call	DWORD PTR __imp_?toUTF8@String@Localization@@QAEPBDAAIH@Z
	mov	DWORD PTR _szComposedString$[ebp], eax

; 494  : 	CvString str;

	lea	ecx, DWORD PTR _str$[ebp]
	call	DWORD PTR __imp_??0?$basic_string@DU?$char_traits@D@std@@V?$allocator@D@2@@std@@QAE@XZ
	mov	BYTE PTR __$EHRec$[ebp+8], 2

; 495  : 	str.assign(szComposedString, bytes);

	mov	eax, DWORD PTR _bytes$[ebp]
	push	eax
	mov	ecx, DWORD PTR _szComposedString$[ebp]
	push	ecx
	lea	ecx, DWORD PTR _str$[ebp]
	call	DWORD PTR __imp_?assign@?$basic_string@DU?$char_traits@D@std@@V?$allocator@D@2@@std@@QAEAAV12@PBDI@Z

; 496  : 	return str;

	lea	edx, DWORD PTR _str$[ebp]
	push	edx
	mov	ecx, DWORD PTR ___$ReturnUdt$[ebp]
	call	DWORD PTR __imp_??0?$basic_string@DU?$char_traits@D@std@@V?$allocator@D@2@@std@@QAE@ABV01@@Z
	mov	eax, DWORD PTR $T234126[ebp]
	or	eax, 1
	mov	DWORD PTR $T234126[ebp], eax
	mov	BYTE PTR __$EHRec$[ebp+8], 1
	lea	ecx, DWORD PTR _str$[ebp]
	call	DWORD PTR __imp_??1?$basic_string@DU?$char_traits@D@std@@V?$allocator@D@2@@std@@QAE@XZ
	mov	BYTE PTR __$EHRec$[ebp+8], 0
	lea	ecx, DWORD PTR _text$[ebp]
	call	DWORD PTR __imp_??1String@Localization@@UAE@XZ
	mov	eax, DWORD PTR ___$ReturnUdt$[ebp]

; 497  : }

	mov	ecx, DWORD PTR __$EHRec$[ebp]
	mov	DWORD PTR fs:0, ecx
	pop	ecx
	mov	ecx, DWORD PTR __$ArrayPad$[ebp]
	xor	ecx, ebp
	call	@__security_check_cookie@4
	mov	esp, ebp
	pop	ebp
	ret	0
_TEXT	ENDS
;	COMDAT text$x
text$x	SEGMENT
__unwindfunclet$?GetLocalizedText@@YA?AVCvString@@PBD@Z$0:
	lea	ecx, DWORD PTR _text$[ebp]
	jmp	DWORD PTR __imp_??1String@Localization@@UAE@XZ
__unwindfunclet$?GetLocalizedText@@YA?AVCvString@@PBD@Z$1:
	lea	ecx, DWORD PTR _str$[ebp]
	jmp	??1CvString@@QAE@XZ			; CvString::~CvString
__unwindfunclet$?GetLocalizedText@@YA?AVCvString@@PBD@Z$2:
	mov	eax, DWORD PTR $T234126[ebp]
	and	eax, 1
	je	$LN6@GetLocaliz
	and	DWORD PTR $T234126[ebp], -2		; fffffffeH
	mov	ecx, DWORD PTR ___$ReturnUdt$[ebp]
	jmp	??1CvString@@QAE@XZ			; CvString::~CvString
$LN6@GetLocaliz:
	ret	0
__ehhandler$?GetLocalizedText@@YA?AVCvString@@PBD@Z:
	mov	edx, DWORD PTR [esp+8]
	lea	eax, DWORD PTR [edx+12]
	mov	ecx, DWORD PTR [edx-132]
	xor	ecx, eax
	call	@__security_check_cookie@4
	mov	ecx, DWORD PTR [edx-96]
	xor	ecx, eax
	call	@__security_check_cookie@4
	mov	eax, OFFSET __ehfuncinfo$?GetLocalizedText@@YA?AVCvString@@PBD@Z
	jmp	___CxxFrameHandler3
text$x	ENDS
?GetLocalizedText@@YA?AVCvString@@PBD@Z ENDP		; GetLocalizedText
PUBLIC	??_C@_0BD@DHIBICGH@Respawned?5spy?0?5?$CFd?0?$AA@ ; `string'
PUBLIC	??_C@_0CB@MCONFAMB@TXT_KEY_NOTIFICATION_SPY_REVIVED@ ; `string'
PUBLIC	??_C@_0CD@EPPMBCAM@TXT_KEY_NOTIFICATION_SPY_REVIVED@ ; `string'
PUBLIC	??_C@_0BJ@CGEFKMBC@Re?9eval?3?5spy?5killed?0?5?$CFd?0?$AA@ ; `string'
PUBLIC	??_C@_0L@BKOJIMLH@Identified?$AA@		; `string'
PUBLIC	??_C@_08DHNPOAGK@Detected?$AA@			; `string'
PUBLIC	??_C@_0L@POGHICCO@Undetected?$AA@		; `string'
PUBLIC	??_C@_0BD@FOINDKNF@Stealing?5tech?0?5?$CFd?0?$AA@ ; `string'
PUBLIC	??_C@_0CE@FMJCEEFH@TXT_KEY_NOTIFICATION_SPY_STEAL_T@ ; `string'
PUBLIC	??_C@_0CG@HCDNHFJC@TXT_KEY_NOTIFICATION_SPY_STEAL_T@ ; `string'
PUBLIC	??_C@_0CE@PNEMGBL@Re?9eval?3?5spy?5completed?5mission?0?5@ ; `string'
PUBLIC	??_C@_06GJNLCKAP@Killed?$AA@			; `string'
PUBLIC	??_C@_01IHBHIGKO@?0?$AA@			; `string'
PUBLIC	??_C@_0M@CIJAGPKD@Killed?0?5?$CFd?0?$AA@	; `string'
PUBLIC	?ExtractSpyFromCity@CvPlayerEspionage@@QAE_NI@Z	; CvPlayerEspionage::ExtractSpyFromCity
PUBLIC	?LevelUpSpy@CvPlayerEspionage@@QAEXI@Z		; CvPlayerEspionage::LevelUpSpy
PUBLIC	??_C@_0CE@OKPBKOE@TXT_KEY_NOTIFICATION_SPY_WAS_KIL@ ; `string'
PUBLIC	??_C@_0CG@DBAGKGCH@TXT_KEY_NOTIFICATION_SPY_WAS_KIL@ ; `string'
PUBLIC	?AddSpyMessage@CvPlayerEspionage@@QAEXHHW4PlayerTypes@@HW4TechTypes@@@Z ; CvPlayerEspionage::AddSpyMessage
PUBLIC	??_C@_0FA@CNNLFJI@Random?5roll?5for?5the?5result?5of?5a?5@ ; `string'
PUBLIC	??_C@_0BF@EIFMKKKD@CIVILIZATION_ENGLAND?$AA@	; `string'
PUBLIC	??_C@_0BE@EANEAGMK@CIVILIZATION_RUSSIA?$AA@	; `string'
PUBLIC	?SetSpyResult@CvCityEspionage@@QAEXW4PlayerTypes@@H@Z ; CvCityEspionage::SetSpyResult
PUBLIC	?GetSpyIndexInCity@CvPlayerEspionage@@QAEHPAVCvCity@@@Z ; CvPlayerEspionage::GetSpyIndexInCity
PUBLIC	??_C@_0EK@GDHGNKG@Random?5roll?5for?5the?5result?5of?5a?5@ ; `string'
PUBLIC	?HasCounterSpy@CvCityEspionage@@QAE_NXZ		; CvCityEspionage::HasCounterSpy
PUBLIC	?push_back@?$vector@UHeistLocation@@V?$allocator@UHeistLocation@@@std@@@std@@QAEXABUHeistLocation@@@Z ; std::vector<HeistLocation,std::allocator<HeistLocation> >::push_back
PUBLIC	??_C@_0EC@CFADMBFJ@Re?9eval?3?5m_aaPlayerStealableTech@ ; `string'
PUBLIC	??_C@_0CA@BCANPJFI@Re?9eval?3?5potential?5too?5low?0?5?$CFd?0?$AA@ ; `string'
PUBLIC	?UncoverIntrigue@CvPlayerEspionage@@QAEXI@Z	; CvPlayerEspionage::UncoverIntrigue
PUBLIC	??_C@_0CD@ECMMHFBE@Re?9eval?3?5can?8t?5steal?5research?0?5?$CF@ ; `string'
PUBLIC	?GetSpyRankName@CvPlayerEspionage@@QBEPBDH@Z	; CvPlayerEspionage::GetSpyRankName
PUBLIC	??_C@_0CJ@BAAFJABO@TXT_KEY_NOTIFICATION_SPY_CANT_ST@ ; `string'
PUBLIC	??$?6PBD@@YAAAVString@Localization@@AAV01@ABQBD@Z ; operator<<<char const *>
PUBLIC	??_C@_0CL@NCDINLIE@TXT_KEY_NOTIFICATION_SPY_CANT_ST@ ; `string'
PUBLIC	?SetLastPotential@CvCityEspionage@@QAEXW4PlayerTypes@@H@Z ; CvCityEspionage::SetLastPotential
PUBLIC	?SetLastBasePotential@CvCityEspionage@@QAEXW4PlayerTypes@@H@Z ; CvCityEspionage::SetLastBasePotential
PUBLIC	?BuildStealableTechList@CvPlayerEspionage@@QAEXW4PlayerTypes@@@Z ; CvPlayerEspionage::BuildStealableTechList
PUBLIC	?SetLastProgress@CvCityEspionage@@QAEXW4PlayerTypes@@H@Z ; CvCityEspionage::SetLastProgress
PUBLIC	?SetActivity@CvCityEspionage@@QAEXW4PlayerTypes@@HHH@Z ; CvCityEspionage::SetActivity
PUBLIC	?CalcRequired@CvPlayerEspionage@@QAEHHPAVCvCity@@H@Z ; CvPlayerEspionage::CalcRequired
PUBLIC	?CalcPerTurn@CvPlayerEspionage@@QAEHHPAVCvCity@@H@Z ; CvPlayerEspionage::CalcPerTurn
PUBLIC	?ResetProgress@CvCityEspionage@@QAEXW4PlayerTypes@@@Z ; CvCityEspionage::ResetProgress
PUBLIC	?HasReachedGoal@CvCityEspionage@@QAE_NW4PlayerTypes@@@Z ; CvCityEspionage::HasReachedGoal
PUBLIC	?Process@CvCityEspionage@@QAEXW4PlayerTypes@@@Z	; CvCityEspionage::Process
PUBLIC	?HasEstablishedSurveillance@CvPlayerEspionage@@QAE_NI@Z ; CvPlayerEspionage::HasEstablishedSurveillance
PUBLIC	?getPlotCity@CvPlot@@QBEPAVCvCity@@XZ		; CvPlot::getPlotCity
PUBLIC	?isPlot@CvMap@@QBEHHH@Z				; CvMap::isPlot
PUBLIC	?coordRange@@YAHHH_N@Z				; coordRange
PUBLIC	__$ArrayPad$
EXTRN	?changeAdjacentSight@CvPlot@@QAEXW4TeamTypes@@H_NW4InvisibleTypes@@W4DirectionTypes@@1@Z:PROC ; CvPlot::changeAdjacentSight
EXTRN	?plot@CvCity@@QBEPAVCvPlot@@XZ:PROC		; CvCity::plot
EXTRN	__imp_??0String@Localization@@QAE@PBD@Z:PROC
EXTRN	?getName@CvCity@@QBE?BVCvString@@XZ:PROC	; CvCity::getName
EXTRN	?getCivilizationShortDescription@CvPlayer@@QBEPBDXZ:PROC ; CvPlayer::getCivilizationShortDescription
EXTRN	__imp_??Y?$basic_string@DU?$char_traits@D@std@@V?$allocator@D@2@@std@@QAEAAV01@PBD@Z:PROC
EXTRN	?getNameKey@CvCity@@QBEPBDXZ:PROC		; CvCity::getNameKey
EXTRN	?ChangeNumTimesRobbedBy@CvDiplomacyAI@@QAEXW4PlayerTypes@@H@Z:PROC ; CvDiplomacyAI::ChangeNumTimesRobbedBy
EXTRN	?GetDiplomacyAI@CvPlayer@@QBEPAVCvDiplomacyAI@@XZ:PROC ; CvPlayer::GetDiplomacyAI
EXTRN	?getActivePlayer@CvGame@@QBE?AW4PlayerTypes@@XZ:PROC ; CvGame::getActivePlayer
EXTRN	?getCivilizationTypeKey@CvPlayer@@QBEPBDXZ:PROC	; CvPlayer::getCivilizationTypeKey
EXTRN	?GetNumericModifier@CvPlayerPolicies@@QAEHW4PolicyModifierType@@@Z:PROC ; CvPlayerPolicies::GetNumericModifier
EXTRN	?GetPlayerPolicies@CvPlayer@@QBEPAVCvPlayerPolicies@@XZ:PROC ; CvPlayer::GetPlayerPolicies
EXTRN	?GetEspionage@CvPlayer@@QBEPAVCvPlayerEspionage@@XZ:PROC ; CvPlayer::GetEspionage
EXTRN	__imp_?toUTF8@String@Localization@@QAEPBDXZ:PROC
EXTRN	?getShortDescriptionKey@CvCivilizationBaseInfo@@QBEPBDXZ:PROC ; CvCivilizationBaseInfo::getShortDescriptionKey
EXTRN	?isMinorCiv@CvPlayer@@QBE_NXZ:PROC		; CvPlayer::isMinorCiv
EXTRN	?m_aPlayers@CvPlayerAI@@1PAV1@A:DWORD		; CvPlayerAI::m_aPlayers
EXTRN	?getTeam@CvCity@@QBE?AW4TeamTypes@@XZ:PROC	; CvCity::getTeam
EXTRN	?GetCityEspionage@CvCity@@QBEPAVCvCityEspionage@@XZ:PROC ; CvCity::GetCityEspionage
;	COMDAT ??_C@_0BD@DHIBICGH@Respawned?5spy?0?5?$CFd?0?$AA@
; File d:\sources\lekmod_git\checkout\lekmod_dll\fireplace\include\fireworks\fautovariable.h
CONST	SEGMENT
??_C@_0BD@DHIBICGH@Respawned?5spy?0?5?$CFd?0?$AA@ DB 'Respawned spy, %d,', 00H ; `string'
CONST	ENDS
;	COMDAT ??_C@_0CB@MCONFAMB@TXT_KEY_NOTIFICATION_SPY_REVIVED@
CONST	SEGMENT
??_C@_0CB@MCONFAMB@TXT_KEY_NOTIFICATION_SPY_REVIVED@ DB 'TXT_KEY_NOTIFICA'
	DB	'TION_SPY_REVIVED', 00H			; `string'
CONST	ENDS
;	COMDAT ??_C@_0CD@EPPMBCAM@TXT_KEY_NOTIFICATION_SPY_REVIVED@
CONST	SEGMENT
??_C@_0CD@EPPMBCAM@TXT_KEY_NOTIFICATION_SPY_REVIVED@ DB 'TXT_KEY_NOTIFICA'
	DB	'TION_SPY_REVIVED_S', 00H			; `string'
CONST	ENDS
;	COMDAT ??_C@_0BJ@CGEFKMBC@Re?9eval?3?5spy?5killed?0?5?$CFd?0?$AA@
CONST	SEGMENT
??_C@_0BJ@CGEFKMBC@Re?9eval?3?5spy?5killed?0?5?$CFd?0?$AA@ DB 'Re-eval: s'
	DB	'py killed, %d,', 00H			; `string'
CONST	ENDS
;	COMDAT ??_C@_0L@BKOJIMLH@Identified?$AA@
CONST	SEGMENT
??_C@_0L@BKOJIMLH@Identified?$AA@ DB 'Identified', 00H	; `string'
CONST	ENDS
;	COMDAT ??_C@_08DHNPOAGK@Detected?$AA@
CONST	SEGMENT
??_C@_08DHNPOAGK@Detected?$AA@ DB 'Detected', 00H	; `string'
CONST	ENDS
;	COMDAT ??_C@_0L@POGHICCO@Undetected?$AA@
CONST	SEGMENT
??_C@_0L@POGHICCO@Undetected?$AA@ DB 'Undetected', 00H	; `string'
CONST	ENDS
;	COMDAT ??_C@_0BD@FOINDKNF@Stealing?5tech?0?5?$CFd?0?$AA@
CONST	SEGMENT
??_C@_0BD@FOINDKNF@Stealing?5tech?0?5?$CFd?0?$AA@ DB 'Stealing tech, %d,', 00H ; `string'
CONST	ENDS
;	COMDAT ??_C@_0CE@FMJCEEFH@TXT_KEY_NOTIFICATION_SPY_STEAL_T@
CONST	SEGMENT
??_C@_0CE@FMJCEEFH@TXT_KEY_NOTIFICATION_SPY_STEAL_T@ DB 'TXT_KEY_NOTIFICA'
	DB	'TION_SPY_STEAL_TECH', 00H			; `string'
CONST	ENDS
;	COMDAT ??_C@_0CG@HCDNHFJC@TXT_KEY_NOTIFICATION_SPY_STEAL_T@
CONST	SEGMENT
??_C@_0CG@HCDNHFJC@TXT_KEY_NOTIFICATION_SPY_STEAL_T@ DB 'TXT_KEY_NOTIFICA'
	DB	'TION_SPY_STEAL_TECH_S', 00H			; `string'
CONST	ENDS
;	COMDAT ??_C@_0CE@PNEMGBL@Re?9eval?3?5spy?5completed?5mission?0?5@
CONST	SEGMENT
??_C@_0CE@PNEMGBL@Re?9eval?3?5spy?5completed?5mission?0?5@ DB 'Re-eval: s'
	DB	'py completed mission, %d,', 00H		; `string'
CONST	ENDS
;	COMDAT ??_C@_06GJNLCKAP@Killed?$AA@
CONST	SEGMENT
??_C@_06GJNLCKAP@Killed?$AA@ DB 'Killed', 00H		; `string'
CONST	ENDS
;	COMDAT ??_C@_01IHBHIGKO@?0?$AA@
CONST	SEGMENT
??_C@_01IHBHIGKO@?0?$AA@ DB ',', 00H			; `string'
CONST	ENDS
;	COMDAT ??_C@_0M@CIJAGPKD@Killed?0?5?$CFd?0?$AA@
CONST	SEGMENT
??_C@_0M@CIJAGPKD@Killed?0?5?$CFd?0?$AA@ DB 'Killed, %d,', 00H ; `string'
CONST	ENDS
;	COMDAT ??_C@_0CE@OKPBKOE@TXT_KEY_NOTIFICATION_SPY_WAS_KIL@
CONST	SEGMENT
??_C@_0CE@OKPBKOE@TXT_KEY_NOTIFICATION_SPY_WAS_KIL@ DB 'TXT_KEY_NOTIFICAT'
	DB	'ION_SPY_WAS_KILLED', 00H			; `string'
CONST	ENDS
;	COMDAT ??_C@_0CG@DBAGKGCH@TXT_KEY_NOTIFICATION_SPY_WAS_KIL@
CONST	SEGMENT
??_C@_0CG@DBAGKGCH@TXT_KEY_NOTIFICATION_SPY_WAS_KIL@ DB 'TXT_KEY_NOTIFICA'
	DB	'TION_SPY_WAS_KILLED_S', 00H			; `string'
CONST	ENDS
;	COMDAT ??_C@_0FA@CNNLFJI@Random?5roll?5for?5the?5result?5of?5a?5@
CONST	SEGMENT
??_C@_0FA@CNNLFJI@Random?5roll?5for?5the?5result?5of?5a?5@ DB 'Random rol'
	DB	'l for the result of a spying mission without a counterspy in '
	DB	'the city', 00H				; `string'
CONST	ENDS
;	COMDAT ??_C@_0BF@EIFMKKKD@CIVILIZATION_ENGLAND?$AA@
CONST	SEGMENT
??_C@_0BF@EIFMKKKD@CIVILIZATION_ENGLAND?$AA@ DB 'CIVILIZATION_ENGLAND', 00H ; `string'
CONST	ENDS
;	COMDAT ??_C@_0BE@EANEAGMK@CIVILIZATION_RUSSIA?$AA@
CONST	SEGMENT
??_C@_0BE@EANEAGMK@CIVILIZATION_RUSSIA?$AA@ DB 'CIVILIZATION_RUSSIA', 00H ; `string'
CONST	ENDS
;	COMDAT ??_C@_0EK@GDHGNKG@Random?5roll?5for?5the?5result?5of?5a?5@
CONST	SEGMENT
??_C@_0EK@GDHGNKG@Random?5roll?5for?5the?5result?5of?5a?5@ DB 'Random rol'
	DB	'l for the result of a spy mission with a counterspy in the ci'
	DB	'ty', 00H					; `string'
CONST	ENDS
;	COMDAT ??_C@_0EC@CFADMBFJ@Re?9eval?3?5m_aaPlayerStealableTech@
CONST	SEGMENT
??_C@_0EC@CFADMBFJ@Re?9eval?3?5m_aaPlayerStealableTech@ DB 'Re-eval: m_aa'
	DB	'PlayerStealableTechList[eCityOwner].size() == 0, %d,', 00H ; `string'
CONST	ENDS
;	COMDAT ??_C@_0CA@BCANPJFI@Re?9eval?3?5potential?5too?5low?0?5?$CFd?0?$AA@
CONST	SEGMENT
??_C@_0CA@BCANPJFI@Re?9eval?3?5potential?5too?5low?0?5?$CFd?0?$AA@ DB 'Re'
	DB	'-eval: potential too low, %d,', 00H		; `string'
CONST	ENDS
;	COMDAT ??_C@_0CD@ECMMHFBE@Re?9eval?3?5can?8t?5steal?5research?0?5?$CF@
CONST	SEGMENT
??_C@_0CD@ECMMHFBE@Re?9eval?3?5can?8t?5steal?5research?0?5?$CF@ DB 'Re-ev'
	DB	'al: can''t steal research, %d,', 00H	; `string'
CONST	ENDS
;	COMDAT ??_C@_0CJ@BAAFJABO@TXT_KEY_NOTIFICATION_SPY_CANT_ST@
CONST	SEGMENT
??_C@_0CJ@BAAFJABO@TXT_KEY_NOTIFICATION_SPY_CANT_ST@ DB 'TXT_KEY_NOTIFICA'
	DB	'TION_SPY_CANT_STEAL_TECH', 00H		; `string'
CONST	ENDS
;	COMDAT ??_C@_0CL@NCDINLIE@TXT_KEY_NOTIFICATION_SPY_CANT_ST@
CONST	SEGMENT
??_C@_0CL@NCDINLIE@TXT_KEY_NOTIFICATION_SPY_CANT_ST@ DB 'TXT_KEY_NOTIFICA'
	DB	'TION_SPY_CANT_STEAL_TECH_S', 00H		; `string'
CONST	ENDS
;	COMDAT xdata$x
xdata$x	SEGMENT
__ehfuncinfo$?ProcessSpy@CvPlayerEspionage@@QAEXI@Z DD 019930522H
	DD	01eH
	DD	FLAT:__unwindtable$?ProcessSpy@CvPlayerEspionage@@QAEXI@Z
	DD	2 DUP(00H)
	DD	2 DUP(00H)
	DD	00H
	DD	01H
__unwindtable$?ProcessSpy@CvPlayerEspionage@@QAEXI@Z DD 0ffffffffH
	DD	FLAT:__unwindfunclet$?ProcessSpy@CvPlayerEspionage@@QAEXI@Z$0
	DD	00H
	DD	FLAT:__unwindfunclet$?ProcessSpy@CvPlayerEspionage@@QAEXI@Z$1
	DD	0ffffffffH
	DD	FLAT:__unwindfunclet$?ProcessSpy@CvPlayerEspionage@@QAEXI@Z$2
	DD	02H
	DD	FLAT:__unwindfunclet$?ProcessSpy@CvPlayerEspionage@@QAEXI@Z$3
	DD	0ffffffffH
	DD	FLAT:__unwindfunclet$?ProcessSpy@CvPlayerEspionage@@QAEXI@Z$4
	DD	04H
	DD	FLAT:__unwindfunclet$?ProcessSpy@CvPlayerEspionage@@QAEXI@Z$5
	DD	0ffffffffH
	DD	FLAT:__unwindfunclet$?ProcessSpy@CvPlayerEspionage@@QAEXI@Z$6
	DD	06H
	DD	FLAT:__unwindfunclet$?ProcessSpy@CvPlayerEspionage@@QAEXI@Z$7
	DD	0ffffffffH
	DD	FLAT:__unwindfunclet$?ProcessSpy@CvPlayerEspionage@@QAEXI@Z$8
	DD	08H
	DD	FLAT:__unwindfunclet$?ProcessSpy@CvPlayerEspionage@@QAEXI@Z$9
	DD	0ffffffffH
	DD	FLAT:__unwindfunclet$?ProcessSpy@CvPlayerEspionage@@QAEXI@Z$10
	DD	0aH
	DD	FLAT:__unwindfunclet$?ProcessSpy@CvPlayerEspionage@@QAEXI@Z$11
	DD	0ffffffffH
	DD	FLAT:__unwindfunclet$?ProcessSpy@CvPlayerEspionage@@QAEXI@Z$12
	DD	0cH
	DD	FLAT:__unwindfunclet$?ProcessSpy@CvPlayerEspionage@@QAEXI@Z$13
	DD	0cH
	DD	FLAT:__unwindfunclet$?ProcessSpy@CvPlayerEspionage@@QAEXI@Z$14
	DD	0ffffffffH
	DD	FLAT:__unwindfunclet$?ProcessSpy@CvPlayerEspionage@@QAEXI@Z$15
	DD	0fH
	DD	FLAT:__unwindfunclet$?ProcessSpy@CvPlayerEspionage@@QAEXI@Z$16
	DD	0ffffffffH
	DD	FLAT:__unwindfunclet$?ProcessSpy@CvPlayerEspionage@@QAEXI@Z$17
	DD	011H
	DD	FLAT:__unwindfunclet$?ProcessSpy@CvPlayerEspionage@@QAEXI@Z$18
	DD	0ffffffffH
	DD	FLAT:__unwindfunclet$?ProcessSpy@CvPlayerEspionage@@QAEXI@Z$18
	DD	013H
	DD	FLAT:__unwindfunclet$?ProcessSpy@CvPlayerEspionage@@QAEXI@Z$19
	DD	0ffffffffH
	DD	FLAT:__unwindfunclet$?ProcessSpy@CvPlayerEspionage@@QAEXI@Z$20
	DD	015H
	DD	FLAT:__unwindfunclet$?ProcessSpy@CvPlayerEspionage@@QAEXI@Z$21
	DD	015H
	DD	FLAT:__unwindfunclet$?ProcessSpy@CvPlayerEspionage@@QAEXI@Z$22
	DD	0ffffffffH
	DD	FLAT:__unwindfunclet$?ProcessSpy@CvPlayerEspionage@@QAEXI@Z$23
	DD	018H
	DD	FLAT:__unwindfunclet$?ProcessSpy@CvPlayerEspionage@@QAEXI@Z$24
	DD	0ffffffffH
	DD	FLAT:__unwindfunclet$?ProcessSpy@CvPlayerEspionage@@QAEXI@Z$25
	DD	01aH
	DD	FLAT:__unwindfunclet$?ProcessSpy@CvPlayerEspionage@@QAEXI@Z$26
	DD	0ffffffffH
	DD	FLAT:__unwindfunclet$?ProcessSpy@CvPlayerEspionage@@QAEXI@Z$27
	DD	01cH
	DD	FLAT:__unwindfunclet$?ProcessSpy@CvPlayerEspionage@@QAEXI@Z$28
; Function compile flags: /Odtp
; File d:\sources\lekmod_git\checkout\lekmod_dll\cvgamecoredll_expansion2\cvespionageclasses.cpp
xdata$x	ENDS
;	COMDAT ?ProcessSpy@CvPlayerEspionage@@QAEXI@Z
_TEXT	SEGMENT
tv1675 = -2076						; size = 4
tv1551 = -2072						; size = 4
tv1670 = -2068						; size = 4
tv2028 = -2064						; size = 4
tv1448 = -2060						; size = 4
tv1667 = -2056						; size = 4
tv1257 = -2052						; size = 4
tv1665 = -2048						; size = 4
tv1267 = -2044						; size = 4
tv1340 = -2040						; size = 4
tv556 = -2036						; size = 4
tv1241 = -2032						; size = 4
tv1199 = -2028						; size = 4
tv1658 = -2024						; size = 4
tv560 = -2020						; size = 4
tv1655 = -2016						; size = 4
tv850 = -2012						; size = 4
tv1653 = -2008						; size = 4
tv854 = -2004						; size = 4
tv1005 = -2000						; size = 4
tv968 = -1996						; size = 4
tv756 = -1992						; size = 4
tv737 = -1988						; size = 4
tv728 = -1984						; size = 4
tv2438 = -1980						; size = 4
tv2433 = -1974						; size = 1
tv2426 = -1973						; size = 1
tv2422 = -1972						; size = 4
tv2423 = -1968						; size = 4
tv717 = -1964						; size = 4
tv2416 = -1960						; size = 4
tv2411 = -1954						; size = 1
tv2404 = -1953						; size = 1
tv2400 = -1952						; size = 4
tv2401 = -1948						; size = 4
tv1646 = -1944						; size = 4
tv2049 = -1940						; size = 4
tv1643 = -1936						; size = 4
tv277 = -1932						; size = 4
tv1640 = -1928						; size = 4
tv281 = -1924						; size = 4
tv95 = -1920						; size = 4
tv1738 = -1916						; size = 4
_this$ = -1912						; size = 4
$T234796 = -1908					; size = 4
$T234795 = -1904					; size = 4
$T234786 = -1900					; size = 4
$T234747 = -1896					; size = 4
$T234739 = -1892					; size = 4
$T234731 = -1888					; size = 4
$T234727 = -1884					; size = 4
$T234723 = -1880					; size = 4
$T234711 = -1876					; size = 4
$T234703 = -1872					; size = 4
$T234702 = -1868					; size = 4
$T234692 = -1864					; size = 4
$T234683 = -1860					; size = 4
$T234679 = -1856					; size = 4
$T234670 = -1852					; size = 4
$T234666 = -1848					; size = 4
$T234653 = -1844					; size = 4
$T234629 = -1840					; size = 4
$T234621 = -1836					; size = 4
$T234607 = -1832					; size = 4
$T234598 = -1828					; size = 4
$T234594 = -1824					; size = 4
$T234585 = -1820					; size = 4
$T234581 = -1816					; size = 4
$T234574 = -1812					; size = 4
$T234570 = -1808					; size = 4
$T234566 = -1804					; size = 4
$T234553 = -1800					; size = 4
$T234549 = -1796					; size = 4
$T234540 = -1792					; size = 4
$T234531 = -1788					; size = 4
$T234519 = -1784					; size = 4
$T234515 = -1780					; size = 4
$T234511 = -1776					; size = 4
$T234502 = -1772					; size = 4
$T234498 = -1768					; size = 4
$T234494 = -1764					; size = 4
$T234490 = -1760					; size = 4
$T234480 = -1756					; size = 4
$T234476 = -1752					; size = 4
$T234467 = -1748					; size = 4
$T234463 = -1744					; size = 4
$T234459 = -1740					; size = 4
$T234455 = -1736					; size = 4
$T234413 = -1708					; size = 4
$T234404 = -1704					; size = 4
$T234395 = -1700					; size = 4
$T234391 = -1696					; size = 4
$T234372 = -1692					; size = 4
$T234368 = -1688					; size = 4
$T234349 = -1684					; size = 4
$T234328 = -1680					; size = 4
$T234324 = -1676					; size = 4
$T234320 = -1672					; size = 4
$T234316 = -1668					; size = 4
$T234312 = -1664					; size = 4
$T234308 = -1660					; size = 4
$T234307 = -1656					; size = 4
$T234277 = -1648					; size = 4
$T234276 = -1644					; size = 4
$T234245 = -1640					; size = 4
$T234240 = -1636					; size = 4
$T234236 = -1629					; size = 1
$T234225 = -1628					; size = 4
$T234221 = -1621					; size = 1
_iMapY$234255 = -1620					; size = 4
_iMapX$234253 = -1616					; size = 4
$T234214 = -1612					; size = 4
$T234178 = -1608					; size = 28
$T234177 = -1580					; size = 4
$T234176 = -1576					; size = 4
$T234175 = -1572					; size = 28
$T234174 = -1544					; size = 28
$T234173 = -1516					; size = 28
$T234172 = -1488					; size = 4
$T234171 = -1484					; size = 4
$T234170 = -1480					; size = 4
$T234169 = -1476					; size = 4
$T234168 = -1472					; size = 28
$T234167 = -1444					; size = 28
$T234166 = -1416					; size = 28
$T234165 = -1388					; size = 28
$T234164 = -1360					; size = 4
$T234163 = -1356					; size = 4
$T234162 = -1352					; size = 4
$T234161 = -1348					; size = 4
$T234160 = -1344					; size = 4
$T234159 = -1340					; size = 4
$T234158 = -1336					; size = 4
$T234157 = -1332					; size = 4
$T234156 = -1328					; size = 4
$T234155 = -1324					; size = 28
$T234154 = -1296					; size = 28
$T234153 = -1268					; size = 28
$T234152 = -1240					; size = 4
$T234151 = -1236					; size = 4
$T234150 = -1232					; size = 4
$T234149 = -1228					; size = 4
_strMsg$222606 = -1224					; size = 28
_strNotification$222600 = -1196				; size = 80
_strSummary$222597 = -1116				; size = 80
_strMsg$222592 = -1032					; size = 28
_pNotifications$222595 = -1004				; size = 4
_strMsg$222566 = -1000					; size = 28
_strNotification$222556 = -972				; size = 80
_strSummary$222553 = -892				; size = 80
_pNotifications$222551 = -808				; size = 4
_pDefenderEspionageAI$222548 = -804			; size = 4
_strMsg$222540 = -800					; size = 28
_iGoal$222546 = -772					; size = 4
_iCityOwner$222543 = -768				; size = 4
_iRate$222545 = -764					; size = 4
_strMsg$222533 = -760					; size = 28
_strNotification$222518 = -732				; size = 80
_strSummary$222514 = -652				; size = 80
_pNotifications$222512 = -568				; size = 4
_pDefenderEspionageAI$222527 = -564			; size = 4
_iDefendingSpy$222529 = -560				; size = 4
_pEspionageAI$222525 = -556				; size = 4
_bUsingXP1Scenario3$222496 = -549			; size = 1
_kSpyOwner$222492 = -548				; size = 4
_kCityOwner$222491 = -544				; size = 4
_iCounterspyIndex$222486 = -540				; size = 4
_iSpyResult$222483 = -536				; size = 4
_kHeistLocation$222482 = -532				; size = 8
_pDefendingPlayerDiploAI$222507 = -524			; size = 4
_pDefendingPlayerEspionage$222505 = -520		; size = 4
_strNotification$222475 = -516				; size = 80
_strSummary$222472 = -436				; size = 80
_strMsg$222464 = -356					; size = 28
_pNotifications$222470 = -328				; size = 4
_iGoal$222468 = -324					; size = 4
_iAmount$222469 = -320					; size = 4
_iRate$222467 = -316					; size = 4
_strMsg$222459 = -312					; size = 28
_strMsg$222452 = -284					; size = 28
__$ArrayPad$ = -256					; size = 4
_strNotification$222444 = -252				; size = 80
_strSummary$222435 = -172				; size = 80
_pNotifications$222433 = -88				; size = 4
_iRate$222450 = -84					; size = 4
_iGoal$222430 = -80					; size = 4
_iPotentialRate$222429 = -76				; size = 4
_iBasePotentialRate$222427 = -72			; size = 4
_iGoal$222425 = -68					; size = 4
_iRate$222424 = -64					; size = 4
_iGoal$222419 = -60					; size = 4
_iRate$222418 = -56					; size = 4
_iGoal$222414 = -52					; size = 4
_iRate$222413 = -48					; size = 4
_pSpy$ = -44						; size = 4
_pCityPlot$ = -40					; size = 4
_ePlayer$ = -36						; size = 4
_pCityEspionage$ = -32					; size = 4
_bHadSurveillance$ = -25				; size = 1
_pCity$ = -24						; size = 4
_eCityOwner$ = -20					; size = 4
_bLastQualified$ = -13					; size = 1
__$EHRec$ = -12						; size = 12
_uiSpyIndex$ = 8					; size = 4
?ProcessSpy@CvPlayerEspionage@@QAEXI@Z PROC		; CvPlayerEspionage::ProcessSpy, COMDAT
; _this$ = ecx

; 243  : {

	push	ebp
	mov	ebp, esp
	push	-1
	push	__ehhandler$?ProcessSpy@CvPlayerEspionage@@QAEXI@Z
	mov	eax, DWORD PTR fs:0
	push	eax
	sub	esp, 2064				; 00000810H
	mov	eax, DWORD PTR ___security_cookie
	xor	eax, ebp
	mov	DWORD PTR __$ArrayPad$[ebp], eax
	push	eax
	lea	eax, DWORD PTR __$EHRec$[ebp]
	mov	DWORD PTR fs:0, eax
	mov	DWORD PTR _this$[ebp], ecx

; 244  : 	CvEspionageSpy* pSpy = &(m_aSpyList[uiSpyIndex]);

	mov	eax, DWORD PTR _uiSpyIndex$[ebp]
	imul	eax, 28					; 0000001cH
	mov	ecx, DWORD PTR _this$[ebp]
	add	eax, DWORD PTR [ecx+4]
	mov	DWORD PTR _pSpy$[ebp], eax

; 245  : 	bool bLastQualified;
; 246  : 	CvPlot* pCityPlot = GC.getMap().plot(pSpy->m_iCityX, pSpy->m_iCityY);

	mov	edx, DWORD PTR ?gGlobals@@3VCvGlobals@@A+52
	mov	DWORD PTR $T234214[ebp], edx
	mov	eax, DWORD PTR _pSpy$[ebp]
	mov	ecx, DWORD PTR [eax+8]
	mov	DWORD PTR $T234277[ebp], ecx
	mov	edx, DWORD PTR _pSpy$[ebp]
	mov	eax, DWORD PTR [edx+4]
	mov	DWORD PTR $T234276[ebp], eax
	cmp	DWORD PTR $T234276[ebp], -2147483647	; 80000001H
	je	SHORT $LN119@ProcessSpy
	cmp	DWORD PTR $T234277[ebp], -2147483647	; 80000001H
	jne	SHORT $LN120@ProcessSpy
$LN119@ProcessSpy:
	mov	DWORD PTR _pCityPlot$[ebp], 0
	jmp	$LN121@ProcessSpy
$LN120@ProcessSpy:
	mov	ecx, DWORD PTR $T234214[ebp]
	mov	dl, BYTE PTR [ecx+4056]
	mov	BYTE PTR $T234221[ebp], dl
	mov	eax, DWORD PTR $T234214[ebp]
	mov	ecx, DWORD PTR [eax+4020]
	mov	DWORD PTR $T234225[ebp], ecx
	movzx	edx, BYTE PTR $T234221[ebp]
	test	edx, edx
	je	SHORT $LN132@ProcessSpy
	cmp	DWORD PTR $T234276[ebp], 0
	jge	SHORT $LN131@ProcessSpy
	mov	eax, DWORD PTR $T234276[ebp]
	cdq
	idiv	DWORD PTR $T234225[ebp]
	add	edx, DWORD PTR $T234225[ebp]
	mov	DWORD PTR _iMapX$234253[ebp], edx
	jmp	SHORT $LN133@ProcessSpy
	jmp	SHORT $LN132@ProcessSpy
$LN131@ProcessSpy:
	mov	eax, DWORD PTR $T234276[ebp]
	cmp	eax, DWORD PTR $T234225[ebp]
	jl	SHORT $LN132@ProcessSpy
	mov	eax, DWORD PTR $T234276[ebp]
	cdq
	idiv	DWORD PTR $T234225[ebp]
	mov	DWORD PTR _iMapX$234253[ebp], edx
	jmp	SHORT $LN133@ProcessSpy
$LN132@ProcessSpy:
	mov	ecx, DWORD PTR $T234276[ebp]
	mov	DWORD PTR _iMapX$234253[ebp], ecx
$LN133@ProcessSpy:
	mov	edx, DWORD PTR $T234214[ebp]
	mov	al, BYTE PTR [edx+4057]
	mov	BYTE PTR $T234236[ebp], al
	mov	ecx, DWORD PTR $T234214[ebp]
	mov	edx, DWORD PTR [ecx+4024]
	mov	DWORD PTR $T234240[ebp], edx
	movzx	eax, BYTE PTR $T234236[ebp]
	push	eax
	mov	ecx, DWORD PTR $T234240[ebp]
	push	ecx
	mov	edx, DWORD PTR $T234277[ebp]
	push	edx
	call	?coordRange@@YAHHH_N@Z			; coordRange
	add	esp, 12					; 0000000cH
	mov	DWORD PTR _iMapY$234255[ebp], eax
	mov	eax, DWORD PTR _iMapY$234255[ebp]
	push	eax
	mov	ecx, DWORD PTR _iMapX$234253[ebp]
	push	ecx
	mov	ecx, DWORD PTR $T234214[ebp]
	call	?isPlot@CvMap@@QBEHHH@Z			; CvMap::isPlot
	test	eax, eax
	je	SHORT $LN123@ProcessSpy
	mov	edx, DWORD PTR $T234214[ebp]
	mov	eax, DWORD PTR [edx+4020]
	mov	DWORD PTR $T234245[ebp], eax
	mov	ecx, DWORD PTR _iMapY$234255[ebp]
	imul	ecx, DWORD PTR $T234245[ebp]
	add	ecx, DWORD PTR _iMapX$234253[ebp]
	imul	ecx, 484				; 000001e4H
	mov	edx, DWORD PTR $T234214[ebp]
	add	ecx, DWORD PTR [edx+4068]
	mov	DWORD PTR tv1738[ebp], ecx
	jmp	SHORT $LN124@ProcessSpy
$LN123@ProcessSpy:
	mov	DWORD PTR tv1738[ebp], 0
$LN124@ProcessSpy:
	mov	eax, DWORD PTR tv1738[ebp]
	mov	DWORD PTR _pCityPlot$[ebp], eax
$LN121@ProcessSpy:

; 247  : 	CvCity* pCity = NULL;

	mov	DWORD PTR _pCity$[ebp], 0

; 248  : 	CvCityEspionage* pCityEspionage = NULL;

	mov	DWORD PTR _pCityEspionage$[ebp], 0

; 249  : 	PlayerTypes ePlayer = m_pPlayer->GetID();

	mov	ecx, DWORD PTR _this$[ebp]
	mov	edx, DWORD PTR [ecx+1296]
	mov	eax, DWORD PTR [edx+44]
	mov	DWORD PTR _ePlayer$[ebp], eax

; 250  : 	PlayerTypes eCityOwner = NO_PLAYER;

	mov	DWORD PTR _eCityOwner$[ebp], -1

; 251  : 	if(pCityPlot)

	cmp	DWORD PTR _pCityPlot$[ebp], 0
	je	SHORT $LN83@ProcessSpy

; 252  : 	{
; 253  : 		pCity = pCityPlot->getPlotCity();

	mov	ecx, DWORD PTR _pCityPlot$[ebp]
	call	?getPlotCity@CvPlot@@QBEPAVCvCity@@XZ	; CvPlot::getPlotCity
	mov	DWORD PTR _pCity$[ebp], eax

; 254  : 		if(pCity)

	cmp	DWORD PTR _pCity$[ebp], 0
	je	SHORT $LN83@ProcessSpy

; 255  : 		{
; 256  : 			eCityOwner = pCity->getOwner();

	mov	ecx, DWORD PTR _pCity$[ebp]
	mov	edx, DWORD PTR [ecx+84]
	mov	DWORD PTR _eCityOwner$[ebp], edx

; 257  : 			pCityEspionage = pCity->GetCityEspionage();

	mov	ecx, DWORD PTR _pCity$[ebp]
	call	?GetCityEspionage@CvCity@@QBEPAVCvCityEspionage@@XZ ; CvCity::GetCityEspionage
	mov	DWORD PTR _pCityEspionage$[ebp], eax
$LN83@ProcessSpy:

; 258  : 		}
; 259  : 	}
; 260  : 
; 261  : 	bool bHadSurveillance = HasEstablishedSurveillance(uiSpyIndex);

	mov	eax, DWORD PTR _uiSpyIndex$[ebp]
	push	eax
	mov	ecx, DWORD PTR _this$[ebp]
	call	?HasEstablishedSurveillance@CvPlayerEspionage@@QAE_NI@Z ; CvPlayerEspionage::HasEstablishedSurveillance
	mov	BYTE PTR _bHadSurveillance$[ebp], al

; 262  : 
; 263  : 	switch(pSpy->m_eSpyState)

	mov	ecx, DWORD PTR _pSpy$[ebp]
	mov	edx, DWORD PTR [ecx+16]
	mov	DWORD PTR tv95[ebp], edx
	cmp	DWORD PTR tv95[ebp], 8
	ja	$LN80@ProcessSpy
	mov	eax, DWORD PTR tv95[ebp]
	jmp	DWORD PTR $LN442@ProcessSpy[eax*4]
$LN79@ProcessSpy:

; 264  : 	{
; 265  : 	case SPY_STATE_UNASSIGNED:
; 266  : 		// spy is idling
; 267  : 		return;

	jmp	$LN84@ProcessSpy

; 268  : 		break;

	jmp	$LN80@ProcessSpy
$LN78@ProcessSpy:

; 269  : 	case SPY_STATE_TRAVELLING:
; 270  : 		// spy is traveling to location
; 271  : 		CvAssertMsg(pCity, "pCity not defined. What?");
; 272  : 		if(!pCity)

	cmp	DWORD PTR _pCity$[ebp], 0
	jne	SHORT $LN77@ProcessSpy

; 273  : 		{
; 274  : 			return;

	jmp	$LN84@ProcessSpy
$LN77@ProcessSpy:

; 275  : 		}
; 276  : 		// if the spy has completed travelling, move to location
; 277  : 		pCityEspionage->Process(ePlayer);

	mov	ecx, DWORD PTR _ePlayer$[ebp]
	push	ecx
	mov	ecx, DWORD PTR _pCityEspionage$[ebp]
	call	?Process@CvCityEspionage@@QAEXW4PlayerTypes@@@Z ; CvCityEspionage::Process

; 278  : 		if(pCityEspionage->HasReachedGoal(ePlayer))

	mov	edx, DWORD PTR _ePlayer$[ebp]
	push	edx
	mov	ecx, DWORD PTR _pCityEspionage$[ebp]
	call	?HasReachedGoal@CvCityEspionage@@QAE_NW4PlayerTypes@@@Z ; CvCityEspionage::HasReachedGoal
	movzx	eax, al
	test	eax, eax
	je	$LN76@ProcessSpy

; 279  : 		{
; 280  : 			pCityEspionage->ResetProgress(ePlayer);

	mov	ecx, DWORD PTR _ePlayer$[ebp]
	push	ecx
	mov	ecx, DWORD PTR _pCityEspionage$[ebp]
	call	?ResetProgress@CvCityEspionage@@QAEXW4PlayerTypes@@@Z ; CvCityEspionage::ResetProgress

; 281  : 			if (pSpy->m_bIsDiplomat)

	mov	edx, DWORD PTR _pSpy$[ebp]
	movzx	eax, BYTE PTR [edx+24]
	test	eax, eax
	je	SHORT $LN75@ProcessSpy

; 282  : 			{
; 283  : 				pSpy->m_eSpyState = SPY_STATE_MAKING_INTRODUCTIONS;

	mov	ecx, DWORD PTR _pSpy$[ebp]
	mov	DWORD PTR [ecx+16], 6

; 284  : 				int iRate = CalcPerTurn(SPY_STATE_MAKING_INTRODUCTIONS, pCity, uiSpyIndex);

	mov	edx, DWORD PTR _uiSpyIndex$[ebp]
	push	edx
	mov	eax, DWORD PTR _pCity$[ebp]
	push	eax
	push	6
	mov	ecx, DWORD PTR _this$[ebp]
	call	?CalcPerTurn@CvPlayerEspionage@@QAEHHPAVCvCity@@H@Z ; CvPlayerEspionage::CalcPerTurn
	mov	DWORD PTR _iRate$222413[ebp], eax

; 285  : 				int iGoal = CalcRequired(SPY_STATE_MAKING_INTRODUCTIONS, pCity, uiSpyIndex);

	mov	ecx, DWORD PTR _uiSpyIndex$[ebp]
	push	ecx
	mov	edx, DWORD PTR _pCity$[ebp]
	push	edx
	push	6
	mov	ecx, DWORD PTR _this$[ebp]
	call	?CalcRequired@CvPlayerEspionage@@QAEHHPAVCvCity@@H@Z ; CvPlayerEspionage::CalcRequired
	mov	DWORD PTR _iGoal$222414[ebp], eax

; 286  : 				pCityEspionage->SetActivity(ePlayer, 0, iRate, iGoal);				

	mov	eax, DWORD PTR _iGoal$222414[ebp]
	push	eax
	mov	ecx, DWORD PTR _iRate$222413[ebp]
	push	ecx
	push	0
	mov	edx, DWORD PTR _ePlayer$[ebp]
	push	edx
	mov	ecx, DWORD PTR _pCityEspionage$[ebp]
	call	?SetActivity@CvCityEspionage@@QAEXW4PlayerTypes@@HHH@Z ; CvCityEspionage::SetActivity
	jmp	$LN76@ProcessSpy
$LN75@ProcessSpy:

; 287  : 			}
; 288  : 			else if(pCity->getTeam() == m_pPlayer->getTeam())  // moved to a friendly city

	mov	eax, DWORD PTR _this$[ebp]
	mov	ecx, DWORD PTR [eax+1296]
	mov	DWORD PTR $T234307[ebp], ecx
	mov	edx, DWORD PTR $T234307[ebp]
	mov	eax, DWORD PTR [edx+44]
	push	eax
	call	?teamType@CvPreGame@@YA?AW4TeamTypes@@W4PlayerTypes@@@Z ; CvPreGame::teamType
	add	esp, 4
	mov	DWORD PTR $T234308[ebp], eax
	mov	ecx, DWORD PTR _pCity$[ebp]
	call	?getTeam@CvCity@@QBE?AW4TeamTypes@@XZ	; CvCity::getTeam
	cmp	eax, DWORD PTR $T234308[ebp]
	jne	SHORT $LN73@ProcessSpy

; 289  : 			{
; 290  : 				// moving to a defensive location
; 291  : 				pSpy->m_eSpyState = SPY_STATE_COUNTER_INTEL;

	mov	ecx, DWORD PTR _pSpy$[ebp]
	mov	DWORD PTR [ecx+16], 5

; 292  : 			}
; 293  : 			else // moved to an opponent's city

	jmp	SHORT $LN76@ProcessSpy
$LN73@ProcessSpy:

; 294  : 			{
; 295  : 				pSpy->m_eSpyState = SPY_STATE_SURVEILLANCE;

	mov	edx, DWORD PTR _pSpy$[ebp]
	mov	DWORD PTR [edx+16], 2

; 296  : 				int iRate = CalcPerTurn(SPY_STATE_SURVEILLANCE, pCity, uiSpyIndex);

	mov	eax, DWORD PTR _uiSpyIndex$[ebp]
	push	eax
	mov	ecx, DWORD PTR _pCity$[ebp]
	push	ecx
	push	2
	mov	ecx, DWORD PTR _this$[ebp]
	call	?CalcPerTurn@CvPlayerEspionage@@QAEHHPAVCvCity@@H@Z ; CvPlayerEspionage::CalcPerTurn
	mov	DWORD PTR _iRate$222418[ebp], eax

; 297  : 				int iGoal = CalcRequired(SPY_STATE_SURVEILLANCE, pCity, uiSpyIndex);

	mov	edx, DWORD PTR _uiSpyIndex$[ebp]
	push	edx
	mov	eax, DWORD PTR _pCity$[ebp]
	push	eax
	push	2
	mov	ecx, DWORD PTR _this$[ebp]
	call	?CalcRequired@CvPlayerEspionage@@QAEHHPAVCvCity@@H@Z ; CvPlayerEspionage::CalcRequired
	mov	DWORD PTR _iGoal$222419[ebp], eax

; 298  : 				pCityEspionage->SetActivity(ePlayer, 0, iRate, iGoal);

	mov	ecx, DWORD PTR _iGoal$222419[ebp]
	push	ecx
	mov	edx, DWORD PTR _iRate$222418[ebp]
	push	edx
	push	0
	mov	eax, DWORD PTR _ePlayer$[ebp]
	push	eax
	mov	ecx, DWORD PTR _pCityEspionage$[ebp]
	call	?SetActivity@CvCityEspionage@@QAEXW4PlayerTypes@@HHH@Z ; CvCityEspionage::SetActivity
$LN76@ProcessSpy:

; 299  : 			}
; 300  : 		}
; 301  : 		break;

	jmp	$LN80@ProcessSpy
$LN71@ProcessSpy:

; 302  : 	case SPY_STATE_SURVEILLANCE:
; 303  : 		CvAssertMsg(pCity, "pCity not defined. What?");
; 304  : 		if(!pCity)

	cmp	DWORD PTR _pCity$[ebp], 0
	jne	SHORT $LN70@ProcessSpy

; 305  : 		{
; 306  : 			return;

	jmp	$LN84@ProcessSpy
$LN70@ProcessSpy:

; 307  : 		}
; 308  : 
; 309  : 		bLastQualified = pCityEspionage->HasReachedGoal(ePlayer);

	mov	ecx, DWORD PTR _ePlayer$[ebp]
	push	ecx
	mov	ecx, DWORD PTR _pCityEspionage$[ebp]
	call	?HasReachedGoal@CvCityEspionage@@QAE_NW4PlayerTypes@@@Z ; CvCityEspionage::HasReachedGoal
	mov	BYTE PTR _bLastQualified$[ebp], al

; 310  : 		pCityEspionage->Process(ePlayer);

	mov	edx, DWORD PTR _ePlayer$[ebp]
	push	edx
	mov	ecx, DWORD PTR _pCityEspionage$[ebp]
	call	?Process@CvCityEspionage@@QAEXW4PlayerTypes@@@Z ; CvCityEspionage::Process

; 311  : 		if(pCityEspionage->HasReachedGoal(ePlayer))

	mov	eax, DWORD PTR _ePlayer$[ebp]
	push	eax
	mov	ecx, DWORD PTR _pCityEspionage$[ebp]
	call	?HasReachedGoal@CvCityEspionage@@QAE_NW4PlayerTypes@@@Z ; CvCityEspionage::HasReachedGoal
	movzx	ecx, al
	test	ecx, ecx
	je	$LN69@ProcessSpy

; 312  : 		{
; 313  : 			if(GET_PLAYER(eCityOwner).isMinorCiv())

	mov	edx, DWORD PTR _eCityOwner$[ebp]
	imul	edx, 63236				; 0000f704H
	add	edx, DWORD PTR ?m_aPlayers@CvPlayerAI@@1PAV1@A ; CvPlayerAI::m_aPlayers
	mov	DWORD PTR $T234312[ebp], edx
	mov	ecx, DWORD PTR $T234312[ebp]
	call	?isMinorCiv@CvPlayer@@QBE_NXZ		; CvPlayer::isMinorCiv
	movzx	eax, al
	test	eax, eax
	je	SHORT $LN68@ProcessSpy

; 314  : 			{
; 315  : 				pSpy->m_eSpyState = SPY_STATE_RIG_ELECTION;

	mov	ecx, DWORD PTR _pSpy$[ebp]
	mov	DWORD PTR [ecx+16], 4

; 316  : 				pCityEspionage->ResetProgress(ePlayer);

	mov	edx, DWORD PTR _ePlayer$[ebp]
	push	edx
	mov	ecx, DWORD PTR _pCityEspionage$[ebp]
	call	?ResetProgress@CvCityEspionage@@QAEXW4PlayerTypes@@@Z ; CvCityEspionage::ResetProgress

; 317  : 				int iRate = CalcPerTurn(SPY_STATE_RIG_ELECTION, pCity, uiSpyIndex);

	mov	eax, DWORD PTR _uiSpyIndex$[ebp]
	push	eax
	mov	ecx, DWORD PTR _pCity$[ebp]
	push	ecx
	push	4
	mov	ecx, DWORD PTR _this$[ebp]
	call	?CalcPerTurn@CvPlayerEspionage@@QAEHHPAVCvCity@@H@Z ; CvPlayerEspionage::CalcPerTurn
	mov	DWORD PTR _iRate$222424[ebp], eax

; 318  : 				int iGoal = CalcRequired(SPY_STATE_RIG_ELECTION, pCity, uiSpyIndex);

	mov	edx, DWORD PTR _uiSpyIndex$[ebp]
	push	edx
	mov	eax, DWORD PTR _pCity$[ebp]
	push	eax
	push	4
	mov	ecx, DWORD PTR _this$[ebp]
	call	?CalcRequired@CvPlayerEspionage@@QAEHHPAVCvCity@@H@Z ; CvPlayerEspionage::CalcRequired
	mov	DWORD PTR _iGoal$222425[ebp], eax

; 319  : 				pCityEspionage->SetActivity(ePlayer, 0, iRate, iGoal);

	mov	ecx, DWORD PTR _iGoal$222425[ebp]
	push	ecx
	mov	edx, DWORD PTR _iRate$222424[ebp]
	push	edx
	push	0
	mov	eax, DWORD PTR _ePlayer$[ebp]
	push	eax
	mov	ecx, DWORD PTR _pCityEspionage$[ebp]
	call	?SetActivity@CvCityEspionage@@QAEXW4PlayerTypes@@HHH@Z ; CvCityEspionage::SetActivity

; 320  : 				pCityEspionage->SetLastProgress(ePlayer, iRate);

	mov	ecx, DWORD PTR _iRate$222424[ebp]
	push	ecx
	mov	edx, DWORD PTR _ePlayer$[ebp]
	push	edx
	mov	ecx, DWORD PTR _pCityEspionage$[ebp]
	call	?SetLastProgress@CvCityEspionage@@QAEXW4PlayerTypes@@H@Z ; CvCityEspionage::SetLastProgress

; 321  : 			}
; 322  : 			else

	jmp	$LN69@ProcessSpy
$LN68@ProcessSpy:

; 323  : 			{
; 324  : 				BuildStealableTechList(eCityOwner);

	mov	eax, DWORD PTR _eCityOwner$[ebp]
	push	eax
	mov	ecx, DWORD PTR _this$[ebp]
	call	?BuildStealableTechList@CvPlayerEspionage@@QAEXW4PlayerTypes@@@Z ; CvPlayerEspionage::BuildStealableTechList

; 325  : 				// moved rate out here to set the potential
; 326  : 				int iBasePotentialRate = CalcPerTurn(SPY_STATE_GATHERING_INTEL, pCity, -1);

	push	-1
	mov	ecx, DWORD PTR _pCity$[ebp]
	push	ecx
	push	3
	mov	ecx, DWORD PTR _this$[ebp]
	call	?CalcPerTurn@CvPlayerEspionage@@QAEHHPAVCvCity@@H@Z ; CvPlayerEspionage::CalcPerTurn
	mov	DWORD PTR _iBasePotentialRate$222427[ebp], eax

; 327  : 				pCityEspionage->SetLastBasePotential(ePlayer, iBasePotentialRate);

	mov	edx, DWORD PTR _iBasePotentialRate$222427[ebp]
	push	edx
	mov	eax, DWORD PTR _ePlayer$[ebp]
	push	eax
	mov	ecx, DWORD PTR _pCityEspionage$[ebp]
	call	?SetLastBasePotential@CvCityEspionage@@QAEXW4PlayerTypes@@H@Z ; CvCityEspionage::SetLastBasePotential

; 328  : 
; 329  : 				if(m_aaPlayerStealableTechList[eCityOwner].size() > 0)

	mov	ecx, DWORD PTR _eCityOwner$[ebp]
	imul	ecx, 20					; 00000014H
	mov	edx, DWORD PTR _this$[ebp]
	add	ecx, DWORD PTR [edx+264]
	mov	DWORD PTR $T234316[ebp], ecx
	mov	eax, DWORD PTR $T234316[ebp]
	mov	ecx, DWORD PTR [eax+4]
	mov	DWORD PTR $T234320[ebp], ecx
	cmp	DWORD PTR $T234320[ebp], 0
	jbe	$LN66@ProcessSpy

; 330  : 				{
; 331  : 					// TODO: need to proclaim surveillance somehow
; 332  : 					pSpy->m_eSpyState = SPY_STATE_GATHERING_INTEL;

	mov	edx, DWORD PTR _pSpy$[ebp]
	mov	DWORD PTR [edx+16], 3

; 333  : 					pCityEspionage->ResetProgress(ePlayer);

	mov	eax, DWORD PTR _ePlayer$[ebp]
	push	eax
	mov	ecx, DWORD PTR _pCityEspionage$[ebp]
	call	?ResetProgress@CvCityEspionage@@QAEXW4PlayerTypes@@@Z ; CvCityEspionage::ResetProgress

; 334  : 					int iPotentialRate = CalcPerTurn(SPY_STATE_GATHERING_INTEL, pCity, uiSpyIndex);

	mov	ecx, DWORD PTR _uiSpyIndex$[ebp]
	push	ecx
	mov	edx, DWORD PTR _pCity$[ebp]
	push	edx
	push	3
	mov	ecx, DWORD PTR _this$[ebp]
	call	?CalcPerTurn@CvPlayerEspionage@@QAEHHPAVCvCity@@H@Z ; CvPlayerEspionage::CalcPerTurn
	mov	DWORD PTR _iPotentialRate$222429[ebp], eax

; 335  : 					int iGoal = CalcRequired(SPY_STATE_GATHERING_INTEL, pCity, uiSpyIndex);

	mov	eax, DWORD PTR _uiSpyIndex$[ebp]
	push	eax
	mov	ecx, DWORD PTR _pCity$[ebp]
	push	ecx
	push	3
	mov	ecx, DWORD PTR _this$[ebp]
	call	?CalcRequired@CvPlayerEspionage@@QAEHHPAVCvCity@@H@Z ; CvPlayerEspionage::CalcRequired
	mov	DWORD PTR _iGoal$222430[ebp], eax

; 336  : 					pCityEspionage->SetActivity(ePlayer, 0, iPotentialRate, iGoal);

	mov	edx, DWORD PTR _iGoal$222430[ebp]
	push	edx
	mov	eax, DWORD PTR _iPotentialRate$222429[ebp]
	push	eax
	push	0
	mov	ecx, DWORD PTR _ePlayer$[ebp]
	push	ecx
	mov	ecx, DWORD PTR _pCityEspionage$[ebp]
	call	?SetActivity@CvCityEspionage@@QAEXW4PlayerTypes@@HHH@Z ; CvCityEspionage::SetActivity

; 337  : 					pCityEspionage->SetLastProgress(ePlayer, iPotentialRate);

	mov	edx, DWORD PTR _iPotentialRate$222429[ebp]
	push	edx
	mov	eax, DWORD PTR _ePlayer$[ebp]
	push	eax
	mov	ecx, DWORD PTR _pCityEspionage$[ebp]
	call	?SetLastProgress@CvCityEspionage@@QAEXW4PlayerTypes@@H@Z ; CvCityEspionage::SetLastProgress

; 338  : 					pCityEspionage->SetLastPotential(ePlayer, iPotentialRate);

	mov	ecx, DWORD PTR _iPotentialRate$222429[ebp]
	push	ecx
	mov	edx, DWORD PTR _ePlayer$[ebp]
	push	edx
	mov	ecx, DWORD PTR _pCityEspionage$[ebp]
	call	?SetLastPotential@CvCityEspionage@@QAEXW4PlayerTypes@@H@Z ; CvCityEspionage::SetLastPotential

; 339  : 				}
; 340  : 				else

	jmp	$LN65@ProcessSpy
$LN66@ProcessSpy:

; 341  : 				{
; 342  : 					// if this is the first time they crossed the threshold
; 343  : 					if(!bLastQualified)

	movzx	eax, BYTE PTR _bLastQualified$[ebp]
	test	eax, eax
	jne	$LN64@ProcessSpy

; 344  : 					{
; 345  : 						CvNotifications* pNotifications = m_pPlayer->GetNotifications();

	mov	ecx, DWORD PTR _this$[ebp]
	mov	ecx, DWORD PTR [ecx+1296]
	call	?GetNotifications@CvPlayer@@QBEPAVCvNotifications@@XZ ; CvPlayer::GetNotifications
	mov	DWORD PTR _pNotifications$222433[ebp], eax

; 346  : 						if(pNotifications)

	cmp	DWORD PTR _pNotifications$222433[ebp], 0
	je	$LN64@ProcessSpy

; 347  : 						{
; 348  : 							Localization::String strSummary = Localization::Lookup("TXT_KEY_NOTIFICATION_SPY_CANT_STEAL_TECH_S");

	push	OFFSET ??_C@_0CL@NCDINLIE@TXT_KEY_NOTIFICATION_SPY_CANT_ST@
	lea	edx, DWORD PTR _strSummary$222435[ebp]
	push	edx
	call	DWORD PTR __imp_?Lookup@Localization@@YA?AVString@1@PBD@Z
	add	esp, 8
	mov	DWORD PTR __$EHRec$[ebp+8], 0

; 349  : 							strSummary << GET_PLAYER(eCityOwner).getCivilizationInfo().getShortDescriptionKey();

	mov	eax, DWORD PTR _eCityOwner$[ebp]
	imul	eax, 63236				; 0000f704H
	add	eax, DWORD PTR ?m_aPlayers@CvPlayerAI@@1PAV1@A ; CvPlayerAI::m_aPlayers
	mov	DWORD PTR $T234324[ebp], eax
	mov	ecx, DWORD PTR $T234324[ebp]
	call	?getCivilizationInfo@CvPlayer@@QBEAAVCvCivilizationInfo@@XZ ; CvPlayer::getCivilizationInfo
	mov	ecx, eax
	call	?getShortDescriptionKey@CvCivilizationBaseInfo@@QBEPBDXZ ; CvCivilizationBaseInfo::getShortDescriptionKey
	mov	DWORD PTR $T234149[ebp], eax
	lea	ecx, DWORD PTR $T234149[ebp]
	push	ecx
	lea	edx, DWORD PTR _strSummary$222435[ebp]
	push	edx
	call	??$?6PBD@@YAAAVString@Localization@@AAV01@ABQBD@Z ; operator<<<char const *>
	add	esp, 8

; 350  : 							Localization::String strNotification = Localization::Lookup("TXT_KEY_NOTIFICATION_SPY_CANT_STEAL_TECH");

	push	OFFSET ??_C@_0CJ@BAAFJABO@TXT_KEY_NOTIFICATION_SPY_CANT_ST@
	lea	eax, DWORD PTR _strNotification$222444[ebp]
	push	eax
	call	DWORD PTR __imp_?Lookup@Localization@@YA?AVString@1@PBD@Z
	add	esp, 8
	mov	BYTE PTR __$EHRec$[ebp+8], 1

; 351  : 							strNotification << GetSpyRankName(pSpy->m_eRank);;

	mov	ecx, DWORD PTR _pSpy$[ebp]
	mov	edx, DWORD PTR [ecx+12]
	push	edx
	mov	ecx, DWORD PTR _this$[ebp]
	call	?GetSpyRankName@CvPlayerEspionage@@QBEPBDH@Z ; CvPlayerEspionage::GetSpyRankName
	mov	DWORD PTR $T234150[ebp], eax
	lea	eax, DWORD PTR $T234150[ebp]
	push	eax
	lea	ecx, DWORD PTR _strNotification$222444[ebp]
	push	ecx
	call	??$?6PBD@@YAAAVString@Localization@@AAV01@ABQBD@Z ; operator<<<char const *>
	add	esp, 8

; 352  : 							strNotification << m_pPlayer->getCivilizationInfo().getSpyNames(pSpy->m_iName);

	mov	edx, DWORD PTR _pSpy$[ebp]
	mov	eax, DWORD PTR [edx]
	push	eax
	mov	ecx, DWORD PTR _this$[ebp]
	mov	ecx, DWORD PTR [ecx+1296]
	call	?getCivilizationInfo@CvPlayer@@QBEAAVCvCivilizationInfo@@XZ ; CvPlayer::getCivilizationInfo
	mov	ecx, eax
	call	?getSpyNames@CvCivilizationInfo@@QBEPBDH@Z ; CvCivilizationInfo::getSpyNames
	mov	DWORD PTR $T234151[ebp], eax
	lea	edx, DWORD PTR $T234151[ebp]
	push	edx
	lea	eax, DWORD PTR _strNotification$222444[ebp]
	push	eax
	call	??$?6PBD@@YAAAVString@Localization@@AAV01@ABQBD@Z ; operator<<<char const *>
	add	esp, 8

; 353  : 							strNotification << GET_PLAYER(eCityOwner).getCivilizationInfo().getShortDescriptionKey();

	mov	ecx, DWORD PTR _eCityOwner$[ebp]
	imul	ecx, 63236				; 0000f704H
	add	ecx, DWORD PTR ?m_aPlayers@CvPlayerAI@@1PAV1@A ; CvPlayerAI::m_aPlayers
	mov	DWORD PTR $T234328[ebp], ecx
	mov	ecx, DWORD PTR $T234328[ebp]
	call	?getCivilizationInfo@CvPlayer@@QBEAAVCvCivilizationInfo@@XZ ; CvPlayer::getCivilizationInfo
	mov	ecx, eax
	call	?getShortDescriptionKey@CvCivilizationBaseInfo@@QBEPBDXZ ; CvCivilizationBaseInfo::getShortDescriptionKey
	mov	DWORD PTR $T234152[ebp], eax
	lea	edx, DWORD PTR $T234152[ebp]
	push	edx
	lea	eax, DWORD PTR _strNotification$222444[ebp]
	push	eax
	call	??$?6PBD@@YAAAVString@Localization@@AAV01@ABQBD@Z ; operator<<<char const *>
	add	esp, 8

; 354  : 							pNotifications->Add(NOTIFICATION_SPY_CANT_STEAL_TECH, strNotification.toUTF8(), strSummary.toUTF8(), -1, -1, -1);

	push	-1
	push	-1
	push	-1
	push	-1
	lea	ecx, DWORD PTR _strSummary$222435[ebp]
	call	DWORD PTR __imp_?toUTF8@String@Localization@@QAEPBDXZ
	push	eax
	lea	ecx, DWORD PTR _strNotification$222444[ebp]
	call	DWORD PTR __imp_?toUTF8@String@Localization@@QAEPBDXZ
	push	eax
	push	240697813				; 0e58c1d5H
	mov	ecx, DWORD PTR _pNotifications$222433[ebp]
	call	?Add@CvNotifications@@QAEHW4NotificationTypes@@PBD1HHHH@Z ; CvNotifications::Add

; 355  : 						}

	mov	BYTE PTR __$EHRec$[ebp+8], 0
	lea	ecx, DWORD PTR _strNotification$222444[ebp]
	call	DWORD PTR __imp_??1String@Localization@@UAE@XZ
	mov	DWORD PTR __$EHRec$[ebp+8], -1
	lea	ecx, DWORD PTR _strSummary$222435[ebp]
	call	DWORD PTR __imp_??1String@Localization@@UAE@XZ
$LN64@ProcessSpy:

; 356  : 					}
; 357  : 					int iRate = CalcPerTurn(SPY_STATE_SURVEILLANCE, pCity, uiSpyIndex);

	mov	ecx, DWORD PTR _uiSpyIndex$[ebp]
	push	ecx
	mov	edx, DWORD PTR _pCity$[ebp]
	push	edx
	push	2
	mov	ecx, DWORD PTR _this$[ebp]
	call	?CalcPerTurn@CvPlayerEspionage@@QAEHHPAVCvCity@@H@Z ; CvPlayerEspionage::CalcPerTurn
	mov	DWORD PTR _iRate$222450[ebp], eax

; 358  : 					pCityEspionage->SetLastProgress(ePlayer, iRate);

	mov	eax, DWORD PTR _iRate$222450[ebp]
	push	eax
	mov	ecx, DWORD PTR _ePlayer$[ebp]
	push	ecx
	mov	ecx, DWORD PTR _pCityEspionage$[ebp]
	call	?SetLastProgress@CvCityEspionage@@QAEXW4PlayerTypes@@H@Z ; CvCityEspionage::SetLastProgress

; 359  : 					pCityEspionage->SetLastPotential(ePlayer, -1); // set the last potential back to zero so that 

	push	-1
	mov	edx, DWORD PTR _ePlayer$[ebp]
	push	edx
	mov	ecx, DWORD PTR _pCityEspionage$[ebp]
	call	?SetLastPotential@CvCityEspionage@@QAEXW4PlayerTypes@@H@Z ; CvCityEspionage::SetLastPotential

; 360  : 					pSpy->m_bEvaluateReassignment = true; // flag to re-evaluate because we can't steal

	mov	eax, DWORD PTR _pSpy$[ebp]
	mov	BYTE PTR [eax+25], 1

; 361  : 					if(GC.getLogging())

	mov	ecx, OFFSET ?gGlobals@@3VCvGlobals@@A	; gGlobals
	call	?getLogging@CvGlobals@@QAE_NXZ		; CvGlobals::getLogging
	movzx	ecx, al
	test	ecx, ecx
	je	$LN65@ProcessSpy

; 362  : 					{
; 363  : 						CvString strMsg;

	lea	ecx, DWORD PTR _strMsg$222452[ebp]
	call	DWORD PTR __imp_??0?$basic_string@DU?$char_traits@D@std@@V?$allocator@D@2@@std@@QAE@XZ
	mov	DWORD PTR __$EHRec$[ebp+8], 2

; 364  : 						strMsg.Format("Re-eval: can't steal research, %d,", uiSpyIndex);

	mov	edx, DWORD PTR _uiSpyIndex$[ebp]
	push	edx
	push	OFFSET ??_C@_0CD@ECMMHFBE@Re?9eval?3?5can?8t?5steal?5research?0?5?$CF@
	lea	eax, DWORD PTR _strMsg$222452[ebp]
	push	eax
	call	?Format@CvString@@QAAXPBDZZ		; CvString::Format
	add	esp, 12					; 0000000cH

; 365  : 						strMsg += GetLocalizedText(m_pPlayer->getCivilizationInfo().getSpyNames(pSpy->m_iName));

	mov	ecx, DWORD PTR _pSpy$[ebp]
	mov	edx, DWORD PTR [ecx]
	push	edx
	mov	eax, DWORD PTR _this$[ebp]
	mov	ecx, DWORD PTR [eax+1296]
	call	?getCivilizationInfo@CvPlayer@@QBEAAVCvCivilizationInfo@@XZ ; CvPlayer::getCivilizationInfo
	mov	ecx, eax
	call	?getSpyNames@CvCivilizationInfo@@QBEPBDH@Z ; CvCivilizationInfo::getSpyNames
	push	eax
	lea	ecx, DWORD PTR $T234153[ebp]
	push	ecx
	call	?GetLocalizedText@@YA?AVCvString@@PBD@Z	; GetLocalizedText
	add	esp, 8
	mov	DWORD PTR tv281[ebp], eax
	mov	edx, DWORD PTR tv281[ebp]
	mov	DWORD PTR tv1640[ebp], edx
	mov	BYTE PTR __$EHRec$[ebp+8], 3
	mov	eax, DWORD PTR tv1640[ebp]
	push	eax
	lea	ecx, DWORD PTR _strMsg$222452[ebp]
	call	DWORD PTR __imp_??Y?$basic_string@DU?$char_traits@D@std@@V?$allocator@D@2@@std@@QAEAAV01@ABV01@@Z
	mov	BYTE PTR __$EHRec$[ebp+8], 2
	lea	ecx, DWORD PTR $T234153[ebp]
	call	DWORD PTR __imp_??1?$basic_string@DU?$char_traits@D@std@@V?$allocator@D@2@@std@@QAE@XZ

; 366  : 						LogEspionageMsg(strMsg);

	lea	ecx, DWORD PTR _strMsg$222452[ebp]
	push	ecx
	mov	ecx, DWORD PTR _this$[ebp]
	call	?LogEspionageMsg@CvPlayerEspionage@@QAEXAAVCvString@@@Z ; CvPlayerEspionage::LogEspionageMsg

; 367  : 					}

	mov	DWORD PTR __$EHRec$[ebp+8], -1
	lea	ecx, DWORD PTR _strMsg$222452[ebp]
	call	DWORD PTR __imp_??1?$basic_string@DU?$char_traits@D@std@@V?$allocator@D@2@@std@@QAE@XZ
$LN65@ProcessSpy:

; 368  : 
; 369  : 				}
; 370  : 				UncoverIntrigue(uiSpyIndex);

	mov	edx, DWORD PTR _uiSpyIndex$[ebp]
	push	edx
	mov	ecx, DWORD PTR _this$[ebp]
	call	?UncoverIntrigue@CvPlayerEspionage@@QAEXI@Z ; CvPlayerEspionage::UncoverIntrigue
$LN69@ProcessSpy:

; 371  : 			}
; 372  : 		}
; 373  : 		break;

	jmp	$LN80@ProcessSpy
$LN61@ProcessSpy:

; 374  : 	case SPY_STATE_GATHERING_INTEL:
; 375  : 		CvAssertMsg(pCity, "pCity not defined. What?");
; 376  : 		if(!pCity)

	cmp	DWORD PTR _pCity$[ebp], 0
	jne	SHORT $LN60@ProcessSpy

; 377  : 		{
; 378  : 			return;

	jmp	$LN84@ProcessSpy
$LN60@ProcessSpy:

; 379  : 		}
; 380  : 		BuildStealableTechList(eCityOwner);

	mov	eax, DWORD PTR _eCityOwner$[ebp]
	push	eax
	mov	ecx, DWORD PTR _this$[ebp]
	call	?BuildStealableTechList@CvPlayerEspionage@@QAEXW4PlayerTypes@@@Z ; CvPlayerEspionage::BuildStealableTechList

; 381  : 		pCityEspionage->Process(ePlayer);

	mov	ecx, DWORD PTR _ePlayer$[ebp]
	push	ecx
	mov	ecx, DWORD PTR _pCityEspionage$[ebp]
	call	?Process@CvCityEspionage@@QAEXW4PlayerTypes@@@Z ; CvCityEspionage::Process

; 382  : 		// if the rate is too low, reassign the spy
; 383  : 		if (pCityEspionage->m_aiRate[m_pPlayer->GetID()] < 100)

	mov	edx, DWORD PTR _this$[ebp]
	mov	eax, DWORD PTR [edx+1296]
	mov	ecx, DWORD PTR [eax+44]
	mov	DWORD PTR $T234349[ebp], ecx
	mov	edx, DWORD PTR $T234349[ebp]
	mov	eax, DWORD PTR _pCityEspionage$[ebp]
	cmp	DWORD PTR [eax+edx*4+180], 100		; 00000064H
	jge	$LN59@ProcessSpy

; 384  : 		{
; 385  : 			pSpy->m_bEvaluateReassignment = true;

	mov	ecx, DWORD PTR _pSpy$[ebp]
	mov	BYTE PTR [ecx+25], 1

; 386  : 			if(GC.getLogging())

	mov	ecx, OFFSET ?gGlobals@@3VCvGlobals@@A	; gGlobals
	call	?getLogging@CvGlobals@@QAE_NXZ		; CvGlobals::getLogging
	movzx	edx, al
	test	edx, edx
	je	$LN59@ProcessSpy

; 387  : 			{
; 388  : 				CvString strMsg;

	lea	ecx, DWORD PTR _strMsg$222459[ebp]
	call	DWORD PTR __imp_??0?$basic_string@DU?$char_traits@D@std@@V?$allocator@D@2@@std@@QAE@XZ
	mov	DWORD PTR __$EHRec$[ebp+8], 4

; 389  : 				strMsg.Format("Re-eval: potential too low, %d,", uiSpyIndex);

	mov	eax, DWORD PTR _uiSpyIndex$[ebp]
	push	eax
	push	OFFSET ??_C@_0CA@BCANPJFI@Re?9eval?3?5potential?5too?5low?0?5?$CFd?0?$AA@
	lea	ecx, DWORD PTR _strMsg$222459[ebp]
	push	ecx
	call	?Format@CvString@@QAAXPBDZZ		; CvString::Format
	add	esp, 12					; 0000000cH

; 390  : 				strMsg += GetLocalizedText(m_pPlayer->getCivilizationInfo().getSpyNames(pSpy->m_iName));

	mov	edx, DWORD PTR _pSpy$[ebp]
	mov	eax, DWORD PTR [edx]
	push	eax
	mov	ecx, DWORD PTR _this$[ebp]
	mov	ecx, DWORD PTR [ecx+1296]
	call	?getCivilizationInfo@CvPlayer@@QBEAAVCvCivilizationInfo@@XZ ; CvPlayer::getCivilizationInfo
	mov	ecx, eax
	call	?getSpyNames@CvCivilizationInfo@@QBEPBDH@Z ; CvCivilizationInfo::getSpyNames
	push	eax
	lea	edx, DWORD PTR $T234154[ebp]
	push	edx
	call	?GetLocalizedText@@YA?AVCvString@@PBD@Z	; GetLocalizedText
	add	esp, 8
	mov	DWORD PTR tv277[ebp], eax
	mov	eax, DWORD PTR tv277[ebp]
	mov	DWORD PTR tv1643[ebp], eax
	mov	BYTE PTR __$EHRec$[ebp+8], 5
	mov	ecx, DWORD PTR tv1643[ebp]
	push	ecx
	lea	ecx, DWORD PTR _strMsg$222459[ebp]
	call	DWORD PTR __imp_??Y?$basic_string@DU?$char_traits@D@std@@V?$allocator@D@2@@std@@QAEAAV01@ABV01@@Z
	mov	BYTE PTR __$EHRec$[ebp+8], 4
	lea	ecx, DWORD PTR $T234154[ebp]
	call	DWORD PTR __imp_??1?$basic_string@DU?$char_traits@D@std@@V?$allocator@D@2@@std@@QAE@XZ

; 391  : 				LogEspionageMsg(strMsg);

	lea	edx, DWORD PTR _strMsg$222459[ebp]
	push	edx
	mov	ecx, DWORD PTR _this$[ebp]
	call	?LogEspionageMsg@CvPlayerEspionage@@QAEXAAVCvString@@@Z ; CvPlayerEspionage::LogEspionageMsg

; 392  : 			}

	mov	DWORD PTR __$EHRec$[ebp+8], -1
	lea	ecx, DWORD PTR _strMsg$222459[ebp]
	call	DWORD PTR __imp_??1?$basic_string@DU?$char_traits@D@std@@V?$allocator@D@2@@std@@QAE@XZ
$LN59@ProcessSpy:

; 393  : 		}
; 394  : 
; 395  : 		if(m_aaPlayerStealableTechList[eCityOwner].size() == 0)

	mov	eax, DWORD PTR _eCityOwner$[ebp]
	imul	eax, 20					; 00000014H
	mov	ecx, DWORD PTR _this$[ebp]
	add	eax, DWORD PTR [ecx+264]
	mov	DWORD PTR $T234368[ebp], eax
	mov	edx, DWORD PTR $T234368[ebp]
	mov	eax, DWORD PTR [edx+4]
	mov	DWORD PTR $T234372[ebp], eax
	cmp	DWORD PTR $T234372[ebp], 0
	jne	$LN57@ProcessSpy

; 396  : 		{
; 397  : 			// set the spy back to surveillance mode
; 398  : 			pCityEspionage->ResetProgress(ePlayer);

	mov	ecx, DWORD PTR _ePlayer$[ebp]
	push	ecx
	mov	ecx, DWORD PTR _pCityEspionage$[ebp]
	call	?ResetProgress@CvCityEspionage@@QAEXW4PlayerTypes@@@Z ; CvCityEspionage::ResetProgress

; 399  : 			pSpy->m_eSpyState = SPY_STATE_SURVEILLANCE;

	mov	edx, DWORD PTR _pSpy$[ebp]
	mov	DWORD PTR [edx+16], 2

; 400  : 			pSpy->m_bEvaluateReassignment = true; // flag for reassignment

	mov	eax, DWORD PTR _pSpy$[ebp]
	mov	BYTE PTR [eax+25], 1

; 401  : 			if(GC.getLogging())

	mov	ecx, OFFSET ?gGlobals@@3VCvGlobals@@A	; gGlobals
	call	?getLogging@CvGlobals@@QAE_NXZ		; CvGlobals::getLogging
	movzx	ecx, al
	test	ecx, ecx
	je	$LN56@ProcessSpy

; 402  : 			{
; 403  : 				CvString strMsg;

	lea	ecx, DWORD PTR _strMsg$222464[ebp]
	call	DWORD PTR __imp_??0?$basic_string@DU?$char_traits@D@std@@V?$allocator@D@2@@std@@QAE@XZ
	mov	DWORD PTR __$EHRec$[ebp+8], 6

; 404  : 				strMsg.Format("Re-eval: m_aaPlayerStealableTechList[eCityOwner].size() == 0, %d,", uiSpyIndex);

	mov	edx, DWORD PTR _uiSpyIndex$[ebp]
	push	edx
	push	OFFSET ??_C@_0EC@CFADMBFJ@Re?9eval?3?5m_aaPlayerStealableTech@
	lea	eax, DWORD PTR _strMsg$222464[ebp]
	push	eax
	call	?Format@CvString@@QAAXPBDZZ		; CvString::Format
	add	esp, 12					; 0000000cH

; 405  : 				strMsg += GetLocalizedText(m_pPlayer->getCivilizationInfo().getSpyNames(pSpy->m_iName));

	mov	ecx, DWORD PTR _pSpy$[ebp]
	mov	edx, DWORD PTR [ecx]
	push	edx
	mov	eax, DWORD PTR _this$[ebp]
	mov	ecx, DWORD PTR [eax+1296]
	call	?getCivilizationInfo@CvPlayer@@QBEAAVCvCivilizationInfo@@XZ ; CvPlayer::getCivilizationInfo
	mov	ecx, eax
	call	?getSpyNames@CvCivilizationInfo@@QBEPBDH@Z ; CvCivilizationInfo::getSpyNames
	push	eax
	lea	ecx, DWORD PTR $T234155[ebp]
	push	ecx
	call	?GetLocalizedText@@YA?AVCvString@@PBD@Z	; GetLocalizedText
	add	esp, 8
	mov	DWORD PTR tv2049[ebp], eax
	mov	edx, DWORD PTR tv2049[ebp]
	mov	DWORD PTR tv1646[ebp], edx
	mov	BYTE PTR __$EHRec$[ebp+8], 7
	mov	eax, DWORD PTR tv1646[ebp]
	push	eax
	lea	ecx, DWORD PTR _strMsg$222464[ebp]
	call	DWORD PTR __imp_??Y?$basic_string@DU?$char_traits@D@std@@V?$allocator@D@2@@std@@QAEAAV01@ABV01@@Z
	mov	BYTE PTR __$EHRec$[ebp+8], 6
	lea	ecx, DWORD PTR $T234155[ebp]
	call	DWORD PTR __imp_??1?$basic_string@DU?$char_traits@D@std@@V?$allocator@D@2@@std@@QAE@XZ

; 406  : 				LogEspionageMsg(strMsg);

	lea	ecx, DWORD PTR _strMsg$222464[ebp]
	push	ecx
	mov	ecx, DWORD PTR _this$[ebp]
	call	?LogEspionageMsg@CvPlayerEspionage@@QAEXAAVCvString@@@Z ; CvPlayerEspionage::LogEspionageMsg

; 407  : 			}

	mov	DWORD PTR __$EHRec$[ebp+8], -1
	lea	ecx, DWORD PTR _strMsg$222464[ebp]
	call	DWORD PTR __imp_??1?$basic_string@DU?$char_traits@D@std@@V?$allocator@D@2@@std@@QAE@XZ
$LN56@ProcessSpy:

; 408  : 
; 409  : 			int iRate = CalcPerTurn(SPY_STATE_SURVEILLANCE, pCity, uiSpyIndex);

	mov	edx, DWORD PTR _uiSpyIndex$[ebp]
	push	edx
	mov	eax, DWORD PTR _pCity$[ebp]
	push	eax
	push	2
	mov	ecx, DWORD PTR _this$[ebp]
	call	?CalcPerTurn@CvPlayerEspionage@@QAEHHPAVCvCity@@H@Z ; CvPlayerEspionage::CalcPerTurn
	mov	DWORD PTR _iRate$222467[ebp], eax

; 410  : 			int iGoal = CalcRequired(SPY_STATE_SURVEILLANCE, pCity, uiSpyIndex);

	mov	ecx, DWORD PTR _uiSpyIndex$[ebp]
	push	ecx
	mov	edx, DWORD PTR _pCity$[ebp]
	push	edx
	push	2
	mov	ecx, DWORD PTR _this$[ebp]
	call	?CalcRequired@CvPlayerEspionage@@QAEHHPAVCvCity@@H@Z ; CvPlayerEspionage::CalcRequired
	mov	DWORD PTR _iGoal$222468[ebp], eax

; 411  : 			int iAmount = iGoal; // put the player back at surveillance levels

	mov	eax, DWORD PTR _iGoal$222468[ebp]
	mov	DWORD PTR _iAmount$222469[ebp], eax

; 412  : 			pCityEspionage->SetActivity(ePlayer, iAmount, iRate, iGoal);

	mov	ecx, DWORD PTR _iGoal$222468[ebp]
	push	ecx
	mov	edx, DWORD PTR _iRate$222467[ebp]
	push	edx
	mov	eax, DWORD PTR _iAmount$222469[ebp]
	push	eax
	mov	ecx, DWORD PTR _ePlayer$[ebp]
	push	ecx
	mov	ecx, DWORD PTR _pCityEspionage$[ebp]
	call	?SetActivity@CvCityEspionage@@QAEXW4PlayerTypes@@HHH@Z ; CvCityEspionage::SetActivity

; 413  : 
; 414  : 			// set last progress rate
; 415  : 			iRate = CalcPerTurn(SPY_STATE_GATHERING_INTEL, pCity, uiSpyIndex);

	mov	edx, DWORD PTR _uiSpyIndex$[ebp]
	push	edx
	mov	eax, DWORD PTR _pCity$[ebp]
	push	eax
	push	3
	mov	ecx, DWORD PTR _this$[ebp]
	call	?CalcPerTurn@CvPlayerEspionage@@QAEHHPAVCvCity@@H@Z ; CvPlayerEspionage::CalcPerTurn
	mov	DWORD PTR _iRate$222467[ebp], eax

; 416  : 			pCityEspionage->SetLastProgress(ePlayer, iRate);

	mov	ecx, DWORD PTR _iRate$222467[ebp]
	push	ecx
	mov	edx, DWORD PTR _ePlayer$[ebp]
	push	edx
	mov	ecx, DWORD PTR _pCityEspionage$[ebp]
	call	?SetLastProgress@CvCityEspionage@@QAEXW4PlayerTypes@@H@Z ; CvCityEspionage::SetLastProgress

; 417  : 
; 418  : 			// can't steal any techs from this civ
; 419  : 			m_aiNumTechsToStealList[eCityOwner] = 0;

	mov	eax, DWORD PTR _this$[ebp]
	mov	ecx, DWORD PTR [eax+720]
	mov	edx, DWORD PTR _eCityOwner$[ebp]
	mov	DWORD PTR [ecx+edx*4], 0

; 420  : 
; 421  : 			CvNotifications* pNotifications = m_pPlayer->GetNotifications();

	mov	eax, DWORD PTR _this$[ebp]
	mov	ecx, DWORD PTR [eax+1296]
	call	?GetNotifications@CvPlayer@@QBEPAVCvNotifications@@XZ ; CvPlayer::GetNotifications
	mov	DWORD PTR _pNotifications$222470[ebp], eax

; 422  : 			if(pNotifications)

	cmp	DWORD PTR _pNotifications$222470[ebp], 0
	je	$LN55@ProcessSpy

; 423  : 			{
; 424  : 				Localization::String strSummary = Localization::Lookup("TXT_KEY_NOTIFICATION_SPY_CANT_STEAL_TECH_S");

	push	OFFSET ??_C@_0CL@NCDINLIE@TXT_KEY_NOTIFICATION_SPY_CANT_ST@
	lea	ecx, DWORD PTR _strSummary$222472[ebp]
	push	ecx
	call	DWORD PTR __imp_?Lookup@Localization@@YA?AVString@1@PBD@Z
	add	esp, 8
	mov	DWORD PTR __$EHRec$[ebp+8], 8

; 425  : 				strSummary << GET_PLAYER(eCityOwner).getCivilizationInfo().getShortDescriptionKey();

	mov	edx, DWORD PTR _eCityOwner$[ebp]
	imul	edx, 63236				; 0000f704H
	add	edx, DWORD PTR ?m_aPlayers@CvPlayerAI@@1PAV1@A ; CvPlayerAI::m_aPlayers
	mov	DWORD PTR $T234391[ebp], edx
	mov	ecx, DWORD PTR $T234391[ebp]
	call	?getCivilizationInfo@CvPlayer@@QBEAAVCvCivilizationInfo@@XZ ; CvPlayer::getCivilizationInfo
	mov	ecx, eax
	call	?getShortDescriptionKey@CvCivilizationBaseInfo@@QBEPBDXZ ; CvCivilizationBaseInfo::getShortDescriptionKey
	mov	DWORD PTR $T234156[ebp], eax
	lea	eax, DWORD PTR $T234156[ebp]
	push	eax
	lea	ecx, DWORD PTR _strSummary$222472[ebp]
	push	ecx
	call	??$?6PBD@@YAAAVString@Localization@@AAV01@ABQBD@Z ; operator<<<char const *>
	add	esp, 8

; 426  : 				Localization::String strNotification = Localization::Lookup("TXT_KEY_NOTIFICATION_SPY_CANT_STEAL_TECH");

	push	OFFSET ??_C@_0CJ@BAAFJABO@TXT_KEY_NOTIFICATION_SPY_CANT_ST@
	lea	edx, DWORD PTR _strNotification$222475[ebp]
	push	edx
	call	DWORD PTR __imp_?Lookup@Localization@@YA?AVString@1@PBD@Z
	add	esp, 8
	mov	BYTE PTR __$EHRec$[ebp+8], 9

; 427  : 				strNotification << GetSpyRankName(pSpy->m_eRank);;

	mov	eax, DWORD PTR _pSpy$[ebp]
	mov	ecx, DWORD PTR [eax+12]
	push	ecx
	mov	ecx, DWORD PTR _this$[ebp]
	call	?GetSpyRankName@CvPlayerEspionage@@QBEPBDH@Z ; CvPlayerEspionage::GetSpyRankName
	mov	DWORD PTR $T234157[ebp], eax
	lea	edx, DWORD PTR $T234157[ebp]
	push	edx
	lea	eax, DWORD PTR _strNotification$222475[ebp]
	push	eax
	call	??$?6PBD@@YAAAVString@Localization@@AAV01@ABQBD@Z ; operator<<<char const *>
	add	esp, 8

; 428  : 				strNotification << m_pPlayer->getCivilizationInfo().getSpyNames(pSpy->m_iName);

	mov	ecx, DWORD PTR _pSpy$[ebp]
	mov	edx, DWORD PTR [ecx]
	push	edx
	mov	eax, DWORD PTR _this$[ebp]
	mov	ecx, DWORD PTR [eax+1296]
	call	?getCivilizationInfo@CvPlayer@@QBEAAVCvCivilizationInfo@@XZ ; CvPlayer::getCivilizationInfo
	mov	ecx, eax
	call	?getSpyNames@CvCivilizationInfo@@QBEPBDH@Z ; CvCivilizationInfo::getSpyNames
	mov	DWORD PTR $T234158[ebp], eax
	lea	ecx, DWORD PTR $T234158[ebp]
	push	ecx
	lea	edx, DWORD PTR _strNotification$222475[ebp]
	push	edx
	call	??$?6PBD@@YAAAVString@Localization@@AAV01@ABQBD@Z ; operator<<<char const *>
	add	esp, 8

; 429  : 				strNotification << GET_PLAYER(eCityOwner).getCivilizationInfo().getShortDescriptionKey();

	mov	eax, DWORD PTR _eCityOwner$[ebp]
	imul	eax, 63236				; 0000f704H
	add	eax, DWORD PTR ?m_aPlayers@CvPlayerAI@@1PAV1@A ; CvPlayerAI::m_aPlayers
	mov	DWORD PTR $T234395[ebp], eax
	mov	ecx, DWORD PTR $T234395[ebp]
	call	?getCivilizationInfo@CvPlayer@@QBEAAVCvCivilizationInfo@@XZ ; CvPlayer::getCivilizationInfo
	mov	ecx, eax
	call	?getShortDescriptionKey@CvCivilizationBaseInfo@@QBEPBDXZ ; CvCivilizationBaseInfo::getShortDescriptionKey
	mov	DWORD PTR $T234159[ebp], eax
	lea	ecx, DWORD PTR $T234159[ebp]
	push	ecx
	lea	edx, DWORD PTR _strNotification$222475[ebp]
	push	edx
	call	??$?6PBD@@YAAAVString@Localization@@AAV01@ABQBD@Z ; operator<<<char const *>
	add	esp, 8

; 430  : 				pNotifications->Add(NOTIFICATION_SPY_CANT_STEAL_TECH, strNotification.toUTF8(), strSummary.toUTF8(), -1, -1, -1);

	push	-1
	push	-1
	push	-1
	push	-1
	lea	ecx, DWORD PTR _strSummary$222472[ebp]
	call	DWORD PTR __imp_?toUTF8@String@Localization@@QAEPBDXZ
	push	eax
	lea	ecx, DWORD PTR _strNotification$222475[ebp]
	call	DWORD PTR __imp_?toUTF8@String@Localization@@QAEPBDXZ
	push	eax
	push	240697813				; 0e58c1d5H
	mov	ecx, DWORD PTR _pNotifications$222470[ebp]
	call	?Add@CvNotifications@@QAEHW4NotificationTypes@@PBD1HHHH@Z ; CvNotifications::Add

; 431  : 			}

	mov	BYTE PTR __$EHRec$[ebp+8], 8
	lea	ecx, DWORD PTR _strNotification$222475[ebp]
	call	DWORD PTR __imp_??1String@Localization@@UAE@XZ
	mov	DWORD PTR __$EHRec$[ebp+8], -1
	lea	ecx, DWORD PTR _strSummary$222472[ebp]
	call	DWORD PTR __imp_??1String@Localization@@UAE@XZ
$LN55@ProcessSpy:

; 432  : 		}

	jmp	$LN54@ProcessSpy
$LN57@ProcessSpy:

; 433  : 		else if(pCityEspionage->HasReachedGoal(ePlayer))

	mov	eax, DWORD PTR _ePlayer$[ebp]
	push	eax
	mov	ecx, DWORD PTR _pCityEspionage$[ebp]
	call	?HasReachedGoal@CvCityEspionage@@QAE_NW4PlayerTypes@@@Z ; CvCityEspionage::HasReachedGoal
	movzx	ecx, al
	test	ecx, ecx
	je	$LN54@ProcessSpy

; 434  : 		{
; 435  : 			HeistLocation kHeistLocation;
; 436  : 			kHeistLocation.m_iX = pCity->getX();

	mov	edx, DWORD PTR _pCity$[ebp]
	mov	eax, DWORD PTR [edx+96]
	mov	DWORD PTR $T234404[ebp], eax
	mov	ecx, DWORD PTR $T234404[ebp]
	mov	DWORD PTR _kHeistLocation$222482[ebp], ecx

; 437  : 			kHeistLocation.m_iY = pCity->getY();

	mov	edx, DWORD PTR _pCity$[ebp]
	mov	eax, DWORD PTR [edx+108]
	mov	DWORD PTR $T234413[ebp], eax
	mov	ecx, DWORD PTR $T234413[ebp]
	mov	DWORD PTR _kHeistLocation$222482[ebp+4], ecx

; 438  : 			m_aHeistLocations[eCityOwner].push_back(kHeistLocation);

	lea	edx, DWORD PTR _kHeistLocation$222482[ebp]
	push	edx
	mov	eax, DWORD PTR _eCityOwner$[ebp]
	shl	eax, 4
	mov	ecx, DWORD PTR _this$[ebp]
	lea	ecx, DWORD PTR [ecx+eax+912]
	call	?push_back@?$vector@UHeistLocation@@V?$allocator@UHeistLocation@@@std@@@std@@QAEXABUHeistLocation@@@Z ; std::vector<HeistLocation,std::allocator<HeistLocation> >::push_back

; 439  : 
; 440  : 			int iSpyResult;
; 441  : 			if(pCityEspionage->HasCounterSpy())

	mov	ecx, DWORD PTR _pCityEspionage$[ebp]
	call	?HasCounterSpy@CvCityEspionage@@QAE_NXZ	; CvCityEspionage::HasCounterSpy
	movzx	edx, al
	test	edx, edx
	je	$LN52@ProcessSpy

; 442  : 			{
; 443  : 				iSpyResult = GC.getGame().getJonRandNum(300, "Random roll for the result of a spy mission with a counterspy in the city");

	mov	eax, DWORD PTR ?gGlobals@@3VCvGlobals@@A+48
	mov	DWORD PTR $T234455[ebp], eax
	push	OFFSET ??_C@_0EK@GDHGNKG@Random?5roll?5for?5the?5result?5of?5a?5@
	push	300					; 0000012cH
	mov	ecx, DWORD PTR $T234455[ebp]
	call	?getJonRandNum@CvGame@@QAEHHPBD@Z	; CvGame::getJonRandNum
	mov	DWORD PTR _iSpyResult$222483[ebp], eax

; 444  : 				int iCounterspyIndex = GET_PLAYER(eCityOwner).GetEspionage()->GetSpyIndexInCity(pCity);

	mov	ecx, DWORD PTR _eCityOwner$[ebp]
	imul	ecx, 63236				; 0000f704H
	add	ecx, DWORD PTR ?m_aPlayers@CvPlayerAI@@1PAV1@A ; CvPlayerAI::m_aPlayers
	mov	DWORD PTR $T234459[ebp], ecx
	mov	edx, DWORD PTR _pCity$[ebp]
	push	edx
	mov	ecx, DWORD PTR $T234459[ebp]
	call	?GetEspionage@CvPlayer@@QBEPAVCvPlayerEspionage@@XZ ; CvPlayer::GetEspionage
	mov	ecx, eax
	call	?GetSpyIndexInCity@CvPlayerEspionage@@QAEHPAVCvCity@@@Z ; CvPlayerEspionage::GetSpyIndexInCity
	mov	DWORD PTR _iCounterspyIndex$222486[ebp], eax

; 445  : 				iSpyResult += GET_PLAYER(eCityOwner).GetEspionage()->m_aSpyList[iCounterspyIndex].m_eRank * 30;

	mov	eax, DWORD PTR _eCityOwner$[ebp]
	imul	eax, 63236				; 0000f704H
	add	eax, DWORD PTR ?m_aPlayers@CvPlayerAI@@1PAV1@A ; CvPlayerAI::m_aPlayers
	mov	DWORD PTR $T234463[ebp], eax
	mov	ecx, DWORD PTR $T234463[ebp]
	call	?GetEspionage@CvPlayer@@QBEPAVCvPlayerEspionage@@XZ ; CvPlayer::GetEspionage
	add	eax, 4
	mov	DWORD PTR $T234467[ebp], eax
	mov	ecx, DWORD PTR _iCounterspyIndex$222486[ebp]
	imul	ecx, 28					; 0000001cH
	mov	edx, DWORD PTR $T234467[ebp]
	mov	eax, DWORD PTR [edx]
	mov	ecx, DWORD PTR [eax+ecx+12]
	imul	ecx, 30					; 0000001eH
	add	ecx, DWORD PTR _iSpyResult$222483[ebp]
	mov	DWORD PTR _iSpyResult$222483[ebp], ecx

; 446  : 				iSpyResult *= (100 + GET_PLAYER(pCity->getOwner()).GetPlayerPolicies()->GetNumericModifier(POLICYMOD_CATCH_SPIES_MODIFIER));

	mov	edx, DWORD PTR _pCity$[ebp]
	mov	eax, DWORD PTR [edx+84]
	mov	DWORD PTR $T234476[ebp], eax
	mov	ecx, DWORD PTR $T234476[ebp]
	imul	ecx, 63236				; 0000f704H
	add	ecx, DWORD PTR ?m_aPlayers@CvPlayerAI@@1PAV1@A ; CvPlayerAI::m_aPlayers
	mov	DWORD PTR $T234480[ebp], ecx
	push	21					; 00000015H
	mov	ecx, DWORD PTR $T234480[ebp]
	call	?GetPlayerPolicies@CvPlayer@@QBEPAVCvPlayerPolicies@@XZ ; CvPlayer::GetPlayerPolicies
	mov	ecx, eax
	call	?GetNumericModifier@CvPlayerPolicies@@QAEHW4PolicyModifierType@@@Z ; CvPlayerPolicies::GetNumericModifier
	add	eax, 100				; 00000064H
	imul	eax, DWORD PTR _iSpyResult$222483[ebp]
	mov	DWORD PTR _iSpyResult$222483[ebp], eax

; 447  : 				iSpyResult /= 100;

	mov	eax, DWORD PTR _iSpyResult$222483[ebp]
	cdq
	mov	ecx, 100				; 00000064H
	idiv	ecx
	mov	DWORD PTR _iSpyResult$222483[ebp], eax

; 448  : 				if(iSpyResult < 100)

	cmp	DWORD PTR _iSpyResult$222483[ebp], 100	; 00000064H
	jge	SHORT $LN51@ProcessSpy

; 449  : 				{
; 450  : 					pCityEspionage->SetSpyResult(ePlayer, SPY_RESULT_DETECTED);

	push	1
	mov	edx, DWORD PTR _ePlayer$[ebp]
	push	edx
	mov	ecx, DWORD PTR _pCityEspionage$[ebp]
	call	?SetSpyResult@CvCityEspionage@@QAEXW4PlayerTypes@@H@Z ; CvCityEspionage::SetSpyResult
	jmp	$LN50@ProcessSpy
$LN51@ProcessSpy:

; 451  : 				}
; 452  : 				else if(iSpyResult < 200)

	cmp	DWORD PTR _iSpyResult$222483[ebp], 200	; 000000c8H
	jge	SHORT $LN49@ProcessSpy

; 453  : 				{
; 454  : 					pCityEspionage->SetSpyResult(ePlayer, SPY_RESULT_IDENTIFIED);

	push	2
	mov	eax, DWORD PTR _ePlayer$[ebp]
	push	eax
	mov	ecx, DWORD PTR _pCityEspionage$[ebp]
	call	?SetSpyResult@CvCityEspionage@@QAEXW4PlayerTypes@@H@Z ; CvCityEspionage::SetSpyResult

; 455  : 				}
; 456  : 				else

	jmp	$LN50@ProcessSpy
$LN49@ProcessSpy:

; 457  : 				{
; 458  : 					pCityEspionage->SetSpyResult(ePlayer, SPY_RESULT_KILLED);

	push	3
	mov	ecx, DWORD PTR _ePlayer$[ebp]
	push	ecx
	mov	ecx, DWORD PTR _pCityEspionage$[ebp]
	call	?SetSpyResult@CvCityEspionage@@QAEXW4PlayerTypes@@H@Z ; CvCityEspionage::SetSpyResult

; 459  : 
; 460  : 					CvPlayerAI& kCityOwner = GET_PLAYER(eCityOwner);

	mov	edx, DWORD PTR _eCityOwner$[ebp]
	imul	edx, 63236				; 0000f704H
	add	edx, DWORD PTR ?m_aPlayers@CvPlayerAI@@1PAV1@A ; CvPlayerAI::m_aPlayers
	mov	DWORD PTR _kCityOwner$222491[ebp], edx

; 461  : 					CvPlayerAI& kSpyOwner = GET_PLAYER(ePlayer);

	mov	eax, DWORD PTR _ePlayer$[ebp]
	imul	eax, 63236				; 0000f704H
	add	eax, DWORD PTR ?m_aPlayers@CvPlayerAI@@1PAV1@A ; CvPlayerAI::m_aPlayers
	mov	DWORD PTR _kSpyOwner$222492[ebp], eax

; 462  : 
; 463  : 					if(	strcmp(kCityOwner.getCivilizationTypeKey(), "CIVILIZATION_RUSSIA") == 0 &&
; 464  : 						strcmp(kSpyOwner.getCivilizationTypeKey(), "CIVILIZATION_ENGLAND") == 0)

	mov	DWORD PTR tv2401[ebp], OFFSET ??_C@_0BE@EANEAGMK@CIVILIZATION_RUSSIA?$AA@
	mov	ecx, DWORD PTR _kCityOwner$222491[ebp]
	call	?getCivilizationTypeKey@CvPlayer@@QBEPBDXZ ; CvPlayer::getCivilizationTypeKey
	mov	DWORD PTR tv2400[ebp], eax
$LL433@ProcessSpy:
	mov	ecx, DWORD PTR tv2400[ebp]
	mov	dl, BYTE PTR [ecx]
	mov	BYTE PTR tv2404[ebp], dl
	mov	eax, DWORD PTR tv2401[ebp]
	cmp	dl, BYTE PTR [eax]
	jne	SHORT $LN434@ProcessSpy
	cmp	BYTE PTR tv2404[ebp], 0
	je	SHORT $LN435@ProcessSpy
	mov	ecx, DWORD PTR tv2400[ebp]
	mov	dl, BYTE PTR [ecx+1]
	mov	BYTE PTR tv2411[ebp], dl
	mov	eax, DWORD PTR tv2401[ebp]
	cmp	dl, BYTE PTR [eax+1]
	jne	SHORT $LN434@ProcessSpy
	add	DWORD PTR tv2400[ebp], 2
	add	DWORD PTR tv2401[ebp], 2
	cmp	BYTE PTR tv2411[ebp], 0
	jne	SHORT $LL433@ProcessSpy
$LN435@ProcessSpy:
	mov	DWORD PTR tv2416[ebp], 0
	jmp	SHORT $LN436@ProcessSpy
$LN434@ProcessSpy:
	sbb	ecx, ecx
	sbb	ecx, -1
	mov	DWORD PTR tv2416[ebp], ecx
$LN436@ProcessSpy:
	mov	edx, DWORD PTR tv2416[ebp]
	mov	DWORD PTR tv717[ebp], edx
	cmp	DWORD PTR tv717[ebp], 0
	jne	$LN50@ProcessSpy
	mov	DWORD PTR tv2423[ebp], OFFSET ??_C@_0BF@EIFMKKKD@CIVILIZATION_ENGLAND?$AA@
	mov	ecx, DWORD PTR _kSpyOwner$222492[ebp]
	call	?getCivilizationTypeKey@CvPlayer@@QBEPBDXZ ; CvPlayer::getCivilizationTypeKey
	mov	DWORD PTR tv2422[ebp], eax
$LL437@ProcessSpy:
	mov	eax, DWORD PTR tv2422[ebp]
	mov	cl, BYTE PTR [eax]
	mov	BYTE PTR tv2426[ebp], cl
	mov	edx, DWORD PTR tv2423[ebp]
	cmp	cl, BYTE PTR [edx]
	jne	SHORT $LN438@ProcessSpy
	cmp	BYTE PTR tv2426[ebp], 0
	je	SHORT $LN439@ProcessSpy
	mov	eax, DWORD PTR tv2422[ebp]
	mov	cl, BYTE PTR [eax+1]
	mov	BYTE PTR tv2433[ebp], cl
	mov	edx, DWORD PTR tv2423[ebp]
	cmp	cl, BYTE PTR [edx+1]
	jne	SHORT $LN438@ProcessSpy
	add	DWORD PTR tv2422[ebp], 2
	add	DWORD PTR tv2423[ebp], 2
	cmp	BYTE PTR tv2433[ebp], 0
	jne	SHORT $LL437@ProcessSpy
$LN439@ProcessSpy:
	mov	DWORD PTR tv2438[ebp], 0
	jmp	SHORT $LN440@ProcessSpy
$LN438@ProcessSpy:
	sbb	eax, eax
	sbb	eax, -1
	mov	DWORD PTR tv2438[ebp], eax
$LN440@ProcessSpy:
	mov	ecx, DWORD PTR tv2438[ebp]
	mov	DWORD PTR tv728[ebp], ecx
	cmp	DWORD PTR tv728[ebp], 0
	jne	$LN50@ProcessSpy

; 465  : 					{
; 466  : 						//Do not trigger achievement if we're in the Smokey Skies scenario.
; 467  : 						bool bUsingXP1Scenario3 = gDLL->IsModActivated(CIV5_XP1_SCENARIO3_MODID);

	mov	edx, DWORD PTR $T234490[ebp]
	mov	DWORD PTR tv737[ebp], edx
	mov	eax, DWORD PTR ?gGlobals@@3VCvGlobals@@A+8564
	mov	DWORD PTR tv737[ebp], eax
	mov	ecx, DWORD PTR _CIV5_XP1_SCENARIO3_MODID
	push	ecx
	mov	edx, DWORD PTR tv737[ebp]
	mov	eax, DWORD PTR [edx]
	mov	ecx, DWORD PTR tv737[ebp]
	mov	edx, DWORD PTR [eax+44]
	call	edx
	mov	BYTE PTR _bUsingXP1Scenario3$222496[ebp], al

; 468  : 						if(!bUsingXP1Scenario3)

	movzx	eax, BYTE PTR _bUsingXP1Scenario3$222496[ebp]
	test	eax, eax
	jne	SHORT $LN50@ProcessSpy

; 469  : 						{
; 470  : 							if(eCityOwner == GC.getGame().getActivePlayer())

	mov	ecx, DWORD PTR ?gGlobals@@3VCvGlobals@@A+48
	mov	DWORD PTR $T234494[ebp], ecx
	mov	ecx, DWORD PTR $T234494[ebp]
	call	?getActivePlayer@CvGame@@QBE?AW4PlayerTypes@@XZ ; CvGame::getActivePlayer
	cmp	DWORD PTR _eCityOwner$[ebp], eax
	jne	SHORT $LN50@ProcessSpy

; 471  : 								gDLL->UnlockAchievement(ACHIEVEMENT_XP1_25);

	mov	edx, DWORD PTR $T234498[ebp]
	mov	DWORD PTR tv756[ebp], edx
	mov	eax, DWORD PTR ?gGlobals@@3VCvGlobals@@A+8564
	mov	DWORD PTR tv756[ebp], eax
	push	215					; 000000d7H
	mov	ecx, DWORD PTR tv756[ebp]
	mov	edx, DWORD PTR [ecx]
	mov	ecx, DWORD PTR tv756[ebp]
	mov	eax, DWORD PTR [edx+828]
	call	eax
$LN50@ProcessSpy:

; 472  : 						}
; 473  : 					}
; 474  : 				}
; 475  : 			}
; 476  : 			else

	jmp	$LN44@ProcessSpy
$LN52@ProcessSpy:

; 477  : 			{
; 478  : 				iSpyResult = GC.getGame().getJonRandNum(300, "Random roll for the result of a spying mission without a counterspy in the city");

	mov	ecx, DWORD PTR ?gGlobals@@3VCvGlobals@@A+48
	mov	DWORD PTR $T234502[ebp], ecx
	push	OFFSET ??_C@_0FA@CNNLFJI@Random?5roll?5for?5the?5result?5of?5a?5@
	push	300					; 0000012cH
	mov	ecx, DWORD PTR $T234502[ebp]
	call	?getJonRandNum@CvGame@@QAEHHPBD@Z	; CvGame::getJonRandNum
	mov	DWORD PTR _iSpyResult$222483[ebp], eax

; 479  : 				iSpyResult *= (100 + GET_PLAYER(pCity->getOwner()).GetPlayerPolicies()->GetNumericModifier(POLICYMOD_CATCH_SPIES_MODIFIER));

	mov	edx, DWORD PTR _pCity$[ebp]
	mov	eax, DWORD PTR [edx+84]
	mov	DWORD PTR $T234511[ebp], eax
	mov	ecx, DWORD PTR $T234511[ebp]
	imul	ecx, 63236				; 0000f704H
	add	ecx, DWORD PTR ?m_aPlayers@CvPlayerAI@@1PAV1@A ; CvPlayerAI::m_aPlayers
	mov	DWORD PTR $T234515[ebp], ecx
	push	21					; 00000015H
	mov	ecx, DWORD PTR $T234515[ebp]
	call	?GetPlayerPolicies@CvPlayer@@QBEPAVCvPlayerPolicies@@XZ ; CvPlayer::GetPlayerPolicies
	mov	ecx, eax
	call	?GetNumericModifier@CvPlayerPolicies@@QAEHW4PolicyModifierType@@@Z ; CvPlayerPolicies::GetNumericModifier
	add	eax, 100				; 00000064H
	imul	eax, DWORD PTR _iSpyResult$222483[ebp]
	mov	DWORD PTR _iSpyResult$222483[ebp], eax

; 480  : 				iSpyResult /= 100;

	mov	eax, DWORD PTR _iSpyResult$222483[ebp]
	cdq
	mov	ecx, 100				; 00000064H
	idiv	ecx
	mov	DWORD PTR _iSpyResult$222483[ebp], eax

; 481  : 				if(iSpyResult < 100)

	cmp	DWORD PTR _iSpyResult$222483[ebp], 100	; 00000064H
	jge	SHORT $LN43@ProcessSpy

; 482  : 				{
; 483  : 					pCityEspionage->SetSpyResult(ePlayer, SPY_RESULT_UNDETECTED);

	push	0
	mov	edx, DWORD PTR _ePlayer$[ebp]
	push	edx
	mov	ecx, DWORD PTR _pCityEspionage$[ebp]
	call	?SetSpyResult@CvCityEspionage@@QAEXW4PlayerTypes@@H@Z ; CvCityEspionage::SetSpyResult
	jmp	SHORT $LN44@ProcessSpy
$LN43@ProcessSpy:

; 484  : 				}
; 485  : 				else if(iSpyResult < 200)

	cmp	DWORD PTR _iSpyResult$222483[ebp], 200	; 000000c8H
	jge	SHORT $LN41@ProcessSpy

; 486  : 				{
; 487  : 					pCityEspionage->SetSpyResult(ePlayer, SPY_RESULT_DETECTED);

	push	1
	mov	eax, DWORD PTR _ePlayer$[ebp]
	push	eax
	mov	ecx, DWORD PTR _pCityEspionage$[ebp]
	call	?SetSpyResult@CvCityEspionage@@QAEXW4PlayerTypes@@H@Z ; CvCityEspionage::SetSpyResult

; 488  : 				}
; 489  : 				else

	jmp	SHORT $LN44@ProcessSpy
$LN41@ProcessSpy:

; 490  : 				{
; 491  : 					pCityEspionage->SetSpyResult(ePlayer, SPY_RESULT_IDENTIFIED);

	push	2
	mov	ecx, DWORD PTR _ePlayer$[ebp]
	push	ecx
	mov	ecx, DWORD PTR _pCityEspionage$[ebp]
	call	?SetSpyResult@CvCityEspionage@@QAEXW4PlayerTypes@@H@Z ; CvCityEspionage::SetSpyResult
$LN44@ProcessSpy:

; 492  : 				}
; 493  : 			}
; 494  : 
; 495  : 			CvPlayerEspionage* pDefendingPlayerEspionage = GET_PLAYER(eCityOwner).GetEspionage();

	mov	edx, DWORD PTR _eCityOwner$[ebp]
	imul	edx, 63236				; 0000f704H
	add	edx, DWORD PTR ?m_aPlayers@CvPlayerAI@@1PAV1@A ; CvPlayerAI::m_aPlayers
	mov	DWORD PTR $T234519[ebp], edx
	mov	ecx, DWORD PTR $T234519[ebp]
	call	?GetEspionage@CvPlayer@@QBEPAVCvPlayerEspionage@@XZ ; CvPlayer::GetEspionage
	mov	DWORD PTR _pDefendingPlayerEspionage$222505[ebp], eax

; 496  : 			CvAssertMsg(pDefendingPlayerEspionage, "Defending player espionage is null");
; 497  : 			if(pDefendingPlayerEspionage)

	cmp	DWORD PTR _pDefendingPlayerEspionage$222505[ebp], 0
	je	SHORT $LN39@ProcessSpy

; 498  : 			{
; 499  : 				pDefendingPlayerEspionage->AddSpyMessage(pCity->getX(), pCity->getY(), m_pPlayer->GetID(), pCityEspionage->m_aiResult[ePlayer], NO_TECH);

	mov	eax, DWORD PTR _this$[ebp]
	mov	ecx, DWORD PTR [eax+1296]
	mov	edx, DWORD PTR [ecx+44]
	mov	DWORD PTR $T234531[ebp], edx
	mov	eax, DWORD PTR _pCity$[ebp]
	mov	ecx, DWORD PTR [eax+108]
	mov	DWORD PTR $T234540[ebp], ecx
	mov	edx, DWORD PTR _pCity$[ebp]
	mov	eax, DWORD PTR [edx+96]
	mov	DWORD PTR $T234549[ebp], eax
	push	-1
	mov	ecx, DWORD PTR _ePlayer$[ebp]
	mov	edx, DWORD PTR _pCityEspionage$[ebp]
	mov	eax, DWORD PTR [edx+ecx*4+620]
	push	eax
	mov	ecx, DWORD PTR $T234531[ebp]
	push	ecx
	mov	edx, DWORD PTR $T234540[ebp]
	push	edx
	mov	eax, DWORD PTR $T234549[ebp]
	push	eax
	mov	ecx, DWORD PTR _pDefendingPlayerEspionage$222505[ebp]
	call	?AddSpyMessage@CvPlayerEspionage@@QAEXHHW4PlayerTypes@@HW4TechTypes@@@Z ; CvPlayerEspionage::AddSpyMessage
$LN39@ProcessSpy:

; 500  : 			}
; 501  : 
; 502  : 			CvDiplomacyAI* pDefendingPlayerDiploAI = GET_PLAYER(eCityOwner).GetDiplomacyAI();

	mov	ecx, DWORD PTR _eCityOwner$[ebp]
	imul	ecx, 63236				; 0000f704H
	add	ecx, DWORD PTR ?m_aPlayers@CvPlayerAI@@1PAV1@A ; CvPlayerAI::m_aPlayers
	mov	DWORD PTR $T234553[ebp], ecx
	mov	ecx, DWORD PTR $T234553[ebp]
	call	?GetDiplomacyAI@CvPlayer@@QBEPAVCvDiplomacyAI@@XZ ; CvPlayer::GetDiplomacyAI
	mov	DWORD PTR _pDefendingPlayerDiploAI$222507[ebp], eax

; 503  : 			CvAssertMsg(pDefendingPlayerDiploAI, "Defending player diplo AI is null");
; 504  : 			if(pDefendingPlayerDiploAI)

	cmp	DWORD PTR _pDefendingPlayerDiploAI$222507[ebp], 0
	je	SHORT $LN295@ProcessSpy

; 505  : 			{
; 506  : 				if(pCityEspionage->m_aiResult[ePlayer] == SPY_RESULT_IDENTIFIED || pCityEspionage->m_aiResult[ePlayer] == SPY_RESULT_KILLED)

	mov	edx, DWORD PTR _ePlayer$[ebp]
	mov	eax, DWORD PTR _pCityEspionage$[ebp]
	cmp	DWORD PTR [eax+edx*4+620], 2
	je	SHORT $LN36@ProcessSpy
	mov	ecx, DWORD PTR _ePlayer$[ebp]
	mov	edx, DWORD PTR _pCityEspionage$[ebp]
	cmp	DWORD PTR [edx+ecx*4+620], 3
	jne	SHORT $LN295@ProcessSpy
$LN36@ProcessSpy:

; 507  : 				{
; 508  : 					pDefendingPlayerDiploAI->ChangeNumTimesRobbedBy(ePlayer, 1);

	push	1
	mov	eax, DWORD PTR _ePlayer$[ebp]
	push	eax
	mov	ecx, DWORD PTR _pDefendingPlayerDiploAI$222507[ebp]
	call	?ChangeNumTimesRobbedBy@CvDiplomacyAI@@QAEXW4PlayerTypes@@H@Z ; CvDiplomacyAI::ChangeNumTimesRobbedBy

; 509  : 				}
; 510  : 			}
; 511  : 
; 512  : 			// spy killed in action
; 513  : 			if(pCityEspionage->m_aiResult[ePlayer] == SPY_RESULT_KILLED)

$LN295@ProcessSpy:
	mov	ecx, DWORD PTR _ePlayer$[ebp]
	mov	edx, DWORD PTR _pCityEspionage$[ebp]
	cmp	DWORD PTR [edx+ecx*4+620], 3
	jne	$LN35@ProcessSpy

; 514  : 			{
; 515  : 				CvNotifications* pNotifications = m_pPlayer->GetNotifications();

	mov	eax, DWORD PTR _this$[ebp]
	mov	ecx, DWORD PTR [eax+1296]
	call	?GetNotifications@CvPlayer@@QBEPAVCvNotifications@@XZ ; CvPlayer::GetNotifications
	mov	DWORD PTR _pNotifications$222512[ebp], eax

; 516  : 				if(pNotifications)

	cmp	DWORD PTR _pNotifications$222512[ebp], 0
	je	$LN34@ProcessSpy

; 517  : 				{
; 518  : 					Localization::String strSummary = Localization::Lookup("TXT_KEY_NOTIFICATION_SPY_WAS_KILLED_S");

	push	OFFSET ??_C@_0CG@DBAGKGCH@TXT_KEY_NOTIFICATION_SPY_WAS_KIL@
	lea	ecx, DWORD PTR _strSummary$222514[ebp]
	push	ecx
	call	DWORD PTR __imp_?Lookup@Localization@@YA?AVString@1@PBD@Z
	add	esp, 8
	mov	DWORD PTR __$EHRec$[ebp+8], 10		; 0000000aH

; 519  : 					strSummary << m_pPlayer->getCivilizationInfo().getSpyNames(pSpy->m_iName);

	mov	edx, DWORD PTR _pSpy$[ebp]
	mov	eax, DWORD PTR [edx]
	push	eax
	mov	ecx, DWORD PTR _this$[ebp]
	mov	ecx, DWORD PTR [ecx+1296]
	call	?getCivilizationInfo@CvPlayer@@QBEAAVCvCivilizationInfo@@XZ ; CvPlayer::getCivilizationInfo
	mov	ecx, eax
	call	?getSpyNames@CvCivilizationInfo@@QBEPBDH@Z ; CvCivilizationInfo::getSpyNames
	mov	DWORD PTR $T234160[ebp], eax
	lea	edx, DWORD PTR $T234160[ebp]
	push	edx
	lea	eax, DWORD PTR _strSummary$222514[ebp]
	push	eax
	call	??$?6PBD@@YAAAVString@Localization@@AAV01@ABQBD@Z ; operator<<<char const *>
	add	esp, 8

; 520  : 					Localization::String strNotification = Localization::Lookup("TXT_KEY_NOTIFICATION_SPY_WAS_KILLED");

	push	OFFSET ??_C@_0CE@OKPBKOE@TXT_KEY_NOTIFICATION_SPY_WAS_KIL@
	lea	ecx, DWORD PTR _strNotification$222518[ebp]
	push	ecx
	call	DWORD PTR __imp_?Lookup@Localization@@YA?AVString@1@PBD@Z
	add	esp, 8
	mov	BYTE PTR __$EHRec$[ebp+8], 11		; 0000000bH

; 521  : 					strNotification << GetSpyRankName(pSpy->m_eRank);

	mov	edx, DWORD PTR _pSpy$[ebp]
	mov	eax, DWORD PTR [edx+12]
	push	eax
	mov	ecx, DWORD PTR _this$[ebp]
	call	?GetSpyRankName@CvPlayerEspionage@@QBEPBDH@Z ; CvPlayerEspionage::GetSpyRankName
	mov	DWORD PTR $T234161[ebp], eax
	lea	ecx, DWORD PTR $T234161[ebp]
	push	ecx
	lea	edx, DWORD PTR _strNotification$222518[ebp]
	push	edx
	call	??$?6PBD@@YAAAVString@Localization@@AAV01@ABQBD@Z ; operator<<<char const *>
	add	esp, 8

; 522  : 					strNotification << m_pPlayer->getCivilizationInfo().getSpyNames(pSpy->m_iName);

	mov	eax, DWORD PTR _pSpy$[ebp]
	mov	ecx, DWORD PTR [eax]
	push	ecx
	mov	edx, DWORD PTR _this$[ebp]
	mov	ecx, DWORD PTR [edx+1296]
	call	?getCivilizationInfo@CvPlayer@@QBEAAVCvCivilizationInfo@@XZ ; CvPlayer::getCivilizationInfo
	mov	ecx, eax
	call	?getSpyNames@CvCivilizationInfo@@QBEPBDH@Z ; CvCivilizationInfo::getSpyNames
	mov	DWORD PTR $T234162[ebp], eax
	lea	eax, DWORD PTR $T234162[ebp]
	push	eax
	lea	ecx, DWORD PTR _strNotification$222518[ebp]
	push	ecx
	call	??$?6PBD@@YAAAVString@Localization@@AAV01@ABQBD@Z ; operator<<<char const *>
	add	esp, 8

; 523  : 					strNotification << GET_PLAYER(eCityOwner).getCivilizationInfo().getShortDescriptionKey();

	mov	edx, DWORD PTR _eCityOwner$[ebp]
	imul	edx, 63236				; 0000f704H
	add	edx, DWORD PTR ?m_aPlayers@CvPlayerAI@@1PAV1@A ; CvPlayerAI::m_aPlayers
	mov	DWORD PTR $T234566[ebp], edx
	mov	ecx, DWORD PTR $T234566[ebp]
	call	?getCivilizationInfo@CvPlayer@@QBEAAVCvCivilizationInfo@@XZ ; CvPlayer::getCivilizationInfo
	mov	ecx, eax
	call	?getShortDescriptionKey@CvCivilizationBaseInfo@@QBEPBDXZ ; CvCivilizationBaseInfo::getShortDescriptionKey
	mov	DWORD PTR $T234163[ebp], eax
	lea	eax, DWORD PTR $T234163[ebp]
	push	eax
	lea	ecx, DWORD PTR _strNotification$222518[ebp]
	push	ecx
	call	??$?6PBD@@YAAAVString@Localization@@AAV01@ABQBD@Z ; operator<<<char const *>
	add	esp, 8

; 524  : 					strNotification << pCity->getNameKey();

	mov	ecx, DWORD PTR _pCity$[ebp]
	call	?getNameKey@CvCity@@QBEPBDXZ		; CvCity::getNameKey
	mov	DWORD PTR $T234164[ebp], eax
	lea	edx, DWORD PTR $T234164[ebp]
	push	edx
	lea	eax, DWORD PTR _strNotification$222518[ebp]
	push	eax
	call	??$?6PBD@@YAAAVString@Localization@@AAV01@ABQBD@Z ; operator<<<char const *>
	add	esp, 8

; 525  : 					pNotifications->Add(NOTIFICATION_SPY_WAS_KILLED, strNotification.toUTF8(), strSummary.toUTF8(), -1, -1, -1);

	push	-1
	push	-1
	push	-1
	push	-1
	lea	ecx, DWORD PTR _strSummary$222514[ebp]
	call	DWORD PTR __imp_?toUTF8@String@Localization@@QAEPBDXZ
	push	eax
	lea	ecx, DWORD PTR _strNotification$222518[ebp]
	call	DWORD PTR __imp_?toUTF8@String@Localization@@QAEPBDXZ
	push	eax
	push	345927241				; 149e6e49H
	mov	ecx, DWORD PTR _pNotifications$222512[ebp]
	call	?Add@CvNotifications@@QAEHW4NotificationTypes@@PBD1HHHH@Z ; CvNotifications::Add

; 526  : 
; 527  : 				}

	mov	BYTE PTR __$EHRec$[ebp+8], 10		; 0000000aH
	lea	ecx, DWORD PTR _strNotification$222518[ebp]
	call	DWORD PTR __imp_??1String@Localization@@UAE@XZ
	mov	DWORD PTR __$EHRec$[ebp+8], -1
	lea	ecx, DWORD PTR _strSummary$222514[ebp]
	call	DWORD PTR __imp_??1String@Localization@@UAE@XZ
$LN34@ProcessSpy:

; 528  : 
; 529  : 				CvEspionageAI* pEspionageAI = m_pPlayer->GetEspionageAI();

	mov	ecx, DWORD PTR _this$[ebp]
	mov	ecx, DWORD PTR [ecx+1296]
	call	?GetEspionageAI@CvPlayer@@QBEPAVCvEspionageAI@@XZ ; CvPlayer::GetEspionageAI
	mov	DWORD PTR _pEspionageAI$222525[ebp], eax

; 530  : 				CvAssertMsg(pEspionageAI, "pEspionageAI is null");
; 531  : 				if(pEspionageAI)

	cmp	DWORD PTR _pEspionageAI$222525[ebp], 0
	je	SHORT $LN33@ProcessSpy

; 532  : 				{
; 533  : 					pEspionageAI->m_aiTurnLastSpyDied[eCityOwner] = GC.getGame().getGameTurn();

	mov	edx, DWORD PTR ?gGlobals@@3VCvGlobals@@A+48
	mov	DWORD PTR $T234570[ebp], edx
	mov	eax, DWORD PTR _pEspionageAI$222525[ebp]
	mov	ecx, DWORD PTR [eax+628]
	mov	edx, DWORD PTR _eCityOwner$[ebp]
	lea	eax, DWORD PTR [ecx+edx*4]
	mov	DWORD PTR $T234574[ebp], eax
	mov	ecx, DWORD PTR $T234570[ebp]
	call	?getGameTurn@CvGame@@QAEHXZ		; CvGame::getGameTurn
	mov	ecx, DWORD PTR $T234574[ebp]
	mov	DWORD PTR [ecx], eax

; 534  : 					pEspionageAI->m_aiNumSpiesDied[eCityOwner]++;

	mov	edx, DWORD PTR _pEspionageAI$222525[ebp]
	mov	eax, DWORD PTR [edx+316]
	mov	ecx, DWORD PTR _eCityOwner$[ebp]
	lea	edx, DWORD PTR [eax+ecx*4]
	mov	DWORD PTR tv968[ebp], edx
	mov	eax, DWORD PTR tv968[ebp]
	mov	ecx, DWORD PTR [eax]
	add	ecx, 1
	mov	edx, DWORD PTR tv968[ebp]
	mov	DWORD PTR [edx], ecx
$LN33@ProcessSpy:

; 535  : 				}
; 536  : 				CvEspionageAI* pDefenderEspionageAI = GET_PLAYER(eCityOwner).GetEspionageAI();

	mov	eax, DWORD PTR _eCityOwner$[ebp]
	imul	eax, 63236				; 0000f704H
	add	eax, DWORD PTR ?m_aPlayers@CvPlayerAI@@1PAV1@A ; CvPlayerAI::m_aPlayers
	mov	DWORD PTR $T234581[ebp], eax
	mov	ecx, DWORD PTR $T234581[ebp]
	call	?GetEspionageAI@CvPlayer@@QBEPAVCvEspionageAI@@XZ ; CvPlayer::GetEspionageAI
	mov	DWORD PTR _pDefenderEspionageAI$222527[ebp], eax

; 537  : 				CvAssertMsg(pDefenderEspionageAI, "pDefenderEspionageAI is null");
; 538  : 				if(pDefenderEspionageAI)

	cmp	DWORD PTR _pDefenderEspionageAI$222527[ebp], 0
	je	$LN321@ProcessSpy

; 539  : 				{
; 540  : 					pDefenderEspionageAI->m_aiTurnLastSpyKilled[m_pPlayer->GetID()] = GC.getGame().getGameTurn();

	mov	ecx, DWORD PTR ?gGlobals@@3VCvGlobals@@A+48
	mov	DWORD PTR $T234585[ebp], ecx
	mov	edx, DWORD PTR _this$[ebp]
	mov	eax, DWORD PTR [edx+1296]
	mov	ecx, DWORD PTR [eax+44]
	mov	DWORD PTR $T234594[ebp], ecx
	mov	edx, DWORD PTR _pDefenderEspionageAI$222527[ebp]
	mov	eax, DWORD PTR [edx+524]
	mov	ecx, DWORD PTR $T234594[ebp]
	lea	edx, DWORD PTR [eax+ecx*4]
	mov	DWORD PTR $T234598[ebp], edx
	mov	ecx, DWORD PTR $T234585[ebp]
	call	?getGameTurn@CvGame@@QAEHXZ		; CvGame::getGameTurn
	mov	ecx, DWORD PTR $T234598[ebp]
	mov	DWORD PTR [ecx], eax

; 541  : 					pDefenderEspionageAI->m_aiNumSpiesKilled[m_pPlayer->GetID()]++;

	mov	edx, DWORD PTR _this$[ebp]
	mov	eax, DWORD PTR [edx+1296]
	mov	ecx, DWORD PTR [eax+44]
	mov	DWORD PTR $T234607[ebp], ecx
	mov	edx, DWORD PTR _pDefenderEspionageAI$222527[ebp]
	mov	eax, DWORD PTR [edx+212]
	mov	ecx, DWORD PTR $T234607[ebp]
	lea	edx, DWORD PTR [eax+ecx*4]
	mov	DWORD PTR tv1005[ebp], edx
	mov	eax, DWORD PTR tv1005[ebp]
	mov	ecx, DWORD PTR [eax]
	add	ecx, 1
	mov	edx, DWORD PTR tv1005[ebp]
	mov	DWORD PTR [edx], ecx

; 542  : 				}
; 543  : 
; 544  : 				// level up the defending spy
; 545  : 				int iDefendingSpy = pCityEspionage->m_aiSpyAssignment[eCityOwner];

$LN321@ProcessSpy:
	mov	eax, DWORD PTR _eCityOwner$[ebp]
	mov	ecx, DWORD PTR _pCityEspionage$[ebp]
	mov	edx, DWORD PTR [ecx+eax*4+4]
	mov	DWORD PTR _iDefendingSpy$222529[ebp], edx

; 546  : 				if(pDefendingPlayerEspionage)

	cmp	DWORD PTR _pDefendingPlayerEspionage$222505[ebp], 0
	je	SHORT $LN31@ProcessSpy

; 547  : 				{
; 548  : 					CvAssertMsg(iDefendingSpy >= 0, "No defending spy. This is ok if debugging and killing a spy without having a defending spy present, but should not occur when playing the game normally.");
; 549  : 					if(iDefendingSpy >= 0)

	cmp	DWORD PTR _iDefendingSpy$222529[ebp], 0
	jl	SHORT $LN31@ProcessSpy

; 550  : 					{
; 551  : 						pDefendingPlayerEspionage->LevelUpSpy(iDefendingSpy);

	mov	eax, DWORD PTR _iDefendingSpy$222529[ebp]
	push	eax
	mov	ecx, DWORD PTR _pDefendingPlayerEspionage$222505[ebp]
	call	?LevelUpSpy@CvPlayerEspionage@@QAEXI@Z	; CvPlayerEspionage::LevelUpSpy
$LN31@ProcessSpy:

; 552  : 					}
; 553  : 				}
; 554  : 
; 555  : 				// kill spy off
; 556  : 				ExtractSpyFromCity(uiSpyIndex); // move the dead body out so that someone else can move in

	mov	ecx, DWORD PTR _uiSpyIndex$[ebp]
	push	ecx
	mov	ecx, DWORD PTR _this$[ebp]
	call	?ExtractSpyFromCity@CvPlayerEspionage@@QAE_NI@Z ; CvPlayerEspionage::ExtractSpyFromCity

; 557  : 				pSpy->m_eSpyState = SPY_STATE_DEAD; // have to official kill him after the extraction

	mov	edx, DWORD PTR _pSpy$[ebp]
	mov	DWORD PTR [edx+16], 8

; 558  : 
; 559  : 				if(GC.getLogging())

	mov	ecx, OFFSET ?gGlobals@@3VCvGlobals@@A	; gGlobals
	call	?getLogging@CvGlobals@@QAE_NXZ		; CvGlobals::getLogging
	movzx	eax, al
	test	eax, eax
	je	$LN29@ProcessSpy

; 560  : 				{
; 561  : 					CvString strMsg;

	lea	ecx, DWORD PTR _strMsg$222533[ebp]
	call	DWORD PTR __imp_??0?$basic_string@DU?$char_traits@D@std@@V?$allocator@D@2@@std@@QAE@XZ
	mov	DWORD PTR __$EHRec$[ebp+8], 12		; 0000000cH

; 562  : 					strMsg.Format("Killed, %d,", uiSpyIndex);

	mov	ecx, DWORD PTR _uiSpyIndex$[ebp]
	push	ecx
	push	OFFSET ??_C@_0M@CIJAGPKD@Killed?0?5?$CFd?0?$AA@
	lea	edx, DWORD PTR _strMsg$222533[ebp]
	push	edx
	call	?Format@CvString@@QAAXPBDZZ		; CvString::Format
	add	esp, 12					; 0000000cH

; 563  : 					strMsg += GetLocalizedText(m_pPlayer->getCivilizationInfo().getSpyNames(m_aSpyList[uiSpyIndex].m_iName));

	mov	eax, DWORD PTR _uiSpyIndex$[ebp]
	imul	eax, 28					; 0000001cH
	mov	ecx, DWORD PTR _this$[ebp]
	add	eax, DWORD PTR [ecx+4]
	mov	DWORD PTR $T234621[ebp], eax
	mov	edx, DWORD PTR $T234621[ebp]
	mov	eax, DWORD PTR [edx]
	push	eax
	mov	ecx, DWORD PTR _this$[ebp]
	mov	ecx, DWORD PTR [ecx+1296]
	call	?getCivilizationInfo@CvPlayer@@QBEAAVCvCivilizationInfo@@XZ ; CvPlayer::getCivilizationInfo
	mov	ecx, eax
	call	?getSpyNames@CvCivilizationInfo@@QBEPBDH@Z ; CvCivilizationInfo::getSpyNames
	push	eax
	lea	edx, DWORD PTR $T234165[ebp]
	push	edx
	call	?GetLocalizedText@@YA?AVCvString@@PBD@Z	; GetLocalizedText
	add	esp, 8
	mov	DWORD PTR tv854[ebp], eax
	mov	eax, DWORD PTR tv854[ebp]
	mov	DWORD PTR tv1653[ebp], eax
	mov	BYTE PTR __$EHRec$[ebp+8], 13		; 0000000dH
	mov	ecx, DWORD PTR tv1653[ebp]
	push	ecx
	lea	ecx, DWORD PTR _strMsg$222533[ebp]
	call	DWORD PTR __imp_??Y?$basic_string@DU?$char_traits@D@std@@V?$allocator@D@2@@std@@QAEAAV01@ABV01@@Z
	mov	BYTE PTR __$EHRec$[ebp+8], 12		; 0000000cH
	lea	ecx, DWORD PTR $T234165[ebp]
	call	DWORD PTR __imp_??1?$basic_string@DU?$char_traits@D@std@@V?$allocator@D@2@@std@@QAE@XZ

; 564  : 					strMsg += ",";

	push	OFFSET ??_C@_01IHBHIGKO@?0?$AA@
	lea	ecx, DWORD PTR _strMsg$222533[ebp]
	call	DWORD PTR __imp_??Y?$basic_string@DU?$char_traits@D@std@@V?$allocator@D@2@@std@@QAEAAV01@PBD@Z

; 565  : 					strMsg += ",";

	push	OFFSET ??_C@_01IHBHIGKO@?0?$AA@
	lea	ecx, DWORD PTR _strMsg$222533[ebp]
	call	DWORD PTR __imp_??Y?$basic_string@DU?$char_traits@D@std@@V?$allocator@D@2@@std@@QAEAAV01@PBD@Z

; 566  : 					strMsg += ",";

	push	OFFSET ??_C@_01IHBHIGKO@?0?$AA@
	lea	ecx, DWORD PTR _strMsg$222533[ebp]
	call	DWORD PTR __imp_??Y?$basic_string@DU?$char_traits@D@std@@V?$allocator@D@2@@std@@QAEAAV01@PBD@Z

; 567  : 					strMsg += GET_PLAYER(eCityOwner).getCivilizationShortDescription();

	mov	edx, DWORD PTR _eCityOwner$[ebp]
	imul	edx, 63236				; 0000f704H
	add	edx, DWORD PTR ?m_aPlayers@CvPlayerAI@@1PAV1@A ; CvPlayerAI::m_aPlayers
	mov	DWORD PTR $T234629[ebp], edx
	mov	ecx, DWORD PTR $T234629[ebp]
	call	?getCivilizationShortDescription@CvPlayer@@QBEPBDXZ ; CvPlayer::getCivilizationShortDescription
	push	eax
	lea	ecx, DWORD PTR _strMsg$222533[ebp]
	call	DWORD PTR __imp_??Y?$basic_string@DU?$char_traits@D@std@@V?$allocator@D@2@@std@@QAEAAV01@PBD@Z

; 568  : 					strMsg += ",";

	push	OFFSET ??_C@_01IHBHIGKO@?0?$AA@
	lea	ecx, DWORD PTR _strMsg$222533[ebp]
	call	DWORD PTR __imp_??Y?$basic_string@DU?$char_traits@D@std@@V?$allocator@D@2@@std@@QAEAAV01@PBD@Z

; 569  : 					strMsg += pCity->getName();

	lea	eax, DWORD PTR $T234166[ebp]
	push	eax
	mov	ecx, DWORD PTR _pCity$[ebp]
	call	?getName@CvCity@@QBE?BVCvString@@XZ	; CvCity::getName
	mov	DWORD PTR tv850[ebp], eax
	mov	ecx, DWORD PTR tv850[ebp]
	mov	DWORD PTR tv1655[ebp], ecx
	mov	BYTE PTR __$EHRec$[ebp+8], 14		; 0000000eH
	mov	edx, DWORD PTR tv1655[ebp]
	push	edx
	lea	ecx, DWORD PTR _strMsg$222533[ebp]
	call	DWORD PTR __imp_??Y?$basic_string@DU?$char_traits@D@std@@V?$allocator@D@2@@std@@QAEAAV01@ABV01@@Z
	mov	BYTE PTR __$EHRec$[ebp+8], 12		; 0000000cH
	lea	ecx, DWORD PTR $T234166[ebp]
	call	DWORD PTR __imp_??1?$basic_string@DU?$char_traits@D@std@@V?$allocator@D@2@@std@@QAE@XZ

; 570  : 					strMsg += ",";

	push	OFFSET ??_C@_01IHBHIGKO@?0?$AA@
	lea	ecx, DWORD PTR _strMsg$222533[ebp]
	call	DWORD PTR __imp_??Y?$basic_string@DU?$char_traits@D@std@@V?$allocator@D@2@@std@@QAEAAV01@PBD@Z

; 571  : 					strMsg += "Killed";

	push	OFFSET ??_C@_06GJNLCKAP@Killed?$AA@
	lea	ecx, DWORD PTR _strMsg$222533[ebp]
	call	DWORD PTR __imp_??Y?$basic_string@DU?$char_traits@D@std@@V?$allocator@D@2@@std@@QAEAAV01@PBD@Z

; 572  : 					LogEspionageMsg(strMsg);

	lea	eax, DWORD PTR _strMsg$222533[ebp]
	push	eax
	mov	ecx, DWORD PTR _this$[ebp]
	call	?LogEspionageMsg@CvPlayerEspionage@@QAEXAAVCvString@@@Z ; CvPlayerEspionage::LogEspionageMsg

; 573  : 				}

	mov	DWORD PTR __$EHRec$[ebp+8], -1
	lea	ecx, DWORD PTR _strMsg$222533[ebp]
	call	DWORD PTR __imp_??1?$basic_string@DU?$char_traits@D@std@@V?$allocator@D@2@@std@@QAE@XZ
$LN29@ProcessSpy:

; 574  : 			}
; 575  : 			else // spy successfully completed mission

	jmp	$LN28@ProcessSpy
$LN35@ProcessSpy:

; 576  : 			{
; 577  : 				pSpy->m_bEvaluateReassignment = true; // flag spy for reassignment

	mov	ecx, DWORD PTR _pSpy$[ebp]
	mov	BYTE PTR [ecx+25], 1

; 578  : 				if(GC.getLogging())

	mov	ecx, OFFSET ?gGlobals@@3VCvGlobals@@A	; gGlobals
	call	?getLogging@CvGlobals@@QAE_NXZ		; CvGlobals::getLogging
	movzx	edx, al
	test	edx, edx
	je	$LN27@ProcessSpy

; 579  : 				{
; 580  : 					CvString strMsg;

	lea	ecx, DWORD PTR _strMsg$222540[ebp]
	call	DWORD PTR __imp_??0?$basic_string@DU?$char_traits@D@std@@V?$allocator@D@2@@std@@QAE@XZ
	mov	DWORD PTR __$EHRec$[ebp+8], 15		; 0000000fH

; 581  : 					strMsg.Format("Re-eval: spy completed mission, %d,", uiSpyIndex);

	mov	eax, DWORD PTR _uiSpyIndex$[ebp]
	push	eax
	push	OFFSET ??_C@_0CE@PNEMGBL@Re?9eval?3?5spy?5completed?5mission?0?5@
	lea	ecx, DWORD PTR _strMsg$222540[ebp]
	push	ecx
	call	?Format@CvString@@QAAXPBDZZ		; CvString::Format
	add	esp, 12					; 0000000cH

; 582  : 					strMsg += GetLocalizedText(m_pPlayer->getCivilizationInfo().getSpyNames(pSpy->m_iName));

	mov	edx, DWORD PTR _pSpy$[ebp]
	mov	eax, DWORD PTR [edx]
	push	eax
	mov	ecx, DWORD PTR _this$[ebp]
	mov	ecx, DWORD PTR [ecx+1296]
	call	?getCivilizationInfo@CvPlayer@@QBEAAVCvCivilizationInfo@@XZ ; CvPlayer::getCivilizationInfo
	mov	ecx, eax
	call	?getSpyNames@CvCivilizationInfo@@QBEPBDH@Z ; CvCivilizationInfo::getSpyNames
	push	eax
	lea	edx, DWORD PTR $T234167[ebp]
	push	edx
	call	?GetLocalizedText@@YA?AVCvString@@PBD@Z	; GetLocalizedText
	add	esp, 8
	mov	DWORD PTR tv560[ebp], eax
	mov	eax, DWORD PTR tv560[ebp]
	mov	DWORD PTR tv1658[ebp], eax
	mov	BYTE PTR __$EHRec$[ebp+8], 16		; 00000010H
	mov	ecx, DWORD PTR tv1658[ebp]
	push	ecx
	lea	ecx, DWORD PTR _strMsg$222540[ebp]
	call	DWORD PTR __imp_??Y?$basic_string@DU?$char_traits@D@std@@V?$allocator@D@2@@std@@QAEAAV01@ABV01@@Z
	mov	BYTE PTR __$EHRec$[ebp+8], 15		; 0000000fH
	lea	ecx, DWORD PTR $T234167[ebp]
	call	DWORD PTR __imp_??1?$basic_string@DU?$char_traits@D@std@@V?$allocator@D@2@@std@@QAE@XZ

; 583  : 					LogEspionageMsg(strMsg);

	lea	edx, DWORD PTR _strMsg$222540[ebp]
	push	edx
	mov	ecx, DWORD PTR _this$[ebp]
	call	?LogEspionageMsg@CvPlayerEspionage@@QAEXAAVCvString@@@Z ; CvPlayerEspionage::LogEspionageMsg

; 584  : 				}

	mov	DWORD PTR __$EHRec$[ebp+8], -1
	lea	ecx, DWORD PTR _strMsg$222540[ebp]
	call	DWORD PTR __imp_??1?$basic_string@DU?$char_traits@D@std@@V?$allocator@D@2@@std@@QAE@XZ
$LN27@ProcessSpy:

; 585  : 				int iCityOwner = (int)eCityOwner;

	mov	eax, DWORD PTR _eCityOwner$[ebp]
	mov	DWORD PTR _iCityOwner$222543[ebp], eax

; 586  : 				m_aiNumTechsToStealList[iCityOwner] = m_aiNumTechsToStealList[iCityOwner] + 1;

	mov	ecx, DWORD PTR _this$[ebp]
	mov	edx, DWORD PTR [ecx+720]
	mov	eax, DWORD PTR _iCityOwner$222543[ebp]
	lea	ecx, DWORD PTR [edx+eax*4]
	mov	DWORD PTR $T234653[ebp], ecx
	mov	edx, DWORD PTR $T234653[ebp]
	mov	eax, DWORD PTR [edx]
	add	eax, 1
	mov	ecx, DWORD PTR _this$[ebp]
	mov	edx, DWORD PTR [ecx+720]
	mov	ecx, DWORD PTR _iCityOwner$222543[ebp]
	mov	DWORD PTR [edx+ecx*4], eax

; 587  : 				pCityEspionage->ResetProgress(ePlayer);

	mov	edx, DWORD PTR _ePlayer$[ebp]
	push	edx
	mov	ecx, DWORD PTR _pCityEspionage$[ebp]
	call	?ResetProgress@CvCityEspionage@@QAEXW4PlayerTypes@@@Z ; CvCityEspionage::ResetProgress

; 588  : 				int iRate = CalcPerTurn(SPY_STATE_GATHERING_INTEL, pCity, uiSpyIndex);

	mov	eax, DWORD PTR _uiSpyIndex$[ebp]
	push	eax
	mov	ecx, DWORD PTR _pCity$[ebp]
	push	ecx
	push	3
	mov	ecx, DWORD PTR _this$[ebp]
	call	?CalcPerTurn@CvPlayerEspionage@@QAEHHPAVCvCity@@H@Z ; CvPlayerEspionage::CalcPerTurn
	mov	DWORD PTR _iRate$222545[ebp], eax

; 589  : 				int iGoal = CalcRequired(SPY_STATE_GATHERING_INTEL, pCity, uiSpyIndex);

	mov	edx, DWORD PTR _uiSpyIndex$[ebp]
	push	edx
	mov	eax, DWORD PTR _pCity$[ebp]
	push	eax
	push	3
	mov	ecx, DWORD PTR _this$[ebp]
	call	?CalcRequired@CvPlayerEspionage@@QAEHHPAVCvCity@@H@Z ; CvPlayerEspionage::CalcRequired
	mov	DWORD PTR _iGoal$222546[ebp], eax

; 590  : 				pCityEspionage->SetActivity(ePlayer, 0, iRate, iGoal);

	mov	ecx, DWORD PTR _iGoal$222546[ebp]
	push	ecx
	mov	edx, DWORD PTR _iRate$222545[ebp]
	push	edx
	push	0
	mov	eax, DWORD PTR _ePlayer$[ebp]
	push	eax
	mov	ecx, DWORD PTR _pCityEspionage$[ebp]
	call	?SetActivity@CvCityEspionage@@QAEXW4PlayerTypes@@HHH@Z ; CvCityEspionage::SetActivity

; 591  : 				pCityEspionage->SetLastProgress(ePlayer, iRate);

	mov	ecx, DWORD PTR _iRate$222545[ebp]
	push	ecx
	mov	edx, DWORD PTR _ePlayer$[ebp]
	push	edx
	mov	ecx, DWORD PTR _pCityEspionage$[ebp]
	call	?SetLastProgress@CvCityEspionage@@QAEXW4PlayerTypes@@H@Z ; CvCityEspionage::SetLastProgress

; 592  : 				pCityEspionage->m_aiNumTimesCityRobbed[eCityOwner]++;

	mov	eax, DWORD PTR _eCityOwner$[ebp]
	mov	ecx, DWORD PTR _pCityEspionage$[ebp]
	lea	edx, DWORD PTR [ecx+eax*4+708]
	mov	DWORD PTR tv1199[ebp], edx
	mov	eax, DWORD PTR tv1199[ebp]
	mov	ecx, DWORD PTR [eax]
	add	ecx, 1
	mov	edx, DWORD PTR tv1199[ebp]
	mov	DWORD PTR [edx], ecx

; 593  : 
; 594  : 				if(pCityEspionage->m_aiResult[ePlayer] == SPY_RESULT_IDENTIFIED)

	mov	eax, DWORD PTR _ePlayer$[ebp]
	mov	ecx, DWORD PTR _pCityEspionage$[ebp]
	cmp	DWORD PTR [ecx+eax*4+620], 2
	jne	$LN372@ProcessSpy

; 595  : 				{
; 596  : 					CvEspionageAI* pDefenderEspionageAI = GET_PLAYER(eCityOwner).GetEspionageAI();

	mov	edx, DWORD PTR _eCityOwner$[ebp]
	imul	edx, 63236				; 0000f704H
	add	edx, DWORD PTR ?m_aPlayers@CvPlayerAI@@1PAV1@A ; CvPlayerAI::m_aPlayers
	mov	DWORD PTR $T234666[ebp], edx
	mov	ecx, DWORD PTR $T234666[ebp]
	call	?GetEspionageAI@CvPlayer@@QBEPAVCvEspionageAI@@XZ ; CvPlayer::GetEspionageAI
	mov	DWORD PTR _pDefenderEspionageAI$222548[ebp], eax

; 597  : 					CvAssertMsg(pDefenderEspionageAI, "pDefenderEspionageAI is null");
; 598  : 					if(pDefenderEspionageAI)

	cmp	DWORD PTR _pDefenderEspionageAI$222548[ebp], 0
	je	$LN372@ProcessSpy

; 599  : 					{
; 600  : 						pDefenderEspionageAI->m_aiTurnLastSpyCaught[m_pPlayer->GetID()] = GC.getGame().getGameTurn();

	mov	eax, DWORD PTR ?gGlobals@@3VCvGlobals@@A+48
	mov	DWORD PTR $T234670[ebp], eax
	mov	ecx, DWORD PTR _this$[ebp]
	mov	edx, DWORD PTR [ecx+1296]
	mov	eax, DWORD PTR [edx+44]
	mov	DWORD PTR $T234679[ebp], eax
	mov	ecx, DWORD PTR _pDefenderEspionageAI$222548[ebp]
	mov	edx, DWORD PTR [ecx+420]
	mov	eax, DWORD PTR $T234679[ebp]
	lea	ecx, DWORD PTR [edx+eax*4]
	mov	DWORD PTR $T234683[ebp], ecx
	mov	ecx, DWORD PTR $T234670[ebp]
	call	?getGameTurn@CvGame@@QAEHXZ		; CvGame::getGameTurn
	mov	edx, DWORD PTR $T234683[ebp]
	mov	DWORD PTR [edx], eax

; 601  : 						pDefenderEspionageAI->m_aiNumSpiesCaught[m_pPlayer->GetID()]++;

	mov	eax, DWORD PTR _this$[ebp]
	mov	ecx, DWORD PTR [eax+1296]
	mov	edx, DWORD PTR [ecx+44]
	mov	DWORD PTR $T234692[ebp], edx
	mov	eax, DWORD PTR _pDefenderEspionageAI$222548[ebp]
	mov	ecx, DWORD PTR [eax+108]
	mov	edx, DWORD PTR $T234692[ebp]
	lea	eax, DWORD PTR [ecx+edx*4]
	mov	DWORD PTR tv1241[ebp], eax
	mov	ecx, DWORD PTR tv1241[ebp]
	mov	edx, DWORD PTR [ecx]
	add	edx, 1
	mov	eax, DWORD PTR tv1241[ebp]
	mov	DWORD PTR [eax], edx

; 602  : 					}
; 603  : 				}
; 604  : 
; 605  : 				// this check was added because m_aiNumTechsToStealList was getting out of whack somehow and this is a check to prevent the UI from going haywire
; 606  : 				CvAssertMsg(m_aiNumTechsToStealList[iCityOwner] > 0, "m_aiNumTechsToStealList[iCityOwner] <= 0, which shouldn't happen after you succeed at stealing");
; 607  : 				if (m_aiNumTechsToStealList[iCityOwner] > 0)

$LN372@ProcessSpy:
	mov	ecx, DWORD PTR _this$[ebp]
	mov	edx, DWORD PTR [ecx+720]
	mov	eax, DWORD PTR _iCityOwner$222543[ebp]
	cmp	DWORD PTR [edx+eax*4], 0
	jle	$LN381@ProcessSpy

; 608  : 				{
; 609  : 					CvNotifications* pNotifications = m_pPlayer->GetNotifications();

	mov	ecx, DWORD PTR _this$[ebp]
	mov	ecx, DWORD PTR [ecx+1296]
	call	?GetNotifications@CvPlayer@@QBEPAVCvNotifications@@XZ ; CvPlayer::GetNotifications
	mov	DWORD PTR _pNotifications$222551[ebp], eax

; 610  : 					if(pNotifications)

	cmp	DWORD PTR _pNotifications$222551[ebp], 0
	je	$LN23@ProcessSpy

; 611  : 					{
; 612  : 						Localization::String strSummary = GetLocalizedText("TXT_KEY_NOTIFICATION_SPY_STEAL_TECH_S");

	push	OFFSET ??_C@_0CG@HCDNHFJC@TXT_KEY_NOTIFICATION_SPY_STEAL_T@
	lea	edx, DWORD PTR $T234168[ebp]
	push	edx
	call	?GetLocalizedText@@YA?AVCvString@@PBD@Z	; GetLocalizedText
	add	esp, 8
	mov	DWORD PTR tv556[ebp], eax
	mov	eax, DWORD PTR tv556[ebp]
	mov	DWORD PTR $T234702[ebp], eax
	mov	DWORD PTR __$EHRec$[ebp+8], 17		; 00000011H
	mov	ecx, DWORD PTR $T234702[ebp]
	call	DWORD PTR __imp_?c_str@?$basic_string@DU?$char_traits@D@std@@V?$allocator@D@2@@std@@QBEPBDXZ
	mov	DWORD PTR $T234703[ebp], eax
	mov	ecx, DWORD PTR $T234703[ebp]
	push	ecx
	lea	ecx, DWORD PTR _strSummary$222553[ebp]
	call	DWORD PTR __imp_??0String@Localization@@QAE@PBD@Z
	mov	BYTE PTR __$EHRec$[ebp+8], 19		; 00000013H
	lea	ecx, DWORD PTR $T234168[ebp]
	call	DWORD PTR __imp_??1?$basic_string@DU?$char_traits@D@std@@V?$allocator@D@2@@std@@QAE@XZ

; 613  : 						Localization::String strNotification = Localization::Lookup("TXT_KEY_NOTIFICATION_SPY_STEAL_TECH");

	push	OFFSET ??_C@_0CE@FMJCEEFH@TXT_KEY_NOTIFICATION_SPY_STEAL_T@
	lea	edx, DWORD PTR _strNotification$222556[ebp]
	push	edx
	call	DWORD PTR __imp_?Lookup@Localization@@YA?AVString@1@PBD@Z
	add	esp, 8
	mov	BYTE PTR __$EHRec$[ebp+8], 20		; 00000014H

; 614  : 						strNotification << GetSpyRankName(pSpy->m_eRank);

	mov	eax, DWORD PTR _pSpy$[ebp]
	mov	ecx, DWORD PTR [eax+12]
	push	ecx
	mov	ecx, DWORD PTR _this$[ebp]
	call	?GetSpyRankName@CvPlayerEspionage@@QBEPBDH@Z ; CvPlayerEspionage::GetSpyRankName
	mov	DWORD PTR $T234169[ebp], eax
	lea	edx, DWORD PTR $T234169[ebp]
	push	edx
	lea	eax, DWORD PTR _strNotification$222556[ebp]
	push	eax
	call	??$?6PBD@@YAAAVString@Localization@@AAV01@ABQBD@Z ; operator<<<char const *>
	add	esp, 8

; 615  : 						strNotification << m_pPlayer->getCivilizationInfo().getSpyNames(pSpy->m_iName);

	mov	ecx, DWORD PTR _pSpy$[ebp]
	mov	edx, DWORD PTR [ecx]
	push	edx
	mov	eax, DWORD PTR _this$[ebp]
	mov	ecx, DWORD PTR [eax+1296]
	call	?getCivilizationInfo@CvPlayer@@QBEAAVCvCivilizationInfo@@XZ ; CvPlayer::getCivilizationInfo
	mov	ecx, eax
	call	?getSpyNames@CvCivilizationInfo@@QBEPBDH@Z ; CvCivilizationInfo::getSpyNames
	mov	DWORD PTR $T234170[ebp], eax
	lea	ecx, DWORD PTR $T234170[ebp]
	push	ecx
	lea	edx, DWORD PTR _strNotification$222556[ebp]
	push	edx
	call	??$?6PBD@@YAAAVString@Localization@@AAV01@ABQBD@Z ; operator<<<char const *>
	add	esp, 8

; 616  : 						strNotification << pCity->getNameKey();

	mov	ecx, DWORD PTR _pCity$[ebp]
	call	?getNameKey@CvCity@@QBEPBDXZ		; CvCity::getNameKey
	mov	DWORD PTR $T234171[ebp], eax
	lea	eax, DWORD PTR $T234171[ebp]
	push	eax
	lea	ecx, DWORD PTR _strNotification$222556[ebp]
	push	ecx
	call	??$?6PBD@@YAAAVString@Localization@@AAV01@ABQBD@Z ; operator<<<char const *>
	add	esp, 8

; 617  : 						strNotification << GET_PLAYER(eCityOwner).getCivilizationInfo().getShortDescriptionKey();

	mov	edx, DWORD PTR _eCityOwner$[ebp]
	imul	edx, 63236				; 0000f704H
	add	edx, DWORD PTR ?m_aPlayers@CvPlayerAI@@1PAV1@A ; CvPlayerAI::m_aPlayers
	mov	DWORD PTR $T234711[ebp], edx
	mov	ecx, DWORD PTR $T234711[ebp]
	call	?getCivilizationInfo@CvPlayer@@QBEAAVCvCivilizationInfo@@XZ ; CvPlayer::getCivilizationInfo
	mov	ecx, eax
	call	?getShortDescriptionKey@CvCivilizationBaseInfo@@QBEPBDXZ ; CvCivilizationBaseInfo::getShortDescriptionKey
	mov	DWORD PTR $T234172[ebp], eax
	lea	eax, DWORD PTR $T234172[ebp]
	push	eax
	lea	ecx, DWORD PTR _strNotification$222556[ebp]
	push	ecx
	call	??$?6PBD@@YAAAVString@Localization@@AAV01@ABQBD@Z ; operator<<<char const *>
	add	esp, 8

; 618  : 						pNotifications->Add(NOTIFICATION_SPY_STOLE_TECH, strNotification.toUTF8(), strSummary.toUTF8(), -1, -1, eCityOwner);

	push	-1
	mov	edx, DWORD PTR _eCityOwner$[ebp]
	push	edx
	push	-1
	push	-1
	lea	ecx, DWORD PTR _strSummary$222553[ebp]
	call	DWORD PTR __imp_?toUTF8@String@Localization@@QAEPBDXZ
	push	eax
	lea	ecx, DWORD PTR _strNotification$222556[ebp]
	call	DWORD PTR __imp_?toUTF8@String@Localization@@QAEPBDXZ
	push	eax
	push	-1774532806				; 963ac73aH
	mov	ecx, DWORD PTR _pNotifications$222551[ebp]
	call	?Add@CvNotifications@@QAEHW4NotificationTypes@@PBD1HHHH@Z ; CvNotifications::Add

; 619  : 					}

	mov	BYTE PTR __$EHRec$[ebp+8], 19		; 00000013H
	lea	ecx, DWORD PTR _strNotification$222556[ebp]
	call	DWORD PTR __imp_??1String@Localization@@UAE@XZ
	mov	DWORD PTR __$EHRec$[ebp+8], -1
	lea	ecx, DWORD PTR _strSummary$222553[ebp]
	call	DWORD PTR __imp_??1String@Localization@@UAE@XZ
$LN23@ProcessSpy:

; 620  : 				}
; 621  : 				else

	jmp	SHORT $LN385@ProcessSpy

; 622  : 				{
; 623  : 					m_aiNumTechsToStealList[iCityOwner] = 0;

$LN381@ProcessSpy:
	mov	eax, DWORD PTR _this$[ebp]
	mov	ecx, DWORD PTR [eax+720]
	mov	edx, DWORD PTR _iCityOwner$222543[ebp]
	mov	DWORD PTR [ecx+edx*4], 0

; 624  : 				}
; 625  : 
; 626  : 				//Achievements!
; 627  : 				if(m_pPlayer->GetID() == GC.getGame().getActivePlayer())

$LN385@ProcessSpy:
	mov	eax, DWORD PTR _this$[ebp]
	mov	ecx, DWORD PTR [eax+1296]
	mov	edx, DWORD PTR [ecx+44]
	mov	DWORD PTR $T234723[ebp], edx
	mov	eax, DWORD PTR ?gGlobals@@3VCvGlobals@@A+48
	mov	DWORD PTR $T234727[ebp], eax
	mov	ecx, DWORD PTR $T234727[ebp]
	call	?getActivePlayer@CvGame@@QBE?AW4PlayerTypes@@XZ ; CvGame::getActivePlayer
	cmp	DWORD PTR $T234723[ebp], eax
	jne	SHORT $LN21@ProcessSpy

; 628  : 				{
; 629  : 					gDLL->UnlockAchievement(ACHIEVEMENT_XP1_12);

	mov	ecx, DWORD PTR $T234731[ebp]
	mov	DWORD PTR tv1340[ebp], ecx
	mov	edx, DWORD PTR ?gGlobals@@3VCvGlobals@@A+8564
	mov	DWORD PTR tv1340[ebp], edx
	push	202					; 000000caH
	mov	eax, DWORD PTR tv1340[ebp]
	mov	edx, DWORD PTR [eax]
	mov	ecx, DWORD PTR tv1340[ebp]
	mov	eax, DWORD PTR [edx+828]
	call	eax
$LN21@ProcessSpy:

; 630  : 				}
; 631  : 
; 632  : 				LevelUpSpy(uiSpyIndex);

	mov	ecx, DWORD PTR _uiSpyIndex$[ebp]
	push	ecx
	mov	ecx, DWORD PTR _this$[ebp]
	call	?LevelUpSpy@CvPlayerEspionage@@QAEXI@Z	; CvPlayerEspionage::LevelUpSpy

; 633  : 
; 634  : 				if(GC.getLogging())

	mov	ecx, OFFSET ?gGlobals@@3VCvGlobals@@A	; gGlobals
	call	?getLogging@CvGlobals@@QAE_NXZ		; CvGlobals::getLogging
	movzx	edx, al
	test	edx, edx
	je	$LN28@ProcessSpy

; 635  : 				{
; 636  : 					CvString strMsg;

	lea	ecx, DWORD PTR _strMsg$222566[ebp]
	call	DWORD PTR __imp_??0?$basic_string@DU?$char_traits@D@std@@V?$allocator@D@2@@std@@QAE@XZ
	mov	DWORD PTR __$EHRec$[ebp+8], 21		; 00000015H

; 637  : 					strMsg.Format("Stealing tech, %d,", uiSpyIndex);

	mov	eax, DWORD PTR _uiSpyIndex$[ebp]
	push	eax
	push	OFFSET ??_C@_0BD@FOINDKNF@Stealing?5tech?0?5?$CFd?0?$AA@
	lea	ecx, DWORD PTR _strMsg$222566[ebp]
	push	ecx
	call	?Format@CvString@@QAAXPBDZZ		; CvString::Format
	add	esp, 12					; 0000000cH

; 638  : 					strMsg += GetLocalizedText(m_pPlayer->getCivilizationInfo().getSpyNames(m_aSpyList[uiSpyIndex].m_iName));

	mov	edx, DWORD PTR _uiSpyIndex$[ebp]
	imul	edx, 28					; 0000001cH
	mov	eax, DWORD PTR _this$[ebp]
	add	edx, DWORD PTR [eax+4]
	mov	DWORD PTR $T234739[ebp], edx
	mov	ecx, DWORD PTR $T234739[ebp]
	mov	edx, DWORD PTR [ecx]
	push	edx
	mov	eax, DWORD PTR _this$[ebp]
	mov	ecx, DWORD PTR [eax+1296]
	call	?getCivilizationInfo@CvPlayer@@QBEAAVCvCivilizationInfo@@XZ ; CvPlayer::getCivilizationInfo
	mov	ecx, eax
	call	?getSpyNames@CvCivilizationInfo@@QBEPBDH@Z ; CvCivilizationInfo::getSpyNames
	push	eax
	lea	ecx, DWORD PTR $T234173[ebp]
	push	ecx
	call	?GetLocalizedText@@YA?AVCvString@@PBD@Z	; GetLocalizedText
	add	esp, 8
	mov	DWORD PTR tv1267[ebp], eax
	mov	edx, DWORD PTR tv1267[ebp]
	mov	DWORD PTR tv1665[ebp], edx
	mov	BYTE PTR __$EHRec$[ebp+8], 22		; 00000016H
	mov	eax, DWORD PTR tv1665[ebp]
	push	eax
	lea	ecx, DWORD PTR _strMsg$222566[ebp]
	call	DWORD PTR __imp_??Y?$basic_string@DU?$char_traits@D@std@@V?$allocator@D@2@@std@@QAEAAV01@ABV01@@Z
	mov	BYTE PTR __$EHRec$[ebp+8], 21		; 00000015H
	lea	ecx, DWORD PTR $T234173[ebp]
	call	DWORD PTR __imp_??1?$basic_string@DU?$char_traits@D@std@@V?$allocator@D@2@@std@@QAE@XZ

; 639  : 					strMsg += ",";

	push	OFFSET ??_C@_01IHBHIGKO@?0?$AA@
	lea	ecx, DWORD PTR _strMsg$222566[ebp]
	call	DWORD PTR __imp_??Y?$basic_string@DU?$char_traits@D@std@@V?$allocator@D@2@@std@@QAEAAV01@PBD@Z

; 640  : 					strMsg += ",";

	push	OFFSET ??_C@_01IHBHIGKO@?0?$AA@
	lea	ecx, DWORD PTR _strMsg$222566[ebp]
	call	DWORD PTR __imp_??Y?$basic_string@DU?$char_traits@D@std@@V?$allocator@D@2@@std@@QAEAAV01@PBD@Z

; 641  : 					strMsg += ",";

	push	OFFSET ??_C@_01IHBHIGKO@?0?$AA@
	lea	ecx, DWORD PTR _strMsg$222566[ebp]
	call	DWORD PTR __imp_??Y?$basic_string@DU?$char_traits@D@std@@V?$allocator@D@2@@std@@QAEAAV01@PBD@Z

; 642  : 					strMsg += GET_PLAYER(eCityOwner).getCivilizationShortDescription();

	mov	ecx, DWORD PTR _eCityOwner$[ebp]
	imul	ecx, 63236				; 0000f704H
	add	ecx, DWORD PTR ?m_aPlayers@CvPlayerAI@@1PAV1@A ; CvPlayerAI::m_aPlayers
	mov	DWORD PTR $T234747[ebp], ecx
	mov	ecx, DWORD PTR $T234747[ebp]
	call	?getCivilizationShortDescription@CvPlayer@@QBEPBDXZ ; CvPlayer::getCivilizationShortDescription
	push	eax
	lea	ecx, DWORD PTR _strMsg$222566[ebp]
	call	DWORD PTR __imp_??Y?$basic_string@DU?$char_traits@D@std@@V?$allocator@D@2@@std@@QAEAAV01@PBD@Z

; 643  : 					strMsg += ",";

	push	OFFSET ??_C@_01IHBHIGKO@?0?$AA@
	lea	ecx, DWORD PTR _strMsg$222566[ebp]
	call	DWORD PTR __imp_??Y?$basic_string@DU?$char_traits@D@std@@V?$allocator@D@2@@std@@QAEAAV01@PBD@Z

; 644  : 					strMsg += pCity->getName();

	lea	edx, DWORD PTR $T234174[ebp]
	push	edx
	mov	ecx, DWORD PTR _pCity$[ebp]
	call	?getName@CvCity@@QBE?BVCvString@@XZ	; CvCity::getName
	mov	DWORD PTR tv1257[ebp], eax
	mov	eax, DWORD PTR tv1257[ebp]
	mov	DWORD PTR tv1667[ebp], eax
	mov	BYTE PTR __$EHRec$[ebp+8], 23		; 00000017H
	mov	ecx, DWORD PTR tv1667[ebp]
	push	ecx
	lea	ecx, DWORD PTR _strMsg$222566[ebp]
	call	DWORD PTR __imp_??Y?$basic_string@DU?$char_traits@D@std@@V?$allocator@D@2@@std@@QAEAAV01@ABV01@@Z
	mov	BYTE PTR __$EHRec$[ebp+8], 21		; 00000015H
	lea	ecx, DWORD PTR $T234174[ebp]
	call	DWORD PTR __imp_??1?$basic_string@DU?$char_traits@D@std@@V?$allocator@D@2@@std@@QAE@XZ

; 645  : 					strMsg += ",";

	push	OFFSET ??_C@_01IHBHIGKO@?0?$AA@
	lea	ecx, DWORD PTR _strMsg$222566[ebp]
	call	DWORD PTR __imp_??Y?$basic_string@DU?$char_traits@D@std@@V?$allocator@D@2@@std@@QAEAAV01@PBD@Z

; 646  : 					switch(pCityEspionage->m_aiResult[ePlayer])

	mov	edx, DWORD PTR _ePlayer$[ebp]
	mov	eax, DWORD PTR _pCityEspionage$[ebp]
	mov	ecx, DWORD PTR [eax+edx*4+620]
	mov	DWORD PTR tv1448[ebp], ecx
	cmp	DWORD PTR tv1448[ebp], 0
	je	SHORT $LN17@ProcessSpy
	cmp	DWORD PTR tv1448[ebp], 1
	je	SHORT $LN16@ProcessSpy
	cmp	DWORD PTR tv1448[ebp], 2
	je	SHORT $LN15@ProcessSpy
	jmp	SHORT $LN18@ProcessSpy
$LN17@ProcessSpy:

; 647  : 					{
; 648  : 					case SPY_RESULT_UNDETECTED:
; 649  : 						strMsg += "Undetected";

	push	OFFSET ??_C@_0L@POGHICCO@Undetected?$AA@
	lea	ecx, DWORD PTR _strMsg$222566[ebp]
	call	DWORD PTR __imp_??Y?$basic_string@DU?$char_traits@D@std@@V?$allocator@D@2@@std@@QAEAAV01@PBD@Z

; 650  : 						break;

	jmp	SHORT $LN18@ProcessSpy
$LN16@ProcessSpy:

; 651  : 					case SPY_RESULT_DETECTED:
; 652  : 						strMsg += "Detected";

	push	OFFSET ??_C@_08DHNPOAGK@Detected?$AA@
	lea	ecx, DWORD PTR _strMsg$222566[ebp]
	call	DWORD PTR __imp_??Y?$basic_string@DU?$char_traits@D@std@@V?$allocator@D@2@@std@@QAEAAV01@PBD@Z

; 653  : 						break;

	jmp	SHORT $LN18@ProcessSpy
$LN15@ProcessSpy:

; 654  : 					case SPY_RESULT_IDENTIFIED:
; 655  : 						strMsg += "Identified";

	push	OFFSET ??_C@_0L@BKOJIMLH@Identified?$AA@
	lea	ecx, DWORD PTR _strMsg$222566[ebp]
	call	DWORD PTR __imp_??Y?$basic_string@DU?$char_traits@D@std@@V?$allocator@D@2@@std@@QAEAAV01@PBD@Z
$LN18@ProcessSpy:

; 656  : 						break;
; 657  : 					}
; 658  : 					LogEspionageMsg(strMsg);

	lea	edx, DWORD PTR _strMsg$222566[ebp]
	push	edx
	mov	ecx, DWORD PTR _this$[ebp]
	call	?LogEspionageMsg@CvPlayerEspionage@@QAEXAAVCvString@@@Z ; CvPlayerEspionage::LogEspionageMsg

; 659  : 				}

	mov	DWORD PTR __$EHRec$[ebp+8], -1
	lea	ecx, DWORD PTR _strMsg$222566[ebp]
	call	DWORD PTR __imp_??1?$basic_string@DU?$char_traits@D@std@@V?$allocator@D@2@@std@@QAE@XZ
$LN28@ProcessSpy:

; 660  : 			}
; 661  : 			if(pSpy->m_eSpyState != SPY_STATE_DEAD)

	mov	eax, DWORD PTR _pSpy$[ebp]
	cmp	DWORD PTR [eax+16], 8
	je	SHORT $LN54@ProcessSpy

; 662  : 			{
; 663  : 				UncoverIntrigue(uiSpyIndex);

	mov	ecx, DWORD PTR _uiSpyIndex$[ebp]
	push	ecx
	mov	ecx, DWORD PTR _this$[ebp]
	call	?UncoverIntrigue@CvPlayerEspionage@@QAEXI@Z ; CvPlayerEspionage::UncoverIntrigue
$LN54@ProcessSpy:

; 664  : 			}
; 665  : 		}
; 666  : 		break;

	jmp	$LN80@ProcessSpy
$LN13@ProcessSpy:

; 667  : 	case SPY_STATE_RIG_ELECTION:
; 668  : 		// resetting the value is done in MinorCivAI
; 669  : 		pCityEspionage->Process(ePlayer);

	mov	edx, DWORD PTR _ePlayer$[ebp]
	push	edx
	mov	ecx, DWORD PTR _pCityEspionage$[ebp]
	call	?Process@CvCityEspionage@@QAEXW4PlayerTypes@@@Z ; CvCityEspionage::Process

; 670  : 		break;

	jmp	$LN80@ProcessSpy

; 671  : 	case SPY_STATE_COUNTER_INTEL:
; 672  : 		break;

	jmp	$LN80@ProcessSpy
$LN11@ProcessSpy:

; 673  : 	case SPY_STATE_MAKING_INTRODUCTIONS:
; 674  : 		// spy is traveling to location
; 675  : 		CvAssertMsg(pCity, "pCity not defined. What?");
; 676  : 		if(!pCity)

	cmp	DWORD PTR _pCity$[ebp], 0
	jne	SHORT $LN10@ProcessSpy

; 677  : 		{
; 678  : 			return;

	jmp	$LN84@ProcessSpy
$LN10@ProcessSpy:

; 679  : 		}
; 680  : 		// if the spy has completed travelling, move to location
; 681  : 		pCityEspionage->Process(ePlayer);

	mov	eax, DWORD PTR _ePlayer$[ebp]
	push	eax
	mov	ecx, DWORD PTR _pCityEspionage$[ebp]
	call	?Process@CvCityEspionage@@QAEXW4PlayerTypes@@@Z ; CvCityEspionage::Process

; 682  : 		if(pCityEspionage->HasReachedGoal(ePlayer))

	mov	ecx, DWORD PTR _ePlayer$[ebp]
	push	ecx
	mov	ecx, DWORD PTR _pCityEspionage$[ebp]
	call	?HasReachedGoal@CvCityEspionage@@QAE_NW4PlayerTypes@@@Z ; CvCityEspionage::HasReachedGoal
	movzx	edx, al
	test	edx, edx
	je	SHORT $LN9@ProcessSpy

; 683  : 		{
; 684  : 			pCityEspionage->ResetProgress(ePlayer);

	mov	eax, DWORD PTR _ePlayer$[ebp]
	push	eax
	mov	ecx, DWORD PTR _pCityEspionage$[ebp]
	call	?ResetProgress@CvCityEspionage@@QAEXW4PlayerTypes@@@Z ; CvCityEspionage::ResetProgress

; 685  : 			pSpy->m_eSpyState = SPY_STATE_SCHMOOZE;

	mov	ecx, DWORD PTR _pSpy$[ebp]
	mov	DWORD PTR [ecx+16], 7
$LN9@ProcessSpy:

; 686  : 		}
; 687  : 		break;

	jmp	$LN80@ProcessSpy
$LN8@ProcessSpy:

; 688  : 	case SPY_STATE_SCHMOOZE:
; 689  : 		if(pSpy->m_eSpyState != SPY_STATE_DEAD)

	mov	edx, DWORD PTR _pSpy$[ebp]
	cmp	DWORD PTR [edx+16], 8
	je	SHORT $LN7@ProcessSpy

; 690  : 		{
; 691  : 			UncoverIntrigue(uiSpyIndex);

	mov	eax, DWORD PTR _uiSpyIndex$[ebp]
	push	eax
	mov	ecx, DWORD PTR _this$[ebp]
	call	?UncoverIntrigue@CvPlayerEspionage@@QAEXI@Z ; CvPlayerEspionage::UncoverIntrigue
$LN7@ProcessSpy:

; 692  : 		}
; 693  : 		break;

	jmp	$LN80@ProcessSpy
$LN6@ProcessSpy:

; 694  : 	case SPY_STATE_DEAD:
; 695  : 		pSpy->m_iReviveCounter++;

	mov	ecx, DWORD PTR _pSpy$[ebp]
	mov	edx, DWORD PTR [ecx+20]
	add	edx, 1
	mov	eax, DWORD PTR _pSpy$[ebp]
	mov	DWORD PTR [eax+20], edx

; 696  : 		if(pSpy->m_iReviveCounter >= iSpyTurnsToRevive)

	mov	ecx, DWORD PTR _pSpy$[ebp]
	cmp	DWORD PTR [ecx+20], 5
	jl	$LN80@ProcessSpy

; 697  : 		{
; 698  : 			pSpy->m_iName = GetNextSpyName();

	mov	ecx, DWORD PTR _this$[ebp]
	call	?GetNextSpyName@CvPlayerEspionage@@QAEHXZ ; CvPlayerEspionage::GetNextSpyName
	mov	edx, DWORD PTR _pSpy$[ebp]
	mov	DWORD PTR [edx], eax

; 699  : #ifdef AUI_YIELDS_APPLIED_AFTER_TURN_NOT_BEFORE
; 700  : 			pSpy->m_eRank = (CvSpyRank)m_pPlayer->getCachedSpyStartingRank();
; 701  : #else
; 702  : 			pSpy->m_eRank = (CvSpyRank)m_pPlayer->GetStartingSpyRank();

	mov	eax, DWORD PTR _this$[ebp]
	mov	ecx, DWORD PTR [eax+1296]
	call	?GetStartingSpyRank@CvPlayer@@QBEHXZ	; CvPlayer::GetStartingSpyRank
	mov	ecx, DWORD PTR _pSpy$[ebp]
	mov	DWORD PTR [ecx+12], eax

; 703  : #endif
; 704  : 			pSpy->m_eSpyState = SPY_STATE_UNASSIGNED;

	mov	edx, DWORD PTR _pSpy$[ebp]
	mov	DWORD PTR [edx+16], 0

; 705  : 			pSpy->m_iCityX = -1;

	mov	eax, DWORD PTR _pSpy$[ebp]
	mov	DWORD PTR [eax+4], -1

; 706  : 			pSpy->m_iCityY = -1;

	mov	ecx, DWORD PTR _pSpy$[ebp]
	mov	DWORD PTR [ecx+8], -1

; 707  : 			pSpy->m_iReviveCounter = 0;

	mov	edx, DWORD PTR _pSpy$[ebp]
	mov	DWORD PTR [edx+20], 0

; 708  : 			pSpy->m_bEvaluateReassignment = true;

	mov	eax, DWORD PTR _pSpy$[ebp]
	mov	BYTE PTR [eax+25], 1

; 709  : 			if(GC.getLogging())

	mov	ecx, OFFSET ?gGlobals@@3VCvGlobals@@A	; gGlobals
	call	?getLogging@CvGlobals@@QAE_NXZ		; CvGlobals::getLogging
	movzx	ecx, al
	test	ecx, ecx
	je	$LN4@ProcessSpy

; 710  : 			{
; 711  : 				CvString strMsg;

	lea	ecx, DWORD PTR _strMsg$222592[ebp]
	call	DWORD PTR __imp_??0?$basic_string@DU?$char_traits@D@std@@V?$allocator@D@2@@std@@QAE@XZ
	mov	DWORD PTR __$EHRec$[ebp+8], 24		; 00000018H

; 712  : 				strMsg.Format("Re-eval: spy killed, %d,", uiSpyIndex);

	mov	edx, DWORD PTR _uiSpyIndex$[ebp]
	push	edx
	push	OFFSET ??_C@_0BJ@CGEFKMBC@Re?9eval?3?5spy?5killed?0?5?$CFd?0?$AA@
	lea	eax, DWORD PTR _strMsg$222592[ebp]
	push	eax
	call	?Format@CvString@@QAAXPBDZZ		; CvString::Format
	add	esp, 12					; 0000000cH

; 713  : 				strMsg += GetLocalizedText(m_pPlayer->getCivilizationInfo().getSpyNames(pSpy->m_iName));

	mov	ecx, DWORD PTR _pSpy$[ebp]
	mov	edx, DWORD PTR [ecx]
	push	edx
	mov	eax, DWORD PTR _this$[ebp]
	mov	ecx, DWORD PTR [eax+1296]
	call	?getCivilizationInfo@CvPlayer@@QBEAAVCvCivilizationInfo@@XZ ; CvPlayer::getCivilizationInfo
	mov	ecx, eax
	call	?getSpyNames@CvCivilizationInfo@@QBEPBDH@Z ; CvCivilizationInfo::getSpyNames
	push	eax
	lea	ecx, DWORD PTR $T234175[ebp]
	push	ecx
	call	?GetLocalizedText@@YA?AVCvString@@PBD@Z	; GetLocalizedText
	add	esp, 8
	mov	DWORD PTR tv2028[ebp], eax
	mov	edx, DWORD PTR tv2028[ebp]
	mov	DWORD PTR tv1670[ebp], edx
	mov	BYTE PTR __$EHRec$[ebp+8], 25		; 00000019H
	mov	eax, DWORD PTR tv1670[ebp]
	push	eax
	lea	ecx, DWORD PTR _strMsg$222592[ebp]
	call	DWORD PTR __imp_??Y?$basic_string@DU?$char_traits@D@std@@V?$allocator@D@2@@std@@QAEAAV01@ABV01@@Z
	mov	BYTE PTR __$EHRec$[ebp+8], 24		; 00000018H
	lea	ecx, DWORD PTR $T234175[ebp]
	call	DWORD PTR __imp_??1?$basic_string@DU?$char_traits@D@std@@V?$allocator@D@2@@std@@QAE@XZ

; 714  : 				LogEspionageMsg(strMsg);

	lea	ecx, DWORD PTR _strMsg$222592[ebp]
	push	ecx
	mov	ecx, DWORD PTR _this$[ebp]
	call	?LogEspionageMsg@CvPlayerEspionage@@QAEXAAVCvString@@@Z ; CvPlayerEspionage::LogEspionageMsg

; 715  : 			}

	mov	DWORD PTR __$EHRec$[ebp+8], -1
	lea	ecx, DWORD PTR _strMsg$222592[ebp]
	call	DWORD PTR __imp_??1?$basic_string@DU?$char_traits@D@std@@V?$allocator@D@2@@std@@QAE@XZ
$LN4@ProcessSpy:

; 716  : 
; 717  : 			CvNotifications* pNotifications = m_pPlayer->GetNotifications();

	mov	edx, DWORD PTR _this$[ebp]
	mov	ecx, DWORD PTR [edx+1296]
	call	?GetNotifications@CvPlayer@@QBEPAVCvNotifications@@XZ ; CvPlayer::GetNotifications
	mov	DWORD PTR _pNotifications$222595[ebp], eax

; 718  : 			if(pNotifications)

	cmp	DWORD PTR _pNotifications$222595[ebp], 0
	je	$LN3@ProcessSpy

; 719  : 			{
; 720  : 				Localization::String strSummary = Localization::Lookup("TXT_KEY_NOTIFICATION_SPY_REVIVED_S");

	push	OFFSET ??_C@_0CD@EPPMBCAM@TXT_KEY_NOTIFICATION_SPY_REVIVED@
	lea	eax, DWORD PTR _strSummary$222597[ebp]
	push	eax
	call	DWORD PTR __imp_?Lookup@Localization@@YA?AVString@1@PBD@Z
	add	esp, 8
	mov	DWORD PTR __$EHRec$[ebp+8], 26		; 0000001aH

; 721  : 				Localization::String strNotification = Localization::Lookup("TXT_KEY_NOTIFICATION_SPY_REVIVED");

	push	OFFSET ??_C@_0CB@MCONFAMB@TXT_KEY_NOTIFICATION_SPY_REVIVED@
	lea	ecx, DWORD PTR _strNotification$222600[ebp]
	push	ecx
	call	DWORD PTR __imp_?Lookup@Localization@@YA?AVString@1@PBD@Z
	add	esp, 8
	mov	BYTE PTR __$EHRec$[ebp+8], 27		; 0000001bH

; 722  : 				strNotification << GetSpyRankName(pSpy->m_eRank);

	mov	edx, DWORD PTR _pSpy$[ebp]
	mov	eax, DWORD PTR [edx+12]
	push	eax
	mov	ecx, DWORD PTR _this$[ebp]
	call	?GetSpyRankName@CvPlayerEspionage@@QBEPBDH@Z ; CvPlayerEspionage::GetSpyRankName
	mov	DWORD PTR $T234176[ebp], eax
	lea	ecx, DWORD PTR $T234176[ebp]
	push	ecx
	lea	edx, DWORD PTR _strNotification$222600[ebp]
	push	edx
	call	??$?6PBD@@YAAAVString@Localization@@AAV01@ABQBD@Z ; operator<<<char const *>
	add	esp, 8

; 723  : 				strNotification << m_pPlayer->getCivilizationInfo().getSpyNames(pSpy->m_iName);

	mov	eax, DWORD PTR _pSpy$[ebp]
	mov	ecx, DWORD PTR [eax]
	push	ecx
	mov	edx, DWORD PTR _this$[ebp]
	mov	ecx, DWORD PTR [edx+1296]
	call	?getCivilizationInfo@CvPlayer@@QBEAAVCvCivilizationInfo@@XZ ; CvPlayer::getCivilizationInfo
	mov	ecx, eax
	call	?getSpyNames@CvCivilizationInfo@@QBEPBDH@Z ; CvCivilizationInfo::getSpyNames
	mov	DWORD PTR $T234177[ebp], eax
	lea	eax, DWORD PTR $T234177[ebp]
	push	eax
	lea	ecx, DWORD PTR _strNotification$222600[ebp]
	push	ecx
	call	??$?6PBD@@YAAAVString@Localization@@AAV01@ABQBD@Z ; operator<<<char const *>
	add	esp, 8

; 724  : 				pNotifications->Add(NOTIFICATION_SPY_REPLACEMENT, strNotification.toUTF8(), strSummary.toUTF8(), -1, -1, -1);

	push	-1
	push	-1
	push	-1
	push	-1
	lea	ecx, DWORD PTR _strSummary$222597[ebp]
	call	DWORD PTR __imp_?toUTF8@String@Localization@@QAEPBDXZ
	push	eax
	lea	ecx, DWORD PTR _strNotification$222600[ebp]
	call	DWORD PTR __imp_?toUTF8@String@Localization@@QAEPBDXZ
	push	eax
	push	-1698732748				; 9abf6534H
	mov	ecx, DWORD PTR _pNotifications$222595[ebp]
	call	?Add@CvNotifications@@QAEHW4NotificationTypes@@PBD1HHHH@Z ; CvNotifications::Add

; 725  : 			}

	mov	BYTE PTR __$EHRec$[ebp+8], 26		; 0000001aH
	lea	ecx, DWORD PTR _strNotification$222600[ebp]
	call	DWORD PTR __imp_??1String@Localization@@UAE@XZ
	mov	DWORD PTR __$EHRec$[ebp+8], -1
	lea	ecx, DWORD PTR _strSummary$222597[ebp]
	call	DWORD PTR __imp_??1String@Localization@@UAE@XZ
$LN3@ProcessSpy:

; 726  : 
; 727  : 			if(GC.getLogging())

	mov	ecx, OFFSET ?gGlobals@@3VCvGlobals@@A	; gGlobals
	call	?getLogging@CvGlobals@@QAE_NXZ		; CvGlobals::getLogging
	movzx	edx, al
	test	edx, edx
	je	$LN80@ProcessSpy

; 728  : 			{
; 729  : 				CvString strMsg;

	lea	ecx, DWORD PTR _strMsg$222606[ebp]
	call	DWORD PTR __imp_??0?$basic_string@DU?$char_traits@D@std@@V?$allocator@D@2@@std@@QAE@XZ
	mov	DWORD PTR __$EHRec$[ebp+8], 28		; 0000001cH

; 730  : 				strMsg.Format("Respawned spy, %d,", uiSpyIndex);

	mov	eax, DWORD PTR _uiSpyIndex$[ebp]
	push	eax
	push	OFFSET ??_C@_0BD@DHIBICGH@Respawned?5spy?0?5?$CFd?0?$AA@
	lea	ecx, DWORD PTR _strMsg$222606[ebp]
	push	ecx
	call	?Format@CvString@@QAAXPBDZZ		; CvString::Format
	add	esp, 12					; 0000000cH

; 731  : 				strMsg += GetLocalizedText(m_pPlayer->getCivilizationInfo().getSpyNames(pSpy->m_iName));

	mov	edx, DWORD PTR _pSpy$[ebp]
	mov	eax, DWORD PTR [edx]
	push	eax
	mov	ecx, DWORD PTR _this$[ebp]
	mov	ecx, DWORD PTR [ecx+1296]
	call	?getCivilizationInfo@CvPlayer@@QBEAAVCvCivilizationInfo@@XZ ; CvPlayer::getCivilizationInfo
	mov	ecx, eax
	call	?getSpyNames@CvCivilizationInfo@@QBEPBDH@Z ; CvCivilizationInfo::getSpyNames
	push	eax
	lea	edx, DWORD PTR $T234178[ebp]
	push	edx
	call	?GetLocalizedText@@YA?AVCvString@@PBD@Z	; GetLocalizedText
	add	esp, 8
	mov	DWORD PTR tv1551[ebp], eax
	mov	eax, DWORD PTR tv1551[ebp]
	mov	DWORD PTR tv1675[ebp], eax
	mov	BYTE PTR __$EHRec$[ebp+8], 29		; 0000001dH
	mov	ecx, DWORD PTR tv1675[ebp]
	push	ecx
	lea	ecx, DWORD PTR _strMsg$222606[ebp]
	call	DWORD PTR __imp_??Y?$basic_string@DU?$char_traits@D@std@@V?$allocator@D@2@@std@@QAEAAV01@ABV01@@Z
	mov	BYTE PTR __$EHRec$[ebp+8], 28		; 0000001cH
	lea	ecx, DWORD PTR $T234178[ebp]
	call	DWORD PTR __imp_??1?$basic_string@DU?$char_traits@D@std@@V?$allocator@D@2@@std@@QAE@XZ

; 732  : 				LogEspionageMsg(strMsg);

	lea	edx, DWORD PTR _strMsg$222606[ebp]
	push	edx
	mov	ecx, DWORD PTR _this$[ebp]
	call	?LogEspionageMsg@CvPlayerEspionage@@QAEXAAVCvString@@@Z ; CvPlayerEspionage::LogEspionageMsg

; 733  : 			}

	mov	DWORD PTR __$EHRec$[ebp+8], -1
	lea	ecx, DWORD PTR _strMsg$222606[ebp]
	call	DWORD PTR __imp_??1?$basic_string@DU?$char_traits@D@std@@V?$allocator@D@2@@std@@QAE@XZ
$LN80@ProcessSpy:

; 734  : 		}
; 735  : 		break;
; 736  : 	}
; 737  : 
; 738  : 	// if we just established surveillance in the city, turn the lights on
; 739  : #ifdef AUI_WARNING_FIXES
; 740  : 	if (HasEstablishedSurveillance(uiSpyIndex) && !bHadSurveillance && pCity)
; 741  : #else
; 742  : 	if(HasEstablishedSurveillance(uiSpyIndex) && !bHadSurveillance)

	mov	eax, DWORD PTR _uiSpyIndex$[ebp]
	push	eax
	mov	ecx, DWORD PTR _this$[ebp]
	call	?HasEstablishedSurveillance@CvPlayerEspionage@@QAE_NI@Z ; CvPlayerEspionage::HasEstablishedSurveillance
	movzx	ecx, al
	test	ecx, ecx
	je	SHORT $LN84@ProcessSpy
	movzx	edx, BYTE PTR _bHadSurveillance$[ebp]
	test	edx, edx
	jne	SHORT $LN84@ProcessSpy

; 743  : #endif
; 744  : 	{
; 745  : 		pCity->plot()->changeAdjacentSight(m_pPlayer->getTeam(), GC.getESPIONAGE_SURVEILLANCE_SIGHT_RANGE(), true, NO_INVISIBLE, NO_DIRECTION, false);

	mov	eax, DWORD PTR ?gGlobals@@3VCvGlobals@@A+7948
	mov	DWORD PTR $T234786[ebp], eax
	mov	ecx, DWORD PTR _this$[ebp]
	mov	edx, DWORD PTR [ecx+1296]
	mov	DWORD PTR $T234795[ebp], edx
	mov	eax, DWORD PTR $T234795[ebp]
	mov	ecx, DWORD PTR [eax+44]
	push	ecx
	call	?teamType@CvPreGame@@YA?AW4TeamTypes@@W4PlayerTypes@@@Z ; CvPreGame::teamType
	add	esp, 4
	mov	DWORD PTR $T234796[ebp], eax
	push	0
	push	-1
	push	-1
	push	1
	mov	edx, DWORD PTR $T234786[ebp]
	push	edx
	mov	eax, DWORD PTR $T234796[ebp]
	push	eax
	mov	ecx, DWORD PTR _pCity$[ebp]
	call	?plot@CvCity@@QBEPAVCvPlot@@XZ		; CvCity::plot
	mov	ecx, eax
	call	?changeAdjacentSight@CvPlot@@QAEXW4TeamTypes@@H_NW4InvisibleTypes@@W4DirectionTypes@@1@Z ; CvPlot::changeAdjacentSight
$LN84@ProcessSpy:

; 746  : 	}
; 747  : }

	mov	ecx, DWORD PTR __$EHRec$[ebp]
	mov	DWORD PTR fs:0, ecx
	pop	ecx
	mov	ecx, DWORD PTR __$ArrayPad$[ebp]
	xor	ecx, ebp
	call	@__security_check_cookie@4
	mov	esp, ebp
	pop	ebp
	ret	4
	npad	1
$LN442@ProcessSpy:
	DD	$LN79@ProcessSpy
	DD	$LN78@ProcessSpy
	DD	$LN71@ProcessSpy
	DD	$LN61@ProcessSpy
	DD	$LN13@ProcessSpy
	DD	$LN80@ProcessSpy
	DD	$LN11@ProcessSpy
	DD	$LN8@ProcessSpy
	DD	$LN6@ProcessSpy
_TEXT	ENDS
;	COMDAT text$x
text$x	SEGMENT
__unwindfunclet$?ProcessSpy@CvPlayerEspionage@@QAEXI@Z$0:
	lea	ecx, DWORD PTR _strSummary$222435[ebp]
	jmp	DWORD PTR __imp_??1String@Localization@@UAE@XZ
__unwindfunclet$?ProcessSpy@CvPlayerEspionage@@QAEXI@Z$1:
	lea	ecx, DWORD PTR _strNotification$222444[ebp]
	jmp	DWORD PTR __imp_??1String@Localization@@UAE@XZ
__unwindfunclet$?ProcessSpy@CvPlayerEspionage@@QAEXI@Z$2:
	lea	ecx, DWORD PTR _strMsg$222452[ebp]
	jmp	??1CvString@@QAE@XZ			; CvString::~CvString
__unwindfunclet$?ProcessSpy@CvPlayerEspionage@@QAEXI@Z$3:
	lea	ecx, DWORD PTR $T234153[ebp]
	jmp	??1CvString@@QAE@XZ			; CvString::~CvString
__unwindfunclet$?ProcessSpy@CvPlayerEspionage@@QAEXI@Z$4:
	lea	ecx, DWORD PTR _strMsg$222459[ebp]
	jmp	??1CvString@@QAE@XZ			; CvString::~CvString
__unwindfunclet$?ProcessSpy@CvPlayerEspionage@@QAEXI@Z$5:
	lea	ecx, DWORD PTR $T234154[ebp]
	jmp	??1CvString@@QAE@XZ			; CvString::~CvString
__unwindfunclet$?ProcessSpy@CvPlayerEspionage@@QAEXI@Z$6:
	lea	ecx, DWORD PTR _strMsg$222464[ebp]
	jmp	??1CvString@@QAE@XZ			; CvString::~CvString
__unwindfunclet$?ProcessSpy@CvPlayerEspionage@@QAEXI@Z$7:
	lea	ecx, DWORD PTR $T234155[ebp]
	jmp	??1CvString@@QAE@XZ			; CvString::~CvString
__unwindfunclet$?ProcessSpy@CvPlayerEspionage@@QAEXI@Z$8:
	lea	ecx, DWORD PTR _strSummary$222472[ebp]
	jmp	DWORD PTR __imp_??1String@Localization@@UAE@XZ
__unwindfunclet$?ProcessSpy@CvPlayerEspionage@@QAEXI@Z$9:
	lea	ecx, DWORD PTR _strNotification$222475[ebp]
	jmp	DWORD PTR __imp_??1String@Localization@@UAE@XZ
__unwindfunclet$?ProcessSpy@CvPlayerEspionage@@QAEXI@Z$10:
	lea	ecx, DWORD PTR _strSummary$222514[ebp]
	jmp	DWORD PTR __imp_??1String@Localization@@UAE@XZ
__unwindfunclet$?ProcessSpy@CvPlayerEspionage@@QAEXI@Z$11:
	lea	ecx, DWORD PTR _strNotification$222518[ebp]
	jmp	DWORD PTR __imp_??1String@Localization@@UAE@XZ
__unwindfunclet$?ProcessSpy@CvPlayerEspionage@@QAEXI@Z$12:
	lea	ecx, DWORD PTR _strMsg$222533[ebp]
	jmp	??1CvString@@QAE@XZ			; CvString::~CvString
__unwindfunclet$?ProcessSpy@CvPlayerEspionage@@QAEXI@Z$13:
	lea	ecx, DWORD PTR $T234165[ebp]
	jmp	??1CvString@@QAE@XZ			; CvString::~CvString
__unwindfunclet$?ProcessSpy@CvPlayerEspionage@@QAEXI@Z$14:
	lea	ecx, DWORD PTR $T234166[ebp]
	jmp	??1CvString@@QAE@XZ			; CvString::~CvString
__unwindfunclet$?ProcessSpy@CvPlayerEspionage@@QAEXI@Z$15:
	lea	ecx, DWORD PTR _strMsg$222540[ebp]
	jmp	??1CvString@@QAE@XZ			; CvString::~CvString
__unwindfunclet$?ProcessSpy@CvPlayerEspionage@@QAEXI@Z$16:
	lea	ecx, DWORD PTR $T234167[ebp]
	jmp	??1CvString@@QAE@XZ			; CvString::~CvString
__unwindfunclet$?ProcessSpy@CvPlayerEspionage@@QAEXI@Z$17:
	lea	ecx, DWORD PTR $T234168[ebp]
	jmp	??1CvString@@QAE@XZ			; CvString::~CvString
__unwindfunclet$?ProcessSpy@CvPlayerEspionage@@QAEXI@Z$18:
	lea	ecx, DWORD PTR _strSummary$222553[ebp]
	jmp	DWORD PTR __imp_??1String@Localization@@UAE@XZ
__unwindfunclet$?ProcessSpy@CvPlayerEspionage@@QAEXI@Z$19:
	lea	ecx, DWORD PTR _strNotification$222556[ebp]
	jmp	DWORD PTR __imp_??1String@Localization@@UAE@XZ
__unwindfunclet$?ProcessSpy@CvPlayerEspionage@@QAEXI@Z$20:
	lea	ecx, DWORD PTR _strMsg$222566[ebp]
	jmp	??1CvString@@QAE@XZ			; CvString::~CvString
__unwindfunclet$?ProcessSpy@CvPlayerEspionage@@QAEXI@Z$21:
	lea	ecx, DWORD PTR $T234173[ebp]
	jmp	??1CvString@@QAE@XZ			; CvString::~CvString
__unwindfunclet$?ProcessSpy@CvPlayerEspionage@@QAEXI@Z$22:
	lea	ecx, DWORD PTR $T234174[ebp]
	jmp	??1CvString@@QAE@XZ			; CvString::~CvString
__unwindfunclet$?ProcessSpy@CvPlayerEspionage@@QAEXI@Z$23:
	lea	ecx, DWORD PTR _strMsg$222592[ebp]
	jmp	??1CvString@@QAE@XZ			; CvString::~CvString
__unwindfunclet$?ProcessSpy@CvPlayerEspionage@@QAEXI@Z$24:
	lea	ecx, DWORD PTR $T234175[ebp]
	jmp	??1CvString@@QAE@XZ			; CvString::~CvString
__unwindfunclet$?ProcessSpy@CvPlayerEspionage@@QAEXI@Z$25:
	lea	ecx, DWORD PTR _strSummary$222597[ebp]
	jmp	DWORD PTR __imp_??1String@Localization@@UAE@XZ
__unwindfunclet$?ProcessSpy@CvPlayerEspionage@@QAEXI@Z$26:
	lea	ecx, DWORD PTR _strNotification$222600[ebp]
	jmp	DWORD PTR __imp_??1String@Localization@@UAE@XZ
__unwindfunclet$?ProcessSpy@CvPlayerEspionage@@QAEXI@Z$27:
	lea	ecx, DWORD PTR _strMsg$222606[ebp]
	jmp	??1CvString@@QAE@XZ			; CvString::~CvString
__unwindfunclet$?ProcessSpy@CvPlayerEspionage@@QAEXI@Z$28:
	lea	ecx, DWORD PTR $T234178[ebp]
	jmp	??1CvString@@QAE@XZ			; CvString::~CvString
__ehhandler$?ProcessSpy@CvPlayerEspionage@@QAEXI@Z:
	mov	edx, DWORD PTR [esp+8]
	lea	eax, DWORD PTR [edx+12]
	mov	ecx, DWORD PTR [edx-2068]
	xor	ecx, eax
	call	@__security_check_cookie@4
	mov	ecx, DWORD PTR [edx-244]
	xor	ecx, eax
	call	@__security_check_cookie@4
	mov	eax, OFFSET __ehfuncinfo$?ProcessSpy@CvPlayerEspionage@@QAEXI@Z
	jmp	___CxxFrameHandler3
text$x	ENDS
?ProcessSpy@CvPlayerEspionage@@QAEXI@Z ENDP		; CvPlayerEspionage::ProcessSpy
PUBLIC	?AddIntrigueMessage@CvPlayerEspionage@@QAEXW4PlayerTypes@@00W4BuildingTypes@@W4ProjectTypes@@W4CvIntrigueType@@IPAVCvCity@@_N@Z ; CvPlayerEspionage::AddIntrigueMessage
PUBLIC	??_C@_0DI@MPFGNAGF@Randomizing?5aiMajorCivIndex?5list@ ; `string'
PUBLIC	??0?$vector@HV?$allocator@H@std@@@std@@QAE@XZ	; std::vector<int,std::allocator<int> >::vector<int,std::allocator<int> >
EXTRN	?isWorldWonderClass@@YA_NABVCvBuildingClassInfo@@@Z:PROC ; isWorldWonderClass
EXTRN	?GetBuildingClassInfo@CvBuildingEntry@@QBEABVCvBuildingClassInfo@@XZ:PROC ; CvBuildingEntry::GetBuildingClassInfo
EXTRN	?getBuildingInfo@CvGlobals@@QAEPAVCvBuildingEntry@@W4BuildingTypes@@@Z:PROC ; CvGlobals::getBuildingInfo
EXTRN	?getProductionBuilding@CvCity@@QBE?AW4BuildingTypes@@XZ:PROC ; CvCity::getProductionBuilding
EXTRN	?getProductionProject@CvCity@@QBE?AW4ProjectTypes@@XZ:PROC ; CvCity::getProductionProject
EXTRN	?isAtWar@CvTeam@@QBE_NW4TeamTypes@@@Z:PROC	; CvTeam::isAtWar
EXTRN	?GetMajorCivApproach@CvDiplomacyAI@@QBE?AW4MajorCivApproachTypes@@W4PlayerTypes@@_N@Z:PROC ; CvDiplomacyAI::GetMajorCivApproach
EXTRN	?isHasMet@CvTeam@@QBE_NW4TeamTypes@@@Z:PROC	; CvTeam::isHasMet
EXTRN	?m_aTeams@CvTeam@@1PAV1@A:DWORD			; CvTeam::m_aTeams
EXTRN	?GetTargetPlot@CvAIOperation@@QBEPAVCvPlot@@XZ:PROC ; CvAIOperation::GetTargetPlot
EXTRN	?GetInfluenceMajorCivSpyRankBonus@CvPlayerCulture@@QBEHW4PlayerTypes@@@Z:PROC ; CvPlayerCulture::GetInfluenceMajorCivSpyRankBonus
EXTRN	?GetCulture@CvPlayer@@QBEPAVCvPlayerCulture@@XZ:PROC ; CvPlayer::GetCulture
EXTRN	?GetSneakAttackOperation@CvMilitaryAI@@QAEPAVCvAIOperation@@W4PlayerTypes@@@Z:PROC ; CvMilitaryAI::GetSneakAttackOperation
EXTRN	?GetMilitaryAI@CvPlayer@@QBEPAVCvMilitaryAI@@XZ:PROC ; CvPlayer::GetMilitaryAI
EXTRN	?isHuman@CvPlayer@@QBE_NXZ:PROC			; CvPlayer::isHuman
;	COMDAT ??_C@_0DI@MPFGNAGF@Randomizing?5aiMajorCivIndex?5list@
; File c:\program files (x86)\microsoft visual studio 9.0\vc\include\xutility
CONST	SEGMENT
??_C@_0DI@MPFGNAGF@Randomizing?5aiMajorCivIndex?5list@ DB 'Randomizing ai'
	DB	'MajorCivIndex list within UncoverIntrigue', 00H ; `string'
CONST	ENDS
;	COMDAT xdata$x
xdata$x	SEGMENT
__unwindtable$?UncoverIntrigue@CvPlayerEspionage@@QAEXI@Z DD 0ffffffffH
	DD	FLAT:__unwindfunclet$?UncoverIntrigue@CvPlayerEspionage@@QAEXI@Z$0
	DD	0ffffffffH
	DD	FLAT:__unwindfunclet$?UncoverIntrigue@CvPlayerEspionage@@QAEXI@Z$2
	DD	0ffffffffH
	DD	FLAT:__unwindfunclet$?UncoverIntrigue@CvPlayerEspionage@@QAEXI@Z$4
__ehfuncinfo$?UncoverIntrigue@CvPlayerEspionage@@QAEXI@Z DD 019930522H
	DD	03H
	DD	FLAT:__unwindtable$?UncoverIntrigue@CvPlayerEspionage@@QAEXI@Z
	DD	2 DUP(00H)
	DD	2 DUP(00H)
	DD	00H
	DD	01H
; Function compile flags: /Odtp
; File d:\sources\lekmod_git\checkout\lekmod_dll\cvgamecoredll_expansion2\cvespionageclasses.cpp
xdata$x	ENDS
;	COMDAT ?UncoverIntrigue@CvPlayerEspionage@@QAEXI@Z
_TEXT	SEGMENT
tv290 = -436						; size = 4
tv240 = -432						; size = 4
tv520 = -428						; size = 4
tv529 = -424						; size = 4
_this$ = -420						; size = 4
$T235248 = -388						; size = 4
$T235239 = -384						; size = 4
$T235230 = -380						; size = 4
$T235221 = -376						; size = 4
$T235217 = -372						; size = 4
$T235216 = -368						; size = 4
$T235207 = -364						; size = 4
$T235198 = -360						; size = 4
$T235194 = -356						; size = 4
$T235190 = -352						; size = 4
$T235181 = -348						; size = 4
$T235177 = -344						; size = 4
$T235168 = -340						; size = 4
$T235164 = -336						; size = 4
$T235099 = -304						; size = 4
$T235095 = -300						; size = 4
$T235086 = -296						; size = 4
$T235077 = -292						; size = 4
$T235073 = -288						; size = 4
$T235069 = -284						; size = 4
$T235065 = -280						; size = 4
$T235056 = -276						; size = 4
$T235047 = -272						; size = 4
$T235043 = -268						; size = 4
$T235042 = -264						; size = 4
$T235033 = -260						; size = 4
$T235024 = -256						; size = 4
$T235012 = -248						; size = 4
$T235008 = -244						; size = 4
$T234992 = -240						; size = 4
$T234985 = -236						; size = 4
$T234981 = -232						; size = 4
$T234939 = -201						; size = 1
$T234930 = -200						; size = 4
$T234898 = -184						; size = 4
$T234897 = -180						; size = 4
$T234864 = -176						; size = 4
$T234851 = -172						; size = 4
$T234847 = -168						; size = 4
$T234840 = -164						; size = 4
$T234836 = -157						; size = 1
$T234832 = -156						; size = 4
$T234828 = -149						; size = 1
_iMapY$234896 = -148					; size = 4
_iMapX$234895 = -144					; size = 4
$T234821 = -140						; size = 4
_pBuildingInfo$222701 = -136				; size = 4
_eOtherOtherPlayer$222682 = -132			; size = 4
_eHonestApproach$222687 = -128				; size = 4
_eSurfaceApproach$222686 = -124				; size = 4
_ui$222678 = -120					; size = 4
_eArmyType$222668 = -116				; size = 4
_pPlot$222654 = -112					; size = 4
_eTargetPlayer$222645 = -108				; size = 4
_pSneakAttackOperation$222649 = -104			; size = 4
_pTargetCity$222651 = -100				; size = 4
_iSpyRank$222652 = -96					; size = 4
_eRevealedTargetPlayer$222656 = -92			; size = 4
_ui$222641 = -88					; size = 4
_iTempValue$222638 = -84				; size = 4
_uiTargetSlot$222639 = -80				; size = 4
_ui$222634 = -76					; size = 4
_i$222628 = -72						; size = 4
_pSpy$ = -68						; size = 4
_pCityPlot$ = -64					; size = 4
_ePlayer$ = -60						; size = 4
_eBuilding$ = -56					; size = 4
_pCityEspionage$ = -52					; size = 4
_eProject$ = -48					; size = 4
_pCity$ = -44						; size = 4
_pTargetDiploAI$ = -40					; size = 4
_eCityOwner$ = -36					; size = 4
_bNotifyAboutConstruction$ = -29			; size = 1
_aiMajorCivIndex$ = -28					; size = 16
__$EHRec$ = -12						; size = 12
_uiSpyIndex$ = 8					; size = 4
?UncoverIntrigue@CvPlayerEspionage@@QAEXI@Z PROC	; CvPlayerEspionage::UncoverIntrigue, COMDAT
; _this$ = ecx

; 751  : {

	push	ebp
	mov	ebp, esp
	push	-1
	push	__ehhandler$?UncoverIntrigue@CvPlayerEspionage@@QAEXI@Z
	mov	eax, DWORD PTR fs:0
	push	eax
	sub	esp, 424				; 000001a8H
	mov	eax, DWORD PTR ___security_cookie
	xor	eax, ebp
	push	eax
	lea	eax, DWORD PTR __$EHRec$[ebp]
	mov	DWORD PTR fs:0, eax
	mov	DWORD PTR _this$[ebp], ecx

; 752  : 	CvEspionageSpy* pSpy = &(m_aSpyList[uiSpyIndex]);

	mov	eax, DWORD PTR _uiSpyIndex$[ebp]
	imul	eax, 28					; 0000001cH
	mov	ecx, DWORD PTR _this$[ebp]
	add	eax, DWORD PTR [ecx+4]
	mov	DWORD PTR _pSpy$[ebp], eax

; 753  : 	CvPlot* pCityPlot = GC.getMap().plot(pSpy->m_iCityX, pSpy->m_iCityY);

	mov	edx, DWORD PTR ?gGlobals@@3VCvGlobals@@A+52
	mov	DWORD PTR $T234821[ebp], edx
	mov	eax, DWORD PTR _pSpy$[ebp]
	mov	ecx, DWORD PTR [eax+8]
	mov	DWORD PTR $T234898[ebp], ecx
	mov	edx, DWORD PTR _pSpy$[ebp]
	mov	eax, DWORD PTR [edx+4]
	mov	DWORD PTR $T234897[ebp], eax
	cmp	DWORD PTR $T234897[ebp], -2147483647	; 80000001H
	je	SHORT $LN58@UncoverInt
	cmp	DWORD PTR $T234898[ebp], -2147483647	; 80000001H
	jne	SHORT $LN59@UncoverInt
$LN58@UncoverInt:
	mov	DWORD PTR _pCityPlot$[ebp], 0
	jmp	$LN60@UncoverInt
$LN59@UncoverInt:
	mov	ecx, DWORD PTR $T234821[ebp]
	mov	dl, BYTE PTR [ecx+4056]
	mov	BYTE PTR $T234828[ebp], dl
	mov	eax, DWORD PTR $T234821[ebp]
	mov	ecx, DWORD PTR [eax+4020]
	mov	DWORD PTR $T234832[ebp], ecx
	movzx	edx, BYTE PTR $T234828[ebp]
	push	edx
	mov	eax, DWORD PTR $T234832[ebp]
	push	eax
	mov	ecx, DWORD PTR $T234897[ebp]
	push	ecx
	call	?coordRange@@YAHHH_N@Z			; coordRange
	add	esp, 12					; 0000000cH
	mov	DWORD PTR _iMapX$234895[ebp], eax
	mov	edx, DWORD PTR $T234821[ebp]
	mov	al, BYTE PTR [edx+4057]
	mov	BYTE PTR $T234836[ebp], al
	mov	ecx, DWORD PTR $T234821[ebp]
	mov	edx, DWORD PTR [ecx+4024]
	mov	DWORD PTR $T234840[ebp], edx
	movzx	eax, BYTE PTR $T234836[ebp]
	push	eax
	mov	ecx, DWORD PTR $T234840[ebp]
	push	ecx
	mov	edx, DWORD PTR $T234898[ebp]
	push	edx
	call	?coordRange@@YAHHH_N@Z			; coordRange
	add	esp, 12					; 0000000cH
	mov	DWORD PTR _iMapY$234896[ebp], eax
	cmp	DWORD PTR _iMapX$234895[ebp], 0
	jl	SHORT $LN74@UncoverInt
	mov	eax, DWORD PTR $T234821[ebp]
	mov	ecx, DWORD PTR [eax+4020]
	mov	DWORD PTR $T234847[ebp], ecx
	mov	edx, DWORD PTR _iMapX$234895[ebp]
	cmp	edx, DWORD PTR $T234847[ebp]
	jge	SHORT $LN74@UncoverInt
	cmp	DWORD PTR _iMapY$234896[ebp], 0
	jl	SHORT $LN74@UncoverInt
	mov	eax, DWORD PTR $T234821[ebp]
	mov	ecx, DWORD PTR [eax+4024]
	mov	DWORD PTR $T234851[ebp], ecx
	mov	edx, DWORD PTR _iMapY$234896[ebp]
	cmp	edx, DWORD PTR $T234851[ebp]
	jge	SHORT $LN74@UncoverInt
	mov	DWORD PTR tv529[ebp], 1
	jmp	SHORT $LN72@UncoverInt
$LN74@UncoverInt:
	mov	DWORD PTR tv529[ebp], 0
$LN72@UncoverInt:
	cmp	DWORD PTR tv529[ebp], 0
	je	SHORT $LN62@UncoverInt
	mov	eax, DWORD PTR $T234821[ebp]
	mov	ecx, DWORD PTR [eax+4020]
	mov	DWORD PTR $T234864[ebp], ecx
	mov	edx, DWORD PTR _iMapY$234896[ebp]
	imul	edx, DWORD PTR $T234864[ebp]
	add	edx, DWORD PTR _iMapX$234895[ebp]
	imul	edx, 484				; 000001e4H
	mov	eax, DWORD PTR $T234821[ebp]
	add	edx, DWORD PTR [eax+4068]
	mov	DWORD PTR tv520[ebp], edx
	jmp	SHORT $LN63@UncoverInt
$LN62@UncoverInt:
	mov	DWORD PTR tv520[ebp], 0
$LN63@UncoverInt:
	mov	ecx, DWORD PTR tv520[ebp]
	mov	DWORD PTR _pCityPlot$[ebp], ecx
$LN60@UncoverInt:

; 754  : 	CvCity* pCity = NULL;

	mov	DWORD PTR _pCity$[ebp], 0

; 755  : 	CvCityEspionage* pCityEspionage = NULL;

	mov	DWORD PTR _pCityEspionage$[ebp], 0

; 756  : 	PlayerTypes ePlayer = m_pPlayer->GetID();

	mov	edx, DWORD PTR _this$[ebp]
	mov	eax, DWORD PTR [edx+1296]
	mov	ecx, DWORD PTR [eax+44]
	mov	DWORD PTR _ePlayer$[ebp], ecx

; 757  : 	PlayerTypes eCityOwner = NO_PLAYER;

	mov	DWORD PTR _eCityOwner$[ebp], -1

; 758  : 	if(pCityPlot)

	cmp	DWORD PTR _pCityPlot$[ebp], 0
	je	SHORT $LN50@UncoverInt

; 759  : 	{
; 760  : 		pCity = pCityPlot->getPlotCity();

	mov	ecx, DWORD PTR _pCityPlot$[ebp]
	call	?getPlotCity@CvPlot@@QBEPAVCvCity@@XZ	; CvPlot::getPlotCity
	mov	DWORD PTR _pCity$[ebp], eax

; 761  : 		eCityOwner = pCity->getOwner();

	mov	edx, DWORD PTR _pCity$[ebp]
	mov	eax, DWORD PTR [edx+84]
	mov	DWORD PTR _eCityOwner$[ebp], eax

; 762  : 		pCityEspionage = pCity->GetCityEspionage();

	mov	ecx, DWORD PTR _pCity$[ebp]
	call	?GetCityEspionage@CvCity@@QBEPAVCvCityEspionage@@XZ ; CvCity::GetCityEspionage
	mov	DWORD PTR _pCityEspionage$[ebp], eax
$LN50@UncoverInt:

; 763  : 	}
; 764  : 
; 765  : 	CvAssertMsg(pCity, "Spy needs to be in city to uncover intrigue");
; 766  : 	if(!pCity)

	cmp	DWORD PTR _pCity$[ebp], 0
	jne	SHORT $LN49@UncoverInt

; 767  : 	{
; 768  : 		return;

	jmp	$LN51@UncoverInt
$LN49@UncoverInt:

; 769  : 	}
; 770  : 
; 771  : 	CvAssertMsg(ePlayer != eCityOwner, "Uncover intrigue should not occur when a spy is in their own city");
; 772  : 	if(ePlayer == eCityOwner)

	mov	ecx, DWORD PTR _ePlayer$[ebp]
	cmp	ecx, DWORD PTR _eCityOwner$[ebp]
	jne	SHORT $LN48@UncoverInt

; 773  : 	{
; 774  : 		return;

	jmp	$LN51@UncoverInt
$LN48@UncoverInt:

; 775  : 	}
; 776  : 
; 777  : 	// make a list of the active civs
; 778  : 	std::vector<int> aiMajorCivIndex;

	lea	ecx, DWORD PTR _aiMajorCivIndex$[ebp]
	call	??0?$vector@HV?$allocator@H@std@@@std@@QAE@XZ ; std::vector<int,std::allocator<int> >::vector<int,std::allocator<int> >
	mov	DWORD PTR __$EHRec$[ebp+8], 0

; 779  : 	for(int i = 0; i < MAX_MAJOR_CIVS; i++)

	mov	DWORD PTR _i$222628[ebp], 0
	jmp	SHORT $LN47@UncoverInt
$LN46@UncoverInt:
	mov	edx, DWORD PTR _i$222628[ebp]
	add	edx, 1
	mov	DWORD PTR _i$222628[ebp], edx
$LN47@UncoverInt:
	cmp	DWORD PTR _i$222628[ebp], 22		; 00000016H
	jge	SHORT $LN45@UncoverInt

; 780  : 	{
; 781  : 		if(GET_PLAYER((PlayerTypes)i).isAlive())

	mov	eax, DWORD PTR _i$222628[ebp]
	imul	eax, 63236				; 0000f704H
	add	eax, DWORD PTR ?m_aPlayers@CvPlayerAI@@1PAV1@A ; CvPlayerAI::m_aPlayers
	mov	DWORD PTR $T234930[ebp], eax
	mov	ecx, DWORD PTR $T234930[ebp]
	mov	dl, BYTE PTR [ecx+2256]
	mov	BYTE PTR $T234939[ebp], dl
	movzx	eax, BYTE PTR $T234939[ebp]
	test	eax, eax
	je	SHORT $LN44@UncoverInt

; 782  : 		{
; 783  : 			aiMajorCivIndex.push_back(i);

	lea	ecx, DWORD PTR _i$222628[ebp]
	push	ecx
	lea	ecx, DWORD PTR _aiMajorCivIndex$[ebp]
	call	?push_back@?$vector@HV?$allocator@H@std@@@std@@QAEXABH@Z ; std::vector<int,std::allocator<int> >::push_back
$LN44@UncoverInt:

; 784  : 		}
; 785  : 	}

	jmp	SHORT $LN46@UncoverInt
$LN45@UncoverInt:

; 786  : 
; 787  : 	// randomize that list
; 788  : 	for(uint ui = 0; ui < aiMajorCivIndex.size(); ui++)

	mov	DWORD PTR _ui$222634[ebp], 0
	jmp	SHORT $LN126@UncoverInt
$LN42@UncoverInt:
	mov	edx, DWORD PTR _ui$222634[ebp]
	add	edx, 1
	mov	DWORD PTR _ui$222634[ebp], edx
$LN126@UncoverInt:
	mov	eax, DWORD PTR _aiMajorCivIndex$[ebp+8]
	sub	eax, DWORD PTR _aiMajorCivIndex$[ebp+4]
	sar	eax, 2
	cmp	DWORD PTR _ui$222634[ebp], eax
	jae	SHORT $LN41@UncoverInt

; 789  : 	{
; 790  : 		int iTempValue;
; 791  : 		uint uiTargetSlot = GC.getGame().getJonRandNum(aiMajorCivIndex.size(), "Randomizing aiMajorCivIndex list within UncoverIntrigue");

	mov	ecx, DWORD PTR _aiMajorCivIndex$[ebp+8]
	sub	ecx, DWORD PTR _aiMajorCivIndex$[ebp+4]
	sar	ecx, 2
	mov	DWORD PTR $T234981[ebp], ecx
	mov	edx, DWORD PTR ?gGlobals@@3VCvGlobals@@A+48
	mov	DWORD PTR $T234985[ebp], edx
	push	OFFSET ??_C@_0DI@MPFGNAGF@Randomizing?5aiMajorCivIndex?5list@
	mov	eax, DWORD PTR $T234981[ebp]
	push	eax
	mov	ecx, DWORD PTR $T234985[ebp]
	call	?getJonRandNum@CvGame@@QAEHHPBD@Z	; CvGame::getJonRandNum
	mov	DWORD PTR _uiTargetSlot$222639[ebp], eax

; 792  : 		iTempValue = aiMajorCivIndex[ui];

	mov	ecx, DWORD PTR _aiMajorCivIndex$[ebp+4]
	mov	edx, DWORD PTR _ui$222634[ebp]
	mov	eax, DWORD PTR [ecx+edx*4]
	mov	DWORD PTR _iTempValue$222638[ebp], eax

; 793  : 		aiMajorCivIndex[ui] = aiMajorCivIndex[uiTargetSlot];

	mov	ecx, DWORD PTR _aiMajorCivIndex$[ebp+4]
	mov	edx, DWORD PTR _uiTargetSlot$222639[ebp]
	lea	eax, DWORD PTR [ecx+edx*4]
	mov	DWORD PTR $T234992[ebp], eax
	mov	ecx, DWORD PTR _aiMajorCivIndex$[ebp+4]
	mov	edx, DWORD PTR _ui$222634[ebp]
	mov	eax, DWORD PTR $T234992[ebp]
	mov	eax, DWORD PTR [eax]
	mov	DWORD PTR [ecx+edx*4], eax

; 794  : 		aiMajorCivIndex[uiTargetSlot] = iTempValue;

	mov	ecx, DWORD PTR _aiMajorCivIndex$[ebp+4]
	mov	edx, DWORD PTR _uiTargetSlot$222639[ebp]
	mov	eax, DWORD PTR _iTempValue$222638[ebp]
	mov	DWORD PTR [ecx+edx*4], eax

; 795  : 	}

	jmp	$LN42@UncoverInt
$LN41@UncoverInt:

; 796  : 
; 797  : 	// go through to determine any intrigue
; 798  : 
; 799  : 	// sending out a sneak attack
; 800  : 	for(uint ui = 0; ui < aiMajorCivIndex.size(); ui++)

	mov	DWORD PTR _ui$222641[ebp], 0
	jmp	SHORT $LN140@UncoverInt
$LN39@UncoverInt:
	mov	ecx, DWORD PTR _ui$222641[ebp]
	add	ecx, 1
	mov	DWORD PTR _ui$222641[ebp], ecx
$LN140@UncoverInt:
	mov	edx, DWORD PTR _aiMajorCivIndex$[ebp+8]
	sub	edx, DWORD PTR _aiMajorCivIndex$[ebp+4]
	sar	edx, 2
	cmp	DWORD PTR _ui$222641[ebp], edx
	jae	$LN38@UncoverInt

; 801  : 	{
; 802  : 		PlayerTypes eTargetPlayer = (PlayerTypes)aiMajorCivIndex[ui];

	mov	eax, DWORD PTR _aiMajorCivIndex$[ebp+4]
	mov	ecx, DWORD PTR _ui$222641[ebp]
	mov	edx, DWORD PTR [eax+ecx*4]
	mov	DWORD PTR _eTargetPlayer$222645[ebp], edx

; 803  : 		// a player shouldn't target themselves for a sneak attack. That's strange.
; 804  : 		if(eTargetPlayer == eCityOwner)

	mov	eax, DWORD PTR _eTargetPlayer$222645[ebp]
	cmp	eax, DWORD PTR _eCityOwner$[ebp]
	jne	SHORT $LN37@UncoverInt

; 805  : 		{
; 806  : 			continue;

	jmp	SHORT $LN39@UncoverInt
$LN37@UncoverInt:

; 807  : 		}
; 808  : 
; 809  : 		// Don't tell other civs about what the shadow ai is thinking because that's incorrect information!
; 810  : 		if(GET_PLAYER(eCityOwner).isHuman())

	mov	ecx, DWORD PTR _eCityOwner$[ebp]
	imul	ecx, 63236				; 0000f704H
	add	ecx, DWORD PTR ?m_aPlayers@CvPlayerAI@@1PAV1@A ; CvPlayerAI::m_aPlayers
	mov	DWORD PTR $T235008[ebp], ecx
	mov	ecx, DWORD PTR $T235008[ebp]
	call	?isHuman@CvPlayer@@QBE_NXZ		; CvPlayer::isHuman
	movzx	edx, al
	test	edx, edx
	je	SHORT $LN36@UncoverInt

; 811  : 		{
; 812  : 			continue;

	jmp	SHORT $LN39@UncoverInt
$LN36@UncoverInt:

; 813  : 		}
; 814  : 
; 815  : 		CvAIOperation* pSneakAttackOperation = GET_PLAYER(eCityOwner).GetMilitaryAI()->GetSneakAttackOperation(eTargetPlayer);

	mov	eax, DWORD PTR _eCityOwner$[ebp]
	imul	eax, 63236				; 0000f704H
	add	eax, DWORD PTR ?m_aPlayers@CvPlayerAI@@1PAV1@A ; CvPlayerAI::m_aPlayers
	mov	DWORD PTR $T235012[ebp], eax
	mov	ecx, DWORD PTR _eTargetPlayer$222645[ebp]
	push	ecx
	mov	ecx, DWORD PTR $T235012[ebp]
	call	?GetMilitaryAI@CvPlayer@@QBEPAVCvMilitaryAI@@XZ ; CvPlayer::GetMilitaryAI
	mov	ecx, eax
	call	?GetSneakAttackOperation@CvMilitaryAI@@QAEPAVCvAIOperation@@W4PlayerTypes@@@Z ; CvMilitaryAI::GetSneakAttackOperation
	mov	DWORD PTR _pSneakAttackOperation$222649[ebp], eax

; 816  : 		if(!pSneakAttackOperation)

	cmp	DWORD PTR _pSneakAttackOperation$222649[ebp], 0
	jne	SHORT $LN35@UncoverInt

; 817  : 		{
; 818  : 			continue;

	jmp	$LN39@UncoverInt
$LN35@UncoverInt:

; 819  : 		}
; 820  : 
; 821  : 		CvCity* pTargetCity = NULL;

	mov	DWORD PTR _pTargetCity$222651[ebp], 0

; 822  : 		int iSpyRank = m_aSpyList[uiSpyIndex].m_eRank;

	mov	edx, DWORD PTR _uiSpyIndex$[ebp]
	imul	edx, 28					; 0000001cH
	mov	eax, DWORD PTR _this$[ebp]
	mov	ecx, DWORD PTR [eax+4]
	mov	edx, DWORD PTR [ecx+edx+12]
	mov	DWORD PTR _iSpyRank$222652[ebp], edx

; 823  : 		iSpyRank += m_pPlayer->GetCulture()->GetInfluenceMajorCivSpyRankBonus(eCityOwner);

	mov	eax, DWORD PTR _eCityOwner$[ebp]
	push	eax
	mov	ecx, DWORD PTR _this$[ebp]
	mov	ecx, DWORD PTR [ecx+1296]
	call	?GetCulture@CvPlayer@@QBEPAVCvPlayerCulture@@XZ ; CvPlayer::GetCulture
	mov	ecx, eax
	call	?GetInfluenceMajorCivSpyRankBonus@CvPlayerCulture@@QBEHW4PlayerTypes@@@Z ; CvPlayerCulture::GetInfluenceMajorCivSpyRankBonus
	add	eax, DWORD PTR _iSpyRank$222652[ebp]
	mov	DWORD PTR _iSpyRank$222652[ebp], eax

; 824  : 
; 825  : 		if(iSpyRank >= SPY_RANK_AGENT)

	cmp	DWORD PTR _iSpyRank$222652[ebp], 1
	jl	SHORT $LN34@UncoverInt

; 826  : 		{
; 827  : 			CvPlot* pPlot = pSneakAttackOperation->GetTargetPlot();

	mov	ecx, DWORD PTR _pSneakAttackOperation$222649[ebp]
	call	?GetTargetPlot@CvAIOperation@@QBEPAVCvPlot@@XZ ; CvAIOperation::GetTargetPlot
	mov	DWORD PTR _pPlot$222654[ebp], eax

; 828  : 			if(pPlot)

	cmp	DWORD PTR _pPlot$222654[ebp], 0
	je	SHORT $LN34@UncoverInt

; 829  : 			{
; 830  : 				pTargetCity = pPlot->getPlotCity();

	mov	ecx, DWORD PTR _pPlot$222654[ebp]
	call	?getPlotCity@CvPlot@@QBEPAVCvCity@@XZ	; CvPlot::getPlotCity
	mov	DWORD PTR _pTargetCity$222651[ebp], eax
$LN34@UncoverInt:

; 831  : 			}
; 832  : 		}
; 833  : 
; 834  : 		PlayerTypes eRevealedTargetPlayer = NO_PLAYER;

	mov	DWORD PTR _eRevealedTargetPlayer$222656[ebp], -1

; 835  : 		if (iSpyRank == SPY_RANK_RECRUIT)

	cmp	DWORD PTR _iSpyRank$222652[ebp], 0
	jne	SHORT $LN32@UncoverInt

; 836  : 		{
; 837  : 			eRevealedTargetPlayer = (PlayerTypes)MAX_MAJOR_CIVS; // hack to indicate that we shouldn't know the target due to our low spy rank

	mov	DWORD PTR _eRevealedTargetPlayer$222656[ebp], 22 ; 00000016H

; 838  : 		}
; 839  : 		else

	jmp	$LN31@UncoverInt
$LN32@UncoverInt:

; 840  : 		{
; 841  : 			if(GET_TEAM(m_pPlayer->getTeam()).isHasMet(GET_PLAYER(eTargetPlayer).getTeam()))

	mov	edx, DWORD PTR _eTargetPlayer$222645[ebp]
	imul	edx, 63236				; 0000f704H
	add	edx, DWORD PTR ?m_aPlayers@CvPlayerAI@@1PAV1@A ; CvPlayerAI::m_aPlayers
	mov	DWORD PTR $T235024[ebp], edx
	mov	eax, DWORD PTR $T235024[ebp]
	mov	ecx, DWORD PTR [eax+44]
	push	ecx
	call	?teamType@CvPreGame@@YA?AW4TeamTypes@@W4PlayerTypes@@@Z ; CvPreGame::teamType
	add	esp, 4
	mov	DWORD PTR $T235033[ebp], eax
	mov	edx, DWORD PTR _this$[ebp]
	mov	eax, DWORD PTR [edx+1296]
	mov	DWORD PTR $T235042[ebp], eax
	mov	ecx, DWORD PTR $T235042[ebp]
	mov	edx, DWORD PTR [ecx+44]
	push	edx
	call	?teamType@CvPreGame@@YA?AW4TeamTypes@@W4PlayerTypes@@@Z ; CvPreGame::teamType
	add	esp, 4
	mov	DWORD PTR $T235043[ebp], eax
	mov	eax, DWORD PTR $T235043[ebp]
	imul	eax, 2984				; 00000ba8H
	add	eax, DWORD PTR ?m_aTeams@CvTeam@@1PAV1@A ; CvTeam::m_aTeams
	mov	DWORD PTR $T235047[ebp], eax
	mov	ecx, DWORD PTR $T235033[ebp]
	push	ecx
	mov	ecx, DWORD PTR $T235047[ebp]
	call	?isHasMet@CvTeam@@QBE_NW4TeamTypes@@@Z	; CvTeam::isHasMet
	movzx	edx, al
	test	edx, edx
	je	SHORT $LN31@UncoverInt

; 842  : 			{
; 843  : 				eRevealedTargetPlayer = eTargetPlayer;

	mov	eax, DWORD PTR _eTargetPlayer$222645[ebp]
	mov	DWORD PTR _eRevealedTargetPlayer$222656[ebp], eax
$LN31@UncoverInt:

; 844  : 			}
; 845  : 		}
; 846  : 
; 847  : 		switch(pSneakAttackOperation->GetOperationType())

	mov	ecx, DWORD PTR _pSneakAttackOperation$222649[ebp]
	mov	edx, DWORD PTR [ecx]
	mov	ecx, DWORD PTR _pSneakAttackOperation$222649[ebp]
	mov	eax, DWORD PTR [edx+16]
	call	eax
	mov	DWORD PTR tv240[ebp], eax
	cmp	DWORD PTR tv240[ebp], 6
	je	SHORT $LN169@UncoverInt
	cmp	DWORD PTR tv240[ebp], 14		; 0000000eH
	je	SHORT $LN173@UncoverInt
	jmp	$LN28@UncoverInt

; 848  : 		{
; 849  : 		case AI_OPERATION_SNEAK_CITY_ATTACK:
; 850  : 		{
; 851  : 			AddIntrigueMessage(m_pPlayer->GetID(), eCityOwner, eRevealedTargetPlayer, NO_BUILDING, NO_PROJECT, INTRIGUE_TYPE_ARMY_SNEAK_ATTACK, uiSpyIndex, pTargetCity, true);

$LN169@UncoverInt:
	mov	ecx, DWORD PTR _this$[ebp]
	mov	edx, DWORD PTR [ecx+1296]
	mov	eax, DWORD PTR [edx+44]
	mov	DWORD PTR $T235056[ebp], eax
	push	1
	mov	ecx, DWORD PTR _pTargetCity$222651[ebp]
	push	ecx
	mov	edx, DWORD PTR _uiSpyIndex$[ebp]
	push	edx
	push	3
	push	-1
	push	-1
	mov	eax, DWORD PTR _eRevealedTargetPlayer$222656[ebp]
	push	eax
	mov	ecx, DWORD PTR _eCityOwner$[ebp]
	push	ecx
	mov	edx, DWORD PTR $T235056[ebp]
	push	edx
	mov	ecx, DWORD PTR _this$[ebp]
	call	?AddIntrigueMessage@CvPlayerEspionage@@QAEXW4PlayerTypes@@00W4BuildingTypes@@W4ProjectTypes@@W4CvIntrigueType@@IPAVCvCity@@_N@Z ; CvPlayerEspionage::AddIntrigueMessage

; 852  : 		}
; 853  : 		break;

	jmp	SHORT $LN28@UncoverInt

; 854  : 		case AI_OPERATION_NAVAL_SNEAK_ATTACK:
; 855  : 		{
; 856  : 			AddIntrigueMessage(m_pPlayer->GetID(), eCityOwner, eRevealedTargetPlayer, NO_BUILDING, NO_PROJECT, INTRIGUE_TYPE_AMPHIBIOUS_SNEAK_ATTACK, uiSpyIndex, pTargetCity, true);

$LN173@UncoverInt:
	mov	eax, DWORD PTR _this$[ebp]
	mov	ecx, DWORD PTR [eax+1296]
	mov	edx, DWORD PTR [ecx+44]
	mov	DWORD PTR $T235065[ebp], edx
	push	1
	mov	eax, DWORD PTR _pTargetCity$222651[ebp]
	push	eax
	mov	ecx, DWORD PTR _uiSpyIndex$[ebp]
	push	ecx
	push	4
	push	-1
	push	-1
	mov	edx, DWORD PTR _eRevealedTargetPlayer$222656[ebp]
	push	edx
	mov	eax, DWORD PTR _eCityOwner$[ebp]
	push	eax
	mov	ecx, DWORD PTR $T235065[ebp]
	push	ecx
	mov	ecx, DWORD PTR _this$[ebp]
	call	?AddIntrigueMessage@CvPlayerEspionage@@QAEXW4PlayerTypes@@00W4BuildingTypes@@W4ProjectTypes@@W4CvIntrigueType@@IPAVCvCity@@_N@Z ; CvPlayerEspionage::AddIntrigueMessage
$LN28@UncoverInt:

; 857  : 		}
; 858  : 		break;
; 859  : 		}
; 860  : 
; 861  : 		// If a sneak attack is reported, bust out of the loop
; 862  : 		break;

	jmp	SHORT $LN38@UncoverInt

; 863  : 	}

	jmp	$LN39@UncoverInt
$LN38@UncoverInt:

; 864  : 
; 865  : 	// building up an army
; 866  : 	if(!GET_PLAYER(eCityOwner).isHuman())

	mov	edx, DWORD PTR _eCityOwner$[ebp]
	imul	edx, 63236				; 0000f704H
	add	edx, DWORD PTR ?m_aPlayers@CvPlayerAI@@1PAV1@A ; CvPlayerAI::m_aPlayers
	mov	DWORD PTR $T235069[ebp], edx
	mov	ecx, DWORD PTR $T235069[ebp]
	call	?isHuman@CvPlayer@@QBE_NXZ		; CvPlayer::isHuman
	movzx	eax, al
	test	eax, eax
	jne	$LN25@UncoverInt

; 867  : 	{
; 868  : 		ArmyType eArmyType = GET_PLAYER(eCityOwner).GetMilitaryAI()->GetArmyBeingBuilt();

	mov	ecx, DWORD PTR _eCityOwner$[ebp]
	imul	ecx, 63236				; 0000f704H
	add	ecx, DWORD PTR ?m_aPlayers@CvPlayerAI@@1PAV1@A ; CvPlayerAI::m_aPlayers
	mov	DWORD PTR $T235073[ebp], ecx
	mov	ecx, DWORD PTR $T235073[ebp]
	call	?GetMilitaryAI@CvPlayer@@QBEPAVCvMilitaryAI@@XZ ; CvPlayer::GetMilitaryAI
	mov	DWORD PTR $T235077[ebp], eax
	mov	edx, DWORD PTR $T235077[ebp]
	mov	eax, DWORD PTR [edx+44]
	mov	DWORD PTR _eArmyType$222668[ebp], eax

; 869  : 		if(eArmyType != NO_ARMY_TYPE)

	cmp	DWORD PTR _eArmyType$222668[ebp], -1
	je	$LN25@UncoverInt

; 870  : 		{
; 871  : 			switch(eArmyType)

	mov	ecx, DWORD PTR _eArmyType$222668[ebp]
	mov	DWORD PTR tv290[ebp], ecx
	cmp	DWORD PTR tv290[ebp], 0
	je	SHORT $LN183@UncoverInt
	cmp	DWORD PTR tv290[ebp], 1
	je	SHORT $LN187@UncoverInt
	jmp	SHORT $LN25@UncoverInt

; 872  : 			{
; 873  : 			case ARMY_TYPE_LAND:
; 874  : 				AddIntrigueMessage(m_pPlayer->GetID(), eCityOwner, NO_PLAYER, NO_BUILDING, NO_PROJECT, INTRIGUE_TYPE_BUILDING_ARMY, uiSpyIndex, pCity, true);

$LN183@UncoverInt:
	mov	edx, DWORD PTR _this$[ebp]
	mov	eax, DWORD PTR [edx+1296]
	mov	ecx, DWORD PTR [eax+44]
	mov	DWORD PTR $T235086[ebp], ecx
	push	1
	mov	edx, DWORD PTR _pCity$[ebp]
	push	edx
	mov	eax, DWORD PTR _uiSpyIndex$[ebp]
	push	eax
	push	1
	push	-1
	push	-1
	push	-1
	mov	ecx, DWORD PTR _eCityOwner$[ebp]
	push	ecx
	mov	edx, DWORD PTR $T235086[ebp]
	push	edx
	mov	ecx, DWORD PTR _this$[ebp]
	call	?AddIntrigueMessage@CvPlayerEspionage@@QAEXW4PlayerTypes@@00W4BuildingTypes@@W4ProjectTypes@@W4CvIntrigueType@@IPAVCvCity@@_N@Z ; CvPlayerEspionage::AddIntrigueMessage

; 875  : 				break;

	jmp	SHORT $LN25@UncoverInt

; 876  : 			case ARMY_TYPE_NAVAL_INVASION:
; 877  : 				AddIntrigueMessage(m_pPlayer->GetID(), eCityOwner, NO_PLAYER, NO_BUILDING, NO_PROJECT, INTRIGUE_TYPE_BUILDING_AMPHIBIOUS_ARMY, uiSpyIndex, pCity, true);

$LN187@UncoverInt:
	mov	eax, DWORD PTR _this$[ebp]
	mov	ecx, DWORD PTR [eax+1296]
	mov	edx, DWORD PTR [ecx+44]
	mov	DWORD PTR $T235095[ebp], edx
	push	1
	mov	eax, DWORD PTR _pCity$[ebp]
	push	eax
	mov	ecx, DWORD PTR _uiSpyIndex$[ebp]
	push	ecx
	push	2
	push	-1
	push	-1
	push	-1
	mov	edx, DWORD PTR _eCityOwner$[ebp]
	push	edx
	mov	eax, DWORD PTR $T235095[ebp]
	push	eax
	mov	ecx, DWORD PTR _this$[ebp]
	call	?AddIntrigueMessage@CvPlayerEspionage@@QAEXW4PlayerTypes@@00W4BuildingTypes@@W4ProjectTypes@@W4CvIntrigueType@@IPAVCvCity@@_N@Z ; CvPlayerEspionage::AddIntrigueMessage
$LN25@UncoverInt:

; 878  : 				break;
; 879  : 			}
; 880  : 		}
; 881  : 	}
; 882  : 
; 883  : 	// deception!
; 884  : 	CvDiplomacyAI* pTargetDiploAI = GET_PLAYER(eCityOwner).GetDiplomacyAI();

	mov	ecx, DWORD PTR _eCityOwner$[ebp]
	imul	ecx, 63236				; 0000f704H
	add	ecx, DWORD PTR ?m_aPlayers@CvPlayerAI@@1PAV1@A ; CvPlayerAI::m_aPlayers
	mov	DWORD PTR $T235099[ebp], ecx
	mov	ecx, DWORD PTR $T235099[ebp]
	call	?GetDiplomacyAI@CvPlayer@@QBEPAVCvDiplomacyAI@@XZ ; CvPlayer::GetDiplomacyAI
	mov	DWORD PTR _pTargetDiploAI$[ebp], eax

; 885  : 	CvAssertMsg(pTargetDiploAI, "pTargetDiploAI is null");
; 886  : 	if(!pTargetDiploAI)

	cmp	DWORD PTR _pTargetDiploAI$[ebp], 0
	jne	SHORT $LN19@UncoverInt

; 887  : 	{
; 888  : 		return;

	mov	DWORD PTR __$EHRec$[ebp+8], 1
	lea	ecx, DWORD PTR _aiMajorCivIndex$[ebp]
	call	?_Tidy@?$vector@HV?$allocator@H@std@@@std@@IAEXXZ ; std::vector<int,std::allocator<int> >::_Tidy
	mov	DWORD PTR __$EHRec$[ebp+8], -1
	jmp	$LN51@UncoverInt
$LN19@UncoverInt:

; 889  : 	}
; 890  : 
; 891  : 	for(uint ui = 0; ui < aiMajorCivIndex.size(); ui++)

	mov	DWORD PTR _ui$222678[ebp], 0
	jmp	SHORT $LN212@UncoverInt
$LN17@UncoverInt:
	mov	edx, DWORD PTR _ui$222678[ebp]
	add	edx, 1
	mov	DWORD PTR _ui$222678[ebp], edx
$LN212@UncoverInt:
	mov	eax, DWORD PTR _aiMajorCivIndex$[ebp+8]
	sub	eax, DWORD PTR _aiMajorCivIndex$[ebp+4]
	sar	eax, 2
	cmp	DWORD PTR _ui$222678[ebp], eax
	jae	$LN16@UncoverInt

; 892  : 	{
; 893  : 		PlayerTypes eOtherOtherPlayer = (PlayerTypes)aiMajorCivIndex[ui];

	mov	ecx, DWORD PTR _aiMajorCivIndex$[ebp+4]
	mov	edx, DWORD PTR _ui$222678[ebp]
	mov	eax, DWORD PTR [ecx+edx*4]
	mov	DWORD PTR _eOtherOtherPlayer$222682[ebp], eax

; 894  : 		// doesn't make sense for player to give information on themselves
; 895  : 		if(eOtherOtherPlayer == eCityOwner)

	mov	ecx, DWORD PTR _eOtherOtherPlayer$222682[ebp]
	cmp	ecx, DWORD PTR _eCityOwner$[ebp]
	jne	SHORT $LN15@UncoverInt

; 896  : 		{
; 897  : 			continue;

	jmp	SHORT $LN17@UncoverInt
$LN15@UncoverInt:

; 898  : 		}
; 899  : 
; 900  : 		// Don't tell other civs about what the shadow ai is thinking because that's incorrect information!
; 901  : 		if(GET_PLAYER(eCityOwner).isHuman())

	mov	edx, DWORD PTR _eCityOwner$[ebp]
	imul	edx, 63236				; 0000f704H
	add	edx, DWORD PTR ?m_aPlayers@CvPlayerAI@@1PAV1@A ; CvPlayerAI::m_aPlayers
	mov	DWORD PTR $T235164[ebp], edx
	mov	ecx, DWORD PTR $T235164[ebp]
	call	?isHuman@CvPlayer@@QBE_NXZ		; CvPlayer::isHuman
	movzx	eax, al
	test	eax, eax
	je	SHORT $LN14@UncoverInt

; 902  : 		{
; 903  : 			continue;

	jmp	SHORT $LN17@UncoverInt
$LN14@UncoverInt:

; 904  : 		}
; 905  : 
; 906  : 		MajorCivApproachTypes eSurfaceApproach = pTargetDiploAI->GetMajorCivApproach(eOtherOtherPlayer, true);

	push	1
	mov	ecx, DWORD PTR _eOtherOtherPlayer$222682[ebp]
	push	ecx
	mov	ecx, DWORD PTR _pTargetDiploAI$[ebp]
	call	?GetMajorCivApproach@CvDiplomacyAI@@QBE?AW4MajorCivApproachTypes@@W4PlayerTypes@@_N@Z ; CvDiplomacyAI::GetMajorCivApproach
	mov	DWORD PTR _eSurfaceApproach$222686[ebp], eax

; 907  : 		MajorCivApproachTypes eHonestApproach = pTargetDiploAI->GetMajorCivApproach(eOtherOtherPlayer, false);

	push	0
	mov	edx, DWORD PTR _eOtherOtherPlayer$222682[ebp]
	push	edx
	mov	ecx, DWORD PTR _pTargetDiploAI$[ebp]
	call	?GetMajorCivApproach@CvDiplomacyAI@@QBE?AW4MajorCivApproachTypes@@W4PlayerTypes@@_N@Z ; CvDiplomacyAI::GetMajorCivApproach
	mov	DWORD PTR _eHonestApproach$222687[ebp], eax

; 908  : 
; 909  : 		// if the current approach is a dangerous approach
; 910  : 		if(eHonestApproach == MAJOR_CIV_APPROACH_DECEPTIVE || eHonestApproach == MAJOR_CIV_APPROACH_WAR)

	cmp	DWORD PTR _eHonestApproach$222687[ebp], 2
	je	SHORT $LN12@UncoverInt
	cmp	DWORD PTR _eHonestApproach$222687[ebp], 0
	jne	$LN13@UncoverInt
$LN12@UncoverInt:

; 911  : 		{
; 912  : 			// if the surface approach hides this
; 913  : 			if(eSurfaceApproach == MAJOR_CIV_APPROACH_FRIENDLY || eSurfaceApproach == MAJOR_CIV_APPROACH_NEUTRAL)

	cmp	DWORD PTR _eSurfaceApproach$222686[ebp], 5
	je	SHORT $LN10@UncoverInt
	cmp	DWORD PTR _eSurfaceApproach$222686[ebp], 6
	jne	$LN13@UncoverInt
$LN10@UncoverInt:

; 914  : 			{
; 915  : 				if(GET_TEAM(GET_PLAYER(eCityOwner).getTeam()).isAtWar(GET_PLAYER(eOtherOtherPlayer).getTeam()))

	mov	eax, DWORD PTR _eOtherOtherPlayer$222682[ebp]
	imul	eax, 63236				; 0000f704H
	add	eax, DWORD PTR ?m_aPlayers@CvPlayerAI@@1PAV1@A ; CvPlayerAI::m_aPlayers
	mov	DWORD PTR $T235168[ebp], eax
	mov	ecx, DWORD PTR $T235168[ebp]
	mov	edx, DWORD PTR [ecx+44]
	push	edx
	call	?teamType@CvPreGame@@YA?AW4TeamTypes@@W4PlayerTypes@@@Z ; CvPreGame::teamType
	add	esp, 4
	mov	DWORD PTR $T235177[ebp], eax
	mov	eax, DWORD PTR _eCityOwner$[ebp]
	imul	eax, 63236				; 0000f704H
	add	eax, DWORD PTR ?m_aPlayers@CvPlayerAI@@1PAV1@A ; CvPlayerAI::m_aPlayers
	mov	DWORD PTR $T235181[ebp], eax
	mov	ecx, DWORD PTR $T235181[ebp]
	mov	edx, DWORD PTR [ecx+44]
	push	edx
	call	?teamType@CvPreGame@@YA?AW4TeamTypes@@W4PlayerTypes@@@Z ; CvPreGame::teamType
	add	esp, 4
	mov	DWORD PTR $T235190[ebp], eax
	mov	eax, DWORD PTR $T235190[ebp]
	imul	eax, 2984				; 00000ba8H
	add	eax, DWORD PTR ?m_aTeams@CvTeam@@1PAV1@A ; CvTeam::m_aTeams
	mov	DWORD PTR $T235194[ebp], eax
	mov	ecx, DWORD PTR $T235177[ebp]
	push	ecx
	mov	ecx, DWORD PTR $T235194[ebp]
	call	?isAtWar@CvTeam@@QBE_NW4TeamTypes@@@Z	; CvTeam::isAtWar
	movzx	edx, al
	test	edx, edx
	je	SHORT $LN9@UncoverInt

; 916  : 				{
; 917  : 					// If the teams are already at war, this isn't notable
; 918  : 					continue;

	jmp	$LN17@UncoverInt
$LN9@UncoverInt:

; 919  : 				}
; 920  : 
; 921  : 				if(GET_TEAM(m_pPlayer->getTeam()).isHasMet(GET_PLAYER(eOtherOtherPlayer).getTeam()))

	mov	eax, DWORD PTR _eOtherOtherPlayer$222682[ebp]
	imul	eax, 63236				; 0000f704H
	add	eax, DWORD PTR ?m_aPlayers@CvPlayerAI@@1PAV1@A ; CvPlayerAI::m_aPlayers
	mov	DWORD PTR $T235198[ebp], eax
	mov	ecx, DWORD PTR $T235198[ebp]
	mov	edx, DWORD PTR [ecx+44]
	push	edx
	call	?teamType@CvPreGame@@YA?AW4TeamTypes@@W4PlayerTypes@@@Z ; CvPreGame::teamType
	add	esp, 4
	mov	DWORD PTR $T235207[ebp], eax
	mov	eax, DWORD PTR _this$[ebp]
	mov	ecx, DWORD PTR [eax+1296]
	mov	DWORD PTR $T235216[ebp], ecx
	mov	edx, DWORD PTR $T235216[ebp]
	mov	eax, DWORD PTR [edx+44]
	push	eax
	call	?teamType@CvPreGame@@YA?AW4TeamTypes@@W4PlayerTypes@@@Z ; CvPreGame::teamType
	add	esp, 4
	mov	DWORD PTR $T235217[ebp], eax
	mov	ecx, DWORD PTR $T235217[ebp]
	imul	ecx, 2984				; 00000ba8H
	add	ecx, DWORD PTR ?m_aTeams@CvTeam@@1PAV1@A ; CvTeam::m_aTeams
	mov	DWORD PTR $T235221[ebp], ecx
	mov	edx, DWORD PTR $T235207[ebp]
	push	edx
	mov	ecx, DWORD PTR $T235221[ebp]
	call	?isHasMet@CvTeam@@QBE_NW4TeamTypes@@@Z	; CvTeam::isHasMet
	movzx	eax, al
	test	eax, eax
	je	SHORT $LN250@UncoverInt

; 922  : 				{
; 923  : 					AddIntrigueMessage(m_pPlayer->GetID(), eCityOwner, eOtherOtherPlayer, NO_BUILDING, NO_PROJECT, INTRIGUE_TYPE_DECEPTION, uiSpyIndex, pCity, true);

	mov	ecx, DWORD PTR _this$[ebp]
	mov	edx, DWORD PTR [ecx+1296]
	mov	eax, DWORD PTR [edx+44]
	mov	DWORD PTR $T235230[ebp], eax
	push	1
	mov	ecx, DWORD PTR _pCity$[ebp]
	push	ecx
	mov	edx, DWORD PTR _uiSpyIndex$[ebp]
	push	edx
	push	0
	push	-1
	push	-1
	mov	eax, DWORD PTR _eOtherOtherPlayer$222682[ebp]
	push	eax
	mov	ecx, DWORD PTR _eCityOwner$[ebp]
	push	ecx
	mov	edx, DWORD PTR $T235230[ebp]
	push	edx
	mov	ecx, DWORD PTR _this$[ebp]
	call	?AddIntrigueMessage@CvPlayerEspionage@@QAEXW4PlayerTypes@@00W4BuildingTypes@@W4ProjectTypes@@W4CvIntrigueType@@IPAVCvCity@@_N@Z ; CvPlayerEspionage::AddIntrigueMessage

; 924  : 				}
; 925  : 				else

	jmp	SHORT $LN7@UncoverInt

; 926  : 				{
; 927  : 					AddIntrigueMessage(m_pPlayer->GetID(), eCityOwner, NO_PLAYER, NO_BUILDING, NO_PROJECT, INTRIGUE_TYPE_DECEPTION, uiSpyIndex, pCity, true);

$LN250@UncoverInt:
	mov	eax, DWORD PTR _this$[ebp]
	mov	ecx, DWORD PTR [eax+1296]
	mov	edx, DWORD PTR [ecx+44]
	mov	DWORD PTR $T235239[ebp], edx
	push	1
	mov	eax, DWORD PTR _pCity$[ebp]
	push	eax
	mov	ecx, DWORD PTR _uiSpyIndex$[ebp]
	push	ecx
	push	0
	push	-1
	push	-1
	push	-1
	mov	edx, DWORD PTR _eCityOwner$[ebp]
	push	edx
	mov	eax, DWORD PTR $T235239[ebp]
	push	eax
	mov	ecx, DWORD PTR _this$[ebp]
	call	?AddIntrigueMessage@CvPlayerEspionage@@QAEXW4PlayerTypes@@00W4BuildingTypes@@W4ProjectTypes@@W4CvIntrigueType@@IPAVCvCity@@_N@Z ; CvPlayerEspionage::AddIntrigueMessage
$LN7@UncoverInt:

; 928  : 				}
; 929  : 				break; // we reported intrigue, now bail out

	jmp	SHORT $LN16@UncoverInt
$LN13@UncoverInt:

; 930  : 			}
; 931  : 		}
; 932  : 	}

	jmp	$LN17@UncoverInt
$LN16@UncoverInt:

; 933  : 
; 934  : 	ProjectTypes eProject = pCity->getProductionProject();

	mov	ecx, DWORD PTR _pCity$[ebp]
	call	?getProductionProject@CvCity@@QBE?AW4ProjectTypes@@XZ ; CvCity::getProductionProject
	mov	DWORD PTR _eProject$[ebp], eax

; 935  : 	BuildingTypes eBuilding = pCity->getProductionBuilding();

	mov	ecx, DWORD PTR _pCity$[ebp]
	call	?getProductionBuilding@CvCity@@QBE?AW4BuildingTypes@@XZ ; CvCity::getProductionBuilding
	mov	DWORD PTR _eBuilding$[ebp], eax

; 936  : 	bool bNotifyAboutConstruction = false;

	mov	BYTE PTR _bNotifyAboutConstruction$[ebp], 0

; 937  : 	if (eProject != NO_PROJECT)

	cmp	DWORD PTR _eProject$[ebp], -1
	je	SHORT $LN6@UncoverInt

; 938  : 	{
; 939  : 		bNotifyAboutConstruction = true;

	mov	BYTE PTR _bNotifyAboutConstruction$[ebp], 1
	jmp	SHORT $LN5@UncoverInt
$LN6@UncoverInt:

; 940  : 	}
; 941  : 	else if (eBuilding != NO_BUILDING)

	cmp	DWORD PTR _eBuilding$[ebp], -1
	je	SHORT $LN5@UncoverInt

; 942  : 	{
; 943  : 		CvBuildingEntry* pBuildingInfo = GC.getBuildingInfo(eBuilding);

	mov	ecx, DWORD PTR _eBuilding$[ebp]
	push	ecx
	mov	ecx, OFFSET ?gGlobals@@3VCvGlobals@@A	; gGlobals
	call	?getBuildingInfo@CvGlobals@@QAEPAVCvBuildingEntry@@W4BuildingTypes@@@Z ; CvGlobals::getBuildingInfo
	mov	DWORD PTR _pBuildingInfo$222701[ebp], eax

; 944  : 		CvAssertMsg(pBuildingInfo, "pBuildingInfo is null");
; 945  : 		if (pBuildingInfo)

	cmp	DWORD PTR _pBuildingInfo$222701[ebp], 0
	je	SHORT $LN5@UncoverInt

; 946  : 		{
; 947  : 			if (::isWorldWonderClass(pBuildingInfo->GetBuildingClassInfo()))

	mov	ecx, DWORD PTR _pBuildingInfo$222701[ebp]
	call	?GetBuildingClassInfo@CvBuildingEntry@@QBEABVCvBuildingClassInfo@@XZ ; CvBuildingEntry::GetBuildingClassInfo
	push	eax
	call	?isWorldWonderClass@@YA_NABVCvBuildingClassInfo@@@Z ; isWorldWonderClass
	add	esp, 4
	movzx	edx, al
	test	edx, edx
	je	SHORT $LN5@UncoverInt

; 948  : 			{
; 949  : 				bNotifyAboutConstruction = true;

	mov	BYTE PTR _bNotifyAboutConstruction$[ebp], 1
$LN5@UncoverInt:

; 950  : 			}
; 951  : 		}
; 952  : 	}
; 953  : 
; 954  : 	if (bNotifyAboutConstruction)

	movzx	eax, BYTE PTR _bNotifyAboutConstruction$[ebp]
	test	eax, eax
	je	SHORT $LN1@UncoverInt

; 955  : 	{
; 956  : 		AddIntrigueMessage(m_pPlayer->GetID(), eCityOwner, NO_PLAYER, eBuilding, eProject, INTRIGUE_TYPE_CONSTRUCTING_WONDER, uiSpyIndex, pCity, true);

	mov	ecx, DWORD PTR _this$[ebp]
	mov	edx, DWORD PTR [ecx+1296]
	mov	eax, DWORD PTR [edx+44]
	mov	DWORD PTR $T235248[ebp], eax
	push	1
	mov	ecx, DWORD PTR _pCity$[ebp]
	push	ecx
	mov	edx, DWORD PTR _uiSpyIndex$[ebp]
	push	edx
	push	5
	mov	eax, DWORD PTR _eProject$[ebp]
	push	eax
	mov	ecx, DWORD PTR _eBuilding$[ebp]
	push	ecx
	push	-1
	mov	edx, DWORD PTR _eCityOwner$[ebp]
	push	edx
	mov	eax, DWORD PTR $T235248[ebp]
	push	eax
	mov	ecx, DWORD PTR _this$[ebp]
	call	?AddIntrigueMessage@CvPlayerEspionage@@QAEXW4PlayerTypes@@00W4BuildingTypes@@W4ProjectTypes@@W4CvIntrigueType@@IPAVCvCity@@_N@Z ; CvPlayerEspionage::AddIntrigueMessage
$LN1@UncoverInt:

; 957  : 	}
; 958  : }

	mov	DWORD PTR __$EHRec$[ebp+8], 2
	lea	ecx, DWORD PTR _aiMajorCivIndex$[ebp]
	call	?_Tidy@?$vector@HV?$allocator@H@std@@@std@@IAEXXZ ; std::vector<int,std::allocator<int> >::_Tidy
	mov	DWORD PTR __$EHRec$[ebp+8], -1
$LN51@UncoverInt:
	mov	ecx, DWORD PTR __$EHRec$[ebp]
	mov	DWORD PTR fs:0, ecx
	pop	ecx
	mov	esp, ebp
	pop	ebp
	ret	4
_TEXT	ENDS
;	COMDAT text$x
text$x	SEGMENT
__unwindfunclet$?UncoverIntrigue@CvPlayerEspionage@@QAEXI@Z$0:
	lea	ecx, DWORD PTR _aiMajorCivIndex$[ebp]
	jmp	??1?$vector@HV?$allocator@H@std@@@std@@QAE@XZ ; std::vector<int,std::allocator<int> >::~vector<int,std::allocator<int> >
__unwindfunclet$?UncoverIntrigue@CvPlayerEspionage@@QAEXI@Z$2:
	lea	ecx, DWORD PTR _aiMajorCivIndex$[ebp]
	jmp	??1?$_Vector_val@HV?$allocator@H@std@@@std@@QAE@XZ
__unwindfunclet$?UncoverIntrigue@CvPlayerEspionage@@QAEXI@Z$4:
	lea	ecx, DWORD PTR _aiMajorCivIndex$[ebp]
	jmp	??1?$_Vector_val@HV?$allocator@H@std@@@std@@QAE@XZ
__ehhandler$?UncoverIntrigue@CvPlayerEspionage@@QAEXI@Z:
	mov	edx, DWORD PTR [esp+8]
	lea	eax, DWORD PTR [edx+12]
	mov	ecx, DWORD PTR [edx-428]
	xor	ecx, eax
	call	@__security_check_cookie@4
	mov	eax, OFFSET __ehfuncinfo$?UncoverIntrigue@CvPlayerEspionage@@QAEXI@Z
	jmp	___CxxFrameHandler3
text$x	ENDS
?UncoverIntrigue@CvPlayerEspionage@@QAEXI@Z ENDP	; CvPlayerEspionage::UncoverIntrigue
; Function compile flags: /Odtp
;	COMDAT ?GetNextSpyName@CvPlayerEspionage@@QAEHXZ
_TEXT	SEGMENT
_this$ = -16						; size = 4
$T235322 = -12						; size = 4
$T235315 = -8						; size = 4
_iName$ = -4						; size = 4
?GetNextSpyName@CvPlayerEspionage@@QAEHXZ PROC		; CvPlayerEspionage::GetNextSpyName, COMDAT
; _this$ = ecx

; 961  : {

	push	ebp
	mov	ebp, esp
	sub	esp, 16					; 00000010H
	mov	DWORD PTR _this$[ebp], ecx

; 962  : 	CvAssertMsg((uint)m_iSpyListNameOrderIndex < m_aiSpyListNameOrder.size(), "m_iSpyListNameOrderIndex out of bounds probably because this civ doesn't have spy names.")
; 963  : 	if((uint)m_iSpyListNameOrderIndex >= m_aiSpyListNameOrder.size())

	mov	eax, DWORD PTR _this$[ebp]
	add	eax, 244				; 000000f4H
	mov	DWORD PTR $T235315[ebp], eax
	mov	ecx, DWORD PTR $T235315[ebp]
	mov	edx, DWORD PTR $T235315[ebp]
	mov	eax, DWORD PTR [ecx+8]
	sub	eax, DWORD PTR [edx+4]
	sar	eax, 2
	mov	ecx, DWORD PTR _this$[ebp]
	cmp	DWORD PTR [ecx+260], eax
	jb	SHORT $LN7@GetNextSpy

; 964  : 	{
; 965  : 		return -1;

	or	eax, -1
	jmp	SHORT $LN3@GetNextSpy

; 966  : 	}
; 967  : 
; 968  : 	int iName = m_aiSpyListNameOrder[m_iSpyListNameOrderIndex];

$LN7@GetNextSpy:
	mov	edx, DWORD PTR _this$[ebp]
	mov	eax, DWORD PTR [edx+260]
	mov	ecx, DWORD PTR _this$[ebp]
	mov	edx, DWORD PTR [ecx+248]
	mov	eax, DWORD PTR [edx+eax*4]
	mov	DWORD PTR _iName$[ebp], eax

; 969  : 	m_iSpyListNameOrderIndex++;

	mov	ecx, DWORD PTR _this$[ebp]
	mov	edx, DWORD PTR [ecx+260]
	add	edx, 1
	mov	eax, DWORD PTR _this$[ebp]
	mov	DWORD PTR [eax+260], edx

; 970  : 	if(m_iSpyListNameOrderIndex >= (int)m_aiSpyListNameOrder.size())

	mov	ecx, DWORD PTR _this$[ebp]
	add	ecx, 244				; 000000f4H
	mov	DWORD PTR $T235322[ebp], ecx
	mov	edx, DWORD PTR $T235322[ebp]
	mov	eax, DWORD PTR $T235322[ebp]
	mov	ecx, DWORD PTR [edx+8]
	sub	ecx, DWORD PTR [eax+4]
	sar	ecx, 2
	mov	edx, DWORD PTR _this$[ebp]
	cmp	DWORD PTR [edx+260], ecx
	jl	SHORT $LN1@GetNextSpy

; 971  : 	{
; 972  : 		m_iSpyListNameOrderIndex = 0;

	mov	eax, DWORD PTR _this$[ebp]
	mov	DWORD PTR [eax+260], 0
$LN1@GetNextSpy:

; 973  : 	}
; 974  : 	return iName;

	mov	eax, DWORD PTR _iName$[ebp]
$LN3@GetNextSpy:

; 975  : }

	mov	esp, ebp
	pop	ebp
	ret	0
?GetNextSpyName@CvPlayerEspionage@@QAEHXZ ENDP		; CvPlayerEspionage::GetNextSpyName
_TEXT	ENDS
PUBLIC	?IsSpyInCity@CvPlayerEspionage@@QAE_NI@Z	; CvPlayerEspionage::IsSpyInCity
; Function compile flags: /Odtp
;	COMDAT ?IsSpyInCity@CvPlayerEspionage@@QAE_NI@Z
_TEXT	SEGMENT
_this$ = -8						; size = 4
$T235328 = -4						; size = 4
_uiSpyIndex$ = 8					; size = 4
?IsSpyInCity@CvPlayerEspionage@@QAE_NI@Z PROC		; CvPlayerEspionage::IsSpyInCity, COMDAT
; _this$ = ecx

; 979  : {

	push	ebp
	mov	ebp, esp
	sub	esp, 8
	mov	DWORD PTR _this$[ebp], ecx

; 980  : 	CvAssertMsg(uiSpyIndex < m_aSpyList.size(), "uiSpyIndex is out of bounds");
; 981  : 	if(uiSpyIndex >= m_aSpyList.size())

	mov	eax, DWORD PTR _this$[ebp]
	mov	ecx, DWORD PTR [eax+8]
	mov	DWORD PTR $T235328[ebp], ecx
	mov	edx, DWORD PTR _uiSpyIndex$[ebp]
	cmp	edx, DWORD PTR $T235328[ebp]
	jb	SHORT $LN8@IsSpyInCit

; 982  : 	{
; 983  : 		return false;

	xor	al, al
	jmp	SHORT $LN4@IsSpyInCit

; 984  : 	}
; 985  : 
; 986  : 	if(m_aSpyList[uiSpyIndex].m_iCityX != -1 && m_aSpyList[uiSpyIndex].m_iCityY != -1)

$LN8@IsSpyInCit:
	mov	eax, DWORD PTR _uiSpyIndex$[ebp]
	imul	eax, 28					; 0000001cH
	mov	ecx, DWORD PTR _this$[ebp]
	mov	edx, DWORD PTR [ecx+4]
	cmp	DWORD PTR [edx+eax+4], -1
	je	SHORT $LN2@IsSpyInCit
	mov	eax, DWORD PTR _uiSpyIndex$[ebp]
	imul	eax, 28					; 0000001cH
	mov	ecx, DWORD PTR _this$[ebp]
	mov	edx, DWORD PTR [ecx+4]
	cmp	DWORD PTR [edx+eax+8], -1
	je	SHORT $LN2@IsSpyInCit

; 987  : 	{
; 988  : 		return true;

	mov	al, 1
	jmp	SHORT $LN4@IsSpyInCit

; 989  : 	}
; 990  : 	else

	jmp	SHORT $LN4@IsSpyInCit
$LN2@IsSpyInCit:

; 991  : 	{
; 992  : 		return false;

	xor	al, al
$LN4@IsSpyInCit:

; 993  : 	}
; 994  : }

	mov	esp, ebp
	pop	ebp
	ret	4
?IsSpyInCity@CvPlayerEspionage@@QAE_NI@Z ENDP		; CvPlayerEspionage::IsSpyInCity
_TEXT	ENDS
PUBLIC	?GetCityWithSpy@CvPlayerEspionage@@QAEPAVCvCity@@I@Z ; CvPlayerEspionage::GetCityWithSpy
; Function compile flags: /Odtp
;	COMDAT ?GetCityWithSpy@CvPlayerEspionage@@QAEPAVCvCity@@I@Z
_TEXT	SEGMENT
tv181 = -84						; size = 4
tv196 = -80						; size = 4
_this$ = -76						; size = 4
$T235461 = -68						; size = 4
$T235460 = -64						; size = 4
$T235415 = -60						; size = 4
$T235402 = -56						; size = 4
$T235398 = -52						; size = 4
$T235384 = -48						; size = 4
$T235380 = -41						; size = 1
$T235369 = -40						; size = 4
$T235365 = -33						; size = 1
_iMapY$235424 = -32					; size = 4
_iMapX$235423 = -28					; size = 4
$T235358 = -24						; size = 4
$T235354 = -20						; size = 4
$T235350 = -16						; size = 4
$T235340 = -12						; size = 4
_pCityPlot$ = -8					; size = 4
_pCity$ = -4						; size = 4
_uiSpyIndex$ = 8					; size = 4
?GetCityWithSpy@CvPlayerEspionage@@QAEPAVCvCity@@I@Z PROC ; CvPlayerEspionage::GetCityWithSpy, COMDAT
; _this$ = ecx

; 997  : {

	push	ebp
	mov	ebp, esp
	sub	esp, 84					; 00000054H
	mov	DWORD PTR _this$[ebp], ecx

; 998  : 	CvAssertMsg(uiSpyIndex < m_aSpyList.size(), "uiSpyIndex is out of bounds");
; 999  : 	if(uiSpyIndex >= m_aSpyList.size())

	mov	eax, DWORD PTR _this$[ebp]
	mov	ecx, DWORD PTR [eax+8]
	mov	DWORD PTR $T235340[ebp], ecx
	mov	edx, DWORD PTR _uiSpyIndex$[ebp]
	cmp	edx, DWORD PTR $T235340[ebp]
	jb	SHORT $LN8@GetCityWit

; 1000 : 	{
; 1001 : #ifdef AUI_WARNING_FIXES
; 1002 : 		return NULL;
; 1003 : #else
; 1004 : 		return false;

	xor	eax, eax
	jmp	$LN4@GetCityWit

; 1005 : #endif
; 1006 : 	}
; 1007 : 
; 1008 : 	if(m_aSpyList[uiSpyIndex].m_iCityX == -1 && m_aSpyList[uiSpyIndex].m_iCityY == -1)

$LN8@GetCityWit:
	mov	eax, DWORD PTR _uiSpyIndex$[ebp]
	imul	eax, 28					; 0000001cH
	mov	ecx, DWORD PTR _this$[ebp]
	mov	edx, DWORD PTR [ecx+4]
	cmp	DWORD PTR [edx+eax+4], -1
	jne	SHORT $LN2@GetCityWit
	mov	eax, DWORD PTR _uiSpyIndex$[ebp]
	imul	eax, 28					; 0000001cH
	mov	ecx, DWORD PTR _this$[ebp]
	mov	edx, DWORD PTR [ecx+4]
	cmp	DWORD PTR [edx+eax+8], -1
	jne	SHORT $LN2@GetCityWit

; 1009 : 	{
; 1010 : 		return NULL;

	xor	eax, eax
	jmp	$LN4@GetCityWit
$LN2@GetCityWit:

; 1011 : 	}
; 1012 : 
; 1013 : 	CvPlot* pCityPlot = GC.getMap().plot(m_aSpyList[uiSpyIndex].m_iCityX, m_aSpyList[uiSpyIndex].m_iCityY);

	mov	eax, DWORD PTR _uiSpyIndex$[ebp]
	imul	eax, 28					; 0000001cH
	mov	ecx, DWORD PTR _this$[ebp]
	add	eax, DWORD PTR [ecx+4]
	mov	DWORD PTR $T235350[ebp], eax
	mov	edx, DWORD PTR _uiSpyIndex$[ebp]
	imul	edx, 28					; 0000001cH
	mov	eax, DWORD PTR _this$[ebp]
	add	edx, DWORD PTR [eax+4]
	mov	DWORD PTR $T235354[ebp], edx
	mov	ecx, DWORD PTR ?gGlobals@@3VCvGlobals@@A+52
	mov	DWORD PTR $T235358[ebp], ecx
	mov	edx, DWORD PTR $T235350[ebp]
	mov	eax, DWORD PTR [edx+8]
	mov	DWORD PTR $T235461[ebp], eax
	mov	ecx, DWORD PTR $T235354[ebp]
	mov	edx, DWORD PTR [ecx+4]
	mov	DWORD PTR $T235460[ebp], edx
	cmp	DWORD PTR $T235460[ebp], -2147483647	; 80000001H
	je	SHORT $LN18@GetCityWit
	cmp	DWORD PTR $T235461[ebp], -2147483647	; 80000001H
	jne	SHORT $LN19@GetCityWit
$LN18@GetCityWit:
	mov	DWORD PTR _pCityPlot$[ebp], 0
	jmp	$LN20@GetCityWit
$LN19@GetCityWit:
	mov	eax, DWORD PTR $T235358[ebp]
	mov	cl, BYTE PTR [eax+4056]
	mov	BYTE PTR $T235365[ebp], cl
	mov	edx, DWORD PTR $T235358[ebp]
	mov	eax, DWORD PTR [edx+4020]
	mov	DWORD PTR $T235369[ebp], eax
	movzx	ecx, BYTE PTR $T235365[ebp]
	test	ecx, ecx
	je	SHORT $LN31@GetCityWit
	cmp	DWORD PTR $T235460[ebp], 0
	jge	SHORT $LN30@GetCityWit
	mov	eax, DWORD PTR $T235460[ebp]
	cdq
	idiv	DWORD PTR $T235369[ebp]
	add	edx, DWORD PTR $T235369[ebp]
	mov	DWORD PTR _iMapX$235423[ebp], edx
	jmp	SHORT $LN32@GetCityWit
	jmp	SHORT $LN31@GetCityWit
$LN30@GetCityWit:
	mov	edx, DWORD PTR $T235460[ebp]
	cmp	edx, DWORD PTR $T235369[ebp]
	jl	SHORT $LN31@GetCityWit
	mov	eax, DWORD PTR $T235460[ebp]
	cdq
	idiv	DWORD PTR $T235369[ebp]
	mov	DWORD PTR _iMapX$235423[ebp], edx
	jmp	SHORT $LN32@GetCityWit
$LN31@GetCityWit:
	mov	eax, DWORD PTR $T235460[ebp]
	mov	DWORD PTR _iMapX$235423[ebp], eax
$LN32@GetCityWit:
	mov	ecx, DWORD PTR $T235358[ebp]
	mov	dl, BYTE PTR [ecx+4057]
	mov	BYTE PTR $T235380[ebp], dl
	mov	eax, DWORD PTR $T235358[ebp]
	mov	ecx, DWORD PTR [eax+4024]
	mov	DWORD PTR $T235384[ebp], ecx
	movzx	edx, BYTE PTR $T235380[ebp]
	test	edx, edx
	je	SHORT $LN41@GetCityWit
	cmp	DWORD PTR $T235461[ebp], 0
	jge	SHORT $LN40@GetCityWit
	mov	eax, DWORD PTR $T235461[ebp]
	cdq
	idiv	DWORD PTR $T235384[ebp]
	add	edx, DWORD PTR $T235384[ebp]
	mov	DWORD PTR _iMapY$235424[ebp], edx
	jmp	SHORT $LN42@GetCityWit
	jmp	SHORT $LN41@GetCityWit
$LN40@GetCityWit:
	mov	eax, DWORD PTR $T235461[ebp]
	cmp	eax, DWORD PTR $T235384[ebp]
	jl	SHORT $LN41@GetCityWit
	mov	eax, DWORD PTR $T235461[ebp]
	cdq
	idiv	DWORD PTR $T235384[ebp]
	mov	DWORD PTR _iMapY$235424[ebp], edx
	jmp	SHORT $LN42@GetCityWit
$LN41@GetCityWit:
	mov	ecx, DWORD PTR $T235461[ebp]
	mov	DWORD PTR _iMapY$235424[ebp], ecx
$LN42@GetCityWit:
	cmp	DWORD PTR _iMapX$235423[ebp], 0
	jl	SHORT $LN46@GetCityWit
	mov	edx, DWORD PTR $T235358[ebp]
	mov	eax, DWORD PTR [edx+4020]
	mov	DWORD PTR $T235398[ebp], eax
	mov	ecx, DWORD PTR _iMapX$235423[ebp]
	cmp	ecx, DWORD PTR $T235398[ebp]
	jge	SHORT $LN46@GetCityWit
	cmp	DWORD PTR _iMapY$235424[ebp], 0
	jl	SHORT $LN46@GetCityWit
	mov	edx, DWORD PTR $T235358[ebp]
	mov	eax, DWORD PTR [edx+4024]
