; Listing generated by Microsoft (R) Optimizing Compiler Version 15.00.30729.01 

	TITLE	D:\sources\Lekmod_git\checkout\LEKMOD_DLL\CvGameCoreDLL_Expansion2\CvGlobals.cpp
	.686P
	.XMM
	include listing.inc
	.model	flat

INCLUDELIB MSVCRT
INCLUDELIB OLDNAMES

PUBLIC	??_C@_05OCFELOIJ@1?40?40?$AA@			; `string'
PUBLIC	?NO_QUEST_DATA@CvMinorCivQuest@@2HB		; CvMinorCivQuest::NO_QUEST_DATA
PUBLIC	?NO_TURN@CvMinorCivQuest@@2HB			; CvMinorCivQuest::NO_TURN
CONST	SEGMENT
_guidICvDLLDatabaseUtility1 DD 0ae87f7bdH
	DW	08510H
	DW	0444fH
	DB	09dH
	DB	054H
	DB	098H
	DB	03dH
	DB	077H
	DB	064H
	DB	085H
	DB	0a6H
CONST	ENDS
_DATA	SEGMENT
_CIV5_XP2_DLL_VERSION DD FLAT:??_C@_05OCFELOIJ@1?40?40?$AA@
_DATA	ENDS
;	COMDAT ??_C@_05OCFELOIJ@1?40?40?$AA@
CONST	SEGMENT
??_C@_05OCFELOIJ@1?40?40?$AA@ DB '1.0.0', 00H		; `string'
CONST	ENDS
;	COMDAT ?NO_TURN@CvMinorCivQuest@@2HB
CONST	SEGMENT
?NO_TURN@CvMinorCivQuest@@2HB DD 0ffffffffH		; CvMinorCivQuest::NO_TURN
CONST	ENDS
;	COMDAT ?NO_QUEST_DATA@CvMinorCivQuest@@2HB
CONST	SEGMENT
?NO_QUEST_DATA@CvMinorCivQuest@@2HB DD 0ffffffffH	; CvMinorCivQuest::NO_QUEST_DATA
CONST	ENDS
PUBLIC	??1?$vector@PAVCvEntityEventInfo@@V?$allocator@PAVCvEntityEventInfo@@@std@@@std@@QAE@XZ ; std::vector<CvEntityEventInfo *,std::allocator<CvEntityEventInfo *> >::~vector<CvEntityEventInfo *,std::allocator<CvEntityEventInfo *> >
PUBLIC	??1?$vector@PAVCvSmallAwardInfo@@V?$allocator@PAVCvSmallAwardInfo@@@std@@@std@@QAE@XZ ; std::vector<CvSmallAwardInfo *,std::allocator<CvSmallAwardInfo *> >::~vector<CvSmallAwardInfo *,std::allocator<CvSmallAwardInfo *> >
PUBLIC	??1?$vector@PAVCvVictoryInfo@@V?$allocator@PAVCvVictoryInfo@@@std@@@std@@QAE@XZ ; std::vector<CvVictoryInfo *,std::allocator<CvVictoryInfo *> >::~vector<CvVictoryInfo *,std::allocator<CvVictoryInfo *> >
PUBLIC	??1?$vector@PAVCvHurryInfo@@V?$allocator@PAVCvHurryInfo@@@std@@@std@@QAE@XZ ; std::vector<CvHurryInfo *,std::allocator<CvHurryInfo *> >::~vector<CvHurryInfo *,std::allocator<CvHurryInfo *> >
PUBLIC	??1?$vector@PAVCvEraInfo@@V?$allocator@PAVCvEraInfo@@@std@@@std@@QAE@XZ ; std::vector<CvEraInfo *,std::allocator<CvEraInfo *> >::~vector<CvEraInfo *,std::allocator<CvEraInfo *> >
PUBLIC	??1?$vector@PAVCvAutomateInfo@@V?$allocator@PAVCvAutomateInfo@@@std@@@std@@QAE@XZ ; std::vector<CvAutomateInfo *,std::allocator<CvAutomateInfo *> >::~vector<CvAutomateInfo *,std::allocator<CvAutomateInfo *> >
PUBLIC	??1?$vector@PAVCvCommandInfo@@V?$allocator@PAVCvCommandInfo@@@std@@@std@@QAE@XZ ; std::vector<CvCommandInfo *,std::allocator<CvCommandInfo *> >::~vector<CvCommandInfo *,std::allocator<CvCommandInfo *> >
PUBLIC	??1?$vector@PAVCvControlInfo@@V?$allocator@PAVCvControlInfo@@@std@@@std@@QAE@XZ ; std::vector<CvControlInfo *,std::allocator<CvControlInfo *> >::~vector<CvControlInfo *,std::allocator<CvControlInfo *> >
PUBLIC	??1?$vector@PAVCvMissionInfo@@V?$allocator@PAVCvMissionInfo@@@std@@@std@@QAE@XZ ; std::vector<CvMissionInfo *,std::allocator<CvMissionInfo *> >::~vector<CvMissionInfo *,std::allocator<CvMissionInfo *> >
PUBLIC	??1?$vector@PAVCvActionInfo@@V?$allocator@PAVCvActionInfo@@@std@@@std@@QAE@XZ ; std::vector<CvActionInfo *,std::allocator<CvActionInfo *> >::~vector<CvActionInfo *,std::allocator<CvActionInfo *> >
PUBLIC	??1?$vector@PAVCvSpecialistInfo@@V?$allocator@PAVCvSpecialistInfo@@@std@@@std@@QAE@XZ ; std::vector<CvSpecialistInfo *,std::allocator<CvSpecialistInfo *> >::~vector<CvSpecialistInfo *,std::allocator<CvSpecialistInfo *> >
PUBLIC	??1?$vector@PAVCvPlayerOptionInfo@@V?$allocator@PAVCvPlayerOptionInfo@@@std@@@std@@QAE@XZ ; std::vector<CvPlayerOptionInfo *,std::allocator<CvPlayerOptionInfo *> >::~vector<CvPlayerOptionInfo *,std::allocator<CvPlayerOptionInfo *> >
PUBLIC	??1?$vector@PAVCvMPOptionInfo@@V?$allocator@PAVCvMPOptionInfo@@@std@@@std@@QAE@XZ ; std::vector<CvMPOptionInfo *,std::allocator<CvMPOptionInfo *> >::~vector<CvMPOptionInfo *,std::allocator<CvMPOptionInfo *> >
PUBLIC	??1?$vector@PAVCvGameOptionInfo@@V?$allocator@PAVCvGameOptionInfo@@@std@@@std@@QAE@XZ ; std::vector<CvGameOptionInfo *,std::allocator<CvGameOptionInfo *> >::~vector<CvGameOptionInfo *,std::allocator<CvGameOptionInfo *> >
PUBLIC	??1?$vector@PAVCvBaseInfo@@V?$allocator@PAVCvBaseInfo@@@std@@@std@@QAE@XZ ; std::vector<CvBaseInfo *,std::allocator<CvBaseInfo *> >::~vector<CvBaseInfo *,std::allocator<CvBaseInfo *> >
PUBLIC	??1?$vector@PAVCvVoteSourceInfo@@V?$allocator@PAVCvVoteSourceInfo@@@std@@@std@@QAE@XZ ; std::vector<CvVoteSourceInfo *,std::allocator<CvVoteSourceInfo *> >::~vector<CvVoteSourceInfo *,std::allocator<CvVoteSourceInfo *> >
PUBLIC	??1?$_Vector_val@PAVCvVoteSourceInfo@@V?$allocator@PAVCvVoteSourceInfo@@@std@@@std@@QAE@XZ ; std::_Vector_val<CvVoteSourceInfo *,std::allocator<CvVoteSourceInfo *> >::~_Vector_val<CvVoteSourceInfo *,std::allocator<CvVoteSourceInfo *> >
PUBLIC	??1?$vector@PAVCvSpecialUnitInfo@@V?$allocator@PAVCvSpecialUnitInfo@@@std@@@std@@QAE@XZ ; std::vector<CvSpecialUnitInfo *,std::allocator<CvSpecialUnitInfo *> >::~vector<CvSpecialUnitInfo *,std::allocator<CvSpecialUnitInfo *> >
PUBLIC	??1?$_Vector_val@PAVCvSpecialUnitInfo@@V?$allocator@PAVCvSpecialUnitInfo@@@std@@@std@@QAE@XZ ; std::_Vector_val<CvSpecialUnitInfo *,std::allocator<CvSpecialUnitInfo *> >::~_Vector_val<CvSpecialUnitInfo *,std::allocator<CvSpecialUnitInfo *> >
PUBLIC	??1?$vector@PAVCvUnitClassInfo@@V?$allocator@PAVCvUnitClassInfo@@@std@@@std@@QAE@XZ ; std::vector<CvUnitClassInfo *,std::allocator<CvUnitClassInfo *> >::~vector<CvUnitClassInfo *,std::allocator<CvUnitClassInfo *> >
PUBLIC	??1?$_Vector_val@PAVCvUnitClassInfo@@V?$allocator@PAVCvUnitClassInfo@@@std@@@std@@QAE@XZ ; std::_Vector_val<CvUnitClassInfo *,std::allocator<CvUnitClassInfo *> >::~_Vector_val<CvUnitClassInfo *,std::allocator<CvUnitClassInfo *> >
PUBLIC	??1?$vector@PAVCvBuildingClassInfo@@V?$allocator@PAVCvBuildingClassInfo@@@std@@@std@@QAE@XZ ; std::vector<CvBuildingClassInfo *,std::allocator<CvBuildingClassInfo *> >::~vector<CvBuildingClassInfo *,std::allocator<CvBuildingClassInfo *> >
PUBLIC	??1?$_Vector_val@PAVCvBuildingClassInfo@@V?$allocator@PAVCvBuildingClassInfo@@@std@@@std@@QAE@XZ ; std::_Vector_val<CvBuildingClassInfo *,std::allocator<CvBuildingClassInfo *> >::~_Vector_val<CvBuildingClassInfo *,std::allocator<CvBuildingClassInfo *> >
PUBLIC	??1?$vector@PAVCvVoteInfo@@V?$allocator@PAVCvVoteInfo@@@std@@@std@@QAE@XZ ; std::vector<CvVoteInfo *,std::allocator<CvVoteInfo *> >::~vector<CvVoteInfo *,std::allocator<CvVoteInfo *> >
PUBLIC	??1?$_Vector_val@PAVCvVoteInfo@@V?$allocator@PAVCvVoteInfo@@@std@@@std@@QAE@XZ ; std::_Vector_val<CvVoteInfo *,std::allocator<CvVoteInfo *> >::~_Vector_val<CvVoteInfo *,std::allocator<CvVoteInfo *> >
PUBLIC	??1?$vector@PAVCvProcessInfo@@V?$allocator@PAVCvProcessInfo@@@std@@@std@@QAE@XZ ; std::vector<CvProcessInfo *,std::allocator<CvProcessInfo *> >::~vector<CvProcessInfo *,std::allocator<CvProcessInfo *> >
PUBLIC	??1?$_Vector_val@PAVCvProcessInfo@@V?$allocator@PAVCvProcessInfo@@@std@@@std@@QAE@XZ ; std::_Vector_val<CvProcessInfo *,std::allocator<CvProcessInfo *> >::~_Vector_val<CvProcessInfo *,std::allocator<CvProcessInfo *> >
PUBLIC	??1?$vector@PAVCvLeaderHeadInfo@@V?$allocator@PAVCvLeaderHeadInfo@@@std@@@std@@QAE@XZ ; std::vector<CvLeaderHeadInfo *,std::allocator<CvLeaderHeadInfo *> >::~vector<CvLeaderHeadInfo *,std::allocator<CvLeaderHeadInfo *> >
PUBLIC	??1?$_Vector_val@PAVCvLeaderHeadInfo@@V?$allocator@PAVCvLeaderHeadInfo@@@std@@@std@@QAE@XZ ; std::_Vector_val<CvLeaderHeadInfo *,std::allocator<CvLeaderHeadInfo *> >::~_Vector_val<CvLeaderHeadInfo *,std::allocator<CvLeaderHeadInfo *> >
PUBLIC	??1?$vector@PAVCvMinorCivInfo@@V?$allocator@PAVCvMinorCivInfo@@@std@@@std@@QAE@XZ ; std::vector<CvMinorCivInfo *,std::allocator<CvMinorCivInfo *> >::~vector<CvMinorCivInfo *,std::allocator<CvMinorCivInfo *> >
PUBLIC	??1?$_Vector_val@PAVCvMinorCivInfo@@V?$allocator@PAVCvMinorCivInfo@@@std@@@std@@QAE@XZ ; std::_Vector_val<CvMinorCivInfo *,std::allocator<CvMinorCivInfo *> >::~_Vector_val<CvMinorCivInfo *,std::allocator<CvMinorCivInfo *> >
PUBLIC	??1?$vector@PAVCvCivilizationInfo@@V?$allocator@PAVCvCivilizationInfo@@@std@@@std@@QAE@XZ ; std::vector<CvCivilizationInfo *,std::allocator<CvCivilizationInfo *> >::~vector<CvCivilizationInfo *,std::allocator<CvCivilizationInfo *> >
PUBLIC	??1?$_Vector_val@PAVCvCivilizationInfo@@V?$allocator@PAVCvCivilizationInfo@@@std@@@std@@QAE@XZ ; std::_Vector_val<CvCivilizationInfo *,std::allocator<CvCivilizationInfo *> >::~_Vector_val<CvCivilizationInfo *,std::allocator<CvCivilizationInfo *> >
PUBLIC	??1?$vector@PAVCvTurnTimerInfo@@V?$allocator@PAVCvTurnTimerInfo@@@std@@@std@@QAE@XZ ; std::vector<CvTurnTimerInfo *,std::allocator<CvTurnTimerInfo *> >::~vector<CvTurnTimerInfo *,std::allocator<CvTurnTimerInfo *> >
PUBLIC	??1?$_Vector_val@PAVCvTurnTimerInfo@@V?$allocator@PAVCvTurnTimerInfo@@@std@@@std@@QAE@XZ ; std::_Vector_val<CvTurnTimerInfo *,std::allocator<CvTurnTimerInfo *> >::~_Vector_val<CvTurnTimerInfo *,std::allocator<CvTurnTimerInfo *> >
PUBLIC	??1?$vector@PAVCvGameSpeedInfo@@V?$allocator@PAVCvGameSpeedInfo@@@std@@@std@@QAE@XZ ; std::vector<CvGameSpeedInfo *,std::allocator<CvGameSpeedInfo *> >::~vector<CvGameSpeedInfo *,std::allocator<CvGameSpeedInfo *> >
PUBLIC	??1?$_Vector_val@PAVCvGameSpeedInfo@@V?$allocator@PAVCvGameSpeedInfo@@@std@@@std@@QAE@XZ ; std::_Vector_val<CvGameSpeedInfo *,std::allocator<CvGameSpeedInfo *> >::~_Vector_val<CvGameSpeedInfo *,std::allocator<CvGameSpeedInfo *> >
PUBLIC	??1?$vector@PAVCvHandicapInfo@@V?$allocator@PAVCvHandicapInfo@@@std@@@std@@QAE@XZ ; std::vector<CvHandicapInfo *,std::allocator<CvHandicapInfo *> >::~vector<CvHandicapInfo *,std::allocator<CvHandicapInfo *> >
PUBLIC	??1?$_Vector_val@PAVCvHandicapInfo@@V?$allocator@PAVCvHandicapInfo@@@std@@@std@@QAE@XZ ; std::_Vector_val<CvHandicapInfo *,std::allocator<CvHandicapInfo *> >::~_Vector_val<CvHandicapInfo *,std::allocator<CvHandicapInfo *> >
PUBLIC	??1?$vector@PAVCvBuildInfo@@V?$allocator@PAVCvBuildInfo@@@std@@@std@@QAE@XZ ; std::vector<CvBuildInfo *,std::allocator<CvBuildInfo *> >::~vector<CvBuildInfo *,std::allocator<CvBuildInfo *> >
PUBLIC	??1?$_Vector_val@PAVCvBuildInfo@@V?$allocator@PAVCvBuildInfo@@@std@@@std@@QAE@XZ ; std::_Vector_val<CvBuildInfo *,std::allocator<CvBuildInfo *> >::~_Vector_val<CvBuildInfo *,std::allocator<CvBuildInfo *> >
PUBLIC	??1?$vector@PAVCvResourceInfo@@V?$allocator@PAVCvResourceInfo@@@std@@@std@@QAE@XZ ; std::vector<CvResourceInfo *,std::allocator<CvResourceInfo *> >::~vector<CvResourceInfo *,std::allocator<CvResourceInfo *> >
PUBLIC	??1?$_Vector_val@PAVCvResourceInfo@@V?$allocator@PAVCvResourceInfo@@@std@@@std@@QAE@XZ ; std::_Vector_val<CvResourceInfo *,std::allocator<CvResourceInfo *> >::~_Vector_val<CvResourceInfo *,std::allocator<CvResourceInfo *> >
PUBLIC	??1?$vector@PAVCvResourceClassInfo@@V?$allocator@PAVCvResourceClassInfo@@@std@@@std@@QAE@XZ ; std::vector<CvResourceClassInfo *,std::allocator<CvResourceClassInfo *> >::~vector<CvResourceClassInfo *,std::allocator<CvResourceClassInfo *> >
PUBLIC	??1?$_Vector_val@PAVCvResourceClassInfo@@V?$allocator@PAVCvResourceClassInfo@@@std@@@std@@QAE@XZ ; std::_Vector_val<CvResourceClassInfo *,std::allocator<CvResourceClassInfo *> >::~_Vector_val<CvResourceClassInfo *,std::allocator<CvResourceClassInfo *> >
PUBLIC	??1?$vector@PAVCvFeatureInfo@@V?$allocator@PAVCvFeatureInfo@@@std@@@std@@QAE@XZ ; std::vector<CvFeatureInfo *,std::allocator<CvFeatureInfo *> >::~vector<CvFeatureInfo *,std::allocator<CvFeatureInfo *> >
PUBLIC	??1?$_Vector_val@PAVCvFeatureInfo@@V?$allocator@PAVCvFeatureInfo@@@std@@@std@@QAE@XZ ; std::_Vector_val<CvFeatureInfo *,std::allocator<CvFeatureInfo *> >::~_Vector_val<CvFeatureInfo *,std::allocator<CvFeatureInfo *> >
PUBLIC	??1?$vector@PAVCvRouteInfo@@V?$allocator@PAVCvRouteInfo@@@std@@@std@@QAE@XZ ; std::vector<CvRouteInfo *,std::allocator<CvRouteInfo *> >::~vector<CvRouteInfo *,std::allocator<CvRouteInfo *> >
PUBLIC	??1?$_Vector_val@PAVCvRouteInfo@@V?$allocator@PAVCvRouteInfo@@@std@@@std@@QAE@XZ ; std::_Vector_val<CvRouteInfo *,std::allocator<CvRouteInfo *> >::~_Vector_val<CvRouteInfo *,std::allocator<CvRouteInfo *> >
PUBLIC	??1?$vector@PAVCvYieldInfo@@V?$allocator@PAVCvYieldInfo@@@std@@@std@@QAE@XZ ; std::vector<CvYieldInfo *,std::allocator<CvYieldInfo *> >::~vector<CvYieldInfo *,std::allocator<CvYieldInfo *> >
PUBLIC	??1?$_Vector_val@PAVCvYieldInfo@@V?$allocator@PAVCvYieldInfo@@@std@@@std@@QAE@XZ ; std::_Vector_val<CvYieldInfo *,std::allocator<CvYieldInfo *> >::~_Vector_val<CvYieldInfo *,std::allocator<CvYieldInfo *> >
PUBLIC	??1?$vector@PAVCvTerrainInfo@@V?$allocator@PAVCvTerrainInfo@@@std@@@std@@QAE@XZ ; std::vector<CvTerrainInfo *,std::allocator<CvTerrainInfo *> >::~vector<CvTerrainInfo *,std::allocator<CvTerrainInfo *> >
PUBLIC	??1?$_Vector_val@PAVCvTerrainInfo@@V?$allocator@PAVCvTerrainInfo@@@std@@@std@@QAE@XZ ; std::_Vector_val<CvTerrainInfo *,std::allocator<CvTerrainInfo *> >::~_Vector_val<CvTerrainInfo *,std::allocator<CvTerrainInfo *> >
PUBLIC	??1?$vector@PAVCvPlayerColorInfo@@V?$allocator@PAVCvPlayerColorInfo@@@std@@@std@@QAE@XZ ; std::vector<CvPlayerColorInfo *,std::allocator<CvPlayerColorInfo *> >::~vector<CvPlayerColorInfo *,std::allocator<CvPlayerColorInfo *> >
PUBLIC	??1?$_Vector_val@PAVCvPlayerColorInfo@@V?$allocator@PAVCvPlayerColorInfo@@@std@@@std@@QAE@XZ ; std::_Vector_val<CvPlayerColorInfo *,std::allocator<CvPlayerColorInfo *> >::~_Vector_val<CvPlayerColorInfo *,std::allocator<CvPlayerColorInfo *> >
PUBLIC	??1?$vector@PAVCvColorInfo@@V?$allocator@PAVCvColorInfo@@@std@@@std@@QAE@XZ ; std::vector<CvColorInfo *,std::allocator<CvColorInfo *> >::~vector<CvColorInfo *,std::allocator<CvColorInfo *> >
PUBLIC	??1?$_Vector_val@PAVCvColorInfo@@V?$allocator@PAVCvColorInfo@@@std@@@std@@QAE@XZ ; std::_Vector_val<CvColorInfo *,std::allocator<CvColorInfo *> >::~_Vector_val<CvColorInfo *,std::allocator<CvColorInfo *> >
PUBLIC	??1?$map@IHU?$less@I@std@@V?$allocator@U?$pair@$$CBIH@std@@@2@@std@@QAE@XZ ; std::map<unsigned int,int,std::less<unsigned int>,std::allocator<std::pair<unsigned int const ,int> > >::~map<unsigned int,int,std::less<unsigned int>,std::allocator<std::pair<unsigned int const ,int> > >
PUBLIC	??1?$hash_map@V?$basic_string@DU?$char_traits@D@std@@V?$allocator@D@2@@std@@HV?$hash_compare@V?$basic_string@DU?$char_traits@D@std@@V?$allocator@D@2@@std@@U?$less@V?$basic_string@DU?$char_traits@D@std@@V?$allocator@D@2@@std@@@2@@stdext@@V?$allocator@U?$pair@$$CBV?$basic_string@DU?$char_traits@D@std@@V?$allocator@D@2@@std@@H@std@@@2@@stdext@@QAE@XZ ; stdext::hash_map<std::basic_string<char,std::char_traits<char>,std::allocator<char> >,int,stdext::hash_compare<std::basic_string<char,std::char_traits<char>,std::allocator<char> >,std::less<std::basic_string<char,std::char_traits<char>,std::allocator<char> > > >,std::allocator<std::pair<std::basic_string<char,std::char_traits<char>,std::allocator<char> > const ,int> > >::~hash_map<std::basic_string<char,std::char_traits<char>,std::allocator<char> >,int,stdext::hash_compare<std::basic_string<char,std::char_traits<char>,std::allocator<char> >,std::less<std::basic_string<char,std::char_traits<char>,std::allocator<char> > > >,std::allocator<std::pair<std::basic_string<char,std::char_traits<char>,std::allocator<char> > const ,int> > >
PUBLIC	??1?$vector@PAVCvInterfaceModeInfo@@V?$allocator@PAVCvInterfaceModeInfo@@@std@@@std@@QAE@XZ ; std::vector<CvInterfaceModeInfo *,std::allocator<CvInterfaceModeInfo *> >::~vector<CvInterfaceModeInfo *,std::allocator<CvInterfaceModeInfo *> >
PUBLIC	??1?$_Vector_val@PAVCvInterfaceModeInfo@@V?$allocator@PAVCvInterfaceModeInfo@@@std@@@std@@QAE@XZ ; std::_Vector_val<CvInterfaceModeInfo *,std::allocator<CvInterfaceModeInfo *> >::~_Vector_val<CvInterfaceModeInfo *,std::allocator<CvInterfaceModeInfo *> >
PUBLIC	__real@c2e423d7
PUBLIC	__real@411ae148
PUBLIC	__real@40a00000
PUBLIC	__real@3fd9999a
PUBLIC	__real@3fe66666
PUBLIC	__real@40c00000
PUBLIC	__real@40c9999a
PUBLIC	__real@3f8147ae
PUBLIC	__real@3f2b851f
PUBLIC	__real@3e99999a
PUBLIC	__real@40066666
PUBLIC	__real@3f666666
PUBLIC	__real@3f000000
PUBLIC	__real@3dcccccd
PUBLIC	__real@3e4ccccd
PUBLIC	__real@3f800000
PUBLIC	__real@3f8ccccd
PUBLIC	__real@41a00000
PUBLIC	__real@44480000
PUBLIC	__real@442f0000
PUBLIC	__real@43fa0000
PUBLIC	__real@3f733333
PUBLIC	__real@3e19999a
PUBLIC	__real@3c75c28f
PUBLIC	__real@c15bced9
PUBLIC	__real@41802f1b
PUBLIC	__real@40e00000
PUBLIC	__real@3fb8b439
PUBLIC	__real@3ca3d70a
PUBLIC	__real@3fa00000
PUBLIC	__real@3f4ccccd
PUBLIC	__real@40000000
PUBLIC	__real@3eae147b
PUBLIC	??0?$vector@PAVCvMultiUnitFormationInfo@@V?$allocator@PAVCvMultiUnitFormationInfo@@@std@@@std@@QAE@XZ ; std::vector<CvMultiUnitFormationInfo *,std::allocator<CvMultiUnitFormationInfo *> >::vector<CvMultiUnitFormationInfo *,std::allocator<CvMultiUnitFormationInfo *> >
PUBLIC	??0?$vector@PAVCvEntityEventInfo@@V?$allocator@PAVCvEntityEventInfo@@@std@@@std@@QAE@XZ ; std::vector<CvEntityEventInfo *,std::allocator<CvEntityEventInfo *> >::vector<CvEntityEventInfo *,std::allocator<CvEntityEventInfo *> >
PUBLIC	??0?$vector@PAVCvSmallAwardInfo@@V?$allocator@PAVCvSmallAwardInfo@@@std@@@std@@QAE@XZ ; std::vector<CvSmallAwardInfo *,std::allocator<CvSmallAwardInfo *> >::vector<CvSmallAwardInfo *,std::allocator<CvSmallAwardInfo *> >
PUBLIC	??0?$vector@PAVCvVictoryInfo@@V?$allocator@PAVCvVictoryInfo@@@std@@@std@@QAE@XZ ; std::vector<CvVictoryInfo *,std::allocator<CvVictoryInfo *> >::vector<CvVictoryInfo *,std::allocator<CvVictoryInfo *> >
PUBLIC	??0?$vector@PAVCvHurryInfo@@V?$allocator@PAVCvHurryInfo@@@std@@@std@@QAE@XZ ; std::vector<CvHurryInfo *,std::allocator<CvHurryInfo *> >::vector<CvHurryInfo *,std::allocator<CvHurryInfo *> >
PUBLIC	??0?$vector@PAVCvEraInfo@@V?$allocator@PAVCvEraInfo@@@std@@@std@@QAE@XZ ; std::vector<CvEraInfo *,std::allocator<CvEraInfo *> >::vector<CvEraInfo *,std::allocator<CvEraInfo *> >
PUBLIC	??0?$vector@PAVCvAutomateInfo@@V?$allocator@PAVCvAutomateInfo@@@std@@@std@@QAE@XZ ; std::vector<CvAutomateInfo *,std::allocator<CvAutomateInfo *> >::vector<CvAutomateInfo *,std::allocator<CvAutomateInfo *> >
PUBLIC	??0?$vector@PAVCvCommandInfo@@V?$allocator@PAVCvCommandInfo@@@std@@@std@@QAE@XZ ; std::vector<CvCommandInfo *,std::allocator<CvCommandInfo *> >::vector<CvCommandInfo *,std::allocator<CvCommandInfo *> >
PUBLIC	??0?$vector@PAVCvControlInfo@@V?$allocator@PAVCvControlInfo@@@std@@@std@@QAE@XZ ; std::vector<CvControlInfo *,std::allocator<CvControlInfo *> >::vector<CvControlInfo *,std::allocator<CvControlInfo *> >
PUBLIC	??0?$vector@PAVCvMissionInfo@@V?$allocator@PAVCvMissionInfo@@@std@@@std@@QAE@XZ ; std::vector<CvMissionInfo *,std::allocator<CvMissionInfo *> >::vector<CvMissionInfo *,std::allocator<CvMissionInfo *> >
PUBLIC	??0?$vector@PAVCvActionInfo@@V?$allocator@PAVCvActionInfo@@@std@@@std@@QAE@XZ ; std::vector<CvActionInfo *,std::allocator<CvActionInfo *> >::vector<CvActionInfo *,std::allocator<CvActionInfo *> >
PUBLIC	??0?$vector@PAVCvSpecialistInfo@@V?$allocator@PAVCvSpecialistInfo@@@std@@@std@@QAE@XZ ; std::vector<CvSpecialistInfo *,std::allocator<CvSpecialistInfo *> >::vector<CvSpecialistInfo *,std::allocator<CvSpecialistInfo *> >
PUBLIC	??0?$vector@PAVCvPlayerOptionInfo@@V?$allocator@PAVCvPlayerOptionInfo@@@std@@@std@@QAE@XZ ; std::vector<CvPlayerOptionInfo *,std::allocator<CvPlayerOptionInfo *> >::vector<CvPlayerOptionInfo *,std::allocator<CvPlayerOptionInfo *> >
PUBLIC	??0?$vector@PAVCvMPOptionInfo@@V?$allocator@PAVCvMPOptionInfo@@@std@@@std@@QAE@XZ ; std::vector<CvMPOptionInfo *,std::allocator<CvMPOptionInfo *> >::vector<CvMPOptionInfo *,std::allocator<CvMPOptionInfo *> >
PUBLIC	??0?$vector@PAVCvGameOptionInfo@@V?$allocator@PAVCvGameOptionInfo@@@std@@@std@@QAE@XZ ; std::vector<CvGameOptionInfo *,std::allocator<CvGameOptionInfo *> >::vector<CvGameOptionInfo *,std::allocator<CvGameOptionInfo *> >
PUBLIC	??0?$vector@PAVCvBaseInfo@@V?$allocator@PAVCvBaseInfo@@@std@@@std@@QAE@XZ ; std::vector<CvBaseInfo *,std::allocator<CvBaseInfo *> >::vector<CvBaseInfo *,std::allocator<CvBaseInfo *> >
PUBLIC	?_Buy@?$vector@PAVCvVoteSourceInfo@@V?$allocator@PAVCvVoteSourceInfo@@@std@@@std@@IAE_NI@Z ; std::vector<CvVoteSourceInfo *,std::allocator<CvVoteSourceInfo *> >::_Buy
PUBLIC	?_Buy@?$vector@PAVCvSpecialUnitInfo@@V?$allocator@PAVCvSpecialUnitInfo@@@std@@@std@@IAE_NI@Z ; std::vector<CvSpecialUnitInfo *,std::allocator<CvSpecialUnitInfo *> >::_Buy
PUBLIC	?_Buy@?$vector@PAVCvUnitClassInfo@@V?$allocator@PAVCvUnitClassInfo@@@std@@@std@@IAE_NI@Z ; std::vector<CvUnitClassInfo *,std::allocator<CvUnitClassInfo *> >::_Buy
PUBLIC	?_Buy@?$vector@PAVCvBuildingClassInfo@@V?$allocator@PAVCvBuildingClassInfo@@@std@@@std@@IAE_NI@Z ; std::vector<CvBuildingClassInfo *,std::allocator<CvBuildingClassInfo *> >::_Buy
PUBLIC	?_Buy@?$vector@PAVCvVoteInfo@@V?$allocator@PAVCvVoteInfo@@@std@@@std@@IAE_NI@Z ; std::vector<CvVoteInfo *,std::allocator<CvVoteInfo *> >::_Buy
PUBLIC	?_Buy@?$vector@PAVCvProcessInfo@@V?$allocator@PAVCvProcessInfo@@@std@@@std@@IAE_NI@Z ; std::vector<CvProcessInfo *,std::allocator<CvProcessInfo *> >::_Buy
PUBLIC	?_Buy@?$vector@PAVCvLeaderHeadInfo@@V?$allocator@PAVCvLeaderHeadInfo@@@std@@@std@@IAE_NI@Z ; std::vector<CvLeaderHeadInfo *,std::allocator<CvLeaderHeadInfo *> >::_Buy
PUBLIC	?_Buy@?$vector@PAVCvMinorCivInfo@@V?$allocator@PAVCvMinorCivInfo@@@std@@@std@@IAE_NI@Z ; std::vector<CvMinorCivInfo *,std::allocator<CvMinorCivInfo *> >::_Buy
PUBLIC	?_Buy@?$vector@PAVCvCivilizationInfo@@V?$allocator@PAVCvCivilizationInfo@@@std@@@std@@IAE_NI@Z ; std::vector<CvCivilizationInfo *,std::allocator<CvCivilizationInfo *> >::_Buy
PUBLIC	?_Buy@?$vector@PAVCvTurnTimerInfo@@V?$allocator@PAVCvTurnTimerInfo@@@std@@@std@@IAE_NI@Z ; std::vector<CvTurnTimerInfo *,std::allocator<CvTurnTimerInfo *> >::_Buy
PUBLIC	?_Buy@?$vector@PAVCvGameSpeedInfo@@V?$allocator@PAVCvGameSpeedInfo@@@std@@@std@@IAE_NI@Z ; std::vector<CvGameSpeedInfo *,std::allocator<CvGameSpeedInfo *> >::_Buy
PUBLIC	?_Buy@?$vector@PAVCvHandicapInfo@@V?$allocator@PAVCvHandicapInfo@@@std@@@std@@IAE_NI@Z ; std::vector<CvHandicapInfo *,std::allocator<CvHandicapInfo *> >::_Buy
PUBLIC	?_Buy@?$vector@PAVCvBuildInfo@@V?$allocator@PAVCvBuildInfo@@@std@@@std@@IAE_NI@Z ; std::vector<CvBuildInfo *,std::allocator<CvBuildInfo *> >::_Buy
PUBLIC	?_Buy@?$vector@PAVCvResourceInfo@@V?$allocator@PAVCvResourceInfo@@@std@@@std@@IAE_NI@Z ; std::vector<CvResourceInfo *,std::allocator<CvResourceInfo *> >::_Buy
PUBLIC	?_Buy@?$vector@PAVCvResourceClassInfo@@V?$allocator@PAVCvResourceClassInfo@@@std@@@std@@IAE_NI@Z ; std::vector<CvResourceClassInfo *,std::allocator<CvResourceClassInfo *> >::_Buy
PUBLIC	?_Buy@?$vector@PAVCvFeatureInfo@@V?$allocator@PAVCvFeatureInfo@@@std@@@std@@IAE_NI@Z ; std::vector<CvFeatureInfo *,std::allocator<CvFeatureInfo *> >::_Buy
PUBLIC	?_Buy@?$vector@PAVCvRouteInfo@@V?$allocator@PAVCvRouteInfo@@@std@@@std@@IAE_NI@Z ; std::vector<CvRouteInfo *,std::allocator<CvRouteInfo *> >::_Buy
PUBLIC	?_Buy@?$vector@PAVCvYieldInfo@@V?$allocator@PAVCvYieldInfo@@@std@@@std@@IAE_NI@Z ; std::vector<CvYieldInfo *,std::allocator<CvYieldInfo *> >::_Buy
PUBLIC	?_Buy@?$vector@PAVCvTerrainInfo@@V?$allocator@PAVCvTerrainInfo@@@std@@@std@@IAE_NI@Z ; std::vector<CvTerrainInfo *,std::allocator<CvTerrainInfo *> >::_Buy
PUBLIC	?_Buy@?$vector@PAVCvPlayerColorInfo@@V?$allocator@PAVCvPlayerColorInfo@@@std@@@std@@IAE_NI@Z ; std::vector<CvPlayerColorInfo *,std::allocator<CvPlayerColorInfo *> >::_Buy
PUBLIC	?_Buy@?$vector@PAVCvColorInfo@@V?$allocator@PAVCvColorInfo@@@std@@@std@@IAE_NI@Z ; std::vector<CvColorInfo *,std::allocator<CvColorInfo *> >::_Buy
PUBLIC	??0?$_Tree@V?$_Tmap_traits@IHU?$less@I@std@@V?$allocator@U?$pair@$$CBIH@std@@@2@$0A@@std@@@std@@QAE@ABU?$less@I@1@ABV?$allocator@U?$pair@$$CBIH@std@@@1@@Z ; std::_Tree<std::_Tmap_traits<unsigned int,int,std::less<unsigned int>,std::allocator<std::pair<unsigned int const ,int> >,0> >::_Tree<std::_Tmap_traits<unsigned int,int,std::less<unsigned int>,std::allocator<std::pair<unsigned int const ,int> >,0> >
PUBLIC	??0?$_Hash@V?$_Hmap_traits@V?$basic_string@DU?$char_traits@D@std@@V?$allocator@D@2@@std@@HV?$hash_compare@V?$basic_string@DU?$char_traits@D@std@@V?$allocator@D@2@@std@@U?$less@V?$basic_string@DU?$char_traits@D@std@@V?$allocator@D@2@@std@@@2@@stdext@@V?$allocator@U?$pair@$$CBV?$basic_string@DU?$char_traits@D@std@@V?$allocator@D@2@@std@@H@std@@@2@$0A@@stdext@@@stdext@@QAE@ABV?$hash_compare@V?$basic_string@DU?$char_traits@D@std@@V?$allocator@D@2@@std@@U?$less@V?$basic_string@DU?$char_traits@D@std@@V?$allocator@D@2@@std@@@2@@1@ABV?$allocator@U?$pair@$$CBV?$basic_string@DU?$char_traits@D@std@@V?$allocator@D@2@@std@@H@std@@@std@@@Z ; stdext::_Hash<stdext::_Hmap_traits<std::basic_string<char,std::char_traits<char>,std::allocator<char> >,int,stdext::hash_compare<std::basic_string<char,std::char_traits<char>,std::allocator<char> >,std::less<std::basic_string<char,std::char_traits<char>,std::allocator<char> > > >,std::allocator<std::pair<std::basic_string<char,std::char_traits<char>,std::allocator<char> > const ,int> >,0> >::_Hash<stdext::_Hmap_traits<std::basic_string<char,std::char_traits<char>,std::allocator<char> >,int,stdext::hash_compare<std::basic_string<char,std::char_traits<char>,std::allocator<char> >,std::less<std::basic_string<char,std::char_traits<char>,std::allocator<char> > > >,std::allocator<std::pair<std::basic_string<char,std::char_traits<char>,std::allocator<char> > const ,int> >,0> >
PUBLIC	?_Buy@?$vector@PAVCvInterfaceModeInfo@@V?$allocator@PAVCvInterfaceModeInfo@@@std@@@std@@IAE_NI@Z ; std::vector<CvInterfaceModeInfo *,std::allocator<CvInterfaceModeInfo *> >::_Buy
PUBLIC	__real@00000000
PUBLIC	??_7CvGlobals@@6B@				; CvGlobals::`vftable'
PUBLIC	??0CvGlobals@@QAE@XZ				; CvGlobals::CvGlobals
EXTRN	__imp_??1Results@Database@@UAE@XZ:PROC
EXTRN	__imp_??0Results@Database@@QAE@PBD@Z:PROC
EXTRN	___security_cookie:DWORD
EXTRN	___CxxFrameHandler3:PROC
EXTRN	@__security_check_cookie@4:PROC
EXTRN	__fltused:DWORD
EXTRN	__CxxThrowException@8:PROC
EXTRN	??_ECvGlobals@@UAEPAXI@Z:PROC			; CvGlobals::`vector deleting destructor'
;	COMDAT __real@c2e423d7
; File c:\program files (x86)\microsoft visual studio 9.0\vc\include\stdexcept
CONST	SEGMENT
__real@c2e423d7 DD 0c2e423d7r			; -114.07
CONST	ENDS
;	COMDAT __real@411ae148
CONST	SEGMENT
__real@411ae148 DD 0411ae148r			; 9.68
CONST	ENDS
;	COMDAT __real@40a00000
CONST	SEGMENT
__real@40a00000 DD 040a00000r			; 5
CONST	ENDS
;	COMDAT __real@3fd9999a
CONST	SEGMENT
__real@3fd9999a DD 03fd9999ar			; 1.7
CONST	ENDS
;	COMDAT __real@3fe66666
CONST	SEGMENT
__real@3fe66666 DD 03fe66666r			; 1.8
CONST	ENDS
;	COMDAT __real@40c00000
CONST	SEGMENT
__real@40c00000 DD 040c00000r			; 6
CONST	ENDS
;	COMDAT __real@40c9999a
CONST	SEGMENT
__real@40c9999a DD 040c9999ar			; 6.3
CONST	ENDS
;	COMDAT __real@3f8147ae
CONST	SEGMENT
__real@3f8147ae DD 03f8147aer			; 1.01
CONST	ENDS
;	COMDAT __real@3f2b851f
CONST	SEGMENT
__real@3f2b851f DD 03f2b851fr			; 0.67
CONST	ENDS
;	COMDAT __real@3e99999a
CONST	SEGMENT
__real@3e99999a DD 03e99999ar			; 0.3
CONST	ENDS
;	COMDAT __real@40066666
CONST	SEGMENT
__real@40066666 DD 040066666r			; 2.1
CONST	ENDS
;	COMDAT __real@3f666666
CONST	SEGMENT
__real@3f666666 DD 03f666666r			; 0.9
CONST	ENDS
;	COMDAT __real@3f000000
CONST	SEGMENT
__real@3f000000 DD 03f000000r			; 0.5
CONST	ENDS
;	COMDAT __real@3dcccccd
CONST	SEGMENT
__real@3dcccccd DD 03dcccccdr			; 0.1
CONST	ENDS
;	COMDAT __real@3e4ccccd
CONST	SEGMENT
__real@3e4ccccd DD 03e4ccccdr			; 0.2
CONST	ENDS
;	COMDAT __real@3f800000
CONST	SEGMENT
__real@3f800000 DD 03f800000r			; 1
CONST	ENDS
;	COMDAT __real@3f8ccccd
CONST	SEGMENT
__real@3f8ccccd DD 03f8ccccdr			; 1.1
CONST	ENDS
;	COMDAT __real@41a00000
CONST	SEGMENT
__real@41a00000 DD 041a00000r			; 20
CONST	ENDS
;	COMDAT __real@44480000
CONST	SEGMENT
__real@44480000 DD 044480000r			; 800
CONST	ENDS
;	COMDAT __real@442f0000
CONST	SEGMENT
__real@442f0000 DD 0442f0000r			; 700
CONST	ENDS
;	COMDAT __real@43fa0000
CONST	SEGMENT
__real@43fa0000 DD 043fa0000r			; 500
CONST	ENDS
;	COMDAT __real@3f733333
CONST	SEGMENT
__real@3f733333 DD 03f733333r			; 0.95
CONST	ENDS
;	COMDAT __real@3e19999a
CONST	SEGMENT
__real@3e19999a DD 03e19999ar			; 0.15
CONST	ENDS
;	COMDAT __real@3c75c28f
CONST	SEGMENT
__real@3c75c28f DD 03c75c28fr			; 0.015
CONST	ENDS
;	COMDAT __real@c15bced9
CONST	SEGMENT
__real@c15bced9 DD 0c15bced9r			; -13.738
CONST	ENDS
;	COMDAT __real@41802f1b
CONST	SEGMENT
__real@41802f1b DD 041802f1br			; 16.023
CONST	ENDS
;	COMDAT __real@40e00000
CONST	SEGMENT
__real@40e00000 DD 040e00000r			; 7
CONST	ENDS
;	COMDAT __real@3fb8b439
CONST	SEGMENT
__real@3fb8b439 DD 03fb8b439r			; 1.443
CONST	ENDS
;	COMDAT __real@3ca3d70a
CONST	SEGMENT
__real@3ca3d70a DD 03ca3d70ar			; 0.02
CONST	ENDS
;	COMDAT __real@3fa00000
CONST	SEGMENT
__real@3fa00000 DD 03fa00000r			; 1.25
CONST	ENDS
;	COMDAT __real@3f4ccccd
CONST	SEGMENT
__real@3f4ccccd DD 03f4ccccdr			; 0.8
CONST	ENDS
;	COMDAT __real@40000000
CONST	SEGMENT
__real@40000000 DD 040000000r			; 2
CONST	ENDS
;	COMDAT __real@3eae147b
CONST	SEGMENT
__real@3eae147b DD 03eae147br			; 0.34
CONST	ENDS
;	COMDAT __real@00000000
CONST	SEGMENT
__real@00000000 DD 000000000r			; 0
CONST	ENDS
;	COMDAT ??_7CvGlobals@@6B@
CONST	SEGMENT
??_7CvGlobals@@6B@ DD FLAT:??_ECvGlobals@@UAEPAXI@Z	; CvGlobals::`vftable'
CONST	ENDS
;	COMDAT xdata$x
xdata$x	SEGMENT
__ehfuncinfo$??0CvGlobals@@QAE@XZ DD 019930522H
	DD	040H
	DD	FLAT:__unwindtable$??0CvGlobals@@QAE@XZ
	DD	2 DUP(00H)
	DD	2 DUP(00H)
	DD	00H
	DD	01H
__unwindtable$??0CvGlobals@@QAE@XZ DD 0ffffffffH
	DD	FLAT:__unwindfunclet$??0CvGlobals@@QAE@XZ$43
	DD	0ffffffffH
	DD	FLAT:__unwindfunclet$??0CvGlobals@@QAE@XZ$0
	DD	01H
	DD	FLAT:__unwindfunclet$??0CvGlobals@@QAE@XZ$1
	DD	02H
	DD	FLAT:__unwindfunclet$??0CvGlobals@@QAE@XZ$2
	DD	03H
	DD	FLAT:__unwindfunclet$??0CvGlobals@@QAE@XZ$3
	DD	04H
	DD	FLAT:__unwindfunclet$??0CvGlobals@@QAE@XZ$58
	DD	04H
	DD	FLAT:__unwindfunclet$??0CvGlobals@@QAE@XZ$4
	DD	06H
	DD	FLAT:__unwindfunclet$??0CvGlobals@@QAE@XZ$62
	DD	06H
	DD	FLAT:__unwindfunclet$??0CvGlobals@@QAE@XZ$5
	DD	08H
	DD	FLAT:__unwindfunclet$??0CvGlobals@@QAE@XZ$66
	DD	08H
	DD	FLAT:__unwindfunclet$??0CvGlobals@@QAE@XZ$6
	DD	0aH
	DD	FLAT:__unwindfunclet$??0CvGlobals@@QAE@XZ$70
	DD	0aH
	DD	FLAT:__unwindfunclet$??0CvGlobals@@QAE@XZ$7
	DD	0cH
	DD	FLAT:__unwindfunclet$??0CvGlobals@@QAE@XZ$74
	DD	0cH
	DD	FLAT:__unwindfunclet$??0CvGlobals@@QAE@XZ$8
	DD	0eH
	DD	FLAT:__unwindfunclet$??0CvGlobals@@QAE@XZ$78
	DD	0eH
	DD	FLAT:__unwindfunclet$??0CvGlobals@@QAE@XZ$9
	DD	010H
	DD	FLAT:__unwindfunclet$??0CvGlobals@@QAE@XZ$82
	DD	010H
	DD	FLAT:__unwindfunclet$??0CvGlobals@@QAE@XZ$10
	DD	012H
	DD	FLAT:__unwindfunclet$??0CvGlobals@@QAE@XZ$86
	DD	012H
	DD	FLAT:__unwindfunclet$??0CvGlobals@@QAE@XZ$11
	DD	014H
	DD	FLAT:__unwindfunclet$??0CvGlobals@@QAE@XZ$90
	DD	014H
	DD	FLAT:__unwindfunclet$??0CvGlobals@@QAE@XZ$12
	DD	016H
	DD	FLAT:__unwindfunclet$??0CvGlobals@@QAE@XZ$94
	DD	016H
	DD	FLAT:__unwindfunclet$??0CvGlobals@@QAE@XZ$13
	DD	018H
	DD	FLAT:__unwindfunclet$??0CvGlobals@@QAE@XZ$98
	DD	018H
	DD	FLAT:__unwindfunclet$??0CvGlobals@@QAE@XZ$14
	DD	01aH
	DD	FLAT:__unwindfunclet$??0CvGlobals@@QAE@XZ$102
	DD	01aH
	DD	FLAT:__unwindfunclet$??0CvGlobals@@QAE@XZ$15
	DD	01cH
	DD	FLAT:__unwindfunclet$??0CvGlobals@@QAE@XZ$106
	DD	01cH
	DD	FLAT:__unwindfunclet$??0CvGlobals@@QAE@XZ$16
	DD	01eH
	DD	FLAT:__unwindfunclet$??0CvGlobals@@QAE@XZ$110
	DD	01eH
	DD	FLAT:__unwindfunclet$??0CvGlobals@@QAE@XZ$17
	DD	020H
	DD	FLAT:__unwindfunclet$??0CvGlobals@@QAE@XZ$114
	DD	020H
	DD	FLAT:__unwindfunclet$??0CvGlobals@@QAE@XZ$18
	DD	022H
	DD	FLAT:__unwindfunclet$??0CvGlobals@@QAE@XZ$118
	DD	022H
	DD	FLAT:__unwindfunclet$??0CvGlobals@@QAE@XZ$19
	DD	024H
	DD	FLAT:__unwindfunclet$??0CvGlobals@@QAE@XZ$124
	DD	024H
	DD	FLAT:__unwindfunclet$??0CvGlobals@@QAE@XZ$20
	DD	026H
	DD	FLAT:__unwindfunclet$??0CvGlobals@@QAE@XZ$130
	DD	026H
	DD	FLAT:__unwindfunclet$??0CvGlobals@@QAE@XZ$21
	DD	028H
	DD	FLAT:__unwindfunclet$??0CvGlobals@@QAE@XZ$136
	DD	028H
	DD	FLAT:__unwindfunclet$??0CvGlobals@@QAE@XZ$22
	DD	02aH
	DD	FLAT:__unwindfunclet$??0CvGlobals@@QAE@XZ$142
	DD	02aH
	DD	FLAT:__unwindfunclet$??0CvGlobals@@QAE@XZ$23
	DD	02cH
	DD	FLAT:__unwindfunclet$??0CvGlobals@@QAE@XZ$148
	DD	02cH
	DD	FLAT:__unwindfunclet$??0CvGlobals@@QAE@XZ$24
	DD	02eH
	DD	FLAT:__unwindfunclet$??0CvGlobals@@QAE@XZ$25
	DD	02fH
	DD	FLAT:__unwindfunclet$??0CvGlobals@@QAE@XZ$26
	DD	030H
	DD	FLAT:__unwindfunclet$??0CvGlobals@@QAE@XZ$27
	DD	031H
	DD	FLAT:__unwindfunclet$??0CvGlobals@@QAE@XZ$28
	DD	032H
	DD	FLAT:__unwindfunclet$??0CvGlobals@@QAE@XZ$29
	DD	033H
	DD	FLAT:__unwindfunclet$??0CvGlobals@@QAE@XZ$30
	DD	034H
	DD	FLAT:__unwindfunclet$??0CvGlobals@@QAE@XZ$31
	DD	035H
	DD	FLAT:__unwindfunclet$??0CvGlobals@@QAE@XZ$32
	DD	036H
	DD	FLAT:__unwindfunclet$??0CvGlobals@@QAE@XZ$33
	DD	037H
	DD	FLAT:__unwindfunclet$??0CvGlobals@@QAE@XZ$34
	DD	038H
	DD	FLAT:__unwindfunclet$??0CvGlobals@@QAE@XZ$35
	DD	039H
	DD	FLAT:__unwindfunclet$??0CvGlobals@@QAE@XZ$36
	DD	03aH
	DD	FLAT:__unwindfunclet$??0CvGlobals@@QAE@XZ$37
	DD	03bH
	DD	FLAT:__unwindfunclet$??0CvGlobals@@QAE@XZ$38
	DD	03cH
	DD	FLAT:__unwindfunclet$??0CvGlobals@@QAE@XZ$39
	DD	03dH
	DD	FLAT:__unwindfunclet$??0CvGlobals@@QAE@XZ$40
	DD	03eH
	DD	FLAT:__unwindfunclet$??0CvGlobals@@QAE@XZ$41
; Function compile flags: /Odtp
; File d:\sources\lekmod_git\checkout\lekmod_dll\cvgamecoredll_expansion2\cvglobals.cpp
xdata$x	ENDS
;	COMDAT ??0CvGlobals@@QAE@XZ
_TEXT	SEGMENT
tv4362 = -2788						; size = 4
tv4441 = -2784						; size = 4
tv4258 = -2780						; size = 4
tv4337 = -2776						; size = 4
tv4154 = -2772						; size = 4
tv4233 = -2768						; size = 4
tv4018 = -2764						; size = 4
tv4129 = -2760						; size = 4
tv3914 = -2756						; size = 4
tv3993 = -2752						; size = 4
tv3833 = -2748						; size = 4
tv3889 = -2744						; size = 4
tv3717 = -2740						; size = 4
tv3805 = -2736						; size = 4
tv3633 = -2732						; size = 4
tv3689 = -2728						; size = 4
tv3549 = -2724						; size = 4
tv3605 = -2720						; size = 4
tv3465 = -2716						; size = 4
tv3521 = -2712						; size = 4
tv3349 = -2708						; size = 4
tv3437 = -2704						; size = 4
tv3265 = -2700						; size = 4
tv3321 = -2696						; size = 4
tv3181 = -2692						; size = 4
tv3237 = -2688						; size = 4
tv3065 = -2684						; size = 4
tv3153 = -2680						; size = 4
tv2981 = -2676						; size = 4
tv3037 = -2672						; size = 4
tv2897 = -2668						; size = 4
tv2953 = -2664						; size = 4
tv2813 = -2660						; size = 4
tv2869 = -2656						; size = 4
tv2697 = -2652						; size = 4
tv2785 = -2648						; size = 4
tv2613 = -2644						; size = 4
tv2669 = -2640						; size = 4
tv2529 = -2636						; size = 4
tv2585 = -2632						; size = 4
tv2346 = -2628						; size = 4
tv2501 = -2624						; size = 4
tv2163 = -2620						; size = 4
tv2188 = -2616						; size = 4
_this$ = -2612						; size = 4
$T255906 = -2608					; size = 4
$T255859 = -2530					; size = 1
$T255846 = -2529					; size = 1
$T255842 = -2528					; size = 4
$T255835 = -2520					; size = 4
$T255828 = -2512					; size = 4
$T255772 = -2418					; size = 1
$T255759 = -2417					; size = 1
$T255755 = -2416					; size = 4
$T255748 = -2408					; size = 4
$T255741 = -2400					; size = 4
$T255685 = -2306					; size = 1
$T255672 = -2305					; size = 1
$T255668 = -2304					; size = 4
$T255661 = -2296					; size = 4
$T255654 = -2288					; size = 4
$T255598 = -2194					; size = 1
$T255585 = -2193					; size = 1
$T255581 = -2192					; size = 4
$T255574 = -2184					; size = 4
$T255567 = -2176					; size = 4
$T255511 = -2082					; size = 1
$T255498 = -2081					; size = 1
$T255494 = -2080					; size = 4
$T255487 = -2072					; size = 4
$T255480 = -2064					; size = 4
$T255424 = -1970					; size = 1
$T255411 = -1969					; size = 1
$T255407 = -1968					; size = 4
$T255400 = -1960					; size = 4
$T255393 = -1952					; size = 4
$T255344 = -1858					; size = 1
$T255331 = -1857					; size = 1
$T255327 = -1856					; size = 4
$T255320 = -1848					; size = 4
$T255313 = -1840					; size = 4
$T255264 = -1746					; size = 1
$T255251 = -1745					; size = 1
$T255247 = -1744					; size = 4
$T255240 = -1736					; size = 4
$T255233 = -1728					; size = 4
$T255184 = -1634					; size = 1
$T255171 = -1633					; size = 1
$T255167 = -1632					; size = 4
$T255160 = -1624					; size = 4
$T255153 = -1616					; size = 4
$T255104 = -1522					; size = 1
$T255091 = -1521					; size = 1
$T255087 = -1520					; size = 4
$T255080 = -1512					; size = 4
$T255073 = -1504					; size = 4
$T255024 = -1410					; size = 1
$T255011 = -1409					; size = 1
$T255007 = -1408					; size = 4
$T255000 = -1400					; size = 4
$T254993 = -1392					; size = 4
$T254944 = -1298					; size = 1
$T254931 = -1297					; size = 1
$T254927 = -1296					; size = 4
$T254920 = -1288					; size = 4
$T254913 = -1280					; size = 4
$T254864 = -1186					; size = 1
$T254851 = -1185					; size = 1
$T254847 = -1184					; size = 4
$T254840 = -1176					; size = 4
$T254833 = -1168					; size = 4
$T254784 = -1074					; size = 1
$T254771 = -1073					; size = 1
$T254767 = -1072					; size = 4
$T254760 = -1064					; size = 4
$T254753 = -1056					; size = 4
$T254704 = -962						; size = 1
$T254691 = -961						; size = 1
$T254687 = -960						; size = 4
$T254680 = -952						; size = 4
$T254673 = -944						; size = 4
$T254624 = -850						; size = 1
$T254611 = -849						; size = 1
$T254607 = -848						; size = 4
$T254600 = -840						; size = 4
$T254593 = -832						; size = 4
$T254544 = -738						; size = 1
$T254531 = -737						; size = 1
$T254527 = -736						; size = 4
$T254520 = -728						; size = 4
$T254513 = -720						; size = 4
$T254464 = -626						; size = 1
$T254451 = -625						; size = 1
$T254447 = -624						; size = 4
$T254440 = -616						; size = 4
$T254433 = -608						; size = 4
$T254384 = -514						; size = 1
$T254371 = -513						; size = 1
$T254367 = -512						; size = 4
$T254360 = -504						; size = 4
$T254353 = -496						; size = 4
$T254304 = -402						; size = 1
$T254291 = -401						; size = 1
$T254287 = -400						; size = 4
$T254280 = -392						; size = 4
$T254273 = -384						; size = 4
$T254224 = -290						; size = 1
$T254211 = -289						; size = 1
$T254207 = -288						; size = 4
$T254200 = -280						; size = 4
$T254193 = -272						; size = 4
$T254189 = -234						; size = 1
$T254188 = -233						; size = 1
$T254100 = -232						; size = 4
$T254095 = -130						; size = 1
$T254094 = -129						; size = 1
$T253911 = -128						; size = 4
$T253861 = -34						; size = 1
$T253848 = -33						; size = 1
$T253844 = -32						; size = 4
$T253837 = -24						; size = 4
$T253830 = -16						; size = 4
__$EHRec$ = -12						; size = 12
??0CvGlobals@@QAE@XZ PROC				; CvGlobals::CvGlobals, COMDAT
; _this$ = ecx

; 1936 : {

	push	ebp
	mov	ebp, esp
	push	-1
	push	__ehhandler$??0CvGlobals@@QAE@XZ
	mov	eax, DWORD PTR fs:0
	push	eax
	sub	esp, 2776				; 00000ad8H
	mov	eax, DWORD PTR ___security_cookie
	xor	eax, ebp
	push	eax
	lea	eax, DWORD PTR __$EHRec$[ebp]
	mov	DWORD PTR fs:0, eax
	mov	DWORD PTR _this$[ebp], ecx
	mov	eax, DWORD PTR _this$[ebp]
	mov	DWORD PTR [eax], OFFSET ??_7CvGlobals@@6B@
	mov	ecx, DWORD PTR _this$[ebp]
	mov	BYTE PTR [ecx+4], 0
	mov	edx, DWORD PTR _this$[ebp]
	mov	BYTE PTR [edx+5], 0
	mov	eax, DWORD PTR _this$[ebp]
	mov	BYTE PTR [eax+6], 0
	mov	ecx, DWORD PTR _this$[ebp]
	mov	BYTE PTR [ecx+7], 0
	mov	edx, DWORD PTR _this$[ebp]
	mov	DWORD PTR [edx+8], 0
	mov	eax, DWORD PTR _this$[ebp]
	mov	BYTE PTR [eax+12], 0
	mov	ecx, DWORD PTR _this$[ebp]
	mov	BYTE PTR [ecx+13], 0
	mov	edx, DWORD PTR _this$[ebp]
	mov	BYTE PTR [edx+14], 0
	mov	eax, DWORD PTR _this$[ebp]
	mov	BYTE PTR [eax+15], 0
	mov	ecx, DWORD PTR _this$[ebp]
	mov	BYTE PTR [ecx+16], 0
	mov	edx, DWORD PTR _this$[ebp]
	mov	BYTE PTR [edx+17], 0
	mov	eax, DWORD PTR _this$[ebp]
	mov	BYTE PTR [eax+18], 0
	mov	ecx, DWORD PTR _this$[ebp]
	mov	BYTE PTR [ecx+19], 0
	mov	edx, DWORD PTR _this$[ebp]
	mov	BYTE PTR [edx+20], 0
	mov	eax, DWORD PTR _this$[ebp]
	mov	BYTE PTR [eax+21], 0
	mov	ecx, DWORD PTR _this$[ebp]
	mov	BYTE PTR [ecx+22], 0
	mov	edx, DWORD PTR _this$[ebp]
	mov	BYTE PTR [edx+23], 0
	mov	eax, DWORD PTR _this$[ebp]
	add	eax, 24					; 00000018H
	mov	DWORD PTR $T253830[ebp], eax
	mov	ecx, DWORD PTR $T253830[ebp]
	movss	xmm0, DWORD PTR __real@00000000
	movss	DWORD PTR [ecx], xmm0
	mov	edx, DWORD PTR $T253830[ebp]
	movss	xmm0, DWORD PTR __real@00000000
	movss	DWORD PTR [edx+4], xmm0
	mov	eax, DWORD PTR $T253830[ebp]
	movss	xmm0, DWORD PTR __real@00000000
	movss	DWORD PTR [eax+8], xmm0
	mov	ecx, DWORD PTR _this$[ebp]
	mov	DWORD PTR [ecx+36], 0
	mov	edx, DWORD PTR _this$[ebp]
	mov	BYTE PTR [edx+40], 0
	mov	eax, DWORD PTR _this$[ebp]
	mov	BYTE PTR [eax+41], 0
	mov	ecx, DWORD PTR _this$[ebp]
	mov	BYTE PTR [ecx+42], 0
	mov	edx, DWORD PTR _this$[ebp]
	mov	DWORD PTR [edx+44], 0
	mov	eax, DWORD PTR _this$[ebp]
	mov	DWORD PTR [eax+48], 0
	mov	ecx, DWORD PTR _this$[ebp]
	mov	DWORD PTR [ecx+52], 0
	mov	edx, DWORD PTR _this$[ebp]
	mov	DWORD PTR [edx+56], 0
	mov	eax, DWORD PTR _this$[ebp]
	mov	DWORD PTR [eax+60], 0
	mov	ecx, DWORD PTR _this$[ebp]
	mov	DWORD PTR [ecx+64], 0
	mov	edx, DWORD PTR _this$[ebp]
	mov	DWORD PTR [edx+68], 0
	mov	eax, DWORD PTR _this$[ebp]
	mov	DWORD PTR [eax+72], 0
	mov	ecx, DWORD PTR _this$[ebp]
	mov	DWORD PTR [ecx+76], 0
	mov	edx, DWORD PTR _this$[ebp]
	mov	DWORD PTR [edx+84], 0
	mov	eax, DWORD PTR _this$[ebp]
	mov	DWORD PTR [eax+88], 0
	mov	ecx, DWORD PTR _this$[ebp]
	mov	DWORD PTR [ecx+92], 0
	mov	edx, DWORD PTR _this$[ebp]
	mov	DWORD PTR [edx+96], 0
	mov	eax, DWORD PTR _this$[ebp]
	mov	DWORD PTR [eax+100], 0
	mov	ecx, DWORD PTR _this$[ebp]
	mov	DWORD PTR [ecx+104], 0
	mov	edx, DWORD PTR _this$[ebp]
	add	edx, 896				; 00000380H
	mov	DWORD PTR $T253911[ebp], edx
	lea	eax, DWORD PTR $T253861[ebp]
	mov	DWORD PTR $T253837[ebp], eax
	lea	ecx, DWORD PTR $T253848[ebp]
	mov	DWORD PTR $T253844[ebp], ecx
	mov	edx, DWORD PTR $T253911[ebp]
	mov	DWORD PTR tv2188[ebp], edx
	mov	eax, DWORD PTR $T253911[ebp]
	mov	DWORD PTR tv2163[ebp], eax
	mov	DWORD PTR __$EHRec$[ebp+8], 0
	push	0
	mov	ecx, DWORD PTR $T253911[ebp]
	call	?_Buy@?$vector@PAVCvInterfaceModeInfo@@V?$allocator@PAVCvInterfaceModeInfo@@@std@@@std@@IAE_NI@Z ; std::vector<CvInterfaceModeInfo *,std::allocator<CvInterfaceModeInfo *> >::_Buy
	mov	DWORD PTR __$EHRec$[ebp+8], 1
	mov	ecx, DWORD PTR _this$[ebp]
	mov	DWORD PTR [ecx+912], 0
	push	0
	mov	ecx, DWORD PTR _this$[ebp]
	add	ecx, 916				; 00000394H
	call	DWORD PTR __imp_??0Results@Database@@QAE@PBD@Z
	mov	BYTE PTR __$EHRec$[ebp+8], 2
	mov	edx, DWORD PTR _this$[ebp]
	add	edx, 980				; 000003d4H
	mov	DWORD PTR $T254100[ebp], edx
	lea	eax, DWORD PTR $T254094[ebp]
	push	eax
	lea	ecx, DWORD PTR $T254095[ebp]
	push	ecx
	mov	ecx, DWORD PTR $T254100[ebp]
	call	??0?$_Hash@V?$_Hmap_traits@V?$basic_string@DU?$char_traits@D@std@@V?$allocator@D@2@@std@@HV?$hash_compare@V?$basic_string@DU?$char_traits@D@std@@V?$allocator@D@2@@std@@U?$less@V?$basic_string@DU?$char_traits@D@std@@V?$allocator@D@2@@std@@@2@@stdext@@V?$allocator@U?$pair@$$CBV?$basic_string@DU?$char_traits@D@std@@V?$allocator@D@2@@std@@H@std@@@2@$0A@@stdext@@@stdext@@QAE@ABV?$hash_compare@V?$basic_string@DU?$char_traits@D@std@@V?$allocator@D@2@@std@@U?$less@V?$basic_string@DU?$char_traits@D@std@@V?$allocator@D@2@@std@@@2@@1@ABV?$allocator@U?$pair@$$CBV?$basic_string@DU?$char_traits@D@std@@V?$allocator@D@2@@std@@H@std@@@std@@@Z ; stdext::_Hash<stdext::_Hmap_traits<std::basic_string<char,std::char_traits<char>,std::allocator<char> >,int,stdext::hash_compare<std::basic_string<char,std::char_traits<char>,std::allocator<char> >,std::less<std::basic_string<char,std::char_traits<char>,std::allocator<char> > > >,std::allocator<std::pair<std::basic_string<char,std::char_traits<char>,std::allocator<char> > const ,int> >,0> >::_Hash<stdext::_Hmap_traits<std::basic_string<char,std::char_traits<char>,std::allocator<char> >,int,stdext::hash_compare<std::basic_string<char,std::char_traits<char>,std::allocator<char> >,std::less<std::basic_string<char,std::char_traits<char>,std::allocator<char> > > >,std::allocator<std::pair<std::basic_string<char,std::char_traits<char>,std::allocator<char> > const ,int> >,0> >
	mov	BYTE PTR __$EHRec$[ebp+8], 3
	mov	edx, DWORD PTR _this$[ebp]
	add	edx, 1024				; 00000400H
	mov	DWORD PTR $T254193[ebp], edx
	lea	eax, DWORD PTR $T254188[ebp]
	push	eax
	lea	ecx, DWORD PTR $T254189[ebp]
	push	ecx
	mov	ecx, DWORD PTR $T254193[ebp]
	call	??0?$_Tree@V?$_Tmap_traits@IHU?$less@I@std@@V?$allocator@U?$pair@$$CBIH@std@@@2@$0A@@std@@@std@@QAE@ABU?$less@I@1@ABV?$allocator@U?$pair@$$CBIH@std@@@1@@Z ; std::_Tree<std::_Tmap_traits<unsigned int,int,std::less<unsigned int>,std::allocator<std::pair<unsigned int const ,int> >,0> >::_Tree<std::_Tmap_traits<unsigned int,int,std::less<unsigned int>,std::allocator<std::pair<unsigned int const ,int> >,0> >
	mov	BYTE PTR __$EHRec$[ebp+8], 4
	mov	edx, DWORD PTR _this$[ebp]
	add	edx, 1036				; 0000040cH
	mov	DWORD PTR $T254273[ebp], edx
	lea	eax, DWORD PTR $T254224[ebp]
	mov	DWORD PTR $T254200[ebp], eax
	lea	ecx, DWORD PTR $T254211[ebp]
	mov	DWORD PTR $T254207[ebp], ecx
	mov	edx, DWORD PTR $T254273[ebp]
	mov	DWORD PTR tv2501[ebp], edx
	mov	eax, DWORD PTR $T254273[ebp]
	mov	DWORD PTR tv2346[ebp], eax
	mov	BYTE PTR __$EHRec$[ebp+8], 5
	push	0
	mov	ecx, DWORD PTR $T254273[ebp]
	call	?_Buy@?$vector@PAVCvColorInfo@@V?$allocator@PAVCvColorInfo@@@std@@@std@@IAE_NI@Z ; std::vector<CvColorInfo *,std::allocator<CvColorInfo *> >::_Buy
	mov	BYTE PTR __$EHRec$[ebp+8], 6
	mov	ecx, DWORD PTR _this$[ebp]
	add	ecx, 1052				; 0000041cH
	mov	DWORD PTR $T254353[ebp], ecx
	lea	edx, DWORD PTR $T254304[ebp]
	mov	DWORD PTR $T254280[ebp], edx
	lea	eax, DWORD PTR $T254291[ebp]
	mov	DWORD PTR $T254287[ebp], eax
	mov	ecx, DWORD PTR $T254353[ebp]
	mov	DWORD PTR tv2585[ebp], ecx
	mov	edx, DWORD PTR $T254353[ebp]
	mov	DWORD PTR tv2529[ebp], edx
	mov	BYTE PTR __$EHRec$[ebp+8], 7
	push	0
	mov	ecx, DWORD PTR $T254353[ebp]
	call	?_Buy@?$vector@PAVCvPlayerColorInfo@@V?$allocator@PAVCvPlayerColorInfo@@@std@@@std@@IAE_NI@Z ; std::vector<CvPlayerColorInfo *,std::allocator<CvPlayerColorInfo *> >::_Buy
	mov	BYTE PTR __$EHRec$[ebp+8], 8
	mov	eax, DWORD PTR _this$[ebp]
	add	eax, 1068				; 0000042cH
	mov	DWORD PTR $T254433[ebp], eax
	lea	ecx, DWORD PTR $T254384[ebp]
	mov	DWORD PTR $T254360[ebp], ecx
	lea	edx, DWORD PTR $T254371[ebp]
	mov	DWORD PTR $T254367[ebp], edx
	mov	eax, DWORD PTR $T254433[ebp]
	mov	DWORD PTR tv2669[ebp], eax
	mov	ecx, DWORD PTR $T254433[ebp]
	mov	DWORD PTR tv2613[ebp], ecx
	mov	BYTE PTR __$EHRec$[ebp+8], 9
	push	0
	mov	ecx, DWORD PTR $T254433[ebp]
	call	?_Buy@?$vector@PAVCvTerrainInfo@@V?$allocator@PAVCvTerrainInfo@@@std@@@std@@IAE_NI@Z ; std::vector<CvTerrainInfo *,std::allocator<CvTerrainInfo *> >::_Buy
	mov	BYTE PTR __$EHRec$[ebp+8], 10		; 0000000aH
	mov	edx, DWORD PTR _this$[ebp]
	add	edx, 1084				; 0000043cH
	mov	DWORD PTR $T254513[ebp], edx
	lea	eax, DWORD PTR $T254464[ebp]
	mov	DWORD PTR $T254440[ebp], eax
	lea	ecx, DWORD PTR $T254451[ebp]
	mov	DWORD PTR $T254447[ebp], ecx
	mov	edx, DWORD PTR $T254513[ebp]
	mov	DWORD PTR tv2785[ebp], edx
	mov	eax, DWORD PTR $T254513[ebp]
	mov	DWORD PTR tv2697[ebp], eax
	mov	BYTE PTR __$EHRec$[ebp+8], 11		; 0000000bH
	push	0
	mov	ecx, DWORD PTR $T254513[ebp]
	call	?_Buy@?$vector@PAVCvYieldInfo@@V?$allocator@PAVCvYieldInfo@@@std@@@std@@IAE_NI@Z ; std::vector<CvYieldInfo *,std::allocator<CvYieldInfo *> >::_Buy
	mov	BYTE PTR __$EHRec$[ebp+8], 12		; 0000000cH
	mov	ecx, DWORD PTR _this$[ebp]
	add	ecx, 1100				; 0000044cH
	mov	DWORD PTR $T254593[ebp], ecx
	lea	edx, DWORD PTR $T254544[ebp]
	mov	DWORD PTR $T254520[ebp], edx
	lea	eax, DWORD PTR $T254531[ebp]
	mov	DWORD PTR $T254527[ebp], eax
	mov	ecx, DWORD PTR $T254593[ebp]
	mov	DWORD PTR tv2869[ebp], ecx
	mov	edx, DWORD PTR $T254593[ebp]
	mov	DWORD PTR tv2813[ebp], edx
	mov	BYTE PTR __$EHRec$[ebp+8], 13		; 0000000dH
	push	0
	mov	ecx, DWORD PTR $T254593[ebp]
	call	?_Buy@?$vector@PAVCvRouteInfo@@V?$allocator@PAVCvRouteInfo@@@std@@@std@@IAE_NI@Z ; std::vector<CvRouteInfo *,std::allocator<CvRouteInfo *> >::_Buy
	mov	BYTE PTR __$EHRec$[ebp+8], 14		; 0000000eH
	mov	eax, DWORD PTR _this$[ebp]
	add	eax, 1116				; 0000045cH
	mov	DWORD PTR $T254673[ebp], eax
	lea	ecx, DWORD PTR $T254624[ebp]
	mov	DWORD PTR $T254600[ebp], ecx
	lea	edx, DWORD PTR $T254611[ebp]
	mov	DWORD PTR $T254607[ebp], edx
	mov	eax, DWORD PTR $T254673[ebp]
	mov	DWORD PTR tv2953[ebp], eax
	mov	ecx, DWORD PTR $T254673[ebp]
	mov	DWORD PTR tv2897[ebp], ecx
	mov	BYTE PTR __$EHRec$[ebp+8], 15		; 0000000fH
	push	0
	mov	ecx, DWORD PTR $T254673[ebp]
	call	?_Buy@?$vector@PAVCvFeatureInfo@@V?$allocator@PAVCvFeatureInfo@@@std@@@std@@IAE_NI@Z ; std::vector<CvFeatureInfo *,std::allocator<CvFeatureInfo *> >::_Buy
	mov	BYTE PTR __$EHRec$[ebp+8], 16		; 00000010H
	mov	edx, DWORD PTR _this$[ebp]
	add	edx, 1132				; 0000046cH
	mov	DWORD PTR $T254753[ebp], edx
	lea	eax, DWORD PTR $T254704[ebp]
	mov	DWORD PTR $T254680[ebp], eax
	lea	ecx, DWORD PTR $T254691[ebp]
	mov	DWORD PTR $T254687[ebp], ecx
	mov	edx, DWORD PTR $T254753[ebp]
	mov	DWORD PTR tv3037[ebp], edx
	mov	eax, DWORD PTR $T254753[ebp]
	mov	DWORD PTR tv2981[ebp], eax
	mov	BYTE PTR __$EHRec$[ebp+8], 17		; 00000011H
	push	0
	mov	ecx, DWORD PTR $T254753[ebp]
	call	?_Buy@?$vector@PAVCvResourceClassInfo@@V?$allocator@PAVCvResourceClassInfo@@@std@@@std@@IAE_NI@Z ; std::vector<CvResourceClassInfo *,std::allocator<CvResourceClassInfo *> >::_Buy
	mov	BYTE PTR __$EHRec$[ebp+8], 18		; 00000012H
	mov	ecx, DWORD PTR _this$[ebp]
	add	ecx, 1148				; 0000047cH
	mov	DWORD PTR $T254833[ebp], ecx
	lea	edx, DWORD PTR $T254784[ebp]
	mov	DWORD PTR $T254760[ebp], edx
	lea	eax, DWORD PTR $T254771[ebp]
	mov	DWORD PTR $T254767[ebp], eax
	mov	ecx, DWORD PTR $T254833[ebp]
	mov	DWORD PTR tv3153[ebp], ecx
	mov	edx, DWORD PTR $T254833[ebp]
	mov	DWORD PTR tv3065[ebp], edx
	mov	BYTE PTR __$EHRec$[ebp+8], 19		; 00000013H
	push	0
	mov	ecx, DWORD PTR $T254833[ebp]
	call	?_Buy@?$vector@PAVCvResourceInfo@@V?$allocator@PAVCvResourceInfo@@@std@@@std@@IAE_NI@Z ; std::vector<CvResourceInfo *,std::allocator<CvResourceInfo *> >::_Buy
	mov	BYTE PTR __$EHRec$[ebp+8], 20		; 00000014H
	mov	eax, DWORD PTR _this$[ebp]
	add	eax, 1164				; 0000048cH
	mov	DWORD PTR $T254913[ebp], eax
	lea	ecx, DWORD PTR $T254864[ebp]
	mov	DWORD PTR $T254840[ebp], ecx
	lea	edx, DWORD PTR $T254851[ebp]
	mov	DWORD PTR $T254847[ebp], edx
	mov	eax, DWORD PTR $T254913[ebp]
	mov	DWORD PTR tv3237[ebp], eax
	mov	ecx, DWORD PTR $T254913[ebp]
	mov	DWORD PTR tv3181[ebp], ecx
	mov	BYTE PTR __$EHRec$[ebp+8], 21		; 00000015H
	push	0
	mov	ecx, DWORD PTR $T254913[ebp]
	call	?_Buy@?$vector@PAVCvBuildInfo@@V?$allocator@PAVCvBuildInfo@@@std@@@std@@IAE_NI@Z ; std::vector<CvBuildInfo *,std::allocator<CvBuildInfo *> >::_Buy
	mov	BYTE PTR __$EHRec$[ebp+8], 22		; 00000016H
	mov	edx, DWORD PTR _this$[ebp]
	add	edx, 1180				; 0000049cH
	mov	DWORD PTR $T254993[ebp], edx
	lea	eax, DWORD PTR $T254944[ebp]
	mov	DWORD PTR $T254920[ebp], eax
	lea	ecx, DWORD PTR $T254931[ebp]
	mov	DWORD PTR $T254927[ebp], ecx
	mov	edx, DWORD PTR $T254993[ebp]
	mov	DWORD PTR tv3321[ebp], edx
	mov	eax, DWORD PTR $T254993[ebp]
	mov	DWORD PTR tv3265[ebp], eax
	mov	BYTE PTR __$EHRec$[ebp+8], 23		; 00000017H
	push	0
	mov	ecx, DWORD PTR $T254993[ebp]
	call	?_Buy@?$vector@PAVCvHandicapInfo@@V?$allocator@PAVCvHandicapInfo@@@std@@@std@@IAE_NI@Z ; std::vector<CvHandicapInfo *,std::allocator<CvHandicapInfo *> >::_Buy
	mov	BYTE PTR __$EHRec$[ebp+8], 24		; 00000018H
	mov	ecx, DWORD PTR _this$[ebp]
	add	ecx, 1196				; 000004acH
	mov	DWORD PTR $T255073[ebp], ecx
	lea	edx, DWORD PTR $T255024[ebp]
	mov	DWORD PTR $T255000[ebp], edx
	lea	eax, DWORD PTR $T255011[ebp]
	mov	DWORD PTR $T255007[ebp], eax
	mov	ecx, DWORD PTR $T255073[ebp]
	mov	DWORD PTR tv3437[ebp], ecx
	mov	edx, DWORD PTR $T255073[ebp]
	mov	DWORD PTR tv3349[ebp], edx
	mov	BYTE PTR __$EHRec$[ebp+8], 25		; 00000019H
	push	0
	mov	ecx, DWORD PTR $T255073[ebp]
	call	?_Buy@?$vector@PAVCvGameSpeedInfo@@V?$allocator@PAVCvGameSpeedInfo@@@std@@@std@@IAE_NI@Z ; std::vector<CvGameSpeedInfo *,std::allocator<CvGameSpeedInfo *> >::_Buy
	mov	BYTE PTR __$EHRec$[ebp+8], 26		; 0000001aH
	mov	eax, DWORD PTR _this$[ebp]
	add	eax, 1212				; 000004bcH
	mov	DWORD PTR $T255153[ebp], eax
	lea	ecx, DWORD PTR $T255104[ebp]
	mov	DWORD PTR $T255080[ebp], ecx
	lea	edx, DWORD PTR $T255091[ebp]
	mov	DWORD PTR $T255087[ebp], edx
	mov	eax, DWORD PTR $T255153[ebp]
	mov	DWORD PTR tv3521[ebp], eax
	mov	ecx, DWORD PTR $T255153[ebp]
	mov	DWORD PTR tv3465[ebp], ecx
	mov	BYTE PTR __$EHRec$[ebp+8], 27		; 0000001bH
	push	0
	mov	ecx, DWORD PTR $T255153[ebp]
	call	?_Buy@?$vector@PAVCvTurnTimerInfo@@V?$allocator@PAVCvTurnTimerInfo@@@std@@@std@@IAE_NI@Z ; std::vector<CvTurnTimerInfo *,std::allocator<CvTurnTimerInfo *> >::_Buy
	mov	BYTE PTR __$EHRec$[ebp+8], 28		; 0000001cH
	mov	edx, DWORD PTR _this$[ebp]
	add	edx, 1228				; 000004ccH
	mov	DWORD PTR $T255233[ebp], edx
	lea	eax, DWORD PTR $T255184[ebp]
	mov	DWORD PTR $T255160[ebp], eax
	lea	ecx, DWORD PTR $T255171[ebp]
	mov	DWORD PTR $T255167[ebp], ecx
	mov	edx, DWORD PTR $T255233[ebp]
	mov	DWORD PTR tv3605[ebp], edx
	mov	eax, DWORD PTR $T255233[ebp]
	mov	DWORD PTR tv3549[ebp], eax
	mov	BYTE PTR __$EHRec$[ebp+8], 29		; 0000001dH
	push	0
	mov	ecx, DWORD PTR $T255233[ebp]
	call	?_Buy@?$vector@PAVCvCivilizationInfo@@V?$allocator@PAVCvCivilizationInfo@@@std@@@std@@IAE_NI@Z ; std::vector<CvCivilizationInfo *,std::allocator<CvCivilizationInfo *> >::_Buy
	mov	BYTE PTR __$EHRec$[ebp+8], 30		; 0000001eH
	mov	ecx, DWORD PTR _this$[ebp]
	add	ecx, 1252				; 000004e4H
	mov	DWORD PTR $T255313[ebp], ecx
	lea	edx, DWORD PTR $T255264[ebp]
	mov	DWORD PTR $T255240[ebp], edx
	lea	eax, DWORD PTR $T255251[ebp]
	mov	DWORD PTR $T255247[ebp], eax
	mov	ecx, DWORD PTR $T255313[ebp]
	mov	DWORD PTR tv3689[ebp], ecx
	mov	edx, DWORD PTR $T255313[ebp]
	mov	DWORD PTR tv3633[ebp], edx
	mov	BYTE PTR __$EHRec$[ebp+8], 31		; 0000001fH
	push	0
	mov	ecx, DWORD PTR $T255313[ebp]
	call	?_Buy@?$vector@PAVCvMinorCivInfo@@V?$allocator@PAVCvMinorCivInfo@@@std@@@std@@IAE_NI@Z ; std::vector<CvMinorCivInfo *,std::allocator<CvMinorCivInfo *> >::_Buy
	mov	BYTE PTR __$EHRec$[ebp+8], 32		; 00000020H
	mov	eax, DWORD PTR _this$[ebp]
	add	eax, 1268				; 000004f4H
	mov	DWORD PTR $T255393[ebp], eax
	lea	ecx, DWORD PTR $T255344[ebp]
	mov	DWORD PTR $T255320[ebp], ecx
	lea	edx, DWORD PTR $T255331[ebp]
	mov	DWORD PTR $T255327[ebp], edx
	mov	eax, DWORD PTR $T255393[ebp]
	mov	DWORD PTR tv3805[ebp], eax
	mov	ecx, DWORD PTR $T255393[ebp]
	mov	DWORD PTR tv3717[ebp], ecx
	mov	BYTE PTR __$EHRec$[ebp+8], 33		; 00000021H
	push	0
	mov	ecx, DWORD PTR $T255393[ebp]
	call	?_Buy@?$vector@PAVCvLeaderHeadInfo@@V?$allocator@PAVCvLeaderHeadInfo@@@std@@@std@@IAE_NI@Z ; std::vector<CvLeaderHeadInfo *,std::allocator<CvLeaderHeadInfo *> >::_Buy
	mov	BYTE PTR __$EHRec$[ebp+8], 34		; 00000022H
	mov	edx, DWORD PTR _this$[ebp]
	add	edx, 1284				; 00000504H
	mov	DWORD PTR $T255480[ebp], edx
	lea	eax, DWORD PTR $T255424[ebp]
	mov	DWORD PTR $T255400[ebp], eax
	lea	ecx, DWORD PTR $T255411[ebp]
	mov	DWORD PTR $T255407[ebp], ecx
	mov	edx, DWORD PTR $T255480[ebp]
	mov	DWORD PTR tv3889[ebp], edx
	mov	eax, DWORD PTR $T255480[ebp]
	mov	DWORD PTR tv3833[ebp], eax
	mov	BYTE PTR __$EHRec$[ebp+8], 35		; 00000023H
	push	0
	mov	ecx, DWORD PTR $T255480[ebp]
	call	?_Buy@?$vector@PAVCvProcessInfo@@V?$allocator@PAVCvProcessInfo@@@std@@@std@@IAE_NI@Z ; std::vector<CvProcessInfo *,std::allocator<CvProcessInfo *> >::_Buy
	mov	BYTE PTR __$EHRec$[ebp+8], 36		; 00000024H
	mov	ecx, DWORD PTR _this$[ebp]
	add	ecx, 1300				; 00000514H
	mov	DWORD PTR $T255567[ebp], ecx
	lea	edx, DWORD PTR $T255511[ebp]
	mov	DWORD PTR $T255487[ebp], edx
	lea	eax, DWORD PTR $T255498[ebp]
	mov	DWORD PTR $T255494[ebp], eax
	mov	ecx, DWORD PTR $T255567[ebp]
	mov	DWORD PTR tv3993[ebp], ecx
	mov	edx, DWORD PTR $T255567[ebp]
	mov	DWORD PTR tv3914[ebp], edx
	mov	BYTE PTR __$EHRec$[ebp+8], 37		; 00000025H
	push	0
	mov	ecx, DWORD PTR $T255567[ebp]
	call	?_Buy@?$vector@PAVCvVoteInfo@@V?$allocator@PAVCvVoteInfo@@@std@@@std@@IAE_NI@Z ; std::vector<CvVoteInfo *,std::allocator<CvVoteInfo *> >::_Buy
	mov	BYTE PTR __$EHRec$[ebp+8], 38		; 00000026H
	mov	eax, DWORD PTR _this$[ebp]
	add	eax, 1316				; 00000524H
	mov	DWORD PTR $T255654[ebp], eax
	lea	ecx, DWORD PTR $T255598[ebp]
	mov	DWORD PTR $T255574[ebp], ecx
	lea	edx, DWORD PTR $T255585[ebp]
	mov	DWORD PTR $T255581[ebp], edx
	mov	eax, DWORD PTR $T255654[ebp]
	mov	DWORD PTR tv4129[ebp], eax
	mov	ecx, DWORD PTR $T255654[ebp]
	mov	DWORD PTR tv4018[ebp], ecx
	mov	BYTE PTR __$EHRec$[ebp+8], 39		; 00000027H
	push	0
	mov	ecx, DWORD PTR $T255654[ebp]
	call	?_Buy@?$vector@PAVCvBuildingClassInfo@@V?$allocator@PAVCvBuildingClassInfo@@@std@@@std@@IAE_NI@Z ; std::vector<CvBuildingClassInfo *,std::allocator<CvBuildingClassInfo *> >::_Buy
	mov	BYTE PTR __$EHRec$[ebp+8], 40		; 00000028H
	mov	edx, DWORD PTR _this$[ebp]
	add	edx, 1332				; 00000534H
	mov	DWORD PTR $T255741[ebp], edx
	lea	eax, DWORD PTR $T255685[ebp]
	mov	DWORD PTR $T255661[ebp], eax
	lea	ecx, DWORD PTR $T255672[ebp]
	mov	DWORD PTR $T255668[ebp], ecx
	mov	edx, DWORD PTR $T255741[ebp]
	mov	DWORD PTR tv4233[ebp], edx
	mov	eax, DWORD PTR $T255741[ebp]
	mov	DWORD PTR tv4154[ebp], eax
	mov	BYTE PTR __$EHRec$[ebp+8], 41		; 00000029H
	push	0
	mov	ecx, DWORD PTR $T255741[ebp]
	call	?_Buy@?$vector@PAVCvUnitClassInfo@@V?$allocator@PAVCvUnitClassInfo@@@std@@@std@@IAE_NI@Z ; std::vector<CvUnitClassInfo *,std::allocator<CvUnitClassInfo *> >::_Buy
	mov	BYTE PTR __$EHRec$[ebp+8], 42		; 0000002aH
	mov	ecx, DWORD PTR _this$[ebp]
	add	ecx, 1348				; 00000544H
	mov	DWORD PTR $T255828[ebp], ecx
	lea	edx, DWORD PTR $T255772[ebp]
	mov	DWORD PTR $T255748[ebp], edx
	lea	eax, DWORD PTR $T255759[ebp]
	mov	DWORD PTR $T255755[ebp], eax
	mov	ecx, DWORD PTR $T255828[ebp]
	mov	DWORD PTR tv4337[ebp], ecx
	mov	edx, DWORD PTR $T255828[ebp]
	mov	DWORD PTR tv4258[ebp], edx
	mov	BYTE PTR __$EHRec$[ebp+8], 43		; 0000002bH
	push	0
	mov	ecx, DWORD PTR $T255828[ebp]
	call	?_Buy@?$vector@PAVCvSpecialUnitInfo@@V?$allocator@PAVCvSpecialUnitInfo@@@std@@@std@@IAE_NI@Z ; std::vector<CvSpecialUnitInfo *,std::allocator<CvSpecialUnitInfo *> >::_Buy
	mov	BYTE PTR __$EHRec$[ebp+8], 44		; 0000002cH
	mov	eax, DWORD PTR _this$[ebp]
	add	eax, 1364				; 00000554H
	mov	DWORD PTR $T255906[ebp], eax
	lea	ecx, DWORD PTR $T255859[ebp]
	mov	DWORD PTR $T255835[ebp], ecx
	lea	edx, DWORD PTR $T255846[ebp]
	mov	DWORD PTR $T255842[ebp], edx
	mov	eax, DWORD PTR $T255906[ebp]
	mov	DWORD PTR tv4441[ebp], eax
	mov	ecx, DWORD PTR $T255906[ebp]
	mov	DWORD PTR tv4362[ebp], ecx
	mov	BYTE PTR __$EHRec$[ebp+8], 45		; 0000002dH
	push	0
	mov	ecx, DWORD PTR $T255906[ebp]
	call	?_Buy@?$vector@PAVCvVoteSourceInfo@@V?$allocator@PAVCvVoteSourceInfo@@@std@@@std@@IAE_NI@Z ; std::vector<CvVoteSourceInfo *,std::allocator<CvVoteSourceInfo *> >::_Buy
	mov	BYTE PTR __$EHRec$[ebp+8], 46		; 0000002eH
	mov	ecx, DWORD PTR _this$[ebp]
	add	ecx, 1380				; 00000564H
	call	??0?$vector@PAVCvBaseInfo@@V?$allocator@PAVCvBaseInfo@@@std@@@std@@QAE@XZ ; std::vector<CvBaseInfo *,std::allocator<CvBaseInfo *> >::vector<CvBaseInfo *,std::allocator<CvBaseInfo *> >
	mov	BYTE PTR __$EHRec$[ebp+8], 47		; 0000002fH
	mov	ecx, DWORD PTR _this$[ebp]
	add	ecx, 1396				; 00000574H
	call	??0?$vector@PAVCvBaseInfo@@V?$allocator@PAVCvBaseInfo@@@std@@@std@@QAE@XZ ; std::vector<CvBaseInfo *,std::allocator<CvBaseInfo *> >::vector<CvBaseInfo *,std::allocator<CvBaseInfo *> >
	mov	BYTE PTR __$EHRec$[ebp+8], 48		; 00000030H
	mov	ecx, DWORD PTR _this$[ebp]
	add	ecx, 1412				; 00000584H
	call	??0?$vector@PAVCvGameOptionInfo@@V?$allocator@PAVCvGameOptionInfo@@@std@@@std@@QAE@XZ ; std::vector<CvGameOptionInfo *,std::allocator<CvGameOptionInfo *> >::vector<CvGameOptionInfo *,std::allocator<CvGameOptionInfo *> >
	mov	BYTE PTR __$EHRec$[ebp+8], 49		; 00000031H
	mov	ecx, DWORD PTR _this$[ebp]
	add	ecx, 1428				; 00000594H
	call	??0?$vector@PAVCvMPOptionInfo@@V?$allocator@PAVCvMPOptionInfo@@@std@@@std@@QAE@XZ ; std::vector<CvMPOptionInfo *,std::allocator<CvMPOptionInfo *> >::vector<CvMPOptionInfo *,std::allocator<CvMPOptionInfo *> >
	mov	BYTE PTR __$EHRec$[ebp+8], 50		; 00000032H
	mov	ecx, DWORD PTR _this$[ebp]
	add	ecx, 1444				; 000005a4H
	call	??0?$vector@PAVCvPlayerOptionInfo@@V?$allocator@PAVCvPlayerOptionInfo@@@std@@@std@@QAE@XZ ; std::vector<CvPlayerOptionInfo *,std::allocator<CvPlayerOptionInfo *> >::vector<CvPlayerOptionInfo *,std::allocator<CvPlayerOptionInfo *> >
	mov	BYTE PTR __$EHRec$[ebp+8], 51		; 00000033H
	mov	ecx, DWORD PTR _this$[ebp]
	add	ecx, 1460				; 000005b4H
	call	??0?$vector@PAVCvSpecialistInfo@@V?$allocator@PAVCvSpecialistInfo@@@std@@@std@@QAE@XZ ; std::vector<CvSpecialistInfo *,std::allocator<CvSpecialistInfo *> >::vector<CvSpecialistInfo *,std::allocator<CvSpecialistInfo *> >
	mov	BYTE PTR __$EHRec$[ebp+8], 52		; 00000034H
	mov	ecx, DWORD PTR _this$[ebp]
	add	ecx, 1476				; 000005c4H
	call	??0?$vector@PAVCvActionInfo@@V?$allocator@PAVCvActionInfo@@@std@@@std@@QAE@XZ ; std::vector<CvActionInfo *,std::allocator<CvActionInfo *> >::vector<CvActionInfo *,std::allocator<CvActionInfo *> >
	mov	BYTE PTR __$EHRec$[ebp+8], 53		; 00000035H
	mov	ecx, DWORD PTR _this$[ebp]
	add	ecx, 1492				; 000005d4H
	call	??0?$vector@PAVCvMissionInfo@@V?$allocator@PAVCvMissionInfo@@@std@@@std@@QAE@XZ ; std::vector<CvMissionInfo *,std::allocator<CvMissionInfo *> >::vector<CvMissionInfo *,std::allocator<CvMissionInfo *> >
	mov	BYTE PTR __$EHRec$[ebp+8], 54		; 00000036H
	mov	ecx, DWORD PTR _this$[ebp]
	add	ecx, 1508				; 000005e4H
	call	??0?$vector@PAVCvControlInfo@@V?$allocator@PAVCvControlInfo@@@std@@@std@@QAE@XZ ; std::vector<CvControlInfo *,std::allocator<CvControlInfo *> >::vector<CvControlInfo *,std::allocator<CvControlInfo *> >
	mov	BYTE PTR __$EHRec$[ebp+8], 55		; 00000037H
	mov	ecx, DWORD PTR _this$[ebp]
	add	ecx, 1524				; 000005f4H
	call	??0?$vector@PAVCvCommandInfo@@V?$allocator@PAVCvCommandInfo@@@std@@@std@@QAE@XZ ; std::vector<CvCommandInfo *,std::allocator<CvCommandInfo *> >::vector<CvCommandInfo *,std::allocator<CvCommandInfo *> >
	mov	BYTE PTR __$EHRec$[ebp+8], 56		; 00000038H
	mov	ecx, DWORD PTR _this$[ebp]
	add	ecx, 1540				; 00000604H
	call	??0?$vector@PAVCvAutomateInfo@@V?$allocator@PAVCvAutomateInfo@@@std@@@std@@QAE@XZ ; std::vector<CvAutomateInfo *,std::allocator<CvAutomateInfo *> >::vector<CvAutomateInfo *,std::allocator<CvAutomateInfo *> >
	mov	BYTE PTR __$EHRec$[ebp+8], 57		; 00000039H
	mov	ecx, DWORD PTR _this$[ebp]
	add	ecx, 1556				; 00000614H
	call	??0?$vector@PAVCvEraInfo@@V?$allocator@PAVCvEraInfo@@@std@@@std@@QAE@XZ ; std::vector<CvEraInfo *,std::allocator<CvEraInfo *> >::vector<CvEraInfo *,std::allocator<CvEraInfo *> >
	mov	BYTE PTR __$EHRec$[ebp+8], 58		; 0000003aH
	mov	ecx, DWORD PTR _this$[ebp]
	add	ecx, 1572				; 00000624H
	call	??0?$vector@PAVCvHurryInfo@@V?$allocator@PAVCvHurryInfo@@@std@@@std@@QAE@XZ ; std::vector<CvHurryInfo *,std::allocator<CvHurryInfo *> >::vector<CvHurryInfo *,std::allocator<CvHurryInfo *> >
	mov	BYTE PTR __$EHRec$[ebp+8], 59		; 0000003bH
	mov	ecx, DWORD PTR _this$[ebp]
	add	ecx, 1588				; 00000634H
	call	??0?$vector@PAVCvVictoryInfo@@V?$allocator@PAVCvVictoryInfo@@@std@@@std@@QAE@XZ ; std::vector<CvVictoryInfo *,std::allocator<CvVictoryInfo *> >::vector<CvVictoryInfo *,std::allocator<CvVictoryInfo *> >
	mov	BYTE PTR __$EHRec$[ebp+8], 60		; 0000003cH
	mov	ecx, DWORD PTR _this$[ebp]
	add	ecx, 1604				; 00000644H
	call	??0?$vector@PAVCvSmallAwardInfo@@V?$allocator@PAVCvSmallAwardInfo@@@std@@@std@@QAE@XZ ; std::vector<CvSmallAwardInfo *,std::allocator<CvSmallAwardInfo *> >::vector<CvSmallAwardInfo *,std::allocator<CvSmallAwardInfo *> >
	mov	BYTE PTR __$EHRec$[ebp+8], 61		; 0000003dH
	mov	ecx, DWORD PTR _this$[ebp]
	add	ecx, 1620				; 00000654H
	call	??0?$vector@PAVCvEntityEventInfo@@V?$allocator@PAVCvEntityEventInfo@@@std@@@std@@QAE@XZ ; std::vector<CvEntityEventInfo *,std::allocator<CvEntityEventInfo *> >::vector<CvEntityEventInfo *,std::allocator<CvEntityEventInfo *> >
	mov	BYTE PTR __$EHRec$[ebp+8], 62		; 0000003eH
	mov	ecx, DWORD PTR _this$[ebp]
	add	ecx, 1636				; 00000664H
	call	??0?$vector@PAVCvBaseInfo@@V?$allocator@PAVCvBaseInfo@@@std@@@std@@QAE@XZ ; std::vector<CvBaseInfo *,std::allocator<CvBaseInfo *> >::vector<CvBaseInfo *,std::allocator<CvBaseInfo *> >
	mov	BYTE PTR __$EHRec$[ebp+8], 63		; 0000003fH
	mov	ecx, DWORD PTR _this$[ebp]
	add	ecx, 1652				; 00000674H
	call	??0?$vector@PAVCvMultiUnitFormationInfo@@V?$allocator@PAVCvMultiUnitFormationInfo@@@std@@@std@@QAE@XZ ; std::vector<CvMultiUnitFormationInfo *,std::allocator<CvMultiUnitFormationInfo *> >::vector<CvMultiUnitFormationInfo *,std::allocator<CvMultiUnitFormationInfo *> >
	mov	edx, DWORD PTR _this$[ebp]
	mov	DWORD PTR [edx+1668], 0
	mov	eax, DWORD PTR _this$[ebp]
	mov	DWORD PTR [eax+1672], 0
	mov	ecx, DWORD PTR _this$[ebp]
	mov	DWORD PTR [ecx+1676], 0
	mov	edx, DWORD PTR _this$[ebp]
	mov	DWORD PTR [edx+1680], 0
	mov	eax, DWORD PTR _this$[ebp]
	mov	DWORD PTR [eax+1684], 0
	mov	ecx, DWORD PTR _this$[ebp]
	mov	DWORD PTR [ecx+1692], 0
	mov	edx, DWORD PTR _this$[ebp]
	mov	DWORD PTR [edx+1696], 0
	mov	eax, DWORD PTR _this$[ebp]
	mov	DWORD PTR [eax+1700], 0
	mov	ecx, DWORD PTR _this$[ebp]
	mov	DWORD PTR [ecx+1720], 0
	mov	edx, DWORD PTR _this$[ebp]
	mov	DWORD PTR [edx+1724], 0
	mov	eax, DWORD PTR _this$[ebp]
	mov	DWORD PTR [eax+1728], 0
	mov	ecx, DWORD PTR _this$[ebp]
	mov	DWORD PTR [ecx+1732], 0
	mov	edx, DWORD PTR _this$[ebp]
	mov	DWORD PTR [edx+1736], 0
	mov	eax, DWORD PTR _this$[ebp]
	mov	DWORD PTR [eax+1740], 0
	mov	ecx, DWORD PTR _this$[ebp]
	mov	DWORD PTR [ecx+1744], 0
	mov	edx, DWORD PTR _this$[ebp]
	mov	DWORD PTR [edx+1748], 0
	mov	eax, DWORD PTR _this$[ebp]
	mov	DWORD PTR [eax+1752], 0
	mov	ecx, DWORD PTR _this$[ebp]
	mov	DWORD PTR [ecx+1776], 0
	mov	edx, DWORD PTR _this$[ebp]
	mov	DWORD PTR [edx+1780], 0
	mov	eax, DWORD PTR _this$[ebp]
	mov	DWORD PTR [eax+1784], 0
	mov	ecx, DWORD PTR _this$[ebp]
	mov	DWORD PTR [ecx+1788], 0
	mov	edx, DWORD PTR _this$[ebp]
	mov	DWORD PTR [edx+1792], 0
	mov	eax, DWORD PTR _this$[ebp]
	mov	DWORD PTR [eax+1796], 0
	mov	ecx, DWORD PTR _this$[ebp]
	mov	DWORD PTR [ecx+1800], 0
	mov	edx, DWORD PTR _this$[ebp]
	mov	DWORD PTR [edx+1804], 0
	mov	eax, DWORD PTR _this$[ebp]
	mov	DWORD PTR [eax+1808], 15		; 0000000fH
	mov	ecx, DWORD PTR _this$[ebp]
	mov	DWORD PTR [ecx+1812], 0
	mov	edx, DWORD PTR _this$[ebp]
	mov	DWORD PTR [edx+1816], 1
	mov	eax, DWORD PTR _this$[ebp]
	mov	DWORD PTR [eax+1820], 0
	mov	ecx, DWORD PTR _this$[ebp]
	mov	DWORD PTR [ecx+1824], 50		; 00000032H
	mov	edx, DWORD PTR _this$[ebp]
	mov	DWORD PTR [edx+1828], 2
	mov	eax, DWORD PTR _this$[ebp]
	mov	DWORD PTR [eax+1832], 75		; 0000004bH
	mov	ecx, DWORD PTR _this$[ebp]
	mov	DWORD PTR [ecx+1836], 50		; 00000032H
	mov	edx, DWORD PTR _this$[ebp]
	mov	DWORD PTR [edx+1840], 2
	mov	eax, DWORD PTR _this$[ebp]
	mov	DWORD PTR [eax+1844], 5
	mov	ecx, DWORD PTR _this$[ebp]
	mov	DWORD PTR [ecx+1848], 50		; 00000032H
	mov	edx, DWORD PTR _this$[ebp]
	mov	DWORD PTR [edx+1852], 7
	mov	eax, DWORD PTR _this$[ebp]
	mov	DWORD PTR [eax+1856], 15		; 0000000fH
	mov	ecx, DWORD PTR _this$[ebp]
	mov	DWORD PTR [ecx+1860], 8
	mov	edx, DWORD PTR _this$[ebp]
	mov	DWORD PTR [edx+1864], 5
	mov	eax, DWORD PTR _this$[ebp]
	mov	DWORD PTR [eax+1868], 20		; 00000014H
	mov	ecx, DWORD PTR _this$[ebp]
	mov	DWORD PTR [ecx+1872], 0
	mov	edx, DWORD PTR _this$[ebp]
	mov	DWORD PTR [edx+1876], -1000		; fffffc18H
	mov	eax, DWORD PTR _this$[ebp]
	mov	DWORD PTR [eax+1880], 1000		; 000003e8H
	mov	ecx, DWORD PTR _this$[ebp]
	mov	DWORD PTR [ecx+1884], 2
	mov	edx, DWORD PTR _this$[ebp]
	mov	DWORD PTR [edx+1888], 8
	mov	eax, DWORD PTR _this$[ebp]
	mov	DWORD PTR [eax+1892], 0
	mov	ecx, DWORD PTR _this$[ebp]
	mov	DWORD PTR [ecx+1896], 50		; 00000032H
	mov	edx, DWORD PTR _this$[ebp]
	mov	DWORD PTR [edx+1900], 50		; 00000032H
	mov	eax, DWORD PTR _this$[ebp]
	mov	DWORD PTR [eax+1904], 40		; 00000028H
	mov	ecx, DWORD PTR _this$[ebp]
	mov	DWORD PTR [ecx+1908], 120		; 00000078H
	mov	edx, DWORD PTR _this$[ebp]
	mov	DWORD PTR [edx+1912], 70		; 00000046H
	mov	eax, DWORD PTR _this$[ebp]
	mov	DWORD PTR [eax+1916], 40		; 00000028H
	mov	ecx, DWORD PTR _this$[ebp]
	mov	DWORD PTR [ecx+1920], 20		; 00000014H
	mov	edx, DWORD PTR _this$[ebp]
	mov	DWORD PTR [edx+1924], -50		; ffffffceH
	mov	eax, DWORD PTR _this$[ebp]
	mov	DWORD PTR [eax+1928], 10		; 0000000aH
	mov	ecx, DWORD PTR _this$[ebp]
	mov	DWORD PTR [ecx+1932], 60		; 0000003cH
	mov	edx, DWORD PTR _this$[ebp]
	mov	DWORD PTR [edx+1936], 100		; 00000064H
	mov	eax, DWORD PTR _this$[ebp]
	mov	DWORD PTR [eax+1940], 20		; 00000014H
	mov	ecx, DWORD PTR _this$[ebp]
	mov	DWORD PTR [ecx+1944], 5
	mov	edx, DWORD PTR _this$[ebp]
	mov	DWORD PTR [edx+1948], 10		; 0000000aH
	mov	eax, DWORD PTR _this$[ebp]
	mov	DWORD PTR [eax+1952], 10		; 0000000aH
	mov	ecx, DWORD PTR _this$[ebp]
	mov	DWORD PTR [ecx+1956], 15		; 0000000fH
	mov	edx, DWORD PTR _this$[ebp]
	mov	DWORD PTR [edx+1960], 75		; 0000004bH
	mov	eax, DWORD PTR _this$[ebp]
	mov	DWORD PTR [eax+1964], 75		; 0000004bH
	mov	ecx, DWORD PTR _this$[ebp]
	mov	DWORD PTR [ecx+1968], 50		; 00000032H
	mov	edx, DWORD PTR _this$[ebp]
	mov	DWORD PTR [edx+1972], 100		; 00000064H
	mov	eax, DWORD PTR _this$[ebp]
	mov	DWORD PTR [eax+1976], 50		; 00000032H
	mov	ecx, DWORD PTR _this$[ebp]
	mov	DWORD PTR [ecx+1980], -40		; ffffffd8H
	mov	edx, DWORD PTR _this$[ebp]
	mov	DWORD PTR [edx+1984], 300		; 0000012cH
	mov	eax, DWORD PTR _this$[ebp]
	mov	DWORD PTR [eax+1988], 150		; 00000096H
	mov	ecx, DWORD PTR _this$[ebp]
	mov	DWORD PTR [ecx+1992], 300		; 0000012cH
	mov	edx, DWORD PTR _this$[ebp]
	mov	DWORD PTR [edx+1996], 100		; 00000064H
	mov	eax, DWORD PTR _this$[ebp]
	mov	DWORD PTR [eax+2000], 1
	mov	ecx, DWORD PTR _this$[ebp]
	mov	DWORD PTR [ecx+2004], 10		; 0000000aH
	mov	edx, DWORD PTR _this$[ebp]
	mov	DWORD PTR [edx+2008], 25		; 00000019H
	mov	eax, DWORD PTR _this$[ebp]
	mov	DWORD PTR [eax+2012], 10		; 0000000aH
	mov	ecx, DWORD PTR _this$[ebp]
	movss	xmm0, DWORD PTR __real@3eae147b
	movss	DWORD PTR [ecx+2016], xmm0
	mov	edx, DWORD PTR _this$[ebp]
	mov	DWORD PTR [edx+2020], 80		; 00000050H
	mov	eax, DWORD PTR _this$[ebp]
	mov	DWORD PTR [eax+2024], 75		; 0000004bH
	mov	ecx, DWORD PTR _this$[ebp]
	mov	DWORD PTR [ecx+2028], 20000		; 00004e20H
	mov	edx, DWORD PTR _this$[ebp]
	mov	DWORD PTR [edx+2032], 5
	mov	eax, DWORD PTR _this$[ebp]
	mov	DWORD PTR [eax+2036], 40		; 00000028H
	mov	ecx, DWORD PTR _this$[ebp]
	mov	DWORD PTR [ecx+2040], 50		; 00000032H
	mov	edx, DWORD PTR _this$[ebp]
	mov	DWORD PTR [edx+2044], 20		; 00000014H
	mov	eax, DWORD PTR _this$[ebp]
	mov	DWORD PTR [eax+2048], 10		; 0000000aH
	mov	ecx, DWORD PTR _this$[ebp]
	mov	DWORD PTR [ecx+2052], 5
	mov	edx, DWORD PTR _this$[ebp]
	mov	DWORD PTR [edx+2056], 6
	mov	eax, DWORD PTR _this$[ebp]
	mov	DWORD PTR [eax+2060], 4
	mov	ecx, DWORD PTR _this$[ebp]
	mov	DWORD PTR [ecx+2064], 2
	mov	edx, DWORD PTR _this$[ebp]
	mov	DWORD PTR [edx+2068], 150		; 00000096H
	mov	eax, DWORD PTR _this$[ebp]
	mov	DWORD PTR [eax+2072], 1000		; 000003e8H
	mov	ecx, DWORD PTR _this$[ebp]
	mov	DWORD PTR [ecx+2076], 150		; 00000096H
	mov	edx, DWORD PTR _this$[ebp]
	mov	DWORD PTR [edx+2080], 25		; 00000019H
	mov	eax, DWORD PTR _this$[ebp]
	mov	DWORD PTR [eax+2084], 150		; 00000096H
	mov	ecx, DWORD PTR _this$[ebp]
	mov	DWORD PTR [ecx+2088], 25		; 00000019H
	mov	edx, DWORD PTR _this$[ebp]
	mov	DWORD PTR [edx+2092], 300		; 0000012cH
	mov	eax, DWORD PTR _this$[ebp]
	mov	DWORD PTR [eax+2096], 400		; 00000190H
	mov	ecx, DWORD PTR _this$[ebp]
	mov	DWORD PTR [ecx+2100], 100		; 00000064H
	mov	edx, DWORD PTR _this$[ebp]
	mov	DWORD PTR [edx+2104], 2
	mov	eax, DWORD PTR _this$[ebp]
	mov	DWORD PTR [eax+2108], 2
	mov	ecx, DWORD PTR _this$[ebp]
	mov	DWORD PTR [ecx+2112], 1
	mov	edx, DWORD PTR _this$[ebp]
	mov	DWORD PTR [edx+2116], 1
	mov	eax, DWORD PTR _this$[ebp]
	mov	DWORD PTR [eax+2120], 1
	mov	ecx, DWORD PTR _this$[ebp]
	mov	DWORD PTR [ecx+2124], 50000		; 0000c350H
	mov	edx, DWORD PTR _this$[ebp]
	mov	DWORD PTR [edx+2128], 15		; 0000000fH
	mov	eax, DWORD PTR _this$[ebp]
	mov	DWORD PTR [eax+2132], 100		; 00000064H
	mov	ecx, DWORD PTR _this$[ebp]
	mov	DWORD PTR [ecx+2136], 1
	mov	edx, DWORD PTR _this$[ebp]
	mov	DWORD PTR [edx+2140], 1
	mov	eax, DWORD PTR _this$[ebp]
	mov	DWORD PTR [eax+2144], 100		; 00000064H
	mov	ecx, DWORD PTR _this$[ebp]
	mov	DWORD PTR [ecx+2148], 10		; 0000000aH
	mov	edx, DWORD PTR _this$[ebp]
	mov	DWORD PTR [edx+2152], 10		; 0000000aH
	mov	eax, DWORD PTR _this$[ebp]
	mov	DWORD PTR [eax+2156], 1000		; 000003e8H
	mov	ecx, DWORD PTR _this$[ebp]
	mov	DWORD PTR [ecx+2164], 1
	mov	edx, DWORD PTR _this$[ebp]
	mov	DWORD PTR [edx+2168], 3
	mov	eax, DWORD PTR _this$[ebp]
	mov	DWORD PTR [eax+2172], 6
	mov	ecx, DWORD PTR _this$[ebp]
	mov	DWORD PTR [ecx+2176], 10		; 0000000aH
	mov	edx, DWORD PTR _this$[ebp]
	mov	DWORD PTR [edx+2180], 2
	mov	eax, DWORD PTR _this$[ebp]
	mov	DWORD PTR [eax+2184], 33		; 00000021H
	mov	ecx, DWORD PTR _this$[ebp]
	mov	DWORD PTR [ecx+2188], 125		; 0000007dH
	mov	edx, DWORD PTR _this$[ebp]
	mov	DWORD PTR [edx+2192], 2
	mov	eax, DWORD PTR _this$[ebp]
	mov	DWORD PTR [eax+2196], 0
	mov	ecx, DWORD PTR _this$[ebp]
	mov	DWORD PTR [ecx+2200], 150		; 00000096H
	mov	edx, DWORD PTR _this$[ebp]
	mov	DWORD PTR [edx+2204], 150		; 00000096H
	mov	eax, DWORD PTR _this$[ebp]
	mov	DWORD PTR [eax+2208], 25		; 00000019H
	mov	ecx, DWORD PTR _this$[ebp]
	mov	DWORD PTR [ecx+2212], 10000		; 00002710H
	mov	edx, DWORD PTR _this$[ebp]
	mov	DWORD PTR [edx+2216], 200		; 000000c8H
	mov	eax, DWORD PTR _this$[ebp]
	mov	DWORD PTR [eax+2220], 5
	mov	ecx, DWORD PTR _this$[ebp]
	mov	DWORD PTR [ecx+2224], 5
	mov	edx, DWORD PTR _this$[ebp]
	mov	DWORD PTR [edx+2228], -50		; ffffffceH
	mov	eax, DWORD PTR _this$[ebp]
	mov	DWORD PTR [eax+2232], -40		; ffffffd8H
	mov	ecx, DWORD PTR _this$[ebp]
	mov	DWORD PTR [ecx+2236], 500		; 000001f4H
	mov	edx, DWORD PTR _this$[ebp]
	mov	DWORD PTR [edx+2240], 10		; 0000000aH
	mov	eax, DWORD PTR _this$[ebp]
	mov	DWORD PTR [eax+2244], 100		; 00000064H
	mov	ecx, DWORD PTR _this$[ebp]
	mov	DWORD PTR [ecx+2248], 300		; 0000012cH
	mov	edx, DWORD PTR _this$[ebp]
	mov	DWORD PTR [edx+2252], 300		; 0000012cH
	mov	eax, DWORD PTR _this$[ebp]
	mov	DWORD PTR [eax+2256], 1000		; 000003e8H
	mov	ecx, DWORD PTR _this$[ebp]
	mov	DWORD PTR [ecx+2260], 50		; 00000032H
	mov	edx, DWORD PTR _this$[ebp]
	mov	DWORD PTR [edx+2264], 50		; 00000032H
	mov	eax, DWORD PTR _this$[ebp]
	mov	DWORD PTR [eax+2268], 250		; 000000faH
	mov	ecx, DWORD PTR _this$[ebp]
	mov	DWORD PTR [ecx+2272], 200		; 000000c8H
	mov	edx, DWORD PTR _this$[ebp]
	mov	DWORD PTR [edx+2276], 5
	mov	eax, DWORD PTR _this$[ebp]
	mov	DWORD PTR [eax+2280], 10		; 0000000aH
	mov	ecx, DWORD PTR _this$[ebp]
	mov	DWORD PTR [ecx+2284], 10		; 0000000aH
	mov	edx, DWORD PTR _this$[ebp]
	mov	DWORD PTR [edx+2288], 20		; 00000014H
	mov	eax, DWORD PTR _this$[ebp]
	mov	DWORD PTR [eax+2292], 10		; 0000000aH
	mov	ecx, DWORD PTR _this$[ebp]
	mov	DWORD PTR [ecx+2296], 20		; 00000014H
	mov	edx, DWORD PTR _this$[ebp]
	mov	DWORD PTR [edx+2300], 10		; 0000000aH
	mov	eax, DWORD PTR _this$[ebp]
	mov	DWORD PTR [eax+2304], 8
	mov	ecx, DWORD PTR _this$[ebp]
	mov	DWORD PTR [ecx+2308], 5
	mov	edx, DWORD PTR _this$[ebp]
	mov	DWORD PTR [edx+2312], 2
	mov	eax, DWORD PTR _this$[ebp]
	mov	DWORD PTR [eax+2316], 18		; 00000012H
	mov	ecx, DWORD PTR _this$[ebp]
	mov	DWORD PTR [ecx+2320], 2
	mov	edx, DWORD PTR _this$[ebp]
	mov	DWORD PTR [edx+2324], 8
	mov	eax, DWORD PTR _this$[ebp]
	mov	DWORD PTR [eax+2328], 15		; 0000000fH
	mov	ecx, DWORD PTR _this$[ebp]
	mov	DWORD PTR [ecx+2332], 2
	mov	edx, DWORD PTR _this$[ebp]
	mov	DWORD PTR [edx+2336], 200		; 000000c8H
	mov	eax, DWORD PTR _this$[ebp]
	mov	DWORD PTR [eax+2340], 30		; 0000001eH
	mov	ecx, DWORD PTR _this$[ebp]
	mov	DWORD PTR [ecx+2344], 2
	mov	edx, DWORD PTR _this$[ebp]
	movss	xmm0, DWORD PTR __real@40000000
	movss	DWORD PTR [edx+2348], xmm0
	mov	eax, DWORD PTR _this$[ebp]
	movss	xmm0, DWORD PTR __real@3f4ccccd
	movss	DWORD PTR [eax+2352], xmm0
	mov	ecx, DWORD PTR _this$[ebp]
	movss	xmm0, DWORD PTR __real@00000000
	movss	DWORD PTR [ecx+2356], xmm0
	mov	edx, DWORD PTR _this$[ebp]
	movss	xmm0, DWORD PTR __real@00000000
	movss	DWORD PTR [edx+2360], xmm0
	mov	eax, DWORD PTR _this$[ebp]
	mov	DWORD PTR [eax+2364], 900		; 00000384H
	mov	ecx, DWORD PTR _this$[ebp]
	mov	DWORD PTR [ecx+2368], 100		; 00000064H
	mov	edx, DWORD PTR _this$[ebp]
	mov	DWORD PTR [edx+2372], 700		; 000002bcH
	mov	eax, DWORD PTR _this$[ebp]
	mov	DWORD PTR [eax+2376], 12		; 0000000cH
	mov	ecx, DWORD PTR _this$[ebp]
	mov	DWORD PTR [ecx+2380], 8
	mov	edx, DWORD PTR _this$[ebp]
	mov	DWORD PTR [edx+2384], 6
	mov	eax, DWORD PTR _this$[ebp]
	mov	DWORD PTR [eax+2388], 6
	mov	ecx, DWORD PTR _this$[ebp]
	mov	DWORD PTR [ecx+2392], 8
	mov	edx, DWORD PTR _this$[ebp]
	mov	DWORD PTR [edx+2396], 6
	mov	eax, DWORD PTR _this$[ebp]
	mov	DWORD PTR [eax+2400], 6
	mov	ecx, DWORD PTR _this$[ebp]
	mov	DWORD PTR [ecx+2404], 5
	mov	edx, DWORD PTR _this$[ebp]
	mov	DWORD PTR [edx+2408], 300		; 0000012cH
	mov	eax, DWORD PTR _this$[ebp]
	mov	DWORD PTR [eax+2412], 250		; 000000faH
	mov	ecx, DWORD PTR _this$[ebp]
	mov	DWORD PTR [ecx+2416], 2
	mov	edx, DWORD PTR _this$[ebp]
	mov	DWORD PTR [edx+2420], 5
	mov	eax, DWORD PTR _this$[ebp]
	mov	DWORD PTR [eax+2424], 4
	mov	ecx, DWORD PTR _this$[ebp]
	mov	DWORD PTR [ecx+2428], 1
	mov	edx, DWORD PTR _this$[ebp]
	mov	DWORD PTR [edx+2432], 20		; 00000014H
	mov	eax, DWORD PTR _this$[ebp]
	mov	DWORD PTR [eax+2436], 80		; 00000050H
	mov	ecx, DWORD PTR _this$[ebp]
	mov	DWORD PTR [ecx+2440], 10		; 0000000aH
	mov	edx, DWORD PTR _this$[ebp]
	mov	DWORD PTR [edx+2444], 25		; 00000019H
	mov	eax, DWORD PTR _this$[ebp]
	mov	DWORD PTR [eax+2448], 5
	mov	ecx, DWORD PTR _this$[ebp]
	mov	DWORD PTR [ecx+2452], 4
	mov	edx, DWORD PTR _this$[ebp]
	mov	DWORD PTR [edx+2456], 1
	mov	eax, DWORD PTR _this$[ebp]
	mov	DWORD PTR [eax+2460], 10		; 0000000aH
	mov	ecx, DWORD PTR _this$[ebp]
	mov	DWORD PTR [ecx+2464], 10		; 0000000aH
	mov	edx, DWORD PTR _this$[ebp]
	mov	DWORD PTR [edx+2468], 50		; 00000032H
	mov	eax, DWORD PTR _this$[ebp]
	mov	DWORD PTR [eax+2472], 15		; 0000000fH
	mov	ecx, DWORD PTR _this$[ebp]
	mov	DWORD PTR [ecx+2476], 6
	mov	edx, DWORD PTR _this$[ebp]
	mov	DWORD PTR [edx+2480], 9
	mov	eax, DWORD PTR _this$[ebp]
	mov	DWORD PTR [eax+2484], 5
	mov	ecx, DWORD PTR _this$[ebp]
	mov	DWORD PTR [ecx+2488], 16		; 00000010H
	mov	edx, DWORD PTR _this$[ebp]
	mov	DWORD PTR [edx+2492], 15		; 0000000fH
	mov	eax, DWORD PTR _this$[ebp]
	mov	DWORD PTR [eax+2496], 14		; 0000000eH
	mov	ecx, DWORD PTR _this$[ebp]
	mov	DWORD PTR [ecx+2500], 12		; 0000000cH
	mov	edx, DWORD PTR _this$[ebp]
	mov	DWORD PTR [edx+2504], 10		; 0000000aH
	mov	eax, DWORD PTR _this$[ebp]
	mov	DWORD PTR [eax+2508], 7
	mov	ecx, DWORD PTR _this$[ebp]
	mov	DWORD PTR [ecx+2512], 6
	mov	edx, DWORD PTR _this$[ebp]
	mov	DWORD PTR [edx+2516], 0
	mov	eax, DWORD PTR _this$[ebp]
	mov	DWORD PTR [eax+2520], 8
	mov	ecx, DWORD PTR _this$[ebp]
	mov	DWORD PTR [ecx+2524], 14		; 0000000eH
	mov	edx, DWORD PTR _this$[ebp]
	mov	DWORD PTR [edx+2528], 6
	mov	eax, DWORD PTR _this$[ebp]
	mov	DWORD PTR [eax+2532], 10		; 0000000aH
	mov	ecx, DWORD PTR _this$[ebp]
	mov	DWORD PTR [ecx+2536], 13		; 0000000dH
	mov	edx, DWORD PTR _this$[ebp]
	mov	DWORD PTR [edx+2540], -1
	mov	eax, DWORD PTR _this$[ebp]
	mov	DWORD PTR [eax+2544], 3
	mov	ecx, DWORD PTR _this$[ebp]
	mov	DWORD PTR [ecx+2548], 13		; 0000000dH
	mov	edx, DWORD PTR _this$[ebp]
	mov	DWORD PTR [edx+2552], 30		; 0000001eH
	mov	eax, DWORD PTR _this$[ebp]
	mov	DWORD PTR [eax+2556], 11		; 0000000bH
	mov	ecx, DWORD PTR _this$[ebp]
	mov	DWORD PTR [ecx+2560], 10		; 0000000aH
	mov	edx, DWORD PTR _this$[ebp]
	mov	DWORD PTR [edx+2564], 5
	mov	eax, DWORD PTR _this$[ebp]
	mov	DWORD PTR [eax+2568], 4
	mov	ecx, DWORD PTR _this$[ebp]
	mov	DWORD PTR [ecx+2572], 10		; 0000000aH
	mov	edx, DWORD PTR _this$[ebp]
	mov	DWORD PTR [edx+2576], 50		; 00000032H
	mov	eax, DWORD PTR _this$[ebp]
	mov	DWORD PTR [eax+2580], 30		; 0000001eH
	mov	ecx, DWORD PTR _this$[ebp]
	mov	DWORD PTR [ecx+2584], 30		; 0000001eH
	mov	edx, DWORD PTR _this$[ebp]
	mov	DWORD PTR [edx+2588], 30		; 0000001eH
	mov	eax, DWORD PTR _this$[ebp]
	mov	DWORD PTR [eax+2592], 30		; 0000001eH
	mov	ecx, DWORD PTR _this$[ebp]
	mov	DWORD PTR [ecx+2596], 35		; 00000023H
	mov	edx, DWORD PTR _this$[ebp]
	mov	DWORD PTR [edx+2600], 35		; 00000023H
	mov	eax, DWORD PTR _this$[ebp]
	mov	DWORD PTR [eax+2604], 20		; 00000014H
	mov	ecx, DWORD PTR _this$[ebp]
	mov	DWORD PTR [ecx+2608], 15		; 0000000fH
	mov	edx, DWORD PTR _this$[ebp]
	mov	DWORD PTR [edx+2612], 10		; 0000000aH
	mov	eax, DWORD PTR _this$[ebp]
	mov	DWORD PTR [eax+2616], 0
	mov	ecx, DWORD PTR _this$[ebp]
	mov	DWORD PTR [ecx+2620], 25		; 00000019H
	mov	edx, DWORD PTR _this$[ebp]
	mov	DWORD PTR [edx+2624], 40		; 00000028H
	mov	eax, DWORD PTR _this$[ebp]
	mov	DWORD PTR [eax+2628], 40		; 00000028H
	mov	ecx, DWORD PTR _this$[ebp]
	mov	DWORD PTR [ecx+2632], 50		; 00000032H
	mov	edx, DWORD PTR _this$[ebp]
	mov	DWORD PTR [edx+2636], 50		; 00000032H
	mov	eax, DWORD PTR _this$[ebp]
	mov	DWORD PTR [eax+2640], 50		; 00000032H
	mov	ecx, DWORD PTR _this$[ebp]
	mov	DWORD PTR [ecx+2644], 50		; 00000032H
	mov	edx, DWORD PTR _this$[ebp]
	mov	DWORD PTR [edx+2648], 50		; 00000032H
	mov	eax, DWORD PTR _this$[ebp]
	mov	DWORD PTR [eax+2652], 50		; 00000032H
	mov	ecx, DWORD PTR _this$[ebp]
	mov	DWORD PTR [ecx+2656], 50		; 00000032H
	mov	edx, DWORD PTR _this$[ebp]
	mov	DWORD PTR [edx+2660], 50		; 00000032H
	mov	eax, DWORD PTR _this$[ebp]
	mov	DWORD PTR [eax+2664], 40		; 00000028H
	mov	ecx, DWORD PTR _this$[ebp]
	mov	DWORD PTR [ecx+2668], 40		; 00000028H
	mov	edx, DWORD PTR _this$[ebp]
	mov	DWORD PTR [edx+2672], 20		; 00000014H
	mov	eax, DWORD PTR _this$[ebp]
	mov	DWORD PTR [eax+2676], 200		; 000000c8H
	mov	ecx, DWORD PTR _this$[ebp]
	mov	DWORD PTR [ecx+2680], 50		; 00000032H
	mov	edx, DWORD PTR _this$[ebp]
	mov	DWORD PTR [edx+2684], 100		; 00000064H
	mov	eax, DWORD PTR _this$[ebp]
	mov	DWORD PTR [eax+2688], 100		; 00000064H
	mov	ecx, DWORD PTR _this$[ebp]
	mov	DWORD PTR [ecx+2692], 100		; 00000064H
	mov	edx, DWORD PTR _this$[ebp]
	mov	DWORD PTR [edx+2696], 24		; 00000018H
	mov	eax, DWORD PTR _this$[ebp]
	mov	DWORD PTR [eax+2700], 10		; 0000000aH
	mov	ecx, DWORD PTR _this$[ebp]
	mov	DWORD PTR [ecx+2704], 5
	mov	edx, DWORD PTR _this$[ebp]
	mov	DWORD PTR [edx+2708], 1
	mov	eax, DWORD PTR _this$[ebp]
	mov	DWORD PTR [eax+2712], 3
	mov	ecx, DWORD PTR _this$[ebp]
	mov	DWORD PTR [ecx+2716], 5
	mov	edx, DWORD PTR _this$[ebp]
	mov	DWORD PTR [edx+2720], 100		; 00000064H
	mov	eax, DWORD PTR _this$[ebp]
	mov	DWORD PTR [eax+2724], 150		; 00000096H
	mov	ecx, DWORD PTR _this$[ebp]
	mov	DWORD PTR [ecx+2728], 50		; 00000032H
	mov	edx, DWORD PTR _this$[ebp]
	mov	DWORD PTR [edx+2732], -100		; ffffff9cH
	mov	eax, DWORD PTR _this$[ebp]
	mov	DWORD PTR [eax+2736], -150		; ffffff6aH
	mov	ecx, DWORD PTR _this$[ebp]
	mov	DWORD PTR [ecx+2740], -200		; ffffff38H
	mov	edx, DWORD PTR _this$[ebp]
	mov	DWORD PTR [edx+2744], -2000		; fffff830H
	mov	eax, DWORD PTR _this$[ebp]
	mov	DWORD PTR [eax+2748], -1500		; fffffa24H
	mov	ecx, DWORD PTR _this$[ebp]
	mov	DWORD PTR [ecx+2752], 0
	mov	edx, DWORD PTR _this$[ebp]
	mov	DWORD PTR [edx+2756], -5000		; ffffec78H
	mov	eax, DWORD PTR _this$[ebp]
	mov	DWORD PTR [eax+2760], 0
	mov	ecx, DWORD PTR _this$[ebp]
	mov	DWORD PTR [ecx+2764], 100		; 00000064H
	mov	edx, DWORD PTR _this$[ebp]
	mov	DWORD PTR [edx+2768], -60		; ffffffc4H
	mov	eax, DWORD PTR _this$[ebp]
	mov	DWORD PTR [eax+2772], 2
	mov	ecx, DWORD PTR _this$[ebp]
	mov	DWORD PTR [ecx+2776], 4
	mov	edx, DWORD PTR _this$[ebp]
	mov	DWORD PTR [edx+2780], 50		; 00000032H
	mov	eax, DWORD PTR _this$[ebp]
	mov	DWORD PTR [eax+2784], 25		; 00000019H
	mov	ecx, DWORD PTR _this$[ebp]
	mov	DWORD PTR [ecx+2788], 50		; 00000032H
	mov	edx, DWORD PTR _this$[ebp]
	mov	DWORD PTR [edx+2792], 75		; 0000004bH
	mov	eax, DWORD PTR _this$[ebp]
	mov	DWORD PTR [eax+2796], 100		; 00000064H
	mov	ecx, DWORD PTR _this$[ebp]
	mov	DWORD PTR [ecx+2800], 0
	mov	edx, DWORD PTR _this$[ebp]
	mov	DWORD PTR [edx+2804], 0
	mov	eax, DWORD PTR _this$[ebp]
	mov	DWORD PTR [eax+2808], 20		; 00000014H
	mov	ecx, DWORD PTR _this$[ebp]
	mov	DWORD PTR [ecx+2812], 50		; 00000032H
	mov	edx, DWORD PTR _this$[ebp]
	mov	DWORD PTR [edx+2816], 50		; 00000032H
	mov	eax, DWORD PTR _this$[ebp]
	mov	DWORD PTR [eax+2820], 0
	mov	ecx, DWORD PTR _this$[ebp]
	mov	DWORD PTR [ecx+2824], 0
	mov	edx, DWORD PTR _this$[ebp]
	mov	DWORD PTR [edx+2828], 0
	mov	eax, DWORD PTR _this$[ebp]
	mov	DWORD PTR [eax+2832], 30		; 0000001eH
	mov	ecx, DWORD PTR _this$[ebp]
	mov	DWORD PTR [ecx+2836], 0
	mov	edx, DWORD PTR _this$[ebp]
	mov	DWORD PTR [edx+2840], 60		; 0000003cH
	mov	eax, DWORD PTR _this$[ebp]
	mov	DWORD PTR [eax+2844], 120		; 00000078H
	mov	ecx, DWORD PTR _this$[ebp]
	mov	DWORD PTR [ecx+2848], -30		; ffffffe2H
	mov	edx, DWORD PTR _this$[ebp]
	mov	DWORD PTR [edx+2852], 0
	mov	eax, DWORD PTR _this$[ebp]
	mov	DWORD PTR [eax+2856], 8
	mov	ecx, DWORD PTR _this$[ebp]
	mov	DWORD PTR [ecx+2860], 25		; 00000019H
	mov	edx, DWORD PTR _this$[ebp]
	mov	DWORD PTR [edx+2864], 4
	mov	eax, DWORD PTR _this$[ebp]
	mov	DWORD PTR [eax+2868], 6
	mov	ecx, DWORD PTR _this$[ebp]
	mov	DWORD PTR [ecx+2872], 10		; 0000000aH
	mov	edx, DWORD PTR _this$[ebp]
	mov	DWORD PTR [edx+2876], 4
	mov	eax, DWORD PTR _this$[ebp]
	mov	DWORD PTR [eax+2880], 6
	mov	ecx, DWORD PTR _this$[ebp]
	mov	DWORD PTR [ecx+2884], 10		; 0000000aH
	mov	edx, DWORD PTR _this$[ebp]
	mov	DWORD PTR [edx+2888], 1
	mov	eax, DWORD PTR _this$[ebp]
	mov	DWORD PTR [eax+2892], 1
	mov	ecx, DWORD PTR _this$[ebp]
	mov	DWORD PTR [ecx+2896], 1
	mov	edx, DWORD PTR _this$[ebp]
	mov	DWORD PTR [edx+2900], 2
	mov	eax, DWORD PTR _this$[ebp]
	mov	DWORD PTR [eax+2904], 1
	mov	ecx, DWORD PTR _this$[ebp]
	mov	DWORD PTR [ecx+2908], 1
	mov	edx, DWORD PTR _this$[ebp]
	mov	DWORD PTR [edx+2912], 15		; 0000000fH
	mov	eax, DWORD PTR _this$[ebp]
	mov	DWORD PTR [eax+2916], 3
	mov	ecx, DWORD PTR _this$[ebp]
	mov	DWORD PTR [ecx+2920], -3		; fffffffdH
	mov	edx, DWORD PTR _this$[ebp]
	mov	DWORD PTR [edx+2924], 67		; 00000043H
	mov	eax, DWORD PTR _this$[ebp]
	mov	DWORD PTR [eax+2928], 3
	mov	ecx, DWORD PTR _this$[ebp]
	mov	DWORD PTR [ecx+2932], 2
	mov	edx, DWORD PTR _this$[ebp]
	mov	DWORD PTR [edx+2936], 3
	mov	eax, DWORD PTR _this$[ebp]
	mov	DWORD PTR [eax+2940], 4
	mov	ecx, DWORD PTR _this$[ebp]
	mov	DWORD PTR [ecx+2944], 2
	mov	edx, DWORD PTR _this$[ebp]
	mov	DWORD PTR [edx+2948], 2
	mov	eax, DWORD PTR _this$[ebp]
	mov	DWORD PTR [eax+2952], 2
	mov	ecx, DWORD PTR _this$[ebp]
	mov	DWORD PTR [ecx+2956], 1
	mov	edx, DWORD PTR _this$[ebp]
	mov	DWORD PTR [edx+2960], 1
	mov	eax, DWORD PTR _this$[ebp]
	mov	DWORD PTR [eax+2964], 1
	mov	ecx, DWORD PTR _this$[ebp]
	mov	DWORD PTR [ecx+2968], 1
	mov	edx, DWORD PTR _this$[ebp]
	mov	DWORD PTR [edx+2972], 1
	mov	eax, DWORD PTR _this$[ebp]
	mov	DWORD PTR [eax+2976], 1
	mov	ecx, DWORD PTR _this$[ebp]
	mov	DWORD PTR [ecx+2980], 13		; 0000000dH
	mov	edx, DWORD PTR _this$[ebp]
	mov	DWORD PTR [edx+2984], 12		; 0000000cH
	mov	eax, DWORD PTR _this$[ebp]
	mov	DWORD PTR [eax+2988], 10		; 0000000aH
	mov	ecx, DWORD PTR _this$[ebp]
	mov	DWORD PTR [ecx+2992], 7
	mov	edx, DWORD PTR _this$[ebp]
	mov	DWORD PTR [edx+2996], 2
	mov	eax, DWORD PTR _this$[ebp]
	mov	DWORD PTR [eax+3000], 13		; 0000000dH
	mov	ecx, DWORD PTR _this$[ebp]
	mov	DWORD PTR [ecx+3004], 12		; 0000000cH
	mov	edx, DWORD PTR _this$[ebp]
	mov	DWORD PTR [edx+3008], 10		; 0000000aH
	mov	eax, DWORD PTR _this$[ebp]
	mov	DWORD PTR [eax+3012], 7
	mov	ecx, DWORD PTR _this$[ebp]
	mov	DWORD PTR [ecx+3016], 2
	mov	edx, DWORD PTR _this$[ebp]
	mov	DWORD PTR [edx+3020], 37		; 00000025H
	mov	eax, DWORD PTR _this$[ebp]
	mov	DWORD PTR [eax+3024], 7
	mov	ecx, DWORD PTR _this$[ebp]
	mov	DWORD PTR [ecx+3028], 50		; 00000032H
	mov	edx, DWORD PTR _this$[ebp]
	mov	DWORD PTR [edx+3032], -1
	mov	eax, DWORD PTR _this$[ebp]
	mov	DWORD PTR [eax+3036], -10		; fffffff6H
	mov	ecx, DWORD PTR _this$[ebp]
	mov	DWORD PTR [ecx+3040], 50		; 00000032H
	mov	edx, DWORD PTR _this$[ebp]
	mov	DWORD PTR [edx+3044], 2
	mov	eax, DWORD PTR _this$[ebp]
	mov	DWORD PTR [eax+3048], 100		; 00000064H
	mov	ecx, DWORD PTR _this$[ebp]
	mov	DWORD PTR [ecx+3052], 4
	mov	edx, DWORD PTR _this$[ebp]
	mov	DWORD PTR [edx+3056], 3
	mov	eax, DWORD PTR _this$[ebp]
	mov	DWORD PTR [eax+3060], 50		; 00000032H
	mov	ecx, DWORD PTR _this$[ebp]
	mov	DWORD PTR [ecx+3064], 50		; 00000032H
	mov	edx, DWORD PTR _this$[ebp]
	mov	DWORD PTR [edx+3068], 40		; 00000028H
	mov	eax, DWORD PTR _this$[ebp]
	mov	DWORD PTR [eax+3072], 40		; 00000028H
	mov	ecx, DWORD PTR _this$[ebp]
	mov	DWORD PTR [ecx+3076], 40		; 00000028H
	mov	edx, DWORD PTR _this$[ebp]
	mov	DWORD PTR [edx+3080], 80		; 00000050H
	mov	eax, DWORD PTR _this$[ebp]
	mov	DWORD PTR [eax+3084], 35		; 00000023H
	mov	ecx, DWORD PTR _this$[ebp]
	mov	DWORD PTR [ecx+3088], 40		; 00000028H
	mov	edx, DWORD PTR _this$[ebp]
	mov	DWORD PTR [edx+3092], 10		; 0000000aH
	mov	eax, DWORD PTR _this$[ebp]
	mov	DWORD PTR [eax+3096], 20		; 00000014H
	mov	ecx, DWORD PTR _this$[ebp]
	mov	DWORD PTR [ecx+3100], 40		; 00000028H
	mov	edx, DWORD PTR _this$[ebp]
	mov	DWORD PTR [edx+3104], 40		; 00000028H
	mov	eax, DWORD PTR _this$[ebp]
	mov	DWORD PTR [eax+3108], 40		; 00000028H
	mov	ecx, DWORD PTR _this$[ebp]
	mov	DWORD PTR [ecx+3112], 0
	mov	edx, DWORD PTR _this$[ebp]
	mov	DWORD PTR [edx+3116], 40		; 00000028H
	mov	eax, DWORD PTR _this$[ebp]
	mov	DWORD PTR [eax+3120], 40		; 00000028H
	mov	ecx, DWORD PTR _this$[ebp]
	mov	DWORD PTR [ecx+3124], 40		; 00000028H
	mov	edx, DWORD PTR _this$[ebp]
	mov	DWORD PTR [edx+3128], 40		; 00000028H
	mov	eax, DWORD PTR _this$[ebp]
	mov	DWORD PTR [eax+3132], 30		; 0000001eH
	mov	ecx, DWORD PTR _this$[ebp]
	mov	DWORD PTR [ecx+3136], 2
	mov	edx, DWORD PTR _this$[ebp]
	mov	DWORD PTR [edx+3140], 3
	mov	eax, DWORD PTR _this$[ebp]
	mov	DWORD PTR [eax+3144], 5
	mov	ecx, DWORD PTR _this$[ebp]
	mov	DWORD PTR [ecx+3148], 5
	mov	edx, DWORD PTR _this$[ebp]
	mov	DWORD PTR [edx+3152], 2
	mov	eax, DWORD PTR _this$[ebp]
	mov	DWORD PTR [eax+3156], 5
	mov	ecx, DWORD PTR _this$[ebp]
	mov	DWORD PTR [ecx+3160], -6		; fffffffaH
	mov	edx, DWORD PTR _this$[ebp]
	mov	DWORD PTR [edx+3164], 5
	mov	eax, DWORD PTR _this$[ebp]
	mov	DWORD PTR [eax+3168], 2
	mov	ecx, DWORD PTR _this$[ebp]
	mov	DWORD PTR [ecx+3172], 3
	mov	edx, DWORD PTR _this$[ebp]
	mov	DWORD PTR [edx+3176], 150		; 00000096H
	mov	eax, DWORD PTR _this$[ebp]
	mov	DWORD PTR [eax+3180], 30		; 0000001eH
	mov	ecx, DWORD PTR _this$[ebp]
	mov	DWORD PTR [ecx+3184], 1
	mov	edx, DWORD PTR _this$[ebp]
	mov	DWORD PTR [edx+3188], 2
	mov	eax, DWORD PTR _this$[ebp]
	mov	DWORD PTR [eax+3192], 30		; 0000001eH
	mov	ecx, DWORD PTR _this$[ebp]
	mov	DWORD PTR [ecx+3196], 20		; 00000014H
	mov	edx, DWORD PTR _this$[ebp]
	mov	DWORD PTR [edx+3200], 10		; 0000000aH
	mov	eax, DWORD PTR _this$[ebp]
	mov	DWORD PTR [eax+3204], 25		; 00000019H
	mov	ecx, DWORD PTR _this$[ebp]
	mov	DWORD PTR [ecx+3208], 200		; 000000c8H
	mov	edx, DWORD PTR _this$[ebp]
	mov	DWORD PTR [edx+3212], 30		; 0000001eH
	mov	eax, DWORD PTR _this$[ebp]
	mov	DWORD PTR [eax+3216], 20		; 00000014H
	mov	ecx, DWORD PTR _this$[ebp]
	mov	DWORD PTR [ecx+3220], 10		; 0000000aH
	mov	edx, DWORD PTR _this$[ebp]
	mov	DWORD PTR [edx+3224], 25		; 00000019H
	mov	eax, DWORD PTR _this$[ebp]
	mov	DWORD PTR [eax+3228], 200		; 000000c8H
	mov	ecx, DWORD PTR _this$[ebp]
	mov	DWORD PTR [ecx+3232], 8
	mov	edx, DWORD PTR _this$[ebp]
	mov	DWORD PTR [edx+3236], 25		; 00000019H
	mov	eax, DWORD PTR _this$[ebp]
	mov	DWORD PTR [eax+3240], 2
	mov	ecx, DWORD PTR _this$[ebp]
	mov	DWORD PTR [ecx+3244], 1
	mov	edx, DWORD PTR _this$[ebp]
	mov	DWORD PTR [edx+3248], 0
	mov	eax, DWORD PTR _this$[ebp]
	mov	DWORD PTR [eax+3252], 0
	mov	ecx, DWORD PTR _this$[ebp]
	mov	DWORD PTR [ecx+3256], 0
	mov	edx, DWORD PTR _this$[ebp]
	mov	DWORD PTR [edx+3260], 0
	mov	eax, DWORD PTR _this$[ebp]
	mov	DWORD PTR [eax+3264], 0
	mov	ecx, DWORD PTR _this$[ebp]
	mov	DWORD PTR [ecx+3268], 0
	mov	edx, DWORD PTR _this$[ebp]
	mov	DWORD PTR [edx+3272], 0
	mov	eax, DWORD PTR _this$[ebp]
	mov	DWORD PTR [eax+3276], 0
	mov	ecx, DWORD PTR _this$[ebp]
	mov	DWORD PTR [ecx+3280], 0
	mov	edx, DWORD PTR _this$[ebp]
	mov	DWORD PTR [edx+3284], 0
	mov	eax, DWORD PTR _this$[ebp]
	mov	DWORD PTR [eax+3288], 0
	mov	ecx, DWORD PTR _this$[ebp]
	mov	DWORD PTR [ecx+3292], 0
	mov	edx, DWORD PTR _this$[ebp]
	mov	DWORD PTR [edx+3296], 0
	mov	eax, DWORD PTR _this$[ebp]
	mov	DWORD PTR [eax+3300], 0
	mov	ecx, DWORD PTR _this$[ebp]
	mov	DWORD PTR [ecx+3304], 0
	mov	edx, DWORD PTR _this$[ebp]
	mov	DWORD PTR [edx+3308], 0
	mov	eax, DWORD PTR _this$[ebp]
	mov	DWORD PTR [eax+3312], 0
	mov	ecx, DWORD PTR _this$[ebp]
	mov	DWORD PTR [ecx+3316], 0
	mov	edx, DWORD PTR _this$[ebp]
	mov	DWORD PTR [edx+3320], 0
	mov	eax, DWORD PTR _this$[ebp]
	mov	DWORD PTR [eax+3324], 10		; 0000000aH
	mov	ecx, DWORD PTR _this$[ebp]
	mov	DWORD PTR [ecx+3328], 200		; 000000c8H
	mov	edx, DWORD PTR _this$[ebp]
	mov	DWORD PTR [edx+3332], 20		; 00000014H
	mov	eax, DWORD PTR _this$[ebp]
	mov	DWORD PTR [eax+3336], 120		; 00000078H
	mov	ecx, DWORD PTR _this$[ebp]
	mov	DWORD PTR [ecx+3340], 150		; 00000096H
	mov	edx, DWORD PTR _this$[ebp]
	mov	DWORD PTR [edx+3344], 300		; 0000012cH
	mov	eax, DWORD PTR _this$[ebp]
	mov	DWORD PTR [eax+3348], 200		; 000000c8H
	mov	ecx, DWORD PTR _this$[ebp]
	mov	DWORD PTR [ecx+3352], 300		; 0000012cH
	mov	edx, DWORD PTR _this$[ebp]
	mov	DWORD PTR [edx+3356], 300		; 0000012cH
	mov	eax, DWORD PTR _this$[ebp]
	mov	DWORD PTR [eax+3360], 300		; 0000012cH
	mov	ecx, DWORD PTR _this$[ebp]
	mov	DWORD PTR [ecx+3364], 200		; 000000c8H
	mov	edx, DWORD PTR _this$[ebp]
	mov	DWORD PTR [edx+3368], 200		; 000000c8H
	mov	eax, DWORD PTR _this$[ebp]
	mov	DWORD PTR [eax+3372], 40		; 00000028H
	mov	ecx, DWORD PTR _this$[ebp]
	mov	DWORD PTR [ecx+3376], 300		; 0000012cH
	mov	edx, DWORD PTR _this$[ebp]
	mov	DWORD PTR [edx+3380], 200		; 000000c8H
	mov	eax, DWORD PTR _this$[ebp]
	mov	DWORD PTR [eax+3384], 50		; 00000032H
	mov	ecx, DWORD PTR _this$[ebp]
	mov	DWORD PTR [ecx+3388], 30		; 0000001eH
	mov	edx, DWORD PTR _this$[ebp]
	mov	DWORD PTR [edx+3392], 200		; 000000c8H
	mov	eax, DWORD PTR _this$[ebp]
	mov	DWORD PTR [eax+3396], 350		; 0000015eH
	mov	ecx, DWORD PTR _this$[ebp]
	mov	DWORD PTR [ecx+3400], 300		; 0000012cH
	mov	edx, DWORD PTR _this$[ebp]
	mov	DWORD PTR [edx+3404], 200		; 000000c8H
	mov	eax, DWORD PTR _this$[ebp]
	mov	DWORD PTR [eax+3408], 350		; 0000015eH
	mov	ecx, DWORD PTR _this$[ebp]
	mov	DWORD PTR [ecx+3412], 300		; 0000012cH
	mov	edx, DWORD PTR _this$[ebp]
	mov	DWORD PTR [edx+3416], 10		; 0000000aH
	mov	eax, DWORD PTR _this$[ebp]
	mov	DWORD PTR [eax+3420], 8
	mov	ecx, DWORD PTR _this$[ebp]
	mov	DWORD PTR [ecx+3424], 5
	mov	edx, DWORD PTR _this$[ebp]
	mov	DWORD PTR [edx+3428], 3
	mov	eax, DWORD PTR _this$[ebp]
	mov	DWORD PTR [eax+3432], 10		; 0000000aH
	mov	ecx, DWORD PTR _this$[ebp]
	mov	DWORD PTR [ecx+3436], 4
	mov	edx, DWORD PTR _this$[ebp]
	mov	DWORD PTR [edx+3440], 100		; 00000064H
	mov	eax, DWORD PTR _this$[ebp]
	mov	DWORD PTR [eax+3444], 4
	mov	ecx, DWORD PTR _this$[ebp]
	mov	DWORD PTR [ecx+3448], 5
	mov	edx, DWORD PTR _this$[ebp]
	mov	DWORD PTR [edx+3452], 30		; 0000001eH
	mov	eax, DWORD PTR _this$[ebp]
	mov	DWORD PTR [eax+3456], 15		; 0000000fH
	mov	ecx, DWORD PTR _this$[ebp]
	mov	DWORD PTR [ecx+3460], 100		; 00000064H
	mov	edx, DWORD PTR _this$[ebp]
	mov	DWORD PTR [edx+3464], 100		; 00000064H
	mov	eax, DWORD PTR _this$[ebp]
	mov	DWORD PTR [eax+3468], 100		; 00000064H
	mov	ecx, DWORD PTR _this$[ebp]
	mov	DWORD PTR [ecx+3472], 100		; 00000064H
	mov	edx, DWORD PTR _this$[ebp]
	mov	DWORD PTR [edx+3476], -50		; ffffffceH
	mov	eax, DWORD PTR _this$[ebp]
	mov	DWORD PTR [eax+3480], 80		; 00000050H
	mov	ecx, DWORD PTR _this$[ebp]
	mov	DWORD PTR [ecx+3484], 101		; 00000065H
	mov	edx, DWORD PTR _this$[ebp]
	mov	DWORD PTR [edx+3488], 10		; 0000000aH
	mov	eax, DWORD PTR _this$[ebp]
	mov	DWORD PTR [eax+3492], -20		; ffffffecH
	mov	ecx, DWORD PTR _this$[ebp]
	mov	DWORD PTR [ecx+3496], 5
	mov	edx, DWORD PTR _this$[ebp]
	mov	DWORD PTR [edx+3500], 4
	mov	eax, DWORD PTR _this$[ebp]
	mov	DWORD PTR [eax+3504], 3
	mov	ecx, DWORD PTR _this$[ebp]
	mov	DWORD PTR [ecx+3508], 150		; 00000096H
	mov	edx, DWORD PTR _this$[ebp]
	mov	DWORD PTR [edx+3512], 125		; 0000007dH
	mov	eax, DWORD PTR _this$[ebp]
	mov	DWORD PTR [eax+3516], 30		; 0000001eH
	mov	ecx, DWORD PTR _this$[ebp]
	mov	DWORD PTR [ecx+3520], 20		; 00000014H
	mov	edx, DWORD PTR _this$[ebp]
	mov	DWORD PTR [edx+3524], 10		; 0000000aH
	mov	eax, DWORD PTR _this$[ebp]
	mov	DWORD PTR [eax+3528], -6		; fffffffaH
	mov	ecx, DWORD PTR _this$[ebp]
	mov	DWORD PTR [ecx+3532], 30		; 0000001eH
	mov	edx, DWORD PTR _this$[ebp]
	mov	DWORD PTR [edx+3536], 20		; 00000014H
	mov	eax, DWORD PTR _this$[ebp]
	mov	DWORD PTR [eax+3540], 10		; 0000000aH
	mov	ecx, DWORD PTR _this$[ebp]
	mov	DWORD PTR [ecx+3544], -6		; fffffffaH
	mov	edx, DWORD PTR _this$[ebp]
	mov	DWORD PTR [edx+3548], 20		; 00000014H
	mov	eax, DWORD PTR _this$[ebp]
	mov	DWORD PTR [eax+3552], 15		; 0000000fH
	mov	ecx, DWORD PTR _this$[ebp]
	mov	DWORD PTR [ecx+3556], 10		; 0000000aH
	mov	edx, DWORD PTR _this$[ebp]
	mov	DWORD PTR [edx+3560], 0
	mov	eax, DWORD PTR _this$[ebp]
	mov	DWORD PTR [eax+3564], 30		; 0000001eH
	mov	ecx, DWORD PTR _this$[ebp]
	mov	DWORD PTR [ecx+3568], 20		; 00000014H
	mov	edx, DWORD PTR _this$[ebp]
	mov	DWORD PTR [edx+3572], 10		; 0000000aH
	mov	eax, DWORD PTR _this$[ebp]
	mov	DWORD PTR [eax+3576], 0
	mov	ecx, DWORD PTR _this$[ebp]
	mov	DWORD PTR [ecx+3580], 100		; 00000064H
	mov	edx, DWORD PTR _this$[ebp]
	mov	DWORD PTR [edx+3584], 70		; 00000046H
	mov	eax, DWORD PTR _this$[ebp]
	mov	DWORD PTR [eax+3588], 40		; 00000028H
	mov	ecx, DWORD PTR _this$[ebp]
	mov	DWORD PTR [ecx+3592], 15		; 0000000fH
	mov	edx, DWORD PTR _this$[ebp]
	mov	DWORD PTR [edx+3596], 0
	mov	eax, DWORD PTR _this$[ebp]
	mov	DWORD PTR [eax+3600], 20		; 00000014H
	mov	ecx, DWORD PTR _this$[ebp]
	mov	DWORD PTR [ecx+3604], 20		; 00000014H
	mov	edx, DWORD PTR _this$[ebp]
	mov	DWORD PTR [edx+3608], 20		; 00000014H
	mov	eax, DWORD PTR _this$[ebp]
	mov	DWORD PTR [eax+3612], -20		; ffffffecH
	mov	ecx, DWORD PTR _this$[ebp]
	mov	DWORD PTR [ecx+3616], -20		; ffffffecH
	mov	edx, DWORD PTR _this$[ebp]
	mov	DWORD PTR [edx+3620], -200		; ffffff38H
	mov	eax, DWORD PTR _this$[ebp]
	mov	DWORD PTR [eax+3624], -30		; ffffffe2H
	mov	ecx, DWORD PTR _this$[ebp]
	mov	DWORD PTR [ecx+3628], -50		; ffffffceH
	mov	edx, DWORD PTR _this$[ebp]
	mov	DWORD PTR [edx+3632], -60		; ffffffc4H
	mov	eax, DWORD PTR _this$[ebp]
	mov	DWORD PTR [eax+3636], -1
	mov	ecx, DWORD PTR _this$[ebp]
	mov	DWORD PTR [ecx+3640], 30		; 0000001eH
	mov	edx, DWORD PTR _this$[ebp]
	mov	DWORD PTR [edx+3644], 2
	mov	eax, DWORD PTR _this$[ebp]
	mov	DWORD PTR [eax+3648], -10		; fffffff6H
	mov	ecx, DWORD PTR _this$[ebp]
	mov	DWORD PTR [ecx+3652], -6		; fffffffaH
	mov	edx, DWORD PTR _this$[ebp]
	mov	DWORD PTR [edx+3656], -10		; fffffff6H
	mov	eax, DWORD PTR _this$[ebp]
	mov	DWORD PTR [eax+3660], 10		; 0000000aH
	mov	ecx, DWORD PTR _this$[ebp]
	mov	DWORD PTR [ecx+3664], 40		; 00000028H
	mov	edx, DWORD PTR _this$[ebp]
	mov	DWORD PTR [edx+3668], 15		; 0000000fH
	mov	eax, DWORD PTR _this$[ebp]
	mov	DWORD PTR [eax+3672], 15		; 0000000fH
	mov	ecx, DWORD PTR _this$[ebp]
	mov	DWORD PTR [ecx+3676], 20		; 00000014H
	mov	edx, DWORD PTR _this$[ebp]
	mov	DWORD PTR [edx+3680], 15		; 0000000fH
	mov	eax, DWORD PTR _this$[ebp]
	mov	DWORD PTR [eax+3684], 20		; 00000014H
	mov	ecx, DWORD PTR _this$[ebp]
	mov	DWORD PTR [ecx+3688], 15		; 0000000fH
	mov	edx, DWORD PTR _this$[ebp]
	mov	DWORD PTR [edx+3692], 40		; 00000028H
	mov	eax, DWORD PTR _this$[ebp]
	mov	DWORD PTR [eax+3696], 15		; 0000000fH
	mov	ecx, DWORD PTR _this$[ebp]
	mov	DWORD PTR [ecx+3700], 15		; 0000000fH
	mov	edx, DWORD PTR _this$[ebp]
	mov	DWORD PTR [edx+3704], 20		; 00000014H
	mov	eax, DWORD PTR _this$[ebp]
	mov	DWORD PTR [eax+3708], 10		; 0000000aH
	mov	ecx, DWORD PTR _this$[ebp]
	mov	DWORD PTR [ecx+3712], -10		; fffffff6H
	mov	edx, DWORD PTR _this$[ebp]
	mov	DWORD PTR [edx+3716], 8
	mov	eax, DWORD PTR _this$[ebp]
	mov	DWORD PTR [eax+3720], 4
	mov	ecx, DWORD PTR _this$[ebp]
	mov	DWORD PTR [ecx+3724], 30		; 0000001eH
	mov	edx, DWORD PTR _this$[ebp]
	mov	DWORD PTR [edx+3728], 20		; 00000014H
	mov	eax, DWORD PTR _this$[ebp]
	mov	DWORD PTR [eax+3732], 20		; 00000014H
	mov	ecx, DWORD PTR _this$[ebp]
	mov	DWORD PTR [ecx+3736], 125		; 0000007dH
	mov	edx, DWORD PTR _this$[ebp]
	mov	DWORD PTR [edx+3740], 40		; 00000028H
	mov	eax, DWORD PTR _this$[ebp]
	mov	DWORD PTR [eax+3744], 10		; 0000000aH
	mov	ecx, DWORD PTR _this$[ebp]
	mov	DWORD PTR [ecx+3748], 75		; 0000004bH
	mov	edx, DWORD PTR _this$[ebp]
	mov	DWORD PTR [edx+3752], 50		; 00000032H
	mov	eax, DWORD PTR _this$[ebp]
	mov	DWORD PTR [eax+3756], 20		; 00000014H
	mov	ecx, DWORD PTR _this$[ebp]
	mov	DWORD PTR [ecx+3760], 15		; 0000000fH
	mov	edx, DWORD PTR _this$[ebp]
	mov	DWORD PTR [edx+3764], 15		; 0000000fH
	mov	eax, DWORD PTR _this$[ebp]
	mov	DWORD PTR [eax+3768], 75		; 0000004bH
	mov	ecx, DWORD PTR _this$[ebp]
	mov	DWORD PTR [ecx+3772], 50		; 00000032H
	mov	edx, DWORD PTR _this$[ebp]
	mov	DWORD PTR [edx+3776], 15		; 0000000fH
	mov	eax, DWORD PTR _this$[ebp]
	mov	DWORD PTR [eax+3780], 10		; 0000000aH
	mov	ecx, DWORD PTR _this$[ebp]
	mov	DWORD PTR [ecx+3784], 10		; 0000000aH
	mov	edx, DWORD PTR _this$[ebp]
	mov	DWORD PTR [edx+3788], 25		; 00000019H
	mov	eax, DWORD PTR _this$[ebp]
	mov	DWORD PTR [eax+3792], 5
	mov	ecx, DWORD PTR _this$[ebp]
	mov	DWORD PTR [ecx+3796], -35		; ffffffddH
	mov	edx, DWORD PTR _this$[ebp]
	mov	DWORD PTR [edx+3800], -15		; fffffff1H
	mov	eax, DWORD PTR _this$[ebp]
	mov	DWORD PTR [eax+3804], 15		; 0000000fH
	mov	ecx, DWORD PTR _this$[ebp]
	mov	DWORD PTR [ecx+3808], 25		; 00000019H
	mov	edx, DWORD PTR _this$[ebp]
	mov	DWORD PTR [edx+3812], -10		; fffffff6H
	mov	eax, DWORD PTR _this$[ebp]
	mov	DWORD PTR [eax+3816], 15		; 0000000fH
	mov	ecx, DWORD PTR _this$[ebp]
	mov	DWORD PTR [ecx+3820], 35		; 00000023H
	mov	edx, DWORD PTR _this$[ebp]
	mov	DWORD PTR [edx+3824], 40		; 00000028H
	mov	eax, DWORD PTR _this$[ebp]
	mov	DWORD PTR [eax+3828], 60		; 0000003cH
	mov	ecx, DWORD PTR _this$[ebp]
	mov	DWORD PTR [ecx+3832], 15		; 0000000fH
	mov	edx, DWORD PTR _this$[ebp]
	mov	DWORD PTR [edx+3836], 35		; 00000023H
	mov	eax, DWORD PTR _this$[ebp]
	mov	DWORD PTR [eax+3840], 35		; 00000023H
	mov	ecx, DWORD PTR _this$[ebp]
	mov	DWORD PTR [ecx+3844], 15		; 0000000fH
	mov	edx, DWORD PTR _this$[ebp]
	mov	DWORD PTR [edx+3848], -15		; fffffff1H
	mov	eax, DWORD PTR _this$[ebp]
	mov	DWORD PTR [eax+3852], 35		; 00000023H
	mov	ecx, DWORD PTR _this$[ebp]
	mov	DWORD PTR [ecx+3900], -15		; fffffff1H
	mov	edx, DWORD PTR _this$[ebp]
	mov	DWORD PTR [edx+3904], 45		; 0000002dH
	mov	eax, DWORD PTR _this$[ebp]
	mov	DWORD PTR [eax+3908], 15		; 0000000fH
	mov	ecx, DWORD PTR _this$[ebp]
	mov	DWORD PTR [ecx+3912], 45		; 0000002dH
	mov	edx, DWORD PTR _this$[ebp]
	mov	DWORD PTR [edx+3916], -20		; ffffffecH
	mov	eax, DWORD PTR _this$[ebp]
	mov	DWORD PTR [eax+3920], 45		; 0000002dH
	mov	ecx, DWORD PTR _this$[ebp]
	mov	DWORD PTR [ecx+3924], 20		; 00000014H
	mov	edx, DWORD PTR _this$[ebp]
	mov	DWORD PTR [edx+3928], 45		; 0000002dH
	mov	eax, DWORD PTR _this$[ebp]
	mov	DWORD PTR [eax+3932], -20		; ffffffecH
	mov	ecx, DWORD PTR _this$[ebp]
	mov	DWORD PTR [ecx+3936], 45		; 0000002dH
	mov	edx, DWORD PTR _this$[ebp]
	mov	DWORD PTR [edx+3940], 50		; 00000032H
	mov	eax, DWORD PTR _this$[ebp]
	mov	DWORD PTR [eax+3944], 30		; 0000001eH
	mov	ecx, DWORD PTR _this$[ebp]
	mov	DWORD PTR [ecx+3948], 10		; 0000000aH
	mov	edx, DWORD PTR _this$[ebp]
	mov	DWORD PTR [edx+3952], -10		; fffffff6H
	mov	eax, DWORD PTR _this$[ebp]
	mov	DWORD PTR [eax+3956], -30		; ffffffe2H
	mov	ecx, DWORD PTR _this$[ebp]
	mov	DWORD PTR [ecx+3960], -50		; ffffffceH
	mov	edx, DWORD PTR _this$[ebp]
	mov	DWORD PTR [edx+3964], 4
	mov	eax, DWORD PTR _this$[ebp]
	mov	DWORD PTR [eax+3968], 3
	mov	ecx, DWORD PTR _this$[ebp]
	mov	DWORD PTR [ecx+3972], 2
	mov	edx, DWORD PTR _this$[ebp]
	mov	DWORD PTR [edx+3976], 5
	mov	eax, DWORD PTR _this$[ebp]
	mov	DWORD PTR [eax+3980], 3
	mov	ecx, DWORD PTR _this$[ebp]
	mov	DWORD PTR [ecx+3984], 15		; 0000000fH
	mov	edx, DWORD PTR _this$[ebp]
	mov	DWORD PTR [edx+3988], 5
	mov	eax, DWORD PTR _this$[ebp]
	mov	DWORD PTR [eax+3992], 10		; 0000000aH
	mov	ecx, DWORD PTR _this$[ebp]
	mov	DWORD PTR [ecx+3996], 4
	mov	edx, DWORD PTR _this$[ebp]
	mov	DWORD PTR [edx+4000], 0
	mov	eax, DWORD PTR _this$[ebp]
	mov	DWORD PTR [eax+4004], 4
	mov	ecx, DWORD PTR _this$[ebp]
	mov	DWORD PTR [ecx+4008], 8
	mov	edx, DWORD PTR _this$[ebp]
	mov	DWORD PTR [edx+4012], 4
	mov	eax, DWORD PTR _this$[ebp]
	mov	DWORD PTR [eax+4016], 1
	mov	ecx, DWORD PTR _this$[ebp]
	mov	DWORD PTR [ecx+4020], 4
	mov	edx, DWORD PTR _this$[ebp]
	mov	DWORD PTR [edx+4024], 4
	mov	eax, DWORD PTR _this$[ebp]
	mov	DWORD PTR [eax+4028], 4
	mov	ecx, DWORD PTR _this$[ebp]
	mov	DWORD PTR [ecx+4032], 2
	mov	edx, DWORD PTR _this$[ebp]
	mov	DWORD PTR [edx+4036], 2
	mov	eax, DWORD PTR _this$[ebp]
	mov	DWORD PTR [eax+4040], 0
	mov	ecx, DWORD PTR _this$[ebp]
	mov	DWORD PTR [ecx+4044], 2
	mov	edx, DWORD PTR _this$[ebp]
	mov	DWORD PTR [edx+4048], -5		; fffffffbH
	mov	eax, DWORD PTR _this$[ebp]
	mov	DWORD PTR [eax+4052], 0
	mov	ecx, DWORD PTR _this$[ebp]
	mov	DWORD PTR [ecx+4056], 4
	mov	edx, DWORD PTR _this$[ebp]
	mov	DWORD PTR [edx+4060], -5		; fffffffbH
	mov	eax, DWORD PTR _this$[ebp]
	mov	DWORD PTR [eax+4064], 10		; 0000000aH
	mov	ecx, DWORD PTR _this$[ebp]
	mov	DWORD PTR [ecx+4068], 10		; 0000000aH
	mov	edx, DWORD PTR _this$[ebp]
	mov	DWORD PTR [edx+4072], 15		; 0000000fH
	mov	eax, DWORD PTR _this$[ebp]
	mov	DWORD PTR [eax+4076], 15		; 0000000fH
	mov	ecx, DWORD PTR _this$[ebp]
	mov	DWORD PTR [ecx+4080], -10		; fffffff6H
	mov	edx, DWORD PTR _this$[ebp]
	mov	DWORD PTR [edx+4084], -10		; fffffff6H
	mov	eax, DWORD PTR _this$[ebp]
	mov	DWORD PTR [eax+4088], 10		; 0000000aH
	mov	ecx, DWORD PTR _this$[ebp]
	mov	DWORD PTR [ecx+4092], 10		; 0000000aH
	mov	edx, DWORD PTR _this$[ebp]
	mov	DWORD PTR [edx+4096], 10		; 0000000aH
	mov	eax, DWORD PTR _this$[ebp]
	mov	DWORD PTR [eax+4100], 10		; 0000000aH
	mov	ecx, DWORD PTR _this$[ebp]
	mov	DWORD PTR [ecx+4104], 10		; 0000000aH
	mov	edx, DWORD PTR _this$[ebp]
	mov	DWORD PTR [edx+4108], 5
	mov	eax, DWORD PTR _this$[ebp]
	mov	DWORD PTR [eax+4112], -15		; fffffff1H
	mov	ecx, DWORD PTR _this$[ebp]
	mov	DWORD PTR [ecx+4116], -15		; fffffff1H
	mov	edx, DWORD PTR _this$[ebp]
	mov	DWORD PTR [edx+4120], 6
	mov	eax, DWORD PTR _this$[ebp]
	mov	DWORD PTR [eax+4124], 2
	mov	ecx, DWORD PTR _this$[ebp]
	mov	DWORD PTR [ecx+4128], 1
	mov	edx, DWORD PTR _this$[ebp]
	mov	DWORD PTR [edx+4132], 4
	mov	eax, DWORD PTR _this$[ebp]
	mov	DWORD PTR [eax+4136], 1
	mov	ecx, DWORD PTR _this$[ebp]
	mov	DWORD PTR [ecx+4140], 1
	mov	edx, DWORD PTR _this$[ebp]
	mov	DWORD PTR [edx+4144], 0
	mov	eax, DWORD PTR _this$[ebp]
	mov	DWORD PTR [eax+4148], 4
	mov	ecx, DWORD PTR _this$[ebp]
	mov	DWORD PTR [ecx+4152], 4
	mov	edx, DWORD PTR _this$[ebp]
	mov	DWORD PTR [edx+4156], -6		; fffffffaH
	mov	eax, DWORD PTR _this$[ebp]
	mov	DWORD PTR [eax+4160], -6		; fffffffaH
	mov	ecx, DWORD PTR _this$[ebp]
	mov	DWORD PTR [ecx+4164], 4
	mov	edx, DWORD PTR _this$[ebp]
	mov	DWORD PTR [edx+4168], -10		; fffffff6H
	mov	eax, DWORD PTR _this$[ebp]
	mov	DWORD PTR [eax+4172], -10		; fffffff6H
	mov	ecx, DWORD PTR _this$[ebp]
	mov	DWORD PTR [ecx+4176], 5
	mov	edx, DWORD PTR _this$[ebp]
	mov	DWORD PTR [edx+4180], -4		; fffffffcH
	mov	eax, DWORD PTR _this$[ebp]
	mov	DWORD PTR [eax+4184], -4		; fffffffcH
	mov	ecx, DWORD PTR _this$[ebp]
	mov	DWORD PTR [ecx+4188], -4		; fffffffcH
	mov	edx, DWORD PTR _this$[ebp]
	mov	DWORD PTR [edx+4192], -4		; fffffffcH
	mov	eax, DWORD PTR _this$[ebp]
	mov	DWORD PTR [eax+4196], 4
	mov	ecx, DWORD PTR _this$[ebp]
	mov	DWORD PTR [ecx+4200], -6		; fffffffaH
	mov	edx, DWORD PTR _this$[ebp]
	mov	DWORD PTR [edx+4204], -6		; fffffffaH
	mov	eax, DWORD PTR _this$[ebp]
	mov	DWORD PTR [eax+4208], 3
	mov	ecx, DWORD PTR _this$[ebp]
	mov	DWORD PTR [ecx+4212], -4		; fffffffcH
	mov	edx, DWORD PTR _this$[ebp]
	mov	DWORD PTR [edx+4216], -4		; fffffffcH
	mov	eax, DWORD PTR _this$[ebp]
	mov	DWORD PTR [eax+4220], 4
	mov	ecx, DWORD PTR _this$[ebp]
	mov	DWORD PTR [ecx+4224], -6		; fffffffaH
	mov	edx, DWORD PTR _this$[ebp]
	mov	DWORD PTR [edx+4228], -6		; fffffffaH
	mov	eax, DWORD PTR _this$[ebp]
	mov	DWORD PTR [eax+4232], 3
	mov	ecx, DWORD PTR _this$[ebp]
	mov	DWORD PTR [ecx+4236], -4		; fffffffcH
	mov	edx, DWORD PTR _this$[ebp]
	mov	DWORD PTR [edx+4240], -4		; fffffffcH
	mov	eax, DWORD PTR _this$[ebp]
	mov	DWORD PTR [eax+4244], 4
	mov	ecx, DWORD PTR _this$[ebp]
	mov	DWORD PTR [ecx+4248], -10		; fffffff6H
	mov	edx, DWORD PTR _this$[ebp]
	mov	DWORD PTR [edx+4252], -10		; fffffff6H
	mov	eax, DWORD PTR _this$[ebp]
	mov	DWORD PTR [eax+4256], 3
	mov	ecx, DWORD PTR _this$[ebp]
	mov	DWORD PTR [ecx+4260], -3		; fffffffdH
	mov	edx, DWORD PTR _this$[ebp]
	mov	DWORD PTR [edx+4264], -3		; fffffffdH
	mov	eax, DWORD PTR _this$[ebp]
	mov	DWORD PTR [eax+4268], 4
	mov	ecx, DWORD PTR _this$[ebp]
	mov	DWORD PTR [ecx+4272], -4		; fffffffcH
	mov	edx, DWORD PTR _this$[ebp]
	mov	DWORD PTR [edx+4276], -4		; fffffffcH
	mov	eax, DWORD PTR _this$[ebp]
	mov	DWORD PTR [eax+4280], 0
	mov	ecx, DWORD PTR _this$[ebp]
	mov	DWORD PTR [ecx+4284], 0
	mov	edx, DWORD PTR _this$[ebp]
	mov	DWORD PTR [edx+4288], 3
	mov	eax, DWORD PTR _this$[ebp]
	mov	DWORD PTR [eax+4292], 2
	mov	ecx, DWORD PTR _this$[ebp]
	mov	DWORD PTR [ecx+4296], 0
	mov	edx, DWORD PTR _this$[ebp]
	mov	DWORD PTR [edx+4300], 0
	mov	eax, DWORD PTR _this$[ebp]
	mov	DWORD PTR [eax+4304], 2
	mov	ecx, DWORD PTR _this$[ebp]
	mov	DWORD PTR [ecx+4308], 1
	mov	edx, DWORD PTR _this$[ebp]
	mov	DWORD PTR [edx+4312], 0
	mov	eax, DWORD PTR _this$[ebp]
	mov	DWORD PTR [eax+4316], 0
	mov	ecx, DWORD PTR _this$[ebp]
	mov	DWORD PTR [ecx+4320], 0
	mov	edx, DWORD PTR _this$[ebp]
	mov	DWORD PTR [edx+4324], 1
	mov	eax, DWORD PTR _this$[ebp]
	mov	DWORD PTR [eax+4328], 0
	mov	ecx, DWORD PTR _this$[ebp]
	mov	DWORD PTR [ecx+4332], 2
	mov	edx, DWORD PTR _this$[ebp]
	mov	DWORD PTR [edx+4336], -9		; fffffff7H
	mov	eax, DWORD PTR _this$[ebp]
	mov	DWORD PTR [eax+4340], -3		; fffffffdH
	mov	ecx, DWORD PTR _this$[ebp]
	mov	DWORD PTR [ecx+4344], -12		; fffffff4H
	mov	edx, DWORD PTR _this$[ebp]
	mov	DWORD PTR [edx+4348], -2		; fffffffeH
	mov	eax, DWORD PTR _this$[ebp]
	mov	DWORD PTR [eax+4352], 2
	mov	ecx, DWORD PTR _this$[ebp]
	mov	DWORD PTR [ecx+4356], 0
	mov	edx, DWORD PTR _this$[ebp]
	mov	DWORD PTR [edx+4360], 2
	mov	eax, DWORD PTR _this$[ebp]
	mov	DWORD PTR [eax+4364], -12		; fffffff4H
	mov	ecx, DWORD PTR _this$[ebp]
	mov	DWORD PTR [ecx+4368], -2		; fffffffeH
	mov	edx, DWORD PTR _this$[ebp]
	mov	DWORD PTR [edx+4372], 2
	mov	eax, DWORD PTR _this$[ebp]
	mov	DWORD PTR [eax+4376], 0
	mov	ecx, DWORD PTR _this$[ebp]
	mov	DWORD PTR [ecx+4380], 2
	mov	edx, DWORD PTR _this$[ebp]
	mov	DWORD PTR [edx+4384], -2		; fffffffeH
	mov	eax, DWORD PTR _this$[ebp]
	mov	DWORD PTR [eax+4388], -2		; fffffffeH
	mov	ecx, DWORD PTR _this$[ebp]
	mov	DWORD PTR [ecx+4392], 2
	mov	edx, DWORD PTR _this$[ebp]
	mov	DWORD PTR [edx+4396], 2
	mov	eax, DWORD PTR _this$[ebp]
	mov	DWORD PTR [eax+4400], -4		; fffffffcH
	mov	ecx, DWORD PTR _this$[ebp]
	mov	DWORD PTR [ecx+4404], -4		; fffffffcH
	mov	edx, DWORD PTR _this$[ebp]
	mov	DWORD PTR [edx+4408], 2
	mov	eax, DWORD PTR _this$[ebp]
	mov	DWORD PTR [eax+4412], 2
	mov	ecx, DWORD PTR _this$[ebp]
	mov	DWORD PTR [ecx+4416], 45		; 0000002dH
	mov	edx, DWORD PTR _this$[ebp]
	mov	DWORD PTR [edx+4420], 60		; 0000003cH
	mov	eax, DWORD PTR _this$[ebp]
	mov	DWORD PTR [eax+4424], 80		; 00000050H
	mov	ecx, DWORD PTR _this$[ebp]
	mov	DWORD PTR [ecx+4428], 100		; 00000064H
	mov	edx, DWORD PTR _this$[ebp]
	mov	DWORD PTR [edx+4432], 150		; 00000096H
	mov	eax, DWORD PTR _this$[ebp]
	mov	DWORD PTR [eax+4436], 180		; 000000b4H
	mov	ecx, DWORD PTR _this$[ebp]
	mov	DWORD PTR [ecx+4440], 125		; 0000007dH
	mov	edx, DWORD PTR _this$[ebp]
	mov	DWORD PTR [edx+4444], 115		; 00000073H
	mov	eax, DWORD PTR _this$[ebp]
	mov	DWORD PTR [eax+4448], 105		; 00000069H
	mov	ecx, DWORD PTR _this$[ebp]
	mov	DWORD PTR [ecx+4452], 100		; 00000064H
	mov	edx, DWORD PTR _this$[ebp]
	mov	DWORD PTR [edx+4456], 80		; 00000050H
	mov	eax, DWORD PTR _this$[ebp]
	mov	DWORD PTR [eax+4460], 60		; 0000003cH
	mov	ecx, DWORD PTR _this$[ebp]
	mov	DWORD PTR [ecx+4464], 25		; 00000019H
	mov	edx, DWORD PTR _this$[ebp]
	mov	DWORD PTR [edx+4468], 65		; 00000041H
	mov	eax, DWORD PTR _this$[ebp]
	mov	DWORD PTR [eax+4472], 160		; 000000a0H
	mov	ecx, DWORD PTR _this$[ebp]
	mov	DWORD PTR [ecx+4476], 115		; 00000073H
	mov	edx, DWORD PTR _this$[ebp]
	mov	DWORD PTR [edx+4480], 100		; 00000064H
	mov	eax, DWORD PTR _this$[ebp]
	mov	DWORD PTR [eax+4484], 60		; 0000003cH
	mov	ecx, DWORD PTR _this$[ebp]
	mov	DWORD PTR [ecx+4488], 50		; 00000032H
	mov	edx, DWORD PTR _this$[ebp]
	mov	DWORD PTR [edx+4492], 1
	mov	eax, DWORD PTR _this$[ebp]
	mov	DWORD PTR [eax+4496], 2
	mov	ecx, DWORD PTR _this$[ebp]
	mov	DWORD PTR [ecx+4500], 3
	mov	edx, DWORD PTR _this$[ebp]
	mov	DWORD PTR [edx+4504], 10		; 0000000aH
	mov	eax, DWORD PTR _this$[ebp]
	mov	DWORD PTR [eax+4508], -15		; fffffff1H
	mov	ecx, DWORD PTR _this$[ebp]
	mov	DWORD PTR [ecx+4512], -5		; fffffffbH
	mov	edx, DWORD PTR _this$[ebp]
	mov	DWORD PTR [edx+4516], 10		; 0000000aH
	mov	eax, DWORD PTR _this$[ebp]
	mov	DWORD PTR [eax+4520], -20		; ffffffecH
	mov	ecx, DWORD PTR _this$[ebp]
	mov	DWORD PTR [ecx+4524], -15		; fffffff1H
	mov	edx, DWORD PTR _this$[ebp]
	mov	DWORD PTR [edx+4528], 5
	mov	eax, DWORD PTR _this$[ebp]
	mov	DWORD PTR [eax+4532], -20		; ffffffecH
	mov	ecx, DWORD PTR _this$[ebp]
	mov	DWORD PTR [ecx+4536], -15		; fffffff1H
	mov	edx, DWORD PTR _this$[ebp]
	mov	DWORD PTR [edx+4540], 5
	mov	eax, DWORD PTR _this$[ebp]
	mov	DWORD PTR [eax+4544], -10		; fffffff6H
	mov	ecx, DWORD PTR _this$[ebp]
	mov	DWORD PTR [ecx+4548], 10		; 0000000aH
	mov	edx, DWORD PTR _this$[ebp]
	mov	DWORD PTR [edx+4552], -15		; fffffff1H
	mov	eax, DWORD PTR _this$[ebp]
	mov	DWORD PTR [eax+4556], -6		; fffffffaH
	mov	ecx, DWORD PTR _this$[ebp]
	mov	DWORD PTR [ecx+4560], 1
	mov	edx, DWORD PTR _this$[ebp]
	mov	DWORD PTR [edx+4564], 1
	mov	eax, DWORD PTR _this$[ebp]
	mov	DWORD PTR [eax+4568], -100		; ffffff9cH
	mov	ecx, DWORD PTR _this$[ebp]
	mov	DWORD PTR [ecx+4572], 4
	mov	edx, DWORD PTR _this$[ebp]
	mov	DWORD PTR [edx+4576], 2
	mov	eax, DWORD PTR _this$[ebp]
	mov	DWORD PTR [eax+4580], -2		; fffffffeH
	mov	ecx, DWORD PTR _this$[ebp]
	mov	DWORD PTR [ecx+4584], -1
	mov	edx, DWORD PTR _this$[ebp]
	mov	DWORD PTR [edx+4588], 1
	mov	eax, DWORD PTR _this$[ebp]
	mov	DWORD PTR [eax+4592], 1
	mov	ecx, DWORD PTR _this$[ebp]
	mov	DWORD PTR [ecx+4596], -1
	mov	edx, DWORD PTR _this$[ebp]
	mov	DWORD PTR [edx+4600], 1
	mov	eax, DWORD PTR _this$[ebp]
	mov	DWORD PTR [eax+4604], -2		; fffffffeH
	mov	ecx, DWORD PTR _this$[ebp]
	mov	DWORD PTR [ecx+4608], 2
	mov	edx, DWORD PTR _this$[ebp]
	mov	DWORD PTR [edx+4612], -4		; fffffffcH
	mov	eax, DWORD PTR _this$[ebp]
	mov	DWORD PTR [eax+4616], 2
	mov	ecx, DWORD PTR _this$[ebp]
	mov	DWORD PTR [ecx+4620], -10		; fffffff6H
	mov	edx, DWORD PTR _this$[ebp]
	mov	DWORD PTR [edx+4624], 0
	mov	eax, DWORD PTR _this$[ebp]
	mov	DWORD PTR [eax+4628], 0
	mov	ecx, DWORD PTR _this$[ebp]
	mov	DWORD PTR [ecx+4632], 0
	mov	edx, DWORD PTR _this$[ebp]
	mov	DWORD PTR [edx+4636], 0
	mov	eax, DWORD PTR _this$[ebp]
	mov	DWORD PTR [eax+4640], -1
	mov	ecx, DWORD PTR _this$[ebp]
	mov	DWORD PTR [ecx+4644], -2		; fffffffeH
	mov	edx, DWORD PTR _this$[ebp]
	mov	DWORD PTR [edx+4648], 1
	mov	eax, DWORD PTR _this$[ebp]
	mov	DWORD PTR [eax+4652], 0
	mov	ecx, DWORD PTR _this$[ebp]
	mov	DWORD PTR [ecx+4656], 0
	mov	edx, DWORD PTR _this$[ebp]
	mov	DWORD PTR [edx+4660], -20		; ffffffecH
	mov	eax, DWORD PTR _this$[ebp]
	mov	DWORD PTR [eax+4664], -2		; fffffffeH
	mov	ecx, DWORD PTR _this$[ebp]
	mov	DWORD PTR [ecx+4668], 10		; 0000000aH
	mov	edx, DWORD PTR _this$[ebp]
	mov	DWORD PTR [edx+4672], 20		; 00000014H
	mov	eax, DWORD PTR _this$[ebp]
	mov	DWORD PTR [eax+4676], 40		; 00000028H
	mov	ecx, DWORD PTR _this$[ebp]
	mov	DWORD PTR [ecx+4680], 110		; 0000006eH
	mov	edx, DWORD PTR _this$[ebp]
	mov	DWORD PTR [edx+4684], 130		; 00000082H
	mov	eax, DWORD PTR _this$[ebp]
	mov	DWORD PTR [eax+4688], 200		; 000000c8H
	mov	ecx, DWORD PTR _this$[ebp]
	mov	DWORD PTR [ecx+4692], 150		; 00000096H
	mov	edx, DWORD PTR _this$[ebp]
	mov	DWORD PTR [edx+4696], 100		; 00000064H
	mov	eax, DWORD PTR _this$[ebp]
	mov	DWORD PTR [eax+4700], 50		; 00000032H
	mov	ecx, DWORD PTR _this$[ebp]
	mov	DWORD PTR [ecx+4704], 0
	mov	edx, DWORD PTR _this$[ebp]
	mov	DWORD PTR [edx+4708], -100		; ffffff9cH
	mov	eax, DWORD PTR _this$[ebp]
	mov	DWORD PTR [eax+4712], -50		; ffffffceH
	mov	ecx, DWORD PTR _this$[ebp]
	mov	DWORD PTR [ecx+4716], 0
	mov	edx, DWORD PTR _this$[ebp]
	mov	DWORD PTR [edx+4720], 25		; 00000019H
	mov	eax, DWORD PTR _this$[ebp]
	mov	DWORD PTR [eax+4724], 60		; 0000003cH
	mov	ecx, DWORD PTR _this$[ebp]
	mov	DWORD PTR [ecx+4728], 50		; 00000032H
	mov	edx, DWORD PTR _this$[ebp]
	mov	DWORD PTR [edx+4732], 40		; 00000028H
	mov	eax, DWORD PTR _this$[ebp]
	mov	DWORD PTR [eax+4736], 25		; 00000019H
	mov	ecx, DWORD PTR _this$[ebp]
	mov	DWORD PTR [ecx+4740], 10		; 0000000aH
	mov	edx, DWORD PTR _this$[ebp]
	mov	DWORD PTR [edx+4744], 0
	mov	eax, DWORD PTR _this$[ebp]
	mov	DWORD PTR [eax+4748], 0
	mov	ecx, DWORD PTR _this$[ebp]
	mov	DWORD PTR [ecx+4752], 0
	mov	edx, DWORD PTR _this$[ebp]
	mov	DWORD PTR [edx+4756], 150		; 00000096H
	mov	eax, DWORD PTR _this$[ebp]
	mov	DWORD PTR [eax+4760], 100		; 00000064H
	mov	ecx, DWORD PTR _this$[ebp]
	mov	DWORD PTR [ecx+4764], 50		; 00000032H
	mov	edx, DWORD PTR _this$[ebp]
	mov	DWORD PTR [edx+4768], 25		; 00000019H
	mov	eax, DWORD PTR _this$[ebp]
	mov	DWORD PTR [eax+4772], 0
	mov	ecx, DWORD PTR _this$[ebp]
	mov	DWORD PTR [ecx+4776], 0
	mov	edx, DWORD PTR _this$[ebp]
	mov	DWORD PTR [edx+4780], 10		; 0000000aH
	mov	eax, DWORD PTR _this$[ebp]
	mov	DWORD PTR [eax+4784], 25		; 00000019H
	mov	ecx, DWORD PTR _this$[ebp]
	mov	DWORD PTR [ecx+4788], 35		; 00000023H
	mov	edx, DWORD PTR _this$[ebp]
	mov	DWORD PTR [edx+4792], 50		; 00000032H
	mov	eax, DWORD PTR _this$[ebp]
	mov	DWORD PTR [eax+4796], 50		; 00000032H
	mov	ecx, DWORD PTR _this$[ebp]
	mov	DWORD PTR [ecx+4800], 75		; 0000004bH
	mov	edx, DWORD PTR _this$[ebp]
	mov	DWORD PTR [edx+4804], 75		; 0000004bH
	mov	eax, DWORD PTR _this$[ebp]
	mov	DWORD PTR [eax+4808], 100		; 00000064H
	mov	ecx, DWORD PTR _this$[ebp]
	mov	DWORD PTR [ecx+4812], 400		; 00000190H
	mov	edx, DWORD PTR _this$[ebp]
	mov	DWORD PTR [edx+4816], 50		; 00000032H
	mov	eax, DWORD PTR _this$[ebp]
	mov	DWORD PTR [eax+4820], 50		; 00000032H
	mov	ecx, DWORD PTR _this$[ebp]
	mov	DWORD PTR [ecx+4824], -100		; ffffff9cH
	mov	edx, DWORD PTR _this$[ebp]
	mov	DWORD PTR [edx+4828], -150		; ffffff6aH
	mov	eax, DWORD PTR _this$[ebp]
	mov	DWORD PTR [eax+4832], 150		; 00000096H
	mov	ecx, DWORD PTR _this$[ebp]
	mov	DWORD PTR [ecx+4836], 100		; 00000064H
	mov	edx, DWORD PTR _this$[ebp]
	mov	DWORD PTR [edx+4840], 50		; 00000032H
	mov	eax, DWORD PTR _this$[ebp]
	mov	DWORD PTR [eax+4844], 20		; 00000014H
	mov	ecx, DWORD PTR _this$[ebp]
	mov	DWORD PTR [ecx+4848], 0
	mov	edx, DWORD PTR _this$[ebp]
	mov	DWORD PTR [edx+4852], 100		; 00000064H
	mov	eax, DWORD PTR _this$[ebp]
	mov	DWORD PTR [eax+4856], 50		; 00000032H
	mov	ecx, DWORD PTR _this$[ebp]
	mov	DWORD PTR [ecx+4860], -25		; ffffffe7H
	mov	edx, DWORD PTR _this$[ebp]
	mov	DWORD PTR [edx+4864], -100		; ffffff9cH
	mov	eax, DWORD PTR _this$[ebp]
	mov	DWORD PTR [eax+4868], -200		; ffffff38H
	mov	ecx, DWORD PTR _this$[ebp]
	mov	DWORD PTR [ecx+4872], 4
	mov	edx, DWORD PTR _this$[ebp]
	mov	DWORD PTR [edx+4876], 100		; 00000064H
	mov	eax, DWORD PTR _this$[ebp]
	mov	DWORD PTR [eax+4880], 60		; 0000003cH
	mov	ecx, DWORD PTR _this$[ebp]
	mov	DWORD PTR [ecx+4884], 20		; 00000014H
	mov	edx, DWORD PTR _this$[ebp]
	mov	DWORD PTR [edx+4888], 0
	mov	eax, DWORD PTR _this$[ebp]
	mov	DWORD PTR [eax+4892], -20		; ffffffecH
	mov	ecx, DWORD PTR _this$[ebp]
	mov	DWORD PTR [ecx+4896], -50		; ffffffceH
	mov	edx, DWORD PTR _this$[ebp]
	mov	DWORD PTR [edx+4900], 0
	mov	eax, DWORD PTR _this$[ebp]
	mov	DWORD PTR [eax+4904], 10		; 0000000aH
	mov	ecx, DWORD PTR _this$[ebp]
	mov	DWORD PTR [ecx+4908], 20		; 00000014H
	mov	edx, DWORD PTR _this$[ebp]
	mov	DWORD PTR [edx+4912], 50		; 00000032H
	mov	eax, DWORD PTR _this$[ebp]
	mov	DWORD PTR [eax+4916], 80		; 00000050H
	mov	ecx, DWORD PTR _this$[ebp]
	mov	DWORD PTR [ecx+4920], 180		; 000000b4H
	mov	edx, DWORD PTR _this$[ebp]
	mov	DWORD PTR [edx+4924], 150		; 00000096H
	mov	eax, DWORD PTR _this$[ebp]
	mov	DWORD PTR [eax+4928], 120		; 00000078H
	mov	ecx, DWORD PTR _this$[ebp]
	mov	DWORD PTR [ecx+4932], 95		; 0000005fH
	mov	edx, DWORD PTR _this$[ebp]
	mov	DWORD PTR [edx+4936], 70		; 00000046H
	mov	eax, DWORD PTR _this$[ebp]
	mov	DWORD PTR [eax+4940], 55		; 00000037H
	mov	ecx, DWORD PTR _this$[ebp]
	mov	DWORD PTR [ecx+4944], 40		; 00000028H
	mov	edx, DWORD PTR _this$[ebp]
	mov	DWORD PTR [edx+4948], 20		; 00000014H
	mov	eax, DWORD PTR _this$[ebp]
	mov	DWORD PTR [eax+4952], -50		; ffffffceH
	mov	ecx, DWORD PTR _this$[ebp]
	mov	DWORD PTR [ecx+4956], -20		; ffffffecH
	mov	edx, DWORD PTR _this$[ebp]
	mov	DWORD PTR [edx+4960], -10		; fffffff6H
	mov	eax, DWORD PTR _this$[ebp]
	mov	DWORD PTR [eax+4964], 0
	mov	ecx, DWORD PTR _this$[ebp]
	mov	DWORD PTR [ecx+4968], 50		; 00000032H
	mov	edx, DWORD PTR _this$[ebp]
	mov	DWORD PTR [edx+4972], 100		; 00000064H
	mov	eax, DWORD PTR _this$[ebp]
	mov	DWORD PTR [eax+4976], -50		; ffffffceH
	mov	ecx, DWORD PTR _this$[ebp]
	mov	DWORD PTR [ecx+4980], -20		; ffffffecH
	mov	edx, DWORD PTR _this$[ebp]
	mov	DWORD PTR [edx+4984], 0
	mov	eax, DWORD PTR _this$[ebp]
	mov	DWORD PTR [eax+4988], 20		; 00000014H
	mov	ecx, DWORD PTR _this$[ebp]
	mov	DWORD PTR [ecx+4992], 50		; 00000032H
	mov	edx, DWORD PTR _this$[ebp]
	mov	DWORD PTR [edx+4996], 150		; 00000096H
	mov	eax, DWORD PTR _this$[ebp]
	mov	DWORD PTR [eax+5000], 115		; 00000073H
	mov	ecx, DWORD PTR _this$[ebp]
	mov	DWORD PTR [ecx+5004], 80		; 00000050H
	mov	edx, DWORD PTR _this$[ebp]
	mov	DWORD PTR [edx+5008], 65		; 00000041H
	mov	eax, DWORD PTR _this$[ebp]
	mov	DWORD PTR [eax+5012], 50		; 00000032H
	mov	ecx, DWORD PTR _this$[ebp]
	mov	DWORD PTR [ecx+5016], 35		; 00000023H
	mov	edx, DWORD PTR _this$[ebp]
	mov	DWORD PTR [edx+5020], 20		; 00000014H
	mov	eax, DWORD PTR _this$[ebp]
	mov	DWORD PTR [eax+5024], 10		; 0000000aH
	mov	ecx, DWORD PTR _this$[ebp]
	mov	DWORD PTR [ecx+5028], 3
	mov	edx, DWORD PTR _this$[ebp]
	mov	DWORD PTR [edx+5032], 100		; 00000064H
	mov	eax, DWORD PTR _this$[ebp]
	mov	DWORD PTR [eax+5036], 250		; 000000faH
	mov	ecx, DWORD PTR _this$[ebp]
	mov	DWORD PTR [ecx+5040], 130		; 00000082H
	mov	edx, DWORD PTR _this$[ebp]
	mov	DWORD PTR [edx+5044], 70		; 00000046H
	mov	eax, DWORD PTR _this$[ebp]
	mov	DWORD PTR [eax+5048], 0
	mov	ecx, DWORD PTR _this$[ebp]
	mov	DWORD PTR [ecx+5052], 300		; 0000012cH
	mov	edx, DWORD PTR _this$[ebp]
	mov	DWORD PTR [edx+5056], 100		; 00000064H
	mov	eax, DWORD PTR _this$[ebp]
	mov	DWORD PTR [eax+5060], -30		; ffffffe2H
	mov	ecx, DWORD PTR _this$[ebp]
	mov	DWORD PTR [ecx+5064], -100		; ffffff9cH
	mov	edx, DWORD PTR _this$[ebp]
	mov	DWORD PTR [edx+5068], -300		; fffffed4H
	mov	eax, DWORD PTR _this$[ebp]
	mov	DWORD PTR [eax+5072], -50		; ffffffceH
	mov	ecx, DWORD PTR _this$[ebp]
	mov	DWORD PTR [ecx+5076], 0
	mov	edx, DWORD PTR _this$[ebp]
	mov	DWORD PTR [edx+5080], -20		; ffffffecH
	mov	eax, DWORD PTR _this$[ebp]
	mov	DWORD PTR [eax+5084], -60		; ffffffc4H
	mov	ecx, DWORD PTR _this$[ebp]
	mov	DWORD PTR [ecx+5088], -100		; ffffff9cH
	mov	edx, DWORD PTR _this$[ebp]
	mov	DWORD PTR [edx+5092], -150		; ffffff6aH
	mov	eax, DWORD PTR _this$[ebp]
	mov	DWORD PTR [eax+5096], -100		; ffffff9cH
	mov	ecx, DWORD PTR _this$[ebp]
	mov	DWORD PTR [ecx+5100], -50		; ffffffceH
	mov	edx, DWORD PTR _this$[ebp]
	mov	DWORD PTR [edx+5104], -25		; ffffffe7H
	mov	eax, DWORD PTR _this$[ebp]
	mov	DWORD PTR [eax+5108], -10		; fffffff6H
	mov	ecx, DWORD PTR _this$[ebp]
	mov	DWORD PTR [ecx+5112], 0
	mov	edx, DWORD PTR _this$[ebp]
	mov	DWORD PTR [edx+5116], 200		; 000000c8H
	mov	eax, DWORD PTR _this$[ebp]
	mov	DWORD PTR [eax+5120], 100		; 00000064H
	mov	ecx, DWORD PTR _this$[ebp]
	mov	DWORD PTR [ecx+5124], 50		; 00000032H
	mov	edx, DWORD PTR _this$[ebp]
	mov	DWORD PTR [edx+5128], 20		; 00000014H
	mov	eax, DWORD PTR _this$[ebp]
	mov	DWORD PTR [eax+5132], 0
	mov	ecx, DWORD PTR _this$[ebp]
	mov	DWORD PTR [ecx+5136], 100		; 00000064H
	mov	edx, DWORD PTR _this$[ebp]
	mov	DWORD PTR [edx+5140], 50		; 00000032H
	mov	eax, DWORD PTR _this$[ebp]
	mov	DWORD PTR [eax+5144], 0
	mov	ecx, DWORD PTR _this$[ebp]
	mov	DWORD PTR [ecx+5148], -50		; ffffffceH
	mov	edx, DWORD PTR _this$[ebp]
	mov	DWORD PTR [edx+5152], -100		; ffffff9cH
	mov	eax, DWORD PTR _this$[ebp]
	mov	DWORD PTR [eax+5156], 100		; 00000064H
	mov	ecx, DWORD PTR _this$[ebp]
	mov	DWORD PTR [ecx+5160], 25		; 00000019H
	mov	edx, DWORD PTR _this$[ebp]
	mov	DWORD PTR [edx+5164], -100		; ffffff9cH
	mov	eax, DWORD PTR _this$[ebp]
	mov	DWORD PTR [eax+5168], -25		; ffffffe7H
	mov	ecx, DWORD PTR _this$[ebp]
	mov	DWORD PTR [ecx+5172], 0
	mov	edx, DWORD PTR _this$[ebp]
	mov	DWORD PTR [edx+5176], 100		; 00000064H
	mov	eax, DWORD PTR _this$[ebp]
	mov	DWORD PTR [eax+5180], 60		; 0000003cH
	mov	ecx, DWORD PTR _this$[ebp]
	mov	DWORD PTR [ecx+5184], 25		; 00000019H
	mov	edx, DWORD PTR _this$[ebp]
	mov	DWORD PTR [edx+5188], 25		; 00000019H
	mov	eax, DWORD PTR _this$[ebp]
	mov	DWORD PTR [eax+5192], 0
	mov	ecx, DWORD PTR _this$[ebp]
	mov	DWORD PTR [ecx+5196], -25		; ffffffe7H
	mov	edx, DWORD PTR _this$[ebp]
	mov	DWORD PTR [edx+5200], -60		; ffffffc4H
	mov	eax, DWORD PTR _this$[ebp]
	mov	DWORD PTR [eax+5204], -100		; ffffff9cH
	mov	ecx, DWORD PTR _this$[ebp]
	mov	DWORD PTR [ecx+5208], 50		; 00000032H
	mov	edx, DWORD PTR _this$[ebp]
	mov	DWORD PTR [edx+5212], 30		; 0000001eH
	mov	eax, DWORD PTR _this$[ebp]
	mov	DWORD PTR [eax+5216], 12		; 0000000cH
	mov	ecx, DWORD PTR _this$[ebp]
	mov	DWORD PTR [ecx+5220], 0
	mov	edx, DWORD PTR _this$[ebp]
	mov	DWORD PTR [edx+5224], -12		; fffffff4H
	mov	eax, DWORD PTR _this$[ebp]
	mov	DWORD PTR [eax+5228], -30		; ffffffe2H
	mov	ecx, DWORD PTR _this$[ebp]
	mov	DWORD PTR [ecx+5232], -50		; ffffffceH
	mov	edx, DWORD PTR _this$[ebp]
	mov	DWORD PTR [edx+5236], 0
	mov	eax, DWORD PTR _this$[ebp]
	mov	DWORD PTR [eax+5240], -10		; fffffff6H
	mov	ecx, DWORD PTR _this$[ebp]
	mov	DWORD PTR [ecx+5244], -20		; ffffffecH
	mov	edx, DWORD PTR _this$[ebp]
	mov	DWORD PTR [edx+5248], -30		; ffffffe2H
	mov	eax, DWORD PTR _this$[ebp]
	mov	DWORD PTR [eax+5252], -40		; ffffffd8H
	mov	ecx, DWORD PTR _this$[ebp]
	mov	DWORD PTR [ecx+5256], 0
	mov	edx, DWORD PTR _this$[ebp]
	mov	DWORD PTR [edx+5260], 5
	mov	eax, DWORD PTR _this$[ebp]
	mov	DWORD PTR [eax+5264], 10		; 0000000aH
	mov	ecx, DWORD PTR _this$[ebp]
	mov	DWORD PTR [ecx+5268], 15		; 0000000fH
	mov	edx, DWORD PTR _this$[ebp]
	mov	DWORD PTR [edx+5272], 20		; 00000014H
	mov	eax, DWORD PTR _this$[ebp]
	mov	DWORD PTR [eax+5276], 20		; 00000014H
	mov	ecx, DWORD PTR _this$[ebp]
	mov	DWORD PTR [ecx+5280], 25		; 00000019H
	mov	edx, DWORD PTR _this$[ebp]
	mov	DWORD PTR [edx+5284], 75		; 0000004bH
	mov	eax, DWORD PTR _this$[ebp]
	mov	DWORD PTR [eax+5288], 57		; 00000039H
	mov	ecx, DWORD PTR _this$[ebp]
	mov	DWORD PTR [ecx+5292], 42		; 0000002aH
	mov	edx, DWORD PTR _this$[ebp]
	mov	DWORD PTR [edx+5296], 25		; 00000019H
	mov	eax, DWORD PTR _this$[ebp]
	mov	DWORD PTR [eax+5300], 67		; 00000043H
	mov	ecx, DWORD PTR _this$[ebp]
	mov	DWORD PTR [ecx+5304], 50		; 00000032H
	mov	edx, DWORD PTR _this$[ebp]
	mov	DWORD PTR [edx+5308], 25		; 00000019H
	mov	eax, DWORD PTR _this$[ebp]
	mov	DWORD PTR [eax+5312], 10		; 0000000aH
	mov	ecx, DWORD PTR _this$[ebp]
	mov	DWORD PTR [ecx+5316], 150		; 00000096H
	mov	edx, DWORD PTR _this$[ebp]
	mov	DWORD PTR [edx+5320], 100		; 00000064H
	mov	eax, DWORD PTR _this$[ebp]
	mov	DWORD PTR [eax+5324], 120		; 00000078H
	mov	ecx, DWORD PTR _this$[ebp]
	mov	DWORD PTR [ecx+5328], 80		; 00000050H
	mov	edx, DWORD PTR _this$[ebp]
	mov	DWORD PTR [edx+5332], 50		; 00000032H
	mov	eax, DWORD PTR _this$[ebp]
	mov	DWORD PTR [eax+5336], 30		; 0000001eH
	mov	ecx, DWORD PTR _this$[ebp]
	mov	DWORD PTR [ecx+5340], 10		; 0000000aH
	mov	edx, DWORD PTR _this$[ebp]
	mov	DWORD PTR [edx+5344], 3
	mov	eax, DWORD PTR _this$[ebp]
	mov	DWORD PTR [eax+5348], 5
	mov	ecx, DWORD PTR _this$[ebp]
	mov	DWORD PTR [ecx+5352], 9
	mov	edx, DWORD PTR _this$[ebp]
	mov	DWORD PTR [edx+5356], 10		; 0000000aH
	mov	eax, DWORD PTR _this$[ebp]
	mov	DWORD PTR [eax+5360], 7
	mov	ecx, DWORD PTR _this$[ebp]
	mov	DWORD PTR [ecx+5364], 4
	mov	edx, DWORD PTR _this$[ebp]
	mov	DWORD PTR [edx+5368], 2
	mov	eax, DWORD PTR _this$[ebp]
	mov	DWORD PTR [eax+5372], 30		; 0000001eH
	mov	ecx, DWORD PTR _this$[ebp]
	mov	DWORD PTR [ecx+5376], 100		; 00000064H
	mov	edx, DWORD PTR _this$[ebp]
	mov	DWORD PTR [edx+5380], 33		; 00000021H
	mov	eax, DWORD PTR _this$[ebp]
	mov	DWORD PTR [eax+5384], 250		; 000000faH
	mov	ecx, DWORD PTR _this$[ebp]
	mov	DWORD PTR [ecx+5388], 165		; 000000a5H
	mov	edx, DWORD PTR _this$[ebp]
	mov	DWORD PTR [edx+5392], 115		; 00000073H
	mov	eax, DWORD PTR _this$[ebp]
	mov	DWORD PTR [eax+5396], 85		; 00000055H
	mov	ecx, DWORD PTR _this$[ebp]
	mov	DWORD PTR [ecx+5400], 60		; 0000003cH
	mov	edx, DWORD PTR _this$[ebp]
	mov	DWORD PTR [edx+5404], 40		; 00000028H
	mov	eax, DWORD PTR _this$[ebp]
	mov	DWORD PTR [eax+5408], 100		; 00000064H
	mov	ecx, DWORD PTR _this$[ebp]
	mov	DWORD PTR [ecx+5412], 250		; 000000faH
	mov	edx, DWORD PTR _this$[ebp]
	mov	DWORD PTR [edx+5416], 153		; 00000099H
	mov	eax, DWORD PTR _this$[ebp]
	mov	DWORD PTR [eax+5420], 120		; 00000078H
	mov	ecx, DWORD PTR _this$[ebp]
	mov	DWORD PTR [ecx+5424], 83		; 00000053H
	mov	edx, DWORD PTR _this$[ebp]
	mov	DWORD PTR [edx+5428], 65		; 00000041H
	mov	eax, DWORD PTR _this$[ebp]
	mov	DWORD PTR [eax+5432], 40		; 00000028H
	mov	ecx, DWORD PTR _this$[ebp]
	mov	DWORD PTR [ecx+5436], 200		; 000000c8H
	mov	edx, DWORD PTR _this$[ebp]
	mov	DWORD PTR [edx+5440], 125		; 0000007dH
	mov	eax, DWORD PTR _this$[ebp]
	mov	DWORD PTR [eax+5444], 80		; 00000050H
	mov	ecx, DWORD PTR _this$[ebp]
	mov	DWORD PTR [ecx+5448], 50		; 00000032H
	mov	edx, DWORD PTR _this$[ebp]
	mov	DWORD PTR [edx+5452], 50		; 00000032H
	mov	eax, DWORD PTR _this$[ebp]
	mov	DWORD PTR [eax+5456], 250		; 000000faH
	mov	ecx, DWORD PTR _this$[ebp]
	mov	DWORD PTR [ecx+5460], 165		; 000000a5H
	mov	edx, DWORD PTR _this$[ebp]
	mov	DWORD PTR [edx+5464], 115		; 00000073H
	mov	eax, DWORD PTR _this$[ebp]
	mov	DWORD PTR [eax+5468], 85		; 00000055H
	mov	ecx, DWORD PTR _this$[ebp]
	mov	DWORD PTR [ecx+5472], 60		; 0000003cH
	mov	edx, DWORD PTR _this$[ebp]
	mov	DWORD PTR [edx+5476], 40		; 00000028H
	mov	eax, DWORD PTR _this$[ebp]
	mov	DWORD PTR [eax+5480], 0
	mov	ecx, DWORD PTR _this$[ebp]
	mov	DWORD PTR [ecx+5484], 30		; 0000001eH
	mov	edx, DWORD PTR _this$[ebp]
	mov	DWORD PTR [edx+5488], -10		; fffffff6H
	mov	eax, DWORD PTR _this$[ebp]
	mov	DWORD PTR [eax+5492], 0
	mov	ecx, DWORD PTR _this$[ebp]
	mov	DWORD PTR [ecx+5496], 30		; 0000001eH
	mov	edx, DWORD PTR _this$[ebp]
	mov	DWORD PTR [edx+5500], 80		; 00000050H
	mov	eax, DWORD PTR _this$[ebp]
	mov	DWORD PTR [eax+5504], 0
	mov	ecx, DWORD PTR _this$[ebp]
	mov	DWORD PTR [ecx+5508], 0
	mov	edx, DWORD PTR _this$[ebp]
	mov	DWORD PTR [edx+5512], 5
	mov	eax, DWORD PTR _this$[ebp]
	mov	DWORD PTR [eax+5516], 15		; 0000000fH
	mov	ecx, DWORD PTR _this$[ebp]
	mov	DWORD PTR [ecx+5520], 25		; 00000019H
	mov	edx, DWORD PTR _this$[ebp]
	mov	DWORD PTR [edx+5524], 35		; 00000023H
	mov	eax, DWORD PTR _this$[ebp]
	mov	DWORD PTR [eax+5528], 50		; 00000032H
	mov	ecx, DWORD PTR _this$[ebp]
	mov	DWORD PTR [ecx+5532], 100		; 00000064H
	mov	edx, DWORD PTR _this$[ebp]
	mov	DWORD PTR [edx+5536], 115		; 00000073H
	mov	eax, DWORD PTR _this$[ebp]
	mov	DWORD PTR [eax+5540], 150		; 00000096H
	mov	ecx, DWORD PTR _this$[ebp]
	mov	DWORD PTR [ecx+5544], 200		; 000000c8H
	mov	edx, DWORD PTR _this$[ebp]
	mov	DWORD PTR [edx+5548], 150		; 00000096H
	mov	eax, DWORD PTR _this$[ebp]
	mov	DWORD PTR [eax+5552], 100		; 00000064H
	mov	ecx, DWORD PTR _this$[ebp]
	mov	DWORD PTR [ecx+5556], 50		; 00000032H
	mov	edx, DWORD PTR _this$[ebp]
	mov	DWORD PTR [edx+5560], 10		; 0000000aH
	mov	eax, DWORD PTR _this$[ebp]
	mov	DWORD PTR [eax+5564], 10		; 0000000aH
	mov	ecx, DWORD PTR _this$[ebp]
	mov	DWORD PTR [ecx+5568], 40		; 00000028H
	mov	edx, DWORD PTR _this$[ebp]
	mov	DWORD PTR [edx+5572], 100		; 00000064H
	mov	eax, DWORD PTR _this$[ebp]
	mov	DWORD PTR [eax+5576], 80		; 00000050H
	mov	ecx, DWORD PTR _this$[ebp]
	mov	DWORD PTR [ecx+5580], 50		; 00000032H
	mov	edx, DWORD PTR _this$[ebp]
	mov	DWORD PTR [edx+5584], 30		; 0000001eH
	mov	eax, DWORD PTR _this$[ebp]
	mov	DWORD PTR [eax+5588], 10		; 0000000aH
	mov	ecx, DWORD PTR _this$[ebp]
	mov	DWORD PTR [ecx+5592], 50		; 00000032H
	mov	edx, DWORD PTR _this$[ebp]
	mov	DWORD PTR [edx+5596], 100		; 00000064H
	mov	eax, DWORD PTR _this$[ebp]
	mov	DWORD PTR [eax+5600], 60		; 0000003cH
	mov	ecx, DWORD PTR _this$[ebp]
	mov	DWORD PTR [ecx+5604], 40		; 00000028H
	mov	edx, DWORD PTR _this$[ebp]
	mov	DWORD PTR [edx+5608], 20		; 00000014H
	mov	eax, DWORD PTR _this$[ebp]
	mov	DWORD PTR [eax+5612], 300		; 0000012cH
	mov	ecx, DWORD PTR _this$[ebp]
	mov	DWORD PTR [ecx+5616], 220		; 000000dcH
	mov	edx, DWORD PTR _this$[ebp]
	mov	DWORD PTR [edx+5620], 170		; 000000aaH
	mov	eax, DWORD PTR _this$[ebp]
	mov	DWORD PTR [eax+5624], 100		; 00000064H
	mov	ecx, DWORD PTR _this$[ebp]
	mov	DWORD PTR [ecx+5628], 300		; 0000012cH
	mov	edx, DWORD PTR _this$[ebp]
	mov	DWORD PTR [edx+5632], 200		; 000000c8H
	mov	eax, DWORD PTR _this$[ebp]
	mov	DWORD PTR [eax+5636], 135		; 00000087H
	mov	ecx, DWORD PTR _this$[ebp]
	mov	DWORD PTR [ecx+5640], 100		; 00000064H
	mov	edx, DWORD PTR _this$[ebp]
	mov	DWORD PTR [edx+5644], 65		; 00000041H
	mov	eax, DWORD PTR _this$[ebp]
	mov	DWORD PTR [eax+5648], 20		; 00000014H
	mov	ecx, DWORD PTR _this$[ebp]
	mov	DWORD PTR [ecx+5652], 5
	mov	edx, DWORD PTR _this$[ebp]
	mov	DWORD PTR [edx+5656], 0
	mov	eax, DWORD PTR _this$[ebp]
	mov	DWORD PTR [eax+5660], -100		; ffffff9cH
	mov	ecx, DWORD PTR _this$[ebp]
	mov	DWORD PTR [ecx+5664], -40		; ffffffd8H
	mov	edx, DWORD PTR _this$[ebp]
	mov	DWORD PTR [edx+5668], 30		; 0000001eH
	mov	eax, DWORD PTR _this$[ebp]
	mov	DWORD PTR [eax+5672], 80		; 00000050H
	mov	ecx, DWORD PTR _this$[ebp]
	mov	DWORD PTR [ecx+5676], 150		; 00000096H
	mov	edx, DWORD PTR _this$[ebp]
	mov	DWORD PTR [edx+5680], 100		; 00000064H
	mov	eax, DWORD PTR _this$[ebp]
	mov	DWORD PTR [eax+5684], 40		; 00000028H
	mov	ecx, DWORD PTR _this$[ebp]
	mov	DWORD PTR [ecx+5688], -40		; ffffffd8H
	mov	edx, DWORD PTR _this$[ebp]
	mov	DWORD PTR [edx+5692], -100		; ffffff9cH
	mov	eax, DWORD PTR _this$[ebp]
	mov	DWORD PTR [eax+5696], 20		; 00000014H
	mov	ecx, DWORD PTR _this$[ebp]
	mov	DWORD PTR [ecx+5700], 10		; 0000000aH
	mov	edx, DWORD PTR _this$[ebp]
	mov	DWORD PTR [edx+5704], 40		; 00000028H
	mov	eax, DWORD PTR _this$[ebp]
	mov	DWORD PTR [eax+5708], 20		; 00000014H
	mov	ecx, DWORD PTR _this$[ebp]
	mov	DWORD PTR [ecx+5712], -30		; ffffffe2H
	mov	edx, DWORD PTR _this$[ebp]
	mov	DWORD PTR [edx+5716], 200		; 000000c8H
	mov	eax, DWORD PTR _this$[ebp]
	mov	DWORD PTR [eax+5720], 100		; 00000064H
	mov	ecx, DWORD PTR _this$[ebp]
	mov	DWORD PTR [ecx+5724], 50		; 00000032H
	mov	edx, DWORD PTR _this$[ebp]
	mov	DWORD PTR [edx+5728], 20		; 00000014H
	mov	eax, DWORD PTR _this$[ebp]
	mov	DWORD PTR [eax+5732], 50		; 00000032H
	mov	ecx, DWORD PTR _this$[ebp]
	mov	DWORD PTR [ecx+5736], 100		; 00000064H
	mov	edx, DWORD PTR _this$[ebp]
	mov	DWORD PTR [edx+5740], 50		; 00000032H
	mov	eax, DWORD PTR _this$[ebp]
	mov	DWORD PTR [eax+5744], 100		; 00000064H
	mov	ecx, DWORD PTR _this$[ebp]
	mov	DWORD PTR [ecx+5748], 5
	mov	edx, DWORD PTR _this$[ebp]
	mov	DWORD PTR [edx+5752], 10		; 0000000aH
	mov	eax, DWORD PTR _this$[ebp]
	mov	DWORD PTR [eax+5756], 40		; 00000028H
	mov	ecx, DWORD PTR _this$[ebp]
	mov	DWORD PTR [ecx+5760], 25		; 00000019H
	mov	edx, DWORD PTR _this$[ebp]
	mov	DWORD PTR [edx+5764], 50		; 00000032H
	mov	eax, DWORD PTR _this$[ebp]
	mov	DWORD PTR [eax+5768], 400		; 00000190H
	mov	ecx, DWORD PTR _this$[ebp]
	mov	DWORD PTR [ecx+5772], 230		; 000000e6H
	mov	edx, DWORD PTR _this$[ebp]
	mov	DWORD PTR [edx+5776], 100		; 00000064H
	mov	eax, DWORD PTR _this$[ebp]
	mov	DWORD PTR [eax+5780], 80		; 00000050H
	mov	ecx, DWORD PTR _this$[ebp]
	mov	DWORD PTR [ecx+5784], 50		; 00000032H
	mov	edx, DWORD PTR _this$[ebp]
	mov	DWORD PTR [edx+5788], 30		; 0000001eH
	mov	eax, DWORD PTR _this$[ebp]
	mov	DWORD PTR [eax+5792], 10		; 0000000aH
	mov	ecx, DWORD PTR _this$[ebp]
	mov	DWORD PTR [ecx+5796], 7
	mov	edx, DWORD PTR _this$[ebp]
	mov	DWORD PTR [edx+5800], 5
	mov	eax, DWORD PTR _this$[ebp]
	mov	DWORD PTR [eax+5804], 700		; 000002bcH
	mov	ecx, DWORD PTR _this$[ebp]
	mov	DWORD PTR [ecx+5808], 400		; 00000190H
	mov	edx, DWORD PTR _this$[ebp]
	mov	DWORD PTR [edx+5812], 200		; 000000c8H
	mov	eax, DWORD PTR _this$[ebp]
	mov	DWORD PTR [eax+5816], 10		; 0000000aH
	mov	ecx, DWORD PTR _this$[ebp]
	mov	DWORD PTR [ecx+5820], 5
	mov	edx, DWORD PTR _this$[ebp]
	mov	DWORD PTR [edx+5824], 0
	mov	eax, DWORD PTR _this$[ebp]
	mov	DWORD PTR [eax+5828], 10		; 0000000aH
	mov	ecx, DWORD PTR _this$[ebp]
	mov	DWORD PTR [ecx+5832], 32		; 00000020H
	mov	edx, DWORD PTR _this$[ebp]
	mov	DWORD PTR [edx+5836], 50		; 00000032H
	mov	eax, DWORD PTR _this$[ebp]
	mov	DWORD PTR [eax+5840], 60		; 0000003cH
	mov	ecx, DWORD PTR _this$[ebp]
	mov	DWORD PTR [ecx+5844], 0
	mov	edx, DWORD PTR _this$[ebp]
	mov	DWORD PTR [edx+5848], 5
	mov	eax, DWORD PTR _this$[ebp]
	mov	DWORD PTR [eax+5852], 12		; 0000000cH
	mov	ecx, DWORD PTR _this$[ebp]
	mov	DWORD PTR [ecx+5856], 20		; 00000014H
	mov	edx, DWORD PTR _this$[ebp]
	mov	DWORD PTR [edx+5860], 30		; 0000001eH
	mov	eax, DWORD PTR _this$[ebp]
	mov	DWORD PTR [eax+5864], 0
	mov	ecx, DWORD PTR _this$[ebp]
	mov	DWORD PTR [ecx+5868], 10		; 0000000aH
	mov	edx, DWORD PTR _this$[ebp]
	mov	DWORD PTR [edx+5872], 18		; 00000012H
	mov	eax, DWORD PTR _this$[ebp]
	mov	DWORD PTR [eax+5876], 30		; 0000001eH
	mov	ecx, DWORD PTR _this$[ebp]
	mov	DWORD PTR [ecx+5880], 0
	mov	edx, DWORD PTR _this$[ebp]
	mov	DWORD PTR [edx+5884], 0
	mov	eax, DWORD PTR _this$[ebp]
	mov	DWORD PTR [eax+5888], 14		; 0000000eH
	mov	ecx, DWORD PTR _this$[ebp]
	mov	DWORD PTR [ecx+5892], 10		; 0000000aH
	mov	edx, DWORD PTR _this$[ebp]
	mov	DWORD PTR [edx+5896], 6
	mov	eax, DWORD PTR _this$[ebp]
	mov	DWORD PTR [eax+5900], 200		; 000000c8H
	mov	ecx, DWORD PTR _this$[ebp]
	mov	DWORD PTR [ecx+5904], 180		; 000000b4H
	mov	edx, DWORD PTR _this$[ebp]
	mov	DWORD PTR [edx+5908], 160		; 000000a0H
	mov	eax, DWORD PTR _this$[ebp]
	mov	DWORD PTR [eax+5912], 130		; 00000082H
	mov	ecx, DWORD PTR _this$[ebp]
	mov	DWORD PTR [ecx+5916], 110		; 0000006eH
	mov	edx, DWORD PTR _this$[ebp]
	mov	DWORD PTR [edx+5920], 90		; 0000005aH
	mov	eax, DWORD PTR _this$[ebp]
	mov	DWORD PTR [eax+5924], 80		; 00000050H
	mov	ecx, DWORD PTR _this$[ebp]
	mov	DWORD PTR [ecx+5928], 55		; 00000037H
	mov	edx, DWORD PTR _this$[ebp]
	mov	DWORD PTR [edx+5932], 30		; 0000001eH
	mov	eax, DWORD PTR _this$[ebp]
	mov	DWORD PTR [eax+5936], 70		; 00000046H
	mov	ecx, DWORD PTR _this$[ebp]
	mov	DWORD PTR [ecx+5940], 50		; 00000032H
	mov	edx, DWORD PTR _this$[ebp]
	mov	DWORD PTR [edx+5944], 30		; 0000001eH
	mov	eax, DWORD PTR _this$[ebp]
	mov	DWORD PTR [eax+5948], 7
	mov	ecx, DWORD PTR _this$[ebp]
	mov	DWORD PTR [ecx+5952], 5
	mov	edx, DWORD PTR _this$[ebp]
	mov	DWORD PTR [edx+5956], 3
	mov	eax, DWORD PTR _this$[ebp]
	mov	DWORD PTR [eax+5960], 50		; 00000032H
	mov	ecx, DWORD PTR _this$[ebp]
	mov	DWORD PTR [ecx+5964], 50		; 00000032H
	mov	edx, DWORD PTR _this$[ebp]
	mov	DWORD PTR [edx+5968], 10		; 0000000aH
	mov	eax, DWORD PTR _this$[ebp]
	mov	DWORD PTR [eax+5972], 20		; 00000014H
	mov	ecx, DWORD PTR _this$[ebp]
	mov	DWORD PTR [ecx+5976], 1000		; 000003e8H
	mov	edx, DWORD PTR _this$[ebp]
	mov	DWORD PTR [edx+5980], 20		; 00000014H
	mov	eax, DWORD PTR _this$[ebp]
	mov	DWORD PTR [eax+5984], 10		; 0000000aH
	mov	ecx, DWORD PTR _this$[ebp]
	mov	DWORD PTR [ecx+5988], 100		; 00000064H
	mov	edx, DWORD PTR _this$[ebp]
	mov	DWORD PTR [edx+5992], 8
	mov	eax, DWORD PTR _this$[ebp]
	mov	DWORD PTR [eax+5996], 5
	mov	ecx, DWORD PTR _this$[ebp]
	mov	DWORD PTR [ecx+6000], 30		; 0000001eH
	mov	edx, DWORD PTR _this$[ebp]
	mov	DWORD PTR [edx+6004], -30		; ffffffe2H
	mov	eax, DWORD PTR _this$[ebp]
	mov	DWORD PTR [eax+6008], -20		; ffffffecH
	mov	ecx, DWORD PTR _this$[ebp]
	mov	DWORD PTR [ecx+6012], -10		; fffffff6H
	mov	edx, DWORD PTR _this$[ebp]
	mov	DWORD PTR [edx+6016], 0
	mov	eax, DWORD PTR _this$[ebp]
	mov	DWORD PTR [eax+6020], 25		; 00000019H
	mov	ecx, DWORD PTR _this$[ebp]
	mov	DWORD PTR [ecx+6024], 40		; 00000028H
	mov	edx, DWORD PTR _this$[ebp]
	mov	DWORD PTR [edx+6028], 60		; 0000003cH
	mov	eax, DWORD PTR _this$[ebp]
	mov	DWORD PTR [eax+6032], 100		; 00000064H
	mov	ecx, DWORD PTR _this$[ebp]
	mov	DWORD PTR [ecx+6036], 100		; 00000064H
	mov	edx, DWORD PTR _this$[ebp]
	mov	DWORD PTR [edx+6040], 150		; 00000096H
	mov	eax, DWORD PTR _this$[ebp]
	mov	DWORD PTR [eax+6044], 200		; 000000c8H
	mov	ecx, DWORD PTR _this$[ebp]
	mov	DWORD PTR [ecx+6048], 300		; 0000012cH
	mov	edx, DWORD PTR _this$[ebp]
	mov	DWORD PTR [edx+6052], 20		; 00000014H
	mov	eax, DWORD PTR _this$[ebp]
	mov	DWORD PTR [eax+6056], 12		; 0000000cH
	mov	ecx, DWORD PTR _this$[ebp]
	mov	DWORD PTR [ecx+6060], 30		; 0000001eH
	mov	edx, DWORD PTR _this$[ebp]
	mov	DWORD PTR [edx+6064], 50		; 00000032H
	mov	eax, DWORD PTR _this$[ebp]
	mov	DWORD PTR [eax+6068], 100		; 00000064H
	mov	ecx, DWORD PTR _this$[ebp]
	mov	DWORD PTR [ecx+6072], 75		; 0000004bH
	mov	edx, DWORD PTR _this$[ebp]
	mov	DWORD PTR [edx+6076], 10		; 0000000aH
	mov	eax, DWORD PTR _this$[ebp]
	mov	DWORD PTR [eax+6080], 50		; 00000032H
	mov	ecx, DWORD PTR _this$[ebp]
	mov	DWORD PTR [ecx+6084], 3
	mov	edx, DWORD PTR _this$[ebp]
	mov	DWORD PTR [edx+6088], 10		; 0000000aH
	mov	eax, DWORD PTR _this$[ebp]
	mov	DWORD PTR [eax+6092], 30		; 0000001eH
	mov	ecx, DWORD PTR _this$[ebp]
	mov	DWORD PTR [ecx+6096], 3
	mov	edx, DWORD PTR _this$[ebp]
	mov	DWORD PTR [edx+6100], 10		; 0000000aH
	mov	eax, DWORD PTR _this$[ebp]
	mov	DWORD PTR [eax+6104], 15		; 0000000fH
	mov	ecx, DWORD PTR _this$[ebp]
	mov	DWORD PTR [ecx+6108], 50		; 00000032H
	mov	edx, DWORD PTR _this$[ebp]
	mov	DWORD PTR [edx+6112], 3
	mov	eax, DWORD PTR _this$[ebp]
	mov	DWORD PTR [eax+6116], 10		; 0000000aH
	mov	ecx, DWORD PTR _this$[ebp]
	mov	DWORD PTR [ecx+6120], 30		; 0000001eH
	mov	edx, DWORD PTR _this$[ebp]
	mov	DWORD PTR [edx+6124], 3
	mov	eax, DWORD PTR _this$[ebp]
	mov	DWORD PTR [eax+6128], 10		; 0000000aH
	mov	ecx, DWORD PTR _this$[ebp]
	mov	DWORD PTR [ecx+6132], 15		; 0000000fH
	mov	edx, DWORD PTR _this$[ebp]
	mov	DWORD PTR [edx+6136], 100		; 00000064H
	mov	eax, DWORD PTR _this$[ebp]
	mov	DWORD PTR [eax+6140], 1
	mov	ecx, DWORD PTR _this$[ebp]
	mov	DWORD PTR [ecx+6144], 3
	mov	edx, DWORD PTR _this$[ebp]
	mov	DWORD PTR [edx+6148], 10		; 0000000aH
	mov	eax, DWORD PTR _this$[ebp]
	mov	DWORD PTR [eax+6152], 25		; 00000019H
	mov	ecx, DWORD PTR _this$[ebp]
	mov	DWORD PTR [ecx+6156], 50		; 00000032H
	mov	edx, DWORD PTR _this$[ebp]
	mov	DWORD PTR [edx+6160], 8
	mov	eax, DWORD PTR _this$[ebp]
	mov	DWORD PTR [eax+6164], 100		; 00000064H
	mov	ecx, DWORD PTR _this$[ebp]
	mov	DWORD PTR [ecx+6168], 1
	mov	edx, DWORD PTR _this$[ebp]
	mov	DWORD PTR [edx+6172], 2
	mov	eax, DWORD PTR _this$[ebp]
	mov	DWORD PTR [eax+6176], 10		; 0000000aH
	mov	ecx, DWORD PTR _this$[ebp]
	mov	DWORD PTR [ecx+6180], -4000		; fffff060H
	mov	edx, DWORD PTR _this$[ebp]
	mov	DWORD PTR [edx+6184], 4
	mov	eax, DWORD PTR _this$[ebp]
	mov	DWORD PTR [eax+6188], 0
	mov	ecx, DWORD PTR _this$[ebp]
	mov	DWORD PTR [ecx+6192], 6
	mov	edx, DWORD PTR _this$[ebp]
	mov	DWORD PTR [edx+6196], 1
	mov	eax, DWORD PTR _this$[ebp]
	mov	DWORD PTR [eax+6200], 1
	mov	ecx, DWORD PTR _this$[ebp]
	mov	DWORD PTR [ecx+6204], 200		; 000000c8H
	mov	edx, DWORD PTR _this$[ebp]
	mov	DWORD PTR [edx+6208], 2
	mov	eax, DWORD PTR _this$[ebp]
	mov	DWORD PTR [eax+6212], 2
	mov	ecx, DWORD PTR _this$[ebp]
	mov	DWORD PTR [ecx+6216], 1
	mov	edx, DWORD PTR _this$[ebp]
	mov	DWORD PTR [edx+6220], 1
	mov	eax, DWORD PTR _this$[ebp]
	mov	DWORD PTR [eax+6224], 1
	mov	ecx, DWORD PTR _this$[ebp]
	mov	DWORD PTR [ecx+6228], 1
	mov	edx, DWORD PTR _this$[ebp]
	mov	DWORD PTR [edx+6232], 5
	mov	eax, DWORD PTR _this$[ebp]
	mov	DWORD PTR [eax+6236], 60		; 0000003cH
	mov	ecx, DWORD PTR _this$[ebp]
	mov	DWORD PTR [ecx+6240], 12		; 0000000cH
	mov	edx, DWORD PTR _this$[ebp]
	mov	DWORD PTR [edx+6244], 10		; 0000000aH
	mov	eax, DWORD PTR _this$[ebp]
	mov	DWORD PTR [eax+6248], 2
	mov	ecx, DWORD PTR _this$[ebp]
	mov	DWORD PTR [ecx+6252], 20		; 00000014H
	mov	edx, DWORD PTR _this$[ebp]
	mov	DWORD PTR [edx+6256], 2
	mov	eax, DWORD PTR _this$[ebp]
	mov	DWORD PTR [eax+6260], 20		; 00000014H
	mov	ecx, DWORD PTR _this$[ebp]
	mov	DWORD PTR [ecx+6264], 5
	mov	edx, DWORD PTR _this$[ebp]
	mov	DWORD PTR [edx+6268], 3
	mov	eax, DWORD PTR _this$[ebp]
	mov	DWORD PTR [eax+6272], 4
	mov	ecx, DWORD PTR _this$[ebp]
	mov	DWORD PTR [ecx+6276], 3
	mov	edx, DWORD PTR _this$[ebp]
	mov	DWORD PTR [edx+6280], 3
	mov	eax, DWORD PTR _this$[ebp]
	mov	DWORD PTR [eax+6284], 5
	mov	ecx, DWORD PTR _this$[ebp]
	mov	DWORD PTR [ecx+6288], 1
	mov	edx, DWORD PTR _this$[ebp]
	mov	DWORD PTR [edx+6292], -1
	mov	eax, DWORD PTR _this$[ebp]
	mov	DWORD PTR [eax+6296], -1
	mov	ecx, DWORD PTR _this$[ebp]
	mov	DWORD PTR [ecx+6300], -1
	mov	edx, DWORD PTR _this$[ebp]
	mov	DWORD PTR [edx+6304], -1
	mov	eax, DWORD PTR _this$[ebp]
	mov	DWORD PTR [eax+6308], -1
	mov	ecx, DWORD PTR _this$[ebp]
	mov	DWORD PTR [ecx+6312], 1
	mov	edx, DWORD PTR _this$[ebp]
	mov	DWORD PTR [edx+6316], 6
	mov	eax, DWORD PTR _this$[ebp]
	mov	DWORD PTR [eax+6320], 50		; 00000032H
	mov	ecx, DWORD PTR _this$[ebp]
	mov	DWORD PTR [ecx+6324], 15		; 0000000fH
	mov	edx, DWORD PTR _this$[ebp]
	mov	DWORD PTR [edx+6328], 2
	mov	eax, DWORD PTR _this$[ebp]
	mov	DWORD PTR [eax+6332], 0
	mov	ecx, DWORD PTR _this$[ebp]
	mov	DWORD PTR [ecx+6336], 1
	mov	edx, DWORD PTR _this$[ebp]
	mov	DWORD PTR [edx+6340], 0
	mov	eax, DWORD PTR _this$[ebp]
	mov	DWORD PTR [eax+6344], 1
	mov	ecx, DWORD PTR _this$[ebp]
	movss	xmm0, DWORD PTR __real@3fa00000
	movss	DWORD PTR [ecx+6348], xmm0
	mov	edx, DWORD PTR _this$[ebp]
	mov	DWORD PTR [edx+6352], 2
	mov	eax, DWORD PTR _this$[ebp]
	mov	DWORD PTR [eax+6356], 3
	mov	ecx, DWORD PTR _this$[ebp]
	mov	DWORD PTR [ecx+6360], -75		; ffffffb5H
	mov	edx, DWORD PTR _this$[ebp]
	mov	DWORD PTR [edx+6364], -100		; ffffff9cH
	mov	eax, DWORD PTR _this$[ebp]
	mov	DWORD PTR [eax+6368], 1
	mov	ecx, DWORD PTR _this$[ebp]
	mov	DWORD PTR [ecx+6372], -10		; fffffff6H
	mov	edx, DWORD PTR _this$[ebp]
	mov	DWORD PTR [edx+6376], -20		; ffffffecH
	mov	eax, DWORD PTR _this$[ebp]
	mov	DWORD PTR [eax+6380], 5
	mov	ecx, DWORD PTR _this$[ebp]
	mov	DWORD PTR [ecx+6384], 5
	mov	edx, DWORD PTR _this$[ebp]
	mov	DWORD PTR [edx+6388], 100		; 00000064H
	mov	eax, DWORD PTR _this$[ebp]
	mov	DWORD PTR [eax+6392], 20		; 00000014H
	mov	ecx, DWORD PTR _this$[ebp]
	mov	DWORD PTR [ecx+6396], 5
	mov	edx, DWORD PTR _this$[ebp]
	mov	DWORD PTR [edx+6400], -2		; fffffffeH
	mov	eax, DWORD PTR _this$[ebp]
	mov	DWORD PTR [eax+6404], -40		; ffffffd8H
	mov	ecx, DWORD PTR _this$[ebp]
	mov	DWORD PTR [ecx+6408], -50		; ffffffceH
	mov	edx, DWORD PTR _this$[ebp]
	mov	DWORD PTR [edx+6412], -2		; fffffffeH
	mov	eax, DWORD PTR _this$[ebp]
	mov	DWORD PTR [eax+6416], -40		; ffffffd8H
	mov	ecx, DWORD PTR _this$[ebp]
	mov	DWORD PTR [ecx+6420], -2		; fffffffeH
	mov	edx, DWORD PTR _this$[ebp]
	mov	DWORD PTR [edx+6424], -40		; ffffffd8H
	mov	eax, DWORD PTR _this$[ebp]
	mov	DWORD PTR [eax+6428], 25		; 00000019H
	mov	ecx, DWORD PTR _this$[ebp]
	mov	DWORD PTR [ecx+6432], 50		; 00000032H
	mov	edx, DWORD PTR _this$[ebp]
	mov	DWORD PTR [edx+6436], 15		; 0000000fH
	mov	eax, DWORD PTR _this$[ebp]
	mov	DWORD PTR [eax+6440], 25		; 00000019H
	mov	ecx, DWORD PTR _this$[ebp]
	mov	DWORD PTR [ecx+6444], 10		; 0000000aH
	mov	edx, DWORD PTR _this$[ebp]
	mov	DWORD PTR [edx+6448], 50		; 00000032H
	mov	eax, DWORD PTR _this$[ebp]
	mov	DWORD PTR [eax+6452], 2
	mov	ecx, DWORD PTR _this$[ebp]
	mov	DWORD PTR [ecx+6456], 25		; 00000019H
	mov	edx, DWORD PTR _this$[ebp]
	mov	DWORD PTR [edx+6460], 15		; 0000000fH
	mov	eax, DWORD PTR _this$[ebp]
	mov	DWORD PTR [eax+6464], 20		; 00000014H
	mov	ecx, DWORD PTR _this$[ebp]
	mov	DWORD PTR [ecx+6468], 5
	mov	edx, DWORD PTR _this$[ebp]
	mov	DWORD PTR [edx+6472], 60		; 0000003cH
	mov	eax, DWORD PTR _this$[ebp]
	mov	DWORD PTR [eax+6476], 32		; 00000020H
	mov	ecx, DWORD PTR _this$[ebp]
	mov	DWORD PTR [ecx+6480], 20		; 00000014H
	mov	edx, DWORD PTR _this$[ebp]
	mov	DWORD PTR [edx+6484], 4
	mov	eax, DWORD PTR _this$[ebp]
	mov	DWORD PTR [eax+6488], 100		; 00000064H
	mov	ecx, DWORD PTR _this$[ebp]
	mov	DWORD PTR [ecx+6492], 160		; 000000a0H
	mov	edx, DWORD PTR _this$[ebp]
	mov	DWORD PTR [edx+6496], 12		; 0000000cH
	mov	eax, DWORD PTR _this$[ebp]
	mov	DWORD PTR [eax+6500], 4
	mov	ecx, DWORD PTR _this$[ebp]
	mov	DWORD PTR [ecx+6504], 2
	mov	edx, DWORD PTR _this$[ebp]
	mov	DWORD PTR [edx+6508], 9
	mov	eax, DWORD PTR _this$[ebp]
	mov	DWORD PTR [eax+6512], 50		; 00000032H
	mov	ecx, DWORD PTR _this$[ebp]
	mov	DWORD PTR [ecx+6516], 3
	mov	edx, DWORD PTR _this$[ebp]
	mov	DWORD PTR [edx+6520], 0
	mov	eax, DWORD PTR _this$[ebp]
	mov	DWORD PTR [eax+6524], 5
	mov	ecx, DWORD PTR _this$[ebp]
	mov	DWORD PTR [ecx+6528], 6
	mov	edx, DWORD PTR _this$[ebp]
	mov	DWORD PTR [edx+6532], 0
	mov	eax, DWORD PTR _this$[ebp]
	mov	DWORD PTR [eax+6536], 1
	mov	ecx, DWORD PTR _this$[ebp]
	mov	DWORD PTR [ecx+6540], 0
	mov	edx, DWORD PTR _this$[ebp]
	mov	DWORD PTR [edx+6544], 125		; 0000007dH
	mov	eax, DWORD PTR _this$[ebp]
	mov	DWORD PTR [eax+6548], -5		; fffffffbH
	mov	ecx, DWORD PTR _this$[ebp]
	mov	DWORD PTR [ecx+6552], 500		; 000001f4H
	mov	edx, DWORD PTR _this$[ebp]
	movss	xmm0, DWORD PTR __real@3ca3d70a
	movss	DWORD PTR [edx+6556], xmm0
	mov	eax, DWORD PTR _this$[ebp]
	mov	DWORD PTR [eax+6560], 500		; 000001f4H
	mov	ecx, DWORD PTR _this$[ebp]
	mov	DWORD PTR [ecx+6564], 5
	mov	edx, DWORD PTR _this$[ebp]
	mov	DWORD PTR [edx+6568], 1
	mov	eax, DWORD PTR _this$[ebp]
	mov	DWORD PTR [eax+6572], 1
	mov	ecx, DWORD PTR _this$[ebp]
	mov	DWORD PTR [ecx+6576], 10		; 0000000aH
	mov	edx, DWORD PTR _this$[ebp]
	mov	DWORD PTR [edx+6580], 100		; 00000064H
	mov	eax, DWORD PTR _this$[ebp]
	mov	DWORD PTR [eax+6584], 3
	mov	ecx, DWORD PTR _this$[ebp]
	mov	DWORD PTR [ecx+6588], 50		; 00000032H
	mov	edx, DWORD PTR _this$[ebp]
	mov	DWORD PTR [edx+6592], 1
	mov	eax, DWORD PTR _this$[ebp]
	mov	DWORD PTR [eax+6596], 10		; 0000000aH
	mov	ecx, DWORD PTR _this$[ebp]
	mov	DWORD PTR [ecx+6600], 25		; 00000019H
	mov	edx, DWORD PTR _this$[ebp]
	mov	DWORD PTR [edx+6604], -50		; ffffffceH
	mov	eax, DWORD PTR _this$[ebp]
	mov	DWORD PTR [eax+6608], 1
	mov	ecx, DWORD PTR _this$[ebp]
	mov	DWORD PTR [ecx+6612], 25		; 00000019H
	mov	edx, DWORD PTR _this$[ebp]
	mov	DWORD PTR [edx+6616], 2
	mov	eax, DWORD PTR _this$[ebp]
	mov	DWORD PTR [eax+6620], 50		; 00000032H
	mov	ecx, DWORD PTR _this$[ebp]
	mov	DWORD PTR [ecx+6624], 3
	mov	edx, DWORD PTR _this$[ebp]
	mov	DWORD PTR [edx+6628], 4
	mov	eax, DWORD PTR _this$[ebp]
	mov	DWORD PTR [eax+6632], 4
	mov	ecx, DWORD PTR _this$[ebp]
	mov	DWORD PTR [ecx+6636], 6
	mov	edx, DWORD PTR _this$[ebp]
	mov	DWORD PTR [edx+6640], 30		; 0000001eH
	mov	eax, DWORD PTR _this$[ebp]
	mov	DWORD PTR [eax+6644], 20		; 00000014H
	mov	ecx, DWORD PTR _this$[ebp]
	mov	DWORD PTR [ecx+6648], 20		; 00000014H
	mov	edx, DWORD PTR _this$[ebp]
	mov	DWORD PTR [edx+6652], 60		; 0000003cH
	mov	eax, DWORD PTR _this$[ebp]
	mov	DWORD PTR [eax+6656], 10		; 0000000aH
	mov	ecx, DWORD PTR _this$[ebp]
	mov	DWORD PTR [ecx+6660], 10		; 0000000aH
	mov	edx, DWORD PTR _this$[ebp]
	mov	DWORD PTR [edx+6664], 5
	mov	eax, DWORD PTR _this$[ebp]
	mov	DWORD PTR [eax+6668], 50		; 00000032H
	mov	ecx, DWORD PTR _this$[ebp]
	mov	DWORD PTR [ecx+6672], 2
	mov	edx, DWORD PTR _this$[ebp]
	mov	DWORD PTR [edx+6676], 50		; 00000032H
	mov	eax, DWORD PTR _this$[ebp]
	mov	DWORD PTR [eax+6680], 30		; 0000001eH
	mov	ecx, DWORD PTR _this$[ebp]
	mov	DWORD PTR [ecx+6684], 20		; 00000014H
	mov	edx, DWORD PTR _this$[ebp]
	mov	DWORD PTR [edx+6688], 10		; 0000000aH
	mov	eax, DWORD PTR _this$[ebp]
	mov	DWORD PTR [eax+6692], 15		; 0000000fH
	mov	ecx, DWORD PTR _this$[ebp]
	mov	DWORD PTR [ecx+6696], 67		; 00000043H
	mov	edx, DWORD PTR _this$[ebp]
	mov	DWORD PTR [edx+6700], 0
	mov	eax, DWORD PTR _this$[ebp]
	mov	DWORD PTR [eax+6704], 67		; 00000043H
	mov	ecx, DWORD PTR _this$[ebp]
	mov	DWORD PTR [ecx+6708], 100		; 00000064H
	mov	edx, DWORD PTR _this$[ebp]
	mov	DWORD PTR [edx+6712], 100		; 00000064H
	mov	eax, DWORD PTR _this$[ebp]
	mov	DWORD PTR [eax+6716], 70		; 00000046H
	mov	ecx, DWORD PTR _this$[ebp]
	mov	DWORD PTR [ecx+6720], 100		; 00000064H
	mov	edx, DWORD PTR _this$[ebp]
	mov	DWORD PTR [edx+6724], 100		; 00000064H
	mov	eax, DWORD PTR _this$[ebp]
	mov	DWORD PTR [eax+6728], 100		; 00000064H
	mov	ecx, DWORD PTR _this$[ebp]
	mov	DWORD PTR [ecx+6732], 100		; 00000064H
	mov	edx, DWORD PTR _this$[ebp]
	mov	DWORD PTR [edx+6736], 300		; 0000012cH
	mov	eax, DWORD PTR _this$[ebp]
	mov	DWORD PTR [eax+6740], 100		; 00000064H
	mov	ecx, DWORD PTR _this$[ebp]
	mov	DWORD PTR [ecx+6744], 0
	mov	edx, DWORD PTR _this$[ebp]
	mov	DWORD PTR [edx+6748], 20		; 00000014H
	mov	eax, DWORD PTR _this$[ebp]
	mov	DWORD PTR [eax+6752], 10		; 0000000aH
	mov	ecx, DWORD PTR _this$[ebp]
	mov	DWORD PTR [ecx+6756], 20		; 00000014H
	mov	edx, DWORD PTR _this$[ebp]
	mov	DWORD PTR [edx+6760], 20		; 00000014H
	mov	eax, DWORD PTR _this$[ebp]
	mov	DWORD PTR [eax+6764], 50		; 00000032H
	mov	ecx, DWORD PTR _this$[ebp]
	mov	DWORD PTR [ecx+6768], -25		; ffffffe7H
	mov	edx, DWORD PTR _this$[ebp]
	mov	DWORD PTR [edx+6772], 50		; 00000032H
	mov	eax, DWORD PTR _this$[ebp]
	mov	DWORD PTR [eax+6776], 99		; 00000063H
	mov	ecx, DWORD PTR _this$[ebp]
	mov	DWORD PTR [ecx+6780], 10		; 0000000aH
	mov	edx, DWORD PTR _this$[ebp]
	mov	DWORD PTR [edx+6784], 98		; 00000062H
	mov	eax, DWORD PTR _this$[ebp]
	mov	DWORD PTR [eax+6788], 10		; 0000000aH
	mov	ecx, DWORD PTR _this$[ebp]
	mov	DWORD PTR [ecx+6792], 2
	mov	edx, DWORD PTR _this$[ebp]
	mov	DWORD PTR [edx+6796], 5
	mov	eax, DWORD PTR _this$[ebp]
	mov	DWORD PTR [eax+6800], -75		; ffffffb5H
	mov	ecx, DWORD PTR _this$[ebp]
	mov	DWORD PTR [ecx+6804], 1
	mov	edx, DWORD PTR _this$[ebp]
	mov	DWORD PTR [edx+6808], 10		; 0000000aH
	mov	eax, DWORD PTR _this$[ebp]
	mov	DWORD PTR [eax+6812], 4
	mov	ecx, DWORD PTR _this$[ebp]
	mov	DWORD PTR [ecx+6816], 2
	mov	edx, DWORD PTR _this$[ebp]
	mov	DWORD PTR [edx+6820], 20		; 00000014H
	mov	eax, DWORD PTR _this$[ebp]
	mov	DWORD PTR [eax+6824], 3
	mov	ecx, DWORD PTR _this$[ebp]
	mov	DWORD PTR [ecx+6828], 5000		; 00001388H
	mov	edx, DWORD PTR _this$[ebp]
	mov	DWORD PTR [edx+6832], 2000		; 000007d0H
	mov	eax, DWORD PTR _this$[ebp]
	mov	DWORD PTR [eax+6836], 1000		; 000003e8H
	mov	ecx, DWORD PTR _this$[ebp]
	mov	DWORD PTR [ecx+6840], 2000		; 000007d0H
	mov	edx, DWORD PTR _this$[ebp]
	mov	DWORD PTR [edx+6844], 0
	mov	eax, DWORD PTR _this$[ebp]
	mov	DWORD PTR [eax+6848], 0
	mov	ecx, DWORD PTR _this$[ebp]
	mov	DWORD PTR [ecx+6852], -60		; ffffffc4H
	mov	edx, DWORD PTR _this$[ebp]
	mov	DWORD PTR [edx+6856], 20		; 00000014H
	mov	eax, DWORD PTR _this$[ebp]
	mov	DWORD PTR [eax+6860], 512		; 00000200H
	mov	ecx, DWORD PTR _this$[ebp]
	mov	DWORD PTR [ecx+6864], 100		; 00000064H
	mov	edx, DWORD PTR _this$[ebp]
	mov	DWORD PTR [edx+6868], 90		; 0000005aH
	mov	eax, DWORD PTR _this$[ebp]
	mov	DWORD PTR [eax+6872], 0
	mov	ecx, DWORD PTR _this$[ebp]
	mov	DWORD PTR [ecx+6876], 10		; 0000000aH
	mov	edx, DWORD PTR _this$[ebp]
	mov	DWORD PTR [edx+6880], 0
	mov	eax, DWORD PTR _this$[ebp]
	mov	DWORD PTR [eax+6884], 0
	mov	ecx, DWORD PTR _this$[ebp]
	mov	DWORD PTR [ecx+6888], 0
	mov	edx, DWORD PTR _this$[ebp]
	mov	DWORD PTR [edx+6892], 1
	mov	eax, DWORD PTR _this$[ebp]
	mov	DWORD PTR [eax+6896], 2
	mov	ecx, DWORD PTR _this$[ebp]
	mov	DWORD PTR [ecx+6900], 0
	mov	edx, DWORD PTR _this$[ebp]
	mov	DWORD PTR [edx+6904], 0
	mov	eax, DWORD PTR _this$[ebp]
	mov	DWORD PTR [eax+6908], 2
	mov	ecx, DWORD PTR _this$[ebp]
	mov	DWORD PTR [ecx+6912], 67		; 00000043H
	mov	edx, DWORD PTR _this$[ebp]
	mov	DWORD PTR [edx+6916], 0
	mov	eax, DWORD PTR _this$[ebp]
	mov	DWORD PTR [eax+6920], 150		; 00000096H
	mov	ecx, DWORD PTR _this$[ebp]
	mov	DWORD PTR [ecx+6924], 0
	mov	edx, DWORD PTR _this$[ebp]
	mov	DWORD PTR [edx+6928], 2
	mov	eax, DWORD PTR _this$[ebp]
	mov	DWORD PTR [eax+6932], 3
	mov	ecx, DWORD PTR _this$[ebp]
	mov	DWORD PTR [ecx+6936], 6
	mov	edx, DWORD PTR _this$[ebp]
	mov	DWORD PTR [edx+6940], -60		; ffffffc4H
	mov	eax, DWORD PTR _this$[ebp]
	mov	DWORD PTR [eax+6944], 0
	mov	ecx, DWORD PTR _this$[ebp]
	mov	DWORD PTR [ecx+6948], -25		; ffffffe7H
	mov	edx, DWORD PTR _this$[ebp]
	mov	DWORD PTR [edx+6952], -25		; ffffffe7H
	mov	eax, DWORD PTR _this$[ebp]
	mov	DWORD PTR [eax+6956], 0
	mov	ecx, DWORD PTR _this$[ebp]
	mov	DWORD PTR [ecx+6960], 0
	mov	edx, DWORD PTR _this$[ebp]
	mov	DWORD PTR [edx+6964], 25		; 00000019H
	mov	eax, DWORD PTR _this$[ebp]
	mov	DWORD PTR [eax+6968], 6
	mov	ecx, DWORD PTR _this$[ebp]
	mov	DWORD PTR [ecx+6972], 5
	mov	edx, DWORD PTR _this$[ebp]
	mov	DWORD PTR [edx+6976], 1
	mov	eax, DWORD PTR _this$[ebp]
	mov	DWORD PTR [eax+6980], 2
	mov	ecx, DWORD PTR _this$[ebp]
	mov	DWORD PTR [ecx+6984], -75		; ffffffb5H
	mov	edx, DWORD PTR _this$[ebp]
	mov	DWORD PTR [edx+6988], 4
	mov	eax, DWORD PTR _this$[ebp]
	mov	DWORD PTR [eax+6992], 10		; 0000000aH
	mov	ecx, DWORD PTR _this$[ebp]
	mov	DWORD PTR [ecx+6996], 1
	mov	edx, DWORD PTR _this$[ebp]
	mov	DWORD PTR [edx+7000], 3
	mov	eax, DWORD PTR _this$[ebp]
	mov	DWORD PTR [eax+7004], 2
	mov	ecx, DWORD PTR _this$[ebp]
	mov	DWORD PTR [ecx+7008], 1
	mov	edx, DWORD PTR _this$[ebp]
	mov	DWORD PTR [edx+7012], 0
	mov	eax, DWORD PTR _this$[ebp]
	mov	DWORD PTR [eax+7016], 4
	mov	ecx, DWORD PTR _this$[ebp]
	mov	DWORD PTR [ecx+7020], 0
	mov	edx, DWORD PTR _this$[ebp]
	mov	DWORD PTR [edx+7024], 1
	mov	eax, DWORD PTR _this$[ebp]
	mov	DWORD PTR [eax+7028], 0
	mov	ecx, DWORD PTR _this$[ebp]
	mov	DWORD PTR [ecx+7032], 33		; 00000021H
	mov	edx, DWORD PTR _this$[ebp]
	mov	DWORD PTR [edx+7036], 2
	mov	eax, DWORD PTR _this$[ebp]
	mov	DWORD PTR [eax+7040], 4
	mov	ecx, DWORD PTR _this$[ebp]
	mov	DWORD PTR [ecx+7044], 7
	mov	edx, DWORD PTR _this$[ebp]
	mov	DWORD PTR [edx+7048], 6
	mov	eax, DWORD PTR _this$[ebp]
	mov	DWORD PTR [eax+7052], 10		; 0000000aH
	mov	ecx, DWORD PTR _this$[ebp]
	mov	DWORD PTR [ecx+7056], 30		; 0000001eH
	mov	edx, DWORD PTR _this$[ebp]
	mov	DWORD PTR [edx+7060], 2
	mov	eax, DWORD PTR _this$[ebp]
	mov	DWORD PTR [eax+7064], 4
	mov	ecx, DWORD PTR _this$[ebp]
	mov	DWORD PTR [ecx+7068], 25		; 00000019H
	mov	edx, DWORD PTR _this$[ebp]
	mov	DWORD PTR [edx+7072], 200		; 000000c8H
	mov	eax, DWORD PTR _this$[ebp]
	mov	DWORD PTR [eax+7076], 100		; 00000064H
	mov	ecx, DWORD PTR _this$[ebp]
	mov	DWORD PTR [ecx+7080], 2
	mov	edx, DWORD PTR _this$[ebp]
	mov	DWORD PTR [edx+7084], 0
	mov	eax, DWORD PTR _this$[ebp]
	mov	DWORD PTR [eax+7088], -1
	mov	ecx, DWORD PTR _this$[ebp]
	mov	DWORD PTR [ecx+7092], 75		; 0000004bH
	mov	edx, DWORD PTR _this$[ebp]
	mov	DWORD PTR [edx+7096], 20		; 00000014H
	mov	eax, DWORD PTR _this$[ebp]
	mov	DWORD PTR [eax+7100], 4
	mov	ecx, DWORD PTR _this$[ebp]
	mov	DWORD PTR [ecx+7104], 100		; 00000064H
	mov	edx, DWORD PTR _this$[ebp]
	mov	DWORD PTR [edx+7108], 100		; 00000064H
	mov	eax, DWORD PTR _this$[ebp]
	mov	DWORD PTR [eax+7112], 10		; 0000000aH
	mov	ecx, DWORD PTR _this$[ebp]
	mov	DWORD PTR [ecx+7116], -50		; ffffffceH
	mov	edx, DWORD PTR _this$[ebp]
	mov	DWORD PTR [edx+7120], 50		; 00000032H
	mov	eax, DWORD PTR _this$[ebp]
	mov	DWORD PTR [eax+7124], 0
	mov	ecx, DWORD PTR _this$[ebp]
	mov	DWORD PTR [ecx+7132], 0
	mov	edx, DWORD PTR _this$[ebp]
	mov	DWORD PTR [edx+7136], 0
	mov	eax, DWORD PTR _this$[ebp]
	mov	DWORD PTR [eax+7140], 4
	mov	ecx, DWORD PTR _this$[ebp]
	mov	DWORD PTR [ecx+7144], 75		; 0000004bH
	mov	edx, DWORD PTR _this$[ebp]
	mov	DWORD PTR [edx+7148], 2
	mov	eax, DWORD PTR _this$[ebp]
	mov	DWORD PTR [eax+7152], 3
	mov	ecx, DWORD PTR _this$[ebp]
	mov	DWORD PTR [ecx+7156], 50		; 00000032H
	mov	edx, DWORD PTR _this$[ebp]
	mov	DWORD PTR [edx+7160], 6
	mov	eax, DWORD PTR _this$[ebp]
	mov	DWORD PTR [eax+7164], 12		; 0000000cH
	mov	ecx, DWORD PTR _this$[ebp]
	mov	DWORD PTR [ecx+7168], 8
	mov	edx, DWORD PTR _this$[ebp]
	mov	DWORD PTR [edx+7172], 2
	mov	eax, DWORD PTR _this$[ebp]
	mov	DWORD PTR [eax+7176], 1
	mov	ecx, DWORD PTR _this$[ebp]
	mov	DWORD PTR [ecx+7180], 1
	mov	edx, DWORD PTR _this$[ebp]
	mov	DWORD PTR [edx+7184], 1
	mov	eax, DWORD PTR _this$[ebp]
	mov	DWORD PTR [eax+7188], 1
	mov	ecx, DWORD PTR _this$[ebp]
	mov	DWORD PTR [ecx+7192], 20		; 00000014H
	mov	edx, DWORD PTR _this$[ebp]
	mov	DWORD PTR [edx+7196], 15		; 0000000fH
	mov	eax, DWORD PTR _this$[ebp]
	mov	DWORD PTR [eax+7200], 6
	mov	ecx, DWORD PTR _this$[ebp]
	mov	DWORD PTR [ecx+7204], 3
	mov	edx, DWORD PTR _this$[ebp]
	mov	DWORD PTR [edx+7208], 2
	mov	eax, DWORD PTR _this$[ebp]
	mov	DWORD PTR [eax+7212], 1
	mov	ecx, DWORD PTR _this$[ebp]
	mov	DWORD PTR [ecx+7216], 1
	mov	edx, DWORD PTR _this$[ebp]
	mov	DWORD PTR [edx+7220], 1
	mov	eax, DWORD PTR _this$[ebp]
	mov	DWORD PTR [eax+7224], 1
	mov	ecx, DWORD PTR _this$[ebp]
	mov	DWORD PTR [ecx+7228], 10		; 0000000aH
	mov	edx, DWORD PTR _this$[ebp]
	mov	DWORD PTR [edx+7232], 12		; 0000000cH
	mov	eax, DWORD PTR _this$[ebp]
	mov	DWORD PTR [eax+7236], 8
	mov	ecx, DWORD PTR _this$[ebp]
	mov	DWORD PTR [ecx+7240], 6
	mov	edx, DWORD PTR _this$[ebp]
	mov	DWORD PTR [edx+7244], 1
	mov	eax, DWORD PTR _this$[ebp]
	mov	DWORD PTR [eax+7248], 1
	mov	ecx, DWORD PTR _this$[ebp]
	mov	DWORD PTR [ecx+7252], 40		; 00000028H
	mov	edx, DWORD PTR _this$[ebp]
	mov	DWORD PTR [edx+7256], 85		; 00000055H
	mov	eax, DWORD PTR _this$[ebp]
	mov	DWORD PTR [eax+7260], -50		; ffffffceH
	mov	ecx, DWORD PTR _this$[ebp]
	mov	DWORD PTR [ecx+7264], 15		; 0000000fH
	mov	edx, DWORD PTR _this$[ebp]
	mov	DWORD PTR [edx+7268], 5
	mov	eax, DWORD PTR _this$[ebp]
	mov	DWORD PTR [eax+7272], 3
	mov	ecx, DWORD PTR _this$[ebp]
	mov	DWORD PTR [ecx+7276], -1000		; fffffc18H
	mov	edx, DWORD PTR _this$[ebp]
	mov	DWORD PTR [edx+7280], 30		; 0000001eH
	mov	eax, DWORD PTR _this$[ebp]
	mov	DWORD PTR [eax+7284], 15		; 0000000fH
	mov	ecx, DWORD PTR _this$[ebp]
	mov	DWORD PTR [ecx+7288], 150		; 00000096H
	mov	edx, DWORD PTR _this$[ebp]
	mov	DWORD PTR [edx+7292], 150		; 00000096H
	mov	eax, DWORD PTR _this$[ebp]
	mov	DWORD PTR [eax+7296], 200		; 000000c8H
	mov	ecx, DWORD PTR _this$[ebp]
	mov	DWORD PTR [ecx+7300], 40		; 00000028H
	mov	edx, DWORD PTR _this$[ebp]
	mov	DWORD PTR [edx+7304], 200		; 000000c8H
	mov	eax, DWORD PTR _this$[ebp]
	mov	DWORD PTR [eax+7308], 150		; 00000096H
	mov	ecx, DWORD PTR _this$[ebp]
	mov	DWORD PTR [ecx+7312], 1000		; 000003e8H
	mov	edx, DWORD PTR _this$[ebp]
	mov	DWORD PTR [edx+7316], 500		; 000001f4H
	mov	eax, DWORD PTR _this$[ebp]
	mov	DWORD PTR [eax+7320], 250		; 000000faH
	mov	ecx, DWORD PTR _this$[ebp]
	mov	DWORD PTR [ecx+7324], 200		; 000000c8H
	mov	edx, DWORD PTR _this$[ebp]
	mov	DWORD PTR [edx+7328], 500		; 000001f4H
	mov	eax, DWORD PTR _this$[ebp]
	mov	DWORD PTR [eax+7332], 5
	mov	ecx, DWORD PTR _this$[ebp]
	mov	DWORD PTR [ecx+7336], 30		; 0000001eH
	mov	edx, DWORD PTR _this$[ebp]
	mov	DWORD PTR [edx+7340], 0
	mov	eax, DWORD PTR _this$[ebp]
	mov	DWORD PTR [eax+7344], 10		; 0000000aH
	mov	ecx, DWORD PTR _this$[ebp]
	mov	DWORD PTR [ecx+7348], -20		; ffffffecH
	mov	edx, DWORD PTR _this$[ebp]
	mov	DWORD PTR [edx+7352], 3
	mov	eax, DWORD PTR _this$[ebp]
	mov	DWORD PTR [eax+7356], 1
	mov	ecx, DWORD PTR _this$[ebp]
	mov	DWORD PTR [ecx+7360], 1
	mov	edx, DWORD PTR _this$[ebp]
	mov	DWORD PTR [edx+7364], 1
	mov	eax, DWORD PTR _this$[ebp]
	mov	DWORD PTR [eax+7368], 10		; 0000000aH
	mov	ecx, DWORD PTR _this$[ebp]
	mov	DWORD PTR [ecx+7372], 200		; 000000c8H
	mov	edx, DWORD PTR _this$[ebp]
	mov	DWORD PTR [edx+7376], 1
	mov	eax, DWORD PTR _this$[ebp]
	mov	DWORD PTR [eax+7380], -33		; ffffffdfH
	mov	ecx, DWORD PTR _this$[ebp]
	mov	DWORD PTR [ecx+7384], 25		; 00000019H
	mov	edx, DWORD PTR _this$[ebp]
	mov	DWORD PTR [edx+7388], -20		; ffffffecH
	mov	eax, DWORD PTR _this$[ebp]
	mov	DWORD PTR [eax+7392], -50		; ffffffceH
	mov	ecx, DWORD PTR _this$[ebp]
	mov	DWORD PTR [ecx+7396], 10		; 0000000aH
	mov	edx, DWORD PTR _this$[ebp]
	mov	DWORD PTR [edx+7400], 10		; 0000000aH
	mov	eax, DWORD PTR _this$[ebp]
	mov	DWORD PTR [eax+7404], 15		; 0000000fH
	mov	ecx, DWORD PTR _this$[ebp]
	mov	DWORD PTR [ecx+7408], 50		; 00000032H
	mov	edx, DWORD PTR _this$[ebp]
	mov	DWORD PTR [edx+7412], 15		; 0000000fH
	mov	eax, DWORD PTR _this$[ebp]
	mov	DWORD PTR [eax+7416], 400		; 00000190H
	mov	ecx, DWORD PTR _this$[ebp]
	mov	DWORD PTR [ecx+7420], 125		; 0000007dH
	mov	edx, DWORD PTR _this$[ebp]
	mov	DWORD PTR [edx+7424], 400		; 00000190H
	mov	eax, DWORD PTR _this$[ebp]
	mov	DWORD PTR [eax+7428], 250		; 000000faH
	mov	ecx, DWORD PTR _this$[ebp]
	mov	DWORD PTR [ecx+7432], 300		; 0000012cH
	mov	edx, DWORD PTR _this$[ebp]
	mov	DWORD PTR [edx+7436], 200		; 000000c8H
	mov	eax, DWORD PTR _this$[ebp]
	mov	DWORD PTR [eax+7440], 200		; 000000c8H
	mov	ecx, DWORD PTR _this$[ebp]
	mov	DWORD PTR [ecx+7444], 400		; 00000190H
	mov	edx, DWORD PTR _this$[ebp]
	mov	DWORD PTR [edx+7448], 300		; 0000012cH
	mov	eax, DWORD PTR _this$[ebp]
	mov	DWORD PTR [eax+7452], 75		; 0000004bH
	mov	ecx, DWORD PTR _this$[ebp]
	mov	DWORD PTR [ecx+7456], 50		; 00000032H
	mov	edx, DWORD PTR _this$[ebp]
	mov	DWORD PTR [edx+7460], -50		; ffffffceH
	mov	eax, DWORD PTR _this$[ebp]
	mov	DWORD PTR [eax+7464], 400		; 00000190H
	mov	ecx, DWORD PTR _this$[ebp]
	mov	DWORD PTR [ecx+7468], 25		; 00000019H
	mov	edx, DWORD PTR _this$[ebp]
	mov	DWORD PTR [edx+7472], 300		; 0000012cH
	mov	eax, DWORD PTR _this$[ebp]
	mov	DWORD PTR [eax+7476], 3
	mov	ecx, DWORD PTR _this$[ebp]
	mov	DWORD PTR [ecx+7480], 50		; 00000032H
	mov	edx, DWORD PTR _this$[ebp]
	mov	DWORD PTR [edx+7484], 100		; 00000064H
	mov	eax, DWORD PTR _this$[ebp]
	mov	DWORD PTR [eax+7488], 2
	mov	ecx, DWORD PTR _this$[ebp]
	mov	DWORD PTR [ecx+7492], 1
	mov	edx, DWORD PTR _this$[ebp]
	mov	DWORD PTR [edx+7496], 40		; 00000028H
	mov	eax, DWORD PTR _this$[ebp]
	mov	DWORD PTR [eax+7500], 1
	mov	ecx, DWORD PTR _this$[ebp]
	mov	DWORD PTR [ecx+7504], 50		; 00000032H
	mov	edx, DWORD PTR _this$[ebp]
	mov	DWORD PTR [edx+7508], 10		; 0000000aH
	mov	eax, DWORD PTR _this$[ebp]
	mov	DWORD PTR [eax+7512], 5
	mov	ecx, DWORD PTR _this$[ebp]
	mov	DWORD PTR [ecx+7516], 4
	mov	edx, DWORD PTR _this$[ebp]
	mov	DWORD PTR [edx+7520], 4
	mov	eax, DWORD PTR _this$[ebp]
	mov	DWORD PTR [eax+7524], 2
	mov	ecx, DWORD PTR _this$[ebp]
	mov	DWORD PTR [ecx+7528], 2
	mov	edx, DWORD PTR _this$[ebp]
	mov	DWORD PTR [edx+7532], 2
	mov	eax, DWORD PTR _this$[ebp]
	mov	DWORD PTR [eax+7536], 5
	mov	ecx, DWORD PTR _this$[ebp]
	mov	DWORD PTR [ecx+7540], 5
	mov	edx, DWORD PTR _this$[ebp]
	mov	DWORD PTR [edx+7544], 2
	mov	eax, DWORD PTR _this$[ebp]
	mov	DWORD PTR [eax+7548], 5
	mov	ecx, DWORD PTR _this$[ebp]
	mov	DWORD PTR [ecx+7552], 3
	mov	edx, DWORD PTR _this$[ebp]
	mov	DWORD PTR [edx+7556], 4
	mov	eax, DWORD PTR _this$[ebp]
	mov	DWORD PTR [eax+7560], 30		; 0000001eH
	mov	ecx, DWORD PTR _this$[ebp]
	mov	DWORD PTR [ecx+7564], 100		; 00000064H
	mov	edx, DWORD PTR _this$[ebp]
	mov	DWORD PTR [edx+7568], 50		; 00000032H
	mov	eax, DWORD PTR _this$[ebp]
	mov	DWORD PTR [eax+7572], 50		; 00000032H
	mov	ecx, DWORD PTR _this$[ebp]
	mov	DWORD PTR [ecx+7576], 200		; 000000c8H
	mov	edx, DWORD PTR _this$[ebp]
	mov	DWORD PTR [edx+7580], 50		; 00000032H
	mov	eax, DWORD PTR _this$[ebp]
	mov	DWORD PTR [eax+7584], 1
	mov	ecx, DWORD PTR _this$[ebp]
	mov	DWORD PTR [ecx+7588], 10		; 0000000aH
	mov	edx, DWORD PTR _this$[ebp]
	mov	DWORD PTR [edx+7592], 5
	mov	eax, DWORD PTR _this$[ebp]
	mov	DWORD PTR [eax+7596], 25		; 00000019H
	mov	ecx, DWORD PTR _this$[ebp]
	mov	DWORD PTR [ecx+7600], 7
	mov	edx, DWORD PTR _this$[ebp]
	mov	DWORD PTR [edx+7604], 11		; 0000000bH
	mov	eax, DWORD PTR _this$[ebp]
	mov	DWORD PTR [eax+7608], 25		; 00000019H
	mov	ecx, DWORD PTR _this$[ebp]
	mov	DWORD PTR [ecx+7612], 20		; 00000014H
	mov	edx, DWORD PTR _this$[ebp]
	mov	DWORD PTR [edx+7616], 10		; 0000000aH
	mov	eax, DWORD PTR _this$[ebp]
	mov	DWORD PTR [eax+7620], 45		; 0000002dH
	mov	ecx, DWORD PTR _this$[ebp]
	mov	DWORD PTR [ecx+7624], 50		; 00000032H
	mov	edx, DWORD PTR _this$[ebp]
	mov	DWORD PTR [edx+7628], 20		; 00000014H
	mov	eax, DWORD PTR _this$[ebp]
	mov	DWORD PTR [eax+7632], 50		; 00000032H
	mov	ecx, DWORD PTR _this$[ebp]
	mov	DWORD PTR [ecx+7636], 5
	mov	edx, DWORD PTR _this$[ebp]
	mov	DWORD PTR [edx+7640], 5
	mov	eax, DWORD PTR _this$[ebp]
	mov	DWORD PTR [eax+7644], 20		; 00000014H
	mov	ecx, DWORD PTR _this$[ebp]
	mov	DWORD PTR [ecx+7648], 10		; 0000000aH
	mov	edx, DWORD PTR _this$[ebp]
	mov	DWORD PTR [edx+7652], 5
	mov	eax, DWORD PTR _this$[ebp]
	mov	DWORD PTR [eax+7656], -85		; ffffffabH
	mov	ecx, DWORD PTR _this$[ebp]
	mov	DWORD PTR [ecx+7660], 150		; 00000096H
	mov	edx, DWORD PTR _this$[ebp]
	mov	DWORD PTR [edx+7664], 3
	mov	eax, DWORD PTR _this$[ebp]
	mov	DWORD PTR [eax+7668], 5
	mov	ecx, DWORD PTR _this$[ebp]
	mov	DWORD PTR [ecx+7672], 100		; 00000064H
	mov	edx, DWORD PTR _this$[ebp]
	mov	DWORD PTR [edx+7676], 50		; 00000032H
	mov	eax, DWORD PTR _this$[ebp]
	mov	DWORD PTR [eax+7680], 3
	mov	ecx, DWORD PTR _this$[ebp]
	mov	DWORD PTR [ecx+7684], 100		; 00000064H
	mov	edx, DWORD PTR _this$[ebp]
	mov	DWORD PTR [edx+7688], 0
	mov	eax, DWORD PTR _this$[ebp]
	mov	DWORD PTR [eax+7692], -5		; fffffffbH
	mov	ecx, DWORD PTR _this$[ebp]
	mov	DWORD PTR [ecx+7696], 0
	mov	edx, DWORD PTR _this$[ebp]
	mov	DWORD PTR [edx+7700], -105		; ffffff97H
	mov	eax, DWORD PTR _this$[ebp]
	mov	DWORD PTR [eax+7704], -105		; ffffff97H
	mov	ecx, DWORD PTR _this$[ebp]
	mov	DWORD PTR [ecx+7708], -100		; ffffff9cH
	mov	edx, DWORD PTR _this$[ebp]
	mov	DWORD PTR [edx+7712], 10		; 0000000aH
	mov	eax, DWORD PTR _this$[ebp]
	mov	DWORD PTR [eax+7716], -1
	mov	ecx, DWORD PTR _this$[ebp]
	mov	DWORD PTR [ecx+7720], 1000		; 000003e8H
	mov	edx, DWORD PTR _this$[ebp]
	mov	DWORD PTR [edx+7724], 10		; 0000000aH
	mov	eax, DWORD PTR _this$[ebp]
	mov	DWORD PTR [eax+7728], 1
	mov	ecx, DWORD PTR _this$[ebp]
	mov	DWORD PTR [ecx+7732], 28		; 0000001cH
	mov	edx, DWORD PTR _this$[ebp]
	mov	DWORD PTR [edx+7736], 35		; 00000023H
	mov	eax, DWORD PTR _this$[ebp]
	mov	DWORD PTR [eax+7740], 67		; 00000043H
	mov	ecx, DWORD PTR _this$[ebp]
	mov	DWORD PTR [ecx+7744], 10		; 0000000aH
	mov	edx, DWORD PTR _this$[ebp]
	mov	DWORD PTR [edx+7748], 3
	mov	eax, DWORD PTR _this$[ebp]
	mov	DWORD PTR [eax+7752], 1
	mov	ecx, DWORD PTR _this$[ebp]
	mov	DWORD PTR [ecx+7756], 40		; 00000028H
	mov	edx, DWORD PTR _this$[ebp]
	mov	DWORD PTR [edx+7760], 4
	mov	eax, DWORD PTR _this$[ebp]
	mov	DWORD PTR [eax+7764], 10		; 0000000aH
	mov	ecx, DWORD PTR _this$[ebp]
	mov	DWORD PTR [ecx+7768], 4
	mov	edx, DWORD PTR _this$[ebp]
	mov	DWORD PTR [edx+7772], 4
	mov	eax, DWORD PTR _this$[ebp]
	mov	DWORD PTR [eax+7776], 20		; 00000014H
	mov	ecx, DWORD PTR _this$[ebp]
	mov	DWORD PTR [ecx+7780], 1
	mov	edx, DWORD PTR _this$[ebp]
	mov	DWORD PTR [edx+7784], 1
	mov	eax, DWORD PTR _this$[ebp]
	mov	DWORD PTR [eax+7788], 10		; 0000000aH
	mov	ecx, DWORD PTR _this$[ebp]
	mov	DWORD PTR [ecx+7792], 5
	mov	edx, DWORD PTR _this$[ebp]
	mov	DWORD PTR [edx+7796], 5
	mov	eax, DWORD PTR _this$[ebp]
	mov	DWORD PTR [eax+7800], 5
	mov	ecx, DWORD PTR _this$[ebp]
	mov	DWORD PTR [ecx+7804], 3
	mov	edx, DWORD PTR _this$[ebp]
	mov	DWORD PTR [edx+7808], 3
	mov	eax, DWORD PTR _this$[ebp]
	mov	DWORD PTR [eax+7812], 25		; 00000019H
	mov	ecx, DWORD PTR _this$[ebp]
	mov	DWORD PTR [ecx+7816], 0
	mov	edx, DWORD PTR _this$[ebp]
	mov	DWORD PTR [edx+7820], 0
	mov	eax, DWORD PTR _this$[ebp]
	mov	DWORD PTR [eax+7824], 2
	mov	ecx, DWORD PTR _this$[ebp]
	mov	DWORD PTR [ecx+7828], 0
	mov	edx, DWORD PTR _this$[ebp]
	mov	DWORD PTR [edx+7832], 10		; 0000000aH
	mov	eax, DWORD PTR _this$[ebp]
	mov	DWORD PTR [eax+7836], 10		; 0000000aH
	mov	ecx, DWORD PTR _this$[ebp]
	mov	DWORD PTR [ecx+7840], 0
	mov	edx, DWORD PTR _this$[ebp]
	mov	DWORD PTR [edx+7844], 0
	mov	eax, DWORD PTR _this$[ebp]
	mov	DWORD PTR [eax+7848], 0
	mov	ecx, DWORD PTR _this$[ebp]
	mov	DWORD PTR [ecx+7852], 5
	mov	edx, DWORD PTR _this$[ebp]
	mov	DWORD PTR [edx+7856], 10		; 0000000aH
	mov	eax, DWORD PTR _this$[ebp]
	mov	DWORD PTR [eax+7860], 0
	mov	ecx, DWORD PTR _this$[ebp]
	mov	DWORD PTR [ecx+7864], 0
	mov	edx, DWORD PTR _this$[ebp]
	mov	DWORD PTR [edx+7868], 0
	mov	eax, DWORD PTR _this$[ebp]
	mov	DWORD PTR [eax+7872], 0
	mov	ecx, DWORD PTR _this$[ebp]
	mov	DWORD PTR [ecx+7876], 0
	mov	edx, DWORD PTR _this$[ebp]
	mov	DWORD PTR [edx+7880], 0
	mov	eax, DWORD PTR _this$[ebp]
	mov	DWORD PTR [eax+7884], 0
	mov	ecx, DWORD PTR _this$[ebp]
	mov	DWORD PTR [ecx+7888], 0
	mov	edx, DWORD PTR _this$[ebp]
	mov	DWORD PTR [edx+7892], 0
	mov	eax, DWORD PTR _this$[ebp]
	mov	DWORD PTR [eax+7896], 0
	mov	ecx, DWORD PTR _this$[ebp]
	mov	DWORD PTR [ecx+7900], 0
	mov	edx, DWORD PTR _this$[ebp]
	mov	DWORD PTR [edx+7904], 0
	mov	eax, DWORD PTR _this$[ebp]
	mov	DWORD PTR [eax+7908], 0
	mov	ecx, DWORD PTR _this$[ebp]
	mov	DWORD PTR [ecx+7912], 0
	mov	edx, DWORD PTR _this$[ebp]
	mov	DWORD PTR [edx+7916], 0
	mov	eax, DWORD PTR _this$[ebp]
	mov	DWORD PTR [eax+7920], 0
	mov	ecx, DWORD PTR _this$[ebp]
	mov	DWORD PTR [ecx+7924], 0
	mov	edx, DWORD PTR _this$[ebp]
	mov	DWORD PTR [edx+7928], 0
	mov	eax, DWORD PTR _this$[ebp]
	mov	DWORD PTR [eax+7932], 0
	mov	ecx, DWORD PTR _this$[ebp]
	mov	DWORD PTR [ecx+7936], 0
	mov	edx, DWORD PTR _this$[ebp]
	mov	DWORD PTR [edx+7940], 0
	mov	eax, DWORD PTR _this$[ebp]
	mov	DWORD PTR [eax+7944], 0
	mov	ecx, DWORD PTR _this$[ebp]
	mov	DWORD PTR [ecx+7948], 0
	mov	edx, DWORD PTR _this$[ebp]
	mov	DWORD PTR [edx+7952], 10		; 0000000aH
	mov	eax, DWORD PTR _this$[ebp]
	mov	DWORD PTR [eax+7956], 100		; 00000064H
	mov	ecx, DWORD PTR _this$[ebp]
	mov	DWORD PTR [ecx+7960], 200		; 000000c8H
	mov	edx, DWORD PTR _this$[ebp]
	mov	DWORD PTR [edx+7964], 20		; 00000014H
	mov	eax, DWORD PTR _this$[ebp]
	mov	DWORD PTR [eax+7968], 50		; 00000032H
	mov	ecx, DWORD PTR _this$[ebp]
	mov	DWORD PTR [ecx+7972], 10		; 0000000aH
	mov	edx, DWORD PTR _this$[ebp]
	mov	DWORD PTR [edx+7976], 80		; 00000050H
	mov	eax, DWORD PTR _this$[ebp]
	mov	DWORD PTR [eax+7980], 40		; 00000028H
	mov	ecx, DWORD PTR _this$[ebp]
	movss	xmm0, DWORD PTR __real@3fb8b439
	movss	DWORD PTR [ecx+7984], xmm0
	mov	edx, DWORD PTR _this$[ebp]
	movss	xmm0, DWORD PTR __real@40e00000
	movss	DWORD PTR [edx+7988], xmm0
	mov	eax, DWORD PTR _this$[ebp]
	movss	xmm0, DWORD PTR __real@41802f1b
	movss	DWORD PTR [eax+7992], xmm0
	mov	ecx, DWORD PTR _this$[ebp]
	movss	xmm0, DWORD PTR __real@c15bced9
	movss	DWORD PTR [ecx+7996], xmm0
	mov	edx, DWORD PTR _this$[ebp]
	movss	xmm0, DWORD PTR __real@3c75c28f
	movss	DWORD PTR [edx+8000], xmm0
	mov	eax, DWORD PTR _this$[ebp]
	movss	xmm0, DWORD PTR __real@3e19999a
	movss	DWORD PTR [eax+8004], xmm0
	mov	ecx, DWORD PTR _this$[ebp]
	movss	xmm0, DWORD PTR __real@3c75c28f
	movss	DWORD PTR [ecx+8008], xmm0
	mov	edx, DWORD PTR _this$[ebp]
	movss	xmm0, DWORD PTR __real@3e19999a
	movss	DWORD PTR [edx+8012], xmm0
	mov	eax, DWORD PTR _this$[ebp]
	movss	xmm0, DWORD PTR __real@3f733333
	movss	DWORD PTR [eax+8016], xmm0
	mov	ecx, DWORD PTR _this$[ebp]
	movss	xmm0, DWORD PTR __real@43fa0000
	movss	DWORD PTR [ecx+8020], xmm0
	mov	edx, DWORD PTR _this$[ebp]
	movss	xmm0, DWORD PTR __real@442f0000
	movss	DWORD PTR [edx+8024], xmm0
	mov	eax, DWORD PTR _this$[ebp]
	movss	xmm0, DWORD PTR __real@44480000
	movss	DWORD PTR [eax+8028], xmm0
	mov	ecx, DWORD PTR _this$[ebp]
	movss	xmm0, DWORD PTR __real@41a00000
	movss	DWORD PTR [ecx+8032], xmm0
	mov	edx, DWORD PTR _this$[ebp]
	movss	xmm0, DWORD PTR __real@3f8ccccd
	movss	DWORD PTR [edx+8036], xmm0
	mov	eax, DWORD PTR _this$[ebp]
	movss	xmm0, DWORD PTR __real@3f800000
	movss	DWORD PTR [eax+8040], xmm0
	mov	ecx, DWORD PTR _this$[ebp]
	movss	xmm0, DWORD PTR __real@3e4ccccd
	movss	DWORD PTR [ecx+8044], xmm0
	mov	edx, DWORD PTR _this$[ebp]
	movss	xmm0, DWORD PTR __real@3f800000
	movss	DWORD PTR [edx+8048], xmm0
	mov	eax, DWORD PTR _this$[ebp]
	movss	xmm0, DWORD PTR __real@3e4ccccd
	movss	DWORD PTR [eax+8052], xmm0
	mov	ecx, DWORD PTR _this$[ebp]
	movss	xmm0, DWORD PTR __real@3dcccccd
	movss	DWORD PTR [ecx+8056], xmm0
	mov	edx, DWORD PTR _this$[ebp]
	movss	xmm0, DWORD PTR __real@3f000000
	movss	DWORD PTR [edx+8060], xmm0
	mov	eax, DWORD PTR _this$[ebp]
	movss	xmm0, DWORD PTR __real@3f666666
	movss	DWORD PTR [eax+8064], xmm0
	mov	ecx, DWORD PTR _this$[ebp]
	movss	xmm0, DWORD PTR __real@00000000
	movss	DWORD PTR [ecx+8068], xmm0
	mov	edx, DWORD PTR _this$[ebp]
	movss	xmm0, DWORD PTR __real@3dcccccd
	movss	DWORD PTR [edx+8072], xmm0
	mov	eax, DWORD PTR _this$[ebp]
	movss	xmm0, DWORD PTR __real@3dcccccd
	movss	DWORD PTR [eax+8076], xmm0
	mov	ecx, DWORD PTR _this$[ebp]
	movss	xmm0, DWORD PTR __real@00000000
	movss	DWORD PTR [ecx+8080], xmm0
	mov	edx, DWORD PTR _this$[ebp]
	movss	xmm0, DWORD PTR __real@3f666666
	movss	DWORD PTR [edx+8084], xmm0
	mov	eax, DWORD PTR _this$[ebp]
	movss	xmm0, DWORD PTR __real@3f800000
	movss	DWORD PTR [eax+8088], xmm0
	mov	ecx, DWORD PTR _this$[ebp]
	movss	xmm0, DWORD PTR __real@40066666
	movss	DWORD PTR [ecx+8092], xmm0
	mov	edx, DWORD PTR _this$[ebp]
	movss	xmm0, DWORD PTR __real@3f8ccccd
	movss	DWORD PTR [edx+8096], xmm0
	mov	eax, DWORD PTR _this$[ebp]
	movss	xmm0, DWORD PTR __real@3e99999a
	movss	DWORD PTR [eax+8100], xmm0
	mov	ecx, DWORD PTR _this$[ebp]
	movss	xmm0, DWORD PTR __real@3f800000
	movss	DWORD PTR [ecx+8104], xmm0
	mov	edx, DWORD PTR _this$[ebp]
	movss	xmm0, DWORD PTR __real@3f2b851f
	movss	DWORD PTR [edx+8108], xmm0
	mov	eax, DWORD PTR _this$[ebp]
	movss	xmm0, DWORD PTR __real@3f8147ae
	movss	DWORD PTR [eax+8112], xmm0
	mov	ecx, DWORD PTR _this$[ebp]
	movss	xmm0, DWORD PTR __real@40c9999a
	movss	DWORD PTR [ecx+8116], xmm0
	mov	edx, DWORD PTR _this$[ebp]
	movss	xmm0, DWORD PTR __real@3f8ccccd
	movss	DWORD PTR [edx+8120], xmm0
	mov	eax, DWORD PTR _this$[ebp]
	movss	xmm0, DWORD PTR __real@3f8ccccd
	movss	DWORD PTR [eax+8124], xmm0
	mov	ecx, DWORD PTR _this$[ebp]
	movss	xmm0, DWORD PTR __real@40c00000
	movss	DWORD PTR [ecx+8128], xmm0
	mov	edx, DWORD PTR _this$[ebp]
	movss	xmm0, DWORD PTR __real@3fe66666
	movss	DWORD PTR [edx+8132], xmm0
	mov	eax, DWORD PTR _this$[ebp]
	movss	xmm0, DWORD PTR __real@3fd9999a
	movss	DWORD PTR [eax+8136], xmm0
	mov	ecx, DWORD PTR _this$[ebp]
	movss	xmm0, DWORD PTR __real@00000000
	movss	DWORD PTR [ecx+8140], xmm0
	mov	edx, DWORD PTR _this$[ebp]
	movss	xmm0, DWORD PTR __real@3f800000
	movss	DWORD PTR [edx+8144], xmm0
	mov	eax, DWORD PTR _this$[ebp]
	movss	xmm0, DWORD PTR __real@40a00000
	movss	DWORD PTR [eax+8148], xmm0
	mov	ecx, DWORD PTR _this$[ebp]
	movss	xmm0, DWORD PTR __real@3fe66666
	movss	DWORD PTR [ecx+8152], xmm0
	mov	edx, DWORD PTR _this$[ebp]
	movss	xmm0, DWORD PTR __real@3f800000
	movss	DWORD PTR [edx+8156], xmm0
	mov	eax, DWORD PTR _this$[ebp]
	movss	xmm0, DWORD PTR __real@3f800000
	movss	DWORD PTR [eax+8160], xmm0
	mov	ecx, DWORD PTR _this$[ebp]
	movss	xmm0, DWORD PTR __real@3f800000
	movss	DWORD PTR [ecx+8164], xmm0
	mov	edx, DWORD PTR _this$[ebp]
	movss	xmm0, DWORD PTR __real@3f800000
	movss	DWORD PTR [edx+8168], xmm0
	mov	eax, DWORD PTR _this$[ebp]
	movss	xmm0, DWORD PTR __real@3f800000
	movss	DWORD PTR [eax+8172], xmm0
	mov	ecx, DWORD PTR _this$[ebp]
	movss	xmm0, DWORD PTR __real@3f800000
	movss	DWORD PTR [ecx+8176], xmm0
	mov	edx, DWORD PTR _this$[ebp]
	movss	xmm0, DWORD PTR __real@3f800000
	movss	DWORD PTR [edx+8180], xmm0
	mov	eax, DWORD PTR _this$[ebp]
	mov	DWORD PTR [eax+8184], 25		; 00000019H
	mov	ecx, DWORD PTR _this$[ebp]
	mov	DWORD PTR [ecx+8188], 1
	mov	edx, DWORD PTR _this$[ebp]
	movss	xmm0, DWORD PTR __real@411ae148
	movss	DWORD PTR [edx+8200], xmm0
	mov	eax, DWORD PTR _this$[ebp]
	movss	xmm0, DWORD PTR __real@c2e423d7
	movss	DWORD PTR [eax+8204], xmm0
	mov	ecx, DWORD PTR _this$[ebp]
	mov	DWORD PTR [ecx+8208], 2
	mov	edx, DWORD PTR _this$[ebp]
	mov	DWORD PTR [edx+8212], 2
	mov	eax, DWORD PTR _this$[ebp]
	mov	DWORD PTR [eax+8216], 25		; 00000019H
	mov	ecx, DWORD PTR _this$[ebp]
	mov	DWORD PTR [ecx+8220], 25		; 00000019H
	mov	edx, DWORD PTR _this$[ebp]
	mov	DWORD PTR [edx+8224], 25		; 00000019H
	mov	eax, DWORD PTR _this$[ebp]
	mov	DWORD PTR [eax+8228], -50		; ffffffceH
	mov	ecx, DWORD PTR _this$[ebp]
	mov	DWORD PTR [ecx+8232], 25		; 00000019H
	mov	edx, DWORD PTR _this$[ebp]
	mov	DWORD PTR [edx+8236], 100		; 00000064H
	mov	eax, DWORD PTR _this$[ebp]
	mov	DWORD PTR [eax+8240], 5
	mov	ecx, DWORD PTR _this$[ebp]
	mov	DWORD PTR [ecx+8244], 10		; 0000000aH
	mov	edx, DWORD PTR _this$[ebp]
	mov	DWORD PTR [edx+8248], 15		; 0000000fH
	mov	eax, DWORD PTR _this$[ebp]
	mov	DWORD PTR [eax+8252], 20		; 00000014H
	mov	ecx, DWORD PTR _this$[ebp]
	mov	DWORD PTR [ecx+8256], 50		; 00000032H
	mov	edx, DWORD PTR _this$[ebp]
	mov	DWORD PTR [edx+8260], 5
	mov	eax, DWORD PTR _this$[ebp]
	mov	DWORD PTR [eax+8264], 8
	mov	ecx, DWORD PTR _this$[ebp]
	mov	DWORD PTR [ecx+8268], 30		; 0000001eH
	mov	edx, DWORD PTR _this$[ebp]
	mov	DWORD PTR [edx+8272], 30		; 0000001eH
	mov	eax, DWORD PTR _this$[ebp]
	mov	DWORD PTR [eax+8276], 50		; 00000032H
	mov	ecx, DWORD PTR _this$[ebp]
	mov	DWORD PTR [ecx+8280], 2
	mov	edx, DWORD PTR _this$[ebp]
	mov	DWORD PTR [edx+8284], 50		; 00000032H
	mov	eax, DWORD PTR _this$[ebp]
	mov	DWORD PTR [eax+8288], 250		; 000000faH
	mov	ecx, DWORD PTR _this$[ebp]
	mov	DWORD PTR [ecx+8292], 5
	mov	edx, DWORD PTR _this$[ebp]
	mov	DWORD PTR [edx+8296], 25		; 00000019H
	mov	eax, DWORD PTR _this$[ebp]
	mov	DWORD PTR [eax+8300], 100		; 00000064H
	mov	ecx, DWORD PTR _this$[ebp]
	mov	DWORD PTR [ecx+8304], 100		; 00000064H
	mov	edx, DWORD PTR _this$[ebp]
	mov	DWORD PTR [edx+8308], 30		; 0000001eH
	mov	eax, DWORD PTR _this$[ebp]
	mov	DWORD PTR [eax+8312], 5
	mov	ecx, DWORD PTR _this$[ebp]
	mov	DWORD PTR [ecx+8316], 1
	mov	edx, DWORD PTR _this$[ebp]
	mov	DWORD PTR [edx+8320], 1
	mov	eax, DWORD PTR _this$[ebp]
	mov	DWORD PTR [eax+8324], 1
	mov	ecx, DWORD PTR _this$[ebp]
	mov	DWORD PTR [ecx+8328], 1
	mov	edx, DWORD PTR _this$[ebp]
	movss	xmm0, DWORD PTR __real@3f000000
	movss	DWORD PTR [edx+8332], xmm0
	mov	eax, DWORD PTR _this$[ebp]
	movss	xmm0, DWORD PTR __real@3f800000
	movss	DWORD PTR [eax+8336], xmm0
	mov	ecx, DWORD PTR _this$[ebp]
	mov	DWORD PTR [ecx+8340], -1
	mov	edx, DWORD PTR _this$[ebp]
	mov	DWORD PTR [edx+8344], 25		; 00000019H
	mov	eax, DWORD PTR _this$[ebp]
	mov	DWORD PTR [eax+8348], 1
	mov	ecx, DWORD PTR _this$[ebp]
	mov	DWORD PTR [ecx+8352], 1
	mov	edx, DWORD PTR _this$[ebp]
	mov	DWORD PTR [edx+8356], 4
	mov	eax, DWORD PTR _this$[ebp]
	mov	DWORD PTR [eax+8360], 4
	mov	ecx, DWORD PTR _this$[ebp]
	mov	DWORD PTR [ecx+8364], 2
	mov	edx, DWORD PTR _this$[ebp]
	mov	DWORD PTR [edx+8368], 3
	mov	eax, DWORD PTR _this$[ebp]
	mov	DWORD PTR [eax+8372], 6
	mov	ecx, DWORD PTR _this$[ebp]
	mov	DWORD PTR [ecx+8376], 9
	mov	edx, DWORD PTR _this$[ebp]
	mov	DWORD PTR [edx+8380], 11		; 0000000bH
	mov	eax, DWORD PTR _this$[ebp]
	mov	DWORD PTR [eax+8384], 10		; 0000000aH
	mov	ecx, DWORD PTR _this$[ebp]
	mov	DWORD PTR [ecx+8388], 0
	mov	edx, DWORD PTR _this$[ebp]
	mov	DWORD PTR [edx+8392], 6
	mov	eax, DWORD PTR _this$[ebp]
	mov	DWORD PTR [eax+8396], 5
	mov	ecx, DWORD PTR _this$[ebp]
	mov	DWORD PTR [ecx+8400], 0
	mov	edx, DWORD PTR _this$[ebp]
	mov	DWORD PTR [edx+8404], 6
	mov	eax, DWORD PTR _this$[ebp]
	mov	DWORD PTR [eax+8408], 35		; 00000023H
	mov	ecx, DWORD PTR _this$[ebp]
	mov	DWORD PTR [ecx+8412], 39		; 00000027H
	mov	edx, DWORD PTR _this$[ebp]
	mov	DWORD PTR [edx+8416], 28		; 0000001cH
	mov	eax, DWORD PTR _this$[ebp]
	mov	DWORD PTR [eax+8420], 0
	mov	ecx, DWORD PTR _this$[ebp]
	mov	DWORD PTR [ecx+8424], 1
	mov	edx, DWORD PTR _this$[ebp]
	mov	DWORD PTR [edx+8428], 2
	mov	eax, DWORD PTR _this$[ebp]
	mov	DWORD PTR [eax+8432], 5
	mov	ecx, DWORD PTR _this$[ebp]
	mov	DWORD PTR [ecx+8436], 3
	mov	edx, DWORD PTR _this$[ebp]
	mov	DWORD PTR [edx+8440], 4
	mov	eax, DWORD PTR _this$[ebp]
	mov	DWORD PTR [eax+8444], 0
	mov	ecx, DWORD PTR _this$[ebp]
	mov	DWORD PTR [ecx+8448], 0
	mov	edx, DWORD PTR _this$[ebp]
	mov	DWORD PTR [edx+8452], 1
	mov	eax, DWORD PTR _this$[ebp]
	mov	DWORD PTR [eax+8456], 3
	mov	ecx, DWORD PTR _this$[ebp]
	mov	DWORD PTR [ecx+8460], 1
	mov	edx, DWORD PTR _this$[ebp]
	mov	DWORD PTR [edx+8464], 2
	mov	eax, DWORD PTR _this$[ebp]
	mov	DWORD PTR [eax+8468], 3
	mov	ecx, DWORD PTR _this$[ebp]
	mov	DWORD PTR [ecx+8472], 0
	mov	edx, DWORD PTR _this$[ebp]
	mov	DWORD PTR [edx+8476], 3
	mov	eax, DWORD PTR _this$[ebp]
	mov	DWORD PTR [eax+8480], 1
	mov	ecx, DWORD PTR _this$[ebp]
	mov	DWORD PTR [ecx+8484], 0
	mov	edx, DWORD PTR _this$[ebp]
	mov	DWORD PTR [edx+8488], 4
	mov	eax, DWORD PTR _this$[ebp]
	mov	DWORD PTR [eax+8492], 4
	mov	ecx, DWORD PTR _this$[ebp]
	mov	DWORD PTR [ecx+8496], 5
	mov	edx, DWORD PTR _this$[ebp]
	mov	DWORD PTR [edx+8500], 0
	mov	eax, DWORD PTR _this$[ebp]
	mov	DWORD PTR [eax+8504], 1
	mov	ecx, DWORD PTR _this$[ebp]
	mov	DWORD PTR [ecx+8508], 19		; 00000013H
	mov	edx, DWORD PTR _this$[ebp]
	mov	DWORD PTR [edx+8512], 19		; 00000013H
	mov	eax, DWORD PTR _this$[ebp]
	mov	DWORD PTR [eax+8516], 3
	mov	ecx, DWORD PTR _this$[ebp]
	mov	DWORD PTR [ecx+8520], 18		; 00000012H
	mov	edx, DWORD PTR _this$[ebp]
	mov	DWORD PTR [edx+8524], 76		; 0000004cH
	mov	eax, DWORD PTR _this$[ebp]
	mov	DWORD PTR [eax+8528], 77		; 0000004dH
	mov	ecx, DWORD PTR _this$[ebp]
	mov	DWORD PTR [ecx+8532], 146		; 00000092H
	mov	edx, DWORD PTR _this$[ebp]
	mov	DWORD PTR [edx+8536], 115		; 00000073H
	mov	eax, DWORD PTR _this$[ebp]
	mov	DWORD PTR [eax+8540], 116		; 00000074H
	mov	ecx, DWORD PTR _this$[ebp]
	mov	DWORD PTR [ecx+8544], 8
	mov	edx, DWORD PTR _this$[ebp]
	mov	DWORD PTR [edx+8548], 1
	mov	eax, DWORD PTR _this$[ebp]
	mov	DWORD PTR [eax+8552], -1
	mov	ecx, DWORD PTR _this$[ebp]
	mov	DWORD PTR [ecx+8556], -1
	mov	edx, DWORD PTR _this$[ebp]
	mov	DWORD PTR [edx+8560], -1
	mov	eax, DWORD PTR _this$[ebp]
	mov	DWORD PTR [eax+8564], 0
	mov	ecx, DWORD PTR _this$[ebp]
	mov	DWORD PTR [ecx+8568], 0

; 1937 : }

	mov	DWORD PTR __$EHRec$[ebp+8], -1
	mov	eax, DWORD PTR _this$[ebp]
	mov	ecx, DWORD PTR __$EHRec$[ebp]
	mov	DWORD PTR fs:0, ecx
	pop	ecx
	mov	esp, ebp
	pop	ebp
	ret	0
_TEXT	ENDS
;	COMDAT text$x
text$x	SEGMENT
__unwindfunclet$??0CvGlobals@@QAE@XZ$43:
	mov	ecx, DWORD PTR $T253911[ebp]
	jmp	??1?$_Vector_val@PAVCvInterfaceModeInfo@@V?$allocator@PAVCvInterfaceModeInfo@@@std@@@std@@QAE@XZ
__unwindfunclet$??0CvGlobals@@QAE@XZ$0:
	mov	ecx, DWORD PTR _this$[ebp]
	add	ecx, 896				; 00000380H
	jmp	??1?$vector@PAVCvInterfaceModeInfo@@V?$allocator@PAVCvInterfaceModeInfo@@@std@@@std@@QAE@XZ ; std::vector<CvInterfaceModeInfo *,std::allocator<CvInterfaceModeInfo *> >::~vector<CvInterfaceModeInfo *,std::allocator<CvInterfaceModeInfo *> >
__unwindfunclet$??0CvGlobals@@QAE@XZ$1:
	mov	ecx, DWORD PTR _this$[ebp]
	add	ecx, 916				; 00000394H
	jmp	DWORD PTR __imp_??1Results@Database@@UAE@XZ
__unwindfunclet$??0CvGlobals@@QAE@XZ$2:
	mov	ecx, DWORD PTR _this$[ebp]
	add	ecx, 980				; 000003d4H
	jmp	??1?$hash_map@V?$basic_string@DU?$char_traits@D@std@@V?$allocator@D@2@@std@@HV?$hash_compare@V?$basic_string@DU?$char_traits@D@std@@V?$allocator@D@2@@std@@U?$less@V?$basic_string@DU?$char_traits@D@std@@V?$allocator@D@2@@std@@@2@@stdext@@V?$allocator@U?$pair@$$CBV?$basic_string@DU?$char_traits@D@std@@V?$allocator@D@2@@std@@H@std@@@2@@stdext@@QAE@XZ
__unwindfunclet$??0CvGlobals@@QAE@XZ$3:
	mov	ecx, DWORD PTR _this$[ebp]
	add	ecx, 1024				; 00000400H
	jmp	??1?$map@IHU?$less@I@std@@V?$allocator@U?$pair@$$CBIH@std@@@2@@std@@QAE@XZ
__unwindfunclet$??0CvGlobals@@QAE@XZ$58:
	mov	ecx, DWORD PTR $T254273[ebp]
	jmp	??1?$_Vector_val@PAVCvColorInfo@@V?$allocator@PAVCvColorInfo@@@std@@@std@@QAE@XZ
__unwindfunclet$??0CvGlobals@@QAE@XZ$4:
	mov	ecx, DWORD PTR _this$[ebp]
	add	ecx, 1036				; 0000040cH
	jmp	??1?$vector@PAVCvColorInfo@@V?$allocator@PAVCvColorInfo@@@std@@@std@@QAE@XZ ; std::vector<CvColorInfo *,std::allocator<CvColorInfo *> >::~vector<CvColorInfo *,std::allocator<CvColorInfo *> >
__unwindfunclet$??0CvGlobals@@QAE@XZ$62:
	mov	ecx, DWORD PTR $T254353[ebp]
	jmp	??1?$_Vector_val@PAVCvPlayerColorInfo@@V?$allocator@PAVCvPlayerColorInfo@@@std@@@std@@QAE@XZ
__unwindfunclet$??0CvGlobals@@QAE@XZ$5:
	mov	ecx, DWORD PTR _this$[ebp]
	add	ecx, 1052				; 0000041cH
	jmp	??1?$vector@PAVCvPlayerColorInfo@@V?$allocator@PAVCvPlayerColorInfo@@@std@@@std@@QAE@XZ ; std::vector<CvPlayerColorInfo *,std::allocator<CvPlayerColorInfo *> >::~vector<CvPlayerColorInfo *,std::allocator<CvPlayerColorInfo *> >
__unwindfunclet$??0CvGlobals@@QAE@XZ$66:
	mov	ecx, DWORD PTR $T254433[ebp]
	jmp	??1?$_Vector_val@PAVCvTerrainInfo@@V?$allocator@PAVCvTerrainInfo@@@std@@@std@@QAE@XZ
__unwindfunclet$??0CvGlobals@@QAE@XZ$6:
	mov	ecx, DWORD PTR _this$[ebp]
	add	ecx, 1068				; 0000042cH
	jmp	??1?$vector@PAVCvTerrainInfo@@V?$allocator@PAVCvTerrainInfo@@@std@@@std@@QAE@XZ ; std::vector<CvTerrainInfo *,std::allocator<CvTerrainInfo *> >::~vector<CvTerrainInfo *,std::allocator<CvTerrainInfo *> >
__unwindfunclet$??0CvGlobals@@QAE@XZ$70:
	mov	ecx, DWORD PTR $T254513[ebp]
	jmp	??1?$_Vector_val@PAVCvYieldInfo@@V?$allocator@PAVCvYieldInfo@@@std@@@std@@QAE@XZ
__unwindfunclet$??0CvGlobals@@QAE@XZ$7:
	mov	ecx, DWORD PTR _this$[ebp]
	add	ecx, 1084				; 0000043cH
	jmp	??1?$vector@PAVCvYieldInfo@@V?$allocator@PAVCvYieldInfo@@@std@@@std@@QAE@XZ ; std::vector<CvYieldInfo *,std::allocator<CvYieldInfo *> >::~vector<CvYieldInfo *,std::allocator<CvYieldInfo *> >
__unwindfunclet$??0CvGlobals@@QAE@XZ$74:
	mov	ecx, DWORD PTR $T254593[ebp]
	jmp	??1?$_Vector_val@PAVCvRouteInfo@@V?$allocator@PAVCvRouteInfo@@@std@@@std@@QAE@XZ
__unwindfunclet$??0CvGlobals@@QAE@XZ$8:
	mov	ecx, DWORD PTR _this$[ebp]
	add	ecx, 1100				; 0000044cH
	jmp	??1?$vector@PAVCvRouteInfo@@V?$allocator@PAVCvRouteInfo@@@std@@@std@@QAE@XZ ; std::vector<CvRouteInfo *,std::allocator<CvRouteInfo *> >::~vector<CvRouteInfo *,std::allocator<CvRouteInfo *> >
__unwindfunclet$??0CvGlobals@@QAE@XZ$78:
	mov	ecx, DWORD PTR $T254673[ebp]
	jmp	??1?$_Vector_val@PAVCvFeatureInfo@@V?$allocator@PAVCvFeatureInfo@@@std@@@std@@QAE@XZ
__unwindfunclet$??0CvGlobals@@QAE@XZ$9:
	mov	ecx, DWORD PTR _this$[ebp]
	add	ecx, 1116				; 0000045cH
	jmp	??1?$vector@PAVCvFeatureInfo@@V?$allocator@PAVCvFeatureInfo@@@std@@@std@@QAE@XZ ; std::vector<CvFeatureInfo *,std::allocator<CvFeatureInfo *> >::~vector<CvFeatureInfo *,std::allocator<CvFeatureInfo *> >
__unwindfunclet$??0CvGlobals@@QAE@XZ$82:
	mov	ecx, DWORD PTR $T254753[ebp]
	jmp	??1?$_Vector_val@PAVCvResourceClassInfo@@V?$allocator@PAVCvResourceClassInfo@@@std@@@std@@QAE@XZ
__unwindfunclet$??0CvGlobals@@QAE@XZ$10:
	mov	ecx, DWORD PTR _this$[ebp]
	add	ecx, 1132				; 0000046cH
	jmp	??1?$vector@PAVCvResourceClassInfo@@V?$allocator@PAVCvResourceClassInfo@@@std@@@std@@QAE@XZ ; std::vector<CvResourceClassInfo *,std::allocator<CvResourceClassInfo *> >::~vector<CvResourceClassInfo *,std::allocator<CvResourceClassInfo *> >
__unwindfunclet$??0CvGlobals@@QAE@XZ$86:
	mov	ecx, DWORD PTR $T254833[ebp]
	jmp	??1?$_Vector_val@PAVCvResourceInfo@@V?$allocator@PAVCvResourceInfo@@@std@@@std@@QAE@XZ
__unwindfunclet$??0CvGlobals@@QAE@XZ$11:
	mov	ecx, DWORD PTR _this$[ebp]
	add	ecx, 1148				; 0000047cH
	jmp	??1?$vector@PAVCvResourceInfo@@V?$allocator@PAVCvResourceInfo@@@std@@@std@@QAE@XZ ; std::vector<CvResourceInfo *,std::allocator<CvResourceInfo *> >::~vector<CvResourceInfo *,std::allocator<CvResourceInfo *> >
__unwindfunclet$??0CvGlobals@@QAE@XZ$90:
	mov	ecx, DWORD PTR $T254913[ebp]
	jmp	??1?$_Vector_val@PAVCvBuildInfo@@V?$allocator@PAVCvBuildInfo@@@std@@@std@@QAE@XZ
__unwindfunclet$??0CvGlobals@@QAE@XZ$12:
	mov	ecx, DWORD PTR _this$[ebp]
	add	ecx, 1164				; 0000048cH
	jmp	??1?$vector@PAVCvBuildInfo@@V?$allocator@PAVCvBuildInfo@@@std@@@std@@QAE@XZ ; std::vector<CvBuildInfo *,std::allocator<CvBuildInfo *> >::~vector<CvBuildInfo *,std::allocator<CvBuildInfo *> >
__unwindfunclet$??0CvGlobals@@QAE@XZ$94:
	mov	ecx, DWORD PTR $T254993[ebp]
	jmp	??1?$_Vector_val@PAVCvHandicapInfo@@V?$allocator@PAVCvHandicapInfo@@@std@@@std@@QAE@XZ
__unwindfunclet$??0CvGlobals@@QAE@XZ$13:
	mov	ecx, DWORD PTR _this$[ebp]
	add	ecx, 1180				; 0000049cH
	jmp	??1?$vector@PAVCvHandicapInfo@@V?$allocator@PAVCvHandicapInfo@@@std@@@std@@QAE@XZ ; std::vector<CvHandicapInfo *,std::allocator<CvHandicapInfo *> >::~vector<CvHandicapInfo *,std::allocator<CvHandicapInfo *> >
__unwindfunclet$??0CvGlobals@@QAE@XZ$98:
	mov	ecx, DWORD PTR $T255073[ebp]
	jmp	??1?$_Vector_val@PAVCvGameSpeedInfo@@V?$allocator@PAVCvGameSpeedInfo@@@std@@@std@@QAE@XZ
__unwindfunclet$??0CvGlobals@@QAE@XZ$14:
	mov	ecx, DWORD PTR _this$[ebp]
	add	ecx, 1196				; 000004acH
	jmp	??1?$vector@PAVCvGameSpeedInfo@@V?$allocator@PAVCvGameSpeedInfo@@@std@@@std@@QAE@XZ ; std::vector<CvGameSpeedInfo *,std::allocator<CvGameSpeedInfo *> >::~vector<CvGameSpeedInfo *,std::allocator<CvGameSpeedInfo *> >
__unwindfunclet$??0CvGlobals@@QAE@XZ$102:
	mov	ecx, DWORD PTR $T255153[ebp]
	jmp	??1?$_Vector_val@PAVCvTurnTimerInfo@@V?$allocator@PAVCvTurnTimerInfo@@@std@@@std@@QAE@XZ
__unwindfunclet$??0CvGlobals@@QAE@XZ$15:
	mov	ecx, DWORD PTR _this$[ebp]
	add	ecx, 1212				; 000004bcH
	jmp	??1?$vector@PAVCvTurnTimerInfo@@V?$allocator@PAVCvTurnTimerInfo@@@std@@@std@@QAE@XZ ; std::vector<CvTurnTimerInfo *,std::allocator<CvTurnTimerInfo *> >::~vector<CvTurnTimerInfo *,std::allocator<CvTurnTimerInfo *> >
__unwindfunclet$??0CvGlobals@@QAE@XZ$106:
	mov	ecx, DWORD PTR $T255233[ebp]
	jmp	??1?$_Vector_val@PAVCvCivilizationInfo@@V?$allocator@PAVCvCivilizationInfo@@@std@@@std@@QAE@XZ
__unwindfunclet$??0CvGlobals@@QAE@XZ$16:
	mov	ecx, DWORD PTR _this$[ebp]
	add	ecx, 1228				; 000004ccH
	jmp	??1?$vector@PAVCvCivilizationInfo@@V?$allocator@PAVCvCivilizationInfo@@@std@@@std@@QAE@XZ ; std::vector<CvCivilizationInfo *,std::allocator<CvCivilizationInfo *> >::~vector<CvCivilizationInfo *,std::allocator<CvCivilizationInfo *> >
__unwindfunclet$??0CvGlobals@@QAE@XZ$110:
	mov	ecx, DWORD PTR $T255313[ebp]
	jmp	??1?$_Vector_val@PAVCvMinorCivInfo@@V?$allocator@PAVCvMinorCivInfo@@@std@@@std@@QAE@XZ
__unwindfunclet$??0CvGlobals@@QAE@XZ$17:
	mov	ecx, DWORD PTR _this$[ebp]
	add	ecx, 1252				; 000004e4H
	jmp	??1?$vector@PAVCvMinorCivInfo@@V?$allocator@PAVCvMinorCivInfo@@@std@@@std@@QAE@XZ ; std::vector<CvMinorCivInfo *,std::allocator<CvMinorCivInfo *> >::~vector<CvMinorCivInfo *,std::allocator<CvMinorCivInfo *> >
__unwindfunclet$??0CvGlobals@@QAE@XZ$114:
	mov	ecx, DWORD PTR $T255393[ebp]
	jmp	??1?$_Vector_val@PAVCvLeaderHeadInfo@@V?$allocator@PAVCvLeaderHeadInfo@@@std@@@std@@QAE@XZ
__unwindfunclet$??0CvGlobals@@QAE@XZ$18:
	mov	ecx, DWORD PTR _this$[ebp]
	add	ecx, 1268				; 000004f4H
	jmp	??1?$vector@PAVCvLeaderHeadInfo@@V?$allocator@PAVCvLeaderHeadInfo@@@std@@@std@@QAE@XZ ; std::vector<CvLeaderHeadInfo *,std::allocator<CvLeaderHeadInfo *> >::~vector<CvLeaderHeadInfo *,std::allocator<CvLeaderHeadInfo *> >
__unwindfunclet$??0CvGlobals@@QAE@XZ$118:
	mov	ecx, DWORD PTR $T255480[ebp]
	jmp	??1?$_Vector_val@PAVCvProcessInfo@@V?$allocator@PAVCvProcessInfo@@@std@@@std@@QAE@XZ
__unwindfunclet$??0CvGlobals@@QAE@XZ$19:
	mov	ecx, DWORD PTR _this$[ebp]
	add	ecx, 1284				; 00000504H
	jmp	??1?$vector@PAVCvProcessInfo@@V?$allocator@PAVCvProcessInfo@@@std@@@std@@QAE@XZ ; std::vector<CvProcessInfo *,std::allocator<CvProcessInfo *> >::~vector<CvProcessInfo *,std::allocator<CvProcessInfo *> >
__unwindfunclet$??0CvGlobals@@QAE@XZ$124:
	mov	ecx, DWORD PTR $T255567[ebp]
	jmp	??1?$_Vector_val@PAVCvVoteInfo@@V?$allocator@PAVCvVoteInfo@@@std@@@std@@QAE@XZ
__unwindfunclet$??0CvGlobals@@QAE@XZ$20:
	mov	ecx, DWORD PTR _this$[ebp]
	add	ecx, 1300				; 00000514H
	jmp	??1?$vector@PAVCvVoteInfo@@V?$allocator@PAVCvVoteInfo@@@std@@@std@@QAE@XZ ; std::vector<CvVoteInfo *,std::allocator<CvVoteInfo *> >::~vector<CvVoteInfo *,std::allocator<CvVoteInfo *> >
__unwindfunclet$??0CvGlobals@@QAE@XZ$130:
	mov	ecx, DWORD PTR $T255654[ebp]
	jmp	??1?$_Vector_val@PAVCvBuildingClassInfo@@V?$allocator@PAVCvBuildingClassInfo@@@std@@@std@@QAE@XZ
__unwindfunclet$??0CvGlobals@@QAE@XZ$21:
	mov	ecx, DWORD PTR _this$[ebp]
	add	ecx, 1316				; 00000524H
	jmp	??1?$vector@PAVCvBuildingClassInfo@@V?$allocator@PAVCvBuildingClassInfo@@@std@@@std@@QAE@XZ ; std::vector<CvBuildingClassInfo *,std::allocator<CvBuildingClassInfo *> >::~vector<CvBuildingClassInfo *,std::allocator<CvBuildingClassInfo *> >
__unwindfunclet$??0CvGlobals@@QAE@XZ$136:
	mov	ecx, DWORD PTR $T255741[ebp]
	jmp	??1?$_Vector_val@PAVCvUnitClassInfo@@V?$allocator@PAVCvUnitClassInfo@@@std@@@std@@QAE@XZ
__unwindfunclet$??0CvGlobals@@QAE@XZ$22:
	mov	ecx, DWORD PTR _this$[ebp]
	add	ecx, 1332				; 00000534H
	jmp	??1?$vector@PAVCvUnitClassInfo@@V?$allocator@PAVCvUnitClassInfo@@@std@@@std@@QAE@XZ ; std::vector<CvUnitClassInfo *,std::allocator<CvUnitClassInfo *> >::~vector<CvUnitClassInfo *,std::allocator<CvUnitClassInfo *> >
__unwindfunclet$??0CvGlobals@@QAE@XZ$142:
	mov	ecx, DWORD PTR $T255828[ebp]
	jmp	??1?$_Vector_val@PAVCvSpecialUnitInfo@@V?$allocator@PAVCvSpecialUnitInfo@@@std@@@std@@QAE@XZ
__unwindfunclet$??0CvGlobals@@QAE@XZ$23:
	mov	ecx, DWORD PTR _this$[ebp]
	add	ecx, 1348				; 00000544H
	jmp	??1?$vector@PAVCvSpecialUnitInfo@@V?$allocator@PAVCvSpecialUnitInfo@@@std@@@std@@QAE@XZ ; std::vector<CvSpecialUnitInfo *,std::allocator<CvSpecialUnitInfo *> >::~vector<CvSpecialUnitInfo *,std::allocator<CvSpecialUnitInfo *> >
__unwindfunclet$??0CvGlobals@@QAE@XZ$148:
	mov	ecx, DWORD PTR $T255906[ebp]
	jmp	??1?$_Vector_val@PAVCvVoteSourceInfo@@V?$allocator@PAVCvVoteSourceInfo@@@std@@@std@@QAE@XZ
__unwindfunclet$??0CvGlobals@@QAE@XZ$24:
	mov	ecx, DWORD PTR _this$[ebp]
	add	ecx, 1364				; 00000554H
	jmp	??1?$vector@PAVCvVoteSourceInfo@@V?$allocator@PAVCvVoteSourceInfo@@@std@@@std@@QAE@XZ ; std::vector<CvVoteSourceInfo *,std::allocator<CvVoteSourceInfo *> >::~vector<CvVoteSourceInfo *,std::allocator<CvVoteSourceInfo *> >
__unwindfunclet$??0CvGlobals@@QAE@XZ$25:
	mov	ecx, DWORD PTR _this$[ebp]
	add	ecx, 1380				; 00000564H
	jmp	??1?$vector@PAVCvBaseInfo@@V?$allocator@PAVCvBaseInfo@@@std@@@std@@QAE@XZ ; std::vector<CvBaseInfo *,std::allocator<CvBaseInfo *> >::~vector<CvBaseInfo *,std::allocator<CvBaseInfo *> >
__unwindfunclet$??0CvGlobals@@QAE@XZ$26:
	mov	ecx, DWORD PTR _this$[ebp]
	add	ecx, 1396				; 00000574H
	jmp	??1?$vector@PAVCvBaseInfo@@V?$allocator@PAVCvBaseInfo@@@std@@@std@@QAE@XZ ; std::vector<CvBaseInfo *,std::allocator<CvBaseInfo *> >::~vector<CvBaseInfo *,std::allocator<CvBaseInfo *> >
__unwindfunclet$??0CvGlobals@@QAE@XZ$27:
	mov	ecx, DWORD PTR _this$[ebp]
	add	ecx, 1412				; 00000584H
	jmp	??1?$vector@PAVCvGameOptionInfo@@V?$allocator@PAVCvGameOptionInfo@@@std@@@std@@QAE@XZ ; std::vector<CvGameOptionInfo *,std::allocator<CvGameOptionInfo *> >::~vector<CvGameOptionInfo *,std::allocator<CvGameOptionInfo *> >
__unwindfunclet$??0CvGlobals@@QAE@XZ$28:
	mov	ecx, DWORD PTR _this$[ebp]
	add	ecx, 1428				; 00000594H
	jmp	??1?$vector@PAVCvMPOptionInfo@@V?$allocator@PAVCvMPOptionInfo@@@std@@@std@@QAE@XZ ; std::vector<CvMPOptionInfo *,std::allocator<CvMPOptionInfo *> >::~vector<CvMPOptionInfo *,std::allocator<CvMPOptionInfo *> >
__unwindfunclet$??0CvGlobals@@QAE@XZ$29:
	mov	ecx, DWORD PTR _this$[ebp]
	add	ecx, 1444				; 000005a4H
	jmp	??1?$vector@PAVCvPlayerOptionInfo@@V?$allocator@PAVCvPlayerOptionInfo@@@std@@@std@@QAE@XZ ; std::vector<CvPlayerOptionInfo *,std::allocator<CvPlayerOptionInfo *> >::~vector<CvPlayerOptionInfo *,std::allocator<CvPlayerOptionInfo *> >
__unwindfunclet$??0CvGlobals@@QAE@XZ$30:
	mov	ecx, DWORD PTR _this$[ebp]
	add	ecx, 1460				; 000005b4H
	jmp	??1?$vector@PAVCvSpecialistInfo@@V?$allocator@PAVCvSpecialistInfo@@@std@@@std@@QAE@XZ ; std::vector<CvSpecialistInfo *,std::allocator<CvSpecialistInfo *> >::~vector<CvSpecialistInfo *,std::allocator<CvSpecialistInfo *> >
__unwindfunclet$??0CvGlobals@@QAE@XZ$31:
	mov	ecx, DWORD PTR _this$[ebp]
	add	ecx, 1476				; 000005c4H
	jmp	??1?$vector@PAVCvActionInfo@@V?$allocator@PAVCvActionInfo@@@std@@@std@@QAE@XZ ; std::vector<CvActionInfo *,std::allocator<CvActionInfo *> >::~vector<CvActionInfo *,std::allocator<CvActionInfo *> >
__unwindfunclet$??0CvGlobals@@QAE@XZ$32:
	mov	ecx, DWORD PTR _this$[ebp]
	add	ecx, 1492				; 000005d4H
	jmp	??1?$vector@PAVCvMissionInfo@@V?$allocator@PAVCvMissionInfo@@@std@@@std@@QAE@XZ ; std::vector<CvMissionInfo *,std::allocator<CvMissionInfo *> >::~vector<CvMissionInfo *,std::allocator<CvMissionInfo *> >
__unwindfunclet$??0CvGlobals@@QAE@XZ$33:
	mov	ecx, DWORD PTR _this$[ebp]
	add	ecx, 1508				; 000005e4H
	jmp	??1?$vector@PAVCvControlInfo@@V?$allocator@PAVCvControlInfo@@@std@@@std@@QAE@XZ ; std::vector<CvControlInfo *,std::allocator<CvControlInfo *> >::~vector<CvControlInfo *,std::allocator<CvControlInfo *> >
__unwindfunclet$??0CvGlobals@@QAE@XZ$34:
	mov	ecx, DWORD PTR _this$[ebp]
	add	ecx, 1524				; 000005f4H
	jmp	??1?$vector@PAVCvCommandInfo@@V?$allocator@PAVCvCommandInfo@@@std@@@std@@QAE@XZ ; std::vector<CvCommandInfo *,std::allocator<CvCommandInfo *> >::~vector<CvCommandInfo *,std::allocator<CvCommandInfo *> >
__unwindfunclet$??0CvGlobals@@QAE@XZ$35:
	mov	ecx, DWORD PTR _this$[ebp]
	add	ecx, 1540				; 00000604H
	jmp	??1?$vector@PAVCvAutomateInfo@@V?$allocator@PAVCvAutomateInfo@@@std@@@std@@QAE@XZ ; std::vector<CvAutomateInfo *,std::allocator<CvAutomateInfo *> >::~vector<CvAutomateInfo *,std::allocator<CvAutomateInfo *> >
__unwindfunclet$??0CvGlobals@@QAE@XZ$36:
	mov	ecx, DWORD PTR _this$[ebp]
	add	ecx, 1556				; 00000614H
	jmp	??1?$vector@PAVCvEraInfo@@V?$allocator@PAVCvEraInfo@@@std@@@std@@QAE@XZ ; std::vector<CvEraInfo *,std::allocator<CvEraInfo *> >::~vector<CvEraInfo *,std::allocator<CvEraInfo *> >
__unwindfunclet$??0CvGlobals@@QAE@XZ$37:
	mov	ecx, DWORD PTR _this$[ebp]
	add	ecx, 1572				; 00000624H
	jmp	??1?$vector@PAVCvHurryInfo@@V?$allocator@PAVCvHurryInfo@@@std@@@std@@QAE@XZ ; std::vector<CvHurryInfo *,std::allocator<CvHurryInfo *> >::~vector<CvHurryInfo *,std::allocator<CvHurryInfo *> >
__unwindfunclet$??0CvGlobals@@QAE@XZ$38:
	mov	ecx, DWORD PTR _this$[ebp]
	add	ecx, 1588				; 00000634H
	jmp	??1?$vector@PAVCvVictoryInfo@@V?$allocator@PAVCvVictoryInfo@@@std@@@std@@QAE@XZ ; std::vector<CvVictoryInfo *,std::allocator<CvVictoryInfo *> >::~vector<CvVictoryInfo *,std::allocator<CvVictoryInfo *> >
__unwindfunclet$??0CvGlobals@@QAE@XZ$39:
	mov	ecx, DWORD PTR _this$[ebp]
	add	ecx, 1604				; 00000644H
	jmp	??1?$vector@PAVCvSmallAwardInfo@@V?$allocator@PAVCvSmallAwardInfo@@@std@@@std@@QAE@XZ ; std::vector<CvSmallAwardInfo *,std::allocator<CvSmallAwardInfo *> >::~vector<CvSmallAwardInfo *,std::allocator<CvSmallAwardInfo *> >
__unwindfunclet$??0CvGlobals@@QAE@XZ$40:
	mov	ecx, DWORD PTR _this$[ebp]
	add	ecx, 1620				; 00000654H
	jmp	??1?$vector@PAVCvEntityEventInfo@@V?$allocator@PAVCvEntityEventInfo@@@std@@@std@@QAE@XZ ; std::vector<CvEntityEventInfo *,std::allocator<CvEntityEventInfo *> >::~vector<CvEntityEventInfo *,std::allocator<CvEntityEventInfo *> >
__unwindfunclet$??0CvGlobals@@QAE@XZ$41:
	mov	ecx, DWORD PTR _this$[ebp]
	add	ecx, 1636				; 00000664H
	jmp	??1?$vector@PAVCvBaseInfo@@V?$allocator@PAVCvBaseInfo@@@std@@@std@@QAE@XZ ; std::vector<CvBaseInfo *,std::allocator<CvBaseInfo *> >::~vector<CvBaseInfo *,std::allocator<CvBaseInfo *> >
__ehhandler$??0CvGlobals@@QAE@XZ:
	mov	edx, DWORD PTR [esp+8]
	lea	eax, DWORD PTR [edx+12]
	mov	ecx, DWORD PTR [edx-2780]
	xor	ecx, eax
	call	@__security_check_cookie@4
	mov	eax, OFFSET __ehfuncinfo$??0CvGlobals@@QAE@XZ
	jmp	___CxxFrameHandler3
text$x	ENDS
??0CvGlobals@@QAE@XZ ENDP				; CvGlobals::CvGlobals
PUBLIC	??1CvGlobals@@UAE@XZ				; CvGlobals::~CvGlobals
EXTRN	??3@YAXPAX@Z:PROC				; operator delete
; Function compile flags: /Odtp
;	COMDAT ??_GCvGlobals@@UAEPAXI@Z
_TEXT	SEGMENT
_this$ = -4						; size = 4
___flags$ = 8						; size = 4
??_GCvGlobals@@UAEPAXI@Z PROC				; CvGlobals::`scalar deleting destructor', COMDAT
; _this$ = ecx
	push	ebp
	mov	ebp, esp
	push	ecx
	mov	DWORD PTR _this$[ebp], ecx
	mov	ecx, DWORD PTR _this$[ebp]
	call	??1CvGlobals@@UAE@XZ			; CvGlobals::~CvGlobals
	mov	eax, DWORD PTR ___flags$[ebp]
	and	eax, 1
	je	SHORT $LN1@scalar
	mov	ecx, DWORD PTR _this$[ebp]
	push	ecx
	call	??3@YAXPAX@Z				; operator delete
	add	esp, 4
$LN1@scalar:
	mov	eax, DWORD PTR _this$[ebp]
	mov	esp, ebp
	pop	ebp
	ret	4
??_GCvGlobals@@UAEPAXI@Z ENDP				; CvGlobals::`scalar deleting destructor'
_TEXT	ENDS
PUBLIC	??1?$_Hash@V?$_Hmap_traits@V?$basic_string@DU?$char_traits@D@std@@V?$allocator@D@2@@std@@HV?$hash_compare@V?$basic_string@DU?$char_traits@D@std@@V?$allocator@D@2@@std@@U?$less@V?$basic_string@DU?$char_traits@D@std@@V?$allocator@D@2@@std@@@2@@stdext@@V?$allocator@U?$pair@$$CBV?$basic_string@DU?$char_traits@D@std@@V?$allocator@D@2@@std@@H@std@@@2@$0A@@stdext@@@stdext@@QAE@XZ ; stdext::_Hash<stdext::_Hmap_traits<std::basic_string<char,std::char_traits<char>,std::allocator<char> >,int,stdext::hash_compare<std::basic_string<char,std::char_traits<char>,std::allocator<char> >,std::less<std::basic_string<char,std::char_traits<char>,std::allocator<char> > > >,std::allocator<std::pair<std::basic_string<char,std::char_traits<char>,std::allocator<char> > const ,int> >,0> >::~_Hash<stdext::_Hmap_traits<std::basic_string<char,std::char_traits<char>,std::allocator<char> >,int,stdext::hash_compare<std::basic_string<char,std::char_traits<char>,std::allocator<char> >,std::less<std::basic_string<char,std::char_traits<char>,std::allocator<char> > > >,std::allocator<std::pair<std::basic_string<char,std::char_traits<char>,std::allocator<char> > const ,int> >,0> >
; Function compile flags: /Odtp
;	COMDAT ??1?$hash_map@V?$basic_string@DU?$char_traits@D@std@@V?$allocator@D@2@@std@@HV?$hash_compare@V?$basic_string@DU?$char_traits@D@std@@V?$allocator@D@2@@std@@U?$less@V?$basic_string@DU?$char_traits@D@std@@V?$allocator@D@2@@std@@@2@@stdext@@V?$allocator@U?$pair@$$CBV?$basic_string@DU?$char_traits@D@std@@V?$allocator@D@2@@std@@H@std@@@2@@stdext@@QAE@XZ
_TEXT	SEGMENT
_this$ = -72						; size = 4
??1?$hash_map@V?$basic_string@DU?$char_traits@D@std@@V?$allocator@D@2@@std@@HV?$hash_compare@V?$basic_string@DU?$char_traits@D@std@@V?$allocator@D@2@@std@@U?$less@V?$basic_string@DU?$char_traits@D@std@@V?$allocator@D@2@@std@@@2@@stdext@@V?$allocator@U?$pair@$$CBV?$basic_string@DU?$char_traits@D@std@@V?$allocator@D@2@@std@@H@std@@@2@@stdext@@QAE@XZ PROC ; stdext::hash_map<std::basic_string<char,std::char_traits<char>,std::allocator<char> >,int,stdext::hash_compare<std::basic_string<char,std::char_traits<char>,std::allocator<char> >,std::less<std::basic_string<char,std::char_traits<char>,std::allocator<char> > > >,std::allocator<std::pair<std::basic_string<char,std::char_traits<char>,std::allocator<char> > const ,int> > >::~hash_map<std::basic_string<char,std::char_traits<char>,std::allocator<char> >,int,stdext::hash_compare<std::basic_string<char,std::char_traits<char>,std::allocator<char> >,std::less<std::basic_string<char,std::char_traits<char>,std::allocator<char> > > >,std::allocator<std::pair<std::basic_string<char,std::char_traits<char>,std::allocator<char> > const ,int> > >, COMDAT
; _this$ = ecx
	push	ebp
	mov	ebp, esp
	sub	esp, 72					; 00000048H
	mov	DWORD PTR _this$[ebp], ecx
	mov	ecx, DWORD PTR _this$[ebp]
	call	??1?$_Hash@V?$_Hmap_traits@V?$basic_string@DU?$char_traits@D@std@@V?$allocator@D@2@@std@@HV?$hash_compare@V?$basic_string@DU?$char_traits@D@std@@V?$allocator@D@2@@std@@U?$less@V?$basic_string@DU?$char_traits@D@std@@V?$allocator@D@2@@std@@@2@@stdext@@V?$allocator@U?$pair@$$CBV?$basic_string@DU?$char_traits@D@std@@V?$allocator@D@2@@std@@H@std@@@2@$0A@@stdext@@@stdext@@QAE@XZ ; stdext::_Hash<stdext::_Hmap_traits<std::basic_string<char,std::char_traits<char>,std::allocator<char> >,int,stdext::hash_compare<std::basic_string<char,std::char_traits<char>,std::allocator<char> >,std::less<std::basic_string<char,std::char_traits<char>,std::allocator<char> > > >,std::allocator<std::pair<std::basic_string<char,std::char_traits<char>,std::allocator<char> > const ,int> >,0> >::~_Hash<stdext::_Hmap_traits<std::basic_string<char,std::char_traits<char>,std::allocator<char> >,int,stdext::hash_compare<std::basic_string<char,std::char_traits<char>,std::allocator<char> >,std::less<std::basic_string<char,std::char_traits<char>,std::allocator<char> > > >,std::allocator<std::pair<std::basic_string<char,std::char_traits<char>,std::allocator<char> > const ,int> >,0> >
	mov	esp, ebp
	pop	ebp
	ret	0
??1?$hash_map@V?$basic_string@DU?$char_traits@D@std@@V?$allocator@D@2@@std@@HV?$hash_compare@V?$basic_string@DU?$char_traits@D@std@@V?$allocator@D@2@@std@@U?$less@V?$basic_string@DU?$char_traits@D@std@@V?$allocator@D@2@@std@@@2@@stdext@@V?$allocator@U?$pair@$$CBV?$basic_string@DU?$char_traits@D@std@@V?$allocator@D@2@@std@@H@std@@@2@@stdext@@QAE@XZ ENDP ; stdext::hash_map<std::basic_string<char,std::char_traits<char>,std::allocator<char> >,int,stdext::hash_compare<std::basic_string<char,std::char_traits<char>,std::allocator<char> >,std::less<std::basic_string<char,std::char_traits<char>,std::allocator<char> > > >,std::allocator<std::pair<std::basic_string<char,std::char_traits<char>,std::allocator<char> > const ,int> > >::~hash_map<std::basic_string<char,std::char_traits<char>,std::allocator<char> >,int,stdext::hash_compare<std::basic_string<char,std::char_traits<char>,std::allocator<char> >,std::less<std::basic_string<char,std::char_traits<char>,std::allocator<char> > > >,std::allocator<std::pair<std::basic_string<char,std::char_traits<char>,std::allocator<char> > const ,int> > >
_TEXT	ENDS
PUBLIC	??1?$_Tree_val@V?$_Tmap_traits@IHU?$less@I@std@@V?$allocator@U?$pair@$$CBIH@std@@@2@$0A@@std@@@std@@QAE@XZ ; std::_Tree_val<std::_Tmap_traits<unsigned int,int,std::less<unsigned int>,std::allocator<std::pair<unsigned int const ,int> >,0> >::~_Tree_val<std::_Tmap_traits<unsigned int,int,std::less<unsigned int>,std::allocator<std::pair<unsigned int const ,int> >,0> >
PUBLIC	?_Tidy@?$_Tree@V?$_Tmap_traits@IHU?$less@I@std@@V?$allocator@U?$pair@$$CBIH@std@@@2@$0A@@std@@@std@@IAEXXZ ; std::_Tree<std::_Tmap_traits<unsigned int,int,std::less<unsigned int>,std::allocator<std::pair<unsigned int const ,int> >,0> >::_Tidy
;	COMDAT xdata$x
xdata$x	SEGMENT
__unwindtable$??1?$map@IHU?$less@I@std@@V?$allocator@U?$pair@$$CBIH@std@@@2@@std@@QAE@XZ DD 0ffffffffH
	DD	FLAT:__unwindfunclet$??1?$map@IHU?$less@I@std@@V?$allocator@U?$pair@$$CBIH@std@@@2@@std@@QAE@XZ$1
__ehfuncinfo$??1?$map@IHU?$less@I@std@@V?$allocator@U?$pair@$$CBIH@std@@@2@@std@@QAE@XZ DD 019930522H
	DD	01H
	DD	FLAT:__unwindtable$??1?$map@IHU?$less@I@std@@V?$allocator@U?$pair@$$CBIH@std@@@2@@std@@QAE@XZ
	DD	2 DUP(00H)
	DD	2 DUP(00H)
	DD	00H
	DD	01H
; Function compile flags: /Odtp
xdata$x	ENDS
;	COMDAT ??1?$map@IHU?$less@I@std@@V?$allocator@U?$pair@$$CBIH@std@@@2@@std@@QAE@XZ
_TEXT	SEGMENT
_this$ = -100						; size = 4
__$EHRec$ = -12						; size = 12
??1?$map@IHU?$less@I@std@@V?$allocator@U?$pair@$$CBIH@std@@@2@@std@@QAE@XZ PROC ; std::map<unsigned int,int,std::less<unsigned int>,std::allocator<std::pair<unsigned int const ,int> > >::~map<unsigned int,int,std::less<unsigned int>,std::allocator<std::pair<unsigned int const ,int> > >, COMDAT
; _this$ = ecx
	push	ebp
	mov	ebp, esp
	push	-1
	push	__ehhandler$??1?$map@IHU?$less@I@std@@V?$allocator@U?$pair@$$CBIH@std@@@2@@std@@QAE@XZ
	mov	eax, DWORD PTR fs:0
	push	eax
	sub	esp, 88					; 00000058H
	mov	eax, DWORD PTR ___security_cookie
	xor	eax, ebp
	push	eax
	lea	eax, DWORD PTR __$EHRec$[ebp]
	mov	DWORD PTR fs:0, eax
	mov	DWORD PTR _this$[ebp], ecx
	mov	DWORD PTR __$EHRec$[ebp+8], 0
	mov	ecx, DWORD PTR _this$[ebp]
	call	?_Tidy@?$_Tree@V?$_Tmap_traits@IHU?$less@I@std@@V?$allocator@U?$pair@$$CBIH@std@@@2@$0A@@std@@@std@@IAEXXZ ; std::_Tree<std::_Tmap_traits<unsigned int,int,std::less<unsigned int>,std::allocator<std::pair<unsigned int const ,int> >,0> >::_Tidy
	mov	DWORD PTR __$EHRec$[ebp+8], -1
	mov	ecx, DWORD PTR __$EHRec$[ebp]
	mov	DWORD PTR fs:0, ecx
	pop	ecx
	mov	esp, ebp
	pop	ebp
	ret	0
_TEXT	ENDS
;	COMDAT text$x
text$x	SEGMENT
__unwindfunclet$??1?$map@IHU?$less@I@std@@V?$allocator@U?$pair@$$CBIH@std@@@2@@std@@QAE@XZ$1:
	mov	ecx, DWORD PTR _this$[ebp]
	jmp	??1?$_Tree_val@V?$_Tmap_traits@IHU?$less@I@std@@V?$allocator@U?$pair@$$CBIH@std@@@2@$0A@@std@@@std@@QAE@XZ
__ehhandler$??1?$map@IHU?$less@I@std@@V?$allocator@U?$pair@$$CBIH@std@@@2@@std@@QAE@XZ:
	mov	edx, DWORD PTR [esp+8]
	lea	eax, DWORD PTR [edx+12]
	mov	ecx, DWORD PTR [edx-92]
	xor	ecx, eax
	call	@__security_check_cookie@4
	mov	eax, OFFSET __ehfuncinfo$??1?$map@IHU?$less@I@std@@V?$allocator@U?$pair@$$CBIH@std@@@2@@std@@QAE@XZ
	jmp	___CxxFrameHandler3
text$x	ENDS
??1?$map@IHU?$less@I@std@@V?$allocator@U?$pair@$$CBIH@std@@@2@@std@@QAE@XZ ENDP ; std::map<unsigned int,int,std::less<unsigned int>,std::allocator<std::pair<unsigned int const ,int> > >::~map<unsigned int,int,std::less<unsigned int>,std::allocator<std::pair<unsigned int const ,int> > >
PUBLIC	??1?$_Vector_val@PAVCvGameOptionInfo@@V?$allocator@PAVCvGameOptionInfo@@@std@@@std@@QAE@XZ ; std::_Vector_val<CvGameOptionInfo *,std::allocator<CvGameOptionInfo *> >::~_Vector_val<CvGameOptionInfo *,std::allocator<CvGameOptionInfo *> >
PUBLIC	??1?$_Vector_val@PAVCvMPOptionInfo@@V?$allocator@PAVCvMPOptionInfo@@@std@@@std@@QAE@XZ ; std::_Vector_val<CvMPOptionInfo *,std::allocator<CvMPOptionInfo *> >::~_Vector_val<CvMPOptionInfo *,std::allocator<CvMPOptionInfo *> >
PUBLIC	??1?$_Vector_val@PAVCvPlayerOptionInfo@@V?$allocator@PAVCvPlayerOptionInfo@@@std@@@std@@QAE@XZ ; std::_Vector_val<CvPlayerOptionInfo *,std::allocator<CvPlayerOptionInfo *> >::~_Vector_val<CvPlayerOptionInfo *,std::allocator<CvPlayerOptionInfo *> >
PUBLIC	??1?$_Vector_val@PAVCvSpecialistInfo@@V?$allocator@PAVCvSpecialistInfo@@@std@@@std@@QAE@XZ ; std::_Vector_val<CvSpecialistInfo *,std::allocator<CvSpecialistInfo *> >::~_Vector_val<CvSpecialistInfo *,std::allocator<CvSpecialistInfo *> >
PUBLIC	??1?$_Vector_val@PAVCvActionInfo@@V?$allocator@PAVCvActionInfo@@@std@@@std@@QAE@XZ ; std::_Vector_val<CvActionInfo *,std::allocator<CvActionInfo *> >::~_Vector_val<CvActionInfo *,std::allocator<CvActionInfo *> >
PUBLIC	??1?$_Vector_val@PAVCvMissionInfo@@V?$allocator@PAVCvMissionInfo@@@std@@@std@@QAE@XZ ; std::_Vector_val<CvMissionInfo *,std::allocator<CvMissionInfo *> >::~_Vector_val<CvMissionInfo *,std::allocator<CvMissionInfo *> >
PUBLIC	??1?$_Vector_val@PAVCvControlInfo@@V?$allocator@PAVCvControlInfo@@@std@@@std@@QAE@XZ ; std::_Vector_val<CvControlInfo *,std::allocator<CvControlInfo *> >::~_Vector_val<CvControlInfo *,std::allocator<CvControlInfo *> >
PUBLIC	??1?$_Vector_val@PAVCvCommandInfo@@V?$allocator@PAVCvCommandInfo@@@std@@@std@@QAE@XZ ; std::_Vector_val<CvCommandInfo *,std::allocator<CvCommandInfo *> >::~_Vector_val<CvCommandInfo *,std::allocator<CvCommandInfo *> >
PUBLIC	??1?$_Vector_val@PAVCvAutomateInfo@@V?$allocator@PAVCvAutomateInfo@@@std@@@std@@QAE@XZ ; std::_Vector_val<CvAutomateInfo *,std::allocator<CvAutomateInfo *> >::~_Vector_val<CvAutomateInfo *,std::allocator<CvAutomateInfo *> >
PUBLIC	??1?$_Vector_val@PAVCvEraInfo@@V?$allocator@PAVCvEraInfo@@@std@@@std@@QAE@XZ ; std::_Vector_val<CvEraInfo *,std::allocator<CvEraInfo *> >::~_Vector_val<CvEraInfo *,std::allocator<CvEraInfo *> >
PUBLIC	??1?$_Vector_val@PAVCvHurryInfo@@V?$allocator@PAVCvHurryInfo@@@std@@@std@@QAE@XZ ; std::_Vector_val<CvHurryInfo *,std::allocator<CvHurryInfo *> >::~_Vector_val<CvHurryInfo *,std::allocator<CvHurryInfo *> >
PUBLIC	??1?$_Vector_val@PAVCvVictoryInfo@@V?$allocator@PAVCvVictoryInfo@@@std@@@std@@QAE@XZ ; std::_Vector_val<CvVictoryInfo *,std::allocator<CvVictoryInfo *> >::~_Vector_val<CvVictoryInfo *,std::allocator<CvVictoryInfo *> >
PUBLIC	??1?$_Vector_val@PAVCvSmallAwardInfo@@V?$allocator@PAVCvSmallAwardInfo@@@std@@@std@@QAE@XZ ; std::_Vector_val<CvSmallAwardInfo *,std::allocator<CvSmallAwardInfo *> >::~_Vector_val<CvSmallAwardInfo *,std::allocator<CvSmallAwardInfo *> >
PUBLIC	??1?$_Vector_val@PAVCvEntityEventInfo@@V?$allocator@PAVCvEntityEventInfo@@@std@@@std@@QAE@XZ ; std::_Vector_val<CvEntityEventInfo *,std::allocator<CvEntityEventInfo *> >::~_Vector_val<CvEntityEventInfo *,std::allocator<CvEntityEventInfo *> >
PUBLIC	??1?$_Vector_val@PAVCvBaseInfo@@V?$allocator@PAVCvBaseInfo@@@std@@@std@@QAE@XZ ; std::_Vector_val<CvBaseInfo *,std::allocator<CvBaseInfo *> >::~_Vector_val<CvBaseInfo *,std::allocator<CvBaseInfo *> >
PUBLIC	??1?$_Vector_val@PAVCvMultiUnitFormationInfo@@V?$allocator@PAVCvMultiUnitFormationInfo@@@std@@@std@@QAE@XZ ; std::_Vector_val<CvMultiUnitFormationInfo *,std::allocator<CvMultiUnitFormationInfo *> >::~_Vector_val<CvMultiUnitFormationInfo *,std::allocator<CvMultiUnitFormationInfo *> >
PUBLIC	?_Tidy@?$vector@PAVCvInterfaceModeInfo@@V?$allocator@PAVCvInterfaceModeInfo@@@std@@@std@@IAEXXZ ; std::vector<CvInterfaceModeInfo *,std::allocator<CvInterfaceModeInfo *> >::_Tidy
PUBLIC	?_Tidy@?$vector@PAVCvColorInfo@@V?$allocator@PAVCvColorInfo@@@std@@@std@@IAEXXZ ; std::vector<CvColorInfo *,std::allocator<CvColorInfo *> >::_Tidy
PUBLIC	?_Tidy@?$vector@PAVCvPlayerColorInfo@@V?$allocator@PAVCvPlayerColorInfo@@@std@@@std@@IAEXXZ ; std::vector<CvPlayerColorInfo *,std::allocator<CvPlayerColorInfo *> >::_Tidy
PUBLIC	?_Tidy@?$vector@PAVCvTerrainInfo@@V?$allocator@PAVCvTerrainInfo@@@std@@@std@@IAEXXZ ; std::vector<CvTerrainInfo *,std::allocator<CvTerrainInfo *> >::_Tidy
PUBLIC	?_Tidy@?$vector@PAVCvYieldInfo@@V?$allocator@PAVCvYieldInfo@@@std@@@std@@IAEXXZ ; std::vector<CvYieldInfo *,std::allocator<CvYieldInfo *> >::_Tidy
PUBLIC	?_Tidy@?$vector@PAVCvRouteInfo@@V?$allocator@PAVCvRouteInfo@@@std@@@std@@IAEXXZ ; std::vector<CvRouteInfo *,std::allocator<CvRouteInfo *> >::_Tidy
PUBLIC	?_Tidy@?$vector@PAVCvFeatureInfo@@V?$allocator@PAVCvFeatureInfo@@@std@@@std@@IAEXXZ ; std::vector<CvFeatureInfo *,std::allocator<CvFeatureInfo *> >::_Tidy
PUBLIC	?_Tidy@?$vector@PAVCvResourceClassInfo@@V?$allocator@PAVCvResourceClassInfo@@@std@@@std@@IAEXXZ ; std::vector<CvResourceClassInfo *,std::allocator<CvResourceClassInfo *> >::_Tidy
PUBLIC	?_Tidy@?$vector@PAVCvResourceInfo@@V?$allocator@PAVCvResourceInfo@@@std@@@std@@IAEXXZ ; std::vector<CvResourceInfo *,std::allocator<CvResourceInfo *> >::_Tidy
PUBLIC	?_Tidy@?$vector@PAVCvBuildInfo@@V?$allocator@PAVCvBuildInfo@@@std@@@std@@IAEXXZ ; std::vector<CvBuildInfo *,std::allocator<CvBuildInfo *> >::_Tidy
PUBLIC	?_Tidy@?$vector@PAVCvHandicapInfo@@V?$allocator@PAVCvHandicapInfo@@@std@@@std@@IAEXXZ ; std::vector<CvHandicapInfo *,std::allocator<CvHandicapInfo *> >::_Tidy
PUBLIC	?_Tidy@?$vector@PAVCvGameSpeedInfo@@V?$allocator@PAVCvGameSpeedInfo@@@std@@@std@@IAEXXZ ; std::vector<CvGameSpeedInfo *,std::allocator<CvGameSpeedInfo *> >::_Tidy
PUBLIC	?_Tidy@?$vector@PAVCvTurnTimerInfo@@V?$allocator@PAVCvTurnTimerInfo@@@std@@@std@@IAEXXZ ; std::vector<CvTurnTimerInfo *,std::allocator<CvTurnTimerInfo *> >::_Tidy
PUBLIC	?_Tidy@?$vector@PAVCvCivilizationInfo@@V?$allocator@PAVCvCivilizationInfo@@@std@@@std@@IAEXXZ ; std::vector<CvCivilizationInfo *,std::allocator<CvCivilizationInfo *> >::_Tidy
PUBLIC	?_Tidy@?$vector@PAVCvMinorCivInfo@@V?$allocator@PAVCvMinorCivInfo@@@std@@@std@@IAEXXZ ; std::vector<CvMinorCivInfo *,std::allocator<CvMinorCivInfo *> >::_Tidy
PUBLIC	?_Tidy@?$vector@PAVCvLeaderHeadInfo@@V?$allocator@PAVCvLeaderHeadInfo@@@std@@@std@@IAEXXZ ; std::vector<CvLeaderHeadInfo *,std::allocator<CvLeaderHeadInfo *> >::_Tidy
PUBLIC	?_Tidy@?$vector@PAVCvProcessInfo@@V?$allocator@PAVCvProcessInfo@@@std@@@std@@IAEXXZ ; std::vector<CvProcessInfo *,std::allocator<CvProcessInfo *> >::_Tidy
PUBLIC	?_Tidy@?$vector@PAVCvVoteInfo@@V?$allocator@PAVCvVoteInfo@@@std@@@std@@IAEXXZ ; std::vector<CvVoteInfo *,std::allocator<CvVoteInfo *> >::_Tidy
PUBLIC	?_Tidy@?$vector@PAVCvBuildingClassInfo@@V?$allocator@PAVCvBuildingClassInfo@@@std@@@std@@IAEXXZ ; std::vector<CvBuildingClassInfo *,std::allocator<CvBuildingClassInfo *> >::_Tidy
PUBLIC	?_Tidy@?$vector@PAVCvUnitClassInfo@@V?$allocator@PAVCvUnitClassInfo@@@std@@@std@@IAEXXZ ; std::vector<CvUnitClassInfo *,std::allocator<CvUnitClassInfo *> >::_Tidy
PUBLIC	?_Tidy@?$vector@PAVCvSpecialUnitInfo@@V?$allocator@PAVCvSpecialUnitInfo@@@std@@@std@@IAEXXZ ; std::vector<CvSpecialUnitInfo *,std::allocator<CvSpecialUnitInfo *> >::_Tidy
PUBLIC	?_Tidy@?$vector@PAVCvVoteSourceInfo@@V?$allocator@PAVCvVoteSourceInfo@@@std@@@std@@IAEXXZ ; std::vector<CvVoteSourceInfo *,std::allocator<CvVoteSourceInfo *> >::_Tidy
PUBLIC	?_Tidy@?$vector@PAVCvGameOptionInfo@@V?$allocator@PAVCvGameOptionInfo@@@std@@@std@@IAEXXZ ; std::vector<CvGameOptionInfo *,std::allocator<CvGameOptionInfo *> >::_Tidy
PUBLIC	?_Tidy@?$vector@PAVCvMPOptionInfo@@V?$allocator@PAVCvMPOptionInfo@@@std@@@std@@IAEXXZ ; std::vector<CvMPOptionInfo *,std::allocator<CvMPOptionInfo *> >::_Tidy
PUBLIC	?_Tidy@?$vector@PAVCvPlayerOptionInfo@@V?$allocator@PAVCvPlayerOptionInfo@@@std@@@std@@IAEXXZ ; std::vector<CvPlayerOptionInfo *,std::allocator<CvPlayerOptionInfo *> >::_Tidy
PUBLIC	?_Tidy@?$vector@PAVCvSpecialistInfo@@V?$allocator@PAVCvSpecialistInfo@@@std@@@std@@IAEXXZ ; std::vector<CvSpecialistInfo *,std::allocator<CvSpecialistInfo *> >::_Tidy
PUBLIC	?_Tidy@?$vector@PAVCvActionInfo@@V?$allocator@PAVCvActionInfo@@@std@@@std@@IAEXXZ ; std::vector<CvActionInfo *,std::allocator<CvActionInfo *> >::_Tidy
PUBLIC	?_Tidy@?$vector@PAVCvMissionInfo@@V?$allocator@PAVCvMissionInfo@@@std@@@std@@IAEXXZ ; std::vector<CvMissionInfo *,std::allocator<CvMissionInfo *> >::_Tidy
PUBLIC	?_Tidy@?$vector@PAVCvControlInfo@@V?$allocator@PAVCvControlInfo@@@std@@@std@@IAEXXZ ; std::vector<CvControlInfo *,std::allocator<CvControlInfo *> >::_Tidy
PUBLIC	?_Tidy@?$vector@PAVCvCommandInfo@@V?$allocator@PAVCvCommandInfo@@@std@@@std@@IAEXXZ ; std::vector<CvCommandInfo *,std::allocator<CvCommandInfo *> >::_Tidy
PUBLIC	?_Tidy@?$vector@PAVCvAutomateInfo@@V?$allocator@PAVCvAutomateInfo@@@std@@@std@@IAEXXZ ; std::vector<CvAutomateInfo *,std::allocator<CvAutomateInfo *> >::_Tidy
PUBLIC	?_Tidy@?$vector@PAVCvEraInfo@@V?$allocator@PAVCvEraInfo@@@std@@@std@@IAEXXZ ; std::vector<CvEraInfo *,std::allocator<CvEraInfo *> >::_Tidy
PUBLIC	?_Tidy@?$vector@PAVCvHurryInfo@@V?$allocator@PAVCvHurryInfo@@@std@@@std@@IAEXXZ ; std::vector<CvHurryInfo *,std::allocator<CvHurryInfo *> >::_Tidy
PUBLIC	?_Tidy@?$vector@PAVCvVictoryInfo@@V?$allocator@PAVCvVictoryInfo@@@std@@@std@@IAEXXZ ; std::vector<CvVictoryInfo *,std::allocator<CvVictoryInfo *> >::_Tidy
PUBLIC	?_Tidy@?$vector@PAVCvSmallAwardInfo@@V?$allocator@PAVCvSmallAwardInfo@@@std@@@std@@IAEXXZ ; std::vector<CvSmallAwardInfo *,std::allocator<CvSmallAwardInfo *> >::_Tidy
PUBLIC	?_Tidy@?$vector@PAVCvEntityEventInfo@@V?$allocator@PAVCvEntityEventInfo@@@std@@@std@@IAEXXZ ; std::vector<CvEntityEventInfo *,std::allocator<CvEntityEventInfo *> >::_Tidy
PUBLIC	?_Tidy@?$vector@PAVCvBaseInfo@@V?$allocator@PAVCvBaseInfo@@@std@@@std@@IAEXXZ ; std::vector<CvBaseInfo *,std::allocator<CvBaseInfo *> >::_Tidy
PUBLIC	?_Tidy@?$vector@PAVCvMultiUnitFormationInfo@@V?$allocator@PAVCvMultiUnitFormationInfo@@@std@@@std@@IAEXXZ ; std::vector<CvMultiUnitFormationInfo *,std::allocator<CvMultiUnitFormationInfo *> >::_Tidy
;	COMDAT xdata$x
; File c:\program files (x86)\microsoft visual studio 9.0\vc\include\xutility
xdata$x	SEGMENT
__ehfuncinfo$??1CvGlobals@@UAE@XZ DD 019930522H
	DD	053H
	DD	FLAT:__unwindtable$??1CvGlobals@@UAE@XZ
	DD	2 DUP(00H)
	DD	2 DUP(00H)
	DD	00H
	DD	01H
__unwindtable$??1CvGlobals@@UAE@XZ DD 0ffffffffH
	DD	FLAT:__unwindfunclet$??1CvGlobals@@UAE@XZ$0
	DD	00H
	DD	FLAT:__unwindfunclet$??1CvGlobals@@UAE@XZ$1
	DD	01H
	DD	FLAT:__unwindfunclet$??1CvGlobals@@UAE@XZ$2
	DD	02H
	DD	FLAT:__unwindfunclet$??1CvGlobals@@UAE@XZ$3
	DD	03H
	DD	FLAT:__unwindfunclet$??1CvGlobals@@UAE@XZ$4
	DD	04H
	DD	FLAT:__unwindfunclet$??1CvGlobals@@UAE@XZ$5
	DD	05H
	DD	FLAT:__unwindfunclet$??1CvGlobals@@UAE@XZ$6
	DD	06H
	DD	FLAT:__unwindfunclet$??1CvGlobals@@UAE@XZ$7
	DD	07H
	DD	FLAT:__unwindfunclet$??1CvGlobals@@UAE@XZ$8
	DD	08H
	DD	FLAT:__unwindfunclet$??1CvGlobals@@UAE@XZ$9
	DD	09H
	DD	FLAT:__unwindfunclet$??1CvGlobals@@UAE@XZ$10
	DD	0aH
	DD	FLAT:__unwindfunclet$??1CvGlobals@@UAE@XZ$11
	DD	0bH
	DD	FLAT:__unwindfunclet$??1CvGlobals@@UAE@XZ$12
	DD	0cH
	DD	FLAT:__unwindfunclet$??1CvGlobals@@UAE@XZ$13
	DD	0dH
	DD	FLAT:__unwindfunclet$??1CvGlobals@@UAE@XZ$14
	DD	0eH
	DD	FLAT:__unwindfunclet$??1CvGlobals@@UAE@XZ$15
	DD	0fH
	DD	FLAT:__unwindfunclet$??1CvGlobals@@UAE@XZ$16
	DD	010H
	DD	FLAT:__unwindfunclet$??1CvGlobals@@UAE@XZ$17
	DD	011H
	DD	FLAT:__unwindfunclet$??1CvGlobals@@UAE@XZ$18
	DD	012H
	DD	FLAT:__unwindfunclet$??1CvGlobals@@UAE@XZ$19
	DD	013H
	DD	FLAT:__unwindfunclet$??1CvGlobals@@UAE@XZ$20
	DD	014H
	DD	FLAT:__unwindfunclet$??1CvGlobals@@UAE@XZ$21
	DD	015H
	DD	FLAT:__unwindfunclet$??1CvGlobals@@UAE@XZ$22
	DD	016H
	DD	FLAT:__unwindfunclet$??1CvGlobals@@UAE@XZ$23
	DD	017H
	DD	FLAT:__unwindfunclet$??1CvGlobals@@UAE@XZ$24
	DD	018H
	DD	FLAT:__unwindfunclet$??1CvGlobals@@UAE@XZ$25
	DD	019H
	DD	FLAT:__unwindfunclet$??1CvGlobals@@UAE@XZ$26
	DD	01aH
	DD	FLAT:__unwindfunclet$??1CvGlobals@@UAE@XZ$27
	DD	01bH
	DD	FLAT:__unwindfunclet$??1CvGlobals@@UAE@XZ$28
	DD	01cH
	DD	FLAT:__unwindfunclet$??1CvGlobals@@UAE@XZ$29
	DD	01dH
	DD	FLAT:__unwindfunclet$??1CvGlobals@@UAE@XZ$30
	DD	01eH
	DD	FLAT:__unwindfunclet$??1CvGlobals@@UAE@XZ$31
	DD	01fH
	DD	FLAT:__unwindfunclet$??1CvGlobals@@UAE@XZ$32
	DD	020H
	DD	FLAT:__unwindfunclet$??1CvGlobals@@UAE@XZ$33
	DD	021H
	DD	FLAT:__unwindfunclet$??1CvGlobals@@UAE@XZ$34
	DD	022H
	DD	FLAT:__unwindfunclet$??1CvGlobals@@UAE@XZ$35
	DD	023H
	DD	FLAT:__unwindfunclet$??1CvGlobals@@UAE@XZ$36
	DD	024H
	DD	FLAT:__unwindfunclet$??1CvGlobals@@UAE@XZ$37
	DD	025H
	DD	FLAT:__unwindfunclet$??1CvGlobals@@UAE@XZ$38
	DD	026H
	DD	FLAT:__unwindfunclet$??1CvGlobals@@UAE@XZ$39
	DD	027H
	DD	FLAT:__unwindfunclet$??1CvGlobals@@UAE@XZ$40
	DD	028H
	DD	FLAT:__unwindfunclet$??1CvGlobals@@UAE@XZ$41
	DD	029H
	DD	FLAT:__unwindfunclet$??1CvGlobals@@UAE@XZ$43
	DD	028H
	DD	FLAT:__unwindfunclet$??1CvGlobals@@UAE@XZ$45
	DD	027H
	DD	FLAT:__unwindfunclet$??1CvGlobals@@UAE@XZ$47
	DD	026H
	DD	FLAT:__unwindfunclet$??1CvGlobals@@UAE@XZ$49
	DD	025H
	DD	FLAT:__unwindfunclet$??1CvGlobals@@UAE@XZ$51
	DD	024H
	DD	FLAT:__unwindfunclet$??1CvGlobals@@UAE@XZ$53
	DD	023H
	DD	FLAT:__unwindfunclet$??1CvGlobals@@UAE@XZ$55
	DD	022H
	DD	FLAT:__unwindfunclet$??1CvGlobals@@UAE@XZ$57
	DD	021H
	DD	FLAT:__unwindfunclet$??1CvGlobals@@UAE@XZ$59
	DD	020H
	DD	FLAT:__unwindfunclet$??1CvGlobals@@UAE@XZ$61
	DD	01fH
	DD	FLAT:__unwindfunclet$??1CvGlobals@@UAE@XZ$63
	DD	01eH
	DD	FLAT:__unwindfunclet$??1CvGlobals@@UAE@XZ$65
	DD	01dH
	DD	FLAT:__unwindfunclet$??1CvGlobals@@UAE@XZ$67
	DD	01cH
	DD	FLAT:__unwindfunclet$??1CvGlobals@@UAE@XZ$69
	DD	01bH
	DD	FLAT:__unwindfunclet$??1CvGlobals@@UAE@XZ$71
	DD	01aH
	DD	FLAT:__unwindfunclet$??1CvGlobals@@UAE@XZ$73
	DD	019H
	DD	FLAT:__unwindfunclet$??1CvGlobals@@UAE@XZ$75
	DD	018H
	DD	FLAT:__unwindfunclet$??1CvGlobals@@UAE@XZ$77
	DD	017H
	DD	FLAT:__unwindfunclet$??1CvGlobals@@UAE@XZ$79
	DD	016H
	DD	FLAT:__unwindfunclet$??1CvGlobals@@UAE@XZ$81
	DD	015H
	DD	FLAT:__unwindfunclet$??1CvGlobals@@UAE@XZ$83
	DD	014H
	DD	FLAT:__unwindfunclet$??1CvGlobals@@UAE@XZ$85
	DD	013H
	DD	FLAT:__unwindfunclet$??1CvGlobals@@UAE@XZ$87
	DD	012H
	DD	FLAT:__unwindfunclet$??1CvGlobals@@UAE@XZ$89
	DD	011H
	DD	FLAT:__unwindfunclet$??1CvGlobals@@UAE@XZ$91
	DD	010H
	DD	FLAT:__unwindfunclet$??1CvGlobals@@UAE@XZ$93
	DD	0fH
	DD	FLAT:__unwindfunclet$??1CvGlobals@@UAE@XZ$95
	DD	0eH
	DD	FLAT:__unwindfunclet$??1CvGlobals@@UAE@XZ$97
	DD	0dH
	DD	FLAT:__unwindfunclet$??1CvGlobals@@UAE@XZ$99
	DD	0cH
	DD	FLAT:__unwindfunclet$??1CvGlobals@@UAE@XZ$101
	DD	0bH
	DD	FLAT:__unwindfunclet$??1CvGlobals@@UAE@XZ$103
	DD	0aH
	DD	FLAT:__unwindfunclet$??1CvGlobals@@UAE@XZ$105
	DD	09H
	DD	FLAT:__unwindfunclet$??1CvGlobals@@UAE@XZ$107
	DD	08H
	DD	FLAT:__unwindfunclet$??1CvGlobals@@UAE@XZ$109
	DD	07H
	DD	FLAT:__unwindfunclet$??1CvGlobals@@UAE@XZ$111
	DD	06H
	DD	FLAT:__unwindfunclet$??1CvGlobals@@UAE@XZ$113
	DD	05H
	DD	FLAT:__unwindfunclet$??1CvGlobals@@UAE@XZ$115
	DD	04H
	DD	FLAT:__unwindfunclet$??1CvGlobals@@UAE@XZ$117
	DD	03H
	DD	FLAT:__unwindfunclet$??1CvGlobals@@UAE@XZ$119
	DD	02H
	DD	FLAT:__unwindfunclet$??1CvGlobals@@UAE@XZ$122
	DD	0ffffffffH
	DD	FLAT:__unwindfunclet$??1CvGlobals@@UAE@XZ$136
; Function compile flags: /Odtp
; File d:\sources\lekmod_git\checkout\lekmod_dll\cvgamecoredll_expansion2\cvglobals.cpp
xdata$x	ENDS
;	COMDAT ??1CvGlobals@@UAE@XZ
_TEXT	SEGMENT
_this$ = -424						; size = 4
$T257774 = -420						; size = 4
$T257718 = -388						; size = 4
$T257592 = -368						; size = 4
$T257522 = -364						; size = 4
$T257466 = -332						; size = 4
$T257410 = -300						; size = 4
$T257354 = -268						; size = 4
$T257298 = -236						; size = 4
$T257242 = -204						; size = 4
$T257186 = -172						; size = 4
$T257130 = -140						; size = 4
$T257112 = -136						; size = 4
$T257094 = -132						; size = 4
$T257076 = -128						; size = 4
$T257058 = -124						; size = 4
$T257040 = -120						; size = 4
$T257022 = -116						; size = 4
$T257004 = -112						; size = 4
$T256986 = -108						; size = 4
$T256968 = -104						; size = 4
$T256950 = -100						; size = 4
$T256932 = -96						; size = 4
$T256914 = -92						; size = 4
$T256896 = -88						; size = 4
$T256878 = -84						; size = 4
$T256860 = -80						; size = 4
$T256842 = -76						; size = 4
$T256824 = -72						; size = 4
$T256806 = -68						; size = 4
$T256788 = -64						; size = 4
$T256770 = -60						; size = 4
$T256752 = -56						; size = 4
$T256734 = -52						; size = 4
$T256716 = -48						; size = 4
$T256698 = -44						; size = 4
$T256680 = -40						; size = 4
$T256662 = -36						; size = 4
$T256644 = -32						; size = 4
$T256626 = -28						; size = 4
$T256608 = -24						; size = 4
$T256590 = -20						; size = 4
$T256572 = -16						; size = 4
__$EHRec$ = -12						; size = 12
??1CvGlobals@@UAE@XZ PROC				; CvGlobals::~CvGlobals, COMDAT
; _this$ = ecx

; 1940 : {

	push	ebp
	mov	ebp, esp
	push	-1
	push	__ehhandler$??1CvGlobals@@UAE@XZ
	mov	eax, DWORD PTR fs:0
	push	eax
	sub	esp, 412				; 0000019cH
	mov	eax, DWORD PTR ___security_cookie
	xor	eax, ebp
	push	eax
	lea	eax, DWORD PTR __$EHRec$[ebp]
	mov	DWORD PTR fs:0, eax
	mov	DWORD PTR _this$[ebp], ecx
	mov	eax, DWORD PTR _this$[ebp]
	mov	DWORD PTR [eax], OFFSET ??_7CvGlobals@@6B@
	mov	DWORD PTR __$EHRec$[ebp+8], 41		; 00000029H

; 1941 : }

	mov	ecx, DWORD PTR _this$[ebp]
	add	ecx, 1652				; 00000674H
	mov	DWORD PTR $T256572[ebp], ecx
	mov	BYTE PTR __$EHRec$[ebp+8], 42		; 0000002aH
	mov	ecx, DWORD PTR $T256572[ebp]
	call	?_Tidy@?$vector@PAVCvMultiUnitFormationInfo@@V?$allocator@PAVCvMultiUnitFormationInfo@@@std@@@std@@IAEXXZ ; std::vector<CvMultiUnitFormationInfo *,std::allocator<CvMultiUnitFormationInfo *> >::_Tidy
	mov	BYTE PTR __$EHRec$[ebp+8], 41		; 00000029H
	mov	BYTE PTR __$EHRec$[ebp+8], 40		; 00000028H
	mov	edx, DWORD PTR _this$[ebp]
	add	edx, 1636				; 00000664H
	mov	DWORD PTR $T256590[ebp], edx
	mov	BYTE PTR __$EHRec$[ebp+8], 43		; 0000002bH
	mov	ecx, DWORD PTR $T256590[ebp]
	call	?_Tidy@?$vector@PAVCvBaseInfo@@V?$allocator@PAVCvBaseInfo@@@std@@@std@@IAEXXZ ; std::vector<CvBaseInfo *,std::allocator<CvBaseInfo *> >::_Tidy
	mov	BYTE PTR __$EHRec$[ebp+8], 40		; 00000028H
	mov	BYTE PTR __$EHRec$[ebp+8], 39		; 00000027H
	mov	eax, DWORD PTR _this$[ebp]
	add	eax, 1620				; 00000654H
	mov	DWORD PTR $T256608[ebp], eax
	mov	BYTE PTR __$EHRec$[ebp+8], 44		; 0000002cH
	mov	ecx, DWORD PTR $T256608[ebp]
	call	?_Tidy@?$vector@PAVCvEntityEventInfo@@V?$allocator@PAVCvEntityEventInfo@@@std@@@std@@IAEXXZ ; std::vector<CvEntityEventInfo *,std::allocator<CvEntityEventInfo *> >::_Tidy
	mov	BYTE PTR __$EHRec$[ebp+8], 39		; 00000027H
	mov	BYTE PTR __$EHRec$[ebp+8], 38		; 00000026H
	mov	ecx, DWORD PTR _this$[ebp]
	add	ecx, 1604				; 00000644H
	mov	DWORD PTR $T256626[ebp], ecx
	mov	BYTE PTR __$EHRec$[ebp+8], 45		; 0000002dH
	mov	ecx, DWORD PTR $T256626[ebp]
	call	?_Tidy@?$vector@PAVCvSmallAwardInfo@@V?$allocator@PAVCvSmallAwardInfo@@@std@@@std@@IAEXXZ ; std::vector<CvSmallAwardInfo *,std::allocator<CvSmallAwardInfo *> >::_Tidy
	mov	BYTE PTR __$EHRec$[ebp+8], 38		; 00000026H
	mov	BYTE PTR __$EHRec$[ebp+8], 37		; 00000025H
	mov	edx, DWORD PTR _this$[ebp]
	add	edx, 1588				; 00000634H
	mov	DWORD PTR $T256644[ebp], edx
	mov	BYTE PTR __$EHRec$[ebp+8], 46		; 0000002eH
	mov	ecx, DWORD PTR $T256644[ebp]
	call	?_Tidy@?$vector@PAVCvVictoryInfo@@V?$allocator@PAVCvVictoryInfo@@@std@@@std@@IAEXXZ ; std::vector<CvVictoryInfo *,std::allocator<CvVictoryInfo *> >::_Tidy
	mov	BYTE PTR __$EHRec$[ebp+8], 37		; 00000025H
	mov	BYTE PTR __$EHRec$[ebp+8], 36		; 00000024H
	mov	eax, DWORD PTR _this$[ebp]
	add	eax, 1572				; 00000624H
	mov	DWORD PTR $T256662[ebp], eax
	mov	BYTE PTR __$EHRec$[ebp+8], 47		; 0000002fH
	mov	ecx, DWORD PTR $T256662[ebp]
	call	?_Tidy@?$vector@PAVCvHurryInfo@@V?$allocator@PAVCvHurryInfo@@@std@@@std@@IAEXXZ ; std::vector<CvHurryInfo *,std::allocator<CvHurryInfo *> >::_Tidy
	mov	BYTE PTR __$EHRec$[ebp+8], 36		; 00000024H
	mov	BYTE PTR __$EHRec$[ebp+8], 35		; 00000023H
	mov	ecx, DWORD PTR _this$[ebp]
	add	ecx, 1556				; 00000614H
	mov	DWORD PTR $T256680[ebp], ecx
	mov	BYTE PTR __$EHRec$[ebp+8], 48		; 00000030H
	mov	ecx, DWORD PTR $T256680[ebp]
	call	?_Tidy@?$vector@PAVCvEraInfo@@V?$allocator@PAVCvEraInfo@@@std@@@std@@IAEXXZ ; std::vector<CvEraInfo *,std::allocator<CvEraInfo *> >::_Tidy
	mov	BYTE PTR __$EHRec$[ebp+8], 35		; 00000023H
	mov	BYTE PTR __$EHRec$[ebp+8], 34		; 00000022H
	mov	edx, DWORD PTR _this$[ebp]
	add	edx, 1540				; 00000604H
	mov	DWORD PTR $T256698[ebp], edx
	mov	BYTE PTR __$EHRec$[ebp+8], 49		; 00000031H
	mov	ecx, DWORD PTR $T256698[ebp]
	call	?_Tidy@?$vector@PAVCvAutomateInfo@@V?$allocator@PAVCvAutomateInfo@@@std@@@std@@IAEXXZ ; std::vector<CvAutomateInfo *,std::allocator<CvAutomateInfo *> >::_Tidy
	mov	BYTE PTR __$EHRec$[ebp+8], 34		; 00000022H
	mov	BYTE PTR __$EHRec$[ebp+8], 33		; 00000021H
	mov	eax, DWORD PTR _this$[ebp]
	add	eax, 1524				; 000005f4H
	mov	DWORD PTR $T256716[ebp], eax
	mov	BYTE PTR __$EHRec$[ebp+8], 50		; 00000032H
	mov	ecx, DWORD PTR $T256716[ebp]
	call	?_Tidy@?$vector@PAVCvCommandInfo@@V?$allocator@PAVCvCommandInfo@@@std@@@std@@IAEXXZ ; std::vector<CvCommandInfo *,std::allocator<CvCommandInfo *> >::_Tidy
	mov	BYTE PTR __$EHRec$[ebp+8], 33		; 00000021H
	mov	BYTE PTR __$EHRec$[ebp+8], 32		; 00000020H
	mov	ecx, DWORD PTR _this$[ebp]
	add	ecx, 1508				; 000005e4H
	mov	DWORD PTR $T256734[ebp], ecx
	mov	BYTE PTR __$EHRec$[ebp+8], 51		; 00000033H
	mov	ecx, DWORD PTR $T256734[ebp]
	call	?_Tidy@?$vector@PAVCvControlInfo@@V?$allocator@PAVCvControlInfo@@@std@@@std@@IAEXXZ ; std::vector<CvControlInfo *,std::allocator<CvControlInfo *> >::_Tidy
	mov	BYTE PTR __$EHRec$[ebp+8], 32		; 00000020H
	mov	BYTE PTR __$EHRec$[ebp+8], 31		; 0000001fH
	mov	edx, DWORD PTR _this$[ebp]
	add	edx, 1492				; 000005d4H
	mov	DWORD PTR $T256752[ebp], edx
	mov	BYTE PTR __$EHRec$[ebp+8], 52		; 00000034H
	mov	ecx, DWORD PTR $T256752[ebp]
	call	?_Tidy@?$vector@PAVCvMissionInfo@@V?$allocator@PAVCvMissionInfo@@@std@@@std@@IAEXXZ ; std::vector<CvMissionInfo *,std::allocator<CvMissionInfo *> >::_Tidy
	mov	BYTE PTR __$EHRec$[ebp+8], 31		; 0000001fH
	mov	BYTE PTR __$EHRec$[ebp+8], 30		; 0000001eH
	mov	eax, DWORD PTR _this$[ebp]
	add	eax, 1476				; 000005c4H
	mov	DWORD PTR $T256770[ebp], eax
	mov	BYTE PTR __$EHRec$[ebp+8], 53		; 00000035H
	mov	ecx, DWORD PTR $T256770[ebp]
	call	?_Tidy@?$vector@PAVCvActionInfo@@V?$allocator@PAVCvActionInfo@@@std@@@std@@IAEXXZ ; std::vector<CvActionInfo *,std::allocator<CvActionInfo *> >::_Tidy
	mov	BYTE PTR __$EHRec$[ebp+8], 30		; 0000001eH
	mov	BYTE PTR __$EHRec$[ebp+8], 29		; 0000001dH
	mov	ecx, DWORD PTR _this$[ebp]
	add	ecx, 1460				; 000005b4H
	mov	DWORD PTR $T256788[ebp], ecx
	mov	BYTE PTR __$EHRec$[ebp+8], 54		; 00000036H
	mov	ecx, DWORD PTR $T256788[ebp]
	call	?_Tidy@?$vector@PAVCvSpecialistInfo@@V?$allocator@PAVCvSpecialistInfo@@@std@@@std@@IAEXXZ ; std::vector<CvSpecialistInfo *,std::allocator<CvSpecialistInfo *> >::_Tidy
	mov	BYTE PTR __$EHRec$[ebp+8], 29		; 0000001dH
	mov	BYTE PTR __$EHRec$[ebp+8], 28		; 0000001cH
	mov	edx, DWORD PTR _this$[ebp]
	add	edx, 1444				; 000005a4H
	mov	DWORD PTR $T256806[ebp], edx
	mov	BYTE PTR __$EHRec$[ebp+8], 55		; 00000037H
	mov	ecx, DWORD PTR $T256806[ebp]
	call	?_Tidy@?$vector@PAVCvPlayerOptionInfo@@V?$allocator@PAVCvPlayerOptionInfo@@@std@@@std@@IAEXXZ ; std::vector<CvPlayerOptionInfo *,std::allocator<CvPlayerOptionInfo *> >::_Tidy
	mov	BYTE PTR __$EHRec$[ebp+8], 28		; 0000001cH
	mov	BYTE PTR __$EHRec$[ebp+8], 27		; 0000001bH
	mov	eax, DWORD PTR _this$[ebp]
	add	eax, 1428				; 00000594H
	mov	DWORD PTR $T256824[ebp], eax
	mov	BYTE PTR __$EHRec$[ebp+8], 56		; 00000038H
	mov	ecx, DWORD PTR $T256824[ebp]
	call	?_Tidy@?$vector@PAVCvMPOptionInfo@@V?$allocator@PAVCvMPOptionInfo@@@std@@@std@@IAEXXZ ; std::vector<CvMPOptionInfo *,std::allocator<CvMPOptionInfo *> >::_Tidy
	mov	BYTE PTR __$EHRec$[ebp+8], 27		; 0000001bH
	mov	BYTE PTR __$EHRec$[ebp+8], 26		; 0000001aH
	mov	ecx, DWORD PTR _this$[ebp]
	add	ecx, 1412				; 00000584H
	mov	DWORD PTR $T256842[ebp], ecx
	mov	BYTE PTR __$EHRec$[ebp+8], 57		; 00000039H
	mov	ecx, DWORD PTR $T256842[ebp]
	call	?_Tidy@?$vector@PAVCvGameOptionInfo@@V?$allocator@PAVCvGameOptionInfo@@@std@@@std@@IAEXXZ ; std::vector<CvGameOptionInfo *,std::allocator<CvGameOptionInfo *> >::_Tidy
	mov	BYTE PTR __$EHRec$[ebp+8], 26		; 0000001aH
	mov	BYTE PTR __$EHRec$[ebp+8], 25		; 00000019H
	mov	edx, DWORD PTR _this$[ebp]
	add	edx, 1396				; 00000574H
	mov	DWORD PTR $T256860[ebp], edx
	mov	BYTE PTR __$EHRec$[ebp+8], 58		; 0000003aH
	mov	ecx, DWORD PTR $T256860[ebp]
	call	?_Tidy@?$vector@PAVCvBaseInfo@@V?$allocator@PAVCvBaseInfo@@@std@@@std@@IAEXXZ ; std::vector<CvBaseInfo *,std::allocator<CvBaseInfo *> >::_Tidy
	mov	BYTE PTR __$EHRec$[ebp+8], 25		; 00000019H
	mov	BYTE PTR __$EHRec$[ebp+8], 24		; 00000018H
	mov	eax, DWORD PTR _this$[ebp]
	add	eax, 1380				; 00000564H
	mov	DWORD PTR $T256878[ebp], eax
	mov	BYTE PTR __$EHRec$[ebp+8], 59		; 0000003bH
	mov	ecx, DWORD PTR $T256878[ebp]
	call	?_Tidy@?$vector@PAVCvBaseInfo@@V?$allocator@PAVCvBaseInfo@@@std@@@std@@IAEXXZ ; std::vector<CvBaseInfo *,std::allocator<CvBaseInfo *> >::_Tidy
	mov	BYTE PTR __$EHRec$[ebp+8], 24		; 00000018H
	mov	BYTE PTR __$EHRec$[ebp+8], 23		; 00000017H
	mov	ecx, DWORD PTR _this$[ebp]
	add	ecx, 1364				; 00000554H
	mov	DWORD PTR $T256896[ebp], ecx
	mov	BYTE PTR __$EHRec$[ebp+8], 60		; 0000003cH
	mov	ecx, DWORD PTR $T256896[ebp]
	call	?_Tidy@?$vector@PAVCvVoteSourceInfo@@V?$allocator@PAVCvVoteSourceInfo@@@std@@@std@@IAEXXZ ; std::vector<CvVoteSourceInfo *,std::allocator<CvVoteSourceInfo *> >::_Tidy
	mov	BYTE PTR __$EHRec$[ebp+8], 23		; 00000017H
	mov	BYTE PTR __$EHRec$[ebp+8], 22		; 00000016H
	mov	edx, DWORD PTR _this$[ebp]
	add	edx, 1348				; 00000544H
	mov	DWORD PTR $T256914[ebp], edx
	mov	BYTE PTR __$EHRec$[ebp+8], 61		; 0000003dH
	mov	ecx, DWORD PTR $T256914[ebp]
	call	?_Tidy@?$vector@PAVCvSpecialUnitInfo@@V?$allocator@PAVCvSpecialUnitInfo@@@std@@@std@@IAEXXZ ; std::vector<CvSpecialUnitInfo *,std::allocator<CvSpecialUnitInfo *> >::_Tidy
	mov	BYTE PTR __$EHRec$[ebp+8], 22		; 00000016H
	mov	BYTE PTR __$EHRec$[ebp+8], 21		; 00000015H
	mov	eax, DWORD PTR _this$[ebp]
	add	eax, 1332				; 00000534H
	mov	DWORD PTR $T256932[ebp], eax
	mov	BYTE PTR __$EHRec$[ebp+8], 62		; 0000003eH
	mov	ecx, DWORD PTR $T256932[ebp]
	call	?_Tidy@?$vector@PAVCvUnitClassInfo@@V?$allocator@PAVCvUnitClassInfo@@@std@@@std@@IAEXXZ ; std::vector<CvUnitClassInfo *,std::allocator<CvUnitClassInfo *> >::_Tidy
	mov	BYTE PTR __$EHRec$[ebp+8], 21		; 00000015H
	mov	BYTE PTR __$EHRec$[ebp+8], 20		; 00000014H
	mov	ecx, DWORD PTR _this$[ebp]
	add	ecx, 1316				; 00000524H
	mov	DWORD PTR $T256950[ebp], ecx
	mov	BYTE PTR __$EHRec$[ebp+8], 63		; 0000003fH
	mov	ecx, DWORD PTR $T256950[ebp]
	call	?_Tidy@?$vector@PAVCvBuildingClassInfo@@V?$allocator@PAVCvBuildingClassInfo@@@std@@@std@@IAEXXZ ; std::vector<CvBuildingClassInfo *,std::allocator<CvBuildingClassInfo *> >::_Tidy
	mov	BYTE PTR __$EHRec$[ebp+8], 20		; 00000014H
	mov	BYTE PTR __$EHRec$[ebp+8], 19		; 00000013H
	mov	edx, DWORD PTR _this$[ebp]
	add	edx, 1300				; 00000514H
	mov	DWORD PTR $T256968[ebp], edx
	mov	BYTE PTR __$EHRec$[ebp+8], 64		; 00000040H
	mov	ecx, DWORD PTR $T256968[ebp]
	call	?_Tidy@?$vector@PAVCvVoteInfo@@V?$allocator@PAVCvVoteInfo@@@std@@@std@@IAEXXZ ; std::vector<CvVoteInfo *,std::allocator<CvVoteInfo *> >::_Tidy
	mov	BYTE PTR __$EHRec$[ebp+8], 19		; 00000013H
	mov	BYTE PTR __$EHRec$[ebp+8], 18		; 00000012H
	mov	eax, DWORD PTR _this$[ebp]
	add	eax, 1284				; 00000504H
	mov	DWORD PTR $T256986[ebp], eax
	mov	BYTE PTR __$EHRec$[ebp+8], 65		; 00000041H
	mov	ecx, DWORD PTR $T256986[ebp]
	call	?_Tidy@?$vector@PAVCvProcessInfo@@V?$allocator@PAVCvProcessInfo@@@std@@@std@@IAEXXZ ; std::vector<CvProcessInfo *,std::allocator<CvProcessInfo *> >::_Tidy
	mov	BYTE PTR __$EHRec$[ebp+8], 18		; 00000012H
	mov	BYTE PTR __$EHRec$[ebp+8], 17		; 00000011H
	mov	ecx, DWORD PTR _this$[ebp]
	add	ecx, 1268				; 000004f4H
	mov	DWORD PTR $T257004[ebp], ecx
	mov	BYTE PTR __$EHRec$[ebp+8], 66		; 00000042H
	mov	ecx, DWORD PTR $T257004[ebp]
	call	?_Tidy@?$vector@PAVCvLeaderHeadInfo@@V?$allocator@PAVCvLeaderHeadInfo@@@std@@@std@@IAEXXZ ; std::vector<CvLeaderHeadInfo *,std::allocator<CvLeaderHeadInfo *> >::_Tidy
	mov	BYTE PTR __$EHRec$[ebp+8], 17		; 00000011H
	mov	BYTE PTR __$EHRec$[ebp+8], 16		; 00000010H
	mov	edx, DWORD PTR _this$[ebp]
	add	edx, 1252				; 000004e4H
	mov	DWORD PTR $T257022[ebp], edx
	mov	BYTE PTR __$EHRec$[ebp+8], 67		; 00000043H
	mov	ecx, DWORD PTR $T257022[ebp]
	call	?_Tidy@?$vector@PAVCvMinorCivInfo@@V?$allocator@PAVCvMinorCivInfo@@@std@@@std@@IAEXXZ ; std::vector<CvMinorCivInfo *,std::allocator<CvMinorCivInfo *> >::_Tidy
	mov	BYTE PTR __$EHRec$[ebp+8], 16		; 00000010H
	mov	BYTE PTR __$EHRec$[ebp+8], 15		; 0000000fH
	mov	eax, DWORD PTR _this$[ebp]
	add	eax, 1228				; 000004ccH
	mov	DWORD PTR $T257040[ebp], eax
	mov	BYTE PTR __$EHRec$[ebp+8], 68		; 00000044H
	mov	ecx, DWORD PTR $T257040[ebp]
	call	?_Tidy@?$vector@PAVCvCivilizationInfo@@V?$allocator@PAVCvCivilizationInfo@@@std@@@std@@IAEXXZ ; std::vector<CvCivilizationInfo *,std::allocator<CvCivilizationInfo *> >::_Tidy
	mov	BYTE PTR __$EHRec$[ebp+8], 15		; 0000000fH
	mov	BYTE PTR __$EHRec$[ebp+8], 14		; 0000000eH
	mov	ecx, DWORD PTR _this$[ebp]
	add	ecx, 1212				; 000004bcH
	mov	DWORD PTR $T257058[ebp], ecx
	mov	BYTE PTR __$EHRec$[ebp+8], 69		; 00000045H
	mov	ecx, DWORD PTR $T257058[ebp]
	call	?_Tidy@?$vector@PAVCvTurnTimerInfo@@V?$allocator@PAVCvTurnTimerInfo@@@std@@@std@@IAEXXZ ; std::vector<CvTurnTimerInfo *,std::allocator<CvTurnTimerInfo *> >::_Tidy
	mov	BYTE PTR __$EHRec$[ebp+8], 14		; 0000000eH
	mov	BYTE PTR __$EHRec$[ebp+8], 13		; 0000000dH
	mov	edx, DWORD PTR _this$[ebp]
	add	edx, 1196				; 000004acH
	mov	DWORD PTR $T257076[ebp], edx
	mov	BYTE PTR __$EHRec$[ebp+8], 70		; 00000046H
	mov	ecx, DWORD PTR $T257076[ebp]
	call	?_Tidy@?$vector@PAVCvGameSpeedInfo@@V?$allocator@PAVCvGameSpeedInfo@@@std@@@std@@IAEXXZ ; std::vector<CvGameSpeedInfo *,std::allocator<CvGameSpeedInfo *> >::_Tidy
	mov	BYTE PTR __$EHRec$[ebp+8], 13		; 0000000dH
	mov	BYTE PTR __$EHRec$[ebp+8], 12		; 0000000cH
	mov	eax, DWORD PTR _this$[ebp]
	add	eax, 1180				; 0000049cH
	mov	DWORD PTR $T257094[ebp], eax
	mov	BYTE PTR __$EHRec$[ebp+8], 71		; 00000047H
	mov	ecx, DWORD PTR $T257094[ebp]
	call	?_Tidy@?$vector@PAVCvHandicapInfo@@V?$allocator@PAVCvHandicapInfo@@@std@@@std@@IAEXXZ ; std::vector<CvHandicapInfo *,std::allocator<CvHandicapInfo *> >::_Tidy
	mov	BYTE PTR __$EHRec$[ebp+8], 12		; 0000000cH
	mov	BYTE PTR __$EHRec$[ebp+8], 11		; 0000000bH
	mov	ecx, DWORD PTR _this$[ebp]
	add	ecx, 1164				; 0000048cH
	mov	DWORD PTR $T257112[ebp], ecx
	mov	BYTE PTR __$EHRec$[ebp+8], 72		; 00000048H
	mov	ecx, DWORD PTR $T257112[ebp]
	call	?_Tidy@?$vector@PAVCvBuildInfo@@V?$allocator@PAVCvBuildInfo@@@std@@@std@@IAEXXZ ; std::vector<CvBuildInfo *,std::allocator<CvBuildInfo *> >::_Tidy
	mov	BYTE PTR __$EHRec$[ebp+8], 11		; 0000000bH
	mov	BYTE PTR __$EHRec$[ebp+8], 10		; 0000000aH
	mov	edx, DWORD PTR _this$[ebp]
	add	edx, 1148				; 0000047cH
	mov	DWORD PTR $T257130[ebp], edx
	mov	BYTE PTR __$EHRec$[ebp+8], 73		; 00000049H
	mov	ecx, DWORD PTR $T257130[ebp]
	call	?_Tidy@?$vector@PAVCvResourceInfo@@V?$allocator@PAVCvResourceInfo@@@std@@@std@@IAEXXZ ; std::vector<CvResourceInfo *,std::allocator<CvResourceInfo *> >::_Tidy
	mov	BYTE PTR __$EHRec$[ebp+8], 10		; 0000000aH
	mov	BYTE PTR __$EHRec$[ebp+8], 9
	mov	eax, DWORD PTR _this$[ebp]
	add	eax, 1132				; 0000046cH
	mov	DWORD PTR $T257186[ebp], eax
	mov	BYTE PTR __$EHRec$[ebp+8], 74		; 0000004aH
	mov	ecx, DWORD PTR $T257186[ebp]
	call	?_Tidy@?$vector@PAVCvResourceClassInfo@@V?$allocator@PAVCvResourceClassInfo@@@std@@@std@@IAEXXZ ; std::vector<CvResourceClassInfo *,std::allocator<CvResourceClassInfo *> >::_Tidy
	mov	BYTE PTR __$EHRec$[ebp+8], 9
	mov	BYTE PTR __$EHRec$[ebp+8], 8
	mov	ecx, DWORD PTR _this$[ebp]
	add	ecx, 1116				; 0000045cH
	mov	DWORD PTR $T257242[ebp], ecx
	mov	BYTE PTR __$EHRec$[ebp+8], 75		; 0000004bH
	mov	ecx, DWORD PTR $T257242[ebp]
	call	?_Tidy@?$vector@PAVCvFeatureInfo@@V?$allocator@PAVCvFeatureInfo@@@std@@@std@@IAEXXZ ; std::vector<CvFeatureInfo *,std::allocator<CvFeatureInfo *> >::_Tidy
	mov	BYTE PTR __$EHRec$[ebp+8], 8
	mov	BYTE PTR __$EHRec$[ebp+8], 7
	mov	edx, DWORD PTR _this$[ebp]
	add	edx, 1100				; 0000044cH
	mov	DWORD PTR $T257298[ebp], edx
	mov	BYTE PTR __$EHRec$[ebp+8], 76		; 0000004cH
	mov	ecx, DWORD PTR $T257298[ebp]
	call	?_Tidy@?$vector@PAVCvRouteInfo@@V?$allocator@PAVCvRouteInfo@@@std@@@std@@IAEXXZ ; std::vector<CvRouteInfo *,std::allocator<CvRouteInfo *> >::_Tidy
	mov	BYTE PTR __$EHRec$[ebp+8], 7
	mov	BYTE PTR __$EHRec$[ebp+8], 6
	mov	eax, DWORD PTR _this$[ebp]
	add	eax, 1084				; 0000043cH
	mov	DWORD PTR $T257354[ebp], eax
	mov	BYTE PTR __$EHRec$[ebp+8], 77		; 0000004dH
	mov	ecx, DWORD PTR $T257354[ebp]
	call	?_Tidy@?$vector@PAVCvYieldInfo@@V?$allocator@PAVCvYieldInfo@@@std@@@std@@IAEXXZ ; std::vector<CvYieldInfo *,std::allocator<CvYieldInfo *> >::_Tidy
	mov	BYTE PTR __$EHRec$[ebp+8], 6
	mov	BYTE PTR __$EHRec$[ebp+8], 5
	mov	ecx, DWORD PTR _this$[ebp]
	add	ecx, 1068				; 0000042cH
	mov	DWORD PTR $T257410[ebp], ecx
	mov	BYTE PTR __$EHRec$[ebp+8], 78		; 0000004eH
	mov	ecx, DWORD PTR $T257410[ebp]
	call	?_Tidy@?$vector@PAVCvTerrainInfo@@V?$allocator@PAVCvTerrainInfo@@@std@@@std@@IAEXXZ ; std::vector<CvTerrainInfo *,std::allocator<CvTerrainInfo *> >::_Tidy
	mov	BYTE PTR __$EHRec$[ebp+8], 5
	mov	BYTE PTR __$EHRec$[ebp+8], 4
	mov	edx, DWORD PTR _this$[ebp]
	add	edx, 1052				; 0000041cH
	mov	DWORD PTR $T257466[ebp], edx
	mov	BYTE PTR __$EHRec$[ebp+8], 79		; 0000004fH
	mov	ecx, DWORD PTR $T257466[ebp]
	call	?_Tidy@?$vector@PAVCvPlayerColorInfo@@V?$allocator@PAVCvPlayerColorInfo@@@std@@@std@@IAEXXZ ; std::vector<CvPlayerColorInfo *,std::allocator<CvPlayerColorInfo *> >::_Tidy
	mov	BYTE PTR __$EHRec$[ebp+8], 4
	mov	BYTE PTR __$EHRec$[ebp+8], 3
	mov	eax, DWORD PTR _this$[ebp]
	add	eax, 1036				; 0000040cH
	mov	DWORD PTR $T257522[ebp], eax
	mov	BYTE PTR __$EHRec$[ebp+8], 80		; 00000050H
	mov	ecx, DWORD PTR $T257522[ebp]
	call	?_Tidy@?$vector@PAVCvColorInfo@@V?$allocator@PAVCvColorInfo@@@std@@@std@@IAEXXZ ; std::vector<CvColorInfo *,std::allocator<CvColorInfo *> >::_Tidy
	mov	BYTE PTR __$EHRec$[ebp+8], 3
	mov	BYTE PTR __$EHRec$[ebp+8], 2
	mov	ecx, DWORD PTR _this$[ebp]
	add	ecx, 1024				; 00000400H
	mov	DWORD PTR $T257592[ebp], ecx
	mov	BYTE PTR __$EHRec$[ebp+8], 81		; 00000051H
	mov	ecx, DWORD PTR $T257592[ebp]
	call	?_Tidy@?$_Tree@V?$_Tmap_traits@IHU?$less@I@std@@V?$allocator@U?$pair@$$CBIH@std@@@2@$0A@@std@@@std@@IAEXXZ ; std::_Tree<std::_Tmap_traits<unsigned int,int,std::less<unsigned int>,std::allocator<std::pair<unsigned int const ,int> >,0> >::_Tidy
	mov	BYTE PTR __$EHRec$[ebp+8], 2
	mov	BYTE PTR __$EHRec$[ebp+8], 1
	mov	edx, DWORD PTR _this$[ebp]
	add	edx, 980				; 000003d4H
	mov	DWORD PTR $T257718[ebp], edx
	mov	ecx, DWORD PTR $T257718[ebp]
	call	??1?$_Hash@V?$_Hmap_traits@V?$basic_string@DU?$char_traits@D@std@@V?$allocator@D@2@@std@@HV?$hash_compare@V?$basic_string@DU?$char_traits@D@std@@V?$allocator@D@2@@std@@U?$less@V?$basic_string@DU?$char_traits@D@std@@V?$allocator@D@2@@std@@@2@@stdext@@V?$allocator@U?$pair@$$CBV?$basic_string@DU?$char_traits@D@std@@V?$allocator@D@2@@std@@H@std@@@2@$0A@@stdext@@@stdext@@QAE@XZ ; stdext::_Hash<stdext::_Hmap_traits<std::basic_string<char,std::char_traits<char>,std::allocator<char> >,int,stdext::hash_compare<std::basic_string<char,std::char_traits<char>,std::allocator<char> >,std::less<std::basic_string<char,std::char_traits<char>,std::allocator<char> > > >,std::allocator<std::pair<std::basic_string<char,std::char_traits<char>,std::allocator<char> > const ,int> >,0> >::~_Hash<stdext::_Hmap_traits<std::basic_string<char,std::char_traits<char>,std::allocator<char> >,int,stdext::hash_compare<std::basic_string<char,std::char_traits<char>,std::allocator<char> >,std::less<std::basic_string<char,std::char_traits<char>,std::allocator<char> > > >,std::allocator<std::pair<std::basic_string<char,std::char_traits<char>,std::allocator<char> > const ,int> >,0> >
	mov	BYTE PTR __$EHRec$[ebp+8], 0
	mov	ecx, DWORD PTR _this$[ebp]
	add	ecx, 916				; 00000394H
	call	DWORD PTR __imp_??1Results@Database@@UAE@XZ
	mov	DWORD PTR __$EHRec$[ebp+8], -1
	mov	eax, DWORD PTR _this$[ebp]
	add	eax, 896				; 00000380H
	mov	DWORD PTR $T257774[ebp], eax
	mov	DWORD PTR __$EHRec$[ebp+8], 82		; 00000052H
	mov	ecx, DWORD PTR $T257774[ebp]
	call	?_Tidy@?$vector@PAVCvInterfaceModeInfo@@V?$allocator@PAVCvInterfaceModeInfo@@@std@@@std@@IAEXXZ ; std::vector<CvInterfaceModeInfo *,std::allocator<CvInterfaceModeInfo *> >::_Tidy
	mov	DWORD PTR __$EHRec$[ebp+8], -1
	mov	ecx, DWORD PTR __$EHRec$[ebp]
	mov	DWORD PTR fs:0, ecx
	pop	ecx
	mov	esp, ebp
	pop	ebp
	ret	0
_TEXT	ENDS
;	COMDAT text$x
text$x	SEGMENT
__unwindfunclet$??1CvGlobals@@UAE@XZ$0:
	mov	ecx, DWORD PTR _this$[ebp]
	add	ecx, 896				; 00000380H
	jmp	??1?$vector@PAVCvInterfaceModeInfo@@V?$allocator@PAVCvInterfaceModeInfo@@@std@@@std@@QAE@XZ ; std::vector<CvInterfaceModeInfo *,std::allocator<CvInterfaceModeInfo *> >::~vector<CvInterfaceModeInfo *,std::allocator<CvInterfaceModeInfo *> >
__unwindfunclet$??1CvGlobals@@UAE@XZ$1:
	mov	ecx, DWORD PTR _this$[ebp]
	add	ecx, 916				; 00000394H
	jmp	DWORD PTR __imp_??1Results@Database@@UAE@XZ
__unwindfunclet$??1CvGlobals@@UAE@XZ$2:
	mov	ecx, DWORD PTR _this$[ebp]
	add	ecx, 980				; 000003d4H
	jmp	??1?$hash_map@V?$basic_string@DU?$char_traits@D@std@@V?$allocator@D@2@@std@@HV?$hash_compare@V?$basic_string@DU?$char_traits@D@std@@V?$allocator@D@2@@std@@U?$less@V?$basic_string@DU?$char_traits@D@std@@V?$allocator@D@2@@std@@@2@@stdext@@V?$allocator@U?$pair@$$CBV?$basic_string@DU?$char_traits@D@std@@V?$allocator@D@2@@std@@H@std@@@2@@stdext@@QAE@XZ
__unwindfunclet$??1CvGlobals@@UAE@XZ$3:
	mov	ecx, DWORD PTR _this$[ebp]
	add	ecx, 1024				; 00000400H
	jmp	??1?$map@IHU?$less@I@std@@V?$allocator@U?$pair@$$CBIH@std@@@2@@std@@QAE@XZ
