; Listing generated by Microsoft (R) Optimizing Compiler Version 15.00.30729.01 

	TITLE	D:\sources\Lekmod_git\checkout\LEKMOD_DLL\CvGameCoreDLL_Expansion2\CvGrandStrategyAI.cpp
	.686P
	.XMM
	include listing.inc
	.model	flat

INCLUDELIB MSVCRT
INCLUDELIB OLDNAMES

PUBLIC	?NO_QUEST_DATA@CvMinorCivQuest@@2HB		; CvMinorCivQuest::NO_QUEST_DATA
PUBLIC	?NO_TURN@CvMinorCivQuest@@2HB			; CvMinorCivQuest::NO_TURN
;	COMDAT ?NO_TURN@CvMinorCivQuest@@2HB
CONST	SEGMENT
?NO_TURN@CvMinorCivQuest@@2HB DD 0ffffffffH		; CvMinorCivQuest::NO_TURN
CONST	ENDS
;	COMDAT ?NO_QUEST_DATA@CvMinorCivQuest@@2HB
CONST	SEGMENT
?NO_QUEST_DATA@CvMinorCivQuest@@2HB DD 0ffffffffH	; CvMinorCivQuest::NO_QUEST_DATA
CONST	ENDS
PUBLIC	??_7CvAIGrandStrategyXMLEntry@@6B@		; CvAIGrandStrategyXMLEntry::`vftable'
PUBLIC	??0CvAIGrandStrategyXMLEntry@@QAE@XZ		; CvAIGrandStrategyXMLEntry::CvAIGrandStrategyXMLEntry
PUBLIC	?CacheResults@CvAIGrandStrategyXMLEntry@@UAE_NAAVResults@Database@@AAVCvDatabaseUtility@@@Z ; CvAIGrandStrategyXMLEntry::CacheResults
EXTRN	??0CvBaseInfo@@QAE@XZ:PROC			; CvBaseInfo::CvBaseInfo
EXTRN	??8CvBaseInfo@@UBE_NABV0@@Z:PROC		; CvBaseInfo::operator==
EXTRN	?readFrom@CvBaseInfo@@UAEXAAVFDataStream@@@Z:PROC ; CvBaseInfo::readFrom
EXTRN	?writeTo@CvBaseInfo@@UBEXAAVFDataStream@@@Z:PROC ; CvBaseInfo::writeTo
EXTRN	??_ECvAIGrandStrategyXMLEntry@@UAEPAXI@Z:PROC	; CvAIGrandStrategyXMLEntry::`vector deleting destructor'
;	COMDAT ??_7CvAIGrandStrategyXMLEntry@@6B@
; File d:\sources\lekmod_git\checkout\lekmod_dll\cvgamecoredll_expansion2\cvgrandstrategyai.cpp
CONST	SEGMENT
??_7CvAIGrandStrategyXMLEntry@@6B@ DD FLAT:?CacheResults@CvAIGrandStrategyXMLEntry@@UAE_NAAVResults@Database@@AAVCvDatabaseUtility@@@Z ; CvAIGrandStrategyXMLEntry::`vftable'
	DD	FLAT:??8CvBaseInfo@@UBE_NABV0@@Z
	DD	FLAT:?readFrom@CvBaseInfo@@UAEXAAVFDataStream@@@Z
	DD	FLAT:?writeTo@CvBaseInfo@@UBEXAAVFDataStream@@@Z
	DD	FLAT:??_ECvAIGrandStrategyXMLEntry@@UAEPAXI@Z
; Function compile flags: /Odtp
CONST	ENDS
;	COMDAT ??0CvAIGrandStrategyXMLEntry@@QAE@XZ
_TEXT	SEGMENT
_this$ = -4						; size = 4
??0CvAIGrandStrategyXMLEntry@@QAE@XZ PROC		; CvAIGrandStrategyXMLEntry::CvAIGrandStrategyXMLEntry, COMDAT
; _this$ = ecx

; 24   : {

	push	ebp
	mov	ebp, esp
	push	ecx
	mov	DWORD PTR _this$[ebp], ecx
	mov	ecx, DWORD PTR _this$[ebp]
	call	??0CvBaseInfo@@QAE@XZ			; CvBaseInfo::CvBaseInfo
	mov	eax, DWORD PTR _this$[ebp]
	mov	DWORD PTR [eax], OFFSET ??_7CvAIGrandStrategyXMLEntry@@6B@
	mov	ecx, DWORD PTR _this$[ebp]
	mov	DWORD PTR [ecx+260], 0
	mov	edx, DWORD PTR _this$[ebp]
	mov	DWORD PTR [edx+264], 0
	mov	eax, DWORD PTR _this$[ebp]
	mov	DWORD PTR [eax+268], 0

; 25   : }

	mov	eax, DWORD PTR _this$[ebp]
	mov	esp, ebp
	pop	ebp
	ret	0
??0CvAIGrandStrategyXMLEntry@@QAE@XZ ENDP		; CvAIGrandStrategyXMLEntry::CvAIGrandStrategyXMLEntry
_TEXT	ENDS
PUBLIC	??1CvAIGrandStrategyXMLEntry@@UAE@XZ		; CvAIGrandStrategyXMLEntry::~CvAIGrandStrategyXMLEntry
EXTRN	??3@YAXPAX@Z:PROC				; operator delete
; Function compile flags: /Odtp
;	COMDAT ??_GCvAIGrandStrategyXMLEntry@@UAEPAXI@Z
_TEXT	SEGMENT
_this$ = -4						; size = 4
___flags$ = 8						; size = 4
??_GCvAIGrandStrategyXMLEntry@@UAEPAXI@Z PROC		; CvAIGrandStrategyXMLEntry::`scalar deleting destructor', COMDAT
; _this$ = ecx
	push	ebp
	mov	ebp, esp
	push	ecx
	mov	DWORD PTR _this$[ebp], ecx
	mov	ecx, DWORD PTR _this$[ebp]
	call	??1CvAIGrandStrategyXMLEntry@@UAE@XZ	; CvAIGrandStrategyXMLEntry::~CvAIGrandStrategyXMLEntry
	mov	eax, DWORD PTR ___flags$[ebp]
	and	eax, 1
	je	SHORT $LN1@scalar
	mov	ecx, DWORD PTR _this$[ebp]
	push	ecx
	call	??3@YAXPAX@Z				; operator delete
	add	esp, 4
$LN1@scalar:
	mov	eax, DWORD PTR _this$[ebp]
	mov	esp, ebp
	pop	ebp
	ret	4
??_GCvAIGrandStrategyXMLEntry@@UAEPAXI@Z ENDP		; CvAIGrandStrategyXMLEntry::`scalar deleting destructor'
_TEXT	ENDS
PUBLIC	??1CvBaseInfo@@QAE@XZ				; CvBaseInfo::~CvBaseInfo
EXTRN	??_V@YAXPAX@Z:PROC				; operator delete[]
; Function compile flags: /Odtp
;	COMDAT ??1CvAIGrandStrategyXMLEntry@@UAE@XZ
_TEXT	SEGMENT
_this$ = -64						; size = 4
$T225805 = -24						; size = 4
$T225803 = -20						; size = 4
$T225799 = -16						; size = 4
$T225797 = -12						; size = 4
$T225793 = -8						; size = 4
$T225791 = -4						; size = 4
??1CvAIGrandStrategyXMLEntry@@UAE@XZ PROC		; CvAIGrandStrategyXMLEntry::~CvAIGrandStrategyXMLEntry, COMDAT
; _this$ = ecx

; 28   : {

	push	ebp
	mov	ebp, esp
	sub	esp, 64					; 00000040H
	mov	DWORD PTR _this$[ebp], ecx
	mov	eax, DWORD PTR _this$[ebp]
	mov	DWORD PTR [eax], OFFSET ??_7CvAIGrandStrategyXMLEntry@@6B@

; 29   : 	SAFE_DELETE_ARRAY(m_piFlavorValue);

	mov	ecx, DWORD PTR _this$[ebp]
	add	ecx, 260				; 00000104H
	mov	DWORD PTR $T225793[ebp], ecx
	mov	edx, DWORD PTR $T225793[ebp]
	mov	eax, DWORD PTR [edx]
	mov	DWORD PTR $T225791[ebp], eax
	mov	ecx, DWORD PTR $T225791[ebp]
	push	ecx
	call	??_V@YAXPAX@Z				; operator delete[]
	add	esp, 4
	mov	edx, DWORD PTR $T225793[ebp]
	mov	DWORD PTR [edx], 0

; 30   : 	SAFE_DELETE_ARRAY(m_piSpecializationBoost);

	mov	eax, DWORD PTR _this$[ebp]
	add	eax, 264				; 00000108H
	mov	DWORD PTR $T225799[ebp], eax
	mov	ecx, DWORD PTR $T225799[ebp]
	mov	edx, DWORD PTR [ecx]
	mov	DWORD PTR $T225797[ebp], edx
	mov	eax, DWORD PTR $T225797[ebp]
	push	eax
	call	??_V@YAXPAX@Z				; operator delete[]
	add	esp, 4
	mov	ecx, DWORD PTR $T225799[ebp]
	mov	DWORD PTR [ecx], 0

; 31   : 	SAFE_DELETE_ARRAY(m_piFlavorModValue);

	mov	edx, DWORD PTR _this$[ebp]
	add	edx, 268				; 0000010cH
	mov	DWORD PTR $T225805[ebp], edx
	mov	eax, DWORD PTR $T225805[ebp]
	mov	ecx, DWORD PTR [eax]
	mov	DWORD PTR $T225803[ebp], ecx
	mov	edx, DWORD PTR $T225803[ebp]
	push	edx
	call	??_V@YAXPAX@Z				; operator delete[]
	add	esp, 4
	mov	eax, DWORD PTR $T225805[ebp]
	mov	DWORD PTR [eax], 0

; 32   : }

	mov	ecx, DWORD PTR _this$[ebp]
	call	??1CvBaseInfo@@QAE@XZ
	mov	esp, ebp
	pop	ebp
	ret	0
??1CvAIGrandStrategyXMLEntry@@UAE@XZ ENDP		; CvAIGrandStrategyXMLEntry::~CvAIGrandStrategyXMLEntry
_TEXT	ENDS
PUBLIC	??1CvString@@QAE@XZ				; CvString::~CvString
EXTRN	__imp_??1?$basic_string@DU?$char_traits@D@std@@V?$allocator@D@2@@std@@QAE@XZ:PROC
EXTRN	___security_cookie:DWORD
EXTRN	___CxxFrameHandler3:PROC
EXTRN	@__security_check_cookie@4:PROC
;	COMDAT xdata$x
xdata$x	SEGMENT
__ehfuncinfo$??1CvBaseInfo@@QAE@XZ DD 019930522H
	DD	08H
	DD	FLAT:__unwindtable$??1CvBaseInfo@@QAE@XZ
	DD	2 DUP(00H)
	DD	2 DUP(00H)
	DD	00H
	DD	01H
__unwindtable$??1CvBaseInfo@@QAE@XZ DD 0ffffffffH
	DD	FLAT:__unwindfunclet$??1CvBaseInfo@@QAE@XZ$0
	DD	00H
	DD	FLAT:__unwindfunclet$??1CvBaseInfo@@QAE@XZ$1
	DD	01H
	DD	FLAT:__unwindfunclet$??1CvBaseInfo@@QAE@XZ$2
	DD	02H
	DD	FLAT:__unwindfunclet$??1CvBaseInfo@@QAE@XZ$3
	DD	03H
	DD	FLAT:__unwindfunclet$??1CvBaseInfo@@QAE@XZ$4
	DD	04H
	DD	FLAT:__unwindfunclet$??1CvBaseInfo@@QAE@XZ$5
	DD	05H
	DD	FLAT:__unwindfunclet$??1CvBaseInfo@@QAE@XZ$6
	DD	06H
	DD	FLAT:__unwindfunclet$??1CvBaseInfo@@QAE@XZ$7
; Function compile flags: /Odtp
xdata$x	ENDS
;	COMDAT ??1CvBaseInfo@@QAE@XZ
_TEXT	SEGMENT
_this$ = -52						; size = 4
$T225916 = -48						; size = 4
$T225911 = -44						; size = 4
$T225906 = -40						; size = 4
$T225901 = -36						; size = 4
$T225896 = -32						; size = 4
$T225891 = -28						; size = 4
$T225886 = -24						; size = 4
$T225881 = -20						; size = 4
$T225876 = -16						; size = 4
__$EHRec$ = -12						; size = 12
??1CvBaseInfo@@QAE@XZ PROC				; CvBaseInfo::~CvBaseInfo, COMDAT
; _this$ = ecx
	push	ebp
	mov	ebp, esp
	push	-1
	push	__ehhandler$??1CvBaseInfo@@QAE@XZ
	mov	eax, DWORD PTR fs:0
	push	eax
	sub	esp, 40					; 00000028H
	mov	eax, DWORD PTR ___security_cookie
	xor	eax, ebp
	push	eax
	lea	eax, DWORD PTR __$EHRec$[ebp]
	mov	DWORD PTR fs:0, eax
	mov	DWORD PTR _this$[ebp], ecx
	mov	DWORD PTR __$EHRec$[ebp+8], 7
	mov	eax, DWORD PTR _this$[ebp]
	add	eax, 232				; 000000e8H
	mov	DWORD PTR $T225876[ebp], eax
	mov	ecx, DWORD PTR $T225876[ebp]
	call	DWORD PTR __imp_??1?$basic_string@DU?$char_traits@D@std@@V?$allocator@D@2@@std@@QAE@XZ
	mov	BYTE PTR __$EHRec$[ebp+8], 6
	mov	ecx, DWORD PTR _this$[ebp]
	add	ecx, 204				; 000000ccH
	mov	DWORD PTR $T225881[ebp], ecx
	mov	ecx, DWORD PTR $T225881[ebp]
	call	DWORD PTR __imp_??1?$basic_string@DU?$char_traits@D@std@@V?$allocator@D@2@@std@@QAE@XZ
	mov	BYTE PTR __$EHRec$[ebp+8], 5
	mov	edx, DWORD PTR _this$[ebp]
	add	edx, 176				; 000000b0H
	mov	DWORD PTR $T225886[ebp], edx
	mov	ecx, DWORD PTR $T225886[ebp]
	call	DWORD PTR __imp_??1?$basic_string@DU?$char_traits@D@std@@V?$allocator@D@2@@std@@QAE@XZ
	mov	BYTE PTR __$EHRec$[ebp+8], 4
	mov	eax, DWORD PTR _this$[ebp]
	add	eax, 148				; 00000094H
	mov	DWORD PTR $T225891[ebp], eax
	mov	ecx, DWORD PTR $T225891[ebp]
	call	DWORD PTR __imp_??1?$basic_string@DU?$char_traits@D@std@@V?$allocator@D@2@@std@@QAE@XZ
	mov	BYTE PTR __$EHRec$[ebp+8], 3
	mov	ecx, DWORD PTR _this$[ebp]
	add	ecx, 120				; 00000078H
	mov	DWORD PTR $T225896[ebp], ecx
	mov	ecx, DWORD PTR $T225896[ebp]
	call	DWORD PTR __imp_??1?$basic_string@DU?$char_traits@D@std@@V?$allocator@D@2@@std@@QAE@XZ
	mov	BYTE PTR __$EHRec$[ebp+8], 2
	mov	edx, DWORD PTR _this$[ebp]
	add	edx, 92					; 0000005cH
	mov	DWORD PTR $T225901[ebp], edx
	mov	ecx, DWORD PTR $T225901[ebp]
	call	DWORD PTR __imp_??1?$basic_string@DU?$char_traits@D@std@@V?$allocator@D@2@@std@@QAE@XZ
	mov	BYTE PTR __$EHRec$[ebp+8], 1
	mov	eax, DWORD PTR _this$[ebp]
	add	eax, 64					; 00000040H
	mov	DWORD PTR $T225906[ebp], eax
	mov	ecx, DWORD PTR $T225906[ebp]
	call	DWORD PTR __imp_??1?$basic_string@DU?$char_traits@D@std@@V?$allocator@D@2@@std@@QAE@XZ
	mov	BYTE PTR __$EHRec$[ebp+8], 0
	mov	ecx, DWORD PTR _this$[ebp]
	add	ecx, 36					; 00000024H
	mov	DWORD PTR $T225911[ebp], ecx
	mov	ecx, DWORD PTR $T225911[ebp]
	call	DWORD PTR __imp_??1?$basic_string@DU?$char_traits@D@std@@V?$allocator@D@2@@std@@QAE@XZ
	mov	DWORD PTR __$EHRec$[ebp+8], -1
	mov	edx, DWORD PTR _this$[ebp]
	add	edx, 8
	mov	DWORD PTR $T225916[ebp], edx
	mov	ecx, DWORD PTR $T225916[ebp]
	call	DWORD PTR __imp_??1?$basic_string@DU?$char_traits@D@std@@V?$allocator@D@2@@std@@QAE@XZ
	mov	ecx, DWORD PTR __$EHRec$[ebp]
	mov	DWORD PTR fs:0, ecx
	pop	ecx
	mov	esp, ebp
	pop	ebp
	ret	0
_TEXT	ENDS
;	COMDAT text$x
text$x	SEGMENT
__unwindfunclet$??1CvBaseInfo@@QAE@XZ$0:
	mov	ecx, DWORD PTR _this$[ebp]
	add	ecx, 8
	jmp	??1CvString@@QAE@XZ			; CvString::~CvString
__unwindfunclet$??1CvBaseInfo@@QAE@XZ$1:
	mov	ecx, DWORD PTR _this$[ebp]
	add	ecx, 36					; 00000024H
	jmp	??1CvString@@QAE@XZ			; CvString::~CvString
__unwindfunclet$??1CvBaseInfo@@QAE@XZ$2:
	mov	ecx, DWORD PTR _this$[ebp]
	add	ecx, 64					; 00000040H
	jmp	??1CvString@@QAE@XZ			; CvString::~CvString
__unwindfunclet$??1CvBaseInfo@@QAE@XZ$3:
	mov	ecx, DWORD PTR _this$[ebp]
	add	ecx, 92					; 0000005cH
	jmp	??1CvString@@QAE@XZ			; CvString::~CvString
__unwindfunclet$??1CvBaseInfo@@QAE@XZ$4:
	mov	ecx, DWORD PTR _this$[ebp]
	add	ecx, 120				; 00000078H
	jmp	??1CvString@@QAE@XZ			; CvString::~CvString
__unwindfunclet$??1CvBaseInfo@@QAE@XZ$5:
	mov	ecx, DWORD PTR _this$[ebp]
	add	ecx, 148				; 00000094H
	jmp	??1CvString@@QAE@XZ			; CvString::~CvString
__unwindfunclet$??1CvBaseInfo@@QAE@XZ$6:
	mov	ecx, DWORD PTR _this$[ebp]
	add	ecx, 176				; 000000b0H
	jmp	??1CvString@@QAE@XZ			; CvString::~CvString
__unwindfunclet$??1CvBaseInfo@@QAE@XZ$7:
	mov	ecx, DWORD PTR _this$[ebp]
	add	ecx, 204				; 000000ccH
	jmp	??1CvString@@QAE@XZ			; CvString::~CvString
__ehhandler$??1CvBaseInfo@@QAE@XZ:
	mov	edx, DWORD PTR [esp+8]
	lea	eax, DWORD PTR [edx+12]
	mov	ecx, DWORD PTR [edx-44]
	xor	ecx, eax
	call	@__security_check_cookie@4
	mov	eax, OFFSET __ehfuncinfo$??1CvBaseInfo@@QAE@XZ
	jmp	___CxxFrameHandler3
text$x	ENDS
??1CvBaseInfo@@QAE@XZ ENDP				; CvBaseInfo::~CvBaseInfo
PUBLIC	??_C@_0BL@GEMNPMHD@AIGrandStrategy_FlavorMods?$AA@ ; `string'
PUBLIC	??_C@_0BH@PNDKIPG@AIGrandStrategy_Yields?$AA@	; `string'
PUBLIC	??_C@_0BI@MAGCICJH@AIGrandStrategy_Flavors?$AA@	; `string'
PUBLIC	??_C@_0BE@LOAAONFG@AIGrandStrategyType?$AA@	; `string'
EXTRN	?SetYields@CvDatabaseUtility@@QAE_NAAPAHPBD11@Z:PROC ; CvDatabaseUtility::SetYields
EXTRN	?SetFlavors@CvDatabaseUtility@@QAE_NAAPAHPBD11H@Z:PROC ; CvDatabaseUtility::SetFlavors
EXTRN	__imp_?c_str@?$basic_string@DU?$char_traits@D@std@@V?$allocator@D@2@@std@@QBEPBDXZ:PROC
EXTRN	?CacheResults@CvBaseInfo@@UAE_NAAVResults@Database@@AAVCvDatabaseUtility@@@Z:PROC ; CvBaseInfo::CacheResults
;	COMDAT ??_C@_0BL@GEMNPMHD@AIGrandStrategy_FlavorMods?$AA@
; File d:\sources\lekmod_git\checkout\lekmod_dll\cvgamecoredll_expansion2\cvinfos.h
CONST	SEGMENT
??_C@_0BL@GEMNPMHD@AIGrandStrategy_FlavorMods?$AA@ DB 'AIGrandStrategy_Fl'
	DB	'avorMods', 00H				; `string'
CONST	ENDS
;	COMDAT ??_C@_0BH@PNDKIPG@AIGrandStrategy_Yields?$AA@
CONST	SEGMENT
??_C@_0BH@PNDKIPG@AIGrandStrategy_Yields?$AA@ DB 'AIGrandStrategy_Yields', 00H ; `string'
CONST	ENDS
;	COMDAT ??_C@_0BI@MAGCICJH@AIGrandStrategy_Flavors?$AA@
CONST	SEGMENT
??_C@_0BI@MAGCICJH@AIGrandStrategy_Flavors?$AA@ DB 'AIGrandStrategy_Flavo'
	DB	'rs', 00H					; `string'
CONST	ENDS
;	COMDAT ??_C@_0BE@LOAAONFG@AIGrandStrategyType?$AA@
CONST	SEGMENT
??_C@_0BE@LOAAONFG@AIGrandStrategyType?$AA@ DB 'AIGrandStrategyType', 00H ; `string'
; Function compile flags: /Odtp
; File d:\sources\lekmod_git\checkout\lekmod_dll\cvgamecoredll_expansion2\cvgrandstrategyai.cpp
CONST	ENDS
;	COMDAT ?CacheResults@CvAIGrandStrategyXMLEntry@@UAE_NAAVResults@Database@@AAVCvDatabaseUtility@@@Z
_TEXT	SEGMENT
_this$ = -8						; size = 4
_szType$ = -4						; size = 4
_kResults$ = 8						; size = 4
_kUtility$ = 12						; size = 4
?CacheResults@CvAIGrandStrategyXMLEntry@@UAE_NAAVResults@Database@@AAVCvDatabaseUtility@@@Z PROC ; CvAIGrandStrategyXMLEntry::CacheResults, COMDAT
; _this$ = ecx

; 35   : {

	push	ebp
	mov	ebp, esp
	sub	esp, 8
	mov	DWORD PTR _this$[ebp], ecx

; 36   : 	if(!CvBaseInfo::CacheResults(kResults, kUtility))

	mov	eax, DWORD PTR _kUtility$[ebp]
	push	eax
	mov	ecx, DWORD PTR _kResults$[ebp]
	push	ecx
	mov	ecx, DWORD PTR _this$[ebp]
	call	?CacheResults@CvBaseInfo@@UAE_NAAVResults@Database@@AAVCvDatabaseUtility@@@Z ; CvBaseInfo::CacheResults
	movzx	edx, al
	test	edx, edx
	jne	SHORT $LN4@CacheResul

; 37   : 		return false;

	xor	al, al
	jmp	SHORT $LN2@CacheResul

; 38   : 
; 39   : 	//Arrays
; 40   : 	const char* szType = GetType();

$LN4@CacheResul:
	mov	ecx, DWORD PTR _this$[ebp]
	add	ecx, 176				; 000000b0H
	call	DWORD PTR __imp_?c_str@?$basic_string@DU?$char_traits@D@std@@V?$allocator@D@2@@std@@QBEPBDXZ
	mov	DWORD PTR _szType$[ebp], eax

; 41   : 	kUtility.SetFlavors(m_piFlavorValue, "AIGrandStrategy_Flavors", "AIGrandStrategyType", szType);

	push	0
	mov	eax, DWORD PTR _szType$[ebp]
	push	eax
	push	OFFSET ??_C@_0BE@LOAAONFG@AIGrandStrategyType?$AA@
	push	OFFSET ??_C@_0BI@MAGCICJH@AIGrandStrategy_Flavors?$AA@
	mov	ecx, DWORD PTR _this$[ebp]
	add	ecx, 260				; 00000104H
	push	ecx
	mov	ecx, DWORD PTR _kUtility$[ebp]
	call	?SetFlavors@CvDatabaseUtility@@QAE_NAAPAHPBD11H@Z ; CvDatabaseUtility::SetFlavors

; 42   : 	kUtility.SetYields(m_piSpecializationBoost, "AIGrandStrategy_Yields", "AIGrandStrategyType", szType);

	mov	edx, DWORD PTR _szType$[ebp]
	push	edx
	push	OFFSET ??_C@_0BE@LOAAONFG@AIGrandStrategyType?$AA@
	push	OFFSET ??_C@_0BH@PNDKIPG@AIGrandStrategy_Yields?$AA@
	mov	eax, DWORD PTR _this$[ebp]
	add	eax, 264				; 00000108H
	push	eax
	mov	ecx, DWORD PTR _kUtility$[ebp]
	call	?SetYields@CvDatabaseUtility@@QAE_NAAPAHPBD11@Z ; CvDatabaseUtility::SetYields

; 43   : 	kUtility.SetFlavors(m_piFlavorModValue, "AIGrandStrategy_FlavorMods", "AIGrandStrategyType", szType);

	push	0
	mov	ecx, DWORD PTR _szType$[ebp]
	push	ecx
	push	OFFSET ??_C@_0BE@LOAAONFG@AIGrandStrategyType?$AA@
	push	OFFSET ??_C@_0BL@GEMNPMHD@AIGrandStrategy_FlavorMods?$AA@
	mov	edx, DWORD PTR _this$[ebp]
	add	edx, 268				; 0000010cH
	push	edx
	mov	ecx, DWORD PTR _kUtility$[ebp]
	call	?SetFlavors@CvDatabaseUtility@@QAE_NAAPAHPBD11H@Z ; CvDatabaseUtility::SetFlavors

; 44   : 
; 45   : 	return true;

	mov	al, 1
$LN2@CacheResul:

; 46   : }

	mov	esp, ebp
	pop	ebp
	ret	8
?CacheResults@CvAIGrandStrategyXMLEntry@@UAE_NAAVResults@Database@@AAVCvDatabaseUtility@@@Z ENDP ; CvAIGrandStrategyXMLEntry::CacheResults
_TEXT	ENDS
PUBLIC	?GetFlavorValue@CvAIGrandStrategyXMLEntry@@QBEHH@Z ; CvAIGrandStrategyXMLEntry::GetFlavorValue
; Function compile flags: /Odtp
;	COMDAT ?GetFlavorValue@CvAIGrandStrategyXMLEntry@@QBEHH@Z
_TEXT	SEGMENT
tv69 = -8						; size = 4
_this$ = -4						; size = 4
_i$ = 8							; size = 4
?GetFlavorValue@CvAIGrandStrategyXMLEntry@@QBEHH@Z PROC	; CvAIGrandStrategyXMLEntry::GetFlavorValue, COMDAT
; _this$ = ecx

; 55   : {

	push	ebp
	mov	ebp, esp
	sub	esp, 8
	mov	DWORD PTR _this$[ebp], ecx

; 56   : 	FAssertMsg(i < GC.getNumFlavorTypes(), "Index out of bounds");
; 57   : #endif
; 58   : 	FAssertMsg(i > -1, "Index out of bounds");
; 59   : 	return m_piFlavorValue ? m_piFlavorValue[i] : -1;

	mov	eax, DWORD PTR _this$[ebp]
	cmp	DWORD PTR [eax+260], 0
	je	SHORT $LN3@GetFlavorV
	mov	ecx, DWORD PTR _this$[ebp]
	mov	edx, DWORD PTR [ecx+260]
	mov	eax, DWORD PTR _i$[ebp]
	mov	ecx, DWORD PTR [edx+eax*4]
	mov	DWORD PTR tv69[ebp], ecx
	jmp	SHORT $LN4@GetFlavorV
$LN3@GetFlavorV:
	mov	DWORD PTR tv69[ebp], -1
$LN4@GetFlavorV:
	mov	eax, DWORD PTR tv69[ebp]

; 60   : }

	mov	esp, ebp
	pop	ebp
	ret	4
?GetFlavorValue@CvAIGrandStrategyXMLEntry@@QBEHH@Z ENDP	; CvAIGrandStrategyXMLEntry::GetFlavorValue
_TEXT	ENDS
PUBLIC	?GetSpecializationBoost@CvAIGrandStrategyXMLEntry@@QBEHW4YieldTypes@@@Z ; CvAIGrandStrategyXMLEntry::GetSpecializationBoost
; Function compile flags: /Odtp
;	COMDAT ?GetSpecializationBoost@CvAIGrandStrategyXMLEntry@@QBEHW4YieldTypes@@@Z
_TEXT	SEGMENT
tv69 = -8						; size = 4
_this$ = -4						; size = 4
_eYield$ = 8						; size = 4
?GetSpecializationBoost@CvAIGrandStrategyXMLEntry@@QBEHW4YieldTypes@@@Z PROC ; CvAIGrandStrategyXMLEntry::GetSpecializationBoost, COMDAT
; _this$ = ecx

; 64   : {

	push	ebp
	mov	ebp, esp
	sub	esp, 8
	mov	DWORD PTR _this$[ebp], ecx

; 65   : 	FAssertMsg(eYield < NUM_YIELD_TYPES, "Index out of bounds");
; 66   : 	FAssertMsg(eYield > -1, "Index out of bounds");
; 67   : 	return m_piSpecializationBoost ? m_piSpecializationBoost[(int)eYield] : 0;

	mov	eax, DWORD PTR _this$[ebp]
	cmp	DWORD PTR [eax+264], 0
	je	SHORT $LN3@GetSpecial
	mov	ecx, DWORD PTR _this$[ebp]
	mov	edx, DWORD PTR [ecx+264]
	mov	eax, DWORD PTR _eYield$[ebp]
	mov	ecx, DWORD PTR [edx+eax*4]
	mov	DWORD PTR tv69[ebp], ecx
	jmp	SHORT $LN4@GetSpecial
$LN3@GetSpecial:
	mov	DWORD PTR tv69[ebp], 0
$LN4@GetSpecial:
	mov	eax, DWORD PTR tv69[ebp]

; 68   : }

	mov	esp, ebp
	pop	ebp
	ret	4
?GetSpecializationBoost@CvAIGrandStrategyXMLEntry@@QBEHW4YieldTypes@@@Z ENDP ; CvAIGrandStrategyXMLEntry::GetSpecializationBoost
_TEXT	ENDS
PUBLIC	?GetFlavorModValue@CvAIGrandStrategyXMLEntry@@QBEHH@Z ; CvAIGrandStrategyXMLEntry::GetFlavorModValue
; Function compile flags: /Odtp
;	COMDAT ?GetFlavorModValue@CvAIGrandStrategyXMLEntry@@QBEHH@Z
_TEXT	SEGMENT
tv69 = -8						; size = 4
_this$ = -4						; size = 4
_i$ = 8							; size = 4
?GetFlavorModValue@CvAIGrandStrategyXMLEntry@@QBEHH@Z PROC ; CvAIGrandStrategyXMLEntry::GetFlavorModValue, COMDAT
; _this$ = ecx

; 77   : {

	push	ebp
	mov	ebp, esp
	sub	esp, 8
	mov	DWORD PTR _this$[ebp], ecx

; 78   : 	FAssertMsg(i < GC.getNumFlavorTypes(), "Index out of bounds");
; 79   : #endif
; 80   : 	FAssertMsg(i > -1, "Index out of bounds");
; 81   : 	return m_piFlavorModValue ? m_piFlavorModValue[i] : 0;

	mov	eax, DWORD PTR _this$[ebp]
	cmp	DWORD PTR [eax+268], 0
	je	SHORT $LN3@GetFlavorM
	mov	ecx, DWORD PTR _this$[ebp]
	mov	edx, DWORD PTR [ecx+268]
	mov	eax, DWORD PTR _i$[ebp]
	mov	ecx, DWORD PTR [edx+eax*4]
	mov	DWORD PTR tv69[ebp], ecx
	jmp	SHORT $LN4@GetFlavorM
$LN3@GetFlavorM:
	mov	DWORD PTR tv69[ebp], 0
$LN4@GetFlavorM:
	mov	eax, DWORD PTR tv69[ebp]

; 82   : }

	mov	esp, ebp
	pop	ebp
	ret	4
?GetFlavorModValue@CvAIGrandStrategyXMLEntry@@QBEHH@Z ENDP ; CvAIGrandStrategyXMLEntry::GetFlavorModValue
_TEXT	ENDS
PUBLIC	??1?$_Vector_val@PAVCvAIGrandStrategyXMLEntry@@V?$allocator@PAVCvAIGrandStrategyXMLEntry@@@std@@@std@@QAE@XZ ; std::_Vector_val<CvAIGrandStrategyXMLEntry *,std::allocator<CvAIGrandStrategyXMLEntry *> >::~_Vector_val<CvAIGrandStrategyXMLEntry *,std::allocator<CvAIGrandStrategyXMLEntry *> >
PUBLIC	?_Buy@?$vector@PAVCvAIGrandStrategyXMLEntry@@V?$allocator@PAVCvAIGrandStrategyXMLEntry@@@std@@@std@@IAE_NI@Z ; std::vector<CvAIGrandStrategyXMLEntry *,std::allocator<CvAIGrandStrategyXMLEntry *> >::_Buy
PUBLIC	??0CvAIGrandStrategyXMLEntries@@QAE@XZ		; CvAIGrandStrategyXMLEntries::CvAIGrandStrategyXMLEntries
EXTRN	__CxxThrowException@8:PROC
;	COMDAT xdata$x
; File c:\program files (x86)\microsoft visual studio 9.0\vc\include\exception
xdata$x	SEGMENT
__unwindtable$??0CvAIGrandStrategyXMLEntries@@QAE@XZ DD 0ffffffffH
	DD	FLAT:__unwindfunclet$??0CvAIGrandStrategyXMLEntries@@QAE@XZ$1
__ehfuncinfo$??0CvAIGrandStrategyXMLEntries@@QAE@XZ DD 019930522H
	DD	01H
	DD	FLAT:__unwindtable$??0CvAIGrandStrategyXMLEntries@@QAE@XZ
	DD	2 DUP(00H)
	DD	2 DUP(00H)
	DD	00H
	DD	01H
; Function compile flags: /Odtp
; File d:\sources\lekmod_git\checkout\lekmod_dll\cvgamecoredll_expansion2\cvgrandstrategyai.cpp
xdata$x	ENDS
;	COMDAT ??0CvAIGrandStrategyXMLEntries@@QAE@XZ
_TEXT	SEGMENT
tv92 = -132						; size = 4
tv149 = -128						; size = 4
_this$ = -124						; size = 4
$T225978 = -30						; size = 1
$T225965 = -29						; size = 1
$T225961 = -28						; size = 4
$T225954 = -20						; size = 4
__$EHRec$ = -12						; size = 12
??0CvAIGrandStrategyXMLEntries@@QAE@XZ PROC		; CvAIGrandStrategyXMLEntries::CvAIGrandStrategyXMLEntries, COMDAT
; _this$ = ecx

; 91   : {

	push	ebp
	mov	ebp, esp
	push	-1
	push	__ehhandler$??0CvAIGrandStrategyXMLEntries@@QAE@XZ
	mov	eax, DWORD PTR fs:0
	push	eax
	sub	esp, 120				; 00000078H
	mov	eax, DWORD PTR ___security_cookie
	xor	eax, ebp
	push	eax
	lea	eax, DWORD PTR __$EHRec$[ebp]
	mov	DWORD PTR fs:0, eax
	mov	DWORD PTR _this$[ebp], ecx
	lea	eax, DWORD PTR $T225978[ebp]
	mov	DWORD PTR $T225954[ebp], eax
	lea	ecx, DWORD PTR $T225965[ebp]
	mov	DWORD PTR $T225961[ebp], ecx
	mov	edx, DWORD PTR _this$[ebp]
	mov	DWORD PTR tv149[ebp], edx
	mov	eax, DWORD PTR _this$[ebp]
	mov	DWORD PTR tv92[ebp], eax
	mov	DWORD PTR __$EHRec$[ebp+8], 0
	push	0
	mov	ecx, DWORD PTR _this$[ebp]
	call	?_Buy@?$vector@PAVCvAIGrandStrategyXMLEntry@@V?$allocator@PAVCvAIGrandStrategyXMLEntry@@@std@@@std@@IAE_NI@Z ; std::vector<CvAIGrandStrategyXMLEntry *,std::allocator<CvAIGrandStrategyXMLEntry *> >::_Buy
	mov	DWORD PTR __$EHRec$[ebp+8], -1

; 92   : 
; 93   : }

	mov	eax, DWORD PTR _this$[ebp]
	mov	ecx, DWORD PTR __$EHRec$[ebp]
	mov	DWORD PTR fs:0, ecx
	pop	ecx
	mov	esp, ebp
	pop	ebp
	ret	0
_TEXT	ENDS
;	COMDAT text$x
text$x	SEGMENT
__unwindfunclet$??0CvAIGrandStrategyXMLEntries@@QAE@XZ$1:
	mov	ecx, DWORD PTR _this$[ebp]
	jmp	??1?$_Vector_val@PAVCvAIGrandStrategyXMLEntry@@V?$allocator@PAVCvAIGrandStrategyXMLEntry@@@std@@@std@@QAE@XZ
__ehhandler$??0CvAIGrandStrategyXMLEntries@@QAE@XZ:
	mov	edx, DWORD PTR [esp+8]
	lea	eax, DWORD PTR [edx+12]
	mov	ecx, DWORD PTR [edx-124]
	xor	ecx, eax
	call	@__security_check_cookie@4
	mov	eax, OFFSET __ehfuncinfo$??0CvAIGrandStrategyXMLEntries@@QAE@XZ
	jmp	___CxxFrameHandler3
text$x	ENDS
??0CvAIGrandStrategyXMLEntries@@QAE@XZ ENDP		; CvAIGrandStrategyXMLEntries::CvAIGrandStrategyXMLEntries
PUBLIC	??1?$vector@PAVCvAIGrandStrategyXMLEntry@@V?$allocator@PAVCvAIGrandStrategyXMLEntry@@@std@@@std@@QAE@XZ ; std::vector<CvAIGrandStrategyXMLEntry *,std::allocator<CvAIGrandStrategyXMLEntry *> >::~vector<CvAIGrandStrategyXMLEntry *,std::allocator<CvAIGrandStrategyXMLEntry *> >
PUBLIC	?_Tidy@?$vector@PAVCvAIGrandStrategyXMLEntry@@V?$allocator@PAVCvAIGrandStrategyXMLEntry@@@std@@@std@@IAEXXZ ; std::vector<CvAIGrandStrategyXMLEntry *,std::allocator<CvAIGrandStrategyXMLEntry *> >::_Tidy
PUBLIC	?DeleteArray@CvAIGrandStrategyXMLEntries@@QAEXXZ ; CvAIGrandStrategyXMLEntries::DeleteArray
PUBLIC	??1CvAIGrandStrategyXMLEntries@@QAE@XZ		; CvAIGrandStrategyXMLEntries::~CvAIGrandStrategyXMLEntries
;	COMDAT xdata$x
; File c:\program files (x86)\microsoft visual studio 9.0\vc\include\xutility
xdata$x	SEGMENT
__unwindtable$??1CvAIGrandStrategyXMLEntries@@QAE@XZ DD 0ffffffffH
	DD	FLAT:__unwindfunclet$??1CvAIGrandStrategyXMLEntries@@QAE@XZ$0
	DD	0ffffffffH
	DD	FLAT:__unwindfunclet$??1CvAIGrandStrategyXMLEntries@@QAE@XZ$1
__ehfuncinfo$??1CvAIGrandStrategyXMLEntries@@QAE@XZ DD 019930522H
	DD	02H
	DD	FLAT:__unwindtable$??1CvAIGrandStrategyXMLEntries@@QAE@XZ
	DD	2 DUP(00H)
	DD	2 DUP(00H)
	DD	00H
	DD	01H
; Function compile flags: /Odtp
; File d:\sources\lekmod_git\checkout\lekmod_dll\cvgamecoredll_expansion2\cvgrandstrategyai.cpp
xdata$x	ENDS
;	COMDAT ??1CvAIGrandStrategyXMLEntries@@QAE@XZ
_TEXT	SEGMENT
_this$ = -44						; size = 4
__$EHRec$ = -12						; size = 12
??1CvAIGrandStrategyXMLEntries@@QAE@XZ PROC		; CvAIGrandStrategyXMLEntries::~CvAIGrandStrategyXMLEntries, COMDAT
; _this$ = ecx

; 97   : {

	push	ebp
	mov	ebp, esp
	push	-1
	push	__ehhandler$??1CvAIGrandStrategyXMLEntries@@QAE@XZ
	mov	eax, DWORD PTR fs:0
	push	eax
	sub	esp, 32					; 00000020H
	mov	eax, DWORD PTR ___security_cookie
	xor	eax, ebp
	push	eax
	lea	eax, DWORD PTR __$EHRec$[ebp]
	mov	DWORD PTR fs:0, eax
	mov	DWORD PTR _this$[ebp], ecx
	mov	DWORD PTR __$EHRec$[ebp+8], 0

; 98   : 	DeleteArray();

	mov	ecx, DWORD PTR _this$[ebp]
	call	?DeleteArray@CvAIGrandStrategyXMLEntries@@QAEXXZ ; CvAIGrandStrategyXMLEntries::DeleteArray

; 99   : }

	mov	DWORD PTR __$EHRec$[ebp+8], 1
	mov	ecx, DWORD PTR _this$[ebp]
	call	?_Tidy@?$vector@PAVCvAIGrandStrategyXMLEntry@@V?$allocator@PAVCvAIGrandStrategyXMLEntry@@@std@@@std@@IAEXXZ ; std::vector<CvAIGrandStrategyXMLEntry *,std::allocator<CvAIGrandStrategyXMLEntry *> >::_Tidy
	mov	DWORD PTR __$EHRec$[ebp+8], -1
	mov	ecx, DWORD PTR __$EHRec$[ebp]
	mov	DWORD PTR fs:0, ecx
	pop	ecx
	mov	esp, ebp
	pop	ebp
	ret	0
_TEXT	ENDS
;	COMDAT text$x
text$x	SEGMENT
__unwindfunclet$??1CvAIGrandStrategyXMLEntries@@QAE@XZ$0:
	mov	ecx, DWORD PTR _this$[ebp]
	jmp	??1?$vector@PAVCvAIGrandStrategyXMLEntry@@V?$allocator@PAVCvAIGrandStrategyXMLEntry@@@std@@@std@@QAE@XZ ; std::vector<CvAIGrandStrategyXMLEntry *,std::allocator<CvAIGrandStrategyXMLEntry *> >::~vector<CvAIGrandStrategyXMLEntry *,std::allocator<CvAIGrandStrategyXMLEntry *> >
__unwindfunclet$??1CvAIGrandStrategyXMLEntries@@QAE@XZ$1:
	mov	ecx, DWORD PTR _this$[ebp]
	jmp	??1?$_Vector_val@PAVCvAIGrandStrategyXMLEntry@@V?$allocator@PAVCvAIGrandStrategyXMLEntry@@@std@@@std@@QAE@XZ
__ehhandler$??1CvAIGrandStrategyXMLEntries@@QAE@XZ:
	mov	edx, DWORD PTR [esp+8]
	lea	eax, DWORD PTR [edx+12]
	mov	ecx, DWORD PTR [edx-36]
	xor	ecx, eax
	call	@__security_check_cookie@4
	mov	eax, OFFSET __ehfuncinfo$??1CvAIGrandStrategyXMLEntries@@QAE@XZ
	jmp	___CxxFrameHandler3
text$x	ENDS
??1CvAIGrandStrategyXMLEntries@@QAE@XZ ENDP		; CvAIGrandStrategyXMLEntries::~CvAIGrandStrategyXMLEntries
PUBLIC	?GetAIGrandStrategyEntries@CvAIGrandStrategyXMLEntries@@QAEAAV?$vector@PAVCvAIGrandStrategyXMLEntry@@V?$allocator@PAVCvAIGrandStrategyXMLEntry@@@std@@@std@@XZ ; CvAIGrandStrategyXMLEntries::GetAIGrandStrategyEntries
; Function compile flags: /Odtp
;	COMDAT ?GetAIGrandStrategyEntries@CvAIGrandStrategyXMLEntries@@QAEAAV?$vector@PAVCvAIGrandStrategyXMLEntry@@V?$allocator@PAVCvAIGrandStrategyXMLEntry@@@std@@@std@@XZ
_TEXT	SEGMENT
_this$ = -4						; size = 4
?GetAIGrandStrategyEntries@CvAIGrandStrategyXMLEntries@@QAEAAV?$vector@PAVCvAIGrandStrategyXMLEntry@@V?$allocator@PAVCvAIGrandStrategyXMLEntry@@@std@@@std@@XZ PROC ; CvAIGrandStrategyXMLEntries::GetAIGrandStrategyEntries, COMDAT
; _this$ = ecx

; 103  : {

	push	ebp
	mov	ebp, esp
	push	ecx
	mov	DWORD PTR _this$[ebp], ecx

; 104  : 	return m_paAIGrandStrategyEntries;

	mov	eax, DWORD PTR _this$[ebp]

; 105  : }

	mov	esp, ebp
	pop	ebp
	ret	0
?GetAIGrandStrategyEntries@CvAIGrandStrategyXMLEntries@@QAEAAV?$vector@PAVCvAIGrandStrategyXMLEntry@@V?$allocator@PAVCvAIGrandStrategyXMLEntry@@@std@@@std@@XZ ENDP ; CvAIGrandStrategyXMLEntries::GetAIGrandStrategyEntries
_TEXT	ENDS
PUBLIC	?GetNumAIGrandStrategies@CvAIGrandStrategyXMLEntries@@QAEHXZ ; CvAIGrandStrategyXMLEntries::GetNumAIGrandStrategies
; Function compile flags: /Odtp
;	COMDAT ?GetNumAIGrandStrategies@CvAIGrandStrategyXMLEntries@@QAEHXZ
_TEXT	SEGMENT
_this$ = -4						; size = 4
?GetNumAIGrandStrategies@CvAIGrandStrategyXMLEntries@@QAEHXZ PROC ; CvAIGrandStrategyXMLEntries::GetNumAIGrandStrategies, COMDAT
; _this$ = ecx

; 113  : {

	push	ebp
	mov	ebp, esp
	push	ecx
	mov	DWORD PTR _this$[ebp], ecx

; 114  : 	return m_paAIGrandStrategyEntries.size();

	mov	eax, DWORD PTR _this$[ebp]
	mov	ecx, DWORD PTR _this$[ebp]
	mov	eax, DWORD PTR [eax+8]
	sub	eax, DWORD PTR [ecx+4]
	sar	eax, 2

; 115  : }

	mov	esp, ebp
	pop	ebp
	ret	0
?GetNumAIGrandStrategies@CvAIGrandStrategyXMLEntries@@QAEHXZ ENDP ; CvAIGrandStrategyXMLEntries::GetNumAIGrandStrategies
_TEXT	ENDS
PUBLIC	?erase@?$vector@PAVCvAIGrandStrategyXMLEntry@@V?$allocator@PAVCvAIGrandStrategyXMLEntry@@@std@@@std@@QAE?AV?$_Vector_iterator@PAVCvAIGrandStrategyXMLEntry@@V?$allocator@PAVCvAIGrandStrategyXMLEntry@@@std@@@2@V?$_Vector_const_iterator@PAVCvAIGrandStrategyXMLEntry@@V?$allocator@PAVCvAIGrandStrategyXMLEntry@@@std@@@2@0@Z ; std::vector<CvAIGrandStrategyXMLEntry *,std::allocator<CvAIGrandStrategyXMLEntry *> >::erase
; Function compile flags: /Odtp
;	COMDAT ?DeleteArray@CvAIGrandStrategyXMLEntries@@QAEXXZ
_TEXT	SEGMENT
tv145 = -116						; size = 4
_this$ = -112						; size = 4
$T226214 = -56						; size = 4
$T226198 = -52						; size = 4
$T226319 = -48						; size = 4
$T226318 = -44						; size = 4
$T226317 = -40						; size = 4
$T226316 = -36						; size = 4
$T226315 = -32						; size = 4
$T226182 = -28						; size = 4
$T226179 = -24						; size = 4
$T226178 = -20						; size = 4
$T226148 = -16						; size = 4
$T226124 = -12						; size = 4
$T226114 = -8						; size = 4
_it$223594 = -4						; size = 4
?DeleteArray@CvAIGrandStrategyXMLEntries@@QAEXXZ PROC	; CvAIGrandStrategyXMLEntries::DeleteArray, COMDAT
; _this$ = ecx

; 119  : {

	push	ebp
	mov	ebp, esp
	sub	esp, 116				; 00000074H
	mov	DWORD PTR _this$[ebp], ecx

; 120  : 	for(std::vector<CvAIGrandStrategyXMLEntry*>::iterator it = m_paAIGrandStrategyEntries.begin(); it != m_paAIGrandStrategyEntries.end(); ++it)

	mov	eax, DWORD PTR _this$[ebp]
	mov	ecx, DWORD PTR [eax+4]
	mov	DWORD PTR $T226124[ebp], ecx
	mov	edx, DWORD PTR $T226124[ebp]
	mov	DWORD PTR _it$223594[ebp], edx
	jmp	SHORT $LN3@DeleteArra
$LN2@DeleteArra:
	mov	eax, DWORD PTR _it$223594[ebp]
	add	eax, 4
	mov	DWORD PTR _it$223594[ebp], eax
$LN3@DeleteArra:
	mov	ecx, DWORD PTR _this$[ebp]
	mov	edx, DWORD PTR [ecx+8]
	mov	DWORD PTR $T226148[ebp], edx
	mov	eax, DWORD PTR $T226148[ebp]
	mov	DWORD PTR $T226114[ebp], eax
	mov	ecx, DWORD PTR _it$223594[ebp]
	xor	edx, edx
	cmp	ecx, DWORD PTR $T226114[ebp]
	sete	dl
	movzx	eax, dl
	neg	eax
	sbb	eax, eax
	add	eax, 1
	movzx	ecx, al
	test	ecx, ecx
	je	SHORT $LN1@DeleteArra

; 121  : 	{
; 122  : 		SAFE_DELETE(*it);

	mov	edx, DWORD PTR _it$223594[ebp]
	mov	DWORD PTR $T226182[ebp], edx
	mov	eax, DWORD PTR $T226182[ebp]
	mov	ecx, DWORD PTR [eax]
	mov	DWORD PTR $T226179[ebp], ecx
	mov	edx, DWORD PTR $T226179[ebp]
	mov	DWORD PTR $T226178[ebp], edx
	cmp	DWORD PTR $T226178[ebp], 0
	je	SHORT $LN32@DeleteArra
	push	1
	mov	eax, DWORD PTR $T226178[ebp]
	mov	edx, DWORD PTR [eax]
	mov	ecx, DWORD PTR $T226178[ebp]
	mov	eax, DWORD PTR [edx+16]
	call	eax
	mov	DWORD PTR tv145[ebp], eax
	jmp	SHORT $LN33@DeleteArra
$LN32@DeleteArra:
	mov	DWORD PTR tv145[ebp], 0
$LN33@DeleteArra:
	mov	ecx, DWORD PTR $T226182[ebp]
	mov	DWORD PTR [ecx], 0

; 123  : 	}

	jmp	SHORT $LN2@DeleteArra
$LN1@DeleteArra:

; 124  : 
; 125  : 	m_paAIGrandStrategyEntries.clear();

	mov	edx, DWORD PTR _this$[ebp]
	mov	eax, DWORD PTR [edx+8]
	mov	DWORD PTR $T226198[ebp], eax
	mov	ecx, DWORD PTR $T226198[ebp]
	mov	DWORD PTR $T226316[ebp], ecx
	mov	edx, DWORD PTR $T226316[ebp]
	mov	DWORD PTR $T226315[ebp], edx
	mov	eax, DWORD PTR _this$[ebp]
	mov	ecx, DWORD PTR [eax+4]
	mov	DWORD PTR $T226214[ebp], ecx
	mov	edx, DWORD PTR $T226214[ebp]
	mov	DWORD PTR $T226318[ebp], edx
	mov	eax, DWORD PTR $T226318[ebp]
	mov	DWORD PTR $T226317[ebp], eax
	mov	ecx, DWORD PTR $T226315[ebp]
	push	ecx
	mov	edx, DWORD PTR $T226317[ebp]
	push	edx
	lea	eax, DWORD PTR $T226319[ebp]
	push	eax
	mov	ecx, DWORD PTR _this$[ebp]
	call	?erase@?$vector@PAVCvAIGrandStrategyXMLEntry@@V?$allocator@PAVCvAIGrandStrategyXMLEntry@@@std@@@std@@QAE?AV?$_Vector_iterator@PAVCvAIGrandStrategyXMLEntry@@V?$allocator@PAVCvAIGrandStrategyXMLEntry@@@std@@@2@V?$_Vector_const_iterator@PAVCvAIGrandStrategyXMLEntry@@V?$allocator@PAVCvAIGrandStrategyXMLEntry@@@std@@@2@0@Z ; std::vector<CvAIGrandStrategyXMLEntry *,std::allocator<CvAIGrandStrategyXMLEntry *> >::erase

; 126  : }

	mov	esp, ebp
	pop	ebp
	ret	0
?DeleteArray@CvAIGrandStrategyXMLEntries@@QAEXXZ ENDP	; CvAIGrandStrategyXMLEntries::DeleteArray
_TEXT	ENDS
PUBLIC	?GetEntry@CvAIGrandStrategyXMLEntries@@QAEPAVCvAIGrandStrategyXMLEntry@@H@Z ; CvAIGrandStrategyXMLEntries::GetEntry
; Function compile flags: /Odtp
;	COMDAT ?GetEntry@CvAIGrandStrategyXMLEntries@@QAEPAVCvAIGrandStrategyXMLEntry@@H@Z
_TEXT	SEGMENT
_this$ = -4						; size = 4
_index$ = 8						; size = 4
?GetEntry@CvAIGrandStrategyXMLEntries@@QAEPAVCvAIGrandStrategyXMLEntry@@H@Z PROC ; CvAIGrandStrategyXMLEntries::GetEntry, COMDAT
; _this$ = ecx

; 134  : {

	push	ebp
	mov	ebp, esp
	push	ecx
	mov	DWORD PTR _this$[ebp], ecx

; 135  : 	return m_paAIGrandStrategyEntries[index];

	mov	eax, DWORD PTR _this$[ebp]
	mov	ecx, DWORD PTR [eax+4]
	mov	edx, DWORD PTR _index$[ebp]
	mov	eax, DWORD PTR [ecx+edx*4]

; 136  : }

	mov	esp, ebp
	pop	ebp
	ret	4
?GetEntry@CvAIGrandStrategyXMLEntries@@QAEPAVCvAIGrandStrategyXMLEntry@@H@Z ENDP ; CvAIGrandStrategyXMLEntries::GetEntry
_TEXT	ENDS
PUBLIC	??0CvGrandStrategyAI@@QAE@XZ			; CvGrandStrategyAI::CvGrandStrategyAI
; Function compile flags: /Odtp
;	COMDAT ??0CvGrandStrategyAI@@QAE@XZ
_TEXT	SEGMENT
_this$ = -4						; size = 4
??0CvGrandStrategyAI@@QAE@XZ PROC			; CvGrandStrategyAI::CvGrandStrategyAI, COMDAT
; _this$ = ecx

; 154  : {

	push	ebp
	mov	ebp, esp
	push	ecx
	mov	DWORD PTR _this$[ebp], ecx
	mov	eax, DWORD PTR _this$[ebp]
	mov	DWORD PTR [eax+16], 0
	mov	ecx, DWORD PTR _this$[ebp]
	mov	DWORD PTR [ecx+20], 0
	mov	edx, DWORD PTR _this$[ebp]
	mov	DWORD PTR [edx+24], 0

; 155  : }

	mov	eax, DWORD PTR _this$[ebp]
	mov	esp, ebp
	pop	ebp
	ret	0
??0CvGrandStrategyAI@@QAE@XZ ENDP			; CvGrandStrategyAI::CvGrandStrategyAI
_TEXT	ENDS
PUBLIC	??1CvGrandStrategyAI@@QAE@XZ			; CvGrandStrategyAI::~CvGrandStrategyAI
; Function compile flags: /Odtp
;	COMDAT ??1CvGrandStrategyAI@@QAE@XZ
_TEXT	SEGMENT
_this$ = -4						; size = 4
??1CvGrandStrategyAI@@QAE@XZ PROC			; CvGrandStrategyAI::~CvGrandStrategyAI, COMDAT
; _this$ = ecx

; 159  : {

	push	ebp
	mov	ebp, esp
	push	ecx
	mov	DWORD PTR _this$[ebp], ecx

; 160  : }

	mov	esp, ebp
	pop	ebp
	ret	0
??1CvGrandStrategyAI@@QAE@XZ ENDP			; CvGrandStrategyAI::~CvGrandStrategyAI
_TEXT	ENDS
PUBLIC	?Reset@CvGrandStrategyAI@@QAEXXZ		; CvGrandStrategyAI::Reset
PUBLIC	?Init@CvGrandStrategyAI@@QAEXPAVCvAIGrandStrategyXMLEntries@@PAVCvPlayer@@@Z ; CvGrandStrategyAI::Init
EXTRN	??_U@YAPAXI@Z:PROC				; operator new[]
; Function compile flags: /Odtp
;	COMDAT ?Init@CvGrandStrategyAI@@QAEXPAVCvAIGrandStrategyXMLEntries@@PAVCvPlayer@@@Z
_TEXT	SEGMENT
_this$ = -16						; size = 4
$T226345 = -12						; size = 4
$T226344 = -8						; size = 4
$T226343 = -4						; size = 4
_pAIGrandStrategies$ = 8				; size = 4
_pPlayer$ = 12						; size = 4
?Init@CvGrandStrategyAI@@QAEXPAVCvAIGrandStrategyXMLEntries@@PAVCvPlayer@@@Z PROC ; CvGrandStrategyAI::Init, COMDAT
; _this$ = ecx

; 164  : {

	push	ebp
	mov	ebp, esp
	sub	esp, 16					; 00000010H
	mov	DWORD PTR _this$[ebp], ecx

; 165  : 	// Store off the pointer to the AIStrategies active for this game
; 166  : 	m_pAIGrandStrategies = pAIGrandStrategies;

	mov	eax, DWORD PTR _this$[ebp]
	mov	ecx, DWORD PTR _pAIGrandStrategies$[ebp]
	mov	DWORD PTR [eax+4], ecx

; 167  : 
; 168  : 	m_pPlayer = pPlayer;

	mov	edx, DWORD PTR _this$[ebp]
	mov	eax, DWORD PTR _pPlayer$[ebp]
	mov	DWORD PTR [edx], eax

; 169  : 
; 170  : 	// Initialize AIGrandStrategy status array
; 171  : 	FAssertMsg(m_paiGrandStrategyPriority==NULL, "about to leak memory, CvGrandStrategyAI::m_paiGrandStrategyPriority");
; 172  : 	m_paiGrandStrategyPriority = FNEW(int[m_pAIGrandStrategies->GetNumAIGrandStrategies()], c_eCiv5GameplayDLL, 0);

	mov	ecx, DWORD PTR _this$[ebp]
	mov	ecx, DWORD PTR [ecx+4]
	call	?GetNumAIGrandStrategies@CvAIGrandStrategyXMLEntries@@QAEHXZ ; CvAIGrandStrategyXMLEntries::GetNumAIGrandStrategies
	xor	ecx, ecx
	mov	edx, 4
	mul	edx
	seto	cl
	neg	ecx
	or	ecx, eax
	push	ecx
	call	??_U@YAPAXI@Z				; operator new[]
	add	esp, 4
	mov	DWORD PTR $T226343[ebp], eax
	mov	eax, DWORD PTR _this$[ebp]
	mov	ecx, DWORD PTR $T226343[ebp]
	mov	DWORD PTR [eax+16], ecx

; 173  : 
; 174  : 	FAssertMsg(m_eGuessOtherPlayerActiveGrandStrategy==NULL, "about to leak memory, CvGrandStrategyAI::m_eGuessOtherPlayerActiveGrandStrategy");
; 175  : 	m_eGuessOtherPlayerActiveGrandStrategy = FNEW(int[MAX_MAJOR_CIVS], c_eCiv5GameplayDLL, 0);

	push	88					; 00000058H
	call	??_U@YAPAXI@Z				; operator new[]
	add	esp, 4
	mov	DWORD PTR $T226344[ebp], eax
	mov	edx, DWORD PTR _this$[ebp]
	mov	eax, DWORD PTR $T226344[ebp]
	mov	DWORD PTR [edx+20], eax

; 176  : 
; 177  : 	FAssertMsg(m_eGuessOtherPlayerActiveGrandStrategyConfidence==NULL, "about to leak memory, CvGrandStrategyAI::m_eGuessOtherPlayerActiveGrandStrategyConfidence");
; 178  : 	m_eGuessOtherPlayerActiveGrandStrategyConfidence = FNEW(int[MAX_MAJOR_CIVS], c_eCiv5GameplayDLL, 0);

	push	88					; 00000058H
	call	??_U@YAPAXI@Z				; operator new[]
	add	esp, 4
	mov	DWORD PTR $T226345[ebp], eax
	mov	ecx, DWORD PTR _this$[ebp]
	mov	edx, DWORD PTR $T226345[ebp]
	mov	DWORD PTR [ecx+24], edx

; 179  : 
; 180  : 	Reset();

	mov	ecx, DWORD PTR _this$[ebp]
	call	?Reset@CvGrandStrategyAI@@QAEXXZ	; CvGrandStrategyAI::Reset

; 181  : }

	mov	esp, ebp
	pop	ebp
	ret	8
?Init@CvGrandStrategyAI@@QAEXPAVCvAIGrandStrategyXMLEntries@@PAVCvPlayer@@@Z ENDP ; CvGrandStrategyAI::Init
_TEXT	ENDS
PUBLIC	?Uninit@CvGrandStrategyAI@@QAEXXZ		; CvGrandStrategyAI::Uninit
; Function compile flags: /Odtp
;	COMDAT ?Uninit@CvGrandStrategyAI@@QAEXXZ
_TEXT	SEGMENT
_this$ = -28						; size = 4
$T226365 = -24						; size = 4
$T226363 = -20						; size = 4
$T226359 = -16						; size = 4
$T226357 = -12						; size = 4
$T226353 = -8						; size = 4
$T226351 = -4						; size = 4
?Uninit@CvGrandStrategyAI@@QAEXXZ PROC			; CvGrandStrategyAI::Uninit, COMDAT
; _this$ = ecx

; 185  : {

	push	ebp
	mov	ebp, esp
	sub	esp, 28					; 0000001cH
	mov	DWORD PTR _this$[ebp], ecx

; 186  : 	SAFE_DELETE_ARRAY(m_paiGrandStrategyPriority);

	mov	eax, DWORD PTR _this$[ebp]
	add	eax, 16					; 00000010H
	mov	DWORD PTR $T226353[ebp], eax
	mov	ecx, DWORD PTR $T226353[ebp]
	mov	edx, DWORD PTR [ecx]
	mov	DWORD PTR $T226351[ebp], edx
	mov	eax, DWORD PTR $T226351[ebp]
	push	eax
	call	??_V@YAXPAX@Z				; operator delete[]
	add	esp, 4
	mov	ecx, DWORD PTR $T226353[ebp]
	mov	DWORD PTR [ecx], 0

; 187  : 	SAFE_DELETE_ARRAY(m_eGuessOtherPlayerActiveGrandStrategy);

	mov	edx, DWORD PTR _this$[ebp]
	add	edx, 20					; 00000014H
	mov	DWORD PTR $T226359[ebp], edx
	mov	eax, DWORD PTR $T226359[ebp]
	mov	ecx, DWORD PTR [eax]
	mov	DWORD PTR $T226357[ebp], ecx
	mov	edx, DWORD PTR $T226357[ebp]
	push	edx
	call	??_V@YAXPAX@Z				; operator delete[]
	add	esp, 4
	mov	eax, DWORD PTR $T226359[ebp]
	mov	DWORD PTR [eax], 0

; 188  : 	SAFE_DELETE_ARRAY(m_eGuessOtherPlayerActiveGrandStrategyConfidence);

	mov	ecx, DWORD PTR _this$[ebp]
	add	ecx, 24					; 00000018H
	mov	DWORD PTR $T226365[ebp], ecx
	mov	edx, DWORD PTR $T226365[ebp]
	mov	eax, DWORD PTR [edx]
	mov	DWORD PTR $T226363[ebp], eax
	mov	ecx, DWORD PTR $T226363[ebp]
	push	ecx
	call	??_V@YAXPAX@Z				; operator delete[]
	add	esp, 4
	mov	edx, DWORD PTR $T226365[ebp]
	mov	DWORD PTR [edx], 0

; 189  : }

	mov	esp, ebp
	pop	ebp
	ret	0
?Uninit@CvGrandStrategyAI@@QAEXXZ ENDP			; CvGrandStrategyAI::Uninit
; Function compile flags: /Odtp
_TEXT	ENDS
;	COMDAT ?Reset@CvGrandStrategyAI@@QAEXXZ
_TEXT	SEGMENT
_this$ = -8						; size = 4
_iI$ = -4						; size = 4
?Reset@CvGrandStrategyAI@@QAEXXZ PROC			; CvGrandStrategyAI::Reset, COMDAT
; _this$ = ecx

; 193  : {

	push	ebp
	mov	ebp, esp
	sub	esp, 8
	mov	DWORD PTR _this$[ebp], ecx

; 194  : #ifdef AUI_WARNING_FIXES
; 195  : 	uint iI;
; 196  : #else
; 197  : 	int iI;
; 198  : #endif
; 199  : 
; 200  : 	m_iNumTurnsSinceActiveSet = 0;

	mov	eax, DWORD PTR _this$[ebp]
	mov	DWORD PTR [eax+8], 0

; 201  : 
; 202  : 	m_eActiveGrandStrategy = NO_AIGRANDSTRATEGY;

	mov	ecx, DWORD PTR _this$[ebp]
	mov	DWORD PTR [ecx+12], -1

; 203  : 
; 204  : 	for(iI = 0; iI < m_pAIGrandStrategies->GetNumAIGrandStrategies(); iI++)

	mov	DWORD PTR _iI$[ebp], 0
	jmp	SHORT $LN6@Reset
$LN5@Reset:
	mov	edx, DWORD PTR _iI$[ebp]
	add	edx, 1
	mov	DWORD PTR _iI$[ebp], edx
$LN6@Reset:
	mov	eax, DWORD PTR _this$[ebp]
	mov	ecx, DWORD PTR [eax+4]
	call	?GetNumAIGrandStrategies@CvAIGrandStrategyXMLEntries@@QAEHXZ ; CvAIGrandStrategyXMLEntries::GetNumAIGrandStrategies
	cmp	DWORD PTR _iI$[ebp], eax
	jge	SHORT $LN4@Reset

; 205  : 	{
; 206  : 		m_paiGrandStrategyPriority[iI] = -1;

	mov	ecx, DWORD PTR _this$[ebp]
	mov	edx, DWORD PTR [ecx+16]
	mov	eax, DWORD PTR _iI$[ebp]
	mov	DWORD PTR [edx+eax*4], -1

; 207  : 	}

	jmp	SHORT $LN5@Reset
$LN4@Reset:

; 208  : 
; 209  : 	for(iI = 0; iI < MAX_MAJOR_CIVS; iI++)

	mov	DWORD PTR _iI$[ebp], 0
	jmp	SHORT $LN3@Reset
$LN2@Reset:
	mov	ecx, DWORD PTR _iI$[ebp]
	add	ecx, 1
	mov	DWORD PTR _iI$[ebp], ecx
$LN3@Reset:
	cmp	DWORD PTR _iI$[ebp], 22			; 00000016H
	jge	SHORT $LN7@Reset

; 210  : 	{
; 211  : 		m_eGuessOtherPlayerActiveGrandStrategy[iI] = NO_AIGRANDSTRATEGY;

	mov	edx, DWORD PTR _this$[ebp]
	mov	eax, DWORD PTR [edx+20]
	mov	ecx, DWORD PTR _iI$[ebp]
	mov	DWORD PTR [eax+ecx*4], -1

; 212  : 		m_eGuessOtherPlayerActiveGrandStrategyConfidence[iI] = NO_GUESS_CONFIDENCE_TYPE;

	mov	edx, DWORD PTR _this$[ebp]
	mov	eax, DWORD PTR [edx+24]
	mov	ecx, DWORD PTR _iI$[ebp]
	mov	DWORD PTR [eax+ecx*4], -1
	jmp	SHORT $LN2@Reset
$LN7@Reset:

; 213  : 	}
; 214  : }

	mov	esp, ebp
	pop	ebp
	ret	0
?Reset@CvGrandStrategyAI@@QAEXXZ ENDP			; CvGrandStrategyAI::Reset
_TEXT	ENDS
PUBLIC	??$?5H@@YAAAVFDataStream@@AAV0@AAV?$ArrayWrapper@H@@@Z ; operator>><int>
PUBLIC	?Read@CvGrandStrategyAI@@QAEXAAVFDataStream@@@Z	; CvGrandStrategyAI::Read
EXTRN	?Read@FDataStream@@IAEXAAH@Z:PROC		; FDataStream::Read
EXTRN	?Read@FDataStream@@IAEXAAI@Z:PROC		; FDataStream::Read
; Function compile flags: /Odtp
;	COMDAT ?Read@CvGrandStrategyAI@@QAEXAAVFDataStream@@@Z
_TEXT	SEGMENT
_this$ = -48						; size = 4
$T226391 = -44						; size = 4
$T226387 = -40						; size = 4
$T226383 = -36						; size = 4
$T226382 = -32						; size = 4
_uiVersion$ = -28					; size = 4
_wrapm_eGuessOtherPlayerActiveGrandStrategy$ = -24	; size = 8
_wrapm_eGuessOtherPlayerActiveGrandStrategyConfidence$ = -16 ; size = 8
_wrapm_paiGrandStrategyPriority$ = -8			; size = 8
_kStream$ = 8						; size = 4
?Read@CvGrandStrategyAI@@QAEXAAVFDataStream@@@Z PROC	; CvGrandStrategyAI::Read, COMDAT
; _this$ = ecx

; 218  : {

	push	ebp
	mov	ebp, esp
	sub	esp, 48					; 00000030H
	mov	DWORD PTR _this$[ebp], ecx

; 219  : 	// Version number to maintain backwards compatibility
; 220  : 	uint uiVersion;
; 221  : 	kStream >> uiVersion;

	lea	eax, DWORD PTR _uiVersion$[ebp]
	push	eax
	mov	ecx, DWORD PTR _kStream$[ebp]
	call	?Read@FDataStream@@IAEXAAI@Z		; FDataStream::Read

; 222  : 
; 223  : 	kStream >> m_iNumTurnsSinceActiveSet;

	mov	ecx, DWORD PTR _this$[ebp]
	add	ecx, 8
	push	ecx
	mov	ecx, DWORD PTR _kStream$[ebp]
	call	?Read@FDataStream@@IAEXAAH@Z		; FDataStream::Read

; 224  : 	kStream >> (int&)m_eActiveGrandStrategy;

	mov	edx, DWORD PTR _this$[ebp]
	add	edx, 12					; 0000000cH
	push	edx
	mov	ecx, DWORD PTR _kStream$[ebp]
	call	?Read@FDataStream@@IAEXAAH@Z		; FDataStream::Read

; 225  : 
; 226  : 	FAssertMsg(m_pAIGrandStrategies != NULL && m_pAIGrandStrategies->GetNumAIGrandStrategies() > 0, "Number of AIGrandStrategies to serialize is expected to greater than 0");
; 227  : #ifdef _MSC_VER
; 228  : // JAR - if m_pAIGrandStrategies can be NULL at this point,
; 229  : // the load will fail if the data isn't read. Better to crash
; 230  : // here where the problem is than defer it.
; 231  : #pragma warning ( push )
; 232  : #pragma warning ( disable : 6011 )
; 233  : #endif//_MSC_VER
; 234  : 	ArrayWrapper<int> wrapm_paiGrandStrategyPriority(m_pAIGrandStrategies->GetNumAIGrandStrategies(), m_paiGrandStrategyPriority);

	mov	eax, DWORD PTR _this$[ebp]
	mov	ecx, DWORD PTR [eax+16]
	mov	DWORD PTR $T226383[ebp], ecx
	mov	edx, DWORD PTR _this$[ebp]
	mov	ecx, DWORD PTR [edx+4]
	call	?GetNumAIGrandStrategies@CvAIGrandStrategyXMLEntries@@QAEHXZ ; CvAIGrandStrategyXMLEntries::GetNumAIGrandStrategies
	mov	DWORD PTR $T226382[ebp], eax
	mov	eax, DWORD PTR $T226383[ebp]
	mov	DWORD PTR _wrapm_paiGrandStrategyPriority$[ebp], eax
	mov	ecx, DWORD PTR $T226382[ebp]
	mov	DWORD PTR _wrapm_paiGrandStrategyPriority$[ebp+4], ecx

; 235  : #ifdef _MSC_VER
; 236  : #pragma warning ( pop )
; 237  : #endif//_MSC_VER
; 238  : 
; 239  : 	kStream >> wrapm_paiGrandStrategyPriority;

	lea	edx, DWORD PTR _wrapm_paiGrandStrategyPriority$[ebp]
	push	edx
	mov	eax, DWORD PTR _kStream$[ebp]
	push	eax
	call	??$?5H@@YAAAVFDataStream@@AAV0@AAV?$ArrayWrapper@H@@@Z ; operator>><int>
	add	esp, 8

; 240  : 
; 241  : 	ArrayWrapper<int> wrapm_eGuessOtherPlayerActiveGrandStrategy(MAX_MAJOR_CIVS, m_eGuessOtherPlayerActiveGrandStrategy);

	mov	ecx, DWORD PTR _this$[ebp]
	mov	edx, DWORD PTR [ecx+20]
	mov	DWORD PTR $T226387[ebp], edx
	mov	eax, DWORD PTR $T226387[ebp]
	mov	DWORD PTR _wrapm_eGuessOtherPlayerActiveGrandStrategy$[ebp], eax
	mov	DWORD PTR _wrapm_eGuessOtherPlayerActiveGrandStrategy$[ebp+4], 22 ; 00000016H

; 242  : 	kStream >> wrapm_eGuessOtherPlayerActiveGrandStrategy;

	lea	ecx, DWORD PTR _wrapm_eGuessOtherPlayerActiveGrandStrategy$[ebp]
	push	ecx
	mov	edx, DWORD PTR _kStream$[ebp]
	push	edx
	call	??$?5H@@YAAAVFDataStream@@AAV0@AAV?$ArrayWrapper@H@@@Z ; operator>><int>
	add	esp, 8

; 243  : 
; 244  : 	ArrayWrapper<int> wrapm_eGuessOtherPlayerActiveGrandStrategyConfidence(MAX_MAJOR_CIVS, m_eGuessOtherPlayerActiveGrandStrategyConfidence);

	mov	eax, DWORD PTR _this$[ebp]
	mov	ecx, DWORD PTR [eax+24]
	mov	DWORD PTR $T226391[ebp], ecx
	mov	edx, DWORD PTR $T226391[ebp]
	mov	DWORD PTR _wrapm_eGuessOtherPlayerActiveGrandStrategyConfidence$[ebp], edx
	mov	DWORD PTR _wrapm_eGuessOtherPlayerActiveGrandStrategyConfidence$[ebp+4], 22 ; 00000016H

; 245  : 	kStream >> wrapm_eGuessOtherPlayerActiveGrandStrategyConfidence;

	lea	eax, DWORD PTR _wrapm_eGuessOtherPlayerActiveGrandStrategyConfidence$[ebp]
	push	eax
	mov	ecx, DWORD PTR _kStream$[ebp]
	push	ecx
	call	??$?5H@@YAAAVFDataStream@@AAV0@AAV?$ArrayWrapper@H@@@Z ; operator>><int>
	add	esp, 8

; 246  : 
; 247  : }

	mov	esp, ebp
	pop	ebp
	ret	4
?Read@CvGrandStrategyAI@@QAEXAAVFDataStream@@@Z ENDP	; CvGrandStrategyAI::Read
_TEXT	ENDS
PUBLIC	??$?6H@@YAAAVFDataStream@@AAV0@ABV?$ArrayWrapper@H@@@Z ; operator<<<int>
PUBLIC	?Write@CvGrandStrategyAI@@QAEXAAVFDataStream@@@Z ; CvGrandStrategyAI::Write
EXTRN	?Write@FDataStream@@IAEXABH@Z:PROC		; FDataStream::Write
EXTRN	?Write@FDataStream@@IAEXABI@Z:PROC		; FDataStream::Write
; Function compile flags: /Odtp
;	COMDAT ?Write@CvGrandStrategyAI@@QAEXAAVFDataStream@@@Z
_TEXT	SEGMENT
_this$ = -52						; size = 4
$T226420 = -48						; size = 4
$T226416 = -44						; size = 4
$T226412 = -40						; size = 4
$T226411 = -36						; size = 4
$T226406 = -32						; size = 4
$T226396 = -28						; size = 8
$T226395 = -20						; size = 8
$T226394 = -12						; size = 8
_uiVersion$ = -4					; size = 4
_kStream$ = 8						; size = 4
?Write@CvGrandStrategyAI@@QAEXAAVFDataStream@@@Z PROC	; CvGrandStrategyAI::Write, COMDAT
; _this$ = ecx

; 251  : {

	push	ebp
	mov	ebp, esp
	sub	esp, 52					; 00000034H
	mov	DWORD PTR _this$[ebp], ecx

; 252  : 	// Current version number
; 253  : 	uint uiVersion = 1;

	mov	DWORD PTR _uiVersion$[ebp], 1

; 254  : 	kStream << uiVersion;

	lea	eax, DWORD PTR _uiVersion$[ebp]
	push	eax
	mov	ecx, DWORD PTR _kStream$[ebp]
	call	?Write@FDataStream@@IAEXABI@Z		; FDataStream::Write

; 255  : 
; 256  : 	kStream << m_iNumTurnsSinceActiveSet;

	mov	ecx, DWORD PTR _this$[ebp]
	add	ecx, 8
	push	ecx
	mov	ecx, DWORD PTR _kStream$[ebp]
	call	?Write@FDataStream@@IAEXABH@Z		; FDataStream::Write

; 257  : 	kStream << m_eActiveGrandStrategy;

	mov	edx, DWORD PTR _this$[ebp]
	mov	eax, DWORD PTR [edx+12]
	mov	DWORD PTR $T226406[ebp], eax
	lea	ecx, DWORD PTR $T226406[ebp]
	push	ecx
	mov	ecx, DWORD PTR _kStream$[ebp]
	call	?Write@FDataStream@@IAEXABH@Z		; FDataStream::Write

; 258  : 
; 259  : 	FAssertMsg(GC.getNumAIGrandStrategyInfos() > 0, "Number of AIStrategies to serialize is expected to greater than 0");
; 260  : 	kStream << ArrayWrapper<int>(m_pAIGrandStrategies->GetNumAIGrandStrategies(), m_paiGrandStrategyPriority);

	mov	edx, DWORD PTR _this$[ebp]
	mov	eax, DWORD PTR [edx+16]
	mov	DWORD PTR $T226412[ebp], eax
	mov	ecx, DWORD PTR _this$[ebp]
	mov	ecx, DWORD PTR [ecx+4]
	call	?GetNumAIGrandStrategies@CvAIGrandStrategyXMLEntries@@QAEHXZ ; CvAIGrandStrategyXMLEntries::GetNumAIGrandStrategies
	mov	DWORD PTR $T226411[ebp], eax
	mov	edx, DWORD PTR $T226412[ebp]
	mov	DWORD PTR $T226394[ebp], edx
	mov	eax, DWORD PTR $T226411[ebp]
	mov	DWORD PTR $T226394[ebp+4], eax
	lea	ecx, DWORD PTR $T226394[ebp]
	push	ecx
	mov	edx, DWORD PTR _kStream$[ebp]
	push	edx
	call	??$?6H@@YAAAVFDataStream@@AAV0@ABV?$ArrayWrapper@H@@@Z ; operator<<<int>
	add	esp, 8

; 261  : 
; 262  : 	kStream << ArrayWrapper<int>(MAX_MAJOR_CIVS, m_eGuessOtherPlayerActiveGrandStrategy);

	mov	eax, DWORD PTR _this$[ebp]
	mov	ecx, DWORD PTR [eax+20]
	mov	DWORD PTR $T226416[ebp], ecx
	mov	edx, DWORD PTR $T226416[ebp]
	mov	DWORD PTR $T226395[ebp], edx
	mov	DWORD PTR $T226395[ebp+4], 22		; 00000016H
	lea	eax, DWORD PTR $T226395[ebp]
	push	eax
	mov	ecx, DWORD PTR _kStream$[ebp]
	push	ecx
	call	??$?6H@@YAAAVFDataStream@@AAV0@ABV?$ArrayWrapper@H@@@Z ; operator<<<int>
	add	esp, 8

; 263  : 	kStream << ArrayWrapper<int>(MAX_MAJOR_CIVS, m_eGuessOtherPlayerActiveGrandStrategyConfidence);

	mov	edx, DWORD PTR _this$[ebp]
	mov	eax, DWORD PTR [edx+24]
	mov	DWORD PTR $T226420[ebp], eax
	mov	ecx, DWORD PTR $T226420[ebp]
	mov	DWORD PTR $T226396[ebp], ecx
	mov	DWORD PTR $T226396[ebp+4], 22		; 00000016H
	lea	edx, DWORD PTR $T226396[ebp]
	push	edx
	mov	eax, DWORD PTR _kStream$[ebp]
	push	eax
	call	??$?6H@@YAAAVFDataStream@@AAV0@ABV?$ArrayWrapper@H@@@Z ; operator<<<int>
	add	esp, 8

; 264  : }

	mov	esp, ebp
	pop	ebp
	ret	4
?Write@CvGrandStrategyAI@@QAEXAAVFDataStream@@@Z ENDP	; CvGrandStrategyAI::Write
_TEXT	ENDS
PUBLIC	?GetPlayer@CvGrandStrategyAI@@QAEPAVCvPlayer@@XZ ; CvGrandStrategyAI::GetPlayer
; Function compile flags: /Odtp
;	COMDAT ?GetPlayer@CvGrandStrategyAI@@QAEPAVCvPlayer@@XZ
_TEXT	SEGMENT
_this$ = -4						; size = 4
?GetPlayer@CvGrandStrategyAI@@QAEPAVCvPlayer@@XZ PROC	; CvGrandStrategyAI::GetPlayer, COMDAT
; _this$ = ecx

; 272  : {

	push	ebp
	mov	ebp, esp
	push	ecx
	mov	DWORD PTR _this$[ebp], ecx

; 273  : 	return m_pPlayer;

	mov	eax, DWORD PTR _this$[ebp]
	mov	eax, DWORD PTR [eax]

; 274  : }

	mov	esp, ebp
	pop	ebp
	ret	0
?GetPlayer@CvGrandStrategyAI@@QAEPAVCvPlayer@@XZ ENDP	; CvGrandStrategyAI::GetPlayer
_TEXT	ENDS
PUBLIC	?GetAIGrandStrategies@CvGrandStrategyAI@@QAEPAVCvAIGrandStrategyXMLEntries@@XZ ; CvGrandStrategyAI::GetAIGrandStrategies
; Function compile flags: /Odtp
;	COMDAT ?GetAIGrandStrategies@CvGrandStrategyAI@@QAEPAVCvAIGrandStrategyXMLEntries@@XZ
_TEXT	SEGMENT
_this$ = -4						; size = 4
?GetAIGrandStrategies@CvGrandStrategyAI@@QAEPAVCvAIGrandStrategyXMLEntries@@XZ PROC ; CvGrandStrategyAI::GetAIGrandStrategies, COMDAT
; _this$ = ecx

; 282  : {

	push	ebp
	mov	ebp, esp
	push	ecx
	mov	DWORD PTR _this$[ebp], ecx

; 283  : 	return m_pAIGrandStrategies;

	mov	eax, DWORD PTR _this$[ebp]
	mov	eax, DWORD PTR [eax+4]

; 284  : }

	mov	esp, ebp
	pop	ebp
	ret	0
?GetAIGrandStrategies@CvGrandStrategyAI@@QAEPAVCvAIGrandStrategyXMLEntries@@XZ ENDP ; CvGrandStrategyAI::GetAIGrandStrategies
_TEXT	ENDS
PUBLIC	??1?$FStaticVector@H$04$00$0BCJ@$0A@@@QAE@XZ	; FStaticVector<int,5,1,297,0>::~FStaticVector<int,5,1,297,0>
PUBLIC	?LogGrandStrategies@CvGrandStrategyAI@@AAEXABV?$FStaticVector@H$04$00$0BCJ@$0A@@@@Z ; CvGrandStrategyAI::LogGrandStrategies
PUBLIC	?SetActiveGrandStrategy@CvGrandStrategyAI@@QAEXW4AIGrandStrategyTypes@@@Z ; CvGrandStrategyAI::SetActiveGrandStrategy
PUBLIC	?GetNumTurnsSinceActiveSet@CvGrandStrategyAI@@QBEHXZ ; CvGrandStrategyAI::GetNumTurnsSinceActiveSet
PUBLIC	?ChangeNumTurnsSinceActiveSet@CvGrandStrategyAI@@QAEXH@Z ; CvGrandStrategyAI::ChangeNumTurnsSinceActiveSet
PUBLIC	?ChangeGrandStrategyPriority@CvGrandStrategyAI@@QAEXW4AIGrandStrategyTypes@@H@Z ; CvGrandStrategyAI::ChangeGrandStrategyPriority
PUBLIC	?GetGrandStrategyPriority@CvGrandStrategyAI@@QBEHW4AIGrandStrategyTypes@@@Z ; CvGrandStrategyAI::GetGrandStrategyPriority
PUBLIC	?push_back@?$FStaticVector@H$04$00$0BCJ@$0A@@@QAEIABH@Z ; FStaticVector<int,5,1,297,0>::push_back
PUBLIC	?GetGuessOtherPlayerActiveGrandStrategy@CvGrandStrategyAI@@QBE?AW4AIGrandStrategyTypes@@W4PlayerTypes@@@Z ; CvGrandStrategyAI::GetGuessOtherPlayerActiveGrandStrategy
PUBLIC	??0?$FStaticVector@H$04$00$0BCJ@$0A@@@QAE@XZ	; FStaticVector<int,5,1,297,0>::FStaticVector<int,5,1,297,0>
PUBLIC	?SetGrandStrategyPriority@CvGrandStrategyAI@@QAEXW4AIGrandStrategyTypes@@H@Z ; CvGrandStrategyAI::SetGrandStrategyPriority
PUBLIC	?GetActiveGrandStrategy@CvGrandStrategyAI@@QBE?AW4AIGrandStrategyTypes@@XZ ; CvGrandStrategyAI::GetActiveGrandStrategy
PUBLIC	??_C@_0CB@KGJPFAEG@Grand?5Strategy?5AI?3?5GS?5rand?5roll?4@ ; `string'
PUBLIC	?GetSpaceshipPriority@CvGrandStrategyAI@@QAEHXZ	; CvGrandStrategyAI::GetSpaceshipPriority
PUBLIC	??_C@_0BK@CCPNHFB@AIGRANDSTRATEGY_SPACESHIP?$AA@ ; `string'
PUBLIC	?GetUnitedNationsPriority@CvGrandStrategyAI@@QAEHXZ ; CvGrandStrategyAI::GetUnitedNationsPriority
PUBLIC	??_C@_0BP@DOCBNDKB@AIGRANDSTRATEGY_UNITED_NATIONS?$AA@ ; `string'
PUBLIC	?GetCulturePriority@CvGrandStrategyAI@@QAEHXZ	; CvGrandStrategyAI::GetCulturePriority
PUBLIC	??_C@_0BI@FNGLFDGI@AIGRANDSTRATEGY_CULTURE?$AA@	; `string'
PUBLIC	?GetConquestPriority@CvGrandStrategyAI@@QAEHXZ	; CvGrandStrategyAI::GetConquestPriority
PUBLIC	??_C@_0BJ@GCKPAHPE@AIGRANDSTRATEGY_CONQUEST?$AA@ ; `string'
PUBLIC	?GetBaseGrandStrategyPriority@CvGrandStrategyAI@@QAEHW4AIGrandStrategyTypes@@@Z ; CvGrandStrategyAI::GetBaseGrandStrategyPriority
PUBLIC	??_C@_00CNPNBAHC@?$AA@				; `string'
PUBLIC	?DoGuessOtherPlayersActiveGrandStrategy@CvGrandStrategyAI@@QAEXXZ ; CvGrandStrategyAI::DoGuessOtherPlayersActiveGrandStrategy
PUBLIC	__$ArrayPad$
PUBLIC	?DoTurn@CvGrandStrategyAI@@QAEXXZ		; CvGrandStrategyAI::DoTurn
EXTRN	?SetSpecializationsDirty@CvCitySpecializationAI@@QAEXW4CitySpecializationUpdateType@@@Z:PROC ; CvCitySpecializationAI::SetSpecializationsDirty
EXTRN	?GetCitySpecializationAI@CvPlayer@@QBEPAVCvCitySpecializationAI@@XZ:PROC ; CvPlayer::GetCitySpecializationAI
EXTRN	?isHasMet@CvTeam@@QBE_NW4TeamTypes@@@Z:PROC	; CvTeam::isHasMet
EXTRN	?m_aTeams@CvTeam@@1PAV1@A:DWORD			; CvTeam::m_aTeams
EXTRN	?m_aPlayers@CvPlayerAI@@1PAV1@A:DWORD		; CvPlayerAI::m_aPlayers
EXTRN	?getJonRandNum@CvGame@@QAEHHPBD@Z:PROC		; CvGame::getJonRandNum
EXTRN	?gGlobals@@3VCvGlobals@@A:BYTE			; gGlobals
EXTRN	__imp_??$?8DU?$char_traits@D@std@@V?$allocator@D@1@@std@@YA_NABV?$basic_string@DU?$char_traits@D@std@@V?$allocator@D@2@@0@PBD@Z:PROC
EXTRN	__imp_??4?$basic_string@DU?$char_traits@D@std@@V?$allocator@D@2@@std@@QAEAAV01@ABV01@@Z:PROC
EXTRN	__imp_??0?$basic_string@DU?$char_traits@D@std@@V?$allocator@D@2@@std@@QAE@PBD@Z:PROC
EXTRN	__imp_??0?$basic_string@DU?$char_traits@D@std@@V?$allocator@D@2@@std@@QAE@XZ:PROC
;	COMDAT ??_C@_0CB@KGJPFAEG@Grand?5Strategy?5AI?3?5GS?5rand?5roll?4@
; File d:\sources\lekmod_git\checkout\lekmod_dll\cvgamecoredllutil\include\cvstring.h
CONST	SEGMENT
??_C@_0CB@KGJPFAEG@Grand?5Strategy?5AI?3?5GS?5rand?5roll?4@ DB 'Grand Str'
	DB	'ategy AI: GS rand roll.', 00H		; `string'
CONST	ENDS
;	COMDAT ??_C@_0BK@CCPNHFB@AIGRANDSTRATEGY_SPACESHIP?$AA@
CONST	SEGMENT
??_C@_0BK@CCPNHFB@AIGRANDSTRATEGY_SPACESHIP?$AA@ DB 'AIGRANDSTRATEGY_SPAC'
	DB	'ESHIP', 00H					; `string'
CONST	ENDS
;	COMDAT ??_C@_0BP@DOCBNDKB@AIGRANDSTRATEGY_UNITED_NATIONS?$AA@
CONST	SEGMENT
??_C@_0BP@DOCBNDKB@AIGRANDSTRATEGY_UNITED_NATIONS?$AA@ DB 'AIGRANDSTRATEG'
	DB	'Y_UNITED_NATIONS', 00H			; `string'
CONST	ENDS
;	COMDAT ??_C@_0BI@FNGLFDGI@AIGRANDSTRATEGY_CULTURE?$AA@
CONST	SEGMENT
??_C@_0BI@FNGLFDGI@AIGRANDSTRATEGY_CULTURE?$AA@ DB 'AIGRANDSTRATEGY_CULTU'
	DB	'RE', 00H					; `string'
CONST	ENDS
;	COMDAT ??_C@_0BJ@GCKPAHPE@AIGRANDSTRATEGY_CONQUEST?$AA@
CONST	SEGMENT
??_C@_0BJ@GCKPAHPE@AIGRANDSTRATEGY_CONQUEST?$AA@ DB 'AIGRANDSTRATEGY_CONQ'
	DB	'UEST', 00H					; `string'
CONST	ENDS
;	COMDAT ??_C@_00CNPNBAHC@?$AA@
CONST	SEGMENT
??_C@_00CNPNBAHC@?$AA@ DB 00H				; `string'
CONST	ENDS
;	COMDAT xdata$x
xdata$x	SEGMENT
__unwindtable$?DoTurn@CvGrandStrategyAI@@QAEXXZ DD 0ffffffffH
	DD	FLAT:__unwindfunclet$?DoTurn@CvGrandStrategyAI@@QAEXXZ$0
	DD	00H
	DD	FLAT:__unwindfunclet$?DoTurn@CvGrandStrategyAI@@QAEXXZ$1
	DD	00H
	DD	FLAT:__unwindfunclet$?DoTurn@CvGrandStrategyAI@@QAEXXZ$2
	DD	02H
	DD	FLAT:__unwindfunclet$?DoTurn@CvGrandStrategyAI@@QAEXXZ$3
__ehfuncinfo$?DoTurn@CvGrandStrategyAI@@QAEXXZ DD 019930522H
	DD	04H
	DD	FLAT:__unwindtable$?DoTurn@CvGrandStrategyAI@@QAEXXZ
	DD	2 DUP(00H)
	DD	2 DUP(00H)
	DD	00H
	DD	01H
; Function compile flags: /Odtp
; File d:\sources\lekmod_git\checkout\lekmod_dll\cvgamecoredll_expansion2\cvgrandstrategyai.cpp
xdata$x	ENDS
;	COMDAT ?DoTurn@CvGrandStrategyAI@@QAEXXZ
_TEXT	SEGMENT
tv338 = -304						; size = 4
_this$ = -300						; size = 4
$T226558 = -272						; size = 4
$T226544 = -264						; size = 4
$T226509 = -240						; size = 4
$T226505 = -236						; size = 4
$T226504 = -232						; size = 4
$T226495 = -228						; size = 4
$T226486 = -224						; size = 4
$T226482 = -217						; size = 1
$T226473 = -216						; size = 4
$T226469 = -212						; size = 4
$T226465 = -208						; size = 4
$T226461 = -204						; size = 4
$T226453 = -200						; size = 4
$T226441 = -196						; size = 4
$T226429 = -192						; size = 4
$T226428 = -188						; size = 28
_iPriority$223849 = -160				; size = 4
_iBestPriority$223848 = -156				; size = 4
_eBestGrandStrategy$223850 = -152			; size = 4
_iPriority$223735 = -148				; size = 4
_viNumGrandStrategiesAdopted$ = -144			; size = 36
_iNumPlayers$ = -108					; size = 4
_iGrandStrategiesLoop$ = -104				; size = 4
_eGrandStrategy$ = -100					; size = 4
_iMajorLoop$ = -96					; size = 4
_iChange$ = -92						; size = 4
_viGrandStrategyChangeForLogging$ = -88			; size = 36
_strGrandStrategyName$ = -52				; size = 28
__$ArrayPad$ = -24					; size = 4
_pGrandStrategy$ = -20					; size = 4
_iNumPlayersAliveAndMet$ = -16				; size = 4
__$EHRec$ = -12						; size = 12
?DoTurn@CvGrandStrategyAI@@QAEXXZ PROC			; CvGrandStrategyAI::DoTurn, COMDAT
; _this$ = ecx

; 288  : {

	push	ebp
	mov	ebp, esp
	push	-1
	push	__ehhandler$?DoTurn@CvGrandStrategyAI@@QAEXXZ
	mov	eax, DWORD PTR fs:0
	push	eax
	sub	esp, 292				; 00000124H
	mov	eax, DWORD PTR ___security_cookie
	xor	eax, ebp
	mov	DWORD PTR __$ArrayPad$[ebp], eax
	push	eax
	lea	eax, DWORD PTR __$EHRec$[ebp]
	mov	DWORD PTR fs:0, eax
	mov	DWORD PTR _this$[ebp], ecx

; 289  : 	DoGuessOtherPlayersActiveGrandStrategy();

	mov	ecx, DWORD PTR _this$[ebp]
	call	?DoGuessOtherPlayersActiveGrandStrategy@CvGrandStrategyAI@@QAEXXZ ; CvGrandStrategyAI::DoGuessOtherPlayersActiveGrandStrategy

; 290  : 
; 291  : #ifdef AUI_GS_FIX_NO_ACTIVE_GS_FOR_HUMANS
; 292  : 	if (GetPlayer()->isHuman())
; 293  : 		return;
; 294  : #endif
; 295  : 
; 296  : #ifdef AUI_WARNING_FIXES
; 297  : 	uint iGrandStrategiesLoop;
; 298  : #else
; 299  : 	int iGrandStrategiesLoop;
; 300  : #endif
; 301  : 	AIGrandStrategyTypes eGrandStrategy;
; 302  : 	CvAIGrandStrategyXMLEntry* pGrandStrategy;
; 303  : 	CvString strGrandStrategyName;

	lea	ecx, DWORD PTR _strGrandStrategyName$[ebp]
	call	DWORD PTR __imp_??0?$basic_string@DU?$char_traits@D@std@@V?$allocator@D@2@@std@@QAE@XZ
	mov	DWORD PTR __$EHRec$[ebp+8], 0

; 304  : 
; 305  : 	// Loop through all GrandStrategies to set their Priorities
; 306  : 	for(iGrandStrategiesLoop = 0; iGrandStrategiesLoop < GetAIGrandStrategies()->GetNumAIGrandStrategies(); iGrandStrategiesLoop++)

	mov	DWORD PTR _iGrandStrategiesLoop$[ebp], 0
	jmp	SHORT $LN33@DoTurn
$LN32@DoTurn:
	mov	eax, DWORD PTR _iGrandStrategiesLoop$[ebp]
	add	eax, 1
	mov	DWORD PTR _iGrandStrategiesLoop$[ebp], eax
$LN33@DoTurn:
	mov	ecx, DWORD PTR _this$[ebp]
	call	?GetAIGrandStrategies@CvGrandStrategyAI@@QAEPAVCvAIGrandStrategyXMLEntries@@XZ ; CvGrandStrategyAI::GetAIGrandStrategies
	mov	ecx, eax
	call	?GetNumAIGrandStrategies@CvAIGrandStrategyXMLEntries@@QAEHXZ ; CvAIGrandStrategyXMLEntries::GetNumAIGrandStrategies
	cmp	DWORD PTR _iGrandStrategiesLoop$[ebp], eax
	jge	$LN31@DoTurn

; 307  : 	{
; 308  : 		eGrandStrategy = (AIGrandStrategyTypes) iGrandStrategiesLoop;

	mov	ecx, DWORD PTR _iGrandStrategiesLoop$[ebp]
	mov	DWORD PTR _eGrandStrategy$[ebp], ecx

; 309  : 		pGrandStrategy = GetAIGrandStrategies()->GetEntry(iGrandStrategiesLoop);

	mov	edx, DWORD PTR _iGrandStrategiesLoop$[ebp]
	push	edx
	mov	ecx, DWORD PTR _this$[ebp]
	call	?GetAIGrandStrategies@CvGrandStrategyAI@@QAEPAVCvAIGrandStrategyXMLEntries@@XZ ; CvGrandStrategyAI::GetAIGrandStrategies
	mov	ecx, eax
	call	?GetEntry@CvAIGrandStrategyXMLEntries@@QAEPAVCvAIGrandStrategyXMLEntry@@H@Z ; CvAIGrandStrategyXMLEntries::GetEntry
	mov	DWORD PTR _pGrandStrategy$[ebp], eax

; 310  : 		strGrandStrategyName = (CvString) pGrandStrategy->GetType();

	mov	ecx, DWORD PTR _pGrandStrategy$[ebp]
	add	ecx, 176				; 000000b0H
	call	DWORD PTR __imp_?c_str@?$basic_string@DU?$char_traits@D@std@@V?$allocator@D@2@@std@@QBEPBDXZ
	mov	DWORD PTR $T226441[ebp], eax
	cmp	DWORD PTR $T226441[ebp], 0
	je	SHORT $LN47@DoTurn
	mov	eax, DWORD PTR $T226441[ebp]
	mov	DWORD PTR tv338[ebp], eax
	jmp	SHORT $LN48@DoTurn
$LN47@DoTurn:
	mov	DWORD PTR tv338[ebp], OFFSET ??_C@_00CNPNBAHC@?$AA@
$LN48@DoTurn:
	mov	ecx, DWORD PTR tv338[ebp]
	push	ecx
	lea	ecx, DWORD PTR $T226428[ebp]
	call	DWORD PTR __imp_??0?$basic_string@DU?$char_traits@D@std@@V?$allocator@D@2@@std@@QAE@PBD@Z
	lea	edx, DWORD PTR $T226428[ebp]
	mov	DWORD PTR $T226453[ebp], edx
	mov	BYTE PTR __$EHRec$[ebp+8], 1
	mov	eax, DWORD PTR $T226453[ebp]
	push	eax
	lea	ecx, DWORD PTR _strGrandStrategyName$[ebp]
	call	DWORD PTR __imp_??4?$basic_string@DU?$char_traits@D@std@@V?$allocator@D@2@@std@@QAEAAV01@ABV01@@Z
	mov	BYTE PTR __$EHRec$[ebp+8], 0
	lea	ecx, DWORD PTR $T226428[ebp]
	call	DWORD PTR __imp_??1?$basic_string@DU?$char_traits@D@std@@V?$allocator@D@2@@std@@QAE@XZ

; 311  : 
; 312  : 		// Base Priority looks at Personality Flavors (0 - 10) and multiplies * the Flavors attached to a Grand Strategy (0-10),
; 313  : 		// so expect a number between 0 and 100 back from this
; 314  : 		int iPriority = GetBaseGrandStrategyPriority(eGrandStrategy);

	mov	ecx, DWORD PTR _eGrandStrategy$[ebp]
	push	ecx
	mov	ecx, DWORD PTR _this$[ebp]
	call	?GetBaseGrandStrategyPriority@CvGrandStrategyAI@@QAEHW4AIGrandStrategyTypes@@@Z ; CvGrandStrategyAI::GetBaseGrandStrategyPriority
	mov	DWORD PTR _iPriority$223735[ebp], eax

; 315  : 
; 316  : 		if(strGrandStrategyName == "AIGRANDSTRATEGY_CONQUEST")

	push	OFFSET ??_C@_0BJ@GCKPAHPE@AIGRANDSTRATEGY_CONQUEST?$AA@
	lea	edx, DWORD PTR _strGrandStrategyName$[ebp]
	push	edx
	call	DWORD PTR __imp_??$?8DU?$char_traits@D@std@@V?$allocator@D@1@@std@@YA_NABV?$basic_string@DU?$char_traits@D@std@@V?$allocator@D@2@@0@PBD@Z
	add	esp, 8
	movzx	eax, al
	test	eax, eax
	je	SHORT $LN30@DoTurn

; 317  : 		{
; 318  : 			iPriority += GetConquestPriority();

	mov	ecx, DWORD PTR _this$[ebp]
	call	?GetConquestPriority@CvGrandStrategyAI@@QAEHXZ ; CvGrandStrategyAI::GetConquestPriority
	add	eax, DWORD PTR _iPriority$223735[ebp]
	mov	DWORD PTR _iPriority$223735[ebp], eax
	jmp	$LN29@DoTurn
$LN30@DoTurn:

; 319  : 		}
; 320  : 		else if(strGrandStrategyName == "AIGRANDSTRATEGY_CULTURE")

	push	OFFSET ??_C@_0BI@FNGLFDGI@AIGRANDSTRATEGY_CULTURE?$AA@
	lea	ecx, DWORD PTR _strGrandStrategyName$[ebp]
	push	ecx
	call	DWORD PTR __imp_??$?8DU?$char_traits@D@std@@V?$allocator@D@1@@std@@YA_NABV?$basic_string@DU?$char_traits@D@std@@V?$allocator@D@2@@0@PBD@Z
	add	esp, 8
	movzx	edx, al
	test	edx, edx
	je	SHORT $LN28@DoTurn

; 321  : 		{
; 322  : 			iPriority += GetCulturePriority();

	mov	ecx, DWORD PTR _this$[ebp]
	call	?GetCulturePriority@CvGrandStrategyAI@@QAEHXZ ; CvGrandStrategyAI::GetCulturePriority
	add	eax, DWORD PTR _iPriority$223735[ebp]
	mov	DWORD PTR _iPriority$223735[ebp], eax
	jmp	SHORT $LN29@DoTurn
$LN28@DoTurn:

; 323  : 		}
; 324  : 		else if(strGrandStrategyName == "AIGRANDSTRATEGY_UNITED_NATIONS")

	push	OFFSET ??_C@_0BP@DOCBNDKB@AIGRANDSTRATEGY_UNITED_NATIONS?$AA@
	lea	eax, DWORD PTR _strGrandStrategyName$[ebp]
	push	eax
	call	DWORD PTR __imp_??$?8DU?$char_traits@D@std@@V?$allocator@D@1@@std@@YA_NABV?$basic_string@DU?$char_traits@D@std@@V?$allocator@D@2@@0@PBD@Z
	add	esp, 8
	movzx	ecx, al
	test	ecx, ecx
	je	SHORT $LN26@DoTurn

; 325  : 		{
; 326  : 			iPriority += GetUnitedNationsPriority();

	mov	ecx, DWORD PTR _this$[ebp]
	call	?GetUnitedNationsPriority@CvGrandStrategyAI@@QAEHXZ ; CvGrandStrategyAI::GetUnitedNationsPriority
	add	eax, DWORD PTR _iPriority$223735[ebp]
	mov	DWORD PTR _iPriority$223735[ebp], eax
	jmp	SHORT $LN29@DoTurn
$LN26@DoTurn:

; 327  : 		}
; 328  : 		else if(strGrandStrategyName == "AIGRANDSTRATEGY_SPACESHIP")

	push	OFFSET ??_C@_0BK@CCPNHFB@AIGRANDSTRATEGY_SPACESHIP?$AA@
	lea	edx, DWORD PTR _strGrandStrategyName$[ebp]
	push	edx
	call	DWORD PTR __imp_??$?8DU?$char_traits@D@std@@V?$allocator@D@1@@std@@YA_NABV?$basic_string@DU?$char_traits@D@std@@V?$allocator@D@2@@0@PBD@Z
	add	esp, 8
	movzx	eax, al
	test	eax, eax
	je	SHORT $LN29@DoTurn

; 329  : 		{
; 330  : 			iPriority += GetSpaceshipPriority();

	mov	ecx, DWORD PTR _this$[ebp]
	call	?GetSpaceshipPriority@CvGrandStrategyAI@@QAEHXZ ; CvGrandStrategyAI::GetSpaceshipPriority
	add	eax, DWORD PTR _iPriority$223735[ebp]
	mov	DWORD PTR _iPriority$223735[ebp], eax
$LN29@DoTurn:

; 331  : 		}
; 332  : 
; 333  : 		// Random element
; 334  : 		iPriority += GC.getGame().getJonRandNum(/*50*/ GC.getAI_GS_RAND_ROLL(), "Grand Strategy AI: GS rand roll.");

	mov	ecx, DWORD PTR ?gGlobals@@3VCvGlobals@@A+1896
	mov	DWORD PTR $T226461[ebp], ecx
	mov	edx, DWORD PTR ?gGlobals@@3VCvGlobals@@A+48
	mov	DWORD PTR $T226465[ebp], edx
	push	OFFSET ??_C@_0CB@KGJPFAEG@Grand?5Strategy?5AI?3?5GS?5rand?5roll?4@
	mov	eax, DWORD PTR $T226461[ebp]
	push	eax
	mov	ecx, DWORD PTR $T226465[ebp]
	call	?getJonRandNum@CvGame@@QAEHHPBD@Z	; CvGame::getJonRandNum
	add	eax, DWORD PTR _iPriority$223735[ebp]
	mov	DWORD PTR _iPriority$223735[ebp], eax

; 335  : 
; 336  : 		// Give a boost to the current strategy so that small fluctuation doesn't cause a big change
; 337  : 		if(GetActiveGrandStrategy() == eGrandStrategy && GetActiveGrandStrategy() != NO_AIGRANDSTRATEGY)

	mov	ecx, DWORD PTR _this$[ebp]
	call	?GetActiveGrandStrategy@CvGrandStrategyAI@@QBE?AW4AIGrandStrategyTypes@@XZ ; CvGrandStrategyAI::GetActiveGrandStrategy
	cmp	eax, DWORD PTR _eGrandStrategy$[ebp]
	jne	SHORT $LN23@DoTurn
	mov	ecx, DWORD PTR _this$[ebp]
	call	?GetActiveGrandStrategy@CvGrandStrategyAI@@QBE?AW4AIGrandStrategyTypes@@XZ ; CvGrandStrategyAI::GetActiveGrandStrategy
	cmp	eax, -1
	je	SHORT $LN23@DoTurn

; 338  : 		{
; 339  : 			iPriority += /*50*/ GC.getAI_GRAND_STRATEGY_CURRENT_STRATEGY_WEIGHT();

	mov	ecx, DWORD PTR ?gGlobals@@3VCvGlobals@@A+1900
	mov	DWORD PTR $T226469[ebp], ecx
	mov	edx, DWORD PTR _iPriority$223735[ebp]
	add	edx, DWORD PTR $T226469[ebp]
	mov	DWORD PTR _iPriority$223735[ebp], edx
$LN23@DoTurn:

; 340  : 		}
; 341  : 
; 342  : 		SetGrandStrategyPriority(eGrandStrategy, iPriority);

	mov	eax, DWORD PTR _iPriority$223735[ebp]
	push	eax
	mov	ecx, DWORD PTR _eGrandStrategy$[ebp]
	push	ecx
	mov	ecx, DWORD PTR _this$[ebp]
	call	?SetGrandStrategyPriority@CvGrandStrategyAI@@QAEXW4AIGrandStrategyTypes@@H@Z ; CvGrandStrategyAI::SetGrandStrategyPriority

; 343  : 	}

	jmp	$LN32@DoTurn
$LN31@DoTurn:

; 344  : 
; 345  : 	// Now look at what we think the other players in the game are up to - we might have an opportunity to capitalize somewhere
; 346  : 	int iNumPlayersAliveAndMet = 0;

	mov	DWORD PTR _iNumPlayersAliveAndMet$[ebp], 0

; 347  : 
; 348  : 	int iMajorLoop;
; 349  : 
; 350  : 	for(iMajorLoop = 0; iMajorLoop < MAX_MAJOR_CIVS; iMajorLoop++)

	mov	DWORD PTR _iMajorLoop$[ebp], 0
	jmp	SHORT $LN22@DoTurn
$LN21@DoTurn:
	mov	edx, DWORD PTR _iMajorLoop$[ebp]
	add	edx, 1
	mov	DWORD PTR _iMajorLoop$[ebp], edx
$LN22@DoTurn:
	cmp	DWORD PTR _iMajorLoop$[ebp], 22		; 00000016H
	jge	$LN20@DoTurn

; 351  : 	{
; 352  : 		if(GET_PLAYER((PlayerTypes) iMajorLoop).isAlive())

	mov	eax, DWORD PTR _iMajorLoop$[ebp]
	imul	eax, 63236				; 0000f704H
	add	eax, DWORD PTR ?m_aPlayers@CvPlayerAI@@1PAV1@A ; CvPlayerAI::m_aPlayers
	mov	DWORD PTR $T226473[ebp], eax
	mov	ecx, DWORD PTR $T226473[ebp]
	mov	dl, BYTE PTR [ecx+2256]
	mov	BYTE PTR $T226482[ebp], dl
	movzx	eax, BYTE PTR $T226482[ebp]
	test	eax, eax
	je	$LN19@DoTurn

; 353  : 		{
; 354  : 			if(GET_TEAM(GetPlayer()->getTeam()).isHasMet(GET_PLAYER((PlayerTypes) iMajorLoop).getTeam()))

	mov	ecx, DWORD PTR _iMajorLoop$[ebp]
	imul	ecx, 63236				; 0000f704H
	add	ecx, DWORD PTR ?m_aPlayers@CvPlayerAI@@1PAV1@A ; CvPlayerAI::m_aPlayers
	mov	DWORD PTR $T226486[ebp], ecx
	mov	edx, DWORD PTR $T226486[ebp]
	mov	eax, DWORD PTR [edx+44]
	push	eax
	call	?teamType@CvPreGame@@YA?AW4TeamTypes@@W4PlayerTypes@@@Z ; CvPreGame::teamType
	add	esp, 4
	mov	DWORD PTR $T226495[ebp], eax
	mov	ecx, DWORD PTR _this$[ebp]
	call	?GetPlayer@CvGrandStrategyAI@@QAEPAVCvPlayer@@XZ ; CvGrandStrategyAI::GetPlayer
	mov	DWORD PTR $T226504[ebp], eax
	mov	ecx, DWORD PTR $T226504[ebp]
	mov	edx, DWORD PTR [ecx+44]
	push	edx
	call	?teamType@CvPreGame@@YA?AW4TeamTypes@@W4PlayerTypes@@@Z ; CvPreGame::teamType
	add	esp, 4
	mov	DWORD PTR $T226505[ebp], eax
	mov	eax, DWORD PTR $T226505[ebp]
	imul	eax, 2984				; 00000ba8H
	add	eax, DWORD PTR ?m_aTeams@CvTeam@@1PAV1@A ; CvTeam::m_aTeams
	mov	DWORD PTR $T226509[ebp], eax
	mov	ecx, DWORD PTR $T226495[ebp]
	push	ecx
	mov	ecx, DWORD PTR $T226509[ebp]
	call	?isHasMet@CvTeam@@QBE_NW4TeamTypes@@@Z	; CvTeam::isHasMet
	movzx	edx, al
	test	edx, edx
	je	SHORT $LN19@DoTurn

; 355  : 			{
; 356  : 				iNumPlayersAliveAndMet++;

	mov	eax, DWORD PTR _iNumPlayersAliveAndMet$[ebp]
	add	eax, 1
	mov	DWORD PTR _iNumPlayersAliveAndMet$[ebp], eax
$LN19@DoTurn:

; 357  : 			}
; 358  : 		}
; 359  : 	}

	jmp	$LN21@DoTurn
$LN20@DoTurn:

; 360  : 
; 361  : 	FStaticVector< int, 5, true, c_eCiv5GameplayDLL > viNumGrandStrategiesAdopted;

	lea	ecx, DWORD PTR _viNumGrandStrategiesAdopted$[ebp]
	call	??0?$FStaticVector@H$04$00$0BCJ@$0A@@@QAE@XZ ; FStaticVector<int,5,1,297,0>::FStaticVector<int,5,1,297,0>
	mov	BYTE PTR __$EHRec$[ebp+8], 2

; 362  : 	int iNumPlayers;
; 363  : 
; 364  : 	// Init vector
; 365  : 	for(iGrandStrategiesLoop = 0; iGrandStrategiesLoop < GetAIGrandStrategies()->GetNumAIGrandStrategies(); iGrandStrategiesLoop++)

	mov	DWORD PTR _iGrandStrategiesLoop$[ebp], 0
	jmp	SHORT $LN17@DoTurn
$LN16@DoTurn:
	mov	ecx, DWORD PTR _iGrandStrategiesLoop$[ebp]
	add	ecx, 1
	mov	DWORD PTR _iGrandStrategiesLoop$[ebp], ecx
$LN17@DoTurn:
	mov	ecx, DWORD PTR _this$[ebp]
	call	?GetAIGrandStrategies@CvGrandStrategyAI@@QAEPAVCvAIGrandStrategyXMLEntries@@XZ ; CvGrandStrategyAI::GetAIGrandStrategies
	mov	ecx, eax
	call	?GetNumAIGrandStrategies@CvAIGrandStrategyXMLEntries@@QAEHXZ ; CvAIGrandStrategyXMLEntries::GetNumAIGrandStrategies
	cmp	DWORD PTR _iGrandStrategiesLoop$[ebp], eax
	jge	SHORT $LN15@DoTurn

; 366  : 	{
; 367  : 		iNumPlayers = 0;

	mov	DWORD PTR _iNumPlayers$[ebp], 0

; 368  : 
; 369  : 		// Tally up how many players we think are pusuing each Grand Strategy
; 370  : 		for(iMajorLoop = 0; iMajorLoop < MAX_MAJOR_CIVS; iMajorLoop++)

	mov	DWORD PTR _iMajorLoop$[ebp], 0
	jmp	SHORT $LN14@DoTurn
$LN13@DoTurn:
	mov	edx, DWORD PTR _iMajorLoop$[ebp]
	add	edx, 1
	mov	DWORD PTR _iMajorLoop$[ebp], edx
$LN14@DoTurn:
	cmp	DWORD PTR _iMajorLoop$[ebp], 22		; 00000016H
	jge	SHORT $LN12@DoTurn

; 371  : 		{
; 372  : 			if(GetGuessOtherPlayerActiveGrandStrategy((PlayerTypes) iMajorLoop) == (AIGrandStrategyTypes) iGrandStrategiesLoop)

	mov	eax, DWORD PTR _iMajorLoop$[ebp]
	push	eax
	mov	ecx, DWORD PTR _this$[ebp]
	call	?GetGuessOtherPlayerActiveGrandStrategy@CvGrandStrategyAI@@QBE?AW4AIGrandStrategyTypes@@W4PlayerTypes@@@Z ; CvGrandStrategyAI::GetGuessOtherPlayerActiveGrandStrategy
	cmp	eax, DWORD PTR _iGrandStrategiesLoop$[ebp]
	jne	SHORT $LN11@DoTurn

; 373  : 			{
; 374  : 				iNumPlayers++;

	mov	ecx, DWORD PTR _iNumPlayers$[ebp]
	add	ecx, 1
	mov	DWORD PTR _iNumPlayers$[ebp], ecx
$LN11@DoTurn:

; 375  : 			}
; 376  : 		}

	jmp	SHORT $LN13@DoTurn
$LN12@DoTurn:

; 377  : 
; 378  : 		viNumGrandStrategiesAdopted.push_back(iNumPlayers);

	lea	edx, DWORD PTR _iNumPlayers$[ebp]
	push	edx
	lea	ecx, DWORD PTR _viNumGrandStrategiesAdopted$[ebp]
	call	?push_back@?$FStaticVector@H$04$00$0BCJ@$0A@@@QAEIABH@Z ; FStaticVector<int,5,1,297,0>::push_back

; 379  : 	}

	jmp	SHORT $LN16@DoTurn
$LN15@DoTurn:

; 380  : 
; 381  : 	FStaticVector< int, 5, true, c_eCiv5GameplayDLL > viGrandStrategyChangeForLogging;

	lea	ecx, DWORD PTR _viGrandStrategyChangeForLogging$[ebp]
	call	??0?$FStaticVector@H$04$00$0BCJ@$0A@@@QAE@XZ ; FStaticVector<int,5,1,297,0>::FStaticVector<int,5,1,297,0>
	mov	BYTE PTR __$EHRec$[ebp+8], 3

; 382  : 
; 383  : 	int iChange;
; 384  : 
; 385  : 	// Now modify our preferences based on how many people are going for stuff
; 386  : 	for(iGrandStrategiesLoop = 0; iGrandStrategiesLoop < GetAIGrandStrategies()->GetNumAIGrandStrategies(); iGrandStrategiesLoop++)

	mov	DWORD PTR _iGrandStrategiesLoop$[ebp], 0
	jmp	SHORT $LN10@DoTurn
$LN9@DoTurn:
	mov	eax, DWORD PTR _iGrandStrategiesLoop$[ebp]
	add	eax, 1
	mov	DWORD PTR _iGrandStrategiesLoop$[ebp], eax
$LN10@DoTurn:
	mov	ecx, DWORD PTR _this$[ebp]
	call	?GetAIGrandStrategies@CvGrandStrategyAI@@QAEPAVCvAIGrandStrategyXMLEntries@@XZ ; CvGrandStrategyAI::GetAIGrandStrategies
	mov	ecx, eax
	call	?GetNumAIGrandStrategies@CvAIGrandStrategyXMLEntries@@QAEHXZ ; CvAIGrandStrategyXMLEntries::GetNumAIGrandStrategies
	cmp	DWORD PTR _iGrandStrategiesLoop$[ebp], eax
	jge	$LN8@DoTurn

; 387  : 	{
; 388  : 		eGrandStrategy = (AIGrandStrategyTypes) iGrandStrategiesLoop;

	mov	ecx, DWORD PTR _iGrandStrategiesLoop$[ebp]
	mov	DWORD PTR _eGrandStrategy$[ebp], ecx

; 389  : 		// If EVERYONE else we know is also going for this Grand Strategy, reduce our Priority by 50%
; 390  : 		iChange = GetGrandStrategyPriority(eGrandStrategy) * /*50*/ GC.getAI_GRAND_STRATEGY_OTHER_PLAYERS_GS_MULTIPLIER();

	mov	edx, DWORD PTR ?gGlobals@@3VCvGlobals@@A+1916
	mov	DWORD PTR $T226544[ebp], edx
	mov	eax, DWORD PTR _eGrandStrategy$[ebp]
	push	eax
	mov	ecx, DWORD PTR _this$[ebp]
	call	?GetGrandStrategyPriority@CvGrandStrategyAI@@QBEHW4AIGrandStrategyTypes@@@Z ; CvGrandStrategyAI::GetGrandStrategyPriority
	imul	eax, DWORD PTR $T226544[ebp]
	mov	DWORD PTR _iChange$[ebp], eax

; 391  : 		iChange = iChange * viNumGrandStrategiesAdopted[eGrandStrategy] / iNumPlayersAliveAndMet;

	mov	ecx, DWORD PTR _eGrandStrategy$[ebp]
	mov	edx, DWORD PTR _viNumGrandStrategiesAdopted$[ebp]
	mov	eax, DWORD PTR _iChange$[ebp]
	imul	eax, DWORD PTR [edx+ecx*4]
	cdq
	idiv	DWORD PTR _iNumPlayersAliveAndMet$[ebp]
	mov	DWORD PTR _iChange$[ebp], eax

; 392  : 		iChange /= 100;

	mov	eax, DWORD PTR _iChange$[ebp]
	cdq
	mov	ecx, 100				; 00000064H
	idiv	ecx
	mov	DWORD PTR _iChange$[ebp], eax

; 393  : 
; 394  : 		ChangeGrandStrategyPriority(eGrandStrategy, -iChange);

	mov	edx, DWORD PTR _iChange$[ebp]
	neg	edx
	push	edx
	mov	eax, DWORD PTR _eGrandStrategy$[ebp]
	push	eax
	mov	ecx, DWORD PTR _this$[ebp]
	call	?ChangeGrandStrategyPriority@CvGrandStrategyAI@@QAEXW4AIGrandStrategyTypes@@H@Z ; CvGrandStrategyAI::ChangeGrandStrategyPriority

; 395  : 
; 396  : 		viGrandStrategyChangeForLogging.push_back(-iChange);

	mov	ecx, DWORD PTR _iChange$[ebp]
	neg	ecx
	mov	DWORD PTR $T226429[ebp], ecx
	lea	edx, DWORD PTR $T226429[ebp]
	push	edx
	lea	ecx, DWORD PTR _viGrandStrategyChangeForLogging$[ebp]
	call	?push_back@?$FStaticVector@H$04$00$0BCJ@$0A@@@QAEIABH@Z ; FStaticVector<int,5,1,297,0>::push_back

; 397  : 	}

	jmp	$LN9@DoTurn
$LN8@DoTurn:

; 398  : 
; 399  : 	ChangeNumTurnsSinceActiveSet(1);

	push	1
	mov	ecx, DWORD PTR _this$[ebp]
	call	?ChangeNumTurnsSinceActiveSet@CvGrandStrategyAI@@QAEXH@Z ; CvGrandStrategyAI::ChangeNumTurnsSinceActiveSet

; 400  : 
; 401  : 	// Now see which Grand Strategy should be active, based on who has the highest Priority right now
; 402  : 	// Grand Strategy must be run for at least 10 turns
; 403  : 	if(GetActiveGrandStrategy() == NO_AIGRANDSTRATEGY || GetNumTurnsSinceActiveSet() >= /*10*/ GC.getAI_GRAND_STRATEGY_NUM_TURNS_STRATEGY_MUST_BE_ACTIVE())

	mov	ecx, DWORD PTR _this$[ebp]
	call	?GetActiveGrandStrategy@CvGrandStrategyAI@@QBE?AW4AIGrandStrategyTypes@@XZ ; CvGrandStrategyAI::GetActiveGrandStrategy
	cmp	eax, -1
	je	SHORT $LN6@DoTurn
	mov	eax, DWORD PTR ?gGlobals@@3VCvGlobals@@A+1892
	mov	DWORD PTR $T226558[ebp], eax
	mov	ecx, DWORD PTR _this$[ebp]
	call	?GetNumTurnsSinceActiveSet@CvGrandStrategyAI@@QBEHXZ ; CvGrandStrategyAI::GetNumTurnsSinceActiveSet
	cmp	eax, DWORD PTR $T226558[ebp]
	jl	$LN7@DoTurn
$LN6@DoTurn:

; 404  : 	{
; 405  : 		int iBestPriority = -1;

	mov	DWORD PTR _iBestPriority$223848[ebp], -1

; 406  : 		int iPriority;
; 407  : 
; 408  : 		AIGrandStrategyTypes eBestGrandStrategy = NO_AIGRANDSTRATEGY;

	mov	DWORD PTR _eBestGrandStrategy$223850[ebp], -1

; 409  : 
; 410  : 		for(iGrandStrategiesLoop = 0; iGrandStrategiesLoop < GetAIGrandStrategies()->GetNumAIGrandStrategies(); iGrandStrategiesLoop++)

	mov	DWORD PTR _iGrandStrategiesLoop$[ebp], 0
	jmp	SHORT $LN5@DoTurn
$LN4@DoTurn:
	mov	ecx, DWORD PTR _iGrandStrategiesLoop$[ebp]
	add	ecx, 1
	mov	DWORD PTR _iGrandStrategiesLoop$[ebp], ecx
$LN5@DoTurn:
	mov	ecx, DWORD PTR _this$[ebp]
	call	?GetAIGrandStrategies@CvGrandStrategyAI@@QAEPAVCvAIGrandStrategyXMLEntries@@XZ ; CvGrandStrategyAI::GetAIGrandStrategies
	mov	ecx, eax
	call	?GetNumAIGrandStrategies@CvAIGrandStrategyXMLEntries@@QAEHXZ ; CvAIGrandStrategyXMLEntries::GetNumAIGrandStrategies
	cmp	DWORD PTR _iGrandStrategiesLoop$[ebp], eax
	jge	SHORT $LN3@DoTurn

; 411  : 		{
; 412  : 			eGrandStrategy = (AIGrandStrategyTypes) iGrandStrategiesLoop;

	mov	edx, DWORD PTR _iGrandStrategiesLoop$[ebp]
	mov	DWORD PTR _eGrandStrategy$[ebp], edx

; 413  : 
; 414  : 			iPriority = GetGrandStrategyPriority(eGrandStrategy);

	mov	eax, DWORD PTR _eGrandStrategy$[ebp]
	push	eax
	mov	ecx, DWORD PTR _this$[ebp]
	call	?GetGrandStrategyPriority@CvGrandStrategyAI@@QBEHW4AIGrandStrategyTypes@@@Z ; CvGrandStrategyAI::GetGrandStrategyPriority
	mov	DWORD PTR _iPriority$223849[ebp], eax

; 415  : 
; 416  : 			if(iPriority > iBestPriority)

	mov	ecx, DWORD PTR _iPriority$223849[ebp]
	cmp	ecx, DWORD PTR _iBestPriority$223848[ebp]
	jle	SHORT $LN2@DoTurn

; 417  : 			{
; 418  : 				iBestPriority = iPriority;

	mov	edx, DWORD PTR _iPriority$223849[ebp]
	mov	DWORD PTR _iBestPriority$223848[ebp], edx

; 419  : 				eBestGrandStrategy = eGrandStrategy;

	mov	eax, DWORD PTR _eGrandStrategy$[ebp]
	mov	DWORD PTR _eBestGrandStrategy$223850[ebp], eax
$LN2@DoTurn:

; 420  : 			}
; 421  : 		}

	jmp	SHORT $LN4@DoTurn
$LN3@DoTurn:

; 422  : 
; 423  : 		if(eBestGrandStrategy != GetActiveGrandStrategy())

	mov	ecx, DWORD PTR _this$[ebp]
	call	?GetActiveGrandStrategy@CvGrandStrategyAI@@QBE?AW4AIGrandStrategyTypes@@XZ ; CvGrandStrategyAI::GetActiveGrandStrategy
	cmp	DWORD PTR _eBestGrandStrategy$223850[ebp], eax
	je	SHORT $LN7@DoTurn

; 424  : 		{
; 425  : 			SetActiveGrandStrategy(eBestGrandStrategy);

	mov	ecx, DWORD PTR _eBestGrandStrategy$223850[ebp]
	push	ecx
	mov	ecx, DWORD PTR _this$[ebp]
	call	?SetActiveGrandStrategy@CvGrandStrategyAI@@QAEXW4AIGrandStrategyTypes@@@Z ; CvGrandStrategyAI::SetActiveGrandStrategy

; 426  : 			m_pPlayer->GetCitySpecializationAI()->SetSpecializationsDirty(SPECIALIZATION_UPDATE_NEW_GRAND_STRATEGY);

	push	0
	mov	edx, DWORD PTR _this$[ebp]
	mov	ecx, DWORD PTR [edx]
	call	?GetCitySpecializationAI@CvPlayer@@QBEPAVCvCitySpecializationAI@@XZ ; CvPlayer::GetCitySpecializationAI
	mov	ecx, eax
	call	?SetSpecializationsDirty@CvCitySpecializationAI@@QAEXW4CitySpecializationUpdateType@@@Z ; CvCitySpecializationAI::SetSpecializationsDirty
$LN7@DoTurn:

; 427  : 		}
; 428  : 	}
; 429  : 
; 430  : 	LogGrandStrategies(viGrandStrategyChangeForLogging);

	lea	eax, DWORD PTR _viGrandStrategyChangeForLogging$[ebp]
	push	eax
	mov	ecx, DWORD PTR _this$[ebp]
	call	?LogGrandStrategies@CvGrandStrategyAI@@AAEXABV?$FStaticVector@H$04$00$0BCJ@$0A@@@@Z ; CvGrandStrategyAI::LogGrandStrategies

; 431  : }

	mov	BYTE PTR __$EHRec$[ebp+8], 2
	lea	ecx, DWORD PTR _viGrandStrategyChangeForLogging$[ebp]
	call	??1?$FStaticVector@H$04$00$0BCJ@$0A@@@QAE@XZ ; FStaticVector<int,5,1,297,0>::~FStaticVector<int,5,1,297,0>
	mov	BYTE PTR __$EHRec$[ebp+8], 0
	lea	ecx, DWORD PTR _viNumGrandStrategiesAdopted$[ebp]
	call	??1?$FStaticVector@H$04$00$0BCJ@$0A@@@QAE@XZ ; FStaticVector<int,5,1,297,0>::~FStaticVector<int,5,1,297,0>
	mov	DWORD PTR __$EHRec$[ebp+8], -1
	lea	ecx, DWORD PTR _strGrandStrategyName$[ebp]
	call	DWORD PTR __imp_??1?$basic_string@DU?$char_traits@D@std@@V?$allocator@D@2@@std@@QAE@XZ
	mov	ecx, DWORD PTR __$EHRec$[ebp]
	mov	DWORD PTR fs:0, ecx
	pop	ecx
	mov	ecx, DWORD PTR __$ArrayPad$[ebp]
	xor	ecx, ebp
	call	@__security_check_cookie@4
	mov	esp, ebp
	pop	ebp
	ret	0
_TEXT	ENDS
;	COMDAT text$x
text$x	SEGMENT
__unwindfunclet$?DoTurn@CvGrandStrategyAI@@QAEXXZ$0:
	lea	ecx, DWORD PTR _strGrandStrategyName$[ebp]
	jmp	??1CvString@@QAE@XZ			; CvString::~CvString
__unwindfunclet$?DoTurn@CvGrandStrategyAI@@QAEXXZ$1:
	lea	ecx, DWORD PTR $T226428[ebp]
	jmp	??1CvString@@QAE@XZ			; CvString::~CvString
__unwindfunclet$?DoTurn@CvGrandStrategyAI@@QAEXXZ$2:
	lea	ecx, DWORD PTR _viNumGrandStrategiesAdopted$[ebp]
	jmp	??1?$FStaticVector@H$04$00$0BCJ@$0A@@@QAE@XZ ; FStaticVector<int,5,1,297,0>::~FStaticVector<int,5,1,297,0>
__unwindfunclet$?DoTurn@CvGrandStrategyAI@@QAEXXZ$3:
	lea	ecx, DWORD PTR _viGrandStrategyChangeForLogging$[ebp]
	jmp	??1?$FStaticVector@H$04$00$0BCJ@$0A@@@QAE@XZ ; FStaticVector<int,5,1,297,0>::~FStaticVector<int,5,1,297,0>
__ehhandler$?DoTurn@CvGrandStrategyAI@@QAEXXZ:
	mov	edx, DWORD PTR [esp+8]
	lea	eax, DWORD PTR [edx+12]
	mov	ecx, DWORD PTR [edx-296]
	xor	ecx, eax
	call	@__security_check_cookie@4
	mov	ecx, DWORD PTR [edx-12]
	xor	ecx, eax
	call	@__security_check_cookie@4
	mov	eax, OFFSET __ehfuncinfo$?DoTurn@CvGrandStrategyAI@@QAEXXZ
	jmp	___CxxFrameHandler3
text$x	ENDS
?DoTurn@CvGrandStrategyAI@@QAEXXZ ENDP			; CvGrandStrategyAI::DoTurn
PUBLIC	??_C@_0BD@NABBHNHK@VICTORY_DOMINATION?$AA@	; `string'
EXTRN	?getNumNukeUnits@CvPlayer@@QBEHXZ:PROC		; CvPlayer::getNumNukeUnits
EXTRN	?isMinorCiv@CvPlayer@@QBE_NXZ:PROC		; CvPlayer::isMinorCiv
EXTRN	?isOwned@CvPlot@@QBE_NXZ:PROC			; CvPlot::isOwned
EXTRN	?IsCramped@CvPlayer@@QBE_NXZ:PROC		; CvPlayer::IsCramped
EXTRN	?getAtWarCount@CvTeam@@QBEH_N@Z:PROC		; CvTeam::getAtWarCount
EXTRN	?GetMilitaryMight@CvPlayer@@QBEHXZ:PROC		; CvPlayer::GetMilitaryMight
EXTRN	?GetWorldMilitaryStrengthAverage@CvGame@@QAEHW4PlayerTypes@@_N1@Z:PROC ; CvGame::GetWorldMilitaryStrengthAverage
EXTRN	?isMinorCiv@CvTeam@@QBE_NXZ:PROC		; CvTeam::isMinorCiv
EXTRN	?GetID@CvTeam@@QBE?AW4TeamTypes@@XZ:PROC	; CvTeam::GetID
EXTRN	?getElapsedGameTurns@CvGame@@QBEHXZ:PROC	; CvGame::getElapsedGameTurns
EXTRN	?GetCurrentEra@CvPlayer@@QBE?AW4EraTypes@@XZ:PROC ; CvPlayer::GetCurrentEra
EXTRN	?GetBoldness@CvDiplomacyAI@@QBEHXZ:PROC		; CvDiplomacyAI::GetBoldness
EXTRN	?GetPersonalityMajorCivApproachBias@CvDiplomacyAI@@QBEHW4MajorCivApproachTypes@@@Z:PROC ; CvDiplomacyAI::GetPersonalityMajorCivApproachBias
EXTRN	?GetDiplomacyAI@CvPlayer@@QBEPAVCvDiplomacyAI@@XZ:PROC ; CvPlayer::GetDiplomacyAI
EXTRN	?areNoVictoriesValid@CvGame@@QBE_NXZ:PROC	; CvGame::areNoVictoriesValid
EXTRN	?isVictoryValid@CvGame@@QBE_NW4VictoryTypes@@@Z:PROC ; CvGame::isVictoryValid
EXTRN	?getInfoTypeForString@CvGlobals@@QBEHPBD_N@Z:PROC ; CvGlobals::getInfoTypeForString
;	COMDAT ??_C@_0BD@NABBHNHK@VICTORY_DOMINATION?$AA@
; File d:\sources\lekmod_git\checkout\lekmod_dll\cvgamecoredll_expansion2\cvplayerai.h
CONST	SEGMENT
??_C@_0BD@NABBHNHK@VICTORY_DOMINATION?$AA@ DB 'VICTORY_DOMINATION', 00H ; `string'
; Function compile flags: /Odtp
; File d:\sources\lekmod_git\checkout\lekmod_dll\cvgamecoredll_expansion2\cvgrandstrategyai.cpp
CONST	ENDS
;	COMDAT ?GetConquestPriority@CvGrandStrategyAI@@QAEHXZ
_TEXT	SEGMENT
tv146 = -260						; size = 4
tv377 = -256						; size = 4
_this$ = -252						; size = 4
$T226843 = -248						; size = 4
$T226839 = -244						; size = 4
$T226830 = -240						; size = 4
$T226826 = -236						; size = 4
$T226825 = -232						; size = 4
$T226816 = -225						; size = 1
$T226807 = -224						; size = 4
$T226803 = -220						; size = 4
$T226799 = -216						; size = 4
$T226790 = -212						; size = 4
$T226786 = -208						; size = 4
$T226782 = -204						; size = 4
$T226781 = -200						; size = 4
$T226769 = -196						; size = 4
$T226765 = -192						; size = 4
$T226761 = -188						; size = 4
$T226757 = -184						; size = 4
$T226753 = -180						; size = 4
$T226749 = -176						; size = 4
$T226745 = -172						; size = 4
$T226736 = -168						; size = 4
$T226732 = -164						; size = 4
$T226731 = -160						; size = 4
$T226722 = -153						; size = 1
$T226713 = -152						; size = 4
$T226709 = -148						; size = 4
$T226705 = -144						; size = 4
$T226701 = -140						; size = 4
$T226697 = -136						; size = 4
$T226696 = -132						; size = 4
$T226687 = -128						; size = 4
$T226683 = -124						; size = 4
$T226679 = -120						; size = 4
$T226675 = -116						; size = 4
$T226671 = -112						; size = 4
$T226667 = -108						; size = 4
$T226660 = -104						; size = 4
$T226659 = -100						; size = 4
$T226647 = -96						; size = 4
$T226638 = -92						; size = 4
$T226632 = -88						; size = 4
$T226628 = -84						; size = 4
_ePlayer$223923 = -80					; size = 4
_iMajorLoop$223919 = -76				; size = 4
_iPlotLoop$223908 = -72					; size = 4
_iMajorLoop$223900 = -68				; size = 4
_ePlayer$223896 = -64					; size = 4
_iTotalLandMe$223898 = -60				; size = 4
_iNumPlayersMet$223897 = -56				; size = 4
_iTotalLandPlayersMet$223899 = -52			; size = 4
_iMilitaryRatio$223892 = -48				; size = 4
_iWorldMilitaryStrength$223890 = -44			; size = 4
_iTeamLoop$223880 = -40					; size = 4
_bHasMetMajor$223879 = -33				; size = 1
_iGeneralHostility$ = -32				; size = 4
_iPriority$ = -28					; size = 4
_pTeam$ = -24						; size = 4
_iGeneralApproachModifier$ = -20			; size = 4
_eVictory$ = -16					; size = 4
_iGeneralDeceptiveness$ = -12				; size = 4
_iGeneralWarlikeness$ = -8				; size = 4
_iGeneralFriendliness$ = -4				; size = 4
?GetConquestPriority@CvGrandStrategyAI@@QAEHXZ PROC	; CvGrandStrategyAI::GetConquestPriority, COMDAT
; _this$ = ecx

; 439  : {

	push	ebp
	mov	ebp, esp
	sub	esp, 260				; 00000104H
	push	esi
	mov	DWORD PTR _this$[ebp], ecx

; 440  : 	int iPriority = 0;

	mov	DWORD PTR _iPriority$[ebp], 0

; 441  : 
; 442  : 	// If Conquest Victory isn't even available then don't bother with anything
; 443  : 	VictoryTypes eVictory = (VictoryTypes) GC.getInfoTypeForString("VICTORY_DOMINATION", true);

	push	1
	push	OFFSET ??_C@_0BD@NABBHNHK@VICTORY_DOMINATION?$AA@
	mov	ecx, OFFSET ?gGlobals@@3VCvGlobals@@A	; gGlobals
	call	?getInfoTypeForString@CvGlobals@@QBEHPBD_N@Z ; CvGlobals::getInfoTypeForString
	mov	DWORD PTR _eVictory$[ebp], eax

; 444  : 	if(eVictory == NO_VICTORY || !GC.getGame().isVictoryValid(eVictory))

	cmp	DWORD PTR _eVictory$[ebp], -1
	je	SHORT $LN36@GetConques
	mov	eax, DWORD PTR ?gGlobals@@3VCvGlobals@@A+48
	mov	DWORD PTR $T226628[ebp], eax
	mov	ecx, DWORD PTR _eVictory$[ebp]
	push	ecx
	mov	ecx, DWORD PTR $T226628[ebp]
	call	?isVictoryValid@CvGame@@QBE_NW4VictoryTypes@@@Z ; CvGame::isVictoryValid
	movzx	edx, al
	test	edx, edx
	jne	SHORT $LN37@GetConques
$LN36@GetConques:

; 445  : 	{
; 446  : 		if(!GC.getGame().areNoVictoriesValid())

	mov	eax, DWORD PTR ?gGlobals@@3VCvGlobals@@A+48
	mov	DWORD PTR $T226632[ebp], eax
	mov	ecx, DWORD PTR $T226632[ebp]
	call	?areNoVictoriesValid@CvGame@@QBE_NXZ	; CvGame::areNoVictoriesValid
	movzx	ecx, al
	test	ecx, ecx
	jne	SHORT $LN37@GetConques

; 447  : 		{
; 448  : 			return -100;

	mov	eax, -100				; ffffff9cH
	jmp	$LN38@GetConques
$LN37@GetConques:

; 449  : 		}
; 450  : 	}
; 451  : 
; 452  : 	int iGeneralWarlikeness = GetPlayer()->GetDiplomacyAI()->GetPersonalityMajorCivApproachBias(MAJOR_CIV_APPROACH_WAR);

	push	0
	mov	ecx, DWORD PTR _this$[ebp]
	call	?GetPlayer@CvGrandStrategyAI@@QAEPAVCvPlayer@@XZ ; CvGrandStrategyAI::GetPlayer
	mov	ecx, eax
	call	?GetDiplomacyAI@CvPlayer@@QBEPAVCvDiplomacyAI@@XZ ; CvPlayer::GetDiplomacyAI
	mov	ecx, eax
	call	?GetPersonalityMajorCivApproachBias@CvDiplomacyAI@@QBEHW4MajorCivApproachTypes@@@Z ; CvDiplomacyAI::GetPersonalityMajorCivApproachBias
	mov	DWORD PTR _iGeneralWarlikeness$[ebp], eax

; 453  : 	int iGeneralHostility = GetPlayer()->GetDiplomacyAI()->GetPersonalityMajorCivApproachBias(MAJOR_CIV_APPROACH_HOSTILE);

	push	1
	mov	ecx, DWORD PTR _this$[ebp]
	call	?GetPlayer@CvGrandStrategyAI@@QAEPAVCvPlayer@@XZ ; CvGrandStrategyAI::GetPlayer
	mov	ecx, eax
	call	?GetDiplomacyAI@CvPlayer@@QBEPAVCvDiplomacyAI@@XZ ; CvPlayer::GetDiplomacyAI
	mov	ecx, eax
	call	?GetPersonalityMajorCivApproachBias@CvDiplomacyAI@@QBEHW4MajorCivApproachTypes@@@Z ; CvDiplomacyAI::GetPersonalityMajorCivApproachBias
	mov	DWORD PTR _iGeneralHostility$[ebp], eax

; 454  : 	int iGeneralDeceptiveness = GetPlayer()->GetDiplomacyAI()->GetPersonalityMajorCivApproachBias(MAJOR_CIV_APPROACH_DECEPTIVE);

	push	2
	mov	ecx, DWORD PTR _this$[ebp]
	call	?GetPlayer@CvGrandStrategyAI@@QAEPAVCvPlayer@@XZ ; CvGrandStrategyAI::GetPlayer
	mov	ecx, eax
	call	?GetDiplomacyAI@CvPlayer@@QBEPAVCvDiplomacyAI@@XZ ; CvPlayer::GetDiplomacyAI
	mov	ecx, eax
	call	?GetPersonalityMajorCivApproachBias@CvDiplomacyAI@@QBEHW4MajorCivApproachTypes@@@Z ; CvDiplomacyAI::GetPersonalityMajorCivApproachBias
	mov	DWORD PTR _iGeneralDeceptiveness$[ebp], eax

; 455  : 	int iGeneralFriendliness = GetPlayer()->GetDiplomacyAI()->GetPersonalityMajorCivApproachBias(MAJOR_CIV_APPROACH_FRIENDLY);

	push	5
	mov	ecx, DWORD PTR _this$[ebp]
	call	?GetPlayer@CvGrandStrategyAI@@QAEPAVCvPlayer@@XZ ; CvGrandStrategyAI::GetPlayer
	mov	ecx, eax
	call	?GetDiplomacyAI@CvPlayer@@QBEPAVCvDiplomacyAI@@XZ ; CvPlayer::GetDiplomacyAI
	mov	ecx, eax
	call	?GetPersonalityMajorCivApproachBias@CvDiplomacyAI@@QBEHW4MajorCivApproachTypes@@@Z ; CvDiplomacyAI::GetPersonalityMajorCivApproachBias
	mov	DWORD PTR _iGeneralFriendliness$[ebp], eax

; 456  : 
; 457  : 	int iGeneralApproachModifier = max(max(iGeneralDeceptiveness, iGeneralHostility),iGeneralWarlikeness) - iGeneralFriendliness;

	mov	edx, DWORD PTR _iGeneralDeceptiveness$[ebp]
	cmp	edx, DWORD PTR _iGeneralHostility$[ebp]
	jge	SHORT $LN46@GetConques
	lea	eax, DWORD PTR _iGeneralHostility$[ebp]
	mov	DWORD PTR tv377[ebp], eax
	jmp	SHORT $LN47@GetConques
$LN46@GetConques:
	lea	ecx, DWORD PTR _iGeneralDeceptiveness$[ebp]
	mov	DWORD PTR tv377[ebp], ecx
$LN47@GetConques:
	mov	edx, DWORD PTR tv377[ebp]
	mov	DWORD PTR $T226638[ebp], edx
	mov	eax, DWORD PTR $T226638[ebp]
	mov	ecx, DWORD PTR [eax]
	cmp	ecx, DWORD PTR _iGeneralWarlikeness$[ebp]
	jge	SHORT $LN50@GetConques
	lea	edx, DWORD PTR _iGeneralWarlikeness$[ebp]
	mov	DWORD PTR tv146[ebp], edx
	jmp	SHORT $LN51@GetConques
$LN50@GetConques:
	mov	eax, DWORD PTR $T226638[ebp]
	mov	DWORD PTR tv146[ebp], eax
$LN51@GetConques:
	mov	ecx, DWORD PTR tv146[ebp]
	mov	DWORD PTR $T226647[ebp], ecx
	mov	edx, DWORD PTR $T226647[ebp]
	mov	eax, DWORD PTR [edx]
	sub	eax, DWORD PTR _iGeneralFriendliness$[ebp]
	mov	DWORD PTR _iGeneralApproachModifier$[ebp], eax

; 458  : 	// Boldness gives the base weight for Conquest (no flavors added earlier)
; 459  : 	iPriority += ((GetPlayer()->GetDiplomacyAI()->GetBoldness() + iGeneralApproachModifier) * (12 - m_pPlayer->GetCurrentEra())); // make a little less likely as time goes on

	mov	ecx, DWORD PTR _this$[ebp]
	call	?GetPlayer@CvGrandStrategyAI@@QAEPAVCvPlayer@@XZ ; CvGrandStrategyAI::GetPlayer
	mov	ecx, eax
	call	?GetDiplomacyAI@CvPlayer@@QBEPAVCvDiplomacyAI@@XZ ; CvPlayer::GetDiplomacyAI
	mov	ecx, eax
	call	?GetBoldness@CvDiplomacyAI@@QBEHXZ	; CvDiplomacyAI::GetBoldness
	mov	esi, eax
	add	esi, DWORD PTR _iGeneralApproachModifier$[ebp]
	mov	ecx, DWORD PTR _this$[ebp]
	mov	ecx, DWORD PTR [ecx]
	call	?GetCurrentEra@CvPlayer@@QBE?AW4EraTypes@@XZ ; CvPlayer::GetCurrentEra
	mov	edx, 12					; 0000000cH
	sub	edx, eax
	imul	esi, edx
	add	esi, DWORD PTR _iPriority$[ebp]
	mov	DWORD PTR _iPriority$[ebp], esi

; 460  : 
; 461  : 	CvTeam& pTeam = GET_TEAM(GetPlayer()->getTeam());

	mov	ecx, DWORD PTR _this$[ebp]
	call	?GetPlayer@CvGrandStrategyAI@@QAEPAVCvPlayer@@XZ ; CvGrandStrategyAI::GetPlayer
	mov	DWORD PTR $T226659[ebp], eax
	mov	eax, DWORD PTR $T226659[ebp]
	mov	ecx, DWORD PTR [eax+44]
	push	ecx
	call	?teamType@CvPreGame@@YA?AW4TeamTypes@@W4PlayerTypes@@@Z ; CvPreGame::teamType
	add	esp, 4
	mov	DWORD PTR $T226660[ebp], eax
	mov	edx, DWORD PTR $T226660[ebp]
	imul	edx, 2984				; 00000ba8H
	add	edx, DWORD PTR ?m_aTeams@CvTeam@@1PAV1@A ; CvTeam::m_aTeams
	mov	DWORD PTR _pTeam$[ebp], edx

; 462  : 
; 463  : 	// How many turns must have passed before we test for having met nobody?
; 464  : 	if(GC.getGame().getElapsedGameTurns() >= /*20*/ GC.getAI_GS_CONQUEST_NOBODY_MET_FIRST_TURN())

	mov	eax, DWORD PTR ?gGlobals@@3VCvGlobals@@A+48
	mov	DWORD PTR $T226667[ebp], eax
	mov	ecx, DWORD PTR ?gGlobals@@3VCvGlobals@@A+1920
	mov	DWORD PTR $T226671[ebp], ecx
	mov	ecx, DWORD PTR $T226667[ebp]
	call	?getElapsedGameTurns@CvGame@@QBEHXZ	; CvGame::getElapsedGameTurns
	cmp	eax, DWORD PTR $T226671[ebp]
	jl	SHORT $LN34@GetConques

; 465  : 	{
; 466  : 		// If we haven't met any Major Civs yet, then we probably shouldn't be planning on conquering the world
; 467  : 		bool bHasMetMajor = false;

	mov	BYTE PTR _bHasMetMajor$223879[ebp], 0

; 468  : 
; 469  : 		for(int iTeamLoop = 0; iTeamLoop < MAX_CIV_TEAMS; iTeamLoop++)

	mov	DWORD PTR _iTeamLoop$223880[ebp], 0
	jmp	SHORT $LN33@GetConques
$LN32@GetConques:
	mov	edx, DWORD PTR _iTeamLoop$223880[ebp]
	add	edx, 1
	mov	DWORD PTR _iTeamLoop$223880[ebp], edx
$LN33@GetConques:
	cmp	DWORD PTR _iTeamLoop$223880[ebp], 63	; 0000003fH
	jge	SHORT $LN31@GetConques

; 470  : 		{
; 471  : 			if(pTeam.GetID() != iTeamLoop && !GET_TEAM((TeamTypes) iTeamLoop).isMinorCiv())

	mov	ecx, DWORD PTR _pTeam$[ebp]
	call	?GetID@CvTeam@@QBE?AW4TeamTypes@@XZ	; CvTeam::GetID
	cmp	eax, DWORD PTR _iTeamLoop$223880[ebp]
	je	SHORT $LN30@GetConques
	mov	eax, DWORD PTR _iTeamLoop$223880[ebp]
	imul	eax, 2984				; 00000ba8H
	add	eax, DWORD PTR ?m_aTeams@CvTeam@@1PAV1@A ; CvTeam::m_aTeams
	mov	DWORD PTR $T226675[ebp], eax
	mov	ecx, DWORD PTR $T226675[ebp]
	call	?isMinorCiv@CvTeam@@QBE_NXZ		; CvTeam::isMinorCiv
	movzx	ecx, al
	test	ecx, ecx
	jne	SHORT $LN30@GetConques

; 472  : 			{
; 473  : 				if(pTeam.isHasMet((TeamTypes) iTeamLoop))

	mov	edx, DWORD PTR _iTeamLoop$223880[ebp]
	push	edx
	mov	ecx, DWORD PTR _pTeam$[ebp]
	call	?isHasMet@CvTeam@@QBE_NW4TeamTypes@@@Z	; CvTeam::isHasMet
	movzx	eax, al
	test	eax, eax
	je	SHORT $LN30@GetConques

; 474  : 				{
; 475  : 					bHasMetMajor = true;

	mov	BYTE PTR _bHasMetMajor$223879[ebp], 1

; 476  : 					break;

	jmp	SHORT $LN31@GetConques
$LN30@GetConques:

; 477  : 				}
; 478  : 			}
; 479  : 		}

	jmp	SHORT $LN32@GetConques
$LN31@GetConques:

; 480  : 		if(!bHasMetMajor)

	movzx	ecx, BYTE PTR _bHasMetMajor$223879[ebp]
	test	ecx, ecx
	jne	SHORT $LN34@GetConques

; 481  : 		{
; 482  : 			iPriority += /*-50*/ GC.getAI_GRAND_STRATEGY_CONQUEST_NOBODY_MET_WEIGHT();

	mov	edx, DWORD PTR ?gGlobals@@3VCvGlobals@@A+1924
	mov	DWORD PTR $T226679[ebp], edx
	mov	eax, DWORD PTR _iPriority$[ebp]
	add	eax, DWORD PTR $T226679[ebp]
	mov	DWORD PTR _iPriority$[ebp], eax
$LN34@GetConques:

; 483  : 		}
; 484  : 	}
; 485  : 
; 486  : 	// How many turns must have passed before we test for us having a weak military?
; 487  : 	if(GC.getGame().getElapsedGameTurns() >= /*60*/ GC.getAI_GS_CONQUEST_MILITARY_STRENGTH_FIRST_TURN())

	mov	ecx, DWORD PTR ?gGlobals@@3VCvGlobals@@A+48
	mov	DWORD PTR $T226683[ebp], ecx
	mov	edx, DWORD PTR ?gGlobals@@3VCvGlobals@@A+1932
	mov	DWORD PTR $T226687[ebp], edx
	mov	ecx, DWORD PTR $T226683[ebp]
	call	?getElapsedGameTurns@CvGame@@QBEHXZ	; CvGame::getElapsedGameTurns
	cmp	eax, DWORD PTR $T226687[ebp]
	jl	$LN27@GetConques

; 488  : 	{
; 489  : 		// Compare our military strength to the rest of the world
; 490  : 		int iWorldMilitaryStrength = GC.getGame().GetWorldMilitaryStrengthAverage(GetPlayer()->GetID(), true, true);

	mov	ecx, DWORD PTR _this$[ebp]
	call	?GetPlayer@CvGrandStrategyAI@@QAEPAVCvPlayer@@XZ ; CvGrandStrategyAI::GetPlayer
	mov	DWORD PTR $T226696[ebp], eax
	mov	eax, DWORD PTR $T226696[ebp]
	mov	ecx, DWORD PTR [eax+44]
	mov	DWORD PTR $T226697[ebp], ecx
	mov	edx, DWORD PTR ?gGlobals@@3VCvGlobals@@A+48
	mov	DWORD PTR $T226701[ebp], edx
	push	1
	push	1
	mov	eax, DWORD PTR $T226697[ebp]
	push	eax
	mov	ecx, DWORD PTR $T226701[ebp]
	call	?GetWorldMilitaryStrengthAverage@CvGame@@QAEHW4PlayerTypes@@_N1@Z ; CvGame::GetWorldMilitaryStrengthAverage
	mov	DWORD PTR _iWorldMilitaryStrength$223890[ebp], eax

; 491  : 
; 492  : 		if(iWorldMilitaryStrength > 0)

	cmp	DWORD PTR _iWorldMilitaryStrength$223890[ebp], 0
	jle	SHORT $LN27@GetConques

; 493  : 		{
; 494  : 			int iMilitaryRatio = (GetPlayer()->GetMilitaryMight() - iWorldMilitaryStrength) * /*100*/ GC.getAI_GRAND_STRATEGY_CONQUEST_POWER_RATIO_MULTIPLIER() / iWorldMilitaryStrength;

	mov	ecx, DWORD PTR ?gGlobals@@3VCvGlobals@@A+1936
	mov	DWORD PTR $T226705[ebp], ecx
	mov	ecx, DWORD PTR _this$[ebp]
	call	?GetPlayer@CvGrandStrategyAI@@QAEPAVCvPlayer@@XZ ; CvGrandStrategyAI::GetPlayer
	mov	ecx, eax
	call	?GetMilitaryMight@CvPlayer@@QBEHXZ	; CvPlayer::GetMilitaryMight
	sub	eax, DWORD PTR _iWorldMilitaryStrength$223890[ebp]
	imul	eax, DWORD PTR $T226705[ebp]
	cdq
	idiv	DWORD PTR _iWorldMilitaryStrength$223890[ebp]
	mov	DWORD PTR _iMilitaryRatio$223892[ebp], eax

; 495  : 
; 496  : 			// Make the likelihood of BECOMING a warmonger lower than dropping the bad behavior
; 497  : 			if(iMilitaryRatio > 0)

	cmp	DWORD PTR _iMilitaryRatio$223892[ebp], 0
	jle	SHORT $LN25@GetConques

; 498  : 				iMilitaryRatio /= 2;

	mov	eax, DWORD PTR _iMilitaryRatio$223892[ebp]
	cdq
	sub	eax, edx
	sar	eax, 1
	mov	DWORD PTR _iMilitaryRatio$223892[ebp], eax
$LN25@GetConques:

; 499  : 
; 500  : 			iPriority += iMilitaryRatio;	// This will add between -100 and 100 depending on this player's MilitaryStrength relative the world average. The number will typically be near 0 though, as it's fairly hard to get away from the world average

	mov	edx, DWORD PTR _iPriority$[ebp]
	add	edx, DWORD PTR _iMilitaryRatio$223892[ebp]
	mov	DWORD PTR _iPriority$[ebp], edx
$LN27@GetConques:

; 501  : 		}
; 502  : 	}
; 503  : 
; 504  : 	// If we're at war, then boost the weight a bit
; 505  : 	if(pTeam.getAtWarCount(/*bIgnoreMinors*/ false) > 0)

	push	0
	mov	ecx, DWORD PTR _pTeam$[ebp]
	call	?getAtWarCount@CvTeam@@QBEH_N@Z		; CvTeam::getAtWarCount
	test	eax, eax
	jle	SHORT $LN24@GetConques

; 506  : 	{
; 507  : 		iPriority += /*10*/ GC.getAI_GRAND_STRATEGY_CONQUEST_AT_WAR_WEIGHT();

	mov	eax, DWORD PTR ?gGlobals@@3VCvGlobals@@A+1928
	mov	DWORD PTR $T226709[ebp], eax
	mov	ecx, DWORD PTR _iPriority$[ebp]
	add	ecx, DWORD PTR $T226709[ebp]
	mov	DWORD PTR _iPriority$[ebp], ecx
$LN24@GetConques:

; 508  : 	}
; 509  : 
; 510  : 	// If our neighbors are cramping our style, consider less... scrupulous means of obtaining more land
; 511  : 	if(GetPlayer()->IsCramped())

	mov	ecx, DWORD PTR _this$[ebp]
	call	?GetPlayer@CvGrandStrategyAI@@QAEPAVCvPlayer@@XZ ; CvGrandStrategyAI::GetPlayer
	mov	ecx, eax
	call	?IsCramped@CvPlayer@@QBE_NXZ		; CvPlayer::IsCramped
	movzx	edx, al
	test	edx, edx
	je	$LN23@GetConques

; 512  : 	{
; 513  : 		PlayerTypes ePlayer;
; 514  : 		int iNumPlayersMet = 1;	// Include 1 for me!

	mov	DWORD PTR _iNumPlayersMet$223897[ebp], 1

; 515  : 		int iTotalLandMe = 0;

	mov	DWORD PTR _iTotalLandMe$223898[ebp], 0

; 516  : 		int iTotalLandPlayersMet = 0;

	mov	DWORD PTR _iTotalLandPlayersMet$223899[ebp], 0

; 517  : 
; 518  : 		// Count the number of Majors we know
; 519  : 		for(int iMajorLoop = 0; iMajorLoop < MAX_MAJOR_CIVS; iMajorLoop++)

	mov	DWORD PTR _iMajorLoop$223900[ebp], 0
	jmp	SHORT $LN22@GetConques
$LN21@GetConques:
	mov	eax, DWORD PTR _iMajorLoop$223900[ebp]
	add	eax, 1
	mov	DWORD PTR _iMajorLoop$223900[ebp], eax
$LN22@GetConques:
	cmp	DWORD PTR _iMajorLoop$223900[ebp], 22	; 00000016H
	jge	$LN20@GetConques

; 520  : 		{
; 521  : 			ePlayer = (PlayerTypes) iMajorLoop;

	mov	ecx, DWORD PTR _iMajorLoop$223900[ebp]
	mov	DWORD PTR _ePlayer$223896[ebp], ecx

; 522  : 
; 523  : 			if(GET_PLAYER(ePlayer).isAlive() && iMajorLoop != GetPlayer()->GetID())

	mov	edx, DWORD PTR _ePlayer$223896[ebp]
	imul	edx, 63236				; 0000f704H
	add	edx, DWORD PTR ?m_aPlayers@CvPlayerAI@@1PAV1@A ; CvPlayerAI::m_aPlayers
	mov	DWORD PTR $T226713[ebp], edx
	mov	eax, DWORD PTR $T226713[ebp]
	mov	cl, BYTE PTR [eax+2256]
	mov	BYTE PTR $T226722[ebp], cl
	movzx	edx, BYTE PTR $T226722[ebp]
	test	edx, edx
	je	SHORT $LN19@GetConques
	mov	ecx, DWORD PTR _this$[ebp]
	call	?GetPlayer@CvGrandStrategyAI@@QAEPAVCvPlayer@@XZ ; CvGrandStrategyAI::GetPlayer
	mov	DWORD PTR $T226731[ebp], eax
	mov	eax, DWORD PTR $T226731[ebp]
	mov	ecx, DWORD PTR [eax+44]
	mov	DWORD PTR $T226732[ebp], ecx
	mov	edx, DWORD PTR _iMajorLoop$223900[ebp]
	cmp	edx, DWORD PTR $T226732[ebp]
	je	SHORT $LN19@GetConques

; 524  : 			{
; 525  : 				if(pTeam.isHasMet(GET_PLAYER(ePlayer).getTeam()))

	mov	eax, DWORD PTR _ePlayer$223896[ebp]
	imul	eax, 63236				; 0000f704H
	add	eax, DWORD PTR ?m_aPlayers@CvPlayerAI@@1PAV1@A ; CvPlayerAI::m_aPlayers
	mov	DWORD PTR $T226736[ebp], eax
	mov	ecx, DWORD PTR $T226736[ebp]
	mov	edx, DWORD PTR [ecx+44]
	push	edx
	call	?teamType@CvPreGame@@YA?AW4TeamTypes@@W4PlayerTypes@@@Z ; CvPreGame::teamType
	add	esp, 4
	mov	DWORD PTR $T226745[ebp], eax
	mov	eax, DWORD PTR $T226745[ebp]
	push	eax
	mov	ecx, DWORD PTR _pTeam$[ebp]
	call	?isHasMet@CvTeam@@QBE_NW4TeamTypes@@@Z	; CvTeam::isHasMet
	movzx	ecx, al
	test	ecx, ecx
	je	SHORT $LN19@GetConques

; 526  : 				{
; 527  : 					iNumPlayersMet++;

	mov	edx, DWORD PTR _iNumPlayersMet$223897[ebp]
	add	edx, 1
	mov	DWORD PTR _iNumPlayersMet$223897[ebp], edx
$LN19@GetConques:

; 528  : 				}
; 529  : 			}
; 530  : 		}

	jmp	$LN21@GetConques
$LN20@GetConques:

; 531  : 
; 532  : 		if(iNumPlayersMet > 0)

	cmp	DWORD PTR _iNumPlayersMet$223897[ebp], 0
	jle	$LN23@GetConques

; 533  : 		{
; 534  : 			// Check every plot for ownership
; 535  : #ifdef AUI_WARNING_FIXES
; 536  : 			for (uint iPlotLoop = 0; iPlotLoop < GC.getMap().numPlots(); iPlotLoop++)
; 537  : #else
; 538  : 			for(int iPlotLoop = 0; iPlotLoop < GC.getMap().numPlots(); iPlotLoop++)

	mov	DWORD PTR _iPlotLoop$223908[ebp], 0
	jmp	SHORT $LN16@GetConques
$LN15@GetConques:
	mov	eax, DWORD PTR _iPlotLoop$223908[ebp]
	add	eax, 1
	mov	DWORD PTR _iPlotLoop$223908[ebp], eax
$LN16@GetConques:
	mov	ecx, DWORD PTR ?gGlobals@@3VCvGlobals@@A+52
	mov	DWORD PTR $T226749[ebp], ecx
	mov	edx, DWORD PTR $T226749[ebp]
	mov	eax, DWORD PTR [edx+4028]
	mov	DWORD PTR $T226753[ebp], eax
	mov	ecx, DWORD PTR _iPlotLoop$223908[ebp]
	cmp	ecx, DWORD PTR $T226753[ebp]
	jge	$LN14@GetConques

; 539  : #endif
; 540  : 			{
; 541  : 				if(GC.getMap().plotByIndexUnchecked(iPlotLoop)->isOwned())

	mov	edx, DWORD PTR ?gGlobals@@3VCvGlobals@@A+52
	mov	DWORD PTR $T226757[ebp], edx
	mov	eax, DWORD PTR _iPlotLoop$223908[ebp]
	imul	eax, 484				; 000001e4H
	mov	ecx, DWORD PTR $T226757[ebp]
	add	eax, DWORD PTR [ecx+4068]
	mov	DWORD PTR $T226761[ebp], eax
	mov	ecx, DWORD PTR $T226761[ebp]
	call	?isOwned@CvPlot@@QBE_NXZ		; CvPlot::isOwned
	movzx	edx, al
	test	edx, edx
	je	$LN13@GetConques

; 542  : 				{
; 543  : 					ePlayer = GC.getMap().plotByIndexUnchecked(iPlotLoop)->getOwner();

	mov	eax, DWORD PTR ?gGlobals@@3VCvGlobals@@A+52
	mov	DWORD PTR $T226765[ebp], eax
	mov	ecx, DWORD PTR _iPlotLoop$223908[ebp]
	imul	ecx, 484				; 000001e4H
	mov	edx, DWORD PTR $T226765[ebp]
	add	ecx, DWORD PTR [edx+4068]
	mov	DWORD PTR $T226769[ebp], ecx
	mov	eax, DWORD PTR $T226769[ebp]
	movsx	ecx, BYTE PTR [eax+4]
	mov	DWORD PTR _ePlayer$223896[ebp], ecx

; 544  : 
; 545  : 					if(ePlayer == GetPlayer()->GetID())

	mov	ecx, DWORD PTR _this$[ebp]
	call	?GetPlayer@CvGrandStrategyAI@@QAEPAVCvPlayer@@XZ ; CvGrandStrategyAI::GetPlayer
	mov	DWORD PTR $T226781[ebp], eax
	mov	edx, DWORD PTR $T226781[ebp]
	mov	eax, DWORD PTR [edx+44]
	mov	DWORD PTR $T226782[ebp], eax
	mov	ecx, DWORD PTR _ePlayer$223896[ebp]
	cmp	ecx, DWORD PTR $T226782[ebp]
	jne	SHORT $LN12@GetConques

; 546  : 					{
; 547  : 						iTotalLandPlayersMet++;

	mov	edx, DWORD PTR _iTotalLandPlayersMet$223899[ebp]
	add	edx, 1
	mov	DWORD PTR _iTotalLandPlayersMet$223899[ebp], edx

; 548  : 						iTotalLandMe++;

	mov	eax, DWORD PTR _iTotalLandMe$223898[ebp]
	add	eax, 1
	mov	DWORD PTR _iTotalLandMe$223898[ebp], eax
	jmp	SHORT $LN13@GetConques
$LN12@GetConques:

; 549  : 					}
; 550  : 					else if(!GET_PLAYER(ePlayer).isMinorCiv() && pTeam.isHasMet(GET_PLAYER(ePlayer).getTeam()))

	mov	ecx, DWORD PTR _ePlayer$223896[ebp]
	imul	ecx, 63236				; 0000f704H
	add	ecx, DWORD PTR ?m_aPlayers@CvPlayerAI@@1PAV1@A ; CvPlayerAI::m_aPlayers
	mov	DWORD PTR $T226786[ebp], ecx
	mov	ecx, DWORD PTR $T226786[ebp]
	call	?isMinorCiv@CvPlayer@@QBE_NXZ		; CvPlayer::isMinorCiv
	movzx	edx, al
	test	edx, edx
	jne	SHORT $LN13@GetConques
	mov	eax, DWORD PTR _ePlayer$223896[ebp]
	imul	eax, 63236				; 0000f704H
	add	eax, DWORD PTR ?m_aPlayers@CvPlayerAI@@1PAV1@A ; CvPlayerAI::m_aPlayers
	mov	DWORD PTR $T226790[ebp], eax
	mov	ecx, DWORD PTR $T226790[ebp]
	mov	edx, DWORD PTR [ecx+44]
	push	edx
	call	?teamType@CvPreGame@@YA?AW4TeamTypes@@W4PlayerTypes@@@Z ; CvPreGame::teamType
	add	esp, 4
	mov	DWORD PTR $T226799[ebp], eax
	mov	eax, DWORD PTR $T226799[ebp]
	push	eax
	mov	ecx, DWORD PTR _pTeam$[ebp]
	call	?isHasMet@CvTeam@@QBE_NW4TeamTypes@@@Z	; CvTeam::isHasMet
	movzx	ecx, al
	test	ecx, ecx
	je	SHORT $LN13@GetConques

; 551  : 					{
; 552  : 						iTotalLandPlayersMet++;

	mov	edx, DWORD PTR _iTotalLandPlayersMet$223899[ebp]
	add	edx, 1
	mov	DWORD PTR _iTotalLandPlayersMet$223899[ebp], edx
$LN13@GetConques:

; 553  : 					}
; 554  : 				}
; 555  : 			}

	jmp	$LN15@GetConques
$LN14@GetConques:

; 556  : 
; 557  : 			iTotalLandPlayersMet /= iNumPlayersMet;

	mov	eax, DWORD PTR _iTotalLandPlayersMet$223899[ebp]
	cdq
	idiv	DWORD PTR _iNumPlayersMet$223897[ebp]
	mov	DWORD PTR _iTotalLandPlayersMet$223899[ebp], eax

; 558  : 
; 559  : 			if(iTotalLandMe > 0)

	cmp	DWORD PTR _iTotalLandMe$223898[ebp], 0
	jle	SHORT $LN23@GetConques

; 560  : 			{
; 561  : 				if(iTotalLandPlayersMet / iTotalLandMe > 0)

	mov	eax, DWORD PTR _iTotalLandPlayersMet$223899[ebp]
	cdq
	idiv	DWORD PTR _iTotalLandMe$223898[ebp]
	test	eax, eax
	jle	SHORT $LN23@GetConques

; 562  : 				{
; 563  : 					iPriority += /*20*/ GC.getAI_GRAND_STRATEGY_CONQUEST_CRAMPED_WEIGHT();

	mov	eax, DWORD PTR ?gGlobals@@3VCvGlobals@@A+1940
	mov	DWORD PTR $T226803[ebp], eax
	mov	ecx, DWORD PTR _iPriority$[ebp]
	add	ecx, DWORD PTR $T226803[ebp]
	mov	DWORD PTR _iPriority$[ebp], ecx
$LN23@GetConques:

; 564  : 				}
; 565  : 			}
; 566  : 		}
; 567  : 	}
; 568  : 
; 569  : 	// if we do not have nukes and we know someone else who does...
; 570  : 	if(GetPlayer()->getNumNukeUnits() == 0)

	mov	ecx, DWORD PTR _this$[ebp]
	call	?GetPlayer@CvGrandStrategyAI@@QAEPAVCvPlayer@@XZ ; CvGrandStrategyAI::GetPlayer
	mov	ecx, eax
	call	?getNumNukeUnits@CvPlayer@@QBEHXZ	; CvPlayer::getNumNukeUnits
	test	eax, eax
	jne	$LN7@GetConques

; 571  : 	{
; 572  : 		for(int iMajorLoop = 0; iMajorLoop < MAX_MAJOR_CIVS; iMajorLoop++)

	mov	DWORD PTR _iMajorLoop$223919[ebp], 0
	jmp	SHORT $LN6@GetConques
$LN5@GetConques:
	mov	edx, DWORD PTR _iMajorLoop$223919[ebp]
	add	edx, 1
	mov	DWORD PTR _iMajorLoop$223919[ebp], edx
$LN6@GetConques:
	cmp	DWORD PTR _iMajorLoop$223919[ebp], 22	; 00000016H
	jge	$LN7@GetConques

; 573  : 		{
; 574  : 			PlayerTypes ePlayer = (PlayerTypes) iMajorLoop;

	mov	eax, DWORD PTR _iMajorLoop$223919[ebp]
	mov	DWORD PTR _ePlayer$223923[ebp], eax

; 575  : 
; 576  : 			if(GET_PLAYER(ePlayer).isAlive() && iMajorLoop != GetPlayer()->GetID())

	mov	ecx, DWORD PTR _ePlayer$223923[ebp]
	imul	ecx, 63236				; 0000f704H
	add	ecx, DWORD PTR ?m_aPlayers@CvPlayerAI@@1PAV1@A ; CvPlayerAI::m_aPlayers
	mov	DWORD PTR $T226807[ebp], ecx
	mov	edx, DWORD PTR $T226807[ebp]
	mov	al, BYTE PTR [edx+2256]
	mov	BYTE PTR $T226816[ebp], al
	movzx	ecx, BYTE PTR $T226816[ebp]
	test	ecx, ecx
	je	$LN3@GetConques
	mov	ecx, DWORD PTR _this$[ebp]
	call	?GetPlayer@CvGrandStrategyAI@@QAEPAVCvPlayer@@XZ ; CvGrandStrategyAI::GetPlayer
	mov	DWORD PTR $T226825[ebp], eax
	mov	edx, DWORD PTR $T226825[ebp]
	mov	eax, DWORD PTR [edx+44]
	mov	DWORD PTR $T226826[ebp], eax
	mov	ecx, DWORD PTR _iMajorLoop$223919[ebp]
	cmp	ecx, DWORD PTR $T226826[ebp]
	je	SHORT $LN3@GetConques

; 577  : 			{
; 578  : 				if(pTeam.isHasMet(GET_PLAYER(ePlayer).getTeam()))

	mov	edx, DWORD PTR _ePlayer$223923[ebp]
	imul	edx, 63236				; 0000f704H
	add	edx, DWORD PTR ?m_aPlayers@CvPlayerAI@@1PAV1@A ; CvPlayerAI::m_aPlayers
	mov	DWORD PTR $T226830[ebp], edx
	mov	eax, DWORD PTR $T226830[ebp]
	mov	ecx, DWORD PTR [eax+44]
	push	ecx
	call	?teamType@CvPreGame@@YA?AW4TeamTypes@@W4PlayerTypes@@@Z ; CvPreGame::teamType
	add	esp, 4
	mov	DWORD PTR $T226839[ebp], eax
	mov	edx, DWORD PTR $T226839[ebp]
	push	edx
	mov	ecx, DWORD PTR _pTeam$[ebp]
	call	?isHasMet@CvTeam@@QBE_NW4TeamTypes@@@Z	; CvTeam::isHasMet
	movzx	eax, al
	test	eax, eax
	je	SHORT $LN3@GetConques

; 579  : 				{
; 580  : 					if (GET_PLAYER(ePlayer).getNumNukeUnits() > 0)

	mov	ecx, DWORD PTR _ePlayer$223923[ebp]
	imul	ecx, 63236				; 0000f704H
	add	ecx, DWORD PTR ?m_aPlayers@CvPlayerAI@@1PAV1@A ; CvPlayerAI::m_aPlayers
	mov	DWORD PTR $T226843[ebp], ecx
	mov	ecx, DWORD PTR $T226843[ebp]
	call	?getNumNukeUnits@CvPlayer@@QBEHXZ	; CvPlayer::getNumNukeUnits
	test	eax, eax
	jle	SHORT $LN3@GetConques

; 581  : 					{
; 582  : 						iPriority -= 50; 

	mov	edx, DWORD PTR _iPriority$[ebp]
	sub	edx, 50					; 00000032H
	mov	DWORD PTR _iPriority$[ebp], edx

; 583  : 						break;

	jmp	SHORT $LN7@GetConques
$LN3@GetConques:

; 584  : 					}
; 585  : 				}
; 586  : 			}
; 587  : 		}

	jmp	$LN5@GetConques
$LN7@GetConques:

; 588  : 	}
; 589  : 
; 590  : 	return iPriority;

	mov	eax, DWORD PTR _iPriority$[ebp]
$LN38@GetConques:

; 591  : }

	pop	esi
	mov	esp, ebp
	pop	ebp
	ret	0
?GetConquestPriority@CvGrandStrategyAI@@QAEHXZ ENDP	; CvGrandStrategyAI::GetConquestPriority
_TEXT	ENDS
PUBLIC	??_C@_0P@DAJFKJHO@FLAVOR_CULTURE?$AA@		; `string'
PUBLIC	??_C@_0BB@JOEIKBOM@VICTORY_CULTURAL?$AA@	; `string'
EXTRN	?GetNumCivsInfluentialOn@CvPlayerCulture@@QBEHXZ:PROC ; CvPlayerCulture::GetNumCivsInfluentialOn
EXTRN	?isBarbarian@CvPlayer@@QBE_NXZ:PROC		; CvPlayer::isBarbarian
EXTRN	?GetTourism@CvPlayerCulture@@QAEHXZ:PROC	; CvPlayerCulture::GetTourism
EXTRN	?GetCulture@CvPlayer@@QBEPAVCvPlayerCulture@@XZ:PROC ; CvPlayer::GetCulture
EXTRN	?GetTotalJONSCulturePerTurn@CvPlayer@@QBEHXZ:PROC ; CvPlayer::GetTotalJONSCulturePerTurn
EXTRN	?GetPersonalityIndividualFlavor@CvFlavorManager@@QAEHW4FlavorTypes@@@Z:PROC ; CvFlavorManager::GetPersonalityIndividualFlavor
EXTRN	?GetFlavorManager@CvPlayer@@QBEPAVCvFlavorManager@@XZ:PROC ; CvPlayer::GetFlavorManager
;	COMDAT ??_C@_0P@DAJFKJHO@FLAVOR_CULTURE?$AA@
; File d:\sources\lekmod_git\checkout\lekmod_dll\cvgamecoredll_expansion2\cvglobals.h
CONST	SEGMENT
??_C@_0P@DAJFKJHO@FLAVOR_CULTURE?$AA@ DB 'FLAVOR_CULTURE', 00H ; `string'
CONST	ENDS
;	COMDAT ??_C@_0BB@JOEIKBOM@VICTORY_CULTURAL?$AA@
CONST	SEGMENT
??_C@_0BB@JOEIKBOM@VICTORY_CULTURAL?$AA@ DB 'VICTORY_CULTURAL', 00H ; `string'
; Function compile flags: /Odtp
; File d:\sources\lekmod_git\checkout\lekmod_dll\cvgamecoredll_expansion2\cvgrandstrategyai.cpp
CONST	ENDS
;	COMDAT ?GetCulturePriority@CvGrandStrategyAI@@QAEHXZ
_TEXT	SEGMENT
_this$ = -84						; size = 4
$T226882 = -80						; size = 4
$T226878 = -76						; size = 4
$T226874 = -72						; size = 4
$T226870 = -68						; size = 4
$T226861 = -61						; size = 1
$T226849 = -60						; size = 4
_kPlayer$223953 = -56					; size = 4
_iPlayerLoop$223948 = -52				; size = 4
_iPriority$ = -48					; size = 4
_iFlavorCulture$ = -44					; size = 4
_iNumCivsAlive$ = -40					; size = 4
_iNumInfluential$ = -36					; size = 4
_iOurTourism$ = -32					; size = 4
_eVictory$ = -28					; size = 4
_iNumCivsAheadCulture$ = -24				; size = 4
_eLoopPlayer$ = -20					; size = 4
_iOurCulture$ = -16					; size = 4
_iNumCivsBehindCulture$ = -12				; size = 4
_iNumCivsAheadTourism$ = -8				; size = 4
_iNumCivsBehindTourism$ = -4				; size = 4
?GetCulturePriority@CvGrandStrategyAI@@QAEHXZ PROC	; CvGrandStrategyAI::GetCulturePriority, COMDAT
; _this$ = ecx

; 599  : {

	push	ebp
	mov	ebp, esp
	sub	esp, 84					; 00000054H
	mov	DWORD PTR _this$[ebp], ecx

; 600  : 	int iPriority = 0;

	mov	DWORD PTR _iPriority$[ebp], 0

; 601  : 
; 602  : 	// If Culture Victory isn't even available then don't bother with anything
; 603  : 	VictoryTypes eVictory = (VictoryTypes) GC.getInfoTypeForString("VICTORY_CULTURAL", true);

	push	1
	push	OFFSET ??_C@_0BB@JOEIKBOM@VICTORY_CULTURAL?$AA@
	mov	ecx, OFFSET ?gGlobals@@3VCvGlobals@@A	; gGlobals
	call	?getInfoTypeForString@CvGlobals@@QBEHPBD_N@Z ; CvGlobals::getInfoTypeForString
	mov	DWORD PTR _eVictory$[ebp], eax

; 604  : 	if(eVictory == NO_VICTORY || !GC.getGame().isVictoryValid(eVictory))

	cmp	DWORD PTR _eVictory$[ebp], -1
	je	SHORT $LN11@GetCulture
	mov	eax, DWORD PTR ?gGlobals@@3VCvGlobals@@A+48
	mov	DWORD PTR $T226849[ebp], eax
	mov	ecx, DWORD PTR _eVictory$[ebp]
	push	ecx
	mov	ecx, DWORD PTR $T226849[ebp]
	call	?isVictoryValid@CvGame@@QBE_NW4VictoryTypes@@@Z ; CvGame::isVictoryValid
	movzx	edx, al
	test	edx, edx
	jne	SHORT $LN12@GetCulture
$LN11@GetCulture:

; 605  : 	{
; 606  : 		return -100;

	mov	eax, -100				; ffffff9cH
	jmp	$LN13@GetCulture
$LN12@GetCulture:

; 607  : 	}
; 608  : 
; 609  : 	// Before tourism kicks in, add weight based on flavor
; 610  : 	int iFlavorCulture =  m_pPlayer->GetFlavorManager()->GetPersonalityIndividualFlavor((FlavorTypes)GC.getInfoTypeForString("FLAVOR_CULTURE"));

	push	0
	push	OFFSET ??_C@_0P@DAJFKJHO@FLAVOR_CULTURE?$AA@
	mov	ecx, OFFSET ?gGlobals@@3VCvGlobals@@A	; gGlobals
	call	?getInfoTypeForString@CvGlobals@@QBEHPBD_N@Z ; CvGlobals::getInfoTypeForString
	push	eax
	mov	eax, DWORD PTR _this$[ebp]
	mov	ecx, DWORD PTR [eax]
	call	?GetFlavorManager@CvPlayer@@QBEPAVCvFlavorManager@@XZ ; CvPlayer::GetFlavorManager
	mov	ecx, eax
	call	?GetPersonalityIndividualFlavor@CvFlavorManager@@QAEHW4FlavorTypes@@@Z ; CvFlavorManager::GetPersonalityIndividualFlavor
	mov	DWORD PTR _iFlavorCulture$[ebp], eax

; 611  : 	iPriority += (10 - m_pPlayer->GetCurrentEra()) * iFlavorCulture * 200 / 100;

	mov	ecx, DWORD PTR _this$[ebp]
	mov	ecx, DWORD PTR [ecx]
	call	?GetCurrentEra@CvPlayer@@QBE?AW4EraTypes@@XZ ; CvPlayer::GetCurrentEra
	mov	edx, 10					; 0000000aH
	sub	edx, eax
	imul	edx, DWORD PTR _iFlavorCulture$[ebp]
	imul	edx, 200				; 000000c8H
	mov	eax, edx
	cdq
	mov	ecx, 100				; 00000064H
	idiv	ecx
	add	eax, DWORD PTR _iPriority$[ebp]
	mov	DWORD PTR _iPriority$[ebp], eax

; 612  : 
; 613  : 	// Loop through Players to see how we are doing on Tourism and Culture
; 614  : 	PlayerTypes eLoopPlayer;
; 615  : 	int iOurCulture = m_pPlayer->GetTotalJONSCulturePerTurn();

	mov	edx, DWORD PTR _this$[ebp]
	mov	ecx, DWORD PTR [edx]
	call	?GetTotalJONSCulturePerTurn@CvPlayer@@QBEHXZ ; CvPlayer::GetTotalJONSCulturePerTurn
	mov	DWORD PTR _iOurCulture$[ebp], eax

; 616  : 	int iOurTourism = m_pPlayer->GetCulture()->GetTourism();

	mov	eax, DWORD PTR _this$[ebp]
	mov	ecx, DWORD PTR [eax]
	call	?GetCulture@CvPlayer@@QBEPAVCvPlayerCulture@@XZ ; CvPlayer::GetCulture
	mov	ecx, eax
	call	?GetTourism@CvPlayerCulture@@QAEHXZ	; CvPlayerCulture::GetTourism
	mov	DWORD PTR _iOurTourism$[ebp], eax

; 617  : 	int iNumCivsBehindCulture = 0;

	mov	DWORD PTR _iNumCivsBehindCulture$[ebp], 0

; 618  : 	int iNumCivsAheadCulture = 0;

	mov	DWORD PTR _iNumCivsAheadCulture$[ebp], 0

; 619  : 	int iNumCivsBehindTourism = 0;

	mov	DWORD PTR _iNumCivsBehindTourism$[ebp], 0

; 620  : 	int iNumCivsAheadTourism = 0;

	mov	DWORD PTR _iNumCivsAheadTourism$[ebp], 0

; 621  : 	int iNumCivsAlive = 0;

	mov	DWORD PTR _iNumCivsAlive$[ebp], 0

; 622  : 
; 623  : 	for(int iPlayerLoop = 0; iPlayerLoop < MAX_CIV_PLAYERS; iPlayerLoop++)

	mov	DWORD PTR _iPlayerLoop$223948[ebp], 0
	jmp	SHORT $LN10@GetCulture
$LN9@GetCulture:
	mov	ecx, DWORD PTR _iPlayerLoop$223948[ebp]
	add	ecx, 1
	mov	DWORD PTR _iPlayerLoop$223948[ebp], ecx
$LN10@GetCulture:
	cmp	DWORD PTR _iPlayerLoop$223948[ebp], 63	; 0000003fH
	jge	$LN8@GetCulture

; 624  : 	{
; 625  : 		eLoopPlayer = (PlayerTypes) iPlayerLoop;

	mov	edx, DWORD PTR _iPlayerLoop$223948[ebp]
	mov	DWORD PTR _eLoopPlayer$[ebp], edx

; 626  : 		CvPlayer &kPlayer = GET_PLAYER(eLoopPlayer);

	mov	eax, DWORD PTR _eLoopPlayer$[ebp]
	imul	eax, 63236				; 0000f704H
	add	eax, DWORD PTR ?m_aPlayers@CvPlayerAI@@1PAV1@A ; CvPlayerAI::m_aPlayers
	mov	DWORD PTR _kPlayer$223953[ebp], eax

; 627  : 
; 628  : 		if (kPlayer.isAlive() && !kPlayer.isMinorCiv() && !kPlayer.isBarbarian() && iPlayerLoop != m_pPlayer->GetID())

	mov	ecx, DWORD PTR _kPlayer$223953[ebp]
	mov	dl, BYTE PTR [ecx+2256]
	mov	BYTE PTR $T226861[ebp], dl
	movzx	eax, BYTE PTR $T226861[ebp]
	test	eax, eax
	je	$LN7@GetCulture
	mov	ecx, DWORD PTR _kPlayer$223953[ebp]
	call	?isMinorCiv@CvPlayer@@QBE_NXZ		; CvPlayer::isMinorCiv
	movzx	ecx, al
	test	ecx, ecx
	jne	SHORT $LN7@GetCulture
	mov	ecx, DWORD PTR _kPlayer$223953[ebp]
	call	?isBarbarian@CvPlayer@@QBE_NXZ		; CvPlayer::isBarbarian
	movzx	edx, al
	test	edx, edx
	jne	SHORT $LN7@GetCulture
	mov	eax, DWORD PTR _this$[ebp]
	mov	ecx, DWORD PTR [eax]
	mov	edx, DWORD PTR [ecx+44]
	mov	DWORD PTR $T226870[ebp], edx
	mov	eax, DWORD PTR _iPlayerLoop$223948[ebp]
	cmp	eax, DWORD PTR $T226870[ebp]
	je	SHORT $LN7@GetCulture

; 629  : 		{
; 630  : 			if (iOurCulture > kPlayer.GetTotalJONSCulturePerTurn())

	mov	ecx, DWORD PTR _kPlayer$223953[ebp]
	call	?GetTotalJONSCulturePerTurn@CvPlayer@@QBEHXZ ; CvPlayer::GetTotalJONSCulturePerTurn
	cmp	DWORD PTR _iOurCulture$[ebp], eax
	jle	SHORT $LN6@GetCulture

; 631  : 			{
; 632  : 				iNumCivsAheadCulture++;

	mov	ecx, DWORD PTR _iNumCivsAheadCulture$[ebp]
	add	ecx, 1
	mov	DWORD PTR _iNumCivsAheadCulture$[ebp], ecx

; 633  : 			}
; 634  : 			else

	jmp	SHORT $LN5@GetCulture
$LN6@GetCulture:

; 635  : 			{
; 636  : 				iNumCivsBehindCulture++;

	mov	edx, DWORD PTR _iNumCivsBehindCulture$[ebp]
	add	edx, 1
	mov	DWORD PTR _iNumCivsBehindCulture$[ebp], edx
$LN5@GetCulture:

; 637  : 			}
; 638  : 			if (iOurTourism > kPlayer.GetCulture()->GetTourism())

	mov	ecx, DWORD PTR _kPlayer$223953[ebp]
	call	?GetCulture@CvPlayer@@QBEPAVCvPlayerCulture@@XZ ; CvPlayer::GetCulture
	mov	ecx, eax
	call	?GetTourism@CvPlayerCulture@@QAEHXZ	; CvPlayerCulture::GetTourism
	cmp	DWORD PTR _iOurTourism$[ebp], eax
	jle	SHORT $LN4@GetCulture

; 639  : 			{
; 640  : 				iNumCivsAheadTourism++;

	mov	eax, DWORD PTR _iNumCivsAheadTourism$[ebp]
	add	eax, 1
	mov	DWORD PTR _iNumCivsAheadTourism$[ebp], eax

; 641  : 			}
; 642  : 			else

	jmp	SHORT $LN3@GetCulture
$LN4@GetCulture:

; 643  : 			{
; 644  : 				iNumCivsBehindTourism++;

	mov	ecx, DWORD PTR _iNumCivsBehindTourism$[ebp]
	add	ecx, 1
	mov	DWORD PTR _iNumCivsBehindTourism$[ebp], ecx
$LN3@GetCulture:

; 645  : 			}
; 646  : 			iNumCivsAlive++;

	mov	edx, DWORD PTR _iNumCivsAlive$[ebp]
	add	edx, 1
	mov	DWORD PTR _iNumCivsAlive$[ebp], edx
$LN7@GetCulture:

; 647  : 		}
; 648  : 	}

	jmp	$LN9@GetCulture
$LN8@GetCulture:

; 649  : 
; 650  : 	if (iNumCivsAlive > 0 && iNumCivsAheadCulture > iNumCivsBehindCulture)

	cmp	DWORD PTR _iNumCivsAlive$[ebp], 0
	jle	SHORT $LN2@GetCulture
	mov	eax, DWORD PTR _iNumCivsAheadCulture$[ebp]
	cmp	eax, DWORD PTR _iNumCivsBehindCulture$[ebp]
	jle	SHORT $LN2@GetCulture

; 651  : 	{
; 652  : 		iPriority += (GC.getAI_GS_CULTURE_AHEAD_WEIGHT() * (iNumCivsAheadCulture - iNumCivsBehindCulture) / iNumCivsAlive);

	mov	ecx, DWORD PTR ?gGlobals@@3VCvGlobals@@A+1968
	mov	DWORD PTR $T226874[ebp], ecx
	mov	edx, DWORD PTR _iNumCivsAheadCulture$[ebp]
	sub	edx, DWORD PTR _iNumCivsBehindCulture$[ebp]
	mov	eax, edx
	imul	eax, DWORD PTR $T226874[ebp]
	cdq
	idiv	DWORD PTR _iNumCivsAlive$[ebp]
	add	eax, DWORD PTR _iPriority$[ebp]
	mov	DWORD PTR _iPriority$[ebp], eax
$LN2@GetCulture:

; 653  : 	}
; 654  : 	if (iNumCivsAlive > 0 && iNumCivsAheadTourism > iNumCivsBehindTourism)

	cmp	DWORD PTR _iNumCivsAlive$[ebp], 0
	jle	SHORT $LN1@GetCulture
	mov	eax, DWORD PTR _iNumCivsAheadTourism$[ebp]
	cmp	eax, DWORD PTR _iNumCivsBehindTourism$[ebp]
	jle	SHORT $LN1@GetCulture

; 655  : 	{
; 656  : 		iPriority += (GC.getAI_GS_CULTURE_TOURISM_AHEAD_WEIGHT() * (iNumCivsAheadTourism - iNumCivsBehindTourism) / iNumCivsAlive);

	mov	ecx, DWORD PTR ?gGlobals@@3VCvGlobals@@A+1972
	mov	DWORD PTR $T226878[ebp], ecx
	mov	edx, DWORD PTR _iNumCivsAheadTourism$[ebp]
	sub	edx, DWORD PTR _iNumCivsBehindTourism$[ebp]
	mov	eax, edx
	imul	eax, DWORD PTR $T226878[ebp]
	cdq
	idiv	DWORD PTR _iNumCivsAlive$[ebp]
	add	eax, DWORD PTR _iPriority$[ebp]
	mov	DWORD PTR _iPriority$[ebp], eax
$LN1@GetCulture:

; 657  : 	}
; 658  : 
; 659  : 	// for every civ we are Influential over increase this
; 660  : 	int iNumInfluential = m_pPlayer->GetCulture()->GetNumCivsInfluentialOn();

	mov	eax, DWORD PTR _this$[ebp]
	mov	ecx, DWORD PTR [eax]
	call	?GetCulture@CvPlayer@@QBEPAVCvPlayerCulture@@XZ ; CvPlayer::GetCulture
	mov	ecx, eax
	call	?GetNumCivsInfluentialOn@CvPlayerCulture@@QBEHXZ ; CvPlayerCulture::GetNumCivsInfluentialOn
	mov	DWORD PTR _iNumInfluential$[ebp], eax

; 661  : 	iPriority += iNumInfluential * GC.getAI_GS_CULTURE_INFLUENTIAL_CIV_MOD();

	mov	ecx, DWORD PTR ?gGlobals@@3VCvGlobals@@A+1976
	mov	DWORD PTR $T226882[ebp], ecx
	mov	edx, DWORD PTR _iNumInfluential$[ebp]
	imul	edx, DWORD PTR $T226882[ebp]
	add	edx, DWORD PTR _iPriority$[ebp]
	mov	DWORD PTR _iPriority$[ebp], edx

; 662  : 
; 663  : 	return iPriority;

	mov	eax, DWORD PTR _iPriority$[ebp]
$LN13@GetCulture:

; 664  : }

	mov	esp, ebp
	pop	ebp
	ret	0
?GetCulturePriority@CvGrandStrategyAI@@QAEHXZ ENDP	; CvGrandStrategyAI::GetCulturePriority
_TEXT	ENDS
PUBLIC	??_C@_0BB@BPIBEAAN@FLAVOR_DIPLOMACY?$AA@	; `string'
PUBLIC	??_C@_0BD@KCIFPIPP@VICTORY_DIPLOMATIC?$AA@	; `string'
EXTRN	?GetPlayerTraits@CvPlayer@@QBEPAVCvPlayerTraits@@XZ:PROC ; CvPlayer::GetPlayerTraits
EXTRN	?GetAlly@CvMinorCivAI@@QBE?AW4PlayerTypes@@XZ:PROC ; CvMinorCivAI::GetAlly
EXTRN	?GetMinorCivAI@CvPlayer@@QBEPAVCvMinorCivAI@@XZ:PROC ; CvPlayer::GetMinorCivAI
EXTRN	?CalculateStartingVotesForMember@CvLeague@@QAEHW4PlayerTypes@@_N@Z:PROC ; CvLeague::CalculateStartingVotesForMember
EXTRN	?GetActiveLeague@CvGameLeagues@@QAEPAVCvLeague@@XZ:PROC ; CvGameLeagues::GetActiveLeague
EXTRN	?GetNumActiveLeagues@CvGameLeagues@@QAEHXZ:PROC	; CvGameLeagues::GetNumActiveLeagues
EXTRN	?GetGameLeagues@CvGame@@QAEPAVCvGameLeagues@@XZ:PROC ; CvGame::GetGameLeagues
EXTRN	?GetVotesNeededForDiploVictory@CvGame@@QBEHXZ:PROC ; CvGame::GetVotesNeededForDiploVictory
EXTRN	?GetNumMinorCivsAttacked@CvTeam@@QBEHXZ:PROC	; CvTeam::GetNumMinorCivsAttacked
;	COMDAT ??_C@_0BB@BPIBEAAN@FLAVOR_DIPLOMACY?$AA@
; File d:\sources\lekmod_git\checkout\lekmod_dll\cvgamecoredll_expansion2\cvtraitclasses.h
CONST	SEGMENT
??_C@_0BB@BPIBEAAN@FLAVOR_DIPLOMACY?$AA@ DB 'FLAVOR_DIPLOMACY', 00H ; `string'
CONST	ENDS
;	COMDAT ??_C@_0BD@KCIFPIPP@VICTORY_DIPLOMATIC?$AA@
CONST	SEGMENT
??_C@_0BD@KCIFPIPP@VICTORY_DIPLOMATIC?$AA@ DB 'VICTORY_DIPLOMATIC', 00H ; `string'
; Function compile flags: /Odtp
; File d:\sources\lekmod_git\checkout\lekmod_dll\cvgamecoredll_expansion2\cvgrandstrategyai.cpp
CONST	ENDS
;	COMDAT ?GetUnitedNationsPriority@CvGrandStrategyAI@@QAEHXZ
_TEXT	SEGMENT
tv219 = -188						; size = 4
tv211 = -184						; size = 4
tv254 = -180						; size = 4
_this$ = -176						; size = 4
$T226995 = -172						; size = 4
$T226994 = -168						; size = 4
$T226990 = -164						; size = 4
$T226989 = -160						; size = 4
$T226985 = -156						; size = 4
$T226984 = -152						; size = 4
$T226978 = -148						; size = 4
$T226969 = -144						; size = 4
$T226960 = -140						; size = 4
$T226953 = -136						; size = 4
$T226949 = -132						; size = 4
$T226945 = -125						; size = 1
$T226936 = -124						; size = 4
$T226932 = -120						; size = 4
$T226928 = -116						; size = 4
$T226924 = -112						; size = 4
$T226920 = -108						; size = 4
$T226916 = -104						; size = 4
$T226912 = -100						; size = 4
$T226911 = -96						; size = 4
$T226902 = -92						; size = 4
$T226890 = -88						; size = 4
$T226889 = -84						; size = 4
$T226888 = -80						; size = 4
$T226887 = -76						; size = 4
$T226886 = -72						; size = 4
$T226885 = -68						; size = 4
_iPotentialCityStateVotes$224004 = -64			; size = 4
_iPotentialVotesDelta$224005 = -60			; size = 4
_iOtherPlayerVotes$223995 = -56				; size = 4
_eLoopPlayer$223989 = -52				; size = 4
_iPlayerLoop$223985 = -48				; size = 4
_iHighestOtherPlayerVotes$223984 = -44			; size = 4
_pLeague$223982 = -40					; size = 4
_iFlavorDiplo$223978 = -36				; size = 4
_iVotesNeededToWin$ = -32				; size = 4
_iVotesControlledDelta$ = -28				; size = 4
_ePlayer$ = -24						; size = 4
_iPriority$ = -20					; size = 4
_iUnalliedCityStates$ = -16				; size = 4
_eVictory$ = -12					; size = 4
_iNumMinorsAttacked$ = -8				; size = 4
_iVotesControlled$ = -4					; size = 4
?GetUnitedNationsPriority@CvGrandStrategyAI@@QAEHXZ PROC ; CvGrandStrategyAI::GetUnitedNationsPriority, COMDAT
; _this$ = ecx

; 672  : {

	push	ebp
	mov	ebp, esp
	sub	esp, 188				; 000000bcH
	mov	DWORD PTR _this$[ebp], ecx

; 673  : 	int iPriority = 0;

	mov	DWORD PTR _iPriority$[ebp], 0

; 674  : 	PlayerTypes ePlayer = m_pPlayer->GetID();

	mov	eax, DWORD PTR _this$[ebp]
	mov	ecx, DWORD PTR [eax]
	mov	edx, DWORD PTR [ecx+44]
	mov	DWORD PTR _ePlayer$[ebp], edx

; 675  : 
; 676  : 	// If UN Victory isn't even available then don't bother with anything
; 677  : 	VictoryTypes eVictory = (VictoryTypes) GC.getInfoTypeForString("VICTORY_DIPLOMATIC", true);

	push	1
	push	OFFSET ??_C@_0BD@KCIFPIPP@VICTORY_DIPLOMATIC?$AA@
	mov	ecx, OFFSET ?gGlobals@@3VCvGlobals@@A	; gGlobals
	call	?getInfoTypeForString@CvGlobals@@QBEHPBD_N@Z ; CvGlobals::getInfoTypeForString
	mov	DWORD PTR _eVictory$[ebp], eax

; 678  : 	if(eVictory == NO_VICTORY || !GC.getGame().isVictoryValid(eVictory))

	cmp	DWORD PTR _eVictory$[ebp], -1
	je	SHORT $LN20@GetUnitedN
	mov	eax, DWORD PTR ?gGlobals@@3VCvGlobals@@A+48
	mov	DWORD PTR $T226902[ebp], eax
	mov	ecx, DWORD PTR _eVictory$[ebp]
	push	ecx
	mov	ecx, DWORD PTR $T226902[ebp]
	call	?isVictoryValid@CvGame@@QBE_NW4VictoryTypes@@@Z ; CvGame::isVictoryValid
	movzx	edx, al
	test	edx, edx
	jne	SHORT $LN21@GetUnitedN
$LN20@GetUnitedN:

; 679  : 	{
; 680  : 		return -100;

	mov	eax, -100				; ffffff9cH
	jmp	$LN22@GetUnitedN
$LN21@GetUnitedN:

; 681  : 	}
; 682  : 
; 683  : 	int iNumMinorsAttacked = GET_TEAM(GetPlayer()->getTeam()).GetNumMinorCivsAttacked();

	mov	ecx, DWORD PTR _this$[ebp]
	call	?GetPlayer@CvGrandStrategyAI@@QAEPAVCvPlayer@@XZ ; CvGrandStrategyAI::GetPlayer
	mov	DWORD PTR $T226911[ebp], eax
	mov	eax, DWORD PTR $T226911[ebp]
	mov	ecx, DWORD PTR [eax+44]
	push	ecx
	call	?teamType@CvPreGame@@YA?AW4TeamTypes@@W4PlayerTypes@@@Z ; CvPreGame::teamType
	add	esp, 4
	mov	DWORD PTR $T226912[ebp], eax
	mov	edx, DWORD PTR $T226912[ebp]
	imul	edx, 2984				; 00000ba8H
	add	edx, DWORD PTR ?m_aTeams@CvTeam@@1PAV1@A ; CvTeam::m_aTeams
	mov	DWORD PTR $T226916[ebp], edx
	mov	ecx, DWORD PTR $T226916[ebp]
	call	?GetNumMinorCivsAttacked@CvTeam@@QBEHXZ	; CvTeam::GetNumMinorCivsAttacked
	mov	DWORD PTR _iNumMinorsAttacked$[ebp], eax

; 684  : 	iPriority += (iNumMinorsAttacked* /*-30*/ GC.getAI_GRAND_STRATEGY_UN_EACH_MINOR_ATTACKED_WEIGHT());

	mov	eax, DWORD PTR ?gGlobals@@3VCvGlobals@@A+1980
	mov	DWORD PTR $T226920[ebp], eax
	mov	ecx, DWORD PTR _iNumMinorsAttacked$[ebp]
	imul	ecx, DWORD PTR $T226920[ebp]
	add	ecx, DWORD PTR _iPriority$[ebp]
	mov	DWORD PTR _iPriority$[ebp], ecx

; 685  : 
; 686  : 	int iVotesNeededToWin = GC.getGame().GetVotesNeededForDiploVictory();

	mov	edx, DWORD PTR ?gGlobals@@3VCvGlobals@@A+48
	mov	DWORD PTR $T226924[ebp], edx
	mov	ecx, DWORD PTR $T226924[ebp]
	call	?GetVotesNeededForDiploVictory@CvGame@@QBEHXZ ; CvGame::GetVotesNeededForDiploVictory
	mov	DWORD PTR _iVotesNeededToWin$[ebp], eax

; 687  : 
; 688  : 	int iVotesControlled = 0;

	mov	DWORD PTR _iVotesControlled$[ebp], 0

; 689  : 	int iVotesControlledDelta = 0;

	mov	DWORD PTR _iVotesControlledDelta$[ebp], 0

; 690  : 	int iUnalliedCityStates = 0;

	mov	DWORD PTR _iUnalliedCityStates$[ebp], 0

; 691  : #ifdef AUI_LEAGUES_FIX_POSSIBLE_DEALLOCATION_CRASH
; 692  : 	CvLeague* pLeague = GC.getGame().GetGameLeagues()->GetActiveLeague();
; 693  : 	if (pLeague == NULL)
; 694  : #else
; 695  : 	if (GC.getGame().GetGameLeagues()->GetNumActiveLeagues() == 0)

	mov	eax, DWORD PTR ?gGlobals@@3VCvGlobals@@A+48
	mov	DWORD PTR $T226928[ebp], eax
	mov	ecx, DWORD PTR $T226928[ebp]
	call	?GetGameLeagues@CvGame@@QAEPAVCvGameLeagues@@XZ ; CvGame::GetGameLeagues
	mov	ecx, eax
	call	?GetNumActiveLeagues@CvGameLeagues@@QAEHXZ ; CvGameLeagues::GetNumActiveLeagues
	test	eax, eax
	jne	SHORT $LN19@GetUnitedN

; 696  : #endif
; 697  : 	{
; 698  : 		// Before leagues kick in, add weight based on flavor
; 699  : 		int iFlavorDiplo =  m_pPlayer->GetFlavorManager()->GetPersonalityIndividualFlavor((FlavorTypes)GC.getInfoTypeForString("FLAVOR_DIPLOMACY"));

	push	0
	push	OFFSET ??_C@_0BB@BPIBEAAN@FLAVOR_DIPLOMACY?$AA@
	mov	ecx, OFFSET ?gGlobals@@3VCvGlobals@@A	; gGlobals
	call	?getInfoTypeForString@CvGlobals@@QBEHPBD_N@Z ; CvGlobals::getInfoTypeForString
	push	eax
	mov	ecx, DWORD PTR _this$[ebp]
	mov	ecx, DWORD PTR [ecx]
	call	?GetFlavorManager@CvPlayer@@QBEPAVCvFlavorManager@@XZ ; CvPlayer::GetFlavorManager
	mov	ecx, eax
	call	?GetPersonalityIndividualFlavor@CvFlavorManager@@QAEHW4FlavorTypes@@@Z ; CvFlavorManager::GetPersonalityIndividualFlavor
	mov	DWORD PTR _iFlavorDiplo$223978[ebp], eax

; 700  : 		iPriority += (10 - m_pPlayer->GetCurrentEra()) * iFlavorDiplo * 150 / 100;

	mov	edx, DWORD PTR _this$[ebp]
	mov	ecx, DWORD PTR [edx]
	call	?GetCurrentEra@CvPlayer@@QBE?AW4EraTypes@@XZ ; CvPlayer::GetCurrentEra
	mov	ecx, 10					; 0000000aH
	sub	ecx, eax
	imul	ecx, DWORD PTR _iFlavorDiplo$223978[ebp]
	imul	ecx, 150				; 00000096H
	mov	eax, ecx
	cdq
	mov	ecx, 100				; 00000064H
	idiv	ecx
	add	eax, DWORD PTR _iPriority$[ebp]
	mov	DWORD PTR _iPriority$[ebp], eax

; 701  : 	}
; 702  : 	else

	jmp	$LN18@GetUnitedN
$LN19@GetUnitedN:

; 703  : 	{
; 704  : #ifndef AUI_LEAGUES_FIX_POSSIBLE_DEALLOCATION_CRASH
; 705  : 		CvLeague* pLeague = GC.getGame().GetGameLeagues()->GetActiveLeague();

	mov	edx, DWORD PTR ?gGlobals@@3VCvGlobals@@A+48
	mov	DWORD PTR $T226932[ebp], edx
	mov	ecx, DWORD PTR $T226932[ebp]
	call	?GetGameLeagues@CvGame@@QAEPAVCvGameLeagues@@XZ ; CvGame::GetGameLeagues
	mov	ecx, eax
	call	?GetActiveLeague@CvGameLeagues@@QAEPAVCvLeague@@XZ ; CvGameLeagues::GetActiveLeague
	mov	DWORD PTR _pLeague$223982[ebp], eax

; 706  : 		CvAssert(pLeague != NULL);
; 707  : 		if (pLeague != NULL)

	cmp	DWORD PTR _pLeague$223982[ebp], 0
	je	$LN18@GetUnitedN

; 708  : #endif
; 709  : 		{
; 710  : 			// Votes we control
; 711  : 			iVotesControlled += pLeague->CalculateStartingVotesForMember(ePlayer);

	push	0
	mov	eax, DWORD PTR _ePlayer$[ebp]
	push	eax
	mov	ecx, DWORD PTR _pLeague$223982[ebp]
	call	?CalculateStartingVotesForMember@CvLeague@@QAEHW4PlayerTypes@@_N@Z ; CvLeague::CalculateStartingVotesForMember
	add	eax, DWORD PTR _iVotesControlled$[ebp]
	mov	DWORD PTR _iVotesControlled$[ebp], eax

; 712  : 
; 713  : 			// Votes other players control
; 714  : 			int iHighestOtherPlayerVotes = 0;

	mov	DWORD PTR _iHighestOtherPlayerVotes$223984[ebp], 0

; 715  : 			for (int iPlayerLoop = 0; iPlayerLoop < MAX_CIV_PLAYERS; iPlayerLoop++)

	mov	DWORD PTR _iPlayerLoop$223985[ebp], 0
	jmp	SHORT $LN16@GetUnitedN
$LN15@GetUnitedN:
	mov	ecx, DWORD PTR _iPlayerLoop$223985[ebp]
	add	ecx, 1
	mov	DWORD PTR _iPlayerLoop$223985[ebp], ecx
$LN16@GetUnitedN:
	cmp	DWORD PTR _iPlayerLoop$223985[ebp], 63	; 0000003fH
	jge	$LN14@GetUnitedN

; 716  : 			{
; 717  : 				PlayerTypes eLoopPlayer = (PlayerTypes) iPlayerLoop;

	mov	edx, DWORD PTR _iPlayerLoop$223985[ebp]
	mov	DWORD PTR _eLoopPlayer$223989[ebp], edx

; 718  : 
; 719  : 				if(eLoopPlayer != ePlayer && GET_PLAYER(eLoopPlayer).isAlive())

	mov	eax, DWORD PTR _eLoopPlayer$223989[ebp]
	cmp	eax, DWORD PTR _ePlayer$[ebp]
	je	$LN13@GetUnitedN
	mov	ecx, DWORD PTR _eLoopPlayer$223989[ebp]
	imul	ecx, 63236				; 0000f704H
	add	ecx, DWORD PTR ?m_aPlayers@CvPlayerAI@@1PAV1@A ; CvPlayerAI::m_aPlayers
	mov	DWORD PTR $T226936[ebp], ecx
	mov	edx, DWORD PTR $T226936[ebp]
	mov	al, BYTE PTR [edx+2256]
	mov	BYTE PTR $T226945[ebp], al
	movzx	ecx, BYTE PTR $T226945[ebp]
	test	ecx, ecx
	je	SHORT $LN13@GetUnitedN

; 720  : 				{
; 721  : 					if (GET_PLAYER(eLoopPlayer).isMinorCiv())

	mov	edx, DWORD PTR _eLoopPlayer$223989[ebp]
	imul	edx, 63236				; 0000f704H
	add	edx, DWORD PTR ?m_aPlayers@CvPlayerAI@@1PAV1@A ; CvPlayerAI::m_aPlayers
	mov	DWORD PTR $T226949[ebp], edx
	mov	ecx, DWORD PTR $T226949[ebp]
	call	?isMinorCiv@CvPlayer@@QBE_NXZ		; CvPlayer::isMinorCiv
	movzx	eax, al
	test	eax, eax
	je	SHORT $LN12@GetUnitedN

; 722  : 					{
; 723  : 						if (GET_PLAYER(eLoopPlayer).GetMinorCivAI()->GetAlly() == NO_PLAYER)

	mov	ecx, DWORD PTR _eLoopPlayer$223989[ebp]
	imul	ecx, 63236				; 0000f704H
	add	ecx, DWORD PTR ?m_aPlayers@CvPlayerAI@@1PAV1@A ; CvPlayerAI::m_aPlayers
	mov	DWORD PTR $T226953[ebp], ecx
	mov	ecx, DWORD PTR $T226953[ebp]
	call	?GetMinorCivAI@CvPlayer@@QBEPAVCvMinorCivAI@@XZ ; CvPlayer::GetMinorCivAI
	mov	ecx, eax
	call	?GetAlly@CvMinorCivAI@@QBE?AW4PlayerTypes@@XZ ; CvMinorCivAI::GetAlly
	cmp	eax, -1
	jne	SHORT $LN11@GetUnitedN

; 724  : 						{
; 725  : 							iUnalliedCityStates++;

	mov	edx, DWORD PTR _iUnalliedCityStates$[ebp]
	add	edx, 1
	mov	DWORD PTR _iUnalliedCityStates$[ebp], edx
$LN11@GetUnitedN:

; 726  : 						}
; 727  : 					}
; 728  : 					else

	jmp	SHORT $LN13@GetUnitedN
$LN12@GetUnitedN:

; 729  : 					{
; 730  : 						int iOtherPlayerVotes = pLeague->CalculateStartingVotesForMember(eLoopPlayer);

	push	0
	mov	eax, DWORD PTR _eLoopPlayer$223989[ebp]
	push	eax
	mov	ecx, DWORD PTR _pLeague$223982[ebp]
	call	?CalculateStartingVotesForMember@CvLeague@@QAEHW4PlayerTypes@@_N@Z ; CvLeague::CalculateStartingVotesForMember
	mov	DWORD PTR _iOtherPlayerVotes$223995[ebp], eax

; 731  : 						if (iOtherPlayerVotes > iHighestOtherPlayerVotes)

	mov	ecx, DWORD PTR _iOtherPlayerVotes$223995[ebp]
	cmp	ecx, DWORD PTR _iHighestOtherPlayerVotes$223984[ebp]
	jle	SHORT $LN13@GetUnitedN

; 732  : 						{
; 733  : 							iHighestOtherPlayerVotes = iOtherPlayerVotes;

	mov	edx, DWORD PTR _iOtherPlayerVotes$223995[ebp]
	mov	DWORD PTR _iHighestOtherPlayerVotes$223984[ebp], edx
$LN13@GetUnitedN:

; 734  : 						}
; 735  : 					}
; 736  : 				}
; 737  : 			}

	jmp	$LN15@GetUnitedN
$LN14@GetUnitedN:

; 738  : 
; 739  : 			// How we compare
; 740  : 			iVotesControlledDelta = iVotesControlled - iHighestOtherPlayerVotes;

	mov	eax, DWORD PTR _iVotesControlled$[ebp]
	sub	eax, DWORD PTR _iHighestOtherPlayerVotes$223984[ebp]
	mov	DWORD PTR _iVotesControlledDelta$[ebp], eax
$LN18@GetUnitedN:

; 741  : 		}
; 742  : 	}
; 743  : 
; 744  : 	// Are we close to winning?
; 745  : 	if (iVotesControlled >= iVotesNeededToWin)

	mov	ecx, DWORD PTR _iVotesControlled$[ebp]
	cmp	ecx, DWORD PTR _iVotesNeededToWin$[ebp]
	jl	SHORT $LN8@GetUnitedN

; 746  : 	{
; 747  : 		return 1000;

	mov	eax, 1000				; 000003e8H
	jmp	$LN22@GetUnitedN
	jmp	SHORT $LN7@GetUnitedN
$LN8@GetUnitedN:

; 748  : 	}
; 749  : 	else if (iVotesControlled >= ((iVotesNeededToWin * 3) / 4))

	mov	eax, DWORD PTR _iVotesNeededToWin$[ebp]
	imul	eax, 3
	cdq
	and	edx, 3
	add	eax, edx
	sar	eax, 2
	cmp	DWORD PTR _iVotesControlled$[ebp], eax
	jl	SHORT $LN7@GetUnitedN

; 750  : 	{
; 751  : 		iPriority += 40;

	mov	edx, DWORD PTR _iPriority$[ebp]
	add	edx, 40					; 00000028H
	mov	DWORD PTR _iPriority$[ebp], edx
$LN7@GetUnitedN:

; 752  : 	}
; 753  : 
; 754  : 	// We have the most votes
; 755  : 	if (iVotesControlledDelta > 0)

	cmp	DWORD PTR _iVotesControlledDelta$[ebp], 0
	jle	SHORT $LN5@GetUnitedN

; 756  : 	{
; 757  : 		iPriority += MAX(40, iVotesControlledDelta * 5);

	mov	eax, DWORD PTR _iVotesControlledDelta$[ebp]
	imul	eax, 5
	mov	DWORD PTR $T226885[ebp], eax
	mov	DWORD PTR $T226886[ebp], 40		; 00000028H
	mov	ecx, DWORD PTR $T226886[ebp]
	cmp	ecx, DWORD PTR $T226885[ebp]
	jge	SHORT $LN56@GetUnitedN
	lea	edx, DWORD PTR $T226885[ebp]
	mov	DWORD PTR tv254[ebp], edx
	jmp	SHORT $LN57@GetUnitedN
$LN56@GetUnitedN:
	lea	eax, DWORD PTR $T226886[ebp]
	mov	DWORD PTR tv254[ebp], eax
$LN57@GetUnitedN:
	mov	ecx, DWORD PTR tv254[ebp]
	mov	DWORD PTR $T226960[ebp], ecx
	mov	edx, DWORD PTR $T226960[ebp]
	mov	eax, DWORD PTR _iPriority$[ebp]
	add	eax, DWORD PTR [edx]
	mov	DWORD PTR _iPriority$[ebp], eax

; 758  : 	}
; 759  : 	// We are equal or behind in votes
; 760  : 	else

	jmp	$LN4@GetUnitedN
$LN5@GetUnitedN:

; 761  : 	{
; 762  : 		// Could we make up the difference with currently unallied city-states?
; 763  : 		int iPotentialCityStateVotes = iUnalliedCityStates * 2;

	mov	ecx, DWORD PTR _iUnalliedCityStates$[ebp]
	shl	ecx, 1
	mov	DWORD PTR _iPotentialCityStateVotes$224004[ebp], ecx

; 764  : 		int iPotentialVotesDelta = iPotentialCityStateVotes + iVotesControlledDelta;

	mov	edx, DWORD PTR _iPotentialCityStateVotes$224004[ebp]
	add	edx, DWORD PTR _iVotesControlledDelta$[ebp]
	mov	DWORD PTR _iPotentialVotesDelta$224005[ebp], edx

; 765  : 		if (iPotentialVotesDelta > 0)

	cmp	DWORD PTR _iPotentialVotesDelta$224005[ebp], 0
	jle	SHORT $LN3@GetUnitedN

; 766  : 		{
; 767  : 			iPriority += MAX(20, iPotentialVotesDelta * 5);

	mov	eax, DWORD PTR _iPotentialVotesDelta$224005[ebp]
	imul	eax, 5
	mov	DWORD PTR $T226887[ebp], eax
	mov	DWORD PTR $T226888[ebp], 20		; 00000014H
	mov	ecx, DWORD PTR $T226888[ebp]
	cmp	ecx, DWORD PTR $T226887[ebp]
	jge	SHORT $LN60@GetUnitedN
	lea	edx, DWORD PTR $T226887[ebp]
	mov	DWORD PTR tv211[ebp], edx
	jmp	SHORT $LN61@GetUnitedN
$LN60@GetUnitedN:
	lea	eax, DWORD PTR $T226888[ebp]
	mov	DWORD PTR tv211[ebp], eax
$LN61@GetUnitedN:
	mov	ecx, DWORD PTR tv211[ebp]
	mov	DWORD PTR $T226969[ebp], ecx
	mov	edx, DWORD PTR $T226969[ebp]
	mov	eax, DWORD PTR _iPriority$[ebp]
	add	eax, DWORD PTR [edx]
	mov	DWORD PTR _iPriority$[ebp], eax
	jmp	SHORT $LN4@GetUnitedN
$LN3@GetUnitedN:

; 768  : 		}
; 769  : 		else if (iPotentialVotesDelta < 0)

	cmp	DWORD PTR _iPotentialVotesDelta$224005[ebp], 0
	jge	SHORT $LN4@GetUnitedN

; 770  : 		{
; 771  : 			iPriority += MIN(-40, iPotentialVotesDelta * -5);

	mov	ecx, DWORD PTR _iPotentialVotesDelta$224005[ebp]
	imul	ecx, -5					; fffffffbH
	mov	DWORD PTR $T226889[ebp], ecx
	mov	DWORD PTR $T226890[ebp], -40		; ffffffd8H
	mov	edx, DWORD PTR $T226889[ebp]
	cmp	edx, DWORD PTR $T226890[ebp]
	jge	SHORT $LN64@GetUnitedN
	lea	eax, DWORD PTR $T226889[ebp]
	mov	DWORD PTR tv219[ebp], eax
	jmp	SHORT $LN65@GetUnitedN
$LN64@GetUnitedN:
	lea	ecx, DWORD PTR $T226890[ebp]
	mov	DWORD PTR tv219[ebp], ecx
$LN65@GetUnitedN:
	mov	edx, DWORD PTR tv219[ebp]
	mov	DWORD PTR $T226978[ebp], edx
	mov	eax, DWORD PTR $T226978[ebp]
	mov	ecx, DWORD PTR _iPriority$[ebp]
	add	ecx, DWORD PTR [eax]
	mov	DWORD PTR _iPriority$[ebp], ecx
$LN4@GetUnitedN:

; 772  : 		}
; 773  : 	}
; 774  : 
; 775  : 	// factor in some traits that could be useful (or harmful)
; 776  : 	iPriority += m_pPlayer->GetPlayerTraits()->GetCityStateFriendshipModifier();

	mov	edx, DWORD PTR _this$[ebp]
	mov	ecx, DWORD PTR [edx]
	call	?GetPlayerTraits@CvPlayer@@QBEPAVCvPlayerTraits@@XZ ; CvPlayer::GetPlayerTraits
	mov	DWORD PTR $T226984[ebp], eax
	mov	eax, DWORD PTR $T226984[ebp]
	mov	ecx, DWORD PTR [eax+92]
	mov	DWORD PTR $T226985[ebp], ecx
	mov	edx, DWORD PTR _iPriority$[ebp]
	add	edx, DWORD PTR $T226985[ebp]
	mov	DWORD PTR _iPriority$[ebp], edx

; 777  : 	iPriority += m_pPlayer->GetPlayerTraits()->GetCityStateBonusModifier();

	mov	eax, DWORD PTR _this$[ebp]
	mov	ecx, DWORD PTR [eax]
	call	?GetPlayerTraits@CvPlayer@@QBEPAVCvPlayerTraits@@XZ ; CvPlayer::GetPlayerTraits
	mov	DWORD PTR $T226989[ebp], eax
	mov	ecx, DWORD PTR $T226989[ebp]
	mov	edx, DWORD PTR [ecx+88]
	mov	DWORD PTR $T226990[ebp], edx
	mov	eax, DWORD PTR _iPriority$[ebp]
	add	eax, DWORD PTR $T226990[ebp]
	mov	DWORD PTR _iPriority$[ebp], eax

; 778  : 	iPriority -= m_pPlayer->GetPlayerTraits()->GetCityStateCombatModifier();

	mov	ecx, DWORD PTR _this$[ebp]
	mov	ecx, DWORD PTR [ecx]
	call	?GetPlayerTraits@CvPlayer@@QBEPAVCvPlayerTraits@@XZ ; CvPlayer::GetPlayerTraits
	mov	DWORD PTR $T226994[ebp], eax
	mov	edx, DWORD PTR $T226994[ebp]
	mov	eax, DWORD PTR [edx+96]
	mov	DWORD PTR $T226995[ebp], eax
	mov	ecx, DWORD PTR _iPriority$[ebp]
	sub	ecx, DWORD PTR $T226995[ebp]
	mov	DWORD PTR _iPriority$[ebp], ecx

; 779  : 
; 780  : 	return iPriority;

	mov	eax, DWORD PTR _iPriority$[ebp]
$LN22@GetUnitedN:

; 781  : }

	mov	esp, ebp
	pop	ebp
	ret	0
?GetUnitedNationsPriority@CvGrandStrategyAI@@QAEHXZ ENDP ; CvGrandStrategyAI::GetUnitedNationsPriority
_TEXT	ENDS
PUBLIC	??_C@_0BH@HJPDENF@PROJECT_APOLLO_PROGRAM?$AA@	; `string'
PUBLIC	??_C@_0P@NPJBAHPJ@FLAVOR_SCIENCE?$AA@		; `string'
PUBLIC	??_C@_0BD@GNEMFDHK@VICTORY_SPACE_RACE?$AA@	; `string'
EXTRN	?getProjectCount@CvTeam@@QBEHW4ProjectTypes@@@Z:PROC ; CvTeam::getProjectCount
;	COMDAT ??_C@_0BH@HJPDENF@PROJECT_APOLLO_PROGRAM?$AA@
; File d:\sources\lekmod_git\checkout\lekmod_dll\cvgamecoredll_expansion2\cvglobals.h
CONST	SEGMENT
??_C@_0BH@HJPDENF@PROJECT_APOLLO_PROGRAM?$AA@ DB 'PROJECT_APOLLO_PROGRAM', 00H ; `string'
CONST	ENDS
;	COMDAT ??_C@_0P@NPJBAHPJ@FLAVOR_SCIENCE?$AA@
CONST	SEGMENT
??_C@_0P@NPJBAHPJ@FLAVOR_SCIENCE?$AA@ DB 'FLAVOR_SCIENCE', 00H ; `string'
CONST	ENDS
;	COMDAT ??_C@_0BD@GNEMFDHK@VICTORY_SPACE_RACE?$AA@
CONST	SEGMENT
??_C@_0BD@GNEMFDHK@VICTORY_SPACE_RACE?$AA@ DB 'VICTORY_SPACE_RACE', 00H ; `string'
; Function compile flags: /Odtp
; File d:\sources\lekmod_git\checkout\lekmod_dll\cvgamecoredll_expansion2\cvgrandstrategyai.cpp
CONST	ENDS
;	COMDAT ?GetSpaceshipPriority@CvGrandStrategyAI@@QAEHXZ
_TEXT	SEGMENT
_this$ = -40						; size = 4
$T227019 = -36						; size = 4
$T227015 = -32						; size = 4
$T227011 = -28						; size = 4
$T227010 = -24						; size = 4
$T227001 = -20						; size = 4
_iPriority$ = -16					; size = 4
_eVictory$ = -12					; size = 4
_iFlavorScience$ = -8					; size = 4
_eApolloProgram$ = -4					; size = 4
?GetSpaceshipPriority@CvGrandStrategyAI@@QAEHXZ PROC	; CvGrandStrategyAI::GetSpaceshipPriority, COMDAT
; _this$ = ecx

; 789  : {

	push	ebp
	mov	ebp, esp
	sub	esp, 40					; 00000028H
	mov	DWORD PTR _this$[ebp], ecx

; 790  : 	int iPriority = 0;

	mov	DWORD PTR _iPriority$[ebp], 0

; 791  : 
; 792  : 	// If SS Victory isn't even available then don't bother with anything
; 793  : 	VictoryTypes eVictory = (VictoryTypes) GC.getInfoTypeForString("VICTORY_SPACE_RACE", true);

	push	1
	push	OFFSET ??_C@_0BD@GNEMFDHK@VICTORY_SPACE_RACE?$AA@
	mov	ecx, OFFSET ?gGlobals@@3VCvGlobals@@A	; gGlobals
	call	?getInfoTypeForString@CvGlobals@@QBEHPBD_N@Z ; CvGlobals::getInfoTypeForString
	mov	DWORD PTR _eVictory$[ebp], eax

; 794  : 	if(eVictory == NO_VICTORY || !GC.getGame().isVictoryValid(eVictory))

	cmp	DWORD PTR _eVictory$[ebp], -1
	je	SHORT $LN3@GetSpacesh
	mov	eax, DWORD PTR ?gGlobals@@3VCvGlobals@@A+48
	mov	DWORD PTR $T227001[ebp], eax
	mov	ecx, DWORD PTR _eVictory$[ebp]
	push	ecx
	mov	ecx, DWORD PTR $T227001[ebp]
	call	?isVictoryValid@CvGame@@QBE_NW4VictoryTypes@@@Z ; CvGame::isVictoryValid
	movzx	edx, al
	test	edx, edx
	jne	SHORT $LN4@GetSpacesh
$LN3@GetSpacesh:

; 795  : 	{
; 796  : 		return -100;

	mov	eax, -100				; ffffff9cH
	jmp	$LN5@GetSpacesh
$LN4@GetSpacesh:

; 797  : 	}
; 798  : 
; 799  : 	int iFlavorScience =  m_pPlayer->GetFlavorManager()->GetPersonalityIndividualFlavor((FlavorTypes)GC.getInfoTypeForString("FLAVOR_SCIENCE"));

	push	0
	push	OFFSET ??_C@_0P@NPJBAHPJ@FLAVOR_SCIENCE?$AA@
	mov	ecx, OFFSET ?gGlobals@@3VCvGlobals@@A	; gGlobals
	call	?getInfoTypeForString@CvGlobals@@QBEHPBD_N@Z ; CvGlobals::getInfoTypeForString
	push	eax
	mov	eax, DWORD PTR _this$[ebp]
	mov	ecx, DWORD PTR [eax]
	call	?GetFlavorManager@CvPlayer@@QBEPAVCvFlavorManager@@XZ ; CvPlayer::GetFlavorManager
	mov	ecx, eax
	call	?GetPersonalityIndividualFlavor@CvFlavorManager@@QAEHW4FlavorTypes@@@Z ; CvFlavorManager::GetPersonalityIndividualFlavor
	mov	DWORD PTR _iFlavorScience$[ebp], eax

; 800  : 
; 801  : 	// the later the game the greater the chance
; 802  : 	iPriority += m_pPlayer->GetCurrentEra() * iFlavorScience * 150 / 100;

	mov	ecx, DWORD PTR _this$[ebp]
	mov	ecx, DWORD PTR [ecx]
	call	?GetCurrentEra@CvPlayer@@QBE?AW4EraTypes@@XZ ; CvPlayer::GetCurrentEra
	imul	eax, DWORD PTR _iFlavorScience$[ebp]
	imul	eax, 150				; 00000096H
	cdq
	mov	ecx, 100				; 00000064H
	idiv	ecx
	add	eax, DWORD PTR _iPriority$[ebp]
	mov	DWORD PTR _iPriority$[ebp], eax

; 803  : 
; 804  : 	// if I already built the Apollo Program I am very likely to follow through
; 805  : 	ProjectTypes eApolloProgram = (ProjectTypes) GC.getInfoTypeForString("PROJECT_APOLLO_PROGRAM", true);

	push	1
	push	OFFSET ??_C@_0BH@HJPDENF@PROJECT_APOLLO_PROGRAM?$AA@
	mov	ecx, OFFSET ?gGlobals@@3VCvGlobals@@A	; gGlobals
	call	?getInfoTypeForString@CvGlobals@@QBEHPBD_N@Z ; CvGlobals::getInfoTypeForString
	mov	DWORD PTR _eApolloProgram$[ebp], eax

; 806  : 	if(eApolloProgram != NO_PROJECT)

	cmp	DWORD PTR _eApolloProgram$[ebp], -1
	je	SHORT $LN2@GetSpacesh

; 807  : 	{
; 808  : 		if(GET_TEAM(m_pPlayer->getTeam()).getProjectCount(eApolloProgram) > 0)

	mov	edx, DWORD PTR _this$[ebp]
	mov	eax, DWORD PTR [edx]
	mov	DWORD PTR $T227010[ebp], eax
	mov	ecx, DWORD PTR $T227010[ebp]
	mov	edx, DWORD PTR [ecx+44]
	push	edx
	call	?teamType@CvPreGame@@YA?AW4TeamTypes@@W4PlayerTypes@@@Z ; CvPreGame::teamType
	add	esp, 4
	mov	DWORD PTR $T227011[ebp], eax
	mov	eax, DWORD PTR $T227011[ebp]
	imul	eax, 2984				; 00000ba8H
	add	eax, DWORD PTR ?m_aTeams@CvTeam@@1PAV1@A ; CvTeam::m_aTeams
	mov	DWORD PTR $T227015[ebp], eax
	mov	ecx, DWORD PTR _eApolloProgram$[ebp]
	push	ecx
	mov	ecx, DWORD PTR $T227015[ebp]
	call	?getProjectCount@CvTeam@@QBEHW4ProjectTypes@@@Z ; CvTeam::getProjectCount
	test	eax, eax
	jle	SHORT $LN2@GetSpacesh

; 809  : 		{
; 810  : 			iPriority += /*150*/ GC.getAI_GS_SS_HAS_APOLLO_PROGRAM();

	mov	edx, DWORD PTR ?gGlobals@@3VCvGlobals@@A+1988
	mov	DWORD PTR $T227019[ebp], edx
	mov	eax, DWORD PTR _iPriority$[ebp]
	add	eax, DWORD PTR $T227019[ebp]
	mov	DWORD PTR _iPriority$[ebp], eax
$LN2@GetSpacesh:

; 811  : 		}
; 812  : 	}
; 813  : 
; 814  : 	return iPriority;

	mov	eax, DWORD PTR _iPriority$[ebp]
$LN5@GetSpacesh:

; 815  : }

	mov	esp, ebp
	pop	ebp
	ret	0
?GetSpaceshipPriority@CvGrandStrategyAI@@QAEHXZ ENDP	; CvGrandStrategyAI::GetSpaceshipPriority
; Function compile flags: /Odtp
_TEXT	ENDS
;	COMDAT ?GetBaseGrandStrategyPriority@CvGrandStrategyAI@@QAEHW4AIGrandStrategyTypes@@@Z
_TEXT	SEGMENT
_this$ = -20						; size = 4
$T227025 = -16						; size = 4
_iFlavorLoop$224041 = -12				; size = 4
_iPriority$ = -8					; size = 4
_pGrandStrategy$ = -4					; size = 4
_eGrandStrategy$ = 8					; size = 4
?GetBaseGrandStrategyPriority@CvGrandStrategyAI@@QAEHW4AIGrandStrategyTypes@@@Z PROC ; CvGrandStrategyAI::GetBaseGrandStrategyPriority, COMDAT
; _this$ = ecx

; 823  : {

	push	ebp
	mov	ebp, esp
	sub	esp, 20					; 00000014H
	push	esi
	mov	DWORD PTR _this$[ebp], ecx

; 824  : 	CvAIGrandStrategyXMLEntry* pGrandStrategy = GetAIGrandStrategies()->GetEntry(eGrandStrategy);

	mov	eax, DWORD PTR _eGrandStrategy$[ebp]
	push	eax
	mov	ecx, DWORD PTR _this$[ebp]
	call	?GetAIGrandStrategies@CvGrandStrategyAI@@QAEPAVCvAIGrandStrategyXMLEntries@@XZ ; CvGrandStrategyAI::GetAIGrandStrategies
	mov	ecx, eax
	call	?GetEntry@CvAIGrandStrategyXMLEntries@@QAEPAVCvAIGrandStrategyXMLEntry@@H@Z ; CvAIGrandStrategyXMLEntries::GetEntry
	mov	DWORD PTR _pGrandStrategy$[ebp], eax

; 825  : 
; 826  : 	int iPriority = 0;

	mov	DWORD PTR _iPriority$[ebp], 0

; 827  : 
; 828  : 	// Personality effect on Priority
; 829  : 	for(int iFlavorLoop = 0; iFlavorLoop < GC.getNumFlavorTypes(); iFlavorLoop++)

	mov	DWORD PTR _iFlavorLoop$224041[ebp], 0
	jmp	SHORT $LN4@GetBaseGra
$LN3@GetBaseGra:
	mov	ecx, DWORD PTR _iFlavorLoop$224041[ebp]
	add	ecx, 1
	mov	DWORD PTR _iFlavorLoop$224041[ebp], ecx
$LN4@GetBaseGra:
	mov	edx, DWORD PTR ?gGlobals@@3VCvGlobals@@A+1764
	mov	DWORD PTR $T227025[ebp], edx
	mov	eax, DWORD PTR _iFlavorLoop$224041[ebp]
	cmp	eax, DWORD PTR $T227025[ebp]
	jge	SHORT $LN2@GetBaseGra

; 830  : 	{
; 831  : 		if(pGrandStrategy->GetFlavorValue(iFlavorLoop) != 0)

	mov	ecx, DWORD PTR _iFlavorLoop$224041[ebp]
	push	ecx
	mov	ecx, DWORD PTR _pGrandStrategy$[ebp]
	call	?GetFlavorValue@CvAIGrandStrategyXMLEntry@@QBEHH@Z ; CvAIGrandStrategyXMLEntry::GetFlavorValue
	test	eax, eax
	je	SHORT $LN1@GetBaseGra

; 832  : 		{
; 833  : 			iPriority += (pGrandStrategy->GetFlavorValue(iFlavorLoop) * GetPlayer()->GetFlavorManager()->GetPersonalityIndividualFlavor((FlavorTypes) iFlavorLoop));

	mov	edx, DWORD PTR _iFlavorLoop$224041[ebp]
	push	edx
	mov	ecx, DWORD PTR _pGrandStrategy$[ebp]
	call	?GetFlavorValue@CvAIGrandStrategyXMLEntry@@QBEHH@Z ; CvAIGrandStrategyXMLEntry::GetFlavorValue
	mov	esi, eax
	mov	eax, DWORD PTR _iFlavorLoop$224041[ebp]
	push	eax
	mov	ecx, DWORD PTR _this$[ebp]
	call	?GetPlayer@CvGrandStrategyAI@@QAEPAVCvPlayer@@XZ ; CvGrandStrategyAI::GetPlayer
	mov	ecx, eax
	call	?GetFlavorManager@CvPlayer@@QBEPAVCvFlavorManager@@XZ ; CvPlayer::GetFlavorManager
	mov	ecx, eax
	call	?GetPersonalityIndividualFlavor@CvFlavorManager@@QAEHW4FlavorTypes@@@Z ; CvFlavorManager::GetPersonalityIndividualFlavor
	imul	esi, eax
	add	esi, DWORD PTR _iPriority$[ebp]
	mov	DWORD PTR _iPriority$[ebp], esi
$LN1@GetBaseGra:

; 834  : 		}
; 835  : 	}

	jmp	SHORT $LN3@GetBaseGra
$LN2@GetBaseGra:

; 836  : 
; 837  : 	return iPriority;

	mov	eax, DWORD PTR _iPriority$[ebp]

; 838  : }

	pop	esi
	mov	esp, ebp
	pop	ebp
	ret	4
?GetBaseGrandStrategyPriority@CvGrandStrategyAI@@QAEHW4AIGrandStrategyTypes@@@Z ENDP ; CvGrandStrategyAI::GetBaseGrandStrategyPriority
_TEXT	ENDS
PUBLIC	?GetPersonalityAndGrandStrategy@CvGrandStrategyAI@@QAEHW4FlavorTypes@@@Z ; CvGrandStrategyAI::GetPersonalityAndGrandStrategy
; Function compile flags: /Odtp
;	COMDAT ?GetPersonalityAndGrandStrategy@CvGrandStrategyAI@@QAEHW4FlavorTypes@@@Z
_TEXT	SEGMENT
tv90 = -24						; size = 4
_this$ = -20						; size = 4
$T227035 = -16						; size = 4
$T227028 = -12						; size = 4
_iModdedFlavor$224053 = -8				; size = 4
_pGrandStrategy$224052 = -4				; size = 4
_eFlavorType$ = 8					; size = 4
?GetPersonalityAndGrandStrategy@CvGrandStrategyAI@@QAEHW4FlavorTypes@@@Z PROC ; CvGrandStrategyAI::GetPersonalityAndGrandStrategy, COMDAT
; _this$ = ecx

; 846  : {

	push	ebp
	mov	ebp, esp
	sub	esp, 24					; 00000018H
	push	esi
	mov	DWORD PTR _this$[ebp], ecx

; 847  : 	if(m_eActiveGrandStrategy != NO_AIGRANDSTRATEGY)

	mov	eax, DWORD PTR _this$[ebp]
	cmp	DWORD PTR [eax+12], -1
	je	SHORT $LN1@GetPersona

; 848  : 	{
; 849  : 		CvAIGrandStrategyXMLEntry* pGrandStrategy = GetAIGrandStrategies()->GetEntry(m_eActiveGrandStrategy);

	mov	ecx, DWORD PTR _this$[ebp]
	mov	edx, DWORD PTR [ecx+12]
	push	edx
	mov	ecx, DWORD PTR _this$[ebp]
	call	?GetAIGrandStrategies@CvGrandStrategyAI@@QAEPAVCvAIGrandStrategyXMLEntries@@XZ ; CvGrandStrategyAI::GetAIGrandStrategies
	mov	ecx, eax
	call	?GetEntry@CvAIGrandStrategyXMLEntries@@QAEPAVCvAIGrandStrategyXMLEntry@@H@Z ; CvAIGrandStrategyXMLEntries::GetEntry
	mov	DWORD PTR _pGrandStrategy$224052[ebp], eax

; 850  : 		int iModdedFlavor = pGrandStrategy->GetFlavorModValue(eFlavorType) + m_pPlayer->GetFlavorManager()->GetPersonalityIndividualFlavor(eFlavorType);

	mov	eax, DWORD PTR _eFlavorType$[ebp]
	push	eax
	mov	ecx, DWORD PTR _pGrandStrategy$224052[ebp]
	call	?GetFlavorModValue@CvAIGrandStrategyXMLEntry@@QBEHH@Z ; CvAIGrandStrategyXMLEntry::GetFlavorModValue
	mov	esi, eax
	mov	ecx, DWORD PTR _eFlavorType$[ebp]
	push	ecx
	mov	edx, DWORD PTR _this$[ebp]
	mov	ecx, DWORD PTR [edx]
	call	?GetFlavorManager@CvPlayer@@QBEPAVCvFlavorManager@@XZ ; CvPlayer::GetFlavorManager
	mov	ecx, eax
	call	?GetPersonalityIndividualFlavor@CvFlavorManager@@QAEHW4FlavorTypes@@@Z ; CvFlavorManager::GetPersonalityIndividualFlavor
	add	esi, eax
	mov	DWORD PTR _iModdedFlavor$224053[ebp], esi

; 851  : 		iModdedFlavor = max(0,iModdedFlavor);

	mov	DWORD PTR $T227028[ebp], 0
	mov	eax, DWORD PTR $T227028[ebp]
	cmp	eax, DWORD PTR _iModdedFlavor$224053[ebp]
	jge	SHORT $LN6@GetPersona
	lea	ecx, DWORD PTR _iModdedFlavor$224053[ebp]
	mov	DWORD PTR tv90[ebp], ecx
	jmp	SHORT $LN7@GetPersona
$LN6@GetPersona:
	lea	edx, DWORD PTR $T227028[ebp]
	mov	DWORD PTR tv90[ebp], edx
$LN7@GetPersona:
	mov	eax, DWORD PTR tv90[ebp]
	mov	DWORD PTR $T227035[ebp], eax
	mov	ecx, DWORD PTR $T227035[ebp]
	mov	edx, DWORD PTR [ecx]
	mov	DWORD PTR _iModdedFlavor$224053[ebp], edx

; 852  : 		return iModdedFlavor;

	mov	eax, DWORD PTR _iModdedFlavor$224053[ebp]
	jmp	SHORT $LN2@GetPersona
$LN1@GetPersona:

; 853  : 	}
; 854  : 	return m_pPlayer->GetFlavorManager()->GetPersonalityIndividualFlavor(eFlavorType);

	mov	eax, DWORD PTR _eFlavorType$[ebp]
	push	eax
	mov	ecx, DWORD PTR _this$[ebp]
	mov	ecx, DWORD PTR [ecx]
	call	?GetFlavorManager@CvPlayer@@QBEPAVCvFlavorManager@@XZ ; CvPlayer::GetFlavorManager
	mov	ecx, eax
	call	?GetPersonalityIndividualFlavor@CvFlavorManager@@QAEHW4FlavorTypes@@@Z ; CvFlavorManager::GetPersonalityIndividualFlavor
$LN2@GetPersona:

; 855  : }

	pop	esi
	mov	esp, ebp
	pop	ebp
	ret	4
?GetPersonalityAndGrandStrategy@CvGrandStrategyAI@@QAEHW4FlavorTypes@@@Z ENDP ; CvGrandStrategyAI::GetPersonalityAndGrandStrategy
; Function compile flags: /Odtp
_TEXT	ENDS
;	COMDAT ?GetActiveGrandStrategy@CvGrandStrategyAI@@QBE?AW4AIGrandStrategyTypes@@XZ
_TEXT	SEGMENT
_this$ = -4						; size = 4
?GetActiveGrandStrategy@CvGrandStrategyAI@@QBE?AW4AIGrandStrategyTypes@@XZ PROC ; CvGrandStrategyAI::GetActiveGrandStrategy, COMDAT
; _this$ = ecx

; 859  : {

	push	ebp
	mov	ebp, esp
	push	ecx
	mov	DWORD PTR _this$[ebp], ecx

; 860  : 	return m_eActiveGrandStrategy;

	mov	eax, DWORD PTR _this$[ebp]
	mov	eax, DWORD PTR [eax+12]

; 861  : }

	mov	esp, ebp
	pop	ebp
	ret	0
?GetActiveGrandStrategy@CvGrandStrategyAI@@QBE?AW4AIGrandStrategyTypes@@XZ ENDP ; CvGrandStrategyAI::GetActiveGrandStrategy
_TEXT	ENDS
PUBLIC	?SetNumTurnsSinceActiveSet@CvGrandStrategyAI@@QAEXH@Z ; CvGrandStrategyAI::SetNumTurnsSinceActiveSet
; Function compile flags: /Odtp
;	COMDAT ?SetActiveGrandStrategy@CvGrandStrategyAI@@QAEXW4AIGrandStrategyTypes@@@Z
_TEXT	SEGMENT
_this$ = -4						; size = 4
_eGrandStrategy$ = 8					; size = 4
?SetActiveGrandStrategy@CvGrandStrategyAI@@QAEXW4AIGrandStrategyTypes@@@Z PROC ; CvGrandStrategyAI::SetActiveGrandStrategy, COMDAT
; _this$ = ecx

; 865  : {

	push	ebp
	mov	ebp, esp
	push	ecx
	mov	DWORD PTR _this$[ebp], ecx

; 866  : 	if(eGrandStrategy != NO_AIGRANDSTRATEGY)

	cmp	DWORD PTR _eGrandStrategy$[ebp], -1
	je	SHORT $LN2@SetActiveG

; 867  : 	{
; 868  : 		m_eActiveGrandStrategy = eGrandStrategy;

	mov	eax, DWORD PTR _this$[ebp]
	mov	ecx, DWORD PTR _eGrandStrategy$[ebp]
	mov	DWORD PTR [eax+12], ecx

; 869  : 
; 870  : 		SetNumTurnsSinceActiveSet(0);

	push	0
	mov	ecx, DWORD PTR _this$[ebp]
	call	?SetNumTurnsSinceActiveSet@CvGrandStrategyAI@@QAEXH@Z ; CvGrandStrategyAI::SetNumTurnsSinceActiveSet
$LN2@SetActiveG:

; 871  : 	}
; 872  : }

	mov	esp, ebp
	pop	ebp
	ret	4
?SetActiveGrandStrategy@CvGrandStrategyAI@@QAEXW4AIGrandStrategyTypes@@@Z ENDP ; CvGrandStrategyAI::SetActiveGrandStrategy
; Function compile flags: /Odtp
_TEXT	ENDS
;	COMDAT ?GetNumTurnsSinceActiveSet@CvGrandStrategyAI@@QBEHXZ
_TEXT	SEGMENT
_this$ = -4						; size = 4
?GetNumTurnsSinceActiveSet@CvGrandStrategyAI@@QBEHXZ PROC ; CvGrandStrategyAI::GetNumTurnsSinceActiveSet, COMDAT
; _this$ = ecx

; 876  : {

	push	ebp
	mov	ebp, esp
	push	ecx
	mov	DWORD PTR _this$[ebp], ecx

; 877  : 	return m_iNumTurnsSinceActiveSet;

	mov	eax, DWORD PTR _this$[ebp]
	mov	eax, DWORD PTR [eax+8]

; 878  : }

	mov	esp, ebp
	pop	ebp
	ret	0
?GetNumTurnsSinceActiveSet@CvGrandStrategyAI@@QBEHXZ ENDP ; CvGrandStrategyAI::GetNumTurnsSinceActiveSet
; Function compile flags: /Odtp
_TEXT	ENDS
;	COMDAT ?SetNumTurnsSinceActiveSet@CvGrandStrategyAI@@QAEXH@Z
_TEXT	SEGMENT
_this$ = -4						; size = 4
_iValue$ = 8						; size = 4
?SetNumTurnsSinceActiveSet@CvGrandStrategyAI@@QAEXH@Z PROC ; CvGrandStrategyAI::SetNumTurnsSinceActiveSet, COMDAT
; _this$ = ecx

; 882  : {

	push	ebp
	mov	ebp, esp
	push	ecx
	mov	DWORD PTR _this$[ebp], ecx

; 883  : 	m_iNumTurnsSinceActiveSet = iValue;

	mov	eax, DWORD PTR _this$[ebp]
	mov	ecx, DWORD PTR _iValue$[ebp]
	mov	DWORD PTR [eax+8], ecx

; 884  : 	FAssert(m_iNumTurnsSinceActiveSet >= 0);
; 885  : }

	mov	esp, ebp
	pop	ebp
	ret	4
?SetNumTurnsSinceActiveSet@CvGrandStrategyAI@@QAEXH@Z ENDP ; CvGrandStrategyAI::SetNumTurnsSinceActiveSet
; Function compile flags: /Odtp
_TEXT	ENDS
;	COMDAT ?ChangeNumTurnsSinceActiveSet@CvGrandStrategyAI@@QAEXH@Z
_TEXT	SEGMENT
_this$ = -4						; size = 4
_iChange$ = 8						; size = 4
?ChangeNumTurnsSinceActiveSet@CvGrandStrategyAI@@QAEXH@Z PROC ; CvGrandStrategyAI::ChangeNumTurnsSinceActiveSet, COMDAT
; _this$ = ecx

; 889  : {

	push	ebp
	mov	ebp, esp
	push	ecx
	mov	DWORD PTR _this$[ebp], ecx

; 890  : 	if(iChange != 0)

	cmp	DWORD PTR _iChange$[ebp], 0
	je	SHORT $LN2@ChangeNumT

; 891  : 	{
; 892  : 		m_iNumTurnsSinceActiveSet += iChange;

	mov	eax, DWORD PTR _this$[ebp]
	mov	ecx, DWORD PTR [eax+8]
	add	ecx, DWORD PTR _iChange$[ebp]
	mov	edx, DWORD PTR _this$[ebp]
	mov	DWORD PTR [edx+8], ecx
$LN2@ChangeNumT:

; 893  : 	}
; 894  : 
; 895  : 	FAssert(m_iNumTurnsSinceActiveSet >= 0);
; 896  : }

	mov	esp, ebp
	pop	ebp
	ret	4
?ChangeNumTurnsSinceActiveSet@CvGrandStrategyAI@@QAEXH@Z ENDP ; CvGrandStrategyAI::ChangeNumTurnsSinceActiveSet
; Function compile flags: /Odtp
_TEXT	ENDS
;	COMDAT ?GetGrandStrategyPriority@CvGrandStrategyAI@@QBEHW4AIGrandStrategyTypes@@@Z
_TEXT	SEGMENT
_this$ = -4						; size = 4
_eGrandStrategy$ = 8					; size = 4
?GetGrandStrategyPriority@CvGrandStrategyAI@@QBEHW4AIGrandStrategyTypes@@@Z PROC ; CvGrandStrategyAI::GetGrandStrategyPriority, COMDAT
; _this$ = ecx

; 900  : {

	push	ebp
	mov	ebp, esp
	push	ecx
	mov	DWORD PTR _this$[ebp], ecx

; 901  : 	FAssert(eGrandStrategy != NO_AIGRANDSTRATEGY);
; 902  : 	return m_paiGrandStrategyPriority[eGrandStrategy];

	mov	eax, DWORD PTR _this$[ebp]
	mov	ecx, DWORD PTR [eax+16]
	mov	edx, DWORD PTR _eGrandStrategy$[ebp]
	mov	eax, DWORD PTR [ecx+edx*4]

; 903  : }

	mov	esp, ebp
	pop	ebp
	ret	4
?GetGrandStrategyPriority@CvGrandStrategyAI@@QBEHW4AIGrandStrategyTypes@@@Z ENDP ; CvGrandStrategyAI::GetGrandStrategyPriority
; Function compile flags: /Odtp
_TEXT	ENDS
;	COMDAT ?SetGrandStrategyPriority@CvGrandStrategyAI@@QAEXW4AIGrandStrategyTypes@@H@Z
_TEXT	SEGMENT
_this$ = -4						; size = 4
_eGrandStrategy$ = 8					; size = 4
_iValue$ = 12						; size = 4
?SetGrandStrategyPriority@CvGrandStrategyAI@@QAEXW4AIGrandStrategyTypes@@H@Z PROC ; CvGrandStrategyAI::SetGrandStrategyPriority, COMDAT
; _this$ = ecx

; 907  : {

	push	ebp
	mov	ebp, esp
	push	ecx
	mov	DWORD PTR _this$[ebp], ecx

; 908  : 	FAssert(eGrandStrategy != NO_AIGRANDSTRATEGY);
; 909  : 	m_paiGrandStrategyPriority[eGrandStrategy] = iValue;

	mov	eax, DWORD PTR _this$[ebp]
	mov	ecx, DWORD PTR [eax+16]
	mov	edx, DWORD PTR _eGrandStrategy$[ebp]
	mov	eax, DWORD PTR _iValue$[ebp]
	mov	DWORD PTR [ecx+edx*4], eax

; 910  : }

	mov	esp, ebp
	pop	ebp
	ret	8
?SetGrandStrategyPriority@CvGrandStrategyAI@@QAEXW4AIGrandStrategyTypes@@H@Z ENDP ; CvGrandStrategyAI::SetGrandStrategyPriority
; Function compile flags: /Odtp
_TEXT	ENDS
;	COMDAT ?ChangeGrandStrategyPriority@CvGrandStrategyAI@@QAEXW4AIGrandStrategyTypes@@H@Z
_TEXT	SEGMENT
_this$ = -4						; size = 4
_eGrandStrategy$ = 8					; size = 4
_iChange$ = 12						; size = 4
?ChangeGrandStrategyPriority@CvGrandStrategyAI@@QAEXW4AIGrandStrategyTypes@@H@Z PROC ; CvGrandStrategyAI::ChangeGrandStrategyPriority, COMDAT
; _this$ = ecx

; 914  : {

	push	ebp
	mov	ebp, esp
	push	ecx
	mov	DWORD PTR _this$[ebp], ecx

; 915  : 	FAssert(eGrandStrategy != NO_AIGRANDSTRATEGY);
; 916  : 
; 917  : 	if(iChange != 0)

	cmp	DWORD PTR _iChange$[ebp], 0
	je	SHORT $LN2@ChangeGran

; 918  : 	{
; 919  : 		m_paiGrandStrategyPriority[eGrandStrategy] += iChange;

	mov	eax, DWORD PTR _this$[ebp]
	mov	ecx, DWORD PTR [eax+16]
	mov	edx, DWORD PTR _eGrandStrategy$[ebp]
	mov	eax, DWORD PTR [ecx+edx*4]
	add	eax, DWORD PTR _iChange$[ebp]
	mov	ecx, DWORD PTR _this$[ebp]
	mov	edx, DWORD PTR [ecx+16]
	mov	ecx, DWORD PTR _eGrandStrategy$[ebp]
	mov	DWORD PTR [edx+ecx*4], eax
$LN2@ChangeGran:

; 920  : 	}
; 921  : }

	mov	esp, ebp
	pop	ebp
	ret	8
?ChangeGrandStrategyPriority@CvGrandStrategyAI@@QAEXW4AIGrandStrategyTypes@@H@Z ENDP ; CvGrandStrategyAI::ChangeGrandStrategyPriority
_TEXT	ENDS
PUBLIC	??1?$CvWeightedVector@H$04$00@@QAE@XZ		; CvWeightedVector<int,5,1>::~CvWeightedVector<int,5,1>
PUBLIC	??1?$FStaticVector@UWeightedElement@?$CvWeightedVector@H$04$00@@$04$00$0A@$0A@@@QAE@XZ ; FStaticVector<CvWeightedVector<int,5,1>::WeightedElement,5,1,0,0>::~FStaticVector<CvWeightedVector<int,5,1>::WeightedElement,5,1,0,0>
PUBLIC	?LogGuessOtherPlayerGrandStrategy@CvGrandStrategyAI@@AAEXABV?$FStaticVector@H$04$00$0BCJ@$0A@@@W4PlayerTypes@@@Z ; CvGrandStrategyAI::LogGuessOtherPlayerGrandStrategy
PUBLIC	?SetGuessOtherPlayerActiveGrandStrategy@CvGrandStrategyAI@@QAEXW4PlayerTypes@@W4AIGrandStrategyTypes@@W4GuessConfidenceTypes@@@Z ; CvGrandStrategyAI::SetGuessOtherPlayerActiveGrandStrategy
PUBLIC	?SortItems@?$CvWeightedVector@H$04$00@@QAEXXZ	; CvWeightedVector<int,5,1>::SortItems
PUBLIC	?push_back@?$FStaticVector@UWeightedElement@?$CvWeightedVector@H$04$00@@$04$00$0A@$0A@@@QAEIABUWeightedElement@?$CvWeightedVector@H$04$00@@@Z ; FStaticVector<CvWeightedVector<int,5,1>::WeightedElement,5,1,0,0>::push_back
PUBLIC	?GetGuessOtherPlayerSpaceshipPriority@CvGrandStrategyAI@@QAEHW4PlayerTypes@@H@Z ; CvGrandStrategyAI::GetGuessOtherPlayerSpaceshipPriority
PUBLIC	?GetGuessOtherPlayerUnitedNationsPriority@CvGrandStrategyAI@@QAEHW4PlayerTypes@@@Z ; CvGrandStrategyAI::GetGuessOtherPlayerUnitedNationsPriority
PUBLIC	?GetGuessOtherPlayerCulturePriority@CvGrandStrategyAI@@QAEHW4PlayerTypes@@HH@Z ; CvGrandStrategyAI::GetGuessOtherPlayerCulturePriority
PUBLIC	?GetGuessOtherPlayerConquestPriority@CvGrandStrategyAI@@QAEHW4PlayerTypes@@H@Z ; CvGrandStrategyAI::GetGuessOtherPlayerConquestPriority
PUBLIC	??0?$FStaticVector@UWeightedElement@?$CvWeightedVector@H$04$00@@$04$00$0A@$0A@@@QAE@XZ ; FStaticVector<CvWeightedVector<int,5,1>::WeightedElement,5,1,0,0>::FStaticVector<CvWeightedVector<int,5,1>::WeightedElement,5,1,0,0>
PUBLIC	__$ArrayPad$
EXTRN	?GetNumTechsKnown@CvTeamTechs@@QBEHXZ:PROC	; CvTeamTechs::GetNumTechsKnown
EXTRN	?GetTeamTechs@CvTeam@@QBEPAVCvTeamTechs@@XZ:PROC ; CvTeam::GetTeamTechs
EXTRN	?GetJONSCultureEverGenerated@CvPlayer@@QBEHXZ:PROC ; CvPlayer::GetJONSCultureEverGenerated
;	COMDAT xdata$x
; File d:\sources\lekmod_git\checkout\lekmod_dll\fireplace\include\fireworks\ffastvector.h
xdata$x	SEGMENT
__unwindtable$?DoGuessOtherPlayersActiveGrandStrategy@CvGrandStrategyAI@@QAEXXZ DD 0ffffffffH
	DD	FLAT:__unwindfunclet$?DoGuessOtherPlayersActiveGrandStrategy@CvGrandStrategyAI@@QAEXXZ$0
	DD	00H
	DD	FLAT:__unwindfunclet$?DoGuessOtherPlayersActiveGrandStrategy@CvGrandStrategyAI@@QAEXXZ$1
	DD	01H
	DD	FLAT:__unwindfunclet$?DoGuessOtherPlayersActiveGrandStrategy@CvGrandStrategyAI@@QAEXXZ$2
	DD	02H
	DD	FLAT:__unwindfunclet$?DoGuessOtherPlayersActiveGrandStrategy@CvGrandStrategyAI@@QAEXXZ$3
__ehfuncinfo$?DoGuessOtherPlayersActiveGrandStrategy@CvGrandStrategyAI@@QAEXXZ DD 019930522H
	DD	04H
	DD	FLAT:__unwindtable$?DoGuessOtherPlayersActiveGrandStrategy@CvGrandStrategyAI@@QAEXXZ
	DD	2 DUP(00H)
	DD	2 DUP(00H)
	DD	00H
	DD	01H
; Function compile flags: /Odtp
; File d:\sources\lekmod_git\checkout\lekmod_dll\cvgamecoredll_expansion2\cvgrandstrategyai.cpp
xdata$x	ENDS
;	COMDAT ?DoGuessOtherPlayersActiveGrandStrategy@CvGrandStrategyAI@@QAEXXZ
_TEXT	SEGMENT
tv437 = -408						; size = 4
_this$ = -404						; size = 4
_i$227323 = -376					; size = 4
_i$227305 = -372					; size = 4
$T227279 = -368						; size = 4
$T227275 = -364						; size = 4
_elem$227266 = -360					; size = 8
$T227230 = -340						; size = 4
_weightedElem$227226 = -336				; size = 8
$T227220 = -328						; size = 4
$T227212 = -324						; size = 4
$T227200 = -316						; size = 4
_weightedElem$227196 = -312				; size = 8
$T227186 = -304						; size = 4
$T227174 = -300						; size = 4
$T227170 = -296						; size = 4
$T227161 = -292						; size = 4
$T227157 = -288						; size = 4
$T227156 = -284						; size = 4
$T227147 = -277						; size = 1
$T227138 = -276						; size = 4
$T227134 = -272						; size = 4
$T227127 = -268						; size = 4
$T227123 = -264						; size = 4
$T227119 = -260						; size = 4
$T227115 = -253						; size = 1
$T227106 = -252						; size = 4
$T227102 = -248						; size = 4
$T227098 = -244						; size = 4
$T227097 = -240						; size = 4
$T227085 = -236						; size = 4
$T227084 = -232						; size = 4
$T227058 = -228						; size = 4
$T227057 = -224						; size = 28
_iTeamLoop$224331 = -196				; size = 4
_eMajor$ = -192						; size = 4
_vGrandStrategyPrioritiesForLogging$ = -188		; size = 36
_pTeam$ = -152						; size = 4
_iPriority$ = -148					; size = 4
_iWorldMilitaryAverage$ = -144				; size = 4
_iGrandStrategiesLoop$ = -140				; size = 4
_iWorldNumTechsAverage$ = -136				; size = 4
_eGrandStrategy$ = -132					; size = 4
_iMajorLoop$ = -128					; size = 4
_iWorldCultureAverage$ = -124				; size = 4
_eGuessConfidence$ = -120				; size = 4
_vGrandStrategyPriorities$ = -116			; size = 56
_iWorldTourismAverage$ = -60				; size = 4
_iNumPlayersAlive$ = -56				; size = 4
_strGrandStrategyName$ = -52				; size = 28
__$ArrayPad$ = -24					; size = 4
_eTeam$ = -20						; size = 4
_pGrandStrategy$ = -16					; size = 4
__$EHRec$ = -12						; size = 12
?DoGuessOtherPlayersActiveGrandStrategy@CvGrandStrategyAI@@QAEXXZ PROC ; CvGrandStrategyAI::DoGuessOtherPlayersActiveGrandStrategy, COMDAT
; _this$ = ecx

; 933  : {

	push	ebp
	mov	ebp, esp
	push	-1
	push	__ehhandler$?DoGuessOtherPlayersActiveGrandStrategy@CvGrandStrategyAI@@QAEXXZ
	mov	eax, DWORD PTR fs:0
	push	eax
	sub	esp, 396				; 0000018cH
	mov	eax, DWORD PTR ___security_cookie
	xor	eax, ebp
	mov	DWORD PTR __$ArrayPad$[ebp], eax
	push	eax
	lea	eax, DWORD PTR __$EHRec$[ebp]
	mov	DWORD PTR fs:0, eax
	mov	DWORD PTR _this$[ebp], ecx

; 934  : 	CvWeightedVector<int, 5, true> vGrandStrategyPriorities;

	lea	ecx, DWORD PTR _vGrandStrategyPriorities$[ebp]
	call	??0?$FStaticVector@UWeightedElement@?$CvWeightedVector@H$04$00@@$04$00$0A@$0A@@@QAE@XZ ; FStaticVector<CvWeightedVector<int,5,1>::WeightedElement,5,1,0,0>::FStaticVector<CvWeightedVector<int,5,1>::WeightedElement,5,1,0,0>
	mov	DWORD PTR __$EHRec$[ebp+8], 0

; 935  : 	FStaticVector< int, 5, true, c_eCiv5GameplayDLL >  vGrandStrategyPrioritiesForLogging;

	lea	ecx, DWORD PTR _vGrandStrategyPrioritiesForLogging$[ebp]
	call	??0?$FStaticVector@H$04$00$0BCJ@$0A@@@QAE@XZ ; FStaticVector<int,5,1,297,0>::FStaticVector<int,5,1,297,0>
	mov	BYTE PTR __$EHRec$[ebp+8], 1

; 936  : 
; 937  : 	GuessConfidenceTypes eGuessConfidence = NO_GUESS_CONFIDENCE_TYPE;

	mov	DWORD PTR _eGuessConfidence$[ebp], -1

; 938  : 
; 939  : #ifdef AUI_WARNING_FIXES
; 940  : 	uint iGrandStrategiesLoop = 0;
; 941  : #else
; 942  : 	int iGrandStrategiesLoop = 0;

	mov	DWORD PTR _iGrandStrategiesLoop$[ebp], 0

; 943  : #endif
; 944  : 	AIGrandStrategyTypes eGrandStrategy = NO_AIGRANDSTRATEGY;

	mov	DWORD PTR _eGrandStrategy$[ebp], -1

; 945  : 	CvAIGrandStrategyXMLEntry* pGrandStrategy = 0;

	mov	DWORD PTR _pGrandStrategy$[ebp], 0

; 946  : 	CvString strGrandStrategyName;

	lea	ecx, DWORD PTR _strGrandStrategyName$[ebp]
	call	DWORD PTR __imp_??0?$basic_string@DU?$char_traits@D@std@@V?$allocator@D@2@@std@@QAE@XZ
	mov	BYTE PTR __$EHRec$[ebp+8], 2

; 947  : 
; 948  : 	CvTeam& pTeam = GET_TEAM(GetPlayer()->getTeam());

	mov	ecx, DWORD PTR _this$[ebp]
	call	?GetPlayer@CvGrandStrategyAI@@QAEPAVCvPlayer@@XZ ; CvGrandStrategyAI::GetPlayer
	mov	DWORD PTR $T227084[ebp], eax
	mov	eax, DWORD PTR $T227084[ebp]
	mov	ecx, DWORD PTR [eax+44]
	push	ecx
	call	?teamType@CvPreGame@@YA?AW4TeamTypes@@W4PlayerTypes@@@Z ; CvPreGame::teamType
	add	esp, 4
	mov	DWORD PTR $T227085[ebp], eax
	mov	edx, DWORD PTR $T227085[ebp]
	imul	edx, 2984				; 00000ba8H
	add	edx, DWORD PTR ?m_aTeams@CvTeam@@1PAV1@A ; CvTeam::m_aTeams
	mov	DWORD PTR _pTeam$[ebp], edx

; 949  : 
; 950  : 	int iMajorLoop = 0;

	mov	DWORD PTR _iMajorLoop$[ebp], 0

; 951  : 	PlayerTypes eMajor = NO_PLAYER;

	mov	DWORD PTR _eMajor$[ebp], -1

; 952  : 
; 953  : 	int iPriority = 0;

	mov	DWORD PTR _iPriority$[ebp], 0

; 954  : 
; 955  : 	// Establish world Military strength average
; 956  : 	int iWorldMilitaryAverage = GC.getGame().GetWorldMilitaryStrengthAverage(GetPlayer()->GetID(), true, true);

	mov	ecx, DWORD PTR _this$[ebp]
	call	?GetPlayer@CvGrandStrategyAI@@QAEPAVCvPlayer@@XZ ; CvGrandStrategyAI::GetPlayer
	mov	DWORD PTR $T227097[ebp], eax
	mov	eax, DWORD PTR $T227097[ebp]
	mov	ecx, DWORD PTR [eax+44]
	mov	DWORD PTR $T227098[ebp], ecx
	mov	edx, DWORD PTR ?gGlobals@@3VCvGlobals@@A+48
	mov	DWORD PTR $T227102[ebp], edx
	push	1
	push	1
	mov	eax, DWORD PTR $T227098[ebp]
	push	eax
	mov	ecx, DWORD PTR $T227102[ebp]
	call	?GetWorldMilitaryStrengthAverage@CvGame@@QAEHW4PlayerTypes@@_N1@Z ; CvGame::GetWorldMilitaryStrengthAverage
	mov	DWORD PTR _iWorldMilitaryAverage$[ebp], eax

; 957  : 
; 958  : 	// Establish world culture and tourism averages
; 959  : 	int iNumPlayersAlive = 0;

	mov	DWORD PTR _iNumPlayersAlive$[ebp], 0

; 960  : 	int iWorldCultureAverage = 0;

	mov	DWORD PTR _iWorldCultureAverage$[ebp], 0

; 961  : 	int iWorldTourismAverage = 0;

	mov	DWORD PTR _iWorldTourismAverage$[ebp], 0

; 962  : 	for(iMajorLoop = 0; iMajorLoop < MAX_MAJOR_CIVS; iMajorLoop++)

	mov	DWORD PTR _iMajorLoop$[ebp], 0
	jmp	SHORT $LN29@DoGuessOth
$LN28@DoGuessOth:
	mov	ecx, DWORD PTR _iMajorLoop$[ebp]
	add	ecx, 1
	mov	DWORD PTR _iMajorLoop$[ebp], ecx
$LN29@DoGuessOth:
	cmp	DWORD PTR _iMajorLoop$[ebp], 22		; 00000016H
	jge	$LN27@DoGuessOth

; 963  : 	{
; 964  : 		eMajor = (PlayerTypes) iMajorLoop;

	mov	edx, DWORD PTR _iMajorLoop$[ebp]
	mov	DWORD PTR _eMajor$[ebp], edx

; 965  : 
; 966  : 		if(GET_PLAYER(eMajor).isAlive())

	mov	eax, DWORD PTR _eMajor$[ebp]
	imul	eax, 63236				; 0000f704H
	add	eax, DWORD PTR ?m_aPlayers@CvPlayerAI@@1PAV1@A ; CvPlayerAI::m_aPlayers
	mov	DWORD PTR $T227106[ebp], eax
	mov	ecx, DWORD PTR $T227106[ebp]
	mov	dl, BYTE PTR [ecx+2256]
	mov	BYTE PTR $T227115[ebp], dl
	movzx	eax, BYTE PTR $T227115[ebp]
	test	eax, eax
	je	SHORT $LN26@DoGuessOth

; 967  : 		{
; 968  : 			iWorldCultureAverage += GET_PLAYER(eMajor).GetJONSCultureEverGenerated();

	mov	ecx, DWORD PTR _eMajor$[ebp]
	imul	ecx, 63236				; 0000f704H
	add	ecx, DWORD PTR ?m_aPlayers@CvPlayerAI@@1PAV1@A ; CvPlayerAI::m_aPlayers
	mov	DWORD PTR $T227119[ebp], ecx
	mov	ecx, DWORD PTR $T227119[ebp]
	call	?GetJONSCultureEverGenerated@CvPlayer@@QBEHXZ ; CvPlayer::GetJONSCultureEverGenerated
	add	eax, DWORD PTR _iWorldCultureAverage$[ebp]
	mov	DWORD PTR _iWorldCultureAverage$[ebp], eax

; 969  : 			iWorldTourismAverage += GET_PLAYER(eMajor).GetCulture()->GetTourism();

	mov	edx, DWORD PTR _eMajor$[ebp]
	imul	edx, 63236				; 0000f704H
	add	edx, DWORD PTR ?m_aPlayers@CvPlayerAI@@1PAV1@A ; CvPlayerAI::m_aPlayers
	mov	DWORD PTR $T227123[ebp], edx
	mov	ecx, DWORD PTR $T227123[ebp]
	call	?GetCulture@CvPlayer@@QBEPAVCvPlayerCulture@@XZ ; CvPlayer::GetCulture
	mov	ecx, eax
	call	?GetTourism@CvPlayerCulture@@QAEHXZ	; CvPlayerCulture::GetTourism
	add	eax, DWORD PTR _iWorldTourismAverage$[ebp]
	mov	DWORD PTR _iWorldTourismAverage$[ebp], eax

; 970  : 			iNumPlayersAlive++;

	mov	eax, DWORD PTR _iNumPlayersAlive$[ebp]
	add	eax, 1
	mov	DWORD PTR _iNumPlayersAlive$[ebp], eax
$LN26@DoGuessOth:

; 971  : 		}
; 972  : 	}

	jmp	$LN28@DoGuessOth
$LN27@DoGuessOth:

; 973  : 	iWorldCultureAverage /= iNumPlayersAlive;

	mov	eax, DWORD PTR _iWorldCultureAverage$[ebp]
	cdq
	idiv	DWORD PTR _iNumPlayersAlive$[ebp]
	mov	DWORD PTR _iWorldCultureAverage$[ebp], eax

; 974  : 	iWorldTourismAverage /= iNumPlayersAlive;

	mov	eax, DWORD PTR _iWorldTourismAverage$[ebp]
	cdq
	idiv	DWORD PTR _iNumPlayersAlive$[ebp]
	mov	DWORD PTR _iWorldTourismAverage$[ebp], eax

; 975  : 
; 976  : 	// Establish world Tech progress average
; 977  : 	iNumPlayersAlive = 0;

	mov	DWORD PTR _iNumPlayersAlive$[ebp], 0

; 978  : 	int iWorldNumTechsAverage = 0;

	mov	DWORD PTR _iWorldNumTechsAverage$[ebp], 0

; 979  : 	TeamTypes eTeam;
; 980  : 	for(int iTeamLoop = 0; iTeamLoop < MAX_MAJOR_CIVS; iTeamLoop++)	// Looping over all MAJOR teams

	mov	DWORD PTR _iTeamLoop$224331[ebp], 0
	jmp	SHORT $LN25@DoGuessOth
$LN24@DoGuessOth:
	mov	ecx, DWORD PTR _iTeamLoop$224331[ebp]
	add	ecx, 1
	mov	DWORD PTR _iTeamLoop$224331[ebp], ecx
$LN25@DoGuessOth:
	cmp	DWORD PTR _iTeamLoop$224331[ebp], 22	; 00000016H
	jge	SHORT $LN23@DoGuessOth

; 981  : 	{
; 982  : 		eTeam = (TeamTypes) iTeamLoop;

	mov	edx, DWORD PTR _iTeamLoop$224331[ebp]
	mov	DWORD PTR _eTeam$[ebp], edx

; 983  : 
; 984  : 		if(GET_TEAM(eTeam).isAlive())

	mov	eax, DWORD PTR _eTeam$[ebp]
	imul	eax, 2984				; 00000ba8H
	add	eax, DWORD PTR ?m_aTeams@CvTeam@@1PAV1@A ; CvTeam::m_aTeams
	mov	DWORD PTR $T227127[ebp], eax
	mov	ecx, DWORD PTR $T227127[ebp]
	xor	edx, edx
	cmp	DWORD PTR [ecx+12], 0
	setg	dl
	movzx	eax, dl
	test	eax, eax
	je	SHORT $LN22@DoGuessOth

; 985  : 		{
; 986  : 			iWorldNumTechsAverage += GET_TEAM(eTeam).GetTeamTechs()->GetNumTechsKnown();

	mov	ecx, DWORD PTR _eTeam$[ebp]
	imul	ecx, 2984				; 00000ba8H
	add	ecx, DWORD PTR ?m_aTeams@CvTeam@@1PAV1@A ; CvTeam::m_aTeams
	mov	DWORD PTR $T227134[ebp], ecx
	mov	ecx, DWORD PTR $T227134[ebp]
	call	?GetTeamTechs@CvTeam@@QBEPAVCvTeamTechs@@XZ ; CvTeam::GetTeamTechs
	mov	ecx, eax
	call	?GetNumTechsKnown@CvTeamTechs@@QBEHXZ	; CvTeamTechs::GetNumTechsKnown
	add	eax, DWORD PTR _iWorldNumTechsAverage$[ebp]
	mov	DWORD PTR _iWorldNumTechsAverage$[ebp], eax

; 987  : 			iNumPlayersAlive++;

	mov	edx, DWORD PTR _iNumPlayersAlive$[ebp]
	add	edx, 1
	mov	DWORD PTR _iNumPlayersAlive$[ebp], edx
$LN22@DoGuessOth:

; 988  : 		}
; 989  : 	}

	jmp	$LN24@DoGuessOth
$LN23@DoGuessOth:

; 990  : 	iWorldNumTechsAverage /= iNumPlayersAlive;

	mov	eax, DWORD PTR _iWorldNumTechsAverage$[ebp]
	cdq
	idiv	DWORD PTR _iNumPlayersAlive$[ebp]
	mov	DWORD PTR _iWorldNumTechsAverage$[ebp], eax

; 991  : 
; 992  : 	// Look at every Major we've met
; 993  : 	for(iMajorLoop = 0; iMajorLoop < MAX_MAJOR_CIVS; iMajorLoop++)

	mov	DWORD PTR _iMajorLoop$[ebp], 0
	jmp	SHORT $LN21@DoGuessOth
$LN20@DoGuessOth:
	mov	eax, DWORD PTR _iMajorLoop$[ebp]
	add	eax, 1
	mov	DWORD PTR _iMajorLoop$[ebp], eax
$LN21@DoGuessOth:
	cmp	DWORD PTR _iMajorLoop$[ebp], 22		; 00000016H
	jge	$LN19@DoGuessOth

; 994  : 	{
; 995  : 		eMajor = (PlayerTypes) iMajorLoop;

	mov	ecx, DWORD PTR _iMajorLoop$[ebp]
	mov	DWORD PTR _eMajor$[ebp], ecx

; 996  : 
; 997  : 		if(GET_PLAYER(eMajor).isAlive() && iMajorLoop != GetPlayer()->GetID())

	mov	edx, DWORD PTR _eMajor$[ebp]
	imul	edx, 63236				; 0000f704H
	add	edx, DWORD PTR ?m_aPlayers@CvPlayerAI@@1PAV1@A ; CvPlayerAI::m_aPlayers
	mov	DWORD PTR $T227138[ebp], edx
	mov	eax, DWORD PTR $T227138[ebp]
	mov	cl, BYTE PTR [eax+2256]
	mov	BYTE PTR $T227147[ebp], cl
	movzx	edx, BYTE PTR $T227147[ebp]
	test	edx, edx
	je	$LN18@DoGuessOth
	mov	ecx, DWORD PTR _this$[ebp]
	call	?GetPlayer@CvGrandStrategyAI@@QAEPAVCvPlayer@@XZ ; CvGrandStrategyAI::GetPlayer
	mov	DWORD PTR $T227156[ebp], eax
	mov	eax, DWORD PTR $T227156[ebp]
	mov	ecx, DWORD PTR [eax+44]
	mov	DWORD PTR $T227157[ebp], ecx
	mov	edx, DWORD PTR _iMajorLoop$[ebp]
	cmp	edx, DWORD PTR $T227157[ebp]
	je	$LN18@DoGuessOth

; 998  : 		{
; 999  : 			if(pTeam.isHasMet(GET_PLAYER(eMajor).getTeam()))

	mov	eax, DWORD PTR _eMajor$[ebp]
	imul	eax, 63236				; 0000f704H
	add	eax, DWORD PTR ?m_aPlayers@CvPlayerAI@@1PAV1@A ; CvPlayerAI::m_aPlayers
	mov	DWORD PTR $T227161[ebp], eax
	mov	ecx, DWORD PTR $T227161[ebp]
	mov	edx, DWORD PTR [ecx+44]
	push	edx
	call	?teamType@CvPreGame@@YA?AW4TeamTypes@@W4PlayerTypes@@@Z ; CvPreGame::teamType
	add	esp, 4
	mov	DWORD PTR $T227170[ebp], eax
	mov	eax, DWORD PTR $T227170[ebp]
	push	eax
	mov	ecx, DWORD PTR _pTeam$[ebp]
	call	?isHasMet@CvTeam@@QBE_NW4TeamTypes@@@Z	; CvTeam::isHasMet
	movzx	ecx, al
	test	ecx, ecx
	je	$LN18@DoGuessOth

; 1000 : 			{
; 1001 : 				for(iGrandStrategiesLoop = 0; iGrandStrategiesLoop < GetAIGrandStrategies()->GetNumAIGrandStrategies(); iGrandStrategiesLoop++)

	mov	DWORD PTR _iGrandStrategiesLoop$[ebp], 0
	jmp	SHORT $LN16@DoGuessOth
$LN15@DoGuessOth:
	mov	edx, DWORD PTR _iGrandStrategiesLoop$[ebp]
	add	edx, 1
	mov	DWORD PTR _iGrandStrategiesLoop$[ebp], edx
$LN16@DoGuessOth:
	mov	ecx, DWORD PTR _this$[ebp]
	call	?GetAIGrandStrategies@CvGrandStrategyAI@@QAEPAVCvAIGrandStrategyXMLEntries@@XZ ; CvGrandStrategyAI::GetAIGrandStrategies
	mov	ecx, eax
	call	?GetNumAIGrandStrategies@CvAIGrandStrategyXMLEntries@@QAEHXZ ; CvAIGrandStrategyXMLEntries::GetNumAIGrandStrategies
	cmp	DWORD PTR _iGrandStrategiesLoop$[ebp], eax
	jge	$LN14@DoGuessOth

; 1002 : 				{
; 1003 : 					eGrandStrategy = (AIGrandStrategyTypes) iGrandStrategiesLoop;

	mov	eax, DWORD PTR _iGrandStrategiesLoop$[ebp]
	mov	DWORD PTR _eGrandStrategy$[ebp], eax

; 1004 : 					pGrandStrategy = GetAIGrandStrategies()->GetEntry(iGrandStrategiesLoop);

	mov	ecx, DWORD PTR _iGrandStrategiesLoop$[ebp]
	push	ecx
	mov	ecx, DWORD PTR _this$[ebp]
	call	?GetAIGrandStrategies@CvGrandStrategyAI@@QAEPAVCvAIGrandStrategyXMLEntries@@XZ ; CvGrandStrategyAI::GetAIGrandStrategies
	mov	ecx, eax
	call	?GetEntry@CvAIGrandStrategyXMLEntries@@QAEPAVCvAIGrandStrategyXMLEntry@@H@Z ; CvAIGrandStrategyXMLEntries::GetEntry
	mov	DWORD PTR _pGrandStrategy$[ebp], eax

; 1005 : 					strGrandStrategyName = (CvString) pGrandStrategy->GetType();

	mov	ecx, DWORD PTR _pGrandStrategy$[ebp]
	add	ecx, 176				; 000000b0H
	call	DWORD PTR __imp_?c_str@?$basic_string@DU?$char_traits@D@std@@V?$allocator@D@2@@std@@QBEPBDXZ
	mov	DWORD PTR $T227174[ebp], eax
	cmp	DWORD PTR $T227174[ebp], 0
	je	SHORT $LN95@DoGuessOth
	mov	edx, DWORD PTR $T227174[ebp]
	mov	DWORD PTR tv437[ebp], edx
	jmp	SHORT $LN96@DoGuessOth
$LN95@DoGuessOth:
	mov	DWORD PTR tv437[ebp], OFFSET ??_C@_00CNPNBAHC@?$AA@
$LN96@DoGuessOth:
	mov	eax, DWORD PTR tv437[ebp]
	push	eax
	lea	ecx, DWORD PTR $T227057[ebp]
	call	DWORD PTR __imp_??0?$basic_string@DU?$char_traits@D@std@@V?$allocator@D@2@@std@@QAE@PBD@Z
	lea	ecx, DWORD PTR $T227057[ebp]
	mov	DWORD PTR $T227186[ebp], ecx
	mov	BYTE PTR __$EHRec$[ebp+8], 3
	mov	edx, DWORD PTR $T227186[ebp]
	push	edx
	lea	ecx, DWORD PTR _strGrandStrategyName$[ebp]
	call	DWORD PTR __imp_??4?$basic_string@DU?$char_traits@D@std@@V?$allocator@D@2@@std@@QAEAAV01@ABV01@@Z
	mov	BYTE PTR __$EHRec$[ebp+8], 2
	lea	ecx, DWORD PTR $T227057[ebp]
	call	DWORD PTR __imp_??1?$basic_string@DU?$char_traits@D@std@@V?$allocator@D@2@@std@@QAE@XZ

; 1006 : 
; 1007 : 					if(strGrandStrategyName == "AIGRANDSTRATEGY_CONQUEST")

	push	OFFSET ??_C@_0BJ@GCKPAHPE@AIGRANDSTRATEGY_CONQUEST?$AA@
	lea	eax, DWORD PTR _strGrandStrategyName$[ebp]
	push	eax
	call	DWORD PTR __imp_??$?8DU?$char_traits@D@std@@V?$allocator@D@1@@std@@YA_NABV?$basic_string@DU?$char_traits@D@std@@V?$allocator@D@2@@0@PBD@Z
	add	esp, 8
	movzx	ecx, al
	test	ecx, ecx
	je	SHORT $LN13@DoGuessOth

; 1008 : 					{
; 1009 : 						iPriority = GetGuessOtherPlayerConquestPriority(eMajor, iWorldMilitaryAverage);

	mov	edx, DWORD PTR _iWorldMilitaryAverage$[ebp]
	push	edx
	mov	eax, DWORD PTR _eMajor$[ebp]
	push	eax
	mov	ecx, DWORD PTR _this$[ebp]
	call	?GetGuessOtherPlayerConquestPriority@CvGrandStrategyAI@@QAEHW4PlayerTypes@@H@Z ; CvGrandStrategyAI::GetGuessOtherPlayerConquestPriority
	mov	DWORD PTR _iPriority$[ebp], eax
	jmp	$LN12@DoGuessOth
$LN13@DoGuessOth:

; 1010 : 					}
; 1011 : 					else if(strGrandStrategyName == "AIGRANDSTRATEGY_CULTURE")

	push	OFFSET ??_C@_0BI@FNGLFDGI@AIGRANDSTRATEGY_CULTURE?$AA@
	lea	ecx, DWORD PTR _strGrandStrategyName$[ebp]
	push	ecx
	call	DWORD PTR __imp_??$?8DU?$char_traits@D@std@@V?$allocator@D@1@@std@@YA_NABV?$basic_string@DU?$char_traits@D@std@@V?$allocator@D@2@@0@PBD@Z
	add	esp, 8
	movzx	edx, al
	test	edx, edx
	je	SHORT $LN11@DoGuessOth

; 1012 : 					{
; 1013 : 						iPriority = GetGuessOtherPlayerCulturePriority(eMajor, iWorldCultureAverage, iWorldTourismAverage);

	mov	eax, DWORD PTR _iWorldTourismAverage$[ebp]
	push	eax
	mov	ecx, DWORD PTR _iWorldCultureAverage$[ebp]
	push	ecx
	mov	edx, DWORD PTR _eMajor$[ebp]
	push	edx
	mov	ecx, DWORD PTR _this$[ebp]
	call	?GetGuessOtherPlayerCulturePriority@CvGrandStrategyAI@@QAEHW4PlayerTypes@@HH@Z ; CvGrandStrategyAI::GetGuessOtherPlayerCulturePriority
	mov	DWORD PTR _iPriority$[ebp], eax
	jmp	SHORT $LN12@DoGuessOth
$LN11@DoGuessOth:

; 1014 : 					}
; 1015 : 					else if(strGrandStrategyName == "AIGRANDSTRATEGY_UNITED_NATIONS")

	push	OFFSET ??_C@_0BP@DOCBNDKB@AIGRANDSTRATEGY_UNITED_NATIONS?$AA@
	lea	eax, DWORD PTR _strGrandStrategyName$[ebp]
	push	eax
	call	DWORD PTR __imp_??$?8DU?$char_traits@D@std@@V?$allocator@D@1@@std@@YA_NABV?$basic_string@DU?$char_traits@D@std@@V?$allocator@D@2@@0@PBD@Z
	add	esp, 8
	movzx	ecx, al
	test	ecx, ecx
	je	SHORT $LN9@DoGuessOth

; 1016 : 					{
; 1017 : 						iPriority = GetGuessOtherPlayerUnitedNationsPriority(eMajor);

	mov	edx, DWORD PTR _eMajor$[ebp]
	push	edx
	mov	ecx, DWORD PTR _this$[ebp]
	call	?GetGuessOtherPlayerUnitedNationsPriority@CvGrandStrategyAI@@QAEHW4PlayerTypes@@@Z ; CvGrandStrategyAI::GetGuessOtherPlayerUnitedNationsPriority
	mov	DWORD PTR _iPriority$[ebp], eax
	jmp	SHORT $LN12@DoGuessOth
$LN9@DoGuessOth:

; 1018 : 					}
; 1019 : 					else if(strGrandStrategyName == "AIGRANDSTRATEGY_SPACESHIP")

	push	OFFSET ??_C@_0BK@CCPNHFB@AIGRANDSTRATEGY_SPACESHIP?$AA@
	lea	eax, DWORD PTR _strGrandStrategyName$[ebp]
	push	eax
	call	DWORD PTR __imp_??$?8DU?$char_traits@D@std@@V?$allocator@D@1@@std@@YA_NABV?$basic_string@DU?$char_traits@D@std@@V?$allocator@D@2@@0@PBD@Z
	add	esp, 8
	movzx	ecx, al
	test	ecx, ecx
	je	SHORT $LN12@DoGuessOth

; 1020 : 					{
; 1021 : 						iPriority = GetGuessOtherPlayerSpaceshipPriority(eMajor, iWorldNumTechsAverage);

	mov	edx, DWORD PTR _iWorldNumTechsAverage$[ebp]
	push	edx
	mov	eax, DWORD PTR _eMajor$[ebp]
	push	eax
	mov	ecx, DWORD PTR _this$[ebp]
	call	?GetGuessOtherPlayerSpaceshipPriority@CvGrandStrategyAI@@QAEHW4PlayerTypes@@H@Z ; CvGrandStrategyAI::GetGuessOtherPlayerSpaceshipPriority
	mov	DWORD PTR _iPriority$[ebp], eax
$LN12@DoGuessOth:

; 1022 : 					}
; 1023 : 
; 1024 : 					vGrandStrategyPriorities.push_back(iGrandStrategiesLoop, iPriority);

	mov	ecx, DWORD PTR _iPriority$[ebp]
	mov	DWORD PTR $T227200[ebp], ecx
	mov	DWORD PTR _weightedElem$227196[ebp], 0
	mov	DWORD PTR _weightedElem$227196[ebp+4], 0
	mov	edx, DWORD PTR _iGrandStrategiesLoop$[ebp]
	mov	DWORD PTR _weightedElem$227196[ebp], edx
	mov	eax, DWORD PTR $T227200[ebp]
	mov	DWORD PTR _weightedElem$227196[ebp+4], eax
	lea	ecx, DWORD PTR _weightedElem$227196[ebp]
	push	ecx
	lea	ecx, DWORD PTR _vGrandStrategyPriorities$[ebp]
	call	?push_back@?$FStaticVector@UWeightedElement@?$CvWeightedVector@H$04$00@@$04$00$0A@$0A@@@QAEIABUWeightedElement@?$CvWeightedVector@H$04$00@@@Z ; FStaticVector<CvWeightedVector<int,5,1>::WeightedElement,5,1,0,0>::push_back

; 1025 : 					vGrandStrategyPrioritiesForLogging.push_back(iPriority);

	lea	edx, DWORD PTR _iPriority$[ebp]
	push	edx
	lea	ecx, DWORD PTR _vGrandStrategyPrioritiesForLogging$[ebp]
	call	?push_back@?$FStaticVector@H$04$00$0BCJ@$0A@@@QAEIABH@Z ; FStaticVector<int,5,1,297,0>::push_back

; 1026 : 				}

	jmp	$LN15@DoGuessOth
$LN14@DoGuessOth:

; 1027 : 
; 1028 : 				if(vGrandStrategyPriorities.size() > 0)

	mov	eax, DWORD PTR _vGrandStrategyPriorities$[ebp+4]
	mov	DWORD PTR $T227212[ebp], eax
	cmp	DWORD PTR $T227212[ebp], 0
	jle	$LN6@DoGuessOth

; 1029 : 				{
; 1030 : 					// Add "No Grand Strategy" in case we just don't have enough info to go on
; 1031 : 					iPriority = /*40*/ GC.getAI_GRAND_STRATEGY_GUESS_NO_CLUE_WEIGHT();

	mov	ecx, DWORD PTR ?gGlobals@@3VCvGlobals@@A+1904
	mov	DWORD PTR $T227220[ebp], ecx
	mov	edx, DWORD PTR $T227220[ebp]
	mov	DWORD PTR _iPriority$[ebp], edx

; 1032 : 
; 1033 : 					vGrandStrategyPriorities.push_back(NO_AIGRANDSTRATEGY, iPriority);

	mov	DWORD PTR $T227058[ebp], -1
	mov	eax, DWORD PTR _iPriority$[ebp]
	mov	DWORD PTR $T227230[ebp], eax
	mov	DWORD PTR _weightedElem$227226[ebp], 0
	mov	DWORD PTR _weightedElem$227226[ebp+4], 0
	mov	ecx, DWORD PTR $T227058[ebp]
	mov	DWORD PTR _weightedElem$227226[ebp], ecx
	mov	edx, DWORD PTR $T227230[ebp]
	mov	DWORD PTR _weightedElem$227226[ebp+4], edx
	lea	eax, DWORD PTR _weightedElem$227226[ebp]
	push	eax
	lea	ecx, DWORD PTR _vGrandStrategyPriorities$[ebp]
	call	?push_back@?$FStaticVector@UWeightedElement@?$CvWeightedVector@H$04$00@@$04$00$0A@$0A@@@QAEIABUWeightedElement@?$CvWeightedVector@H$04$00@@@Z ; FStaticVector<CvWeightedVector<int,5,1>::WeightedElement,5,1,0,0>::push_back

; 1034 : 					vGrandStrategyPrioritiesForLogging.push_back(iPriority);

	lea	ecx, DWORD PTR _iPriority$[ebp]
	push	ecx
	lea	ecx, DWORD PTR _vGrandStrategyPrioritiesForLogging$[ebp]
	call	?push_back@?$FStaticVector@H$04$00$0BCJ@$0A@@@QAEIABH@Z ; FStaticVector<int,5,1,297,0>::push_back

; 1035 : 
; 1036 : 					vGrandStrategyPriorities.SortItems();

	lea	ecx, DWORD PTR _vGrandStrategyPriorities$[ebp]
	call	?SortItems@?$CvWeightedVector@H$04$00@@QAEXXZ ; CvWeightedVector<int,5,1>::SortItems

; 1037 : 
; 1038 : 					eGrandStrategy = (AIGrandStrategyTypes) vGrandStrategyPriorities.GetElement(0);

	xor	edx, edx
	shl	edx, 3
	mov	eax, DWORD PTR _vGrandStrategyPriorities$[ebp]
	mov	ecx, DWORD PTR [eax+edx]
	mov	DWORD PTR _eGrandStrategy$[ebp], ecx

; 1039 : 					iPriority = vGrandStrategyPriorities.GetWeight(0);

	mov	DWORD PTR _elem$227266[ebp], 0
	mov	DWORD PTR _elem$227266[ebp+4], 0
	xor	edx, edx
	shl	edx, 3
	mov	eax, DWORD PTR _vGrandStrategyPriorities$[ebp]
	mov	ecx, DWORD PTR [eax+edx]
	mov	edx, DWORD PTR [eax+edx+4]
	mov	DWORD PTR _elem$227266[ebp], ecx
	mov	DWORD PTR _elem$227266[ebp+4], edx
	mov	eax, DWORD PTR _elem$227266[ebp+4]
	mov	DWORD PTR _iPriority$[ebp], eax

; 1040 : 					eGuessConfidence = NO_GUESS_CONFIDENCE_TYPE;

	mov	DWORD PTR _eGuessConfidence$[ebp], -1

; 1041 : 
; 1042 : 					// How confident are we in our Guess?
; 1043 : 					if(eGrandStrategy != NO_AIGRANDSTRATEGY)

	cmp	DWORD PTR _eGrandStrategy$[ebp], -1
	je	SHORT $LN5@DoGuessOth

; 1044 : 					{
; 1045 : 						if(iPriority >= /*120*/ GC.getAI_GRAND_STRATEGY_GUESS_POSITIVE_THRESHOLD())

	mov	ecx, DWORD PTR ?gGlobals@@3VCvGlobals@@A+1908
	mov	DWORD PTR $T227275[ebp], ecx
	mov	edx, DWORD PTR _iPriority$[ebp]
	cmp	edx, DWORD PTR $T227275[ebp]
	jl	SHORT $LN4@DoGuessOth

; 1046 : 						{
; 1047 : 							eGuessConfidence = GUESS_CONFIDENCE_POSITIVE;

	mov	DWORD PTR _eGuessConfidence$[ebp], 2
	jmp	SHORT $LN5@DoGuessOth
$LN4@DoGuessOth:

; 1048 : 						}
; 1049 : 						else if(iPriority >= /*70*/ GC.getAI_GRAND_STRATEGY_GUESS_LIKELY_THRESHOLD())

	mov	eax, DWORD PTR ?gGlobals@@3VCvGlobals@@A+1912
	mov	DWORD PTR $T227279[ebp], eax
	mov	ecx, DWORD PTR _iPriority$[ebp]
	cmp	ecx, DWORD PTR $T227279[ebp]
	jl	SHORT $LN2@DoGuessOth

; 1050 : 						{
; 1051 : 							eGuessConfidence = GUESS_CONFIDENCE_LIKELY;

	mov	DWORD PTR _eGuessConfidence$[ebp], 1

; 1052 : 						}
; 1053 : 						else

	jmp	SHORT $LN5@DoGuessOth
$LN2@DoGuessOth:

; 1054 : 						{
; 1055 : 							eGuessConfidence = GUESS_CONFIDENCE_UNSURE;

	mov	DWORD PTR _eGuessConfidence$[ebp], 0
$LN5@DoGuessOth:

; 1056 : 						}
; 1057 : 					}
; 1058 : 
; 1059 : 					SetGuessOtherPlayerActiveGrandStrategy(eMajor, eGrandStrategy, eGuessConfidence);

	mov	edx, DWORD PTR _eGuessConfidence$[ebp]
	push	edx
	mov	eax, DWORD PTR _eGrandStrategy$[ebp]
	push	eax
	mov	ecx, DWORD PTR _eMajor$[ebp]
	push	ecx
	mov	ecx, DWORD PTR _this$[ebp]
	call	?SetGuessOtherPlayerActiveGrandStrategy@CvGrandStrategyAI@@QAEXW4PlayerTypes@@W4AIGrandStrategyTypes@@W4GuessConfidenceTypes@@@Z ; CvGrandStrategyAI::SetGuessOtherPlayerActiveGrandStrategy

; 1060 : 
; 1061 : 					LogGuessOtherPlayerGrandStrategy(vGrandStrategyPrioritiesForLogging, eMajor);

	mov	edx, DWORD PTR _eMajor$[ebp]
	push	edx
	lea	eax, DWORD PTR _vGrandStrategyPrioritiesForLogging$[ebp]
	push	eax
	mov	ecx, DWORD PTR _this$[ebp]
	call	?LogGuessOtherPlayerGrandStrategy@CvGrandStrategyAI@@AAEXABV?$FStaticVector@H$04$00$0BCJ@$0A@@@W4PlayerTypes@@@Z ; CvGrandStrategyAI::LogGuessOtherPlayerGrandStrategy
$LN6@DoGuessOth:

; 1062 : 				}
; 1063 : 
; 1064 : 				vGrandStrategyPriorities.clear();

	xor	ecx, ecx
	je	SHORT $LN161@DoGuessOth
	mov	DWORD PTR _i$227305[ebp], 0
	jmp	SHORT $LN159@DoGuessOth
$LN158@DoGuessOth:
	mov	edx, DWORD PTR _i$227305[ebp]
	add	edx, 1
	mov	DWORD PTR _i$227305[ebp], edx
$LN159@DoGuessOth:
	mov	eax, DWORD PTR _i$227305[ebp]
	cmp	eax, DWORD PTR _vGrandStrategyPriorities$[ebp+4]
	jae	SHORT $LN161@DoGuessOth
	jmp	SHORT $LN158@DoGuessOth
$LN161@DoGuessOth:
	mov	DWORD PTR _vGrandStrategyPriorities$[ebp+4], 0

; 1065 : 				vGrandStrategyPrioritiesForLogging.clear();

	xor	ecx, ecx
	je	SHORT $LN169@DoGuessOth
	mov	DWORD PTR _i$227323[ebp], 0
	jmp	SHORT $LN167@DoGuessOth
$LN166@DoGuessOth:
	mov	edx, DWORD PTR _i$227323[ebp]
	add	edx, 1
	mov	DWORD PTR _i$227323[ebp], edx
$LN167@DoGuessOth:
	mov	eax, DWORD PTR _i$227323[ebp]
	cmp	eax, DWORD PTR _vGrandStrategyPrioritiesForLogging$[ebp+4]
	jae	SHORT $LN169@DoGuessOth
	jmp	SHORT $LN166@DoGuessOth
$LN169@DoGuessOth:
	mov	DWORD PTR _vGrandStrategyPrioritiesForLogging$[ebp+4], 0
$LN18@DoGuessOth:

; 1066 : 			}
; 1067 : 		}
; 1068 : 	}

	jmp	$LN20@DoGuessOth
$LN19@DoGuessOth:

; 1069 : }

	mov	BYTE PTR __$EHRec$[ebp+8], 1
	lea	ecx, DWORD PTR _strGrandStrategyName$[ebp]
	call	DWORD PTR __imp_??1?$basic_string@DU?$char_traits@D@std@@V?$allocator@D@2@@std@@QAE@XZ
	mov	BYTE PTR __$EHRec$[ebp+8], 0
	lea	ecx, DWORD PTR _vGrandStrategyPrioritiesForLogging$[ebp]
	call	??1?$FStaticVector@H$04$00$0BCJ@$0A@@@QAE@XZ ; FStaticVector<int,5,1,297,0>::~FStaticVector<int,5,1,297,0>
	mov	DWORD PTR __$EHRec$[ebp+8], -1
	lea	ecx, DWORD PTR _vGrandStrategyPriorities$[ebp]
	call	??1?$FStaticVector@UWeightedElement@?$CvWeightedVector@H$04$00@@$04$00$0A@$0A@@@QAE@XZ ; FStaticVector<CvWeightedVector<int,5,1>::WeightedElement,5,1,0,0>::~FStaticVector<CvWeightedVector<int,5,1>::WeightedElement,5,1,0,0>
	mov	ecx, DWORD PTR __$EHRec$[ebp]
	mov	DWORD PTR fs:0, ecx
	pop	ecx
	mov	ecx, DWORD PTR __$ArrayPad$[ebp]
	xor	ecx, ebp
	call	@__security_check_cookie@4
	mov	esp, ebp
	pop	ebp
	ret	0
_TEXT	ENDS
;	COMDAT text$x
text$x	SEGMENT
__unwindfunclet$?DoGuessOtherPlayersActiveGrandStrategy@CvGrandStrategyAI@@QAEXXZ$0:
	lea	ecx, DWORD PTR _vGrandStrategyPriorities$[ebp]
	jmp	??1?$CvWeightedVector@H$04$00@@QAE@XZ	; CvWeightedVector<int,5,1>::~CvWeightedVector<int,5,1>
__unwindfunclet$?DoGuessOtherPlayersActiveGrandStrategy@CvGrandStrategyAI@@QAEXXZ$1:
	lea	ecx, DWORD PTR _vGrandStrategyPrioritiesForLogging$[ebp]
	jmp	??1?$FStaticVector@H$04$00$0BCJ@$0A@@@QAE@XZ ; FStaticVector<int,5,1,297,0>::~FStaticVector<int,5,1,297,0>
__unwindfunclet$?DoGuessOtherPlayersActiveGrandStrategy@CvGrandStrategyAI@@QAEXXZ$2:
	lea	ecx, DWORD PTR _strGrandStrategyName$[ebp]
	jmp	??1CvString@@QAE@XZ			; CvString::~CvString
__unwindfunclet$?DoGuessOtherPlayersActiveGrandStrategy@CvGrandStrategyAI@@QAEXXZ$3:
	lea	ecx, DWORD PTR $T227057[ebp]
	jmp	??1CvString@@QAE@XZ			; CvString::~CvString
__ehhandler$?DoGuessOtherPlayersActiveGrandStrategy@CvGrandStrategyAI@@QAEXXZ:
	mov	edx, DWORD PTR [esp+8]
	lea	eax, DWORD PTR [edx+12]
	mov	ecx, DWORD PTR [edx-400]
	xor	ecx, eax
	call	@__security_check_cookie@4
	mov	ecx, DWORD PTR [edx-12]
	xor	ecx, eax
	call	@__security_check_cookie@4
	mov	eax, OFFSET __ehfuncinfo$?DoGuessOtherPlayersActiveGrandStrategy@CvGrandStrategyAI@@QAEXXZ
	jmp	___CxxFrameHandler3
text$x	ENDS
?DoGuessOtherPlayersActiveGrandStrategy@CvGrandStrategyAI@@QAEXXZ ENDP ; CvGrandStrategyAI::DoGuessOtherPlayersActiveGrandStrategy
; Function compile flags: /Odtp
;	COMDAT ?GetGuessOtherPlayerActiveGrandStrategy@CvGrandStrategyAI@@QBE?AW4AIGrandStrategyTypes@@W4PlayerTypes@@@Z
_TEXT	SEGMENT
_this$ = -4						; size = 4
_ePlayer$ = 8						; size = 4
?GetGuessOtherPlayerActiveGrandStrategy@CvGrandStrategyAI@@QBE?AW4AIGrandStrategyTypes@@W4PlayerTypes@@@Z PROC ; CvGrandStrategyAI::GetGuessOtherPlayerActiveGrandStrategy, COMDAT
; _this$ = ecx

; 1073 : {

	push	ebp
	mov	ebp, esp
	push	ecx
	mov	DWORD PTR _this$[ebp], ecx

; 1074 : 	FAssert(ePlayer < MAX_MAJOR_CIVS);
; 1075 : 	return (AIGrandStrategyTypes) m_eGuessOtherPlayerActiveGrandStrategy[ePlayer];

	mov	eax, DWORD PTR _this$[ebp]
	mov	ecx, DWORD PTR [eax+20]
	mov	edx, DWORD PTR _ePlayer$[ebp]
	mov	eax, DWORD PTR [ecx+edx*4]

; 1076 : }

	mov	esp, ebp
	pop	ebp
	ret	4
?GetGuessOtherPlayerActiveGrandStrategy@CvGrandStrategyAI@@QBE?AW4AIGrandStrategyTypes@@W4PlayerTypes@@@Z ENDP ; CvGrandStrategyAI::GetGuessOtherPlayerActiveGrandStrategy
_TEXT	ENDS
PUBLIC	?GetGuessOtherPlayerActiveGrandStrategyConfidence@CvGrandStrategyAI@@QBE?AW4GuessConfidenceTypes@@W4PlayerTypes@@@Z ; CvGrandStrategyAI::GetGuessOtherPlayerActiveGrandStrategyConfidence
; Function compile flags: /Odtp
;	COMDAT ?GetGuessOtherPlayerActiveGrandStrategyConfidence@CvGrandStrategyAI@@QBE?AW4GuessConfidenceTypes@@W4PlayerTypes@@@Z
_TEXT	SEGMENT
_this$ = -4						; size = 4
_ePlayer$ = 8						; size = 4
?GetGuessOtherPlayerActiveGrandStrategyConfidence@CvGrandStrategyAI@@QBE?AW4GuessConfidenceTypes@@W4PlayerTypes@@@Z PROC ; CvGrandStrategyAI::GetGuessOtherPlayerActiveGrandStrategyConfidence, COMDAT
; _this$ = ecx

; 1080 : {

	push	ebp
	mov	ebp, esp
	push	ecx
	mov	DWORD PTR _this$[ebp], ecx

; 1081 : 	FAssert(ePlayer < MAX_MAJOR_CIVS);
; 1082 : 	return (GuessConfidenceTypes) m_eGuessOtherPlayerActiveGrandStrategyConfidence[ePlayer];

	mov	eax, DWORD PTR _this$[ebp]
	mov	ecx, DWORD PTR [eax+24]
	mov	edx, DWORD PTR _ePlayer$[ebp]
	mov	eax, DWORD PTR [ecx+edx*4]

; 1083 : }

	mov	esp, ebp
	pop	ebp
	ret	4
?GetGuessOtherPlayerActiveGrandStrategyConfidence@CvGrandStrategyAI@@QBE?AW4GuessConfidenceTypes@@W4PlayerTypes@@@Z ENDP ; CvGrandStrategyAI::GetGuessOtherPlayerActiveGrandStrategyConfidence
; Function compile flags: /Odtp
_TEXT	ENDS
;	COMDAT ?SetGuessOtherPlayerActiveGrandStrategy@CvGrandStrategyAI@@QAEXW4PlayerTypes@@W4AIGrandStrategyTypes@@W4GuessConfidenceTypes@@@Z
_TEXT	SEGMENT
_this$ = -4						; size = 4
_ePlayer$ = 8						; size = 4
_eGrandStrategy$ = 12					; size = 4
_eGuessConfidence$ = 16					; size = 4
?SetGuessOtherPlayerActiveGrandStrategy@CvGrandStrategyAI@@QAEXW4PlayerTypes@@W4AIGrandStrategyTypes@@W4GuessConfidenceTypes@@@Z PROC ; CvGrandStrategyAI::SetGuessOtherPlayerActiveGrandStrategy, COMDAT
; _this$ = ecx

; 1087 : {

	push	ebp
	mov	ebp, esp
	push	ecx
	mov	DWORD PTR _this$[ebp], ecx

; 1088 : 	FAssert(ePlayer < MAX_MAJOR_CIVS);
; 1089 : 	m_eGuessOtherPlayerActiveGrandStrategy[ePlayer] = eGrandStrategy;

	mov	eax, DWORD PTR _this$[ebp]
	mov	ecx, DWORD PTR [eax+20]
	mov	edx, DWORD PTR _ePlayer$[ebp]
	mov	eax, DWORD PTR _eGrandStrategy$[ebp]
	mov	DWORD PTR [ecx+edx*4], eax

; 1090 : 	m_eGuessOtherPlayerActiveGrandStrategyConfidence[ePlayer] = eGuessConfidence;

	mov	ecx, DWORD PTR _this$[ebp]
	mov	edx, DWORD PTR [ecx+24]
	mov	eax, DWORD PTR _ePlayer$[ebp]
	mov	ecx, DWORD PTR _eGuessConfidence$[ebp]
	mov	DWORD PTR [edx+eax*4], ecx

; 1091 : }

	mov	esp, ebp
	pop	ebp
	ret	12					; 0000000cH
?SetGuessOtherPlayerActiveGrandStrategy@CvGrandStrategyAI@@QAEXW4PlayerTypes@@W4AIGrandStrategyTypes@@W4GuessConfidenceTypes@@@Z ENDP ; CvGrandStrategyAI::SetGuessOtherPlayerActiveGrandStrategy
_TEXT	ENDS
EXTRN	?GetOtherPlayerNumMajorsConquered@CvDiplomacyAI@@QBEHW4PlayerTypes@@@Z:PROC ; CvDiplomacyAI::GetOtherPlayerNumMajorsConquered
EXTRN	?GetOtherPlayerNumMajorsAttacked@CvDiplomacyAI@@QBEHW4PlayerTypes@@@Z:PROC ; CvDiplomacyAI::GetOtherPlayerNumMajorsAttacked
EXTRN	?GetOtherPlayerNumMinorsConquered@CvDiplomacyAI@@QBEHW4PlayerTypes@@@Z:PROC ; CvDiplomacyAI::GetOtherPlayerNumMinorsConquered
EXTRN	?GetOtherPlayerNumMinorsAttacked@CvDiplomacyAI@@QBEHW4PlayerTypes@@@Z:PROC ; CvDiplomacyAI::GetOtherPlayerNumMinorsAttacked
; Function compile flags: /Odtp
;	COMDAT ?GetGuessOtherPlayerConquestPriority@CvGrandStrategyAI@@QAEHW4PlayerTypes@@H@Z
_TEXT	SEGMENT
_this$ = -32						; size = 4
$T227427 = -28						; size = 4
$T227423 = -24						; size = 4
$T227419 = -20						; size = 4
$T227415 = -16						; size = 4
$T227411 = -12						; size = 4
$T227407 = -8						; size = 4
_iConquestPriority$ = -4				; size = 4
_ePlayer$ = 8						; size = 4
_iWorldMilitaryAverage$ = 12				; size = 4
?GetGuessOtherPlayerConquestPriority@CvGrandStrategyAI@@QAEHW4PlayerTypes@@H@Z PROC ; CvGrandStrategyAI::GetGuessOtherPlayerConquestPriority, COMDAT
; _this$ = ecx

; 1095 : {

	push	ebp
	mov	ebp, esp
	sub	esp, 32					; 00000020H
	mov	DWORD PTR _this$[ebp], ecx

; 1096 : 	int iConquestPriority = 0;

	mov	DWORD PTR _iConquestPriority$[ebp], 0

; 1097 : 
; 1098 : 	// Compare their Military to the world average; Possible range is 100 to -100 (but will typically be around -20 to 20)
; 1099 : 	if(iWorldMilitaryAverage > 0)

	cmp	DWORD PTR _iWorldMilitaryAverage$[ebp], 0
	jle	SHORT $LN1@GetGuessOt

; 1100 : 	{
; 1101 : 		iConquestPriority += (GET_PLAYER(ePlayer).GetMilitaryMight() - iWorldMilitaryAverage) * /*100*/ GC.getAI_GRAND_STRATEGY_CONQUEST_POWER_RATIO_MULTIPLIER() / iWorldMilitaryAverage;

	mov	eax, DWORD PTR _ePlayer$[ebp]
	imul	eax, 63236				; 0000f704H
	add	eax, DWORD PTR ?m_aPlayers@CvPlayerAI@@1PAV1@A ; CvPlayerAI::m_aPlayers
	mov	DWORD PTR $T227407[ebp], eax
	mov	ecx, DWORD PTR ?gGlobals@@3VCvGlobals@@A+1936
	mov	DWORD PTR $T227411[ebp], ecx
	mov	ecx, DWORD PTR $T227407[ebp]
	call	?GetMilitaryMight@CvPlayer@@QBEHXZ	; CvPlayer::GetMilitaryMight
	sub	eax, DWORD PTR _iWorldMilitaryAverage$[ebp]
	imul	eax, DWORD PTR $T227411[ebp]
	cdq
	idiv	DWORD PTR _iWorldMilitaryAverage$[ebp]
	add	eax, DWORD PTR _iConquestPriority$[ebp]
	mov	DWORD PTR _iConquestPriority$[ebp], eax
$LN1@GetGuessOt:

; 1102 : 	}
; 1103 : 
; 1104 : 	// Minors attacked
; 1105 : 	iConquestPriority += (GetPlayer()->GetDiplomacyAI()->GetOtherPlayerNumMinorsAttacked(ePlayer) * /*5*/ GC.getAI_GRAND_STRATEGY_CONQUEST_WEIGHT_PER_MINOR_ATTACKED());

	mov	edx, DWORD PTR ?gGlobals@@3VCvGlobals@@A+1944
	mov	DWORD PTR $T227415[ebp], edx
	mov	eax, DWORD PTR _ePlayer$[ebp]
	push	eax
	mov	ecx, DWORD PTR _this$[ebp]
	call	?GetPlayer@CvGrandStrategyAI@@QAEPAVCvPlayer@@XZ ; CvGrandStrategyAI::GetPlayer
	mov	ecx, eax
	call	?GetDiplomacyAI@CvPlayer@@QBEPAVCvDiplomacyAI@@XZ ; CvPlayer::GetDiplomacyAI
	mov	ecx, eax
	call	?GetOtherPlayerNumMinorsAttacked@CvDiplomacyAI@@QBEHW4PlayerTypes@@@Z ; CvDiplomacyAI::GetOtherPlayerNumMinorsAttacked
	imul	eax, DWORD PTR $T227415[ebp]
	add	eax, DWORD PTR _iConquestPriority$[ebp]
	mov	DWORD PTR _iConquestPriority$[ebp], eax

; 1106 : 
; 1107 : 	// Minors Conquered
; 1108 : 	iConquestPriority += (GetPlayer()->GetDiplomacyAI()->GetOtherPlayerNumMinorsConquered(ePlayer) * /*10*/ GC.getAI_GRAND_STRATEGY_CONQUEST_WEIGHT_PER_MINOR_CONQUERED());

	mov	ecx, DWORD PTR ?gGlobals@@3VCvGlobals@@A+1948
	mov	DWORD PTR $T227419[ebp], ecx
	mov	edx, DWORD PTR _ePlayer$[ebp]
	push	edx
	mov	ecx, DWORD PTR _this$[ebp]
	call	?GetPlayer@CvGrandStrategyAI@@QAEPAVCvPlayer@@XZ ; CvGrandStrategyAI::GetPlayer
	mov	ecx, eax
	call	?GetDiplomacyAI@CvPlayer@@QBEPAVCvDiplomacyAI@@XZ ; CvPlayer::GetDiplomacyAI
	mov	ecx, eax
	call	?GetOtherPlayerNumMinorsConquered@CvDiplomacyAI@@QBEHW4PlayerTypes@@@Z ; CvDiplomacyAI::GetOtherPlayerNumMinorsConquered
	imul	eax, DWORD PTR $T227419[ebp]
	add	eax, DWORD PTR _iConquestPriority$[ebp]
	mov	DWORD PTR _iConquestPriority$[ebp], eax

; 1109 : 
; 1110 : 	// Majors attacked
; 1111 : 	iConquestPriority += (GetPlayer()->GetDiplomacyAI()->GetOtherPlayerNumMajorsAttacked(ePlayer) * /*10*/ GC.getAI_GRAND_STRATEGY_CONQUEST_WEIGHT_PER_MAJOR_ATTACKED());

	mov	eax, DWORD PTR ?gGlobals@@3VCvGlobals@@A+1952
	mov	DWORD PTR $T227423[ebp], eax
	mov	ecx, DWORD PTR _ePlayer$[ebp]
	push	ecx
	mov	ecx, DWORD PTR _this$[ebp]
	call	?GetPlayer@CvGrandStrategyAI@@QAEPAVCvPlayer@@XZ ; CvGrandStrategyAI::GetPlayer
	mov	ecx, eax
	call	?GetDiplomacyAI@CvPlayer@@QBEPAVCvDiplomacyAI@@XZ ; CvPlayer::GetDiplomacyAI
	mov	ecx, eax
	call	?GetOtherPlayerNumMajorsAttacked@CvDiplomacyAI@@QBEHW4PlayerTypes@@@Z ; CvDiplomacyAI::GetOtherPlayerNumMajorsAttacked
	imul	eax, DWORD PTR $T227423[ebp]
	add	eax, DWORD PTR _iConquestPriority$[ebp]
	mov	DWORD PTR _iConquestPriority$[ebp], eax

; 1112 : 
; 1113 : 	// Majors Conquered
; 1114 : 	iConquestPriority += (GetPlayer()->GetDiplomacyAI()->GetOtherPlayerNumMajorsConquered(ePlayer) * /*15*/ GC.getAI_GRAND_STRATEGY_CONQUEST_WEIGHT_PER_MAJOR_CONQUERED());

	mov	edx, DWORD PTR ?gGlobals@@3VCvGlobals@@A+1956
	mov	DWORD PTR $T227427[ebp], edx
	mov	eax, DWORD PTR _ePlayer$[ebp]
	push	eax
	mov	ecx, DWORD PTR _this$[ebp]
	call	?GetPlayer@CvGrandStrategyAI@@QAEPAVCvPlayer@@XZ ; CvGrandStrategyAI::GetPlayer
	mov	ecx, eax
	call	?GetDiplomacyAI@CvPlayer@@QBEPAVCvDiplomacyAI@@XZ ; CvPlayer::GetDiplomacyAI
	mov	ecx, eax
	call	?GetOtherPlayerNumMajorsConquered@CvDiplomacyAI@@QBEHW4PlayerTypes@@@Z ; CvDiplomacyAI::GetOtherPlayerNumMajorsConquered
	imul	eax, DWORD PTR $T227427[ebp]
	add	eax, DWORD PTR _iConquestPriority$[ebp]
	mov	DWORD PTR _iConquestPriority$[ebp], eax

; 1115 : 
; 1116 : 	return iConquestPriority;

	mov	eax, DWORD PTR _iConquestPriority$[ebp]

; 1117 : }

	mov	esp, ebp
	pop	ebp
	ret	8
?GetGuessOtherPlayerConquestPriority@CvGrandStrategyAI@@QAEHW4PlayerTypes@@H@Z ENDP ; CvGrandStrategyAI::GetGuessOtherPlayerConquestPriority
; Function compile flags: /Odtp
_TEXT	ENDS
;	COMDAT ?GetGuessOtherPlayerCulturePriority@CvGrandStrategyAI@@QAEHW4PlayerTypes@@HH@Z
_TEXT	SEGMENT
_this$ = -64						; size = 4
$T227477 = -60						; size = 4
$T227473 = -56						; size = 4
$T227469 = -52						; size = 4
$T227465 = -48						; size = 4
$T227461 = -44						; size = 4
$T227457 = -40						; size = 4
$T227453 = -36						; size = 4
$T227449 = -32						; size = 4
$T227445 = -28						; size = 4
$T227441 = -24						; size = 4
$T227437 = -20						; size = 4
$T227433 = -16						; size = 4
_eVictory$ = -12					; size = 4
_iRatio$ = -8						; size = 4
_iCulturePriority$ = -4					; size = 4
_ePlayer$ = 8						; size = 4
_iWorldCultureAverage$ = 12				; size = 4
_iWorldTourismAverage$ = 16				; size = 4
?GetGuessOtherPlayerCulturePriority@CvGrandStrategyAI@@QAEHW4PlayerTypes@@HH@Z PROC ; CvGrandStrategyAI::GetGuessOtherPlayerCulturePriority, COMDAT
; _this$ = ecx

; 1121 : {

	push	ebp
	mov	ebp, esp
	sub	esp, 64					; 00000040H
	mov	DWORD PTR _this$[ebp], ecx

; 1122 : 	VictoryTypes eVictory = (VictoryTypes) GC.getInfoTypeForString("VICTORY_CULTURAL", true);

	push	1
	push	OFFSET ??_C@_0BB@JOEIKBOM@VICTORY_CULTURAL?$AA@
	mov	ecx, OFFSET ?gGlobals@@3VCvGlobals@@A	; gGlobals
	call	?getInfoTypeForString@CvGlobals@@QBEHPBD_N@Z ; CvGlobals::getInfoTypeForString
	mov	DWORD PTR _eVictory$[ebp], eax

; 1123 : 
; 1124 : 	// If Culture Victory isn't even available then don't bother with anything
; 1125 : 	if(eVictory == NO_VICTORY)

	cmp	DWORD PTR _eVictory$[ebp], -1
	jne	SHORT $LN9@GetGuessOt@2

; 1126 : 	{
; 1127 : 		return -100;

	mov	eax, -100				; ffffff9cH
	jmp	$LN10@GetGuessOt@2
$LN9@GetGuessOt@2:

; 1128 : 	}
; 1129 : 
; 1130 : 	int iCulturePriority = 0;

	mov	DWORD PTR _iCulturePriority$[ebp], 0

; 1131 : 	int iRatio;
; 1132 : 
; 1133 : 	// Compare their Culture to the world average; Possible range is 75 to -75
; 1134 : 	if(iWorldCultureAverage > 0)

	cmp	DWORD PTR _iWorldCultureAverage$[ebp], 0
	jle	$LN8@GetGuessOt@2

; 1135 : 	{
; 1136 : 		iRatio = (GET_PLAYER(ePlayer).GetJONSCultureEverGenerated() - iWorldCultureAverage) * /*75*/ GC.getAI_GS_CULTURE_RATIO_MULTIPLIER() / iWorldCultureAverage;

	mov	eax, DWORD PTR _ePlayer$[ebp]
	imul	eax, 63236				; 0000f704H
	add	eax, DWORD PTR ?m_aPlayers@CvPlayerAI@@1PAV1@A ; CvPlayerAI::m_aPlayers
	mov	DWORD PTR $T227433[ebp], eax
	mov	ecx, DWORD PTR ?gGlobals@@3VCvGlobals@@A+1960
	mov	DWORD PTR $T227437[ebp], ecx
	mov	ecx, DWORD PTR $T227433[ebp]
	call	?GetJONSCultureEverGenerated@CvPlayer@@QBEHXZ ; CvPlayer::GetJONSCultureEverGenerated
	sub	eax, DWORD PTR _iWorldCultureAverage$[ebp]
	imul	eax, DWORD PTR $T227437[ebp]
	cdq
	idiv	DWORD PTR _iWorldCultureAverage$[ebp]
	mov	DWORD PTR _iRatio$[ebp], eax

; 1137 : 		if (iRatio > GC.getAI_GS_CULTURE_RATIO_MULTIPLIER())

	mov	edx, DWORD PTR ?gGlobals@@3VCvGlobals@@A+1960
	mov	DWORD PTR $T227441[ebp], edx
	mov	eax, DWORD PTR _iRatio$[ebp]
	cmp	eax, DWORD PTR $T227441[ebp]
	jle	SHORT $LN7@GetGuessOt@2

; 1138 : 		{
; 1139 : 			iCulturePriority += GC.getAI_GS_CULTURE_RATIO_MULTIPLIER();

	mov	ecx, DWORD PTR ?gGlobals@@3VCvGlobals@@A+1960
	mov	DWORD PTR $T227445[ebp], ecx
	mov	edx, DWORD PTR _iCulturePriority$[ebp]
	add	edx, DWORD PTR $T227445[ebp]
	mov	DWORD PTR _iCulturePriority$[ebp], edx
	jmp	SHORT $LN6@GetGuessOt@2
$LN7@GetGuessOt@2:

; 1140 : 		}
; 1141 : 		else if (iRatio < -GC.getAI_GS_CULTURE_RATIO_MULTIPLIER())

	mov	eax, DWORD PTR ?gGlobals@@3VCvGlobals@@A+1960
	mov	DWORD PTR $T227449[ebp], eax
	mov	ecx, DWORD PTR $T227449[ebp]
	neg	ecx
	cmp	DWORD PTR _iRatio$[ebp], ecx
	jge	SHORT $LN6@GetGuessOt@2

; 1142 : 		{
; 1143 : 			iCulturePriority += -GC.getAI_GS_CULTURE_RATIO_MULTIPLIER();

	mov	edx, DWORD PTR ?gGlobals@@3VCvGlobals@@A+1960
	mov	DWORD PTR $T227453[ebp], edx
	mov	eax, DWORD PTR $T227453[ebp]
	neg	eax
	add	eax, DWORD PTR _iCulturePriority$[ebp]
	mov	DWORD PTR _iCulturePriority$[ebp], eax
$LN6@GetGuessOt@2:

; 1144 : 		}
; 1145 : 		iCulturePriority += iRatio;

	mov	ecx, DWORD PTR _iCulturePriority$[ebp]
	add	ecx, DWORD PTR _iRatio$[ebp]
	mov	DWORD PTR _iCulturePriority$[ebp], ecx
$LN8@GetGuessOt@2:

; 1146 : 	}
; 1147 : 
; 1148 : 	// Compare their Tourism to the world average; Possible range is 75 to -75
; 1149 : 	if(iWorldTourismAverage > 0)

	cmp	DWORD PTR _iWorldTourismAverage$[ebp], 0
	jle	$LN4@GetGuessOt@2

; 1150 : 	{
; 1151 : 		iRatio = (GET_PLAYER(ePlayer).GetCulture()->GetTourism() - iWorldTourismAverage) * /*75*/ GC.getAI_GS_TOURISM_RATIO_MULTIPLIER() / iWorldTourismAverage;

	mov	edx, DWORD PTR _ePlayer$[ebp]
	imul	edx, 63236				; 0000f704H
	add	edx, DWORD PTR ?m_aPlayers@CvPlayerAI@@1PAV1@A ; CvPlayerAI::m_aPlayers
	mov	DWORD PTR $T227457[ebp], edx
	mov	eax, DWORD PTR ?gGlobals@@3VCvGlobals@@A+1964
	mov	DWORD PTR $T227461[ebp], eax
	mov	ecx, DWORD PTR $T227457[ebp]
	call	?GetCulture@CvPlayer@@QBEPAVCvPlayerCulture@@XZ ; CvPlayer::GetCulture
	mov	ecx, eax
	call	?GetTourism@CvPlayerCulture@@QAEHXZ	; CvPlayerCulture::GetTourism
	sub	eax, DWORD PTR _iWorldTourismAverage$[ebp]
	imul	eax, DWORD PTR $T227461[ebp]
	cdq
	idiv	DWORD PTR _iWorldTourismAverage$[ebp]
	mov	DWORD PTR _iRatio$[ebp], eax

; 1152 : 		if (iRatio > GC.getAI_GS_TOURISM_RATIO_MULTIPLIER())

	mov	ecx, DWORD PTR ?gGlobals@@3VCvGlobals@@A+1964
	mov	DWORD PTR $T227465[ebp], ecx
	mov	edx, DWORD PTR _iRatio$[ebp]
	cmp	edx, DWORD PTR $T227465[ebp]
	jle	SHORT $LN3@GetGuessOt@2

; 1153 : 		{
; 1154 : 			iCulturePriority += GC.getAI_GS_TOURISM_RATIO_MULTIPLIER();

	mov	eax, DWORD PTR ?gGlobals@@3VCvGlobals@@A+1964
	mov	DWORD PTR $T227469[ebp], eax
	mov	ecx, DWORD PTR _iCulturePriority$[ebp]
	add	ecx, DWORD PTR $T227469[ebp]
	mov	DWORD PTR _iCulturePriority$[ebp], ecx
	jmp	SHORT $LN2@GetGuessOt@2
$LN3@GetGuessOt@2:

; 1155 : 		}
; 1156 : 		else if (iRatio < -GC.getAI_GS_TOURISM_RATIO_MULTIPLIER())

	mov	edx, DWORD PTR ?gGlobals@@3VCvGlobals@@A+1964
	mov	DWORD PTR $T227473[ebp], edx
	mov	eax, DWORD PTR $T227473[ebp]
	neg	eax
	cmp	DWORD PTR _iRatio$[ebp], eax
	jge	SHORT $LN2@GetGuessOt@2

; 1157 : 		{
; 1158 : 			iCulturePriority += -GC.getAI_GS_TOURISM_RATIO_MULTIPLIER();

	mov	ecx, DWORD PTR ?gGlobals@@3VCvGlobals@@A+1964
	mov	DWORD PTR $T227477[ebp], ecx
	mov	edx, DWORD PTR $T227477[ebp]
	neg	edx
	add	edx, DWORD PTR _iCulturePriority$[ebp]
	mov	DWORD PTR _iCulturePriority$[ebp], edx
$LN2@GetGuessOt@2:

; 1159 : 		}
; 1160 : 		iCulturePriority += iRatio;	}

	mov	eax, DWORD PTR _iCulturePriority$[ebp]
	add	eax, DWORD PTR _iRatio$[ebp]
	mov	DWORD PTR _iCulturePriority$[ebp], eax
$LN4@GetGuessOt@2:

; 1161 : 
; 1162 : 	return iCulturePriority;

	mov	eax, DWORD PTR _iCulturePriority$[ebp]
$LN10@GetGuessOt@2:

; 1163 : }

	mov	esp, ebp
	pop	ebp
	ret	12					; 0000000cH
?GetGuessOtherPlayerCulturePriority@CvGrandStrategyAI@@QAEHW4PlayerTypes@@HH@Z ENDP ; CvGrandStrategyAI::GetGuessOtherPlayerCulturePriority
_TEXT	ENDS
EXTRN	?IsFriends@CvMinorCivAI@@QAE_NW4PlayerTypes@@@Z:PROC ; CvMinorCivAI::IsFriends
EXTRN	?IsAllies@CvMinorCivAI@@QBE_NW4PlayerTypes@@@Z:PROC ; CvMinorCivAI::IsAllies
; Function compile flags: /Odtp
;	COMDAT ?GetGuessOtherPlayerUnitedNationsPriority@CvGrandStrategyAI@@QAEHW4PlayerTypes@@@Z
_TEXT	SEGMENT
tv169 = -68						; size = 4
_this$ = -64						; size = 4
$T227518 = -60						; size = 4
$T227511 = -56						; size = 4
$T227505 = -52						; size = 4
$T227501 = -48						; size = 4
$T227497 = -44						; size = 4
$T227493 = -37						; size = 1
$T227484 = -36						; size = 4
$T227480 = -32						; size = 4
_eLoopPlayer$224420 = -28				; size = 4
_iPlayerLoop$224416 = -24				; size = 4
_iPriority$ = -20					; size = 4
_eVictory$ = -16					; size = 4
_iTheirCityStateFriends$ = -12				; size = 4
_iTheirCityStateAllies$ = -8				; size = 4
_iCityStatesAlive$ = -4					; size = 4
_ePlayer$ = 8						; size = 4
?GetGuessOtherPlayerUnitedNationsPriority@CvGrandStrategyAI@@QAEHW4PlayerTypes@@@Z PROC ; CvGrandStrategyAI::GetGuessOtherPlayerUnitedNationsPriority, COMDAT
; _this$ = ecx

; 1167 : {

	push	ebp
	mov	ebp, esp
	sub	esp, 68					; 00000044H
	mov	DWORD PTR _this$[ebp], ecx

; 1168 : 	VictoryTypes eVictory = (VictoryTypes) GC.getInfoTypeForString("VICTORY_DIPLOMATIC", true);

	push	1
	push	OFFSET ??_C@_0BD@KCIFPIPP@VICTORY_DIPLOMATIC?$AA@
	mov	ecx, OFFSET ?gGlobals@@3VCvGlobals@@A	; gGlobals
	call	?getInfoTypeForString@CvGlobals@@QBEHPBD_N@Z ; CvGlobals::getInfoTypeForString
	mov	DWORD PTR _eVictory$[ebp], eax

; 1169 : 
; 1170 : 	// If UN Victory isn't even available then don't bother with anything
; 1171 : 	if(eVictory == NO_VICTORY)

	cmp	DWORD PTR _eVictory$[ebp], -1
	jne	SHORT $LN8@GetGuessOt@3

; 1172 : 	{
; 1173 : 		return -100;

	mov	eax, -100				; ffffff9cH
	jmp	$LN9@GetGuessOt@3
$LN8@GetGuessOt@3:

; 1174 : 	}
; 1175 : 
; 1176 : 	int iTheirCityStateAllies = 0;

	mov	DWORD PTR _iTheirCityStateAllies$[ebp], 0

; 1177 : 	int iTheirCityStateFriends = 0;

	mov	DWORD PTR _iTheirCityStateFriends$[ebp], 0

; 1178 : 	int iCityStatesAlive = 0;

	mov	DWORD PTR _iCityStatesAlive$[ebp], 0

; 1179 : 	for(int iPlayerLoop = 0; iPlayerLoop < MAX_CIV_PLAYERS; iPlayerLoop++)

	mov	DWORD PTR _iPlayerLoop$224416[ebp], 0
	jmp	SHORT $LN7@GetGuessOt@3
$LN6@GetGuessOt@3:
	mov	eax, DWORD PTR _iPlayerLoop$224416[ebp]
	add	eax, 1
	mov	DWORD PTR _iPlayerLoop$224416[ebp], eax
$LN7@GetGuessOt@3:
	cmp	DWORD PTR _iPlayerLoop$224416[ebp], 63	; 0000003fH
	jge	$LN5@GetGuessOt@3

; 1180 : 	{
; 1181 : 		PlayerTypes eLoopPlayer = (PlayerTypes) iPlayerLoop;

	mov	ecx, DWORD PTR _iPlayerLoop$224416[ebp]
	mov	DWORD PTR _eLoopPlayer$224420[ebp], ecx

; 1182 : 
; 1183 : 		if (eLoopPlayer != ePlayer && GET_PLAYER(eLoopPlayer).isAlive() && GET_PLAYER(eLoopPlayer).isMinorCiv())

	mov	edx, DWORD PTR _eLoopPlayer$224420[ebp]
	cmp	edx, DWORD PTR _ePlayer$[ebp]
	je	$LN4@GetGuessOt@3
	mov	eax, DWORD PTR _eLoopPlayer$224420[ebp]
	imul	eax, 63236				; 0000f704H
	add	eax, DWORD PTR ?m_aPlayers@CvPlayerAI@@1PAV1@A ; CvPlayerAI::m_aPlayers
	mov	DWORD PTR $T227484[ebp], eax
	mov	ecx, DWORD PTR $T227484[ebp]
	mov	dl, BYTE PTR [ecx+2256]
	mov	BYTE PTR $T227493[ebp], dl
	movzx	eax, BYTE PTR $T227493[ebp]
	test	eax, eax
	je	$LN4@GetGuessOt@3
	mov	ecx, DWORD PTR _eLoopPlayer$224420[ebp]
	imul	ecx, 63236				; 0000f704H
	add	ecx, DWORD PTR ?m_aPlayers@CvPlayerAI@@1PAV1@A ; CvPlayerAI::m_aPlayers
	mov	DWORD PTR $T227497[ebp], ecx
	mov	ecx, DWORD PTR $T227497[ebp]
	call	?isMinorCiv@CvPlayer@@QBE_NXZ		; CvPlayer::isMinorCiv
	movzx	edx, al
	test	edx, edx
	je	SHORT $LN4@GetGuessOt@3

; 1184 : 		{
; 1185 : 			iCityStatesAlive++;

	mov	eax, DWORD PTR _iCityStatesAlive$[ebp]
	add	eax, 1
	mov	DWORD PTR _iCityStatesAlive$[ebp], eax

; 1186 : 			if (GET_PLAYER(eLoopPlayer).GetMinorCivAI()->IsAllies(ePlayer))

	mov	ecx, DWORD PTR _eLoopPlayer$224420[ebp]
	imul	ecx, 63236				; 0000f704H
	add	ecx, DWORD PTR ?m_aPlayers@CvPlayerAI@@1PAV1@A ; CvPlayerAI::m_aPlayers
	mov	DWORD PTR $T227501[ebp], ecx
	mov	edx, DWORD PTR _ePlayer$[ebp]
	push	edx
	mov	ecx, DWORD PTR $T227501[ebp]
	call	?GetMinorCivAI@CvPlayer@@QBEPAVCvMinorCivAI@@XZ ; CvPlayer::GetMinorCivAI
	mov	ecx, eax
	call	?IsAllies@CvMinorCivAI@@QBE_NW4PlayerTypes@@@Z ; CvMinorCivAI::IsAllies
	movzx	eax, al
	test	eax, eax
	je	SHORT $LN3@GetGuessOt@3

; 1187 : 			{
; 1188 : 				iTheirCityStateAllies++;

	mov	ecx, DWORD PTR _iTheirCityStateAllies$[ebp]
	add	ecx, 1
	mov	DWORD PTR _iTheirCityStateAllies$[ebp], ecx
	jmp	SHORT $LN4@GetGuessOt@3
$LN3@GetGuessOt@3:

; 1189 : 			}
; 1190 : 			else if (GET_PLAYER(eLoopPlayer).GetMinorCivAI()->IsFriends(ePlayer))

	mov	edx, DWORD PTR _eLoopPlayer$224420[ebp]
	imul	edx, 63236				; 0000f704H
	add	edx, DWORD PTR ?m_aPlayers@CvPlayerAI@@1PAV1@A ; CvPlayerAI::m_aPlayers
	mov	DWORD PTR $T227505[ebp], edx
	mov	eax, DWORD PTR _ePlayer$[ebp]
	push	eax
	mov	ecx, DWORD PTR $T227505[ebp]
	call	?GetMinorCivAI@CvPlayer@@QBEPAVCvMinorCivAI@@XZ ; CvPlayer::GetMinorCivAI
	mov	ecx, eax
	call	?IsFriends@CvMinorCivAI@@QAE_NW4PlayerTypes@@@Z ; CvMinorCivAI::IsFriends
	movzx	ecx, al
	test	ecx, ecx
	je	SHORT $LN4@GetGuessOt@3

; 1191 : 			{
; 1192 : 				iTheirCityStateFriends++;

	mov	edx, DWORD PTR _iTheirCityStateFriends$[ebp]
	add	edx, 1
	mov	DWORD PTR _iTheirCityStateFriends$[ebp], edx
$LN4@GetGuessOt@3:

; 1193 : 			}
; 1194 : 		}
; 1195 : 	}

	jmp	$LN6@GetGuessOt@3
$LN5@GetGuessOt@3:

; 1196 : 	iCityStatesAlive = MAX(iCityStatesAlive, 1);

	mov	DWORD PTR $T227480[ebp], 1
	mov	eax, DWORD PTR _iCityStatesAlive$[ebp]
	cmp	eax, DWORD PTR $T227480[ebp]
	jge	SHORT $LN25@GetGuessOt@3
	lea	ecx, DWORD PTR $T227480[ebp]
	mov	DWORD PTR tv169[ebp], ecx
	jmp	SHORT $LN26@GetGuessOt@3
$LN25@GetGuessOt@3:
	lea	edx, DWORD PTR _iCityStatesAlive$[ebp]
	mov	DWORD PTR tv169[ebp], edx
$LN26@GetGuessOt@3:
	mov	eax, DWORD PTR tv169[ebp]
	mov	DWORD PTR $T227511[ebp], eax
	mov	ecx, DWORD PTR $T227511[ebp]
	mov	edx, DWORD PTR [ecx]
	mov	DWORD PTR _iCityStatesAlive$[ebp], edx

; 1197 : 
; 1198 : 	int iPriority = iTheirCityStateAllies + (iTheirCityStateFriends / 3);

	mov	eax, DWORD PTR _iTheirCityStateFriends$[ebp]
	cdq
	mov	ecx, 3
	idiv	ecx
	add	eax, DWORD PTR _iTheirCityStateAllies$[ebp]
	mov	DWORD PTR _iPriority$[ebp], eax

; 1199 : 	iPriority = iPriority * GC.getAI_GS_UN_SECURED_VOTE_MOD();

	mov	edx, DWORD PTR ?gGlobals@@3VCvGlobals@@A+1984
	mov	DWORD PTR $T227518[ebp], edx
	mov	eax, DWORD PTR _iPriority$[ebp]
	imul	eax, DWORD PTR $T227518[ebp]
	mov	DWORD PTR _iPriority$[ebp], eax

; 1200 : 	iPriority = iPriority / iCityStatesAlive;

	mov	eax, DWORD PTR _iPriority$[ebp]
	cdq
	idiv	DWORD PTR _iCityStatesAlive$[ebp]
	mov	DWORD PTR _iPriority$[ebp], eax

; 1201 : 
; 1202 : 	return iPriority;

	mov	eax, DWORD PTR _iPriority$[ebp]
$LN9@GetGuessOt@3:

; 1203 : }

	mov	esp, ebp
	pop	ebp
	ret	4
?GetGuessOtherPlayerUnitedNationsPriority@CvGrandStrategyAI@@QAEHW4PlayerTypes@@@Z ENDP ; CvGrandStrategyAI::GetGuessOtherPlayerUnitedNationsPriority
; Function compile flags: /Odtp
_TEXT	ENDS
;	COMDAT ?GetGuessOtherPlayerSpaceshipPriority@CvGrandStrategyAI@@QAEHW4PlayerTypes@@H@Z
_TEXT	SEGMENT
_this$ = -44						; size = 4
$T227548 = -40						; size = 4
$T227544 = -36						; size = 4
$T227540 = -32						; size = 4
$T227536 = -28						; size = 4
$T227524 = -24						; size = 4
_iSSPriority$ = -20					; size = 4
_eVictory$ = -16					; size = 4
_iNumTechs$ = -12					; size = 4
_eTeam$ = -8						; size = 4
_eApolloProgram$ = -4					; size = 4
_ePlayer$ = 8						; size = 4
_iWorldNumTechsAverage$ = 12				; size = 4
?GetGuessOtherPlayerSpaceshipPriority@CvGrandStrategyAI@@QAEHW4PlayerTypes@@H@Z PROC ; CvGrandStrategyAI::GetGuessOtherPlayerSpaceshipPriority, COMDAT
; _this$ = ecx

; 1207 : {

	push	ebp
	mov	ebp, esp
	sub	esp, 44					; 0000002cH
	mov	DWORD PTR _this$[ebp], ecx

; 1208 : 	VictoryTypes eVictory = (VictoryTypes) GC.getInfoTypeForString("VICTORY_SPACE_RACE", true);

	push	1
	push	OFFSET ??_C@_0BD@GNEMFDHK@VICTORY_SPACE_RACE?$AA@
	mov	ecx, OFFSET ?gGlobals@@3VCvGlobals@@A	; gGlobals
	call	?getInfoTypeForString@CvGlobals@@QBEHPBD_N@Z ; CvGlobals::getInfoTypeForString
	mov	DWORD PTR _eVictory$[ebp], eax

; 1209 : 
; 1210 : 	// If SS Victory isn't even available then don't bother with anything
; 1211 : 	if(eVictory == NO_VICTORY)

	cmp	DWORD PTR _eVictory$[ebp], -1
	jne	SHORT $LN4@GetGuessOt@4

; 1212 : 	{
; 1213 : 		return -100;

	mov	eax, -100				; ffffff9cH
	jmp	$LN5@GetGuessOt@4
$LN4@GetGuessOt@4:

; 1214 : 	}
; 1215 : 
; 1216 : 	TeamTypes eTeam = GET_PLAYER(ePlayer).getTeam();

	mov	eax, DWORD PTR _ePlayer$[ebp]
	imul	eax, 63236				; 0000f704H
	add	eax, DWORD PTR ?m_aPlayers@CvPlayerAI@@1PAV1@A ; CvPlayerAI::m_aPlayers
	mov	DWORD PTR $T227524[ebp], eax
	mov	ecx, DWORD PTR $T227524[ebp]
	mov	edx, DWORD PTR [ecx+44]
	push	edx
	call	?teamType@CvPreGame@@YA?AW4TeamTypes@@W4PlayerTypes@@@Z ; CvPreGame::teamType
	add	esp, 4
	mov	DWORD PTR _eTeam$[ebp], eax

; 1217 : 
; 1218 : 	// If the player has the Apollo Program we're pretty sure he's going for the SS
; 1219 : 	ProjectTypes eApolloProgram = (ProjectTypes) GC.getInfoTypeForString("PROJECT_APOLLO_PROGRAM", true);

	push	1
	push	OFFSET ??_C@_0BH@HJPDENF@PROJECT_APOLLO_PROGRAM?$AA@
	mov	ecx, OFFSET ?gGlobals@@3VCvGlobals@@A	; gGlobals
	call	?getInfoTypeForString@CvGlobals@@QBEHPBD_N@Z ; CvGlobals::getInfoTypeForString
	mov	DWORD PTR _eApolloProgram$[ebp], eax

; 1220 : 	if(eApolloProgram != NO_PROJECT)

	cmp	DWORD PTR _eApolloProgram$[ebp], -1
	je	SHORT $LN3@GetGuessOt@4

; 1221 : 	{
; 1222 : 		if(GET_TEAM(eTeam).getProjectCount(eApolloProgram) > 0)

	mov	eax, DWORD PTR _eTeam$[ebp]
	imul	eax, 2984				; 00000ba8H
	add	eax, DWORD PTR ?m_aTeams@CvTeam@@1PAV1@A ; CvTeam::m_aTeams
	mov	DWORD PTR $T227536[ebp], eax
	mov	ecx, DWORD PTR _eApolloProgram$[ebp]
	push	ecx
	mov	ecx, DWORD PTR $T227536[ebp]
	call	?getProjectCount@CvTeam@@QBEHW4ProjectTypes@@@Z ; CvTeam::getProjectCount
	test	eax, eax
	jle	SHORT $LN3@GetGuessOt@4

; 1223 : 		{
; 1224 : 			return /*150*/ GC.getAI_GS_SS_HAS_APOLLO_PROGRAM();

	mov	edx, DWORD PTR ?gGlobals@@3VCvGlobals@@A+1988
	mov	DWORD PTR $T227540[ebp], edx
	mov	eax, DWORD PTR $T227540[ebp]
	jmp	SHORT $LN5@GetGuessOt@4
$LN3@GetGuessOt@4:

; 1225 : 		}
; 1226 : 	}
; 1227 : 
; 1228 : 	int iNumTechs = GET_TEAM(eTeam).GetTeamTechs()->GetNumTechsKnown();

	mov	eax, DWORD PTR _eTeam$[ebp]
	imul	eax, 2984				; 00000ba8H
	add	eax, DWORD PTR ?m_aTeams@CvTeam@@1PAV1@A ; CvTeam::m_aTeams
	mov	DWORD PTR $T227544[ebp], eax
	mov	ecx, DWORD PTR $T227544[ebp]
	call	?GetTeamTechs@CvTeam@@QBEPAVCvTeamTechs@@XZ ; CvTeam::GetTeamTechs
	mov	ecx, eax
	call	?GetNumTechsKnown@CvTeamTechs@@QBEHXZ	; CvTeamTechs::GetNumTechsKnown
	mov	DWORD PTR _iNumTechs$[ebp], eax

; 1229 : 
; 1230 : 	// Don't divide by zero, okay?
; 1231 : 	if(iWorldNumTechsAverage == 0)

	cmp	DWORD PTR _iWorldNumTechsAverage$[ebp], 0
	jne	SHORT $LN1@GetGuessOt@4

; 1232 : 		iWorldNumTechsAverage = 1;

	mov	DWORD PTR _iWorldNumTechsAverage$[ebp], 1
$LN1@GetGuessOt@4:

; 1233 : 
; 1234 : 	int iSSPriority = (iNumTechs - iWorldNumTechsAverage) * /*300*/ GC.getAI_GS_SS_TECH_PROGRESS_MOD() / iWorldNumTechsAverage;

	mov	ecx, DWORD PTR ?gGlobals@@3VCvGlobals@@A+1992
	mov	DWORD PTR $T227548[ebp], ecx
	mov	eax, DWORD PTR _iNumTechs$[ebp]
	sub	eax, DWORD PTR _iWorldNumTechsAverage$[ebp]
	imul	eax, DWORD PTR $T227548[ebp]
	cdq
	idiv	DWORD PTR _iWorldNumTechsAverage$[ebp]
	mov	DWORD PTR _iSSPriority$[ebp], eax

; 1235 : 
; 1236 : 	return iSSPriority;

	mov	eax, DWORD PTR _iSSPriority$[ebp]
$LN5@GetGuessOt@4:

; 1237 : }

	mov	esp, ebp
	pop	ebp
	ret	8
?GetGuessOtherPlayerSpaceshipPriority@CvGrandStrategyAI@@QAEHW4PlayerTypes@@H@Z ENDP ; CvGrandStrategyAI::GetGuessOtherPlayerSpaceshipPriority
_TEXT	ENDS
PUBLIC	??_C@_0L@HGIKFMBI@?$CFs?0?5?$CFd?0?5?$CFd?$AA@	; `string'
PUBLIC	??_C@_0P@KLFHPJPD@?$CK?$CK?$CK?5?$CFs?0?5?$CFd?0?5?$CFd?$AA@ ; `string'
PUBLIC	??_C@_0N@PHCDDCGL@Unknown?5Type?$AA@		; `string'
PUBLIC	??_C@_02KEGNLNML@?0?5?$AA@			; `string'
PUBLIC	?Format@CvString@@QAAXPBDZZ			; CvString::Format
PUBLIC	??_C@_06NHKAIDD@?$CF03d?0?5?$AA@		; `string'
PUBLIC	??_C@_0BI@MEIIAKNJ@GrandStrategyAI_Log?4csv?$AA@ ; `string'
PUBLIC	??_C@_04EBGNMJBD@?4csv?$AA@			; `string'
PUBLIC	??_C@_0BF@PPDELHNB@GrandStrategyAI_Log_?$AA@	; `string'
PUBLIC	__$ArrayPad$
EXTRN	__imp_??$?HDU?$char_traits@D@std@@V?$allocator@D@1@@std@@YA?AV?$basic_string@DU?$char_traits@D@std@@V?$allocator@D@2@@0@ABV10@0@Z:PROC
EXTRN	?getAIGrandStrategyInfo@CvGlobals@@QAEPAVCvAIGrandStrategyXMLEntry@@W4AIGrandStrategyTypes@@@Z:PROC ; CvGlobals::getAIGrandStrategyInfo
EXTRN	__imp_??Y?$basic_string@DU?$char_traits@D@std@@V?$allocator@D@2@@std@@QAEAAV01@ABV01@@Z:PROC
EXTRN	?getNumAIGrandStrategyInfos@CvGlobals@@QAEHXZ:PROC ; CvGlobals::getNumAIGrandStrategyInfos
EXTRN	?GetInstance@FILogFileMgr@@SAAAV1@XZ:PROC	; FILogFileMgr::GetInstance
EXTRN	__imp_??$?HDU?$char_traits@D@std@@V?$allocator@D@1@@std@@YA?AV?$basic_string@DU?$char_traits@D@std@@V?$allocator@D@2@@0@ABV10@PBD@Z:PROC
EXTRN	__imp_??$?HDU?$char_traits@D@std@@V?$allocator@D@1@@std@@YA?AV?$basic_string@DU?$char_traits@D@std@@V?$allocator@D@2@@0@PBDABV10@@Z:PROC
EXTRN	?getPlayerAndCityAILogSplit@CvGlobals@@QAE_NXZ:PROC ; CvGlobals::getPlayerAndCityAILogSplit
EXTRN	__imp_?clear@?$basic_string@DU?$char_traits@D@std@@V?$allocator@D@2@@std@@QAEXXZ:PROC
EXTRN	__imp_?assign@?$basic_string@DU?$char_traits@D@std@@V?$allocator@D@2@@std@@QAEAAV12@PBD@Z:PROC
EXTRN	?getCivilizationShortDescription@CvPlayer@@QBEPBDXZ:PROC ; CvPlayer::getCivilizationShortDescription
EXTRN	?getAILogging@CvGlobals@@QAE_NXZ:PROC		; CvGlobals::getAILogging
EXTRN	?getLogging@CvGlobals@@QAE_NXZ:PROC		; CvGlobals::getLogging
;	COMDAT ??_C@_0L@HGIKFMBI@?$CFs?0?5?$CFd?0?5?$CFd?$AA@
; File d:\sources\lekmod_git\checkout\lekmod_dll\cvgamecoredllutil\include\cvstring.h
CONST	SEGMENT
??_C@_0L@HGIKFMBI@?$CFs?0?5?$CFd?0?5?$CFd?$AA@ DB '%s, %d, %d', 00H ; `string'
CONST	ENDS
;	COMDAT ??_C@_0P@KLFHPJPD@?$CK?$CK?$CK?5?$CFs?0?5?$CFd?0?5?$CFd?$AA@
CONST	SEGMENT
??_C@_0P@KLFHPJPD@?$CK?$CK?$CK?5?$CFs?0?5?$CFd?0?5?$CFd?$AA@ DB '*** %s, '
	DB	'%d, %d', 00H				; `string'
CONST	ENDS
;	COMDAT ??_C@_0N@PHCDDCGL@Unknown?5Type?$AA@
CONST	SEGMENT
??_C@_0N@PHCDDCGL@Unknown?5Type?$AA@ DB 'Unknown Type', 00H ; `string'
CONST	ENDS
;	COMDAT ??_C@_02KEGNLNML@?0?5?$AA@
CONST	SEGMENT
??_C@_02KEGNLNML@?0?5?$AA@ DB ', ', 00H			; `string'
CONST	ENDS
;	COMDAT ??_C@_06NHKAIDD@?$CF03d?0?5?$AA@
CONST	SEGMENT
??_C@_06NHKAIDD@?$CF03d?0?5?$AA@ DB '%03d, ', 00H	; `string'
CONST	ENDS
;	COMDAT ??_C@_0BI@MEIIAKNJ@GrandStrategyAI_Log?4csv?$AA@
CONST	SEGMENT
??_C@_0BI@MEIIAKNJ@GrandStrategyAI_Log?4csv?$AA@ DB 'GrandStrategyAI_Log.'
	DB	'csv', 00H					; `string'
CONST	ENDS
;	COMDAT ??_C@_04EBGNMJBD@?4csv?$AA@
CONST	SEGMENT
??_C@_04EBGNMJBD@?4csv?$AA@ DB '.csv', 00H		; `string'
CONST	ENDS
;	COMDAT ??_C@_0BF@PPDELHNB@GrandStrategyAI_Log_?$AA@
CONST	SEGMENT
??_C@_0BF@PPDELHNB@GrandStrategyAI_Log_?$AA@ DB 'GrandStrategyAI_Log_', 00H ; `string'
CONST	ENDS
;	COMDAT xdata$x
xdata$x	SEGMENT
__ehfuncinfo$?LogGrandStrategies@CvGrandStrategyAI@@AAEXABV?$FStaticVector@H$04$00$0BCJ@$0A@@@@Z DD 019930522H
	DD	0aH
	DD	FLAT:__unwindtable$?LogGrandStrategies@CvGrandStrategyAI@@AAEXABV?$FStaticVector@H$04$00$0BCJ@$0A@@@@Z
	DD	2 DUP(00H)
	DD	2 DUP(00H)
	DD	00H
	DD	01H
__unwindtable$?LogGrandStrategies@CvGrandStrategyAI@@AAEXABV?$FStaticVector@H$04$00$0BCJ@$0A@@@@Z DD 0ffffffffH
	DD	FLAT:__unwindfunclet$?LogGrandStrategies@CvGrandStrategyAI@@AAEXABV?$FStaticVector@H$04$00$0BCJ@$0A@@@@Z$0
	DD	00H
	DD	FLAT:__unwindfunclet$?LogGrandStrategies@CvGrandStrategyAI@@AAEXABV?$FStaticVector@H$04$00$0BCJ@$0A@@@@Z$1
	DD	01H
	DD	FLAT:__unwindfunclet$?LogGrandStrategies@CvGrandStrategyAI@@AAEXABV?$FStaticVector@H$04$00$0BCJ@$0A@@@@Z$2
	DD	02H
	DD	FLAT:__unwindfunclet$?LogGrandStrategies@CvGrandStrategyAI@@AAEXABV?$FStaticVector@H$04$00$0BCJ@$0A@@@@Z$3
	DD	03H
	DD	FLAT:__unwindfunclet$?LogGrandStrategies@CvGrandStrategyAI@@AAEXABV?$FStaticVector@H$04$00$0BCJ@$0A@@@@Z$4
	DD	04H
	DD	FLAT:__unwindfunclet$?LogGrandStrategies@CvGrandStrategyAI@@AAEXABV?$FStaticVector@H$04$00$0BCJ@$0A@@@@Z$5
	DD	05H
	DD	FLAT:__unwindfunclet$?LogGrandStrategies@CvGrandStrategyAI@@AAEXABV?$FStaticVector@H$04$00$0BCJ@$0A@@@@Z$6
	DD	06H
	DD	FLAT:__unwindfunclet$?LogGrandStrategies@CvGrandStrategyAI@@AAEXABV?$FStaticVector@H$04$00$0BCJ@$0A@@@@Z$7
	DD	05H
	DD	FLAT:__unwindfunclet$?LogGrandStrategies@CvGrandStrategyAI@@AAEXABV?$FStaticVector@H$04$00$0BCJ@$0A@@@@Z$8
	DD	05H
	DD	FLAT:__unwindfunclet$?LogGrandStrategies@CvGrandStrategyAI@@AAEXABV?$FStaticVector@H$04$00$0BCJ@$0A@@@@Z$9
; Function compile flags: /Odtp
; File d:\sources\lekmod_git\checkout\lekmod_dll\cvgamecoredll_expansion2\cvgrandstrategyai.cpp
xdata$x	ENDS
;	COMDAT ?LogGrandStrategies@CvGrandStrategyAI@@AAEXABV?$FStaticVector@H$04$00$0BCJ@$0A@@@@Z
_TEXT	SEGMENT
tv297 = -384						; size = 4
tv200 = -380						; size = 4
tv267 = -376						; size = 4
tv308 = -372						; size = 4
tv154 = -368						; size = 4
tv319 = -364						; size = 4
tv263 = -360						; size = 4
tv330 = -356						; size = 4
_this$ = -352						; size = 4
$T227633 = -348						; size = 4
$T227629 = -344						; size = 4
$T227625 = -340						; size = 4
$T227621 = -336						; size = 4
$T227614 = -332						; size = 4
$T227610 = -328						; size = 4
$T227601 = -324						; size = 4
$T227597 = -320						; size = 4
$T227557 = -316						; size = 28
$T227554 = -288						; size = 28
$T227553 = -260						; size = 28
$T227552 = -232						; size = 28
_szAIGrandStrategyType$224474 = -204			; size = 4
_pEntry$224473 = -200					; size = 4
_iGrandStrategyLoop$224465 = -196			; size = 4
_strOutBuf$224450 = -192				; size = 28
_playerName$224453 = -164				; size = 28
_eGrandStrategy$224464 = -136				; size = 4
_strDesc$224454 = -132					; size = 28
_strLogName$224455 = -104				; size = 28
_pLog$224463 = -76					; size = 4
_strTemp$224452 = -72					; size = 28
_strBaseString$224451 = -44				; size = 28
__$ArrayPad$ = -16					; size = 4
__$EHRec$ = -12						; size = 12
_vModifiedGrandStrategyPriorities$ = 8			; size = 4
?LogGrandStrategies@CvGrandStrategyAI@@AAEXABV?$FStaticVector@H$04$00$0BCJ@$0A@@@@Z PROC ; CvGrandStrategyAI::LogGrandStrategies, COMDAT
; _this$ = ecx

; 1244 : {

	push	ebp
	mov	ebp, esp
	push	-1
	push	__ehhandler$?LogGrandStrategies@CvGrandStrategyAI@@AAEXABV?$FStaticVector@H$04$00$0BCJ@$0A@@@@Z
	mov	eax, DWORD PTR fs:0
	push	eax
	sub	esp, 372				; 00000174H
	mov	eax, DWORD PTR ___security_cookie
	xor	eax, ebp
	mov	DWORD PTR __$ArrayPad$[ebp], eax
	push	eax
	lea	eax, DWORD PTR __$EHRec$[ebp]
	mov	DWORD PTR fs:0, eax
	mov	DWORD PTR _this$[ebp], ecx

; 1245 : 	if(GC.getLogging() && GC.getAILogging())

	mov	ecx, OFFSET ?gGlobals@@3VCvGlobals@@A	; gGlobals
	call	?getLogging@CvGlobals@@QAE_NXZ		; CvGlobals::getLogging
	movzx	eax, al
	test	eax, eax
	je	$LN9@LogGrandSt
	mov	ecx, OFFSET ?gGlobals@@3VCvGlobals@@A	; gGlobals
	call	?getAILogging@CvGlobals@@QAE_NXZ	; CvGlobals::getAILogging
	movzx	ecx, al
	test	ecx, ecx
	je	$LN9@LogGrandSt

; 1246 : 	{
; 1247 : 		CvString strOutBuf;

	lea	ecx, DWORD PTR _strOutBuf$224450[ebp]
	call	DWORD PTR __imp_??0?$basic_string@DU?$char_traits@D@std@@V?$allocator@D@2@@std@@QAE@XZ
	mov	DWORD PTR __$EHRec$[ebp+8], 0

; 1248 : 		CvString strBaseString;

	lea	ecx, DWORD PTR _strBaseString$224451[ebp]
	call	DWORD PTR __imp_??0?$basic_string@DU?$char_traits@D@std@@V?$allocator@D@2@@std@@QAE@XZ
	mov	BYTE PTR __$EHRec$[ebp+8], 1

; 1249 : 		CvString strTemp;

	lea	ecx, DWORD PTR _strTemp$224452[ebp]
	call	DWORD PTR __imp_??0?$basic_string@DU?$char_traits@D@std@@V?$allocator@D@2@@std@@QAE@XZ
	mov	BYTE PTR __$EHRec$[ebp+8], 2

; 1250 : 		CvString playerName;

	lea	ecx, DWORD PTR _playerName$224453[ebp]
	call	DWORD PTR __imp_??0?$basic_string@DU?$char_traits@D@std@@V?$allocator@D@2@@std@@QAE@XZ
	mov	BYTE PTR __$EHRec$[ebp+8], 3

; 1251 : 		CvString strDesc;

	lea	ecx, DWORD PTR _strDesc$224454[ebp]
	call	DWORD PTR __imp_??0?$basic_string@DU?$char_traits@D@std@@V?$allocator@D@2@@std@@QAE@XZ
	mov	BYTE PTR __$EHRec$[ebp+8], 4

; 1252 : 		CvString strLogName;

	lea	ecx, DWORD PTR _strLogName$224455[ebp]
	call	DWORD PTR __imp_??0?$basic_string@DU?$char_traits@D@std@@V?$allocator@D@2@@std@@QAE@XZ
	mov	BYTE PTR __$EHRec$[ebp+8], 5

; 1253 : 
; 1254 : 		// Find the name of this civ and city
; 1255 : 		playerName = GetPlayer()->getCivilizationShortDescription();

	mov	ecx, DWORD PTR _this$[ebp]
	call	?GetPlayer@CvGrandStrategyAI@@QAEPAVCvPlayer@@XZ ; CvGrandStrategyAI::GetPlayer
	mov	ecx, eax
	call	?getCivilizationShortDescription@CvPlayer@@QBEPBDXZ ; CvPlayer::getCivilizationShortDescription
	mov	DWORD PTR $T227597[ebp], eax
	cmp	DWORD PTR $T227597[ebp], 0
	je	SHORT $LN42@LogGrandSt
	mov	edx, DWORD PTR $T227597[ebp]
	push	edx
	lea	ecx, DWORD PTR _playerName$224453[ebp]
	call	DWORD PTR __imp_?assign@?$basic_string@DU?$char_traits@D@std@@V?$allocator@D@2@@std@@QAEAAV12@PBD@Z
	jmp	SHORT $LN43@LogGrandSt
$LN42@LogGrandSt:
	lea	ecx, DWORD PTR _playerName$224453[ebp]
	call	DWORD PTR __imp_?clear@?$basic_string@DU?$char_traits@D@std@@V?$allocator@D@2@@std@@QAEXXZ
$LN43@LogGrandSt:

; 1256 : 
; 1257 : 		// Open the log file
; 1258 : 		if(GC.getPlayerAndCityAILogSplit())

	mov	ecx, OFFSET ?gGlobals@@3VCvGlobals@@A	; gGlobals
	call	?getPlayerAndCityAILogSplit@CvGlobals@@QAE_NXZ ; CvGlobals::getPlayerAndCityAILogSplit
	movzx	eax, al
	test	eax, eax
	je	$LN7@LogGrandSt

; 1259 : 		{
; 1260 : 			strLogName = "GrandStrategyAI_Log_" + playerName + ".csv";

	lea	ecx, DWORD PTR _playerName$224453[ebp]
	push	ecx
	push	OFFSET ??_C@_0BF@PPDELHNB@GrandStrategyAI_Log_?$AA@
	lea	edx, DWORD PTR $T227552[ebp]
	push	edx
	call	DWORD PTR __imp_??$?HDU?$char_traits@D@std@@V?$allocator@D@1@@std@@YA?AV?$basic_string@DU?$char_traits@D@std@@V?$allocator@D@2@@0@PBDABV10@@Z
	add	esp, 12					; 0000000cH
	mov	DWORD PTR tv330[ebp], eax
	mov	eax, DWORD PTR tv330[ebp]
	mov	DWORD PTR tv263[ebp], eax
	mov	BYTE PTR __$EHRec$[ebp+8], 6
	push	OFFSET ??_C@_04EBGNMJBD@?4csv?$AA@
	mov	ecx, DWORD PTR tv263[ebp]
	push	ecx
	lea	edx, DWORD PTR $T227553[ebp]
	push	edx
	call	DWORD PTR __imp_??$?HDU?$char_traits@D@std@@V?$allocator@D@1@@std@@YA?AV?$basic_string@DU?$char_traits@D@std@@V?$allocator@D@2@@0@ABV10@PBD@Z
	add	esp, 12					; 0000000cH
	mov	DWORD PTR tv319[ebp], eax
	mov	eax, DWORD PTR tv319[ebp]
	mov	DWORD PTR $T227601[ebp], eax
	mov	BYTE PTR __$EHRec$[ebp+8], 7
	mov	ecx, DWORD PTR $T227601[ebp]
	call	DWORD PTR __imp_?c_str@?$basic_string@DU?$char_traits@D@std@@V?$allocator@D@2@@std@@QBEPBDXZ
	push	eax
	lea	ecx, DWORD PTR _strLogName$224455[ebp]
	call	DWORD PTR __imp_?assign@?$basic_string@DU?$char_traits@D@std@@V?$allocator@D@2@@std@@QAEAAV12@PBD@Z
	mov	BYTE PTR __$EHRec$[ebp+8], 6
	lea	ecx, DWORD PTR $T227553[ebp]
	call	DWORD PTR __imp_??1?$basic_string@DU?$char_traits@D@std@@V?$allocator@D@2@@std@@QAE@XZ
	mov	BYTE PTR __$EHRec$[ebp+8], 5
	lea	ecx, DWORD PTR $T227552[ebp]
	call	DWORD PTR __imp_??1?$basic_string@DU?$char_traits@D@std@@V?$allocator@D@2@@std@@QAE@XZ

; 1261 : 		}
; 1262 : 		else

	jmp	SHORT $LN6@LogGrandSt
$LN7@LogGrandSt:

; 1263 : 		{
; 1264 : 			strLogName = "GrandStrategyAI_Log.csv";

	mov	ecx, OFFSET ??_C@_0BI@MEIIAKNJ@GrandStrategyAI_Log?4csv?$AA@
	test	ecx, ecx
	je	SHORT $LN48@LogGrandSt
	push	OFFSET ??_C@_0BI@MEIIAKNJ@GrandStrategyAI_Log?4csv?$AA@
	lea	ecx, DWORD PTR _strLogName$224455[ebp]
	call	DWORD PTR __imp_?assign@?$basic_string@DU?$char_traits@D@std@@V?$allocator@D@2@@std@@QAEAAV12@PBD@Z
	jmp	SHORT $LN6@LogGrandSt
$LN48@LogGrandSt:
	lea	ecx, DWORD PTR _strLogName$224455[ebp]
	call	DWORD PTR __imp_?clear@?$basic_string@DU?$char_traits@D@std@@V?$allocator@D@2@@std@@QAEXXZ
$LN6@LogGrandSt:

; 1265 : 		}
; 1266 : 
; 1267 : 		FILogFile* pLog;
; 1268 : 		pLog = LOGFILEMGR.GetLog(strLogName, FILogFile::kDontTimeStamp);

	call	?GetInstance@FILogFileMgr@@SAAAV1@XZ	; FILogFileMgr::GetInstance
	mov	DWORD PTR tv154[ebp], eax
	lea	ecx, DWORD PTR _strLogName$224455[ebp]
	call	DWORD PTR __imp_?c_str@?$basic_string@DU?$char_traits@D@std@@V?$allocator@D@2@@std@@QBEPBDXZ
	mov	DWORD PTR $T227610[ebp], eax
	push	0
	push	1
	mov	edx, DWORD PTR $T227610[ebp]
	push	edx
	mov	eax, DWORD PTR tv154[ebp]
	mov	edx, DWORD PTR [eax]
	mov	ecx, DWORD PTR tv154[ebp]
	mov	eax, DWORD PTR [edx+12]
	call	eax
	mov	DWORD PTR _pLog$224463[ebp], eax

; 1269 : 
; 1270 : 		AIGrandStrategyTypes eGrandStrategy;
; 1271 : 
; 1272 : 		// Loop through Grand Strategies
; 1273 : #ifdef AUI_WARNING_FIXES
; 1274 : 		for (uint iGrandStrategyLoop = 0; iGrandStrategyLoop < GC.getNumAIGrandStrategyInfos(); iGrandStrategyLoop++)
; 1275 : #else
; 1276 : 		for(int iGrandStrategyLoop = 0; iGrandStrategyLoop < GC.getNumAIGrandStrategyInfos(); iGrandStrategyLoop++)

	mov	DWORD PTR _iGrandStrategyLoop$224465[ebp], 0
	jmp	SHORT $LN5@LogGrandSt
$LN4@LogGrandSt:
	mov	ecx, DWORD PTR _iGrandStrategyLoop$224465[ebp]
	add	ecx, 1
	mov	DWORD PTR _iGrandStrategyLoop$224465[ebp], ecx
$LN5@LogGrandSt:
	mov	ecx, OFFSET ?gGlobals@@3VCvGlobals@@A	; gGlobals
	call	?getNumAIGrandStrategyInfos@CvGlobals@@QAEHXZ ; CvGlobals::getNumAIGrandStrategyInfos
	cmp	DWORD PTR _iGrandStrategyLoop$224465[ebp], eax
	jge	$LN3@LogGrandSt

; 1277 : #endif
; 1278 : 		{
; 1279 : 			// Get the leading info for this line
; 1280 : 			strBaseString.Format("%03d, ", GC.getGame().getElapsedGameTurns());

	mov	edx, DWORD PTR ?gGlobals@@3VCvGlobals@@A+48
	mov	DWORD PTR $T227614[ebp], edx
	mov	ecx, DWORD PTR $T227614[ebp]
	call	?getElapsedGameTurns@CvGame@@QBEHXZ	; CvGame::getElapsedGameTurns
	push	eax
	push	OFFSET ??_C@_06NHKAIDD@?$CF03d?0?5?$AA@
	lea	eax, DWORD PTR _strBaseString$224451[ebp]
	push	eax
	call	?Format@CvString@@QAAXPBDZZ		; CvString::Format
	add	esp, 12					; 0000000cH

; 1281 : 			strBaseString += playerName + ", ";

	push	OFFSET ??_C@_02KEGNLNML@?0?5?$AA@
	lea	ecx, DWORD PTR _playerName$224453[ebp]
	push	ecx
	lea	edx, DWORD PTR $T227554[ebp]
	push	edx
	call	DWORD PTR __imp_??$?HDU?$char_traits@D@std@@V?$allocator@D@1@@std@@YA?AV?$basic_string@DU?$char_traits@D@std@@V?$allocator@D@2@@0@ABV10@PBD@Z
	add	esp, 12					; 0000000cH
	mov	DWORD PTR tv308[ebp], eax
	mov	eax, DWORD PTR tv308[ebp]
	mov	DWORD PTR tv267[ebp], eax
	mov	BYTE PTR __$EHRec$[ebp+8], 8
	mov	ecx, DWORD PTR tv267[ebp]
	push	ecx
	lea	ecx, DWORD PTR _strBaseString$224451[ebp]
	call	DWORD PTR __imp_??Y?$basic_string@DU?$char_traits@D@std@@V?$allocator@D@2@@std@@QAEAAV01@ABV01@@Z
	mov	BYTE PTR __$EHRec$[ebp+8], 5
	lea	ecx, DWORD PTR $T227554[ebp]
	call	DWORD PTR __imp_??1?$basic_string@DU?$char_traits@D@std@@V?$allocator@D@2@@std@@QAE@XZ

; 1282 : 
; 1283 : 			eGrandStrategy = (AIGrandStrategyTypes) iGrandStrategyLoop;

	mov	edx, DWORD PTR _iGrandStrategyLoop$224465[ebp]
	mov	DWORD PTR _eGrandStrategy$224464[ebp], edx

; 1284 : 
; 1285 : 			// GrandStrategy Info
; 1286 : 			CvAIGrandStrategyXMLEntry* pEntry = GC.getAIGrandStrategyInfo(eGrandStrategy);

	mov	eax, DWORD PTR _eGrandStrategy$224464[ebp]
	push	eax
	mov	ecx, OFFSET ?gGlobals@@3VCvGlobals@@A	; gGlobals
	call	?getAIGrandStrategyInfo@CvGlobals@@QAEPAVCvAIGrandStrategyXMLEntry@@W4AIGrandStrategyTypes@@@Z ; CvGlobals::getAIGrandStrategyInfo
	mov	DWORD PTR _pEntry$224473[ebp], eax

; 1287 : 			const char* szAIGrandStrategyType = (pEntry != NULL)? pEntry->GetType() : "Unknown Type";

	cmp	DWORD PTR _pEntry$224473[ebp], 0
	je	SHORT $LN11@LogGrandSt
	mov	ecx, DWORD PTR _pEntry$224473[ebp]
	add	ecx, 176				; 000000b0H
	call	DWORD PTR __imp_?c_str@?$basic_string@DU?$char_traits@D@std@@V?$allocator@D@2@@std@@QBEPBDXZ
	mov	DWORD PTR tv200[ebp], eax
	jmp	SHORT $LN12@LogGrandSt
$LN11@LogGrandSt:
	mov	DWORD PTR tv200[ebp], OFFSET ??_C@_0N@PHCDDCGL@Unknown?5Type?$AA@
$LN12@LogGrandSt:
	mov	ecx, DWORD PTR tv200[ebp]
	mov	DWORD PTR _szAIGrandStrategyType$224474[ebp], ecx

; 1288 : 
; 1289 : 			if(GetActiveGrandStrategy() == eGrandStrategy)

	mov	ecx, DWORD PTR _this$[ebp]
	call	?GetActiveGrandStrategy@CvGrandStrategyAI@@QBE?AW4AIGrandStrategyTypes@@XZ ; CvGrandStrategyAI::GetActiveGrandStrategy
	cmp	eax, DWORD PTR _eGrandStrategy$224464[ebp]
	jne	SHORT $LN2@LogGrandSt

; 1290 : 			{
; 1291 : 				strTemp.Format("*** %s, %d, %d", szAIGrandStrategyType, GetGrandStrategyPriority(eGrandStrategy), vModifiedGrandStrategyPriorities[eGrandStrategy]);

	mov	edx, DWORD PTR _vModifiedGrandStrategyPriorities$[ebp]
	mov	eax, DWORD PTR [edx]
	mov	ecx, DWORD PTR _eGrandStrategy$224464[ebp]
	lea	edx, DWORD PTR [eax+ecx*4]
	mov	DWORD PTR $T227621[ebp], edx
	mov	eax, DWORD PTR $T227621[ebp]
	mov	ecx, DWORD PTR [eax]
	push	ecx
	mov	edx, DWORD PTR _eGrandStrategy$224464[ebp]
	push	edx
	mov	ecx, DWORD PTR _this$[ebp]
	call	?GetGrandStrategyPriority@CvGrandStrategyAI@@QBEHW4AIGrandStrategyTypes@@@Z ; CvGrandStrategyAI::GetGrandStrategyPriority
	push	eax
	mov	eax, DWORD PTR _szAIGrandStrategyType$224474[ebp]
	push	eax
	push	OFFSET ??_C@_0P@KLFHPJPD@?$CK?$CK?$CK?5?$CFs?0?5?$CFd?0?5?$CFd?$AA@
	lea	ecx, DWORD PTR _strTemp$224452[ebp]
	push	ecx
	call	?Format@CvString@@QAAXPBDZZ		; CvString::Format
	add	esp, 20					; 00000014H

; 1292 : 			}
; 1293 : 			else

	jmp	SHORT $LN1@LogGrandSt
$LN2@LogGrandSt:

; 1294 : 			{
; 1295 : 				strTemp.Format("%s, %d, %d", szAIGrandStrategyType, GetGrandStrategyPriority(eGrandStrategy), vModifiedGrandStrategyPriorities[eGrandStrategy]);

	mov	edx, DWORD PTR _vModifiedGrandStrategyPriorities$[ebp]
	mov	eax, DWORD PTR [edx]
	mov	ecx, DWORD PTR _eGrandStrategy$224464[ebp]
	lea	edx, DWORD PTR [eax+ecx*4]
	mov	DWORD PTR $T227625[ebp], edx
	mov	eax, DWORD PTR $T227625[ebp]
	mov	ecx, DWORD PTR [eax]
	push	ecx
	mov	edx, DWORD PTR _eGrandStrategy$224464[ebp]
	push	edx
	mov	ecx, DWORD PTR _this$[ebp]
	call	?GetGrandStrategyPriority@CvGrandStrategyAI@@QBEHW4AIGrandStrategyTypes@@@Z ; CvGrandStrategyAI::GetGrandStrategyPriority
	push	eax
	mov	eax, DWORD PTR _szAIGrandStrategyType$224474[ebp]
	push	eax
	push	OFFSET ??_C@_0L@HGIKFMBI@?$CFs?0?5?$CFd?0?5?$CFd?$AA@
	lea	ecx, DWORD PTR _strTemp$224452[ebp]
	push	ecx
	call	?Format@CvString@@QAAXPBDZZ		; CvString::Format
	add	esp, 20					; 00000014H
$LN1@LogGrandSt:

; 1296 : 			}
; 1297 : 			strOutBuf = strBaseString + strTemp;

	lea	edx, DWORD PTR _strTemp$224452[ebp]
	push	edx
	lea	eax, DWORD PTR _strBaseString$224451[ebp]
	push	eax
	lea	ecx, DWORD PTR $T227557[ebp]
	push	ecx
	call	DWORD PTR __imp_??$?HDU?$char_traits@D@std@@V?$allocator@D@1@@std@@YA?AV?$basic_string@DU?$char_traits@D@std@@V?$allocator@D@2@@0@ABV10@0@Z
	add	esp, 12					; 0000000cH
	mov	DWORD PTR tv297[ebp], eax
	mov	edx, DWORD PTR tv297[ebp]
	mov	DWORD PTR $T227629[ebp], edx
	mov	BYTE PTR __$EHRec$[ebp+8], 9
	mov	ecx, DWORD PTR $T227629[ebp]
	call	DWORD PTR __imp_?c_str@?$basic_string@DU?$char_traits@D@std@@V?$allocator@D@2@@std@@QBEPBDXZ
	push	eax
	lea	ecx, DWORD PTR _strOutBuf$224450[ebp]
	call	DWORD PTR __imp_?assign@?$basic_string@DU?$char_traits@D@std@@V?$allocator@D@2@@std@@QAEAAV12@PBD@Z
	mov	BYTE PTR __$EHRec$[ebp+8], 5
	lea	ecx, DWORD PTR $T227557[ebp]
	call	DWORD PTR __imp_??1?$basic_string@DU?$char_traits@D@std@@V?$allocator@D@2@@std@@QAE@XZ

; 1298 : 			pLog->Msg(strOutBuf);

	lea	ecx, DWORD PTR _strOutBuf$224450[ebp]
	call	DWORD PTR __imp_?c_str@?$basic_string@DU?$char_traits@D@std@@V?$allocator@D@2@@std@@QBEPBDXZ
	mov	DWORD PTR $T227633[ebp], eax
	mov	eax, DWORD PTR $T227633[ebp]
	push	eax
	mov	ecx, DWORD PTR _pLog$224463[ebp]
	mov	edx, DWORD PTR [ecx]
	mov	eax, DWORD PTR _pLog$224463[ebp]
	push	eax
	mov	ecx, DWORD PTR [edx]
	call	ecx
	add	esp, 8

; 1299 : 		}

	jmp	$LN4@LogGrandSt
$LN3@LogGrandSt:

; 1300 : 	}

	mov	BYTE PTR __$EHRec$[ebp+8], 4
	lea	ecx, DWORD PTR _strLogName$224455[ebp]
	call	DWORD PTR __imp_??1?$basic_string@DU?$char_traits@D@std@@V?$allocator@D@2@@std@@QAE@XZ
	mov	BYTE PTR __$EHRec$[ebp+8], 3
	lea	ecx, DWORD PTR _strDesc$224454[ebp]
	call	DWORD PTR __imp_??1?$basic_string@DU?$char_traits@D@std@@V?$allocator@D@2@@std@@QAE@XZ
	mov	BYTE PTR __$EHRec$[ebp+8], 2
	lea	ecx, DWORD PTR _playerName$224453[ebp]
	call	DWORD PTR __imp_??1?$basic_string@DU?$char_traits@D@std@@V?$allocator@D@2@@std@@QAE@XZ
	mov	BYTE PTR __$EHRec$[ebp+8], 1
	lea	ecx, DWORD PTR _strTemp$224452[ebp]
	call	DWORD PTR __imp_??1?$basic_string@DU?$char_traits@D@std@@V?$allocator@D@2@@std@@QAE@XZ
	mov	BYTE PTR __$EHRec$[ebp+8], 0
	lea	ecx, DWORD PTR _strBaseString$224451[ebp]
	call	DWORD PTR __imp_??1?$basic_string@DU?$char_traits@D@std@@V?$allocator@D@2@@std@@QAE@XZ
	mov	DWORD PTR __$EHRec$[ebp+8], -1
	lea	ecx, DWORD PTR _strOutBuf$224450[ebp]
	call	DWORD PTR __imp_??1?$basic_string@DU?$char_traits@D@std@@V?$allocator@D@2@@std@@QAE@XZ
$LN9@LogGrandSt:

; 1301 : }

	mov	ecx, DWORD PTR __$EHRec$[ebp]
	mov	DWORD PTR fs:0, ecx
	pop	ecx
	mov	ecx, DWORD PTR __$ArrayPad$[ebp]
	xor	ecx, ebp
	call	@__security_check_cookie@4
	mov	esp, ebp
	pop	ebp
	ret	4
_TEXT	ENDS
;	COMDAT text$x
text$x	SEGMENT
__unwindfunclet$?LogGrandStrategies@CvGrandStrategyAI@@AAEXABV?$FStaticVector@H$04$00$0BCJ@$0A@@@@Z$0:
	lea	ecx, DWORD PTR _strOutBuf$224450[ebp]
	jmp	??1CvString@@QAE@XZ			; CvString::~CvString
__unwindfunclet$?LogGrandStrategies@CvGrandStrategyAI@@AAEXABV?$FStaticVector@H$04$00$0BCJ@$0A@@@@Z$1:
	lea	ecx, DWORD PTR _strBaseString$224451[ebp]
	jmp	??1CvString@@QAE@XZ			; CvString::~CvString
__unwindfunclet$?LogGrandStrategies@CvGrandStrategyAI@@AAEXABV?$FStaticVector@H$04$00$0BCJ@$0A@@@@Z$2:
	lea	ecx, DWORD PTR _strTemp$224452[ebp]
	jmp	??1CvString@@QAE@XZ			; CvString::~CvString
__unwindfunclet$?LogGrandStrategies@CvGrandStrategyAI@@AAEXABV?$FStaticVector@H$04$00$0BCJ@$0A@@@@Z$3:
	lea	ecx, DWORD PTR _playerName$224453[ebp]
	jmp	??1CvString@@QAE@XZ			; CvString::~CvString
__unwindfunclet$?LogGrandStrategies@CvGrandStrategyAI@@AAEXABV?$FStaticVector@H$04$00$0BCJ@$0A@@@@Z$4:
	lea	ecx, DWORD PTR _strDesc$224454[ebp]
	jmp	??1CvString@@QAE@XZ			; CvString::~CvString
__unwindfunclet$?LogGrandStrategies@CvGrandStrategyAI@@AAEXABV?$FStaticVector@H$04$00$0BCJ@$0A@@@@Z$5:
	lea	ecx, DWORD PTR _strLogName$224455[ebp]
	jmp	??1CvString@@QAE@XZ			; CvString::~CvString
__unwindfunclet$?LogGrandStrategies@CvGrandStrategyAI@@AAEXABV?$FStaticVector@H$04$00$0BCJ@$0A@@@@Z$6:
	lea	ecx, DWORD PTR $T227552[ebp]
	jmp	DWORD PTR __imp_??1?$basic_string@DU?$char_traits@D@std@@V?$allocator@D@2@@std@@QAE@XZ
__unwindfunclet$?LogGrandStrategies@CvGrandStrategyAI@@AAEXABV?$FStaticVector@H$04$00$0BCJ@$0A@@@@Z$7:
	lea	ecx, DWORD PTR $T227553[ebp]
	jmp	DWORD PTR __imp_??1?$basic_string@DU?$char_traits@D@std@@V?$allocator@D@2@@std@@QAE@XZ
__unwindfunclet$?LogGrandStrategies@CvGrandStrategyAI@@AAEXABV?$FStaticVector@H$04$00$0BCJ@$0A@@@@Z$8:
	lea	ecx, DWORD PTR $T227554[ebp]
	jmp	DWORD PTR __imp_??1?$basic_string@DU?$char_traits@D@std@@V?$allocator@D@2@@std@@QAE@XZ
__unwindfunclet$?LogGrandStrategies@CvGrandStrategyAI@@AAEXABV?$FStaticVector@H$04$00$0BCJ@$0A@@@@Z$9:
	lea	ecx, DWORD PTR $T227557[ebp]
	jmp	DWORD PTR __imp_??1?$basic_string@DU?$char_traits@D@std@@V?$allocator@D@2@@std@@QAE@XZ
__ehhandler$?LogGrandStrategies@CvGrandStrategyAI@@AAEXABV?$FStaticVector@H$04$00$0BCJ@$0A@@@@Z:
	mov	edx, DWORD PTR [esp+8]
	lea	eax, DWORD PTR [edx+12]
	mov	ecx, DWORD PTR [edx-376]
	xor	ecx, eax
	call	@__security_check_cookie@4
	mov	ecx, DWORD PTR [edx-4]
	xor	ecx, eax
	call	@__security_check_cookie@4
	mov	eax, OFFSET __ehfuncinfo$?LogGrandStrategies@CvGrandStrategyAI@@AAEXABV?$FStaticVector@H$04$00$0BCJ@$0A@@@@Z
	jmp	___CxxFrameHandler3
text$x	ENDS
?LogGrandStrategies@CvGrandStrategyAI@@AAEXABV?$FStaticVector@H$04$00$0BCJ@$0A@@@@Z ENDP ; CvGrandStrategyAI::LogGrandStrategies
PUBLIC	??_C@_0BG@JBNKPMIB@NO_GRAND_STRATEGY?0?5?$CFd?$AA@ ; `string'
PUBLIC	??_C@_03MAMPKPPK@XXX?$AA@			; `string'
PUBLIC	??_C@_06IMOMGBNG@Unsure?$AA@			; `string'
PUBLIC	??_C@_06JDOJNAII@Likely?$AA@			; `string'
PUBLIC	??_C@_08JCJOPJJC@Positive?$AA@			; `string'
PUBLIC	??_C@_06OJLEAOEG@?$CFs?0?5?$CFd?$AA@		; `string'
PUBLIC	??_C@_0L@MNLKEOPF@?$CK?$CK?$CK?5?$CFs?0?5?$CFd?$AA@ ; `string'
PUBLIC	??_C@_0BB@BGBNCECB@Unknown?5Strategy?$AA@	; `string'
PUBLIC	??_C@_0BO@BIGCHNFG@GrandStrategyAI_Guess_Log?4csv?$AA@ ; `string'
PUBLIC	??_C@_0BL@IHHDDHNI@GrandStrategyAI_Guess_Log_?$AA@ ; `string'
PUBLIC	__$ArrayPad$
;	COMDAT ??_C@_0BG@JBNKPMIB@NO_GRAND_STRATEGY?0?5?$CFd?$AA@
; File d:\sources\lekmod_git\checkout\lekmod_dll\cvgamecoredllutil\include\cvstring.h
CONST	SEGMENT
??_C@_0BG@JBNKPMIB@NO_GRAND_STRATEGY?0?5?$CFd?$AA@ DB 'NO_GRAND_STRATEGY,'
	DB	' %d', 00H					; `string'
CONST	ENDS
;	COMDAT ??_C@_03MAMPKPPK@XXX?$AA@
CONST	SEGMENT
??_C@_03MAMPKPPK@XXX?$AA@ DB 'XXX', 00H			; `string'
CONST	ENDS
;	COMDAT ??_C@_06IMOMGBNG@Unsure?$AA@
CONST	SEGMENT
??_C@_06IMOMGBNG@Unsure?$AA@ DB 'Unsure', 00H		; `string'
CONST	ENDS
;	COMDAT ??_C@_06JDOJNAII@Likely?$AA@
CONST	SEGMENT
??_C@_06JDOJNAII@Likely?$AA@ DB 'Likely', 00H		; `string'
CONST	ENDS
;	COMDAT ??_C@_08JCJOPJJC@Positive?$AA@
CONST	SEGMENT
??_C@_08JCJOPJJC@Positive?$AA@ DB 'Positive', 00H	; `string'
CONST	ENDS
;	COMDAT ??_C@_06OJLEAOEG@?$CFs?0?5?$CFd?$AA@
CONST	SEGMENT
??_C@_06OJLEAOEG@?$CFs?0?5?$CFd?$AA@ DB '%s, %d', 00H	; `string'
CONST	ENDS
;	COMDAT ??_C@_0L@MNLKEOPF@?$CK?$CK?$CK?5?$CFs?0?5?$CFd?$AA@
CONST	SEGMENT
??_C@_0L@MNLKEOPF@?$CK?$CK?$CK?5?$CFs?0?5?$CFd?$AA@ DB '*** %s, %d', 00H ; `string'
CONST	ENDS
;	COMDAT ??_C@_0BB@BGBNCECB@Unknown?5Strategy?$AA@
CONST	SEGMENT
??_C@_0BB@BGBNCECB@Unknown?5Strategy?$AA@ DB 'Unknown Strategy', 00H ; `string'
CONST	ENDS
;	COMDAT ??_C@_0BO@BIGCHNFG@GrandStrategyAI_Guess_Log?4csv?$AA@
CONST	SEGMENT
??_C@_0BO@BIGCHNFG@GrandStrategyAI_Guess_Log?4csv?$AA@ DB 'GrandStrategyA'
	DB	'I_Guess_Log.csv', 00H			; `string'
CONST	ENDS
;	COMDAT ??_C@_0BL@IHHDDHNI@GrandStrategyAI_Guess_Log_?$AA@
CONST	SEGMENT
??_C@_0BL@IHHDDHNI@GrandStrategyAI_Guess_Log_?$AA@ DB 'GrandStrategyAI_Gu'
	DB	'ess_Log_', 00H				; `string'
CONST	ENDS
;	COMDAT xdata$x
xdata$x	SEGMENT
__ehfuncinfo$?LogGuessOtherPlayerGrandStrategy@CvGrandStrategyAI@@AAEXABV?$FStaticVector@H$04$00$0BCJ@$0A@@@W4PlayerTypes@@@Z DD 019930522H
	DD	012H
	DD	FLAT:__unwindtable$?LogGuessOtherPlayerGrandStrategy@CvGrandStrategyAI@@AAEXABV?$FStaticVector@H$04$00$0BCJ@$0A@@@W4PlayerTypes@@@Z
	DD	2 DUP(00H)
	DD	2 DUP(00H)
	DD	00H
	DD	01H
__unwindtable$?LogGuessOtherPlayerGrandStrategy@CvGrandStrategyAI@@AAEXABV?$FStaticVector@H$04$00$0BCJ@$0A@@@W4PlayerTypes@@@Z DD 0ffffffffH
	DD	FLAT:__unwindfunclet$?LogGuessOtherPlayerGrandStrategy@CvGrandStrategyAI@@AAEXABV?$FStaticVector@H$04$00$0BCJ@$0A@@@W4PlayerTypes@@@Z$0
	DD	00H
	DD	FLAT:__unwindfunclet$?LogGuessOtherPlayerGrandStrategy@CvGrandStrategyAI@@AAEXABV?$FStaticVector@H$04$00$0BCJ@$0A@@@W4PlayerTypes@@@Z$1
	DD	01H
	DD	FLAT:__unwindfunclet$?LogGuessOtherPlayerGrandStrategy@CvGrandStrategyAI@@AAEXABV?$FStaticVector@H$04$00$0BCJ@$0A@@@W4PlayerTypes@@@Z$2
	DD	02H
	DD	FLAT:__unwindfunclet$?LogGuessOtherPlayerGrandStrategy@CvGrandStrategyAI@@AAEXABV?$FStaticVector@H$04$00$0BCJ@$0A@@@W4PlayerTypes@@@Z$3
	DD	03H
	DD	FLAT:__unwindfunclet$?LogGuessOtherPlayerGrandStrategy@CvGrandStrategyAI@@AAEXABV?$FStaticVector@H$04$00$0BCJ@$0A@@@W4PlayerTypes@@@Z$4
	DD	04H
	DD	FLAT:__unwindfunclet$?LogGuessOtherPlayerGrandStrategy@CvGrandStrategyAI@@AAEXABV?$FStaticVector@H$04$00$0BCJ@$0A@@@W4PlayerTypes@@@Z$5
	DD	05H
	DD	FLAT:__unwindfunclet$?LogGuessOtherPlayerGrandStrategy@CvGrandStrategyAI@@AAEXABV?$FStaticVector@H$04$00$0BCJ@$0A@@@W4PlayerTypes@@@Z$6
	DD	06H
	DD	FLAT:__unwindfunclet$?LogGuessOtherPlayerGrandStrategy@CvGrandStrategyAI@@AAEXABV?$FStaticVector@H$04$00$0BCJ@$0A@@@W4PlayerTypes@@@Z$7
	DD	07H
	DD	FLAT:__unwindfunclet$?LogGuessOtherPlayerGrandStrategy@CvGrandStrategyAI@@AAEXABV?$FStaticVector@H$04$00$0BCJ@$0A@@@W4PlayerTypes@@@Z$8
	DD	06H
	DD	FLAT:__unwindfunclet$?LogGuessOtherPlayerGrandStrategy@CvGrandStrategyAI@@AAEXABV?$FStaticVector@H$04$00$0BCJ@$0A@@@W4PlayerTypes@@@Z$9
	DD	06H
	DD	FLAT:__unwindfunclet$?LogGuessOtherPlayerGrandStrategy@CvGrandStrategyAI@@AAEXABV?$FStaticVector@H$04$00$0BCJ@$0A@@@W4PlayerTypes@@@Z$10
	DD	0aH
	DD	FLAT:__unwindfunclet$?LogGuessOtherPlayerGrandStrategy@CvGrandStrategyAI@@AAEXABV?$FStaticVector@H$04$00$0BCJ@$0A@@@W4PlayerTypes@@@Z$11
	DD	0bH
	DD	FLAT:__unwindfunclet$?LogGuessOtherPlayerGrandStrategy@CvGrandStrategyAI@@AAEXABV?$FStaticVector@H$04$00$0BCJ@$0A@@@W4PlayerTypes@@@Z$12
	DD	06H
	DD	FLAT:__unwindfunclet$?LogGuessOtherPlayerGrandStrategy@CvGrandStrategyAI@@AAEXABV?$FStaticVector@H$04$00$0BCJ@$0A@@@W4PlayerTypes@@@Z$13
	DD	06H
	DD	FLAT:__unwindfunclet$?LogGuessOtherPlayerGrandStrategy@CvGrandStrategyAI@@AAEXABV?$FStaticVector@H$04$00$0BCJ@$0A@@@W4PlayerTypes@@@Z$14
	DD	06H
	DD	FLAT:__unwindfunclet$?LogGuessOtherPlayerGrandStrategy@CvGrandStrategyAI@@AAEXABV?$FStaticVector@H$04$00$0BCJ@$0A@@@W4PlayerTypes@@@Z$15
	DD	0fH
	DD	FLAT:__unwindfunclet$?LogGuessOtherPlayerGrandStrategy@CvGrandStrategyAI@@AAEXABV?$FStaticVector@H$04$00$0BCJ@$0A@@@W4PlayerTypes@@@Z$16
	DD	010H
	DD	FLAT:__unwindfunclet$?LogGuessOtherPlayerGrandStrategy@CvGrandStrategyAI@@AAEXABV?$FStaticVector@H$04$00$0BCJ@$0A@@@W4PlayerTypes@@@Z$17
; Function compile flags: /Odtp
; File d:\sources\lekmod_git\checkout\lekmod_dll\cvgamecoredll_expansion2\cvgrandstrategyai.cpp
xdata$x	ENDS
;	COMDAT ?LogGuessOtherPlayerGrandStrategy@CvGrandStrategyAI@@AAEXABV?$FStaticVector@H$04$00$0BCJ@$0A@@@W4PlayerTypes@@@Z
