; Listing generated by Microsoft (R) Optimizing Compiler Version 15.00.30729.01 

	TITLE	D:\sources\Lekmod_git\checkout\LEKMOD_DLL\CvGameCoreDLL_Expansion2\CvInfosSerializationHelper.cpp
	.686P
	.XMM
	include listing.inc
	.model	flat

INCLUDELIB MSVCRT
INCLUDELIB OLDNAMES

PUBLIC	??_C@_0BI@FGGAJNOF@POLICY_BRANCH_AUTOCRACY?$AA@	; `string'
PUBLIC	??_C@_0BE@DLGMMGNE@POLICY_BRANCH_ORDER?$AA@	; `string'
PUBLIC	??_C@_0BG@ICDGHIK@POLICY_BRANCH_FREEDOM?$AA@	; `string'
PUBLIC	??_C@_0BK@LFLBMNOF@POLICY_BRANCH_RATIONALISM?$AA@ ; `string'
PUBLIC	??_C@_0BH@GHHDNEFO@POLICY_BRANCH_COMMERCE?$AA@	; `string'
PUBLIC	??_C@_0BI@FKIFNGDJ@POLICY_BRANCH_PATRONAGE?$AA@	; `string'
PUBLIC	??_C@_0BE@JIHAKHOA@POLICY_BRANCH_PIETY?$AA@	; `string'
PUBLIC	??_C@_0BE@NMDDMAON@POLICY_BRANCH_HONOR?$AA@	; `string'
PUBLIC	??_C@_0BG@KKJABAEJ@POLICY_BRANCH_LIBERTY?$AA@	; `string'
PUBLIC	??_C@_0BI@CCCMFCOO@POLICY_BRANCH_TRADITION?$AA@	; `string'
PUBLIC	??_C@_0BB@BJLDBJBL@POLICY_TOTAL_WAR?$AA@	; `string'
PUBLIC	??_C@_0BE@BLCAPAFL@POLICY_POLICE_STATE?$AA@	; `string'
PUBLIC	??_C@_0P@MJNDPJKG@POLICY_FASCISM?$AA@		; `string'
PUBLIC	??_C@_0BC@LCIIEGIC@POLICY_MILITARISM?$AA@	; `string'
PUBLIC	??_C@_0BA@LFGAIAEP@POLICY_POPULISM?$AA@		; `string'
PUBLIC	??_C@_0BB@CNCBJDIH@POLICY_AUTOCRACY?$AA@	; `string'
PUBLIC	??_C@_0BB@GDPCHHLD@POLICY_COMMUNISM?$AA@	; `string'
PUBLIC	??_C@_0BH@NKBJMHJA@POLICY_PLANNED_ECONOMY?$AA@	; `string'
PUBLIC	??_C@_0BD@MNADCPL@POLICY_NATIONALISM?$AA@	; `string'
PUBLIC	??_C@_0BB@EHBONDJH@POLICY_SOCIALISM?$AA@	; `string'
PUBLIC	??_C@_0BE@PPPBMECE@POLICY_UNITED_FRONT?$AA@	; `string'
PUBLIC	??_C@_0N@CLJHNEDL@POLICY_ORDER?$AA@		; `string'
PUBLIC	??_C@_0BB@EDMDALC@POLICY_DEMOCRACY?$AA@		; `string'
PUBLIC	??_C@_0BD@IHDPGIOK@POLICY_FREE_SPEECH?$AA@	; `string'
PUBLIC	??_C@_0BF@CPBEHNKO@POLICY_CIVIL_SOCIETY?$AA@	; `string'
PUBLIC	??_C@_0BK@NKGJKPIA@POLICY_UNIVERSAL_SUFFRAGE?$AA@ ; `string'
PUBLIC	??_C@_0BE@HGOKCAK@POLICY_CONSTITUTION?$AA@	; `string'
PUBLIC	??_C@_0P@CCHMOJBK@POLICY_FREEDOM?$AA@		; `string'
PUBLIC	??_C@_0BN@OCIJHDFL@POLICY_SCIENTIFIC_REVOLUTION?$AA@ ; `string'
PUBLIC	??_C@_0BD@OGNMOMND@POLICY_SOVEREIGNTY?$AA@	; `string'
PUBLIC	??_C@_0BE@IOGCFEFN@POLICY_FREE_THOUGHT?$AA@	; `string'
PUBLIC	??_C@_0BA@KLINKDCG@POLICY_HUMANISM?$AA@		; `string'
PUBLIC	??_C@_0BC@PEKIHANN@POLICY_SECULARISM?$AA@	; `string'
PUBLIC	??_C@_0BD@FMCJCIG@POLICY_RATIONALISM?$AA@	; `string'
PUBLIC	??_C@_0BF@OJPLOHEO@POLICY_PROTECTIONISM?$AA@	; `string'
PUBLIC	??_C@_0BF@DKMAHKLA@POLICY_MERCHANT_NAVY?$AA@	; `string'
PUBLIC	??_C@_0BE@GCPKIIGM@POLICY_MERCANTILISM?$AA@	; `string'
PUBLIC	??_C@_0BH@CMLGAJDB@POLICY_NAVAL_TRADITION?$AA@	; `string'
PUBLIC	??_C@_0BE@IHJLBNHL@POLICY_TRADE_UNIONS?$AA@	; `string'
PUBLIC	??_C@_0BA@JHFGBIJE@POLICY_COMMERCE?$AA@		; `string'
PUBLIC	??_C@_0BG@LPHBNICI@POLICY_EDUCATED_ELITE?$AA@	; `string'
PUBLIC	??_C@_0BK@ODPOBBDK@POLICY_CULTURAL_DIPLOMACY?$AA@ ; `string'
PUBLIC	??_C@_0BF@PFKCMHDN@POLICY_SCHOLASTICISM?$AA@	; `string'
PUBLIC	??_C@_0BC@EKKBEADC@POLICY_AESTHETICS?$AA@	; `string'
PUBLIC	??_C@_0BE@GOKNJLLC@POLICY_PHILANTHROPY?$AA@	; `string'
PUBLIC	??_C@_0BB@CBMENIFL@POLICY_PATRONAGE?$AA@	; `string'
PUBLIC	??_C@_0BF@HOICLCEE@POLICY_FREE_RELIGION?$AA@	; `string'
PUBLIC	??_C@_0BD@FNINCCKI@POLICY_REFORMATION?$AA@	; `string'
PUBLIC	??_C@_0BB@BDIENLI@POLICY_THEOCRACY?$AA@		; `string'
PUBLIC	??_C@_0BJ@JAMPIIBN@POLICY_MANDATE_OF_HEAVEN?$AA@ ; `string'
PUBLIC	??_C@_0BK@KLAFJFKB@POLICY_ORGANIZED_RELIGION?$AA@ ; `string'
PUBLIC	??_C@_0N@IIILLFAP@POLICY_PIETY?$AA@		; `string'
PUBLIC	??_C@_0BJ@MOECPAFG@POLICY_PROFESSIONAL_ARMY?$AA@ ; `string'
PUBLIC	??_C@_0BG@DOPDJJJH@POLICY_MILITARY_CASTE?$AA@	; `string'
PUBLIC	??_C@_0BK@GMKLKNLL@POLICY_MILITARY_TRADITION?$AA@ ; `string'
PUBLIC	??_C@_0BC@OGAIFGJH@POLICY_DISCIPLINE?$AA@	; `string'
PUBLIC	??_C@_0BE@JAGOBIPD@POLICY_WARRIOR_CODE?$AA@	; `string'
PUBLIC	??_C@_0N@MMMINCAC@POLICY_HONOR?$AA@		; `string'
PUBLIC	??_C@_0BA@MJPJNADE@POLICY_MONARCHY?$AA@		; `string'
PUBLIC	??_C@_0BE@IOCFGCCL@POLICY_LANDED_ELITE?$AA@	; `string'
PUBLIC	??_C@_0BA@FEGKMPCP@POLICY_LEGALISM?$AA@		; `string'
PUBLIC	??_C@_0BB@MEOLLOC@POLICY_OLIGARCHY?$AA@		; `string'
PUBLIC	??_C@_0BD@EAGMDPBM@POLICY_ARISTOCRACY?$AA@	; `string'
PUBLIC	??_C@_0BB@FJGNFMIM@POLICY_TRADITION?$AA@	; `string'
PUBLIC	??_C@_0BD@CEALBBCF@POLICY_MERITOCRACY?$AA@	; `string'
PUBLIC	??_C@_0BG@IOMLJAEN@POLICY_REPRESENTATION?$AA@	; `string'
PUBLIC	??_C@_0BA@NIKPBHK@POLICY_REPUBLIC?$AA@		; `string'
PUBLIC	??_C@_0BD@FLGHCGLM@POLICY_CITIZENSHIP?$AA@	; `string'
PUBLIC	??_C@_0BH@FNENMNLA@POLICY_COLLECTIVE_RULE?$AA@	; `string'
PUBLIC	??_C@_0P@IAMPJONJ@POLICY_LIBERTY?$AA@		; `string'
PUBLIC	??_C@_0BB@IJOEIFEO@RESOURCE_INCENSE?$AA@	; `string'
PUBLIC	??_C@_0O@JCJDNAIN@RESOURCE_WINE?$AA@		; `string'
PUBLIC	??_C@_0BA@JKPPOKCO@RESOURCE_COTTON?$AA@		; `string'
PUBLIC	??_C@_0P@FPJGIMFI@RESOURCE_SUGAR?$AA@		; `string'
PUBLIC	??_C@_0O@PKBEIPKN@RESOURCE_SILK?$AA@		; `string'
PUBLIC	??_C@_0BA@KIOEBDHB@RESOURCE_SPICES?$AA@		; `string'
PUBLIC	??_C@_0N@PKJGCBBJ@RESOURCE_DYE?$AA@		; `string'
PUBLIC	??_C@_0N@FMAGJEGA@RESOURCE_FUR?$AA@		; `string'
PUBLIC	??_C@_0P@ICFLDLHI@RESOURCE_IVORY?$AA@		; `string'
PUBLIC	??_C@_0BA@OLEKGKHC@RESOURCE_MARBLE?$AA@		; `string'
PUBLIC	??_C@_0O@KGHLPDDJ@RESOURCE_GEMS?$AA@		; `string'
PUBLIC	??_C@_0BA@DKABFJLO@RESOURCE_SILVER?$AA@		; `string'
PUBLIC	??_C@_0O@MNIHPNPM@RESOURCE_GOLD?$AA@		; `string'
PUBLIC	??_C@_0BA@BNBDNKHA@RESOURCE_PEARLS?$AA@		; `string'
PUBLIC	??_C@_0P@HEEHNFGE@RESOURCE_WHALE?$AA@		; `string'
PUBLIC	??_C@_0O@GOEDCANB@RESOURCE_FISH?$AA@		; `string'
PUBLIC	??_C@_0BA@MNEPNOJM@RESOURCE_BANANA?$AA@		; `string'
PUBLIC	??_C@_0O@PGNDOJBA@RESOURCE_DEER?$AA@		; `string'
PUBLIC	??_C@_0P@FINANNLO@RESOURCE_SHEEP?$AA@		; `string'
PUBLIC	??_C@_0N@HBOLGLB@RESOURCE_COW?$AA@		; `string'
PUBLIC	??_C@_0P@KACEPCHA@RESOURCE_WHEAT?$AA@		; `string'
PUBLIC	??_C@_0BB@GJBFAJIJ@RESOURCE_URANIUM?$AA@	; `string'
PUBLIC	??_C@_0BC@MJOPMHIE@RESOURCE_ALUMINUM?$AA@	; `string'
PUBLIC	??_C@_0N@OAHDLOCB@RESOURCE_OIL?$AA@		; `string'
PUBLIC	??_C@_0O@PIAGECGH@RESOURCE_COAL?$AA@		; `string'
PUBLIC	??_C@_0P@GBDBKFAG@RESOURCE_HORSE?$AA@		; `string'
PUBLIC	??_C@_0O@CIGNJKAM@RESOURCE_IRON?$AA@		; `string'
PUBLIC	?ms_V0ResourceTags@CvInfosSerializationHelper@@3PAPBDA ; CvInfosSerializationHelper::ms_V0ResourceTags
PUBLIC	?ms_V0PolicyTags@CvInfosSerializationHelper@@3PAPBDA ; CvInfosSerializationHelper::ms_V0PolicyTags
PUBLIC	?ms_V0PolicyBranchTags@CvInfosSerializationHelper@@3PAPBDA ; CvInfosSerializationHelper::ms_V0PolicyBranchTags
;	COMDAT ??_C@_0BI@FGGAJNOF@POLICY_BRANCH_AUTOCRACY?$AA@
CONST	SEGMENT
??_C@_0BI@FGGAJNOF@POLICY_BRANCH_AUTOCRACY?$AA@ DB 'POLICY_BRANCH_AUTOCRA'
	DB	'CY', 00H					; `string'
CONST	ENDS
;	COMDAT ??_C@_0BE@DLGMMGNE@POLICY_BRANCH_ORDER?$AA@
CONST	SEGMENT
??_C@_0BE@DLGMMGNE@POLICY_BRANCH_ORDER?$AA@ DB 'POLICY_BRANCH_ORDER', 00H ; `string'
CONST	ENDS
;	COMDAT ??_C@_0BG@ICDGHIK@POLICY_BRANCH_FREEDOM?$AA@
CONST	SEGMENT
??_C@_0BG@ICDGHIK@POLICY_BRANCH_FREEDOM?$AA@ DB 'POLICY_BRANCH_FREEDOM', 00H ; `string'
CONST	ENDS
;	COMDAT ??_C@_0BK@LFLBMNOF@POLICY_BRANCH_RATIONALISM?$AA@
CONST	SEGMENT
??_C@_0BK@LFLBMNOF@POLICY_BRANCH_RATIONALISM?$AA@ DB 'POLICY_BRANCH_RATIO'
	DB	'NALISM', 00H				; `string'
CONST	ENDS
;	COMDAT ??_C@_0BH@GHHDNEFO@POLICY_BRANCH_COMMERCE?$AA@
CONST	SEGMENT
??_C@_0BH@GHHDNEFO@POLICY_BRANCH_COMMERCE?$AA@ DB 'POLICY_BRANCH_COMMERCE'
	DB	00H						; `string'
CONST	ENDS
;	COMDAT ??_C@_0BI@FKIFNGDJ@POLICY_BRANCH_PATRONAGE?$AA@
CONST	SEGMENT
??_C@_0BI@FKIFNGDJ@POLICY_BRANCH_PATRONAGE?$AA@ DB 'POLICY_BRANCH_PATRONA'
	DB	'GE', 00H					; `string'
CONST	ENDS
;	COMDAT ??_C@_0BE@JIHAKHOA@POLICY_BRANCH_PIETY?$AA@
CONST	SEGMENT
??_C@_0BE@JIHAKHOA@POLICY_BRANCH_PIETY?$AA@ DB 'POLICY_BRANCH_PIETY', 00H ; `string'
CONST	ENDS
;	COMDAT ??_C@_0BE@NMDDMAON@POLICY_BRANCH_HONOR?$AA@
CONST	SEGMENT
??_C@_0BE@NMDDMAON@POLICY_BRANCH_HONOR?$AA@ DB 'POLICY_BRANCH_HONOR', 00H ; `string'
CONST	ENDS
;	COMDAT ??_C@_0BG@KKJABAEJ@POLICY_BRANCH_LIBERTY?$AA@
CONST	SEGMENT
??_C@_0BG@KKJABAEJ@POLICY_BRANCH_LIBERTY?$AA@ DB 'POLICY_BRANCH_LIBERTY', 00H ; `string'
CONST	ENDS
;	COMDAT ??_C@_0BI@CCCMFCOO@POLICY_BRANCH_TRADITION?$AA@
CONST	SEGMENT
??_C@_0BI@CCCMFCOO@POLICY_BRANCH_TRADITION?$AA@ DB 'POLICY_BRANCH_TRADITI'
	DB	'ON', 00H					; `string'
CONST	ENDS
;	COMDAT ??_C@_0BB@BJLDBJBL@POLICY_TOTAL_WAR?$AA@
CONST	SEGMENT
??_C@_0BB@BJLDBJBL@POLICY_TOTAL_WAR?$AA@ DB 'POLICY_TOTAL_WAR', 00H ; `string'
CONST	ENDS
;	COMDAT ??_C@_0BE@BLCAPAFL@POLICY_POLICE_STATE?$AA@
CONST	SEGMENT
??_C@_0BE@BLCAPAFL@POLICY_POLICE_STATE?$AA@ DB 'POLICY_POLICE_STATE', 00H ; `string'
CONST	ENDS
;	COMDAT ??_C@_0P@MJNDPJKG@POLICY_FASCISM?$AA@
CONST	SEGMENT
??_C@_0P@MJNDPJKG@POLICY_FASCISM?$AA@ DB 'POLICY_FASCISM', 00H ; `string'
CONST	ENDS
;	COMDAT ??_C@_0BC@LCIIEGIC@POLICY_MILITARISM?$AA@
CONST	SEGMENT
??_C@_0BC@LCIIEGIC@POLICY_MILITARISM?$AA@ DB 'POLICY_MILITARISM', 00H ; `string'
CONST	ENDS
;	COMDAT ??_C@_0BA@LFGAIAEP@POLICY_POPULISM?$AA@
CONST	SEGMENT
??_C@_0BA@LFGAIAEP@POLICY_POPULISM?$AA@ DB 'POLICY_POPULISM', 00H ; `string'
CONST	ENDS
;	COMDAT ??_C@_0BB@CNCBJDIH@POLICY_AUTOCRACY?$AA@
CONST	SEGMENT
??_C@_0BB@CNCBJDIH@POLICY_AUTOCRACY?$AA@ DB 'POLICY_AUTOCRACY', 00H ; `string'
CONST	ENDS
;	COMDAT ??_C@_0BB@GDPCHHLD@POLICY_COMMUNISM?$AA@
CONST	SEGMENT
??_C@_0BB@GDPCHHLD@POLICY_COMMUNISM?$AA@ DB 'POLICY_COMMUNISM', 00H ; `string'
CONST	ENDS
;	COMDAT ??_C@_0BH@NKBJMHJA@POLICY_PLANNED_ECONOMY?$AA@
CONST	SEGMENT
??_C@_0BH@NKBJMHJA@POLICY_PLANNED_ECONOMY?$AA@ DB 'POLICY_PLANNED_ECONOMY'
	DB	00H						; `string'
CONST	ENDS
;	COMDAT ??_C@_0BD@MNADCPL@POLICY_NATIONALISM?$AA@
CONST	SEGMENT
??_C@_0BD@MNADCPL@POLICY_NATIONALISM?$AA@ DB 'POLICY_NATIONALISM', 00H ; `string'
CONST	ENDS
;	COMDAT ??_C@_0BB@EHBONDJH@POLICY_SOCIALISM?$AA@
CONST	SEGMENT
??_C@_0BB@EHBONDJH@POLICY_SOCIALISM?$AA@ DB 'POLICY_SOCIALISM', 00H ; `string'
CONST	ENDS
;	COMDAT ??_C@_0BE@PPPBMECE@POLICY_UNITED_FRONT?$AA@
CONST	SEGMENT
??_C@_0BE@PPPBMECE@POLICY_UNITED_FRONT?$AA@ DB 'POLICY_UNITED_FRONT', 00H ; `string'
CONST	ENDS
;	COMDAT ??_C@_0N@CLJHNEDL@POLICY_ORDER?$AA@
CONST	SEGMENT
??_C@_0N@CLJHNEDL@POLICY_ORDER?$AA@ DB 'POLICY_ORDER', 00H ; `string'
CONST	ENDS
;	COMDAT ??_C@_0BB@EDMDALC@POLICY_DEMOCRACY?$AA@
CONST	SEGMENT
??_C@_0BB@EDMDALC@POLICY_DEMOCRACY?$AA@ DB 'POLICY_DEMOCRACY', 00H ; `string'
CONST	ENDS
;	COMDAT ??_C@_0BD@IHDPGIOK@POLICY_FREE_SPEECH?$AA@
CONST	SEGMENT
??_C@_0BD@IHDPGIOK@POLICY_FREE_SPEECH?$AA@ DB 'POLICY_FREE_SPEECH', 00H ; `string'
CONST	ENDS
;	COMDAT ??_C@_0BF@CPBEHNKO@POLICY_CIVIL_SOCIETY?$AA@
CONST	SEGMENT
??_C@_0BF@CPBEHNKO@POLICY_CIVIL_SOCIETY?$AA@ DB 'POLICY_CIVIL_SOCIETY', 00H ; `string'
CONST	ENDS
;	COMDAT ??_C@_0BK@NKGJKPIA@POLICY_UNIVERSAL_SUFFRAGE?$AA@
CONST	SEGMENT
??_C@_0BK@NKGJKPIA@POLICY_UNIVERSAL_SUFFRAGE?$AA@ DB 'POLICY_UNIVERSAL_SU'
	DB	'FFRAGE', 00H				; `string'
CONST	ENDS
;	COMDAT ??_C@_0BE@HGOKCAK@POLICY_CONSTITUTION?$AA@
CONST	SEGMENT
??_C@_0BE@HGOKCAK@POLICY_CONSTITUTION?$AA@ DB 'POLICY_CONSTITUTION', 00H ; `string'
CONST	ENDS
;	COMDAT ??_C@_0P@CCHMOJBK@POLICY_FREEDOM?$AA@
CONST	SEGMENT
??_C@_0P@CCHMOJBK@POLICY_FREEDOM?$AA@ DB 'POLICY_FREEDOM', 00H ; `string'
CONST	ENDS
;	COMDAT ??_C@_0BN@OCIJHDFL@POLICY_SCIENTIFIC_REVOLUTION?$AA@
CONST	SEGMENT
??_C@_0BN@OCIJHDFL@POLICY_SCIENTIFIC_REVOLUTION?$AA@ DB 'POLICY_SCIENTIFI'
	DB	'C_REVOLUTION', 00H				; `string'
CONST	ENDS
;	COMDAT ??_C@_0BD@OGNMOMND@POLICY_SOVEREIGNTY?$AA@
CONST	SEGMENT
??_C@_0BD@OGNMOMND@POLICY_SOVEREIGNTY?$AA@ DB 'POLICY_SOVEREIGNTY', 00H ; `string'
CONST	ENDS
;	COMDAT ??_C@_0BE@IOGCFEFN@POLICY_FREE_THOUGHT?$AA@
CONST	SEGMENT
??_C@_0BE@IOGCFEFN@POLICY_FREE_THOUGHT?$AA@ DB 'POLICY_FREE_THOUGHT', 00H ; `string'
CONST	ENDS
;	COMDAT ??_C@_0BA@KLINKDCG@POLICY_HUMANISM?$AA@
CONST	SEGMENT
??_C@_0BA@KLINKDCG@POLICY_HUMANISM?$AA@ DB 'POLICY_HUMANISM', 00H ; `string'
CONST	ENDS
;	COMDAT ??_C@_0BC@PEKIHANN@POLICY_SECULARISM?$AA@
CONST	SEGMENT
??_C@_0BC@PEKIHANN@POLICY_SECULARISM?$AA@ DB 'POLICY_SECULARISM', 00H ; `string'
CONST	ENDS
;	COMDAT ??_C@_0BD@FMCJCIG@POLICY_RATIONALISM?$AA@
CONST	SEGMENT
??_C@_0BD@FMCJCIG@POLICY_RATIONALISM?$AA@ DB 'POLICY_RATIONALISM', 00H ; `string'
CONST	ENDS
;	COMDAT ??_C@_0BF@OJPLOHEO@POLICY_PROTECTIONISM?$AA@
CONST	SEGMENT
??_C@_0BF@OJPLOHEO@POLICY_PROTECTIONISM?$AA@ DB 'POLICY_PROTECTIONISM', 00H ; `string'
CONST	ENDS
;	COMDAT ??_C@_0BF@DKMAHKLA@POLICY_MERCHANT_NAVY?$AA@
CONST	SEGMENT
??_C@_0BF@DKMAHKLA@POLICY_MERCHANT_NAVY?$AA@ DB 'POLICY_MERCHANT_NAVY', 00H ; `string'
CONST	ENDS
;	COMDAT ??_C@_0BE@GCPKIIGM@POLICY_MERCANTILISM?$AA@
CONST	SEGMENT
??_C@_0BE@GCPKIIGM@POLICY_MERCANTILISM?$AA@ DB 'POLICY_MERCANTILISM', 00H ; `string'
CONST	ENDS
;	COMDAT ??_C@_0BH@CMLGAJDB@POLICY_NAVAL_TRADITION?$AA@
CONST	SEGMENT
??_C@_0BH@CMLGAJDB@POLICY_NAVAL_TRADITION?$AA@ DB 'POLICY_NAVAL_TRADITION'
	DB	00H						; `string'
CONST	ENDS
;	COMDAT ??_C@_0BE@IHJLBNHL@POLICY_TRADE_UNIONS?$AA@
CONST	SEGMENT
??_C@_0BE@IHJLBNHL@POLICY_TRADE_UNIONS?$AA@ DB 'POLICY_TRADE_UNIONS', 00H ; `string'
CONST	ENDS
;	COMDAT ??_C@_0BA@JHFGBIJE@POLICY_COMMERCE?$AA@
CONST	SEGMENT
??_C@_0BA@JHFGBIJE@POLICY_COMMERCE?$AA@ DB 'POLICY_COMMERCE', 00H ; `string'
CONST	ENDS
;	COMDAT ??_C@_0BG@LPHBNICI@POLICY_EDUCATED_ELITE?$AA@
CONST	SEGMENT
??_C@_0BG@LPHBNICI@POLICY_EDUCATED_ELITE?$AA@ DB 'POLICY_EDUCATED_ELITE', 00H ; `string'
CONST	ENDS
;	COMDAT ??_C@_0BK@ODPOBBDK@POLICY_CULTURAL_DIPLOMACY?$AA@
CONST	SEGMENT
??_C@_0BK@ODPOBBDK@POLICY_CULTURAL_DIPLOMACY?$AA@ DB 'POLICY_CULTURAL_DIP'
	DB	'LOMACY', 00H				; `string'
CONST	ENDS
;	COMDAT ??_C@_0BF@PFKCMHDN@POLICY_SCHOLASTICISM?$AA@
CONST	SEGMENT
??_C@_0BF@PFKCMHDN@POLICY_SCHOLASTICISM?$AA@ DB 'POLICY_SCHOLASTICISM', 00H ; `string'
CONST	ENDS
;	COMDAT ??_C@_0BC@EKKBEADC@POLICY_AESTHETICS?$AA@
CONST	SEGMENT
??_C@_0BC@EKKBEADC@POLICY_AESTHETICS?$AA@ DB 'POLICY_AESTHETICS', 00H ; `string'
CONST	ENDS
;	COMDAT ??_C@_0BE@GOKNJLLC@POLICY_PHILANTHROPY?$AA@
CONST	SEGMENT
??_C@_0BE@GOKNJLLC@POLICY_PHILANTHROPY?$AA@ DB 'POLICY_PHILANTHROPY', 00H ; `string'
CONST	ENDS
;	COMDAT ??_C@_0BB@CBMENIFL@POLICY_PATRONAGE?$AA@
CONST	SEGMENT
??_C@_0BB@CBMENIFL@POLICY_PATRONAGE?$AA@ DB 'POLICY_PATRONAGE', 00H ; `string'
CONST	ENDS
;	COMDAT ??_C@_0BF@HOICLCEE@POLICY_FREE_RELIGION?$AA@
CONST	SEGMENT
??_C@_0BF@HOICLCEE@POLICY_FREE_RELIGION?$AA@ DB 'POLICY_FREE_RELIGION', 00H ; `string'
CONST	ENDS
;	COMDAT ??_C@_0BD@FNINCCKI@POLICY_REFORMATION?$AA@
CONST	SEGMENT
??_C@_0BD@FNINCCKI@POLICY_REFORMATION?$AA@ DB 'POLICY_REFORMATION', 00H ; `string'
CONST	ENDS
;	COMDAT ??_C@_0BB@BDIENLI@POLICY_THEOCRACY?$AA@
CONST	SEGMENT
??_C@_0BB@BDIENLI@POLICY_THEOCRACY?$AA@ DB 'POLICY_THEOCRACY', 00H ; `string'
CONST	ENDS
;	COMDAT ??_C@_0BJ@JAMPIIBN@POLICY_MANDATE_OF_HEAVEN?$AA@
CONST	SEGMENT
??_C@_0BJ@JAMPIIBN@POLICY_MANDATE_OF_HEAVEN?$AA@ DB 'POLICY_MANDATE_OF_HE'
	DB	'AVEN', 00H					; `string'
CONST	ENDS
;	COMDAT ??_C@_0BK@KLAFJFKB@POLICY_ORGANIZED_RELIGION?$AA@
CONST	SEGMENT
??_C@_0BK@KLAFJFKB@POLICY_ORGANIZED_RELIGION?$AA@ DB 'POLICY_ORGANIZED_RE'
	DB	'LIGION', 00H				; `string'
CONST	ENDS
;	COMDAT ??_C@_0N@IIILLFAP@POLICY_PIETY?$AA@
CONST	SEGMENT
??_C@_0N@IIILLFAP@POLICY_PIETY?$AA@ DB 'POLICY_PIETY', 00H ; `string'
CONST	ENDS
;	COMDAT ??_C@_0BJ@MOECPAFG@POLICY_PROFESSIONAL_ARMY?$AA@
CONST	SEGMENT
??_C@_0BJ@MOECPAFG@POLICY_PROFESSIONAL_ARMY?$AA@ DB 'POLICY_PROFESSIONAL_'
	DB	'ARMY', 00H					; `string'
CONST	ENDS
;	COMDAT ??_C@_0BG@DOPDJJJH@POLICY_MILITARY_CASTE?$AA@
CONST	SEGMENT
??_C@_0BG@DOPDJJJH@POLICY_MILITARY_CASTE?$AA@ DB 'POLICY_MILITARY_CASTE', 00H ; `string'
CONST	ENDS
;	COMDAT ??_C@_0BK@GMKLKNLL@POLICY_MILITARY_TRADITION?$AA@
CONST	SEGMENT
??_C@_0BK@GMKLKNLL@POLICY_MILITARY_TRADITION?$AA@ DB 'POLICY_MILITARY_TRA'
	DB	'DITION', 00H				; `string'
CONST	ENDS
;	COMDAT ??_C@_0BC@OGAIFGJH@POLICY_DISCIPLINE?$AA@
CONST	SEGMENT
??_C@_0BC@OGAIFGJH@POLICY_DISCIPLINE?$AA@ DB 'POLICY_DISCIPLINE', 00H ; `string'
CONST	ENDS
;	COMDAT ??_C@_0BE@JAGOBIPD@POLICY_WARRIOR_CODE?$AA@
CONST	SEGMENT
??_C@_0BE@JAGOBIPD@POLICY_WARRIOR_CODE?$AA@ DB 'POLICY_WARRIOR_CODE', 00H ; `string'
CONST	ENDS
;	COMDAT ??_C@_0N@MMMINCAC@POLICY_HONOR?$AA@
CONST	SEGMENT
??_C@_0N@MMMINCAC@POLICY_HONOR?$AA@ DB 'POLICY_HONOR', 00H ; `string'
CONST	ENDS
;	COMDAT ??_C@_0BA@MJPJNADE@POLICY_MONARCHY?$AA@
CONST	SEGMENT
??_C@_0BA@MJPJNADE@POLICY_MONARCHY?$AA@ DB 'POLICY_MONARCHY', 00H ; `string'
CONST	ENDS
;	COMDAT ??_C@_0BE@IOCFGCCL@POLICY_LANDED_ELITE?$AA@
CONST	SEGMENT
??_C@_0BE@IOCFGCCL@POLICY_LANDED_ELITE?$AA@ DB 'POLICY_LANDED_ELITE', 00H ; `string'
CONST	ENDS
;	COMDAT ??_C@_0BA@FEGKMPCP@POLICY_LEGALISM?$AA@
CONST	SEGMENT
??_C@_0BA@FEGKMPCP@POLICY_LEGALISM?$AA@ DB 'POLICY_LEGALISM', 00H ; `string'
CONST	ENDS
;	COMDAT ??_C@_0BB@MEOLLOC@POLICY_OLIGARCHY?$AA@
CONST	SEGMENT
??_C@_0BB@MEOLLOC@POLICY_OLIGARCHY?$AA@ DB 'POLICY_OLIGARCHY', 00H ; `string'
CONST	ENDS
;	COMDAT ??_C@_0BD@EAGMDPBM@POLICY_ARISTOCRACY?$AA@
CONST	SEGMENT
??_C@_0BD@EAGMDPBM@POLICY_ARISTOCRACY?$AA@ DB 'POLICY_ARISTOCRACY', 00H ; `string'
CONST	ENDS
;	COMDAT ??_C@_0BB@FJGNFMIM@POLICY_TRADITION?$AA@
CONST	SEGMENT
??_C@_0BB@FJGNFMIM@POLICY_TRADITION?$AA@ DB 'POLICY_TRADITION', 00H ; `string'
CONST	ENDS
;	COMDAT ??_C@_0BD@CEALBBCF@POLICY_MERITOCRACY?$AA@
CONST	SEGMENT
??_C@_0BD@CEALBBCF@POLICY_MERITOCRACY?$AA@ DB 'POLICY_MERITOCRACY', 00H ; `string'
CONST	ENDS
;	COMDAT ??_C@_0BG@IOMLJAEN@POLICY_REPRESENTATION?$AA@
CONST	SEGMENT
??_C@_0BG@IOMLJAEN@POLICY_REPRESENTATION?$AA@ DB 'POLICY_REPRESENTATION', 00H ; `string'
CONST	ENDS
;	COMDAT ??_C@_0BA@NIKPBHK@POLICY_REPUBLIC?$AA@
CONST	SEGMENT
??_C@_0BA@NIKPBHK@POLICY_REPUBLIC?$AA@ DB 'POLICY_REPUBLIC', 00H ; `string'
CONST	ENDS
;	COMDAT ??_C@_0BD@FLGHCGLM@POLICY_CITIZENSHIP?$AA@
CONST	SEGMENT
??_C@_0BD@FLGHCGLM@POLICY_CITIZENSHIP?$AA@ DB 'POLICY_CITIZENSHIP', 00H ; `string'
CONST	ENDS
;	COMDAT ??_C@_0BH@FNENMNLA@POLICY_COLLECTIVE_RULE?$AA@
CONST	SEGMENT
??_C@_0BH@FNENMNLA@POLICY_COLLECTIVE_RULE?$AA@ DB 'POLICY_COLLECTIVE_RULE'
	DB	00H						; `string'
CONST	ENDS
;	COMDAT ??_C@_0P@IAMPJONJ@POLICY_LIBERTY?$AA@
CONST	SEGMENT
??_C@_0P@IAMPJONJ@POLICY_LIBERTY?$AA@ DB 'POLICY_LIBERTY', 00H ; `string'
CONST	ENDS
_DATA	SEGMENT
?ms_V0ResourceTags@CvInfosSerializationHelper@@3PAPBDA DD FLAT:??_C@_0O@CIGNJKAM@RESOURCE_IRON?$AA@ ; CvInfosSerializationHelper::ms_V0ResourceTags
	DD	FLAT:??_C@_0P@GBDBKFAG@RESOURCE_HORSE?$AA@
	DD	FLAT:??_C@_0O@PIAGECGH@RESOURCE_COAL?$AA@
	DD	FLAT:??_C@_0N@OAHDLOCB@RESOURCE_OIL?$AA@
	DD	FLAT:??_C@_0BC@MJOPMHIE@RESOURCE_ALUMINUM?$AA@
	DD	FLAT:??_C@_0BB@GJBFAJIJ@RESOURCE_URANIUM?$AA@
	DD	FLAT:??_C@_0P@KACEPCHA@RESOURCE_WHEAT?$AA@
	DD	FLAT:??_C@_0N@HBOLGLB@RESOURCE_COW?$AA@
	DD	FLAT:??_C@_0P@FINANNLO@RESOURCE_SHEEP?$AA@
	DD	FLAT:??_C@_0O@PGNDOJBA@RESOURCE_DEER?$AA@
	DD	FLAT:??_C@_0BA@MNEPNOJM@RESOURCE_BANANA?$AA@
	DD	FLAT:??_C@_0O@GOEDCANB@RESOURCE_FISH?$AA@
	DD	FLAT:??_C@_0P@HEEHNFGE@RESOURCE_WHALE?$AA@
	DD	FLAT:??_C@_0BA@BNBDNKHA@RESOURCE_PEARLS?$AA@
	DD	FLAT:??_C@_0O@MNIHPNPM@RESOURCE_GOLD?$AA@
	DD	FLAT:??_C@_0BA@DKABFJLO@RESOURCE_SILVER?$AA@
	DD	FLAT:??_C@_0O@KGHLPDDJ@RESOURCE_GEMS?$AA@
	DD	FLAT:??_C@_0BA@OLEKGKHC@RESOURCE_MARBLE?$AA@
	DD	FLAT:??_C@_0P@ICFLDLHI@RESOURCE_IVORY?$AA@
	DD	FLAT:??_C@_0N@FMAGJEGA@RESOURCE_FUR?$AA@
	DD	FLAT:??_C@_0N@PKJGCBBJ@RESOURCE_DYE?$AA@
	DD	FLAT:??_C@_0BA@KIOEBDHB@RESOURCE_SPICES?$AA@
	DD	FLAT:??_C@_0O@PKBEIPKN@RESOURCE_SILK?$AA@
	DD	FLAT:??_C@_0P@FPJGIMFI@RESOURCE_SUGAR?$AA@
	DD	FLAT:??_C@_0BA@JKPPOKCO@RESOURCE_COTTON?$AA@
	DD	FLAT:??_C@_0O@JCJDNAIN@RESOURCE_WINE?$AA@
	DD	FLAT:??_C@_0BB@IJOEIFEO@RESOURCE_INCENSE?$AA@
	ORG $+4
?ms_V0PolicyTags@CvInfosSerializationHelper@@3PAPBDA DD FLAT:??_C@_0P@IAMPJONJ@POLICY_LIBERTY?$AA@ ; CvInfosSerializationHelper::ms_V0PolicyTags
	DD	FLAT:??_C@_0BH@FNENMNLA@POLICY_COLLECTIVE_RULE?$AA@
	DD	FLAT:??_C@_0BD@FLGHCGLM@POLICY_CITIZENSHIP?$AA@
	DD	FLAT:??_C@_0BA@NIKPBHK@POLICY_REPUBLIC?$AA@
	DD	FLAT:??_C@_0BG@IOMLJAEN@POLICY_REPRESENTATION?$AA@
	DD	FLAT:??_C@_0BD@CEALBBCF@POLICY_MERITOCRACY?$AA@
	DD	FLAT:??_C@_0BB@FJGNFMIM@POLICY_TRADITION?$AA@
	DD	FLAT:??_C@_0BD@EAGMDPBM@POLICY_ARISTOCRACY?$AA@
	DD	FLAT:??_C@_0BB@MEOLLOC@POLICY_OLIGARCHY?$AA@
	DD	FLAT:??_C@_0BA@FEGKMPCP@POLICY_LEGALISM?$AA@
	DD	FLAT:??_C@_0BE@IOCFGCCL@POLICY_LANDED_ELITE?$AA@
	DD	FLAT:??_C@_0BA@MJPJNADE@POLICY_MONARCHY?$AA@
	DD	FLAT:??_C@_0N@MMMINCAC@POLICY_HONOR?$AA@
	DD	FLAT:??_C@_0BE@JAGOBIPD@POLICY_WARRIOR_CODE?$AA@
	DD	FLAT:??_C@_0BC@OGAIFGJH@POLICY_DISCIPLINE?$AA@
	DD	FLAT:??_C@_0BK@GMKLKNLL@POLICY_MILITARY_TRADITION?$AA@
	DD	FLAT:??_C@_0BG@DOPDJJJH@POLICY_MILITARY_CASTE?$AA@
	DD	FLAT:??_C@_0BJ@MOECPAFG@POLICY_PROFESSIONAL_ARMY?$AA@
	DD	FLAT:??_C@_0N@IIILLFAP@POLICY_PIETY?$AA@
	DD	FLAT:??_C@_0BK@KLAFJFKB@POLICY_ORGANIZED_RELIGION?$AA@
	DD	FLAT:??_C@_0BJ@JAMPIIBN@POLICY_MANDATE_OF_HEAVEN?$AA@
	DD	FLAT:??_C@_0BB@BDIENLI@POLICY_THEOCRACY?$AA@
	DD	FLAT:??_C@_0BD@FNINCCKI@POLICY_REFORMATION?$AA@
	DD	FLAT:??_C@_0BF@HOICLCEE@POLICY_FREE_RELIGION?$AA@
	DD	FLAT:??_C@_0BB@CBMENIFL@POLICY_PATRONAGE?$AA@
	DD	FLAT:??_C@_0BE@GOKNJLLC@POLICY_PHILANTHROPY?$AA@
	DD	FLAT:??_C@_0BC@EKKBEADC@POLICY_AESTHETICS?$AA@
	DD	FLAT:??_C@_0BF@PFKCMHDN@POLICY_SCHOLASTICISM?$AA@
	DD	FLAT:??_C@_0BK@ODPOBBDK@POLICY_CULTURAL_DIPLOMACY?$AA@
	DD	FLAT:??_C@_0BG@LPHBNICI@POLICY_EDUCATED_ELITE?$AA@
	DD	FLAT:??_C@_0BA@JHFGBIJE@POLICY_COMMERCE?$AA@
	DD	FLAT:??_C@_0BE@IHJLBNHL@POLICY_TRADE_UNIONS?$AA@
	DD	FLAT:??_C@_0BH@CMLGAJDB@POLICY_NAVAL_TRADITION?$AA@
	DD	FLAT:??_C@_0BE@GCPKIIGM@POLICY_MERCANTILISM?$AA@
	DD	FLAT:??_C@_0BF@DKMAHKLA@POLICY_MERCHANT_NAVY?$AA@
	DD	FLAT:??_C@_0BF@OJPLOHEO@POLICY_PROTECTIONISM?$AA@
	DD	FLAT:??_C@_0BD@FMCJCIG@POLICY_RATIONALISM?$AA@
	DD	FLAT:??_C@_0BC@PEKIHANN@POLICY_SECULARISM?$AA@
	DD	FLAT:??_C@_0BA@KLINKDCG@POLICY_HUMANISM?$AA@
	DD	FLAT:??_C@_0BE@IOGCFEFN@POLICY_FREE_THOUGHT?$AA@
	DD	FLAT:??_C@_0BD@OGNMOMND@POLICY_SOVEREIGNTY?$AA@
	DD	FLAT:??_C@_0BN@OCIJHDFL@POLICY_SCIENTIFIC_REVOLUTION?$AA@
	DD	FLAT:??_C@_0P@CCHMOJBK@POLICY_FREEDOM?$AA@
	DD	FLAT:??_C@_0BE@HGOKCAK@POLICY_CONSTITUTION?$AA@
	DD	FLAT:??_C@_0BK@NKGJKPIA@POLICY_UNIVERSAL_SUFFRAGE?$AA@
	DD	FLAT:??_C@_0BF@CPBEHNKO@POLICY_CIVIL_SOCIETY?$AA@
	DD	FLAT:??_C@_0BD@IHDPGIOK@POLICY_FREE_SPEECH?$AA@
	DD	FLAT:??_C@_0BB@EDMDALC@POLICY_DEMOCRACY?$AA@
	DD	FLAT:??_C@_0N@CLJHNEDL@POLICY_ORDER?$AA@
	DD	FLAT:??_C@_0BE@PPPBMECE@POLICY_UNITED_FRONT?$AA@
	DD	FLAT:??_C@_0BB@EHBONDJH@POLICY_SOCIALISM?$AA@
	DD	FLAT:??_C@_0BD@MNADCPL@POLICY_NATIONALISM?$AA@
	DD	FLAT:??_C@_0BH@NKBJMHJA@POLICY_PLANNED_ECONOMY?$AA@
	DD	FLAT:??_C@_0BB@GDPCHHLD@POLICY_COMMUNISM?$AA@
	DD	FLAT:??_C@_0BB@CNCBJDIH@POLICY_AUTOCRACY?$AA@
	DD	FLAT:??_C@_0BA@LFGAIAEP@POLICY_POPULISM?$AA@
	DD	FLAT:??_C@_0BC@LCIIEGIC@POLICY_MILITARISM?$AA@
	DD	FLAT:??_C@_0P@MJNDPJKG@POLICY_FASCISM?$AA@
	DD	FLAT:??_C@_0BE@BLCAPAFL@POLICY_POLICE_STATE?$AA@
	DD	FLAT:??_C@_0BB@BJLDBJBL@POLICY_TOTAL_WAR?$AA@
?ms_V0PolicyBranchTags@CvInfosSerializationHelper@@3PAPBDA DD FLAT:??_C@_0BI@CCCMFCOO@POLICY_BRANCH_TRADITION?$AA@ ; CvInfosSerializationHelper::ms_V0PolicyBranchTags
	DD	FLAT:??_C@_0BG@KKJABAEJ@POLICY_BRANCH_LIBERTY?$AA@
	DD	FLAT:??_C@_0BE@NMDDMAON@POLICY_BRANCH_HONOR?$AA@
	DD	FLAT:??_C@_0BE@JIHAKHOA@POLICY_BRANCH_PIETY?$AA@
	DD	FLAT:??_C@_0BI@FKIFNGDJ@POLICY_BRANCH_PATRONAGE?$AA@
	DD	FLAT:??_C@_0BH@GHHDNEFO@POLICY_BRANCH_COMMERCE?$AA@
	DD	FLAT:??_C@_0BK@LFLBMNOF@POLICY_BRANCH_RATIONALISM?$AA@
	DD	FLAT:??_C@_0BG@ICDGHIK@POLICY_BRANCH_FREEDOM?$AA@
	DD	FLAT:??_C@_0BE@DLGMMGNE@POLICY_BRANCH_ORDER?$AA@
	DD	FLAT:??_C@_0BI@FGGAJNOF@POLICY_BRANCH_AUTOCRACY?$AA@
_DATA	ENDS
;	COMDAT ??_C@_0BB@IJOEIFEO@RESOURCE_INCENSE?$AA@
CONST	SEGMENT
??_C@_0BB@IJOEIFEO@RESOURCE_INCENSE?$AA@ DB 'RESOURCE_INCENSE', 00H ; `string'
CONST	ENDS
;	COMDAT ??_C@_0O@JCJDNAIN@RESOURCE_WINE?$AA@
CONST	SEGMENT
??_C@_0O@JCJDNAIN@RESOURCE_WINE?$AA@ DB 'RESOURCE_WINE', 00H ; `string'
CONST	ENDS
;	COMDAT ??_C@_0BA@JKPPOKCO@RESOURCE_COTTON?$AA@
CONST	SEGMENT
??_C@_0BA@JKPPOKCO@RESOURCE_COTTON?$AA@ DB 'RESOURCE_COTTON', 00H ; `string'
CONST	ENDS
;	COMDAT ??_C@_0P@FPJGIMFI@RESOURCE_SUGAR?$AA@
CONST	SEGMENT
??_C@_0P@FPJGIMFI@RESOURCE_SUGAR?$AA@ DB 'RESOURCE_SUGAR', 00H ; `string'
CONST	ENDS
;	COMDAT ??_C@_0O@PKBEIPKN@RESOURCE_SILK?$AA@
CONST	SEGMENT
??_C@_0O@PKBEIPKN@RESOURCE_SILK?$AA@ DB 'RESOURCE_SILK', 00H ; `string'
CONST	ENDS
;	COMDAT ??_C@_0BA@KIOEBDHB@RESOURCE_SPICES?$AA@
CONST	SEGMENT
??_C@_0BA@KIOEBDHB@RESOURCE_SPICES?$AA@ DB 'RESOURCE_SPICES', 00H ; `string'
CONST	ENDS
;	COMDAT ??_C@_0N@PKJGCBBJ@RESOURCE_DYE?$AA@
CONST	SEGMENT
??_C@_0N@PKJGCBBJ@RESOURCE_DYE?$AA@ DB 'RESOURCE_DYE', 00H ; `string'
CONST	ENDS
;	COMDAT ??_C@_0N@FMAGJEGA@RESOURCE_FUR?$AA@
CONST	SEGMENT
??_C@_0N@FMAGJEGA@RESOURCE_FUR?$AA@ DB 'RESOURCE_FUR', 00H ; `string'
CONST	ENDS
;	COMDAT ??_C@_0P@ICFLDLHI@RESOURCE_IVORY?$AA@
CONST	SEGMENT
??_C@_0P@ICFLDLHI@RESOURCE_IVORY?$AA@ DB 'RESOURCE_IVORY', 00H ; `string'
CONST	ENDS
;	COMDAT ??_C@_0BA@OLEKGKHC@RESOURCE_MARBLE?$AA@
CONST	SEGMENT
??_C@_0BA@OLEKGKHC@RESOURCE_MARBLE?$AA@ DB 'RESOURCE_MARBLE', 00H ; `string'
CONST	ENDS
;	COMDAT ??_C@_0O@KGHLPDDJ@RESOURCE_GEMS?$AA@
CONST	SEGMENT
??_C@_0O@KGHLPDDJ@RESOURCE_GEMS?$AA@ DB 'RESOURCE_GEMS', 00H ; `string'
CONST	ENDS
;	COMDAT ??_C@_0BA@DKABFJLO@RESOURCE_SILVER?$AA@
CONST	SEGMENT
??_C@_0BA@DKABFJLO@RESOURCE_SILVER?$AA@ DB 'RESOURCE_SILVER', 00H ; `string'
CONST	ENDS
;	COMDAT ??_C@_0O@MNIHPNPM@RESOURCE_GOLD?$AA@
CONST	SEGMENT
??_C@_0O@MNIHPNPM@RESOURCE_GOLD?$AA@ DB 'RESOURCE_GOLD', 00H ; `string'
CONST	ENDS
;	COMDAT ??_C@_0BA@BNBDNKHA@RESOURCE_PEARLS?$AA@
CONST	SEGMENT
??_C@_0BA@BNBDNKHA@RESOURCE_PEARLS?$AA@ DB 'RESOURCE_PEARLS', 00H ; `string'
CONST	ENDS
;	COMDAT ??_C@_0P@HEEHNFGE@RESOURCE_WHALE?$AA@
CONST	SEGMENT
??_C@_0P@HEEHNFGE@RESOURCE_WHALE?$AA@ DB 'RESOURCE_WHALE', 00H ; `string'
CONST	ENDS
;	COMDAT ??_C@_0O@GOEDCANB@RESOURCE_FISH?$AA@
CONST	SEGMENT
??_C@_0O@GOEDCANB@RESOURCE_FISH?$AA@ DB 'RESOURCE_FISH', 00H ; `string'
CONST	ENDS
;	COMDAT ??_C@_0BA@MNEPNOJM@RESOURCE_BANANA?$AA@
CONST	SEGMENT
??_C@_0BA@MNEPNOJM@RESOURCE_BANANA?$AA@ DB 'RESOURCE_BANANA', 00H ; `string'
CONST	ENDS
;	COMDAT ??_C@_0O@PGNDOJBA@RESOURCE_DEER?$AA@
CONST	SEGMENT
??_C@_0O@PGNDOJBA@RESOURCE_DEER?$AA@ DB 'RESOURCE_DEER', 00H ; `string'
CONST	ENDS
;	COMDAT ??_C@_0P@FINANNLO@RESOURCE_SHEEP?$AA@
CONST	SEGMENT
??_C@_0P@FINANNLO@RESOURCE_SHEEP?$AA@ DB 'RESOURCE_SHEEP', 00H ; `string'
CONST	ENDS
;	COMDAT ??_C@_0N@HBOLGLB@RESOURCE_COW?$AA@
CONST	SEGMENT
??_C@_0N@HBOLGLB@RESOURCE_COW?$AA@ DB 'RESOURCE_COW', 00H ; `string'
CONST	ENDS
;	COMDAT ??_C@_0P@KACEPCHA@RESOURCE_WHEAT?$AA@
CONST	SEGMENT
??_C@_0P@KACEPCHA@RESOURCE_WHEAT?$AA@ DB 'RESOURCE_WHEAT', 00H ; `string'
CONST	ENDS
;	COMDAT ??_C@_0BB@GJBFAJIJ@RESOURCE_URANIUM?$AA@
CONST	SEGMENT
??_C@_0BB@GJBFAJIJ@RESOURCE_URANIUM?$AA@ DB 'RESOURCE_URANIUM', 00H ; `string'
CONST	ENDS
;	COMDAT ??_C@_0BC@MJOPMHIE@RESOURCE_ALUMINUM?$AA@
CONST	SEGMENT
??_C@_0BC@MJOPMHIE@RESOURCE_ALUMINUM?$AA@ DB 'RESOURCE_ALUMINUM', 00H ; `string'
CONST	ENDS
;	COMDAT ??_C@_0N@OAHDLOCB@RESOURCE_OIL?$AA@
CONST	SEGMENT
??_C@_0N@OAHDLOCB@RESOURCE_OIL?$AA@ DB 'RESOURCE_OIL', 00H ; `string'
CONST	ENDS
;	COMDAT ??_C@_0O@PIAGECGH@RESOURCE_COAL?$AA@
CONST	SEGMENT
??_C@_0O@PIAGECGH@RESOURCE_COAL?$AA@ DB 'RESOURCE_COAL', 00H ; `string'
CONST	ENDS
;	COMDAT ??_C@_0P@GBDBKFAG@RESOURCE_HORSE?$AA@
CONST	SEGMENT
??_C@_0P@GBDBKFAG@RESOURCE_HORSE?$AA@ DB 'RESOURCE_HORSE', 00H ; `string'
CONST	ENDS
;	COMDAT ??_C@_0O@CIGNJKAM@RESOURCE_IRON?$AA@
CONST	SEGMENT
??_C@_0O@CIGNJKAM@RESOURCE_IRON?$AA@ DB 'RESOURCE_IRON', 00H ; `string'
CONST	ENDS
PUBLIC	??1CvString@@QAE@XZ				; CvString::~CvString
PUBLIC	??1FStringA@@QAE@XZ				; FStringA::~FStringA
PUBLIC	?Format@CvString@@QAAXPBDZZ			; CvString::Format
PUBLIC	??_C@_0BP@CFBHCMBD@LOAD?5ERROR?3?5Type?5not?5found?3?5?$CFs?$AA@ ; `string'
PUBLIC	?Release@FStringA@@QAEXXZ			; FStringA::Release
PUBLIC	??_C@_07HDHFPDCI@NO_TYPE?$AA@			; `string'
PUBLIC	??0?$FStringAFixedBuffer@$0BAA@@FStringA@@QAE@AAV1@@Z ; FStringA::FStringAFixedBuffer<256>::FStringAFixedBuffer<256>
PUBLIC	__$ArrayPad$
PUBLIC	?Read@CvInfosSerializationHelper@@YAHAAVFDataStream@@PA_N@Z ; CvInfosSerializationHelper::Read
EXTRN	__imp_??1?$basic_string@DU?$char_traits@D@std@@V?$allocator@D@2@@std@@QAE@XZ:PROC
EXTRN	?LogMessage@CvGlobals@@QAEXPBD@Z:PROC		; CvGlobals::LogMessage
EXTRN	__imp_?c_str@?$basic_string@DU?$char_traits@D@std@@V?$allocator@D@2@@std@@QBEPBDXZ:PROC
EXTRN	__imp_??0?$basic_string@DU?$char_traits@D@std@@V?$allocator@D@2@@std@@QAE@XZ:PROC
EXTRN	?getInfoTypeForString@CvGlobals@@QBEHPBD_N@Z:PROC ; CvGlobals::getInfoTypeForString
EXTRN	?gGlobals@@3VCvGlobals@@A:BYTE			; gGlobals
EXTRN	?Read@FDataStream@@IAEXAAVFStringA@@@Z:PROC	; FDataStream::Read
EXTRN	?FStringA_GetStringInitData@@YAPAUFStringAData@FStringA@@XZ:PROC ; FStringA_GetStringInitData
EXTRN	___security_cookie:DWORD
EXTRN	___CxxFrameHandler3:PROC
EXTRN	@__security_check_cookie@4:PROC
;	COMDAT ??_C@_0BP@CFBHCMBD@LOAD?5ERROR?3?5Type?5not?5found?3?5?$CFs?$AA@
; File d:\sources\lekmod_git\checkout\lekmod_dll\fireplace\include\fireworks\fstringa.inl
CONST	SEGMENT
??_C@_0BP@CFBHCMBD@LOAD?5ERROR?3?5Type?5not?5found?3?5?$CFs?$AA@ DB 'LOAD'
	DB	' ERROR: Type not found: %s', 00H		; `string'
CONST	ENDS
;	COMDAT ??_C@_07HDHFPDCI@NO_TYPE?$AA@
CONST	SEGMENT
??_C@_07HDHFPDCI@NO_TYPE?$AA@ DB 'NO_TYPE', 00H		; `string'
CONST	ENDS
;	COMDAT xdata$x
xdata$x	SEGMENT
__unwindtable$?Read@CvInfosSerializationHelper@@YAHAAVFDataStream@@PA_N@Z DD 0ffffffffH
	DD	FLAT:__unwindfunclet$?Read@CvInfosSerializationHelper@@YAHAAVFDataStream@@PA_N@Z$0
	DD	00H
	DD	FLAT:__unwindfunclet$?Read@CvInfosSerializationHelper@@YAHAAVFDataStream@@PA_N@Z$1
__ehfuncinfo$?Read@CvInfosSerializationHelper@@YAHAAVFDataStream@@PA_N@Z DD 019930522H
	DD	02H
	DD	FLAT:__unwindtable$?Read@CvInfosSerializationHelper@@YAHAAVFDataStream@@PA_N@Z
	DD	2 DUP(00H)
	DD	2 DUP(00H)
	DD	00H
	DD	01H
; Function compile flags: /Odtp
; File d:\sources\lekmod_git\checkout\lekmod_dll\cvgamecoredll_expansion2\cvinfosserializationhelper.cpp
xdata$x	ENDS
;	COMDAT ?Read@CvInfosSerializationHelper@@YAHAAVFDataStream@@PA_N@Z
_TEXT	SEGMENT
tv147 = -396						; size = 4
tv196 = -392						; size = 4
tv191 = -386						; size = 1
tv176 = -385						; size = 1
tv180 = -384						; size = 4
tv178 = -380						; size = 4
$T218501 = -352						; size = 4
$T218484 = -348						; size = 4
$T218439 = -340						; size = 4
$T218431 = -336						; size = 4
$T218430 = -332						; size = 4
_szError$217621 = -328					; size = 28
_iType$217616 = -300					; size = 4
_sTemp$ = -296						; size = 4
_FStringFixedBuffer_sTemp$ = -292			; size = 268
__$ArrayPad$ = -16					; size = 4
__$EHRec$ = -12						; size = 12
_kStream$ = 8						; size = 4
_bValid$ = 12						; size = 4
?Read@CvInfosSerializationHelper@@YAHAAVFDataStream@@PA_N@Z PROC ; CvInfosSerializationHelper::Read, COMDAT

; 139  : {

	push	ebp
	mov	ebp, esp
	push	-1
	push	__ehhandler$?Read@CvInfosSerializationHelper@@YAHAAVFDataStream@@PA_N@Z
	mov	eax, DWORD PTR fs:0
	push	eax
	sub	esp, 384				; 00000180H
	mov	eax, DWORD PTR ___security_cookie
	xor	eax, ebp
	mov	DWORD PTR __$ArrayPad$[ebp], eax
	push	eax
	lea	eax, DWORD PTR __$EHRec$[ebp]
	mov	DWORD PTR fs:0, eax

; 140  : 	FStringFixedBuffer(sTemp, 256);

	call	?FStringA_GetStringInitData@@YAPAUFStringAData@FStringA@@XZ ; FStringA_GetStringInitData
	mov	DWORD PTR $T218439[ebp], eax
	mov	eax, DWORD PTR $T218439[ebp]
	add	eax, 12					; 0000000cH
	mov	DWORD PTR _sTemp$[ebp], eax
	mov	DWORD PTR __$EHRec$[ebp+8], 0
	lea	ecx, DWORD PTR _sTemp$[ebp]
	push	ecx
	lea	ecx, DWORD PTR _FStringFixedBuffer_sTemp$[ebp]
	call	??0?$FStringAFixedBuffer@$0BAA@@FStringA@@QAE@AAV1@@Z ; FStringA::FStringAFixedBuffer<256>::FStringAFixedBuffer<256>

; 141  : 	kStream >> sTemp;

	lea	edx, DWORD PTR _sTemp$[ebp]
	push	edx
	mov	ecx, DWORD PTR _kStream$[ebp]
	call	?Read@FDataStream@@IAEXAAVFStringA@@@Z	; FDataStream::Read

; 142  : 	if(bValid) *bValid = true;

	cmp	DWORD PTR _bValid$[ebp], 0
	je	SHORT $LN35@Read
	mov	eax, DWORD PTR _bValid$[ebp]
	mov	BYTE PTR [eax], 1

; 143  : 	if(sTemp.GetLength() > 0 && sTemp != "NO_TYPE")

$LN35@Read:
	mov	ecx, DWORD PTR _sTemp$[ebp]
	mov	edx, DWORD PTR [ecx-8]
	mov	DWORD PTR $T218484[ebp], edx
	cmp	DWORD PTR $T218484[ebp], 0
	jle	$LN4@Read
	mov	DWORD PTR tv178[ebp], OFFSET ??_C@_07HDHFPDCI@NO_TYPE?$AA@
	mov	eax, DWORD PTR _sTemp$[ebp]
	mov	DWORD PTR tv180[ebp], eax
$LL79@Read:
	mov	ecx, DWORD PTR tv180[ebp]
	mov	dl, BYTE PTR [ecx]
	mov	BYTE PTR tv176[ebp], dl
	mov	eax, DWORD PTR tv178[ebp]
	cmp	dl, BYTE PTR [eax]
	jne	SHORT $LN80@Read
	cmp	BYTE PTR tv176[ebp], 0
	je	SHORT $LN81@Read
	mov	ecx, DWORD PTR tv180[ebp]
	mov	dl, BYTE PTR [ecx+1]
	mov	BYTE PTR tv191[ebp], dl
	mov	eax, DWORD PTR tv178[ebp]
	cmp	dl, BYTE PTR [eax+1]
	jne	SHORT $LN80@Read
	add	DWORD PTR tv180[ebp], 2
	add	DWORD PTR tv178[ebp], 2
	cmp	BYTE PTR tv191[ebp], 0
	jne	SHORT $LL79@Read
$LN81@Read:
	mov	DWORD PTR tv196[ebp], 0
	jmp	SHORT $LN82@Read
$LN80@Read:
	sbb	ecx, ecx
	sbb	ecx, -1
	mov	DWORD PTR tv196[ebp], ecx
$LN82@Read:
	mov	edx, DWORD PTR tv196[ebp]
	mov	DWORD PTR tv147[ebp], edx
	xor	eax, eax
	cmp	DWORD PTR tv147[ebp], 0
	setne	al
	movzx	ecx, al
	test	ecx, ecx
	je	$LN4@Read

; 144  : 	{
; 145  : 		int iType = GC.getInfoTypeForString(sTemp);

	mov	edx, DWORD PTR _sTemp$[ebp]
	mov	DWORD PTR $T218501[ebp], edx
	push	0
	mov	eax, DWORD PTR $T218501[ebp]
	push	eax
	mov	ecx, OFFSET ?gGlobals@@3VCvGlobals@@A	; gGlobals
	call	?getInfoTypeForString@CvGlobals@@QBEHPBD_N@Z ; CvGlobals::getInfoTypeForString
	mov	DWORD PTR _iType$217616[ebp], eax

; 146  : 		if(iType != -1)

	cmp	DWORD PTR _iType$217616[ebp], -1
	je	SHORT $LN3@Read

; 147  : 		{
; 148  : 			return iType;

	mov	ecx, DWORD PTR _iType$217616[ebp]
	mov	DWORD PTR $T218430[ebp], ecx
	mov	DWORD PTR __$EHRec$[ebp+8], -1
	lea	ecx, DWORD PTR _sTemp$[ebp]
	call	?Release@FStringA@@QAEXXZ		; FStringA::Release
	mov	eax, DWORD PTR $T218430[ebp]
	jmp	$LN6@Read

; 149  : 		}
; 150  : 		else

	jmp	SHORT $LN4@Read
$LN3@Read:

; 151  : 		{
; 152  : 			if(bValid) *bValid = false;

	cmp	DWORD PTR _bValid$[ebp], 0
	je	SHORT $LN1@Read
	mov	edx, DWORD PTR _bValid$[ebp]
	mov	BYTE PTR [edx], 0
$LN1@Read:

; 153  : 			CvString szError;

	lea	ecx, DWORD PTR _szError$217621[ebp]
	call	DWORD PTR __imp_??0?$basic_string@DU?$char_traits@D@std@@V?$allocator@D@2@@std@@QAE@XZ
	mov	BYTE PTR __$EHRec$[ebp+8], 1

; 154  : #ifdef AUI_WARNING_FIXES
; 155  : 			szError.Format("LOAD ERROR: Type not found: %s", sTemp.GetCString());
; 156  : #else
; 157  : 			szError.Format("LOAD ERROR: Type not found: %s", sTemp);

	mov	eax, DWORD PTR _sTemp$[ebp]
	push	eax
	push	OFFSET ??_C@_0BP@CFBHCMBD@LOAD?5ERROR?3?5Type?5not?5found?3?5?$CFs?$AA@
	lea	ecx, DWORD PTR _szError$217621[ebp]
	push	ecx
	call	?Format@CvString@@QAAXPBDZZ		; CvString::Format
	add	esp, 12					; 0000000cH

; 158  : #endif
; 159  : 			GC.LogMessage(szError.GetCString());

	lea	ecx, DWORD PTR _szError$217621[ebp]
	call	DWORD PTR __imp_?c_str@?$basic_string@DU?$char_traits@D@std@@V?$allocator@D@2@@std@@QBEPBDXZ
	push	eax
	mov	ecx, OFFSET ?gGlobals@@3VCvGlobals@@A	; gGlobals
	call	?LogMessage@CvGlobals@@QAEXPBD@Z	; CvGlobals::LogMessage

; 160  : 			CvAssertMsg(false, szError);
; 161  : 		}

	mov	BYTE PTR __$EHRec$[ebp+8], 0
	lea	ecx, DWORD PTR _szError$217621[ebp]
	call	DWORD PTR __imp_??1?$basic_string@DU?$char_traits@D@std@@V?$allocator@D@2@@std@@QAE@XZ
$LN4@Read:

; 162  : 	}
; 163  : 
; 164  : 	return -1;

	mov	DWORD PTR $T218431[ebp], -1
	mov	DWORD PTR __$EHRec$[ebp+8], -1
	lea	ecx, DWORD PTR _sTemp$[ebp]
	call	?Release@FStringA@@QAEXXZ		; FStringA::Release
	mov	eax, DWORD PTR $T218431[ebp]
$LN6@Read:

; 165  : }

	mov	ecx, DWORD PTR __$EHRec$[ebp]
	mov	DWORD PTR fs:0, ecx
	pop	ecx
	mov	ecx, DWORD PTR __$ArrayPad$[ebp]
	xor	ecx, ebp
	call	@__security_check_cookie@4
	mov	esp, ebp
	pop	ebp
	ret	0
_TEXT	ENDS
;	COMDAT text$x
text$x	SEGMENT
__unwindfunclet$?Read@CvInfosSerializationHelper@@YAHAAVFDataStream@@PA_N@Z$0:
	lea	ecx, DWORD PTR _sTemp$[ebp]
	jmp	??1FStringA@@QAE@XZ			; FStringA::~FStringA
__unwindfunclet$?Read@CvInfosSerializationHelper@@YAHAAVFDataStream@@PA_N@Z$1:
	lea	ecx, DWORD PTR _szError$217621[ebp]
	jmp	??1CvString@@QAE@XZ			; CvString::~CvString
__ehhandler$?Read@CvInfosSerializationHelper@@YAHAAVFDataStream@@PA_N@Z:
	mov	edx, DWORD PTR [esp+8]
	lea	eax, DWORD PTR [edx+12]
	mov	ecx, DWORD PTR [edx-388]
	xor	ecx, eax
	call	@__security_check_cookie@4
	mov	ecx, DWORD PTR [edx-4]
	xor	ecx, eax
	call	@__security_check_cookie@4
	mov	eax, OFFSET __ehfuncinfo$?Read@CvInfosSerializationHelper@@YAHAAVFDataStream@@PA_N@Z
	jmp	___CxxFrameHandler3
text$x	ENDS
?Read@CvInfosSerializationHelper@@YAHAAVFDataStream@@PA_N@Z ENDP ; CvInfosSerializationHelper::Read
PUBLIC	??_C@_0CI@NGFGNGNB@LOAD?5ERROR?3?5Type?5not?5found?5for?5h@ ; `string'
PUBLIC	__$ArrayPad$
PUBLIC	?ReadHashed@CvInfosSerializationHelper@@YAHAAVFDataStream@@PA_N@Z ; CvInfosSerializationHelper::ReadHashed
EXTRN	?getInfoTypeForHash@CvGlobals@@QBEHI_N@Z:PROC	; CvGlobals::getInfoTypeForHash
EXTRN	?Read@FDataStream@@IAEXAAI@Z:PROC		; FDataStream::Read
;	COMDAT ??_C@_0CI@NGFGNGNB@LOAD?5ERROR?3?5Type?5not?5found?5for?5h@
; File d:\sources\lekmod_git\checkout\lekmod_dll\cvgamecoredllutil\include\cvstring.h
CONST	SEGMENT
??_C@_0CI@NGFGNGNB@LOAD?5ERROR?3?5Type?5not?5found?5for?5h@ DB 'LOAD ERRO'
	DB	'R: Type not found for hash: %u', 00H	; `string'
CONST	ENDS
;	COMDAT xdata$x
xdata$x	SEGMENT
__unwindtable$?ReadHashed@CvInfosSerializationHelper@@YAHAAVFDataStream@@PA_N@Z DD 0ffffffffH
	DD	FLAT:__unwindfunclet$?ReadHashed@CvInfosSerializationHelper@@YAHAAVFDataStream@@PA_N@Z$0
__ehfuncinfo$?ReadHashed@CvInfosSerializationHelper@@YAHAAVFDataStream@@PA_N@Z DD 019930522H
	DD	01H
	DD	FLAT:__unwindtable$?ReadHashed@CvInfosSerializationHelper@@YAHAAVFDataStream@@PA_N@Z
	DD	2 DUP(00H)
	DD	2 DUP(00H)
	DD	00H
	DD	01H
; Function compile flags: /Odtp
; File d:\sources\lekmod_git\checkout\lekmod_dll\cvgamecoredll_expansion2\cvinfosserializationhelper.cpp
xdata$x	ENDS
;	COMDAT ?ReadHashed@CvInfosSerializationHelper@@YAHAAVFDataStream@@PA_N@Z
_TEXT	SEGMENT
_szError$217634 = -52					; size = 28
__$ArrayPad$ = -24					; size = 4
_iType$217631 = -20					; size = 4
_uiHash$ = -16						; size = 4
__$EHRec$ = -12						; size = 12
_kStream$ = 8						; size = 4
_bValid$ = 12						; size = 4
?ReadHashed@CvInfosSerializationHelper@@YAHAAVFDataStream@@PA_N@Z PROC ; CvInfosSerializationHelper::ReadHashed, COMDAT

; 169  : {

	push	ebp
	mov	ebp, esp
	push	-1
	push	__ehhandler$?ReadHashed@CvInfosSerializationHelper@@YAHAAVFDataStream@@PA_N@Z
	mov	eax, DWORD PTR fs:0
	push	eax
	sub	esp, 40					; 00000028H
	mov	eax, DWORD PTR ___security_cookie
	xor	eax, ebp
	mov	DWORD PTR __$ArrayPad$[ebp], eax
	push	eax
	lea	eax, DWORD PTR __$EHRec$[ebp]
	mov	DWORD PTR fs:0, eax

; 170  : 	uint uiHash;
; 171  : 	if(bValid) *bValid = true;

	cmp	DWORD PTR _bValid$[ebp], 0
	je	SHORT $LN5@ReadHashed
	mov	eax, DWORD PTR _bValid$[ebp]
	mov	BYTE PTR [eax], 1
$LN5@ReadHashed:

; 172  : 	kStream >> uiHash;

	lea	ecx, DWORD PTR _uiHash$[ebp]
	push	ecx
	mov	ecx, DWORD PTR _kStream$[ebp]
	call	?Read@FDataStream@@IAEXAAI@Z		; FDataStream::Read

; 173  : 	if(uiHash != 0)

	cmp	DWORD PTR _uiHash$[ebp], 0
	je	SHORT $LN4@ReadHashed

; 174  : 	{
; 175  : 		int iType = GC.getInfoTypeForHash(uiHash);

	push	0
	mov	edx, DWORD PTR _uiHash$[ebp]
	push	edx
	mov	ecx, OFFSET ?gGlobals@@3VCvGlobals@@A	; gGlobals
	call	?getInfoTypeForHash@CvGlobals@@QBEHI_N@Z ; CvGlobals::getInfoTypeForHash
	mov	DWORD PTR _iType$217631[ebp], eax

; 176  : 		if(iType != -1)

	cmp	DWORD PTR _iType$217631[ebp], -1
	je	SHORT $LN3@ReadHashed

; 177  : 		{
; 178  : 			return iType;

	mov	eax, DWORD PTR _iType$217631[ebp]
	jmp	SHORT $LN6@ReadHashed

; 179  : 		}
; 180  : 		else

	jmp	SHORT $LN4@ReadHashed
$LN3@ReadHashed:

; 181  : 		{
; 182  : 			CvString szError;

	lea	ecx, DWORD PTR _szError$217634[ebp]
	call	DWORD PTR __imp_??0?$basic_string@DU?$char_traits@D@std@@V?$allocator@D@2@@std@@QAE@XZ
	mov	DWORD PTR __$EHRec$[ebp+8], 0

; 183  : 			szError.Format("LOAD ERROR: Type not found for hash: %u", uiHash);

	mov	eax, DWORD PTR _uiHash$[ebp]
	push	eax
	push	OFFSET ??_C@_0CI@NGFGNGNB@LOAD?5ERROR?3?5Type?5not?5found?5for?5h@
	lea	ecx, DWORD PTR _szError$217634[ebp]
	push	ecx
	call	?Format@CvString@@QAAXPBDZZ		; CvString::Format
	add	esp, 12					; 0000000cH

; 184  : 			GC.LogMessage(szError.GetCString());

	lea	ecx, DWORD PTR _szError$217634[ebp]
	call	DWORD PTR __imp_?c_str@?$basic_string@DU?$char_traits@D@std@@V?$allocator@D@2@@std@@QBEPBDXZ
	push	eax
	mov	ecx, OFFSET ?gGlobals@@3VCvGlobals@@A	; gGlobals
	call	?LogMessage@CvGlobals@@QAEXPBD@Z	; CvGlobals::LogMessage

; 185  : 			CvAssertMsg(false, szError);
; 186  : 			if(bValid) *bValid = false;

	cmp	DWORD PTR _bValid$[ebp], 0
	je	SHORT $LN1@ReadHashed
	mov	edx, DWORD PTR _bValid$[ebp]
	mov	BYTE PTR [edx], 0
$LN1@ReadHashed:

; 187  : 		}

	mov	DWORD PTR __$EHRec$[ebp+8], -1
	lea	ecx, DWORD PTR _szError$217634[ebp]
	call	DWORD PTR __imp_??1?$basic_string@DU?$char_traits@D@std@@V?$allocator@D@2@@std@@QAE@XZ
$LN4@ReadHashed:

; 188  : 	}
; 189  : 
; 190  : 	return -1;

	or	eax, -1
$LN6@ReadHashed:

; 191  : }

	mov	ecx, DWORD PTR __$EHRec$[ebp]
	mov	DWORD PTR fs:0, ecx
	pop	ecx
	mov	ecx, DWORD PTR __$ArrayPad$[ebp]
	xor	ecx, ebp
	call	@__security_check_cookie@4
	mov	esp, ebp
	pop	ebp
	ret	0
_TEXT	ENDS
;	COMDAT text$x
text$x	SEGMENT
__unwindfunclet$?ReadHashed@CvInfosSerializationHelper@@YAHAAVFDataStream@@PA_N@Z$0:
	lea	ecx, DWORD PTR _szError$217634[ebp]
	jmp	??1CvString@@QAE@XZ			; CvString::~CvString
__ehhandler$?ReadHashed@CvInfosSerializationHelper@@YAHAAVFDataStream@@PA_N@Z:
	mov	edx, DWORD PTR [esp+8]
	lea	eax, DWORD PTR [edx+12]
	mov	ecx, DWORD PTR [edx-44]
	xor	ecx, eax
	call	@__security_check_cookie@4
	mov	ecx, DWORD PTR [edx-12]
	xor	ecx, eax
	call	@__security_check_cookie@4
	mov	eax, OFFSET __ehfuncinfo$?ReadHashed@CvInfosSerializationHelper@@YAHAAVFDataStream@@PA_N@Z
	jmp	___CxxFrameHandler3
text$x	ENDS
?ReadHashed@CvInfosSerializationHelper@@YAHAAVFDataStream@@PA_N@Z ENDP ; CvInfosSerializationHelper::ReadHashed
PUBLIC	??_C@_0CJ@MGJGCELL@SELECT?5ID?5from?5?$CFs?5where?5Type?5?$DN?5?$DP@ ; `string'
PUBLIC	__$ArrayPad$
PUBLIC	?ReadDBLookup@CvInfosSerializationHelper@@YAHAAVFDataStream@@PBDPA_N@Z ; CvInfosSerializationHelper::ReadDBLookup
EXTRN	__imp_??1Results@Database@@UAE@XZ:PROC
EXTRN	__imp_?GetInt@Results@Database@@QAEHH@Z:PROC
EXTRN	__imp_?Step@Results@Database@@QAE_NXZ:PROC
EXTRN	__imp_?Bind@Results@Database@@QAE_NHPBD_N@Z:PROC
EXTRN	__imp_?Execute@Connection@Database@@QBE_NAAVResults@2@PBDH@Z:PROC
EXTRN	__imp_??0Results@Database@@QAE@PBD@Z:PROC
;	COMDAT ??_C@_0CJ@MGJGCELL@SELECT?5ID?5from?5?$CFs?5where?5Type?5?$DN?5?$DP@
; File d:\sources\lekmod_git\checkout\lekmod_dll\fireplace\include\fireworks\fstringa.inl
CONST	SEGMENT
??_C@_0CJ@MGJGCELL@SELECT?5ID?5from?5?$CFs?5where?5Type?5?$DN?5?$DP@ DB 'S'
	DB	'ELECT ID from %s where Type = ? LIMIT 1', 00H ; `string'
CONST	ENDS
;	COMDAT xdata$x
xdata$x	SEGMENT
__unwindtable$?ReadDBLookup@CvInfosSerializationHelper@@YAHAAVFDataStream@@PBDPA_N@Z DD 0ffffffffH
	DD	FLAT:__unwindfunclet$?ReadDBLookup@CvInfosSerializationHelper@@YAHAAVFDataStream@@PBDPA_N@Z$0
	DD	00H
	DD	FLAT:__unwindfunclet$?ReadDBLookup@CvInfosSerializationHelper@@YAHAAVFDataStream@@PBDPA_N@Z$1
	DD	01H
	DD	FLAT:__unwindfunclet$?ReadDBLookup@CvInfosSerializationHelper@@YAHAAVFDataStream@@PBDPA_N@Z$2
__ehfuncinfo$?ReadDBLookup@CvInfosSerializationHelper@@YAHAAVFDataStream@@PBDPA_N@Z DD 019930522H
	DD	03H
	DD	FLAT:__unwindtable$?ReadDBLookup@CvInfosSerializationHelper@@YAHAAVFDataStream@@PBDPA_N@Z
	DD	2 DUP(00H)
	DD	2 DUP(00H)
	DD	00H
	DD	01H
; Function compile flags: /Odtp
; File d:\sources\lekmod_git\checkout\lekmod_dll\cvgamecoredll_expansion2\cvinfosserializationhelper.cpp
xdata$x	ENDS
;	COMDAT ?ReadDBLookup@CvInfosSerializationHelper@@YAHAAVFDataStream@@PBDPA_N@Z
_TEXT	SEGMENT
tv173 = -460						; size = 4
tv220 = -456						; size = 4
tv215 = -450						; size = 1
tv194 = -449						; size = 1
tv206 = -448						; size = 4
tv204 = -444						; size = 4
$T218656 = -416						; size = 4
$T218611 = -408						; size = 4
$T218602 = -404						; size = 4
$T218601 = -400						; size = 4
_kResults$217648 = -396					; size = 64
_szCommand$217649 = -328				; size = 28
_pDB$217646 = -300					; size = 4
_sTemp$ = -296						; size = 4
_FStringFixedBuffer_sTemp$ = -292			; size = 268
__$ArrayPad$ = -16					; size = 4
__$EHRec$ = -12						; size = 12
_kStream$ = 8						; size = 4
_szTable$ = 12						; size = 4
_bValid$ = 16						; size = 4
?ReadDBLookup@CvInfosSerializationHelper@@YAHAAVFDataStream@@PBDPA_N@Z PROC ; CvInfosSerializationHelper::ReadDBLookup, COMDAT

; 196  : {

	push	ebp
	mov	ebp, esp
	push	-1
	push	__ehhandler$?ReadDBLookup@CvInfosSerializationHelper@@YAHAAVFDataStream@@PBDPA_N@Z
	mov	eax, DWORD PTR fs:0
	push	eax
	sub	esp, 448				; 000001c0H
	mov	eax, DWORD PTR ___security_cookie
	xor	eax, ebp
	mov	DWORD PTR __$ArrayPad$[ebp], eax
	push	eax
	lea	eax, DWORD PTR __$EHRec$[ebp]
	mov	DWORD PTR fs:0, eax

; 197  : 	FStringFixedBuffer(sTemp, 256);

	call	?FStringA_GetStringInitData@@YAPAUFStringAData@FStringA@@XZ ; FStringA_GetStringInitData
	mov	DWORD PTR $T218611[ebp], eax
	mov	eax, DWORD PTR $T218611[ebp]
	add	eax, 12					; 0000000cH
	mov	DWORD PTR _sTemp$[ebp], eax
	mov	DWORD PTR __$EHRec$[ebp+8], 0
	lea	ecx, DWORD PTR _sTemp$[ebp]
	push	ecx
	lea	ecx, DWORD PTR _FStringFixedBuffer_sTemp$[ebp]
	call	??0?$FStringAFixedBuffer@$0BAA@@FStringA@@QAE@AAV1@@Z ; FStringA::FStringAFixedBuffer<256>::FStringAFixedBuffer<256>

; 198  : 	kStream >> sTemp;

	lea	edx, DWORD PTR _sTemp$[ebp]
	push	edx
	mov	ecx, DWORD PTR _kStream$[ebp]
	call	?Read@FDataStream@@IAEXAAVFStringA@@@Z	; FDataStream::Read

; 199  : 	if (bValid) *bValid = true;

	cmp	DWORD PTR _bValid$[ebp], 0
	je	SHORT $LN40@ReadDBLook
	mov	eax, DWORD PTR _bValid$[ebp]
	mov	BYTE PTR [eax], 1

; 200  : 	if(sTemp.GetLength() > 0 && sTemp != "NO_TYPE")

$LN40@ReadDBLook:
	mov	ecx, DWORD PTR _sTemp$[ebp]
	mov	edx, DWORD PTR [ecx-8]
	mov	DWORD PTR $T218656[ebp], edx
	cmp	DWORD PTR $T218656[ebp], 0
	jle	$LN8@ReadDBLook
	mov	DWORD PTR tv204[ebp], OFFSET ??_C@_07HDHFPDCI@NO_TYPE?$AA@
	mov	eax, DWORD PTR _sTemp$[ebp]
	mov	DWORD PTR tv206[ebp], eax
$LL87@ReadDBLook:
	mov	ecx, DWORD PTR tv206[ebp]
	mov	dl, BYTE PTR [ecx]
	mov	BYTE PTR tv194[ebp], dl
	mov	eax, DWORD PTR tv204[ebp]
	cmp	dl, BYTE PTR [eax]
	jne	SHORT $LN88@ReadDBLook
	cmp	BYTE PTR tv194[ebp], 0
	je	SHORT $LN89@ReadDBLook
	mov	ecx, DWORD PTR tv206[ebp]
	mov	dl, BYTE PTR [ecx+1]
	mov	BYTE PTR tv215[ebp], dl
	mov	eax, DWORD PTR tv204[ebp]
	cmp	dl, BYTE PTR [eax+1]
	jne	SHORT $LN88@ReadDBLook
	add	DWORD PTR tv206[ebp], 2
	add	DWORD PTR tv204[ebp], 2
	cmp	BYTE PTR tv215[ebp], 0
	jne	SHORT $LL87@ReadDBLook
$LN89@ReadDBLook:
	mov	DWORD PTR tv220[ebp], 0
	jmp	SHORT $LN90@ReadDBLook
$LN88@ReadDBLook:
	sbb	ecx, ecx
	sbb	ecx, -1
	mov	DWORD PTR tv220[ebp], ecx
$LN90@ReadDBLook:
	mov	edx, DWORD PTR tv220[ebp]
	mov	DWORD PTR tv173[ebp], edx
	xor	eax, eax
	cmp	DWORD PTR tv173[ebp], 0
	setne	al
	movzx	ecx, al
	test	ecx, ecx
	je	$LN8@ReadDBLook

; 201  : 	{
; 202  : 		Database::Connection* pDB = GC.GetGameDatabase();

	mov	edx, DWORD PTR ?gGlobals@@3VCvGlobals@@A+912
	mov	DWORD PTR _pDB$217646[ebp], edx

; 203  : 		if(pDB)

	cmp	DWORD PTR _pDB$217646[ebp], 0
	je	$LN7@ReadDBLook

; 204  : 		{
; 205  : 			Database::Results kResults;

	push	0
	lea	ecx, DWORD PTR _kResults$217648[ebp]
	call	DWORD PTR __imp_??0Results@Database@@QAE@PBD@Z
	mov	BYTE PTR __$EHRec$[ebp+8], 1

; 206  : 			CvString szCommand;

	lea	ecx, DWORD PTR _szCommand$217649[ebp]
	call	DWORD PTR __imp_??0?$basic_string@DU?$char_traits@D@std@@V?$allocator@D@2@@std@@QAE@XZ
	mov	BYTE PTR __$EHRec$[ebp+8], 2

; 207  : 			szCommand.Format("SELECT ID from %s where Type = ? LIMIT 1", szTable);

	mov	eax, DWORD PTR _szTable$[ebp]
	push	eax
	push	OFFSET ??_C@_0CJ@MGJGCELL@SELECT?5ID?5from?5?$CFs?5where?5Type?5?$DN?5?$DP@
	lea	ecx, DWORD PTR _szCommand$217649[ebp]
	push	ecx
	call	?Format@CvString@@QAAXPBDZZ		; CvString::Format
	add	esp, 12					; 0000000cH

; 208  : 			if(pDB->Execute(kResults, szCommand.c_str()))

	push	-1
	lea	ecx, DWORD PTR _szCommand$217649[ebp]
	call	DWORD PTR __imp_?c_str@?$basic_string@DU?$char_traits@D@std@@V?$allocator@D@2@@std@@QBEPBDXZ
	push	eax
	lea	edx, DWORD PTR _kResults$217648[ebp]
	push	edx
	mov	ecx, DWORD PTR _pDB$217646[ebp]
	call	DWORD PTR __imp_?Execute@Connection@Database@@QBE_NAAVResults@2@PBDH@Z
	movzx	eax, al
	test	eax, eax
	je	$LN6@ReadDBLook

; 209  : 			{
; 210  : 				kResults.Bind(1, sTemp.c_str());

	push	1
	mov	ecx, DWORD PTR _sTemp$[ebp]
	push	ecx
	push	1
	lea	ecx, DWORD PTR _kResults$217648[ebp]
	call	DWORD PTR __imp_?Bind@Results@Database@@QAE_NHPBD_N@Z

; 211  : 				if(kResults.Step())

	lea	ecx, DWORD PTR _kResults$217648[ebp]
	call	DWORD PTR __imp_?Step@Results@Database@@QAE_NXZ
	movzx	edx, al
	test	edx, edx
	je	SHORT $LN5@ReadDBLook

; 212  : 				{
; 213  : 					return kResults.GetInt(0);

	push	0
	lea	ecx, DWORD PTR _kResults$217648[ebp]
	call	DWORD PTR __imp_?GetInt@Results@Database@@QAEHH@Z
	mov	DWORD PTR $T218601[ebp], eax
	mov	BYTE PTR __$EHRec$[ebp+8], 1
	lea	ecx, DWORD PTR _szCommand$217649[ebp]
	call	DWORD PTR __imp_??1?$basic_string@DU?$char_traits@D@std@@V?$allocator@D@2@@std@@QAE@XZ
	mov	BYTE PTR __$EHRec$[ebp+8], 0
	lea	ecx, DWORD PTR _kResults$217648[ebp]
	call	DWORD PTR __imp_??1Results@Database@@UAE@XZ
	mov	DWORD PTR __$EHRec$[ebp+8], -1
	lea	ecx, DWORD PTR _sTemp$[ebp]
	call	?Release@FStringA@@QAEXXZ		; FStringA::Release
	mov	eax, DWORD PTR $T218601[ebp]
	jmp	SHORT $LN10@ReadDBLook

; 214  : 				}
; 215  : 				else

	jmp	SHORT $LN6@ReadDBLook
$LN5@ReadDBLook:

; 216  : 					if (bValid) *bValid = false;

	cmp	DWORD PTR _bValid$[ebp], 0
	je	SHORT $LN6@ReadDBLook
	mov	eax, DWORD PTR _bValid$[ebp]
	mov	BYTE PTR [eax], 0
$LN6@ReadDBLook:

; 217  : 			}
; 218  : 		}

	mov	BYTE PTR __$EHRec$[ebp+8], 1
	lea	ecx, DWORD PTR _szCommand$217649[ebp]
	call	DWORD PTR __imp_??1?$basic_string@DU?$char_traits@D@std@@V?$allocator@D@2@@std@@QAE@XZ
	mov	BYTE PTR __$EHRec$[ebp+8], 0
	lea	ecx, DWORD PTR _kResults$217648[ebp]
	call	DWORD PTR __imp_??1Results@Database@@UAE@XZ

; 219  : 		else

	jmp	SHORT $LN8@ReadDBLook
$LN7@ReadDBLook:

; 220  : 			if (bValid) *bValid = false;

	cmp	DWORD PTR _bValid$[ebp], 0
	je	SHORT $LN8@ReadDBLook
	mov	ecx, DWORD PTR _bValid$[ebp]
	mov	BYTE PTR [ecx], 0
$LN8@ReadDBLook:

; 221  : 	}
; 222  : 	
; 223  : 	return -1;

	mov	DWORD PTR $T218602[ebp], -1
	mov	DWORD PTR __$EHRec$[ebp+8], -1
	lea	ecx, DWORD PTR _sTemp$[ebp]
	call	?Release@FStringA@@QAEXXZ		; FStringA::Release
	mov	eax, DWORD PTR $T218602[ebp]
$LN10@ReadDBLook:

; 224  : }

	mov	ecx, DWORD PTR __$EHRec$[ebp]
	mov	DWORD PTR fs:0, ecx
	pop	ecx
	mov	ecx, DWORD PTR __$ArrayPad$[ebp]
	xor	ecx, ebp
	call	@__security_check_cookie@4
	mov	esp, ebp
	pop	ebp
	ret	0
_TEXT	ENDS
;	COMDAT text$x
text$x	SEGMENT
__unwindfunclet$?ReadDBLookup@CvInfosSerializationHelper@@YAHAAVFDataStream@@PBDPA_N@Z$0:
	lea	ecx, DWORD PTR _sTemp$[ebp]
	jmp	??1FStringA@@QAE@XZ			; FStringA::~FStringA
__unwindfunclet$?ReadDBLookup@CvInfosSerializationHelper@@YAHAAVFDataStream@@PBDPA_N@Z$1:
	lea	ecx, DWORD PTR _kResults$217648[ebp]
	jmp	DWORD PTR __imp_??1Results@Database@@UAE@XZ
__unwindfunclet$?ReadDBLookup@CvInfosSerializationHelper@@YAHAAVFDataStream@@PBDPA_N@Z$2:
	lea	ecx, DWORD PTR _szCommand$217649[ebp]
	jmp	??1CvString@@QAE@XZ			; CvString::~CvString
__ehhandler$?ReadDBLookup@CvInfosSerializationHelper@@YAHAAVFDataStream@@PBDPA_N@Z:
	mov	edx, DWORD PTR [esp+8]
	lea	eax, DWORD PTR [edx+12]
	mov	ecx, DWORD PTR [edx-452]
	xor	ecx, eax
	call	@__security_check_cookie@4
	mov	ecx, DWORD PTR [edx-4]
	xor	ecx, eax
	call	@__security_check_cookie@4
	mov	eax, OFFSET __ehfuncinfo$?ReadDBLookup@CvInfosSerializationHelper@@YAHAAVFDataStream@@PBDPA_N@Z
	jmp	___CxxFrameHandler3
text$x	ENDS
?ReadDBLookup@CvInfosSerializationHelper@@YAHAAVFDataStream@@PBDPA_N@Z ENDP ; CvInfosSerializationHelper::ReadDBLookup
PUBLIC	?Write@CvInfosSerializationHelper@@YA_NAAVFDataStream@@PBVCvBaseInfo@@@Z ; CvInfosSerializationHelper::Write
PUBLIC	?Write@CvInfosSerializationHelper@@YA_NAAVFDataStream@@W4ResourceTypes@@@Z ; CvInfosSerializationHelper::Write
EXTRN	?getResourceInfo@CvGlobals@@QAEPAVCvResourceInfo@@W4ResourceTypes@@@Z:PROC ; CvGlobals::getResourceInfo
; Function compile flags: /Odtp
;	COMDAT ?Write@CvInfosSerializationHelper@@YA_NAAVFDataStream@@W4ResourceTypes@@@Z
_TEXT	SEGMENT
_kStream$ = 8						; size = 4
_eType$ = 12						; size = 4
?Write@CvInfosSerializationHelper@@YA_NAAVFDataStream@@W4ResourceTypes@@@Z PROC ; CvInfosSerializationHelper::Write, COMDAT

; 232  : IMPLEMENT_SERIALIZATION_INFO_TYPE_HELPER(ResourceTypes, getResourceInfo, NO_RESOURCE);

	push	ebp
	mov	ebp, esp
	cmp	DWORD PTR _eType$[ebp], -1
	je	SHORT $LN2@Write
	mov	eax, DWORD PTR _eType$[ebp]
	push	eax
	mov	ecx, OFFSET ?gGlobals@@3VCvGlobals@@A	; gGlobals
	call	?getResourceInfo@CvGlobals@@QAEPAVCvResourceInfo@@W4ResourceTypes@@@Z ; CvGlobals::getResourceInfo
	push	eax
	mov	ecx, DWORD PTR _kStream$[ebp]
	push	ecx
	call	?Write@CvInfosSerializationHelper@@YA_NAAVFDataStream@@PBVCvBaseInfo@@@Z ; CvInfosSerializationHelper::Write
	add	esp, 8
	jmp	SHORT $LN3@Write
	jmp	SHORT $LN3@Write
$LN2@Write:
	push	0
	mov	edx, DWORD PTR _kStream$[ebp]
	push	edx
	call	?Write@CvInfosSerializationHelper@@YA_NAAVFDataStream@@PBVCvBaseInfo@@@Z ; CvInfosSerializationHelper::Write
	add	esp, 8
$LN3@Write:
	pop	ebp
	ret	0
?Write@CvInfosSerializationHelper@@YA_NAAVFDataStream@@W4ResourceTypes@@@Z ENDP ; CvInfosSerializationHelper::Write
_TEXT	ENDS
PUBLIC	?WriteHashed@CvInfosSerializationHelper@@YA_NAAVFDataStream@@PBVCvBaseInfo@@@Z ; CvInfosSerializationHelper::WriteHashed
PUBLIC	?WriteHashed@CvInfosSerializationHelper@@YA_NAAVFDataStream@@W4ResourceTypes@@@Z ; CvInfosSerializationHelper::WriteHashed
; Function compile flags: /Odtp
;	COMDAT ?WriteHashed@CvInfosSerializationHelper@@YA_NAAVFDataStream@@W4ResourceTypes@@@Z
_TEXT	SEGMENT
_kStream$ = 8						; size = 4
_eType$ = 12						; size = 4
?WriteHashed@CvInfosSerializationHelper@@YA_NAAVFDataStream@@W4ResourceTypes@@@Z PROC ; CvInfosSerializationHelper::WriteHashed, COMDAT

; 232  : IMPLEMENT_SERIALIZATION_INFO_TYPE_HELPER(ResourceTypes, getResourceInfo, NO_RESOURCE);

	push	ebp
	mov	ebp, esp
	cmp	DWORD PTR _eType$[ebp], -1
	je	SHORT $LN2@WriteHashe
	mov	eax, DWORD PTR _eType$[ebp]
	push	eax
	mov	ecx, OFFSET ?gGlobals@@3VCvGlobals@@A	; gGlobals
	call	?getResourceInfo@CvGlobals@@QAEPAVCvResourceInfo@@W4ResourceTypes@@@Z ; CvGlobals::getResourceInfo
	push	eax
	mov	ecx, DWORD PTR _kStream$[ebp]
	push	ecx
	call	?WriteHashed@CvInfosSerializationHelper@@YA_NAAVFDataStream@@PBVCvBaseInfo@@@Z ; CvInfosSerializationHelper::WriteHashed
	add	esp, 8
	jmp	SHORT $LN3@WriteHashe
	jmp	SHORT $LN3@WriteHashe
$LN2@WriteHashe:
	push	0
	mov	edx, DWORD PTR _kStream$[ebp]
	push	edx
	call	?WriteHashed@CvInfosSerializationHelper@@YA_NAAVFDataStream@@PBVCvBaseInfo@@@Z ; CvInfosSerializationHelper::WriteHashed
	add	esp, 8
$LN3@WriteHashe:
	pop	ebp
	ret	0
?WriteHashed@CvInfosSerializationHelper@@YA_NAAVFDataStream@@W4ResourceTypes@@@Z ENDP ; CvInfosSerializationHelper::WriteHashed
_TEXT	ENDS
PUBLIC	?Write@CvInfosSerializationHelper@@YA_NAAVFDataStream@@W4PolicyTypes@@@Z ; CvInfosSerializationHelper::Write
EXTRN	?getPolicyInfo@CvGlobals@@QAEPAVCvPolicyEntry@@W4PolicyTypes@@@Z:PROC ; CvGlobals::getPolicyInfo
; Function compile flags: /Odtp
;	COMDAT ?Write@CvInfosSerializationHelper@@YA_NAAVFDataStream@@W4PolicyTypes@@@Z
_TEXT	SEGMENT
_kStream$ = 8						; size = 4
_eType$ = 12						; size = 4
?Write@CvInfosSerializationHelper@@YA_NAAVFDataStream@@W4PolicyTypes@@@Z PROC ; CvInfosSerializationHelper::Write, COMDAT

; 233  : IMPLEMENT_SERIALIZATION_INFO_TYPE_HELPER(PolicyTypes, getPolicyInfo, NO_POLICY);

	push	ebp
	mov	ebp, esp
	cmp	DWORD PTR _eType$[ebp], -1
	je	SHORT $LN2@Write@2
	mov	eax, DWORD PTR _eType$[ebp]
	push	eax
	mov	ecx, OFFSET ?gGlobals@@3VCvGlobals@@A	; gGlobals
	call	?getPolicyInfo@CvGlobals@@QAEPAVCvPolicyEntry@@W4PolicyTypes@@@Z ; CvGlobals::getPolicyInfo
	push	eax
	mov	ecx, DWORD PTR _kStream$[ebp]
	push	ecx
	call	?Write@CvInfosSerializationHelper@@YA_NAAVFDataStream@@PBVCvBaseInfo@@@Z ; CvInfosSerializationHelper::Write
	add	esp, 8
	jmp	SHORT $LN3@Write@2
	jmp	SHORT $LN3@Write@2
$LN2@Write@2:
	push	0
	mov	edx, DWORD PTR _kStream$[ebp]
	push	edx
	call	?Write@CvInfosSerializationHelper@@YA_NAAVFDataStream@@PBVCvBaseInfo@@@Z ; CvInfosSerializationHelper::Write
	add	esp, 8
$LN3@Write@2:
	pop	ebp
	ret	0
?Write@CvInfosSerializationHelper@@YA_NAAVFDataStream@@W4PolicyTypes@@@Z ENDP ; CvInfosSerializationHelper::Write
_TEXT	ENDS
PUBLIC	?WriteHashed@CvInfosSerializationHelper@@YA_NAAVFDataStream@@W4PolicyTypes@@@Z ; CvInfosSerializationHelper::WriteHashed
; Function compile flags: /Odtp
;	COMDAT ?WriteHashed@CvInfosSerializationHelper@@YA_NAAVFDataStream@@W4PolicyTypes@@@Z
_TEXT	SEGMENT
_kStream$ = 8						; size = 4
_eType$ = 12						; size = 4
?WriteHashed@CvInfosSerializationHelper@@YA_NAAVFDataStream@@W4PolicyTypes@@@Z PROC ; CvInfosSerializationHelper::WriteHashed, COMDAT

; 233  : IMPLEMENT_SERIALIZATION_INFO_TYPE_HELPER(PolicyTypes, getPolicyInfo, NO_POLICY);

	push	ebp
	mov	ebp, esp
	cmp	DWORD PTR _eType$[ebp], -1
	je	SHORT $LN2@WriteHashe@2
	mov	eax, DWORD PTR _eType$[ebp]
	push	eax
	mov	ecx, OFFSET ?gGlobals@@3VCvGlobals@@A	; gGlobals
	call	?getPolicyInfo@CvGlobals@@QAEPAVCvPolicyEntry@@W4PolicyTypes@@@Z ; CvGlobals::getPolicyInfo
	push	eax
	mov	ecx, DWORD PTR _kStream$[ebp]
	push	ecx
	call	?WriteHashed@CvInfosSerializationHelper@@YA_NAAVFDataStream@@PBVCvBaseInfo@@@Z ; CvInfosSerializationHelper::WriteHashed
	add	esp, 8
	jmp	SHORT $LN3@WriteHashe@2
	jmp	SHORT $LN3@WriteHashe@2
$LN2@WriteHashe@2:
	push	0
	mov	edx, DWORD PTR _kStream$[ebp]
	push	edx
	call	?WriteHashed@CvInfosSerializationHelper@@YA_NAAVFDataStream@@PBVCvBaseInfo@@@Z ; CvInfosSerializationHelper::WriteHashed
	add	esp, 8
$LN3@WriteHashe@2:
	pop	ebp
	ret	0
?WriteHashed@CvInfosSerializationHelper@@YA_NAAVFDataStream@@W4PolicyTypes@@@Z ENDP ; CvInfosSerializationHelper::WriteHashed
_TEXT	ENDS
PUBLIC	?Write@CvInfosSerializationHelper@@YA_NAAVFDataStream@@W4PolicyBranchTypes@@@Z ; CvInfosSerializationHelper::Write
EXTRN	?getPolicyBranchInfo@CvGlobals@@QAEPAVCvPolicyBranchEntry@@W4PolicyBranchTypes@@@Z:PROC ; CvGlobals::getPolicyBranchInfo
; Function compile flags: /Odtp
;	COMDAT ?Write@CvInfosSerializationHelper@@YA_NAAVFDataStream@@W4PolicyBranchTypes@@@Z
_TEXT	SEGMENT
_kStream$ = 8						; size = 4
_eType$ = 12						; size = 4
?Write@CvInfosSerializationHelper@@YA_NAAVFDataStream@@W4PolicyBranchTypes@@@Z PROC ; CvInfosSerializationHelper::Write, COMDAT

; 234  : IMPLEMENT_SERIALIZATION_INFO_TYPE_HELPER(PolicyBranchTypes, getPolicyBranchInfo, NO_POLICY_BRANCH_TYPE);

	push	ebp
	mov	ebp, esp
	cmp	DWORD PTR _eType$[ebp], -1
	je	SHORT $LN2@Write@3
	mov	eax, DWORD PTR _eType$[ebp]
	push	eax
	mov	ecx, OFFSET ?gGlobals@@3VCvGlobals@@A	; gGlobals
	call	?getPolicyBranchInfo@CvGlobals@@QAEPAVCvPolicyBranchEntry@@W4PolicyBranchTypes@@@Z ; CvGlobals::getPolicyBranchInfo
	push	eax
	mov	ecx, DWORD PTR _kStream$[ebp]
	push	ecx
	call	?Write@CvInfosSerializationHelper@@YA_NAAVFDataStream@@PBVCvBaseInfo@@@Z ; CvInfosSerializationHelper::Write
	add	esp, 8
	jmp	SHORT $LN3@Write@3
	jmp	SHORT $LN3@Write@3
$LN2@Write@3:
	push	0
	mov	edx, DWORD PTR _kStream$[ebp]
	push	edx
	call	?Write@CvInfosSerializationHelper@@YA_NAAVFDataStream@@PBVCvBaseInfo@@@Z ; CvInfosSerializationHelper::Write
	add	esp, 8
$LN3@Write@3:
	pop	ebp
	ret	0
?Write@CvInfosSerializationHelper@@YA_NAAVFDataStream@@W4PolicyBranchTypes@@@Z ENDP ; CvInfosSerializationHelper::Write
_TEXT	ENDS
PUBLIC	?WriteHashed@CvInfosSerializationHelper@@YA_NAAVFDataStream@@W4PolicyBranchTypes@@@Z ; CvInfosSerializationHelper::WriteHashed
; Function compile flags: /Odtp
;	COMDAT ?WriteHashed@CvInfosSerializationHelper@@YA_NAAVFDataStream@@W4PolicyBranchTypes@@@Z
_TEXT	SEGMENT
_kStream$ = 8						; size = 4
_eType$ = 12						; size = 4
?WriteHashed@CvInfosSerializationHelper@@YA_NAAVFDataStream@@W4PolicyBranchTypes@@@Z PROC ; CvInfosSerializationHelper::WriteHashed, COMDAT

; 234  : IMPLEMENT_SERIALIZATION_INFO_TYPE_HELPER(PolicyBranchTypes, getPolicyBranchInfo, NO_POLICY_BRANCH_TYPE);

	push	ebp
	mov	ebp, esp
	cmp	DWORD PTR _eType$[ebp], -1
	je	SHORT $LN2@WriteHashe@3
	mov	eax, DWORD PTR _eType$[ebp]
	push	eax
	mov	ecx, OFFSET ?gGlobals@@3VCvGlobals@@A	; gGlobals
	call	?getPolicyBranchInfo@CvGlobals@@QAEPAVCvPolicyBranchEntry@@W4PolicyBranchTypes@@@Z ; CvGlobals::getPolicyBranchInfo
	push	eax
	mov	ecx, DWORD PTR _kStream$[ebp]
	push	ecx
	call	?WriteHashed@CvInfosSerializationHelper@@YA_NAAVFDataStream@@PBVCvBaseInfo@@@Z ; CvInfosSerializationHelper::WriteHashed
	add	esp, 8
	jmp	SHORT $LN3@WriteHashe@3
	jmp	SHORT $LN3@WriteHashe@3
$LN2@WriteHashe@3:
	push	0
	mov	edx, DWORD PTR _kStream$[ebp]
	push	edx
	call	?WriteHashed@CvInfosSerializationHelper@@YA_NAAVFDataStream@@PBVCvBaseInfo@@@Z ; CvInfosSerializationHelper::WriteHashed
	add	esp, 8
$LN3@WriteHashe@3:
	pop	ebp
	ret	0
?WriteHashed@CvInfosSerializationHelper@@YA_NAAVFDataStream@@W4PolicyBranchTypes@@@Z ENDP ; CvInfosSerializationHelper::WriteHashed
_TEXT	ENDS
PUBLIC	?Write@CvInfosSerializationHelper@@YA_NAAVFDataStream@@W4TechTypes@@@Z ; CvInfosSerializationHelper::Write
EXTRN	?getTechInfo@CvGlobals@@QAEPAVCvTechEntry@@W4TechTypes@@@Z:PROC ; CvGlobals::getTechInfo
; Function compile flags: /Odtp
;	COMDAT ?Write@CvInfosSerializationHelper@@YA_NAAVFDataStream@@W4TechTypes@@@Z
_TEXT	SEGMENT
_kStream$ = 8						; size = 4
_eType$ = 12						; size = 4
?Write@CvInfosSerializationHelper@@YA_NAAVFDataStream@@W4TechTypes@@@Z PROC ; CvInfosSerializationHelper::Write, COMDAT

; 235  : IMPLEMENT_SERIALIZATION_INFO_TYPE_HELPER(TechTypes, getTechInfo, NO_TECH);

	push	ebp
	mov	ebp, esp
	cmp	DWORD PTR _eType$[ebp], -1
	je	SHORT $LN2@Write@4
	mov	eax, DWORD PTR _eType$[ebp]
	push	eax
	mov	ecx, OFFSET ?gGlobals@@3VCvGlobals@@A	; gGlobals
	call	?getTechInfo@CvGlobals@@QAEPAVCvTechEntry@@W4TechTypes@@@Z ; CvGlobals::getTechInfo
	push	eax
	mov	ecx, DWORD PTR _kStream$[ebp]
	push	ecx
	call	?Write@CvInfosSerializationHelper@@YA_NAAVFDataStream@@PBVCvBaseInfo@@@Z ; CvInfosSerializationHelper::Write
	add	esp, 8
	jmp	SHORT $LN3@Write@4
	jmp	SHORT $LN3@Write@4
$LN2@Write@4:
	push	0
	mov	edx, DWORD PTR _kStream$[ebp]
	push	edx
	call	?Write@CvInfosSerializationHelper@@YA_NAAVFDataStream@@PBVCvBaseInfo@@@Z ; CvInfosSerializationHelper::Write
	add	esp, 8
$LN3@Write@4:
	pop	ebp
	ret	0
?Write@CvInfosSerializationHelper@@YA_NAAVFDataStream@@W4TechTypes@@@Z ENDP ; CvInfosSerializationHelper::Write
_TEXT	ENDS
PUBLIC	?WriteHashed@CvInfosSerializationHelper@@YA_NAAVFDataStream@@W4TechTypes@@@Z ; CvInfosSerializationHelper::WriteHashed
; Function compile flags: /Odtp
;	COMDAT ?WriteHashed@CvInfosSerializationHelper@@YA_NAAVFDataStream@@W4TechTypes@@@Z
_TEXT	SEGMENT
_kStream$ = 8						; size = 4
_eType$ = 12						; size = 4
?WriteHashed@CvInfosSerializationHelper@@YA_NAAVFDataStream@@W4TechTypes@@@Z PROC ; CvInfosSerializationHelper::WriteHashed, COMDAT

; 235  : IMPLEMENT_SERIALIZATION_INFO_TYPE_HELPER(TechTypes, getTechInfo, NO_TECH);

	push	ebp
	mov	ebp, esp
	cmp	DWORD PTR _eType$[ebp], -1
	je	SHORT $LN2@WriteHashe@4
	mov	eax, DWORD PTR _eType$[ebp]
	push	eax
	mov	ecx, OFFSET ?gGlobals@@3VCvGlobals@@A	; gGlobals
	call	?getTechInfo@CvGlobals@@QAEPAVCvTechEntry@@W4TechTypes@@@Z ; CvGlobals::getTechInfo
	push	eax
	mov	ecx, DWORD PTR _kStream$[ebp]
	push	ecx
	call	?WriteHashed@CvInfosSerializationHelper@@YA_NAAVFDataStream@@PBVCvBaseInfo@@@Z ; CvInfosSerializationHelper::WriteHashed
	add	esp, 8
	jmp	SHORT $LN3@WriteHashe@4
	jmp	SHORT $LN3@WriteHashe@4
$LN2@WriteHashe@4:
	push	0
	mov	edx, DWORD PTR _kStream$[ebp]
	push	edx
	call	?WriteHashed@CvInfosSerializationHelper@@YA_NAAVFDataStream@@PBVCvBaseInfo@@@Z ; CvInfosSerializationHelper::WriteHashed
	add	esp, 8
$LN3@WriteHashe@4:
	pop	ebp
	ret	0
?WriteHashed@CvInfosSerializationHelper@@YA_NAAVFDataStream@@W4TechTypes@@@Z ENDP ; CvInfosSerializationHelper::WriteHashed
_TEXT	ENDS
PUBLIC	?Write@CvInfosSerializationHelper@@YA_NAAVFDataStream@@W4BeliefTypes@@@Z ; CvInfosSerializationHelper::Write
EXTRN	?getBeliefInfo@CvGlobals@@QAEPAVCvBeliefEntry@@W4BeliefTypes@@@Z:PROC ; CvGlobals::getBeliefInfo
; Function compile flags: /Odtp
;	COMDAT ?Write@CvInfosSerializationHelper@@YA_NAAVFDataStream@@W4BeliefTypes@@@Z
_TEXT	SEGMENT
_kStream$ = 8						; size = 4
_eType$ = 12						; size = 4
?Write@CvInfosSerializationHelper@@YA_NAAVFDataStream@@W4BeliefTypes@@@Z PROC ; CvInfosSerializationHelper::Write, COMDAT

; 236  : IMPLEMENT_SERIALIZATION_INFO_TYPE_HELPER(BeliefTypes, getBeliefInfo, NO_BELIEF);

	push	ebp
	mov	ebp, esp
	cmp	DWORD PTR _eType$[ebp], -1
	je	SHORT $LN2@Write@5
	mov	eax, DWORD PTR _eType$[ebp]
	push	eax
	mov	ecx, OFFSET ?gGlobals@@3VCvGlobals@@A	; gGlobals
	call	?getBeliefInfo@CvGlobals@@QAEPAVCvBeliefEntry@@W4BeliefTypes@@@Z ; CvGlobals::getBeliefInfo
	push	eax
	mov	ecx, DWORD PTR _kStream$[ebp]
	push	ecx
	call	?Write@CvInfosSerializationHelper@@YA_NAAVFDataStream@@PBVCvBaseInfo@@@Z ; CvInfosSerializationHelper::Write
	add	esp, 8
	jmp	SHORT $LN3@Write@5
	jmp	SHORT $LN3@Write@5
$LN2@Write@5:
	push	0
	mov	edx, DWORD PTR _kStream$[ebp]
	push	edx
	call	?Write@CvInfosSerializationHelper@@YA_NAAVFDataStream@@PBVCvBaseInfo@@@Z ; CvInfosSerializationHelper::Write
	add	esp, 8
$LN3@Write@5:
	pop	ebp
	ret	0
?Write@CvInfosSerializationHelper@@YA_NAAVFDataStream@@W4BeliefTypes@@@Z ENDP ; CvInfosSerializationHelper::Write
_TEXT	ENDS
PUBLIC	?WriteHashed@CvInfosSerializationHelper@@YA_NAAVFDataStream@@W4BeliefTypes@@@Z ; CvInfosSerializationHelper::WriteHashed
; Function compile flags: /Odtp
;	COMDAT ?WriteHashed@CvInfosSerializationHelper@@YA_NAAVFDataStream@@W4BeliefTypes@@@Z
_TEXT	SEGMENT
_kStream$ = 8						; size = 4
_eType$ = 12						; size = 4
?WriteHashed@CvInfosSerializationHelper@@YA_NAAVFDataStream@@W4BeliefTypes@@@Z PROC ; CvInfosSerializationHelper::WriteHashed, COMDAT

; 236  : IMPLEMENT_SERIALIZATION_INFO_TYPE_HELPER(BeliefTypes, getBeliefInfo, NO_BELIEF);

	push	ebp
	mov	ebp, esp
	cmp	DWORD PTR _eType$[ebp], -1
	je	SHORT $LN2@WriteHashe@5
	mov	eax, DWORD PTR _eType$[ebp]
	push	eax
	mov	ecx, OFFSET ?gGlobals@@3VCvGlobals@@A	; gGlobals
	call	?getBeliefInfo@CvGlobals@@QAEPAVCvBeliefEntry@@W4BeliefTypes@@@Z ; CvGlobals::getBeliefInfo
	push	eax
	mov	ecx, DWORD PTR _kStream$[ebp]
	push	ecx
	call	?WriteHashed@CvInfosSerializationHelper@@YA_NAAVFDataStream@@PBVCvBaseInfo@@@Z ; CvInfosSerializationHelper::WriteHashed
	add	esp, 8
	jmp	SHORT $LN3@WriteHashe@5
	jmp	SHORT $LN3@WriteHashe@5
$LN2@WriteHashe@5:
	push	0
	mov	edx, DWORD PTR _kStream$[ebp]
	push	edx
	call	?WriteHashed@CvInfosSerializationHelper@@YA_NAAVFDataStream@@PBVCvBaseInfo@@@Z ; CvInfosSerializationHelper::WriteHashed
	add	esp, 8
$LN3@WriteHashe@5:
	pop	ebp
	ret	0
?WriteHashed@CvInfosSerializationHelper@@YA_NAAVFDataStream@@W4BeliefTypes@@@Z ENDP ; CvInfosSerializationHelper::WriteHashed
_TEXT	ENDS
PUBLIC	?Write@CvInfosSerializationHelper@@YA_NAAVFDataStream@@W4ReligionTypes@@@Z ; CvInfosSerializationHelper::Write
EXTRN	?getReligionInfo@CvGlobals@@QAEPAVCvReligionEntry@@W4ReligionTypes@@@Z:PROC ; CvGlobals::getReligionInfo
; Function compile flags: /Odtp
;	COMDAT ?Write@CvInfosSerializationHelper@@YA_NAAVFDataStream@@W4ReligionTypes@@@Z
_TEXT	SEGMENT
_kStream$ = 8						; size = 4
_eType$ = 12						; size = 4
?Write@CvInfosSerializationHelper@@YA_NAAVFDataStream@@W4ReligionTypes@@@Z PROC ; CvInfosSerializationHelper::Write, COMDAT

; 237  : IMPLEMENT_SERIALIZATION_INFO_TYPE_HELPER(ReligionTypes, getReligionInfo, NO_RELIGION);

	push	ebp
	mov	ebp, esp
	cmp	DWORD PTR _eType$[ebp], -1
	je	SHORT $LN2@Write@6
	mov	eax, DWORD PTR _eType$[ebp]
	push	eax
	mov	ecx, OFFSET ?gGlobals@@3VCvGlobals@@A	; gGlobals
	call	?getReligionInfo@CvGlobals@@QAEPAVCvReligionEntry@@W4ReligionTypes@@@Z ; CvGlobals::getReligionInfo
	push	eax
	mov	ecx, DWORD PTR _kStream$[ebp]
	push	ecx
	call	?Write@CvInfosSerializationHelper@@YA_NAAVFDataStream@@PBVCvBaseInfo@@@Z ; CvInfosSerializationHelper::Write
	add	esp, 8
	jmp	SHORT $LN3@Write@6
	jmp	SHORT $LN3@Write@6
$LN2@Write@6:
	push	0
	mov	edx, DWORD PTR _kStream$[ebp]
	push	edx
	call	?Write@CvInfosSerializationHelper@@YA_NAAVFDataStream@@PBVCvBaseInfo@@@Z ; CvInfosSerializationHelper::Write
	add	esp, 8
$LN3@Write@6:
	pop	ebp
	ret	0
?Write@CvInfosSerializationHelper@@YA_NAAVFDataStream@@W4ReligionTypes@@@Z ENDP ; CvInfosSerializationHelper::Write
_TEXT	ENDS
PUBLIC	?WriteHashed@CvInfosSerializationHelper@@YA_NAAVFDataStream@@W4ReligionTypes@@@Z ; CvInfosSerializationHelper::WriteHashed
; Function compile flags: /Odtp
;	COMDAT ?WriteHashed@CvInfosSerializationHelper@@YA_NAAVFDataStream@@W4ReligionTypes@@@Z
_TEXT	SEGMENT
_kStream$ = 8						; size = 4
_eType$ = 12						; size = 4
?WriteHashed@CvInfosSerializationHelper@@YA_NAAVFDataStream@@W4ReligionTypes@@@Z PROC ; CvInfosSerializationHelper::WriteHashed, COMDAT

; 237  : IMPLEMENT_SERIALIZATION_INFO_TYPE_HELPER(ReligionTypes, getReligionInfo, NO_RELIGION);

	push	ebp
	mov	ebp, esp
	cmp	DWORD PTR _eType$[ebp], -1
	je	SHORT $LN2@WriteHashe@6
	mov	eax, DWORD PTR _eType$[ebp]
	push	eax
	mov	ecx, OFFSET ?gGlobals@@3VCvGlobals@@A	; gGlobals
	call	?getReligionInfo@CvGlobals@@QAEPAVCvReligionEntry@@W4ReligionTypes@@@Z ; CvGlobals::getReligionInfo
	push	eax
	mov	ecx, DWORD PTR _kStream$[ebp]
	push	ecx
	call	?WriteHashed@CvInfosSerializationHelper@@YA_NAAVFDataStream@@PBVCvBaseInfo@@@Z ; CvInfosSerializationHelper::WriteHashed
	add	esp, 8
	jmp	SHORT $LN3@WriteHashe@6
	jmp	SHORT $LN3@WriteHashe@6
$LN2@WriteHashe@6:
	push	0
	mov	edx, DWORD PTR _kStream$[ebp]
	push	edx
	call	?WriteHashed@CvInfosSerializationHelper@@YA_NAAVFDataStream@@PBVCvBaseInfo@@@Z ; CvInfosSerializationHelper::WriteHashed
	add	esp, 8
$LN3@WriteHashe@6:
	pop	ebp
	ret	0
?WriteHashed@CvInfosSerializationHelper@@YA_NAAVFDataStream@@W4ReligionTypes@@@Z ENDP ; CvInfosSerializationHelper::WriteHashed
_TEXT	ENDS
PUBLIC	?Write@CvInfosSerializationHelper@@YA_NAAVFDataStream@@W4PlayerColorTypes@@@Z ; CvInfosSerializationHelper::Write
EXTRN	?GetPlayerColorInfo@CvGlobals@@QAEPAVCvPlayerColorInfo@@W4PlayerColorTypes@@@Z:PROC ; CvGlobals::GetPlayerColorInfo
; Function compile flags: /Odtp
;	COMDAT ?Write@CvInfosSerializationHelper@@YA_NAAVFDataStream@@W4PlayerColorTypes@@@Z
_TEXT	SEGMENT
_kStream$ = 8						; size = 4
_eType$ = 12						; size = 4
?Write@CvInfosSerializationHelper@@YA_NAAVFDataStream@@W4PlayerColorTypes@@@Z PROC ; CvInfosSerializationHelper::Write, COMDAT

; 238  : IMPLEMENT_SERIALIZATION_INFO_TYPE_HELPER(PlayerColorTypes, GetPlayerColorInfo, NO_PLAYERCOLOR);

	push	ebp
	mov	ebp, esp
	cmp	DWORD PTR _eType$[ebp], -1
	je	SHORT $LN2@Write@7
	mov	eax, DWORD PTR _eType$[ebp]
	push	eax
	mov	ecx, OFFSET ?gGlobals@@3VCvGlobals@@A	; gGlobals
	call	?GetPlayerColorInfo@CvGlobals@@QAEPAVCvPlayerColorInfo@@W4PlayerColorTypes@@@Z ; CvGlobals::GetPlayerColorInfo
	push	eax
	mov	ecx, DWORD PTR _kStream$[ebp]
	push	ecx
	call	?Write@CvInfosSerializationHelper@@YA_NAAVFDataStream@@PBVCvBaseInfo@@@Z ; CvInfosSerializationHelper::Write
	add	esp, 8
	jmp	SHORT $LN3@Write@7
	jmp	SHORT $LN3@Write@7
$LN2@Write@7:
	push	0
	mov	edx, DWORD PTR _kStream$[ebp]
	push	edx
	call	?Write@CvInfosSerializationHelper@@YA_NAAVFDataStream@@PBVCvBaseInfo@@@Z ; CvInfosSerializationHelper::Write
	add	esp, 8
$LN3@Write@7:
	pop	ebp
	ret	0
?Write@CvInfosSerializationHelper@@YA_NAAVFDataStream@@W4PlayerColorTypes@@@Z ENDP ; CvInfosSerializationHelper::Write
_TEXT	ENDS
PUBLIC	?WriteHashed@CvInfosSerializationHelper@@YA_NAAVFDataStream@@W4PlayerColorTypes@@@Z ; CvInfosSerializationHelper::WriteHashed
; Function compile flags: /Odtp
;	COMDAT ?WriteHashed@CvInfosSerializationHelper@@YA_NAAVFDataStream@@W4PlayerColorTypes@@@Z
_TEXT	SEGMENT
_kStream$ = 8						; size = 4
_eType$ = 12						; size = 4
?WriteHashed@CvInfosSerializationHelper@@YA_NAAVFDataStream@@W4PlayerColorTypes@@@Z PROC ; CvInfosSerializationHelper::WriteHashed, COMDAT

; 238  : IMPLEMENT_SERIALIZATION_INFO_TYPE_HELPER(PlayerColorTypes, GetPlayerColorInfo, NO_PLAYERCOLOR);

	push	ebp
	mov	ebp, esp
	cmp	DWORD PTR _eType$[ebp], -1
	je	SHORT $LN2@WriteHashe@7
	mov	eax, DWORD PTR _eType$[ebp]
	push	eax
	mov	ecx, OFFSET ?gGlobals@@3VCvGlobals@@A	; gGlobals
	call	?GetPlayerColorInfo@CvGlobals@@QAEPAVCvPlayerColorInfo@@W4PlayerColorTypes@@@Z ; CvGlobals::GetPlayerColorInfo
	push	eax
	mov	ecx, DWORD PTR _kStream$[ebp]
	push	ecx
	call	?WriteHashed@CvInfosSerializationHelper@@YA_NAAVFDataStream@@PBVCvBaseInfo@@@Z ; CvInfosSerializationHelper::WriteHashed
	add	esp, 8
	jmp	SHORT $LN3@WriteHashe@7
	jmp	SHORT $LN3@WriteHashe@7
$LN2@WriteHashe@7:
	push	0
	mov	edx, DWORD PTR _kStream$[ebp]
	push	edx
	call	?WriteHashed@CvInfosSerializationHelper@@YA_NAAVFDataStream@@PBVCvBaseInfo@@@Z ; CvInfosSerializationHelper::WriteHashed
	add	esp, 8
$LN3@WriteHashe@7:
	pop	ebp
	ret	0
?WriteHashed@CvInfosSerializationHelper@@YA_NAAVFDataStream@@W4PlayerColorTypes@@@Z ENDP ; CvInfosSerializationHelper::WriteHashed
_TEXT	ENDS
PUBLIC	?Write@CvInfosSerializationHelper@@YA_NAAVFDataStream@@W4MinorCivTypes@@@Z ; CvInfosSerializationHelper::Write
EXTRN	?getMinorCivInfo@CvGlobals@@QAEPAVCvMinorCivInfo@@W4MinorCivTypes@@@Z:PROC ; CvGlobals::getMinorCivInfo
; Function compile flags: /Odtp
;	COMDAT ?Write@CvInfosSerializationHelper@@YA_NAAVFDataStream@@W4MinorCivTypes@@@Z
_TEXT	SEGMENT
_kStream$ = 8						; size = 4
_eType$ = 12						; size = 4
?Write@CvInfosSerializationHelper@@YA_NAAVFDataStream@@W4MinorCivTypes@@@Z PROC ; CvInfosSerializationHelper::Write, COMDAT

; 239  : IMPLEMENT_SERIALIZATION_INFO_TYPE_HELPER(MinorCivTypes, getMinorCivInfo, NO_MINORCIV);

	push	ebp
	mov	ebp, esp
	cmp	DWORD PTR _eType$[ebp], -1
	je	SHORT $LN2@Write@8
	mov	eax, DWORD PTR _eType$[ebp]
	push	eax
	mov	ecx, OFFSET ?gGlobals@@3VCvGlobals@@A	; gGlobals
	call	?getMinorCivInfo@CvGlobals@@QAEPAVCvMinorCivInfo@@W4MinorCivTypes@@@Z ; CvGlobals::getMinorCivInfo
	push	eax
	mov	ecx, DWORD PTR _kStream$[ebp]
	push	ecx
	call	?Write@CvInfosSerializationHelper@@YA_NAAVFDataStream@@PBVCvBaseInfo@@@Z ; CvInfosSerializationHelper::Write
	add	esp, 8
	jmp	SHORT $LN3@Write@8
	jmp	SHORT $LN3@Write@8
$LN2@Write@8:
	push	0
	mov	edx, DWORD PTR _kStream$[ebp]
	push	edx
	call	?Write@CvInfosSerializationHelper@@YA_NAAVFDataStream@@PBVCvBaseInfo@@@Z ; CvInfosSerializationHelper::Write
	add	esp, 8
$LN3@Write@8:
	pop	ebp
	ret	0
?Write@CvInfosSerializationHelper@@YA_NAAVFDataStream@@W4MinorCivTypes@@@Z ENDP ; CvInfosSerializationHelper::Write
_TEXT	ENDS
PUBLIC	?WriteHashed@CvInfosSerializationHelper@@YA_NAAVFDataStream@@W4MinorCivTypes@@@Z ; CvInfosSerializationHelper::WriteHashed
; Function compile flags: /Odtp
;	COMDAT ?WriteHashed@CvInfosSerializationHelper@@YA_NAAVFDataStream@@W4MinorCivTypes@@@Z
_TEXT	SEGMENT
_kStream$ = 8						; size = 4
_eType$ = 12						; size = 4
?WriteHashed@CvInfosSerializationHelper@@YA_NAAVFDataStream@@W4MinorCivTypes@@@Z PROC ; CvInfosSerializationHelper::WriteHashed, COMDAT

; 239  : IMPLEMENT_SERIALIZATION_INFO_TYPE_HELPER(MinorCivTypes, getMinorCivInfo, NO_MINORCIV);

	push	ebp
	mov	ebp, esp
	cmp	DWORD PTR _eType$[ebp], -1
	je	SHORT $LN2@WriteHashe@8
	mov	eax, DWORD PTR _eType$[ebp]
	push	eax
	mov	ecx, OFFSET ?gGlobals@@3VCvGlobals@@A	; gGlobals
	call	?getMinorCivInfo@CvGlobals@@QAEPAVCvMinorCivInfo@@W4MinorCivTypes@@@Z ; CvGlobals::getMinorCivInfo
	push	eax
	mov	ecx, DWORD PTR _kStream$[ebp]
	push	ecx
	call	?WriteHashed@CvInfosSerializationHelper@@YA_NAAVFDataStream@@PBVCvBaseInfo@@@Z ; CvInfosSerializationHelper::WriteHashed
	add	esp, 8
	jmp	SHORT $LN3@WriteHashe@8
	jmp	SHORT $LN3@WriteHashe@8
$LN2@WriteHashe@8:
	push	0
	mov	edx, DWORD PTR _kStream$[ebp]
	push	edx
	call	?WriteHashed@CvInfosSerializationHelper@@YA_NAAVFDataStream@@PBVCvBaseInfo@@@Z ; CvInfosSerializationHelper::WriteHashed
	add	esp, 8
$LN3@WriteHashe@8:
	pop	ebp
	ret	0
?WriteHashed@CvInfosSerializationHelper@@YA_NAAVFDataStream@@W4MinorCivTypes@@@Z ENDP ; CvInfosSerializationHelper::WriteHashed
_TEXT	ENDS
PUBLIC	?Write@CvInfosSerializationHelper@@YA_NAAVFDataStream@@W4SpecialistTypes@@@Z ; CvInfosSerializationHelper::Write
EXTRN	?getSpecialistInfo@CvGlobals@@QAEPAVCvSpecialistInfo@@W4SpecialistTypes@@@Z:PROC ; CvGlobals::getSpecialistInfo
; Function compile flags: /Odtp
;	COMDAT ?Write@CvInfosSerializationHelper@@YA_NAAVFDataStream@@W4SpecialistTypes@@@Z
_TEXT	SEGMENT
_kStream$ = 8						; size = 4
_eType$ = 12						; size = 4
?Write@CvInfosSerializationHelper@@YA_NAAVFDataStream@@W4SpecialistTypes@@@Z PROC ; CvInfosSerializationHelper::Write, COMDAT

; 240  : IMPLEMENT_SERIALIZATION_INFO_TYPE_HELPER(SpecialistTypes, getSpecialistInfo, NO_SPECIALIST);

	push	ebp
	mov	ebp, esp
	cmp	DWORD PTR _eType$[ebp], -1
	je	SHORT $LN2@Write@9
	mov	eax, DWORD PTR _eType$[ebp]
	push	eax
	mov	ecx, OFFSET ?gGlobals@@3VCvGlobals@@A	; gGlobals
	call	?getSpecialistInfo@CvGlobals@@QAEPAVCvSpecialistInfo@@W4SpecialistTypes@@@Z ; CvGlobals::getSpecialistInfo
	push	eax
	mov	ecx, DWORD PTR _kStream$[ebp]
	push	ecx
	call	?Write@CvInfosSerializationHelper@@YA_NAAVFDataStream@@PBVCvBaseInfo@@@Z ; CvInfosSerializationHelper::Write
	add	esp, 8
	jmp	SHORT $LN3@Write@9
	jmp	SHORT $LN3@Write@9
$LN2@Write@9:
	push	0
	mov	edx, DWORD PTR _kStream$[ebp]
	push	edx
	call	?Write@CvInfosSerializationHelper@@YA_NAAVFDataStream@@PBVCvBaseInfo@@@Z ; CvInfosSerializationHelper::Write
	add	esp, 8
$LN3@Write@9:
	pop	ebp
	ret	0
?Write@CvInfosSerializationHelper@@YA_NAAVFDataStream@@W4SpecialistTypes@@@Z ENDP ; CvInfosSerializationHelper::Write
_TEXT	ENDS
PUBLIC	?WriteHashed@CvInfosSerializationHelper@@YA_NAAVFDataStream@@W4SpecialistTypes@@@Z ; CvInfosSerializationHelper::WriteHashed
; Function compile flags: /Odtp
;	COMDAT ?WriteHashed@CvInfosSerializationHelper@@YA_NAAVFDataStream@@W4SpecialistTypes@@@Z
_TEXT	SEGMENT
_kStream$ = 8						; size = 4
_eType$ = 12						; size = 4
?WriteHashed@CvInfosSerializationHelper@@YA_NAAVFDataStream@@W4SpecialistTypes@@@Z PROC ; CvInfosSerializationHelper::WriteHashed, COMDAT

; 240  : IMPLEMENT_SERIALIZATION_INFO_TYPE_HELPER(SpecialistTypes, getSpecialistInfo, NO_SPECIALIST);

	push	ebp
	mov	ebp, esp
	cmp	DWORD PTR _eType$[ebp], -1
	je	SHORT $LN2@WriteHashe@9
	mov	eax, DWORD PTR _eType$[ebp]
	push	eax
	mov	ecx, OFFSET ?gGlobals@@3VCvGlobals@@A	; gGlobals
	call	?getSpecialistInfo@CvGlobals@@QAEPAVCvSpecialistInfo@@W4SpecialistTypes@@@Z ; CvGlobals::getSpecialistInfo
	push	eax
	mov	ecx, DWORD PTR _kStream$[ebp]
	push	ecx
	call	?WriteHashed@CvInfosSerializationHelper@@YA_NAAVFDataStream@@PBVCvBaseInfo@@@Z ; CvInfosSerializationHelper::WriteHashed
	add	esp, 8
	jmp	SHORT $LN3@WriteHashe@9
	jmp	SHORT $LN3@WriteHashe@9
$LN2@WriteHashe@9:
	push	0
	mov	edx, DWORD PTR _kStream$[ebp]
	push	edx
	call	?WriteHashed@CvInfosSerializationHelper@@YA_NAAVFDataStream@@PBVCvBaseInfo@@@Z ; CvInfosSerializationHelper::WriteHashed
	add	esp, 8
$LN3@WriteHashe@9:
	pop	ebp
	ret	0
?WriteHashed@CvInfosSerializationHelper@@YA_NAAVFDataStream@@W4SpecialistTypes@@@Z ENDP ; CvInfosSerializationHelper::WriteHashed
_TEXT	ENDS
PUBLIC	?Write@CvInfosSerializationHelper@@YA_NAAVFDataStream@@W4EmphasizeTypes@@@Z ; CvInfosSerializationHelper::Write
EXTRN	?getEmphasisInfo@CvGlobals@@QAEPAVCvEmphasisEntry@@W4EmphasizeTypes@@@Z:PROC ; CvGlobals::getEmphasisInfo
; Function compile flags: /Odtp
;	COMDAT ?Write@CvInfosSerializationHelper@@YA_NAAVFDataStream@@W4EmphasizeTypes@@@Z
_TEXT	SEGMENT
_kStream$ = 8						; size = 4
_eType$ = 12						; size = 4
?Write@CvInfosSerializationHelper@@YA_NAAVFDataStream@@W4EmphasizeTypes@@@Z PROC ; CvInfosSerializationHelper::Write, COMDAT

; 241  : IMPLEMENT_SERIALIZATION_INFO_TYPE_HELPER(EmphasizeTypes, getEmphasisInfo, NO_EMPHASIZE);

	push	ebp
	mov	ebp, esp
	cmp	DWORD PTR _eType$[ebp], -1
	je	SHORT $LN2@Write@10
	mov	eax, DWORD PTR _eType$[ebp]
	push	eax
	mov	ecx, OFFSET ?gGlobals@@3VCvGlobals@@A	; gGlobals
	call	?getEmphasisInfo@CvGlobals@@QAEPAVCvEmphasisEntry@@W4EmphasizeTypes@@@Z ; CvGlobals::getEmphasisInfo
	push	eax
	mov	ecx, DWORD PTR _kStream$[ebp]
	push	ecx
	call	?Write@CvInfosSerializationHelper@@YA_NAAVFDataStream@@PBVCvBaseInfo@@@Z ; CvInfosSerializationHelper::Write
	add	esp, 8
	jmp	SHORT $LN3@Write@10
	jmp	SHORT $LN3@Write@10
$LN2@Write@10:
	push	0
	mov	edx, DWORD PTR _kStream$[ebp]
	push	edx
	call	?Write@CvInfosSerializationHelper@@YA_NAAVFDataStream@@PBVCvBaseInfo@@@Z ; CvInfosSerializationHelper::Write
	add	esp, 8
$LN3@Write@10:
	pop	ebp
	ret	0
?Write@CvInfosSerializationHelper@@YA_NAAVFDataStream@@W4EmphasizeTypes@@@Z ENDP ; CvInfosSerializationHelper::Write
_TEXT	ENDS
PUBLIC	?WriteHashed@CvInfosSerializationHelper@@YA_NAAVFDataStream@@W4EmphasizeTypes@@@Z ; CvInfosSerializationHelper::WriteHashed
; Function compile flags: /Odtp
;	COMDAT ?WriteHashed@CvInfosSerializationHelper@@YA_NAAVFDataStream@@W4EmphasizeTypes@@@Z
_TEXT	SEGMENT
_kStream$ = 8						; size = 4
_eType$ = 12						; size = 4
?WriteHashed@CvInfosSerializationHelper@@YA_NAAVFDataStream@@W4EmphasizeTypes@@@Z PROC ; CvInfosSerializationHelper::WriteHashed, COMDAT

; 241  : IMPLEMENT_SERIALIZATION_INFO_TYPE_HELPER(EmphasizeTypes, getEmphasisInfo, NO_EMPHASIZE);

	push	ebp
	mov	ebp, esp
	cmp	DWORD PTR _eType$[ebp], -1
	je	SHORT $LN2@WriteHashe@10
	mov	eax, DWORD PTR _eType$[ebp]
	push	eax
	mov	ecx, OFFSET ?gGlobals@@3VCvGlobals@@A	; gGlobals
	call	?getEmphasisInfo@CvGlobals@@QAEPAVCvEmphasisEntry@@W4EmphasizeTypes@@@Z ; CvGlobals::getEmphasisInfo
	push	eax
	mov	ecx, DWORD PTR _kStream$[ebp]
	push	ecx
	call	?WriteHashed@CvInfosSerializationHelper@@YA_NAAVFDataStream@@PBVCvBaseInfo@@@Z ; CvInfosSerializationHelper::WriteHashed
	add	esp, 8
	jmp	SHORT $LN3@WriteHashe@10
	jmp	SHORT $LN3@WriteHashe@10
$LN2@WriteHashe@10:
	push	0
	mov	edx, DWORD PTR _kStream$[ebp]
	push	edx
	call	?WriteHashed@CvInfosSerializationHelper@@YA_NAAVFDataStream@@PBVCvBaseInfo@@@Z ; CvInfosSerializationHelper::WriteHashed
	add	esp, 8
$LN3@WriteHashe@10:
	pop	ebp
	ret	0
?WriteHashed@CvInfosSerializationHelper@@YA_NAAVFDataStream@@W4EmphasizeTypes@@@Z ENDP ; CvInfosSerializationHelper::WriteHashed
_TEXT	ENDS
PUBLIC	?Write@CvInfosSerializationHelper@@YA_NAAVFDataStream@@W4ProjectTypes@@@Z ; CvInfosSerializationHelper::Write
EXTRN	?getProjectInfo@CvGlobals@@QAEPAVCvProjectEntry@@W4ProjectTypes@@@Z:PROC ; CvGlobals::getProjectInfo
; Function compile flags: /Odtp
;	COMDAT ?Write@CvInfosSerializationHelper@@YA_NAAVFDataStream@@W4ProjectTypes@@@Z
_TEXT	SEGMENT
_kStream$ = 8						; size = 4
_eType$ = 12						; size = 4
?Write@CvInfosSerializationHelper@@YA_NAAVFDataStream@@W4ProjectTypes@@@Z PROC ; CvInfosSerializationHelper::Write, COMDAT

; 242  : IMPLEMENT_SERIALIZATION_INFO_TYPE_HELPER(ProjectTypes, getProjectInfo, NO_PROJECT);

	push	ebp
	mov	ebp, esp
	cmp	DWORD PTR _eType$[ebp], -1
	je	SHORT $LN2@Write@11
	mov	eax, DWORD PTR _eType$[ebp]
	push	eax
	mov	ecx, OFFSET ?gGlobals@@3VCvGlobals@@A	; gGlobals
	call	?getProjectInfo@CvGlobals@@QAEPAVCvProjectEntry@@W4ProjectTypes@@@Z ; CvGlobals::getProjectInfo
	push	eax
	mov	ecx, DWORD PTR _kStream$[ebp]
	push	ecx
	call	?Write@CvInfosSerializationHelper@@YA_NAAVFDataStream@@PBVCvBaseInfo@@@Z ; CvInfosSerializationHelper::Write
	add	esp, 8
	jmp	SHORT $LN3@Write@11
	jmp	SHORT $LN3@Write@11
$LN2@Write@11:
	push	0
	mov	edx, DWORD PTR _kStream$[ebp]
	push	edx
	call	?Write@CvInfosSerializationHelper@@YA_NAAVFDataStream@@PBVCvBaseInfo@@@Z ; CvInfosSerializationHelper::Write
	add	esp, 8
$LN3@Write@11:
	pop	ebp
	ret	0
?Write@CvInfosSerializationHelper@@YA_NAAVFDataStream@@W4ProjectTypes@@@Z ENDP ; CvInfosSerializationHelper::Write
_TEXT	ENDS
PUBLIC	?WriteHashed@CvInfosSerializationHelper@@YA_NAAVFDataStream@@W4ProjectTypes@@@Z ; CvInfosSerializationHelper::WriteHashed
; Function compile flags: /Odtp
;	COMDAT ?WriteHashed@CvInfosSerializationHelper@@YA_NAAVFDataStream@@W4ProjectTypes@@@Z
_TEXT	SEGMENT
_kStream$ = 8						; size = 4
_eType$ = 12						; size = 4
?WriteHashed@CvInfosSerializationHelper@@YA_NAAVFDataStream@@W4ProjectTypes@@@Z PROC ; CvInfosSerializationHelper::WriteHashed, COMDAT

; 242  : IMPLEMENT_SERIALIZATION_INFO_TYPE_HELPER(ProjectTypes, getProjectInfo, NO_PROJECT);

	push	ebp
	mov	ebp, esp
	cmp	DWORD PTR _eType$[ebp], -1
	je	SHORT $LN2@WriteHashe@11
	mov	eax, DWORD PTR _eType$[ebp]
	push	eax
	mov	ecx, OFFSET ?gGlobals@@3VCvGlobals@@A	; gGlobals
	call	?getProjectInfo@CvGlobals@@QAEPAVCvProjectEntry@@W4ProjectTypes@@@Z ; CvGlobals::getProjectInfo
	push	eax
	mov	ecx, DWORD PTR _kStream$[ebp]
	push	ecx
	call	?WriteHashed@CvInfosSerializationHelper@@YA_NAAVFDataStream@@PBVCvBaseInfo@@@Z ; CvInfosSerializationHelper::WriteHashed
	add	esp, 8
	jmp	SHORT $LN3@WriteHashe@11
	jmp	SHORT $LN3@WriteHashe@11
$LN2@WriteHashe@11:
	push	0
	mov	edx, DWORD PTR _kStream$[ebp]
	push	edx
	call	?WriteHashed@CvInfosSerializationHelper@@YA_NAAVFDataStream@@PBVCvBaseInfo@@@Z ; CvInfosSerializationHelper::WriteHashed
	add	esp, 8
$LN3@WriteHashe@11:
	pop	ebp
	ret	0
?WriteHashed@CvInfosSerializationHelper@@YA_NAAVFDataStream@@W4ProjectTypes@@@Z ENDP ; CvInfosSerializationHelper::WriteHashed
_TEXT	ENDS
PUBLIC	?Write@CvInfosSerializationHelper@@YA_NAAVFDataStream@@W4VoteTypes@@@Z ; CvInfosSerializationHelper::Write
EXTRN	?getVoteInfo@CvGlobals@@QAEPAVCvVoteInfo@@W4VoteTypes@@@Z:PROC ; CvGlobals::getVoteInfo
; Function compile flags: /Odtp
;	COMDAT ?Write@CvInfosSerializationHelper@@YA_NAAVFDataStream@@W4VoteTypes@@@Z
_TEXT	SEGMENT
_kStream$ = 8						; size = 4
_eType$ = 12						; size = 4
?Write@CvInfosSerializationHelper@@YA_NAAVFDataStream@@W4VoteTypes@@@Z PROC ; CvInfosSerializationHelper::Write, COMDAT

; 243  : IMPLEMENT_SERIALIZATION_INFO_TYPE_HELPER(VoteTypes, getVoteInfo, NO_VOTE);

	push	ebp
	mov	ebp, esp
	cmp	DWORD PTR _eType$[ebp], -1
	je	SHORT $LN2@Write@12
	mov	eax, DWORD PTR _eType$[ebp]
	push	eax
	mov	ecx, OFFSET ?gGlobals@@3VCvGlobals@@A	; gGlobals
	call	?getVoteInfo@CvGlobals@@QAEPAVCvVoteInfo@@W4VoteTypes@@@Z ; CvGlobals::getVoteInfo
	push	eax
	mov	ecx, DWORD PTR _kStream$[ebp]
	push	ecx
	call	?Write@CvInfosSerializationHelper@@YA_NAAVFDataStream@@PBVCvBaseInfo@@@Z ; CvInfosSerializationHelper::Write
	add	esp, 8
	jmp	SHORT $LN3@Write@12
	jmp	SHORT $LN3@Write@12
$LN2@Write@12:
	push	0
	mov	edx, DWORD PTR _kStream$[ebp]
	push	edx
	call	?Write@CvInfosSerializationHelper@@YA_NAAVFDataStream@@PBVCvBaseInfo@@@Z ; CvInfosSerializationHelper::Write
	add	esp, 8
$LN3@Write@12:
	pop	ebp
	ret	0
?Write@CvInfosSerializationHelper@@YA_NAAVFDataStream@@W4VoteTypes@@@Z ENDP ; CvInfosSerializationHelper::Write
_TEXT	ENDS
PUBLIC	?WriteHashed@CvInfosSerializationHelper@@YA_NAAVFDataStream@@W4VoteTypes@@@Z ; CvInfosSerializationHelper::WriteHashed
; Function compile flags: /Odtp
;	COMDAT ?WriteHashed@CvInfosSerializationHelper@@YA_NAAVFDataStream@@W4VoteTypes@@@Z
_TEXT	SEGMENT
_kStream$ = 8						; size = 4
_eType$ = 12						; size = 4
?WriteHashed@CvInfosSerializationHelper@@YA_NAAVFDataStream@@W4VoteTypes@@@Z PROC ; CvInfosSerializationHelper::WriteHashed, COMDAT

; 243  : IMPLEMENT_SERIALIZATION_INFO_TYPE_HELPER(VoteTypes, getVoteInfo, NO_VOTE);

	push	ebp
	mov	ebp, esp
	cmp	DWORD PTR _eType$[ebp], -1
	je	SHORT $LN2@WriteHashe@12
	mov	eax, DWORD PTR _eType$[ebp]
	push	eax
	mov	ecx, OFFSET ?gGlobals@@3VCvGlobals@@A	; gGlobals
	call	?getVoteInfo@CvGlobals@@QAEPAVCvVoteInfo@@W4VoteTypes@@@Z ; CvGlobals::getVoteInfo
	push	eax
	mov	ecx, DWORD PTR _kStream$[ebp]
	push	ecx
	call	?WriteHashed@CvInfosSerializationHelper@@YA_NAAVFDataStream@@PBVCvBaseInfo@@@Z ; CvInfosSerializationHelper::WriteHashed
	add	esp, 8
	jmp	SHORT $LN3@WriteHashe@12
	jmp	SHORT $LN3@WriteHashe@12
$LN2@WriteHashe@12:
	push	0
	mov	edx, DWORD PTR _kStream$[ebp]
	push	edx
	call	?WriteHashed@CvInfosSerializationHelper@@YA_NAAVFDataStream@@PBVCvBaseInfo@@@Z ; CvInfosSerializationHelper::WriteHashed
	add	esp, 8
$LN3@WriteHashe@12:
	pop	ebp
	ret	0
?WriteHashed@CvInfosSerializationHelper@@YA_NAAVFDataStream@@W4VoteTypes@@@Z ENDP ; CvInfosSerializationHelper::WriteHashed
_TEXT	ENDS
PUBLIC	?Write@CvInfosSerializationHelper@@YA_NAAVFDataStream@@W4VoteSourceTypes@@@Z ; CvInfosSerializationHelper::Write
EXTRN	?getVoteSourceInfo@CvGlobals@@QAEPAVCvVoteSourceInfo@@W4VoteSourceTypes@@@Z:PROC ; CvGlobals::getVoteSourceInfo
; Function compile flags: /Odtp
;	COMDAT ?Write@CvInfosSerializationHelper@@YA_NAAVFDataStream@@W4VoteSourceTypes@@@Z
_TEXT	SEGMENT
_kStream$ = 8						; size = 4
_eType$ = 12						; size = 4
?Write@CvInfosSerializationHelper@@YA_NAAVFDataStream@@W4VoteSourceTypes@@@Z PROC ; CvInfosSerializationHelper::Write, COMDAT

; 244  : IMPLEMENT_SERIALIZATION_INFO_TYPE_HELPER(VoteSourceTypes, getVoteSourceInfo, NO_VOTESOURCE);

	push	ebp
	mov	ebp, esp
	cmp	DWORD PTR _eType$[ebp], -1
	je	SHORT $LN2@Write@13
	mov	eax, DWORD PTR _eType$[ebp]
	push	eax
	mov	ecx, OFFSET ?gGlobals@@3VCvGlobals@@A	; gGlobals
	call	?getVoteSourceInfo@CvGlobals@@QAEPAVCvVoteSourceInfo@@W4VoteSourceTypes@@@Z ; CvGlobals::getVoteSourceInfo
	push	eax
	mov	ecx, DWORD PTR _kStream$[ebp]
	push	ecx
	call	?Write@CvInfosSerializationHelper@@YA_NAAVFDataStream@@PBVCvBaseInfo@@@Z ; CvInfosSerializationHelper::Write
	add	esp, 8
	jmp	SHORT $LN3@Write@13
	jmp	SHORT $LN3@Write@13
$LN2@Write@13:
	push	0
	mov	edx, DWORD PTR _kStream$[ebp]
	push	edx
	call	?Write@CvInfosSerializationHelper@@YA_NAAVFDataStream@@PBVCvBaseInfo@@@Z ; CvInfosSerializationHelper::Write
	add	esp, 8
$LN3@Write@13:
	pop	ebp
	ret	0
?Write@CvInfosSerializationHelper@@YA_NAAVFDataStream@@W4VoteSourceTypes@@@Z ENDP ; CvInfosSerializationHelper::Write
_TEXT	ENDS
PUBLIC	?WriteHashed@CvInfosSerializationHelper@@YA_NAAVFDataStream@@W4VoteSourceTypes@@@Z ; CvInfosSerializationHelper::WriteHashed
; Function compile flags: /Odtp
;	COMDAT ?WriteHashed@CvInfosSerializationHelper@@YA_NAAVFDataStream@@W4VoteSourceTypes@@@Z
_TEXT	SEGMENT
_kStream$ = 8						; size = 4
_eType$ = 12						; size = 4
?WriteHashed@CvInfosSerializationHelper@@YA_NAAVFDataStream@@W4VoteSourceTypes@@@Z PROC ; CvInfosSerializationHelper::WriteHashed, COMDAT

; 244  : IMPLEMENT_SERIALIZATION_INFO_TYPE_HELPER(VoteSourceTypes, getVoteSourceInfo, NO_VOTESOURCE);

	push	ebp
	mov	ebp, esp
	cmp	DWORD PTR _eType$[ebp], -1
	je	SHORT $LN2@WriteHashe@13
	mov	eax, DWORD PTR _eType$[ebp]
	push	eax
	mov	ecx, OFFSET ?gGlobals@@3VCvGlobals@@A	; gGlobals
	call	?getVoteSourceInfo@CvGlobals@@QAEPAVCvVoteSourceInfo@@W4VoteSourceTypes@@@Z ; CvGlobals::getVoteSourceInfo
	push	eax
	mov	ecx, DWORD PTR _kStream$[ebp]
	push	ecx
	call	?WriteHashed@CvInfosSerializationHelper@@YA_NAAVFDataStream@@PBVCvBaseInfo@@@Z ; CvInfosSerializationHelper::WriteHashed
	add	esp, 8
	jmp	SHORT $LN3@WriteHashe@13
	jmp	SHORT $LN3@WriteHashe@13
$LN2@WriteHashe@13:
	push	0
	mov	edx, DWORD PTR _kStream$[ebp]
	push	edx
	call	?WriteHashed@CvInfosSerializationHelper@@YA_NAAVFDataStream@@PBVCvBaseInfo@@@Z ; CvInfosSerializationHelper::WriteHashed
	add	esp, 8
$LN3@WriteHashe@13:
	pop	ebp
	ret	0
?WriteHashed@CvInfosSerializationHelper@@YA_NAAVFDataStream@@W4VoteSourceTypes@@@Z ENDP ; CvInfosSerializationHelper::WriteHashed
_TEXT	ENDS
PUBLIC	?Write@CvInfosSerializationHelper@@YA_NAAVFDataStream@@W4SpecialUnitTypes@@@Z ; CvInfosSerializationHelper::Write
EXTRN	?getSpecialUnitInfo@CvGlobals@@QAEPAVCvSpecialUnitInfo@@W4SpecialUnitTypes@@@Z:PROC ; CvGlobals::getSpecialUnitInfo
; Function compile flags: /Odtp
;	COMDAT ?Write@CvInfosSerializationHelper@@YA_NAAVFDataStream@@W4SpecialUnitTypes@@@Z
_TEXT	SEGMENT
_kStream$ = 8						; size = 4
_eType$ = 12						; size = 4
?Write@CvInfosSerializationHelper@@YA_NAAVFDataStream@@W4SpecialUnitTypes@@@Z PROC ; CvInfosSerializationHelper::Write, COMDAT

; 245  : IMPLEMENT_SERIALIZATION_INFO_TYPE_HELPER(SpecialUnitTypes, getSpecialUnitInfo, NO_SPECIALUNIT);

	push	ebp
	mov	ebp, esp
	cmp	DWORD PTR _eType$[ebp], -1
	je	SHORT $LN2@Write@14
	mov	eax, DWORD PTR _eType$[ebp]
	push	eax
	mov	ecx, OFFSET ?gGlobals@@3VCvGlobals@@A	; gGlobals
	call	?getSpecialUnitInfo@CvGlobals@@QAEPAVCvSpecialUnitInfo@@W4SpecialUnitTypes@@@Z ; CvGlobals::getSpecialUnitInfo
	push	eax
	mov	ecx, DWORD PTR _kStream$[ebp]
	push	ecx
	call	?Write@CvInfosSerializationHelper@@YA_NAAVFDataStream@@PBVCvBaseInfo@@@Z ; CvInfosSerializationHelper::Write
	add	esp, 8
	jmp	SHORT $LN3@Write@14
	jmp	SHORT $LN3@Write@14
$LN2@Write@14:
	push	0
	mov	edx, DWORD PTR _kStream$[ebp]
	push	edx
	call	?Write@CvInfosSerializationHelper@@YA_NAAVFDataStream@@PBVCvBaseInfo@@@Z ; CvInfosSerializationHelper::Write
	add	esp, 8
$LN3@Write@14:
	pop	ebp
	ret	0
?Write@CvInfosSerializationHelper@@YA_NAAVFDataStream@@W4SpecialUnitTypes@@@Z ENDP ; CvInfosSerializationHelper::Write
_TEXT	ENDS
PUBLIC	?WriteHashed@CvInfosSerializationHelper@@YA_NAAVFDataStream@@W4SpecialUnitTypes@@@Z ; CvInfosSerializationHelper::WriteHashed
; Function compile flags: /Odtp
;	COMDAT ?WriteHashed@CvInfosSerializationHelper@@YA_NAAVFDataStream@@W4SpecialUnitTypes@@@Z
_TEXT	SEGMENT
_kStream$ = 8						; size = 4
_eType$ = 12						; size = 4
?WriteHashed@CvInfosSerializationHelper@@YA_NAAVFDataStream@@W4SpecialUnitTypes@@@Z PROC ; CvInfosSerializationHelper::WriteHashed, COMDAT

; 245  : IMPLEMENT_SERIALIZATION_INFO_TYPE_HELPER(SpecialUnitTypes, getSpecialUnitInfo, NO_SPECIALUNIT);

	push	ebp
	mov	ebp, esp
	cmp	DWORD PTR _eType$[ebp], -1
	je	SHORT $LN2@WriteHashe@14
	mov	eax, DWORD PTR _eType$[ebp]
	push	eax
	mov	ecx, OFFSET ?gGlobals@@3VCvGlobals@@A	; gGlobals
	call	?getSpecialUnitInfo@CvGlobals@@QAEPAVCvSpecialUnitInfo@@W4SpecialUnitTypes@@@Z ; CvGlobals::getSpecialUnitInfo
	push	eax
	mov	ecx, DWORD PTR _kStream$[ebp]
	push	ecx
	call	?WriteHashed@CvInfosSerializationHelper@@YA_NAAVFDataStream@@PBVCvBaseInfo@@@Z ; CvInfosSerializationHelper::WriteHashed
	add	esp, 8
	jmp	SHORT $LN3@WriteHashe@14
	jmp	SHORT $LN3@WriteHashe@14
$LN2@WriteHashe@14:
	push	0
	mov	edx, DWORD PTR _kStream$[ebp]
	push	edx
	call	?WriteHashed@CvInfosSerializationHelper@@YA_NAAVFDataStream@@PBVCvBaseInfo@@@Z ; CvInfosSerializationHelper::WriteHashed
	add	esp, 8
$LN3@WriteHashe@14:
	pop	ebp
	ret	0
?WriteHashed@CvInfosSerializationHelper@@YA_NAAVFDataStream@@W4SpecialUnitTypes@@@Z ENDP ; CvInfosSerializationHelper::WriteHashed
_TEXT	ENDS
PUBLIC	?Write@CvInfosSerializationHelper@@YA_NAAVFDataStream@@W4VictoryTypes@@@Z ; CvInfosSerializationHelper::Write
EXTRN	?getVictoryInfo@CvGlobals@@QAEPAVCvVictoryInfo@@W4VictoryTypes@@@Z:PROC ; CvGlobals::getVictoryInfo
; Function compile flags: /Odtp
;	COMDAT ?Write@CvInfosSerializationHelper@@YA_NAAVFDataStream@@W4VictoryTypes@@@Z
_TEXT	SEGMENT
_kStream$ = 8						; size = 4
_eType$ = 12						; size = 4
?Write@CvInfosSerializationHelper@@YA_NAAVFDataStream@@W4VictoryTypes@@@Z PROC ; CvInfosSerializationHelper::Write, COMDAT

; 246  : IMPLEMENT_SERIALIZATION_INFO_TYPE_HELPER(VictoryTypes, getVictoryInfo, NO_VICTORY);

	push	ebp
	mov	ebp, esp
	cmp	DWORD PTR _eType$[ebp], -1
	je	SHORT $LN2@Write@15
	mov	eax, DWORD PTR _eType$[ebp]
	push	eax
	mov	ecx, OFFSET ?gGlobals@@3VCvGlobals@@A	; gGlobals
	call	?getVictoryInfo@CvGlobals@@QAEPAVCvVictoryInfo@@W4VictoryTypes@@@Z ; CvGlobals::getVictoryInfo
	push	eax
	mov	ecx, DWORD PTR _kStream$[ebp]
	push	ecx
	call	?Write@CvInfosSerializationHelper@@YA_NAAVFDataStream@@PBVCvBaseInfo@@@Z ; CvInfosSerializationHelper::Write
	add	esp, 8
	jmp	SHORT $LN3@Write@15
	jmp	SHORT $LN3@Write@15
$LN2@Write@15:
	push	0
	mov	edx, DWORD PTR _kStream$[ebp]
	push	edx
	call	?Write@CvInfosSerializationHelper@@YA_NAAVFDataStream@@PBVCvBaseInfo@@@Z ; CvInfosSerializationHelper::Write
	add	esp, 8
$LN3@Write@15:
	pop	ebp
	ret	0
?Write@CvInfosSerializationHelper@@YA_NAAVFDataStream@@W4VictoryTypes@@@Z ENDP ; CvInfosSerializationHelper::Write
_TEXT	ENDS
PUBLIC	?WriteHashed@CvInfosSerializationHelper@@YA_NAAVFDataStream@@W4VictoryTypes@@@Z ; CvInfosSerializationHelper::WriteHashed
; Function compile flags: /Odtp
;	COMDAT ?WriteHashed@CvInfosSerializationHelper@@YA_NAAVFDataStream@@W4VictoryTypes@@@Z
_TEXT	SEGMENT
_kStream$ = 8						; size = 4
_eType$ = 12						; size = 4
?WriteHashed@CvInfosSerializationHelper@@YA_NAAVFDataStream@@W4VictoryTypes@@@Z PROC ; CvInfosSerializationHelper::WriteHashed, COMDAT

; 246  : IMPLEMENT_SERIALIZATION_INFO_TYPE_HELPER(VictoryTypes, getVictoryInfo, NO_VICTORY);

	push	ebp
	mov	ebp, esp
	cmp	DWORD PTR _eType$[ebp], -1
	je	SHORT $LN2@WriteHashe@15
	mov	eax, DWORD PTR _eType$[ebp]
	push	eax
	mov	ecx, OFFSET ?gGlobals@@3VCvGlobals@@A	; gGlobals
	call	?getVictoryInfo@CvGlobals@@QAEPAVCvVictoryInfo@@W4VictoryTypes@@@Z ; CvGlobals::getVictoryInfo
	push	eax
	mov	ecx, DWORD PTR _kStream$[ebp]
	push	ecx
	call	?WriteHashed@CvInfosSerializationHelper@@YA_NAAVFDataStream@@PBVCvBaseInfo@@@Z ; CvInfosSerializationHelper::WriteHashed
	add	esp, 8
	jmp	SHORT $LN3@WriteHashe@15
	jmp	SHORT $LN3@WriteHashe@15
$LN2@WriteHashe@15:
	push	0
	mov	edx, DWORD PTR _kStream$[ebp]
	push	edx
	call	?WriteHashed@CvInfosSerializationHelper@@YA_NAAVFDataStream@@PBVCvBaseInfo@@@Z ; CvInfosSerializationHelper::WriteHashed
	add	esp, 8
$LN3@WriteHashe@15:
	pop	ebp
	ret	0
?WriteHashed@CvInfosSerializationHelper@@YA_NAAVFDataStream@@W4VictoryTypes@@@Z ENDP ; CvInfosSerializationHelper::WriteHashed
_TEXT	ENDS
PUBLIC	?Write@CvInfosSerializationHelper@@YA_NAAVFDataStream@@W4BuildingTypes@@@Z ; CvInfosSerializationHelper::Write
EXTRN	?getBuildingInfo@CvGlobals@@QAEPAVCvBuildingEntry@@W4BuildingTypes@@@Z:PROC ; CvGlobals::getBuildingInfo
; Function compile flags: /Odtp
;	COMDAT ?Write@CvInfosSerializationHelper@@YA_NAAVFDataStream@@W4BuildingTypes@@@Z
_TEXT	SEGMENT
_kStream$ = 8						; size = 4
_eType$ = 12						; size = 4
?Write@CvInfosSerializationHelper@@YA_NAAVFDataStream@@W4BuildingTypes@@@Z PROC ; CvInfosSerializationHelper::Write, COMDAT

; 247  : IMPLEMENT_SERIALIZATION_INFO_TYPE_HELPER(BuildingTypes, getBuildingInfo, NO_BUILDING);

	push	ebp
	mov	ebp, esp
	cmp	DWORD PTR _eType$[ebp], -1
	je	SHORT $LN2@Write@16
	mov	eax, DWORD PTR _eType$[ebp]
	push	eax
	mov	ecx, OFFSET ?gGlobals@@3VCvGlobals@@A	; gGlobals
	call	?getBuildingInfo@CvGlobals@@QAEPAVCvBuildingEntry@@W4BuildingTypes@@@Z ; CvGlobals::getBuildingInfo
	push	eax
	mov	ecx, DWORD PTR _kStream$[ebp]
	push	ecx
	call	?Write@CvInfosSerializationHelper@@YA_NAAVFDataStream@@PBVCvBaseInfo@@@Z ; CvInfosSerializationHelper::Write
	add	esp, 8
	jmp	SHORT $LN3@Write@16
	jmp	SHORT $LN3@Write@16
$LN2@Write@16:
	push	0
	mov	edx, DWORD PTR _kStream$[ebp]
	push	edx
	call	?Write@CvInfosSerializationHelper@@YA_NAAVFDataStream@@PBVCvBaseInfo@@@Z ; CvInfosSerializationHelper::Write
	add	esp, 8
$LN3@Write@16:
	pop	ebp
	ret	0
?Write@CvInfosSerializationHelper@@YA_NAAVFDataStream@@W4BuildingTypes@@@Z ENDP ; CvInfosSerializationHelper::Write
_TEXT	ENDS
PUBLIC	?WriteHashed@CvInfosSerializationHelper@@YA_NAAVFDataStream@@W4BuildingTypes@@@Z ; CvInfosSerializationHelper::WriteHashed
; Function compile flags: /Odtp
;	COMDAT ?WriteHashed@CvInfosSerializationHelper@@YA_NAAVFDataStream@@W4BuildingTypes@@@Z
_TEXT	SEGMENT
_kStream$ = 8						; size = 4
_eType$ = 12						; size = 4
?WriteHashed@CvInfosSerializationHelper@@YA_NAAVFDataStream@@W4BuildingTypes@@@Z PROC ; CvInfosSerializationHelper::WriteHashed, COMDAT

; 247  : IMPLEMENT_SERIALIZATION_INFO_TYPE_HELPER(BuildingTypes, getBuildingInfo, NO_BUILDING);

	push	ebp
	mov	ebp, esp
	cmp	DWORD PTR _eType$[ebp], -1
	je	SHORT $LN2@WriteHashe@16
	mov	eax, DWORD PTR _eType$[ebp]
	push	eax
	mov	ecx, OFFSET ?gGlobals@@3VCvGlobals@@A	; gGlobals
	call	?getBuildingInfo@CvGlobals@@QAEPAVCvBuildingEntry@@W4BuildingTypes@@@Z ; CvGlobals::getBuildingInfo
	push	eax
	mov	ecx, DWORD PTR _kStream$[ebp]
	push	ecx
	call	?WriteHashed@CvInfosSerializationHelper@@YA_NAAVFDataStream@@PBVCvBaseInfo@@@Z ; CvInfosSerializationHelper::WriteHashed
	add	esp, 8
	jmp	SHORT $LN3@WriteHashe@16
	jmp	SHORT $LN3@WriteHashe@16
$LN2@WriteHashe@16:
	push	0
	mov	edx, DWORD PTR _kStream$[ebp]
	push	edx
	call	?WriteHashed@CvInfosSerializationHelper@@YA_NAAVFDataStream@@PBVCvBaseInfo@@@Z ; CvInfosSerializationHelper::WriteHashed
	add	esp, 8
$LN3@WriteHashe@16:
	pop	ebp
	ret	0
?WriteHashed@CvInfosSerializationHelper@@YA_NAAVFDataStream@@W4BuildingTypes@@@Z ENDP ; CvInfosSerializationHelper::WriteHashed
_TEXT	ENDS
PUBLIC	?Write@CvInfosSerializationHelper@@YA_NAAVFDataStream@@W4PromotionTypes@@@Z ; CvInfosSerializationHelper::Write
EXTRN	?getPromotionInfo@CvGlobals@@QAEPAVCvPromotionEntry@@W4PromotionTypes@@@Z:PROC ; CvGlobals::getPromotionInfo
; Function compile flags: /Odtp
;	COMDAT ?Write@CvInfosSerializationHelper@@YA_NAAVFDataStream@@W4PromotionTypes@@@Z
_TEXT	SEGMENT
_kStream$ = 8						; size = 4
_eType$ = 12						; size = 4
?Write@CvInfosSerializationHelper@@YA_NAAVFDataStream@@W4PromotionTypes@@@Z PROC ; CvInfosSerializationHelper::Write, COMDAT

; 248  : IMPLEMENT_SERIALIZATION_INFO_TYPE_HELPER(PromotionTypes, getPromotionInfo, NO_PROMOTION);

	push	ebp
	mov	ebp, esp
	cmp	DWORD PTR _eType$[ebp], -1
	je	SHORT $LN2@Write@17
	mov	eax, DWORD PTR _eType$[ebp]
	push	eax
	mov	ecx, OFFSET ?gGlobals@@3VCvGlobals@@A	; gGlobals
	call	?getPromotionInfo@CvGlobals@@QAEPAVCvPromotionEntry@@W4PromotionTypes@@@Z ; CvGlobals::getPromotionInfo
	push	eax
	mov	ecx, DWORD PTR _kStream$[ebp]
	push	ecx
	call	?Write@CvInfosSerializationHelper@@YA_NAAVFDataStream@@PBVCvBaseInfo@@@Z ; CvInfosSerializationHelper::Write
	add	esp, 8
	jmp	SHORT $LN3@Write@17
	jmp	SHORT $LN3@Write@17
$LN2@Write@17:
	push	0
	mov	edx, DWORD PTR _kStream$[ebp]
	push	edx
	call	?Write@CvInfosSerializationHelper@@YA_NAAVFDataStream@@PBVCvBaseInfo@@@Z ; CvInfosSerializationHelper::Write
	add	esp, 8
$LN3@Write@17:
	pop	ebp
	ret	0
?Write@CvInfosSerializationHelper@@YA_NAAVFDataStream@@W4PromotionTypes@@@Z ENDP ; CvInfosSerializationHelper::Write
_TEXT	ENDS
PUBLIC	?WriteHashed@CvInfosSerializationHelper@@YA_NAAVFDataStream@@W4PromotionTypes@@@Z ; CvInfosSerializationHelper::WriteHashed
; Function compile flags: /Odtp
;	COMDAT ?WriteHashed@CvInfosSerializationHelper@@YA_NAAVFDataStream@@W4PromotionTypes@@@Z
_TEXT	SEGMENT
_kStream$ = 8						; size = 4
_eType$ = 12						; size = 4
?WriteHashed@CvInfosSerializationHelper@@YA_NAAVFDataStream@@W4PromotionTypes@@@Z PROC ; CvInfosSerializationHelper::WriteHashed, COMDAT

; 248  : IMPLEMENT_SERIALIZATION_INFO_TYPE_HELPER(PromotionTypes, getPromotionInfo, NO_PROMOTION);

	push	ebp
	mov	ebp, esp
	cmp	DWORD PTR _eType$[ebp], -1
	je	SHORT $LN2@WriteHashe@17
	mov	eax, DWORD PTR _eType$[ebp]
	push	eax
	mov	ecx, OFFSET ?gGlobals@@3VCvGlobals@@A	; gGlobals
	call	?getPromotionInfo@CvGlobals@@QAEPAVCvPromotionEntry@@W4PromotionTypes@@@Z ; CvGlobals::getPromotionInfo
	push	eax
	mov	ecx, DWORD PTR _kStream$[ebp]
	push	ecx
	call	?WriteHashed@CvInfosSerializationHelper@@YA_NAAVFDataStream@@PBVCvBaseInfo@@@Z ; CvInfosSerializationHelper::WriteHashed
	add	esp, 8
	jmp	SHORT $LN3@WriteHashe@17
	jmp	SHORT $LN3@WriteHashe@17
$LN2@WriteHashe@17:
	push	0
	mov	edx, DWORD PTR _kStream$[ebp]
	push	edx
	call	?WriteHashed@CvInfosSerializationHelper@@YA_NAAVFDataStream@@PBVCvBaseInfo@@@Z ; CvInfosSerializationHelper::WriteHashed
	add	esp, 8
$LN3@WriteHashe@17:
	pop	ebp
	ret	0
?WriteHashed@CvInfosSerializationHelper@@YA_NAAVFDataStream@@W4PromotionTypes@@@Z ENDP ; CvInfosSerializationHelper::WriteHashed
_TEXT	ENDS
PUBLIC	?Write@CvInfosSerializationHelper@@YA_NAAVFDataStream@@W4UnitTypes@@@Z ; CvInfosSerializationHelper::Write
EXTRN	?getUnitInfo@CvGlobals@@QAEPAVCvUnitEntry@@W4UnitTypes@@@Z:PROC ; CvGlobals::getUnitInfo
; Function compile flags: /Odtp
;	COMDAT ?Write@CvInfosSerializationHelper@@YA_NAAVFDataStream@@W4UnitTypes@@@Z
_TEXT	SEGMENT
_kStream$ = 8						; size = 4
_eType$ = 12						; size = 4
?Write@CvInfosSerializationHelper@@YA_NAAVFDataStream@@W4UnitTypes@@@Z PROC ; CvInfosSerializationHelper::Write, COMDAT

; 249  : IMPLEMENT_SERIALIZATION_INFO_TYPE_HELPER(UnitTypes, getUnitInfo, NO_UNIT);

	push	ebp
	mov	ebp, esp
	cmp	DWORD PTR _eType$[ebp], -1
	je	SHORT $LN2@Write@18
	mov	eax, DWORD PTR _eType$[ebp]
	push	eax
	mov	ecx, OFFSET ?gGlobals@@3VCvGlobals@@A	; gGlobals
	call	?getUnitInfo@CvGlobals@@QAEPAVCvUnitEntry@@W4UnitTypes@@@Z ; CvGlobals::getUnitInfo
	push	eax
	mov	ecx, DWORD PTR _kStream$[ebp]
	push	ecx
	call	?Write@CvInfosSerializationHelper@@YA_NAAVFDataStream@@PBVCvBaseInfo@@@Z ; CvInfosSerializationHelper::Write
	add	esp, 8
	jmp	SHORT $LN3@Write@18
	jmp	SHORT $LN3@Write@18
$LN2@Write@18:
	push	0
	mov	edx, DWORD PTR _kStream$[ebp]
	push	edx
	call	?Write@CvInfosSerializationHelper@@YA_NAAVFDataStream@@PBVCvBaseInfo@@@Z ; CvInfosSerializationHelper::Write
	add	esp, 8
$LN3@Write@18:
	pop	ebp
	ret	0
?Write@CvInfosSerializationHelper@@YA_NAAVFDataStream@@W4UnitTypes@@@Z ENDP ; CvInfosSerializationHelper::Write
_TEXT	ENDS
PUBLIC	?WriteHashed@CvInfosSerializationHelper@@YA_NAAVFDataStream@@W4UnitTypes@@@Z ; CvInfosSerializationHelper::WriteHashed
; Function compile flags: /Odtp
;	COMDAT ?WriteHashed@CvInfosSerializationHelper@@YA_NAAVFDataStream@@W4UnitTypes@@@Z
_TEXT	SEGMENT
_kStream$ = 8						; size = 4
_eType$ = 12						; size = 4
?WriteHashed@CvInfosSerializationHelper@@YA_NAAVFDataStream@@W4UnitTypes@@@Z PROC ; CvInfosSerializationHelper::WriteHashed, COMDAT

; 249  : IMPLEMENT_SERIALIZATION_INFO_TYPE_HELPER(UnitTypes, getUnitInfo, NO_UNIT);

	push	ebp
	mov	ebp, esp
	cmp	DWORD PTR _eType$[ebp], -1
	je	SHORT $LN2@WriteHashe@18
	mov	eax, DWORD PTR _eType$[ebp]
	push	eax
	mov	ecx, OFFSET ?gGlobals@@3VCvGlobals@@A	; gGlobals
	call	?getUnitInfo@CvGlobals@@QAEPAVCvUnitEntry@@W4UnitTypes@@@Z ; CvGlobals::getUnitInfo
	push	eax
	mov	ecx, DWORD PTR _kStream$[ebp]
	push	ecx
	call	?WriteHashed@CvInfosSerializationHelper@@YA_NAAVFDataStream@@PBVCvBaseInfo@@@Z ; CvInfosSerializationHelper::WriteHashed
	add	esp, 8
	jmp	SHORT $LN3@WriteHashe@18
	jmp	SHORT $LN3@WriteHashe@18
$LN2@WriteHashe@18:
	push	0
	mov	edx, DWORD PTR _kStream$[ebp]
	push	edx
	call	?WriteHashed@CvInfosSerializationHelper@@YA_NAAVFDataStream@@PBVCvBaseInfo@@@Z ; CvInfosSerializationHelper::WriteHashed
	add	esp, 8
$LN3@WriteHashe@18:
	pop	ebp
	ret	0
?WriteHashed@CvInfosSerializationHelper@@YA_NAAVFDataStream@@W4UnitTypes@@@Z ENDP ; CvInfosSerializationHelper::WriteHashed
_TEXT	ENDS
PUBLIC	?Write@CvInfosSerializationHelper@@YA_NAAVFDataStream@@W4FeatureTypes@@@Z ; CvInfosSerializationHelper::Write
EXTRN	?getFeatureInfo@CvGlobals@@QAEPAVCvFeatureInfo@@W4FeatureTypes@@@Z:PROC ; CvGlobals::getFeatureInfo
; Function compile flags: /Odtp
;	COMDAT ?Write@CvInfosSerializationHelper@@YA_NAAVFDataStream@@W4FeatureTypes@@@Z
_TEXT	SEGMENT
_kStream$ = 8						; size = 4
_eType$ = 12						; size = 4
?Write@CvInfosSerializationHelper@@YA_NAAVFDataStream@@W4FeatureTypes@@@Z PROC ; CvInfosSerializationHelper::Write, COMDAT

; 250  : IMPLEMENT_SERIALIZATION_INFO_TYPE_HELPER(FeatureTypes, getFeatureInfo, NO_FEATURE);

	push	ebp
	mov	ebp, esp
	cmp	DWORD PTR _eType$[ebp], -1
	je	SHORT $LN2@Write@19
	mov	eax, DWORD PTR _eType$[ebp]
	push	eax
	mov	ecx, OFFSET ?gGlobals@@3VCvGlobals@@A	; gGlobals
	call	?getFeatureInfo@CvGlobals@@QAEPAVCvFeatureInfo@@W4FeatureTypes@@@Z ; CvGlobals::getFeatureInfo
	push	eax
	mov	ecx, DWORD PTR _kStream$[ebp]
	push	ecx
	call	?Write@CvInfosSerializationHelper@@YA_NAAVFDataStream@@PBVCvBaseInfo@@@Z ; CvInfosSerializationHelper::Write
	add	esp, 8
	jmp	SHORT $LN3@Write@19
	jmp	SHORT $LN3@Write@19
$LN2@Write@19:
	push	0
	mov	edx, DWORD PTR _kStream$[ebp]
	push	edx
	call	?Write@CvInfosSerializationHelper@@YA_NAAVFDataStream@@PBVCvBaseInfo@@@Z ; CvInfosSerializationHelper::Write
	add	esp, 8
$LN3@Write@19:
	pop	ebp
	ret	0
?Write@CvInfosSerializationHelper@@YA_NAAVFDataStream@@W4FeatureTypes@@@Z ENDP ; CvInfosSerializationHelper::Write
_TEXT	ENDS
PUBLIC	?WriteHashed@CvInfosSerializationHelper@@YA_NAAVFDataStream@@W4FeatureTypes@@@Z ; CvInfosSerializationHelper::WriteHashed
; Function compile flags: /Odtp
;	COMDAT ?WriteHashed@CvInfosSerializationHelper@@YA_NAAVFDataStream@@W4FeatureTypes@@@Z
_TEXT	SEGMENT
_kStream$ = 8						; size = 4
_eType$ = 12						; size = 4
?WriteHashed@CvInfosSerializationHelper@@YA_NAAVFDataStream@@W4FeatureTypes@@@Z PROC ; CvInfosSerializationHelper::WriteHashed, COMDAT

; 250  : IMPLEMENT_SERIALIZATION_INFO_TYPE_HELPER(FeatureTypes, getFeatureInfo, NO_FEATURE);

	push	ebp
	mov	ebp, esp
	cmp	DWORD PTR _eType$[ebp], -1
	je	SHORT $LN2@WriteHashe@19
	mov	eax, DWORD PTR _eType$[ebp]
	push	eax
	mov	ecx, OFFSET ?gGlobals@@3VCvGlobals@@A	; gGlobals
	call	?getFeatureInfo@CvGlobals@@QAEPAVCvFeatureInfo@@W4FeatureTypes@@@Z ; CvGlobals::getFeatureInfo
	push	eax
	mov	ecx, DWORD PTR _kStream$[ebp]
	push	ecx
	call	?WriteHashed@CvInfosSerializationHelper@@YA_NAAVFDataStream@@PBVCvBaseInfo@@@Z ; CvInfosSerializationHelper::WriteHashed
	add	esp, 8
	jmp	SHORT $LN3@WriteHashe@19
	jmp	SHORT $LN3@WriteHashe@19
$LN2@WriteHashe@19:
	push	0
	mov	edx, DWORD PTR _kStream$[ebp]
	push	edx
	call	?WriteHashed@CvInfosSerializationHelper@@YA_NAAVFDataStream@@PBVCvBaseInfo@@@Z ; CvInfosSerializationHelper::WriteHashed
	add	esp, 8
$LN3@WriteHashe@19:
	pop	ebp
	ret	0
?WriteHashed@CvInfosSerializationHelper@@YA_NAAVFDataStream@@W4FeatureTypes@@@Z ENDP ; CvInfosSerializationHelper::WriteHashed
_TEXT	ENDS
PUBLIC	?Write@CvInfosSerializationHelper@@YA_NAAVFDataStream@@W4TerrainTypes@@@Z ; CvInfosSerializationHelper::Write
EXTRN	?getTerrainInfo@CvGlobals@@QAEPAVCvTerrainInfo@@W4TerrainTypes@@@Z:PROC ; CvGlobals::getTerrainInfo
; Function compile flags: /Odtp
;	COMDAT ?Write@CvInfosSerializationHelper@@YA_NAAVFDataStream@@W4TerrainTypes@@@Z
_TEXT	SEGMENT
_kStream$ = 8						; size = 4
_eType$ = 12						; size = 4
?Write@CvInfosSerializationHelper@@YA_NAAVFDataStream@@W4TerrainTypes@@@Z PROC ; CvInfosSerializationHelper::Write, COMDAT

; 251  : IMPLEMENT_SERIALIZATION_INFO_TYPE_HELPER(TerrainTypes, getTerrainInfo, NO_TERRAIN);

	push	ebp
	mov	ebp, esp
	cmp	DWORD PTR _eType$[ebp], -1
	je	SHORT $LN2@Write@20
	mov	eax, DWORD PTR _eType$[ebp]
	push	eax
	mov	ecx, OFFSET ?gGlobals@@3VCvGlobals@@A	; gGlobals
	call	?getTerrainInfo@CvGlobals@@QAEPAVCvTerrainInfo@@W4TerrainTypes@@@Z ; CvGlobals::getTerrainInfo
	push	eax
	mov	ecx, DWORD PTR _kStream$[ebp]
	push	ecx
	call	?Write@CvInfosSerializationHelper@@YA_NAAVFDataStream@@PBVCvBaseInfo@@@Z ; CvInfosSerializationHelper::Write
	add	esp, 8
	jmp	SHORT $LN3@Write@20
	jmp	SHORT $LN3@Write@20
$LN2@Write@20:
	push	0
	mov	edx, DWORD PTR _kStream$[ebp]
	push	edx
	call	?Write@CvInfosSerializationHelper@@YA_NAAVFDataStream@@PBVCvBaseInfo@@@Z ; CvInfosSerializationHelper::Write
	add	esp, 8
$LN3@Write@20:
	pop	ebp
	ret	0
?Write@CvInfosSerializationHelper@@YA_NAAVFDataStream@@W4TerrainTypes@@@Z ENDP ; CvInfosSerializationHelper::Write
_TEXT	ENDS
PUBLIC	?WriteHashed@CvInfosSerializationHelper@@YA_NAAVFDataStream@@W4TerrainTypes@@@Z ; CvInfosSerializationHelper::WriteHashed
; Function compile flags: /Odtp
;	COMDAT ?WriteHashed@CvInfosSerializationHelper@@YA_NAAVFDataStream@@W4TerrainTypes@@@Z
_TEXT	SEGMENT
_kStream$ = 8						; size = 4
_eType$ = 12						; size = 4
?WriteHashed@CvInfosSerializationHelper@@YA_NAAVFDataStream@@W4TerrainTypes@@@Z PROC ; CvInfosSerializationHelper::WriteHashed, COMDAT

; 251  : IMPLEMENT_SERIALIZATION_INFO_TYPE_HELPER(TerrainTypes, getTerrainInfo, NO_TERRAIN);

	push	ebp
	mov	ebp, esp
	cmp	DWORD PTR _eType$[ebp], -1
	je	SHORT $LN2@WriteHashe@20
	mov	eax, DWORD PTR _eType$[ebp]
	push	eax
	mov	ecx, OFFSET ?gGlobals@@3VCvGlobals@@A	; gGlobals
	call	?getTerrainInfo@CvGlobals@@QAEPAVCvTerrainInfo@@W4TerrainTypes@@@Z ; CvGlobals::getTerrainInfo
	push	eax
	mov	ecx, DWORD PTR _kStream$[ebp]
	push	ecx
	call	?WriteHashed@CvInfosSerializationHelper@@YA_NAAVFDataStream@@PBVCvBaseInfo@@@Z ; CvInfosSerializationHelper::WriteHashed
	add	esp, 8
	jmp	SHORT $LN3@WriteHashe@20
	jmp	SHORT $LN3@WriteHashe@20
$LN2@WriteHashe@20:
	push	0
	mov	edx, DWORD PTR _kStream$[ebp]
	push	edx
	call	?WriteHashed@CvInfosSerializationHelper@@YA_NAAVFDataStream@@PBVCvBaseInfo@@@Z ; CvInfosSerializationHelper::WriteHashed
	add	esp, 8
$LN3@WriteHashe@20:
	pop	ebp
	ret	0
?WriteHashed@CvInfosSerializationHelper@@YA_NAAVFDataStream@@W4TerrainTypes@@@Z ENDP ; CvInfosSerializationHelper::WriteHashed
_TEXT	ENDS
PUBLIC	?Write@CvInfosSerializationHelper@@YA_NAAVFDataStream@@W4AICityStrategyTypes@@@Z ; CvInfosSerializationHelper::Write
EXTRN	?getAICityStrategyInfo@CvGlobals@@QAEPAVCvAICityStrategyEntry@@W4AICityStrategyTypes@@@Z:PROC ; CvGlobals::getAICityStrategyInfo
; Function compile flags: /Odtp
;	COMDAT ?Write@CvInfosSerializationHelper@@YA_NAAVFDataStream@@W4AICityStrategyTypes@@@Z
_TEXT	SEGMENT
_kStream$ = 8						; size = 4
_eType$ = 12						; size = 4
?Write@CvInfosSerializationHelper@@YA_NAAVFDataStream@@W4AICityStrategyTypes@@@Z PROC ; CvInfosSerializationHelper::Write, COMDAT

; 252  : IMPLEMENT_SERIALIZATION_INFO_TYPE_HELPER(AICityStrategyTypes, getAICityStrategyInfo, NO_AICITYSTRATEGY);

	push	ebp
	mov	ebp, esp
	cmp	DWORD PTR _eType$[ebp], -1
	je	SHORT $LN2@Write@21
	mov	eax, DWORD PTR _eType$[ebp]
	push	eax
	mov	ecx, OFFSET ?gGlobals@@3VCvGlobals@@A	; gGlobals
	call	?getAICityStrategyInfo@CvGlobals@@QAEPAVCvAICityStrategyEntry@@W4AICityStrategyTypes@@@Z ; CvGlobals::getAICityStrategyInfo
	push	eax
	mov	ecx, DWORD PTR _kStream$[ebp]
	push	ecx
	call	?Write@CvInfosSerializationHelper@@YA_NAAVFDataStream@@PBVCvBaseInfo@@@Z ; CvInfosSerializationHelper::Write
	add	esp, 8
	jmp	SHORT $LN3@Write@21
	jmp	SHORT $LN3@Write@21
$LN2@Write@21:
	push	0
	mov	edx, DWORD PTR _kStream$[ebp]
	push	edx
	call	?Write@CvInfosSerializationHelper@@YA_NAAVFDataStream@@PBVCvBaseInfo@@@Z ; CvInfosSerializationHelper::Write
	add	esp, 8
$LN3@Write@21:
	pop	ebp
	ret	0
?Write@CvInfosSerializationHelper@@YA_NAAVFDataStream@@W4AICityStrategyTypes@@@Z ENDP ; CvInfosSerializationHelper::Write
_TEXT	ENDS
PUBLIC	?WriteHashed@CvInfosSerializationHelper@@YA_NAAVFDataStream@@W4AICityStrategyTypes@@@Z ; CvInfosSerializationHelper::WriteHashed
; Function compile flags: /Odtp
;	COMDAT ?WriteHashed@CvInfosSerializationHelper@@YA_NAAVFDataStream@@W4AICityStrategyTypes@@@Z
_TEXT	SEGMENT
_kStream$ = 8						; size = 4
_eType$ = 12						; size = 4
?WriteHashed@CvInfosSerializationHelper@@YA_NAAVFDataStream@@W4AICityStrategyTypes@@@Z PROC ; CvInfosSerializationHelper::WriteHashed, COMDAT

; 252  : IMPLEMENT_SERIALIZATION_INFO_TYPE_HELPER(AICityStrategyTypes, getAICityStrategyInfo, NO_AICITYSTRATEGY);

	push	ebp
	mov	ebp, esp
	cmp	DWORD PTR _eType$[ebp], -1
	je	SHORT $LN2@WriteHashe@21
	mov	eax, DWORD PTR _eType$[ebp]
	push	eax
	mov	ecx, OFFSET ?gGlobals@@3VCvGlobals@@A	; gGlobals
	call	?getAICityStrategyInfo@CvGlobals@@QAEPAVCvAICityStrategyEntry@@W4AICityStrategyTypes@@@Z ; CvGlobals::getAICityStrategyInfo
	push	eax
	mov	ecx, DWORD PTR _kStream$[ebp]
	push	ecx
	call	?WriteHashed@CvInfosSerializationHelper@@YA_NAAVFDataStream@@PBVCvBaseInfo@@@Z ; CvInfosSerializationHelper::WriteHashed
	add	esp, 8
	jmp	SHORT $LN3@WriteHashe@21
	jmp	SHORT $LN3@WriteHashe@21
$LN2@WriteHashe@21:
	push	0
	mov	edx, DWORD PTR _kStream$[ebp]
	push	edx
	call	?WriteHashed@CvInfosSerializationHelper@@YA_NAAVFDataStream@@PBVCvBaseInfo@@@Z ; CvInfosSerializationHelper::WriteHashed
	add	esp, 8
$LN3@WriteHashe@21:
	pop	ebp
	ret	0
?WriteHashed@CvInfosSerializationHelper@@YA_NAAVFDataStream@@W4AICityStrategyTypes@@@Z ENDP ; CvInfosSerializationHelper::WriteHashed
_TEXT	ENDS
PUBLIC	?Write@CvInfosSerializationHelper@@YA_NAAVFDataStream@@W4SmallAwardTypes@@@Z ; CvInfosSerializationHelper::Write
EXTRN	?getSmallAwardInfo@CvGlobals@@QAEPAVCvSmallAwardInfo@@W4SmallAwardTypes@@@Z:PROC ; CvGlobals::getSmallAwardInfo
; Function compile flags: /Odtp
;	COMDAT ?Write@CvInfosSerializationHelper@@YA_NAAVFDataStream@@W4SmallAwardTypes@@@Z
_TEXT	SEGMENT
_kStream$ = 8						; size = 4
_eType$ = 12						; size = 4
?Write@CvInfosSerializationHelper@@YA_NAAVFDataStream@@W4SmallAwardTypes@@@Z PROC ; CvInfosSerializationHelper::Write, COMDAT

; 253  : IMPLEMENT_SERIALIZATION_INFO_TYPE_HELPER(SmallAwardTypes, getSmallAwardInfo, NO_SMALLAWARD);

	push	ebp
	mov	ebp, esp
	cmp	DWORD PTR _eType$[ebp], -1
	je	SHORT $LN2@Write@22
	mov	eax, DWORD PTR _eType$[ebp]
	push	eax
	mov	ecx, OFFSET ?gGlobals@@3VCvGlobals@@A	; gGlobals
	call	?getSmallAwardInfo@CvGlobals@@QAEPAVCvSmallAwardInfo@@W4SmallAwardTypes@@@Z ; CvGlobals::getSmallAwardInfo
	push	eax
	mov	ecx, DWORD PTR _kStream$[ebp]
	push	ecx
	call	?Write@CvInfosSerializationHelper@@YA_NAAVFDataStream@@PBVCvBaseInfo@@@Z ; CvInfosSerializationHelper::Write
	add	esp, 8
	jmp	SHORT $LN3@Write@22
	jmp	SHORT $LN3@Write@22
$LN2@Write@22:
	push	0
	mov	edx, DWORD PTR _kStream$[ebp]
	push	edx
	call	?Write@CvInfosSerializationHelper@@YA_NAAVFDataStream@@PBVCvBaseInfo@@@Z ; CvInfosSerializationHelper::Write
	add	esp, 8
$LN3@Write@22:
	pop	ebp
	ret	0
?Write@CvInfosSerializationHelper@@YA_NAAVFDataStream@@W4SmallAwardTypes@@@Z ENDP ; CvInfosSerializationHelper::Write
_TEXT	ENDS
PUBLIC	?WriteHashed@CvInfosSerializationHelper@@YA_NAAVFDataStream@@W4SmallAwardTypes@@@Z ; CvInfosSerializationHelper::WriteHashed
; Function compile flags: /Odtp
;	COMDAT ?WriteHashed@CvInfosSerializationHelper@@YA_NAAVFDataStream@@W4SmallAwardTypes@@@Z
_TEXT	SEGMENT
_kStream$ = 8						; size = 4
_eType$ = 12						; size = 4
?WriteHashed@CvInfosSerializationHelper@@YA_NAAVFDataStream@@W4SmallAwardTypes@@@Z PROC ; CvInfosSerializationHelper::WriteHashed, COMDAT

; 253  : IMPLEMENT_SERIALIZATION_INFO_TYPE_HELPER(SmallAwardTypes, getSmallAwardInfo, NO_SMALLAWARD);

	push	ebp
	mov	ebp, esp
	cmp	DWORD PTR _eType$[ebp], -1
	je	SHORT $LN2@WriteHashe@22
	mov	eax, DWORD PTR _eType$[ebp]
	push	eax
	mov	ecx, OFFSET ?gGlobals@@3VCvGlobals@@A	; gGlobals
	call	?getSmallAwardInfo@CvGlobals@@QAEPAVCvSmallAwardInfo@@W4SmallAwardTypes@@@Z ; CvGlobals::getSmallAwardInfo
	push	eax
	mov	ecx, DWORD PTR _kStream$[ebp]
	push	ecx
	call	?WriteHashed@CvInfosSerializationHelper@@YA_NAAVFDataStream@@PBVCvBaseInfo@@@Z ; CvInfosSerializationHelper::WriteHashed
	add	esp, 8
	jmp	SHORT $LN3@WriteHashe@22
	jmp	SHORT $LN3@WriteHashe@22
$LN2@WriteHashe@22:
	push	0
	mov	edx, DWORD PTR _kStream$[ebp]
	push	edx
	call	?WriteHashed@CvInfosSerializationHelper@@YA_NAAVFDataStream@@PBVCvBaseInfo@@@Z ; CvInfosSerializationHelper::WriteHashed
	add	esp, 8
$LN3@WriteHashe@22:
	pop	ebp
	ret	0
?WriteHashed@CvInfosSerializationHelper@@YA_NAAVFDataStream@@W4SmallAwardTypes@@@Z ENDP ; CvInfosSerializationHelper::WriteHashed
_TEXT	ENDS
PUBLIC	?Write@CvInfosSerializationHelper@@YA_NAAVFDataStream@@W4RouteTypes@@@Z ; CvInfosSerializationHelper::Write
EXTRN	?getRouteInfo@CvGlobals@@QAEPAVCvRouteInfo@@W4RouteTypes@@@Z:PROC ; CvGlobals::getRouteInfo
; Function compile flags: /Odtp
;	COMDAT ?Write@CvInfosSerializationHelper@@YA_NAAVFDataStream@@W4RouteTypes@@@Z
_TEXT	SEGMENT
_kStream$ = 8						; size = 4
_eType$ = 12						; size = 4
?Write@CvInfosSerializationHelper@@YA_NAAVFDataStream@@W4RouteTypes@@@Z PROC ; CvInfosSerializationHelper::Write, COMDAT

; 254  : IMPLEMENT_SERIALIZATION_INFO_TYPE_HELPER(RouteTypes, getRouteInfo, NO_ROUTE);

	push	ebp
	mov	ebp, esp
	cmp	DWORD PTR _eType$[ebp], -1
	je	SHORT $LN2@Write@23
	mov	eax, DWORD PTR _eType$[ebp]
	push	eax
	mov	ecx, OFFSET ?gGlobals@@3VCvGlobals@@A	; gGlobals
	call	?getRouteInfo@CvGlobals@@QAEPAVCvRouteInfo@@W4RouteTypes@@@Z ; CvGlobals::getRouteInfo
	push	eax
	mov	ecx, DWORD PTR _kStream$[ebp]
	push	ecx
	call	?Write@CvInfosSerializationHelper@@YA_NAAVFDataStream@@PBVCvBaseInfo@@@Z ; CvInfosSerializationHelper::Write
	add	esp, 8
	jmp	SHORT $LN3@Write@23
	jmp	SHORT $LN3@Write@23
$LN2@Write@23:
	push	0
	mov	edx, DWORD PTR _kStream$[ebp]
	push	edx
	call	?Write@CvInfosSerializationHelper@@YA_NAAVFDataStream@@PBVCvBaseInfo@@@Z ; CvInfosSerializationHelper::Write
	add	esp, 8
$LN3@Write@23:
	pop	ebp
	ret	0
?Write@CvInfosSerializationHelper@@YA_NAAVFDataStream@@W4RouteTypes@@@Z ENDP ; CvInfosSerializationHelper::Write
_TEXT	ENDS
PUBLIC	?WriteHashed@CvInfosSerializationHelper@@YA_NAAVFDataStream@@W4RouteTypes@@@Z ; CvInfosSerializationHelper::WriteHashed
; Function compile flags: /Odtp
;	COMDAT ?WriteHashed@CvInfosSerializationHelper@@YA_NAAVFDataStream@@W4RouteTypes@@@Z
_TEXT	SEGMENT
_kStream$ = 8						; size = 4
_eType$ = 12						; size = 4
?WriteHashed@CvInfosSerializationHelper@@YA_NAAVFDataStream@@W4RouteTypes@@@Z PROC ; CvInfosSerializationHelper::WriteHashed, COMDAT

; 254  : IMPLEMENT_SERIALIZATION_INFO_TYPE_HELPER(RouteTypes, getRouteInfo, NO_ROUTE);

	push	ebp
	mov	ebp, esp
	cmp	DWORD PTR _eType$[ebp], -1
	je	SHORT $LN2@WriteHashe@23
	mov	eax, DWORD PTR _eType$[ebp]
	push	eax
	mov	ecx, OFFSET ?gGlobals@@3VCvGlobals@@A	; gGlobals
	call	?getRouteInfo@CvGlobals@@QAEPAVCvRouteInfo@@W4RouteTypes@@@Z ; CvGlobals::getRouteInfo
	push	eax
	mov	ecx, DWORD PTR _kStream$[ebp]
	push	ecx
	call	?WriteHashed@CvInfosSerializationHelper@@YA_NAAVFDataStream@@PBVCvBaseInfo@@@Z ; CvInfosSerializationHelper::WriteHashed
	add	esp, 8
	jmp	SHORT $LN3@WriteHashe@23
	jmp	SHORT $LN3@WriteHashe@23
$LN2@WriteHashe@23:
	push	0
	mov	edx, DWORD PTR _kStream$[ebp]
	push	edx
	call	?WriteHashed@CvInfosSerializationHelper@@YA_NAAVFDataStream@@PBVCvBaseInfo@@@Z ; CvInfosSerializationHelper::WriteHashed
	add	esp, 8
$LN3@WriteHashe@23:
	pop	ebp
	ret	0
?WriteHashed@CvInfosSerializationHelper@@YA_NAAVFDataStream@@W4RouteTypes@@@Z ENDP ; CvInfosSerializationHelper::WriteHashed
_TEXT	ENDS
PUBLIC	?Write@CvInfosSerializationHelper@@YA_NAAVFDataStream@@W4BuildTypes@@@Z ; CvInfosSerializationHelper::Write
EXTRN	?getBuildInfo@CvGlobals@@QAEPAVCvBuildInfo@@W4BuildTypes@@@Z:PROC ; CvGlobals::getBuildInfo
; Function compile flags: /Odtp
;	COMDAT ?Write@CvInfosSerializationHelper@@YA_NAAVFDataStream@@W4BuildTypes@@@Z
_TEXT	SEGMENT
_kStream$ = 8						; size = 4
_eType$ = 12						; size = 4
?Write@CvInfosSerializationHelper@@YA_NAAVFDataStream@@W4BuildTypes@@@Z PROC ; CvInfosSerializationHelper::Write, COMDAT

; 255  : IMPLEMENT_SERIALIZATION_INFO_TYPE_HELPER(BuildTypes, getBuildInfo, NO_BUILD);

	push	ebp
	mov	ebp, esp
	cmp	DWORD PTR _eType$[ebp], -1
	je	SHORT $LN2@Write@24
	mov	eax, DWORD PTR _eType$[ebp]
	push	eax
	mov	ecx, OFFSET ?gGlobals@@3VCvGlobals@@A	; gGlobals
	call	?getBuildInfo@CvGlobals@@QAEPAVCvBuildInfo@@W4BuildTypes@@@Z ; CvGlobals::getBuildInfo
	push	eax
	mov	ecx, DWORD PTR _kStream$[ebp]
	push	ecx
	call	?Write@CvInfosSerializationHelper@@YA_NAAVFDataStream@@PBVCvBaseInfo@@@Z ; CvInfosSerializationHelper::Write
	add	esp, 8
	jmp	SHORT $LN3@Write@24
	jmp	SHORT $LN3@Write@24
$LN2@Write@24:
	push	0
	mov	edx, DWORD PTR _kStream$[ebp]
	push	edx
	call	?Write@CvInfosSerializationHelper@@YA_NAAVFDataStream@@PBVCvBaseInfo@@@Z ; CvInfosSerializationHelper::Write
	add	esp, 8
$LN3@Write@24:
	pop	ebp
	ret	0
?Write@CvInfosSerializationHelper@@YA_NAAVFDataStream@@W4BuildTypes@@@Z ENDP ; CvInfosSerializationHelper::Write
_TEXT	ENDS
PUBLIC	?WriteHashed@CvInfosSerializationHelper@@YA_NAAVFDataStream@@W4BuildTypes@@@Z ; CvInfosSerializationHelper::WriteHashed
; Function compile flags: /Odtp
;	COMDAT ?WriteHashed@CvInfosSerializationHelper@@YA_NAAVFDataStream@@W4BuildTypes@@@Z
_TEXT	SEGMENT
_kStream$ = 8						; size = 4
_eType$ = 12						; size = 4
?WriteHashed@CvInfosSerializationHelper@@YA_NAAVFDataStream@@W4BuildTypes@@@Z PROC ; CvInfosSerializationHelper::WriteHashed, COMDAT

; 255  : IMPLEMENT_SERIALIZATION_INFO_TYPE_HELPER(BuildTypes, getBuildInfo, NO_BUILD);

	push	ebp
	mov	ebp, esp
	cmp	DWORD PTR _eType$[ebp], -1
	je	SHORT $LN2@WriteHashe@24
	mov	eax, DWORD PTR _eType$[ebp]
	push	eax
	mov	ecx, OFFSET ?gGlobals@@3VCvGlobals@@A	; gGlobals
	call	?getBuildInfo@CvGlobals@@QAEPAVCvBuildInfo@@W4BuildTypes@@@Z ; CvGlobals::getBuildInfo
	push	eax
	mov	ecx, DWORD PTR _kStream$[ebp]
	push	ecx
	call	?WriteHashed@CvInfosSerializationHelper@@YA_NAAVFDataStream@@PBVCvBaseInfo@@@Z ; CvInfosSerializationHelper::WriteHashed
	add	esp, 8
	jmp	SHORT $LN3@WriteHashe@24
	jmp	SHORT $LN3@WriteHashe@24
$LN2@WriteHashe@24:
	push	0
	mov	edx, DWORD PTR _kStream$[ebp]
	push	edx
	call	?WriteHashed@CvInfosSerializationHelper@@YA_NAAVFDataStream@@PBVCvBaseInfo@@@Z ; CvInfosSerializationHelper::WriteHashed
	add	esp, 8
$LN3@WriteHashe@24:
	pop	ebp
	ret	0
?WriteHashed@CvInfosSerializationHelper@@YA_NAAVFDataStream@@W4BuildTypes@@@Z ENDP ; CvInfosSerializationHelper::WriteHashed
_TEXT	ENDS
PUBLIC	?Write@CvInfosSerializationHelper@@YA_NAAVFDataStream@@W4ProcessTypes@@@Z ; CvInfosSerializationHelper::Write
EXTRN	?getProcessInfo@CvGlobals@@QAEPAVCvProcessInfo@@W4ProcessTypes@@@Z:PROC ; CvGlobals::getProcessInfo
; Function compile flags: /Odtp
;	COMDAT ?Write@CvInfosSerializationHelper@@YA_NAAVFDataStream@@W4ProcessTypes@@@Z
_TEXT	SEGMENT
_kStream$ = 8						; size = 4
_eType$ = 12						; size = 4
?Write@CvInfosSerializationHelper@@YA_NAAVFDataStream@@W4ProcessTypes@@@Z PROC ; CvInfosSerializationHelper::Write, COMDAT

; 256  : IMPLEMENT_SERIALIZATION_INFO_TYPE_HELPER(ProcessTypes, getProcessInfo, NO_PROCESS);

	push	ebp
	mov	ebp, esp
	cmp	DWORD PTR _eType$[ebp], -1
	je	SHORT $LN2@Write@25
	mov	eax, DWORD PTR _eType$[ebp]
	push	eax
	mov	ecx, OFFSET ?gGlobals@@3VCvGlobals@@A	; gGlobals
	call	?getProcessInfo@CvGlobals@@QAEPAVCvProcessInfo@@W4ProcessTypes@@@Z ; CvGlobals::getProcessInfo
	push	eax
	mov	ecx, DWORD PTR _kStream$[ebp]
	push	ecx
	call	?Write@CvInfosSerializationHelper@@YA_NAAVFDataStream@@PBVCvBaseInfo@@@Z ; CvInfosSerializationHelper::Write
	add	esp, 8
	jmp	SHORT $LN3@Write@25
	jmp	SHORT $LN3@Write@25
$LN2@Write@25:
	push	0
	mov	edx, DWORD PTR _kStream$[ebp]
	push	edx
	call	?Write@CvInfosSerializationHelper@@YA_NAAVFDataStream@@PBVCvBaseInfo@@@Z ; CvInfosSerializationHelper::Write
	add	esp, 8
$LN3@Write@25:
	pop	ebp
	ret	0
?Write@CvInfosSerializationHelper@@YA_NAAVFDataStream@@W4ProcessTypes@@@Z ENDP ; CvInfosSerializationHelper::Write
_TEXT	ENDS
PUBLIC	?WriteHashed@CvInfosSerializationHelper@@YA_NAAVFDataStream@@W4ProcessTypes@@@Z ; CvInfosSerializationHelper::WriteHashed
; Function compile flags: /Odtp
;	COMDAT ?WriteHashed@CvInfosSerializationHelper@@YA_NAAVFDataStream@@W4ProcessTypes@@@Z
_TEXT	SEGMENT
_kStream$ = 8						; size = 4
_eType$ = 12						; size = 4
?WriteHashed@CvInfosSerializationHelper@@YA_NAAVFDataStream@@W4ProcessTypes@@@Z PROC ; CvInfosSerializationHelper::WriteHashed, COMDAT

; 256  : IMPLEMENT_SERIALIZATION_INFO_TYPE_HELPER(ProcessTypes, getProcessInfo, NO_PROCESS);

	push	ebp
	mov	ebp, esp
	cmp	DWORD PTR _eType$[ebp], -1
	je	SHORT $LN2@WriteHashe@25
	mov	eax, DWORD PTR _eType$[ebp]
	push	eax
	mov	ecx, OFFSET ?gGlobals@@3VCvGlobals@@A	; gGlobals
	call	?getProcessInfo@CvGlobals@@QAEPAVCvProcessInfo@@W4ProcessTypes@@@Z ; CvGlobals::getProcessInfo
	push	eax
	mov	ecx, DWORD PTR _kStream$[ebp]
	push	ecx
	call	?WriteHashed@CvInfosSerializationHelper@@YA_NAAVFDataStream@@PBVCvBaseInfo@@@Z ; CvInfosSerializationHelper::WriteHashed
	add	esp, 8
	jmp	SHORT $LN3@WriteHashe@25
	jmp	SHORT $LN3@WriteHashe@25
$LN2@WriteHashe@25:
	push	0
	mov	edx, DWORD PTR _kStream$[ebp]
	push	edx
	call	?WriteHashed@CvInfosSerializationHelper@@YA_NAAVFDataStream@@PBVCvBaseInfo@@@Z ; CvInfosSerializationHelper::WriteHashed
	add	esp, 8
$LN3@WriteHashe@25:
	pop	ebp
	ret	0
?WriteHashed@CvInfosSerializationHelper@@YA_NAAVFDataStream@@W4ProcessTypes@@@Z ENDP ; CvInfosSerializationHelper::WriteHashed
_TEXT	ENDS
PUBLIC	?Write@CvInfosSerializationHelper@@YA_NAAVFDataStream@@W4ImprovementTypes@@@Z ; CvInfosSerializationHelper::Write
EXTRN	?getImprovementInfo@CvGlobals@@QAEPAVCvImprovementEntry@@W4ImprovementTypes@@@Z:PROC ; CvGlobals::getImprovementInfo
; Function compile flags: /Odtp
;	COMDAT ?Write@CvInfosSerializationHelper@@YA_NAAVFDataStream@@W4ImprovementTypes@@@Z
_TEXT	SEGMENT
_kStream$ = 8						; size = 4
_eType$ = 12						; size = 4
?Write@CvInfosSerializationHelper@@YA_NAAVFDataStream@@W4ImprovementTypes@@@Z PROC ; CvInfosSerializationHelper::Write, COMDAT

; 257  : IMPLEMENT_SERIALIZATION_INFO_TYPE_HELPER(ImprovementTypes, getImprovementInfo, NO_IMPROVEMENT);

	push	ebp
	mov	ebp, esp
	cmp	DWORD PTR _eType$[ebp], -1
	je	SHORT $LN2@Write@26
	mov	eax, DWORD PTR _eType$[ebp]
	push	eax
	mov	ecx, OFFSET ?gGlobals@@3VCvGlobals@@A	; gGlobals
	call	?getImprovementInfo@CvGlobals@@QAEPAVCvImprovementEntry@@W4ImprovementTypes@@@Z ; CvGlobals::getImprovementInfo
	push	eax
	mov	ecx, DWORD PTR _kStream$[ebp]
	push	ecx
	call	?Write@CvInfosSerializationHelper@@YA_NAAVFDataStream@@PBVCvBaseInfo@@@Z ; CvInfosSerializationHelper::Write
	add	esp, 8
	jmp	SHORT $LN3@Write@26
	jmp	SHORT $LN3@Write@26
$LN2@Write@26:
	push	0
	mov	edx, DWORD PTR _kStream$[ebp]
	push	edx
	call	?Write@CvInfosSerializationHelper@@YA_NAAVFDataStream@@PBVCvBaseInfo@@@Z ; CvInfosSerializationHelper::Write
	add	esp, 8
$LN3@Write@26:
	pop	ebp
	ret	0
?Write@CvInfosSerializationHelper@@YA_NAAVFDataStream@@W4ImprovementTypes@@@Z ENDP ; CvInfosSerializationHelper::Write
_TEXT	ENDS
PUBLIC	?WriteHashed@CvInfosSerializationHelper@@YA_NAAVFDataStream@@W4ImprovementTypes@@@Z ; CvInfosSerializationHelper::WriteHashed
; Function compile flags: /Odtp
;	COMDAT ?WriteHashed@CvInfosSerializationHelper@@YA_NAAVFDataStream@@W4ImprovementTypes@@@Z
_TEXT	SEGMENT
_kStream$ = 8						; size = 4
_eType$ = 12						; size = 4
?WriteHashed@CvInfosSerializationHelper@@YA_NAAVFDataStream@@W4ImprovementTypes@@@Z PROC ; CvInfosSerializationHelper::WriteHashed, COMDAT

; 257  : IMPLEMENT_SERIALIZATION_INFO_TYPE_HELPER(ImprovementTypes, getImprovementInfo, NO_IMPROVEMENT);

	push	ebp
	mov	ebp, esp
	cmp	DWORD PTR _eType$[ebp], -1
	je	SHORT $LN2@WriteHashe@26
	mov	eax, DWORD PTR _eType$[ebp]
	push	eax
	mov	ecx, OFFSET ?gGlobals@@3VCvGlobals@@A	; gGlobals
	call	?getImprovementInfo@CvGlobals@@QAEPAVCvImprovementEntry@@W4ImprovementTypes@@@Z ; CvGlobals::getImprovementInfo
	push	eax
	mov	ecx, DWORD PTR _kStream$[ebp]
	push	ecx
	call	?WriteHashed@CvInfosSerializationHelper@@YA_NAAVFDataStream@@PBVCvBaseInfo@@@Z ; CvInfosSerializationHelper::WriteHashed
	add	esp, 8
	jmp	SHORT $LN3@WriteHashe@26
	jmp	SHORT $LN3@WriteHashe@26
$LN2@WriteHashe@26:
	push	0
	mov	edx, DWORD PTR _kStream$[ebp]
	push	edx
	call	?WriteHashed@CvInfosSerializationHelper@@YA_NAAVFDataStream@@PBVCvBaseInfo@@@Z ; CvInfosSerializationHelper::WriteHashed
	add	esp, 8
$LN3@WriteHashe@26:
	pop	ebp
	ret	0
?WriteHashed@CvInfosSerializationHelper@@YA_NAAVFDataStream@@W4ImprovementTypes@@@Z ENDP ; CvInfosSerializationHelper::WriteHashed
_TEXT	ENDS
PUBLIC	__$ArrayPad$
EXTRN	?Write@FDataStream@@IAEXABH@Z:PROC		; FDataStream::Write
EXTRN	?Write@FDataStream@@IAEXABVFStringA@@@Z:PROC	; FDataStream::Write
EXTRN	?Copy@FStringA@@QAEXHPBDH@Z:PROC		; FStringA::Copy
;	COMDAT xdata$x
; File d:\sources\lekmod_git\checkout\lekmod_dll\fireplace\include\fireworks\fdatastream.h
xdata$x	SEGMENT
__unwindtable$?Write@CvInfosSerializationHelper@@YA_NAAVFDataStream@@PBVCvBaseInfo@@@Z DD 0ffffffffH
	DD	FLAT:__unwindfunclet$?Write@CvInfosSerializationHelper@@YA_NAAVFDataStream@@PBVCvBaseInfo@@@Z$0
__ehfuncinfo$?Write@CvInfosSerializationHelper@@YA_NAAVFDataStream@@PBVCvBaseInfo@@@Z DD 019930522H
	DD	01H
	DD	FLAT:__unwindtable$?Write@CvInfosSerializationHelper@@YA_NAAVFDataStream@@PBVCvBaseInfo@@@Z
	DD	2 DUP(00H)
	DD	2 DUP(00H)
	DD	00H
	DD	01H
; Function compile flags: /Odtp
; File d:\sources\lekmod_git\checkout\lekmod_dll\cvgamecoredll_expansion2\cvinfosserializationhelper.cpp
xdata$x	ENDS
;	COMDAT ?Write@CvInfosSerializationHelper@@YA_NAAVFDataStream@@PBVCvBaseInfo@@@Z
_TEXT	SEGMENT
tv131 = -356						; size = 4
tv133 = -352						; size = 4
tv71 = -345						; size = 1
tv128 = -344						; size = 4
tv141 = -340						; size = 4
$T218916 = -324						; size = 4
$T218858 = -308						; size = 4
$T218851 = -301						; size = 1
_iLen$218092 = -300					; size = 4
_sTemp$218080 = -296					; size = 4
_FStringFixedBuffer_sTemp$218081 = -292			; size = 268
__$ArrayPad$ = -16					; size = 4
__$EHRec$ = -12						; size = 12
_kStream$ = 8						; size = 4
_pkInfo$ = 12						; size = 4
?Write@CvInfosSerializationHelper@@YA_NAAVFDataStream@@PBVCvBaseInfo@@@Z PROC ; CvInfosSerializationHelper::Write, COMDAT

; 267  : {

	push	ebp
	mov	ebp, esp
	push	-1
	push	__ehhandler$?Write@CvInfosSerializationHelper@@YA_NAAVFDataStream@@PBVCvBaseInfo@@@Z
	mov	eax, DWORD PTR fs:0
	push	eax
	sub	esp, 344				; 00000158H
	mov	eax, DWORD PTR ___security_cookie
	xor	eax, ebp
	mov	DWORD PTR __$ArrayPad$[ebp], eax
	push	eax
	lea	eax, DWORD PTR __$EHRec$[ebp]
	mov	DWORD PTR fs:0, eax

; 268  : 	if(pkInfo)

	cmp	DWORD PTR _pkInfo$[ebp], 0
	je	$LN2@Write@27

; 269  : 	{
; 270  : 		FStringFixedBuffer(sTemp, 256);

	call	?FStringA_GetStringInitData@@YAPAUFStringAData@FStringA@@XZ ; FStringA_GetStringInitData
	mov	DWORD PTR $T218858[ebp], eax
	mov	eax, DWORD PTR $T218858[ebp]
	add	eax, 12					; 0000000cH
	mov	DWORD PTR _sTemp$218080[ebp], eax
	mov	DWORD PTR __$EHRec$[ebp+8], 0
	lea	ecx, DWORD PTR _sTemp$218080[ebp]
	push	ecx
	lea	ecx, DWORD PTR _FStringFixedBuffer_sTemp$218081[ebp]
	call	??0?$FStringAFixedBuffer@$0BAA@@FStringA@@QAE@AAV1@@Z ; FStringA::FStringAFixedBuffer<256>::FStringAFixedBuffer<256>

; 271  : 		sTemp = pkInfo->GetType();

	mov	ecx, DWORD PTR _pkInfo$[ebp]
	add	ecx, 176				; 000000b0H
	call	DWORD PTR __imp_?c_str@?$basic_string@DU?$char_traits@D@std@@V?$allocator@D@2@@std@@QBEPBDXZ
	mov	DWORD PTR $T218916[ebp], eax
	cmp	DWORD PTR $T218916[ebp], 0
	je	SHORT $LN36@Write@27
	mov	edx, DWORD PTR $T218916[ebp]
	mov	DWORD PTR tv141[ebp], edx
	mov	eax, DWORD PTR tv141[ebp]
	add	eax, 1
	mov	DWORD PTR tv128[ebp], eax
$LL55@Write@27:
	mov	ecx, DWORD PTR tv141[ebp]
	mov	dl, BYTE PTR [ecx]
	mov	BYTE PTR tv71[ebp], dl
	add	DWORD PTR tv141[ebp], 1
	cmp	BYTE PTR tv71[ebp], 0
	jne	SHORT $LL55@Write@27
	mov	eax, DWORD PTR tv141[ebp]
	sub	eax, DWORD PTR tv128[ebp]
	mov	DWORD PTR tv133[ebp], eax
	mov	ecx, DWORD PTR tv133[ebp]
	mov	DWORD PTR tv131[ebp], ecx
	jmp	SHORT $LN34@Write@27
$LN36@Write@27:
	mov	DWORD PTR tv131[ebp], 0
$LN34@Write@27:
	push	0
	mov	edx, DWORD PTR $T218916[ebp]
	push	edx
	mov	eax, DWORD PTR tv131[ebp]
	push	eax
	lea	ecx, DWORD PTR _sTemp$218080[ebp]
	call	?Copy@FStringA@@QAEXHPBDH@Z		; FStringA::Copy

; 272  : 		kStream << sTemp;

	lea	ecx, DWORD PTR _sTemp$218080[ebp]
	push	ecx
	mov	ecx, DWORD PTR _kStream$[ebp]
	call	?Write@FDataStream@@IAEXABVFStringA@@@Z	; FDataStream::Write

; 273  : 		return true;

	mov	BYTE PTR $T218851[ebp], 1
	mov	DWORD PTR __$EHRec$[ebp+8], -1
	lea	ecx, DWORD PTR _sTemp$218080[ebp]
	call	?Release@FStringA@@QAEXXZ		; FStringA::Release
	mov	al, BYTE PTR $T218851[ebp]
	jmp	SHORT $LN3@Write@27

; 274  : 	}
; 275  : 	else

	jmp	SHORT $LN1@Write@27
$LN2@Write@27:

; 276  : 	{
; 277  : 		// To save space, just write an empty string to denote a missing type
; 278  : 		int iLen = 0;

	mov	DWORD PTR _iLen$218092[ebp], 0

; 279  : 		kStream << iLen;

	lea	edx, DWORD PTR _iLen$218092[ebp]
	push	edx
	mov	ecx, DWORD PTR _kStream$[ebp]
	call	?Write@FDataStream@@IAEXABH@Z		; FDataStream::Write
$LN1@Write@27:

; 280  : 	}
; 281  : 
; 282  : 	return false;

	xor	al, al
$LN3@Write@27:

; 283  : }

	mov	ecx, DWORD PTR __$EHRec$[ebp]
	mov	DWORD PTR fs:0, ecx
	pop	ecx
	mov	ecx, DWORD PTR __$ArrayPad$[ebp]
	xor	ecx, ebp
	call	@__security_check_cookie@4
	mov	esp, ebp
	pop	ebp
	ret	0
_TEXT	ENDS
;	COMDAT text$x
text$x	SEGMENT
__unwindfunclet$?Write@CvInfosSerializationHelper@@YA_NAAVFDataStream@@PBVCvBaseInfo@@@Z$0:
	lea	ecx, DWORD PTR _sTemp$218080[ebp]
	jmp	??1FStringA@@QAE@XZ			; FStringA::~FStringA
__ehhandler$?Write@CvInfosSerializationHelper@@YA_NAAVFDataStream@@PBVCvBaseInfo@@@Z:
	mov	edx, DWORD PTR [esp+8]
	lea	eax, DWORD PTR [edx+12]
	mov	ecx, DWORD PTR [edx-348]
	xor	ecx, eax
	call	@__security_check_cookie@4
	mov	ecx, DWORD PTR [edx-4]
	xor	ecx, eax
	call	@__security_check_cookie@4
	mov	eax, OFFSET __ehfuncinfo$?Write@CvInfosSerializationHelper@@YA_NAAVFDataStream@@PBVCvBaseInfo@@@Z
	jmp	___CxxFrameHandler3
text$x	ENDS
?Write@CvInfosSerializationHelper@@YA_NAAVFDataStream@@PBVCvBaseInfo@@@Z ENDP ; CvInfosSerializationHelper::Write
EXTRN	?Write@FDataStream@@IAEXABI@Z:PROC		; FDataStream::Write
EXTRN	?Calc@FCRC@@QBEKPBXHK@Z:PROC			; FCRC::Calc
EXTRN	?g_CRC32@@3VFCRC@@A:BYTE			; g_CRC32
; Function compile flags: /Odtp
;	COMDAT ?WriteHashed@CvInfosSerializationHelper@@YA_NAAVFDataStream@@PBVCvBaseInfo@@@Z
_TEXT	SEGMENT
tv141 = -36						; size = 4
tv139 = -32						; size = 4
tv154 = -25						; size = 1
tv151 = -24						; size = 4
tv148 = -20						; size = 4
$T218965 = -16						; size = 4
$T218961 = -12						; size = 4
_uiHash$218098 = -8					; size = 4
_uiHash$ = -4						; size = 4
_kStream$ = 8						; size = 4
_pkInfo$ = 12						; size = 4
?WriteHashed@CvInfosSerializationHelper@@YA_NAAVFDataStream@@PBVCvBaseInfo@@@Z PROC ; CvInfosSerializationHelper::WriteHashed, COMDAT

; 287  : {

	push	ebp
	mov	ebp, esp
	sub	esp, 36					; 00000024H

; 288  : 	if(pkInfo && pkInfo->GetType() && pkInfo->GetType()[0] != 0)

	cmp	DWORD PTR _pkInfo$[ebp], 0
	je	$LN1@WriteHashe@27
	mov	ecx, DWORD PTR _pkInfo$[ebp]
	add	ecx, 176				; 000000b0H
	call	DWORD PTR __imp_?c_str@?$basic_string@DU?$char_traits@D@std@@V?$allocator@D@2@@std@@QBEPBDXZ
	test	eax, eax
	je	$LN1@WriteHashe@27
	mov	ecx, DWORD PTR _pkInfo$[ebp]
	add	ecx, 176				; 000000b0H
	call	DWORD PTR __imp_?c_str@?$basic_string@DU?$char_traits@D@std@@V?$allocator@D@2@@std@@QBEPBDXZ
	mov	DWORD PTR $T218961[ebp], eax
	mov	eax, DWORD PTR $T218961[ebp]
	movsx	ecx, BYTE PTR [eax]
	test	ecx, ecx
	je	SHORT $LN1@WriteHashe@27

; 289  : 	{
; 290  : 		uint uiHash = FString::Hash(pkInfo->GetType());

	mov	ecx, DWORD PTR _pkInfo$[ebp]
	add	ecx, 176				; 000000b0H
	call	DWORD PTR __imp_?c_str@?$basic_string@DU?$char_traits@D@std@@V?$allocator@D@2@@std@@QBEPBDXZ
	mov	DWORD PTR $T218965[ebp], eax
	cmp	DWORD PTR $T218965[ebp], 0
	je	SHORT $LN14@WriteHashe@27
	mov	edx, DWORD PTR $T218965[ebp]
	mov	DWORD PTR tv148[ebp], edx
	mov	eax, DWORD PTR tv148[ebp]
	add	eax, 1
	mov	DWORD PTR tv151[ebp], eax
$LL20@WriteHashe@27:
	mov	ecx, DWORD PTR tv148[ebp]
	mov	dl, BYTE PTR [ecx]
	mov	BYTE PTR tv154[ebp], dl
	add	DWORD PTR tv148[ebp], 1
	cmp	BYTE PTR tv154[ebp], 0
	jne	SHORT $LL20@WriteHashe@27
	mov	eax, DWORD PTR tv148[ebp]
	sub	eax, DWORD PTR tv151[ebp]
	mov	DWORD PTR tv139[ebp], eax
	mov	ecx, DWORD PTR tv139[ebp]
	mov	DWORD PTR tv141[ebp], ecx
	jmp	SHORT $LN10@WriteHashe@27
$LN14@WriteHashe@27:
	mov	DWORD PTR tv141[ebp], 0
$LN10@WriteHashe@27:
	push	-1
	mov	edx, DWORD PTR tv141[ebp]
	push	edx
	mov	eax, DWORD PTR $T218965[ebp]
	push	eax
	mov	ecx, OFFSET ?g_CRC32@@3VFCRC@@A		; g_CRC32
	call	?Calc@FCRC@@QBEKPBXHK@Z			; FCRC::Calc
	mov	DWORD PTR _uiHash$218098[ebp], eax

; 291  : 		kStream << uiHash;

	lea	ecx, DWORD PTR _uiHash$218098[ebp]
	push	ecx
	mov	ecx, DWORD PTR _kStream$[ebp]
	call	?Write@FDataStream@@IAEXABI@Z		; FDataStream::Write

; 292  : 		return true;

	mov	al, 1
	jmp	SHORT $LN2@WriteHashe@27
$LN1@WriteHashe@27:

; 293  : 	}
; 294  : 
; 295  : 	uint uiHash = 0;		// 0 hash == missing type

	mov	DWORD PTR _uiHash$[ebp], 0

; 296  : 	kStream << uiHash;

	lea	edx, DWORD PTR _uiHash$[ebp]
	push	edx
	mov	ecx, DWORD PTR _kStream$[ebp]
	call	?Write@FDataStream@@IAEXABI@Z		; FDataStream::Write

; 297  : 	return false;

	xor	al, al
$LN2@WriteHashe@27:

; 298  : }

	mov	esp, ebp
	pop	ebp
	ret	0
?WriteHashed@CvInfosSerializationHelper@@YA_NAAVFDataStream@@PBVCvBaseInfo@@@Z ENDP ; CvInfosSerializationHelper::WriteHashed
; Function compile flags: /Odtp
; File d:\sources\lekmod_git\checkout\lekmod_dll\fireplace\include\fireworks\fstringa.inl
_TEXT	ENDS
;	COMDAT ??0?$FStringAFixedBuffer@$0BAA@@FStringA@@QAE@AAV1@@Z
_TEXT	SEGMENT
_this$ = -16						; size = 4
_str$ = 8						; size = 4
??0?$FStringAFixedBuffer@$0BAA@@FStringA@@QAE@AAV1@@Z PROC ; FStringA::FStringAFixedBuffer<256>::FStringAFixedBuffer<256>, COMDAT
; _this$ = ecx

; 58   : {

	push	ebp
	mov	ebp, esp
	sub	esp, 16					; 00000010H
	mov	DWORD PTR _this$[ebp], ecx

; 59   : 	assert( nLENGTH > 0 );
; 60   : 	m_kStringData.m_bLocked = 0;

	xor	eax, eax
	mov	ecx, DWORD PTR _this$[ebp]
	mov	WORD PTR [ecx+8], ax

; 61   : 	m_kStringData.m_bFixed = 1;

	mov	edx, 1
	mov	eax, DWORD PTR _this$[ebp]
	mov	WORD PTR [eax+10], dx

; 62   : 	m_kStringData.m_iAllocLength = nLENGTH;

	mov	ecx, DWORD PTR _this$[ebp]
	mov	DWORD PTR [ecx], 256			; 00000100H

; 63   : 	m_kStringData.m_iDataLength = 0;

	mov	edx, DWORD PTR _this$[ebp]
	mov	DWORD PTR [edx+4], 0

; 64   : 	m_szStringBuffer[ 0 ] = 0;

	mov	eax, DWORD PTR _this$[ebp]
	mov	BYTE PTR [eax+12], 0

; 65   : 	str.SetFixedBuffer( &m_kStringData );

	cmp	DWORD PTR _this$[ebp], 0
	jne	SHORT $LN3@FStringAFi
	jmp	SHORT $LN1@FStringAFi
$LN3@FStringAFi:
	mov	ecx, DWORD PTR _str$[ebp]
	call	?Release@FStringA@@QAEXXZ		; FStringA::Release
	mov	ecx, DWORD PTR _this$[ebp]
	add	ecx, 12					; 0000000cH
	mov	edx, DWORD PTR _str$[ebp]
	mov	DWORD PTR [edx], ecx
$LN1@FStringAFi:

; 66   : }

	mov	eax, DWORD PTR _this$[ebp]
	mov	esp, ebp
	pop	ebp
	ret	4
??0?$FStringAFixedBuffer@$0BAA@@FStringA@@QAE@AAV1@@Z ENDP ; FStringA::FStringAFixedBuffer<256>::FStringAFixedBuffer<256>
; Function compile flags: /Odtp
_TEXT	ENDS
;	COMDAT ??1FStringA@@QAE@XZ
_TEXT	SEGMENT
_this$ = -16						; size = 4
??1FStringA@@QAE@XZ PROC				; FStringA::~FStringA, COMDAT
; _this$ = ecx

; 151  : {

	push	ebp
	mov	ebp, esp
	sub	esp, 16					; 00000010H
	mov	DWORD PTR _this$[ebp], ecx

; 152  : 	Release();

	mov	ecx, DWORD PTR _this$[ebp]
	call	?Release@FStringA@@QAEXXZ		; FStringA::Release

; 153  : }

	mov	esp, ebp
	pop	ebp
	ret	0
??1FStringA@@QAE@XZ ENDP				; FStringA::~FStringA
_TEXT	ENDS
EXTRN	??_V@YAXPAX@Z:PROC				; operator delete[]
; Function compile flags: /Odtp
;	COMDAT ?Release@FStringA@@QAEXXZ
_TEXT	SEGMENT
_this$ = -16						; size = 4
$T219056 = -12						; size = 4
$T219051 = -8						; size = 4
$T219050 = -4						; size = 4
?Release@FStringA@@QAEXXZ PROC				; FStringA::Release, COMDAT
; _this$ = ecx

; 1096 : {

	push	ebp
	mov	ebp, esp
	sub	esp, 16					; 00000010H
	mov	DWORD PTR _this$[ebp], ecx

; 1097 : 	Release( GetData() );

	mov	eax, DWORD PTR _this$[ebp]
	mov	ecx, DWORD PTR [eax]
	sub	ecx, 12					; 0000000cH
	mov	DWORD PTR $T219051[ebp], ecx
	je	SHORT $LN6@Release
	call	?FStringA_GetStringInitData@@YAPAUFStringAData@FStringA@@XZ ; FStringA_GetStringInitData
	cmp	DWORD PTR $T219051[ebp], eax
	je	SHORT $LN6@Release
	mov	edx, DWORD PTR $T219051[ebp]
	movzx	eax, WORD PTR [edx+10]
	test	eax, eax
	jne	SHORT $LN6@Release
	mov	ecx, DWORD PTR $T219051[ebp]
	mov	DWORD PTR $T219050[ebp], ecx
	mov	edx, DWORD PTR $T219050[ebp]
	push	edx
	call	??_V@YAXPAX@Z				; operator delete[]
	add	esp, 4
$LN6@Release:

; 1098 : 	m_pszString = NULL;

	mov	eax, DWORD PTR _this$[ebp]
	mov	DWORD PTR [eax], 0

; 1099 : 	Init();

	call	?FStringA_GetStringInitData@@YAPAUFStringAData@FStringA@@XZ ; FStringA_GetStringInitData
	mov	DWORD PTR $T219056[ebp], eax
	mov	ecx, DWORD PTR $T219056[ebp]
	add	ecx, 12					; 0000000cH
	mov	edx, DWORD PTR _this$[ebp]
	mov	DWORD PTR [edx], ecx

; 1100 : }

	mov	esp, ebp
	pop	ebp
	ret	0
?Release@FStringA@@QAEXXZ ENDP				; FStringA::Release
; Function compile flags: /Odtp
; File d:\sources\lekmod_git\checkout\lekmod_dll\cvgamecoredllutil\include\cvstring.h
_TEXT	ENDS
;	COMDAT ??1CvString@@QAE@XZ
_TEXT	SEGMENT
_this$ = -4						; size = 4
??1CvString@@QAE@XZ PROC				; CvString::~CvString, COMDAT
; _this$ = ecx

; 28   : 	~CvString() {}

	push	ebp
	mov	ebp, esp
	push	ecx
	mov	DWORD PTR _this$[ebp], ecx
	mov	ecx, DWORD PTR _this$[ebp]
	call	DWORD PTR __imp_??1?$basic_string@DU?$char_traits@D@std@@V?$allocator@D@2@@std@@QAE@XZ
	mov	esp, ebp
	pop	ebp
	ret	0
??1CvString@@QAE@XZ ENDP				; CvString::~CvString
_TEXT	ENDS
PUBLIC	?formatv@CvString@@SA_NAAV?$basic_string@DU?$char_traits@D@std@@V?$allocator@D@2@@std@@PBDPAD@Z ; CvString::formatv
PUBLIC	__$ArrayPad$
EXTRN	__imp_?assign@?$basic_string@DU?$char_traits@D@std@@V?$allocator@D@2@@std@@QAEAAV12@PBD@Z:PROC
;	COMDAT xdata$x
xdata$x	SEGMENT
__unwindtable$?Format@CvString@@QAAXPBDZZ DD 0ffffffffH
	DD	FLAT:__unwindfunclet$?Format@CvString@@QAAXPBDZZ$0
__ehfuncinfo$?Format@CvString@@QAAXPBDZZ DD 019930522H
	DD	01H
	DD	FLAT:__unwindtable$?Format@CvString@@QAAXPBDZZ
	DD	2 DUP(00H)
	DD	2 DUP(00H)
	DD	00H
	DD	01H
; Function compile flags: /Odtp
xdata$x	ENDS
;	COMDAT ?Format@CvString@@QAAXPBDZZ
_TEXT	SEGMENT
_result$ = -48						; size = 28
__$ArrayPad$ = -20					; size = 4
_args$ = -16						; size = 4
__$EHRec$ = -12						; size = 12
_this$ = 8						; size = 4
_lpszFormat$ = 12					; size = 4
?Format@CvString@@QAAXPBDZZ PROC			; CvString::Format, COMDAT

; 269  : {

	push	ebp
	mov	ebp, esp
	push	-1
	push	__ehhandler$?Format@CvString@@QAAXPBDZZ
	mov	eax, DWORD PTR fs:0
	push	eax
	sub	esp, 2124				; 0000084cH
	mov	eax, DWORD PTR ___security_cookie
	xor	eax, ebp
	mov	DWORD PTR __$ArrayPad$[ebp], eax
	push	eax
	lea	eax, DWORD PTR __$EHRec$[ebp]
	mov	DWORD PTR fs:0, eax

; 270  : 	std::string result;

	lea	ecx, DWORD PTR _result$[ebp]
	call	DWORD PTR __imp_??0?$basic_string@DU?$char_traits@D@std@@V?$allocator@D@2@@std@@QAE@XZ
	mov	DWORD PTR __$EHRec$[ebp+8], 0

; 271  : 	va_list args;
; 272  : 	va_start(args,lpszFormat);

	lea	eax, DWORD PTR _lpszFormat$[ebp+4]
	mov	DWORD PTR _args$[ebp], eax

; 273  : 	formatv(result,lpszFormat,args);

	mov	ecx, DWORD PTR _args$[ebp]
	push	ecx
	mov	edx, DWORD PTR _lpszFormat$[ebp]
	push	edx
	lea	eax, DWORD PTR _result$[ebp]
	push	eax
	call	?formatv@CvString@@SA_NAAV?$basic_string@DU?$char_traits@D@std@@V?$allocator@D@2@@std@@PBDPAD@Z ; CvString::formatv
	add	esp, 12					; 0000000cH

; 274  : 	va_end(args);

	mov	DWORD PTR _args$[ebp], 0

; 275  : 	*this = result;

	lea	ecx, DWORD PTR _result$[ebp]
	call	DWORD PTR __imp_?c_str@?$basic_string@DU?$char_traits@D@std@@V?$allocator@D@2@@std@@QBEPBDXZ
	push	eax
	mov	ecx, DWORD PTR _this$[ebp]
	call	DWORD PTR __imp_?assign@?$basic_string@DU?$char_traits@D@std@@V?$allocator@D@2@@std@@QAEAAV12@PBD@Z

; 276  : }

	mov	DWORD PTR __$EHRec$[ebp+8], -1
	lea	ecx, DWORD PTR _result$[ebp]
	call	DWORD PTR __imp_??1?$basic_string@DU?$char_traits@D@std@@V?$allocator@D@2@@std@@QAE@XZ
	mov	ecx, DWORD PTR __$EHRec$[ebp]
	mov	DWORD PTR fs:0, ecx
	pop	ecx
	mov	ecx, DWORD PTR __$ArrayPad$[ebp]
	xor	ecx, ebp
	call	@__security_check_cookie@4
	mov	esp, ebp
	pop	ebp
	ret	0
_TEXT	ENDS
;	COMDAT text$x
text$x	SEGMENT
__unwindfunclet$?Format@CvString@@QAAXPBDZZ$0:
	lea	ecx, DWORD PTR _result$[ebp]
	jmp	DWORD PTR __imp_??1?$basic_string@DU?$char_traits@D@std@@V?$allocator@D@2@@std@@QAE@XZ
__ehhandler$?Format@CvString@@QAAXPBDZZ:
	mov	edx, DWORD PTR [esp+8]
	lea	eax, DWORD PTR [edx+12]
	mov	ecx, DWORD PTR [edx-2128]
	xor	ecx, eax
	call	@__security_check_cookie@4
	mov	ecx, DWORD PTR [edx-8]
	xor	ecx, eax
	call	@__security_check_cookie@4
	mov	eax, OFFSET __ehfuncinfo$?Format@CvString@@QAAXPBDZZ
	jmp	___CxxFrameHandler3
text$x	ENDS
?Format@CvString@@QAAXPBDZZ ENDP			; CvString::Format
PUBLIC	??_C@_00CNPNBAHC@?$AA@				; `string'
PUBLIC	__$ArrayPad$
EXTRN	__imp_??4?$basic_string@DU?$char_traits@D@std@@V?$allocator@D@2@@std@@QAEAAV01@PBD@Z:PROC
EXTRN	??_U@YAPAXI@Z:PROC				; operator new[]
EXTRN	__imp___vsnprintf:PROC
;	COMDAT ??_C@_00CNPNBAHC@?$AA@
CONST	SEGMENT
??_C@_00CNPNBAHC@?$AA@ DB 00H				; `string'
; Function compile flags: /Odtp
CONST	ENDS
;	COMDAT ?formatv@CvString@@SA_NAAV?$basic_string@DU?$char_traits@D@std@@V?$allocator@D@2@@std@@PBDPAD@Z
_TEXT	SEGMENT
tv74 = -2096						; size = 4
$T219091 = -2092					; size = 4
$T219090 = -2088					; size = 4
$T219089 = -2084					; size = 4
_maxlen$95294 = -2080					; size = 4
_kMaxAttempts$ = -2076					; size = 4
_buf$ = -2072						; size = 2048
__$ArrayPad$ = -20					; size = 4
_len$ = -16						; size = 4
_attempts$ = -12					; size = 4
_success$ = -5						; size = 1
_pbuf$ = -4						; size = 4
_out$ = 8						; size = 4
_fmt$ = 12						; size = 4
_args$ = 16						; size = 4
?formatv@CvString@@SA_NAAV?$basic_string@DU?$char_traits@D@std@@V?$allocator@D@2@@std@@PBDPAD@Z PROC ; CvString::formatv, COMDAT

; 191  : {

	push	ebp
	mov	ebp, esp
	sub	esp, 2096				; 00000830H
	mov	eax, DWORD PTR ___security_cookie
	xor	eax, ebp
	mov	DWORD PTR __$ArrayPad$[ebp], eax

; 192  : 	char buf[2048];
; 193  : 	char * pbuf = buf;

	lea	eax, DWORD PTR _buf$[ebp]
	mov	DWORD PTR _pbuf$[ebp], eax

; 194  : 	int len = 0;

	mov	DWORD PTR _len$[ebp], 0

; 195  : 	int attempts = 0;

	mov	DWORD PTR _attempts$[ebp], 0

; 196  : 	bool success = false;

	mov	BYTE PTR _success$[ebp], 0

; 197  : 	const int kMaxAttempts = 40;

	mov	DWORD PTR _kMaxAttempts$[ebp], 40	; 00000028H
$LN10@formatv:

; 198  : 
; 199  : 	do
; 200  : 	{
; 201  : 		int maxlen = 2047+2048*attempts;

	mov	ecx, DWORD PTR _attempts$[ebp]
	shl	ecx, 11					; 0000000bH
	add	ecx, 2047				; 000007ffH
	mov	DWORD PTR _maxlen$95294[ebp], ecx

; 202  : 		len = _vsnprintf(pbuf,maxlen,fmt,args);

	mov	edx, DWORD PTR _args$[ebp]
	push	edx
	mov	eax, DWORD PTR _fmt$[ebp]
	push	eax
	mov	ecx, DWORD PTR _maxlen$95294[ebp]
	push	ecx
	mov	edx, DWORD PTR _pbuf$[ebp]
	push	edx
	call	DWORD PTR __imp___vsnprintf
	add	esp, 16					; 00000010H
	mov	DWORD PTR _len$[ebp], eax

; 203  : 		attempts++;

	mov	eax, DWORD PTR _attempts$[ebp]
	add	eax, 1
	mov	DWORD PTR _attempts$[ebp], eax

; 204  : 		success = (len>=0 && len<=maxlen);

	cmp	DWORD PTR _len$[ebp], 0
	jl	SHORT $LN13@formatv
	mov	ecx, DWORD PTR _len$[ebp]
	cmp	ecx, DWORD PTR _maxlen$95294[ebp]
	jg	SHORT $LN13@formatv
	mov	DWORD PTR tv74[ebp], 1
	jmp	SHORT $LN14@formatv
$LN13@formatv:
	mov	DWORD PTR tv74[ebp], 0
$LN14@formatv:
	mov	dl, BYTE PTR tv74[ebp]
	mov	BYTE PTR _success$[ebp], dl

; 205  : 		if (!success)

	movzx	eax, BYTE PTR _success$[ebp]
	test	eax, eax
	jne	SHORT $LN9@formatv

; 206  : 		{
; 207  : 			if (pbuf!=buf)

	mov	ecx, DWORD PTR _pbuf$[ebp]
	lea	edx, DWORD PTR _buf$[ebp]
	cmp	ecx, edx
	je	SHORT $LN6@formatv

; 208  : 				delete [] pbuf;

	mov	eax, DWORD PTR _pbuf$[ebp]
	mov	DWORD PTR $T219089[ebp], eax
	mov	ecx, DWORD PTR $T219089[ebp]
	push	ecx
	call	??_V@YAXPAX@Z				; operator delete[]
	add	esp, 4
$LN6@formatv:

; 209  : 			pbuf = new char[2048+2048*attempts];

	mov	edx, DWORD PTR _attempts$[ebp]
	shl	edx, 11					; 0000000bH
	add	edx, 2048				; 00000800H
	push	edx
	call	??_U@YAPAXI@Z				; operator new[]
	add	esp, 4
	mov	DWORD PTR $T219090[ebp], eax
	mov	eax, DWORD PTR $T219090[ebp]
	mov	DWORD PTR _pbuf$[ebp], eax
$LN9@formatv:

; 210  : 		}
; 211  : 	}
; 212  : 	while (!success && attempts<kMaxAttempts);

	movzx	ecx, BYTE PTR _success$[ebp]
	test	ecx, ecx
	jne	SHORT $LN4@formatv
	cmp	DWORD PTR _attempts$[ebp], 40		; 00000028H
	jl	$LN10@formatv
$LN4@formatv:

; 213  : 
; 214  : 	if ( attempts==kMaxAttempts )
; 215  : 	{
; 216  : 		// dxPrintNL( "CvString::formatv - Max reallocs occurred while formatting string. Result is likely truncated!", 0 );
; 217  : 	}
; 218  : 
; 219  : 	if (success)

	movzx	edx, BYTE PTR _success$[ebp]
	test	edx, edx
	je	SHORT $LN3@formatv

; 220  : 		out = pbuf;

	mov	eax, DWORD PTR _pbuf$[ebp]
	push	eax
	mov	ecx, DWORD PTR _out$[ebp]
	call	DWORD PTR __imp_??4?$basic_string@DU?$char_traits@D@std@@V?$allocator@D@2@@std@@QAEAAV01@PBD@Z

; 221  : 	else

	jmp	SHORT $LN2@formatv
$LN3@formatv:

; 222  : 		out = "";

	push	OFFSET ??_C@_00CNPNBAHC@?$AA@
	mov	ecx, DWORD PTR _out$[ebp]
	call	DWORD PTR __imp_??4?$basic_string@DU?$char_traits@D@std@@V?$allocator@D@2@@std@@QAEAAV01@PBD@Z
$LN2@formatv:

; 223  : 
; 224  : 	if (pbuf!=buf)

	mov	ecx, DWORD PTR _pbuf$[ebp]
	lea	edx, DWORD PTR _buf$[ebp]
	cmp	ecx, edx
	je	SHORT $LN1@formatv

; 225  : 		delete [] pbuf;

	mov	eax, DWORD PTR _pbuf$[ebp]
	mov	DWORD PTR $T219091[ebp], eax
	mov	ecx, DWORD PTR $T219091[ebp]
	push	ecx
	call	??_V@YAXPAX@Z				; operator delete[]
	add	esp, 4
$LN1@formatv:

; 226  : 
; 227  : 	return success;

	mov	al, BYTE PTR _success$[ebp]

; 228  : }

	mov	ecx, DWORD PTR __$ArrayPad$[ebp]
	xor	ecx, ebp
	call	@__security_check_cookie@4
	mov	esp, ebp
	pop	ebp
	ret	0
?formatv@CvString@@SA_NAAV?$basic_string@DU?$char_traits@D@std@@V?$allocator@D@2@@std@@PBDPAD@Z ENDP ; CvString::formatv
_TEXT	ENDS
END
