; Listing generated by Microsoft (R) Optimizing Compiler Version 15.00.30729.01 

	TITLE	D:\sources\Lekmod_git\checkout\LEKMOD_DLL\CvGameCoreDLL_Expansion2\Lua\CvLuaPlayer.cpp
	.686P
	.XMM
	include listing.inc
	.model	flat

INCLUDELIB MSVCRT
INCLUDELIB OLDNAMES

PUBLIC	?NO_QUEST_DATA@CvMinorCivQuest@@2HB		; CvMinorCivQuest::NO_QUEST_DATA
PUBLIC	?NO_TURN@CvMinorCivQuest@@2HB			; CvMinorCivQuest::NO_TURN
CONST	SEGMENT
_guidICvUnit1 DD 09f157e04H
	DW	04b2dH
	DW	04797H
	DB	09aH
	DB	0a5H
	DB	013H
	DB	025H
	DB	0deH
	DB	022H
	DB	016H
	DB	07H
CONST	ENDS
;	COMDAT ?NO_TURN@CvMinorCivQuest@@2HB
CONST	SEGMENT
?NO_TURN@CvMinorCivQuest@@2HB DD 0ffffffffH		; CvMinorCivQuest::NO_TURN
CONST	ENDS
;	COMDAT ?NO_QUEST_DATA@CvMinorCivQuest@@2HB
CONST	SEGMENT
?NO_QUEST_DATA@CvMinorCivQuest@@2HB DD 0ffffffffH	; CvMinorCivQuest::NO_QUEST_DATA
CONST	ENDS
PUBLIC	?pRegister@CvLuaPlayer@@KAHPAUlua_State@@@Z	; CvLuaPlayer::pRegister
PUBLIC	?Register@CvLuaPlayer@@SAXPAUlua_State@@@Z	; CvLuaPlayer::Register
EXTRN	?CCallWithErrorHandling@Details@FLua@@YA_NPAUlua_State@@P6AH0@ZPAX@Z:PROC ; FLua::Details::CCallWithErrorHandling
; Function compile flags: /Odtp
; File d:\sources\lekmod_git\checkout\lekmod_dll\cvgamecoredll_expansion2\lua\cvluaplayer.cpp
;	COMDAT ?Register@CvLuaPlayer@@SAXPAUlua_State@@@Z
_TEXT	SEGMENT
_L$ = 8							; size = 4
?Register@CvLuaPlayer@@SAXPAUlua_State@@@Z PROC		; CvLuaPlayer::Register, COMDAT

; 41   : {

	push	ebp
	mov	ebp, esp

; 42   : 	FLua::Details::CCallWithErrorHandling(L, pRegister);

	push	0
	push	OFFSET ?pRegister@CvLuaPlayer@@KAHPAUlua_State@@@Z ; CvLuaPlayer::pRegister
	mov	eax, DWORD PTR _L$[ebp]
	push	eax
	call	?CCallWithErrorHandling@Details@FLua@@YA_NPAUlua_State@@P6AH0@ZPAX@Z ; FLua::Details::CCallWithErrorHandling
	add	esp, 12					; 0000000cH

; 43   : }

	pop	ebp
	ret	0
?Register@CvLuaPlayer@@SAXPAUlua_State@@@Z ENDP		; CvLuaPlayer::Register
_TEXT	ENDS
PUBLIC	??_C@_0BL@KAGDCCOH@GetLiberationPreviewString?$AA@ ; `string'
PUBLIC	?lGetLiberationPreviewString@CvLuaPlayer@@KAHPAUlua_State@@@Z ; CvLuaPlayer::lGetLiberationPreviewString
PUBLIC	??_C@_0BK@CEKNHANK@GetWarmongerPreviewString?$AA@ ; `string'
PUBLIC	?lGetWarmongerPreviewString@CvLuaPlayer@@KAHPAUlua_State@@@Z ; CvLuaPlayer::lGetWarmongerPreviewString
PUBLIC	??_C@_0BD@PFIGNMFO@HasUnitOfClassType?$AA@	; `string'
PUBLIC	?lHasUnitOfClassType@CvLuaPlayer@@KAHPAUlua_State@@@Z ; CvLuaPlayer::lHasUnitOfClassType
PUBLIC	??_C@_0BE@BDGHDECE@HasTurnTimerExpired?$AA@	; `string'
PUBLIC	?lHasTurnTimerExpired@CvLuaPlayer@@KAHPAUlua_State@@@Z ; CvLuaPlayer::lHasTurnTimerExpired
PUBLIC	??_C@_0L@KMAMDGPN@IsObserver?$AA@		; `string'
PUBLIC	?lIsObserver@CvLuaPlayer@@KAHPAUlua_State@@@Z	; CvLuaPlayer::lIsObserver
PUBLIC	??_C@_0M@ILOEPEDD@IsConnected?$AA@		; `string'
PUBLIC	?lIsConnected@CvLuaPlayer@@KAHPAUlua_State@@@Z	; CvLuaPlayer::lIsConnected
PUBLIC	??_C@_0BF@DPDBEIAE@GetCommitVoteDetails?$AA@	; `string'
PUBLIC	?lGetCommitVoteDetails@CvLuaPlayer@@KAHPAUlua_State@@@Z ; CvLuaPlayer::lGetCommitVoteDetails
PUBLIC	??_C@_0O@JJOHNPOE@CanCommitVote?$AA@		; `string'
PUBLIC	?lCanCommitVote@CvLuaPlayer@@KAHPAUlua_State@@@Z ; CvLuaPlayer::lCanCommitVote
PUBLIC	??_C@_0BE@LLGEBKGE@GetOthersGreatWorks?$AA@	; `string'
PUBLIC	?lGetOthersGreatWorks@CvLuaPlayer@@KAHPAUlua_State@@@Z ; CvLuaPlayer::lGetOthersGreatWorks
PUBLIC	??_C@_0BH@GJFHNIHJ@GetSwappableGreatMusic?$AA@	; `string'
PUBLIC	?lGetSwappableGreatMusic@CvLuaPlayer@@KAHPAUlua_State@@@Z ; CvLuaPlayer::lGetSwappableGreatMusic
PUBLIC	??_C@_0BK@IECAMKOI@GetSwappableGreatArtifact?$AA@ ; `string'
PUBLIC	?lGetSwappableGreatArtifact@CvLuaPlayer@@KAHPAUlua_State@@@Z ; CvLuaPlayer::lGetSwappableGreatArtifact
PUBLIC	??_C@_0BF@PADBEPFE@GetSwappableGreatArt?$AA@	; `string'
PUBLIC	?lGetSwappableGreatArt@CvLuaPlayer@@KAHPAUlua_State@@@Z ; CvLuaPlayer::lGetSwappableGreatArt
PUBLIC	??_C@_0BJ@GDFMGLID@GetSwappableGreatWriting?$AA@ ; `string'
PUBLIC	?lGetSwappableGreatWriting@CvLuaPlayer@@KAHPAUlua_State@@@Z ; CvLuaPlayer::lGetSwappableGreatWriting
PUBLIC	??_C@_0O@KKLCHPMA@GetGreatWorks?$AA@		; `string'
PUBLIC	?lGetGreatWorks@CvLuaPlayer@@KAHPAUlua_State@@@Z ; CvLuaPlayer::lGetGreatWorks
PUBLIC	??_C@_0BF@BBFCHHGL@GetNumTechDifference?$AA@	; `string'
PUBLIC	?lGetNumTechDifference@CvLuaPlayer@@KAHPAUlua_State@@@Z ; CvLuaPlayer::lGetNumTechDifference
PUBLIC	??_C@_0BE@GPJCHJIN@GetTradeRoutesToYou?$AA@	; `string'
PUBLIC	?lGetTradeRoutesToYou@CvLuaPlayer@@KAHPAUlua_State@@@Z ; CvLuaPlayer::lGetTradeRoutesToYou
PUBLIC	??_C@_0BI@GGJGPFJM@GetTradeRoutesAvailable?$AA@	; `string'
PUBLIC	?lGetTradeRoutesAvailable@CvLuaPlayer@@KAHPAUlua_State@@@Z ; CvLuaPlayer::lGetTradeRoutesAvailable
PUBLIC	??_C@_0P@OHPONKMK@GetTradeRoutes?$AA@		; `string'
PUBLIC	?lGetTradeRoutes@CvLuaPlayer@@KAHPAUlua_State@@@Z ; CvLuaPlayer::lGetTradeRoutes
PUBLIC	??_C@_0BM@JIFAFEOA@GetTradeToYouRoutesTTString?$AA@ ; `string'
PUBLIC	?lGetTradeToYouRoutesTTString@CvLuaPlayer@@KAHPAUlua_State@@@Z ; CvLuaPlayer::lGetTradeToYouRoutesTTString
PUBLIC	??_C@_0BL@IIMJBBCO@GetTradeYourRoutesTTString?$AA@ ; `string'
PUBLIC	?lGetTradeYourRoutesTTString@CvLuaPlayer@@KAHPAUlua_State@@@Z ; CvLuaPlayer::lGetTradeYourRoutesTTString
PUBLIC	??_C@_0BB@OACBPOPN@GetTradeUnitType?$AA@	; `string'
PUBLIC	?lGetTradeUnitType@CvLuaPlayer@@KAHPAUlua_State@@@Z ; CvLuaPlayer::lGetTradeUnitType
PUBLIC	??_C@_0BK@EADFLLPD@GetNumAvailableTradeUnits?$AA@ ; `string'
PUBLIC	?lGetNumAvailableTradeUnits@CvLuaPlayer@@KAHPAUlua_State@@@Z ; CvLuaPlayer::lGetNumAvailableTradeUnits
PUBLIC	??_C@_0BL@JENMMKCA@GetPotentialAdmiralNewPort?$AA@ ; `string'
PUBLIC	?lGetPotentialAdmiralNewPort@CvLuaPlayer@@KAHPAUlua_State@@@Z ; CvLuaPlayer::lGetPotentialAdmiralNewPort
PUBLIC	??_C@_0CB@MAKPAJHJ@GetPotentialTradeUnitNewHomeCity@ ; `string'
PUBLIC	?lGetPotentialTradeUnitNewHomeCity@CvLuaPlayer@@KAHPAUlua_State@@@Z ; CvLuaPlayer::lGetPotentialTradeUnitNewHomeCity
PUBLIC	??_C@_0CC@KHDPEDFE@GetInternationalTradeRouteScienc@ ; `string'
PUBLIC	?lGetInternationalTradeRouteScience@CvLuaPlayer@@KAHPAUlua_State@@@Z ; CvLuaPlayer::lGetInternationalTradeRouteScience
PUBLIC	??_C@_0CA@JGHLFNBP@GetInternationalTradeRouteTotal?$AA@ ; `string'
PUBLIC	?lGetInternationalTradeRouteTotal@CvLuaPlayer@@KAHPAUlua_State@@@Z ; CvLuaPlayer::lGetInternationalTradeRouteTotal
PUBLIC	??_C@_0CJ@CENOPJDM@GetInternationalTradeRouteDomain@ ; `string'
PUBLIC	?lGetInternationalTradeRouteDomainModifier@CvLuaPlayer@@KAHPAUlua_State@@@Z ; CvLuaPlayer::lGetInternationalTradeRouteDomainModifier
PUBLIC	??_C@_0CI@JAMFAEJH@GetInternationalTradeRouteRiverM@ ; `string'
PUBLIC	?lGetInternationalTradeRouteRiverModifier@CvLuaPlayer@@KAHPAUlua_State@@@Z ; CvLuaPlayer::lGetInternationalTradeRouteRiverModifier
PUBLIC	??_C@_0CK@BFEEANCK@GetInternationalTradeRouteOtherT@ ; `string'
PUBLIC	?lGetInternationalTradeRouteOtherTraitBonus@CvLuaPlayer@@KAHPAUlua_State@@@Z ; CvLuaPlayer::lGetInternationalTradeRouteOtherTraitBonus
PUBLIC	??_C@_0CG@IPPHMMIB@GetInternationalTradeRoutePolicy@ ; `string'
PUBLIC	?lGetInternationalTradeRoutePolicyBonus@CvLuaPlayer@@KAHPAUlua_State@@@Z ; CvLuaPlayer::lGetInternationalTradeRoutePolicyBonus
PUBLIC	??_C@_0CN@BEGIPDME@GetInternationalTradeRouteTheirB@ ; `string'
PUBLIC	?lGetInternationalTradeRouteTheirBuildingBonus@CvLuaPlayer@@KAHPAUlua_State@@@Z ; CvLuaPlayer::lGetInternationalTradeRouteTheirBuildingBonus
PUBLIC	??_C@_0CM@ELNCKEMC@GetInternationalTradeRouteYourBu@ ; `string'
PUBLIC	?lGetInternationalTradeRouteYourBuildingBonus@CvLuaPlayer@@KAHPAUlua_State@@@Z ; CvLuaPlayer::lGetInternationalTradeRouteYourBuildingBonus
PUBLIC	??_C@_0CJ@GOKACKGF@GetInternationalTradeRouteExclus@ ; `string'
PUBLIC	?lGetInternationalTradeRouteExclusiveBonus@CvLuaPlayer@@KAHPAUlua_State@@@Z ; CvLuaPlayer::lGetInternationalTradeRouteExclusiveBonus
PUBLIC	??_C@_0DA@DMPNEJHJ@GetInternationalTradeRouteResour@ ; `string'
PUBLIC	?lGetInternationalTradeRouteResourceTraitModifier@CvLuaPlayer@@KAHPAUlua_State@@@Z ; CvLuaPlayer::lGetInternationalTradeRouteResourceTraitModifier
PUBLIC	??_C@_0CI@GKGOKFHF@GetInternationalTradeRouteResour@ ; `string'
PUBLIC	?lGetInternationalTradeRouteResourceBonus@CvLuaPlayer@@KAHPAUlua_State@@@Z ; CvLuaPlayer::lGetInternationalTradeRouteResourceBonus
PUBLIC	??_C@_0CD@JCOMGEHJ@GetInternationalTradeRouteGPTBon@ ; `string'
PUBLIC	?lGetInternationalTradeRouteGPTBonus@CvLuaPlayer@@KAHPAUlua_State@@@Z ; CvLuaPlayer::lGetInternationalTradeRouteGPTBonus
PUBLIC	??_C@_0CE@OFEOPDF@GetInternationalTradeRouteBaseBo@ ; `string'
PUBLIC	?lGetInternationalTradeRouteBaseBonus@CvLuaPlayer@@KAHPAUlua_State@@@Z ; CvLuaPlayer::lGetInternationalTradeRouteBaseBonus
PUBLIC	??_C@_0DA@PAFOHMJF@GetPotentialInternationalTradeRo@ ; `string'
PUBLIC	?lGetPotentialInternationalTradeRouteDestinations@CvLuaPlayer@@KAHPAUlua_State@@@Z ; CvLuaPlayer::lGetPotentialInternationalTradeRouteDestinations
PUBLIC	??_C@_0CI@HDPEKAFE@GetNumInternationalTradeRoutesAv@ ; `string'
PUBLIC	?lGetNumInternationalTradeRoutesAvailable@CvLuaPlayer@@KAHPAUlua_State@@@Z ; CvLuaPlayer::lGetNumInternationalTradeRoutesAvailable
PUBLIC	??_C@_0CD@JKDKNEEH@GetNumInternationalTradeRoutesUs@ ; `string'
PUBLIC	?lGetNumInternationalTradeRoutesUsed@CvLuaPlayer@@KAHPAUlua_State@@@Z ; CvLuaPlayer::lGetNumInternationalTradeRoutesUsed
PUBLIC	??_C@_0CP@LOLBOHGG@GetInternationalTradeRoutePlotMo@ ; `string'
PUBLIC	?lGetInternationalTradeRoutePlotMouseoverToolTip@CvLuaPlayer@@KAHPAUlua_State@@@Z ; CvLuaPlayer::lGetInternationalTradeRoutePlotMouseoverToolTip
PUBLIC	??_C@_0CG@HGLODKBP@GetInternationalTradeRoutePlotTo@ ; `string'
PUBLIC	?lGetInternationalTradeRoutePlotToolTip@CvLuaPlayer@@KAHPAUlua_State@@@Z ; CvLuaPlayer::lGetInternationalTradeRoutePlotToolTip
PUBLIC	??_C@_0BD@MLPGEPHF@GetTradeRouteRange?$AA@	; `string'
PUBLIC	?lGetTradeRouteRange@CvLuaPlayer@@KAHPAUlua_State@@@Z ; CvLuaPlayer::lGetTradeRouteRange
PUBLIC	??_C@_0BK@GHALEPGN@IsOtherDiplomatVisitingMe?$AA@ ; `string'
PUBLIC	?lIsOtherDiplomatVisitingMe@CvLuaPlayer@@KAHPAUlua_State@@@Z ; CvLuaPlayer::lIsOtherDiplomatVisitingMe
PUBLIC	??_C@_0BJ@GILOHAAJ@IsMyDiplomatVisitingThem?$AA@ ; `string'
PUBLIC	?lIsMyDiplomatVisitingThem@CvLuaPlayer@@KAHPAUlua_State@@@Z ; CvLuaPlayer::lIsMyDiplomatVisitingThem
PUBLIC	??_C@_0BH@MDDGLPM@GetCoupChanceOfSuccess?$AA@	; `string'
PUBLIC	?lGetCoupChanceOfSuccess@CvLuaPlayer@@KAHPAUlua_State@@@Z ; CvLuaPlayer::lGetCoupChanceOfSuccess
PUBLIC	??_C@_0BG@CKNMJMAJ@GetRecentIntrigueInfo?$AA@	; `string'
PUBLIC	?lGetRecentIntrigueInfo@CvLuaPlayer@@KAHPAUlua_State@@@Z ; CvLuaPlayer::lGetRecentIntrigueInfo
PUBLIC	??_C@_0BH@DEPJBAFK@HasRecentIntrigueAbout?$AA@	; `string'
PUBLIC	?lHasRecentIntrigueAbout@CvLuaPlayer@@KAHPAUlua_State@@@Z ; CvLuaPlayer::lHasRecentIntrigueAbout
PUBLIC	??_C@_0BE@NDBIENEG@GetIntrigueMessages?$AA@	; `string'
PUBLIC	?lGetIntrigueMessages@CvLuaPlayer@@KAHPAUlua_State@@@Z ; CvLuaPlayer::lGetIntrigueMessages
PUBLIC	??_C@_0BD@CLNJPIEF@GetNumTechsToSteal?$AA@	; `string'
PUBLIC	?lGetNumTechsToSteal@CvLuaPlayer@@KAHPAUlua_State@@@Z ; CvLuaPlayer::lGetNumTechsToSteal
PUBLIC	??_C@_0CA@NNHIHMJL@GetAvailableSpyRelocationCities?$AA@ ; `string'
PUBLIC	?lGetAvailableSpyRelocationCities@CvLuaPlayer@@KAHPAUlua_State@@@Z ; CvLuaPlayer::lGetAvailableSpyRelocationCities
PUBLIC	??_C@_0BA@EJACPBIJ@CanSpyStageCoup?$AA@		; `string'
PUBLIC	?lCanSpyStageCoup@CvLuaPlayer@@KAHPAUlua_State@@@Z ; CvLuaPlayer::lCanSpyStageCoup
PUBLIC	??_C@_0BA@MBCBJNFC@IsSpySchmoozing?$AA@		; `string'
PUBLIC	?lIsSpySchmoozing@CvLuaPlayer@@KAHPAUlua_State@@@Z ; CvLuaPlayer::lIsSpySchmoozing
PUBLIC	??_C@_0O@HGOCMOKI@IsSpyDiplomat?$AA@		; `string'
PUBLIC	?lIsSpyDiplomat@CvLuaPlayer@@KAHPAUlua_State@@@Z ; CvLuaPlayer::lIsSpyDiplomat
PUBLIC	??_C@_0BO@KFGBCJOJ@HasSpyEstablishedSurveillance?$AA@ ; `string'
PUBLIC	?lHasSpyEstablishedSurveillance@CvLuaPlayer@@KAHPAUlua_State@@@Z ; CvLuaPlayer::lHasSpyEstablishedSurveillance
PUBLIC	??_C@_0BC@BEHEHPAE@GetEspionageSpies?$AA@	; `string'
PUBLIC	?lGetEspionageSpies@CvLuaPlayer@@KAHPAUlua_State@@@Z ; CvLuaPlayer::lGetEspionageSpies
PUBLIC	??_C@_0BG@EOLELIEH@GetNumUnassignedSpies?$AA@	; `string'
PUBLIC	?lGetNumUnassignedSpies@CvLuaPlayer@@KAHPAUlua_State@@@Z ; CvLuaPlayer::lGetNumUnassignedSpies
PUBLIC	??_C@_0M@HJJJBDNC@GetNumSpies?$AA@		; `string'
PUBLIC	?lGetNumSpies@CvLuaPlayer@@KAHPAUlua_State@@@Z	; CvLuaPlayer::lGetNumSpies
PUBLIC	??_C@_0BH@PBHFHBIL@GetEspionageCityStatus?$AA@	; `string'
PUBLIC	?lGetEspionageCityStatus@CvLuaPlayer@@KAHPAUlua_State@@@Z ; CvLuaPlayer::lGetEspionageCityStatus
PUBLIC	??_C@_0BI@BIGNFBBK@IsAllowPuppetPurchasing?$AA@	; `string'
PUBLIC	?lIsAllowPuppetPurchasing@CvLuaPlayer@@KAHPAUlua_State@@@Z ; CvLuaPlayer::lIsAllowPuppetPurchasing
PUBLIC	??_C@_0M@CGFJJMHO@MayNotAnnex?$AA@		; `string'
PUBLIC	?lMayNotAnnex@CvLuaPlayer@@KAHPAUlua_State@@@Z	; CvLuaPlayer::lMayNotAnnex
PUBLIC	??_C@_0BD@PELLMMPJ@GetDealTheyreValue?$AA@	; `string'
PUBLIC	?lGetDealTheyreValue@CvLuaPlayer@@KAHPAUlua_State@@@Z ; CvLuaPlayer::lGetDealTheyreValue
PUBLIC	??_C@_0P@BDNMFOBD@GetDealMyValue?$AA@		; `string'
PUBLIC	?lGetDealMyValue@CvLuaPlayer@@KAHPAUlua_State@@@Z ; CvLuaPlayer::lGetDealMyValue
PUBLIC	??_C@_0N@FKEIDJJH@GetDealValue?$AA@		; `string'
PUBLIC	?lGetDealValue@CvLuaPlayer@@KAHPAUlua_State@@@Z	; CvLuaPlayer::lGetDealValue
PUBLIC	??_C@_0BA@MBBOBAGF@GetOpinionTable?$AA@		; `string'
PUBLIC	?lGetOpinionTable@CvLuaPlayer@@KAHPAUlua_State@@@Z ; CvLuaPlayer::lGetOpinionTable
PUBLIC	??_C@_0BJ@LBBAGBOM@WasResurrectedThisTurnBy?$AA@ ; `string'
PUBLIC	?lWasResurrectedThisTurnBy@CvLuaPlayer@@KAHPAUlua_State@@@Z ; CvLuaPlayer::lWasResurrectedThisTurnBy
PUBLIC	??_C@_0BB@CDPPODHF@WasResurrectedBy?$AA@	; `string'
PUBLIC	?lWasResurrectedBy@CvLuaPlayer@@KAHPAUlua_State@@@Z ; CvLuaPlayer::lWasResurrectedBy
PUBLIC	??_C@_0CA@ILDNKAHC@GetPlayerBuildingClassHappiness?$AA@ ; `string'
PUBLIC	?lGetPlayerBuildingClassHappiness@CvLuaPlayer@@KAHPAUlua_State@@@Z ; CvLuaPlayer::lGetPlayerBuildingClassHappiness
PUBLIC	??_C@_0CC@JGCNPAK@GetPlayerBuildingClassYieldChang@ ; `string'
PUBLIC	?lGetPlayerBuildingClassYieldChange@CvLuaPlayer@@KAHPAUlua_State@@@Z ; CvLuaPlayer::lGetPlayerBuildingClassYieldChange
PUBLIC	??_C@_0CF@JKDHJBPO@GetPolicyEspionageCatchSpiesModi@ ; `string'
PUBLIC	?lGetPolicyEspionageCatchSpiesModifier@CvLuaPlayer@@KAHPAUlua_State@@@Z ; CvLuaPlayer::lGetPolicyEspionageCatchSpiesModifier
PUBLIC	??_C@_0BL@OPPCJPCB@GetPolicyEspionageModifier?$AA@ ; `string'
PUBLIC	?lGetPolicyEspionageModifier@CvLuaPlayer@@KAHPAUlua_State@@@Z ; CvLuaPlayer::lGetPolicyEspionageModifier
PUBLIC	??_C@_0CC@NHAOMIBG@GetPolicyBuildingClassYieldChang@ ; `string'
PUBLIC	?lGetPolicyBuildingClassYieldChange@CvLuaPlayer@@KAHPAUlua_State@@@Z ; CvLuaPlayer::lGetPolicyBuildingClassYieldChange
PUBLIC	??_C@_0CE@CALOGBHI@GetPolicyBuildingClassYieldModif@ ; `string'
PUBLIC	?lGetPolicyBuildingClassYieldModifier@CvLuaPlayer@@KAHPAUlua_State@@@Z ; CvLuaPlayer::lGetPolicyBuildingClassYieldModifier
PUBLIC	??_C@_0BO@LFAMHIME@GetNaturalWonderYieldModifier?$AA@ ; `string'
PUBLIC	?lGetNaturalWonderYieldModifier@CvLuaPlayer@@KAHPAUlua_State@@@Z ; CvLuaPlayer::lGetNaturalWonderYieldModifier
PUBLIC	??_C@_0BK@HADFEIC@AddTemporaryDominanceZone?$AA@ ; `string'
PUBLIC	?lAddTemporaryDominanceZone@CvLuaPlayer@@KAHPAUlua_State@@@Z ; CvLuaPlayer::lAddTemporaryDominanceZone
PUBLIC	??_C@_0BL@OACLDGB@SetEmbarkedGraphicOverride?$AA@ ; `string'
PUBLIC	?lSetEmbarkedGraphicOverride@CvLuaPlayer@@KAHPAUlua_State@@@Z ; CvLuaPlayer::lSetEmbarkedGraphicOverride
PUBLIC	??_C@_0BL@DBDHHDHB@GetEmbarkedGraphicOverride?$AA@ ; `string'
PUBLIC	?lGetEmbarkedGraphicOverride@CvLuaPlayer@@KAHPAUlua_State@@@Z ; CvLuaPlayer::lGetEmbarkedGraphicOverride
PUBLIC	??_C@_0BJ@JCAMHNPA@ChangeFreePromotionCount?$AA@ ; `string'
PUBLIC	?lChangeFreePromotionCount@CvLuaPlayer@@KAHPAUlua_State@@@Z ; CvLuaPlayer::lChangeFreePromotionCount
PUBLIC	??_C@_0BA@IKABNDKF@IsFreePromotion?$AA@		; `string'
PUBLIC	?lIsFreePromotion@CvLuaPlayer@@KAHPAUlua_State@@@Z ; CvLuaPlayer::lIsFreePromotion
PUBLIC	??_C@_0BG@IMOAGJCF@GetFreePromotionCount?$AA@	; `string'
PUBLIC	?lGetFreePromotionCount@CvLuaPlayer@@KAHPAUlua_State@@@Z ; CvLuaPlayer::lGetFreePromotionCount
PUBLIC	??_C@_0M@HCFKLKFB@GetPrevCity?$AA@		; `string'
PUBLIC	?lGetPrevCity@CvLuaPlayer@@KAHPAUlua_State@@@Z	; CvLuaPlayer::lGetPrevCity
PUBLIC	??_C@_0M@CLOHEHIF@GetNextCity?$AA@		; `string'
PUBLIC	?lGetNextCity@CvLuaPlayer@@KAHPAUlua_State@@@Z	; CvLuaPlayer::lGetNextCity
PUBLIC	??_C@_0CG@KMIEOMED@GetExtraBuildingHappinessFromPol@ ; `string'
PUBLIC	?lGetExtraBuildingHappinessFromPolicies@CvLuaPlayer@@KAHPAUlua_State@@@Z ; CvLuaPlayer::lGetExtraBuildingHappinessFromPolicies
PUBLIC	??_C@_0BK@DLAHPJGM@GetMayaCalendarLongString?$AA@ ; `string'
PUBLIC	?lGetMayaCalendarLongString@CvLuaPlayer@@KAHPAUlua_State@@@Z ; CvLuaPlayer::lGetMayaCalendarLongString
PUBLIC	??_C@_0BG@MJJNOJKC@GetMayaCalendarString?$AA@	; `string'
PUBLIC	?lGetMayaCalendarString@CvLuaPlayer@@KAHPAUlua_State@@@Z ; CvLuaPlayer::lGetMayaCalendarString
PUBLIC	??_C@_0BE@NIFMMLEP@IsUsingMayaCalendar?$AA@	; `string'
PUBLIC	?lIsUsingMayaCalendar@CvLuaPlayer@@KAHPAUlua_State@@@Z ; CvLuaPlayer::lIsUsingMayaCalendar
PUBLIC	??_C@_0CJ@NEKJJLBB@GetNumTurnsBeforeMinorAlliesRefu@ ; `string'
PUBLIC	?lGetNumTurnsBeforeMinorAlliesRefuseBribes@CvLuaPlayer@@KAHPAUlua_State@@@Z ; CvLuaPlayer::lGetNumTurnsBeforeMinorAlliesRefuseBribes
PUBLIC	??_C@_0BI@CNCMJHLM@IsAbleToAnnexCityStates?$AA@	; `string'
PUBLIC	?lIsAbleToAnnexCityStates@CvLuaPlayer@@KAHPAUlua_State@@@Z ; CvLuaPlayer::lIsAbleToAnnexCityStates
PUBLIC	??_C@_0BH@IDMIFDOJ@GetHappinessFromLuxury?$AA@	; `string'
PUBLIC	?lGetHappinessFromLuxury@CvLuaPlayer@@KAHPAUlua_State@@@Z ; CvLuaPlayer::lGetHappinessFromLuxury
PUBLIC	??_C@_0BM@IMDAONMJ@IsTraitBonusReligiousBelief?$AA@ ; `string'
PUBLIC	?lIsTraitBonusReligiousBelief@CvLuaPlayer@@KAHPAUlua_State@@@Z ; CvLuaPlayer::lIsTraitBonusReligiousBelief
PUBLIC	??_C@_0CD@LMBAJOCL@GetTraitGreatScientistRateModifi@ ; `string'
PUBLIC	?lGetTraitGreatScientistRateModifier@CvLuaPlayer@@KAHPAUlua_State@@@Z ; CvLuaPlayer::lGetTraitGreatScientistRateModifier
PUBLIC	??_C@_0BP@MDEOMKGO@GetTraitGreatGeneralExtraBonus?$AA@ ; `string'
PUBLIC	?lGetTraitGreatGeneralExtraBonus@CvLuaPlayer@@KAHPAUlua_State@@@Z ; CvLuaPlayer::lGetTraitGreatGeneralExtraBonus
PUBLIC	??_C@_0CA@EMLNFCFE@GetTraitCityStateCombatModifier?$AA@ ; `string'
PUBLIC	?lGetTraitCityStateCombatModifier@CvLuaPlayer@@KAHPAUlua_State@@@Z ; CvLuaPlayer::lGetTraitCityStateCombatModifier
PUBLIC	??_C@_0CA@DCDDHCMD@GetTraitGoldenAgeCombatModifier?$AA@ ; `string'
PUBLIC	?lGetTraitGoldenAgeCombatModifier@CvLuaPlayer@@KAHPAUlua_State@@@Z ; CvLuaPlayer::lGetTraitGoldenAgeCombatModifier
PUBLIC	??_C@_0BM@EMKOFIFL@IsFreeMayaGreatPersonChoice?$AA@ ; `string'
PUBLIC	?lIsFreeMayaGreatPersonChoice@CvLuaPlayer@@KAHPAUlua_State@@@Z ; CvLuaPlayer::lIsFreeMayaGreatPersonChoice
PUBLIC	??_C@_0O@JDHKMAFF@GetUnitBaktun?$AA@		; `string'
PUBLIC	?lGetUnitBaktun@CvLuaPlayer@@KAHPAUlua_State@@@Z ; CvLuaPlayer::lGetUnitBaktun
PUBLIC	??_C@_0BK@FPGICLJB@ChangeNumFaithGreatPeople?$AA@ ; `string'
PUBLIC	?lChangeNumFaithGreatPeople@CvLuaPlayer@@KAHPAUlua_State@@@Z ; CvLuaPlayer::lChangeNumFaithGreatPeople
PUBLIC	??_C@_0BH@KIOBMGAB@SetNumFaithGreatPeople?$AA@	; `string'
PUBLIC	?lSetNumFaithGreatPeople@CvLuaPlayer@@KAHPAUlua_State@@@Z ; CvLuaPlayer::lSetNumFaithGreatPeople
PUBLIC	??_C@_0BH@KJMPOBNO@GetNumFaithGreatPeople?$AA@	; `string'
PUBLIC	?lGetNumFaithGreatPeople@CvLuaPlayer@@KAHPAUlua_State@@@Z ; CvLuaPlayer::lGetNumFaithGreatPeople
PUBLIC	??_C@_0BE@GAIHGDCB@ChangeNumMayaBoosts?$AA@	; `string'
PUBLIC	?lChangeNumMayaBoosts@CvLuaPlayer@@KAHPAUlua_State@@@Z ; CvLuaPlayer::lChangeNumMayaBoosts
PUBLIC	??_C@_0BB@HCNHEJE@SetNumMayaBoosts?$AA@		; `string'
PUBLIC	?lSetNumMayaBoosts@CvLuaPlayer@@KAHPAUlua_State@@@Z ; CvLuaPlayer::lSetNumMayaBoosts
PUBLIC	??_C@_0BB@GDHEMKCG@GetNumMayaBoosts?$AA@	; `string'
PUBLIC	?lGetNumMayaBoosts@CvLuaPlayer@@KAHPAUlua_State@@@Z ; CvLuaPlayer::lGetNumMayaBoosts
PUBLIC	??_C@_0BJ@DACMHFAL@ChangeNumFreeGreatPeople?$AA@ ; `string'
PUBLIC	?lChangeNumFreeGreatPeople@CvLuaPlayer@@KAHPAUlua_State@@@Z ; CvLuaPlayer::lChangeNumFreeGreatPeople
PUBLIC	??_C@_0BG@NLJGLIJP@SetNumFreeGreatPeople?$AA@	; `string'
PUBLIC	?lSetNumFreeGreatPeople@CvLuaPlayer@@KAHPAUlua_State@@@Z ; CvLuaPlayer::lSetNumFreeGreatPeople
PUBLIC	??_C@_0BG@COMAGBNO@GetNumFreeGreatPeople?$AA@	; `string'
PUBLIC	?lGetNumFreeGreatPeople@CvLuaPlayer@@KAHPAUlua_State@@@Z ; CvLuaPlayer::lGetNumFreeGreatPeople
PUBLIC	??_C@_0BE@KMAGMKHA@ChangeNumFreeTenets?$AA@	; `string'
PUBLIC	?lChangeNumFreeTenets@CvLuaPlayer@@KAHPAUlua_State@@@Z ; CvLuaPlayer::lChangeNumFreeTenets
PUBLIC	??_C@_0BB@MLKMNNMF@SetNumFreeTenets?$AA@	; `string'
PUBLIC	?lSetNumFreeTenets@CvLuaPlayer@@KAHPAUlua_State@@@Z ; CvLuaPlayer::lSetNumFreeTenets
PUBLIC	??_C@_0BB@KPPFGDHH@GetNumFreeTenets?$AA@	; `string'
PUBLIC	?lGetNumFreeTenets@CvLuaPlayer@@KAHPAUlua_State@@@Z ; CvLuaPlayer::lGetNumFreeTenets
PUBLIC	??_C@_0BG@NPJFLNFP@ChangeNumFreePolicies?$AA@	; `string'
PUBLIC	?lChangeNumFreePolicies@CvLuaPlayer@@KAHPAUlua_State@@@Z ; CvLuaPlayer::lChangeNumFreePolicies
PUBLIC	??_C@_0BD@MFPEAFMP@SetNumFreePolicies?$AA@	; `string'
PUBLIC	?lSetNumFreePolicies@CvLuaPlayer@@KAHPAUlua_State@@@Z ; CvLuaPlayer::lSetNumFreePolicies
PUBLIC	??_C@_0BD@DPNODDCH@GetNumFreePolicies?$AA@	; `string'
PUBLIC	?lGetNumFreePolicies@CvLuaPlayer@@KAHPAUlua_State@@@Z ; CvLuaPlayer::lGetNumFreePolicies
PUBLIC	??_C@_0BA@LBJBLEHP@SetNumFreeTechs?$AA@		; `string'
PUBLIC	?lSetNumFreeTechs@CvLuaPlayer@@KAHPAUlua_State@@@Z ; CvLuaPlayer::lSetNumFreeTechs
PUBLIC	??_C@_0BA@IDIHMGGG@GetNumFreeTechs?$AA@		; `string'
PUBLIC	?lGetNumFreeTechs@CvLuaPlayer@@KAHPAUlua_State@@@Z ; CvLuaPlayer::lGetNumFreeTechs
PUBLIC	??_C@_0BG@OAGGOFCC@GetEverTrainedBuilder?$AA@	; `string'
PUBLIC	?lGetEverTrainedBuilder@CvLuaPlayer@@KAHPAUlua_State@@@Z ; CvLuaPlayer::lGetEverTrainedBuilder
PUBLIC	??_C@_0BK@EHCBLBBJ@GetAnyUnitHasOrderToGoody?$AA@ ; `string'
PUBLIC	?lGetAnyUnitHasOrderToGoody@CvLuaPlayer@@KAHPAUlua_State@@@Z ; CvLuaPlayer::lGetAnyUnitHasOrderToGoody
PUBLIC	??_C@_0BA@GECDJOIG@GetPlotHasOrder?$AA@		; `string'
PUBLIC	?lGetPlotHasOrder@CvLuaPlayer@@KAHPAUlua_State@@@Z ; CvLuaPlayer::lGetPlotHasOrder
PUBLIC	??_C@_0BJ@ELMHMJBB@IsAnyGoodyPlotAccessible?$AA@ ; `string'
PUBLIC	?lIsAnyGoodyPlotAccessible@CvLuaPlayer@@KAHPAUlua_State@@@Z ; CvLuaPlayer::lIsAnyGoodyPlotAccessible
PUBLIC	??_C@_0BE@EJDMDOAD@GetClosestGoodyPlot?$AA@	; `string'
PUBLIC	?lGetClosestGoodyPlot@CvLuaPlayer@@KAHPAUlua_State@@@Z ; CvLuaPlayer::lGetClosestGoodyPlot
PUBLIC	??_C@_0BD@FBANDIAJ@GetEverPoppedGoody?$AA@	; `string'
PUBLIC	?lGetEverPoppedGoody@CvLuaPlayer@@KAHPAUlua_State@@@Z ; CvLuaPlayer::lGetEverPoppedGoody
PUBLIC	??_C@_0BF@CDGMGBGG@GetPlayerVisiblePlot?$AA@	; `string'
PUBLIC	?lGetPlayerVisiblePlot@CvLuaPlayer@@KAHPAUlua_State@@@Z ; CvLuaPlayer::lGetPlayerVisiblePlot
PUBLIC	??_C@_0BC@BHJMCOLH@IsAnyPlotImproved?$AA@	; `string'
PUBLIC	?lIsAnyPlotImproved@CvLuaPlayer@@KAHPAUlua_State@@@Z ; CvLuaPlayer::lIsAnyPlotImproved
PUBLIC	??_C@_0CF@NDFOBFBD@GetUnimprovedAvailableLuxuryReso@ ; `string'
PUBLIC	?lGetUnimprovedAvailableLuxuryResource@CvLuaPlayer@@KAHPAUlua_State@@@Z ; CvLuaPlayer::lGetUnimprovedAvailableLuxuryResource
PUBLIC	??_C@_0BN@NABAJGIG@GetRecommendedFoundCityPlots?$AA@ ; `string'
PUBLIC	?lGetRecommendedFoundCityPlots@CvLuaPlayer@@KAHPAUlua_State@@@Z ; CvLuaPlayer::lGetRecommendedFoundCityPlots
PUBLIC	??_C@_0BK@IEOBAACD@GetRecommendedWorkerPlots?$AA@ ; `string'
PUBLIC	?lGetRecommendedWorkerPlots@CvLuaPlayer@@KAHPAUlua_State@@@Z ; CvLuaPlayer::lGetRecommendedWorkerPlots
PUBLIC	??_C@_0BA@NLGHGOFB@AddNotification?$AA@		; `string'
PUBLIC	?lAddNotification@CvLuaPlayer@@KAHPAUlua_State@@@Z ; CvLuaPlayer::lAddNotification
PUBLIC	??_C@_0BJ@HFINLBBC@GetNotificationDismissed?$AA@ ; `string'
PUBLIC	?lGetNotificationDismissed@CvLuaPlayer@@KAHPAUlua_State@@@Z ; CvLuaPlayer::lGetNotificationDismissed
PUBLIC	??_C@_0BE@EKFOPKPG@GetNotificationTurn?$AA@	; `string'
PUBLIC	?lGetNotificationTurn@CvLuaPlayer@@KAHPAUlua_State@@@Z ; CvLuaPlayer::lGetNotificationTurn
PUBLIC	??_C@_0BF@GCCNKKFJ@GetNotificationIndex?$AA@	; `string'
PUBLIC	?lGetNotificationIndex@CvLuaPlayer@@KAHPAUlua_State@@@Z ; CvLuaPlayer::lGetNotificationIndex
PUBLIC	??_C@_0BK@ELPNEPCO@GetNotificationSummaryStr?$AA@ ; `string'
PUBLIC	?lGetNotificationSummaryStr@CvLuaPlayer@@KAHPAUlua_State@@@Z ; CvLuaPlayer::lGetNotificationSummaryStr
PUBLIC	??_C@_0BD@LHEAKJLF@GetNotificationStr?$AA@	; `string'
PUBLIC	?lGetNotificationStr@CvLuaPlayer@@KAHPAUlua_State@@@Z ; CvLuaPlayer::lGetNotificationStr
PUBLIC	??_C@_0BE@GFFKJPPB@GetNumNotifications?$AA@	; `string'
PUBLIC	?lGetNumNotifications@CvLuaPlayer@@KAHPAUlua_State@@@Z ; CvLuaPlayer::lGetNumNotifications
PUBLIC	??_C@_0BA@NIECGIBE@DoForceDenounce?$AA@		; `string'
PUBLIC	?lDoForceDenounce@CvLuaPlayer@@KAHPAUlua_State@@@Z ; CvLuaPlayer::lDoForceDenounce
PUBLIC	??_C@_0L@CDNNFMCG@DoForceDoF?$AA@		; `string'
PUBLIC	?lDoForceDoF@CvLuaPlayer@@KAHPAUlua_State@@@Z	; CvLuaPlayer::lDoForceDoF
PUBLIC	??_C@_0BM@GOJPPKLC@GetNumTimesIntrigueSharedBy?$AA@ ; `string'
PUBLIC	?lGetNumTimesIntrigueSharedBy@CvLuaPlayer@@KAHPAUlua_State@@@Z ; CvLuaPlayer::lGetNumTimesIntrigueSharedBy
PUBLIC	??_C@_0BE@ONPDCEII@GetNumTimesRobbedBy?$AA@	; `string'
PUBLIC	?lGetNumTimesRobbedBy@CvLuaPlayer@@KAHPAUlua_State@@@Z ; CvLuaPlayer::lGetNumTimesRobbedBy
PUBLIC	??_C@_0CJ@HNAICDID@IsAngryAboutSidedWithTheirProtec@ ; `string'
PUBLIC	?lIsAngryAboutSidedWithTheirProtectedMinor@CvLuaPlayer@@KAHPAUlua_State@@@Z ; CvLuaPlayer::lIsAngryAboutSidedWithTheirProtectedMinor
PUBLIC	??_C@_0CC@CKPNELPJ@IsAngryAboutProtectedMinorBullie@ ; `string'
PUBLIC	?lIsAngryAboutProtectedMinorBullied@CvLuaPlayer@@KAHPAUlua_State@@@Z ; CvLuaPlayer::lIsAngryAboutProtectedMinorBullied
PUBLIC	??_C@_0CD@HDPPOBNJ@IsAngryAboutProtectedMinorAttack@ ; `string'
PUBLIC	?lIsAngryAboutProtectedMinorAttacked@CvLuaPlayer@@KAHPAUlua_State@@@Z ; CvLuaPlayer::lIsAngryAboutProtectedMinorAttacked
PUBLIC	??_C@_0CB@CJDCIHKM@IsAngryAboutProtectedMinorKilled@ ; `string'
PUBLIC	?lIsAngryAboutProtectedMinorKilled@CvLuaPlayer@@KAHPAUlua_State@@@Z ; CvLuaPlayer::lIsAngryAboutProtectedMinorKilled
PUBLIC	??_C@_0BE@JNJDNMPI@IsCapitalCapturedBy?$AA@	; `string'
PUBLIC	?lIsCapitalCapturedBy@CvLuaPlayer@@KAHPAUlua_State@@@Z ; CvLuaPlayer::lIsCapitalCapturedBy
PUBLIC	??_C@_09DPPFJHEB@IsNukedBy?$AA@			; `string'
PUBLIC	?lIsNukedBy@CvLuaPlayer@@KAHPAUlua_State@@@Z	; CvLuaPlayer::lIsNukedBy
PUBLIC	??_C@_0BD@GACGPEPG@IsHasPaidTributeTo?$AA@	; `string'
PUBLIC	?lIsHasPaidTributeTo@CvLuaPlayer@@KAHPAUlua_State@@@Z ; CvLuaPlayer::lIsHasPaidTributeTo
PUBLIC	??_C@_0BD@IPDLFGDH@IsGaveAssistanceTo?$AA@	; `string'
PUBLIC	?lIsGaveAssistanceTo@CvLuaPlayer@@KAHPAUlua_State@@@Z ; CvLuaPlayer::lIsGaveAssistanceTo
PUBLIC	??_C@_0BF@KCNKODGD@GetRecentAssistValue?$AA@	; `string'
PUBLIC	?lGetRecentAssistValue@CvLuaPlayer@@KAHPAUlua_State@@@Z ; CvLuaPlayer::lGetRecentAssistValue
PUBLIC	??_C@_0BC@IFLMMGKH@GetCommonFoeValue?$AA@	; `string'
PUBLIC	?lGetCommonFoeValue@CvLuaPlayer@@KAHPAUlua_State@@@Z ; CvLuaPlayer::lGetCommonFoeValue
PUBLIC	??_C@_0BE@FPCOMDEJ@GetRecentTradeValue?$AA@	; `string'
PUBLIC	?lGetRecentTradeValue@CvLuaPlayer@@KAHPAUlua_State@@@Z ; CvLuaPlayer::lGetRecentTradeValue
PUBLIC	??_C@_0BJ@DMOODLIP@IsPlayerRecklessExpander?$AA@ ; `string'
PUBLIC	?lIsPlayerRecklessExpander@CvLuaPlayer@@KAHPAUlua_State@@@Z ; CvLuaPlayer::lIsPlayerRecklessExpander
PUBLIC	??_C@_0BD@PMGAKDPI@IsDenouncingPlayer?$AA@	; `string'
PUBLIC	?lIsDenouncingPlayer@CvLuaPlayer@@KAHPAUlua_State@@@Z ; CvLuaPlayer::lIsDenouncingPlayer
PUBLIC	??_C@_0BK@FHGEGONP@GetDenouncedPlayerCounter?$AA@ ; `string'
PUBLIC	?lGetDenouncedPlayerCounter@CvLuaPlayer@@KAHPAUlua_State@@@Z ; CvLuaPlayer::lGetDenouncedPlayerCounter
PUBLIC	??_C@_0BC@HDCKECNO@IsDenouncedPlayer?$AA@	; `string'
PUBLIC	?lIsDenouncedPlayer@CvLuaPlayer@@KAHPAUlua_State@@@Z ; CvLuaPlayer::lIsDenouncedPlayer
PUBLIC	??_C@_0CB@PGJLPOEE@IsHasPlayerBulliedProtectedMinor@ ; `string'
PUBLIC	?lIsHasPlayerBulliedProtectedMinor@CvLuaPlayer@@KAHPAUlua_State@@@Z ; CvLuaPlayer::lIsHasPlayerBulliedProtectedMinor
PUBLIC	??_C@_0CJ@DIAPIEBB@GetTurnsSincePlayerBulliedProtec@ ; `string'
PUBLIC	?lGetTurnsSincePlayerBulliedProtectedMinor@CvLuaPlayer@@KAHPAUlua_State@@@Z ; CvLuaPlayer::lGetTurnsSincePlayerBulliedProtectedMinor
PUBLIC	??_C@_0CJ@OFLJGKFO@GetOtherPlayerNumProtectedMinors@ ; `string'
PUBLIC	?lGetOtherPlayerNumProtectedMinorsAttacked@CvLuaPlayer@@KAHPAUlua_State@@@Z ; CvLuaPlayer::lGetOtherPlayerNumProtectedMinorsAttacked
PUBLIC	??_C@_0CH@NFMJJPAP@GetOtherPlayerNumProtectedMinors@ ; `string'
PUBLIC	?lGetOtherPlayerNumProtectedMinorsKilled@CvLuaPlayer@@KAHPAUlua_State@@@Z ; CvLuaPlayer::lGetOtherPlayerNumProtectedMinorsKilled
PUBLIC	??_C@_0BN@HMMNHODE@IsPlayerBrokenCoopWarPromise?$AA@ ; `string'
PUBLIC	?lIsPlayerBrokenCoopWarPromise@CvLuaPlayer@@KAHPAUlua_State@@@Z ; CvLuaPlayer::lIsPlayerBrokenCoopWarPromise
PUBLIC	??_C@_0CA@CMEPJCFP@IsPlayerIgnoredNoDiggingPromise?$AA@ ; `string'
PUBLIC	?lIsPlayerIgnoredNoDiggingPromise@CvLuaPlayer@@KAHPAUlua_State@@@Z ; CvLuaPlayer::lIsPlayerIgnoredNoDiggingPromise
PUBLIC	??_C@_0BP@LFBLAEPB@IsPlayerBrokenNoDiggingPromise?$AA@ ; `string'
PUBLIC	?lIsPlayerBrokenNoDiggingPromise@CvLuaPlayer@@KAHPAUlua_State@@@Z ; CvLuaPlayer::lIsPlayerBrokenNoDiggingPromise
PUBLIC	??_C@_0CA@PNGBPAJN@IsPlayerIgnoredNoConvertPromise?$AA@ ; `string'
PUBLIC	?lIsPlayerIgnoredNoConvertPromise@CvLuaPlayer@@KAHPAUlua_State@@@Z ; CvLuaPlayer::lIsPlayerIgnoredNoConvertPromise
PUBLIC	??_C@_0BP@GEDFGGDD@IsPlayerBrokenNoConvertPromise?$AA@ ; `string'
PUBLIC	?lIsPlayerBrokenNoConvertPromise@CvLuaPlayer@@KAHPAUlua_State@@@Z ; CvLuaPlayer::lIsPlayerBrokenNoConvertPromise
PUBLIC	??_C@_0BK@OGDKEICG@IsPlayerForgivenForSpying?$AA@ ; `string'
PUBLIC	?lIsPlayerForgivenForSpying@CvLuaPlayer@@KAHPAUlua_State@@@Z ; CvLuaPlayer::lIsPlayerForgivenForSpying
PUBLIC	??_C@_0BK@JEDEIMK@IsPlayerIgnoredSpyPromise?$AA@ ; `string'
PUBLIC	?lIsPlayerIgnoredSpyPromise@CvLuaPlayer@@KAHPAUlua_State@@@Z ; CvLuaPlayer::lIsPlayerIgnoredSpyPromise
PUBLIC	??_C@_0BJ@JNJJEOK@IsPlayerBrokenSpyPromise?$AA@	; `string'
PUBLIC	?lIsPlayerBrokenSpyPromise@CvLuaPlayer@@KAHPAUlua_State@@@Z ; CvLuaPlayer::lIsPlayerBrokenSpyPromise
PUBLIC	??_C@_0CF@KFJMCHGJ@IsPlayerIgnoredBullyCityStatePro@ ; `string'
PUBLIC	?lIsPlayerIgnoredBullyCityStatePromise@CvLuaPlayer@@KAHPAUlua_State@@@Z ; CvLuaPlayer::lIsPlayerIgnoredBullyCityStatePromise
PUBLIC	??_C@_0CE@DJJGAPNJ@IsPlayerBrokenBullyCityStateProm@ ; `string'
PUBLIC	?lIsPlayerBrokenBullyCityStatePromise@CvLuaPlayer@@KAHPAUlua_State@@@Z ; CvLuaPlayer::lIsPlayerBrokenBullyCityStatePromise
PUBLIC	??_C@_0CG@KKPEMKMO@IsPlayerIgnoredAttackCityStatePr@ ; `string'
PUBLIC	?lIsPlayerIgnoredAttackCityStatePromise@CvLuaPlayer@@KAHPAUlua_State@@@Z ; CvLuaPlayer::lIsPlayerIgnoredAttackCityStatePromise
PUBLIC	??_C@_0CF@GBAJHDGK@IsPlayerBrokenAttackCityStatePro@ ; `string'
PUBLIC	?lIsPlayerBrokenAttackCityStatePromise@CvLuaPlayer@@KAHPAUlua_State@@@Z ; CvLuaPlayer::lIsPlayerBrokenAttackCityStatePromise
PUBLIC	??_C@_0BN@GFDNDNLB@IsPlayerIgnoredBorderPromise?$AA@ ; `string'
PUBLIC	?lIsPlayerIgnoredBorderPromise@CvLuaPlayer@@KAHPAUlua_State@@@Z ; CvLuaPlayer::lIsPlayerIgnoredBorderPromise
PUBLIC	??_C@_0BM@GACHILBI@IsPlayerBrokenBorderPromise?$AA@ ; `string'
PUBLIC	?lIsPlayerBrokenBorderPromise@CvLuaPlayer@@KAHPAUlua_State@@@Z ; CvLuaPlayer::lIsPlayerBrokenBorderPromise
PUBLIC	??_C@_0CA@DMHDJLCE@IsPlayerIgnoredExpansionPromise?$AA@ ; `string'
PUBLIC	?lIsPlayerIgnoredExpansionPromise@CvLuaPlayer@@KAHPAUlua_State@@@Z ; CvLuaPlayer::lIsPlayerIgnoredExpansionPromise
PUBLIC	??_C@_0BP@KFCHANIK@IsPlayerBrokenExpansionPromise?$AA@ ; `string'
PUBLIC	?lIsPlayerBrokenExpansionPromise@CvLuaPlayer@@KAHPAUlua_State@@@Z ; CvLuaPlayer::lIsPlayerBrokenExpansionPromise
PUBLIC	??_C@_0BP@EKOONDLN@IsPlayerIgnoredMilitaryPromise?$AA@ ; `string'
PUBLIC	?lIsPlayerIgnoredMilitaryPromise@CvLuaPlayer@@KAHPAUlua_State@@@Z ; CvLuaPlayer::lIsPlayerIgnoredMilitaryPromise
PUBLIC	??_C@_0BO@BHCJMHLO@IsPlayerBrokenMilitaryPromise?$AA@ ; `string'
PUBLIC	?lIsPlayerBrokenMilitaryPromise@CvLuaPlayer@@KAHPAUlua_State@@@Z ; CvLuaPlayer::lIsPlayerBrokenMilitaryPromise
PUBLIC	??_C@_0BO@FJLIBNNG@HasOthersReligionInMostCities?$AA@ ; `string'
PUBLIC	?lHasOthersReligionInMostCities@CvLuaPlayer@@KAHPAUlua_State@@@Z ; CvLuaPlayer::lHasOthersReligionInMostCities
PUBLIC	??_C@_0BN@OAEOBIFG@GetNegativeArchaeologyPoints?$AA@ ; `string'
PUBLIC	?lGetNegativeArchaeologyPoints@CvLuaPlayer@@KAHPAUlua_State@@@Z ; CvLuaPlayer::lGetNegativeArchaeologyPoints
PUBLIC	??_C@_0CF@NJLECOGK@GetNegativeReligiousConversionPo@ ; `string'
PUBLIC	?lGetNegativeReligiousConversionPoints@CvLuaPlayer@@KAHPAUlua_State@@@Z ; CvLuaPlayer::lGetNegativeReligiousConversionPoints
PUBLIC	??_C@_0BJ@MPACPFAF@GetNumTimesCultureBombed?$AA@ ; `string'
PUBLIC	?lGetNumTimesCultureBombed@CvLuaPlayer@@KAHPAUlua_State@@@Z ; CvLuaPlayer::lGetNumTimesCultureBombed
PUBLIC	??_C@_0BK@BIEGDACJ@GetNumLandmarksBuiltForMe?$AA@ ; `string'
PUBLIC	?lGetNumLandmarksBuiltForMe@CvLuaPlayer@@KAHPAUlua_State@@@Z ; CvLuaPlayer::lGetNumLandmarksBuiltForMe
PUBLIC	??_C@_0BM@GINOMEII@GetNumCiviliansReturnedToMe?$AA@ ; `string'
PUBLIC	?lGetNumCiviliansReturnedToMe@CvLuaPlayer@@KAHPAUlua_State@@@Z ; CvLuaPlayer::lGetNumCiviliansReturnedToMe
PUBLIC	??_C@_0BB@IBMCHFPO@IsDemandEverMade?$AA@	; `string'
PUBLIC	?lIsDemandEverMade@CvLuaPlayer@@KAHPAUlua_State@@@Z ; CvLuaPlayer::lIsDemandEverMade
PUBLIC	??_C@_0CD@CHPAFEIM@IsPlayerStopSpyingRequestEverAsk@ ; `string'
PUBLIC	?lIsPlayerStopSpyingRequestEverAsked@CvLuaPlayer@@KAHPAUlua_State@@@Z ; CvLuaPlayer::lIsPlayerStopSpyingRequestEverAsked
PUBLIC	??_C@_0CB@GCCLPOAG@IsPlayerNoSettleRequestEverAsked@ ; `string'
PUBLIC	?lIsPlayerNoSettleRequestEverAsked@CvLuaPlayer@@KAHPAUlua_State@@@Z ; CvLuaPlayer::lIsPlayerNoSettleRequestEverAsked
PUBLIC	??_C@_0BD@JHLIJIIK@GetWarmongerThreat?$AA@	; `string'
PUBLIC	?lGetWarmongerThreat@CvLuaPlayer@@KAHPAUlua_State@@@Z ; CvLuaPlayer::lGetWarmongerThreat
PUBLIC	??_C@_0BI@GGMBMANL@GetMinorCivDisputeLevel?$AA@	; `string'
PUBLIC	?lGetMinorCivDisputeLevel@CvLuaPlayer@@KAHPAUlua_State@@@Z ; CvLuaPlayer::lGetMinorCivDisputeLevel
PUBLIC	??_C@_0BG@MFADFIMK@GetWonderDisputeLevel?$AA@	; `string'
PUBLIC	?lGetWonderDisputeLevel@CvLuaPlayer@@KAHPAUlua_State@@@Z ; CvLuaPlayer::lGetWonderDisputeLevel
PUBLIC	??_C@_0BH@JMIFEEOF@GetVictoryDisputeLevel?$AA@	; `string'
PUBLIC	?lGetVictoryDisputeLevel@CvLuaPlayer@@KAHPAUlua_State@@@Z ; CvLuaPlayer::lGetVictoryDisputeLevel
PUBLIC	??_C@_0BE@CELFPMFO@GetLandDisputeLevel?$AA@	; `string'
PUBLIC	?lGetLandDisputeLevel@CvLuaPlayer@@KAHPAUlua_State@@@Z ; CvLuaPlayer::lGetLandDisputeLevel
PUBLIC	??_C@_0BB@MIPPFJMJ@GetNumWarsFought?$AA@	; `string'
PUBLIC	?lGetNumWarsFought@CvLuaPlayer@@KAHPAUlua_State@@@Z ; CvLuaPlayer::lGetNumWarsFought
PUBLIC	??_C@_0BI@ONIAOIGJ@GetCoopWarAcceptedState?$AA@	; `string'
PUBLIC	?lGetCoopWarAcceptedState@CvLuaPlayer@@KAHPAUlua_State@@@Z ; CvLuaPlayer::lGetCoopWarAcceptedState
PUBLIC	??_C@_0BO@EBKDJHNI@GetWeDeclaredWarOnFriendCount?$AA@ ; `string'
PUBLIC	?lGetWeDeclaredWarOnFriendCount@CvLuaPlayer@@KAHPAUlua_State@@@Z ; CvLuaPlayer::lGetWeDeclaredWarOnFriendCount
PUBLIC	??_C@_0BI@MGHNFKKL@IsFriendDeclaredWarOnUs?$AA@	; `string'
PUBLIC	?lIsFriendDeclaredWarOnUs@CvLuaPlayer@@KAHPAUlua_State@@@Z ; CvLuaPlayer::lIsFriendDeclaredWarOnUs
PUBLIC	??_C@_0BK@IDKHACJI@GetWeDenouncedFriendCount?$AA@ ; `string'
PUBLIC	?lGetWeDenouncedFriendCount@CvLuaPlayer@@KAHPAUlua_State@@@Z ; CvLuaPlayer::lGetWeDenouncedFriendCount
PUBLIC	??_C@_0BE@JKLIMJPC@IsFriendDenouncedUs?$AA@	; `string'
PUBLIC	?lIsFriendDenouncedUs@CvLuaPlayer@@KAHPAUlua_State@@@Z ; CvLuaPlayer::lIsFriendDenouncedUs
PUBLIC	??_C@_0BJ@JPDNMDCJ@GetNumFriendsDenouncedBy?$AA@ ; `string'
PUBLIC	?lGetNumFriendsDenouncedBy@CvLuaPlayer@@KAHPAUlua_State@@@Z ; CvLuaPlayer::lGetNumFriendsDenouncedBy
PUBLIC	??_C@_0BG@HIMKCHLJ@IsUntrustworthyFriend?$AA@	; `string'
PUBLIC	?lIsUntrustworthyFriend@CvLuaPlayer@@KAHPAUlua_State@@@Z ; CvLuaPlayer::lIsUntrustworthyFriend
PUBLIC	??_C@_0BH@DPEOLAFH@IsPlayerDenouncedEnemy?$AA@	; `string'
PUBLIC	?lIsPlayerDenouncedEnemy@CvLuaPlayer@@KAHPAUlua_State@@@Z ; CvLuaPlayer::lIsPlayerDenouncedEnemy
PUBLIC	??_C@_0BI@KIHAIMCC@IsPlayerDenouncedFriend?$AA@	; `string'
PUBLIC	?lIsPlayerDenouncedFriend@CvLuaPlayer@@KAHPAUlua_State@@@Z ; CvLuaPlayer::lIsPlayerDenouncedFriend
PUBLIC	??_C@_0BI@CEGOAGDE@IsPlayerDoFwithAnyEnemy?$AA@	; `string'
PUBLIC	?lIsPlayerDoFwithAnyEnemy@CvLuaPlayer@@KAHPAUlua_State@@@Z ; CvLuaPlayer::lIsPlayerDoFwithAnyEnemy
PUBLIC	??_C@_0BJ@HMNAJMHG@IsPlayerDoFwithAnyFriend?$AA@ ; `string'
PUBLIC	?lIsPlayerDoFwithAnyFriend@CvLuaPlayer@@KAHPAUlua_State@@@Z ; CvLuaPlayer::lIsPlayerDoFwithAnyFriend
PUBLIC	??_C@_0O@MFBMMOPK@GetDoFCounter?$AA@		; `string'
PUBLIC	?lGetDoFCounter@CvLuaPlayer@@KAHPAUlua_State@@@Z ; CvLuaPlayer::lGetDoFCounter
PUBLIC	??_C@_05CJMGDEBD@IsDoF?$AA@			; `string'
PUBLIC	?lIsDoF@CvLuaPlayer@@KAHPAUlua_State@@@Z	; CvLuaPlayer::lIsDoF
PUBLIC	??_C@_0BE@LAJMIPAI@IsDoFMessageTooSoon?$AA@	; `string'
PUBLIC	?lIsDoFMessageTooSoon@CvLuaPlayer@@KAHPAUlua_State@@@Z ; CvLuaPlayer::lIsDoFMessageTooSoon
PUBLIC	??_C@_0BF@FNMHBNF@IsAskedToStopDigging?$AA@	; `string'
PUBLIC	?lIsAskedToStopDigging@CvLuaPlayer@@KAHPAUlua_State@@@Z ; CvLuaPlayer::lIsAskedToStopDigging
PUBLIC	??_C@_0BI@LALLCFLJ@IsAskedToStopConverting?$AA@	; `string'
PUBLIC	?lIsAskedToStopConverting@CvLuaPlayer@@KAHPAUlua_State@@@Z ; CvLuaPlayer::lIsAskedToStopConverting
PUBLIC	??_C@_0BL@BBLJBNNC@IsStopSpyingMessageTooSoon?$AA@ ; `string'
PUBLIC	?lIsStopSpyingMessageTooSoon@CvLuaPlayer@@KAHPAUlua_State@@@Z ; CvLuaPlayer::lIsStopSpyingMessageTooSoon
PUBLIC	??_C@_0BL@MHKHJIDJ@IsDontSettleMessageTooSoon?$AA@ ; `string'
PUBLIC	?lIsDontSettleMessageTooSoon@CvLuaPlayer@@KAHPAUlua_State@@@Z ; CvLuaPlayer::lIsDontSettleMessageTooSoon
PUBLIC	??_C@_0BC@HEIJGBFF@IsProtectingMinor?$AA@	; `string'
PUBLIC	?lIsProtectingMinor@CvLuaPlayer@@KAHPAUlua_State@@@Z ; CvLuaPlayer::lIsProtectingMinor
PUBLIC	??_C@_0BM@LHDCKAOD@IsWillAcceptPeaceWithPlayer?$AA@ ; `string'
PUBLIC	?lIsWillAcceptPeaceWithPlayer@CvLuaPlayer@@KAHPAUlua_State@@@Z ; CvLuaPlayer::lIsWillAcceptPeaceWithPlayer
PUBLIC	??_C@_0BK@GFGFENAL@GetApproachTowardsUsGuess?$AA@ ; `string'
PUBLIC	?lGetApproachTowardsUsGuess@CvLuaPlayer@@KAHPAUlua_State@@@Z ; CvLuaPlayer::lGetApproachTowardsUsGuess
PUBLIC	??_C@_0BE@GJBEAAFB@GetMajorCivApproach?$AA@	; `string'
PUBLIC	?lGetMajorCivApproach@CvLuaPlayer@@KAHPAUlua_State@@@Z ; CvLuaPlayer::lGetMajorCivApproach
PUBLIC	??_C@_0BE@FFBOAELH@DoTradeScreenClosed?$AA@	; `string'
PUBLIC	?lDoTradeScreenClosed@CvLuaPlayer@@KAHPAUlua_State@@@Z ; CvLuaPlayer::lDoTradeScreenClosed
PUBLIC	??_C@_0BE@OGJDLMA@DoTradeScreenOpened?$AA@	; `string'
PUBLIC	?lDoTradeScreenOpened@CvLuaPlayer@@KAHPAUlua_State@@@Z ; CvLuaPlayer::lDoTradeScreenOpened
PUBLIC	??_C@_0BG@ONJJPLPE@DoBeginDiploWithHuman?$AA@	; `string'
PUBLIC	?lDoBeginDiploWithHuman@CvLuaPlayer@@KAHPAUlua_State@@@Z ; CvLuaPlayer::lDoBeginDiploWithHuman
PUBLIC	??_C@_0O@IGAPHJLG@GetPlotDanger?$AA@		; `string'
PUBLIC	?lGetPlotDanger@CvLuaPlayer@@KAHPAUlua_State@@@Z ; CvLuaPlayer::lGetPlotDanger
PUBLIC	??_C@_0P@CLDNCOML@GetBuyPlotCost?$AA@		; `string'
PUBLIC	?lGetBuyPlotCost@CvLuaPlayer@@KAHPAUlua_State@@@Z ; CvLuaPlayer::lGetBuyPlotCost
PUBLIC	??_C@_0BF@KIAMDGLE@ChangeNumPlotsBought?$AA@	; `string'
PUBLIC	?lChangeNumPlotsBought@CvLuaPlayer@@KAHPAUlua_State@@@Z ; CvLuaPlayer::lChangeNumPlotsBought
PUBLIC	??_C@_0BC@BDGANLKA@SetNumPlotsBought?$AA@	; `string'
PUBLIC	?lSetNumPlotsBought@CvLuaPlayer@@KAHPAUlua_State@@@Z ; CvLuaPlayer::lSetNumPlotsBought
PUBLIC	??_C@_0BC@DGGLFALO@GetNumPlotsBought?$AA@	; `string'
PUBLIC	?lGetNumPlotsBought@CvLuaPlayer@@KAHPAUlua_State@@@Z ; CvLuaPlayer::lGetNumPlotsBought
PUBLIC	??_C@_0M@GCJCINGE@GetNumPlots?$AA@		; `string'
PUBLIC	?lGetNumPlots@CvLuaPlayer@@KAHPAUlua_State@@@Z	; CvLuaPlayer::lGetNumPlots
PUBLIC	??_C@_0O@PGOPIEFE@SetScriptData?$AA@		; `string'
PUBLIC	?lSetScriptData@CvLuaPlayer@@KAHPAUlua_State@@@Z ; CvLuaPlayer::lSetScriptData
PUBLIC	??_C@_0O@IJPBDHCD@GetScriptData?$AA@		; `string'
PUBLIC	?lGetScriptData@CvLuaPlayer@@KAHPAUlua_State@@@Z ; CvLuaPlayer::lGetScriptData
PUBLIC	??_C@_0BD@CGMPIPHN@SetReplayDataValue?$AA@	; `string'
PUBLIC	?lSetReplayDataValue@CvLuaPlayer@@KAHPAUlua_State@@@Z ; CvLuaPlayer::lSetReplayDataValue
PUBLIC	??_C@_0O@FOEADKOC@GetReplayData?$AA@		; `string'
PUBLIC	?lGetReplayData@CvLuaPlayer@@KAHPAUlua_State@@@Z ; CvLuaPlayer::lGetReplayData
PUBLIC	??_C@_0BA@IAAIKKNG@GetPowerHistory?$AA@		; `string'
PUBLIC	?lGetPowerHistory@CvLuaPlayer@@KAHPAUlua_State@@@Z ; CvLuaPlayer::lGetPowerHistory
PUBLIC	??_C@_0BG@BFBBELOF@GetAgricultureHistory?$AA@	; `string'
PUBLIC	?lGetAgricultureHistory@CvLuaPlayer@@KAHPAUlua_State@@@Z ; CvLuaPlayer::lGetAgricultureHistory
PUBLIC	??_C@_0BD@EEECFJGL@GetIndustryHistory?$AA@	; `string'
PUBLIC	?lGetIndustryHistory@CvLuaPlayer@@KAHPAUlua_State@@@Z ; CvLuaPlayer::lGetIndustryHistory
PUBLIC	??_C@_0BC@LKDBDJLJ@GetEconomyHistory?$AA@	; `string'
PUBLIC	?lGetEconomyHistory@CvLuaPlayer@@KAHPAUlua_State@@@Z ; CvLuaPlayer::lGetEconomyHistory
PUBLIC	??_C@_0BA@CBCOBLDO@GetScoreHistory?$AA@		; `string'
PUBLIC	?lGetScoreHistory@CvLuaPlayer@@KAHPAUlua_State@@@Z ; CvLuaPlayer::lGetScoreHistory
PUBLIC	??_C@_0O@FLOBFJBH@AI_foundValue?$AA@		; `string'
PUBLIC	?lAI_foundValue@CvLuaPlayer@@KAHPAUlua_State@@@Z ; CvLuaPlayer::lAI_foundValue
PUBLIC	??_C@_0BF@LPEPOKPK@AI_updateFoundValues?$AA@	; `string'
PUBLIC	?lAI_updateFoundValues@CvLuaPlayer@@KAHPAUlua_State@@@Z ; CvLuaPlayer::lAI_updateFoundValues
PUBLIC	??_C@_0M@LCJDFAFH@GetUnitByID?$AA@		; `string'
PUBLIC	?lGetUnitByID@CvLuaPlayer@@KAHPAUlua_State@@@Z	; CvLuaPlayer::lGetUnitByID
PUBLIC	??_C@_0M@GNPEBAGL@GetNumUnits?$AA@		; `string'
PUBLIC	?lGetNumUnits@CvLuaPlayer@@KAHPAUlua_State@@@Z	; CvLuaPlayer::lGetNumUnits
PUBLIC	??_C@_05CFLIFMAE@Units?$AA@			; `string'
PUBLIC	?lUnits@CvLuaPlayer@@KAHPAUlua_State@@@Z	; CvLuaPlayer::lUnits
PUBLIC	??_C@_0M@NNBLIMGF@GetCityByID?$AA@		; `string'
PUBLIC	?lGetCityByID@CvLuaPlayer@@KAHPAUlua_State@@@Z	; CvLuaPlayer::lGetCityByID
PUBLIC	??_C@_0N@OFLMPMAK@GetNumCities?$AA@		; `string'
PUBLIC	?lGetNumCities@CvLuaPlayer@@KAHPAUlua_State@@@Z	; CvLuaPlayer::lGetNumCities
PUBLIC	??_C@_06DIPJMMIP@Cities?$AA@			; `string'
PUBLIC	?lCities@CvLuaPlayer@@KAHPAUlua_State@@@Z	; CvLuaPlayer::lCities
PUBLIC	??_C@_0M@DOJNOFML@GetCityName?$AA@		; `string'
PUBLIC	?lGetCityName@CvLuaPlayer@@KAHPAUlua_State@@@Z	; CvLuaPlayer::lGetCityName
PUBLIC	??_C@_0BA@OEJOHFNM@GetNumCityNames?$AA@		; `string'
PUBLIC	?lGetNumCityNames@CvLuaPlayer@@KAHPAUlua_State@@@Z ; CvLuaPlayer::lGetNumCityNames
PUBLIC	??_C@_0M@DHIABOAD@AddCityName?$AA@		; `string'
PUBLIC	?lAddCityName@CvLuaPlayer@@KAHPAUlua_State@@@Z	; CvLuaPlayer::lAddCityName
PUBLIC	??_C@_0BH@EEPCMHMD@GetLengthResearchQueue?$AA@	; `string'
PUBLIC	?lGetLengthResearchQueue@CvLuaPlayer@@KAHPAUlua_State@@@Z ; CvLuaPlayer::lGetLengthResearchQueue
PUBLIC	??_C@_0M@EOPDLFLG@PopResearch?$AA@		; `string'
PUBLIC	?lPopResearch@CvLuaPlayer@@KAHPAUlua_State@@@Z	; CvLuaPlayer::lPopResearch
PUBLIC	??_C@_0N@CDNPDJNC@PushResearch?$AA@		; `string'
PUBLIC	?lPushResearch@CvLuaPlayer@@KAHPAUlua_State@@@Z	; CvLuaPlayer::lPushResearch
PUBLIC	??_C@_0BD@JPCIIJKD@ClearResearchQueue?$AA@	; `string'
PUBLIC	?lClearResearchQueue@CvLuaPlayer@@KAHPAUlua_State@@@Z ; CvLuaPlayer::lClearResearchQueue
PUBLIC	??_C@_0BB@OKACGELF@GetQueuePosition?$AA@	; `string'
PUBLIC	?lGetQueuePosition@CvLuaPlayer@@KAHPAUlua_State@@@Z ; CvLuaPlayer::lGetQueuePosition
PUBLIC	??_C@_0P@HAIAJPIL@FindPathLength?$AA@		; `string'
PUBLIC	?lFindPathLength@CvLuaPlayer@@KAHPAUlua_State@@@Z ; CvLuaPlayer::lFindPathLength
PUBLIC	??_C@_0BI@GMNKFHNO@GetSpecialistExtraYield?$AA@	; `string'
PUBLIC	?lGetSpecialistExtraYield@CvLuaPlayer@@KAHPAUlua_State@@@Z ; CvLuaPlayer::lGetSpecialistExtraYield
PUBLIC	??_C@_0BJ@DPLFOOGM@SetNavalCombatExperience?$AA@ ; `string'
PUBLIC	?lSetNavalCombatExperience@CvLuaPlayer@@KAHPAUlua_State@@@Z ; CvLuaPlayer::lSetNavalCombatExperience
PUBLIC	??_C@_0BM@JAEPANDK@ChangeNavalCombatExperience?$AA@ ; `string'
PUBLIC	?lChangeNavalCombatExperience@CvLuaPlayer@@KAHPAUlua_State@@@Z ; CvLuaPlayer::lChangeNavalCombatExperience
PUBLIC	??_C@_0BJ@JMBPIDPJ@GetNavalCombatExperience?$AA@ ; `string'
PUBLIC	?lGetNavalCombatExperience@CvLuaPlayer@@KAHPAUlua_State@@@Z ; CvLuaPlayer::lGetNavalCombatExperience
PUBLIC	??_C@_0BM@ECGBFEGH@GetLifetimeCombatExperience?$AA@ ; `string'
PUBLIC	?lGetLifetimeCombatExperience@CvLuaPlayer@@KAHPAUlua_State@@@Z ; CvLuaPlayer::lGetLifetimeCombatExperience
PUBLIC	??_C@_0BE@CFLDHHHI@SetCombatExperience?$AA@	; `string'
PUBLIC	?lSetCombatExperience@CvLuaPlayer@@KAHPAUlua_State@@@Z ; CvLuaPlayer::lSetCombatExperience
PUBLIC	??_C@_0BH@NFKGIFIE@ChangeCombatExperience?$AA@	; `string'
PUBLIC	?lChangeCombatExperience@CvLuaPlayer@@KAHPAUlua_State@@@Z ; CvLuaPlayer::lChangeCombatExperience
PUBLIC	??_C@_0BE@ILJIDHAE@GetCombatExperience?$AA@	; `string'
PUBLIC	?lGetCombatExperience@CvLuaPlayer@@KAHPAUlua_State@@@Z ; CvLuaPlayer::lGetCombatExperience
PUBLIC	??_C@_0BD@JICENABA@SetResearchingTech?$AA@	; `string'
PUBLIC	?lSetResearchingTech@CvLuaPlayer@@KAHPAUlua_State@@@Z ; CvLuaPlayer::lSetResearchingTech
PUBLIC	??_C@_0BC@LJAGDKMI@IsResearchingTech?$AA@	; `string'
PUBLIC	?lIsResearchingTech@CvLuaPlayer@@KAHPAUlua_State@@@Z ; CvLuaPlayer::lIsResearchingTech
PUBLIC	??_C@_0BB@DIBNJMML@GetHurryGoldCost?$AA@	; `string'
PUBLIC	?lGetHurryGoldCost@CvLuaPlayer@@KAHPAUlua_State@@@Z ; CvLuaPlayer::lGetHurryGoldCost
PUBLIC	??_C@_0L@LOFDAOJF@IsCanHurry?$AA@		; `string'
PUBLIC	?lIsCanHurry@CvLuaPlayer@@KAHPAUlua_State@@@Z	; CvLuaPlayer::lIsCanHurry
PUBLIC	??_C@_0BD@HNIJFNOA@IsHasAccessToHurry?$AA@	; `string'
PUBLIC	?lIsHasAccessToHurry@CvLuaPlayer@@KAHPAUlua_State@@@Z ; CvLuaPlayer::lIsHasAccessToHurry
PUBLIC	??_C@_0O@MMMOMENH@GetHurryCount?$AA@		; `string'
PUBLIC	?lGetHurryCount@CvLuaPlayer@@KAHPAUlua_State@@@Z ; CvLuaPlayer::lGetHurryCount
PUBLIC	??_C@_0CA@NDNHGCMM@GetBuildingClassCountPlusMaking?$AA@ ; `string'
PUBLIC	?lGetBuildingClassCountPlusMaking@CvLuaPlayer@@KAHPAUlua_State@@@Z ; CvLuaPlayer::lGetBuildingClassCountPlusMaking
PUBLIC	??_C@_0BH@IOFHKIED@GetBuildingClassMaking?$AA@	; `string'
PUBLIC	?lGetBuildingClassMaking@CvLuaPlayer@@KAHPAUlua_State@@@Z ; CvLuaPlayer::lGetBuildingClassMaking
PUBLIC	??_C@_0BI@BIOFBBJB@IsBuildingClassMaxedOut?$AA@	; `string'
PUBLIC	?lIsBuildingClassMaxedOut@CvLuaPlayer@@KAHPAUlua_State@@@Z ; CvLuaPlayer::lIsBuildingClassMaxedOut
PUBLIC	??_C@_0BG@LKAPFNIF@GetBuildingClassCount?$AA@	; `string'
PUBLIC	?lGetBuildingClassCount@CvLuaPlayer@@KAHPAUlua_State@@@Z ; CvLuaPlayer::lGetBuildingClassCount
PUBLIC	??_C@_0BM@JKNGMGFK@GetUnitClassCountPlusMaking?$AA@ ; `string'
PUBLIC	?lGetUnitClassCountPlusMaking@CvLuaPlayer@@KAHPAUlua_State@@@Z ; CvLuaPlayer::lGetUnitClassCountPlusMaking
PUBLIC	??_C@_0BD@JNGNHFGM@GetUnitClassMaking?$AA@	; `string'
PUBLIC	?lGetUnitClassMaking@CvLuaPlayer@@KAHPAUlua_State@@@Z ; CvLuaPlayer::lGetUnitClassMaking
PUBLIC	??_C@_0BE@KOKPIAGA@IsUnitClassMaxedOut?$AA@	; `string'
PUBLIC	?lIsUnitClassMaxedOut@CvLuaPlayer@@KAHPAUlua_State@@@Z ; CvLuaPlayer::lIsUnitClassMaxedOut
PUBLIC	??_C@_0BC@OMEKCEJN@GetUnitClassCount?$AA@	; `string'
PUBLIC	?lGetUnitClassCount@CvLuaPlayer@@KAHPAUlua_State@@@Z ; CvLuaPlayer::lGetUnitClassCount
PUBLIC	??_C@_0P@MDJBKIGG@IsBuildingFree?$AA@		; `string'
PUBLIC	?lIsBuildingFree@CvLuaPlayer@@KAHPAUlua_State@@@Z ; CvLuaPlayer::lIsBuildingFree
PUBLIC	??_C@_0BE@FJHPDLDL@GetImprovementCount?$AA@	; `string'
PUBLIC	?lGetImprovementCount@CvLuaPlayer@@KAHPAUlua_State@@@Z ; CvLuaPlayer::lGetImprovementCount
PUBLIC	??_C@_0BG@BLEODKND@GetResourceFromMinors?$AA@	; `string'
PUBLIC	?lGetResourceFromMinors@CvLuaPlayer@@KAHPAUlua_State@@@Z ; CvLuaPlayer::lGetResourceFromMinors
PUBLIC	??_C@_0BC@FPKGMKKM@GetResourceImport?$AA@	; `string'
PUBLIC	?lGetResourceImport@CvLuaPlayer@@KAHPAUlua_State@@@Z ; CvLuaPlayer::lGetResourceImport
PUBLIC	??_C@_0BC@MLBNDDPA@GetResourceExport?$AA@	; `string'
PUBLIC	?lGetResourceExport@CvLuaPlayer@@KAHPAUlua_State@@@Z ; CvLuaPlayer::lGetResourceExport
PUBLIC	??_C@_0BI@CAJMJPHL@GetNumResourceAvailable?$AA@	; `string'
PUBLIC	?lGetNumResourceAvailable@CvLuaPlayer@@KAHPAUlua_State@@@Z ; CvLuaPlayer::lGetNumResourceAvailable
PUBLIC	??_C@_0BH@OOAGOCF@ChangeNumResourceTotal?$AA@	; `string'
PUBLIC	?lChangeNumResourceTotal@CvLuaPlayer@@KAHPAUlua_State@@@Z ; CvLuaPlayer::lChangeNumResourceTotal
PUBLIC	??_C@_0BE@FANONMKF@GetNumResourceTotal?$AA@	; `string'
PUBLIC	?lGetNumResourceTotal@CvLuaPlayer@@KAHPAUlua_State@@@Z ; CvLuaPlayer::lGetNumResourceTotal
PUBLIC	??_C@_0BD@NIJFEIJG@GetNumResourceUsed?$AA@	; `string'
PUBLIC	?lGetNumResourceUsed@CvLuaPlayer@@KAHPAUlua_State@@@Z ; CvLuaPlayer::lGetNumResourceUsed
PUBLIC	??_C@_0M@IJCOINPN@SetPlayable?$AA@		; `string'
PUBLIC	?lSetPlayable@CvLuaPlayer@@KAHPAUlua_State@@@Z	; CvLuaPlayer::lSetPlayable
PUBLIC	??_C@_0L@LMMDHEOL@IsPlayable?$AA@		; `string'
PUBLIC	?lIsPlayable@CvLuaPlayer@@KAHPAUlua_State@@@Z	; CvLuaPlayer::lIsPlayable
PUBLIC	??_C@_09DLFAMNKA@SetOption?$AA@			; `string'
PUBLIC	?lSetOption@CvLuaPlayer@@KAHPAUlua_State@@@Z	; CvLuaPlayer::lSetOption
PUBLIC	??_C@_08CPAPEJN@IsOption?$AA@			; `string'
PUBLIC	?lIsOption@CvLuaPlayer@@KAHPAUlua_State@@@Z	; CvLuaPlayer::lIsOption
PUBLIC	??_C@_0BJ@LPIABFHI@GetIncomingUnitCountdown?$AA@ ; `string'
PUBLIC	?lGetIncomingUnitCountdown@CvLuaPlayer@@KAHPAUlua_State@@@Z ; CvLuaPlayer::lGetIncomingUnitCountdown
PUBLIC	??_C@_0BE@DGDCHHAP@GetIncomingUnitType?$AA@	; `string'
PUBLIC	?lGetIncomingUnitType@CvLuaPlayer@@KAHPAUlua_State@@@Z ; CvLuaPlayer::lGetIncomingUnitType
PUBLIC	??_C@_0BK@INFADDEM@DoUpdateProximityToPlayer?$AA@ ; `string'
PUBLIC	?lDoUpdateProximityToPlayer@CvLuaPlayer@@KAHPAUlua_State@@@Z ; CvLuaPlayer::lDoUpdateProximityToPlayer
PUBLIC	??_C@_0BF@ONODMHAN@GetProximityToPlayer?$AA@	; `string'
PUBLIC	?lGetProximityToPlayer@CvLuaPlayer@@KAHPAUlua_State@@@Z ; CvLuaPlayer::lGetProximityToPlayer
PUBLIC	??_C@_0CE@MDGAFNCA@GetScienceFromBudgetDeficitTimes@ ; `string'
PUBLIC	?lGetScienceFromBudgetDeficitTimes100@CvLuaPlayer@@KAHPAUlua_State@@@Z ; CvLuaPlayer::lGetScienceFromBudgetDeficitTimes100
PUBLIC	??_C@_0CJ@KCEGADFP@GetScienceFromResearchAgreements@ ; `string'
PUBLIC	?lGetScienceFromResearchAgreementsTimes100@CvLuaPlayer@@KAHPAUlua_State@@@Z ; CvLuaPlayer::lGetScienceFromResearchAgreementsTimes100
PUBLIC	??_C@_0CH@GKJHBADA@GetMinorFriendshipGainBullyGoldS@ ; `string'
PUBLIC	?lGetMinorFriendshipGainBullyGoldSuccess@CvLuaPlayer@@KAHPAUlua_State@@@Z ; CvLuaPlayer::lGetMinorFriendshipGainBullyGoldSuccess
PUBLIC	??_C@_0BL@PMENDKHK@GetScienceFromGoldTimes100?$AA@ ; `string'
PUBLIC	?lGetScienceFromGoldTimes100@CvLuaPlayer@@KAHPAUlua_State@@@Z ; CvLuaPlayer::lGetScienceFromGoldTimes100
PUBLIC	??_C@_0CA@LOIBLNOM@GetScienceFromHappinessTimes100?$AA@ ; `string'
PUBLIC	?lGetScienceFromHappinessTimes100@CvLuaPlayer@@KAHPAUlua_State@@@Z ; CvLuaPlayer::lGetScienceFromHappinessTimes100
PUBLIC	??_C@_0CD@FKFPBOPI@GetScienceFromOtherPlayersTimes1@ ; `string'
PUBLIC	?lGetScienceFromOtherPlayersTimes100@CvLuaPlayer@@KAHPAUlua_State@@@Z ; CvLuaPlayer::lGetScienceFromOtherPlayersTimes100
PUBLIC	??_C@_0BN@OBKADDNJ@GetScienceFromCitiesTimes100?$AA@ ; `string'
PUBLIC	?lGetScienceFromCitiesTimes100@CvLuaPlayer@@KAHPAUlua_State@@@Z ; CvLuaPlayer::lGetScienceFromCitiesTimes100
PUBLIC	??_C@_0BD@NFNIBFFF@GetScienceTimes100?$AA@	; `string'
PUBLIC	?lGetScienceTimes100@CvLuaPlayer@@KAHPAUlua_State@@@Z ; CvLuaPlayer::lGetScienceTimes100
PUBLIC	??_C@_0L@GHLGHBML@GetScience?$AA@		; `string'
PUBLIC	?lGetScience@CvLuaPlayer@@KAHPAUlua_State@@@Z	; CvLuaPlayer::lGetScience
PUBLIC	??_C@_0BH@CEIHEJPD@GetExtraYieldThreshold?$AA@	; `string'
PUBLIC	?lGetExtraYieldThreshold@CvLuaPlayer@@KAHPAUlua_State@@@Z ; CvLuaPlayer::lGetExtraYieldThreshold
PUBLIC	??_C@_0BM@HDDIOHJE@GetCapitalYieldRateModifier?$AA@ ; `string'
PUBLIC	?lGetCapitalYieldRateModifier@CvLuaPlayer@@KAHPAUlua_State@@@Z ; CvLuaPlayer::lGetCapitalYieldRateModifier
PUBLIC	??_C@_0BF@MPEACCAJ@GetYieldRateModifier?$AA@	; `string'
PUBLIC	?lGetYieldRateModifier@CvLuaPlayer@@KAHPAUlua_State@@@Z ; CvLuaPlayer::lGetYieldRateModifier
PUBLIC	??_C@_0BA@DGPKBBEO@GetSeaPlotYield?$AA@		; `string'
PUBLIC	?lGetSeaPlotYield@CvLuaPlayer@@KAHPAUlua_State@@@Z ; CvLuaPlayer::lGetSeaPlotYield
PUBLIC	??_C@_0BA@OFENOHDO@GetPlayerColors?$AA@		; `string'
PUBLIC	?lGetPlayerColors@CvLuaPlayer@@KAHPAUlua_State@@@Z ; CvLuaPlayer::lGetPlayerColors
PUBLIC	??_C@_0P@FBFFBDEL@GetPlayerColor?$AA@		; `string'
PUBLIC	?lGetPlayerColor@CvLuaPlayer@@KAHPAUlua_State@@@Z ; CvLuaPlayer::lGetPlayerColor
PUBLIC	??_C@_07KIJFBNDA@GetTeam?$AA@			; `string'
PUBLIC	?lGetTeam@CvLuaPlayer@@KAHPAUlua_State@@@Z	; CvLuaPlayer::lGetTeam
PUBLIC	??_C@_0O@DBDBEBPD@GetCurrentEra?$AA@		; `string'
PUBLIC	?lGetCurrentEra@CvLuaPlayer@@KAHPAUlua_State@@@Z ; CvLuaPlayer::lGetCurrentEra
PUBLIC	??_C@_0BD@MJNOECAJ@SetPersonalityType?$AA@	; `string'
PUBLIC	?lSetPersonalityType@CvLuaPlayer@@KAHPAUlua_State@@@Z ; CvLuaPlayer::lSetPersonalityType
PUBLIC	??_C@_0BD@DDPEHEOB@GetPersonalityType?$AA@	; `string'
PUBLIC	?lGetPersonalityType@CvLuaPlayer@@KAHPAUlua_State@@@Z ; CvLuaPlayer::lGetPersonalityType
PUBLIC	??_C@_0O@MCDOMJFC@GetLeaderType?$AA@		; `string'
PUBLIC	?lGetLeaderType@CvLuaPlayer@@KAHPAUlua_State@@@Z ; CvLuaPlayer::lGetLeaderType
PUBLIC	??_C@_0BE@OGLFKPOE@GetCivilizationType?$AA@	; `string'
PUBLIC	?lGetCivilizationType@CvLuaPlayer@@KAHPAUlua_State@@@Z ; CvLuaPlayer::lGetCivilizationType
PUBLIC	??_C@_0BA@NDPGKNBO@GetHandicapType?$AA@		; `string'
PUBLIC	?lGetHandicapType@CvLuaPlayer@@KAHPAUlua_State@@@Z ; CvLuaPlayer::lGetHandicapType
PUBLIC	??_C@_05CLBJHDA@GetID?$AA@			; `string'
PUBLIC	?lGetID@CvLuaPlayer@@KAHPAUlua_State@@@Z	; CvLuaPlayer::lGetID
PUBLIC	??_C@_08FCKCMEIG@IsStrike?$AA@			; `string'
PUBLIC	?lIsStrike@CvLuaPlayer@@KAHPAUlua_State@@@Z	; CvLuaPlayer::lIsStrike
PUBLIC	??_C@_0BL@HDPFLDOD@HasReceivedNetTurnComplete?$AA@ ; `string'
PUBLIC	?lHasReceivedNetTurnComplete@CvLuaPlayer@@KAHPAUlua_State@@@Z ; CvLuaPlayer::lHasReceivedNetTurnComplete
PUBLIC	??_C@_0CE@HBJKGGIN@GetEndTurnBlockingNotificationIn@ ; `string'
PUBLIC	?lGetEndTurnBlockingNotificationIndex@CvLuaPlayer@@KAHPAUlua_State@@@Z ; CvLuaPlayer::lGetEndTurnBlockingNotificationIndex
PUBLIC	??_C@_0BH@PEFMIAEP@GetEndTurnBlockingType?$AA@	; `string'
PUBLIC	?lGetEndTurnBlockingType@CvLuaPlayer@@KAHPAUlua_State@@@Z ; CvLuaPlayer::lGetEndTurnBlockingType
PUBLIC	??_C@_0BD@PKANFN@IsFoundedFirstCity?$AA@	; `string'
PUBLIC	?lIsFoundedFirstCity@CvLuaPlayer@@KAHPAUlua_State@@@Z ; CvLuaPlayer::lIsFoundedFirstCity
PUBLIC	??_C@_0P@ECFNDELE@IsExtendedGame?$AA@		; `string'
PUBLIC	?lIsExtendedGame@CvLuaPlayer@@KAHPAUlua_State@@@Z ; CvLuaPlayer::lIsExtendedGame
PUBLIC	??_C@_0M@MAOIOJGJ@IsEverAlive?$AA@		; `string'
PUBLIC	?lIsEverAlive@CvLuaPlayer@@KAHPAUlua_State@@@Z	; CvLuaPlayer::lIsEverAlive
PUBLIC	??_C@_07OHJBEDOK@IsAlive?$AA@			; `string'
PUBLIC	?lIsAlive@CvLuaPlayer@@KAHPAUlua_State@@@Z	; CvLuaPlayer::lIsAlive
PUBLIC	??_C@_0BK@HNINKCDB@GetFriendshipFromUnitGift?$AA@ ; `string'
PUBLIC	?lGetFriendshipFromUnitGift@CvLuaPlayer@@KAHPAUlua_State@@@Z ; CvLuaPlayer::lGetFriendshipFromUnitGift
PUBLIC	??_C@_0BH@OGOPFFHJ@AddMinorCivQuestIfAble?$AA@	; `string'
PUBLIC	?lAddMinorCivQuestIfAble@CvLuaPlayer@@KAHPAUlua_State@@@Z ; CvLuaPlayer::lAddMinorCivQuestIfAble
PUBLIC	??_C@_0BL@HBAOBIEN@GetGiftTileImprovementCost?$AA@ ; `string'
PUBLIC	?lGetGiftTileImprovementCost@CvLuaPlayer@@KAHPAUlua_State@@@Z ; CvLuaPlayer::lGetGiftTileImprovementCost
PUBLIC	??_C@_0CC@BOODLOOC@CanMajorGiftTileImprovementAtPlo@ ; `string'
PUBLIC	?lCanMajorGiftTileImprovementAtPlot@CvLuaPlayer@@KAHPAUlua_State@@@Z ; CvLuaPlayer::lCanMajorGiftTileImprovementAtPlot
PUBLIC	??_C@_0BM@MPFJMPJM@CanMajorGiftTileImprovement?$AA@ ; `string'
PUBLIC	?lCanMajorGiftTileImprovement@CvLuaPlayer@@KAHPAUlua_State@@@Z ; CvLuaPlayer::lCanMajorGiftTileImprovement
PUBLIC	??_C@_0O@LKDODOMI@GetBuyoutCost?$AA@		; `string'
PUBLIC	?lGetBuyoutCost@CvLuaPlayer@@KAHPAUlua_State@@@Z ; CvLuaPlayer::lGetBuyoutCost
PUBLIC	??_C@_0P@IEAEGNOK@CanMajorBuyout?$AA@		; `string'
PUBLIC	?lCanMajorBuyout@CvLuaPlayer@@KAHPAUlua_State@@@Z ; CvLuaPlayer::lCanMajorBuyout
PUBLIC	??_C@_0BJ@NIOFMNNO@GetMajorBullyUnitDetails?$AA@ ; `string'
PUBLIC	?lGetMajorBullyUnitDetails@CvLuaPlayer@@KAHPAUlua_State@@@Z ; CvLuaPlayer::lGetMajorBullyUnitDetails
PUBLIC	??_C@_0BC@CKDHKLHB@CanMajorBullyUnit?$AA@	; `string'
PUBLIC	?lCanMajorBullyUnit@CvLuaPlayer@@KAHPAUlua_State@@@Z ; CvLuaPlayer::lCanMajorBullyUnit
PUBLIC	??_C@_0BJ@LDKBOIEI@GetMajorBullyGoldDetails?$AA@ ; `string'
PUBLIC	?lGetMajorBullyGoldDetails@CvLuaPlayer@@KAHPAUlua_State@@@Z ; CvLuaPlayer::lGetMajorBullyGoldDetails
PUBLIC	??_C@_0BC@MEKCNIEM@CanMajorBullyGold?$AA@	; `string'
PUBLIC	?lCanMajorBullyGold@CvLuaPlayer@@KAHPAUlua_State@@@Z ; CvLuaPlayer::lCanMajorBullyGold
PUBLIC	??_C@_0BL@JEOPCMFE@GetMinorCivBullyGoldAmount?$AA@ ; `string'
PUBLIC	?lGetMinorCivBullyGoldAmount@CvLuaPlayer@@KAHPAUlua_State@@@Z ; CvLuaPlayer::lGetMinorCivBullyGoldAmount
PUBLIC	??_C@_0BP@INDFDHEG@GetTurnLastPledgeBrokenByMajor?$AA@ ; `string'
PUBLIC	?lGetTurnLastPledgeBrokenByMajor@CvLuaPlayer@@KAHPAUlua_State@@@Z ; CvLuaPlayer::lGetTurnLastPledgeBrokenByMajor
PUBLIC	??_C@_0CE@GOKJOBNC@GetTurnLastPledgedProtectionByMa@ ; `string'
PUBLIC	?lGetTurnLastPledgedProtectionByMajor@CvLuaPlayer@@KAHPAUlua_State@@@Z ; CvLuaPlayer::lGetTurnLastPledgedProtectionByMajor
PUBLIC	??_C@_0BL@PJCMBOGB@CanMajorWithdrawProtection?$AA@ ; `string'
PUBLIC	?lCanMajorWithdrawProtection@CvLuaPlayer@@KAHPAUlua_State@@@Z ; CvLuaPlayer::lCanMajorWithdrawProtection
PUBLIC	??_C@_0BI@JDBHECFP@CanMajorStartProtection?$AA@	; `string'
PUBLIC	?lCanMajorStartProtection@CvLuaPlayer@@KAHPAUlua_State@@@Z ; CvLuaPlayer::lCanMajorStartProtection
PUBLIC	??_C@_0BA@HLPOBOFO@CanMajorProtect?$AA@		; `string'
PUBLIC	?lCanMajorProtect@CvLuaPlayer@@KAHPAUlua_State@@@Z ; CvLuaPlayer::lCanMajorProtect
PUBLIC	??_C@_0BD@FJJJKAON@IsProtectedByMajor?$AA@	; `string'
PUBLIC	?lIsProtectedByMajor@CvLuaPlayer@@KAHPAUlua_State@@@Z ; CvLuaPlayer::lIsProtectedByMajor
PUBLIC	??_C@_0BJ@OEBIPDFB@DoMinorLiberationByMajor?$AA@ ; `string'
PUBLIC	?lDoMinorLiberationByMajor@CvLuaPlayer@@KAHPAUlua_State@@@Z ; CvLuaPlayer::lDoMinorLiberationByMajor
PUBLIC	??_C@_0BD@DDAJKJAC@GetNumMinorCivsMet?$AA@	; `string'
PUBLIC	?lGetNumMinorCivsMet@CvLuaPlayer@@KAHPAUlua_State@@@Z ; CvLuaPlayer::lGetNumMinorCivsMet
PUBLIC	??_C@_0BE@OJEGEBAH@IsMinorPermanentWar?$AA@	; `string'
PUBLIC	?lIsMinorPermanentWar@CvLuaPlayer@@KAHPAUlua_State@@@Z ; CvLuaPlayer::lIsMinorPermanentWar
PUBLIC	??_C@_0BK@NBPHMKCC@IsInfluenceTooLowForPeace?$AA@ ; `string'
PUBLIC	?lIsInfluenceTooLowForPeace@CvLuaPlayer@@KAHPAUlua_State@@@Z ; CvLuaPlayer::lIsInfluenceTooLowForPeace
PUBLIC	??_C@_0P@KFJKJMOE@IsPeaceBlocked?$AA@		; `string'
PUBLIC	?lIsPeaceBlocked@CvLuaPlayer@@KAHPAUlua_State@@@Z ; CvLuaPlayer::lIsPeaceBlocked
PUBLIC	??_C@_0CJ@ODBIOBOL@GetCurrentScienceFriendshipBonus@ ; `string'
PUBLIC	?lGetCurrentScienceFriendshipBonusTimes100@CvLuaPlayer@@KAHPAUlua_State@@@Z ; CvLuaPlayer::lGetCurrentScienceFriendshipBonusTimes100
PUBLIC	??_C@_0BI@LLLGGKJM@GetCurrentSpawnEstimate?$AA@	; `string'
PUBLIC	?lGetCurrentSpawnEstimate@CvLuaPlayer@@KAHPAUlua_State@@@Z ; CvLuaPlayer::lGetCurrentSpawnEstimate
PUBLIC	??_C@_0BN@ILJMHMPP@GetCurrentOtherCityFoodBonus?$AA@ ; `string'
PUBLIC	?lGetCurrentOtherCityFoodBonus@CvLuaPlayer@@KAHPAUlua_State@@@Z ; CvLuaPlayer::lGetCurrentOtherCityFoodBonus
PUBLIC	??_C@_0BL@PEJFCAAO@GetCurrentCapitalFoodBonus?$AA@ ; `string'
PUBLIC	?lGetCurrentCapitalFoodBonus@CvLuaPlayer@@KAHPAUlua_State@@@Z ; CvLuaPlayer::lGetCurrentCapitalFoodBonus
PUBLIC	??_C@_0BN@DJDMDNOO@GetMinorCivCurrentFaithBonus?$AA@ ; `string'
PUBLIC	?lGetMinorCivCurrentFaithBonus@CvLuaPlayer@@KAHPAUlua_State@@@Z ; CvLuaPlayer::lGetMinorCivCurrentFaithBonus
PUBLIC	??_C@_0CB@DHDIKNON@GetMinorCivCurrentHappinessBonus@ ; `string'
PUBLIC	?lGetMinorCivCurrentHappinessBonus@CvLuaPlayer@@KAHPAUlua_State@@@Z ; CvLuaPlayer::lGetMinorCivCurrentHappinessBonus
PUBLIC	??_C@_0CK@BFJFGONF@GetMinorCivCurrentHappinessPerLu@ ; `string'
PUBLIC	?lGetMinorCivCurrentHappinessPerLuxuryBonus@CvLuaPlayer@@KAHPAUlua_State@@@Z ; CvLuaPlayer::lGetMinorCivCurrentHappinessPerLuxuryBonus
PUBLIC	??_C@_0CF@EMDDPPKP@GetMinorCivCurrentHappinessFlatB@ ; `string'
PUBLIC	?lGetMinorCivCurrentHappinessFlatBonus@CvLuaPlayer@@KAHPAUlua_State@@@Z ; CvLuaPlayer::lGetMinorCivCurrentHappinessFlatBonus
PUBLIC	??_C@_0CE@CMFODDAA@GetMinorCivHappinessFriendshipBo@ ; `string'
PUBLIC	?lGetMinorCivHappinessFriendshipBonus@CvLuaPlayer@@KAHPAUlua_State@@@Z ; CvLuaPlayer::lGetMinorCivHappinessFriendshipBonus
PUBLIC	??_C@_0BP@CJKEIOCK@GetMinorCivCurrentCultureBonus?$AA@ ; `string'
PUBLIC	?lGetMinorCivCurrentCultureBonus@CvLuaPlayer@@KAHPAUlua_State@@@Z ; CvLuaPlayer::lGetMinorCivCurrentCultureBonus
PUBLIC	??_C@_0BH@DCNJCBAF@GetCurrentCultureBonus?$AA@	; `string'
PUBLIC	?lGetCurrentCultureBonus@CvLuaPlayer@@KAHPAUlua_State@@@Z ; CvLuaPlayer::lGetCurrentCultureBonus
PUBLIC	??_C@_0CK@DJDLKNM@GetMinorCivCurrentCulturePerBuil@ ; `string'
PUBLIC	?lGetMinorCivCurrentCulturePerBuildingBonus@CvLuaPlayer@@KAHPAUlua_State@@@Z ; CvLuaPlayer::lGetMinorCivCurrentCulturePerBuildingBonus
PUBLIC	??_C@_0CD@LKFJCJNM@GetMinorCivCurrentCultureFlatBon@ ; `string'
PUBLIC	?lGetMinorCivCurrentCultureFlatBonus@CvLuaPlayer@@KAHPAUlua_State@@@Z ; CvLuaPlayer::lGetMinorCivCurrentCultureFlatBonus
PUBLIC	??_C@_0CC@CGHKAAGO@GetMinorCivCultureFriendshipBonu@ ; `string'
PUBLIC	?lGetMinorCivCultureFriendshipBonus@CvLuaPlayer@@KAHPAUlua_State@@@Z ; CvLuaPlayer::lGetMinorCivCultureFriendshipBonus
PUBLIC	??_C@_0CC@IMMIMLHK@GetMinorCivScienceFriendshipBonu@ ; `string'
PUBLIC	?lGetMinorCivScienceFriendshipBonus@CvLuaPlayer@@KAHPAUlua_State@@@Z ; CvLuaPlayer::lGetMinorCivScienceFriendshipBonus
PUBLIC	??_C@_0BJ@CENDBAFG@GetMinorCivFavoriteMajor?$AA@ ; `string'
PUBLIC	?lGetMinorCivFavoriteMajor@CvLuaPlayer@@KAHPAUlua_State@@@Z ; CvLuaPlayer::lGetMinorCivFavoriteMajor
PUBLIC	??_C@_0CA@DKEFHJFC@GetFriendshipNeededForNextLevel?$AA@ ; `string'
PUBLIC	?lGetFriendshipNeededForNextLevel@CvLuaPlayer@@KAHPAUlua_State@@@Z ; CvLuaPlayer::lGetFriendshipNeededForNextLevel
PUBLIC	??_C@_0BG@MCNIAIDC@IsSameReligionAsMajor?$AA@	; `string'
PUBLIC	?lIsSameReligionAsMajor@CvLuaPlayer@@KAHPAUlua_State@@@Z ; CvLuaPlayer::lIsSameReligionAsMajor
PUBLIC	??_C@_0BL@MGBKIFJO@GetFriendshipFromFaithGift?$AA@ ; `string'
PUBLIC	?lGetFriendshipFromFaithGift@CvLuaPlayer@@KAHPAUlua_State@@@Z ; CvLuaPlayer::lGetFriendshipFromFaithGift
PUBLIC	??_C@_0BK@GCPPOFGE@GetFriendshipFromGoldGift?$AA@ ; `string'
PUBLIC	?lGetFriendshipFromGoldGift@CvLuaPlayer@@KAHPAUlua_State@@@Z ; CvLuaPlayer::lGetFriendshipFromGoldGift
PUBLIC	??_C@_0CE@DNCLIGFM@GetTurnsSinceThreatenedAnnouncem@ ; `string'
PUBLIC	?lGetTurnsSinceThreatenedAnnouncement@CvLuaPlayer@@KAHPAUlua_State@@@Z ; CvLuaPlayer::lGetTurnsSinceThreatenedAnnouncement
PUBLIC	??_C@_0CE@OFAPDPJO@GetTurnsSinceThreatenedByBarbari@ ; `string'
PUBLIC	?lGetTurnsSinceThreatenedByBarbarians@CvLuaPlayer@@KAHPAUlua_State@@@Z ; CvLuaPlayer::lGetTurnsSinceThreatenedByBarbarians
PUBLIC	??_C@_0CM@DCJJEBFI@IsThreateningBarbariansEventActi@ ; `string'
PUBLIC	?lIsThreateningBarbariansEventActiveForPlayer@CvLuaPlayer@@KAHPAUlua_State@@@Z ; CvLuaPlayer::lIsThreateningBarbariansEventActiveForPlayer
PUBLIC	??_C@_0BJ@LHGLLPKP@IsProxyWarActiveForMajor?$AA@ ; `string'
PUBLIC	?lIsProxyWarActiveForMajor@CvLuaPlayer@@KAHPAUlua_State@@@Z ; CvLuaPlayer::lIsProxyWarActiveForMajor
PUBLIC	??_C@_0CI@JOPJIGPD@GetMinorWarQuestWithMajorRemaini@ ; `string'
PUBLIC	?lGetMinorWarQuestWithMajorRemainingCount@CvLuaPlayer@@KAHPAUlua_State@@@Z ; CvLuaPlayer::lGetMinorWarQuestWithMajorRemainingCount
PUBLIC	??_C@_0BP@DLEJMNIA@IsMinorWarQuestWithMajorActive?$AA@ ; `string'
PUBLIC	?lIsMinorWarQuestWithMajorActive@CvLuaPlayer@@KAHPAUlua_State@@@Z ; CvLuaPlayer::lIsMinorWarQuestWithMajorActive
PUBLIC	??_C@_0CE@BALAKNNH@IsMinorCivRouteEstablishedWithMa@ ; `string'
PUBLIC	?lIsMinorCivRouteEstablishedWithMajor@CvLuaPlayer@@KAHPAUlua_State@@@Z ; CvLuaPlayer::lIsMinorCivRouteEstablishedWithMajor
PUBLIC	??_C@_0BP@LGBJCMOD@IsMinorCivUnitSpawningDisabled?$AA@ ; `string'
PUBLIC	?lIsMinorCivUnitSpawningDisabled@CvLuaPlayer@@KAHPAUlua_State@@@Z ; CvLuaPlayer::lIsMinorCivUnitSpawningDisabled
PUBLIC	??_C@_0CB@LCACKAGB@GetMinorCivContestValueForPlayer@ ; `string'
PUBLIC	?lGetMinorCivContestValueForPlayer@CvLuaPlayer@@KAHPAUlua_State@@@Z ; CvLuaPlayer::lGetMinorCivContestValueForPlayer
PUBLIC	??_C@_0CB@JHAAIIFB@GetMinorCivContestValueForLeader@ ; `string'
PUBLIC	?lGetMinorCivContestValueForLeader@CvLuaPlayer@@KAHPAUlua_State@@@Z ; CvLuaPlayer::lGetMinorCivContestValueForLeader
PUBLIC	??_C@_0BI@HBEMJGEC@IsMinorCivContestLeader?$AA@	; `string'
PUBLIC	?lIsMinorCivContestLeader@CvLuaPlayer@@KAHPAUlua_State@@@Z ; CvLuaPlayer::lIsMinorCivContestLeader
PUBLIC	??_C@_0BH@PICPPHDC@GetQuestTurnsRemaining?$AA@	; `string'
PUBLIC	?lGetQuestTurnsRemaining@CvLuaPlayer@@KAHPAUlua_State@@@Z ; CvLuaPlayer::lGetQuestTurnsRemaining
PUBLIC	??_C@_0O@MLFPDGHN@GetQuestData2?$AA@		; `string'
PUBLIC	?lGetQuestData2@CvLuaPlayer@@KAHPAUlua_State@@@Z ; CvLuaPlayer::lGetQuestData2
PUBLIC	??_C@_0O@OAHCGFLO@GetQuestData1?$AA@		; `string'
PUBLIC	?lGetQuestData1@CvLuaPlayer@@KAHPAUlua_State@@@Z ; CvLuaPlayer::lGetQuestData1
PUBLIC	??_C@_0CH@IINPAFPL@GetMinorCivNumDisplayedQuestsFor@ ; `string'
PUBLIC	?lGetMinorCivNumDisplayedQuestsForPlayer@CvLuaPlayer@@KAHPAUlua_State@@@Z ; CvLuaPlayer::lGetMinorCivNumDisplayedQuestsForPlayer
PUBLIC	??_C@_0CC@KOLLDJBJ@IsMinorCivDisplayedQuestForPlaye@ ; `string'
PUBLIC	?lIsMinorCivDisplayedQuestForPlayer@CvLuaPlayer@@KAHPAUlua_State@@@Z ; CvLuaPlayer::lIsMinorCivDisplayedQuestForPlayer
PUBLIC	??_C@_0CE@KOGHDCCE@GetMinorCivNumActiveQuestsForPla@ ; `string'
PUBLIC	?lGetMinorCivNumActiveQuestsForPlayer@CvLuaPlayer@@KAHPAUlua_State@@@Z ; CvLuaPlayer::lGetMinorCivNumActiveQuestsForPlayer
PUBLIC	??_C@_0BP@HJOPHLLE@IsMinorCivActiveQuestForPlayer?$AA@ ; `string'
PUBLIC	?lIsMinorCivActiveQuestForPlayer@CvLuaPlayer@@KAHPAUlua_State@@@Z ; CvLuaPlayer::lIsMinorCivActiveQuestForPlayer
PUBLIC	??_C@_0BI@JBNIDLPL@GetActiveQuestForPlayer?$AA@	; `string'
PUBLIC	?lGetActiveQuestForPlayer@CvLuaPlayer@@KAHPAUlua_State@@@Z ; CvLuaPlayer::lGetActiveQuestForPlayer
PUBLIC	??_C@_0CE@DCIALBHJ@GetMinorCivFriendshipLevelWithMa@ ; `string'
PUBLIC	?lGetMinorCivFriendshipLevelWithMajor@CvLuaPlayer@@KAHPAUlua_State@@@Z ; CvLuaPlayer::lGetMinorCivFriendshipLevelWithMajor
PUBLIC	??_C@_0CF@HPIOGEFP@GetMinorCivFriendshipAnchorWithM@ ; `string'
PUBLIC	?lGetMinorCivFriendshipAnchorWithMajor@CvLuaPlayer@@KAHPAUlua_State@@@Z ; CvLuaPlayer::lGetMinorCivFriendshipAnchorWithMajor
PUBLIC	??_C@_0CC@NGMCJIKI@ChangeMinorCivFriendshipWithMajo@ ; `string'
PUBLIC	?lChangeMinorCivFriendshipWithMajor@CvLuaPlayer@@KAHPAUlua_State@@@Z ; CvLuaPlayer::lChangeMinorCivFriendshipWithMajor
PUBLIC	??_C@_0CD@IFPAMFCO@GetMinorCivBaseFriendshipWithMaj@ ; `string'
PUBLIC	?lGetMinorCivBaseFriendshipWithMajor@CvLuaPlayer@@KAHPAUlua_State@@@Z ; CvLuaPlayer::lGetMinorCivBaseFriendshipWithMajor
PUBLIC	??_C@_0BP@INHPAMIH@GetMinorCivFriendshipWithMajor?$AA@ ; `string'
PUBLIC	?lGetMinorCivFriendshipWithMajor@CvLuaPlayer@@KAHPAUlua_State@@@Z ; CvLuaPlayer::lGetMinorCivFriendshipWithMajor
PUBLIC	??_C@_0CD@IKFMLNBF@GetFriendshipChangePerTurnTimes1@ ; `string'
PUBLIC	?lGetFriendshipChangePerTurnTimes100@CvLuaPlayer@@KAHPAUlua_State@@@Z ; CvLuaPlayer::lGetFriendshipChangePerTurnTimes100
PUBLIC	??_C@_0CE@BFKJKFHN@IsPlayerHasOpenBordersAutomatica@ ; `string'
PUBLIC	?lIsPlayerHasOpenBordersAutomatically@CvLuaPlayer@@KAHPAUlua_State@@@Z ; CvLuaPlayer::lIsPlayerHasOpenBordersAutomatically
PUBLIC	??_C@_0BH@LPBLCHNA@IsPlayerHasOpenBorders?$AA@	; `string'
PUBLIC	?lIsPlayerHasOpenBorders@CvLuaPlayer@@KAHPAUlua_State@@@Z ; CvLuaPlayer::lIsPlayerHasOpenBorders
PUBLIC	??_C@_08IELAHIKJ@IsAllies?$AA@			; `string'
PUBLIC	?lIsAllies@CvLuaPlayer@@KAHPAUlua_State@@@Z	; CvLuaPlayer::lIsAllies
PUBLIC	??_C@_09MNONCBMN@IsFriends?$AA@			; `string'
PUBLIC	?lIsFriends@CvLuaPlayer@@KAHPAUlua_State@@@Z	; CvLuaPlayer::lIsFriends
PUBLIC	??_C@_0P@HEEBEDH@GetAlliedTurns?$AA@		; `string'
PUBLIC	?lGetAlliedTurns@CvLuaPlayer@@KAHPAUlua_State@@@Z ; CvLuaPlayer::lGetAlliedTurns
PUBLIC	??_C@_07FLOLAOEO@GetAlly?$AA@			; `string'
PUBLIC	?lGetAlly@CvLuaPlayer@@KAHPAUlua_State@@@Z	; CvLuaPlayer::lGetAlly
PUBLIC	??_C@_0BG@MEGLHPGJ@SetMinorCivUniqueUnit?$AA@	; `string'
PUBLIC	?lSetMinorCivUniqueUnit@CvLuaPlayer@@KAHPAUlua_State@@@Z ; CvLuaPlayer::lSetMinorCivUniqueUnit
PUBLIC	??_C@_0BG@DBDNKGCI@GetMinorCivUniqueUnit?$AA@	; `string'
PUBLIC	?lGetMinorCivUniqueUnit@CvLuaPlayer@@KAHPAUlua_State@@@Z ; CvLuaPlayer::lGetMinorCivUniqueUnit
PUBLIC	??_C@_0BI@MBHOGACH@IsMinorCivHasUniqueUnit?$AA@	; `string'
PUBLIC	?lIsMinorCivHasUniqueUnit@CvLuaPlayer@@KAHPAUlua_State@@@Z ; CvLuaPlayer::lIsMinorCivHasUniqueUnit
PUBLIC	??_C@_0P@ILIMMMEM@GetPersonality?$AA@		; `string'
PUBLIC	?lGetPersonality@CvLuaPlayer@@KAHPAUlua_State@@@Z ; CvLuaPlayer::lGetPersonality
PUBLIC	??_C@_0BB@DHOLGDME@GetMinorCivTrait?$AA@	; `string'
PUBLIC	?lGetMinorCivTrait@CvLuaPlayer@@KAHPAUlua_State@@@Z ; CvLuaPlayer::lGetMinorCivTrait
PUBLIC	??_C@_0BA@CGAIAIE@GetMinorCivType?$AA@		; `string'
PUBLIC	?lGetMinorCivType@CvLuaPlayer@@KAHPAUlua_State@@@Z ; CvLuaPlayer::lGetMinorCivType
PUBLIC	??_C@_0L@NCIBOILG@IsMinorCiv?$AA@		; `string'
PUBLIC	?lIsMinorCiv@CvLuaPlayer@@KAHPAUlua_State@@@Z	; CvLuaPlayer::lIsMinorCiv
PUBLIC	??_C@_0CA@NBFDEDOJ@IsGoldenAgeCultureBonusDisabled?$AA@ ; `string'
PUBLIC	?lIsGoldenAgeCultureBonusDisabled@CvLuaPlayer@@KAHPAUlua_State@@@Z ; CvLuaPlayer::lIsGoldenAgeCultureBonusDisabled
PUBLIC	??_C@_0BJ@MNOOLJOA@ChangeScoreFromScenario4?$AA@ ; `string'
PUBLIC	?lChangeScoreFromScenario4@CvLuaPlayer@@KAHPAUlua_State@@@Z ; CvLuaPlayer::lChangeScoreFromScenario4
PUBLIC	??_C@_0BG@NDACKNDF@GetScoreFromScenario4?$AA@	; `string'
PUBLIC	?lGetScoreFromScenario4@CvLuaPlayer@@KAHPAUlua_State@@@Z ; CvLuaPlayer::lGetScoreFromScenario4
PUBLIC	??_C@_0BJ@ICKPCPCH@ChangeScoreFromScenario3?$AA@ ; `string'
PUBLIC	?lChangeScoreFromScenario3@CvLuaPlayer@@KAHPAUlua_State@@@Z ; CvLuaPlayer::lChangeScoreFromScenario3
PUBLIC	??_C@_0BG@JMEDDLPC@GetScoreFromScenario3?$AA@	; `string'
PUBLIC	?lGetScoreFromScenario3@CvLuaPlayer@@KAHPAUlua_State@@@Z ; CvLuaPlayer::lGetScoreFromScenario3
PUBLIC	??_C@_0BJ@JLLEBOGG@ChangeScoreFromScenario2?$AA@ ; `string'
PUBLIC	?lChangeScoreFromScenario2@CvLuaPlayer@@KAHPAUlua_State@@@Z ; CvLuaPlayer::lChangeScoreFromScenario2
PUBLIC	??_C@_0BG@IFFIAKLD@GetScoreFromScenario2?$AA@	; `string'
PUBLIC	?lGetScoreFromScenario2@CvLuaPlayer@@KAHPAUlua_State@@@Z ; CvLuaPlayer::lGetScoreFromScenario2
PUBLIC	??_C@_0BJ@LAJJENKF@ChangeScoreFromScenario1?$AA@ ; `string'
PUBLIC	?lChangeScoreFromScenario1@CvLuaPlayer@@KAHPAUlua_State@@@Z ; CvLuaPlayer::lChangeScoreFromScenario1
PUBLIC	??_C@_0BG@KOHFFJHA@GetScoreFromScenario1?$AA@	; `string'
PUBLIC	?lGetScoreFromScenario1@CvLuaPlayer@@KAHPAUlua_State@@@Z ; CvLuaPlayer::lGetScoreFromScenario1
PUBLIC	??_C@_0BF@LJKKDKLA@GetScoreFromReligion?$AA@	; `string'
PUBLIC	?lGetScoreFromReligion@CvLuaPlayer@@KAHPAUlua_State@@@Z ; CvLuaPlayer::lGetScoreFromReligion
PUBLIC	??_C@_0BH@HFEFJHAL@GetScoreFromGreatWorks?$AA@	; `string'
PUBLIC	?lGetScoreFromGreatWorks@CvLuaPlayer@@KAHPAUlua_State@@@Z ; CvLuaPlayer::lGetScoreFromGreatWorks
PUBLIC	??_C@_0BF@BOHEBPE@GetScoreFromPolicies?$AA@	; `string'
PUBLIC	?lGetScoreFromPolicies@CvLuaPlayer@@KAHPAUlua_State@@@Z ; CvLuaPlayer::lGetScoreFromPolicies
PUBLIC	??_C@_0BK@HFICBPBB@ChangeScoreFromFutureTech?$AA@ ; `string'
PUBLIC	?lChangeScoreFromFutureTech@CvLuaPlayer@@KAHPAUlua_State@@@Z ; CvLuaPlayer::lChangeScoreFromFutureTech
PUBLIC	??_C@_0BH@IDCFNFFO@GetScoreFromFutureTech?$AA@	; `string'
PUBLIC	?lGetScoreFromFutureTech@CvLuaPlayer@@KAHPAUlua_State@@@Z ; CvLuaPlayer::lGetScoreFromFutureTech
PUBLIC	??_C@_0BC@ODKBFJHD@GetScoreFromTechs?$AA@	; `string'
PUBLIC	?lGetScoreFromTechs@CvLuaPlayer@@KAHPAUlua_State@@@Z ; CvLuaPlayer::lGetScoreFromTechs
PUBLIC	??_C@_0BE@GDCBBIPO@GetScoreFromWonders?$AA@	; `string'
PUBLIC	?lGetScoreFromWonders@CvLuaPlayer@@KAHPAUlua_State@@@Z ; CvLuaPlayer::lGetScoreFromWonders
PUBLIC	??_C@_0BB@HAMBNGEF@GetScoreFromLand?$AA@	; `string'
PUBLIC	?lGetScoreFromLand@CvLuaPlayer@@KAHPAUlua_State@@@Z ; CvLuaPlayer::lGetScoreFromLand
PUBLIC	??_C@_0BH@NACBPACA@GetScoreFromPopulation?$AA@	; `string'
PUBLIC	?lGetScoreFromPopulation@CvLuaPlayer@@KAHPAUlua_State@@@Z ; CvLuaPlayer::lGetScoreFromPopulation
PUBLIC	??_C@_0BD@GKJBDKOE@GetScoreFromCities?$AA@	; `string'
PUBLIC	?lGetScoreFromCities@CvLuaPlayer@@KAHPAUlua_State@@@Z ; CvLuaPlayer::lGetScoreFromCities
PUBLIC	??_C@_08FLBLGMDF@GetScore?$AA@			; `string'
PUBLIC	?lGetScore@CvLuaPlayer@@KAHPAUlua_State@@@Z	; CvLuaPlayer::lGetScore
PUBLIC	??_C@_0BD@EANFHEEM@GetTotalTimePlayed?$AA@	; `string'
PUBLIC	?lGetTotalTimePlayed@CvLuaPlayer@@KAHPAUlua_State@@@Z ; CvLuaPlayer::lGetTotalTimePlayed
PUBLIC	??_C@_0BB@FCKFHAMF@GetMilitaryMight?$AA@	; `string'
PUBLIC	?lGetMilitaryMight@CvLuaPlayer@@KAHPAUlua_State@@@Z ; CvLuaPlayer::lGetMilitaryMight
PUBLIC	??_C@_08JBDILNIJ@GetPower?$AA@			; `string'
PUBLIC	?lGetPower@CvLuaPlayer@@KAHPAUlua_State@@@Z	; CvLuaPlayer::lGetPower
PUBLIC	??_C@_0O@IJIJFFBJ@GetCitiesLost?$AA@		; `string'
PUBLIC	?lGetCitiesLost@CvLuaPlayer@@KAHPAUlua_State@@@Z ; CvLuaPlayer::lGetCitiesLost
PUBLIC	??_C@_0BB@NIHHDNHH@IsHasLostCapital?$AA@	; `string'
PUBLIC	?lIsHasLostCapital@CvLuaPlayer@@KAHPAUlua_State@@@Z ; CvLuaPlayer::lIsHasLostCapital
PUBLIC	??_C@_0P@FFFOGOIP@GetCapitalCity?$AA@		; `string'
PUBLIC	?lGetCapitalCity@CvLuaPlayer@@KAHPAUlua_State@@@Z ; CvLuaPlayer::lGetCapitalCity
PUBLIC	??_C@_0BD@MKDMLCCD@GetConversionTimer?$AA@	; `string'
PUBLIC	?lGetConversionTimer@CvLuaPlayer@@KAHPAUlua_State@@@Z ; CvLuaPlayer::lGetConversionTimer
PUBLIC	??_C@_0BE@HFKEEPGN@GetCultureBombTimer?$AA@	; `string'
PUBLIC	?lGetCultureBombTimer@CvLuaPlayer@@KAHPAUlua_State@@@Z ; CvLuaPlayer::lGetCultureBombTimer
PUBLIC	??_C@_0BL@GOLIOFPO@GetLevelExperienceModifier?$AA@ ; `string'
PUBLIC	?lGetLevelExperienceModifier@CvLuaPlayer@@KAHPAUlua_State@@@Z ; CvLuaPlayer::lGetLevelExperienceModifier
PUBLIC	??_C@_0BH@KBKMOIME@GetExpInBorderModifier?$AA@	; `string'
PUBLIC	?lGetExpInBorderModifier@CvLuaPlayer@@KAHPAUlua_State@@@Z ; CvLuaPlayer::lGetExpInBorderModifier
PUBLIC	??_C@_0BE@EJOLNPDK@GetOverflowResearch?$AA@	; `string'
PUBLIC	?lGetOverflowResearch@CvLuaPlayer@@KAHPAUlua_State@@@Z ; CvLuaPlayer::lGetOverflowResearch
PUBLIC	??_C@_0BA@PFEGDHIO@GetMaxConscript?$AA@		; `string'
PUBLIC	?lGetMaxConscript@CvLuaPlayer@@KAHPAUlua_State@@@Z ; CvLuaPlayer::lGetMaxConscript
PUBLIC	??_C@_0BF@MPFKKCHC@ChangeConscriptCount?$AA@	; `string'
PUBLIC	?lChangeConscriptCount@CvLuaPlayer@@KAHPAUlua_State@@@Z ; CvLuaPlayer::lChangeConscriptCount
PUBLIC	??_C@_0BC@HEDGEPGG@SetConscriptCount?$AA@	; `string'
PUBLIC	?lSetConscriptCount@CvLuaPlayer@@KAHPAUlua_State@@@Z ; CvLuaPlayer::lSetConscriptCount
PUBLIC	??_C@_0BC@FBDNMEHI@GetConscriptCount?$AA@	; `string'
PUBLIC	?lGetConscriptCount@CvLuaPlayer@@KAHPAUlua_State@@@Z ; CvLuaPlayer::lGetConscriptCount
PUBLIC	??_C@_0BE@HICDOHEK@GetHighestUnitLevel?$AA@	; `string'
PUBLIC	?lGetHighestUnitLevel@CvLuaPlayer@@KAHPAUlua_State@@@Z ; CvLuaPlayer::lGetHighestUnitLevel
PUBLIC	??_C@_0BJ@KOGLACFH@IsMilitaryFoodProduction?$AA@ ; `string'
PUBLIC	?lIsMilitaryFoodProduction@CvLuaPlayer@@KAHPAUlua_State@@@Z ; CvLuaPlayer::lIsMilitaryFoodProduction
PUBLIC	??_C@_0BI@EKFNFHH@GetHappyPerMilitaryUnit?$AA@	; `string'
PUBLIC	?lGetHappyPerMilitaryUnit@CvLuaPlayer@@KAHPAUlua_State@@@Z ; CvLuaPlayer::lGetHappyPerMilitaryUnit
PUBLIC	??_C@_0BE@IFGDJNNN@GetNumMilitaryUnits?$AA@	; `string'
PUBLIC	?lGetNumMilitaryUnits@CvLuaPlayer@@KAHPAUlua_State@@@Z ; CvLuaPlayer::lGetNumMilitaryUnits
PUBLIC	??_C@_0BB@MPNKPEH@GetExtraUnitCost?$AA@		; `string'
PUBLIC	?lGetExtraUnitCost@CvLuaPlayer@@KAHPAUlua_State@@@Z ; CvLuaPlayer::lGetExtraUnitCost
PUBLIC	??_C@_0BH@IBDMECLP@GetGoldPerMilitaryUnit?$AA@	; `string'
PUBLIC	?lGetGoldPerMilitaryUnit@CvLuaPlayer@@KAHPAUlua_State@@@Z ; CvLuaPlayer::lGetGoldPerMilitaryUnit
PUBLIC	??_C@_0BK@NAABFPGN@ChangeGoldPerUnitTimes100?$AA@ ; `string'
PUBLIC	?lChangeGoldPerUnitTimes100@CvLuaPlayer@@KAHPAUlua_State@@@Z ; CvLuaPlayer::lChangeGoldPerUnitTimes100
PUBLIC	??_C@_0P@KLHLMHGG@GetGoldPerUnit?$AA@		; `string'
PUBLIC	?lGetGoldPerUnit@CvLuaPlayer@@KAHPAUlua_State@@@Z ; CvLuaPlayer::lGetGoldPerUnit
PUBLIC	??_C@_0BD@FFLHNPMI@GetNumOutsideUnits?$AA@	; `string'
PUBLIC	?lGetNumOutsideUnits@CvLuaPlayer@@KAHPAUlua_State@@@Z ; CvLuaPlayer::lGetNumOutsideUnits
PUBLIC	??_C@_0BA@CHLGKBKN@GetNumNukeUnits?$AA@		; `string'
PUBLIC	?lGetNumNukeUnits@CvLuaPlayer@@KAHPAUlua_State@@@Z ; CvLuaPlayer::lGetNumNukeUnits
PUBLIC	??_C@_0BH@CNBJGBKN@GetCityDefenseModifier?$AA@	; `string'
PUBLIC	?lGetCityDefenseModifier@CvLuaPlayer@@KAHPAUlua_State@@@Z ; CvLuaPlayer::lGetCityDefenseModifier
PUBLIC	??_C@_0BH@JFCPPOKA@GetNumUnitsOutOfSupply?$AA@	; `string'
PUBLIC	?lGetNumUnitsOutOfSupply@CvLuaPlayer@@KAHPAUlua_State@@@Z ; CvLuaPlayer::lGetNumUnitsOutOfSupply
PUBLIC	??_C@_0CA@CBHKKKOG@GetNumUnitsSuppliedByPopulation?$AA@ ; `string'
PUBLIC	?lGetNumUnitsSuppliedByPopulation@CvLuaPlayer@@KAHPAUlua_State@@@Z ; CvLuaPlayer::lGetNumUnitsSuppliedByPopulation
PUBLIC	??_C@_0BM@IPDKBGHK@GetNumUnitsSuppliedByCities?$AA@ ; `string'
PUBLIC	?lGetNumUnitsSuppliedByCities@CvLuaPlayer@@KAHPAUlua_State@@@Z ; CvLuaPlayer::lGetNumUnitsSuppliedByCities
PUBLIC	??_C@_0BO@PMEHJMFO@GetNumUnitsSuppliedByHandicap?$AA@ ; `string'
PUBLIC	?lGetNumUnitsSuppliedByHandicap@CvLuaPlayer@@KAHPAUlua_State@@@Z ; CvLuaPlayer::lGetNumUnitsSuppliedByHandicap
PUBLIC	??_C@_0BE@BILKHCNA@GetNumUnitsSupplied?$AA@	; `string'
PUBLIC	?lGetNumUnitsSupplied@CvLuaPlayer@@KAHPAUlua_State@@@Z ; CvLuaPlayer::lGetNumUnitsSupplied
PUBLIC	??_C@_0CA@MEMPLKAL@GetUnitProductionMaintenanceMod?$AA@ ; `string'
PUBLIC	?lGetUnitProductionMaintenanceMod@CvLuaPlayer@@KAHPAUlua_State@@@Z ; CvLuaPlayer::lGetUnitProductionMaintenanceMod
PUBLIC	??_C@_0BM@HMIHDNFC@GetWonderProductionModifier?$AA@ ; `string'
PUBLIC	?lGetWonderProductionModifier@CvLuaPlayer@@KAHPAUlua_State@@@Z ; CvLuaPlayer::lGetWonderProductionModifier
PUBLIC	??_C@_0CE@OBJBHEJM@GetCapitalSettlerProductionModif@ ; `string'
PUBLIC	?lGetCapitalSettlerProductionModifier@CvLuaPlayer@@KAHPAUlua_State@@@Z ; CvLuaPlayer::lGetCapitalSettlerProductionModifier
PUBLIC	??_C@_0BN@PJHHAPCJ@GetSettlerProductionModifier?$AA@ ; `string'
PUBLIC	?lGetSettlerProductionModifier@CvLuaPlayer@@KAHPAUlua_State@@@Z ; CvLuaPlayer::lGetSettlerProductionModifier
PUBLIC	??_C@_0BL@EMAHKCFF@GetSpaceProductionModifier?$AA@ ; `string'
PUBLIC	?lGetSpaceProductionModifier@CvLuaPlayer@@KAHPAUlua_State@@@Z ; CvLuaPlayer::lGetSpaceProductionModifier
PUBLIC	??_C@_0BO@FAMIPBGF@GetMilitaryProductionModifier?$AA@ ; `string'
PUBLIC	?lGetMilitaryProductionModifier@CvLuaPlayer@@KAHPAUlua_State@@@Z ; CvLuaPlayer::lGetMilitaryProductionModifier
PUBLIC	??_C@_0CC@EGHOKLNO@GetImprovementUpgradeRateModifie@ ; `string'
PUBLIC	?lGetImprovementUpgradeRateModifier@CvLuaPlayer@@KAHPAUlua_State@@@Z ; CvLuaPlayer::lGetImprovementUpgradeRateModifier
PUBLIC	??_C@_0BH@OLIFBLOM@GetWorkerSpeedModifier?$AA@	; `string'
PUBLIC	?lGetWorkerSpeedModifier@CvLuaPlayer@@KAHPAUlua_State@@@Z ; CvLuaPlayer::lGetWorkerSpeedModifier
PUBLIC	??_C@_0BN@CNPJHBNO@GetFeatureProductionModifier?$AA@ ; `string'
PUBLIC	?lGetFeatureProductionModifier@CvLuaPlayer@@KAHPAUlua_State@@@Z ; CvLuaPlayer::lGetFeatureProductionModifier
PUBLIC	??_C@_0BC@KJGDLEFF@GetFreeExperience?$AA@	; `string'
PUBLIC	?lGetFreeExperience@CvLuaPlayer@@KAHPAUlua_State@@@Z ; CvLuaPlayer::lGetFreeExperience
PUBLIC	??_C@_0CH@IPPDDFAE@GetMaxPlayerBuildingProductionMo@ ; `string'
PUBLIC	?lGetMaxPlayerBuildingProductionModifier@CvLuaPlayer@@KAHPAUlua_State@@@Z ; CvLuaPlayer::lGetMaxPlayerBuildingProductionModifier
PUBLIC	??_C@_0CF@IEGALNMD@GetMaxTeamBuildingProductionModi@ ; `string'
PUBLIC	?lGetMaxTeamBuildingProductionModifier@CvLuaPlayer@@KAHPAUlua_State@@@Z ; CvLuaPlayer::lGetMaxTeamBuildingProductionModifier
PUBLIC	??_C@_0CH@MPJDKCLN@GetMaxGlobalBuildingProductionMo@ ; `string'
PUBLIC	?lGetMaxGlobalBuildingProductionModifier@CvLuaPlayer@@KAHPAUlua_State@@@Z ; CvLuaPlayer::lGetMaxGlobalBuildingProductionModifier
PUBLIC	??_C@_0CA@IIOBOOCG@GetSpecialistProductionModifier?$AA@ ; `string'
PUBLIC	?lGetSpecialistProductionModifier@CvLuaPlayer@@KAHPAUlua_State@@@Z ; CvLuaPlayer::lGetSpecialistProductionModifier
PUBLIC	??_C@_0BN@FIGLLOHP@GetProjectProductionModifier?$AA@ ; `string'
PUBLIC	?lGetProjectProductionModifier@CvLuaPlayer@@KAHPAUlua_State@@@Z ; CvLuaPlayer::lGetProjectProductionModifier
PUBLIC	??_C@_0BO@BOIFPPNB@GetBuildingProductionModifier?$AA@ ; `string'
PUBLIC	?lGetBuildingProductionModifier@CvLuaPlayer@@KAHPAUlua_State@@@Z ; CvLuaPlayer::lGetBuildingProductionModifier
PUBLIC	??_C@_0BK@CAONOBAD@GetUnitProductionModifier?$AA@ ; `string'
PUBLIC	?lGetUnitProductionModifier@CvLuaPlayer@@KAHPAUlua_State@@@Z ; CvLuaPlayer::lGetUnitProductionModifier
PUBLIC	??_C@_0BG@COALBBFM@GetProductionModifier?$AA@	; `string'
PUBLIC	?lGetProductionModifier@CvLuaPlayer@@KAHPAUlua_State@@@Z ; CvLuaPlayer::lGetProductionModifier
PUBLIC	??_C@_0CD@HOFMMBHK@GetPolicyGreatEngineerRateModifi@ ; `string'
PUBLIC	?lGetPolicyGreatEngineerRateModifier@CvLuaPlayer@@KAHPAUlua_State@@@Z ; CvLuaPlayer::lGetPolicyGreatEngineerRateModifier
PUBLIC	??_C@_0CD@DKCDGIM@GetPolicyGreatMerchantRateModifi@ ; `string'
PUBLIC	?lGetPolicyGreatMerchantRateModifier@CvLuaPlayer@@KAHPAUlua_State@@@Z ; CvLuaPlayer::lGetPolicyGreatMerchantRateModifier
PUBLIC	??_C@_0CE@DBDAMIKN@GetPolicyGreatScientistRateModif@ ; `string'
PUBLIC	?lGetPolicyGreatScientistRateModifier@CvLuaPlayer@@KAHPAUlua_State@@@Z ; CvLuaPlayer::lGetPolicyGreatScientistRateModifier
PUBLIC	??_C@_0CD@JHHGEB@GetPolicyGreatMusicianRateModifi@ ; `string'
PUBLIC	?lGetPolicyGreatMusicianRateModifier@CvLuaPlayer@@KAHPAUlua_State@@@Z ; CvLuaPlayer::lGetPolicyGreatMusicianRateModifier
PUBLIC	??_C@_0CB@MMGEIAFA@GetPolicyGreatArtistRateModifier@ ; `string'
PUBLIC	?lGetPolicyGreatArtistRateModifier@CvLuaPlayer@@KAHPAUlua_State@@@Z ; CvLuaPlayer::lGetPolicyGreatArtistRateModifier
PUBLIC	??_C@_0CB@DGCCPGOK@GetPolicyGreatWriterRateModifier@ ; `string'
PUBLIC	?lGetPolicyGreatWriterRateModifier@CvLuaPlayer@@KAHPAUlua_State@@@Z ; CvLuaPlayer::lGetPolicyGreatWriterRateModifier
PUBLIC	??_C@_0CB@LFJJFBJB@GetPolicyGreatPeopleRateModifier@ ; `string'
PUBLIC	?lGetPolicyGreatPeopleRateModifier@CvLuaPlayer@@KAHPAUlua_State@@@Z ; CvLuaPlayer::lGetPolicyGreatPeopleRateModifier
PUBLIC	??_C@_0BN@GFFELKAF@GetGreatEngineerRateModifier?$AA@ ; `string'
PUBLIC	?lGetGreatEngineerRateModifier@CvLuaPlayer@@KAHPAUlua_State@@@Z ; CvLuaPlayer::lGetGreatEngineerRateModifier
PUBLIC	??_C@_0BN@BIKKENPD@GetGreatMerchantRateModifier?$AA@ ; `string'
PUBLIC	?lGetGreatMerchantRateModifier@CvLuaPlayer@@KAHPAUlua_State@@@Z ; CvLuaPlayer::lGetGreatMerchantRateModifier
PUBLIC	??_C@_0BO@PBJBKMHL@GetGreatScientistRateModifier?$AA@ ; `string'
PUBLIC	?lGetGreatScientistRateModifier@CvLuaPlayer@@KAHPAUlua_State@@@Z ; CvLuaPlayer::lGetGreatScientistRateModifier
PUBLIC	??_C@_0BN@BLJPANDO@GetGreatMusicianRateModifier?$AA@ ; `string'
PUBLIC	?lGetGreatMusicianRateModifier@CvLuaPlayer@@KAHPAUlua_State@@@Z ; CvLuaPlayer::lGetGreatMusicianRateModifier
PUBLIC	??_C@_0BL@KECMPOFM@GetGreatArtistRateModifier?$AA@ ; `string'
PUBLIC	?lGetGreatArtistRateModifier@CvLuaPlayer@@KAHPAUlua_State@@@Z ; CvLuaPlayer::lGetGreatArtistRateModifier
PUBLIC	??_C@_0BL@FOGKIIOG@GetGreatWriterRateModifier?$AA@ ; `string'
PUBLIC	?lGetGreatWriterRateModifier@CvLuaPlayer@@KAHPAUlua_State@@@Z ; CvLuaPlayer::lGetGreatWriterRateModifier
PUBLIC	??_C@_0CE@NBFMLJOA@GetDomesticGreatGeneralRateModif@ ; `string'
PUBLIC	?lGetDomesticGreatGeneralRateModifier@CvLuaPlayer@@KAHPAUlua_State@@@Z ; CvLuaPlayer::lGetDomesticGreatGeneralRateModifier
PUBLIC	??_C@_0BM@BPCIOMLO@GetGreatGeneralRateModifier?$AA@ ; `string'
PUBLIC	?lGetGreatGeneralRateModifier@CvLuaPlayer@@KAHPAUlua_State@@@Z ; CvLuaPlayer::lGetGreatGeneralRateModifier
PUBLIC	??_C@_0BL@NNNBCPJN@GetGreatPeopleRateModifier?$AA@ ; `string'
PUBLIC	?lGetGreatPeopleRateModifier@CvLuaPlayer@@KAHPAUlua_State@@@Z ; CvLuaPlayer::lGetGreatPeopleRateModifier
PUBLIC	??_C@_0CC@GGFJPDKI@GetGreatAdmiralsThresholdModifie@ ; `string'
PUBLIC	?lGetGreatAdmiralsThresholdModifier@CvLuaPlayer@@KAHPAUlua_State@@@Z ; CvLuaPlayer::lGetGreatAdmiralsThresholdModifier
PUBLIC	??_C@_0CC@KEPHPFIK@GetGreatGeneralsThresholdModifie@ ; `string'
PUBLIC	?lGetGreatGeneralsThresholdModifier@CvLuaPlayer@@KAHPAUlua_State@@@Z ; CvLuaPlayer::lGetGreatGeneralsThresholdModifier
PUBLIC	??_C@_0CA@CKCODGOH@GetGreatPeopleThresholdModifier?$AA@ ; `string'
PUBLIC	?lGetGreatPeopleThresholdModifier@CvLuaPlayer@@KAHPAUlua_State@@@Z ; CvLuaPlayer::lGetGreatPeopleThresholdModifier
PUBLIC	??_C@_0BI@JEHAPHOE@GetGreatGeneralsCreated?$AA@	; `string'
PUBLIC	?lGetGreatGeneralsCreated@CvLuaPlayer@@KAHPAUlua_State@@@Z ; CvLuaPlayer::lGetGreatGeneralsCreated
PUBLIC	??_C@_0BG@GOOPLPC@GetGreatPeopleCreated?$AA@	; `string'
PUBLIC	?lGetGreatPeopleCreated@CvLuaPlayer@@KAHPAUlua_State@@@Z ; CvLuaPlayer::lGetGreatPeopleCreated
PUBLIC	??_C@_0BD@PBNOMGLK@CreateGreatGeneral?$AA@	; `string'
PUBLIC	?lCreateGreatGeneral@CvLuaPlayer@@KAHPAUlua_State@@@Z ; CvLuaPlayer::lCreateGreatGeneral
PUBLIC	??_C@_0BB@EAPJMMAA@GetHurryModifier?$AA@	; `string'
PUBLIC	?lGetHurryModifier@CvLuaPlayer@@KAHPAUlua_State@@@Z ; CvLuaPlayer::lGetHurryModifier
PUBLIC	??_C@_0CG@HCINBNOL@GetGoldenAgeGreatMusicianRateMod@ ; `string'
PUBLIC	?lGetGoldenAgeGreatMusicianRateModifier@CvLuaPlayer@@KAHPAUlua_State@@@Z ; CvLuaPlayer::lGetGoldenAgeGreatMusicianRateModifier
PUBLIC	??_C@_0CE@HHFLCCEA@GetGoldenAgeGreatArtistRateModif@ ; `string'
PUBLIC	?lGetGoldenAgeGreatArtistRateModifier@CvLuaPlayer@@KAHPAUlua_State@@@Z ; CvLuaPlayer::lGetGoldenAgeGreatArtistRateModifier
PUBLIC	??_C@_0CE@INBNFEPK@GetGoldenAgeGreatWriterRateModif@ ; `string'
PUBLIC	?lGetGoldenAgeGreatWriterRateModifier@CvLuaPlayer@@KAHPAUlua_State@@@Z ; CvLuaPlayer::lGetGoldenAgeGreatWriterRateModifier
PUBLIC	??_C@_0BM@GFBIOEFN@GetGoldenAgeTourismModifier?$AA@ ; `string'
PUBLIC	?lGetGoldenAgeTourismModifier@CvLuaPlayer@@KAHPAUlua_State@@@Z ; CvLuaPlayer::lGetGoldenAgeTourismModifier
PUBLIC	??_C@_0BF@GCOBNFFJ@GetGoldenAgeModifier?$AA@	; `string'
PUBLIC	?lGetGoldenAgeModifier@CvLuaPlayer@@KAHPAUlua_State@@@Z ; CvLuaPlayer::lGetGoldenAgeModifier
PUBLIC	??_C@_0P@HJMIOKAH@GetStrikeTurns?$AA@		; `string'
PUBLIC	?lGetStrikeTurns@CvLuaPlayer@@KAHPAUlua_State@@@Z ; CvLuaPlayer::lGetStrikeTurns
PUBLIC	??_C@_0BI@FPIFLKMJ@ChangeNumUnitGoldenAges?$AA@	; `string'
PUBLIC	?lChangeNumUnitGoldenAges@CvLuaPlayer@@KAHPAUlua_State@@@Z ; CvLuaPlayer::lChangeNumUnitGoldenAges
PUBLIC	??_C@_0BF@LCGDAHFL@GetNumUnitGoldenAges?$AA@	; `string'
PUBLIC	?lGetNumUnitGoldenAges@CvLuaPlayer@@KAHPAUlua_State@@@Z ; CvLuaPlayer::lGetNumUnitGoldenAges
PUBLIC	??_C@_0BF@OADGEBIB@ChangeGoldenAgeTurns?$AA@	; `string'
PUBLIC	?lChangeGoldenAgeTurns@CvLuaPlayer@@KAHPAUlua_State@@@Z ; CvLuaPlayer::lChangeGoldenAgeTurns
PUBLIC	??_C@_0M@EBKACFHH@IsGoldenAge?$AA@		; `string'
PUBLIC	?lIsGoldenAge@CvLuaPlayer@@KAHPAUlua_State@@@Z	; CvLuaPlayer::lIsGoldenAge
PUBLIC	??_C@_0BD@FNIABJJO@GetGoldenAgeLength?$AA@	; `string'
PUBLIC	?lGetGoldenAgeLength@CvLuaPlayer@@KAHPAUlua_State@@@Z ; CvLuaPlayer::lGetGoldenAgeLength
PUBLIC	??_C@_0BC@HOFBCHIL@GetGoldenAgeTurns?$AA@	; `string'
PUBLIC	?lGetGoldenAgeTurns@CvLuaPlayer@@KAHPAUlua_State@@@Z ; CvLuaPlayer::lGetGoldenAgeTurns
PUBLIC	??_C@_0BE@EPHOEOBB@ChangeNumGoldenAges?$AA@	; `string'
PUBLIC	?lChangeNumGoldenAges@CvLuaPlayer@@KAHPAUlua_State@@@Z ; CvLuaPlayer::lChangeNumGoldenAges
PUBLIC	??_C@_0BB@CINEFJKE@SetNumGoldenAges?$AA@	; `string'
PUBLIC	?lSetNumGoldenAges@CvLuaPlayer@@KAHPAUlua_State@@@Z ; CvLuaPlayer::lSetNumGoldenAges
PUBLIC	??_C@_0BB@EMINOHBG@GetNumGoldenAges?$AA@	; `string'
PUBLIC	?lGetNumGoldenAges@CvLuaPlayer@@KAHPAUlua_State@@@Z ; CvLuaPlayer::lGetNumGoldenAges
PUBLIC	??_C@_0BN@FJAKLENJ@ChangeGoldenAgeProgressMeter?$AA@ ; `string'
PUBLIC	?lChangeGoldenAgeProgressMeter@CvLuaPlayer@@KAHPAUlua_State@@@Z ; CvLuaPlayer::lChangeGoldenAgeProgressMeter
PUBLIC	??_C@_0BK@NLKNLKPL@SetGoldenAgeProgressMeter?$AA@ ; `string'
PUBLIC	?lSetGoldenAgeProgressMeter@CvLuaPlayer@@KAHPAUlua_State@@@Z ; CvLuaPlayer::lSetGoldenAgeProgressMeter
PUBLIC	??_C@_0BK@FLGLHHFN@GetGoldenAgeProgressMeter?$AA@ ; `string'
PUBLIC	?lGetGoldenAgeProgressMeter@CvLuaPlayer@@KAHPAUlua_State@@@Z ; CvLuaPlayer::lGetGoldenAgeProgressMeter
PUBLIC	??_C@_0BO@LPPFEDND@GetGoldenAgeProgressThreshold?$AA@ ; `string'
PUBLIC	?lGetGoldenAgeProgressThreshold@CvLuaPlayer@@KAHPAUlua_State@@@Z ; CvLuaPlayer::lGetGoldenAgeProgressThreshold
PUBLIC	??_C@_0BF@CGIAJLKI@GetTourismBonusTurns?$AA@	; `string'
PUBLIC	?lGetTourismBonusTurns@CvLuaPlayer@@KAHPAUlua_State@@@Z ; CvLuaPlayer::lGetTourismBonusTurns
PUBLIC	??_C@_0BF@ECALGNHI@GetCultureBonusTurns?$AA@	; `string'
PUBLIC	?lGetCultureBonusTurns@CvLuaPlayer@@KAHPAUlua_State@@@Z ; CvLuaPlayer::lGetCultureBonusTurns
PUBLIC	??_C@_0BE@DHPFLJOB@GetAttackBonusTurns?$AA@	; `string'
PUBLIC	?lGetAttackBonusTurns@CvLuaPlayer@@KAHPAUlua_State@@@Z ; CvLuaPlayer::lGetAttackBonusTurns
PUBLIC	??_C@_0BP@EFPNHEAL@GetAdvancedStartVisibilityCost?$AA@ ; `string'
PUBLIC	?lGetAdvancedStartVisibilityCost@CvLuaPlayer@@KAHPAUlua_State@@@Z ; CvLuaPlayer::lGetAdvancedStartVisibilityCost
PUBLIC	??_C@_0BJ@BIBNNGIB@GetAdvancedStartTechCost?$AA@ ; `string'
PUBLIC	?lGetAdvancedStartTechCost@CvLuaPlayer@@KAHPAUlua_State@@@Z ; CvLuaPlayer::lGetAdvancedStartTechCost
PUBLIC	??_C@_0BK@JJCKPMNB@GetAdvancedStartRouteCost?$AA@ ; `string'
PUBLIC	?lGetAdvancedStartRouteCost@CvLuaPlayer@@KAHPAUlua_State@@@Z ; CvLuaPlayer::lGetAdvancedStartRouteCost
PUBLIC	??_C@_0CA@DCEELAJ@GetAdvancedStartImprovementCost?$AA@ ; `string'
PUBLIC	?lGetAdvancedStartImprovementCost@CvLuaPlayer@@KAHPAUlua_State@@@Z ; CvLuaPlayer::lGetAdvancedStartImprovementCost
PUBLIC	??_C@_0BN@BBJMEHC@GetAdvancedStartBuildingCost?$AA@ ; `string'
PUBLIC	?lGetAdvancedStartBuildingCost@CvLuaPlayer@@KAHPAUlua_State@@@Z ; CvLuaPlayer::lGetAdvancedStartBuildingCost
PUBLIC	??_C@_0BI@FOAJKADD@GetAdvancedStartPopCost?$AA@	; `string'
PUBLIC	?lGetAdvancedStartPopCost@CvLuaPlayer@@KAHPAUlua_State@@@Z ; CvLuaPlayer::lGetAdvancedStartPopCost
PUBLIC	??_C@_0BJ@ONOAJPAI@GetAdvancedStartCityCost?$AA@ ; `string'
PUBLIC	?lGetAdvancedStartCityCost@CvLuaPlayer@@KAHPAUlua_State@@@Z ; CvLuaPlayer::lGetAdvancedStartCityCost
PUBLIC	??_C@_0BJ@ICGIEDDK@GetAdvancedStartUnitCost?$AA@ ; `string'
PUBLIC	?lGetAdvancedStartUnitCost@CvLuaPlayer@@KAHPAUlua_State@@@Z ; CvLuaPlayer::lGetAdvancedStartUnitCost
PUBLIC	??_C@_0BK@FJENIMJD@ChangeAdvancedStartPoints?$AA@ ; `string'
PUBLIC	?lChangeAdvancedStartPoints@CvLuaPlayer@@KAHPAUlua_State@@@Z ; CvLuaPlayer::lChangeAdvancedStartPoints
PUBLIC	??_C@_0BH@KOMEGBAD@SetAdvancedStartPoints?$AA@	; `string'
PUBLIC	?lSetAdvancedStartPoints@CvLuaPlayer@@KAHPAUlua_State@@@Z ; CvLuaPlayer::lSetAdvancedStartPoints
PUBLIC	??_C@_0BH@KPOKEGNM@GetAdvancedStartPoints?$AA@	; `string'
PUBLIC	?lGetAdvancedStartPoints@CvLuaPlayer@@KAHPAUlua_State@@@Z ; CvLuaPlayer::lGetAdvancedStartPoints
PUBLIC	??_C@_0BG@LEGAIOCI@ChangeAnarchyNumTurns?$AA@	; `string'
PUBLIC	?lChangeAnarchyNumTurns@CvLuaPlayer@@KAHPAUlua_State@@@Z ; CvLuaPlayer::lChangeAnarchyNumTurns
PUBLIC	??_C@_0BD@KOABDGLI@SetAnarchyNumTurns?$AA@	; `string'
PUBLIC	?lSetAnarchyNumTurns@CvLuaPlayer@@KAHPAUlua_State@@@Z ; CvLuaPlayer::lSetAnarchyNumTurns
PUBLIC	??_C@_0BD@FECLAAFA@GetAnarchyNumTurns?$AA@	; `string'
PUBLIC	?lGetAnarchyNumTurns@CvLuaPlayer@@KAHPAUlua_State@@@Z ; CvLuaPlayer::lGetAnarchyNumTurns
PUBLIC	??_C@_09FIFKNOKC@IsAnarchy?$AA@			; `string'
PUBLIC	?lIsAnarchy@CvLuaPlayer@@KAHPAUlua_State@@@Z	; CvLuaPlayer::lIsAnarchy
PUBLIC	??_C@_08DLFCFIKN@GetTenet?$AA@			; `string'
PUBLIC	?lGetTenet@CvLuaPlayer@@KAHPAUlua_State@@@Z	; CvLuaPlayer::lGetTenet
PUBLIC	??_C@_0BD@LDLHNBJO@GetAvailableTenets?$AA@	; `string'
PUBLIC	?lGetAvailableTenets@CvLuaPlayer@@KAHPAUlua_State@@@Z ; CvLuaPlayer::lGetAvailableTenets
PUBLIC	??_C@_0BH@HCDPPGCO@IsPolicyBranchFinished?$AA@	; `string'
PUBLIC	?lIsPolicyBranchFinished@CvLuaPlayer@@KAHPAUlua_State@@@Z ; CvLuaPlayer::lIsPolicyBranchFinished
PUBLIC	??_C@_0BN@PJMELKMJ@GetNumPolicyBranchesFinished?$AA@ ; `string'
PUBLIC	?lGetNumPolicyBranchesFinished@CvLuaPlayer@@KAHPAUlua_State@@@Z ; CvLuaPlayer::lGetNumPolicyBranchesFinished
PUBLIC	??_C@_0BM@KBCLIFBL@GetPolicyCatchSpiesModifier?$AA@ ; `string'
PUBLIC	?lGetPolicyCatchSpiesModifier@CvLuaPlayer@@KAHPAUlua_State@@@Z ; CvLuaPlayer::lGetPolicyCatchSpiesModifier
PUBLIC	??_C@_0BB@OHKMDAD@GetBranchPicked3?$AA@		; `string'
PUBLIC	?lGetBranchPicked3@CvLuaPlayer@@KAHPAUlua_State@@@Z ; CvLuaPlayer::lGetBranchPicked3
PUBLIC	??_C@_0BB@BHGBPCEC@GetBranchPicked2?$AA@	; `string'
PUBLIC	?lGetBranchPicked2@CvLuaPlayer@@KAHPAUlua_State@@@Z ; CvLuaPlayer::lGetBranchPicked2
PUBLIC	??_C@_0BB@DMEMKBIB@GetBranchPicked1?$AA@	; `string'
PUBLIC	?lGetBranchPicked1@CvLuaPlayer@@KAHPAUlua_State@@@Z ; CvLuaPlayer::lGetBranchPicked1
PUBLIC	??_C@_0BG@DOHPFKJL@GetLateGamePolicyTree?$AA@	; `string'
PUBLIC	?lGetLateGamePolicyTree@CvLuaPlayer@@KAHPAUlua_State@@@Z ; CvLuaPlayer::lGetLateGamePolicyTree
PUBLIC	??_C@_0CA@DEKBLMFE@GetDominantPolicyBranchForTitle?$AA@ ; `string'
PUBLIC	?lGetDominantPolicyBranchForTitle@CvLuaPlayer@@KAHPAUlua_State@@@Z ; CvLuaPlayer::lGetDominantPolicyBranchForTitle
PUBLIC	??_C@_0BG@MONIAELO@CanUnlockPolicyBranch?$AA@	; `string'
PUBLIC	?lCanUnlockPolicyBranch@CvLuaPlayer@@KAHPAUlua_State@@@Z ; CvLuaPlayer::lCanUnlockPolicyBranch
PUBLIC	??_C@_0O@JILLCNOF@DoAdoptPolicy?$AA@		; `string'
PUBLIC	?lDoAdoptPolicy@CvLuaPlayer@@KAHPAUlua_State@@@Z ; CvLuaPlayer::lDoAdoptPolicy
PUBLIC	??_C@_0P@NBAEIJPB@CanAdoptPolicy?$AA@		; `string'
PUBLIC	?lCanAdoptPolicy@CvLuaPlayer@@KAHPAUlua_State@@@Z ; CvLuaPlayer::lCanAdoptPolicy
PUBLIC	??_C@_0BC@HNDGHHDL@GetNextPolicyCost?$AA@	; `string'
PUBLIC	?lGetNextPolicyCost@CvLuaPlayer@@KAHPAUlua_State@@@Z ; CvLuaPlayer::lGetNextPolicyCost
PUBLIC	??_C@_0N@CKJMFNFA@SetHasPolicy?$AA@		; `string'
PUBLIC	?lSetHasPolicy@CvLuaPlayer@@KAHPAUlua_State@@@Z	; CvLuaPlayer::lSetHasPolicy
PUBLIC	??_C@_09IMCIBCHC@HasPolicy?$AA@			; `string'
PUBLIC	?lHasPolicy@CvLuaPlayer@@KAHPAUlua_State@@@Z	; CvLuaPlayer::lHasPolicy
PUBLIC	??_C@_0BH@OLJHEJDP@GetNumPoliciesInBranch?$AA@	; `string'
PUBLIC	?lGetNumPoliciesInBranch@CvLuaPlayer@@KAHPAUlua_State@@@Z ; CvLuaPlayer::lGetNumPoliciesInBranch
PUBLIC	??_C@_0P@LDBNHHDO@GetNumPolicies?$AA@		; `string'
PUBLIC	?lGetNumPolicies@CvLuaPlayer@@KAHPAUlua_State@@@Z ; CvLuaPlayer::lGetNumPolicies
PUBLIC	??_C@_0BM@DDGOEEIN@GetNumPolicyBranchesAllowed?$AA@ ; `string'
PUBLIC	?lGetNumPolicyBranchesAllowed@CvLuaPlayer@@KAHPAUlua_State@@@Z ; CvLuaPlayer::lGetNumPolicyBranchesAllowed
PUBLIC	??_C@_0BG@KGNNGKHG@GetPolicyBranchChosen?$AA@	; `string'
PUBLIC	?lGetPolicyBranchChosen@CvLuaPlayer@@KAHPAUlua_State@@@Z ; CvLuaPlayer::lGetPolicyBranchChosen
PUBLIC	??_C@_0BN@FFNPAHDM@GetNumPolicyBranchesUnlocked?$AA@ ; `string'
PUBLIC	?lGetNumPolicyBranchesUnlocked@CvLuaPlayer@@KAHPAUlua_State@@@Z ; CvLuaPlayer::lGetNumPolicyBranchesUnlocked
PUBLIC	??_C@_0BI@GJDFFJHC@SetPolicyBranchUnlocked?$AA@	; `string'
PUBLIC	?lSetPolicyBranchUnlocked@CvLuaPlayer@@KAHPAUlua_State@@@Z ; CvLuaPlayer::lSetPolicyBranchUnlocked
PUBLIC	??_C@_0BH@NOCEELNL@IsPolicyBranchUnlocked?$AA@	; `string'
PUBLIC	?lIsPolicyBranchUnlocked@CvLuaPlayer@@KAHPAUlua_State@@@Z ; CvLuaPlayer::lIsPolicyBranchUnlocked
PUBLIC	??_C@_0BG@KBLODJLM@IsPolicyBranchBlocked?$AA@	; `string'
PUBLIC	?lIsPolicyBranchBlocked@CvLuaPlayer@@KAHPAUlua_State@@@Z ; CvLuaPlayer::lIsPolicyBranchBlocked
PUBLIC	??_C@_0BA@DKMNPPBN@IsPolicyBlocked?$AA@		; `string'
PUBLIC	?lIsPolicyBlocked@CvLuaPlayer@@KAHPAUlua_State@@@Z ; CvLuaPlayer::lIsPolicyBlocked
PUBLIC	??_C@_0BO@NCGBNEJP@ChangeAlwaysSeeBarbCampsCount?$AA@ ; `string'
PUBLIC	?lChangeAlwaysSeeBarbCampsCount@CvLuaPlayer@@KAHPAUlua_State@@@Z ; CvLuaPlayer::lChangeAlwaysSeeBarbCampsCount
PUBLIC	??_C@_0BL@HIDDCHF@SetAlwaysSeeBarbCampsCount?$AA@ ; `string'
PUBLIC	?lSetAlwaysSeeBarbCampsCount@CvLuaPlayer@@KAHPAUlua_State@@@Z ; CvLuaPlayer::lSetAlwaysSeeBarbCampsCount
PUBLIC	??_C@_0BF@HGKGHLME@IsAlwaysSeeBarbCamps?$AA@	; `string'
PUBLIC	?lIsAlwaysSeeBarbCamps@CvLuaPlayer@@KAHPAUlua_State@@@Z ; CvLuaPlayer::lIsAlwaysSeeBarbCamps
PUBLIC	??_C@_0CI@CPNKMMFB@ChangeGarrisonedCityRangeStrikeM@ ; `string'
PUBLIC	?lChangeGarrisonedCityRangeStrikeModifier@CvLuaPlayer@@KAHPAUlua_State@@@Z ; CvLuaPlayer::lChangeGarrisonedCityRangeStrikeModifier
PUBLIC	??_C@_0CF@HCFHKNHE@GetGarrisonedCityRangeStrikeModi@ ; `string'
PUBLIC	?lGetGarrisonedCityRangeStrikeModifier@CvLuaPlayer@@KAHPAUlua_State@@@Z ; CvLuaPlayer::lGetGarrisonedCityRangeStrikeModifier
PUBLIC	??_C@_0BL@DLHHGHDO@GetCombatBonusVsSmallerCiv?$AA@ ; `string'
PUBLIC	?lGetCombatBonusVsSmallerCiv@CvLuaPlayer@@KAHPAUlua_State@@@Z ; CvLuaPlayer::lGetCombatBonusVsSmallerCiv
PUBLIC	??_C@_0BK@CFFLCBFM@GetCombatBonusVsLargerCiv?$AA@ ; `string'
PUBLIC	?lGetCombatBonusVsLargerCiv@CvLuaPlayer@@KAHPAUlua_State@@@Z ; CvLuaPlayer::lGetCombatBonusVsLargerCiv
PUBLIC	??_C@_0BL@NBFOBEAE@GetCombatBonusVsHigherTech?$AA@ ; `string'
PUBLIC	?lGetCombatBonusVsHigherTech@CvLuaPlayer@@KAHPAUlua_State@@@Z ; CvLuaPlayer::lGetCombatBonusVsHigherTech
PUBLIC	??_C@_0BL@ENNNGIPB@ChangeBarbarianCombatBonus?$AA@ ; `string'
PUBLIC	?lChangeBarbarianCombatBonus@CvLuaPlayer@@KAHPAUlua_State@@@Z ; CvLuaPlayer::lChangeBarbarianCombatBonus
PUBLIC	??_C@_0BI@LNCFHCFI@SetBarbarianCombatBonus?$AA@	; `string'
PUBLIC	?lSetBarbarianCombatBonus@CvLuaPlayer@@KAHPAUlua_State@@@Z ; CvLuaPlayer::lSetBarbarianCombatBonus
PUBLIC	??_C@_0BI@KLEIJDDK@GetBarbarianCombatBonus?$AA@	; `string'
PUBLIC	?lGetBarbarianCombatBonus@CvLuaPlayer@@KAHPAUlua_State@@@Z ; CvLuaPlayer::lGetBarbarianCombatBonus
PUBLIC	??_C@_0BG@DIIAGAEM@GetHappinessFromMinor?$AA@	; `string'
PUBLIC	?lGetHappinessFromMinor@CvLuaPlayer@@KAHPAUlua_State@@@Z ; CvLuaPlayer::lGetHappinessFromMinor
PUBLIC	??_C@_0BK@IHIHKILH@GetHappinessFromMinorCivs?$AA@ ; `string'
PUBLIC	?lGetHappinessFromMinorCivs@CvLuaPlayer@@KAHPAUlua_State@@@Z ; CvLuaPlayer::lGetHappinessFromMinorCivs
PUBLIC	??_C@_0CI@JLDDCPMO@GetCityConnectionTradeRouteGoldM@ ; `string'
PUBLIC	?lGetCityConnectionTradeRouteGoldModifier@CvLuaPlayer@@KAHPAUlua_State@@@Z ; CvLuaPlayer::lGetCityConnectionTradeRouteGoldModifier
PUBLIC	??_C@_0BN@CKMFDGG@ChangeHappinessPerTradeRoute?$AA@ ; `string'
PUBLIC	?lChangeHappinessPerTradeRoute@CvLuaPlayer@@KAHPAUlua_State@@@Z ; CvLuaPlayer::lChangeHappinessPerTradeRoute
PUBLIC	??_C@_0BK@IAALFNEE@SetHappinessPerTradeRoute?$AA@ ; `string'
PUBLIC	?lSetHappinessPerTradeRoute@CvLuaPlayer@@KAHPAUlua_State@@@Z ; CvLuaPlayer::lSetHappinessPerTradeRoute
PUBLIC	??_C@_0BK@MNJAOC@GetHappinessPerTradeRoute?$AA@	; `string'
PUBLIC	?lGetHappinessPerTradeRoute@CvLuaPlayer@@KAHPAUlua_State@@@Z ; CvLuaPlayer::lGetHappinessPerTradeRoute
PUBLIC	??_C@_0BM@ONEGOIFC@GetHappinessFromTradeRoutes?$AA@ ; `string'
PUBLIC	?lGetHappinessFromTradeRoutes@CvLuaPlayer@@KAHPAUlua_State@@@Z ; CvLuaPlayer::lGetHappinessFromTradeRoutes
PUBLIC	??_C@_0CB@JPNBNLCL@ChangeHappinessPerGarrisonedUnit@ ; `string'
PUBLIC	?lChangeHappinessPerGarrisonedUnit@CvLuaPlayer@@KAHPAUlua_State@@@Z ; CvLuaPlayer::lChangeHappinessPerGarrisonedUnit
PUBLIC	??_C@_0BO@HNIEFJLG@SetHappinessPerGarrisonedUnit?$AA@ ; `string'
PUBLIC	?lSetHappinessPerGarrisonedUnit@CvLuaPlayer@@KAHPAUlua_State@@@Z ; CvLuaPlayer::lSetHappinessPerGarrisonedUnit
PUBLIC	??_C@_0BO@PMOLOJJE@GetHappinessPerGarrisonedUnit?$AA@ ; `string'
PUBLIC	?lGetHappinessPerGarrisonedUnit@CvLuaPlayer@@KAHPAUlua_State@@@Z ; CvLuaPlayer::lGetHappinessPerGarrisonedUnit
PUBLIC	??_C@_0BM@HAKOEBKA@IsHalfSpecialistUnhappiness?$AA@ ; `string'
PUBLIC	?lIsHalfSpecialistUnhappiness@CvLuaPlayer@@KAHPAUlua_State@@@Z ; CvLuaPlayer::lIsHalfSpecialistUnhappiness
PUBLIC	??_C@_0BK@LDLDMFJK@GetTraitPopUnhappinessMod?$AA@ ; `string'
PUBLIC	?lGetTraitPopUnhappinessMod@CvLuaPlayer@@KAHPAUlua_State@@@Z ; CvLuaPlayer::lGetTraitPopUnhappinessMod
PUBLIC	??_C@_0BL@GIPNPCHI@GetTraitCityUnhappinessMod?$AA@ ; `string'
PUBLIC	?lGetTraitCityUnhappinessMod@CvLuaPlayer@@KAHPAUlua_State@@@Z ; CvLuaPlayer::lGetTraitCityUnhappinessMod
PUBLIC	??_C@_0BJ@GJPGDMHB@GetCapitalUnhappinessMod?$AA@ ; `string'
PUBLIC	?lGetCapitalUnhappinessMod@CvLuaPlayer@@KAHPAUlua_State@@@Z ; CvLuaPlayer::lGetCapitalUnhappinessMod
PUBLIC	??_C@_0CE@OKFBELDK@GetOccupiedPopulationUnhappiness@ ; `string'
PUBLIC	?lGetOccupiedPopulationUnhappinessMod@CvLuaPlayer@@KAHPAUlua_State@@@Z ; CvLuaPlayer::lGetOccupiedPopulationUnhappinessMod
PUBLIC	??_C@_0BL@DLGEPDKJ@GetCityCountUnhappinessMod?$AA@ ; `string'
PUBLIC	?lGetCityCountUnhappinessMod@CvLuaPlayer@@KAHPAUlua_State@@@Z ; CvLuaPlayer::lGetCityCountUnhappinessMod
PUBLIC	??_C@_0BC@KOOANBJP@GetUnhappinessMod?$AA@	; `string'
PUBLIC	?lGetUnhappinessMod@CvLuaPlayer@@KAHPAUlua_State@@@Z ; CvLuaPlayer::lGetUnhappinessMod
PUBLIC	??_C@_0BL@MCEIFFBM@ChangeUnhappinessFromUnits?$AA@ ; `string'
PUBLIC	?lChangeUnhappinessFromUnits@CvLuaPlayer@@KAHPAUlua_State@@@Z ; CvLuaPlayer::lChangeUnhappinessFromUnits
PUBLIC	??_C@_0BI@CENNKONH@GetUnhappinessFromUnits?$AA@	; `string'
PUBLIC	?lGetUnhappinessFromUnits@CvLuaPlayer@@KAHPAUlua_State@@@Z ; CvLuaPlayer::lGetUnhappinessFromUnits
PUBLIC	??_C@_0CA@INPCOOLO@GetUnhappinessFromPublicOpinion?$AA@ ; `string'
PUBLIC	?lGetUnhappinessFromPublicOpinion@CvLuaPlayer@@KAHPAUlua_State@@@Z ; CvLuaPlayer::lGetUnhappinessFromPublicOpinion
PUBLIC	??_C@_0CH@CLBIAMK@GetUnhappinessFromPuppetCityPopu@ ; `string'
PUBLIC	?lGetUnhappinessFromPuppetCityPopulation@CvLuaPlayer@@KAHPAUlua_State@@@Z ; CvLuaPlayer::lGetUnhappinessFromPuppetCityPopulation
PUBLIC	??_C@_0CB@MKILLP@GetUnhappinessFromOccupiedCities@ ; `string'
PUBLIC	?lGetUnhappinessFromOccupiedCities@CvLuaPlayer@@KAHPAUlua_State@@@Z ; CvLuaPlayer::lGetUnhappinessFromOccupiedCities
PUBLIC	??_C@_0CC@BMLAPPGM@GetUnhappinessFromCitySpecialist@ ; `string'
PUBLIC	?lGetUnhappinessFromCitySpecialists@CvLuaPlayer@@KAHPAUlua_State@@@Z ; CvLuaPlayer::lGetUnhappinessFromCitySpecialists
PUBLIC	??_C@_0CB@KBOPPOAK@GetUnhappinessFromCityPopulation@ ; `string'
PUBLIC	?lGetUnhappinessFromCityPopulation@CvLuaPlayer@@KAHPAUlua_State@@@Z ; CvLuaPlayer::lGetUnhappinessFromCityPopulation
PUBLIC	??_C@_0CE@ECLIBGEO@GetUnhappinessFromCapturedCityCo@ ; `string'
PUBLIC	?lGetUnhappinessFromCapturedCityCount@CvLuaPlayer@@KAHPAUlua_State@@@Z ; CvLuaPlayer::lGetUnhappinessFromCapturedCityCount
PUBLIC	??_C@_0BM@OCKLJKNC@GetUnhappinessFromCityCount?$AA@ ; `string'
PUBLIC	?lGetUnhappinessFromCityCount@CvLuaPlayer@@KAHPAUlua_State@@@Z ; CvLuaPlayer::lGetUnhappinessFromCityCount
PUBLIC	??_C@_0BM@GNGHHBBH@GetUnhappinessFromCityForUI?$AA@ ; `string'
PUBLIC	?lGetUnhappinessFromCityForUI@CvLuaPlayer@@KAHPAUlua_State@@@Z ; CvLuaPlayer::lGetUnhappinessFromCityForUI
PUBLIC	??_C@_0BH@MKFGHBDK@GetUnhappinessForecast?$AA@	; `string'
PUBLIC	?lGetUnhappinessForecast@CvLuaPlayer@@KAHPAUlua_State@@@Z ; CvLuaPlayer::lGetUnhappinessForecast
PUBLIC	??_C@_0P@DDCLBDGA@GetUnhappiness?$AA@		; `string'
PUBLIC	?lGetUnhappiness@CvLuaPlayer@@KAHPAUlua_State@@@Z ; CvLuaPlayer::lGetUnhappiness
PUBLIC	??_C@_0BI@MILNBGI@GetHappinessFromLeagues?$AA@	; `string'
PUBLIC	?lGetHappinessFromLeagues@CvLuaPlayer@@KAHPAUlua_State@@@Z ; CvLuaPlayer::lGetHappinessFromLeagues
PUBLIC	??_C@_0BP@GFJNHLAE@GetHappinessFromNaturalWonders?$AA@ ; `string'
PUBLIC	?lGetHappinessFromNaturalWonders@CvLuaPlayer@@KAHPAUlua_State@@@Z ; CvLuaPlayer::lGetHappinessFromNaturalWonders
PUBLIC	??_C@_0BJ@MCAOJMIP@GetHappinessFromReligion?$AA@ ; `string'
PUBLIC	?lGetHappinessFromReligion@CvLuaPlayer@@KAHPAUlua_State@@@Z ; CvLuaPlayer::lGetHappinessFromReligion
PUBLIC	??_C@_0BL@EEBALAOF@GetExtraHappinessPerLuxury?$AA@ ; `string'
PUBLIC	?lGetExtraHappinessPerLuxury@CvLuaPlayer@@KAHPAUlua_State@@@Z ; CvLuaPlayer::lGetExtraHappinessPerLuxury
PUBLIC	??_C@_0CA@NPGNMMND@GetHappinessFromResourceVariety?$AA@ ; `string'
PUBLIC	?lGetHappinessFromResourceVariety@CvLuaPlayer@@KAHPAUlua_State@@@Z ; CvLuaPlayer::lGetHappinessFromResourceVariety
PUBLIC	??_C@_0BK@KADBPJPP@GetHappinessFromResources?$AA@ ; `string'
PUBLIC	?lGetHappinessFromResources@CvLuaPlayer@@KAHPAUlua_State@@@Z ; CvLuaPlayer::lGetHappinessFromResources
PUBLIC	??_C@_0BM@BDKBHECI@ChangeExtraHappinessPerCity?$AA@ ; `string'
PUBLIC	?lChangeExtraHappinessPerCity@CvLuaPlayer@@KAHPAUlua_State@@@Z ; CvLuaPlayer::lChangeExtraHappinessPerCity
PUBLIC	??_C@_0BJ@BPPBPKOL@GetExtraHappinessPerCity?$AA@ ; `string'
PUBLIC	?lGetExtraHappinessPerCity@CvLuaPlayer@@KAHPAUlua_State@@@Z ; CvLuaPlayer::lGetExtraHappinessPerCity
PUBLIC	??_C@_0BK@NJJIHGAG@GetHappinessFromBuildings?$AA@ ; `string'
PUBLIC	?lGetHappinessFromBuildings@CvLuaPlayer@@KAHPAUlua_State@@@Z ; CvLuaPlayer::lGetHappinessFromBuildings
PUBLIC	??_C@_0BH@DNCNLJLJ@GetHappinessFromCities?$AA@	; `string'
PUBLIC	?lGetHappinessFromCities@CvLuaPlayer@@KAHPAUlua_State@@@Z ; CvLuaPlayer::lGetHappinessFromCities
PUBLIC	??_C@_0BJ@HKEDOHML@GetHappinessFromPolicies?$AA@ ; `string'
PUBLIC	?lGetHappinessFromPolicies@CvLuaPlayer@@KAHPAUlua_State@@@Z ; CvLuaPlayer::lGetHappinessFromPolicies
PUBLIC	??_C@_0BF@IJAIICIJ@IsEmpireSuperUnhappy?$AA@	; `string'
PUBLIC	?lIsEmpireSuperUnhappy@CvLuaPlayer@@KAHPAUlua_State@@@Z ; CvLuaPlayer::lIsEmpireSuperUnhappy
PUBLIC	??_C@_0BE@DBNNOCLK@IsEmpireVeryUnhappy?$AA@	; `string'
PUBLIC	?lIsEmpireVeryUnhappy@CvLuaPlayer@@KAHPAUlua_State@@@Z ; CvLuaPlayer::lIsEmpireVeryUnhappy
PUBLIC	??_C@_0BA@NHLHHEED@IsEmpireUnhappy?$AA@		; `string'
PUBLIC	?lIsEmpireUnhappy@CvLuaPlayer@@KAHPAUlua_State@@@Z ; CvLuaPlayer::lIsEmpireUnhappy
PUBLIC	??_C@_0BD@KNCDHHMN@GetExcessHappiness?$AA@	; `string'
PUBLIC	?lGetExcessHappiness@CvLuaPlayer@@KAHPAUlua_State@@@Z ; CvLuaPlayer::lGetExcessHappiness
PUBLIC	??_C@_0N@GLCICHBA@SetHappiness?$AA@		; `string'
PUBLIC	?lSetHappiness@CvLuaPlayer@@KAHPAUlua_State@@@Z	; CvLuaPlayer::lSetHappiness
PUBLIC	??_C@_0N@BPJGOLFM@GetHappiness?$AA@		; `string'
PUBLIC	?lGetHappiness@CvLuaPlayer@@KAHPAUlua_State@@@Z	; CvLuaPlayer::lGetHappiness
PUBLIC	??_C@_0BP@KDEEONIG@DoesUnitPassFaithPurchaseCheck?$AA@ ; `string'
PUBLIC	?lDoesUnitPassFaithPurchaseCheck@CvLuaPlayer@@KAHPAUlua_State@@@Z ; CvLuaPlayer::lDoesUnitPassFaithPurchaseCheck
PUBLIC	??_C@_0BI@LGIHCJNG@HasReligionInMostCities?$AA@	; `string'
PUBLIC	?lHasReligionInMostCities@CvLuaPlayer@@KAHPAUlua_State@@@Z ; CvLuaPlayer::lHasReligionInMostCities
PUBLIC	??_C@_0CA@BOJACAPD@GetMinimumFaithNextGreatProphet?$AA@ ; `string'
PUBLIC	?lGetMinimumFaithNextGreatProphet@CvLuaPlayer@@KAHPAUlua_State@@@Z ; CvLuaPlayer::lGetMinimumFaithNextGreatProphet
PUBLIC	??_C@_0CI@IMONNDBE@GetFoundedReligionFriendlyCityCo@ ; `string'
PUBLIC	?lGetFoundedReligionFriendlyCityCombatMod@CvLuaPlayer@@KAHPAUlua_State@@@Z ; CvLuaPlayer::lGetFoundedReligionFriendlyCityCombatMod
PUBLIC	??_C@_0CF@LIFLPEAN@GetFoundedReligionEnemyCityComba@ ; `string'
PUBLIC	?lGetFoundedReligionEnemyCityCombatMod@CvLuaPlayer@@KAHPAUlua_State@@@Z ; CvLuaPlayer::lGetFoundedReligionEnemyCityCombatMod
PUBLIC	??_C@_0BL@NDMELHHP@GetReligionCreatedByPlayer?$AA@ ; `string'
PUBLIC	?lGetReligionCreatedByPlayer@CvLuaPlayer@@KAHPAUlua_State@@@Z ; CvLuaPlayer::lGetReligionCreatedByPlayer
PUBLIC	??_C@_0BC@BEJANDOH@CanCreatePantheon?$AA@	; `string'
PUBLIC	?lCanCreatePantheon@CvLuaPlayer@@KAHPAUlua_State@@@Z ; CvLuaPlayer::lCanCreatePantheon
PUBLIC	??_C@_0BD@IANGKFOG@HasCreatedReligion?$AA@	; `string'
PUBLIC	?lHasCreatedReligion@CvLuaPlayer@@KAHPAUlua_State@@@Z ; CvLuaPlayer::lHasCreatedReligion
PUBLIC	??_C@_0BE@NCIMNEEK@GetBeliefInPantheon?$AA@	; `string'
PUBLIC	?lGetBeliefInPantheon@CvLuaPlayer@@KAHPAUlua_State@@@Z ; CvLuaPlayer::lGetBeliefInPantheon
PUBLIC	??_C@_0BD@MKDLKLJP@HasCreatedPantheon?$AA@	; `string'
PUBLIC	?lHasCreatedPantheon@CvLuaPlayer@@KAHPAUlua_State@@@Z ; CvLuaPlayer::lHasCreatedPantheon
PUBLIC	??_C@_0BD@MIKGEGGL@CanFaithGiftMinors?$AA@	; `string'
PUBLIC	?lCanFaithGiftMinors@CvLuaPlayer@@KAHPAUlua_State@@@Z ; CvLuaPlayer::lCanFaithGiftMinors
PUBLIC	??_C@_0BM@FBEILFDB@GetFaithPerTurnFromReligion?$AA@ ; `string'
PUBLIC	?lGetFaithPerTurnFromReligion@CvLuaPlayer@@KAHPAUlua_State@@@Z ; CvLuaPlayer::lGetFaithPerTurnFromReligion
PUBLIC	??_C@_0BN@KLMNHABF@GetFaithPerTurnFromMinorCivs?$AA@ ; `string'
PUBLIC	?lGetFaithPerTurnFromMinorCivs@CvLuaPlayer@@KAHPAUlua_State@@@Z ; CvLuaPlayer::lGetFaithPerTurnFromMinorCivs
PUBLIC	??_C@_0BK@DEPMGGBK@GetFaithPerTurnFromCities?$AA@ ; `string'
PUBLIC	?lGetFaithPerTurnFromCities@CvLuaPlayer@@KAHPAUlua_State@@@Z ; CvLuaPlayer::lGetFaithPerTurnFromCities
PUBLIC	??_C@_0BF@KAKKKCDB@GetTotalFaithPerTurn?$AA@	; `string'
PUBLIC	?lGetTotalFaithPerTurn@CvLuaPlayer@@KAHPAUlua_State@@@Z ; CvLuaPlayer::lGetTotalFaithPerTurn
PUBLIC	??_C@_0M@EFEFPKFD@ChangeFaith?$AA@		; `string'
PUBLIC	?lChangeFaith@CvLuaPlayer@@KAHPAUlua_State@@@Z	; CvLuaPlayer::lChangeFaith
PUBLIC	??_C@_08BHKEOCCD@SetFaith?$AA@			; `string'
PUBLIC	?lSetFaith@CvLuaPlayer@@KAHPAUlua_State@@@Z	; CvLuaPlayer::lSetFaith
PUBLIC	??_C@_08OGIIPBFO@GetFaith?$AA@			; `string'
PUBLIC	?lGetFaith@CvLuaPlayer@@KAHPAUlua_State@@@Z	; CvLuaPlayer::lGetFaith
PUBLIC	??_C@_0BF@FMOOCJFI@GetNumGreatWorkSlots?$AA@	; `string'
PUBLIC	?lGetNumGreatWorkSlots@CvLuaPlayer@@KAHPAUlua_State@@@Z ; CvLuaPlayer::lGetNumGreatWorkSlots
PUBLIC	??_C@_0BB@ILOKIPKM@GetNumGreatWorks?$AA@	; `string'
PUBLIC	?lGetNumGreatWorks@CvLuaPlayer@@KAHPAUlua_State@@@Z ; CvLuaPlayer::lGetNumGreatWorks
PUBLIC	??_C@_0BK@HEKMPHCD@GetWrittenArtifactCulture?$AA@ ; `string'
PUBLIC	?lGetWrittenArtifactCulture@CvLuaPlayer@@KAHPAUlua_State@@@Z ; CvLuaPlayer::lGetWrittenArtifactCulture
PUBLIC	??_C@_0BH@EOCBNBBC@GetNextDigCompletePlot?$AA@	; `string'
PUBLIC	?lGetNextDigCompletePlot@CvLuaPlayer@@KAHPAUlua_State@@@Z ; CvLuaPlayer::lGetNextDigCompletePlot
PUBLIC	??_C@_0CC@OKDECLG@GetBuildingOfClosestGreatWorkSlo@ ; `string'
PUBLIC	?lGetBuildingOfClosestGreatWorkSlot@CvLuaPlayer@@KAHPAUlua_State@@@Z ; CvLuaPlayer::lGetBuildingOfClosestGreatWorkSlot
PUBLIC	??_C@_0BO@NCOJGFIE@GetCityOfClosestGreatWorkSlot?$AA@ ; `string'
PUBLIC	?lGetCityOfClosestGreatWorkSlot@CvLuaPlayer@@KAHPAUlua_State@@@Z ; CvLuaPlayer::lGetCityOfClosestGreatWorkSlot
PUBLIC	??_C@_0BK@FHJPCAFI@HasAvailableGreatWorkSlot?$AA@ ; `string'
PUBLIC	?lHasAvailableGreatWorkSlot@CvLuaPlayer@@KAHPAUlua_State@@@Z ; CvLuaPlayer::lHasAvailableGreatWorkSlot
PUBLIC	??_C@_0CD@JOPJDOGM@GetPublicOpinionUnhappinessToolt@ ; `string'
PUBLIC	?lGetPublicOpinionUnhappinessTooltip@CvLuaPlayer@@KAHPAUlua_State@@@Z ; CvLuaPlayer::lGetPublicOpinionUnhappinessTooltip
PUBLIC	??_C@_0BM@JKFIJPGB@GetPublicOpinionUnhappiness?$AA@ ; `string'
PUBLIC	?lGetPublicOpinionUnhappiness@CvLuaPlayer@@KAHPAUlua_State@@@Z ; CvLuaPlayer::lGetPublicOpinionUnhappiness
PUBLIC	??_C@_0BI@PLLLEMKO@GetPublicOpinionTooltip?$AA@	; `string'
PUBLIC	?lGetPublicOpinionTooltip@CvLuaPlayer@@KAHPAUlua_State@@@Z ; CvLuaPlayer::lGetPublicOpinionTooltip
PUBLIC	??_C@_0CC@MILACHKP@GetPublicOpinionPreferredIdeolog@ ; `string'
PUBLIC	?lGetPublicOpinionPreferredIdeology@CvLuaPlayer@@KAHPAUlua_State@@@Z ; CvLuaPlayer::lGetPublicOpinionPreferredIdeology
PUBLIC	??_C@_0BF@IIIEGGHB@GetPublicOpinionType?$AA@	; `string'
PUBLIC	?lGetPublicOpinionType@CvLuaPlayer@@KAHPAUlua_State@@@Z ; CvLuaPlayer::lGetPublicOpinionType
PUBLIC	??_C@_0BO@KBFACNE@GetTourismModifierWithTooltip?$AA@ ; `string'
PUBLIC	?lGetTourismModifierWithTooltip@CvLuaPlayer@@KAHPAUlua_State@@@Z ; CvLuaPlayer::lGetTourismModifierWithTooltip
PUBLIC	??_C@_0BH@LEGCHAJ@GetTourismModifierWith?$AA@	; `string'
PUBLIC	?lGetTourismModifierWith@CvLuaPlayer@@KAHPAUlua_State@@@Z ; CvLuaPlayer::lGetTourismModifierWith
PUBLIC	??_C@_0L@EFCPIKBF@GetTourism?$AA@		; `string'
PUBLIC	?lGetTourism@CvLuaPlayer@@KAHPAUlua_State@@@Z	; CvLuaPlayer::lGetTourism
PUBLIC	??_C@_0BL@PBMHLJLN@GetInfluenceSpyRankTooltip?$AA@ ; `string'
PUBLIC	?lGetInfluenceSpyRankTooltip@CvLuaPlayer@@KAHPAUlua_State@@@Z ; CvLuaPlayer::lGetInfluenceSpyRankTooltip
PUBLIC	??_C@_0CB@OGCLKEOM@GetInfluenceMajorCivSpyRankBonus@ ; `string'
PUBLIC	?lGetInfluenceMajorCivSpyRankBonus@CvLuaPlayer@@KAHPAUlua_State@@@Z ; CvLuaPlayer::lGetInfluenceMajorCivSpyRankBonus
PUBLIC	??_C@_0CC@GKICPACC@GetInfluenceCityStateSpyRankBonu@ ; `string'
PUBLIC	?lGetInfluenceCityStateSpyRankBonus@CvLuaPlayer@@KAHPAUlua_State@@@Z ; CvLuaPlayer::lGetInfluenceCityStateSpyRankBonus
PUBLIC	??_C@_0CD@JDKNKPMO@GetInfluenceTradeRouteScienceBon@ ; `string'
PUBLIC	?lGetInfluenceTradeRouteScienceBonus@CvLuaPlayer@@KAHPAUlua_State@@@Z ; CvLuaPlayer::lGetInfluenceTradeRouteScienceBonus
PUBLIC	??_C@_0BM@IMBBHDIP@GetNumCivsToBeInfluentialOn?$AA@ ; `string'
PUBLIC	?lGetNumCivsToBeInfluentialOn@CvLuaPlayer@@KAHPAUlua_State@@@Z ; CvLuaPlayer::lGetNumCivsToBeInfluentialOn
PUBLIC	??_C@_0BI@BFKABOF@GetNumCivsInfluentialOn?$AA@	; `string'
PUBLIC	?lGetNumCivsInfluentialOn@CvLuaPlayer@@KAHPAUlua_State@@@Z ; CvLuaPlayer::lGetNumCivsInfluentialOn
PUBLIC	??_C@_0BG@KILNCCEE@GetTurnsToInfluential?$AA@	; `string'
PUBLIC	?lGetTurnsToInfluential@CvLuaPlayer@@KAHPAUlua_State@@@Z ; CvLuaPlayer::lGetTurnsToInfluential
PUBLIC	??_C@_0BC@MHAHIFEE@GetInfluenceTrend?$AA@	; `string'
PUBLIC	?lGetInfluenceTrend@CvLuaPlayer@@KAHPAUlua_State@@@Z ; CvLuaPlayer::lGetInfluenceTrend
PUBLIC	??_C@_0BC@HMGCNDLI@GetInfluenceLevel?$AA@	; `string'
PUBLIC	?lGetInfluenceLevel@CvLuaPlayer@@KAHPAUlua_State@@@Z ; CvLuaPlayer::lGetInfluenceLevel
PUBLIC	??_C@_0BE@JOBIMOPK@GetInfluencePerTurn?$AA@	; `string'
PUBLIC	?lGetInfluencePerTurn@CvLuaPlayer@@KAHPAUlua_State@@@Z ; CvLuaPlayer::lGetInfluencePerTurn
PUBLIC	??_C@_0BH@OBMBCGGO@GetLastTurnInfluenceOn?$AA@	; `string'
PUBLIC	?lGetLastTurnInfluenceOn@CvLuaPlayer@@KAHPAUlua_State@@@Z ; CvLuaPlayer::lGetLastTurnInfluenceOn
PUBLIC	??_C@_0P@JPDBFNBF@GetInfluenceOn?$AA@		; `string'
PUBLIC	?lGetInfluenceOn@CvLuaPlayer@@KAHPAUlua_State@@@Z ; CvLuaPlayer::lGetInfluenceOn
PUBLIC	??_C@_0BL@OMAEEPPN@GetLastTurnLifetimeCulture?$AA@ ; `string'
PUBLIC	?lGetLastTurnLifetimeCulture@CvLuaPlayer@@KAHPAUlua_State@@@Z ; CvLuaPlayer::lGetLastTurnLifetimeCulture
PUBLIC	??_C@_0BM@NBLAPLAA@GetJONSCultureEverGenerated?$AA@ ; `string'
PUBLIC	?lGetJONSCultureEverGenerated@CvLuaPlayer@@KAHPAUlua_State@@@Z ; CvLuaPlayer::lGetJONSCultureEverGenerated
PUBLIC	??_C@_0BC@LCMCLAMC@ChangeJONSCulture?$AA@	; `string'
PUBLIC	?lChangeJONSCulture@CvLuaPlayer@@KAHPAUlua_State@@@Z ; CvLuaPlayer::lChangeJONSCulture
PUBLIC	??_C@_0P@OIILLNMD@SetJONSCulture?$AA@		; `string'
PUBLIC	?lSetJONSCulture@CvLuaPlayer@@KAHPAUlua_State@@@Z ; CvLuaPlayer::lSetJONSCulture
PUBLIC	??_C@_0P@CGJFEHOP@GetJONSCulture?$AA@		; `string'
PUBLIC	?lGetJONSCulture@CvLuaPlayer@@KAHPAUlua_State@@@Z ; CvLuaPlayer::lGetJONSCulture
PUBLIC	??_C@_0BH@HKAGHDHI@GetCultureCityModifier?$AA@	; `string'
PUBLIC	?lGetCultureCityModifier@CvLuaPlayer@@KAHPAUlua_State@@@Z ; CvLuaPlayer::lGetCultureCityModifier
PUBLIC	??_C@_0CA@IGMAMKOC@GetCulturePerTurnFromBonusTurns?$AA@ ; `string'
PUBLIC	?lGetCulturePerTurnFromBonusTurns@CvLuaPlayer@@KAHPAUlua_State@@@Z ; CvLuaPlayer::lGetCulturePerTurnFromBonusTurns
PUBLIC	??_C@_0BO@GAMICNIB@GetCulturePerTurnFromReligion?$AA@ ; `string'
PUBLIC	?lGetCulturePerTurnFromReligion@CvLuaPlayer@@KAHPAUlua_State@@@Z ; CvLuaPlayer::lGetCulturePerTurnFromReligion
PUBLIC	??_C@_0BL@NGNGJNJH@GetCulturePerTurnFromMinor?$AA@ ; `string'
PUBLIC	?lGetCulturePerTurnFromMinor@CvLuaPlayer@@KAHPAUlua_State@@@Z ; CvLuaPlayer::lGetCulturePerTurnFromMinor
PUBLIC	??_C@_0BP@GAJNEDAB@GetCulturePerTurnFromMinorCivs?$AA@ ; `string'
PUBLIC	?lGetCulturePerTurnFromMinorCivs@CvLuaPlayer@@KAHPAUlua_State@@@Z ; CvLuaPlayer::lGetCulturePerTurnFromMinorCivs
PUBLIC	??_C@_0CG@PIDBKECO@ChangeJONSCulturePerTurnFromMino@ ; `string'
PUBLIC	?lChangeJONSCulturePerTurnFromMinorCivs@CvLuaPlayer@@KAHPAUlua_State@@@Z ; CvLuaPlayer::lChangeJONSCulturePerTurnFromMinorCivs
PUBLIC	??_C@_0CD@FHKIFDOD@GetJONSCulturePerTurnFromMinorCi@ ; `string'
PUBLIC	?lGetJONSCulturePerTurnFromMinorCivs@CvLuaPlayer@@KAHPAUlua_State@@@Z ; CvLuaPlayer::lGetJONSCulturePerTurnFromMinorCivs
PUBLIC	??_C@_0CA@CBGAMBNI@ChangeJONSCulturePerTurnForFree?$AA@ ; `string'
PUBLIC	?lChangeJONSCulturePerTurnForFree@CvLuaPlayer@@KAHPAUlua_State@@@Z ; CvLuaPlayer::lChangeJONSCulturePerTurnForFree
PUBLIC	??_C@_0BN@BNDOKHMF@GetJONSCulturePerTurnForFree?$AA@ ; `string'
PUBLIC	?lGetJONSCulturePerTurnForFree@CvLuaPlayer@@KAHPAUlua_State@@@Z ; CvLuaPlayer::lGetJONSCulturePerTurnForFree
PUBLIC	??_C@_0BL@NBNDOJDJ@GetCultureWonderMultiplier?$AA@ ; `string'
PUBLIC	?lGetCultureWonderMultiplier@CvLuaPlayer@@KAHPAUlua_State@@@Z ; CvLuaPlayer::lGetCultureWonderMultiplier
PUBLIC	??_C@_0CA@MKHKHIDI@GetJONSCulturePerTurnFromTraits?$AA@ ; `string'
PUBLIC	?lGetJONSCulturePerTurnFromTraits@CvLuaPlayer@@KAHPAUlua_State@@@Z ; CvLuaPlayer::lGetJONSCulturePerTurnFromTraits
PUBLIC	??_C@_0CJ@ODNCODCD@GetJONSCulturePerTurnFromExcessH@ ; `string'
PUBLIC	?lGetJONSCulturePerTurnFromExcessHappiness@CvLuaPlayer@@KAHPAUlua_State@@@Z ; CvLuaPlayer::lGetJONSCulturePerTurnFromExcessHappiness
PUBLIC	??_C@_0CA@LEPGPJJF@GetJONSCulturePerTurnFromCities?$AA@ ; `string'
PUBLIC	?lGetJONSCulturePerTurnFromCities@CvLuaPlayer@@KAHPAUlua_State@@@Z ; CvLuaPlayer::lGetJONSCulturePerTurnFromCities
PUBLIC	??_C@_0BL@FGFBMDOG@GetTotalJONSCulturePerTurn?$AA@ ; `string'
PUBLIC	?lGetTotalJONSCulturePerTurn@CvLuaPlayer@@KAHPAUlua_State@@@Z ; CvLuaPlayer::lGetTotalJONSCulturePerTurn
PUBLIC	??_C@_0CE@JHKMOFCB@GetJONSCultureEverGeneratedTimes@ ; `string'
PUBLIC	?lGetJONSCultureEverGeneratedTimes100@CvLuaPlayer@@KAHPAUlua_State@@@Z ; CvLuaPlayer::lGetJONSCultureEverGeneratedTimes100
PUBLIC	??_C@_0BK@HBFLCFLP@ChangeJONSCultureTimes100?$AA@ ; `string'
PUBLIC	?lChangeJONSCultureTimes100@CvLuaPlayer@@KAHPAUlua_State@@@Z ; CvLuaPlayer::lChangeJONSCultureTimes100
PUBLIC	??_C@_0BH@IGNCMICP@SetJONSCultureTimes100?$AA@	; `string'
PUBLIC	?lSetJONSCultureTimes100@CvLuaPlayer@@KAHPAUlua_State@@@Z ; CvLuaPlayer::lSetJONSCultureTimes100
PUBLIC	??_C@_0BH@IHPMOPPA@GetJONSCultureTimes100?$AA@	; `string'
PUBLIC	?lGetJONSCultureTimes100@CvLuaPlayer@@KAHPAUlua_State@@@Z ; CvLuaPlayer::lGetJONSCultureTimes100
PUBLIC	??_C@_0CI@NJFMHHMB@GetCulturePerTurnFromBonusTurnsT@ ; `string'
PUBLIC	?lGetCulturePerTurnFromBonusTurnsTimes100@CvLuaPlayer@@KAHPAUlua_State@@@Z ; CvLuaPlayer::lGetCulturePerTurnFromBonusTurnsTimes100
PUBLIC	??_C@_0CG@KPIPIBC@GetCulturePerTurnFromReligionTim@ ; `string'
PUBLIC	?lGetCulturePerTurnFromReligionTimes100@CvLuaPlayer@@KAHPAUlua_State@@@Z ; CvLuaPlayer::lGetCulturePerTurnFromReligionTimes100
PUBLIC	??_C@_0DB@CKLJBHIK@GetJONSCulturePerTurnFromExcessH@ ; `string'
PUBLIC	?lGetJONSCulturePerTurnFromExcessHappinessTimes100@CvLuaPlayer@@KAHPAUlua_State@@@Z ; CvLuaPlayer::lGetJONSCulturePerTurnFromExcessHappinessTimes100
PUBLIC	??_C@_0CI@OPIAFPNB@GetJONSCulturePerTurnFromCitiesT@ ; `string'
PUBLIC	?lGetJONSCulturePerTurnFromCitiesTimes100@CvLuaPlayer@@KAHPAUlua_State@@@Z ; CvLuaPlayer::lGetJONSCulturePerTurnFromCitiesTimes100
PUBLIC	??_C@_0CD@JHEBIGFH@GetTotalJONSCulturePerTurnTimes1@ ; `string'
PUBLIC	?lGetTotalJONSCulturePerTurnTimes100@CvLuaPlayer@@KAHPAUlua_State@@@Z ; CvLuaPlayer::lGetTotalJONSCulturePerTurnTimes100
PUBLIC	??_C@_0BJ@LBMKMANM@GetGoldPerTurnFromTraits?$AA@ ; `string'
PUBLIC	?lGetGoldPerTurnFromTraits@CvLuaPlayer@@KAHPAUlua_State@@@Z ; CvLuaPlayer::lGetGoldPerTurnFromTraits
PUBLIC	??_C@_0CG@BDKKIKKJ@GetGoldPerTurnFromTradeRoutesTim@ ; `string'
PUBLIC	?lGetGoldPerTurnFromTradeRoutesTimes100@CvLuaPlayer@@KAHPAUlua_State@@@Z ; CvLuaPlayer::lGetGoldPerTurnFromTradeRoutesTimes100
PUBLIC	??_C@_0BO@BFPJNCPO@GetGoldPerTurnFromTradeRoutes?$AA@ ; `string'
PUBLIC	?lGetGoldPerTurnFromTradeRoutes@CvLuaPlayer@@KAHPAUlua_State@@@Z ; CvLuaPlayer::lGetGoldPerTurnFromTradeRoutes
PUBLIC	??_C@_0BL@HCELEJIM@GetGoldPerTurnFromReligion?$AA@ ; `string'
PUBLIC	?lGetGoldPerTurnFromReligion@CvLuaPlayer@@KAHPAUlua_State@@@Z ; CvLuaPlayer::lGetGoldPerTurnFromReligion
PUBLIC	??_C@_0BO@OCLHOOGP@GetCityConnectionGoldTimes100?$AA@ ; `string'
PUBLIC	?lGetCityConnectionGoldTimes100@CvLuaPlayer@@KAHPAUlua_State@@@Z ; CvLuaPlayer::lGetCityConnectionGoldTimes100
PUBLIC	??_C@_0BG@LIJIKABM@GetCityConnectionGold?$AA@	; `string'
PUBLIC	?lGetCityConnectionGold@CvLuaPlayer@@KAHPAUlua_State@@@Z ; CvLuaPlayer::lGetCityConnectionGold
PUBLIC	??_C@_0CD@FCNHAJLA@GetCityConnectionRouteGoldTimes1@ ; `string'
PUBLIC	?lGetCityConnectionRouteGoldTimes100@CvLuaPlayer@@KAHPAUlua_State@@@Z ; CvLuaPlayer::lGetCityConnectionRouteGoldTimes100
PUBLIC	??_C@_0BM@FOPNIPEI@GetGoldPerTurnFromDiplomacy?$AA@ ; `string'
PUBLIC	?lGetGoldPerTurnFromDiplomacy@CvLuaPlayer@@KAHPAUlua_State@@@Z ; CvLuaPlayer::lGetGoldPerTurnFromDiplomacy
PUBLIC	??_C@_0CK@NCEBOAFI@GetGoldFromCitiesMinusTradeRoute@ ; `string'
PUBLIC	?lGetGoldFromCitiesMinusTradeRoutesTimes100@CvLuaPlayer@@KAHPAUlua_State@@@Z ; CvLuaPlayer::lGetGoldFromCitiesMinusTradeRoutesTimes100
PUBLIC	??_C@_0BK@MDGDLJKD@GetGoldFromCitiesTimes100?$AA@ ; `string'
PUBLIC	?lGetGoldFromCitiesTimes100@CvLuaPlayer@@KAHPAUlua_State@@@Z ; CvLuaPlayer::lGetGoldFromCitiesTimes100
PUBLIC	??_C@_0BF@MGEEAMGC@GetLifetimeGrossGold?$AA@	; `string'
PUBLIC	?lGetLifetimeGrossGold@CvLuaPlayer@@KAHPAUlua_State@@@Z ; CvLuaPlayer::lGetLifetimeGrossGold
PUBLIC	??_C@_0BD@EBBJNCCM@CalculateGrossGold?$AA@	; `string'
PUBLIC	?lCalculateGrossGold@CvLuaPlayer@@KAHPAUlua_State@@@Z ; CvLuaPlayer::lCalculateGrossGold
PUBLIC	??_C@_0L@EIHJEBHO@ChangeGold?$AA@		; `string'
PUBLIC	?lChangeGold@CvLuaPlayer@@KAHPAUlua_State@@@Z	; CvLuaPlayer::lChangeGold
PUBLIC	??_C@_07MBIDAHMN@SetGold?$AA@			; `string'
PUBLIC	?lSetGold@CvLuaPlayer@@KAHPAUlua_State@@@Z	; CvLuaPlayer::lSetGold
PUBLIC	??_C@_07DJHCDIBM@GetGold?$AA@			; `string'
PUBLIC	?lGetGold@CvLuaPlayer@@KAHPAUlua_State@@@Z	; CvLuaPlayer::lGetGold
PUBLIC	??_C@_0BD@BKJPLMEF@GetTotalLandScored?$AA@	; `string'
PUBLIC	?lGetTotalLandScored@CvLuaPlayer@@KAHPAUlua_State@@@Z ; CvLuaPlayer::lGetTotalLandScored
PUBLIC	??_C@_0N@NKPGAGBN@GetTotalLand?$AA@		; `string'
PUBLIC	?lGetTotalLand@CvLuaPlayer@@KAHPAUlua_State@@@Z	; CvLuaPlayer::lGetTotalLand
PUBLIC	??_C@_0BN@KLLGPNMM@ChangeNewCityExtraPopulation?$AA@ ; `string'
PUBLIC	?lChangeNewCityExtraPopulation@CvLuaPlayer@@KAHPAUlua_State@@@Z ; CvLuaPlayer::lChangeNewCityExtraPopulation
PUBLIC	??_C@_0BK@KJNHDOEI@GetNewCityExtraPopulation?$AA@ ; `string'
PUBLIC	?lGetNewCityExtraPopulation@CvLuaPlayer@@KAHPAUlua_State@@@Z ; CvLuaPlayer::lGetNewCityExtraPopulation
PUBLIC	??_C@_0BC@KOHBIIDL@GetRealPopulation?$AA@	; `string'
PUBLIC	?lGetRealPopulation@CvLuaPlayer@@KAHPAUlua_State@@@Z ; CvLuaPlayer::lGetRealPopulation
PUBLIC	??_C@_0BF@COJNEADI@GetAveragePopulation?$AA@	; `string'
PUBLIC	?lGetAveragePopulation@CvLuaPlayer@@KAHPAUlua_State@@@Z ; CvLuaPlayer::lGetAveragePopulation
PUBLIC	??_C@_0BD@BKBNEN@GetTotalPopulation?$AA@	; `string'
PUBLIC	?lGetTotalPopulation@CvLuaPlayer@@KAHPAUlua_State@@@Z ; CvLuaPlayer::lGetTotalPopulation
PUBLIC	??_C@_0BA@GNONGEOP@SetStartingPlot?$AA@		; `string'
PUBLIC	?lSetStartingPlot@CvLuaPlayer@@KAHPAUlua_State@@@Z ; CvLuaPlayer::lSetStartingPlot
PUBLIC	??_C@_0BA@FPPLBGPG@GetStartingPlot?$AA@		; `string'
PUBLIC	?lGetStartingPlot@CvLuaPlayer@@KAHPAUlua_State@@@Z ; CvLuaPlayer::lGetStartingPlot
PUBLIC	??_C@_0BL@GPNAOGDH@GetGreatGeneralCombatBonus?$AA@ ; `string'
PUBLIC	?lGetGreatGeneralCombatBonus@CvLuaPlayer@@KAHPAUlua_State@@@Z ; CvLuaPlayer::lGetGreatGeneralCombatBonus
PUBLIC	??_C@_0BL@FAOFCGCH@SetGreatGeneralCombatBonus?$AA@ ; `string'
PUBLIC	?lSetGreatGeneralCombatBonus@CvLuaPlayer@@KAHPAUlua_State@@@Z ; CvLuaPlayer::lSetGreatGeneralCombatBonus
PUBLIC	??_C@_0BA@JJILDMLK@SpecialistYield?$AA@		; `string'
PUBLIC	?lSpecialistYield@CvLuaPlayer@@KAHPAUlua_State@@@Z ; CvLuaPlayer::lSpecialistYield
PUBLIC	??_C@_0BG@LBIAFMBO@GreatAdmiralThreshold?$AA@	; `string'
PUBLIC	?lGreatAdmiralThreshold@CvLuaPlayer@@KAHPAUlua_State@@@Z ; CvLuaPlayer::lGreatAdmiralThreshold
PUBLIC	??_C@_0BG@IDFEIBND@GreatGeneralThreshold?$AA@	; `string'
PUBLIC	?lGreatGeneralThreshold@CvLuaPlayer@@KAHPAUlua_State@@@Z ; CvLuaPlayer::lGreatGeneralThreshold
PUBLIC	??_C@_0BE@DNNCMFIN@UnitsGoldenAgeReady?$AA@	; `string'
PUBLIC	?lUnitsGoldenAgeReady@CvLuaPlayer@@KAHPAUlua_State@@@Z ; CvLuaPlayer::lUnitsGoldenAgeReady
PUBLIC	??_C@_0BG@PPEINLDL@UnitsGoldenAgeCapable?$AA@	; `string'
PUBLIC	?lUnitsGoldenAgeCapable@CvLuaPlayer@@KAHPAUlua_State@@@Z ; CvLuaPlayer::lUnitsGoldenAgeCapable
PUBLIC	??_C@_0BK@HNHALJNG@UnitsRequiredForGoldenAge?$AA@ ; `string'
PUBLIC	?lUnitsRequiredForGoldenAge@CvLuaPlayer@@KAHPAUlua_State@@@Z ; CvLuaPlayer::lUnitsRequiredForGoldenAge
PUBLIC	??_C@_0BE@EIEJGPKL@GetResearchProgress?$AA@	; `string'
PUBLIC	?lGetResearchProgress@CvLuaPlayer@@KAHPAUlua_State@@@Z ; CvLuaPlayer::lGetResearchProgress
PUBLIC	??_C@_0BA@FBPGGIIF@GetResearchCost?$AA@		; `string'
PUBLIC	?lGetResearchCost@CvLuaPlayer@@KAHPAUlua_State@@@Z ; CvLuaPlayer::lGetResearchCost
PUBLIC	??_C@_0BF@HNKBNEGP@GetResearchTurnsLeft?$AA@	; `string'
PUBLIC	?lGetResearchTurnsLeft@CvLuaPlayer@@KAHPAUlua_State@@@Z ; CvLuaPlayer::lGetResearchTurnsLeft
PUBLIC	??_C@_0BG@GIJGCCHC@IsNoResearchAvailable?$AA@	; `string'
PUBLIC	?lIsNoResearchAvailable@CvLuaPlayer@@KAHPAUlua_State@@@Z ; CvLuaPlayer::lIsNoResearchAvailable
PUBLIC	??_C@_0BI@LLMMAFGE@IsCurrentResearchRepeat?$AA@	; `string'
PUBLIC	?lIsCurrentResearchRepeat@CvLuaPlayer@@KAHPAUlua_State@@@Z ; CvLuaPlayer::lIsCurrentResearchRepeat
PUBLIC	??_C@_0BD@FLLODLHI@GetCurrentResearch?$AA@	; `string'
PUBLIC	?lGetCurrentResearch@CvLuaPlayer@@KAHPAUlua_State@@@Z ; CvLuaPlayer::lGetCurrentResearch
PUBLIC	??_C@_0BD@BGEEDLGF@CanResearchForFree?$AA@	; `string'
PUBLIC	?lCanResearchForFree@CvLuaPlayer@@KAHPAUlua_State@@@Z ; CvLuaPlayer::lCanResearchForFree
PUBLIC	??_C@_0M@FOGEBAOH@CanResearch?$AA@		; `string'
PUBLIC	?lCanResearch@CvLuaPlayer@@KAHPAUlua_State@@@Z	; CvLuaPlayer::lCanResearch
PUBLIC	??_C@_0BA@NDFMOKDP@CanEverResearch?$AA@		; `string'
PUBLIC	?lCanEverResearch@CvLuaPlayer@@KAHPAUlua_State@@@Z ; CvLuaPlayer::lCanEverResearch
PUBLIC	??_C@_0L@OHMEGGKO@IsResearch?$AA@		; `string'
PUBLIC	?lIsResearch@CvLuaPlayer@@KAHPAUlua_State@@@Z	; CvLuaPlayer::lIsResearch
PUBLIC	??_C@_0BK@FBIHCOGE@CalculateResearchModifier?$AA@ ; `string'
PUBLIC	?lCalculateResearchModifier@CvLuaPlayer@@KAHPAUlua_State@@@Z ; CvLuaPlayer::lCalculateResearchModifier
PUBLIC	??_C@_0BH@CNAKGEP@CalculateInflatedCosts?$AA@	; `string'
PUBLIC	?lCalculateInflatedCosts@CvLuaPlayer@@KAHPAUlua_State@@@Z ; CvLuaPlayer::lCalculateInflatedCosts
PUBLIC	??_C@_0BL@IMEFIJEB@CalculateGrossGoldTimes100?$AA@ ; `string'
PUBLIC	?lCalculateGrossGoldTimes100@CvLuaPlayer@@KAHPAUlua_State@@@Z ; CvLuaPlayer::lCalculateGrossGoldTimes100
PUBLIC	??_C@_0BK@FCPPDOGO@CalculateGoldRateTimes100?$AA@ ; `string'
PUBLIC	?lCalculateGoldRateTimes100@CvLuaPlayer@@KAHPAUlua_State@@@Z ; CvLuaPlayer::lCalculateGoldRateTimes100
PUBLIC	??_C@_0BC@CHLLOECA@CalculateGoldRate?$AA@	; `string'
PUBLIC	?lCalculateGoldRate@CvLuaPlayer@@KAHPAUlua_State@@@Z ; CvLuaPlayer::lCalculateGoldRate
PUBLIC	??_C@_0BO@JGJDHHKA@GetImprovementGoldMaintenance?$AA@ ; `string'
PUBLIC	?lGetImprovementGoldMaintenance@CvLuaPlayer@@KAHPAUlua_State@@@Z ; CvLuaPlayer::lGetImprovementGoldMaintenance
PUBLIC	??_C@_0CC@JBPCODPN@ChangeBaseBuildingGoldMaintenanc@ ; `string'
PUBLIC	?lChangeBaseBuildingGoldMaintenance@CvLuaPlayer@@KAHPAUlua_State@@@Z ; CvLuaPlayer::lChangeBaseBuildingGoldMaintenance
PUBLIC	??_C@_0BP@BPKOFJIG@SetBaseBuildingGoldMaintenance?$AA@ ; `string'
PUBLIC	?lSetBaseBuildingGoldMaintenance@CvLuaPlayer@@KAHPAUlua_State@@@Z ; CvLuaPlayer::lSetBaseBuildingGoldMaintenance
PUBLIC	??_C@_0BL@NNCKIALH@GetBuildingGoldMaintenance?$AA@ ; `string'
PUBLIC	?lGetBuildingGoldMaintenance@CvLuaPlayer@@KAHPAUlua_State@@@Z ; CvLuaPlayer::lGetBuildingGoldMaintenance
PUBLIC	??_C@_0BL@IILDGNLA@GetNumMaintenanceFreeUnits?$AA@ ; `string'
PUBLIC	?lGetNumMaintenanceFreeUnits@CvLuaPlayer@@KAHPAUlua_State@@@Z ; CvLuaPlayer::lGetNumMaintenanceFreeUnits
PUBLIC	??_C@_0BE@ONAPNIH@CalculateUnitSupply?$AA@	; `string'
PUBLIC	?lCalculateUnitSupply@CvLuaPlayer@@KAHPAUlua_State@@@Z ; CvLuaPlayer::lCalculateUnitSupply
PUBLIC	??_C@_0BC@NDAAFPOB@CalculateUnitCost?$AA@	; `string'
PUBLIC	?lCalculateUnitCost@CvLuaPlayer@@KAHPAUlua_State@@@Z ; CvLuaPlayer::lCalculateUnitCost
PUBLIC	??_C@_0BE@JCFGPNKE@CalculateTotalYield?$AA@	; `string'
PUBLIC	?lCalculateTotalYield@CvLuaPlayer@@KAHPAUlua_State@@@Z ; CvLuaPlayer::lCalculateTotalYield
PUBLIC	??_C@_0BK@MGFJNJFO@GetImprovementUpgradeRate?$AA@ ; `string'
PUBLIC	?lGetImprovementUpgradeRate@CvLuaPlayer@@KAHPAUlua_State@@@Z ; CvLuaPlayer::lGetImprovementUpgradeRate
PUBLIC	??_C@_0N@DFILCDHK@GetBestRoute?$AA@		; `string'
PUBLIC	?lGetBestRoute@CvLuaPlayer@@KAHPAUlua_State@@@Z	; CvLuaPlayer::lGetBestRoute
PUBLIC	??_C@_0BI@MMBOFMHP@IsBuildBlockedByFeature?$AA@	; `string'
PUBLIC	?lIsBuildBlockedByFeature@CvLuaPlayer@@KAHPAUlua_State@@@Z ; CvLuaPlayer::lIsBuildBlockedByFeature
PUBLIC	??_C@_08EMPBKDLI@CanBuild?$AA@			; `string'
PUBLIC	?lCanBuild@CvLuaPlayer@@KAHPAUlua_State@@@Z	; CvLuaPlayer::lCanBuild
PUBLIC	??_C@_0BE@KJCBDPNA@RemoveBuildingClass?$AA@	; `string'
PUBLIC	?lRemoveBuildingClass@CvLuaPlayer@@KAHPAUlua_State@@@Z ; CvLuaPlayer::lRemoveBuildingClass
PUBLIC	??_C@_0BP@NHOMKJMK@GetBuildingClassPrereqBuilding?$AA@ ; `string'
PUBLIC	?lGetBuildingClassPrereqBuilding@CvLuaPlayer@@KAHPAUlua_State@@@Z ; CvLuaPlayer::lGetBuildingClassPrereqBuilding
PUBLIC	??_C@_0BC@BNLDEHMF@HasBusyMovingUnit?$AA@	; `string'
PUBLIC	?lHasBusyMovingUnit@CvLuaPlayer@@KAHPAUlua_State@@@Z ; CvLuaPlayer::lHasBusyMovingUnit
PUBLIC	??_C@_0M@PMEHCBOB@HasBusyUnit?$AA@		; `string'
PUBLIC	?lHasBusyUnit@CvLuaPlayer@@KAHPAUlua_State@@@Z	; CvLuaPlayer::lHasBusyUnit
PUBLIC	??_C@_0BG@CMGDJHNP@GetFirstReadyUnitPlot?$AA@	; `string'
PUBLIC	?lGetFirstReadyUnitPlot@CvLuaPlayer@@KAHPAUlua_State@@@Z ; CvLuaPlayer::lGetFirstReadyUnitPlot
PUBLIC	??_C@_0BC@IBIJOAGE@GetFirstReadyUnit?$AA@	; `string'
PUBLIC	?lGetFirstReadyUnit@CvLuaPlayer@@KAHPAUlua_State@@@Z ; CvLuaPlayer::lGetFirstReadyUnit
PUBLIC	??_C@_0N@ONGFLM@HasReadyUnit?$AA@		; `string'
PUBLIC	?lHasReadyUnit@CvLuaPlayer@@KAHPAUlua_State@@@Z	; CvLuaPlayer::lHasReadyUnit
PUBLIC	??_C@_0BL@JBMFKMKF@GetProjectProductionNeeded?$AA@ ; `string'
PUBLIC	?lGetProjectProductionNeeded@CvLuaPlayer@@KAHPAUlua_State@@@Z ; CvLuaPlayer::lGetProjectProductionNeeded
PUBLIC	??_C@_0BM@GGLBNBDE@GetBuildingProductionNeeded?$AA@ ; `string'
PUBLIC	?lGetBuildingProductionNeeded@CvLuaPlayer@@KAHPAUlua_State@@@Z ; CvLuaPlayer::lGetBuildingProductionNeeded
PUBLIC	??_C@_0BI@LJANCJHB@GetUnitProductionNeeded?$AA@	; `string'
PUBLIC	?lGetUnitProductionNeeded@CvLuaPlayer@@KAHPAUlua_State@@@Z ; CvLuaPlayer::lGetUnitProductionNeeded
PUBLIC	??_C@_0BJ@IPLLLGBJ@IsProductionMaxedProject?$AA@ ; `string'
PUBLIC	?lIsProductionMaxedProject@CvLuaPlayer@@KAHPAUlua_State@@@Z ; CvLuaPlayer::lIsProductionMaxedProject
PUBLIC	??_C@_0BP@LLNEJKAH@IsProductionMaxedBuildingClass?$AA@ ; `string'
PUBLIC	?lIsProductionMaxedBuildingClass@CvLuaPlayer@@KAHPAUlua_State@@@Z ; CvLuaPlayer::lIsProductionMaxedBuildingClass
PUBLIC	??_C@_0BL@ICJGIOEE@IsProductionMaxedUnitClass?$AA@ ; `string'
PUBLIC	?lIsProductionMaxedUnitClass@CvLuaPlayer@@KAHPAUlua_State@@@Z ; CvLuaPlayer::lIsProductionMaxedUnitClass
PUBLIC	??_C@_0BG@MOMJCOPE@SetFaithPurchaseIndex?$AA@	; `string'
PUBLIC	?lSetFaithPurchaseIndex@CvLuaPlayer@@KAHPAUlua_State@@@Z ; CvLuaPlayer::lSetFaithPurchaseIndex
PUBLIC	??_C@_0BG@DLJPPHLF@GetFaithPurchaseIndex?$AA@	; `string'
PUBLIC	?lGetFaithPurchaseIndex@CvLuaPlayer@@KAHPAUlua_State@@@Z ; CvLuaPlayer::lGetFaithPurchaseIndex
PUBLIC	??_C@_0BF@LIIFKFMA@SetFaithPurchaseType?$AA@	; `string'
PUBLIC	?lSetFaithPurchaseType@CvLuaPlayer@@KAHPAUlua_State@@@Z ; CvLuaPlayer::lSetFaithPurchaseType
PUBLIC	??_C@_0BF@OBJILDJH@GetFaithPurchaseType?$AA@	; `string'
PUBLIC	?lGetFaithPurchaseType@CvLuaPlayer@@KAHPAUlua_State@@@Z ; CvLuaPlayer::lGetFaithPurchaseType
PUBLIC	??_C@_0BF@FDIAKFJD@IsCanPurchaseAnyCity?$AA@	; `string'
PUBLIC	?lIsCanPurchaseAnyCity@CvLuaPlayer@@KAHPAUlua_State@@@Z ; CvLuaPlayer::lIsCanPurchaseAnyCity
PUBLIC	??_C@_0M@LBFPGCCN@CanMaintain?$AA@		; `string'
PUBLIC	?lCanMaintain@CvLuaPlayer@@KAHPAUlua_State@@@Z	; CvLuaPlayer::lCanMaintain
PUBLIC	??_C@_0L@DCAJPLNN@CanPrepare?$AA@		; `string'
PUBLIC	?lCanPrepare@CvLuaPlayer@@KAHPAUlua_State@@@Z	; CvLuaPlayer::lCanPrepare
PUBLIC	??_C@_09ENLCPIFP@CanCreate?$AA@			; `string'
PUBLIC	?lCanCreate@CvLuaPlayer@@KAHPAUlua_State@@@Z	; CvLuaPlayer::lCanCreate
PUBLIC	??_C@_0N@OBKNDGPF@CanConstruct?$AA@		; `string'
PUBLIC	?lCanConstruct@CvLuaPlayer@@KAHPAUlua_State@@@Z	; CvLuaPlayer::lCanConstruct
PUBLIC	??_C@_08BCMOJMKA@CanTrain?$AA@			; `string'
PUBLIC	?lCanTrain@CvLuaPlayer@@KAHPAUlua_State@@@Z	; CvLuaPlayer::lCanTrain
PUBLIC	??_C@_05JDGHEPJG@Found?$AA@			; `string'
PUBLIC	?lFound@CvLuaPlayer@@KAHPAUlua_State@@@Z	; CvLuaPlayer::lFound
PUBLIC	??_C@_08OEHLFCME@CanFound?$AA@			; `string'
PUBLIC	?lCanFound@CvLuaPlayer@@KAHPAUlua_State@@@Z	; CvLuaPlayer::lCanFound
PUBLIC	??_C@_0M@HMCFIJNM@CanGetGoody?$AA@		; `string'
PUBLIC	?lCanGetGoody@CvLuaPlayer@@KAHPAUlua_State@@@Z	; CvLuaPlayer::lCanGetGoody
PUBLIC	??_C@_07JBKNEMND@DoGoody?$AA@			; `string'
PUBLIC	?lDoGoody@CvLuaPlayer@@KAHPAUlua_State@@@Z	; CvLuaPlayer::lDoGoody
PUBLIC	??_C@_0N@EPHMEPKG@ReceiveGoody?$AA@		; `string'
PUBLIC	?lReceiveGoody@CvLuaPlayer@@KAHPAUlua_State@@@Z	; CvLuaPlayer::lReceiveGoody
PUBLIC	??_C@_0BA@BHIGEENL@CanReceiveGoody?$AA@		; `string'
PUBLIC	?lCanReceiveGoody@CvLuaPlayer@@KAHPAUlua_State@@@Z ; CvLuaPlayer::lCanReceiveGoody
PUBLIC	??_C@_07IHCCGGBK@Disband?$AA@			; `string'
PUBLIC	?lDisband@CvLuaPlayer@@KAHPAUlua_State@@@Z	; CvLuaPlayer::lDisband
PUBLIC	??_C@_04LJHIHGEL@Raze?$AA@			; `string'
PUBLIC	?lRaze@CvLuaPlayer@@KAHPAUlua_State@@@Z		; CvLuaPlayer::lRaze
PUBLIC	??_C@_07KCFFLCEK@CanRaze?$AA@			; `string'
PUBLIC	?lCanRaze@CvLuaPlayer@@KAHPAUlua_State@@@Z	; CvLuaPlayer::lCanRaze
PUBLIC	??_C@_0P@GLAGNJHD@FindNewCapital?$AA@		; `string'
PUBLIC	?lFindNewCapital@CvLuaPlayer@@KAHPAUlua_State@@@Z ; CvLuaPlayer::lFindNewCapital
PUBLIC	??_C@_0BE@EOIJEHCF@IsSimultaneousTurns?$AA@	; `string'
PUBLIC	?lIsSimultaneousTurns@CvLuaPlayer@@KAHPAUlua_State@@@Z ; CvLuaPlayer::lIsSimultaneousTurns
PUBLIC	??_C@_0N@DEOCLOCF@IsTurnActive?$AA@		; `string'
PUBLIC	?lIsTurnActive@CvLuaPlayer@@KAHPAUlua_State@@@Z	; CvLuaPlayer::lIsTurnActive
PUBLIC	??_C@_0BJ@MBKAEAGF@IsCapitalConnectedToCity?$AA@ ; `string'
PUBLIC	?lIsCapitalConnectedToCity@CvLuaPlayer@@KAHPAUlua_State@@@Z ; CvLuaPlayer::lIsCapitalConnectedToCity
PUBLIC	??_C@_0BG@IALDDINH@SetNumWondersBeatenTo?$AA@	; `string'
PUBLIC	?lSetNumWondersBeatenTo@CvLuaPlayer@@KAHPAUlua_State@@@Z ; CvLuaPlayer::lSetNumWondersBeatenTo
PUBLIC	??_C@_0BG@HFOFOBJG@GetNumWondersBeatenTo?$AA@	; `string'
PUBLIC	?lGetNumWondersBeatenTo@CvLuaPlayer@@KAHPAUlua_State@@@Z ; CvLuaPlayer::lGetNumWondersBeatenTo
PUBLIC	??_C@_0BG@LHOMPBPO@ChangeNumWorldWonders?$AA@	; `string'
PUBLIC	?lChangeNumWorldWonders@CvLuaPlayer@@KAHPAUlua_State@@@Z ; CvLuaPlayer::lChangeNumWorldWonders
PUBLIC	??_C@_0BD@FHKHHPIG@GetNumWorldWonders?$AA@	; `string'
PUBLIC	?lGetNumWorldWonders@CvLuaPlayer@@KAHPAUlua_State@@@Z ; CvLuaPlayer::lGetNumWorldWonders
PUBLIC	??_C@_0BC@NCAGKFLK@CountNumBuildings?$AA@	; `string'
PUBLIC	?lCountNumBuildings@CvLuaPlayer@@KAHPAUlua_State@@@Z ; CvLuaPlayer::lCountNumBuildings
PUBLIC	??_C@_0BC@EHNJCKPB@CountCityFeatures?$AA@	; `string'
PUBLIC	?lCountCityFeatures@CvLuaPlayer@@KAHPAUlua_State@@@Z ; CvLuaPlayer::lCountCityFeatures
PUBLIC	??_C@_0BA@GLKLOHNJ@GetArtStyleType?$AA@		; `string'
PUBLIC	?lGetArtStyleType@CvLuaPlayer@@KAHPAUlua_State@@@Z ; CvLuaPlayer::lGetArtStyleType
PUBLIC	??_C@_0BC@MJKEJNBJ@GetWorstEnemyName?$AA@	; `string'
PUBLIC	?lGetWorstEnemyName@CvLuaPlayer@@KAHPAUlua_State@@@Z ; CvLuaPlayer::lGetWorstEnemyName
PUBLIC	??_C@_0BE@JHNMEICD@GetStateReligionKey?$AA@	; `string'
PUBLIC	?lGetStateReligionKey@CvLuaPlayer@@KAHPAUlua_State@@@Z ; CvLuaPlayer::lGetStateReligionKey
PUBLIC	??_C@_0BF@OGNHCBFD@GetStateReligionName?$AA@	; `string'
PUBLIC	?lGetStateReligionName@CvLuaPlayer@@KAHPAUlua_State@@@Z ; CvLuaPlayer::lGetStateReligionName
PUBLIC	??_C@_0M@LIADFGOK@IsWhiteFlag?$AA@		; `string'
PUBLIC	?lIsWhiteFlag@CvLuaPlayer@@KAHPAUlua_State@@@Z	; CvLuaPlayer::lIsWhiteFlag
PUBLIC	??_C@_0BM@PKLHEKF@GetCivilizationAdjectiveKey?$AA@ ; `string'
PUBLIC	?lGetCivilizationAdjectiveKey@CvLuaPlayer@@KAHPAUlua_State@@@Z ; CvLuaPlayer::lGetCivilizationAdjectiveKey
PUBLIC	??_C@_0BJ@POHEMKMG@GetCivilizationAdjective?$AA@ ; `string'
PUBLIC	?lGetCivilizationAdjective@CvLuaPlayer@@KAHPAUlua_State@@@Z ; CvLuaPlayer::lGetCivilizationAdjective
PUBLIC	??_C@_0CD@DMAKHBMP@GetCivilizationShortDescriptionK@ ; `string'
PUBLIC	?lGetCivilizationShortDescriptionKey@CvLuaPlayer@@KAHPAUlua_State@@@Z ; CvLuaPlayer::lGetCivilizationShortDescriptionKey
PUBLIC	??_C@_0CA@GKGGFCIK@GetCivilizationShortDescription?$AA@ ; `string'
PUBLIC	?lGetCivilizationShortDescription@CvLuaPlayer@@KAHPAUlua_State@@@Z ; CvLuaPlayer::lGetCivilizationShortDescription
PUBLIC	??_C@_0BO@MPNPKBBC@GetCivilizationDescriptionKey?$AA@ ; `string'
PUBLIC	?lGetCivilizationDescriptionKey@CvLuaPlayer@@KAHPAUlua_State@@@Z ; CvLuaPlayer::lGetCivilizationDescriptionKey
PUBLIC	??_C@_0BL@NLPGHGO@GetCivilizationDescription?$AA@ ; `string'
PUBLIC	?lGetCivilizationDescription@CvLuaPlayer@@KAHPAUlua_State@@@Z ; CvLuaPlayer::lGetCivilizationDescription
PUBLIC	??_C@_0M@CDLFADEM@GetNickName?$AA@		; `string'
PUBLIC	?lGetNickName@CvLuaPlayer@@KAHPAUlua_State@@@Z	; CvLuaPlayer::lGetNickName
PUBLIC	??_C@_0L@PJBAHION@GetNameKey?$AA@		; `string'
PUBLIC	?lGetNameKey@CvLuaPlayer@@KAHPAUlua_State@@@Z	; CvLuaPlayer::lGetNameKey
PUBLIC	??_C@_07MMGEHGCI@GetName?$AA@			; `string'
PUBLIC	?lGetName@CvLuaPlayer@@KAHPAUlua_State@@@Z	; CvLuaPlayer::lGetName
PUBLIC	??_C@_0M@NJNEDJLP@IsBarbarian?$AA@		; `string'
PUBLIC	?lIsBarbarian@CvLuaPlayer@@KAHPAUlua_State@@@Z	; CvLuaPlayer::lIsBarbarian
PUBLIC	??_C@_07NIJBBMLI@IsHuman?$AA@			; `string'
PUBLIC	?lIsHuman@CvLuaPlayer@@KAHPAUlua_State@@@Z	; CvLuaPlayer::lIsHuman
PUBLIC	??_C@_09CKDIMNBM@KillUnits?$AA@			; `string'
PUBLIC	?lKillUnits@CvLuaPlayer@@KAHPAUlua_State@@@Z	; CvLuaPlayer::lKillUnits
PUBLIC	??_C@_0L@DAJECHKI@ChooseTech?$AA@		; `string'
PUBLIC	?lChooseTech@CvLuaPlayer@@KAHPAUlua_State@@@Z	; CvLuaPlayer::lChooseTech
PUBLIC	??_C@_0M@PCPIBOKC@AddFreeUnit?$AA@		; `string'
PUBLIC	?lAddFreeUnit@CvLuaPlayer@@KAHPAUlua_State@@@Z	; CvLuaPlayer::lAddFreeUnit
PUBLIC	??_C@_0M@IAMPNMBM@DisbandUnit?$AA@		; `string'
PUBLIC	?lDisbandUnit@CvLuaPlayer@@KAHPAUlua_State@@@Z	; CvLuaPlayer::lDisbandUnit
PUBLIC	??_C@_0BH@KPFFILAO@InitUnitWithNameOffset?$AA@	; `string'
PUBLIC	?lInitUnitWithNameOffset@CvLuaPlayer@@KAHPAUlua_State@@@Z ; CvLuaPlayer::lInitUnitWithNameOffset
PUBLIC	??_C@_08HGECGLD@InitUnit?$AA@			; `string'
PUBLIC	?lInitUnit@CvLuaPlayer@@KAHPAUlua_State@@@Z	; CvLuaPlayer::lInitUnit
PUBLIC	??_C@_0P@MHMMCCOA@GetNewCityName?$AA@		; `string'
PUBLIC	?lGetNewCityName@CvLuaPlayer@@KAHPAUlua_State@@@Z ; CvLuaPlayer::lGetNewCityName
PUBLIC	??_C@_0L@CLJKNEEI@KillCities?$AA@		; `string'
PUBLIC	?lKillCities@CvLuaPlayer@@KAHPAUlua_State@@@Z	; CvLuaPlayer::lKillCities
PUBLIC	??_C@_0M@FNHHCGFC@AcquireCity?$AA@		; `string'
PUBLIC	?lAcquireCity@CvLuaPlayer@@KAHPAUlua_State@@@Z	; CvLuaPlayer::lAcquireCity
PUBLIC	??_C@_08NEEDDCEG@InitCity?$AA@			; `string'
PUBLIC	?lInitCity@CvLuaPlayer@@KAHPAUlua_State@@@Z	; CvLuaPlayer::lInitCity
PUBLIC	?PushMethods@CvLuaPlayer@@SAXPAUlua_State@@H@Z	; CvLuaPlayer::PushMethods
EXTRN	_lua_setfield:PROC
EXTRN	_lua_pushcclosure:PROC
;	COMDAT ??_C@_0BL@KAGDCCOH@GetLiberationPreviewString?$AA@
CONST	SEGMENT
??_C@_0BL@KAGDCCOH@GetLiberationPreviewString?$AA@ DB 'GetLiberationPrevi'
	DB	'ewString', 00H				; `string'
CONST	ENDS
;	COMDAT ??_C@_0BK@CEKNHANK@GetWarmongerPreviewString?$AA@
CONST	SEGMENT
??_C@_0BK@CEKNHANK@GetWarmongerPreviewString?$AA@ DB 'GetWarmongerPreview'
	DB	'String', 00H				; `string'
CONST	ENDS
;	COMDAT ??_C@_0BD@PFIGNMFO@HasUnitOfClassType?$AA@
CONST	SEGMENT
??_C@_0BD@PFIGNMFO@HasUnitOfClassType?$AA@ DB 'HasUnitOfClassType', 00H ; `string'
CONST	ENDS
;	COMDAT ??_C@_0BE@BDGHDECE@HasTurnTimerExpired?$AA@
CONST	SEGMENT
??_C@_0BE@BDGHDECE@HasTurnTimerExpired?$AA@ DB 'HasTurnTimerExpired', 00H ; `string'
CONST	ENDS
;	COMDAT ??_C@_0L@KMAMDGPN@IsObserver?$AA@
CONST	SEGMENT
??_C@_0L@KMAMDGPN@IsObserver?$AA@ DB 'IsObserver', 00H	; `string'
CONST	ENDS
;	COMDAT ??_C@_0M@ILOEPEDD@IsConnected?$AA@
CONST	SEGMENT
??_C@_0M@ILOEPEDD@IsConnected?$AA@ DB 'IsConnected', 00H ; `string'
CONST	ENDS
;	COMDAT ??_C@_0BF@DPDBEIAE@GetCommitVoteDetails?$AA@
CONST	SEGMENT
??_C@_0BF@DPDBEIAE@GetCommitVoteDetails?$AA@ DB 'GetCommitVoteDetails', 00H ; `string'
CONST	ENDS
;	COMDAT ??_C@_0O@JJOHNPOE@CanCommitVote?$AA@
CONST	SEGMENT
??_C@_0O@JJOHNPOE@CanCommitVote?$AA@ DB 'CanCommitVote', 00H ; `string'
CONST	ENDS
;	COMDAT ??_C@_0BE@LLGEBKGE@GetOthersGreatWorks?$AA@
CONST	SEGMENT
??_C@_0BE@LLGEBKGE@GetOthersGreatWorks?$AA@ DB 'GetOthersGreatWorks', 00H ; `string'
CONST	ENDS
;	COMDAT ??_C@_0BH@GJFHNIHJ@GetSwappableGreatMusic?$AA@
CONST	SEGMENT
??_C@_0BH@GJFHNIHJ@GetSwappableGreatMusic?$AA@ DB 'GetSwappableGreatMusic'
	DB	00H						; `string'
CONST	ENDS
;	COMDAT ??_C@_0BK@IECAMKOI@GetSwappableGreatArtifact?$AA@
CONST	SEGMENT
??_C@_0BK@IECAMKOI@GetSwappableGreatArtifact?$AA@ DB 'GetSwappableGreatAr'
	DB	'tifact', 00H				; `string'
CONST	ENDS
;	COMDAT ??_C@_0BF@PADBEPFE@GetSwappableGreatArt?$AA@
CONST	SEGMENT
??_C@_0BF@PADBEPFE@GetSwappableGreatArt?$AA@ DB 'GetSwappableGreatArt', 00H ; `string'
CONST	ENDS
;	COMDAT ??_C@_0BJ@GDFMGLID@GetSwappableGreatWriting?$AA@
CONST	SEGMENT
??_C@_0BJ@GDFMGLID@GetSwappableGreatWriting?$AA@ DB 'GetSwappableGreatWri'
	DB	'ting', 00H					; `string'
CONST	ENDS
;	COMDAT ??_C@_0O@KKLCHPMA@GetGreatWorks?$AA@
CONST	SEGMENT
??_C@_0O@KKLCHPMA@GetGreatWorks?$AA@ DB 'GetGreatWorks', 00H ; `string'
CONST	ENDS
;	COMDAT ??_C@_0BF@BBFCHHGL@GetNumTechDifference?$AA@
CONST	SEGMENT
??_C@_0BF@BBFCHHGL@GetNumTechDifference?$AA@ DB 'GetNumTechDifference', 00H ; `string'
CONST	ENDS
;	COMDAT ??_C@_0BE@GPJCHJIN@GetTradeRoutesToYou?$AA@
CONST	SEGMENT
??_C@_0BE@GPJCHJIN@GetTradeRoutesToYou?$AA@ DB 'GetTradeRoutesToYou', 00H ; `string'
CONST	ENDS
;	COMDAT ??_C@_0BI@GGJGPFJM@GetTradeRoutesAvailable?$AA@
CONST	SEGMENT
??_C@_0BI@GGJGPFJM@GetTradeRoutesAvailable?$AA@ DB 'GetTradeRoutesAvailab'
	DB	'le', 00H					; `string'
CONST	ENDS
;	COMDAT ??_C@_0P@OHPONKMK@GetTradeRoutes?$AA@
CONST	SEGMENT
??_C@_0P@OHPONKMK@GetTradeRoutes?$AA@ DB 'GetTradeRoutes', 00H ; `string'
CONST	ENDS
;	COMDAT ??_C@_0BM@JIFAFEOA@GetTradeToYouRoutesTTString?$AA@
CONST	SEGMENT
??_C@_0BM@JIFAFEOA@GetTradeToYouRoutesTTString?$AA@ DB 'GetTradeToYouRout'
	DB	'esTTString', 00H				; `string'
CONST	ENDS
;	COMDAT ??_C@_0BL@IIMJBBCO@GetTradeYourRoutesTTString?$AA@
CONST	SEGMENT
??_C@_0BL@IIMJBBCO@GetTradeYourRoutesTTString?$AA@ DB 'GetTradeYourRoutes'
	DB	'TTString', 00H				; `string'
CONST	ENDS
;	COMDAT ??_C@_0BB@OACBPOPN@GetTradeUnitType?$AA@
CONST	SEGMENT
??_C@_0BB@OACBPOPN@GetTradeUnitType?$AA@ DB 'GetTradeUnitType', 00H ; `string'
CONST	ENDS
;	COMDAT ??_C@_0BK@EADFLLPD@GetNumAvailableTradeUnits?$AA@
CONST	SEGMENT
??_C@_0BK@EADFLLPD@GetNumAvailableTradeUnits?$AA@ DB 'GetNumAvailableTrad'
	DB	'eUnits', 00H				; `string'
CONST	ENDS
;	COMDAT ??_C@_0BL@JENMMKCA@GetPotentialAdmiralNewPort?$AA@
CONST	SEGMENT
??_C@_0BL@JENMMKCA@GetPotentialAdmiralNewPort?$AA@ DB 'GetPotentialAdmira'
	DB	'lNewPort', 00H				; `string'
CONST	ENDS
;	COMDAT ??_C@_0CB@MAKPAJHJ@GetPotentialTradeUnitNewHomeCity@
CONST	SEGMENT
??_C@_0CB@MAKPAJHJ@GetPotentialTradeUnitNewHomeCity@ DB 'GetPotentialTrad'
	DB	'eUnitNewHomeCity', 00H			; `string'
CONST	ENDS
;	COMDAT ??_C@_0CC@KHDPEDFE@GetInternationalTradeRouteScienc@
CONST	SEGMENT
??_C@_0CC@KHDPEDFE@GetInternationalTradeRouteScienc@ DB 'GetInternational'
	DB	'TradeRouteScience', 00H			; `string'
CONST	ENDS
;	COMDAT ??_C@_0CA@JGHLFNBP@GetInternationalTradeRouteTotal?$AA@
CONST	SEGMENT
??_C@_0CA@JGHLFNBP@GetInternationalTradeRouteTotal?$AA@ DB 'GetInternatio'
	DB	'nalTradeRouteTotal', 00H			; `string'
CONST	ENDS
;	COMDAT ??_C@_0CJ@CENOPJDM@GetInternationalTradeRouteDomain@
CONST	SEGMENT
??_C@_0CJ@CENOPJDM@GetInternationalTradeRouteDomain@ DB 'GetInternational'
	DB	'TradeRouteDomainModifier', 00H		; `string'
CONST	ENDS
;	COMDAT ??_C@_0CI@JAMFAEJH@GetInternationalTradeRouteRiverM@
CONST	SEGMENT
??_C@_0CI@JAMFAEJH@GetInternationalTradeRouteRiverM@ DB 'GetInternational'
	DB	'TradeRouteRiverModifier', 00H		; `string'
CONST	ENDS
;	COMDAT ??_C@_0CK@BFEEANCK@GetInternationalTradeRouteOtherT@
CONST	SEGMENT
??_C@_0CK@BFEEANCK@GetInternationalTradeRouteOtherT@ DB 'GetInternational'
	DB	'TradeRouteOtherTraitBonus', 00H		; `string'
CONST	ENDS
;	COMDAT ??_C@_0CG@IPPHMMIB@GetInternationalTradeRoutePolicy@
CONST	SEGMENT
??_C@_0CG@IPPHMMIB@GetInternationalTradeRoutePolicy@ DB 'GetInternational'
	DB	'TradeRoutePolicyBonus', 00H			; `string'
CONST	ENDS
;	COMDAT ??_C@_0CN@BEGIPDME@GetInternationalTradeRouteTheirB@
CONST	SEGMENT
??_C@_0CN@BEGIPDME@GetInternationalTradeRouteTheirB@ DB 'GetInternational'
	DB	'TradeRouteTheirBuildingBonus', 00H		; `string'
CONST	ENDS
;	COMDAT ??_C@_0CM@ELNCKEMC@GetInternationalTradeRouteYourBu@
CONST	SEGMENT
??_C@_0CM@ELNCKEMC@GetInternationalTradeRouteYourBu@ DB 'GetInternational'
	DB	'TradeRouteYourBuildingBonus', 00H		; `string'
CONST	ENDS
;	COMDAT ??_C@_0CJ@GOKACKGF@GetInternationalTradeRouteExclus@
CONST	SEGMENT
??_C@_0CJ@GOKACKGF@GetInternationalTradeRouteExclus@ DB 'GetInternational'
	DB	'TradeRouteExclusiveBonus', 00H		; `string'
CONST	ENDS
;	COMDAT ??_C@_0DA@DMPNEJHJ@GetInternationalTradeRouteResour@
CONST	SEGMENT
??_C@_0DA@DMPNEJHJ@GetInternationalTradeRouteResour@ DB 'GetInternational'
	DB	'TradeRouteResourceTraitModifier', 00H	; `string'
CONST	ENDS
;	COMDAT ??_C@_0CI@GKGOKFHF@GetInternationalTradeRouteResour@
CONST	SEGMENT
??_C@_0CI@GKGOKFHF@GetInternationalTradeRouteResour@ DB 'GetInternational'
	DB	'TradeRouteResourceBonus', 00H		; `string'
CONST	ENDS
;	COMDAT ??_C@_0CD@JCOMGEHJ@GetInternationalTradeRouteGPTBon@
CONST	SEGMENT
??_C@_0CD@JCOMGEHJ@GetInternationalTradeRouteGPTBon@ DB 'GetInternational'
	DB	'TradeRouteGPTBonus', 00H			; `string'
CONST	ENDS
;	COMDAT ??_C@_0CE@OFEOPDF@GetInternationalTradeRouteBaseBo@
CONST	SEGMENT
??_C@_0CE@OFEOPDF@GetInternationalTradeRouteBaseBo@ DB 'GetInternationalT'
	DB	'radeRouteBaseBonus', 00H			; `string'
CONST	ENDS
;	COMDAT ??_C@_0DA@PAFOHMJF@GetPotentialInternationalTradeRo@
CONST	SEGMENT
??_C@_0DA@PAFOHMJF@GetPotentialInternationalTradeRo@ DB 'GetPotentialInte'
	DB	'rnationalTradeRouteDestinations', 00H	; `string'
CONST	ENDS
;	COMDAT ??_C@_0CI@HDPEKAFE@GetNumInternationalTradeRoutesAv@
CONST	SEGMENT
??_C@_0CI@HDPEKAFE@GetNumInternationalTradeRoutesAv@ DB 'GetNumInternatio'
	DB	'nalTradeRoutesAvailable', 00H		; `string'
CONST	ENDS
;	COMDAT ??_C@_0CD@JKDKNEEH@GetNumInternationalTradeRoutesUs@
CONST	SEGMENT
??_C@_0CD@JKDKNEEH@GetNumInternationalTradeRoutesUs@ DB 'GetNumInternatio'
	DB	'nalTradeRoutesUsed', 00H			; `string'
CONST	ENDS
;	COMDAT ??_C@_0CP@LOLBOHGG@GetInternationalTradeRoutePlotMo@
CONST	SEGMENT
??_C@_0CP@LOLBOHGG@GetInternationalTradeRoutePlotMo@ DB 'GetInternational'
	DB	'TradeRoutePlotMouseoverToolTip', 00H	; `string'
CONST	ENDS
;	COMDAT ??_C@_0CG@HGLODKBP@GetInternationalTradeRoutePlotTo@
CONST	SEGMENT
??_C@_0CG@HGLODKBP@GetInternationalTradeRoutePlotTo@ DB 'GetInternational'
	DB	'TradeRoutePlotToolTip', 00H			; `string'
CONST	ENDS
;	COMDAT ??_C@_0BD@MLPGEPHF@GetTradeRouteRange?$AA@
CONST	SEGMENT
??_C@_0BD@MLPGEPHF@GetTradeRouteRange?$AA@ DB 'GetTradeRouteRange', 00H ; `string'
CONST	ENDS
;	COMDAT ??_C@_0BK@GHALEPGN@IsOtherDiplomatVisitingMe?$AA@
CONST	SEGMENT
??_C@_0BK@GHALEPGN@IsOtherDiplomatVisitingMe?$AA@ DB 'IsOtherDiplomatVisi'
	DB	'tingMe', 00H				; `string'
CONST	ENDS
;	COMDAT ??_C@_0BJ@GILOHAAJ@IsMyDiplomatVisitingThem?$AA@
CONST	SEGMENT
??_C@_0BJ@GILOHAAJ@IsMyDiplomatVisitingThem?$AA@ DB 'IsMyDiplomatVisiting'
	DB	'Them', 00H					; `string'
CONST	ENDS
;	COMDAT ??_C@_0BH@MDDGLPM@GetCoupChanceOfSuccess?$AA@
CONST	SEGMENT
??_C@_0BH@MDDGLPM@GetCoupChanceOfSuccess?$AA@ DB 'GetCoupChanceOfSuccess', 00H ; `string'
CONST	ENDS
;	COMDAT ??_C@_0BG@CKNMJMAJ@GetRecentIntrigueInfo?$AA@
CONST	SEGMENT
??_C@_0BG@CKNMJMAJ@GetRecentIntrigueInfo?$AA@ DB 'GetRecentIntrigueInfo', 00H ; `string'
CONST	ENDS
;	COMDAT ??_C@_0BH@DEPJBAFK@HasRecentIntrigueAbout?$AA@
CONST	SEGMENT
??_C@_0BH@DEPJBAFK@HasRecentIntrigueAbout?$AA@ DB 'HasRecentIntrigueAbout'
	DB	00H						; `string'
CONST	ENDS
;	COMDAT ??_C@_0BE@NDBIENEG@GetIntrigueMessages?$AA@
CONST	SEGMENT
??_C@_0BE@NDBIENEG@GetIntrigueMessages?$AA@ DB 'GetIntrigueMessages', 00H ; `string'
CONST	ENDS
;	COMDAT ??_C@_0BD@CLNJPIEF@GetNumTechsToSteal?$AA@
CONST	SEGMENT
??_C@_0BD@CLNJPIEF@GetNumTechsToSteal?$AA@ DB 'GetNumTechsToSteal', 00H ; `string'
CONST	ENDS
;	COMDAT ??_C@_0CA@NNHIHMJL@GetAvailableSpyRelocationCities?$AA@
CONST	SEGMENT
??_C@_0CA@NNHIHMJL@GetAvailableSpyRelocationCities?$AA@ DB 'GetAvailableS'
	DB	'pyRelocationCities', 00H			; `string'
CONST	ENDS
;	COMDAT ??_C@_0BA@EJACPBIJ@CanSpyStageCoup?$AA@
CONST	SEGMENT
??_C@_0BA@EJACPBIJ@CanSpyStageCoup?$AA@ DB 'CanSpyStageCoup', 00H ; `string'
CONST	ENDS
;	COMDAT ??_C@_0BA@MBCBJNFC@IsSpySchmoozing?$AA@
CONST	SEGMENT
??_C@_0BA@MBCBJNFC@IsSpySchmoozing?$AA@ DB 'IsSpySchmoozing', 00H ; `string'
CONST	ENDS
;	COMDAT ??_C@_0O@HGOCMOKI@IsSpyDiplomat?$AA@
CONST	SEGMENT
??_C@_0O@HGOCMOKI@IsSpyDiplomat?$AA@ DB 'IsSpyDiplomat', 00H ; `string'
CONST	ENDS
;	COMDAT ??_C@_0BO@KFGBCJOJ@HasSpyEstablishedSurveillance?$AA@
CONST	SEGMENT
??_C@_0BO@KFGBCJOJ@HasSpyEstablishedSurveillance?$AA@ DB 'HasSpyEstablish'
	DB	'edSurveillance', 00H			; `string'
CONST	ENDS
;	COMDAT ??_C@_0BC@BEHEHPAE@GetEspionageSpies?$AA@
CONST	SEGMENT
??_C@_0BC@BEHEHPAE@GetEspionageSpies?$AA@ DB 'GetEspionageSpies', 00H ; `string'
CONST	ENDS
;	COMDAT ??_C@_0BG@EOLELIEH@GetNumUnassignedSpies?$AA@
CONST	SEGMENT
??_C@_0BG@EOLELIEH@GetNumUnassignedSpies?$AA@ DB 'GetNumUnassignedSpies', 00H ; `string'
CONST	ENDS
;	COMDAT ??_C@_0M@HJJJBDNC@GetNumSpies?$AA@
CONST	SEGMENT
??_C@_0M@HJJJBDNC@GetNumSpies?$AA@ DB 'GetNumSpies', 00H ; `string'
CONST	ENDS
;	COMDAT ??_C@_0BH@PBHFHBIL@GetEspionageCityStatus?$AA@
CONST	SEGMENT
??_C@_0BH@PBHFHBIL@GetEspionageCityStatus?$AA@ DB 'GetEspionageCityStatus'
	DB	00H						; `string'
CONST	ENDS
;	COMDAT ??_C@_0BI@BIGNFBBK@IsAllowPuppetPurchasing?$AA@
CONST	SEGMENT
??_C@_0BI@BIGNFBBK@IsAllowPuppetPurchasing?$AA@ DB 'IsAllowPuppetPurchasi'
	DB	'ng', 00H					; `string'
CONST	ENDS
;	COMDAT ??_C@_0M@CGFJJMHO@MayNotAnnex?$AA@
CONST	SEGMENT
??_C@_0M@CGFJJMHO@MayNotAnnex?$AA@ DB 'MayNotAnnex', 00H ; `string'
CONST	ENDS
;	COMDAT ??_C@_0BD@PELLMMPJ@GetDealTheyreValue?$AA@
CONST	SEGMENT
??_C@_0BD@PELLMMPJ@GetDealTheyreValue?$AA@ DB 'GetDealTheyreValue', 00H ; `string'
CONST	ENDS
;	COMDAT ??_C@_0P@BDNMFOBD@GetDealMyValue?$AA@
CONST	SEGMENT
??_C@_0P@BDNMFOBD@GetDealMyValue?$AA@ DB 'GetDealMyValue', 00H ; `string'
CONST	ENDS
;	COMDAT ??_C@_0N@FKEIDJJH@GetDealValue?$AA@
CONST	SEGMENT
??_C@_0N@FKEIDJJH@GetDealValue?$AA@ DB 'GetDealValue', 00H ; `string'
CONST	ENDS
;	COMDAT ??_C@_0BA@MBBOBAGF@GetOpinionTable?$AA@
CONST	SEGMENT
??_C@_0BA@MBBOBAGF@GetOpinionTable?$AA@ DB 'GetOpinionTable', 00H ; `string'
CONST	ENDS
;	COMDAT ??_C@_0BJ@LBBAGBOM@WasResurrectedThisTurnBy?$AA@
CONST	SEGMENT
??_C@_0BJ@LBBAGBOM@WasResurrectedThisTurnBy?$AA@ DB 'WasResurrectedThisTu'
	DB	'rnBy', 00H					; `string'
CONST	ENDS
;	COMDAT ??_C@_0BB@CDPPODHF@WasResurrectedBy?$AA@
CONST	SEGMENT
??_C@_0BB@CDPPODHF@WasResurrectedBy?$AA@ DB 'WasResurrectedBy', 00H ; `string'
CONST	ENDS
;	COMDAT ??_C@_0CA@ILDNKAHC@GetPlayerBuildingClassHappiness?$AA@
CONST	SEGMENT
??_C@_0CA@ILDNKAHC@GetPlayerBuildingClassHappiness?$AA@ DB 'GetPlayerBuil'
	DB	'dingClassHappiness', 00H			; `string'
CONST	ENDS
;	COMDAT ??_C@_0CC@JGCNPAK@GetPlayerBuildingClassYieldChang@
CONST	SEGMENT
??_C@_0CC@JGCNPAK@GetPlayerBuildingClassYieldChang@ DB 'GetPlayerBuilding'
	DB	'ClassYieldChange', 00H			; `string'
CONST	ENDS
;	COMDAT ??_C@_0CF@JKDHJBPO@GetPolicyEspionageCatchSpiesModi@
CONST	SEGMENT
??_C@_0CF@JKDHJBPO@GetPolicyEspionageCatchSpiesModi@ DB 'GetPolicyEspiona'
	DB	'geCatchSpiesModifier', 00H			; `string'
CONST	ENDS
;	COMDAT ??_C@_0BL@OPPCJPCB@GetPolicyEspionageModifier?$AA@
CONST	SEGMENT
??_C@_0BL@OPPCJPCB@GetPolicyEspionageModifier?$AA@ DB 'GetPolicyEspionage'
	DB	'Modifier', 00H				; `string'
CONST	ENDS
;	COMDAT ??_C@_0CC@NHAOMIBG@GetPolicyBuildingClassYieldChang@
CONST	SEGMENT
??_C@_0CC@NHAOMIBG@GetPolicyBuildingClassYieldChang@ DB 'GetPolicyBuildin'
	DB	'gClassYieldChange', 00H			; `string'
CONST	ENDS
;	COMDAT ??_C@_0CE@CALOGBHI@GetPolicyBuildingClassYieldModif@
CONST	SEGMENT
??_C@_0CE@CALOGBHI@GetPolicyBuildingClassYieldModif@ DB 'GetPolicyBuildin'
	DB	'gClassYieldModifier', 00H			; `string'
CONST	ENDS
;	COMDAT ??_C@_0BO@LFAMHIME@GetNaturalWonderYieldModifier?$AA@
CONST	SEGMENT
??_C@_0BO@LFAMHIME@GetNaturalWonderYieldModifier?$AA@ DB 'GetNaturalWonde'
	DB	'rYieldModifier', 00H			; `string'
CONST	ENDS
;	COMDAT ??_C@_0BK@HADFEIC@AddTemporaryDominanceZone?$AA@
CONST	SEGMENT
??_C@_0BK@HADFEIC@AddTemporaryDominanceZone?$AA@ DB 'AddTemporaryDominanc'
	DB	'eZone', 00H					; `string'
CONST	ENDS
;	COMDAT ??_C@_0BL@OACLDGB@SetEmbarkedGraphicOverride?$AA@
CONST	SEGMENT
??_C@_0BL@OACLDGB@SetEmbarkedGraphicOverride?$AA@ DB 'SetEmbarkedGraphicO'
	DB	'verride', 00H				; `string'
CONST	ENDS
;	COMDAT ??_C@_0BL@DBDHHDHB@GetEmbarkedGraphicOverride?$AA@
CONST	SEGMENT
??_C@_0BL@DBDHHDHB@GetEmbarkedGraphicOverride?$AA@ DB 'GetEmbarkedGraphic'
	DB	'Override', 00H				; `string'
CONST	ENDS
;	COMDAT ??_C@_0BJ@JCAMHNPA@ChangeFreePromotionCount?$AA@
CONST	SEGMENT
??_C@_0BJ@JCAMHNPA@ChangeFreePromotionCount?$AA@ DB 'ChangeFreePromotionC'
	DB	'ount', 00H					; `string'
CONST	ENDS
;	COMDAT ??_C@_0BA@IKABNDKF@IsFreePromotion?$AA@
CONST	SEGMENT
??_C@_0BA@IKABNDKF@IsFreePromotion?$AA@ DB 'IsFreePromotion', 00H ; `string'
CONST	ENDS
;	COMDAT ??_C@_0BG@IMOAGJCF@GetFreePromotionCount?$AA@
CONST	SEGMENT
??_C@_0BG@IMOAGJCF@GetFreePromotionCount?$AA@ DB 'GetFreePromotionCount', 00H ; `string'
CONST	ENDS
;	COMDAT ??_C@_0M@HCFKLKFB@GetPrevCity?$AA@
CONST	SEGMENT
??_C@_0M@HCFKLKFB@GetPrevCity?$AA@ DB 'GetPrevCity', 00H ; `string'
CONST	ENDS
;	COMDAT ??_C@_0M@CLOHEHIF@GetNextCity?$AA@
CONST	SEGMENT
??_C@_0M@CLOHEHIF@GetNextCity?$AA@ DB 'GetNextCity', 00H ; `string'
CONST	ENDS
;	COMDAT ??_C@_0CG@KMIEOMED@GetExtraBuildingHappinessFromPol@
CONST	SEGMENT
??_C@_0CG@KMIEOMED@GetExtraBuildingHappinessFromPol@ DB 'GetExtraBuilding'
	DB	'HappinessFromPolicies', 00H			; `string'
CONST	ENDS
;	COMDAT ??_C@_0BK@DLAHPJGM@GetMayaCalendarLongString?$AA@
CONST	SEGMENT
??_C@_0BK@DLAHPJGM@GetMayaCalendarLongString?$AA@ DB 'GetMayaCalendarLong'
	DB	'String', 00H				; `string'
CONST	ENDS
;	COMDAT ??_C@_0BG@MJJNOJKC@GetMayaCalendarString?$AA@
CONST	SEGMENT
??_C@_0BG@MJJNOJKC@GetMayaCalendarString?$AA@ DB 'GetMayaCalendarString', 00H ; `string'
CONST	ENDS
;	COMDAT ??_C@_0BE@NIFMMLEP@IsUsingMayaCalendar?$AA@
CONST	SEGMENT
??_C@_0BE@NIFMMLEP@IsUsingMayaCalendar?$AA@ DB 'IsUsingMayaCalendar', 00H ; `string'
CONST	ENDS
;	COMDAT ??_C@_0CJ@NEKJJLBB@GetNumTurnsBeforeMinorAlliesRefu@
CONST	SEGMENT
??_C@_0CJ@NEKJJLBB@GetNumTurnsBeforeMinorAlliesRefu@ DB 'GetNumTurnsBefor'
	DB	'eMinorAlliesRefuseBribes', 00H		; `string'
CONST	ENDS
;	COMDAT ??_C@_0BI@CNCMJHLM@IsAbleToAnnexCityStates?$AA@
CONST	SEGMENT
??_C@_0BI@CNCMJHLM@IsAbleToAnnexCityStates?$AA@ DB 'IsAbleToAnnexCityStat'
	DB	'es', 00H					; `string'
CONST	ENDS
;	COMDAT ??_C@_0BH@IDMIFDOJ@GetHappinessFromLuxury?$AA@
CONST	SEGMENT
??_C@_0BH@IDMIFDOJ@GetHappinessFromLuxury?$AA@ DB 'GetHappinessFromLuxury'
	DB	00H						; `string'
CONST	ENDS
;	COMDAT ??_C@_0BM@IMDAONMJ@IsTraitBonusReligiousBelief?$AA@
CONST	SEGMENT
??_C@_0BM@IMDAONMJ@IsTraitBonusReligiousBelief?$AA@ DB 'IsTraitBonusRelig'
	DB	'iousBelief', 00H				; `string'
CONST	ENDS
;	COMDAT ??_C@_0CD@LMBAJOCL@GetTraitGreatScientistRateModifi@
CONST	SEGMENT
??_C@_0CD@LMBAJOCL@GetTraitGreatScientistRateModifi@ DB 'GetTraitGreatSci'
	DB	'entistRateModifier', 00H			; `string'
CONST	ENDS
;	COMDAT ??_C@_0BP@MDEOMKGO@GetTraitGreatGeneralExtraBonus?$AA@
CONST	SEGMENT
??_C@_0BP@MDEOMKGO@GetTraitGreatGeneralExtraBonus?$AA@ DB 'GetTraitGreatG'
	DB	'eneralExtraBonus', 00H			; `string'
CONST	ENDS
;	COMDAT ??_C@_0CA@EMLNFCFE@GetTraitCityStateCombatModifier?$AA@
CONST	SEGMENT
??_C@_0CA@EMLNFCFE@GetTraitCityStateCombatModifier?$AA@ DB 'GetTraitCityS'
	DB	'tateCombatModifier', 00H			; `string'
CONST	ENDS
;	COMDAT ??_C@_0CA@DCDDHCMD@GetTraitGoldenAgeCombatModifier?$AA@
CONST	SEGMENT
??_C@_0CA@DCDDHCMD@GetTraitGoldenAgeCombatModifier?$AA@ DB 'GetTraitGolde'
	DB	'nAgeCombatModifier', 00H			; `string'
CONST	ENDS
;	COMDAT ??_C@_0BM@EMKOFIFL@IsFreeMayaGreatPersonChoice?$AA@
CONST	SEGMENT
??_C@_0BM@EMKOFIFL@IsFreeMayaGreatPersonChoice?$AA@ DB 'IsFreeMayaGreatPe'
	DB	'rsonChoice', 00H				; `string'
CONST	ENDS
;	COMDAT ??_C@_0O@JDHKMAFF@GetUnitBaktun?$AA@
CONST	SEGMENT
??_C@_0O@JDHKMAFF@GetUnitBaktun?$AA@ DB 'GetUnitBaktun', 00H ; `string'
CONST	ENDS
;	COMDAT ??_C@_0BK@FPGICLJB@ChangeNumFaithGreatPeople?$AA@
CONST	SEGMENT
??_C@_0BK@FPGICLJB@ChangeNumFaithGreatPeople?$AA@ DB 'ChangeNumFaithGreat'
	DB	'People', 00H				; `string'
CONST	ENDS
;	COMDAT ??_C@_0BH@KIOBMGAB@SetNumFaithGreatPeople?$AA@
CONST	SEGMENT
??_C@_0BH@KIOBMGAB@SetNumFaithGreatPeople?$AA@ DB 'SetNumFaithGreatPeople'
	DB	00H						; `string'
CONST	ENDS
;	COMDAT ??_C@_0BH@KJMPOBNO@GetNumFaithGreatPeople?$AA@
CONST	SEGMENT
??_C@_0BH@KJMPOBNO@GetNumFaithGreatPeople?$AA@ DB 'GetNumFaithGreatPeople'
	DB	00H						; `string'
CONST	ENDS
;	COMDAT ??_C@_0BE@GAIHGDCB@ChangeNumMayaBoosts?$AA@
CONST	SEGMENT
??_C@_0BE@GAIHGDCB@ChangeNumMayaBoosts?$AA@ DB 'ChangeNumMayaBoosts', 00H ; `string'
CONST	ENDS
;	COMDAT ??_C@_0BB@HCNHEJE@SetNumMayaBoosts?$AA@
CONST	SEGMENT
??_C@_0BB@HCNHEJE@SetNumMayaBoosts?$AA@ DB 'SetNumMayaBoosts', 00H ; `string'
CONST	ENDS
;	COMDAT ??_C@_0BB@GDHEMKCG@GetNumMayaBoosts?$AA@
CONST	SEGMENT
??_C@_0BB@GDHEMKCG@GetNumMayaBoosts?$AA@ DB 'GetNumMayaBoosts', 00H ; `string'
CONST	ENDS
;	COMDAT ??_C@_0BJ@DACMHFAL@ChangeNumFreeGreatPeople?$AA@
CONST	SEGMENT
??_C@_0BJ@DACMHFAL@ChangeNumFreeGreatPeople?$AA@ DB 'ChangeNumFreeGreatPe'
	DB	'ople', 00H					; `string'
CONST	ENDS
;	COMDAT ??_C@_0BG@NLJGLIJP@SetNumFreeGreatPeople?$AA@
CONST	SEGMENT
??_C@_0BG@NLJGLIJP@SetNumFreeGreatPeople?$AA@ DB 'SetNumFreeGreatPeople', 00H ; `string'
CONST	ENDS
;	COMDAT ??_C@_0BG@COMAGBNO@GetNumFreeGreatPeople?$AA@
CONST	SEGMENT
??_C@_0BG@COMAGBNO@GetNumFreeGreatPeople?$AA@ DB 'GetNumFreeGreatPeople', 00H ; `string'
CONST	ENDS
;	COMDAT ??_C@_0BE@KMAGMKHA@ChangeNumFreeTenets?$AA@
CONST	SEGMENT
??_C@_0BE@KMAGMKHA@ChangeNumFreeTenets?$AA@ DB 'ChangeNumFreeTenets', 00H ; `string'
CONST	ENDS
;	COMDAT ??_C@_0BB@MLKMNNMF@SetNumFreeTenets?$AA@
CONST	SEGMENT
??_C@_0BB@MLKMNNMF@SetNumFreeTenets?$AA@ DB 'SetNumFreeTenets', 00H ; `string'
CONST	ENDS
;	COMDAT ??_C@_0BB@KPPFGDHH@GetNumFreeTenets?$AA@
CONST	SEGMENT
??_C@_0BB@KPPFGDHH@GetNumFreeTenets?$AA@ DB 'GetNumFreeTenets', 00H ; `string'
CONST	ENDS
;	COMDAT ??_C@_0BG@NPJFLNFP@ChangeNumFreePolicies?$AA@
CONST	SEGMENT
??_C@_0BG@NPJFLNFP@ChangeNumFreePolicies?$AA@ DB 'ChangeNumFreePolicies', 00H ; `string'
CONST	ENDS
;	COMDAT ??_C@_0BD@MFPEAFMP@SetNumFreePolicies?$AA@
CONST	SEGMENT
??_C@_0BD@MFPEAFMP@SetNumFreePolicies?$AA@ DB 'SetNumFreePolicies', 00H ; `string'
CONST	ENDS
;	COMDAT ??_C@_0BD@DPNODDCH@GetNumFreePolicies?$AA@
CONST	SEGMENT
??_C@_0BD@DPNODDCH@GetNumFreePolicies?$AA@ DB 'GetNumFreePolicies', 00H ; `string'
CONST	ENDS
;	COMDAT ??_C@_0BA@LBJBLEHP@SetNumFreeTechs?$AA@
CONST	SEGMENT
??_C@_0BA@LBJBLEHP@SetNumFreeTechs?$AA@ DB 'SetNumFreeTechs', 00H ; `string'
CONST	ENDS
;	COMDAT ??_C@_0BA@IDIHMGGG@GetNumFreeTechs?$AA@
CONST	SEGMENT
??_C@_0BA@IDIHMGGG@GetNumFreeTechs?$AA@ DB 'GetNumFreeTechs', 00H ; `string'
CONST	ENDS
;	COMDAT ??_C@_0BG@OAGGOFCC@GetEverTrainedBuilder?$AA@
CONST	SEGMENT
??_C@_0BG@OAGGOFCC@GetEverTrainedBuilder?$AA@ DB 'GetEverTrainedBuilder', 00H ; `string'
CONST	ENDS
;	COMDAT ??_C@_0BK@EHCBLBBJ@GetAnyUnitHasOrderToGoody?$AA@
CONST	SEGMENT
??_C@_0BK@EHCBLBBJ@GetAnyUnitHasOrderToGoody?$AA@ DB 'GetAnyUnitHasOrderT'
	DB	'oGoody', 00H				; `string'
CONST	ENDS
;	COMDAT ??_C@_0BA@GECDJOIG@GetPlotHasOrder?$AA@
CONST	SEGMENT
??_C@_0BA@GECDJOIG@GetPlotHasOrder?$AA@ DB 'GetPlotHasOrder', 00H ; `string'
CONST	ENDS
;	COMDAT ??_C@_0BJ@ELMHMJBB@IsAnyGoodyPlotAccessible?$AA@
CONST	SEGMENT
??_C@_0BJ@ELMHMJBB@IsAnyGoodyPlotAccessible?$AA@ DB 'IsAnyGoodyPlotAccess'
	DB	'ible', 00H					; `string'
CONST	ENDS
;	COMDAT ??_C@_0BE@EJDMDOAD@GetClosestGoodyPlot?$AA@
CONST	SEGMENT
??_C@_0BE@EJDMDOAD@GetClosestGoodyPlot?$AA@ DB 'GetClosestGoodyPlot', 00H ; `string'
CONST	ENDS
;	COMDAT ??_C@_0BD@FBANDIAJ@GetEverPoppedGoody?$AA@
CONST	SEGMENT
??_C@_0BD@FBANDIAJ@GetEverPoppedGoody?$AA@ DB 'GetEverPoppedGoody', 00H ; `string'
CONST	ENDS
;	COMDAT ??_C@_0BF@CDGMGBGG@GetPlayerVisiblePlot?$AA@
CONST	SEGMENT
??_C@_0BF@CDGMGBGG@GetPlayerVisiblePlot?$AA@ DB 'GetPlayerVisiblePlot', 00H ; `string'
CONST	ENDS
;	COMDAT ??_C@_0BC@BHJMCOLH@IsAnyPlotImproved?$AA@
CONST	SEGMENT
??_C@_0BC@BHJMCOLH@IsAnyPlotImproved?$AA@ DB 'IsAnyPlotImproved', 00H ; `string'
CONST	ENDS
;	COMDAT ??_C@_0CF@NDFOBFBD@GetUnimprovedAvailableLuxuryReso@
CONST	SEGMENT
??_C@_0CF@NDFOBFBD@GetUnimprovedAvailableLuxuryReso@ DB 'GetUnimprovedAva'
	DB	'ilableLuxuryResource', 00H			; `string'
CONST	ENDS
;	COMDAT ??_C@_0BN@NABAJGIG@GetRecommendedFoundCityPlots?$AA@
CONST	SEGMENT
??_C@_0BN@NABAJGIG@GetRecommendedFoundCityPlots?$AA@ DB 'GetRecommendedFo'
	DB	'undCityPlots', 00H				; `string'
CONST	ENDS
;	COMDAT ??_C@_0BK@IEOBAACD@GetRecommendedWorkerPlots?$AA@
CONST	SEGMENT
??_C@_0BK@IEOBAACD@GetRecommendedWorkerPlots?$AA@ DB 'GetRecommendedWorke'
	DB	'rPlots', 00H				; `string'
CONST	ENDS
;	COMDAT ??_C@_0BA@NLGHGOFB@AddNotification?$AA@
CONST	SEGMENT
??_C@_0BA@NLGHGOFB@AddNotification?$AA@ DB 'AddNotification', 00H ; `string'
CONST	ENDS
;	COMDAT ??_C@_0BJ@HFINLBBC@GetNotificationDismissed?$AA@
CONST	SEGMENT
??_C@_0BJ@HFINLBBC@GetNotificationDismissed?$AA@ DB 'GetNotificationDismi'
	DB	'ssed', 00H					; `string'
CONST	ENDS
;	COMDAT ??_C@_0BE@EKFOPKPG@GetNotificationTurn?$AA@
CONST	SEGMENT
??_C@_0BE@EKFOPKPG@GetNotificationTurn?$AA@ DB 'GetNotificationTurn', 00H ; `string'
CONST	ENDS
;	COMDAT ??_C@_0BF@GCCNKKFJ@GetNotificationIndex?$AA@
CONST	SEGMENT
??_C@_0BF@GCCNKKFJ@GetNotificationIndex?$AA@ DB 'GetNotificationIndex', 00H ; `string'
CONST	ENDS
;	COMDAT ??_C@_0BK@ELPNEPCO@GetNotificationSummaryStr?$AA@
CONST	SEGMENT
??_C@_0BK@ELPNEPCO@GetNotificationSummaryStr?$AA@ DB 'GetNotificationSumm'
	DB	'aryStr', 00H				; `string'
CONST	ENDS
;	COMDAT ??_C@_0BD@LHEAKJLF@GetNotificationStr?$AA@
CONST	SEGMENT
??_C@_0BD@LHEAKJLF@GetNotificationStr?$AA@ DB 'GetNotificationStr', 00H ; `string'
CONST	ENDS
;	COMDAT ??_C@_0BE@GFFKJPPB@GetNumNotifications?$AA@
CONST	SEGMENT
??_C@_0BE@GFFKJPPB@GetNumNotifications?$AA@ DB 'GetNumNotifications', 00H ; `string'
CONST	ENDS
;	COMDAT ??_C@_0BA@NIECGIBE@DoForceDenounce?$AA@
CONST	SEGMENT
??_C@_0BA@NIECGIBE@DoForceDenounce?$AA@ DB 'DoForceDenounce', 00H ; `string'
CONST	ENDS
;	COMDAT ??_C@_0L@CDNNFMCG@DoForceDoF?$AA@
CONST	SEGMENT
??_C@_0L@CDNNFMCG@DoForceDoF?$AA@ DB 'DoForceDoF', 00H	; `string'
CONST	ENDS
;	COMDAT ??_C@_0BM@GOJPPKLC@GetNumTimesIntrigueSharedBy?$AA@
CONST	SEGMENT
??_C@_0BM@GOJPPKLC@GetNumTimesIntrigueSharedBy?$AA@ DB 'GetNumTimesIntrig'
	DB	'ueSharedBy', 00H				; `string'
CONST	ENDS
;	COMDAT ??_C@_0BE@ONPDCEII@GetNumTimesRobbedBy?$AA@
CONST	SEGMENT
??_C@_0BE@ONPDCEII@GetNumTimesRobbedBy?$AA@ DB 'GetNumTimesRobbedBy', 00H ; `string'
CONST	ENDS
;	COMDAT ??_C@_0CJ@HNAICDID@IsAngryAboutSidedWithTheirProtec@
CONST	SEGMENT
??_C@_0CJ@HNAICDID@IsAngryAboutSidedWithTheirProtec@ DB 'IsAngryAboutSide'
	DB	'dWithTheirProtectedMinor', 00H		; `string'
CONST	ENDS
;	COMDAT ??_C@_0CC@CKPNELPJ@IsAngryAboutProtectedMinorBullie@
CONST	SEGMENT
??_C@_0CC@CKPNELPJ@IsAngryAboutProtectedMinorBullie@ DB 'IsAngryAboutProt'
	DB	'ectedMinorBullied', 00H			; `string'
CONST	ENDS
;	COMDAT ??_C@_0CD@HDPPOBNJ@IsAngryAboutProtectedMinorAttack@
CONST	SEGMENT
??_C@_0CD@HDPPOBNJ@IsAngryAboutProtectedMinorAttack@ DB 'IsAngryAboutProt'
	DB	'ectedMinorAttacked', 00H			; `string'
CONST	ENDS
;	COMDAT ??_C@_0CB@CJDCIHKM@IsAngryAboutProtectedMinorKilled@
CONST	SEGMENT
??_C@_0CB@CJDCIHKM@IsAngryAboutProtectedMinorKilled@ DB 'IsAngryAboutProt'
	DB	'ectedMinorKilled', 00H			; `string'
CONST	ENDS
;	COMDAT ??_C@_0BE@JNJDNMPI@IsCapitalCapturedBy?$AA@
CONST	SEGMENT
??_C@_0BE@JNJDNMPI@IsCapitalCapturedBy?$AA@ DB 'IsCapitalCapturedBy', 00H ; `string'
CONST	ENDS
;	COMDAT ??_C@_09DPPFJHEB@IsNukedBy?$AA@
CONST	SEGMENT
??_C@_09DPPFJHEB@IsNukedBy?$AA@ DB 'IsNukedBy', 00H	; `string'
CONST	ENDS
;	COMDAT ??_C@_0BD@GACGPEPG@IsHasPaidTributeTo?$AA@
CONST	SEGMENT
??_C@_0BD@GACGPEPG@IsHasPaidTributeTo?$AA@ DB 'IsHasPaidTributeTo', 00H ; `string'
CONST	ENDS
;	COMDAT ??_C@_0BD@IPDLFGDH@IsGaveAssistanceTo?$AA@
CONST	SEGMENT
??_C@_0BD@IPDLFGDH@IsGaveAssistanceTo?$AA@ DB 'IsGaveAssistanceTo', 00H ; `string'
CONST	ENDS
;	COMDAT ??_C@_0BF@KCNKODGD@GetRecentAssistValue?$AA@
CONST	SEGMENT
??_C@_0BF@KCNKODGD@GetRecentAssistValue?$AA@ DB 'GetRecentAssistValue', 00H ; `string'
CONST	ENDS
;	COMDAT ??_C@_0BC@IFLMMGKH@GetCommonFoeValue?$AA@
CONST	SEGMENT
??_C@_0BC@IFLMMGKH@GetCommonFoeValue?$AA@ DB 'GetCommonFoeValue', 00H ; `string'
CONST	ENDS
;	COMDAT ??_C@_0BE@FPCOMDEJ@GetRecentTradeValue?$AA@
CONST	SEGMENT
??_C@_0BE@FPCOMDEJ@GetRecentTradeValue?$AA@ DB 'GetRecentTradeValue', 00H ; `string'
CONST	ENDS
;	COMDAT ??_C@_0BJ@DMOODLIP@IsPlayerRecklessExpander?$AA@
CONST	SEGMENT
??_C@_0BJ@DMOODLIP@IsPlayerRecklessExpander?$AA@ DB 'IsPlayerRecklessExpa'
	DB	'nder', 00H					; `string'
CONST	ENDS
;	COMDAT ??_C@_0BD@PMGAKDPI@IsDenouncingPlayer?$AA@
CONST	SEGMENT
??_C@_0BD@PMGAKDPI@IsDenouncingPlayer?$AA@ DB 'IsDenouncingPlayer', 00H ; `string'
CONST	ENDS
;	COMDAT ??_C@_0BK@FHGEGONP@GetDenouncedPlayerCounter?$AA@
CONST	SEGMENT
??_C@_0BK@FHGEGONP@GetDenouncedPlayerCounter?$AA@ DB 'GetDenouncedPlayerC'
	DB	'ounter', 00H				; `string'
CONST	ENDS
;	COMDAT ??_C@_0BC@HDCKECNO@IsDenouncedPlayer?$AA@
CONST	SEGMENT
??_C@_0BC@HDCKECNO@IsDenouncedPlayer?$AA@ DB 'IsDenouncedPlayer', 00H ; `string'
CONST	ENDS
;	COMDAT ??_C@_0CB@PGJLPOEE@IsHasPlayerBulliedProtectedMinor@
CONST	SEGMENT
??_C@_0CB@PGJLPOEE@IsHasPlayerBulliedProtectedMinor@ DB 'IsHasPlayerBulli'
	DB	'edProtectedMinor', 00H			; `string'
CONST	ENDS
;	COMDAT ??_C@_0CJ@DIAPIEBB@GetTurnsSincePlayerBulliedProtec@
CONST	SEGMENT
??_C@_0CJ@DIAPIEBB@GetTurnsSincePlayerBulliedProtec@ DB 'GetTurnsSincePla'
	DB	'yerBulliedProtectedMinor', 00H		; `string'
CONST	ENDS
;	COMDAT ??_C@_0CJ@OFLJGKFO@GetOtherPlayerNumProtectedMinors@
CONST	SEGMENT
??_C@_0CJ@OFLJGKFO@GetOtherPlayerNumProtectedMinors@ DB 'GetOtherPlayerNu'
	DB	'mProtectedMinorsAttacked', 00H		; `string'
CONST	ENDS
;	COMDAT ??_C@_0CH@NFMJJPAP@GetOtherPlayerNumProtectedMinors@
CONST	SEGMENT
??_C@_0CH@NFMJJPAP@GetOtherPlayerNumProtectedMinors@ DB 'GetOtherPlayerNu'
	DB	'mProtectedMinorsKilled', 00H		; `string'
CONST	ENDS
;	COMDAT ??_C@_0BN@HMMNHODE@IsPlayerBrokenCoopWarPromise?$AA@
CONST	SEGMENT
??_C@_0BN@HMMNHODE@IsPlayerBrokenCoopWarPromise?$AA@ DB 'IsPlayerBrokenCo'
	DB	'opWarPromise', 00H				; `string'
CONST	ENDS
;	COMDAT ??_C@_0CA@CMEPJCFP@IsPlayerIgnoredNoDiggingPromise?$AA@
CONST	SEGMENT
??_C@_0CA@CMEPJCFP@IsPlayerIgnoredNoDiggingPromise?$AA@ DB 'IsPlayerIgnor'
	DB	'edNoDiggingPromise', 00H			; `string'
CONST	ENDS
;	COMDAT ??_C@_0BP@LFBLAEPB@IsPlayerBrokenNoDiggingPromise?$AA@
CONST	SEGMENT
??_C@_0BP@LFBLAEPB@IsPlayerBrokenNoDiggingPromise?$AA@ DB 'IsPlayerBroken'
	DB	'NoDiggingPromise', 00H			; `string'
CONST	ENDS
;	COMDAT ??_C@_0CA@PNGBPAJN@IsPlayerIgnoredNoConvertPromise?$AA@
CONST	SEGMENT
??_C@_0CA@PNGBPAJN@IsPlayerIgnoredNoConvertPromise?$AA@ DB 'IsPlayerIgnor'
	DB	'edNoConvertPromise', 00H			; `string'
CONST	ENDS
;	COMDAT ??_C@_0BP@GEDFGGDD@IsPlayerBrokenNoConvertPromise?$AA@
CONST	SEGMENT
??_C@_0BP@GEDFGGDD@IsPlayerBrokenNoConvertPromise?$AA@ DB 'IsPlayerBroken'
	DB	'NoConvertPromise', 00H			; `string'
CONST	ENDS
;	COMDAT ??_C@_0BK@OGDKEICG@IsPlayerForgivenForSpying?$AA@
CONST	SEGMENT
??_C@_0BK@OGDKEICG@IsPlayerForgivenForSpying?$AA@ DB 'IsPlayerForgivenFor'
	DB	'Spying', 00H				; `string'
CONST	ENDS
;	COMDAT ??_C@_0BK@JEDEIMK@IsPlayerIgnoredSpyPromise?$AA@
CONST	SEGMENT
??_C@_0BK@JEDEIMK@IsPlayerIgnoredSpyPromise?$AA@ DB 'IsPlayerIgnoredSpyPr'
	DB	'omise', 00H					; `string'
CONST	ENDS
;	COMDAT ??_C@_0BJ@JNJJEOK@IsPlayerBrokenSpyPromise?$AA@
CONST	SEGMENT
??_C@_0BJ@JNJJEOK@IsPlayerBrokenSpyPromise?$AA@ DB 'IsPlayerBrokenSpyProm'
	DB	'ise', 00H					; `string'
CONST	ENDS
;	COMDAT ??_C@_0CF@KFJMCHGJ@IsPlayerIgnoredBullyCityStatePro@
CONST	SEGMENT
??_C@_0CF@KFJMCHGJ@IsPlayerIgnoredBullyCityStatePro@ DB 'IsPlayerIgnoredB'
	DB	'ullyCityStatePromise', 00H			; `string'
CONST	ENDS
;	COMDAT ??_C@_0CE@DJJGAPNJ@IsPlayerBrokenBullyCityStateProm@
CONST	SEGMENT
??_C@_0CE@DJJGAPNJ@IsPlayerBrokenBullyCityStateProm@ DB 'IsPlayerBrokenBu'
	DB	'llyCityStatePromise', 00H			; `string'
CONST	ENDS
;	COMDAT ??_C@_0CG@KKPEMKMO@IsPlayerIgnoredAttackCityStatePr@
CONST	SEGMENT
??_C@_0CG@KKPEMKMO@IsPlayerIgnoredAttackCityStatePr@ DB 'IsPlayerIgnoredA'
	DB	'ttackCityStatePromise', 00H			; `string'
CONST	ENDS
;	COMDAT ??_C@_0CF@GBAJHDGK@IsPlayerBrokenAttackCityStatePro@
CONST	SEGMENT
??_C@_0CF@GBAJHDGK@IsPlayerBrokenAttackCityStatePro@ DB 'IsPlayerBrokenAt'
	DB	'tackCityStatePromise', 00H			; `string'
CONST	ENDS
;	COMDAT ??_C@_0BN@GFDNDNLB@IsPlayerIgnoredBorderPromise?$AA@
CONST	SEGMENT
??_C@_0BN@GFDNDNLB@IsPlayerIgnoredBorderPromise?$AA@ DB 'IsPlayerIgnoredB'
	DB	'orderPromise', 00H				; `string'
CONST	ENDS
;	COMDAT ??_C@_0BM@GACHILBI@IsPlayerBrokenBorderPromise?$AA@
CONST	SEGMENT
??_C@_0BM@GACHILBI@IsPlayerBrokenBorderPromise?$AA@ DB 'IsPlayerBrokenBor'
	DB	'derPromise', 00H				; `string'
CONST	ENDS
;	COMDAT ??_C@_0CA@DMHDJLCE@IsPlayerIgnoredExpansionPromise?$AA@
CONST	SEGMENT
??_C@_0CA@DMHDJLCE@IsPlayerIgnoredExpansionPromise?$AA@ DB 'IsPlayerIgnor'
	DB	'edExpansionPromise', 00H			; `string'
CONST	ENDS
;	COMDAT ??_C@_0BP@KFCHANIK@IsPlayerBrokenExpansionPromise?$AA@
CONST	SEGMENT
??_C@_0BP@KFCHANIK@IsPlayerBrokenExpansionPromise?$AA@ DB 'IsPlayerBroken'
	DB	'ExpansionPromise', 00H			; `string'
CONST	ENDS
;	COMDAT ??_C@_0BP@EKOONDLN@IsPlayerIgnoredMilitaryPromise?$AA@
CONST	SEGMENT
??_C@_0BP@EKOONDLN@IsPlayerIgnoredMilitaryPromise?$AA@ DB 'IsPlayerIgnore'
	DB	'dMilitaryPromise', 00H			; `string'
CONST	ENDS
;	COMDAT ??_C@_0BO@BHCJMHLO@IsPlayerBrokenMilitaryPromise?$AA@
CONST	SEGMENT
??_C@_0BO@BHCJMHLO@IsPlayerBrokenMilitaryPromise?$AA@ DB 'IsPlayerBrokenM'
	DB	'ilitaryPromise', 00H			; `string'
CONST	ENDS
;	COMDAT ??_C@_0BO@FJLIBNNG@HasOthersReligionInMostCities?$AA@
CONST	SEGMENT
??_C@_0BO@FJLIBNNG@HasOthersReligionInMostCities?$AA@ DB 'HasOthersReligi'
	DB	'onInMostCities', 00H			; `string'
CONST	ENDS
;	COMDAT ??_C@_0BN@OAEOBIFG@GetNegativeArchaeologyPoints?$AA@
CONST	SEGMENT
??_C@_0BN@OAEOBIFG@GetNegativeArchaeologyPoints?$AA@ DB 'GetNegativeArcha'
	DB	'eologyPoints', 00H				; `string'
CONST	ENDS
;	COMDAT ??_C@_0CF@NJLECOGK@GetNegativeReligiousConversionPo@
CONST	SEGMENT
??_C@_0CF@NJLECOGK@GetNegativeReligiousConversionPo@ DB 'GetNegativeRelig'
	DB	'iousConversionPoints', 00H			; `string'
CONST	ENDS
;	COMDAT ??_C@_0BJ@MPACPFAF@GetNumTimesCultureBombed?$AA@
CONST	SEGMENT
??_C@_0BJ@MPACPFAF@GetNumTimesCultureBombed?$AA@ DB 'GetNumTimesCultureBo'
	DB	'mbed', 00H					; `string'
CONST	ENDS
;	COMDAT ??_C@_0BK@BIEGDACJ@GetNumLandmarksBuiltForMe?$AA@
CONST	SEGMENT
??_C@_0BK@BIEGDACJ@GetNumLandmarksBuiltForMe?$AA@ DB 'GetNumLandmarksBuil'
	DB	'tForMe', 00H				; `string'
CONST	ENDS
;	COMDAT ??_C@_0BM@GINOMEII@GetNumCiviliansReturnedToMe?$AA@
CONST	SEGMENT
??_C@_0BM@GINOMEII@GetNumCiviliansReturnedToMe?$AA@ DB 'GetNumCiviliansRe'
	DB	'turnedToMe', 00H				; `string'
CONST	ENDS
;	COMDAT ??_C@_0BB@IBMCHFPO@IsDemandEverMade?$AA@
CONST	SEGMENT
??_C@_0BB@IBMCHFPO@IsDemandEverMade?$AA@ DB 'IsDemandEverMade', 00H ; `string'
CONST	ENDS
;	COMDAT ??_C@_0CD@CHPAFEIM@IsPlayerStopSpyingRequestEverAsk@
CONST	SEGMENT
??_C@_0CD@CHPAFEIM@IsPlayerStopSpyingRequestEverAsk@ DB 'IsPlayerStopSpyi'
	DB	'ngRequestEverAsked', 00H			; `string'
CONST	ENDS
;	COMDAT ??_C@_0CB@GCCLPOAG@IsPlayerNoSettleRequestEverAsked@
CONST	SEGMENT
??_C@_0CB@GCCLPOAG@IsPlayerNoSettleRequestEverAsked@ DB 'IsPlayerNoSettle'
	DB	'RequestEverAsked', 00H			; `string'
CONST	ENDS
;	COMDAT ??_C@_0BD@JHLIJIIK@GetWarmongerThreat?$AA@
CONST	SEGMENT
??_C@_0BD@JHLIJIIK@GetWarmongerThreat?$AA@ DB 'GetWarmongerThreat', 00H ; `string'
CONST	ENDS
;	COMDAT ??_C@_0BI@GGMBMANL@GetMinorCivDisputeLevel?$AA@
CONST	SEGMENT
??_C@_0BI@GGMBMANL@GetMinorCivDisputeLevel?$AA@ DB 'GetMinorCivDisputeLev'
	DB	'el', 00H					; `string'
CONST	ENDS
;	COMDAT ??_C@_0BG@MFADFIMK@GetWonderDisputeLevel?$AA@
CONST	SEGMENT
??_C@_0BG@MFADFIMK@GetWonderDisputeLevel?$AA@ DB 'GetWonderDisputeLevel', 00H ; `string'
CONST	ENDS
;	COMDAT ??_C@_0BH@JMIFEEOF@GetVictoryDisputeLevel?$AA@
CONST	SEGMENT
??_C@_0BH@JMIFEEOF@GetVictoryDisputeLevel?$AA@ DB 'GetVictoryDisputeLevel'
	DB	00H						; `string'
CONST	ENDS
;	COMDAT ??_C@_0BE@CELFPMFO@GetLandDisputeLevel?$AA@
CONST	SEGMENT
??_C@_0BE@CELFPMFO@GetLandDisputeLevel?$AA@ DB 'GetLandDisputeLevel', 00H ; `string'
CONST	ENDS
;	COMDAT ??_C@_0BB@MIPPFJMJ@GetNumWarsFought?$AA@
CONST	SEGMENT
??_C@_0BB@MIPPFJMJ@GetNumWarsFought?$AA@ DB 'GetNumWarsFought', 00H ; `string'
CONST	ENDS
;	COMDAT ??_C@_0BI@ONIAOIGJ@GetCoopWarAcceptedState?$AA@
CONST	SEGMENT
??_C@_0BI@ONIAOIGJ@GetCoopWarAcceptedState?$AA@ DB 'GetCoopWarAcceptedSta'
	DB	'te', 00H					; `string'
CONST	ENDS
;	COMDAT ??_C@_0BO@EBKDJHNI@GetWeDeclaredWarOnFriendCount?$AA@
CONST	SEGMENT
??_C@_0BO@EBKDJHNI@GetWeDeclaredWarOnFriendCount?$AA@ DB 'GetWeDeclaredWa'
	DB	'rOnFriendCount', 00H			; `string'
CONST	ENDS
;	COMDAT ??_C@_0BI@MGHNFKKL@IsFriendDeclaredWarOnUs?$AA@
CONST	SEGMENT
??_C@_0BI@MGHNFKKL@IsFriendDeclaredWarOnUs?$AA@ DB 'IsFriendDeclaredWarOn'
	DB	'Us', 00H					; `string'
CONST	ENDS
;	COMDAT ??_C@_0BK@IDKHACJI@GetWeDenouncedFriendCount?$AA@
CONST	SEGMENT
??_C@_0BK@IDKHACJI@GetWeDenouncedFriendCount?$AA@ DB 'GetWeDenouncedFrien'
	DB	'dCount', 00H				; `string'
CONST	ENDS
;	COMDAT ??_C@_0BE@JKLIMJPC@IsFriendDenouncedUs?$AA@
CONST	SEGMENT
??_C@_0BE@JKLIMJPC@IsFriendDenouncedUs?$AA@ DB 'IsFriendDenouncedUs', 00H ; `string'
CONST	ENDS
;	COMDAT ??_C@_0BJ@JPDNMDCJ@GetNumFriendsDenouncedBy?$AA@
CONST	SEGMENT
??_C@_0BJ@JPDNMDCJ@GetNumFriendsDenouncedBy?$AA@ DB 'GetNumFriendsDenounc'
	DB	'edBy', 00H					; `string'
CONST	ENDS
;	COMDAT ??_C@_0BG@HIMKCHLJ@IsUntrustworthyFriend?$AA@
CONST	SEGMENT
??_C@_0BG@HIMKCHLJ@IsUntrustworthyFriend?$AA@ DB 'IsUntrustworthyFriend', 00H ; `string'
CONST	ENDS
;	COMDAT ??_C@_0BH@DPEOLAFH@IsPlayerDenouncedEnemy?$AA@
CONST	SEGMENT
??_C@_0BH@DPEOLAFH@IsPlayerDenouncedEnemy?$AA@ DB 'IsPlayerDenouncedEnemy'
	DB	00H						; `string'
CONST	ENDS
;	COMDAT ??_C@_0BI@KIHAIMCC@IsPlayerDenouncedFriend?$AA@
CONST	SEGMENT
??_C@_0BI@KIHAIMCC@IsPlayerDenouncedFriend?$AA@ DB 'IsPlayerDenouncedFrie'
	DB	'nd', 00H					; `string'
CONST	ENDS
;	COMDAT ??_C@_0BI@CEGOAGDE@IsPlayerDoFwithAnyEnemy?$AA@
CONST	SEGMENT
??_C@_0BI@CEGOAGDE@IsPlayerDoFwithAnyEnemy?$AA@ DB 'IsPlayerDoFwithAnyEne'
	DB	'my', 00H					; `string'
CONST	ENDS
;	COMDAT ??_C@_0BJ@HMNAJMHG@IsPlayerDoFwithAnyFriend?$AA@
CONST	SEGMENT
??_C@_0BJ@HMNAJMHG@IsPlayerDoFwithAnyFriend?$AA@ DB 'IsPlayerDoFwithAnyFr'
	DB	'iend', 00H					; `string'
CONST	ENDS
;	COMDAT ??_C@_0O@MFBMMOPK@GetDoFCounter?$AA@
CONST	SEGMENT
??_C@_0O@MFBMMOPK@GetDoFCounter?$AA@ DB 'GetDoFCounter', 00H ; `string'
CONST	ENDS
;	COMDAT ??_C@_05CJMGDEBD@IsDoF?$AA@
CONST	SEGMENT
??_C@_05CJMGDEBD@IsDoF?$AA@ DB 'IsDoF', 00H		; `string'
CONST	ENDS
;	COMDAT ??_C@_0BE@LAJMIPAI@IsDoFMessageTooSoon?$AA@
CONST	SEGMENT
??_C@_0BE@LAJMIPAI@IsDoFMessageTooSoon?$AA@ DB 'IsDoFMessageTooSoon', 00H ; `string'
CONST	ENDS
;	COMDAT ??_C@_0BF@FNMHBNF@IsAskedToStopDigging?$AA@
CONST	SEGMENT
??_C@_0BF@FNMHBNF@IsAskedToStopDigging?$AA@ DB 'IsAskedToStopDigging', 00H ; `string'
CONST	ENDS
;	COMDAT ??_C@_0BI@LALLCFLJ@IsAskedToStopConverting?$AA@
CONST	SEGMENT
??_C@_0BI@LALLCFLJ@IsAskedToStopConverting?$AA@ DB 'IsAskedToStopConverti'
	DB	'ng', 00H					; `string'
CONST	ENDS
;	COMDAT ??_C@_0BL@BBLJBNNC@IsStopSpyingMessageTooSoon?$AA@
CONST	SEGMENT
??_C@_0BL@BBLJBNNC@IsStopSpyingMessageTooSoon?$AA@ DB 'IsStopSpyingMessag'
	DB	'eTooSoon', 00H				; `string'
CONST	ENDS
;	COMDAT ??_C@_0BL@MHKHJIDJ@IsDontSettleMessageTooSoon?$AA@
CONST	SEGMENT
??_C@_0BL@MHKHJIDJ@IsDontSettleMessageTooSoon?$AA@ DB 'IsDontSettleMessag'
	DB	'eTooSoon', 00H				; `string'
CONST	ENDS
;	COMDAT ??_C@_0BC@HEIJGBFF@IsProtectingMinor?$AA@
CONST	SEGMENT
??_C@_0BC@HEIJGBFF@IsProtectingMinor?$AA@ DB 'IsProtectingMinor', 00H ; `string'
CONST	ENDS
;	COMDAT ??_C@_0BM@LHDCKAOD@IsWillAcceptPeaceWithPlayer?$AA@
CONST	SEGMENT
??_C@_0BM@LHDCKAOD@IsWillAcceptPeaceWithPlayer?$AA@ DB 'IsWillAcceptPeace'
	DB	'WithPlayer', 00H				; `string'
CONST	ENDS
;	COMDAT ??_C@_0BK@GFGFENAL@GetApproachTowardsUsGuess?$AA@
CONST	SEGMENT
??_C@_0BK@GFGFENAL@GetApproachTowardsUsGuess?$AA@ DB 'GetApproachTowardsU'
	DB	'sGuess', 00H				; `string'
CONST	ENDS
;	COMDAT ??_C@_0BE@GJBEAAFB@GetMajorCivApproach?$AA@
CONST	SEGMENT
??_C@_0BE@GJBEAAFB@GetMajorCivApproach?$AA@ DB 'GetMajorCivApproach', 00H ; `string'
CONST	ENDS
;	COMDAT ??_C@_0BE@FFBOAELH@DoTradeScreenClosed?$AA@
CONST	SEGMENT
??_C@_0BE@FFBOAELH@DoTradeScreenClosed?$AA@ DB 'DoTradeScreenClosed', 00H ; `string'
CONST	ENDS
;	COMDAT ??_C@_0BE@OGJDLMA@DoTradeScreenOpened?$AA@
CONST	SEGMENT
??_C@_0BE@OGJDLMA@DoTradeScreenOpened?$AA@ DB 'DoTradeScreenOpened', 00H ; `string'
CONST	ENDS
;	COMDAT ??_C@_0BG@ONJJPLPE@DoBeginDiploWithHuman?$AA@
CONST	SEGMENT
??_C@_0BG@ONJJPLPE@DoBeginDiploWithHuman?$AA@ DB 'DoBeginDiploWithHuman', 00H ; `string'
CONST	ENDS
;	COMDAT ??_C@_0O@IGAPHJLG@GetPlotDanger?$AA@
CONST	SEGMENT
??_C@_0O@IGAPHJLG@GetPlotDanger?$AA@ DB 'GetPlotDanger', 00H ; `string'
CONST	ENDS
;	COMDAT ??_C@_0P@CLDNCOML@GetBuyPlotCost?$AA@
CONST	SEGMENT
??_C@_0P@CLDNCOML@GetBuyPlotCost?$AA@ DB 'GetBuyPlotCost', 00H ; `string'
CONST	ENDS
;	COMDAT ??_C@_0BF@KIAMDGLE@ChangeNumPlotsBought?$AA@
CONST	SEGMENT
??_C@_0BF@KIAMDGLE@ChangeNumPlotsBought?$AA@ DB 'ChangeNumPlotsBought', 00H ; `string'
CONST	ENDS
;	COMDAT ??_C@_0BC@BDGANLKA@SetNumPlotsBought?$AA@
CONST	SEGMENT
??_C@_0BC@BDGANLKA@SetNumPlotsBought?$AA@ DB 'SetNumPlotsBought', 00H ; `string'
CONST	ENDS
;	COMDAT ??_C@_0BC@DGGLFALO@GetNumPlotsBought?$AA@
CONST	SEGMENT
??_C@_0BC@DGGLFALO@GetNumPlotsBought?$AA@ DB 'GetNumPlotsBought', 00H ; `string'
CONST	ENDS
;	COMDAT ??_C@_0M@GCJCINGE@GetNumPlots?$AA@
CONST	SEGMENT
??_C@_0M@GCJCINGE@GetNumPlots?$AA@ DB 'GetNumPlots', 00H ; `string'
CONST	ENDS
;	COMDAT ??_C@_0O@PGOPIEFE@SetScriptData?$AA@
CONST	SEGMENT
??_C@_0O@PGOPIEFE@SetScriptData?$AA@ DB 'SetScriptData', 00H ; `string'
CONST	ENDS
;	COMDAT ??_C@_0O@IJPBDHCD@GetScriptData?$AA@
CONST	SEGMENT
??_C@_0O@IJPBDHCD@GetScriptData?$AA@ DB 'GetScriptData', 00H ; `string'
CONST	ENDS
;	COMDAT ??_C@_0BD@CGMPIPHN@SetReplayDataValue?$AA@
CONST	SEGMENT
??_C@_0BD@CGMPIPHN@SetReplayDataValue?$AA@ DB 'SetReplayDataValue', 00H ; `string'
CONST	ENDS
;	COMDAT ??_C@_0O@FOEADKOC@GetReplayData?$AA@
CONST	SEGMENT
??_C@_0O@FOEADKOC@GetReplayData?$AA@ DB 'GetReplayData', 00H ; `string'
CONST	ENDS
;	COMDAT ??_C@_0BA@IAAIKKNG@GetPowerHistory?$AA@
CONST	SEGMENT
??_C@_0BA@IAAIKKNG@GetPowerHistory?$AA@ DB 'GetPowerHistory', 00H ; `string'
CONST	ENDS
;	COMDAT ??_C@_0BG@BFBBELOF@GetAgricultureHistory?$AA@
CONST	SEGMENT
??_C@_0BG@BFBBELOF@GetAgricultureHistory?$AA@ DB 'GetAgricultureHistory', 00H ; `string'
CONST	ENDS
;	COMDAT ??_C@_0BD@EEECFJGL@GetIndustryHistory?$AA@
CONST	SEGMENT
??_C@_0BD@EEECFJGL@GetIndustryHistory?$AA@ DB 'GetIndustryHistory', 00H ; `string'
CONST	ENDS
;	COMDAT ??_C@_0BC@LKDBDJLJ@GetEconomyHistory?$AA@
CONST	SEGMENT
??_C@_0BC@LKDBDJLJ@GetEconomyHistory?$AA@ DB 'GetEconomyHistory', 00H ; `string'
CONST	ENDS
;	COMDAT ??_C@_0BA@CBCOBLDO@GetScoreHistory?$AA@
CONST	SEGMENT
??_C@_0BA@CBCOBLDO@GetScoreHistory?$AA@ DB 'GetScoreHistory', 00H ; `string'
CONST	ENDS
;	COMDAT ??_C@_0O@FLOBFJBH@AI_foundValue?$AA@
CONST	SEGMENT
??_C@_0O@FLOBFJBH@AI_foundValue?$AA@ DB 'AI_foundValue', 00H ; `string'
CONST	ENDS
;	COMDAT ??_C@_0BF@LPEPOKPK@AI_updateFoundValues?$AA@
CONST	SEGMENT
??_C@_0BF@LPEPOKPK@AI_updateFoundValues?$AA@ DB 'AI_updateFoundValues', 00H ; `string'
CONST	ENDS
;	COMDAT ??_C@_0M@LCJDFAFH@GetUnitByID?$AA@
CONST	SEGMENT
??_C@_0M@LCJDFAFH@GetUnitByID?$AA@ DB 'GetUnitByID', 00H ; `string'
CONST	ENDS
;	COMDAT ??_C@_0M@GNPEBAGL@GetNumUnits?$AA@
CONST	SEGMENT
??_C@_0M@GNPEBAGL@GetNumUnits?$AA@ DB 'GetNumUnits', 00H ; `string'
CONST	ENDS
;	COMDAT ??_C@_05CFLIFMAE@Units?$AA@
CONST	SEGMENT
??_C@_05CFLIFMAE@Units?$AA@ DB 'Units', 00H		; `string'
CONST	ENDS
;	COMDAT ??_C@_0M@NNBLIMGF@GetCityByID?$AA@
CONST	SEGMENT
??_C@_0M@NNBLIMGF@GetCityByID?$AA@ DB 'GetCityByID', 00H ; `string'
CONST	ENDS
;	COMDAT ??_C@_0N@OFLMPMAK@GetNumCities?$AA@
CONST	SEGMENT
??_C@_0N@OFLMPMAK@GetNumCities?$AA@ DB 'GetNumCities', 00H ; `string'
CONST	ENDS
;	COMDAT ??_C@_06DIPJMMIP@Cities?$AA@
CONST	SEGMENT
??_C@_06DIPJMMIP@Cities?$AA@ DB 'Cities', 00H		; `string'
CONST	ENDS
;	COMDAT ??_C@_0M@DOJNOFML@GetCityName?$AA@
CONST	SEGMENT
??_C@_0M@DOJNOFML@GetCityName?$AA@ DB 'GetCityName', 00H ; `string'
CONST	ENDS
;	COMDAT ??_C@_0BA@OEJOHFNM@GetNumCityNames?$AA@
CONST	SEGMENT
??_C@_0BA@OEJOHFNM@GetNumCityNames?$AA@ DB 'GetNumCityNames', 00H ; `string'
CONST	ENDS
;	COMDAT ??_C@_0M@DHIABOAD@AddCityName?$AA@
CONST	SEGMENT
??_C@_0M@DHIABOAD@AddCityName?$AA@ DB 'AddCityName', 00H ; `string'
CONST	ENDS
;	COMDAT ??_C@_0BH@EEPCMHMD@GetLengthResearchQueue?$AA@
CONST	SEGMENT
??_C@_0BH@EEPCMHMD@GetLengthResearchQueue?$AA@ DB 'GetLengthResearchQueue'
	DB	00H						; `string'
CONST	ENDS
;	COMDAT ??_C@_0M@EOPDLFLG@PopResearch?$AA@
CONST	SEGMENT
??_C@_0M@EOPDLFLG@PopResearch?$AA@ DB 'PopResearch', 00H ; `string'
CONST	ENDS
;	COMDAT ??_C@_0N@CDNPDJNC@PushResearch?$AA@
CONST	SEGMENT
??_C@_0N@CDNPDJNC@PushResearch?$AA@ DB 'PushResearch', 00H ; `string'
CONST	ENDS
;	COMDAT ??_C@_0BD@JPCIIJKD@ClearResearchQueue?$AA@
CONST	SEGMENT
??_C@_0BD@JPCIIJKD@ClearResearchQueue?$AA@ DB 'ClearResearchQueue', 00H ; `string'
CONST	ENDS
;	COMDAT ??_C@_0BB@OKACGELF@GetQueuePosition?$AA@
CONST	SEGMENT
??_C@_0BB@OKACGELF@GetQueuePosition?$AA@ DB 'GetQueuePosition', 00H ; `string'
CONST	ENDS
;	COMDAT ??_C@_0P@HAIAJPIL@FindPathLength?$AA@
CONST	SEGMENT
??_C@_0P@HAIAJPIL@FindPathLength?$AA@ DB 'FindPathLength', 00H ; `string'
CONST	ENDS
;	COMDAT ??_C@_0BI@GMNKFHNO@GetSpecialistExtraYield?$AA@
CONST	SEGMENT
??_C@_0BI@GMNKFHNO@GetSpecialistExtraYield?$AA@ DB 'GetSpecialistExtraYie'
	DB	'ld', 00H					; `string'
CONST	ENDS
;	COMDAT ??_C@_0BJ@DPLFOOGM@SetNavalCombatExperience?$AA@
CONST	SEGMENT
??_C@_0BJ@DPLFOOGM@SetNavalCombatExperience?$AA@ DB 'SetNavalCombatExperi'
	DB	'ence', 00H					; `string'
CONST	ENDS
;	COMDAT ??_C@_0BM@JAEPANDK@ChangeNavalCombatExperience?$AA@
CONST	SEGMENT
??_C@_0BM@JAEPANDK@ChangeNavalCombatExperience?$AA@ DB 'ChangeNavalCombat'
	DB	'Experience', 00H				; `string'
CONST	ENDS
;	COMDAT ??_C@_0BJ@JMBPIDPJ@GetNavalCombatExperience?$AA@
CONST	SEGMENT
??_C@_0BJ@JMBPIDPJ@GetNavalCombatExperience?$AA@ DB 'GetNavalCombatExperi'
	DB	'ence', 00H					; `string'
CONST	ENDS
;	COMDAT ??_C@_0BM@ECGBFEGH@GetLifetimeCombatExperience?$AA@
CONST	SEGMENT
??_C@_0BM@ECGBFEGH@GetLifetimeCombatExperience?$AA@ DB 'GetLifetimeCombat'
	DB	'Experience', 00H				; `string'
CONST	ENDS
;	COMDAT ??_C@_0BE@CFLDHHHI@SetCombatExperience?$AA@
CONST	SEGMENT
??_C@_0BE@CFLDHHHI@SetCombatExperience?$AA@ DB 'SetCombatExperience', 00H ; `string'
CONST	ENDS
;	COMDAT ??_C@_0BH@NFKGIFIE@ChangeCombatExperience?$AA@
CONST	SEGMENT
??_C@_0BH@NFKGIFIE@ChangeCombatExperience?$AA@ DB 'ChangeCombatExperience'
	DB	00H						; `string'
CONST	ENDS
;	COMDAT ??_C@_0BE@ILJIDHAE@GetCombatExperience?$AA@
CONST	SEGMENT
??_C@_0BE@ILJIDHAE@GetCombatExperience?$AA@ DB 'GetCombatExperience', 00H ; `string'
CONST	ENDS
;	COMDAT ??_C@_0BD@JICENABA@SetResearchingTech?$AA@
CONST	SEGMENT
??_C@_0BD@JICENABA@SetResearchingTech?$AA@ DB 'SetResearchingTech', 00H ; `string'
CONST	ENDS
;	COMDAT ??_C@_0BC@LJAGDKMI@IsResearchingTech?$AA@
CONST	SEGMENT
??_C@_0BC@LJAGDKMI@IsResearchingTech?$AA@ DB 'IsResearchingTech', 00H ; `string'
CONST	ENDS
;	COMDAT ??_C@_0BB@DIBNJMML@GetHurryGoldCost?$AA@
CONST	SEGMENT
??_C@_0BB@DIBNJMML@GetHurryGoldCost?$AA@ DB 'GetHurryGoldCost', 00H ; `string'
CONST	ENDS
;	COMDAT ??_C@_0L@LOFDAOJF@IsCanHurry?$AA@
CONST	SEGMENT
??_C@_0L@LOFDAOJF@IsCanHurry?$AA@ DB 'IsCanHurry', 00H	; `string'
CONST	ENDS
;	COMDAT ??_C@_0BD@HNIJFNOA@IsHasAccessToHurry?$AA@
CONST	SEGMENT
??_C@_0BD@HNIJFNOA@IsHasAccessToHurry?$AA@ DB 'IsHasAccessToHurry', 00H ; `string'
CONST	ENDS
;	COMDAT ??_C@_0O@MMMOMENH@GetHurryCount?$AA@
CONST	SEGMENT
??_C@_0O@MMMOMENH@GetHurryCount?$AA@ DB 'GetHurryCount', 00H ; `string'
CONST	ENDS
;	COMDAT ??_C@_0CA@NDNHGCMM@GetBuildingClassCountPlusMaking?$AA@
CONST	SEGMENT
??_C@_0CA@NDNHGCMM@GetBuildingClassCountPlusMaking?$AA@ DB 'GetBuildingCl'
	DB	'assCountPlusMaking', 00H			; `string'
CONST	ENDS
;	COMDAT ??_C@_0BH@IOFHKIED@GetBuildingClassMaking?$AA@
CONST	SEGMENT
??_C@_0BH@IOFHKIED@GetBuildingClassMaking?$AA@ DB 'GetBuildingClassMaking'
	DB	00H						; `string'
CONST	ENDS
;	COMDAT ??_C@_0BI@BIOFBBJB@IsBuildingClassMaxedOut?$AA@
CONST	SEGMENT
??_C@_0BI@BIOFBBJB@IsBuildingClassMaxedOut?$AA@ DB 'IsBuildingClassMaxedO'
	DB	'ut', 00H					; `string'
CONST	ENDS
;	COMDAT ??_C@_0BG@LKAPFNIF@GetBuildingClassCount?$AA@
CONST	SEGMENT
??_C@_0BG@LKAPFNIF@GetBuildingClassCount?$AA@ DB 'GetBuildingClassCount', 00H ; `string'
CONST	ENDS
;	COMDAT ??_C@_0BM@JKNGMGFK@GetUnitClassCountPlusMaking?$AA@
CONST	SEGMENT
??_C@_0BM@JKNGMGFK@GetUnitClassCountPlusMaking?$AA@ DB 'GetUnitClassCount'
	DB	'PlusMaking', 00H				; `string'
CONST	ENDS
;	COMDAT ??_C@_0BD@JNGNHFGM@GetUnitClassMaking?$AA@
CONST	SEGMENT
??_C@_0BD@JNGNHFGM@GetUnitClassMaking?$AA@ DB 'GetUnitClassMaking', 00H ; `string'
CONST	ENDS
;	COMDAT ??_C@_0BE@KOKPIAGA@IsUnitClassMaxedOut?$AA@
CONST	SEGMENT
??_C@_0BE@KOKPIAGA@IsUnitClassMaxedOut?$AA@ DB 'IsUnitClassMaxedOut', 00H ; `string'
CONST	ENDS
;	COMDAT ??_C@_0BC@OMEKCEJN@GetUnitClassCount?$AA@
CONST	SEGMENT
??_C@_0BC@OMEKCEJN@GetUnitClassCount?$AA@ DB 'GetUnitClassCount', 00H ; `string'
CONST	ENDS
;	COMDAT ??_C@_0P@MDJBKIGG@IsBuildingFree?$AA@
CONST	SEGMENT
??_C@_0P@MDJBKIGG@IsBuildingFree?$AA@ DB 'IsBuildingFree', 00H ; `string'
CONST	ENDS
;	COMDAT ??_C@_0BE@FJHPDLDL@GetImprovementCount?$AA@
CONST	SEGMENT
??_C@_0BE@FJHPDLDL@GetImprovementCount?$AA@ DB 'GetImprovementCount', 00H ; `string'
CONST	ENDS
;	COMDAT ??_C@_0BG@BLEODKND@GetResourceFromMinors?$AA@
CONST	SEGMENT
??_C@_0BG@BLEODKND@GetResourceFromMinors?$AA@ DB 'GetResourceFromMinors', 00H ; `string'
CONST	ENDS
;	COMDAT ??_C@_0BC@FPKGMKKM@GetResourceImport?$AA@
CONST	SEGMENT
??_C@_0BC@FPKGMKKM@GetResourceImport?$AA@ DB 'GetResourceImport', 00H ; `string'
CONST	ENDS
;	COMDAT ??_C@_0BC@MLBNDDPA@GetResourceExport?$AA@
CONST	SEGMENT
??_C@_0BC@MLBNDDPA@GetResourceExport?$AA@ DB 'GetResourceExport', 00H ; `string'
CONST	ENDS
;	COMDAT ??_C@_0BI@CAJMJPHL@GetNumResourceAvailable?$AA@
CONST	SEGMENT
??_C@_0BI@CAJMJPHL@GetNumResourceAvailable?$AA@ DB 'GetNumResourceAvailab'
	DB	'le', 00H					; `string'
CONST	ENDS
;	COMDAT ??_C@_0BH@OOAGOCF@ChangeNumResourceTotal?$AA@
CONST	SEGMENT
??_C@_0BH@OOAGOCF@ChangeNumResourceTotal?$AA@ DB 'ChangeNumResourceTotal', 00H ; `string'
CONST	ENDS
;	COMDAT ??_C@_0BE@FANONMKF@GetNumResourceTotal?$AA@
CONST	SEGMENT
??_C@_0BE@FANONMKF@GetNumResourceTotal?$AA@ DB 'GetNumResourceTotal', 00H ; `string'
CONST	ENDS
;	COMDAT ??_C@_0BD@NIJFEIJG@GetNumResourceUsed?$AA@
CONST	SEGMENT
??_C@_0BD@NIJFEIJG@GetNumResourceUsed?$AA@ DB 'GetNumResourceUsed', 00H ; `string'
CONST	ENDS
;	COMDAT ??_C@_0M@IJCOINPN@SetPlayable?$AA@
CONST	SEGMENT
??_C@_0M@IJCOINPN@SetPlayable?$AA@ DB 'SetPlayable', 00H ; `string'
CONST	ENDS
;	COMDAT ??_C@_0L@LMMDHEOL@IsPlayable?$AA@
CONST	SEGMENT
??_C@_0L@LMMDHEOL@IsPlayable?$AA@ DB 'IsPlayable', 00H	; `string'
CONST	ENDS
;	COMDAT ??_C@_09DLFAMNKA@SetOption?$AA@
CONST	SEGMENT
??_C@_09DLFAMNKA@SetOption?$AA@ DB 'SetOption', 00H	; `string'
CONST	ENDS
;	COMDAT ??_C@_08CPAPEJN@IsOption?$AA@
CONST	SEGMENT
??_C@_08CPAPEJN@IsOption?$AA@ DB 'IsOption', 00H	; `string'
CONST	ENDS
;	COMDAT ??_C@_0BJ@LPIABFHI@GetIncomingUnitCountdown?$AA@
CONST	SEGMENT
??_C@_0BJ@LPIABFHI@GetIncomingUnitCountdown?$AA@ DB 'GetIncomingUnitCount'
	DB	'down', 00H					; `string'
CONST	ENDS
;	COMDAT ??_C@_0BE@DGDCHHAP@GetIncomingUnitType?$AA@
CONST	SEGMENT
??_C@_0BE@DGDCHHAP@GetIncomingUnitType?$AA@ DB 'GetIncomingUnitType', 00H ; `string'
CONST	ENDS
;	COMDAT ??_C@_0BK@INFADDEM@DoUpdateProximityToPlayer?$AA@
CONST	SEGMENT
??_C@_0BK@INFADDEM@DoUpdateProximityToPlayer?$AA@ DB 'DoUpdateProximityTo'
	DB	'Player', 00H				; `string'
CONST	ENDS
;	COMDAT ??_C@_0BF@ONODMHAN@GetProximityToPlayer?$AA@
CONST	SEGMENT
??_C@_0BF@ONODMHAN@GetProximityToPlayer?$AA@ DB 'GetProximityToPlayer', 00H ; `string'
CONST	ENDS
;	COMDAT ??_C@_0CE@MDGAFNCA@GetScienceFromBudgetDeficitTimes@
CONST	SEGMENT
??_C@_0CE@MDGAFNCA@GetScienceFromBudgetDeficitTimes@ DB 'GetScienceFromBu'
	DB	'dgetDeficitTimes100', 00H			; `string'
CONST	ENDS
;	COMDAT ??_C@_0CJ@KCEGADFP@GetScienceFromResearchAgreements@
CONST	SEGMENT
??_C@_0CJ@KCEGADFP@GetScienceFromResearchAgreements@ DB 'GetScienceFromRe'
	DB	'searchAgreementsTimes100', 00H		; `string'
CONST	ENDS
;	COMDAT ??_C@_0CH@GKJHBADA@GetMinorFriendshipGainBullyGoldS@
CONST	SEGMENT
??_C@_0CH@GKJHBADA@GetMinorFriendshipGainBullyGoldS@ DB 'GetMinorFriendsh'
	DB	'ipGainBullyGoldSuccess', 00H		; `string'
CONST	ENDS
;	COMDAT ??_C@_0BL@PMENDKHK@GetScienceFromGoldTimes100?$AA@
CONST	SEGMENT
??_C@_0BL@PMENDKHK@GetScienceFromGoldTimes100?$AA@ DB 'GetScienceFromGold'
	DB	'Times100', 00H				; `string'
CONST	ENDS
;	COMDAT ??_C@_0CA@LOIBLNOM@GetScienceFromHappinessTimes100?$AA@
CONST	SEGMENT
??_C@_0CA@LOIBLNOM@GetScienceFromHappinessTimes100?$AA@ DB 'GetScienceFro'
	DB	'mHappinessTimes100', 00H			; `string'
CONST	ENDS
;	COMDAT ??_C@_0CD@FKFPBOPI@GetScienceFromOtherPlayersTimes1@
CONST	SEGMENT
??_C@_0CD@FKFPBOPI@GetScienceFromOtherPlayersTimes1@ DB 'GetScienceFromOt'
	DB	'herPlayersTimes100', 00H			; `string'
CONST	ENDS
;	COMDAT ??_C@_0BN@OBKADDNJ@GetScienceFromCitiesTimes100?$AA@
CONST	SEGMENT
??_C@_0BN@OBKADDNJ@GetScienceFromCitiesTimes100?$AA@ DB 'GetScienceFromCi'
	DB	'tiesTimes100', 00H				; `string'
CONST	ENDS
;	COMDAT ??_C@_0BD@NFNIBFFF@GetScienceTimes100?$AA@
CONST	SEGMENT
??_C@_0BD@NFNIBFFF@GetScienceTimes100?$AA@ DB 'GetScienceTimes100', 00H ; `string'
CONST	ENDS
;	COMDAT ??_C@_0L@GHLGHBML@GetScience?$AA@
CONST	SEGMENT
??_C@_0L@GHLGHBML@GetScience?$AA@ DB 'GetScience', 00H	; `string'
CONST	ENDS
;	COMDAT ??_C@_0BH@CEIHEJPD@GetExtraYieldThreshold?$AA@
CONST	SEGMENT
??_C@_0BH@CEIHEJPD@GetExtraYieldThreshold?$AA@ DB 'GetExtraYieldThreshold'
	DB	00H						; `string'
CONST	ENDS
;	COMDAT ??_C@_0BM@HDDIOHJE@GetCapitalYieldRateModifier?$AA@
CONST	SEGMENT
??_C@_0BM@HDDIOHJE@GetCapitalYieldRateModifier?$AA@ DB 'GetCapitalYieldRa'
	DB	'teModifier', 00H				; `string'
CONST	ENDS
;	COMDAT ??_C@_0BF@MPEACCAJ@GetYieldRateModifier?$AA@
CONST	SEGMENT
??_C@_0BF@MPEACCAJ@GetYieldRateModifier?$AA@ DB 'GetYieldRateModifier', 00H ; `string'
CONST	ENDS
;	COMDAT ??_C@_0BA@DGPKBBEO@GetSeaPlotYield?$AA@
CONST	SEGMENT
??_C@_0BA@DGPKBBEO@GetSeaPlotYield?$AA@ DB 'GetSeaPlotYield', 00H ; `string'
CONST	ENDS
;	COMDAT ??_C@_0BA@OFENOHDO@GetPlayerColors?$AA@
CONST	SEGMENT
??_C@_0BA@OFENOHDO@GetPlayerColors?$AA@ DB 'GetPlayerColors', 00H ; `string'
CONST	ENDS
;	COMDAT ??_C@_0P@FBFFBDEL@GetPlayerColor?$AA@
CONST	SEGMENT
??_C@_0P@FBFFBDEL@GetPlayerColor?$AA@ DB 'GetPlayerColor', 00H ; `string'
CONST	ENDS
;	COMDAT ??_C@_07KIJFBNDA@GetTeam?$AA@
CONST	SEGMENT
??_C@_07KIJFBNDA@GetTeam?$AA@ DB 'GetTeam', 00H		; `string'
CONST	ENDS
;	COMDAT ??_C@_0O@DBDBEBPD@GetCurrentEra?$AA@
CONST	SEGMENT
??_C@_0O@DBDBEBPD@GetCurrentEra?$AA@ DB 'GetCurrentEra', 00H ; `string'
CONST	ENDS
;	COMDAT ??_C@_0BD@MJNOECAJ@SetPersonalityType?$AA@
CONST	SEGMENT
??_C@_0BD@MJNOECAJ@SetPersonalityType?$AA@ DB 'SetPersonalityType', 00H ; `string'
CONST	ENDS
;	COMDAT ??_C@_0BD@DDPEHEOB@GetPersonalityType?$AA@
CONST	SEGMENT
??_C@_0BD@DDPEHEOB@GetPersonalityType?$AA@ DB 'GetPersonalityType', 00H ; `string'
CONST	ENDS
;	COMDAT ??_C@_0O@MCDOMJFC@GetLeaderType?$AA@
CONST	SEGMENT
??_C@_0O@MCDOMJFC@GetLeaderType?$AA@ DB 'GetLeaderType', 00H ; `string'
CONST	ENDS
;	COMDAT ??_C@_0BE@OGLFKPOE@GetCivilizationType?$AA@
CONST	SEGMENT
??_C@_0BE@OGLFKPOE@GetCivilizationType?$AA@ DB 'GetCivilizationType', 00H ; `string'
CONST	ENDS
;	COMDAT ??_C@_0BA@NDPGKNBO@GetHandicapType?$AA@
CONST	SEGMENT
??_C@_0BA@NDPGKNBO@GetHandicapType?$AA@ DB 'GetHandicapType', 00H ; `string'
CONST	ENDS
;	COMDAT ??_C@_05CLBJHDA@GetID?$AA@
CONST	SEGMENT
??_C@_05CLBJHDA@GetID?$AA@ DB 'GetID', 00H		; `string'
CONST	ENDS
;	COMDAT ??_C@_08FCKCMEIG@IsStrike?$AA@
CONST	SEGMENT
??_C@_08FCKCMEIG@IsStrike?$AA@ DB 'IsStrike', 00H	; `string'
CONST	ENDS
;	COMDAT ??_C@_0BL@HDPFLDOD@HasReceivedNetTurnComplete?$AA@
CONST	SEGMENT
??_C@_0BL@HDPFLDOD@HasReceivedNetTurnComplete?$AA@ DB 'HasReceivedNetTurn'
	DB	'Complete', 00H				; `string'
CONST	ENDS
;	COMDAT ??_C@_0CE@HBJKGGIN@GetEndTurnBlockingNotificationIn@
CONST	SEGMENT
??_C@_0CE@HBJKGGIN@GetEndTurnBlockingNotificationIn@ DB 'GetEndTurnBlocki'
	DB	'ngNotificationIndex', 00H			; `string'
CONST	ENDS
;	COMDAT ??_C@_0BH@PEFMIAEP@GetEndTurnBlockingType?$AA@
CONST	SEGMENT
??_C@_0BH@PEFMIAEP@GetEndTurnBlockingType?$AA@ DB 'GetEndTurnBlockingType'
	DB	00H						; `string'
CONST	ENDS
;	COMDAT ??_C@_0BD@PKANFN@IsFoundedFirstCity?$AA@
CONST	SEGMENT
??_C@_0BD@PKANFN@IsFoundedFirstCity?$AA@ DB 'IsFoundedFirstCity', 00H ; `string'
CONST	ENDS
;	COMDAT ??_C@_0P@ECFNDELE@IsExtendedGame?$AA@
CONST	SEGMENT
??_C@_0P@ECFNDELE@IsExtendedGame?$AA@ DB 'IsExtendedGame', 00H ; `string'
CONST	ENDS
;	COMDAT ??_C@_0M@MAOIOJGJ@IsEverAlive?$AA@
CONST	SEGMENT
??_C@_0M@MAOIOJGJ@IsEverAlive?$AA@ DB 'IsEverAlive', 00H ; `string'
CONST	ENDS
;	COMDAT ??_C@_07OHJBEDOK@IsAlive?$AA@
CONST	SEGMENT
??_C@_07OHJBEDOK@IsAlive?$AA@ DB 'IsAlive', 00H		; `string'
CONST	ENDS
;	COMDAT ??_C@_0BK@HNINKCDB@GetFriendshipFromUnitGift?$AA@
CONST	SEGMENT
??_C@_0BK@HNINKCDB@GetFriendshipFromUnitGift?$AA@ DB 'GetFriendshipFromUn'
	DB	'itGift', 00H				; `string'
CONST	ENDS
;	COMDAT ??_C@_0BH@OGOPFFHJ@AddMinorCivQuestIfAble?$AA@
CONST	SEGMENT
??_C@_0BH@OGOPFFHJ@AddMinorCivQuestIfAble?$AA@ DB 'AddMinorCivQuestIfAble'
	DB	00H						; `string'
CONST	ENDS
;	COMDAT ??_C@_0BL@HBAOBIEN@GetGiftTileImprovementCost?$AA@
CONST	SEGMENT
??_C@_0BL@HBAOBIEN@GetGiftTileImprovementCost?$AA@ DB 'GetGiftTileImprove'
	DB	'mentCost', 00H				; `string'
CONST	ENDS
;	COMDAT ??_C@_0CC@BOODLOOC@CanMajorGiftTileImprovementAtPlo@
CONST	SEGMENT
??_C@_0CC@BOODLOOC@CanMajorGiftTileImprovementAtPlo@ DB 'CanMajorGiftTile'
	DB	'ImprovementAtPlot', 00H			; `string'
CONST	ENDS
;	COMDAT ??_C@_0BM@MPFJMPJM@CanMajorGiftTileImprovement?$AA@
CONST	SEGMENT
??_C@_0BM@MPFJMPJM@CanMajorGiftTileImprovement?$AA@ DB 'CanMajorGiftTileI'
	DB	'mprovement', 00H				; `string'
CONST	ENDS
;	COMDAT ??_C@_0O@LKDODOMI@GetBuyoutCost?$AA@
CONST	SEGMENT
??_C@_0O@LKDODOMI@GetBuyoutCost?$AA@ DB 'GetBuyoutCost', 00H ; `string'
CONST	ENDS
;	COMDAT ??_C@_0P@IEAEGNOK@CanMajorBuyout?$AA@
CONST	SEGMENT
??_C@_0P@IEAEGNOK@CanMajorBuyout?$AA@ DB 'CanMajorBuyout', 00H ; `string'
CONST	ENDS
;	COMDAT ??_C@_0BJ@NIOFMNNO@GetMajorBullyUnitDetails?$AA@
CONST	SEGMENT
??_C@_0BJ@NIOFMNNO@GetMajorBullyUnitDetails?$AA@ DB 'GetMajorBullyUnitDet'
	DB	'ails', 00H					; `string'
CONST	ENDS
;	COMDAT ??_C@_0BC@CKDHKLHB@CanMajorBullyUnit?$AA@
CONST	SEGMENT
??_C@_0BC@CKDHKLHB@CanMajorBullyUnit?$AA@ DB 'CanMajorBullyUnit', 00H ; `string'
CONST	ENDS
;	COMDAT ??_C@_0BJ@LDKBOIEI@GetMajorBullyGoldDetails?$AA@
CONST	SEGMENT
??_C@_0BJ@LDKBOIEI@GetMajorBullyGoldDetails?$AA@ DB 'GetMajorBullyGoldDet'
	DB	'ails', 00H					; `string'
CONST	ENDS
;	COMDAT ??_C@_0BC@MEKCNIEM@CanMajorBullyGold?$AA@
CONST	SEGMENT
??_C@_0BC@MEKCNIEM@CanMajorBullyGold?$AA@ DB 'CanMajorBullyGold', 00H ; `string'
CONST	ENDS
;	COMDAT ??_C@_0BL@JEOPCMFE@GetMinorCivBullyGoldAmount?$AA@
CONST	SEGMENT
??_C@_0BL@JEOPCMFE@GetMinorCivBullyGoldAmount?$AA@ DB 'GetMinorCivBullyGo'
	DB	'ldAmount', 00H				; `string'
CONST	ENDS
;	COMDAT ??_C@_0BP@INDFDHEG@GetTurnLastPledgeBrokenByMajor?$AA@
CONST	SEGMENT
??_C@_0BP@INDFDHEG@GetTurnLastPledgeBrokenByMajor?$AA@ DB 'GetTurnLastPle'
	DB	'dgeBrokenByMajor', 00H			; `string'
CONST	ENDS
;	COMDAT ??_C@_0CE@GOKJOBNC@GetTurnLastPledgedProtectionByMa@
CONST	SEGMENT
??_C@_0CE@GOKJOBNC@GetTurnLastPledgedProtectionByMa@ DB 'GetTurnLastPledg'
	DB	'edProtectionByMajor', 00H			; `string'
CONST	ENDS
;	COMDAT ??_C@_0BL@PJCMBOGB@CanMajorWithdrawProtection?$AA@
CONST	SEGMENT
??_C@_0BL@PJCMBOGB@CanMajorWithdrawProtection?$AA@ DB 'CanMajorWithdrawPr'
	DB	'otection', 00H				; `string'
CONST	ENDS
;	COMDAT ??_C@_0BI@JDBHECFP@CanMajorStartProtection?$AA@
CONST	SEGMENT
??_C@_0BI@JDBHECFP@CanMajorStartProtection?$AA@ DB 'CanMajorStartProtecti'
	DB	'on', 00H					; `string'
CONST	ENDS
;	COMDAT ??_C@_0BA@HLPOBOFO@CanMajorProtect?$AA@
CONST	SEGMENT
??_C@_0BA@HLPOBOFO@CanMajorProtect?$AA@ DB 'CanMajorProtect', 00H ; `string'
CONST	ENDS
;	COMDAT ??_C@_0BD@FJJJKAON@IsProtectedByMajor?$AA@
CONST	SEGMENT
??_C@_0BD@FJJJKAON@IsProtectedByMajor?$AA@ DB 'IsProtectedByMajor', 00H ; `string'
CONST	ENDS
;	COMDAT ??_C@_0BJ@OEBIPDFB@DoMinorLiberationByMajor?$AA@
CONST	SEGMENT
??_C@_0BJ@OEBIPDFB@DoMinorLiberationByMajor?$AA@ DB 'DoMinorLiberationByM'
	DB	'ajor', 00H					; `string'
CONST	ENDS
;	COMDAT ??_C@_0BD@DDAJKJAC@GetNumMinorCivsMet?$AA@
CONST	SEGMENT
??_C@_0BD@DDAJKJAC@GetNumMinorCivsMet?$AA@ DB 'GetNumMinorCivsMet', 00H ; `string'
CONST	ENDS
;	COMDAT ??_C@_0BE@OJEGEBAH@IsMinorPermanentWar?$AA@
CONST	SEGMENT
??_C@_0BE@OJEGEBAH@IsMinorPermanentWar?$AA@ DB 'IsMinorPermanentWar', 00H ; `string'
CONST	ENDS
;	COMDAT ??_C@_0BK@NBPHMKCC@IsInfluenceTooLowForPeace?$AA@
CONST	SEGMENT
??_C@_0BK@NBPHMKCC@IsInfluenceTooLowForPeace?$AA@ DB 'IsInfluenceTooLowFo'
	DB	'rPeace', 00H				; `string'
CONST	ENDS
;	COMDAT ??_C@_0P@KFJKJMOE@IsPeaceBlocked?$AA@
CONST	SEGMENT
??_C@_0P@KFJKJMOE@IsPeaceBlocked?$AA@ DB 'IsPeaceBlocked', 00H ; `string'
CONST	ENDS
;	COMDAT ??_C@_0CJ@ODBIOBOL@GetCurrentScienceFriendshipBonus@
CONST	SEGMENT
??_C@_0CJ@ODBIOBOL@GetCurrentScienceFriendshipBonus@ DB 'GetCurrentScienc'
	DB	'eFriendshipBonusTimes100', 00H		; `string'
CONST	ENDS
;	COMDAT ??_C@_0BI@LLLGGKJM@GetCurrentSpawnEstimate?$AA@
CONST	SEGMENT
??_C@_0BI@LLLGGKJM@GetCurrentSpawnEstimate?$AA@ DB 'GetCurrentSpawnEstima'
	DB	'te', 00H					; `string'
CONST	ENDS
;	COMDAT ??_C@_0BN@ILJMHMPP@GetCurrentOtherCityFoodBonus?$AA@
CONST	SEGMENT
??_C@_0BN@ILJMHMPP@GetCurrentOtherCityFoodBonus?$AA@ DB 'GetCurrentOtherC'
	DB	'ityFoodBonus', 00H				; `string'
CONST	ENDS
;	COMDAT ??_C@_0BL@PEJFCAAO@GetCurrentCapitalFoodBonus?$AA@
CONST	SEGMENT
??_C@_0BL@PEJFCAAO@GetCurrentCapitalFoodBonus?$AA@ DB 'GetCurrentCapitalF'
	DB	'oodBonus', 00H				; `string'
CONST	ENDS
;	COMDAT ??_C@_0BN@DJDMDNOO@GetMinorCivCurrentFaithBonus?$AA@
CONST	SEGMENT
??_C@_0BN@DJDMDNOO@GetMinorCivCurrentFaithBonus?$AA@ DB 'GetMinorCivCurre'
	DB	'ntFaithBonus', 00H				; `string'
CONST	ENDS
;	COMDAT ??_C@_0CB@DHDIKNON@GetMinorCivCurrentHappinessBonus@
CONST	SEGMENT
??_C@_0CB@DHDIKNON@GetMinorCivCurrentHappinessBonus@ DB 'GetMinorCivCurre'
	DB	'ntHappinessBonus', 00H			; `string'
CONST	ENDS
;	COMDAT ??_C@_0CK@BFJFGONF@GetMinorCivCurrentHappinessPerLu@
CONST	SEGMENT
??_C@_0CK@BFJFGONF@GetMinorCivCurrentHappinessPerLu@ DB 'GetMinorCivCurre'
	DB	'ntHappinessPerLuxuryBonus', 00H		; `string'
CONST	ENDS
;	COMDAT ??_C@_0CF@EMDDPPKP@GetMinorCivCurrentHappinessFlatB@
CONST	SEGMENT
??_C@_0CF@EMDDPPKP@GetMinorCivCurrentHappinessFlatB@ DB 'GetMinorCivCurre'
	DB	'ntHappinessFlatBonus', 00H			; `string'
CONST	ENDS
;	COMDAT ??_C@_0CE@CMFODDAA@GetMinorCivHappinessFriendshipBo@
CONST	SEGMENT
??_C@_0CE@CMFODDAA@GetMinorCivHappinessFriendshipBo@ DB 'GetMinorCivHappi'
	DB	'nessFriendshipBonus', 00H			; `string'
CONST	ENDS
;	COMDAT ??_C@_0BP@CJKEIOCK@GetMinorCivCurrentCultureBonus?$AA@
CONST	SEGMENT
??_C@_0BP@CJKEIOCK@GetMinorCivCurrentCultureBonus?$AA@ DB 'GetMinorCivCur'
	DB	'rentCultureBonus', 00H			; `string'
CONST	ENDS
;	COMDAT ??_C@_0BH@DCNJCBAF@GetCurrentCultureBonus?$AA@
CONST	SEGMENT
??_C@_0BH@DCNJCBAF@GetCurrentCultureBonus?$AA@ DB 'GetCurrentCultureBonus'
	DB	00H						; `string'
CONST	ENDS
;	COMDAT ??_C@_0CK@DJDLKNM@GetMinorCivCurrentCulturePerBuil@
CONST	SEGMENT
??_C@_0CK@DJDLKNM@GetMinorCivCurrentCulturePerBuil@ DB 'GetMinorCivCurren'
	DB	'tCulturePerBuildingBonus', 00H		; `string'
CONST	ENDS
;	COMDAT ??_C@_0CD@LKFJCJNM@GetMinorCivCurrentCultureFlatBon@
CONST	SEGMENT
??_C@_0CD@LKFJCJNM@GetMinorCivCurrentCultureFlatBon@ DB 'GetMinorCivCurre'
	DB	'ntCultureFlatBonus', 00H			; `string'
CONST	ENDS
;	COMDAT ??_C@_0CC@CGHKAAGO@GetMinorCivCultureFriendshipBonu@
CONST	SEGMENT
??_C@_0CC@CGHKAAGO@GetMinorCivCultureFriendshipBonu@ DB 'GetMinorCivCultu'
	DB	'reFriendshipBonus', 00H			; `string'
CONST	ENDS
;	COMDAT ??_C@_0CC@IMMIMLHK@GetMinorCivScienceFriendshipBonu@
CONST	SEGMENT
??_C@_0CC@IMMIMLHK@GetMinorCivScienceFriendshipBonu@ DB 'GetMinorCivScien'
	DB	'ceFriendshipBonus', 00H			; `string'
CONST	ENDS
;	COMDAT ??_C@_0BJ@CENDBAFG@GetMinorCivFavoriteMajor?$AA@
CONST	SEGMENT
??_C@_0BJ@CENDBAFG@GetMinorCivFavoriteMajor?$AA@ DB 'GetMinorCivFavoriteM'
	DB	'ajor', 00H					; `string'
CONST	ENDS
;	COMDAT ??_C@_0CA@DKEFHJFC@GetFriendshipNeededForNextLevel?$AA@
CONST	SEGMENT
??_C@_0CA@DKEFHJFC@GetFriendshipNeededForNextLevel?$AA@ DB 'GetFriendship'
	DB	'NeededForNextLevel', 00H			; `string'
CONST	ENDS
;	COMDAT ??_C@_0BG@MCNIAIDC@IsSameReligionAsMajor?$AA@
CONST	SEGMENT
??_C@_0BG@MCNIAIDC@IsSameReligionAsMajor?$AA@ DB 'IsSameReligionAsMajor', 00H ; `string'
CONST	ENDS
;	COMDAT ??_C@_0BL@MGBKIFJO@GetFriendshipFromFaithGift?$AA@
CONST	SEGMENT
??_C@_0BL@MGBKIFJO@GetFriendshipFromFaithGift?$AA@ DB 'GetFriendshipFromF'
	DB	'aithGift', 00H				; `string'
CONST	ENDS
;	COMDAT ??_C@_0BK@GCPPOFGE@GetFriendshipFromGoldGift?$AA@
CONST	SEGMENT
??_C@_0BK@GCPPOFGE@GetFriendshipFromGoldGift?$AA@ DB 'GetFriendshipFromGo'
	DB	'ldGift', 00H				; `string'
CONST	ENDS
;	COMDAT ??_C@_0CE@DNCLIGFM@GetTurnsSinceThreatenedAnnouncem@
CONST	SEGMENT
??_C@_0CE@DNCLIGFM@GetTurnsSinceThreatenedAnnouncem@ DB 'GetTurnsSinceThr'
	DB	'eatenedAnnouncement', 00H			; `string'
CONST	ENDS
;	COMDAT ??_C@_0CE@OFAPDPJO@GetTurnsSinceThreatenedByBarbari@
CONST	SEGMENT
??_C@_0CE@OFAPDPJO@GetTurnsSinceThreatenedByBarbari@ DB 'GetTurnsSinceThr'
	DB	'eatenedByBarbarians', 00H			; `string'
CONST	ENDS
;	COMDAT ??_C@_0CM@DCJJEBFI@IsThreateningBarbariansEventActi@
CONST	SEGMENT
??_C@_0CM@DCJJEBFI@IsThreateningBarbariansEventActi@ DB 'IsThreateningBar'
	DB	'bariansEventActiveForPlayer', 00H		; `string'
CONST	ENDS
;	COMDAT ??_C@_0BJ@LHGLLPKP@IsProxyWarActiveForMajor?$AA@
CONST	SEGMENT
??_C@_0BJ@LHGLLPKP@IsProxyWarActiveForMajor?$AA@ DB 'IsProxyWarActiveForM'
	DB	'ajor', 00H					; `string'
CONST	ENDS
;	COMDAT ??_C@_0CI@JOPJIGPD@GetMinorWarQuestWithMajorRemaini@
CONST	SEGMENT
??_C@_0CI@JOPJIGPD@GetMinorWarQuestWithMajorRemaini@ DB 'GetMinorWarQuest'
	DB	'WithMajorRemainingCount', 00H		; `string'
CONST	ENDS
;	COMDAT ??_C@_0BP@DLEJMNIA@IsMinorWarQuestWithMajorActive?$AA@
CONST	SEGMENT
??_C@_0BP@DLEJMNIA@IsMinorWarQuestWithMajorActive?$AA@ DB 'IsMinorWarQues'
	DB	'tWithMajorActive', 00H			; `string'
CONST	ENDS
;	COMDAT ??_C@_0CE@BALAKNNH@IsMinorCivRouteEstablishedWithMa@
CONST	SEGMENT
??_C@_0CE@BALAKNNH@IsMinorCivRouteEstablishedWithMa@ DB 'IsMinorCivRouteE'
	DB	'stablishedWithMajor', 00H			; `string'
CONST	ENDS
;	COMDAT ??_C@_0BP@LGBJCMOD@IsMinorCivUnitSpawningDisabled?$AA@
CONST	SEGMENT
??_C@_0BP@LGBJCMOD@IsMinorCivUnitSpawningDisabled?$AA@ DB 'IsMinorCivUnit'
	DB	'SpawningDisabled', 00H			; `string'
CONST	ENDS
;	COMDAT ??_C@_0CB@LCACKAGB@GetMinorCivContestValueForPlayer@
CONST	SEGMENT
??_C@_0CB@LCACKAGB@GetMinorCivContestValueForPlayer@ DB 'GetMinorCivConte'
	DB	'stValueForPlayer', 00H			; `string'
CONST	ENDS
;	COMDAT ??_C@_0CB@JHAAIIFB@GetMinorCivContestValueForLeader@
CONST	SEGMENT
??_C@_0CB@JHAAIIFB@GetMinorCivContestValueForLeader@ DB 'GetMinorCivConte'
	DB	'stValueForLeader', 00H			; `string'
CONST	ENDS
;	COMDAT ??_C@_0BI@HBEMJGEC@IsMinorCivContestLeader?$AA@
CONST	SEGMENT
??_C@_0BI@HBEMJGEC@IsMinorCivContestLeader?$AA@ DB 'IsMinorCivContestLead'
	DB	'er', 00H					; `string'
CONST	ENDS
;	COMDAT ??_C@_0BH@PICPPHDC@GetQuestTurnsRemaining?$AA@
CONST	SEGMENT
??_C@_0BH@PICPPHDC@GetQuestTurnsRemaining?$AA@ DB 'GetQuestTurnsRemaining'
	DB	00H						; `string'
CONST	ENDS
;	COMDAT ??_C@_0O@MLFPDGHN@GetQuestData2?$AA@
CONST	SEGMENT
??_C@_0O@MLFPDGHN@GetQuestData2?$AA@ DB 'GetQuestData2', 00H ; `string'
CONST	ENDS
;	COMDAT ??_C@_0O@OAHCGFLO@GetQuestData1?$AA@
CONST	SEGMENT
??_C@_0O@OAHCGFLO@GetQuestData1?$AA@ DB 'GetQuestData1', 00H ; `string'
CONST	ENDS
;	COMDAT ??_C@_0CH@IINPAFPL@GetMinorCivNumDisplayedQuestsFor@
CONST	SEGMENT
??_C@_0CH@IINPAFPL@GetMinorCivNumDisplayedQuestsFor@ DB 'GetMinorCivNumDi'
	DB	'splayedQuestsForPlayer', 00H		; `string'
CONST	ENDS
;	COMDAT ??_C@_0CC@KOLLDJBJ@IsMinorCivDisplayedQuestForPlaye@
CONST	SEGMENT
??_C@_0CC@KOLLDJBJ@IsMinorCivDisplayedQuestForPlaye@ DB 'IsMinorCivDispla'
	DB	'yedQuestForPlayer', 00H			; `string'
CONST	ENDS
;	COMDAT ??_C@_0CE@KOGHDCCE@GetMinorCivNumActiveQuestsForPla@
CONST	SEGMENT
??_C@_0CE@KOGHDCCE@GetMinorCivNumActiveQuestsForPla@ DB 'GetMinorCivNumAc'
	DB	'tiveQuestsForPlayer', 00H			; `string'
CONST	ENDS
;	COMDAT ??_C@_0BP@HJOPHLLE@IsMinorCivActiveQuestForPlayer?$AA@
CONST	SEGMENT
??_C@_0BP@HJOPHLLE@IsMinorCivActiveQuestForPlayer?$AA@ DB 'IsMinorCivActi'
	DB	'veQuestForPlayer', 00H			; `string'
CONST	ENDS
;	COMDAT ??_C@_0BI@JBNIDLPL@GetActiveQuestForPlayer?$AA@
CONST	SEGMENT
??_C@_0BI@JBNIDLPL@GetActiveQuestForPlayer?$AA@ DB 'GetActiveQuestForPlay'
	DB	'er', 00H					; `string'
CONST	ENDS
;	COMDAT ??_C@_0CE@DCIALBHJ@GetMinorCivFriendshipLevelWithMa@
CONST	SEGMENT
??_C@_0CE@DCIALBHJ@GetMinorCivFriendshipLevelWithMa@ DB 'GetMinorCivFrien'
	DB	'dshipLevelWithMajor', 00H			; `string'
CONST	ENDS
;	COMDAT ??_C@_0CF@HPIOGEFP@GetMinorCivFriendshipAnchorWithM@
CONST	SEGMENT
??_C@_0CF@HPIOGEFP@GetMinorCivFriendshipAnchorWithM@ DB 'GetMinorCivFrien'
	DB	'dshipAnchorWithMajor', 00H			; `string'
CONST	ENDS
;	COMDAT ??_C@_0CC@NGMCJIKI@ChangeMinorCivFriendshipWithMajo@
CONST	SEGMENT
??_C@_0CC@NGMCJIKI@ChangeMinorCivFriendshipWithMajo@ DB 'ChangeMinorCivFr'
	DB	'iendshipWithMajor', 00H			; `string'
CONST	ENDS
;	COMDAT ??_C@_0CD@IFPAMFCO@GetMinorCivBaseFriendshipWithMaj@
CONST	SEGMENT
??_C@_0CD@IFPAMFCO@GetMinorCivBaseFriendshipWithMaj@ DB 'GetMinorCivBaseF'
	DB	'riendshipWithMajor', 00H			; `string'
CONST	ENDS
;	COMDAT ??_C@_0BP@INHPAMIH@GetMinorCivFriendshipWithMajor?$AA@
CONST	SEGMENT
??_C@_0BP@INHPAMIH@GetMinorCivFriendshipWithMajor?$AA@ DB 'GetMinorCivFri'
	DB	'endshipWithMajor', 00H			; `string'
CONST	ENDS
;	COMDAT ??_C@_0CD@IKFMLNBF@GetFriendshipChangePerTurnTimes1@
CONST	SEGMENT
??_C@_0CD@IKFMLNBF@GetFriendshipChangePerTurnTimes1@ DB 'GetFriendshipCha'
	DB	'ngePerTurnTimes100', 00H			; `string'
CONST	ENDS
;	COMDAT ??_C@_0CE@BFKJKFHN@IsPlayerHasOpenBordersAutomatica@
CONST	SEGMENT
??_C@_0CE@BFKJKFHN@IsPlayerHasOpenBordersAutomatica@ DB 'IsPlayerHasOpenB'
	DB	'ordersAutomatically', 00H			; `string'
CONST	ENDS
;	COMDAT ??_C@_0BH@LPBLCHNA@IsPlayerHasOpenBorders?$AA@
CONST	SEGMENT
??_C@_0BH@LPBLCHNA@IsPlayerHasOpenBorders?$AA@ DB 'IsPlayerHasOpenBorders'
	DB	00H						; `string'
CONST	ENDS
;	COMDAT ??_C@_08IELAHIKJ@IsAllies?$AA@
CONST	SEGMENT
??_C@_08IELAHIKJ@IsAllies?$AA@ DB 'IsAllies', 00H	; `string'
CONST	ENDS
;	COMDAT ??_C@_09MNONCBMN@IsFriends?$AA@
CONST	SEGMENT
??_C@_09MNONCBMN@IsFriends?$AA@ DB 'IsFriends', 00H	; `string'
CONST	ENDS
;	COMDAT ??_C@_0P@HEEBEDH@GetAlliedTurns?$AA@
CONST	SEGMENT
??_C@_0P@HEEBEDH@GetAlliedTurns?$AA@ DB 'GetAlliedTurns', 00H ; `string'
CONST	ENDS
;	COMDAT ??_C@_07FLOLAOEO@GetAlly?$AA@
CONST	SEGMENT
??_C@_07FLOLAOEO@GetAlly?$AA@ DB 'GetAlly', 00H		; `string'
CONST	ENDS
;	COMDAT ??_C@_0BG@MEGLHPGJ@SetMinorCivUniqueUnit?$AA@
CONST	SEGMENT
??_C@_0BG@MEGLHPGJ@SetMinorCivUniqueUnit?$AA@ DB 'SetMinorCivUniqueUnit', 00H ; `string'
CONST	ENDS
;	COMDAT ??_C@_0BG@DBDNKGCI@GetMinorCivUniqueUnit?$AA@
CONST	SEGMENT
??_C@_0BG@DBDNKGCI@GetMinorCivUniqueUnit?$AA@ DB 'GetMinorCivUniqueUnit', 00H ; `string'
CONST	ENDS
;	COMDAT ??_C@_0BI@MBHOGACH@IsMinorCivHasUniqueUnit?$AA@
CONST	SEGMENT
??_C@_0BI@MBHOGACH@IsMinorCivHasUniqueUnit?$AA@ DB 'IsMinorCivHasUniqueUn'
	DB	'it', 00H					; `string'
CONST	ENDS
;	COMDAT ??_C@_0P@ILIMMMEM@GetPersonality?$AA@
CONST	SEGMENT
??_C@_0P@ILIMMMEM@GetPersonality?$AA@ DB 'GetPersonality', 00H ; `string'
CONST	ENDS
;	COMDAT ??_C@_0BB@DHOLGDME@GetMinorCivTrait?$AA@
CONST	SEGMENT
??_C@_0BB@DHOLGDME@GetMinorCivTrait?$AA@ DB 'GetMinorCivTrait', 00H ; `string'
CONST	ENDS
;	COMDAT ??_C@_0BA@CGAIAIE@GetMinorCivType?$AA@
CONST	SEGMENT
??_C@_0BA@CGAIAIE@GetMinorCivType?$AA@ DB 'GetMinorCivType', 00H ; `string'
CONST	ENDS
;	COMDAT ??_C@_0L@NCIBOILG@IsMinorCiv?$AA@
CONST	SEGMENT
??_C@_0L@NCIBOILG@IsMinorCiv?$AA@ DB 'IsMinorCiv', 00H	; `string'
CONST	ENDS
;	COMDAT ??_C@_0CA@NBFDEDOJ@IsGoldenAgeCultureBonusDisabled?$AA@
CONST	SEGMENT
??_C@_0CA@NBFDEDOJ@IsGoldenAgeCultureBonusDisabled?$AA@ DB 'IsGoldenAgeCu'
	DB	'ltureBonusDisabled', 00H			; `string'
CONST	ENDS
;	COMDAT ??_C@_0BJ@MNOOLJOA@ChangeScoreFromScenario4?$AA@
CONST	SEGMENT
??_C@_0BJ@MNOOLJOA@ChangeScoreFromScenario4?$AA@ DB 'ChangeScoreFromScena'
	DB	'rio4', 00H					; `string'
CONST	ENDS
;	COMDAT ??_C@_0BG@NDACKNDF@GetScoreFromScenario4?$AA@
CONST	SEGMENT
??_C@_0BG@NDACKNDF@GetScoreFromScenario4?$AA@ DB 'GetScoreFromScenario4', 00H ; `string'
CONST	ENDS
;	COMDAT ??_C@_0BJ@ICKPCPCH@ChangeScoreFromScenario3?$AA@
CONST	SEGMENT
??_C@_0BJ@ICKPCPCH@ChangeScoreFromScenario3?$AA@ DB 'ChangeScoreFromScena'
	DB	'rio3', 00H					; `string'
CONST	ENDS
;	COMDAT ??_C@_0BG@JMEDDLPC@GetScoreFromScenario3?$AA@
CONST	SEGMENT
??_C@_0BG@JMEDDLPC@GetScoreFromScenario3?$AA@ DB 'GetScoreFromScenario3', 00H ; `string'
CONST	ENDS
;	COMDAT ??_C@_0BJ@JLLEBOGG@ChangeScoreFromScenario2?$AA@
CONST	SEGMENT
??_C@_0BJ@JLLEBOGG@ChangeScoreFromScenario2?$AA@ DB 'ChangeScoreFromScena'
	DB	'rio2', 00H					; `string'
CONST	ENDS
;	COMDAT ??_C@_0BG@IFFIAKLD@GetScoreFromScenario2?$AA@
CONST	SEGMENT
??_C@_0BG@IFFIAKLD@GetScoreFromScenario2?$AA@ DB 'GetScoreFromScenario2', 00H ; `string'
CONST	ENDS
;	COMDAT ??_C@_0BJ@LAJJENKF@ChangeScoreFromScenario1?$AA@
CONST	SEGMENT
??_C@_0BJ@LAJJENKF@ChangeScoreFromScenario1?$AA@ DB 'ChangeScoreFromScena'
	DB	'rio1', 00H					; `string'
CONST	ENDS
;	COMDAT ??_C@_0BG@KOHFFJHA@GetScoreFromScenario1?$AA@
CONST	SEGMENT
??_C@_0BG@KOHFFJHA@GetScoreFromScenario1?$AA@ DB 'GetScoreFromScenario1', 00H ; `string'
CONST	ENDS
;	COMDAT ??_C@_0BF@LJKKDKLA@GetScoreFromReligion?$AA@
CONST	SEGMENT
??_C@_0BF@LJKKDKLA@GetScoreFromReligion?$AA@ DB 'GetScoreFromReligion', 00H ; `string'
CONST	ENDS
;	COMDAT ??_C@_0BH@HFEFJHAL@GetScoreFromGreatWorks?$AA@
CONST	SEGMENT
??_C@_0BH@HFEFJHAL@GetScoreFromGreatWorks?$AA@ DB 'GetScoreFromGreatWorks'
	DB	00H						; `string'
CONST	ENDS
;	COMDAT ??_C@_0BF@BOHEBPE@GetScoreFromPolicies?$AA@
CONST	SEGMENT
??_C@_0BF@BOHEBPE@GetScoreFromPolicies?$AA@ DB 'GetScoreFromPolicies', 00H ; `string'
CONST	ENDS
;	COMDAT ??_C@_0BK@HFICBPBB@ChangeScoreFromFutureTech?$AA@
CONST	SEGMENT
??_C@_0BK@HFICBPBB@ChangeScoreFromFutureTech?$AA@ DB 'ChangeScoreFromFutu'
	DB	'reTech', 00H				; `string'
CONST	ENDS
;	COMDAT ??_C@_0BH@IDCFNFFO@GetScoreFromFutureTech?$AA@
CONST	SEGMENT
??_C@_0BH@IDCFNFFO@GetScoreFromFutureTech?$AA@ DB 'GetScoreFromFutureTech'
	DB	00H						; `string'
CONST	ENDS
;	COMDAT ??_C@_0BC@ODKBFJHD@GetScoreFromTechs?$AA@
CONST	SEGMENT
??_C@_0BC@ODKBFJHD@GetScoreFromTechs?$AA@ DB 'GetScoreFromTechs', 00H ; `string'
CONST	ENDS
;	COMDAT ??_C@_0BE@GDCBBIPO@GetScoreFromWonders?$AA@
CONST	SEGMENT
??_C@_0BE@GDCBBIPO@GetScoreFromWonders?$AA@ DB 'GetScoreFromWonders', 00H ; `string'
CONST	ENDS
;	COMDAT ??_C@_0BB@HAMBNGEF@GetScoreFromLand?$AA@
CONST	SEGMENT
??_C@_0BB@HAMBNGEF@GetScoreFromLand?$AA@ DB 'GetScoreFromLand', 00H ; `string'
CONST	ENDS
;	COMDAT ??_C@_0BH@NACBPACA@GetScoreFromPopulation?$AA@
CONST	SEGMENT
??_C@_0BH@NACBPACA@GetScoreFromPopulation?$AA@ DB 'GetScoreFromPopulation'
	DB	00H						; `string'
CONST	ENDS
;	COMDAT ??_C@_0BD@GKJBDKOE@GetScoreFromCities?$AA@
CONST	SEGMENT
??_C@_0BD@GKJBDKOE@GetScoreFromCities?$AA@ DB 'GetScoreFromCities', 00H ; `string'
CONST	ENDS
;	COMDAT ??_C@_08FLBLGMDF@GetScore?$AA@
CONST	SEGMENT
??_C@_08FLBLGMDF@GetScore?$AA@ DB 'GetScore', 00H	; `string'
CONST	ENDS
;	COMDAT ??_C@_0BD@EANFHEEM@GetTotalTimePlayed?$AA@
CONST	SEGMENT
??_C@_0BD@EANFHEEM@GetTotalTimePlayed?$AA@ DB 'GetTotalTimePlayed', 00H ; `string'
CONST	ENDS
;	COMDAT ??_C@_0BB@FCKFHAMF@GetMilitaryMight?$AA@
CONST	SEGMENT
??_C@_0BB@FCKFHAMF@GetMilitaryMight?$AA@ DB 'GetMilitaryMight', 00H ; `string'
CONST	ENDS
;	COMDAT ??_C@_08JBDILNIJ@GetPower?$AA@
CONST	SEGMENT
??_C@_08JBDILNIJ@GetPower?$AA@ DB 'GetPower', 00H	; `string'
CONST	ENDS
;	COMDAT ??_C@_0O@IJIJFFBJ@GetCitiesLost?$AA@
CONST	SEGMENT
??_C@_0O@IJIJFFBJ@GetCitiesLost?$AA@ DB 'GetCitiesLost', 00H ; `string'
CONST	ENDS
;	COMDAT ??_C@_0BB@NIHHDNHH@IsHasLostCapital?$AA@
CONST	SEGMENT
??_C@_0BB@NIHHDNHH@IsHasLostCapital?$AA@ DB 'IsHasLostCapital', 00H ; `string'
CONST	ENDS
;	COMDAT ??_C@_0P@FFFOGOIP@GetCapitalCity?$AA@
CONST	SEGMENT
??_C@_0P@FFFOGOIP@GetCapitalCity?$AA@ DB 'GetCapitalCity', 00H ; `string'
CONST	ENDS
;	COMDAT ??_C@_0BD@MKDMLCCD@GetConversionTimer?$AA@
CONST	SEGMENT
??_C@_0BD@MKDMLCCD@GetConversionTimer?$AA@ DB 'GetConversionTimer', 00H ; `string'
CONST	ENDS
;	COMDAT ??_C@_0BE@HFKEEPGN@GetCultureBombTimer?$AA@
CONST	SEGMENT
??_C@_0BE@HFKEEPGN@GetCultureBombTimer?$AA@ DB 'GetCultureBombTimer', 00H ; `string'
CONST	ENDS
;	COMDAT ??_C@_0BL@GOLIOFPO@GetLevelExperienceModifier?$AA@
CONST	SEGMENT
??_C@_0BL@GOLIOFPO@GetLevelExperienceModifier?$AA@ DB 'GetLevelExperience'
	DB	'Modifier', 00H				; `string'
CONST	ENDS
;	COMDAT ??_C@_0BH@KBKMOIME@GetExpInBorderModifier?$AA@
CONST	SEGMENT
??_C@_0BH@KBKMOIME@GetExpInBorderModifier?$AA@ DB 'GetExpInBorderModifier'
	DB	00H						; `string'
CONST	ENDS
;	COMDAT ??_C@_0BE@EJOLNPDK@GetOverflowResearch?$AA@
CONST	SEGMENT
??_C@_0BE@EJOLNPDK@GetOverflowResearch?$AA@ DB 'GetOverflowResearch', 00H ; `string'
CONST	ENDS
;	COMDAT ??_C@_0BA@PFEGDHIO@GetMaxConscript?$AA@
CONST	SEGMENT
??_C@_0BA@PFEGDHIO@GetMaxConscript?$AA@ DB 'GetMaxConscript', 00H ; `string'
CONST	ENDS
;	COMDAT ??_C@_0BF@MPFKKCHC@ChangeConscriptCount?$AA@
CONST	SEGMENT
??_C@_0BF@MPFKKCHC@ChangeConscriptCount?$AA@ DB 'ChangeConscriptCount', 00H ; `string'
CONST	ENDS
;	COMDAT ??_C@_0BC@HEDGEPGG@SetConscriptCount?$AA@
CONST	SEGMENT
??_C@_0BC@HEDGEPGG@SetConscriptCount?$AA@ DB 'SetConscriptCount', 00H ; `string'
CONST	ENDS
;	COMDAT ??_C@_0BC@FBDNMEHI@GetConscriptCount?$AA@
CONST	SEGMENT
??_C@_0BC@FBDNMEHI@GetConscriptCount?$AA@ DB 'GetConscriptCount', 00H ; `string'
CONST	ENDS
;	COMDAT ??_C@_0BE@HICDOHEK@GetHighestUnitLevel?$AA@
CONST	SEGMENT
??_C@_0BE@HICDOHEK@GetHighestUnitLevel?$AA@ DB 'GetHighestUnitLevel', 00H ; `string'
CONST	ENDS
;	COMDAT ??_C@_0BJ@KOGLACFH@IsMilitaryFoodProduction?$AA@
CONST	SEGMENT
??_C@_0BJ@KOGLACFH@IsMilitaryFoodProduction?$AA@ DB 'IsMilitaryFoodProduc'
	DB	'tion', 00H					; `string'
CONST	ENDS
;	COMDAT ??_C@_0BI@EKFNFHH@GetHappyPerMilitaryUnit?$AA@
CONST	SEGMENT
??_C@_0BI@EKFNFHH@GetHappyPerMilitaryUnit?$AA@ DB 'GetHappyPerMilitaryUni'
	DB	't', 00H					; `string'
CONST	ENDS
;	COMDAT ??_C@_0BE@IFGDJNNN@GetNumMilitaryUnits?$AA@
CONST	SEGMENT
??_C@_0BE@IFGDJNNN@GetNumMilitaryUnits?$AA@ DB 'GetNumMilitaryUnits', 00H ; `string'
CONST	ENDS
;	COMDAT ??_C@_0BB@MPNKPEH@GetExtraUnitCost?$AA@
CONST	SEGMENT
??_C@_0BB@MPNKPEH@GetExtraUnitCost?$AA@ DB 'GetExtraUnitCost', 00H ; `string'
CONST	ENDS
;	COMDAT ??_C@_0BH@IBDMECLP@GetGoldPerMilitaryUnit?$AA@
CONST	SEGMENT
??_C@_0BH@IBDMECLP@GetGoldPerMilitaryUnit?$AA@ DB 'GetGoldPerMilitaryUnit'
	DB	00H						; `string'
CONST	ENDS
;	COMDAT ??_C@_0BK@NAABFPGN@ChangeGoldPerUnitTimes100?$AA@
CONST	SEGMENT
??_C@_0BK@NAABFPGN@ChangeGoldPerUnitTimes100?$AA@ DB 'ChangeGoldPerUnitTi'
	DB	'mes100', 00H				; `string'
CONST	ENDS
;	COMDAT ??_C@_0P@KLHLMHGG@GetGoldPerUnit?$AA@
CONST	SEGMENT
??_C@_0P@KLHLMHGG@GetGoldPerUnit?$AA@ DB 'GetGoldPerUnit', 00H ; `string'
CONST	ENDS
;	COMDAT ??_C@_0BD@FFLHNPMI@GetNumOutsideUnits?$AA@
CONST	SEGMENT
??_C@_0BD@FFLHNPMI@GetNumOutsideUnits?$AA@ DB 'GetNumOutsideUnits', 00H ; `string'
CONST	ENDS
;	COMDAT ??_C@_0BA@CHLGKBKN@GetNumNukeUnits?$AA@
CONST	SEGMENT
??_C@_0BA@CHLGKBKN@GetNumNukeUnits?$AA@ DB 'GetNumNukeUnits', 00H ; `string'
CONST	ENDS
;	COMDAT ??_C@_0BH@CNBJGBKN@GetCityDefenseModifier?$AA@
CONST	SEGMENT
??_C@_0BH@CNBJGBKN@GetCityDefenseModifier?$AA@ DB 'GetCityDefenseModifier'
	DB	00H						; `string'
CONST	ENDS
;	COMDAT ??_C@_0BH@JFCPPOKA@GetNumUnitsOutOfSupply?$AA@
CONST	SEGMENT
??_C@_0BH@JFCPPOKA@GetNumUnitsOutOfSupply?$AA@ DB 'GetNumUnitsOutOfSupply'
	DB	00H						; `string'
CONST	ENDS
;	COMDAT ??_C@_0CA@CBHKKKOG@GetNumUnitsSuppliedByPopulation?$AA@
CONST	SEGMENT
??_C@_0CA@CBHKKKOG@GetNumUnitsSuppliedByPopulation?$AA@ DB 'GetNumUnitsSu'
	DB	'ppliedByPopulation', 00H			; `string'
CONST	ENDS
;	COMDAT ??_C@_0BM@IPDKBGHK@GetNumUnitsSuppliedByCities?$AA@
CONST	SEGMENT
??_C@_0BM@IPDKBGHK@GetNumUnitsSuppliedByCities?$AA@ DB 'GetNumUnitsSuppli'
	DB	'edByCities', 00H				; `string'
CONST	ENDS
;	COMDAT ??_C@_0BO@PMEHJMFO@GetNumUnitsSuppliedByHandicap?$AA@
CONST	SEGMENT
??_C@_0BO@PMEHJMFO@GetNumUnitsSuppliedByHandicap?$AA@ DB 'GetNumUnitsSupp'
	DB	'liedByHandicap', 00H			; `string'
CONST	ENDS
;	COMDAT ??_C@_0BE@BILKHCNA@GetNumUnitsSupplied?$AA@
CONST	SEGMENT
??_C@_0BE@BILKHCNA@GetNumUnitsSupplied?$AA@ DB 'GetNumUnitsSupplied', 00H ; `string'
CONST	ENDS
;	COMDAT ??_C@_0CA@MEMPLKAL@GetUnitProductionMaintenanceMod?$AA@
CONST	SEGMENT
??_C@_0CA@MEMPLKAL@GetUnitProductionMaintenanceMod?$AA@ DB 'GetUnitProduc'
	DB	'tionMaintenanceMod', 00H			; `string'
CONST	ENDS
;	COMDAT ??_C@_0BM@HMIHDNFC@GetWonderProductionModifier?$AA@
CONST	SEGMENT
??_C@_0BM@HMIHDNFC@GetWonderProductionModifier?$AA@ DB 'GetWonderProducti'
	DB	'onModifier', 00H				; `string'
CONST	ENDS
;	COMDAT ??_C@_0CE@OBJBHEJM@GetCapitalSettlerProductionModif@
CONST	SEGMENT
??_C@_0CE@OBJBHEJM@GetCapitalSettlerProductionModif@ DB 'GetCapitalSettle'
	DB	'rProductionModifier', 00H			; `string'
CONST	ENDS
;	COMDAT ??_C@_0BN@PJHHAPCJ@GetSettlerProductionModifier?$AA@
CONST	SEGMENT
??_C@_0BN@PJHHAPCJ@GetSettlerProductionModifier?$AA@ DB 'GetSettlerProduc'
	DB	'tionModifier', 00H				; `string'
CONST	ENDS
;	COMDAT ??_C@_0BL@EMAHKCFF@GetSpaceProductionModifier?$AA@
CONST	SEGMENT
??_C@_0BL@EMAHKCFF@GetSpaceProductionModifier?$AA@ DB 'GetSpaceProduction'
	DB	'Modifier', 00H				; `string'
CONST	ENDS
;	COMDAT ??_C@_0BO@FAMIPBGF@GetMilitaryProductionModifier?$AA@
CONST	SEGMENT
??_C@_0BO@FAMIPBGF@GetMilitaryProductionModifier?$AA@ DB 'GetMilitaryProd'
	DB	'uctionModifier', 00H			; `string'
CONST	ENDS
;	COMDAT ??_C@_0CC@EGHOKLNO@GetImprovementUpgradeRateModifie@
CONST	SEGMENT
??_C@_0CC@EGHOKLNO@GetImprovementUpgradeRateModifie@ DB 'GetImprovementUp'
	DB	'gradeRateModifier', 00H			; `string'
CONST	ENDS
;	COMDAT ??_C@_0BH@OLIFBLOM@GetWorkerSpeedModifier?$AA@
CONST	SEGMENT
??_C@_0BH@OLIFBLOM@GetWorkerSpeedModifier?$AA@ DB 'GetWorkerSpeedModifier'
	DB	00H						; `string'
CONST	ENDS
;	COMDAT ??_C@_0BN@CNPJHBNO@GetFeatureProductionModifier?$AA@
CONST	SEGMENT
??_C@_0BN@CNPJHBNO@GetFeatureProductionModifier?$AA@ DB 'GetFeatureProduc'
	DB	'tionModifier', 00H				; `string'
CONST	ENDS
;	COMDAT ??_C@_0BC@KJGDLEFF@GetFreeExperience?$AA@
CONST	SEGMENT
??_C@_0BC@KJGDLEFF@GetFreeExperience?$AA@ DB 'GetFreeExperience', 00H ; `string'
CONST	ENDS
;	COMDAT ??_C@_0CH@IPPDDFAE@GetMaxPlayerBuildingProductionMo@
CONST	SEGMENT
??_C@_0CH@IPPDDFAE@GetMaxPlayerBuildingProductionMo@ DB 'GetMaxPlayerBuil'
	DB	'dingProductionModifier', 00H		; `string'
CONST	ENDS
;	COMDAT ??_C@_0CF@IEGALNMD@GetMaxTeamBuildingProductionModi@
CONST	SEGMENT
??_C@_0CF@IEGALNMD@GetMaxTeamBuildingProductionModi@ DB 'GetMaxTeamBuildi'
	DB	'ngProductionModifier', 00H			; `string'
CONST	ENDS
;	COMDAT ??_C@_0CH@MPJDKCLN@GetMaxGlobalBuildingProductionMo@
CONST	SEGMENT
??_C@_0CH@MPJDKCLN@GetMaxGlobalBuildingProductionMo@ DB 'GetMaxGlobalBuil'
	DB	'dingProductionModifier', 00H		; `string'
CONST	ENDS
;	COMDAT ??_C@_0CA@IIOBOOCG@GetSpecialistProductionModifier?$AA@
CONST	SEGMENT
??_C@_0CA@IIOBOOCG@GetSpecialistProductionModifier?$AA@ DB 'GetSpecialist'
	DB	'ProductionModifier', 00H			; `string'
CONST	ENDS
;	COMDAT ??_C@_0BN@FIGLLOHP@GetProjectProductionModifier?$AA@
CONST	SEGMENT
??_C@_0BN@FIGLLOHP@GetProjectProductionModifier?$AA@ DB 'GetProjectProduc'
	DB	'tionModifier', 00H				; `string'
CONST	ENDS
;	COMDAT ??_C@_0BO@BOIFPPNB@GetBuildingProductionModifier?$AA@
CONST	SEGMENT
??_C@_0BO@BOIFPPNB@GetBuildingProductionModifier?$AA@ DB 'GetBuildingProd'
	DB	'uctionModifier', 00H			; `string'
CONST	ENDS
;	COMDAT ??_C@_0BK@CAONOBAD@GetUnitProductionModifier?$AA@
CONST	SEGMENT
??_C@_0BK@CAONOBAD@GetUnitProductionModifier?$AA@ DB 'GetUnitProductionMo'
	DB	'difier', 00H				; `string'
CONST	ENDS
;	COMDAT ??_C@_0BG@COALBBFM@GetProductionModifier?$AA@
CONST	SEGMENT
??_C@_0BG@COALBBFM@GetProductionModifier?$AA@ DB 'GetProductionModifier', 00H ; `string'
CONST	ENDS
;	COMDAT ??_C@_0CD@HOFMMBHK@GetPolicyGreatEngineerRateModifi@
CONST	SEGMENT
??_C@_0CD@HOFMMBHK@GetPolicyGreatEngineerRateModifi@ DB 'GetPolicyGreatEn'
	DB	'gineerRateModifier', 00H			; `string'
CONST	ENDS
;	COMDAT ??_C@_0CD@DKCDGIM@GetPolicyGreatMerchantRateModifi@
CONST	SEGMENT
??_C@_0CD@DKCDGIM@GetPolicyGreatMerchantRateModifi@ DB 'GetPolicyGreatMer'
	DB	'chantRateModifier', 00H			; `string'
CONST	ENDS
;	COMDAT ??_C@_0CE@DBDAMIKN@GetPolicyGreatScientistRateModif@
CONST	SEGMENT
??_C@_0CE@DBDAMIKN@GetPolicyGreatScientistRateModif@ DB 'GetPolicyGreatSc'
	DB	'ientistRateModifier', 00H			; `string'
CONST	ENDS
;	COMDAT ??_C@_0CD@JHHGEB@GetPolicyGreatMusicianRateModifi@
CONST	SEGMENT
??_C@_0CD@JHHGEB@GetPolicyGreatMusicianRateModifi@ DB 'GetPolicyGreatMusi'
	DB	'cianRateModifier', 00H			; `string'
CONST	ENDS
;	COMDAT ??_C@_0CB@MMGEIAFA@GetPolicyGreatArtistRateModifier@
CONST	SEGMENT
??_C@_0CB@MMGEIAFA@GetPolicyGreatArtistRateModifier@ DB 'GetPolicyGreatAr'
	DB	'tistRateModifier', 00H			; `string'
CONST	ENDS
;	COMDAT ??_C@_0CB@DGCCPGOK@GetPolicyGreatWriterRateModifier@
CONST	SEGMENT
??_C@_0CB@DGCCPGOK@GetPolicyGreatWriterRateModifier@ DB 'GetPolicyGreatWr'
	DB	'iterRateModifier', 00H			; `string'
CONST	ENDS
;	COMDAT ??_C@_0CB@LFJJFBJB@GetPolicyGreatPeopleRateModifier@
CONST	SEGMENT
??_C@_0CB@LFJJFBJB@GetPolicyGreatPeopleRateModifier@ DB 'GetPolicyGreatPe'
	DB	'opleRateModifier', 00H			; `string'
CONST	ENDS
;	COMDAT ??_C@_0BN@GFFELKAF@GetGreatEngineerRateModifier?$AA@
CONST	SEGMENT
??_C@_0BN@GFFELKAF@GetGreatEngineerRateModifier?$AA@ DB 'GetGreatEngineer'
	DB	'RateModifier', 00H				; `string'
CONST	ENDS
;	COMDAT ??_C@_0BN@BIKKENPD@GetGreatMerchantRateModifier?$AA@
CONST	SEGMENT
??_C@_0BN@BIKKENPD@GetGreatMerchantRateModifier?$AA@ DB 'GetGreatMerchant'
	DB	'RateModifier', 00H				; `string'
CONST	ENDS
;	COMDAT ??_C@_0BO@PBJBKMHL@GetGreatScientistRateModifier?$AA@
CONST	SEGMENT
??_C@_0BO@PBJBKMHL@GetGreatScientistRateModifier?$AA@ DB 'GetGreatScienti'
	DB	'stRateModifier', 00H			; `string'
CONST	ENDS
;	COMDAT ??_C@_0BN@BLJPANDO@GetGreatMusicianRateModifier?$AA@
CONST	SEGMENT
??_C@_0BN@BLJPANDO@GetGreatMusicianRateModifier?$AA@ DB 'GetGreatMusician'
	DB	'RateModifier', 00H				; `string'
CONST	ENDS
;	COMDAT ??_C@_0BL@KECMPOFM@GetGreatArtistRateModifier?$AA@
CONST	SEGMENT
??_C@_0BL@KECMPOFM@GetGreatArtistRateModifier?$AA@ DB 'GetGreatArtistRate'
	DB	'Modifier', 00H				; `string'
CONST	ENDS
;	COMDAT ??_C@_0BL@FOGKIIOG@GetGreatWriterRateModifier?$AA@
CONST	SEGMENT
??_C@_0BL@FOGKIIOG@GetGreatWriterRateModifier?$AA@ DB 'GetGreatWriterRate'
	DB	'Modifier', 00H				; `string'
CONST	ENDS
;	COMDAT ??_C@_0CE@NBFMLJOA@GetDomesticGreatGeneralRateModif@
CONST	SEGMENT
??_C@_0CE@NBFMLJOA@GetDomesticGreatGeneralRateModif@ DB 'GetDomesticGreat'
	DB	'GeneralRateModifier', 00H			; `string'
CONST	ENDS
;	COMDAT ??_C@_0BM@BPCIOMLO@GetGreatGeneralRateModifier?$AA@
CONST	SEGMENT
??_C@_0BM@BPCIOMLO@GetGreatGeneralRateModifier?$AA@ DB 'GetGreatGeneralRa'
	DB	'teModifier', 00H				; `string'
CONST	ENDS
;	COMDAT ??_C@_0BL@NNNBCPJN@GetGreatPeopleRateModifier?$AA@
CONST	SEGMENT
??_C@_0BL@NNNBCPJN@GetGreatPeopleRateModifier?$AA@ DB 'GetGreatPeopleRate'
	DB	'Modifier', 00H				; `string'
CONST	ENDS
;	COMDAT ??_C@_0CC@GGFJPDKI@GetGreatAdmiralsThresholdModifie@
CONST	SEGMENT
??_C@_0CC@GGFJPDKI@GetGreatAdmiralsThresholdModifie@ DB 'GetGreatAdmirals'
	DB	'ThresholdModifier', 00H			; `string'
CONST	ENDS
;	COMDAT ??_C@_0CC@KEPHPFIK@GetGreatGeneralsThresholdModifie@
CONST	SEGMENT
??_C@_0CC@KEPHPFIK@GetGreatGeneralsThresholdModifie@ DB 'GetGreatGenerals'
	DB	'ThresholdModifier', 00H			; `string'
CONST	ENDS
;	COMDAT ??_C@_0CA@CKCODGOH@GetGreatPeopleThresholdModifier?$AA@
CONST	SEGMENT
??_C@_0CA@CKCODGOH@GetGreatPeopleThresholdModifier?$AA@ DB 'GetGreatPeopl'
	DB	'eThresholdModifier', 00H			; `string'
CONST	ENDS
;	COMDAT ??_C@_0BI@JEHAPHOE@GetGreatGeneralsCreated?$AA@
CONST	SEGMENT
??_C@_0BI@JEHAPHOE@GetGreatGeneralsCreated?$AA@ DB 'GetGreatGeneralsCreat'
	DB	'ed', 00H					; `string'
CONST	ENDS
;	COMDAT ??_C@_0BG@GOOPLPC@GetGreatPeopleCreated?$AA@
CONST	SEGMENT
??_C@_0BG@GOOPLPC@GetGreatPeopleCreated?$AA@ DB 'GetGreatPeopleCreated', 00H ; `string'
CONST	ENDS
;	COMDAT ??_C@_0BD@PBNOMGLK@CreateGreatGeneral?$AA@
CONST	SEGMENT
??_C@_0BD@PBNOMGLK@CreateGreatGeneral?$AA@ DB 'CreateGreatGeneral', 00H ; `string'
CONST	ENDS
;	COMDAT ??_C@_0BB@EAPJMMAA@GetHurryModifier?$AA@
CONST	SEGMENT
??_C@_0BB@EAPJMMAA@GetHurryModifier?$AA@ DB 'GetHurryModifier', 00H ; `string'
CONST	ENDS
;	COMDAT ??_C@_0CG@HCINBNOL@GetGoldenAgeGreatMusicianRateMod@
CONST	SEGMENT
??_C@_0CG@HCINBNOL@GetGoldenAgeGreatMusicianRateMod@ DB 'GetGoldenAgeGrea'
	DB	'tMusicianRateModifier', 00H			; `string'
CONST	ENDS
;	COMDAT ??_C@_0CE@HHFLCCEA@GetGoldenAgeGreatArtistRateModif@
CONST	SEGMENT
??_C@_0CE@HHFLCCEA@GetGoldenAgeGreatArtistRateModif@ DB 'GetGoldenAgeGrea'
	DB	'tArtistRateModifier', 00H			; `string'
CONST	ENDS
;	COMDAT ??_C@_0CE@INBNFEPK@GetGoldenAgeGreatWriterRateModif@
CONST	SEGMENT
??_C@_0CE@INBNFEPK@GetGoldenAgeGreatWriterRateModif@ DB 'GetGoldenAgeGrea'
	DB	'tWriterRateModifier', 00H			; `string'
CONST	ENDS
;	COMDAT ??_C@_0BM@GFBIOEFN@GetGoldenAgeTourismModifier?$AA@
CONST	SEGMENT
??_C@_0BM@GFBIOEFN@GetGoldenAgeTourismModifier?$AA@ DB 'GetGoldenAgeTouri'
	DB	'smModifier', 00H				; `string'
CONST	ENDS
;	COMDAT ??_C@_0BF@GCOBNFFJ@GetGoldenAgeModifier?$AA@
CONST	SEGMENT
??_C@_0BF@GCOBNFFJ@GetGoldenAgeModifier?$AA@ DB 'GetGoldenAgeModifier', 00H ; `string'
CONST	ENDS
;	COMDAT ??_C@_0P@HJMIOKAH@GetStrikeTurns?$AA@
CONST	SEGMENT
??_C@_0P@HJMIOKAH@GetStrikeTurns?$AA@ DB 'GetStrikeTurns', 00H ; `string'
CONST	ENDS
;	COMDAT ??_C@_0BI@FPIFLKMJ@ChangeNumUnitGoldenAges?$AA@
CONST	SEGMENT
??_C@_0BI@FPIFLKMJ@ChangeNumUnitGoldenAges?$AA@ DB 'ChangeNumUnitGoldenAg'
	DB	'es', 00H					; `string'
CONST	ENDS
;	COMDAT ??_C@_0BF@LCGDAHFL@GetNumUnitGoldenAges?$AA@
CONST	SEGMENT
??_C@_0BF@LCGDAHFL@GetNumUnitGoldenAges?$AA@ DB 'GetNumUnitGoldenAges', 00H ; `string'
CONST	ENDS
;	COMDAT ??_C@_0BF@OADGEBIB@ChangeGoldenAgeTurns?$AA@
CONST	SEGMENT
??_C@_0BF@OADGEBIB@ChangeGoldenAgeTurns?$AA@ DB 'ChangeGoldenAgeTurns', 00H ; `string'
CONST	ENDS
;	COMDAT ??_C@_0M@EBKACFHH@IsGoldenAge?$AA@
CONST	SEGMENT
??_C@_0M@EBKACFHH@IsGoldenAge?$AA@ DB 'IsGoldenAge', 00H ; `string'
CONST	ENDS
;	COMDAT ??_C@_0BD@FNIABJJO@GetGoldenAgeLength?$AA@
CONST	SEGMENT
??_C@_0BD@FNIABJJO@GetGoldenAgeLength?$AA@ DB 'GetGoldenAgeLength', 00H ; `string'
CONST	ENDS
;	COMDAT ??_C@_0BC@HOFBCHIL@GetGoldenAgeTurns?$AA@
CONST	SEGMENT
??_C@_0BC@HOFBCHIL@GetGoldenAgeTurns?$AA@ DB 'GetGoldenAgeTurns', 00H ; `string'
CONST	ENDS
;	COMDAT ??_C@_0BE@EPHOEOBB@ChangeNumGoldenAges?$AA@
CONST	SEGMENT
??_C@_0BE@EPHOEOBB@ChangeNumGoldenAges?$AA@ DB 'ChangeNumGoldenAges', 00H ; `string'
CONST	ENDS
;	COMDAT ??_C@_0BB@CINEFJKE@SetNumGoldenAges?$AA@
CONST	SEGMENT
??_C@_0BB@CINEFJKE@SetNumGoldenAges?$AA@ DB 'SetNumGoldenAges', 00H ; `string'
CONST	ENDS
;	COMDAT ??_C@_0BB@EMINOHBG@GetNumGoldenAges?$AA@
CONST	SEGMENT
??_C@_0BB@EMINOHBG@GetNumGoldenAges?$AA@ DB 'GetNumGoldenAges', 00H ; `string'
CONST	ENDS
;	COMDAT ??_C@_0BN@FJAKLENJ@ChangeGoldenAgeProgressMeter?$AA@
CONST	SEGMENT
??_C@_0BN@FJAKLENJ@ChangeGoldenAgeProgressMeter?$AA@ DB 'ChangeGoldenAgeP'
	DB	'rogressMeter', 00H				; `string'
CONST	ENDS
;	COMDAT ??_C@_0BK@NLKNLKPL@SetGoldenAgeProgressMeter?$AA@
CONST	SEGMENT
??_C@_0BK@NLKNLKPL@SetGoldenAgeProgressMeter?$AA@ DB 'SetGoldenAgeProgres'
	DB	'sMeter', 00H				; `string'
CONST	ENDS
;	COMDAT ??_C@_0BK@FLGLHHFN@GetGoldenAgeProgressMeter?$AA@
CONST	SEGMENT
??_C@_0BK@FLGLHHFN@GetGoldenAgeProgressMeter?$AA@ DB 'GetGoldenAgeProgres'
	DB	'sMeter', 00H				; `string'
CONST	ENDS
;	COMDAT ??_C@_0BO@LPPFEDND@GetGoldenAgeProgressThreshold?$AA@
CONST	SEGMENT
??_C@_0BO@LPPFEDND@GetGoldenAgeProgressThreshold?$AA@ DB 'GetGoldenAgePro'
	DB	'gressThreshold', 00H			; `string'
CONST	ENDS
;	COMDAT ??_C@_0BF@CGIAJLKI@GetTourismBonusTurns?$AA@
CONST	SEGMENT
??_C@_0BF@CGIAJLKI@GetTourismBonusTurns?$AA@ DB 'GetTourismBonusTurns', 00H ; `string'
CONST	ENDS
;	COMDAT ??_C@_0BF@ECALGNHI@GetCultureBonusTurns?$AA@
CONST	SEGMENT
??_C@_0BF@ECALGNHI@GetCultureBonusTurns?$AA@ DB 'GetCultureBonusTurns', 00H ; `string'
CONST	ENDS
;	COMDAT ??_C@_0BE@DHPFLJOB@GetAttackBonusTurns?$AA@
CONST	SEGMENT
??_C@_0BE@DHPFLJOB@GetAttackBonusTurns?$AA@ DB 'GetAttackBonusTurns', 00H ; `string'
CONST	ENDS
;	COMDAT ??_C@_0BP@EFPNHEAL@GetAdvancedStartVisibilityCost?$AA@
CONST	SEGMENT
??_C@_0BP@EFPNHEAL@GetAdvancedStartVisibilityCost?$AA@ DB 'GetAdvancedSta'
	DB	'rtVisibilityCost', 00H			; `string'
CONST	ENDS
;	COMDAT ??_C@_0BJ@BIBNNGIB@GetAdvancedStartTechCost?$AA@
CONST	SEGMENT
??_C@_0BJ@BIBNNGIB@GetAdvancedStartTechCost?$AA@ DB 'GetAdvancedStartTech'
	DB	'Cost', 00H					; `string'
CONST	ENDS
;	COMDAT ??_C@_0BK@JJCKPMNB@GetAdvancedStartRouteCost?$AA@
CONST	SEGMENT
??_C@_0BK@JJCKPMNB@GetAdvancedStartRouteCost?$AA@ DB 'GetAdvancedStartRou'
	DB	'teCost', 00H				; `string'
CONST	ENDS
;	COMDAT ??_C@_0CA@DCEELAJ@GetAdvancedStartImprovementCost?$AA@
CONST	SEGMENT
??_C@_0CA@DCEELAJ@GetAdvancedStartImprovementCost?$AA@ DB 'GetAdvancedSta'
	DB	'rtImprovementCost', 00H			; `string'
CONST	ENDS
;	COMDAT ??_C@_0BN@BBJMEHC@GetAdvancedStartBuildingCost?$AA@
CONST	SEGMENT
??_C@_0BN@BBJMEHC@GetAdvancedStartBuildingCost?$AA@ DB 'GetAdvancedStartB'
	DB	'uildingCost', 00H				; `string'
CONST	ENDS
;	COMDAT ??_C@_0BI@FOAJKADD@GetAdvancedStartPopCost?$AA@
CONST	SEGMENT
??_C@_0BI@FOAJKADD@GetAdvancedStartPopCost?$AA@ DB 'GetAdvancedStartPopCo'
	DB	'st', 00H					; `string'
CONST	ENDS
;	COMDAT ??_C@_0BJ@ONOAJPAI@GetAdvancedStartCityCost?$AA@
CONST	SEGMENT
??_C@_0BJ@ONOAJPAI@GetAdvancedStartCityCost?$AA@ DB 'GetAdvancedStartCity'
	DB	'Cost', 00H					; `string'
CONST	ENDS
;	COMDAT ??_C@_0BJ@ICGIEDDK@GetAdvancedStartUnitCost?$AA@
CONST	SEGMENT
??_C@_0BJ@ICGIEDDK@GetAdvancedStartUnitCost?$AA@ DB 'GetAdvancedStartUnit'
	DB	'Cost', 00H					; `string'
CONST	ENDS
;	COMDAT ??_C@_0BK@FJENIMJD@ChangeAdvancedStartPoints?$AA@
CONST	SEGMENT
??_C@_0BK@FJENIMJD@ChangeAdvancedStartPoints?$AA@ DB 'ChangeAdvancedStart'
	DB	'Points', 00H				; `string'
CONST	ENDS
;	COMDAT ??_C@_0BH@KOMEGBAD@SetAdvancedStartPoints?$AA@
CONST	SEGMENT
??_C@_0BH@KOMEGBAD@SetAdvancedStartPoints?$AA@ DB 'SetAdvancedStartPoints'
	DB	00H						; `string'
CONST	ENDS
;	COMDAT ??_C@_0BH@KPOKEGNM@GetAdvancedStartPoints?$AA@
CONST	SEGMENT
??_C@_0BH@KPOKEGNM@GetAdvancedStartPoints?$AA@ DB 'GetAdvancedStartPoints'
	DB	00H						; `string'
CONST	ENDS
;	COMDAT ??_C@_0BG@LEGAIOCI@ChangeAnarchyNumTurns?$AA@
CONST	SEGMENT
??_C@_0BG@LEGAIOCI@ChangeAnarchyNumTurns?$AA@ DB 'ChangeAnarchyNumTurns', 00H ; `string'
CONST	ENDS
;	COMDAT ??_C@_0BD@KOABDGLI@SetAnarchyNumTurns?$AA@
CONST	SEGMENT
??_C@_0BD@KOABDGLI@SetAnarchyNumTurns?$AA@ DB 'SetAnarchyNumTurns', 00H ; `string'
CONST	ENDS
;	COMDAT ??_C@_0BD@FECLAAFA@GetAnarchyNumTurns?$AA@
CONST	SEGMENT
??_C@_0BD@FECLAAFA@GetAnarchyNumTurns?$AA@ DB 'GetAnarchyNumTurns', 00H ; `string'
CONST	ENDS
;	COMDAT ??_C@_09FIFKNOKC@IsAnarchy?$AA@
CONST	SEGMENT
??_C@_09FIFKNOKC@IsAnarchy?$AA@ DB 'IsAnarchy', 00H	; `string'
CONST	ENDS
;	COMDAT ??_C@_08DLFCFIKN@GetTenet?$AA@
CONST	SEGMENT
??_C@_08DLFCFIKN@GetTenet?$AA@ DB 'GetTenet', 00H	; `string'
CONST	ENDS
;	COMDAT ??_C@_0BD@LDLHNBJO@GetAvailableTenets?$AA@
CONST	SEGMENT
??_C@_0BD@LDLHNBJO@GetAvailableTenets?$AA@ DB 'GetAvailableTenets', 00H ; `string'
CONST	ENDS
;	COMDAT ??_C@_0BH@HCDPPGCO@IsPolicyBranchFinished?$AA@
CONST	SEGMENT
??_C@_0BH@HCDPPGCO@IsPolicyBranchFinished?$AA@ DB 'IsPolicyBranchFinished'
	DB	00H						; `string'
CONST	ENDS
;	COMDAT ??_C@_0BN@PJMELKMJ@GetNumPolicyBranchesFinished?$AA@
CONST	SEGMENT
??_C@_0BN@PJMELKMJ@GetNumPolicyBranchesFinished?$AA@ DB 'GetNumPolicyBran'
	DB	'chesFinished', 00H				; `string'
CONST	ENDS
;	COMDAT ??_C@_0BM@KBCLIFBL@GetPolicyCatchSpiesModifier?$AA@
CONST	SEGMENT
??_C@_0BM@KBCLIFBL@GetPolicyCatchSpiesModifier?$AA@ DB 'GetPolicyCatchSpi'
	DB	'esModifier', 00H				; `string'
CONST	ENDS
;	COMDAT ??_C@_0BB@OHKMDAD@GetBranchPicked3?$AA@
CONST	SEGMENT
??_C@_0BB@OHKMDAD@GetBranchPicked3?$AA@ DB 'GetBranchPicked3', 00H ; `string'
CONST	ENDS
;	COMDAT ??_C@_0BB@BHGBPCEC@GetBranchPicked2?$AA@
CONST	SEGMENT
??_C@_0BB@BHGBPCEC@GetBranchPicked2?$AA@ DB 'GetBranchPicked2', 00H ; `string'
CONST	ENDS
;	COMDAT ??_C@_0BB@DMEMKBIB@GetBranchPicked1?$AA@
CONST	SEGMENT
??_C@_0BB@DMEMKBIB@GetBranchPicked1?$AA@ DB 'GetBranchPicked1', 00H ; `string'
CONST	ENDS
;	COMDAT ??_C@_0BG@DOHPFKJL@GetLateGamePolicyTree?$AA@
CONST	SEGMENT
??_C@_0BG@DOHPFKJL@GetLateGamePolicyTree?$AA@ DB 'GetLateGamePolicyTree', 00H ; `string'
CONST	ENDS
;	COMDAT ??_C@_0CA@DEKBLMFE@GetDominantPolicyBranchForTitle?$AA@
CONST	SEGMENT
??_C@_0CA@DEKBLMFE@GetDominantPolicyBranchForTitle?$AA@ DB 'GetDominantPo'
	DB	'licyBranchForTitle', 00H			; `string'
CONST	ENDS
;	COMDAT ??_C@_0BG@MONIAELO@CanUnlockPolicyBranch?$AA@
CONST	SEGMENT
??_C@_0BG@MONIAELO@CanUnlockPolicyBranch?$AA@ DB 'CanUnlockPolicyBranch', 00H ; `string'
CONST	ENDS
;	COMDAT ??_C@_0O@JILLCNOF@DoAdoptPolicy?$AA@
CONST	SEGMENT
??_C@_0O@JILLCNOF@DoAdoptPolicy?$AA@ DB 'DoAdoptPolicy', 00H ; `string'
CONST	ENDS
;	COMDAT ??_C@_0P@NBAEIJPB@CanAdoptPolicy?$AA@
CONST	SEGMENT
??_C@_0P@NBAEIJPB@CanAdoptPolicy?$AA@ DB 'CanAdoptPolicy', 00H ; `string'
CONST	ENDS
;	COMDAT ??_C@_0BC@HNDGHHDL@GetNextPolicyCost?$AA@
CONST	SEGMENT
??_C@_0BC@HNDGHHDL@GetNextPolicyCost?$AA@ DB 'GetNextPolicyCost', 00H ; `string'
CONST	ENDS
;	COMDAT ??_C@_0N@CKJMFNFA@SetHasPolicy?$AA@
CONST	SEGMENT
??_C@_0N@CKJMFNFA@SetHasPolicy?$AA@ DB 'SetHasPolicy', 00H ; `string'
CONST	ENDS
;	COMDAT ??_C@_09IMCIBCHC@HasPolicy?$AA@
CONST	SEGMENT
??_C@_09IMCIBCHC@HasPolicy?$AA@ DB 'HasPolicy', 00H	; `string'
CONST	ENDS
;	COMDAT ??_C@_0BH@OLJHEJDP@GetNumPoliciesInBranch?$AA@
CONST	SEGMENT
??_C@_0BH@OLJHEJDP@GetNumPoliciesInBranch?$AA@ DB 'GetNumPoliciesInBranch'
	DB	00H						; `string'
CONST	ENDS
;	COMDAT ??_C@_0P@LDBNHHDO@GetNumPolicies?$AA@
CONST	SEGMENT
??_C@_0P@LDBNHHDO@GetNumPolicies?$AA@ DB 'GetNumPolicies', 00H ; `string'
CONST	ENDS
;	COMDAT ??_C@_0BM@DDGOEEIN@GetNumPolicyBranchesAllowed?$AA@
CONST	SEGMENT
??_C@_0BM@DDGOEEIN@GetNumPolicyBranchesAllowed?$AA@ DB 'GetNumPolicyBranc'
	DB	'hesAllowed', 00H				; `string'
CONST	ENDS
;	COMDAT ??_C@_0BG@KGNNGKHG@GetPolicyBranchChosen?$AA@
CONST	SEGMENT
??_C@_0BG@KGNNGKHG@GetPolicyBranchChosen?$AA@ DB 'GetPolicyBranchChosen', 00H ; `string'
CONST	ENDS
;	COMDAT ??_C@_0BN@FFNPAHDM@GetNumPolicyBranchesUnlocked?$AA@
CONST	SEGMENT
??_C@_0BN@FFNPAHDM@GetNumPolicyBranchesUnlocked?$AA@ DB 'GetNumPolicyBran'
	DB	'chesUnlocked', 00H				; `string'
CONST	ENDS
;	COMDAT ??_C@_0BI@GJDFFJHC@SetPolicyBranchUnlocked?$AA@
CONST	SEGMENT
??_C@_0BI@GJDFFJHC@SetPolicyBranchUnlocked?$AA@ DB 'SetPolicyBranchUnlock'
	DB	'ed', 00H					; `string'
CONST	ENDS
;	COMDAT ??_C@_0BH@NOCEELNL@IsPolicyBranchUnlocked?$AA@
CONST	SEGMENT
??_C@_0BH@NOCEELNL@IsPolicyBranchUnlocked?$AA@ DB 'IsPolicyBranchUnlocked'
	DB	00H						; `string'
CONST	ENDS
;	COMDAT ??_C@_0BG@KBLODJLM@IsPolicyBranchBlocked?$AA@
CONST	SEGMENT
??_C@_0BG@KBLODJLM@IsPolicyBranchBlocked?$AA@ DB 'IsPolicyBranchBlocked', 00H ; `string'
CONST	ENDS
;	COMDAT ??_C@_0BA@DKMNPPBN@IsPolicyBlocked?$AA@
CONST	SEGMENT
??_C@_0BA@DKMNPPBN@IsPolicyBlocked?$AA@ DB 'IsPolicyBlocked', 00H ; `string'
CONST	ENDS
;	COMDAT ??_C@_0BO@NCGBNEJP@ChangeAlwaysSeeBarbCampsCount?$AA@
CONST	SEGMENT
??_C@_0BO@NCGBNEJP@ChangeAlwaysSeeBarbCampsCount?$AA@ DB 'ChangeAlwaysSee'
	DB	'BarbCampsCount', 00H			; `string'
CONST	ENDS
;	COMDAT ??_C@_0BL@HIDDCHF@SetAlwaysSeeBarbCampsCount?$AA@
CONST	SEGMENT
??_C@_0BL@HIDDCHF@SetAlwaysSeeBarbCampsCount?$AA@ DB 'SetAlwaysSeeBarbCam'
	DB	'psCount', 00H				; `string'
CONST	ENDS
;	COMDAT ??_C@_0BF@HGKGHLME@IsAlwaysSeeBarbCamps?$AA@
CONST	SEGMENT
??_C@_0BF@HGKGHLME@IsAlwaysSeeBarbCamps?$AA@ DB 'IsAlwaysSeeBarbCamps', 00H ; `string'
CONST	ENDS
;	COMDAT ??_C@_0CI@CPNKMMFB@ChangeGarrisonedCityRangeStrikeM@
CONST	SEGMENT
??_C@_0CI@CPNKMMFB@ChangeGarrisonedCityRangeStrikeM@ DB 'ChangeGarrisoned'
	DB	'CityRangeStrikeModifier', 00H		; `string'
CONST	ENDS
;	COMDAT ??_C@_0CF@HCFHKNHE@GetGarrisonedCityRangeStrikeModi@
CONST	SEGMENT
??_C@_0CF@HCFHKNHE@GetGarrisonedCityRangeStrikeModi@ DB 'GetGarrisonedCit'
	DB	'yRangeStrikeModifier', 00H			; `string'
CONST	ENDS
;	COMDAT ??_C@_0BL@DLHHGHDO@GetCombatBonusVsSmallerCiv?$AA@
CONST	SEGMENT
??_C@_0BL@DLHHGHDO@GetCombatBonusVsSmallerCiv?$AA@ DB 'GetCombatBonusVsSm'
	DB	'allerCiv', 00H				; `string'
CONST	ENDS
;	COMDAT ??_C@_0BK@CFFLCBFM@GetCombatBonusVsLargerCiv?$AA@
CONST	SEGMENT
??_C@_0BK@CFFLCBFM@GetCombatBonusVsLargerCiv?$AA@ DB 'GetCombatBonusVsLar'
	DB	'gerCiv', 00H				; `string'
CONST	ENDS
;	COMDAT ??_C@_0BL@NBFOBEAE@GetCombatBonusVsHigherTech?$AA@
CONST	SEGMENT
??_C@_0BL@NBFOBEAE@GetCombatBonusVsHigherTech?$AA@ DB 'GetCombatBonusVsHi'
	DB	'gherTech', 00H				; `string'
CONST	ENDS
;	COMDAT ??_C@_0BL@ENNNGIPB@ChangeBarbarianCombatBonus?$AA@
CONST	SEGMENT
??_C@_0BL@ENNNGIPB@ChangeBarbarianCombatBonus?$AA@ DB 'ChangeBarbarianCom'
	DB	'batBonus', 00H				; `string'
CONST	ENDS
;	COMDAT ??_C@_0BI@LNCFHCFI@SetBarbarianCombatBonus?$AA@
CONST	SEGMENT
??_C@_0BI@LNCFHCFI@SetBarbarianCombatBonus?$AA@ DB 'SetBarbarianCombatBon'
	DB	'us', 00H					; `string'
CONST	ENDS
;	COMDAT ??_C@_0BI@KLEIJDDK@GetBarbarianCombatBonus?$AA@
CONST	SEGMENT
??_C@_0BI@KLEIJDDK@GetBarbarianCombatBonus?$AA@ DB 'GetBarbarianCombatBon'
	DB	'us', 00H					; `string'
CONST	ENDS
;	COMDAT ??_C@_0BG@DIIAGAEM@GetHappinessFromMinor?$AA@
CONST	SEGMENT
??_C@_0BG@DIIAGAEM@GetHappinessFromMinor?$AA@ DB 'GetHappinessFromMinor', 00H ; `string'
CONST	ENDS
;	COMDAT ??_C@_0BK@IHIHKILH@GetHappinessFromMinorCivs?$AA@
CONST	SEGMENT
??_C@_0BK@IHIHKILH@GetHappinessFromMinorCivs?$AA@ DB 'GetHappinessFromMin'
	DB	'orCivs', 00H				; `string'
CONST	ENDS
;	COMDAT ??_C@_0CI@JLDDCPMO@GetCityConnectionTradeRouteGoldM@
CONST	SEGMENT
??_C@_0CI@JLDDCPMO@GetCityConnectionTradeRouteGoldM@ DB 'GetCityConnectio'
	DB	'nTradeRouteGoldModifier', 00H		; `string'
CONST	ENDS
;	COMDAT ??_C@_0BN@CKMFDGG@ChangeHappinessPerTradeRoute?$AA@
CONST	SEGMENT
??_C@_0BN@CKMFDGG@ChangeHappinessPerTradeRoute?$AA@ DB 'ChangeHappinessPe'
	DB	'rTradeRoute', 00H				; `string'
CONST	ENDS
;	COMDAT ??_C@_0BK@IAALFNEE@SetHappinessPerTradeRoute?$AA@
CONST	SEGMENT
??_C@_0BK@IAALFNEE@SetHappinessPerTradeRoute?$AA@ DB 'SetHappinessPerTrad'
	DB	'eRoute', 00H				; `string'
CONST	ENDS
;	COMDAT ??_C@_0BK@MNJAOC@GetHappinessPerTradeRoute?$AA@
CONST	SEGMENT
??_C@_0BK@MNJAOC@GetHappinessPerTradeRoute?$AA@ DB 'GetHappinessPerTradeR'
	DB	'oute', 00H					; `string'
CONST	ENDS
;	COMDAT ??_C@_0BM@ONEGOIFC@GetHappinessFromTradeRoutes?$AA@
CONST	SEGMENT
??_C@_0BM@ONEGOIFC@GetHappinessFromTradeRoutes?$AA@ DB 'GetHappinessFromT'
	DB	'radeRoutes', 00H				; `string'
CONST	ENDS
;	COMDAT ??_C@_0CB@JPNBNLCL@ChangeHappinessPerGarrisonedUnit@
CONST	SEGMENT
??_C@_0CB@JPNBNLCL@ChangeHappinessPerGarrisonedUnit@ DB 'ChangeHappinessP'
	DB	'erGarrisonedUnit', 00H			; `string'
CONST	ENDS
;	COMDAT ??_C@_0BO@HNIEFJLG@SetHappinessPerGarrisonedUnit?$AA@
CONST	SEGMENT
??_C@_0BO@HNIEFJLG@SetHappinessPerGarrisonedUnit?$AA@ DB 'SetHappinessPer'
	DB	'GarrisonedUnit', 00H			; `string'
CONST	ENDS
;	COMDAT ??_C@_0BO@PMOLOJJE@GetHappinessPerGarrisonedUnit?$AA@
CONST	SEGMENT
??_C@_0BO@PMOLOJJE@GetHappinessPerGarrisonedUnit?$AA@ DB 'GetHappinessPer'
	DB	'GarrisonedUnit', 00H			; `string'
CONST	ENDS
;	COMDAT ??_C@_0BM@HAKOEBKA@IsHalfSpecialistUnhappiness?$AA@
CONST	SEGMENT
??_C@_0BM@HAKOEBKA@IsHalfSpecialistUnhappiness?$AA@ DB 'IsHalfSpecialistU'
	DB	'nhappiness', 00H				; `string'
CONST	ENDS
;	COMDAT ??_C@_0BK@LDLDMFJK@GetTraitPopUnhappinessMod?$AA@
CONST	SEGMENT
??_C@_0BK@LDLDMFJK@GetTraitPopUnhappinessMod?$AA@ DB 'GetTraitPopUnhappin'
	DB	'essMod', 00H				; `string'
CONST	ENDS
;	COMDAT ??_C@_0BL@GIPNPCHI@GetTraitCityUnhappinessMod?$AA@
CONST	SEGMENT
??_C@_0BL@GIPNPCHI@GetTraitCityUnhappinessMod?$AA@ DB 'GetTraitCityUnhapp'
	DB	'inessMod', 00H				; `string'
CONST	ENDS
;	COMDAT ??_C@_0BJ@GJPGDMHB@GetCapitalUnhappinessMod?$AA@
CONST	SEGMENT
??_C@_0BJ@GJPGDMHB@GetCapitalUnhappinessMod?$AA@ DB 'GetCapitalUnhappines'
	DB	'sMod', 00H					; `string'
CONST	ENDS
;	COMDAT ??_C@_0CE@OKFBELDK@GetOccupiedPopulationUnhappiness@
CONST	SEGMENT
??_C@_0CE@OKFBELDK@GetOccupiedPopulationUnhappiness@ DB 'GetOccupiedPopul'
	DB	'ationUnhappinessMod', 00H			; `string'
CONST	ENDS
;	COMDAT ??_C@_0BL@DLGEPDKJ@GetCityCountUnhappinessMod?$AA@
CONST	SEGMENT
??_C@_0BL@DLGEPDKJ@GetCityCountUnhappinessMod?$AA@ DB 'GetCityCountUnhapp'
	DB	'inessMod', 00H				; `string'
CONST	ENDS
;	COMDAT ??_C@_0BC@KOOANBJP@GetUnhappinessMod?$AA@
CONST	SEGMENT
??_C@_0BC@KOOANBJP@GetUnhappinessMod?$AA@ DB 'GetUnhappinessMod', 00H ; `string'
CONST	ENDS
;	COMDAT ??_C@_0BL@MCEIFFBM@ChangeUnhappinessFromUnits?$AA@
CONST	SEGMENT
??_C@_0BL@MCEIFFBM@ChangeUnhappinessFromUnits?$AA@ DB 'ChangeUnhappinessF'
	DB	'romUnits', 00H				; `string'
CONST	ENDS
;	COMDAT ??_C@_0BI@CENNKONH@GetUnhappinessFromUnits?$AA@
CONST	SEGMENT
??_C@_0BI@CENNKONH@GetUnhappinessFromUnits?$AA@ DB 'GetUnhappinessFromUni'
	DB	'ts', 00H					; `string'
CONST	ENDS
;	COMDAT ??_C@_0CA@INPCOOLO@GetUnhappinessFromPublicOpinion?$AA@
CONST	SEGMENT
??_C@_0CA@INPCOOLO@GetUnhappinessFromPublicOpinion?$AA@ DB 'GetUnhappines'
	DB	'sFromPublicOpinion', 00H			; `string'
CONST	ENDS
;	COMDAT ??_C@_0CH@CLBIAMK@GetUnhappinessFromPuppetCityPopu@
CONST	SEGMENT
??_C@_0CH@CLBIAMK@GetUnhappinessFromPuppetCityPopu@ DB 'GetUnhappinessFro'
	DB	'mPuppetCityPopulation', 00H			; `string'
CONST	ENDS
;	COMDAT ??_C@_0CB@MKILLP@GetUnhappinessFromOccupiedCities@
CONST	SEGMENT
??_C@_0CB@MKILLP@GetUnhappinessFromOccupiedCities@ DB 'GetUnhappinessFrom'
	DB	'OccupiedCities', 00H			; `string'
CONST	ENDS
;	COMDAT ??_C@_0CC@BMLAPPGM@GetUnhappinessFromCitySpecialist@
CONST	SEGMENT
??_C@_0CC@BMLAPPGM@GetUnhappinessFromCitySpecialist@ DB 'GetUnhappinessFr'
	DB	'omCitySpecialists', 00H			; `string'
CONST	ENDS
;	COMDAT ??_C@_0CB@KBOPPOAK@GetUnhappinessFromCityPopulation@
CONST	SEGMENT
??_C@_0CB@KBOPPOAK@GetUnhappinessFromCityPopulation@ DB 'GetUnhappinessFr'
	DB	'omCityPopulation', 00H			; `string'
CONST	ENDS
;	COMDAT ??_C@_0CE@ECLIBGEO@GetUnhappinessFromCapturedCityCo@
CONST	SEGMENT
??_C@_0CE@ECLIBGEO@GetUnhappinessFromCapturedCityCo@ DB 'GetUnhappinessFr'
	DB	'omCapturedCityCount', 00H			; `string'
CONST	ENDS
;	COMDAT ??_C@_0BM@OCKLJKNC@GetUnhappinessFromCityCount?$AA@
CONST	SEGMENT
??_C@_0BM@OCKLJKNC@GetUnhappinessFromCityCount?$AA@ DB 'GetUnhappinessFro'
	DB	'mCityCount', 00H				; `string'
CONST	ENDS
;	COMDAT ??_C@_0BM@GNGHHBBH@GetUnhappinessFromCityForUI?$AA@
CONST	SEGMENT
??_C@_0BM@GNGHHBBH@GetUnhappinessFromCityForUI?$AA@ DB 'GetUnhappinessFro'
	DB	'mCityForUI', 00H				; `string'
CONST	ENDS
;	COMDAT ??_C@_0BH@MKFGHBDK@GetUnhappinessForecast?$AA@
CONST	SEGMENT
??_C@_0BH@MKFGHBDK@GetUnhappinessForecast?$AA@ DB 'GetUnhappinessForecast'
	DB	00H						; `string'
CONST	ENDS
;	COMDAT ??_C@_0P@DDCLBDGA@GetUnhappiness?$AA@
CONST	SEGMENT
??_C@_0P@DDCLBDGA@GetUnhappiness?$AA@ DB 'GetUnhappiness', 00H ; `string'
CONST	ENDS
;	COMDAT ??_C@_0BI@MILNBGI@GetHappinessFromLeagues?$AA@
CONST	SEGMENT
??_C@_0BI@MILNBGI@GetHappinessFromLeagues?$AA@ DB 'GetHappinessFromLeague'
	DB	's', 00H					; `string'
CONST	ENDS
;	COMDAT ??_C@_0BP@GFJNHLAE@GetHappinessFromNaturalWonders?$AA@
CONST	SEGMENT
??_C@_0BP@GFJNHLAE@GetHappinessFromNaturalWonders?$AA@ DB 'GetHappinessFr'
	DB	'omNaturalWonders', 00H			; `string'
CONST	ENDS
;	COMDAT ??_C@_0BJ@MCAOJMIP@GetHappinessFromReligion?$AA@
CONST	SEGMENT
??_C@_0BJ@MCAOJMIP@GetHappinessFromReligion?$AA@ DB 'GetHappinessFromReli'
	DB	'gion', 00H					; `string'
CONST	ENDS
;	COMDAT ??_C@_0BL@EEBALAOF@GetExtraHappinessPerLuxury?$AA@
CONST	SEGMENT
??_C@_0BL@EEBALAOF@GetExtraHappinessPerLuxury?$AA@ DB 'GetExtraHappinessP'
	DB	'erLuxury', 00H				; `string'
CONST	ENDS
;	COMDAT ??_C@_0CA@NPGNMMND@GetHappinessFromResourceVariety?$AA@
CONST	SEGMENT
??_C@_0CA@NPGNMMND@GetHappinessFromResourceVariety?$AA@ DB 'GetHappinessF'
	DB	'romResourceVariety', 00H			; `string'
CONST	ENDS
;	COMDAT ??_C@_0BK@KADBPJPP@GetHappinessFromResources?$AA@
CONST	SEGMENT
??_C@_0BK@KADBPJPP@GetHappinessFromResources?$AA@ DB 'GetHappinessFromRes'
	DB	'ources', 00H				; `string'
CONST	ENDS
;	COMDAT ??_C@_0BM@BDKBHECI@ChangeExtraHappinessPerCity?$AA@
CONST	SEGMENT
??_C@_0BM@BDKBHECI@ChangeExtraHappinessPerCity?$AA@ DB 'ChangeExtraHappin'
	DB	'essPerCity', 00H				; `string'
CONST	ENDS
;	COMDAT ??_C@_0BJ@BPPBPKOL@GetExtraHappinessPerCity?$AA@
CONST	SEGMENT
??_C@_0BJ@BPPBPKOL@GetExtraHappinessPerCity?$AA@ DB 'GetExtraHappinessPer'
	DB	'City', 00H					; `string'
CONST	ENDS
;	COMDAT ??_C@_0BK@NJJIHGAG@GetHappinessFromBuildings?$AA@
CONST	SEGMENT
??_C@_0BK@NJJIHGAG@GetHappinessFromBuildings?$AA@ DB 'GetHappinessFromBui'
	DB	'ldings', 00H				; `string'
CONST	ENDS
;	COMDAT ??_C@_0BH@DNCNLJLJ@GetHappinessFromCities?$AA@
CONST	SEGMENT
??_C@_0BH@DNCNLJLJ@GetHappinessFromCities?$AA@ DB 'GetHappinessFromCities'
	DB	00H						; `string'
CONST	ENDS
;	COMDAT ??_C@_0BJ@HKEDOHML@GetHappinessFromPolicies?$AA@
CONST	SEGMENT
??_C@_0BJ@HKEDOHML@GetHappinessFromPolicies?$AA@ DB 'GetHappinessFromPoli'
	DB	'cies', 00H					; `string'
CONST	ENDS
;	COMDAT ??_C@_0BF@IJAIICIJ@IsEmpireSuperUnhappy?$AA@
CONST	SEGMENT
??_C@_0BF@IJAIICIJ@IsEmpireSuperUnhappy?$AA@ DB 'IsEmpireSuperUnhappy', 00H ; `string'
CONST	ENDS
;	COMDAT ??_C@_0BE@DBNNOCLK@IsEmpireVeryUnhappy?$AA@
CONST	SEGMENT
??_C@_0BE@DBNNOCLK@IsEmpireVeryUnhappy?$AA@ DB 'IsEmpireVeryUnhappy', 00H ; `string'
CONST	ENDS
;	COMDAT ??_C@_0BA@NHLHHEED@IsEmpireUnhappy?$AA@
CONST	SEGMENT
??_C@_0BA@NHLHHEED@IsEmpireUnhappy?$AA@ DB 'IsEmpireUnhappy', 00H ; `string'
CONST	ENDS
;	COMDAT ??_C@_0BD@KNCDHHMN@GetExcessHappiness?$AA@
CONST	SEGMENT
??_C@_0BD@KNCDHHMN@GetExcessHappiness?$AA@ DB 'GetExcessHappiness', 00H ; `string'
CONST	ENDS
;	COMDAT ??_C@_0N@GLCICHBA@SetHappiness?$AA@
CONST	SEGMENT
??_C@_0N@GLCICHBA@SetHappiness?$AA@ DB 'SetHappiness', 00H ; `string'
CONST	ENDS
;	COMDAT ??_C@_0N@BPJGOLFM@GetHappiness?$AA@
CONST	SEGMENT
??_C@_0N@BPJGOLFM@GetHappiness?$AA@ DB 'GetHappiness', 00H ; `string'
CONST	ENDS
;	COMDAT ??_C@_0BP@KDEEONIG@DoesUnitPassFaithPurchaseCheck?$AA@
CONST	SEGMENT
??_C@_0BP@KDEEONIG@DoesUnitPassFaithPurchaseCheck?$AA@ DB 'DoesUnitPassFa'
	DB	'ithPurchaseCheck', 00H			; `string'
CONST	ENDS
;	COMDAT ??_C@_0BI@LGIHCJNG@HasReligionInMostCities?$AA@
CONST	SEGMENT
??_C@_0BI@LGIHCJNG@HasReligionInMostCities?$AA@ DB 'HasReligionInMostCiti'
	DB	'es', 00H					; `string'
CONST	ENDS
;	COMDAT ??_C@_0CA@BOJACAPD@GetMinimumFaithNextGreatProphet?$AA@
CONST	SEGMENT
??_C@_0CA@BOJACAPD@GetMinimumFaithNextGreatProphet?$AA@ DB 'GetMinimumFai'
	DB	'thNextGreatProphet', 00H			; `string'
CONST	ENDS
;	COMDAT ??_C@_0CI@IMONNDBE@GetFoundedReligionFriendlyCityCo@
CONST	SEGMENT
??_C@_0CI@IMONNDBE@GetFoundedReligionFriendlyCityCo@ DB 'GetFoundedReligi'
	DB	'onFriendlyCityCombatMod', 00H		; `string'
CONST	ENDS
;	COMDAT ??_C@_0CF@LIFLPEAN@GetFoundedReligionEnemyCityComba@
CONST	SEGMENT
??_C@_0CF@LIFLPEAN@GetFoundedReligionEnemyCityComba@ DB 'GetFoundedReligi'
	DB	'onEnemyCityCombatMod', 00H			; `string'
CONST	ENDS
;	COMDAT ??_C@_0BL@NDMELHHP@GetReligionCreatedByPlayer?$AA@
CONST	SEGMENT
??_C@_0BL@NDMELHHP@GetReligionCreatedByPlayer?$AA@ DB 'GetReligionCreated'
	DB	'ByPlayer', 00H				; `string'
CONST	ENDS
;	COMDAT ??_C@_0BC@BEJANDOH@CanCreatePantheon?$AA@
CONST	SEGMENT
??_C@_0BC@BEJANDOH@CanCreatePantheon?$AA@ DB 'CanCreatePantheon', 00H ; `string'
CONST	ENDS
;	COMDAT ??_C@_0BD@IANGKFOG@HasCreatedReligion?$AA@
CONST	SEGMENT
??_C@_0BD@IANGKFOG@HasCreatedReligion?$AA@ DB 'HasCreatedReligion', 00H ; `string'
CONST	ENDS
;	COMDAT ??_C@_0BE@NCIMNEEK@GetBeliefInPantheon?$AA@
CONST	SEGMENT
??_C@_0BE@NCIMNEEK@GetBeliefInPantheon?$AA@ DB 'GetBeliefInPantheon', 00H ; `string'
CONST	ENDS
;	COMDAT ??_C@_0BD@MKDLKLJP@HasCreatedPantheon?$AA@
CONST	SEGMENT
??_C@_0BD@MKDLKLJP@HasCreatedPantheon?$AA@ DB 'HasCreatedPantheon', 00H ; `string'
CONST	ENDS
;	COMDAT ??_C@_0BD@MIKGEGGL@CanFaithGiftMinors?$AA@
CONST	SEGMENT
??_C@_0BD@MIKGEGGL@CanFaithGiftMinors?$AA@ DB 'CanFaithGiftMinors', 00H ; `string'
CONST	ENDS
;	COMDAT ??_C@_0BM@FBEILFDB@GetFaithPerTurnFromReligion?$AA@
CONST	SEGMENT
??_C@_0BM@FBEILFDB@GetFaithPerTurnFromReligion?$AA@ DB 'GetFaithPerTurnFr'
	DB	'omReligion', 00H				; `string'
CONST	ENDS
;	COMDAT ??_C@_0BN@KLMNHABF@GetFaithPerTurnFromMinorCivs?$AA@
CONST	SEGMENT
??_C@_0BN@KLMNHABF@GetFaithPerTurnFromMinorCivs?$AA@ DB 'GetFaithPerTurnF'
	DB	'romMinorCivs', 00H				; `string'
CONST	ENDS
;	COMDAT ??_C@_0BK@DEPMGGBK@GetFaithPerTurnFromCities?$AA@
CONST	SEGMENT
??_C@_0BK@DEPMGGBK@GetFaithPerTurnFromCities?$AA@ DB 'GetFaithPerTurnFrom'
	DB	'Cities', 00H				; `string'
CONST	ENDS
;	COMDAT ??_C@_0BF@KAKKKCDB@GetTotalFaithPerTurn?$AA@
CONST	SEGMENT
??_C@_0BF@KAKKKCDB@GetTotalFaithPerTurn?$AA@ DB 'GetTotalFaithPerTurn', 00H ; `string'
CONST	ENDS
;	COMDAT ??_C@_0M@EFEFPKFD@ChangeFaith?$AA@
CONST	SEGMENT
??_C@_0M@EFEFPKFD@ChangeFaith?$AA@ DB 'ChangeFaith', 00H ; `string'
CONST	ENDS
;	COMDAT ??_C@_08BHKEOCCD@SetFaith?$AA@
CONST	SEGMENT
??_C@_08BHKEOCCD@SetFaith?$AA@ DB 'SetFaith', 00H	; `string'
CONST	ENDS
;	COMDAT ??_C@_08OGIIPBFO@GetFaith?$AA@
CONST	SEGMENT
