; Listing generated by Microsoft (R) Optimizing Compiler Version 15.00.30729.01 

	TITLE	D:\sources\Lekmod_git\checkout\LEKMOD_DLL\CvGameCoreDLL_Expansion2\Lua\CvLuaPlot.cpp
	.686P
	.XMM
	include listing.inc
	.model	flat

INCLUDELIB MSVCRT
INCLUDELIB OLDNAMES

PUBLIC	??_C@_0BC@JKDJOJEA@SetCityPurchaseID?$AA@	; `string'
PUBLIC	?lSetCityPurchaseID@CvLuaPlot@@KAHPAUlua_State@@@Z ; CvLuaPlot::lSetCityPurchaseID
PUBLIC	??_C@_0BC@LPDCGCFO@GetCityPurchaseID?$AA@	; `string'
PUBLIC	?lGetCityPurchaseID@CvLuaPlot@@KAHPAUlua_State@@@Z ; CvLuaPlot::lGetCityPurchaseID
PUBLIC	??_C@_0BD@NANOFFBN@HasWrittenArtifact?$AA@	; `string'
PUBLIC	?lHasWrittenArtifact@CvLuaPlot@@KAHPAUlua_State@@@Z ; CvLuaPlot::lHasWrittenArtifact
PUBLIC	??_C@_0BL@OCKBDMDN@GetArchaeologyArtifactWork?$AA@ ; `string'
PUBLIC	?lGetArchaeologyArtifactWork@CvLuaPlot@@KAHPAUlua_State@@@Z ; CvLuaPlot::lGetArchaeologyArtifactWork
PUBLIC	??_C@_0BO@OMCDNEIN@GetArchaeologyArtifactPlayer2?$AA@ ; `string'
PUBLIC	?lGetArchaeologyArtifactPlayer2@CvLuaPlot@@KAHPAUlua_State@@@Z ; CvLuaPlot::lGetArchaeologyArtifactPlayer2
PUBLIC	??_C@_0BO@MHAOIHEO@GetArchaeologyArtifactPlayer1?$AA@ ; `string'
PUBLIC	?lGetArchaeologyArtifactPlayer1@CvLuaPlot@@KAHPAUlua_State@@@Z ; CvLuaPlot::lGetArchaeologyArtifactPlayer1
PUBLIC	??_C@_0BK@EMCHHPLM@GetArchaeologyArtifactEra?$AA@ ; `string'
PUBLIC	?lGetArchaeologyArtifactEra@CvLuaPlot@@KAHPAUlua_State@@@Z ; CvLuaPlot::lGetArchaeologyArtifactEra
PUBLIC	??_C@_0BL@ENHELHEO@GetArchaeologyArtifactType?$AA@ ; `string'
PUBLIC	?lGetArchaeologyArtifactType@CvLuaPlot@@KAHPAUlua_State@@@Z ; CvLuaPlot::lGetArchaeologyArtifactType
PUBLIC	??_C@_0BG@PCIABHEK@IsBuildRemovesFeature?$AA@	; `string'
PUBLIC	?lIsBuildRemovesFeature@CvLuaPlot@@KAHPAUlua_State@@@Z ; CvLuaPlot::lIsBuildRemovesFeature
PUBLIC	??_C@_0CB@KPLFICMP@IsResourceConnectedByImprovement@ ; `string'
PUBLIC	?lIsResourceConnectedByImprovement@CvLuaPlot@@KAHPAUlua_State@@@Z ; CvLuaPlot::lIsResourceConnectedByImprovement
PUBLIC	??_C@_0BE@GKMJANIP@SetContinentArtType?$AA@	; `string'
PUBLIC	?lSetContinentArtType@CvLuaPlot@@KAHPAUlua_State@@@Z ; CvLuaPlot::lSetContinentArtType
PUBLIC	??_C@_0BE@MEOCENPD@GetContinentArtType?$AA@	; `string'
PUBLIC	?lGetContinentArtType@CvLuaPlot@@KAHPAUlua_State@@@Z ; CvLuaPlot::lGetContinentArtType
PUBLIC	??_C@_0L@GKHDLKJE@CanSeePlot?$AA@		; `string'
PUBLIC	?lCanSeePlot@CvLuaPlot@@KAHPAUlua_State@@@Z	; CvLuaPlot::lCanSeePlot
PUBLIC	??_C@_0BG@NEIGEDBJ@IsImprovementPillaged?$AA@	; `string'
PUBLIC	?lIsImprovementPillaged@CvLuaPlot@@KAHPAUlua_State@@@Z ; CvLuaPlot::lIsImprovementPillaged
PUBLIC	??_C@_0BG@BKOPMAI@GetActiveFogOfWarMode?$AA@	; `string'
PUBLIC	?lGetActiveFogOfWarMode@CvLuaPlot@@KAHPAUlua_State@@@Z ; CvLuaPlot::lGetActiveFogOfWarMode
PUBLIC	??_C@_0O@PGOPIEFE@SetScriptData?$AA@		; `string'
PUBLIC	?lSetScriptData@CvLuaPlot@@KAHPAUlua_State@@@Z	; CvLuaPlot::lSetScriptData
PUBLIC	??_C@_0O@IJPBDHCD@GetScriptData?$AA@		; `string'
PUBLIC	?lGetScriptData@CvLuaPlot@@KAHPAUlua_State@@@Z	; CvLuaPlot::lGetScriptData
PUBLIC	??_C@_0N@KMFKPML@GetLayerUnit?$AA@		; `string'
PUBLIC	?lGetLayerUnit@CvLuaPlot@@KAHPAUlua_State@@@Z	; CvLuaPlot::lGetLayerUnit
PUBLIC	??_C@_0BB@CJPGAEMO@GetNumLayerUnits?$AA@	; `string'
PUBLIC	?lGetNumLayerUnits@CvLuaPlot@@KAHPAUlua_State@@@Z ; CvLuaPlot::lGetNumLayerUnits
PUBLIC	??_C@_07NHOHELCB@GetUnit?$AA@			; `string'
PUBLIC	?lGetUnit@CvLuaPlot@@KAHPAUlua_State@@@Z	; CvLuaPlot::lGetUnit
PUBLIC	??_C@_0M@GNPEBAGL@GetNumUnits?$AA@		; `string'
PUBLIC	?lGetNumUnits@CvLuaPlot@@KAHPAUlua_State@@@Z	; CvLuaPlot::lGetNumUnits
PUBLIC	??_C@_0BP@LBNFAPK@ChangeInvisibleVisibilityCount?$AA@ ; `string'
PUBLIC	?lChangeInvisibleVisibilityCount@CvLuaPlot@@KAHPAUlua_State@@@Z ; CvLuaPlot::lChangeInvisibleVisibilityCount
PUBLIC	??_C@_0BD@INIFKIEI@IsInvisibleVisible?$AA@	; `string'
PUBLIC	?lIsInvisibleVisible@CvLuaPlot@@KAHPAUlua_State@@@Z ; CvLuaPlot::lIsInvisibleVisible
PUBLIC	??_C@_0BM@FGJPJMNO@GetInvisibleVisibilityCount?$AA@ ; `string'
PUBLIC	?lGetInvisibleVisibilityCount@CvLuaPlot@@KAHPAUlua_State@@@Z ; CvLuaPlot::lGetInvisibleVisibilityCount
PUBLIC	??_C@_0BE@JOFNMHNE@ChangeBuildProgress?$AA@	; `string'
PUBLIC	?lChangeBuildProgress@CvLuaPlot@@KAHPAUlua_State@@@Z ; CvLuaPlot::lChangeBuildProgress
PUBLIC	??_C@_0BB@JNKOGOND@GetBuildProgress?$AA@	; `string'
PUBLIC	?lGetBuildProgress@CvLuaPlot@@KAHPAUlua_State@@@Z ; CvLuaPlot::lGetBuildProgress
PUBLIC	??_C@_0BF@IFAHMPDF@GetRevealedRouteType?$AA@	; `string'
PUBLIC	?lGetRevealedRouteType@CvLuaPlot@@KAHPAUlua_State@@@Z ; CvLuaPlot::lGetRevealedRouteType
PUBLIC	??_C@_0BL@PNNIAODD@GetRevealedImprovementType?$AA@ ; `string'
PUBLIC	?lGetRevealedImprovementType@CvLuaPlot@@KAHPAUlua_State@@@Z ; CvLuaPlot::lGetRevealedImprovementType
PUBLIC	??_C@_0M@JIOPKDAN@SetRevealed?$AA@		; `string'
PUBLIC	?lSetRevealed@CvLuaPlot@@KAHPAUlua_State@@@Z	; CvLuaPlot::lSetRevealed
PUBLIC	??_C@_0L@KNACFKBL@IsRevealed?$AA@		; `string'
PUBLIC	?lIsRevealed@CvLuaPlot@@KAHPAUlua_State@@@Z	; CvLuaPlot::lIsRevealed
PUBLIC	??_C@_0BG@BDOILNLO@IsRiverCrossingToPlot?$AA@	; `string'
PUBLIC	?lIsRiverCrossingToPlot@CvLuaPlot@@KAHPAUlua_State@@@Z ; CvLuaPlot::lIsRiverCrossingToPlot
PUBLIC	??_C@_0BA@MJKALLIG@IsRiverCrossing?$AA@		; `string'
PUBLIC	?lIsRiverCrossing@CvLuaPlot@@KAHPAUlua_State@@@Z ; CvLuaPlot::lIsRiverCrossing
PUBLIC	??_C@_0BA@GEFNGHGP@GetRevealedTeam?$AA@		; `string'
PUBLIC	?lGetRevealedTeam@CvLuaPlot@@KAHPAUlua_State@@@Z ; CvLuaPlot::lGetRevealedTeam
PUBLIC	??_C@_0BB@OFCBENIO@GetRevealedOwner?$AA@	; `string'
PUBLIC	?lGetRevealedOwner@CvLuaPlot@@KAHPAUlua_State@@@Z ; CvLuaPlot::lGetRevealedOwner
PUBLIC	??_C@_0BG@CELPDLDF@ChangeVisibilityCount?$AA@	; `string'
PUBLIC	?lChangeVisibilityCount@CvLuaPlot@@KAHPAUlua_State@@@Z ; CvLuaPlot::lChangeVisibilityCount
PUBLIC	??_C@_0BD@MEPELFEN@GetVisibilityCount?$AA@	; `string'
PUBLIC	?lGetVisibilityCount@CvLuaPlot@@KAHPAUlua_State@@@Z ; CvLuaPlot::lGetVisibilityCount
PUBLIC	??_C@_0BD@FCCJINHM@IsPlayerCityRadius?$AA@	; `string'
PUBLIC	?lIsPlayerCityRadius@CvLuaPlot@@KAHPAUlua_State@@@Z ; CvLuaPlot::lIsPlayerCityRadius
PUBLIC	??_C@_0BJ@FHECNEHC@GetPlayerCityRadiusCount?$AA@ ; `string'
PUBLIC	?lGetPlayerCityRadiusCount@CvLuaPlot@@KAHPAUlua_State@@@Z ; CvLuaPlot::lGetPlayerCityRadiusCount
PUBLIC	??_C@_0BE@MJJBFBHH@IsBestAdjacentFound?$AA@	; `string'
PUBLIC	?lIsBestAdjacentFound@CvLuaPlot@@KAHPAUlua_State@@@Z ; CvLuaPlot::lIsBestAdjacentFound
PUBLIC	??_C@_0O@GFNIBAIO@GetFoundValue?$AA@		; `string'
PUBLIC	?lGetFoundValue@CvLuaPlot@@KAHPAUlua_State@@@Z	; CvLuaPlot::lGetFoundValue
PUBLIC	??_C@_0BB@ODLGAIAC@CountNumAirUnits?$AA@	; `string'
PUBLIC	?lCountNumAirUnits@CvLuaPlot@@KAHPAUlua_State@@@Z ; CvLuaPlot::lCountNumAirUnits
PUBLIC	??_C@_0BC@FCJPHHA@GetYieldWithBuild?$AA@	; `string'
PUBLIC	?lGetYieldWithBuild@CvLuaPlot@@KAHPAUlua_State@@@Z ; CvLuaPlot::lGetYieldWithBuild
PUBLIC	??_C@_08EOHKPHAI@HasYield?$AA@			; `string'
PUBLIC	?lHasYield@CvLuaPlot@@KAHPAUlua_State@@@Z	; CvLuaPlot::lHasYield
PUBLIC	??_C@_0P@CENIPKEL@CalculateYield?$AA@		; `string'
PUBLIC	?lCalculateYield@CvLuaPlot@@KAHPAUlua_State@@@Z	; CvLuaPlot::lCalculateYield
PUBLIC	??_C@_0CA@FIAOIPPH@CalculateImprovementYieldChange?$AA@ ; `string'
PUBLIC	?lCalculateImprovementYieldChange@CvLuaPlot@@KAHPAUlua_State@@@Z ; CvLuaPlot::lCalculateImprovementYieldChange
PUBLIC	??_C@_0BO@EHFPFGPL@CalculateTotalBestNatureYield?$AA@ ; `string'
PUBLIC	?lCalculateTotalBestNatureYield@CvLuaPlot@@KAHPAUlua_State@@@Z ; CvLuaPlot::lCalculateTotalBestNatureYield
PUBLIC	??_C@_0BJ@OAMDIALM@CalculateBestNatureYield?$AA@ ; `string'
PUBLIC	?lCalculateBestNatureYield@CvLuaPlot@@KAHPAUlua_State@@@Z ; CvLuaPlot::lCalculateBestNatureYield
PUBLIC	??_C@_0BF@CBKOLKOI@CalculateNatureYield?$AA@	; `string'
PUBLIC	?lCalculateNatureYield@CvLuaPlot@@KAHPAUlua_State@@@Z ; CvLuaPlot::lCalculateNatureYield
PUBLIC	??_C@_08NACOAIKN@GetYield?$AA@			; `string'
PUBLIC	?lGetYield@CvLuaPlot@@KAHPAUlua_State@@@Z	; CvLuaPlot::lGetYield
PUBLIC	??_C@_0BG@PHPNMIIM@GetRiverCrossingCount?$AA@	; `string'
PUBLIC	?lGetRiverCrossingCount@CvLuaPlot@@KAHPAUlua_State@@@Z ; CvLuaPlot::lGetRiverCrossingCount
PUBLIC	??_C@_0O@FJEFAJPI@GetReconCount?$AA@		; `string'
PUBLIC	?lGetReconCount@CvLuaPlot@@KAHPAUlua_State@@@Z	; CvLuaPlot::lGetReconCount
PUBLIC	??_C@_0BH@OOJOMMJK@GetWorkingCityOverride?$AA@	; `string'
PUBLIC	?lGetWorkingCityOverride@CvLuaPlot@@KAHPAUlua_State@@@Z ; CvLuaPlot::lGetWorkingCityOverride
PUBLIC	??_C@_0P@FJAEMPGB@GetWorkingCity?$AA@		; `string'
PUBLIC	?lGetWorkingCity@CvLuaPlot@@KAHPAUlua_State@@@Z	; CvLuaPlot::lGetWorkingCity
PUBLIC	??_C@_0M@PCNDGHAN@GetPlotCity?$AA@		; `string'
PUBLIC	?lGetPlotCity@CvLuaPlot@@KAHPAUlua_State@@@Z	; CvLuaPlot::lGetPlotCity
PUBLIC	??_C@_0BA@BOKCMBNI@IsRoutePillaged?$AA@		; `string'
PUBLIC	?lIsRoutePillaged@CvLuaPlot@@KAHPAUlua_State@@@Z ; CvLuaPlot::lIsRoutePillaged
PUBLIC	??_C@_0N@LHILEECB@SetRouteType?$AA@		; `string'
PUBLIC	?lSetRouteType@CvLuaPlot@@KAHPAUlua_State@@@Z	; CvLuaPlot::lSetRouteType
PUBLIC	??_C@_0N@MDDFIIGN@GetRouteType?$AA@		; `string'
PUBLIC	?lGetRouteType@CvLuaPlot@@KAHPAUlua_State@@@Z	; CvLuaPlot::lGetRouteType
PUBLIC	??_C@_0BH@HIMINBGH@SetImprovementPillaged?$AA@	; `string'
PUBLIC	?lSetImprovementPillaged@CvLuaPlot@@KAHPAUlua_State@@@Z ; CvLuaPlot::lSetImprovementPillaged
PUBLIC	??_C@_0BD@CDMJPHEA@SetImprovementType?$AA@	; `string'
PUBLIC	?lSetImprovementType@CvLuaPlot@@KAHPAUlua_State@@@Z ; CvLuaPlot::lSetImprovementType
PUBLIC	??_C@_0BD@NJODMBKI@GetImprovementType?$AA@	; `string'
PUBLIC	?lGetImprovementType@CvLuaPlot@@KAHPAUlua_State@@@Z ; CvLuaPlot::lGetImprovementType
PUBLIC	??_C@_0BC@KPBOMALO@ChangeNumResource?$AA@	; `string'
PUBLIC	?lChangeNumResource@CvLuaPlot@@KAHPAUlua_State@@@Z ; CvLuaPlot::lChangeNumResource
PUBLIC	??_C@_0P@PFFHMNLP@SetNumResource?$AA@		; `string'
PUBLIC	?lSetNumResource@CvLuaPlot@@KAHPAUlua_State@@@Z	; CvLuaPlot::lSetNumResource
PUBLIC	??_C@_0P@DLEJDHJD@GetNumResource?$AA@		; `string'
PUBLIC	?lGetNumResource@CvLuaPlot@@KAHPAUlua_State@@@Z	; CvLuaPlot::lGetNumResource
PUBLIC	??_C@_0BA@MPFNFEGO@SetResourceType?$AA@		; `string'
PUBLIC	?lSetResourceType@CvLuaPlot@@KAHPAUlua_State@@@Z ; CvLuaPlot::lSetResourceType
PUBLIC	??_C@_0BL@OCHONID@GetNonObsoleteResourceType?$AA@ ; `string'
PUBLIC	?lGetNonObsoleteResourceType@CvLuaPlot@@KAHPAUlua_State@@@Z ; CvLuaPlot::lGetNonObsoleteResourceType
PUBLIC	??_C@_0BA@PNELCGHH@GetResourceType?$AA@		; `string'
PUBLIC	?lGetResourceType@CvLuaPlot@@KAHPAUlua_State@@@Z ; CvLuaPlot::lGetResourceType
PUBLIC	??_C@_0M@JOGKFIAC@SetPlotType?$AA@		; `string'
PUBLIC	?lSetPlotType@CvLuaPlot@@KAHPAUlua_State@@@Z	; CvLuaPlot::lSetPlotType
PUBLIC	??_C@_0L@LNALPAOM@IsMountain?$AA@		; `string'
PUBLIC	?lIsMountain@CvLuaPlot@@KAHPAUlua_State@@@Z	; CvLuaPlot::lIsMountain
PUBLIC	??_C@_0O@DNIIDOJH@IsRoughGround?$AA@		; `string'
PUBLIC	?lIsRoughGround@CvLuaPlot@@KAHPAUlua_State@@@Z	; CvLuaPlot::lIsRoughGround
PUBLIC	??_C@_0N@DKDGHAGP@IsOpenGround?$AA@		; `string'
PUBLIC	?lIsOpenGround@CvLuaPlot@@KAHPAUlua_State@@@Z	; CvLuaPlot::lIsOpenGround
PUBLIC	??_C@_07DCIJPOBB@IsHills?$AA@			; `string'
PUBLIC	?lIsHills@CvLuaPlot@@KAHPAUlua_State@@@Z	; CvLuaPlot::lIsHills
PUBLIC	??_C@_0M@CIOEIJGM@IsFlatlands?$AA@		; `string'
PUBLIC	?lIsFlatlands@CvLuaPlot@@KAHPAUlua_State@@@Z	; CvLuaPlot::lIsFlatlands
PUBLIC	??_C@_0M@JBHEIOIB@GetPlotType?$AA@		; `string'
PUBLIC	?lGetPlotType@CvLuaPlot@@KAHPAUlua_State@@@Z	; CvLuaPlot::lGetPlotType
PUBLIC	??_C@_08OPBFNKOM@SetOwner?$AA@			; `string'
PUBLIC	?lSetOwner@CvLuaPlot@@KAHPAUlua_State@@@Z	; CvLuaPlot::lSetOwner
PUBLIC	??_C@_08BODJMJJB@GetOwner?$AA@			; `string'
PUBLIC	?lGetOwner@CvLuaPlot@@KAHPAUlua_State@@@Z	; CvLuaPlot::lGetOwner
PUBLIC	??_C@_0BL@FNJICPCN@IsPotentialCityWorkForArea?$AA@ ; `string'
PUBLIC	?lIsPotentialCityWorkForArea@CvLuaPlot@@KAHPAUlua_State@@@Z ; CvLuaPlot::lIsPotentialCityWorkForArea
PUBLIC	??_C@_0BE@ELJLKDMB@IsPotentialCityWork?$AA@	; `string'
PUBLIC	?lIsPotentialCityWork@CvLuaPlot@@KAHPAUlua_State@@@Z ; CvLuaPlot::lIsPotentialCityWork
PUBLIC	??_C@_0BI@MCMIAAIB@GetRiverSWFlowDirection?$AA@	; `string'
PUBLIC	?lGetRiverSWFlowDirection@CvLuaPlot@@KAHPAUlua_State@@@Z ; CvLuaPlot::lGetRiverSWFlowDirection
PUBLIC	??_C@_0BI@COCMCOFP@GetRiverSEFlowDirection?$AA@	; `string'
PUBLIC	?lGetRiverSEFlowDirection@CvLuaPlot@@KAHPAUlua_State@@@Z ; CvLuaPlot::lGetRiverSEFlowDirection
PUBLIC	??_C@_0BH@KPEJPCF@GetRiverEFlowDirection?$AA@	; `string'
PUBLIC	?lGetRiverEFlowDirection@CvLuaPlot@@KAHPAUlua_State@@@Z ; CvLuaPlot::lGetRiverEFlowDirection
PUBLIC	??_C@_0N@PMHPDLKG@SetNWOfRiver?$AA@		; `string'
PUBLIC	?lSetNWOfRiver@CvLuaPlot@@KAHPAUlua_State@@@Z	; CvLuaPlot::lSetNWOfRiver
PUBLIC	??_C@_0M@IJOGDAO@IsNWOfRiver?$AA@		; `string'
PUBLIC	?lIsNWOfRiver@CvLuaPlot@@KAHPAUlua_State@@@Z	; CvLuaPlot::lIsNWOfRiver
PUBLIC	??_C@_0M@NHCDHKOK@SetWOfRiver?$AA@		; `string'
PUBLIC	?lSetWOfRiver@CvLuaPlot@@KAHPAUlua_State@@@Z	; CvLuaPlot::lSetWOfRiver
PUBLIC	??_C@_0L@OCMOIDPM@IsWOfRiver?$AA@		; `string'
PUBLIC	?lIsWOfRiver@CvLuaPlot@@KAHPAUlua_State@@@Z	; CvLuaPlot::lIsWOfRiver
PUBLIC	??_C@_0N@HOEJFBFB@SetNEOfRiver?$AA@		; `string'
PUBLIC	?lSetNEOfRiver@CvLuaPlot@@KAHPAUlua_State@@@Z	; CvLuaPlot::lSetNEOfRiver
PUBLIC	??_C@_0M@IKKIAJPJ@IsNEOfRiver?$AA@		; `string'
PUBLIC	?lIsNEOfRiver@CvLuaPlot@@KAHPAUlua_State@@@Z	; CvLuaPlot::lIsNEOfRiver
PUBLIC	??_C@_0BA@GNONGEOP@SetStartingPlot?$AA@		; `string'
PUBLIC	?lSetStartingPlot@CvLuaPlot@@KAHPAUlua_State@@@Z ; CvLuaPlot::lSetStartingPlot
PUBLIC	??_C@_0P@BPOJGNHB@IsStartingPlot?$AA@		; `string'
PUBLIC	?lIsStartingPlot@CvLuaPlot@@KAHPAUlua_State@@@Z	; CvLuaPlot::lIsStartingPlot
PUBLIC	??_C@_0N@OOBJPEOH@IsCityRadius?$AA@		; `string'
PUBLIC	?lIsCityRadius@CvLuaPlot@@KAHPAUlua_State@@@Z	; CvLuaPlot::lIsCityRadius
PUBLIC	??_C@_0BD@FMKHJCLK@GetCityRadiusCount?$AA@	; `string'
PUBLIC	?lGetCityRadiusCount@CvLuaPlot@@KAHPAUlua_State@@@Z ; CvLuaPlot::lGetCityRadiusCount
PUBLIC	??_C@_0BG@BMLACKEG@ChangeUpgradeProgress?$AA@	; `string'
PUBLIC	?lChangeUpgradeProgress@CvLuaPlot@@KAHPAUlua_State@@@Z ; CvLuaPlot::lChangeUpgradeProgress
PUBLIC	??_C@_0BD@GNBJCNG@SetUpgradeProgress?$AA@	; `string'
PUBLIC	?lSetUpgradeProgress@CvLuaPlot@@KAHPAUlua_State@@@Z ; CvLuaPlot::lSetUpgradeProgress
PUBLIC	??_C@_0BD@BBCMJJNG@GetUpgradeTimeLeft?$AA@	; `string'
PUBLIC	?lGetUpgradeTimeLeft@CvLuaPlot@@KAHPAUlua_State@@@Z ; CvLuaPlot::lGetUpgradeTimeLeft
PUBLIC	??_C@_0BD@PMPLKEDO@GetUpgradeProgress?$AA@	; `string'
PUBLIC	?lGetUpgradeProgress@CvLuaPlot@@KAHPAUlua_State@@@Z ; CvLuaPlot::lGetUpgradeProgress
PUBLIC	??_C@_0BK@GBKBPNDO@ChangeImprovementDuration?$AA@ ; `string'
PUBLIC	?lChangeImprovementDuration@CvLuaPlot@@KAHPAUlua_State@@@Z ; CvLuaPlot::lChangeImprovementDuration
PUBLIC	??_C@_0BH@JGCIBAKO@SetImprovementDuration?$AA@	; `string'
PUBLIC	?lSetImprovementDuration@CvLuaPlot@@KAHPAUlua_State@@@Z ; CvLuaPlot::lSetImprovementDuration
PUBLIC	??_C@_0BH@JHAGDHHB@GetImprovementDuration?$AA@	; `string'
PUBLIC	?lGetImprovementDuration@CvLuaPlot@@KAHPAUlua_State@@@Z ; CvLuaPlot::lGetImprovementDuration
PUBLIC	??_C@_0BI@OJDEJCCM@ChangeOwnershipDuration?$AA@	; `string'
PUBLIC	?lChangeOwnershipDuration@CvLuaPlot@@KAHPAUlua_State@@@Z ; CvLuaPlot::lChangeOwnershipDuration
PUBLIC	??_C@_0BF@FNMPDJOJ@SetOwnershipDuration?$AA@	; `string'
PUBLIC	?lSetOwnershipDuration@CvLuaPlot@@KAHPAUlua_State@@@Z ; CvLuaPlot::lSetOwnershipDuration
PUBLIC	??_C@_0BB@KOAOKKPA@IsOwnershipScore?$AA@	; `string'
PUBLIC	?lIsOwnershipScore@CvLuaPlot@@KAHPAUlua_State@@@Z ; CvLuaPlot::lIsOwnershipScore
PUBLIC	??_C@_0BF@ENCCPLO@GetOwnershipDuration?$AA@	; `string'
PUBLIC	?lGetOwnershipDuration@CvLuaPlot@@KAHPAUlua_State@@@Z ; CvLuaPlot::lGetOwnershipDuration
PUBLIC	??_C@_0BC@PNINJHCK@GetFeatureVariety?$AA@	; `string'
PUBLIC	?lGetFeatureVariety@CvLuaPlot@@KAHPAUlua_State@@@Z ; CvLuaPlot::lGetFeatureVariety
PUBLIC	??_C@_07JOBGLCOF@SetArea?$AA@			; `string'
PUBLIC	?lSetArea@CvLuaPlot@@KAHPAUlua_State@@@Z	; CvLuaPlot::lSetArea
PUBLIC	??_C@_07GGOHINDE@GetArea?$AA@			; `string'
PUBLIC	?lGetArea@CvLuaPlot@@KAHPAUlua_State@@@Z	; CvLuaPlot::lGetArea
PUBLIC	??_C@_09CNIEIFHO@WaterArea?$AA@			; `string'
PUBLIC	?lWaterArea@CvLuaPlot@@KAHPAUlua_State@@@Z	; CvLuaPlot::lWaterArea
PUBLIC	??_C@_04KPICECCB@Area?$AA@			; `string'
PUBLIC	?lArea@CvLuaPlot@@KAHPAUlua_State@@@Z		; CvLuaPlot::lArea
PUBLIC	??_C@_0M@KCMGIFE@GetLatitude?$AA@		; `string'
PUBLIC	?lGetLatitude@CvLuaPlot@@KAHPAUlua_State@@@Z	; CvLuaPlot::lGetLatitude
PUBLIC	??_C@_0N@MPDLKONJ@GetPlotIndex?$AA@		; `string'
PUBLIC	?lGetPlotIndex@CvLuaPlot@@KAHPAUlua_State@@@Z	; CvLuaPlot::lGetPlotIndex
PUBLIC	??_C@_02DKLFHNOI@At?$AA@			; `string'
PUBLIC	?lAt@CvLuaPlot@@KAHPAUlua_State@@@Z		; CvLuaPlot::lAt
PUBLIC	??_C@_04OHHHKNBL@GetY?$AA@			; `string'
PUBLIC	?lGetY@CvLuaPlot@@KAHPAUlua_State@@@Z		; CvLuaPlot::lGetY
PUBLIC	??_C@_04POGMJMFK@GetX?$AA@			; `string'
PUBLIC	?lGetX@CvLuaPlot@@KAHPAUlua_State@@@Z		; CvLuaPlot::lGetX
PUBLIC	??_C@_0N@MALFMDGK@IsImpassable?$AA@		; `string'
PUBLIC	?lIsImpassable@CvLuaPlot@@KAHPAUlua_State@@@Z	; CvLuaPlot::lIsImpassable
PUBLIC	??_C@_0BH@IFEGDFCC@IsValidDomainForAction?$AA@	; `string'
PUBLIC	?lIsValidDomainForAction@CvLuaPlot@@KAHPAUlua_State@@@Z ; CvLuaPlot::lIsValidDomainForAction
PUBLIC	??_C@_0BJ@CLNJIBGO@IsValidDomainForLocation?$AA@ ; `string'
PUBLIC	?lIsValidDomainForLocation@CvLuaPlot@@KAHPAUlua_State@@@Z ; CvLuaPlot::lIsValidDomainForLocation
PUBLIC	??_C@_0N@CIBMJEHN@IsTradeRoute?$AA@		; `string'
PUBLIC	?lIsTradeRoute@CvLuaPlot@@KAHPAUlua_State@@@Z	; CvLuaPlot::lIsTradeRoute
PUBLIC	??_C@_07DMDIHFEG@IsRoute?$AA@			; `string'
PUBLIC	?lIsRoute@CvLuaPlot@@KAHPAUlua_State@@@Z	; CvLuaPlot::lIsRoute
PUBLIC	??_C@_0L@MOBAIMGP@IsFighting?$AA@		; `string'
PUBLIC	?lIsFighting@CvLuaPlot@@KAHPAUlua_State@@@Z	; CvLuaPlot::lIsFighting
PUBLIC	??_C@_0BK@MEHFJEJD@GetNumFriendlyUnitsOfType?$AA@ ; `string'
PUBLIC	?lGetNumFriendlyUnitsOfType@CvLuaPlot@@KAHPAUlua_State@@@Z ; CvLuaPlot::lGetNumFriendlyUnitsOfType
PUBLIC	??_C@_0BD@LCFOEEGJ@IsVisibleOtherUnit?$AA@	; `string'
PUBLIC	?lIsVisibleOtherUnit@CvLuaPlot@@KAHPAUlua_State@@@Z ; CvLuaPlot::lIsVisibleOtherUnit
PUBLIC	??_C@_0BD@FOLPLHDK@IsVisibleEnemyUnit?$AA@	; `string'
PUBLIC	?lIsVisibleEnemyUnit@CvLuaPlot@@KAHPAUlua_State@@@Z ; CvLuaPlot::lIsVisibleEnemyUnit
PUBLIC	??_C@_0CF@KKFDFPEO@GetNumVisiblePotentialEnemyDefen@ ; `string'
PUBLIC	?lGetNumVisiblePotentialEnemyDefenders@CvLuaPlot@@KAHPAUlua_State@@@Z ; CvLuaPlot::lGetNumVisiblePotentialEnemyDefenders
PUBLIC	??_C@_0BM@GIKOKOLI@GetNumVisibleEnemyDefenders?$AA@ ; `string'
PUBLIC	?lGetNumVisibleEnemyDefenders@CvLuaPlot@@KAHPAUlua_State@@@Z ; CvLuaPlot::lGetNumVisibleEnemyDefenders
PUBLIC	??_C@_0BA@GNAHEKAB@GetNumDefenders?$AA@		; `string'
PUBLIC	?lGetNumDefenders@CvLuaPlot@@KAHPAUlua_State@@@Z ; CvLuaPlot::lGetNumDefenders
PUBLIC	??_C@_0BH@KJEJGOKA@IsVisibleEnemyDefender?$AA@	; `string'
PUBLIC	?lIsVisibleEnemyDefender@CvLuaPlot@@KAHPAUlua_State@@@Z ; CvLuaPlot::lIsVisibleEnemyDefender
PUBLIC	??_C@_06BJOJODJC@IsUnit?$AA@			; `string'
PUBLIC	?lIsUnit@CvLuaPlot@@KAHPAUlua_State@@@Z		; CvLuaPlot::lIsUnit
PUBLIC	??_C@_0O@GHFLFPIL@IsBeingWorked?$AA@		; `string'
PUBLIC	?lIsBeingWorked@CvLuaPlot@@KAHPAUlua_State@@@Z	; CvLuaPlot::lIsBeingWorked
PUBLIC	??_C@_0M@ICNFBAB@IsEnemyCity?$AA@		; `string'
PUBLIC	?lIsEnemyCity@CvLuaPlot@@KAHPAUlua_State@@@Z	; CvLuaPlot::lIsEnemyCity
PUBLIC	??_C@_0P@JPKGCGMM@IsFriendlyCity?$AA@		; `string'
PUBLIC	?lIsFriendlyCity@CvLuaPlot@@KAHPAUlua_State@@@Z	; CvLuaPlot::lIsFriendlyCity
PUBLIC	??_C@_06MKMOPHGH@IsCity?$AA@			; `string'
PUBLIC	?lIsCity@CvLuaPlot@@KAHPAUlua_State@@@Z		; CvLuaPlot::lIsCity
PUBLIC	??_C@_0BE@IMNKPHIO@IsFriendlyTerritory?$AA@	; `string'
PUBLIC	?lIsFriendlyTerritory@CvLuaPlot@@KAHPAUlua_State@@@Z ; CvLuaPlot::lIsFriendlyTerritory
PUBLIC	??_C@_0BA@HAPEMDMB@IsRevealedGoody?$AA@		; `string'
PUBLIC	?lIsRevealedGoody@CvLuaPlot@@KAHPAUlua_State@@@Z ; CvLuaPlot::lIsRevealedGoody
PUBLIC	??_C@_07KKNGKPLI@IsGoody?$AA@			; `string'
PUBLIC	?lIsGoody@CvLuaPlot@@KAHPAUlua_State@@@Z	; CvLuaPlot::lIsGoody
PUBLIC	??_C@_0M@LKMCGBMH@RemoveGoody?$AA@		; `string'
PUBLIC	?lRemoveGoody@CvLuaPlot@@KAHPAUlua_State@@@Z	; CvLuaPlot::lRemoveGoody
PUBLIC	??_C@_0BG@DBMNPJAN@IsAdjacentNonrevealed?$AA@	; `string'
PUBLIC	?lIsAdjacentNonrevealed@CvLuaPlot@@KAHPAUlua_State@@@Z ; CvLuaPlot::lIsAdjacentNonrevealed
PUBLIC	??_C@_0BD@OBOIAPPP@IsAdjacentRevealed?$AA@	; `string'
PUBLIC	?lIsAdjacentRevealed@CvLuaPlot@@KAHPAUlua_State@@@Z ; CvLuaPlot::lIsAdjacentRevealed
PUBLIC	??_C@_0BF@CNMKPADN@IsAdjacentNonvisible?$AA@	; `string'
PUBLIC	?lIsAdjacentNonvisible@CvLuaPlot@@KAHPAUlua_State@@@Z ; CvLuaPlot::lIsAdjacentNonvisible
PUBLIC	??_C@_0BC@GICKPFNI@IsAdjacentVisible?$AA@	; `string'
PUBLIC	?lIsAdjacentVisible@CvLuaPlot@@KAHPAUlua_State@@@Z ; CvLuaPlot::lIsAdjacentVisible
PUBLIC	??_C@_0BJ@FMJJGAJM@IsVisibleToWatchingHuman?$AA@ ; `string'
PUBLIC	?lIsVisibleToWatchingHuman@CvLuaPlot@@KAHPAUlua_State@@@Z ; CvLuaPlot::lIsVisibleToWatchingHuman
PUBLIC	??_C@_0BA@CFACHEEE@IsActiveVisible?$AA@		; `string'
PUBLIC	?lIsActiveVisible@CvLuaPlot@@KAHPAUlua_State@@@Z ; CvLuaPlot::lIsActiveVisible
PUBLIC	??_C@_09OLGPEPPJ@IsVisible?$AA@			; `string'
PUBLIC	?lIsVisible@CvLuaPlot@@KAHPAUlua_State@@@Z	; CvLuaPlot::lIsVisible
PUBLIC	??_C@_0BB@HNCHANHC@HasBarbarianCamp?$AA@	; `string'
PUBLIC	?lHasBarbarianCamp@CvLuaPlot@@KAHPAUlua_State@@@Z ; CvLuaPlot::lHasBarbarianCamp
PUBLIC	??_C@_0BE@EPJKJJAH@IsRevealedBarbarian?$AA@	; `string'
PUBLIC	?lIsRevealedBarbarian@CvLuaPlot@@KAHPAUlua_State@@@Z ; CvLuaPlot::lIsRevealedBarbarian
PUBLIC	??_C@_0M@NJNEDJLP@IsBarbarian?$AA@		; `string'
PUBLIC	?lIsBarbarian@CvLuaPlot@@KAHPAUlua_State@@@Z	; CvLuaPlot::lIsBarbarian
PUBLIC	??_C@_07FAAHJANI@IsOwned?$AA@			; `string'
PUBLIC	?lIsOwned@CvLuaPlot@@KAHPAUlua_State@@@Z	; CvLuaPlot::lIsOwned
PUBLIC	??_C@_0P@CLEIAJCJ@IsAdjacentTeam?$AA@		; `string'
PUBLIC	?lIsAdjacentTeam@CvLuaPlot@@KAHPAUlua_State@@@Z	; CvLuaPlot::lIsAdjacentTeam
PUBLIC	??_C@_0BB@GCLEKLKL@IsAdjacentPlayer?$AA@	; `string'
PUBLIC	?lIsAdjacentPlayer@CvLuaPlot@@KAHPAUlua_State@@@Z ; CvLuaPlot::lIsAdjacentPlayer
PUBLIC	??_C@_0BA@GGEJAJJC@IsAdjacentOwned?$AA@		; `string'
PUBLIC	?lIsAdjacentOwned@CvLuaPlot@@KAHPAUlua_State@@@Z ; CvLuaPlot::lIsAdjacentOwned
PUBLIC	??_C@_0BI@EBOAMIEM@ChangeExtraMovePathCost?$AA@	; `string'
PUBLIC	?lChangeExtraMovePathCost@CvLuaPlot@@KAHPAUlua_State@@@Z ; CvLuaPlot::lChangeExtraMovePathCost
PUBLIC	??_C@_0BF@KMAGHFNO@GetExtraMovePathCost?$AA@	; `string'
PUBLIC	?lGetExtraMovePathCost@CvLuaPlot@@KAHPAUlua_State@@@Z ; CvLuaPlot::lGetExtraMovePathCost
PUBLIC	??_C@_0N@GOFKPDCB@MovementCost?$AA@		; `string'
PUBLIC	?lMovementCost@CvLuaPlot@@KAHPAUlua_State@@@Z	; CvLuaPlot::lMovementCost
PUBLIC	??_C@_0BA@BLEBFEEF@DefenseModifier?$AA@		; `string'
PUBLIC	?lDefenseModifier@CvLuaPlot@@KAHPAUlua_State@@@Z ; CvLuaPlot::lDefenseModifier
PUBLIC	??_C@_0N@GAHBCOIE@GetUnitPower?$AA@		; `string'
PUBLIC	?lGetUnitPower@CvLuaPlot@@KAHPAUlua_State@@@Z	; CvLuaPlot::lGetUnitPower
PUBLIC	??_C@_0BA@LEIHGKM@GetSelectedUnit?$AA@		; `string'
PUBLIC	?lGetSelectedUnit@CvLuaPlot@@KAHPAUlua_State@@@Z ; CvLuaPlot::lGetSelectedUnit
PUBLIC	??_C@_0BA@NNICPDNO@GetBestDefender?$AA@		; `string'
PUBLIC	?lGetBestDefender@CvLuaPlot@@KAHPAUlua_State@@@Z ; CvLuaPlot::lGetBestDefender
PUBLIC	??_C@_0P@FHMAACMJ@GetFeatureFood?$AA@		; `string'
PUBLIC	?lGetFeatureFood@CvLuaPlot@@KAHPAUlua_State@@@Z	; CvLuaPlot::lGetFeatureFood
PUBLIC	??_C@_0BF@FDDHIDF@GetFeatureProduction?$AA@	; `string'
PUBLIC	?lGetFeatureProduction@CvLuaPlot@@KAHPAUlua_State@@@Z ; CvLuaPlot::lGetFeatureProduction
PUBLIC	??_C@_0BD@MBBBIJOB@GetBuildTurnsTotal?$AA@	; `string'
PUBLIC	?lGetBuildTurnsTotal@CvLuaPlot@@KAHPAUlua_State@@@Z ; CvLuaPlot::lGetBuildTurnsTotal
PUBLIC	??_C@_0BC@CDKKMKGA@GetBuildTurnsLeft?$AA@	; `string'
PUBLIC	?lGetBuildTurnsLeft@CvLuaPlot@@KAHPAUlua_State@@@Z ; CvLuaPlot::lGetBuildTurnsLeft
PUBLIC	??_C@_0N@CNOLIDLO@GetBuildTime?$AA@		; `string'
PUBLIC	?lGetBuildTime@CvLuaPlot@@KAHPAUlua_State@@@Z	; CvLuaPlot::lGetBuildTime
PUBLIC	??_C@_08EMPBKDLI@CanBuild?$AA@			; `string'
PUBLIC	?lCanBuild@CvLuaPlot@@KAHPAUlua_State@@@Z	; CvLuaPlot::lCanBuild
PUBLIC	??_C@_0BD@PCLEPEFH@CanHaveImprovement?$AA@	; `string'
PUBLIC	?lCanHaveImprovement@CvLuaPlot@@KAHPAUlua_State@@@Z ; CvLuaPlot::lCanHaveImprovement
PUBLIC	??_C@_0BA@JPMDNKAA@CanHaveResource?$AA@		; `string'
PUBLIC	?lCanHaveResource@CvLuaPlot@@KAHPAUlua_State@@@Z ; CvLuaPlot::lCanHaveResource
PUBLIC	??_C@_0BA@NCNGOMHO@SeeThroughLevel?$AA@		; `string'
PUBLIC	?lSeeThroughLevel@CvLuaPlot@@KAHPAUlua_State@@@Z ; CvLuaPlot::lSeeThroughLevel
PUBLIC	??_C@_0BD@IHNANKAE@GetNearestLandPlot?$AA@	; `string'
PUBLIC	?lGetNearestLandPlot@CvLuaPlot@@KAHPAUlua_State@@@Z ; CvLuaPlot::lGetNearestLandPlot
PUBLIC	??_C@_0N@JLKKCACM@SeeFromLevel?$AA@		; `string'
PUBLIC	?lSeeFromLevel@CvLuaPlot@@KAHPAUlua_State@@@Z	; CvLuaPlot::lSeeFromLevel
PUBLIC	??_C@_0BD@FALECHFI@GetNearestLandArea?$AA@	; `string'
PUBLIC	?lGetNearestLandArea@CvLuaPlot@@KAHPAUlua_State@@@Z ; CvLuaPlot::lGetNearestLandArea
PUBLIC	??_C@_0BN@INFEOLLA@IsRiverCrossingFlowClockwise?$AA@ ; `string'
PUBLIC	?lIsRiverCrossingFlowClockwise@CvLuaPlot@@KAHPAUlua_State@@@Z ; CvLuaPlot::lIsRiverCrossingFlowClockwise
PUBLIC	??_C@_0BC@MEBABODO@IsRiverConnection?$AA@	; `string'
PUBLIC	?lIsRiverConnection@CvLuaPlot@@KAHPAUlua_State@@@Z ; CvLuaPlot::lIsRiverConnection
PUBLIC	??_C@_0M@JIJDEHJK@IsRiverSide?$AA@		; `string'
PUBLIC	?lIsRiverSide@CvLuaPlot@@KAHPAUlua_State@@@Z	; CvLuaPlot::lIsRiverSide
PUBLIC	??_C@_0N@NLOFOEOP@IsFreshWater?$AA@		; `string'
PUBLIC	?lIsFreshWater@CvLuaPlot@@KAHPAUlua_State@@@Z	; CvLuaPlot::lIsFreshWater
PUBLIC	??_C@_06HMCHPBEJ@IsLake?$AA@			; `string'
PUBLIC	?lIsLake@CvLuaPlot@@KAHPAUlua_State@@@Z		; CvLuaPlot::lIsLake
PUBLIC	??_C@_0BH@LEKKBAFC@IsWithinTeamCityRadius?$AA@	; `string'
PUBLIC	?lIsWithinTeamCityRadius@CvLuaPlot@@KAHPAUlua_State@@@Z ; CvLuaPlot::lIsWithinTeamCityRadius
PUBLIC	??_C@_0O@JCODHDNO@IsCoastalLand?$AA@		; `string'
PUBLIC	?lIsCoastalLand@CvLuaPlot@@KAHPAUlua_State@@@Z	; CvLuaPlot::lIsCoastalLand
PUBLIC	??_C@_0BJ@MHNLBPFC@IsAdjacentToShallowWater?$AA@ ; `string'
PUBLIC	?lIsAdjacentToShallowWater@CvLuaPlot@@KAHPAUlua_State@@@Z ; CvLuaPlot::lIsAdjacentToShallowWater
PUBLIC	??_C@_0BB@KMFODDOF@IsAdjacentToLand?$AA@	; `string'
PUBLIC	?lIsAdjacentToLand@CvLuaPlot@@KAHPAUlua_State@@@Z ; CvLuaPlot::lIsAdjacentToLand
PUBLIC	??_C@_0BC@KFKFNAOO@ShareAdjacentArea?$AA@	; `string'
PUBLIC	?lShareAdjacentArea@CvLuaPlot@@KAHPAUlua_State@@@Z ; CvLuaPlot::lShareAdjacentArea
PUBLIC	??_C@_0BB@GHEABEIB@IsAdjacentToArea?$AA@	; `string'
PUBLIC	?lIsAdjacentToArea@CvLuaPlot@@KAHPAUlua_State@@@Z ; CvLuaPlot::lIsAdjacentToArea
PUBLIC	??_C@_0BB@HLKLLBHO@UpdateVisibility?$AA@	; `string'
PUBLIC	?lUpdateVisibility@CvLuaPlot@@KAHPAUlua_State@@@Z ; CvLuaPlot::lUpdateVisibility
PUBLIC	??_C@_09NMKCDBDG@UpdateFog?$AA@			; `string'
PUBLIC	?lUpdateFog@CvLuaPlot@@KAHPAUlua_State@@@Z	; CvLuaPlot::lUpdateFog
PUBLIC	??_C@_0BA@JKJGDFML@GetInlandCorner?$AA@		; `string'
PUBLIC	?lGetInlandCorner@CvLuaPlot@@KAHPAUlua_State@@@Z ; CvLuaPlot::lGetInlandCorner
PUBLIC	??_C@_0O@BBFLFGKH@NukeExplosion?$AA@		; `string'
PUBLIC	?lNukeExplosion@CvLuaPlot@@KAHPAUlua_State@@@Z	; CvLuaPlot::lNukeExplosion
PUBLIC	??_C@_07KIJFBNDA@GetTeam?$AA@			; `string'
PUBLIC	?lGetTeam@CvLuaPlot@@KAHPAUlua_State@@@Z	; CvLuaPlot::lGetTeam
PUBLIC	??_C@_05FPBNKPKB@Erase?$AA@			; `string'
PUBLIC	?lErase@CvLuaPlot@@KAHPAUlua_State@@@Z		; CvLuaPlot::lErase
PUBLIC	??_C@_06OAPDBHPB@IsNone?$AA@			; `string'
PUBLIC	?lIsNone@CvLuaPlot@@KAHPAUlua_State@@@Z		; CvLuaPlot::lIsNone
PUBLIC	??_C@_0P@FAKCNGGM@SetTerrainType?$AA@		; `string'
PUBLIC	?lSetTerrainType@CvLuaPlot@@KAHPAUlua_State@@@Z	; CvLuaPlot::lSetTerrainType
PUBLIC	??_C@_0P@PIONOBEI@SetFeatureType?$AA@		; `string'
PUBLIC	?lSetFeatureType@CvLuaPlot@@KAHPAUlua_State@@@Z	; CvLuaPlot::lSetFeatureType
PUBLIC	??_C@_07HDBOHACA@IsWater?$AA@			; `string'
PUBLIC	?lIsWater@CvLuaPlot@@KAHPAUlua_State@@@Z	; CvLuaPlot::lIsWater
PUBLIC	??_C@_07LJKKGCNJ@IsRiver?$AA@			; `string'
PUBLIC	?lIsRiver@CvLuaPlot@@KAHPAUlua_State@@@Z	; CvLuaPlot::lIsRiver
PUBLIC	??_C@_0P@JOLMCMEA@GetTerrainType?$AA@		; `string'
PUBLIC	?lGetTerrainType@CvLuaPlot@@KAHPAUlua_State@@@Z	; CvLuaPlot::lGetTerrainType
PUBLIC	??_C@_0P@DGPDBLGE@GetFeatureType?$AA@		; `string'
PUBLIC	?lGetFeatureType@CvLuaPlot@@KAHPAUlua_State@@@Z	; CvLuaPlot::lGetFeatureType
PUBLIC	??_C@_0P@LGGDKNMF@CanHaveFeature?$AA@		; `string'
PUBLIC	?lCanHaveFeature@CvLuaPlot@@KAHPAUlua_State@@@Z	; CvLuaPlot::lCanHaveFeature
PUBLIC	?PushMethods@CvLuaPlot@@SAXPAUlua_State@@H@Z	; CvLuaPlot::PushMethods
EXTRN	_lua_setfield:PROC
EXTRN	_lua_pushcclosure:PROC
;	COMDAT ??_C@_0BC@JKDJOJEA@SetCityPurchaseID?$AA@
; File d:\sources\lekmod_git\checkout\lekmod_dll\cvgamecoredll_expansion2\lua\cvluaplot.cpp
CONST	SEGMENT
??_C@_0BC@JKDJOJEA@SetCityPurchaseID?$AA@ DB 'SetCityPurchaseID', 00H ; `string'
CONST	ENDS
;	COMDAT ??_C@_0BC@LPDCGCFO@GetCityPurchaseID?$AA@
CONST	SEGMENT
??_C@_0BC@LPDCGCFO@GetCityPurchaseID?$AA@ DB 'GetCityPurchaseID', 00H ; `string'
CONST	ENDS
;	COMDAT ??_C@_0BD@NANOFFBN@HasWrittenArtifact?$AA@
CONST	SEGMENT
??_C@_0BD@NANOFFBN@HasWrittenArtifact?$AA@ DB 'HasWrittenArtifact', 00H ; `string'
CONST	ENDS
;	COMDAT ??_C@_0BL@OCKBDMDN@GetArchaeologyArtifactWork?$AA@
CONST	SEGMENT
??_C@_0BL@OCKBDMDN@GetArchaeologyArtifactWork?$AA@ DB 'GetArchaeologyArti'
	DB	'factWork', 00H				; `string'
CONST	ENDS
;	COMDAT ??_C@_0BO@OMCDNEIN@GetArchaeologyArtifactPlayer2?$AA@
CONST	SEGMENT
??_C@_0BO@OMCDNEIN@GetArchaeologyArtifactPlayer2?$AA@ DB 'GetArchaeologyA'
	DB	'rtifactPlayer2', 00H			; `string'
CONST	ENDS
;	COMDAT ??_C@_0BO@MHAOIHEO@GetArchaeologyArtifactPlayer1?$AA@
CONST	SEGMENT
??_C@_0BO@MHAOIHEO@GetArchaeologyArtifactPlayer1?$AA@ DB 'GetArchaeologyA'
	DB	'rtifactPlayer1', 00H			; `string'
CONST	ENDS
;	COMDAT ??_C@_0BK@EMCHHPLM@GetArchaeologyArtifactEra?$AA@
CONST	SEGMENT
??_C@_0BK@EMCHHPLM@GetArchaeologyArtifactEra?$AA@ DB 'GetArchaeologyArtif'
	DB	'actEra', 00H				; `string'
CONST	ENDS
;	COMDAT ??_C@_0BL@ENHELHEO@GetArchaeologyArtifactType?$AA@
CONST	SEGMENT
??_C@_0BL@ENHELHEO@GetArchaeologyArtifactType?$AA@ DB 'GetArchaeologyArti'
	DB	'factType', 00H				; `string'
CONST	ENDS
;	COMDAT ??_C@_0BG@PCIABHEK@IsBuildRemovesFeature?$AA@
CONST	SEGMENT
??_C@_0BG@PCIABHEK@IsBuildRemovesFeature?$AA@ DB 'IsBuildRemovesFeature', 00H ; `string'
CONST	ENDS
;	COMDAT ??_C@_0CB@KPLFICMP@IsResourceConnectedByImprovement@
CONST	SEGMENT
??_C@_0CB@KPLFICMP@IsResourceConnectedByImprovement@ DB 'IsResourceConnec'
	DB	'tedByImprovement', 00H			; `string'
CONST	ENDS
;	COMDAT ??_C@_0BE@GKMJANIP@SetContinentArtType?$AA@
CONST	SEGMENT
??_C@_0BE@GKMJANIP@SetContinentArtType?$AA@ DB 'SetContinentArtType', 00H ; `string'
CONST	ENDS
;	COMDAT ??_C@_0BE@MEOCENPD@GetContinentArtType?$AA@
CONST	SEGMENT
??_C@_0BE@MEOCENPD@GetContinentArtType?$AA@ DB 'GetContinentArtType', 00H ; `string'
CONST	ENDS
;	COMDAT ??_C@_0L@GKHDLKJE@CanSeePlot?$AA@
CONST	SEGMENT
??_C@_0L@GKHDLKJE@CanSeePlot?$AA@ DB 'CanSeePlot', 00H	; `string'
CONST	ENDS
;	COMDAT ??_C@_0BG@NEIGEDBJ@IsImprovementPillaged?$AA@
CONST	SEGMENT
??_C@_0BG@NEIGEDBJ@IsImprovementPillaged?$AA@ DB 'IsImprovementPillaged', 00H ; `string'
CONST	ENDS
;	COMDAT ??_C@_0BG@BKOPMAI@GetActiveFogOfWarMode?$AA@
CONST	SEGMENT
??_C@_0BG@BKOPMAI@GetActiveFogOfWarMode?$AA@ DB 'GetActiveFogOfWarMode', 00H ; `string'
CONST	ENDS
;	COMDAT ??_C@_0O@PGOPIEFE@SetScriptData?$AA@
CONST	SEGMENT
??_C@_0O@PGOPIEFE@SetScriptData?$AA@ DB 'SetScriptData', 00H ; `string'
CONST	ENDS
;	COMDAT ??_C@_0O@IJPBDHCD@GetScriptData?$AA@
CONST	SEGMENT
??_C@_0O@IJPBDHCD@GetScriptData?$AA@ DB 'GetScriptData', 00H ; `string'
CONST	ENDS
;	COMDAT ??_C@_0N@KMFKPML@GetLayerUnit?$AA@
CONST	SEGMENT
??_C@_0N@KMFKPML@GetLayerUnit?$AA@ DB 'GetLayerUnit', 00H ; `string'
CONST	ENDS
;	COMDAT ??_C@_0BB@CJPGAEMO@GetNumLayerUnits?$AA@
CONST	SEGMENT
??_C@_0BB@CJPGAEMO@GetNumLayerUnits?$AA@ DB 'GetNumLayerUnits', 00H ; `string'
CONST	ENDS
;	COMDAT ??_C@_07NHOHELCB@GetUnit?$AA@
CONST	SEGMENT
??_C@_07NHOHELCB@GetUnit?$AA@ DB 'GetUnit', 00H		; `string'
CONST	ENDS
;	COMDAT ??_C@_0M@GNPEBAGL@GetNumUnits?$AA@
CONST	SEGMENT
??_C@_0M@GNPEBAGL@GetNumUnits?$AA@ DB 'GetNumUnits', 00H ; `string'
CONST	ENDS
;	COMDAT ??_C@_0BP@LBNFAPK@ChangeInvisibleVisibilityCount?$AA@
CONST	SEGMENT
??_C@_0BP@LBNFAPK@ChangeInvisibleVisibilityCount?$AA@ DB 'ChangeInvisible'
	DB	'VisibilityCount', 00H			; `string'
CONST	ENDS
;	COMDAT ??_C@_0BD@INIFKIEI@IsInvisibleVisible?$AA@
CONST	SEGMENT
??_C@_0BD@INIFKIEI@IsInvisibleVisible?$AA@ DB 'IsInvisibleVisible', 00H ; `string'
CONST	ENDS
;	COMDAT ??_C@_0BM@FGJPJMNO@GetInvisibleVisibilityCount?$AA@
CONST	SEGMENT
??_C@_0BM@FGJPJMNO@GetInvisibleVisibilityCount?$AA@ DB 'GetInvisibleVisib'
	DB	'ilityCount', 00H				; `string'
CONST	ENDS
;	COMDAT ??_C@_0BE@JOFNMHNE@ChangeBuildProgress?$AA@
CONST	SEGMENT
??_C@_0BE@JOFNMHNE@ChangeBuildProgress?$AA@ DB 'ChangeBuildProgress', 00H ; `string'
CONST	ENDS
;	COMDAT ??_C@_0BB@JNKOGOND@GetBuildProgress?$AA@
CONST	SEGMENT
??_C@_0BB@JNKOGOND@GetBuildProgress?$AA@ DB 'GetBuildProgress', 00H ; `string'
CONST	ENDS
;	COMDAT ??_C@_0BF@IFAHMPDF@GetRevealedRouteType?$AA@
CONST	SEGMENT
??_C@_0BF@IFAHMPDF@GetRevealedRouteType?$AA@ DB 'GetRevealedRouteType', 00H ; `string'
CONST	ENDS
;	COMDAT ??_C@_0BL@PNNIAODD@GetRevealedImprovementType?$AA@
CONST	SEGMENT
??_C@_0BL@PNNIAODD@GetRevealedImprovementType?$AA@ DB 'GetRevealedImprove'
	DB	'mentType', 00H				; `string'
CONST	ENDS
;	COMDAT ??_C@_0M@JIOPKDAN@SetRevealed?$AA@
CONST	SEGMENT
??_C@_0M@JIOPKDAN@SetRevealed?$AA@ DB 'SetRevealed', 00H ; `string'
CONST	ENDS
;	COMDAT ??_C@_0L@KNACFKBL@IsRevealed?$AA@
CONST	SEGMENT
??_C@_0L@KNACFKBL@IsRevealed?$AA@ DB 'IsRevealed', 00H	; `string'
CONST	ENDS
;	COMDAT ??_C@_0BG@BDOILNLO@IsRiverCrossingToPlot?$AA@
CONST	SEGMENT
??_C@_0BG@BDOILNLO@IsRiverCrossingToPlot?$AA@ DB 'IsRiverCrossingToPlot', 00H ; `string'
CONST	ENDS
;	COMDAT ??_C@_0BA@MJKALLIG@IsRiverCrossing?$AA@
CONST	SEGMENT
??_C@_0BA@MJKALLIG@IsRiverCrossing?$AA@ DB 'IsRiverCrossing', 00H ; `string'
CONST	ENDS
;	COMDAT ??_C@_0BA@GEFNGHGP@GetRevealedTeam?$AA@
CONST	SEGMENT
??_C@_0BA@GEFNGHGP@GetRevealedTeam?$AA@ DB 'GetRevealedTeam', 00H ; `string'
CONST	ENDS
;	COMDAT ??_C@_0BB@OFCBENIO@GetRevealedOwner?$AA@
CONST	SEGMENT
??_C@_0BB@OFCBENIO@GetRevealedOwner?$AA@ DB 'GetRevealedOwner', 00H ; `string'
CONST	ENDS
;	COMDAT ??_C@_0BG@CELPDLDF@ChangeVisibilityCount?$AA@
CONST	SEGMENT
??_C@_0BG@CELPDLDF@ChangeVisibilityCount?$AA@ DB 'ChangeVisibilityCount', 00H ; `string'
CONST	ENDS
;	COMDAT ??_C@_0BD@MEPELFEN@GetVisibilityCount?$AA@
CONST	SEGMENT
??_C@_0BD@MEPELFEN@GetVisibilityCount?$AA@ DB 'GetVisibilityCount', 00H ; `string'
CONST	ENDS
;	COMDAT ??_C@_0BD@FCCJINHM@IsPlayerCityRadius?$AA@
CONST	SEGMENT
??_C@_0BD@FCCJINHM@IsPlayerCityRadius?$AA@ DB 'IsPlayerCityRadius', 00H ; `string'
CONST	ENDS
;	COMDAT ??_C@_0BJ@FHECNEHC@GetPlayerCityRadiusCount?$AA@
CONST	SEGMENT
??_C@_0BJ@FHECNEHC@GetPlayerCityRadiusCount?$AA@ DB 'GetPlayerCityRadiusC'
	DB	'ount', 00H					; `string'
CONST	ENDS
;	COMDAT ??_C@_0BE@MJJBFBHH@IsBestAdjacentFound?$AA@
CONST	SEGMENT
??_C@_0BE@MJJBFBHH@IsBestAdjacentFound?$AA@ DB 'IsBestAdjacentFound', 00H ; `string'
CONST	ENDS
;	COMDAT ??_C@_0O@GFNIBAIO@GetFoundValue?$AA@
CONST	SEGMENT
??_C@_0O@GFNIBAIO@GetFoundValue?$AA@ DB 'GetFoundValue', 00H ; `string'
CONST	ENDS
;	COMDAT ??_C@_0BB@ODLGAIAC@CountNumAirUnits?$AA@
CONST	SEGMENT
??_C@_0BB@ODLGAIAC@CountNumAirUnits?$AA@ DB 'CountNumAirUnits', 00H ; `string'
CONST	ENDS
;	COMDAT ??_C@_0BC@FCJPHHA@GetYieldWithBuild?$AA@
CONST	SEGMENT
??_C@_0BC@FCJPHHA@GetYieldWithBuild?$AA@ DB 'GetYieldWithBuild', 00H ; `string'
CONST	ENDS
;	COMDAT ??_C@_08EOHKPHAI@HasYield?$AA@
CONST	SEGMENT
??_C@_08EOHKPHAI@HasYield?$AA@ DB 'HasYield', 00H	; `string'
CONST	ENDS
;	COMDAT ??_C@_0P@CENIPKEL@CalculateYield?$AA@
CONST	SEGMENT
??_C@_0P@CENIPKEL@CalculateYield?$AA@ DB 'CalculateYield', 00H ; `string'
CONST	ENDS
;	COMDAT ??_C@_0CA@FIAOIPPH@CalculateImprovementYieldChange?$AA@
CONST	SEGMENT
??_C@_0CA@FIAOIPPH@CalculateImprovementYieldChange?$AA@ DB 'CalculateImpr'
	DB	'ovementYieldChange', 00H			; `string'
CONST	ENDS
;	COMDAT ??_C@_0BO@EHFPFGPL@CalculateTotalBestNatureYield?$AA@
CONST	SEGMENT
??_C@_0BO@EHFPFGPL@CalculateTotalBestNatureYield?$AA@ DB 'CalculateTotalB'
	DB	'estNatureYield', 00H			; `string'
CONST	ENDS
;	COMDAT ??_C@_0BJ@OAMDIALM@CalculateBestNatureYield?$AA@
CONST	SEGMENT
??_C@_0BJ@OAMDIALM@CalculateBestNatureYield?$AA@ DB 'CalculateBestNatureY'
	DB	'ield', 00H					; `string'
CONST	ENDS
;	COMDAT ??_C@_0BF@CBKOLKOI@CalculateNatureYield?$AA@
CONST	SEGMENT
??_C@_0BF@CBKOLKOI@CalculateNatureYield?$AA@ DB 'CalculateNatureYield', 00H ; `string'
CONST	ENDS
;	COMDAT ??_C@_08NACOAIKN@GetYield?$AA@
CONST	SEGMENT
??_C@_08NACOAIKN@GetYield?$AA@ DB 'GetYield', 00H	; `string'
CONST	ENDS
;	COMDAT ??_C@_0BG@PHPNMIIM@GetRiverCrossingCount?$AA@
CONST	SEGMENT
??_C@_0BG@PHPNMIIM@GetRiverCrossingCount?$AA@ DB 'GetRiverCrossingCount', 00H ; `string'
CONST	ENDS
;	COMDAT ??_C@_0O@FJEFAJPI@GetReconCount?$AA@
CONST	SEGMENT
??_C@_0O@FJEFAJPI@GetReconCount?$AA@ DB 'GetReconCount', 00H ; `string'
CONST	ENDS
;	COMDAT ??_C@_0BH@OOJOMMJK@GetWorkingCityOverride?$AA@
CONST	SEGMENT
??_C@_0BH@OOJOMMJK@GetWorkingCityOverride?$AA@ DB 'GetWorkingCityOverride'
	DB	00H						; `string'
CONST	ENDS
;	COMDAT ??_C@_0P@FJAEMPGB@GetWorkingCity?$AA@
CONST	SEGMENT
??_C@_0P@FJAEMPGB@GetWorkingCity?$AA@ DB 'GetWorkingCity', 00H ; `string'
CONST	ENDS
;	COMDAT ??_C@_0M@PCNDGHAN@GetPlotCity?$AA@
CONST	SEGMENT
??_C@_0M@PCNDGHAN@GetPlotCity?$AA@ DB 'GetPlotCity', 00H ; `string'
CONST	ENDS
;	COMDAT ??_C@_0BA@BOKCMBNI@IsRoutePillaged?$AA@
CONST	SEGMENT
??_C@_0BA@BOKCMBNI@IsRoutePillaged?$AA@ DB 'IsRoutePillaged', 00H ; `string'
CONST	ENDS
;	COMDAT ??_C@_0N@LHILEECB@SetRouteType?$AA@
CONST	SEGMENT
??_C@_0N@LHILEECB@SetRouteType?$AA@ DB 'SetRouteType', 00H ; `string'
CONST	ENDS
;	COMDAT ??_C@_0N@MDDFIIGN@GetRouteType?$AA@
CONST	SEGMENT
??_C@_0N@MDDFIIGN@GetRouteType?$AA@ DB 'GetRouteType', 00H ; `string'
CONST	ENDS
;	COMDAT ??_C@_0BH@HIMINBGH@SetImprovementPillaged?$AA@
CONST	SEGMENT
??_C@_0BH@HIMINBGH@SetImprovementPillaged?$AA@ DB 'SetImprovementPillaged'
	DB	00H						; `string'
CONST	ENDS
;	COMDAT ??_C@_0BD@CDMJPHEA@SetImprovementType?$AA@
CONST	SEGMENT
??_C@_0BD@CDMJPHEA@SetImprovementType?$AA@ DB 'SetImprovementType', 00H ; `string'
CONST	ENDS
;	COMDAT ??_C@_0BD@NJODMBKI@GetImprovementType?$AA@
CONST	SEGMENT
??_C@_0BD@NJODMBKI@GetImprovementType?$AA@ DB 'GetImprovementType', 00H ; `string'
CONST	ENDS
;	COMDAT ??_C@_0BC@KPBOMALO@ChangeNumResource?$AA@
CONST	SEGMENT
??_C@_0BC@KPBOMALO@ChangeNumResource?$AA@ DB 'ChangeNumResource', 00H ; `string'
CONST	ENDS
;	COMDAT ??_C@_0P@PFFHMNLP@SetNumResource?$AA@
CONST	SEGMENT
??_C@_0P@PFFHMNLP@SetNumResource?$AA@ DB 'SetNumResource', 00H ; `string'
CONST	ENDS
;	COMDAT ??_C@_0P@DLEJDHJD@GetNumResource?$AA@
CONST	SEGMENT
??_C@_0P@DLEJDHJD@GetNumResource?$AA@ DB 'GetNumResource', 00H ; `string'
CONST	ENDS
;	COMDAT ??_C@_0BA@MPFNFEGO@SetResourceType?$AA@
CONST	SEGMENT
??_C@_0BA@MPFNFEGO@SetResourceType?$AA@ DB 'SetResourceType', 00H ; `string'
CONST	ENDS
;	COMDAT ??_C@_0BL@OCHONID@GetNonObsoleteResourceType?$AA@
CONST	SEGMENT
??_C@_0BL@OCHONID@GetNonObsoleteResourceType?$AA@ DB 'GetNonObsoleteResou'
	DB	'rceType', 00H				; `string'
CONST	ENDS
;	COMDAT ??_C@_0BA@PNELCGHH@GetResourceType?$AA@
CONST	SEGMENT
??_C@_0BA@PNELCGHH@GetResourceType?$AA@ DB 'GetResourceType', 00H ; `string'
CONST	ENDS
;	COMDAT ??_C@_0M@JOGKFIAC@SetPlotType?$AA@
CONST	SEGMENT
??_C@_0M@JOGKFIAC@SetPlotType?$AA@ DB 'SetPlotType', 00H ; `string'
CONST	ENDS
;	COMDAT ??_C@_0L@LNALPAOM@IsMountain?$AA@
CONST	SEGMENT
??_C@_0L@LNALPAOM@IsMountain?$AA@ DB 'IsMountain', 00H	; `string'
CONST	ENDS
;	COMDAT ??_C@_0O@DNIIDOJH@IsRoughGround?$AA@
CONST	SEGMENT
??_C@_0O@DNIIDOJH@IsRoughGround?$AA@ DB 'IsRoughGround', 00H ; `string'
CONST	ENDS
;	COMDAT ??_C@_0N@DKDGHAGP@IsOpenGround?$AA@
CONST	SEGMENT
??_C@_0N@DKDGHAGP@IsOpenGround?$AA@ DB 'IsOpenGround', 00H ; `string'
CONST	ENDS
;	COMDAT ??_C@_07DCIJPOBB@IsHills?$AA@
CONST	SEGMENT
??_C@_07DCIJPOBB@IsHills?$AA@ DB 'IsHills', 00H		; `string'
CONST	ENDS
;	COMDAT ??_C@_0M@CIOEIJGM@IsFlatlands?$AA@
CONST	SEGMENT
??_C@_0M@CIOEIJGM@IsFlatlands?$AA@ DB 'IsFlatlands', 00H ; `string'
CONST	ENDS
;	COMDAT ??_C@_0M@JBHEIOIB@GetPlotType?$AA@
CONST	SEGMENT
??_C@_0M@JBHEIOIB@GetPlotType?$AA@ DB 'GetPlotType', 00H ; `string'
CONST	ENDS
;	COMDAT ??_C@_08OPBFNKOM@SetOwner?$AA@
CONST	SEGMENT
??_C@_08OPBFNKOM@SetOwner?$AA@ DB 'SetOwner', 00H	; `string'
CONST	ENDS
;	COMDAT ??_C@_08BODJMJJB@GetOwner?$AA@
CONST	SEGMENT
??_C@_08BODJMJJB@GetOwner?$AA@ DB 'GetOwner', 00H	; `string'
CONST	ENDS
;	COMDAT ??_C@_0BL@FNJICPCN@IsPotentialCityWorkForArea?$AA@
CONST	SEGMENT
??_C@_0BL@FNJICPCN@IsPotentialCityWorkForArea?$AA@ DB 'IsPotentialCityWor'
	DB	'kForArea', 00H				; `string'
CONST	ENDS
;	COMDAT ??_C@_0BE@ELJLKDMB@IsPotentialCityWork?$AA@
CONST	SEGMENT
??_C@_0BE@ELJLKDMB@IsPotentialCityWork?$AA@ DB 'IsPotentialCityWork', 00H ; `string'
CONST	ENDS
;	COMDAT ??_C@_0BI@MCMIAAIB@GetRiverSWFlowDirection?$AA@
CONST	SEGMENT
??_C@_0BI@MCMIAAIB@GetRiverSWFlowDirection?$AA@ DB 'GetRiverSWFlowDirecti'
	DB	'on', 00H					; `string'
CONST	ENDS
;	COMDAT ??_C@_0BI@COCMCOFP@GetRiverSEFlowDirection?$AA@
CONST	SEGMENT
??_C@_0BI@COCMCOFP@GetRiverSEFlowDirection?$AA@ DB 'GetRiverSEFlowDirecti'
	DB	'on', 00H					; `string'
CONST	ENDS
;	COMDAT ??_C@_0BH@KPEJPCF@GetRiverEFlowDirection?$AA@
CONST	SEGMENT
??_C@_0BH@KPEJPCF@GetRiverEFlowDirection?$AA@ DB 'GetRiverEFlowDirection', 00H ; `string'
CONST	ENDS
;	COMDAT ??_C@_0N@PMHPDLKG@SetNWOfRiver?$AA@
CONST	SEGMENT
??_C@_0N@PMHPDLKG@SetNWOfRiver?$AA@ DB 'SetNWOfRiver', 00H ; `string'
CONST	ENDS
;	COMDAT ??_C@_0M@IJOGDAO@IsNWOfRiver?$AA@
CONST	SEGMENT
??_C@_0M@IJOGDAO@IsNWOfRiver?$AA@ DB 'IsNWOfRiver', 00H	; `string'
CONST	ENDS
;	COMDAT ??_C@_0M@NHCDHKOK@SetWOfRiver?$AA@
CONST	SEGMENT
??_C@_0M@NHCDHKOK@SetWOfRiver?$AA@ DB 'SetWOfRiver', 00H ; `string'
CONST	ENDS
;	COMDAT ??_C@_0L@OCMOIDPM@IsWOfRiver?$AA@
CONST	SEGMENT
??_C@_0L@OCMOIDPM@IsWOfRiver?$AA@ DB 'IsWOfRiver', 00H	; `string'
CONST	ENDS
;	COMDAT ??_C@_0N@HOEJFBFB@SetNEOfRiver?$AA@
CONST	SEGMENT
??_C@_0N@HOEJFBFB@SetNEOfRiver?$AA@ DB 'SetNEOfRiver', 00H ; `string'
CONST	ENDS
;	COMDAT ??_C@_0M@IKKIAJPJ@IsNEOfRiver?$AA@
CONST	SEGMENT
??_C@_0M@IKKIAJPJ@IsNEOfRiver?$AA@ DB 'IsNEOfRiver', 00H ; `string'
CONST	ENDS
;	COMDAT ??_C@_0BA@GNONGEOP@SetStartingPlot?$AA@
CONST	SEGMENT
??_C@_0BA@GNONGEOP@SetStartingPlot?$AA@ DB 'SetStartingPlot', 00H ; `string'
CONST	ENDS
;	COMDAT ??_C@_0P@BPOJGNHB@IsStartingPlot?$AA@
CONST	SEGMENT
??_C@_0P@BPOJGNHB@IsStartingPlot?$AA@ DB 'IsStartingPlot', 00H ; `string'
CONST	ENDS
;	COMDAT ??_C@_0N@OOBJPEOH@IsCityRadius?$AA@
CONST	SEGMENT
??_C@_0N@OOBJPEOH@IsCityRadius?$AA@ DB 'IsCityRadius', 00H ; `string'
CONST	ENDS
;	COMDAT ??_C@_0BD@FMKHJCLK@GetCityRadiusCount?$AA@
CONST	SEGMENT
??_C@_0BD@FMKHJCLK@GetCityRadiusCount?$AA@ DB 'GetCityRadiusCount', 00H ; `string'
CONST	ENDS
;	COMDAT ??_C@_0BG@BMLACKEG@ChangeUpgradeProgress?$AA@
CONST	SEGMENT
??_C@_0BG@BMLACKEG@ChangeUpgradeProgress?$AA@ DB 'ChangeUpgradeProgress', 00H ; `string'
CONST	ENDS
;	COMDAT ??_C@_0BD@GNBJCNG@SetUpgradeProgress?$AA@
CONST	SEGMENT
??_C@_0BD@GNBJCNG@SetUpgradeProgress?$AA@ DB 'SetUpgradeProgress', 00H ; `string'
CONST	ENDS
;	COMDAT ??_C@_0BD@BBCMJJNG@GetUpgradeTimeLeft?$AA@
CONST	SEGMENT
??_C@_0BD@BBCMJJNG@GetUpgradeTimeLeft?$AA@ DB 'GetUpgradeTimeLeft', 00H ; `string'
CONST	ENDS
;	COMDAT ??_C@_0BD@PMPLKEDO@GetUpgradeProgress?$AA@
CONST	SEGMENT
??_C@_0BD@PMPLKEDO@GetUpgradeProgress?$AA@ DB 'GetUpgradeProgress', 00H ; `string'
CONST	ENDS
;	COMDAT ??_C@_0BK@GBKBPNDO@ChangeImprovementDuration?$AA@
CONST	SEGMENT
??_C@_0BK@GBKBPNDO@ChangeImprovementDuration?$AA@ DB 'ChangeImprovementDu'
	DB	'ration', 00H				; `string'
CONST	ENDS
;	COMDAT ??_C@_0BH@JGCIBAKO@SetImprovementDuration?$AA@
CONST	SEGMENT
??_C@_0BH@JGCIBAKO@SetImprovementDuration?$AA@ DB 'SetImprovementDuration'
	DB	00H						; `string'
CONST	ENDS
;	COMDAT ??_C@_0BH@JHAGDHHB@GetImprovementDuration?$AA@
CONST	SEGMENT
??_C@_0BH@JHAGDHHB@GetImprovementDuration?$AA@ DB 'GetImprovementDuration'
	DB	00H						; `string'
CONST	ENDS
;	COMDAT ??_C@_0BI@OJDEJCCM@ChangeOwnershipDuration?$AA@
CONST	SEGMENT
??_C@_0BI@OJDEJCCM@ChangeOwnershipDuration?$AA@ DB 'ChangeOwnershipDurati'
	DB	'on', 00H					; `string'
CONST	ENDS
;	COMDAT ??_C@_0BF@FNMPDJOJ@SetOwnershipDuration?$AA@
CONST	SEGMENT
??_C@_0BF@FNMPDJOJ@SetOwnershipDuration?$AA@ DB 'SetOwnershipDuration', 00H ; `string'
CONST	ENDS
;	COMDAT ??_C@_0BB@KOAOKKPA@IsOwnershipScore?$AA@
CONST	SEGMENT
??_C@_0BB@KOAOKKPA@IsOwnershipScore?$AA@ DB 'IsOwnershipScore', 00H ; `string'
CONST	ENDS
;	COMDAT ??_C@_0BF@ENCCPLO@GetOwnershipDuration?$AA@
CONST	SEGMENT
??_C@_0BF@ENCCPLO@GetOwnershipDuration?$AA@ DB 'GetOwnershipDuration', 00H ; `string'
CONST	ENDS
;	COMDAT ??_C@_0BC@PNINJHCK@GetFeatureVariety?$AA@
CONST	SEGMENT
??_C@_0BC@PNINJHCK@GetFeatureVariety?$AA@ DB 'GetFeatureVariety', 00H ; `string'
CONST	ENDS
;	COMDAT ??_C@_07JOBGLCOF@SetArea?$AA@
CONST	SEGMENT
??_C@_07JOBGLCOF@SetArea?$AA@ DB 'SetArea', 00H		; `string'
CONST	ENDS
;	COMDAT ??_C@_07GGOHINDE@GetArea?$AA@
CONST	SEGMENT
??_C@_07GGOHINDE@GetArea?$AA@ DB 'GetArea', 00H		; `string'
CONST	ENDS
;	COMDAT ??_C@_09CNIEIFHO@WaterArea?$AA@
CONST	SEGMENT
??_C@_09CNIEIFHO@WaterArea?$AA@ DB 'WaterArea', 00H	; `string'
CONST	ENDS
;	COMDAT ??_C@_04KPICECCB@Area?$AA@
CONST	SEGMENT
??_C@_04KPICECCB@Area?$AA@ DB 'Area', 00H		; `string'
CONST	ENDS
;	COMDAT ??_C@_0M@KCMGIFE@GetLatitude?$AA@
CONST	SEGMENT
??_C@_0M@KCMGIFE@GetLatitude?$AA@ DB 'GetLatitude', 00H	; `string'
CONST	ENDS
;	COMDAT ??_C@_0N@MPDLKONJ@GetPlotIndex?$AA@
CONST	SEGMENT
??_C@_0N@MPDLKONJ@GetPlotIndex?$AA@ DB 'GetPlotIndex', 00H ; `string'
CONST	ENDS
;	COMDAT ??_C@_02DKLFHNOI@At?$AA@
CONST	SEGMENT
??_C@_02DKLFHNOI@At?$AA@ DB 'At', 00H			; `string'
CONST	ENDS
;	COMDAT ??_C@_04OHHHKNBL@GetY?$AA@
CONST	SEGMENT
??_C@_04OHHHKNBL@GetY?$AA@ DB 'GetY', 00H		; `string'
CONST	ENDS
;	COMDAT ??_C@_04POGMJMFK@GetX?$AA@
CONST	SEGMENT
??_C@_04POGMJMFK@GetX?$AA@ DB 'GetX', 00H		; `string'
CONST	ENDS
;	COMDAT ??_C@_0N@MALFMDGK@IsImpassable?$AA@
CONST	SEGMENT
??_C@_0N@MALFMDGK@IsImpassable?$AA@ DB 'IsImpassable', 00H ; `string'
CONST	ENDS
;	COMDAT ??_C@_0BH@IFEGDFCC@IsValidDomainForAction?$AA@
CONST	SEGMENT
??_C@_0BH@IFEGDFCC@IsValidDomainForAction?$AA@ DB 'IsValidDomainForAction'
	DB	00H						; `string'
CONST	ENDS
;	COMDAT ??_C@_0BJ@CLNJIBGO@IsValidDomainForLocation?$AA@
CONST	SEGMENT
??_C@_0BJ@CLNJIBGO@IsValidDomainForLocation?$AA@ DB 'IsValidDomainForLoca'
	DB	'tion', 00H					; `string'
CONST	ENDS
;	COMDAT ??_C@_0N@CIBMJEHN@IsTradeRoute?$AA@
CONST	SEGMENT
??_C@_0N@CIBMJEHN@IsTradeRoute?$AA@ DB 'IsTradeRoute', 00H ; `string'
CONST	ENDS
;	COMDAT ??_C@_07DMDIHFEG@IsRoute?$AA@
CONST	SEGMENT
??_C@_07DMDIHFEG@IsRoute?$AA@ DB 'IsRoute', 00H		; `string'
CONST	ENDS
;	COMDAT ??_C@_0L@MOBAIMGP@IsFighting?$AA@
CONST	SEGMENT
??_C@_0L@MOBAIMGP@IsFighting?$AA@ DB 'IsFighting', 00H	; `string'
CONST	ENDS
;	COMDAT ??_C@_0BK@MEHFJEJD@GetNumFriendlyUnitsOfType?$AA@
CONST	SEGMENT
??_C@_0BK@MEHFJEJD@GetNumFriendlyUnitsOfType?$AA@ DB 'GetNumFriendlyUnits'
	DB	'OfType', 00H				; `string'
CONST	ENDS
;	COMDAT ??_C@_0BD@LCFOEEGJ@IsVisibleOtherUnit?$AA@
CONST	SEGMENT
??_C@_0BD@LCFOEEGJ@IsVisibleOtherUnit?$AA@ DB 'IsVisibleOtherUnit', 00H ; `string'
CONST	ENDS
;	COMDAT ??_C@_0BD@FOLPLHDK@IsVisibleEnemyUnit?$AA@
CONST	SEGMENT
??_C@_0BD@FOLPLHDK@IsVisibleEnemyUnit?$AA@ DB 'IsVisibleEnemyUnit', 00H ; `string'
CONST	ENDS
;	COMDAT ??_C@_0CF@KKFDFPEO@GetNumVisiblePotentialEnemyDefen@
CONST	SEGMENT
??_C@_0CF@KKFDFPEO@GetNumVisiblePotentialEnemyDefen@ DB 'GetNumVisiblePot'
	DB	'entialEnemyDefenders', 00H			; `string'
CONST	ENDS
;	COMDAT ??_C@_0BM@GIKOKOLI@GetNumVisibleEnemyDefenders?$AA@
CONST	SEGMENT
??_C@_0BM@GIKOKOLI@GetNumVisibleEnemyDefenders?$AA@ DB 'GetNumVisibleEnem'
	DB	'yDefenders', 00H				; `string'
CONST	ENDS
;	COMDAT ??_C@_0BA@GNAHEKAB@GetNumDefenders?$AA@
CONST	SEGMENT
??_C@_0BA@GNAHEKAB@GetNumDefenders?$AA@ DB 'GetNumDefenders', 00H ; `string'
CONST	ENDS
;	COMDAT ??_C@_0BH@KJEJGOKA@IsVisibleEnemyDefender?$AA@
CONST	SEGMENT
??_C@_0BH@KJEJGOKA@IsVisibleEnemyDefender?$AA@ DB 'IsVisibleEnemyDefender'
	DB	00H						; `string'
CONST	ENDS
;	COMDAT ??_C@_06BJOJODJC@IsUnit?$AA@
CONST	SEGMENT
??_C@_06BJOJODJC@IsUnit?$AA@ DB 'IsUnit', 00H		; `string'
CONST	ENDS
;	COMDAT ??_C@_0O@GHFLFPIL@IsBeingWorked?$AA@
CONST	SEGMENT
??_C@_0O@GHFLFPIL@IsBeingWorked?$AA@ DB 'IsBeingWorked', 00H ; `string'
CONST	ENDS
;	COMDAT ??_C@_0M@ICNFBAB@IsEnemyCity?$AA@
CONST	SEGMENT
??_C@_0M@ICNFBAB@IsEnemyCity?$AA@ DB 'IsEnemyCity', 00H	; `string'
CONST	ENDS
;	COMDAT ??_C@_0P@JPKGCGMM@IsFriendlyCity?$AA@
CONST	SEGMENT
??_C@_0P@JPKGCGMM@IsFriendlyCity?$AA@ DB 'IsFriendlyCity', 00H ; `string'
CONST	ENDS
;	COMDAT ??_C@_06MKMOPHGH@IsCity?$AA@
CONST	SEGMENT
??_C@_06MKMOPHGH@IsCity?$AA@ DB 'IsCity', 00H		; `string'
CONST	ENDS
;	COMDAT ??_C@_0BE@IMNKPHIO@IsFriendlyTerritory?$AA@
CONST	SEGMENT
??_C@_0BE@IMNKPHIO@IsFriendlyTerritory?$AA@ DB 'IsFriendlyTerritory', 00H ; `string'
CONST	ENDS
;	COMDAT ??_C@_0BA@HAPEMDMB@IsRevealedGoody?$AA@
CONST	SEGMENT
??_C@_0BA@HAPEMDMB@IsRevealedGoody?$AA@ DB 'IsRevealedGoody', 00H ; `string'
CONST	ENDS
;	COMDAT ??_C@_07KKNGKPLI@IsGoody?$AA@
CONST	SEGMENT
??_C@_07KKNGKPLI@IsGoody?$AA@ DB 'IsGoody', 00H		; `string'
CONST	ENDS
;	COMDAT ??_C@_0M@LKMCGBMH@RemoveGoody?$AA@
CONST	SEGMENT
??_C@_0M@LKMCGBMH@RemoveGoody?$AA@ DB 'RemoveGoody', 00H ; `string'
CONST	ENDS
;	COMDAT ??_C@_0BG@DBMNPJAN@IsAdjacentNonrevealed?$AA@
CONST	SEGMENT
??_C@_0BG@DBMNPJAN@IsAdjacentNonrevealed?$AA@ DB 'IsAdjacentNonrevealed', 00H ; `string'
CONST	ENDS
;	COMDAT ??_C@_0BD@OBOIAPPP@IsAdjacentRevealed?$AA@
CONST	SEGMENT
??_C@_0BD@OBOIAPPP@IsAdjacentRevealed?$AA@ DB 'IsAdjacentRevealed', 00H ; `string'
CONST	ENDS
;	COMDAT ??_C@_0BF@CNMKPADN@IsAdjacentNonvisible?$AA@
CONST	SEGMENT
??_C@_0BF@CNMKPADN@IsAdjacentNonvisible?$AA@ DB 'IsAdjacentNonvisible', 00H ; `string'
CONST	ENDS
;	COMDAT ??_C@_0BC@GICKPFNI@IsAdjacentVisible?$AA@
CONST	SEGMENT
??_C@_0BC@GICKPFNI@IsAdjacentVisible?$AA@ DB 'IsAdjacentVisible', 00H ; `string'
CONST	ENDS
;	COMDAT ??_C@_0BJ@FMJJGAJM@IsVisibleToWatchingHuman?$AA@
CONST	SEGMENT
??_C@_0BJ@FMJJGAJM@IsVisibleToWatchingHuman?$AA@ DB 'IsVisibleToWatchingH'
	DB	'uman', 00H					; `string'
CONST	ENDS
;	COMDAT ??_C@_0BA@CFACHEEE@IsActiveVisible?$AA@
CONST	SEGMENT
??_C@_0BA@CFACHEEE@IsActiveVisible?$AA@ DB 'IsActiveVisible', 00H ; `string'
CONST	ENDS
;	COMDAT ??_C@_09OLGPEPPJ@IsVisible?$AA@
CONST	SEGMENT
??_C@_09OLGPEPPJ@IsVisible?$AA@ DB 'IsVisible', 00H	; `string'
CONST	ENDS
;	COMDAT ??_C@_0BB@HNCHANHC@HasBarbarianCamp?$AA@
CONST	SEGMENT
??_C@_0BB@HNCHANHC@HasBarbarianCamp?$AA@ DB 'HasBarbarianCamp', 00H ; `string'
CONST	ENDS
;	COMDAT ??_C@_0BE@EPJKJJAH@IsRevealedBarbarian?$AA@
CONST	SEGMENT
??_C@_0BE@EPJKJJAH@IsRevealedBarbarian?$AA@ DB 'IsRevealedBarbarian', 00H ; `string'
CONST	ENDS
;	COMDAT ??_C@_0M@NJNEDJLP@IsBarbarian?$AA@
CONST	SEGMENT
??_C@_0M@NJNEDJLP@IsBarbarian?$AA@ DB 'IsBarbarian', 00H ; `string'
CONST	ENDS
;	COMDAT ??_C@_07FAAHJANI@IsOwned?$AA@
CONST	SEGMENT
??_C@_07FAAHJANI@IsOwned?$AA@ DB 'IsOwned', 00H		; `string'
CONST	ENDS
;	COMDAT ??_C@_0P@CLEIAJCJ@IsAdjacentTeam?$AA@
CONST	SEGMENT
??_C@_0P@CLEIAJCJ@IsAdjacentTeam?$AA@ DB 'IsAdjacentTeam', 00H ; `string'
CONST	ENDS
;	COMDAT ??_C@_0BB@GCLEKLKL@IsAdjacentPlayer?$AA@
CONST	SEGMENT
??_C@_0BB@GCLEKLKL@IsAdjacentPlayer?$AA@ DB 'IsAdjacentPlayer', 00H ; `string'
CONST	ENDS
;	COMDAT ??_C@_0BA@GGEJAJJC@IsAdjacentOwned?$AA@
CONST	SEGMENT
??_C@_0BA@GGEJAJJC@IsAdjacentOwned?$AA@ DB 'IsAdjacentOwned', 00H ; `string'
CONST	ENDS
;	COMDAT ??_C@_0BI@EBOAMIEM@ChangeExtraMovePathCost?$AA@
CONST	SEGMENT
??_C@_0BI@EBOAMIEM@ChangeExtraMovePathCost?$AA@ DB 'ChangeExtraMovePathCo'
	DB	'st', 00H					; `string'
CONST	ENDS
;	COMDAT ??_C@_0BF@KMAGHFNO@GetExtraMovePathCost?$AA@
CONST	SEGMENT
??_C@_0BF@KMAGHFNO@GetExtraMovePathCost?$AA@ DB 'GetExtraMovePathCost', 00H ; `string'
CONST	ENDS
;	COMDAT ??_C@_0N@GOFKPDCB@MovementCost?$AA@
CONST	SEGMENT
??_C@_0N@GOFKPDCB@MovementCost?$AA@ DB 'MovementCost', 00H ; `string'
CONST	ENDS
;	COMDAT ??_C@_0BA@BLEBFEEF@DefenseModifier?$AA@
CONST	SEGMENT
??_C@_0BA@BLEBFEEF@DefenseModifier?$AA@ DB 'DefenseModifier', 00H ; `string'
CONST	ENDS
;	COMDAT ??_C@_0N@GAHBCOIE@GetUnitPower?$AA@
CONST	SEGMENT
??_C@_0N@GAHBCOIE@GetUnitPower?$AA@ DB 'GetUnitPower', 00H ; `string'
CONST	ENDS
;	COMDAT ??_C@_0BA@LEIHGKM@GetSelectedUnit?$AA@
CONST	SEGMENT
??_C@_0BA@LEIHGKM@GetSelectedUnit?$AA@ DB 'GetSelectedUnit', 00H ; `string'
CONST	ENDS
;	COMDAT ??_C@_0BA@NNICPDNO@GetBestDefender?$AA@
CONST	SEGMENT
??_C@_0BA@NNICPDNO@GetBestDefender?$AA@ DB 'GetBestDefender', 00H ; `string'
CONST	ENDS
;	COMDAT ??_C@_0P@FHMAACMJ@GetFeatureFood?$AA@
CONST	SEGMENT
??_C@_0P@FHMAACMJ@GetFeatureFood?$AA@ DB 'GetFeatureFood', 00H ; `string'
CONST	ENDS
;	COMDAT ??_C@_0BF@FDDHIDF@GetFeatureProduction?$AA@
CONST	SEGMENT
??_C@_0BF@FDDHIDF@GetFeatureProduction?$AA@ DB 'GetFeatureProduction', 00H ; `string'
CONST	ENDS
;	COMDAT ??_C@_0BD@MBBBIJOB@GetBuildTurnsTotal?$AA@
CONST	SEGMENT
??_C@_0BD@MBBBIJOB@GetBuildTurnsTotal?$AA@ DB 'GetBuildTurnsTotal', 00H ; `string'
CONST	ENDS
;	COMDAT ??_C@_0BC@CDKKMKGA@GetBuildTurnsLeft?$AA@
CONST	SEGMENT
??_C@_0BC@CDKKMKGA@GetBuildTurnsLeft?$AA@ DB 'GetBuildTurnsLeft', 00H ; `string'
CONST	ENDS
;	COMDAT ??_C@_0N@CNOLIDLO@GetBuildTime?$AA@
CONST	SEGMENT
??_C@_0N@CNOLIDLO@GetBuildTime?$AA@ DB 'GetBuildTime', 00H ; `string'
CONST	ENDS
;	COMDAT ??_C@_08EMPBKDLI@CanBuild?$AA@
CONST	SEGMENT
??_C@_08EMPBKDLI@CanBuild?$AA@ DB 'CanBuild', 00H	; `string'
CONST	ENDS
;	COMDAT ??_C@_0BD@PCLEPEFH@CanHaveImprovement?$AA@
CONST	SEGMENT
??_C@_0BD@PCLEPEFH@CanHaveImprovement?$AA@ DB 'CanHaveImprovement', 00H ; `string'
CONST	ENDS
;	COMDAT ??_C@_0BA@JPMDNKAA@CanHaveResource?$AA@
CONST	SEGMENT
??_C@_0BA@JPMDNKAA@CanHaveResource?$AA@ DB 'CanHaveResource', 00H ; `string'
CONST	ENDS
;	COMDAT ??_C@_0BA@NCNGOMHO@SeeThroughLevel?$AA@
CONST	SEGMENT
??_C@_0BA@NCNGOMHO@SeeThroughLevel?$AA@ DB 'SeeThroughLevel', 00H ; `string'
CONST	ENDS
;	COMDAT ??_C@_0BD@IHNANKAE@GetNearestLandPlot?$AA@
CONST	SEGMENT
??_C@_0BD@IHNANKAE@GetNearestLandPlot?$AA@ DB 'GetNearestLandPlot', 00H ; `string'
CONST	ENDS
;	COMDAT ??_C@_0N@JLKKCACM@SeeFromLevel?$AA@
CONST	SEGMENT
??_C@_0N@JLKKCACM@SeeFromLevel?$AA@ DB 'SeeFromLevel', 00H ; `string'
CONST	ENDS
;	COMDAT ??_C@_0BD@FALECHFI@GetNearestLandArea?$AA@
CONST	SEGMENT
??_C@_0BD@FALECHFI@GetNearestLandArea?$AA@ DB 'GetNearestLandArea', 00H ; `string'
CONST	ENDS
;	COMDAT ??_C@_0BN@INFEOLLA@IsRiverCrossingFlowClockwise?$AA@
CONST	SEGMENT
??_C@_0BN@INFEOLLA@IsRiverCrossingFlowClockwise?$AA@ DB 'IsRiverCrossingF'
	DB	'lowClockwise', 00H				; `string'
CONST	ENDS
;	COMDAT ??_C@_0BC@MEBABODO@IsRiverConnection?$AA@
CONST	SEGMENT
??_C@_0BC@MEBABODO@IsRiverConnection?$AA@ DB 'IsRiverConnection', 00H ; `string'
CONST	ENDS
;	COMDAT ??_C@_0M@JIJDEHJK@IsRiverSide?$AA@
CONST	SEGMENT
??_C@_0M@JIJDEHJK@IsRiverSide?$AA@ DB 'IsRiverSide', 00H ; `string'
CONST	ENDS
;	COMDAT ??_C@_0N@NLOFOEOP@IsFreshWater?$AA@
CONST	SEGMENT
??_C@_0N@NLOFOEOP@IsFreshWater?$AA@ DB 'IsFreshWater', 00H ; `string'
CONST	ENDS
;	COMDAT ??_C@_06HMCHPBEJ@IsLake?$AA@
CONST	SEGMENT
??_C@_06HMCHPBEJ@IsLake?$AA@ DB 'IsLake', 00H		; `string'
CONST	ENDS
;	COMDAT ??_C@_0BH@LEKKBAFC@IsWithinTeamCityRadius?$AA@
CONST	SEGMENT
??_C@_0BH@LEKKBAFC@IsWithinTeamCityRadius?$AA@ DB 'IsWithinTeamCityRadius'
	DB	00H						; `string'
CONST	ENDS
;	COMDAT ??_C@_0O@JCODHDNO@IsCoastalLand?$AA@
CONST	SEGMENT
??_C@_0O@JCODHDNO@IsCoastalLand?$AA@ DB 'IsCoastalLand', 00H ; `string'
CONST	ENDS
;	COMDAT ??_C@_0BJ@MHNLBPFC@IsAdjacentToShallowWater?$AA@
CONST	SEGMENT
??_C@_0BJ@MHNLBPFC@IsAdjacentToShallowWater?$AA@ DB 'IsAdjacentToShallowW'
	DB	'ater', 00H					; `string'
CONST	ENDS
;	COMDAT ??_C@_0BB@KMFODDOF@IsAdjacentToLand?$AA@
CONST	SEGMENT
??_C@_0BB@KMFODDOF@IsAdjacentToLand?$AA@ DB 'IsAdjacentToLand', 00H ; `string'
CONST	ENDS
;	COMDAT ??_C@_0BC@KFKFNAOO@ShareAdjacentArea?$AA@
CONST	SEGMENT
??_C@_0BC@KFKFNAOO@ShareAdjacentArea?$AA@ DB 'ShareAdjacentArea', 00H ; `string'
CONST	ENDS
;	COMDAT ??_C@_0BB@GHEABEIB@IsAdjacentToArea?$AA@
CONST	SEGMENT
??_C@_0BB@GHEABEIB@IsAdjacentToArea?$AA@ DB 'IsAdjacentToArea', 00H ; `string'
CONST	ENDS
;	COMDAT ??_C@_0BB@HLKLLBHO@UpdateVisibility?$AA@
CONST	SEGMENT
??_C@_0BB@HLKLLBHO@UpdateVisibility?$AA@ DB 'UpdateVisibility', 00H ; `string'
CONST	ENDS
;	COMDAT ??_C@_09NMKCDBDG@UpdateFog?$AA@
CONST	SEGMENT
??_C@_09NMKCDBDG@UpdateFog?$AA@ DB 'UpdateFog', 00H	; `string'
CONST	ENDS
;	COMDAT ??_C@_0BA@JKJGDFML@GetInlandCorner?$AA@
CONST	SEGMENT
??_C@_0BA@JKJGDFML@GetInlandCorner?$AA@ DB 'GetInlandCorner', 00H ; `string'
CONST	ENDS
;	COMDAT ??_C@_0O@BBFLFGKH@NukeExplosion?$AA@
CONST	SEGMENT
??_C@_0O@BBFLFGKH@NukeExplosion?$AA@ DB 'NukeExplosion', 00H ; `string'
CONST	ENDS
;	COMDAT ??_C@_07KIJFBNDA@GetTeam?$AA@
CONST	SEGMENT
??_C@_07KIJFBNDA@GetTeam?$AA@ DB 'GetTeam', 00H		; `string'
CONST	ENDS
;	COMDAT ??_C@_05FPBNKPKB@Erase?$AA@
CONST	SEGMENT
??_C@_05FPBNKPKB@Erase?$AA@ DB 'Erase', 00H		; `string'
CONST	ENDS
;	COMDAT ??_C@_06OAPDBHPB@IsNone?$AA@
CONST	SEGMENT
??_C@_06OAPDBHPB@IsNone?$AA@ DB 'IsNone', 00H		; `string'
CONST	ENDS
;	COMDAT ??_C@_0P@FAKCNGGM@SetTerrainType?$AA@
CONST	SEGMENT
??_C@_0P@FAKCNGGM@SetTerrainType?$AA@ DB 'SetTerrainType', 00H ; `string'
CONST	ENDS
;	COMDAT ??_C@_0P@PIONOBEI@SetFeatureType?$AA@
CONST	SEGMENT
??_C@_0P@PIONOBEI@SetFeatureType?$AA@ DB 'SetFeatureType', 00H ; `string'
CONST	ENDS
;	COMDAT ??_C@_07HDBOHACA@IsWater?$AA@
CONST	SEGMENT
??_C@_07HDBOHACA@IsWater?$AA@ DB 'IsWater', 00H		; `string'
CONST	ENDS
;	COMDAT ??_C@_07LJKKGCNJ@IsRiver?$AA@
CONST	SEGMENT
??_C@_07LJKKGCNJ@IsRiver?$AA@ DB 'IsRiver', 00H		; `string'
CONST	ENDS
;	COMDAT ??_C@_0P@JOLMCMEA@GetTerrainType?$AA@
CONST	SEGMENT
??_C@_0P@JOLMCMEA@GetTerrainType?$AA@ DB 'GetTerrainType', 00H ; `string'
CONST	ENDS
;	COMDAT ??_C@_0P@DGPDBLGE@GetFeatureType?$AA@
CONST	SEGMENT
??_C@_0P@DGPDBLGE@GetFeatureType?$AA@ DB 'GetFeatureType', 00H ; `string'
CONST	ENDS
;	COMDAT ??_C@_0P@LGGDKNMF@CanHaveFeature?$AA@
CONST	SEGMENT
??_C@_0P@LGGDKNMF@CanHaveFeature?$AA@ DB 'CanHaveFeature', 00H ; `string'
; Function compile flags: /Odtp
CONST	ENDS
;	COMDAT ?PushMethods@CvLuaPlot@@SAXPAUlua_State@@H@Z
_TEXT	SEGMENT
_L$ = 8							; size = 4
_t$ = 12						; size = 4
?PushMethods@CvLuaPlot@@SAXPAUlua_State@@H@Z PROC	; CvLuaPlot::PushMethods, COMDAT

; 30   : {

	push	ebp
	mov	ebp, esp

; 31   : 	Method(CanHaveFeature);

	push	0
	push	OFFSET ?lCanHaveFeature@CvLuaPlot@@KAHPAUlua_State@@@Z ; CvLuaPlot::lCanHaveFeature
	mov	eax, DWORD PTR _L$[ebp]
	push	eax
	call	_lua_pushcclosure
	add	esp, 12					; 0000000cH
	push	OFFSET ??_C@_0P@LGGDKNMF@CanHaveFeature?$AA@
	mov	ecx, DWORD PTR _t$[ebp]
	push	ecx
	mov	edx, DWORD PTR _L$[ebp]
	push	edx
	call	_lua_setfield
	add	esp, 12					; 0000000cH

; 32   : 	Method(GetFeatureType);

	push	0
	push	OFFSET ?lGetFeatureType@CvLuaPlot@@KAHPAUlua_State@@@Z ; CvLuaPlot::lGetFeatureType
	mov	eax, DWORD PTR _L$[ebp]
	push	eax
	call	_lua_pushcclosure
	add	esp, 12					; 0000000cH
	push	OFFSET ??_C@_0P@DGPDBLGE@GetFeatureType?$AA@
	mov	ecx, DWORD PTR _t$[ebp]
	push	ecx
	mov	edx, DWORD PTR _L$[ebp]
	push	edx
	call	_lua_setfield
	add	esp, 12					; 0000000cH

; 33   : 	Method(GetTerrainType);

	push	0
	push	OFFSET ?lGetTerrainType@CvLuaPlot@@KAHPAUlua_State@@@Z ; CvLuaPlot::lGetTerrainType
	mov	eax, DWORD PTR _L$[ebp]
	push	eax
	call	_lua_pushcclosure
	add	esp, 12					; 0000000cH
	push	OFFSET ??_C@_0P@JOLMCMEA@GetTerrainType?$AA@
	mov	ecx, DWORD PTR _t$[ebp]
	push	ecx
	mov	edx, DWORD PTR _L$[ebp]
	push	edx
	call	_lua_setfield
	add	esp, 12					; 0000000cH

; 34   : 	Method(IsRiver);

	push	0
	push	OFFSET ?lIsRiver@CvLuaPlot@@KAHPAUlua_State@@@Z ; CvLuaPlot::lIsRiver
	mov	eax, DWORD PTR _L$[ebp]
	push	eax
	call	_lua_pushcclosure
	add	esp, 12					; 0000000cH
	push	OFFSET ??_C@_07LJKKGCNJ@IsRiver?$AA@
	mov	ecx, DWORD PTR _t$[ebp]
	push	ecx
	mov	edx, DWORD PTR _L$[ebp]
	push	edx
	call	_lua_setfield
	add	esp, 12					; 0000000cH

; 35   : 	Method(IsWater);

	push	0
	push	OFFSET ?lIsWater@CvLuaPlot@@KAHPAUlua_State@@@Z ; CvLuaPlot::lIsWater
	mov	eax, DWORD PTR _L$[ebp]
	push	eax
	call	_lua_pushcclosure
	add	esp, 12					; 0000000cH
	push	OFFSET ??_C@_07HDBOHACA@IsWater?$AA@
	mov	ecx, DWORD PTR _t$[ebp]
	push	ecx
	mov	edx, DWORD PTR _L$[ebp]
	push	edx
	call	_lua_setfield
	add	esp, 12					; 0000000cH

; 36   : 	Method(SetFeatureType);

	push	0
	push	OFFSET ?lSetFeatureType@CvLuaPlot@@KAHPAUlua_State@@@Z ; CvLuaPlot::lSetFeatureType
	mov	eax, DWORD PTR _L$[ebp]
	push	eax
	call	_lua_pushcclosure
	add	esp, 12					; 0000000cH
	push	OFFSET ??_C@_0P@PIONOBEI@SetFeatureType?$AA@
	mov	ecx, DWORD PTR _t$[ebp]
	push	ecx
	mov	edx, DWORD PTR _L$[ebp]
	push	edx
	call	_lua_setfield
	add	esp, 12					; 0000000cH

; 37   : 	Method(SetTerrainType);

	push	0
	push	OFFSET ?lSetTerrainType@CvLuaPlot@@KAHPAUlua_State@@@Z ; CvLuaPlot::lSetTerrainType
	mov	eax, DWORD PTR _L$[ebp]
	push	eax
	call	_lua_pushcclosure
	add	esp, 12					; 0000000cH
	push	OFFSET ??_C@_0P@FAKCNGGM@SetTerrainType?$AA@
	mov	ecx, DWORD PTR _t$[ebp]
	push	ecx
	mov	edx, DWORD PTR _L$[ebp]
	push	edx
	call	_lua_setfield
	add	esp, 12					; 0000000cH

; 38   : 
; 39   : 	Method(IsNone);

	push	0
	push	OFFSET ?lIsNone@CvLuaPlot@@KAHPAUlua_State@@@Z ; CvLuaPlot::lIsNone
	mov	eax, DWORD PTR _L$[ebp]
	push	eax
	call	_lua_pushcclosure
	add	esp, 12					; 0000000cH
	push	OFFSET ??_C@_06OAPDBHPB@IsNone?$AA@
	mov	ecx, DWORD PTR _t$[ebp]
	push	ecx
	mov	edx, DWORD PTR _L$[ebp]
	push	edx
	call	_lua_setfield
	add	esp, 12					; 0000000cH

; 40   : 	Method(Erase);

	push	0
	push	OFFSET ?lErase@CvLuaPlot@@KAHPAUlua_State@@@Z ; CvLuaPlot::lErase
	mov	eax, DWORD PTR _L$[ebp]
	push	eax
	call	_lua_pushcclosure
	add	esp, 12					; 0000000cH
	push	OFFSET ??_C@_05FPBNKPKB@Erase?$AA@
	mov	ecx, DWORD PTR _t$[ebp]
	push	ecx
	mov	edx, DWORD PTR _L$[ebp]
	push	edx
	call	_lua_setfield
	add	esp, 12					; 0000000cH

; 41   : 	Method(GetTeam);

	push	0
	push	OFFSET ?lGetTeam@CvLuaPlot@@KAHPAUlua_State@@@Z ; CvLuaPlot::lGetTeam
	mov	eax, DWORD PTR _L$[ebp]
	push	eax
	call	_lua_pushcclosure
	add	esp, 12					; 0000000cH
	push	OFFSET ??_C@_07KIJFBNDA@GetTeam?$AA@
	mov	ecx, DWORD PTR _t$[ebp]
	push	ecx
	mov	edx, DWORD PTR _L$[ebp]
	push	edx
	call	_lua_setfield
	add	esp, 12					; 0000000cH

; 42   : 
; 43   : 	Method(NukeExplosion);

	push	0
	push	OFFSET ?lNukeExplosion@CvLuaPlot@@KAHPAUlua_State@@@Z ; CvLuaPlot::lNukeExplosion
	mov	eax, DWORD PTR _L$[ebp]
	push	eax
	call	_lua_pushcclosure
	add	esp, 12					; 0000000cH
	push	OFFSET ??_C@_0O@BBFLFGKH@NukeExplosion?$AA@
	mov	ecx, DWORD PTR _t$[ebp]
	push	ecx
	mov	edx, DWORD PTR _L$[ebp]
	push	edx
	call	_lua_setfield
	add	esp, 12					; 0000000cH

; 44   : 
; 45   : 	Method(GetInlandCorner);

	push	0
	push	OFFSET ?lGetInlandCorner@CvLuaPlot@@KAHPAUlua_State@@@Z ; CvLuaPlot::lGetInlandCorner
	mov	eax, DWORD PTR _L$[ebp]
	push	eax
	call	_lua_pushcclosure
	add	esp, 12					; 0000000cH
	push	OFFSET ??_C@_0BA@JKJGDFML@GetInlandCorner?$AA@
	mov	ecx, DWORD PTR _t$[ebp]
	push	ecx
	mov	edx, DWORD PTR _L$[ebp]
	push	edx
	call	_lua_setfield
	add	esp, 12					; 0000000cH

; 46   : 
; 47   : 	Method(UpdateFog);

	push	0
	push	OFFSET ?lUpdateFog@CvLuaPlot@@KAHPAUlua_State@@@Z ; CvLuaPlot::lUpdateFog
	mov	eax, DWORD PTR _L$[ebp]
	push	eax
	call	_lua_pushcclosure
	add	esp, 12					; 0000000cH
	push	OFFSET ??_C@_09NMKCDBDG@UpdateFog?$AA@
	mov	ecx, DWORD PTR _t$[ebp]
	push	ecx
	mov	edx, DWORD PTR _L$[ebp]
	push	edx
	call	_lua_setfield
	add	esp, 12					; 0000000cH

; 48   : 	Method(UpdateVisibility);

	push	0
	push	OFFSET ?lUpdateVisibility@CvLuaPlot@@KAHPAUlua_State@@@Z ; CvLuaPlot::lUpdateVisibility
	mov	eax, DWORD PTR _L$[ebp]
	push	eax
	call	_lua_pushcclosure
	add	esp, 12					; 0000000cH
	push	OFFSET ??_C@_0BB@HLKLLBHO@UpdateVisibility?$AA@
	mov	ecx, DWORD PTR _t$[ebp]
	push	ecx
	mov	edx, DWORD PTR _L$[ebp]
	push	edx
	call	_lua_setfield
	add	esp, 12					; 0000000cH

; 49   : 	Method(IsAdjacentToArea);

	push	0
	push	OFFSET ?lIsAdjacentToArea@CvLuaPlot@@KAHPAUlua_State@@@Z ; CvLuaPlot::lIsAdjacentToArea
	mov	eax, DWORD PTR _L$[ebp]
	push	eax
	call	_lua_pushcclosure
	add	esp, 12					; 0000000cH
	push	OFFSET ??_C@_0BB@GHEABEIB@IsAdjacentToArea?$AA@
	mov	ecx, DWORD PTR _t$[ebp]
	push	ecx
	mov	edx, DWORD PTR _L$[ebp]
	push	edx
	call	_lua_setfield
	add	esp, 12					; 0000000cH

; 50   : 	Method(ShareAdjacentArea);

	push	0
	push	OFFSET ?lShareAdjacentArea@CvLuaPlot@@KAHPAUlua_State@@@Z ; CvLuaPlot::lShareAdjacentArea
	mov	eax, DWORD PTR _L$[ebp]
	push	eax
	call	_lua_pushcclosure
	add	esp, 12					; 0000000cH
	push	OFFSET ??_C@_0BC@KFKFNAOO@ShareAdjacentArea?$AA@
	mov	ecx, DWORD PTR _t$[ebp]
	push	ecx
	mov	edx, DWORD PTR _L$[ebp]
	push	edx
	call	_lua_setfield
	add	esp, 12					; 0000000cH

; 51   : 	Method(IsAdjacentToLand);

	push	0
	push	OFFSET ?lIsAdjacentToLand@CvLuaPlot@@KAHPAUlua_State@@@Z ; CvLuaPlot::lIsAdjacentToLand
	mov	eax, DWORD PTR _L$[ebp]
	push	eax
	call	_lua_pushcclosure
	add	esp, 12					; 0000000cH
	push	OFFSET ??_C@_0BB@KMFODDOF@IsAdjacentToLand?$AA@
	mov	ecx, DWORD PTR _t$[ebp]
	push	ecx
	mov	edx, DWORD PTR _L$[ebp]
	push	edx
	call	_lua_setfield
	add	esp, 12					; 0000000cH

; 52   : 	Method(IsAdjacentToShallowWater);

	push	0
	push	OFFSET ?lIsAdjacentToShallowWater@CvLuaPlot@@KAHPAUlua_State@@@Z ; CvLuaPlot::lIsAdjacentToShallowWater
	mov	eax, DWORD PTR _L$[ebp]
	push	eax
	call	_lua_pushcclosure
	add	esp, 12					; 0000000cH
	push	OFFSET ??_C@_0BJ@MHNLBPFC@IsAdjacentToShallowWater?$AA@
	mov	ecx, DWORD PTR _t$[ebp]
	push	ecx
	mov	edx, DWORD PTR _L$[ebp]
	push	edx
	call	_lua_setfield
	add	esp, 12					; 0000000cH

; 53   : 	Method(IsCoastalLand);

	push	0
	push	OFFSET ?lIsCoastalLand@CvLuaPlot@@KAHPAUlua_State@@@Z ; CvLuaPlot::lIsCoastalLand
	mov	eax, DWORD PTR _L$[ebp]
	push	eax
	call	_lua_pushcclosure
	add	esp, 12					; 0000000cH
	push	OFFSET ??_C@_0O@JCODHDNO@IsCoastalLand?$AA@
	mov	ecx, DWORD PTR _t$[ebp]
	push	ecx
	mov	edx, DWORD PTR _L$[ebp]
	push	edx
	call	_lua_setfield
	add	esp, 12					; 0000000cH

; 54   : 
; 55   : 	Method(IsWithinTeamCityRadius);

	push	0
	push	OFFSET ?lIsWithinTeamCityRadius@CvLuaPlot@@KAHPAUlua_State@@@Z ; CvLuaPlot::lIsWithinTeamCityRadius
	mov	eax, DWORD PTR _L$[ebp]
	push	eax
	call	_lua_pushcclosure
	add	esp, 12					; 0000000cH
	push	OFFSET ??_C@_0BH@LEKKBAFC@IsWithinTeamCityRadius?$AA@
	mov	ecx, DWORD PTR _t$[ebp]
	push	ecx
	mov	edx, DWORD PTR _L$[ebp]
	push	edx
	call	_lua_setfield
	add	esp, 12					; 0000000cH

; 56   : 
; 57   : 	Method(IsLake);

	push	0
	push	OFFSET ?lIsLake@CvLuaPlot@@KAHPAUlua_State@@@Z ; CvLuaPlot::lIsLake
	mov	eax, DWORD PTR _L$[ebp]
	push	eax
	call	_lua_pushcclosure
	add	esp, 12					; 0000000cH
	push	OFFSET ??_C@_06HMCHPBEJ@IsLake?$AA@
	mov	ecx, DWORD PTR _t$[ebp]
	push	ecx
	mov	edx, DWORD PTR _L$[ebp]
	push	edx
	call	_lua_setfield
	add	esp, 12					; 0000000cH

; 58   : 	Method(IsFreshWater);

	push	0
	push	OFFSET ?lIsFreshWater@CvLuaPlot@@KAHPAUlua_State@@@Z ; CvLuaPlot::lIsFreshWater
	mov	eax, DWORD PTR _L$[ebp]
	push	eax
	call	_lua_pushcclosure
	add	esp, 12					; 0000000cH
	push	OFFSET ??_C@_0N@NLOFOEOP@IsFreshWater?$AA@
	mov	ecx, DWORD PTR _t$[ebp]
	push	ecx
	mov	edx, DWORD PTR _L$[ebp]
	push	edx
	call	_lua_setfield
	add	esp, 12					; 0000000cH

; 59   : 
; 60   : 	Method(IsRiverSide);

	push	0
	push	OFFSET ?lIsRiverSide@CvLuaPlot@@KAHPAUlua_State@@@Z ; CvLuaPlot::lIsRiverSide
	mov	eax, DWORD PTR _L$[ebp]
	push	eax
	call	_lua_pushcclosure
	add	esp, 12					; 0000000cH
	push	OFFSET ??_C@_0M@JIJDEHJK@IsRiverSide?$AA@
	mov	ecx, DWORD PTR _t$[ebp]
	push	ecx
	mov	edx, DWORD PTR _L$[ebp]
	push	edx
	call	_lua_setfield
	add	esp, 12					; 0000000cH

; 61   : 	Method(IsRiverConnection);

	push	0
	push	OFFSET ?lIsRiverConnection@CvLuaPlot@@KAHPAUlua_State@@@Z ; CvLuaPlot::lIsRiverConnection
	mov	eax, DWORD PTR _L$[ebp]
	push	eax
	call	_lua_pushcclosure
	add	esp, 12					; 0000000cH
	push	OFFSET ??_C@_0BC@MEBABODO@IsRiverConnection?$AA@
	mov	ecx, DWORD PTR _t$[ebp]
	push	ecx
	mov	edx, DWORD PTR _L$[ebp]
	push	edx
	call	_lua_setfield
	add	esp, 12					; 0000000cH

; 62   : 	Method(IsRiverCrossingFlowClockwise);

	push	0
	push	OFFSET ?lIsRiverCrossingFlowClockwise@CvLuaPlot@@KAHPAUlua_State@@@Z ; CvLuaPlot::lIsRiverCrossingFlowClockwise
	mov	eax, DWORD PTR _L$[ebp]
	push	eax
	call	_lua_pushcclosure
	add	esp, 12					; 0000000cH
	push	OFFSET ??_C@_0BN@INFEOLLA@IsRiverCrossingFlowClockwise?$AA@
	mov	ecx, DWORD PTR _t$[ebp]
	push	ecx
	mov	edx, DWORD PTR _L$[ebp]
	push	edx
	call	_lua_setfield
	add	esp, 12					; 0000000cH

; 63   : 
; 64   : 	Method(GetNearestLandArea);

	push	0
	push	OFFSET ?lGetNearestLandArea@CvLuaPlot@@KAHPAUlua_State@@@Z ; CvLuaPlot::lGetNearestLandArea
	mov	eax, DWORD PTR _L$[ebp]
	push	eax
	call	_lua_pushcclosure
	add	esp, 12					; 0000000cH
	push	OFFSET ??_C@_0BD@FALECHFI@GetNearestLandArea?$AA@
	mov	ecx, DWORD PTR _t$[ebp]
	push	ecx
	mov	edx, DWORD PTR _L$[ebp]
	push	edx
	call	_lua_setfield
	add	esp, 12					; 0000000cH

; 65   : 	Method(SeeFromLevel);

	push	0
	push	OFFSET ?lSeeFromLevel@CvLuaPlot@@KAHPAUlua_State@@@Z ; CvLuaPlot::lSeeFromLevel
	mov	eax, DWORD PTR _L$[ebp]
	push	eax
	call	_lua_pushcclosure
	add	esp, 12					; 0000000cH
	push	OFFSET ??_C@_0N@JLKKCACM@SeeFromLevel?$AA@
	mov	ecx, DWORD PTR _t$[ebp]
	push	ecx
	mov	edx, DWORD PTR _L$[ebp]
	push	edx
	call	_lua_setfield
	add	esp, 12					; 0000000cH

; 66   : 	Method(GetNearestLandPlot);

	push	0
	push	OFFSET ?lGetNearestLandPlot@CvLuaPlot@@KAHPAUlua_State@@@Z ; CvLuaPlot::lGetNearestLandPlot
	mov	eax, DWORD PTR _L$[ebp]
	push	eax
	call	_lua_pushcclosure
	add	esp, 12					; 0000000cH
	push	OFFSET ??_C@_0BD@IHNANKAE@GetNearestLandPlot?$AA@
	mov	ecx, DWORD PTR _t$[ebp]
	push	ecx
	mov	edx, DWORD PTR _L$[ebp]
	push	edx
	call	_lua_setfield
	add	esp, 12					; 0000000cH

; 67   : 	Method(SeeThroughLevel);

	push	0
	push	OFFSET ?lSeeThroughLevel@CvLuaPlot@@KAHPAUlua_State@@@Z ; CvLuaPlot::lSeeThroughLevel
	mov	eax, DWORD PTR _L$[ebp]
	push	eax
	call	_lua_pushcclosure
	add	esp, 12					; 0000000cH
	push	OFFSET ??_C@_0BA@NCNGOMHO@SeeThroughLevel?$AA@
	mov	ecx, DWORD PTR _t$[ebp]
	push	ecx
	mov	edx, DWORD PTR _L$[ebp]
	push	edx
	call	_lua_setfield
	add	esp, 12					; 0000000cH

; 68   : 	Method(CanHaveResource);

	push	0
	push	OFFSET ?lCanHaveResource@CvLuaPlot@@KAHPAUlua_State@@@Z ; CvLuaPlot::lCanHaveResource
	mov	eax, DWORD PTR _L$[ebp]
	push	eax
	call	_lua_pushcclosure
	add	esp, 12					; 0000000cH
	push	OFFSET ??_C@_0BA@JPMDNKAA@CanHaveResource?$AA@
	mov	ecx, DWORD PTR _t$[ebp]
	push	ecx
	mov	edx, DWORD PTR _L$[ebp]
	push	edx
	call	_lua_setfield
	add	esp, 12					; 0000000cH

; 69   : 	Method(CanHaveImprovement);

	push	0
	push	OFFSET ?lCanHaveImprovement@CvLuaPlot@@KAHPAUlua_State@@@Z ; CvLuaPlot::lCanHaveImprovement
	mov	eax, DWORD PTR _L$[ebp]
	push	eax
	call	_lua_pushcclosure
	add	esp, 12					; 0000000cH
	push	OFFSET ??_C@_0BD@PCLEPEFH@CanHaveImprovement?$AA@
	mov	ecx, DWORD PTR _t$[ebp]
	push	ecx
	mov	edx, DWORD PTR _L$[ebp]
	push	edx
	call	_lua_setfield
	add	esp, 12					; 0000000cH

; 70   : 	Method(CanBuild);

	push	0
	push	OFFSET ?lCanBuild@CvLuaPlot@@KAHPAUlua_State@@@Z ; CvLuaPlot::lCanBuild
	mov	eax, DWORD PTR _L$[ebp]
	push	eax
	call	_lua_pushcclosure
	add	esp, 12					; 0000000cH
	push	OFFSET ??_C@_08EMPBKDLI@CanBuild?$AA@
	mov	ecx, DWORD PTR _t$[ebp]
	push	ecx
	mov	edx, DWORD PTR _L$[ebp]
	push	edx
	call	_lua_setfield
	add	esp, 12					; 0000000cH

; 71   : 	Method(GetBuildTime);

	push	0
	push	OFFSET ?lGetBuildTime@CvLuaPlot@@KAHPAUlua_State@@@Z ; CvLuaPlot::lGetBuildTime
	mov	eax, DWORD PTR _L$[ebp]
	push	eax
	call	_lua_pushcclosure
	add	esp, 12					; 0000000cH
	push	OFFSET ??_C@_0N@CNOLIDLO@GetBuildTime?$AA@
	mov	ecx, DWORD PTR _t$[ebp]
	push	ecx
	mov	edx, DWORD PTR _L$[ebp]
	push	edx
	call	_lua_setfield
	add	esp, 12					; 0000000cH

; 72   : 	Method(GetBuildTurnsLeft);

	push	0
	push	OFFSET ?lGetBuildTurnsLeft@CvLuaPlot@@KAHPAUlua_State@@@Z ; CvLuaPlot::lGetBuildTurnsLeft
	mov	eax, DWORD PTR _L$[ebp]
	push	eax
	call	_lua_pushcclosure
	add	esp, 12					; 0000000cH
	push	OFFSET ??_C@_0BC@CDKKMKGA@GetBuildTurnsLeft?$AA@
	mov	ecx, DWORD PTR _t$[ebp]
	push	ecx
	mov	edx, DWORD PTR _L$[ebp]
	push	edx
	call	_lua_setfield
	add	esp, 12					; 0000000cH

; 73   : 	Method(GetBuildTurnsTotal);

	push	0
	push	OFFSET ?lGetBuildTurnsTotal@CvLuaPlot@@KAHPAUlua_State@@@Z ; CvLuaPlot::lGetBuildTurnsTotal
	mov	eax, DWORD PTR _L$[ebp]
	push	eax
	call	_lua_pushcclosure
	add	esp, 12					; 0000000cH
	push	OFFSET ??_C@_0BD@MBBBIJOB@GetBuildTurnsTotal?$AA@
	mov	ecx, DWORD PTR _t$[ebp]
	push	ecx
	mov	edx, DWORD PTR _L$[ebp]
	push	edx
	call	_lua_setfield
	add	esp, 12					; 0000000cH

; 74   : 	Method(GetFeatureProduction);

	push	0
	push	OFFSET ?lGetFeatureProduction@CvLuaPlot@@KAHPAUlua_State@@@Z ; CvLuaPlot::lGetFeatureProduction
	mov	eax, DWORD PTR _L$[ebp]
	push	eax
	call	_lua_pushcclosure
	add	esp, 12					; 0000000cH
	push	OFFSET ??_C@_0BF@FDDHIDF@GetFeatureProduction?$AA@
	mov	ecx, DWORD PTR _t$[ebp]
	push	ecx
	mov	edx, DWORD PTR _L$[ebp]
	push	edx
	call	_lua_setfield
	add	esp, 12					; 0000000cH

; 75   : #ifdef NQ_FOOD_FROM_CHOPS
; 76   : 	Method(GetFeatureFood);

	push	0
	push	OFFSET ?lGetFeatureFood@CvLuaPlot@@KAHPAUlua_State@@@Z ; CvLuaPlot::lGetFeatureFood
	mov	eax, DWORD PTR _L$[ebp]
	push	eax
	call	_lua_pushcclosure
	add	esp, 12					; 0000000cH
	push	OFFSET ??_C@_0P@FHMAACMJ@GetFeatureFood?$AA@
	mov	ecx, DWORD PTR _t$[ebp]
	push	ecx
	mov	edx, DWORD PTR _L$[ebp]
	push	edx
	call	_lua_setfield
	add	esp, 12					; 0000000cH

; 77   : #endif
; 78   : 
; 79   : 	Method(GetBestDefender);

	push	0
	push	OFFSET ?lGetBestDefender@CvLuaPlot@@KAHPAUlua_State@@@Z ; CvLuaPlot::lGetBestDefender
	mov	eax, DWORD PTR _L$[ebp]
	push	eax
	call	_lua_pushcclosure
	add	esp, 12					; 0000000cH
	push	OFFSET ??_C@_0BA@NNICPDNO@GetBestDefender?$AA@
	mov	ecx, DWORD PTR _t$[ebp]
	push	ecx
	mov	edx, DWORD PTR _L$[ebp]
	push	edx
	call	_lua_setfield
	add	esp, 12					; 0000000cH

; 80   : 	Method(GetSelectedUnit);

	push	0
	push	OFFSET ?lGetSelectedUnit@CvLuaPlot@@KAHPAUlua_State@@@Z ; CvLuaPlot::lGetSelectedUnit
	mov	eax, DWORD PTR _L$[ebp]
	push	eax
	call	_lua_pushcclosure
	add	esp, 12					; 0000000cH
	push	OFFSET ??_C@_0BA@LEIHGKM@GetSelectedUnit?$AA@
	mov	ecx, DWORD PTR _t$[ebp]
	push	ecx
	mov	edx, DWORD PTR _L$[ebp]
	push	edx
	call	_lua_setfield
	add	esp, 12					; 0000000cH

; 81   : 	Method(GetUnitPower);

	push	0
	push	OFFSET ?lGetUnitPower@CvLuaPlot@@KAHPAUlua_State@@@Z ; CvLuaPlot::lGetUnitPower
	mov	eax, DWORD PTR _L$[ebp]
	push	eax
	call	_lua_pushcclosure
	add	esp, 12					; 0000000cH
	push	OFFSET ??_C@_0N@GAHBCOIE@GetUnitPower?$AA@
	mov	ecx, DWORD PTR _t$[ebp]
	push	ecx
	mov	edx, DWORD PTR _L$[ebp]
	push	edx
	call	_lua_setfield
	add	esp, 12					; 0000000cH

; 82   : 
; 83   : 	Method(DefenseModifier);

	push	0
	push	OFFSET ?lDefenseModifier@CvLuaPlot@@KAHPAUlua_State@@@Z ; CvLuaPlot::lDefenseModifier
	mov	eax, DWORD PTR _L$[ebp]
	push	eax
	call	_lua_pushcclosure
	add	esp, 12					; 0000000cH
	push	OFFSET ??_C@_0BA@BLEBFEEF@DefenseModifier?$AA@
	mov	ecx, DWORD PTR _t$[ebp]
	push	ecx
	mov	edx, DWORD PTR _L$[ebp]
	push	edx
	call	_lua_setfield
	add	esp, 12					; 0000000cH

; 84   : 	Method(MovementCost);

	push	0
	push	OFFSET ?lMovementCost@CvLuaPlot@@KAHPAUlua_State@@@Z ; CvLuaPlot::lMovementCost
	mov	eax, DWORD PTR _L$[ebp]
	push	eax
	call	_lua_pushcclosure
	add	esp, 12					; 0000000cH
	push	OFFSET ??_C@_0N@GOFKPDCB@MovementCost?$AA@
	mov	ecx, DWORD PTR _t$[ebp]
	push	ecx
	mov	edx, DWORD PTR _L$[ebp]
	push	edx
	call	_lua_setfield
	add	esp, 12					; 0000000cH

; 85   : 
; 86   : 	Method(GetExtraMovePathCost);

	push	0
	push	OFFSET ?lGetExtraMovePathCost@CvLuaPlot@@KAHPAUlua_State@@@Z ; CvLuaPlot::lGetExtraMovePathCost
	mov	eax, DWORD PTR _L$[ebp]
	push	eax
	call	_lua_pushcclosure
	add	esp, 12					; 0000000cH
	push	OFFSET ??_C@_0BF@KMAGHFNO@GetExtraMovePathCost?$AA@
	mov	ecx, DWORD PTR _t$[ebp]
	push	ecx
	mov	edx, DWORD PTR _L$[ebp]
	push	edx
	call	_lua_setfield
	add	esp, 12					; 0000000cH

; 87   : 	Method(ChangeExtraMovePathCost);

	push	0
	push	OFFSET ?lChangeExtraMovePathCost@CvLuaPlot@@KAHPAUlua_State@@@Z ; CvLuaPlot::lChangeExtraMovePathCost
	mov	eax, DWORD PTR _L$[ebp]
	push	eax
	call	_lua_pushcclosure
	add	esp, 12					; 0000000cH
	push	OFFSET ??_C@_0BI@EBOAMIEM@ChangeExtraMovePathCost?$AA@
	mov	ecx, DWORD PTR _t$[ebp]
	push	ecx
	mov	edx, DWORD PTR _L$[ebp]
	push	edx
	call	_lua_setfield
	add	esp, 12					; 0000000cH

; 88   : 
; 89   : 	Method(IsAdjacentOwned);

	push	0
	push	OFFSET ?lIsAdjacentOwned@CvLuaPlot@@KAHPAUlua_State@@@Z ; CvLuaPlot::lIsAdjacentOwned
	mov	eax, DWORD PTR _L$[ebp]
	push	eax
	call	_lua_pushcclosure
	add	esp, 12					; 0000000cH
	push	OFFSET ??_C@_0BA@GGEJAJJC@IsAdjacentOwned?$AA@
	mov	ecx, DWORD PTR _t$[ebp]
	push	ecx
	mov	edx, DWORD PTR _L$[ebp]
	push	edx
	call	_lua_setfield
	add	esp, 12					; 0000000cH

; 90   : 	Method(IsAdjacentPlayer);

	push	0
	push	OFFSET ?lIsAdjacentPlayer@CvLuaPlot@@KAHPAUlua_State@@@Z ; CvLuaPlot::lIsAdjacentPlayer
	mov	eax, DWORD PTR _L$[ebp]
	push	eax
	call	_lua_pushcclosure
	add	esp, 12					; 0000000cH
	push	OFFSET ??_C@_0BB@GCLEKLKL@IsAdjacentPlayer?$AA@
	mov	ecx, DWORD PTR _t$[ebp]
	push	ecx
	mov	edx, DWORD PTR _L$[ebp]
	push	edx
	call	_lua_setfield
	add	esp, 12					; 0000000cH

; 91   : 	Method(IsAdjacentTeam);

	push	0
	push	OFFSET ?lIsAdjacentTeam@CvLuaPlot@@KAHPAUlua_State@@@Z ; CvLuaPlot::lIsAdjacentTeam
	mov	eax, DWORD PTR _L$[ebp]
	push	eax
	call	_lua_pushcclosure
	add	esp, 12					; 0000000cH
	push	OFFSET ??_C@_0P@CLEIAJCJ@IsAdjacentTeam?$AA@
	mov	ecx, DWORD PTR _t$[ebp]
	push	ecx
	mov	edx, DWORD PTR _L$[ebp]
	push	edx
	call	_lua_setfield
	add	esp, 12					; 0000000cH

; 92   : 
; 93   : 	Method(IsOwned);

	push	0
	push	OFFSET ?lIsOwned@CvLuaPlot@@KAHPAUlua_State@@@Z ; CvLuaPlot::lIsOwned
	mov	eax, DWORD PTR _L$[ebp]
	push	eax
	call	_lua_pushcclosure
	add	esp, 12					; 0000000cH
	push	OFFSET ??_C@_07FAAHJANI@IsOwned?$AA@
	mov	ecx, DWORD PTR _t$[ebp]
	push	ecx
	mov	edx, DWORD PTR _L$[ebp]
	push	edx
	call	_lua_setfield
	add	esp, 12					; 0000000cH

; 94   : 	Method(IsBarbarian);

	push	0
	push	OFFSET ?lIsBarbarian@CvLuaPlot@@KAHPAUlua_State@@@Z ; CvLuaPlot::lIsBarbarian
	mov	eax, DWORD PTR _L$[ebp]
	push	eax
	call	_lua_pushcclosure
	add	esp, 12					; 0000000cH
	push	OFFSET ??_C@_0M@NJNEDJLP@IsBarbarian?$AA@
	mov	ecx, DWORD PTR _t$[ebp]
	push	ecx
	mov	edx, DWORD PTR _L$[ebp]
	push	edx
	call	_lua_setfield
	add	esp, 12					; 0000000cH

; 95   : 	Method(IsRevealedBarbarian);

	push	0
	push	OFFSET ?lIsRevealedBarbarian@CvLuaPlot@@KAHPAUlua_State@@@Z ; CvLuaPlot::lIsRevealedBarbarian
	mov	eax, DWORD PTR _L$[ebp]
	push	eax
	call	_lua_pushcclosure
	add	esp, 12					; 0000000cH
	push	OFFSET ??_C@_0BE@EPJKJJAH@IsRevealedBarbarian?$AA@
	mov	ecx, DWORD PTR _t$[ebp]
	push	ecx
	mov	edx, DWORD PTR _L$[ebp]
	push	edx
	call	_lua_setfield
	add	esp, 12					; 0000000cH

; 96   : 	Method(HasBarbarianCamp);

	push	0
	push	OFFSET ?lHasBarbarianCamp@CvLuaPlot@@KAHPAUlua_State@@@Z ; CvLuaPlot::lHasBarbarianCamp
	mov	eax, DWORD PTR _L$[ebp]
	push	eax
	call	_lua_pushcclosure
	add	esp, 12					; 0000000cH
	push	OFFSET ??_C@_0BB@HNCHANHC@HasBarbarianCamp?$AA@
	mov	ecx, DWORD PTR _t$[ebp]
	push	ecx
	mov	edx, DWORD PTR _L$[ebp]
	push	edx
	call	_lua_setfield
	add	esp, 12					; 0000000cH

; 97   : 	Method(IsVisible);

	push	0
	push	OFFSET ?lIsVisible@CvLuaPlot@@KAHPAUlua_State@@@Z ; CvLuaPlot::lIsVisible
	mov	eax, DWORD PTR _L$[ebp]
	push	eax
	call	_lua_pushcclosure
	add	esp, 12					; 0000000cH
	push	OFFSET ??_C@_09OLGPEPPJ@IsVisible?$AA@
	mov	ecx, DWORD PTR _t$[ebp]
	push	ecx
	mov	edx, DWORD PTR _L$[ebp]
	push	edx
	call	_lua_setfield
	add	esp, 12					; 0000000cH

; 98   : 	Method(IsActiveVisible);

	push	0
	push	OFFSET ?lIsActiveVisible@CvLuaPlot@@KAHPAUlua_State@@@Z ; CvLuaPlot::lIsActiveVisible
	mov	eax, DWORD PTR _L$[ebp]
	push	eax
	call	_lua_pushcclosure
	add	esp, 12					; 0000000cH
	push	OFFSET ??_C@_0BA@CFACHEEE@IsActiveVisible?$AA@
	mov	ecx, DWORD PTR _t$[ebp]
	push	ecx
	mov	edx, DWORD PTR _L$[ebp]
	push	edx
	call	_lua_setfield
	add	esp, 12					; 0000000cH

; 99   : 	Method(IsVisibleToWatchingHuman);

	push	0
	push	OFFSET ?lIsVisibleToWatchingHuman@CvLuaPlot@@KAHPAUlua_State@@@Z ; CvLuaPlot::lIsVisibleToWatchingHuman
	mov	eax, DWORD PTR _L$[ebp]
	push	eax
	call	_lua_pushcclosure
	add	esp, 12					; 0000000cH
	push	OFFSET ??_C@_0BJ@FMJJGAJM@IsVisibleToWatchingHuman?$AA@
	mov	ecx, DWORD PTR _t$[ebp]
	push	ecx
	mov	edx, DWORD PTR _L$[ebp]
	push	edx
	call	_lua_setfield
	add	esp, 12					; 0000000cH

; 100  : 	Method(IsAdjacentVisible);

	push	0
	push	OFFSET ?lIsAdjacentVisible@CvLuaPlot@@KAHPAUlua_State@@@Z ; CvLuaPlot::lIsAdjacentVisible
	mov	eax, DWORD PTR _L$[ebp]
	push	eax
	call	_lua_pushcclosure
	add	esp, 12					; 0000000cH
	push	OFFSET ??_C@_0BC@GICKPFNI@IsAdjacentVisible?$AA@
	mov	ecx, DWORD PTR _t$[ebp]
	push	ecx
	mov	edx, DWORD PTR _L$[ebp]
	push	edx
	call	_lua_setfield
	add	esp, 12					; 0000000cH

; 101  : 	Method(IsAdjacentNonvisible);

	push	0
	push	OFFSET ?lIsAdjacentNonvisible@CvLuaPlot@@KAHPAUlua_State@@@Z ; CvLuaPlot::lIsAdjacentNonvisible
	mov	eax, DWORD PTR _L$[ebp]
	push	eax
	call	_lua_pushcclosure
	add	esp, 12					; 0000000cH
	push	OFFSET ??_C@_0BF@CNMKPADN@IsAdjacentNonvisible?$AA@
	mov	ecx, DWORD PTR _t$[ebp]
	push	ecx
	mov	edx, DWORD PTR _L$[ebp]
	push	edx
	call	_lua_setfield
	add	esp, 12					; 0000000cH

; 102  : 	Method(IsAdjacentRevealed);

	push	0
	push	OFFSET ?lIsAdjacentRevealed@CvLuaPlot@@KAHPAUlua_State@@@Z ; CvLuaPlot::lIsAdjacentRevealed
	mov	eax, DWORD PTR _L$[ebp]
	push	eax
	call	_lua_pushcclosure
	add	esp, 12					; 0000000cH
	push	OFFSET ??_C@_0BD@OBOIAPPP@IsAdjacentRevealed?$AA@
	mov	ecx, DWORD PTR _t$[ebp]
	push	ecx
	mov	edx, DWORD PTR _L$[ebp]
	push	edx
	call	_lua_setfield
	add	esp, 12					; 0000000cH

; 103  : 	Method(IsAdjacentNonrevealed);

	push	0
	push	OFFSET ?lIsAdjacentNonrevealed@CvLuaPlot@@KAHPAUlua_State@@@Z ; CvLuaPlot::lIsAdjacentNonrevealed
	mov	eax, DWORD PTR _L$[ebp]
	push	eax
	call	_lua_pushcclosure
	add	esp, 12					; 0000000cH
	push	OFFSET ??_C@_0BG@DBMNPJAN@IsAdjacentNonrevealed?$AA@
	mov	ecx, DWORD PTR _t$[ebp]
	push	ecx
	mov	edx, DWORD PTR _L$[ebp]
	push	edx
	call	_lua_setfield
	add	esp, 12					; 0000000cH

; 104  : 
; 105  : 	Method(RemoveGoody);

	push	0
	push	OFFSET ?lRemoveGoody@CvLuaPlot@@KAHPAUlua_State@@@Z ; CvLuaPlot::lRemoveGoody
	mov	eax, DWORD PTR _L$[ebp]
	push	eax
	call	_lua_pushcclosure
	add	esp, 12					; 0000000cH
	push	OFFSET ??_C@_0M@LKMCGBMH@RemoveGoody?$AA@
	mov	ecx, DWORD PTR _t$[ebp]
	push	ecx
	mov	edx, DWORD PTR _L$[ebp]
	push	edx
	call	_lua_setfield
	add	esp, 12					; 0000000cH

; 106  : 	Method(IsGoody);

	push	0
	push	OFFSET ?lIsGoody@CvLuaPlot@@KAHPAUlua_State@@@Z ; CvLuaPlot::lIsGoody
	mov	eax, DWORD PTR _L$[ebp]
	push	eax
	call	_lua_pushcclosure
	add	esp, 12					; 0000000cH
	push	OFFSET ??_C@_07KKNGKPLI@IsGoody?$AA@
	mov	ecx, DWORD PTR _t$[ebp]
	push	ecx
	mov	edx, DWORD PTR _L$[ebp]
	push	edx
	call	_lua_setfield
	add	esp, 12					; 0000000cH

; 107  : 	Method(IsRevealedGoody);

	push	0
	push	OFFSET ?lIsRevealedGoody@CvLuaPlot@@KAHPAUlua_State@@@Z ; CvLuaPlot::lIsRevealedGoody
	mov	eax, DWORD PTR _L$[ebp]
	push	eax
	call	_lua_pushcclosure
	add	esp, 12					; 0000000cH
	push	OFFSET ??_C@_0BA@HAPEMDMB@IsRevealedGoody?$AA@
	mov	ecx, DWORD PTR _t$[ebp]
	push	ecx
	mov	edx, DWORD PTR _L$[ebp]
	push	edx
	call	_lua_setfield
	add	esp, 12					; 0000000cH

; 108  : 
; 109  : 	Method(IsFriendlyTerritory);

	push	0
	push	OFFSET ?lIsFriendlyTerritory@CvLuaPlot@@KAHPAUlua_State@@@Z ; CvLuaPlot::lIsFriendlyTerritory
	mov	eax, DWORD PTR _L$[ebp]
	push	eax
	call	_lua_pushcclosure
	add	esp, 12					; 0000000cH
	push	OFFSET ??_C@_0BE@IMNKPHIO@IsFriendlyTerritory?$AA@
	mov	ecx, DWORD PTR _t$[ebp]
	push	ecx
	mov	edx, DWORD PTR _L$[ebp]
	push	edx
	call	_lua_setfield
	add	esp, 12					; 0000000cH

; 110  : 
; 111  : 	Method(IsCity);

	push	0
	push	OFFSET ?lIsCity@CvLuaPlot@@KAHPAUlua_State@@@Z ; CvLuaPlot::lIsCity
	mov	eax, DWORD PTR _L$[ebp]
	push	eax
	call	_lua_pushcclosure
	add	esp, 12					; 0000000cH
	push	OFFSET ??_C@_06MKMOPHGH@IsCity?$AA@
	mov	ecx, DWORD PTR _t$[ebp]
	push	ecx
	mov	edx, DWORD PTR _L$[ebp]
	push	edx
	call	_lua_setfield
	add	esp, 12					; 0000000cH

; 112  : 	Method(IsFriendlyCity);

	push	0
	push	OFFSET ?lIsFriendlyCity@CvLuaPlot@@KAHPAUlua_State@@@Z ; CvLuaPlot::lIsFriendlyCity
	mov	eax, DWORD PTR _L$[ebp]
	push	eax
	call	_lua_pushcclosure
	add	esp, 12					; 0000000cH
	push	OFFSET ??_C@_0P@JPKGCGMM@IsFriendlyCity?$AA@
	mov	ecx, DWORD PTR _t$[ebp]
	push	ecx
	mov	edx, DWORD PTR _L$[ebp]
	push	edx
	call	_lua_setfield
	add	esp, 12					; 0000000cH

; 113  : 	Method(IsEnemyCity);

	push	0
	push	OFFSET ?lIsEnemyCity@CvLuaPlot@@KAHPAUlua_State@@@Z ; CvLuaPlot::lIsEnemyCity
	mov	eax, DWORD PTR _L$[ebp]
	push	eax
	call	_lua_pushcclosure
	add	esp, 12					; 0000000cH
	push	OFFSET ??_C@_0M@ICNFBAB@IsEnemyCity?$AA@
	mov	ecx, DWORD PTR _t$[ebp]
	push	ecx
	mov	edx, DWORD PTR _L$[ebp]
	push	edx
	call	_lua_setfield
	add	esp, 12					; 0000000cH

; 114  : 	Method(IsBeingWorked);

	push	0
	push	OFFSET ?lIsBeingWorked@CvLuaPlot@@KAHPAUlua_State@@@Z ; CvLuaPlot::lIsBeingWorked
	mov	eax, DWORD PTR _L$[ebp]
	push	eax
	call	_lua_pushcclosure
	add	esp, 12					; 0000000cH
	push	OFFSET ??_C@_0O@GHFLFPIL@IsBeingWorked?$AA@
	mov	ecx, DWORD PTR _t$[ebp]
	push	ecx
	mov	edx, DWORD PTR _L$[ebp]
	push	edx
	call	_lua_setfield
	add	esp, 12					; 0000000cH

; 115  : 
; 116  : 	Method(IsUnit);

	push	0
	push	OFFSET ?lIsUnit@CvLuaPlot@@KAHPAUlua_State@@@Z ; CvLuaPlot::lIsUnit
	mov	eax, DWORD PTR _L$[ebp]
	push	eax
	call	_lua_pushcclosure
	add	esp, 12					; 0000000cH
	push	OFFSET ??_C@_06BJOJODJC@IsUnit?$AA@
	mov	ecx, DWORD PTR _t$[ebp]
	push	ecx
	mov	edx, DWORD PTR _L$[ebp]
	push	edx
	call	_lua_setfield
	add	esp, 12					; 0000000cH

; 117  : 	Method(IsVisibleEnemyDefender);

	push	0
	push	OFFSET ?lIsVisibleEnemyDefender@CvLuaPlot@@KAHPAUlua_State@@@Z ; CvLuaPlot::lIsVisibleEnemyDefender
	mov	eax, DWORD PTR _L$[ebp]
	push	eax
	call	_lua_pushcclosure
	add	esp, 12					; 0000000cH
	push	OFFSET ??_C@_0BH@KJEJGOKA@IsVisibleEnemyDefender?$AA@
	mov	ecx, DWORD PTR _t$[ebp]
	push	ecx
	mov	edx, DWORD PTR _L$[ebp]
	push	edx
	call	_lua_setfield
	add	esp, 12					; 0000000cH

; 118  : 	Method(GetNumDefenders);

	push	0
	push	OFFSET ?lGetNumDefenders@CvLuaPlot@@KAHPAUlua_State@@@Z ; CvLuaPlot::lGetNumDefenders
	mov	eax, DWORD PTR _L$[ebp]
	push	eax
	call	_lua_pushcclosure
	add	esp, 12					; 0000000cH
	push	OFFSET ??_C@_0BA@GNAHEKAB@GetNumDefenders?$AA@
	mov	ecx, DWORD PTR _t$[ebp]
	push	ecx
	mov	edx, DWORD PTR _L$[ebp]
	push	edx
	call	_lua_setfield
	add	esp, 12					; 0000000cH

; 119  : 	Method(GetNumVisibleEnemyDefenders);

	push	0
	push	OFFSET ?lGetNumVisibleEnemyDefenders@CvLuaPlot@@KAHPAUlua_State@@@Z ; CvLuaPlot::lGetNumVisibleEnemyDefenders
	mov	eax, DWORD PTR _L$[ebp]
	push	eax
	call	_lua_pushcclosure
	add	esp, 12					; 0000000cH
	push	OFFSET ??_C@_0BM@GIKOKOLI@GetNumVisibleEnemyDefenders?$AA@
	mov	ecx, DWORD PTR _t$[ebp]
	push	ecx
	mov	edx, DWORD PTR _L$[ebp]
	push	edx
	call	_lua_setfield
	add	esp, 12					; 0000000cH

; 120  : 	Method(GetNumVisiblePotentialEnemyDefenders);

	push	0
	push	OFFSET ?lGetNumVisiblePotentialEnemyDefenders@CvLuaPlot@@KAHPAUlua_State@@@Z ; CvLuaPlot::lGetNumVisiblePotentialEnemyDefenders
	mov	eax, DWORD PTR _L$[ebp]
	push	eax
	call	_lua_pushcclosure
	add	esp, 12					; 0000000cH
	push	OFFSET ??_C@_0CF@KKFDFPEO@GetNumVisiblePotentialEnemyDefen@
	mov	ecx, DWORD PTR _t$[ebp]
	push	ecx
	mov	edx, DWORD PTR _L$[ebp]
	push	edx
	call	_lua_setfield
	add	esp, 12					; 0000000cH

; 121  : 	Method(IsVisibleEnemyUnit);

	push	0
	push	OFFSET ?lIsVisibleEnemyUnit@CvLuaPlot@@KAHPAUlua_State@@@Z ; CvLuaPlot::lIsVisibleEnemyUnit
	mov	eax, DWORD PTR _L$[ebp]
	push	eax
	call	_lua_pushcclosure
	add	esp, 12					; 0000000cH
	push	OFFSET ??_C@_0BD@FOLPLHDK@IsVisibleEnemyUnit?$AA@
	mov	ecx, DWORD PTR _t$[ebp]
	push	ecx
	mov	edx, DWORD PTR _L$[ebp]
	push	edx
	call	_lua_setfield
	add	esp, 12					; 0000000cH

; 122  : 	Method(IsVisibleOtherUnit);

	push	0
	push	OFFSET ?lIsVisibleOtherUnit@CvLuaPlot@@KAHPAUlua_State@@@Z ; CvLuaPlot::lIsVisibleOtherUnit
	mov	eax, DWORD PTR _L$[ebp]
	push	eax
	call	_lua_pushcclosure
	add	esp, 12					; 0000000cH
	push	OFFSET ??_C@_0BD@LCFOEEGJ@IsVisibleOtherUnit?$AA@
	mov	ecx, DWORD PTR _t$[ebp]
	push	ecx
	mov	edx, DWORD PTR _L$[ebp]
	push	edx
	call	_lua_setfield
	add	esp, 12					; 0000000cH

; 123  : 	Method(GetNumFriendlyUnitsOfType);

	push	0
	push	OFFSET ?lGetNumFriendlyUnitsOfType@CvLuaPlot@@KAHPAUlua_State@@@Z ; CvLuaPlot::lGetNumFriendlyUnitsOfType
	mov	eax, DWORD PTR _L$[ebp]
	push	eax
	call	_lua_pushcclosure
	add	esp, 12					; 0000000cH
	push	OFFSET ??_C@_0BK@MEHFJEJD@GetNumFriendlyUnitsOfType?$AA@
	mov	ecx, DWORD PTR _t$[ebp]
	push	ecx
	mov	edx, DWORD PTR _L$[ebp]
	push	edx
	call	_lua_setfield
	add	esp, 12					; 0000000cH

; 124  : 	Method(IsFighting);

	push	0
	push	OFFSET ?lIsFighting@CvLuaPlot@@KAHPAUlua_State@@@Z ; CvLuaPlot::lIsFighting
	mov	eax, DWORD PTR _L$[ebp]
	push	eax
	call	_lua_pushcclosure
	add	esp, 12					; 0000000cH
	push	OFFSET ??_C@_0L@MOBAIMGP@IsFighting?$AA@
	mov	ecx, DWORD PTR _t$[ebp]
	push	ecx
	mov	edx, DWORD PTR _L$[ebp]
	push	edx
	call	_lua_setfield
	add	esp, 12					; 0000000cH

; 125  : 
; 126  : 	Method(IsRoute);

	push	0
	push	OFFSET ?lIsRoute@CvLuaPlot@@KAHPAUlua_State@@@Z ; CvLuaPlot::lIsRoute
	mov	eax, DWORD PTR _L$[ebp]
	push	eax
	call	_lua_pushcclosure
	add	esp, 12					; 0000000cH
	push	OFFSET ??_C@_07DMDIHFEG@IsRoute?$AA@
	mov	ecx, DWORD PTR _t$[ebp]
	push	ecx
	mov	edx, DWORD PTR _L$[ebp]
	push	edx
	call	_lua_setfield
	add	esp, 12					; 0000000cH

; 127  : 	Method(IsTradeRoute);

	push	0
	push	OFFSET ?lIsTradeRoute@CvLuaPlot@@KAHPAUlua_State@@@Z ; CvLuaPlot::lIsTradeRoute
	mov	eax, DWORD PTR _L$[ebp]
	push	eax
	call	_lua_pushcclosure
	add	esp, 12					; 0000000cH
	push	OFFSET ??_C@_0N@CIBMJEHN@IsTradeRoute?$AA@
	mov	ecx, DWORD PTR _t$[ebp]
	push	ecx
	mov	edx, DWORD PTR _L$[ebp]
	push	edx
	call	_lua_setfield
	add	esp, 12					; 0000000cH

; 128  : 
; 129  : 	Method(IsValidDomainForLocation);

	push	0
	push	OFFSET ?lIsValidDomainForLocation@CvLuaPlot@@KAHPAUlua_State@@@Z ; CvLuaPlot::lIsValidDomainForLocation
	mov	eax, DWORD PTR _L$[ebp]
	push	eax
	call	_lua_pushcclosure
	add	esp, 12					; 0000000cH
	push	OFFSET ??_C@_0BJ@CLNJIBGO@IsValidDomainForLocation?$AA@
	mov	ecx, DWORD PTR _t$[ebp]
	push	ecx
	mov	edx, DWORD PTR _L$[ebp]
	push	edx
	call	_lua_setfield
	add	esp, 12					; 0000000cH

; 130  : 	Method(IsValidDomainForAction);

	push	0
	push	OFFSET ?lIsValidDomainForAction@CvLuaPlot@@KAHPAUlua_State@@@Z ; CvLuaPlot::lIsValidDomainForAction
	mov	eax, DWORD PTR _L$[ebp]
	push	eax
	call	_lua_pushcclosure
	add	esp, 12					; 0000000cH
	push	OFFSET ??_C@_0BH@IFEGDFCC@IsValidDomainForAction?$AA@
	mov	ecx, DWORD PTR _t$[ebp]
	push	ecx
	mov	edx, DWORD PTR _L$[ebp]
	push	edx
	call	_lua_setfield
	add	esp, 12					; 0000000cH

; 131  : 	Method(IsImpassable);

	push	0
	push	OFFSET ?lIsImpassable@CvLuaPlot@@KAHPAUlua_State@@@Z ; CvLuaPlot::lIsImpassable
	mov	eax, DWORD PTR _L$[ebp]
	push	eax
	call	_lua_pushcclosure
	add	esp, 12					; 0000000cH
	push	OFFSET ??_C@_0N@MALFMDGK@IsImpassable?$AA@
	mov	ecx, DWORD PTR _t$[ebp]
	push	ecx
	mov	edx, DWORD PTR _L$[ebp]
	push	edx
	call	_lua_setfield
	add	esp, 12					; 0000000cH

; 132  : 
; 133  : 	Method(GetX);

	push	0
	push	OFFSET ?lGetX@CvLuaPlot@@KAHPAUlua_State@@@Z ; CvLuaPlot::lGetX
	mov	eax, DWORD PTR _L$[ebp]
	push	eax
	call	_lua_pushcclosure
	add	esp, 12					; 0000000cH
	push	OFFSET ??_C@_04POGMJMFK@GetX?$AA@
	mov	ecx, DWORD PTR _t$[ebp]
	push	ecx
	mov	edx, DWORD PTR _L$[ebp]
	push	edx
	call	_lua_setfield
	add	esp, 12					; 0000000cH

; 134  : 	Method(GetY);

	push	0
	push	OFFSET ?lGetY@CvLuaPlot@@KAHPAUlua_State@@@Z ; CvLuaPlot::lGetY
	mov	eax, DWORD PTR _L$[ebp]
	push	eax
	call	_lua_pushcclosure
	add	esp, 12					; 0000000cH
	push	OFFSET ??_C@_04OHHHKNBL@GetY?$AA@
	mov	ecx, DWORD PTR _t$[ebp]
	push	ecx
	mov	edx, DWORD PTR _L$[ebp]
	push	edx
	call	_lua_setfield
	add	esp, 12					; 0000000cH

; 135  : 	Method(At);

	push	0
	push	OFFSET ?lAt@CvLuaPlot@@KAHPAUlua_State@@@Z ; CvLuaPlot::lAt
	mov	eax, DWORD PTR _L$[ebp]
	push	eax
	call	_lua_pushcclosure
	add	esp, 12					; 0000000cH
	push	OFFSET ??_C@_02DKLFHNOI@At?$AA@
	mov	ecx, DWORD PTR _t$[ebp]
	push	ecx
	mov	edx, DWORD PTR _L$[ebp]
	push	edx
	call	_lua_setfield
	add	esp, 12					; 0000000cH

; 136  : 	Method(GetPlotIndex);

	push	0
	push	OFFSET ?lGetPlotIndex@CvLuaPlot@@KAHPAUlua_State@@@Z ; CvLuaPlot::lGetPlotIndex
	mov	eax, DWORD PTR _L$[ebp]
	push	eax
	call	_lua_pushcclosure
	add	esp, 12					; 0000000cH
	push	OFFSET ??_C@_0N@MPDLKONJ@GetPlotIndex?$AA@
	mov	ecx, DWORD PTR _t$[ebp]
	push	ecx
	mov	edx, DWORD PTR _L$[ebp]
	push	edx
	call	_lua_setfield
	add	esp, 12					; 0000000cH

; 137  : 	Method(GetLatitude);

	push	0
	push	OFFSET ?lGetLatitude@CvLuaPlot@@KAHPAUlua_State@@@Z ; CvLuaPlot::lGetLatitude
	mov	eax, DWORD PTR _L$[ebp]
	push	eax
	call	_lua_pushcclosure
	add	esp, 12					; 0000000cH
	push	OFFSET ??_C@_0M@KCMGIFE@GetLatitude?$AA@
	mov	ecx, DWORD PTR _t$[ebp]
	push	ecx
	mov	edx, DWORD PTR _L$[ebp]
	push	edx
	call	_lua_setfield
	add	esp, 12					; 0000000cH

; 138  : 	Method(Area);

	push	0
	push	OFFSET ?lArea@CvLuaPlot@@KAHPAUlua_State@@@Z ; CvLuaPlot::lArea
	mov	eax, DWORD PTR _L$[ebp]
	push	eax
	call	_lua_pushcclosure
	add	esp, 12					; 0000000cH
	push	OFFSET ??_C@_04KPICECCB@Area?$AA@
	mov	ecx, DWORD PTR _t$[ebp]
	push	ecx
	mov	edx, DWORD PTR _L$[ebp]
	push	edx
	call	_lua_setfield
	add	esp, 12					; 0000000cH

; 139  : 	Method(WaterArea);

	push	0
	push	OFFSET ?lWaterArea@CvLuaPlot@@KAHPAUlua_State@@@Z ; CvLuaPlot::lWaterArea
	mov	eax, DWORD PTR _L$[ebp]
	push	eax
	call	_lua_pushcclosure
	add	esp, 12					; 0000000cH
	push	OFFSET ??_C@_09CNIEIFHO@WaterArea?$AA@
	mov	ecx, DWORD PTR _t$[ebp]
	push	ecx
	mov	edx, DWORD PTR _L$[ebp]
	push	edx
	call	_lua_setfield
	add	esp, 12					; 0000000cH

; 140  : 	Method(GetArea);

	push	0
	push	OFFSET ?lGetArea@CvLuaPlot@@KAHPAUlua_State@@@Z ; CvLuaPlot::lGetArea
	mov	eax, DWORD PTR _L$[ebp]
	push	eax
	call	_lua_pushcclosure
	add	esp, 12					; 0000000cH
	push	OFFSET ??_C@_07GGOHINDE@GetArea?$AA@
	mov	ecx, DWORD PTR _t$[ebp]
	push	ecx
	mov	edx, DWORD PTR _L$[ebp]
	push	edx
	call	_lua_setfield
	add	esp, 12					; 0000000cH

; 141  : 	Method(SetArea);

	push	0
	push	OFFSET ?lSetArea@CvLuaPlot@@KAHPAUlua_State@@@Z ; CvLuaPlot::lSetArea
	mov	eax, DWORD PTR _L$[ebp]
	push	eax
	call	_lua_pushcclosure
	add	esp, 12					; 0000000cH
	push	OFFSET ??_C@_07JOBGLCOF@SetArea?$AA@
	mov	ecx, DWORD PTR _t$[ebp]
	push	ecx
	mov	edx, DWORD PTR _L$[ebp]
	push	edx
	call	_lua_setfield
	add	esp, 12					; 0000000cH

; 142  : 	Method(GetFeatureVariety);

	push	0
	push	OFFSET ?lGetFeatureVariety@CvLuaPlot@@KAHPAUlua_State@@@Z ; CvLuaPlot::lGetFeatureVariety
	mov	eax, DWORD PTR _L$[ebp]
	push	eax
	call	_lua_pushcclosure
	add	esp, 12					; 0000000cH
	push	OFFSET ??_C@_0BC@PNINJHCK@GetFeatureVariety?$AA@
	mov	ecx, DWORD PTR _t$[ebp]
	push	ecx
	mov	edx, DWORD PTR _L$[ebp]
	push	edx
	call	_lua_setfield
	add	esp, 12					; 0000000cH

; 143  : 
; 144  : 	Method(GetOwnershipDuration);

	push	0
	push	OFFSET ?lGetOwnershipDuration@CvLuaPlot@@KAHPAUlua_State@@@Z ; CvLuaPlot::lGetOwnershipDuration
	mov	eax, DWORD PTR _L$[ebp]
	push	eax
	call	_lua_pushcclosure
	add	esp, 12					; 0000000cH
	push	OFFSET ??_C@_0BF@ENCCPLO@GetOwnershipDuration?$AA@
	mov	ecx, DWORD PTR _t$[ebp]
	push	ecx
	mov	edx, DWORD PTR _L$[ebp]
	push	edx
	call	_lua_setfield
	add	esp, 12					; 0000000cH

; 145  : 	Method(IsOwnershipScore);

	push	0
	push	OFFSET ?lIsOwnershipScore@CvLuaPlot@@KAHPAUlua_State@@@Z ; CvLuaPlot::lIsOwnershipScore
	mov	eax, DWORD PTR _L$[ebp]
	push	eax
	call	_lua_pushcclosure
	add	esp, 12					; 0000000cH
	push	OFFSET ??_C@_0BB@KOAOKKPA@IsOwnershipScore?$AA@
	mov	ecx, DWORD PTR _t$[ebp]
	push	ecx
	mov	edx, DWORD PTR _L$[ebp]
	push	edx
	call	_lua_setfield
	add	esp, 12					; 0000000cH

; 146  : 	Method(SetOwnershipDuration);

	push	0
	push	OFFSET ?lSetOwnershipDuration@CvLuaPlot@@KAHPAUlua_State@@@Z ; CvLuaPlot::lSetOwnershipDuration
	mov	eax, DWORD PTR _L$[ebp]
	push	eax
	call	_lua_pushcclosure
	add	esp, 12					; 0000000cH
	push	OFFSET ??_C@_0BF@FNMPDJOJ@SetOwnershipDuration?$AA@
	mov	ecx, DWORD PTR _t$[ebp]
	push	ecx
	mov	edx, DWORD PTR _L$[ebp]
	push	edx
	call	_lua_setfield
	add	esp, 12					; 0000000cH

; 147  : 	Method(ChangeOwnershipDuration);

	push	0
	push	OFFSET ?lChangeOwnershipDuration@CvLuaPlot@@KAHPAUlua_State@@@Z ; CvLuaPlot::lChangeOwnershipDuration
	mov	eax, DWORD PTR _L$[ebp]
	push	eax
	call	_lua_pushcclosure
	add	esp, 12					; 0000000cH
	push	OFFSET ??_C@_0BI@OJDEJCCM@ChangeOwnershipDuration?$AA@
	mov	ecx, DWORD PTR _t$[ebp]
	push	ecx
	mov	edx, DWORD PTR _L$[ebp]
	push	edx
	call	_lua_setfield
	add	esp, 12					; 0000000cH

; 148  : 
; 149  : 	Method(GetImprovementDuration);

	push	0
	push	OFFSET ?lGetImprovementDuration@CvLuaPlot@@KAHPAUlua_State@@@Z ; CvLuaPlot::lGetImprovementDuration
	mov	eax, DWORD PTR _L$[ebp]
	push	eax
	call	_lua_pushcclosure
	add	esp, 12					; 0000000cH
	push	OFFSET ??_C@_0BH@JHAGDHHB@GetImprovementDuration?$AA@
	mov	ecx, DWORD PTR _t$[ebp]
	push	ecx
	mov	edx, DWORD PTR _L$[ebp]
	push	edx
	call	_lua_setfield
	add	esp, 12					; 0000000cH

; 150  : 	Method(SetImprovementDuration);

	push	0
	push	OFFSET ?lSetImprovementDuration@CvLuaPlot@@KAHPAUlua_State@@@Z ; CvLuaPlot::lSetImprovementDuration
	mov	eax, DWORD PTR _L$[ebp]
	push	eax
	call	_lua_pushcclosure
	add	esp, 12					; 0000000cH
	push	OFFSET ??_C@_0BH@JGCIBAKO@SetImprovementDuration?$AA@
	mov	ecx, DWORD PTR _t$[ebp]
	push	ecx
	mov	edx, DWORD PTR _L$[ebp]
	push	edx
	call	_lua_setfield
	add	esp, 12					; 0000000cH

; 151  : 	Method(ChangeImprovementDuration);

	push	0
	push	OFFSET ?lChangeImprovementDuration@CvLuaPlot@@KAHPAUlua_State@@@Z ; CvLuaPlot::lChangeImprovementDuration
	mov	eax, DWORD PTR _L$[ebp]
	push	eax
	call	_lua_pushcclosure
	add	esp, 12					; 0000000cH
	push	OFFSET ??_C@_0BK@GBKBPNDO@ChangeImprovementDuration?$AA@
	mov	ecx, DWORD PTR _t$[ebp]
	push	ecx
	mov	edx, DWORD PTR _L$[ebp]
	push	edx
	call	_lua_setfield
	add	esp, 12					; 0000000cH

; 152  : 
; 153  : 	Method(GetUpgradeProgress);

	push	0
	push	OFFSET ?lGetUpgradeProgress@CvLuaPlot@@KAHPAUlua_State@@@Z ; CvLuaPlot::lGetUpgradeProgress
	mov	eax, DWORD PTR _L$[ebp]
	push	eax
	call	_lua_pushcclosure
	add	esp, 12					; 0000000cH
	push	OFFSET ??_C@_0BD@PMPLKEDO@GetUpgradeProgress?$AA@
	mov	ecx, DWORD PTR _t$[ebp]
	push	ecx
	mov	edx, DWORD PTR _L$[ebp]
	push	edx
	call	_lua_setfield
	add	esp, 12					; 0000000cH

; 154  : 	Method(GetUpgradeTimeLeft);

	push	0
	push	OFFSET ?lGetUpgradeTimeLeft@CvLuaPlot@@KAHPAUlua_State@@@Z ; CvLuaPlot::lGetUpgradeTimeLeft
	mov	eax, DWORD PTR _L$[ebp]
	push	eax
	call	_lua_pushcclosure
	add	esp, 12					; 0000000cH
	push	OFFSET ??_C@_0BD@BBCMJJNG@GetUpgradeTimeLeft?$AA@
	mov	ecx, DWORD PTR _t$[ebp]
	push	ecx
	mov	edx, DWORD PTR _L$[ebp]
	push	edx
	call	_lua_setfield
	add	esp, 12					; 0000000cH

; 155  : 
; 156  : 	Method(SetUpgradeProgress);

	push	0
	push	OFFSET ?lSetUpgradeProgress@CvLuaPlot@@KAHPAUlua_State@@@Z ; CvLuaPlot::lSetUpgradeProgress
	mov	eax, DWORD PTR _L$[ebp]
	push	eax
	call	_lua_pushcclosure
	add	esp, 12					; 0000000cH
	push	OFFSET ??_C@_0BD@GNBJCNG@SetUpgradeProgress?$AA@
	mov	ecx, DWORD PTR _t$[ebp]
	push	ecx
	mov	edx, DWORD PTR _L$[ebp]
	push	edx
	call	_lua_setfield
	add	esp, 12					; 0000000cH

; 157  : 	Method(ChangeUpgradeProgress);

	push	0
	push	OFFSET ?lChangeUpgradeProgress@CvLuaPlot@@KAHPAUlua_State@@@Z ; CvLuaPlot::lChangeUpgradeProgress
	mov	eax, DWORD PTR _L$[ebp]
	push	eax
	call	_lua_pushcclosure
	add	esp, 12					; 0000000cH
	push	OFFSET ??_C@_0BG@BMLACKEG@ChangeUpgradeProgress?$AA@
	mov	ecx, DWORD PTR _t$[ebp]
	push	ecx
	mov	edx, DWORD PTR _L$[ebp]
	push	edx
	call	_lua_setfield
	add	esp, 12					; 0000000cH

; 158  : 
; 159  : 	Method(GetCityRadiusCount);

	push	0
	push	OFFSET ?lGetCityRadiusCount@CvLuaPlot@@KAHPAUlua_State@@@Z ; CvLuaPlot::lGetCityRadiusCount
	mov	eax, DWORD PTR _L$[ebp]
	push	eax
	call	_lua_pushcclosure
	add	esp, 12					; 0000000cH
	push	OFFSET ??_C@_0BD@FMKHJCLK@GetCityRadiusCount?$AA@
	mov	ecx, DWORD PTR _t$[ebp]
	push	ecx
	mov	edx, DWORD PTR _L$[ebp]
	push	edx
	call	_lua_setfield
	add	esp, 12					; 0000000cH

; 160  : 	Method(IsCityRadius);

	push	0
	push	OFFSET ?lIsCityRadius@CvLuaPlot@@KAHPAUlua_State@@@Z ; CvLuaPlot::lIsCityRadius
	mov	eax, DWORD PTR _L$[ebp]
	push	eax
	call	_lua_pushcclosure
	add	esp, 12					; 0000000cH
	push	OFFSET ??_C@_0N@OOBJPEOH@IsCityRadius?$AA@
	mov	ecx, DWORD PTR _t$[ebp]
	push	ecx
	mov	edx, DWORD PTR _L$[ebp]
	push	edx
	call	_lua_setfield
	add	esp, 12					; 0000000cH

; 161  : 
; 162  : 	Method(IsStartingPlot);

	push	0
	push	OFFSET ?lIsStartingPlot@CvLuaPlot@@KAHPAUlua_State@@@Z ; CvLuaPlot::lIsStartingPlot
	mov	eax, DWORD PTR _L$[ebp]
	push	eax
	call	_lua_pushcclosure
	add	esp, 12					; 0000000cH
	push	OFFSET ??_C@_0P@BPOJGNHB@IsStartingPlot?$AA@
	mov	ecx, DWORD PTR _t$[ebp]
	push	ecx
	mov	edx, DWORD PTR _L$[ebp]
	push	edx
	call	_lua_setfield
	add	esp, 12					; 0000000cH

; 163  : 	Method(SetStartingPlot);

	push	0
	push	OFFSET ?lSetStartingPlot@CvLuaPlot@@KAHPAUlua_State@@@Z ; CvLuaPlot::lSetStartingPlot
	mov	eax, DWORD PTR _L$[ebp]
	push	eax
	call	_lua_pushcclosure
	add	esp, 12					; 0000000cH
	push	OFFSET ??_C@_0BA@GNONGEOP@SetStartingPlot?$AA@
	mov	ecx, DWORD PTR _t$[ebp]
	push	ecx
	mov	edx, DWORD PTR _L$[ebp]
	push	edx
	call	_lua_setfield
	add	esp, 12					; 0000000cH

; 164  : 	Method(IsNEOfRiver);

	push	0
	push	OFFSET ?lIsNEOfRiver@CvLuaPlot@@KAHPAUlua_State@@@Z ; CvLuaPlot::lIsNEOfRiver
	mov	eax, DWORD PTR _L$[ebp]
	push	eax
	call	_lua_pushcclosure
	add	esp, 12					; 0000000cH
	push	OFFSET ??_C@_0M@IKKIAJPJ@IsNEOfRiver?$AA@
	mov	ecx, DWORD PTR _t$[ebp]
	push	ecx
	mov	edx, DWORD PTR _L$[ebp]
	push	edx
	call	_lua_setfield
	add	esp, 12					; 0000000cH

; 165  : 	Method(SetNEOfRiver);

	push	0
	push	OFFSET ?lSetNEOfRiver@CvLuaPlot@@KAHPAUlua_State@@@Z ; CvLuaPlot::lSetNEOfRiver
	mov	eax, DWORD PTR _L$[ebp]
	push	eax
	call	_lua_pushcclosure
	add	esp, 12					; 0000000cH
	push	OFFSET ??_C@_0N@HOEJFBFB@SetNEOfRiver?$AA@
	mov	ecx, DWORD PTR _t$[ebp]
	push	ecx
	mov	edx, DWORD PTR _L$[ebp]
	push	edx
	call	_lua_setfield
	add	esp, 12					; 0000000cH

; 166  : 	Method(IsWOfRiver);

	push	0
	push	OFFSET ?lIsWOfRiver@CvLuaPlot@@KAHPAUlua_State@@@Z ; CvLuaPlot::lIsWOfRiver
	mov	eax, DWORD PTR _L$[ebp]
	push	eax
	call	_lua_pushcclosure
	add	esp, 12					; 0000000cH
	push	OFFSET ??_C@_0L@OCMOIDPM@IsWOfRiver?$AA@
	mov	ecx, DWORD PTR _t$[ebp]
	push	ecx
	mov	edx, DWORD PTR _L$[ebp]
	push	edx
	call	_lua_setfield
	add	esp, 12					; 0000000cH

; 167  : 	Method(SetWOfRiver);

	push	0
	push	OFFSET ?lSetWOfRiver@CvLuaPlot@@KAHPAUlua_State@@@Z ; CvLuaPlot::lSetWOfRiver
	mov	eax, DWORD PTR _L$[ebp]
	push	eax
	call	_lua_pushcclosure
	add	esp, 12					; 0000000cH
	push	OFFSET ??_C@_0M@NHCDHKOK@SetWOfRiver?$AA@
	mov	ecx, DWORD PTR _t$[ebp]
	push	ecx
	mov	edx, DWORD PTR _L$[ebp]
	push	edx
	call	_lua_setfield
	add	esp, 12					; 0000000cH

; 168  : 	Method(IsNWOfRiver);

	push	0
	push	OFFSET ?lIsNWOfRiver@CvLuaPlot@@KAHPAUlua_State@@@Z ; CvLuaPlot::lIsNWOfRiver
	mov	eax, DWORD PTR _L$[ebp]
	push	eax
	call	_lua_pushcclosure
	add	esp, 12					; 0000000cH
	push	OFFSET ??_C@_0M@IJOGDAO@IsNWOfRiver?$AA@
	mov	ecx, DWORD PTR _t$[ebp]
	push	ecx
	mov	edx, DWORD PTR _L$[ebp]
	push	edx
	call	_lua_setfield
	add	esp, 12					; 0000000cH

; 169  : 	Method(SetNWOfRiver);

	push	0
	push	OFFSET ?lSetNWOfRiver@CvLuaPlot@@KAHPAUlua_State@@@Z ; CvLuaPlot::lSetNWOfRiver
	mov	eax, DWORD PTR _L$[ebp]
	push	eax
	call	_lua_pushcclosure
	add	esp, 12					; 0000000cH
	push	OFFSET ??_C@_0N@PMHPDLKG@SetNWOfRiver?$AA@
	mov	ecx, DWORD PTR _t$[ebp]
	push	ecx
	mov	edx, DWORD PTR _L$[ebp]
	push	edx
	call	_lua_setfield
	add	esp, 12					; 0000000cH

; 170  : 	Method(GetRiverEFlowDirection);

	push	0
	push	OFFSET ?lGetRiverEFlowDirection@CvLuaPlot@@KAHPAUlua_State@@@Z ; CvLuaPlot::lGetRiverEFlowDirection
	mov	eax, DWORD PTR _L$[ebp]
	push	eax
	call	_lua_pushcclosure
	add	esp, 12					; 0000000cH
	push	OFFSET ??_C@_0BH@KPEJPCF@GetRiverEFlowDirection?$AA@
	mov	ecx, DWORD PTR _t$[ebp]
	push	ecx
	mov	edx, DWORD PTR _L$[ebp]
	push	edx
	call	_lua_setfield
	add	esp, 12					; 0000000cH

; 171  : 	Method(GetRiverSEFlowDirection);

	push	0
	push	OFFSET ?lGetRiverSEFlowDirection@CvLuaPlot@@KAHPAUlua_State@@@Z ; CvLuaPlot::lGetRiverSEFlowDirection
	mov	eax, DWORD PTR _L$[ebp]
	push	eax
	call	_lua_pushcclosure
	add	esp, 12					; 0000000cH
	push	OFFSET ??_C@_0BI@COCMCOFP@GetRiverSEFlowDirection?$AA@
	mov	ecx, DWORD PTR _t$[ebp]
	push	ecx
	mov	edx, DWORD PTR _L$[ebp]
	push	edx
	call	_lua_setfield
	add	esp, 12					; 0000000cH

; 172  : 	Method(GetRiverSWFlowDirection);

	push	0
	push	OFFSET ?lGetRiverSWFlowDirection@CvLuaPlot@@KAHPAUlua_State@@@Z ; CvLuaPlot::lGetRiverSWFlowDirection
	mov	eax, DWORD PTR _L$[ebp]
	push	eax
	call	_lua_pushcclosure
	add	esp, 12					; 0000000cH
	push	OFFSET ??_C@_0BI@MCMIAAIB@GetRiverSWFlowDirection?$AA@
	mov	ecx, DWORD PTR _t$[ebp]
	push	ecx
	mov	edx, DWORD PTR _L$[ebp]
	push	edx
	call	_lua_setfield
	add	esp, 12					; 0000000cH

; 173  : 
; 174  : 	Method(IsPotentialCityWork);

	push	0
	push	OFFSET ?lIsPotentialCityWork@CvLuaPlot@@KAHPAUlua_State@@@Z ; CvLuaPlot::lIsPotentialCityWork
	mov	eax, DWORD PTR _L$[ebp]
	push	eax
	call	_lua_pushcclosure
	add	esp, 12					; 0000000cH
	push	OFFSET ??_C@_0BE@ELJLKDMB@IsPotentialCityWork?$AA@
	mov	ecx, DWORD PTR _t$[ebp]
	push	ecx
	mov	edx, DWORD PTR _L$[ebp]
	push	edx
	call	_lua_setfield
	add	esp, 12					; 0000000cH

; 175  : 	Method(IsPotentialCityWorkForArea);

	push	0
	push	OFFSET ?lIsPotentialCityWorkForArea@CvLuaPlot@@KAHPAUlua_State@@@Z ; CvLuaPlot::lIsPotentialCityWorkForArea
	mov	eax, DWORD PTR _L$[ebp]
	push	eax
	call	_lua_pushcclosure
	add	esp, 12					; 0000000cH
	push	OFFSET ??_C@_0BL@FNJICPCN@IsPotentialCityWorkForArea?$AA@
	mov	ecx, DWORD PTR _t$[ebp]
	push	ecx
	mov	edx, DWORD PTR _L$[ebp]
	push	edx
	call	_lua_setfield
	add	esp, 12					; 0000000cH

; 176  : 
; 177  : 	Method(GetOwner);

	push	0
	push	OFFSET ?lGetOwner@CvLuaPlot@@KAHPAUlua_State@@@Z ; CvLuaPlot::lGetOwner
	mov	eax, DWORD PTR _L$[ebp]
	push	eax
	call	_lua_pushcclosure
	add	esp, 12					; 0000000cH
	push	OFFSET ??_C@_08BODJMJJB@GetOwner?$AA@
	mov	ecx, DWORD PTR _t$[ebp]
	push	ecx
	mov	edx, DWORD PTR _L$[ebp]
	push	edx
	call	_lua_setfield
	add	esp, 12					; 0000000cH

; 178  : 	Method(SetOwner);

	push	0
	push	OFFSET ?lSetOwner@CvLuaPlot@@KAHPAUlua_State@@@Z ; CvLuaPlot::lSetOwner
	mov	eax, DWORD PTR _L$[ebp]
	push	eax
	call	_lua_pushcclosure
	add	esp, 12					; 0000000cH
	push	OFFSET ??_C@_08OPBFNKOM@SetOwner?$AA@
	mov	ecx, DWORD PTR _t$[ebp]
	push	ecx
	mov	edx, DWORD PTR _L$[ebp]
	push	edx
	call	_lua_setfield
	add	esp, 12					; 0000000cH

; 179  : 	Method(GetPlotType);

	push	0
	push	OFFSET ?lGetPlotType@CvLuaPlot@@KAHPAUlua_State@@@Z ; CvLuaPlot::lGetPlotType
	mov	eax, DWORD PTR _L$[ebp]
	push	eax
	call	_lua_pushcclosure
	add	esp, 12					; 0000000cH
	push	OFFSET ??_C@_0M@JBHEIOIB@GetPlotType?$AA@
	mov	ecx, DWORD PTR _t$[ebp]
	push	ecx
	mov	edx, DWORD PTR _L$[ebp]
	push	edx
	call	_lua_setfield
	add	esp, 12					; 0000000cH

; 180  : 	Method(IsFlatlands);

	push	0
	push	OFFSET ?lIsFlatlands@CvLuaPlot@@KAHPAUlua_State@@@Z ; CvLuaPlot::lIsFlatlands
	mov	eax, DWORD PTR _L$[ebp]
	push	eax
	call	_lua_pushcclosure
	add	esp, 12					; 0000000cH
	push	OFFSET ??_C@_0M@CIOEIJGM@IsFlatlands?$AA@
	mov	ecx, DWORD PTR _t$[ebp]
	push	ecx
	mov	edx, DWORD PTR _L$[ebp]
	push	edx
	call	_lua_setfield
	add	esp, 12					; 0000000cH

; 181  : 	Method(IsHills);

	push	0
	push	OFFSET ?lIsHills@CvLuaPlot@@KAHPAUlua_State@@@Z ; CvLuaPlot::lIsHills
	mov	eax, DWORD PTR _L$[ebp]
	push	eax
	call	_lua_pushcclosure
	add	esp, 12					; 0000000cH
	push	OFFSET ??_C@_07DCIJPOBB@IsHills?$AA@
	mov	ecx, DWORD PTR _t$[ebp]
	push	ecx
	mov	edx, DWORD PTR _L$[ebp]
	push	edx
	call	_lua_setfield
	add	esp, 12					; 0000000cH

; 182  : 	Method(IsOpenGround);

	push	0
	push	OFFSET ?lIsOpenGround@CvLuaPlot@@KAHPAUlua_State@@@Z ; CvLuaPlot::lIsOpenGround
	mov	eax, DWORD PTR _L$[ebp]
	push	eax
	call	_lua_pushcclosure
	add	esp, 12					; 0000000cH
	push	OFFSET ??_C@_0N@DKDGHAGP@IsOpenGround?$AA@
	mov	ecx, DWORD PTR _t$[ebp]
	push	ecx
	mov	edx, DWORD PTR _L$[ebp]
	push	edx
	call	_lua_setfield
	add	esp, 12					; 0000000cH

; 183  : 	Method(IsRoughGround);

	push	0
	push	OFFSET ?lIsRoughGround@CvLuaPlot@@KAHPAUlua_State@@@Z ; CvLuaPlot::lIsRoughGround
	mov	eax, DWORD PTR _L$[ebp]
	push	eax
	call	_lua_pushcclosure
	add	esp, 12					; 0000000cH
	push	OFFSET ??_C@_0O@DNIIDOJH@IsRoughGround?$AA@
	mov	ecx, DWORD PTR _t$[ebp]
	push	ecx
	mov	edx, DWORD PTR _L$[ebp]
	push	edx
	call	_lua_setfield
	add	esp, 12					; 0000000cH

; 184  : 	Method(IsMountain);

	push	0
	push	OFFSET ?lIsMountain@CvLuaPlot@@KAHPAUlua_State@@@Z ; CvLuaPlot::lIsMountain
	mov	eax, DWORD PTR _L$[ebp]
	push	eax
	call	_lua_pushcclosure
	add	esp, 12					; 0000000cH
	push	OFFSET ??_C@_0L@LNALPAOM@IsMountain?$AA@
	mov	ecx, DWORD PTR _t$[ebp]
	push	ecx
	mov	edx, DWORD PTR _L$[ebp]
	push	edx
	call	_lua_setfield
	add	esp, 12					; 0000000cH

; 185  : 
; 186  : 	Method(SetPlotType);

	push	0
	push	OFFSET ?lSetPlotType@CvLuaPlot@@KAHPAUlua_State@@@Z ; CvLuaPlot::lSetPlotType
	mov	eax, DWORD PTR _L$[ebp]
	push	eax
	call	_lua_pushcclosure
	add	esp, 12					; 0000000cH
	push	OFFSET ??_C@_0M@JOGKFIAC@SetPlotType?$AA@
	mov	ecx, DWORD PTR _t$[ebp]
	push	ecx
	mov	edx, DWORD PTR _L$[ebp]
	push	edx
	call	_lua_setfield
	add	esp, 12					; 0000000cH

; 187  : 	Method(GetResourceType);

	push	0
	push	OFFSET ?lGetResourceType@CvLuaPlot@@KAHPAUlua_State@@@Z ; CvLuaPlot::lGetResourceType
	mov	eax, DWORD PTR _L$[ebp]
	push	eax
	call	_lua_pushcclosure
	add	esp, 12					; 0000000cH
	push	OFFSET ??_C@_0BA@PNELCGHH@GetResourceType?$AA@
	mov	ecx, DWORD PTR _t$[ebp]
	push	ecx
	mov	edx, DWORD PTR _L$[ebp]
	push	edx
	call	_lua_setfield
	add	esp, 12					; 0000000cH

; 188  : 	Method(GetNonObsoleteResourceType);

	push	0
	push	OFFSET ?lGetNonObsoleteResourceType@CvLuaPlot@@KAHPAUlua_State@@@Z ; CvLuaPlot::lGetNonObsoleteResourceType
	mov	eax, DWORD PTR _L$[ebp]
	push	eax
	call	_lua_pushcclosure
	add	esp, 12					; 0000000cH
	push	OFFSET ??_C@_0BL@OCHONID@GetNonObsoleteResourceType?$AA@
	mov	ecx, DWORD PTR _t$[ebp]
	push	ecx
	mov	edx, DWORD PTR _L$[ebp]
	push	edx
	call	_lua_setfield
	add	esp, 12					; 0000000cH

; 189  : 	Method(SetResourceType);

	push	0
	push	OFFSET ?lSetResourceType@CvLuaPlot@@KAHPAUlua_State@@@Z ; CvLuaPlot::lSetResourceType
	mov	eax, DWORD PTR _L$[ebp]
	push	eax
	call	_lua_pushcclosure
	add	esp, 12					; 0000000cH
	push	OFFSET ??_C@_0BA@MPFNFEGO@SetResourceType?$AA@
	mov	ecx, DWORD PTR _t$[ebp]
	push	ecx
	mov	edx, DWORD PTR _L$[ebp]
	push	edx
	call	_lua_setfield
	add	esp, 12					; 0000000cH

; 190  : 	Method(GetNumResource);

	push	0
	push	OFFSET ?lGetNumResource@CvLuaPlot@@KAHPAUlua_State@@@Z ; CvLuaPlot::lGetNumResource
	mov	eax, DWORD PTR _L$[ebp]
	push	eax
	call	_lua_pushcclosure
	add	esp, 12					; 0000000cH
	push	OFFSET ??_C@_0P@DLEJDHJD@GetNumResource?$AA@
	mov	ecx, DWORD PTR _t$[ebp]
	push	ecx
	mov	edx, DWORD PTR _L$[ebp]
	push	edx
	call	_lua_setfield
	add	esp, 12					; 0000000cH

; 191  : 	Method(SetNumResource);

	push	0
	push	OFFSET ?lSetNumResource@CvLuaPlot@@KAHPAUlua_State@@@Z ; CvLuaPlot::lSetNumResource
	mov	eax, DWORD PTR _L$[ebp]
	push	eax
	call	_lua_pushcclosure
	add	esp, 12					; 0000000cH
	push	OFFSET ??_C@_0P@PFFHMNLP@SetNumResource?$AA@
	mov	ecx, DWORD PTR _t$[ebp]
	push	ecx
	mov	edx, DWORD PTR _L$[ebp]
	push	edx
	call	_lua_setfield
	add	esp, 12					; 0000000cH

; 192  : 	Method(ChangeNumResource);

	push	0
	push	OFFSET ?lChangeNumResource@CvLuaPlot@@KAHPAUlua_State@@@Z ; CvLuaPlot::lChangeNumResource
	mov	eax, DWORD PTR _L$[ebp]
	push	eax
	call	_lua_pushcclosure
	add	esp, 12					; 0000000cH
	push	OFFSET ??_C@_0BC@KPBOMALO@ChangeNumResource?$AA@
	mov	ecx, DWORD PTR _t$[ebp]
	push	ecx
	mov	edx, DWORD PTR _L$[ebp]
	push	edx
	call	_lua_setfield
	add	esp, 12					; 0000000cH

; 193  : 
; 194  : 	Method(GetImprovementType);

	push	0
	push	OFFSET ?lGetImprovementType@CvLuaPlot@@KAHPAUlua_State@@@Z ; CvLuaPlot::lGetImprovementType
	mov	eax, DWORD PTR _L$[ebp]
	push	eax
	call	_lua_pushcclosure
	add	esp, 12					; 0000000cH
	push	OFFSET ??_C@_0BD@NJODMBKI@GetImprovementType?$AA@
	mov	ecx, DWORD PTR _t$[ebp]
	push	ecx
	mov	edx, DWORD PTR _L$[ebp]
	push	edx
	call	_lua_setfield
	add	esp, 12					; 0000000cH

; 195  : 	Method(SetImprovementType);

	push	0
	push	OFFSET ?lSetImprovementType@CvLuaPlot@@KAHPAUlua_State@@@Z ; CvLuaPlot::lSetImprovementType
	mov	eax, DWORD PTR _L$[ebp]
	push	eax
	call	_lua_pushcclosure
	add	esp, 12					; 0000000cH
	push	OFFSET ??_C@_0BD@CDMJPHEA@SetImprovementType?$AA@
	mov	ecx, DWORD PTR _t$[ebp]
	push	ecx
	mov	edx, DWORD PTR _L$[ebp]
	push	edx
	call	_lua_setfield
	add	esp, 12					; 0000000cH

; 196  : 	Method(SetImprovementPillaged);

	push	0
	push	OFFSET ?lSetImprovementPillaged@CvLuaPlot@@KAHPAUlua_State@@@Z ; CvLuaPlot::lSetImprovementPillaged
	mov	eax, DWORD PTR _L$[ebp]
	push	eax
	call	_lua_pushcclosure
	add	esp, 12					; 0000000cH
	push	OFFSET ??_C@_0BH@HIMINBGH@SetImprovementPillaged?$AA@
	mov	ecx, DWORD PTR _t$[ebp]
	push	ecx
	mov	edx, DWORD PTR _L$[ebp]
	push	edx
	call	_lua_setfield
	add	esp, 12					; 0000000cH

; 197  : 	Method(GetRouteType);

	push	0
	push	OFFSET ?lGetRouteType@CvLuaPlot@@KAHPAUlua_State@@@Z ; CvLuaPlot::lGetRouteType
	mov	eax, DWORD PTR _L$[ebp]
	push	eax
	call	_lua_pushcclosure
	add	esp, 12					; 0000000cH
	push	OFFSET ??_C@_0N@MDDFIIGN@GetRouteType?$AA@
	mov	ecx, DWORD PTR _t$[ebp]
	push	ecx
	mov	edx, DWORD PTR _L$[ebp]
	push	edx
	call	_lua_setfield
	add	esp, 12					; 0000000cH

; 198  : 	Method(SetRouteType);

	push	0
	push	OFFSET ?lSetRouteType@CvLuaPlot@@KAHPAUlua_State@@@Z ; CvLuaPlot::lSetRouteType
	mov	eax, DWORD PTR _L$[ebp]
	push	eax
	call	_lua_pushcclosure
	add	esp, 12					; 0000000cH
	push	OFFSET ??_C@_0N@LHILEECB@SetRouteType?$AA@
	mov	ecx, DWORD PTR _t$[ebp]
	push	ecx
	mov	edx, DWORD PTR _L$[ebp]
	push	edx
	call	_lua_setfield
	add	esp, 12					; 0000000cH

; 199  : 	Method(IsRoutePillaged);

	push	0
	push	OFFSET ?lIsRoutePillaged@CvLuaPlot@@KAHPAUlua_State@@@Z ; CvLuaPlot::lIsRoutePillaged
	mov	eax, DWORD PTR _L$[ebp]
	push	eax
	call	_lua_pushcclosure
	add	esp, 12					; 0000000cH
	push	OFFSET ??_C@_0BA@BOKCMBNI@IsRoutePillaged?$AA@
	mov	ecx, DWORD PTR _t$[ebp]
	push	ecx
	mov	edx, DWORD PTR _L$[ebp]
	push	edx
	call	_lua_setfield
	add	esp, 12					; 0000000cH

; 200  : 
; 201  : 	Method(GetPlotCity);

	push	0
	push	OFFSET ?lGetPlotCity@CvLuaPlot@@KAHPAUlua_State@@@Z ; CvLuaPlot::lGetPlotCity
	mov	eax, DWORD PTR _L$[ebp]
	push	eax
	call	_lua_pushcclosure
	add	esp, 12					; 0000000cH
	push	OFFSET ??_C@_0M@PCNDGHAN@GetPlotCity?$AA@
	mov	ecx, DWORD PTR _t$[ebp]
	push	ecx
	mov	edx, DWORD PTR _L$[ebp]
	push	edx
	call	_lua_setfield
	add	esp, 12					; 0000000cH

; 202  : 	Method(GetWorkingCity);

	push	0
	push	OFFSET ?lGetWorkingCity@CvLuaPlot@@KAHPAUlua_State@@@Z ; CvLuaPlot::lGetWorkingCity
	mov	eax, DWORD PTR _L$[ebp]
	push	eax
	call	_lua_pushcclosure
	add	esp, 12					; 0000000cH
	push	OFFSET ??_C@_0P@FJAEMPGB@GetWorkingCity?$AA@
	mov	ecx, DWORD PTR _t$[ebp]
	push	ecx
	mov	edx, DWORD PTR _L$[ebp]
	push	edx
	call	_lua_setfield
	add	esp, 12					; 0000000cH

; 203  : 	Method(GetWorkingCityOverride);

	push	0
	push	OFFSET ?lGetWorkingCityOverride@CvLuaPlot@@KAHPAUlua_State@@@Z ; CvLuaPlot::lGetWorkingCityOverride
	mov	eax, DWORD PTR _L$[ebp]
	push	eax
	call	_lua_pushcclosure
	add	esp, 12					; 0000000cH
	push	OFFSET ??_C@_0BH@OOJOMMJK@GetWorkingCityOverride?$AA@
	mov	ecx, DWORD PTR _t$[ebp]
	push	ecx
	mov	edx, DWORD PTR _L$[ebp]
	push	edx
	call	_lua_setfield
	add	esp, 12					; 0000000cH

; 204  : 	Method(GetReconCount);

	push	0
	push	OFFSET ?lGetReconCount@CvLuaPlot@@KAHPAUlua_State@@@Z ; CvLuaPlot::lGetReconCount
	mov	eax, DWORD PTR _L$[ebp]
	push	eax
	call	_lua_pushcclosure
	add	esp, 12					; 0000000cH
	push	OFFSET ??_C@_0O@FJEFAJPI@GetReconCount?$AA@
	mov	ecx, DWORD PTR _t$[ebp]
	push	ecx
	mov	edx, DWORD PTR _L$[ebp]
	push	edx
	call	_lua_setfield
	add	esp, 12					; 0000000cH

; 205  : 	Method(GetRiverCrossingCount);

	push	0
	push	OFFSET ?lGetRiverCrossingCount@CvLuaPlot@@KAHPAUlua_State@@@Z ; CvLuaPlot::lGetRiverCrossingCount
	mov	eax, DWORD PTR _L$[ebp]
	push	eax
	call	_lua_pushcclosure
	add	esp, 12					; 0000000cH
	push	OFFSET ??_C@_0BG@PHPNMIIM@GetRiverCrossingCount?$AA@
	mov	ecx, DWORD PTR _t$[ebp]
	push	ecx
	mov	edx, DWORD PTR _L$[ebp]
	push	edx
	call	_lua_setfield
	add	esp, 12					; 0000000cH

; 206  : 	Method(GetYield);

	push	0
	push	OFFSET ?lGetYield@CvLuaPlot@@KAHPAUlua_State@@@Z ; CvLuaPlot::lGetYield
	mov	eax, DWORD PTR _L$[ebp]
	push	eax
	call	_lua_pushcclosure
	add	esp, 12					; 0000000cH
	push	OFFSET ??_C@_08NACOAIKN@GetYield?$AA@
	mov	ecx, DWORD PTR _t$[ebp]
	push	ecx
	mov	edx, DWORD PTR _L$[ebp]
	push	edx
	call	_lua_setfield
	add	esp, 12					; 0000000cH

; 207  : 	Method(CalculateNatureYield);

	push	0
	push	OFFSET ?lCalculateNatureYield@CvLuaPlot@@KAHPAUlua_State@@@Z ; CvLuaPlot::lCalculateNatureYield
	mov	eax, DWORD PTR _L$[ebp]
	push	eax
	call	_lua_pushcclosure
	add	esp, 12					; 0000000cH
	push	OFFSET ??_C@_0BF@CBKOLKOI@CalculateNatureYield?$AA@
	mov	ecx, DWORD PTR _t$[ebp]
	push	ecx
	mov	edx, DWORD PTR _L$[ebp]
	push	edx
	call	_lua_setfield
	add	esp, 12					; 0000000cH

; 208  : 	Method(CalculateBestNatureYield);

	push	0
	push	OFFSET ?lCalculateBestNatureYield@CvLuaPlot@@KAHPAUlua_State@@@Z ; CvLuaPlot::lCalculateBestNatureYield
	mov	eax, DWORD PTR _L$[ebp]
	push	eax
	call	_lua_pushcclosure
	add	esp, 12					; 0000000cH
	push	OFFSET ??_C@_0BJ@OAMDIALM@CalculateBestNatureYield?$AA@
	mov	ecx, DWORD PTR _t$[ebp]
	push	ecx
	mov	edx, DWORD PTR _L$[ebp]
	push	edx
	call	_lua_setfield
	add	esp, 12					; 0000000cH

; 209  : 	Method(CalculateTotalBestNatureYield);

	push	0
	push	OFFSET ?lCalculateTotalBestNatureYield@CvLuaPlot@@KAHPAUlua_State@@@Z ; CvLuaPlot::lCalculateTotalBestNatureYield
	mov	eax, DWORD PTR _L$[ebp]
	push	eax
	call	_lua_pushcclosure
	add	esp, 12					; 0000000cH
	push	OFFSET ??_C@_0BO@EHFPFGPL@CalculateTotalBestNatureYield?$AA@
	mov	ecx, DWORD PTR _t$[ebp]
	push	ecx
	mov	edx, DWORD PTR _L$[ebp]
	push	edx
	call	_lua_setfield
	add	esp, 12					; 0000000cH

; 210  : 	Method(CalculateImprovementYieldChange);

	push	0
	push	OFFSET ?lCalculateImprovementYieldChange@CvLuaPlot@@KAHPAUlua_State@@@Z ; CvLuaPlot::lCalculateImprovementYieldChange
	mov	eax, DWORD PTR _L$[ebp]
	push	eax
	call	_lua_pushcclosure
	add	esp, 12					; 0000000cH
	push	OFFSET ??_C@_0CA@FIAOIPPH@CalculateImprovementYieldChange?$AA@
	mov	ecx, DWORD PTR _t$[ebp]
	push	ecx
	mov	edx, DWORD PTR _L$[ebp]
	push	edx
	call	_lua_setfield
	add	esp, 12					; 0000000cH

; 211  : 	Method(CalculateYield);

	push	0
	push	OFFSET ?lCalculateYield@CvLuaPlot@@KAHPAUlua_State@@@Z ; CvLuaPlot::lCalculateYield
	mov	eax, DWORD PTR _L$[ebp]
	push	eax
	call	_lua_pushcclosure
	add	esp, 12					; 0000000cH
	push	OFFSET ??_C@_0P@CENIPKEL@CalculateYield?$AA@
	mov	ecx, DWORD PTR _t$[ebp]
	push	ecx
	mov	edx, DWORD PTR _L$[ebp]
	push	edx
	call	_lua_setfield
	add	esp, 12					; 0000000cH

; 212  : 	Method(HasYield);

	push	0
	push	OFFSET ?lHasYield@CvLuaPlot@@KAHPAUlua_State@@@Z ; CvLuaPlot::lHasYield
	mov	eax, DWORD PTR _L$[ebp]
	push	eax
	call	_lua_pushcclosure
	add	esp, 12					; 0000000cH
	push	OFFSET ??_C@_08EOHKPHAI@HasYield?$AA@
	mov	ecx, DWORD PTR _t$[ebp]
	push	ecx
	mov	edx, DWORD PTR _L$[ebp]
	push	edx
	call	_lua_setfield
	add	esp, 12					; 0000000cH

; 213  : 	Method(GetYieldWithBuild);

	push	0
	push	OFFSET ?lGetYieldWithBuild@CvLuaPlot@@KAHPAUlua_State@@@Z ; CvLuaPlot::lGetYieldWithBuild
	mov	eax, DWORD PTR _L$[ebp]
	push	eax
	call	_lua_pushcclosure
	add	esp, 12					; 0000000cH
	push	OFFSET ??_C@_0BC@FCJPHHA@GetYieldWithBuild?$AA@
	mov	ecx, DWORD PTR _t$[ebp]
	push	ecx
	mov	edx, DWORD PTR _L$[ebp]
	push	edx
	call	_lua_setfield
	add	esp, 12					; 0000000cH

; 214  : 
; 215  : 	Method(CountNumAirUnits);

	push	0
	push	OFFSET ?lCountNumAirUnits@CvLuaPlot@@KAHPAUlua_State@@@Z ; CvLuaPlot::lCountNumAirUnits
	mov	eax, DWORD PTR _L$[ebp]
	push	eax
	call	_lua_pushcclosure
	add	esp, 12					; 0000000cH
	push	OFFSET ??_C@_0BB@ODLGAIAC@CountNumAirUnits?$AA@
	mov	ecx, DWORD PTR _t$[ebp]
	push	ecx
	mov	edx, DWORD PTR _L$[ebp]
	push	edx
	call	_lua_setfield
	add	esp, 12					; 0000000cH

; 216  : 
; 217  : 	Method(GetFoundValue);

	push	0
	push	OFFSET ?lGetFoundValue@CvLuaPlot@@KAHPAUlua_State@@@Z ; CvLuaPlot::lGetFoundValue
	mov	eax, DWORD PTR _L$[ebp]
	push	eax
	call	_lua_pushcclosure
	add	esp, 12					; 0000000cH
	push	OFFSET ??_C@_0O@GFNIBAIO@GetFoundValue?$AA@
	mov	ecx, DWORD PTR _t$[ebp]
	push	ecx
	mov	edx, DWORD PTR _L$[ebp]
	push	edx
	call	_lua_setfield
	add	esp, 12					; 0000000cH

; 218  : 	Method(IsBestAdjacentFound);

	push	0
	push	OFFSET ?lIsBestAdjacentFound@CvLuaPlot@@KAHPAUlua_State@@@Z ; CvLuaPlot::lIsBestAdjacentFound
	mov	eax, DWORD PTR _L$[ebp]
	push	eax
	call	_lua_pushcclosure
	add	esp, 12					; 0000000cH
	push	OFFSET ??_C@_0BE@MJJBFBHH@IsBestAdjacentFound?$AA@
	mov	ecx, DWORD PTR _t$[ebp]
	push	ecx
	mov	edx, DWORD PTR _L$[ebp]
	push	edx
	call	_lua_setfield
	add	esp, 12					; 0000000cH

; 219  : 
; 220  : 	Method(GetPlayerCityRadiusCount);

	push	0
	push	OFFSET ?lGetPlayerCityRadiusCount@CvLuaPlot@@KAHPAUlua_State@@@Z ; CvLuaPlot::lGetPlayerCityRadiusCount
	mov	eax, DWORD PTR _L$[ebp]
	push	eax
	call	_lua_pushcclosure
	add	esp, 12					; 0000000cH
	push	OFFSET ??_C@_0BJ@FHECNEHC@GetPlayerCityRadiusCount?$AA@
	mov	ecx, DWORD PTR _t$[ebp]
	push	ecx
	mov	edx, DWORD PTR _L$[ebp]
	push	edx
	call	_lua_setfield
	add	esp, 12					; 0000000cH

; 221  : 	Method(IsPlayerCityRadius);

	push	0
	push	OFFSET ?lIsPlayerCityRadius@CvLuaPlot@@KAHPAUlua_State@@@Z ; CvLuaPlot::lIsPlayerCityRadius
	mov	eax, DWORD PTR _L$[ebp]
	push	eax
	call	_lua_pushcclosure
	add	esp, 12					; 0000000cH
	push	OFFSET ??_C@_0BD@FCCJINHM@IsPlayerCityRadius?$AA@
	mov	ecx, DWORD PTR _t$[ebp]
	push	ecx
	mov	edx, DWORD PTR _L$[ebp]
	push	edx
	call	_lua_setfield
	add	esp, 12					; 0000000cH

; 222  : 
; 223  : 	Method(GetVisibilityCount);

	push	0
	push	OFFSET ?lGetVisibilityCount@CvLuaPlot@@KAHPAUlua_State@@@Z ; CvLuaPlot::lGetVisibilityCount
	mov	eax, DWORD PTR _L$[ebp]
	push	eax
	call	_lua_pushcclosure
	add	esp, 12					; 0000000cH
	push	OFFSET ??_C@_0BD@MEPELFEN@GetVisibilityCount?$AA@
	mov	ecx, DWORD PTR _t$[ebp]
	push	ecx
	mov	edx, DWORD PTR _L$[ebp]
	push	edx
	call	_lua_setfield
	add	esp, 12					; 0000000cH

; 224  : 	Method(ChangeVisibilityCount);

	push	0
	push	OFFSET ?lChangeVisibilityCount@CvLuaPlot@@KAHPAUlua_State@@@Z ; CvLuaPlot::lChangeVisibilityCount
	mov	eax, DWORD PTR _L$[ebp]
	push	eax
	call	_lua_pushcclosure
	add	esp, 12					; 0000000cH
	push	OFFSET ??_C@_0BG@CELPDLDF@ChangeVisibilityCount?$AA@
	mov	ecx, DWORD PTR _t$[ebp]
	push	ecx
	mov	edx, DWORD PTR _L$[ebp]
	push	edx
	call	_lua_setfield
	add	esp, 12					; 0000000cH

; 225  : 
; 226  : 	Method(GetRevealedOwner);

	push	0
	push	OFFSET ?lGetRevealedOwner@CvLuaPlot@@KAHPAUlua_State@@@Z ; CvLuaPlot::lGetRevealedOwner
	mov	eax, DWORD PTR _L$[ebp]
	push	eax
	call	_lua_pushcclosure
	add	esp, 12					; 0000000cH
	push	OFFSET ??_C@_0BB@OFCBENIO@GetRevealedOwner?$AA@
	mov	ecx, DWORD PTR _t$[ebp]
	push	ecx
	mov	edx, DWORD PTR _L$[ebp]
	push	edx
	call	_lua_setfield
	add	esp, 12					; 0000000cH

; 227  : 	Method(GetRevealedTeam);

	push	0
	push	OFFSET ?lGetRevealedTeam@CvLuaPlot@@KAHPAUlua_State@@@Z ; CvLuaPlot::lGetRevealedTeam
	mov	eax, DWORD PTR _L$[ebp]
	push	eax
	call	_lua_pushcclosure
	add	esp, 12					; 0000000cH
	push	OFFSET ??_C@_0BA@GEFNGHGP@GetRevealedTeam?$AA@
	mov	ecx, DWORD PTR _t$[ebp]
	push	ecx
	mov	edx, DWORD PTR _L$[ebp]
	push	edx
	call	_lua_setfield
	add	esp, 12					; 0000000cH

; 228  : 
; 229  : 	Method(IsRiverCrossing);

	push	0
	push	OFFSET ?lIsRiverCrossing@CvLuaPlot@@KAHPAUlua_State@@@Z ; CvLuaPlot::lIsRiverCrossing
	mov	eax, DWORD PTR _L$[ebp]
	push	eax
	call	_lua_pushcclosure
	add	esp, 12					; 0000000cH
	push	OFFSET ??_C@_0BA@MJKALLIG@IsRiverCrossing?$AA@
	mov	ecx, DWORD PTR _t$[ebp]
	push	ecx
	mov	edx, DWORD PTR _L$[ebp]
	push	edx
	call	_lua_setfield
	add	esp, 12					; 0000000cH

; 230  : 	Method(IsRiverCrossingToPlot);

	push	0
	push	OFFSET ?lIsRiverCrossingToPlot@CvLuaPlot@@KAHPAUlua_State@@@Z ; CvLuaPlot::lIsRiverCrossingToPlot
	mov	eax, DWORD PTR _L$[ebp]
	push	eax
	call	_lua_pushcclosure
	add	esp, 12					; 0000000cH
	push	OFFSET ??_C@_0BG@BDOILNLO@IsRiverCrossingToPlot?$AA@
	mov	ecx, DWORD PTR _t$[ebp]
	push	ecx
	mov	edx, DWORD PTR _L$[ebp]
	push	edx
	call	_lua_setfield
	add	esp, 12					; 0000000cH

; 231  : 
; 232  : 	Method(IsRevealed);

	push	0
	push	OFFSET ?lIsRevealed@CvLuaPlot@@KAHPAUlua_State@@@Z ; CvLuaPlot::lIsRevealed
	mov	eax, DWORD PTR _L$[ebp]
	push	eax
	call	_lua_pushcclosure
	add	esp, 12					; 0000000cH
	push	OFFSET ??_C@_0L@KNACFKBL@IsRevealed?$AA@
	mov	ecx, DWORD PTR _t$[ebp]
	push	ecx
	mov	edx, DWORD PTR _L$[ebp]
	push	edx
	call	_lua_setfield
	add	esp, 12					; 0000000cH

; 233  : 	Method(SetRevealed);

	push	0
	push	OFFSET ?lSetRevealed@CvLuaPlot@@KAHPAUlua_State@@@Z ; CvLuaPlot::lSetRevealed
	mov	eax, DWORD PTR _L$[ebp]
	push	eax
	call	_lua_pushcclosure
	add	esp, 12					; 0000000cH
	push	OFFSET ??_C@_0M@JIOPKDAN@SetRevealed?$AA@
	mov	ecx, DWORD PTR _t$[ebp]
	push	ecx
	mov	edx, DWORD PTR _L$[ebp]
	push	edx
	call	_lua_setfield
	add	esp, 12					; 0000000cH

; 234  : 	Method(GetRevealedImprovementType);

	push	0
	push	OFFSET ?lGetRevealedImprovementType@CvLuaPlot@@KAHPAUlua_State@@@Z ; CvLuaPlot::lGetRevealedImprovementType
	mov	eax, DWORD PTR _L$[ebp]
	push	eax
	call	_lua_pushcclosure
	add	esp, 12					; 0000000cH
	push	OFFSET ??_C@_0BL@PNNIAODD@GetRevealedImprovementType?$AA@
	mov	ecx, DWORD PTR _t$[ebp]
	push	ecx
	mov	edx, DWORD PTR _L$[ebp]
	push	edx
	call	_lua_setfield
	add	esp, 12					; 0000000cH

; 235  : 	Method(GetRevealedRouteType);

	push	0
	push	OFFSET ?lGetRevealedRouteType@CvLuaPlot@@KAHPAUlua_State@@@Z ; CvLuaPlot::lGetRevealedRouteType
	mov	eax, DWORD PTR _L$[ebp]
	push	eax
	call	_lua_pushcclosure
	add	esp, 12					; 0000000cH
	push	OFFSET ??_C@_0BF@IFAHMPDF@GetRevealedRouteType?$AA@
	mov	ecx, DWORD PTR _t$[ebp]
	push	ecx
	mov	edx, DWORD PTR _L$[ebp]
	push	edx
	call	_lua_setfield
	add	esp, 12					; 0000000cH

; 236  : 	Method(GetBuildProgress);

	push	0
	push	OFFSET ?lGetBuildProgress@CvLuaPlot@@KAHPAUlua_State@@@Z ; CvLuaPlot::lGetBuildProgress
	mov	eax, DWORD PTR _L$[ebp]
	push	eax
	call	_lua_pushcclosure
	add	esp, 12					; 0000000cH
	push	OFFSET ??_C@_0BB@JNKOGOND@GetBuildProgress?$AA@
	mov	ecx, DWORD PTR _t$[ebp]
	push	ecx
	mov	edx, DWORD PTR _L$[ebp]
	push	edx
	call	_lua_setfield
	add	esp, 12					; 0000000cH

; 237  : 	Method(ChangeBuildProgress);

	push	0
	push	OFFSET ?lChangeBuildProgress@CvLuaPlot@@KAHPAUlua_State@@@Z ; CvLuaPlot::lChangeBuildProgress
	mov	eax, DWORD PTR _L$[ebp]
	push	eax
	call	_lua_pushcclosure
	add	esp, 12					; 0000000cH
	push	OFFSET ??_C@_0BE@JOFNMHNE@ChangeBuildProgress?$AA@
	mov	ecx, DWORD PTR _t$[ebp]
	push	ecx
	mov	edx, DWORD PTR _L$[ebp]
	push	edx
	call	_lua_setfield
	add	esp, 12					; 0000000cH

; 238  : 
; 239  : 	Method(GetInvisibleVisibilityCount);

	push	0
	push	OFFSET ?lGetInvisibleVisibilityCount@CvLuaPlot@@KAHPAUlua_State@@@Z ; CvLuaPlot::lGetInvisibleVisibilityCount
	mov	eax, DWORD PTR _L$[ebp]
	push	eax
	call	_lua_pushcclosure
	add	esp, 12					; 0000000cH
	push	OFFSET ??_C@_0BM@FGJPJMNO@GetInvisibleVisibilityCount?$AA@
	mov	ecx, DWORD PTR _t$[ebp]
	push	ecx
	mov	edx, DWORD PTR _L$[ebp]
	push	edx
	call	_lua_setfield
	add	esp, 12					; 0000000cH

; 240  : 	Method(IsInvisibleVisible);

	push	0
	push	OFFSET ?lIsInvisibleVisible@CvLuaPlot@@KAHPAUlua_State@@@Z ; CvLuaPlot::lIsInvisibleVisible
	mov	eax, DWORD PTR _L$[ebp]
	push	eax
	call	_lua_pushcclosure
	add	esp, 12					; 0000000cH
	push	OFFSET ??_C@_0BD@INIFKIEI@IsInvisibleVisible?$AA@
	mov	ecx, DWORD PTR _t$[ebp]
	push	ecx
	mov	edx, DWORD PTR _L$[ebp]
	push	edx
	call	_lua_setfield
	add	esp, 12					; 0000000cH

; 241  : 	Method(ChangeInvisibleVisibilityCount);

	push	0
	push	OFFSET ?lChangeInvisibleVisibilityCount@CvLuaPlot@@KAHPAUlua_State@@@Z ; CvLuaPlot::lChangeInvisibleVisibilityCount
	mov	eax, DWORD PTR _L$[ebp]
	push	eax
	call	_lua_pushcclosure
	add	esp, 12					; 0000000cH
	push	OFFSET ??_C@_0BP@LBNFAPK@ChangeInvisibleVisibilityCount?$AA@
	mov	ecx, DWORD PTR _t$[ebp]
	push	ecx
	mov	edx, DWORD PTR _L$[ebp]
	push	edx
	call	_lua_setfield
	add	esp, 12					; 0000000cH

; 242  : 
; 243  : 	Method(GetNumUnits);

	push	0
	push	OFFSET ?lGetNumUnits@CvLuaPlot@@KAHPAUlua_State@@@Z ; CvLuaPlot::lGetNumUnits
	mov	eax, DWORD PTR _L$[ebp]
	push	eax
	call	_lua_pushcclosure
	add	esp, 12					; 0000000cH
	push	OFFSET ??_C@_0M@GNPEBAGL@GetNumUnits?$AA@
	mov	ecx, DWORD PTR _t$[ebp]
	push	ecx
	mov	edx, DWORD PTR _L$[ebp]
	push	edx
	call	_lua_setfield
	add	esp, 12					; 0000000cH

; 244  : 	Method(GetUnit);

	push	0
	push	OFFSET ?lGetUnit@CvLuaPlot@@KAHPAUlua_State@@@Z ; CvLuaPlot::lGetUnit
	mov	eax, DWORD PTR _L$[ebp]
	push	eax
	call	_lua_pushcclosure
	add	esp, 12					; 0000000cH
	push	OFFSET ??_C@_07NHOHELCB@GetUnit?$AA@
	mov	ecx, DWORD PTR _t$[ebp]
	push	ecx
	mov	edx, DWORD PTR _L$[ebp]
	push	edx
	call	_lua_setfield
	add	esp, 12					; 0000000cH

; 245  : 
; 246  : 	Method(GetNumLayerUnits);

	push	0
	push	OFFSET ?lGetNumLayerUnits@CvLuaPlot@@KAHPAUlua_State@@@Z ; CvLuaPlot::lGetNumLayerUnits
	mov	eax, DWORD PTR _L$[ebp]
	push	eax
	call	_lua_pushcclosure
	add	esp, 12					; 0000000cH
	push	OFFSET ??_C@_0BB@CJPGAEMO@GetNumLayerUnits?$AA@
	mov	ecx, DWORD PTR _t$[ebp]
	push	ecx
	mov	edx, DWORD PTR _L$[ebp]
	push	edx
	call	_lua_setfield
	add	esp, 12					; 0000000cH

; 247  : 	Method(GetLayerUnit);

	push	0
	push	OFFSET ?lGetLayerUnit@CvLuaPlot@@KAHPAUlua_State@@@Z ; CvLuaPlot::lGetLayerUnit
	mov	eax, DWORD PTR _L$[ebp]
	push	eax
	call	_lua_pushcclosure
	add	esp, 12					; 0000000cH
	push	OFFSET ??_C@_0N@KMFKPML@GetLayerUnit?$AA@
	mov	ecx, DWORD PTR _t$[ebp]
	push	ecx
	mov	edx, DWORD PTR _L$[ebp]
	push	edx
	call	_lua_setfield
	add	esp, 12					; 0000000cH

; 248  : 
; 249  : 	Method(GetScriptData);

	push	0
	push	OFFSET ?lGetScriptData@CvLuaPlot@@KAHPAUlua_State@@@Z ; CvLuaPlot::lGetScriptData
	mov	eax, DWORD PTR _L$[ebp]
	push	eax
	call	_lua_pushcclosure
	add	esp, 12					; 0000000cH
	push	OFFSET ??_C@_0O@IJPBDHCD@GetScriptData?$AA@
	mov	ecx, DWORD PTR _t$[ebp]
	push	ecx
	mov	edx, DWORD PTR _L$[ebp]
	push	edx
	call	_lua_setfield
	add	esp, 12					; 0000000cH

; 250  : 	Method(SetScriptData);

	push	0
	push	OFFSET ?lSetScriptData@CvLuaPlot@@KAHPAUlua_State@@@Z ; CvLuaPlot::lSetScriptData
	mov	eax, DWORD PTR _L$[ebp]
	push	eax
	call	_lua_pushcclosure
	add	esp, 12					; 0000000cH
	push	OFFSET ??_C@_0O@PGOPIEFE@SetScriptData?$AA@
	mov	ecx, DWORD PTR _t$[ebp]
	push	ecx
	mov	edx, DWORD PTR _L$[ebp]
	push	edx
	call	_lua_setfield
	add	esp, 12					; 0000000cH

; 251  : 
; 252  : 	Method(GetActiveFogOfWarMode);

	push	0
	push	OFFSET ?lGetActiveFogOfWarMode@CvLuaPlot@@KAHPAUlua_State@@@Z ; CvLuaPlot::lGetActiveFogOfWarMode
	mov	eax, DWORD PTR _L$[ebp]
	push	eax
	call	_lua_pushcclosure
	add	esp, 12					; 0000000cH
	push	OFFSET ??_C@_0BG@BKOPMAI@GetActiveFogOfWarMode?$AA@
	mov	ecx, DWORD PTR _t$[ebp]
	push	ecx
	mov	edx, DWORD PTR _L$[ebp]
	push	edx
	call	_lua_setfield
	add	esp, 12					; 0000000cH

; 253  : 
; 254  : 	Method(IsImprovementPillaged);

	push	0
	push	OFFSET ?lIsImprovementPillaged@CvLuaPlot@@KAHPAUlua_State@@@Z ; CvLuaPlot::lIsImprovementPillaged
	mov	eax, DWORD PTR _L$[ebp]
	push	eax
	call	_lua_pushcclosure
	add	esp, 12					; 0000000cH
	push	OFFSET ??_C@_0BG@NEIGEDBJ@IsImprovementPillaged?$AA@
	mov	ecx, DWORD PTR _t$[ebp]
	push	ecx
	mov	edx, DWORD PTR _L$[ebp]
	push	edx
	call	_lua_setfield
	add	esp, 12					; 0000000cH

; 255  : 
; 256  : 	Method(CanSeePlot);

	push	0
	push	OFFSET ?lCanSeePlot@CvLuaPlot@@KAHPAUlua_State@@@Z ; CvLuaPlot::lCanSeePlot
	mov	eax, DWORD PTR _L$[ebp]
	push	eax
	call	_lua_pushcclosure
	add	esp, 12					; 0000000cH
	push	OFFSET ??_C@_0L@GKHDLKJE@CanSeePlot?$AA@
	mov	ecx, DWORD PTR _t$[ebp]
	push	ecx
	mov	edx, DWORD PTR _L$[ebp]
	push	edx
	call	_lua_setfield
	add	esp, 12					; 0000000cH

; 257  : 
; 258  : 	Method(GetContinentArtType);

	push	0
	push	OFFSET ?lGetContinentArtType@CvLuaPlot@@KAHPAUlua_State@@@Z ; CvLuaPlot::lGetContinentArtType
	mov	eax, DWORD PTR _L$[ebp]
	push	eax
	call	_lua_pushcclosure
	add	esp, 12					; 0000000cH
	push	OFFSET ??_C@_0BE@MEOCENPD@GetContinentArtType?$AA@
	mov	ecx, DWORD PTR _t$[ebp]
	push	ecx
	mov	edx, DWORD PTR _L$[ebp]
	push	edx
	call	_lua_setfield
	add	esp, 12					; 0000000cH

; 259  : 	Method(SetContinentArtType);

	push	0
	push	OFFSET ?lSetContinentArtType@CvLuaPlot@@KAHPAUlua_State@@@Z ; CvLuaPlot::lSetContinentArtType
	mov	eax, DWORD PTR _L$[ebp]
	push	eax
	call	_lua_pushcclosure
	add	esp, 12					; 0000000cH
	push	OFFSET ??_C@_0BE@GKMJANIP@SetContinentArtType?$AA@
	mov	ecx, DWORD PTR _t$[ebp]
	push	ecx
	mov	edx, DWORD PTR _L$[ebp]
	push	edx
	call	_lua_setfield
	add	esp, 12					; 0000000cH

; 260  : 
; 261  : 	Method(IsResourceConnectedByImprovement);

	push	0
	push	OFFSET ?lIsResourceConnectedByImprovement@CvLuaPlot@@KAHPAUlua_State@@@Z ; CvLuaPlot::lIsResourceConnectedByImprovement
	mov	eax, DWORD PTR _L$[ebp]
	push	eax
	call	_lua_pushcclosure
	add	esp, 12					; 0000000cH
	push	OFFSET ??_C@_0CB@KPLFICMP@IsResourceConnectedByImprovement@
	mov	ecx, DWORD PTR _t$[ebp]
	push	ecx
	mov	edx, DWORD PTR _L$[ebp]
	push	edx
	call	_lua_setfield
	add	esp, 12					; 0000000cH

; 262  : 
; 263  : 	Method(IsBuildRemovesFeature);

	push	0
	push	OFFSET ?lIsBuildRemovesFeature@CvLuaPlot@@KAHPAUlua_State@@@Z ; CvLuaPlot::lIsBuildRemovesFeature
	mov	eax, DWORD PTR _L$[ebp]
	push	eax
	call	_lua_pushcclosure
	add	esp, 12					; 0000000cH
	push	OFFSET ??_C@_0BG@PCIABHEK@IsBuildRemovesFeature?$AA@
	mov	ecx, DWORD PTR _t$[ebp]
	push	ecx
	mov	edx, DWORD PTR _L$[ebp]
	push	edx
	call	_lua_setfield
	add	esp, 12					; 0000000cH

; 264  : 
; 265  : 	Method(GetArchaeologyArtifactType);

	push	0
	push	OFFSET ?lGetArchaeologyArtifactType@CvLuaPlot@@KAHPAUlua_State@@@Z ; CvLuaPlot::lGetArchaeologyArtifactType
	mov	eax, DWORD PTR _L$[ebp]
	push	eax
	call	_lua_pushcclosure
	add	esp, 12					; 0000000cH
	push	OFFSET ??_C@_0BL@ENHELHEO@GetArchaeologyArtifactType?$AA@
	mov	ecx, DWORD PTR _t$[ebp]
	push	ecx
	mov	edx, DWORD PTR _L$[ebp]
	push	edx
	call	_lua_setfield
	add	esp, 12					; 0000000cH

; 266  : 	Method(GetArchaeologyArtifactEra);

	push	0
	push	OFFSET ?lGetArchaeologyArtifactEra@CvLuaPlot@@KAHPAUlua_State@@@Z ; CvLuaPlot::lGetArchaeologyArtifactEra
	mov	eax, DWORD PTR _L$[ebp]
	push	eax
	call	_lua_pushcclosure
	add	esp, 12					; 0000000cH
	push	OFFSET ??_C@_0BK@EMCHHPLM@GetArchaeologyArtifactEra?$AA@
	mov	ecx, DWORD PTR _t$[ebp]
	push	ecx
	mov	edx, DWORD PTR _L$[ebp]
	push	edx
	call	_lua_setfield
	add	esp, 12					; 0000000cH

; 267  : 	Method(GetArchaeologyArtifactPlayer1);

	push	0
	push	OFFSET ?lGetArchaeologyArtifactPlayer1@CvLuaPlot@@KAHPAUlua_State@@@Z ; CvLuaPlot::lGetArchaeologyArtifactPlayer1
	mov	eax, DWORD PTR _L$[ebp]
	push	eax
	call	_lua_pushcclosure
	add	esp, 12					; 0000000cH
	push	OFFSET ??_C@_0BO@MHAOIHEO@GetArchaeologyArtifactPlayer1?$AA@
	mov	ecx, DWORD PTR _t$[ebp]
	push	ecx
	mov	edx, DWORD PTR _L$[ebp]
	push	edx
	call	_lua_setfield
	add	esp, 12					; 0000000cH

; 268  : 	Method(GetArchaeologyArtifactPlayer2);

	push	0
	push	OFFSET ?lGetArchaeologyArtifactPlayer2@CvLuaPlot@@KAHPAUlua_State@@@Z ; CvLuaPlot::lGetArchaeologyArtifactPlayer2
	mov	eax, DWORD PTR _L$[ebp]
	push	eax
	call	_lua_pushcclosure
	add	esp, 12					; 0000000cH
	push	OFFSET ??_C@_0BO@OMCDNEIN@GetArchaeologyArtifactPlayer2?$AA@
	mov	ecx, DWORD PTR _t$[ebp]
	push	ecx
	mov	edx, DWORD PTR _L$[ebp]
	push	edx
	call	_lua_setfield
	add	esp, 12					; 0000000cH

; 269  : 	Method(GetArchaeologyArtifactWork);

	push	0
	push	OFFSET ?lGetArchaeologyArtifactWork@CvLuaPlot@@KAHPAUlua_State@@@Z ; CvLuaPlot::lGetArchaeologyArtifactWork
	mov	eax, DWORD PTR _L$[ebp]
	push	eax
	call	_lua_pushcclosure
	add	esp, 12					; 0000000cH
	push	OFFSET ??_C@_0BL@OCKBDMDN@GetArchaeologyArtifactWork?$AA@
	mov	ecx, DWORD PTR _t$[ebp]
	push	ecx
	mov	edx, DWORD PTR _L$[ebp]
	push	edx
	call	_lua_setfield
	add	esp, 12					; 0000000cH

; 270  : 	Method(HasWrittenArtifact);

	push	0
	push	OFFSET ?lHasWrittenArtifact@CvLuaPlot@@KAHPAUlua_State@@@Z ; CvLuaPlot::lHasWrittenArtifact
	mov	eax, DWORD PTR _L$[ebp]
	push	eax
	call	_lua_pushcclosure
	add	esp, 12					; 0000000cH
	push	OFFSET ??_C@_0BD@NANOFFBN@HasWrittenArtifact?$AA@
	mov	ecx, DWORD PTR _t$[ebp]
	push	ecx
	mov	edx, DWORD PTR _L$[ebp]
	push	edx
	call	_lua_setfield
	add	esp, 12					; 0000000cH

; 271  : 
; 272  : 	Method(GetCityPurchaseID);

	push	0
	push	OFFSET ?lGetCityPurchaseID@CvLuaPlot@@KAHPAUlua_State@@@Z ; CvLuaPlot::lGetCityPurchaseID
	mov	eax, DWORD PTR _L$[ebp]
	push	eax
	call	_lua_pushcclosure
	add	esp, 12					; 0000000cH
	push	OFFSET ??_C@_0BC@LPDCGCFO@GetCityPurchaseID?$AA@
	mov	ecx, DWORD PTR _t$[ebp]
	push	ecx
	mov	edx, DWORD PTR _L$[ebp]
	push	edx
	call	_lua_setfield
	add	esp, 12					; 0000000cH

; 273  : 	Method(SetCityPurchaseID);

	push	0
	push	OFFSET ?lSetCityPurchaseID@CvLuaPlot@@KAHPAUlua_State@@@Z ; CvLuaPlot::lSetCityPurchaseID
	mov	eax, DWORD PTR _L$[ebp]
	push	eax
	call	_lua_pushcclosure
	add	esp, 12					; 0000000cH
	push	OFFSET ??_C@_0BC@JKDJOJEA@SetCityPurchaseID?$AA@
	mov	ecx, DWORD PTR _t$[ebp]
	push	ecx
	mov	edx, DWORD PTR _L$[ebp]
	push	edx
	call	_lua_setfield
	add	esp, 12					; 0000000cH

; 274  : }

	pop	ebp
	ret	0
?PushMethods@CvLuaPlot@@SAXPAUlua_State@@H@Z ENDP	; CvLuaPlot::PushMethods
_TEXT	ENDS
PUBLIC	?DefaultHandleMissingInstance@?$CvLuaScopedInstance@VCvLuaPlot@@VCvPlot@@@@KAXPAUlua_State@@@Z ; CvLuaScopedInstance<CvLuaPlot,CvPlot>::DefaultHandleMissingInstance
PUBLIC	?HandleMissingInstance@CvLuaPlot@@SAXPAUlua_State@@@Z ; CvLuaPlot::HandleMissingInstance
; Function compile flags: /Odtp
;	COMDAT ?HandleMissingInstance@CvLuaPlot@@SAXPAUlua_State@@@Z
_TEXT	SEGMENT
_L$ = 8							; size = 4
?HandleMissingInstance@CvLuaPlot@@SAXPAUlua_State@@@Z PROC ; CvLuaPlot::HandleMissingInstance, COMDAT

; 277  : {

	push	ebp
	mov	ebp, esp

; 278  : 	DefaultHandleMissingInstance(L);

	mov	eax, DWORD PTR _L$[ebp]
	push	eax
	call	?DefaultHandleMissingInstance@?$CvLuaScopedInstance@VCvLuaPlot@@VCvPlot@@@@KAXPAUlua_State@@@Z ; CvLuaScopedInstance<CvLuaPlot,CvPlot>::DefaultHandleMissingInstance
	add	esp, 4

; 279  : }

	pop	ebp
	ret	0
?HandleMissingInstance@CvLuaPlot@@SAXPAUlua_State@@@Z ENDP ; CvLuaPlot::HandleMissingInstance
_TEXT	ENDS
PUBLIC	??_C@_04HIOGLPHN@Plot?$AA@			; `string'
PUBLIC	?GetTypeName@CvLuaPlot@@SAPBDXZ			; CvLuaPlot::GetTypeName
;	COMDAT ??_C@_04HIOGLPHN@Plot?$AA@
CONST	SEGMENT
??_C@_04HIOGLPHN@Plot?$AA@ DB 'Plot', 00H		; `string'
; Function compile flags: /Odtp
CONST	ENDS
;	COMDAT ?GetTypeName@CvLuaPlot@@SAPBDXZ
_TEXT	SEGMENT
?GetTypeName@CvLuaPlot@@SAPBDXZ PROC			; CvLuaPlot::GetTypeName, COMDAT

; 282  : {

	push	ebp
	mov	ebp, esp

; 283  : 	return "Plot";

	mov	eax, OFFSET ??_C@_04HIOGLPHN@Plot?$AA@

; 284  : }

	pop	ebp
	ret	0
?GetTypeName@CvLuaPlot@@SAPBDXZ ENDP			; CvLuaPlot::GetTypeName
_TEXT	ENDS
PUBLIC	?GetInstance@?$CvLuaScopedInstance@VCvLuaPlot@@VCvPlot@@@@SAPAVCvPlot@@PAUlua_State@@H_N@Z ; CvLuaScopedInstance<CvLuaPlot,CvPlot>::GetInstance
EXTRN	_lua_pushboolean:PROC
EXTRN	?canHaveFeature@CvPlot@@QBE_NW4FeatureTypes@@@Z:PROC ; CvPlot::canHaveFeature
EXTRN	_lua_tointeger:PROC
; Function compile flags: /Odtp
;	COMDAT ?lCanHaveFeature@CvLuaPlot@@KAHPAUlua_State@@@Z
_TEXT	SEGMENT
_featureType$ = -12					; size = 4
_canHasFeature$ = -5					; size = 1
_pkPlot$ = -4						; size = 4
_L$ = 8							; size = 4
?lCanHaveFeature@CvLuaPlot@@KAHPAUlua_State@@@Z PROC	; CvLuaPlot::lCanHaveFeature, COMDAT

; 291  : {

	push	ebp
	mov	ebp, esp
	sub	esp, 12					; 0000000cH

; 292  : 	CvPlot* pkPlot = GetInstance(L);

	push	1
	push	1
	mov	eax, DWORD PTR _L$[ebp]
	push	eax
	call	?GetInstance@?$CvLuaScopedInstance@VCvLuaPlot@@VCvPlot@@@@SAPAVCvPlot@@PAUlua_State@@H_N@Z ; CvLuaScopedInstance<CvLuaPlot,CvPlot>::GetInstance
	add	esp, 12					; 0000000cH
	mov	DWORD PTR _pkPlot$[ebp], eax

; 293  : 
; 294  : 	const int featureType = lua_tointeger(L, 2);

	push	2
	mov	ecx, DWORD PTR _L$[ebp]
	push	ecx
	call	_lua_tointeger
	add	esp, 8
	mov	DWORD PTR _featureType$[ebp], eax

; 295  : 	const bool canHasFeature = pkPlot->canHaveFeature((FeatureTypes)featureType);

	mov	edx, DWORD PTR _featureType$[ebp]
	push	edx
	mov	ecx, DWORD PTR _pkPlot$[ebp]
	call	?canHaveFeature@CvPlot@@QBE_NW4FeatureTypes@@@Z ; CvPlot::canHaveFeature
	mov	BYTE PTR _canHasFeature$[ebp], al

; 296  : 
; 297  : 	lua_pushboolean(L, canHasFeature);

	movzx	eax, BYTE PTR _canHasFeature$[ebp]
	push	eax
	mov	ecx, DWORD PTR _L$[ebp]
	push	ecx
	call	_lua_pushboolean
	add	esp, 8

; 298  : 
; 299  : 	return 1;

	mov	eax, 1

; 300  : }

	mov	esp, ebp
	pop	ebp
	ret	0
?lCanHaveFeature@CvLuaPlot@@KAHPAUlua_State@@@Z ENDP	; CvLuaPlot::lCanHaveFeature
_TEXT	ENDS
EXTRN	_lua_pushinteger:PROC
; Function compile flags: /Odtp
;	COMDAT ?lGetFeatureType@CvLuaPlot@@KAHPAUlua_State@@@Z
_TEXT	SEGMENT
_f$223660 = -9						; size = 1
_featureType$ = -8					; size = 4
_pkPlot$ = -4						; size = 4
_L$ = 8							; size = 4
?lGetFeatureType@CvLuaPlot@@KAHPAUlua_State@@@Z PROC	; CvLuaPlot::lGetFeatureType, COMDAT

; 303  : {

	push	ebp
	mov	ebp, esp
	sub	esp, 12					; 0000000cH

; 304  : 	CvPlot* pkPlot = GetInstance(L);

	push	1
	push	1
	mov	eax, DWORD PTR _L$[ebp]
	push	eax
	call	?GetInstance@?$CvLuaScopedInstance@VCvLuaPlot@@VCvPlot@@@@SAPAVCvPlot@@PAUlua_State@@H_N@Z ; CvLuaScopedInstance<CvLuaPlot,CvPlot>::GetInstance
	add	esp, 12					; 0000000cH
	mov	DWORD PTR _pkPlot$[ebp], eax

; 305  : 
; 306  : 	const int featureType = (int)pkPlot->getFeatureType();

	mov	ecx, DWORD PTR _pkPlot$[ebp]
	mov	dl, BYTE PTR [ecx+432]
	mov	BYTE PTR _f$223660[ebp], dl
	movsx	eax, BYTE PTR _f$223660[ebp]
	mov	DWORD PTR _featureType$[ebp], eax

; 307  : 	lua_pushinteger(L, featureType);

	mov	ecx, DWORD PTR _featureType$[ebp]
	push	ecx
	mov	edx, DWORD PTR _L$[ebp]
	push	edx
	call	_lua_pushinteger
	add	esp, 8

; 308  : 
; 309  : 	return 1;

	mov	eax, 1

; 310  : }

	mov	esp, ebp
	pop	ebp
	ret	0
?lGetFeatureType@CvLuaPlot@@KAHPAUlua_State@@@Z ENDP	; CvLuaPlot::lGetFeatureType
; Function compile flags: /Odtp
_TEXT	ENDS
;	COMDAT ?lGetTerrainType@CvLuaPlot@@KAHPAUlua_State@@@Z
_TEXT	SEGMENT
_pkPlot$ = -4						; size = 4
_L$ = 8							; size = 4
?lGetTerrainType@CvLuaPlot@@KAHPAUlua_State@@@Z PROC	; CvLuaPlot::lGetTerrainType, COMDAT

; 313  : {

	push	ebp
	mov	ebp, esp
	push	ecx

; 314  : 	CvPlot* pkPlot = GetInstance(L);

	push	1
	push	1
	mov	eax, DWORD PTR _L$[ebp]
	push	eax
	call	?GetInstance@?$CvLuaScopedInstance@VCvLuaPlot@@VCvPlot@@@@SAPAVCvPlot@@PAUlua_State@@H_N@Z ; CvLuaScopedInstance<CvLuaPlot,CvPlot>::GetInstance
	add	esp, 12					; 0000000cH
	mov	DWORD PTR _pkPlot$[ebp], eax

; 315  : 
; 316  : 	lua_pushinteger(L, pkPlot->getTerrainType());

	mov	ecx, DWORD PTR _pkPlot$[ebp]
	movsx	edx, BYTE PTR [ecx+6]
	push	edx
	mov	eax, DWORD PTR _L$[ebp]
	push	eax
	call	_lua_pushinteger
	add	esp, 8

; 317  : 
; 318  : 	return 1;

	mov	eax, 1

; 319  : }

	mov	esp, ebp
	pop	ebp
	ret	0
?lGetTerrainType@CvLuaPlot@@KAHPAUlua_State@@@Z ENDP	; CvLuaPlot::lGetTerrainType
; Function compile flags: /Odtp
_TEXT	ENDS
;	COMDAT ?lIsRiver@CvLuaPlot@@KAHPAUlua_State@@@Z
_TEXT	SEGMENT
_pkPlot$ = -4						; size = 4
_L$ = 8							; size = 4
?lIsRiver@CvLuaPlot@@KAHPAUlua_State@@@Z PROC		; CvLuaPlot::lIsRiver, COMDAT

; 322  : {

	push	ebp
	mov	ebp, esp
	push	ecx

; 323  : 	CvPlot* pkPlot = GetInstance(L);

	push	1
	push	1
	mov	eax, DWORD PTR _L$[ebp]
	push	eax
	call	?GetInstance@?$CvLuaScopedInstance@VCvLuaPlot@@VCvPlot@@@@SAPAVCvPlot@@PAUlua_State@@H_N@Z ; CvLuaScopedInstance<CvLuaPlot,CvPlot>::GetInstance
	add	esp, 12					; 0000000cH
	mov	DWORD PTR _pkPlot$[ebp], eax

; 324  : 
; 325  : 	lua_pushboolean(L, pkPlot->isRiver());

	mov	ecx, DWORD PTR _pkPlot$[ebp]
	movsx	edx, BYTE PTR [ecx+457]
	xor	eax, eax
	test	edx, edx
	setg	al
	movzx	ecx, al
	push	ecx
	mov	edx, DWORD PTR _L$[ebp]
	push	edx
	call	_lua_pushboolean
	add	esp, 8

; 326  : 
; 327  : 	return 1;

	mov	eax, 1

; 328  : }

	mov	esp, ebp
	pop	ebp
	ret	0
?lIsRiver@CvLuaPlot@@KAHPAUlua_State@@@Z ENDP		; CvLuaPlot::lIsRiver
; Function compile flags: /Odtp
_TEXT	ENDS
;	COMDAT ?lIsWater@CvLuaPlot@@KAHPAUlua_State@@@Z
_TEXT	SEGMENT
_pkPlot$ = -4						; size = 4
_L$ = 8							; size = 4
?lIsWater@CvLuaPlot@@KAHPAUlua_State@@@Z PROC		; CvLuaPlot::lIsWater, COMDAT

; 331  : {

	push	ebp
	mov	ebp, esp
	push	ecx

; 332  : 	CvPlot* pkPlot = GetInstance(L);

	push	1
	push	1
	mov	eax, DWORD PTR _L$[ebp]
	push	eax
	call	?GetInstance@?$CvLuaScopedInstance@VCvLuaPlot@@VCvPlot@@@@SAPAVCvPlot@@PAUlua_State@@H_N@Z ; CvLuaScopedInstance<CvLuaPlot,CvPlot>::GetInstance
	add	esp, 12					; 0000000cH
	mov	DWORD PTR _pkPlot$[ebp], eax

; 333  : 
; 334  : 	lua_pushboolean(L, pkPlot->isWater());

	mov	ecx, DWORD PTR _pkPlot$[ebp]
	movsx	edx, BYTE PTR [ecx+5]
	xor	eax, eax
	cmp	edx, 3
	sete	al
	movzx	ecx, al
	push	ecx
	mov	edx, DWORD PTR _L$[ebp]
	push	edx
	call	_lua_pushboolean
	add	esp, 8

; 335  : 
; 336  : 	return 1;

	mov	eax, 1

; 337  : }

	mov	esp, ebp
	pop	ebp
	ret	0
?lIsWater@CvLuaPlot@@KAHPAUlua_State@@@Z ENDP		; CvLuaPlot::lIsWater
_TEXT	ENDS
EXTRN	?setFeatureType@CvPlot@@QAEXW4FeatureTypes@@H@Z:PROC ; CvPlot::setFeatureType
EXTRN	_luaL_optinteger:PROC
; Function compile flags: /Odtp
;	COMDAT ?lSetFeatureType@CvLuaPlot@@KAHPAUlua_State@@@Z
_TEXT	SEGMENT
_featureType$ = -12					; size = 4
_variety$ = -8						; size = 4
_pkPlot$ = -4						; size = 4
_L$ = 8							; size = 4
?lSetFeatureType@CvLuaPlot@@KAHPAUlua_State@@@Z PROC	; CvLuaPlot::lSetFeatureType, COMDAT

; 340  : {

	push	ebp
	mov	ebp, esp
	sub	esp, 12					; 0000000cH

; 341  : 	CvPlot* pkPlot = GetInstance(L);

	push	1
	push	1
	mov	eax, DWORD PTR _L$[ebp]
	push	eax
	call	?GetInstance@?$CvLuaScopedInstance@VCvLuaPlot@@VCvPlot@@@@SAPAVCvPlot@@PAUlua_State@@H_N@Z ; CvLuaScopedInstance<CvLuaPlot,CvPlot>::GetInstance
	add	esp, 12					; 0000000cH
	mov	DWORD PTR _pkPlot$[ebp], eax

; 342  : 
; 343  : 	const int featureType = lua_tointeger(L, 2);

	push	2
	mov	ecx, DWORD PTR _L$[ebp]
	push	ecx
	call	_lua_tointeger
	add	esp, 8
	mov	DWORD PTR _featureType$[ebp], eax

; 344  : 	const int variety = luaL_optinteger(L, 3, -1);

	push	-1
	push	3
	mov	edx, DWORD PTR _L$[ebp]
	push	edx
	call	_luaL_optinteger
	add	esp, 12					; 0000000cH
	mov	DWORD PTR _variety$[ebp], eax

; 345  : 
; 346  : 
; 347  : 	pkPlot->setFeatureType((FeatureTypes)featureType, variety);

	mov	eax, DWORD PTR _variety$[ebp]
	push	eax
	mov	ecx, DWORD PTR _featureType$[ebp]
	push	ecx
	mov	ecx, DWORD PTR _pkPlot$[ebp]
	call	?setFeatureType@CvPlot@@QAEXW4FeatureTypes@@H@Z ; CvPlot::setFeatureType

; 348  : 
; 349  : 	return 0;

	xor	eax, eax

; 350  : }

	mov	esp, ebp
	pop	ebp
	ret	0
?lSetFeatureType@CvLuaPlot@@KAHPAUlua_State@@@Z ENDP	; CvLuaPlot::lSetFeatureType
_TEXT	ENDS
EXTRN	?setTerrainType@CvPlot@@QAEXW4TerrainTypes@@_N1@Z:PROC ; CvPlot::setTerrainType
EXTRN	_lua_toboolean:PROC
; Function compile flags: /Odtp
;	COMDAT ?lSetTerrainType@CvLuaPlot@@KAHPAUlua_State@@@Z
_TEXT	SEGMENT
_terrainType$ = -16					; size = 4
_bRebuildGraphics$ = -9					; size = 1
_pkPlot$ = -8						; size = 4
_bRecalculate$ = -1					; size = 1
_L$ = 8							; size = 4
?lSetTerrainType@CvLuaPlot@@KAHPAUlua_State@@@Z PROC	; CvLuaPlot::lSetTerrainType, COMDAT

; 353  : {

	push	ebp
	mov	ebp, esp
	sub	esp, 16					; 00000010H

; 354  : 	CvPlot* pkPlot = GetInstance(L);

	push	1
	push	1
	mov	eax, DWORD PTR _L$[ebp]
	push	eax
	call	?GetInstance@?$CvLuaScopedInstance@VCvLuaPlot@@VCvPlot@@@@SAPAVCvPlot@@PAUlua_State@@H_N@Z ; CvLuaScopedInstance<CvLuaPlot,CvPlot>::GetInstance
	add	esp, 12					; 0000000cH
	mov	DWORD PTR _pkPlot$[ebp], eax

; 355  : 
; 356  : 	const int terrainType = lua_tointeger(L, 2);

	push	2
	mov	ecx, DWORD PTR _L$[ebp]
	push	ecx
	call	_lua_tointeger
	add	esp, 8
	mov	DWORD PTR _terrainType$[ebp], eax

; 357  : 	const bool bRecalculate = lua_toboolean(L, 3);

	push	3
	mov	edx, DWORD PTR _L$[ebp]
	push	edx
	call	_lua_toboolean
	add	esp, 8
	test	eax, eax
	setne	al
	mov	BYTE PTR _bRecalculate$[ebp], al

; 358  : 	const bool bRebuildGraphics = lua_toboolean(L, 4);

	push	4
	mov	ecx, DWORD PTR _L$[ebp]
	push	ecx
	call	_lua_toboolean
	add	esp, 8
	test	eax, eax
	setne	dl
	mov	BYTE PTR _bRebuildGraphics$[ebp], dl

; 359  : 
; 360  : 	pkPlot->setTerrainType((TerrainTypes)terrainType, bRecalculate, bRebuildGraphics);

	movzx	eax, BYTE PTR _bRebuildGraphics$[ebp]
	push	eax
	movzx	ecx, BYTE PTR _bRecalculate$[ebp]
	push	ecx
	mov	edx, DWORD PTR _terrainType$[ebp]
	push	edx
	mov	ecx, DWORD PTR _pkPlot$[ebp]
	call	?setTerrainType@CvPlot@@QAEXW4TerrainTypes@@_N1@Z ; CvPlot::setTerrainType

; 361  : 
; 362  : 	return 0;

	xor	eax, eax

; 363  : }

	mov	esp, ebp
	pop	ebp
	ret	0
?lSetTerrainType@CvLuaPlot@@KAHPAUlua_State@@@Z ENDP	; CvLuaPlot::lSetTerrainType
; Function compile flags: /Odtp
_TEXT	ENDS
;	COMDAT ?lIsNone@CvLuaPlot@@KAHPAUlua_State@@@Z
_TEXT	SEGMENT
_bDoesNotExist$ = -1					; size = 1
_L$ = 8							; size = 4
?lIsNone@CvLuaPlot@@KAHPAUlua_State@@@Z PROC		; CvLuaPlot::lIsNone, COMDAT

; 374  : {

	push	ebp
	mov	ebp, esp
	push	ecx

; 375  : #ifdef AUI_WARNING_FIXES
; 376  : 	const bool bDoesNotExist = (GetInstance(L, 1, false) == NULL);
; 377  : 	lua_pushboolean(L, bDoesNotExist ? 1 : 0);
; 378  : #else
; 379  : 	const bool bDoesNotExist = (GetInstance(L, false) == NULL);

	push	1
	push	0
	mov	eax, DWORD PTR _L$[ebp]
	push	eax
	call	?GetInstance@?$CvLuaScopedInstance@VCvLuaPlot@@VCvPlot@@@@SAPAVCvPlot@@PAUlua_State@@H_N@Z ; CvLuaScopedInstance<CvLuaPlot,CvPlot>::GetInstance
	add	esp, 12					; 0000000cH
	test	eax, eax
	sete	cl
	mov	BYTE PTR _bDoesNotExist$[ebp], cl

; 380  : 	lua_pushboolean(L, bDoesNotExist);

	movzx	edx, BYTE PTR _bDoesNotExist$[ebp]
	push	edx
	mov	eax, DWORD PTR _L$[ebp]
	push	eax
	call	_lua_pushboolean
	add	esp, 8

; 381  : #endif
; 382  : 
; 383  : 	return 1;

	mov	eax, 1

; 384  : }

	mov	esp, ebp
	pop	ebp
	ret	0
?lIsNone@CvLuaPlot@@KAHPAUlua_State@@@Z ENDP		; CvLuaPlot::lIsNone
_TEXT	ENDS
PUBLIC	??$BasicLuaMethod@_N@?$CvLuaMethodWrapper@VCvLuaPlot@@VCvPlot@@@@KAHPAUlua_State@@P8CvPlot@@AEX_N@Z@Z ; CvLuaMethodWrapper<CvLuaPlot,CvPlot>::BasicLuaMethod<bool>
EXTRN	?erase@CvPlot@@QAEX_N@Z:PROC			; CvPlot::erase
; Function compile flags: /Odtp
;	COMDAT ?lErase@CvLuaPlot@@KAHPAUlua_State@@@Z
_TEXT	SEGMENT
_L$ = 8							; size = 4
?lErase@CvLuaPlot@@KAHPAUlua_State@@@Z PROC		; CvLuaPlot::lErase, COMDAT

; 388  : {

	push	ebp
	mov	ebp, esp

; 389  : 	return BasicLuaMethod(L, &CvPlot::erase);

	push	OFFSET ?erase@CvPlot@@QAEX_N@Z		; CvPlot::erase
	mov	eax, DWORD PTR _L$[ebp]
	push	eax
	call	??$BasicLuaMethod@_N@?$CvLuaMethodWrapper@VCvLuaPlot@@VCvPlot@@@@KAHPAUlua_State@@P8CvPlot@@AEX_N@Z@Z ; CvLuaMethodWrapper<CvLuaPlot,CvPlot>::BasicLuaMethod<bool>
	add	esp, 8

; 390  : }

	pop	ebp
	ret	0
?lErase@CvLuaPlot@@KAHPAUlua_State@@@Z ENDP		; CvLuaPlot::lErase
_TEXT	ENDS
PUBLIC	??$BasicLuaMethod@W4TeamTypes@@@?$CvLuaMethodWrapper@VCvLuaPlot@@VCvPlot@@@@KAHPAUlua_State@@P8CvPlot@@BE?AW4TeamTypes@@XZ@Z ; CvLuaMethodWrapper<CvLuaPlot,CvPlot>::BasicLuaMethod<enum TeamTypes>
PUBLIC	?getTeam@CvPlot@@QBE?AW4TeamTypes@@XZ		; CvPlot::getTeam
; Function compile flags: /Odtp
;	COMDAT ?lGetTeam@CvLuaPlot@@KAHPAUlua_State@@@Z
_TEXT	SEGMENT
_L$ = 8							; size = 4
?lGetTeam@CvLuaPlot@@KAHPAUlua_State@@@Z PROC		; CvLuaPlot::lGetTeam, COMDAT

; 395  : {

	push	ebp
	mov	ebp, esp

; 396  : 	return BasicLuaMethod(L, &CvPlot::getTeam);

	push	OFFSET ?getTeam@CvPlot@@QBE?AW4TeamTypes@@XZ ; CvPlot::getTeam
	mov	eax, DWORD PTR _L$[ebp]
	push	eax
	call	??$BasicLuaMethod@W4TeamTypes@@@?$CvLuaMethodWrapper@VCvLuaPlot@@VCvPlot@@@@KAHPAUlua_State@@P8CvPlot@@BE?AW4TeamTypes@@XZ@Z ; CvLuaMethodWrapper<CvLuaPlot,CvPlot>::BasicLuaMethod<enum TeamTypes>
	add	esp, 8

; 397  : }

	pop	ebp
	ret	0
?lGetTeam@CvLuaPlot@@KAHPAUlua_State@@@Z ENDP		; CvLuaPlot::lGetTeam
_TEXT	ENDS
PUBLIC	??$BasicLuaMethod@HPAVCvUnit@@@?$CvLuaMethodWrapper@VCvLuaPlot@@VCvPlot@@@@KAHPAUlua_State@@P8CvPlot@@AEXHPAVCvUnit@@@Z@Z ; CvLuaMethodWrapper<CvLuaPlot,CvPlot>::BasicLuaMethod<int,CvUnit *>
EXTRN	?nukeExplosion@CvPlot@@QAEXHPAVCvUnit@@@Z:PROC	; CvPlot::nukeExplosion
; Function compile flags: /Odtp
;	COMDAT ?lNukeExplosion@CvLuaPlot@@KAHPAUlua_State@@@Z
_TEXT	SEGMENT
_L$ = 8							; size = 4
?lNukeExplosion@CvLuaPlot@@KAHPAUlua_State@@@Z PROC	; CvLuaPlot::lNukeExplosion, COMDAT

; 402  : {

	push	ebp
	mov	ebp, esp

; 403  : 	return BasicLuaMethod(L, &CvPlot::nukeExplosion);

	push	OFFSET ?nukeExplosion@CvPlot@@QAEXHPAVCvUnit@@@Z ; CvPlot::nukeExplosion
	mov	eax, DWORD PTR _L$[ebp]
	push	eax
	call	??$BasicLuaMethod@HPAVCvUnit@@@?$CvLuaMethodWrapper@VCvLuaPlot@@VCvPlot@@@@KAHPAUlua_State@@P8CvPlot@@AEXHPAVCvUnit@@@Z@Z ; CvLuaMethodWrapper<CvLuaPlot,CvPlot>::BasicLuaMethod<int,CvUnit *>
	add	esp, 8

; 404  : }

	pop	ebp
	ret	0
?lNukeExplosion@CvLuaPlot@@KAHPAUlua_State@@@Z ENDP	; CvLuaPlot::lNukeExplosion
_TEXT	ENDS
EXTRN	?updateFog@CvPlot@@QAEX_N@Z:PROC		; CvPlot::updateFog
; Function compile flags: /Odtp
;	COMDAT ?lUpdateFog@CvLuaPlot@@KAHPAUlua_State@@@Z
_TEXT	SEGMENT
_L$ = 8							; size = 4
?lUpdateFog@CvLuaPlot@@KAHPAUlua_State@@@Z PROC		; CvLuaPlot::lUpdateFog, COMDAT

; 409  : {

	push	ebp
	mov	ebp, esp

; 410  : 	return BasicLuaMethod(L, &CvPlot::updateFog);

	push	OFFSET ?updateFog@CvPlot@@QAEX_N@Z	; CvPlot::updateFog
	mov	eax, DWORD PTR _L$[ebp]
	push	eax
	call	??$BasicLuaMethod@_N@?$CvLuaMethodWrapper@VCvLuaPlot@@VCvPlot@@@@KAHPAUlua_State@@P8CvPlot@@AEX_N@Z@Z ; CvLuaMethodWrapper<CvLuaPlot,CvPlot>::BasicLuaMethod<bool>
	add	esp, 8

; 411  : }

	pop	ebp
	ret	0
?lUpdateFog@CvLuaPlot@@KAHPAUlua_State@@@Z ENDP		; CvLuaPlot::lUpdateFog
_TEXT	ENDS
PUBLIC	?BasicLuaMethod@?$CvLuaMethodWrapper@VCvLuaPlot@@VCvPlot@@@@KAHPAUlua_State@@P8CvPlot@@AEXXZ@Z ; CvLuaMethodWrapper<CvLuaPlot,CvPlot>::BasicLuaMethod
EXTRN	?updateVisibility@CvPlot@@QAEXXZ:PROC		; CvPlot::updateVisibility
; Function compile flags: /Odtp
;	COMDAT ?lUpdateVisibility@CvLuaPlot@@KAHPAUlua_State@@@Z
_TEXT	SEGMENT
_L$ = 8							; size = 4
?lUpdateVisibility@CvLuaPlot@@KAHPAUlua_State@@@Z PROC	; CvLuaPlot::lUpdateVisibility, COMDAT

; 416  : {

	push	ebp
	mov	ebp, esp

; 417  : 	return BasicLuaMethod(L, &CvPlot::updateVisibility);

	push	OFFSET ?updateVisibility@CvPlot@@QAEXXZ	; CvPlot::updateVisibility
	mov	eax, DWORD PTR _L$[ebp]
	push	eax
	call	?BasicLuaMethod@?$CvLuaMethodWrapper@VCvLuaPlot@@VCvPlot@@@@KAHPAUlua_State@@P8CvPlot@@AEXXZ@Z ; CvLuaMethodWrapper<CvLuaPlot,CvPlot>::BasicLuaMethod
	add	esp, 8

; 418  : }

	pop	ebp
	ret	0
?lUpdateVisibility@CvLuaPlot@@KAHPAUlua_State@@@Z ENDP	; CvLuaPlot::lUpdateVisibility
_TEXT	ENDS
PUBLIC	?GetInstance@?$CvLuaScopedInstance@VCvLuaArea@@VCvArea@@@@SAPAVCvArea@@PAUlua_State@@H_N@Z ; CvLuaScopedInstance<CvLuaArea,CvArea>::GetInstance
EXTRN	?isAdjacentToArea@CvPlot@@QBE_NPBVCvArea@@@Z:PROC ; CvPlot::isAdjacentToArea
; Function compile flags: /Odtp
;	COMDAT ?lIsAdjacentToArea@CvLuaPlot@@KAHPAUlua_State@@@Z
_TEXT	SEGMENT
_bResult$ = -9						; size = 1
_pkArea$ = -8						; size = 4
_pkPlot$ = -4						; size = 4
_L$ = 8							; size = 4
?lIsAdjacentToArea@CvLuaPlot@@KAHPAUlua_State@@@Z PROC	; CvLuaPlot::lIsAdjacentToArea, COMDAT

; 422  : {

	push	ebp
	mov	ebp, esp
	sub	esp, 12					; 0000000cH

; 423  : 	CvPlot* pkPlot = GetInstance(L);

	push	1
	push	1
	mov	eax, DWORD PTR _L$[ebp]
	push	eax
	call	?GetInstance@?$CvLuaScopedInstance@VCvLuaPlot@@VCvPlot@@@@SAPAVCvPlot@@PAUlua_State@@H_N@Z ; CvLuaScopedInstance<CvLuaPlot,CvPlot>::GetInstance
	add	esp, 12					; 0000000cH
	mov	DWORD PTR _pkPlot$[ebp], eax

; 424  : 	CvArea* pkArea = CvLuaArea::GetInstance(L, 2);

	push	1
	push	2
	mov	ecx, DWORD PTR _L$[ebp]
	push	ecx
	call	?GetInstance@?$CvLuaScopedInstance@VCvLuaArea@@VCvArea@@@@SAPAVCvArea@@PAUlua_State@@H_N@Z ; CvLuaScopedInstance<CvLuaArea,CvArea>::GetInstance
	add	esp, 12					; 0000000cH
	mov	DWORD PTR _pkArea$[ebp], eax

; 425  : 
; 426  : 	const bool bResult = pkPlot->isAdjacentToArea(pkArea);

	mov	edx, DWORD PTR _pkArea$[ebp]
	push	edx
	mov	ecx, DWORD PTR _pkPlot$[ebp]
	call	?isAdjacentToArea@CvPlot@@QBE_NPBVCvArea@@@Z ; CvPlot::isAdjacentToArea
	mov	BYTE PTR _bResult$[ebp], al

; 427  : 	lua_pushboolean(L, bResult);

	movzx	eax, BYTE PTR _bResult$[ebp]
	push	eax
	mov	ecx, DWORD PTR _L$[ebp]
	push	ecx
	call	_lua_pushboolean
	add	esp, 8

; 428  : 
; 429  : 	return 1;

	mov	eax, 1

; 430  : }

	mov	esp, ebp
	pop	ebp
	ret	0
?lIsAdjacentToArea@CvLuaPlot@@KAHPAUlua_State@@@Z ENDP	; CvLuaPlot::lIsAdjacentToArea
_TEXT	ENDS
EXTRN	?shareAdjacentArea@CvPlot@@QBE_NPBV1@@Z:PROC	; CvPlot::shareAdjacentArea
; Function compile flags: /Odtp
;	COMDAT ?lShareAdjacentArea@CvLuaPlot@@KAHPAUlua_State@@@Z
_TEXT	SEGMENT
_bResult$ = -9						; size = 1
_pkPlot2$ = -8						; size = 4
_pkPlot$ = -4						; size = 4
_L$ = 8							; size = 4
?lShareAdjacentArea@CvLuaPlot@@KAHPAUlua_State@@@Z PROC	; CvLuaPlot::lShareAdjacentArea, COMDAT

; 434  : {

	push	ebp
	mov	ebp, esp
	sub	esp, 12					; 0000000cH

; 435  : 	CvPlot* pkPlot = GetInstance(L);

	push	1
	push	1
	mov	eax, DWORD PTR _L$[ebp]
	push	eax
	call	?GetInstance@?$CvLuaScopedInstance@VCvLuaPlot@@VCvPlot@@@@SAPAVCvPlot@@PAUlua_State@@H_N@Z ; CvLuaScopedInstance<CvLuaPlot,CvPlot>::GetInstance
	add	esp, 12					; 0000000cH
	mov	DWORD PTR _pkPlot$[ebp], eax

; 436  : 	CvPlot* pkPlot2 = GetInstance(L, 2);

	push	1
	push	2
	mov	ecx, DWORD PTR _L$[ebp]
	push	ecx
	call	?GetInstance@?$CvLuaScopedInstance@VCvLuaPlot@@VCvPlot@@@@SAPAVCvPlot@@PAUlua_State@@H_N@Z ; CvLuaScopedInstance<CvLuaPlot,CvPlot>::GetInstance
	add	esp, 12					; 0000000cH
	mov	DWORD PTR _pkPlot2$[ebp], eax

; 437  : 
; 438  : 	const bool bResult = pkPlot->shareAdjacentArea(pkPlot2);

	mov	edx, DWORD PTR _pkPlot2$[ebp]
	push	edx
	mov	ecx, DWORD PTR _pkPlot$[ebp]
	call	?shareAdjacentArea@CvPlot@@QBE_NPBV1@@Z	; CvPlot::shareAdjacentArea
	mov	BYTE PTR _bResult$[ebp], al

; 439  : 	lua_pushboolean(L, bResult);

	movzx	eax, BYTE PTR _bResult$[ebp]
	push	eax
	mov	ecx, DWORD PTR _L$[ebp]
	push	ecx
	call	_lua_pushboolean
	add	esp, 8

; 440  : 
; 441  : 	return 1;

	mov	eax, 1

; 442  : }

	mov	esp, ebp
	pop	ebp
	ret	0
?lShareAdjacentArea@CvLuaPlot@@KAHPAUlua_State@@@Z ENDP	; CvLuaPlot::lShareAdjacentArea
_TEXT	ENDS
PUBLIC	??$BasicLuaMethod@_N@?$CvLuaMethodWrapper@VCvLuaPlot@@VCvPlot@@@@KAHPAUlua_State@@P8CvPlot@@BE_NXZ@Z ; CvLuaMethodWrapper<CvLuaPlot,CvPlot>::BasicLuaMethod<bool>
EXTRN	?isAdjacentToLand@CvPlot@@QBE_NXZ:PROC		; CvPlot::isAdjacentToLand
; Function compile flags: /Odtp
;	COMDAT ?lIsAdjacentToLand@CvLuaPlot@@KAHPAUlua_State@@@Z
_TEXT	SEGMENT
_L$ = 8							; size = 4
?lIsAdjacentToLand@CvLuaPlot@@KAHPAUlua_State@@@Z PROC	; CvLuaPlot::lIsAdjacentToLand, COMDAT

; 446  : {

	push	ebp
	mov	ebp, esp

; 447  : 	return BasicLuaMethod(L, &CvPlot::isAdjacentToLand);

	push	OFFSET ?isAdjacentToLand@CvPlot@@QBE_NXZ ; CvPlot::isAdjacentToLand
	mov	eax, DWORD PTR _L$[ebp]
	push	eax
	call	??$BasicLuaMethod@_N@?$CvLuaMethodWrapper@VCvLuaPlot@@VCvPlot@@@@KAHPAUlua_State@@P8CvPlot@@BE_NXZ@Z ; CvLuaMethodWrapper<CvLuaPlot,CvPlot>::BasicLuaMethod<bool>
	add	esp, 8

; 448  : }

	pop	ebp
	ret	0
?lIsAdjacentToLand@CvLuaPlot@@KAHPAUlua_State@@@Z ENDP	; CvLuaPlot::lIsAdjacentToLand
_TEXT	ENDS
EXTRN	?isAdjacentToShallowWater@CvPlot@@QBE_NXZ:PROC	; CvPlot::isAdjacentToShallowWater
; Function compile flags: /Odtp
;	COMDAT ?lIsAdjacentToShallowWater@CvLuaPlot@@KAHPAUlua_State@@@Z
_TEXT	SEGMENT
_L$ = 8							; size = 4
?lIsAdjacentToShallowWater@CvLuaPlot@@KAHPAUlua_State@@@Z PROC ; CvLuaPlot::lIsAdjacentToShallowWater, COMDAT

; 452  : {

	push	ebp
	mov	ebp, esp

; 453  : 	return BasicLuaMethod(L, &CvPlot::isAdjacentToShallowWater);

	push	OFFSET ?isAdjacentToShallowWater@CvPlot@@QBE_NXZ ; CvPlot::isAdjacentToShallowWater
	mov	eax, DWORD PTR _L$[ebp]
	push	eax
	call	??$BasicLuaMethod@_N@?$CvLuaMethodWrapper@VCvLuaPlot@@VCvPlot@@@@KAHPAUlua_State@@P8CvPlot@@BE_NXZ@Z ; CvLuaMethodWrapper<CvLuaPlot,CvPlot>::BasicLuaMethod<bool>
	add	esp, 8

; 454  : }

	pop	ebp
	ret	0
?lIsAdjacentToShallowWater@CvLuaPlot@@KAHPAUlua_State@@@Z ENDP ; CvLuaPlot::lIsAdjacentToShallowWater
_TEXT	ENDS
PUBLIC	??$BasicLuaMethod@_NH@?$CvLuaMethodWrapper@VCvLuaPlot@@VCvPlot@@@@KAHPAUlua_State@@P8CvPlot@@BE_NH@Z@Z ; CvLuaMethodWrapper<CvLuaPlot,CvPlot>::BasicLuaMethod<bool,int>
EXTRN	?isCoastalLand@CvPlot@@QBE_NH@Z:PROC		; CvPlot::isCoastalLand
; Function compile flags: /Odtp
;	COMDAT ?lIsCoastalLand@CvLuaPlot@@KAHPAUlua_State@@@Z
_TEXT	SEGMENT
_L$ = 8							; size = 4
?lIsCoastalLand@CvLuaPlot@@KAHPAUlua_State@@@Z PROC	; CvLuaPlot::lIsCoastalLand, COMDAT

; 458  : {

	push	ebp
	mov	ebp, esp

; 459  : 	return BasicLuaMethod(L, &CvPlot::isCoastalLand);

	push	OFFSET ?isCoastalLand@CvPlot@@QBE_NH@Z	; CvPlot::isCoastalLand
	mov	eax, DWORD PTR _L$[ebp]
	push	eax
	call	??$BasicLuaMethod@_NH@?$CvLuaMethodWrapper@VCvLuaPlot@@VCvPlot@@@@KAHPAUlua_State@@P8CvPlot@@BE_NH@Z@Z ; CvLuaMethodWrapper<CvLuaPlot,CvPlot>::BasicLuaMethod<bool,int>
	add	esp, 8

; 460  : }

	pop	ebp
	ret	0
?lIsCoastalLand@CvLuaPlot@@KAHPAUlua_State@@@Z ENDP	; CvLuaPlot::lIsCoastalLand
_TEXT	ENDS
PUBLIC	??$BasicLuaMethod@_NW4TeamTypes@@W4PlayerTypes@@@?$CvLuaMethodWrapper@VCvLuaPlot@@VCvPlot@@@@KAHPAUlua_State@@P8CvPlot@@BE_NW4TeamTypes@@W4PlayerTypes@@@Z@Z ; CvLuaMethodWrapper<CvLuaPlot,CvPlot>::BasicLuaMethod<bool,enum TeamTypes,enum PlayerTypes>
EXTRN	?isWithinTeamCityRadius@CvPlot@@QBE_NW4TeamTypes@@W4PlayerTypes@@@Z:PROC ; CvPlot::isWithinTeamCityRadius
; Function compile flags: /Odtp
;	COMDAT ?lIsWithinTeamCityRadius@CvLuaPlot@@KAHPAUlua_State@@@Z
_TEXT	SEGMENT
_L$ = 8							; size = 4
?lIsWithinTeamCityRadius@CvLuaPlot@@KAHPAUlua_State@@@Z PROC ; CvLuaPlot::lIsWithinTeamCityRadius, COMDAT

; 465  : {

	push	ebp
	mov	ebp, esp

; 466  : 	return BasicLuaMethod(L, &CvPlot::isWithinTeamCityRadius);

	push	OFFSET ?isWithinTeamCityRadius@CvPlot@@QBE_NW4TeamTypes@@W4PlayerTypes@@@Z ; CvPlot::isWithinTeamCityRadius
	mov	eax, DWORD PTR _L$[ebp]
	push	eax
	call	??$BasicLuaMethod@_NW4TeamTypes@@W4PlayerTypes@@@?$CvLuaMethodWrapper@VCvLuaPlot@@VCvPlot@@@@KAHPAUlua_State@@P8CvPlot@@BE_NW4TeamTypes@@W4PlayerTypes@@@Z@Z ; CvLuaMethodWrapper<CvLuaPlot,CvPlot>::BasicLuaMethod<bool,enum TeamTypes,enum PlayerTypes>
	add	esp, 8

; 467  : }

	pop	ebp
	ret	0
?lIsWithinTeamCityRadius@CvLuaPlot@@KAHPAUlua_State@@@Z ENDP ; CvLuaPlot::lIsWithinTeamCityRadius
_TEXT	ENDS
EXTRN	?isLake@CvPlot@@QBE_NXZ:PROC			; CvPlot::isLake
; Function compile flags: /Odtp
;	COMDAT ?lIsLake@CvLuaPlot@@KAHPAUlua_State@@@Z
_TEXT	SEGMENT
_L$ = 8							; size = 4
?lIsLake@CvLuaPlot@@KAHPAUlua_State@@@Z PROC		; CvLuaPlot::lIsLake, COMDAT

; 471  : {

	push	ebp
	mov	ebp, esp

; 472  : 	return BasicLuaMethod(L, &CvPlot::isLake);

	push	OFFSET ?isLake@CvPlot@@QBE_NXZ		; CvPlot::isLake
	mov	eax, DWORD PTR _L$[ebp]
	push	eax
	call	??$BasicLuaMethod@_N@?$CvLuaMethodWrapper@VCvLuaPlot@@VCvPlot@@@@KAHPAUlua_State@@P8CvPlot@@BE_NXZ@Z ; CvLuaMethodWrapper<CvLuaPlot,CvPlot>::BasicLuaMethod<bool>
	add	esp, 8

; 473  : }

	pop	ebp
	ret	0
?lIsLake@CvLuaPlot@@KAHPAUlua_State@@@Z ENDP		; CvLuaPlot::lIsLake
_TEXT	ENDS
EXTRN	?isFreshWater@CvPlot@@QBE_NXZ:PROC		; CvPlot::isFreshWater
; Function compile flags: /Odtp
;	COMDAT ?lIsFreshWater@CvLuaPlot@@KAHPAUlua_State@@@Z
_TEXT	SEGMENT
_L$ = 8							; size = 4
?lIsFreshWater@CvLuaPlot@@KAHPAUlua_State@@@Z PROC	; CvLuaPlot::lIsFreshWater, COMDAT

; 477  : {

	push	ebp
	mov	ebp, esp

; 478  : 	return BasicLuaMethod(L, &CvPlot::isFreshWater);

	push	OFFSET ?isFreshWater@CvPlot@@QBE_NXZ	; CvPlot::isFreshWater
	mov	eax, DWORD PTR _L$[ebp]
	push	eax
	call	??$BasicLuaMethod@_N@?$CvLuaMethodWrapper@VCvLuaPlot@@VCvPlot@@@@KAHPAUlua_State@@P8CvPlot@@BE_NXZ@Z ; CvLuaMethodWrapper<CvLuaPlot,CvPlot>::BasicLuaMethod<bool>
	add	esp, 8

; 479  : }

	pop	ebp
	ret	0
?lIsFreshWater@CvLuaPlot@@KAHPAUlua_State@@@Z ENDP	; CvLuaPlot::lIsFreshWater
_TEXT	ENDS
EXTRN	?isRiverSide@CvPlot@@QBE_NXZ:PROC		; CvPlot::isRiverSide
; Function compile flags: /Odtp
;	COMDAT ?lIsRiverSide@CvLuaPlot@@KAHPAUlua_State@@@Z
_TEXT	SEGMENT
_L$ = 8							; size = 4
?lIsRiverSide@CvLuaPlot@@KAHPAUlua_State@@@Z PROC	; CvLuaPlot::lIsRiverSide, COMDAT

; 484  : {

	push	ebp
	mov	ebp, esp

; 485  : 	return BasicLuaMethod(L, &CvPlot::isRiverSide);

	push	OFFSET ?isRiverSide@CvPlot@@QBE_NXZ	; CvPlot::isRiverSide
	mov	eax, DWORD PTR _L$[ebp]
	push	eax
	call	??$BasicLuaMethod@_N@?$CvLuaMethodWrapper@VCvLuaPlot@@VCvPlot@@@@KAHPAUlua_State@@P8CvPlot@@BE_NXZ@Z ; CvLuaMethodWrapper<CvLuaPlot,CvPlot>::BasicLuaMethod<bool>
	add	esp, 8

; 486  : }

	pop	ebp
	ret	0
?lIsRiverSide@CvLuaPlot@@KAHPAUlua_State@@@Z ENDP	; CvLuaPlot::lIsRiverSide
_TEXT	ENDS
PUBLIC	??$BasicLuaMethod@_NW4DirectionTypes@@@?$CvLuaMethodWrapper@VCvLuaPlot@@VCvPlot@@@@KAHPAUlua_State@@P8CvPlot@@BE_NW4DirectionTypes@@@Z@Z ; CvLuaMethodWrapper<CvLuaPlot,CvPlot>::BasicLuaMethod<bool,enum DirectionTypes>
EXTRN	?isRiverConnection@CvPlot@@QBE_NW4DirectionTypes@@@Z:PROC ; CvPlot::isRiverConnection
; Function compile flags: /Odtp
;	COMDAT ?lIsRiverConnection@CvLuaPlot@@KAHPAUlua_State@@@Z
_TEXT	SEGMENT
_L$ = 8							; size = 4
?lIsRiverConnection@CvLuaPlot@@KAHPAUlua_State@@@Z PROC	; CvLuaPlot::lIsRiverConnection, COMDAT

; 490  : {

	push	ebp
	mov	ebp, esp

; 491  : 	return BasicLuaMethod(L, &CvPlot::isRiverConnection);

	push	OFFSET ?isRiverConnection@CvPlot@@QBE_NW4DirectionTypes@@@Z ; CvPlot::isRiverConnection
	mov	eax, DWORD PTR _L$[ebp]
	push	eax
	call	??$BasicLuaMethod@_NW4DirectionTypes@@@?$CvLuaMethodWrapper@VCvLuaPlot@@VCvPlot@@@@KAHPAUlua_State@@P8CvPlot@@BE_NW4DirectionTypes@@@Z@Z ; CvLuaMethodWrapper<CvLuaPlot,CvPlot>::BasicLuaMethod<bool,enum DirectionTypes>
	add	esp, 8

; 492  : }

	pop	ebp
	ret	0
?lIsRiverConnection@CvLuaPlot@@KAHPAUlua_State@@@Z ENDP	; CvLuaPlot::lIsRiverConnection
_TEXT	ENDS
EXTRN	?isRiverCrossingFlowClockwise@CvPlot@@QBE_NW4DirectionTypes@@@Z:PROC ; CvPlot::isRiverCrossingFlowClockwise
; Function compile flags: /Odtp
;	COMDAT ?lIsRiverCrossingFlowClockwise@CvLuaPlot@@KAHPAUlua_State@@@Z
_TEXT	SEGMENT
_bResult$ = -9						; size = 1
_eDirection$ = -8					; size = 4
_pkPlot$ = -4						; size = 4
_L$ = 8							; size = 4
?lIsRiverCrossingFlowClockwise@CvLuaPlot@@KAHPAUlua_State@@@Z PROC ; CvLuaPlot::lIsRiverCrossingFlowClockwise, COMDAT

; 495  : {

	push	ebp
	mov	ebp, esp
	sub	esp, 12					; 0000000cH

; 496  : 	CvPlot* pkPlot = GetInstance(L);

	push	1
	push	1
	mov	eax, DWORD PTR _L$[ebp]
	push	eax
	call	?GetInstance@?$CvLuaScopedInstance@VCvLuaPlot@@VCvPlot@@@@SAPAVCvPlot@@PAUlua_State@@H_N@Z ; CvLuaScopedInstance<CvLuaPlot,CvPlot>::GetInstance
	add	esp, 12					; 0000000cH
	mov	DWORD PTR _pkPlot$[ebp], eax

; 497  : 	const DirectionTypes eDirection = (DirectionTypes)lua_tointeger(L, 2);

	push	2
	mov	ecx, DWORD PTR _L$[ebp]
	push	ecx
	call	_lua_tointeger
	add	esp, 8
	mov	DWORD PTR _eDirection$[ebp], eax

; 498  : 	const bool bResult = pkPlot->isRiverCrossingFlowClockwise(eDirection);

	mov	edx, DWORD PTR _eDirection$[ebp]
	push	edx
	mov	ecx, DWORD PTR _pkPlot$[ebp]
	call	?isRiverCrossingFlowClockwise@CvPlot@@QBE_NW4DirectionTypes@@@Z ; CvPlot::isRiverCrossingFlowClockwise
	mov	BYTE PTR _bResult$[ebp], al

; 499  : 	lua_pushboolean(L, bResult);

	movzx	eax, BYTE PTR _bResult$[ebp]
	push	eax
	mov	ecx, DWORD PTR _L$[ebp]
	push	ecx
	call	_lua_pushboolean
	add	esp, 8

; 500  : 	return 1;

	mov	eax, 1

; 501  : }

	mov	esp, ebp
	pop	ebp
	ret	0
?lIsRiverCrossingFlowClockwise@CvLuaPlot@@KAHPAUlua_State@@@Z ENDP ; CvLuaPlot::lIsRiverCrossingFlowClockwise
_TEXT	ENDS
PUBLIC	??$BasicLuaMethod@H@?$CvLuaMethodWrapper@VCvLuaPlot@@VCvPlot@@@@KAHPAUlua_State@@P8CvPlot@@BEHXZ@Z ; CvLuaMethodWrapper<CvLuaPlot,CvPlot>::BasicLuaMethod<int>
EXTRN	?getNearestLandArea@CvPlot@@QBEHXZ:PROC		; CvPlot::getNearestLandArea
; Function compile flags: /Odtp
;	COMDAT ?lGetNearestLandArea@CvLuaPlot@@KAHPAUlua_State@@@Z
_TEXT	SEGMENT
_L$ = 8							; size = 4
?lGetNearestLandArea@CvLuaPlot@@KAHPAUlua_State@@@Z PROC ; CvLuaPlot::lGetNearestLandArea, COMDAT

; 505  : {

	push	ebp
	mov	ebp, esp

; 506  : 	return BasicLuaMethod(L, &CvPlot::getNearestLandArea);

	push	OFFSET ?getNearestLandArea@CvPlot@@QBEHXZ ; CvPlot::getNearestLandArea
	mov	eax, DWORD PTR _L$[ebp]
	push	eax
	call	??$BasicLuaMethod@H@?$CvLuaMethodWrapper@VCvLuaPlot@@VCvPlot@@@@KAHPAUlua_State@@P8CvPlot@@BEHXZ@Z ; CvLuaMethodWrapper<CvLuaPlot,CvPlot>::BasicLuaMethod<int>
	add	esp, 8

; 507  : }

	pop	ebp
	ret	0
?lGetNearestLandArea@CvLuaPlot@@KAHPAUlua_State@@@Z ENDP ; CvLuaPlot::lGetNearestLandArea
_TEXT	ENDS
PUBLIC	??$BasicLuaMethod@HW4TeamTypes@@@?$CvLuaMethodWrapper@VCvLuaPlot@@VCvPlot@@@@KAHPAUlua_State@@P8CvPlot@@BEHW4TeamTypes@@@Z@Z ; CvLuaMethodWrapper<CvLuaPlot,CvPlot>::BasicLuaMethod<int,enum TeamTypes>
EXTRN	?seeFromLevel@CvPlot@@QBEHW4TeamTypes@@@Z:PROC	; CvPlot::seeFromLevel
; Function compile flags: /Odtp
;	COMDAT ?lSeeFromLevel@CvLuaPlot@@KAHPAUlua_State@@@Z
_TEXT	SEGMENT
_L$ = 8							; size = 4
?lSeeFromLevel@CvLuaPlot@@KAHPAUlua_State@@@Z PROC	; CvLuaPlot::lSeeFromLevel, COMDAT

; 511  : {

	push	ebp
	mov	ebp, esp

; 512  : 	return BasicLuaMethod(L, &CvPlot::seeFromLevel);

	push	OFFSET ?seeFromLevel@CvPlot@@QBEHW4TeamTypes@@@Z ; CvPlot::seeFromLevel
	mov	eax, DWORD PTR _L$[ebp]
	push	eax
	call	??$BasicLuaMethod@HW4TeamTypes@@@?$CvLuaMethodWrapper@VCvLuaPlot@@VCvPlot@@@@KAHPAUlua_State@@P8CvPlot@@BEHW4TeamTypes@@@Z@Z ; CvLuaMethodWrapper<CvLuaPlot,CvPlot>::BasicLuaMethod<int,enum TeamTypes>
	add	esp, 8

; 513  : }

	pop	ebp
	ret	0
?lSeeFromLevel@CvLuaPlot@@KAHPAUlua_State@@@Z ENDP	; CvLuaPlot::lSeeFromLevel
_TEXT	ENDS
PUBLIC	?Push@?$CvLuaScopedInstance@VCvLuaPlot@@VCvPlot@@@@SAXPAUlua_State@@PAVCvPlot@@@Z ; CvLuaScopedInstance<CvLuaPlot,CvPlot>::Push
EXTRN	?getNearestLandPlot@CvPlot@@QBEPAV1@XZ:PROC	; CvPlot::getNearestLandPlot
; Function compile flags: /Odtp
;	COMDAT ?lGetNearestLandPlot@CvLuaPlot@@KAHPAUlua_State@@@Z
_TEXT	SEGMENT
_pkNearestPlot$ = -8					; size = 4
_pkPlot$ = -4						; size = 4
_L$ = 8							; size = 4
?lGetNearestLandPlot@CvLuaPlot@@KAHPAUlua_State@@@Z PROC ; CvLuaPlot::lGetNearestLandPlot, COMDAT

; 517  : {

	push	ebp
	mov	ebp, esp
	sub	esp, 8

; 518  : 	CvPlot* pkPlot = GetInstance(L);

	push	1
	push	1
	mov	eax, DWORD PTR _L$[ebp]
	push	eax
	call	?GetInstance@?$CvLuaScopedInstance@VCvLuaPlot@@VCvPlot@@@@SAPAVCvPlot@@PAUlua_State@@H_N@Z ; CvLuaScopedInstance<CvLuaPlot,CvPlot>::GetInstance
	add	esp, 12					; 0000000cH
	mov	DWORD PTR _pkPlot$[ebp], eax

; 519  : 	CvPlot* pkNearestPlot = pkPlot->getNearestLandPlot();

	mov	ecx, DWORD PTR _pkPlot$[ebp]
	call	?getNearestLandPlot@CvPlot@@QBEPAV1@XZ	; CvPlot::getNearestLandPlot
	mov	DWORD PTR _pkNearestPlot$[ebp], eax

; 520  : 	CvLuaPlot::Push(L, pkNearestPlot);

	mov	ecx, DWORD PTR _pkNearestPlot$[ebp]
	push	ecx
	mov	edx, DWORD PTR _L$[ebp]
	push	edx
	call	?Push@?$CvLuaScopedInstance@VCvLuaPlot@@VCvPlot@@@@SAXPAUlua_State@@PAVCvPlot@@@Z ; CvLuaScopedInstance<CvLuaPlot,CvPlot>::Push
	add	esp, 8

; 521  : 	return 1;

	mov	eax, 1

; 522  : }

	mov	esp, ebp
	pop	ebp
	ret	0
?lGetNearestLandPlot@CvLuaPlot@@KAHPAUlua_State@@@Z ENDP ; CvLuaPlot::lGetNearestLandPlot
_TEXT	ENDS
PUBLIC	??$BasicLuaMethod@H_N@?$CvLuaMethodWrapper@VCvLuaPlot@@VCvPlot@@@@KAHPAUlua_State@@P8CvPlot@@BEH_N@Z@Z ; CvLuaMethodWrapper<CvLuaPlot,CvPlot>::BasicLuaMethod<int,bool>
EXTRN	?seeThroughLevel@CvPlot@@QBEH_N@Z:PROC		; CvPlot::seeThroughLevel
; Function compile flags: /Odtp
;	COMDAT ?lSeeThroughLevel@CvLuaPlot@@KAHPAUlua_State@@@Z
_TEXT	SEGMENT
_L$ = 8							; size = 4
?lSeeThroughLevel@CvLuaPlot@@KAHPAUlua_State@@@Z PROC	; CvLuaPlot::lSeeThroughLevel, COMDAT

; 526  : {

	push	ebp
	mov	ebp, esp

; 527  : 	return BasicLuaMethod(L, &CvPlot::seeThroughLevel);

	push	OFFSET ?seeThroughLevel@CvPlot@@QBEH_N@Z ; CvPlot::seeThroughLevel
	mov	eax, DWORD PTR _L$[ebp]
	push	eax
	call	??$BasicLuaMethod@H_N@?$CvLuaMethodWrapper@VCvLuaPlot@@VCvPlot@@@@KAHPAUlua_State@@P8CvPlot@@BEH_N@Z@Z ; CvLuaMethodWrapper<CvLuaPlot,CvPlot>::BasicLuaMethod<int,bool>
	add	esp, 8

; 528  : }

	pop	ebp
	ret	0
?lSeeThroughLevel@CvLuaPlot@@KAHPAUlua_State@@@Z ENDP	; CvLuaPlot::lSeeThroughLevel
_TEXT	ENDS
PUBLIC	??$BasicLuaMethod@_NW4ResourceTypes@@_N@?$CvLuaMethodWrapper@VCvLuaPlot@@VCvPlot@@@@KAHPAUlua_State@@P8CvPlot@@BE_NW4ResourceTypes@@_N@Z@Z ; CvLuaMethodWrapper<CvLuaPlot,CvPlot>::BasicLuaMethod<bool,enum ResourceTypes,bool>
EXTRN	?canHaveResource@CvPlot@@QBE_NW4ResourceTypes@@_N@Z:PROC ; CvPlot::canHaveResource
; Function compile flags: /Odtp
;	COMDAT ?lCanHaveResource@CvLuaPlot@@KAHPAUlua_State@@@Z
_TEXT	SEGMENT
_L$ = 8							; size = 4
?lCanHaveResource@CvLuaPlot@@KAHPAUlua_State@@@Z PROC	; CvLuaPlot::lCanHaveResource, COMDAT

; 532  : {

	push	ebp
	mov	ebp, esp

; 533  : 	return BasicLuaMethod(L, &CvPlot::canHaveResource);

	push	OFFSET ?canHaveResource@CvPlot@@QBE_NW4ResourceTypes@@_N@Z ; CvPlot::canHaveResource
	mov	eax, DWORD PTR _L$[ebp]
	push	eax
	call	??$BasicLuaMethod@_NW4ResourceTypes@@_N@?$CvLuaMethodWrapper@VCvLuaPlot@@VCvPlot@@@@KAHPAUlua_State@@P8CvPlot@@BE_NW4ResourceTypes@@_N@Z@Z ; CvLuaMethodWrapper<CvLuaPlot,CvPlot>::BasicLuaMethod<bool,enum ResourceTypes,bool>
	add	esp, 8

; 534  : }

	pop	ebp
	ret	0
?lCanHaveResource@CvLuaPlot@@KAHPAUlua_State@@@Z ENDP	; CvLuaPlot::lCanHaveResource
_TEXT	ENDS
PUBLIC	??$BasicLuaMethod@_NW4ImprovementTypes@@W4TeamTypes@@_N@?$CvLuaMethodWrapper@VCvLuaPlot@@VCvPlot@@@@KAHPAUlua_State@@P8CvPlot@@BE_NW4ImprovementTypes@@W4TeamTypes@@_N@Z@Z ; CvLuaMethodWrapper<CvLuaPlot,CvPlot>::BasicLuaMethod<bool,enum ImprovementTypes,enum TeamTypes,bool>
EXTRN	?canHaveImprovement@CvPlot@@QBE_NW4ImprovementTypes@@W4TeamTypes@@_N@Z:PROC ; CvPlot::canHaveImprovement
; Function compile flags: /Odtp
;	COMDAT ?lCanHaveImprovement@CvLuaPlot@@KAHPAUlua_State@@@Z
_TEXT	SEGMENT
_L$ = 8							; size = 4
?lCanHaveImprovement@CvLuaPlot@@KAHPAUlua_State@@@Z PROC ; CvLuaPlot::lCanHaveImprovement, COMDAT

; 538  : {

	push	ebp
	mov	ebp, esp

; 539  : 	return BasicLuaMethod(L, &CvPlot::canHaveImprovement);

	push	OFFSET ?canHaveImprovement@CvPlot@@QBE_NW4ImprovementTypes@@W4TeamTypes@@_N@Z ; CvPlot::canHaveImprovement
	mov	eax, DWORD PTR _L$[ebp]
	push	eax
	call	??$BasicLuaMethod@_NW4ImprovementTypes@@W4TeamTypes@@_N@?$CvLuaMethodWrapper@VCvLuaPlot@@VCvPlot@@@@KAHPAUlua_State@@P8CvPlot@@BE_NW4ImprovementTypes@@W4TeamTypes@@_N@Z@Z ; CvLuaMethodWrapper<CvLuaPlot,CvPlot>::BasicLuaMethod<bool,enum ImprovementTypes,enum TeamTypes,bool>
	add	esp, 8

; 540  : }

	pop	ebp
	ret	0
?lCanHaveImprovement@CvLuaPlot@@KAHPAUlua_State@@@Z ENDP ; CvLuaPlot::lCanHaveImprovement
_TEXT	ENDS
PUBLIC	??$BasicLuaMethod@_NW4BuildTypes@@W4PlayerTypes@@_N_N@?$CvLuaMethodWrapper@VCvLuaPlot@@VCvPlot@@@@KAHPAUlua_State@@P8CvPlot@@BE_NW4BuildTypes@@W4PlayerTypes@@_N3@Z@Z ; CvLuaMethodWrapper<CvLuaPlot,CvPlot>::BasicLuaMethod<bool,enum BuildTypes,enum PlayerTypes,bool,bool>
EXTRN	?canBuild@CvPlot@@QBE_NW4BuildTypes@@W4PlayerTypes@@_N2@Z:PROC ; CvPlot::canBuild
; Function compile flags: /Odtp
;	COMDAT ?lCanBuild@CvLuaPlot@@KAHPAUlua_State@@@Z
_TEXT	SEGMENT
_L$ = 8							; size = 4
?lCanBuild@CvLuaPlot@@KAHPAUlua_State@@@Z PROC		; CvLuaPlot::lCanBuild, COMDAT

; 544  : {

	push	ebp
	mov	ebp, esp

; 545  : 	return BasicLuaMethod(L, &CvPlot::canBuild);

	push	OFFSET ?canBuild@CvPlot@@QBE_NW4BuildTypes@@W4PlayerTypes@@_N2@Z ; CvPlot::canBuild
	mov	eax, DWORD PTR _L$[ebp]
	push	eax
	call	??$BasicLuaMethod@_NW4BuildTypes@@W4PlayerTypes@@_N_N@?$CvLuaMethodWrapper@VCvLuaPlot@@VCvPlot@@@@KAHPAUlua_State@@P8CvPlot@@BE_NW4BuildTypes@@W4PlayerTypes@@_N3@Z@Z ; CvLuaMethodWrapper<CvLuaPlot,CvPlot>::BasicLuaMethod<bool,enum BuildTypes,enum PlayerTypes,bool,bool>
	add	esp, 8

; 546  : }

	pop	ebp
	ret	0
?lCanBuild@CvLuaPlot@@KAHPAUlua_State@@@Z ENDP		; CvLuaPlot::lCanBuild
_TEXT	ENDS
PUBLIC	??$BasicLuaMethod@HW4BuildTypes@@W4PlayerTypes@@@?$CvLuaMethodWrapper@VCvLuaPlot@@VCvPlot@@@@KAHPAUlua_State@@P8CvPlot@@BEHW4BuildTypes@@W4PlayerTypes@@@Z@Z ; CvLuaMethodWrapper<CvLuaPlot,CvPlot>::BasicLuaMethod<int,enum BuildTypes,enum PlayerTypes>
EXTRN	?getBuildTime@CvPlot@@QBEHW4BuildTypes@@W4PlayerTypes@@@Z:PROC ; CvPlot::getBuildTime
; Function compile flags: /Odtp
;	COMDAT ?lGetBuildTime@CvLuaPlot@@KAHPAUlua_State@@@Z
_TEXT	SEGMENT
_L$ = 8							; size = 4
?lGetBuildTime@CvLuaPlot@@KAHPAUlua_State@@@Z PROC	; CvLuaPlot::lGetBuildTime, COMDAT

; 550  : {

	push	ebp
	mov	ebp, esp

; 551  : 	return BasicLuaMethod(L, &CvPlot::getBuildTime);

	push	OFFSET ?getBuildTime@CvPlot@@QBEHW4BuildTypes@@W4PlayerTypes@@@Z ; CvPlot::getBuildTime
	mov	eax, DWORD PTR _L$[ebp]
	push	eax
	call	??$BasicLuaMethod@HW4BuildTypes@@W4PlayerTypes@@@?$CvLuaMethodWrapper@VCvLuaPlot@@VCvPlot@@@@KAHPAUlua_State@@P8CvPlot@@BEHW4BuildTypes@@W4PlayerTypes@@@Z@Z ; CvLuaMethodWrapper<CvLuaPlot,CvPlot>::BasicLuaMethod<int,enum BuildTypes,enum PlayerTypes>
	add	esp, 8

; 552  : }

	pop	ebp
	ret	0
?lGetBuildTime@CvLuaPlot@@KAHPAUlua_State@@@Z ENDP	; CvLuaPlot::lGetBuildTime
_TEXT	ENDS
PUBLIC	??$BasicLuaMethod@HW4BuildTypes@@W4PlayerTypes@@HH@?$CvLuaMethodWrapper@VCvLuaPlot@@VCvPlot@@@@KAHPAUlua_State@@P8CvPlot@@BEHW4BuildTypes@@W4PlayerTypes@@HH@Z@Z ; CvLuaMethodWrapper<CvLuaPlot,CvPlot>::BasicLuaMethod<int,enum BuildTypes,enum PlayerTypes,int,int>
EXTRN	?getBuildTurnsLeft@CvPlot@@QBEHW4BuildTypes@@W4PlayerTypes@@HH@Z:PROC ; CvPlot::getBuildTurnsLeft
; Function compile flags: /Odtp
;	COMDAT ?lGetBuildTurnsLeft@CvLuaPlot@@KAHPAUlua_State@@@Z
_TEXT	SEGMENT
_L$ = 8							; size = 4
?lGetBuildTurnsLeft@CvLuaPlot@@KAHPAUlua_State@@@Z PROC	; CvLuaPlot::lGetBuildTurnsLeft, COMDAT

; 556  : {

	push	ebp
	mov	ebp, esp

; 557  : 	return BasicLuaMethod(L, &CvPlot::getBuildTurnsLeft);

	push	OFFSET ?getBuildTurnsLeft@CvPlot@@QBEHW4BuildTypes@@W4PlayerTypes@@HH@Z ; CvPlot::getBuildTurnsLeft
	mov	eax, DWORD PTR _L$[ebp]
	push	eax
	call	??$BasicLuaMethod@HW4BuildTypes@@W4PlayerTypes@@HH@?$CvLuaMethodWrapper@VCvLuaPlot@@VCvPlot@@@@KAHPAUlua_State@@P8CvPlot@@BEHW4BuildTypes@@W4PlayerTypes@@HH@Z@Z ; CvLuaMethodWrapper<CvLuaPlot,CvPlot>::BasicLuaMethod<int,enum BuildTypes,enum PlayerTypes,int,int>
	add	esp, 8

; 558  : }

	pop	ebp
	ret	0
?lGetBuildTurnsLeft@CvLuaPlot@@KAHPAUlua_State@@@Z ENDP	; CvLuaPlot::lGetBuildTurnsLeft
_TEXT	ENDS
EXTRN	?getBuildTurnsTotal@CvPlot@@QBEHW4BuildTypes@@W4PlayerTypes@@@Z:PROC ; CvPlot::getBuildTurnsTotal
; Function compile flags: /Odtp
;	COMDAT ?lGetBuildTurnsTotal@CvLuaPlot@@KAHPAUlua_State@@@Z
_TEXT	SEGMENT
_L$ = 8							; size = 4
?lGetBuildTurnsTotal@CvLuaPlot@@KAHPAUlua_State@@@Z PROC ; CvLuaPlot::lGetBuildTurnsTotal, COMDAT

; 562  : {

	push	ebp
	mov	ebp, esp

; 563  : 	return BasicLuaMethod(L, &CvPlot::getBuildTurnsTotal);

	push	OFFSET ?getBuildTurnsTotal@CvPlot@@QBEHW4BuildTypes@@W4PlayerTypes@@@Z ; CvPlot::getBuildTurnsTotal
	mov	eax, DWORD PTR _L$[ebp]
	push	eax
	call	??$BasicLuaMethod@HW4BuildTypes@@W4PlayerTypes@@@?$CvLuaMethodWrapper@VCvLuaPlot@@VCvPlot@@@@KAHPAUlua_State@@P8CvPlot@@BEHW4BuildTypes@@W4PlayerTypes@@@Z@Z ; CvLuaMethodWrapper<CvLuaPlot,CvPlot>::BasicLuaMethod<int,enum BuildTypes,enum PlayerTypes>
	add	esp, 8

; 564  : }

	pop	ebp
	ret	0
?lGetBuildTurnsTotal@CvLuaPlot@@KAHPAUlua_State@@@Z ENDP ; CvLuaPlot::lGetBuildTurnsTotal
_TEXT	ENDS
EXTRN	?getFeatureProduction@CvPlot@@QBEHW4BuildTypes@@W4PlayerTypes@@PAPAVCvCity@@@Z:PROC ; CvPlot::getFeatureProduction
; Function compile flags: /Odtp
;	COMDAT ?lGetFeatureProduction@CvLuaPlot@@KAHPAUlua_State@@@Z
_TEXT	SEGMENT
_ePlayer$ = -20						; size = 4
_eBuild$ = -16						; size = 4
_pCity$ = -12						; size = 4
_iResult$ = -8						; size = 4
_pkPlot$ = -4						; size = 4
_L$ = 8							; size = 4
?lGetFeatureProduction@CvLuaPlot@@KAHPAUlua_State@@@Z PROC ; CvLuaPlot::lGetFeatureProduction, COMDAT

; 568  : {

	push	ebp
	mov	ebp, esp
	sub	esp, 20					; 00000014H

; 569  : 	CvPlot* pkPlot = GetInstance(L);

	push	1
	push	1
	mov	eax, DWORD PTR _L$[ebp]
	push	eax
	call	?GetInstance@?$CvLuaScopedInstance@VCvLuaPlot@@VCvPlot@@@@SAPAVCvPlot@@PAUlua_State@@H_N@Z ; CvLuaScopedInstance<CvLuaPlot,CvPlot>::GetInstance
	add	esp, 12					; 0000000cH
	mov	DWORD PTR _pkPlot$[ebp], eax

; 570  : 	const BuildTypes eBuild = (BuildTypes)lua_tointeger(L, 2);

	push	2
	mov	ecx, DWORD PTR _L$[ebp]
	push	ecx
	call	_lua_tointeger
	add	esp, 8
	mov	DWORD PTR _eBuild$[ebp], eax

; 571  : 	const PlayerTypes ePlayer = (PlayerTypes)lua_tointeger(L, 3);

	push	3
	mov	edx, DWORD PTR _L$[ebp]
	push	edx
	call	_lua_tointeger
	add	esp, 8
	mov	DWORD PTR _ePlayer$[ebp], eax

; 572  : 	CvCity* pCity;
; 573  : 
; 574  : 	const int iResult = pkPlot->getFeatureProduction(eBuild, ePlayer, &pCity);

	lea	eax, DWORD PTR _pCity$[ebp]
	push	eax
	mov	ecx, DWORD PTR _ePlayer$[ebp]
	push	ecx
	mov	edx, DWORD PTR _eBuild$[ebp]
	push	edx
	mov	ecx, DWORD PTR _pkPlot$[ebp]
	call	?getFeatureProduction@CvPlot@@QBEHW4BuildTypes@@W4PlayerTypes@@PAPAVCvCity@@@Z ; CvPlot::getFeatureProduction
	mov	DWORD PTR _iResult$[ebp], eax

; 575  : 
; 576  : 	lua_pushinteger(L, iResult);

	mov	eax, DWORD PTR _iResult$[ebp]
	push	eax
	mov	ecx, DWORD PTR _L$[ebp]
	push	ecx
	call	_lua_pushinteger
	add	esp, 8

; 577  : 	return 1;

	mov	eax, 1

; 578  : }

	mov	esp, ebp
	pop	ebp
	ret	0
?lGetFeatureProduction@CvLuaPlot@@KAHPAUlua_State@@@Z ENDP ; CvLuaPlot::lGetFeatureProduction
_TEXT	ENDS
EXTRN	?getFeatureFood@CvPlot@@QBEHW4BuildTypes@@W4PlayerTypes@@PAPAVCvCity@@@Z:PROC ; CvPlot::getFeatureFood
; Function compile flags: /Odtp
;	COMDAT ?lGetFeatureFood@CvLuaPlot@@KAHPAUlua_State@@@Z
_TEXT	SEGMENT
_ePlayer$ = -20						; size = 4
_eBuild$ = -16						; size = 4
_pCity$ = -12						; size = 4
_iResult$ = -8						; size = 4
_pkPlot$ = -4						; size = 4
_L$ = 8							; size = 4
?lGetFeatureFood@CvLuaPlot@@KAHPAUlua_State@@@Z PROC	; CvLuaPlot::lGetFeatureFood, COMDAT

; 583  : {

	push	ebp
	mov	ebp, esp
	sub	esp, 20					; 00000014H

; 584  : 	CvPlot* pkPlot = GetInstance(L);

	push	1
	push	1
	mov	eax, DWORD PTR _L$[ebp]
	push	eax
	call	?GetInstance@?$CvLuaScopedInstance@VCvLuaPlot@@VCvPlot@@@@SAPAVCvPlot@@PAUlua_State@@H_N@Z ; CvLuaScopedInstance<CvLuaPlot,CvPlot>::GetInstance
	add	esp, 12					; 0000000cH
	mov	DWORD PTR _pkPlot$[ebp], eax

; 585  : 	const BuildTypes eBuild = (BuildTypes)lua_tointeger(L, 2);

	push	2
	mov	ecx, DWORD PTR _L$[ebp]
	push	ecx
	call	_lua_tointeger
	add	esp, 8
	mov	DWORD PTR _eBuild$[ebp], eax

; 586  : 	const PlayerTypes ePlayer = (PlayerTypes)lua_tointeger(L, 3);

	push	3
	mov	edx, DWORD PTR _L$[ebp]
	push	edx
	call	_lua_tointeger
	add	esp, 8
	mov	DWORD PTR _ePlayer$[ebp], eax

; 587  : 	CvCity* pCity;
; 588  : 
; 589  : 	const int iResult = pkPlot->getFeatureFood(eBuild, ePlayer, &pCity);

	lea	eax, DWORD PTR _pCity$[ebp]
	push	eax
	mov	ecx, DWORD PTR _ePlayer$[ebp]
	push	ecx
	mov	edx, DWORD PTR _eBuild$[ebp]
	push	edx
	mov	ecx, DWORD PTR _pkPlot$[ebp]
	call	?getFeatureFood@CvPlot@@QBEHW4BuildTypes@@W4PlayerTypes@@PAPAVCvCity@@@Z ; CvPlot::getFeatureFood
	mov	DWORD PTR _iResult$[ebp], eax

; 590  : 
; 591  : 	lua_pushinteger(L, iResult);

	mov	eax, DWORD PTR _iResult$[ebp]
	push	eax
	mov	ecx, DWORD PTR _L$[ebp]
	push	ecx
	call	_lua_pushinteger
	add	esp, 8

; 592  : 	return 1;

	mov	eax, 1

; 593  : }

	mov	esp, ebp
	pop	ebp
	ret	0
?lGetFeatureFood@CvLuaPlot@@KAHPAUlua_State@@@Z ENDP	; CvLuaPlot::lGetFeatureFood
_TEXT	ENDS
PUBLIC	??1?$FObjectHandle@VCvUnit@@@@QAE@XZ		; FObjectHandle<CvUnit>::~FObjectHandle<CvUnit>
PUBLIC	?Push@?$CvLuaScopedInstance@VCvLuaUnit@@VCvUnit@@@@SAXPAUlua_State@@PAVCvUnit@@@Z ; CvLuaScopedInstance<CvLuaUnit,CvUnit>::Push
PUBLIC	?GetInstance@?$CvLuaScopedInstance@VCvLuaUnit@@VCvUnit@@@@SAPAVCvUnit@@PAUlua_State@@H_N@Z ; CvLuaScopedInstance<CvLuaUnit,CvUnit>::GetInstance
EXTRN	?getDestructionNotification@CvUnit@@QAEAAU?$DestructionNotification@V?$FObjectHandle@VCvUnit@@@@@@XZ:PROC ; CvUnit::getDestructionNotification
EXTRN	?getBestDefender@CvPlot@@QAE?AV?$FObjectHandle@VCvUnit@@@@W4PlayerTypes@@0PBVCvUnit@@_N222@Z:PROC ; CvPlot::getBestDefender
EXTRN	___security_cookie:DWORD
EXTRN	___CxxFrameHandler3:PROC
EXTRN	@__security_check_cookie@4:PROC
;	COMDAT xdata$x
; File d:\sources\lekmod_git\checkout\lekmod_dll\fireplace\include\fireworks\fobjecthandle.h
xdata$x	SEGMENT
__unwindtable$?lGetBestDefender@CvLuaPlot@@KAHPAUlua_State@@@Z DD 0ffffffffH
	DD	FLAT:__unwindfunclet$?lGetBestDefender@CvLuaPlot@@KAHPAUlua_State@@@Z$0
__ehfuncinfo$?lGetBestDefender@CvLuaPlot@@KAHPAUlua_State@@@Z DD 019930522H
	DD	01H
	DD	FLAT:__unwindtable$?lGetBestDefender@CvLuaPlot@@KAHPAUlua_State@@@Z
	DD	2 DUP(00H)
	DD	2 DUP(00H)
	DD	00H
	DD	01H
; Function compile flags: /Odtp
; File d:\sources\lekmod_git\checkout\lekmod_dll\cvgamecoredll_expansion2\lua\cvluaplot.cpp
xdata$x	ENDS
;	COMDAT ?lGetBestDefender@CvLuaPlot@@KAHPAUlua_State@@@Z
_TEXT	SEGMENT
$T223740 = -48						; size = 4
_bTestCanMove$ = -41					; size = 1
_pkUnit$ = -40						; size = 8
_eOwner$ = -32						; size = 4
_bTestAtWar$ = -26					; size = 1
_bTestPotentialEnemy$ = -25				; size = 1
_eAttackingPlayer$ = -24				; size = 4
_pkAttacker$ = -20					; size = 4
_pkPlot$ = -16						; size = 4
__$EHRec$ = -12						; size = 12
_L$ = 8							; size = 4
?lGetBestDefender@CvLuaPlot@@KAHPAUlua_State@@@Z PROC	; CvLuaPlot::lGetBestDefender, COMDAT

; 598  : {

	push	ebp
	mov	ebp, esp
	push	-1
	push	__ehhandler$?lGetBestDefender@CvLuaPlot@@KAHPAUlua_State@@@Z
	mov	eax, DWORD PTR fs:0
	push	eax
	sub	esp, 36					; 00000024H
	mov	eax, DWORD PTR ___security_cookie
	xor	eax, ebp
	push	eax
	lea	eax, DWORD PTR __$EHRec$[ebp]
	mov	DWORD PTR fs:0, eax

; 599  : 	CvPlot* pkPlot = GetInstance(L);

	push	1
	push	1
	mov	eax, DWORD PTR _L$[ebp]
	push	eax
	call	?GetInstance@?$CvLuaScopedInstance@VCvLuaPlot@@VCvPlot@@@@SAPAVCvPlot@@PAUlua_State@@H_N@Z ; CvLuaScopedInstance<CvLuaPlot,CvPlot>::GetInstance
	add	esp, 12					; 0000000cH
	mov	DWORD PTR _pkPlot$[ebp], eax

; 600  : 	const PlayerTypes eOwner = (PlayerTypes)lua_tointeger(L, 2);

	push	2
	mov	ecx, DWORD PTR _L$[ebp]
	push	ecx
	call	_lua_tointeger
	add	esp, 8
	mov	DWORD PTR _eOwner$[ebp], eax

; 601  : 	const PlayerTypes eAttackingPlayer = (PlayerTypes)lua_tointeger(L, 3);

	push	3
	mov	edx, DWORD PTR _L$[ebp]
	push	edx
	call	_lua_tointeger
	add	esp, 8
	mov	DWORD PTR _eAttackingPlayer$[ebp], eax

; 602  : 	CvUnit* pkAttacker = CvLuaUnit::GetInstance(L, 4, false);

	push	0
	push	4
	mov	eax, DWORD PTR _L$[ebp]
	push	eax
	call	?GetInstance@?$CvLuaScopedInstance@VCvLuaUnit@@VCvUnit@@@@SAPAVCvUnit@@PAUlua_State@@H_N@Z ; CvLuaScopedInstance<CvLuaUnit,CvUnit>::GetInstance
	add	esp, 12					; 0000000cH
	mov	DWORD PTR _pkAttacker$[ebp], eax

; 603  : 	const bool bTestAtWar = luaL_optint(L, 5, 0);

	push	0
	push	5
	mov	ecx, DWORD PTR _L$[ebp]
	push	ecx
	call	_luaL_optinteger
	add	esp, 12					; 0000000cH
	test	eax, eax
	setne	dl
	mov	BYTE PTR _bTestAtWar$[ebp], dl

; 604  : 	const bool bTestPotentialEnemy = luaL_optint(L, 6, 0);

	push	0
	push	6
	mov	eax, DWORD PTR _L$[ebp]
	push	eax
	call	_luaL_optinteger
	add	esp, 12					; 0000000cH
	test	eax, eax
	setne	cl
	mov	BYTE PTR _bTestPotentialEnemy$[ebp], cl

; 605  : 	const bool bTestCanMove = luaL_optint(L, 7, 0);

	push	0
	push	7
	mov	edx, DWORD PTR _L$[ebp]
	push	edx
	call	_luaL_optinteger
	add	esp, 12					; 0000000cH
	test	eax, eax
	setne	al
	mov	BYTE PTR _bTestCanMove$[ebp], al

; 606  : 	UnitHandle pkUnit = pkPlot->getBestDefender(eOwner, eAttackingPlayer, pkAttacker, bTestAtWar, bTestPotentialEnemy, bTestCanMove);

	push	0
	movzx	ecx, BYTE PTR _bTestCanMove$[ebp]
	push	ecx
	movzx	edx, BYTE PTR _bTestPotentialEnemy$[ebp]
	push	edx
	movzx	eax, BYTE PTR _bTestAtWar$[ebp]
	push	eax
	mov	ecx, DWORD PTR _pkAttacker$[ebp]
	push	ecx
	mov	edx, DWORD PTR _eAttackingPlayer$[ebp]
	push	edx
	mov	eax, DWORD PTR _eOwner$[ebp]
	push	eax
	lea	ecx, DWORD PTR _pkUnit$[ebp]
	push	ecx
	mov	ecx, DWORD PTR _pkPlot$[ebp]
	call	?getBestDefender@CvPlot@@QAE?AV?$FObjectHandle@VCvUnit@@@@W4PlayerTypes@@0PBVCvUnit@@_N222@Z ; CvPlot::getBestDefender
	mov	DWORD PTR __$EHRec$[ebp+8], 0

; 607  : 	CvLuaUnit::Push(L, pkUnit.pointer());

	mov	edx, DWORD PTR _pkUnit$[ebp]
	push	edx
	mov	eax, DWORD PTR _L$[ebp]
	push	eax
	call	?Push@?$CvLuaScopedInstance@VCvLuaUnit@@VCvUnit@@@@SAXPAUlua_State@@PAVCvUnit@@@Z ; CvLuaScopedInstance<CvLuaUnit,CvUnit>::Push
	add	esp, 8

; 608  : 	return 1;

	mov	DWORD PTR $T223740[ebp], 1
	mov	DWORD PTR __$EHRec$[ebp+8], -1
	cmp	DWORD PTR _pkUnit$[ebp], 0
	je	SHORT $LN7@lGetBestDe
	mov	ecx, DWORD PTR _pkUnit$[ebp]
	call	?getDestructionNotification@CvUnit@@QAEAAU?$DestructionNotification@V?$FObjectHandle@VCvUnit@@@@@@XZ ; CvUnit::getDestructionNotification
$LN7@lGetBestDe:
	mov	eax, DWORD PTR $T223740[ebp]

; 609  : }

	mov	ecx, DWORD PTR __$EHRec$[ebp]
	mov	DWORD PTR fs:0, ecx
	pop	ecx
	mov	esp, ebp
	pop	ebp
	ret	0
_TEXT	ENDS
;	COMDAT text$x
text$x	SEGMENT
__unwindfunclet$?lGetBestDefender@CvLuaPlot@@KAHPAUlua_State@@@Z$0:
	lea	ecx, DWORD PTR _pkUnit$[ebp]
	jmp	??1?$FObjectHandle@VCvUnit@@@@QAE@XZ	; FObjectHandle<CvUnit>::~FObjectHandle<CvUnit>
__ehhandler$?lGetBestDefender@CvLuaPlot@@KAHPAUlua_State@@@Z:
	mov	edx, DWORD PTR [esp+8]
	lea	eax, DWORD PTR [edx+12]
	mov	ecx, DWORD PTR [edx-40]
	xor	ecx, eax
	call	@__security_check_cookie@4
	mov	eax, OFFSET __ehfuncinfo$?lGetBestDefender@CvLuaPlot@@KAHPAUlua_State@@@Z
	jmp	___CxxFrameHandler3
text$x	ENDS
?lGetBestDefender@CvLuaPlot@@KAHPAUlua_State@@@Z ENDP	; CvLuaPlot::lGetBestDefender
EXTRN	?getSelectedUnit@CvPlot@@QAEPAVCvUnit@@XZ:PROC	; CvPlot::getSelectedUnit
; Function compile flags: /Odtp
;	COMDAT ?lGetSelectedUnit@CvLuaPlot@@KAHPAUlua_State@@@Z
_TEXT	SEGMENT
_pkUnit$ = -8						; size = 4
_pkPlot$ = -4						; size = 4
_L$ = 8							; size = 4
?lGetSelectedUnit@CvLuaPlot@@KAHPAUlua_State@@@Z PROC	; CvLuaPlot::lGetSelectedUnit, COMDAT

; 613  : {

	push	ebp
	mov	ebp, esp
	sub	esp, 8

; 614  : 	CvPlot* pkPlot = GetInstance(L);

	push	1
	push	1
	mov	eax, DWORD PTR _L$[ebp]
	push	eax
	call	?GetInstance@?$CvLuaScopedInstance@VCvLuaPlot@@VCvPlot@@@@SAPAVCvPlot@@PAUlua_State@@H_N@Z ; CvLuaScopedInstance<CvLuaPlot,CvPlot>::GetInstance
	add	esp, 12					; 0000000cH
	mov	DWORD PTR _pkPlot$[ebp], eax

; 615  : 	CvUnit* pkUnit = pkPlot->getSelectedUnit();

	mov	ecx, DWORD PTR _pkPlot$[ebp]
	call	?getSelectedUnit@CvPlot@@QAEPAVCvUnit@@XZ ; CvPlot::getSelectedUnit
	mov	DWORD PTR _pkUnit$[ebp], eax

; 616  : 	CvLuaUnit::Push(L, pkUnit);

	mov	ecx, DWORD PTR _pkUnit$[ebp]
	push	ecx
	mov	edx, DWORD PTR _L$[ebp]
	push	edx
	call	?Push@?$CvLuaScopedInstance@VCvLuaUnit@@VCvUnit@@@@SAXPAUlua_State@@PAVCvUnit@@@Z ; CvLuaScopedInstance<CvLuaUnit,CvUnit>::Push
	add	esp, 8

; 617  : 	return 1;

	mov	eax, 1

; 618  : }

	mov	esp, ebp
	pop	ebp
	ret	0
?lGetSelectedUnit@CvLuaPlot@@KAHPAUlua_State@@@Z ENDP	; CvLuaPlot::lGetSelectedUnit
_TEXT	ENDS
PUBLIC	??$BasicLuaMethod@HW4PlayerTypes@@@?$CvLuaMethodWrapper@VCvLuaPlot@@VCvPlot@@@@KAHPAUlua_State@@P8CvPlot@@BEHW4PlayerTypes@@@Z@Z ; CvLuaMethodWrapper<CvLuaPlot,CvPlot>::BasicLuaMethod<int,enum PlayerTypes>
EXTRN	?getUnitPower@CvPlot@@QBEHW4PlayerTypes@@@Z:PROC ; CvPlot::getUnitPower
; Function compile flags: /Odtp
;	COMDAT ?lGetUnitPower@CvLuaPlot@@KAHPAUlua_State@@@Z
_TEXT	SEGMENT
_L$ = 8							; size = 4
?lGetUnitPower@CvLuaPlot@@KAHPAUlua_State@@@Z PROC	; CvLuaPlot::lGetUnitPower, COMDAT

; 622  : {

	push	ebp
	mov	ebp, esp

; 623  : 	return BasicLuaMethod(L, &CvPlot::getUnitPower);

	push	OFFSET ?getUnitPower@CvPlot@@QBEHW4PlayerTypes@@@Z ; CvPlot::getUnitPower
	mov	eax, DWORD PTR _L$[ebp]
	push	eax
	call	??$BasicLuaMethod@HW4PlayerTypes@@@?$CvLuaMethodWrapper@VCvLuaPlot@@VCvPlot@@@@KAHPAUlua_State@@P8CvPlot@@BEHW4PlayerTypes@@@Z@Z ; CvLuaMethodWrapper<CvLuaPlot,CvPlot>::BasicLuaMethod<int,enum PlayerTypes>
	add	esp, 8

; 624  : }

	pop	ebp
	ret	0
?lGetUnitPower@CvLuaPlot@@KAHPAUlua_State@@@Z ENDP	; CvLuaPlot::lGetUnitPower
_TEXT	ENDS
PUBLIC	??$BasicLuaMethod@HW4TeamTypes@@_N_N@?$CvLuaMethodWrapper@VCvLuaPlot@@VCvPlot@@@@KAHPAUlua_State@@P8CvPlot@@BEHW4TeamTypes@@_N2@Z@Z ; CvLuaMethodWrapper<CvLuaPlot,CvPlot>::BasicLuaMethod<int,enum TeamTypes,bool,bool>
EXTRN	?defenseModifier@CvPlot@@QBEHW4TeamTypes@@_N1@Z:PROC ; CvPlot::defenseModifier
; Function compile flags: /Odtp
;	COMDAT ?lDefenseModifier@CvLuaPlot@@KAHPAUlua_State@@@Z
_TEXT	SEGMENT
_L$ = 8							; size = 4
?lDefenseModifier@CvLuaPlot@@KAHPAUlua_State@@@Z PROC	; CvLuaPlot::lDefenseModifier, COMDAT

; 629  : {

	push	ebp
	mov	ebp, esp

; 630  : 	return BasicLuaMethod(L, &CvPlot::defenseModifier);

	push	OFFSET ?defenseModifier@CvPlot@@QBEHW4TeamTypes@@_N1@Z ; CvPlot::defenseModifier
	mov	eax, DWORD PTR _L$[ebp]
	push	eax
	call	??$BasicLuaMethod@HW4TeamTypes@@_N_N@?$CvLuaMethodWrapper@VCvLuaPlot@@VCvPlot@@@@KAHPAUlua_State@@P8CvPlot@@BEHW4TeamTypes@@_N2@Z@Z ; CvLuaMethodWrapper<CvLuaPlot,CvPlot>::BasicLuaMethod<int,enum TeamTypes,bool,bool>
	add	esp, 8

; 631  : }

	pop	ebp
	ret	0
?lDefenseModifier@CvLuaPlot@@KAHPAUlua_State@@@Z ENDP	; CvLuaPlot::lDefenseModifier
_TEXT	ENDS
PUBLIC	??$BasicLuaMethod@HPBVCvUnit@@PBVCvPlot@@H@?$CvLuaMethodWrapper@VCvLuaPlot@@VCvPlot@@@@KAHPAUlua_State@@P8CvPlot@@BEHPBVCvUnit@@PBV2@H@Z@Z ; CvLuaMethodWrapper<CvLuaPlot,CvPlot>::BasicLuaMethod<int,CvUnit const *,CvPlot const *,int>
EXTRN	?movementCost@CvPlot@@QBEHPBVCvUnit@@PBV1@H@Z:PROC ; CvPlot::movementCost
; Function compile flags: /Odtp
;	COMDAT ?lMovementCost@CvLuaPlot@@KAHPAUlua_State@@@Z
_TEXT	SEGMENT
_L$ = 8							; size = 4
?lMovementCost@CvLuaPlot@@KAHPAUlua_State@@@Z PROC	; CvLuaPlot::lMovementCost, COMDAT

; 635  : {

	push	ebp
	mov	ebp, esp

; 636  : 	return BasicLuaMethod(L, &CvPlot::movementCost);

	push	OFFSET ?movementCost@CvPlot@@QBEHPBVCvUnit@@PBV1@H@Z ; CvPlot::movementCost
	mov	eax, DWORD PTR _L$[ebp]
	push	eax
	call	??$BasicLuaMethod@HPBVCvUnit@@PBVCvPlot@@H@?$CvLuaMethodWrapper@VCvLuaPlot@@VCvPlot@@@@KAHPAUlua_State@@P8CvPlot@@BEHPBVCvUnit@@PBV2@H@Z@Z ; CvLuaMethodWrapper<CvLuaPlot,CvPlot>::BasicLuaMethod<int,CvUnit const *,CvPlot const *,int>
	add	esp, 8

; 637  : }

	pop	ebp
	ret	0
?lMovementCost@CvLuaPlot@@KAHPAUlua_State@@@Z ENDP	; CvLuaPlot::lMovementCost
_TEXT	ENDS
EXTRN	?getExtraMovePathCost@CvPlot@@QBEHXZ:PROC	; CvPlot::getExtraMovePathCost
; Function compile flags: /Odtp
;	COMDAT ?lGetExtraMovePathCost@CvLuaPlot@@KAHPAUlua_State@@@Z
_TEXT	SEGMENT
_L$ = 8							; size = 4
?lGetExtraMovePathCost@CvLuaPlot@@KAHPAUlua_State@@@Z PROC ; CvLuaPlot::lGetExtraMovePathCost, COMDAT

; 642  : {

	push	ebp
	mov	ebp, esp

; 643  : 	return BasicLuaMethod(L, &CvPlot::getExtraMovePathCost);

	push	OFFSET ?getExtraMovePathCost@CvPlot@@QBEHXZ ; CvPlot::getExtraMovePathCost
	mov	eax, DWORD PTR _L$[ebp]
	push	eax
	call	??$BasicLuaMethod@H@?$CvLuaMethodWrapper@VCvLuaPlot@@VCvPlot@@@@KAHPAUlua_State@@P8CvPlot@@BEHXZ@Z ; CvLuaMethodWrapper<CvLuaPlot,CvPlot>::BasicLuaMethod<int>
	add	esp, 8

; 644  : }

	pop	ebp
	ret	0
?lGetExtraMovePathCost@CvLuaPlot@@KAHPAUlua_State@@@Z ENDP ; CvLuaPlot::lGetExtraMovePathCost
_TEXT	ENDS
PUBLIC	??$BasicLuaMethod@H@?$CvLuaMethodWrapper@VCvLuaPlot@@VCvPlot@@@@KAHPAUlua_State@@P8CvPlot@@AEXH@Z@Z ; CvLuaMethodWrapper<CvLuaPlot,CvPlot>::BasicLuaMethod<int>
EXTRN	?changeExtraMovePathCost@CvPlot@@QAEXH@Z:PROC	; CvPlot::changeExtraMovePathCost
; Function compile flags: /Odtp
;	COMDAT ?lChangeExtraMovePathCost@CvLuaPlot@@KAHPAUlua_State@@@Z
_TEXT	SEGMENT
_L$ = 8							; size = 4
?lChangeExtraMovePathCost@CvLuaPlot@@KAHPAUlua_State@@@Z PROC ; CvLuaPlot::lChangeExtraMovePathCost, COMDAT

; 648  : {

	push	ebp
	mov	ebp, esp

; 649  : 	return BasicLuaMethod(L, &CvPlot::changeExtraMovePathCost);

	push	OFFSET ?changeExtraMovePathCost@CvPlot@@QAEXH@Z ; CvPlot::changeExtraMovePathCost
	mov	eax, DWORD PTR _L$[ebp]
	push	eax
	call	??$BasicLuaMethod@H@?$CvLuaMethodWrapper@VCvLuaPlot@@VCvPlot@@@@KAHPAUlua_State@@P8CvPlot@@AEXH@Z@Z ; CvLuaMethodWrapper<CvLuaPlot,CvPlot>::BasicLuaMethod<int>
	add	esp, 8

; 650  : }

	pop	ebp
	ret	0
?lChangeExtraMovePathCost@CvLuaPlot@@KAHPAUlua_State@@@Z ENDP ; CvLuaPlot::lChangeExtraMovePathCost
_TEXT	ENDS
EXTRN	?isAdjacentOwned@CvPlot@@QBE_NXZ:PROC		; CvPlot::isAdjacentOwned
; Function compile flags: /Odtp
;	COMDAT ?lIsAdjacentOwned@CvLuaPlot@@KAHPAUlua_State@@@Z
_TEXT	SEGMENT
_L$ = 8							; size = 4
?lIsAdjacentOwned@CvLuaPlot@@KAHPAUlua_State@@@Z PROC	; CvLuaPlot::lIsAdjacentOwned, COMDAT

; 655  : {

	push	ebp
	mov	ebp, esp

; 656  : 	return BasicLuaMethod(L, &CvPlot::isAdjacentOwned);

	push	OFFSET ?isAdjacentOwned@CvPlot@@QBE_NXZ	; CvPlot::isAdjacentOwned
	mov	eax, DWORD PTR _L$[ebp]
	push	eax
	call	??$BasicLuaMethod@_N@?$CvLuaMethodWrapper@VCvLuaPlot@@VCvPlot@@@@KAHPAUlua_State@@P8CvPlot@@BE_NXZ@Z ; CvLuaMethodWrapper<CvLuaPlot,CvPlot>::BasicLuaMethod<bool>
	add	esp, 8

; 657  : }

	pop	ebp
	ret	0
?lIsAdjacentOwned@CvLuaPlot@@KAHPAUlua_State@@@Z ENDP	; CvLuaPlot::lIsAdjacentOwned
_TEXT	ENDS
PUBLIC	??$BasicLuaMethod@_NW4PlayerTypes@@_N@?$CvLuaMethodWrapper@VCvLuaPlot@@VCvPlot@@@@KAHPAUlua_State@@P8CvPlot@@BE_NW4PlayerTypes@@_N@Z@Z ; CvLuaMethodWrapper<CvLuaPlot,CvPlot>::BasicLuaMethod<bool,enum PlayerTypes,bool>
EXTRN	?isAdjacentPlayer@CvPlot@@QBE_NW4PlayerTypes@@_N@Z:PROC ; CvPlot::isAdjacentPlayer
; Function compile flags: /Odtp
;	COMDAT ?lIsAdjacentPlayer@CvLuaPlot@@KAHPAUlua_State@@@Z
_TEXT	SEGMENT
_L$ = 8							; size = 4
?lIsAdjacentPlayer@CvLuaPlot@@KAHPAUlua_State@@@Z PROC	; CvLuaPlot::lIsAdjacentPlayer, COMDAT

; 661  : {

	push	ebp
	mov	ebp, esp

; 662  : 	return BasicLuaMethod(L, &CvPlot::isAdjacentPlayer);

	push	OFFSET ?isAdjacentPlayer@CvPlot@@QBE_NW4PlayerTypes@@_N@Z ; CvPlot::isAdjacentPlayer
	mov	eax, DWORD PTR _L$[ebp]
	push	eax
	call	??$BasicLuaMethod@_NW4PlayerTypes@@_N@?$CvLuaMethodWrapper@VCvLuaPlot@@VCvPlot@@@@KAHPAUlua_State@@P8CvPlot@@BE_NW4PlayerTypes@@_N@Z@Z ; CvLuaMethodWrapper<CvLuaPlot,CvPlot>::BasicLuaMethod<bool,enum PlayerTypes,bool>
	add	esp, 8

; 663  : }

	pop	ebp
	ret	0
?lIsAdjacentPlayer@CvLuaPlot@@KAHPAUlua_State@@@Z ENDP	; CvLuaPlot::lIsAdjacentPlayer
_TEXT	ENDS
PUBLIC	??$BasicLuaMethod@_NW4TeamTypes@@_N@?$CvLuaMethodWrapper@VCvLuaPlot@@VCvPlot@@@@KAHPAUlua_State@@P8CvPlot@@BE_NW4TeamTypes@@_N@Z@Z ; CvLuaMethodWrapper<CvLuaPlot,CvPlot>::BasicLuaMethod<bool,enum TeamTypes,bool>
EXTRN	?isAdjacentTeam@CvPlot@@QBE_NW4TeamTypes@@_N@Z:PROC ; CvPlot::isAdjacentTeam
; Function compile flags: /Odtp
;	COMDAT ?lIsAdjacentTeam@CvLuaPlot@@KAHPAUlua_State@@@Z
_TEXT	SEGMENT
_L$ = 8							; size = 4
?lIsAdjacentTeam@CvLuaPlot@@KAHPAUlua_State@@@Z PROC	; CvLuaPlot::lIsAdjacentTeam, COMDAT

; 667  : {

	push	ebp
	mov	ebp, esp

; 668  : 	return BasicLuaMethod(L, &CvPlot::isAdjacentTeam);

	push	OFFSET ?isAdjacentTeam@CvPlot@@QBE_NW4TeamTypes@@_N@Z ; CvPlot::isAdjacentTeam
	mov	eax, DWORD PTR _L$[ebp]
	push	eax
	call	??$BasicLuaMethod@_NW4TeamTypes@@_N@?$CvLuaMethodWrapper@VCvLuaPlot@@VCvPlot@@@@KAHPAUlua_State@@P8CvPlot@@BE_NW4TeamTypes@@_N@Z@Z ; CvLuaMethodWrapper<CvLuaPlot,CvPlot>::BasicLuaMethod<bool,enum TeamTypes,bool>
	add	esp, 8

; 669  : }

	pop	ebp
	ret	0
?lIsAdjacentTeam@CvLuaPlot@@KAHPAUlua_State@@@Z ENDP	; CvLuaPlot::lIsAdjacentTeam
_TEXT	ENDS
EXTRN	?isOwned@CvPlot@@QBE_NXZ:PROC			; CvPlot::isOwned
; Function compile flags: /Odtp
;	COMDAT ?lIsOwned@CvLuaPlot@@KAHPAUlua_State@@@Z
_TEXT	SEGMENT
_L$ = 8							; size = 4
?lIsOwned@CvLuaPlot@@KAHPAUlua_State@@@Z PROC		; CvLuaPlot::lIsOwned, COMDAT

; 673  : {

	push	ebp
	mov	ebp, esp

; 674  : 	return BasicLuaMethod(L, &CvPlot::isOwned);

	push	OFFSET ?isOwned@CvPlot@@QBE_NXZ		; CvPlot::isOwned
	mov	eax, DWORD PTR _L$[ebp]
	push	eax
	call	??$BasicLuaMethod@_N@?$CvLuaMethodWrapper@VCvLuaPlot@@VCvPlot@@@@KAHPAUlua_State@@P8CvPlot@@BE_NXZ@Z ; CvLuaMethodWrapper<CvLuaPlot,CvPlot>::BasicLuaMethod<bool>
	add	esp, 8

; 675  : }

	pop	ebp
	ret	0
?lIsOwned@CvLuaPlot@@KAHPAUlua_State@@@Z ENDP		; CvLuaPlot::lIsOwned
_TEXT	ENDS
EXTRN	?isBarbarian@CvPlot@@QBE_NXZ:PROC		; CvPlot::isBarbarian
; Function compile flags: /Odtp
;	COMDAT ?lIsBarbarian@CvLuaPlot@@KAHPAUlua_State@@@Z
_TEXT	SEGMENT
_L$ = 8							; size = 4
?lIsBarbarian@CvLuaPlot@@KAHPAUlua_State@@@Z PROC	; CvLuaPlot::lIsBarbarian, COMDAT

; 679  : {

	push	ebp
	mov	ebp, esp

; 680  : 	return BasicLuaMethod(L, &CvPlot::isBarbarian);

	push	OFFSET ?isBarbarian@CvPlot@@QBE_NXZ	; CvPlot::isBarbarian
	mov	eax, DWORD PTR _L$[ebp]
	push	eax
	call	??$BasicLuaMethod@_N@?$CvLuaMethodWrapper@VCvLuaPlot@@VCvPlot@@@@KAHPAUlua_State@@P8CvPlot@@BE_NXZ@Z ; CvLuaMethodWrapper<CvLuaPlot,CvPlot>::BasicLuaMethod<bool>
	add	esp, 8

; 681  : }

	pop	ebp
	ret	0
?lIsBarbarian@CvLuaPlot@@KAHPAUlua_State@@@Z ENDP	; CvLuaPlot::lIsBarbarian
_TEXT	ENDS
EXTRN	?isRevealedBarbarian@CvPlot@@QBE_NXZ:PROC	; CvPlot::isRevealedBarbarian
; Function compile flags: /Odtp
;	COMDAT ?lIsRevealedBarbarian@CvLuaPlot@@KAHPAUlua_State@@@Z
_TEXT	SEGMENT
_L$ = 8							; size = 4
?lIsRevealedBarbarian@CvLuaPlot@@KAHPAUlua_State@@@Z PROC ; CvLuaPlot::lIsRevealedBarbarian, COMDAT

; 685  : {

	push	ebp
	mov	ebp, esp

; 686  : 	return BasicLuaMethod(L, &CvPlot::isRevealedBarbarian);

	push	OFFSET ?isRevealedBarbarian@CvPlot@@QBE_NXZ ; CvPlot::isRevealedBarbarian
	mov	eax, DWORD PTR _L$[ebp]
	push	eax
	call	??$BasicLuaMethod@_N@?$CvLuaMethodWrapper@VCvLuaPlot@@VCvPlot@@@@KAHPAUlua_State@@P8CvPlot@@BE_NXZ@Z ; CvLuaMethodWrapper<CvLuaPlot,CvPlot>::BasicLuaMethod<bool>
	add	esp, 8

; 687  : }

	pop	ebp
	ret	0
?lIsRevealedBarbarian@CvLuaPlot@@KAHPAUlua_State@@@Z ENDP ; CvLuaPlot::lIsRevealedBarbarian
_TEXT	ENDS
PUBLIC	??$BasicLuaMethod@_N@?$CvLuaMethodWrapper@VCvLuaPlot@@VCvPlot@@@@KAHPAUlua_State@@P8CvPlot@@AE_NXZ@Z ; CvLuaMethodWrapper<CvLuaPlot,CvPlot>::BasicLuaMethod<bool>
EXTRN	?HasBarbarianCamp@CvPlot@@QAE_NXZ:PROC		; CvPlot::HasBarbarianCamp
; Function compile flags: /Odtp
;	COMDAT ?lHasBarbarianCamp@CvLuaPlot@@KAHPAUlua_State@@@Z
_TEXT	SEGMENT
_L$ = 8							; size = 4
?lHasBarbarianCamp@CvLuaPlot@@KAHPAUlua_State@@@Z PROC	; CvLuaPlot::lHasBarbarianCamp, COMDAT

; 690  : {

	push	ebp
	mov	ebp, esp

; 691  : 	return BasicLuaMethod(L, &CvPlot::HasBarbarianCamp);

	push	OFFSET ?HasBarbarianCamp@CvPlot@@QAE_NXZ ; CvPlot::HasBarbarianCamp
	mov	eax, DWORD PTR _L$[ebp]
	push	eax
	call	??$BasicLuaMethod@_N@?$CvLuaMethodWrapper@VCvLuaPlot@@VCvPlot@@@@KAHPAUlua_State@@P8CvPlot@@AE_NXZ@Z ; CvLuaMethodWrapper<CvLuaPlot,CvPlot>::BasicLuaMethod<bool>
	add	esp, 8

; 692  : }

	pop	ebp
	ret	0
?lHasBarbarianCamp@CvLuaPlot@@KAHPAUlua_State@@@Z ENDP	; CvLuaPlot::lHasBarbarianCamp
_TEXT	ENDS
EXTRN	?isDebugMode@CvGame@@QBE_NXZ:PROC		; CvGame::isDebugMode
EXTRN	?gGlobals@@3VCvGlobals@@A:BYTE			; gGlobals
EXTRN	?luaL_optbool@@YA_NPAUlua_State@@H_N@Z:PROC	; luaL_optbool
; Function compile flags: /Odtp
;	COMDAT ?lIsVisible@CvLuaPlot@@KAHPAUlua_State@@@Z
_TEXT	SEGMENT
$T223810 = -17						; size = 1
$T223797 = -16						; size = 4
_bDebug$ = -9						; size = 1
_eTeam$ = -8						; size = 4
_pkPlot$ = -4						; size = 4
_L$ = 8							; size = 4
?lIsVisible@CvLuaPlot@@KAHPAUlua_State@@@Z PROC		; CvLuaPlot::lIsVisible, COMDAT

; 696  : {

	push	ebp
	mov	ebp, esp
	sub	esp, 20					; 00000014H

; 697  : 	CvPlot* pkPlot = GetInstance(L);

	push	1
	push	1
	mov	eax, DWORD PTR _L$[ebp]
	push	eax
	call	?GetInstance@?$CvLuaScopedInstance@VCvLuaPlot@@VCvPlot@@@@SAPAVCvPlot@@PAUlua_State@@H_N@Z ; CvLuaScopedInstance<CvLuaPlot,CvPlot>::GetInstance
	add	esp, 12					; 0000000cH
	mov	DWORD PTR _pkPlot$[ebp], eax

; 698  : 	const TeamTypes eTeam = (TeamTypes)lua_tointeger(L, 2);

	push	2
	mov	ecx, DWORD PTR _L$[ebp]
	push	ecx
	call	_lua_tointeger
	add	esp, 8
	mov	DWORD PTR _eTeam$[ebp], eax

; 699  : 	const bool bDebug = luaL_optbool(L, 3, false);

	push	0
	push	3
	mov	edx, DWORD PTR _L$[ebp]
	push	edx
	call	?luaL_optbool@@YA_NPAUlua_State@@H_N@Z	; luaL_optbool
	add	esp, 12					; 0000000cH
	mov	BYTE PTR _bDebug$[ebp], al

; 700  : 
; 701  : 	lua_pushboolean(L, pkPlot->isVisible(eTeam, bDebug));

	movzx	eax, BYTE PTR _bDebug$[ebp]
	test	eax, eax
	je	SHORT $LN5@lIsVisible
	mov	ecx, DWORD PTR ?gGlobals@@3VCvGlobals@@A+48
	mov	DWORD PTR $T223797[ebp], ecx
	mov	ecx, DWORD PTR $T223797[ebp]
	call	?isDebugMode@CvGame@@QBE_NXZ		; CvGame::isDebugMode
	movzx	edx, al
	test	edx, edx
	je	SHORT $LN5@lIsVisible
	mov	BYTE PTR $T223810[ebp], 1
	jmp	SHORT $LN6@lIsVisible
	jmp	SHORT $LN6@lIsVisible
$LN5@lIsVisible:
	cmp	DWORD PTR _eTeam$[ebp], -1
	jne	SHORT $LN10@lIsVisible
	mov	BYTE PTR $T223810[ebp], 0
	jmp	SHORT $LN6@lIsVisible
$LN10@lIsVisible:
	mov	eax, DWORD PTR _pkPlot$[ebp]
	mov	ecx, DWORD PTR [eax+156]
	mov	edx, DWORD PTR _eTeam$[ebp]
	movsx	eax, WORD PTR [ecx+edx*2]
	xor	ecx, ecx
	test	eax, eax
	setg	cl
	mov	BYTE PTR $T223810[ebp], cl
$LN6@lIsVisible:
	movzx	edx, BYTE PTR $T223810[ebp]
	push	edx
	mov	eax, DWORD PTR _L$[ebp]
	push	eax
	call	_lua_pushboolean
	add	esp, 8

; 702  : 	return 1;

	mov	eax, 1

; 703  : }

	mov	esp, ebp
	pop	ebp
	ret	0
?lIsVisible@CvLuaPlot@@KAHPAUlua_State@@@Z ENDP		; CvLuaPlot::lIsVisible
_TEXT	ENDS
EXTRN	?isActiveVisible@CvPlot@@QBE_N_N@Z:PROC		; CvPlot::isActiveVisible
EXTRN	?isActiveVisible@CvPlot@@QBE_NXZ:PROC		; CvPlot::isActiveVisible
; Function compile flags: /Odtp
;	COMDAT ?lIsActiveVisible@CvLuaPlot@@KAHPAUlua_State@@@Z
_TEXT	SEGMENT
_bDebug$ = -5						; size = 1
_pkPlot$ = -4						; size = 4
_L$ = 8							; size = 4
?lIsActiveVisible@CvLuaPlot@@KAHPAUlua_State@@@Z PROC	; CvLuaPlot::lIsActiveVisible, COMDAT

; 707  : {

	push	ebp
	mov	ebp, esp
	sub	esp, 8

; 708  : 	CvPlot* pkPlot = GetInstance(L);

	push	1
	push	1
	mov	eax, DWORD PTR _L$[ebp]
	push	eax
	call	?GetInstance@?$CvLuaScopedInstance@VCvLuaPlot@@VCvPlot@@@@SAPAVCvPlot@@PAUlua_State@@H_N@Z ; CvLuaScopedInstance<CvLuaPlot,CvPlot>::GetInstance
	add	esp, 12					; 0000000cH
	mov	DWORD PTR _pkPlot$[ebp], eax

; 709  : 	const bool bDebug = luaL_optbool(L, 2, false);

	push	0
	push	2
	mov	ecx, DWORD PTR _L$[ebp]
	push	ecx
	call	?luaL_optbool@@YA_NPAUlua_State@@H_N@Z	; luaL_optbool
	add	esp, 12					; 0000000cH
	mov	BYTE PTR _bDebug$[ebp], al

; 710  : 
; 711  : 	if (!bDebug)

	movzx	edx, BYTE PTR _bDebug$[ebp]
	test	edx, edx
	jne	SHORT $LN2@lIsActiveV

; 712  : 		lua_pushboolean(L, pkPlot->isActiveVisible());

	mov	ecx, DWORD PTR _pkPlot$[ebp]
	call	?isActiveVisible@CvPlot@@QBE_NXZ	; CvPlot::isActiveVisible
	movzx	eax, al
	push	eax
	mov	ecx, DWORD PTR _L$[ebp]
	push	ecx
	call	_lua_pushboolean
	add	esp, 8

; 713  : 	else

	jmp	SHORT $LN1@lIsActiveV
$LN2@lIsActiveV:

; 714  : 		lua_pushboolean(L, pkPlot->isActiveVisible(true));

	push	1
	mov	ecx, DWORD PTR _pkPlot$[ebp]
	call	?isActiveVisible@CvPlot@@QBE_N_N@Z	; CvPlot::isActiveVisible
	movzx	edx, al
	push	edx
	mov	eax, DWORD PTR _L$[ebp]
	push	eax
	call	_lua_pushboolean
	add	esp, 8
$LN1@lIsActiveV:

; 715  : 
; 716  : 	return 1;

	mov	eax, 1

; 717  : }

	mov	esp, ebp
	pop	ebp
	ret	0
?lIsActiveVisible@CvLuaPlot@@KAHPAUlua_State@@@Z ENDP	; CvLuaPlot::lIsActiveVisible
_TEXT	ENDS
EXTRN	?isVisibleToWatchingHuman@CvPlot@@QBE_NXZ:PROC	; CvPlot::isVisibleToWatchingHuman
; Function compile flags: /Odtp
;	COMDAT ?lIsVisibleToWatchingHuman@CvLuaPlot@@KAHPAUlua_State@@@Z
_TEXT	SEGMENT
_L$ = 8							; size = 4
?lIsVisibleToWatchingHuman@CvLuaPlot@@KAHPAUlua_State@@@Z PROC ; CvLuaPlot::lIsVisibleToWatchingHuman, COMDAT

; 721  : {

	push	ebp
	mov	ebp, esp

; 722  : 	return BasicLuaMethod(L, &CvPlot::isVisibleToWatchingHuman);

	push	OFFSET ?isVisibleToWatchingHuman@CvPlot@@QBE_NXZ ; CvPlot::isVisibleToWatchingHuman
	mov	eax, DWORD PTR _L$[ebp]
	push	eax
	call	??$BasicLuaMethod@_N@?$CvLuaMethodWrapper@VCvLuaPlot@@VCvPlot@@@@KAHPAUlua_State@@P8CvPlot@@BE_NXZ@Z ; CvLuaMethodWrapper<CvLuaPlot,CvPlot>::BasicLuaMethod<bool>
	add	esp, 8

; 723  : }

	pop	ebp
	ret	0
?lIsVisibleToWatchingHuman@CvLuaPlot@@KAHPAUlua_State@@@Z ENDP ; CvLuaPlot::lIsVisibleToWatchingHuman
_TEXT	ENDS
EXTRN	?isAdjacentVisible@CvPlot@@QBE_NW4TeamTypes@@_N@Z:PROC ; CvPlot::isAdjacentVisible
EXTRN	?isAdjacentVisible@CvPlot@@QBE_NW4TeamTypes@@@Z:PROC ; CvPlot::isAdjacentVisible
; Function compile flags: /Odtp
;	COMDAT ?lIsAdjacentVisible@CvLuaPlot@@KAHPAUlua_State@@@Z
_TEXT	SEGMENT
_bDebug$ = -9						; size = 1
_eTeam$ = -8						; size = 4
_pkPlot$ = -4						; size = 4
_L$ = 8							; size = 4
?lIsAdjacentVisible@CvLuaPlot@@KAHPAUlua_State@@@Z PROC	; CvLuaPlot::lIsAdjacentVisible, COMDAT

; 727  : {

	push	ebp
	mov	ebp, esp
	sub	esp, 12					; 0000000cH

; 728  : 	CvPlot* pkPlot = GetInstance(L);

	push	1
	push	1
	mov	eax, DWORD PTR _L$[ebp]
	push	eax
	call	?GetInstance@?$CvLuaScopedInstance@VCvLuaPlot@@VCvPlot@@@@SAPAVCvPlot@@PAUlua_State@@H_N@Z ; CvLuaScopedInstance<CvLuaPlot,CvPlot>::GetInstance
	add	esp, 12					; 0000000cH
	mov	DWORD PTR _pkPlot$[ebp], eax

; 729  : 	const TeamTypes eTeam = (TeamTypes)lua_tointeger(L, 2);

	push	2
	mov	ecx, DWORD PTR _L$[ebp]
	push	ecx
	call	_lua_tointeger
	add	esp, 8
	mov	DWORD PTR _eTeam$[ebp], eax

; 730  : 	const bool bDebug = luaL_optbool(L, 3, false);

	push	0
	push	3
	mov	edx, DWORD PTR _L$[ebp]
	push	edx
	call	?luaL_optbool@@YA_NPAUlua_State@@H_N@Z	; luaL_optbool
	add	esp, 12					; 0000000cH
	mov	BYTE PTR _bDebug$[ebp], al

; 731  : 
; 732  : 	if (!bDebug)

	movzx	eax, BYTE PTR _bDebug$[ebp]
	test	eax, eax
	jne	SHORT $LN2@lIsAdjacen

; 733  : 		lua_pushboolean(L, pkPlot->isAdjacentVisible(eTeam));

	mov	ecx, DWORD PTR _eTeam$[ebp]
	push	ecx
	mov	ecx, DWORD PTR _pkPlot$[ebp]
	call	?isAdjacentVisible@CvPlot@@QBE_NW4TeamTypes@@@Z ; CvPlot::isAdjacentVisible
	movzx	edx, al
	push	edx
	mov	eax, DWORD PTR _L$[ebp]
	push	eax
	call	_lua_pushboolean
	add	esp, 8

; 734  : 	else

	jmp	SHORT $LN1@lIsAdjacen
$LN2@lIsAdjacen:

; 735  : 		lua_pushboolean(L, pkPlot->isAdjacentVisible(eTeam, true));

	push	1
	mov	ecx, DWORD PTR _eTeam$[ebp]
	push	ecx
	mov	ecx, DWORD PTR _pkPlot$[ebp]
	call	?isAdjacentVisible@CvPlot@@QBE_NW4TeamTypes@@_N@Z ; CvPlot::isAdjacentVisible
	movzx	edx, al
	push	edx
	mov	eax, DWORD PTR _L$[ebp]
	push	eax
	call	_lua_pushboolean
	add	esp, 8
$LN1@lIsAdjacen:

; 736  : 
; 737  : 	return 1;

	mov	eax, 1

; 738  : }

	mov	esp, ebp
	pop	ebp
	ret	0
?lIsAdjacentVisible@CvLuaPlot@@KAHPAUlua_State@@@Z ENDP	; CvLuaPlot::lIsAdjacentVisible
_TEXT	ENDS
PUBLIC	??$BasicLuaMethod@_NW4TeamTypes@@@?$CvLuaMethodWrapper@VCvLuaPlot@@VCvPlot@@@@KAHPAUlua_State@@P8CvPlot@@BE_NW4TeamTypes@@@Z@Z ; CvLuaMethodWrapper<CvLuaPlot,CvPlot>::BasicLuaMethod<bool,enum TeamTypes>
EXTRN	?isAdjacentNonvisible@CvPlot@@QBE_NW4TeamTypes@@@Z:PROC ; CvPlot::isAdjacentNonvisible
; Function compile flags: /Odtp
;	COMDAT ?lIsAdjacentNonvisible@CvLuaPlot@@KAHPAUlua_State@@@Z
_TEXT	SEGMENT
_L$ = 8							; size = 4
?lIsAdjacentNonvisible@CvLuaPlot@@KAHPAUlua_State@@@Z PROC ; CvLuaPlot::lIsAdjacentNonvisible, COMDAT

; 742  : {

	push	ebp
	mov	ebp, esp

; 743  : 	return BasicLuaMethod(L, &CvPlot::isAdjacentNonvisible);

	push	OFFSET ?isAdjacentNonvisible@CvPlot@@QBE_NW4TeamTypes@@@Z ; CvPlot::isAdjacentNonvisible
	mov	eax, DWORD PTR _L$[ebp]
	push	eax
	call	??$BasicLuaMethod@_NW4TeamTypes@@@?$CvLuaMethodWrapper@VCvLuaPlot@@VCvPlot@@@@KAHPAUlua_State@@P8CvPlot@@BE_NW4TeamTypes@@@Z@Z ; CvLuaMethodWrapper<CvLuaPlot,CvPlot>::BasicLuaMethod<bool,enum TeamTypes>
	add	esp, 8

; 744  : }

	pop	ebp
	ret	0
?lIsAdjacentNonvisible@CvLuaPlot@@KAHPAUlua_State@@@Z ENDP ; CvLuaPlot::lIsAdjacentNonvisible
_TEXT	ENDS
EXTRN	?isAdjacentRevealed@CvPlot@@QBE_NW4TeamTypes@@@Z:PROC ; CvPlot::isAdjacentRevealed
; Function compile flags: /Odtp
;	COMDAT ?lIsAdjacentRevealed@CvLuaPlot@@KAHPAUlua_State@@@Z
_TEXT	SEGMENT
_L$ = 8							; size = 4
?lIsAdjacentRevealed@CvLuaPlot@@KAHPAUlua_State@@@Z PROC ; CvLuaPlot::lIsAdjacentRevealed, COMDAT

; 748  : {

	push	ebp
	mov	ebp, esp

; 749  : 	return BasicLuaMethod(L, &CvPlot::isAdjacentRevealed);

	push	OFFSET ?isAdjacentRevealed@CvPlot@@QBE_NW4TeamTypes@@@Z ; CvPlot::isAdjacentRevealed
	mov	eax, DWORD PTR _L$[ebp]
	push	eax
	call	??$BasicLuaMethod@_NW4TeamTypes@@@?$CvLuaMethodWrapper@VCvLuaPlot@@VCvPlot@@@@KAHPAUlua_State@@P8CvPlot@@BE_NW4TeamTypes@@@Z@Z ; CvLuaMethodWrapper<CvLuaPlot,CvPlot>::BasicLuaMethod<bool,enum TeamTypes>
	add	esp, 8

; 750  : }

	pop	ebp
	ret	0
?lIsAdjacentRevealed@CvLuaPlot@@KAHPAUlua_State@@@Z ENDP ; CvLuaPlot::lIsAdjacentRevealed
_TEXT	ENDS
EXTRN	?isAdjacentNonrevealed@CvPlot@@QBE_NW4TeamTypes@@@Z:PROC ; CvPlot::isAdjacentNonrevealed
; Function compile flags: /Odtp
;	COMDAT ?lIsAdjacentNonrevealed@CvLuaPlot@@KAHPAUlua_State@@@Z
_TEXT	SEGMENT
_L$ = 8							; size = 4
?lIsAdjacentNonrevealed@CvLuaPlot@@KAHPAUlua_State@@@Z PROC ; CvLuaPlot::lIsAdjacentNonrevealed, COMDAT

; 754  : {

	push	ebp
	mov	ebp, esp

; 755  : 	return BasicLuaMethod(L, &CvPlot::isAdjacentNonrevealed);

	push	OFFSET ?isAdjacentNonrevealed@CvPlot@@QBE_NW4TeamTypes@@@Z ; CvPlot::isAdjacentNonrevealed
	mov	eax, DWORD PTR _L$[ebp]
	push	eax
	call	??$BasicLuaMethod@_NW4TeamTypes@@@?$CvLuaMethodWrapper@VCvLuaPlot@@VCvPlot@@@@KAHPAUlua_State@@P8CvPlot@@BE_NW4TeamTypes@@@Z@Z ; CvLuaMethodWrapper<CvLuaPlot,CvPlot>::BasicLuaMethod<bool,enum TeamTypes>
	add	esp, 8

; 756  : }

	pop	ebp
	ret	0
?lIsAdjacentNonrevealed@CvLuaPlot@@KAHPAUlua_State@@@Z ENDP ; CvLuaPlot::lIsAdjacentNonrevealed
_TEXT	ENDS
EXTRN	?removeGoody@CvPlot@@QAEXXZ:PROC		; CvPlot::removeGoody
; Function compile flags: /Odtp
;	COMDAT ?lRemoveGoody@CvLuaPlot@@KAHPAUlua_State@@@Z
_TEXT	SEGMENT
_L$ = 8							; size = 4
?lRemoveGoody@CvLuaPlot@@KAHPAUlua_State@@@Z PROC	; CvLuaPlot::lRemoveGoody, COMDAT

; 761  : {

	push	ebp
	mov	ebp, esp

; 762  : 	return BasicLuaMethod(L, &CvPlot::removeGoody);

	push	OFFSET ?removeGoody@CvPlot@@QAEXXZ	; CvPlot::removeGoody
	mov	eax, DWORD PTR _L$[ebp]
	push	eax
	call	?BasicLuaMethod@?$CvLuaMethodWrapper@VCvLuaPlot@@VCvPlot@@@@KAHPAUlua_State@@P8CvPlot@@AEXXZ@Z ; CvLuaMethodWrapper<CvLuaPlot,CvPlot>::BasicLuaMethod
	add	esp, 8

; 763  : }

	pop	ebp
	ret	0
?lRemoveGoody@CvLuaPlot@@KAHPAUlua_State@@@Z ENDP	; CvLuaPlot::lRemoveGoody
_TEXT	ENDS
EXTRN	?isGoody@CvPlot@@QBE_NW4TeamTypes@@@Z:PROC	; CvPlot::isGoody
; Function compile flags: /Odtp
;	COMDAT ?lIsGoody@CvLuaPlot@@KAHPAUlua_State@@@Z
_TEXT	SEGMENT
_L$ = 8							; size = 4
?lIsGoody@CvLuaPlot@@KAHPAUlua_State@@@Z PROC		; CvLuaPlot::lIsGoody, COMDAT

; 767  : {

	push	ebp
	mov	ebp, esp

; 768  : 	return BasicLuaMethod(L, &CvPlot::isGoody);

	push	OFFSET ?isGoody@CvPlot@@QBE_NW4TeamTypes@@@Z ; CvPlot::isGoody
	mov	eax, DWORD PTR _L$[ebp]
	push	eax
	call	??$BasicLuaMethod@_NW4TeamTypes@@@?$CvLuaMethodWrapper@VCvLuaPlot@@VCvPlot@@@@KAHPAUlua_State@@P8CvPlot@@BE_NW4TeamTypes@@@Z@Z ; CvLuaMethodWrapper<CvLuaPlot,CvPlot>::BasicLuaMethod<bool,enum TeamTypes>
	add	esp, 8

; 769  : }

	pop	ebp
	ret	0
?lIsGoody@CvLuaPlot@@KAHPAUlua_State@@@Z ENDP		; CvLuaPlot::lIsGoody
_TEXT	ENDS
EXTRN	?isRevealedGoody@CvPlot@@QBE_NW4TeamTypes@@@Z:PROC ; CvPlot::isRevealedGoody
; Function compile flags: /Odtp
;	COMDAT ?lIsRevealedGoody@CvLuaPlot@@KAHPAUlua_State@@@Z
_TEXT	SEGMENT
_L$ = 8							; size = 4
?lIsRevealedGoody@CvLuaPlot@@KAHPAUlua_State@@@Z PROC	; CvLuaPlot::lIsRevealedGoody, COMDAT

; 773  : {

	push	ebp
	mov	ebp, esp

; 774  : 	return BasicLuaMethod(L, &CvPlot::isRevealedGoody);

	push	OFFSET ?isRevealedGoody@CvPlot@@QBE_NW4TeamTypes@@@Z ; CvPlot::isRevealedGoody
	mov	eax, DWORD PTR _L$[ebp]
	push	eax
	call	??$BasicLuaMethod@_NW4TeamTypes@@@?$CvLuaMethodWrapper@VCvLuaPlot@@VCvPlot@@@@KAHPAUlua_State@@P8CvPlot@@BE_NW4TeamTypes@@@Z@Z ; CvLuaMethodWrapper<CvLuaPlot,CvPlot>::BasicLuaMethod<bool,enum TeamTypes>
	add	esp, 8

; 775  : }

	pop	ebp
	ret	0
?lIsRevealedGoody@CvLuaPlot@@KAHPAUlua_State@@@Z ENDP	; CvLuaPlot::lIsRevealedGoody
_TEXT	ENDS
EXTRN	?IsFriendlyTerritory@CvPlot@@QBE_NW4PlayerTypes@@@Z:PROC ; CvPlot::IsFriendlyTerritory
; Function compile flags: /Odtp
;	COMDAT ?lIsFriendlyTerritory@CvLuaPlot@@KAHPAUlua_State@@@Z
_TEXT	SEGMENT
_ePlayer$ = -12						; size = 4
_bResult$ = -5						; size = 1
_pkPlot$ = -4						; size = 4
_L$ = 8							; size = 4
?lIsFriendlyTerritory@CvLuaPlot@@KAHPAUlua_State@@@Z PROC ; CvLuaPlot::lIsFriendlyTerritory, COMDAT

; 779  : {

	push	ebp
	mov	ebp, esp
	sub	esp, 12					; 0000000cH

; 780  : 	CvPlot* pkPlot = GetInstance(L);

	push	1
	push	1
	mov	eax, DWORD PTR _L$[ebp]
	push	eax
	call	?GetInstance@?$CvLuaScopedInstance@VCvLuaPlot@@VCvPlot@@@@SAPAVCvPlot@@PAUlua_State@@H_N@Z ; CvLuaScopedInstance<CvLuaPlot,CvPlot>::GetInstance
	add	esp, 12					; 0000000cH
	mov	DWORD PTR _pkPlot$[ebp], eax

; 781  : 	const PlayerTypes ePlayer = (PlayerTypes) lua_tointeger(L, 2);

	push	2
	mov	ecx, DWORD PTR _L$[ebp]
	push	ecx
	call	_lua_tointeger
	add	esp, 8
	mov	DWORD PTR _ePlayer$[ebp], eax

; 782  : 
; 783  : 	const bool bResult = pkPlot->IsFriendlyTerritory(ePlayer);

	mov	edx, DWORD PTR _ePlayer$[ebp]
	push	edx
	mov	ecx, DWORD PTR _pkPlot$[ebp]
	call	?IsFriendlyTerritory@CvPlot@@QBE_NW4PlayerTypes@@@Z ; CvPlot::IsFriendlyTerritory
	mov	BYTE PTR _bResult$[ebp], al

; 784  : 	lua_pushboolean(L, bResult);

	movzx	eax, BYTE PTR _bResult$[ebp]
	push	eax
	mov	ecx, DWORD PTR _L$[ebp]
	push	ecx
	call	_lua_pushboolean
	add	esp, 8

; 785  : 	return 1;

	mov	eax, 1

; 786  : }

	mov	esp, ebp
	pop	ebp
	ret	0
?lIsFriendlyTerritory@CvLuaPlot@@KAHPAUlua_State@@@Z ENDP ; CvLuaPlot::lIsFriendlyTerritory
_TEXT	ENDS
PUBLIC	?isCity@CvPlot@@QBE_NXZ				; CvPlot::isCity
; Function compile flags: /Odtp
;	COMDAT ?lIsCity@CvLuaPlot@@KAHPAUlua_State@@@Z
_TEXT	SEGMENT
_L$ = 8							; size = 4
?lIsCity@CvLuaPlot@@KAHPAUlua_State@@@Z PROC		; CvLuaPlot::lIsCity, COMDAT

; 791  : {

	push	ebp
	mov	ebp, esp

; 792  : 	return BasicLuaMethod(L, &CvPlot::isCity);

	push	OFFSET ?isCity@CvPlot@@QBE_NXZ		; CvPlot::isCity
	mov	eax, DWORD PTR _L$[ebp]
	push	eax
	call	??$BasicLuaMethod@_N@?$CvLuaMethodWrapper@VCvLuaPlot@@VCvPlot@@@@KAHPAUlua_State@@P8CvPlot@@BE_NXZ@Z ; CvLuaMethodWrapper<CvLuaPlot,CvPlot>::BasicLuaMethod<bool>
	add	esp, 8

; 793  : }

	pop	ebp
	ret	0
?lIsCity@CvLuaPlot@@KAHPAUlua_State@@@Z ENDP		; CvLuaPlot::lIsCity
_TEXT	ENDS
EXTRN	?isFriendlyCity@CvPlot@@QBE_NABVCvUnit@@_N@Z:PROC ; CvPlot::isFriendlyCity
; Function compile flags: /Odtp
;	COMDAT ?lIsFriendlyCity@CvLuaPlot@@KAHPAUlua_State@@@Z
_TEXT	SEGMENT
_pkUnit$ = -12						; size = 4
_bResult$ = -6						; size = 1
_bCheckImprovement$ = -5				; size = 1
_pkPlot$ = -4						; size = 4
_L$ = 8							; size = 4
?lIsFriendlyCity@CvLuaPlot@@KAHPAUlua_State@@@Z PROC	; CvLuaPlot::lIsFriendlyCity, COMDAT

; 797  : {

	push	ebp
	mov	ebp, esp
	sub	esp, 12					; 0000000cH

; 798  : 	CvPlot* pkPlot = GetInstance(L);

	push	1
	push	1
	mov	eax, DWORD PTR _L$[ebp]
	push	eax
	call	?GetInstance@?$CvLuaScopedInstance@VCvLuaPlot@@VCvPlot@@@@SAPAVCvPlot@@PAUlua_State@@H_N@Z ; CvLuaScopedInstance<CvLuaPlot,CvPlot>::GetInstance
	add	esp, 12					; 0000000cH
	mov	DWORD PTR _pkPlot$[ebp], eax

; 799  : 	CvUnit* pkUnit = CvLuaUnit::GetInstance(L, 2);

	push	1
	push	2
	mov	ecx, DWORD PTR _L$[ebp]
	push	ecx
	call	?GetInstance@?$CvLuaScopedInstance@VCvLuaUnit@@VCvUnit@@@@SAPAVCvUnit@@PAUlua_State@@H_N@Z ; CvLuaScopedInstance<CvLuaUnit,CvUnit>::GetInstance
	add	esp, 12					; 0000000cH
	mov	DWORD PTR _pkUnit$[ebp], eax

; 800  : 	const bool bCheckImprovement = lua_toboolean(L, 3);

	push	3
	mov	edx, DWORD PTR _L$[ebp]
	push	edx
	call	_lua_toboolean
	add	esp, 8
	test	eax, eax
	setne	al
	mov	BYTE PTR _bCheckImprovement$[ebp], al

; 801  : 
; 802  : 	const bool bResult = pkPlot->isFriendlyCity(*pkUnit, bCheckImprovement);

	movzx	ecx, BYTE PTR _bCheckImprovement$[ebp]
	push	ecx
	mov	edx, DWORD PTR _pkUnit$[ebp]
	push	edx
	mov	ecx, DWORD PTR _pkPlot$[ebp]
	call	?isFriendlyCity@CvPlot@@QBE_NABVCvUnit@@_N@Z ; CvPlot::isFriendlyCity
	mov	BYTE PTR _bResult$[ebp], al

; 803  : 	lua_pushboolean(L, bResult);

	movzx	eax, BYTE PTR _bResult$[ebp]
	push	eax
	mov	ecx, DWORD PTR _L$[ebp]
	push	ecx
	call	_lua_pushboolean
	add	esp, 8

; 804  : 	return 1;

	mov	eax, 1

; 805  : }

	mov	esp, ebp
	pop	ebp
	ret	0
?lIsFriendlyCity@CvLuaPlot@@KAHPAUlua_State@@@Z ENDP	; CvLuaPlot::lIsFriendlyCity
_TEXT	ENDS
PUBLIC	?getPlotCity@CvPlot@@QBEPAVCvCity@@XZ		; CvPlot::getPlotCity
EXTRN	?isEnemy@CvUnit@@QBE_NW4TeamTypes@@PBVCvPlot@@@Z:PROC ; CvUnit::isEnemy
EXTRN	?getTeam@CvCity@@QBE?AW4TeamTypes@@XZ:PROC	; CvCity::getTeam
; Function compile flags: /Odtp
;	COMDAT ?lIsEnemyCity@CvLuaPlot@@KAHPAUlua_State@@@Z
_TEXT	SEGMENT
_pCity$223844 = -16					; size = 4
_pkUnit$ = -12						; size = 4
_bResult$ = -5						; size = 1
_pkPlot$ = -4						; size = 4
_L$ = 8							; size = 4
?lIsEnemyCity@CvLuaPlot@@KAHPAUlua_State@@@Z PROC	; CvLuaPlot::lIsEnemyCity, COMDAT

; 809  : {

	push	ebp
	mov	ebp, esp
	sub	esp, 20					; 00000014H

; 810  : 	CvPlot* pkPlot = GetInstance(L);

	push	1
	push	1
	mov	eax, DWORD PTR _L$[ebp]
	push	eax
	call	?GetInstance@?$CvLuaScopedInstance@VCvLuaPlot@@VCvPlot@@@@SAPAVCvPlot@@PAUlua_State@@H_N@Z ; CvLuaScopedInstance<CvLuaPlot,CvPlot>::GetInstance
	add	esp, 12					; 0000000cH
	mov	DWORD PTR _pkPlot$[ebp], eax

; 811  : 	CvUnit* pkUnit = CvLuaUnit::GetInstance(L, 2);

	push	1
	push	2
	mov	ecx, DWORD PTR _L$[ebp]
	push	ecx
	call	?GetInstance@?$CvLuaScopedInstance@VCvLuaUnit@@VCvUnit@@@@SAPAVCvUnit@@PAUlua_State@@H_N@Z ; CvLuaScopedInstance<CvLuaUnit,CvUnit>::GetInstance
	add	esp, 12					; 0000000cH
	mov	DWORD PTR _pkUnit$[ebp], eax

; 812  : 	const bool bResult = pkPlot->isEnemyCity(*pkUnit);

	mov	ecx, DWORD PTR _pkPlot$[ebp]
	call	?getPlotCity@CvPlot@@QBEPAVCvCity@@XZ	; CvPlot::getPlotCity
	mov	DWORD PTR _pCity$223844[ebp], eax
	cmp	DWORD PTR _pCity$223844[ebp], 0
	je	SHORT $LN3@lIsEnemyCi
	mov	edx, DWORD PTR _pkPlot$[ebp]
	push	edx
	mov	ecx, DWORD PTR _pCity$223844[ebp]
	call	?getTeam@CvCity@@QBE?AW4TeamTypes@@XZ	; CvCity::getTeam
	push	eax
	mov	ecx, DWORD PTR _pkUnit$[ebp]
	call	?isEnemy@CvUnit@@QBE_NW4TeamTypes@@PBVCvPlot@@@Z ; CvUnit::isEnemy
	mov	BYTE PTR _bResult$[ebp], al
	jmp	SHORT $LN4@lIsEnemyCi
$LN3@lIsEnemyCi:
	mov	BYTE PTR _bResult$[ebp], 0
$LN4@lIsEnemyCi:

; 813  : 	lua_pushboolean(L, bResult);

	movzx	eax, BYTE PTR _bResult$[ebp]
	push	eax
	mov	ecx, DWORD PTR _L$[ebp]
	push	ecx
	call	_lua_pushboolean
	add	esp, 8

; 814  : 	return 1;

	mov	eax, 1

; 815  : }

	mov	esp, ebp
	pop	ebp
	ret	0
?lIsEnemyCity@CvLuaPlot@@KAHPAUlua_State@@@Z ENDP	; CvLuaPlot::lIsEnemyCity
_TEXT	ENDS
EXTRN	?isBeingWorked@CvPlot@@QBE_NXZ:PROC		; CvPlot::isBeingWorked
; Function compile flags: /Odtp
;	COMDAT ?lIsBeingWorked@CvLuaPlot@@KAHPAUlua_State@@@Z
_TEXT	SEGMENT
_L$ = 8							; size = 4
?lIsBeingWorked@CvLuaPlot@@KAHPAUlua_State@@@Z PROC	; CvLuaPlot::lIsBeingWorked, COMDAT

; 819  : {

	push	ebp
	mov	ebp, esp

; 820  : 	return BasicLuaMethod(L, &CvPlot::isBeingWorked);

	push	OFFSET ?isBeingWorked@CvPlot@@QBE_NXZ	; CvPlot::isBeingWorked
	mov	eax, DWORD PTR _L$[ebp]
	push	eax
	call	??$BasicLuaMethod@_N@?$CvLuaMethodWrapper@VCvLuaPlot@@VCvPlot@@@@KAHPAUlua_State@@P8CvPlot@@BE_NXZ@Z ; CvLuaMethodWrapper<CvLuaPlot,CvPlot>::BasicLuaMethod<bool>
	add	esp, 8

; 821  : }

	pop	ebp
	ret	0
?lIsBeingWorked@CvLuaPlot@@KAHPAUlua_State@@@Z ENDP	; CvLuaPlot::lIsBeingWorked
_TEXT	ENDS
EXTRN	?isUnit@CvPlot@@QBE_NXZ:PROC			; CvPlot::isUnit
; Function compile flags: /Odtp
;	COMDAT ?lIsUnit@CvLuaPlot@@KAHPAUlua_State@@@Z
_TEXT	SEGMENT
_L$ = 8							; size = 4
?lIsUnit@CvLuaPlot@@KAHPAUlua_State@@@Z PROC		; CvLuaPlot::lIsUnit, COMDAT

; 826  : {

	push	ebp
	mov	ebp, esp

; 827  : 	return BasicLuaMethod(L, &CvPlot::isUnit);

	push	OFFSET ?isUnit@CvPlot@@QBE_NXZ		; CvPlot::isUnit
	mov	eax, DWORD PTR _L$[ebp]
	push	eax
	call	??$BasicLuaMethod@_N@?$CvLuaMethodWrapper@VCvLuaPlot@@VCvPlot@@@@KAHPAUlua_State@@P8CvPlot@@BE_NXZ@Z ; CvLuaMethodWrapper<CvLuaPlot,CvPlot>::BasicLuaMethod<bool>
	add	esp, 8

; 828  : }

	pop	ebp
	ret	0
?lIsUnit@CvLuaPlot@@KAHPAUlua_State@@@Z ENDP		; CvLuaPlot::lIsUnit
_TEXT	ENDS
EXTRN	?isVisibleEnemyDefender@CvPlot@@QBE_NPBVCvUnit@@@Z:PROC ; CvPlot::isVisibleEnemyDefender
; Function compile flags: /Odtp
;	COMDAT ?lIsVisibleEnemyDefender@CvLuaPlot@@KAHPAUlua_State@@@Z
_TEXT	SEGMENT
_pkUnit$ = -12						; size = 4
_bResult$ = -5						; size = 1
_pkPlot$ = -4						; size = 4
_L$ = 8							; size = 4
?lIsVisibleEnemyDefender@CvLuaPlot@@KAHPAUlua_State@@@Z PROC ; CvLuaPlot::lIsVisibleEnemyDefender, COMDAT

; 832  : {

	push	ebp
	mov	ebp, esp
	sub	esp, 12					; 0000000cH

; 833  : 	CvPlot* pkPlot = GetInstance(L);

	push	1
	push	1
	mov	eax, DWORD PTR _L$[ebp]
	push	eax
	call	?GetInstance@?$CvLuaScopedInstance@VCvLuaPlot@@VCvPlot@@@@SAPAVCvPlot@@PAUlua_State@@H_N@Z ; CvLuaScopedInstance<CvLuaPlot,CvPlot>::GetInstance
	add	esp, 12					; 0000000cH
	mov	DWORD PTR _pkPlot$[ebp], eax

; 834  : 	CvUnit* pkUnit = CvLuaUnit::GetInstance(L, 2);

	push	1
	push	2
	mov	ecx, DWORD PTR _L$[ebp]
	push	ecx
	call	?GetInstance@?$CvLuaScopedInstance@VCvLuaUnit@@VCvUnit@@@@SAPAVCvUnit@@PAUlua_State@@H_N@Z ; CvLuaScopedInstance<CvLuaUnit,CvUnit>::GetInstance
	add	esp, 12					; 0000000cH
	mov	DWORD PTR _pkUnit$[ebp], eax

; 835  : 	const bool bResult = pkPlot->isVisibleEnemyDefender(pkUnit);

	mov	edx, DWORD PTR _pkUnit$[ebp]
	push	edx
	mov	ecx, DWORD PTR _pkPlot$[ebp]
	call	?isVisibleEnemyDefender@CvPlot@@QBE_NPBVCvUnit@@@Z ; CvPlot::isVisibleEnemyDefender
	mov	BYTE PTR _bResult$[ebp], al

; 836  : 	lua_pushboolean(L, bResult);

	movzx	eax, BYTE PTR _bResult$[ebp]
	push	eax
	mov	ecx, DWORD PTR _L$[ebp]
	push	ecx
	call	_lua_pushboolean
	add	esp, 8

; 837  : 
; 838  : 	return 1;

	mov	eax, 1

; 839  : }

	mov	esp, ebp
	pop	ebp
	ret	0
?lIsVisibleEnemyDefender@CvLuaPlot@@KAHPAUlua_State@@@Z ENDP ; CvLuaPlot::lIsVisibleEnemyDefender
_TEXT	ENDS
EXTRN	?getNumDefenders@CvPlot@@QBEHW4PlayerTypes@@@Z:PROC ; CvPlot::getNumDefenders
; Function compile flags: /Odtp
;	COMDAT ?lGetNumDefenders@CvLuaPlot@@KAHPAUlua_State@@@Z
_TEXT	SEGMENT
_L$ = 8							; size = 4
?lGetNumDefenders@CvLuaPlot@@KAHPAUlua_State@@@Z PROC	; CvLuaPlot::lGetNumDefenders, COMDAT

; 843  : {

	push	ebp
	mov	ebp, esp

; 844  : 	return BasicLuaMethod(L, &CvPlot::getNumDefenders);

	push	OFFSET ?getNumDefenders@CvPlot@@QBEHW4PlayerTypes@@@Z ; CvPlot::getNumDefenders
	mov	eax, DWORD PTR _L$[ebp]
	push	eax
	call	??$BasicLuaMethod@HW4PlayerTypes@@@?$CvLuaMethodWrapper@VCvLuaPlot@@VCvPlot@@@@KAHPAUlua_State@@P8CvPlot@@BEHW4PlayerTypes@@@Z@Z ; CvLuaMethodWrapper<CvLuaPlot,CvPlot>::BasicLuaMethod<int,enum PlayerTypes>
	add	esp, 8

; 845  : }

	pop	ebp
	ret	0
?lGetNumDefenders@CvLuaPlot@@KAHPAUlua_State@@@Z ENDP	; CvLuaPlot::lGetNumDefenders
_TEXT	ENDS
PUBLIC	??$BasicLuaMethod@HPBVCvUnit@@@?$CvLuaMethodWrapper@VCvLuaPlot@@VCvPlot@@@@KAHPAUlua_State@@P8CvPlot@@BEHPBVCvUnit@@@Z@Z ; CvLuaMethodWrapper<CvLuaPlot,CvPlot>::BasicLuaMethod<int,CvUnit const *>
EXTRN	?getNumVisibleEnemyDefenders@CvPlot@@QBEHPBVCvUnit@@@Z:PROC ; CvPlot::getNumVisibleEnemyDefenders
; Function compile flags: /Odtp
;	COMDAT ?lGetNumVisibleEnemyDefenders@CvLuaPlot@@KAHPAUlua_State@@@Z
_TEXT	SEGMENT
_L$ = 8							; size = 4
?lGetNumVisibleEnemyDefenders@CvLuaPlot@@KAHPAUlua_State@@@Z PROC ; CvLuaPlot::lGetNumVisibleEnemyDefenders, COMDAT

; 849  : {

	push	ebp
	mov	ebp, esp

; 850  : 	return BasicLuaMethod(L, &CvPlot::getNumVisibleEnemyDefenders);

	push	OFFSET ?getNumVisibleEnemyDefenders@CvPlot@@QBEHPBVCvUnit@@@Z ; CvPlot::getNumVisibleEnemyDefenders
	mov	eax, DWORD PTR _L$[ebp]
	push	eax
	call	??$BasicLuaMethod@HPBVCvUnit@@@?$CvLuaMethodWrapper@VCvLuaPlot@@VCvPlot@@@@KAHPAUlua_State@@P8CvPlot@@BEHPBVCvUnit@@@Z@Z ; CvLuaMethodWrapper<CvLuaPlot,CvPlot>::BasicLuaMethod<int,CvUnit const *>
	add	esp, 8

; 851  : }

	pop	ebp
	ret	0
?lGetNumVisibleEnemyDefenders@CvLuaPlot@@KAHPAUlua_State@@@Z ENDP ; CvLuaPlot::lGetNumVisibleEnemyDefenders
_TEXT	ENDS
EXTRN	?getNumVisiblePotentialEnemyDefenders@CvPlot@@QBEHPBVCvUnit@@@Z:PROC ; CvPlot::getNumVisiblePotentialEnemyDefenders
; Function compile flags: /Odtp
;	COMDAT ?lGetNumVisiblePotentialEnemyDefenders@CvLuaPlot@@KAHPAUlua_State@@@Z
_TEXT	SEGMENT
_L$ = 8							; size = 4
?lGetNumVisiblePotentialEnemyDefenders@CvLuaPlot@@KAHPAUlua_State@@@Z PROC ; CvLuaPlot::lGetNumVisiblePotentialEnemyDefenders, COMDAT

; 855  : {

	push	ebp
	mov	ebp, esp

; 856  : 	return BasicLuaMethod(L, &CvPlot::getNumVisiblePotentialEnemyDefenders);

	push	OFFSET ?getNumVisiblePotentialEnemyDefenders@CvPlot@@QBEHPBVCvUnit@@@Z ; CvPlot::getNumVisiblePotentialEnemyDefenders
	mov	eax, DWORD PTR _L$[ebp]
	push	eax
	call	??$BasicLuaMethod@HPBVCvUnit@@@?$CvLuaMethodWrapper@VCvLuaPlot@@VCvPlot@@@@KAHPAUlua_State@@P8CvPlot@@BEHPBVCvUnit@@@Z@Z ; CvLuaMethodWrapper<CvLuaPlot,CvPlot>::BasicLuaMethod<int,CvUnit const *>
	add	esp, 8

; 857  : }

	pop	ebp
	ret	0
?lGetNumVisiblePotentialEnemyDefenders@CvLuaPlot@@KAHPAUlua_State@@@Z ENDP ; CvLuaPlot::lGetNumVisiblePotentialEnemyDefenders
_TEXT	ENDS
EXTRN	?isVisibleEnemyUnit@CvPlot@@QBE_NW4PlayerTypes@@@Z:PROC ; CvPlot::isVisibleEnemyUnit
; Function compile flags: /Odtp
;	COMDAT ?lIsVisibleEnemyUnit@CvLuaPlot@@KAHPAUlua_State@@@Z
_TEXT	SEGMENT
_ePlayer$ = -12						; size = 4
_bResult$ = -5						; size = 1
_pkPlot$ = -4						; size = 4
_L$ = 8							; size = 4
?lIsVisibleEnemyUnit@CvLuaPlot@@KAHPAUlua_State@@@Z PROC ; CvLuaPlot::lIsVisibleEnemyUnit, COMDAT

; 861  : {

	push	ebp
	mov	ebp, esp
	sub	esp, 12					; 0000000cH

; 862  : 	CvPlot* pkPlot = GetInstance(L);

	push	1
	push	1
	mov	eax, DWORD PTR _L$[ebp]
	push	eax
	call	?GetInstance@?$CvLuaScopedInstance@VCvLuaPlot@@VCvPlot@@@@SAPAVCvPlot@@PAUlua_State@@H_N@Z ; CvLuaScopedInstance<CvLuaPlot,CvPlot>::GetInstance
	add	esp, 12					; 0000000cH
	mov	DWORD PTR _pkPlot$[ebp], eax

; 863  : 	const PlayerTypes ePlayer = (PlayerTypes)lua_tointeger(L, 2);

	push	2
	mov	ecx, DWORD PTR _L$[ebp]
	push	ecx
	call	_lua_tointeger
	add	esp, 8
	mov	DWORD PTR _ePlayer$[ebp], eax

; 864  : 	const bool bResult = pkPlot->isVisibleEnemyUnit(ePlayer);

	mov	edx, DWORD PTR _ePlayer$[ebp]
	push	edx
	mov	ecx, DWORD PTR _pkPlot$[ebp]
	call	?isVisibleEnemyUnit@CvPlot@@QBE_NW4PlayerTypes@@@Z ; CvPlot::isVisibleEnemyUnit
	mov	BYTE PTR _bResult$[ebp], al

; 865  : 	lua_pushboolean(L, bResult);

	movzx	eax, BYTE PTR _bResult$[ebp]
	push	eax
	mov	ecx, DWORD PTR _L$[ebp]
	push	ecx
	call	_lua_pushboolean
	add	esp, 8

; 866  : 	return 1;

	mov	eax, 1

; 867  : }

	mov	esp, ebp
	pop	ebp
	ret	0
?lIsVisibleEnemyUnit@CvLuaPlot@@KAHPAUlua_State@@@Z ENDP ; CvLuaPlot::lIsVisibleEnemyUnit
_TEXT	ENDS
PUBLIC	??$BasicLuaMethod@_NW4PlayerTypes@@@?$CvLuaMethodWrapper@VCvLuaPlot@@VCvPlot@@@@KAHPAUlua_State@@P8CvPlot@@BE_NW4PlayerTypes@@@Z@Z ; CvLuaMethodWrapper<CvLuaPlot,CvPlot>::BasicLuaMethod<bool,enum PlayerTypes>
EXTRN	?isVisibleOtherUnit@CvPlot@@QBE_NW4PlayerTypes@@@Z:PROC ; CvPlot::isVisibleOtherUnit
; Function compile flags: /Odtp
;	COMDAT ?lIsVisibleOtherUnit@CvLuaPlot@@KAHPAUlua_State@@@Z
_TEXT	SEGMENT
_L$ = 8							; size = 4
?lIsVisibleOtherUnit@CvLuaPlot@@KAHPAUlua_State@@@Z PROC ; CvLuaPlot::lIsVisibleOtherUnit, COMDAT

; 871  : {

	push	ebp
	mov	ebp, esp

; 872  : 	return BasicLuaMethod(L, &CvPlot::isVisibleOtherUnit);

	push	OFFSET ?isVisibleOtherUnit@CvPlot@@QBE_NW4PlayerTypes@@@Z ; CvPlot::isVisibleOtherUnit
	mov	eax, DWORD PTR _L$[ebp]
	push	eax
	call	??$BasicLuaMethod@_NW4PlayerTypes@@@?$CvLuaMethodWrapper@VCvLuaPlot@@VCvPlot@@@@KAHPAUlua_State@@P8CvPlot@@BE_NW4PlayerTypes@@@Z@Z ; CvLuaMethodWrapper<CvLuaPlot,CvPlot>::BasicLuaMethod<bool,enum PlayerTypes>
	add	esp, 8

; 873  : }

	pop	ebp
	ret	0
?lIsVisibleOtherUnit@CvLuaPlot@@KAHPAUlua_State@@@Z ENDP ; CvLuaPlot::lIsVisibleOtherUnit
_TEXT	ENDS
EXTRN	?getNumFriendlyUnitsOfType@CvPlot@@QBEHPBVCvUnit@@_N@Z:PROC ; CvPlot::getNumFriendlyUnitsOfType
; Function compile flags: /Odtp
;	COMDAT ?lGetNumFriendlyUnitsOfType@CvLuaPlot@@KAHPAUlua_State@@@Z
_TEXT	SEGMENT
_pkUnit$ = -16						; size = 4
_bBreakOnUnitLimit$ = -9				; size = 1
_iResult$ = -8						; size = 4
_pkPlot$ = -4						; size = 4
_L$ = 8							; size = 4
?lGetNumFriendlyUnitsOfType@CvLuaPlot@@KAHPAUlua_State@@@Z PROC ; CvLuaPlot::lGetNumFriendlyUnitsOfType, COMDAT

; 877  : {

	push	ebp
	mov	ebp, esp
	sub	esp, 16					; 00000010H

; 878  : 	CvPlot* pkPlot = GetInstance(L);

	push	1
	push	1
	mov	eax, DWORD PTR _L$[ebp]
	push	eax
	call	?GetInstance@?$CvLuaScopedInstance@VCvLuaPlot@@VCvPlot@@@@SAPAVCvPlot@@PAUlua_State@@H_N@Z ; CvLuaScopedInstance<CvLuaPlot,CvPlot>::GetInstance
	add	esp, 12					; 0000000cH
	mov	DWORD PTR _pkPlot$[ebp], eax

; 879  : 	CvUnit* pkUnit = CvLuaUnit::GetInstance(L, 2);

	push	1
	push	2
	mov	ecx, DWORD PTR _L$[ebp]
	push	ecx
	call	?GetInstance@?$CvLuaScopedInstance@VCvLuaUnit@@VCvUnit@@@@SAPAVCvUnit@@PAUlua_State@@H_N@Z ; CvLuaScopedInstance<CvLuaUnit,CvUnit>::GetInstance
	add	esp, 12					; 0000000cH
	mov	DWORD PTR _pkUnit$[ebp], eax

; 880  : 
; 881  : 	bool bBreakOnUnitLimit = luaL_optbool(L, 3, true);

	push	1
	push	3
	mov	edx, DWORD PTR _L$[ebp]
	push	edx
	call	?luaL_optbool@@YA_NPAUlua_State@@H_N@Z	; luaL_optbool
	add	esp, 12					; 0000000cH
	mov	BYTE PTR _bBreakOnUnitLimit$[ebp], al

; 882  : 	int iResult = pkPlot->getNumFriendlyUnitsOfType(pkUnit, bBreakOnUnitLimit);

	movzx	eax, BYTE PTR _bBreakOnUnitLimit$[ebp]
	push	eax
	mov	ecx, DWORD PTR _pkUnit$[ebp]
	push	ecx
	mov	ecx, DWORD PTR _pkPlot$[ebp]
	call	?getNumFriendlyUnitsOfType@CvPlot@@QBEHPBVCvUnit@@_N@Z ; CvPlot::getNumFriendlyUnitsOfType
	mov	DWORD PTR _iResult$[ebp], eax

; 883  : 
; 884  : 	lua_pushinteger(L, iResult);

	mov	edx, DWORD PTR _iResult$[ebp]
	push	edx
	mov	eax, DWORD PTR _L$[ebp]
	push	eax
	call	_lua_pushinteger
	add	esp, 8

; 885  : 	return 1;

	mov	eax, 1

; 886  : }

	mov	esp, ebp
	pop	ebp
	ret	0
?lGetNumFriendlyUnitsOfType@CvLuaPlot@@KAHPAUlua_State@@@Z ENDP ; CvLuaPlot::lGetNumFriendlyUnitsOfType
_TEXT	ENDS
EXTRN	?isFighting@CvPlot@@QBE_NXZ:PROC		; CvPlot::isFighting
; Function compile flags: /Odtp
;	COMDAT ?lIsFighting@CvLuaPlot@@KAHPAUlua_State@@@Z
_TEXT	SEGMENT
_L$ = 8							; size = 4
?lIsFighting@CvLuaPlot@@KAHPAUlua_State@@@Z PROC	; CvLuaPlot::lIsFighting, COMDAT

; 890  : {

	push	ebp
	mov	ebp, esp

; 891  : 	return BasicLuaMethod(L, &CvPlot::isFighting);

	push	OFFSET ?isFighting@CvPlot@@QBE_NXZ	; CvPlot::isFighting
	mov	eax, DWORD PTR _L$[ebp]
	push	eax
	call	??$BasicLuaMethod@_N@?$CvLuaMethodWrapper@VCvLuaPlot@@VCvPlot@@@@KAHPAUlua_State@@P8CvPlot@@BE_NXZ@Z ; CvLuaMethodWrapper<CvLuaPlot,CvPlot>::BasicLuaMethod<bool>
	add	esp, 8

; 892  : }

	pop	ebp
	ret	0
?lIsFighting@CvLuaPlot@@KAHPAUlua_State@@@Z ENDP	; CvLuaPlot::lIsFighting
_TEXT	ENDS
EXTRN	?isRoute@CvPlot@@QBE_NXZ:PROC			; CvPlot::isRoute
; Function compile flags: /Odtp
;	COMDAT ?lIsRoute@CvLuaPlot@@KAHPAUlua_State@@@Z
_TEXT	SEGMENT
_L$ = 8							; size = 4
?lIsRoute@CvLuaPlot@@KAHPAUlua_State@@@Z PROC		; CvLuaPlot::lIsRoute, COMDAT

; 896  : {

	push	ebp
	mov	ebp, esp

; 897  : 	return BasicLuaMethod(L, &CvPlot::isRoute);

	push	OFFSET ?isRoute@CvPlot@@QBE_NXZ		; CvPlot::isRoute
	mov	eax, DWORD PTR _L$[ebp]
	push	eax
	call	??$BasicLuaMethod@_N@?$CvLuaMethodWrapper@VCvLuaPlot@@VCvPlot@@@@KAHPAUlua_State@@P8CvPlot@@BE_NXZ@Z ; CvLuaMethodWrapper<CvLuaPlot,CvPlot>::BasicLuaMethod<bool>
	add	esp, 8

; 898  : }

	pop	ebp
	ret	0
?lIsRoute@CvLuaPlot@@KAHPAUlua_State@@@Z ENDP		; CvLuaPlot::lIsRoute
_TEXT	ENDS
EXTRN	?IsTradeRoute@CvPlot@@QBE_NW4PlayerTypes@@@Z:PROC ; CvPlot::IsTradeRoute
; Function compile flags: /Odtp
;	COMDAT ?lIsTradeRoute@CvLuaPlot@@KAHPAUlua_State@@@Z
_TEXT	SEGMENT
_ePlayer$ = -12						; size = 4
_bResult$ = -5						; size = 1
_pkPlot$ = -4						; size = 4
_L$ = 8							; size = 4
?lIsTradeRoute@CvLuaPlot@@KAHPAUlua_State@@@Z PROC	; CvLuaPlot::lIsTradeRoute, COMDAT

; 901  : {

	push	ebp
	mov	ebp, esp
	sub	esp, 12					; 0000000cH

; 902  : 	CvPlot* pkPlot = GetInstance(L);

	push	1
	push	1
	mov	eax, DWORD PTR _L$[ebp]
	push	eax
	call	?GetInstance@?$CvLuaScopedInstance@VCvLuaPlot@@VCvPlot@@@@SAPAVCvPlot@@PAUlua_State@@H_N@Z ; CvLuaScopedInstance<CvLuaPlot,CvPlot>::GetInstance
	add	esp, 12					; 0000000cH
	mov	DWORD PTR _pkPlot$[ebp], eax

; 903  : 	PlayerTypes ePlayer = (PlayerTypes)luaL_optint(L, 2, -1);

	push	-1
	push	2
	mov	ecx, DWORD PTR _L$[ebp]
	push	ecx
	call	_luaL_optinteger
	add	esp, 12					; 0000000cH
	mov	DWORD PTR _ePlayer$[ebp], eax

; 904  : 	bool bResult = pkPlot->IsTradeRoute(ePlayer);

	mov	edx, DWORD PTR _ePlayer$[ebp]
	push	edx
	mov	ecx, DWORD PTR _pkPlot$[ebp]
	call	?IsTradeRoute@CvPlot@@QBE_NW4PlayerTypes@@@Z ; CvPlot::IsTradeRoute
	mov	BYTE PTR _bResult$[ebp], al

; 905  : 	lua_pushboolean(L, bResult);

	movzx	eax, BYTE PTR _bResult$[ebp]
	push	eax
	mov	ecx, DWORD PTR _L$[ebp]
	push	ecx
	call	_lua_pushboolean
	add	esp, 8

; 906  : 	return 1;

	mov	eax, 1

; 907  : }

	mov	esp, ebp
	pop	ebp
	ret	0
?lIsTradeRoute@CvLuaPlot@@KAHPAUlua_State@@@Z ENDP	; CvLuaPlot::lIsTradeRoute
_TEXT	ENDS
EXTRN	?isValidDomainForLocation@CvPlot@@QBE_NABVCvUnit@@@Z:PROC ; CvPlot::isValidDomainForLocation
; Function compile flags: /Odtp
;	COMDAT ?lIsValidDomainForLocation@CvLuaPlot@@KAHPAUlua_State@@@Z
_TEXT	SEGMENT
_pkUnit$ = -12						; size = 4
_bResult$ = -5						; size = 1
_pkPlot$ = -4						; size = 4
_L$ = 8							; size = 4
?lIsValidDomainForLocation@CvLuaPlot@@KAHPAUlua_State@@@Z PROC ; CvLuaPlot::lIsValidDomainForLocation, COMDAT

; 911  : {

	push	ebp
	mov	ebp, esp
	sub	esp, 12					; 0000000cH

; 912  : 	CvPlot* pkPlot = GetInstance(L);

	push	1
	push	1
	mov	eax, DWORD PTR _L$[ebp]
	push	eax
	call	?GetInstance@?$CvLuaScopedInstance@VCvLuaPlot@@VCvPlot@@@@SAPAVCvPlot@@PAUlua_State@@H_N@Z ; CvLuaScopedInstance<CvLuaPlot,CvPlot>::GetInstance
	add	esp, 12					; 0000000cH
	mov	DWORD PTR _pkPlot$[ebp], eax

; 913  : 	CvUnit* pkUnit = CvLuaUnit::GetInstance(L, 2);

	push	1
	push	2
	mov	ecx, DWORD PTR _L$[ebp]
	push	ecx
	call	?GetInstance@?$CvLuaScopedInstance@VCvLuaUnit@@VCvUnit@@@@SAPAVCvUnit@@PAUlua_State@@H_N@Z ; CvLuaScopedInstance<CvLuaUnit,CvUnit>::GetInstance
	add	esp, 12					; 0000000cH
	mov	DWORD PTR _pkUnit$[ebp], eax

; 914  : 
; 915  : 	const bool bResult = pkPlot->isValidDomainForLocation(*pkUnit);

	mov	edx, DWORD PTR _pkUnit$[ebp]
	push	edx
	mov	ecx, DWORD PTR _pkPlot$[ebp]
	call	?isValidDomainForLocation@CvPlot@@QBE_NABVCvUnit@@@Z ; CvPlot::isValidDomainForLocation
	mov	BYTE PTR _bResult$[ebp], al

; 916  : 	lua_pushboolean(L, bResult);

	movzx	eax, BYTE PTR _bResult$[ebp]
	push	eax
	mov	ecx, DWORD PTR _L$[ebp]
	push	ecx
	call	_lua_pushboolean
	add	esp, 8

; 917  : 	return 1;

	mov	eax, 1

; 918  : }

	mov	esp, ebp
	pop	ebp
	ret	0
?lIsValidDomainForLocation@CvLuaPlot@@KAHPAUlua_State@@@Z ENDP ; CvLuaPlot::lIsValidDomainForLocation
_TEXT	ENDS
EXTRN	?isValidDomainForAction@CvPlot@@QBE_NABVCvUnit@@@Z:PROC ; CvPlot::isValidDomainForAction
; Function compile flags: /Odtp
;	COMDAT ?lIsValidDomainForAction@CvLuaPlot@@KAHPAUlua_State@@@Z
_TEXT	SEGMENT
_pkUnit$ = -12						; size = 4
_bResult$ = -5						; size = 1
_pkPlot$ = -4						; size = 4
_L$ = 8							; size = 4
?lIsValidDomainForAction@CvLuaPlot@@KAHPAUlua_State@@@Z PROC ; CvLuaPlot::lIsValidDomainForAction, COMDAT

; 922  : {

	push	ebp
	mov	ebp, esp
	sub	esp, 12					; 0000000cH

; 923  : 	CvPlot* pkPlot = GetInstance(L);

	push	1
	push	1
	mov	eax, DWORD PTR _L$[ebp]
	push	eax
	call	?GetInstance@?$CvLuaScopedInstance@VCvLuaPlot@@VCvPlot@@@@SAPAVCvPlot@@PAUlua_State@@H_N@Z ; CvLuaScopedInstance<CvLuaPlot,CvPlot>::GetInstance
	add	esp, 12					; 0000000cH
	mov	DWORD PTR _pkPlot$[ebp], eax

; 924  : 	CvUnit* pkUnit = CvLuaUnit::GetInstance(L, 2);

	push	1
	push	2
	mov	ecx, DWORD PTR _L$[ebp]
	push	ecx
	call	?GetInstance@?$CvLuaScopedInstance@VCvLuaUnit@@VCvUnit@@@@SAPAVCvUnit@@PAUlua_State@@H_N@Z ; CvLuaScopedInstance<CvLuaUnit,CvUnit>::GetInstance
	add	esp, 12					; 0000000cH
	mov	DWORD PTR _pkUnit$[ebp], eax

; 925  : 
; 926  : 	const bool bResult = pkPlot->isValidDomainForAction(*pkUnit);

	mov	edx, DWORD PTR _pkUnit$[ebp]
	push	edx
	mov	ecx, DWORD PTR _pkPlot$[ebp]
	call	?isValidDomainForAction@CvPlot@@QBE_NABVCvUnit@@@Z ; CvPlot::isValidDomainForAction
	mov	BYTE PTR _bResult$[ebp], al

; 927  : 	lua_pushboolean(L, bResult);

	movzx	eax, BYTE PTR _bResult$[ebp]
	push	eax
	mov	ecx, DWORD PTR _L$[ebp]
	push	ecx
	call	_lua_pushboolean
	add	esp, 8

; 928  : 	return 1;

	mov	eax, 1

; 929  : }

	mov	esp, ebp
	pop	ebp
	ret	0
?lIsValidDomainForAction@CvLuaPlot@@KAHPAUlua_State@@@Z ENDP ; CvLuaPlot::lIsValidDomainForAction
_TEXT	ENDS
PUBLIC	?isImpassable@CvPlot@@QBE_NXZ			; CvPlot::isImpassable
; Function compile flags: /Odtp
;	COMDAT ?lIsImpassable@CvLuaPlot@@KAHPAUlua_State@@@Z
_TEXT	SEGMENT
_L$ = 8							; size = 4
?lIsImpassable@CvLuaPlot@@KAHPAUlua_State@@@Z PROC	; CvLuaPlot::lIsImpassable, COMDAT

; 933  : {

	push	ebp
	mov	ebp, esp

; 934  : 	return BasicLuaMethod(L, &CvPlot::isImpassable);

	push	OFFSET ?isImpassable@CvPlot@@QBE_NXZ	; CvPlot::isImpassable
	mov	eax, DWORD PTR _L$[ebp]
	push	eax
	call	??$BasicLuaMethod@_N@?$CvLuaMethodWrapper@VCvLuaPlot@@VCvPlot@@@@KAHPAUlua_State@@P8CvPlot@@BE_NXZ@Z ; CvLuaMethodWrapper<CvLuaPlot,CvPlot>::BasicLuaMethod<bool>
	add	esp, 8

; 935  : }

	pop	ebp
	ret	0
?lIsImpassable@CvLuaPlot@@KAHPAUlua_State@@@Z ENDP	; CvLuaPlot::lIsImpassable
_TEXT	ENDS
PUBLIC	?getX@CvPlot@@QBEHXZ				; CvPlot::getX
; Function compile flags: /Odtp
;	COMDAT ?lGetX@CvLuaPlot@@KAHPAUlua_State@@@Z
_TEXT	SEGMENT
_L$ = 8							; size = 4
?lGetX@CvLuaPlot@@KAHPAUlua_State@@@Z PROC		; CvLuaPlot::lGetX, COMDAT

; 940  : {

	push	ebp
	mov	ebp, esp

; 941  : 	return BasicLuaMethod(L, &CvPlot::getX);

	push	OFFSET ?getX@CvPlot@@QBEHXZ		; CvPlot::getX
	mov	eax, DWORD PTR _L$[ebp]
	push	eax
	call	??$BasicLuaMethod@H@?$CvLuaMethodWrapper@VCvLuaPlot@@VCvPlot@@@@KAHPAUlua_State@@P8CvPlot@@BEHXZ@Z ; CvLuaMethodWrapper<CvLuaPlot,CvPlot>::BasicLuaMethod<int>
	add	esp, 8

; 942  : }

	pop	ebp
	ret	0
?lGetX@CvLuaPlot@@KAHPAUlua_State@@@Z ENDP		; CvLuaPlot::lGetX
_TEXT	ENDS
PUBLIC	?getY@CvPlot@@QBEHXZ				; CvPlot::getY
; Function compile flags: /Odtp
;	COMDAT ?lGetY@CvLuaPlot@@KAHPAUlua_State@@@Z
_TEXT	SEGMENT
_L$ = 8							; size = 4
?lGetY@CvLuaPlot@@KAHPAUlua_State@@@Z PROC		; CvLuaPlot::lGetY, COMDAT

; 946  : {

	push	ebp
	mov	ebp, esp

; 947  : 	return BasicLuaMethod(L, &CvPlot::getY);

	push	OFFSET ?getY@CvPlot@@QBEHXZ		; CvPlot::getY
	mov	eax, DWORD PTR _L$[ebp]
	push	eax
	call	??$BasicLuaMethod@H@?$CvLuaMethodWrapper@VCvLuaPlot@@VCvPlot@@@@KAHPAUlua_State@@P8CvPlot@@BEHXZ@Z ; CvLuaMethodWrapper<CvLuaPlot,CvPlot>::BasicLuaMethod<int>
	add	esp, 8

; 948  : }

	pop	ebp
	ret	0
?lGetY@CvLuaPlot@@KAHPAUlua_State@@@Z ENDP		; CvLuaPlot::lGetY
_TEXT	ENDS
PUBLIC	??$BasicLuaMethod@_NHH@?$CvLuaMethodWrapper@VCvLuaPlot@@VCvPlot@@@@KAHPAUlua_State@@P8CvPlot@@BE_NHH@Z@Z ; CvLuaMethodWrapper<CvLuaPlot,CvPlot>::BasicLuaMethod<bool,int,int>
EXTRN	?at@CvPlot@@QBE_NHH@Z:PROC			; CvPlot::at
; Function compile flags: /Odtp
;	COMDAT ?lAt@CvLuaPlot@@KAHPAUlua_State@@@Z
_TEXT	SEGMENT
_L$ = 8							; size = 4
?lAt@CvLuaPlot@@KAHPAUlua_State@@@Z PROC		; CvLuaPlot::lAt, COMDAT

; 952  : {

	push	ebp
	mov	ebp, esp

; 953  : 	return BasicLuaMethod(L, &CvPlot::at);

	push	OFFSET ?at@CvPlot@@QBE_NHH@Z		; CvPlot::at
	mov	eax, DWORD PTR _L$[ebp]
	push	eax
	call	??$BasicLuaMethod@_NHH@?$CvLuaMethodWrapper@VCvLuaPlot@@VCvPlot@@@@KAHPAUlua_State@@P8CvPlot@@BE_NHH@Z@Z ; CvLuaMethodWrapper<CvLuaPlot,CvPlot>::BasicLuaMethod<bool,int,int>
	add	esp, 8

; 954  : }

	pop	ebp
	ret	0
?lAt@CvLuaPlot@@KAHPAUlua_State@@@Z ENDP		; CvLuaPlot::lAt
_TEXT	ENDS
EXTRN	?GetPlotIndex@CvPlot@@QBEHXZ:PROC		; CvPlot::GetPlotIndex
; Function compile flags: /Odtp
;	COMDAT ?lGetPlotIndex@CvLuaPlot@@KAHPAUlua_State@@@Z
_TEXT	SEGMENT
_L$ = 8							; size = 4
?lGetPlotIndex@CvLuaPlot@@KAHPAUlua_State@@@Z PROC	; CvLuaPlot::lGetPlotIndex, COMDAT

; 958  : {

	push	ebp
	mov	ebp, esp

; 959  : 	return BasicLuaMethod(L, &CvPlot::GetPlotIndex);

	push	OFFSET ?GetPlotIndex@CvPlot@@QBEHXZ	; CvPlot::GetPlotIndex
	mov	eax, DWORD PTR _L$[ebp]
	push	eax
	call	??$BasicLuaMethod@H@?$CvLuaMethodWrapper@VCvLuaPlot@@VCvPlot@@@@KAHPAUlua_State@@P8CvPlot@@BEHXZ@Z ; CvLuaMethodWrapper<CvLuaPlot,CvPlot>::BasicLuaMethod<int>
	add	esp, 8

; 960  : }

	pop	ebp
	ret	0
?lGetPlotIndex@CvLuaPlot@@KAHPAUlua_State@@@Z ENDP	; CvLuaPlot::lGetPlotIndex
_TEXT	ENDS
EXTRN	?getLatitude@CvPlot@@QBEHXZ:PROC		; CvPlot::getLatitude
; Function compile flags: /Odtp
;	COMDAT ?lGetLatitude@CvLuaPlot@@KAHPAUlua_State@@@Z
_TEXT	SEGMENT
_L$ = 8							; size = 4
?lGetLatitude@CvLuaPlot@@KAHPAUlua_State@@@Z PROC	; CvLuaPlot::lGetLatitude, COMDAT

; 964  : {

	push	ebp
	mov	ebp, esp

; 965  : 	return BasicLuaMethod(L, &CvPlot::getLatitude);

	push	OFFSET ?getLatitude@CvPlot@@QBEHXZ	; CvPlot::getLatitude
	mov	eax, DWORD PTR _L$[ebp]
	push	eax
	call	??$BasicLuaMethod@H@?$CvLuaMethodWrapper@VCvLuaPlot@@VCvPlot@@@@KAHPAUlua_State@@P8CvPlot@@BEHXZ@Z ; CvLuaMethodWrapper<CvLuaPlot,CvPlot>::BasicLuaMethod<int>
	add	esp, 8

; 966  : }

	pop	ebp
	ret	0
?lGetLatitude@CvLuaPlot@@KAHPAUlua_State@@@Z ENDP	; CvLuaPlot::lGetLatitude
_TEXT	ENDS
PUBLIC	?Push@?$CvLuaScopedInstance@VCvLuaArea@@VCvArea@@@@SAXPAUlua_State@@PAVCvArea@@@Z ; CvLuaScopedInstance<CvLuaArea,CvArea>::Push
EXTRN	?area@CvPlot@@QBEPAVCvArea@@XZ:PROC		; CvPlot::area
; Function compile flags: /Odtp
;	COMDAT ?lArea@CvLuaPlot@@KAHPAUlua_State@@@Z
_TEXT	SEGMENT
_pkArea$ = -8						; size = 4
_pkPlot$ = -4						; size = 4
_L$ = 8							; size = 4
?lArea@CvLuaPlot@@KAHPAUlua_State@@@Z PROC		; CvLuaPlot::lArea, COMDAT

; 970  : {

	push	ebp
	mov	ebp, esp
	sub	esp, 8

; 971  : 	CvPlot* pkPlot = GetInstance(L);

	push	1
	push	1
	mov	eax, DWORD PTR _L$[ebp]
	push	eax
	call	?GetInstance@?$CvLuaScopedInstance@VCvLuaPlot@@VCvPlot@@@@SAPAVCvPlot@@PAUlua_State@@H_N@Z ; CvLuaScopedInstance<CvLuaPlot,CvPlot>::GetInstance
	add	esp, 12					; 0000000cH
	mov	DWORD PTR _pkPlot$[ebp], eax

; 972  : 	CvArea* pkArea = pkPlot->area();

	mov	ecx, DWORD PTR _pkPlot$[ebp]
	call	?area@CvPlot@@QBEPAVCvArea@@XZ		; CvPlot::area
	mov	DWORD PTR _pkArea$[ebp], eax

; 973  : 	CvLuaArea::Push(L, pkArea);

	mov	ecx, DWORD PTR _pkArea$[ebp]
	push	ecx
	mov	edx, DWORD PTR _L$[ebp]
	push	edx
	call	?Push@?$CvLuaScopedInstance@VCvLuaArea@@VCvArea@@@@SAXPAUlua_State@@PAVCvArea@@@Z ; CvLuaScopedInstance<CvLuaArea,CvArea>::Push
	add	esp, 8

; 974  : 	return 1;

	mov	eax, 1

; 975  : }

	mov	esp, ebp
	pop	ebp
	ret	0
?lArea@CvLuaPlot@@KAHPAUlua_State@@@Z ENDP		; CvLuaPlot::lArea
_TEXT	ENDS
EXTRN	?waterArea@CvPlot@@QBEPAVCvArea@@XZ:PROC	; CvPlot::waterArea
; Function compile flags: /Odtp
;	COMDAT ?lWaterArea@CvLuaPlot@@KAHPAUlua_State@@@Z
_TEXT	SEGMENT
_pkArea$ = -8						; size = 4
_pkPlot$ = -4						; size = 4
_L$ = 8							; size = 4
?lWaterArea@CvLuaPlot@@KAHPAUlua_State@@@Z PROC		; CvLuaPlot::lWaterArea, COMDAT

; 979  : {

	push	ebp
	mov	ebp, esp
	sub	esp, 8

; 980  : 	CvPlot* pkPlot = GetInstance(L);

	push	1
	push	1
	mov	eax, DWORD PTR _L$[ebp]
	push	eax
	call	?GetInstance@?$CvLuaScopedInstance@VCvLuaPlot@@VCvPlot@@@@SAPAVCvPlot@@PAUlua_State@@H_N@Z ; CvLuaScopedInstance<CvLuaPlot,CvPlot>::GetInstance
	add	esp, 12					; 0000000cH
	mov	DWORD PTR _pkPlot$[ebp], eax

; 981  : 	CvArea* pkArea = pkPlot->waterArea();

	mov	ecx, DWORD PTR _pkPlot$[ebp]
	call	?waterArea@CvPlot@@QBEPAVCvArea@@XZ	; CvPlot::waterArea
	mov	DWORD PTR _pkArea$[ebp], eax

; 982  : 	CvLuaArea::Push(L, pkArea);

	mov	ecx, DWORD PTR _pkArea$[ebp]
	push	ecx
	mov	edx, DWORD PTR _L$[ebp]
	push	edx
	call	?Push@?$CvLuaScopedInstance@VCvLuaArea@@VCvArea@@@@SAXPAUlua_State@@PAVCvArea@@@Z ; CvLuaScopedInstance<CvLuaArea,CvArea>::Push
	add	esp, 8

; 983  : 	return 1;

	mov	eax, 1

; 984  : }

	mov	esp, ebp
	pop	ebp
	ret	0
?lWaterArea@CvLuaPlot@@KAHPAUlua_State@@@Z ENDP		; CvLuaPlot::lWaterArea
_TEXT	ENDS
PUBLIC	?getArea@CvPlot@@QBEHXZ				; CvPlot::getArea
; Function compile flags: /Odtp
;	COMDAT ?lGetArea@CvLuaPlot@@KAHPAUlua_State@@@Z
_TEXT	SEGMENT
_L$ = 8							; size = 4
?lGetArea@CvLuaPlot@@KAHPAUlua_State@@@Z PROC		; CvLuaPlot::lGetArea, COMDAT

; 988  : {

	push	ebp
	mov	ebp, esp

; 989  : 	return BasicLuaMethod(L, &CvPlot::getArea);

	push	OFFSET ?getArea@CvPlot@@QBEHXZ		; CvPlot::getArea
	mov	eax, DWORD PTR _L$[ebp]
	push	eax
	call	??$BasicLuaMethod@H@?$CvLuaMethodWrapper@VCvLuaPlot@@VCvPlot@@@@KAHPAUlua_State@@P8CvPlot@@BEHXZ@Z ; CvLuaMethodWrapper<CvLuaPlot,CvPlot>::BasicLuaMethod<int>
	add	esp, 8

; 990  : }

	pop	ebp
	ret	0
?lGetArea@CvLuaPlot@@KAHPAUlua_State@@@Z ENDP		; CvLuaPlot::lGetArea
_TEXT	ENDS
EXTRN	?setArea@CvPlot@@QAEXH@Z:PROC			; CvPlot::setArea
; Function compile flags: /Odtp
;	COMDAT ?lSetArea@CvLuaPlot@@KAHPAUlua_State@@@Z
_TEXT	SEGMENT
_L$ = 8							; size = 4
?lSetArea@CvLuaPlot@@KAHPAUlua_State@@@Z PROC		; CvLuaPlot::lSetArea, COMDAT

; 994  : {

	push	ebp
	mov	ebp, esp

; 995  : 	return BasicLuaMethod(L, &CvPlot::setArea);

	push	OFFSET ?setArea@CvPlot@@QAEXH@Z		; CvPlot::setArea
	mov	eax, DWORD PTR _L$[ebp]
	push	eax
	call	??$BasicLuaMethod@H@?$CvLuaMethodWrapper@VCvLuaPlot@@VCvPlot@@@@KAHPAUlua_State@@P8CvPlot@@AEXH@Z@Z ; CvLuaMethodWrapper<CvLuaPlot,CvPlot>::BasicLuaMethod<int>
	add	esp, 8

; 996  : }

	pop	ebp
	ret	0
?lSetArea@CvLuaPlot@@KAHPAUlua_State@@@Z ENDP		; CvLuaPlot::lSetArea
_TEXT	ENDS
EXTRN	?getFeatureVariety@CvPlot@@QBEHXZ:PROC		; CvPlot::getFeatureVariety
; Function compile flags: /Odtp
;	COMDAT ?lGetFeatureVariety@CvLuaPlot@@KAHPAUlua_State@@@Z
_TEXT	SEGMENT
_L$ = 8							; size = 4
?lGetFeatureVariety@CvLuaPlot@@KAHPAUlua_State@@@Z PROC	; CvLuaPlot::lGetFeatureVariety, COMDAT

; 1000 : {

	push	ebp
	mov	ebp, esp

; 1001 : 	return BasicLuaMethod(L, &CvPlot::getFeatureVariety);

	push	OFFSET ?getFeatureVariety@CvPlot@@QBEHXZ ; CvPlot::getFeatureVariety
	mov	eax, DWORD PTR _L$[ebp]
	push	eax
	call	??$BasicLuaMethod@H@?$CvLuaMethodWrapper@VCvLuaPlot@@VCvPlot@@@@KAHPAUlua_State@@P8CvPlot@@BEHXZ@Z ; CvLuaMethodWrapper<CvLuaPlot,CvPlot>::BasicLuaMethod<int>
	add	esp, 8

; 1002 : }

	pop	ebp
	ret	0
?lGetFeatureVariety@CvLuaPlot@@KAHPAUlua_State@@@Z ENDP	; CvLuaPlot::lGetFeatureVariety
_TEXT	ENDS
EXTRN	?getOwnershipDuration@CvPlot@@QBEHXZ:PROC	; CvPlot::getOwnershipDuration
; Function compile flags: /Odtp
;	COMDAT ?lGetOwnershipDuration@CvLuaPlot@@KAHPAUlua_State@@@Z
_TEXT	SEGMENT
_L$ = 8							; size = 4
?lGetOwnershipDuration@CvLuaPlot@@KAHPAUlua_State@@@Z PROC ; CvLuaPlot::lGetOwnershipDuration, COMDAT

; 1007 : {

	push	ebp
	mov	ebp, esp

; 1008 : 	return BasicLuaMethod(L, &CvPlot::getOwnershipDuration);

	push	OFFSET ?getOwnershipDuration@CvPlot@@QBEHXZ ; CvPlot::getOwnershipDuration
	mov	eax, DWORD PTR _L$[ebp]
	push	eax
	call	??$BasicLuaMethod@H@?$CvLuaMethodWrapper@VCvLuaPlot@@VCvPlot@@@@KAHPAUlua_State@@P8CvPlot@@BEHXZ@Z ; CvLuaMethodWrapper<CvLuaPlot,CvPlot>::BasicLuaMethod<int>
	add	esp, 8

