; Listing generated by Microsoft (R) Optimizing Compiler Version 15.00.30729.01 

	TITLE	D:\sources\Lekmod_git\checkout\LEKMOD_DLL\CvGameCoreDLL_Expansion2\Lua\CvLuaArea.cpp
	.686P
	.XMM
	include listing.inc
	.model	flat

INCLUDELIB MSVCRT
INCLUDELIB OLDNAMES

PUBLIC	??_C@_0BD@OPPHEABP@GetNumImprovements?$AA@	; `string'
PUBLIC	?lGetNumImprovements@CvLuaArea@@KAHPAUlua_State@@@Z ; CvLuaArea::lGetNumImprovements
PUBLIC	??_C@_0BF@LHOIBGOI@GetNumTotalResources?$AA@	; `string'
PUBLIC	?lGetNumTotalResources@CvLuaArea@@KAHPAUlua_State@@@Z ; CvLuaArea::lGetNumTotalResources
PUBLIC	??_C@_0BA@GNCPKBPM@GetNumResources?$AA@		; `string'
PUBLIC	?lGetNumResources@CvLuaArea@@KAHPAUlua_State@@@Z ; CvLuaArea::lGetNumResources
PUBLIC	??_C@_0BF@MPEACCAJ@GetYieldRateModifier?$AA@	; `string'
PUBLIC	?lGetYieldRateModifier@CvLuaArea@@KAHPAUlua_State@@@Z ; CvLuaArea::lGetYieldRateModifier
PUBLIC	??_C@_0O@HBNMDPGA@GetTargetCity?$AA@		; `string'
PUBLIC	?lGetTargetCity@CvLuaArea@@KAHPAUlua_State@@@Z	; CvLuaArea::lGetTargetCity
PUBLIC	??_C@_0BG@LGPPFAJI@GetNumUnrevealedTiles?$AA@	; `string'
PUBLIC	?lGetNumUnrevealedTiles@CvLuaArea@@KAHPAUlua_State@@@Z ; CvLuaArea::lGetNumUnrevealedTiles
PUBLIC	??_C@_0BE@NADDGFOB@GetNumRevealedTiles?$AA@	; `string'
PUBLIC	?lGetNumRevealedTiles@CvLuaArea@@KAHPAUlua_State@@@Z ; CvLuaArea::lGetNumRevealedTiles
PUBLIC	??_C@_0BC@IKHNGEGB@GetFreeSpecialist?$AA@	; `string'
PUBLIC	?lGetFreeSpecialist@CvLuaArea@@KAHPAUlua_State@@@Z ; CvLuaArea::lGetFreeSpecialist
PUBLIC	??_C@_0BH@NCHOOAIO@GetPopulationPerPlayer?$AA@	; `string'
PUBLIC	?lGetPopulationPerPlayer@CvLuaArea@@KAHPAUlua_State@@@Z ; CvLuaArea::lGetPopulationPerPlayer
PUBLIC	??_C@_0BD@FECEJDPC@GetCitiesPerPlayer?$AA@	; `string'
PUBLIC	?lGetCitiesPerPlayer@CvLuaArea@@KAHPAUlua_State@@@Z ; CvLuaArea::lGetCitiesPerPlayer
PUBLIC	??_C@_0BC@IAOPIBPJ@GetUnitsPerPlayer?$AA@	; `string'
PUBLIC	?lGetUnitsPerPlayer@CvLuaArea@@KAHPAUlua_State@@@Z ; CvLuaArea::lGetUnitsPerPlayer
PUBLIC	??_C@_07HDBOHACA@IsWater?$AA@			; `string'
PUBLIC	?lIsWater@CvLuaArea@@KAHPAUlua_State@@@Z	; CvLuaArea::lIsWater
PUBLIC	??_C@_0BE@GAFCIMBE@GetNumStartingPlots?$AA@	; `string'
PUBLIC	?lGetNumStartingPlots@CvLuaArea@@KAHPAUlua_State@@@Z ; CvLuaArea::lGetNumStartingPlots
PUBLIC	??_C@_0BD@BKBNEN@GetTotalPopulation?$AA@	; `string'
PUBLIC	?lGetTotalPopulation@CvLuaArea@@KAHPAUlua_State@@@Z ; CvLuaArea::lGetTotalPopulation
PUBLIC	??_C@_0M@GNPEBAGL@GetNumUnits?$AA@		; `string'
PUBLIC	?lGetNumUnits@CvLuaArea@@KAHPAUlua_State@@@Z	; CvLuaArea::lGetNumUnits
PUBLIC	??_C@_0N@OFLMPMAK@GetNumCities?$AA@		; `string'
PUBLIC	?lGetNumCities@CvLuaArea@@KAHPAUlua_State@@@Z	; CvLuaArea::lGetNumCities
PUBLIC	??_C@_0BB@KNEFMAGI@GetNumRiverEdges?$AA@	; `string'
PUBLIC	?lGetNumRiverEdges@CvLuaArea@@KAHPAUlua_State@@@Z ; CvLuaArea::lGetNumRiverEdges
PUBLIC	??_C@_0BD@HPKDOFBA@GetNumUnownedTiles?$AA@	; `string'
PUBLIC	?lGetNumUnownedTiles@CvLuaArea@@KAHPAUlua_State@@@Z ; CvLuaArea::lGetNumUnownedTiles
PUBLIC	??_C@_0BB@FENCDOM@GetNumOwnedTiles?$AA@		; `string'
PUBLIC	?lGetNumOwnedTiles@CvLuaArea@@KAHPAUlua_State@@@Z ; CvLuaArea::lGetNumOwnedTiles
PUBLIC	??_C@_0M@DOLCCGKL@GetNumTiles?$AA@		; `string'
PUBLIC	?lGetNumTiles@CvLuaArea@@KAHPAUlua_State@@@Z	; CvLuaArea::lGetNumTiles
PUBLIC	??_C@_05CLBJHDA@GetID?$AA@			; `string'
PUBLIC	?lGetID@CvLuaArea@@KAHPAUlua_State@@@Z		; CvLuaArea::lGetID
PUBLIC	??_C@_0BM@FENGHOCI@CountNumUniqueResourceTypes?$AA@ ; `string'
PUBLIC	?lCountNumUniqueResourceTypes@CvLuaArea@@KAHPAUlua_State@@@Z ; CvLuaArea::lCountNumUniqueResourceTypes
PUBLIC	??_C@_0BB@NDMBJPAO@CountCoastalLand?$AA@	; `string'
PUBLIC	?lCountCoastalLand@CvLuaArea@@KAHPAUlua_State@@@Z ; CvLuaArea::lCountCoastalLand
PUBLIC	??_C@_0BO@EHFPFGPL@CalculateTotalBestNatureYield?$AA@ ; `string'
PUBLIC	?lCalculateTotalBestNatureYield@CvLuaArea@@KAHPAUlua_State@@@Z ; CvLuaArea::lCalculateTotalBestNatureYield
PUBLIC	??_C@_06OAPDBHPB@IsNone?$AA@			; `string'
PUBLIC	?lIsNone@CvLuaArea@@KAHPAUlua_State@@@Z		; CvLuaArea::lIsNone
PUBLIC	?PushMethods@CvLuaArea@@SAXPAUlua_State@@H@Z	; CvLuaArea::PushMethods
EXTRN	_lua_setfield:PROC
EXTRN	_lua_pushcclosure:PROC
;	COMDAT ??_C@_0BD@OPPHEABP@GetNumImprovements?$AA@
; File d:\sources\lekmod_git\checkout\lekmod_dll\cvgamecoredll_expansion2\lua\cvluaarea.cpp
CONST	SEGMENT
??_C@_0BD@OPPHEABP@GetNumImprovements?$AA@ DB 'GetNumImprovements', 00H ; `string'
CONST	ENDS
;	COMDAT ??_C@_0BF@LHOIBGOI@GetNumTotalResources?$AA@
CONST	SEGMENT
??_C@_0BF@LHOIBGOI@GetNumTotalResources?$AA@ DB 'GetNumTotalResources', 00H ; `string'
CONST	ENDS
;	COMDAT ??_C@_0BA@GNCPKBPM@GetNumResources?$AA@
CONST	SEGMENT
??_C@_0BA@GNCPKBPM@GetNumResources?$AA@ DB 'GetNumResources', 00H ; `string'
CONST	ENDS
;	COMDAT ??_C@_0BF@MPEACCAJ@GetYieldRateModifier?$AA@
CONST	SEGMENT
??_C@_0BF@MPEACCAJ@GetYieldRateModifier?$AA@ DB 'GetYieldRateModifier', 00H ; `string'
CONST	ENDS
;	COMDAT ??_C@_0O@HBNMDPGA@GetTargetCity?$AA@
CONST	SEGMENT
??_C@_0O@HBNMDPGA@GetTargetCity?$AA@ DB 'GetTargetCity', 00H ; `string'
CONST	ENDS
;	COMDAT ??_C@_0BG@LGPPFAJI@GetNumUnrevealedTiles?$AA@
CONST	SEGMENT
??_C@_0BG@LGPPFAJI@GetNumUnrevealedTiles?$AA@ DB 'GetNumUnrevealedTiles', 00H ; `string'
CONST	ENDS
;	COMDAT ??_C@_0BE@NADDGFOB@GetNumRevealedTiles?$AA@
CONST	SEGMENT
??_C@_0BE@NADDGFOB@GetNumRevealedTiles?$AA@ DB 'GetNumRevealedTiles', 00H ; `string'
CONST	ENDS
;	COMDAT ??_C@_0BC@IKHNGEGB@GetFreeSpecialist?$AA@
CONST	SEGMENT
??_C@_0BC@IKHNGEGB@GetFreeSpecialist?$AA@ DB 'GetFreeSpecialist', 00H ; `string'
CONST	ENDS
;	COMDAT ??_C@_0BH@NCHOOAIO@GetPopulationPerPlayer?$AA@
CONST	SEGMENT
??_C@_0BH@NCHOOAIO@GetPopulationPerPlayer?$AA@ DB 'GetPopulationPerPlayer'
	DB	00H						; `string'
CONST	ENDS
;	COMDAT ??_C@_0BD@FECEJDPC@GetCitiesPerPlayer?$AA@
CONST	SEGMENT
??_C@_0BD@FECEJDPC@GetCitiesPerPlayer?$AA@ DB 'GetCitiesPerPlayer', 00H ; `string'
CONST	ENDS
;	COMDAT ??_C@_0BC@IAOPIBPJ@GetUnitsPerPlayer?$AA@
CONST	SEGMENT
??_C@_0BC@IAOPIBPJ@GetUnitsPerPlayer?$AA@ DB 'GetUnitsPerPlayer', 00H ; `string'
CONST	ENDS
;	COMDAT ??_C@_07HDBOHACA@IsWater?$AA@
CONST	SEGMENT
??_C@_07HDBOHACA@IsWater?$AA@ DB 'IsWater', 00H		; `string'
CONST	ENDS
;	COMDAT ??_C@_0BE@GAFCIMBE@GetNumStartingPlots?$AA@
CONST	SEGMENT
??_C@_0BE@GAFCIMBE@GetNumStartingPlots?$AA@ DB 'GetNumStartingPlots', 00H ; `string'
CONST	ENDS
;	COMDAT ??_C@_0BD@BKBNEN@GetTotalPopulation?$AA@
CONST	SEGMENT
??_C@_0BD@BKBNEN@GetTotalPopulation?$AA@ DB 'GetTotalPopulation', 00H ; `string'
CONST	ENDS
;	COMDAT ??_C@_0M@GNPEBAGL@GetNumUnits?$AA@
CONST	SEGMENT
??_C@_0M@GNPEBAGL@GetNumUnits?$AA@ DB 'GetNumUnits', 00H ; `string'
CONST	ENDS
;	COMDAT ??_C@_0N@OFLMPMAK@GetNumCities?$AA@
CONST	SEGMENT
??_C@_0N@OFLMPMAK@GetNumCities?$AA@ DB 'GetNumCities', 00H ; `string'
CONST	ENDS
;	COMDAT ??_C@_0BB@KNEFMAGI@GetNumRiverEdges?$AA@
CONST	SEGMENT
??_C@_0BB@KNEFMAGI@GetNumRiverEdges?$AA@ DB 'GetNumRiverEdges', 00H ; `string'
CONST	ENDS
;	COMDAT ??_C@_0BD@HPKDOFBA@GetNumUnownedTiles?$AA@
CONST	SEGMENT
??_C@_0BD@HPKDOFBA@GetNumUnownedTiles?$AA@ DB 'GetNumUnownedTiles', 00H ; `string'
CONST	ENDS
;	COMDAT ??_C@_0BB@FENCDOM@GetNumOwnedTiles?$AA@
CONST	SEGMENT
??_C@_0BB@FENCDOM@GetNumOwnedTiles?$AA@ DB 'GetNumOwnedTiles', 00H ; `string'
CONST	ENDS
;	COMDAT ??_C@_0M@DOLCCGKL@GetNumTiles?$AA@
CONST	SEGMENT
??_C@_0M@DOLCCGKL@GetNumTiles?$AA@ DB 'GetNumTiles', 00H ; `string'
CONST	ENDS
;	COMDAT ??_C@_05CLBJHDA@GetID?$AA@
CONST	SEGMENT
??_C@_05CLBJHDA@GetID?$AA@ DB 'GetID', 00H		; `string'
CONST	ENDS
;	COMDAT ??_C@_0BM@FENGHOCI@CountNumUniqueResourceTypes?$AA@
CONST	SEGMENT
??_C@_0BM@FENGHOCI@CountNumUniqueResourceTypes?$AA@ DB 'CountNumUniqueRes'
	DB	'ourceTypes', 00H				; `string'
CONST	ENDS
;	COMDAT ??_C@_0BB@NDMBJPAO@CountCoastalLand?$AA@
CONST	SEGMENT
??_C@_0BB@NDMBJPAO@CountCoastalLand?$AA@ DB 'CountCoastalLand', 00H ; `string'
CONST	ENDS
;	COMDAT ??_C@_0BO@EHFPFGPL@CalculateTotalBestNatureYield?$AA@
CONST	SEGMENT
??_C@_0BO@EHFPFGPL@CalculateTotalBestNatureYield?$AA@ DB 'CalculateTotalB'
	DB	'estNatureYield', 00H			; `string'
CONST	ENDS
;	COMDAT ??_C@_06OAPDBHPB@IsNone?$AA@
CONST	SEGMENT
??_C@_06OAPDBHPB@IsNone?$AA@ DB 'IsNone', 00H		; `string'
; Function compile flags: /Odtp
CONST	ENDS
;	COMDAT ?PushMethods@CvLuaArea@@SAXPAUlua_State@@H@Z
_TEXT	SEGMENT
_L$ = 8							; size = 4
_t$ = 12						; size = 4
?PushMethods@CvLuaArea@@SAXPAUlua_State@@H@Z PROC	; CvLuaArea::PushMethods, COMDAT

; 20   : {

	push	ebp
	mov	ebp, esp

; 21   : 	Method(IsNone);

	push	0
	push	OFFSET ?lIsNone@CvLuaArea@@KAHPAUlua_State@@@Z ; CvLuaArea::lIsNone
	mov	eax, DWORD PTR _L$[ebp]
	push	eax
	call	_lua_pushcclosure
	add	esp, 12					; 0000000cH
	push	OFFSET ??_C@_06OAPDBHPB@IsNone?$AA@
	mov	ecx, DWORD PTR _t$[ebp]
	push	ecx
	mov	edx, DWORD PTR _L$[ebp]
	push	edx
	call	_lua_setfield
	add	esp, 12					; 0000000cH

; 22   : 
; 23   : 	Method(CalculateTotalBestNatureYield);

	push	0
	push	OFFSET ?lCalculateTotalBestNatureYield@CvLuaArea@@KAHPAUlua_State@@@Z ; CvLuaArea::lCalculateTotalBestNatureYield
	mov	eax, DWORD PTR _L$[ebp]
	push	eax
	call	_lua_pushcclosure
	add	esp, 12					; 0000000cH
	push	OFFSET ??_C@_0BO@EHFPFGPL@CalculateTotalBestNatureYield?$AA@
	mov	ecx, DWORD PTR _t$[ebp]
	push	ecx
	mov	edx, DWORD PTR _L$[ebp]
	push	edx
	call	_lua_setfield
	add	esp, 12					; 0000000cH

; 24   : 	Method(CountCoastalLand);

	push	0
	push	OFFSET ?lCountCoastalLand@CvLuaArea@@KAHPAUlua_State@@@Z ; CvLuaArea::lCountCoastalLand
	mov	eax, DWORD PTR _L$[ebp]
	push	eax
	call	_lua_pushcclosure
	add	esp, 12					; 0000000cH
	push	OFFSET ??_C@_0BB@NDMBJPAO@CountCoastalLand?$AA@
	mov	ecx, DWORD PTR _t$[ebp]
	push	ecx
	mov	edx, DWORD PTR _L$[ebp]
	push	edx
	call	_lua_setfield
	add	esp, 12					; 0000000cH

; 25   : 	Method(CountNumUniqueResourceTypes);

	push	0
	push	OFFSET ?lCountNumUniqueResourceTypes@CvLuaArea@@KAHPAUlua_State@@@Z ; CvLuaArea::lCountNumUniqueResourceTypes
	mov	eax, DWORD PTR _L$[ebp]
	push	eax
	call	_lua_pushcclosure
	add	esp, 12					; 0000000cH
	push	OFFSET ??_C@_0BM@FENGHOCI@CountNumUniqueResourceTypes?$AA@
	mov	ecx, DWORD PTR _t$[ebp]
	push	ecx
	mov	edx, DWORD PTR _L$[ebp]
	push	edx
	call	_lua_setfield
	add	esp, 12					; 0000000cH

; 26   : 	Method(GetID);

	push	0
	push	OFFSET ?lGetID@CvLuaArea@@KAHPAUlua_State@@@Z ; CvLuaArea::lGetID
	mov	eax, DWORD PTR _L$[ebp]
	push	eax
	call	_lua_pushcclosure
	add	esp, 12					; 0000000cH
	push	OFFSET ??_C@_05CLBJHDA@GetID?$AA@
	mov	ecx, DWORD PTR _t$[ebp]
	push	ecx
	mov	edx, DWORD PTR _L$[ebp]
	push	edx
	call	_lua_setfield
	add	esp, 12					; 0000000cH

; 27   : 	Method(GetNumTiles);

	push	0
	push	OFFSET ?lGetNumTiles@CvLuaArea@@KAHPAUlua_State@@@Z ; CvLuaArea::lGetNumTiles
	mov	eax, DWORD PTR _L$[ebp]
	push	eax
	call	_lua_pushcclosure
	add	esp, 12					; 0000000cH
	push	OFFSET ??_C@_0M@DOLCCGKL@GetNumTiles?$AA@
	mov	ecx, DWORD PTR _t$[ebp]
	push	ecx
	mov	edx, DWORD PTR _L$[ebp]
	push	edx
	call	_lua_setfield
	add	esp, 12					; 0000000cH

; 28   : 	//Method(IsLake);
; 29   : 	Method(GetNumOwnedTiles);

	push	0
	push	OFFSET ?lGetNumOwnedTiles@CvLuaArea@@KAHPAUlua_State@@@Z ; CvLuaArea::lGetNumOwnedTiles
	mov	eax, DWORD PTR _L$[ebp]
	push	eax
	call	_lua_pushcclosure
	add	esp, 12					; 0000000cH
	push	OFFSET ??_C@_0BB@FENCDOM@GetNumOwnedTiles?$AA@
	mov	ecx, DWORD PTR _t$[ebp]
	push	ecx
	mov	edx, DWORD PTR _L$[ebp]
	push	edx
	call	_lua_setfield
	add	esp, 12					; 0000000cH

; 30   : 	Method(GetNumUnownedTiles);

	push	0
	push	OFFSET ?lGetNumUnownedTiles@CvLuaArea@@KAHPAUlua_State@@@Z ; CvLuaArea::lGetNumUnownedTiles
	mov	eax, DWORD PTR _L$[ebp]
	push	eax
	call	_lua_pushcclosure
	add	esp, 12					; 0000000cH
	push	OFFSET ??_C@_0BD@HPKDOFBA@GetNumUnownedTiles?$AA@
	mov	ecx, DWORD PTR _t$[ebp]
	push	ecx
	mov	edx, DWORD PTR _L$[ebp]
	push	edx
	call	_lua_setfield
	add	esp, 12					; 0000000cH

; 31   : 	Method(GetNumRiverEdges);

	push	0
	push	OFFSET ?lGetNumRiverEdges@CvLuaArea@@KAHPAUlua_State@@@Z ; CvLuaArea::lGetNumRiverEdges
	mov	eax, DWORD PTR _L$[ebp]
	push	eax
	call	_lua_pushcclosure
	add	esp, 12					; 0000000cH
	push	OFFSET ??_C@_0BB@KNEFMAGI@GetNumRiverEdges?$AA@
	mov	ecx, DWORD PTR _t$[ebp]
	push	ecx
	mov	edx, DWORD PTR _L$[ebp]
	push	edx
	call	_lua_setfield
	add	esp, 12					; 0000000cH

; 32   : 	Method(GetNumCities);

	push	0
	push	OFFSET ?lGetNumCities@CvLuaArea@@KAHPAUlua_State@@@Z ; CvLuaArea::lGetNumCities
	mov	eax, DWORD PTR _L$[ebp]
	push	eax
	call	_lua_pushcclosure
	add	esp, 12					; 0000000cH
	push	OFFSET ??_C@_0N@OFLMPMAK@GetNumCities?$AA@
	mov	ecx, DWORD PTR _t$[ebp]
	push	ecx
	mov	edx, DWORD PTR _L$[ebp]
	push	edx
	call	_lua_setfield
	add	esp, 12					; 0000000cH

; 33   : 	Method(GetNumUnits);

	push	0
	push	OFFSET ?lGetNumUnits@CvLuaArea@@KAHPAUlua_State@@@Z ; CvLuaArea::lGetNumUnits
	mov	eax, DWORD PTR _L$[ebp]
	push	eax
	call	_lua_pushcclosure
	add	esp, 12					; 0000000cH
	push	OFFSET ??_C@_0M@GNPEBAGL@GetNumUnits?$AA@
	mov	ecx, DWORD PTR _t$[ebp]
	push	ecx
	mov	edx, DWORD PTR _L$[ebp]
	push	edx
	call	_lua_setfield
	add	esp, 12					; 0000000cH

; 34   : 	Method(GetTotalPopulation);

	push	0
	push	OFFSET ?lGetTotalPopulation@CvLuaArea@@KAHPAUlua_State@@@Z ; CvLuaArea::lGetTotalPopulation
	mov	eax, DWORD PTR _L$[ebp]
	push	eax
	call	_lua_pushcclosure
	add	esp, 12					; 0000000cH
	push	OFFSET ??_C@_0BD@BKBNEN@GetTotalPopulation?$AA@
	mov	ecx, DWORD PTR _t$[ebp]
	push	ecx
	mov	edx, DWORD PTR _L$[ebp]
	push	edx
	call	_lua_setfield
	add	esp, 12					; 0000000cH

; 35   : 	Method(GetNumStartingPlots);

	push	0
	push	OFFSET ?lGetNumStartingPlots@CvLuaArea@@KAHPAUlua_State@@@Z ; CvLuaArea::lGetNumStartingPlots
	mov	eax, DWORD PTR _L$[ebp]
	push	eax
	call	_lua_pushcclosure
	add	esp, 12					; 0000000cH
	push	OFFSET ??_C@_0BE@GAFCIMBE@GetNumStartingPlots?$AA@
	mov	ecx, DWORD PTR _t$[ebp]
	push	ecx
	mov	edx, DWORD PTR _L$[ebp]
	push	edx
	call	_lua_setfield
	add	esp, 12					; 0000000cH

; 36   : 	Method(IsWater);

	push	0
	push	OFFSET ?lIsWater@CvLuaArea@@KAHPAUlua_State@@@Z ; CvLuaArea::lIsWater
	mov	eax, DWORD PTR _L$[ebp]
	push	eax
	call	_lua_pushcclosure
	add	esp, 12					; 0000000cH
	push	OFFSET ??_C@_07HDBOHACA@IsWater?$AA@
	mov	ecx, DWORD PTR _t$[ebp]
	push	ecx
	mov	edx, DWORD PTR _L$[ebp]
	push	edx
	call	_lua_setfield
	add	esp, 12					; 0000000cH

; 37   : 
; 38   : 	Method(GetUnitsPerPlayer);

	push	0
	push	OFFSET ?lGetUnitsPerPlayer@CvLuaArea@@KAHPAUlua_State@@@Z ; CvLuaArea::lGetUnitsPerPlayer
	mov	eax, DWORD PTR _L$[ebp]
	push	eax
	call	_lua_pushcclosure
	add	esp, 12					; 0000000cH
	push	OFFSET ??_C@_0BC@IAOPIBPJ@GetUnitsPerPlayer?$AA@
	mov	ecx, DWORD PTR _t$[ebp]
	push	ecx
	mov	edx, DWORD PTR _L$[ebp]
	push	edx
	call	_lua_setfield
	add	esp, 12					; 0000000cH

; 39   : 	Method(GetCitiesPerPlayer);

	push	0
	push	OFFSET ?lGetCitiesPerPlayer@CvLuaArea@@KAHPAUlua_State@@@Z ; CvLuaArea::lGetCitiesPerPlayer
	mov	eax, DWORD PTR _L$[ebp]
	push	eax
	call	_lua_pushcclosure
	add	esp, 12					; 0000000cH
	push	OFFSET ??_C@_0BD@FECEJDPC@GetCitiesPerPlayer?$AA@
	mov	ecx, DWORD PTR _t$[ebp]
	push	ecx
	mov	edx, DWORD PTR _L$[ebp]
	push	edx
	call	_lua_setfield
	add	esp, 12					; 0000000cH

; 40   : 	Method(GetPopulationPerPlayer);

	push	0
	push	OFFSET ?lGetPopulationPerPlayer@CvLuaArea@@KAHPAUlua_State@@@Z ; CvLuaArea::lGetPopulationPerPlayer
	mov	eax, DWORD PTR _L$[ebp]
	push	eax
	call	_lua_pushcclosure
	add	esp, 12					; 0000000cH
	push	OFFSET ??_C@_0BH@NCHOOAIO@GetPopulationPerPlayer?$AA@
	mov	ecx, DWORD PTR _t$[ebp]
	push	ecx
	mov	edx, DWORD PTR _L$[ebp]
	push	edx
	call	_lua_setfield
	add	esp, 12					; 0000000cH

; 41   : 	Method(GetFreeSpecialist);

	push	0
	push	OFFSET ?lGetFreeSpecialist@CvLuaArea@@KAHPAUlua_State@@@Z ; CvLuaArea::lGetFreeSpecialist
	mov	eax, DWORD PTR _L$[ebp]
	push	eax
	call	_lua_pushcclosure
	add	esp, 12					; 0000000cH
	push	OFFSET ??_C@_0BC@IKHNGEGB@GetFreeSpecialist?$AA@
	mov	ecx, DWORD PTR _t$[ebp]
	push	ecx
	mov	edx, DWORD PTR _L$[ebp]
	push	edx
	call	_lua_setfield
	add	esp, 12					; 0000000cH

; 42   : 
; 43   : 	Method(GetNumRevealedTiles);

	push	0
	push	OFFSET ?lGetNumRevealedTiles@CvLuaArea@@KAHPAUlua_State@@@Z ; CvLuaArea::lGetNumRevealedTiles
	mov	eax, DWORD PTR _L$[ebp]
	push	eax
	call	_lua_pushcclosure
	add	esp, 12					; 0000000cH
	push	OFFSET ??_C@_0BE@NADDGFOB@GetNumRevealedTiles?$AA@
	mov	ecx, DWORD PTR _t$[ebp]
	push	ecx
	mov	edx, DWORD PTR _L$[ebp]
	push	edx
	call	_lua_setfield
	add	esp, 12					; 0000000cH

; 44   : 	Method(GetNumUnrevealedTiles);

	push	0
	push	OFFSET ?lGetNumUnrevealedTiles@CvLuaArea@@KAHPAUlua_State@@@Z ; CvLuaArea::lGetNumUnrevealedTiles
	mov	eax, DWORD PTR _L$[ebp]
	push	eax
	call	_lua_pushcclosure
	add	esp, 12					; 0000000cH
	push	OFFSET ??_C@_0BG@LGPPFAJI@GetNumUnrevealedTiles?$AA@
	mov	ecx, DWORD PTR _t$[ebp]
	push	ecx
	mov	edx, DWORD PTR _L$[ebp]
	push	edx
	call	_lua_setfield
	add	esp, 12					; 0000000cH

; 45   : 
; 46   : 	Method(GetTargetCity);

	push	0
	push	OFFSET ?lGetTargetCity@CvLuaArea@@KAHPAUlua_State@@@Z ; CvLuaArea::lGetTargetCity
	mov	eax, DWORD PTR _L$[ebp]
	push	eax
	call	_lua_pushcclosure
	add	esp, 12					; 0000000cH
	push	OFFSET ??_C@_0O@HBNMDPGA@GetTargetCity?$AA@
	mov	ecx, DWORD PTR _t$[ebp]
	push	ecx
	mov	edx, DWORD PTR _L$[ebp]
	push	edx
	call	_lua_setfield
	add	esp, 12					; 0000000cH

; 47   : 	Method(GetYieldRateModifier);

	push	0
	push	OFFSET ?lGetYieldRateModifier@CvLuaArea@@KAHPAUlua_State@@@Z ; CvLuaArea::lGetYieldRateModifier
	mov	eax, DWORD PTR _L$[ebp]
	push	eax
	call	_lua_pushcclosure
	add	esp, 12					; 0000000cH
	push	OFFSET ??_C@_0BF@MPEACCAJ@GetYieldRateModifier?$AA@
	mov	ecx, DWORD PTR _t$[ebp]
	push	ecx
	mov	edx, DWORD PTR _L$[ebp]
	push	edx
	call	_lua_setfield
	add	esp, 12					; 0000000cH

; 48   : 
; 49   : 	Method(GetNumResources);

	push	0
	push	OFFSET ?lGetNumResources@CvLuaArea@@KAHPAUlua_State@@@Z ; CvLuaArea::lGetNumResources
	mov	eax, DWORD PTR _L$[ebp]
	push	eax
	call	_lua_pushcclosure
	add	esp, 12					; 0000000cH
	push	OFFSET ??_C@_0BA@GNCPKBPM@GetNumResources?$AA@
	mov	ecx, DWORD PTR _t$[ebp]
	push	ecx
	mov	edx, DWORD PTR _L$[ebp]
	push	edx
	call	_lua_setfield
	add	esp, 12					; 0000000cH

; 50   : 	Method(GetNumTotalResources);

	push	0
	push	OFFSET ?lGetNumTotalResources@CvLuaArea@@KAHPAUlua_State@@@Z ; CvLuaArea::lGetNumTotalResources
	mov	eax, DWORD PTR _L$[ebp]
	push	eax
	call	_lua_pushcclosure
	add	esp, 12					; 0000000cH
	push	OFFSET ??_C@_0BF@LHOIBGOI@GetNumTotalResources?$AA@
	mov	ecx, DWORD PTR _t$[ebp]
	push	ecx
	mov	edx, DWORD PTR _L$[ebp]
	push	edx
	call	_lua_setfield
	add	esp, 12					; 0000000cH

; 51   : 	Method(GetNumImprovements);

	push	0
	push	OFFSET ?lGetNumImprovements@CvLuaArea@@KAHPAUlua_State@@@Z ; CvLuaArea::lGetNumImprovements
	mov	eax, DWORD PTR _L$[ebp]
	push	eax
	call	_lua_pushcclosure
	add	esp, 12					; 0000000cH
	push	OFFSET ??_C@_0BD@OPPHEABP@GetNumImprovements?$AA@
	mov	ecx, DWORD PTR _t$[ebp]
	push	ecx
	mov	edx, DWORD PTR _L$[ebp]
	push	edx
	call	_lua_setfield
	add	esp, 12					; 0000000cH

; 52   : }

	pop	ebp
	ret	0
?PushMethods@CvLuaArea@@SAXPAUlua_State@@H@Z ENDP	; CvLuaArea::PushMethods
_TEXT	ENDS
PUBLIC	?DefaultHandleMissingInstance@?$CvLuaScopedInstance@VCvLuaArea@@VCvArea@@@@KAXPAUlua_State@@@Z ; CvLuaScopedInstance<CvLuaArea,CvArea>::DefaultHandleMissingInstance
PUBLIC	?HandleMissingInstance@CvLuaArea@@SAXPAUlua_State@@@Z ; CvLuaArea::HandleMissingInstance
; Function compile flags: /Odtp
;	COMDAT ?HandleMissingInstance@CvLuaArea@@SAXPAUlua_State@@@Z
_TEXT	SEGMENT
_L$ = 8							; size = 4
?HandleMissingInstance@CvLuaArea@@SAXPAUlua_State@@@Z PROC ; CvLuaArea::HandleMissingInstance, COMDAT

; 55   : {

	push	ebp
	mov	ebp, esp

; 56   : 	DefaultHandleMissingInstance(L);

	mov	eax, DWORD PTR _L$[ebp]
	push	eax
	call	?DefaultHandleMissingInstance@?$CvLuaScopedInstance@VCvLuaArea@@VCvArea@@@@KAXPAUlua_State@@@Z ; CvLuaScopedInstance<CvLuaArea,CvArea>::DefaultHandleMissingInstance
	add	esp, 4

; 57   : }

	pop	ebp
	ret	0
?HandleMissingInstance@CvLuaArea@@SAXPAUlua_State@@@Z ENDP ; CvLuaArea::HandleMissingInstance
_TEXT	ENDS
PUBLIC	??_C@_04KPICECCB@Area?$AA@			; `string'
PUBLIC	?GetTypeName@CvLuaArea@@SAPBDXZ			; CvLuaArea::GetTypeName
;	COMDAT ??_C@_04KPICECCB@Area?$AA@
CONST	SEGMENT
??_C@_04KPICECCB@Area?$AA@ DB 'Area', 00H		; `string'
; Function compile flags: /Odtp
CONST	ENDS
;	COMDAT ?GetTypeName@CvLuaArea@@SAPBDXZ
_TEXT	SEGMENT
?GetTypeName@CvLuaArea@@SAPBDXZ PROC			; CvLuaArea::GetTypeName, COMDAT

; 60   : {

	push	ebp
	mov	ebp, esp

; 61   : 	return "Area";

	mov	eax, OFFSET ??_C@_04KPICECCB@Area?$AA@

; 62   : }

	pop	ebp
	ret	0
?GetTypeName@CvLuaArea@@SAPBDXZ ENDP			; CvLuaArea::GetTypeName
_TEXT	ENDS
PUBLIC	?GetInstance@?$CvLuaScopedInstance@VCvLuaArea@@VCvArea@@@@SAPAVCvArea@@PAUlua_State@@H_N@Z ; CvLuaScopedInstance<CvLuaArea,CvArea>::GetInstance
EXTRN	_lua_pushboolean:PROC
; Function compile flags: /Odtp
;	COMDAT ?lIsNone@CvLuaArea@@KAHPAUlua_State@@@Z
_TEXT	SEGMENT
_bExists$ = -1						; size = 1
_L$ = 8							; size = 4
?lIsNone@CvLuaArea@@KAHPAUlua_State@@@Z PROC		; CvLuaArea::lIsNone, COMDAT

; 70   : {

	push	ebp
	mov	ebp, esp
	push	ecx

; 71   : #ifdef AUI_WARNING_FIXES
; 72   : 	const bool bExists = (GetInstance(L, 1, false) != NULL);
; 73   : #else
; 74   : 	const bool bExists = (GetInstance(L, false) != NULL);

	push	1
	push	0
	mov	eax, DWORD PTR _L$[ebp]
	push	eax
	call	?GetInstance@?$CvLuaScopedInstance@VCvLuaArea@@VCvArea@@@@SAPAVCvArea@@PAUlua_State@@H_N@Z ; CvLuaScopedInstance<CvLuaArea,CvArea>::GetInstance
	add	esp, 12					; 0000000cH
	test	eax, eax
	setne	cl
	mov	BYTE PTR _bExists$[ebp], cl

; 75   : #endif
; 76   : 	lua_pushboolean(L, bExists);

	movzx	edx, BYTE PTR _bExists$[ebp]
	push	edx
	mov	eax, DWORD PTR _L$[ebp]
	push	eax
	call	_lua_pushboolean
	add	esp, 8

; 77   : 
; 78   : 	return 1;

	mov	eax, 1

; 79   : }

	mov	esp, ebp
	pop	ebp
	ret	0
?lIsNone@CvLuaArea@@KAHPAUlua_State@@@Z ENDP		; CvLuaArea::lIsNone
_TEXT	ENDS
EXTRN	_lua_pushinteger:PROC
EXTRN	?calculateTotalBestNatureYield@CvArea@@QBEHXZ:PROC ; CvArea::calculateTotalBestNatureYield
; Function compile flags: /Odtp
;	COMDAT ?lCalculateTotalBestNatureYield@CvLuaArea@@KAHPAUlua_State@@@Z
_TEXT	SEGMENT
_pkArea$ = -8						; size = 4
_iResult$ = -4						; size = 4
_L$ = 8							; size = 4
?lCalculateTotalBestNatureYield@CvLuaArea@@KAHPAUlua_State@@@Z PROC ; CvLuaArea::lCalculateTotalBestNatureYield, COMDAT

; 82   : {

	push	ebp
	mov	ebp, esp
	sub	esp, 8

; 83   : 	CvArea* pkArea = GetInstance(L);

	push	1
	push	1
	mov	eax, DWORD PTR _L$[ebp]
	push	eax
	call	?GetInstance@?$CvLuaScopedInstance@VCvLuaArea@@VCvArea@@@@SAPAVCvArea@@PAUlua_State@@H_N@Z ; CvLuaScopedInstance<CvLuaArea,CvArea>::GetInstance
	add	esp, 12					; 0000000cH
	mov	DWORD PTR _pkArea$[ebp], eax

; 84   : 
; 85   : 	const int iResult = pkArea->calculateTotalBestNatureYield();

	mov	ecx, DWORD PTR _pkArea$[ebp]
	call	?calculateTotalBestNatureYield@CvArea@@QBEHXZ ; CvArea::calculateTotalBestNatureYield
	mov	DWORD PTR _iResult$[ebp], eax

; 86   : 	lua_pushinteger(L, iResult);

	mov	ecx, DWORD PTR _iResult$[ebp]
	push	ecx
	mov	edx, DWORD PTR _L$[ebp]
	push	edx
	call	_lua_pushinteger
	add	esp, 8

; 87   : 	return 1;

	mov	eax, 1

; 88   : }

	mov	esp, ebp
	pop	ebp
	ret	0
?lCalculateTotalBestNatureYield@CvLuaArea@@KAHPAUlua_State@@@Z ENDP ; CvLuaArea::lCalculateTotalBestNatureYield
_TEXT	ENDS
EXTRN	?countCoastalLand@CvArea@@QBEHXZ:PROC		; CvArea::countCoastalLand
; Function compile flags: /Odtp
;	COMDAT ?lCountCoastalLand@CvLuaArea@@KAHPAUlua_State@@@Z
_TEXT	SEGMENT
_pkArea$ = -8						; size = 4
_iResult$ = -4						; size = 4
_L$ = 8							; size = 4
?lCountCoastalLand@CvLuaArea@@KAHPAUlua_State@@@Z PROC	; CvLuaArea::lCountCoastalLand, COMDAT

; 92   : {

	push	ebp
	mov	ebp, esp
	sub	esp, 8

; 93   : 	CvArea* pkArea = GetInstance(L);

	push	1
	push	1
	mov	eax, DWORD PTR _L$[ebp]
	push	eax
	call	?GetInstance@?$CvLuaScopedInstance@VCvLuaArea@@VCvArea@@@@SAPAVCvArea@@PAUlua_State@@H_N@Z ; CvLuaScopedInstance<CvLuaArea,CvArea>::GetInstance
	add	esp, 12					; 0000000cH
	mov	DWORD PTR _pkArea$[ebp], eax

; 94   : 
; 95   : 	const int iResult = pkArea->countCoastalLand();

	mov	ecx, DWORD PTR _pkArea$[ebp]
	call	?countCoastalLand@CvArea@@QBEHXZ	; CvArea::countCoastalLand
	mov	DWORD PTR _iResult$[ebp], eax

; 96   : 	lua_pushinteger(L, iResult);

	mov	ecx, DWORD PTR _iResult$[ebp]
	push	ecx
	mov	edx, DWORD PTR _L$[ebp]
	push	edx
	call	_lua_pushinteger
	add	esp, 8

; 97   : 	return 1;

	mov	eax, 1

; 98   : }

	mov	esp, ebp
	pop	ebp
	ret	0
?lCountCoastalLand@CvLuaArea@@KAHPAUlua_State@@@Z ENDP	; CvLuaArea::lCountCoastalLand
_TEXT	ENDS
EXTRN	?countNumUniqueResourceTypes@CvArea@@QBEHXZ:PROC ; CvArea::countNumUniqueResourceTypes
; Function compile flags: /Odtp
;	COMDAT ?lCountNumUniqueResourceTypes@CvLuaArea@@KAHPAUlua_State@@@Z
_TEXT	SEGMENT
_pkArea$ = -8						; size = 4
_iResult$ = -4						; size = 4
_L$ = 8							; size = 4
?lCountNumUniqueResourceTypes@CvLuaArea@@KAHPAUlua_State@@@Z PROC ; CvLuaArea::lCountNumUniqueResourceTypes, COMDAT

; 102  : {

	push	ebp
	mov	ebp, esp
	sub	esp, 8

; 103  : 	CvArea* pkArea = GetInstance(L);

	push	1
	push	1
	mov	eax, DWORD PTR _L$[ebp]
	push	eax
	call	?GetInstance@?$CvLuaScopedInstance@VCvLuaArea@@VCvArea@@@@SAPAVCvArea@@PAUlua_State@@H_N@Z ; CvLuaScopedInstance<CvLuaArea,CvArea>::GetInstance
	add	esp, 12					; 0000000cH
	mov	DWORD PTR _pkArea$[ebp], eax

; 104  : 
; 105  : 	const int iResult = pkArea->countNumUniqueResourceTypes();

	mov	ecx, DWORD PTR _pkArea$[ebp]
	call	?countNumUniqueResourceTypes@CvArea@@QBEHXZ ; CvArea::countNumUniqueResourceTypes
	mov	DWORD PTR _iResult$[ebp], eax

; 106  : 	lua_pushinteger(L, iResult);

	mov	ecx, DWORD PTR _iResult$[ebp]
	push	ecx
	mov	edx, DWORD PTR _L$[ebp]
	push	edx
	call	_lua_pushinteger
	add	esp, 8

; 107  : 	return 1;

	mov	eax, 1

; 108  : }

	mov	esp, ebp
	pop	ebp
	ret	0
?lCountNumUniqueResourceTypes@CvLuaArea@@KAHPAUlua_State@@@Z ENDP ; CvLuaArea::lCountNumUniqueResourceTypes
; Function compile flags: /Odtp
_TEXT	ENDS
;	COMDAT ?lGetID@CvLuaArea@@KAHPAUlua_State@@@Z
_TEXT	SEGMENT
_pkArea$ = -8						; size = 4
_iResult$ = -4						; size = 4
_L$ = 8							; size = 4
?lGetID@CvLuaArea@@KAHPAUlua_State@@@Z PROC		; CvLuaArea::lGetID, COMDAT

; 112  : {

	push	ebp
	mov	ebp, esp
	sub	esp, 8

; 113  : 	CvArea* pkArea = GetInstance(L);

	push	1
	push	1
	mov	eax, DWORD PTR _L$[ebp]
	push	eax
	call	?GetInstance@?$CvLuaScopedInstance@VCvLuaArea@@VCvArea@@@@SAPAVCvArea@@PAUlua_State@@H_N@Z ; CvLuaScopedInstance<CvLuaArea,CvArea>::GetInstance
	add	esp, 12					; 0000000cH
	mov	DWORD PTR _pkArea$[ebp], eax

; 114  : 
; 115  : 	const int iResult = pkArea->GetID();

	mov	ecx, DWORD PTR _pkArea$[ebp]
	mov	edx, DWORD PTR [ecx+4]
	mov	DWORD PTR _iResult$[ebp], edx

; 116  : 	lua_pushinteger(L, iResult);

	mov	eax, DWORD PTR _iResult$[ebp]
	push	eax
	mov	ecx, DWORD PTR _L$[ebp]
	push	ecx
	call	_lua_pushinteger
	add	esp, 8

; 117  : 	return 1;

	mov	eax, 1

; 118  : }

	mov	esp, ebp
	pop	ebp
	ret	0
?lGetID@CvLuaArea@@KAHPAUlua_State@@@Z ENDP		; CvLuaArea::lGetID
_TEXT	ENDS
EXTRN	?getNumTiles@CvArea@@QBEHXZ:PROC		; CvArea::getNumTiles
; Function compile flags: /Odtp
;	COMDAT ?lGetNumTiles@CvLuaArea@@KAHPAUlua_State@@@Z
_TEXT	SEGMENT
_pkArea$ = -8						; size = 4
_iResult$ = -4						; size = 4
_L$ = 8							; size = 4
?lGetNumTiles@CvLuaArea@@KAHPAUlua_State@@@Z PROC	; CvLuaArea::lGetNumTiles, COMDAT

; 122  : {

	push	ebp
	mov	ebp, esp
	sub	esp, 8

; 123  : 	CvArea* pkArea = GetInstance(L);

	push	1
	push	1
	mov	eax, DWORD PTR _L$[ebp]
	push	eax
	call	?GetInstance@?$CvLuaScopedInstance@VCvLuaArea@@VCvArea@@@@SAPAVCvArea@@PAUlua_State@@H_N@Z ; CvLuaScopedInstance<CvLuaArea,CvArea>::GetInstance
	add	esp, 12					; 0000000cH
	mov	DWORD PTR _pkArea$[ebp], eax

; 124  : 
; 125  : 	const int iResult = pkArea->getNumTiles();

	mov	ecx, DWORD PTR _pkArea$[ebp]
	call	?getNumTiles@CvArea@@QBEHXZ		; CvArea::getNumTiles
	mov	DWORD PTR _iResult$[ebp], eax

; 126  : 	lua_pushinteger(L, iResult);

	mov	ecx, DWORD PTR _iResult$[ebp]
	push	ecx
	mov	edx, DWORD PTR _L$[ebp]
	push	edx
	call	_lua_pushinteger
	add	esp, 8

; 127  : 	return 1;

	mov	eax, 1

; 128  : }

	mov	esp, ebp
	pop	ebp
	ret	0
?lGetNumTiles@CvLuaArea@@KAHPAUlua_State@@@Z ENDP	; CvLuaArea::lGetNumTiles
_TEXT	ENDS
EXTRN	?getNumOwnedTiles@CvArea@@QBEHXZ:PROC		; CvArea::getNumOwnedTiles
; Function compile flags: /Odtp
;	COMDAT ?lGetNumOwnedTiles@CvLuaArea@@KAHPAUlua_State@@@Z
_TEXT	SEGMENT
_pkArea$ = -8						; size = 4
_iResult$ = -4						; size = 4
_L$ = 8							; size = 4
?lGetNumOwnedTiles@CvLuaArea@@KAHPAUlua_State@@@Z PROC	; CvLuaArea::lGetNumOwnedTiles, COMDAT

; 142  : {

	push	ebp
	mov	ebp, esp
	sub	esp, 8

; 143  : 	CvArea* pkArea = GetInstance(L);

	push	1
	push	1
	mov	eax, DWORD PTR _L$[ebp]
	push	eax
	call	?GetInstance@?$CvLuaScopedInstance@VCvLuaArea@@VCvArea@@@@SAPAVCvArea@@PAUlua_State@@H_N@Z ; CvLuaScopedInstance<CvLuaArea,CvArea>::GetInstance
	add	esp, 12					; 0000000cH
	mov	DWORD PTR _pkArea$[ebp], eax

; 144  : 
; 145  : 	const int iResult = pkArea->getNumOwnedTiles();

	mov	ecx, DWORD PTR _pkArea$[ebp]
	call	?getNumOwnedTiles@CvArea@@QBEHXZ	; CvArea::getNumOwnedTiles
	mov	DWORD PTR _iResult$[ebp], eax

; 146  : 	lua_pushinteger(L, iResult);

	mov	ecx, DWORD PTR _iResult$[ebp]
	push	ecx
	mov	edx, DWORD PTR _L$[ebp]
	push	edx
	call	_lua_pushinteger
	add	esp, 8

; 147  : 	return 1;

	mov	eax, 1

; 148  : }

	mov	esp, ebp
	pop	ebp
	ret	0
?lGetNumOwnedTiles@CvLuaArea@@KAHPAUlua_State@@@Z ENDP	; CvLuaArea::lGetNumOwnedTiles
_TEXT	ENDS
EXTRN	?getNumUnownedTiles@CvArea@@QBEHXZ:PROC		; CvArea::getNumUnownedTiles
; Function compile flags: /Odtp
;	COMDAT ?lGetNumUnownedTiles@CvLuaArea@@KAHPAUlua_State@@@Z
_TEXT	SEGMENT
_pkArea$ = -8						; size = 4
_iResult$ = -4						; size = 4
_L$ = 8							; size = 4
?lGetNumUnownedTiles@CvLuaArea@@KAHPAUlua_State@@@Z PROC ; CvLuaArea::lGetNumUnownedTiles, COMDAT

; 152  : {

	push	ebp
	mov	ebp, esp
	sub	esp, 8

; 153  : 	CvArea* pkArea = GetInstance(L);

	push	1
	push	1
	mov	eax, DWORD PTR _L$[ebp]
	push	eax
	call	?GetInstance@?$CvLuaScopedInstance@VCvLuaArea@@VCvArea@@@@SAPAVCvArea@@PAUlua_State@@H_N@Z ; CvLuaScopedInstance<CvLuaArea,CvArea>::GetInstance
	add	esp, 12					; 0000000cH
	mov	DWORD PTR _pkArea$[ebp], eax

; 154  : 
; 155  : 	const int iResult = pkArea->getNumUnownedTiles();

	mov	ecx, DWORD PTR _pkArea$[ebp]
	call	?getNumUnownedTiles@CvArea@@QBEHXZ	; CvArea::getNumUnownedTiles
	mov	DWORD PTR _iResult$[ebp], eax

; 156  : 	lua_pushinteger(L, iResult);

	mov	ecx, DWORD PTR _iResult$[ebp]
	push	ecx
	mov	edx, DWORD PTR _L$[ebp]
	push	edx
	call	_lua_pushinteger
	add	esp, 8

; 157  : 	return 1;

	mov	eax, 1

; 158  : }

	mov	esp, ebp
	pop	ebp
	ret	0
?lGetNumUnownedTiles@CvLuaArea@@KAHPAUlua_State@@@Z ENDP ; CvLuaArea::lGetNumUnownedTiles
_TEXT	ENDS
EXTRN	?getNumRiverEdges@CvArea@@QBEHXZ:PROC		; CvArea::getNumRiverEdges
; Function compile flags: /Odtp
;	COMDAT ?lGetNumRiverEdges@CvLuaArea@@KAHPAUlua_State@@@Z
_TEXT	SEGMENT
_pkArea$ = -8						; size = 4
_iResult$ = -4						; size = 4
_L$ = 8							; size = 4
?lGetNumRiverEdges@CvLuaArea@@KAHPAUlua_State@@@Z PROC	; CvLuaArea::lGetNumRiverEdges, COMDAT

; 162  : {

	push	ebp
	mov	ebp, esp
	sub	esp, 8

; 163  : 	CvArea* pkArea = GetInstance(L);

	push	1
	push	1
	mov	eax, DWORD PTR _L$[ebp]
	push	eax
	call	?GetInstance@?$CvLuaScopedInstance@VCvLuaArea@@VCvArea@@@@SAPAVCvArea@@PAUlua_State@@H_N@Z ; CvLuaScopedInstance<CvLuaArea,CvArea>::GetInstance
	add	esp, 12					; 0000000cH
	mov	DWORD PTR _pkArea$[ebp], eax

; 164  : 
; 165  : 	const int iResult = pkArea->getNumRiverEdges();

	mov	ecx, DWORD PTR _pkArea$[ebp]
	call	?getNumRiverEdges@CvArea@@QBEHXZ	; CvArea::getNumRiverEdges
	mov	DWORD PTR _iResult$[ebp], eax

; 166  : 	lua_pushinteger(L, iResult);

	mov	ecx, DWORD PTR _iResult$[ebp]
	push	ecx
	mov	edx, DWORD PTR _L$[ebp]
	push	edx
	call	_lua_pushinteger
	add	esp, 8

; 167  : 	return 1;

	mov	eax, 1

; 168  : }

	mov	esp, ebp
	pop	ebp
	ret	0
?lGetNumRiverEdges@CvLuaArea@@KAHPAUlua_State@@@Z ENDP	; CvLuaArea::lGetNumRiverEdges
_TEXT	ENDS
EXTRN	?getNumCities@CvArea@@QBEHXZ:PROC		; CvArea::getNumCities
; Function compile flags: /Odtp
;	COMDAT ?lGetNumCities@CvLuaArea@@KAHPAUlua_State@@@Z
_TEXT	SEGMENT
_pkArea$ = -8						; size = 4
_iResult$ = -4						; size = 4
_L$ = 8							; size = 4
?lGetNumCities@CvLuaArea@@KAHPAUlua_State@@@Z PROC	; CvLuaArea::lGetNumCities, COMDAT

; 172  : {

	push	ebp
	mov	ebp, esp
	sub	esp, 8

; 173  : 	CvArea* pkArea = GetInstance(L);

	push	1
	push	1
	mov	eax, DWORD PTR _L$[ebp]
	push	eax
	call	?GetInstance@?$CvLuaScopedInstance@VCvLuaArea@@VCvArea@@@@SAPAVCvArea@@PAUlua_State@@H_N@Z ; CvLuaScopedInstance<CvLuaArea,CvArea>::GetInstance
	add	esp, 12					; 0000000cH
	mov	DWORD PTR _pkArea$[ebp], eax

; 174  : 
; 175  : 	const int iResult = pkArea->getNumCities();

	mov	ecx, DWORD PTR _pkArea$[ebp]
	call	?getNumCities@CvArea@@QBEHXZ		; CvArea::getNumCities
	mov	DWORD PTR _iResult$[ebp], eax

; 176  : 	lua_pushinteger(L, iResult);

	mov	ecx, DWORD PTR _iResult$[ebp]
	push	ecx
	mov	edx, DWORD PTR _L$[ebp]
	push	edx
	call	_lua_pushinteger
	add	esp, 8

; 177  : 	return 1;

	mov	eax, 1

; 178  : }

	mov	esp, ebp
	pop	ebp
	ret	0
?lGetNumCities@CvLuaArea@@KAHPAUlua_State@@@Z ENDP	; CvLuaArea::lGetNumCities
_TEXT	ENDS
EXTRN	?getNumUnits@CvArea@@QBEHXZ:PROC		; CvArea::getNumUnits
; Function compile flags: /Odtp
;	COMDAT ?lGetNumUnits@CvLuaArea@@KAHPAUlua_State@@@Z
_TEXT	SEGMENT
_pkArea$ = -8						; size = 4
_iResult$ = -4						; size = 4
_L$ = 8							; size = 4
?lGetNumUnits@CvLuaArea@@KAHPAUlua_State@@@Z PROC	; CvLuaArea::lGetNumUnits, COMDAT

; 182  : {

	push	ebp
	mov	ebp, esp
	sub	esp, 8

; 183  : 	CvArea* pkArea = GetInstance(L);

	push	1
	push	1
	mov	eax, DWORD PTR _L$[ebp]
	push	eax
	call	?GetInstance@?$CvLuaScopedInstance@VCvLuaArea@@VCvArea@@@@SAPAVCvArea@@PAUlua_State@@H_N@Z ; CvLuaScopedInstance<CvLuaArea,CvArea>::GetInstance
	add	esp, 12					; 0000000cH
	mov	DWORD PTR _pkArea$[ebp], eax

; 184  : 
; 185  : 	const int iResult = pkArea->getNumUnits();

	mov	ecx, DWORD PTR _pkArea$[ebp]
	call	?getNumUnits@CvArea@@QBEHXZ		; CvArea::getNumUnits
	mov	DWORD PTR _iResult$[ebp], eax

; 186  : 	lua_pushinteger(L, iResult);

	mov	ecx, DWORD PTR _iResult$[ebp]
	push	ecx
	mov	edx, DWORD PTR _L$[ebp]
	push	edx
	call	_lua_pushinteger
	add	esp, 8

; 187  : 	return 1;

	mov	eax, 1

; 188  : }

	mov	esp, ebp
	pop	ebp
	ret	0
?lGetNumUnits@CvLuaArea@@KAHPAUlua_State@@@Z ENDP	; CvLuaArea::lGetNumUnits
_TEXT	ENDS
EXTRN	?getTotalPopulation@CvArea@@QBEHXZ:PROC		; CvArea::getTotalPopulation
; Function compile flags: /Odtp
;	COMDAT ?lGetTotalPopulation@CvLuaArea@@KAHPAUlua_State@@@Z
_TEXT	SEGMENT
_pkArea$ = -8						; size = 4
_iResult$ = -4						; size = 4
_L$ = 8							; size = 4
?lGetTotalPopulation@CvLuaArea@@KAHPAUlua_State@@@Z PROC ; CvLuaArea::lGetTotalPopulation, COMDAT

; 192  : {

	push	ebp
	mov	ebp, esp
	sub	esp, 8

; 193  : 	CvArea* pkArea = GetInstance(L);

	push	1
	push	1
	mov	eax, DWORD PTR _L$[ebp]
	push	eax
	call	?GetInstance@?$CvLuaScopedInstance@VCvLuaArea@@VCvArea@@@@SAPAVCvArea@@PAUlua_State@@H_N@Z ; CvLuaScopedInstance<CvLuaArea,CvArea>::GetInstance
	add	esp, 12					; 0000000cH
	mov	DWORD PTR _pkArea$[ebp], eax

; 194  : 
; 195  : 	const int iResult = pkArea->getTotalPopulation();

	mov	ecx, DWORD PTR _pkArea$[ebp]
	call	?getTotalPopulation@CvArea@@QBEHXZ	; CvArea::getTotalPopulation
	mov	DWORD PTR _iResult$[ebp], eax

; 196  : 	lua_pushinteger(L, iResult);

	mov	ecx, DWORD PTR _iResult$[ebp]
	push	ecx
	mov	edx, DWORD PTR _L$[ebp]
	push	edx
	call	_lua_pushinteger
	add	esp, 8

; 197  : 	return 1;

	mov	eax, 1

; 198  : }

	mov	esp, ebp
	pop	ebp
	ret	0
?lGetTotalPopulation@CvLuaArea@@KAHPAUlua_State@@@Z ENDP ; CvLuaArea::lGetTotalPopulation
_TEXT	ENDS
EXTRN	?getNumStartingPlots@CvArea@@QBEHXZ:PROC	; CvArea::getNumStartingPlots
; Function compile flags: /Odtp
;	COMDAT ?lGetNumStartingPlots@CvLuaArea@@KAHPAUlua_State@@@Z
_TEXT	SEGMENT
_pkArea$ = -8						; size = 4
_iResult$ = -4						; size = 4
_L$ = 8							; size = 4
?lGetNumStartingPlots@CvLuaArea@@KAHPAUlua_State@@@Z PROC ; CvLuaArea::lGetNumStartingPlots, COMDAT

; 202  : {

	push	ebp
	mov	ebp, esp
	sub	esp, 8

; 203  : 	CvArea* pkArea = GetInstance(L);

	push	1
	push	1
	mov	eax, DWORD PTR _L$[ebp]
	push	eax
	call	?GetInstance@?$CvLuaScopedInstance@VCvLuaArea@@VCvArea@@@@SAPAVCvArea@@PAUlua_State@@H_N@Z ; CvLuaScopedInstance<CvLuaArea,CvArea>::GetInstance
	add	esp, 12					; 0000000cH
	mov	DWORD PTR _pkArea$[ebp], eax

; 204  : 
; 205  : 	const int iResult = pkArea->getNumStartingPlots();

	mov	ecx, DWORD PTR _pkArea$[ebp]
	call	?getNumStartingPlots@CvArea@@QBEHXZ	; CvArea::getNumStartingPlots
	mov	DWORD PTR _iResult$[ebp], eax

; 206  : 	lua_pushinteger(L, iResult);

	mov	ecx, DWORD PTR _iResult$[ebp]
	push	ecx
	mov	edx, DWORD PTR _L$[ebp]
	push	edx
	call	_lua_pushinteger
	add	esp, 8

; 207  : 	return 1;

	mov	eax, 1

; 208  : }

	mov	esp, ebp
	pop	ebp
	ret	0
?lGetNumStartingPlots@CvLuaArea@@KAHPAUlua_State@@@Z ENDP ; CvLuaArea::lGetNumStartingPlots
_TEXT	ENDS
EXTRN	?isWater@CvArea@@QBE_NXZ:PROC			; CvArea::isWater
; Function compile flags: /Odtp
;	COMDAT ?lIsWater@CvLuaArea@@KAHPAUlua_State@@@Z
_TEXT	SEGMENT
_bResult$ = -5						; size = 1
_pkArea$ = -4						; size = 4
_L$ = 8							; size = 4
?lIsWater@CvLuaArea@@KAHPAUlua_State@@@Z PROC		; CvLuaArea::lIsWater, COMDAT

; 212  : {

	push	ebp
	mov	ebp, esp
	sub	esp, 8

; 213  : 	CvArea* pkArea = GetInstance(L);

	push	1
	push	1
	mov	eax, DWORD PTR _L$[ebp]
	push	eax
	call	?GetInstance@?$CvLuaScopedInstance@VCvLuaArea@@VCvArea@@@@SAPAVCvArea@@PAUlua_State@@H_N@Z ; CvLuaScopedInstance<CvLuaArea,CvArea>::GetInstance
	add	esp, 12					; 0000000cH
	mov	DWORD PTR _pkArea$[ebp], eax

; 214  : 	const bool bResult = pkArea->isWater();

	mov	ecx, DWORD PTR _pkArea$[ebp]
	call	?isWater@CvArea@@QBE_NXZ		; CvArea::isWater
	mov	BYTE PTR _bResult$[ebp], al

; 215  : 	lua_pushboolean(L, bResult);

	movzx	ecx, BYTE PTR _bResult$[ebp]
	push	ecx
	mov	edx, DWORD PTR _L$[ebp]
	push	edx
	call	_lua_pushboolean
	add	esp, 8

; 216  : 	return 1;

	mov	eax, 1

; 217  : }

	mov	esp, ebp
	pop	ebp
	ret	0
?lIsWater@CvLuaArea@@KAHPAUlua_State@@@Z ENDP		; CvLuaArea::lIsWater
_TEXT	ENDS
EXTRN	?getUnitsPerPlayer@CvArea@@QBEHW4PlayerTypes@@@Z:PROC ; CvArea::getUnitsPerPlayer
EXTRN	_lua_tointeger:PROC
; Function compile flags: /Odtp
;	COMDAT ?lGetUnitsPerPlayer@CvLuaArea@@KAHPAUlua_State@@@Z
_TEXT	SEGMENT
_eIndex$ = -12						; size = 4
_pkArea$ = -8						; size = 4
_iResult$ = -4						; size = 4
_L$ = 8							; size = 4
?lGetUnitsPerPlayer@CvLuaArea@@KAHPAUlua_State@@@Z PROC	; CvLuaArea::lGetUnitsPerPlayer, COMDAT

; 221  : {

	push	ebp
	mov	ebp, esp
	sub	esp, 12					; 0000000cH

; 222  : 	CvArea* pkArea = GetInstance(L);

	push	1
	push	1
	mov	eax, DWORD PTR _L$[ebp]
	push	eax
	call	?GetInstance@?$CvLuaScopedInstance@VCvLuaArea@@VCvArea@@@@SAPAVCvArea@@PAUlua_State@@H_N@Z ; CvLuaScopedInstance<CvLuaArea,CvArea>::GetInstance
	add	esp, 12					; 0000000cH
	mov	DWORD PTR _pkArea$[ebp], eax

; 223  : 	const PlayerTypes eIndex = (PlayerTypes)lua_tointeger(L, 2);

	push	2
	mov	ecx, DWORD PTR _L$[ebp]
	push	ecx
	call	_lua_tointeger
	add	esp, 8
	mov	DWORD PTR _eIndex$[ebp], eax

; 224  : 
; 225  : 	const int iResult = pkArea->getUnitsPerPlayer(eIndex);

	mov	edx, DWORD PTR _eIndex$[ebp]
	push	edx
	mov	ecx, DWORD PTR _pkArea$[ebp]
	call	?getUnitsPerPlayer@CvArea@@QBEHW4PlayerTypes@@@Z ; CvArea::getUnitsPerPlayer
	mov	DWORD PTR _iResult$[ebp], eax

; 226  : 	lua_pushinteger(L, iResult);

	mov	eax, DWORD PTR _iResult$[ebp]
	push	eax
	mov	ecx, DWORD PTR _L$[ebp]
	push	ecx
	call	_lua_pushinteger
	add	esp, 8

; 227  : 	return 1;

	mov	eax, 1

; 228  : }

	mov	esp, ebp
	pop	ebp
	ret	0
?lGetUnitsPerPlayer@CvLuaArea@@KAHPAUlua_State@@@Z ENDP	; CvLuaArea::lGetUnitsPerPlayer
_TEXT	ENDS
EXTRN	?getCitiesPerPlayer@CvArea@@QBEHW4PlayerTypes@@@Z:PROC ; CvArea::getCitiesPerPlayer
; Function compile flags: /Odtp
;	COMDAT ?lGetCitiesPerPlayer@CvLuaArea@@KAHPAUlua_State@@@Z
_TEXT	SEGMENT
_eIndex$ = -12						; size = 4
_pkArea$ = -8						; size = 4
_iResult$ = -4						; size = 4
_L$ = 8							; size = 4
?lGetCitiesPerPlayer@CvLuaArea@@KAHPAUlua_State@@@Z PROC ; CvLuaArea::lGetCitiesPerPlayer, COMDAT

; 232  : {

	push	ebp
	mov	ebp, esp
	sub	esp, 12					; 0000000cH

; 233  : 	CvArea* pkArea = GetInstance(L);

	push	1
	push	1
	mov	eax, DWORD PTR _L$[ebp]
	push	eax
	call	?GetInstance@?$CvLuaScopedInstance@VCvLuaArea@@VCvArea@@@@SAPAVCvArea@@PAUlua_State@@H_N@Z ; CvLuaScopedInstance<CvLuaArea,CvArea>::GetInstance
	add	esp, 12					; 0000000cH
	mov	DWORD PTR _pkArea$[ebp], eax

; 234  : 	const PlayerTypes eIndex = (PlayerTypes)lua_tointeger(L, 2);

	push	2
	mov	ecx, DWORD PTR _L$[ebp]
	push	ecx
	call	_lua_tointeger
	add	esp, 8
	mov	DWORD PTR _eIndex$[ebp], eax

; 235  : 
; 236  : 	const int iResult = pkArea->getCitiesPerPlayer(eIndex);

	mov	edx, DWORD PTR _eIndex$[ebp]
	push	edx
	mov	ecx, DWORD PTR _pkArea$[ebp]
	call	?getCitiesPerPlayer@CvArea@@QBEHW4PlayerTypes@@@Z ; CvArea::getCitiesPerPlayer
	mov	DWORD PTR _iResult$[ebp], eax

; 237  : 	lua_pushinteger(L, iResult);

	mov	eax, DWORD PTR _iResult$[ebp]
	push	eax
	mov	ecx, DWORD PTR _L$[ebp]
	push	ecx
	call	_lua_pushinteger
	add	esp, 8

; 238  : 	return 1;

	mov	eax, 1

; 239  : }

	mov	esp, ebp
	pop	ebp
	ret	0
?lGetCitiesPerPlayer@CvLuaArea@@KAHPAUlua_State@@@Z ENDP ; CvLuaArea::lGetCitiesPerPlayer
_TEXT	ENDS
EXTRN	?getPopulationPerPlayer@CvArea@@QBEHW4PlayerTypes@@@Z:PROC ; CvArea::getPopulationPerPlayer
; Function compile flags: /Odtp
;	COMDAT ?lGetPopulationPerPlayer@CvLuaArea@@KAHPAUlua_State@@@Z
_TEXT	SEGMENT
_eIndex$ = -12						; size = 4
_pkArea$ = -8						; size = 4
_iResult$ = -4						; size = 4
_L$ = 8							; size = 4
?lGetPopulationPerPlayer@CvLuaArea@@KAHPAUlua_State@@@Z PROC ; CvLuaArea::lGetPopulationPerPlayer, COMDAT

; 243  : {

	push	ebp
	mov	ebp, esp
	sub	esp, 12					; 0000000cH

; 244  : 	CvArea* pkArea = GetInstance(L);

	push	1
	push	1
	mov	eax, DWORD PTR _L$[ebp]
	push	eax
	call	?GetInstance@?$CvLuaScopedInstance@VCvLuaArea@@VCvArea@@@@SAPAVCvArea@@PAUlua_State@@H_N@Z ; CvLuaScopedInstance<CvLuaArea,CvArea>::GetInstance
	add	esp, 12					; 0000000cH
	mov	DWORD PTR _pkArea$[ebp], eax

; 245  : 	const PlayerTypes eIndex = (PlayerTypes)lua_tointeger(L, 2);

	push	2
	mov	ecx, DWORD PTR _L$[ebp]
	push	ecx
	call	_lua_tointeger
	add	esp, 8
	mov	DWORD PTR _eIndex$[ebp], eax

; 246  : 
; 247  : 	const int iResult = pkArea->getPopulationPerPlayer(eIndex);

	mov	edx, DWORD PTR _eIndex$[ebp]
	push	edx
	mov	ecx, DWORD PTR _pkArea$[ebp]
	call	?getPopulationPerPlayer@CvArea@@QBEHW4PlayerTypes@@@Z ; CvArea::getPopulationPerPlayer
	mov	DWORD PTR _iResult$[ebp], eax

; 248  : 	lua_pushinteger(L, iResult);

	mov	eax, DWORD PTR _iResult$[ebp]
	push	eax
	mov	ecx, DWORD PTR _L$[ebp]
	push	ecx
	call	_lua_pushinteger
	add	esp, 8

; 249  : 	return 1;

	mov	eax, 1

; 250  : }

	mov	esp, ebp
	pop	ebp
	ret	0
?lGetPopulationPerPlayer@CvLuaArea@@KAHPAUlua_State@@@Z ENDP ; CvLuaArea::lGetPopulationPerPlayer
_TEXT	ENDS
EXTRN	?getFreeSpecialist@CvArea@@QBEHW4PlayerTypes@@@Z:PROC ; CvArea::getFreeSpecialist
; Function compile flags: /Odtp
;	COMDAT ?lGetFreeSpecialist@CvLuaArea@@KAHPAUlua_State@@@Z
_TEXT	SEGMENT
_eIndex$ = -12						; size = 4
_pkArea$ = -8						; size = 4
_iResult$ = -4						; size = 4
_L$ = 8							; size = 4
?lGetFreeSpecialist@CvLuaArea@@KAHPAUlua_State@@@Z PROC	; CvLuaArea::lGetFreeSpecialist, COMDAT

; 254  : {

	push	ebp
	mov	ebp, esp
	sub	esp, 12					; 0000000cH

; 255  : 	CvArea* pkArea = GetInstance(L);

	push	1
	push	1
	mov	eax, DWORD PTR _L$[ebp]
	push	eax
	call	?GetInstance@?$CvLuaScopedInstance@VCvLuaArea@@VCvArea@@@@SAPAVCvArea@@PAUlua_State@@H_N@Z ; CvLuaScopedInstance<CvLuaArea,CvArea>::GetInstance
	add	esp, 12					; 0000000cH
	mov	DWORD PTR _pkArea$[ebp], eax

; 256  : 	const PlayerTypes eIndex = (PlayerTypes)lua_tointeger(L, 2);

	push	2
	mov	ecx, DWORD PTR _L$[ebp]
	push	ecx
	call	_lua_tointeger
	add	esp, 8
	mov	DWORD PTR _eIndex$[ebp], eax

; 257  : 
; 258  : 	const int iResult = pkArea->getFreeSpecialist(eIndex);

	mov	edx, DWORD PTR _eIndex$[ebp]
	push	edx
	mov	ecx, DWORD PTR _pkArea$[ebp]
	call	?getFreeSpecialist@CvArea@@QBEHW4PlayerTypes@@@Z ; CvArea::getFreeSpecialist
	mov	DWORD PTR _iResult$[ebp], eax

; 259  : 	lua_pushinteger(L, iResult);

	mov	eax, DWORD PTR _iResult$[ebp]
	push	eax
	mov	ecx, DWORD PTR _L$[ebp]
	push	ecx
	call	_lua_pushinteger
	add	esp, 8

; 260  : 	return 1;

	mov	eax, 1

; 261  : }

	mov	esp, ebp
	pop	ebp
	ret	0
?lGetFreeSpecialist@CvLuaArea@@KAHPAUlua_State@@@Z ENDP	; CvLuaArea::lGetFreeSpecialist
_TEXT	ENDS
EXTRN	?getNumRevealedTiles@CvArea@@QBEHW4TeamTypes@@@Z:PROC ; CvArea::getNumRevealedTiles
; Function compile flags: /Odtp
;	COMDAT ?lGetNumRevealedTiles@CvLuaArea@@KAHPAUlua_State@@@Z
_TEXT	SEGMENT
_eIndex$ = -12						; size = 4
_pkArea$ = -8						; size = 4
_iResult$ = -4						; size = 4
_L$ = 8							; size = 4
?lGetNumRevealedTiles@CvLuaArea@@KAHPAUlua_State@@@Z PROC ; CvLuaArea::lGetNumRevealedTiles, COMDAT

; 265  : {

	push	ebp
	mov	ebp, esp
	sub	esp, 12					; 0000000cH

; 266  : 	CvArea* pkArea = GetInstance(L);

	push	1
	push	1
	mov	eax, DWORD PTR _L$[ebp]
	push	eax
	call	?GetInstance@?$CvLuaScopedInstance@VCvLuaArea@@VCvArea@@@@SAPAVCvArea@@PAUlua_State@@H_N@Z ; CvLuaScopedInstance<CvLuaArea,CvArea>::GetInstance
	add	esp, 12					; 0000000cH
	mov	DWORD PTR _pkArea$[ebp], eax

; 267  : 	const TeamTypes eIndex = (TeamTypes)lua_tointeger(L, 2);

	push	2
	mov	ecx, DWORD PTR _L$[ebp]
	push	ecx
	call	_lua_tointeger
	add	esp, 8
	mov	DWORD PTR _eIndex$[ebp], eax

; 268  : 
; 269  : 	const int iResult = pkArea->getNumRevealedTiles(eIndex);

	mov	edx, DWORD PTR _eIndex$[ebp]
	push	edx
	mov	ecx, DWORD PTR _pkArea$[ebp]
	call	?getNumRevealedTiles@CvArea@@QBEHW4TeamTypes@@@Z ; CvArea::getNumRevealedTiles
	mov	DWORD PTR _iResult$[ebp], eax

; 270  : 	lua_pushinteger(L, iResult);

	mov	eax, DWORD PTR _iResult$[ebp]
	push	eax
	mov	ecx, DWORD PTR _L$[ebp]
	push	ecx
	call	_lua_pushinteger
	add	esp, 8

; 271  : 	return 1;

	mov	eax, 1

; 272  : }

	mov	esp, ebp
	pop	ebp
	ret	0
?lGetNumRevealedTiles@CvLuaArea@@KAHPAUlua_State@@@Z ENDP ; CvLuaArea::lGetNumRevealedTiles
_TEXT	ENDS
EXTRN	?getNumUnrevealedTiles@CvArea@@QBEHW4TeamTypes@@@Z:PROC ; CvArea::getNumUnrevealedTiles
; Function compile flags: /Odtp
;	COMDAT ?lGetNumUnrevealedTiles@CvLuaArea@@KAHPAUlua_State@@@Z
_TEXT	SEGMENT
_eIndex$ = -12						; size = 4
_pkArea$ = -8						; size = 4
_iResult$ = -4						; size = 4
_L$ = 8							; size = 4
?lGetNumUnrevealedTiles@CvLuaArea@@KAHPAUlua_State@@@Z PROC ; CvLuaArea::lGetNumUnrevealedTiles, COMDAT

; 276  : {

	push	ebp
	mov	ebp, esp
	sub	esp, 12					; 0000000cH

; 277  : 	CvArea* pkArea = GetInstance(L);

	push	1
	push	1
	mov	eax, DWORD PTR _L$[ebp]
	push	eax
	call	?GetInstance@?$CvLuaScopedInstance@VCvLuaArea@@VCvArea@@@@SAPAVCvArea@@PAUlua_State@@H_N@Z ; CvLuaScopedInstance<CvLuaArea,CvArea>::GetInstance
	add	esp, 12					; 0000000cH
	mov	DWORD PTR _pkArea$[ebp], eax

; 278  : 	const TeamTypes eIndex = (TeamTypes)lua_tointeger(L, 2);

	push	2
	mov	ecx, DWORD PTR _L$[ebp]
	push	ecx
	call	_lua_tointeger
	add	esp, 8
	mov	DWORD PTR _eIndex$[ebp], eax

; 279  : 
; 280  : 	const int iResult = pkArea->getNumUnrevealedTiles(eIndex);

	mov	edx, DWORD PTR _eIndex$[ebp]
	push	edx
	mov	ecx, DWORD PTR _pkArea$[ebp]
	call	?getNumUnrevealedTiles@CvArea@@QBEHW4TeamTypes@@@Z ; CvArea::getNumUnrevealedTiles
	mov	DWORD PTR _iResult$[ebp], eax

; 281  : 	lua_pushinteger(L, iResult);

	mov	eax, DWORD PTR _iResult$[ebp]
	push	eax
	mov	ecx, DWORD PTR _L$[ebp]
	push	ecx
	call	_lua_pushinteger
	add	esp, 8

; 282  : 	return 1;

	mov	eax, 1

; 283  : }

	mov	esp, ebp
	pop	ebp
	ret	0
?lGetNumUnrevealedTiles@CvLuaArea@@KAHPAUlua_State@@@Z ENDP ; CvLuaArea::lGetNumUnrevealedTiles
_TEXT	ENDS
PUBLIC	?Push@?$CvLuaScopedInstance@VCvLuaCity@@VCvCity@@@@SAXPAUlua_State@@PAVCvCity@@@Z ; CvLuaScopedInstance<CvLuaCity,CvCity>::Push
EXTRN	?getTargetCity@CvArea@@QBEPAVCvCity@@W4PlayerTypes@@@Z:PROC ; CvArea::getTargetCity
; Function compile flags: /Odtp
;	COMDAT ?lGetTargetCity@CvLuaArea@@KAHPAUlua_State@@@Z
_TEXT	SEGMENT
_eIndex$ = -12						; size = 4
_pkArea$ = -8						; size = 4
_pkCity$ = -4						; size = 4
_L$ = 8							; size = 4
?lGetTargetCity@CvLuaArea@@KAHPAUlua_State@@@Z PROC	; CvLuaArea::lGetTargetCity, COMDAT

; 288  : {

	push	ebp
	mov	ebp, esp
	sub	esp, 12					; 0000000cH

; 289  : 	CvArea* pkArea = GetInstance(L);

	push	1
	push	1
	mov	eax, DWORD PTR _L$[ebp]
	push	eax
	call	?GetInstance@?$CvLuaScopedInstance@VCvLuaArea@@VCvArea@@@@SAPAVCvArea@@PAUlua_State@@H_N@Z ; CvLuaScopedInstance<CvLuaArea,CvArea>::GetInstance
	add	esp, 12					; 0000000cH
	mov	DWORD PTR _pkArea$[ebp], eax

; 290  : 	const PlayerTypes eIndex = (PlayerTypes)lua_tointeger(L, 2);

	push	2
	mov	ecx, DWORD PTR _L$[ebp]
	push	ecx
	call	_lua_tointeger
	add	esp, 8
	mov	DWORD PTR _eIndex$[ebp], eax

; 291  : 
; 292  : 	CvCity* pkCity = pkArea->getTargetCity(eIndex);

	mov	edx, DWORD PTR _eIndex$[ebp]
	push	edx
	mov	ecx, DWORD PTR _pkArea$[ebp]
	call	?getTargetCity@CvArea@@QBEPAVCvCity@@W4PlayerTypes@@@Z ; CvArea::getTargetCity
	mov	DWORD PTR _pkCity$[ebp], eax

; 293  : 	CvLuaCity::Push(L, pkCity);

	mov	eax, DWORD PTR _pkCity$[ebp]
	push	eax
	mov	ecx, DWORD PTR _L$[ebp]
	push	ecx
	call	?Push@?$CvLuaScopedInstance@VCvLuaCity@@VCvCity@@@@SAXPAUlua_State@@PAVCvCity@@@Z ; CvLuaScopedInstance<CvLuaCity,CvCity>::Push
	add	esp, 8

; 294  : 	return 1;

	mov	eax, 1

; 295  : }

	mov	esp, ebp
	pop	ebp
	ret	0
?lGetTargetCity@CvLuaArea@@KAHPAUlua_State@@@Z ENDP	; CvLuaArea::lGetTargetCity
_TEXT	ENDS
EXTRN	?getYieldRateModifier@CvArea@@QBEHW4PlayerTypes@@W4YieldTypes@@@Z:PROC ; CvArea::getYieldRateModifier
; Function compile flags: /Odtp
;	COMDAT ?lGetYieldRateModifier@CvLuaArea@@KAHPAUlua_State@@@Z
_TEXT	SEGMENT
_eIndex1$ = -16						; size = 4
_pkArea$ = -12						; size = 4
_iResult$ = -8						; size = 4
_eIndex2$ = -4						; size = 4
_L$ = 8							; size = 4
?lGetYieldRateModifier@CvLuaArea@@KAHPAUlua_State@@@Z PROC ; CvLuaArea::lGetYieldRateModifier, COMDAT

; 299  : {

	push	ebp
	mov	ebp, esp
	sub	esp, 16					; 00000010H

; 300  : 	CvArea* pkArea = GetInstance(L);

	push	1
	push	1
	mov	eax, DWORD PTR _L$[ebp]
	push	eax
	call	?GetInstance@?$CvLuaScopedInstance@VCvLuaArea@@VCvArea@@@@SAPAVCvArea@@PAUlua_State@@H_N@Z ; CvLuaScopedInstance<CvLuaArea,CvArea>::GetInstance
	add	esp, 12					; 0000000cH
	mov	DWORD PTR _pkArea$[ebp], eax

; 301  : 	const PlayerTypes eIndex1 = (PlayerTypes)lua_tointeger(L, 2);

	push	2
	mov	ecx, DWORD PTR _L$[ebp]
	push	ecx
	call	_lua_tointeger
	add	esp, 8
	mov	DWORD PTR _eIndex1$[ebp], eax

; 302  : 	const YieldTypes eIndex2 = (YieldTypes)lua_tointeger(L, 3);

	push	3
	mov	edx, DWORD PTR _L$[ebp]
	push	edx
	call	_lua_tointeger
	add	esp, 8
	mov	DWORD PTR _eIndex2$[ebp], eax

; 303  : 
; 304  : 	const int iResult = pkArea->getYieldRateModifier(eIndex1, eIndex2);

	mov	eax, DWORD PTR _eIndex2$[ebp]
	push	eax
	mov	ecx, DWORD PTR _eIndex1$[ebp]
	push	ecx
	mov	ecx, DWORD PTR _pkArea$[ebp]
	call	?getYieldRateModifier@CvArea@@QBEHW4PlayerTypes@@W4YieldTypes@@@Z ; CvArea::getYieldRateModifier
	mov	DWORD PTR _iResult$[ebp], eax

; 305  : 	lua_pushinteger(L, iResult);

	mov	edx, DWORD PTR _iResult$[ebp]
	push	edx
	mov	eax, DWORD PTR _L$[ebp]
	push	eax
	call	_lua_pushinteger
	add	esp, 8

; 306  : 	return 1;

	mov	eax, 1

; 307  : }

	mov	esp, ebp
	pop	ebp
	ret	0
?lGetYieldRateModifier@CvLuaArea@@KAHPAUlua_State@@@Z ENDP ; CvLuaArea::lGetYieldRateModifier
_TEXT	ENDS
EXTRN	?getNumResources@CvArea@@QBEHW4ResourceTypes@@@Z:PROC ; CvArea::getNumResources
; Function compile flags: /Odtp
;	COMDAT ?lGetNumResources@CvLuaArea@@KAHPAUlua_State@@@Z
_TEXT	SEGMENT
_pkArea$ = -12						; size = 4
_iResult$ = -8						; size = 4
_eResource$ = -4					; size = 4
_L$ = 8							; size = 4
?lGetNumResources@CvLuaArea@@KAHPAUlua_State@@@Z PROC	; CvLuaArea::lGetNumResources, COMDAT

; 311  : {

	push	ebp
	mov	ebp, esp
	sub	esp, 12					; 0000000cH

; 312  : 	CvArea* pkArea = GetInstance(L);

	push	1
	push	1
	mov	eax, DWORD PTR _L$[ebp]
	push	eax
	call	?GetInstance@?$CvLuaScopedInstance@VCvLuaArea@@VCvArea@@@@SAPAVCvArea@@PAUlua_State@@H_N@Z ; CvLuaScopedInstance<CvLuaArea,CvArea>::GetInstance
	add	esp, 12					; 0000000cH
	mov	DWORD PTR _pkArea$[ebp], eax

; 313  : 	const ResourceTypes eResource = (ResourceTypes)lua_tointeger(L, 2);

	push	2
	mov	ecx, DWORD PTR _L$[ebp]
	push	ecx
	call	_lua_tointeger
	add	esp, 8
	mov	DWORD PTR _eResource$[ebp], eax

; 314  : 
; 315  : 	const int iResult = pkArea->getNumResources(eResource);

	mov	edx, DWORD PTR _eResource$[ebp]
	push	edx
	mov	ecx, DWORD PTR _pkArea$[ebp]
	call	?getNumResources@CvArea@@QBEHW4ResourceTypes@@@Z ; CvArea::getNumResources
	mov	DWORD PTR _iResult$[ebp], eax

; 316  : 	lua_pushinteger(L, iResult);

	mov	eax, DWORD PTR _iResult$[ebp]
	push	eax
	mov	ecx, DWORD PTR _L$[ebp]
	push	ecx
	call	_lua_pushinteger
	add	esp, 8

; 317  : 	return 1;

	mov	eax, 1

; 318  : }

	mov	esp, ebp
	pop	ebp
	ret	0
?lGetNumResources@CvLuaArea@@KAHPAUlua_State@@@Z ENDP	; CvLuaArea::lGetNumResources
_TEXT	ENDS
EXTRN	?getNumTotalResources@CvArea@@QBEHXZ:PROC	; CvArea::getNumTotalResources
; Function compile flags: /Odtp
;	COMDAT ?lGetNumTotalResources@CvLuaArea@@KAHPAUlua_State@@@Z
_TEXT	SEGMENT
_pkArea$ = -8						; size = 4
_iResult$ = -4						; size = 4
_L$ = 8							; size = 4
?lGetNumTotalResources@CvLuaArea@@KAHPAUlua_State@@@Z PROC ; CvLuaArea::lGetNumTotalResources, COMDAT

; 322  : {

	push	ebp
	mov	ebp, esp
	sub	esp, 8

; 323  : 	CvArea* pkArea = GetInstance(L);

	push	1
	push	1
	mov	eax, DWORD PTR _L$[ebp]
	push	eax
	call	?GetInstance@?$CvLuaScopedInstance@VCvLuaArea@@VCvArea@@@@SAPAVCvArea@@PAUlua_State@@H_N@Z ; CvLuaScopedInstance<CvLuaArea,CvArea>::GetInstance
	add	esp, 12					; 0000000cH
	mov	DWORD PTR _pkArea$[ebp], eax

; 324  : 
; 325  : 	const int iResult = pkArea->getNumTotalResources();

	mov	ecx, DWORD PTR _pkArea$[ebp]
	call	?getNumTotalResources@CvArea@@QBEHXZ	; CvArea::getNumTotalResources
	mov	DWORD PTR _iResult$[ebp], eax

; 326  : 	lua_pushinteger(L, iResult);

	mov	ecx, DWORD PTR _iResult$[ebp]
	push	ecx
	mov	edx, DWORD PTR _L$[ebp]
	push	edx
	call	_lua_pushinteger
	add	esp, 8

; 327  : 	return 1;

	mov	eax, 1

; 328  : }

	mov	esp, ebp
	pop	ebp
	ret	0
?lGetNumTotalResources@CvLuaArea@@KAHPAUlua_State@@@Z ENDP ; CvLuaArea::lGetNumTotalResources
_TEXT	ENDS
EXTRN	?getNumImprovements@CvArea@@QBEHW4ImprovementTypes@@@Z:PROC ; CvArea::getNumImprovements
; Function compile flags: /Odtp
;	COMDAT ?lGetNumImprovements@CvLuaArea@@KAHPAUlua_State@@@Z
_TEXT	SEGMENT
_eImprovement$ = -12					; size = 4
_pkArea$ = -8						; size = 4
_iResult$ = -4						; size = 4
_L$ = 8							; size = 4
?lGetNumImprovements@CvLuaArea@@KAHPAUlua_State@@@Z PROC ; CvLuaArea::lGetNumImprovements, COMDAT

; 332  : {

	push	ebp
	mov	ebp, esp
	sub	esp, 12					; 0000000cH

; 333  : 	CvArea* pkArea = GetInstance(L);

	push	1
	push	1
	mov	eax, DWORD PTR _L$[ebp]
	push	eax
	call	?GetInstance@?$CvLuaScopedInstance@VCvLuaArea@@VCvArea@@@@SAPAVCvArea@@PAUlua_State@@H_N@Z ; CvLuaScopedInstance<CvLuaArea,CvArea>::GetInstance
	add	esp, 12					; 0000000cH
	mov	DWORD PTR _pkArea$[ebp], eax

; 334  : 	const ImprovementTypes eImprovement = (ImprovementTypes)lua_tointeger(L, 2);

	push	2
	mov	ecx, DWORD PTR _L$[ebp]
	push	ecx
	call	_lua_tointeger
	add	esp, 8
	mov	DWORD PTR _eImprovement$[ebp], eax

; 335  : 
; 336  : 	const int iResult = pkArea->getNumImprovements(eImprovement);

	mov	edx, DWORD PTR _eImprovement$[ebp]
	push	edx
	mov	ecx, DWORD PTR _pkArea$[ebp]
	call	?getNumImprovements@CvArea@@QBEHW4ImprovementTypes@@@Z ; CvArea::getNumImprovements
	mov	DWORD PTR _iResult$[ebp], eax

; 337  : 	lua_pushinteger(L, iResult);

	mov	eax, DWORD PTR _iResult$[ebp]
	push	eax
	mov	ecx, DWORD PTR _L$[ebp]
	push	ecx
	call	_lua_pushinteger
	add	esp, 8

; 338  : 	return 1;

	mov	eax, 1

; 339  : }

	mov	esp, ebp
	pop	ebp
	ret	0
?lGetNumImprovements@CvLuaArea@@KAHPAUlua_State@@@Z ENDP ; CvLuaArea::lGetNumImprovements
_TEXT	ENDS
PUBLIC	??_C@_0FD@PKCLFCLD@Not?5a?5valid?5instance?4?5?5Either?5th@ ; `string'
PUBLIC	??_C@_0L@GCADIOHF@__instance?$AA@		; `string'
EXTRN	_luaL_error:PROC
EXTRN	_lua_settop:PROC
EXTRN	_lua_touserdata:PROC
EXTRN	_lua_getfield:PROC
EXTRN	_lua_type:PROC
EXTRN	_lua_gettop:PROC
;	COMDAT ??_C@_0FD@PKCLFCLD@Not?5a?5valid?5instance?4?5?5Either?5th@
; File d:\sources\lekmod_git\checkout\lekmod_dll\cvgamecoredll_expansion2\lua\cvluascopedinstance.h
CONST	SEGMENT
??_C@_0FD@PKCLFCLD@Not?5a?5valid?5instance?4?5?5Either?5th@ DB 'Not a val'
	DB	'id instance.  Either the instance is NULL or you used ''.'' i'
	DB	'nstead of '':''.', 00H			; `string'
CONST	ENDS
;	COMDAT ??_C@_0L@GCADIOHF@__instance?$AA@
CONST	SEGMENT
??_C@_0L@GCADIOHF@__instance?$AA@ DB '__instance', 00H	; `string'
; Function compile flags: /Odtp
CONST	ENDS
;	COMDAT ?GetInstance@?$CvLuaScopedInstance@VCvLuaArea@@VCvArea@@@@SAPAVCvArea@@PAUlua_State@@H_N@Z
_TEXT	SEGMENT
_stack_size$ = -12					; size = 4
_pkInstance$ = -8					; size = 4
_bFail$ = -1						; size = 1
_L$ = 8							; size = 4
_idx$ = 12						; size = 4
_bErrorOnFail$ = 16					; size = 1
?GetInstance@?$CvLuaScopedInstance@VCvLuaArea@@VCvArea@@@@SAPAVCvArea@@PAUlua_State@@H_N@Z PROC ; CvLuaScopedInstance<CvLuaArea,CvArea>::GetInstance, COMDAT

; 127  : {

	push	ebp
	mov	ebp, esp
	sub	esp, 12					; 0000000cH

; 128  : 	const int stack_size = lua_gettop(L);

	mov	eax, DWORD PTR _L$[ebp]
	push	eax
	call	_lua_gettop
	add	esp, 4
	mov	DWORD PTR _stack_size$[ebp], eax

; 129  : 	bool bFail = true;

	mov	BYTE PTR _bFail$[ebp], 1

; 130  : 
; 131  : 	InstanceType* pkInstance = NULL;

	mov	DWORD PTR _pkInstance$[ebp], 0

; 132  : 	if(lua_type(L, idx) == LUA_TTABLE)

	mov	ecx, DWORD PTR _idx$[ebp]
	push	ecx
	mov	edx, DWORD PTR _L$[ebp]
	push	edx
	call	_lua_type
	add	esp, 8
	cmp	eax, 5
	jne	SHORT $LN5@GetInstanc

; 133  : 	{
; 134  : 		lua_getfield(L, idx, "__instance");

	push	OFFSET ??_C@_0L@GCADIOHF@__instance?$AA@
	mov	eax, DWORD PTR _idx$[ebp]
	push	eax
	mov	ecx, DWORD PTR _L$[ebp]
	push	ecx
	call	_lua_getfield
	add	esp, 12					; 0000000cH

; 135  : 		if(lua_type(L, -1) == LUA_TLIGHTUSERDATA)

	push	-1
	mov	edx, DWORD PTR _L$[ebp]
	push	edx
	call	_lua_type
	add	esp, 8
	cmp	eax, 2
	jne	SHORT $LN5@GetInstanc

; 136  : 		{
; 137  : 			pkInstance = static_cast<InstanceType*>(lua_touserdata(L, -1));

	push	-1
	mov	eax, DWORD PTR _L$[ebp]
	push	eax
	call	_lua_touserdata
	add	esp, 8
	mov	DWORD PTR _pkInstance$[ebp], eax

; 138  : 			if(pkInstance)

	cmp	DWORD PTR _pkInstance$[ebp], 0
	je	SHORT $LN5@GetInstanc

; 139  : 			{
; 140  : 				bFail = false;

	mov	BYTE PTR _bFail$[ebp], 0
$LN5@GetInstanc:

; 141  : 			}
; 142  : 		}
; 143  : 	}
; 144  : 
; 145  : 	lua_settop(L, stack_size);

	mov	ecx, DWORD PTR _stack_size$[ebp]
	push	ecx
	mov	edx, DWORD PTR _L$[ebp]
	push	edx
	call	_lua_settop
	add	esp, 8

; 146  : 
; 147  : 	if(bFail && bErrorOnFail)

	movzx	eax, BYTE PTR _bFail$[ebp]
	test	eax, eax
	je	SHORT $LN2@GetInstanc
	movzx	ecx, BYTE PTR _bErrorOnFail$[ebp]
	test	ecx, ecx
	je	SHORT $LN2@GetInstanc

; 148  : 	{
; 149  : 		if(idx == 1)

	cmp	DWORD PTR _idx$[ebp], 1
	jne	SHORT $LN1@GetInstanc

; 150  : 			luaL_error(L, "Not a valid instance.  Either the instance is NULL or you used '.' instead of ':'.");

	push	OFFSET ??_C@_0FD@PKCLFCLD@Not?5a?5valid?5instance?4?5?5Either?5th@
	mov	edx, DWORD PTR _L$[ebp]
	push	edx
	call	_luaL_error
	add	esp, 8
$LN1@GetInstanc:

; 151  : 		Derived::HandleMissingInstance(L);

	mov	eax, DWORD PTR _L$[ebp]
	push	eax
	call	?HandleMissingInstance@CvLuaArea@@SAXPAUlua_State@@@Z ; CvLuaArea::HandleMissingInstance
	add	esp, 4
$LN2@GetInstanc:

; 152  : 	}
; 153  : 	return pkInstance;

	mov	eax, DWORD PTR _pkInstance$[ebp]

; 154  : }

	mov	esp, ebp
	pop	ebp
	ret	0
?GetInstance@?$CvLuaScopedInstance@VCvLuaArea@@VCvArea@@@@SAPAVCvArea@@PAUlua_State@@H_N@Z ENDP ; CvLuaScopedInstance<CvLuaArea,CvArea>::GetInstance
_TEXT	ENDS
PUBLIC	??_C@_0BJ@GHLHFGFM@Instance?5does?5not?5exist?4?$AA@ ; `string'
;	COMDAT ??_C@_0BJ@GHLHFGFM@Instance?5does?5not?5exist?4?$AA@
CONST	SEGMENT
??_C@_0BJ@GHLHFGFM@Instance?5does?5not?5exist?4?$AA@ DB 'Instance does no'
	DB	't exist.', 00H				; `string'
; Function compile flags: /Odtp
CONST	ENDS
;	COMDAT ?DefaultHandleMissingInstance@?$CvLuaScopedInstance@VCvLuaArea@@VCvArea@@@@KAXPAUlua_State@@@Z
_TEXT	SEGMENT
_L$ = 8							; size = 4
?DefaultHandleMissingInstance@?$CvLuaScopedInstance@VCvLuaArea@@VCvArea@@@@KAXPAUlua_State@@@Z PROC ; CvLuaScopedInstance<CvLuaArea,CvArea>::DefaultHandleMissingInstance, COMDAT

; 164  : {

	push	ebp
	mov	ebp, esp

; 165  : 	luaL_error(L, "Instance does not exist.");

	push	OFFSET ??_C@_0BJ@GHLHFGFM@Instance?5does?5not?5exist?4?$AA@
	mov	eax, DWORD PTR _L$[ebp]
	push	eax
	call	_luaL_error
	add	esp, 8

; 166  : }

	pop	ebp
	ret	0
?DefaultHandleMissingInstance@?$CvLuaScopedInstance@VCvLuaArea@@VCvArea@@@@KAXPAUlua_State@@@Z ENDP ; CvLuaScopedInstance<CvLuaArea,CvArea>::DefaultHandleMissingInstance
_TEXT	ENDS
PUBLIC	??_C@_07NHABFFHN@__index?$AA@			; `string'
PUBLIC	??_C@_01MHEDDDHA@v?$AA@				; `string'
PUBLIC	??_C@_06BPGFKLEK@__mode?$AA@			; `string'
PUBLIC	??_C@_0M@CEBPKMAI@__instances?$AA@		; `string'
EXTRN	_lua_pushnil:PROC
EXTRN	_lua_remove:PROC
EXTRN	_lua_pushlightuserdata:PROC
EXTRN	_lua_rawget:PROC
EXTRN	?PushMethods@CvLuaCity@@SAXPAUlua_State@@H@Z:PROC ; CvLuaCity::PushMethods
EXTRN	_lua_pushvalue:PROC
EXTRN	_lua_setmetatable:PROC
EXTRN	_lua_rawset:PROC
EXTRN	_lua_pushstring:PROC
EXTRN	_lua_createtable:PROC
EXTRN	?GetTypeName@CvLuaCity@@SAPBDXZ:PROC		; CvLuaCity::GetTypeName
;	COMDAT ??_C@_07NHABFFHN@__index?$AA@
CONST	SEGMENT
??_C@_07NHABFFHN@__index?$AA@ DB '__index', 00H		; `string'
CONST	ENDS
;	COMDAT ??_C@_01MHEDDDHA@v?$AA@
CONST	SEGMENT
??_C@_01MHEDDDHA@v?$AA@ DB 'v', 00H			; `string'
CONST	ENDS
;	COMDAT ??_C@_06BPGFKLEK@__mode?$AA@
CONST	SEGMENT
??_C@_06BPGFKLEK@__mode?$AA@ DB '__mode', 00H		; `string'
CONST	ENDS
;	COMDAT ??_C@_0M@CEBPKMAI@__instances?$AA@
CONST	SEGMENT
??_C@_0M@CEBPKMAI@__instances?$AA@ DB '__instances', 00H ; `string'
; Function compile flags: /Odtp
CONST	ENDS
;	COMDAT ?Push@?$CvLuaScopedInstance@VCvLuaCity@@VCvCity@@@@SAXPAUlua_State@@PAVCvCity@@@Z
_TEXT	SEGMENT
_instances_index$218324 = -8				; size = 4
_type_index$218323 = -4					; size = 4
_L$ = 8							; size = 4
_pkType$ = 12						; size = 4
?Push@?$CvLuaScopedInstance@VCvLuaCity@@VCvCity@@@@SAXPAUlua_State@@PAVCvCity@@@Z PROC ; CvLuaScopedInstance<CvLuaCity,CvCity>::Push, COMDAT

; 39   : {

	push	ebp
	mov	ebp, esp
	sub	esp, 8

; 40   : 	//Pushing an instance involves more than just actually pushing a pointer into the
; 41   : 	//Lua stack.  There are some caching optimizations that are done as well as some
; 42   : 	//checks.
; 43   : 	//The first step is to load or create a global table <Typename> to store all member
; 44   : 	//methods and all pushed instances.  This conserves memory and offers faster pushing
; 45   : 	//speed.
; 46   : 	//If <Typename>.__instances[pkType] is not nil, return that value.
; 47   : 	//otherwise push a new instance and assign it to __instances.
; 48   : 
; 49   : 	//NOTE: Raw gets and sets are used as an optimization over using lua_[get,set]field
; 50   : 	if(pkType)

	cmp	DWORD PTR _pkType$[ebp], 0
	je	$LN4@Push

; 51   : 	{
; 52   : 		//const int t = lua_gettop(L);
; 53   : 
; 54   : 		lua_getglobal(L, Derived::GetTypeName());

	call	?GetTypeName@CvLuaCity@@SAPBDXZ		; CvLuaCity::GetTypeName
	push	eax
	push	-10002					; ffffd8eeH
	mov	eax, DWORD PTR _L$[ebp]
	push	eax
	call	_lua_getfield
	add	esp, 12					; 0000000cH

; 55   : 		if(lua_isnil(L, -1))

	push	-1
	mov	ecx, DWORD PTR _L$[ebp]
	push	ecx
	call	_lua_type
	add	esp, 8
	test	eax, eax
	jne	$LN3@Push

; 56   : 		{
; 57   : 			//Typename wasn't found, time to build it.
; 58   : 			lua_pop(L, 1);

	push	-2					; fffffffeH
	mov	edx, DWORD PTR _L$[ebp]
	push	edx
	call	_lua_settop
	add	esp, 8

; 59   : 			lua_newtable(L);

	push	0
	push	0
	mov	eax, DWORD PTR _L$[ebp]
	push	eax
	call	_lua_createtable
	add	esp, 12					; 0000000cH

; 60   : 
; 61   : 			//Create weak __instances table.
; 62   : 			lua_pushstring(L, "__instances");

	push	OFFSET ??_C@_0M@CEBPKMAI@__instances?$AA@
	mov	ecx, DWORD PTR _L$[ebp]
	push	ecx
	call	_lua_pushstring
	add	esp, 8

; 63   : 			lua_newtable(L);

	push	0
	push	0
	mov	edx, DWORD PTR _L$[ebp]
	push	edx
	call	_lua_createtable
	add	esp, 12					; 0000000cH

; 64   : 
; 65   : 			//Create __instances.mt
; 66   : 			lua_newtable(L);

	push	0
	push	0
	mov	eax, DWORD PTR _L$[ebp]
	push	eax
	call	_lua_createtable
	add	esp, 12					; 0000000cH

; 67   : 			lua_pushstring(L, "__mode");

	push	OFFSET ??_C@_06BPGFKLEK@__mode?$AA@
	mov	ecx, DWORD PTR _L$[ebp]
	push	ecx
	call	_lua_pushstring
	add	esp, 8

; 68   : 			lua_pushstring(L, "v");

	push	OFFSET ??_C@_01MHEDDDHA@v?$AA@
	mov	edx, DWORD PTR _L$[ebp]
	push	edx
	call	_lua_pushstring
	add	esp, 8

; 69   : 			lua_rawset(L, -3);				// mt.__mode = "v";

	push	-3					; fffffffdH
	mov	eax, DWORD PTR _L$[ebp]
	push	eax
	call	_lua_rawset
	add	esp, 8

; 70   : 			lua_setmetatable(L, -2);

	push	-2					; fffffffeH
	mov	ecx, DWORD PTR _L$[ebp]
	push	ecx
	call	_lua_setmetatable
	add	esp, 8

; 71   : 
; 72   : 			lua_rawset(L, -3);				//type.__instances = t;

	push	-3					; fffffffdH
	mov	edx, DWORD PTR _L$[ebp]
	push	edx
	call	_lua_rawset
	add	esp, 8

; 73   : 
; 74   : 
; 75   : 			lua_pushvalue(L, -1);

	push	-1
	mov	eax, DWORD PTR _L$[ebp]
	push	eax
	call	_lua_pushvalue
	add	esp, 8

; 76   : 			lua_setglobal(L, Derived::GetTypeName());

	call	?GetTypeName@CvLuaCity@@SAPBDXZ		; CvLuaCity::GetTypeName
	push	eax
	push	-10002					; ffffd8eeH
	mov	ecx, DWORD PTR _L$[ebp]
	push	ecx
	call	_lua_setfield
	add	esp, 12					; 0000000cH

; 77   : 
; 78   : 			Derived::PushMethods(L, lua_gettop(L));

	mov	edx, DWORD PTR _L$[ebp]
	push	edx
	call	_lua_gettop
	add	esp, 4
	push	eax
	mov	eax, DWORD PTR _L$[ebp]
	push	eax
	call	?PushMethods@CvLuaCity@@SAXPAUlua_State@@H@Z ; CvLuaCity::PushMethods
	add	esp, 8
$LN3@Push:

; 79   : 		}
; 80   : 		const int type_index = lua_gettop(L);

	mov	ecx, DWORD PTR _L$[ebp]
	push	ecx
	call	_lua_gettop
	add	esp, 4
	mov	DWORD PTR _type_index$218323[ebp], eax

; 81   : 
; 82   : 		lua_pushstring(L, "__instances");

	push	OFFSET ??_C@_0M@CEBPKMAI@__instances?$AA@
	mov	edx, DWORD PTR _L$[ebp]
	push	edx
	call	_lua_pushstring
	add	esp, 8

; 83   : 		lua_rawget(L, -2);

	push	-2					; fffffffeH
	mov	eax, DWORD PTR _L$[ebp]
	push	eax
	call	_lua_rawget
	add	esp, 8

; 84   : 
; 85   : 		const int instances_index = lua_gettop(L);

	mov	ecx, DWORD PTR _L$[ebp]
	push	ecx
	call	_lua_gettop
	add	esp, 4
	mov	DWORD PTR _instances_index$218324[ebp], eax

; 86   : 
; 87   : 		lua_pushlightuserdata(L, pkType);

	mov	edx, DWORD PTR _pkType$[ebp]
	push	edx
	mov	eax, DWORD PTR _L$[ebp]
	push	eax
	call	_lua_pushlightuserdata
	add	esp, 8

; 88   : 
; 89   : 		lua_rawget(L, -2);					//retrieve type.__instances[pkType]

	push	-2					; fffffffeH
	mov	ecx, DWORD PTR _L$[ebp]
	push	ecx
	call	_lua_rawget
	add	esp, 8

; 90   : 
; 91   : 		if(lua_isnil(L, -1))

	push	-1
	mov	edx, DWORD PTR _L$[ebp]
	push	edx
	call	_lua_type
	add	esp, 8
	test	eax, eax
	jne	$LN2@Push

; 92   : 		{
; 93   : 			lua_pop(L, 1);

	push	-2					; fffffffeH
	mov	eax, DWORD PTR _L$[ebp]
	push	eax
	call	_lua_settop
	add	esp, 8

; 94   : 
; 95   : 			//Push new instance
; 96   : 			lua_createtable(L, 0, 1);

	push	1
	push	0
	mov	ecx, DWORD PTR _L$[ebp]
	push	ecx
	call	_lua_createtable
	add	esp, 12					; 0000000cH

; 97   : 			lua_pushlightuserdata(L, pkType);

	mov	edx, DWORD PTR _pkType$[ebp]
	push	edx
	mov	eax, DWORD PTR _L$[ebp]
	push	eax
	call	_lua_pushlightuserdata
	add	esp, 8

; 98   : 			lua_setfield(L, -2, "__instance");

	push	OFFSET ??_C@_0L@GCADIOHF@__instance?$AA@
	push	-2					; fffffffeH
	mov	ecx, DWORD PTR _L$[ebp]
	push	ecx
	call	_lua_setfield
	add	esp, 12					; 0000000cH

; 99   : 
; 100  : 			lua_createtable(L, 0, 1);			// create mt

	push	1
	push	0
	mov	edx, DWORD PTR _L$[ebp]
	push	edx
	call	_lua_createtable
	add	esp, 12					; 0000000cH

; 101  : 			lua_pushstring(L, "__index");

	push	OFFSET ??_C@_07NHABFFHN@__index?$AA@
	mov	eax, DWORD PTR _L$[ebp]
	push	eax
	call	_lua_pushstring
	add	esp, 8

; 102  : 			lua_pushvalue(L, type_index);

	mov	ecx, DWORD PTR _type_index$218323[ebp]
	push	ecx
	mov	edx, DWORD PTR _L$[ebp]
	push	edx
	call	_lua_pushvalue
	add	esp, 8

; 103  : 			lua_rawset(L, -3);					// mt.__index = Type

	push	-3					; fffffffdH
	mov	eax, DWORD PTR _L$[ebp]
	push	eax
	call	_lua_rawset
	add	esp, 8

; 104  : 			lua_setmetatable(L, -2);

	push	-2					; fffffffeH
	mov	ecx, DWORD PTR _L$[ebp]
	push	ecx
	call	_lua_setmetatable
	add	esp, 8

; 105  : 
; 106  : 			//Assign it in instances
; 107  : 			lua_pushlightuserdata(L, pkType);

	mov	edx, DWORD PTR _pkType$[ebp]
	push	edx
	mov	eax, DWORD PTR _L$[ebp]
	push	eax
	call	_lua_pushlightuserdata
	add	esp, 8

; 108  : 			lua_pushvalue(L, -2);

	push	-2					; fffffffeH
	mov	ecx, DWORD PTR _L$[ebp]
	push	ecx
	call	_lua_pushvalue
	add	esp, 8

; 109  : 			lua_rawset(L, instances_index);				//__instances[pkType] = t;

	mov	edx, DWORD PTR _instances_index$218324[ebp]
	push	edx
	mov	eax, DWORD PTR _L$[ebp]
	push	eax
	call	_lua_rawset
	add	esp, 8
$LN2@Push:

; 110  : 		}
; 111  : 
; 112  : 		//VERIFY(instances_index > type_index);
; 113  : 		lua_remove(L, instances_index);

	mov	ecx, DWORD PTR _instances_index$218324[ebp]
	push	ecx
	mov	edx, DWORD PTR _L$[ebp]
	push	edx
	call	_lua_remove
	add	esp, 8

; 114  : 		lua_remove(L, type_index);

	mov	eax, DWORD PTR _type_index$218323[ebp]
	push	eax
	mov	ecx, DWORD PTR _L$[ebp]
	push	ecx
	call	_lua_remove
	add	esp, 8

; 115  : 
; 116  : 		//const int dt = lua_gettop(L);
; 117  : 		//VERIFY(dt == t + 1)
; 118  : 	}
; 119  : 	else

	jmp	SHORT $LN5@Push
$LN4@Push:

; 120  : 	{
; 121  : 		lua_pushnil(L);

	mov	edx, DWORD PTR _L$[ebp]
	push	edx
	call	_lua_pushnil
	add	esp, 4
$LN5@Push:

; 122  : 	}
; 123  : }

	mov	esp, ebp
	pop	ebp
	ret	0
?Push@?$CvLuaScopedInstance@VCvLuaCity@@VCvCity@@@@SAXPAUlua_State@@PAVCvCity@@@Z ENDP ; CvLuaScopedInstance<CvLuaCity,CvCity>::Push
_TEXT	ENDS
END
