; Listing generated by Microsoft (R) Optimizing Compiler Version 15.00.30729.01 

	TITLE	D:\sources\Lekmod_git\checkout\LEKMOD_DLL\CvGameCoreDLL_Expansion2\Lua\CvLuaEnums.cpp
	.686P
	.XMM
	include listing.inc
	.model	flat

INCLUDELIB MSVCRT
INCLUDELIB OLDNAMES

PUBLIC	?NO_QUEST_DATA@CvMinorCivQuest@@2HB		; CvMinorCivQuest::NO_QUEST_DATA
PUBLIC	?NO_TURN@CvMinorCivQuest@@2HB			; CvMinorCivQuest::NO_TURN
;	COMDAT ?NO_TURN@CvMinorCivQuest@@2HB
CONST	SEGMENT
?NO_TURN@CvMinorCivQuest@@2HB DD 0ffffffffH		; CvMinorCivQuest::NO_TURN
CONST	ENDS
;	COMDAT ?NO_QUEST_DATA@CvMinorCivQuest@@2HB
CONST	SEGMENT
?NO_QUEST_DATA@CvMinorCivQuest@@2HB DD 0ffffffffH	; CvMinorCivQuest::NO_QUEST_DATA
CONST	ENDS
PUBLIC	?pRegister@CvLuaEnums@@KAHPAUlua_State@@@Z	; CvLuaEnums::pRegister
PUBLIC	?Register@CvLuaEnums@@SAXPAUlua_State@@@Z	; CvLuaEnums::Register
EXTRN	?CCallWithErrorHandling@Details@FLua@@YA_NPAUlua_State@@P6AH0@ZPAX@Z:PROC ; FLua::Details::CCallWithErrorHandling
; Function compile flags: /Odtp
; File d:\sources\lekmod_git\checkout\lekmod_dll\cvgamecoredll_expansion2\lua\cvluaenums.cpp
;	COMDAT ?Register@CvLuaEnums@@SAXPAUlua_State@@@Z
_TEXT	SEGMENT
_L$ = 8							; size = 4
?Register@CvLuaEnums@@SAXPAUlua_State@@@Z PROC		; CvLuaEnums::Register, COMDAT

; 26   : {

	push	ebp
	mov	ebp, esp

; 27   : 	FLua::Details::CCallWithErrorHandling(L, pRegister);

	push	0
	push	OFFSET ?pRegister@CvLuaEnums@@KAHPAUlua_State@@@Z ; CvLuaEnums::pRegister
	mov	eax, DWORD PTR _L$[ebp]
	push	eax
	call	?CCallWithErrorHandling@Details@FLua@@YA_NPAUlua_State@@P6AH0@ZPAX@Z ; FLua::Details::CCallWithErrorHandling
	add	esp, 12					; 0000000cH

; 28   : }

	pop	ebp
	ret	0
?Register@CvLuaEnums@@SAXPAUlua_State@@@Z ENDP		; CvLuaEnums::Register
_TEXT	ENDS
PUBLIC	??_C@_0BF@KGJECBIL@CONTROL_RESTART_GAME?$AA@	; `string'
PUBLIC	??_C@_0BK@PLGIMBCB@CONTROL_RELIGION_OVERVIEW?$AA@ ; `string'
PUBLIC	??_C@_0BL@JIAFLFHM@CONTROL_ESPIONAGE_OVERVIEW?$AA@ ; `string'
PUBLIC	??_C@_0BI@KAFLOOPC@CONTROL_ADVISOR_COUNSEL?$AA@	; `string'
PUBLIC	??_C@_0BO@KEKBNJDB@CONTROL_TOGGLE_STRATEGIC_VIEW?$AA@ ; `string'
PUBLIC	??_C@_0BH@NPNMKDLB@CONTROL_SELECT_HEALTHY?$AA@	; `string'
PUBLIC	??_C@_0N@HJEONDFC@CONTROL_INFO?$AA@		; `string'
PUBLIC	??_C@_0BH@HOLFNKK@CONTROL_VICTORY_SCREEN?$AA@	; `string'
PUBLIC	??_C@_0BI@BDBKIAIP@CONTROL_DOMESTIC_SCREEN?$AA@	; `string'
PUBLIC	??_C@_0BB@CCAEKINA@CONTROL_TURN_LOG?$AA@	; `string'
PUBLIC	??_C@_0BF@CDFOAGHH@CONTROL_TECH_CHOOSER?$AA@	; `string'
PUBLIC	??_C@_0BI@KGLHDBNI@CONTROL_MILITARY_SCREEN?$AA@	; `string'
PUBLIC	??_C@_0BH@KEPEPIMI@CONTROL_FOREIGN_SCREEN?$AA@	; `string'
PUBLIC	??_C@_0BI@PJDPGMNE@CONTROL_POLICIES_SCREEN?$AA@	; `string'
PUBLIC	??_C@_0BE@JEBPJADM@CONTROL_CIVILOPEDIA?$AA@	; `string'
PUBLIC	??_C@_0BD@OMHIFONP@CONTROL_QUICK_LOAD?$AA@	; `string'
PUBLIC	??_C@_0BD@OOGFKNAL@CONTROL_QUICK_SAVE?$AA@	; `string'
PUBLIC	??_C@_0BE@HGEGMJEO@CONTROL_SAVE_NORMAL?$AA@	; `string'
PUBLIC	??_C@_0BD@LJACIPJK@CONTROL_SAVE_GROUP?$AA@	; `string'
PUBLIC	??_C@_0P@EFDECHKB@CONTROL_RETIRE?$AA@		; `string'
PUBLIC	??_C@_0BH@OGALBMO@CONTROL_OPTIONS_SCREEN?$AA@	; `string'
PUBLIC	??_C@_0BC@MKLEMOLN@CONTROL_LOAD_GAME?$AA@	; `string'
PUBLIC	??_C@_0P@KAMDLJCH@CONTROL_SCORES?$AA@		; `string'
PUBLIC	??_C@_0BD@DPAAGCFB@CONTROL_UNIT_ICONS?$AA@	; `string'
PUBLIC	??_C@_0BF@IFCMGGJ@CONTROL_RESOURCE_ALL?$AA@	; `string'
PUBLIC	??_C@_0P@FOJMJHDF@CONTROL_YIELDS?$AA@		; `string'
PUBLIC	??_C@_0N@EPKDMFKI@CONTROL_PING?$AA@		; `string'
PUBLIC	??_C@_0BC@JBNDIFEP@CONTROL_AUTOMOVES?$AA@	; `string'
PUBLIC	??_C@_0BF@LBHJAIAN@CONTROL_FORCEENDTURN?$AA@	; `string'
PUBLIC	??_C@_0BE@FMBMDLKH@CONTROL_ENDTURN_ALT?$AA@	; `string'
PUBLIC	??_C@_0BA@KEAPHFPO@CONTROL_ENDTURN?$AA@		; `string'
PUBLIC	??_C@_0BB@EMAMLACL@CONTROL_LASTUNIT?$AA@	; `string'
PUBLIC	??_C@_0BE@OKFBMBOK@CONTROL_CYCLEWORKER?$AA@	; `string'
PUBLIC	??_C@_0BG@PCFMMINF@CONTROL_CYCLEUNIT_ALT?$AA@	; `string'
PUBLIC	??_C@_0BC@CBHBJJFE@CONTROL_CYCLEUNIT?$AA@	; `string'
PUBLIC	??_C@_0BB@LNAKDPHJ@CONTROL_PREVUNIT?$AA@	; `string'
PUBLIC	??_C@_0BB@OELHMCKN@CONTROL_NEXTUNIT?$AA@	; `string'
PUBLIC	??_C@_0BB@GOCNCLIM@CONTROL_PREVCITY?$AA@	; `string'
PUBLIC	??_C@_0BB@DHJANGFI@CONTROL_NEXTCITY?$AA@	; `string'
PUBLIC	??_C@_0BG@JIDAPJEN@CONTROL_SELECTCAPITAL?$AA@	; `string'
PUBLIC	??_C@_0BD@ENAFBBA@CONTROL_SELECTCITY?$AA@	; `string'
PUBLIC	??_C@_0BH@KCMHBNHA@CONTROL_SELECTYUNITALL?$AA@	; `string'
PUBLIC	??_C@_0BI@HFCOICK@CONTROL_SELECTYUNITTYPE?$AA@	; `string'
PUBLIC	??_C@_0BK@PBEBNHEP@CONTROL_CENTERONSELECTION?$AA@ ; `string'
PUBLIC	??_C@_0L@HJICGBCE@NO_CONTROL?$AA@		; `string'
PUBLIC	??_C@_0N@IOGOBLFF@ControlTypes?$AA@		; `string'
PUBLIC	??_C@_0CC@JHDCGLKF@PUBLIC_OPINION_REVOLUTIONARY_WAV@ ; `string'
PUBLIC	??_C@_0CA@JDDKBNPF@PUBLIC_OPINION_CIVIL_RESISTANCE?$AA@ ; `string'
PUBLIC	??_C@_0BK@PBFIAENE@PUBLIC_OPINION_DISSIDENTS?$AA@ ; `string'
PUBLIC	??_C@_0BH@LOALHDOD@PUBLIC_OPINION_CONTENT?$AA@	; `string'
PUBLIC	??_C@_0BC@LJAFBKKC@NO_PUBLIC_OPINION?$AA@	; `string'
PUBLIC	??_C@_0BD@JBALNFJM@PublicOpinionTypes?$AA@	; `string'
PUBLIC	??_C@_0BH@KKNIBPCJ@INFLUENCE_TREND_RISING?$AA@	; `string'
PUBLIC	??_C@_0BH@GKJHJNPJ@INFLUENCE_TREND_STATIC?$AA@	; `string'
PUBLIC	??_C@_0BI@JOFINEAP@INFLUENCE_TREND_FALLING?$AA@	; `string'
PUBLIC	??_C@_0BE@LKMIMMAN@InfluenceLevelTrend?$AA@	; `string'
PUBLIC	??_C@_0BJ@CMKKMAFE@INFLUENCE_LEVEL_DOMINANT?$AA@ ; `string'
PUBLIC	??_C@_0BM@GFAMICEJ@INFLUENCE_LEVEL_INFLUENTIAL?$AA@ ; `string'
PUBLIC	??_C@_0BI@LBIPILJC@INFLUENCE_LEVEL_POPULAR?$AA@	; `string'
PUBLIC	??_C@_0BJ@PFKEGBNE@INFLUENCE_LEVEL_FAMILIAR?$AA@ ; `string'
PUBLIC	??_C@_0BH@EEMDMAPG@INFLUENCE_LEVEL_EXOTIC?$AA@	; `string'
PUBLIC	??_C@_0BI@MNFAPHPI@INFLUENCE_LEVEL_UNKNOWN?$AA@	; `string'
PUBLIC	??_C@_0BD@IKBNBPIE@NO_INFLUENCE_LEVEL?$AA@	; `string'
PUBLIC	??_C@_0BE@KDAJDBMG@InfluenceLevelTypes?$AA@	; `string'
PUBLIC	??_C@_0BJ@DFAPAKNB@NUM_RESOLUTION_DECISIONS?$AA@ ; `string'
PUBLIC	??_C@_0CL@JCFMEOFK@RESOLUTION_DECISION_OTHER_MAJOR_@ ; `string'
PUBLIC	??_C@_0CF@BJHHEGHD@RESOLUTION_DECISION_MAJOR_CIV_ME@ ; `string'
PUBLIC	??_C@_0BL@PHGEIMFF@RESOLUTION_DECISION_REPEAL?$AA@ ; `string'
PUBLIC	??_C@_0CI@EENNHHLF@RESOLUTION_DECISION_ANY_LUXURY_R@ ; `string'
PUBLIC	??_C@_0BJ@JKEOAOAE@RESOLUTION_DECISION_CITY?$AA@ ; `string'
PUBLIC	??_C@_0BP@DHJFFBOC@RESOLUTION_DECISION_ANY_MEMBER?$AA@ ; `string'
PUBLIC	??_C@_0BO@HJAOAFFJ@RESOLUTION_DECISION_YES_OR_NO?$AA@ ; `string'
PUBLIC	??_C@_0BJ@LAHDOOJC@RESOLUTION_DECISION_NONE?$AA@ ; `string'
PUBLIC	??_C@_0BI@INFPJFGN@ResolutionDecisionTypes?$AA@	; `string'
PUBLIC	??_C@_0BI@OKEHFOJM@FAITH_PURCHASE_BUILDING?$AA@	; `string'
PUBLIC	??_C@_0BE@NFNADJPB@FAITH_PURCHASE_UNIT?$AA@	; `string'
PUBLIC	??_C@_0BM@GLONHAA@FAITH_PURCHASE_SAVE_PROPHET?$AA@ ; `string'
PUBLIC	??_C@_0BM@KIJACOHA@NO_AUTOMATIC_FAITH_PURCHASE?$AA@ ; `string'
PUBLIC	??_C@_0BD@NIALIOAE@FaithPurchaseTypes?$AA@	; `string'
PUBLIC	??_C@_09DGEHHHPO@NO_BELIEF?$AA@			; `string'
PUBLIC	??_C@_0M@HAGLGFLJ@BeliefTypes?$AA@		; `string'
PUBLIC	??_C@_0BC@MAKCGCPP@RELIGION_PANTHEON?$AA@	; `string'
PUBLIC	??_C@_0M@NPABLHNK@NO_RELIGION?$AA@		; `string'
PUBLIC	??_C@_0O@KOGJIPBF@ReligionTypes?$AA@		; `string'
PUBLIC	??_C@_0BC@CLOLMKMP@CHATTARGET_PLAYER?$AA@	; `string'
PUBLIC	??_C@_0BA@DFEFDJGL@CHATTARGET_TEAM?$AA@		; `string'
PUBLIC	??_C@_0P@CFEEEOGK@CHATTARGET_ALL?$AA@		; `string'
PUBLIC	??_C@_0O@FFDOEIFB@NO_CHATTARGET?$AA@		; `string'
PUBLIC	??_C@_0BA@FEIDIHBC@ChatTargetTypes?$AA@		; `string'
PUBLIC	??_C@_0BH@NBPMPIEL@NUM_COMBAT_PREDICTIONS?$AA@	; `string'
PUBLIC	??_C@_0BP@LDPDKOMH@COMBAT_PREDICTION_SMALL_DEFEAT?$AA@ ; `string'
PUBLIC	??_C@_0BP@FEAMOMII@COMBAT_PREDICTION_MAJOR_DEFEAT?$AA@ ; `string'
PUBLIC	??_C@_0CA@HOOLDKIC@COMBAT_PREDICTION_SMALL_VICTORY?$AA@ ; `string'
PUBLIC	??_C@_0CA@JIGPJJMB@COMBAT_PREDICTION_MAJOR_VICTORY?$AA@ ; `string'
PUBLIC	??_C@_0CA@CEFFPCOC@COMBAT_PREDICTION_TOTAL_VICTORY?$AA@ ; `string'
PUBLIC	??_C@_0BP@IOENFDJ@COMBAT_PREDICTION_TOTAL_DEFEAT?$AA@ ; `string'
PUBLIC	??_C@_0BM@PCMGNGLI@COMBAT_PREDICTION_STALEMATE?$AA@ ; `string'
PUBLIC	??_C@_0BJ@CPNOHIFD@COMBAT_PREDICTION_RANGED?$AA@ ; `string'
PUBLIC	??_C@_0BF@ICOKHODD@NO_COMBAT_PREDICTION?$AA@	; `string'
PUBLIC	??_C@_0BG@FBCCFCBF@CombatPredictionTypes?$AA@	; `string'
PUBLIC	??_C@_0BD@PGNMOFKI@GAMESTATE_EXTENDED?$AA@	; `string'
PUBLIC	??_C@_0P@JPNFNHEF@GAMESTATE_OVER?$AA@		; `string'
PUBLIC	??_C@_0N@HGNJJAF@GAMESTATE_ON?$AA@		; `string'
PUBLIC	??_C@_0BH@EOJJHPEK@GameplayGameStateTypes?$AA@	; `string'
PUBLIC	??_C@_0BA@BLHMCJLF@NUM_GAME_STATES?$AA@		; `string'
PUBLIC	??_C@_0L@NDMGOFCM@LeaderHead?$AA@		; `string'
PUBLIC	??_C@_08LLNOMLNP@GameLoad?$AA@			; `string'
PUBLIC	??_C@_0N@JGJPONIO@MainGameView?$AA@		; `string'
PUBLIC	??_C@_08LKCADIGI@MainMenu?$AA@			; `string'
PUBLIC	??_C@_0L@OIIGBDCI@GameStates?$AA@		; `string'
PUBLIC	??_C@_0BC@LLNOIJGI@NUM_WORLD_ANCHORS?$AA@	; `string'
PUBLIC	??_C@_0BE@FEODPKND@WORLD_ANCHOR_WORKER?$AA@	; `string'
PUBLIC	??_C@_0BF@OHLBBHMH@WORLD_ANCHOR_SETTLER?$AA@	; `string'
PUBLIC	??_C@_0BM@EDHJOEDF@WORLD_ANCHOR_NATURAL_WONDER?$AA@ ; `string'
PUBLIC	??_C@_0BA@KOAOIMD@NO_WORLD_ANCHOR?$AA@		; `string'
PUBLIC	??_C@_0BI@FCFEPGNF@GenericWorldAnchorTypes?$AA@	; `string'
PUBLIC	??_C@_0BC@LIFJNBFD@NUM_ADVISOR_TYPES?$AA@	; `string'
PUBLIC	??_C@_0BA@LKEMNLDL@ADVISOR_SCIENCE?$AA@		; `string'
PUBLIC	??_C@_0BA@FJIMDFPG@ADVISOR_FOREIGN?$AA@		; `string'
PUBLIC	??_C@_0BB@JDMANLEI@ADVISOR_MILITARY?$AA@	; `string'
PUBLIC	??_C@_0BB@GIINOANM@ADVISOR_ECONOMIC?$AA@	; `string'
PUBLIC	??_C@_0BA@DLFKNPEB@NO_ADVISOR_TYPE?$AA@		; `string'
PUBLIC	??_C@_0N@HJFPNGBG@AdvisorTypes?$AA@		; `string'
PUBLIC	??_C@_0BI@FCAOCOCL@NUM_CITY_AI_FOCUS_TYPES?$AA@	; `string'
PUBLIC	??_C@_0BJ@OMIPGKAI@CITY_AI_FOCUS_TYPE_FAITH?$AA@ ; `string'
PUBLIC	??_C@_0BP@MANBONKP@CITY_AI_FOCUS_TYPE_GOLD_GROWTH?$AA@ ; `string'
PUBLIC	??_C@_0BP@DGAENLBD@CITY_AI_FOCUS_TYPE_PROD_GROWTH?$AA@ ; `string'
PUBLIC	??_C@_0BL@KOEHAHBH@CITY_AI_FOCUS_TYPE_CULTURE?$AA@ ; `string'
PUBLIC	??_C@_0BL@EBEDKJJA@CITY_AI_FOCUS_TYPE_SCIENCE?$AA@ ; `string'
PUBLIC	??_C@_0CA@HIAKIMD@CITY_AI_FOCUS_TYPE_GREAT_PEOPLE?$AA@ ; `string'
PUBLIC	??_C@_0BI@FCJGJFK@CITY_AI_FOCUS_TYPE_GOLD?$AA@	; `string'
PUBLIC	??_C@_0BO@EIEEJDDP@CITY_AI_FOCUS_TYPE_PRODUCTION?$AA@ ; `string'
PUBLIC	??_C@_0BI@DKAPPOLD@CITY_AI_FOCUS_TYPE_FOOD?$AA@	; `string'
PUBLIC	??_C@_0BG@GLJGGAEJ@NO_CITY_AI_FOCUS_TYPE?$AA@	; `string'
PUBLIC	??_C@_0BB@NJBNKKKB@CityAIFocusTypes?$AA@	; `string'
PUBLIC	??_C@_0BK@DJJNLCCI@NUM_MINOR_CIV_QUEST_TYPES?$AA@ ; `string'
PUBLIC	??_C@_0BM@CEFHPLND@MINOR_CIV_QUEST_TRADE_ROUTE?$AA@ ; `string'
PUBLIC	??_C@_0CA@LGKIGCNF@MINOR_CIV_QUEST_SPREAD_RELIGION?$AA@ ; `string'
PUBLIC	??_C@_0BP@KCFNIMPM@MINOR_CIV_QUEST_DENOUNCE_MAJOR?$AA@ ; `string'
PUBLIC	??_C@_0CB@EHDFANP@MINOR_CIV_QUEST_BULLY_CITY_STATE@ ; `string'
PUBLIC	??_C@_0BH@BINAJBNC@MINOR_CIV_QUEST_INVEST?$AA@	; `string'
PUBLIC	??_C@_0BO@LHGBBEFE@MINOR_CIV_QUEST_CONTEST_TECHS?$AA@ ; `string'
PUBLIC	??_C@_0BO@NPEIGAOO@MINOR_CIV_QUEST_CONTEST_FAITH?$AA@ ; `string'
PUBLIC	??_C@_0CA@EGLGIJKE@MINOR_CIV_QUEST_CONTEST_CULTURE?$AA@ ; `string'
PUBLIC	??_C@_0CC@DGOGPAOJ@MINOR_CIV_QUEST_PLEDGE_TO_PROTEC@ ; `string'
PUBLIC	??_C@_0BK@GEEMEOFE@MINOR_CIV_QUEST_GIVE_GOLD?$AA@ ; `string'
PUBLIC	??_C@_0CE@EIBIPKBE@MINOR_CIV_QUEST_FIND_NATURAL_WON@ ; `string'
PUBLIC	??_C@_0BM@HHMGOCFL@MINOR_CIV_QUEST_FIND_PLAYER?$AA@ ; `string'
PUBLIC	??_C@_0CA@GAJEFIEJ@MINOR_CIV_QUEST_KILL_CITY_STATE?$AA@ ; `string'
PUBLIC	??_C@_0BN@IBOGMBMO@MINOR_CIV_QUEST_GREAT_PERSON?$AA@ ; `string'
PUBLIC	??_C@_0CB@FHOGODE@MINOR_CIV_QUEST_CONSTRUCT_WONDER@ ; `string'
PUBLIC	??_C@_0CB@NPGEGEOH@MINOR_CIV_QUEST_CONNECT_RESOURCE@ ; `string'
PUBLIC	??_C@_0BK@DMKAKKHL@MINOR_CIV_QUEST_KILL_CAMP?$AA@ ; `string'
PUBLIC	??_C@_0BG@EMGIDIKM@MINOR_CIV_QUEST_ROUTE?$AA@	; `string'
PUBLIC	??_C@_0BI@MCHOHDKI@NO_MINOR_CIV_QUEST_TYPE?$AA@	; `string'
PUBLIC	??_C@_0BD@NDNFDDAP@MinorCivQuestTypes?$AA@	; `string'
PUBLIC	??_C@_0CA@KHDPIIEG@NUM_MINOR_CIV_PERSONALITY_TYPES?$AA@ ; `string'
PUBLIC	??_C@_0CB@KHIJLBKL@MINOR_CIV_PERSONALITY_IRRATIONAL@ ; `string'
PUBLIC	??_C@_0BO@MEFFALDB@MINOR_CIV_PERSONALITY_HOSTILE?$AA@ ; `string'
PUBLIC	??_C@_0BO@COBBEGGB@MINOR_CIV_PERSONALITY_NEUTRAL?$AA@ ; `string'
PUBLIC	??_C@_0BP@GGHOJBIK@MINOR_CIV_PERSONALITY_FRIENDLY?$AA@ ; `string'
PUBLIC	??_C@_0BO@FHICAMFA@NO_MINOR_CIV_PERSONALITY_TYPE?$AA@ ; `string'
PUBLIC	??_C@_0BJ@GEOKHAPF@MinorCivPersonalityTypes?$AA@ ; `string'
PUBLIC	??_C@_0BK@LIAALICO@NUM_MINOR_CIV_TRAIT_TYPES?$AA@ ; `string'
PUBLIC	??_C@_0BK@FJEJAPGO@MINOR_CIV_TRAIT_RELIGIOUS?$AA@ ; `string'
PUBLIC	??_C@_0BL@ILMBKEEN@MINOR_CIV_TRAIT_MERCANTILE?$AA@ ; `string'
PUBLIC	??_C@_0BJ@KGIEDGJG@MINOR_CIV_TRAIT_MARITIME?$AA@ ; `string'
PUBLIC	??_C@_0BN@IIGJFFHF@MINOR_CIV_TRAIT_MILITARISTIC?$AA@ ; `string'
PUBLIC	??_C@_0BJ@LDGOLNNE@MINOR_CIV_TRAIT_CULTURED?$AA@ ; `string'
PUBLIC	??_C@_0BI@OBGCLIHM@NO_MINOR_CIV_TRAIT_TYPE?$AA@	; `string'
PUBLIC	??_C@_0BD@PAMJPINL@MinorCivTraitTypes?$AA@	; `string'
PUBLIC	??_C@_0BJ@BKOHDNCJ@NUM_MAJOR_CIV_APPROACHES?$AA@ ; `string'
PUBLIC	??_C@_0BL@CNGAILNK@MAJOR_CIV_APPROACH_NEUTRAL?$AA@ ; `string'
PUBLIC	??_C@_0BM@DKMOIKED@MAJOR_CIV_APPROACH_FRIENDLY?$AA@ ; `string'
PUBLIC	??_C@_0BK@NFDBJLGK@MAJOR_CIV_APPROACH_AFRAID?$AA@ ; `string'
PUBLIC	??_C@_0BL@PIFEJDIF@MAJOR_CIV_APPROACH_GUARDED?$AA@ ; `string'
PUBLIC	??_C@_0BN@FKMLMFML@MAJOR_CIV_APPROACH_DECEPTIVE?$AA@ ; `string'
PUBLIC	??_C@_0BL@MHCEMGIK@MAJOR_CIV_APPROACH_HOSTILE?$AA@ ; `string'
PUBLIC	??_C@_0BH@CENIAPAP@MAJOR_CIV_APPROACH_WAR?$AA@	; `string'
PUBLIC	??_C@_0BG@MIEPALJN@NO_MAJOR_CIV_APPROACH?$AA@	; `string'
PUBLIC	??_C@_0BG@OKDMGDPK@MajorCivApproachTypes?$AA@	; `string'
PUBLIC	??_C@_0BI@HIJDDECF@NUM_RESOURCEUSAGE_TYPES?$AA@	; `string'
PUBLIC	??_C@_0BF@KGIAHEFO@RESOURCEUSAGE_LUXURY?$AA@	; `string'
PUBLIC	??_C@_0BI@NCNDAFGO@RESOURCEUSAGE_STRATEGIC?$AA@	; `string'
PUBLIC	??_C@_0BE@FCKHAHKE@RESOURCEUSAGE_BONUS?$AA@	; `string'
PUBLIC	??_C@_0BD@KPGMNEDO@ResourceUsageTypes?$AA@	; `string'
PUBLIC	??_C@_0BL@INMDEKKG@NUM_ENDTURN_BLOCKING_TYPES?$AA@ ; `string'
PUBLIC	??_C@_0CB@EGLLBLDG@ENDTURN_BLOCKING_CHOOSE_IDEOLOGY@ ; `string'
PUBLIC	??_C@_0CH@FJEMJOPG@ENDTURN_BLOCKING_LEAGUE_CALL_FOR@ ; `string'
PUBLIC	??_C@_0CE@FKKOLIDB@ENDTURN_BLOCKING_CHOOSE_ARCHAEOL@ ; `string'
PUBLIC	??_C@_0CL@JOEEEMDN@ENDTURN_BLOCKING_LEAGUE_CALL_FOR@ ; `string'
PUBLIC	??_C@_0CI@CJKJCBF@ENDTURN_BLOCKING_ADD_REFORMATION@ ; `string'
PUBLIC	??_C@_0CE@MGHBANFM@ENDTURN_BLOCKING_FAITH_GREAT_PER@ ; `string'
PUBLIC	??_C@_0CB@LBMNJCEM@ENDTURN_BLOCKING_MAYA_LONG_COUNT@ ; `string'
PUBLIC	??_C@_0BM@DMHEFGHD@ENDTURN_BLOCKING_STEAL_TECH?$AA@ ; `string'
PUBLIC	??_C@_0CC@JDNJFDO@ENDTURN_BLOCKING_ENHANCE_RELIGIO@ ; `string'
PUBLIC	??_C@_0CA@EFICPA@ENDTURN_BLOCKING_FOUND_RELIGION?$AA@ ; `string'
PUBLIC	??_C@_0CA@EKKIIMIJ@ENDTURN_BLOCKING_FOUND_PANTHEON?$AA@ ; `string'
PUBLIC	??_C@_0BM@EKJAMBAC@ENDTURN_BLOCKING_FREE_ITEMS?$AA@ ; `string'
PUBLIC	??_C@_0BN@IADOGKOD@ENDTURN_BLOCKING_FREE_POLICY?$AA@ ; `string'
PUBLIC	??_C@_0CD@DNNOLPPE@ENDTURN_BLOCKING_CITY_RANGE_ATTA@ ; `string'
PUBLIC	??_C@_0CA@LKLFINDN@ENDTURN_BLOCKING_UNIT_PROMOTION?$AA@ ; `string'
PUBLIC	??_C@_0CD@OCJMMHIA@ENDTURN_BLOCKING_UNIT_NEEDS_ORDE@ ; `string'
PUBLIC	??_C@_0BP@JEIDLBCL@ENDTURN_BLOCKING_STACKED_UNITS?$AA@ ; `string'
PUBLIC	??_C@_0BL@LECJKIBE@ENDTURN_BLOCKING_FREE_TECH?$AA@ ; `string'
PUBLIC	??_C@_0BN@MLIKGNKO@ENDTURN_BLOCKING_MINOR_QUEST?$AA@ ; `string'
PUBLIC	??_C@_0BM@JMOJPNKN@ENDTURN_BLOCKING_DIPLO_VOTE?$AA@ ; `string'
PUBLIC	??_C@_0BH@MALLAFIE@ENDTURN_BLOCKING_UNITS?$AA@	; `string'
PUBLIC	??_C@_0BM@OGICDOGI@ENDTURN_BLOCKING_PRODUCTION?$AA@ ; `string'
PUBLIC	??_C@_0BK@MEIPLLKD@ENDTURN_BLOCKING_RESEARCH?$AA@ ; `string'
PUBLIC	??_C@_0BI@GOLNEFGB@ENDTURN_BLOCKING_POLICY?$AA@	; `string'
PUBLIC	??_C@_0BJ@EJOBLKEH@NO_ENDTURN_BLOCKING_TYPE?$AA@ ; `string'
PUBLIC	??_C@_0BF@DMADNOHH@EndTurnBlockingTypes?$AA@	; `string'
PUBLIC	??_C@_0BE@OLHJGHIE@NUM_TRADEABLE_ITEMS?$AA@	; `string'
PUBLIC	??_C@_0BL@JGLJBHEN@TRADE_ITEM_VOTE_COMMITMENT?$AA@ ; `string'
PUBLIC	??_C@_0CF@NAONAHO@TRADE_ITEM_DECLARATION_OF_FRIEND@ ; `string'
PUBLIC	??_C@_0BJ@MMOMMCIO@TRADE_ITEM_ALLOW_EMBASSY?$AA@ ; `string'
PUBLIC	??_C@_0BP@KPFCBADM@TRADE_ITEM_THIRD_PARTY_EMBARGO?$AA@ ; `string'
PUBLIC	??_C@_0BL@NJOJJBBE@TRADE_ITEM_THIRD_PARTY_WAR?$AA@ ; `string'
PUBLIC	??_C@_0BN@PMFNELLO@TRADE_ITEM_THIRD_PARTY_PEACE?$AA@ ; `string'
PUBLIC	??_C@_0BI@CLANHFHP@TRADE_ITEM_PEACE_TREATY?$AA@	; `string'
PUBLIC	??_C@_0BB@LNJJKPMI@TRADE_ITEM_TRUCE?$AA@	; `string'
PUBLIC	??_C@_0BF@DEDGJDLK@TRADE_ITEM_SURRENDER?$AA@	; `string'
PUBLIC	??_C@_0BO@LGFKPCNI@TRADE_ITEM_PERMANENT_ALLIANCE?$AA@ ; `string'
PUBLIC	??_C@_0BL@PFGHCFJI@TRADE_ITEM_TRADE_AGREEMENT?$AA@ ; `string'
PUBLIC	??_C@_0BO@JOADEEDO@TRADE_ITEM_RESEARCH_AGREEMENT?$AA@ ; `string'
PUBLIC	??_C@_0BK@MBLKEPJH@TRADE_ITEM_DEFENSIVE_PACT?$AA@ ; `string'
PUBLIC	??_C@_0BI@JOAPGKLA@TRADE_ITEM_OPEN_BORDERS?$AA@	; `string'
PUBLIC	??_C@_0BB@MMOLOOOL@TRADE_ITEM_UNITS?$AA@	; `string'
PUBLIC	??_C@_0BC@JNCBEEHG@TRADE_ITEM_CITIES?$AA@	; `string'
PUBLIC	??_C@_0BF@JPJNDGIF@TRADE_ITEM_RESOURCES?$AA@	; `string'
PUBLIC	??_C@_0BA@EBLOLMNH@TRADE_ITEM_MAPS?$AA@		; `string'
PUBLIC	??_C@_0BJ@MBFPLJHK@TRADE_ITEM_GOLD_PER_TURN?$AA@ ; `string'
PUBLIC	??_C@_0BA@PLGOANMH@TRADE_ITEM_GOLD?$AA@		; `string'
PUBLIC	??_C@_0BA@OMOBIKJJ@TRADE_ITEM_NONE?$AA@		; `string'
PUBLIC	??_C@_0P@IAOABMHB@TradeableItems?$AA@		; `string'
PUBLIC	??_C@_0BD@EMHJIPNP@LEADERHEAD_ANIM_NO?$AA@	; `string'
PUBLIC	??_C@_0BE@EHOPFCKN@LEADERHEAD_ANIM_YES?$AA@	; `string'
PUBLIC	??_C@_0BN@MCOIDJID@LEADERHEAD_ANIM_LETS_HEAR_IT?$AA@ ; `string'
PUBLIC	??_C@_0BK@NNCNDMDJ@LEADERHEAD_ANIM_HATE_IDLE?$AA@ ; `string'
PUBLIC	??_C@_0BN@GJIAFMD@LEADERHEAD_ANIM_NEUTRAL_IDLE?$AA@ ; `string'
PUBLIC	??_C@_0BH@HNPIMPDF@LEADERHEAD_ANIM_DEMAND?$AA@	; `string'
PUBLIC	??_C@_0BI@BNNBFNEG@LEADERHEAD_ANIM_REQUEST?$AA@	; `string'
PUBLIC	??_C@_0BJ@HBHDOH@LEADERHEAD_ANIM_DEFEATED?$AA@	; `string'
PUBLIC	??_C@_0BL@NBNEDHGE@LEADERHEAD_ANIM_HATE_HELLO?$AA@ ; `string'
PUBLIC	??_C@_0BJ@ODJNNMEF@LEADERHEAD_ANIM_ATTACKED?$AA@ ; `string'
PUBLIC	??_C@_0BM@BONIKMDG@LEADERHEAD_ANIM_DECLARE_WAR?$AA@ ; `string'
PUBLIC	??_C@_0BO@OKIBJCEI@LEADERHEAD_ANIM_OPENING_GLOAT?$AA@ ; `string'
PUBLIC	??_C@_0BJ@DJMMKNKF@LEADERHEAD_ANIM_PEACEFUL?$AA@ ; `string'
PUBLIC	??_C@_0BO@IMGHJJFP@LEADERHEAD_ANIM_NEUTRAL_HELLO?$AA@ ; `string'
PUBLIC	??_C@_0BG@GPMEBHLE@LEADERHEAD_ANIM_INTRO?$AA@	; `string'
PUBLIC	??_C@_0BD@PAFCIPNG@NO_LEADERHEAD_ANIM?$AA@	; `string'
PUBLIC	??_C@_0BJ@FOMMHCOK@LeaderheadAnimationTypes?$AA@ ; `string'
PUBLIC	??_C@_0BD@CMOKGDOG@NUM_DISPUTE_LEVELS?$AA@	; `string'
PUBLIC	??_C@_0BF@ECBMMDA@DISPUTE_LEVEL_FIERCE?$AA@	; `string'
PUBLIC	??_C@_0BF@MENCFLBN@DISPUTE_LEVEL_STRONG?$AA@	; `string'
PUBLIC	??_C@_0BD@IBJCPFDP@DISPUTE_LEVEL_WEAK?$AA@	; `string'
PUBLIC	??_C@_0BD@BGAAIKBL@DISPUTE_LEVEL_NONE?$AA@	; `string'
PUBLIC	??_C@_0BB@OJLAJJON@NO_DISPUTE_LEVEL?$AA@	; `string'
PUBLIC	??_C@_0BC@JBMEHEFC@DisputeLevelTypes?$AA@	; `string'
PUBLIC	??_C@_0BC@GHIDFIC@NUM_THREAT_VALUES?$AA@	; `string'
PUBLIC	??_C@_0BA@GBLJOA@THREAT_CRITICAL?$AA@		; `string'
PUBLIC	??_C@_0O@OGPFNHMH@THREAT_SEVERE?$AA@		; `string'
PUBLIC	??_C@_0N@ELDJNLIK@THREAT_MAJOR?$AA@		; `string'
PUBLIC	??_C@_0N@PECLAHBM@THREAT_MINOR?$AA@		; `string'
PUBLIC	??_C@_0M@OCPDLAEI@THREAT_NONE?$AA@		; `string'
PUBLIC	??_C@_0BA@BBKOBODD@NO_THREAT_VALUE?$AA@		; `string'
PUBLIC	??_C@_0M@PDICKBPA@ThreatTypes?$AA@		; `string'
PUBLIC	??_C@_0BE@DJCNDHH@NUM_COOP_WAR_STATES?$AA@	; `string'
PUBLIC	??_C@_0BI@DOFNNBH@COOP_WAR_STATE_ACCEPTED?$AA@	; `string'
PUBLIC	??_C@_0BE@MBJIAMOK@COOP_WAR_STATE_SOON?$AA@	; `string'
PUBLIC	??_C@_0BI@OCBPACKF@COOP_WAR_STATE_REJECTED?$AA@	; `string'
PUBLIC	??_C@_0BC@LFHNDIOB@NO_COOP_WAR_STATE?$AA@	; `string'
PUBLIC	??_C@_0O@OINBJCPN@CoopWarStates?$AA@		; `string'
PUBLIC	??_C@_0BJ@KPMMBCFP@NUM_FROM_UI_DIPLO_EVENTS?$AA@ ; `string'
PUBLIC	??_C@_0CB@HGBCEFNN@FROM_UI_DIPLO_EVENT_STOP_DIGGING@ ; `string'
PUBLIC	??_C@_0DC@BKLKENLG@FROM_UI_DIPLO_EVENT_HUMAN_DISCUS@ ; `string'
PUBLIC	??_C@_0CF@KKOOKLPH@FROM_UI_DIPLO_EVENT_STOP_CONVERS@ ; `string'
PUBLIC	??_C@_0DN@BHIIOLF@FROM_UI_DIPLO_EVENT_HUMAN_DISCUS@ ; `string'
PUBLIC	??_C@_0DE@GEOBDLM@FROM_UI_DIPLO_EVENT_HUMAN_DISCUS@ ; `string'
PUBLIC	??_C@_0DB@OFADBNCI@FROM_UI_DIPLO_EVENT_HUMAN_DISCUS@ ; `string'
PUBLIC	??_C@_0CL@CBIFPGNP@FROM_UI_DIPLO_EVENT_KILLED_MY_SP@ ; `string'
PUBLIC	??_C@_0CN@FPPGOA@FROM_UI_DIPLO_EVENT_CAUGHT_YOUR_@ ; `string'
PUBLIC	??_C@_0DB@IKMCOBAH@FROM_UI_DIPLO_EVENT_AI_REQUEST_D@ ; `string'
PUBLIC	??_C@_0CF@GDCIHPFP@FROM_UI_DIPLO_EVENT_PLAN_RA_RESP@ ; `string'
PUBLIC	??_C@_0CB@DMCFJLNF@FROM_UI_DIPLO_EVENT_HUMAN_DEMAND@ ; `string'
PUBLIC	??_C@_0CK@GBOPECGO@FROM_UI_DIPLO_EVENT_COOP_WAR_NOW@ ; `string'
PUBLIC	??_C@_0CG@HNHFMFGG@FROM_UI_DIPLO_EVENT_COOP_WAR_RES@ ; `string'
PUBLIC	??_C@_0CD@OIKKCKMA@FROM_UI_DIPLO_EVENT_COOP_WAR_OFF@ ; `string'
PUBLIC	??_C@_0BN@LEJDAJIK@FROM_UI_DIPLO_EVENT_DENOUNCE?$AA@ ; `string'
PUBLIC	??_C@_0DC@HKMAHJDF@FROM_UI_DIPLO_EVENT_WORK_AGAINST@ ; `string'
PUBLIC	??_C@_0CK@BGGKECNA@FROM_UI_DIPLO_EVENT_WORK_WITH_US@ ; `string'
PUBLIC	??_C@_0DB@BFJIFDEL@FROM_UI_DIPLO_EVENT_PLOT_BUYING_@ ; `string'
PUBLIC	??_C@_0DJ@MNMDLGPL@FROM_UI_DIPLO_EVENT_PLOT_BUYING_@ ; `string'
PUBLIC	??_C@_0CP@BFPFAJLG@FROM_UI_DIPLO_EVENT_EXPANSION_WA@ ; `string'
PUBLIC	??_C@_0DH@JKGCBNBN@FROM_UI_DIPLO_EVENT_EXPANSION_SE@ ; `string'
PUBLIC	??_C@_0CL@MEHFCOOL@FROM_UI_DIPLO_EVENT_BULLIED_MINO@ ; `string'
PUBLIC	??_C@_0CK@DDDGBDBO@FROM_UI_DIPLO_EVENT_KILLED_MINOR@ ; `string'
PUBLIC	??_C@_0CM@IGCDDKNH@FROM_UI_DIPLO_EVENT_ATTACKED_MIN@ ; `string'
PUBLIC	??_C@_0DG@LMNEKMPO@FROM_UI_DIPLO_EVENT_I_BULLIED_YO@ ; `string'
PUBLIC	??_C@_0DH@JBBPJPBM@FROM_UI_DIPLO_EVENT_I_ATTACKED_Y@ ; `string'
PUBLIC	??_C@_0DJ@GKMBCIJD@FROM_UI_DIPLO_EVENT_AGGRESSIVE_M@ ; `string'
PUBLIC	??_C@_0CK@NELKIIPF@FROM_UI_DIPLO_EVENT_REQUEST_HUMA@ ; `string'
PUBLIC	??_C@_0CJ@MIAOPDBO@FROM_UI_DIPLO_EVENT_DEMAND_HUMAN@ ; `string'
PUBLIC	??_C@_0DG@LDILPEL@FROM_UI_DIPLO_EVENT_HUMAN_DISCUS@ ; `string'
PUBLIC	??_C@_0DC@KDCMNPKK@FROM_UI_DIPLO_EVENT_HUMAN_DISCUS@ ; `string'
PUBLIC	??_C@_0DB@JKDAAONB@FROM_UI_DIPLO_EVENT_HUMAN_DISCUS@ ; `string'
PUBLIC	??_C@_0CL@FNANEKID@FROM_UI_DIPLO_EVENT_HUMAN_WANTS_@ ; `string'
PUBLIC	??_C@_0CK@JJFPBINN@FROM_UI_DIPLO_EVENT_HUMAN_NEGOTI@ ; `string'
PUBLIC	??_C@_0CH@BFDIBIAJ@FROM_UI_DIPLO_EVENT_HUMAN_DECLAR@ ; `string'
PUBLIC	??_C@_0BH@PIJIFMAP@NO_FROM_UI_DIPLO_EVENT?$AA@	; `string'
PUBLIC	??_C@_0BG@FPINCIBE@FromUIDiploEventTypes?$AA@	; `string'
PUBLIC	??_C@_0BG@DOBFJIMD@NO_POLICY_BRANCH_TYPE?$AA@	; `string'
PUBLIC	??_C@_0BC@KKBMLBIO@PolicyBranchTypes?$AA@	; `string'
PUBLIC	??_C@_0BN@JKCGHEC@FLOWDIRECTION_NORTHEAST_MASK?$AA@ ; `string'
PUBLIC	??_C@_0BN@LCAKIMIA@FLOWDIRECTION_SOUTHWEST_MASK?$AA@ ; `string'
PUBLIC	??_C@_0BN@HHBFGHJL@FLOWDIRECTION_NORTHWEST_MASK?$AA@ ; `string'
PUBLIC	??_C@_0BN@MMLNIMFJ@FLOWDIRECTION_SOUTHEAST_MASK?$AA@ ; `string'
PUBLIC	??_C@_0BJ@NCDOPIKP@FLOWDIRECTION_SOUTH_MASK?$AA@ ; `string'
PUBLIC	??_C@_0BJ@NDDNBMKK@FLOWDIRECTION_NORTH_MASK?$AA@ ; `string'
PUBLIC	??_C@_0BI@NNPPPCPE@NUM_FLOWDIRECTION_TYPES?$AA@	; `string'
PUBLIC	??_C@_0BI@KPMBELII@FLOWDIRECTION_NORTHWEST?$AA@	; `string'
PUBLIC	??_C@_0BI@HHFEEIMJ@FLOWDIRECTION_SOUTHWEST?$AA@	; `string'
PUBLIC	??_C@_0BE@BAKNGBHI@FLOWDIRECTION_SOUTH?$AA@	; `string'
PUBLIC	??_C@_0BI@OCBGBLHM@FLOWDIRECTION_SOUTHEAST?$AA@	; `string'
PUBLIC	??_C@_0BI@DKIDBIDN@FLOWDIRECTION_NORTHEAST?$AA@	; `string'
PUBLIC	??_C@_0BE@DCDCEIIE@FLOWDIRECTION_NORTH?$AA@	; `string'
PUBLIC	??_C@_0BB@IOOGEDJF@NO_FLOWDIRECTION?$AA@	; `string'
PUBLIC	??_C@_0BD@MHEGNPFA@FlowDirectionTypes?$AA@	; `string'
PUBLIC	??_C@_0BE@HEABJJMM@NUM_DIPLO_UI_STATES?$AA@	; `string'
PUBLIC	??_C@_0BM@DBNJHNGO@DIPLO_UI_STATE_STOP_DIGGING?$AA@ ; `string'
PUBLIC	??_C@_0CA@EPOHCEBN@DIPLO_UI_STATE_STOP_CONVERSIONS?$AA@ ; `string'
PUBLIC	??_C@_0CK@FOJFJKBG@DIPLO_UI_STATE_CONFRONT_YOU_KILL@ ; `string'
PUBLIC	??_C@_0BN@PHLOFOIA@DIPLO_UI_STATE_KILLED_MY_SPY?$AA@ ; `string'
PUBLIC	??_C@_0BP@HJKMALCE@DIPLO_UI_STATE_KILLED_YOUR_SPY?$AA@ ; `string'
PUBLIC	??_C@_0BP@NKECOBEG@DIPLO_UI_STATE_CAUGHT_YOUR_SPY?$AA@ ; `string'
PUBLIC	??_C@_0CL@DKHKFHFF@DIPLO_UI_STATE_DISCUSS_AI_REQUES@ ; `string'
PUBLIC	??_C@_0CP@PCDIFFCG@DIPLO_UI_STATE_DISCUSS_PLAN_RESE@ ; `string'
PUBLIC	??_C@_0CF@MLCEBPMC@DIPLO_UI_STATE_DISCUSS_COOP_WAR_@ ; `string'
PUBLIC	??_C@_0CA@EJIKFKII@DIPLO_UI_STATE_DISCUSS_COOP_WAR?$AA@ ; `string'
PUBLIC	??_C@_0CM@DNBDDIMD@DIPLO_UI_STATE_DISCUSS_WORK_AGAI@ ; `string'
PUBLIC	??_C@_0CE@KMICMABC@DIPLO_UI_STATE_DISCUSS_WORK_WITH@ ; `string'
PUBLIC	??_C@_0CP@PHGIEGNL@DIPLO_UI_STATE_DISCUSS_YOU_PLOT_@ ; `string'
PUBLIC	??_C@_0DH@JIFPOIOM@DIPLO_UI_STATE_DISCUSS_YOU_PLOT_@ ; `string'
PUBLIC	??_C@_0CN@DFCCEIEC@DIPLO_UI_STATE_DISCUSS_YOU_EXPAN@ ; `string'
PUBLIC	??_C@_0DF@MFLJKONK@DIPLO_UI_STATE_DISCUSS_YOU_EXPAN@ ; `string'
PUBLIC	??_C@_0CJ@LPNHCGMM@DIPLO_UI_STATE_DISCUSS_PROTECT_M@ ; `string'
PUBLIC	??_C@_0CN@FJECNCOK@DIPLO_UI_STATE_DISCUSS_YOU_BULLI@ ; `string'
PUBLIC	??_C@_0CM@JAEDGCMC@DIPLO_UI_STATE_DISCUSS_YOU_KILLE@ ; `string'
PUBLIC	??_C@_0CO@CEBKIPCI@DIPLO_UI_STATE_DISCUSS_YOU_ATTAC@ ; `string'
PUBLIC	??_C@_0DA@EEOIAJPP@DIPLO_UI_STATE_DISCUSS_I_BULLIED@ ; `string'
PUBLIC	??_C@_0DB@GGOEDCND@DIPLO_UI_STATE_DISCUSS_I_ATTACKE@ ; `string'
PUBLIC	??_C@_0DD@ICJDAMAO@DIPLO_UI_STATE_DISCUSS_AGGRESSIV@ ; `string'
PUBLIC	??_C@_0CF@EBGJLKP@DIPLO_UI_STATE_DISCUSS_HUMAN_INV@ ; `string'
PUBLIC	??_C@_0BP@BLOIGKLK@DIPLO_UI_STATE_AI_DECLARED_WAR?$AA@ ; `string'
PUBLIC	??_C@_0CI@FENJDFGF@DIPLO_UI_STATE_BLANK_DISCUSSION_@ ; `string'
PUBLIC	??_C@_0CL@OHOBIPIO@DIPLO_UI_STATE_BLANK_DISCUSSION_@ ; `string'
PUBLIC	??_C@_0CA@OOFPCPF@DIPLO_UI_STATE_BLANK_DISCUSSION?$AA@ ; `string'
PUBLIC	??_C@_0CP@NGPMJJPK@DIPLO_UI_STATE_BLANK_DISCUSSION_@ ; `string'
PUBLIC	??_C@_0BM@HLOOKDGG@DIPLO_UI_STATE_HUMAN_DEMAND?$AA@ ; `string'
PUBLIC	??_C@_0CO@PHAGDBOM@DIPLO_UI_STATE_TRADE_HUMAN_OFFER@ ; `string'
PUBLIC	??_C@_0CG@BJIFDMFD@DIPLO_UI_STATE_TRADE_AI_MAKES_RE@ ; `string'
PUBLIC	??_C@_0CF@PCLPMPLD@DIPLO_UI_STATE_TRADE_AI_MAKES_DE@ ; `string'
PUBLIC	??_C@_0CG@JKJIBHAI@DIPLO_UI_STATE_TRADE_AI_REJECTS_@ ; `string'
PUBLIC	??_C@_0CG@HBJONBBI@DIPLO_UI_STATE_TRADE_AI_ACCEPTS_@ ; `string'
PUBLIC	??_C@_0CE@LHGGIAEJ@DIPLO_UI_STATE_TRADE_AI_MAKES_OF@ ; `string'
PUBLIC	??_C@_0BF@KJLINBIA@DIPLO_UI_STATE_TRADE?$AA@	; `string'
PUBLIC	??_C@_0CD@KCEMDDFN@DIPLO_UI_STATE_PEACE_MADE_BY_HUM@ ; `string'
PUBLIC	??_C@_0CF@KCKFFDJA@DIPLO_UI_STATE_WAR_DECLARED_BY_H@ ; `string'
PUBLIC	??_C@_0BM@JODACIHE@DIPLO_UI_STATE_DEFAULT_ROOT?$AA@ ; `string'
PUBLIC	??_C@_0BC@CBAHBFOA@NO_DIPLO_UI_STATE?$AA@	; `string'
PUBLIC	??_C@_0BC@GGIHJFPA@DiploUIStateTypes?$AA@	; `string'
PUBLIC	??_C@_0BE@NCBKJFHF@NUM_DIRECTION_TYPES?$AA@	; `string'
PUBLIC	??_C@_0BE@FACNKLIH@DIRECTION_NORTHWEST?$AA@	; `string'
PUBLIC	??_C@_0P@EELDJDMH@DIRECTION_WEST?$AA@		; `string'
PUBLIC	??_C@_0BE@IILIKIMG@DIRECTION_SOUTHWEST?$AA@	; `string'
PUBLIC	??_C@_0BE@BNPKPLHD@DIRECTION_SOUTHEAST?$AA@	; `string'
PUBLIC	??_C@_0P@NBPBMAHC@DIRECTION_EAST?$AA@		; `string'
PUBLIC	??_C@_0BE@MFGPPIDC@DIRECTION_NORTHEAST?$AA@	; `string'
PUBLIC	??_C@_0N@ENHODHOO@NO_DIRECTION?$AA@		; `string'
PUBLIC	??_C@_0P@HGIDGMAO@DirectionTypes?$AA@		; `string'
PUBLIC	??_C@_0BC@PNFJONBH@NUM_COMMAND_TYPES?$AA@	; `string'
PUBLIC	??_C@_0P@DNGDDHCL@COMMAND_HOTKEY?$AA@		; `string'
PUBLIC	??_C@_0N@NKMOGCHO@COMMAND_GIFT?$AA@		; `string'
PUBLIC	??_C@_0P@BAIEEBFD@COMMAND_DELETE?$AA@		; `string'
PUBLIC	??_C@_0BI@HMHHIAOF@COMMAND_STOP_AUTOMATION?$AA@	; `string'
PUBLIC	??_C@_0BD@HIPAELDF@COMMAND_CANCEL_ALL?$AA@	; `string'
PUBLIC	??_C@_0P@NNDPEDHJ@COMMAND_CANCEL?$AA@		; `string'
PUBLIC	??_C@_0N@CEJLGNFA@COMMAND_WAKE?$AA@		; `string'
PUBLIC	??_C@_0BB@FHOCLFDG@COMMAND_AUTOMATE?$AA@	; `string'
PUBLIC	??_C@_0BA@CEIJMLFI@COMMAND_UPGRADE?$AA@		; `string'
PUBLIC	??_C@_0BC@PBHIBNIB@COMMAND_PROMOTION?$AA@	; `string'
PUBLIC	??_C@_0N@KGDPOHDL@CommandTypes?$AA@		; `string'
PUBLIC	??_C@_0P@MFDOFPGD@NUM_TASK_TYPES?$AA@		; `string'
PUBLIC	??_C@_0BC@HNOFAMCN@TASK_ANNEX_PUPPET?$AA@	; `string'
PUBLIC	??_C@_0BD@BHMJMHBK@TASK_CREATE_PUPPET?$AA@	; `string'
PUBLIC	??_C@_0BD@HNIOOAAF@TASK_RANGED_ATTACK?$AA@	; `string'
PUBLIC	??_C@_0BG@GJNEAPAA@TASK_CLEAR_RALLY_PLOT?$AA@	; `string'
PUBLIC	??_C@_0BA@CDIGNGIA@TASK_RALLY_PLOT?$AA@		; `string'
PUBLIC	??_C@_0BC@GGHKODBL@TASK_CLEAR_ORDERS?$AA@	; `string'
PUBLIC	??_C@_0P@CLGMBMND@TASK_CONSCRIPT?$AA@		; `string'
PUBLIC	??_C@_0L@LBGPKFCN@TASK_HURRY?$AA@		; `string'
PUBLIC	??_C@_0BM@FHHMHDJI@TASK_CLEAR_WORKING_OVERRIDE?$AA@ ; `string'
PUBLIC	??_C@_0BE@OHIDIDE@TASK_REMOVE_SLACKER?$AA@	; `string'
PUBLIC	??_C@_0BJ@KAEDNKFE@TASK_CHANGE_WORKING_PLOT?$AA@ ; `string'
PUBLIC	??_C@_0BH@IPLCFNAP@TASK_REMOVE_SPECIALIST?$AA@	; `string'
PUBLIC	??_C@_0BE@IMPANMPD@TASK_ADD_SPECIALIST?$AA@	; `string'
PUBLIC	??_C@_0CA@NPKKKCLA@TASK_NO_AUTO_ASSIGN_SPECIALISTS?$AA@ ; `string'
PUBLIC	??_C@_0BD@JLMCHIHE@TASK_SET_EMPHASIZE?$AA@	; `string'
PUBLIC	??_C@_0BO@GIIBPANL@TASK_SET_AUTOMATED_PRODUCTION?$AA@ ; `string'
PUBLIC	??_C@_0BM@HNFGBGKH@TASK_SET_AUTOMATED_CITIZENS?$AA@ ; `string'
PUBLIC	??_C@_09KDBBDDLH@TASK_GIFT?$AA@			; `string'
PUBLIC	??_C@_0N@KBEHEOIO@TASK_DISBAND?$AA@		; `string'
PUBLIC	??_C@_0M@OHJCMBOO@TASK_UNRAZE?$AA@		; `string'
PUBLIC	??_C@_09IIEAHKKO@TASK_RAZE?$AA@			; `string'
PUBLIC	??_C@_09OBAOBAN@TaskTypes?$AA@			; `string'
PUBLIC	??_C@_0BJ@BPOBFJHD@GAMEMESSAGE_AVOID_GROWTH?$AA@ ; `string'
PUBLIC	??_C@_0BH@KBMIMCKO@GAMEMESSAGE_SWAP_ORDER?$AA@	; `string'
PUBLIC	??_C@_0BH@FAAALJAL@GAMEMESSAGE_SWAP_UNITS?$AA@	; `string'
PUBLIC	??_C@_0BM@NMLBFBJJ@GAMEMESSAGE_MOD_NET_MESSAGE?$AA@ ; `string'
PUBLIC	??_C@_0BJ@NFFPFLCK@GAMEMESSAGE_PLAYER_HURRY?$AA@ ; `string'
PUBLIC	??_C@_0BN@PCNOOLBB@GAMEMESSAGE_BARBARIAN_RANSOM?$AA@ ; `string'
PUBLIC	??_C@_0CG@EJPFJIKE@GAMEMESSAGE_MINOR_CIV_ENTER_TERR@ ; `string'
PUBLIC	??_C@_0CA@OAFILJDH@GAMEMESSAGE_MINOR_CIV_INTRUSION?$AA@ ; `string'
PUBLIC	??_C@_0CG@OPBPNGKG@GAMEMESSAGE_MINOR_CIV_QUEST_COMP@ ; `string'
PUBLIC	??_C@_0CI@LLCNECPH@GAMEMESSAGE_MINOR_CIV_QUEST_NO_I@ ; `string'
PUBLIC	??_C@_0CC@INADAHHH@GAMEMESSAGE_ADVANCED_START_ACTIO@ ; `string'
PUBLIC	??_C@_0BN@FCOHJOKO@GAMEMESSAGE_LAUNCH_SPACESHIP?$AA@ ; `string'
PUBLIC	??_C@_0BM@OBEIGHI@GAMEMESSAGE_EVENT_TRIGGERED?$AA@ ; `string'
PUBLIC	??_C@_0BC@IJDACNNK@GAMEMESSAGE_POPUP?$AA@	; `string'
PUBLIC	??_C@_0BM@JFEHMAGL@GAMEMESSAGE_HOT_DROP_NOTICE?$AA@ ; `string'
PUBLIC	??_C@_0BO@PCNPFBAK@GAMEMESSAGE_DIPLOMACY_FROM_UI?$AA@ ; `string'
PUBLIC	??_C@_0BM@DDLMLEHF@GAMEMESSAGE_POPUP_PROCESSED?$AA@ ; `string'
PUBLIC	??_C@_0BI@OGFDPGOH@GAMEMESSAGE_CLEAR_TABLE?$AA@	; `string'
PUBLIC	??_C@_0BM@BJEAIKMM@GAMEMESSAGE_UPDATE_POLICIES?$AA@ ; `string'
PUBLIC	??_C@_0BG@JKCDHMHI@GAMEMESSAGE_KILL_DEAL?$AA@	; `string'
PUBLIC	??_C@_0BH@HDJMNHIC@GAMEMESSAGE_EXIT_TRADE?$AA@	; `string'
PUBLIC	??_C@_0BN@CKBFCLCE@GAMEMESSAGE_RENEGOTIATE_ITEM?$AA@ ; `string'
PUBLIC	??_C@_0BI@MMNKHGGM@GAMEMESSAGE_RENEGOTIATE?$AA@	; `string'
PUBLIC	??_C@_0BH@JKLCJKLC@GAMEMESSAGE_SEND_OFFER?$AA@	; `string'
PUBLIC	??_C@_0BH@KNMAEAGO@GAMEMESSAGE_DIPLO_CHAT?$AA@	; `string'
PUBLIC	??_C@_0BI@DDAEGBKC@GAMEMESSAGE_CONTACT_CIV?$AA@	; `string'
PUBLIC	??_C@_0BI@BEOGNKLC@GAMEMESSAGE_APPLY_EVENT?$AA@	; `string'
PUBLIC	??_C@_0BH@NBCDCCKO@GAMEMESSAGE_DIPLO_VOTE?$AA@	; `string'
PUBLIC	??_C@_0BM@JKLLJEJM@GAMEMESSAGE_CHOOSE_ELECTION?$AA@ ; `string'
PUBLIC	??_C@_0BM@NGOOFKLL@GAMEMESSAGE_LIBERATE_PLAYER?$AA@ ; `string'
PUBLIC	??_C@_0BH@PIDFJKMK@GAMEMESSAGE_CHANGE_WAR?$AA@	; `string'
PUBLIC	??_C@_0BM@IJMNHHJA@GAMEMESSAGE_IMPLEMENT_OFFER?$AA@ ; `string'
PUBLIC	??_C@_0BJ@BDDDHCCD@GAMEMESSAGE_TOGGLE_TRADE?$AA@ ; `string'
PUBLIC	??_C@_0BJ@OKKAGJLO@GAMEMESSAGE_MP_DROP_SAVE?$AA@ ; `string'
PUBLIC	??_C@_0BL@EMGAMNND@GAMEMESSAGE_MP_DROP_RESULT?$AA@ ; `string'
PUBLIC	??_C@_0BL@JGILDKPH@GAMEMESSAGE_MP_DROP_UPDATE?$AA@ ; `string'
PUBLIC	??_C@_0BJ@MBBLEFJD@GAMEMESSAGE_MP_DROP_VOTE?$AA@ ; `string'
PUBLIC	??_C@_0BJ@NMDADBJG@GAMEMESSAGE_MP_DROP_INIT?$AA@ ; `string'
PUBLIC	??_C@_0BJ@JONFIJAK@GAMEMESSAGE_NEVER_JOINED?$AA@ ; `string'
PUBLIC	??_C@_0BN@PMOKAIPI@GAMEMESSAGE_CLOSE_CONNECTION?$AA@ ; `string'
PUBLIC	??_C@_0BG@BFFCIGOJ@GAMEMESSAGE_MP_RETIRE?$AA@	; `string'
PUBLIC	??_C@_0BE@CKOGBGHJ@GAMEMESSAGE_MP_KICK?$AA@	; `string'
PUBLIC	??_C@_0BC@DCOGPJCP@GAMEMESSAGE_PAUSE?$AA@	; `string'
PUBLIC	??_C@_0BO@NEHPODGA@GAMEMESSAGE_LINE_GROUP_DELETE?$AA@ ; `string'
PUBLIC	??_C@_0BP@PENEFELE@GAMEMESSAGE_LINE_ENTITY_DELETE?$AA@ ; `string'
PUBLIC	??_C@_0BI@BHEKKKO@GAMEMESSAGE_SIGN_DELETE?$AA@	; `string'
PUBLIC	??_C@_0BI@DBDJKIOF@GAMEMESSAGE_LINE_ENTITY?$AA@	; `string'
PUBLIC	??_C@_0BB@FKPJDAAO@GAMEMESSAGE_SIGN?$AA@	; `string'
PUBLIC	??_C@_0BB@MDEKMKBI@GAMEMESSAGE_PING?$AA@	; `string'
PUBLIC	??_C@_0BB@DGAFEGIA@GAMEMESSAGE_CHAT?$AA@	; `string'
PUBLIC	??_C@_0BE@GEGIBCAA@GAMEMESSAGE_CONVERT?$AA@	; `string'
PUBLIC	??_C@_0BF@HNBNHJOL@GAMEMESSAGE_RESEARCH?$AA@	; `string'
PUBLIC	??_C@_0BE@JPBNGKLJ@GAMEMESSAGE_DO_TASK?$AA@	; `string'
PUBLIC	??_C@_0BG@MMNHENAF@GAMEMESSAGE_POP_ORDER?$AA@	; `string'
PUBLIC	??_C@_0BH@BBLHDEPL@GAMEMESSAGE_PUSH_ORDER?$AA@	; `string'
PUBLIC	??_C@_0BH@GLPPOKED@GAMEMESSAGE_DO_COMMAND?$AA@	; `string'
PUBLIC	??_C@_0BJ@DACBELHB@GAMEMESSAGE_AUTO_MISSION?$AA@ ; `string'
PUBLIC	??_C@_0BJ@JCFHDKNE@GAMEMESSAGE_PUSH_MISSION?$AA@ ; `string'
PUBLIC	??_C@_0BK@GPKKPNBK@GAMEMESSAGE_TURN_COMPLETE?$AA@ ; `string'
PUBLIC	??_C@_0BH@CGNIBHEN@GAMEMESSAGE_AUTO_MOVES?$AA@	; `string'
PUBLIC	??_C@_0BK@KNGBDALC@GAMEMESSAGE_EXTENDED_GAME?$AA@ ; `string'
PUBLIC	??_C@_0BK@DAANKBMH@GAMEMESSAGE_PLAYER_OPTION?$AA@ ; `string'
PUBLIC	??_C@_0BI@OMFGKHMO@GAMEMESSAGE_SYNCH_START?$AA@	; `string'
PUBLIC	??_C@_0BK@CEHIGIF@GAMEMESSAGE_AUTH_RESPONSE?$AA@ ; `string'
PUBLIC	??_C@_0BJ@JNIJFCCH@GAMEMESSAGE_AUTH_REQUEST?$AA@ ; `string'
PUBLIC	??_C@_0BJ@LNOIHBNG@GAMEMESSAGE_INIT_PLAYERS?$AA@ ; `string'
PUBLIC	??_C@_0BG@PGHMLCOL@GAMEMESSAGE_INIT_GAME?$AA@	; `string'
PUBLIC	??_C@_0BL@HNNKADOO@GAMEMESSAGE_LAUNCHING_INFO?$AA@ ; `string'
PUBLIC	??_C@_0BJ@HFIMMACE@GAMEMESSAGE_PITBOSS_INFO?$AA@ ; `string'
PUBLIC	??_C@_0BM@FCJHGOKK@GAMEMESSAGE_REASSIGN_PLAYER?$AA@ ; `string'
PUBLIC	??_C@_0BG@GDAGHNFF@GAMEMESSAGE_GAME_INFO?$AA@	; `string'
PUBLIC	??_C@_0BI@HDJGLJOM@GAMEMESSAGE_PLAYER_INFO?$AA@	; `string'
PUBLIC	??_C@_0BO@ICECKKGA@GAMEMESSAGE_SLOT_REASSIGNMENT?$AA@ ; `string'
PUBLIC	??_C@_0BG@BFJKMKAE@GAMEMESSAGE_PLAYER_ID?$AA@	; `string'
PUBLIC	??_C@_0BG@LDBFOKJH@GAMEMESSAGE_LOAD_GAME?$AA@	; `string'
PUBLIC	??_C@_0BK@KILPIGJM@GAMEMESSAGE_MAPSCRIPT_ACK?$AA@ ; `string'
PUBLIC	??_C@_0BM@GCLJAJMC@GAMEMESSAGE_MAPSCRIPT_CHECK?$AA@ ; `string'
PUBLIC	??_C@_0BG@OHJFBLLH@GAMEMESSAGE_INIT_INFO?$AA@	; `string'
PUBLIC	??_C@_0BL@LGEHGCDH@GAMEMESSAGE_INTERIM_NOTICE?$AA@ ; `string'
PUBLIC	??_C@_0BH@CJGKCNGA@GAMEMESSAGE_CIV_CHOSEN?$AA@	; `string'
PUBLIC	??_C@_0BM@GPAIICCE@GAMEMESSAGE_CIV_CHOICE_NACK?$AA@ ; `string'
PUBLIC	??_C@_0BL@MKMFBDPO@GAMEMESSAGE_CIV_CHOICE_ACK?$AA@ ; `string'
PUBLIC	??_C@_0BH@MFLEENLE@GAMEMESSAGE_CLAIM_INFO?$AA@	; `string'
PUBLIC	??_C@_0BO@KGDCFGNH@GAMEMESSAGE_CONFIRM_CIV_CLAIM?$AA@ ; `string'
PUBLIC	??_C@_0BH@PBLHDPOC@GAMEMESSAGE_CIV_CHOICE?$AA@	; `string'
PUBLIC	??_C@_0BK@OJHMBIID@GAMEMESSAGE_PICK_YOUR_CIV?$AA@ ; `string'
PUBLIC	??_C@_0BG@PLLGLEON@GAMEMESSAGE_FILE_INFO?$AA@	; `string'
PUBLIC	??_C@_0BK@EIBDIAIB@GAMEMESSAGE_ID_ASSIGNMENT?$AA@ ; `string'
PUBLIC	??_C@_0BG@NEPMHGAI@GAMEMESSAGE_GAME_TYPE?$AA@	; `string'
PUBLIC	??_C@_0BM@BHHIKPCD@GAMEMESSAGE_VERSION_WARNING?$AA@ ; `string'
PUBLIC	??_C@_0BJ@CGFJBJKE@GAMEMESSAGE_VERSION_NACK?$AA@ ; `string'
PUBLIC	??_C@_0BL@NADGJCJ@GAMEMESSAGE_VERIFY_VERSION?$AA@ ; `string'
PUBLIC	??_C@_0BK@IIFLBMFO@GAMEMESSAGE_NETWORK_READY?$AA@ ; `string'
PUBLIC	??_C@_0BB@FABJCJNO@GameMessageTypes?$AA@	; `string'
PUBLIC	??_C@_0BD@GBKENNAO@NUM_ACTIONSUBTYPES?$AA@	; `string'
PUBLIC	??_C@_0BG@BLKDOIE@ACTIONSUBTYPE_MISSION?$AA@	; `string'
PUBLIC	??_C@_0BH@BPKHJKAM@ACTIONSUBTYPE_AUTOMATE?$AA@	; `string'
PUBLIC	??_C@_0BG@MPKGGGMF@ACTIONSUBTYPE_CONTROL?$AA@	; `string'
PUBLIC	??_C@_0BJ@BOOMJAJD@ACTIONSUBTYPE_SPECIALIST?$AA@ ; `string'
PUBLIC	??_C@_0BI@DHDMIBBM@ACTIONSUBTYPE_PROMOTION?$AA@	; `string'
PUBLIC	??_C@_0BE@LCICLDM@ACTIONSUBTYPE_BUILD?$AA@	; `string'
PUBLIC	??_C@_0BG@KPHFPJNG@ACTIONSUBTYPE_COMMAND?$AA@	; `string'
PUBLIC	??_C@_0BM@KHALJKLI@ACTIONSUBTYPE_INTERFACEMODE?$AA@ ; `string'
PUBLIC	??_C@_0P@JJIOBEHP@ActionSubTypes?$AA@		; `string'
PUBLIC	?RegisterDynamicEnums@CvLuaEnums@@KAXPAUlua_State@@PBD111@Z ; CvLuaEnums::RegisterDynamicEnums
PUBLIC	??_C@_08BIIFDPDO@Missions?$AA@			; `string'
PUBLIC	??_C@_02OLOABKKD@ID?$AA@			; `string'
PUBLIC	??_C@_04KOACHJEN@Type?$AA@			; `string'
PUBLIC	??_C@_0BC@BKOCPOBK@NUM_MISSION_TYPES?$AA@	; `string'
PUBLIC	??_C@_0L@LHJODJGF@NO_MISSION?$AA@		; `string'
PUBLIC	??_C@_0N@KFABONDF@MissionTypes?$AA@		; `string'
PUBLIC	??_C@_0BB@EBOGBEEG@ACTIVITY_MISSION?$AA@	; `string'
PUBLIC	??_C@_0BD@BGDDDOPO@ACTIVITY_INTERCEPT?$AA@	; `string'
PUBLIC	??_C@_0BA@DKGFPPBI@ACTIVITY_SENTRY?$AA@		; `string'
PUBLIC	??_C@_0O@NFNCNPJD@ACTIVITY_HEAL?$AA@		; `string'
PUBLIC	??_C@_0P@DHNKHBIE@ACTIVITY_SLEEP?$AA@		; `string'
PUBLIC	??_C@_0O@HKGOCGKM@ACTIVITY_HOLD?$AA@		; `string'
PUBLIC	??_C@_0P@NMLNCIMO@ACTIVITY_AWAKE?$AA@		; `string'
PUBLIC	??_C@_0M@JAGCGEHF@NO_ACTIVITY?$AA@		; `string'
PUBLIC	??_C@_0O@FFIPLHJG@ActivityTypes?$AA@		; `string'
PUBLIC	??_C@_0BC@BNBLKEDE@NotificationTypes?$AA@	; `string'
PUBLIC	??_C@_0BI@HGGCFNAH@NUM_INTERFACEMODE_TYPES?$AA@	; `string'
PUBLIC	??_C@_0CE@FJIHJLAJ@INTERFACEMODE_ESTABLISH_TRADE_RO@ ; `string'
PUBLIC	??_C@_0CE@LLKJCNKN@INTERFACEMODE_GIFT_TILE_IMPROVEM@ ; `string'
PUBLIC	??_C@_0CA@EAIELJFO@INTERFACEMODE_CITY_RANGE_ATTACK?$AA@ ; `string'
PUBLIC	??_C@_0BM@EFBJOHGM@INTERFACEMODE_PURCHASE_PLOT?$AA@ ; `string'
PUBLIC	??_C@_0CC@GKKKAGHI@INTERFACEMODE_CITY_PLOT_SELECTIO@ ; `string'
PUBLIC	??_C@_0BI@LJIAMLNO@INTERFACEMODE_GIFT_UNIT?$AA@	; `string'
PUBLIC	??_C@_0BI@LONBGCLD@INTERFACEMODE_DISEMBARK?$AA@	; `string'
PUBLIC	??_C@_0BF@IECMDOMO@INTERFACEMODE_EMBARK?$AA@	; `string'
PUBLIC	??_C@_0BJ@DANCOGFA@INTERFACEMODE_PLACE_UNIT?$AA@ ; `string'
PUBLIC	??_C@_0BF@FFEHFJFK@INTERFACEMODE_REBASE?$AA@	; `string'
PUBLIC	??_C@_0BI@PJBNPIMI@INTERFACEMODE_AIR_SWEEP?$AA@	; `string'
PUBLIC	??_C@_0BI@JMKFFJNC@INTERFACEMODE_AIRSTRIKE?$AA@	; `string'
PUBLIC	??_C@_0BL@DIAIACDL@INTERFACEMODE_RANGE_ATTACK?$AA@ ; `string'
PUBLIC	??_C@_0BF@KGPOOCOL@INTERFACEMODE_ATTACK?$AA@	; `string'
PUBLIC	??_C@_0BH@EBPCAAGG@INTERFACEMODE_PARADROP?$AA@	; `string'
PUBLIC	??_C@_0BD@KBDLAILF@INTERFACEMODE_NUKE?$AA@	; `string'
PUBLIC	??_C@_0BG@KGAMPENH@INTERFACEMODE_AIRLIFT?$AA@	; `string'
PUBLIC	??_C@_0BH@POBBCEBG@INTERFACEMODE_ROUTE_TO?$AA@	; `string'
PUBLIC	??_C@_0BK@ENJKNGOC@INTERFACEMODE_MOVE_TO_ALL?$AA@ ; `string'
PUBLIC	??_C@_0BL@BJLMEHIJ@INTERFACEMODE_MOVE_TO_TYPE?$AA@ ; `string'
PUBLIC	??_C@_0BG@MHBEEAAC@INTERFACEMODE_MOVE_TO?$AA@	; `string'
PUBLIC	??_C@_0BD@FANJGJBI@INTERFACEMODE_PING?$AA@	; `string'
PUBLIC	??_C@_0BI@EBJLMHGK@INTERFACEMODE_SELECTION?$AA@	; `string'
PUBLIC	??_C@_0BE@KEMHPNNH@INTERFACEMODE_DEBUG?$AA@	; `string'
PUBLIC	??_C@_0BB@CGLADEEE@NO_INTERFACEMODE?$AA@	; `string'
PUBLIC	??_C@_0BD@EMEMEIDB@InterfaceModeTypes?$AA@	; `string'
PUBLIC	??_C@_0BC@HCFKCOBM@NUM_TERRAIN_TYPES?$AA@	; `string'
PUBLIC	??_C@_0N@LBEPBMPM@TERRAIN_HILL?$AA@		; `string'
PUBLIC	??_C@_0BB@NOPHJFJC@TERRAIN_MOUNTAIN?$AA@	; `string'
PUBLIC	??_C@_0O@PICFGHGA@TERRAIN_OCEAN?$AA@		; `string'
PUBLIC	??_C@_0O@GKPKFAII@TERRAIN_COAST?$AA@		; `string'
PUBLIC	??_C@_0N@JANIPHBF@TERRAIN_SNOW?$AA@		; `string'
PUBLIC	??_C@_0P@EBEMIIPO@TERRAIN_TUNDRA?$AA@		; `string'
PUBLIC	??_C@_0P@DCDNMEOJ@TERRAIN_DESERT?$AA@		; `string'
PUBLIC	??_C@_0P@IMCIJKHF@TERRAIN_PLAINS?$AA@		; `string'
PUBLIC	??_C@_0O@CGFKNHGK@TERRAIN_GRASS?$AA@		; `string'
PUBLIC	??_C@_0L@CEMPNHFJ@NO_TERRAIN?$AA@		; `string'
PUBLIC	??_C@_0N@MAGCBDOH@TerrainTypes?$AA@		; `string'
PUBLIC	??_C@_0P@GPHGDFLD@NUM_PLOT_TYPES?$AA@		; `string'
PUBLIC	??_C@_0L@DPKPGLPO@PLOT_OCEAN?$AA@		; `string'
PUBLIC	??_C@_09BHICOGMO@PLOT_LAND?$AA@			; `string'
PUBLIC	??_C@_0L@OCKGPDCC@PLOT_HILLS?$AA@		; `string'
PUBLIC	??_C@_0O@IIKCCFJN@PLOT_MOUNTAIN?$AA@		; `string'
PUBLIC	??_C@_07KFJBDFBI@NO_PLOT?$AA@			; `string'
PUBLIC	??_C@_09EMDGGOGD@PlotTypes?$AA@			; `string'
PUBLIC	??_C@_0BA@FFCGOCPK@NUM_ORDER_TYPES?$AA@		; `string'
PUBLIC	??_C@_0P@BMKCDGDH@ORDER_MAINTAIN?$AA@		; `string'
PUBLIC	??_C@_0O@JDLLIHHP@ORDER_PREPARE?$AA@		; `string'
PUBLIC	??_C@_0N@BFDDAEDG@ORDER_CREATE?$AA@		; `string'
PUBLIC	??_C@_0BA@IJOGBGHJ@ORDER_CONSTRUCT?$AA@		; `string'
PUBLIC	??_C@_0M@MABAMEFF@ORDER_TRAIN?$AA@		; `string'
PUBLIC	??_C@_08HMPBOBFO@NO_ORDER?$AA@			; `string'
PUBLIC	??_C@_0L@IDOLACNH@OrderTypes?$AA@		; `string'
PUBLIC	??_C@_0BI@FGMCNOKG@FOGOFWARMODE_UNEXPLORED?$AA@	; `string'
PUBLIC	??_C@_0BD@NELEIMII@FOGOFWARMODE_NOVIS?$AA@	; `string'
PUBLIC	??_C@_0BB@EODMOAJF@FOGOFWARMODE_OFF?$AA@	; `string'
PUBLIC	??_C@_0BC@PBLLCPCG@FogOfWarModeTypes?$AA@	; `string'
PUBLIC	??_C@_0BC@DLAPMCPK@NUM_FEATURE_TYPES?$AA@	; `string'
PUBLIC	??_C@_0BA@EMOAFIAA@FEATURE_FALLOUT?$AA@		; `string'
PUBLIC	??_C@_0P@HBLLKHIA@FEATURE_FOREST?$AA@		; `string'
PUBLIC	??_C@_0BF@OALAIPAK@FEATURE_FLOOD_PLAINS?$AA@	; `string'
PUBLIC	??_C@_0O@EPLNONAB@FEATURE_OASIS?$AA@		; `string'
PUBLIC	??_C@_0O@CEOMGFD@FEATURE_MARSH?$AA@		; `string'
PUBLIC	??_C@_0P@FPOMJJFM@FEATURE_JUNGLE?$AA@		; `string'
PUBLIC	??_C@_0M@PHDJLLFO@FEATURE_ICE?$AA@		; `string'
PUBLIC	??_C@_0L@DMKPDBAI@NO_FEATURE?$AA@		; `string'
PUBLIC	??_C@_0N@PMMJLIAB@FeatureTypes?$AA@		; `string'
PUBLIC	??_C@_0BB@JJBCEOBK@NUM_DOMAIN_TYPES?$AA@	; `string'
PUBLIC	??_C@_0N@BBEFMJHA@DOMAIN_HOVER?$AA@		; `string'
PUBLIC	??_C@_0BA@KLBBAGOE@DOMAIN_IMMOBILE?$AA@		; `string'
PUBLIC	??_C@_0M@NPNGAOHJ@DOMAIN_LAND?$AA@		; `string'
PUBLIC	??_C@_0L@NNFOOLBN@DOMAIN_AIR?$AA@		; `string'
PUBLIC	??_C@_0L@EPLLMMPP@DOMAIN_SEA?$AA@		; `string'
PUBLIC	??_C@_09MNBLBDJB@NO_DOMAIN?$AA@			; `string'
PUBLIC	??_C@_0M@ENKDAKND@DomainTypes?$AA@		; `string'
PUBLIC	??_C@_0BF@BLAHAKGL@NUM_GAMEOPTION_TYPES?$AA@	; `string'
PUBLIC	??_C@_0BH@FACLKNOK@GAMEOPTION_NO_RELIGION?$AA@	; `string'
PUBLIC	??_C@_0BH@ENEKIDIF@GAMEOPTION_NO_TUTORIAL?$AA@	; `string'
PUBLIC	??_C@_0BI@JGECPOCP@GAMEOPTION_NO_HAPPINESS?$AA@	; `string'
PUBLIC	??_C@_0BH@OIGGNGKO@GAMEOPTION_NO_POLICIES?$AA@	; `string'
PUBLIC	??_C@_0BG@PIPNBCH@GAMEOPTION_NO_SCIENCE?$AA@	; `string'
PUBLIC	??_C@_0BO@IHBNNLD@GAMEOPTION_DISABLE_START_BIAS?$AA@ ; `string'
PUBLIC	??_C@_0BI@BLEMCDOO@GAMEOPTION_QUICK_COMBAT?$AA@	; `string'
PUBLIC	??_C@_0CC@OIHDMLAM@GAMEOPTION_END_TURN_TIMER_ENABLE@ ; `string'
PUBLIC	??_C@_0BM@PDKCHBCL@GAMEOPTION_PROMOTION_SAVING?$AA@ ; `string'
PUBLIC	??_C@_0BJ@EMMKEAFA@GAMEOPTION_POLICY_SAVING?$AA@ ; `string'
PUBLIC	??_C@_0CA@LBKCOBKO@GAMEOPTION_RANDOM_PERSONALITIES?$AA@ ; `string'
PUBLIC	??_C@_0BJ@ELIIMHCM@GAMEOPTION_NO_GOODY_HUTS?$AA@ ; `string'
PUBLIC	??_C@_0BK@FLJHIMJA@GAMEOPTION_COMPLETE_KILLS?$AA@ ; `string'
PUBLIC	??_C@_0BF@FLDCJDGF@GAMEOPTION_LOCK_MODS?$AA@	; `string'
PUBLIC	??_C@_0BL@KGABLPMK@GAMEOPTION_NEW_RANDOM_SEED?$AA@ ; `string'
PUBLIC	??_C@_0CB@NBIPAFED@GAMEOPTION_NO_CHANGING_WAR_PEACE@ ; `string'
PUBLIC	??_C@_0BO@PJPCMCBE@GAMEOPTION_ONE_CITY_CHALLENGE?$AA@ ; `string'
PUBLIC	??_C@_0BI@DDHAEHLE@GAMEOPTION_ALWAYS_PEACE?$AA@	; `string'
PUBLIC	??_C@_0BG@JCKDCPBP@GAMEOPTION_ALWAYS_WAR?$AA@	; `string'
PUBLIC	??_C@_0BN@EFKMMMCJ@GAMEOPTION_RAGING_BARBARIANS?$AA@ ; `string'
PUBLIC	??_C@_0BJ@KEPDPJNF@GAMEOPTION_NO_BARBARIANS?$AA@ ; `string'
PUBLIC	??_C@_0BK@FALDACNM@GAMEOPTION_NO_CITY_RAZING?$AA@ ; `string'
PUBLIC	??_C@_0O@DAKBDGCM@NO_GAMEOPTION?$AA@		; `string'
PUBLIC	??_C@_0BA@DAOEBEOM@GameOptionTypes?$AA@		; `string'
PUBLIC	??_C@_0BA@MCGBAMKA@NUM_YIELD_TYPES?$AA@		; `string'
PUBLIC	??_C@_0M@LJBJNLIH@YIELD_FAITH?$AA@		; `string'
PUBLIC	??_C@_0O@KODKFFBP@YIELD_CULTURE?$AA@		; `string'
PUBLIC	??_C@_0O@EBDOPLJI@YIELD_SCIENCE?$AA@		; `string'
PUBLIC	??_C@_0L@JGLOMJON@YIELD_GOLD?$AA@		; `string'
PUBLIC	??_C@_0BB@OAGOPANA@YIELD_PRODUCTION?$AA@	; `string'
PUBLIC	??_C@_0L@KJJIFOAE@YIELD_FOOD?$AA@		; `string'
PUBLIC	??_C@_08BFLLEPHG@NO_YIELD?$AA@			; `string'
PUBLIC	??_C@_0L@BGNMNANM@YieldTypes?$AA@		; `string'
PUBLIC	??_C@_0CA@FJPOCGCG@BUTTONPOPUP_CHOOSE_ADMIRAL_PORT?$AA@ ; `string'
PUBLIC	??_C@_0BK@PEHBILOO@BUTTONPOPUP_LEAGUE_SPLASH?$AA@ ; `string'
PUBLIC	??_C@_0CE@NNPCDNOD@BUTTONPOPUP_CHOOSE_GOODY_HUT_REW@ ; `string'
PUBLIC	??_C@_0CF@DIBCGGDP@BUTTONPOPUP_LEAGUE_PROJECT_COMPL@ ; `string'
PUBLIC	??_C@_0CB@BFKHAOMB@BUTTONPOPUP_TRADE_ROUTE_OVERVIEW@ ; `string'
PUBLIC	??_C@_0CP@BCIKJFJO@BUTTONPOPUP_GREAT_WORK_COMPLETED@ ; `string'
PUBLIC	??_C@_0CH@JAKPKABP@BUTTONPOPUP_CHOOSE_TRADE_UNIT_NE@ ; `string'
PUBLIC	??_C@_0BN@KPOCAOCP@BUTTONPOPUP_CULTURE_OVERVIEW?$AA@ ; `string'
PUBLIC	??_C@_0CN@JCEAIDMD@BUTTONPOPUP_CHOOSE_INTERNATIONAL@ ; `string'
PUBLIC	??_C@_0BM@LJJANAKP@BUTTONPOPUP_CHOOSE_IDEOLOGY?$AA@ ; `string'
PUBLIC	??_C@_0BP@CMNOMMHE@BUTTONPOPUP_CHOOSE_ARCHAEOLOGY?$AA@ ; `string'
PUBLIC	??_C@_0CL@EGJFALHI@BUTTONPOPUP_DECLAREWAR_PLUNDER_T@ ; `string'
PUBLIC	??_C@_0BM@NFCBJBBC@BUTTONPOPUP_LEAGUE_OVERVIEW?$AA@ ; `string'
PUBLIC	??_C@_0BG@FFBGAOBL@BUTTONPOPUP_MODDER_11?$AA@	; `string'
PUBLIC	??_C@_0BG@EMANDPFK@BUTTONPOPUP_MODDER_10?$AA@	; `string'
PUBLIC	??_C@_0BF@IKCPLOIF@BUTTONPOPUP_MODDER_9?$AA@	; `string'
PUBLIC	??_C@_0BF@JDDEIPME@BUTTONPOPUP_MODDER_8?$AA@	; `string'
PUBLIC	??_C@_0BF@BEKMJDAL@BUTTONPOPUP_MODDER_7?$AA@	; `string'
PUBLIC	??_C@_0BF@NLHKCEK@BUTTONPOPUP_MODDER_6?$AA@	; `string'
PUBLIC	??_C@_0BF@CGJKPBIJ@BUTTONPOPUP_MODDER_5?$AA@	; `string'
PUBLIC	??_C@_0BF@DPIBMAMI@BUTTONPOPUP_MODDER_4?$AA@	; `string'
PUBLIC	??_C@_0BF@HAMAFGAP@BUTTONPOPUP_MODDER_3?$AA@	; `string'
PUBLIC	??_C@_0BF@GJNLGHEO@BUTTONPOPUP_MODDER_2?$AA@	; `string'
PUBLIC	??_C@_0BF@ECPGDEIN@BUTTONPOPUP_MODDER_1?$AA@	; `string'
PUBLIC	??_C@_0BF@FLONAFMM@BUTTONPOPUP_MODDER_0?$AA@	; `string'
PUBLIC	??_C@_0CG@ECCMBHGH@BUTTONPOPUP_CHOOSE_FAITH_GREAT_P@ ; `string'
PUBLIC	??_C@_0BO@EKDFIDFF@BUTTONPOPUP_CHOOSE_MAYA_BONUS?$AA@ ; `string'
PUBLIC	??_C@_0CB@ECABKNGF@BUTTONPOPUP_CHOOSE_TECH_TO_STEAL@ ; `string'
PUBLIC	??_C@_0BO@DKMAPDHI@BUTTONPOPUP_RELIGION_OVERVIEW?$AA@ ; `string'
PUBLIC	??_C@_0BP@IKHDPEBO@BUTTONPOPUP_ESPIONAGE_OVERVIEW?$AA@ ; `string'
PUBLIC	??_C@_0BL@CEOEGLCJ@BUTTONPOPUP_FOUND_RELIGION?$AA@ ; `string'
PUBLIC	??_C@_0BL@GOAJGFFA@BUTTONPOPUP_FOUND_PANTHEON?$AA@ ; `string'
PUBLIC	??_C@_0CF@JOEIIFOG@BUTTONPOPUP_CHOOSE_FREE_GREAT_PE@ ; `string'
PUBLIC	??_C@_0BI@PGLKKJ@BUTTONPOPUP_RENAME_UNIT?$AA@	; `string'
PUBLIC	??_C@_0BI@NDNBKOFM@BUTTONPOPUP_RENAME_CITY?$AA@	; `string'
PUBLIC	??_C@_0BK@MEIGKBIE@BUTTONPOPUP_ADVISOR_MODAL?$AA@ ; `string'
PUBLIC	??_C@_0BM@IDIJFGIB@BUTTONPOPUP_ADVISOR_COUNSEL?$AA@ ; `string'
PUBLIC	??_C@_0BJ@EILKAJAH@BUTTONPOPUP_ADVISOR_INFO?$AA@ ; `string'
PUBLIC	??_C@_0CL@BLOLPHPG@BUTTONPOPUP_WONDER_COMPLETED_ACT@ ; `string'
PUBLIC	??_C@_0BH@LIEAGKHD@BUTTONPOPUP_TECH_AWARD?$AA@	; `string'
PUBLIC	??_C@_0BG@BBCKDNDE@BUTTONPOPUP_TECH_TREE?$AA@	; `string'
PUBLIC	??_C@_0BJ@JAPBHJFK@BUTTONPOPUP_VOTE_RESULTS?$AA@ ; `string'
PUBLIC	??_C@_0BH@IDKGNCCN@BUTTONPOPUP_DIPLO_VOTE?$AA@	; `string'
PUBLIC	??_C@_0CB@KKCBKOKI@BUTTONPOPUP_CITY_PLOT_MANAGEMENT@ ; `string'
PUBLIC	??_C@_0BN@KNPIDDAB@BUTTONPOPUP_CITY_STATE_DIPLO?$AA@ ; `string'
PUBLIC	??_C@_0BP@CAEKJDL@BUTTONPOPUP_CITY_STATE_MESSAGE?$AA@ ; `string'
PUBLIC	??_C@_0CA@HIGKEOLB@BUTTONPOPUP_CITY_STATE_GREETING?$AA@ ; `string'
PUBLIC	??_C@_0CA@NOLDCOKC@BUTTONPOPUP_GREAT_PERSON_REWARD?$AA@ ; `string'
PUBLIC	??_C@_0BO@LPKGINOP@BUTTONPOPUP_GOLDEN_AGE_REWARD?$AA@ ; `string'
PUBLIC	??_C@_0CC@JNOELBGI@BUTTONPOPUP_BARBARIAN_CAMP_REWAR@ ; `string'
PUBLIC	??_C@_0BN@GMDADMEA@BUTTONPOPUP_GOODY_HUT_REWARD?$AA@ ; `string'
PUBLIC	??_C@_0CC@FIMFJAHL@BUTTONPOPUP_NATURAL_WONDER_REWAR@ ; `string'
PUBLIC	??_C@_0BE@HJLOFAMH@BUTTONPOPUP_NEW_ERA?$AA@	; `string'
PUBLIC	??_C@_0BJ@LBGBCJHH@BUTTONPOPUP_WHOS_WINNING?$AA@ ; `string'
PUBLIC	??_C@_0CJ@JMOLBNEE@BUTTONPOPUP_CONFIRM_POLICY_BRANC@ ; `string'
PUBLIC	??_C@_0BM@LIKGFMAD@BUTTONPOPUP_RETURN_CIVILIAN?$AA@ ; `string'
PUBLIC	??_C@_0BJ@EDNABFIK@BUTTONPOPUP_GIFT_CONFIRM?$AA@ ; `string'
PUBLIC	??_C@_0BM@OFCEBKNI@BUTTONPOPUP_MINOR_CIVS_LIST?$AA@ ; `string'
PUBLIC	??_C@_0BJ@LNNNALNP@BUTTONPOPUP_VICTORY_INFO?$AA@ ; `string'
PUBLIC	??_C@_0BJ@LPAAEIAN@BUTTONPOPUP_DEMOGRAPHICS?$AA@ ; `string'
PUBLIC	??_C@_0CA@BCGCKCPJ@BUTTONPOPUP_DIPLOMATIC_OVERVIEW?$AA@ ; `string'
PUBLIC	??_C@_0BO@CCKOJENJ@BUTTONPOPUP_MILITARY_OVERVIEW?$AA@ ; `string'
PUBLIC	??_C@_0BO@DHPJDFKD@BUTTONPOPUP_ECONOMIC_OVERVIEW?$AA@ ; `string'
PUBLIC	??_C@_0BN@HGAPKJMP@BUTTONPOPUP_NOTIFICATION_LOG?$AA@ ; `string'
PUBLIC	??_C@_0BN@LKCGPOBF@BUTTONPOPUP_TEMP_SPECIALISTS?$AA@ ; `string'
PUBLIC	??_C@_0CG@BCBGAMFG@BUTTONPOPUP_MINOR_CIV_ENTER_TERR@ ; `string'
PUBLIC	??_C@_0BN@JHHBGBON@BUTTONPOPUP_BARBARIAN_RANSOM?$AA@ ; `string'
PUBLIC	??_C@_0CH@OJFKEHGM@BUTTONPOPUP_MINOR_CIV_GREETING_A@ ; `string'
PUBLIC	??_C@_0CA@NLIDPNFO@BUTTONPOPUP_MINOR_CIV_INTRUSION?$AA@ ; `string'
PUBLIC	??_C@_0CG@LEPMECFE@BUTTONPOPUP_MINOR_CIV_QUEST_COMP@ ; `string'
PUBLIC	??_C@_0BM@DPKIFLJH@BUTTONPOPUP_MINOR_CIV_QUEST?$AA@ ; `string'
PUBLIC	??_C@_0BH@ECMBPCBN@BUTTONPOPUP_MINOR_GOLD?$AA@	; `string'
PUBLIC	??_C@_0BD@EJPIKEMD@BUTTONPOPUP_LAUNCH?$AA@	; `string'
PUBLIC	??_C@_0BI@BGBMOMDA@BUTTONPOPUP_FREE_COLONY?$AA@	; `string'
PUBLIC	??_C@_0BD@BAEKLJIO@BUTTONPOPUP_KICKED?$AA@	; `string'
PUBLIC	??_C@_0BP@MNFKGCIO@BUTTONPOPUP_PITBOSS_DISCONNECT?$AA@ ; `string'
PUBLIC	??_C@_0BO@HFCFKNBG@BUTTONPOPUP_FORCED_DISCONNECT?$AA@ ; `string'
PUBLIC	??_C@_0BF@IHDEAKCN@BUTTONPOPUP_ADDBUDDY?$AA@	; `string'
PUBLIC	??_C@_0BG@BILLHDOF@BUTTONPOPUP_DIPLOMACY?$AA@	; `string'
PUBLIC	??_C@_0BK@MHHMADCL@BUTTONPOPUP_EXTENDED_GAME?$AA@ ; `string'
PUBLIC	??_C@_0BL@LKBDGADD@BUTTONPOPUP_ADMIN_PASSWORD?$AA@ ; `string'
PUBLIC	??_C@_0BC@LINGMMFC@BUTTONPOPUP_ADMIN?$AA@	; `string'
PUBLIC	??_C@_0BE@JFKAFGFD@BUTTONPOPUP_DETAILS?$AA@	; `string'
PUBLIC	??_C@_0BK@LIBAGOJN@BUTTONPOPUP_PYTHON_SCREEN?$AA@ ; `string'
PUBLIC	??_C@_0BD@EBEIPKAB@BUTTONPOPUP_PYTHON?$AA@	; `string'
PUBLIC	??_C@_0BK@CBCPHPJP@BUTTONPOPUP_DEAL_CANCELED?$AA@ ; `string'
PUBLIC	??_C@_0BC@PJCOCHHJ@BUTTONPOPUP_ALARM?$AA@	; `string'
PUBLIC	??_C@_0BG@BAEKEKON@BUTTONPOPUP_DIPLOVOTE?$AA@	; `string'
PUBLIC	??_C@_0BL@BELPIMOM@BUTTONPOPUP_CHOOSEELECTION?$AA@ ; `string'
PUBLIC	??_C@_0BP@OADEEEI@BUTTONPOPUP_CHOOSECITYPURCHASE?$AA@ ; `string'
PUBLIC	??_C@_0BJ@LPKELEEL@BUTTONPOPUP_CHOOSEPOLICY?$AA@ ; `string'
PUBLIC	??_C@_0BN@PHNPCDIP@BUTTONPOPUP_CHOOSEPRODUCTION?$AA@ ; `string'
PUBLIC	??_C@_0BI@ONIKPBPH@BUTTONPOPUP_DISBANDCITY?$AA@	; `string'
PUBLIC	??_C@_0BL@GMGIAJM@BUTTONPOPUP_LIBERATE_MINOR?$AA@ ; `string'
PUBLIC	??_C@_0BH@KCAFFPON@BUTTONPOPUP_ANNEX_CITY?$AA@	; `string'
PUBLIC	??_C@_0BK@GMFGPMFP@BUTTONPOPUP_CITY_CAPTURED?$AA@ ; `string'
PUBLIC	??_C@_0BH@DCAIJCI@BUTTONPOPUP_CHOOSETECH?$AA@	; `string'
PUBLIC	??_C@_0BF@OMHLCMCE@BUTTONPOPUP_LEADUNIT?$AA@	; `string'
PUBLIC	??_C@_0BF@HNLLDAOM@BUTTONPOPUP_LOADUNIT?$AA@	; `string'
PUBLIC	??_C@_0BJ@KBDIDDNB@BUTTONPOPUP_GREAT_PERSON?$AA@ ; `string'
PUBLIC	??_C@_0CI@FGOHLHGH@BUTTONPOPUP_CONFIRM_IMPROVEMENT_@ ; `string'
PUBLIC	??_C@_0BO@FAMGOKKO@BUTTONPOPUP_CONFIRM_CITY_TASK?$AA@ ; `string'
PUBLIC	??_C@_0BL@BHINBCMN@BUTTONPOPUP_CONFIRMCOMMAND?$AA@ ; `string'
PUBLIC	??_C@_0CC@MCHOJDL@BUTTONPOPUP_DECLAREWARRANGESTRIK@ ; `string'
PUBLIC	??_C@_0BL@EDAEEMHG@BUTTONPOPUP_DECLAREWARMOVE?$AA@ ; `string'
PUBLIC	??_C@_0BJ@GPDDOMNB@BUTTONPOPUP_CONFIRM_MENU?$AA@ ; `string'
PUBLIC	??_C@_0BG@IDMEIIIN@BUTTONPOPUP_MAIN_MENU?$AA@	; `string'
PUBLIC	??_C@_0BB@PDAEDLA@BUTTONPOPUP_TEXT?$AA@		; `string'
PUBLIC	??_C@_0BB@GPJDODHM@ButtonPopupTypes?$AA@	; `string'
PUBLIC	??_C@_0BG@CJCIFOLM@NUM_CITY_UPDATE_TYPES?$AA@	; `string'
PUBLIC	??_C@_0BK@LFDBKICK@CITY_UPDATE_TYPE_GARRISON?$AA@ ; `string'
PUBLIC	??_C@_0CA@JBAAJFMP@CITY_UPDATE_TYPE_ENEMY_IN_RANGE?$AA@ ; `string'
PUBLIC	??_C@_0BM@CHBKOGJH@CITY_UPDATE_TYPE_PRODUCTION?$AA@ ; `string'
PUBLIC	??_C@_0BN@PLBLPPJN@CITY_UPDATE_TYPE_SPECIALISTS?$AA@ ; `string'
PUBLIC	??_C@_0BI@HCAGIMCC@CITY_UPDATE_TYPE_BANNER?$AA@	; `string'
PUBLIC	??_C@_0BE@MMAKANNM@NO_CITY_UPDATE_TYPE?$AA@	; `string'
PUBLIC	??_C@_0BA@JEIKBHAL@CityUpdateTypes?$AA@		; `string'
PUBLIC	?EnumEnd@CvLuaEnums@@KAXPAUlua_State@@@Z	; CvLuaEnums::EnumEnd
PUBLIC	??_C@_0BJ@EOIEFKBC@NUM_INTERFACE_DIRTY_BITS?$AA@ ; `string'
PUBLIC	??_C@_0BD@GJKMDAGO@PlotData_DIRTY_BIT?$AA@	; `string'
PUBLIC	??_C@_0BD@JGPCOJMB@Policies_DIRTY_BIT?$AA@	; `string'
PUBLIC	??_C@_0BK@DJPLEJFI@NationalBorders_DIRTY_BIT?$AA@ ; `string'
PUBLIC	??_C@_0BJ@EMDECJDK@Advanced_Start_DIRTY_BIT?$AA@ ; `string'
PUBLIC	??_C@_0BL@HPFKFGPK@Domestic_Advisor_DIRTY_BIT?$AA@ ; `string'
PUBLIC	??_C@_0BF@GONILP@Soundtrack_DIRTY_BIT?$AA@	; `string'
PUBLIC	??_C@_0BJ@CHEIMALI@Foreign_Screen_DIRTY_BIT?$AA@ ; `string'
PUBLIC	??_C@_0BL@EONICADH@Financial_Screen_DIRTY_BIT?$AA@ ; `string'
PUBLIC	??_C@_0BJ@FBNMLJIM@BlockadedPlots_DIRTY_BIT?$AA@ ; `string'
PUBLIC	??_C@_0BH@JLJKCOMG@ColoredPlots_DIRTY_BIT?$AA@	; `string'
PUBLIC	??_C@_0BI@GNOBLMJJ@HighlightPlot_DIRTY_BIT?$AA@	; `string'
PUBLIC	??_C@_0BD@DPHDGNGL@InfoPane_DIRTY_BIT?$AA@	; `string'
PUBLIC	??_C@_0BF@PEJCLHFD@CityScreen_DIRTY_BIT?$AA@	; `string'
PUBLIC	??_C@_0BA@GLKJLKGB@Popup_DIRTY_BIT?$AA@		; `string'
PUBLIC	??_C@_0BD@GCDGGHCK@UnitInfo_DIRTY_BIT?$AA@	; `string'
PUBLIC	??_C@_0BD@BCDCFGB@CityInfo_DIRTY_BIT?$AA@	; `string'
PUBLIC	??_C@_0BB@ILCJAOGJ@Cursor_DIRTY_BIT?$AA@	; `string'
PUBLIC	??_C@_0BJ@HIKIDAJO@SelectionSound_DIRTY_BIT?$AA@ ; `string'
PUBLIC	??_C@_0BJ@MLGMJEHL@MinimapSection_DIRTY_BIT?$AA@ ; `string'
PUBLIC	??_C@_0P@FKNPPFAA@Help_DIRTY_BIT?$AA@		; `string'
PUBLIC	??_C@_0BE@NEJCBKAL@TurnTimer_DIRTY_BIT?$AA@	; `string'
PUBLIC	??_C@_0BA@NOHKLDFJ@Score_DIRTY_BIT?$AA@		; `string'
PUBLIC	??_C@_0BD@FPAIHAAM@GameData_DIRTY_BIT?$AA@	; `string'
PUBLIC	??_C@_0BB@DDALMKLK@Center_DIRTY_BIT?$AA@	; `string'
PUBLIC	??_C@_0BA@HHBOKBMO@Event_DIRTY_BIT?$AA@		; `string'
PUBLIC	??_C@_0BK@HMKLFLIB@ResearchButtons_DIRTY_BIT?$AA@ ; `string'
PUBLIC	??_C@_0BJ@PBKNOENG@CitizenButtons_DIRTY_BIT?$AA@ ; `string'
PUBLIC	??_C@_0BL@GJLKEEMC@SelectionButtons_DIRTY_BIT?$AA@ ; `string'
PUBLIC	??_C@_0BK@MCBAPICB@PlotListButtons_DIRTY_BIT?$AA@ ; `string'
PUBLIC	??_C@_0BG@EKCCODB@MiscButtons_DIRTY_BIT?$AA@	; `string'
PUBLIC	??_C@_0BJ@GFBGMDE@PercentButtons_DIRTY_BIT?$AA@	; `string'
PUBLIC	??_C@_0BE@PCFALBJ@Waypoints_DIRTY_BIT?$AA@	; `string'
PUBLIC	??_C@_0O@CNIKANGE@Fog_DIRTY_BIT?$AA@		; `string'
PUBLIC	?pRegisterEnum@CvLuaEnums@@KAXPAUlua_State@@PBDH@Z ; CvLuaEnums::pRegisterEnum
PUBLIC	??_C@_0BK@KPDAGOBF@SelectionCamera_DIRTY_BIT?$AA@ ; `string'
PUBLIC	?EnumStart@CvLuaEnums@@KAXPAUlua_State@@PBD@Z	; CvLuaEnums::EnumStart
PUBLIC	??_C@_0BD@OFAIPLIK@InterfaceDirtyBits?$AA@	; `string'
EXTRN	?Calc@FCRC@@QBEKPBXHK@Z:PROC			; FCRC::Calc
EXTRN	?g_CRC32@@3VFCRC@@A:BYTE			; g_CRC32
EXTRN	?GetTypeName@CvNotificationEntry@@QAEPBDXZ:PROC	; CvNotificationEntry::GetTypeName
EXTRN	?GetEntry@CvNotificationXMLEntries@@QAEPAVCvNotificationEntry@@H@Z:PROC ; CvNotificationXMLEntries::GetEntry
EXTRN	?GetNumNotifications@CvNotificationXMLEntries@@QAEHXZ:PROC ; CvNotificationXMLEntries::GetNumNotifications
EXTRN	?GetNotificationEntries@CvGlobals@@QAEPAVCvNotificationXMLEntries@@XZ:PROC ; CvGlobals::GetNotificationEntries
EXTRN	?gGlobals@@3VCvGlobals@@A:BYTE			; gGlobals
;	COMDAT ??_C@_0BF@KGJECBIL@CONTROL_RESTART_GAME?$AA@
; File d:\sources\lekmod_git\checkout\lekmod_dll\fireplace\include\fireworks\fstringa.inl
CONST	SEGMENT
??_C@_0BF@KGJECBIL@CONTROL_RESTART_GAME?$AA@ DB 'CONTROL_RESTART_GAME', 00H ; `string'
CONST	ENDS
;	COMDAT ??_C@_0BK@PLGIMBCB@CONTROL_RELIGION_OVERVIEW?$AA@
CONST	SEGMENT
??_C@_0BK@PLGIMBCB@CONTROL_RELIGION_OVERVIEW?$AA@ DB 'CONTROL_RELIGION_OV'
	DB	'ERVIEW', 00H				; `string'
CONST	ENDS
;	COMDAT ??_C@_0BL@JIAFLFHM@CONTROL_ESPIONAGE_OVERVIEW?$AA@
CONST	SEGMENT
??_C@_0BL@JIAFLFHM@CONTROL_ESPIONAGE_OVERVIEW?$AA@ DB 'CONTROL_ESPIONAGE_'
	DB	'OVERVIEW', 00H				; `string'
CONST	ENDS
;	COMDAT ??_C@_0BI@KAFLOOPC@CONTROL_ADVISOR_COUNSEL?$AA@
CONST	SEGMENT
??_C@_0BI@KAFLOOPC@CONTROL_ADVISOR_COUNSEL?$AA@ DB 'CONTROL_ADVISOR_COUNS'
	DB	'EL', 00H					; `string'
CONST	ENDS
;	COMDAT ??_C@_0BO@KEKBNJDB@CONTROL_TOGGLE_STRATEGIC_VIEW?$AA@
CONST	SEGMENT
??_C@_0BO@KEKBNJDB@CONTROL_TOGGLE_STRATEGIC_VIEW?$AA@ DB 'CONTROL_TOGGLE_'
	DB	'STRATEGIC_VIEW', 00H			; `string'
CONST	ENDS
;	COMDAT ??_C@_0BH@NPNMKDLB@CONTROL_SELECT_HEALTHY?$AA@
CONST	SEGMENT
??_C@_0BH@NPNMKDLB@CONTROL_SELECT_HEALTHY?$AA@ DB 'CONTROL_SELECT_HEALTHY'
	DB	00H						; `string'
CONST	ENDS
;	COMDAT ??_C@_0N@HJEONDFC@CONTROL_INFO?$AA@
CONST	SEGMENT
??_C@_0N@HJEONDFC@CONTROL_INFO?$AA@ DB 'CONTROL_INFO', 00H ; `string'
CONST	ENDS
;	COMDAT ??_C@_0BH@HOLFNKK@CONTROL_VICTORY_SCREEN?$AA@
CONST	SEGMENT
??_C@_0BH@HOLFNKK@CONTROL_VICTORY_SCREEN?$AA@ DB 'CONTROL_VICTORY_SCREEN', 00H ; `string'
CONST	ENDS
;	COMDAT ??_C@_0BI@BDBKIAIP@CONTROL_DOMESTIC_SCREEN?$AA@
CONST	SEGMENT
??_C@_0BI@BDBKIAIP@CONTROL_DOMESTIC_SCREEN?$AA@ DB 'CONTROL_DOMESTIC_SCRE'
	DB	'EN', 00H					; `string'
CONST	ENDS
;	COMDAT ??_C@_0BB@CCAEKINA@CONTROL_TURN_LOG?$AA@
CONST	SEGMENT
??_C@_0BB@CCAEKINA@CONTROL_TURN_LOG?$AA@ DB 'CONTROL_TURN_LOG', 00H ; `string'
CONST	ENDS
;	COMDAT ??_C@_0BF@CDFOAGHH@CONTROL_TECH_CHOOSER?$AA@
CONST	SEGMENT
??_C@_0BF@CDFOAGHH@CONTROL_TECH_CHOOSER?$AA@ DB 'CONTROL_TECH_CHOOSER', 00H ; `string'
CONST	ENDS
;	COMDAT ??_C@_0BI@KGLHDBNI@CONTROL_MILITARY_SCREEN?$AA@
CONST	SEGMENT
??_C@_0BI@KGLHDBNI@CONTROL_MILITARY_SCREEN?$AA@ DB 'CONTROL_MILITARY_SCRE'
	DB	'EN', 00H					; `string'
CONST	ENDS
;	COMDAT ??_C@_0BH@KEPEPIMI@CONTROL_FOREIGN_SCREEN?$AA@
CONST	SEGMENT
??_C@_0BH@KEPEPIMI@CONTROL_FOREIGN_SCREEN?$AA@ DB 'CONTROL_FOREIGN_SCREEN'
	DB	00H						; `string'
CONST	ENDS
;	COMDAT ??_C@_0BI@PJDPGMNE@CONTROL_POLICIES_SCREEN?$AA@
CONST	SEGMENT
??_C@_0BI@PJDPGMNE@CONTROL_POLICIES_SCREEN?$AA@ DB 'CONTROL_POLICIES_SCRE'
	DB	'EN', 00H					; `string'
CONST	ENDS
;	COMDAT ??_C@_0BE@JEBPJADM@CONTROL_CIVILOPEDIA?$AA@
CONST	SEGMENT
??_C@_0BE@JEBPJADM@CONTROL_CIVILOPEDIA?$AA@ DB 'CONTROL_CIVILOPEDIA', 00H ; `string'
CONST	ENDS
;	COMDAT ??_C@_0BD@OMHIFONP@CONTROL_QUICK_LOAD?$AA@
CONST	SEGMENT
??_C@_0BD@OMHIFONP@CONTROL_QUICK_LOAD?$AA@ DB 'CONTROL_QUICK_LOAD', 00H ; `string'
CONST	ENDS
;	COMDAT ??_C@_0BD@OOGFKNAL@CONTROL_QUICK_SAVE?$AA@
CONST	SEGMENT
??_C@_0BD@OOGFKNAL@CONTROL_QUICK_SAVE?$AA@ DB 'CONTROL_QUICK_SAVE', 00H ; `string'
CONST	ENDS
;	COMDAT ??_C@_0BE@HGEGMJEO@CONTROL_SAVE_NORMAL?$AA@
CONST	SEGMENT
??_C@_0BE@HGEGMJEO@CONTROL_SAVE_NORMAL?$AA@ DB 'CONTROL_SAVE_NORMAL', 00H ; `string'
CONST	ENDS
;	COMDAT ??_C@_0BD@LJACIPJK@CONTROL_SAVE_GROUP?$AA@
CONST	SEGMENT
??_C@_0BD@LJACIPJK@CONTROL_SAVE_GROUP?$AA@ DB 'CONTROL_SAVE_GROUP', 00H ; `string'
CONST	ENDS
;	COMDAT ??_C@_0P@EFDECHKB@CONTROL_RETIRE?$AA@
CONST	SEGMENT
??_C@_0P@EFDECHKB@CONTROL_RETIRE?$AA@ DB 'CONTROL_RETIRE', 00H ; `string'
CONST	ENDS
;	COMDAT ??_C@_0BH@OGALBMO@CONTROL_OPTIONS_SCREEN?$AA@
CONST	SEGMENT
??_C@_0BH@OGALBMO@CONTROL_OPTIONS_SCREEN?$AA@ DB 'CONTROL_OPTIONS_SCREEN', 00H ; `string'
CONST	ENDS
;	COMDAT ??_C@_0BC@MKLEMOLN@CONTROL_LOAD_GAME?$AA@
CONST	SEGMENT
??_C@_0BC@MKLEMOLN@CONTROL_LOAD_GAME?$AA@ DB 'CONTROL_LOAD_GAME', 00H ; `string'
CONST	ENDS
;	COMDAT ??_C@_0P@KAMDLJCH@CONTROL_SCORES?$AA@
CONST	SEGMENT
??_C@_0P@KAMDLJCH@CONTROL_SCORES?$AA@ DB 'CONTROL_SCORES', 00H ; `string'
CONST	ENDS
;	COMDAT ??_C@_0BD@DPAAGCFB@CONTROL_UNIT_ICONS?$AA@
CONST	SEGMENT
??_C@_0BD@DPAAGCFB@CONTROL_UNIT_ICONS?$AA@ DB 'CONTROL_UNIT_ICONS', 00H ; `string'
CONST	ENDS
;	COMDAT ??_C@_0BF@IFCMGGJ@CONTROL_RESOURCE_ALL?$AA@
CONST	SEGMENT
??_C@_0BF@IFCMGGJ@CONTROL_RESOURCE_ALL?$AA@ DB 'CONTROL_RESOURCE_ALL', 00H ; `string'
CONST	ENDS
;	COMDAT ??_C@_0P@FOJMJHDF@CONTROL_YIELDS?$AA@
CONST	SEGMENT
??_C@_0P@FOJMJHDF@CONTROL_YIELDS?$AA@ DB 'CONTROL_YIELDS', 00H ; `string'
CONST	ENDS
;	COMDAT ??_C@_0N@EPKDMFKI@CONTROL_PING?$AA@
CONST	SEGMENT
??_C@_0N@EPKDMFKI@CONTROL_PING?$AA@ DB 'CONTROL_PING', 00H ; `string'
CONST	ENDS
;	COMDAT ??_C@_0BC@JBNDIFEP@CONTROL_AUTOMOVES?$AA@
CONST	SEGMENT
??_C@_0BC@JBNDIFEP@CONTROL_AUTOMOVES?$AA@ DB 'CONTROL_AUTOMOVES', 00H ; `string'
CONST	ENDS
;	COMDAT ??_C@_0BF@LBHJAIAN@CONTROL_FORCEENDTURN?$AA@
CONST	SEGMENT
??_C@_0BF@LBHJAIAN@CONTROL_FORCEENDTURN?$AA@ DB 'CONTROL_FORCEENDTURN', 00H ; `string'
CONST	ENDS
;	COMDAT ??_C@_0BE@FMBMDLKH@CONTROL_ENDTURN_ALT?$AA@
CONST	SEGMENT
??_C@_0BE@FMBMDLKH@CONTROL_ENDTURN_ALT?$AA@ DB 'CONTROL_ENDTURN_ALT', 00H ; `string'
CONST	ENDS
;	COMDAT ??_C@_0BA@KEAPHFPO@CONTROL_ENDTURN?$AA@
CONST	SEGMENT
??_C@_0BA@KEAPHFPO@CONTROL_ENDTURN?$AA@ DB 'CONTROL_ENDTURN', 00H ; `string'
CONST	ENDS
;	COMDAT ??_C@_0BB@EMAMLACL@CONTROL_LASTUNIT?$AA@
CONST	SEGMENT
??_C@_0BB@EMAMLACL@CONTROL_LASTUNIT?$AA@ DB 'CONTROL_LASTUNIT', 00H ; `string'
CONST	ENDS
;	COMDAT ??_C@_0BE@OKFBMBOK@CONTROL_CYCLEWORKER?$AA@
CONST	SEGMENT
??_C@_0BE@OKFBMBOK@CONTROL_CYCLEWORKER?$AA@ DB 'CONTROL_CYCLEWORKER', 00H ; `string'
CONST	ENDS
;	COMDAT ??_C@_0BG@PCFMMINF@CONTROL_CYCLEUNIT_ALT?$AA@
CONST	SEGMENT
??_C@_0BG@PCFMMINF@CONTROL_CYCLEUNIT_ALT?$AA@ DB 'CONTROL_CYCLEUNIT_ALT', 00H ; `string'
CONST	ENDS
;	COMDAT ??_C@_0BC@CBHBJJFE@CONTROL_CYCLEUNIT?$AA@
CONST	SEGMENT
??_C@_0BC@CBHBJJFE@CONTROL_CYCLEUNIT?$AA@ DB 'CONTROL_CYCLEUNIT', 00H ; `string'
CONST	ENDS
;	COMDAT ??_C@_0BB@LNAKDPHJ@CONTROL_PREVUNIT?$AA@
CONST	SEGMENT
??_C@_0BB@LNAKDPHJ@CONTROL_PREVUNIT?$AA@ DB 'CONTROL_PREVUNIT', 00H ; `string'
CONST	ENDS
;	COMDAT ??_C@_0BB@OELHMCKN@CONTROL_NEXTUNIT?$AA@
CONST	SEGMENT
??_C@_0BB@OELHMCKN@CONTROL_NEXTUNIT?$AA@ DB 'CONTROL_NEXTUNIT', 00H ; `string'
CONST	ENDS
;	COMDAT ??_C@_0BB@GOCNCLIM@CONTROL_PREVCITY?$AA@
CONST	SEGMENT
??_C@_0BB@GOCNCLIM@CONTROL_PREVCITY?$AA@ DB 'CONTROL_PREVCITY', 00H ; `string'
CONST	ENDS
;	COMDAT ??_C@_0BB@DHJANGFI@CONTROL_NEXTCITY?$AA@
CONST	SEGMENT
??_C@_0BB@DHJANGFI@CONTROL_NEXTCITY?$AA@ DB 'CONTROL_NEXTCITY', 00H ; `string'
CONST	ENDS
;	COMDAT ??_C@_0BG@JIDAPJEN@CONTROL_SELECTCAPITAL?$AA@
CONST	SEGMENT
??_C@_0BG@JIDAPJEN@CONTROL_SELECTCAPITAL?$AA@ DB 'CONTROL_SELECTCAPITAL', 00H ; `string'
CONST	ENDS
;	COMDAT ??_C@_0BD@ENAFBBA@CONTROL_SELECTCITY?$AA@
CONST	SEGMENT
??_C@_0BD@ENAFBBA@CONTROL_SELECTCITY?$AA@ DB 'CONTROL_SELECTCITY', 00H ; `string'
CONST	ENDS
;	COMDAT ??_C@_0BH@KCMHBNHA@CONTROL_SELECTYUNITALL?$AA@
CONST	SEGMENT
??_C@_0BH@KCMHBNHA@CONTROL_SELECTYUNITALL?$AA@ DB 'CONTROL_SELECTYUNITALL'
	DB	00H						; `string'
CONST	ENDS
;	COMDAT ??_C@_0BI@HFCOICK@CONTROL_SELECTYUNITTYPE?$AA@
CONST	SEGMENT
??_C@_0BI@HFCOICK@CONTROL_SELECTYUNITTYPE?$AA@ DB 'CONTROL_SELECTYUNITTYP'
	DB	'E', 00H					; `string'
CONST	ENDS
;	COMDAT ??_C@_0BK@PBEBNHEP@CONTROL_CENTERONSELECTION?$AA@
CONST	SEGMENT
??_C@_0BK@PBEBNHEP@CONTROL_CENTERONSELECTION?$AA@ DB 'CONTROL_CENTERONSEL'
	DB	'ECTION', 00H				; `string'
CONST	ENDS
;	COMDAT ??_C@_0L@HJICGBCE@NO_CONTROL?$AA@
CONST	SEGMENT
??_C@_0L@HJICGBCE@NO_CONTROL?$AA@ DB 'NO_CONTROL', 00H	; `string'
CONST	ENDS
;	COMDAT ??_C@_0N@IOGOBLFF@ControlTypes?$AA@
CONST	SEGMENT
??_C@_0N@IOGOBLFF@ControlTypes?$AA@ DB 'ControlTypes', 00H ; `string'
CONST	ENDS
;	COMDAT ??_C@_0CC@JHDCGLKF@PUBLIC_OPINION_REVOLUTIONARY_WAV@
CONST	SEGMENT
??_C@_0CC@JHDCGLKF@PUBLIC_OPINION_REVOLUTIONARY_WAV@ DB 'PUBLIC_OPINION_R'
	DB	'EVOLUTIONARY_WAVE', 00H			; `string'
CONST	ENDS
;	COMDAT ??_C@_0CA@JDDKBNPF@PUBLIC_OPINION_CIVIL_RESISTANCE?$AA@
CONST	SEGMENT
??_C@_0CA@JDDKBNPF@PUBLIC_OPINION_CIVIL_RESISTANCE?$AA@ DB 'PUBLIC_OPINIO'
	DB	'N_CIVIL_RESISTANCE', 00H			; `string'
CONST	ENDS
;	COMDAT ??_C@_0BK@PBFIAENE@PUBLIC_OPINION_DISSIDENTS?$AA@
CONST	SEGMENT
??_C@_0BK@PBFIAENE@PUBLIC_OPINION_DISSIDENTS?$AA@ DB 'PUBLIC_OPINION_DISS'
	DB	'IDENTS', 00H				; `string'
CONST	ENDS
;	COMDAT ??_C@_0BH@LOALHDOD@PUBLIC_OPINION_CONTENT?$AA@
CONST	SEGMENT
??_C@_0BH@LOALHDOD@PUBLIC_OPINION_CONTENT?$AA@ DB 'PUBLIC_OPINION_CONTENT'
	DB	00H						; `string'
CONST	ENDS
;	COMDAT ??_C@_0BC@LJAFBKKC@NO_PUBLIC_OPINION?$AA@
CONST	SEGMENT
??_C@_0BC@LJAFBKKC@NO_PUBLIC_OPINION?$AA@ DB 'NO_PUBLIC_OPINION', 00H ; `string'
CONST	ENDS
;	COMDAT ??_C@_0BD@JBALNFJM@PublicOpinionTypes?$AA@
CONST	SEGMENT
??_C@_0BD@JBALNFJM@PublicOpinionTypes?$AA@ DB 'PublicOpinionTypes', 00H ; `string'
CONST	ENDS
;	COMDAT ??_C@_0BH@KKNIBPCJ@INFLUENCE_TREND_RISING?$AA@
CONST	SEGMENT
??_C@_0BH@KKNIBPCJ@INFLUENCE_TREND_RISING?$AA@ DB 'INFLUENCE_TREND_RISING'
	DB	00H						; `string'
CONST	ENDS
;	COMDAT ??_C@_0BH@GKJHJNPJ@INFLUENCE_TREND_STATIC?$AA@
CONST	SEGMENT
??_C@_0BH@GKJHJNPJ@INFLUENCE_TREND_STATIC?$AA@ DB 'INFLUENCE_TREND_STATIC'
	DB	00H						; `string'
CONST	ENDS
;	COMDAT ??_C@_0BI@JOFINEAP@INFLUENCE_TREND_FALLING?$AA@
CONST	SEGMENT
??_C@_0BI@JOFINEAP@INFLUENCE_TREND_FALLING?$AA@ DB 'INFLUENCE_TREND_FALLI'
	DB	'NG', 00H					; `string'
CONST	ENDS
;	COMDAT ??_C@_0BE@LKMIMMAN@InfluenceLevelTrend?$AA@
CONST	SEGMENT
??_C@_0BE@LKMIMMAN@InfluenceLevelTrend?$AA@ DB 'InfluenceLevelTrend', 00H ; `string'
CONST	ENDS
;	COMDAT ??_C@_0BJ@CMKKMAFE@INFLUENCE_LEVEL_DOMINANT?$AA@
CONST	SEGMENT
??_C@_0BJ@CMKKMAFE@INFLUENCE_LEVEL_DOMINANT?$AA@ DB 'INFLUENCE_LEVEL_DOMI'
	DB	'NANT', 00H					; `string'
CONST	ENDS
;	COMDAT ??_C@_0BM@GFAMICEJ@INFLUENCE_LEVEL_INFLUENTIAL?$AA@
CONST	SEGMENT
??_C@_0BM@GFAMICEJ@INFLUENCE_LEVEL_INFLUENTIAL?$AA@ DB 'INFLUENCE_LEVEL_I'
	DB	'NFLUENTIAL', 00H				; `string'
CONST	ENDS
;	COMDAT ??_C@_0BI@LBIPILJC@INFLUENCE_LEVEL_POPULAR?$AA@
CONST	SEGMENT
??_C@_0BI@LBIPILJC@INFLUENCE_LEVEL_POPULAR?$AA@ DB 'INFLUENCE_LEVEL_POPUL'
	DB	'AR', 00H					; `string'
CONST	ENDS
;	COMDAT ??_C@_0BJ@PFKEGBNE@INFLUENCE_LEVEL_FAMILIAR?$AA@
CONST	SEGMENT
??_C@_0BJ@PFKEGBNE@INFLUENCE_LEVEL_FAMILIAR?$AA@ DB 'INFLUENCE_LEVEL_FAMI'
	DB	'LIAR', 00H					; `string'
CONST	ENDS
;	COMDAT ??_C@_0BH@EEMDMAPG@INFLUENCE_LEVEL_EXOTIC?$AA@
CONST	SEGMENT
??_C@_0BH@EEMDMAPG@INFLUENCE_LEVEL_EXOTIC?$AA@ DB 'INFLUENCE_LEVEL_EXOTIC'
	DB	00H						; `string'
CONST	ENDS
;	COMDAT ??_C@_0BI@MNFAPHPI@INFLUENCE_LEVEL_UNKNOWN?$AA@
CONST	SEGMENT
??_C@_0BI@MNFAPHPI@INFLUENCE_LEVEL_UNKNOWN?$AA@ DB 'INFLUENCE_LEVEL_UNKNO'
	DB	'WN', 00H					; `string'
CONST	ENDS
;	COMDAT ??_C@_0BD@IKBNBPIE@NO_INFLUENCE_LEVEL?$AA@
CONST	SEGMENT
??_C@_0BD@IKBNBPIE@NO_INFLUENCE_LEVEL?$AA@ DB 'NO_INFLUENCE_LEVEL', 00H ; `string'
CONST	ENDS
;	COMDAT ??_C@_0BE@KDAJDBMG@InfluenceLevelTypes?$AA@
CONST	SEGMENT
??_C@_0BE@KDAJDBMG@InfluenceLevelTypes?$AA@ DB 'InfluenceLevelTypes', 00H ; `string'
CONST	ENDS
;	COMDAT ??_C@_0BJ@DFAPAKNB@NUM_RESOLUTION_DECISIONS?$AA@
CONST	SEGMENT
??_C@_0BJ@DFAPAKNB@NUM_RESOLUTION_DECISIONS?$AA@ DB 'NUM_RESOLUTION_DECIS'
	DB	'IONS', 00H					; `string'
CONST	ENDS
;	COMDAT ??_C@_0CL@JCFMEOFK@RESOLUTION_DECISION_OTHER_MAJOR_@
CONST	SEGMENT
??_C@_0CL@JCFMEOFK@RESOLUTION_DECISION_OTHER_MAJOR_@ DB 'RESOLUTION_DECIS'
	DB	'ION_OTHER_MAJOR_CIV_MEMBER', 00H		; `string'
CONST	ENDS
;	COMDAT ??_C@_0CF@BJHHEGHD@RESOLUTION_DECISION_MAJOR_CIV_ME@
CONST	SEGMENT
??_C@_0CF@BJHHEGHD@RESOLUTION_DECISION_MAJOR_CIV_ME@ DB 'RESOLUTION_DECIS'
	DB	'ION_MAJOR_CIV_MEMBER', 00H			; `string'
CONST	ENDS
;	COMDAT ??_C@_0BL@PHGEIMFF@RESOLUTION_DECISION_REPEAL?$AA@
CONST	SEGMENT
??_C@_0BL@PHGEIMFF@RESOLUTION_DECISION_REPEAL?$AA@ DB 'RESOLUTION_DECISIO'
	DB	'N_REPEAL', 00H				; `string'
CONST	ENDS
;	COMDAT ??_C@_0CI@EENNHHLF@RESOLUTION_DECISION_ANY_LUXURY_R@
CONST	SEGMENT
??_C@_0CI@EENNHHLF@RESOLUTION_DECISION_ANY_LUXURY_R@ DB 'RESOLUTION_DECIS'
	DB	'ION_ANY_LUXURY_RESOURCE', 00H		; `string'
CONST	ENDS
;	COMDAT ??_C@_0BJ@JKEOAOAE@RESOLUTION_DECISION_CITY?$AA@
CONST	SEGMENT
??_C@_0BJ@JKEOAOAE@RESOLUTION_DECISION_CITY?$AA@ DB 'RESOLUTION_DECISION_'
	DB	'CITY', 00H					; `string'
CONST	ENDS
;	COMDAT ??_C@_0BP@DHJFFBOC@RESOLUTION_DECISION_ANY_MEMBER?$AA@
CONST	SEGMENT
??_C@_0BP@DHJFFBOC@RESOLUTION_DECISION_ANY_MEMBER?$AA@ DB 'RESOLUTION_DEC'
	DB	'ISION_ANY_MEMBER', 00H			; `string'
CONST	ENDS
;	COMDAT ??_C@_0BO@HJAOAFFJ@RESOLUTION_DECISION_YES_OR_NO?$AA@
CONST	SEGMENT
??_C@_0BO@HJAOAFFJ@RESOLUTION_DECISION_YES_OR_NO?$AA@ DB 'RESOLUTION_DECI'
	DB	'SION_YES_OR_NO', 00H			; `string'
CONST	ENDS
;	COMDAT ??_C@_0BJ@LAHDOOJC@RESOLUTION_DECISION_NONE?$AA@
CONST	SEGMENT
??_C@_0BJ@LAHDOOJC@RESOLUTION_DECISION_NONE?$AA@ DB 'RESOLUTION_DECISION_'
	DB	'NONE', 00H					; `string'
CONST	ENDS
;	COMDAT ??_C@_0BI@INFPJFGN@ResolutionDecisionTypes?$AA@
CONST	SEGMENT
??_C@_0BI@INFPJFGN@ResolutionDecisionTypes?$AA@ DB 'ResolutionDecisionTyp'
	DB	'es', 00H					; `string'
CONST	ENDS
;	COMDAT ??_C@_0BI@OKEHFOJM@FAITH_PURCHASE_BUILDING?$AA@
CONST	SEGMENT
??_C@_0BI@OKEHFOJM@FAITH_PURCHASE_BUILDING?$AA@ DB 'FAITH_PURCHASE_BUILDI'
	DB	'NG', 00H					; `string'
CONST	ENDS
;	COMDAT ??_C@_0BE@NFNADJPB@FAITH_PURCHASE_UNIT?$AA@
CONST	SEGMENT
??_C@_0BE@NFNADJPB@FAITH_PURCHASE_UNIT?$AA@ DB 'FAITH_PURCHASE_UNIT', 00H ; `string'
CONST	ENDS
;	COMDAT ??_C@_0BM@GLONHAA@FAITH_PURCHASE_SAVE_PROPHET?$AA@
CONST	SEGMENT
??_C@_0BM@GLONHAA@FAITH_PURCHASE_SAVE_PROPHET?$AA@ DB 'FAITH_PURCHASE_SAV'
	DB	'E_PROPHET', 00H				; `string'
CONST	ENDS
;	COMDAT ??_C@_0BM@KIJACOHA@NO_AUTOMATIC_FAITH_PURCHASE?$AA@
CONST	SEGMENT
??_C@_0BM@KIJACOHA@NO_AUTOMATIC_FAITH_PURCHASE?$AA@ DB 'NO_AUTOMATIC_FAIT'
	DB	'H_PURCHASE', 00H				; `string'
CONST	ENDS
;	COMDAT ??_C@_0BD@NIALIOAE@FaithPurchaseTypes?$AA@
CONST	SEGMENT
??_C@_0BD@NIALIOAE@FaithPurchaseTypes?$AA@ DB 'FaithPurchaseTypes', 00H ; `string'
CONST	ENDS
;	COMDAT ??_C@_09DGEHHHPO@NO_BELIEF?$AA@
CONST	SEGMENT
??_C@_09DGEHHHPO@NO_BELIEF?$AA@ DB 'NO_BELIEF', 00H	; `string'
CONST	ENDS
;	COMDAT ??_C@_0M@HAGLGFLJ@BeliefTypes?$AA@
CONST	SEGMENT
??_C@_0M@HAGLGFLJ@BeliefTypes?$AA@ DB 'BeliefTypes', 00H ; `string'
CONST	ENDS
;	COMDAT ??_C@_0BC@MAKCGCPP@RELIGION_PANTHEON?$AA@
CONST	SEGMENT
??_C@_0BC@MAKCGCPP@RELIGION_PANTHEON?$AA@ DB 'RELIGION_PANTHEON', 00H ; `string'
CONST	ENDS
;	COMDAT ??_C@_0M@NPABLHNK@NO_RELIGION?$AA@
CONST	SEGMENT
??_C@_0M@NPABLHNK@NO_RELIGION?$AA@ DB 'NO_RELIGION', 00H ; `string'
CONST	ENDS
;	COMDAT ??_C@_0O@KOGJIPBF@ReligionTypes?$AA@
CONST	SEGMENT
??_C@_0O@KOGJIPBF@ReligionTypes?$AA@ DB 'ReligionTypes', 00H ; `string'
CONST	ENDS
;	COMDAT ??_C@_0BC@CLOLMKMP@CHATTARGET_PLAYER?$AA@
CONST	SEGMENT
??_C@_0BC@CLOLMKMP@CHATTARGET_PLAYER?$AA@ DB 'CHATTARGET_PLAYER', 00H ; `string'
CONST	ENDS
;	COMDAT ??_C@_0BA@DFEFDJGL@CHATTARGET_TEAM?$AA@
CONST	SEGMENT
??_C@_0BA@DFEFDJGL@CHATTARGET_TEAM?$AA@ DB 'CHATTARGET_TEAM', 00H ; `string'
CONST	ENDS
;	COMDAT ??_C@_0P@CFEEEOGK@CHATTARGET_ALL?$AA@
CONST	SEGMENT
??_C@_0P@CFEEEOGK@CHATTARGET_ALL?$AA@ DB 'CHATTARGET_ALL', 00H ; `string'
CONST	ENDS
;	COMDAT ??_C@_0O@FFDOEIFB@NO_CHATTARGET?$AA@
CONST	SEGMENT
??_C@_0O@FFDOEIFB@NO_CHATTARGET?$AA@ DB 'NO_CHATTARGET', 00H ; `string'
CONST	ENDS
;	COMDAT ??_C@_0BA@FEIDIHBC@ChatTargetTypes?$AA@
CONST	SEGMENT
??_C@_0BA@FEIDIHBC@ChatTargetTypes?$AA@ DB 'ChatTargetTypes', 00H ; `string'
CONST	ENDS
;	COMDAT ??_C@_0BH@NBPMPIEL@NUM_COMBAT_PREDICTIONS?$AA@
CONST	SEGMENT
??_C@_0BH@NBPMPIEL@NUM_COMBAT_PREDICTIONS?$AA@ DB 'NUM_COMBAT_PREDICTIONS'
	DB	00H						; `string'
CONST	ENDS
;	COMDAT ??_C@_0BP@LDPDKOMH@COMBAT_PREDICTION_SMALL_DEFEAT?$AA@
CONST	SEGMENT
??_C@_0BP@LDPDKOMH@COMBAT_PREDICTION_SMALL_DEFEAT?$AA@ DB 'COMBAT_PREDICT'
	DB	'ION_SMALL_DEFEAT', 00H			; `string'
CONST	ENDS
;	COMDAT ??_C@_0BP@FEAMOMII@COMBAT_PREDICTION_MAJOR_DEFEAT?$AA@
CONST	SEGMENT
??_C@_0BP@FEAMOMII@COMBAT_PREDICTION_MAJOR_DEFEAT?$AA@ DB 'COMBAT_PREDICT'
	DB	'ION_MAJOR_DEFEAT', 00H			; `string'
CONST	ENDS
;	COMDAT ??_C@_0CA@HOOLDKIC@COMBAT_PREDICTION_SMALL_VICTORY?$AA@
CONST	SEGMENT
??_C@_0CA@HOOLDKIC@COMBAT_PREDICTION_SMALL_VICTORY?$AA@ DB 'COMBAT_PREDIC'
	DB	'TION_SMALL_VICTORY', 00H			; `string'
CONST	ENDS
;	COMDAT ??_C@_0CA@JIGPJJMB@COMBAT_PREDICTION_MAJOR_VICTORY?$AA@
CONST	SEGMENT
??_C@_0CA@JIGPJJMB@COMBAT_PREDICTION_MAJOR_VICTORY?$AA@ DB 'COMBAT_PREDIC'
	DB	'TION_MAJOR_VICTORY', 00H			; `string'
CONST	ENDS
;	COMDAT ??_C@_0CA@CEFFPCOC@COMBAT_PREDICTION_TOTAL_VICTORY?$AA@
CONST	SEGMENT
??_C@_0CA@CEFFPCOC@COMBAT_PREDICTION_TOTAL_VICTORY?$AA@ DB 'COMBAT_PREDIC'
	DB	'TION_TOTAL_VICTORY', 00H			; `string'
CONST	ENDS
;	COMDAT ??_C@_0BP@IOENFDJ@COMBAT_PREDICTION_TOTAL_DEFEAT?$AA@
CONST	SEGMENT
??_C@_0BP@IOENFDJ@COMBAT_PREDICTION_TOTAL_DEFEAT?$AA@ DB 'COMBAT_PREDICTI'
	DB	'ON_TOTAL_DEFEAT', 00H			; `string'
CONST	ENDS
;	COMDAT ??_C@_0BM@PCMGNGLI@COMBAT_PREDICTION_STALEMATE?$AA@
CONST	SEGMENT
??_C@_0BM@PCMGNGLI@COMBAT_PREDICTION_STALEMATE?$AA@ DB 'COMBAT_PREDICTION'
	DB	'_STALEMATE', 00H				; `string'
CONST	ENDS
;	COMDAT ??_C@_0BJ@CPNOHIFD@COMBAT_PREDICTION_RANGED?$AA@
CONST	SEGMENT
??_C@_0BJ@CPNOHIFD@COMBAT_PREDICTION_RANGED?$AA@ DB 'COMBAT_PREDICTION_RA'
	DB	'NGED', 00H					; `string'
CONST	ENDS
;	COMDAT ??_C@_0BF@ICOKHODD@NO_COMBAT_PREDICTION?$AA@
CONST	SEGMENT
??_C@_0BF@ICOKHODD@NO_COMBAT_PREDICTION?$AA@ DB 'NO_COMBAT_PREDICTION', 00H ; `string'
CONST	ENDS
;	COMDAT ??_C@_0BG@FBCCFCBF@CombatPredictionTypes?$AA@
CONST	SEGMENT
??_C@_0BG@FBCCFCBF@CombatPredictionTypes?$AA@ DB 'CombatPredictionTypes', 00H ; `string'
CONST	ENDS
;	COMDAT ??_C@_0BD@PGNMOFKI@GAMESTATE_EXTENDED?$AA@
CONST	SEGMENT
??_C@_0BD@PGNMOFKI@GAMESTATE_EXTENDED?$AA@ DB 'GAMESTATE_EXTENDED', 00H ; `string'
CONST	ENDS
;	COMDAT ??_C@_0P@JPNFNHEF@GAMESTATE_OVER?$AA@
CONST	SEGMENT
??_C@_0P@JPNFNHEF@GAMESTATE_OVER?$AA@ DB 'GAMESTATE_OVER', 00H ; `string'
CONST	ENDS
;	COMDAT ??_C@_0N@HGNJJAF@GAMESTATE_ON?$AA@
CONST	SEGMENT
??_C@_0N@HGNJJAF@GAMESTATE_ON?$AA@ DB 'GAMESTATE_ON', 00H ; `string'
CONST	ENDS
;	COMDAT ??_C@_0BH@EOJJHPEK@GameplayGameStateTypes?$AA@
CONST	SEGMENT
??_C@_0BH@EOJJHPEK@GameplayGameStateTypes?$AA@ DB 'GameplayGameStateTypes'
	DB	00H						; `string'
CONST	ENDS
;	COMDAT ??_C@_0BA@BLHMCJLF@NUM_GAME_STATES?$AA@
CONST	SEGMENT
??_C@_0BA@BLHMCJLF@NUM_GAME_STATES?$AA@ DB 'NUM_GAME_STATES', 00H ; `string'
CONST	ENDS
;	COMDAT ??_C@_0L@NDMGOFCM@LeaderHead?$AA@
CONST	SEGMENT
??_C@_0L@NDMGOFCM@LeaderHead?$AA@ DB 'LeaderHead', 00H	; `string'
CONST	ENDS
;	COMDAT ??_C@_08LLNOMLNP@GameLoad?$AA@
CONST	SEGMENT
??_C@_08LLNOMLNP@GameLoad?$AA@ DB 'GameLoad', 00H	; `string'
CONST	ENDS
;	COMDAT ??_C@_0N@JGJPONIO@MainGameView?$AA@
CONST	SEGMENT
??_C@_0N@JGJPONIO@MainGameView?$AA@ DB 'MainGameView', 00H ; `string'
CONST	ENDS
;	COMDAT ??_C@_08LKCADIGI@MainMenu?$AA@
CONST	SEGMENT
??_C@_08LKCADIGI@MainMenu?$AA@ DB 'MainMenu', 00H	; `string'
CONST	ENDS
;	COMDAT ??_C@_0L@OIIGBDCI@GameStates?$AA@
CONST	SEGMENT
??_C@_0L@OIIGBDCI@GameStates?$AA@ DB 'GameStates', 00H	; `string'
CONST	ENDS
;	COMDAT ??_C@_0BC@LLNOIJGI@NUM_WORLD_ANCHORS?$AA@
CONST	SEGMENT
??_C@_0BC@LLNOIJGI@NUM_WORLD_ANCHORS?$AA@ DB 'NUM_WORLD_ANCHORS', 00H ; `string'
CONST	ENDS
;	COMDAT ??_C@_0BE@FEODPKND@WORLD_ANCHOR_WORKER?$AA@
CONST	SEGMENT
??_C@_0BE@FEODPKND@WORLD_ANCHOR_WORKER?$AA@ DB 'WORLD_ANCHOR_WORKER', 00H ; `string'
CONST	ENDS
;	COMDAT ??_C@_0BF@OHLBBHMH@WORLD_ANCHOR_SETTLER?$AA@
CONST	SEGMENT
??_C@_0BF@OHLBBHMH@WORLD_ANCHOR_SETTLER?$AA@ DB 'WORLD_ANCHOR_SETTLER', 00H ; `string'
CONST	ENDS
;	COMDAT ??_C@_0BM@EDHJOEDF@WORLD_ANCHOR_NATURAL_WONDER?$AA@
CONST	SEGMENT
??_C@_0BM@EDHJOEDF@WORLD_ANCHOR_NATURAL_WONDER?$AA@ DB 'WORLD_ANCHOR_NATU'
	DB	'RAL_WONDER', 00H				; `string'
CONST	ENDS
;	COMDAT ??_C@_0BA@KOAOIMD@NO_WORLD_ANCHOR?$AA@
CONST	SEGMENT
??_C@_0BA@KOAOIMD@NO_WORLD_ANCHOR?$AA@ DB 'NO_WORLD_ANCHOR', 00H ; `string'
CONST	ENDS
;	COMDAT ??_C@_0BI@FCFEPGNF@GenericWorldAnchorTypes?$AA@
CONST	SEGMENT
??_C@_0BI@FCFEPGNF@GenericWorldAnchorTypes?$AA@ DB 'GenericWorldAnchorTyp'
	DB	'es', 00H					; `string'
CONST	ENDS
;	COMDAT ??_C@_0BC@LIFJNBFD@NUM_ADVISOR_TYPES?$AA@
CONST	SEGMENT
??_C@_0BC@LIFJNBFD@NUM_ADVISOR_TYPES?$AA@ DB 'NUM_ADVISOR_TYPES', 00H ; `string'
CONST	ENDS
;	COMDAT ??_C@_0BA@LKEMNLDL@ADVISOR_SCIENCE?$AA@
CONST	SEGMENT
??_C@_0BA@LKEMNLDL@ADVISOR_SCIENCE?$AA@ DB 'ADVISOR_SCIENCE', 00H ; `string'
CONST	ENDS
;	COMDAT ??_C@_0BA@FJIMDFPG@ADVISOR_FOREIGN?$AA@
CONST	SEGMENT
??_C@_0BA@FJIMDFPG@ADVISOR_FOREIGN?$AA@ DB 'ADVISOR_FOREIGN', 00H ; `string'
CONST	ENDS
;	COMDAT ??_C@_0BB@JDMANLEI@ADVISOR_MILITARY?$AA@
CONST	SEGMENT
??_C@_0BB@JDMANLEI@ADVISOR_MILITARY?$AA@ DB 'ADVISOR_MILITARY', 00H ; `string'
CONST	ENDS
;	COMDAT ??_C@_0BB@GIINOANM@ADVISOR_ECONOMIC?$AA@
CONST	SEGMENT
??_C@_0BB@GIINOANM@ADVISOR_ECONOMIC?$AA@ DB 'ADVISOR_ECONOMIC', 00H ; `string'
CONST	ENDS
;	COMDAT ??_C@_0BA@DLFKNPEB@NO_ADVISOR_TYPE?$AA@
CONST	SEGMENT
??_C@_0BA@DLFKNPEB@NO_ADVISOR_TYPE?$AA@ DB 'NO_ADVISOR_TYPE', 00H ; `string'
CONST	ENDS
;	COMDAT ??_C@_0N@HJFPNGBG@AdvisorTypes?$AA@
CONST	SEGMENT
??_C@_0N@HJFPNGBG@AdvisorTypes?$AA@ DB 'AdvisorTypes', 00H ; `string'
CONST	ENDS
;	COMDAT ??_C@_0BI@FCAOCOCL@NUM_CITY_AI_FOCUS_TYPES?$AA@
CONST	SEGMENT
??_C@_0BI@FCAOCOCL@NUM_CITY_AI_FOCUS_TYPES?$AA@ DB 'NUM_CITY_AI_FOCUS_TYP'
	DB	'ES', 00H					; `string'
CONST	ENDS
;	COMDAT ??_C@_0BJ@OMIPGKAI@CITY_AI_FOCUS_TYPE_FAITH?$AA@
CONST	SEGMENT
??_C@_0BJ@OMIPGKAI@CITY_AI_FOCUS_TYPE_FAITH?$AA@ DB 'CITY_AI_FOCUS_TYPE_F'
	DB	'AITH', 00H					; `string'
CONST	ENDS
;	COMDAT ??_C@_0BP@MANBONKP@CITY_AI_FOCUS_TYPE_GOLD_GROWTH?$AA@
CONST	SEGMENT
??_C@_0BP@MANBONKP@CITY_AI_FOCUS_TYPE_GOLD_GROWTH?$AA@ DB 'CITY_AI_FOCUS_'
	DB	'TYPE_GOLD_GROWTH', 00H			; `string'
CONST	ENDS
;	COMDAT ??_C@_0BP@DGAENLBD@CITY_AI_FOCUS_TYPE_PROD_GROWTH?$AA@
CONST	SEGMENT
??_C@_0BP@DGAENLBD@CITY_AI_FOCUS_TYPE_PROD_GROWTH?$AA@ DB 'CITY_AI_FOCUS_'
	DB	'TYPE_PROD_GROWTH', 00H			; `string'
CONST	ENDS
;	COMDAT ??_C@_0BL@KOEHAHBH@CITY_AI_FOCUS_TYPE_CULTURE?$AA@
CONST	SEGMENT
??_C@_0BL@KOEHAHBH@CITY_AI_FOCUS_TYPE_CULTURE?$AA@ DB 'CITY_AI_FOCUS_TYPE'
	DB	'_CULTURE', 00H				; `string'
CONST	ENDS
;	COMDAT ??_C@_0BL@EBEDKJJA@CITY_AI_FOCUS_TYPE_SCIENCE?$AA@
CONST	SEGMENT
??_C@_0BL@EBEDKJJA@CITY_AI_FOCUS_TYPE_SCIENCE?$AA@ DB 'CITY_AI_FOCUS_TYPE'
	DB	'_SCIENCE', 00H				; `string'
CONST	ENDS
;	COMDAT ??_C@_0CA@HIAKIMD@CITY_AI_FOCUS_TYPE_GREAT_PEOPLE?$AA@
CONST	SEGMENT
??_C@_0CA@HIAKIMD@CITY_AI_FOCUS_TYPE_GREAT_PEOPLE?$AA@ DB 'CITY_AI_FOCUS_'
	DB	'TYPE_GREAT_PEOPLE', 00H			; `string'
CONST	ENDS
;	COMDAT ??_C@_0BI@FCJGJFK@CITY_AI_FOCUS_TYPE_GOLD?$AA@
CONST	SEGMENT
??_C@_0BI@FCJGJFK@CITY_AI_FOCUS_TYPE_GOLD?$AA@ DB 'CITY_AI_FOCUS_TYPE_GOL'
	DB	'D', 00H					; `string'
CONST	ENDS
;	COMDAT ??_C@_0BO@EIEEJDDP@CITY_AI_FOCUS_TYPE_PRODUCTION?$AA@
CONST	SEGMENT
??_C@_0BO@EIEEJDDP@CITY_AI_FOCUS_TYPE_PRODUCTION?$AA@ DB 'CITY_AI_FOCUS_T'
	DB	'YPE_PRODUCTION', 00H			; `string'
CONST	ENDS
;	COMDAT ??_C@_0BI@DKAPPOLD@CITY_AI_FOCUS_TYPE_FOOD?$AA@
CONST	SEGMENT
??_C@_0BI@DKAPPOLD@CITY_AI_FOCUS_TYPE_FOOD?$AA@ DB 'CITY_AI_FOCUS_TYPE_FO'
	DB	'OD', 00H					; `string'
CONST	ENDS
;	COMDAT ??_C@_0BG@GLJGGAEJ@NO_CITY_AI_FOCUS_TYPE?$AA@
CONST	SEGMENT
??_C@_0BG@GLJGGAEJ@NO_CITY_AI_FOCUS_TYPE?$AA@ DB 'NO_CITY_AI_FOCUS_TYPE', 00H ; `string'
CONST	ENDS
;	COMDAT ??_C@_0BB@NJBNKKKB@CityAIFocusTypes?$AA@
CONST	SEGMENT
??_C@_0BB@NJBNKKKB@CityAIFocusTypes?$AA@ DB 'CityAIFocusTypes', 00H ; `string'
CONST	ENDS
;	COMDAT ??_C@_0BK@DJJNLCCI@NUM_MINOR_CIV_QUEST_TYPES?$AA@
CONST	SEGMENT
??_C@_0BK@DJJNLCCI@NUM_MINOR_CIV_QUEST_TYPES?$AA@ DB 'NUM_MINOR_CIV_QUEST'
	DB	'_TYPES', 00H				; `string'
CONST	ENDS
;	COMDAT ??_C@_0BM@CEFHPLND@MINOR_CIV_QUEST_TRADE_ROUTE?$AA@
CONST	SEGMENT
??_C@_0BM@CEFHPLND@MINOR_CIV_QUEST_TRADE_ROUTE?$AA@ DB 'MINOR_CIV_QUEST_T'
	DB	'RADE_ROUTE', 00H				; `string'
CONST	ENDS
;	COMDAT ??_C@_0CA@LGKIGCNF@MINOR_CIV_QUEST_SPREAD_RELIGION?$AA@
CONST	SEGMENT
??_C@_0CA@LGKIGCNF@MINOR_CIV_QUEST_SPREAD_RELIGION?$AA@ DB 'MINOR_CIV_QUE'
	DB	'ST_SPREAD_RELIGION', 00H			; `string'
CONST	ENDS
;	COMDAT ??_C@_0BP@KCFNIMPM@MINOR_CIV_QUEST_DENOUNCE_MAJOR?$AA@
CONST	SEGMENT
??_C@_0BP@KCFNIMPM@MINOR_CIV_QUEST_DENOUNCE_MAJOR?$AA@ DB 'MINOR_CIV_QUES'
	DB	'T_DENOUNCE_MAJOR', 00H			; `string'
CONST	ENDS
;	COMDAT ??_C@_0CB@EHDFANP@MINOR_CIV_QUEST_BULLY_CITY_STATE@
CONST	SEGMENT
??_C@_0CB@EHDFANP@MINOR_CIV_QUEST_BULLY_CITY_STATE@ DB 'MINOR_CIV_QUEST_B'
	DB	'ULLY_CITY_STATE', 00H			; `string'
CONST	ENDS
;	COMDAT ??_C@_0BH@BINAJBNC@MINOR_CIV_QUEST_INVEST?$AA@
CONST	SEGMENT
??_C@_0BH@BINAJBNC@MINOR_CIV_QUEST_INVEST?$AA@ DB 'MINOR_CIV_QUEST_INVEST'
	DB	00H						; `string'
CONST	ENDS
;	COMDAT ??_C@_0BO@LHGBBEFE@MINOR_CIV_QUEST_CONTEST_TECHS?$AA@
CONST	SEGMENT
??_C@_0BO@LHGBBEFE@MINOR_CIV_QUEST_CONTEST_TECHS?$AA@ DB 'MINOR_CIV_QUEST'
	DB	'_CONTEST_TECHS', 00H			; `string'
CONST	ENDS
;	COMDAT ??_C@_0BO@NPEIGAOO@MINOR_CIV_QUEST_CONTEST_FAITH?$AA@
CONST	SEGMENT
??_C@_0BO@NPEIGAOO@MINOR_CIV_QUEST_CONTEST_FAITH?$AA@ DB 'MINOR_CIV_QUEST'
	DB	'_CONTEST_FAITH', 00H			; `string'
CONST	ENDS
;	COMDAT ??_C@_0CA@EGLGIJKE@MINOR_CIV_QUEST_CONTEST_CULTURE?$AA@
CONST	SEGMENT
??_C@_0CA@EGLGIJKE@MINOR_CIV_QUEST_CONTEST_CULTURE?$AA@ DB 'MINOR_CIV_QUE'
	DB	'ST_CONTEST_CULTURE', 00H			; `string'
CONST	ENDS
;	COMDAT ??_C@_0CC@DGOGPAOJ@MINOR_CIV_QUEST_PLEDGE_TO_PROTEC@
CONST	SEGMENT
??_C@_0CC@DGOGPAOJ@MINOR_CIV_QUEST_PLEDGE_TO_PROTEC@ DB 'MINOR_CIV_QUEST_'
	DB	'PLEDGE_TO_PROTECT', 00H			; `string'
CONST	ENDS
;	COMDAT ??_C@_0BK@GEEMEOFE@MINOR_CIV_QUEST_GIVE_GOLD?$AA@
CONST	SEGMENT
??_C@_0BK@GEEMEOFE@MINOR_CIV_QUEST_GIVE_GOLD?$AA@ DB 'MINOR_CIV_QUEST_GIV'
	DB	'E_GOLD', 00H				; `string'
CONST	ENDS
;	COMDAT ??_C@_0CE@EIBIPKBE@MINOR_CIV_QUEST_FIND_NATURAL_WON@
CONST	SEGMENT
??_C@_0CE@EIBIPKBE@MINOR_CIV_QUEST_FIND_NATURAL_WON@ DB 'MINOR_CIV_QUEST_'
	DB	'FIND_NATURAL_WONDER', 00H			; `string'
CONST	ENDS
;	COMDAT ??_C@_0BM@HHMGOCFL@MINOR_CIV_QUEST_FIND_PLAYER?$AA@
CONST	SEGMENT
??_C@_0BM@HHMGOCFL@MINOR_CIV_QUEST_FIND_PLAYER?$AA@ DB 'MINOR_CIV_QUEST_F'
	DB	'IND_PLAYER', 00H				; `string'
CONST	ENDS
;	COMDAT ??_C@_0CA@GAJEFIEJ@MINOR_CIV_QUEST_KILL_CITY_STATE?$AA@
CONST	SEGMENT
??_C@_0CA@GAJEFIEJ@MINOR_CIV_QUEST_KILL_CITY_STATE?$AA@ DB 'MINOR_CIV_QUE'
	DB	'ST_KILL_CITY_STATE', 00H			; `string'
CONST	ENDS
;	COMDAT ??_C@_0BN@IBOGMBMO@MINOR_CIV_QUEST_GREAT_PERSON?$AA@
CONST	SEGMENT
??_C@_0BN@IBOGMBMO@MINOR_CIV_QUEST_GREAT_PERSON?$AA@ DB 'MINOR_CIV_QUEST_'
	DB	'GREAT_PERSON', 00H				; `string'
CONST	ENDS
;	COMDAT ??_C@_0CB@FHOGODE@MINOR_CIV_QUEST_CONSTRUCT_WONDER@
CONST	SEGMENT
??_C@_0CB@FHOGODE@MINOR_CIV_QUEST_CONSTRUCT_WONDER@ DB 'MINOR_CIV_QUEST_C'
	DB	'ONSTRUCT_WONDER', 00H			; `string'
CONST	ENDS
;	COMDAT ??_C@_0CB@NPGEGEOH@MINOR_CIV_QUEST_CONNECT_RESOURCE@
CONST	SEGMENT
??_C@_0CB@NPGEGEOH@MINOR_CIV_QUEST_CONNECT_RESOURCE@ DB 'MINOR_CIV_QUEST_'
	DB	'CONNECT_RESOURCE', 00H			; `string'
CONST	ENDS
;	COMDAT ??_C@_0BK@DMKAKKHL@MINOR_CIV_QUEST_KILL_CAMP?$AA@
CONST	SEGMENT
??_C@_0BK@DMKAKKHL@MINOR_CIV_QUEST_KILL_CAMP?$AA@ DB 'MINOR_CIV_QUEST_KIL'
	DB	'L_CAMP', 00H				; `string'
CONST	ENDS
;	COMDAT ??_C@_0BG@EMGIDIKM@MINOR_CIV_QUEST_ROUTE?$AA@
CONST	SEGMENT
??_C@_0BG@EMGIDIKM@MINOR_CIV_QUEST_ROUTE?$AA@ DB 'MINOR_CIV_QUEST_ROUTE', 00H ; `string'
CONST	ENDS
;	COMDAT ??_C@_0BI@MCHOHDKI@NO_MINOR_CIV_QUEST_TYPE?$AA@
CONST	SEGMENT
??_C@_0BI@MCHOHDKI@NO_MINOR_CIV_QUEST_TYPE?$AA@ DB 'NO_MINOR_CIV_QUEST_TY'
	DB	'PE', 00H					; `string'
CONST	ENDS
;	COMDAT ??_C@_0BD@NDNFDDAP@MinorCivQuestTypes?$AA@
CONST	SEGMENT
??_C@_0BD@NDNFDDAP@MinorCivQuestTypes?$AA@ DB 'MinorCivQuestTypes', 00H ; `string'
CONST	ENDS
;	COMDAT ??_C@_0CA@KHDPIIEG@NUM_MINOR_CIV_PERSONALITY_TYPES?$AA@
CONST	SEGMENT
??_C@_0CA@KHDPIIEG@NUM_MINOR_CIV_PERSONALITY_TYPES?$AA@ DB 'NUM_MINOR_CIV'
	DB	'_PERSONALITY_TYPES', 00H			; `string'
CONST	ENDS
;	COMDAT ??_C@_0CB@KHIJLBKL@MINOR_CIV_PERSONALITY_IRRATIONAL@
CONST	SEGMENT
??_C@_0CB@KHIJLBKL@MINOR_CIV_PERSONALITY_IRRATIONAL@ DB 'MINOR_CIV_PERSON'
	DB	'ALITY_IRRATIONAL', 00H			; `string'
CONST	ENDS
;	COMDAT ??_C@_0BO@MEFFALDB@MINOR_CIV_PERSONALITY_HOSTILE?$AA@
CONST	SEGMENT
??_C@_0BO@MEFFALDB@MINOR_CIV_PERSONALITY_HOSTILE?$AA@ DB 'MINOR_CIV_PERSO'
	DB	'NALITY_HOSTILE', 00H			; `string'
CONST	ENDS
;	COMDAT ??_C@_0BO@COBBEGGB@MINOR_CIV_PERSONALITY_NEUTRAL?$AA@
CONST	SEGMENT
??_C@_0BO@COBBEGGB@MINOR_CIV_PERSONALITY_NEUTRAL?$AA@ DB 'MINOR_CIV_PERSO'
	DB	'NALITY_NEUTRAL', 00H			; `string'
CONST	ENDS
;	COMDAT ??_C@_0BP@GGHOJBIK@MINOR_CIV_PERSONALITY_FRIENDLY?$AA@
CONST	SEGMENT
??_C@_0BP@GGHOJBIK@MINOR_CIV_PERSONALITY_FRIENDLY?$AA@ DB 'MINOR_CIV_PERS'
	DB	'ONALITY_FRIENDLY', 00H			; `string'
CONST	ENDS
;	COMDAT ??_C@_0BO@FHICAMFA@NO_MINOR_CIV_PERSONALITY_TYPE?$AA@
CONST	SEGMENT
??_C@_0BO@FHICAMFA@NO_MINOR_CIV_PERSONALITY_TYPE?$AA@ DB 'NO_MINOR_CIV_PE'
	DB	'RSONALITY_TYPE', 00H			; `string'
CONST	ENDS
;	COMDAT ??_C@_0BJ@GEOKHAPF@MinorCivPersonalityTypes?$AA@
CONST	SEGMENT
??_C@_0BJ@GEOKHAPF@MinorCivPersonalityTypes?$AA@ DB 'MinorCivPersonalityT'
	DB	'ypes', 00H					; `string'
CONST	ENDS
;	COMDAT ??_C@_0BK@LIAALICO@NUM_MINOR_CIV_TRAIT_TYPES?$AA@
CONST	SEGMENT
??_C@_0BK@LIAALICO@NUM_MINOR_CIV_TRAIT_TYPES?$AA@ DB 'NUM_MINOR_CIV_TRAIT'
	DB	'_TYPES', 00H				; `string'
CONST	ENDS
;	COMDAT ??_C@_0BK@FJEJAPGO@MINOR_CIV_TRAIT_RELIGIOUS?$AA@
CONST	SEGMENT
??_C@_0BK@FJEJAPGO@MINOR_CIV_TRAIT_RELIGIOUS?$AA@ DB 'MINOR_CIV_TRAIT_REL'
	DB	'IGIOUS', 00H				; `string'
CONST	ENDS
;	COMDAT ??_C@_0BL@ILMBKEEN@MINOR_CIV_TRAIT_MERCANTILE?$AA@
CONST	SEGMENT
??_C@_0BL@ILMBKEEN@MINOR_CIV_TRAIT_MERCANTILE?$AA@ DB 'MINOR_CIV_TRAIT_ME'
	DB	'RCANTILE', 00H				; `string'
CONST	ENDS
;	COMDAT ??_C@_0BJ@KGIEDGJG@MINOR_CIV_TRAIT_MARITIME?$AA@
CONST	SEGMENT
??_C@_0BJ@KGIEDGJG@MINOR_CIV_TRAIT_MARITIME?$AA@ DB 'MINOR_CIV_TRAIT_MARI'
	DB	'TIME', 00H					; `string'
CONST	ENDS
;	COMDAT ??_C@_0BN@IIGJFFHF@MINOR_CIV_TRAIT_MILITARISTIC?$AA@
CONST	SEGMENT
??_C@_0BN@IIGJFFHF@MINOR_CIV_TRAIT_MILITARISTIC?$AA@ DB 'MINOR_CIV_TRAIT_'
	DB	'MILITARISTIC', 00H				; `string'
CONST	ENDS
;	COMDAT ??_C@_0BJ@LDGOLNNE@MINOR_CIV_TRAIT_CULTURED?$AA@
CONST	SEGMENT
??_C@_0BJ@LDGOLNNE@MINOR_CIV_TRAIT_CULTURED?$AA@ DB 'MINOR_CIV_TRAIT_CULT'
	DB	'URED', 00H					; `string'
CONST	ENDS
;	COMDAT ??_C@_0BI@OBGCLIHM@NO_MINOR_CIV_TRAIT_TYPE?$AA@
CONST	SEGMENT
??_C@_0BI@OBGCLIHM@NO_MINOR_CIV_TRAIT_TYPE?$AA@ DB 'NO_MINOR_CIV_TRAIT_TY'
	DB	'PE', 00H					; `string'
CONST	ENDS
;	COMDAT ??_C@_0BD@PAMJPINL@MinorCivTraitTypes?$AA@
CONST	SEGMENT
??_C@_0BD@PAMJPINL@MinorCivTraitTypes?$AA@ DB 'MinorCivTraitTypes', 00H ; `string'
CONST	ENDS
;	COMDAT ??_C@_0BJ@BKOHDNCJ@NUM_MAJOR_CIV_APPROACHES?$AA@
CONST	SEGMENT
??_C@_0BJ@BKOHDNCJ@NUM_MAJOR_CIV_APPROACHES?$AA@ DB 'NUM_MAJOR_CIV_APPROA'
	DB	'CHES', 00H					; `string'
CONST	ENDS
;	COMDAT ??_C@_0BL@CNGAILNK@MAJOR_CIV_APPROACH_NEUTRAL?$AA@
CONST	SEGMENT
??_C@_0BL@CNGAILNK@MAJOR_CIV_APPROACH_NEUTRAL?$AA@ DB 'MAJOR_CIV_APPROACH'
	DB	'_NEUTRAL', 00H				; `string'
CONST	ENDS
;	COMDAT ??_C@_0BM@DKMOIKED@MAJOR_CIV_APPROACH_FRIENDLY?$AA@
CONST	SEGMENT
??_C@_0BM@DKMOIKED@MAJOR_CIV_APPROACH_FRIENDLY?$AA@ DB 'MAJOR_CIV_APPROAC'
	DB	'H_FRIENDLY', 00H				; `string'
CONST	ENDS
;	COMDAT ??_C@_0BK@NFDBJLGK@MAJOR_CIV_APPROACH_AFRAID?$AA@
CONST	SEGMENT
??_C@_0BK@NFDBJLGK@MAJOR_CIV_APPROACH_AFRAID?$AA@ DB 'MAJOR_CIV_APPROACH_'
	DB	'AFRAID', 00H				; `string'
CONST	ENDS
;	COMDAT ??_C@_0BL@PIFEJDIF@MAJOR_CIV_APPROACH_GUARDED?$AA@
CONST	SEGMENT
??_C@_0BL@PIFEJDIF@MAJOR_CIV_APPROACH_GUARDED?$AA@ DB 'MAJOR_CIV_APPROACH'
	DB	'_GUARDED', 00H				; `string'
CONST	ENDS
;	COMDAT ??_C@_0BN@FKMLMFML@MAJOR_CIV_APPROACH_DECEPTIVE?$AA@
CONST	SEGMENT
??_C@_0BN@FKMLMFML@MAJOR_CIV_APPROACH_DECEPTIVE?$AA@ DB 'MAJOR_CIV_APPROA'
	DB	'CH_DECEPTIVE', 00H				; `string'
CONST	ENDS
;	COMDAT ??_C@_0BL@MHCEMGIK@MAJOR_CIV_APPROACH_HOSTILE?$AA@
CONST	SEGMENT
??_C@_0BL@MHCEMGIK@MAJOR_CIV_APPROACH_HOSTILE?$AA@ DB 'MAJOR_CIV_APPROACH'
	DB	'_HOSTILE', 00H				; `string'
CONST	ENDS
;	COMDAT ??_C@_0BH@CENIAPAP@MAJOR_CIV_APPROACH_WAR?$AA@
CONST	SEGMENT
??_C@_0BH@CENIAPAP@MAJOR_CIV_APPROACH_WAR?$AA@ DB 'MAJOR_CIV_APPROACH_WAR'
	DB	00H						; `string'
CONST	ENDS
;	COMDAT ??_C@_0BG@MIEPALJN@NO_MAJOR_CIV_APPROACH?$AA@
CONST	SEGMENT
??_C@_0BG@MIEPALJN@NO_MAJOR_CIV_APPROACH?$AA@ DB 'NO_MAJOR_CIV_APPROACH', 00H ; `string'
CONST	ENDS
;	COMDAT ??_C@_0BG@OKDMGDPK@MajorCivApproachTypes?$AA@
CONST	SEGMENT
??_C@_0BG@OKDMGDPK@MajorCivApproachTypes?$AA@ DB 'MajorCivApproachTypes', 00H ; `string'
CONST	ENDS
;	COMDAT ??_C@_0BI@HIJDDECF@NUM_RESOURCEUSAGE_TYPES?$AA@
CONST	SEGMENT
??_C@_0BI@HIJDDECF@NUM_RESOURCEUSAGE_TYPES?$AA@ DB 'NUM_RESOURCEUSAGE_TYP'
	DB	'ES', 00H					; `string'
CONST	ENDS
;	COMDAT ??_C@_0BF@KGIAHEFO@RESOURCEUSAGE_LUXURY?$AA@
CONST	SEGMENT
??_C@_0BF@KGIAHEFO@RESOURCEUSAGE_LUXURY?$AA@ DB 'RESOURCEUSAGE_LUXURY', 00H ; `string'
CONST	ENDS
;	COMDAT ??_C@_0BI@NCNDAFGO@RESOURCEUSAGE_STRATEGIC?$AA@
CONST	SEGMENT
??_C@_0BI@NCNDAFGO@RESOURCEUSAGE_STRATEGIC?$AA@ DB 'RESOURCEUSAGE_STRATEG'
	DB	'IC', 00H					; `string'
CONST	ENDS
;	COMDAT ??_C@_0BE@FCKHAHKE@RESOURCEUSAGE_BONUS?$AA@
CONST	SEGMENT
??_C@_0BE@FCKHAHKE@RESOURCEUSAGE_BONUS?$AA@ DB 'RESOURCEUSAGE_BONUS', 00H ; `string'
CONST	ENDS
;	COMDAT ??_C@_0BD@KPGMNEDO@ResourceUsageTypes?$AA@
CONST	SEGMENT
??_C@_0BD@KPGMNEDO@ResourceUsageTypes?$AA@ DB 'ResourceUsageTypes', 00H ; `string'
CONST	ENDS
;	COMDAT ??_C@_0BL@INMDEKKG@NUM_ENDTURN_BLOCKING_TYPES?$AA@
CONST	SEGMENT
??_C@_0BL@INMDEKKG@NUM_ENDTURN_BLOCKING_TYPES?$AA@ DB 'NUM_ENDTURN_BLOCKI'
	DB	'NG_TYPES', 00H				; `string'
CONST	ENDS
;	COMDAT ??_C@_0CB@EGLLBLDG@ENDTURN_BLOCKING_CHOOSE_IDEOLOGY@
CONST	SEGMENT
??_C@_0CB@EGLLBLDG@ENDTURN_BLOCKING_CHOOSE_IDEOLOGY@ DB 'ENDTURN_BLOCKING'
	DB	'_CHOOSE_IDEOLOGY', 00H			; `string'
CONST	ENDS
;	COMDAT ??_C@_0CH@FJEMJOPG@ENDTURN_BLOCKING_LEAGUE_CALL_FOR@
CONST	SEGMENT
??_C@_0CH@FJEMJOPG@ENDTURN_BLOCKING_LEAGUE_CALL_FOR@ DB 'ENDTURN_BLOCKING'
	DB	'_LEAGUE_CALL_FOR_VOTES', 00H		; `string'
CONST	ENDS
;	COMDAT ??_C@_0CE@FKKOLIDB@ENDTURN_BLOCKING_CHOOSE_ARCHAEOL@
CONST	SEGMENT
??_C@_0CE@FKKOLIDB@ENDTURN_BLOCKING_CHOOSE_ARCHAEOL@ DB 'ENDTURN_BLOCKING'
	DB	'_CHOOSE_ARCHAEOLOGY', 00H			; `string'
CONST	ENDS
;	COMDAT ??_C@_0CL@JOEEEMDN@ENDTURN_BLOCKING_LEAGUE_CALL_FOR@
CONST	SEGMENT
??_C@_0CL@JOEEEMDN@ENDTURN_BLOCKING_LEAGUE_CALL_FOR@ DB 'ENDTURN_BLOCKING'
	DB	'_LEAGUE_CALL_FOR_PROPOSALS', 00H		; `string'
CONST	ENDS
;	COMDAT ??_C@_0CI@CJKJCBF@ENDTURN_BLOCKING_ADD_REFORMATION@
CONST	SEGMENT
??_C@_0CI@CJKJCBF@ENDTURN_BLOCKING_ADD_REFORMATION@ DB 'ENDTURN_BLOCKING_'
	DB	'ADD_REFORMATION_BELIEF', 00H		; `string'
CONST	ENDS
;	COMDAT ??_C@_0CE@MGHBANFM@ENDTURN_BLOCKING_FAITH_GREAT_PER@
CONST	SEGMENT
??_C@_0CE@MGHBANFM@ENDTURN_BLOCKING_FAITH_GREAT_PER@ DB 'ENDTURN_BLOCKING'
	DB	'_FAITH_GREAT_PERSON', 00H			; `string'
CONST	ENDS
;	COMDAT ??_C@_0CB@LBMNJCEM@ENDTURN_BLOCKING_MAYA_LONG_COUNT@
CONST	SEGMENT
??_C@_0CB@LBMNJCEM@ENDTURN_BLOCKING_MAYA_LONG_COUNT@ DB 'ENDTURN_BLOCKING'
	DB	'_MAYA_LONG_COUNT', 00H			; `string'
CONST	ENDS
;	COMDAT ??_C@_0BM@DMHEFGHD@ENDTURN_BLOCKING_STEAL_TECH?$AA@
CONST	SEGMENT
??_C@_0BM@DMHEFGHD@ENDTURN_BLOCKING_STEAL_TECH?$AA@ DB 'ENDTURN_BLOCKING_'
	DB	'STEAL_TECH', 00H				; `string'
CONST	ENDS
;	COMDAT ??_C@_0CC@JDNJFDO@ENDTURN_BLOCKING_ENHANCE_RELIGIO@
CONST	SEGMENT
??_C@_0CC@JDNJFDO@ENDTURN_BLOCKING_ENHANCE_RELIGIO@ DB 'ENDTURN_BLOCKING_'
	DB	'ENHANCE_RELIGION', 00H			; `string'
CONST	ENDS
;	COMDAT ??_C@_0CA@EFICPA@ENDTURN_BLOCKING_FOUND_RELIGION?$AA@
CONST	SEGMENT
??_C@_0CA@EFICPA@ENDTURN_BLOCKING_FOUND_RELIGION?$AA@ DB 'ENDTURN_BLOCKIN'
	DB	'G_FOUND_RELIGION', 00H			; `string'
CONST	ENDS
;	COMDAT ??_C@_0CA@EKKIIMIJ@ENDTURN_BLOCKING_FOUND_PANTHEON?$AA@
CONST	SEGMENT
??_C@_0CA@EKKIIMIJ@ENDTURN_BLOCKING_FOUND_PANTHEON?$AA@ DB 'ENDTURN_BLOCK'
	DB	'ING_FOUND_PANTHEON', 00H			; `string'
CONST	ENDS
;	COMDAT ??_C@_0BM@EKJAMBAC@ENDTURN_BLOCKING_FREE_ITEMS?$AA@
CONST	SEGMENT
??_C@_0BM@EKJAMBAC@ENDTURN_BLOCKING_FREE_ITEMS?$AA@ DB 'ENDTURN_BLOCKING_'
	DB	'FREE_ITEMS', 00H				; `string'
CONST	ENDS
;	COMDAT ??_C@_0BN@IADOGKOD@ENDTURN_BLOCKING_FREE_POLICY?$AA@
CONST	SEGMENT
??_C@_0BN@IADOGKOD@ENDTURN_BLOCKING_FREE_POLICY?$AA@ DB 'ENDTURN_BLOCKING'
	DB	'_FREE_POLICY', 00H				; `string'
CONST	ENDS
;	COMDAT ??_C@_0CD@DNNOLPPE@ENDTURN_BLOCKING_CITY_RANGE_ATTA@
CONST	SEGMENT
??_C@_0CD@DNNOLPPE@ENDTURN_BLOCKING_CITY_RANGE_ATTA@ DB 'ENDTURN_BLOCKING'
	DB	'_CITY_RANGE_ATTACK', 00H			; `string'
CONST	ENDS
;	COMDAT ??_C@_0CA@LKLFINDN@ENDTURN_BLOCKING_UNIT_PROMOTION?$AA@
CONST	SEGMENT
??_C@_0CA@LKLFINDN@ENDTURN_BLOCKING_UNIT_PROMOTION?$AA@ DB 'ENDTURN_BLOCK'
	DB	'ING_UNIT_PROMOTION', 00H			; `string'
CONST	ENDS
;	COMDAT ??_C@_0CD@OCJMMHIA@ENDTURN_BLOCKING_UNIT_NEEDS_ORDE@
CONST	SEGMENT
??_C@_0CD@OCJMMHIA@ENDTURN_BLOCKING_UNIT_NEEDS_ORDE@ DB 'ENDTURN_BLOCKING'
	DB	'_UNIT_NEEDS_ORDERS', 00H			; `string'
CONST	ENDS
;	COMDAT ??_C@_0BP@JEIDLBCL@ENDTURN_BLOCKING_STACKED_UNITS?$AA@
CONST	SEGMENT
??_C@_0BP@JEIDLBCL@ENDTURN_BLOCKING_STACKED_UNITS?$AA@ DB 'ENDTURN_BLOCKI'
	DB	'NG_STACKED_UNITS', 00H			; `string'
CONST	ENDS
;	COMDAT ??_C@_0BL@LECJKIBE@ENDTURN_BLOCKING_FREE_TECH?$AA@
CONST	SEGMENT
??_C@_0BL@LECJKIBE@ENDTURN_BLOCKING_FREE_TECH?$AA@ DB 'ENDTURN_BLOCKING_F'
	DB	'REE_TECH', 00H				; `string'
CONST	ENDS
;	COMDAT ??_C@_0BN@MLIKGNKO@ENDTURN_BLOCKING_MINOR_QUEST?$AA@
CONST	SEGMENT
??_C@_0BN@MLIKGNKO@ENDTURN_BLOCKING_MINOR_QUEST?$AA@ DB 'ENDTURN_BLOCKING'
	DB	'_MINOR_QUEST', 00H				; `string'
CONST	ENDS
;	COMDAT ??_C@_0BM@JMOJPNKN@ENDTURN_BLOCKING_DIPLO_VOTE?$AA@
CONST	SEGMENT
??_C@_0BM@JMOJPNKN@ENDTURN_BLOCKING_DIPLO_VOTE?$AA@ DB 'ENDTURN_BLOCKING_'
	DB	'DIPLO_VOTE', 00H				; `string'
CONST	ENDS
;	COMDAT ??_C@_0BH@MALLAFIE@ENDTURN_BLOCKING_UNITS?$AA@
CONST	SEGMENT
??_C@_0BH@MALLAFIE@ENDTURN_BLOCKING_UNITS?$AA@ DB 'ENDTURN_BLOCKING_UNITS'
	DB	00H						; `string'
CONST	ENDS
;	COMDAT ??_C@_0BM@OGICDOGI@ENDTURN_BLOCKING_PRODUCTION?$AA@
CONST	SEGMENT
??_C@_0BM@OGICDOGI@ENDTURN_BLOCKING_PRODUCTION?$AA@ DB 'ENDTURN_BLOCKING_'
	DB	'PRODUCTION', 00H				; `string'
CONST	ENDS
;	COMDAT ??_C@_0BK@MEIPLLKD@ENDTURN_BLOCKING_RESEARCH?$AA@
CONST	SEGMENT
??_C@_0BK@MEIPLLKD@ENDTURN_BLOCKING_RESEARCH?$AA@ DB 'ENDTURN_BLOCKING_RE'
	DB	'SEARCH', 00H				; `string'
CONST	ENDS
;	COMDAT ??_C@_0BI@GOLNEFGB@ENDTURN_BLOCKING_POLICY?$AA@
CONST	SEGMENT
??_C@_0BI@GOLNEFGB@ENDTURN_BLOCKING_POLICY?$AA@ DB 'ENDTURN_BLOCKING_POLI'
	DB	'CY', 00H					; `string'
CONST	ENDS
;	COMDAT ??_C@_0BJ@EJOBLKEH@NO_ENDTURN_BLOCKING_TYPE?$AA@
CONST	SEGMENT
??_C@_0BJ@EJOBLKEH@NO_ENDTURN_BLOCKING_TYPE?$AA@ DB 'NO_ENDTURN_BLOCKING_'
	DB	'TYPE', 00H					; `string'
CONST	ENDS
;	COMDAT ??_C@_0BF@DMADNOHH@EndTurnBlockingTypes?$AA@
CONST	SEGMENT
??_C@_0BF@DMADNOHH@EndTurnBlockingTypes?$AA@ DB 'EndTurnBlockingTypes', 00H ; `string'
CONST	ENDS
;	COMDAT ??_C@_0BE@OLHJGHIE@NUM_TRADEABLE_ITEMS?$AA@
CONST	SEGMENT
??_C@_0BE@OLHJGHIE@NUM_TRADEABLE_ITEMS?$AA@ DB 'NUM_TRADEABLE_ITEMS', 00H ; `string'
CONST	ENDS
;	COMDAT ??_C@_0BL@JGLJBHEN@TRADE_ITEM_VOTE_COMMITMENT?$AA@
CONST	SEGMENT
??_C@_0BL@JGLJBHEN@TRADE_ITEM_VOTE_COMMITMENT?$AA@ DB 'TRADE_ITEM_VOTE_CO'
	DB	'MMITMENT', 00H				; `string'
CONST	ENDS
;	COMDAT ??_C@_0CF@NAONAHO@TRADE_ITEM_DECLARATION_OF_FRIEND@
CONST	SEGMENT
??_C@_0CF@NAONAHO@TRADE_ITEM_DECLARATION_OF_FRIEND@ DB 'TRADE_ITEM_DECLAR'
	DB	'ATION_OF_FRIENDSHIP', 00H			; `string'
CONST	ENDS
;	COMDAT ??_C@_0BJ@MMOMMCIO@TRADE_ITEM_ALLOW_EMBASSY?$AA@
CONST	SEGMENT
??_C@_0BJ@MMOMMCIO@TRADE_ITEM_ALLOW_EMBASSY?$AA@ DB 'TRADE_ITEM_ALLOW_EMB'
	DB	'ASSY', 00H					; `string'
CONST	ENDS
;	COMDAT ??_C@_0BP@KPFCBADM@TRADE_ITEM_THIRD_PARTY_EMBARGO?$AA@
CONST	SEGMENT
??_C@_0BP@KPFCBADM@TRADE_ITEM_THIRD_PARTY_EMBARGO?$AA@ DB 'TRADE_ITEM_THI'
	DB	'RD_PARTY_EMBARGO', 00H			; `string'
CONST	ENDS
;	COMDAT ??_C@_0BL@NJOJJBBE@TRADE_ITEM_THIRD_PARTY_WAR?$AA@
CONST	SEGMENT
??_C@_0BL@NJOJJBBE@TRADE_ITEM_THIRD_PARTY_WAR?$AA@ DB 'TRADE_ITEM_THIRD_P'
	DB	'ARTY_WAR', 00H				; `string'
CONST	ENDS
;	COMDAT ??_C@_0BN@PMFNELLO@TRADE_ITEM_THIRD_PARTY_PEACE?$AA@
CONST	SEGMENT
??_C@_0BN@PMFNELLO@TRADE_ITEM_THIRD_PARTY_PEACE?$AA@ DB 'TRADE_ITEM_THIRD'
	DB	'_PARTY_PEACE', 00H				; `string'
CONST	ENDS
;	COMDAT ??_C@_0BI@CLANHFHP@TRADE_ITEM_PEACE_TREATY?$AA@
CONST	SEGMENT
??_C@_0BI@CLANHFHP@TRADE_ITEM_PEACE_TREATY?$AA@ DB 'TRADE_ITEM_PEACE_TREA'
	DB	'TY', 00H					; `string'
CONST	ENDS
;	COMDAT ??_C@_0BB@LNJJKPMI@TRADE_ITEM_TRUCE?$AA@
CONST	SEGMENT
??_C@_0BB@LNJJKPMI@TRADE_ITEM_TRUCE?$AA@ DB 'TRADE_ITEM_TRUCE', 00H ; `string'
CONST	ENDS
;	COMDAT ??_C@_0BF@DEDGJDLK@TRADE_ITEM_SURRENDER?$AA@
CONST	SEGMENT
??_C@_0BF@DEDGJDLK@TRADE_ITEM_SURRENDER?$AA@ DB 'TRADE_ITEM_SURRENDER', 00H ; `string'
CONST	ENDS
;	COMDAT ??_C@_0BO@LGFKPCNI@TRADE_ITEM_PERMANENT_ALLIANCE?$AA@
CONST	SEGMENT
??_C@_0BO@LGFKPCNI@TRADE_ITEM_PERMANENT_ALLIANCE?$AA@ DB 'TRADE_ITEM_PERM'
	DB	'ANENT_ALLIANCE', 00H			; `string'
CONST	ENDS
;	COMDAT ??_C@_0BL@PFGHCFJI@TRADE_ITEM_TRADE_AGREEMENT?$AA@
CONST	SEGMENT
??_C@_0BL@PFGHCFJI@TRADE_ITEM_TRADE_AGREEMENT?$AA@ DB 'TRADE_ITEM_TRADE_A'
	DB	'GREEMENT', 00H				; `string'
CONST	ENDS
;	COMDAT ??_C@_0BO@JOADEEDO@TRADE_ITEM_RESEARCH_AGREEMENT?$AA@
CONST	SEGMENT
??_C@_0BO@JOADEEDO@TRADE_ITEM_RESEARCH_AGREEMENT?$AA@ DB 'TRADE_ITEM_RESE'
	DB	'ARCH_AGREEMENT', 00H			; `string'
CONST	ENDS
;	COMDAT ??_C@_0BK@MBLKEPJH@TRADE_ITEM_DEFENSIVE_PACT?$AA@
CONST	SEGMENT
??_C@_0BK@MBLKEPJH@TRADE_ITEM_DEFENSIVE_PACT?$AA@ DB 'TRADE_ITEM_DEFENSIV'
	DB	'E_PACT', 00H				; `string'
CONST	ENDS
;	COMDAT ??_C@_0BI@JOAPGKLA@TRADE_ITEM_OPEN_BORDERS?$AA@
CONST	SEGMENT
??_C@_0BI@JOAPGKLA@TRADE_ITEM_OPEN_BORDERS?$AA@ DB 'TRADE_ITEM_OPEN_BORDE'
	DB	'RS', 00H					; `string'
CONST	ENDS
;	COMDAT ??_C@_0BB@MMOLOOOL@TRADE_ITEM_UNITS?$AA@
CONST	SEGMENT
??_C@_0BB@MMOLOOOL@TRADE_ITEM_UNITS?$AA@ DB 'TRADE_ITEM_UNITS', 00H ; `string'
CONST	ENDS
;	COMDAT ??_C@_0BC@JNCBEEHG@TRADE_ITEM_CITIES?$AA@
CONST	SEGMENT
??_C@_0BC@JNCBEEHG@TRADE_ITEM_CITIES?$AA@ DB 'TRADE_ITEM_CITIES', 00H ; `string'
CONST	ENDS
;	COMDAT ??_C@_0BF@JPJNDGIF@TRADE_ITEM_RESOURCES?$AA@
CONST	SEGMENT
??_C@_0BF@JPJNDGIF@TRADE_ITEM_RESOURCES?$AA@ DB 'TRADE_ITEM_RESOURCES', 00H ; `string'
CONST	ENDS
;	COMDAT ??_C@_0BA@EBLOLMNH@TRADE_ITEM_MAPS?$AA@
CONST	SEGMENT
??_C@_0BA@EBLOLMNH@TRADE_ITEM_MAPS?$AA@ DB 'TRADE_ITEM_MAPS', 00H ; `string'
CONST	ENDS
;	COMDAT ??_C@_0BJ@MBFPLJHK@TRADE_ITEM_GOLD_PER_TURN?$AA@
CONST	SEGMENT
??_C@_0BJ@MBFPLJHK@TRADE_ITEM_GOLD_PER_TURN?$AA@ DB 'TRADE_ITEM_GOLD_PER_'
	DB	'TURN', 00H					; `string'
CONST	ENDS
;	COMDAT ??_C@_0BA@PLGOANMH@TRADE_ITEM_GOLD?$AA@
CONST	SEGMENT
??_C@_0BA@PLGOANMH@TRADE_ITEM_GOLD?$AA@ DB 'TRADE_ITEM_GOLD', 00H ; `string'
CONST	ENDS
;	COMDAT ??_C@_0BA@OMOBIKJJ@TRADE_ITEM_NONE?$AA@
CONST	SEGMENT
??_C@_0BA@OMOBIKJJ@TRADE_ITEM_NONE?$AA@ DB 'TRADE_ITEM_NONE', 00H ; `string'
CONST	ENDS
;	COMDAT ??_C@_0P@IAOABMHB@TradeableItems?$AA@
CONST	SEGMENT
??_C@_0P@IAOABMHB@TradeableItems?$AA@ DB 'TradeableItems', 00H ; `string'
CONST	ENDS
;	COMDAT ??_C@_0BD@EMHJIPNP@LEADERHEAD_ANIM_NO?$AA@
CONST	SEGMENT
??_C@_0BD@EMHJIPNP@LEADERHEAD_ANIM_NO?$AA@ DB 'LEADERHEAD_ANIM_NO', 00H ; `string'
CONST	ENDS
;	COMDAT ??_C@_0BE@EHOPFCKN@LEADERHEAD_ANIM_YES?$AA@
CONST	SEGMENT
??_C@_0BE@EHOPFCKN@LEADERHEAD_ANIM_YES?$AA@ DB 'LEADERHEAD_ANIM_YES', 00H ; `string'
CONST	ENDS
;	COMDAT ??_C@_0BN@MCOIDJID@LEADERHEAD_ANIM_LETS_HEAR_IT?$AA@
CONST	SEGMENT
??_C@_0BN@MCOIDJID@LEADERHEAD_ANIM_LETS_HEAR_IT?$AA@ DB 'LEADERHEAD_ANIM_'
	DB	'LETS_HEAR_IT', 00H				; `string'
CONST	ENDS
;	COMDAT ??_C@_0BK@NNCNDMDJ@LEADERHEAD_ANIM_HATE_IDLE?$AA@
CONST	SEGMENT
??_C@_0BK@NNCNDMDJ@LEADERHEAD_ANIM_HATE_IDLE?$AA@ DB 'LEADERHEAD_ANIM_HAT'
	DB	'E_IDLE', 00H				; `string'
CONST	ENDS
;	COMDAT ??_C@_0BN@GJIAFMD@LEADERHEAD_ANIM_NEUTRAL_IDLE?$AA@
CONST	SEGMENT
??_C@_0BN@GJIAFMD@LEADERHEAD_ANIM_NEUTRAL_IDLE?$AA@ DB 'LEADERHEAD_ANIM_N'
	DB	'EUTRAL_IDLE', 00H				; `string'
CONST	ENDS
;	COMDAT ??_C@_0BH@HNPIMPDF@LEADERHEAD_ANIM_DEMAND?$AA@
CONST	SEGMENT
??_C@_0BH@HNPIMPDF@LEADERHEAD_ANIM_DEMAND?$AA@ DB 'LEADERHEAD_ANIM_DEMAND'
	DB	00H						; `string'
CONST	ENDS
;	COMDAT ??_C@_0BI@BNNBFNEG@LEADERHEAD_ANIM_REQUEST?$AA@
CONST	SEGMENT
??_C@_0BI@BNNBFNEG@LEADERHEAD_ANIM_REQUEST?$AA@ DB 'LEADERHEAD_ANIM_REQUE'
	DB	'ST', 00H					; `string'
CONST	ENDS
;	COMDAT ??_C@_0BJ@HBHDOH@LEADERHEAD_ANIM_DEFEATED?$AA@
CONST	SEGMENT
??_C@_0BJ@HBHDOH@LEADERHEAD_ANIM_DEFEATED?$AA@ DB 'LEADERHEAD_ANIM_DEFEAT'
	DB	'ED', 00H					; `string'
CONST	ENDS
;	COMDAT ??_C@_0BL@NBNEDHGE@LEADERHEAD_ANIM_HATE_HELLO?$AA@
CONST	SEGMENT
??_C@_0BL@NBNEDHGE@LEADERHEAD_ANIM_HATE_HELLO?$AA@ DB 'LEADERHEAD_ANIM_HA'
	DB	'TE_HELLO', 00H				; `string'
CONST	ENDS
;	COMDAT ??_C@_0BJ@ODJNNMEF@LEADERHEAD_ANIM_ATTACKED?$AA@
CONST	SEGMENT
??_C@_0BJ@ODJNNMEF@LEADERHEAD_ANIM_ATTACKED?$AA@ DB 'LEADERHEAD_ANIM_ATTA'
	DB	'CKED', 00H					; `string'
CONST	ENDS
;	COMDAT ??_C@_0BM@BONIKMDG@LEADERHEAD_ANIM_DECLARE_WAR?$AA@
CONST	SEGMENT
??_C@_0BM@BONIKMDG@LEADERHEAD_ANIM_DECLARE_WAR?$AA@ DB 'LEADERHEAD_ANIM_D'
	DB	'ECLARE_WAR', 00H				; `string'
CONST	ENDS
;	COMDAT ??_C@_0BO@OKIBJCEI@LEADERHEAD_ANIM_OPENING_GLOAT?$AA@
CONST	SEGMENT
??_C@_0BO@OKIBJCEI@LEADERHEAD_ANIM_OPENING_GLOAT?$AA@ DB 'LEADERHEAD_ANIM'
	DB	'_OPENING_GLOAT', 00H			; `string'
CONST	ENDS
;	COMDAT ??_C@_0BJ@DJMMKNKF@LEADERHEAD_ANIM_PEACEFUL?$AA@
CONST	SEGMENT
??_C@_0BJ@DJMMKNKF@LEADERHEAD_ANIM_PEACEFUL?$AA@ DB 'LEADERHEAD_ANIM_PEAC'
	DB	'EFUL', 00H					; `string'
CONST	ENDS
;	COMDAT ??_C@_0BO@IMGHJJFP@LEADERHEAD_ANIM_NEUTRAL_HELLO?$AA@
CONST	SEGMENT
??_C@_0BO@IMGHJJFP@LEADERHEAD_ANIM_NEUTRAL_HELLO?$AA@ DB 'LEADERHEAD_ANIM'
	DB	'_NEUTRAL_HELLO', 00H			; `string'
CONST	ENDS
;	COMDAT ??_C@_0BG@GPMEBHLE@LEADERHEAD_ANIM_INTRO?$AA@
CONST	SEGMENT
??_C@_0BG@GPMEBHLE@LEADERHEAD_ANIM_INTRO?$AA@ DB 'LEADERHEAD_ANIM_INTRO', 00H ; `string'
CONST	ENDS
;	COMDAT ??_C@_0BD@PAFCIPNG@NO_LEADERHEAD_ANIM?$AA@
CONST	SEGMENT
??_C@_0BD@PAFCIPNG@NO_LEADERHEAD_ANIM?$AA@ DB 'NO_LEADERHEAD_ANIM', 00H ; `string'
CONST	ENDS
;	COMDAT ??_C@_0BJ@FOMMHCOK@LeaderheadAnimationTypes?$AA@
CONST	SEGMENT
??_C@_0BJ@FOMMHCOK@LeaderheadAnimationTypes?$AA@ DB 'LeaderheadAnimationT'
	DB	'ypes', 00H					; `string'
CONST	ENDS
;	COMDAT ??_C@_0BD@CMOKGDOG@NUM_DISPUTE_LEVELS?$AA@
CONST	SEGMENT
??_C@_0BD@CMOKGDOG@NUM_DISPUTE_LEVELS?$AA@ DB 'NUM_DISPUTE_LEVELS', 00H ; `string'
CONST	ENDS
;	COMDAT ??_C@_0BF@ECBMMDA@DISPUTE_LEVEL_FIERCE?$AA@
CONST	SEGMENT
??_C@_0BF@ECBMMDA@DISPUTE_LEVEL_FIERCE?$AA@ DB 'DISPUTE_LEVEL_FIERCE', 00H ; `string'
CONST	ENDS
;	COMDAT ??_C@_0BF@MENCFLBN@DISPUTE_LEVEL_STRONG?$AA@
CONST	SEGMENT
??_C@_0BF@MENCFLBN@DISPUTE_LEVEL_STRONG?$AA@ DB 'DISPUTE_LEVEL_STRONG', 00H ; `string'
CONST	ENDS
;	COMDAT ??_C@_0BD@IBJCPFDP@DISPUTE_LEVEL_WEAK?$AA@
CONST	SEGMENT
??_C@_0BD@IBJCPFDP@DISPUTE_LEVEL_WEAK?$AA@ DB 'DISPUTE_LEVEL_WEAK', 00H ; `string'
CONST	ENDS
;	COMDAT ??_C@_0BD@BGAAIKBL@DISPUTE_LEVEL_NONE?$AA@
CONST	SEGMENT
??_C@_0BD@BGAAIKBL@DISPUTE_LEVEL_NONE?$AA@ DB 'DISPUTE_LEVEL_NONE', 00H ; `string'
CONST	ENDS
;	COMDAT ??_C@_0BB@OJLAJJON@NO_DISPUTE_LEVEL?$AA@
CONST	SEGMENT
??_C@_0BB@OJLAJJON@NO_DISPUTE_LEVEL?$AA@ DB 'NO_DISPUTE_LEVEL', 00H ; `string'
CONST	ENDS
;	COMDAT ??_C@_0BC@JBMEHEFC@DisputeLevelTypes?$AA@
CONST	SEGMENT
??_C@_0BC@JBMEHEFC@DisputeLevelTypes?$AA@ DB 'DisputeLevelTypes', 00H ; `string'
CONST	ENDS
;	COMDAT ??_C@_0BC@GHIDFIC@NUM_THREAT_VALUES?$AA@
CONST	SEGMENT
??_C@_0BC@GHIDFIC@NUM_THREAT_VALUES?$AA@ DB 'NUM_THREAT_VALUES', 00H ; `string'
CONST	ENDS
;	COMDAT ??_C@_0BA@GBLJOA@THREAT_CRITICAL?$AA@
CONST	SEGMENT
??_C@_0BA@GBLJOA@THREAT_CRITICAL?$AA@ DB 'THREAT_CRITICAL', 00H ; `string'
CONST	ENDS
;	COMDAT ??_C@_0O@OGPFNHMH@THREAT_SEVERE?$AA@
CONST	SEGMENT
??_C@_0O@OGPFNHMH@THREAT_SEVERE?$AA@ DB 'THREAT_SEVERE', 00H ; `string'
CONST	ENDS
;	COMDAT ??_C@_0N@ELDJNLIK@THREAT_MAJOR?$AA@
CONST	SEGMENT
??_C@_0N@ELDJNLIK@THREAT_MAJOR?$AA@ DB 'THREAT_MAJOR', 00H ; `string'
CONST	ENDS
;	COMDAT ??_C@_0N@PECLAHBM@THREAT_MINOR?$AA@
CONST	SEGMENT
??_C@_0N@PECLAHBM@THREAT_MINOR?$AA@ DB 'THREAT_MINOR', 00H ; `string'
CONST	ENDS
;	COMDAT ??_C@_0M@OCPDLAEI@THREAT_NONE?$AA@
CONST	SEGMENT
??_C@_0M@OCPDLAEI@THREAT_NONE?$AA@ DB 'THREAT_NONE', 00H ; `string'
CONST	ENDS
;	COMDAT ??_C@_0BA@BBKOBODD@NO_THREAT_VALUE?$AA@
CONST	SEGMENT
??_C@_0BA@BBKOBODD@NO_THREAT_VALUE?$AA@ DB 'NO_THREAT_VALUE', 00H ; `string'
CONST	ENDS
;	COMDAT ??_C@_0M@PDICKBPA@ThreatTypes?$AA@
CONST	SEGMENT
??_C@_0M@PDICKBPA@ThreatTypes?$AA@ DB 'ThreatTypes', 00H ; `string'
CONST	ENDS
;	COMDAT ??_C@_0BE@DJCNDHH@NUM_COOP_WAR_STATES?$AA@
CONST	SEGMENT
??_C@_0BE@DJCNDHH@NUM_COOP_WAR_STATES?$AA@ DB 'NUM_COOP_WAR_STATES', 00H ; `string'
CONST	ENDS
;	COMDAT ??_C@_0BI@DOFNNBH@COOP_WAR_STATE_ACCEPTED?$AA@
CONST	SEGMENT
??_C@_0BI@DOFNNBH@COOP_WAR_STATE_ACCEPTED?$AA@ DB 'COOP_WAR_STATE_ACCEPTE'
	DB	'D', 00H					; `string'
CONST	ENDS
;	COMDAT ??_C@_0BE@MBJIAMOK@COOP_WAR_STATE_SOON?$AA@
CONST	SEGMENT
??_C@_0BE@MBJIAMOK@COOP_WAR_STATE_SOON?$AA@ DB 'COOP_WAR_STATE_SOON', 00H ; `string'
CONST	ENDS
;	COMDAT ??_C@_0BI@OCBPACKF@COOP_WAR_STATE_REJECTED?$AA@
CONST	SEGMENT
??_C@_0BI@OCBPACKF@COOP_WAR_STATE_REJECTED?$AA@ DB 'COOP_WAR_STATE_REJECT'
	DB	'ED', 00H					; `string'
CONST	ENDS
;	COMDAT ??_C@_0BC@LFHNDIOB@NO_COOP_WAR_STATE?$AA@
CONST	SEGMENT
??_C@_0BC@LFHNDIOB@NO_COOP_WAR_STATE?$AA@ DB 'NO_COOP_WAR_STATE', 00H ; `string'
CONST	ENDS
;	COMDAT ??_C@_0O@OINBJCPN@CoopWarStates?$AA@
CONST	SEGMENT
??_C@_0O@OINBJCPN@CoopWarStates?$AA@ DB 'CoopWarStates', 00H ; `string'
CONST	ENDS
;	COMDAT ??_C@_0BJ@KPMMBCFP@NUM_FROM_UI_DIPLO_EVENTS?$AA@
CONST	SEGMENT
??_C@_0BJ@KPMMBCFP@NUM_FROM_UI_DIPLO_EVENTS?$AA@ DB 'NUM_FROM_UI_DIPLO_EV'
	DB	'ENTS', 00H					; `string'
CONST	ENDS
;	COMDAT ??_C@_0CB@HGBCEFNN@FROM_UI_DIPLO_EVENT_STOP_DIGGING@
CONST	SEGMENT
??_C@_0CB@HGBCEFNN@FROM_UI_DIPLO_EVENT_STOP_DIGGING@ DB 'FROM_UI_DIPLO_EV'
	DB	'ENT_STOP_DIGGING', 00H			; `string'
CONST	ENDS
;	COMDAT ??_C@_0DC@BKLKENLG@FROM_UI_DIPLO_EVENT_HUMAN_DISCUS@
CONST	SEGMENT
??_C@_0DC@BKLKENLG@FROM_UI_DIPLO_EVENT_HUMAN_DISCUS@ DB 'FROM_UI_DIPLO_EV'
	DB	'ENT_HUMAN_DISCUSSION_STOP_DIGGING', 00H	; `string'
CONST	ENDS
;	COMDAT ??_C@_0CF@KKOOKLPH@FROM_UI_DIPLO_EVENT_STOP_CONVERS@
CONST	SEGMENT
??_C@_0CF@KKOOKLPH@FROM_UI_DIPLO_EVENT_STOP_CONVERS@ DB 'FROM_UI_DIPLO_EV'
	DB	'ENT_STOP_CONVERSIONS', 00H			; `string'
CONST	ENDS
;	COMDAT ??_C@_0DN@BHIIOLF@FROM_UI_DIPLO_EVENT_HUMAN_DISCUS@
CONST	SEGMENT
??_C@_0DN@BHIIOLF@FROM_UI_DIPLO_EVENT_HUMAN_DISCUS@ DB 'FROM_UI_DIPLO_EVE'
	DB	'NT_HUMAN_DISCUSSION_STOP_SPREADING_RELIGION', 00H ; `string'
CONST	ENDS
;	COMDAT ??_C@_0DE@GEOBDLM@FROM_UI_DIPLO_EVENT_HUMAN_DISCUS@
CONST	SEGMENT
??_C@_0DE@GEOBDLM@FROM_UI_DIPLO_EVENT_HUMAN_DISCUS@ DB 'FROM_UI_DIPLO_EVE'
	DB	'NT_HUMAN_DISCUSSION_SHARE_INTRIGUE', 00H	; `string'
CONST	ENDS
;	COMDAT ??_C@_0DB@OFADBNCI@FROM_UI_DIPLO_EVENT_HUMAN_DISCUS@
CONST	SEGMENT
??_C@_0DB@OFADBNCI@FROM_UI_DIPLO_EVENT_HUMAN_DISCUS@ DB 'FROM_UI_DIPLO_EV'
	DB	'ENT_HUMAN_DISCUSSION_STOP_SPYING', 00H	; `string'
CONST	ENDS
;	COMDAT ??_C@_0CL@CBIFPGNP@FROM_UI_DIPLO_EVENT_KILLED_MY_SP@
CONST	SEGMENT
??_C@_0CL@CBIFPGNP@FROM_UI_DIPLO_EVENT_KILLED_MY_SP@ DB 'FROM_UI_DIPLO_EV'
	DB	'ENT_KILLED_MY_SPY_RESPONSE', 00H		; `string'
CONST	ENDS
;	COMDAT ??_C@_0CN@FPPGOA@FROM_UI_DIPLO_EVENT_CAUGHT_YOUR_@
CONST	SEGMENT
??_C@_0CN@FPPGOA@FROM_UI_DIPLO_EVENT_CAUGHT_YOUR_@ DB 'FROM_UI_DIPLO_EVEN'
	DB	'T_CAUGHT_YOUR_SPY_RESPONSE', 00H		; `string'
CONST	ENDS
;	COMDAT ??_C@_0DB@IKMCOBAH@FROM_UI_DIPLO_EVENT_AI_REQUEST_D@
CONST	SEGMENT
??_C@_0DB@IKMCOBAH@FROM_UI_DIPLO_EVENT_AI_REQUEST_D@ DB 'FROM_UI_DIPLO_EV'
	DB	'ENT_AI_REQUEST_DENOUNCE_RESPONSE', 00H	; `string'
CONST	ENDS
;	COMDAT ??_C@_0CF@GDCIHPFP@FROM_UI_DIPLO_EVENT_PLAN_RA_RESP@
CONST	SEGMENT
??_C@_0CF@GDCIHPFP@FROM_UI_DIPLO_EVENT_PLAN_RA_RESP@ DB 'FROM_UI_DIPLO_EV'
	DB	'ENT_PLAN_RA_RESPONSE', 00H			; `string'
CONST	ENDS
;	COMDAT ??_C@_0CB@DMCFJLNF@FROM_UI_DIPLO_EVENT_HUMAN_DEMAND@
CONST	SEGMENT
??_C@_0CB@DMCFJLNF@FROM_UI_DIPLO_EVENT_HUMAN_DEMAND@ DB 'FROM_UI_DIPLO_EV'
	DB	'ENT_HUMAN_DEMAND', 00H			; `string'
CONST	ENDS
;	COMDAT ??_C@_0CK@GBOPECGO@FROM_UI_DIPLO_EVENT_COOP_WAR_NOW@
CONST	SEGMENT
??_C@_0CK@GBOPECGO@FROM_UI_DIPLO_EVENT_COOP_WAR_NOW@ DB 'FROM_UI_DIPLO_EV'
	DB	'ENT_COOP_WAR_NOW_RESPONSE', 00H		; `string'
CONST	ENDS
;	COMDAT ??_C@_0CG@HNHFMFGG@FROM_UI_DIPLO_EVENT_COOP_WAR_RES@
CONST	SEGMENT
??_C@_0CG@HNHFMFGG@FROM_UI_DIPLO_EVENT_COOP_WAR_RES@ DB 'FROM_UI_DIPLO_EV'
	DB	'ENT_COOP_WAR_RESPONSE', 00H			; `string'
CONST	ENDS
;	COMDAT ??_C@_0CD@OIKKCKMA@FROM_UI_DIPLO_EVENT_COOP_WAR_OFF@
CONST	SEGMENT
??_C@_0CD@OIKKCKMA@FROM_UI_DIPLO_EVENT_COOP_WAR_OFF@ DB 'FROM_UI_DIPLO_EV'
	DB	'ENT_COOP_WAR_OFFER', 00H			; `string'
CONST	ENDS
;	COMDAT ??_C@_0BN@LEJDAJIK@FROM_UI_DIPLO_EVENT_DENOUNCE?$AA@
CONST	SEGMENT
??_C@_0BN@LEJDAJIK@FROM_UI_DIPLO_EVENT_DENOUNCE?$AA@ DB 'FROM_UI_DIPLO_EV'
	DB	'ENT_DENOUNCE', 00H				; `string'
CONST	ENDS
;	COMDAT ??_C@_0DC@HKMAHJDF@FROM_UI_DIPLO_EVENT_WORK_AGAINST@
CONST	SEGMENT
??_C@_0DC@HKMAHJDF@FROM_UI_DIPLO_EVENT_WORK_AGAINST@ DB 'FROM_UI_DIPLO_EV'
	DB	'ENT_WORK_AGAINST_SOMEONE_RESPONSE', 00H	; `string'
CONST	ENDS
;	COMDAT ??_C@_0CK@BGGKECNA@FROM_UI_DIPLO_EVENT_WORK_WITH_US@
CONST	SEGMENT
??_C@_0CK@BGGKECNA@FROM_UI_DIPLO_EVENT_WORK_WITH_US@ DB 'FROM_UI_DIPLO_EV'
	DB	'ENT_WORK_WITH_US_RESPONSE', 00H		; `string'
CONST	ENDS
;	COMDAT ??_C@_0DB@BFJIFDEL@FROM_UI_DIPLO_EVENT_PLOT_BUYING_@
CONST	SEGMENT
??_C@_0DB@BFJIFDEL@FROM_UI_DIPLO_EVENT_PLOT_BUYING_@ DB 'FROM_UI_DIPLO_EV'
	DB	'ENT_PLOT_BUYING_WARNING_RESPONSE', 00H	; `string'
CONST	ENDS
;	COMDAT ??_C@_0DJ@MNMDLGPL@FROM_UI_DIPLO_EVENT_PLOT_BUYING_@
CONST	SEGMENT
??_C@_0DJ@MNMDLGPL@FROM_UI_DIPLO_EVENT_PLOT_BUYING_@ DB 'FROM_UI_DIPLO_EV'
	DB	'ENT_PLOT_BUYING_SERIOUS_WARNING_RESPONSE', 00H ; `string'
CONST	ENDS
;	COMDAT ??_C@_0CP@BFPFAJLG@FROM_UI_DIPLO_EVENT_EXPANSION_WA@
CONST	SEGMENT
??_C@_0CP@BFPFAJLG@FROM_UI_DIPLO_EVENT_EXPANSION_WA@ DB 'FROM_UI_DIPLO_EV'
	DB	'ENT_EXPANSION_WARNING_RESPONSE', 00H	; `string'
CONST	ENDS
;	COMDAT ??_C@_0DH@JKGCBNBN@FROM_UI_DIPLO_EVENT_EXPANSION_SE@
CONST	SEGMENT
??_C@_0DH@JKGCBNBN@FROM_UI_DIPLO_EVENT_EXPANSION_SE@ DB 'FROM_UI_DIPLO_EV'
	DB	'ENT_EXPANSION_SERIOUS_WARNING_RESPONSE', 00H ; `string'
CONST	ENDS
;	COMDAT ??_C@_0CL@MEHFCOOL@FROM_UI_DIPLO_EVENT_BULLIED_MINO@
CONST	SEGMENT
??_C@_0CL@MEHFCOOL@FROM_UI_DIPLO_EVENT_BULLIED_MINO@ DB 'FROM_UI_DIPLO_EV'
	DB	'ENT_BULLIED_MINOR_RESPONSE', 00H		; `string'
CONST	ENDS
;	COMDAT ??_C@_0CK@DDDGBDBO@FROM_UI_DIPLO_EVENT_KILLED_MINOR@
CONST	SEGMENT
??_C@_0CK@DDDGBDBO@FROM_UI_DIPLO_EVENT_KILLED_MINOR@ DB 'FROM_UI_DIPLO_EV'
	DB	'ENT_KILLED_MINOR_RESPONSE', 00H		; `string'
CONST	ENDS
;	COMDAT ??_C@_0CM@IGCDDKNH@FROM_UI_DIPLO_EVENT_ATTACKED_MIN@
CONST	SEGMENT
??_C@_0CM@IGCDDKNH@FROM_UI_DIPLO_EVENT_ATTACKED_MIN@ DB 'FROM_UI_DIPLO_EV'
	DB	'ENT_ATTACKED_MINOR_RESPONSE', 00H		; `string'
CONST	ENDS
;	COMDAT ??_C@_0DG@LMNEKMPO@FROM_UI_DIPLO_EVENT_I_BULLIED_YO@
CONST	SEGMENT
??_C@_0DG@LMNEKMPO@FROM_UI_DIPLO_EVENT_I_BULLIED_YO@ DB 'FROM_UI_DIPLO_EV'
	DB	'ENT_I_BULLIED_YOUR_MINOR_CIV_RESPONSE', 00H	; `string'
CONST	ENDS
;	COMDAT ??_C@_0DH@JBBPJPBM@FROM_UI_DIPLO_EVENT_I_ATTACKED_Y@
CONST	SEGMENT
??_C@_0DH@JBBPJPBM@FROM_UI_DIPLO_EVENT_I_ATTACKED_Y@ DB 'FROM_UI_DIPLO_EV'
	DB	'ENT_I_ATTACKED_YOUR_MINOR_CIV_RESPONSE', 00H ; `string'
CONST	ENDS
;	COMDAT ??_C@_0DJ@GKMBCIJD@FROM_UI_DIPLO_EVENT_AGGRESSIVE_M@
CONST	SEGMENT
??_C@_0DJ@GKMBCIJD@FROM_UI_DIPLO_EVENT_AGGRESSIVE_M@ DB 'FROM_UI_DIPLO_EV'
	DB	'ENT_AGGRESSIVE_MILITARY_WARNING_RESPONSE', 00H ; `string'
CONST	ENDS
;	COMDAT ??_C@_0CK@NELKIIPF@FROM_UI_DIPLO_EVENT_REQUEST_HUMA@
CONST	SEGMENT
??_C@_0CK@NELKIIPF@FROM_UI_DIPLO_EVENT_REQUEST_HUMA@ DB 'FROM_UI_DIPLO_EV'
	DB	'ENT_REQUEST_HUMAN_REFUSAL', 00H		; `string'
CONST	ENDS
;	COMDAT ??_C@_0CJ@MIAOPDBO@FROM_UI_DIPLO_EVENT_DEMAND_HUMAN@
CONST	SEGMENT
??_C@_0CJ@MIAOPDBO@FROM_UI_DIPLO_EVENT_DEMAND_HUMAN@ DB 'FROM_UI_DIPLO_EV'
	DB	'ENT_DEMAND_HUMAN_REFUSAL', 00H		; `string'
CONST	ENDS
;	COMDAT ??_C@_0DG@LDILPEL@FROM_UI_DIPLO_EVENT_HUMAN_DISCUS@
CONST	SEGMENT
??_C@_0DG@LDILPEL@FROM_UI_DIPLO_EVENT_HUMAN_DISCUS@ DB 'FROM_UI_DIPLO_EVE'
	DB	'NT_HUMAN_DISCUSSION_END_WORK_WITH_US', 00H	; `string'
CONST	ENDS
;	COMDAT ??_C@_0DC@KDCMNPKK@FROM_UI_DIPLO_EVENT_HUMAN_DISCUS@
CONST	SEGMENT
??_C@_0DC@KDCMNPKK@FROM_UI_DIPLO_EVENT_HUMAN_DISCUS@ DB 'FROM_UI_DIPLO_EV'
	DB	'ENT_HUMAN_DISCUSSION_WORK_WITH_US', 00H	; `string'
CONST	ENDS
;	COMDAT ??_C@_0DB@JKDAAONB@FROM_UI_DIPLO_EVENT_HUMAN_DISCUS@
CONST	SEGMENT
??_C@_0DB@JKDAAONB@FROM_UI_DIPLO_EVENT_HUMAN_DISCUS@ DB 'FROM_UI_DIPLO_EV'
	DB	'ENT_HUMAN_DISCUSSION_DONT_SETTLE', 00H	; `string'
CONST	ENDS
;	COMDAT ??_C@_0CL@FNANEKID@FROM_UI_DIPLO_EVENT_HUMAN_WANTS_@
CONST	SEGMENT
??_C@_0CL@FNANEKID@FROM_UI_DIPLO_EVENT_HUMAN_WANTS_@ DB 'FROM_UI_DIPLO_EV'
	DB	'ENT_HUMAN_WANTS_DISCUSSION', 00H		; `string'
CONST	ENDS
;	COMDAT ??_C@_0CK@JJFPBINN@FROM_UI_DIPLO_EVENT_HUMAN_NEGOTI@
CONST	SEGMENT
??_C@_0CK@JJFPBINN@FROM_UI_DIPLO_EVENT_HUMAN_NEGOTI@ DB 'FROM_UI_DIPLO_EV'
	DB	'ENT_HUMAN_NEGOTIATE_PEACE', 00H		; `string'
CONST	ENDS
;	COMDAT ??_C@_0CH@BFDIBIAJ@FROM_UI_DIPLO_EVENT_HUMAN_DECLAR@
CONST	SEGMENT
??_C@_0CH@BFDIBIAJ@FROM_UI_DIPLO_EVENT_HUMAN_DECLAR@ DB 'FROM_UI_DIPLO_EV'
	DB	'ENT_HUMAN_DECLARES_WAR', 00H		; `string'
CONST	ENDS
;	COMDAT ??_C@_0BH@PIJIFMAP@NO_FROM_UI_DIPLO_EVENT?$AA@
CONST	SEGMENT
??_C@_0BH@PIJIFMAP@NO_FROM_UI_DIPLO_EVENT?$AA@ DB 'NO_FROM_UI_DIPLO_EVENT'
	DB	00H						; `string'
CONST	ENDS
;	COMDAT ??_C@_0BG@FPINCIBE@FromUIDiploEventTypes?$AA@
CONST	SEGMENT
??_C@_0BG@FPINCIBE@FromUIDiploEventTypes?$AA@ DB 'FromUIDiploEventTypes', 00H ; `string'
CONST	ENDS
;	COMDAT ??_C@_0BG@DOBFJIMD@NO_POLICY_BRANCH_TYPE?$AA@
CONST	SEGMENT
??_C@_0BG@DOBFJIMD@NO_POLICY_BRANCH_TYPE?$AA@ DB 'NO_POLICY_BRANCH_TYPE', 00H ; `string'
CONST	ENDS
;	COMDAT ??_C@_0BC@KKBMLBIO@PolicyBranchTypes?$AA@
CONST	SEGMENT
??_C@_0BC@KKBMLBIO@PolicyBranchTypes?$AA@ DB 'PolicyBranchTypes', 00H ; `string'
CONST	ENDS
;	COMDAT ??_C@_0BN@JKCGHEC@FLOWDIRECTION_NORTHEAST_MASK?$AA@
CONST	SEGMENT
??_C@_0BN@JKCGHEC@FLOWDIRECTION_NORTHEAST_MASK?$AA@ DB 'FLOWDIRECTION_NOR'
	DB	'THEAST_MASK', 00H				; `string'
CONST	ENDS
;	COMDAT ??_C@_0BN@LCAKIMIA@FLOWDIRECTION_SOUTHWEST_MASK?$AA@
CONST	SEGMENT
??_C@_0BN@LCAKIMIA@FLOWDIRECTION_SOUTHWEST_MASK?$AA@ DB 'FLOWDIRECTION_SO'
	DB	'UTHWEST_MASK', 00H				; `string'
CONST	ENDS
;	COMDAT ??_C@_0BN@HHBFGHJL@FLOWDIRECTION_NORTHWEST_MASK?$AA@
CONST	SEGMENT
??_C@_0BN@HHBFGHJL@FLOWDIRECTION_NORTHWEST_MASK?$AA@ DB 'FLOWDIRECTION_NO'
	DB	'RTHWEST_MASK', 00H				; `string'
CONST	ENDS
;	COMDAT ??_C@_0BN@MMLNIMFJ@FLOWDIRECTION_SOUTHEAST_MASK?$AA@
CONST	SEGMENT
??_C@_0BN@MMLNIMFJ@FLOWDIRECTION_SOUTHEAST_MASK?$AA@ DB 'FLOWDIRECTION_SO'
	DB	'UTHEAST_MASK', 00H				; `string'
CONST	ENDS
;	COMDAT ??_C@_0BJ@NCDOPIKP@FLOWDIRECTION_SOUTH_MASK?$AA@
CONST	SEGMENT
??_C@_0BJ@NCDOPIKP@FLOWDIRECTION_SOUTH_MASK?$AA@ DB 'FLOWDIRECTION_SOUTH_'
	DB	'MASK', 00H					; `string'
CONST	ENDS
;	COMDAT ??_C@_0BJ@NDDNBMKK@FLOWDIRECTION_NORTH_MASK?$AA@
CONST	SEGMENT
??_C@_0BJ@NDDNBMKK@FLOWDIRECTION_NORTH_MASK?$AA@ DB 'FLOWDIRECTION_NORTH_'
	DB	'MASK', 00H					; `string'
CONST	ENDS
;	COMDAT ??_C@_0BI@NNPPPCPE@NUM_FLOWDIRECTION_TYPES?$AA@
CONST	SEGMENT
??_C@_0BI@NNPPPCPE@NUM_FLOWDIRECTION_TYPES?$AA@ DB 'NUM_FLOWDIRECTION_TYP'
	DB	'ES', 00H					; `string'
CONST	ENDS
;	COMDAT ??_C@_0BI@KPMBELII@FLOWDIRECTION_NORTHWEST?$AA@
CONST	SEGMENT
??_C@_0BI@KPMBELII@FLOWDIRECTION_NORTHWEST?$AA@ DB 'FLOWDIRECTION_NORTHWE'
	DB	'ST', 00H					; `string'
CONST	ENDS
;	COMDAT ??_C@_0BI@HHFEEIMJ@FLOWDIRECTION_SOUTHWEST?$AA@
CONST	SEGMENT
??_C@_0BI@HHFEEIMJ@FLOWDIRECTION_SOUTHWEST?$AA@ DB 'FLOWDIRECTION_SOUTHWE'
	DB	'ST', 00H					; `string'
CONST	ENDS
;	COMDAT ??_C@_0BE@BAKNGBHI@FLOWDIRECTION_SOUTH?$AA@
CONST	SEGMENT
??_C@_0BE@BAKNGBHI@FLOWDIRECTION_SOUTH?$AA@ DB 'FLOWDIRECTION_SOUTH', 00H ; `string'
CONST	ENDS
;	COMDAT ??_C@_0BI@OCBGBLHM@FLOWDIRECTION_SOUTHEAST?$AA@
CONST	SEGMENT
??_C@_0BI@OCBGBLHM@FLOWDIRECTION_SOUTHEAST?$AA@ DB 'FLOWDIRECTION_SOUTHEA'
	DB	'ST', 00H					; `string'
CONST	ENDS
;	COMDAT ??_C@_0BI@DKIDBIDN@FLOWDIRECTION_NORTHEAST?$AA@
CONST	SEGMENT
??_C@_0BI@DKIDBIDN@FLOWDIRECTION_NORTHEAST?$AA@ DB 'FLOWDIRECTION_NORTHEA'
	DB	'ST', 00H					; `string'
CONST	ENDS
;	COMDAT ??_C@_0BE@DCDCEIIE@FLOWDIRECTION_NORTH?$AA@
CONST	SEGMENT
??_C@_0BE@DCDCEIIE@FLOWDIRECTION_NORTH?$AA@ DB 'FLOWDIRECTION_NORTH', 00H ; `string'
CONST	ENDS
;	COMDAT ??_C@_0BB@IOOGEDJF@NO_FLOWDIRECTION?$AA@
CONST	SEGMENT
??_C@_0BB@IOOGEDJF@NO_FLOWDIRECTION?$AA@ DB 'NO_FLOWDIRECTION', 00H ; `string'
CONST	ENDS
;	COMDAT ??_C@_0BD@MHEGNPFA@FlowDirectionTypes?$AA@
CONST	SEGMENT
??_C@_0BD@MHEGNPFA@FlowDirectionTypes?$AA@ DB 'FlowDirectionTypes', 00H ; `string'
CONST	ENDS
;	COMDAT ??_C@_0BE@HEABJJMM@NUM_DIPLO_UI_STATES?$AA@
CONST	SEGMENT
??_C@_0BE@HEABJJMM@NUM_DIPLO_UI_STATES?$AA@ DB 'NUM_DIPLO_UI_STATES', 00H ; `string'
CONST	ENDS
;	COMDAT ??_C@_0BM@DBNJHNGO@DIPLO_UI_STATE_STOP_DIGGING?$AA@
CONST	SEGMENT
??_C@_0BM@DBNJHNGO@DIPLO_UI_STATE_STOP_DIGGING?$AA@ DB 'DIPLO_UI_STATE_ST'
	DB	'OP_DIGGING', 00H				; `string'
CONST	ENDS
;	COMDAT ??_C@_0CA@EPOHCEBN@DIPLO_UI_STATE_STOP_CONVERSIONS?$AA@
CONST	SEGMENT
??_C@_0CA@EPOHCEBN@DIPLO_UI_STATE_STOP_CONVERSIONS?$AA@ DB 'DIPLO_UI_STAT'
	DB	'E_STOP_CONVERSIONS', 00H			; `string'
CONST	ENDS
;	COMDAT ??_C@_0CK@FOJFJKBG@DIPLO_UI_STATE_CONFRONT_YOU_KILL@
CONST	SEGMENT
??_C@_0CK@FOJFJKBG@DIPLO_UI_STATE_CONFRONT_YOU_KILL@ DB 'DIPLO_UI_STATE_C'
	DB	'ONFRONT_YOU_KILLED_MY_SPY', 00H		; `string'
CONST	ENDS
;	COMDAT ??_C@_0BN@PHLOFOIA@DIPLO_UI_STATE_KILLED_MY_SPY?$AA@
CONST	SEGMENT
??_C@_0BN@PHLOFOIA@DIPLO_UI_STATE_KILLED_MY_SPY?$AA@ DB 'DIPLO_UI_STATE_K'
	DB	'ILLED_MY_SPY', 00H				; `string'
CONST	ENDS
;	COMDAT ??_C@_0BP@HJKMALCE@DIPLO_UI_STATE_KILLED_YOUR_SPY?$AA@
CONST	SEGMENT
??_C@_0BP@HJKMALCE@DIPLO_UI_STATE_KILLED_YOUR_SPY?$AA@ DB 'DIPLO_UI_STATE'
	DB	'_KILLED_YOUR_SPY', 00H			; `string'
CONST	ENDS
;	COMDAT ??_C@_0BP@NKECOBEG@DIPLO_UI_STATE_CAUGHT_YOUR_SPY?$AA@
CONST	SEGMENT
??_C@_0BP@NKECOBEG@DIPLO_UI_STATE_CAUGHT_YOUR_SPY?$AA@ DB 'DIPLO_UI_STATE'
	DB	'_CAUGHT_YOUR_SPY', 00H			; `string'
CONST	ENDS
;	COMDAT ??_C@_0CL@DKHKFHFF@DIPLO_UI_STATE_DISCUSS_AI_REQUES@
CONST	SEGMENT
??_C@_0CL@DKHKFHFF@DIPLO_UI_STATE_DISCUSS_AI_REQUES@ DB 'DIPLO_UI_STATE_D'
	DB	'ISCUSS_AI_REQUEST_DENOUNCE', 00H		; `string'
CONST	ENDS
;	COMDAT ??_C@_0CP@PCDIFFCG@DIPLO_UI_STATE_DISCUSS_PLAN_RESE@
CONST	SEGMENT
??_C@_0CP@PCDIFFCG@DIPLO_UI_STATE_DISCUSS_PLAN_RESE@ DB 'DIPLO_UI_STATE_D'
	DB	'ISCUSS_PLAN_RESEARCH_AGREEMENT', 00H	; `string'
CONST	ENDS
;	COMDAT ??_C@_0CF@MLCEBPMC@DIPLO_UI_STATE_DISCUSS_COOP_WAR_@
CONST	SEGMENT
??_C@_0CF@MLCEBPMC@DIPLO_UI_STATE_DISCUSS_COOP_WAR_@ DB 'DIPLO_UI_STATE_D'
	DB	'ISCUSS_COOP_WAR_TIME', 00H			; `string'
CONST	ENDS
;	COMDAT ??_C@_0CA@EJIKFKII@DIPLO_UI_STATE_DISCUSS_COOP_WAR?$AA@
CONST	SEGMENT
??_C@_0CA@EJIKFKII@DIPLO_UI_STATE_DISCUSS_COOP_WAR?$AA@ DB 'DIPLO_UI_STAT'
	DB	'E_DISCUSS_COOP_WAR', 00H			; `string'
CONST	ENDS
;	COMDAT ??_C@_0CM@DNBDDIMD@DIPLO_UI_STATE_DISCUSS_WORK_AGAI@
CONST	SEGMENT
??_C@_0CM@DNBDDIMD@DIPLO_UI_STATE_DISCUSS_WORK_AGAI@ DB 'DIPLO_UI_STATE_D'
	DB	'ISCUSS_WORK_AGAINST_SOMEONE', 00H		; `string'
CONST	ENDS
;	COMDAT ??_C@_0CE@KMICMABC@DIPLO_UI_STATE_DISCUSS_WORK_WITH@
CONST	SEGMENT
??_C@_0CE@KMICMABC@DIPLO_UI_STATE_DISCUSS_WORK_WITH@ DB 'DIPLO_UI_STATE_D'
	DB	'ISCUSS_WORK_WITH_US', 00H			; `string'
CONST	ENDS
;	COMDAT ??_C@_0CP@PHGIEGNL@DIPLO_UI_STATE_DISCUSS_YOU_PLOT_@
CONST	SEGMENT
??_C@_0CP@PHGIEGNL@DIPLO_UI_STATE_DISCUSS_YOU_PLOT_@ DB 'DIPLO_UI_STATE_D'
	DB	'ISCUSS_YOU_PLOT_BUYING_WARNING', 00H	; `string'
CONST	ENDS
;	COMDAT ??_C@_0DH@JIFPOIOM@DIPLO_UI_STATE_DISCUSS_YOU_PLOT_@
CONST	SEGMENT
??_C@_0DH@JIFPOIOM@DIPLO_UI_STATE_DISCUSS_YOU_PLOT_@ DB 'DIPLO_UI_STATE_D'
	DB	'ISCUSS_YOU_PLOT_BUYING_SERIOUS_WARNING', 00H ; `string'
CONST	ENDS
;	COMDAT ??_C@_0CN@DFCCEIEC@DIPLO_UI_STATE_DISCUSS_YOU_EXPAN@
CONST	SEGMENT
??_C@_0CN@DFCCEIEC@DIPLO_UI_STATE_DISCUSS_YOU_EXPAN@ DB 'DIPLO_UI_STATE_D'
	DB	'ISCUSS_YOU_EXPANSION_WARNING', 00H		; `string'
CONST	ENDS
;	COMDAT ??_C@_0DF@MFLJKONK@DIPLO_UI_STATE_DISCUSS_YOU_EXPAN@
CONST	SEGMENT
??_C@_0DF@MFLJKONK@DIPLO_UI_STATE_DISCUSS_YOU_EXPAN@ DB 'DIPLO_UI_STATE_D'
	DB	'ISCUSS_YOU_EXPANSION_SERIOUS_WARNING', 00H	; `string'
CONST	ENDS
;	COMDAT ??_C@_0CJ@LPNHCGMM@DIPLO_UI_STATE_DISCUSS_PROTECT_M@
CONST	SEGMENT
??_C@_0CJ@LPNHCGMM@DIPLO_UI_STATE_DISCUSS_PROTECT_M@ DB 'DIPLO_UI_STATE_D'
	DB	'ISCUSS_PROTECT_MINOR_CIV', 00H		; `string'
CONST	ENDS
;	COMDAT ??_C@_0CN@FJECNCOK@DIPLO_UI_STATE_DISCUSS_YOU_BULLI@
CONST	SEGMENT
??_C@_0CN@FJECNCOK@DIPLO_UI_STATE_DISCUSS_YOU_BULLI@ DB 'DIPLO_UI_STATE_D'
	DB	'ISCUSS_YOU_BULLIED_MINOR_CIV', 00H		; `string'
CONST	ENDS
;	COMDAT ??_C@_0CM@JAEDGCMC@DIPLO_UI_STATE_DISCUSS_YOU_KILLE@
CONST	SEGMENT
??_C@_0CM@JAEDGCMC@DIPLO_UI_STATE_DISCUSS_YOU_KILLE@ DB 'DIPLO_UI_STATE_D'
	DB	'ISCUSS_YOU_KILLED_MINOR_CIV', 00H		; `string'
CONST	ENDS
;	COMDAT ??_C@_0CO@CEBKIPCI@DIPLO_UI_STATE_DISCUSS_YOU_ATTAC@
CONST	SEGMENT
??_C@_0CO@CEBKIPCI@DIPLO_UI_STATE_DISCUSS_YOU_ATTAC@ DB 'DIPLO_UI_STATE_D'
	DB	'ISCUSS_YOU_ATTACKED_MINOR_CIV', 00H		; `string'
CONST	ENDS
;	COMDAT ??_C@_0DA@EEOIAJPP@DIPLO_UI_STATE_DISCUSS_I_BULLIED@
CONST	SEGMENT
??_C@_0DA@EEOIAJPP@DIPLO_UI_STATE_DISCUSS_I_BULLIED@ DB 'DIPLO_UI_STATE_D'
	DB	'ISCUSS_I_BULLIED_YOUR_MINOR_CIV', 00H	; `string'
CONST	ENDS
;	COMDAT ??_C@_0DB@GGOEDCND@DIPLO_UI_STATE_DISCUSS_I_ATTACKE@
CONST	SEGMENT
??_C@_0DB@GGOEDCND@DIPLO_UI_STATE_DISCUSS_I_ATTACKE@ DB 'DIPLO_UI_STATE_D'
	DB	'ISCUSS_I_ATTACKED_YOUR_MINOR_CIV', 00H	; `string'
CONST	ENDS
;	COMDAT ??_C@_0DD@ICJDAMAO@DIPLO_UI_STATE_DISCUSS_AGGRESSIV@
CONST	SEGMENT
??_C@_0DD@ICJDAMAO@DIPLO_UI_STATE_DISCUSS_AGGRESSIV@ DB 'DIPLO_UI_STATE_D'
	DB	'ISCUSS_AGGRESSIVE_MILITARY_WARNING', 00H	; `string'
CONST	ENDS
;	COMDAT ??_C@_0CF@EBGJLKP@DIPLO_UI_STATE_DISCUSS_HUMAN_INV@
CONST	SEGMENT
??_C@_0CF@EBGJLKP@DIPLO_UI_STATE_DISCUSS_HUMAN_INV@ DB 'DIPLO_UI_STATE_DI'
	DB	'SCUSS_HUMAN_INVOKED', 00H			; `string'
CONST	ENDS
;	COMDAT ??_C@_0BP@BLOIGKLK@DIPLO_UI_STATE_AI_DECLARED_WAR?$AA@
CONST	SEGMENT
??_C@_0BP@BLOIGKLK@DIPLO_UI_STATE_AI_DECLARED_WAR?$AA@ DB 'DIPLO_UI_STATE'
	DB	'_AI_DECLARED_WAR', 00H			; `string'
CONST	ENDS
;	COMDAT ??_C@_0CI@FENJDFGF@DIPLO_UI_STATE_BLANK_DISCUSSION_@
CONST	SEGMENT
??_C@_0CI@FENJDFGF@DIPLO_UI_STATE_BLANK_DISCUSSION_@ DB 'DIPLO_UI_STATE_B'
	DB	'LANK_DISCUSSION_MEAN_AI', 00H		; `string'
CONST	ENDS
;	COMDAT ??_C@_0CL@OHOBIPIO@DIPLO_UI_STATE_BLANK_DISCUSSION_@
CONST	SEGMENT
??_C@_0CL@OHOBIPIO@DIPLO_UI_STATE_BLANK_DISCUSSION_@ DB 'DIPLO_UI_STATE_B'
	DB	'LANK_DISCUSSION_MEAN_HUMAN', 00H		; `string'
CONST	ENDS
;	COMDAT ??_C@_0CA@OOFPCPF@DIPLO_UI_STATE_BLANK_DISCUSSION?$AA@
CONST	SEGMENT
??_C@_0CA@OOFPCPF@DIPLO_UI_STATE_BLANK_DISCUSSION?$AA@ DB 'DIPLO_UI_STATE'
	DB	'_BLANK_DISCUSSION', 00H			; `string'
CONST	ENDS
;	COMDAT ??_C@_0CP@NGPMJJPK@DIPLO_UI_STATE_BLANK_DISCUSSION_@
CONST	SEGMENT
??_C@_0CP@NGPMJJPK@DIPLO_UI_STATE_BLANK_DISCUSSION_@ DB 'DIPLO_UI_STATE_B'
	DB	'LANK_DISCUSSION_RETURN_TO_ROOT', 00H	; `string'
CONST	ENDS
;	COMDAT ??_C@_0BM@HLOOKDGG@DIPLO_UI_STATE_HUMAN_DEMAND?$AA@
CONST	SEGMENT
??_C@_0BM@HLOOKDGG@DIPLO_UI_STATE_HUMAN_DEMAND?$AA@ DB 'DIPLO_UI_STATE_HU'
	DB	'MAN_DEMAND', 00H				; `string'
CONST	ENDS
;	COMDAT ??_C@_0CO@PHAGDBOM@DIPLO_UI_STATE_TRADE_HUMAN_OFFER@
CONST	SEGMENT
??_C@_0CO@PHAGDBOM@DIPLO_UI_STATE_TRADE_HUMAN_OFFER@ DB 'DIPLO_UI_STATE_T'
	DB	'RADE_HUMAN_OFFERS_CONCESSIONS', 00H		; `string'
CONST	ENDS
;	COMDAT ??_C@_0CG@BJIFDMFD@DIPLO_UI_STATE_TRADE_AI_MAKES_RE@
CONST	SEGMENT
??_C@_0CG@BJIFDMFD@DIPLO_UI_STATE_TRADE_AI_MAKES_RE@ DB 'DIPLO_UI_STATE_T'
	DB	'RADE_AI_MAKES_REQUEST', 00H			; `string'
CONST	ENDS
;	COMDAT ??_C@_0CF@PCLPMPLD@DIPLO_UI_STATE_TRADE_AI_MAKES_DE@
CONST	SEGMENT
??_C@_0CF@PCLPMPLD@DIPLO_UI_STATE_TRADE_AI_MAKES_DE@ DB 'DIPLO_UI_STATE_T'
	DB	'RADE_AI_MAKES_DEMAND', 00H			; `string'
CONST	ENDS
;	COMDAT ??_C@_0CG@JKJIBHAI@DIPLO_UI_STATE_TRADE_AI_REJECTS_@
CONST	SEGMENT
??_C@_0CG@JKJIBHAI@DIPLO_UI_STATE_TRADE_AI_REJECTS_@ DB 'DIPLO_UI_STATE_T'
	DB	'RADE_AI_REJECTS_OFFER', 00H			; `string'
CONST	ENDS
;	COMDAT ??_C@_0CG@HBJONBBI@DIPLO_UI_STATE_TRADE_AI_ACCEPTS_@
CONST	SEGMENT
??_C@_0CG@HBJONBBI@DIPLO_UI_STATE_TRADE_AI_ACCEPTS_@ DB 'DIPLO_UI_STATE_T'
	DB	'RADE_AI_ACCEPTS_OFFER', 00H			; `string'
CONST	ENDS
;	COMDAT ??_C@_0CE@LHGGIAEJ@DIPLO_UI_STATE_TRADE_AI_MAKES_OF@
CONST	SEGMENT
??_C@_0CE@LHGGIAEJ@DIPLO_UI_STATE_TRADE_AI_MAKES_OF@ DB 'DIPLO_UI_STATE_T'
	DB	'RADE_AI_MAKES_OFFER', 00H			; `string'
CONST	ENDS
;	COMDAT ??_C@_0BF@KJLINBIA@DIPLO_UI_STATE_TRADE?$AA@
CONST	SEGMENT
??_C@_0BF@KJLINBIA@DIPLO_UI_STATE_TRADE?$AA@ DB 'DIPLO_UI_STATE_TRADE', 00H ; `string'
CONST	ENDS
;	COMDAT ??_C@_0CD@KCEMDDFN@DIPLO_UI_STATE_PEACE_MADE_BY_HUM@
CONST	SEGMENT
??_C@_0CD@KCEMDDFN@DIPLO_UI_STATE_PEACE_MADE_BY_HUM@ DB 'DIPLO_UI_STATE_P'
	DB	'EACE_MADE_BY_HUMAN', 00H			; `string'
CONST	ENDS
;	COMDAT ??_C@_0CF@KCKFFDJA@DIPLO_UI_STATE_WAR_DECLARED_BY_H@
CONST	SEGMENT
??_C@_0CF@KCKFFDJA@DIPLO_UI_STATE_WAR_DECLARED_BY_H@ DB 'DIPLO_UI_STATE_W'
	DB	'AR_DECLARED_BY_HUMAN', 00H			; `string'
CONST	ENDS
;	COMDAT ??_C@_0BM@JODACIHE@DIPLO_UI_STATE_DEFAULT_ROOT?$AA@
CONST	SEGMENT
??_C@_0BM@JODACIHE@DIPLO_UI_STATE_DEFAULT_ROOT?$AA@ DB 'DIPLO_UI_STATE_DE'
	DB	'FAULT_ROOT', 00H				; `string'
CONST	ENDS
;	COMDAT ??_C@_0BC@CBAHBFOA@NO_DIPLO_UI_STATE?$AA@
CONST	SEGMENT
??_C@_0BC@CBAHBFOA@NO_DIPLO_UI_STATE?$AA@ DB 'NO_DIPLO_UI_STATE', 00H ; `string'
CONST	ENDS
;	COMDAT ??_C@_0BC@GGIHJFPA@DiploUIStateTypes?$AA@
CONST	SEGMENT
??_C@_0BC@GGIHJFPA@DiploUIStateTypes?$AA@ DB 'DiploUIStateTypes', 00H ; `string'
CONST	ENDS
;	COMDAT ??_C@_0BE@NCBKJFHF@NUM_DIRECTION_TYPES?$AA@
CONST	SEGMENT
??_C@_0BE@NCBKJFHF@NUM_DIRECTION_TYPES?$AA@ DB 'NUM_DIRECTION_TYPES', 00H ; `string'
CONST	ENDS
;	COMDAT ??_C@_0BE@FACNKLIH@DIRECTION_NORTHWEST?$AA@
CONST	SEGMENT
??_C@_0BE@FACNKLIH@DIRECTION_NORTHWEST?$AA@ DB 'DIRECTION_NORTHWEST', 00H ; `string'
CONST	ENDS
;	COMDAT ??_C@_0P@EELDJDMH@DIRECTION_WEST?$AA@
CONST	SEGMENT
??_C@_0P@EELDJDMH@DIRECTION_WEST?$AA@ DB 'DIRECTION_WEST', 00H ; `string'
CONST	ENDS
;	COMDAT ??_C@_0BE@IILIKIMG@DIRECTION_SOUTHWEST?$AA@
CONST	SEGMENT
??_C@_0BE@IILIKIMG@DIRECTION_SOUTHWEST?$AA@ DB 'DIRECTION_SOUTHWEST', 00H ; `string'
CONST	ENDS
;	COMDAT ??_C@_0BE@BNPKPLHD@DIRECTION_SOUTHEAST?$AA@
CONST	SEGMENT
??_C@_0BE@BNPKPLHD@DIRECTION_SOUTHEAST?$AA@ DB 'DIRECTION_SOUTHEAST', 00H ; `string'
CONST	ENDS
;	COMDAT ??_C@_0P@NBPBMAHC@DIRECTION_EAST?$AA@
CONST	SEGMENT
??_C@_0P@NBPBMAHC@DIRECTION_EAST?$AA@ DB 'DIRECTION_EAST', 00H ; `string'
CONST	ENDS
;	COMDAT ??_C@_0BE@MFGPPIDC@DIRECTION_NORTHEAST?$AA@
CONST	SEGMENT
??_C@_0BE@MFGPPIDC@DIRECTION_NORTHEAST?$AA@ DB 'DIRECTION_NORTHEAST', 00H ; `string'
CONST	ENDS
;	COMDAT ??_C@_0N@ENHODHOO@NO_DIRECTION?$AA@
CONST	SEGMENT
??_C@_0N@ENHODHOO@NO_DIRECTION?$AA@ DB 'NO_DIRECTION', 00H ; `string'
CONST	ENDS
;	COMDAT ??_C@_0P@HGIDGMAO@DirectionTypes?$AA@
CONST	SEGMENT
??_C@_0P@HGIDGMAO@DirectionTypes?$AA@ DB 'DirectionTypes', 00H ; `string'
CONST	ENDS
;	COMDAT ??_C@_0BC@PNFJONBH@NUM_COMMAND_TYPES?$AA@
CONST	SEGMENT
??_C@_0BC@PNFJONBH@NUM_COMMAND_TYPES?$AA@ DB 'NUM_COMMAND_TYPES', 00H ; `string'
CONST	ENDS
;	COMDAT ??_C@_0P@DNGDDHCL@COMMAND_HOTKEY?$AA@
CONST	SEGMENT
??_C@_0P@DNGDDHCL@COMMAND_HOTKEY?$AA@ DB 'COMMAND_HOTKEY', 00H ; `string'
CONST	ENDS
;	COMDAT ??_C@_0N@NKMOGCHO@COMMAND_GIFT?$AA@
CONST	SEGMENT
??_C@_0N@NKMOGCHO@COMMAND_GIFT?$AA@ DB 'COMMAND_GIFT', 00H ; `string'
CONST	ENDS
;	COMDAT ??_C@_0P@BAIEEBFD@COMMAND_DELETE?$AA@
CONST	SEGMENT
??_C@_0P@BAIEEBFD@COMMAND_DELETE?$AA@ DB 'COMMAND_DELETE', 00H ; `string'
CONST	ENDS
;	COMDAT ??_C@_0BI@HMHHIAOF@COMMAND_STOP_AUTOMATION?$AA@
CONST	SEGMENT
??_C@_0BI@HMHHIAOF@COMMAND_STOP_AUTOMATION?$AA@ DB 'COMMAND_STOP_AUTOMATI'
	DB	'ON', 00H					; `string'
CONST	ENDS
;	COMDAT ??_C@_0BD@HIPAELDF@COMMAND_CANCEL_ALL?$AA@
CONST	SEGMENT
??_C@_0BD@HIPAELDF@COMMAND_CANCEL_ALL?$AA@ DB 'COMMAND_CANCEL_ALL', 00H ; `string'
CONST	ENDS
;	COMDAT ??_C@_0P@NNDPEDHJ@COMMAND_CANCEL?$AA@
CONST	SEGMENT
??_C@_0P@NNDPEDHJ@COMMAND_CANCEL?$AA@ DB 'COMMAND_CANCEL', 00H ; `string'
CONST	ENDS
;	COMDAT ??_C@_0N@CEJLGNFA@COMMAND_WAKE?$AA@
CONST	SEGMENT
??_C@_0N@CEJLGNFA@COMMAND_WAKE?$AA@ DB 'COMMAND_WAKE', 00H ; `string'
CONST	ENDS
;	COMDAT ??_C@_0BB@FHOCLFDG@COMMAND_AUTOMATE?$AA@
CONST	SEGMENT
??_C@_0BB@FHOCLFDG@COMMAND_AUTOMATE?$AA@ DB 'COMMAND_AUTOMATE', 00H ; `string'
CONST	ENDS
;	COMDAT ??_C@_0BA@CEIJMLFI@COMMAND_UPGRADE?$AA@
CONST	SEGMENT
??_C@_0BA@CEIJMLFI@COMMAND_UPGRADE?$AA@ DB 'COMMAND_UPGRADE', 00H ; `string'
CONST	ENDS
;	COMDAT ??_C@_0BC@PBHIBNIB@COMMAND_PROMOTION?$AA@
CONST	SEGMENT
??_C@_0BC@PBHIBNIB@COMMAND_PROMOTION?$AA@ DB 'COMMAND_PROMOTION', 00H ; `string'
CONST	ENDS
;	COMDAT ??_C@_0N@KGDPOHDL@CommandTypes?$AA@
CONST	SEGMENT
??_C@_0N@KGDPOHDL@CommandTypes?$AA@ DB 'CommandTypes', 00H ; `string'
CONST	ENDS
;	COMDAT ??_C@_0P@MFDOFPGD@NUM_TASK_TYPES?$AA@
CONST	SEGMENT
??_C@_0P@MFDOFPGD@NUM_TASK_TYPES?$AA@ DB 'NUM_TASK_TYPES', 00H ; `string'
CONST	ENDS
;	COMDAT ??_C@_0BC@HNOFAMCN@TASK_ANNEX_PUPPET?$AA@
CONST	SEGMENT
??_C@_0BC@HNOFAMCN@TASK_ANNEX_PUPPET?$AA@ DB 'TASK_ANNEX_PUPPET', 00H ; `string'
CONST	ENDS
;	COMDAT ??_C@_0BD@BHMJMHBK@TASK_CREATE_PUPPET?$AA@
CONST	SEGMENT
??_C@_0BD@BHMJMHBK@TASK_CREATE_PUPPET?$AA@ DB 'TASK_CREATE_PUPPET', 00H ; `string'
CONST	ENDS
;	COMDAT ??_C@_0BD@HNIOOAAF@TASK_RANGED_ATTACK?$AA@
CONST	SEGMENT
??_C@_0BD@HNIOOAAF@TASK_RANGED_ATTACK?$AA@ DB 'TASK_RANGED_ATTACK', 00H ; `string'
CONST	ENDS
;	COMDAT ??_C@_0BG@GJNEAPAA@TASK_CLEAR_RALLY_PLOT?$AA@
CONST	SEGMENT
??_C@_0BG@GJNEAPAA@TASK_CLEAR_RALLY_PLOT?$AA@ DB 'TASK_CLEAR_RALLY_PLOT', 00H ; `string'
CONST	ENDS
;	COMDAT ??_C@_0BA@CDIGNGIA@TASK_RALLY_PLOT?$AA@
CONST	SEGMENT
??_C@_0BA@CDIGNGIA@TASK_RALLY_PLOT?$AA@ DB 'TASK_RALLY_PLOT', 00H ; `string'
CONST	ENDS
;	COMDAT ??_C@_0BC@GGHKODBL@TASK_CLEAR_ORDERS?$AA@
CONST	SEGMENT
??_C@_0BC@GGHKODBL@TASK_CLEAR_ORDERS?$AA@ DB 'TASK_CLEAR_ORDERS', 00H ; `string'
CONST	ENDS
;	COMDAT ??_C@_0P@CLGMBMND@TASK_CONSCRIPT?$AA@
CONST	SEGMENT
??_C@_0P@CLGMBMND@TASK_CONSCRIPT?$AA@ DB 'TASK_CONSCRIPT', 00H ; `string'
CONST	ENDS
;	COMDAT ??_C@_0L@LBGPKFCN@TASK_HURRY?$AA@
CONST	SEGMENT
??_C@_0L@LBGPKFCN@TASK_HURRY?$AA@ DB 'TASK_HURRY', 00H	; `string'
CONST	ENDS
;	COMDAT ??_C@_0BM@FHHMHDJI@TASK_CLEAR_WORKING_OVERRIDE?$AA@
CONST	SEGMENT
??_C@_0BM@FHHMHDJI@TASK_CLEAR_WORKING_OVERRIDE?$AA@ DB 'TASK_CLEAR_WORKIN'
	DB	'G_OVERRIDE', 00H				; `string'
CONST	ENDS
;	COMDAT ??_C@_0BE@OHIDIDE@TASK_REMOVE_SLACKER?$AA@
CONST	SEGMENT
??_C@_0BE@OHIDIDE@TASK_REMOVE_SLACKER?$AA@ DB 'TASK_REMOVE_SLACKER', 00H ; `string'
CONST	ENDS
;	COMDAT ??_C@_0BJ@KAEDNKFE@TASK_CHANGE_WORKING_PLOT?$AA@
CONST	SEGMENT
??_C@_0BJ@KAEDNKFE@TASK_CHANGE_WORKING_PLOT?$AA@ DB 'TASK_CHANGE_WORKING_'
	DB	'PLOT', 00H					; `string'
CONST	ENDS
;	COMDAT ??_C@_0BH@IPLCFNAP@TASK_REMOVE_SPECIALIST?$AA@
CONST	SEGMENT
??_C@_0BH@IPLCFNAP@TASK_REMOVE_SPECIALIST?$AA@ DB 'TASK_REMOVE_SPECIALIST'
	DB	00H						; `string'
CONST	ENDS
;	COMDAT ??_C@_0BE@IMPANMPD@TASK_ADD_SPECIALIST?$AA@
CONST	SEGMENT
??_C@_0BE@IMPANMPD@TASK_ADD_SPECIALIST?$AA@ DB 'TASK_ADD_SPECIALIST', 00H ; `string'
CONST	ENDS
;	COMDAT ??_C@_0CA@NPKKKCLA@TASK_NO_AUTO_ASSIGN_SPECIALISTS?$AA@
CONST	SEGMENT
??_C@_0CA@NPKKKCLA@TASK_NO_AUTO_ASSIGN_SPECIALISTS?$AA@ DB 'TASK_NO_AUTO_'
	DB	'ASSIGN_SPECIALISTS', 00H			; `string'
CONST	ENDS
;	COMDAT ??_C@_0BD@JLMCHIHE@TASK_SET_EMPHASIZE?$AA@
CONST	SEGMENT
??_C@_0BD@JLMCHIHE@TASK_SET_EMPHASIZE?$AA@ DB 'TASK_SET_EMPHASIZE', 00H ; `string'
CONST	ENDS
;	COMDAT ??_C@_0BO@GIIBPANL@TASK_SET_AUTOMATED_PRODUCTION?$AA@
CONST	SEGMENT
??_C@_0BO@GIIBPANL@TASK_SET_AUTOMATED_PRODUCTION?$AA@ DB 'TASK_SET_AUTOMA'
	DB	'TED_PRODUCTION', 00H			; `string'
CONST	ENDS
;	COMDAT ??_C@_0BM@HNFGBGKH@TASK_SET_AUTOMATED_CITIZENS?$AA@
CONST	SEGMENT
??_C@_0BM@HNFGBGKH@TASK_SET_AUTOMATED_CITIZENS?$AA@ DB 'TASK_SET_AUTOMATE'
	DB	'D_CITIZENS', 00H				; `string'
CONST	ENDS
;	COMDAT ??_C@_09KDBBDDLH@TASK_GIFT?$AA@
CONST	SEGMENT
??_C@_09KDBBDDLH@TASK_GIFT?$AA@ DB 'TASK_GIFT', 00H	; `string'
CONST	ENDS
;	COMDAT ??_C@_0N@KBEHEOIO@TASK_DISBAND?$AA@
CONST	SEGMENT
??_C@_0N@KBEHEOIO@TASK_DISBAND?$AA@ DB 'TASK_DISBAND', 00H ; `string'
CONST	ENDS
;	COMDAT ??_C@_0M@OHJCMBOO@TASK_UNRAZE?$AA@
CONST	SEGMENT
??_C@_0M@OHJCMBOO@TASK_UNRAZE?$AA@ DB 'TASK_UNRAZE', 00H ; `string'
CONST	ENDS
;	COMDAT ??_C@_09IIEAHKKO@TASK_RAZE?$AA@
CONST	SEGMENT
??_C@_09IIEAHKKO@TASK_RAZE?$AA@ DB 'TASK_RAZE', 00H	; `string'
CONST	ENDS
;	COMDAT ??_C@_09OBAOBAN@TaskTypes?$AA@
CONST	SEGMENT
??_C@_09OBAOBAN@TaskTypes?$AA@ DB 'TaskTypes', 00H	; `string'
CONST	ENDS
;	COMDAT ??_C@_0BJ@BPOBFJHD@GAMEMESSAGE_AVOID_GROWTH?$AA@
CONST	SEGMENT
??_C@_0BJ@BPOBFJHD@GAMEMESSAGE_AVOID_GROWTH?$AA@ DB 'GAMEMESSAGE_AVOID_GR'
	DB	'OWTH', 00H					; `string'
CONST	ENDS
;	COMDAT ??_C@_0BH@KBMIMCKO@GAMEMESSAGE_SWAP_ORDER?$AA@
CONST	SEGMENT
??_C@_0BH@KBMIMCKO@GAMEMESSAGE_SWAP_ORDER?$AA@ DB 'GAMEMESSAGE_SWAP_ORDER'
	DB	00H						; `string'
CONST	ENDS
;	COMDAT ??_C@_0BH@FAAALJAL@GAMEMESSAGE_SWAP_UNITS?$AA@
CONST	SEGMENT
??_C@_0BH@FAAALJAL@GAMEMESSAGE_SWAP_UNITS?$AA@ DB 'GAMEMESSAGE_SWAP_UNITS'
	DB	00H						; `string'
CONST	ENDS
;	COMDAT ??_C@_0BM@NMLBFBJJ@GAMEMESSAGE_MOD_NET_MESSAGE?$AA@
CONST	SEGMENT
??_C@_0BM@NMLBFBJJ@GAMEMESSAGE_MOD_NET_MESSAGE?$AA@ DB 'GAMEMESSAGE_MOD_N'
	DB	'ET_MESSAGE', 00H				; `string'
CONST	ENDS
;	COMDAT ??_C@_0BJ@NFFPFLCK@GAMEMESSAGE_PLAYER_HURRY?$AA@
CONST	SEGMENT
??_C@_0BJ@NFFPFLCK@GAMEMESSAGE_PLAYER_HURRY?$AA@ DB 'GAMEMESSAGE_PLAYER_H'
	DB	'URRY', 00H					; `string'
CONST	ENDS
;	COMDAT ??_C@_0BN@PCNOOLBB@GAMEMESSAGE_BARBARIAN_RANSOM?$AA@
CONST	SEGMENT
??_C@_0BN@PCNOOLBB@GAMEMESSAGE_BARBARIAN_RANSOM?$AA@ DB 'GAMEMESSAGE_BARB'
	DB	'ARIAN_RANSOM', 00H				; `string'
CONST	ENDS
;	COMDAT ??_C@_0CG@EJPFJIKE@GAMEMESSAGE_MINOR_CIV_ENTER_TERR@
CONST	SEGMENT
??_C@_0CG@EJPFJIKE@GAMEMESSAGE_MINOR_CIV_ENTER_TERR@ DB 'GAMEMESSAGE_MINO'
	DB	'R_CIV_ENTER_TERRITORY', 00H			; `string'
CONST	ENDS
;	COMDAT ??_C@_0CA@OAFILJDH@GAMEMESSAGE_MINOR_CIV_INTRUSION?$AA@
CONST	SEGMENT
??_C@_0CA@OAFILJDH@GAMEMESSAGE_MINOR_CIV_INTRUSION?$AA@ DB 'GAMEMESSAGE_M'
	DB	'INOR_CIV_INTRUSION', 00H			; `string'
CONST	ENDS
;	COMDAT ??_C@_0CG@OPBPNGKG@GAMEMESSAGE_MINOR_CIV_QUEST_COMP@
CONST	SEGMENT
??_C@_0CG@OPBPNGKG@GAMEMESSAGE_MINOR_CIV_QUEST_COMP@ DB 'GAMEMESSAGE_MINO'
	DB	'R_CIV_QUEST_COMPLETED', 00H			; `string'
CONST	ENDS
;	COMDAT ??_C@_0CI@LLCNECPH@GAMEMESSAGE_MINOR_CIV_QUEST_NO_I@
CONST	SEGMENT
??_C@_0CI@LLCNECPH@GAMEMESSAGE_MINOR_CIV_QUEST_NO_I@ DB 'GAMEMESSAGE_MINO'
	DB	'R_CIV_QUEST_NO_INTEREST', 00H		; `string'
CONST	ENDS
;	COMDAT ??_C@_0CC@INADAHHH@GAMEMESSAGE_ADVANCED_START_ACTIO@
CONST	SEGMENT
??_C@_0CC@INADAHHH@GAMEMESSAGE_ADVANCED_START_ACTIO@ DB 'GAMEMESSAGE_ADVA'
	DB	'NCED_START_ACTION', 00H			; `string'
CONST	ENDS
;	COMDAT ??_C@_0BN@FCOHJOKO@GAMEMESSAGE_LAUNCH_SPACESHIP?$AA@
CONST	SEGMENT
??_C@_0BN@FCOHJOKO@GAMEMESSAGE_LAUNCH_SPACESHIP?$AA@ DB 'GAMEMESSAGE_LAUN'
	DB	'CH_SPACESHIP', 00H				; `string'
CONST	ENDS
;	COMDAT ??_C@_0BM@OBEIGHI@GAMEMESSAGE_EVENT_TRIGGERED?$AA@
CONST	SEGMENT
??_C@_0BM@OBEIGHI@GAMEMESSAGE_EVENT_TRIGGERED?$AA@ DB 'GAMEMESSAGE_EVENT_'
	DB	'TRIGGERED', 00H				; `string'
CONST	ENDS
;	COMDAT ??_C@_0BC@IJDACNNK@GAMEMESSAGE_POPUP?$AA@
CONST	SEGMENT
??_C@_0BC@IJDACNNK@GAMEMESSAGE_POPUP?$AA@ DB 'GAMEMESSAGE_POPUP', 00H ; `string'
CONST	ENDS
;	COMDAT ??_C@_0BM@JFEHMAGL@GAMEMESSAGE_HOT_DROP_NOTICE?$AA@
CONST	SEGMENT
??_C@_0BM@JFEHMAGL@GAMEMESSAGE_HOT_DROP_NOTICE?$AA@ DB 'GAMEMESSAGE_HOT_D'
	DB	'ROP_NOTICE', 00H				; `string'
CONST	ENDS
;	COMDAT ??_C@_0BO@PCNPFBAK@GAMEMESSAGE_DIPLOMACY_FROM_UI?$AA@
CONST	SEGMENT
??_C@_0BO@PCNPFBAK@GAMEMESSAGE_DIPLOMACY_FROM_UI?$AA@ DB 'GAMEMESSAGE_DIP'
	DB	'LOMACY_FROM_UI', 00H			; `string'
CONST	ENDS
;	COMDAT ??_C@_0BM@DDLMLEHF@GAMEMESSAGE_POPUP_PROCESSED?$AA@
CONST	SEGMENT
??_C@_0BM@DDLMLEHF@GAMEMESSAGE_POPUP_PROCESSED?$AA@ DB 'GAMEMESSAGE_POPUP'
	DB	'_PROCESSED', 00H				; `string'
CONST	ENDS
;	COMDAT ??_C@_0BI@OGFDPGOH@GAMEMESSAGE_CLEAR_TABLE?$AA@
CONST	SEGMENT
??_C@_0BI@OGFDPGOH@GAMEMESSAGE_CLEAR_TABLE?$AA@ DB 'GAMEMESSAGE_CLEAR_TAB'
	DB	'LE', 00H					; `string'
CONST	ENDS
;	COMDAT ??_C@_0BM@BJEAIKMM@GAMEMESSAGE_UPDATE_POLICIES?$AA@
CONST	SEGMENT
??_C@_0BM@BJEAIKMM@GAMEMESSAGE_UPDATE_POLICIES?$AA@ DB 'GAMEMESSAGE_UPDAT'
	DB	'E_POLICIES', 00H				; `string'
CONST	ENDS
;	COMDAT ??_C@_0BG@JKCDHMHI@GAMEMESSAGE_KILL_DEAL?$AA@
CONST	SEGMENT
??_C@_0BG@JKCDHMHI@GAMEMESSAGE_KILL_DEAL?$AA@ DB 'GAMEMESSAGE_KILL_DEAL', 00H ; `string'
CONST	ENDS
;	COMDAT ??_C@_0BH@HDJMNHIC@GAMEMESSAGE_EXIT_TRADE?$AA@
CONST	SEGMENT
??_C@_0BH@HDJMNHIC@GAMEMESSAGE_EXIT_TRADE?$AA@ DB 'GAMEMESSAGE_EXIT_TRADE'
	DB	00H						; `string'
CONST	ENDS
;	COMDAT ??_C@_0BN@CKBFCLCE@GAMEMESSAGE_RENEGOTIATE_ITEM?$AA@
CONST	SEGMENT
??_C@_0BN@CKBFCLCE@GAMEMESSAGE_RENEGOTIATE_ITEM?$AA@ DB 'GAMEMESSAGE_RENE'
	DB	'GOTIATE_ITEM', 00H				; `string'
CONST	ENDS
;	COMDAT ??_C@_0BI@MMNKHGGM@GAMEMESSAGE_RENEGOTIATE?$AA@
CONST	SEGMENT
??_C@_0BI@MMNKHGGM@GAMEMESSAGE_RENEGOTIATE?$AA@ DB 'GAMEMESSAGE_RENEGOTIA'
	DB	'TE', 00H					; `string'
CONST	ENDS
;	COMDAT ??_C@_0BH@JKLCJKLC@GAMEMESSAGE_SEND_OFFER?$AA@
CONST	SEGMENT
??_C@_0BH@JKLCJKLC@GAMEMESSAGE_SEND_OFFER?$AA@ DB 'GAMEMESSAGE_SEND_OFFER'
	DB	00H						; `string'
CONST	ENDS
;	COMDAT ??_C@_0BH@KNMAEAGO@GAMEMESSAGE_DIPLO_CHAT?$AA@
CONST	SEGMENT
??_C@_0BH@KNMAEAGO@GAMEMESSAGE_DIPLO_CHAT?$AA@ DB 'GAMEMESSAGE_DIPLO_CHAT'
	DB	00H						; `string'
CONST	ENDS
;	COMDAT ??_C@_0BI@DDAEGBKC@GAMEMESSAGE_CONTACT_CIV?$AA@
CONST	SEGMENT
??_C@_0BI@DDAEGBKC@GAMEMESSAGE_CONTACT_CIV?$AA@ DB 'GAMEMESSAGE_CONTACT_C'
	DB	'IV', 00H					; `string'
CONST	ENDS
;	COMDAT ??_C@_0BI@BEOGNKLC@GAMEMESSAGE_APPLY_EVENT?$AA@
CONST	SEGMENT
??_C@_0BI@BEOGNKLC@GAMEMESSAGE_APPLY_EVENT?$AA@ DB 'GAMEMESSAGE_APPLY_EVE'
	DB	'NT', 00H					; `string'
CONST	ENDS
;	COMDAT ??_C@_0BH@NBCDCCKO@GAMEMESSAGE_DIPLO_VOTE?$AA@
CONST	SEGMENT
??_C@_0BH@NBCDCCKO@GAMEMESSAGE_DIPLO_VOTE?$AA@ DB 'GAMEMESSAGE_DIPLO_VOTE'
	DB	00H						; `string'
CONST	ENDS
;	COMDAT ??_C@_0BM@JKLLJEJM@GAMEMESSAGE_CHOOSE_ELECTION?$AA@
CONST	SEGMENT
??_C@_0BM@JKLLJEJM@GAMEMESSAGE_CHOOSE_ELECTION?$AA@ DB 'GAMEMESSAGE_CHOOS'
	DB	'E_ELECTION', 00H				; `string'
CONST	ENDS
;	COMDAT ??_C@_0BM@NGOOFKLL@GAMEMESSAGE_LIBERATE_PLAYER?$AA@
CONST	SEGMENT
??_C@_0BM@NGOOFKLL@GAMEMESSAGE_LIBERATE_PLAYER?$AA@ DB 'GAMEMESSAGE_LIBER'
	DB	'ATE_PLAYER', 00H				; `string'
CONST	ENDS
;	COMDAT ??_C@_0BH@PIDFJKMK@GAMEMESSAGE_CHANGE_WAR?$AA@
CONST	SEGMENT
??_C@_0BH@PIDFJKMK@GAMEMESSAGE_CHANGE_WAR?$AA@ DB 'GAMEMESSAGE_CHANGE_WAR'
	DB	00H						; `string'
CONST	ENDS
;	COMDAT ??_C@_0BM@IJMNHHJA@GAMEMESSAGE_IMPLEMENT_OFFER?$AA@
CONST	SEGMENT
??_C@_0BM@IJMNHHJA@GAMEMESSAGE_IMPLEMENT_OFFER?$AA@ DB 'GAMEMESSAGE_IMPLE'
	DB	'MENT_OFFER', 00H				; `string'
CONST	ENDS
;	COMDAT ??_C@_0BJ@BDDDHCCD@GAMEMESSAGE_TOGGLE_TRADE?$AA@
CONST	SEGMENT
??_C@_0BJ@BDDDHCCD@GAMEMESSAGE_TOGGLE_TRADE?$AA@ DB 'GAMEMESSAGE_TOGGLE_T'
	DB	'RADE', 00H					; `string'
CONST	ENDS
;	COMDAT ??_C@_0BJ@OKKAGJLO@GAMEMESSAGE_MP_DROP_SAVE?$AA@
CONST	SEGMENT
??_C@_0BJ@OKKAGJLO@GAMEMESSAGE_MP_DROP_SAVE?$AA@ DB 'GAMEMESSAGE_MP_DROP_'
	DB	'SAVE', 00H					; `string'
CONST	ENDS
;	COMDAT ??_C@_0BL@EMGAMNND@GAMEMESSAGE_MP_DROP_RESULT?$AA@
CONST	SEGMENT
??_C@_0BL@EMGAMNND@GAMEMESSAGE_MP_DROP_RESULT?$AA@ DB 'GAMEMESSAGE_MP_DRO'
	DB	'P_RESULT', 00H				; `string'
CONST	ENDS
;	COMDAT ??_C@_0BL@JGILDKPH@GAMEMESSAGE_MP_DROP_UPDATE?$AA@
CONST	SEGMENT
??_C@_0BL@JGILDKPH@GAMEMESSAGE_MP_DROP_UPDATE?$AA@ DB 'GAMEMESSAGE_MP_DRO'
	DB	'P_UPDATE', 00H				; `string'
CONST	ENDS
;	COMDAT ??_C@_0BJ@MBBLEFJD@GAMEMESSAGE_MP_DROP_VOTE?$AA@
CONST	SEGMENT
??_C@_0BJ@MBBLEFJD@GAMEMESSAGE_MP_DROP_VOTE?$AA@ DB 'GAMEMESSAGE_MP_DROP_'
	DB	'VOTE', 00H					; `string'
CONST	ENDS
;	COMDAT ??_C@_0BJ@NMDADBJG@GAMEMESSAGE_MP_DROP_INIT?$AA@
CONST	SEGMENT
??_C@_0BJ@NMDADBJG@GAMEMESSAGE_MP_DROP_INIT?$AA@ DB 'GAMEMESSAGE_MP_DROP_'
	DB	'INIT', 00H					; `string'
CONST	ENDS
;	COMDAT ??_C@_0BJ@JONFIJAK@GAMEMESSAGE_NEVER_JOINED?$AA@
CONST	SEGMENT
??_C@_0BJ@JONFIJAK@GAMEMESSAGE_NEVER_JOINED?$AA@ DB 'GAMEMESSAGE_NEVER_JO'
	DB	'INED', 00H					; `string'
CONST	ENDS
;	COMDAT ??_C@_0BN@PMOKAIPI@GAMEMESSAGE_CLOSE_CONNECTION?$AA@
CONST	SEGMENT
??_C@_0BN@PMOKAIPI@GAMEMESSAGE_CLOSE_CONNECTION?$AA@ DB 'GAMEMESSAGE_CLOS'
	DB	'E_CONNECTION', 00H				; `string'
CONST	ENDS
;	COMDAT ??_C@_0BG@BFFCIGOJ@GAMEMESSAGE_MP_RETIRE?$AA@
CONST	SEGMENT
??_C@_0BG@BFFCIGOJ@GAMEMESSAGE_MP_RETIRE?$AA@ DB 'GAMEMESSAGE_MP_RETIRE', 00H ; `string'
CONST	ENDS
;	COMDAT ??_C@_0BE@CKOGBGHJ@GAMEMESSAGE_MP_KICK?$AA@
CONST	SEGMENT
??_C@_0BE@CKOGBGHJ@GAMEMESSAGE_MP_KICK?$AA@ DB 'GAMEMESSAGE_MP_KICK', 00H ; `string'
CONST	ENDS
;	COMDAT ??_C@_0BC@DCOGPJCP@GAMEMESSAGE_PAUSE?$AA@
CONST	SEGMENT
??_C@_0BC@DCOGPJCP@GAMEMESSAGE_PAUSE?$AA@ DB 'GAMEMESSAGE_PAUSE', 00H ; `string'
CONST	ENDS
;	COMDAT ??_C@_0BO@NEHPODGA@GAMEMESSAGE_LINE_GROUP_DELETE?$AA@
CONST	SEGMENT
??_C@_0BO@NEHPODGA@GAMEMESSAGE_LINE_GROUP_DELETE?$AA@ DB 'GAMEMESSAGE_LIN'
	DB	'E_GROUP_DELETE', 00H			; `string'
CONST	ENDS
;	COMDAT ??_C@_0BP@PENEFELE@GAMEMESSAGE_LINE_ENTITY_DELETE?$AA@
CONST	SEGMENT
??_C@_0BP@PENEFELE@GAMEMESSAGE_LINE_ENTITY_DELETE?$AA@ DB 'GAMEMESSAGE_LI'
	DB	'NE_ENTITY_DELETE', 00H			; `string'
CONST	ENDS
;	COMDAT ??_C@_0BI@BHEKKKO@GAMEMESSAGE_SIGN_DELETE?$AA@
CONST	SEGMENT
??_C@_0BI@BHEKKKO@GAMEMESSAGE_SIGN_DELETE?$AA@ DB 'GAMEMESSAGE_SIGN_DELET'
	DB	'E', 00H					; `string'
CONST	ENDS
;	COMDAT ??_C@_0BI@DBDJKIOF@GAMEMESSAGE_LINE_ENTITY?$AA@
CONST	SEGMENT
??_C@_0BI@DBDJKIOF@GAMEMESSAGE_LINE_ENTITY?$AA@ DB 'GAMEMESSAGE_LINE_ENTI'
	DB	'TY', 00H					; `string'
CONST	ENDS
;	COMDAT ??_C@_0BB@FKPJDAAO@GAMEMESSAGE_SIGN?$AA@
CONST	SEGMENT
??_C@_0BB@FKPJDAAO@GAMEMESSAGE_SIGN?$AA@ DB 'GAMEMESSAGE_SIGN', 00H ; `string'
CONST	ENDS
;	COMDAT ??_C@_0BB@MDEKMKBI@GAMEMESSAGE_PING?$AA@
CONST	SEGMENT
??_C@_0BB@MDEKMKBI@GAMEMESSAGE_PING?$AA@ DB 'GAMEMESSAGE_PING', 00H ; `string'
CONST	ENDS
;	COMDAT ??_C@_0BB@DGAFEGIA@GAMEMESSAGE_CHAT?$AA@
CONST	SEGMENT
??_C@_0BB@DGAFEGIA@GAMEMESSAGE_CHAT?$AA@ DB 'GAMEMESSAGE_CHAT', 00H ; `string'
CONST	ENDS
;	COMDAT ??_C@_0BE@GEGIBCAA@GAMEMESSAGE_CONVERT?$AA@
CONST	SEGMENT
??_C@_0BE@GEGIBCAA@GAMEMESSAGE_CONVERT?$AA@ DB 'GAMEMESSAGE_CONVERT', 00H ; `string'
CONST	ENDS
;	COMDAT ??_C@_0BF@HNBNHJOL@GAMEMESSAGE_RESEARCH?$AA@
CONST	SEGMENT
??_C@_0BF@HNBNHJOL@GAMEMESSAGE_RESEARCH?$AA@ DB 'GAMEMESSAGE_RESEARCH', 00H ; `string'
CONST	ENDS
;	COMDAT ??_C@_0BE@JPBNGKLJ@GAMEMESSAGE_DO_TASK?$AA@
CONST	SEGMENT
??_C@_0BE@JPBNGKLJ@GAMEMESSAGE_DO_TASK?$AA@ DB 'GAMEMESSAGE_DO_TASK', 00H ; `string'
CONST	ENDS
;	COMDAT ??_C@_0BG@MMNHENAF@GAMEMESSAGE_POP_ORDER?$AA@
CONST	SEGMENT
??_C@_0BG@MMNHENAF@GAMEMESSAGE_POP_ORDER?$AA@ DB 'GAMEMESSAGE_POP_ORDER', 00H ; `string'
CONST	ENDS
;	COMDAT ??_C@_0BH@BBLHDEPL@GAMEMESSAGE_PUSH_ORDER?$AA@
CONST	SEGMENT
??_C@_0BH@BBLHDEPL@GAMEMESSAGE_PUSH_ORDER?$AA@ DB 'GAMEMESSAGE_PUSH_ORDER'
	DB	00H						; `string'
CONST	ENDS
;	COMDAT ??_C@_0BH@GLPPOKED@GAMEMESSAGE_DO_COMMAND?$AA@
CONST	SEGMENT
??_C@_0BH@GLPPOKED@GAMEMESSAGE_DO_COMMAND?$AA@ DB 'GAMEMESSAGE_DO_COMMAND'
	DB	00H						; `string'
CONST	ENDS
;	COMDAT ??_C@_0BJ@DACBELHB@GAMEMESSAGE_AUTO_MISSION?$AA@
CONST	SEGMENT
??_C@_0BJ@DACBELHB@GAMEMESSAGE_AUTO_MISSION?$AA@ DB 'GAMEMESSAGE_AUTO_MIS'
	DB	'SION', 00H					; `string'
CONST	ENDS
;	COMDAT ??_C@_0BJ@JCFHDKNE@GAMEMESSAGE_PUSH_MISSION?$AA@
CONST	SEGMENT
??_C@_0BJ@JCFHDKNE@GAMEMESSAGE_PUSH_MISSION?$AA@ DB 'GAMEMESSAGE_PUSH_MIS'
	DB	'SION', 00H					; `string'
CONST	ENDS
;	COMDAT ??_C@_0BK@GPKKPNBK@GAMEMESSAGE_TURN_COMPLETE?$AA@
CONST	SEGMENT
??_C@_0BK@GPKKPNBK@GAMEMESSAGE_TURN_COMPLETE?$AA@ DB 'GAMEMESSAGE_TURN_CO'
	DB	'MPLETE', 00H				; `string'
CONST	ENDS
;	COMDAT ??_C@_0BH@CGNIBHEN@GAMEMESSAGE_AUTO_MOVES?$AA@
CONST	SEGMENT
??_C@_0BH@CGNIBHEN@GAMEMESSAGE_AUTO_MOVES?$AA@ DB 'GAMEMESSAGE_AUTO_MOVES'
	DB	00H						; `string'
CONST	ENDS
;	COMDAT ??_C@_0BK@KNGBDALC@GAMEMESSAGE_EXTENDED_GAME?$AA@
CONST	SEGMENT
??_C@_0BK@KNGBDALC@GAMEMESSAGE_EXTENDED_GAME?$AA@ DB 'GAMEMESSAGE_EXTENDE'
	DB	'D_GAME', 00H				; `string'
CONST	ENDS
;	COMDAT ??_C@_0BK@DAANKBMH@GAMEMESSAGE_PLAYER_OPTION?$AA@
CONST	SEGMENT
??_C@_0BK@DAANKBMH@GAMEMESSAGE_PLAYER_OPTION?$AA@ DB 'GAMEMESSAGE_PLAYER_'
	DB	'OPTION', 00H				; `string'
CONST	ENDS
;	COMDAT ??_C@_0BI@OMFGKHMO@GAMEMESSAGE_SYNCH_START?$AA@
CONST	SEGMENT
??_C@_0BI@OMFGKHMO@GAMEMESSAGE_SYNCH_START?$AA@ DB 'GAMEMESSAGE_SYNCH_STA'
	DB	'RT', 00H					; `string'
CONST	ENDS
;	COMDAT ??_C@_0BK@CEHIGIF@GAMEMESSAGE_AUTH_RESPONSE?$AA@
CONST	SEGMENT
??_C@_0BK@CEHIGIF@GAMEMESSAGE_AUTH_RESPONSE?$AA@ DB 'GAMEMESSAGE_AUTH_RES'
	DB	'PONSE', 00H					; `string'
CONST	ENDS
;	COMDAT ??_C@_0BJ@JNIJFCCH@GAMEMESSAGE_AUTH_REQUEST?$AA@
CONST	SEGMENT
??_C@_0BJ@JNIJFCCH@GAMEMESSAGE_AUTH_REQUEST?$AA@ DB 'GAMEMESSAGE_AUTH_REQ'
	DB	'UEST', 00H					; `string'
CONST	ENDS
;	COMDAT ??_C@_0BJ@LNOIHBNG@GAMEMESSAGE_INIT_PLAYERS?$AA@
CONST	SEGMENT
??_C@_0BJ@LNOIHBNG@GAMEMESSAGE_INIT_PLAYERS?$AA@ DB 'GAMEMESSAGE_INIT_PLA'
	DB	'YERS', 00H					; `string'
CONST	ENDS
;	COMDAT ??_C@_0BG@PGHMLCOL@GAMEMESSAGE_INIT_GAME?$AA@
CONST	SEGMENT
??_C@_0BG@PGHMLCOL@GAMEMESSAGE_INIT_GAME?$AA@ DB 'GAMEMESSAGE_INIT_GAME', 00H ; `string'
CONST	ENDS
;	COMDAT ??_C@_0BL@HNNKADOO@GAMEMESSAGE_LAUNCHING_INFO?$AA@
CONST	SEGMENT
??_C@_0BL@HNNKADOO@GAMEMESSAGE_LAUNCHING_INFO?$AA@ DB 'GAMEMESSAGE_LAUNCH'
	DB	'ING_INFO', 00H				; `string'
CONST	ENDS
;	COMDAT ??_C@_0BJ@HFIMMACE@GAMEMESSAGE_PITBOSS_INFO?$AA@
CONST	SEGMENT
??_C@_0BJ@HFIMMACE@GAMEMESSAGE_PITBOSS_INFO?$AA@ DB 'GAMEMESSAGE_PITBOSS_'
	DB	'INFO', 00H					; `string'
CONST	ENDS
;	COMDAT ??_C@_0BM@FCJHGOKK@GAMEMESSAGE_REASSIGN_PLAYER?$AA@
CONST	SEGMENT
??_C@_0BM@FCJHGOKK@GAMEMESSAGE_REASSIGN_PLAYER?$AA@ DB 'GAMEMESSAGE_REASS'
	DB	'IGN_PLAYER', 00H				; `string'
CONST	ENDS
;	COMDAT ??_C@_0BG@GDAGHNFF@GAMEMESSAGE_GAME_INFO?$AA@
CONST	SEGMENT
??_C@_0BG@GDAGHNFF@GAMEMESSAGE_GAME_INFO?$AA@ DB 'GAMEMESSAGE_GAME_INFO', 00H ; `string'
CONST	ENDS
;	COMDAT ??_C@_0BI@HDJGLJOM@GAMEMESSAGE_PLAYER_INFO?$AA@
CONST	SEGMENT
??_C@_0BI@HDJGLJOM@GAMEMESSAGE_PLAYER_INFO?$AA@ DB 'GAMEMESSAGE_PLAYER_IN'
	DB	'FO', 00H					; `string'
CONST	ENDS
;	COMDAT ??_C@_0BO@ICECKKGA@GAMEMESSAGE_SLOT_REASSIGNMENT?$AA@
CONST	SEGMENT
??_C@_0BO@ICECKKGA@GAMEMESSAGE_SLOT_REASSIGNMENT?$AA@ DB 'GAMEMESSAGE_SLO'
	DB	'T_REASSIGNMENT', 00H			; `string'
CONST	ENDS
;	COMDAT ??_C@_0BG@BFJKMKAE@GAMEMESSAGE_PLAYER_ID?$AA@
CONST	SEGMENT
??_C@_0BG@BFJKMKAE@GAMEMESSAGE_PLAYER_ID?$AA@ DB 'GAMEMESSAGE_PLAYER_ID', 00H ; `string'
CONST	ENDS
;	COMDAT ??_C@_0BG@LDBFOKJH@GAMEMESSAGE_LOAD_GAME?$AA@
CONST	SEGMENT
??_C@_0BG@LDBFOKJH@GAMEMESSAGE_LOAD_GAME?$AA@ DB 'GAMEMESSAGE_LOAD_GAME', 00H ; `string'
CONST	ENDS
;	COMDAT ??_C@_0BK@KILPIGJM@GAMEMESSAGE_MAPSCRIPT_ACK?$AA@
CONST	SEGMENT
??_C@_0BK@KILPIGJM@GAMEMESSAGE_MAPSCRIPT_ACK?$AA@ DB 'GAMEMESSAGE_MAPSCRI'
	DB	'PT_ACK', 00H				; `string'
CONST	ENDS
;	COMDAT ??_C@_0BM@GCLJAJMC@GAMEMESSAGE_MAPSCRIPT_CHECK?$AA@
CONST	SEGMENT
??_C@_0BM@GCLJAJMC@GAMEMESSAGE_MAPSCRIPT_CHECK?$AA@ DB 'GAMEMESSAGE_MAPSC'
	DB	'RIPT_CHECK', 00H				; `string'
CONST	ENDS
;	COMDAT ??_C@_0BG@OHJFBLLH@GAMEMESSAGE_INIT_INFO?$AA@
CONST	SEGMENT
??_C@_0BG@OHJFBLLH@GAMEMESSAGE_INIT_INFO?$AA@ DB 'GAMEMESSAGE_INIT_INFO', 00H ; `string'
CONST	ENDS
;	COMDAT ??_C@_0BL@LGEHGCDH@GAMEMESSAGE_INTERIM_NOTICE?$AA@
CONST	SEGMENT
??_C@_0BL@LGEHGCDH@GAMEMESSAGE_INTERIM_NOTICE?$AA@ DB 'GAMEMESSAGE_INTERI'
	DB	'M_NOTICE', 00H				; `string'
CONST	ENDS
;	COMDAT ??_C@_0BH@CJGKCNGA@GAMEMESSAGE_CIV_CHOSEN?$AA@
CONST	SEGMENT
??_C@_0BH@CJGKCNGA@GAMEMESSAGE_CIV_CHOSEN?$AA@ DB 'GAMEMESSAGE_CIV_CHOSEN'
	DB	00H						; `string'
CONST	ENDS
;	COMDAT ??_C@_0BM@GPAIICCE@GAMEMESSAGE_CIV_CHOICE_NACK?$AA@
CONST	SEGMENT
??_C@_0BM@GPAIICCE@GAMEMESSAGE_CIV_CHOICE_NACK?$AA@ DB 'GAMEMESSAGE_CIV_C'
	DB	'HOICE_NACK', 00H				; `string'
CONST	ENDS
;	COMDAT ??_C@_0BL@MKMFBDPO@GAMEMESSAGE_CIV_CHOICE_ACK?$AA@
CONST	SEGMENT
??_C@_0BL@MKMFBDPO@GAMEMESSAGE_CIV_CHOICE_ACK?$AA@ DB 'GAMEMESSAGE_CIV_CH'
	DB	'OICE_ACK', 00H				; `string'
CONST	ENDS
;	COMDAT ??_C@_0BH@MFLEENLE@GAMEMESSAGE_CLAIM_INFO?$AA@
CONST	SEGMENT
??_C@_0BH@MFLEENLE@GAMEMESSAGE_CLAIM_INFO?$AA@ DB 'GAMEMESSAGE_CLAIM_INFO'
	DB	00H						; `string'
CONST	ENDS
;	COMDAT ??_C@_0BO@KGDCFGNH@GAMEMESSAGE_CONFIRM_CIV_CLAIM?$AA@
CONST	SEGMENT
??_C@_0BO@KGDCFGNH@GAMEMESSAGE_CONFIRM_CIV_CLAIM?$AA@ DB 'GAMEMESSAGE_CON'
	DB	'FIRM_CIV_CLAIM', 00H			; `string'
CONST	ENDS
;	COMDAT ??_C@_0BH@PBLHDPOC@GAMEMESSAGE_CIV_CHOICE?$AA@
CONST	SEGMENT
??_C@_0BH@PBLHDPOC@GAMEMESSAGE_CIV_CHOICE?$AA@ DB 'GAMEMESSAGE_CIV_CHOICE'
	DB	00H						; `string'
CONST	ENDS
;	COMDAT ??_C@_0BK@OJHMBIID@GAMEMESSAGE_PICK_YOUR_CIV?$AA@
CONST	SEGMENT
??_C@_0BK@OJHMBIID@GAMEMESSAGE_PICK_YOUR_CIV?$AA@ DB 'GAMEMESSAGE_PICK_YO'
	DB	'UR_CIV', 00H				; `string'
CONST	ENDS
;	COMDAT ??_C@_0BG@PLLGLEON@GAMEMESSAGE_FILE_INFO?$AA@
CONST	SEGMENT
??_C@_0BG@PLLGLEON@GAMEMESSAGE_FILE_INFO?$AA@ DB 'GAMEMESSAGE_FILE_INFO', 00H ; `string'
CONST	ENDS
;	COMDAT ??_C@_0BK@EIBDIAIB@GAMEMESSAGE_ID_ASSIGNMENT?$AA@
CONST	SEGMENT
??_C@_0BK@EIBDIAIB@GAMEMESSAGE_ID_ASSIGNMENT?$AA@ DB 'GAMEMESSAGE_ID_ASSI'
	DB	'GNMENT', 00H				; `string'
CONST	ENDS
;	COMDAT ??_C@_0BG@NEPMHGAI@GAMEMESSAGE_GAME_TYPE?$AA@
CONST	SEGMENT
??_C@_0BG@NEPMHGAI@GAMEMESSAGE_GAME_TYPE?$AA@ DB 'GAMEMESSAGE_GAME_TYPE', 00H ; `string'
CONST	ENDS
;	COMDAT ??_C@_0BM@BHHIKPCD@GAMEMESSAGE_VERSION_WARNING?$AA@
CONST	SEGMENT
??_C@_0BM@BHHIKPCD@GAMEMESSAGE_VERSION_WARNING?$AA@ DB 'GAMEMESSAGE_VERSI'
	DB	'ON_WARNING', 00H				; `string'
CONST	ENDS
;	COMDAT ??_C@_0BJ@CGFJBJKE@GAMEMESSAGE_VERSION_NACK?$AA@
CONST	SEGMENT
??_C@_0BJ@CGFJBJKE@GAMEMESSAGE_VERSION_NACK?$AA@ DB 'GAMEMESSAGE_VERSION_'
	DB	'NACK', 00H					; `string'
CONST	ENDS
;	COMDAT ??_C@_0BL@NADGJCJ@GAMEMESSAGE_VERIFY_VERSION?$AA@
CONST	SEGMENT
??_C@_0BL@NADGJCJ@GAMEMESSAGE_VERIFY_VERSION?$AA@ DB 'GAMEMESSAGE_VERIFY_'
	DB	'VERSION', 00H				; `string'
CONST	ENDS
;	COMDAT ??_C@_0BK@IIFLBMFO@GAMEMESSAGE_NETWORK_READY?$AA@
CONST	SEGMENT
??_C@_0BK@IIFLBMFO@GAMEMESSAGE_NETWORK_READY?$AA@ DB 'GAMEMESSAGE_NETWORK'
	DB	'_READY', 00H				; `string'
CONST	ENDS
;	COMDAT ??_C@_0BB@FABJCJNO@GameMessageTypes?$AA@
CONST	SEGMENT
??_C@_0BB@FABJCJNO@GameMessageTypes?$AA@ DB 'GameMessageTypes', 00H ; `string'
CONST	ENDS
;	COMDAT ??_C@_0BD@GBKENNAO@NUM_ACTIONSUBTYPES?$AA@
CONST	SEGMENT
??_C@_0BD@GBKENNAO@NUM_ACTIONSUBTYPES?$AA@ DB 'NUM_ACTIONSUBTYPES', 00H ; `string'
CONST	ENDS
;	COMDAT ??_C@_0BG@BLKDOIE@ACTIONSUBTYPE_MISSION?$AA@
CONST	SEGMENT
??_C@_0BG@BLKDOIE@ACTIONSUBTYPE_MISSION?$AA@ DB 'ACTIONSUBTYPE_MISSION', 00H ; `string'
CONST	ENDS
;	COMDAT ??_C@_0BH@BPKHJKAM@ACTIONSUBTYPE_AUTOMATE?$AA@
CONST	SEGMENT
??_C@_0BH@BPKHJKAM@ACTIONSUBTYPE_AUTOMATE?$AA@ DB 'ACTIONSUBTYPE_AUTOMATE'
	DB	00H						; `string'
CONST	ENDS
;	COMDAT ??_C@_0BG@MPKGGGMF@ACTIONSUBTYPE_CONTROL?$AA@
CONST	SEGMENT
??_C@_0BG@MPKGGGMF@ACTIONSUBTYPE_CONTROL?$AA@ DB 'ACTIONSUBTYPE_CONTROL', 00H ; `string'
CONST	ENDS
;	COMDAT ??_C@_0BJ@BOOMJAJD@ACTIONSUBTYPE_SPECIALIST?$AA@
CONST	SEGMENT
??_C@_0BJ@BOOMJAJD@ACTIONSUBTYPE_SPECIALIST?$AA@ DB 'ACTIONSUBTYPE_SPECIA'
	DB	'LIST', 00H					; `string'
CONST	ENDS
;	COMDAT ??_C@_0BI@DHDMIBBM@ACTIONSUBTYPE_PROMOTION?$AA@
CONST	SEGMENT
??_C@_0BI@DHDMIBBM@ACTIONSUBTYPE_PROMOTION?$AA@ DB 'ACTIONSUBTYPE_PROMOTI'
	DB	'ON', 00H					; `string'
CONST	ENDS
;	COMDAT ??_C@_0BE@LCICLDM@ACTIONSUBTYPE_BUILD?$AA@
CONST	SEGMENT
??_C@_0BE@LCICLDM@ACTIONSUBTYPE_BUILD?$AA@ DB 'ACTIONSUBTYPE_BUILD', 00H ; `string'
CONST	ENDS
;	COMDAT ??_C@_0BG@KPHFPJNG@ACTIONSUBTYPE_COMMAND?$AA@
CONST	SEGMENT
??_C@_0BG@KPHFPJNG@ACTIONSUBTYPE_COMMAND?$AA@ DB 'ACTIONSUBTYPE_COMMAND', 00H ; `string'
CONST	ENDS
;	COMDAT ??_C@_0BM@KHALJKLI@ACTIONSUBTYPE_INTERFACEMODE?$AA@
CONST	SEGMENT
??_C@_0BM@KHALJKLI@ACTIONSUBTYPE_INTERFACEMODE?$AA@ DB 'ACTIONSUBTYPE_INT'
	DB	'ERFACEMODE', 00H				; `string'
CONST	ENDS
;	COMDAT ??_C@_0P@JJIOBEHP@ActionSubTypes?$AA@
CONST	SEGMENT
??_C@_0P@JJIOBEHP@ActionSubTypes?$AA@ DB 'ActionSubTypes', 00H ; `string'
CONST	ENDS
;	COMDAT ??_C@_08BIIFDPDO@Missions?$AA@
CONST	SEGMENT
??_C@_08BIIFDPDO@Missions?$AA@ DB 'Missions', 00H	; `string'
CONST	ENDS
;	COMDAT ??_C@_02OLOABKKD@ID?$AA@
CONST	SEGMENT
??_C@_02OLOABKKD@ID?$AA@ DB 'ID', 00H			; `string'
CONST	ENDS
;	COMDAT ??_C@_04KOACHJEN@Type?$AA@
CONST	SEGMENT
??_C@_04KOACHJEN@Type?$AA@ DB 'Type', 00H		; `string'
CONST	ENDS
;	COMDAT ??_C@_0BC@BKOCPOBK@NUM_MISSION_TYPES?$AA@
CONST	SEGMENT
??_C@_0BC@BKOCPOBK@NUM_MISSION_TYPES?$AA@ DB 'NUM_MISSION_TYPES', 00H ; `string'
CONST	ENDS
;	COMDAT ??_C@_0L@LHJODJGF@NO_MISSION?$AA@
CONST	SEGMENT
??_C@_0L@LHJODJGF@NO_MISSION?$AA@ DB 'NO_MISSION', 00H	; `string'
CONST	ENDS
;	COMDAT ??_C@_0N@KFABONDF@MissionTypes?$AA@
CONST	SEGMENT
??_C@_0N@KFABONDF@MissionTypes?$AA@ DB 'MissionTypes', 00H ; `string'
CONST	ENDS
;	COMDAT ??_C@_0BB@EBOGBEEG@ACTIVITY_MISSION?$AA@
CONST	SEGMENT
??_C@_0BB@EBOGBEEG@ACTIVITY_MISSION?$AA@ DB 'ACTIVITY_MISSION', 00H ; `string'
CONST	ENDS
;	COMDAT ??_C@_0BD@BGDDDOPO@ACTIVITY_INTERCEPT?$AA@
CONST	SEGMENT
??_C@_0BD@BGDDDOPO@ACTIVITY_INTERCEPT?$AA@ DB 'ACTIVITY_INTERCEPT', 00H ; `string'
CONST	ENDS
;	COMDAT ??_C@_0BA@DKGFPPBI@ACTIVITY_SENTRY?$AA@
CONST	SEGMENT
??_C@_0BA@DKGFPPBI@ACTIVITY_SENTRY?$AA@ DB 'ACTIVITY_SENTRY', 00H ; `string'
CONST	ENDS
;	COMDAT ??_C@_0O@NFNCNPJD@ACTIVITY_HEAL?$AA@
CONST	SEGMENT
??_C@_0O@NFNCNPJD@ACTIVITY_HEAL?$AA@ DB 'ACTIVITY_HEAL', 00H ; `string'
CONST	ENDS
;	COMDAT ??_C@_0P@DHNKHBIE@ACTIVITY_SLEEP?$AA@
CONST	SEGMENT
??_C@_0P@DHNKHBIE@ACTIVITY_SLEEP?$AA@ DB 'ACTIVITY_SLEEP', 00H ; `string'
CONST	ENDS
;	COMDAT ??_C@_0O@HKGOCGKM@ACTIVITY_HOLD?$AA@
CONST	SEGMENT
??_C@_0O@HKGOCGKM@ACTIVITY_HOLD?$AA@ DB 'ACTIVITY_HOLD', 00H ; `string'
CONST	ENDS
;	COMDAT ??_C@_0P@NMLNCIMO@ACTIVITY_AWAKE?$AA@
CONST	SEGMENT
??_C@_0P@NMLNCIMO@ACTIVITY_AWAKE?$AA@ DB 'ACTIVITY_AWAKE', 00H ; `string'
CONST	ENDS
;	COMDAT ??_C@_0M@JAGCGEHF@NO_ACTIVITY?$AA@
CONST	SEGMENT
??_C@_0M@JAGCGEHF@NO_ACTIVITY?$AA@ DB 'NO_ACTIVITY', 00H ; `string'
CONST	ENDS
;	COMDAT ??_C@_0O@FFIPLHJG@ActivityTypes?$AA@
CONST	SEGMENT
??_C@_0O@FFIPLHJG@ActivityTypes?$AA@ DB 'ActivityTypes', 00H ; `string'
CONST	ENDS
;	COMDAT ??_C@_0BC@BNBLKEDE@NotificationTypes?$AA@
CONST	SEGMENT
??_C@_0BC@BNBLKEDE@NotificationTypes?$AA@ DB 'NotificationTypes', 00H ; `string'
CONST	ENDS
;	COMDAT ??_C@_0BI@HGGCFNAH@NUM_INTERFACEMODE_TYPES?$AA@
CONST	SEGMENT
??_C@_0BI@HGGCFNAH@NUM_INTERFACEMODE_TYPES?$AA@ DB 'NUM_INTERFACEMODE_TYP'
	DB	'ES', 00H					; `string'
CONST	ENDS
;	COMDAT ??_C@_0CE@FJIHJLAJ@INTERFACEMODE_ESTABLISH_TRADE_RO@
CONST	SEGMENT
??_C@_0CE@FJIHJLAJ@INTERFACEMODE_ESTABLISH_TRADE_RO@ DB 'INTERFACEMODE_ES'
	DB	'TABLISH_TRADE_ROUTE', 00H			; `string'
CONST	ENDS
;	COMDAT ??_C@_0CE@LLKJCNKN@INTERFACEMODE_GIFT_TILE_IMPROVEM@
CONST	SEGMENT
??_C@_0CE@LLKJCNKN@INTERFACEMODE_GIFT_TILE_IMPROVEM@ DB 'INTERFACEMODE_GI'
	DB	'FT_TILE_IMPROVEMENT', 00H			; `string'
CONST	ENDS
;	COMDAT ??_C@_0CA@EAIELJFO@INTERFACEMODE_CITY_RANGE_ATTACK?$AA@
CONST	SEGMENT
??_C@_0CA@EAIELJFO@INTERFACEMODE_CITY_RANGE_ATTACK?$AA@ DB 'INTERFACEMODE'
	DB	'_CITY_RANGE_ATTACK', 00H			; `string'
CONST	ENDS
;	COMDAT ??_C@_0BM@EFBJOHGM@INTERFACEMODE_PURCHASE_PLOT?$AA@
CONST	SEGMENT
??_C@_0BM@EFBJOHGM@INTERFACEMODE_PURCHASE_PLOT?$AA@ DB 'INTERFACEMODE_PUR'
	DB	'CHASE_PLOT', 00H				; `string'
CONST	ENDS
;	COMDAT ??_C@_0CC@GKKKAGHI@INTERFACEMODE_CITY_PLOT_SELECTIO@
CONST	SEGMENT
??_C@_0CC@GKKKAGHI@INTERFACEMODE_CITY_PLOT_SELECTIO@ DB 'INTERFACEMODE_CI'
	DB	'TY_PLOT_SELECTION', 00H			; `string'
CONST	ENDS
;	COMDAT ??_C@_0BI@LJIAMLNO@INTERFACEMODE_GIFT_UNIT?$AA@
CONST	SEGMENT
??_C@_0BI@LJIAMLNO@INTERFACEMODE_GIFT_UNIT?$AA@ DB 'INTERFACEMODE_GIFT_UN'
	DB	'IT', 00H					; `string'
CONST	ENDS
;	COMDAT ??_C@_0BI@LONBGCLD@INTERFACEMODE_DISEMBARK?$AA@
CONST	SEGMENT
??_C@_0BI@LONBGCLD@INTERFACEMODE_DISEMBARK?$AA@ DB 'INTERFACEMODE_DISEMBA'
	DB	'RK', 00H					; `string'
CONST	ENDS
;	COMDAT ??_C@_0BF@IECMDOMO@INTERFACEMODE_EMBARK?$AA@
CONST	SEGMENT
??_C@_0BF@IECMDOMO@INTERFACEMODE_EMBARK?$AA@ DB 'INTERFACEMODE_EMBARK', 00H ; `string'
CONST	ENDS
;	COMDAT ??_C@_0BJ@DANCOGFA@INTERFACEMODE_PLACE_UNIT?$AA@
CONST	SEGMENT
??_C@_0BJ@DANCOGFA@INTERFACEMODE_PLACE_UNIT?$AA@ DB 'INTERFACEMODE_PLACE_'
	DB	'UNIT', 00H					; `string'
CONST	ENDS
;	COMDAT ??_C@_0BF@FFEHFJFK@INTERFACEMODE_REBASE?$AA@
CONST	SEGMENT
??_C@_0BF@FFEHFJFK@INTERFACEMODE_REBASE?$AA@ DB 'INTERFACEMODE_REBASE', 00H ; `string'
CONST	ENDS
;	COMDAT ??_C@_0BI@PJBNPIMI@INTERFACEMODE_AIR_SWEEP?$AA@
CONST	SEGMENT
??_C@_0BI@PJBNPIMI@INTERFACEMODE_AIR_SWEEP?$AA@ DB 'INTERFACEMODE_AIR_SWE'
	DB	'EP', 00H					; `string'
CONST	ENDS
;	COMDAT ??_C@_0BI@JMKFFJNC@INTERFACEMODE_AIRSTRIKE?$AA@
CONST	SEGMENT
??_C@_0BI@JMKFFJNC@INTERFACEMODE_AIRSTRIKE?$AA@ DB 'INTERFACEMODE_AIRSTRI'
	DB	'KE', 00H					; `string'
CONST	ENDS
;	COMDAT ??_C@_0BL@DIAIACDL@INTERFACEMODE_RANGE_ATTACK?$AA@
CONST	SEGMENT
??_C@_0BL@DIAIACDL@INTERFACEMODE_RANGE_ATTACK?$AA@ DB 'INTERFACEMODE_RANG'
	DB	'E_ATTACK', 00H				; `string'
CONST	ENDS
;	COMDAT ??_C@_0BF@KGPOOCOL@INTERFACEMODE_ATTACK?$AA@
CONST	SEGMENT
??_C@_0BF@KGPOOCOL@INTERFACEMODE_ATTACK?$AA@ DB 'INTERFACEMODE_ATTACK', 00H ; `string'
CONST	ENDS
;	COMDAT ??_C@_0BH@EBPCAAGG@INTERFACEMODE_PARADROP?$AA@
CONST	SEGMENT
??_C@_0BH@EBPCAAGG@INTERFACEMODE_PARADROP?$AA@ DB 'INTERFACEMODE_PARADROP'
	DB	00H						; `string'
CONST	ENDS
;	COMDAT ??_C@_0BD@KBDLAILF@INTERFACEMODE_NUKE?$AA@
CONST	SEGMENT
??_C@_0BD@KBDLAILF@INTERFACEMODE_NUKE?$AA@ DB 'INTERFACEMODE_NUKE', 00H ; `string'
CONST	ENDS
;	COMDAT ??_C@_0BG@KGAMPENH@INTERFACEMODE_AIRLIFT?$AA@
CONST	SEGMENT
??_C@_0BG@KGAMPENH@INTERFACEMODE_AIRLIFT?$AA@ DB 'INTERFACEMODE_AIRLIFT', 00H ; `string'
CONST	ENDS
;	COMDAT ??_C@_0BH@POBBCEBG@INTERFACEMODE_ROUTE_TO?$AA@
CONST	SEGMENT
??_C@_0BH@POBBCEBG@INTERFACEMODE_ROUTE_TO?$AA@ DB 'INTERFACEMODE_ROUTE_TO'
	DB	00H						; `string'
CONST	ENDS
;	COMDAT ??_C@_0BK@ENJKNGOC@INTERFACEMODE_MOVE_TO_ALL?$AA@
CONST	SEGMENT
??_C@_0BK@ENJKNGOC@INTERFACEMODE_MOVE_TO_ALL?$AA@ DB 'INTERFACEMODE_MOVE_'
	DB	'TO_ALL', 00H				; `string'
CONST	ENDS
;	COMDAT ??_C@_0BL@BJLMEHIJ@INTERFACEMODE_MOVE_TO_TYPE?$AA@
CONST	SEGMENT
??_C@_0BL@BJLMEHIJ@INTERFACEMODE_MOVE_TO_TYPE?$AA@ DB 'INTERFACEMODE_MOVE'
	DB	'_TO_TYPE', 00H				; `string'
CONST	ENDS
;	COMDAT ??_C@_0BG@MHBEEAAC@INTERFACEMODE_MOVE_TO?$AA@
CONST	SEGMENT
??_C@_0BG@MHBEEAAC@INTERFACEMODE_MOVE_TO?$AA@ DB 'INTERFACEMODE_MOVE_TO', 00H ; `string'
CONST	ENDS
;	COMDAT ??_C@_0BD@FANJGJBI@INTERFACEMODE_PING?$AA@
CONST	SEGMENT
??_C@_0BD@FANJGJBI@INTERFACEMODE_PING?$AA@ DB 'INTERFACEMODE_PING', 00H ; `string'
CONST	ENDS
;	COMDAT ??_C@_0BI@EBJLMHGK@INTERFACEMODE_SELECTION?$AA@
CONST	SEGMENT
??_C@_0BI@EBJLMHGK@INTERFACEMODE_SELECTION?$AA@ DB 'INTERFACEMODE_SELECTI'
	DB	'ON', 00H					; `string'
CONST	ENDS
;	COMDAT ??_C@_0BE@KEMHPNNH@INTERFACEMODE_DEBUG?$AA@
CONST	SEGMENT
??_C@_0BE@KEMHPNNH@INTERFACEMODE_DEBUG?$AA@ DB 'INTERFACEMODE_DEBUG', 00H ; `string'
CONST	ENDS
;	COMDAT ??_C@_0BB@CGLADEEE@NO_INTERFACEMODE?$AA@
CONST	SEGMENT
??_C@_0BB@CGLADEEE@NO_INTERFACEMODE?$AA@ DB 'NO_INTERFACEMODE', 00H ; `string'
CONST	ENDS
;	COMDAT ??_C@_0BD@EMEMEIDB@InterfaceModeTypes?$AA@
CONST	SEGMENT
??_C@_0BD@EMEMEIDB@InterfaceModeTypes?$AA@ DB 'InterfaceModeTypes', 00H ; `string'
CONST	ENDS
;	COMDAT ??_C@_0BC@HCFKCOBM@NUM_TERRAIN_TYPES?$AA@
CONST	SEGMENT
??_C@_0BC@HCFKCOBM@NUM_TERRAIN_TYPES?$AA@ DB 'NUM_TERRAIN_TYPES', 00H ; `string'
CONST	ENDS
;	COMDAT ??_C@_0N@LBEPBMPM@TERRAIN_HILL?$AA@
CONST	SEGMENT
??_C@_0N@LBEPBMPM@TERRAIN_HILL?$AA@ DB 'TERRAIN_HILL', 00H ; `string'
CONST	ENDS
;	COMDAT ??_C@_0BB@NOPHJFJC@TERRAIN_MOUNTAIN?$AA@
CONST	SEGMENT
??_C@_0BB@NOPHJFJC@TERRAIN_MOUNTAIN?$AA@ DB 'TERRAIN_MOUNTAIN', 00H ; `string'
CONST	ENDS
;	COMDAT ??_C@_0O@PICFGHGA@TERRAIN_OCEAN?$AA@
CONST	SEGMENT
??_C@_0O@PICFGHGA@TERRAIN_OCEAN?$AA@ DB 'TERRAIN_OCEAN', 00H ; `string'
CONST	ENDS
;	COMDAT ??_C@_0O@GKPKFAII@TERRAIN_COAST?$AA@
CONST	SEGMENT
??_C@_0O@GKPKFAII@TERRAIN_COAST?$AA@ DB 'TERRAIN_COAST', 00H ; `string'
CONST	ENDS
;	COMDAT ??_C@_0N@JANIPHBF@TERRAIN_SNOW?$AA@
CONST	SEGMENT
??_C@_0N@JANIPHBF@TERRAIN_SNOW?$AA@ DB 'TERRAIN_SNOW', 00H ; `string'
CONST	ENDS
;	COMDAT ??_C@_0P@EBEMIIPO@TERRAIN_TUNDRA?$AA@
CONST	SEGMENT
??_C@_0P@EBEMIIPO@TERRAIN_TUNDRA?$AA@ DB 'TERRAIN_TUNDRA', 00H ; `string'
CONST	ENDS
;	COMDAT ??_C@_0P@DCDNMEOJ@TERRAIN_DESERT?$AA@
CONST	SEGMENT
??_C@_0P@DCDNMEOJ@TERRAIN_DESERT?$AA@ DB 'TERRAIN_DESERT', 00H ; `string'
CONST	ENDS
;	COMDAT ??_C@_0P@IMCIJKHF@TERRAIN_PLAINS?$AA@
CONST	SEGMENT
??_C@_0P@IMCIJKHF@TERRAIN_PLAINS?$AA@ DB 'TERRAIN_PLAINS', 00H ; `string'
CONST	ENDS
;	COMDAT ??_C@_0O@CGFKNHGK@TERRAIN_GRASS?$AA@
CONST	SEGMENT
??_C@_0O@CGFKNHGK@TERRAIN_GRASS?$AA@ DB 'TERRAIN_GRASS', 00H ; `string'
CONST	ENDS
;	COMDAT ??_C@_0L@CEMPNHFJ@NO_TERRAIN?$AA@
CONST	SEGMENT
??_C@_0L@CEMPNHFJ@NO_TERRAIN?$AA@ DB 'NO_TERRAIN', 00H	; `string'
CONST	ENDS
;	COMDAT ??_C@_0N@MAGCBDOH@TerrainTypes?$AA@
CONST	SEGMENT
??_C@_0N@MAGCBDOH@TerrainTypes?$AA@ DB 'TerrainTypes', 00H ; `string'
CONST	ENDS
;	COMDAT ??_C@_0P@GPHGDFLD@NUM_PLOT_TYPES?$AA@
CONST	SEGMENT
??_C@_0P@GPHGDFLD@NUM_PLOT_TYPES?$AA@ DB 'NUM_PLOT_TYPES', 00H ; `string'
CONST	ENDS
;	COMDAT ??_C@_0L@DPKPGLPO@PLOT_OCEAN?$AA@
CONST	SEGMENT
??_C@_0L@DPKPGLPO@PLOT_OCEAN?$AA@ DB 'PLOT_OCEAN', 00H	; `string'
CONST	ENDS
;	COMDAT ??_C@_09BHICOGMO@PLOT_LAND?$AA@
CONST	SEGMENT
??_C@_09BHICOGMO@PLOT_LAND?$AA@ DB 'PLOT_LAND', 00H	; `string'
CONST	ENDS
;	COMDAT ??_C@_0L@OCKGPDCC@PLOT_HILLS?$AA@
CONST	SEGMENT
??_C@_0L@OCKGPDCC@PLOT_HILLS?$AA@ DB 'PLOT_HILLS', 00H	; `string'
CONST	ENDS
;	COMDAT ??_C@_0O@IIKCCFJN@PLOT_MOUNTAIN?$AA@
CONST	SEGMENT
??_C@_0O@IIKCCFJN@PLOT_MOUNTAIN?$AA@ DB 'PLOT_MOUNTAIN', 00H ; `string'
CONST	ENDS
;	COMDAT ??_C@_07KFJBDFBI@NO_PLOT?$AA@
CONST	SEGMENT
??_C@_07KFJBDFBI@NO_PLOT?$AA@ DB 'NO_PLOT', 00H		; `string'
CONST	ENDS
;	COMDAT ??_C@_09EMDGGOGD@PlotTypes?$AA@
CONST	SEGMENT
??_C@_09EMDGGOGD@PlotTypes?$AA@ DB 'PlotTypes', 00H	; `string'
CONST	ENDS
;	COMDAT ??_C@_0BA@FFCGOCPK@NUM_ORDER_TYPES?$AA@
CONST	SEGMENT
??_C@_0BA@FFCGOCPK@NUM_ORDER_TYPES?$AA@ DB 'NUM_ORDER_TYPES', 00H ; `string'
CONST	ENDS
;	COMDAT ??_C@_0P@BMKCDGDH@ORDER_MAINTAIN?$AA@
CONST	SEGMENT
??_C@_0P@BMKCDGDH@ORDER_MAINTAIN?$AA@ DB 'ORDER_MAINTAIN', 00H ; `string'
CONST	ENDS
;	COMDAT ??_C@_0O@JDLLIHHP@ORDER_PREPARE?$AA@
CONST	SEGMENT
??_C@_0O@JDLLIHHP@ORDER_PREPARE?$AA@ DB 'ORDER_PREPARE', 00H ; `string'
CONST	ENDS
;	COMDAT ??_C@_0N@BFDDAEDG@ORDER_CREATE?$AA@
CONST	SEGMENT
??_C@_0N@BFDDAEDG@ORDER_CREATE?$AA@ DB 'ORDER_CREATE', 00H ; `string'
CONST	ENDS
;	COMDAT ??_C@_0BA@IJOGBGHJ@ORDER_CONSTRUCT?$AA@
CONST	SEGMENT
??_C@_0BA@IJOGBGHJ@ORDER_CONSTRUCT?$AA@ DB 'ORDER_CONSTRUCT', 00H ; `string'
CONST	ENDS
;	COMDAT ??_C@_0M@MABAMEFF@ORDER_TRAIN?$AA@
CONST	SEGMENT
??_C@_0M@MABAMEFF@ORDER_TRAIN?$AA@ DB 'ORDER_TRAIN', 00H ; `string'
CONST	ENDS
;	COMDAT ??_C@_08HMPBOBFO@NO_ORDER?$AA@
CONST	SEGMENT
??_C@_08HMPBOBFO@NO_ORDER?$AA@ DB 'NO_ORDER', 00H	; `string'
CONST	ENDS
;	COMDAT ??_C@_0L@IDOLACNH@OrderTypes?$AA@
CONST	SEGMENT
??_C@_0L@IDOLACNH@OrderTypes?$AA@ DB 'OrderTypes', 00H	; `string'
CONST	ENDS
;	COMDAT ??_C@_0BI@FGMCNOKG@FOGOFWARMODE_UNEXPLORED?$AA@
CONST	SEGMENT
??_C@_0BI@FGMCNOKG@FOGOFWARMODE_UNEXPLORED?$AA@ DB 'FOGOFWARMODE_UNEXPLOR'
	DB	'ED', 00H					; `string'
CONST	ENDS
;	COMDAT ??_C@_0BD@NELEIMII@FOGOFWARMODE_NOVIS?$AA@
CONST	SEGMENT
??_C@_0BD@NELEIMII@FOGOFWARMODE_NOVIS?$AA@ DB 'FOGOFWARMODE_NOVIS', 00H ; `string'
CONST	ENDS
;	COMDAT ??_C@_0BB@EODMOAJF@FOGOFWARMODE_OFF?$AA@
CONST	SEGMENT
??_C@_0BB@EODMOAJF@FOGOFWARMODE_OFF?$AA@ DB 'FOGOFWARMODE_OFF', 00H ; `string'
CONST	ENDS
;	COMDAT ??_C@_0BC@PBLLCPCG@FogOfWarModeTypes?$AA@
CONST	SEGMENT
??_C@_0BC@PBLLCPCG@FogOfWarModeTypes?$AA@ DB 'FogOfWarModeTypes', 00H ; `string'
CONST	ENDS
;	COMDAT ??_C@_0BC@DLAPMCPK@NUM_FEATURE_TYPES?$AA@
CONST	SEGMENT
??_C@_0BC@DLAPMCPK@NUM_FEATURE_TYPES?$AA@ DB 'NUM_FEATURE_TYPES', 00H ; `string'
CONST	ENDS
;	COMDAT ??_C@_0BA@EMOAFIAA@FEATURE_FALLOUT?$AA@
CONST	SEGMENT
??_C@_0BA@EMOAFIAA@FEATURE_FALLOUT?$AA@ DB 'FEATURE_FALLOUT', 00H ; `string'
CONST	ENDS
;	COMDAT ??_C@_0P@HBLLKHIA@FEATURE_FOREST?$AA@
CONST	SEGMENT
??_C@_0P@HBLLKHIA@FEATURE_FOREST?$AA@ DB 'FEATURE_FOREST', 00H ; `string'
CONST	ENDS
;	COMDAT ??_C@_0BF@OALAIPAK@FEATURE_FLOOD_PLAINS?$AA@
CONST	SEGMENT
??_C@_0BF@OALAIPAK@FEATURE_FLOOD_PLAINS?$AA@ DB 'FEATURE_FLOOD_PLAINS', 00H ; `string'
CONST	ENDS
;	COMDAT ??_C@_0O@EPLNONAB@FEATURE_OASIS?$AA@
CONST	SEGMENT
??_C@_0O@EPLNONAB@FEATURE_OASIS?$AA@ DB 'FEATURE_OASIS', 00H ; `string'
CONST	ENDS
;	COMDAT ??_C@_0O@CEOMGFD@FEATURE_MARSH?$AA@
CONST	SEGMENT
??_C@_0O@CEOMGFD@FEATURE_MARSH?$AA@ DB 'FEATURE_MARSH', 00H ; `string'
CONST	ENDS
;	COMDAT ??_C@_0P@FPOMJJFM@FEATURE_JUNGLE?$AA@
CONST	SEGMENT
??_C@_0P@FPOMJJFM@FEATURE_JUNGLE?$AA@ DB 'FEATURE_JUNGLE', 00H ; `string'
CONST	ENDS
;	COMDAT ??_C@_0M@PHDJLLFO@FEATURE_ICE?$AA@
CONST	SEGMENT
??_C@_0M@PHDJLLFO@FEATURE_ICE?$AA@ DB 'FEATURE_ICE', 00H ; `string'
CONST	ENDS
;	COMDAT ??_C@_0L@DMKPDBAI@NO_FEATURE?$AA@
CONST	SEGMENT
??_C@_0L@DMKPDBAI@NO_FEATURE?$AA@ DB 'NO_FEATURE', 00H	; `string'
CONST	ENDS
;	COMDAT ??_C@_0N@PMMJLIAB@FeatureTypes?$AA@
CONST	SEGMENT
??_C@_0N@PMMJLIAB@FeatureTypes?$AA@ DB 'FeatureTypes', 00H ; `string'
CONST	ENDS
;	COMDAT ??_C@_0BB@JJBCEOBK@NUM_DOMAIN_TYPES?$AA@
CONST	SEGMENT
??_C@_0BB@JJBCEOBK@NUM_DOMAIN_TYPES?$AA@ DB 'NUM_DOMAIN_TYPES', 00H ; `string'
CONST	ENDS
;	COMDAT ??_C@_0N@BBEFMJHA@DOMAIN_HOVER?$AA@
CONST	SEGMENT
??_C@_0N@BBEFMJHA@DOMAIN_HOVER?$AA@ DB 'DOMAIN_HOVER', 00H ; `string'
CONST	ENDS
;	COMDAT ??_C@_0BA@KLBBAGOE@DOMAIN_IMMOBILE?$AA@
CONST	SEGMENT
??_C@_0BA@KLBBAGOE@DOMAIN_IMMOBILE?$AA@ DB 'DOMAIN_IMMOBILE', 00H ; `string'
CONST	ENDS
;	COMDAT ??_C@_0M@NPNGAOHJ@DOMAIN_LAND?$AA@
CONST	SEGMENT
??_C@_0M@NPNGAOHJ@DOMAIN_LAND?$AA@ DB 'DOMAIN_LAND', 00H ; `string'
CONST	ENDS
;	COMDAT ??_C@_0L@NNFOOLBN@DOMAIN_AIR?$AA@
CONST	SEGMENT
??_C@_0L@NNFOOLBN@DOMAIN_AIR?$AA@ DB 'DOMAIN_AIR', 00H	; `string'
CONST	ENDS
;	COMDAT ??_C@_0L@EPLLMMPP@DOMAIN_SEA?$AA@
CONST	SEGMENT
??_C@_0L@EPLLMMPP@DOMAIN_SEA?$AA@ DB 'DOMAIN_SEA', 00H	; `string'
CONST	ENDS
;	COMDAT ??_C@_09MNBLBDJB@NO_DOMAIN?$AA@
CONST	SEGMENT
??_C@_09MNBLBDJB@NO_DOMAIN?$AA@ DB 'NO_DOMAIN', 00H	; `string'
CONST	ENDS
;	COMDAT ??_C@_0M@ENKDAKND@DomainTypes?$AA@
CONST	SEGMENT
??_C@_0M@ENKDAKND@DomainTypes?$AA@ DB 'DomainTypes', 00H ; `string'
CONST	ENDS
;	COMDAT ??_C@_0BF@BLAHAKGL@NUM_GAMEOPTION_TYPES?$AA@
CONST	SEGMENT
??_C@_0BF@BLAHAKGL@NUM_GAMEOPTION_TYPES?$AA@ DB 'NUM_GAMEOPTION_TYPES', 00H ; `string'
CONST	ENDS
;	COMDAT ??_C@_0BH@FACLKNOK@GAMEOPTION_NO_RELIGION?$AA@
CONST	SEGMENT
??_C@_0BH@FACLKNOK@GAMEOPTION_NO_RELIGION?$AA@ DB 'GAMEOPTION_NO_RELIGION'
	DB	00H						; `string'
CONST	ENDS
;	COMDAT ??_C@_0BH@ENEKIDIF@GAMEOPTION_NO_TUTORIAL?$AA@
CONST	SEGMENT
??_C@_0BH@ENEKIDIF@GAMEOPTION_NO_TUTORIAL?$AA@ DB 'GAMEOPTION_NO_TUTORIAL'
	DB	00H						; `string'
CONST	ENDS
;	COMDAT ??_C@_0BI@JGECPOCP@GAMEOPTION_NO_HAPPINESS?$AA@
CONST	SEGMENT
??_C@_0BI@JGECPOCP@GAMEOPTION_NO_HAPPINESS?$AA@ DB 'GAMEOPTION_NO_HAPPINE'
	DB	'SS', 00H					; `string'
CONST	ENDS
;	COMDAT ??_C@_0BH@OIGGNGKO@GAMEOPTION_NO_POLICIES?$AA@
CONST	SEGMENT
??_C@_0BH@OIGGNGKO@GAMEOPTION_NO_POLICIES?$AA@ DB 'GAMEOPTION_NO_POLICIES'
	DB	00H						; `string'
CONST	ENDS
;	COMDAT ??_C@_0BG@PIPNBCH@GAMEOPTION_NO_SCIENCE?$AA@
CONST	SEGMENT
??_C@_0BG@PIPNBCH@GAMEOPTION_NO_SCIENCE?$AA@ DB 'GAMEOPTION_NO_SCIENCE', 00H ; `string'
CONST	ENDS
;	COMDAT ??_C@_0BO@IHBNNLD@GAMEOPTION_DISABLE_START_BIAS?$AA@
CONST	SEGMENT
??_C@_0BO@IHBNNLD@GAMEOPTION_DISABLE_START_BIAS?$AA@ DB 'GAMEOPTION_DISAB'
	DB	'LE_START_BIAS', 00H				; `string'
CONST	ENDS
;	COMDAT ??_C@_0BI@BLEMCDOO@GAMEOPTION_QUICK_COMBAT?$AA@
CONST	SEGMENT
??_C@_0BI@BLEMCDOO@GAMEOPTION_QUICK_COMBAT?$AA@ DB 'GAMEOPTION_QUICK_COMB'
	DB	'AT', 00H					; `string'
CONST	ENDS
;	COMDAT ??_C@_0CC@OIHDMLAM@GAMEOPTION_END_TURN_TIMER_ENABLE@
CONST	SEGMENT
??_C@_0CC@OIHDMLAM@GAMEOPTION_END_TURN_TIMER_ENABLE@ DB 'GAMEOPTION_END_T'
	DB	'URN_TIMER_ENABLED', 00H			; `string'
CONST	ENDS
;	COMDAT ??_C@_0BM@PDKCHBCL@GAMEOPTION_PROMOTION_SAVING?$AA@
CONST	SEGMENT
??_C@_0BM@PDKCHBCL@GAMEOPTION_PROMOTION_SAVING?$AA@ DB 'GAMEOPTION_PROMOT'
	DB	'ION_SAVING', 00H				; `string'
CONST	ENDS
;	COMDAT ??_C@_0BJ@EMMKEAFA@GAMEOPTION_POLICY_SAVING?$AA@
CONST	SEGMENT
??_C@_0BJ@EMMKEAFA@GAMEOPTION_POLICY_SAVING?$AA@ DB 'GAMEOPTION_POLICY_SA'
	DB	'VING', 00H					; `string'
CONST	ENDS
;	COMDAT ??_C@_0CA@LBKCOBKO@GAMEOPTION_RANDOM_PERSONALITIES?$AA@
CONST	SEGMENT
??_C@_0CA@LBKCOBKO@GAMEOPTION_RANDOM_PERSONALITIES?$AA@ DB 'GAMEOPTION_RA'
	DB	'NDOM_PERSONALITIES', 00H			; `string'
CONST	ENDS
;	COMDAT ??_C@_0BJ@ELIIMHCM@GAMEOPTION_NO_GOODY_HUTS?$AA@
CONST	SEGMENT
??_C@_0BJ@ELIIMHCM@GAMEOPTION_NO_GOODY_HUTS?$AA@ DB 'GAMEOPTION_NO_GOODY_'
	DB	'HUTS', 00H					; `string'
CONST	ENDS
;	COMDAT ??_C@_0BK@FLJHIMJA@GAMEOPTION_COMPLETE_KILLS?$AA@
CONST	SEGMENT
??_C@_0BK@FLJHIMJA@GAMEOPTION_COMPLETE_KILLS?$AA@ DB 'GAMEOPTION_COMPLETE'
	DB	'_KILLS', 00H				; `string'
CONST	ENDS
;	COMDAT ??_C@_0BF@FLDCJDGF@GAMEOPTION_LOCK_MODS?$AA@
CONST	SEGMENT
??_C@_0BF@FLDCJDGF@GAMEOPTION_LOCK_MODS?$AA@ DB 'GAMEOPTION_LOCK_MODS', 00H ; `string'
CONST	ENDS
;	COMDAT ??_C@_0BL@KGABLPMK@GAMEOPTION_NEW_RANDOM_SEED?$AA@
CONST	SEGMENT
??_C@_0BL@KGABLPMK@GAMEOPTION_NEW_RANDOM_SEED?$AA@ DB 'GAMEOPTION_NEW_RAN'
	DB	'DOM_SEED', 00H				; `string'
CONST	ENDS
;	COMDAT ??_C@_0CB@NBIPAFED@GAMEOPTION_NO_CHANGING_WAR_PEACE@
CONST	SEGMENT
??_C@_0CB@NBIPAFED@GAMEOPTION_NO_CHANGING_WAR_PEACE@ DB 'GAMEOPTION_NO_CH'
	DB	'ANGING_WAR_PEACE', 00H			; `string'
CONST	ENDS
;	COMDAT ??_C@_0BO@PJPCMCBE@GAMEOPTION_ONE_CITY_CHALLENGE?$AA@
CONST	SEGMENT
??_C@_0BO@PJPCMCBE@GAMEOPTION_ONE_CITY_CHALLENGE?$AA@ DB 'GAMEOPTION_ONE_'
	DB	'CITY_CHALLENGE', 00H			; `string'
CONST	ENDS
;	COMDAT ??_C@_0BI@DDHAEHLE@GAMEOPTION_ALWAYS_PEACE?$AA@
CONST	SEGMENT
??_C@_0BI@DDHAEHLE@GAMEOPTION_ALWAYS_PEACE?$AA@ DB 'GAMEOPTION_ALWAYS_PEA'
	DB	'CE', 00H					; `string'
CONST	ENDS
;	COMDAT ??_C@_0BG@JCKDCPBP@GAMEOPTION_ALWAYS_WAR?$AA@
CONST	SEGMENT
??_C@_0BG@JCKDCPBP@GAMEOPTION_ALWAYS_WAR?$AA@ DB 'GAMEOPTION_ALWAYS_WAR', 00H ; `string'
CONST	ENDS
;	COMDAT ??_C@_0BN@EFKMMMCJ@GAMEOPTION_RAGING_BARBARIANS?$AA@
CONST	SEGMENT
??_C@_0BN@EFKMMMCJ@GAMEOPTION_RAGING_BARBARIANS?$AA@ DB 'GAMEOPTION_RAGIN'
	DB	'G_BARBARIANS', 00H				; `string'
CONST	ENDS
;	COMDAT ??_C@_0BJ@KEPDPJNF@GAMEOPTION_NO_BARBARIANS?$AA@
CONST	SEGMENT
??_C@_0BJ@KEPDPJNF@GAMEOPTION_NO_BARBARIANS?$AA@ DB 'GAMEOPTION_NO_BARBAR'
	DB	'IANS', 00H					; `string'
CONST	ENDS
;	COMDAT ??_C@_0BK@FALDACNM@GAMEOPTION_NO_CITY_RAZING?$AA@
CONST	SEGMENT
??_C@_0BK@FALDACNM@GAMEOPTION_NO_CITY_RAZING?$AA@ DB 'GAMEOPTION_NO_CITY_'
	DB	'RAZING', 00H				; `string'
CONST	ENDS
;	COMDAT ??_C@_0O@DAKBDGCM@NO_GAMEOPTION?$AA@
CONST	SEGMENT
??_C@_0O@DAKBDGCM@NO_GAMEOPTION?$AA@ DB 'NO_GAMEOPTION', 00H ; `string'
CONST	ENDS
;	COMDAT ??_C@_0BA@DAOEBEOM@GameOptionTypes?$AA@
CONST	SEGMENT
??_C@_0BA@DAOEBEOM@GameOptionTypes?$AA@ DB 'GameOptionTypes', 00H ; `string'
CONST	ENDS
;	COMDAT ??_C@_0BA@MCGBAMKA@NUM_YIELD_TYPES?$AA@
CONST	SEGMENT
??_C@_0BA@MCGBAMKA@NUM_YIELD_TYPES?$AA@ DB 'NUM_YIELD_TYPES', 00H ; `string'
CONST	ENDS
;	COMDAT ??_C@_0M@LJBJNLIH@YIELD_FAITH?$AA@
CONST	SEGMENT
??_C@_0M@LJBJNLIH@YIELD_FAITH?$AA@ DB 'YIELD_FAITH', 00H ; `string'
CONST	ENDS
;	COMDAT ??_C@_0O@KODKFFBP@YIELD_CULTURE?$AA@
CONST	SEGMENT
??_C@_0O@KODKFFBP@YIELD_CULTURE?$AA@ DB 'YIELD_CULTURE', 00H ; `string'
CONST	ENDS
;	COMDAT ??_C@_0O@EBDOPLJI@YIELD_SCIENCE?$AA@
CONST	SEGMENT
??_C@_0O@EBDOPLJI@YIELD_SCIENCE?$AA@ DB 'YIELD_SCIENCE', 00H ; `string'
CONST	ENDS
;	COMDAT ??_C@_0L@JGLOMJON@YIELD_GOLD?$AA@
CONST	SEGMENT
??_C@_0L@JGLOMJON@YIELD_GOLD?$AA@ DB 'YIELD_GOLD', 00H	; `string'
CONST	ENDS
;	COMDAT ??_C@_0BB@OAGOPANA@YIELD_PRODUCTION?$AA@
CONST	SEGMENT
??_C@_0BB@OAGOPANA@YIELD_PRODUCTION?$AA@ DB 'YIELD_PRODUCTION', 00H ; `string'
CONST	ENDS
;	COMDAT ??_C@_0L@KJJIFOAE@YIELD_FOOD?$AA@
CONST	SEGMENT
??_C@_0L@KJJIFOAE@YIELD_FOOD?$AA@ DB 'YIELD_FOOD', 00H	; `string'
CONST	ENDS
;	COMDAT ??_C@_08BFLLEPHG@NO_YIELD?$AA@
CONST	SEGMENT
??_C@_08BFLLEPHG@NO_YIELD?$AA@ DB 'NO_YIELD', 00H	; `string'
CONST	ENDS
;	COMDAT ??_C@_0L@BGNMNANM@YieldTypes?$AA@
CONST	SEGMENT
??_C@_0L@BGNMNANM@YieldTypes?$AA@ DB 'YieldTypes', 00H	; `string'
CONST	ENDS
;	COMDAT ??_C@_0CA@FJPOCGCG@BUTTONPOPUP_CHOOSE_ADMIRAL_PORT?$AA@
CONST	SEGMENT
??_C@_0CA@FJPOCGCG@BUTTONPOPUP_CHOOSE_ADMIRAL_PORT?$AA@ DB 'BUTTONPOPUP_C'
	DB	'HOOSE_ADMIRAL_PORT', 00H			; `string'
CONST	ENDS
;	COMDAT ??_C@_0BK@PEHBILOO@BUTTONPOPUP_LEAGUE_SPLASH?$AA@
CONST	SEGMENT
??_C@_0BK@PEHBILOO@BUTTONPOPUP_LEAGUE_SPLASH?$AA@ DB 'BUTTONPOPUP_LEAGUE_'
	DB	'SPLASH', 00H				; `string'
CONST	ENDS
;	COMDAT ??_C@_0CE@NNPCDNOD@BUTTONPOPUP_CHOOSE_GOODY_HUT_REW@
CONST	SEGMENT
??_C@_0CE@NNPCDNOD@BUTTONPOPUP_CHOOSE_GOODY_HUT_REW@ DB 'BUTTONPOPUP_CHOO'
	DB	'SE_GOODY_HUT_REWARD', 00H			; `string'
CONST	ENDS
;	COMDAT ??_C@_0CF@DIBCGGDP@BUTTONPOPUP_LEAGUE_PROJECT_COMPL@
CONST	SEGMENT
??_C@_0CF@DIBCGGDP@BUTTONPOPUP_LEAGUE_PROJECT_COMPL@ DB 'BUTTONPOPUP_LEAG'
	DB	'UE_PROJECT_COMPLETED', 00H			; `string'
CONST	ENDS
;	COMDAT ??_C@_0CB@BFKHAOMB@BUTTONPOPUP_TRADE_ROUTE_OVERVIEW@
CONST	SEGMENT
??_C@_0CB@BFKHAOMB@BUTTONPOPUP_TRADE_ROUTE_OVERVIEW@ DB 'BUTTONPOPUP_TRAD'
	DB	'E_ROUTE_OVERVIEW', 00H			; `string'
CONST	ENDS
;	COMDAT ??_C@_0CP@BCIKJFJO@BUTTONPOPUP_GREAT_WORK_COMPLETED@
CONST	SEGMENT
??_C@_0CP@BCIKJFJO@BUTTONPOPUP_GREAT_WORK_COMPLETED@ DB 'BUTTONPOPUP_GREA'
	DB	'T_WORK_COMPLETED_ACTIVE_PLAYER', 00H	; `string'
CONST	ENDS
;	COMDAT ??_C@_0CH@JAKPKABP@BUTTONPOPUP_CHOOSE_TRADE_UNIT_NE@
CONST	SEGMENT
??_C@_0CH@JAKPKABP@BUTTONPOPUP_CHOOSE_TRADE_UNIT_NE@ DB 'BUTTONPOPUP_CHOO'
	DB	'SE_TRADE_UNIT_NEW_HOME', 00H		; `string'
CONST	ENDS
;	COMDAT ??_C@_0BN@KPOCAOCP@BUTTONPOPUP_CULTURE_OVERVIEW?$AA@
CONST	SEGMENT
??_C@_0BN@KPOCAOCP@BUTTONPOPUP_CULTURE_OVERVIEW?$AA@ DB 'BUTTONPOPUP_CULT'
	DB	'URE_OVERVIEW', 00H				; `string'
CONST	ENDS
;	COMDAT ??_C@_0CN@JCEAIDMD@BUTTONPOPUP_CHOOSE_INTERNATIONAL@
CONST	SEGMENT
??_C@_0CN@JCEAIDMD@BUTTONPOPUP_CHOOSE_INTERNATIONAL@ DB 'BUTTONPOPUP_CHOO'
	DB	'SE_INTERNATIONAL_TRADE_ROUTE', 00H		; `string'
CONST	ENDS
;	COMDAT ??_C@_0BM@LJJANAKP@BUTTONPOPUP_CHOOSE_IDEOLOGY?$AA@
CONST	SEGMENT
??_C@_0BM@LJJANAKP@BUTTONPOPUP_CHOOSE_IDEOLOGY?$AA@ DB 'BUTTONPOPUP_CHOOS'
	DB	'E_IDEOLOGY', 00H				; `string'
CONST	ENDS
;	COMDAT ??_C@_0BP@CMNOMMHE@BUTTONPOPUP_CHOOSE_ARCHAEOLOGY?$AA@
CONST	SEGMENT
??_C@_0BP@CMNOMMHE@BUTTONPOPUP_CHOOSE_ARCHAEOLOGY?$AA@ DB 'BUTTONPOPUP_CH'
	DB	'OOSE_ARCHAEOLOGY', 00H			; `string'
CONST	ENDS
;	COMDAT ??_C@_0CL@EGJFALHI@BUTTONPOPUP_DECLAREWAR_PLUNDER_T@
CONST	SEGMENT
??_C@_0CL@EGJFALHI@BUTTONPOPUP_DECLAREWAR_PLUNDER_T@ DB 'BUTTONPOPUP_DECL'
	DB	'AREWAR_PLUNDER_TRADE_ROUTE', 00H		; `string'
CONST	ENDS
;	COMDAT ??_C@_0BM@NFCBJBBC@BUTTONPOPUP_LEAGUE_OVERVIEW?$AA@
CONST	SEGMENT
??_C@_0BM@NFCBJBBC@BUTTONPOPUP_LEAGUE_OVERVIEW?$AA@ DB 'BUTTONPOPUP_LEAGU'
	DB	'E_OVERVIEW', 00H				; `string'
CONST	ENDS
;	COMDAT ??_C@_0BG@FFBGAOBL@BUTTONPOPUP_MODDER_11?$AA@
CONST	SEGMENT
??_C@_0BG@FFBGAOBL@BUTTONPOPUP_MODDER_11?$AA@ DB 'BUTTONPOPUP_MODDER_11', 00H ; `string'
CONST	ENDS
;	COMDAT ??_C@_0BG@EMANDPFK@BUTTONPOPUP_MODDER_10?$AA@
CONST	SEGMENT
??_C@_0BG@EMANDPFK@BUTTONPOPUP_MODDER_10?$AA@ DB 'BUTTONPOPUP_MODDER_10', 00H ; `string'
CONST	ENDS
;	COMDAT ??_C@_0BF@IKCPLOIF@BUTTONPOPUP_MODDER_9?$AA@
CONST	SEGMENT
??_C@_0BF@IKCPLOIF@BUTTONPOPUP_MODDER_9?$AA@ DB 'BUTTONPOPUP_MODDER_9', 00H ; `string'
CONST	ENDS
;	COMDAT ??_C@_0BF@JDDEIPME@BUTTONPOPUP_MODDER_8?$AA@
CONST	SEGMENT
??_C@_0BF@JDDEIPME@BUTTONPOPUP_MODDER_8?$AA@ DB 'BUTTONPOPUP_MODDER_8', 00H ; `string'
CONST	ENDS
;	COMDAT ??_C@_0BF@BEKMJDAL@BUTTONPOPUP_MODDER_7?$AA@
CONST	SEGMENT
??_C@_0BF@BEKMJDAL@BUTTONPOPUP_MODDER_7?$AA@ DB 'BUTTONPOPUP_MODDER_7', 00H ; `string'
CONST	ENDS
;	COMDAT ??_C@_0BF@NLHKCEK@BUTTONPOPUP_MODDER_6?$AA@
CONST	SEGMENT
??_C@_0BF@NLHKCEK@BUTTONPOPUP_MODDER_6?$AA@ DB 'BUTTONPOPUP_MODDER_6', 00H ; `string'
CONST	ENDS
;	COMDAT ??_C@_0BF@CGJKPBIJ@BUTTONPOPUP_MODDER_5?$AA@
CONST	SEGMENT
??_C@_0BF@CGJKPBIJ@BUTTONPOPUP_MODDER_5?$AA@ DB 'BUTTONPOPUP_MODDER_5', 00H ; `string'
CONST	ENDS
;	COMDAT ??_C@_0BF@DPIBMAMI@BUTTONPOPUP_MODDER_4?$AA@
CONST	SEGMENT
??_C@_0BF@DPIBMAMI@BUTTONPOPUP_MODDER_4?$AA@ DB 'BUTTONPOPUP_MODDER_4', 00H ; `string'
CONST	ENDS
;	COMDAT ??_C@_0BF@HAMAFGAP@BUTTONPOPUP_MODDER_3?$AA@
CONST	SEGMENT
??_C@_0BF@HAMAFGAP@BUTTONPOPUP_MODDER_3?$AA@ DB 'BUTTONPOPUP_MODDER_3', 00H ; `string'
CONST	ENDS
;	COMDAT ??_C@_0BF@GJNLGHEO@BUTTONPOPUP_MODDER_2?$AA@
CONST	SEGMENT
??_C@_0BF@GJNLGHEO@BUTTONPOPUP_MODDER_2?$AA@ DB 'BUTTONPOPUP_MODDER_2', 00H ; `string'
CONST	ENDS
;	COMDAT ??_C@_0BF@ECPGDEIN@BUTTONPOPUP_MODDER_1?$AA@
CONST	SEGMENT
??_C@_0BF@ECPGDEIN@BUTTONPOPUP_MODDER_1?$AA@ DB 'BUTTONPOPUP_MODDER_1', 00H ; `string'
CONST	ENDS
;	COMDAT ??_C@_0BF@FLONAFMM@BUTTONPOPUP_MODDER_0?$AA@
CONST	SEGMENT
??_C@_0BF@FLONAFMM@BUTTONPOPUP_MODDER_0?$AA@ DB 'BUTTONPOPUP_MODDER_0', 00H ; `string'
CONST	ENDS
;	COMDAT ??_C@_0CG@ECCMBHGH@BUTTONPOPUP_CHOOSE_FAITH_GREAT_P@
CONST	SEGMENT
??_C@_0CG@ECCMBHGH@BUTTONPOPUP_CHOOSE_FAITH_GREAT_P@ DB 'BUTTONPOPUP_CHOO'
	DB	'SE_FAITH_GREAT_PERSON', 00H			; `string'
CONST	ENDS
;	COMDAT ??_C@_0BO@EKDFIDFF@BUTTONPOPUP_CHOOSE_MAYA_BONUS?$AA@
CONST	SEGMENT
??_C@_0BO@EKDFIDFF@BUTTONPOPUP_CHOOSE_MAYA_BONUS?$AA@ DB 'BUTTONPOPUP_CHO'
	DB	'OSE_MAYA_BONUS', 00H			; `string'
CONST	ENDS
;	COMDAT ??_C@_0CB@ECABKNGF@BUTTONPOPUP_CHOOSE_TECH_TO_STEAL@
CONST	SEGMENT
??_C@_0CB@ECABKNGF@BUTTONPOPUP_CHOOSE_TECH_TO_STEAL@ DB 'BUTTONPOPUP_CHOO'
	DB	'SE_TECH_TO_STEAL', 00H			; `string'
CONST	ENDS
;	COMDAT ??_C@_0BO@DKMAPDHI@BUTTONPOPUP_RELIGION_OVERVIEW?$AA@
CONST	SEGMENT
??_C@_0BO@DKMAPDHI@BUTTONPOPUP_RELIGION_OVERVIEW?$AA@ DB 'BUTTONPOPUP_REL'
	DB	'IGION_OVERVIEW', 00H			; `string'
CONST	ENDS
;	COMDAT ??_C@_0BP@IKHDPEBO@BUTTONPOPUP_ESPIONAGE_OVERVIEW?$AA@
CONST	SEGMENT
??_C@_0BP@IKHDPEBO@BUTTONPOPUP_ESPIONAGE_OVERVIEW?$AA@ DB 'BUTTONPOPUP_ES'
	DB	'PIONAGE_OVERVIEW', 00H			; `string'
CONST	ENDS
;	COMDAT ??_C@_0BL@CEOEGLCJ@BUTTONPOPUP_FOUND_RELIGION?$AA@
CONST	SEGMENT
??_C@_0BL@CEOEGLCJ@BUTTONPOPUP_FOUND_RELIGION?$AA@ DB 'BUTTONPOPUP_FOUND_'
	DB	'RELIGION', 00H				; `string'
CONST	ENDS
;	COMDAT ??_C@_0BL@GOAJGFFA@BUTTONPOPUP_FOUND_PANTHEON?$AA@
CONST	SEGMENT
??_C@_0BL@GOAJGFFA@BUTTONPOPUP_FOUND_PANTHEON?$AA@ DB 'BUTTONPOPUP_FOUND_'
	DB	'PANTHEON', 00H				; `string'
CONST	ENDS
;	COMDAT ??_C@_0CF@JOEIIFOG@BUTTONPOPUP_CHOOSE_FREE_GREAT_PE@
CONST	SEGMENT
??_C@_0CF@JOEIIFOG@BUTTONPOPUP_CHOOSE_FREE_GREAT_PE@ DB 'BUTTONPOPUP_CHOO'
	DB	'SE_FREE_GREAT_PERSON', 00H			; `string'
CONST	ENDS
;	COMDAT ??_C@_0BI@PGLKKJ@BUTTONPOPUP_RENAME_UNIT?$AA@
CONST	SEGMENT
??_C@_0BI@PGLKKJ@BUTTONPOPUP_RENAME_UNIT?$AA@ DB 'BUTTONPOPUP_RENAME_UNIT'
	DB	00H						; `string'
CONST	ENDS
;	COMDAT ??_C@_0BI@NDNBKOFM@BUTTONPOPUP_RENAME_CITY?$AA@
CONST	SEGMENT
??_C@_0BI@NDNBKOFM@BUTTONPOPUP_RENAME_CITY?$AA@ DB 'BUTTONPOPUP_RENAME_CI'
	DB	'TY', 00H					; `string'
CONST	ENDS
;	COMDAT ??_C@_0BK@MEIGKBIE@BUTTONPOPUP_ADVISOR_MODAL?$AA@
CONST	SEGMENT
??_C@_0BK@MEIGKBIE@BUTTONPOPUP_ADVISOR_MODAL?$AA@ DB 'BUTTONPOPUP_ADVISOR'
	DB	'_MODAL', 00H				; `string'
CONST	ENDS
;	COMDAT ??_C@_0BM@IDIJFGIB@BUTTONPOPUP_ADVISOR_COUNSEL?$AA@
CONST	SEGMENT
??_C@_0BM@IDIJFGIB@BUTTONPOPUP_ADVISOR_COUNSEL?$AA@ DB 'BUTTONPOPUP_ADVIS'
	DB	'OR_COUNSEL', 00H				; `string'
CONST	ENDS
;	COMDAT ??_C@_0BJ@EILKAJAH@BUTTONPOPUP_ADVISOR_INFO?$AA@
CONST	SEGMENT
??_C@_0BJ@EILKAJAH@BUTTONPOPUP_ADVISOR_INFO?$AA@ DB 'BUTTONPOPUP_ADVISOR_'
	DB	'INFO', 00H					; `string'
CONST	ENDS
;	COMDAT ??_C@_0CL@BLOLPHPG@BUTTONPOPUP_WONDER_COMPLETED_ACT@
CONST	SEGMENT
??_C@_0CL@BLOLPHPG@BUTTONPOPUP_WONDER_COMPLETED_ACT@ DB 'BUTTONPOPUP_WOND'
	DB	'ER_COMPLETED_ACTIVE_PLAYER', 00H		; `string'
CONST	ENDS
;	COMDAT ??_C@_0BH@LIEAGKHD@BUTTONPOPUP_TECH_AWARD?$AA@
CONST	SEGMENT
??_C@_0BH@LIEAGKHD@BUTTONPOPUP_TECH_AWARD?$AA@ DB 'BUTTONPOPUP_TECH_AWARD'
	DB	00H						; `string'
CONST	ENDS
;	COMDAT ??_C@_0BG@BBCKDNDE@BUTTONPOPUP_TECH_TREE?$AA@
CONST	SEGMENT
??_C@_0BG@BBCKDNDE@BUTTONPOPUP_TECH_TREE?$AA@ DB 'BUTTONPOPUP_TECH_TREE', 00H ; `string'
CONST	ENDS
;	COMDAT ??_C@_0BJ@JAPBHJFK@BUTTONPOPUP_VOTE_RESULTS?$AA@
CONST	SEGMENT
??_C@_0BJ@JAPBHJFK@BUTTONPOPUP_VOTE_RESULTS?$AA@ DB 'BUTTONPOPUP_VOTE_RES'
	DB	'ULTS', 00H					; `string'
CONST	ENDS
;	COMDAT ??_C@_0BH@IDKGNCCN@BUTTONPOPUP_DIPLO_VOTE?$AA@
CONST	SEGMENT
??_C@_0BH@IDKGNCCN@BUTTONPOPUP_DIPLO_VOTE?$AA@ DB 'BUTTONPOPUP_DIPLO_VOTE'
	DB	00H						; `string'
CONST	ENDS
;	COMDAT ??_C@_0CB@KKCBKOKI@BUTTONPOPUP_CITY_PLOT_MANAGEMENT@
CONST	SEGMENT
??_C@_0CB@KKCBKOKI@BUTTONPOPUP_CITY_PLOT_MANAGEMENT@ DB 'BUTTONPOPUP_CITY'
	DB	'_PLOT_MANAGEMENT', 00H			; `string'
CONST	ENDS
;	COMDAT ??_C@_0BN@KNPIDDAB@BUTTONPOPUP_CITY_STATE_DIPLO?$AA@
CONST	SEGMENT
??_C@_0BN@KNPIDDAB@BUTTONPOPUP_CITY_STATE_DIPLO?$AA@ DB 'BUTTONPOPUP_CITY'
	DB	'_STATE_DIPLO', 00H				; `string'
CONST	ENDS
;	COMDAT ??_C@_0BP@CAEKJDL@BUTTONPOPUP_CITY_STATE_MESSAGE?$AA@
CONST	SEGMENT
??_C@_0BP@CAEKJDL@BUTTONPOPUP_CITY_STATE_MESSAGE?$AA@ DB 'BUTTONPOPUP_CIT'
	DB	'Y_STATE_MESSAGE', 00H			; `string'
CONST	ENDS
;	COMDAT ??_C@_0CA@HIGKEOLB@BUTTONPOPUP_CITY_STATE_GREETING?$AA@
CONST	SEGMENT
??_C@_0CA@HIGKEOLB@BUTTONPOPUP_CITY_STATE_GREETING?$AA@ DB 'BUTTONPOPUP_C'
	DB	'ITY_STATE_GREETING', 00H			; `string'
CONST	ENDS
;	COMDAT ??_C@_0CA@NOLDCOKC@BUTTONPOPUP_GREAT_PERSON_REWARD?$AA@
CONST	SEGMENT
??_C@_0CA@NOLDCOKC@BUTTONPOPUP_GREAT_PERSON_REWARD?$AA@ DB 'BUTTONPOPUP_G'
	DB	'REAT_PERSON_REWARD', 00H			; `string'
CONST	ENDS
;	COMDAT ??_C@_0BO@LPKGINOP@BUTTONPOPUP_GOLDEN_AGE_REWARD?$AA@
CONST	SEGMENT
??_C@_0BO@LPKGINOP@BUTTONPOPUP_GOLDEN_AGE_REWARD?$AA@ DB 'BUTTONPOPUP_GOL'
	DB	'DEN_AGE_REWARD', 00H			; `string'
CONST	ENDS
;	COMDAT ??_C@_0CC@JNOELBGI@BUTTONPOPUP_BARBARIAN_CAMP_REWAR@
CONST	SEGMENT
??_C@_0CC@JNOELBGI@BUTTONPOPUP_BARBARIAN_CAMP_REWAR@ DB 'BUTTONPOPUP_BARB'
	DB	'ARIAN_CAMP_REWARD', 00H			; `string'
CONST	ENDS
;	COMDAT ??_C@_0BN@GMDADMEA@BUTTONPOPUP_GOODY_HUT_REWARD?$AA@
CONST	SEGMENT
??_C@_0BN@GMDADMEA@BUTTONPOPUP_GOODY_HUT_REWARD?$AA@ DB 'BUTTONPOPUP_GOOD'
	DB	'Y_HUT_REWARD', 00H				; `string'
CONST	ENDS
;	COMDAT ??_C@_0CC@FIMFJAHL@BUTTONPOPUP_NATURAL_WONDER_REWAR@
CONST	SEGMENT
??_C@_0CC@FIMFJAHL@BUTTONPOPUP_NATURAL_WONDER_REWAR@ DB 'BUTTONPOPUP_NATU'
	DB	'RAL_WONDER_REWARD', 00H			; `string'
CONST	ENDS
;	COMDAT ??_C@_0BE@HJLOFAMH@BUTTONPOPUP_NEW_ERA?$AA@
CONST	SEGMENT
??_C@_0BE@HJLOFAMH@BUTTONPOPUP_NEW_ERA?$AA@ DB 'BUTTONPOPUP_NEW_ERA', 00H ; `string'
CONST	ENDS
;	COMDAT ??_C@_0BJ@LBGBCJHH@BUTTONPOPUP_WHOS_WINNING?$AA@
CONST	SEGMENT
??_C@_0BJ@LBGBCJHH@BUTTONPOPUP_WHOS_WINNING?$AA@ DB 'BUTTONPOPUP_WHOS_WIN'
	DB	'NING', 00H					; `string'
CONST	ENDS
;	COMDAT ??_C@_0CJ@JMOLBNEE@BUTTONPOPUP_CONFIRM_POLICY_BRANC@
CONST	SEGMENT
??_C@_0CJ@JMOLBNEE@BUTTONPOPUP_CONFIRM_POLICY_BRANC@ DB 'BUTTONPOPUP_CONF'
	DB	'IRM_POLICY_BRANCH_SWITCH', 00H		; `string'
CONST	ENDS
;	COMDAT ??_C@_0BM@LIKGFMAD@BUTTONPOPUP_RETURN_CIVILIAN?$AA@
CONST	SEGMENT
??_C@_0BM@LIKGFMAD@BUTTONPOPUP_RETURN_CIVILIAN?$AA@ DB 'BUTTONPOPUP_RETUR'
	DB	'N_CIVILIAN', 00H				; `string'
CONST	ENDS
;	COMDAT ??_C@_0BJ@EDNABFIK@BUTTONPOPUP_GIFT_CONFIRM?$AA@
CONST	SEGMENT
??_C@_0BJ@EDNABFIK@BUTTONPOPUP_GIFT_CONFIRM?$AA@ DB 'BUTTONPOPUP_GIFT_CON'
	DB	'FIRM', 00H					; `string'
CONST	ENDS
;	COMDAT ??_C@_0BM@OFCEBKNI@BUTTONPOPUP_MINOR_CIVS_LIST?$AA@
CONST	SEGMENT
??_C@_0BM@OFCEBKNI@BUTTONPOPUP_MINOR_CIVS_LIST?$AA@ DB 'BUTTONPOPUP_MINOR'
	DB	'_CIVS_LIST', 00H				; `string'
CONST	ENDS
;	COMDAT ??_C@_0BJ@LNNNALNP@BUTTONPOPUP_VICTORY_INFO?$AA@
CONST	SEGMENT
??_C@_0BJ@LNNNALNP@BUTTONPOPUP_VICTORY_INFO?$AA@ DB 'BUTTONPOPUP_VICTORY_'
	DB	'INFO', 00H					; `string'
CONST	ENDS
;	COMDAT ??_C@_0BJ@LPAAEIAN@BUTTONPOPUP_DEMOGRAPHICS?$AA@
CONST	SEGMENT
??_C@_0BJ@LPAAEIAN@BUTTONPOPUP_DEMOGRAPHICS?$AA@ DB 'BUTTONPOPUP_DEMOGRAP'
	DB	'HICS', 00H					; `string'
CONST	ENDS
;	COMDAT ??_C@_0CA@BCGCKCPJ@BUTTONPOPUP_DIPLOMATIC_OVERVIEW?$AA@
CONST	SEGMENT
??_C@_0CA@BCGCKCPJ@BUTTONPOPUP_DIPLOMATIC_OVERVIEW?$AA@ DB 'BUTTONPOPUP_D'
	DB	'IPLOMATIC_OVERVIEW', 00H			; `string'
CONST	ENDS
;	COMDAT ??_C@_0BO@CCKOJENJ@BUTTONPOPUP_MILITARY_OVERVIEW?$AA@
CONST	SEGMENT
??_C@_0BO@CCKOJENJ@BUTTONPOPUP_MILITARY_OVERVIEW?$AA@ DB 'BUTTONPOPUP_MIL'
	DB	'ITARY_OVERVIEW', 00H			; `string'
CONST	ENDS
;	COMDAT ??_C@_0BO@DHPJDFKD@BUTTONPOPUP_ECONOMIC_OVERVIEW?$AA@
CONST	SEGMENT
??_C@_0BO@DHPJDFKD@BUTTONPOPUP_ECONOMIC_OVERVIEW?$AA@ DB 'BUTTONPOPUP_ECO'
	DB	'NOMIC_OVERVIEW', 00H			; `string'
CONST	ENDS
;	COMDAT ??_C@_0BN@HGAPKJMP@BUTTONPOPUP_NOTIFICATION_LOG?$AA@
CONST	SEGMENT
??_C@_0BN@HGAPKJMP@BUTTONPOPUP_NOTIFICATION_LOG?$AA@ DB 'BUTTONPOPUP_NOTI'
	DB	'FICATION_LOG', 00H				; `string'
CONST	ENDS
;	COMDAT ??_C@_0BN@LKCGPOBF@BUTTONPOPUP_TEMP_SPECIALISTS?$AA@
CONST	SEGMENT
??_C@_0BN@LKCGPOBF@BUTTONPOPUP_TEMP_SPECIALISTS?$AA@ DB 'BUTTONPOPUP_TEMP'
	DB	'_SPECIALISTS', 00H				; `string'
CONST	ENDS
;	COMDAT ??_C@_0CG@BCBGAMFG@BUTTONPOPUP_MINOR_CIV_ENTER_TERR@
CONST	SEGMENT
??_C@_0CG@BCBGAMFG@BUTTONPOPUP_MINOR_CIV_ENTER_TERR@ DB 'BUTTONPOPUP_MINO'
	DB	'R_CIV_ENTER_TERRITORY', 00H			; `string'
CONST	ENDS
;	COMDAT ??_C@_0BN@JHHBGBON@BUTTONPOPUP_BARBARIAN_RANSOM?$AA@
CONST	SEGMENT
??_C@_0BN@JHHBGBON@BUTTONPOPUP_BARBARIAN_RANSOM?$AA@ DB 'BUTTONPOPUP_BARB'
	DB	'ARIAN_RANSOM', 00H				; `string'
CONST	ENDS
;	COMDAT ??_C@_0CH@OJFKEHGM@BUTTONPOPUP_MINOR_CIV_GREETING_A@
CONST	SEGMENT
??_C@_0CH@OJFKEHGM@BUTTONPOPUP_MINOR_CIV_GREETING_A@ DB 'BUTTONPOPUP_MINO'
	DB	'R_CIV_GREETING_AND_WAR', 00H		; `string'
CONST	ENDS
;	COMDAT ??_C@_0CA@NLIDPNFO@BUTTONPOPUP_MINOR_CIV_INTRUSION?$AA@
CONST	SEGMENT
??_C@_0CA@NLIDPNFO@BUTTONPOPUP_MINOR_CIV_INTRUSION?$AA@ DB 'BUTTONPOPUP_M'
	DB	'INOR_CIV_INTRUSION', 00H			; `string'
CONST	ENDS
;	COMDAT ??_C@_0CG@LEPMECFE@BUTTONPOPUP_MINOR_CIV_QUEST_COMP@
CONST	SEGMENT
??_C@_0CG@LEPMECFE@BUTTONPOPUP_MINOR_CIV_QUEST_COMP@ DB 'BUTTONPOPUP_MINO'
	DB	'R_CIV_QUEST_COMPLETED', 00H			; `string'
CONST	ENDS
;	COMDAT ??_C@_0BM@DPKIFLJH@BUTTONPOPUP_MINOR_CIV_QUEST?$AA@
CONST	SEGMENT
??_C@_0BM@DPKIFLJH@BUTTONPOPUP_MINOR_CIV_QUEST?$AA@ DB 'BUTTONPOPUP_MINOR'
	DB	'_CIV_QUEST', 00H				; `string'
CONST	ENDS
;	COMDAT ??_C@_0BH@ECMBPCBN@BUTTONPOPUP_MINOR_GOLD?$AA@
CONST	SEGMENT
??_C@_0BH@ECMBPCBN@BUTTONPOPUP_MINOR_GOLD?$AA@ DB 'BUTTONPOPUP_MINOR_GOLD'
	DB	00H						; `string'
CONST	ENDS
;	COMDAT ??_C@_0BD@EJPIKEMD@BUTTONPOPUP_LAUNCH?$AA@
CONST	SEGMENT
??_C@_0BD@EJPIKEMD@BUTTONPOPUP_LAUNCH?$AA@ DB 'BUTTONPOPUP_LAUNCH', 00H ; `string'
CONST	ENDS
;	COMDAT ??_C@_0BI@BGBMOMDA@BUTTONPOPUP_FREE_COLONY?$AA@
CONST	SEGMENT
??_C@_0BI@BGBMOMDA@BUTTONPOPUP_FREE_COLONY?$AA@ DB 'BUTTONPOPUP_FREE_COLO'
	DB	'NY', 00H					; `string'
CONST	ENDS
;	COMDAT ??_C@_0BD@BAEKLJIO@BUTTONPOPUP_KICKED?$AA@
CONST	SEGMENT
??_C@_0BD@BAEKLJIO@BUTTONPOPUP_KICKED?$AA@ DB 'BUTTONPOPUP_KICKED', 00H ; `string'
CONST	ENDS
;	COMDAT ??_C@_0BP@MNFKGCIO@BUTTONPOPUP_PITBOSS_DISCONNECT?$AA@
CONST	SEGMENT
??_C@_0BP@MNFKGCIO@BUTTONPOPUP_PITBOSS_DISCONNECT?$AA@ DB 'BUTTONPOPUP_PI'
	DB	'TBOSS_DISCONNECT', 00H			; `string'
CONST	ENDS
;	COMDAT ??_C@_0BO@HFCFKNBG@BUTTONPOPUP_FORCED_DISCONNECT?$AA@
CONST	SEGMENT
??_C@_0BO@HFCFKNBG@BUTTONPOPUP_FORCED_DISCONNECT?$AA@ DB 'BUTTONPOPUP_FOR'
	DB	'CED_DISCONNECT', 00H			; `string'
CONST	ENDS
;	COMDAT ??_C@_0BF@IHDEAKCN@BUTTONPOPUP_ADDBUDDY?$AA@
CONST	SEGMENT
??_C@_0BF@IHDEAKCN@BUTTONPOPUP_ADDBUDDY?$AA@ DB 'BUTTONPOPUP_ADDBUDDY', 00H ; `string'
CONST	ENDS
;	COMDAT ??_C@_0BG@BILLHDOF@BUTTONPOPUP_DIPLOMACY?$AA@
CONST	SEGMENT
??_C@_0BG@BILLHDOF@BUTTONPOPUP_DIPLOMACY?$AA@ DB 'BUTTONPOPUP_DIPLOMACY', 00H ; `string'
CONST	ENDS
;	COMDAT ??_C@_0BK@MHHMADCL@BUTTONPOPUP_EXTENDED_GAME?$AA@
CONST	SEGMENT
??_C@_0BK@MHHMADCL@BUTTONPOPUP_EXTENDED_GAME?$AA@ DB 'BUTTONPOPUP_EXTENDE'
	DB	'D_GAME', 00H				; `string'
CONST	ENDS
;	COMDAT ??_C@_0BL@LKBDGADD@BUTTONPOPUP_ADMIN_PASSWORD?$AA@
CONST	SEGMENT
??_C@_0BL@LKBDGADD@BUTTONPOPUP_ADMIN_PASSWORD?$AA@ DB 'BUTTONPOPUP_ADMIN_'
	DB	'PASSWORD', 00H				; `string'
CONST	ENDS
;	COMDAT ??_C@_0BC@LINGMMFC@BUTTONPOPUP_ADMIN?$AA@
CONST	SEGMENT
??_C@_0BC@LINGMMFC@BUTTONPOPUP_ADMIN?$AA@ DB 'BUTTONPOPUP_ADMIN', 00H ; `string'
CONST	ENDS
;	COMDAT ??_C@_0BE@JFKAFGFD@BUTTONPOPUP_DETAILS?$AA@
CONST	SEGMENT
??_C@_0BE@JFKAFGFD@BUTTONPOPUP_DETAILS?$AA@ DB 'BUTTONPOPUP_DETAILS', 00H ; `string'
CONST	ENDS
;	COMDAT ??_C@_0BK@LIBAGOJN@BUTTONPOPUP_PYTHON_SCREEN?$AA@
CONST	SEGMENT
??_C@_0BK@LIBAGOJN@BUTTONPOPUP_PYTHON_SCREEN?$AA@ DB 'BUTTONPOPUP_PYTHON_'
	DB	'SCREEN', 00H				; `string'
CONST	ENDS
;	COMDAT ??_C@_0BD@EBEIPKAB@BUTTONPOPUP_PYTHON?$AA@
CONST	SEGMENT
??_C@_0BD@EBEIPKAB@BUTTONPOPUP_PYTHON?$AA@ DB 'BUTTONPOPUP_PYTHON', 00H ; `string'
CONST	ENDS
;	COMDAT ??_C@_0BK@CBCPHPJP@BUTTONPOPUP_DEAL_CANCELED?$AA@
CONST	SEGMENT
??_C@_0BK@CBCPHPJP@BUTTONPOPUP_DEAL_CANCELED?$AA@ DB 'BUTTONPOPUP_DEAL_CA'
	DB	'NCELED', 00H				; `string'
CONST	ENDS
;	COMDAT ??_C@_0BC@PJCOCHHJ@BUTTONPOPUP_ALARM?$AA@
CONST	SEGMENT
??_C@_0BC@PJCOCHHJ@BUTTONPOPUP_ALARM?$AA@ DB 'BUTTONPOPUP_ALARM', 00H ; `string'
CONST	ENDS
;	COMDAT ??_C@_0BG@BAEKEKON@BUTTONPOPUP_DIPLOVOTE?$AA@
CONST	SEGMENT
??_C@_0BG@BAEKEKON@BUTTONPOPUP_DIPLOVOTE?$AA@ DB 'BUTTONPOPUP_DIPLOVOTE', 00H ; `string'
CONST	ENDS
;	COMDAT ??_C@_0BL@BELPIMOM@BUTTONPOPUP_CHOOSEELECTION?$AA@
CONST	SEGMENT
??_C@_0BL@BELPIMOM@BUTTONPOPUP_CHOOSEELECTION?$AA@ DB 'BUTTONPOPUP_CHOOSE'
	DB	'ELECTION', 00H				; `string'
CONST	ENDS
;	COMDAT ??_C@_0BP@OADEEEI@BUTTONPOPUP_CHOOSECITYPURCHASE?$AA@
CONST	SEGMENT
??_C@_0BP@OADEEEI@BUTTONPOPUP_CHOOSECITYPURCHASE?$AA@ DB 'BUTTONPOPUP_CHO'
	DB	'OSECITYPURCHASE', 00H			; `string'
CONST	ENDS
;	COMDAT ??_C@_0BJ@LPKELEEL@BUTTONPOPUP_CHOOSEPOLICY?$AA@
CONST	SEGMENT
??_C@_0BJ@LPKELEEL@BUTTONPOPUP_CHOOSEPOLICY?$AA@ DB 'BUTTONPOPUP_CHOOSEPO'
	DB	'LICY', 00H					; `string'
CONST	ENDS
;	COMDAT ??_C@_0BN@PHNPCDIP@BUTTONPOPUP_CHOOSEPRODUCTION?$AA@
CONST	SEGMENT
??_C@_0BN@PHNPCDIP@BUTTONPOPUP_CHOOSEPRODUCTION?$AA@ DB 'BUTTONPOPUP_CHOO'
	DB	'SEPRODUCTION', 00H				; `string'
CONST	ENDS
;	COMDAT ??_C@_0BI@ONIKPBPH@BUTTONPOPUP_DISBANDCITY?$AA@
CONST	SEGMENT
??_C@_0BI@ONIKPBPH@BUTTONPOPUP_DISBANDCITY?$AA@ DB 'BUTTONPOPUP_DISBANDCI'
	DB	'TY', 00H					; `string'
CONST	ENDS
;	COMDAT ??_C@_0BL@GMGIAJM@BUTTONPOPUP_LIBERATE_MINOR?$AA@
CONST	SEGMENT
??_C@_0BL@GMGIAJM@BUTTONPOPUP_LIBERATE_MINOR?$AA@ DB 'BUTTONPOPUP_LIBERAT'
	DB	'E_MINOR', 00H				; `string'
CONST	ENDS
;	COMDAT ??_C@_0BH@KCAFFPON@BUTTONPOPUP_ANNEX_CITY?$AA@
CONST	SEGMENT
??_C@_0BH@KCAFFPON@BUTTONPOPUP_ANNEX_CITY?$AA@ DB 'BUTTONPOPUP_ANNEX_CITY'
	DB	00H						; `string'
CONST	ENDS
;	COMDAT ??_C@_0BK@GMFGPMFP@BUTTONPOPUP_CITY_CAPTURED?$AA@
CONST	SEGMENT
??_C@_0BK@GMFGPMFP@BUTTONPOPUP_CITY_CAPTURED?$AA@ DB 'BUTTONPOPUP_CITY_CA'
	DB	'PTURED', 00H				; `string'
CONST	ENDS
;	COMDAT ??_C@_0BH@DCAIJCI@BUTTONPOPUP_CHOOSETECH?$AA@
CONST	SEGMENT
??_C@_0BH@DCAIJCI@BUTTONPOPUP_CHOOSETECH?$AA@ DB 'BUTTONPOPUP_CHOOSETECH', 00H ; `string'
CONST	ENDS
;	COMDAT ??_C@_0BF@OMHLCMCE@BUTTONPOPUP_LEADUNIT?$AA@
CONST	SEGMENT
??_C@_0BF@OMHLCMCE@BUTTONPOPUP_LEADUNIT?$AA@ DB 'BUTTONPOPUP_LEADUNIT', 00H ; `string'
CONST	ENDS
;	COMDAT ??_C@_0BF@HNLLDAOM@BUTTONPOPUP_LOADUNIT?$AA@
CONST	SEGMENT
??_C@_0BF@HNLLDAOM@BUTTONPOPUP_LOADUNIT?$AA@ DB 'BUTTONPOPUP_LOADUNIT', 00H ; `string'
CONST	ENDS
;	COMDAT ??_C@_0BJ@KBDIDDNB@BUTTONPOPUP_GREAT_PERSON?$AA@
CONST	SEGMENT
??_C@_0BJ@KBDIDDNB@BUTTONPOPUP_GREAT_PERSON?$AA@ DB 'BUTTONPOPUP_GREAT_PE'
	DB	'RSON', 00H					; `string'
CONST	ENDS
;	COMDAT ??_C@_0CI@FGOHLHGH@BUTTONPOPUP_CONFIRM_IMPROVEMENT_@
CONST	SEGMENT
??_C@_0CI@FGOHLHGH@BUTTONPOPUP_CONFIRM_IMPROVEMENT_@ DB 'BUTTONPOPUP_CONF'
	DB	'IRM_IMPROVEMENT_REBUILD', 00H		; `string'
CONST	ENDS
;	COMDAT ??_C@_0BO@FAMGOKKO@BUTTONPOPUP_CONFIRM_CITY_TASK?$AA@
CONST	SEGMENT
??_C@_0BO@FAMGOKKO@BUTTONPOPUP_CONFIRM_CITY_TASK?$AA@ DB 'BUTTONPOPUP_CON'
	DB	'FIRM_CITY_TASK', 00H			; `string'
CONST	ENDS
;	COMDAT ??_C@_0BL@BHINBCMN@BUTTONPOPUP_CONFIRMCOMMAND?$AA@
CONST	SEGMENT
??_C@_0BL@BHINBCMN@BUTTONPOPUP_CONFIRMCOMMAND?$AA@ DB 'BUTTONPOPUP_CONFIR'
	DB	'MCOMMAND', 00H				; `string'
CONST	ENDS
;	COMDAT ??_C@_0CC@MCHOJDL@BUTTONPOPUP_DECLAREWARRANGESTRIK@
CONST	SEGMENT
??_C@_0CC@MCHOJDL@BUTTONPOPUP_DECLAREWARRANGESTRIK@ DB 'BUTTONPOPUP_DECLA'
	DB	'REWARRANGESTRIKE', 00H			; `string'
CONST	ENDS
;	COMDAT ??_C@_0BL@EDAEEMHG@BUTTONPOPUP_DECLAREWARMOVE?$AA@
CONST	SEGMENT
??_C@_0BL@EDAEEMHG@BUTTONPOPUP_DECLAREWARMOVE?$AA@ DB 'BUTTONPOPUP_DECLAR'
	DB	'EWARMOVE', 00H				; `string'
CONST	ENDS
;	COMDAT ??_C@_0BJ@GPDDOMNB@BUTTONPOPUP_CONFIRM_MENU?$AA@
CONST	SEGMENT
??_C@_0BJ@GPDDOMNB@BUTTONPOPUP_CONFIRM_MENU?$AA@ DB 'BUTTONPOPUP_CONFIRM_'
	DB	'MENU', 00H					; `string'
CONST	ENDS
;	COMDAT ??_C@_0BG@IDMEIIIN@BUTTONPOPUP_MAIN_MENU?$AA@
CONST	SEGMENT
??_C@_0BG@IDMEIIIN@BUTTONPOPUP_MAIN_MENU?$AA@ DB 'BUTTONPOPUP_MAIN_MENU', 00H ; `string'
CONST	ENDS
;	COMDAT ??_C@_0BB@PDAEDLA@BUTTONPOPUP_TEXT?$AA@
CONST	SEGMENT
??_C@_0BB@PDAEDLA@BUTTONPOPUP_TEXT?$AA@ DB 'BUTTONPOPUP_TEXT', 00H ; `string'
CONST	ENDS
;	COMDAT ??_C@_0BB@GPJDODHM@ButtonPopupTypes?$AA@
CONST	SEGMENT
??_C@_0BB@GPJDODHM@ButtonPopupTypes?$AA@ DB 'ButtonPopupTypes', 00H ; `string'
CONST	ENDS
;	COMDAT ??_C@_0BG@CJCIFOLM@NUM_CITY_UPDATE_TYPES?$AA@
CONST	SEGMENT
??_C@_0BG@CJCIFOLM@NUM_CITY_UPDATE_TYPES?$AA@ DB 'NUM_CITY_UPDATE_TYPES', 00H ; `string'
CONST	ENDS
;	COMDAT ??_C@_0BK@LFDBKICK@CITY_UPDATE_TYPE_GARRISON?$AA@
CONST	SEGMENT
??_C@_0BK@LFDBKICK@CITY_UPDATE_TYPE_GARRISON?$AA@ DB 'CITY_UPDATE_TYPE_GA'
	DB	'RRISON', 00H				; `string'
CONST	ENDS
;	COMDAT ??_C@_0CA@JBAAJFMP@CITY_UPDATE_TYPE_ENEMY_IN_RANGE?$AA@
CONST	SEGMENT
??_C@_0CA@JBAAJFMP@CITY_UPDATE_TYPE_ENEMY_IN_RANGE?$AA@ DB 'CITY_UPDATE_T'
	DB	'YPE_ENEMY_IN_RANGE', 00H			; `string'
CONST	ENDS
;	COMDAT ??_C@_0BM@CHBKOGJH@CITY_UPDATE_TYPE_PRODUCTION?$AA@
CONST	SEGMENT
??_C@_0BM@CHBKOGJH@CITY_UPDATE_TYPE_PRODUCTION?$AA@ DB 'CITY_UPDATE_TYPE_'
	DB	'PRODUCTION', 00H				; `string'
CONST	ENDS
;	COMDAT ??_C@_0BN@PLBLPPJN@CITY_UPDATE_TYPE_SPECIALISTS?$AA@
CONST	SEGMENT
??_C@_0BN@PLBLPPJN@CITY_UPDATE_TYPE_SPECIALISTS?$AA@ DB 'CITY_UPDATE_TYPE'
	DB	'_SPECIALISTS', 00H				; `string'
CONST	ENDS
;	COMDAT ??_C@_0BI@HCAGIMCC@CITY_UPDATE_TYPE_BANNER?$AA@
CONST	SEGMENT
??_C@_0BI@HCAGIMCC@CITY_UPDATE_TYPE_BANNER?$AA@ DB 'CITY_UPDATE_TYPE_BANN'
	DB	'ER', 00H					; `string'
CONST	ENDS
;	COMDAT ??_C@_0BE@MMAKANNM@NO_CITY_UPDATE_TYPE?$AA@
CONST	SEGMENT
??_C@_0BE@MMAKANNM@NO_CITY_UPDATE_TYPE?$AA@ DB 'NO_CITY_UPDATE_TYPE', 00H ; `string'
CONST	ENDS
;	COMDAT ??_C@_0BA@JEIKBHAL@CityUpdateTypes?$AA@
CONST	SEGMENT
??_C@_0BA@JEIKBHAL@CityUpdateTypes?$AA@ DB 'CityUpdateTypes', 00H ; `string'
CONST	ENDS
;	COMDAT ??_C@_0BJ@EOIEFKBC@NUM_INTERFACE_DIRTY_BITS?$AA@
CONST	SEGMENT
??_C@_0BJ@EOIEFKBC@NUM_INTERFACE_DIRTY_BITS?$AA@ DB 'NUM_INTERFACE_DIRTY_'
	DB	'BITS', 00H					; `string'
CONST	ENDS
;	COMDAT ??_C@_0BD@GJKMDAGO@PlotData_DIRTY_BIT?$AA@
CONST	SEGMENT
??_C@_0BD@GJKMDAGO@PlotData_DIRTY_BIT?$AA@ DB 'PlotData_DIRTY_BIT', 00H ; `string'
CONST	ENDS
;	COMDAT ??_C@_0BD@JGPCOJMB@Policies_DIRTY_BIT?$AA@
CONST	SEGMENT
??_C@_0BD@JGPCOJMB@Policies_DIRTY_BIT?$AA@ DB 'Policies_DIRTY_BIT', 00H ; `string'
CONST	ENDS
;	COMDAT ??_C@_0BK@DJPLEJFI@NationalBorders_DIRTY_BIT?$AA@
CONST	SEGMENT
??_C@_0BK@DJPLEJFI@NationalBorders_DIRTY_BIT?$AA@ DB 'NationalBorders_DIR'
	DB	'TY_BIT', 00H				; `string'
CONST	ENDS
;	COMDAT ??_C@_0BJ@EMDECJDK@Advanced_Start_DIRTY_BIT?$AA@
CONST	SEGMENT
??_C@_0BJ@EMDECJDK@Advanced_Start_DIRTY_BIT?$AA@ DB 'Advanced_Start_DIRTY'
	DB	'_BIT', 00H					; `string'
CONST	ENDS
;	COMDAT ??_C@_0BL@HPFKFGPK@Domestic_Advisor_DIRTY_BIT?$AA@
CONST	SEGMENT
??_C@_0BL@HPFKFGPK@Domestic_Advisor_DIRTY_BIT?$AA@ DB 'Domestic_Advisor_D'
	DB	'IRTY_BIT', 00H				; `string'
CONST	ENDS
;	COMDAT ??_C@_0BF@GONILP@Soundtrack_DIRTY_BIT?$AA@
CONST	SEGMENT
??_C@_0BF@GONILP@Soundtrack_DIRTY_BIT?$AA@ DB 'Soundtrack_DIRTY_BIT', 00H ; `string'
CONST	ENDS
;	COMDAT ??_C@_0BJ@CHEIMALI@Foreign_Screen_DIRTY_BIT?$AA@
CONST	SEGMENT
??_C@_0BJ@CHEIMALI@Foreign_Screen_DIRTY_BIT?$AA@ DB 'Foreign_Screen_DIRTY'
	DB	'_BIT', 00H					; `string'
CONST	ENDS
;	COMDAT ??_C@_0BL@EONICADH@Financial_Screen_DIRTY_BIT?$AA@
CONST	SEGMENT
??_C@_0BL@EONICADH@Financial_Screen_DIRTY_BIT?$AA@ DB 'Financial_Screen_D'
	DB	'IRTY_BIT', 00H				; `string'
CONST	ENDS
;	COMDAT ??_C@_0BJ@FBNMLJIM@BlockadedPlots_DIRTY_BIT?$AA@
CONST	SEGMENT
??_C@_0BJ@FBNMLJIM@BlockadedPlots_DIRTY_BIT?$AA@ DB 'BlockadedPlots_DIRTY'
	DB	'_BIT', 00H					; `string'
CONST	ENDS
;	COMDAT ??_C@_0BH@JLJKCOMG@ColoredPlots_DIRTY_BIT?$AA@
CONST	SEGMENT
??_C@_0BH@JLJKCOMG@ColoredPlots_DIRTY_BIT?$AA@ DB 'ColoredPlots_DIRTY_BIT'
	DB	00H						; `string'
CONST	ENDS
;	COMDAT ??_C@_0BI@GNOBLMJJ@HighlightPlot_DIRTY_BIT?$AA@
CONST	SEGMENT
??_C@_0BI@GNOBLMJJ@HighlightPlot_DIRTY_BIT?$AA@ DB 'HighlightPlot_DIRTY_B'
	DB	'IT', 00H					; `string'
CONST	ENDS
;	COMDAT ??_C@_0BD@DPHDGNGL@InfoPane_DIRTY_BIT?$AA@
CONST	SEGMENT
??_C@_0BD@DPHDGNGL@InfoPane_DIRTY_BIT?$AA@ DB 'InfoPane_DIRTY_BIT', 00H ; `string'
CONST	ENDS
;	COMDAT ??_C@_0BF@PEJCLHFD@CityScreen_DIRTY_BIT?$AA@
CONST	SEGMENT
??_C@_0BF@PEJCLHFD@CityScreen_DIRTY_BIT?$AA@ DB 'CityScreen_DIRTY_BIT', 00H ; `string'
CONST	ENDS
;	COMDAT ??_C@_0BA@GLKJLKGB@Popup_DIRTY_BIT?$AA@
CONST	SEGMENT
??_C@_0BA@GLKJLKGB@Popup_DIRTY_BIT?$AA@ DB 'Popup_DIRTY_BIT', 00H ; `string'
CONST	ENDS
;	COMDAT ??_C@_0BD@GCDGGHCK@UnitInfo_DIRTY_BIT?$AA@
CONST	SEGMENT
??_C@_0BD@GCDGGHCK@UnitInfo_DIRTY_BIT?$AA@ DB 'UnitInfo_DIRTY_BIT', 00H ; `string'
CONST	ENDS
;	COMDAT ??_C@_0BD@BCDCFGB@CityInfo_DIRTY_BIT?$AA@
CONST	SEGMENT
??_C@_0BD@BCDCFGB@CityInfo_DIRTY_BIT?$AA@ DB 'CityInfo_DIRTY_BIT', 00H ; `string'
CONST	ENDS
;	COMDAT ??_C@_0BB@ILCJAOGJ@Cursor_DIRTY_BIT?$AA@
CONST	SEGMENT
??_C@_0BB@ILCJAOGJ@Cursor_DIRTY_BIT?$AA@ DB 'Cursor_DIRTY_BIT', 00H ; `string'
CONST	ENDS
;	COMDAT ??_C@_0BJ@HIKIDAJO@SelectionSound_DIRTY_BIT?$AA@
CONST	SEGMENT
??_C@_0BJ@HIKIDAJO@SelectionSound_DIRTY_BIT?$AA@ DB 'SelectionSound_DIRTY'
	DB	'_BIT', 00H					; `string'
CONST	ENDS
;	COMDAT ??_C@_0BJ@MLGMJEHL@MinimapSection_DIRTY_BIT?$AA@
CONST	SEGMENT
??_C@_0BJ@MLGMJEHL@MinimapSection_DIRTY_BIT?$AA@ DB 'MinimapSection_DIRTY'
	DB	'_BIT', 00H					; `string'
CONST	ENDS
;	COMDAT ??_C@_0P@FKNPPFAA@Help_DIRTY_BIT?$AA@
CONST	SEGMENT
??_C@_0P@FKNPPFAA@Help_DIRTY_BIT?$AA@ DB 'Help_DIRTY_BIT', 00H ; `string'
CONST	ENDS
;	COMDAT ??_C@_0BE@NEJCBKAL@TurnTimer_DIRTY_BIT?$AA@
CONST	SEGMENT
??_C@_0BE@NEJCBKAL@TurnTimer_DIRTY_BIT?$AA@ DB 'TurnTimer_DIRTY_BIT', 00H ; `string'
CONST	ENDS
;	COMDAT ??_C@_0BA@NOHKLDFJ@Score_DIRTY_BIT?$AA@
CONST	SEGMENT
??_C@_0BA@NOHKLDFJ@Score_DIRTY_BIT?$AA@ DB 'Score_DIRTY_BIT', 00H ; `string'
CONST	ENDS
;	COMDAT ??_C@_0BD@FPAIHAAM@GameData_DIRTY_BIT?$AA@
CONST	SEGMENT
??_C@_0BD@FPAIHAAM@GameData_DIRTY_BIT?$AA@ DB 'GameData_DIRTY_BIT', 00H ; `string'
CONST	ENDS
;	COMDAT ??_C@_0BB@DDALMKLK@Center_DIRTY_BIT?$AA@
CONST	SEGMENT
??_C@_0BB@DDALMKLK@Center_DIRTY_BIT?$AA@ DB 'Center_DIRTY_BIT', 00H ; `string'
CONST	ENDS
;	COMDAT ??_C@_0BA@HHBOKBMO@Event_DIRTY_BIT?$AA@
CONST	SEGMENT
??_C@_0BA@HHBOKBMO@Event_DIRTY_BIT?$AA@ DB 'Event_DIRTY_BIT', 00H ; `string'
CONST	ENDS
;	COMDAT ??_C@_0BK@HMKLFLIB@ResearchButtons_DIRTY_BIT?$AA@
CONST	SEGMENT
??_C@_0BK@HMKLFLIB@ResearchButtons_DIRTY_BIT?$AA@ DB 'ResearchButtons_DIR'
	DB	'TY_BIT', 00H				; `string'
CONST	ENDS
;	COMDAT ??_C@_0BJ@PBKNOENG@CitizenButtons_DIRTY_BIT?$AA@
CONST	SEGMENT
??_C@_0BJ@PBKNOENG@CitizenButtons_DIRTY_BIT?$AA@ DB 'CitizenButtons_DIRTY'
	DB	'_BIT', 00H					; `string'
CONST	ENDS
;	COMDAT ??_C@_0BL@GJLKEEMC@SelectionButtons_DIRTY_BIT?$AA@
CONST	SEGMENT
??_C@_0BL@GJLKEEMC@SelectionButtons_DIRTY_BIT?$AA@ DB 'SelectionButtons_D'
	DB	'IRTY_BIT', 00H				; `string'
CONST	ENDS
;	COMDAT ??_C@_0BK@MCBAPICB@PlotListButtons_DIRTY_BIT?$AA@
CONST	SEGMENT
??_C@_0BK@MCBAPICB@PlotListButtons_DIRTY_BIT?$AA@ DB 'PlotListButtons_DIR'
	DB	'TY_BIT', 00H				; `string'
CONST	ENDS
;	COMDAT ??_C@_0BG@EKCCODB@MiscButtons_DIRTY_BIT?$AA@
CONST	SEGMENT
??_C@_0BG@EKCCODB@MiscButtons_DIRTY_BIT?$AA@ DB 'MiscButtons_DIRTY_BIT', 00H ; `string'
CONST	ENDS
;	COMDAT ??_C@_0BJ@GFBGMDE@PercentButtons_DIRTY_BIT?$AA@
CONST	SEGMENT
??_C@_0BJ@GFBGMDE@PercentButtons_DIRTY_BIT?$AA@ DB 'PercentButtons_DIRTY_'
	DB	'BIT', 00H					; `string'
CONST	ENDS
;	COMDAT ??_C@_0BE@PCFALBJ@Waypoints_DIRTY_BIT?$AA@
CONST	SEGMENT
??_C@_0BE@PCFALBJ@Waypoints_DIRTY_BIT?$AA@ DB 'Waypoints_DIRTY_BIT', 00H ; `string'
CONST	ENDS
;	COMDAT ??_C@_0O@CNIKANGE@Fog_DIRTY_BIT?$AA@
CONST	SEGMENT
??_C@_0O@CNIKANGE@Fog_DIRTY_BIT?$AA@ DB 'Fog_DIRTY_BIT', 00H ; `string'
CONST	ENDS
;	COMDAT ??_C@_0BK@KPDAGOBF@SelectionCamera_DIRTY_BIT?$AA@
CONST	SEGMENT
??_C@_0BK@KPDAGOBF@SelectionCamera_DIRTY_BIT?$AA@ DB 'SelectionCamera_DIR'
	DB	'TY_BIT', 00H				; `string'
CONST	ENDS
;	COMDAT ??_C@_0BD@OFAIPLIK@InterfaceDirtyBits?$AA@
CONST	SEGMENT
??_C@_0BD@OFAIPLIK@InterfaceDirtyBits?$AA@ DB 'InterfaceDirtyBits', 00H ; `string'
; Function compile flags: /Odtp
; File d:\sources\lekmod_git\checkout\lekmod_dll\cvgamecoredll_expansion2\lua\cvluaenums.cpp
CONST	ENDS
;	COMDAT ?pRegister@CvLuaEnums@@KAHPAUlua_State@@@Z
_TEXT	SEGMENT
tv3331 = -40						; size = 4
tv3329 = -36						; size = 4
tv3618 = -29						; size = 1
tv3615 = -28						; size = 4
tv3612 = -24						; size = 4
$T221896 = -20						; size = 4
$T221895 = -16						; size = 4
_pkEntry$220475 = -12					; size = 4
_i$220471 = -8						; size = 4
_pkNotifications$ = -4					; size = 4
_L$ = 8							; size = 4
?pRegister@CvLuaEnums@@KAHPAUlua_State@@@Z PROC		; CvLuaEnums::pRegister, COMDAT

; 31   : {

	push	ebp
	mov	ebp, esp
	sub	esp, 40					; 00000028H

; 32   : 	// Things from CvDefines.h
; 33   : 	// Interface Dirty Bits
; 34   : 	EnumStart(L, "InterfaceDirtyBits");

	push	OFFSET ??_C@_0BD@OFAIPLIK@InterfaceDirtyBits?$AA@
	mov	eax, DWORD PTR _L$[ebp]
	push	eax
	call	?EnumStart@CvLuaEnums@@KAXPAUlua_State@@PBD@Z ; CvLuaEnums::EnumStart
	add	esp, 8

; 35   : 	RegisterEnum(SelectionCamera_DIRTY_BIT);

	push	0
	push	OFFSET ??_C@_0BK@KPDAGOBF@SelectionCamera_DIRTY_BIT?$AA@
	mov	ecx, DWORD PTR _L$[ebp]
	push	ecx
	call	?pRegisterEnum@CvLuaEnums@@KAXPAUlua_State@@PBDH@Z ; CvLuaEnums::pRegisterEnum
	add	esp, 12					; 0000000cH

; 36   : 	RegisterEnum(Fog_DIRTY_BIT);

	push	1
	push	OFFSET ??_C@_0O@CNIKANGE@Fog_DIRTY_BIT?$AA@
	mov	edx, DWORD PTR _L$[ebp]
	push	edx
	call	?pRegisterEnum@CvLuaEnums@@KAXPAUlua_State@@PBDH@Z ; CvLuaEnums::pRegisterEnum
	add	esp, 12					; 0000000cH

; 37   : 	RegisterEnum(Waypoints_DIRTY_BIT);

	push	2
	push	OFFSET ??_C@_0BE@PCFALBJ@Waypoints_DIRTY_BIT?$AA@
	mov	eax, DWORD PTR _L$[ebp]
	push	eax
	call	?pRegisterEnum@CvLuaEnums@@KAXPAUlua_State@@PBDH@Z ; CvLuaEnums::pRegisterEnum
	add	esp, 12					; 0000000cH

; 38   : 	RegisterEnum(PercentButtons_DIRTY_BIT);

	push	3
	push	OFFSET ??_C@_0BJ@GFBGMDE@PercentButtons_DIRTY_BIT?$AA@
	mov	ecx, DWORD PTR _L$[ebp]
	push	ecx
	call	?pRegisterEnum@CvLuaEnums@@KAXPAUlua_State@@PBDH@Z ; CvLuaEnums::pRegisterEnum
	add	esp, 12					; 0000000cH

; 39   : 	RegisterEnum(MiscButtons_DIRTY_BIT);

	push	4
	push	OFFSET ??_C@_0BG@EKCCODB@MiscButtons_DIRTY_BIT?$AA@
	mov	edx, DWORD PTR _L$[ebp]
	push	edx
	call	?pRegisterEnum@CvLuaEnums@@KAXPAUlua_State@@PBDH@Z ; CvLuaEnums::pRegisterEnum
	add	esp, 12					; 0000000cH

; 40   : 	RegisterEnum(PlotListButtons_DIRTY_BIT);

	push	5
	push	OFFSET ??_C@_0BK@MCBAPICB@PlotListButtons_DIRTY_BIT?$AA@
	mov	eax, DWORD PTR _L$[ebp]
	push	eax
	call	?pRegisterEnum@CvLuaEnums@@KAXPAUlua_State@@PBDH@Z ; CvLuaEnums::pRegisterEnum
	add	esp, 12					; 0000000cH

; 41   : 	RegisterEnum(SelectionButtons_DIRTY_BIT);

	push	6
	push	OFFSET ??_C@_0BL@GJLKEEMC@SelectionButtons_DIRTY_BIT?$AA@
	mov	ecx, DWORD PTR _L$[ebp]
	push	ecx
	call	?pRegisterEnum@CvLuaEnums@@KAXPAUlua_State@@PBDH@Z ; CvLuaEnums::pRegisterEnum
	add	esp, 12					; 0000000cH

; 42   : 	RegisterEnum(CitizenButtons_DIRTY_BIT);

	push	7
	push	OFFSET ??_C@_0BJ@PBKNOENG@CitizenButtons_DIRTY_BIT?$AA@
	mov	edx, DWORD PTR _L$[ebp]
	push	edx
	call	?pRegisterEnum@CvLuaEnums@@KAXPAUlua_State@@PBDH@Z ; CvLuaEnums::pRegisterEnum
	add	esp, 12					; 0000000cH

; 43   : 	RegisterEnum(ResearchButtons_DIRTY_BIT);

	push	8
	push	OFFSET ??_C@_0BK@HMKLFLIB@ResearchButtons_DIRTY_BIT?$AA@
	mov	eax, DWORD PTR _L$[ebp]
	push	eax
	call	?pRegisterEnum@CvLuaEnums@@KAXPAUlua_State@@PBDH@Z ; CvLuaEnums::pRegisterEnum
	add	esp, 12					; 0000000cH

; 44   : 	RegisterEnum(Event_DIRTY_BIT);

	push	9
	push	OFFSET ??_C@_0BA@HHBOKBMO@Event_DIRTY_BIT?$AA@
	mov	ecx, DWORD PTR _L$[ebp]
	push	ecx
	call	?pRegisterEnum@CvLuaEnums@@KAXPAUlua_State@@PBDH@Z ; CvLuaEnums::pRegisterEnum
	add	esp, 12					; 0000000cH

; 45   : 	RegisterEnum(Center_DIRTY_BIT);

	push	10					; 0000000aH
	push	OFFSET ??_C@_0BB@DDALMKLK@Center_DIRTY_BIT?$AA@
	mov	edx, DWORD PTR _L$[ebp]
	push	edx
	call	?pRegisterEnum@CvLuaEnums@@KAXPAUlua_State@@PBDH@Z ; CvLuaEnums::pRegisterEnum
	add	esp, 12					; 0000000cH

; 46   : 	RegisterEnum(GameData_DIRTY_BIT);

	push	11					; 0000000bH
	push	OFFSET ??_C@_0BD@FPAIHAAM@GameData_DIRTY_BIT?$AA@
	mov	eax, DWORD PTR _L$[ebp]
	push	eax
	call	?pRegisterEnum@CvLuaEnums@@KAXPAUlua_State@@PBDH@Z ; CvLuaEnums::pRegisterEnum
	add	esp, 12					; 0000000cH

; 47   : 	RegisterEnum(Score_DIRTY_BIT);

	push	12					; 0000000cH
	push	OFFSET ??_C@_0BA@NOHKLDFJ@Score_DIRTY_BIT?$AA@
	mov	ecx, DWORD PTR _L$[ebp]
	push	ecx
	call	?pRegisterEnum@CvLuaEnums@@KAXPAUlua_State@@PBDH@Z ; CvLuaEnums::pRegisterEnum
	add	esp, 12					; 0000000cH

; 48   : 	RegisterEnum(TurnTimer_DIRTY_BIT);

	push	13					; 0000000dH
	push	OFFSET ??_C@_0BE@NEJCBKAL@TurnTimer_DIRTY_BIT?$AA@
	mov	edx, DWORD PTR _L$[ebp]
	push	edx
	call	?pRegisterEnum@CvLuaEnums@@KAXPAUlua_State@@PBDH@Z ; CvLuaEnums::pRegisterEnum
	add	esp, 12					; 0000000cH

; 49   : 	RegisterEnum(Help_DIRTY_BIT);

	push	14					; 0000000eH
	push	OFFSET ??_C@_0P@FKNPPFAA@Help_DIRTY_BIT?$AA@
	mov	eax, DWORD PTR _L$[ebp]
	push	eax
	call	?pRegisterEnum@CvLuaEnums@@KAXPAUlua_State@@PBDH@Z ; CvLuaEnums::pRegisterEnum
	add	esp, 12					; 0000000cH

; 50   : 	RegisterEnum(MinimapSection_DIRTY_BIT);

	push	15					; 0000000fH
	push	OFFSET ??_C@_0BJ@MLGMJEHL@MinimapSection_DIRTY_BIT?$AA@
	mov	ecx, DWORD PTR _L$[ebp]
	push	ecx
	call	?pRegisterEnum@CvLuaEnums@@KAXPAUlua_State@@PBDH@Z ; CvLuaEnums::pRegisterEnum
	add	esp, 12					; 0000000cH

; 51   : 	RegisterEnum(SelectionSound_DIRTY_BIT);

	push	16					; 00000010H
	push	OFFSET ??_C@_0BJ@HIKIDAJO@SelectionSound_DIRTY_BIT?$AA@
	mov	edx, DWORD PTR _L$[ebp]
	push	edx
	call	?pRegisterEnum@CvLuaEnums@@KAXPAUlua_State@@PBDH@Z ; CvLuaEnums::pRegisterEnum
	add	esp, 12					; 0000000cH

; 52   : 	RegisterEnum(Cursor_DIRTY_BIT);

	push	17					; 00000011H
	push	OFFSET ??_C@_0BB@ILCJAOGJ@Cursor_DIRTY_BIT?$AA@
	mov	eax, DWORD PTR _L$[ebp]
	push	eax
	call	?pRegisterEnum@CvLuaEnums@@KAXPAUlua_State@@PBDH@Z ; CvLuaEnums::pRegisterEnum
	add	esp, 12					; 0000000cH

; 53   : 	RegisterEnum(CityInfo_DIRTY_BIT);

	push	18					; 00000012H
	push	OFFSET ??_C@_0BD@BCDCFGB@CityInfo_DIRTY_BIT?$AA@
	mov	ecx, DWORD PTR _L$[ebp]
	push	ecx
	call	?pRegisterEnum@CvLuaEnums@@KAXPAUlua_State@@PBDH@Z ; CvLuaEnums::pRegisterEnum
	add	esp, 12					; 0000000cH

; 54   : 	RegisterEnum(UnitInfo_DIRTY_BIT);

	push	19					; 00000013H
	push	OFFSET ??_C@_0BD@GCDGGHCK@UnitInfo_DIRTY_BIT?$AA@
	mov	edx, DWORD PTR _L$[ebp]
	push	edx
	call	?pRegisterEnum@CvLuaEnums@@KAXPAUlua_State@@PBDH@Z ; CvLuaEnums::pRegisterEnum
	add	esp, 12					; 0000000cH

; 55   : 	RegisterEnum(Popup_DIRTY_BIT);

	push	20					; 00000014H
	push	OFFSET ??_C@_0BA@GLKJLKGB@Popup_DIRTY_BIT?$AA@
	mov	eax, DWORD PTR _L$[ebp]
	push	eax
	call	?pRegisterEnum@CvLuaEnums@@KAXPAUlua_State@@PBDH@Z ; CvLuaEnums::pRegisterEnum
	add	esp, 12					; 0000000cH

; 56   : 	RegisterEnum(CityScreen_DIRTY_BIT);

	push	21					; 00000015H
	push	OFFSET ??_C@_0BF@PEJCLHFD@CityScreen_DIRTY_BIT?$AA@
	mov	ecx, DWORD PTR _L$[ebp]
	push	ecx
	call	?pRegisterEnum@CvLuaEnums@@KAXPAUlua_State@@PBDH@Z ; CvLuaEnums::pRegisterEnum
	add	esp, 12					; 0000000cH

; 57   : 	RegisterEnum(InfoPane_DIRTY_BIT);

	push	22					; 00000016H
	push	OFFSET ??_C@_0BD@DPHDGNGL@InfoPane_DIRTY_BIT?$AA@
	mov	edx, DWORD PTR _L$[ebp]
	push	edx
	call	?pRegisterEnum@CvLuaEnums@@KAXPAUlua_State@@PBDH@Z ; CvLuaEnums::pRegisterEnum
	add	esp, 12					; 0000000cH

; 58   : 	RegisterEnum(HighlightPlot_DIRTY_BIT);

	push	23					; 00000017H
	push	OFFSET ??_C@_0BI@GNOBLMJJ@HighlightPlot_DIRTY_BIT?$AA@
	mov	eax, DWORD PTR _L$[ebp]
	push	eax
	call	?pRegisterEnum@CvLuaEnums@@KAXPAUlua_State@@PBDH@Z ; CvLuaEnums::pRegisterEnum
	add	esp, 12					; 0000000cH

; 59   : 	RegisterEnum(ColoredPlots_DIRTY_BIT);

	push	24					; 00000018H
	push	OFFSET ??_C@_0BH@JLJKCOMG@ColoredPlots_DIRTY_BIT?$AA@
	mov	ecx, DWORD PTR _L$[ebp]
	push	ecx
	call	?pRegisterEnum@CvLuaEnums@@KAXPAUlua_State@@PBDH@Z ; CvLuaEnums::pRegisterEnum
	add	esp, 12					; 0000000cH

; 60   : 	RegisterEnum(BlockadedPlots_DIRTY_BIT);

	push	25					; 00000019H
	push	OFFSET ??_C@_0BJ@FBNMLJIM@BlockadedPlots_DIRTY_BIT?$AA@
	mov	edx, DWORD PTR _L$[ebp]
	push	edx
	call	?pRegisterEnum@CvLuaEnums@@KAXPAUlua_State@@PBDH@Z ; CvLuaEnums::pRegisterEnum
	add	esp, 12					; 0000000cH

; 61   : 	RegisterEnum(Financial_Screen_DIRTY_BIT);

	push	26					; 0000001aH
	push	OFFSET ??_C@_0BL@EONICADH@Financial_Screen_DIRTY_BIT?$AA@
	mov	eax, DWORD PTR _L$[ebp]
	push	eax
	call	?pRegisterEnum@CvLuaEnums@@KAXPAUlua_State@@PBDH@Z ; CvLuaEnums::pRegisterEnum
	add	esp, 12					; 0000000cH

; 62   : 	RegisterEnum(Foreign_Screen_DIRTY_BIT);

	push	27					; 0000001bH
	push	OFFSET ??_C@_0BJ@CHEIMALI@Foreign_Screen_DIRTY_BIT?$AA@
	mov	ecx, DWORD PTR _L$[ebp]
	push	ecx
	call	?pRegisterEnum@CvLuaEnums@@KAXPAUlua_State@@PBDH@Z ; CvLuaEnums::pRegisterEnum
	add	esp, 12					; 0000000cH

; 63   : 	RegisterEnum(Soundtrack_DIRTY_BIT);

	push	28					; 0000001cH
	push	OFFSET ??_C@_0BF@GONILP@Soundtrack_DIRTY_BIT?$AA@
	mov	edx, DWORD PTR _L$[ebp]
	push	edx
	call	?pRegisterEnum@CvLuaEnums@@KAXPAUlua_State@@PBDH@Z ; CvLuaEnums::pRegisterEnum
	add	esp, 12					; 0000000cH

; 64   : 	RegisterEnum(Domestic_Advisor_DIRTY_BIT);

	push	29					; 0000001dH
	push	OFFSET ??_C@_0BL@HPFKFGPK@Domestic_Advisor_DIRTY_BIT?$AA@
	mov	eax, DWORD PTR _L$[ebp]
	push	eax
	call	?pRegisterEnum@CvLuaEnums@@KAXPAUlua_State@@PBDH@Z ; CvLuaEnums::pRegisterEnum
	add	esp, 12					; 0000000cH

; 65   : 	RegisterEnum(Advanced_Start_DIRTY_BIT);

	push	30					; 0000001eH
	push	OFFSET ??_C@_0BJ@EMDECJDK@Advanced_Start_DIRTY_BIT?$AA@
	mov	ecx, DWORD PTR _L$[ebp]
	push	ecx
	call	?pRegisterEnum@CvLuaEnums@@KAXPAUlua_State@@PBDH@Z ; CvLuaEnums::pRegisterEnum
	add	esp, 12					; 0000000cH

; 66   : 	RegisterEnum(NationalBorders_DIRTY_BIT);

	push	31					; 0000001fH
	push	OFFSET ??_C@_0BK@DJPLEJFI@NationalBorders_DIRTY_BIT?$AA@
	mov	edx, DWORD PTR _L$[ebp]
	push	edx
	call	?pRegisterEnum@CvLuaEnums@@KAXPAUlua_State@@PBDH@Z ; CvLuaEnums::pRegisterEnum
	add	esp, 12					; 0000000cH

; 67   : 	RegisterEnum(Policies_DIRTY_BIT);

	push	32					; 00000020H
	push	OFFSET ??_C@_0BD@JGPCOJMB@Policies_DIRTY_BIT?$AA@
	mov	eax, DWORD PTR _L$[ebp]
	push	eax
	call	?pRegisterEnum@CvLuaEnums@@KAXPAUlua_State@@PBDH@Z ; CvLuaEnums::pRegisterEnum
	add	esp, 12					; 0000000cH

; 68   : 	RegisterEnum(PlotData_DIRTY_BIT);

	push	33					; 00000021H
	push	OFFSET ??_C@_0BD@GJKMDAGO@PlotData_DIRTY_BIT?$AA@
	mov	ecx, DWORD PTR _L$[ebp]
	push	ecx
	call	?pRegisterEnum@CvLuaEnums@@KAXPAUlua_State@@PBDH@Z ; CvLuaEnums::pRegisterEnum
	add	esp, 12					; 0000000cH

; 69   : 	RegisterEnum(NUM_INTERFACE_DIRTY_BITS);

	push	37					; 00000025H
	push	OFFSET ??_C@_0BJ@EOIEFKBC@NUM_INTERFACE_DIRTY_BITS?$AA@
	mov	edx, DWORD PTR _L$[ebp]
	push	edx
	call	?pRegisterEnum@CvLuaEnums@@KAXPAUlua_State@@PBDH@Z ; CvLuaEnums::pRegisterEnum
	add	esp, 12					; 0000000cH

; 70   : 	EnumEnd(L);

	mov	eax, DWORD PTR _L$[ebp]
	push	eax
	call	?EnumEnd@CvLuaEnums@@KAXPAUlua_State@@@Z ; CvLuaEnums::EnumEnd
	add	esp, 4

; 71   : 
; 72   : 	// City Update Types
; 73   : 	EnumStart(L, "CityUpdateTypes");

	push	OFFSET ??_C@_0BA@JEIKBHAL@CityUpdateTypes?$AA@
	mov	ecx, DWORD PTR _L$[ebp]
	push	ecx
	call	?EnumStart@CvLuaEnums@@KAXPAUlua_State@@PBD@Z ; CvLuaEnums::EnumStart
	add	esp, 8

; 74   : 	RegisterEnum(NO_CITY_UPDATE_TYPE);

	push	-1
	push	OFFSET ??_C@_0BE@MMAKANNM@NO_CITY_UPDATE_TYPE?$AA@
	mov	edx, DWORD PTR _L$[ebp]
	push	edx
	call	?pRegisterEnum@CvLuaEnums@@KAXPAUlua_State@@PBDH@Z ; CvLuaEnums::pRegisterEnum
	add	esp, 12					; 0000000cH

; 75   : 	RegisterEnum(CITY_UPDATE_TYPE_BANNER);

	push	0
	push	OFFSET ??_C@_0BI@HCAGIMCC@CITY_UPDATE_TYPE_BANNER?$AA@
	mov	eax, DWORD PTR _L$[ebp]
	push	eax
	call	?pRegisterEnum@CvLuaEnums@@KAXPAUlua_State@@PBDH@Z ; CvLuaEnums::pRegisterEnum
	add	esp, 12					; 0000000cH

; 76   : 	RegisterEnum(CITY_UPDATE_TYPE_SPECIALISTS);

	push	1
	push	OFFSET ??_C@_0BN@PLBLPPJN@CITY_UPDATE_TYPE_SPECIALISTS?$AA@
	mov	ecx, DWORD PTR _L$[ebp]
	push	ecx
	call	?pRegisterEnum@CvLuaEnums@@KAXPAUlua_State@@PBDH@Z ; CvLuaEnums::pRegisterEnum
	add	esp, 12					; 0000000cH

; 77   : 	RegisterEnum(CITY_UPDATE_TYPE_PRODUCTION);

	push	2
	push	OFFSET ??_C@_0BM@CHBKOGJH@CITY_UPDATE_TYPE_PRODUCTION?$AA@
	mov	edx, DWORD PTR _L$[ebp]
	push	edx
	call	?pRegisterEnum@CvLuaEnums@@KAXPAUlua_State@@PBDH@Z ; CvLuaEnums::pRegisterEnum
	add	esp, 12					; 0000000cH

; 78   : 	RegisterEnum(CITY_UPDATE_TYPE_ENEMY_IN_RANGE);

	push	3
	push	OFFSET ??_C@_0CA@JBAAJFMP@CITY_UPDATE_TYPE_ENEMY_IN_RANGE?$AA@
	mov	eax, DWORD PTR _L$[ebp]
	push	eax
	call	?pRegisterEnum@CvLuaEnums@@KAXPAUlua_State@@PBDH@Z ; CvLuaEnums::pRegisterEnum
	add	esp, 12					; 0000000cH

; 79   : 	RegisterEnum(CITY_UPDATE_TYPE_GARRISON);

	push	4
	push	OFFSET ??_C@_0BK@LFDBKICK@CITY_UPDATE_TYPE_GARRISON?$AA@
	mov	ecx, DWORD PTR _L$[ebp]
	push	ecx
	call	?pRegisterEnum@CvLuaEnums@@KAXPAUlua_State@@PBDH@Z ; CvLuaEnums::pRegisterEnum
	add	esp, 12					; 0000000cH

; 80   : 	RegisterEnum(NUM_CITY_UPDATE_TYPES);

	push	5
	push	OFFSET ??_C@_0BG@CJCIFOLM@NUM_CITY_UPDATE_TYPES?$AA@
	mov	edx, DWORD PTR _L$[ebp]
	push	edx
	call	?pRegisterEnum@CvLuaEnums@@KAXPAUlua_State@@PBDH@Z ; CvLuaEnums::pRegisterEnum
	add	esp, 12					; 0000000cH

; 81   : 	EnumEnd(L);

	mov	eax, DWORD PTR _L$[ebp]
	push	eax
	call	?EnumEnd@CvLuaEnums@@KAXPAUlua_State@@@Z ; CvLuaEnums::EnumEnd
	add	esp, 4

; 82   : 
; 83   : 	//Button Popup Types
; 84   : 	EnumStart(L, "ButtonPopupTypes");

	push	OFFSET ??_C@_0BB@GPJDODHM@ButtonPopupTypes?$AA@
	mov	ecx, DWORD PTR _L$[ebp]
	push	ecx
	call	?EnumStart@CvLuaEnums@@KAXPAUlua_State@@PBD@Z ; CvLuaEnums::EnumStart
	add	esp, 8

; 85   : 	RegisterEnum(BUTTONPOPUP_TEXT);

	push	0
	push	OFFSET ??_C@_0BB@PDAEDLA@BUTTONPOPUP_TEXT?$AA@
	mov	edx, DWORD PTR _L$[ebp]
	push	edx
	call	?pRegisterEnum@CvLuaEnums@@KAXPAUlua_State@@PBDH@Z ; CvLuaEnums::pRegisterEnum
	add	esp, 12					; 0000000cH

; 86   : 	RegisterEnum(BUTTONPOPUP_MAIN_MENU);

	push	1
	push	OFFSET ??_C@_0BG@IDMEIIIN@BUTTONPOPUP_MAIN_MENU?$AA@
	mov	eax, DWORD PTR _L$[ebp]
	push	eax
	call	?pRegisterEnum@CvLuaEnums@@KAXPAUlua_State@@PBDH@Z ; CvLuaEnums::pRegisterEnum
	add	esp, 12					; 0000000cH

; 87   : 	RegisterEnum(BUTTONPOPUP_CONFIRM_MENU);

	push	2
	push	OFFSET ??_C@_0BJ@GPDDOMNB@BUTTONPOPUP_CONFIRM_MENU?$AA@
	mov	ecx, DWORD PTR _L$[ebp]
	push	ecx
	call	?pRegisterEnum@CvLuaEnums@@KAXPAUlua_State@@PBDH@Z ; CvLuaEnums::pRegisterEnum
	add	esp, 12					; 0000000cH

; 88   : 	RegisterEnum(BUTTONPOPUP_DECLAREWARMOVE);

	push	3
	push	OFFSET ??_C@_0BL@EDAEEMHG@BUTTONPOPUP_DECLAREWARMOVE?$AA@
	mov	edx, DWORD PTR _L$[ebp]
	push	edx
	call	?pRegisterEnum@CvLuaEnums@@KAXPAUlua_State@@PBDH@Z ; CvLuaEnums::pRegisterEnum
	add	esp, 12					; 0000000cH

; 89   : 	RegisterEnum(BUTTONPOPUP_DECLAREWARRANGESTRIKE);

	push	4
	push	OFFSET ??_C@_0CC@MCHOJDL@BUTTONPOPUP_DECLAREWARRANGESTRIK@
	mov	eax, DWORD PTR _L$[ebp]
	push	eax
	call	?pRegisterEnum@CvLuaEnums@@KAXPAUlua_State@@PBDH@Z ; CvLuaEnums::pRegisterEnum
	add	esp, 12					; 0000000cH

; 90   : 	RegisterEnum(BUTTONPOPUP_CONFIRMCOMMAND);

	push	5
	push	OFFSET ??_C@_0BL@BHINBCMN@BUTTONPOPUP_CONFIRMCOMMAND?$AA@
	mov	ecx, DWORD PTR _L$[ebp]
	push	ecx
	call	?pRegisterEnum@CvLuaEnums@@KAXPAUlua_State@@PBDH@Z ; CvLuaEnums::pRegisterEnum
	add	esp, 12					; 0000000cH

; 91   : 	RegisterEnum(BUTTONPOPUP_CONFIRM_CITY_TASK);

	push	6
	push	OFFSET ??_C@_0BO@FAMGOKKO@BUTTONPOPUP_CONFIRM_CITY_TASK?$AA@
	mov	edx, DWORD PTR _L$[ebp]
	push	edx
	call	?pRegisterEnum@CvLuaEnums@@KAXPAUlua_State@@PBDH@Z ; CvLuaEnums::pRegisterEnum
	add	esp, 12					; 0000000cH

; 92   : 	RegisterEnum(BUTTONPOPUP_CONFIRM_IMPROVEMENT_REBUILD);

	push	7
	push	OFFSET ??_C@_0CI@FGOHLHGH@BUTTONPOPUP_CONFIRM_IMPROVEMENT_@
	mov	eax, DWORD PTR _L$[ebp]
	push	eax
	call	?pRegisterEnum@CvLuaEnums@@KAXPAUlua_State@@PBDH@Z ; CvLuaEnums::pRegisterEnum
	add	esp, 12					; 0000000cH

; 93   : 	RegisterEnum(BUTTONPOPUP_GREAT_PERSON);

	push	8
	push	OFFSET ??_C@_0BJ@KBDIDDNB@BUTTONPOPUP_GREAT_PERSON?$AA@
	mov	ecx, DWORD PTR _L$[ebp]
	push	ecx
	call	?pRegisterEnum@CvLuaEnums@@KAXPAUlua_State@@PBDH@Z ; CvLuaEnums::pRegisterEnum
	add	esp, 12					; 0000000cH

; 94   : 	RegisterEnum(BUTTONPOPUP_LOADUNIT);

	push	9
	push	OFFSET ??_C@_0BF@HNLLDAOM@BUTTONPOPUP_LOADUNIT?$AA@
	mov	edx, DWORD PTR _L$[ebp]
	push	edx
	call	?pRegisterEnum@CvLuaEnums@@KAXPAUlua_State@@PBDH@Z ; CvLuaEnums::pRegisterEnum
	add	esp, 12					; 0000000cH

; 95   : 	RegisterEnum(BUTTONPOPUP_LEADUNIT);

	push	10					; 0000000aH
	push	OFFSET ??_C@_0BF@OMHLCMCE@BUTTONPOPUP_LEADUNIT?$AA@
	mov	eax, DWORD PTR _L$[ebp]
	push	eax
	call	?pRegisterEnum@CvLuaEnums@@KAXPAUlua_State@@PBDH@Z ; CvLuaEnums::pRegisterEnum
	add	esp, 12					; 0000000cH

; 96   : 	RegisterEnum(BUTTONPOPUP_CHOOSETECH);

	push	11					; 0000000bH
	push	OFFSET ??_C@_0BH@DCAIJCI@BUTTONPOPUP_CHOOSETECH?$AA@
	mov	ecx, DWORD PTR _L$[ebp]
	push	ecx
	call	?pRegisterEnum@CvLuaEnums@@KAXPAUlua_State@@PBDH@Z ; CvLuaEnums::pRegisterEnum
	add	esp, 12					; 0000000cH

; 97   : 	RegisterEnum(BUTTONPOPUP_CITY_CAPTURED);

	push	12					; 0000000cH
	push	OFFSET ??_C@_0BK@GMFGPMFP@BUTTONPOPUP_CITY_CAPTURED?$AA@
	mov	edx, DWORD PTR _L$[ebp]
	push	edx
	call	?pRegisterEnum@CvLuaEnums@@KAXPAUlua_State@@PBDH@Z ; CvLuaEnums::pRegisterEnum
	add	esp, 12					; 0000000cH

; 98   : 	RegisterEnum(BUTTONPOPUP_ANNEX_CITY);

	push	13					; 0000000dH
	push	OFFSET ??_C@_0BH@KCAFFPON@BUTTONPOPUP_ANNEX_CITY?$AA@
	mov	eax, DWORD PTR _L$[ebp]
	push	eax
	call	?pRegisterEnum@CvLuaEnums@@KAXPAUlua_State@@PBDH@Z ; CvLuaEnums::pRegisterEnum
	add	esp, 12					; 0000000cH

; 99   : 	RegisterEnum(BUTTONPOPUP_LIBERATE_MINOR);

	push	14					; 0000000eH
	push	OFFSET ??_C@_0BL@GMGIAJM@BUTTONPOPUP_LIBERATE_MINOR?$AA@
	mov	ecx, DWORD PTR _L$[ebp]
	push	ecx
	call	?pRegisterEnum@CvLuaEnums@@KAXPAUlua_State@@PBDH@Z ; CvLuaEnums::pRegisterEnum
	add	esp, 12					; 0000000cH

; 100  : 	RegisterEnum(BUTTONPOPUP_DISBANDCITY);

	push	15					; 0000000fH
	push	OFFSET ??_C@_0BI@ONIKPBPH@BUTTONPOPUP_DISBANDCITY?$AA@
	mov	edx, DWORD PTR _L$[ebp]
	push	edx
	call	?pRegisterEnum@CvLuaEnums@@KAXPAUlua_State@@PBDH@Z ; CvLuaEnums::pRegisterEnum
	add	esp, 12					; 0000000cH

; 101  : 	RegisterEnum(BUTTONPOPUP_CHOOSEPRODUCTION);

	push	16					; 00000010H
	push	OFFSET ??_C@_0BN@PHNPCDIP@BUTTONPOPUP_CHOOSEPRODUCTION?$AA@
	mov	eax, DWORD PTR _L$[ebp]
	push	eax
	call	?pRegisterEnum@CvLuaEnums@@KAXPAUlua_State@@PBDH@Z ; CvLuaEnums::pRegisterEnum
	add	esp, 12					; 0000000cH

; 102  : 	RegisterEnum(BUTTONPOPUP_CHOOSEPOLICY);

	push	17					; 00000011H
	push	OFFSET ??_C@_0BJ@LPKELEEL@BUTTONPOPUP_CHOOSEPOLICY?$AA@
	mov	ecx, DWORD PTR _L$[ebp]
	push	ecx
	call	?pRegisterEnum@CvLuaEnums@@KAXPAUlua_State@@PBDH@Z ; CvLuaEnums::pRegisterEnum
	add	esp, 12					; 0000000cH

; 103  : 	RegisterEnum(BUTTONPOPUP_CHOOSECITYPURCHASE);

	push	18					; 00000012H
	push	OFFSET ??_C@_0BP@OADEEEI@BUTTONPOPUP_CHOOSECITYPURCHASE?$AA@
	mov	edx, DWORD PTR _L$[ebp]
	push	edx
	call	?pRegisterEnum@CvLuaEnums@@KAXPAUlua_State@@PBDH@Z ; CvLuaEnums::pRegisterEnum
	add	esp, 12					; 0000000cH

; 104  : 	RegisterEnum(BUTTONPOPUP_CHOOSEELECTION);

	push	19					; 00000013H
	push	OFFSET ??_C@_0BL@BELPIMOM@BUTTONPOPUP_CHOOSEELECTION?$AA@
	mov	eax, DWORD PTR _L$[ebp]
	push	eax
	call	?pRegisterEnum@CvLuaEnums@@KAXPAUlua_State@@PBDH@Z ; CvLuaEnums::pRegisterEnum
	add	esp, 12					; 0000000cH

; 105  : 	RegisterEnum(BUTTONPOPUP_DIPLOVOTE);

	push	20					; 00000014H
	push	OFFSET ??_C@_0BG@BAEKEKON@BUTTONPOPUP_DIPLOVOTE?$AA@
	mov	ecx, DWORD PTR _L$[ebp]
	push	ecx
	call	?pRegisterEnum@CvLuaEnums@@KAXPAUlua_State@@PBDH@Z ; CvLuaEnums::pRegisterEnum
	add	esp, 12					; 0000000cH

; 106  : 	RegisterEnum(BUTTONPOPUP_ALARM);

	push	21					; 00000015H
	push	OFFSET ??_C@_0BC@PJCOCHHJ@BUTTONPOPUP_ALARM?$AA@
	mov	edx, DWORD PTR _L$[ebp]
	push	edx
	call	?pRegisterEnum@CvLuaEnums@@KAXPAUlua_State@@PBDH@Z ; CvLuaEnums::pRegisterEnum
	add	esp, 12					; 0000000cH

; 107  : 	RegisterEnum(BUTTONPOPUP_DEAL_CANCELED);

	push	22					; 00000016H
	push	OFFSET ??_C@_0BK@CBCPHPJP@BUTTONPOPUP_DEAL_CANCELED?$AA@
	mov	eax, DWORD PTR _L$[ebp]
	push	eax
	call	?pRegisterEnum@CvLuaEnums@@KAXPAUlua_State@@PBDH@Z ; CvLuaEnums::pRegisterEnum
	add	esp, 12					; 0000000cH

; 108  : 	RegisterEnum(BUTTONPOPUP_PYTHON);

	push	23					; 00000017H
	push	OFFSET ??_C@_0BD@EBEIPKAB@BUTTONPOPUP_PYTHON?$AA@
	mov	ecx, DWORD PTR _L$[ebp]
	push	ecx
	call	?pRegisterEnum@CvLuaEnums@@KAXPAUlua_State@@PBDH@Z ; CvLuaEnums::pRegisterEnum
	add	esp, 12					; 0000000cH

; 109  : 	RegisterEnum(BUTTONPOPUP_PYTHON_SCREEN);

	push	24					; 00000018H
	push	OFFSET ??_C@_0BK@LIBAGOJN@BUTTONPOPUP_PYTHON_SCREEN?$AA@
	mov	edx, DWORD PTR _L$[ebp]
	push	edx
	call	?pRegisterEnum@CvLuaEnums@@KAXPAUlua_State@@PBDH@Z ; CvLuaEnums::pRegisterEnum
	add	esp, 12					; 0000000cH

; 110  : 	RegisterEnum(BUTTONPOPUP_DETAILS);

	push	25					; 00000019H
	push	OFFSET ??_C@_0BE@JFKAFGFD@BUTTONPOPUP_DETAILS?$AA@
	mov	eax, DWORD PTR _L$[ebp]
	push	eax
	call	?pRegisterEnum@CvLuaEnums@@KAXPAUlua_State@@PBDH@Z ; CvLuaEnums::pRegisterEnum
	add	esp, 12					; 0000000cH

; 111  : 	RegisterEnum(BUTTONPOPUP_ADMIN);

	push	26					; 0000001aH
	push	OFFSET ??_C@_0BC@LINGMMFC@BUTTONPOPUP_ADMIN?$AA@
	mov	ecx, DWORD PTR _L$[ebp]
	push	ecx
	call	?pRegisterEnum@CvLuaEnums@@KAXPAUlua_State@@PBDH@Z ; CvLuaEnums::pRegisterEnum
	add	esp, 12					; 0000000cH

; 112  : 	RegisterEnum(BUTTONPOPUP_ADMIN_PASSWORD);

	push	27					; 0000001bH
	push	OFFSET ??_C@_0BL@LKBDGADD@BUTTONPOPUP_ADMIN_PASSWORD?$AA@
	mov	edx, DWORD PTR _L$[ebp]
	push	edx
	call	?pRegisterEnum@CvLuaEnums@@KAXPAUlua_State@@PBDH@Z ; CvLuaEnums::pRegisterEnum
	add	esp, 12					; 0000000cH

; 113  : 	RegisterEnum(BUTTONPOPUP_EXTENDED_GAME);

	push	28					; 0000001cH
	push	OFFSET ??_C@_0BK@MHHMADCL@BUTTONPOPUP_EXTENDED_GAME?$AA@
	mov	eax, DWORD PTR _L$[ebp]
	push	eax
	call	?pRegisterEnum@CvLuaEnums@@KAXPAUlua_State@@PBDH@Z ; CvLuaEnums::pRegisterEnum
	add	esp, 12					; 0000000cH

; 114  : 	RegisterEnum(BUTTONPOPUP_DIPLOMACY);

	push	29					; 0000001dH
	push	OFFSET ??_C@_0BG@BILLHDOF@BUTTONPOPUP_DIPLOMACY?$AA@
	mov	ecx, DWORD PTR _L$[ebp]
	push	ecx
	call	?pRegisterEnum@CvLuaEnums@@KAXPAUlua_State@@PBDH@Z ; CvLuaEnums::pRegisterEnum
	add	esp, 12					; 0000000cH

; 115  : 	RegisterEnum(BUTTONPOPUP_ADDBUDDY);

	push	30					; 0000001eH
	push	OFFSET ??_C@_0BF@IHDEAKCN@BUTTONPOPUP_ADDBUDDY?$AA@
	mov	edx, DWORD PTR _L$[ebp]
	push	edx
	call	?pRegisterEnum@CvLuaEnums@@KAXPAUlua_State@@PBDH@Z ; CvLuaEnums::pRegisterEnum
	add	esp, 12					; 0000000cH

; 116  : 	RegisterEnum(BUTTONPOPUP_FORCED_DISCONNECT);

	push	31					; 0000001fH
	push	OFFSET ??_C@_0BO@HFCFKNBG@BUTTONPOPUP_FORCED_DISCONNECT?$AA@
	mov	eax, DWORD PTR _L$[ebp]
	push	eax
	call	?pRegisterEnum@CvLuaEnums@@KAXPAUlua_State@@PBDH@Z ; CvLuaEnums::pRegisterEnum
	add	esp, 12					; 0000000cH

; 117  : 	RegisterEnum(BUTTONPOPUP_PITBOSS_DISCONNECT);

	push	32					; 00000020H
	push	OFFSET ??_C@_0BP@MNFKGCIO@BUTTONPOPUP_PITBOSS_DISCONNECT?$AA@
	mov	ecx, DWORD PTR _L$[ebp]
	push	ecx
	call	?pRegisterEnum@CvLuaEnums@@KAXPAUlua_State@@PBDH@Z ; CvLuaEnums::pRegisterEnum
	add	esp, 12					; 0000000cH

; 118  : 	RegisterEnum(BUTTONPOPUP_KICKED);

	push	33					; 00000021H
	push	OFFSET ??_C@_0BD@BAEKLJIO@BUTTONPOPUP_KICKED?$AA@
	mov	edx, DWORD PTR _L$[ebp]
	push	edx
	call	?pRegisterEnum@CvLuaEnums@@KAXPAUlua_State@@PBDH@Z ; CvLuaEnums::pRegisterEnum
	add	esp, 12					; 0000000cH

; 119  : 	RegisterEnum(BUTTONPOPUP_FREE_COLONY);

	push	34					; 00000022H
	push	OFFSET ??_C@_0BI@BGBMOMDA@BUTTONPOPUP_FREE_COLONY?$AA@
	mov	eax, DWORD PTR _L$[ebp]
	push	eax
	call	?pRegisterEnum@CvLuaEnums@@KAXPAUlua_State@@PBDH@Z ; CvLuaEnums::pRegisterEnum
	add	esp, 12					; 0000000cH

; 120  : 	RegisterEnum(BUTTONPOPUP_LAUNCH);

	push	35					; 00000023H
	push	OFFSET ??_C@_0BD@EJPIKEMD@BUTTONPOPUP_LAUNCH?$AA@
	mov	ecx, DWORD PTR _L$[ebp]
	push	ecx
	call	?pRegisterEnum@CvLuaEnums@@KAXPAUlua_State@@PBDH@Z ; CvLuaEnums::pRegisterEnum
	add	esp, 12					; 0000000cH

; 121  : 	RegisterEnum(BUTTONPOPUP_MINOR_GOLD);

	push	36					; 00000024H
	push	OFFSET ??_C@_0BH@ECMBPCBN@BUTTONPOPUP_MINOR_GOLD?$AA@
	mov	edx, DWORD PTR _L$[ebp]
	push	edx
	call	?pRegisterEnum@CvLuaEnums@@KAXPAUlua_State@@PBDH@Z ; CvLuaEnums::pRegisterEnum
	add	esp, 12					; 0000000cH

; 122  : 	RegisterEnum(BUTTONPOPUP_MINOR_CIV_QUEST);

	push	37					; 00000025H
	push	OFFSET ??_C@_0BM@DPKIFLJH@BUTTONPOPUP_MINOR_CIV_QUEST?$AA@
	mov	eax, DWORD PTR _L$[ebp]
	push	eax
	call	?pRegisterEnum@CvLuaEnums@@KAXPAUlua_State@@PBDH@Z ; CvLuaEnums::pRegisterEnum
	add	esp, 12					; 0000000cH

; 123  : 	RegisterEnum(BUTTONPOPUP_MINOR_CIV_QUEST_COMPLETED);

	push	38					; 00000026H
	push	OFFSET ??_C@_0CG@LEPMECFE@BUTTONPOPUP_MINOR_CIV_QUEST_COMP@
	mov	ecx, DWORD PTR _L$[ebp]
	push	ecx
	call	?pRegisterEnum@CvLuaEnums@@KAXPAUlua_State@@PBDH@Z ; CvLuaEnums::pRegisterEnum
	add	esp, 12					; 0000000cH

; 124  : 	RegisterEnum(BUTTONPOPUP_MINOR_CIV_INTRUSION);

	push	39					; 00000027H
	push	OFFSET ??_C@_0CA@NLIDPNFO@BUTTONPOPUP_MINOR_CIV_INTRUSION?$AA@
	mov	edx, DWORD PTR _L$[ebp]
	push	edx
	call	?pRegisterEnum@CvLuaEnums@@KAXPAUlua_State@@PBDH@Z ; CvLuaEnums::pRegisterEnum
	add	esp, 12					; 0000000cH

; 125  : 	RegisterEnum(BUTTONPOPUP_MINOR_CIV_GREETING_AND_WAR);

	push	40					; 00000028H
	push	OFFSET ??_C@_0CH@OJFKEHGM@BUTTONPOPUP_MINOR_CIV_GREETING_A@
	mov	eax, DWORD PTR _L$[ebp]
	push	eax
	call	?pRegisterEnum@CvLuaEnums@@KAXPAUlua_State@@PBDH@Z ; CvLuaEnums::pRegisterEnum
	add	esp, 12					; 0000000cH

; 126  : 	RegisterEnum(BUTTONPOPUP_BARBARIAN_RANSOM);

	push	41					; 00000029H
	push	OFFSET ??_C@_0BN@JHHBGBON@BUTTONPOPUP_BARBARIAN_RANSOM?$AA@
	mov	ecx, DWORD PTR _L$[ebp]
	push	ecx
	call	?pRegisterEnum@CvLuaEnums@@KAXPAUlua_State@@PBDH@Z ; CvLuaEnums::pRegisterEnum
	add	esp, 12					; 0000000cH

; 127  : 	RegisterEnum(BUTTONPOPUP_MINOR_CIV_ENTER_TERRITORY);

	push	42					; 0000002aH
	push	OFFSET ??_C@_0CG@BCBGAMFG@BUTTONPOPUP_MINOR_CIV_ENTER_TERR@
	mov	edx, DWORD PTR _L$[ebp]
	push	edx
	call	?pRegisterEnum@CvLuaEnums@@KAXPAUlua_State@@PBDH@Z ; CvLuaEnums::pRegisterEnum
	add	esp, 12					; 0000000cH

; 128  : 	RegisterEnum(BUTTONPOPUP_TEMP_SPECIALISTS);

	push	43					; 0000002bH
	push	OFFSET ??_C@_0BN@LKCGPOBF@BUTTONPOPUP_TEMP_SPECIALISTS?$AA@
	mov	eax, DWORD PTR _L$[ebp]
	push	eax
	call	?pRegisterEnum@CvLuaEnums@@KAXPAUlua_State@@PBDH@Z ; CvLuaEnums::pRegisterEnum
	add	esp, 12					; 0000000cH

; 129  : 	RegisterEnum(BUTTONPOPUP_NOTIFICATION_LOG);

	push	44					; 0000002cH
	push	OFFSET ??_C@_0BN@HGAPKJMP@BUTTONPOPUP_NOTIFICATION_LOG?$AA@
	mov	ecx, DWORD PTR _L$[ebp]
	push	ecx
	call	?pRegisterEnum@CvLuaEnums@@KAXPAUlua_State@@PBDH@Z ; CvLuaEnums::pRegisterEnum
	add	esp, 12					; 0000000cH

; 130  : 	RegisterEnum(BUTTONPOPUP_ECONOMIC_OVERVIEW);

	push	45					; 0000002dH
	push	OFFSET ??_C@_0BO@DHPJDFKD@BUTTONPOPUP_ECONOMIC_OVERVIEW?$AA@
	mov	edx, DWORD PTR _L$[ebp]
	push	edx
	call	?pRegisterEnum@CvLuaEnums@@KAXPAUlua_State@@PBDH@Z ; CvLuaEnums::pRegisterEnum
	add	esp, 12					; 0000000cH

; 131  : 	RegisterEnum(BUTTONPOPUP_MILITARY_OVERVIEW);

	push	46					; 0000002eH
	push	OFFSET ??_C@_0BO@CCKOJENJ@BUTTONPOPUP_MILITARY_OVERVIEW?$AA@
	mov	eax, DWORD PTR _L$[ebp]
	push	eax
	call	?pRegisterEnum@CvLuaEnums@@KAXPAUlua_State@@PBDH@Z ; CvLuaEnums::pRegisterEnum
	add	esp, 12					; 0000000cH

; 132  : 	RegisterEnum(BUTTONPOPUP_DIPLOMATIC_OVERVIEW);

	push	47					; 0000002fH
	push	OFFSET ??_C@_0CA@BCGCKCPJ@BUTTONPOPUP_DIPLOMATIC_OVERVIEW?$AA@
	mov	ecx, DWORD PTR _L$[ebp]
	push	ecx
	call	?pRegisterEnum@CvLuaEnums@@KAXPAUlua_State@@PBDH@Z ; CvLuaEnums::pRegisterEnum
	add	esp, 12					; 0000000cH

; 133  : 	RegisterEnum(BUTTONPOPUP_DEMOGRAPHICS);

	push	48					; 00000030H
	push	OFFSET ??_C@_0BJ@LPAAEIAN@BUTTONPOPUP_DEMOGRAPHICS?$AA@
	mov	edx, DWORD PTR _L$[ebp]
	push	edx
	call	?pRegisterEnum@CvLuaEnums@@KAXPAUlua_State@@PBDH@Z ; CvLuaEnums::pRegisterEnum
	add	esp, 12					; 0000000cH

; 134  : 	RegisterEnum(BUTTONPOPUP_VICTORY_INFO);

	push	49					; 00000031H
	push	OFFSET ??_C@_0BJ@LNNNALNP@BUTTONPOPUP_VICTORY_INFO?$AA@
	mov	eax, DWORD PTR _L$[ebp]
	push	eax
	call	?pRegisterEnum@CvLuaEnums@@KAXPAUlua_State@@PBDH@Z ; CvLuaEnums::pRegisterEnum
	add	esp, 12					; 0000000cH

; 135  : 	RegisterEnum(BUTTONPOPUP_MINOR_CIVS_LIST);

	push	50					; 00000032H
	push	OFFSET ??_C@_0BM@OFCEBKNI@BUTTONPOPUP_MINOR_CIVS_LIST?$AA@
	mov	ecx, DWORD PTR _L$[ebp]
	push	ecx
	call	?pRegisterEnum@CvLuaEnums@@KAXPAUlua_State@@PBDH@Z ; CvLuaEnums::pRegisterEnum
	add	esp, 12					; 0000000cH

; 136  : 	RegisterEnum(BUTTONPOPUP_GIFT_CONFIRM);

	push	51					; 00000033H
	push	OFFSET ??_C@_0BJ@EDNABFIK@BUTTONPOPUP_GIFT_CONFIRM?$AA@
	mov	edx, DWORD PTR _L$[ebp]
	push	edx
	call	?pRegisterEnum@CvLuaEnums@@KAXPAUlua_State@@PBDH@Z ; CvLuaEnums::pRegisterEnum
	add	esp, 12					; 0000000cH

; 137  : 	RegisterEnum(BUTTONPOPUP_RETURN_CIVILIAN);

	push	52					; 00000034H
	push	OFFSET ??_C@_0BM@LIKGFMAD@BUTTONPOPUP_RETURN_CIVILIAN?$AA@
	mov	eax, DWORD PTR _L$[ebp]
	push	eax
	call	?pRegisterEnum@CvLuaEnums@@KAXPAUlua_State@@PBDH@Z ; CvLuaEnums::pRegisterEnum
	add	esp, 12					; 0000000cH

; 138  : 	RegisterEnum(BUTTONPOPUP_CONFIRM_POLICY_BRANCH_SWITCH);

	push	53					; 00000035H
	push	OFFSET ??_C@_0CJ@JMOLBNEE@BUTTONPOPUP_CONFIRM_POLICY_BRANC@
	mov	ecx, DWORD PTR _L$[ebp]
	push	ecx
	call	?pRegisterEnum@CvLuaEnums@@KAXPAUlua_State@@PBDH@Z ; CvLuaEnums::pRegisterEnum
	add	esp, 12					; 0000000cH

; 139  : 	RegisterEnum(BUTTONPOPUP_WHOS_WINNING);

	push	54					; 00000036H
	push	OFFSET ??_C@_0BJ@LBGBCJHH@BUTTONPOPUP_WHOS_WINNING?$AA@
	mov	edx, DWORD PTR _L$[ebp]
	push	edx
	call	?pRegisterEnum@CvLuaEnums@@KAXPAUlua_State@@PBDH@Z ; CvLuaEnums::pRegisterEnum
	add	esp, 12					; 0000000cH

; 140  : 	RegisterEnum(BUTTONPOPUP_NEW_ERA);

	push	55					; 00000037H
	push	OFFSET ??_C@_0BE@HJLOFAMH@BUTTONPOPUP_NEW_ERA?$AA@
	mov	eax, DWORD PTR _L$[ebp]
	push	eax
	call	?pRegisterEnum@CvLuaEnums@@KAXPAUlua_State@@PBDH@Z ; CvLuaEnums::pRegisterEnum
	add	esp, 12					; 0000000cH

; 141  : 	RegisterEnum(BUTTONPOPUP_NATURAL_WONDER_REWARD);

	push	56					; 00000038H
	push	OFFSET ??_C@_0CC@FIMFJAHL@BUTTONPOPUP_NATURAL_WONDER_REWAR@
	mov	ecx, DWORD PTR _L$[ebp]
	push	ecx
	call	?pRegisterEnum@CvLuaEnums@@KAXPAUlua_State@@PBDH@Z ; CvLuaEnums::pRegisterEnum
	add	esp, 12					; 0000000cH

; 142  : 	RegisterEnum(BUTTONPOPUP_GOODY_HUT_REWARD);

	push	57					; 00000039H
	push	OFFSET ??_C@_0BN@GMDADMEA@BUTTONPOPUP_GOODY_HUT_REWARD?$AA@
	mov	edx, DWORD PTR _L$[ebp]
	push	edx
	call	?pRegisterEnum@CvLuaEnums@@KAXPAUlua_State@@PBDH@Z ; CvLuaEnums::pRegisterEnum
	add	esp, 12					; 0000000cH

; 143  : 	RegisterEnum(BUTTONPOPUP_BARBARIAN_CAMP_REWARD);

	push	58					; 0000003aH
	push	OFFSET ??_C@_0CC@JNOELBGI@BUTTONPOPUP_BARBARIAN_CAMP_REWAR@
	mov	eax, DWORD PTR _L$[ebp]
	push	eax
	call	?pRegisterEnum@CvLuaEnums@@KAXPAUlua_State@@PBDH@Z ; CvLuaEnums::pRegisterEnum
	add	esp, 12					; 0000000cH

; 144  : 	RegisterEnum(BUTTONPOPUP_GOLDEN_AGE_REWARD);

	push	59					; 0000003bH
	push	OFFSET ??_C@_0BO@LPKGINOP@BUTTONPOPUP_GOLDEN_AGE_REWARD?$AA@
	mov	ecx, DWORD PTR _L$[ebp]
	push	ecx
	call	?pRegisterEnum@CvLuaEnums@@KAXPAUlua_State@@PBDH@Z ; CvLuaEnums::pRegisterEnum
	add	esp, 12					; 0000000cH

; 145  : 	RegisterEnum(BUTTONPOPUP_GREAT_PERSON_REWARD);

	push	60					; 0000003cH
	push	OFFSET ??_C@_0CA@NOLDCOKC@BUTTONPOPUP_GREAT_PERSON_REWARD?$AA@
	mov	edx, DWORD PTR _L$[ebp]
	push	edx
	call	?pRegisterEnum@CvLuaEnums@@KAXPAUlua_State@@PBDH@Z ; CvLuaEnums::pRegisterEnum
	add	esp, 12					; 0000000cH

; 146  : 	RegisterEnum(BUTTONPOPUP_CITY_STATE_GREETING);

	push	61					; 0000003dH
	push	OFFSET ??_C@_0CA@HIGKEOLB@BUTTONPOPUP_CITY_STATE_GREETING?$AA@
	mov	eax, DWORD PTR _L$[ebp]
	push	eax
	call	?pRegisterEnum@CvLuaEnums@@KAXPAUlua_State@@PBDH@Z ; CvLuaEnums::pRegisterEnum
	add	esp, 12					; 0000000cH

; 147  : 	RegisterEnum(BUTTONPOPUP_CITY_STATE_MESSAGE);

	push	62					; 0000003eH
	push	OFFSET ??_C@_0BP@CAEKJDL@BUTTONPOPUP_CITY_STATE_MESSAGE?$AA@
	mov	ecx, DWORD PTR _L$[ebp]
	push	ecx
	call	?pRegisterEnum@CvLuaEnums@@KAXPAUlua_State@@PBDH@Z ; CvLuaEnums::pRegisterEnum
	add	esp, 12					; 0000000cH

; 148  : 	RegisterEnum(BUTTONPOPUP_CITY_STATE_DIPLO);

	push	63					; 0000003fH
	push	OFFSET ??_C@_0BN@KNPIDDAB@BUTTONPOPUP_CITY_STATE_DIPLO?$AA@
	mov	edx, DWORD PTR _L$[ebp]
	push	edx
	call	?pRegisterEnum@CvLuaEnums@@KAXPAUlua_State@@PBDH@Z ; CvLuaEnums::pRegisterEnum
	add	esp, 12					; 0000000cH

; 149  : 	RegisterEnum(BUTTONPOPUP_CITY_PLOT_MANAGEMENT);

	push	64					; 00000040H
	push	OFFSET ??_C@_0CB@KKCBKOKI@BUTTONPOPUP_CITY_PLOT_MANAGEMENT@
	mov	eax, DWORD PTR _L$[ebp]
	push	eax
	call	?pRegisterEnum@CvLuaEnums@@KAXPAUlua_State@@PBDH@Z ; CvLuaEnums::pRegisterEnum
	add	esp, 12					; 0000000cH

; 150  : 	RegisterEnum(BUTTONPOPUP_DIPLO_VOTE);

	push	65					; 00000041H
	push	OFFSET ??_C@_0BH@IDKGNCCN@BUTTONPOPUP_DIPLO_VOTE?$AA@
	mov	ecx, DWORD PTR _L$[ebp]
	push	ecx
	call	?pRegisterEnum@CvLuaEnums@@KAXPAUlua_State@@PBDH@Z ; CvLuaEnums::pRegisterEnum
	add	esp, 12					; 0000000cH

; 151  : 	RegisterEnum(BUTTONPOPUP_VOTE_RESULTS);

	push	66					; 00000042H
	push	OFFSET ??_C@_0BJ@JAPBHJFK@BUTTONPOPUP_VOTE_RESULTS?$AA@
	mov	edx, DWORD PTR _L$[ebp]
	push	edx
	call	?pRegisterEnum@CvLuaEnums@@KAXPAUlua_State@@PBDH@Z ; CvLuaEnums::pRegisterEnum
	add	esp, 12					; 0000000cH

; 152  : 	RegisterEnum(BUTTONPOPUP_TECH_TREE);

	push	67					; 00000043H
	push	OFFSET ??_C@_0BG@BBCKDNDE@BUTTONPOPUP_TECH_TREE?$AA@
	mov	eax, DWORD PTR _L$[ebp]
	push	eax
	call	?pRegisterEnum@CvLuaEnums@@KAXPAUlua_State@@PBDH@Z ; CvLuaEnums::pRegisterEnum
	add	esp, 12					; 0000000cH

; 153  : 	RegisterEnum(BUTTONPOPUP_TECH_AWARD);

	push	68					; 00000044H
	push	OFFSET ??_C@_0BH@LIEAGKHD@BUTTONPOPUP_TECH_AWARD?$AA@
	mov	ecx, DWORD PTR _L$[ebp]
	push	ecx
	call	?pRegisterEnum@CvLuaEnums@@KAXPAUlua_State@@PBDH@Z ; CvLuaEnums::pRegisterEnum
	add	esp, 12					; 0000000cH

; 154  : 	RegisterEnum(BUTTONPOPUP_WONDER_COMPLETED_ACTIVE_PLAYER);

	push	69					; 00000045H
	push	OFFSET ??_C@_0CL@BLOLPHPG@BUTTONPOPUP_WONDER_COMPLETED_ACT@
	mov	edx, DWORD PTR _L$[ebp]
	push	edx
	call	?pRegisterEnum@CvLuaEnums@@KAXPAUlua_State@@PBDH@Z ; CvLuaEnums::pRegisterEnum
	add	esp, 12					; 0000000cH

; 155  : 	RegisterEnum(BUTTONPOPUP_ADVISOR_INFO);

	push	70					; 00000046H
	push	OFFSET ??_C@_0BJ@EILKAJAH@BUTTONPOPUP_ADVISOR_INFO?$AA@
	mov	eax, DWORD PTR _L$[ebp]
	push	eax
	call	?pRegisterEnum@CvLuaEnums@@KAXPAUlua_State@@PBDH@Z ; CvLuaEnums::pRegisterEnum
	add	esp, 12					; 0000000cH

; 156  : 	RegisterEnum(BUTTONPOPUP_ADVISOR_COUNSEL);

	push	71					; 00000047H
	push	OFFSET ??_C@_0BM@IDIJFGIB@BUTTONPOPUP_ADVISOR_COUNSEL?$AA@
	mov	ecx, DWORD PTR _L$[ebp]
	push	ecx
	call	?pRegisterEnum@CvLuaEnums@@KAXPAUlua_State@@PBDH@Z ; CvLuaEnums::pRegisterEnum
	add	esp, 12					; 0000000cH

; 157  : 	RegisterEnum(BUTTONPOPUP_ADVISOR_MODAL);

	push	72					; 00000048H
	push	OFFSET ??_C@_0BK@MEIGKBIE@BUTTONPOPUP_ADVISOR_MODAL?$AA@
	mov	edx, DWORD PTR _L$[ebp]
	push	edx
	call	?pRegisterEnum@CvLuaEnums@@KAXPAUlua_State@@PBDH@Z ; CvLuaEnums::pRegisterEnum
	add	esp, 12					; 0000000cH

; 158  : 	RegisterEnum(BUTTONPOPUP_RENAME_CITY);

	push	73					; 00000049H
	push	OFFSET ??_C@_0BI@NDNBKOFM@BUTTONPOPUP_RENAME_CITY?$AA@
	mov	eax, DWORD PTR _L$[ebp]
	push	eax
	call	?pRegisterEnum@CvLuaEnums@@KAXPAUlua_State@@PBDH@Z ; CvLuaEnums::pRegisterEnum
	add	esp, 12					; 0000000cH

; 159  : 	RegisterEnum(BUTTONPOPUP_RENAME_UNIT);

	push	74					; 0000004aH
	push	OFFSET ??_C@_0BI@PGLKKJ@BUTTONPOPUP_RENAME_UNIT?$AA@
	mov	ecx, DWORD PTR _L$[ebp]
	push	ecx
	call	?pRegisterEnum@CvLuaEnums@@KAXPAUlua_State@@PBDH@Z ; CvLuaEnums::pRegisterEnum
	add	esp, 12					; 0000000cH

; 160  : 	RegisterEnum(BUTTONPOPUP_CHOOSE_FREE_GREAT_PERSON);

	push	75					; 0000004bH
	push	OFFSET ??_C@_0CF@JOEIIFOG@BUTTONPOPUP_CHOOSE_FREE_GREAT_PE@
	mov	edx, DWORD PTR _L$[ebp]
	push	edx
	call	?pRegisterEnum@CvLuaEnums@@KAXPAUlua_State@@PBDH@Z ; CvLuaEnums::pRegisterEnum
	add	esp, 12					; 0000000cH

; 161  : 	RegisterEnum(BUTTONPOPUP_FOUND_PANTHEON);

	push	76					; 0000004cH
	push	OFFSET ??_C@_0BL@GOAJGFFA@BUTTONPOPUP_FOUND_PANTHEON?$AA@
	mov	eax, DWORD PTR _L$[ebp]
	push	eax
	call	?pRegisterEnum@CvLuaEnums@@KAXPAUlua_State@@PBDH@Z ; CvLuaEnums::pRegisterEnum
	add	esp, 12					; 0000000cH

; 162  : 	RegisterEnum(BUTTONPOPUP_FOUND_RELIGION);

	push	77					; 0000004dH
	push	OFFSET ??_C@_0BL@CEOEGLCJ@BUTTONPOPUP_FOUND_RELIGION?$AA@
	mov	ecx, DWORD PTR _L$[ebp]
	push	ecx
	call	?pRegisterEnum@CvLuaEnums@@KAXPAUlua_State@@PBDH@Z ; CvLuaEnums::pRegisterEnum
	add	esp, 12					; 0000000cH

; 163  : 	RegisterEnum(BUTTONPOPUP_ESPIONAGE_OVERVIEW);

	push	78					; 0000004eH
	push	OFFSET ??_C@_0BP@IKHDPEBO@BUTTONPOPUP_ESPIONAGE_OVERVIEW?$AA@
	mov	edx, DWORD PTR _L$[ebp]
	push	edx
	call	?pRegisterEnum@CvLuaEnums@@KAXPAUlua_State@@PBDH@Z ; CvLuaEnums::pRegisterEnum
	add	esp, 12					; 0000000cH

; 164  : 	RegisterEnum(BUTTONPOPUP_RELIGION_OVERVIEW);

	push	79					; 0000004fH
	push	OFFSET ??_C@_0BO@DKMAPDHI@BUTTONPOPUP_RELIGION_OVERVIEW?$AA@
	mov	eax, DWORD PTR _L$[ebp]
	push	eax
	call	?pRegisterEnum@CvLuaEnums@@KAXPAUlua_State@@PBDH@Z ; CvLuaEnums::pRegisterEnum
	add	esp, 12					; 0000000cH

; 165  : 	RegisterEnum(BUTTONPOPUP_CHOOSE_TECH_TO_STEAL);

	push	80					; 00000050H
	push	OFFSET ??_C@_0CB@ECABKNGF@BUTTONPOPUP_CHOOSE_TECH_TO_STEAL@
	mov	ecx, DWORD PTR _L$[ebp]
	push	ecx
	call	?pRegisterEnum@CvLuaEnums@@KAXPAUlua_State@@PBDH@Z ; CvLuaEnums::pRegisterEnum
	add	esp, 12					; 0000000cH

; 166  : 	RegisterEnum(BUTTONPOPUP_CHOOSE_MAYA_BONUS);

	push	81					; 00000051H
	push	OFFSET ??_C@_0BO@EKDFIDFF@BUTTONPOPUP_CHOOSE_MAYA_BONUS?$AA@
	mov	edx, DWORD PTR _L$[ebp]
	push	edx
	call	?pRegisterEnum@CvLuaEnums@@KAXPAUlua_State@@PBDH@Z ; CvLuaEnums::pRegisterEnum
	add	esp, 12					; 0000000cH

; 167  : 	RegisterEnum(BUTTONPOPUP_CHOOSE_FAITH_GREAT_PERSON);

	push	82					; 00000052H
	push	OFFSET ??_C@_0CG@ECCMBHGH@BUTTONPOPUP_CHOOSE_FAITH_GREAT_P@
	mov	eax, DWORD PTR _L$[ebp]
	push	eax
	call	?pRegisterEnum@CvLuaEnums@@KAXPAUlua_State@@PBDH@Z ; CvLuaEnums::pRegisterEnum
	add	esp, 12					; 0000000cH

; 168  : 
; 169  : 	RegisterEnum(BUTTONPOPUP_MODDER_0);

	push	83					; 00000053H
	push	OFFSET ??_C@_0BF@FLONAFMM@BUTTONPOPUP_MODDER_0?$AA@
	mov	ecx, DWORD PTR _L$[ebp]
	push	ecx
	call	?pRegisterEnum@CvLuaEnums@@KAXPAUlua_State@@PBDH@Z ; CvLuaEnums::pRegisterEnum
	add	esp, 12					; 0000000cH

; 170  : 	RegisterEnum(BUTTONPOPUP_MODDER_1);

	push	84					; 00000054H
	push	OFFSET ??_C@_0BF@ECPGDEIN@BUTTONPOPUP_MODDER_1?$AA@
	mov	edx, DWORD PTR _L$[ebp]
	push	edx
	call	?pRegisterEnum@CvLuaEnums@@KAXPAUlua_State@@PBDH@Z ; CvLuaEnums::pRegisterEnum
	add	esp, 12					; 0000000cH

; 171  : 	RegisterEnum(BUTTONPOPUP_MODDER_2);

	push	85					; 00000055H
	push	OFFSET ??_C@_0BF@GJNLGHEO@BUTTONPOPUP_MODDER_2?$AA@
	mov	eax, DWORD PTR _L$[ebp]
	push	eax
	call	?pRegisterEnum@CvLuaEnums@@KAXPAUlua_State@@PBDH@Z ; CvLuaEnums::pRegisterEnum
	add	esp, 12					; 0000000cH

; 172  : 	RegisterEnum(BUTTONPOPUP_MODDER_3);

	push	86					; 00000056H
	push	OFFSET ??_C@_0BF@HAMAFGAP@BUTTONPOPUP_MODDER_3?$AA@
	mov	ecx, DWORD PTR _L$[ebp]
	push	ecx
	call	?pRegisterEnum@CvLuaEnums@@KAXPAUlua_State@@PBDH@Z ; CvLuaEnums::pRegisterEnum
	add	esp, 12					; 0000000cH

; 173  : 	RegisterEnum(BUTTONPOPUP_MODDER_4);

	push	87					; 00000057H
	push	OFFSET ??_C@_0BF@DPIBMAMI@BUTTONPOPUP_MODDER_4?$AA@
	mov	edx, DWORD PTR _L$[ebp]
	push	edx
	call	?pRegisterEnum@CvLuaEnums@@KAXPAUlua_State@@PBDH@Z ; CvLuaEnums::pRegisterEnum
	add	esp, 12					; 0000000cH

; 174  : 	RegisterEnum(BUTTONPOPUP_MODDER_5);

	push	88					; 00000058H
	push	OFFSET ??_C@_0BF@CGJKPBIJ@BUTTONPOPUP_MODDER_5?$AA@
	mov	eax, DWORD PTR _L$[ebp]
	push	eax
	call	?pRegisterEnum@CvLuaEnums@@KAXPAUlua_State@@PBDH@Z ; CvLuaEnums::pRegisterEnum
	add	esp, 12					; 0000000cH

; 175  : 	RegisterEnum(BUTTONPOPUP_MODDER_6);

	push	89					; 00000059H
	push	OFFSET ??_C@_0BF@NLHKCEK@BUTTONPOPUP_MODDER_6?$AA@
	mov	ecx, DWORD PTR _L$[ebp]
	push	ecx
	call	?pRegisterEnum@CvLuaEnums@@KAXPAUlua_State@@PBDH@Z ; CvLuaEnums::pRegisterEnum
	add	esp, 12					; 0000000cH

; 176  : 	RegisterEnum(BUTTONPOPUP_MODDER_7);

	push	90					; 0000005aH
	push	OFFSET ??_C@_0BF@BEKMJDAL@BUTTONPOPUP_MODDER_7?$AA@
	mov	edx, DWORD PTR _L$[ebp]
	push	edx
	call	?pRegisterEnum@CvLuaEnums@@KAXPAUlua_State@@PBDH@Z ; CvLuaEnums::pRegisterEnum
	add	esp, 12					; 0000000cH

; 177  : 	RegisterEnum(BUTTONPOPUP_MODDER_8);

	push	91					; 0000005bH
	push	OFFSET ??_C@_0BF@JDDEIPME@BUTTONPOPUP_MODDER_8?$AA@
	mov	eax, DWORD PTR _L$[ebp]
	push	eax
	call	?pRegisterEnum@CvLuaEnums@@KAXPAUlua_State@@PBDH@Z ; CvLuaEnums::pRegisterEnum
	add	esp, 12					; 0000000cH

; 178  : 	RegisterEnum(BUTTONPOPUP_MODDER_9);

	push	92					; 0000005cH
	push	OFFSET ??_C@_0BF@IKCPLOIF@BUTTONPOPUP_MODDER_9?$AA@
	mov	ecx, DWORD PTR _L$[ebp]
	push	ecx
	call	?pRegisterEnum@CvLuaEnums@@KAXPAUlua_State@@PBDH@Z ; CvLuaEnums::pRegisterEnum
	add	esp, 12					; 0000000cH

; 179  : 	RegisterEnum(BUTTONPOPUP_MODDER_10);

	push	93					; 0000005dH
	push	OFFSET ??_C@_0BG@EMANDPFK@BUTTONPOPUP_MODDER_10?$AA@
	mov	edx, DWORD PTR _L$[ebp]
	push	edx
	call	?pRegisterEnum@CvLuaEnums@@KAXPAUlua_State@@PBDH@Z ; CvLuaEnums::pRegisterEnum
	add	esp, 12					; 0000000cH

; 180  : 	RegisterEnum(BUTTONPOPUP_MODDER_11);

	push	94					; 0000005eH
	push	OFFSET ??_C@_0BG@FFBGAOBL@BUTTONPOPUP_MODDER_11?$AA@
	mov	eax, DWORD PTR _L$[ebp]
	push	eax
	call	?pRegisterEnum@CvLuaEnums@@KAXPAUlua_State@@PBDH@Z ; CvLuaEnums::pRegisterEnum
	add	esp, 12					; 0000000cH

; 181  : 
; 182  : 	RegisterEnum(BUTTONPOPUP_LEAGUE_OVERVIEW);

	push	1104213538				; 41d0f622H
	push	OFFSET ??_C@_0BM@NFCBJBBC@BUTTONPOPUP_LEAGUE_OVERVIEW?$AA@
	mov	ecx, DWORD PTR _L$[ebp]
	push	ecx
	call	?pRegisterEnum@CvLuaEnums@@KAXPAUlua_State@@PBDH@Z ; CvLuaEnums::pRegisterEnum
	add	esp, 12					; 0000000cH

; 183  : 	RegisterEnum(BUTTONPOPUP_DECLAREWAR_PLUNDER_TRADE_ROUTE);

	push	-55246417				; fcb501afH
	push	OFFSET ??_C@_0CL@EGJFALHI@BUTTONPOPUP_DECLAREWAR_PLUNDER_T@
	mov	edx, DWORD PTR _L$[ebp]
	push	edx
	call	?pRegisterEnum@CvLuaEnums@@KAXPAUlua_State@@PBDH@Z ; CvLuaEnums::pRegisterEnum
	add	esp, 12					; 0000000cH

; 184  : 	RegisterEnum(BUTTONPOPUP_CHOOSE_ARCHAEOLOGY);

	push	122879934				; 0752ffbeH
	push	OFFSET ??_C@_0BP@CMNOMMHE@BUTTONPOPUP_CHOOSE_ARCHAEOLOGY?$AA@
	mov	eax, DWORD PTR _L$[ebp]
	push	eax
	call	?pRegisterEnum@CvLuaEnums@@KAXPAUlua_State@@PBDH@Z ; CvLuaEnums::pRegisterEnum
	add	esp, 12					; 0000000cH

; 185  : 	RegisterEnum(BUTTONPOPUP_CHOOSE_IDEOLOGY);

	push	-167467402				; f604a676H
	push	OFFSET ??_C@_0BM@LJJANAKP@BUTTONPOPUP_CHOOSE_IDEOLOGY?$AA@
	mov	ecx, DWORD PTR _L$[ebp]
	push	ecx
	call	?pRegisterEnum@CvLuaEnums@@KAXPAUlua_State@@PBDH@Z ; CvLuaEnums::pRegisterEnum
	add	esp, 12					; 0000000cH

; 186  : 	RegisterEnum(BUTTONPOPUP_CHOOSE_INTERNATIONAL_TRADE_ROUTE);

	push	-1844619060				; 920d58ccH
	push	OFFSET ??_C@_0CN@JCEAIDMD@BUTTONPOPUP_CHOOSE_INTERNATIONAL@
	mov	edx, DWORD PTR _L$[ebp]
	push	edx
	call	?pRegisterEnum@CvLuaEnums@@KAXPAUlua_State@@PBDH@Z ; CvLuaEnums::pRegisterEnum
	add	esp, 12					; 0000000cH

; 187  : 	RegisterEnum(BUTTONPOPUP_CULTURE_OVERVIEW);

	push	-401251415				; e81563a9H
	push	OFFSET ??_C@_0BN@KPOCAOCP@BUTTONPOPUP_CULTURE_OVERVIEW?$AA@
	mov	eax, DWORD PTR _L$[ebp]
	push	eax
	call	?pRegisterEnum@CvLuaEnums@@KAXPAUlua_State@@PBDH@Z ; CvLuaEnums::pRegisterEnum
	add	esp, 12					; 0000000cH

; 188  : 	RegisterEnum(BUTTONPOPUP_CHOOSE_TRADE_UNIT_NEW_HOME);

	push	280858127				; 10bd8e0fH
	push	OFFSET ??_C@_0CH@JAKPKABP@BUTTONPOPUP_CHOOSE_TRADE_UNIT_NE@
	mov	ecx, DWORD PTR _L$[ebp]
	push	ecx
	call	?pRegisterEnum@CvLuaEnums@@KAXPAUlua_State@@PBDH@Z ; CvLuaEnums::pRegisterEnum
	add	esp, 12					; 0000000cH

; 189  : 	RegisterEnum(BUTTONPOPUP_GREAT_WORK_COMPLETED_ACTIVE_PLAYER);

	push	1031589465				; 3d7cce59H
	push	OFFSET ??_C@_0CP@BCIKJFJO@BUTTONPOPUP_GREAT_WORK_COMPLETED@
	mov	edx, DWORD PTR _L$[ebp]
	push	edx
	call	?pRegisterEnum@CvLuaEnums@@KAXPAUlua_State@@PBDH@Z ; CvLuaEnums::pRegisterEnum
	add	esp, 12					; 0000000cH

; 190  : 	RegisterEnum(BUTTONPOPUP_TRADE_ROUTE_OVERVIEW);

	push	2099480669				; 7d23885dH
	push	OFFSET ??_C@_0CB@BFKHAOMB@BUTTONPOPUP_TRADE_ROUTE_OVERVIEW@
	mov	eax, DWORD PTR _L$[ebp]
	push	eax
	call	?pRegisterEnum@CvLuaEnums@@KAXPAUlua_State@@PBDH@Z ; CvLuaEnums::pRegisterEnum
	add	esp, 12					; 0000000cH

; 191  : 	RegisterEnum(BUTTONPOPUP_LEAGUE_PROJECT_COMPLETED);

	push	-895157342				; caa4fba2H
	push	OFFSET ??_C@_0CF@DIBCGGDP@BUTTONPOPUP_LEAGUE_PROJECT_COMPL@
	mov	ecx, DWORD PTR _L$[ebp]
	push	ecx
	call	?pRegisterEnum@CvLuaEnums@@KAXPAUlua_State@@PBDH@Z ; CvLuaEnums::pRegisterEnum
	add	esp, 12					; 0000000cH

; 192  : 	RegisterEnum(BUTTONPOPUP_CHOOSE_GOODY_HUT_REWARD);

	push	-12506513				; ff412a6fH
	push	OFFSET ??_C@_0CE@NNPCDNOD@BUTTONPOPUP_CHOOSE_GOODY_HUT_REW@
	mov	edx, DWORD PTR _L$[ebp]
	push	edx
	call	?pRegisterEnum@CvLuaEnums@@KAXPAUlua_State@@PBDH@Z ; CvLuaEnums::pRegisterEnum
	add	esp, 12					; 0000000cH

; 193  : 	RegisterEnum(BUTTONPOPUP_LEAGUE_SPLASH);

	push	-1522614506				; a53ebf16H
	push	OFFSET ??_C@_0BK@PEHBILOO@BUTTONPOPUP_LEAGUE_SPLASH?$AA@
	mov	eax, DWORD PTR _L$[ebp]
	push	eax
	call	?pRegisterEnum@CvLuaEnums@@KAXPAUlua_State@@PBDH@Z ; CvLuaEnums::pRegisterEnum
	add	esp, 12					; 0000000cH

; 194  : 	RegisterEnum(BUTTONPOPUP_CHOOSE_ADMIRAL_PORT);

	push	1293627772				; 4d1b317cH
	push	OFFSET ??_C@_0CA@FJPOCGCG@BUTTONPOPUP_CHOOSE_ADMIRAL_PORT?$AA@
	mov	ecx, DWORD PTR _L$[ebp]
	push	ecx
	call	?pRegisterEnum@CvLuaEnums@@KAXPAUlua_State@@PBDH@Z ; CvLuaEnums::pRegisterEnum
	add	esp, 12					; 0000000cH

; 195  : 
; 196  : 	EnumEnd(L);

	mov	edx, DWORD PTR _L$[ebp]
	push	edx
	call	?EnumEnd@CvLuaEnums@@KAXPAUlua_State@@@Z ; CvLuaEnums::EnumEnd
	add	esp, 4

; 197  : 
; 198  : 
; 199  : 	//YieldTypes
; 200  : 	EnumStart(L, "YieldTypes");

	push	OFFSET ??_C@_0L@BGNMNANM@YieldTypes?$AA@
	mov	eax, DWORD PTR _L$[ebp]
	push	eax
	call	?EnumStart@CvLuaEnums@@KAXPAUlua_State@@PBD@Z ; CvLuaEnums::EnumStart
	add	esp, 8

; 201  : 	RegisterEnum(NO_YIELD);

	push	-1
	push	OFFSET ??_C@_08BFLLEPHG@NO_YIELD?$AA@
	mov	ecx, DWORD PTR _L$[ebp]
	push	ecx
	call	?pRegisterEnum@CvLuaEnums@@KAXPAUlua_State@@PBDH@Z ; CvLuaEnums::pRegisterEnum
	add	esp, 12					; 0000000cH

; 202  : 	RegisterEnum(YIELD_FOOD);

	push	0
	push	OFFSET ??_C@_0L@KJJIFOAE@YIELD_FOOD?$AA@
	mov	edx, DWORD PTR _L$[ebp]
	push	edx
	call	?pRegisterEnum@CvLuaEnums@@KAXPAUlua_State@@PBDH@Z ; CvLuaEnums::pRegisterEnum
	add	esp, 12					; 0000000cH

; 203  : 	RegisterEnum(YIELD_PRODUCTION);

	push	1
	push	OFFSET ??_C@_0BB@OAGOPANA@YIELD_PRODUCTION?$AA@
	mov	eax, DWORD PTR _L$[ebp]
	push	eax
	call	?pRegisterEnum@CvLuaEnums@@KAXPAUlua_State@@PBDH@Z ; CvLuaEnums::pRegisterEnum
	add	esp, 12					; 0000000cH

; 204  : 	RegisterEnum(YIELD_GOLD);

	push	2
	push	OFFSET ??_C@_0L@JGLOMJON@YIELD_GOLD?$AA@
	mov	ecx, DWORD PTR _L$[ebp]
	push	ecx
	call	?pRegisterEnum@CvLuaEnums@@KAXPAUlua_State@@PBDH@Z ; CvLuaEnums::pRegisterEnum
	add	esp, 12					; 0000000cH

; 205  : 	RegisterEnum(YIELD_SCIENCE);

	push	3
	push	OFFSET ??_C@_0O@EBDOPLJI@YIELD_SCIENCE?$AA@
	mov	edx, DWORD PTR _L$[ebp]
	push	edx
	call	?pRegisterEnum@CvLuaEnums@@KAXPAUlua_State@@PBDH@Z ; CvLuaEnums::pRegisterEnum
	add	esp, 12					; 0000000cH

; 206  : 	RegisterEnum(YIELD_CULTURE);

	push	4
	push	OFFSET ??_C@_0O@KODKFFBP@YIELD_CULTURE?$AA@
	mov	eax, DWORD PTR _L$[ebp]
	push	eax
	call	?pRegisterEnum@CvLuaEnums@@KAXPAUlua_State@@PBDH@Z ; CvLuaEnums::pRegisterEnum
	add	esp, 12					; 0000000cH

; 207  : 	RegisterEnum(YIELD_FAITH);

	push	5
	push	OFFSET ??_C@_0M@LJBJNLIH@YIELD_FAITH?$AA@
	mov	ecx, DWORD PTR _L$[ebp]
	push	ecx
	call	?pRegisterEnum@CvLuaEnums@@KAXPAUlua_State@@PBDH@Z ; CvLuaEnums::pRegisterEnum
	add	esp, 12					; 0000000cH

; 208  : 	RegisterEnum(NUM_YIELD_TYPES);

	push	6
	push	OFFSET ??_C@_0BA@MCGBAMKA@NUM_YIELD_TYPES?$AA@
	mov	edx, DWORD PTR _L$[ebp]
	push	edx
	call	?pRegisterEnum@CvLuaEnums@@KAXPAUlua_State@@PBDH@Z ; CvLuaEnums::pRegisterEnum
	add	esp, 12					; 0000000cH

; 209  : 	EnumEnd(L);

	mov	eax, DWORD PTR _L$[ebp]
	push	eax
	call	?EnumEnd@CvLuaEnums@@KAXPAUlua_State@@@Z ; CvLuaEnums::EnumEnd
	add	esp, 4

; 210  : 
; 211  : 	//GameOptionTypes
; 212  : 	EnumStart(L, "GameOptionTypes");

	push	OFFSET ??_C@_0BA@DAOEBEOM@GameOptionTypes?$AA@
	mov	ecx, DWORD PTR _L$[ebp]
	push	ecx
	call	?EnumStart@CvLuaEnums@@KAXPAUlua_State@@PBD@Z ; CvLuaEnums::EnumStart
	add	esp, 8

; 213  : 	RegisterEnum(NO_GAMEOPTION);

	push	-1
	push	OFFSET ??_C@_0O@DAKBDGCM@NO_GAMEOPTION?$AA@
	mov	edx, DWORD PTR _L$[ebp]
	push	edx
	call	?pRegisterEnum@CvLuaEnums@@KAXPAUlua_State@@PBDH@Z ; CvLuaEnums::pRegisterEnum
	add	esp, 12					; 0000000cH

; 214  : 	RegisterEnum(GAMEOPTION_NO_CITY_RAZING);

	push	0
	push	OFFSET ??_C@_0BK@FALDACNM@GAMEOPTION_NO_CITY_RAZING?$AA@
	mov	eax, DWORD PTR _L$[ebp]
	push	eax
	call	?pRegisterEnum@CvLuaEnums@@KAXPAUlua_State@@PBDH@Z ; CvLuaEnums::pRegisterEnum
	add	esp, 12					; 0000000cH

; 215  : 	RegisterEnum(GAMEOPTION_NO_BARBARIANS);

	push	1
	push	OFFSET ??_C@_0BJ@KEPDPJNF@GAMEOPTION_NO_BARBARIANS?$AA@
	mov	ecx, DWORD PTR _L$[ebp]
	push	ecx
	call	?pRegisterEnum@CvLuaEnums@@KAXPAUlua_State@@PBDH@Z ; CvLuaEnums::pRegisterEnum
	add	esp, 12					; 0000000cH

; 216  : 	RegisterEnum(GAMEOPTION_RAGING_BARBARIANS);

	push	2
	push	OFFSET ??_C@_0BN@EFKMMMCJ@GAMEOPTION_RAGING_BARBARIANS?$AA@
	mov	edx, DWORD PTR _L$[ebp]
	push	edx
	call	?pRegisterEnum@CvLuaEnums@@KAXPAUlua_State@@PBDH@Z ; CvLuaEnums::pRegisterEnum
	add	esp, 12					; 0000000cH

; 217  : 	RegisterEnum(GAMEOPTION_ALWAYS_WAR);

	push	3
	push	OFFSET ??_C@_0BG@JCKDCPBP@GAMEOPTION_ALWAYS_WAR?$AA@
	mov	eax, DWORD PTR _L$[ebp]
	push	eax
	call	?pRegisterEnum@CvLuaEnums@@KAXPAUlua_State@@PBDH@Z ; CvLuaEnums::pRegisterEnum
	add	esp, 12					; 0000000cH

; 218  : 	RegisterEnum(GAMEOPTION_ALWAYS_PEACE);

	push	4
	push	OFFSET ??_C@_0BI@DDHAEHLE@GAMEOPTION_ALWAYS_PEACE?$AA@
	mov	ecx, DWORD PTR _L$[ebp]
	push	ecx
	call	?pRegisterEnum@CvLuaEnums@@KAXPAUlua_State@@PBDH@Z ; CvLuaEnums::pRegisterEnum
	add	esp, 12					; 0000000cH

; 219  : 	RegisterEnum(GAMEOPTION_ONE_CITY_CHALLENGE);

	push	5
	push	OFFSET ??_C@_0BO@PJPCMCBE@GAMEOPTION_ONE_CITY_CHALLENGE?$AA@
	mov	edx, DWORD PTR _L$[ebp]
	push	edx
	call	?pRegisterEnum@CvLuaEnums@@KAXPAUlua_State@@PBDH@Z ; CvLuaEnums::pRegisterEnum
	add	esp, 12					; 0000000cH

; 220  : 	RegisterEnum(GAMEOPTION_NO_CHANGING_WAR_PEACE);

	push	6
	push	OFFSET ??_C@_0CB@NBIPAFED@GAMEOPTION_NO_CHANGING_WAR_PEACE@
	mov	eax, DWORD PTR _L$[ebp]
	push	eax
	call	?pRegisterEnum@CvLuaEnums@@KAXPAUlua_State@@PBDH@Z ; CvLuaEnums::pRegisterEnum
	add	esp, 12					; 0000000cH

; 221  : 	RegisterEnum(GAMEOPTION_NEW_RANDOM_SEED);

	push	7
	push	OFFSET ??_C@_0BL@KGABLPMK@GAMEOPTION_NEW_RANDOM_SEED?$AA@
	mov	ecx, DWORD PTR _L$[ebp]
	push	ecx
	call	?pRegisterEnum@CvLuaEnums@@KAXPAUlua_State@@PBDH@Z ; CvLuaEnums::pRegisterEnum
	add	esp, 12					; 0000000cH

; 222  : 	RegisterEnum(GAMEOPTION_LOCK_MODS);

	push	8
	push	OFFSET ??_C@_0BF@FLDCJDGF@GAMEOPTION_LOCK_MODS?$AA@
	mov	edx, DWORD PTR _L$[ebp]
	push	edx
	call	?pRegisterEnum@CvLuaEnums@@KAXPAUlua_State@@PBDH@Z ; CvLuaEnums::pRegisterEnum
	add	esp, 12					; 0000000cH

; 223  : 	RegisterEnum(GAMEOPTION_COMPLETE_KILLS);

	push	9
	push	OFFSET ??_C@_0BK@FLJHIMJA@GAMEOPTION_COMPLETE_KILLS?$AA@
	mov	eax, DWORD PTR _L$[ebp]
	push	eax
	call	?pRegisterEnum@CvLuaEnums@@KAXPAUlua_State@@PBDH@Z ; CvLuaEnums::pRegisterEnum
	add	esp, 12					; 0000000cH

; 224  : 	RegisterEnum(GAMEOPTION_NO_GOODY_HUTS);

	push	10					; 0000000aH
	push	OFFSET ??_C@_0BJ@ELIIMHCM@GAMEOPTION_NO_GOODY_HUTS?$AA@
	mov	ecx, DWORD PTR _L$[ebp]
	push	ecx
	call	?pRegisterEnum@CvLuaEnums@@KAXPAUlua_State@@PBDH@Z ; CvLuaEnums::pRegisterEnum
	add	esp, 12					; 0000000cH

; 225  : 	RegisterEnum(GAMEOPTION_RANDOM_PERSONALITIES);

	push	11					; 0000000bH
	push	OFFSET ??_C@_0CA@LBKCOBKO@GAMEOPTION_RANDOM_PERSONALITIES?$AA@
	mov	edx, DWORD PTR _L$[ebp]
	push	edx
	call	?pRegisterEnum@CvLuaEnums@@KAXPAUlua_State@@PBDH@Z ; CvLuaEnums::pRegisterEnum
	add	esp, 12					; 0000000cH

; 226  : 	RegisterEnum(GAMEOPTION_POLICY_SAVING);

	push	12					; 0000000cH
	push	OFFSET ??_C@_0BJ@EMMKEAFA@GAMEOPTION_POLICY_SAVING?$AA@
	mov	eax, DWORD PTR _L$[ebp]
	push	eax
	call	?pRegisterEnum@CvLuaEnums@@KAXPAUlua_State@@PBDH@Z ; CvLuaEnums::pRegisterEnum
	add	esp, 12					; 0000000cH

; 227  : 	RegisterEnum(GAMEOPTION_PROMOTION_SAVING);

	push	13					; 0000000dH
	push	OFFSET ??_C@_0BM@PDKCHBCL@GAMEOPTION_PROMOTION_SAVING?$AA@
	mov	ecx, DWORD PTR _L$[ebp]
	push	ecx
	call	?pRegisterEnum@CvLuaEnums@@KAXPAUlua_State@@PBDH@Z ; CvLuaEnums::pRegisterEnum
	add	esp, 12					; 0000000cH

; 228  : 	RegisterEnum(GAMEOPTION_END_TURN_TIMER_ENABLED);

	push	14					; 0000000eH
	push	OFFSET ??_C@_0CC@OIHDMLAM@GAMEOPTION_END_TURN_TIMER_ENABLE@
	mov	edx, DWORD PTR _L$[ebp]
	push	edx
	call	?pRegisterEnum@CvLuaEnums@@KAXPAUlua_State@@PBDH@Z ; CvLuaEnums::pRegisterEnum
	add	esp, 12					; 0000000cH

; 229  : 	RegisterEnum(GAMEOPTION_QUICK_COMBAT);

	push	15					; 0000000fH
	push	OFFSET ??_C@_0BI@BLEMCDOO@GAMEOPTION_QUICK_COMBAT?$AA@
	mov	eax, DWORD PTR _L$[ebp]
	push	eax
	call	?pRegisterEnum@CvLuaEnums@@KAXPAUlua_State@@PBDH@Z ; CvLuaEnums::pRegisterEnum
	add	esp, 12					; 0000000cH

; 230  : 	RegisterEnum(GAMEOPTION_DISABLE_START_BIAS);

	push	16					; 00000010H
	push	OFFSET ??_C@_0BO@IHBNNLD@GAMEOPTION_DISABLE_START_BIAS?$AA@
	mov	ecx, DWORD PTR _L$[ebp]
	push	ecx
	call	?pRegisterEnum@CvLuaEnums@@KAXPAUlua_State@@PBDH@Z ; CvLuaEnums::pRegisterEnum
	add	esp, 12					; 0000000cH

; 231  : 	RegisterEnum(GAMEOPTION_NO_SCIENCE);

	push	17					; 00000011H
	push	OFFSET ??_C@_0BG@PIPNBCH@GAMEOPTION_NO_SCIENCE?$AA@
	mov	edx, DWORD PTR _L$[ebp]
	push	edx
	call	?pRegisterEnum@CvLuaEnums@@KAXPAUlua_State@@PBDH@Z ; CvLuaEnums::pRegisterEnum
	add	esp, 12					; 0000000cH

; 232  : 	RegisterEnum(GAMEOPTION_NO_POLICIES);

	push	18					; 00000012H
	push	OFFSET ??_C@_0BH@OIGGNGKO@GAMEOPTION_NO_POLICIES?$AA@
	mov	eax, DWORD PTR _L$[ebp]
	push	eax
	call	?pRegisterEnum@CvLuaEnums@@KAXPAUlua_State@@PBDH@Z ; CvLuaEnums::pRegisterEnum
	add	esp, 12					; 0000000cH

; 233  : 	RegisterEnum(GAMEOPTION_NO_HAPPINESS);

	push	19					; 00000013H
	push	OFFSET ??_C@_0BI@JGECPOCP@GAMEOPTION_NO_HAPPINESS?$AA@
	mov	ecx, DWORD PTR _L$[ebp]
	push	ecx
	call	?pRegisterEnum@CvLuaEnums@@KAXPAUlua_State@@PBDH@Z ; CvLuaEnums::pRegisterEnum
	add	esp, 12					; 0000000cH

; 234  : 	RegisterEnum(GAMEOPTION_NO_TUTORIAL);

	push	20					; 00000014H
	push	OFFSET ??_C@_0BH@ENEKIDIF@GAMEOPTION_NO_TUTORIAL?$AA@
	mov	edx, DWORD PTR _L$[ebp]
	push	edx
	call	?pRegisterEnum@CvLuaEnums@@KAXPAUlua_State@@PBDH@Z ; CvLuaEnums::pRegisterEnum
	add	esp, 12					; 0000000cH

; 235  : 	RegisterEnum(GAMEOPTION_NO_RELIGION);

	push	21					; 00000015H
	push	OFFSET ??_C@_0BH@FACLKNOK@GAMEOPTION_NO_RELIGION?$AA@
	mov	eax, DWORD PTR _L$[ebp]
	push	eax
	call	?pRegisterEnum@CvLuaEnums@@KAXPAUlua_State@@PBDH@Z ; CvLuaEnums::pRegisterEnum
	add	esp, 12					; 0000000cH

; 236  : 	RegisterEnum(NUM_GAMEOPTION_TYPES);

	push	22					; 00000016H
	push	OFFSET ??_C@_0BF@BLAHAKGL@NUM_GAMEOPTION_TYPES?$AA@
	mov	ecx, DWORD PTR _L$[ebp]
	push	ecx
	call	?pRegisterEnum@CvLuaEnums@@KAXPAUlua_State@@PBDH@Z ; CvLuaEnums::pRegisterEnum
	add	esp, 12					; 0000000cH

; 237  : 
; 238  : 
; 239  : 	//DomainTypes
; 240  : 	EnumStart(L, "DomainTypes");

	push	OFFSET ??_C@_0M@ENKDAKND@DomainTypes?$AA@
	mov	edx, DWORD PTR _L$[ebp]
	push	edx
	call	?EnumStart@CvLuaEnums@@KAXPAUlua_State@@PBD@Z ; CvLuaEnums::EnumStart
	add	esp, 8

; 241  : 	RegisterEnum(NO_DOMAIN);

	push	-1
	push	OFFSET ??_C@_09MNBLBDJB@NO_DOMAIN?$AA@
	mov	eax, DWORD PTR _L$[ebp]
	push	eax
	call	?pRegisterEnum@CvLuaEnums@@KAXPAUlua_State@@PBDH@Z ; CvLuaEnums::pRegisterEnum
	add	esp, 12					; 0000000cH

; 242  : 	RegisterEnum(DOMAIN_SEA);

	push	0
	push	OFFSET ??_C@_0L@EPLLMMPP@DOMAIN_SEA?$AA@
	mov	ecx, DWORD PTR _L$[ebp]
	push	ecx
	call	?pRegisterEnum@CvLuaEnums@@KAXPAUlua_State@@PBDH@Z ; CvLuaEnums::pRegisterEnum
	add	esp, 12					; 0000000cH

; 243  : 	RegisterEnum(DOMAIN_AIR);

	push	1
	push	OFFSET ??_C@_0L@NNFOOLBN@DOMAIN_AIR?$AA@
	mov	edx, DWORD PTR _L$[ebp]
	push	edx
	call	?pRegisterEnum@CvLuaEnums@@KAXPAUlua_State@@PBDH@Z ; CvLuaEnums::pRegisterEnum
	add	esp, 12					; 0000000cH

; 244  : 	RegisterEnum(DOMAIN_LAND);

	push	2
	push	OFFSET ??_C@_0M@NPNGAOHJ@DOMAIN_LAND?$AA@
	mov	eax, DWORD PTR _L$[ebp]
	push	eax
	call	?pRegisterEnum@CvLuaEnums@@KAXPAUlua_State@@PBDH@Z ; CvLuaEnums::pRegisterEnum
	add	esp, 12					; 0000000cH

; 245  : 	RegisterEnum(DOMAIN_IMMOBILE);

	push	3
	push	OFFSET ??_C@_0BA@KLBBAGOE@DOMAIN_IMMOBILE?$AA@
	mov	ecx, DWORD PTR _L$[ebp]
	push	ecx
	call	?pRegisterEnum@CvLuaEnums@@KAXPAUlua_State@@PBDH@Z ; CvLuaEnums::pRegisterEnum
	add	esp, 12					; 0000000cH

; 246  : 	RegisterEnum(DOMAIN_HOVER);

	push	4
	push	OFFSET ??_C@_0N@BBEFMJHA@DOMAIN_HOVER?$AA@
	mov	edx, DWORD PTR _L$[ebp]
	push	edx
	call	?pRegisterEnum@CvLuaEnums@@KAXPAUlua_State@@PBDH@Z ; CvLuaEnums::pRegisterEnum
	add	esp, 12					; 0000000cH

; 247  : 	RegisterEnum(NUM_DOMAIN_TYPES);

	push	5
	push	OFFSET ??_C@_0BB@JJBCEOBK@NUM_DOMAIN_TYPES?$AA@
	mov	eax, DWORD PTR _L$[ebp]
	push	eax
	call	?pRegisterEnum@CvLuaEnums@@KAXPAUlua_State@@PBDH@Z ; CvLuaEnums::pRegisterEnum
	add	esp, 12					; 0000000cH

; 248  : 	EnumEnd(L);

	mov	ecx, DWORD PTR _L$[ebp]
	push	ecx
	call	?EnumEnd@CvLuaEnums@@KAXPAUlua_State@@@Z ; CvLuaEnums::EnumEnd
	add	esp, 4

; 249  : 
; 250  : 	//FeatureTypes
; 251  : 	EnumStart(L, "FeatureTypes");

	push	OFFSET ??_C@_0N@PMMJLIAB@FeatureTypes?$AA@
	mov	edx, DWORD PTR _L$[ebp]
	push	edx
	call	?EnumStart@CvLuaEnums@@KAXPAUlua_State@@PBD@Z ; CvLuaEnums::EnumStart
	add	esp, 8

; 252  : 	RegisterEnum(NO_FEATURE);

	push	-1
	push	OFFSET ??_C@_0L@DMKPDBAI@NO_FEATURE?$AA@
	mov	eax, DWORD PTR _L$[ebp]
	push	eax
	call	?pRegisterEnum@CvLuaEnums@@KAXPAUlua_State@@PBDH@Z ; CvLuaEnums::pRegisterEnum
	add	esp, 12					; 0000000cH

; 253  : 	RegisterEnum(FEATURE_ICE);

	push	0
	push	OFFSET ??_C@_0M@PHDJLLFO@FEATURE_ICE?$AA@
	mov	ecx, DWORD PTR _L$[ebp]
	push	ecx
	call	?pRegisterEnum@CvLuaEnums@@KAXPAUlua_State@@PBDH@Z ; CvLuaEnums::pRegisterEnum
	add	esp, 12					; 0000000cH

; 254  : 	RegisterEnum(FEATURE_JUNGLE);

	push	1
	push	OFFSET ??_C@_0P@FPOMJJFM@FEATURE_JUNGLE?$AA@
	mov	edx, DWORD PTR _L$[ebp]
	push	edx
	call	?pRegisterEnum@CvLuaEnums@@KAXPAUlua_State@@PBDH@Z ; CvLuaEnums::pRegisterEnum
	add	esp, 12					; 0000000cH

; 255  : 	RegisterEnum(FEATURE_MARSH);

	push	2
	push	OFFSET ??_C@_0O@CEOMGFD@FEATURE_MARSH?$AA@
	mov	eax, DWORD PTR _L$[ebp]
	push	eax
	call	?pRegisterEnum@CvLuaEnums@@KAXPAUlua_State@@PBDH@Z ; CvLuaEnums::pRegisterEnum
	add	esp, 12					; 0000000cH

; 256  : 	RegisterEnum(FEATURE_OASIS);

	push	3
	push	OFFSET ??_C@_0O@EPLNONAB@FEATURE_OASIS?$AA@
	mov	ecx, DWORD PTR _L$[ebp]
	push	ecx
	call	?pRegisterEnum@CvLuaEnums@@KAXPAUlua_State@@PBDH@Z ; CvLuaEnums::pRegisterEnum
	add	esp, 12					; 0000000cH

; 257  : 	RegisterEnum(FEATURE_FLOOD_PLAINS);

	push	4
	push	OFFSET ??_C@_0BF@OALAIPAK@FEATURE_FLOOD_PLAINS?$AA@
	mov	edx, DWORD PTR _L$[ebp]
	push	edx
	call	?pRegisterEnum@CvLuaEnums@@KAXPAUlua_State@@PBDH@Z ; CvLuaEnums::pRegisterEnum
	add	esp, 12					; 0000000cH

; 258  : 	RegisterEnum(FEATURE_FOREST);

	push	5
	push	OFFSET ??_C@_0P@HBLLKHIA@FEATURE_FOREST?$AA@
	mov	eax, DWORD PTR _L$[ebp]
	push	eax
	call	?pRegisterEnum@CvLuaEnums@@KAXPAUlua_State@@PBDH@Z ; CvLuaEnums::pRegisterEnum
	add	esp, 12					; 0000000cH

; 259  : 	RegisterEnum(FEATURE_FALLOUT);

	push	6
	push	OFFSET ??_C@_0BA@EMOAFIAA@FEATURE_FALLOUT?$AA@
	mov	ecx, DWORD PTR _L$[ebp]
	push	ecx
	call	?pRegisterEnum@CvLuaEnums@@KAXPAUlua_State@@PBDH@Z ; CvLuaEnums::pRegisterEnum
	add	esp, 12					; 0000000cH

; 260  : 	RegisterEnum(NUM_FEATURE_TYPES);

	push	8
	push	OFFSET ??_C@_0BC@DLAPMCPK@NUM_FEATURE_TYPES?$AA@
	mov	edx, DWORD PTR _L$[ebp]
	push	edx
	call	?pRegisterEnum@CvLuaEnums@@KAXPAUlua_State@@PBDH@Z ; CvLuaEnums::pRegisterEnum
	add	esp, 12					; 0000000cH

; 261  : 	EnumEnd(L);

	mov	eax, DWORD PTR _L$[ebp]
	push	eax
	call	?EnumEnd@CvLuaEnums@@KAXPAUlua_State@@@Z ; CvLuaEnums::EnumEnd
	add	esp, 4

; 262  : 
; 263  : 	//FogOfWarModeTypes
; 264  : 	EnumStart(L, "FogOfWarModeTypes");

	push	OFFSET ??_C@_0BC@PBLLCPCG@FogOfWarModeTypes?$AA@
	mov	ecx, DWORD PTR _L$[ebp]
	push	ecx
	call	?EnumStart@CvLuaEnums@@KAXPAUlua_State@@PBD@Z ; CvLuaEnums::EnumStart
	add	esp, 8

; 265  : 	RegisterEnum(FOGOFWARMODE_OFF);

	push	0
	push	OFFSET ??_C@_0BB@EODMOAJF@FOGOFWARMODE_OFF?$AA@
	mov	edx, DWORD PTR _L$[ebp]
	push	edx
	call	?pRegisterEnum@CvLuaEnums@@KAXPAUlua_State@@PBDH@Z ; CvLuaEnums::pRegisterEnum
	add	esp, 12					; 0000000cH

; 266  : 	RegisterEnum(FOGOFWARMODE_NOVIS);

	push	2
	push	OFFSET ??_C@_0BD@NELEIMII@FOGOFWARMODE_NOVIS?$AA@
	mov	eax, DWORD PTR _L$[ebp]
	push	eax
	call	?pRegisterEnum@CvLuaEnums@@KAXPAUlua_State@@PBDH@Z ; CvLuaEnums::pRegisterEnum
	add	esp, 12					; 0000000cH

; 267  : 	RegisterEnum(FOGOFWARMODE_UNEXPLORED);

	push	1
	push	OFFSET ??_C@_0BI@FGMCNOKG@FOGOFWARMODE_UNEXPLORED?$AA@
	mov	ecx, DWORD PTR _L$[ebp]
	push	ecx
	call	?pRegisterEnum@CvLuaEnums@@KAXPAUlua_State@@PBDH@Z ; CvLuaEnums::pRegisterEnum
	add	esp, 12					; 0000000cH

; 268  : 	EnumEnd(L);

	mov	edx, DWORD PTR _L$[ebp]
	push	edx
	call	?EnumEnd@CvLuaEnums@@KAXPAUlua_State@@@Z ; CvLuaEnums::EnumEnd
	add	esp, 4

; 269  : 
; 270  : 	EnumStart(L, "OrderTypes");

	push	OFFSET ??_C@_0L@IDOLACNH@OrderTypes?$AA@
	mov	eax, DWORD PTR _L$[ebp]
	push	eax
	call	?EnumStart@CvLuaEnums@@KAXPAUlua_State@@PBD@Z ; CvLuaEnums::EnumStart
	add	esp, 8

; 271  : 	RegisterEnum(NO_ORDER);

	push	-1
	push	OFFSET ??_C@_08HMPBOBFO@NO_ORDER?$AA@
	mov	ecx, DWORD PTR _L$[ebp]
	push	ecx
	call	?pRegisterEnum@CvLuaEnums@@KAXPAUlua_State@@PBDH@Z ; CvLuaEnums::pRegisterEnum
	add	esp, 12					; 0000000cH

; 272  : 	RegisterEnum(ORDER_TRAIN);

	push	0
	push	OFFSET ??_C@_0M@MABAMEFF@ORDER_TRAIN?$AA@
	mov	edx, DWORD PTR _L$[ebp]
	push	edx
	call	?pRegisterEnum@CvLuaEnums@@KAXPAUlua_State@@PBDH@Z ; CvLuaEnums::pRegisterEnum
	add	esp, 12					; 0000000cH

; 273  : 	RegisterEnum(ORDER_CONSTRUCT);

	push	1
	push	OFFSET ??_C@_0BA@IJOGBGHJ@ORDER_CONSTRUCT?$AA@
	mov	eax, DWORD PTR _L$[ebp]
	push	eax
	call	?pRegisterEnum@CvLuaEnums@@KAXPAUlua_State@@PBDH@Z ; CvLuaEnums::pRegisterEnum
	add	esp, 12					; 0000000cH

; 274  : 	RegisterEnum(ORDER_CREATE);

	push	2
	push	OFFSET ??_C@_0N@BFDDAEDG@ORDER_CREATE?$AA@
	mov	ecx, DWORD PTR _L$[ebp]
	push	ecx
	call	?pRegisterEnum@CvLuaEnums@@KAXPAUlua_State@@PBDH@Z ; CvLuaEnums::pRegisterEnum
	add	esp, 12					; 0000000cH

; 275  : 	RegisterEnum(ORDER_PREPARE);

	push	3
	push	OFFSET ??_C@_0O@JDLLIHHP@ORDER_PREPARE?$AA@
	mov	edx, DWORD PTR _L$[ebp]
	push	edx
	call	?pRegisterEnum@CvLuaEnums@@KAXPAUlua_State@@PBDH@Z ; CvLuaEnums::pRegisterEnum
	add	esp, 12					; 0000000cH

; 276  : 	RegisterEnum(ORDER_MAINTAIN);

	push	4
	push	OFFSET ??_C@_0P@BMKCDGDH@ORDER_MAINTAIN?$AA@
	mov	eax, DWORD PTR _L$[ebp]
	push	eax
	call	?pRegisterEnum@CvLuaEnums@@KAXPAUlua_State@@PBDH@Z ; CvLuaEnums::pRegisterEnum
	add	esp, 12					; 0000000cH

; 277  : 	RegisterEnum(NUM_ORDER_TYPES);

	push	5
	push	OFFSET ??_C@_0BA@FFCGOCPK@NUM_ORDER_TYPES?$AA@
	mov	ecx, DWORD PTR _L$[ebp]
	push	ecx
	call	?pRegisterEnum@CvLuaEnums@@KAXPAUlua_State@@PBDH@Z ; CvLuaEnums::pRegisterEnum
	add	esp, 12					; 0000000cH

; 278  : 	EnumEnd(L);

	mov	edx, DWORD PTR _L$[ebp]
	push	edx
	call	?EnumEnd@CvLuaEnums@@KAXPAUlua_State@@@Z ; CvLuaEnums::EnumEnd
	add	esp, 4

; 279  : 
; 280  : 	//PlotTypes
; 281  : 	EnumStart(L, "PlotTypes");

	push	OFFSET ??_C@_09EMDGGOGD@PlotTypes?$AA@
	mov	eax, DWORD PTR _L$[ebp]
	push	eax
	call	?EnumStart@CvLuaEnums@@KAXPAUlua_State@@PBD@Z ; CvLuaEnums::EnumStart
	add	esp, 8

; 282  : 	RegisterEnum(NO_PLOT);

	push	-1
	push	OFFSET ??_C@_07KFJBDFBI@NO_PLOT?$AA@
	mov	ecx, DWORD PTR _L$[ebp]
	push	ecx
	call	?pRegisterEnum@CvLuaEnums@@KAXPAUlua_State@@PBDH@Z ; CvLuaEnums::pRegisterEnum
	add	esp, 12					; 0000000cH

; 283  : 	RegisterEnum(PLOT_MOUNTAIN);

	push	0
	push	OFFSET ??_C@_0O@IIKCCFJN@PLOT_MOUNTAIN?$AA@
	mov	edx, DWORD PTR _L$[ebp]
	push	edx
	call	?pRegisterEnum@CvLuaEnums@@KAXPAUlua_State@@PBDH@Z ; CvLuaEnums::pRegisterEnum
	add	esp, 12					; 0000000cH

; 284  : 	RegisterEnum(PLOT_HILLS);

	push	1
	push	OFFSET ??_C@_0L@OCKGPDCC@PLOT_HILLS?$AA@
	mov	eax, DWORD PTR _L$[ebp]
	push	eax
	call	?pRegisterEnum@CvLuaEnums@@KAXPAUlua_State@@PBDH@Z ; CvLuaEnums::pRegisterEnum
	add	esp, 12					; 0000000cH

; 285  : 	RegisterEnum(PLOT_LAND);

	push	2
	push	OFFSET ??_C@_09BHICOGMO@PLOT_LAND?$AA@
	mov	ecx, DWORD PTR _L$[ebp]
	push	ecx
	call	?pRegisterEnum@CvLuaEnums@@KAXPAUlua_State@@PBDH@Z ; CvLuaEnums::pRegisterEnum
	add	esp, 12					; 0000000cH

; 286  : 	RegisterEnum(PLOT_OCEAN);

	push	3
	push	OFFSET ??_C@_0L@DPKPGLPO@PLOT_OCEAN?$AA@
	mov	edx, DWORD PTR _L$[ebp]
	push	edx
	call	?pRegisterEnum@CvLuaEnums@@KAXPAUlua_State@@PBDH@Z ; CvLuaEnums::pRegisterEnum
	add	esp, 12					; 0000000cH

; 287  : 	RegisterEnum(NUM_PLOT_TYPES);

	push	4
	push	OFFSET ??_C@_0P@GPHGDFLD@NUM_PLOT_TYPES?$AA@
	mov	eax, DWORD PTR _L$[ebp]
	push	eax
	call	?pRegisterEnum@CvLuaEnums@@KAXPAUlua_State@@PBDH@Z ; CvLuaEnums::pRegisterEnum
	add	esp, 12					; 0000000cH

; 288  : 	EnumEnd(L);

	mov	ecx, DWORD PTR _L$[ebp]
	push	ecx
	call	?EnumEnd@CvLuaEnums@@KAXPAUlua_State@@@Z ; CvLuaEnums::EnumEnd
	add	esp, 4

; 289  : 
; 290  : 	//TerrainTypes
; 291  : 	EnumStart(L, "TerrainTypes");

	push	OFFSET ??_C@_0N@MAGCBDOH@TerrainTypes?$AA@
	mov	edx, DWORD PTR _L$[ebp]
	push	edx
	call	?EnumStart@CvLuaEnums@@KAXPAUlua_State@@PBD@Z ; CvLuaEnums::EnumStart
	add	esp, 8

; 292  : 	RegisterEnum(NO_TERRAIN);

	push	-1
	push	OFFSET ??_C@_0L@CEMPNHFJ@NO_TERRAIN?$AA@
	mov	eax, DWORD PTR _L$[ebp]
	push	eax
	call	?pRegisterEnum@CvLuaEnums@@KAXPAUlua_State@@PBDH@Z ; CvLuaEnums::pRegisterEnum
	add	esp, 12					; 0000000cH

; 293  : 	RegisterEnum(TERRAIN_GRASS);

	push	0
	push	OFFSET ??_C@_0O@CGFKNHGK@TERRAIN_GRASS?$AA@
	mov	ecx, DWORD PTR _L$[ebp]
	push	ecx
	call	?pRegisterEnum@CvLuaEnums@@KAXPAUlua_State@@PBDH@Z ; CvLuaEnums::pRegisterEnum
	add	esp, 12					; 0000000cH

; 294  : 	RegisterEnum(TERRAIN_PLAINS);

	push	1
	push	OFFSET ??_C@_0P@IMCIJKHF@TERRAIN_PLAINS?$AA@
	mov	edx, DWORD PTR _L$[ebp]
	push	edx
	call	?pRegisterEnum@CvLuaEnums@@KAXPAUlua_State@@PBDH@Z ; CvLuaEnums::pRegisterEnum
	add	esp, 12					; 0000000cH

; 295  : 	RegisterEnum(TERRAIN_DESERT);

	push	2
	push	OFFSET ??_C@_0P@DCDNMEOJ@TERRAIN_DESERT?$AA@
	mov	eax, DWORD PTR _L$[ebp]
	push	eax
	call	?pRegisterEnum@CvLuaEnums@@KAXPAUlua_State@@PBDH@Z ; CvLuaEnums::pRegisterEnum
	add	esp, 12					; 0000000cH

; 296  : 	RegisterEnum(TERRAIN_TUNDRA);

	push	3
	push	OFFSET ??_C@_0P@EBEMIIPO@TERRAIN_TUNDRA?$AA@
	mov	ecx, DWORD PTR _L$[ebp]
	push	ecx
	call	?pRegisterEnum@CvLuaEnums@@KAXPAUlua_State@@PBDH@Z ; CvLuaEnums::pRegisterEnum
	add	esp, 12					; 0000000cH

; 297  : 	RegisterEnum(TERRAIN_SNOW);

	push	4
	push	OFFSET ??_C@_0N@JANIPHBF@TERRAIN_SNOW?$AA@
	mov	edx, DWORD PTR _L$[ebp]
	push	edx
	call	?pRegisterEnum@CvLuaEnums@@KAXPAUlua_State@@PBDH@Z ; CvLuaEnums::pRegisterEnum
	add	esp, 12					; 0000000cH

; 298  : 	RegisterEnum(TERRAIN_COAST);

	push	5
	push	OFFSET ??_C@_0O@GKPKFAII@TERRAIN_COAST?$AA@
	mov	eax, DWORD PTR _L$[ebp]
	push	eax
	call	?pRegisterEnum@CvLuaEnums@@KAXPAUlua_State@@PBDH@Z ; CvLuaEnums::pRegisterEnum
	add	esp, 12					; 0000000cH

; 299  : 	RegisterEnum(TERRAIN_OCEAN);

	push	6
	push	OFFSET ??_C@_0O@PICFGHGA@TERRAIN_OCEAN?$AA@
	mov	ecx, DWORD PTR _L$[ebp]
	push	ecx
	call	?pRegisterEnum@CvLuaEnums@@KAXPAUlua_State@@PBDH@Z ; CvLuaEnums::pRegisterEnum
	add	esp, 12					; 0000000cH

; 300  : 	RegisterEnum(TERRAIN_MOUNTAIN);

	push	7
	push	OFFSET ??_C@_0BB@NOPHJFJC@TERRAIN_MOUNTAIN?$AA@
	mov	edx, DWORD PTR _L$[ebp]
	push	edx
	call	?pRegisterEnum@CvLuaEnums@@KAXPAUlua_State@@PBDH@Z ; CvLuaEnums::pRegisterEnum
	add	esp, 12					; 0000000cH

; 301  : 	RegisterEnum(TERRAIN_HILL);

	push	8
	push	OFFSET ??_C@_0N@LBEPBMPM@TERRAIN_HILL?$AA@
	mov	eax, DWORD PTR _L$[ebp]
	push	eax
	call	?pRegisterEnum@CvLuaEnums@@KAXPAUlua_State@@PBDH@Z ; CvLuaEnums::pRegisterEnum
	add	esp, 12					; 0000000cH

; 302  : 	RegisterEnum(NUM_TERRAIN_TYPES);

	push	9
	push	OFFSET ??_C@_0BC@HCFKCOBM@NUM_TERRAIN_TYPES?$AA@
	mov	ecx, DWORD PTR _L$[ebp]
	push	ecx
	call	?pRegisterEnum@CvLuaEnums@@KAXPAUlua_State@@PBDH@Z ; CvLuaEnums::pRegisterEnum
	add	esp, 12					; 0000000cH

; 303  : 	EnumEnd(L);

	mov	edx, DWORD PTR _L$[ebp]
	push	edx
	call	?EnumEnd@CvLuaEnums@@KAXPAUlua_State@@@Z ; CvLuaEnums::EnumEnd
	add	esp, 4

; 304  : 
; 305  : 	//InterfaceModeTypes
; 306  : 	EnumStart(L, "InterfaceModeTypes");

	push	OFFSET ??_C@_0BD@EMEMEIDB@InterfaceModeTypes?$AA@
	mov	eax, DWORD PTR _L$[ebp]
	push	eax
	call	?EnumStart@CvLuaEnums@@KAXPAUlua_State@@PBD@Z ; CvLuaEnums::EnumStart
	add	esp, 8

; 307  : 	RegisterEnum(NO_INTERFACEMODE);

	push	-1
	push	OFFSET ??_C@_0BB@CGLADEEE@NO_INTERFACEMODE?$AA@
	mov	ecx, DWORD PTR _L$[ebp]
	push	ecx
	call	?pRegisterEnum@CvLuaEnums@@KAXPAUlua_State@@PBDH@Z ; CvLuaEnums::pRegisterEnum
	add	esp, 12					; 0000000cH

; 308  : 	RegisterEnum(INTERFACEMODE_DEBUG);

	push	0
	push	OFFSET ??_C@_0BE@KEMHPNNH@INTERFACEMODE_DEBUG?$AA@
	mov	edx, DWORD PTR _L$[ebp]
	push	edx
	call	?pRegisterEnum@CvLuaEnums@@KAXPAUlua_State@@PBDH@Z ; CvLuaEnums::pRegisterEnum
	add	esp, 12					; 0000000cH

; 309  : 	RegisterEnum(INTERFACEMODE_SELECTION);

	push	1
	push	OFFSET ??_C@_0BI@EBJLMHGK@INTERFACEMODE_SELECTION?$AA@
	mov	eax, DWORD PTR _L$[ebp]
	push	eax
	call	?pRegisterEnum@CvLuaEnums@@KAXPAUlua_State@@PBDH@Z ; CvLuaEnums::pRegisterEnum
	add	esp, 12					; 0000000cH

; 310  : 	RegisterEnum(INTERFACEMODE_PING);

	push	2
	push	OFFSET ??_C@_0BD@FANJGJBI@INTERFACEMODE_PING?$AA@
	mov	ecx, DWORD PTR _L$[ebp]
	push	ecx
	call	?pRegisterEnum@CvLuaEnums@@KAXPAUlua_State@@PBDH@Z ; CvLuaEnums::pRegisterEnum
	add	esp, 12					; 0000000cH

; 311  : 	RegisterEnum(INTERFACEMODE_MOVE_TO);

	push	3
	push	OFFSET ??_C@_0BG@MHBEEAAC@INTERFACEMODE_MOVE_TO?$AA@
	mov	edx, DWORD PTR _L$[ebp]
	push	edx
	call	?pRegisterEnum@CvLuaEnums@@KAXPAUlua_State@@PBDH@Z ; CvLuaEnums::pRegisterEnum
	add	esp, 12					; 0000000cH

; 312  : 	RegisterEnum(INTERFACEMODE_MOVE_TO_TYPE);

	push	4
	push	OFFSET ??_C@_0BL@BJLMEHIJ@INTERFACEMODE_MOVE_TO_TYPE?$AA@
	mov	eax, DWORD PTR _L$[ebp]
	push	eax
	call	?pRegisterEnum@CvLuaEnums@@KAXPAUlua_State@@PBDH@Z ; CvLuaEnums::pRegisterEnum
	add	esp, 12					; 0000000cH

; 313  : 	RegisterEnum(INTERFACEMODE_MOVE_TO_ALL);

	push	5
	push	OFFSET ??_C@_0BK@ENJKNGOC@INTERFACEMODE_MOVE_TO_ALL?$AA@
	mov	ecx, DWORD PTR _L$[ebp]
	push	ecx
	call	?pRegisterEnum@CvLuaEnums@@KAXPAUlua_State@@PBDH@Z ; CvLuaEnums::pRegisterEnum
	add	esp, 12					; 0000000cH

; 314  : 	RegisterEnum(INTERFACEMODE_ROUTE_TO);

	push	6
	push	OFFSET ??_C@_0BH@POBBCEBG@INTERFACEMODE_ROUTE_TO?$AA@
	mov	edx, DWORD PTR _L$[ebp]
	push	edx
	call	?pRegisterEnum@CvLuaEnums@@KAXPAUlua_State@@PBDH@Z ; CvLuaEnums::pRegisterEnum
	add	esp, 12					; 0000000cH

; 315  : 	RegisterEnum(INTERFACEMODE_AIRLIFT);

	push	7
	push	OFFSET ??_C@_0BG@KGAMPENH@INTERFACEMODE_AIRLIFT?$AA@
	mov	eax, DWORD PTR _L$[ebp]
	push	eax
	call	?pRegisterEnum@CvLuaEnums@@KAXPAUlua_State@@PBDH@Z ; CvLuaEnums::pRegisterEnum
	add	esp, 12					; 0000000cH

; 316  : 	RegisterEnum(INTERFACEMODE_NUKE);

	push	8
	push	OFFSET ??_C@_0BD@KBDLAILF@INTERFACEMODE_NUKE?$AA@
	mov	ecx, DWORD PTR _L$[ebp]
	push	ecx
	call	?pRegisterEnum@CvLuaEnums@@KAXPAUlua_State@@PBDH@Z ; CvLuaEnums::pRegisterEnum
	add	esp, 12					; 0000000cH

; 317  : 	RegisterEnum(INTERFACEMODE_PARADROP);

	push	9
	push	OFFSET ??_C@_0BH@EBPCAAGG@INTERFACEMODE_PARADROP?$AA@
	mov	edx, DWORD PTR _L$[ebp]
	push	edx
	call	?pRegisterEnum@CvLuaEnums@@KAXPAUlua_State@@PBDH@Z ; CvLuaEnums::pRegisterEnum
	add	esp, 12					; 0000000cH

; 318  : 	RegisterEnum(INTERFACEMODE_ATTACK);

	push	10					; 0000000aH
	push	OFFSET ??_C@_0BF@KGPOOCOL@INTERFACEMODE_ATTACK?$AA@
	mov	eax, DWORD PTR _L$[ebp]
	push	eax
	call	?pRegisterEnum@CvLuaEnums@@KAXPAUlua_State@@PBDH@Z ; CvLuaEnums::pRegisterEnum
	add	esp, 12					; 0000000cH

; 319  : 	RegisterEnum(INTERFACEMODE_RANGE_ATTACK);

	push	11					; 0000000bH
	push	OFFSET ??_C@_0BL@DIAIACDL@INTERFACEMODE_RANGE_ATTACK?$AA@
	mov	ecx, DWORD PTR _L$[ebp]
	push	ecx
	call	?pRegisterEnum@CvLuaEnums@@KAXPAUlua_State@@PBDH@Z ; CvLuaEnums::pRegisterEnum
	add	esp, 12					; 0000000cH

; 320  : 	RegisterEnum(INTERFACEMODE_AIRSTRIKE);

	push	12					; 0000000cH
	push	OFFSET ??_C@_0BI@JMKFFJNC@INTERFACEMODE_AIRSTRIKE?$AA@
	mov	edx, DWORD PTR _L$[ebp]
	push	edx
	call	?pRegisterEnum@CvLuaEnums@@KAXPAUlua_State@@PBDH@Z ; CvLuaEnums::pRegisterEnum
	add	esp, 12					; 0000000cH

; 321  : 	RegisterEnum(INTERFACEMODE_AIR_SWEEP);

	push	13					; 0000000dH
	push	OFFSET ??_C@_0BI@PJBNPIMI@INTERFACEMODE_AIR_SWEEP?$AA@
	mov	eax, DWORD PTR _L$[ebp]
	push	eax
	call	?pRegisterEnum@CvLuaEnums@@KAXPAUlua_State@@PBDH@Z ; CvLuaEnums::pRegisterEnum
	add	esp, 12					; 0000000cH

; 322  : 	RegisterEnum(INTERFACEMODE_REBASE);

	push	14					; 0000000eH
	push	OFFSET ??_C@_0BF@FFEHFJFK@INTERFACEMODE_REBASE?$AA@
	mov	ecx, DWORD PTR _L$[ebp]
	push	ecx
	call	?pRegisterEnum@CvLuaEnums@@KAXPAUlua_State@@PBDH@Z ; CvLuaEnums::pRegisterEnum
	add	esp, 12					; 0000000cH

; 323  : 	RegisterEnum(INTERFACEMODE_PLACE_UNIT);

	push	15					; 0000000fH
	push	OFFSET ??_C@_0BJ@DANCOGFA@INTERFACEMODE_PLACE_UNIT?$AA@
	mov	edx, DWORD PTR _L$[ebp]
	push	edx
	call	?pRegisterEnum@CvLuaEnums@@KAXPAUlua_State@@PBDH@Z ; CvLuaEnums::pRegisterEnum
	add	esp, 12					; 0000000cH

; 324  : 	RegisterEnum(INTERFACEMODE_EMBARK);

	push	16					; 00000010H
	push	OFFSET ??_C@_0BF@IECMDOMO@INTERFACEMODE_EMBARK?$AA@
	mov	eax, DWORD PTR _L$[ebp]
	push	eax
	call	?pRegisterEnum@CvLuaEnums@@KAXPAUlua_State@@PBDH@Z ; CvLuaEnums::pRegisterEnum
	add	esp, 12					; 0000000cH

; 325  : 	RegisterEnum(INTERFACEMODE_DISEMBARK);

	push	17					; 00000011H
	push	OFFSET ??_C@_0BI@LONBGCLD@INTERFACEMODE_DISEMBARK?$AA@
	mov	ecx, DWORD PTR _L$[ebp]
	push	ecx
	call	?pRegisterEnum@CvLuaEnums@@KAXPAUlua_State@@PBDH@Z ; CvLuaEnums::pRegisterEnum
	add	esp, 12					; 0000000cH

; 326  : 	RegisterEnum(INTERFACEMODE_GIFT_UNIT);

	push	18					; 00000012H
	push	OFFSET ??_C@_0BI@LJIAMLNO@INTERFACEMODE_GIFT_UNIT?$AA@
	mov	edx, DWORD PTR _L$[ebp]
	push	edx
	call	?pRegisterEnum@CvLuaEnums@@KAXPAUlua_State@@PBDH@Z ; CvLuaEnums::pRegisterEnum
	add	esp, 12					; 0000000cH

; 327  : 	RegisterEnum(INTERFACEMODE_CITY_PLOT_SELECTION);

	push	19					; 00000013H
	push	OFFSET ??_C@_0CC@GKKKAGHI@INTERFACEMODE_CITY_PLOT_SELECTIO@
	mov	eax, DWORD PTR _L$[ebp]
	push	eax
	call	?pRegisterEnum@CvLuaEnums@@KAXPAUlua_State@@PBDH@Z ; CvLuaEnums::pRegisterEnum
	add	esp, 12					; 0000000cH

; 328  : 	RegisterEnum(INTERFACEMODE_PURCHASE_PLOT);

	push	20					; 00000014H
	push	OFFSET ??_C@_0BM@EFBJOHGM@INTERFACEMODE_PURCHASE_PLOT?$AA@
	mov	ecx, DWORD PTR _L$[ebp]
	push	ecx
	call	?pRegisterEnum@CvLuaEnums@@KAXPAUlua_State@@PBDH@Z ; CvLuaEnums::pRegisterEnum
	add	esp, 12					; 0000000cH

; 329  : 	RegisterEnum(INTERFACEMODE_CITY_RANGE_ATTACK);

	push	21					; 00000015H
	push	OFFSET ??_C@_0CA@EAIELJFO@INTERFACEMODE_CITY_RANGE_ATTACK?$AA@
	mov	edx, DWORD PTR _L$[ebp]
	push	edx
	call	?pRegisterEnum@CvLuaEnums@@KAXPAUlua_State@@PBDH@Z ; CvLuaEnums::pRegisterEnum
	add	esp, 12					; 0000000cH

; 330  : 	RegisterEnum(INTERFACEMODE_GIFT_TILE_IMPROVEMENT);

	push	22					; 00000016H
	push	OFFSET ??_C@_0CE@LLKJCNKN@INTERFACEMODE_GIFT_TILE_IMPROVEM@
	mov	eax, DWORD PTR _L$[ebp]
	push	eax
	call	?pRegisterEnum@CvLuaEnums@@KAXPAUlua_State@@PBDH@Z ; CvLuaEnums::pRegisterEnum
	add	esp, 12					; 0000000cH

; 331  : 	RegisterEnum(INTERFACEMODE_ESTABLISH_TRADE_ROUTE);

	push	23					; 00000017H
	push	OFFSET ??_C@_0CE@FJIHJLAJ@INTERFACEMODE_ESTABLISH_TRADE_RO@
	mov	ecx, DWORD PTR _L$[ebp]
	push	ecx
	call	?pRegisterEnum@CvLuaEnums@@KAXPAUlua_State@@PBDH@Z ; CvLuaEnums::pRegisterEnum
	add	esp, 12					; 0000000cH

; 332  : 	RegisterEnum(NUM_INTERFACEMODE_TYPES);

	push	24					; 00000018H
	push	OFFSET ??_C@_0BI@HGGCFNAH@NUM_INTERFACEMODE_TYPES?$AA@
	mov	edx, DWORD PTR _L$[ebp]
	push	edx
	call	?pRegisterEnum@CvLuaEnums@@KAXPAUlua_State@@PBDH@Z ; CvLuaEnums::pRegisterEnum
	add	esp, 12					; 0000000cH

; 333  : 	EnumEnd(L);

	mov	eax, DWORD PTR _L$[ebp]
	push	eax
	call	?EnumEnd@CvLuaEnums@@KAXPAUlua_State@@@Z ; CvLuaEnums::EnumEnd
	add	esp, 4

; 334  : 
; 335  : 	EnumStart(L, "NotificationTypes");

	push	OFFSET ??_C@_0BC@BNBLKEDE@NotificationTypes?$AA@
	mov	ecx, DWORD PTR _L$[ebp]
	push	ecx
	call	?EnumStart@CvLuaEnums@@KAXPAUlua_State@@PBD@Z ; CvLuaEnums::EnumStart
	add	esp, 8

; 336  : 	CvNotificationXMLEntries* pkNotifications = GC.GetNotificationEntries();

	mov	ecx, OFFSET ?gGlobals@@3VCvGlobals@@A	; gGlobals
	call	?GetNotificationEntries@CvGlobals@@QAEPAVCvNotificationXMLEntries@@XZ ; CvGlobals::GetNotificationEntries
	mov	DWORD PTR _pkNotifications$[ebp], eax

; 337  : 	if (pkNotifications)

	cmp	DWORD PTR _pkNotifications$[ebp], 0
	je	$LN5@pRegister

; 338  : 	{
; 339  : #ifdef AUI_WARNING_FIXES
; 340  : 		for (uint i = 0; i < pkNotifications->GetNumNotifications(); ++i)
; 341  : #else
; 342  : 		for (int i = 0; i < pkNotifications->GetNumNotifications(); ++i)

	mov	DWORD PTR _i$220471[ebp], 0
	jmp	SHORT $LN4@pRegister
$LN3@pRegister:
	mov	edx, DWORD PTR _i$220471[ebp]
	add	edx, 1
	mov	DWORD PTR _i$220471[ebp], edx
$LN4@pRegister:
	mov	ecx, DWORD PTR _pkNotifications$[ebp]
	call	?GetNumNotifications@CvNotificationXMLEntries@@QAEHXZ ; CvNotificationXMLEntries::GetNumNotifications
	cmp	DWORD PTR _i$220471[ebp], eax
	jge	$LN5@pRegister

; 343  : #endif
; 344  : 		{
; 345  : 			CvNotificationEntry* pkEntry = pkNotifications->GetEntry(i);		

	mov	eax, DWORD PTR _i$220471[ebp]
	push	eax
	mov	ecx, DWORD PTR _pkNotifications$[ebp]
	call	?GetEntry@CvNotificationXMLEntries@@QAEPAVCvNotificationEntry@@H@Z ; CvNotificationXMLEntries::GetEntry
	mov	DWORD PTR _pkEntry$220475[ebp], eax

; 346  : 			if (pkEntry)

	cmp	DWORD PTR _pkEntry$220475[ebp], 0
	je	SHORT $LN1@pRegister

; 347  : 				pRegisterEnum(L, pkEntry->GetTypeName(), FString::Hash(pkEntry->GetTypeName()));

	mov	ecx, DWORD PTR _pkEntry$220475[ebp]
	call	?GetTypeName@CvNotificationEntry@@QAEPBDXZ ; CvNotificationEntry::GetTypeName
	mov	DWORD PTR $T221895[ebp], eax
	cmp	DWORD PTR $T221895[ebp], 0
	je	SHORT $LN12@pRegister
	mov	ecx, DWORD PTR $T221895[ebp]
	mov	DWORD PTR tv3612[ebp], ecx
	mov	edx, DWORD PTR tv3612[ebp]
	add	edx, 1
	mov	DWORD PTR tv3615[ebp], edx
$LL14@pRegister:
	mov	eax, DWORD PTR tv3612[ebp]
	mov	cl, BYTE PTR [eax]
	mov	BYTE PTR tv3618[ebp], cl
	add	DWORD PTR tv3612[ebp], 1
	cmp	BYTE PTR tv3618[ebp], 0
	jne	SHORT $LL14@pRegister
	mov	edx, DWORD PTR tv3612[ebp]
	sub	edx, DWORD PTR tv3615[ebp]
	mov	DWORD PTR tv3329[ebp], edx
	mov	eax, DWORD PTR tv3329[ebp]
	mov	DWORD PTR tv3331[ebp], eax
	jmp	SHORT $LN10@pRegister
$LN12@pRegister:
	mov	DWORD PTR tv3331[ebp], 0
$LN10@pRegister:
	push	-1
	mov	ecx, DWORD PTR tv3331[ebp]
	push	ecx
	mov	edx, DWORD PTR $T221895[ebp]
	push	edx
	mov	ecx, OFFSET ?g_CRC32@@3VFCRC@@A		; g_CRC32
	call	?Calc@FCRC@@QBEKPBXHK@Z			; FCRC::Calc
	mov	DWORD PTR $T221896[ebp], eax
	mov	eax, DWORD PTR $T221896[ebp]
	push	eax
	mov	ecx, DWORD PTR _pkEntry$220475[ebp]
	call	?GetTypeName@CvNotificationEntry@@QAEPBDXZ ; CvNotificationEntry::GetTypeName
	push	eax
	mov	ecx, DWORD PTR _L$[ebp]
	push	ecx
	call	?pRegisterEnum@CvLuaEnums@@KAXPAUlua_State@@PBDH@Z ; CvLuaEnums::pRegisterEnum
	add	esp, 12					; 0000000cH
$LN1@pRegister:

; 348  : 		}

	jmp	$LN3@pRegister
$LN5@pRegister:

; 349  : 	}
; 350  : 	EnumEnd(L);

	mov	edx, DWORD PTR _L$[ebp]
	push	edx
	call	?EnumEnd@CvLuaEnums@@KAXPAUlua_State@@@Z ; CvLuaEnums::EnumEnd
	add	esp, 4

; 351  : 
; 352  : 	// ActivityTypes
; 353  : 	EnumStart(L, "ActivityTypes");

	push	OFFSET ??_C@_0O@FFIPLHJG@ActivityTypes?$AA@
	mov	eax, DWORD PTR _L$[ebp]
	push	eax
	call	?EnumStart@CvLuaEnums@@KAXPAUlua_State@@PBD@Z ; CvLuaEnums::EnumStart
	add	esp, 8

; 354  : 	RegisterEnum(NO_ACTIVITY);

	push	-1
	push	OFFSET ??_C@_0M@JAGCGEHF@NO_ACTIVITY?$AA@
	mov	ecx, DWORD PTR _L$[ebp]
	push	ecx
	call	?pRegisterEnum@CvLuaEnums@@KAXPAUlua_State@@PBDH@Z ; CvLuaEnums::pRegisterEnum
	add	esp, 12					; 0000000cH

; 355  : 	RegisterEnum(ACTIVITY_AWAKE);

	push	0
	push	OFFSET ??_C@_0P@NMLNCIMO@ACTIVITY_AWAKE?$AA@
	mov	edx, DWORD PTR _L$[ebp]
	push	edx
	call	?pRegisterEnum@CvLuaEnums@@KAXPAUlua_State@@PBDH@Z ; CvLuaEnums::pRegisterEnum
	add	esp, 12					; 0000000cH

; 356  : 	RegisterEnum(ACTIVITY_HOLD);

	push	1
	push	OFFSET ??_C@_0O@HKGOCGKM@ACTIVITY_HOLD?$AA@
	mov	eax, DWORD PTR _L$[ebp]
	push	eax
	call	?pRegisterEnum@CvLuaEnums@@KAXPAUlua_State@@PBDH@Z ; CvLuaEnums::pRegisterEnum
	add	esp, 12					; 0000000cH

; 357  : 	RegisterEnum(ACTIVITY_SLEEP);

	push	2
	push	OFFSET ??_C@_0P@DHNKHBIE@ACTIVITY_SLEEP?$AA@
	mov	ecx, DWORD PTR _L$[ebp]
	push	ecx
	call	?pRegisterEnum@CvLuaEnums@@KAXPAUlua_State@@PBDH@Z ; CvLuaEnums::pRegisterEnum
	add	esp, 12					; 0000000cH

; 358  : 	RegisterEnum(ACTIVITY_HEAL);

	push	3
	push	OFFSET ??_C@_0O@NFNCNPJD@ACTIVITY_HEAL?$AA@
	mov	edx, DWORD PTR _L$[ebp]
	push	edx
	call	?pRegisterEnum@CvLuaEnums@@KAXPAUlua_State@@PBDH@Z ; CvLuaEnums::pRegisterEnum
	add	esp, 12					; 0000000cH

; 359  : 	RegisterEnum(ACTIVITY_SENTRY);

	push	4
	push	OFFSET ??_C@_0BA@DKGFPPBI@ACTIVITY_SENTRY?$AA@
	mov	eax, DWORD PTR _L$[ebp]
	push	eax
	call	?pRegisterEnum@CvLuaEnums@@KAXPAUlua_State@@PBDH@Z ; CvLuaEnums::pRegisterEnum
	add	esp, 12					; 0000000cH

; 360  : 	RegisterEnum(ACTIVITY_INTERCEPT);

	push	5
	push	OFFSET ??_C@_0BD@BGDDDOPO@ACTIVITY_INTERCEPT?$AA@
	mov	ecx, DWORD PTR _L$[ebp]
	push	ecx
	call	?pRegisterEnum@CvLuaEnums@@KAXPAUlua_State@@PBDH@Z ; CvLuaEnums::pRegisterEnum
	add	esp, 12					; 0000000cH

; 361  : 	RegisterEnum(ACTIVITY_MISSION);

	push	6
	push	OFFSET ??_C@_0BB@EBOGBEEG@ACTIVITY_MISSION?$AA@
	mov	edx, DWORD PTR _L$[ebp]
	push	edx
	call	?pRegisterEnum@CvLuaEnums@@KAXPAUlua_State@@PBDH@Z ; CvLuaEnums::pRegisterEnum
	add	esp, 12					; 0000000cH

; 362  : 	EnumEnd(L);

	mov	eax, DWORD PTR _L$[ebp]
	push	eax
	call	?EnumEnd@CvLuaEnums@@KAXPAUlua_State@@@Z ; CvLuaEnums::EnumEnd
	add	esp, 4

; 363  : 
; 364  : 	// MissionTypes
; 365  : 	EnumStart(L, "MissionTypes");

	push	OFFSET ??_C@_0N@KFABONDF@MissionTypes?$AA@
	mov	ecx, DWORD PTR _L$[ebp]
	push	ecx
	call	?EnumStart@CvLuaEnums@@KAXPAUlua_State@@PBD@Z ; CvLuaEnums::EnumStart
	add	esp, 8

; 366  : 	RegisterEnum(NO_MISSION);

	push	-1
	push	OFFSET ??_C@_0L@LHJODJGF@NO_MISSION?$AA@
	mov	edx, DWORD PTR _L$[ebp]
	push	edx
	call	?pRegisterEnum@CvLuaEnums@@KAXPAUlua_State@@PBDH@Z ; CvLuaEnums::pRegisterEnum
	add	esp, 12					; 0000000cH

; 367  : 	RegisterDynamicEnums(L, "Missions", "ID", "Type", "NUM_MISSION_TYPES");

	push	OFFSET ??_C@_0BC@BKOCPOBK@NUM_MISSION_TYPES?$AA@
	push	OFFSET ??_C@_04KOACHJEN@Type?$AA@
	push	OFFSET ??_C@_02OLOABKKD@ID?$AA@
	push	OFFSET ??_C@_08BIIFDPDO@Missions?$AA@
	mov	eax, DWORD PTR _L$[ebp]
	push	eax
	call	?RegisterDynamicEnums@CvLuaEnums@@KAXPAUlua_State@@PBD111@Z ; CvLuaEnums::RegisterDynamicEnums
	add	esp, 20					; 00000014H

; 368  : 	EnumEnd(L);

	mov	ecx, DWORD PTR _L$[ebp]
	push	ecx
	call	?EnumEnd@CvLuaEnums@@KAXPAUlua_State@@@Z ; CvLuaEnums::EnumEnd
	add	esp, 4

; 369  : 
; 370  : 
; 371  : 	// ActionSubTypes
; 372  : 	EnumStart(L, "ActionSubTypes");

	push	OFFSET ??_C@_0P@JJIOBEHP@ActionSubTypes?$AA@
	mov	edx, DWORD PTR _L$[ebp]
	push	edx
	call	?EnumStart@CvLuaEnums@@KAXPAUlua_State@@PBD@Z ; CvLuaEnums::EnumStart
	add	esp, 8

; 373  : 	RegisterEnum(ACTIONSUBTYPE_INTERFACEMODE);

	push	0
	push	OFFSET ??_C@_0BM@KHALJKLI@ACTIONSUBTYPE_INTERFACEMODE?$AA@
	mov	eax, DWORD PTR _L$[ebp]
	push	eax
	call	?pRegisterEnum@CvLuaEnums@@KAXPAUlua_State@@PBDH@Z ; CvLuaEnums::pRegisterEnum
	add	esp, 12					; 0000000cH

; 374  : 	RegisterEnum(ACTIONSUBTYPE_COMMAND);

	push	1
	push	OFFSET ??_C@_0BG@KPHFPJNG@ACTIONSUBTYPE_COMMAND?$AA@
	mov	ecx, DWORD PTR _L$[ebp]
	push	ecx
	call	?pRegisterEnum@CvLuaEnums@@KAXPAUlua_State@@PBDH@Z ; CvLuaEnums::pRegisterEnum
	add	esp, 12					; 0000000cH

; 375  : 	RegisterEnum(ACTIONSUBTYPE_BUILD);

	push	2
	push	OFFSET ??_C@_0BE@LCICLDM@ACTIONSUBTYPE_BUILD?$AA@
	mov	edx, DWORD PTR _L$[ebp]
	push	edx
	call	?pRegisterEnum@CvLuaEnums@@KAXPAUlua_State@@PBDH@Z ; CvLuaEnums::pRegisterEnum
	add	esp, 12					; 0000000cH

; 376  : 	RegisterEnum(ACTIONSUBTYPE_PROMOTION);

	push	3
	push	OFFSET ??_C@_0BI@DHDMIBBM@ACTIONSUBTYPE_PROMOTION?$AA@
	mov	eax, DWORD PTR _L$[ebp]
	push	eax
	call	?pRegisterEnum@CvLuaEnums@@KAXPAUlua_State@@PBDH@Z ; CvLuaEnums::pRegisterEnum
	add	esp, 12					; 0000000cH

; 377  : 	RegisterEnum(ACTIONSUBTYPE_SPECIALIST);

	push	4
	push	OFFSET ??_C@_0BJ@BOOMJAJD@ACTIONSUBTYPE_SPECIALIST?$AA@
	mov	ecx, DWORD PTR _L$[ebp]
	push	ecx
	call	?pRegisterEnum@CvLuaEnums@@KAXPAUlua_State@@PBDH@Z ; CvLuaEnums::pRegisterEnum
	add	esp, 12					; 0000000cH

; 378  : 	RegisterEnum(ACTIONSUBTYPE_CONTROL);

	push	5
	push	OFFSET ??_C@_0BG@MPKGGGMF@ACTIONSUBTYPE_CONTROL?$AA@
	mov	edx, DWORD PTR _L$[ebp]
	push	edx
	call	?pRegisterEnum@CvLuaEnums@@KAXPAUlua_State@@PBDH@Z ; CvLuaEnums::pRegisterEnum
	add	esp, 12					; 0000000cH

; 379  : 	RegisterEnum(ACTIONSUBTYPE_AUTOMATE);

	push	6
	push	OFFSET ??_C@_0BH@BPKHJKAM@ACTIONSUBTYPE_AUTOMATE?$AA@
	mov	eax, DWORD PTR _L$[ebp]
	push	eax
	call	?pRegisterEnum@CvLuaEnums@@KAXPAUlua_State@@PBDH@Z ; CvLuaEnums::pRegisterEnum
	add	esp, 12					; 0000000cH

; 380  : 	RegisterEnum(ACTIONSUBTYPE_MISSION);

	push	7
	push	OFFSET ??_C@_0BG@BLKDOIE@ACTIONSUBTYPE_MISSION?$AA@
	mov	ecx, DWORD PTR _L$[ebp]
	push	ecx
	call	?pRegisterEnum@CvLuaEnums@@KAXPAUlua_State@@PBDH@Z ; CvLuaEnums::pRegisterEnum
	add	esp, 12					; 0000000cH

; 381  : 	RegisterEnum(NUM_ACTIONSUBTYPES);

	push	8
	push	OFFSET ??_C@_0BD@GBKENNAO@NUM_ACTIONSUBTYPES?$AA@
	mov	edx, DWORD PTR _L$[ebp]
	push	edx
	call	?pRegisterEnum@CvLuaEnums@@KAXPAUlua_State@@PBDH@Z ; CvLuaEnums::pRegisterEnum
	add	esp, 12					; 0000000cH

; 382  : 	EnumEnd(L);

	mov	eax, DWORD PTR _L$[ebp]
	push	eax
	call	?EnumEnd@CvLuaEnums@@KAXPAUlua_State@@@Z ; CvLuaEnums::EnumEnd
	add	esp, 4

; 383  : 
; 384  : 
; 385  : 	// GameMessageTypes
; 386  : 	EnumStart(L, "GameMessageTypes");

	push	OFFSET ??_C@_0BB@FABJCJNO@GameMessageTypes?$AA@
	mov	ecx, DWORD PTR _L$[ebp]
	push	ecx
	call	?EnumStart@CvLuaEnums@@KAXPAUlua_State@@PBD@Z ; CvLuaEnums::EnumStart
	add	esp, 8

; 387  : 	RegisterEnum(GAMEMESSAGE_NETWORK_READY);

	push	0
	push	OFFSET ??_C@_0BK@IIFLBMFO@GAMEMESSAGE_NETWORK_READY?$AA@
	mov	edx, DWORD PTR _L$[ebp]
	push	edx
	call	?pRegisterEnum@CvLuaEnums@@KAXPAUlua_State@@PBDH@Z ; CvLuaEnums::pRegisterEnum
	add	esp, 12					; 0000000cH

; 388  : 	RegisterEnum(GAMEMESSAGE_VERIFY_VERSION);

	push	1
	push	OFFSET ??_C@_0BL@NADGJCJ@GAMEMESSAGE_VERIFY_VERSION?$AA@
	mov	eax, DWORD PTR _L$[ebp]
	push	eax
	call	?pRegisterEnum@CvLuaEnums@@KAXPAUlua_State@@PBDH@Z ; CvLuaEnums::pRegisterEnum
	add	esp, 12					; 0000000cH

; 389  : 	RegisterEnum(GAMEMESSAGE_VERSION_NACK);

	push	2
	push	OFFSET ??_C@_0BJ@CGFJBJKE@GAMEMESSAGE_VERSION_NACK?$AA@
	mov	ecx, DWORD PTR _L$[ebp]
	push	ecx
	call	?pRegisterEnum@CvLuaEnums@@KAXPAUlua_State@@PBDH@Z ; CvLuaEnums::pRegisterEnum
	add	esp, 12					; 0000000cH

; 390  : 	RegisterEnum(GAMEMESSAGE_VERSION_WARNING);

	push	3
	push	OFFSET ??_C@_0BM@BHHIKPCD@GAMEMESSAGE_VERSION_WARNING?$AA@
	mov	edx, DWORD PTR _L$[ebp]
	push	edx
	call	?pRegisterEnum@CvLuaEnums@@KAXPAUlua_State@@PBDH@Z ; CvLuaEnums::pRegisterEnum
	add	esp, 12					; 0000000cH

; 391  : 	RegisterEnum(GAMEMESSAGE_GAME_TYPE);

	push	4
	push	OFFSET ??_C@_0BG@NEPMHGAI@GAMEMESSAGE_GAME_TYPE?$AA@
	mov	eax, DWORD PTR _L$[ebp]
	push	eax
	call	?pRegisterEnum@CvLuaEnums@@KAXPAUlua_State@@PBDH@Z ; CvLuaEnums::pRegisterEnum
	add	esp, 12					; 0000000cH

; 392  : 	RegisterEnum(GAMEMESSAGE_ID_ASSIGNMENT);

	push	5
	push	OFFSET ??_C@_0BK@EIBDIAIB@GAMEMESSAGE_ID_ASSIGNMENT?$AA@
	mov	ecx, DWORD PTR _L$[ebp]
	push	ecx
	call	?pRegisterEnum@CvLuaEnums@@KAXPAUlua_State@@PBDH@Z ; CvLuaEnums::pRegisterEnum
	add	esp, 12					; 0000000cH

; 393  : 	RegisterEnum(GAMEMESSAGE_FILE_INFO);

	push	6
	push	OFFSET ??_C@_0BG@PLLGLEON@GAMEMESSAGE_FILE_INFO?$AA@
	mov	edx, DWORD PTR _L$[ebp]
	push	edx
	call	?pRegisterEnum@CvLuaEnums@@KAXPAUlua_State@@PBDH@Z ; CvLuaEnums::pRegisterEnum
	add	esp, 12					; 0000000cH

; 394  : 	RegisterEnum(GAMEMESSAGE_PICK_YOUR_CIV);

	push	7
	push	OFFSET ??_C@_0BK@OJHMBIID@GAMEMESSAGE_PICK_YOUR_CIV?$AA@
	mov	eax, DWORD PTR _L$[ebp]
	push	eax
	call	?pRegisterEnum@CvLuaEnums@@KAXPAUlua_State@@PBDH@Z ; CvLuaEnums::pRegisterEnum
	add	esp, 12					; 0000000cH

; 395  : 	RegisterEnum(GAMEMESSAGE_CIV_CHOICE);

	push	8
	push	OFFSET ??_C@_0BH@PBLHDPOC@GAMEMESSAGE_CIV_CHOICE?$AA@
	mov	ecx, DWORD PTR _L$[ebp]
	push	ecx
	call	?pRegisterEnum@CvLuaEnums@@KAXPAUlua_State@@PBDH@Z ; CvLuaEnums::pRegisterEnum
	add	esp, 12					; 0000000cH

; 396  : 	RegisterEnum(GAMEMESSAGE_CONFIRM_CIV_CLAIM);

	push	9
	push	OFFSET ??_C@_0BO@KGDCFGNH@GAMEMESSAGE_CONFIRM_CIV_CLAIM?$AA@
	mov	edx, DWORD PTR _L$[ebp]
	push	edx
	call	?pRegisterEnum@CvLuaEnums@@KAXPAUlua_State@@PBDH@Z ; CvLuaEnums::pRegisterEnum
	add	esp, 12					; 0000000cH

; 397  : 	RegisterEnum(GAMEMESSAGE_CLAIM_INFO);

	push	10					; 0000000aH
	push	OFFSET ??_C@_0BH@MFLEENLE@GAMEMESSAGE_CLAIM_INFO?$AA@
	mov	eax, DWORD PTR _L$[ebp]
	push	eax
	call	?pRegisterEnum@CvLuaEnums@@KAXPAUlua_State@@PBDH@Z ; CvLuaEnums::pRegisterEnum
	add	esp, 12					; 0000000cH

; 398  : 	RegisterEnum(GAMEMESSAGE_CIV_CHOICE_ACK);

	push	11					; 0000000bH
	push	OFFSET ??_C@_0BL@MKMFBDPO@GAMEMESSAGE_CIV_CHOICE_ACK?$AA@
	mov	ecx, DWORD PTR _L$[ebp]
	push	ecx
	call	?pRegisterEnum@CvLuaEnums@@KAXPAUlua_State@@PBDH@Z ; CvLuaEnums::pRegisterEnum
	add	esp, 12					; 0000000cH

; 399  : 	RegisterEnum(GAMEMESSAGE_CIV_CHOICE_NACK);

	push	12					; 0000000cH
	push	OFFSET ??_C@_0BM@GPAIICCE@GAMEMESSAGE_CIV_CHOICE_NACK?$AA@
	mov	edx, DWORD PTR _L$[ebp]
	push	edx
	call	?pRegisterEnum@CvLuaEnums@@KAXPAUlua_State@@PBDH@Z ; CvLuaEnums::pRegisterEnum
	add	esp, 12					; 0000000cH

; 400  : 	RegisterEnum(GAMEMESSAGE_CIV_CHOSEN);

	push	13					; 0000000dH
	push	OFFSET ??_C@_0BH@CJGKCNGA@GAMEMESSAGE_CIV_CHOSEN?$AA@
	mov	eax, DWORD PTR _L$[ebp]
	push	eax
	call	?pRegisterEnum@CvLuaEnums@@KAXPAUlua_State@@PBDH@Z ; CvLuaEnums::pRegisterEnum
	add	esp, 12					; 0000000cH

; 401  : 	RegisterEnum(GAMEMESSAGE_INTERIM_NOTICE);

	push	14					; 0000000eH
	push	OFFSET ??_C@_0BL@LGEHGCDH@GAMEMESSAGE_INTERIM_NOTICE?$AA@
	mov	ecx, DWORD PTR _L$[ebp]
	push	ecx
	call	?pRegisterEnum@CvLuaEnums@@KAXPAUlua_State@@PBDH@Z ; CvLuaEnums::pRegisterEnum
	add	esp, 12					; 0000000cH

; 402  : 	RegisterEnum(GAMEMESSAGE_INIT_INFO);

	push	15					; 0000000fH
	push	OFFSET ??_C@_0BG@OHJFBLLH@GAMEMESSAGE_INIT_INFO?$AA@
	mov	edx, DWORD PTR _L$[ebp]
	push	edx
	call	?pRegisterEnum@CvLuaEnums@@KAXPAUlua_State@@PBDH@Z ; CvLuaEnums::pRegisterEnum
	add	esp, 12					; 0000000cH

; 403  : 	RegisterEnum(GAMEMESSAGE_MAPSCRIPT_CHECK);

	push	16					; 00000010H
	push	OFFSET ??_C@_0BM@GCLJAJMC@GAMEMESSAGE_MAPSCRIPT_CHECK?$AA@
	mov	eax, DWORD PTR _L$[ebp]
	push	eax
	call	?pRegisterEnum@CvLuaEnums@@KAXPAUlua_State@@PBDH@Z ; CvLuaEnums::pRegisterEnum
	add	esp, 12					; 0000000cH

; 404  : 	RegisterEnum(GAMEMESSAGE_MAPSCRIPT_ACK);

	push	17					; 00000011H
	push	OFFSET ??_C@_0BK@KILPIGJM@GAMEMESSAGE_MAPSCRIPT_ACK?$AA@
	mov	ecx, DWORD PTR _L$[ebp]
	push	ecx
	call	?pRegisterEnum@CvLuaEnums@@KAXPAUlua_State@@PBDH@Z ; CvLuaEnums::pRegisterEnum
	add	esp, 12					; 0000000cH

; 405  : 	RegisterEnum(GAMEMESSAGE_LOAD_GAME);

	push	18					; 00000012H
	push	OFFSET ??_C@_0BG@LDBFOKJH@GAMEMESSAGE_LOAD_GAME?$AA@
	mov	edx, DWORD PTR _L$[ebp]
	push	edx
	call	?pRegisterEnum@CvLuaEnums@@KAXPAUlua_State@@PBDH@Z ; CvLuaEnums::pRegisterEnum
	add	esp, 12					; 0000000cH

; 406  : 	RegisterEnum(GAMEMESSAGE_PLAYER_ID);

	push	19					; 00000013H
	push	OFFSET ??_C@_0BG@BFJKMKAE@GAMEMESSAGE_PLAYER_ID?$AA@
	mov	eax, DWORD PTR _L$[ebp]
	push	eax
	call	?pRegisterEnum@CvLuaEnums@@KAXPAUlua_State@@PBDH@Z ; CvLuaEnums::pRegisterEnum
	add	esp, 12					; 0000000cH

; 407  : 	RegisterEnum(GAMEMESSAGE_SLOT_REASSIGNMENT);

	push	20					; 00000014H
	push	OFFSET ??_C@_0BO@ICECKKGA@GAMEMESSAGE_SLOT_REASSIGNMENT?$AA@
	mov	ecx, DWORD PTR _L$[ebp]
	push	ecx
	call	?pRegisterEnum@CvLuaEnums@@KAXPAUlua_State@@PBDH@Z ; CvLuaEnums::pRegisterEnum
	add	esp, 12					; 0000000cH

; 408  : 	RegisterEnum(GAMEMESSAGE_PLAYER_INFO);

	push	21					; 00000015H
	push	OFFSET ??_C@_0BI@HDJGLJOM@GAMEMESSAGE_PLAYER_INFO?$AA@
	mov	edx, DWORD PTR _L$[ebp]
	push	edx
	call	?pRegisterEnum@CvLuaEnums@@KAXPAUlua_State@@PBDH@Z ; CvLuaEnums::pRegisterEnum
	add	esp, 12					; 0000000cH

; 409  : 	RegisterEnum(GAMEMESSAGE_GAME_INFO);

	push	22					; 00000016H
	push	OFFSET ??_C@_0BG@GDAGHNFF@GAMEMESSAGE_GAME_INFO?$AA@
	mov	eax, DWORD PTR _L$[ebp]
	push	eax
	call	?pRegisterEnum@CvLuaEnums@@KAXPAUlua_State@@PBDH@Z ; CvLuaEnums::pRegisterEnum
	add	esp, 12					; 0000000cH

; 410  : 	RegisterEnum(GAMEMESSAGE_REASSIGN_PLAYER);

	push	23					; 00000017H
	push	OFFSET ??_C@_0BM@FCJHGOKK@GAMEMESSAGE_REASSIGN_PLAYER?$AA@
	mov	ecx, DWORD PTR _L$[ebp]
	push	ecx
	call	?pRegisterEnum@CvLuaEnums@@KAXPAUlua_State@@PBDH@Z ; CvLuaEnums::pRegisterEnum
	add	esp, 12					; 0000000cH

; 411  : 	RegisterEnum(GAMEMESSAGE_PITBOSS_INFO);

	push	24					; 00000018H
	push	OFFSET ??_C@_0BJ@HFIMMACE@GAMEMESSAGE_PITBOSS_INFO?$AA@
	mov	edx, DWORD PTR _L$[ebp]
	push	edx
	call	?pRegisterEnum@CvLuaEnums@@KAXPAUlua_State@@PBDH@Z ; CvLuaEnums::pRegisterEnum
	add	esp, 12					; 0000000cH

; 412  : 	RegisterEnum(GAMEMESSAGE_LAUNCHING_INFO);

	push	25					; 00000019H
	push	OFFSET ??_C@_0BL@HNNKADOO@GAMEMESSAGE_LAUNCHING_INFO?$AA@
	mov	eax, DWORD PTR _L$[ebp]
	push	eax
	call	?pRegisterEnum@CvLuaEnums@@KAXPAUlua_State@@PBDH@Z ; CvLuaEnums::pRegisterEnum
	add	esp, 12					; 0000000cH

; 413  : 	RegisterEnum(GAMEMESSAGE_INIT_GAME);

	push	26					; 0000001aH
	push	OFFSET ??_C@_0BG@PGHMLCOL@GAMEMESSAGE_INIT_GAME?$AA@
	mov	ecx, DWORD PTR _L$[ebp]
	push	ecx
	call	?pRegisterEnum@CvLuaEnums@@KAXPAUlua_State@@PBDH@Z ; CvLuaEnums::pRegisterEnum
	add	esp, 12					; 0000000cH

; 414  : 	RegisterEnum(GAMEMESSAGE_INIT_PLAYERS);

	push	27					; 0000001bH
	push	OFFSET ??_C@_0BJ@LNOIHBNG@GAMEMESSAGE_INIT_PLAYERS?$AA@
	mov	edx, DWORD PTR _L$[ebp]
	push	edx
	call	?pRegisterEnum@CvLuaEnums@@KAXPAUlua_State@@PBDH@Z ; CvLuaEnums::pRegisterEnum
	add	esp, 12					; 0000000cH

; 415  : 	RegisterEnum(GAMEMESSAGE_AUTH_REQUEST);

	push	28					; 0000001cH
	push	OFFSET ??_C@_0BJ@JNIJFCCH@GAMEMESSAGE_AUTH_REQUEST?$AA@
	mov	eax, DWORD PTR _L$[ebp]
	push	eax
	call	?pRegisterEnum@CvLuaEnums@@KAXPAUlua_State@@PBDH@Z ; CvLuaEnums::pRegisterEnum
	add	esp, 12					; 0000000cH

; 416  : 	RegisterEnum(GAMEMESSAGE_AUTH_RESPONSE);

	push	29					; 0000001dH
	push	OFFSET ??_C@_0BK@CEHIGIF@GAMEMESSAGE_AUTH_RESPONSE?$AA@
	mov	ecx, DWORD PTR _L$[ebp]
	push	ecx
	call	?pRegisterEnum@CvLuaEnums@@KAXPAUlua_State@@PBDH@Z ; CvLuaEnums::pRegisterEnum
	add	esp, 12					; 0000000cH

; 417  : 	RegisterEnum(GAMEMESSAGE_SYNCH_START);

	push	30					; 0000001eH
	push	OFFSET ??_C@_0BI@OMFGKHMO@GAMEMESSAGE_SYNCH_START?$AA@
	mov	edx, DWORD PTR _L$[ebp]
	push	edx
	call	?pRegisterEnum@CvLuaEnums@@KAXPAUlua_State@@PBDH@Z ; CvLuaEnums::pRegisterEnum
	add	esp, 12					; 0000000cH

; 418  : 	RegisterEnum(GAMEMESSAGE_PLAYER_OPTION);

	push	31					; 0000001fH
	push	OFFSET ??_C@_0BK@DAANKBMH@GAMEMESSAGE_PLAYER_OPTION?$AA@
	mov	eax, DWORD PTR _L$[ebp]
	push	eax
	call	?pRegisterEnum@CvLuaEnums@@KAXPAUlua_State@@PBDH@Z ; CvLuaEnums::pRegisterEnum
	add	esp, 12					; 0000000cH

; 419  : 	RegisterEnum(GAMEMESSAGE_EXTENDED_GAME);

	push	32					; 00000020H
	push	OFFSET ??_C@_0BK@KNGBDALC@GAMEMESSAGE_EXTENDED_GAME?$AA@
	mov	ecx, DWORD PTR _L$[ebp]
	push	ecx
	call	?pRegisterEnum@CvLuaEnums@@KAXPAUlua_State@@PBDH@Z ; CvLuaEnums::pRegisterEnum
	add	esp, 12					; 0000000cH

; 420  : 	RegisterEnum(GAMEMESSAGE_AUTO_MOVES);

	push	33					; 00000021H
	push	OFFSET ??_C@_0BH@CGNIBHEN@GAMEMESSAGE_AUTO_MOVES?$AA@
	mov	edx, DWORD PTR _L$[ebp]
	push	edx
	call	?pRegisterEnum@CvLuaEnums@@KAXPAUlua_State@@PBDH@Z ; CvLuaEnums::pRegisterEnum
	add	esp, 12					; 0000000cH

; 421  : 	RegisterEnum(GAMEMESSAGE_TURN_COMPLETE);

	push	34					; 00000022H
	push	OFFSET ??_C@_0BK@GPKKPNBK@GAMEMESSAGE_TURN_COMPLETE?$AA@
	mov	eax, DWORD PTR _L$[ebp]
	push	eax
	call	?pRegisterEnum@CvLuaEnums@@KAXPAUlua_State@@PBDH@Z ; CvLuaEnums::pRegisterEnum
	add	esp, 12					; 0000000cH

; 422  : 	RegisterEnum(GAMEMESSAGE_PUSH_MISSION);

	push	35					; 00000023H
	push	OFFSET ??_C@_0BJ@JCFHDKNE@GAMEMESSAGE_PUSH_MISSION?$AA@
	mov	ecx, DWORD PTR _L$[ebp]
	push	ecx
	call	?pRegisterEnum@CvLuaEnums@@KAXPAUlua_State@@PBDH@Z ; CvLuaEnums::pRegisterEnum
	add	esp, 12					; 0000000cH

; 423  : 	RegisterEnum(GAMEMESSAGE_AUTO_MISSION);

	push	36					; 00000024H
	push	OFFSET ??_C@_0BJ@DACBELHB@GAMEMESSAGE_AUTO_MISSION?$AA@
	mov	edx, DWORD PTR _L$[ebp]
	push	edx
	call	?pRegisterEnum@CvLuaEnums@@KAXPAUlua_State@@PBDH@Z ; CvLuaEnums::pRegisterEnum
	add	esp, 12					; 0000000cH

; 424  : 	RegisterEnum(GAMEMESSAGE_DO_COMMAND);

	push	37					; 00000025H
	push	OFFSET ??_C@_0BH@GLPPOKED@GAMEMESSAGE_DO_COMMAND?$AA@
	mov	eax, DWORD PTR _L$[ebp]
	push	eax
	call	?pRegisterEnum@CvLuaEnums@@KAXPAUlua_State@@PBDH@Z ; CvLuaEnums::pRegisterEnum
	add	esp, 12					; 0000000cH

; 425  : 	RegisterEnum(GAMEMESSAGE_PUSH_ORDER);

	push	38					; 00000026H
	push	OFFSET ??_C@_0BH@BBLHDEPL@GAMEMESSAGE_PUSH_ORDER?$AA@
	mov	ecx, DWORD PTR _L$[ebp]
	push	ecx
	call	?pRegisterEnum@CvLuaEnums@@KAXPAUlua_State@@PBDH@Z ; CvLuaEnums::pRegisterEnum
	add	esp, 12					; 0000000cH

; 426  : 	RegisterEnum(GAMEMESSAGE_POP_ORDER);

	push	39					; 00000027H
	push	OFFSET ??_C@_0BG@MMNHENAF@GAMEMESSAGE_POP_ORDER?$AA@
	mov	edx, DWORD PTR _L$[ebp]
	push	edx
	call	?pRegisterEnum@CvLuaEnums@@KAXPAUlua_State@@PBDH@Z ; CvLuaEnums::pRegisterEnum
	add	esp, 12					; 0000000cH

; 427  : 	RegisterEnum(GAMEMESSAGE_DO_TASK);

	push	41					; 00000029H
	push	OFFSET ??_C@_0BE@JPBNGKLJ@GAMEMESSAGE_DO_TASK?$AA@
	mov	eax, DWORD PTR _L$[ebp]
	push	eax
	call	?pRegisterEnum@CvLuaEnums@@KAXPAUlua_State@@PBDH@Z ; CvLuaEnums::pRegisterEnum
	add	esp, 12					; 0000000cH

; 428  : 	RegisterEnum(GAMEMESSAGE_RESEARCH);

	push	42					; 0000002aH
	push	OFFSET ??_C@_0BF@HNBNHJOL@GAMEMESSAGE_RESEARCH?$AA@
	mov	ecx, DWORD PTR _L$[ebp]
	push	ecx
	call	?pRegisterEnum@CvLuaEnums@@KAXPAUlua_State@@PBDH@Z ; CvLuaEnums::pRegisterEnum
	add	esp, 12					; 0000000cH

; 429  : 	RegisterEnum(GAMEMESSAGE_CONVERT);

	push	43					; 0000002bH
	push	OFFSET ??_C@_0BE@GEGIBCAA@GAMEMESSAGE_CONVERT?$AA@
	mov	edx, DWORD PTR _L$[ebp]
	push	edx
	call	?pRegisterEnum@CvLuaEnums@@KAXPAUlua_State@@PBDH@Z ; CvLuaEnums::pRegisterEnum
	add	esp, 12					; 0000000cH

; 430  : 	RegisterEnum(GAMEMESSAGE_CHAT);

	push	44					; 0000002cH
	push	OFFSET ??_C@_0BB@DGAFEGIA@GAMEMESSAGE_CHAT?$AA@
	mov	eax, DWORD PTR _L$[ebp]
	push	eax
	call	?pRegisterEnum@CvLuaEnums@@KAXPAUlua_State@@PBDH@Z ; CvLuaEnums::pRegisterEnum
	add	esp, 12					; 0000000cH

; 431  : 	RegisterEnum(GAMEMESSAGE_PING);

	push	45					; 0000002dH
	push	OFFSET ??_C@_0BB@MDEKMKBI@GAMEMESSAGE_PING?$AA@
	mov	ecx, DWORD PTR _L$[ebp]
	push	ecx
	call	?pRegisterEnum@CvLuaEnums@@KAXPAUlua_State@@PBDH@Z ; CvLuaEnums::pRegisterEnum
	add	esp, 12					; 0000000cH

; 432  : 	RegisterEnum(GAMEMESSAGE_SIGN);

	push	46					; 0000002eH
	push	OFFSET ??_C@_0BB@FKPJDAAO@GAMEMESSAGE_SIGN?$AA@
	mov	edx, DWORD PTR _L$[ebp]
	push	edx
	call	?pRegisterEnum@CvLuaEnums@@KAXPAUlua_State@@PBDH@Z ; CvLuaEnums::pRegisterEnum
	add	esp, 12					; 0000000cH

; 433  : 	RegisterEnum(GAMEMESSAGE_LINE_ENTITY);

	push	47					; 0000002fH
	push	OFFSET ??_C@_0BI@DBDJKIOF@GAMEMESSAGE_LINE_ENTITY?$AA@
	mov	eax, DWORD PTR _L$[ebp]
	push	eax
	call	?pRegisterEnum@CvLuaEnums@@KAXPAUlua_State@@PBDH@Z ; CvLuaEnums::pRegisterEnum
	add	esp, 12					; 0000000cH

; 434  : 	RegisterEnum(GAMEMESSAGE_SIGN_DELETE);

	push	48					; 00000030H
	push	OFFSET ??_C@_0BI@BHEKKKO@GAMEMESSAGE_SIGN_DELETE?$AA@
	mov	ecx, DWORD PTR _L$[ebp]
	push	ecx
	call	?pRegisterEnum@CvLuaEnums@@KAXPAUlua_State@@PBDH@Z ; CvLuaEnums::pRegisterEnum
	add	esp, 12					; 0000000cH

; 435  : 	RegisterEnum(GAMEMESSAGE_LINE_ENTITY_DELETE);

	push	49					; 00000031H
	push	OFFSET ??_C@_0BP@PENEFELE@GAMEMESSAGE_LINE_ENTITY_DELETE?$AA@
	mov	edx, DWORD PTR _L$[ebp]
	push	edx
	call	?pRegisterEnum@CvLuaEnums@@KAXPAUlua_State@@PBDH@Z ; CvLuaEnums::pRegisterEnum
	add	esp, 12					; 0000000cH

; 436  : 	RegisterEnum(GAMEMESSAGE_LINE_GROUP_DELETE);

	push	50					; 00000032H
	push	OFFSET ??_C@_0BO@NEHPODGA@GAMEMESSAGE_LINE_GROUP_DELETE?$AA@
	mov	eax, DWORD PTR _L$[ebp]
	push	eax
	call	?pRegisterEnum@CvLuaEnums@@KAXPAUlua_State@@PBDH@Z ; CvLuaEnums::pRegisterEnum
	add	esp, 12					; 0000000cH

; 437  : 	RegisterEnum(GAMEMESSAGE_PAUSE);

	push	51					; 00000033H
	push	OFFSET ??_C@_0BC@DCOGPJCP@GAMEMESSAGE_PAUSE?$AA@
	mov	ecx, DWORD PTR _L$[ebp]
	push	ecx
	call	?pRegisterEnum@CvLuaEnums@@KAXPAUlua_State@@PBDH@Z ; CvLuaEnums::pRegisterEnum
	add	esp, 12					; 0000000cH

; 438  : 	RegisterEnum(GAMEMESSAGE_MP_KICK);

	push	52					; 00000034H
	push	OFFSET ??_C@_0BE@CKOGBGHJ@GAMEMESSAGE_MP_KICK?$AA@
	mov	edx, DWORD PTR _L$[ebp]
	push	edx
	call	?pRegisterEnum@CvLuaEnums@@KAXPAUlua_State@@PBDH@Z ; CvLuaEnums::pRegisterEnum
	add	esp, 12					; 0000000cH

; 439  : 	RegisterEnum(GAMEMESSAGE_MP_RETIRE);

	push	53					; 00000035H
	push	OFFSET ??_C@_0BG@BFFCIGOJ@GAMEMESSAGE_MP_RETIRE?$AA@
	mov	eax, DWORD PTR _L$[ebp]
	push	eax
	call	?pRegisterEnum@CvLuaEnums@@KAXPAUlua_State@@PBDH@Z ; CvLuaEnums::pRegisterEnum
	add	esp, 12					; 0000000cH

; 440  : 	RegisterEnum(GAMEMESSAGE_CLOSE_CONNECTION);

	push	54					; 00000036H
	push	OFFSET ??_C@_0BN@PMOKAIPI@GAMEMESSAGE_CLOSE_CONNECTION?$AA@
	mov	ecx, DWORD PTR _L$[ebp]
	push	ecx
	call	?pRegisterEnum@CvLuaEnums@@KAXPAUlua_State@@PBDH@Z ; CvLuaEnums::pRegisterEnum
	add	esp, 12					; 0000000cH

; 441  : 	RegisterEnum(GAMEMESSAGE_NEVER_JOINED);

	push	55					; 00000037H
	push	OFFSET ??_C@_0BJ@JONFIJAK@GAMEMESSAGE_NEVER_JOINED?$AA@
	mov	edx, DWORD PTR _L$[ebp]
	push	edx
	call	?pRegisterEnum@CvLuaEnums@@KAXPAUlua_State@@PBDH@Z ; CvLuaEnums::pRegisterEnum
	add	esp, 12					; 0000000cH

; 442  : 	RegisterEnum(GAMEMESSAGE_MP_DROP_INIT);

	push	56					; 00000038H
	push	OFFSET ??_C@_0BJ@NMDADBJG@GAMEMESSAGE_MP_DROP_INIT?$AA@
	mov	eax, DWORD PTR _L$[ebp]
	push	eax
	call	?pRegisterEnum@CvLuaEnums@@KAXPAUlua_State@@PBDH@Z ; CvLuaEnums::pRegisterEnum
	add	esp, 12					; 0000000cH

; 443  : 	RegisterEnum(GAMEMESSAGE_MP_DROP_VOTE);

	push	57					; 00000039H
	push	OFFSET ??_C@_0BJ@MBBLEFJD@GAMEMESSAGE_MP_DROP_VOTE?$AA@
	mov	ecx, DWORD PTR _L$[ebp]
	push	ecx
	call	?pRegisterEnum@CvLuaEnums@@KAXPAUlua_State@@PBDH@Z ; CvLuaEnums::pRegisterEnum
	add	esp, 12					; 0000000cH

; 444  : 	RegisterEnum(GAMEMESSAGE_MP_DROP_UPDATE);

	push	58					; 0000003aH
	push	OFFSET ??_C@_0BL@JGILDKPH@GAMEMESSAGE_MP_DROP_UPDATE?$AA@
	mov	edx, DWORD PTR _L$[ebp]
	push	edx
	call	?pRegisterEnum@CvLuaEnums@@KAXPAUlua_State@@PBDH@Z ; CvLuaEnums::pRegisterEnum
	add	esp, 12					; 0000000cH

; 445  : 	RegisterEnum(GAMEMESSAGE_MP_DROP_RESULT);

	push	59					; 0000003bH
	push	OFFSET ??_C@_0BL@EMGAMNND@GAMEMESSAGE_MP_DROP_RESULT?$AA@
	mov	eax, DWORD PTR _L$[ebp]
	push	eax
	call	?pRegisterEnum@CvLuaEnums@@KAXPAUlua_State@@PBDH@Z ; CvLuaEnums::pRegisterEnum
	add	esp, 12					; 0000000cH

; 446  : 	RegisterEnum(GAMEMESSAGE_MP_DROP_SAVE);

	push	60					; 0000003cH
	push	OFFSET ??_C@_0BJ@OKKAGJLO@GAMEMESSAGE_MP_DROP_SAVE?$AA@
	mov	ecx, DWORD PTR _L$[ebp]
	push	ecx
	call	?pRegisterEnum@CvLuaEnums@@KAXPAUlua_State@@PBDH@Z ; CvLuaEnums::pRegisterEnum
	add	esp, 12					; 0000000cH

; 447  : 	RegisterEnum(GAMEMESSAGE_TOGGLE_TRADE);

	push	61					; 0000003dH
	push	OFFSET ??_C@_0BJ@BDDDHCCD@GAMEMESSAGE_TOGGLE_TRADE?$AA@
	mov	edx, DWORD PTR _L$[ebp]
	push	edx
	call	?pRegisterEnum@CvLuaEnums@@KAXPAUlua_State@@PBDH@Z ; CvLuaEnums::pRegisterEnum
	add	esp, 12					; 0000000cH

; 448  : 	RegisterEnum(GAMEMESSAGE_IMPLEMENT_OFFER);

	push	62					; 0000003eH
	push	OFFSET ??_C@_0BM@IJMNHHJA@GAMEMESSAGE_IMPLEMENT_OFFER?$AA@
	mov	eax, DWORD PTR _L$[ebp]
	push	eax
	call	?pRegisterEnum@CvLuaEnums@@KAXPAUlua_State@@PBDH@Z ; CvLuaEnums::pRegisterEnum
	add	esp, 12					; 0000000cH

; 449  : 	RegisterEnum(GAMEMESSAGE_CHANGE_WAR);

	push	63					; 0000003fH
	push	OFFSET ??_C@_0BH@PIDFJKMK@GAMEMESSAGE_CHANGE_WAR?$AA@
	mov	ecx, DWORD PTR _L$[ebp]
	push	ecx
	call	?pRegisterEnum@CvLuaEnums@@KAXPAUlua_State@@PBDH@Z ; CvLuaEnums::pRegisterEnum
	add	esp, 12					; 0000000cH

; 450  : 	RegisterEnum(GAMEMESSAGE_LIBERATE_PLAYER);

	push	67					; 00000043H
	push	OFFSET ??_C@_0BM@NGOOFKLL@GAMEMESSAGE_LIBERATE_PLAYER?$AA@
	mov	edx, DWORD PTR _L$[ebp]
	push	edx
	call	?pRegisterEnum@CvLuaEnums@@KAXPAUlua_State@@PBDH@Z ; CvLuaEnums::pRegisterEnum
	add	esp, 12					; 0000000cH

; 451  : 	RegisterEnum(GAMEMESSAGE_CHOOSE_ELECTION);

	push	68					; 00000044H
	push	OFFSET ??_C@_0BM@JKLLJEJM@GAMEMESSAGE_CHOOSE_ELECTION?$AA@
	mov	eax, DWORD PTR _L$[ebp]
	push	eax
	call	?pRegisterEnum@CvLuaEnums@@KAXPAUlua_State@@PBDH@Z ; CvLuaEnums::pRegisterEnum
	add	esp, 12					; 0000000cH

; 452  : 	RegisterEnum(GAMEMESSAGE_DIPLO_VOTE);

	push	69					; 00000045H
	push	OFFSET ??_C@_0BH@NBCDCCKO@GAMEMESSAGE_DIPLO_VOTE?$AA@
	mov	ecx, DWORD PTR _L$[ebp]
	push	ecx
	call	?pRegisterEnum@CvLuaEnums@@KAXPAUlua_State@@PBDH@Z ; CvLuaEnums::pRegisterEnum
	add	esp, 12					; 0000000cH

; 453  : 	RegisterEnum(GAMEMESSAGE_APPLY_EVENT);

	push	70					; 00000046H
	push	OFFSET ??_C@_0BI@BEOGNKLC@GAMEMESSAGE_APPLY_EVENT?$AA@
	mov	edx, DWORD PTR _L$[ebp]
	push	edx
	call	?pRegisterEnum@CvLuaEnums@@KAXPAUlua_State@@PBDH@Z ; CvLuaEnums::pRegisterEnum
	add	esp, 12					; 0000000cH

; 454  : 	RegisterEnum(GAMEMESSAGE_CONTACT_CIV);

	push	71					; 00000047H
	push	OFFSET ??_C@_0BI@DDAEGBKC@GAMEMESSAGE_CONTACT_CIV?$AA@
	mov	eax, DWORD PTR _L$[ebp]
	push	eax
	call	?pRegisterEnum@CvLuaEnums@@KAXPAUlua_State@@PBDH@Z ; CvLuaEnums::pRegisterEnum
	add	esp, 12					; 0000000cH

; 455  : 	RegisterEnum(GAMEMESSAGE_DIPLO_CHAT);

	push	72					; 00000048H
	push	OFFSET ??_C@_0BH@KNMAEAGO@GAMEMESSAGE_DIPLO_CHAT?$AA@
	mov	ecx, DWORD PTR _L$[ebp]
	push	ecx
	call	?pRegisterEnum@CvLuaEnums@@KAXPAUlua_State@@PBDH@Z ; CvLuaEnums::pRegisterEnum
	add	esp, 12					; 0000000cH

; 456  : 	RegisterEnum(GAMEMESSAGE_SEND_OFFER);

	push	73					; 00000049H
	push	OFFSET ??_C@_0BH@JKLCJKLC@GAMEMESSAGE_SEND_OFFER?$AA@
	mov	edx, DWORD PTR _L$[ebp]
	push	edx
	call	?pRegisterEnum@CvLuaEnums@@KAXPAUlua_State@@PBDH@Z ; CvLuaEnums::pRegisterEnum
	add	esp, 12					; 0000000cH

; 457  : 	RegisterEnum(GAMEMESSAGE_RENEGOTIATE);

	push	74					; 0000004aH
	push	OFFSET ??_C@_0BI@MMNKHGGM@GAMEMESSAGE_RENEGOTIATE?$AA@
	mov	eax, DWORD PTR _L$[ebp]
	push	eax
	call	?pRegisterEnum@CvLuaEnums@@KAXPAUlua_State@@PBDH@Z ; CvLuaEnums::pRegisterEnum
	add	esp, 12					; 0000000cH

; 458  : 	RegisterEnum(GAMEMESSAGE_RENEGOTIATE_ITEM);

	push	75					; 0000004bH
	push	OFFSET ??_C@_0BN@CKBFCLCE@GAMEMESSAGE_RENEGOTIATE_ITEM?$AA@
	mov	ecx, DWORD PTR _L$[ebp]
	push	ecx
	call	?pRegisterEnum@CvLuaEnums@@KAXPAUlua_State@@PBDH@Z ; CvLuaEnums::pRegisterEnum
	add	esp, 12					; 0000000cH

; 459  : 	RegisterEnum(GAMEMESSAGE_EXIT_TRADE);

	push	76					; 0000004cH
	push	OFFSET ??_C@_0BH@HDJMNHIC@GAMEMESSAGE_EXIT_TRADE?$AA@
	mov	edx, DWORD PTR _L$[ebp]
	push	edx
	call	?pRegisterEnum@CvLuaEnums@@KAXPAUlua_State@@PBDH@Z ; CvLuaEnums::pRegisterEnum
	add	esp, 12					; 0000000cH

; 460  : 	RegisterEnum(GAMEMESSAGE_KILL_DEAL);

	push	77					; 0000004dH
	push	OFFSET ??_C@_0BG@JKCDHMHI@GAMEMESSAGE_KILL_DEAL?$AA@
	mov	eax, DWORD PTR _L$[ebp]
	push	eax
	call	?pRegisterEnum@CvLuaEnums@@KAXPAUlua_State@@PBDH@Z ; CvLuaEnums::pRegisterEnum
	add	esp, 12					; 0000000cH

; 461  : 	RegisterEnum(GAMEMESSAGE_UPDATE_POLICIES);

	push	78					; 0000004eH
	push	OFFSET ??_C@_0BM@BJEAIKMM@GAMEMESSAGE_UPDATE_POLICIES?$AA@
	mov	ecx, DWORD PTR _L$[ebp]
	push	ecx
	call	?pRegisterEnum@CvLuaEnums@@KAXPAUlua_State@@PBDH@Z ; CvLuaEnums::pRegisterEnum
	add	esp, 12					; 0000000cH

; 462  : 	RegisterEnum(GAMEMESSAGE_CLEAR_TABLE);

	push	79					; 0000004fH
	push	OFFSET ??_C@_0BI@OGFDPGOH@GAMEMESSAGE_CLEAR_TABLE?$AA@
	mov	edx, DWORD PTR _L$[ebp]
	push	edx
	call	?pRegisterEnum@CvLuaEnums@@KAXPAUlua_State@@PBDH@Z ; CvLuaEnums::pRegisterEnum
	add	esp, 12					; 0000000cH

; 463  : 	RegisterEnum(GAMEMESSAGE_POPUP_PROCESSED);

	push	80					; 00000050H
	push	OFFSET ??_C@_0BM@DDLMLEHF@GAMEMESSAGE_POPUP_PROCESSED?$AA@
	mov	eax, DWORD PTR _L$[ebp]
	push	eax
	call	?pRegisterEnum@CvLuaEnums@@KAXPAUlua_State@@PBDH@Z ; CvLuaEnums::pRegisterEnum
	add	esp, 12					; 0000000cH

; 464  : 	RegisterEnum(GAMEMESSAGE_DIPLOMACY_FROM_UI);

	push	81					; 00000051H
	push	OFFSET ??_C@_0BO@PCNPFBAK@GAMEMESSAGE_DIPLOMACY_FROM_UI?$AA@
	mov	ecx, DWORD PTR _L$[ebp]
	push	ecx
	call	?pRegisterEnum@CvLuaEnums@@KAXPAUlua_State@@PBDH@Z ; CvLuaEnums::pRegisterEnum
	add	esp, 12					; 0000000cH

; 465  : 	RegisterEnum(GAMEMESSAGE_HOT_DROP_NOTICE);

	push	82					; 00000052H
	push	OFFSET ??_C@_0BM@JFEHMAGL@GAMEMESSAGE_HOT_DROP_NOTICE?$AA@
	mov	edx, DWORD PTR _L$[ebp]
	push	edx
	call	?pRegisterEnum@CvLuaEnums@@KAXPAUlua_State@@PBDH@Z ; CvLuaEnums::pRegisterEnum
	add	esp, 12					; 0000000cH

; 466  : 	RegisterEnum(GAMEMESSAGE_POPUP);

	push	83					; 00000053H
	push	OFFSET ??_C@_0BC@IJDACNNK@GAMEMESSAGE_POPUP?$AA@
	mov	eax, DWORD PTR _L$[ebp]
	push	eax
	call	?pRegisterEnum@CvLuaEnums@@KAXPAUlua_State@@PBDH@Z ; CvLuaEnums::pRegisterEnum
	add	esp, 12					; 0000000cH

; 467  : 	RegisterEnum(GAMEMESSAGE_EVENT_TRIGGERED);

	push	84					; 00000054H
	push	OFFSET ??_C@_0BM@OBEIGHI@GAMEMESSAGE_EVENT_TRIGGERED?$AA@
	mov	ecx, DWORD PTR _L$[ebp]
	push	ecx
	call	?pRegisterEnum@CvLuaEnums@@KAXPAUlua_State@@PBDH@Z ; CvLuaEnums::pRegisterEnum
	add	esp, 12					; 0000000cH

; 468  : 	RegisterEnum(GAMEMESSAGE_LAUNCH_SPACESHIP);

	push	85					; 00000055H
	push	OFFSET ??_C@_0BN@FCOHJOKO@GAMEMESSAGE_LAUNCH_SPACESHIP?$AA@
	mov	edx, DWORD PTR _L$[ebp]
	push	edx
	call	?pRegisterEnum@CvLuaEnums@@KAXPAUlua_State@@PBDH@Z ; CvLuaEnums::pRegisterEnum
	add	esp, 12					; 0000000cH

; 469  : 	RegisterEnum(GAMEMESSAGE_ADVANCED_START_ACTION);

	push	86					; 00000056H
	push	OFFSET ??_C@_0CC@INADAHHH@GAMEMESSAGE_ADVANCED_START_ACTIO@
	mov	eax, DWORD PTR _L$[ebp]
	push	eax
	call	?pRegisterEnum@CvLuaEnums@@KAXPAUlua_State@@PBDH@Z ; CvLuaEnums::pRegisterEnum
	add	esp, 12					; 0000000cH

; 470  : 	RegisterEnum(GAMEMESSAGE_MINOR_CIV_QUEST_NO_INTEREST);

	push	87					; 00000057H
	push	OFFSET ??_C@_0CI@LLCNECPH@GAMEMESSAGE_MINOR_CIV_QUEST_NO_I@
	mov	ecx, DWORD PTR _L$[ebp]
	push	ecx
	call	?pRegisterEnum@CvLuaEnums@@KAXPAUlua_State@@PBDH@Z ; CvLuaEnums::pRegisterEnum
	add	esp, 12					; 0000000cH

; 471  : 	RegisterEnum(GAMEMESSAGE_MINOR_CIV_QUEST_COMPLETED);

	push	88					; 00000058H
	push	OFFSET ??_C@_0CG@OPBPNGKG@GAMEMESSAGE_MINOR_CIV_QUEST_COMP@
	mov	edx, DWORD PTR _L$[ebp]
	push	edx
	call	?pRegisterEnum@CvLuaEnums@@KAXPAUlua_State@@PBDH@Z ; CvLuaEnums::pRegisterEnum
	add	esp, 12					; 0000000cH

; 472  : 	RegisterEnum(GAMEMESSAGE_MINOR_CIV_INTRUSION);

	push	89					; 00000059H
	push	OFFSET ??_C@_0CA@OAFILJDH@GAMEMESSAGE_MINOR_CIV_INTRUSION?$AA@
	mov	eax, DWORD PTR _L$[ebp]
	push	eax
	call	?pRegisterEnum@CvLuaEnums@@KAXPAUlua_State@@PBDH@Z ; CvLuaEnums::pRegisterEnum
	add	esp, 12					; 0000000cH

; 473  : 	RegisterEnum(GAMEMESSAGE_MINOR_CIV_ENTER_TERRITORY);

	push	90					; 0000005aH
	push	OFFSET ??_C@_0CG@EJPFJIKE@GAMEMESSAGE_MINOR_CIV_ENTER_TERR@
	mov	ecx, DWORD PTR _L$[ebp]
	push	ecx
	call	?pRegisterEnum@CvLuaEnums@@KAXPAUlua_State@@PBDH@Z ; CvLuaEnums::pRegisterEnum
	add	esp, 12					; 0000000cH

; 474  : 	RegisterEnum(GAMEMESSAGE_BARBARIAN_RANSOM);

	push	91					; 0000005bH
	push	OFFSET ??_C@_0BN@PCNOOLBB@GAMEMESSAGE_BARBARIAN_RANSOM?$AA@
	mov	edx, DWORD PTR _L$[ebp]
	push	edx
	call	?pRegisterEnum@CvLuaEnums@@KAXPAUlua_State@@PBDH@Z ; CvLuaEnums::pRegisterEnum
	add	esp, 12					; 0000000cH

; 475  : 	RegisterEnum(GAMEMESSAGE_PLAYER_HURRY);

	push	96					; 00000060H
	push	OFFSET ??_C@_0BJ@NFFPFLCK@GAMEMESSAGE_PLAYER_HURRY?$AA@
	mov	eax, DWORD PTR _L$[ebp]
	push	eax
	call	?pRegisterEnum@CvLuaEnums@@KAXPAUlua_State@@PBDH@Z ; CvLuaEnums::pRegisterEnum
	add	esp, 12					; 0000000cH

; 476  : 	RegisterEnum(GAMEMESSAGE_MOD_NET_MESSAGE);

	push	97					; 00000061H
	push	OFFSET ??_C@_0BM@NMLBFBJJ@GAMEMESSAGE_MOD_NET_MESSAGE?$AA@
	mov	ecx, DWORD PTR _L$[ebp]
	push	ecx
	call	?pRegisterEnum@CvLuaEnums@@KAXPAUlua_State@@PBDH@Z ; CvLuaEnums::pRegisterEnum
	add	esp, 12					; 0000000cH

; 477  : 	RegisterEnum(GAMEMESSAGE_SWAP_UNITS);

	push	98					; 00000062H
	push	OFFSET ??_C@_0BH@FAAALJAL@GAMEMESSAGE_SWAP_UNITS?$AA@
	mov	edx, DWORD PTR _L$[ebp]
	push	edx
	call	?pRegisterEnum@CvLuaEnums@@KAXPAUlua_State@@PBDH@Z ; CvLuaEnums::pRegisterEnum
	add	esp, 12					; 0000000cH

; 478  : 	RegisterEnum(GAMEMESSAGE_SWAP_ORDER);

	push	124					; 0000007cH
	push	OFFSET ??_C@_0BH@KBMIMCKO@GAMEMESSAGE_SWAP_ORDER?$AA@
	mov	eax, DWORD PTR _L$[ebp]
	push	eax
	call	?pRegisterEnum@CvLuaEnums@@KAXPAUlua_State@@PBDH@Z ; CvLuaEnums::pRegisterEnum
	add	esp, 12					; 0000000cH

; 479  : 	RegisterEnum(GAMEMESSAGE_AVOID_GROWTH);

	push	127					; 0000007fH
	push	OFFSET ??_C@_0BJ@BPOBFJHD@GAMEMESSAGE_AVOID_GROWTH?$AA@
	mov	ecx, DWORD PTR _L$[ebp]
	push	ecx
	call	?pRegisterEnum@CvLuaEnums@@KAXPAUlua_State@@PBDH@Z ; CvLuaEnums::pRegisterEnum
	add	esp, 12					; 0000000cH

; 480  : 	EnumEnd(L);

	mov	edx, DWORD PTR _L$[ebp]
	push	edx
	call	?EnumEnd@CvLuaEnums@@KAXPAUlua_State@@@Z ; CvLuaEnums::EnumEnd
	add	esp, 4

; 481  : 
; 482  : 	// TaskTypes
; 483  : 	EnumStart(L, "TaskTypes");

	push	OFFSET ??_C@_09OBAOBAN@TaskTypes?$AA@
	mov	eax, DWORD PTR _L$[ebp]
	push	eax
	call	?EnumStart@CvLuaEnums@@KAXPAUlua_State@@PBD@Z ; CvLuaEnums::EnumStart
	add	esp, 8

; 484  : 	RegisterEnum(TASK_RAZE);

	push	0
	push	OFFSET ??_C@_09IIEAHKKO@TASK_RAZE?$AA@
	mov	ecx, DWORD PTR _L$[ebp]
	push	ecx
	call	?pRegisterEnum@CvLuaEnums@@KAXPAUlua_State@@PBDH@Z ; CvLuaEnums::pRegisterEnum
	add	esp, 12					; 0000000cH

; 485  : 	RegisterEnum(TASK_UNRAZE);

	push	1
	push	OFFSET ??_C@_0M@OHJCMBOO@TASK_UNRAZE?$AA@
	mov	edx, DWORD PTR _L$[ebp]
	push	edx
	call	?pRegisterEnum@CvLuaEnums@@KAXPAUlua_State@@PBDH@Z ; CvLuaEnums::pRegisterEnum
	add	esp, 12					; 0000000cH

; 486  : 	RegisterEnum(TASK_DISBAND);

	push	2
	push	OFFSET ??_C@_0N@KBEHEOIO@TASK_DISBAND?$AA@
	mov	eax, DWORD PTR _L$[ebp]
	push	eax
	call	?pRegisterEnum@CvLuaEnums@@KAXPAUlua_State@@PBDH@Z ; CvLuaEnums::pRegisterEnum
	add	esp, 12					; 0000000cH

; 487  : 	RegisterEnum(TASK_GIFT);

	push	3
	push	OFFSET ??_C@_09KDBBDDLH@TASK_GIFT?$AA@
	mov	ecx, DWORD PTR _L$[ebp]
	push	ecx
	call	?pRegisterEnum@CvLuaEnums@@KAXPAUlua_State@@PBDH@Z ; CvLuaEnums::pRegisterEnum
	add	esp, 12					; 0000000cH

; 488  : 	RegisterEnum(TASK_SET_AUTOMATED_CITIZENS);

	push	4
	push	OFFSET ??_C@_0BM@HNFGBGKH@TASK_SET_AUTOMATED_CITIZENS?$AA@
	mov	edx, DWORD PTR _L$[ebp]
	push	edx
	call	?pRegisterEnum@CvLuaEnums@@KAXPAUlua_State@@PBDH@Z ; CvLuaEnums::pRegisterEnum
	add	esp, 12					; 0000000cH

; 489  : 	RegisterEnum(TASK_SET_AUTOMATED_PRODUCTION);

	push	5
	push	OFFSET ??_C@_0BO@GIIBPANL@TASK_SET_AUTOMATED_PRODUCTION?$AA@
	mov	eax, DWORD PTR _L$[ebp]
	push	eax
	call	?pRegisterEnum@CvLuaEnums@@KAXPAUlua_State@@PBDH@Z ; CvLuaEnums::pRegisterEnum
	add	esp, 12					; 0000000cH

; 490  : 	RegisterEnum(TASK_SET_EMPHASIZE);

	push	6
	push	OFFSET ??_C@_0BD@JLMCHIHE@TASK_SET_EMPHASIZE?$AA@
	mov	ecx, DWORD PTR _L$[ebp]
	push	ecx
	call	?pRegisterEnum@CvLuaEnums@@KAXPAUlua_State@@PBDH@Z ; CvLuaEnums::pRegisterEnum
	add	esp, 12					; 0000000cH

; 491  : 	RegisterEnum(TASK_NO_AUTO_ASSIGN_SPECIALISTS);

	push	7
	push	OFFSET ??_C@_0CA@NPKKKCLA@TASK_NO_AUTO_ASSIGN_SPECIALISTS?$AA@
	mov	edx, DWORD PTR _L$[ebp]
	push	edx
	call	?pRegisterEnum@CvLuaEnums@@KAXPAUlua_State@@PBDH@Z ; CvLuaEnums::pRegisterEnum
	add	esp, 12					; 0000000cH

; 492  : 	RegisterEnum(TASK_ADD_SPECIALIST);

	push	8
	push	OFFSET ??_C@_0BE@IMPANMPD@TASK_ADD_SPECIALIST?$AA@
	mov	eax, DWORD PTR _L$[ebp]
	push	eax
	call	?pRegisterEnum@CvLuaEnums@@KAXPAUlua_State@@PBDH@Z ; CvLuaEnums::pRegisterEnum
	add	esp, 12					; 0000000cH

; 493  : 	RegisterEnum(TASK_REMOVE_SPECIALIST);

	push	9
	push	OFFSET ??_C@_0BH@IPLCFNAP@TASK_REMOVE_SPECIALIST?$AA@
	mov	ecx, DWORD PTR _L$[ebp]
	push	ecx
	call	?pRegisterEnum@CvLuaEnums@@KAXPAUlua_State@@PBDH@Z ; CvLuaEnums::pRegisterEnum
	add	esp, 12					; 0000000cH

; 494  : 	RegisterEnum(TASK_CHANGE_WORKING_PLOT);

	push	10					; 0000000aH
	push	OFFSET ??_C@_0BJ@KAEDNKFE@TASK_CHANGE_WORKING_PLOT?$AA@
	mov	edx, DWORD PTR _L$[ebp]
	push	edx
	call	?pRegisterEnum@CvLuaEnums@@KAXPAUlua_State@@PBDH@Z ; CvLuaEnums::pRegisterEnum
	add	esp, 12					; 0000000cH

; 495  : 	RegisterEnum(TASK_REMOVE_SLACKER);

	push	11					; 0000000bH
	push	OFFSET ??_C@_0BE@OHIDIDE@TASK_REMOVE_SLACKER?$AA@
	mov	eax, DWORD PTR _L$[ebp]
	push	eax
	call	?pRegisterEnum@CvLuaEnums@@KAXPAUlua_State@@PBDH@Z ; CvLuaEnums::pRegisterEnum
	add	esp, 12					; 0000000cH

; 496  : 	RegisterEnum(TASK_CLEAR_WORKING_OVERRIDE);

	push	12					; 0000000cH
	push	OFFSET ??_C@_0BM@FHHMHDJI@TASK_CLEAR_WORKING_OVERRIDE?$AA@
	mov	ecx, DWORD PTR _L$[ebp]
	push	ecx
	call	?pRegisterEnum@CvLuaEnums@@KAXPAUlua_State@@PBDH@Z ; CvLuaEnums::pRegisterEnum
	add	esp, 12					; 0000000cH

; 497  : 	RegisterEnum(TASK_HURRY);

	push	13					; 0000000dH
	push	OFFSET ??_C@_0L@LBGPKFCN@TASK_HURRY?$AA@
	mov	edx, DWORD PTR _L$[ebp]
	push	edx
	call	?pRegisterEnum@CvLuaEnums@@KAXPAUlua_State@@PBDH@Z ; CvLuaEnums::pRegisterEnum
	add	esp, 12					; 0000000cH

; 498  : 	RegisterEnum(TASK_CONSCRIPT);

	push	14					; 0000000eH
	push	OFFSET ??_C@_0P@CLGMBMND@TASK_CONSCRIPT?$AA@
	mov	eax, DWORD PTR _L$[ebp]
	push	eax
	call	?pRegisterEnum@CvLuaEnums@@KAXPAUlua_State@@PBDH@Z ; CvLuaEnums::pRegisterEnum
	add	esp, 12					; 0000000cH

; 499  : 	RegisterEnum(TASK_CLEAR_ORDERS);

	push	15					; 0000000fH
	push	OFFSET ??_C@_0BC@GGHKODBL@TASK_CLEAR_ORDERS?$AA@
	mov	ecx, DWORD PTR _L$[ebp]
	push	ecx
	call	?pRegisterEnum@CvLuaEnums@@KAXPAUlua_State@@PBDH@Z ; CvLuaEnums::pRegisterEnum
	add	esp, 12					; 0000000cH

; 500  : 	RegisterEnum(TASK_RALLY_PLOT);

	push	16					; 00000010H
	push	OFFSET ??_C@_0BA@CDIGNGIA@TASK_RALLY_PLOT?$AA@
	mov	edx, DWORD PTR _L$[ebp]
	push	edx
	call	?pRegisterEnum@CvLuaEnums@@KAXPAUlua_State@@PBDH@Z ; CvLuaEnums::pRegisterEnum
	add	esp, 12					; 0000000cH

; 501  : 	RegisterEnum(TASK_CLEAR_RALLY_PLOT);

	push	17					; 00000011H
	push	OFFSET ??_C@_0BG@GJNEAPAA@TASK_CLEAR_RALLY_PLOT?$AA@
	mov	eax, DWORD PTR _L$[ebp]
	push	eax
	call	?pRegisterEnum@CvLuaEnums@@KAXPAUlua_State@@PBDH@Z ; CvLuaEnums::pRegisterEnum
	add	esp, 12					; 0000000cH

; 502  : 	RegisterEnum(TASK_RANGED_ATTACK);

	push	18					; 00000012H
	push	OFFSET ??_C@_0BD@HNIOOAAF@TASK_RANGED_ATTACK?$AA@
	mov	ecx, DWORD PTR _L$[ebp]
	push	ecx
	call	?pRegisterEnum@CvLuaEnums@@KAXPAUlua_State@@PBDH@Z ; CvLuaEnums::pRegisterEnum
	add	esp, 12					; 0000000cH

; 503  : 	RegisterEnum(TASK_CREATE_PUPPET);

	push	19					; 00000013H
	push	OFFSET ??_C@_0BD@BHMJMHBK@TASK_CREATE_PUPPET?$AA@
	mov	edx, DWORD PTR _L$[ebp]
	push	edx
	call	?pRegisterEnum@CvLuaEnums@@KAXPAUlua_State@@PBDH@Z ; CvLuaEnums::pRegisterEnum
	add	esp, 12					; 0000000cH

; 504  : 	RegisterEnum(TASK_ANNEX_PUPPET);

	push	20					; 00000014H
	push	OFFSET ??_C@_0BC@HNOFAMCN@TASK_ANNEX_PUPPET?$AA@
	mov	eax, DWORD PTR _L$[ebp]
	push	eax
	call	?pRegisterEnum@CvLuaEnums@@KAXPAUlua_State@@PBDH@Z ; CvLuaEnums::pRegisterEnum
	add	esp, 12					; 0000000cH

; 505  : 	RegisterEnum(NUM_TASK_TYPES);

	push	21					; 00000015H
	push	OFFSET ??_C@_0P@MFDOFPGD@NUM_TASK_TYPES?$AA@
	mov	ecx, DWORD PTR _L$[ebp]
	push	ecx
	call	?pRegisterEnum@CvLuaEnums@@KAXPAUlua_State@@PBDH@Z ; CvLuaEnums::pRegisterEnum
	add	esp, 12					; 0000000cH

; 506  : 	EnumEnd(L);

	mov	edx, DWORD PTR _L$[ebp]
	push	edx
	call	?EnumEnd@CvLuaEnums@@KAXPAUlua_State@@@Z ; CvLuaEnums::EnumEnd
	add	esp, 4

; 507  : 
; 508  : 	// CommandTypes
; 509  : 	EnumStart(L, "CommandTypes");

	push	OFFSET ??_C@_0N@KGDPOHDL@CommandTypes?$AA@
	mov	eax, DWORD PTR _L$[ebp]
	push	eax
	call	?EnumStart@CvLuaEnums@@KAXPAUlua_State@@PBD@Z ; CvLuaEnums::EnumStart
	add	esp, 8

; 510  : 	RegisterEnum(COMMAND_PROMOTION);

	push	0
	push	OFFSET ??_C@_0BC@PBHIBNIB@COMMAND_PROMOTION?$AA@
	mov	ecx, DWORD PTR _L$[ebp]
	push	ecx
	call	?pRegisterEnum@CvLuaEnums@@KAXPAUlua_State@@PBDH@Z ; CvLuaEnums::pRegisterEnum
	add	esp, 12					; 0000000cH

; 511  : 	RegisterEnum(COMMAND_UPGRADE);

	push	1
	push	OFFSET ??_C@_0BA@CEIJMLFI@COMMAND_UPGRADE?$AA@
	mov	edx, DWORD PTR _L$[ebp]
	push	edx
	call	?pRegisterEnum@CvLuaEnums@@KAXPAUlua_State@@PBDH@Z ; CvLuaEnums::pRegisterEnum
	add	esp, 12					; 0000000cH

; 512  : 	RegisterEnum(COMMAND_AUTOMATE);

	push	2
	push	OFFSET ??_C@_0BB@FHOCLFDG@COMMAND_AUTOMATE?$AA@
	mov	eax, DWORD PTR _L$[ebp]
	push	eax
	call	?pRegisterEnum@CvLuaEnums@@KAXPAUlua_State@@PBDH@Z ; CvLuaEnums::pRegisterEnum
	add	esp, 12					; 0000000cH

; 513  : 	RegisterEnum(COMMAND_WAKE);

	push	3
	push	OFFSET ??_C@_0N@CEJLGNFA@COMMAND_WAKE?$AA@
	mov	ecx, DWORD PTR _L$[ebp]
	push	ecx
	call	?pRegisterEnum@CvLuaEnums@@KAXPAUlua_State@@PBDH@Z ; CvLuaEnums::pRegisterEnum
	add	esp, 12					; 0000000cH

; 514  : 	RegisterEnum(COMMAND_CANCEL);

	push	4
	push	OFFSET ??_C@_0P@NNDPEDHJ@COMMAND_CANCEL?$AA@
	mov	edx, DWORD PTR _L$[ebp]
	push	edx
	call	?pRegisterEnum@CvLuaEnums@@KAXPAUlua_State@@PBDH@Z ; CvLuaEnums::pRegisterEnum
	add	esp, 12					; 0000000cH

; 515  : 	RegisterEnum(COMMAND_CANCEL_ALL);

	push	5
	push	OFFSET ??_C@_0BD@HIPAELDF@COMMAND_CANCEL_ALL?$AA@
	mov	eax, DWORD PTR _L$[ebp]
	push	eax
	call	?pRegisterEnum@CvLuaEnums@@KAXPAUlua_State@@PBDH@Z ; CvLuaEnums::pRegisterEnum
	add	esp, 12					; 0000000cH

; 516  : 	RegisterEnum(COMMAND_STOP_AUTOMATION);

	push	6
	push	OFFSET ??_C@_0BI@HMHHIAOF@COMMAND_STOP_AUTOMATION?$AA@
	mov	ecx, DWORD PTR _L$[ebp]
	push	ecx
	call	?pRegisterEnum@CvLuaEnums@@KAXPAUlua_State@@PBDH@Z ; CvLuaEnums::pRegisterEnum
	add	esp, 12					; 0000000cH

; 517  : 	RegisterEnum(COMMAND_DELETE);

	push	7
	push	OFFSET ??_C@_0P@BAIEEBFD@COMMAND_DELETE?$AA@
	mov	edx, DWORD PTR _L$[ebp]
	push	edx
	call	?pRegisterEnum@CvLuaEnums@@KAXPAUlua_State@@PBDH@Z ; CvLuaEnums::pRegisterEnum
	add	esp, 12					; 0000000cH

; 518  : 	RegisterEnum(COMMAND_GIFT);

	push	8
	push	OFFSET ??_C@_0N@NKMOGCHO@COMMAND_GIFT?$AA@
	mov	eax, DWORD PTR _L$[ebp]
	push	eax
	call	?pRegisterEnum@CvLuaEnums@@KAXPAUlua_State@@PBDH@Z ; CvLuaEnums::pRegisterEnum
	add	esp, 12					; 0000000cH

; 519  : 	RegisterEnum(COMMAND_HOTKEY);

	push	9
	push	OFFSET ??_C@_0P@DNGDDHCL@COMMAND_HOTKEY?$AA@
	mov	ecx, DWORD PTR _L$[ebp]
	push	ecx
	call	?pRegisterEnum@CvLuaEnums@@KAXPAUlua_State@@PBDH@Z ; CvLuaEnums::pRegisterEnum
	add	esp, 12					; 0000000cH

; 520  : 	RegisterEnum(NUM_COMMAND_TYPES);

	push	10					; 0000000aH
	push	OFFSET ??_C@_0BC@PNFJONBH@NUM_COMMAND_TYPES?$AA@
	mov	edx, DWORD PTR _L$[ebp]
	push	edx
	call	?pRegisterEnum@CvLuaEnums@@KAXPAUlua_State@@PBDH@Z ; CvLuaEnums::pRegisterEnum
	add	esp, 12					; 0000000cH

; 521  : 	EnumEnd(L);

	mov	eax, DWORD PTR _L$[ebp]
	push	eax
	call	?EnumEnd@CvLuaEnums@@KAXPAUlua_State@@@Z ; CvLuaEnums::EnumEnd
	add	esp, 4

; 522  : 
; 523  : 	// DirectionTypes
; 524  : 	EnumStart(L, "DirectionTypes");

	push	OFFSET ??_C@_0P@HGIDGMAO@DirectionTypes?$AA@
	mov	ecx, DWORD PTR _L$[ebp]
	push	ecx
	call	?EnumStart@CvLuaEnums@@KAXPAUlua_State@@PBD@Z ; CvLuaEnums::EnumStart
	add	esp, 8

; 525  : 	RegisterEnum(NO_DIRECTION);

	push	-1
	push	OFFSET ??_C@_0N@ENHODHOO@NO_DIRECTION?$AA@
	mov	edx, DWORD PTR _L$[ebp]
	push	edx
	call	?pRegisterEnum@CvLuaEnums@@KAXPAUlua_State@@PBDH@Z ; CvLuaEnums::pRegisterEnum
	add	esp, 12					; 0000000cH

; 526  : 	RegisterEnum(DIRECTION_NORTHEAST);

	push	0
	push	OFFSET ??_C@_0BE@MFGPPIDC@DIRECTION_NORTHEAST?$AA@
	mov	eax, DWORD PTR _L$[ebp]
	push	eax
	call	?pRegisterEnum@CvLuaEnums@@KAXPAUlua_State@@PBDH@Z ; CvLuaEnums::pRegisterEnum
	add	esp, 12					; 0000000cH

; 527  : 	RegisterEnum(DIRECTION_EAST);

	push	1
	push	OFFSET ??_C@_0P@NBPBMAHC@DIRECTION_EAST?$AA@
	mov	ecx, DWORD PTR _L$[ebp]
	push	ecx
	call	?pRegisterEnum@CvLuaEnums@@KAXPAUlua_State@@PBDH@Z ; CvLuaEnums::pRegisterEnum
	add	esp, 12					; 0000000cH

; 528  : 	RegisterEnum(DIRECTION_SOUTHEAST);

	push	2
	push	OFFSET ??_C@_0BE@BNPKPLHD@DIRECTION_SOUTHEAST?$AA@
	mov	edx, DWORD PTR _L$[ebp]
	push	edx
	call	?pRegisterEnum@CvLuaEnums@@KAXPAUlua_State@@PBDH@Z ; CvLuaEnums::pRegisterEnum
	add	esp, 12					; 0000000cH

; 529  : 	RegisterEnum(DIRECTION_SOUTHWEST);

	push	3
	push	OFFSET ??_C@_0BE@IILIKIMG@DIRECTION_SOUTHWEST?$AA@
	mov	eax, DWORD PTR _L$[ebp]
	push	eax
	call	?pRegisterEnum@CvLuaEnums@@KAXPAUlua_State@@PBDH@Z ; CvLuaEnums::pRegisterEnum
	add	esp, 12					; 0000000cH

; 530  : 	RegisterEnum(DIRECTION_WEST);

	push	4
	push	OFFSET ??_C@_0P@EELDJDMH@DIRECTION_WEST?$AA@
	mov	ecx, DWORD PTR _L$[ebp]
	push	ecx
	call	?pRegisterEnum@CvLuaEnums@@KAXPAUlua_State@@PBDH@Z ; CvLuaEnums::pRegisterEnum
	add	esp, 12					; 0000000cH

; 531  : 	RegisterEnum(DIRECTION_NORTHWEST);

	push	5
	push	OFFSET ??_C@_0BE@FACNKLIH@DIRECTION_NORTHWEST?$AA@
	mov	edx, DWORD PTR _L$[ebp]
	push	edx
	call	?pRegisterEnum@CvLuaEnums@@KAXPAUlua_State@@PBDH@Z ; CvLuaEnums::pRegisterEnum
	add	esp, 12					; 0000000cH

; 532  : 	RegisterEnum(NUM_DIRECTION_TYPES);

	push	6
	push	OFFSET ??_C@_0BE@NCBKJFHF@NUM_DIRECTION_TYPES?$AA@
	mov	eax, DWORD PTR _L$[ebp]
	push	eax
	call	?pRegisterEnum@CvLuaEnums@@KAXPAUlua_State@@PBDH@Z ; CvLuaEnums::pRegisterEnum
	add	esp, 12					; 0000000cH

; 533  : 	EnumEnd(L);

	mov	ecx, DWORD PTR _L$[ebp]
	push	ecx
	call	?EnumEnd@CvLuaEnums@@KAXPAUlua_State@@@Z ; CvLuaEnums::EnumEnd
	add	esp, 4

; 534  : 
; 535  : 	// DiploUIStateTypes
; 536  : 	EnumStart(L, "DiploUIStateTypes");

	push	OFFSET ??_C@_0BC@GGIHJFPA@DiploUIStateTypes?$AA@
	mov	edx, DWORD PTR _L$[ebp]
	push	edx
	call	?EnumStart@CvLuaEnums@@KAXPAUlua_State@@PBD@Z ; CvLuaEnums::EnumStart
	add	esp, 8

; 537  : 	RegisterEnum(NO_DIPLO_UI_STATE);

	push	-1
	push	OFFSET ??_C@_0BC@CBAHBFOA@NO_DIPLO_UI_STATE?$AA@
	mov	eax, DWORD PTR _L$[ebp]
	push	eax
	call	?pRegisterEnum@CvLuaEnums@@KAXPAUlua_State@@PBDH@Z ; CvLuaEnums::pRegisterEnum
	add	esp, 12					; 0000000cH

; 538  : 
; 539  : 	RegisterEnum(DIPLO_UI_STATE_DEFAULT_ROOT);

	push	0
	push	OFFSET ??_C@_0BM@JODACIHE@DIPLO_UI_STATE_DEFAULT_ROOT?$AA@
	mov	ecx, DWORD PTR _L$[ebp]
	push	ecx
	call	?pRegisterEnum@CvLuaEnums@@KAXPAUlua_State@@PBDH@Z ; CvLuaEnums::pRegisterEnum
	add	esp, 12					; 0000000cH

; 540  : 
; 541  : 	RegisterEnum(DIPLO_UI_STATE_WAR_DECLARED_BY_HUMAN);

	push	1
	push	OFFSET ??_C@_0CF@KCKFFDJA@DIPLO_UI_STATE_WAR_DECLARED_BY_H@
	mov	edx, DWORD PTR _L$[ebp]
	push	edx
	call	?pRegisterEnum@CvLuaEnums@@KAXPAUlua_State@@PBDH@Z ; CvLuaEnums::pRegisterEnum
	add	esp, 12					; 0000000cH

; 542  : 	RegisterEnum(DIPLO_UI_STATE_PEACE_MADE_BY_HUMAN);

	push	2
	push	OFFSET ??_C@_0CD@KCEMDDFN@DIPLO_UI_STATE_PEACE_MADE_BY_HUM@
	mov	eax, DWORD PTR _L$[ebp]
	push	eax
	call	?pRegisterEnum@CvLuaEnums@@KAXPAUlua_State@@PBDH@Z ; CvLuaEnums::pRegisterEnum
	add	esp, 12					; 0000000cH

; 543  : 
; 544  : 	RegisterEnum(DIPLO_UI_STATE_TRADE);

	push	3
	push	OFFSET ??_C@_0BF@KJLINBIA@DIPLO_UI_STATE_TRADE?$AA@
	mov	ecx, DWORD PTR _L$[ebp]
	push	ecx
	call	?pRegisterEnum@CvLuaEnums@@KAXPAUlua_State@@PBDH@Z ; CvLuaEnums::pRegisterEnum
	add	esp, 12					; 0000000cH

; 545  : 	RegisterEnum(DIPLO_UI_STATE_TRADE_AI_MAKES_OFFER);

	push	4
	push	OFFSET ??_C@_0CE@LHGGIAEJ@DIPLO_UI_STATE_TRADE_AI_MAKES_OF@
	mov	edx, DWORD PTR _L$[ebp]
	push	edx
	call	?pRegisterEnum@CvLuaEnums@@KAXPAUlua_State@@PBDH@Z ; CvLuaEnums::pRegisterEnum
	add	esp, 12					; 0000000cH

; 546  : 	RegisterEnum(DIPLO_UI_STATE_TRADE_AI_ACCEPTS_OFFER);

	push	5
	push	OFFSET ??_C@_0CG@HBJONBBI@DIPLO_UI_STATE_TRADE_AI_ACCEPTS_@
	mov	eax, DWORD PTR _L$[ebp]
	push	eax
	call	?pRegisterEnum@CvLuaEnums@@KAXPAUlua_State@@PBDH@Z ; CvLuaEnums::pRegisterEnum
	add	esp, 12					; 0000000cH

; 547  : 	RegisterEnum(DIPLO_UI_STATE_TRADE_AI_REJECTS_OFFER);

	push	6
	push	OFFSET ??_C@_0CG@JKJIBHAI@DIPLO_UI_STATE_TRADE_AI_REJECTS_@
	mov	ecx, DWORD PTR _L$[ebp]
	push	ecx
	call	?pRegisterEnum@CvLuaEnums@@KAXPAUlua_State@@PBDH@Z ; CvLuaEnums::pRegisterEnum
	add	esp, 12					; 0000000cH

; 548  : 	RegisterEnum(DIPLO_UI_STATE_TRADE_AI_MAKES_DEMAND);

	push	7
	push	OFFSET ??_C@_0CF@PCLPMPLD@DIPLO_UI_STATE_TRADE_AI_MAKES_DE@
	mov	edx, DWORD PTR _L$[ebp]
	push	edx
	call	?pRegisterEnum@CvLuaEnums@@KAXPAUlua_State@@PBDH@Z ; CvLuaEnums::pRegisterEnum
	add	esp, 12					; 0000000cH

; 549  : 	RegisterEnum(DIPLO_UI_STATE_TRADE_AI_MAKES_REQUEST);

	push	8
	push	OFFSET ??_C@_0CG@BJIFDMFD@DIPLO_UI_STATE_TRADE_AI_MAKES_RE@
	mov	eax, DWORD PTR _L$[ebp]
	push	eax
	call	?pRegisterEnum@CvLuaEnums@@KAXPAUlua_State@@PBDH@Z ; CvLuaEnums::pRegisterEnum
	add	esp, 12					; 0000000cH

; 550  : 	RegisterEnum(DIPLO_UI_STATE_TRADE_HUMAN_OFFERS_CONCESSIONS);

	push	9
	push	OFFSET ??_C@_0CO@PHAGDBOM@DIPLO_UI_STATE_TRADE_HUMAN_OFFER@
	mov	ecx, DWORD PTR _L$[ebp]
	push	ecx
	call	?pRegisterEnum@CvLuaEnums@@KAXPAUlua_State@@PBDH@Z ; CvLuaEnums::pRegisterEnum
	add	esp, 12					; 0000000cH

; 551  : 
; 552  : 	RegisterEnum(DIPLO_UI_STATE_HUMAN_DEMAND);

	push	10					; 0000000aH
	push	OFFSET ??_C@_0BM@HLOOKDGG@DIPLO_UI_STATE_HUMAN_DEMAND?$AA@
	mov	edx, DWORD PTR _L$[ebp]
	push	edx
	call	?pRegisterEnum@CvLuaEnums@@KAXPAUlua_State@@PBDH@Z ; CvLuaEnums::pRegisterEnum
	add	esp, 12					; 0000000cH

; 553  : 
; 554  : 	RegisterEnum(DIPLO_UI_STATE_BLANK_DISCUSSION_RETURN_TO_ROOT);

	push	11					; 0000000bH
	push	OFFSET ??_C@_0CP@NGPMJJPK@DIPLO_UI_STATE_BLANK_DISCUSSION_@
	mov	eax, DWORD PTR _L$[ebp]
	push	eax
	call	?pRegisterEnum@CvLuaEnums@@KAXPAUlua_State@@PBDH@Z ; CvLuaEnums::pRegisterEnum
	add	esp, 12					; 0000000cH

; 555  : 	RegisterEnum(DIPLO_UI_STATE_BLANK_DISCUSSION);

	push	12					; 0000000cH
	push	OFFSET ??_C@_0CA@OOFPCPF@DIPLO_UI_STATE_BLANK_DISCUSSION?$AA@
	mov	ecx, DWORD PTR _L$[ebp]
	push	ecx
	call	?pRegisterEnum@CvLuaEnums@@KAXPAUlua_State@@PBDH@Z ; CvLuaEnums::pRegisterEnum
	add	esp, 12					; 0000000cH

; 556  : 	RegisterEnum(DIPLO_UI_STATE_BLANK_DISCUSSION_MEAN_HUMAN);

	push	13					; 0000000dH
	push	OFFSET ??_C@_0CL@OHOBIPIO@DIPLO_UI_STATE_BLANK_DISCUSSION_@
	mov	edx, DWORD PTR _L$[ebp]
	push	edx
	call	?pRegisterEnum@CvLuaEnums@@KAXPAUlua_State@@PBDH@Z ; CvLuaEnums::pRegisterEnum
	add	esp, 12					; 0000000cH

; 557  : 	RegisterEnum(DIPLO_UI_STATE_BLANK_DISCUSSION_MEAN_AI);

	push	14					; 0000000eH
	push	OFFSET ??_C@_0CI@FENJDFGF@DIPLO_UI_STATE_BLANK_DISCUSSION_@
	mov	eax, DWORD PTR _L$[ebp]
	push	eax
	call	?pRegisterEnum@CvLuaEnums@@KAXPAUlua_State@@PBDH@Z ; CvLuaEnums::pRegisterEnum
	add	esp, 12					; 0000000cH

; 558  : 	RegisterEnum(DIPLO_UI_STATE_AI_DECLARED_WAR);

	push	15					; 0000000fH
	push	OFFSET ??_C@_0BP@BLOIGKLK@DIPLO_UI_STATE_AI_DECLARED_WAR?$AA@
	mov	ecx, DWORD PTR _L$[ebp]
	push	ecx
	call	?pRegisterEnum@CvLuaEnums@@KAXPAUlua_State@@PBDH@Z ; CvLuaEnums::pRegisterEnum
	add	esp, 12					; 0000000cH

; 559  : 
; 560  : 	RegisterEnum(DIPLO_UI_STATE_DISCUSS_HUMAN_INVOKED);

	push	16					; 00000010H
	push	OFFSET ??_C@_0CF@EBGJLKP@DIPLO_UI_STATE_DISCUSS_HUMAN_INV@
	mov	edx, DWORD PTR _L$[ebp]
	push	edx
	call	?pRegisterEnum@CvLuaEnums@@KAXPAUlua_State@@PBDH@Z ; CvLuaEnums::pRegisterEnum
	add	esp, 12					; 0000000cH

; 561  : 
; 562  : 	RegisterEnum(DIPLO_UI_STATE_DISCUSS_AGGRESSIVE_MILITARY_WARNING);

	push	17					; 00000011H
	push	OFFSET ??_C@_0DD@ICJDAMAO@DIPLO_UI_STATE_DISCUSS_AGGRESSIV@
	mov	eax, DWORD PTR _L$[ebp]
	push	eax
	call	?pRegisterEnum@CvLuaEnums@@KAXPAUlua_State@@PBDH@Z ; CvLuaEnums::pRegisterEnum
	add	esp, 12					; 0000000cH

; 563  : 	RegisterEnum(DIPLO_UI_STATE_DISCUSS_I_ATTACKED_YOUR_MINOR_CIV);

	push	18					; 00000012H
	push	OFFSET ??_C@_0DB@GGOEDCND@DIPLO_UI_STATE_DISCUSS_I_ATTACKE@
	mov	ecx, DWORD PTR _L$[ebp]
	push	ecx
	call	?pRegisterEnum@CvLuaEnums@@KAXPAUlua_State@@PBDH@Z ; CvLuaEnums::pRegisterEnum
	add	esp, 12					; 0000000cH

; 564  : 	RegisterEnum(DIPLO_UI_STATE_DISCUSS_I_BULLIED_YOUR_MINOR_CIV);

	push	19					; 00000013H
	push	OFFSET ??_C@_0DA@EEOIAJPP@DIPLO_UI_STATE_DISCUSS_I_BULLIED@
	mov	edx, DWORD PTR _L$[ebp]
	push	edx
	call	?pRegisterEnum@CvLuaEnums@@KAXPAUlua_State@@PBDH@Z ; CvLuaEnums::pRegisterEnum
	add	esp, 12					; 0000000cH

; 565  : 	RegisterEnum(DIPLO_UI_STATE_DISCUSS_YOU_ATTACKED_MINOR_CIV);

	push	20					; 00000014H
	push	OFFSET ??_C@_0CO@CEBKIPCI@DIPLO_UI_STATE_DISCUSS_YOU_ATTAC@
	mov	eax, DWORD PTR _L$[ebp]
	push	eax
	call	?pRegisterEnum@CvLuaEnums@@KAXPAUlua_State@@PBDH@Z ; CvLuaEnums::pRegisterEnum
	add	esp, 12					; 0000000cH

; 566  : 	RegisterEnum(DIPLO_UI_STATE_DISCUSS_YOU_KILLED_MINOR_CIV);

	push	21					; 00000015H
	push	OFFSET ??_C@_0CM@JAEDGCMC@DIPLO_UI_STATE_DISCUSS_YOU_KILLE@
	mov	ecx, DWORD PTR _L$[ebp]
	push	ecx
	call	?pRegisterEnum@CvLuaEnums@@KAXPAUlua_State@@PBDH@Z ; CvLuaEnums::pRegisterEnum
	add	esp, 12					; 0000000cH

; 567  : 	RegisterEnum(DIPLO_UI_STATE_DISCUSS_YOU_BULLIED_MINOR_CIV);

	push	22					; 00000016H
	push	OFFSET ??_C@_0CN@FJECNCOK@DIPLO_UI_STATE_DISCUSS_YOU_BULLI@
	mov	edx, DWORD PTR _L$[ebp]
	push	edx
	call	?pRegisterEnum@CvLuaEnums@@KAXPAUlua_State@@PBDH@Z ; CvLuaEnums::pRegisterEnum
	add	esp, 12					; 0000000cH

; 568  : 	RegisterEnum(DIPLO_UI_STATE_DISCUSS_PROTECT_MINOR_CIV);

	push	23					; 00000017H
	push	OFFSET ??_C@_0CJ@LPNHCGMM@DIPLO_UI_STATE_DISCUSS_PROTECT_M@
	mov	eax, DWORD PTR _L$[ebp]
	push	eax
	call	?pRegisterEnum@CvLuaEnums@@KAXPAUlua_State@@PBDH@Z ; CvLuaEnums::pRegisterEnum
	add	esp, 12					; 0000000cH

; 569  : 	RegisterEnum(DIPLO_UI_STATE_DISCUSS_YOU_EXPANSION_SERIOUS_WARNING);

	push	24					; 00000018H
	push	OFFSET ??_C@_0DF@MFLJKONK@DIPLO_UI_STATE_DISCUSS_YOU_EXPAN@
	mov	ecx, DWORD PTR _L$[ebp]
	push	ecx
	call	?pRegisterEnum@CvLuaEnums@@KAXPAUlua_State@@PBDH@Z ; CvLuaEnums::pRegisterEnum
	add	esp, 12					; 0000000cH

; 570  : 	RegisterEnum(DIPLO_UI_STATE_DISCUSS_YOU_EXPANSION_WARNING);

	push	25					; 00000019H
	push	OFFSET ??_C@_0CN@DFCCEIEC@DIPLO_UI_STATE_DISCUSS_YOU_EXPAN@
	mov	edx, DWORD PTR _L$[ebp]
	push	edx
	call	?pRegisterEnum@CvLuaEnums@@KAXPAUlua_State@@PBDH@Z ; CvLuaEnums::pRegisterEnum
	add	esp, 12					; 0000000cH

; 571  : 	RegisterEnum(DIPLO_UI_STATE_DISCUSS_YOU_PLOT_BUYING_SERIOUS_WARNING);

	push	26					; 0000001aH
	push	OFFSET ??_C@_0DH@JIFPOIOM@DIPLO_UI_STATE_DISCUSS_YOU_PLOT_@
	mov	eax, DWORD PTR _L$[ebp]
	push	eax
	call	?pRegisterEnum@CvLuaEnums@@KAXPAUlua_State@@PBDH@Z ; CvLuaEnums::pRegisterEnum
	add	esp, 12					; 0000000cH

; 572  : 	RegisterEnum(DIPLO_UI_STATE_DISCUSS_YOU_PLOT_BUYING_WARNING);

	push	27					; 0000001bH
	push	OFFSET ??_C@_0CP@PHGIEGNL@DIPLO_UI_STATE_DISCUSS_YOU_PLOT_@
	mov	ecx, DWORD PTR _L$[ebp]
	push	ecx
	call	?pRegisterEnum@CvLuaEnums@@KAXPAUlua_State@@PBDH@Z ; CvLuaEnums::pRegisterEnum
	add	esp, 12					; 0000000cH

; 573  : 
; 574  : 	RegisterEnum(DIPLO_UI_STATE_DISCUSS_WORK_WITH_US);

	push	28					; 0000001cH
	push	OFFSET ??_C@_0CE@KMICMABC@DIPLO_UI_STATE_DISCUSS_WORK_WITH@
	mov	edx, DWORD PTR _L$[ebp]
	push	edx
	call	?pRegisterEnum@CvLuaEnums@@KAXPAUlua_State@@PBDH@Z ; CvLuaEnums::pRegisterEnum
	add	esp, 12					; 0000000cH

; 575  : 	RegisterEnum(DIPLO_UI_STATE_DISCUSS_WORK_AGAINST_SOMEONE);

	push	29					; 0000001dH
	push	OFFSET ??_C@_0CM@DNBDDIMD@DIPLO_UI_STATE_DISCUSS_WORK_AGAI@
	mov	eax, DWORD PTR _L$[ebp]
	push	eax
	call	?pRegisterEnum@CvLuaEnums@@KAXPAUlua_State@@PBDH@Z ; CvLuaEnums::pRegisterEnum
	add	esp, 12					; 0000000cH

; 576  : 	RegisterEnum(DIPLO_UI_STATE_DISCUSS_COOP_WAR);

	push	30					; 0000001eH
	push	OFFSET ??_C@_0CA@EJIKFKII@DIPLO_UI_STATE_DISCUSS_COOP_WAR?$AA@
	mov	ecx, DWORD PTR _L$[ebp]
	push	ecx
	call	?pRegisterEnum@CvLuaEnums@@KAXPAUlua_State@@PBDH@Z ; CvLuaEnums::pRegisterEnum
	add	esp, 12					; 0000000cH

; 577  : 	RegisterEnum(DIPLO_UI_STATE_DISCUSS_COOP_WAR_TIME);

	push	31					; 0000001fH
	push	OFFSET ??_C@_0CF@MLCEBPMC@DIPLO_UI_STATE_DISCUSS_COOP_WAR_@
	mov	edx, DWORD PTR _L$[ebp]
	push	edx
	call	?pRegisterEnum@CvLuaEnums@@KAXPAUlua_State@@PBDH@Z ; CvLuaEnums::pRegisterEnum
	add	esp, 12					; 0000000cH

; 578  : 
; 579  : 	RegisterEnum(DIPLO_UI_STATE_DISCUSS_PLAN_RESEARCH_AGREEMENT);

	push	32					; 00000020H
	push	OFFSET ??_C@_0CP@PCDIFFCG@DIPLO_UI_STATE_DISCUSS_PLAN_RESE@
	mov	eax, DWORD PTR _L$[ebp]
	push	eax
	call	?pRegisterEnum@CvLuaEnums@@KAXPAUlua_State@@PBDH@Z ; CvLuaEnums::pRegisterEnum
	add	esp, 12					; 0000000cH

; 580  : 
; 581  : 	RegisterEnum(DIPLO_UI_STATE_DISCUSS_AI_REQUEST_DENOUNCE);

	push	33					; 00000021H
	push	OFFSET ??_C@_0CL@DKHKFHFF@DIPLO_UI_STATE_DISCUSS_AI_REQUES@
	mov	ecx, DWORD PTR _L$[ebp]
	push	ecx
	call	?pRegisterEnum@CvLuaEnums@@KAXPAUlua_State@@PBDH@Z ; CvLuaEnums::pRegisterEnum
	add	esp, 12					; 0000000cH

; 582  : 
; 583  : 	RegisterEnum(DIPLO_UI_STATE_CAUGHT_YOUR_SPY);

	push	34					; 00000022H
	push	OFFSET ??_C@_0BP@NKECOBEG@DIPLO_UI_STATE_CAUGHT_YOUR_SPY?$AA@
	mov	edx, DWORD PTR _L$[ebp]
	push	edx
	call	?pRegisterEnum@CvLuaEnums@@KAXPAUlua_State@@PBDH@Z ; CvLuaEnums::pRegisterEnum
	add	esp, 12					; 0000000cH

; 584  : 	RegisterEnum(DIPLO_UI_STATE_KILLED_YOUR_SPY);

	push	35					; 00000023H
	push	OFFSET ??_C@_0BP@HJKMALCE@DIPLO_UI_STATE_KILLED_YOUR_SPY?$AA@
	mov	eax, DWORD PTR _L$[ebp]
	push	eax
	call	?pRegisterEnum@CvLuaEnums@@KAXPAUlua_State@@PBDH@Z ; CvLuaEnums::pRegisterEnum
	add	esp, 12					; 0000000cH

; 585  : 	RegisterEnum(DIPLO_UI_STATE_KILLED_MY_SPY);

	push	36					; 00000024H
	push	OFFSET ??_C@_0BN@PHLOFOIA@DIPLO_UI_STATE_KILLED_MY_SPY?$AA@
	mov	ecx, DWORD PTR _L$[ebp]
	push	ecx
	call	?pRegisterEnum@CvLuaEnums@@KAXPAUlua_State@@PBDH@Z ; CvLuaEnums::pRegisterEnum
	add	esp, 12					; 0000000cH

; 586  : 	RegisterEnum(DIPLO_UI_STATE_CONFRONT_YOU_KILLED_MY_SPY);

	push	37					; 00000025H
	push	OFFSET ??_C@_0CK@FOJFJKBG@DIPLO_UI_STATE_CONFRONT_YOU_KILL@
	mov	edx, DWORD PTR _L$[ebp]
	push	edx
	call	?pRegisterEnum@CvLuaEnums@@KAXPAUlua_State@@PBDH@Z ; CvLuaEnums::pRegisterEnum
	add	esp, 12					; 0000000cH

; 587  : 
; 588  : 	RegisterEnum(DIPLO_UI_STATE_STOP_CONVERSIONS);

	push	38					; 00000026H
	push	OFFSET ??_C@_0CA@EPOHCEBN@DIPLO_UI_STATE_STOP_CONVERSIONS?$AA@
	mov	eax, DWORD PTR _L$[ebp]
	push	eax
	call	?pRegisterEnum@CvLuaEnums@@KAXPAUlua_State@@PBDH@Z ; CvLuaEnums::pRegisterEnum
	add	esp, 12					; 0000000cH

; 589  : 
; 590  : 	RegisterEnum(DIPLO_UI_STATE_STOP_DIGGING);

	push	39					; 00000027H
	push	OFFSET ??_C@_0BM@DBNJHNGO@DIPLO_UI_STATE_STOP_DIGGING?$AA@
	mov	ecx, DWORD PTR _L$[ebp]
	push	ecx
	call	?pRegisterEnum@CvLuaEnums@@KAXPAUlua_State@@PBDH@Z ; CvLuaEnums::pRegisterEnum
	add	esp, 12					; 0000000cH

; 591  : 
; 592  : 	RegisterEnum(NUM_DIPLO_UI_STATES);

	push	40					; 00000028H
	push	OFFSET ??_C@_0BE@HEABJJMM@NUM_DIPLO_UI_STATES?$AA@
	mov	edx, DWORD PTR _L$[ebp]
	push	edx
	call	?pRegisterEnum@CvLuaEnums@@KAXPAUlua_State@@PBDH@Z ; CvLuaEnums::pRegisterEnum
	add	esp, 12					; 0000000cH

; 593  : 	EnumEnd(L);

	mov	eax, DWORD PTR _L$[ebp]
	push	eax
	call	?EnumEnd@CvLuaEnums@@KAXPAUlua_State@@@Z ; CvLuaEnums::EnumEnd
	add	esp, 4

; 594  : 
; 595  : 	EnumStart(L, "FlowDirectionTypes");

	push	OFFSET ??_C@_0BD@MHEGNPFA@FlowDirectionTypes?$AA@
	mov	ecx, DWORD PTR _L$[ebp]
	push	ecx
	call	?EnumStart@CvLuaEnums@@KAXPAUlua_State@@PBD@Z ; CvLuaEnums::EnumStart
	add	esp, 8

; 596  : 	RegisterEnum(NO_FLOWDIRECTION);

	push	-1
	push	OFFSET ??_C@_0BB@IOOGEDJF@NO_FLOWDIRECTION?$AA@
	mov	edx, DWORD PTR _L$[ebp]
	push	edx
	call	?pRegisterEnum@CvLuaEnums@@KAXPAUlua_State@@PBDH@Z ; CvLuaEnums::pRegisterEnum
	add	esp, 12					; 0000000cH

; 597  : 
; 598  : 	RegisterEnum(FLOWDIRECTION_NORTH);

	push	0
	push	OFFSET ??_C@_0BE@DCDCEIIE@FLOWDIRECTION_NORTH?$AA@
	mov	eax, DWORD PTR _L$[ebp]
	push	eax
	call	?pRegisterEnum@CvLuaEnums@@KAXPAUlua_State@@PBDH@Z ; CvLuaEnums::pRegisterEnum
	add	esp, 12					; 0000000cH

; 599  : 	RegisterEnum(FLOWDIRECTION_NORTHEAST);

	push	1
	push	OFFSET ??_C@_0BI@DKIDBIDN@FLOWDIRECTION_NORTHEAST?$AA@
	mov	ecx, DWORD PTR _L$[ebp]
	push	ecx
	call	?pRegisterEnum@CvLuaEnums@@KAXPAUlua_State@@PBDH@Z ; CvLuaEnums::pRegisterEnum
	add	esp, 12					; 0000000cH

; 600  : 	RegisterEnum(FLOWDIRECTION_SOUTHEAST);

	push	2
	push	OFFSET ??_C@_0BI@OCBGBLHM@FLOWDIRECTION_SOUTHEAST?$AA@
	mov	edx, DWORD PTR _L$[ebp]
	push	edx
	call	?pRegisterEnum@CvLuaEnums@@KAXPAUlua_State@@PBDH@Z ; CvLuaEnums::pRegisterEnum
	add	esp, 12					; 0000000cH

; 601  : 	RegisterEnum(FLOWDIRECTION_SOUTH);

	push	3
	push	OFFSET ??_C@_0BE@BAKNGBHI@FLOWDIRECTION_SOUTH?$AA@
	mov	eax, DWORD PTR _L$[ebp]
	push	eax
	call	?pRegisterEnum@CvLuaEnums@@KAXPAUlua_State@@PBDH@Z ; CvLuaEnums::pRegisterEnum
	add	esp, 12					; 0000000cH

; 602  : 	RegisterEnum(FLOWDIRECTION_SOUTHWEST);

	push	4
	push	OFFSET ??_C@_0BI@HHFEEIMJ@FLOWDIRECTION_SOUTHWEST?$AA@
	mov	ecx, DWORD PTR _L$[ebp]
	push	ecx
	call	?pRegisterEnum@CvLuaEnums@@KAXPAUlua_State@@PBDH@Z ; CvLuaEnums::pRegisterEnum
	add	esp, 12					; 0000000cH

; 603  : 	RegisterEnum(FLOWDIRECTION_NORTHWEST);

	push	5
	push	OFFSET ??_C@_0BI@KPMBELII@FLOWDIRECTION_NORTHWEST?$AA@
	mov	edx, DWORD PTR _L$[ebp]
	push	edx
	call	?pRegisterEnum@CvLuaEnums@@KAXPAUlua_State@@PBDH@Z ; CvLuaEnums::pRegisterEnum
	add	esp, 12					; 0000000cH

; 604  : 
; 605  : 	RegisterEnum(NUM_FLOWDIRECTION_TYPES);

	push	6
	push	OFFSET ??_C@_0BI@NNPPPCPE@NUM_FLOWDIRECTION_TYPES?$AA@
	mov	eax, DWORD PTR _L$[ebp]
	push	eax
	call	?pRegisterEnum@CvLuaEnums@@KAXPAUlua_State@@PBDH@Z ; CvLuaEnums::pRegisterEnum
	add	esp, 12					; 0000000cH

; 606  : 
; 607  : 	RegisterEnum(FLOWDIRECTION_NORTH_MASK);

	push	1
	push	OFFSET ??_C@_0BJ@NDDNBMKK@FLOWDIRECTION_NORTH_MASK?$AA@
	mov	ecx, DWORD PTR _L$[ebp]
	push	ecx
	call	?pRegisterEnum@CvLuaEnums@@KAXPAUlua_State@@PBDH@Z ; CvLuaEnums::pRegisterEnum
	add	esp, 12					; 0000000cH

; 608  : 	RegisterEnum(FLOWDIRECTION_SOUTH_MASK);

	push	2
	push	OFFSET ??_C@_0BJ@NCDOPIKP@FLOWDIRECTION_SOUTH_MASK?$AA@
	mov	edx, DWORD PTR _L$[ebp]
	push	edx
	call	?pRegisterEnum@CvLuaEnums@@KAXPAUlua_State@@PBDH@Z ; CvLuaEnums::pRegisterEnum
	add	esp, 12					; 0000000cH

; 609  : 	RegisterEnum(FLOWDIRECTION_SOUTHEAST_MASK);

	push	4
	push	OFFSET ??_C@_0BN@MMLNIMFJ@FLOWDIRECTION_SOUTHEAST_MASK?$AA@
	mov	eax, DWORD PTR _L$[ebp]
	push	eax
	call	?pRegisterEnum@CvLuaEnums@@KAXPAUlua_State@@PBDH@Z ; CvLuaEnums::pRegisterEnum
	add	esp, 12					; 0000000cH

; 610  : 	RegisterEnum(FLOWDIRECTION_NORTHWEST_MASK);

	push	8
	push	OFFSET ??_C@_0BN@HHBFGHJL@FLOWDIRECTION_NORTHWEST_MASK?$AA@
	mov	ecx, DWORD PTR _L$[ebp]
	push	ecx
	call	?pRegisterEnum@CvLuaEnums@@KAXPAUlua_State@@PBDH@Z ; CvLuaEnums::pRegisterEnum
	add	esp, 12					; 0000000cH

; 611  : 	RegisterEnum(FLOWDIRECTION_SOUTHWEST_MASK);

	push	16					; 00000010H
	push	OFFSET ??_C@_0BN@LCAKIMIA@FLOWDIRECTION_SOUTHWEST_MASK?$AA@
	mov	edx, DWORD PTR _L$[ebp]
	push	edx
	call	?pRegisterEnum@CvLuaEnums@@KAXPAUlua_State@@PBDH@Z ; CvLuaEnums::pRegisterEnum
	add	esp, 12					; 0000000cH

; 612  : 	RegisterEnum(FLOWDIRECTION_NORTHEAST_MASK);

	push	32					; 00000020H
	push	OFFSET ??_C@_0BN@JKCGHEC@FLOWDIRECTION_NORTHEAST_MASK?$AA@
	mov	eax, DWORD PTR _L$[ebp]
	push	eax
	call	?pRegisterEnum@CvLuaEnums@@KAXPAUlua_State@@PBDH@Z ; CvLuaEnums::pRegisterEnum
	add	esp, 12					; 0000000cH

; 613  : 	EnumEnd(L);

	mov	ecx, DWORD PTR _L$[ebp]
	push	ecx
	call	?EnumEnd@CvLuaEnums@@KAXPAUlua_State@@@Z ; CvLuaEnums::EnumEnd
	add	esp, 4

; 614  : 
; 615  : 	// PolicyBranchTypes
; 616  : 	EnumStart(L, "PolicyBranchTypes");

	push	OFFSET ??_C@_0BC@KKBMLBIO@PolicyBranchTypes?$AA@
	mov	edx, DWORD PTR _L$[ebp]
	push	edx
	call	?EnumStart@CvLuaEnums@@KAXPAUlua_State@@PBD@Z ; CvLuaEnums::EnumStart
	add	esp, 8

; 617  : 	RegisterEnum(NO_POLICY_BRANCH_TYPE);

	push	-1
	push	OFFSET ??_C@_0BG@DOBFJIMD@NO_POLICY_BRANCH_TYPE?$AA@
	mov	eax, DWORD PTR _L$[ebp]
	push	eax
	call	?pRegisterEnum@CvLuaEnums@@KAXPAUlua_State@@PBDH@Z ; CvLuaEnums::pRegisterEnum
	add	esp, 12					; 0000000cH

; 618  : 	EnumEnd(L);

	mov	ecx, DWORD PTR _L$[ebp]
	push	ecx
	call	?EnumEnd@CvLuaEnums@@KAXPAUlua_State@@@Z ; CvLuaEnums::EnumEnd
	add	esp, 4

; 619  : 
; 620  : 	// FromUIDiploEventTypes
; 621  : 	EnumStart(L, "FromUIDiploEventTypes");

	push	OFFSET ??_C@_0BG@FPINCIBE@FromUIDiploEventTypes?$AA@
	mov	edx, DWORD PTR _L$[ebp]
	push	edx
	call	?EnumStart@CvLuaEnums@@KAXPAUlua_State@@PBD@Z ; CvLuaEnums::EnumStart
	add	esp, 8

; 622  : 	RegisterEnum(NO_FROM_UI_DIPLO_EVENT);

	push	-1
	push	OFFSET ??_C@_0BH@PIJIFMAP@NO_FROM_UI_DIPLO_EVENT?$AA@
	mov	eax, DWORD PTR _L$[ebp]
	push	eax
	call	?pRegisterEnum@CvLuaEnums@@KAXPAUlua_State@@PBDH@Z ; CvLuaEnums::pRegisterEnum
	add	esp, 12					; 0000000cH

; 623  : 
; 624  : 	RegisterEnum(FROM_UI_DIPLO_EVENT_HUMAN_DECLARES_WAR);

	push	0
	push	OFFSET ??_C@_0CH@BFDIBIAJ@FROM_UI_DIPLO_EVENT_HUMAN_DECLAR@
	mov	ecx, DWORD PTR _L$[ebp]
	push	ecx
	call	?pRegisterEnum@CvLuaEnums@@KAXPAUlua_State@@PBDH@Z ; CvLuaEnums::pRegisterEnum
	add	esp, 12					; 0000000cH

; 625  : 	RegisterEnum(FROM_UI_DIPLO_EVENT_HUMAN_NEGOTIATE_PEACE);

	push	1
	push	OFFSET ??_C@_0CK@JJFPBINN@FROM_UI_DIPLO_EVENT_HUMAN_NEGOTI@
	mov	edx, DWORD PTR _L$[ebp]
	push	edx
	call	?pRegisterEnum@CvLuaEnums@@KAXPAUlua_State@@PBDH@Z ; CvLuaEnums::pRegisterEnum
	add	esp, 12					; 0000000cH

; 626  : 
; 627  : 	RegisterEnum(FROM_UI_DIPLO_EVENT_HUMAN_WANTS_DISCUSSION);

	push	2
	push	OFFSET ??_C@_0CL@FNANEKID@FROM_UI_DIPLO_EVENT_HUMAN_WANTS_@
	mov	eax, DWORD PTR _L$[ebp]
	push	eax
	call	?pRegisterEnum@CvLuaEnums@@KAXPAUlua_State@@PBDH@Z ; CvLuaEnums::pRegisterEnum
	add	esp, 12					; 0000000cH

; 628  : 	RegisterEnum(FROM_UI_DIPLO_EVENT_HUMAN_DISCUSSION_DONT_SETTLE);

	push	3
	push	OFFSET ??_C@_0DB@JKDAAONB@FROM_UI_DIPLO_EVENT_HUMAN_DISCUS@
	mov	ecx, DWORD PTR _L$[ebp]
	push	ecx
	call	?pRegisterEnum@CvLuaEnums@@KAXPAUlua_State@@PBDH@Z ; CvLuaEnums::pRegisterEnum
	add	esp, 12					; 0000000cH

; 629  : 	RegisterEnum(FROM_UI_DIPLO_EVENT_HUMAN_DISCUSSION_WORK_WITH_US);

	push	4
	push	OFFSET ??_C@_0DC@KDCMNPKK@FROM_UI_DIPLO_EVENT_HUMAN_DISCUS@
	mov	edx, DWORD PTR _L$[ebp]
	push	edx
	call	?pRegisterEnum@CvLuaEnums@@KAXPAUlua_State@@PBDH@Z ; CvLuaEnums::pRegisterEnum
	add	esp, 12					; 0000000cH

; 630  : 	RegisterEnum(FROM_UI_DIPLO_EVENT_HUMAN_DISCUSSION_END_WORK_WITH_US);

	push	5
	push	OFFSET ??_C@_0DG@LDILPEL@FROM_UI_DIPLO_EVENT_HUMAN_DISCUS@
	mov	eax, DWORD PTR _L$[ebp]
	push	eax
	call	?pRegisterEnum@CvLuaEnums@@KAXPAUlua_State@@PBDH@Z ; CvLuaEnums::pRegisterEnum
	add	esp, 12					; 0000000cH

; 631  : 
; 632  : 	RegisterEnum(FROM_UI_DIPLO_EVENT_DEMAND_HUMAN_REFUSAL);

	push	6
	push	OFFSET ??_C@_0CJ@MIAOPDBO@FROM_UI_DIPLO_EVENT_DEMAND_HUMAN@
	mov	ecx, DWORD PTR _L$[ebp]
	push	ecx
	call	?pRegisterEnum@CvLuaEnums@@KAXPAUlua_State@@PBDH@Z ; CvLuaEnums::pRegisterEnum
	add	esp, 12					; 0000000cH

; 633  : 	RegisterEnum(FROM_UI_DIPLO_EVENT_REQUEST_HUMAN_REFUSAL);

	push	7
	push	OFFSET ??_C@_0CK@NELKIIPF@FROM_UI_DIPLO_EVENT_REQUEST_HUMA@
	mov	edx, DWORD PTR _L$[ebp]
	push	edx
	call	?pRegisterEnum@CvLuaEnums@@KAXPAUlua_State@@PBDH@Z ; CvLuaEnums::pRegisterEnum
	add	esp, 12					; 0000000cH

; 634  : 
; 635  : 	RegisterEnum(FROM_UI_DIPLO_EVENT_AGGRESSIVE_MILITARY_WARNING_RESPONSE);

	push	8
	push	OFFSET ??_C@_0DJ@GKMBCIJD@FROM_UI_DIPLO_EVENT_AGGRESSIVE_M@
	mov	eax, DWORD PTR _L$[ebp]
	push	eax
	call	?pRegisterEnum@CvLuaEnums@@KAXPAUlua_State@@PBDH@Z ; CvLuaEnums::pRegisterEnum
	add	esp, 12					; 0000000cH

; 636  : 
; 637  : 	RegisterEnum(FROM_UI_DIPLO_EVENT_I_ATTACKED_YOUR_MINOR_CIV_RESPONSE);

	push	9
	push	OFFSET ??_C@_0DH@JBBPJPBM@FROM_UI_DIPLO_EVENT_I_ATTACKED_Y@
	mov	ecx, DWORD PTR _L$[ebp]
	push	ecx
	call	?pRegisterEnum@CvLuaEnums@@KAXPAUlua_State@@PBDH@Z ; CvLuaEnums::pRegisterEnum
	add	esp, 12					; 0000000cH

; 638  : 	RegisterEnum(FROM_UI_DIPLO_EVENT_I_BULLIED_YOUR_MINOR_CIV_RESPONSE);

	push	10					; 0000000aH
	push	OFFSET ??_C@_0DG@LMNEKMPO@FROM_UI_DIPLO_EVENT_I_BULLIED_YO@
	mov	edx, DWORD PTR _L$[ebp]
	push	edx
	call	?pRegisterEnum@CvLuaEnums@@KAXPAUlua_State@@PBDH@Z ; CvLuaEnums::pRegisterEnum
	add	esp, 12					; 0000000cH

; 639  : 
; 640  : 	RegisterEnum(FROM_UI_DIPLO_EVENT_ATTACKED_MINOR_RESPONSE);

	push	11					; 0000000bH
	push	OFFSET ??_C@_0CM@IGCDDKNH@FROM_UI_DIPLO_EVENT_ATTACKED_MIN@
	mov	eax, DWORD PTR _L$[ebp]
	push	eax
	call	?pRegisterEnum@CvLuaEnums@@KAXPAUlua_State@@PBDH@Z ; CvLuaEnums::pRegisterEnum
	add	esp, 12					; 0000000cH

; 641  : 	RegisterEnum(FROM_UI_DIPLO_EVENT_KILLED_MINOR_RESPONSE);

	push	12					; 0000000cH
	push	OFFSET ??_C@_0CK@DDDGBDBO@FROM_UI_DIPLO_EVENT_KILLED_MINOR@
	mov	ecx, DWORD PTR _L$[ebp]
	push	ecx
	call	?pRegisterEnum@CvLuaEnums@@KAXPAUlua_State@@PBDH@Z ; CvLuaEnums::pRegisterEnum
	add	esp, 12					; 0000000cH

; 642  : 	RegisterEnum(FROM_UI_DIPLO_EVENT_BULLIED_MINOR_RESPONSE);

	push	13					; 0000000dH
	push	OFFSET ??_C@_0CL@MEHFCOOL@FROM_UI_DIPLO_EVENT_BULLIED_MINO@
	mov	edx, DWORD PTR _L$[ebp]
	push	edx
	call	?pRegisterEnum@CvLuaEnums@@KAXPAUlua_State@@PBDH@Z ; CvLuaEnums::pRegisterEnum
	add	esp, 12					; 0000000cH

; 643  : 
; 644  : 	RegisterEnum(FROM_UI_DIPLO_EVENT_EXPANSION_SERIOUS_WARNING_RESPONSE);

	push	14					; 0000000eH
	push	OFFSET ??_C@_0DH@JKGCBNBN@FROM_UI_DIPLO_EVENT_EXPANSION_SE@
	mov	eax, DWORD PTR _L$[ebp]
	push	eax
	call	?pRegisterEnum@CvLuaEnums@@KAXPAUlua_State@@PBDH@Z ; CvLuaEnums::pRegisterEnum
	add	esp, 12					; 0000000cH

; 645  : 	RegisterEnum(FROM_UI_DIPLO_EVENT_EXPANSION_WARNING_RESPONSE);

	push	15					; 0000000fH
	push	OFFSET ??_C@_0CP@BFPFAJLG@FROM_UI_DIPLO_EVENT_EXPANSION_WA@
	mov	ecx, DWORD PTR _L$[ebp]
	push	ecx
	call	?pRegisterEnum@CvLuaEnums@@KAXPAUlua_State@@PBDH@Z ; CvLuaEnums::pRegisterEnum
	add	esp, 12					; 0000000cH

; 646  : 
; 647  : 	RegisterEnum(FROM_UI_DIPLO_EVENT_PLOT_BUYING_SERIOUS_WARNING_RESPONSE);

	push	16					; 00000010H
	push	OFFSET ??_C@_0DJ@MNMDLGPL@FROM_UI_DIPLO_EVENT_PLOT_BUYING_@
	mov	edx, DWORD PTR _L$[ebp]
	push	edx
	call	?pRegisterEnum@CvLuaEnums@@KAXPAUlua_State@@PBDH@Z ; CvLuaEnums::pRegisterEnum
	add	esp, 12					; 0000000cH

; 648  : 	RegisterEnum(FROM_UI_DIPLO_EVENT_PLOT_BUYING_WARNING_RESPONSE);

	push	17					; 00000011H
	push	OFFSET ??_C@_0DB@BFJIFDEL@FROM_UI_DIPLO_EVENT_PLOT_BUYING_@
	mov	eax, DWORD PTR _L$[ebp]
	push	eax
	call	?pRegisterEnum@CvLuaEnums@@KAXPAUlua_State@@PBDH@Z ; CvLuaEnums::pRegisterEnum
	add	esp, 12					; 0000000cH

; 649  : 
; 650  : 	RegisterEnum(FROM_UI_DIPLO_EVENT_WORK_WITH_US_RESPONSE);

	push	18					; 00000012H
	push	OFFSET ??_C@_0CK@BGGKECNA@FROM_UI_DIPLO_EVENT_WORK_WITH_US@
	mov	ecx, DWORD PTR _L$[ebp]
	push	ecx
	call	?pRegisterEnum@CvLuaEnums@@KAXPAUlua_State@@PBDH@Z ; CvLuaEnums::pRegisterEnum
	add	esp, 12					; 0000000cH

; 651  : 	RegisterEnum(FROM_UI_DIPLO_EVENT_WORK_AGAINST_SOMEONE_RESPONSE);

	push	19					; 00000013H
	push	OFFSET ??_C@_0DC@HKMAHJDF@FROM_UI_DIPLO_EVENT_WORK_AGAINST@
	mov	edx, DWORD PTR _L$[ebp]
	push	edx
	call	?pRegisterEnum@CvLuaEnums@@KAXPAUlua_State@@PBDH@Z ; CvLuaEnums::pRegisterEnum
	add	esp, 12					; 0000000cH

; 652  : 	RegisterEnum(FROM_UI_DIPLO_EVENT_DENOUNCE);

	push	20					; 00000014H
	push	OFFSET ??_C@_0BN@LEJDAJIK@FROM_UI_DIPLO_EVENT_DENOUNCE?$AA@
	mov	eax, DWORD PTR _L$[ebp]
	push	eax
	call	?pRegisterEnum@CvLuaEnums@@KAXPAUlua_State@@PBDH@Z ; CvLuaEnums::pRegisterEnum
	add	esp, 12					; 0000000cH

; 653  : 	RegisterEnum(FROM_UI_DIPLO_EVENT_COOP_WAR_OFFER);

	push	21					; 00000015H
	push	OFFSET ??_C@_0CD@OIKKCKMA@FROM_UI_DIPLO_EVENT_COOP_WAR_OFF@
	mov	ecx, DWORD PTR _L$[ebp]
	push	ecx
	call	?pRegisterEnum@CvLuaEnums@@KAXPAUlua_State@@PBDH@Z ; CvLuaEnums::pRegisterEnum
	add	esp, 12					; 0000000cH

; 654  : 	RegisterEnum(FROM_UI_DIPLO_EVENT_COOP_WAR_RESPONSE);

	push	22					; 00000016H
	push	OFFSET ??_C@_0CG@HNHFMFGG@FROM_UI_DIPLO_EVENT_COOP_WAR_RES@
	mov	edx, DWORD PTR _L$[ebp]
	push	edx
	call	?pRegisterEnum@CvLuaEnums@@KAXPAUlua_State@@PBDH@Z ; CvLuaEnums::pRegisterEnum
	add	esp, 12					; 0000000cH

; 655  : 	RegisterEnum(FROM_UI_DIPLO_EVENT_COOP_WAR_NOW_RESPONSE);

	push	23					; 00000017H
	push	OFFSET ??_C@_0CK@GBOPECGO@FROM_UI_DIPLO_EVENT_COOP_WAR_NOW@
	mov	eax, DWORD PTR _L$[ebp]
	push	eax
	call	?pRegisterEnum@CvLuaEnums@@KAXPAUlua_State@@PBDH@Z ; CvLuaEnums::pRegisterEnum
	add	esp, 12					; 0000000cH

; 656  : 
; 657  : 	RegisterEnum(FROM_UI_DIPLO_EVENT_HUMAN_DEMAND);

	push	24					; 00000018H
	push	OFFSET ??_C@_0CB@DMCFJLNF@FROM_UI_DIPLO_EVENT_HUMAN_DEMAND@
	mov	ecx, DWORD PTR _L$[ebp]
	push	ecx
	call	?pRegisterEnum@CvLuaEnums@@KAXPAUlua_State@@PBDH@Z ; CvLuaEnums::pRegisterEnum
	add	esp, 12					; 0000000cH

; 658  : 
; 659  : 	RegisterEnum(FROM_UI_DIPLO_EVENT_PLAN_RA_RESPONSE);

	push	25					; 00000019H
	push	OFFSET ??_C@_0CF@GDCIHPFP@FROM_UI_DIPLO_EVENT_PLAN_RA_RESP@
	mov	edx, DWORD PTR _L$[ebp]
	push	edx
	call	?pRegisterEnum@CvLuaEnums@@KAXPAUlua_State@@PBDH@Z ; CvLuaEnums::pRegisterEnum
	add	esp, 12					; 0000000cH

; 660  : 
; 661  : 	// Post Civ 5 release
; 662  : 	RegisterEnum(FROM_UI_DIPLO_EVENT_AI_REQUEST_DENOUNCE_RESPONSE);

	push	26					; 0000001aH
	push	OFFSET ??_C@_0DB@IKMCOBAH@FROM_UI_DIPLO_EVENT_AI_REQUEST_D@
	mov	eax, DWORD PTR _L$[ebp]
	push	eax
	call	?pRegisterEnum@CvLuaEnums@@KAXPAUlua_State@@PBDH@Z ; CvLuaEnums::pRegisterEnum
	add	esp, 12					; 0000000cH

; 663  : 	RegisterEnum(FROM_UI_DIPLO_EVENT_CAUGHT_YOUR_SPY_RESPONSE);

	push	27					; 0000001bH
	push	OFFSET ??_C@_0CN@FPPGOA@FROM_UI_DIPLO_EVENT_CAUGHT_YOUR_@
	mov	ecx, DWORD PTR _L$[ebp]
	push	ecx
	call	?pRegisterEnum@CvLuaEnums@@KAXPAUlua_State@@PBDH@Z ; CvLuaEnums::pRegisterEnum
	add	esp, 12					; 0000000cH

; 664  : 	RegisterEnum(FROM_UI_DIPLO_EVENT_KILLED_MY_SPY_RESPONSE);

	push	28					; 0000001cH
	push	OFFSET ??_C@_0CL@CBIFPGNP@FROM_UI_DIPLO_EVENT_KILLED_MY_SP@
	mov	edx, DWORD PTR _L$[ebp]
	push	edx
	call	?pRegisterEnum@CvLuaEnums@@KAXPAUlua_State@@PBDH@Z ; CvLuaEnums::pRegisterEnum
	add	esp, 12					; 0000000cH

; 665  : 	RegisterEnum(FROM_UI_DIPLO_EVENT_HUMAN_DISCUSSION_STOP_SPYING);

	push	29					; 0000001dH
	push	OFFSET ??_C@_0DB@OFADBNCI@FROM_UI_DIPLO_EVENT_HUMAN_DISCUS@
	mov	eax, DWORD PTR _L$[ebp]
	push	eax
	call	?pRegisterEnum@CvLuaEnums@@KAXPAUlua_State@@PBDH@Z ; CvLuaEnums::pRegisterEnum
	add	esp, 12					; 0000000cH

; 666  : 	RegisterEnum(FROM_UI_DIPLO_EVENT_HUMAN_DISCUSSION_SHARE_INTRIGUE);

	push	30					; 0000001eH
	push	OFFSET ??_C@_0DE@GEOBDLM@FROM_UI_DIPLO_EVENT_HUMAN_DISCUS@
	mov	ecx, DWORD PTR _L$[ebp]
	push	ecx
	call	?pRegisterEnum@CvLuaEnums@@KAXPAUlua_State@@PBDH@Z ; CvLuaEnums::pRegisterEnum
	add	esp, 12					; 0000000cH

; 667  : 	RegisterEnum(FROM_UI_DIPLO_EVENT_HUMAN_DISCUSSION_STOP_SPREADING_RELIGION);

	push	31					; 0000001fH
	push	OFFSET ??_C@_0DN@BHIIOLF@FROM_UI_DIPLO_EVENT_HUMAN_DISCUS@
	mov	edx, DWORD PTR _L$[ebp]
	push	edx
	call	?pRegisterEnum@CvLuaEnums@@KAXPAUlua_State@@PBDH@Z ; CvLuaEnums::pRegisterEnum
	add	esp, 12					; 0000000cH

; 668  : 
; 669  : 	RegisterEnum(FROM_UI_DIPLO_EVENT_STOP_CONVERSIONS);

	push	32					; 00000020H
	push	OFFSET ??_C@_0CF@KKOOKLPH@FROM_UI_DIPLO_EVENT_STOP_CONVERS@
	mov	eax, DWORD PTR _L$[ebp]
	push	eax
	call	?pRegisterEnum@CvLuaEnums@@KAXPAUlua_State@@PBDH@Z ; CvLuaEnums::pRegisterEnum
	add	esp, 12					; 0000000cH

; 670  : 
; 671  : 	RegisterEnum(FROM_UI_DIPLO_EVENT_HUMAN_DISCUSSION_STOP_DIGGING);

	push	33					; 00000021H
	push	OFFSET ??_C@_0DC@BKLKENLG@FROM_UI_DIPLO_EVENT_HUMAN_DISCUS@
	mov	ecx, DWORD PTR _L$[ebp]
	push	ecx
	call	?pRegisterEnum@CvLuaEnums@@KAXPAUlua_State@@PBDH@Z ; CvLuaEnums::pRegisterEnum
	add	esp, 12					; 0000000cH

; 672  : 	RegisterEnum(FROM_UI_DIPLO_EVENT_STOP_DIGGING);

	push	34					; 00000022H
	push	OFFSET ??_C@_0CB@HGBCEFNN@FROM_UI_DIPLO_EVENT_STOP_DIGGING@
	mov	edx, DWORD PTR _L$[ebp]
	push	edx
	call	?pRegisterEnum@CvLuaEnums@@KAXPAUlua_State@@PBDH@Z ; CvLuaEnums::pRegisterEnum
	add	esp, 12					; 0000000cH

; 673  : 
; 674  : 	RegisterEnum(NUM_FROM_UI_DIPLO_EVENTS);

	push	35					; 00000023H
	push	OFFSET ??_C@_0BJ@KPMMBCFP@NUM_FROM_UI_DIPLO_EVENTS?$AA@
	mov	eax, DWORD PTR _L$[ebp]
	push	eax
	call	?pRegisterEnum@CvLuaEnums@@KAXPAUlua_State@@PBDH@Z ; CvLuaEnums::pRegisterEnum
	add	esp, 12					; 0000000cH

; 675  : 	EnumEnd(L);

	mov	ecx, DWORD PTR _L$[ebp]
	push	ecx
	call	?EnumEnd@CvLuaEnums@@KAXPAUlua_State@@@Z ; CvLuaEnums::EnumEnd
	add	esp, 4

; 676  : 
; 677  : 	// CoopWarStates
; 678  : 	EnumStart(L, "CoopWarStates");

	push	OFFSET ??_C@_0O@OINBJCPN@CoopWarStates?$AA@
	mov	edx, DWORD PTR _L$[ebp]
	push	edx
	call	?EnumStart@CvLuaEnums@@KAXPAUlua_State@@PBD@Z ; CvLuaEnums::EnumStart
	add	esp, 8

; 679  : 	RegisterEnum(NO_COOP_WAR_STATE);

	push	-1
	push	OFFSET ??_C@_0BC@LFHNDIOB@NO_COOP_WAR_STATE?$AA@
	mov	eax, DWORD PTR _L$[ebp]
	push	eax
	call	?pRegisterEnum@CvLuaEnums@@KAXPAUlua_State@@PBDH@Z ; CvLuaEnums::pRegisterEnum
	add	esp, 12					; 0000000cH

; 680  : 	RegisterEnum(COOP_WAR_STATE_REJECTED);

	push	0
	push	OFFSET ??_C@_0BI@OCBPACKF@COOP_WAR_STATE_REJECTED?$AA@
	mov	ecx, DWORD PTR _L$[ebp]
	push	ecx
	call	?pRegisterEnum@CvLuaEnums@@KAXPAUlua_State@@PBDH@Z ; CvLuaEnums::pRegisterEnum
	add	esp, 12					; 0000000cH

; 681  : 	RegisterEnum(COOP_WAR_STATE_SOON);

	push	1
	push	OFFSET ??_C@_0BE@MBJIAMOK@COOP_WAR_STATE_SOON?$AA@
	mov	edx, DWORD PTR _L$[ebp]
	push	edx
	call	?pRegisterEnum@CvLuaEnums@@KAXPAUlua_State@@PBDH@Z ; CvLuaEnums::pRegisterEnum
	add	esp, 12					; 0000000cH

; 682  : 	RegisterEnum(COOP_WAR_STATE_ACCEPTED);

	push	2
	push	OFFSET ??_C@_0BI@DOFNNBH@COOP_WAR_STATE_ACCEPTED?$AA@
	mov	eax, DWORD PTR _L$[ebp]
	push	eax
	call	?pRegisterEnum@CvLuaEnums@@KAXPAUlua_State@@PBDH@Z ; CvLuaEnums::pRegisterEnum
	add	esp, 12					; 0000000cH

; 683  : 	RegisterEnum(NUM_COOP_WAR_STATES);

	push	3
	push	OFFSET ??_C@_0BE@DJCNDHH@NUM_COOP_WAR_STATES?$AA@
	mov	ecx, DWORD PTR _L$[ebp]
	push	ecx
	call	?pRegisterEnum@CvLuaEnums@@KAXPAUlua_State@@PBDH@Z ; CvLuaEnums::pRegisterEnum
	add	esp, 12					; 0000000cH

; 684  : 	EnumEnd(L);

	mov	edx, DWORD PTR _L$[ebp]
	push	edx
	call	?EnumEnd@CvLuaEnums@@KAXPAUlua_State@@@Z ; CvLuaEnums::EnumEnd
	add	esp, 4

; 685  : 
; 686  : 	// ThreatTypes
; 687  : 	EnumStart(L, "ThreatTypes");

	push	OFFSET ??_C@_0M@PDICKBPA@ThreatTypes?$AA@
	mov	eax, DWORD PTR _L$[ebp]
	push	eax
	call	?EnumStart@CvLuaEnums@@KAXPAUlua_State@@PBD@Z ; CvLuaEnums::EnumStart
	add	esp, 8

; 688  : 	RegisterEnum(NO_THREAT_VALUE);

	push	-1
	push	OFFSET ??_C@_0BA@BBKOBODD@NO_THREAT_VALUE?$AA@
	mov	ecx, DWORD PTR _L$[ebp]
	push	ecx
	call	?pRegisterEnum@CvLuaEnums@@KAXPAUlua_State@@PBDH@Z ; CvLuaEnums::pRegisterEnum
	add	esp, 12					; 0000000cH

; 689  : 	RegisterEnum(THREAT_NONE);

	push	0
	push	OFFSET ??_C@_0M@OCPDLAEI@THREAT_NONE?$AA@
	mov	edx, DWORD PTR _L$[ebp]
	push	edx
	call	?pRegisterEnum@CvLuaEnums@@KAXPAUlua_State@@PBDH@Z ; CvLuaEnums::pRegisterEnum
	add	esp, 12					; 0000000cH

; 690  : 	RegisterEnum(THREAT_MINOR);

	push	1
	push	OFFSET ??_C@_0N@PECLAHBM@THREAT_MINOR?$AA@
	mov	eax, DWORD PTR _L$[ebp]
	push	eax
	call	?pRegisterEnum@CvLuaEnums@@KAXPAUlua_State@@PBDH@Z ; CvLuaEnums::pRegisterEnum
	add	esp, 12					; 0000000cH

; 691  : 	RegisterEnum(THREAT_MAJOR);

	push	2
	push	OFFSET ??_C@_0N@ELDJNLIK@THREAT_MAJOR?$AA@
	mov	ecx, DWORD PTR _L$[ebp]
	push	ecx
	call	?pRegisterEnum@CvLuaEnums@@KAXPAUlua_State@@PBDH@Z ; CvLuaEnums::pRegisterEnum
	add	esp, 12					; 0000000cH

; 692  : 	RegisterEnum(THREAT_SEVERE);

	push	3
	push	OFFSET ??_C@_0O@OGPFNHMH@THREAT_SEVERE?$AA@
	mov	edx, DWORD PTR _L$[ebp]
	push	edx
	call	?pRegisterEnum@CvLuaEnums@@KAXPAUlua_State@@PBDH@Z ; CvLuaEnums::pRegisterEnum
	add	esp, 12					; 0000000cH

; 693  : 	RegisterEnum(THREAT_CRITICAL);

	push	4
	push	OFFSET ??_C@_0BA@GBLJOA@THREAT_CRITICAL?$AA@
	mov	eax, DWORD PTR _L$[ebp]
	push	eax
	call	?pRegisterEnum@CvLuaEnums@@KAXPAUlua_State@@PBDH@Z ; CvLuaEnums::pRegisterEnum
	add	esp, 12					; 0000000cH

; 694  : 	RegisterEnum(NUM_THREAT_VALUES);

	push	5
	push	OFFSET ??_C@_0BC@GHIDFIC@NUM_THREAT_VALUES?$AA@
	mov	ecx, DWORD PTR _L$[ebp]
	push	ecx
	call	?pRegisterEnum@CvLuaEnums@@KAXPAUlua_State@@PBDH@Z ; CvLuaEnums::pRegisterEnum
	add	esp, 12					; 0000000cH

; 695  : 	EnumEnd(L);

	mov	edx, DWORD PTR _L$[ebp]
	push	edx
	call	?EnumEnd@CvLuaEnums@@KAXPAUlua_State@@@Z ; CvLuaEnums::EnumEnd
	add	esp, 4

; 696  : 
; 697  : 	// DisputeLevelTypes
; 698  : 	EnumStart(L, "DisputeLevelTypes");

	push	OFFSET ??_C@_0BC@JBMEHEFC@DisputeLevelTypes?$AA@
	mov	eax, DWORD PTR _L$[ebp]
	push	eax
	call	?EnumStart@CvLuaEnums@@KAXPAUlua_State@@PBD@Z ; CvLuaEnums::EnumStart
	add	esp, 8

; 699  : 	RegisterEnum(NO_DISPUTE_LEVEL);

	push	-1
	push	OFFSET ??_C@_0BB@OJLAJJON@NO_DISPUTE_LEVEL?$AA@
	mov	ecx, DWORD PTR _L$[ebp]
	push	ecx
	call	?pRegisterEnum@CvLuaEnums@@KAXPAUlua_State@@PBDH@Z ; CvLuaEnums::pRegisterEnum
	add	esp, 12					; 0000000cH

; 700  : 	RegisterEnum(DISPUTE_LEVEL_NONE);

	push	0
	push	OFFSET ??_C@_0BD@BGAAIKBL@DISPUTE_LEVEL_NONE?$AA@
	mov	edx, DWORD PTR _L$[ebp]
	push	edx
	call	?pRegisterEnum@CvLuaEnums@@KAXPAUlua_State@@PBDH@Z ; CvLuaEnums::pRegisterEnum
	add	esp, 12					; 0000000cH

; 701  : 	RegisterEnum(DISPUTE_LEVEL_WEAK);

	push	1
	push	OFFSET ??_C@_0BD@IBJCPFDP@DISPUTE_LEVEL_WEAK?$AA@
	mov	eax, DWORD PTR _L$[ebp]
	push	eax
	call	?pRegisterEnum@CvLuaEnums@@KAXPAUlua_State@@PBDH@Z ; CvLuaEnums::pRegisterEnum
	add	esp, 12					; 0000000cH

; 702  : 	RegisterEnum(DISPUTE_LEVEL_STRONG);

	push	2
	push	OFFSET ??_C@_0BF@MENCFLBN@DISPUTE_LEVEL_STRONG?$AA@
	mov	ecx, DWORD PTR _L$[ebp]
	push	ecx
	call	?pRegisterEnum@CvLuaEnums@@KAXPAUlua_State@@PBDH@Z ; CvLuaEnums::pRegisterEnum
	add	esp, 12					; 0000000cH

; 703  : 	RegisterEnum(DISPUTE_LEVEL_FIERCE);

	push	3
	push	OFFSET ??_C@_0BF@ECBMMDA@DISPUTE_LEVEL_FIERCE?$AA@
	mov	edx, DWORD PTR _L$[ebp]
	push	edx
	call	?pRegisterEnum@CvLuaEnums@@KAXPAUlua_State@@PBDH@Z ; CvLuaEnums::pRegisterEnum
	add	esp, 12					; 0000000cH

; 704  : 	RegisterEnum(NUM_DISPUTE_LEVELS);

	push	4
	push	OFFSET ??_C@_0BD@CMOKGDOG@NUM_DISPUTE_LEVELS?$AA@
	mov	eax, DWORD PTR _L$[ebp]
	push	eax
	call	?pRegisterEnum@CvLuaEnums@@KAXPAUlua_State@@PBDH@Z ; CvLuaEnums::pRegisterEnum
	add	esp, 12					; 0000000cH

; 705  : 	EnumEnd(L);

	mov	ecx, DWORD PTR _L$[ebp]
	push	ecx
	call	?EnumEnd@CvLuaEnums@@KAXPAUlua_State@@@Z ; CvLuaEnums::EnumEnd
	add	esp, 4

; 706  : 
; 707  : 	// LeaderheadAnimationTypes
; 708  : 	EnumStart(L, "LeaderheadAnimationTypes");

	push	OFFSET ??_C@_0BJ@FOMMHCOK@LeaderheadAnimationTypes?$AA@
	mov	edx, DWORD PTR _L$[ebp]
	push	edx
	call	?EnumStart@CvLuaEnums@@KAXPAUlua_State@@PBD@Z ; CvLuaEnums::EnumStart
	add	esp, 8

; 709  : 	RegisterEnum(NO_LEADERHEAD_ANIM);

	push	-1
	push	OFFSET ??_C@_0BD@PAFCIPNG@NO_LEADERHEAD_ANIM?$AA@
	mov	eax, DWORD PTR _L$[ebp]
	push	eax
	call	?pRegisterEnum@CvLuaEnums@@KAXPAUlua_State@@PBDH@Z ; CvLuaEnums::pRegisterEnum
	add	esp, 12					; 0000000cH

; 710  : 	RegisterEnum(LEADERHEAD_ANIM_INTRO);

	push	1
	push	OFFSET ??_C@_0BG@GPMEBHLE@LEADERHEAD_ANIM_INTRO?$AA@
	mov	ecx, DWORD PTR _L$[ebp]
	push	ecx
	call	?pRegisterEnum@CvLuaEnums@@KAXPAUlua_State@@PBDH@Z ; CvLuaEnums::pRegisterEnum
	add	esp, 12					; 0000000cH

; 711  : 	RegisterEnum(LEADERHEAD_ANIM_NEUTRAL_HELLO);

	push	2
	push	OFFSET ??_C@_0BO@IMGHJJFP@LEADERHEAD_ANIM_NEUTRAL_HELLO?$AA@
	mov	edx, DWORD PTR _L$[ebp]
	push	edx
	call	?pRegisterEnum@CvLuaEnums@@KAXPAUlua_State@@PBDH@Z ; CvLuaEnums::pRegisterEnum
	add	esp, 12					; 0000000cH

; 712  : 	RegisterEnum(LEADERHEAD_ANIM_PEACEFUL);

	push	3
	push	OFFSET ??_C@_0BJ@DJMMKNKF@LEADERHEAD_ANIM_PEACEFUL?$AA@
	mov	eax, DWORD PTR _L$[ebp]
	push	eax
	call	?pRegisterEnum@CvLuaEnums@@KAXPAUlua_State@@PBDH@Z ; CvLuaEnums::pRegisterEnum
	add	esp, 12					; 0000000cH

; 713  : 	RegisterEnum(LEADERHEAD_ANIM_OPENING_GLOAT);

	push	4
	push	OFFSET ??_C@_0BO@OKIBJCEI@LEADERHEAD_ANIM_OPENING_GLOAT?$AA@
	mov	ecx, DWORD PTR _L$[ebp]
	push	ecx
	call	?pRegisterEnum@CvLuaEnums@@KAXPAUlua_State@@PBDH@Z ; CvLuaEnums::pRegisterEnum
	add	esp, 12					; 0000000cH

; 714  : 	RegisterEnum(LEADERHEAD_ANIM_DECLARE_WAR);

	push	5
	push	OFFSET ??_C@_0BM@BONIKMDG@LEADERHEAD_ANIM_DECLARE_WAR?$AA@
	mov	edx, DWORD PTR _L$[ebp]
	push	edx
	call	?pRegisterEnum@CvLuaEnums@@KAXPAUlua_State@@PBDH@Z ; CvLuaEnums::pRegisterEnum
	add	esp, 12					; 0000000cH

; 715  : 	RegisterEnum(LEADERHEAD_ANIM_ATTACKED);

	push	6
	push	OFFSET ??_C@_0BJ@ODJNNMEF@LEADERHEAD_ANIM_ATTACKED?$AA@
	mov	eax, DWORD PTR _L$[ebp]
	push	eax
	call	?pRegisterEnum@CvLuaEnums@@KAXPAUlua_State@@PBDH@Z ; CvLuaEnums::pRegisterEnum
	add	esp, 12					; 0000000cH

; 716  : 	RegisterEnum(LEADERHEAD_ANIM_HATE_HELLO);

	push	7
	push	OFFSET ??_C@_0BL@NBNEDHGE@LEADERHEAD_ANIM_HATE_HELLO?$AA@
	mov	ecx, DWORD PTR _L$[ebp]
	push	ecx
	call	?pRegisterEnum@CvLuaEnums@@KAXPAUlua_State@@PBDH@Z ; CvLuaEnums::pRegisterEnum
	add	esp, 12					; 0000000cH

; 717  : 	RegisterEnum(LEADERHEAD_ANIM_DEFEATED);

	push	8
	push	OFFSET ??_C@_0BJ@HBHDOH@LEADERHEAD_ANIM_DEFEATED?$AA@
	mov	edx, DWORD PTR _L$[ebp]
	push	edx
	call	?pRegisterEnum@CvLuaEnums@@KAXPAUlua_State@@PBDH@Z ; CvLuaEnums::pRegisterEnum
	add	esp, 12					; 0000000cH

; 718  : 	RegisterEnum(LEADERHEAD_ANIM_REQUEST);

	push	9
	push	OFFSET ??_C@_0BI@BNNBFNEG@LEADERHEAD_ANIM_REQUEST?$AA@
	mov	eax, DWORD PTR _L$[ebp]
	push	eax
	call	?pRegisterEnum@CvLuaEnums@@KAXPAUlua_State@@PBDH@Z ; CvLuaEnums::pRegisterEnum
	add	esp, 12					; 0000000cH

; 719  : 	RegisterEnum(LEADERHEAD_ANIM_DEMAND);

	push	10					; 0000000aH
	push	OFFSET ??_C@_0BH@HNPIMPDF@LEADERHEAD_ANIM_DEMAND?$AA@
	mov	ecx, DWORD PTR _L$[ebp]
	push	ecx
	call	?pRegisterEnum@CvLuaEnums@@KAXPAUlua_State@@PBDH@Z ; CvLuaEnums::pRegisterEnum
	add	esp, 12					; 0000000cH

; 720  : 	RegisterEnum(LEADERHEAD_ANIM_NEUTRAL_IDLE);

	push	11					; 0000000bH
	push	OFFSET ??_C@_0BN@GJIAFMD@LEADERHEAD_ANIM_NEUTRAL_IDLE?$AA@
	mov	edx, DWORD PTR _L$[ebp]
	push	edx
	call	?pRegisterEnum@CvLuaEnums@@KAXPAUlua_State@@PBDH@Z ; CvLuaEnums::pRegisterEnum
	add	esp, 12					; 0000000cH

; 721  : 	RegisterEnum(LEADERHEAD_ANIM_HATE_IDLE);

	push	12					; 0000000cH
	push	OFFSET ??_C@_0BK@NNCNDMDJ@LEADERHEAD_ANIM_HATE_IDLE?$AA@
	mov	eax, DWORD PTR _L$[ebp]
	push	eax
	call	?pRegisterEnum@CvLuaEnums@@KAXPAUlua_State@@PBDH@Z ; CvLuaEnums::pRegisterEnum
	add	esp, 12					; 0000000cH

; 722  : 	RegisterEnum(LEADERHEAD_ANIM_LETS_HEAR_IT);

	push	15					; 0000000fH
	push	OFFSET ??_C@_0BN@MCOIDJID@LEADERHEAD_ANIM_LETS_HEAR_IT?$AA@
	mov	ecx, DWORD PTR _L$[ebp]
	push	ecx
	call	?pRegisterEnum@CvLuaEnums@@KAXPAUlua_State@@PBDH@Z ; CvLuaEnums::pRegisterEnum
	add	esp, 12					; 0000000cH

; 723  : 	RegisterEnum(LEADERHEAD_ANIM_YES);

	push	16					; 00000010H
	push	OFFSET ??_C@_0BE@EHOPFCKN@LEADERHEAD_ANIM_YES?$AA@
	mov	edx, DWORD PTR _L$[ebp]
	push	edx
	call	?pRegisterEnum@CvLuaEnums@@KAXPAUlua_State@@PBDH@Z ; CvLuaEnums::pRegisterEnum
	add	esp, 12					; 0000000cH

; 724  : 	RegisterEnum(LEADERHEAD_ANIM_NO);

	push	17					; 00000011H
	push	OFFSET ??_C@_0BD@EMHJIPNP@LEADERHEAD_ANIM_NO?$AA@
	mov	eax, DWORD PTR _L$[ebp]
	push	eax
	call	?pRegisterEnum@CvLuaEnums@@KAXPAUlua_State@@PBDH@Z ; CvLuaEnums::pRegisterEnum
	add	esp, 12					; 0000000cH

; 725  : 	EnumEnd(L);

	mov	ecx, DWORD PTR _L$[ebp]
	push	ecx
	call	?EnumEnd@CvLuaEnums@@KAXPAUlua_State@@@Z ; CvLuaEnums::EnumEnd
	add	esp, 4

; 726  : 
; 727  : 	// TradeableItems
; 728  : 	EnumStart(L, "TradeableItems");

	push	OFFSET ??_C@_0P@IAOABMHB@TradeableItems?$AA@
	mov	edx, DWORD PTR _L$[ebp]
	push	edx
	call	?EnumStart@CvLuaEnums@@KAXPAUlua_State@@PBD@Z ; CvLuaEnums::EnumStart
	add	esp, 8

; 729  : 	RegisterEnum(TRADE_ITEM_NONE);

	push	-1
	push	OFFSET ??_C@_0BA@OMOBIKJJ@TRADE_ITEM_NONE?$AA@
	mov	eax, DWORD PTR _L$[ebp]
	push	eax
	call	?pRegisterEnum@CvLuaEnums@@KAXPAUlua_State@@PBDH@Z ; CvLuaEnums::pRegisterEnum
	add	esp, 12					; 0000000cH

; 730  : 	RegisterEnum(TRADE_ITEM_GOLD);

	push	0
	push	OFFSET ??_C@_0BA@PLGOANMH@TRADE_ITEM_GOLD?$AA@
	mov	ecx, DWORD PTR _L$[ebp]
	push	ecx
	call	?pRegisterEnum@CvLuaEnums@@KAXPAUlua_State@@PBDH@Z ; CvLuaEnums::pRegisterEnum
	add	esp, 12					; 0000000cH

; 731  : 	RegisterEnum(TRADE_ITEM_GOLD_PER_TURN);

	push	1
	push	OFFSET ??_C@_0BJ@MBFPLJHK@TRADE_ITEM_GOLD_PER_TURN?$AA@
	mov	edx, DWORD PTR _L$[ebp]
	push	edx
	call	?pRegisterEnum@CvLuaEnums@@KAXPAUlua_State@@PBDH@Z ; CvLuaEnums::pRegisterEnum
	add	esp, 12					; 0000000cH

; 732  : 	RegisterEnum(TRADE_ITEM_MAPS);

	push	2
	push	OFFSET ??_C@_0BA@EBLOLMNH@TRADE_ITEM_MAPS?$AA@
	mov	eax, DWORD PTR _L$[ebp]
	push	eax
	call	?pRegisterEnum@CvLuaEnums@@KAXPAUlua_State@@PBDH@Z ; CvLuaEnums::pRegisterEnum
	add	esp, 12					; 0000000cH

; 733  : 	RegisterEnum(TRADE_ITEM_RESOURCES);

	push	3
	push	OFFSET ??_C@_0BF@JPJNDGIF@TRADE_ITEM_RESOURCES?$AA@
	mov	ecx, DWORD PTR _L$[ebp]
	push	ecx
	call	?pRegisterEnum@CvLuaEnums@@KAXPAUlua_State@@PBDH@Z ; CvLuaEnums::pRegisterEnum
	add	esp, 12					; 0000000cH

; 734  : 	RegisterEnum(TRADE_ITEM_CITIES);

	push	4
	push	OFFSET ??_C@_0BC@JNCBEEHG@TRADE_ITEM_CITIES?$AA@
	mov	edx, DWORD PTR _L$[ebp]
	push	edx
	call	?pRegisterEnum@CvLuaEnums@@KAXPAUlua_State@@PBDH@Z ; CvLuaEnums::pRegisterEnum
	add	esp, 12					; 0000000cH

; 735  : 	RegisterEnum(TRADE_ITEM_UNITS);

	push	5
	push	OFFSET ??_C@_0BB@MMOLOOOL@TRADE_ITEM_UNITS?$AA@
	mov	eax, DWORD PTR _L$[ebp]
	push	eax
	call	?pRegisterEnum@CvLuaEnums@@KAXPAUlua_State@@PBDH@Z ; CvLuaEnums::pRegisterEnum
	add	esp, 12					; 0000000cH

; 736  : 	RegisterEnum(TRADE_ITEM_OPEN_BORDERS);

	push	6
	push	OFFSET ??_C@_0BI@JOAPGKLA@TRADE_ITEM_OPEN_BORDERS?$AA@
	mov	ecx, DWORD PTR _L$[ebp]
	push	ecx
	call	?pRegisterEnum@CvLuaEnums@@KAXPAUlua_State@@PBDH@Z ; CvLuaEnums::pRegisterEnum
	add	esp, 12					; 0000000cH

; 737  : 	RegisterEnum(TRADE_ITEM_DEFENSIVE_PACT);

	push	7
	push	OFFSET ??_C@_0BK@MBLKEPJH@TRADE_ITEM_DEFENSIVE_PACT?$AA@
	mov	edx, DWORD PTR _L$[ebp]
	push	edx
	call	?pRegisterEnum@CvLuaEnums@@KAXPAUlua_State@@PBDH@Z ; CvLuaEnums::pRegisterEnum
	add	esp, 12					; 0000000cH

; 738  : 	RegisterEnum(TRADE_ITEM_RESEARCH_AGREEMENT);

	push	8
	push	OFFSET ??_C@_0BO@JOADEEDO@TRADE_ITEM_RESEARCH_AGREEMENT?$AA@
	mov	eax, DWORD PTR _L$[ebp]
	push	eax
	call	?pRegisterEnum@CvLuaEnums@@KAXPAUlua_State@@PBDH@Z ; CvLuaEnums::pRegisterEnum
	add	esp, 12					; 0000000cH

; 739  : 	RegisterEnum(TRADE_ITEM_TRADE_AGREEMENT);

	push	9
	push	OFFSET ??_C@_0BL@PFGHCFJI@TRADE_ITEM_TRADE_AGREEMENT?$AA@
	mov	ecx, DWORD PTR _L$[ebp]
	push	ecx
	call	?pRegisterEnum@CvLuaEnums@@KAXPAUlua_State@@PBDH@Z ; CvLuaEnums::pRegisterEnum
	add	esp, 12					; 0000000cH

; 740  : 	RegisterEnum(TRADE_ITEM_PERMANENT_ALLIANCE);

	push	10					; 0000000aH
	push	OFFSET ??_C@_0BO@LGFKPCNI@TRADE_ITEM_PERMANENT_ALLIANCE?$AA@
	mov	edx, DWORD PTR _L$[ebp]
	push	edx
	call	?pRegisterEnum@CvLuaEnums@@KAXPAUlua_State@@PBDH@Z ; CvLuaEnums::pRegisterEnum
	add	esp, 12					; 0000000cH

; 741  : 	RegisterEnum(TRADE_ITEM_SURRENDER);

	push	11					; 0000000bH
	push	OFFSET ??_C@_0BF@DEDGJDLK@TRADE_ITEM_SURRENDER?$AA@
	mov	eax, DWORD PTR _L$[ebp]
	push	eax
	call	?pRegisterEnum@CvLuaEnums@@KAXPAUlua_State@@PBDH@Z ; CvLuaEnums::pRegisterEnum
	add	esp, 12					; 0000000cH

; 742  : 	RegisterEnum(TRADE_ITEM_TRUCE);

	push	12					; 0000000cH
	push	OFFSET ??_C@_0BB@LNJJKPMI@TRADE_ITEM_TRUCE?$AA@
	mov	ecx, DWORD PTR _L$[ebp]
	push	ecx
	call	?pRegisterEnum@CvLuaEnums@@KAXPAUlua_State@@PBDH@Z ; CvLuaEnums::pRegisterEnum
	add	esp, 12					; 0000000cH

; 743  : 	RegisterEnum(TRADE_ITEM_PEACE_TREATY);

	push	13					; 0000000dH
	push	OFFSET ??_C@_0BI@CLANHFHP@TRADE_ITEM_PEACE_TREATY?$AA@
	mov	edx, DWORD PTR _L$[ebp]
	push	edx
	call	?pRegisterEnum@CvLuaEnums@@KAXPAUlua_State@@PBDH@Z ; CvLuaEnums::pRegisterEnum
	add	esp, 12					; 0000000cH

; 744  : 	RegisterEnum(TRADE_ITEM_THIRD_PARTY_PEACE);

	push	14					; 0000000eH
	push	OFFSET ??_C@_0BN@PMFNELLO@TRADE_ITEM_THIRD_PARTY_PEACE?$AA@
	mov	eax, DWORD PTR _L$[ebp]
	push	eax
	call	?pRegisterEnum@CvLuaEnums@@KAXPAUlua_State@@PBDH@Z ; CvLuaEnums::pRegisterEnum
	add	esp, 12					; 0000000cH

; 745  : 	RegisterEnum(TRADE_ITEM_THIRD_PARTY_WAR);

	push	15					; 0000000fH
	push	OFFSET ??_C@_0BL@NJOJJBBE@TRADE_ITEM_THIRD_PARTY_WAR?$AA@
	mov	ecx, DWORD PTR _L$[ebp]
	push	ecx
	call	?pRegisterEnum@CvLuaEnums@@KAXPAUlua_State@@PBDH@Z ; CvLuaEnums::pRegisterEnum
	add	esp, 12					; 0000000cH

; 746  : 	RegisterEnum(TRADE_ITEM_THIRD_PARTY_EMBARGO);

	push	16					; 00000010H
	push	OFFSET ??_C@_0BP@KPFCBADM@TRADE_ITEM_THIRD_PARTY_EMBARGO?$AA@
	mov	edx, DWORD PTR _L$[ebp]
	push	edx
	call	?pRegisterEnum@CvLuaEnums@@KAXPAUlua_State@@PBDH@Z ; CvLuaEnums::pRegisterEnum
	add	esp, 12					; 0000000cH

; 747  : 	RegisterEnum(TRADE_ITEM_ALLOW_EMBASSY);

	push	17					; 00000011H
	push	OFFSET ??_C@_0BJ@MMOMMCIO@TRADE_ITEM_ALLOW_EMBASSY?$AA@
	mov	eax, DWORD PTR _L$[ebp]
	push	eax
	call	?pRegisterEnum@CvLuaEnums@@KAXPAUlua_State@@PBDH@Z ; CvLuaEnums::pRegisterEnum
	add	esp, 12					; 0000000cH

; 748  : 	RegisterEnum(TRADE_ITEM_DECLARATION_OF_FRIENDSHIP);

	push	18					; 00000012H
	push	OFFSET ??_C@_0CF@NAONAHO@TRADE_ITEM_DECLARATION_OF_FRIEND@
	mov	ecx, DWORD PTR _L$[ebp]
	push	ecx
	call	?pRegisterEnum@CvLuaEnums@@KAXPAUlua_State@@PBDH@Z ; CvLuaEnums::pRegisterEnum
	add	esp, 12					; 0000000cH

; 749  : 	RegisterEnum(TRADE_ITEM_VOTE_COMMITMENT);

	push	19					; 00000013H
	push	OFFSET ??_C@_0BL@JGLJBHEN@TRADE_ITEM_VOTE_COMMITMENT?$AA@
	mov	edx, DWORD PTR _L$[ebp]
	push	edx
	call	?pRegisterEnum@CvLuaEnums@@KAXPAUlua_State@@PBDH@Z ; CvLuaEnums::pRegisterEnum
	add	esp, 12					; 0000000cH

; 750  : 	RegisterEnum(NUM_TRADEABLE_ITEMS);

	push	20					; 00000014H
	push	OFFSET ??_C@_0BE@OLHJGHIE@NUM_TRADEABLE_ITEMS?$AA@
	mov	eax, DWORD PTR _L$[ebp]
	push	eax
	call	?pRegisterEnum@CvLuaEnums@@KAXPAUlua_State@@PBDH@Z ; CvLuaEnums::pRegisterEnum
	add	esp, 12					; 0000000cH

; 751  : 	EnumEnd(L);

	mov	ecx, DWORD PTR _L$[ebp]
	push	ecx
	call	?EnumEnd@CvLuaEnums@@KAXPAUlua_State@@@Z ; CvLuaEnums::EnumEnd
	add	esp, 4

; 752  : 
; 753  : 	// EndTurnBlockingTypes
; 754  : 	EnumStart(L, "EndTurnBlockingTypes");

	push	OFFSET ??_C@_0BF@DMADNOHH@EndTurnBlockingTypes?$AA@
	mov	edx, DWORD PTR _L$[ebp]
	push	edx
	call	?EnumStart@CvLuaEnums@@KAXPAUlua_State@@PBD@Z ; CvLuaEnums::EnumStart
	add	esp, 8

; 755  : 	RegisterEnum(NO_ENDTURN_BLOCKING_TYPE);

	push	-1
	push	OFFSET ??_C@_0BJ@EJOBLKEH@NO_ENDTURN_BLOCKING_TYPE?$AA@
	mov	eax, DWORD PTR _L$[ebp]
	push	eax
	call	?pRegisterEnum@CvLuaEnums@@KAXPAUlua_State@@PBDH@Z ; CvLuaEnums::pRegisterEnum
	add	esp, 12					; 0000000cH

; 756  : 	RegisterEnum(ENDTURN_BLOCKING_POLICY);

	push	0
	push	OFFSET ??_C@_0BI@GOLNEFGB@ENDTURN_BLOCKING_POLICY?$AA@
	mov	ecx, DWORD PTR _L$[ebp]
	push	ecx
	call	?pRegisterEnum@CvLuaEnums@@KAXPAUlua_State@@PBDH@Z ; CvLuaEnums::pRegisterEnum
	add	esp, 12					; 0000000cH

; 757  : 	RegisterEnum(ENDTURN_BLOCKING_RESEARCH);

	push	1
	push	OFFSET ??_C@_0BK@MEIPLLKD@ENDTURN_BLOCKING_RESEARCH?$AA@
	mov	edx, DWORD PTR _L$[ebp]
	push	edx
	call	?pRegisterEnum@CvLuaEnums@@KAXPAUlua_State@@PBDH@Z ; CvLuaEnums::pRegisterEnum
	add	esp, 12					; 0000000cH

; 758  : 	RegisterEnum(ENDTURN_BLOCKING_PRODUCTION);

	push	2
	push	OFFSET ??_C@_0BM@OGICDOGI@ENDTURN_BLOCKING_PRODUCTION?$AA@
	mov	eax, DWORD PTR _L$[ebp]
	push	eax
	call	?pRegisterEnum@CvLuaEnums@@KAXPAUlua_State@@PBDH@Z ; CvLuaEnums::pRegisterEnum
	add	esp, 12					; 0000000cH

; 759  : 	RegisterEnum(ENDTURN_BLOCKING_UNITS);

	push	3
	push	OFFSET ??_C@_0BH@MALLAFIE@ENDTURN_BLOCKING_UNITS?$AA@
	mov	ecx, DWORD PTR _L$[ebp]
	push	ecx
	call	?pRegisterEnum@CvLuaEnums@@KAXPAUlua_State@@PBDH@Z ; CvLuaEnums::pRegisterEnum
	add	esp, 12					; 0000000cH

; 760  : 	RegisterEnum(ENDTURN_BLOCKING_DIPLO_VOTE);

	push	4
	push	OFFSET ??_C@_0BM@JMOJPNKN@ENDTURN_BLOCKING_DIPLO_VOTE?$AA@
	mov	edx, DWORD PTR _L$[ebp]
	push	edx
	call	?pRegisterEnum@CvLuaEnums@@KAXPAUlua_State@@PBDH@Z ; CvLuaEnums::pRegisterEnum
	add	esp, 12					; 0000000cH

; 761  : 	RegisterEnum(ENDTURN_BLOCKING_MINOR_QUEST);

	push	5
	push	OFFSET ??_C@_0BN@MLIKGNKO@ENDTURN_BLOCKING_MINOR_QUEST?$AA@
	mov	eax, DWORD PTR _L$[ebp]
	push	eax
	call	?pRegisterEnum@CvLuaEnums@@KAXPAUlua_State@@PBDH@Z ; CvLuaEnums::pRegisterEnum
	add	esp, 12					; 0000000cH

; 762  : 	RegisterEnum(ENDTURN_BLOCKING_FREE_TECH);

	push	6
	push	OFFSET ??_C@_0BL@LECJKIBE@ENDTURN_BLOCKING_FREE_TECH?$AA@
	mov	ecx, DWORD PTR _L$[ebp]
	push	ecx
	call	?pRegisterEnum@CvLuaEnums@@KAXPAUlua_State@@PBDH@Z ; CvLuaEnums::pRegisterEnum
	add	esp, 12					; 0000000cH

; 763  : 	RegisterEnum(ENDTURN_BLOCKING_STACKED_UNITS);

	push	7
	push	OFFSET ??_C@_0BP@JEIDLBCL@ENDTURN_BLOCKING_STACKED_UNITS?$AA@
	mov	edx, DWORD PTR _L$[ebp]
	push	edx
	call	?pRegisterEnum@CvLuaEnums@@KAXPAUlua_State@@PBDH@Z ; CvLuaEnums::pRegisterEnum
	add	esp, 12					; 0000000cH

; 764  : 	RegisterEnum(ENDTURN_BLOCKING_UNIT_NEEDS_ORDERS);

	push	8
	push	OFFSET ??_C@_0CD@OCJMMHIA@ENDTURN_BLOCKING_UNIT_NEEDS_ORDE@
	mov	eax, DWORD PTR _L$[ebp]
	push	eax
	call	?pRegisterEnum@CvLuaEnums@@KAXPAUlua_State@@PBDH@Z ; CvLuaEnums::pRegisterEnum
	add	esp, 12					; 0000000cH

; 765  : 	RegisterEnum(ENDTURN_BLOCKING_UNIT_PROMOTION);

	push	9
	push	OFFSET ??_C@_0CA@LKLFINDN@ENDTURN_BLOCKING_UNIT_PROMOTION?$AA@
	mov	ecx, DWORD PTR _L$[ebp]
	push	ecx
	call	?pRegisterEnum@CvLuaEnums@@KAXPAUlua_State@@PBDH@Z ; CvLuaEnums::pRegisterEnum
	add	esp, 12					; 0000000cH

; 766  : 	RegisterEnum(ENDTURN_BLOCKING_CITY_RANGE_ATTACK);

	push	10					; 0000000aH
	push	OFFSET ??_C@_0CD@DNNOLPPE@ENDTURN_BLOCKING_CITY_RANGE_ATTA@
	mov	edx, DWORD PTR _L$[ebp]
	push	edx
	call	?pRegisterEnum@CvLuaEnums@@KAXPAUlua_State@@PBDH@Z ; CvLuaEnums::pRegisterEnum
	add	esp, 12					; 0000000cH

; 767  : 	RegisterEnum(ENDTURN_BLOCKING_FREE_POLICY);

	push	11					; 0000000bH
	push	OFFSET ??_C@_0BN@IADOGKOD@ENDTURN_BLOCKING_FREE_POLICY?$AA@
	mov	eax, DWORD PTR _L$[ebp]
	push	eax
	call	?pRegisterEnum@CvLuaEnums@@KAXPAUlua_State@@PBDH@Z ; CvLuaEnums::pRegisterEnum
	add	esp, 12					; 0000000cH

; 768  : 	RegisterEnum(ENDTURN_BLOCKING_FREE_ITEMS);

	push	12					; 0000000cH
	push	OFFSET ??_C@_0BM@EKJAMBAC@ENDTURN_BLOCKING_FREE_ITEMS?$AA@
	mov	ecx, DWORD PTR _L$[ebp]
	push	ecx
	call	?pRegisterEnum@CvLuaEnums@@KAXPAUlua_State@@PBDH@Z ; CvLuaEnums::pRegisterEnum
	add	esp, 12					; 0000000cH

; 769  : 	RegisterEnum(ENDTURN_BLOCKING_FOUND_PANTHEON);

	push	13					; 0000000dH
	push	OFFSET ??_C@_0CA@EKKIIMIJ@ENDTURN_BLOCKING_FOUND_PANTHEON?$AA@
	mov	edx, DWORD PTR _L$[ebp]
	push	edx
	call	?pRegisterEnum@CvLuaEnums@@KAXPAUlua_State@@PBDH@Z ; CvLuaEnums::pRegisterEnum
	add	esp, 12					; 0000000cH

; 770  : 	RegisterEnum(ENDTURN_BLOCKING_FOUND_RELIGION);

	push	14					; 0000000eH
	push	OFFSET ??_C@_0CA@EFICPA@ENDTURN_BLOCKING_FOUND_RELIGION?$AA@
	mov	eax, DWORD PTR _L$[ebp]
	push	eax
	call	?pRegisterEnum@CvLuaEnums@@KAXPAUlua_State@@PBDH@Z ; CvLuaEnums::pRegisterEnum
	add	esp, 12					; 0000000cH

; 771  : 	RegisterEnum(ENDTURN_BLOCKING_ENHANCE_RELIGION);

	push	15					; 0000000fH
	push	OFFSET ??_C@_0CC@JDNJFDO@ENDTURN_BLOCKING_ENHANCE_RELIGIO@
	mov	ecx, DWORD PTR _L$[ebp]
	push	ecx
	call	?pRegisterEnum@CvLuaEnums@@KAXPAUlua_State@@PBDH@Z ; CvLuaEnums::pRegisterEnum
	add	esp, 12					; 0000000cH

; 772  : 	RegisterEnum(ENDTURN_BLOCKING_STEAL_TECH);

	push	16					; 00000010H
	push	OFFSET ??_C@_0BM@DMHEFGHD@ENDTURN_BLOCKING_STEAL_TECH?$AA@
	mov	edx, DWORD PTR _L$[ebp]
	push	edx
	call	?pRegisterEnum@CvLuaEnums@@KAXPAUlua_State@@PBDH@Z ; CvLuaEnums::pRegisterEnum
	add	esp, 12					; 0000000cH

; 773  : 	RegisterEnum(ENDTURN_BLOCKING_MAYA_LONG_COUNT);

	push	17					; 00000011H
	push	OFFSET ??_C@_0CB@LBMNJCEM@ENDTURN_BLOCKING_MAYA_LONG_COUNT@
	mov	eax, DWORD PTR _L$[ebp]
	push	eax
	call	?pRegisterEnum@CvLuaEnums@@KAXPAUlua_State@@PBDH@Z ; CvLuaEnums::pRegisterEnum
	add	esp, 12					; 0000000cH

; 774  : 	RegisterEnum(ENDTURN_BLOCKING_FAITH_GREAT_PERSON);

	push	18					; 00000012H
	push	OFFSET ??_C@_0CE@MGHBANFM@ENDTURN_BLOCKING_FAITH_GREAT_PER@
	mov	ecx, DWORD PTR _L$[ebp]
	push	ecx
	call	?pRegisterEnum@CvLuaEnums@@KAXPAUlua_State@@PBDH@Z ; CvLuaEnums::pRegisterEnum
	add	esp, 12					; 0000000cH

; 775  : 	RegisterEnum(ENDTURN_BLOCKING_ADD_REFORMATION_BELIEF);

	push	19					; 00000013H
	push	OFFSET ??_C@_0CI@CJKJCBF@ENDTURN_BLOCKING_ADD_REFORMATION@
	mov	edx, DWORD PTR _L$[ebp]
	push	edx
	call	?pRegisterEnum@CvLuaEnums@@KAXPAUlua_State@@PBDH@Z ; CvLuaEnums::pRegisterEnum
	add	esp, 12					; 0000000cH

; 776  : 	RegisterEnum(ENDTURN_BLOCKING_LEAGUE_CALL_FOR_PROPOSALS);

	push	20					; 00000014H
	push	OFFSET ??_C@_0CL@JOEEEMDN@ENDTURN_BLOCKING_LEAGUE_CALL_FOR@
	mov	eax, DWORD PTR _L$[ebp]
	push	eax
	call	?pRegisterEnum@CvLuaEnums@@KAXPAUlua_State@@PBDH@Z ; CvLuaEnums::pRegisterEnum
	add	esp, 12					; 0000000cH

; 777  : 	RegisterEnum(ENDTURN_BLOCKING_CHOOSE_ARCHAEOLOGY);

	push	21					; 00000015H
	push	OFFSET ??_C@_0CE@FKKOLIDB@ENDTURN_BLOCKING_CHOOSE_ARCHAEOL@
	mov	ecx, DWORD PTR _L$[ebp]
	push	ecx
	call	?pRegisterEnum@CvLuaEnums@@KAXPAUlua_State@@PBDH@Z ; CvLuaEnums::pRegisterEnum
	add	esp, 12					; 0000000cH

; 778  : 	RegisterEnum(ENDTURN_BLOCKING_LEAGUE_CALL_FOR_VOTES);

	push	22					; 00000016H
	push	OFFSET ??_C@_0CH@FJEMJOPG@ENDTURN_BLOCKING_LEAGUE_CALL_FOR@
	mov	edx, DWORD PTR _L$[ebp]
	push	edx
	call	?pRegisterEnum@CvLuaEnums@@KAXPAUlua_State@@PBDH@Z ; CvLuaEnums::pRegisterEnum
	add	esp, 12					; 0000000cH

; 779  : 	RegisterEnum(ENDTURN_BLOCKING_CHOOSE_IDEOLOGY);

	push	23					; 00000017H
	push	OFFSET ??_C@_0CB@EGLLBLDG@ENDTURN_BLOCKING_CHOOSE_IDEOLOGY@
	mov	eax, DWORD PTR _L$[ebp]
	push	eax
	call	?pRegisterEnum@CvLuaEnums@@KAXPAUlua_State@@PBDH@Z ; CvLuaEnums::pRegisterEnum
	add	esp, 12					; 0000000cH

; 780  : 	RegisterEnum(NUM_ENDTURN_BLOCKING_TYPES);

	push	24					; 00000018H
	push	OFFSET ??_C@_0BL@INMDEKKG@NUM_ENDTURN_BLOCKING_TYPES?$AA@
	mov	ecx, DWORD PTR _L$[ebp]
	push	ecx
	call	?pRegisterEnum@CvLuaEnums@@KAXPAUlua_State@@PBDH@Z ; CvLuaEnums::pRegisterEnum
	add	esp, 12					; 0000000cH

; 781  : 	EnumEnd(L);

	mov	edx, DWORD PTR _L$[ebp]
	push	edx
	call	?EnumEnd@CvLuaEnums@@KAXPAUlua_State@@@Z ; CvLuaEnums::EnumEnd
	add	esp, 4

; 782  : 
; 783  : 	// ResourceUsageTypes
; 784  : 	EnumStart(L, "ResourceUsageTypes");

	push	OFFSET ??_C@_0BD@KPGMNEDO@ResourceUsageTypes?$AA@
	mov	eax, DWORD PTR _L$[ebp]
	push	eax
	call	?EnumStart@CvLuaEnums@@KAXPAUlua_State@@PBD@Z ; CvLuaEnums::EnumStart
	add	esp, 8

; 785  : 	RegisterEnum(RESOURCEUSAGE_BONUS);

	push	0
	push	OFFSET ??_C@_0BE@FCKHAHKE@RESOURCEUSAGE_BONUS?$AA@
	mov	ecx, DWORD PTR _L$[ebp]
	push	ecx
	call	?pRegisterEnum@CvLuaEnums@@KAXPAUlua_State@@PBDH@Z ; CvLuaEnums::pRegisterEnum
	add	esp, 12					; 0000000cH

; 786  : 	RegisterEnum(RESOURCEUSAGE_STRATEGIC);

	push	1
	push	OFFSET ??_C@_0BI@NCNDAFGO@RESOURCEUSAGE_STRATEGIC?$AA@
	mov	edx, DWORD PTR _L$[ebp]
	push	edx
	call	?pRegisterEnum@CvLuaEnums@@KAXPAUlua_State@@PBDH@Z ; CvLuaEnums::pRegisterEnum
	add	esp, 12					; 0000000cH

; 787  : 	RegisterEnum(RESOURCEUSAGE_LUXURY);

	push	2
	push	OFFSET ??_C@_0BF@KGIAHEFO@RESOURCEUSAGE_LUXURY?$AA@
	mov	eax, DWORD PTR _L$[ebp]
	push	eax
	call	?pRegisterEnum@CvLuaEnums@@KAXPAUlua_State@@PBDH@Z ; CvLuaEnums::pRegisterEnum
	add	esp, 12					; 0000000cH

; 788  : 	RegisterEnum(NUM_RESOURCEUSAGE_TYPES);

	push	3
	push	OFFSET ??_C@_0BI@HIJDDECF@NUM_RESOURCEUSAGE_TYPES?$AA@
	mov	ecx, DWORD PTR _L$[ebp]
	push	ecx
	call	?pRegisterEnum@CvLuaEnums@@KAXPAUlua_State@@PBDH@Z ; CvLuaEnums::pRegisterEnum
	add	esp, 12					; 0000000cH

; 789  : 	EnumEnd(L);

	mov	edx, DWORD PTR _L$[ebp]
	push	edx
	call	?EnumEnd@CvLuaEnums@@KAXPAUlua_State@@@Z ; CvLuaEnums::EnumEnd
	add	esp, 4

; 790  : 
; 791  : 	// MajorCivApproachTypes
; 792  : 	EnumStart(L, "MajorCivApproachTypes");

	push	OFFSET ??_C@_0BG@OKDMGDPK@MajorCivApproachTypes?$AA@
	mov	eax, DWORD PTR _L$[ebp]
	push	eax
	call	?EnumStart@CvLuaEnums@@KAXPAUlua_State@@PBD@Z ; CvLuaEnums::EnumStart
	add	esp, 8

; 793  : 	RegisterEnum(NO_MAJOR_CIV_APPROACH);

	push	-1
	push	OFFSET ??_C@_0BG@MIEPALJN@NO_MAJOR_CIV_APPROACH?$AA@
	mov	ecx, DWORD PTR _L$[ebp]
	push	ecx
	call	?pRegisterEnum@CvLuaEnums@@KAXPAUlua_State@@PBDH@Z ; CvLuaEnums::pRegisterEnum
	add	esp, 12					; 0000000cH

; 794  : 	RegisterEnum(MAJOR_CIV_APPROACH_WAR);

	push	0
	push	OFFSET ??_C@_0BH@CENIAPAP@MAJOR_CIV_APPROACH_WAR?$AA@
	mov	edx, DWORD PTR _L$[ebp]
	push	edx
	call	?pRegisterEnum@CvLuaEnums@@KAXPAUlua_State@@PBDH@Z ; CvLuaEnums::pRegisterEnum
	add	esp, 12					; 0000000cH

; 795  : 	RegisterEnum(MAJOR_CIV_APPROACH_HOSTILE);

	push	1
	push	OFFSET ??_C@_0BL@MHCEMGIK@MAJOR_CIV_APPROACH_HOSTILE?$AA@
	mov	eax, DWORD PTR _L$[ebp]
	push	eax
	call	?pRegisterEnum@CvLuaEnums@@KAXPAUlua_State@@PBDH@Z ; CvLuaEnums::pRegisterEnum
	add	esp, 12					; 0000000cH

; 796  : 	RegisterEnum(MAJOR_CIV_APPROACH_DECEPTIVE);

	push	2
	push	OFFSET ??_C@_0BN@FKMLMFML@MAJOR_CIV_APPROACH_DECEPTIVE?$AA@
	mov	ecx, DWORD PTR _L$[ebp]
	push	ecx
	call	?pRegisterEnum@CvLuaEnums@@KAXPAUlua_State@@PBDH@Z ; CvLuaEnums::pRegisterEnum
	add	esp, 12					; 0000000cH

; 797  : 	RegisterEnum(MAJOR_CIV_APPROACH_GUARDED);

	push	3
	push	OFFSET ??_C@_0BL@PIFEJDIF@MAJOR_CIV_APPROACH_GUARDED?$AA@
	mov	edx, DWORD PTR _L$[ebp]
	push	edx
	call	?pRegisterEnum@CvLuaEnums@@KAXPAUlua_State@@PBDH@Z ; CvLuaEnums::pRegisterEnum
	add	esp, 12					; 0000000cH

; 798  : 	RegisterEnum(MAJOR_CIV_APPROACH_AFRAID);

	push	4
	push	OFFSET ??_C@_0BK@NFDBJLGK@MAJOR_CIV_APPROACH_AFRAID?$AA@
	mov	eax, DWORD PTR _L$[ebp]
	push	eax
	call	?pRegisterEnum@CvLuaEnums@@KAXPAUlua_State@@PBDH@Z ; CvLuaEnums::pRegisterEnum
	add	esp, 12					; 0000000cH

; 799  : 	RegisterEnum(MAJOR_CIV_APPROACH_FRIENDLY);

	push	5
	push	OFFSET ??_C@_0BM@DKMOIKED@MAJOR_CIV_APPROACH_FRIENDLY?$AA@
	mov	ecx, DWORD PTR _L$[ebp]
	push	ecx
	call	?pRegisterEnum@CvLuaEnums@@KAXPAUlua_State@@PBDH@Z ; CvLuaEnums::pRegisterEnum
	add	esp, 12					; 0000000cH

; 800  : 	RegisterEnum(MAJOR_CIV_APPROACH_NEUTRAL);

	push	6
	push	OFFSET ??_C@_0BL@CNGAILNK@MAJOR_CIV_APPROACH_NEUTRAL?$AA@
	mov	edx, DWORD PTR _L$[ebp]
	push	edx
	call	?pRegisterEnum@CvLuaEnums@@KAXPAUlua_State@@PBDH@Z ; CvLuaEnums::pRegisterEnum
	add	esp, 12					; 0000000cH

; 801  : 	RegisterEnum(NUM_MAJOR_CIV_APPROACHES);

	push	7
	push	OFFSET ??_C@_0BJ@BKOHDNCJ@NUM_MAJOR_CIV_APPROACHES?$AA@
	mov	eax, DWORD PTR _L$[ebp]
	push	eax
	call	?pRegisterEnum@CvLuaEnums@@KAXPAUlua_State@@PBDH@Z ; CvLuaEnums::pRegisterEnum
	add	esp, 12					; 0000000cH

; 802  : 	EnumEnd(L);

	mov	ecx, DWORD PTR _L$[ebp]
	push	ecx
	call	?EnumEnd@CvLuaEnums@@KAXPAUlua_State@@@Z ; CvLuaEnums::EnumEnd
	add	esp, 4

; 803  : 
; 804  : 	// MinorCivTraitTypes
; 805  : 	EnumStart(L, "MinorCivTraitTypes");

	push	OFFSET ??_C@_0BD@PAMJPINL@MinorCivTraitTypes?$AA@
	mov	edx, DWORD PTR _L$[ebp]
	push	edx
	call	?EnumStart@CvLuaEnums@@KAXPAUlua_State@@PBD@Z ; CvLuaEnums::EnumStart
	add	esp, 8

; 806  : 	RegisterEnum(NO_MINOR_CIV_TRAIT_TYPE);

	push	-1
	push	OFFSET ??_C@_0BI@OBGCLIHM@NO_MINOR_CIV_TRAIT_TYPE?$AA@
	mov	eax, DWORD PTR _L$[ebp]
	push	eax
	call	?pRegisterEnum@CvLuaEnums@@KAXPAUlua_State@@PBDH@Z ; CvLuaEnums::pRegisterEnum
	add	esp, 12					; 0000000cH

; 807  : 	RegisterEnum(MINOR_CIV_TRAIT_CULTURED);

	push	0
	push	OFFSET ??_C@_0BJ@LDGOLNNE@MINOR_CIV_TRAIT_CULTURED?$AA@
	mov	ecx, DWORD PTR _L$[ebp]
	push	ecx
	call	?pRegisterEnum@CvLuaEnums@@KAXPAUlua_State@@PBDH@Z ; CvLuaEnums::pRegisterEnum
	add	esp, 12					; 0000000cH

; 808  : 	RegisterEnum(MINOR_CIV_TRAIT_MILITARISTIC);

	push	1
	push	OFFSET ??_C@_0BN@IIGJFFHF@MINOR_CIV_TRAIT_MILITARISTIC?$AA@
	mov	edx, DWORD PTR _L$[ebp]
	push	edx
	call	?pRegisterEnum@CvLuaEnums@@KAXPAUlua_State@@PBDH@Z ; CvLuaEnums::pRegisterEnum
	add	esp, 12					; 0000000cH

; 809  : 	RegisterEnum(MINOR_CIV_TRAIT_MARITIME);

	push	2
	push	OFFSET ??_C@_0BJ@KGIEDGJG@MINOR_CIV_TRAIT_MARITIME?$AA@
	mov	eax, DWORD PTR _L$[ebp]
	push	eax
	call	?pRegisterEnum@CvLuaEnums@@KAXPAUlua_State@@PBDH@Z ; CvLuaEnums::pRegisterEnum
	add	esp, 12					; 0000000cH

; 810  : 	RegisterEnum(MINOR_CIV_TRAIT_MERCANTILE);

	push	3
	push	OFFSET ??_C@_0BL@ILMBKEEN@MINOR_CIV_TRAIT_MERCANTILE?$AA@
	mov	ecx, DWORD PTR _L$[ebp]
	push	ecx
	call	?pRegisterEnum@CvLuaEnums@@KAXPAUlua_State@@PBDH@Z ; CvLuaEnums::pRegisterEnum
	add	esp, 12					; 0000000cH

; 811  : 	RegisterEnum(MINOR_CIV_TRAIT_RELIGIOUS);

	push	4
	push	OFFSET ??_C@_0BK@FJEJAPGO@MINOR_CIV_TRAIT_RELIGIOUS?$AA@
	mov	edx, DWORD PTR _L$[ebp]
	push	edx
	call	?pRegisterEnum@CvLuaEnums@@KAXPAUlua_State@@PBDH@Z ; CvLuaEnums::pRegisterEnum
	add	esp, 12					; 0000000cH

; 812  : 	RegisterEnum(NUM_MINOR_CIV_TRAIT_TYPES);

	push	5
	push	OFFSET ??_C@_0BK@LIAALICO@NUM_MINOR_CIV_TRAIT_TYPES?$AA@
	mov	eax, DWORD PTR _L$[ebp]
	push	eax
	call	?pRegisterEnum@CvLuaEnums@@KAXPAUlua_State@@PBDH@Z ; CvLuaEnums::pRegisterEnum
	add	esp, 12					; 0000000cH

; 813  : 	EnumEnd(L);

	mov	ecx, DWORD PTR _L$[ebp]
	push	ecx
	call	?EnumEnd@CvLuaEnums@@KAXPAUlua_State@@@Z ; CvLuaEnums::EnumEnd
	add	esp, 4

; 814  : 
; 815  : 	// MinorCivPersonalityTypes
; 816  : 	EnumStart(L, "MinorCivPersonalityTypes");

	push	OFFSET ??_C@_0BJ@GEOKHAPF@MinorCivPersonalityTypes?$AA@
	mov	edx, DWORD PTR _L$[ebp]
	push	edx
	call	?EnumStart@CvLuaEnums@@KAXPAUlua_State@@PBD@Z ; CvLuaEnums::EnumStart
	add	esp, 8

; 817  : 	RegisterEnum(NO_MINOR_CIV_PERSONALITY_TYPE);

	push	-1
	push	OFFSET ??_C@_0BO@FHICAMFA@NO_MINOR_CIV_PERSONALITY_TYPE?$AA@
	mov	eax, DWORD PTR _L$[ebp]
	push	eax
	call	?pRegisterEnum@CvLuaEnums@@KAXPAUlua_State@@PBDH@Z ; CvLuaEnums::pRegisterEnum
	add	esp, 12					; 0000000cH

; 818  : 	RegisterEnum(MINOR_CIV_PERSONALITY_FRIENDLY);

	push	0
	push	OFFSET ??_C@_0BP@GGHOJBIK@MINOR_CIV_PERSONALITY_FRIENDLY?$AA@
	mov	ecx, DWORD PTR _L$[ebp]
	push	ecx
	call	?pRegisterEnum@CvLuaEnums@@KAXPAUlua_State@@PBDH@Z ; CvLuaEnums::pRegisterEnum
	add	esp, 12					; 0000000cH

; 819  : 	RegisterEnum(MINOR_CIV_PERSONALITY_NEUTRAL);

	push	1
	push	OFFSET ??_C@_0BO@COBBEGGB@MINOR_CIV_PERSONALITY_NEUTRAL?$AA@
	mov	edx, DWORD PTR _L$[ebp]
	push	edx
	call	?pRegisterEnum@CvLuaEnums@@KAXPAUlua_State@@PBDH@Z ; CvLuaEnums::pRegisterEnum
	add	esp, 12					; 0000000cH

; 820  : 	RegisterEnum(MINOR_CIV_PERSONALITY_HOSTILE);

	push	2
	push	OFFSET ??_C@_0BO@MEFFALDB@MINOR_CIV_PERSONALITY_HOSTILE?$AA@
	mov	eax, DWORD PTR _L$[ebp]
	push	eax
	call	?pRegisterEnum@CvLuaEnums@@KAXPAUlua_State@@PBDH@Z ; CvLuaEnums::pRegisterEnum
	add	esp, 12					; 0000000cH

; 821  : 	RegisterEnum(MINOR_CIV_PERSONALITY_IRRATIONAL);

	push	3
	push	OFFSET ??_C@_0CB@KHIJLBKL@MINOR_CIV_PERSONALITY_IRRATIONAL@
	mov	ecx, DWORD PTR _L$[ebp]
	push	ecx
	call	?pRegisterEnum@CvLuaEnums@@KAXPAUlua_State@@PBDH@Z ; CvLuaEnums::pRegisterEnum
	add	esp, 12					; 0000000cH

; 822  : 	RegisterEnum(NUM_MINOR_CIV_PERSONALITY_TYPES);

	push	4
	push	OFFSET ??_C@_0CA@KHDPIIEG@NUM_MINOR_CIV_PERSONALITY_TYPES?$AA@
	mov	edx, DWORD PTR _L$[ebp]
	push	edx
	call	?pRegisterEnum@CvLuaEnums@@KAXPAUlua_State@@PBDH@Z ; CvLuaEnums::pRegisterEnum
	add	esp, 12					; 0000000cH

; 823  : 	EnumEnd(L);

	mov	eax, DWORD PTR _L$[ebp]
	push	eax
	call	?EnumEnd@CvLuaEnums@@KAXPAUlua_State@@@Z ; CvLuaEnums::EnumEnd
	add	esp, 4

; 824  : 
; 825  : 	// MinorCivQuestTypes
; 826  : 	EnumStart(L, "MinorCivQuestTypes");

	push	OFFSET ??_C@_0BD@NDNFDDAP@MinorCivQuestTypes?$AA@
	mov	ecx, DWORD PTR _L$[ebp]
	push	ecx
	call	?EnumStart@CvLuaEnums@@KAXPAUlua_State@@PBD@Z ; CvLuaEnums::EnumStart
	add	esp, 8

; 827  : 	RegisterEnum(NO_MINOR_CIV_QUEST_TYPE);

	push	-1
	push	OFFSET ??_C@_0BI@MCHOHDKI@NO_MINOR_CIV_QUEST_TYPE?$AA@
	mov	edx, DWORD PTR _L$[ebp]
	push	edx
	call	?pRegisterEnum@CvLuaEnums@@KAXPAUlua_State@@PBDH@Z ; CvLuaEnums::pRegisterEnum
	add	esp, 12					; 0000000cH

; 828  : 	RegisterEnum(MINOR_CIV_QUEST_ROUTE);

	push	0
	push	OFFSET ??_C@_0BG@EMGIDIKM@MINOR_CIV_QUEST_ROUTE?$AA@
	mov	eax, DWORD PTR _L$[ebp]
	push	eax
	call	?pRegisterEnum@CvLuaEnums@@KAXPAUlua_State@@PBDH@Z ; CvLuaEnums::pRegisterEnum
	add	esp, 12					; 0000000cH

; 829  : 	RegisterEnum(MINOR_CIV_QUEST_KILL_CAMP);

	push	1
	push	OFFSET ??_C@_0BK@DMKAKKHL@MINOR_CIV_QUEST_KILL_CAMP?$AA@
	mov	ecx, DWORD PTR _L$[ebp]
	push	ecx
	call	?pRegisterEnum@CvLuaEnums@@KAXPAUlua_State@@PBDH@Z ; CvLuaEnums::pRegisterEnum
	add	esp, 12					; 0000000cH

; 830  : 	RegisterEnum(MINOR_CIV_QUEST_CONNECT_RESOURCE);

	push	2
	push	OFFSET ??_C@_0CB@NPGEGEOH@MINOR_CIV_QUEST_CONNECT_RESOURCE@
	mov	edx, DWORD PTR _L$[ebp]
	push	edx
	call	?pRegisterEnum@CvLuaEnums@@KAXPAUlua_State@@PBDH@Z ; CvLuaEnums::pRegisterEnum
	add	esp, 12					; 0000000cH

; 831  : 	RegisterEnum(MINOR_CIV_QUEST_CONSTRUCT_WONDER);

	push	3
	push	OFFSET ??_C@_0CB@FHOGODE@MINOR_CIV_QUEST_CONSTRUCT_WONDER@
	mov	eax, DWORD PTR _L$[ebp]
	push	eax
	call	?pRegisterEnum@CvLuaEnums@@KAXPAUlua_State@@PBDH@Z ; CvLuaEnums::pRegisterEnum
	add	esp, 12					; 0000000cH

; 832  : 	RegisterEnum(MINOR_CIV_QUEST_GREAT_PERSON);

	push	4
	push	OFFSET ??_C@_0BN@IBOGMBMO@MINOR_CIV_QUEST_GREAT_PERSON?$AA@
	mov	ecx, DWORD PTR _L$[ebp]
	push	ecx
	call	?pRegisterEnum@CvLuaEnums@@KAXPAUlua_State@@PBDH@Z ; CvLuaEnums::pRegisterEnum
	add	esp, 12					; 0000000cH

; 833  : 	RegisterEnum(MINOR_CIV_QUEST_KILL_CITY_STATE);

	push	5
	push	OFFSET ??_C@_0CA@GAJEFIEJ@MINOR_CIV_QUEST_KILL_CITY_STATE?$AA@
	mov	edx, DWORD PTR _L$[ebp]
	push	edx
	call	?pRegisterEnum@CvLuaEnums@@KAXPAUlua_State@@PBDH@Z ; CvLuaEnums::pRegisterEnum
	add	esp, 12					; 0000000cH

; 834  : 	RegisterEnum(MINOR_CIV_QUEST_FIND_PLAYER);

	push	6
	push	OFFSET ??_C@_0BM@HHMGOCFL@MINOR_CIV_QUEST_FIND_PLAYER?$AA@
	mov	eax, DWORD PTR _L$[ebp]
	push	eax
	call	?pRegisterEnum@CvLuaEnums@@KAXPAUlua_State@@PBDH@Z ; CvLuaEnums::pRegisterEnum
	add	esp, 12					; 0000000cH

; 835  : 	RegisterEnum(MINOR_CIV_QUEST_FIND_NATURAL_WONDER);

	push	7
	push	OFFSET ??_C@_0CE@EIBIPKBE@MINOR_CIV_QUEST_FIND_NATURAL_WON@
	mov	ecx, DWORD PTR _L$[ebp]
	push	ecx
	call	?pRegisterEnum@CvLuaEnums@@KAXPAUlua_State@@PBDH@Z ; CvLuaEnums::pRegisterEnum
	add	esp, 12					; 0000000cH

; 836  : 	RegisterEnum(MINOR_CIV_QUEST_GIVE_GOLD);

	push	8
	push	OFFSET ??_C@_0BK@GEEMEOFE@MINOR_CIV_QUEST_GIVE_GOLD?$AA@
	mov	edx, DWORD PTR _L$[ebp]
	push	edx
	call	?pRegisterEnum@CvLuaEnums@@KAXPAUlua_State@@PBDH@Z ; CvLuaEnums::pRegisterEnum
	add	esp, 12					; 0000000cH

; 837  : 	RegisterEnum(MINOR_CIV_QUEST_PLEDGE_TO_PROTECT);

	push	9
	push	OFFSET ??_C@_0CC@DGOGPAOJ@MINOR_CIV_QUEST_PLEDGE_TO_PROTEC@
	mov	eax, DWORD PTR _L$[ebp]
	push	eax
	call	?pRegisterEnum@CvLuaEnums@@KAXPAUlua_State@@PBDH@Z ; CvLuaEnums::pRegisterEnum
	add	esp, 12					; 0000000cH

; 838  : 	RegisterEnum(MINOR_CIV_QUEST_CONTEST_CULTURE);

	push	10					; 0000000aH
	push	OFFSET ??_C@_0CA@EGLGIJKE@MINOR_CIV_QUEST_CONTEST_CULTURE?$AA@
	mov	ecx, DWORD PTR _L$[ebp]
	push	ecx
	call	?pRegisterEnum@CvLuaEnums@@KAXPAUlua_State@@PBDH@Z ; CvLuaEnums::pRegisterEnum
	add	esp, 12					; 0000000cH

; 839  : 	RegisterEnum(MINOR_CIV_QUEST_CONTEST_FAITH);

	push	11					; 0000000bH
	push	OFFSET ??_C@_0BO@NPEIGAOO@MINOR_CIV_QUEST_CONTEST_FAITH?$AA@
	mov	edx, DWORD PTR _L$[ebp]
	push	edx
	call	?pRegisterEnum@CvLuaEnums@@KAXPAUlua_State@@PBDH@Z ; CvLuaEnums::pRegisterEnum
	add	esp, 12					; 0000000cH

; 840  : 	RegisterEnum(MINOR_CIV_QUEST_CONTEST_TECHS);

	push	12					; 0000000cH
	push	OFFSET ??_C@_0BO@LHGBBEFE@MINOR_CIV_QUEST_CONTEST_TECHS?$AA@
	mov	eax, DWORD PTR _L$[ebp]
	push	eax
	call	?pRegisterEnum@CvLuaEnums@@KAXPAUlua_State@@PBDH@Z ; CvLuaEnums::pRegisterEnum
	add	esp, 12					; 0000000cH

; 841  : 	RegisterEnum(MINOR_CIV_QUEST_INVEST);

	push	13					; 0000000dH
	push	OFFSET ??_C@_0BH@BINAJBNC@MINOR_CIV_QUEST_INVEST?$AA@
	mov	ecx, DWORD PTR _L$[ebp]
	push	ecx
	call	?pRegisterEnum@CvLuaEnums@@KAXPAUlua_State@@PBDH@Z ; CvLuaEnums::pRegisterEnum
	add	esp, 12					; 0000000cH

; 842  : 	RegisterEnum(MINOR_CIV_QUEST_BULLY_CITY_STATE);

	push	14					; 0000000eH
	push	OFFSET ??_C@_0CB@EHDFANP@MINOR_CIV_QUEST_BULLY_CITY_STATE@
	mov	edx, DWORD PTR _L$[ebp]
	push	edx
	call	?pRegisterEnum@CvLuaEnums@@KAXPAUlua_State@@PBDH@Z ; CvLuaEnums::pRegisterEnum
	add	esp, 12					; 0000000cH

; 843  : 	RegisterEnum(MINOR_CIV_QUEST_DENOUNCE_MAJOR);

	push	15					; 0000000fH
	push	OFFSET ??_C@_0BP@KCFNIMPM@MINOR_CIV_QUEST_DENOUNCE_MAJOR?$AA@
	mov	eax, DWORD PTR _L$[ebp]
	push	eax
	call	?pRegisterEnum@CvLuaEnums@@KAXPAUlua_State@@PBDH@Z ; CvLuaEnums::pRegisterEnum
	add	esp, 12					; 0000000cH

; 844  : 	RegisterEnum(MINOR_CIV_QUEST_SPREAD_RELIGION);

	push	16					; 00000010H
	push	OFFSET ??_C@_0CA@LGKIGCNF@MINOR_CIV_QUEST_SPREAD_RELIGION?$AA@
	mov	ecx, DWORD PTR _L$[ebp]
	push	ecx
	call	?pRegisterEnum@CvLuaEnums@@KAXPAUlua_State@@PBDH@Z ; CvLuaEnums::pRegisterEnum
	add	esp, 12					; 0000000cH

; 845  : 	RegisterEnum(MINOR_CIV_QUEST_TRADE_ROUTE);

	push	17					; 00000011H
	push	OFFSET ??_C@_0BM@CEFHPLND@MINOR_CIV_QUEST_TRADE_ROUTE?$AA@
	mov	edx, DWORD PTR _L$[ebp]
	push	edx
	call	?pRegisterEnum@CvLuaEnums@@KAXPAUlua_State@@PBDH@Z ; CvLuaEnums::pRegisterEnum
	add	esp, 12					; 0000000cH

; 846  : 	RegisterEnum(NUM_MINOR_CIV_QUEST_TYPES);

	push	18					; 00000012H
	push	OFFSET ??_C@_0BK@DJJNLCCI@NUM_MINOR_CIV_QUEST_TYPES?$AA@
	mov	eax, DWORD PTR _L$[ebp]
	push	eax
	call	?pRegisterEnum@CvLuaEnums@@KAXPAUlua_State@@PBDH@Z ; CvLuaEnums::pRegisterEnum
	add	esp, 12					; 0000000cH

; 847  : 	EnumEnd(L);

	mov	ecx, DWORD PTR _L$[ebp]
	push	ecx
	call	?EnumEnd@CvLuaEnums@@KAXPAUlua_State@@@Z ; CvLuaEnums::EnumEnd
	add	esp, 4

; 848  : 
; 849  : 
; 850  : 	// Resource Usage
; 851  : 	EnumStart(L, "ResourceUsageTypes");

	push	OFFSET ??_C@_0BD@KPGMNEDO@ResourceUsageTypes?$AA@
	mov	edx, DWORD PTR _L$[ebp]
	push	edx
	call	?EnumStart@CvLuaEnums@@KAXPAUlua_State@@PBD@Z ; CvLuaEnums::EnumStart
	add	esp, 8

; 852  : 	RegisterEnum(RESOURCEUSAGE_BONUS);

	push	0
	push	OFFSET ??_C@_0BE@FCKHAHKE@RESOURCEUSAGE_BONUS?$AA@
	mov	eax, DWORD PTR _L$[ebp]
	push	eax
	call	?pRegisterEnum@CvLuaEnums@@KAXPAUlua_State@@PBDH@Z ; CvLuaEnums::pRegisterEnum
	add	esp, 12					; 0000000cH

; 853  : 	RegisterEnum(RESOURCEUSAGE_STRATEGIC);

	push	1
	push	OFFSET ??_C@_0BI@NCNDAFGO@RESOURCEUSAGE_STRATEGIC?$AA@
	mov	ecx, DWORD PTR _L$[ebp]
	push	ecx
	call	?pRegisterEnum@CvLuaEnums@@KAXPAUlua_State@@PBDH@Z ; CvLuaEnums::pRegisterEnum
	add	esp, 12					; 0000000cH

; 854  : 	RegisterEnum(RESOURCEUSAGE_LUXURY);

	push	2
	push	OFFSET ??_C@_0BF@KGIAHEFO@RESOURCEUSAGE_LUXURY?$AA@
	mov	edx, DWORD PTR _L$[ebp]
	push	edx
	call	?pRegisterEnum@CvLuaEnums@@KAXPAUlua_State@@PBDH@Z ; CvLuaEnums::pRegisterEnum
	add	esp, 12					; 0000000cH

; 855  : 	RegisterEnum(NUM_RESOURCEUSAGE_TYPES);

	push	3
	push	OFFSET ??_C@_0BI@HIJDDECF@NUM_RESOURCEUSAGE_TYPES?$AA@
	mov	eax, DWORD PTR _L$[ebp]
	push	eax
	call	?pRegisterEnum@CvLuaEnums@@KAXPAUlua_State@@PBDH@Z ; CvLuaEnums::pRegisterEnum
	add	esp, 12					; 0000000cH

; 856  : 	EnumEnd(L);

	mov	ecx, DWORD PTR _L$[ebp]
	push	ecx
	call	?EnumEnd@CvLuaEnums@@KAXPAUlua_State@@@Z ; CvLuaEnums::EnumEnd
	add	esp, 4

; 857  : 
; 858  : 	// CityAIFocusTypes
; 859  : 	EnumStart(L, "CityAIFocusTypes");

	push	OFFSET ??_C@_0BB@NJBNKKKB@CityAIFocusTypes?$AA@
	mov	edx, DWORD PTR _L$[ebp]
	push	edx
	call	?EnumStart@CvLuaEnums@@KAXPAUlua_State@@PBD@Z ; CvLuaEnums::EnumStart
	add	esp, 8

; 860  : 	RegisterEnum(NO_CITY_AI_FOCUS_TYPE);

	push	-1
	push	OFFSET ??_C@_0BG@GLJGGAEJ@NO_CITY_AI_FOCUS_TYPE?$AA@
	mov	eax, DWORD PTR _L$[ebp]
	push	eax
	call	?pRegisterEnum@CvLuaEnums@@KAXPAUlua_State@@PBDH@Z ; CvLuaEnums::pRegisterEnum
	add	esp, 12					; 0000000cH

; 861  : 	RegisterEnum(CITY_AI_FOCUS_TYPE_FOOD);

	push	0
	push	OFFSET ??_C@_0BI@DKAPPOLD@CITY_AI_FOCUS_TYPE_FOOD?$AA@
	mov	ecx, DWORD PTR _L$[ebp]
	push	ecx
	call	?pRegisterEnum@CvLuaEnums@@KAXPAUlua_State@@PBDH@Z ; CvLuaEnums::pRegisterEnum
	add	esp, 12					; 0000000cH

; 862  : 	RegisterEnum(CITY_AI_FOCUS_TYPE_PRODUCTION);

	push	1
	push	OFFSET ??_C@_0BO@EIEEJDDP@CITY_AI_FOCUS_TYPE_PRODUCTION?$AA@
	mov	edx, DWORD PTR _L$[ebp]
	push	edx
	call	?pRegisterEnum@CvLuaEnums@@KAXPAUlua_State@@PBDH@Z ; CvLuaEnums::pRegisterEnum
	add	esp, 12					; 0000000cH

; 863  : 	RegisterEnum(CITY_AI_FOCUS_TYPE_GOLD);

	push	2
	push	OFFSET ??_C@_0BI@FCJGJFK@CITY_AI_FOCUS_TYPE_GOLD?$AA@
	mov	eax, DWORD PTR _L$[ebp]
	push	eax
	call	?pRegisterEnum@CvLuaEnums@@KAXPAUlua_State@@PBDH@Z ; CvLuaEnums::pRegisterEnum
	add	esp, 12					; 0000000cH

; 864  : 	RegisterEnum(CITY_AI_FOCUS_TYPE_GREAT_PEOPLE);

	push	3
	push	OFFSET ??_C@_0CA@HIAKIMD@CITY_AI_FOCUS_TYPE_GREAT_PEOPLE?$AA@
	mov	ecx, DWORD PTR _L$[ebp]
	push	ecx
	call	?pRegisterEnum@CvLuaEnums@@KAXPAUlua_State@@PBDH@Z ; CvLuaEnums::pRegisterEnum
	add	esp, 12					; 0000000cH

; 865  : 	RegisterEnum(CITY_AI_FOCUS_TYPE_SCIENCE);

	push	4
	push	OFFSET ??_C@_0BL@EBEDKJJA@CITY_AI_FOCUS_TYPE_SCIENCE?$AA@
	mov	edx, DWORD PTR _L$[ebp]
	push	edx
	call	?pRegisterEnum@CvLuaEnums@@KAXPAUlua_State@@PBDH@Z ; CvLuaEnums::pRegisterEnum
	add	esp, 12					; 0000000cH

; 866  : 	RegisterEnum(CITY_AI_FOCUS_TYPE_CULTURE);

	push	5
	push	OFFSET ??_C@_0BL@KOEHAHBH@CITY_AI_FOCUS_TYPE_CULTURE?$AA@
	mov	eax, DWORD PTR _L$[ebp]
	push	eax
	call	?pRegisterEnum@CvLuaEnums@@KAXPAUlua_State@@PBDH@Z ; CvLuaEnums::pRegisterEnum
	add	esp, 12					; 0000000cH

; 867  : 	RegisterEnum(CITY_AI_FOCUS_TYPE_PROD_GROWTH);

	push	6
	push	OFFSET ??_C@_0BP@DGAENLBD@CITY_AI_FOCUS_TYPE_PROD_GROWTH?$AA@
	mov	ecx, DWORD PTR _L$[ebp]
	push	ecx
	call	?pRegisterEnum@CvLuaEnums@@KAXPAUlua_State@@PBDH@Z ; CvLuaEnums::pRegisterEnum
	add	esp, 12					; 0000000cH

; 868  : 	RegisterEnum(CITY_AI_FOCUS_TYPE_GOLD_GROWTH);

	push	7
	push	OFFSET ??_C@_0BP@MANBONKP@CITY_AI_FOCUS_TYPE_GOLD_GROWTH?$AA@
	mov	edx, DWORD PTR _L$[ebp]
	push	edx
	call	?pRegisterEnum@CvLuaEnums@@KAXPAUlua_State@@PBDH@Z ; CvLuaEnums::pRegisterEnum
	add	esp, 12					; 0000000cH

; 869  : 	RegisterEnum(CITY_AI_FOCUS_TYPE_FAITH);

	push	8
	push	OFFSET ??_C@_0BJ@OMIPGKAI@CITY_AI_FOCUS_TYPE_FAITH?$AA@
	mov	eax, DWORD PTR _L$[ebp]
	push	eax
	call	?pRegisterEnum@CvLuaEnums@@KAXPAUlua_State@@PBDH@Z ; CvLuaEnums::pRegisterEnum
	add	esp, 12					; 0000000cH

; 870  : 	RegisterEnum(NUM_CITY_AI_FOCUS_TYPES);

	push	9
	push	OFFSET ??_C@_0BI@FCAOCOCL@NUM_CITY_AI_FOCUS_TYPES?$AA@
	mov	ecx, DWORD PTR _L$[ebp]
	push	ecx
	call	?pRegisterEnum@CvLuaEnums@@KAXPAUlua_State@@PBDH@Z ; CvLuaEnums::pRegisterEnum
	add	esp, 12					; 0000000cH

; 871  : 	EnumEnd(L);

	mov	edx, DWORD PTR _L$[ebp]
	push	edx
	call	?EnumEnd@CvLuaEnums@@KAXPAUlua_State@@@Z ; CvLuaEnums::EnumEnd
	add	esp, 4

; 872  : 
; 873  : 	// Resource Usage
; 874  : 	EnumStart(L, "AdvisorTypes");

	push	OFFSET ??_C@_0N@HJFPNGBG@AdvisorTypes?$AA@
	mov	eax, DWORD PTR _L$[ebp]
	push	eax
	call	?EnumStart@CvLuaEnums@@KAXPAUlua_State@@PBD@Z ; CvLuaEnums::EnumStart
	add	esp, 8

; 875  : 	RegisterEnum(NO_ADVISOR_TYPE);

	push	-1
	push	OFFSET ??_C@_0BA@DLFKNPEB@NO_ADVISOR_TYPE?$AA@
	mov	ecx, DWORD PTR _L$[ebp]
	push	ecx
	call	?pRegisterEnum@CvLuaEnums@@KAXPAUlua_State@@PBDH@Z ; CvLuaEnums::pRegisterEnum
	add	esp, 12					; 0000000cH

; 876  : 	RegisterEnum(ADVISOR_ECONOMIC);

	push	1
	push	OFFSET ??_C@_0BB@GIINOANM@ADVISOR_ECONOMIC?$AA@
	mov	edx, DWORD PTR _L$[ebp]
	push	edx
	call	?pRegisterEnum@CvLuaEnums@@KAXPAUlua_State@@PBDH@Z ; CvLuaEnums::pRegisterEnum
	add	esp, 12					; 0000000cH

; 877  : 	RegisterEnum(ADVISOR_MILITARY);

	push	0
	push	OFFSET ??_C@_0BB@JDMANLEI@ADVISOR_MILITARY?$AA@
	mov	eax, DWORD PTR _L$[ebp]
	push	eax
	call	?pRegisterEnum@CvLuaEnums@@KAXPAUlua_State@@PBDH@Z ; CvLuaEnums::pRegisterEnum
	add	esp, 12					; 0000000cH

; 878  : 	RegisterEnum(ADVISOR_FOREIGN);

	push	2
	push	OFFSET ??_C@_0BA@FJIMDFPG@ADVISOR_FOREIGN?$AA@
	mov	ecx, DWORD PTR _L$[ebp]
	push	ecx
	call	?pRegisterEnum@CvLuaEnums@@KAXPAUlua_State@@PBDH@Z ; CvLuaEnums::pRegisterEnum
	add	esp, 12					; 0000000cH

; 879  : 	RegisterEnum(ADVISOR_SCIENCE);

	push	3
	push	OFFSET ??_C@_0BA@LKEMNLDL@ADVISOR_SCIENCE?$AA@
	mov	edx, DWORD PTR _L$[ebp]
	push	edx
	call	?pRegisterEnum@CvLuaEnums@@KAXPAUlua_State@@PBDH@Z ; CvLuaEnums::pRegisterEnum
	add	esp, 12					; 0000000cH

; 880  : 	RegisterEnum(NUM_ADVISOR_TYPES);

	push	4
	push	OFFSET ??_C@_0BC@LIFJNBFD@NUM_ADVISOR_TYPES?$AA@
	mov	eax, DWORD PTR _L$[ebp]
	push	eax
	call	?pRegisterEnum@CvLuaEnums@@KAXPAUlua_State@@PBDH@Z ; CvLuaEnums::pRegisterEnum
	add	esp, 12					; 0000000cH

; 881  : 	EnumEnd(L);

	mov	ecx, DWORD PTR _L$[ebp]
	push	ecx
	call	?EnumEnd@CvLuaEnums@@KAXPAUlua_State@@@Z ; CvLuaEnums::EnumEnd
	add	esp, 4

; 882  : 
; 883  : 	// GenericWorldAnchorTypes
; 884  : 	EnumStart(L, "GenericWorldAnchorTypes");

	push	OFFSET ??_C@_0BI@FCFEPGNF@GenericWorldAnchorTypes?$AA@
	mov	edx, DWORD PTR _L$[ebp]
	push	edx
	call	?EnumStart@CvLuaEnums@@KAXPAUlua_State@@PBD@Z ; CvLuaEnums::EnumStart
	add	esp, 8

; 885  : 	RegisterEnum(NO_WORLD_ANCHOR);

	push	-1
	push	OFFSET ??_C@_0BA@KOAOIMD@NO_WORLD_ANCHOR?$AA@
	mov	eax, DWORD PTR _L$[ebp]
	push	eax
	call	?pRegisterEnum@CvLuaEnums@@KAXPAUlua_State@@PBDH@Z ; CvLuaEnums::pRegisterEnum
	add	esp, 12					; 0000000cH

; 886  : 	RegisterEnum(WORLD_ANCHOR_NATURAL_WONDER);

	push	0
	push	OFFSET ??_C@_0BM@EDHJOEDF@WORLD_ANCHOR_NATURAL_WONDER?$AA@
	mov	ecx, DWORD PTR _L$[ebp]
	push	ecx
	call	?pRegisterEnum@CvLuaEnums@@KAXPAUlua_State@@PBDH@Z ; CvLuaEnums::pRegisterEnum
	add	esp, 12					; 0000000cH

; 887  : 	RegisterEnum(WORLD_ANCHOR_SETTLER);

	push	1
	push	OFFSET ??_C@_0BF@OHLBBHMH@WORLD_ANCHOR_SETTLER?$AA@
	mov	edx, DWORD PTR _L$[ebp]
	push	edx
	call	?pRegisterEnum@CvLuaEnums@@KAXPAUlua_State@@PBDH@Z ; CvLuaEnums::pRegisterEnum
	add	esp, 12					; 0000000cH

; 888  : 	RegisterEnum(WORLD_ANCHOR_WORKER);

	push	2
	push	OFFSET ??_C@_0BE@FEODPKND@WORLD_ANCHOR_WORKER?$AA@
	mov	eax, DWORD PTR _L$[ebp]
	push	eax
	call	?pRegisterEnum@CvLuaEnums@@KAXPAUlua_State@@PBDH@Z ; CvLuaEnums::pRegisterEnum
	add	esp, 12					; 0000000cH

; 889  : 	RegisterEnum(NUM_WORLD_ANCHORS);

	push	3
	push	OFFSET ??_C@_0BC@LLNOIJGI@NUM_WORLD_ANCHORS?$AA@
	mov	ecx, DWORD PTR _L$[ebp]
	push	ecx
	call	?pRegisterEnum@CvLuaEnums@@KAXPAUlua_State@@PBDH@Z ; CvLuaEnums::pRegisterEnum
	add	esp, 12					; 0000000cH

; 890  : 	EnumEnd(L);

	mov	edx, DWORD PTR _L$[ebp]
	push	edx
	call	?EnumEnd@CvLuaEnums@@KAXPAUlua_State@@@Z ; CvLuaEnums::EnumEnd
	add	esp, 4

; 891  : 
; 892  : 	// Game States
; 893  : 	EnumStart(L, "GameStates");

	push	OFFSET ??_C@_0L@OIIGBDCI@GameStates?$AA@
	mov	eax, DWORD PTR _L$[ebp]
	push	eax
	call	?EnumStart@CvLuaEnums@@KAXPAUlua_State@@PBD@Z ; CvLuaEnums::EnumStart
	add	esp, 8

; 894  : 	pRegisterEnum(L, "MainMenu", 0);

	push	0
	push	OFFSET ??_C@_08LKCADIGI@MainMenu?$AA@
	mov	ecx, DWORD PTR _L$[ebp]
	push	ecx
	call	?pRegisterEnum@CvLuaEnums@@KAXPAUlua_State@@PBDH@Z ; CvLuaEnums::pRegisterEnum
	add	esp, 12					; 0000000cH

; 895  : 	pRegisterEnum(L, "MainGameView", 1);

	push	1
	push	OFFSET ??_C@_0N@JGJPONIO@MainGameView?$AA@
	mov	edx, DWORD PTR _L$[ebp]
	push	edx
	call	?pRegisterEnum@CvLuaEnums@@KAXPAUlua_State@@PBDH@Z ; CvLuaEnums::pRegisterEnum
	add	esp, 12					; 0000000cH

; 896  : 	pRegisterEnum(L, "GameLoad", 2);

	push	2
	push	OFFSET ??_C@_08LLNOMLNP@GameLoad?$AA@
	mov	eax, DWORD PTR _L$[ebp]
	push	eax
	call	?pRegisterEnum@CvLuaEnums@@KAXPAUlua_State@@PBDH@Z ; CvLuaEnums::pRegisterEnum
	add	esp, 12					; 0000000cH

; 897  : 	pRegisterEnum(L, "LeaderHead", 3);

	push	3
	push	OFFSET ??_C@_0L@NDMGOFCM@LeaderHead?$AA@
	mov	ecx, DWORD PTR _L$[ebp]
	push	ecx
	call	?pRegisterEnum@CvLuaEnums@@KAXPAUlua_State@@PBDH@Z ; CvLuaEnums::pRegisterEnum
	add	esp, 12					; 0000000cH

; 898  : 	pRegisterEnum(L, "NUM_GAME_STATES", 4);

	push	4
	push	OFFSET ??_C@_0BA@BLHMCJLF@NUM_GAME_STATES?$AA@
	mov	edx, DWORD PTR _L$[ebp]
	push	edx
	call	?pRegisterEnum@CvLuaEnums@@KAXPAUlua_State@@PBDH@Z ; CvLuaEnums::pRegisterEnum
	add	esp, 12					; 0000000cH

; 899  : 	EnumEnd(L);

	mov	eax, DWORD PTR _L$[ebp]
	push	eax
	call	?EnumEnd@CvLuaEnums@@KAXPAUlua_State@@@Z ; CvLuaEnums::EnumEnd
	add	esp, 4

; 900  : 
; 901  : 	// Gameplay Game States (not to be confused with the engine game states above)
; 902  : 	EnumStart(L, "GameplayGameStateTypes");

	push	OFFSET ??_C@_0BH@EOJJHPEK@GameplayGameStateTypes?$AA@
	mov	ecx, DWORD PTR _L$[ebp]
	push	ecx
	call	?EnumStart@CvLuaEnums@@KAXPAUlua_State@@PBD@Z ; CvLuaEnums::EnumStart
	add	esp, 8

; 903  : 	RegisterEnum(GAMESTATE_ON);

	push	0
	push	OFFSET ??_C@_0N@HGNJJAF@GAMESTATE_ON?$AA@
	mov	edx, DWORD PTR _L$[ebp]
	push	edx
	call	?pRegisterEnum@CvLuaEnums@@KAXPAUlua_State@@PBDH@Z ; CvLuaEnums::pRegisterEnum
	add	esp, 12					; 0000000cH

; 904  : 	RegisterEnum(GAMESTATE_OVER);

	push	1
	push	OFFSET ??_C@_0P@JPNFNHEF@GAMESTATE_OVER?$AA@
	mov	eax, DWORD PTR _L$[ebp]
	push	eax
	call	?pRegisterEnum@CvLuaEnums@@KAXPAUlua_State@@PBDH@Z ; CvLuaEnums::pRegisterEnum
	add	esp, 12					; 0000000cH

; 905  : 	RegisterEnum(GAMESTATE_EXTENDED);

	push	2
	push	OFFSET ??_C@_0BD@PGNMOFKI@GAMESTATE_EXTENDED?$AA@
	mov	ecx, DWORD PTR _L$[ebp]
	push	ecx
	call	?pRegisterEnum@CvLuaEnums@@KAXPAUlua_State@@PBDH@Z ; CvLuaEnums::pRegisterEnum
	add	esp, 12					; 0000000cH

; 906  : 	EnumEnd(L);

	mov	edx, DWORD PTR _L$[ebp]
	push	edx
	call	?EnumEnd@CvLuaEnums@@KAXPAUlua_State@@@Z ; CvLuaEnums::EnumEnd
	add	esp, 4

; 907  : 
; 908  : 	//
; 909  : 	EnumStart(L, "CombatPredictionTypes");

	push	OFFSET ??_C@_0BG@FBCCFCBF@CombatPredictionTypes?$AA@
	mov	eax, DWORD PTR _L$[ebp]
	push	eax
	call	?EnumStart@CvLuaEnums@@KAXPAUlua_State@@PBD@Z ; CvLuaEnums::EnumStart
	add	esp, 8

; 910  : 	RegisterEnum(NO_COMBAT_PREDICTION);

	push	-1
	push	OFFSET ??_C@_0BF@ICOKHODD@NO_COMBAT_PREDICTION?$AA@
	mov	ecx, DWORD PTR _L$[ebp]
	push	ecx
	call	?pRegisterEnum@CvLuaEnums@@KAXPAUlua_State@@PBDH@Z ; CvLuaEnums::pRegisterEnum
	add	esp, 12					; 0000000cH

; 911  : 	RegisterEnum(COMBAT_PREDICTION_RANGED);

	push	0
	push	OFFSET ??_C@_0BJ@CPNOHIFD@COMBAT_PREDICTION_RANGED?$AA@
	mov	edx, DWORD PTR _L$[ebp]
	push	edx
	call	?pRegisterEnum@CvLuaEnums@@KAXPAUlua_State@@PBDH@Z ; CvLuaEnums::pRegisterEnum
	add	esp, 12					; 0000000cH

; 912  : 	RegisterEnum(COMBAT_PREDICTION_STALEMATE);

	push	1
	push	OFFSET ??_C@_0BM@PCMGNGLI@COMBAT_PREDICTION_STALEMATE?$AA@
	mov	eax, DWORD PTR _L$[ebp]
	push	eax
	call	?pRegisterEnum@CvLuaEnums@@KAXPAUlua_State@@PBDH@Z ; CvLuaEnums::pRegisterEnum
	add	esp, 12					; 0000000cH

; 913  : 	RegisterEnum(COMBAT_PREDICTION_TOTAL_DEFEAT);

	push	2
	push	OFFSET ??_C@_0BP@IOENFDJ@COMBAT_PREDICTION_TOTAL_DEFEAT?$AA@
	mov	ecx, DWORD PTR _L$[ebp]
	push	ecx
	call	?pRegisterEnum@CvLuaEnums@@KAXPAUlua_State@@PBDH@Z ; CvLuaEnums::pRegisterEnum
	add	esp, 12					; 0000000cH

; 914  : 	RegisterEnum(COMBAT_PREDICTION_TOTAL_VICTORY);

	push	3
	push	OFFSET ??_C@_0CA@CEFFPCOC@COMBAT_PREDICTION_TOTAL_VICTORY?$AA@
	mov	edx, DWORD PTR _L$[ebp]
	push	edx
	call	?pRegisterEnum@CvLuaEnums@@KAXPAUlua_State@@PBDH@Z ; CvLuaEnums::pRegisterEnum
	add	esp, 12					; 0000000cH

; 915  : 	RegisterEnum(COMBAT_PREDICTION_MAJOR_VICTORY);

	push	4
	push	OFFSET ??_C@_0CA@JIGPJJMB@COMBAT_PREDICTION_MAJOR_VICTORY?$AA@
	mov	eax, DWORD PTR _L$[ebp]
	push	eax
	call	?pRegisterEnum@CvLuaEnums@@KAXPAUlua_State@@PBDH@Z ; CvLuaEnums::pRegisterEnum
	add	esp, 12					; 0000000cH

; 916  : 	RegisterEnum(COMBAT_PREDICTION_SMALL_VICTORY);

	push	5
	push	OFFSET ??_C@_0CA@HOOLDKIC@COMBAT_PREDICTION_SMALL_VICTORY?$AA@
	mov	ecx, DWORD PTR _L$[ebp]
	push	ecx
	call	?pRegisterEnum@CvLuaEnums@@KAXPAUlua_State@@PBDH@Z ; CvLuaEnums::pRegisterEnum
	add	esp, 12					; 0000000cH

; 917  : 	RegisterEnum(COMBAT_PREDICTION_MAJOR_DEFEAT);

	push	6
	push	OFFSET ??_C@_0BP@FEAMOMII@COMBAT_PREDICTION_MAJOR_DEFEAT?$AA@
	mov	edx, DWORD PTR _L$[ebp]
	push	edx
	call	?pRegisterEnum@CvLuaEnums@@KAXPAUlua_State@@PBDH@Z ; CvLuaEnums::pRegisterEnum
	add	esp, 12					; 0000000cH

; 918  : 	RegisterEnum(COMBAT_PREDICTION_SMALL_DEFEAT);

	push	7
	push	OFFSET ??_C@_0BP@LDPDKOMH@COMBAT_PREDICTION_SMALL_DEFEAT?$AA@
	mov	eax, DWORD PTR _L$[ebp]
	push	eax
	call	?pRegisterEnum@CvLuaEnums@@KAXPAUlua_State@@PBDH@Z ; CvLuaEnums::pRegisterEnum
	add	esp, 12					; 0000000cH

; 919  : 	RegisterEnum(NUM_COMBAT_PREDICTIONS);

	push	8
	push	OFFSET ??_C@_0BH@NBPMPIEL@NUM_COMBAT_PREDICTIONS?$AA@
	mov	ecx, DWORD PTR _L$[ebp]
	push	ecx
	call	?pRegisterEnum@CvLuaEnums@@KAXPAUlua_State@@PBDH@Z ; CvLuaEnums::pRegisterEnum
	add	esp, 12					; 0000000cH

; 920  : 	EnumEnd(L);

	mov	edx, DWORD PTR _L$[ebp]
	push	edx
	call	?EnumEnd@CvLuaEnums@@KAXPAUlua_State@@@Z ; CvLuaEnums::EnumEnd
	add	esp, 4

; 921  : 
; 922  : 	EnumStart(L, "ChatTargetTypes");

	push	OFFSET ??_C@_0BA@FEIDIHBC@ChatTargetTypes?$AA@
	mov	eax, DWORD PTR _L$[ebp]
	push	eax
	call	?EnumStart@CvLuaEnums@@KAXPAUlua_State@@PBD@Z ; CvLuaEnums::EnumStart
	add	esp, 8

; 923  : 	RegisterEnum(NO_CHATTARGET);

	push	-1
	push	OFFSET ??_C@_0O@FFDOEIFB@NO_CHATTARGET?$AA@
	mov	ecx, DWORD PTR _L$[ebp]
	push	ecx
	call	?pRegisterEnum@CvLuaEnums@@KAXPAUlua_State@@PBDH@Z ; CvLuaEnums::pRegisterEnum
	add	esp, 12					; 0000000cH

; 924  : 	RegisterEnum(CHATTARGET_ALL);

	push	-2					; fffffffeH
	push	OFFSET ??_C@_0P@CFEEEOGK@CHATTARGET_ALL?$AA@
	mov	edx, DWORD PTR _L$[ebp]
	push	edx
	call	?pRegisterEnum@CvLuaEnums@@KAXPAUlua_State@@PBDH@Z ; CvLuaEnums::pRegisterEnum
	add	esp, 12					; 0000000cH

; 925  : 	RegisterEnum(CHATTARGET_TEAM);

	push	-3					; fffffffdH
	push	OFFSET ??_C@_0BA@DFEFDJGL@CHATTARGET_TEAM?$AA@
	mov	eax, DWORD PTR _L$[ebp]
	push	eax
	call	?pRegisterEnum@CvLuaEnums@@KAXPAUlua_State@@PBDH@Z ; CvLuaEnums::pRegisterEnum
	add	esp, 12					; 0000000cH

; 926  : 	RegisterEnum(CHATTARGET_PLAYER);

	push	-4					; fffffffcH
	push	OFFSET ??_C@_0BC@CLOLMKMP@CHATTARGET_PLAYER?$AA@
	mov	ecx, DWORD PTR _L$[ebp]
	push	ecx
	call	?pRegisterEnum@CvLuaEnums@@KAXPAUlua_State@@PBDH@Z ; CvLuaEnums::pRegisterEnum
	add	esp, 12					; 0000000cH

; 927  : 	EnumEnd(L);

	mov	edx, DWORD PTR _L$[ebp]
	push	edx
	call	?EnumEnd@CvLuaEnums@@KAXPAUlua_State@@@Z ; CvLuaEnums::EnumEnd
	add	esp, 4

; 928  : 
; 929  : 	EnumStart(L, "ReligionTypes");

	push	OFFSET ??_C@_0O@KOGJIPBF@ReligionTypes?$AA@
	mov	eax, DWORD PTR _L$[ebp]
	push	eax
	call	?EnumStart@CvLuaEnums@@KAXPAUlua_State@@PBD@Z ; CvLuaEnums::EnumStart
	add	esp, 8

; 930  : 	RegisterEnum(NO_RELIGION);

	push	-1
	push	OFFSET ??_C@_0M@NPABLHNK@NO_RELIGION?$AA@
	mov	ecx, DWORD PTR _L$[ebp]
	push	ecx
	call	?pRegisterEnum@CvLuaEnums@@KAXPAUlua_State@@PBDH@Z ; CvLuaEnums::pRegisterEnum
	add	esp, 12					; 0000000cH

; 931  : 	RegisterEnum(RELIGION_PANTHEON);

	push	0
	push	OFFSET ??_C@_0BC@MAKCGCPP@RELIGION_PANTHEON?$AA@
	mov	edx, DWORD PTR _L$[ebp]
	push	edx
	call	?pRegisterEnum@CvLuaEnums@@KAXPAUlua_State@@PBDH@Z ; CvLuaEnums::pRegisterEnum
	add	esp, 12					; 0000000cH

; 932  : 	EnumEnd(L);

	mov	eax, DWORD PTR _L$[ebp]
	push	eax
	call	?EnumEnd@CvLuaEnums@@KAXPAUlua_State@@@Z ; CvLuaEnums::EnumEnd
	add	esp, 4

; 933  : 
; 934  : 	EnumStart(L, "BeliefTypes");

	push	OFFSET ??_C@_0M@HAGLGFLJ@BeliefTypes?$AA@
	mov	ecx, DWORD PTR _L$[ebp]
	push	ecx
	call	?EnumStart@CvLuaEnums@@KAXPAUlua_State@@PBD@Z ; CvLuaEnums::EnumStart
	add	esp, 8

; 935  : 	RegisterEnum(NO_BELIEF);

	push	-1
	push	OFFSET ??_C@_09DGEHHHPO@NO_BELIEF?$AA@
	mov	edx, DWORD PTR _L$[ebp]
	push	edx
	call	?pRegisterEnum@CvLuaEnums@@KAXPAUlua_State@@PBDH@Z ; CvLuaEnums::pRegisterEnum
	add	esp, 12					; 0000000cH

; 936  : 	EnumEnd(L);

	mov	eax, DWORD PTR _L$[ebp]
	push	eax
	call	?EnumEnd@CvLuaEnums@@KAXPAUlua_State@@@Z ; CvLuaEnums::EnumEnd
	add	esp, 4

; 937  : 
; 938  : 	EnumStart(L, "FaithPurchaseTypes");

	push	OFFSET ??_C@_0BD@NIALIOAE@FaithPurchaseTypes?$AA@
	mov	ecx, DWORD PTR _L$[ebp]
	push	ecx
	call	?EnumStart@CvLuaEnums@@KAXPAUlua_State@@PBD@Z ; CvLuaEnums::EnumStart
	add	esp, 8

; 939  : 	RegisterEnum(NO_AUTOMATIC_FAITH_PURCHASE);

	push	0
	push	OFFSET ??_C@_0BM@KIJACOHA@NO_AUTOMATIC_FAITH_PURCHASE?$AA@
	mov	edx, DWORD PTR _L$[ebp]
	push	edx
	call	?pRegisterEnum@CvLuaEnums@@KAXPAUlua_State@@PBDH@Z ; CvLuaEnums::pRegisterEnum
	add	esp, 12					; 0000000cH

; 940  : 	RegisterEnum(FAITH_PURCHASE_SAVE_PROPHET);

	push	1
	push	OFFSET ??_C@_0BM@GLONHAA@FAITH_PURCHASE_SAVE_PROPHET?$AA@
	mov	eax, DWORD PTR _L$[ebp]
	push	eax
	call	?pRegisterEnum@CvLuaEnums@@KAXPAUlua_State@@PBDH@Z ; CvLuaEnums::pRegisterEnum
	add	esp, 12					; 0000000cH

; 941  : 	RegisterEnum(FAITH_PURCHASE_UNIT);

	push	3
	push	OFFSET ??_C@_0BE@NFNADJPB@FAITH_PURCHASE_UNIT?$AA@
	mov	ecx, DWORD PTR _L$[ebp]
	push	ecx
	call	?pRegisterEnum@CvLuaEnums@@KAXPAUlua_State@@PBDH@Z ; CvLuaEnums::pRegisterEnum
	add	esp, 12					; 0000000cH

; 942  : 	RegisterEnum(FAITH_PURCHASE_BUILDING);

	push	2
	push	OFFSET ??_C@_0BI@OKEHFOJM@FAITH_PURCHASE_BUILDING?$AA@
	mov	edx, DWORD PTR _L$[ebp]
	push	edx
	call	?pRegisterEnum@CvLuaEnums@@KAXPAUlua_State@@PBDH@Z ; CvLuaEnums::pRegisterEnum
	add	esp, 12					; 0000000cH

; 943  : 	EnumEnd(L);

	mov	eax, DWORD PTR _L$[ebp]
	push	eax
	call	?EnumEnd@CvLuaEnums@@KAXPAUlua_State@@@Z ; CvLuaEnums::EnumEnd
	add	esp, 4

; 944  : 
; 945  : 	EnumStart(L, "ResolutionDecisionTypes");

	push	OFFSET ??_C@_0BI@INFPJFGN@ResolutionDecisionTypes?$AA@
	mov	ecx, DWORD PTR _L$[ebp]
	push	ecx
	call	?EnumStart@CvLuaEnums@@KAXPAUlua_State@@PBD@Z ; CvLuaEnums::EnumStart
	add	esp, 8

; 946  : 	RegisterEnum(RESOLUTION_DECISION_NONE);

	push	0
	push	OFFSET ??_C@_0BJ@LAHDOOJC@RESOLUTION_DECISION_NONE?$AA@
	mov	edx, DWORD PTR _L$[ebp]
	push	edx
	call	?pRegisterEnum@CvLuaEnums@@KAXPAUlua_State@@PBDH@Z ; CvLuaEnums::pRegisterEnum
	add	esp, 12					; 0000000cH

; 947  : 	RegisterEnum(RESOLUTION_DECISION_YES_OR_NO);

	push	1
	push	OFFSET ??_C@_0BO@HJAOAFFJ@RESOLUTION_DECISION_YES_OR_NO?$AA@
	mov	eax, DWORD PTR _L$[ebp]
	push	eax
	call	?pRegisterEnum@CvLuaEnums@@KAXPAUlua_State@@PBDH@Z ; CvLuaEnums::pRegisterEnum
	add	esp, 12					; 0000000cH

; 948  : 	RegisterEnum(RESOLUTION_DECISION_ANY_MEMBER);

	push	2
	push	OFFSET ??_C@_0BP@DHJFFBOC@RESOLUTION_DECISION_ANY_MEMBER?$AA@
	mov	ecx, DWORD PTR _L$[ebp]
	push	ecx
	call	?pRegisterEnum@CvLuaEnums@@KAXPAUlua_State@@PBDH@Z ; CvLuaEnums::pRegisterEnum
	add	esp, 12					; 0000000cH

; 949  : 	RegisterEnum(RESOLUTION_DECISION_CITY);

	push	3
	push	OFFSET ??_C@_0BJ@JKEOAOAE@RESOLUTION_DECISION_CITY?$AA@
	mov	edx, DWORD PTR _L$[ebp]
	push	edx
	call	?pRegisterEnum@CvLuaEnums@@KAXPAUlua_State@@PBDH@Z ; CvLuaEnums::pRegisterEnum
	add	esp, 12					; 0000000cH

; 950  : 	RegisterEnum(RESOLUTION_DECISION_ANY_LUXURY_RESOURCE);

	push	4
	push	OFFSET ??_C@_0CI@EENNHHLF@RESOLUTION_DECISION_ANY_LUXURY_R@
	mov	eax, DWORD PTR _L$[ebp]
	push	eax
	call	?pRegisterEnum@CvLuaEnums@@KAXPAUlua_State@@PBDH@Z ; CvLuaEnums::pRegisterEnum
	add	esp, 12					; 0000000cH

; 951  : 	RegisterEnum(RESOLUTION_DECISION_REPEAL);

	push	5
	push	OFFSET ??_C@_0BL@PHGEIMFF@RESOLUTION_DECISION_REPEAL?$AA@
	mov	ecx, DWORD PTR _L$[ebp]
	push	ecx
	call	?pRegisterEnum@CvLuaEnums@@KAXPAUlua_State@@PBDH@Z ; CvLuaEnums::pRegisterEnum
	add	esp, 12					; 0000000cH

; 952  : 	RegisterEnum(RESOLUTION_DECISION_MAJOR_CIV_MEMBER);

	push	6
	push	OFFSET ??_C@_0CF@BJHHEGHD@RESOLUTION_DECISION_MAJOR_CIV_ME@
	mov	edx, DWORD PTR _L$[ebp]
	push	edx
	call	?pRegisterEnum@CvLuaEnums@@KAXPAUlua_State@@PBDH@Z ; CvLuaEnums::pRegisterEnum
	add	esp, 12					; 0000000cH

; 953  : 	RegisterEnum(RESOLUTION_DECISION_OTHER_MAJOR_CIV_MEMBER);

	push	7
	push	OFFSET ??_C@_0CL@JCFMEOFK@RESOLUTION_DECISION_OTHER_MAJOR_@
	mov	eax, DWORD PTR _L$[ebp]
	push	eax
	call	?pRegisterEnum@CvLuaEnums@@KAXPAUlua_State@@PBDH@Z ; CvLuaEnums::pRegisterEnum
	add	esp, 12					; 0000000cH

; 954  : 	RegisterEnum(NUM_RESOLUTION_DECISIONS);

	push	10					; 0000000aH
	push	OFFSET ??_C@_0BJ@DFAPAKNB@NUM_RESOLUTION_DECISIONS?$AA@
	mov	ecx, DWORD PTR _L$[ebp]
	push	ecx
	call	?pRegisterEnum@CvLuaEnums@@KAXPAUlua_State@@PBDH@Z ; CvLuaEnums::pRegisterEnum
	add	esp, 12					; 0000000cH

; 955  : 	EnumEnd(L);

	mov	edx, DWORD PTR _L$[ebp]
	push	edx
	call	?EnumEnd@CvLuaEnums@@KAXPAUlua_State@@@Z ; CvLuaEnums::EnumEnd
	add	esp, 4

; 956  : 
; 957  : 	EnumStart(L, "InfluenceLevelTypes");

	push	OFFSET ??_C@_0BE@KDAJDBMG@InfluenceLevelTypes?$AA@
	mov	eax, DWORD PTR _L$[ebp]
	push	eax
	call	?EnumStart@CvLuaEnums@@KAXPAUlua_State@@PBD@Z ; CvLuaEnums::EnumStart
	add	esp, 8

; 958  : 	RegisterEnum(NO_INFLUENCE_LEVEL);

	push	-1
	push	OFFSET ??_C@_0BD@IKBNBPIE@NO_INFLUENCE_LEVEL?$AA@
	mov	ecx, DWORD PTR _L$[ebp]
	push	ecx
	call	?pRegisterEnum@CvLuaEnums@@KAXPAUlua_State@@PBDH@Z ; CvLuaEnums::pRegisterEnum
	add	esp, 12					; 0000000cH

; 959  : 	RegisterEnum(INFLUENCE_LEVEL_UNKNOWN);

	push	0
	push	OFFSET ??_C@_0BI@MNFAPHPI@INFLUENCE_LEVEL_UNKNOWN?$AA@
	mov	edx, DWORD PTR _L$[ebp]
	push	edx
	call	?pRegisterEnum@CvLuaEnums@@KAXPAUlua_State@@PBDH@Z ; CvLuaEnums::pRegisterEnum
	add	esp, 12					; 0000000cH

; 960  : 	RegisterEnum(INFLUENCE_LEVEL_EXOTIC);

	push	1
	push	OFFSET ??_C@_0BH@EEMDMAPG@INFLUENCE_LEVEL_EXOTIC?$AA@
	mov	eax, DWORD PTR _L$[ebp]
	push	eax
	call	?pRegisterEnum@CvLuaEnums@@KAXPAUlua_State@@PBDH@Z ; CvLuaEnums::pRegisterEnum
	add	esp, 12					; 0000000cH

; 961  : 	RegisterEnum(INFLUENCE_LEVEL_FAMILIAR);

	push	2
	push	OFFSET ??_C@_0BJ@PFKEGBNE@INFLUENCE_LEVEL_FAMILIAR?$AA@
	mov	ecx, DWORD PTR _L$[ebp]
	push	ecx
	call	?pRegisterEnum@CvLuaEnums@@KAXPAUlua_State@@PBDH@Z ; CvLuaEnums::pRegisterEnum
	add	esp, 12					; 0000000cH

; 962  : 	RegisterEnum(INFLUENCE_LEVEL_POPULAR);

	push	3
	push	OFFSET ??_C@_0BI@LBIPILJC@INFLUENCE_LEVEL_POPULAR?$AA@
	mov	edx, DWORD PTR _L$[ebp]
	push	edx
	call	?pRegisterEnum@CvLuaEnums@@KAXPAUlua_State@@PBDH@Z ; CvLuaEnums::pRegisterEnum
	add	esp, 12					; 0000000cH

; 963  : 	RegisterEnum(INFLUENCE_LEVEL_INFLUENTIAL);

	push	4
	push	OFFSET ??_C@_0BM@GFAMICEJ@INFLUENCE_LEVEL_INFLUENTIAL?$AA@
	mov	eax, DWORD PTR _L$[ebp]
	push	eax
	call	?pRegisterEnum@CvLuaEnums@@KAXPAUlua_State@@PBDH@Z ; CvLuaEnums::pRegisterEnum
	add	esp, 12					; 0000000cH

; 964  : 	RegisterEnum(INFLUENCE_LEVEL_DOMINANT);

	push	5
	push	OFFSET ??_C@_0BJ@CMKKMAFE@INFLUENCE_LEVEL_DOMINANT?$AA@
	mov	ecx, DWORD PTR _L$[ebp]
	push	ecx
	call	?pRegisterEnum@CvLuaEnums@@KAXPAUlua_State@@PBDH@Z ; CvLuaEnums::pRegisterEnum
	add	esp, 12					; 0000000cH

; 965  : 	EnumEnd(L);

	mov	edx, DWORD PTR _L$[ebp]
	push	edx
	call	?EnumEnd@CvLuaEnums@@KAXPAUlua_State@@@Z ; CvLuaEnums::EnumEnd
	add	esp, 4

; 966  : 
; 967  : 	EnumStart(L, "InfluenceLevelTrend");

	push	OFFSET ??_C@_0BE@LKMIMMAN@InfluenceLevelTrend?$AA@
	mov	eax, DWORD PTR _L$[ebp]
	push	eax
	call	?EnumStart@CvLuaEnums@@KAXPAUlua_State@@PBD@Z ; CvLuaEnums::EnumStart
	add	esp, 8

; 968  : 	RegisterEnum(INFLUENCE_TREND_FALLING);

	push	-1
	push	OFFSET ??_C@_0BI@JOFINEAP@INFLUENCE_TREND_FALLING?$AA@
	mov	ecx, DWORD PTR _L$[ebp]
	push	ecx
	call	?pRegisterEnum@CvLuaEnums@@KAXPAUlua_State@@PBDH@Z ; CvLuaEnums::pRegisterEnum
	add	esp, 12					; 0000000cH

; 969  : 	RegisterEnum(INFLUENCE_TREND_STATIC);

	push	0
	push	OFFSET ??_C@_0BH@GKJHJNPJ@INFLUENCE_TREND_STATIC?$AA@
	mov	edx, DWORD PTR _L$[ebp]
	push	edx
	call	?pRegisterEnum@CvLuaEnums@@KAXPAUlua_State@@PBDH@Z ; CvLuaEnums::pRegisterEnum
	add	esp, 12					; 0000000cH

; 970  : 	RegisterEnum(INFLUENCE_TREND_RISING);

	push	1
	push	OFFSET ??_C@_0BH@KKNIBPCJ@INFLUENCE_TREND_RISING?$AA@
	mov	eax, DWORD PTR _L$[ebp]
	push	eax
	call	?pRegisterEnum@CvLuaEnums@@KAXPAUlua_State@@PBDH@Z ; CvLuaEnums::pRegisterEnum
	add	esp, 12					; 0000000cH

; 971  : 	EnumEnd(L);

	mov	ecx, DWORD PTR _L$[ebp]
	push	ecx
	call	?EnumEnd@CvLuaEnums@@KAXPAUlua_State@@@Z ; CvLuaEnums::EnumEnd
	add	esp, 4

; 972  : 
; 973  : 	EnumStart(L, "PublicOpinionTypes");

	push	OFFSET ??_C@_0BD@JBALNFJM@PublicOpinionTypes?$AA@
	mov	edx, DWORD PTR _L$[ebp]
	push	edx
	call	?EnumStart@CvLuaEnums@@KAXPAUlua_State@@PBD@Z ; CvLuaEnums::EnumStart
	add	esp, 8

; 974  : 	RegisterEnum(NO_PUBLIC_OPINION);

	push	-1
	push	OFFSET ??_C@_0BC@LJAFBKKC@NO_PUBLIC_OPINION?$AA@
	mov	eax, DWORD PTR _L$[ebp]
	push	eax
	call	?pRegisterEnum@CvLuaEnums@@KAXPAUlua_State@@PBDH@Z ; CvLuaEnums::pRegisterEnum
	add	esp, 12					; 0000000cH

; 975  : 	RegisterEnum(PUBLIC_OPINION_CONTENT);

	push	0
	push	OFFSET ??_C@_0BH@LOALHDOD@PUBLIC_OPINION_CONTENT?$AA@
	mov	ecx, DWORD PTR _L$[ebp]
	push	ecx
	call	?pRegisterEnum@CvLuaEnums@@KAXPAUlua_State@@PBDH@Z ; CvLuaEnums::pRegisterEnum
	add	esp, 12					; 0000000cH

; 976  : 	RegisterEnum(PUBLIC_OPINION_DISSIDENTS);

	push	1
	push	OFFSET ??_C@_0BK@PBFIAENE@PUBLIC_OPINION_DISSIDENTS?$AA@
	mov	edx, DWORD PTR _L$[ebp]
	push	edx
	call	?pRegisterEnum@CvLuaEnums@@KAXPAUlua_State@@PBDH@Z ; CvLuaEnums::pRegisterEnum
	add	esp, 12					; 0000000cH

; 977  : 	RegisterEnum(PUBLIC_OPINION_CIVIL_RESISTANCE);

	push	2
	push	OFFSET ??_C@_0CA@JDDKBNPF@PUBLIC_OPINION_CIVIL_RESISTANCE?$AA@
	mov	eax, DWORD PTR _L$[ebp]
	push	eax
	call	?pRegisterEnum@CvLuaEnums@@KAXPAUlua_State@@PBDH@Z ; CvLuaEnums::pRegisterEnum
	add	esp, 12					; 0000000cH

; 978  : 	RegisterEnum(PUBLIC_OPINION_REVOLUTIONARY_WAVE);

	push	3
	push	OFFSET ??_C@_0CC@JHDCGLKF@PUBLIC_OPINION_REVOLUTIONARY_WAV@
	mov	ecx, DWORD PTR _L$[ebp]
	push	ecx
	call	?pRegisterEnum@CvLuaEnums@@KAXPAUlua_State@@PBDH@Z ; CvLuaEnums::pRegisterEnum
	add	esp, 12					; 0000000cH

; 979  : 	EnumEnd(L);

	mov	edx, DWORD PTR _L$[ebp]
	push	edx
	call	?EnumEnd@CvLuaEnums@@KAXPAUlua_State@@@Z ; CvLuaEnums::EnumEnd
	add	esp, 4

; 980  : 
; 981  : 	EnumStart(L, "ControlTypes");

	push	OFFSET ??_C@_0N@IOGOBLFF@ControlTypes?$AA@
	mov	eax, DWORD PTR _L$[ebp]
	push	eax
	call	?EnumStart@CvLuaEnums@@KAXPAUlua_State@@PBD@Z ; CvLuaEnums::EnumStart
	add	esp, 8

; 982  : 	RegisterEnum(NO_CONTROL);

	push	-1
	push	OFFSET ??_C@_0L@HJICGBCE@NO_CONTROL?$AA@
	mov	ecx, DWORD PTR _L$[ebp]
	push	ecx
	call	?pRegisterEnum@CvLuaEnums@@KAXPAUlua_State@@PBDH@Z ; CvLuaEnums::pRegisterEnum
	add	esp, 12					; 0000000cH

; 983  : 	RegisterEnum(CONTROL_CENTERONSELECTION);

	push	0
	push	OFFSET ??_C@_0BK@PBEBNHEP@CONTROL_CENTERONSELECTION?$AA@
	mov	edx, DWORD PTR _L$[ebp]
	push	edx
	call	?pRegisterEnum@CvLuaEnums@@KAXPAUlua_State@@PBDH@Z ; CvLuaEnums::pRegisterEnum
	add	esp, 12					; 0000000cH

; 984  : 	RegisterEnum(CONTROL_SELECTYUNITTYPE);

	push	1
	push	OFFSET ??_C@_0BI@HFCOICK@CONTROL_SELECTYUNITTYPE?$AA@
	mov	eax, DWORD PTR _L$[ebp]
	push	eax
	call	?pRegisterEnum@CvLuaEnums@@KAXPAUlua_State@@PBDH@Z ; CvLuaEnums::pRegisterEnum
	add	esp, 12					; 0000000cH

; 985  : 	RegisterEnum(CONTROL_SELECTYUNITALL);

	push	2
	push	OFFSET ??_C@_0BH@KCMHBNHA@CONTROL_SELECTYUNITALL?$AA@
	mov	ecx, DWORD PTR _L$[ebp]
	push	ecx
	call	?pRegisterEnum@CvLuaEnums@@KAXPAUlua_State@@PBDH@Z ; CvLuaEnums::pRegisterEnum
	add	esp, 12					; 0000000cH

; 986  : 	RegisterEnum(CONTROL_SELECTCITY);

	push	3
	push	OFFSET ??_C@_0BD@ENAFBBA@CONTROL_SELECTCITY?$AA@
	mov	edx, DWORD PTR _L$[ebp]
	push	edx
	call	?pRegisterEnum@CvLuaEnums@@KAXPAUlua_State@@PBDH@Z ; CvLuaEnums::pRegisterEnum
	add	esp, 12					; 0000000cH

; 987  : 	RegisterEnum(CONTROL_SELECTCAPITAL);

	push	4
	push	OFFSET ??_C@_0BG@JIDAPJEN@CONTROL_SELECTCAPITAL?$AA@
	mov	eax, DWORD PTR _L$[ebp]
	push	eax
	call	?pRegisterEnum@CvLuaEnums@@KAXPAUlua_State@@PBDH@Z ; CvLuaEnums::pRegisterEnum
	add	esp, 12					; 0000000cH

; 988  : 	RegisterEnum(CONTROL_NEXTCITY);

	push	5
	push	OFFSET ??_C@_0BB@DHJANGFI@CONTROL_NEXTCITY?$AA@
	mov	ecx, DWORD PTR _L$[ebp]
	push	ecx
	call	?pRegisterEnum@CvLuaEnums@@KAXPAUlua_State@@PBDH@Z ; CvLuaEnums::pRegisterEnum
	add	esp, 12					; 0000000cH

; 989  : 	RegisterEnum(CONTROL_PREVCITY);

	push	6
	push	OFFSET ??_C@_0BB@GOCNCLIM@CONTROL_PREVCITY?$AA@
	mov	edx, DWORD PTR _L$[ebp]
	push	edx
	call	?pRegisterEnum@CvLuaEnums@@KAXPAUlua_State@@PBDH@Z ; CvLuaEnums::pRegisterEnum
	add	esp, 12					; 0000000cH

; 990  : 	RegisterEnum(CONTROL_NEXTUNIT);

	push	7
	push	OFFSET ??_C@_0BB@OELHMCKN@CONTROL_NEXTUNIT?$AA@
	mov	eax, DWORD PTR _L$[ebp]
	push	eax
	call	?pRegisterEnum@CvLuaEnums@@KAXPAUlua_State@@PBDH@Z ; CvLuaEnums::pRegisterEnum
	add	esp, 12					; 0000000cH

; 991  : 	RegisterEnum(CONTROL_PREVUNIT);

	push	8
	push	OFFSET ??_C@_0BB@LNAKDPHJ@CONTROL_PREVUNIT?$AA@
	mov	ecx, DWORD PTR _L$[ebp]
	push	ecx
	call	?pRegisterEnum@CvLuaEnums@@KAXPAUlua_State@@PBDH@Z ; CvLuaEnums::pRegisterEnum
	add	esp, 12					; 0000000cH

; 992  : 	RegisterEnum(CONTROL_CYCLEUNIT);

	push	9
	push	OFFSET ??_C@_0BC@CBHBJJFE@CONTROL_CYCLEUNIT?$AA@
	mov	edx, DWORD PTR _L$[ebp]
	push	edx
	call	?pRegisterEnum@CvLuaEnums@@KAXPAUlua_State@@PBDH@Z ; CvLuaEnums::pRegisterEnum
	add	esp, 12					; 0000000cH

; 993  : 	RegisterEnum(CONTROL_CYCLEUNIT_ALT);

	push	10					; 0000000aH
	push	OFFSET ??_C@_0BG@PCFMMINF@CONTROL_CYCLEUNIT_ALT?$AA@
	mov	eax, DWORD PTR _L$[ebp]
	push	eax
	call	?pRegisterEnum@CvLuaEnums@@KAXPAUlua_State@@PBDH@Z ; CvLuaEnums::pRegisterEnum
	add	esp, 12					; 0000000cH

; 994  : 	RegisterEnum(CONTROL_CYCLEWORKER);

	push	11					; 0000000bH
	push	OFFSET ??_C@_0BE@OKFBMBOK@CONTROL_CYCLEWORKER?$AA@
	mov	ecx, DWORD PTR _L$[ebp]
	push	ecx
	call	?pRegisterEnum@CvLuaEnums@@KAXPAUlua_State@@PBDH@Z ; CvLuaEnums::pRegisterEnum
	add	esp, 12					; 0000000cH

; 995  : 	RegisterEnum(CONTROL_LASTUNIT);

	push	12					; 0000000cH
	push	OFFSET ??_C@_0BB@EMAMLACL@CONTROL_LASTUNIT?$AA@
	mov	edx, DWORD PTR _L$[ebp]
	push	edx
	call	?pRegisterEnum@CvLuaEnums@@KAXPAUlua_State@@PBDH@Z ; CvLuaEnums::pRegisterEnum
	add	esp, 12					; 0000000cH

; 996  : 	RegisterEnum(CONTROL_ENDTURN);

	push	13					; 0000000dH
	push	OFFSET ??_C@_0BA@KEAPHFPO@CONTROL_ENDTURN?$AA@
	mov	eax, DWORD PTR _L$[ebp]
	push	eax
	call	?pRegisterEnum@CvLuaEnums@@KAXPAUlua_State@@PBDH@Z ; CvLuaEnums::pRegisterEnum
	add	esp, 12					; 0000000cH

; 997  : 	RegisterEnum(CONTROL_ENDTURN_ALT);

	push	14					; 0000000eH
	push	OFFSET ??_C@_0BE@FMBMDLKH@CONTROL_ENDTURN_ALT?$AA@
	mov	ecx, DWORD PTR _L$[ebp]
	push	ecx
	call	?pRegisterEnum@CvLuaEnums@@KAXPAUlua_State@@PBDH@Z ; CvLuaEnums::pRegisterEnum
	add	esp, 12					; 0000000cH

; 998  : 	RegisterEnum(CONTROL_FORCEENDTURN);

	push	15					; 0000000fH
	push	OFFSET ??_C@_0BF@LBHJAIAN@CONTROL_FORCEENDTURN?$AA@
	mov	edx, DWORD PTR _L$[ebp]
	push	edx
	call	?pRegisterEnum@CvLuaEnums@@KAXPAUlua_State@@PBDH@Z ; CvLuaEnums::pRegisterEnum
	add	esp, 12					; 0000000cH

; 999  : 	RegisterEnum(CONTROL_AUTOMOVES);

	push	16					; 00000010H
	push	OFFSET ??_C@_0BC@JBNDIFEP@CONTROL_AUTOMOVES?$AA@
	mov	eax, DWORD PTR _L$[ebp]
	push	eax
	call	?pRegisterEnum@CvLuaEnums@@KAXPAUlua_State@@PBDH@Z ; CvLuaEnums::pRegisterEnum
	add	esp, 12					; 0000000cH

; 1000 : 	RegisterEnum(CONTROL_PING);

	push	17					; 00000011H
	push	OFFSET ??_C@_0N@EPKDMFKI@CONTROL_PING?$AA@
	mov	ecx, DWORD PTR _L$[ebp]
	push	ecx
	call	?pRegisterEnum@CvLuaEnums@@KAXPAUlua_State@@PBDH@Z ; CvLuaEnums::pRegisterEnum
	add	esp, 12					; 0000000cH

; 1001 : 	RegisterEnum(CONTROL_YIELDS);

	push	18					; 00000012H
	push	OFFSET ??_C@_0P@FOJMJHDF@CONTROL_YIELDS?$AA@
	mov	edx, DWORD PTR _L$[ebp]
	push	edx
	call	?pRegisterEnum@CvLuaEnums@@KAXPAUlua_State@@PBDH@Z ; CvLuaEnums::pRegisterEnum
	add	esp, 12					; 0000000cH

; 1002 : 	RegisterEnum(CONTROL_RESOURCE_ALL);

	push	19					; 00000013H
	push	OFFSET ??_C@_0BF@IFCMGGJ@CONTROL_RESOURCE_ALL?$AA@
	mov	eax, DWORD PTR _L$[ebp]
	push	eax
	call	?pRegisterEnum@CvLuaEnums@@KAXPAUlua_State@@PBDH@Z ; CvLuaEnums::pRegisterEnum
	add	esp, 12					; 0000000cH

; 1003 : 	RegisterEnum(CONTROL_UNIT_ICONS);

	push	20					; 00000014H
	push	OFFSET ??_C@_0BD@DPAAGCFB@CONTROL_UNIT_ICONS?$AA@
	mov	ecx, DWORD PTR _L$[ebp]
	push	ecx
	call	?pRegisterEnum@CvLuaEnums@@KAXPAUlua_State@@PBDH@Z ; CvLuaEnums::pRegisterEnum
	add	esp, 12					; 0000000cH

; 1004 : 	RegisterEnum(CONTROL_SCORES);

	push	21					; 00000015H
	push	OFFSET ??_C@_0P@KAMDLJCH@CONTROL_SCORES?$AA@
	mov	edx, DWORD PTR _L$[ebp]
	push	edx
	call	?pRegisterEnum@CvLuaEnums@@KAXPAUlua_State@@PBDH@Z ; CvLuaEnums::pRegisterEnum
	add	esp, 12					; 0000000cH

; 1005 : 	RegisterEnum(CONTROL_LOAD_GAME);

	push	22					; 00000016H
	push	OFFSET ??_C@_0BC@MKLEMOLN@CONTROL_LOAD_GAME?$AA@
	mov	eax, DWORD PTR _L$[ebp]
	push	eax
	call	?pRegisterEnum@CvLuaEnums@@KAXPAUlua_State@@PBDH@Z ; CvLuaEnums::pRegisterEnum
	add	esp, 12					; 0000000cH

; 1006 : 	RegisterEnum(CONTROL_OPTIONS_SCREEN);

	push	23					; 00000017H
	push	OFFSET ??_C@_0BH@OGALBMO@CONTROL_OPTIONS_SCREEN?$AA@
	mov	ecx, DWORD PTR _L$[ebp]
	push	ecx
	call	?pRegisterEnum@CvLuaEnums@@KAXPAUlua_State@@PBDH@Z ; CvLuaEnums::pRegisterEnum
	add	esp, 12					; 0000000cH

; 1007 : 	RegisterEnum(CONTROL_RETIRE);

	push	24					; 00000018H
	push	OFFSET ??_C@_0P@EFDECHKB@CONTROL_RETIRE?$AA@
	mov	edx, DWORD PTR _L$[ebp]
	push	edx
	call	?pRegisterEnum@CvLuaEnums@@KAXPAUlua_State@@PBDH@Z ; CvLuaEnums::pRegisterEnum
	add	esp, 12					; 0000000cH

; 1008 : 	RegisterEnum(CONTROL_SAVE_GROUP);

	push	25					; 00000019H
	push	OFFSET ??_C@_0BD@LJACIPJK@CONTROL_SAVE_GROUP?$AA@
	mov	eax, DWORD PTR _L$[ebp]
	push	eax
	call	?pRegisterEnum@CvLuaEnums@@KAXPAUlua_State@@PBDH@Z ; CvLuaEnums::pRegisterEnum
	add	esp, 12					; 0000000cH

; 1009 : 	RegisterEnum(CONTROL_SAVE_NORMAL);

	push	26					; 0000001aH
	push	OFFSET ??_C@_0BE@HGEGMJEO@CONTROL_SAVE_NORMAL?$AA@
	mov	ecx, DWORD PTR _L$[ebp]
	push	ecx
	call	?pRegisterEnum@CvLuaEnums@@KAXPAUlua_State@@PBDH@Z ; CvLuaEnums::pRegisterEnum
	add	esp, 12					; 0000000cH

; 1010 : 	RegisterEnum(CONTROL_QUICK_SAVE);

	push	27					; 0000001bH
	push	OFFSET ??_C@_0BD@OOGFKNAL@CONTROL_QUICK_SAVE?$AA@
	mov	edx, DWORD PTR _L$[ebp]
	push	edx
	call	?pRegisterEnum@CvLuaEnums@@KAXPAUlua_State@@PBDH@Z ; CvLuaEnums::pRegisterEnum
	add	esp, 12					; 0000000cH

; 1011 : 	RegisterEnum(CONTROL_QUICK_LOAD);

	push	28					; 0000001cH
	push	OFFSET ??_C@_0BD@OMHIFONP@CONTROL_QUICK_LOAD?$AA@
	mov	eax, DWORD PTR _L$[ebp]
	push	eax
	call	?pRegisterEnum@CvLuaEnums@@KAXPAUlua_State@@PBDH@Z ; CvLuaEnums::pRegisterEnum
	add	esp, 12					; 0000000cH

; 1012 : 	RegisterEnum(CONTROL_CIVILOPEDIA);

	push	29					; 0000001dH
	push	OFFSET ??_C@_0BE@JEBPJADM@CONTROL_CIVILOPEDIA?$AA@
	mov	ecx, DWORD PTR _L$[ebp]
	push	ecx
	call	?pRegisterEnum@CvLuaEnums@@KAXPAUlua_State@@PBDH@Z ; CvLuaEnums::pRegisterEnum
	add	esp, 12					; 0000000cH

; 1013 : 	RegisterEnum(CONTROL_POLICIES_SCREEN);

	push	30					; 0000001eH
	push	OFFSET ??_C@_0BI@PJDPGMNE@CONTROL_POLICIES_SCREEN?$AA@
	mov	edx, DWORD PTR _L$[ebp]
	push	edx
	call	?pRegisterEnum@CvLuaEnums@@KAXPAUlua_State@@PBDH@Z ; CvLuaEnums::pRegisterEnum
	add	esp, 12					; 0000000cH

; 1014 : 	RegisterEnum(CONTROL_FOREIGN_SCREEN);

	push	31					; 0000001fH
	push	OFFSET ??_C@_0BH@KEPEPIMI@CONTROL_FOREIGN_SCREEN?$AA@
	mov	eax, DWORD PTR _L$[ebp]
	push	eax
	call	?pRegisterEnum@CvLuaEnums@@KAXPAUlua_State@@PBDH@Z ; CvLuaEnums::pRegisterEnum
	add	esp, 12					; 0000000cH

; 1015 : 	RegisterEnum(CONTROL_MILITARY_SCREEN);

	push	32					; 00000020H
	push	OFFSET ??_C@_0BI@KGLHDBNI@CONTROL_MILITARY_SCREEN?$AA@
	mov	ecx, DWORD PTR _L$[ebp]
	push	ecx
	call	?pRegisterEnum@CvLuaEnums@@KAXPAUlua_State@@PBDH@Z ; CvLuaEnums::pRegisterEnum
	add	esp, 12					; 0000000cH

; 1016 : 	RegisterEnum(CONTROL_TECH_CHOOSER);

	push	33					; 00000021H
	push	OFFSET ??_C@_0BF@CDFOAGHH@CONTROL_TECH_CHOOSER?$AA@
	mov	edx, DWORD PTR _L$[ebp]
	push	edx
	call	?pRegisterEnum@CvLuaEnums@@KAXPAUlua_State@@PBDH@Z ; CvLuaEnums::pRegisterEnum
	add	esp, 12					; 0000000cH

; 1017 : 	RegisterEnum(CONTROL_TURN_LOG);

	push	34					; 00000022H
	push	OFFSET ??_C@_0BB@CCAEKINA@CONTROL_TURN_LOG?$AA@
	mov	eax, DWORD PTR _L$[ebp]
	push	eax
	call	?pRegisterEnum@CvLuaEnums@@KAXPAUlua_State@@PBDH@Z ; CvLuaEnums::pRegisterEnum
	add	esp, 12					; 0000000cH

; 1018 : 	RegisterEnum(CONTROL_DOMESTIC_SCREEN);

	push	35					; 00000023H
	push	OFFSET ??_C@_0BI@BDBKIAIP@CONTROL_DOMESTIC_SCREEN?$AA@
	mov	ecx, DWORD PTR _L$[ebp]
	push	ecx
	call	?pRegisterEnum@CvLuaEnums@@KAXPAUlua_State@@PBDH@Z ; CvLuaEnums::pRegisterEnum
	add	esp, 12					; 0000000cH

; 1019 : 	RegisterEnum(CONTROL_VICTORY_SCREEN);

	push	36					; 00000024H
	push	OFFSET ??_C@_0BH@HOLFNKK@CONTROL_VICTORY_SCREEN?$AA@
	mov	edx, DWORD PTR _L$[ebp]
	push	edx
	call	?pRegisterEnum@CvLuaEnums@@KAXPAUlua_State@@PBDH@Z ; CvLuaEnums::pRegisterEnum
	add	esp, 12					; 0000000cH

; 1020 : 	RegisterEnum(CONTROL_INFO);

	push	37					; 00000025H
	push	OFFSET ??_C@_0N@HJEONDFC@CONTROL_INFO?$AA@
	mov	eax, DWORD PTR _L$[ebp]
	push	eax
	call	?pRegisterEnum@CvLuaEnums@@KAXPAUlua_State@@PBDH@Z ; CvLuaEnums::pRegisterEnum
	add	esp, 12					; 0000000cH

; 1021 : 	RegisterEnum(CONTROL_SELECT_HEALTHY);

	push	38					; 00000026H
	push	OFFSET ??_C@_0BH@NPNMKDLB@CONTROL_SELECT_HEALTHY?$AA@
	mov	ecx, DWORD PTR _L$[ebp]
	push	ecx
	call	?pRegisterEnum@CvLuaEnums@@KAXPAUlua_State@@PBDH@Z ; CvLuaEnums::pRegisterEnum
	add	esp, 12					; 0000000cH

; 1022 : 	RegisterEnum(CONTROL_TOGGLE_STRATEGIC_VIEW);

	push	39					; 00000027H
	push	OFFSET ??_C@_0BO@KEKBNJDB@CONTROL_TOGGLE_STRATEGIC_VIEW?$AA@
	mov	edx, DWORD PTR _L$[ebp]
	push	edx
	call	?pRegisterEnum@CvLuaEnums@@KAXPAUlua_State@@PBDH@Z ; CvLuaEnums::pRegisterEnum
	add	esp, 12					; 0000000cH

; 1023 : 	RegisterEnum(CONTROL_ADVISOR_COUNSEL);

	push	40					; 00000028H
	push	OFFSET ??_C@_0BI@KAFLOOPC@CONTROL_ADVISOR_COUNSEL?$AA@
	mov	eax, DWORD PTR _L$[ebp]
	push	eax
	call	?pRegisterEnum@CvLuaEnums@@KAXPAUlua_State@@PBDH@Z ; CvLuaEnums::pRegisterEnum
	add	esp, 12					; 0000000cH

; 1024 : 	RegisterEnum(CONTROL_ESPIONAGE_OVERVIEW);

	push	41					; 00000029H
	push	OFFSET ??_C@_0BL@JIAFLFHM@CONTROL_ESPIONAGE_OVERVIEW?$AA@
	mov	ecx, DWORD PTR _L$[ebp]
	push	ecx
	call	?pRegisterEnum@CvLuaEnums@@KAXPAUlua_State@@PBDH@Z ; CvLuaEnums::pRegisterEnum
	add	esp, 12					; 0000000cH

; 1025 : 	RegisterEnum(CONTROL_RELIGION_OVERVIEW);

	push	42					; 0000002aH
	push	OFFSET ??_C@_0BK@PLGIMBCB@CONTROL_RELIGION_OVERVIEW?$AA@
	mov	edx, DWORD PTR _L$[ebp]
	push	edx
	call	?pRegisterEnum@CvLuaEnums@@KAXPAUlua_State@@PBDH@Z ; CvLuaEnums::pRegisterEnum
	add	esp, 12					; 0000000cH

; 1026 : 	RegisterEnum(CONTROL_RESTART_GAME);

	push	43					; 0000002bH
	push	OFFSET ??_C@_0BF@KGJECBIL@CONTROL_RESTART_GAME?$AA@
	mov	eax, DWORD PTR _L$[ebp]
	push	eax
	call	?pRegisterEnum@CvLuaEnums@@KAXPAUlua_State@@PBDH@Z ; CvLuaEnums::pRegisterEnum
	add	esp, 12					; 0000000cH

; 1027 : 	EnumEnd(L);

	mov	ecx, DWORD PTR _L$[ebp]
	push	ecx
	call	?EnumEnd@CvLuaEnums@@KAXPAUlua_State@@@Z ; CvLuaEnums::EnumEnd
	add	esp, 4

; 1028 : 
; 1029 : 	return 0;

	xor	eax, eax

; 1030 : }

	mov	esp, ebp
	pop	ebp
	ret	0
?pRegister@CvLuaEnums@@KAHPAUlua_State@@@Z ENDP		; CvLuaEnums::pRegister
_TEXT	ENDS
EXTRN	_lua_setfield:PROC
EXTRN	_lua_pushinteger:PROC
; Function compile flags: /Odtp
;	COMDAT ?pRegisterEnum@CvLuaEnums@@KAXPAUlua_State@@PBDH@Z
_TEXT	SEGMENT
_L$ = 8							; size = 4
_enumName$ = 12						; size = 4
_enumVal$ = 16						; size = 4
?pRegisterEnum@CvLuaEnums@@KAXPAUlua_State@@PBDH@Z PROC	; CvLuaEnums::pRegisterEnum, COMDAT

; 1033 : {

	push	ebp
	mov	ebp, esp

; 1034 : 	lua_pushinteger(L, enumVal);

	mov	eax, DWORD PTR _enumVal$[ebp]
	push	eax
	mov	ecx, DWORD PTR _L$[ebp]
	push	ecx
	call	_lua_pushinteger
	add	esp, 8

; 1035 : 	lua_setfield(L, -2, enumName);

	mov	edx, DWORD PTR _enumName$[ebp]
	push	edx
	push	-2					; fffffffeH
	mov	eax, DWORD PTR _L$[ebp]
	push	eax
	call	_lua_setfield
	add	esp, 12					; 0000000cH

; 1036 : }

	pop	ebp
	ret	0
?pRegisterEnum@CvLuaEnums@@KAXPAUlua_State@@PBDH@Z ENDP	; CvLuaEnums::pRegisterEnum
_TEXT	ENDS
PUBLIC	?pRegisterEnumUInt@CvLuaEnums@@KAXPAUlua_State@@PBDI@Z ; CvLuaEnums::pRegisterEnumUInt
EXTRN	_lua_pushnumber:PROC
EXTRN	__fltused:DWORD
; Function compile flags: /Odtp
;	COMDAT ?pRegisterEnumUInt@CvLuaEnums@@KAXPAUlua_State@@PBDI@Z
_TEXT	SEGMENT
tv71 = -8						; size = 8
_L$ = 8							; size = 4
_enumName$ = 12						; size = 4
_enumVal$ = 16						; size = 4
?pRegisterEnumUInt@CvLuaEnums@@KAXPAUlua_State@@PBDI@Z PROC ; CvLuaEnums::pRegisterEnumUInt, COMDAT

; 1039 : {

	push	ebp
	mov	ebp, esp
	sub	esp, 8

; 1040 : 	lua_pushnumber(L, enumVal);

	mov	eax, DWORD PTR _enumVal$[ebp]
	mov	DWORD PTR tv71[ebp], eax
	mov	DWORD PTR tv71[ebp+4], 0
	fild	QWORD PTR tv71[ebp]
	sub	esp, 8
	fstp	QWORD PTR [esp]
	mov	ecx, DWORD PTR _L$[ebp]
	push	ecx
	call	_lua_pushnumber
	add	esp, 12					; 0000000cH

; 1041 : 	lua_setfield(L, -2, enumName);

	mov	edx, DWORD PTR _enumName$[ebp]
	push	edx
	push	-2					; fffffffeH
	mov	eax, DWORD PTR _L$[ebp]
	push	eax
	call	_lua_setfield
	add	esp, 12					; 0000000cH

; 1042 : }

	mov	esp, ebp
	pop	ebp
	ret	0
?pRegisterEnumUInt@CvLuaEnums@@KAXPAUlua_State@@PBDI@Z ENDP ; CvLuaEnums::pRegisterEnumUInt
_TEXT	ENDS
EXTRN	_lua_pushvalue:PROC
EXTRN	_lua_createtable:PROC
EXTRN	_lua_settop:PROC
EXTRN	_lua_type:PROC
EXTRN	_lua_getfield:PROC
; Function compile flags: /Odtp
;	COMDAT ?EnumStart@CvLuaEnums@@KAXPAUlua_State@@PBD@Z
_TEXT	SEGMENT
_L$ = 8							; size = 4
_enumType$ = 12						; size = 4
?EnumStart@CvLuaEnums@@KAXPAUlua_State@@PBD@Z PROC	; CvLuaEnums::EnumStart, COMDAT

; 1045 : {

	push	ebp
	mov	ebp, esp

; 1046 : 	lua_getglobal(L, enumType);

	mov	eax, DWORD PTR _enumType$[ebp]
	push	eax
	push	-10002					; ffffd8eeH
	mov	ecx, DWORD PTR _L$[ebp]
	push	ecx
	call	_lua_getfield
	add	esp, 12					; 0000000cH

; 1047 : 	if(lua_isnil(L, -1))

	push	-1
	mov	edx, DWORD PTR _L$[ebp]
	push	edx
	call	_lua_type
	add	esp, 8
	test	eax, eax
	jne	SHORT $LN2@EnumStart

; 1048 : 	{
; 1049 : 		lua_pop(L, 1);

	push	-2					; fffffffeH
	mov	eax, DWORD PTR _L$[ebp]
	push	eax
	call	_lua_settop
	add	esp, 8

; 1050 : 		lua_newtable(L);

	push	0
	push	0
	mov	ecx, DWORD PTR _L$[ebp]
	push	ecx
	call	_lua_createtable
	add	esp, 12					; 0000000cH

; 1051 : 		lua_pushvalue(L, -1);

	push	-1
	mov	edx, DWORD PTR _L$[ebp]
	push	edx
	call	_lua_pushvalue
	add	esp, 8

; 1052 : 		lua_setglobal(L, enumType);

	mov	eax, DWORD PTR _enumType$[ebp]
	push	eax
	push	-10002					; ffffd8eeH
	mov	ecx, DWORD PTR _L$[ebp]
	push	ecx
	call	_lua_setfield
	add	esp, 12					; 0000000cH
$LN2@EnumStart:

; 1053 : 	}
; 1054 : }

	pop	ebp
	ret	0
?EnumStart@CvLuaEnums@@KAXPAUlua_State@@PBD@Z ENDP	; CvLuaEnums::EnumStart
_TEXT	ENDS
EXTRN	_lua_checkstack:PROC
; Function compile flags: /Odtp
;	COMDAT ?EnumEnd@CvLuaEnums@@KAXPAUlua_State@@@Z
_TEXT	SEGMENT
_L$ = 8							; size = 4
?EnumEnd@CvLuaEnums@@KAXPAUlua_State@@@Z PROC		; CvLuaEnums::EnumEnd, COMDAT

; 1057 : {

	push	ebp
	mov	ebp, esp

; 1058 : 	lua_checkstack(L, 1);

	push	1
	mov	eax, DWORD PTR _L$[ebp]
	push	eax
	call	_lua_checkstack
	add	esp, 8

; 1059 : 	lua_pop(L, 1);

	push	-2					; fffffffeH
	mov	ecx, DWORD PTR _L$[ebp]
	push	ecx
	call	_lua_settop
	add	esp, 8

; 1060 : }

	pop	ebp
	ret	0
?EnumEnd@CvLuaEnums@@KAXPAUlua_State@@@Z ENDP		; CvLuaEnums::EnumEnd
_TEXT	ENDS
PUBLIC	??_C@_0BG@NEFAGNAI@select?5?$CFs?0?5?$CFs?5from?5?$CFs?$AA@ ; `string'
PUBLIC	__$ArrayPad$
EXTRN	__imp_??1Results@Database@@UAE@XZ:PROC
EXTRN	__imp_?Count@Connection@Database@@QAEHPBD_N@Z:PROC
EXTRN	_lua_rawseti:PROC
EXTRN	_lua_rawset:PROC
EXTRN	_lua_pushstring:PROC
EXTRN	__imp_?GetText@Results@Database@@QAEPBDH@Z:PROC
EXTRN	__imp_?GetInt@Results@Database@@QAEHH@Z:PROC
EXTRN	__imp_?Step@Results@Database@@QAE_NXZ:PROC
EXTRN	__imp_?Execute@Connection@Database@@QBE_NAAVResults@2@PBDH@Z:PROC
EXTRN	__imp__sprintf_s:PROC
EXTRN	__imp_??0Results@Database@@QAE@PBD@Z:PROC
EXTRN	___security_cookie:DWORD
EXTRN	___CxxFrameHandler3:PROC
EXTRN	@__security_check_cookie@4:PROC
;	COMDAT ??_C@_0BG@NEFAGNAI@select?5?$CFs?0?5?$CFs?5from?5?$CFs?$AA@
; File d:\sources\lekmod_git\checkout\lekmod_dll\cvgamecoredll_expansion2\cvglobals.h
CONST	SEGMENT
??_C@_0BG@NEFAGNAI@select?5?$CFs?0?5?$CFs?5from?5?$CFs?$AA@ DB 'select %s'
	DB	', %s from %s', 00H				; `string'
CONST	ENDS
;	COMDAT xdata$x
xdata$x	SEGMENT
__unwindtable$?RegisterDynamicEnums@CvLuaEnums@@KAXPAUlua_State@@PBD111@Z DD 0ffffffffH
	DD	FLAT:__unwindfunclet$?RegisterDynamicEnums@CvLuaEnums@@KAXPAUlua_State@@PBD111@Z$0
__ehfuncinfo$?RegisterDynamicEnums@CvLuaEnums@@KAXPAUlua_State@@PBD111@Z DD 019930522H
	DD	01H
	DD	FLAT:__unwindtable$?RegisterDynamicEnums@CvLuaEnums@@KAXPAUlua_State@@PBD111@Z
	DD	2 DUP(00H)
	DD	2 DUP(00H)
	DD	00H
	DD	01H
; Function compile flags: /Odtp
; File d:\sources\lekmod_git\checkout\lekmod_dll\cvgamecoredll_expansion2\lua\cvluaenums.cpp
xdata$x	ENDS
;	COMDAT ?RegisterDynamicEnums@CvLuaEnums@@KAXPAUlua_State@@PBD111@Z
_TEXT	SEGMENT
_name$221051 = -356					; size = 4
_value$221050 = -352					; size = 4
_zSQL$ = -348						; size = 256
__$ArrayPad$ = -88					; size = 4
_kResults$ = -84					; size = 64
_db$ = -16						; size = 4
__$EHRec$ = -12						; size = 12
_L$ = 8							; size = 4
_szTableName$ = 12					; size = 4
_szIdField$ = 16					; size = 4
_szNameField$ = 20					; size = 4
_szCountName$ = 24					; size = 4
?RegisterDynamicEnums@CvLuaEnums@@KAXPAUlua_State@@PBD111@Z PROC ; CvLuaEnums::RegisterDynamicEnums, COMDAT

; 1067 : {

	push	ebp
	mov	ebp, esp
	push	-1
	push	__ehhandler$?RegisterDynamicEnums@CvLuaEnums@@KAXPAUlua_State@@PBD111@Z
	mov	eax, DWORD PTR fs:0
	push	eax
	sub	esp, 344				; 00000158H
	mov	eax, DWORD PTR ___security_cookie
	xor	eax, ebp
	mov	DWORD PTR __$ArrayPad$[ebp], eax
	push	eax
	lea	eax, DWORD PTR __$EHRec$[ebp]
	mov	DWORD PTR fs:0, eax

; 1068 : 	Database::Connection& db = *GC.GetGameDatabase();

	mov	eax, DWORD PTR ?gGlobals@@3VCvGlobals@@A+912
	mov	DWORD PTR _db$[ebp], eax

; 1069 : 	Database::Results kResults;

	push	0
	lea	ecx, DWORD PTR _kResults$[ebp]
	call	DWORD PTR __imp_??0Results@Database@@QAE@PBD@Z
	mov	DWORD PTR __$EHRec$[ebp+8], 0

; 1070 : 
; 1071 : 	char zSQL[256];
; 1072 : 	sprintf_s(zSQL, 255, "select %s, %s from %s", szIdField, szNameField, szTableName);

	mov	ecx, DWORD PTR _szTableName$[ebp]
	push	ecx
	mov	edx, DWORD PTR _szNameField$[ebp]
	push	edx
	mov	eax, DWORD PTR _szIdField$[ebp]
	push	eax
	push	OFFSET ??_C@_0BG@NEFAGNAI@select?5?$CFs?0?5?$CFs?5from?5?$CFs?$AA@
	push	255					; 000000ffH
	lea	ecx, DWORD PTR _zSQL$[ebp]
	push	ecx
	call	DWORD PTR __imp__sprintf_s
	add	esp, 24					; 00000018H

; 1073 : 
; 1074 : 	if(db.Execute(kResults, zSQL))

	push	-1
	lea	edx, DWORD PTR _zSQL$[ebp]
	push	edx
	lea	eax, DWORD PTR _kResults$[ebp]
	push	eax
	mov	ecx, DWORD PTR _db$[ebp]
	call	DWORD PTR __imp_?Execute@Connection@Database@@QBE_NAAVResults@2@PBDH@Z
	movzx	ecx, al
	test	ecx, ecx
	je	$LN4@RegisterDy
$LN3@RegisterDy:

; 1075 : 	{
; 1076 : 		while(kResults.Step())

	lea	ecx, DWORD PTR _kResults$[ebp]
	call	DWORD PTR __imp_?Step@Results@Database@@QAE_NXZ
	movzx	edx, al
	test	edx, edx
	je	SHORT $LN4@RegisterDy

; 1077 : 		{
; 1078 : 			const int value = kResults.GetInt(0);

	push	0
	lea	ecx, DWORD PTR _kResults$[ebp]
	call	DWORD PTR __imp_?GetInt@Results@Database@@QAEHH@Z
	mov	DWORD PTR _value$221050[ebp], eax

; 1079 : 			const char* name = kResults.GetText(1);

	push	1
	lea	ecx, DWORD PTR _kResults$[ebp]
	call	DWORD PTR __imp_?GetText@Results@Database@@QAEPBDH@Z
	mov	DWORD PTR _name$221051[ebp], eax

; 1080 : 
; 1081 : 			lua_pushstring(L, name);

	mov	eax, DWORD PTR _name$221051[ebp]
	push	eax
	mov	ecx, DWORD PTR _L$[ebp]
	push	ecx
	call	_lua_pushstring
	add	esp, 8

; 1082 : 			lua_pushvalue(L, -1);

	push	-1
	mov	edx, DWORD PTR _L$[ebp]
	push	edx
	call	_lua_pushvalue
	add	esp, 8

; 1083 : 
; 1084 : 			lua_pushinteger(L, value);

	mov	eax, DWORD PTR _value$221050[ebp]
	push	eax
	mov	ecx, DWORD PTR _L$[ebp]
	push	ecx
	call	_lua_pushinteger
	add	esp, 8

; 1085 : 			lua_rawset(L, -4);

	push	-4					; fffffffcH
	mov	edx, DWORD PTR _L$[ebp]
	push	edx
	call	_lua_rawset
	add	esp, 8

; 1086 : 
; 1087 : 			lua_rawseti(L, -2, value);

	mov	eax, DWORD PTR _value$221050[ebp]
	push	eax
	push	-2					; fffffffeH
	mov	ecx, DWORD PTR _L$[ebp]
	push	ecx
	call	_lua_rawseti
	add	esp, 12					; 0000000cH

; 1088 : 		}

	jmp	$LN3@RegisterDy
$LN4@RegisterDy:

; 1089 : 	}
; 1090 : 
; 1091 : 	if(szCountName != NULL)

	cmp	DWORD PTR _szCountName$[ebp], 0
	je	SHORT $LN1@RegisterDy

; 1092 : 	{
; 1093 : 		lua_pushstring(L, szCountName);

	mov	edx, DWORD PTR _szCountName$[ebp]
	push	edx
	mov	eax, DWORD PTR _L$[ebp]
	push	eax
	call	_lua_pushstring
	add	esp, 8

; 1094 : 		lua_pushinteger(L, db.Count(szTableName, false));

	push	0
	mov	ecx, DWORD PTR _szTableName$[ebp]
	push	ecx
	mov	ecx, DWORD PTR _db$[ebp]
	call	DWORD PTR __imp_?Count@Connection@Database@@QAEHPBD_N@Z
	push	eax
	mov	edx, DWORD PTR _L$[ebp]
	push	edx
	call	_lua_pushinteger
	add	esp, 8

; 1095 : 		lua_rawset(L, -3);

	push	-3					; fffffffdH
	mov	eax, DWORD PTR _L$[ebp]
	push	eax
	call	_lua_rawset
	add	esp, 8
$LN1@RegisterDy:

; 1096 : 	}
; 1097 : }

	mov	DWORD PTR __$EHRec$[ebp+8], -1
	lea	ecx, DWORD PTR _kResults$[ebp]
	call	DWORD PTR __imp_??1Results@Database@@UAE@XZ
	mov	ecx, DWORD PTR __$EHRec$[ebp]
	mov	DWORD PTR fs:0, ecx
	pop	ecx
	mov	ecx, DWORD PTR __$ArrayPad$[ebp]
	xor	ecx, ebp
	call	@__security_check_cookie@4
	mov	esp, ebp
	pop	ebp
	ret	0
_TEXT	ENDS
;	COMDAT text$x
text$x	SEGMENT
__unwindfunclet$?RegisterDynamicEnums@CvLuaEnums@@KAXPAUlua_State@@PBD111@Z$0:
	lea	ecx, DWORD PTR _kResults$[ebp]
	jmp	DWORD PTR __imp_??1Results@Database@@UAE@XZ
__ehhandler$?RegisterDynamicEnums@CvLuaEnums@@KAXPAUlua_State@@PBD111@Z:
	mov	edx, DWORD PTR [esp+8]
	lea	eax, DWORD PTR [edx+12]
	mov	ecx, DWORD PTR [edx-348]
	xor	ecx, eax
	call	@__security_check_cookie@4
	mov	ecx, DWORD PTR [edx-76]
	xor	ecx, eax
	call	@__security_check_cookie@4
	mov	eax, OFFSET __ehfuncinfo$?RegisterDynamicEnums@CvLuaEnums@@KAXPAUlua_State@@PBD111@Z
	jmp	___CxxFrameHandler3
text$x	ENDS
?RegisterDynamicEnums@CvLuaEnums@@KAXPAUlua_State@@PBD111@Z ENDP ; CvLuaEnums::RegisterDynamicEnums
END
