; Listing generated by Microsoft (R) Optimizing Compiler Version 15.00.30729.01 

	TITLE	D:\sources\Lekmod_git\checkout\LEKMOD_DLL\CvGameCoreDLL_Expansion2\Lua\CvLuaUnit.cpp
	.686P
	.XMM
	include listing.inc
	.model	flat

INCLUDELIB MSVCRT
INCLUDELIB OLDNAMES

PUBLIC	?NO_QUEST_DATA@CvMinorCivQuest@@2HB		; CvMinorCivQuest::NO_QUEST_DATA
PUBLIC	?NO_TURN@CvMinorCivQuest@@2HB			; CvMinorCivQuest::NO_TURN
;	COMDAT ?NO_TURN@CvMinorCivQuest@@2HB
CONST	SEGMENT
?NO_TURN@CvMinorCivQuest@@2HB DD 0ffffffffH		; CvMinorCivQuest::NO_TURN
CONST	ENDS
;	COMDAT ?NO_QUEST_DATA@CvMinorCivQuest@@2HB
CONST	SEGMENT
?NO_QUEST_DATA@CvMinorCivQuest@@2HB DD 0ffffffffH	; CvMinorCivQuest::NO_QUEST_DATA
CONST	ENDS
PUBLIC	??_C@_0BL@FKIJHDNO@Instance?5no?5longer?5exists?4?$AA@ ; `string'
PUBLIC	?HandleMissingInstance@CvLuaUnit@@SAXPAUlua_State@@@Z ; CvLuaUnit::HandleMissingInstance
EXTRN	_luaL_error:PROC
;	COMDAT ??_C@_0BL@FKIJHDNO@Instance?5no?5longer?5exists?4?$AA@
; File d:\sources\lekmod_git\checkout\lekmod_dll\cvgamecoredll_expansion2\lua\cvluaunit.cpp
CONST	SEGMENT
??_C@_0BL@FKIJHDNO@Instance?5no?5longer?5exists?4?$AA@ DB 'Instance no lo'
	DB	'nger exists.', 00H				; `string'
; Function compile flags: /Odtp
CONST	ENDS
;	COMDAT ?HandleMissingInstance@CvLuaUnit@@SAXPAUlua_State@@@Z
_TEXT	SEGMENT
_L$ = 8							; size = 4
?HandleMissingInstance@CvLuaUnit@@SAXPAUlua_State@@@Z PROC ; CvLuaUnit::HandleMissingInstance, COMDAT

; 25   : {

	push	ebp
	mov	ebp, esp

; 26   : 	luaL_error(L, "Instance no longer exists.");

	push	OFFSET ??_C@_0BL@FKIJHDNO@Instance?5no?5longer?5exists?4?$AA@
	mov	eax, DWORD PTR _L$[ebp]
	push	eax
	call	_luaL_error
	add	esp, 8

; 27   : }

	pop	ebp
	ret	0
?HandleMissingInstance@CvLuaUnit@@SAXPAUlua_State@@@Z ENDP ; CvLuaUnit::HandleMissingInstance
_TEXT	ENDS
PUBLIC	??_C@_0CA@GENACOON@IsPlunderBlockedByOpposingTrait?$AA@ ; `string'
PUBLIC	?lIsPlunderBlockedByOpposingTrait@CvLuaUnit@@KAHPAUlua_State@@@Z ; CvLuaUnit::lIsPlunderBlockedByOpposingTrait
PUBLIC	??_C@_0BE@HLBAIPJO@IsRangedSupportFire?$AA@	; `string'
PUBLIC	?lIsRangedSupportFire@CvLuaUnit@@KAHPAUlua_State@@@Z ; CvLuaUnit::lIsRangedSupportFire
PUBLIC	??_C@_0BA@PCGBFCNG@IsLargerCivThan?$AA@		; `string'
PUBLIC	?lIsLargerCivThan@CvLuaUnit@@KAHPAUlua_State@@@Z ; CvLuaUnit::lIsLargerCivThan
PUBLIC	??_C@_0BB@DNHALCAP@IsHigherTechThan?$AA@	; `string'
PUBLIC	?lIsHigherTechThan@CvLuaUnit@@KAHPAUlua_State@@@Z ; CvLuaUnit::lIsHigherTechThan
PUBLIC	??_C@_0BL@IFBCJAOO@SetDeployFromOperationTurn?$AA@ ; `string'
PUBLIC	?lSetDeployFromOperationTurn@CvLuaUnit@@KAHPAUlua_State@@@Z ; CvLuaUnit::lSetDeployFromOperationTurn
PUBLIC	??_C@_0BK@OKCCHHON@ExecuteSpecialExploreMove?$AA@ ; `string'
PUBLIC	?lExecuteSpecialExploreMove@CvLuaUnit@@KAHPAUlua_State@@@Z ; CvLuaUnit::lExecuteSpecialExploreMove
PUBLIC	??_C@_0BA@JEHNJEHH@CanStartMission?$AA@		; `string'
PUBLIC	?lCanStartMission@CvLuaUnit@@KAHPAUlua_State@@@Z ; CvLuaUnit::lCanStartMission
PUBLIC	??_C@_0BA@BNAEAOBO@LastMissionPlot?$AA@		; `string'
PUBLIC	?lLastMissionPlot@CvLuaUnit@@KAHPAUlua_State@@@Z ; CvLuaUnit::lLastMissionPlot
PUBLIC	??_C@_0L@FNCAEGNI@PopMission?$AA@		; `string'
PUBLIC	?lPopMission@CvLuaUnit@@KAHPAUlua_State@@@Z	; CvLuaUnit::lPopMission
PUBLIC	??_C@_0M@KMEIMJMN@PushMission?$AA@		; `string'
PUBLIC	?lPushMission@CvLuaUnit@@KAHPAUlua_State@@@Z	; CvLuaUnit::lPushMission
PUBLIC	??_C@_0M@LBKNMOHC@RangeStrike?$AA@		; `string'
PUBLIC	?lRangeStrike@CvLuaUnit@@KAHPAUlua_State@@@Z	; CvLuaUnit::lRangeStrike
PUBLIC	??_C@_0BF@BJPLHKJ@GetGreatWorkSlotType?$AA@	; `string'
PUBLIC	?lGetGreatWorkSlotType@CvLuaUnit@@KAHPAUlua_State@@@Z ; CvLuaUnit::lGetGreatWorkSlotType
PUBLIC	??_C@_0BI@GPAANOLE@GetTourismBlastStrength?$AA@	; `string'
PUBLIC	?lGetTourismBlastStrength@CvLuaUnit@@KAHPAUlua_State@@@Z ; CvLuaUnit::lGetTourismBlastStrength
PUBLIC	??_C@_0BP@HBADFCCC@GetMajorityReligionAfterSpread?$AA@ ; `string'
PUBLIC	?lGetMajorityReligionAfterSpread@CvLuaUnit@@KAHPAUlua_State@@@Z ; CvLuaUnit::lGetMajorityReligionAfterSpread
PUBLIC	??_C@_0BL@NDOCOGDO@GetNumFollowersAfterSpread?$AA@ ; `string'
PUBLIC	?lGetNumFollowersAfterSpread@CvLuaUnit@@KAHPAUlua_State@@@Z ; CvLuaUnit::lGetNumFollowersAfterSpread
PUBLIC	??_C@_0P@CCJGDKMN@GetSpreadsLeft?$AA@		; `string'
PUBLIC	?lGetSpreadsLeft@CvLuaUnit@@KAHPAUlua_State@@@Z	; CvLuaUnit::lGetSpreadsLeft
PUBLIC	??_C@_0BG@CMODHJMA@GetConversionStrength?$AA@	; `string'
PUBLIC	?lGetConversionStrength@CvLuaUnit@@KAHPAUlua_State@@@Z ; CvLuaUnit::lGetConversionStrength
PUBLIC	??_C@_0M@GMHLBOLL@GetReligion?$AA@		; `string'
PUBLIC	?lGetReligion@CvLuaUnit@@KAHPAUlua_State@@@Z	; CvLuaUnit::lGetReligion
PUBLIC	??_C@_06OICOCAHF@IsBusy?$AA@			; `string'
PUBLIC	?lIsBusy@CvLuaUnit@@KAHPAUlua_State@@@Z		; CvLuaUnit::lIsBusy
PUBLIC	??_C@_0O@BOALNFPB@IsReadyToMove?$AA@		; `string'
PUBLIC	?lIsReadyToMove@CvLuaUnit@@KAHPAUlua_State@@@Z	; CvLuaUnit::lIsReadyToMove
PUBLIC	??_C@_0BA@PBKPFNFP@GetActivityType?$AA@		; `string'
PUBLIC	?lGetActivityType@CvLuaUnit@@KAHPAUlua_State@@@Z ; CvLuaUnit::lGetActivityType
PUBLIC	??_C@_0BA@MMNGCCEN@SetHasPromotion?$AA@		; `string'
PUBLIC	?lSetHasPromotion@CvLuaUnit@@KAHPAUlua_State@@@Z ; CvLuaUnit::lSetHasPromotion
PUBLIC	??_C@_0P@LONCCLND@IsHasPromotion?$AA@		; `string'
PUBLIC	?lIsHasPromotion@CvLuaUnit@@KAHPAUlua_State@@@Z	; CvLuaUnit::lIsHasPromotion
PUBLIC	??_C@_0BB@LBEGEPDL@IsPromotionValid?$AA@	; `string'
PUBLIC	?lIsPromotionValid@CvLuaUnit@@KAHPAUlua_State@@@Z ; CvLuaUnit::lIsPromotionValid
PUBLIC	??_C@_0BH@KEAILGDL@CanAcquirePromotionAny?$AA@	; `string'
PUBLIC	?lCanAcquirePromotionAny@CvLuaUnit@@KAHPAUlua_State@@@Z ; CvLuaUnit::lCanAcquirePromotionAny
PUBLIC	??_C@_0BE@NMKFIMAO@CanAcquirePromotion?$AA@	; `string'
PUBLIC	?lCanAcquirePromotion@CvLuaUnit@@KAHPAUlua_State@@@Z ; CvLuaUnit::lCanAcquirePromotion
PUBLIC	??_C@_0BF@IJFPHAOD@GetUnitClassModifier?$AA@	; `string'
PUBLIC	?lGetUnitClassModifier@CvLuaUnit@@KAHPAUlua_State@@@Z ; CvLuaUnit::lGetUnitClassModifier
PUBLIC	??_C@_0BL@FCNEPMJP@GetExtraUnitCombatModifier?$AA@ ; `string'
PUBLIC	?lGetExtraUnitCombatModifier@CvLuaUnit@@KAHPAUlua_State@@@Z ; CvLuaUnit::lGetExtraUnitCombatModifier
PUBLIC	??_C@_0BO@MOKLIMJL@GetExtraFeatureDefensePercent?$AA@ ; `string'
PUBLIC	?lGetExtraFeatureDefensePercent@CvLuaUnit@@KAHPAUlua_State@@@Z ; CvLuaUnit::lGetExtraFeatureDefensePercent
PUBLIC	??_C@_0BN@CPBINKED@GetExtraFeatureAttackPercent?$AA@ ; `string'
PUBLIC	?lGetExtraFeatureAttackPercent@CvLuaUnit@@KAHPAUlua_State@@@Z ; CvLuaUnit::lGetExtraFeatureAttackPercent
PUBLIC	??_C@_0BO@EGLEMPGC@GetExtraTerrainDefensePercent?$AA@ ; `string'
PUBLIC	?lGetExtraTerrainDefensePercent@CvLuaUnit@@KAHPAUlua_State@@@Z ; CvLuaUnit::lGetExtraTerrainDefensePercent
PUBLIC	??_C@_0BN@DIABMFJL@GetExtraTerrainAttackPercent?$AA@ ; `string'
PUBLIC	?lGetExtraTerrainAttackPercent@CvLuaUnit@@KAHPAUlua_State@@@Z ; CvLuaUnit::lGetExtraTerrainAttackPercent
PUBLIC	??_C@_0BA@DGJIKHMC@SetScenarioData?$AA@		; `string'
PUBLIC	?lSetScenarioData@CvLuaUnit@@KAHPAUlua_State@@@Z ; CvLuaUnit::lSetScenarioData
PUBLIC	??_C@_0BA@EIONFNL@GetScenarioData?$AA@		; `string'
PUBLIC	?lGetScenarioData@CvLuaUnit@@KAHPAUlua_State@@@Z ; CvLuaUnit::lGetScenarioData
PUBLIC	??_C@_0O@PGOPIEFE@SetScriptData?$AA@		; `string'
PUBLIC	?lSetScriptData@CvLuaUnit@@KAHPAUlua_State@@@Z	; CvLuaUnit::lSetScriptData
PUBLIC	??_C@_0O@IJPBDHCD@GetScriptData?$AA@		; `string'
PUBLIC	?lGetScriptData@CvLuaUnit@@KAHPAUlua_State@@@Z	; CvLuaUnit::lGetScriptData
PUBLIC	??_C@_0BE@DLKIIJFH@IsFeatureDoubleMove?$AA@	; `string'
PUBLIC	?lIsFeatureDoubleMove@CvLuaUnit@@KAHPAUlua_State@@@Z ; CvLuaUnit::lIsFeatureDoubleMove
PUBLIC	??_C@_0BE@KAIIOOFC@IsTerrainDoubleMove?$AA@	; `string'
PUBLIC	?lIsTerrainDoubleMove@CvLuaUnit@@KAHPAUlua_State@@@Z ; CvLuaUnit::lIsTerrainDoubleMove
PUBLIC	??_C@_07DEJFEJPJ@SetName?$AA@			; `string'
PUBLIC	?lSetName@CvLuaUnit@@KAHPAUlua_State@@@Z	; CvLuaUnit::lSetName
PUBLIC	??_C@_0L@PJBAHION@GetNameKey?$AA@		; `string'
PUBLIC	?lGetNameKey@CvLuaUnit@@KAHPAUlua_State@@@Z	; CvLuaUnit::lGetNameKey
PUBLIC	??_C@_07PMAOHACP@HasName?$AA@			; `string'
PUBLIC	?lHasName@CvLuaUnit@@KAHPAUlua_State@@@Z	; CvLuaUnit::lHasName
PUBLIC	??_C@_0O@OFOGDJDK@GetNameNoDesc?$AA@		; `string'
PUBLIC	?lGetNameNoDesc@CvLuaUnit@@KAHPAUlua_State@@@Z	; CvLuaUnit::lGetNameNoDesc
PUBLIC	??_C@_07MMGEHGCI@GetName?$AA@			; `string'
PUBLIC	?lGetName@CvLuaUnit@@KAHPAUlua_State@@@Z	; CvLuaUnit::lGetName
PUBLIC	??_C@_0BH@LGDAMEMJ@GetExtraDomainModifier?$AA@	; `string'
PUBLIC	?lGetExtraDomainModifier@CvLuaUnit@@KAHPAUlua_State@@@Z ; CvLuaUnit::lGetExtraDomainModifier
PUBLIC	??_C@_07DCNKNHAD@IsCargo?$AA@			; `string'
PUBLIC	?lIsCargo@CvLuaUnit@@KAHPAUlua_State@@@Z	; CvLuaUnit::lIsCargo
PUBLIC	??_C@_0BB@PJKLKFOJ@GetTransportUnit?$AA@	; `string'
PUBLIC	?lGetTransportUnit@CvLuaUnit@@KAHPAUlua_State@@@Z ; CvLuaUnit::lGetTransportUnit
PUBLIC	??_C@_0BE@GIBMJJJB@IsEnemyCityAdjacent?$AA@	; `string'
PUBLIC	?lIsEnemyCityAdjacent@CvLuaUnit@@KAHPAUlua_State@@@Z ; CvLuaUnit::lIsEnemyCityAdjacent
PUBLIC	??_C@_0BJ@DJLNBBGK@GetNumEnemyUnitsAdjacent?$AA@ ; `string'
PUBLIC	?lGetNumEnemyUnitsAdjacent@CvLuaUnit@@KAHPAUlua_State@@@Z ; CvLuaUnit::lGetNumEnemyUnitsAdjacent
PUBLIC	??_C@_0BH@EHMHKIDN@IsFriendlyUnitAdjacent?$AA@	; `string'
PUBLIC	?lIsFriendlyUnitAdjacent@CvLuaUnit@@KAHPAUlua_State@@@Z ; CvLuaUnit::lIsFriendlyUnitAdjacent
PUBLIC	??_C@_0BN@LIDKBFIB@GetNearbyImprovementModifier?$AA@ ; `string'
PUBLIC	?lGetNearbyImprovementModifier@CvLuaUnit@@KAHPAUlua_State@@@Z ; CvLuaUnit::lGetNearbyImprovementModifier
PUBLIC	??_C@_0N@JPLHPCNE@IsNearSapper?$AA@		; `string'
PUBLIC	?lIsNearSapper@CvLuaUnit@@KAHPAUlua_State@@@Z	; CvLuaUnit::lIsNearSapper
PUBLIC	??_C@_0BO@BNDFJFHP@GetGreatGeneralCombatModifier?$AA@ ; `string'
PUBLIC	?lGetGreatGeneralCombatModifier@CvLuaUnit@@KAHPAUlua_State@@@Z ; CvLuaUnit::lGetGreatGeneralCombatModifier
PUBLIC	??_C@_0BP@NPLEODON@GetReverseGreatGeneralModifier?$AA@ ; `string'
PUBLIC	?lGetReverseGreatGeneralModifier@CvLuaUnit@@KAHPAUlua_State@@@Z ; CvLuaUnit::lGetReverseGreatGeneralModifier
PUBLIC	??_C@_0BM@GGCJAMLP@IsIgnoreGreatGeneralBenefit?$AA@ ; `string'
PUBLIC	?lIsIgnoreGreatGeneralBenefit@CvLuaUnit@@KAHPAUlua_State@@@Z ; CvLuaUnit::lIsIgnoreGreatGeneralBenefit
PUBLIC	??_C@_0BG@EGFCIODH@IsStackedGreatGeneral?$AA@	; `string'
PUBLIC	?lIsStackedGreatGeneral@CvLuaUnit@@KAHPAUlua_State@@@Z ; CvLuaUnit::lIsStackedGreatGeneral
PUBLIC	??_C@_0BD@FIBLLGCA@IsNearGreatGeneral?$AA@	; `string'
PUBLIC	?lIsNearGreatGeneral@CvLuaUnit@@KAHPAUlua_State@@@Z ; CvLuaUnit::lIsNearGreatGeneral
PUBLIC	??_C@_0BC@CCMIAMOE@SetLeaderUnitType?$AA@	; `string'
PUBLIC	?lSetLeaderUnitType@CvLuaUnit@@KAHPAUlua_State@@@Z ; CvLuaUnit::lSetLeaderUnitType
PUBLIC	??_C@_0BC@HMDIHPK@GetLeaderUnitType?$AA@	; `string'
PUBLIC	?lGetLeaderUnitType@CvLuaUnit@@KAHPAUlua_State@@@Z ; CvLuaUnit::lGetLeaderUnitType
PUBLIC	??_C@_0BB@DMDDFGBF@GetUnitClassType?$AA@	; `string'
PUBLIC	?lGetUnitClassType@CvLuaUnit@@KAHPAUlua_State@@@Z ; CvLuaUnit::lGetUnitClassType
PUBLIC	??_C@_0M@PKBGPJIJ@GetUnitType?$AA@		; `string'
PUBLIC	?lGetUnitType@CvLuaUnit@@KAHPAUlua_State@@@Z	; CvLuaUnit::lGetUnitType
PUBLIC	??_C@_0BG@PPJKPBMI@GetUnitPortraitOffset?$AA@	; `string'
PUBLIC	?lGetUnitPortraitOffset@CvLuaUnit@@KAHPAUlua_State@@@Z ; CvLuaUnit::lGetUnitPortraitOffset
PUBLIC	??_C@_0BG@GPHCCLK@GetUnitFlagIconOffset?$AA@	; `string'
PUBLIC	?lGetUnitFlagIconOffset@CvLuaUnit@@KAHPAUlua_State@@@Z ; CvLuaUnit::lGetUnitFlagIconOffset
PUBLIC	??_C@_07KIJFBNDA@GetTeam?$AA@			; `string'
PUBLIC	?lGetTeam@CvLuaUnit@@KAHPAUlua_State@@@Z	; CvLuaUnit::lGetTeam
PUBLIC	??_C@_0BB@DFCAPMCK@SetOriginalOwner?$AA@	; `string'
PUBLIC	?lSetOriginalOwner@CvLuaUnit@@KAHPAUlua_State@@@Z ; CvLuaUnit::lSetOriginalOwner
PUBLIC	??_C@_0BB@FBHJECJI@GetOriginalOwner?$AA@	; `string'
PUBLIC	?lGetOriginalOwner@CvLuaUnit@@KAHPAUlua_State@@@Z ; CvLuaUnit::lGetOriginalOwner
PUBLIC	??_C@_0P@OAMOBMMB@GetCombatOwner?$AA@		; `string'
PUBLIC	?lGetCombatOwner@CvLuaUnit@@KAHPAUlua_State@@@Z	; CvLuaUnit::lGetCombatOwner
PUBLIC	??_C@_0P@DJDHAACE@GetVisualOwner?$AA@		; `string'
PUBLIC	?lGetVisualOwner@CvLuaUnit@@KAHPAUlua_State@@@Z	; CvLuaUnit::lGetVisualOwner
PUBLIC	??_C@_08BODJMJJB@GetOwner?$AA@			; `string'
PUBLIC	?lGetOwner@CvLuaUnit@@KAHPAUlua_State@@@Z	; CvLuaUnit::lGetOwner
PUBLIC	??_C@_0BC@EMJHOBEL@SetPromotionReady?$AA@	; `string'
PUBLIC	?lSetPromotionReady@CvLuaUnit@@KAHPAUlua_State@@@Z ; CvLuaUnit::lSetPromotionReady
PUBLIC	??_C@_0BB@NKIJIMHP@IsPromotionReady?$AA@	; `string'
PUBLIC	?lIsPromotionReady@CvLuaUnit@@KAHPAUlua_State@@@Z ; CvLuaUnit::lIsPromotionReady
PUBLIC	??_C@_0BE@CHMMLBFN@SetMadeInterception?$AA@	; `string'
PUBLIC	?lSetMadeInterception@CvLuaUnit@@KAHPAUlua_State@@@Z ; CvLuaUnit::lSetMadeInterception
PUBLIC	??_C@_0BF@CMPDBBFM@isOutOfInterceptions?$AA@	; `string'
PUBLIC	?lisOutOfInterceptions@CvLuaUnit@@KAHPAUlua_State@@@Z ; CvLuaUnit::lisOutOfInterceptions
PUBLIC	??_C@_0O@MKFMNOAP@SetMadeAttack?$AA@		; `string'
PUBLIC	?lSetMadeAttack@CvLuaUnit@@KAHPAUlua_State@@@Z	; CvLuaUnit::lSetMadeAttack
PUBLIC	??_C@_0P@IKHOEAOE@IsOutOfAttacks?$AA@		; `string'
PUBLIC	?lIsOutOfAttacks@CvLuaUnit@@KAHPAUlua_State@@@Z	; CvLuaUnit::lIsOutOfAttacks
PUBLIC	??_C@_0BD@CFFKEBAO@GetKamikazePercent?$AA@	; `string'
PUBLIC	?lGetKamikazePercent@CvLuaUnit@@KAHPAUlua_State@@@Z ; CvLuaUnit::lGetKamikazePercent
PUBLIC	??_C@_0BF@MJPLLDMK@GetExperiencePercent?$AA@	; `string'
PUBLIC	?lGetExperiencePercent@CvLuaUnit@@KAHPAUlua_State@@@Z ; CvLuaUnit::lGetExperiencePercent
PUBLIC	??_C@_0BD@IEDPIMNK@GetUpgradeDiscount?$AA@	; `string'
PUBLIC	?lGetUpgradeDiscount@CvLuaUnit@@KAHPAUlua_State@@@Z ; CvLuaUnit::lGetUpgradeDiscount
PUBLIC	??_C@_0BB@HINGJFFL@GetPillageChange?$AA@	; `string'
PUBLIC	?lGetPillageChange@CvLuaUnit@@KAHPAUlua_State@@@Z ; CvLuaUnit::lGetPillageChange
PUBLIC	??_C@_0BL@FFFJPCKI@GetExtraOpenDefensePercent?$AA@ ; `string'
PUBLIC	?lGetExtraOpenDefensePercent@CvLuaUnit@@KAHPAUlua_State@@@Z ; CvLuaUnit::lGetExtraOpenDefensePercent
PUBLIC	??_C@_0BJ@JEMHENOI@GetExtraAttackWoundedMod?$AA@ ; `string'
PUBLIC	?lGetExtraAttackWoundedMod@CvLuaUnit@@KAHPAUlua_State@@@Z ; CvLuaUnit::lGetExtraAttackWoundedMod
PUBLIC	??_C@_0BL@PDPEFOMH@GetExtraAttackFortifiedMod?$AA@ ; `string'
PUBLIC	?lGetExtraAttackFortifiedMod@CvLuaUnit@@KAHPAUlua_State@@@Z ; CvLuaUnit::lGetExtraAttackFortifiedMod
PUBLIC	??_C@_0BN@JELKIHJI@GetExtraRoughRangedAttackMod?$AA@ ; `string'
PUBLIC	?lGetExtraRoughRangedAttackMod@CvLuaUnit@@KAHPAUlua_State@@@Z ; CvLuaUnit::lGetExtraRoughRangedAttackMod
PUBLIC	??_C@_0BL@EFEMEKEJ@GetExtraRoughAttackPercent?$AA@ ; `string'
PUBLIC	?lGetExtraRoughAttackPercent@CvLuaUnit@@KAHPAUlua_State@@@Z ; CvLuaUnit::lGetExtraRoughAttackPercent
PUBLIC	??_C@_0BM@CBBBAFGK@GetExtraOpenRangedAttackMod?$AA@ ; `string'
PUBLIC	?lGetExtraOpenRangedAttackMod@CvLuaUnit@@KAHPAUlua_State@@@Z ; CvLuaUnit::lGetExtraOpenRangedAttackMod
PUBLIC	??_C@_0BK@LJKEFJID@GetExtraOpenAttackPercent?$AA@ ; `string'
PUBLIC	?lGetExtraOpenAttackPercent@CvLuaUnit@@KAHPAUlua_State@@@Z ; CvLuaUnit::lGetExtraOpenAttackPercent
PUBLIC	??_C@_0BM@NLMNHENB@GetExtraHillsDefensePercent?$AA@ ; `string'
PUBLIC	?lGetExtraHillsDefensePercent@CvLuaUnit@@KAHPAUlua_State@@@Z ; CvLuaUnit::lGetExtraHillsDefensePercent
PUBLIC	??_C@_0BL@JDMNNJBO@GetExtraHillsAttackPercent?$AA@ ; `string'
PUBLIC	?lGetExtraHillsAttackPercent@CvLuaUnit@@KAHPAUlua_State@@@Z ; CvLuaUnit::lGetExtraHillsAttackPercent
PUBLIC	??_C@_0BL@OIBJDCOP@GetExtraCityDefensePercent?$AA@ ; `string'
PUBLIC	?lGetExtraCityDefensePercent@CvLuaUnit@@KAHPAUlua_State@@@Z ; CvLuaUnit::lGetExtraCityDefensePercent
PUBLIC	??_C@_0BK@EEJGACHD@GetExtraCityAttackPercent?$AA@ ; `string'
PUBLIC	?lGetExtraCityAttackPercent@CvLuaUnit@@KAHPAUlua_State@@@Z ; CvLuaUnit::lGetExtraCityAttackPercent
PUBLIC	??_C@_0CD@PFMFCNHJ@GetCombatStrengthNearFriendlyMin@ ; `string'
PUBLIC	?lGetCombatStrengthNearFriendlyMinor@CvLuaUnit@@KAHPAUlua_State@@@Z ; CvLuaUnit::lGetCombatStrengthNearFriendlyMinor
PUBLIC	??_C@_0BP@BHKIBPGK@GetGoldenAgeForeignAttackBonus?$AA@ ; `string'
PUBLIC	?lGetGoldenAgeForeignAttackBonus@CvLuaUnit@@KAHPAUlua_State@@@Z ; CvLuaUnit::lGetGoldenAgeForeignAttackBonus
PUBLIC	??_C@_0CA@IJLJKKDJ@GetOutsideFriendlyLandsModifier?$AA@ ; `string'
PUBLIC	?lGetOutsideFriendlyLandsModifier@CvLuaUnit@@KAHPAUlua_State@@@Z ; CvLuaUnit::lGetOutsideFriendlyLandsModifier
PUBLIC	??_C@_0BP@KLDAEKDJ@GetFriendlyLandsAttackModifier?$AA@ ; `string'
PUBLIC	?lGetFriendlyLandsAttackModifier@CvLuaUnit@@KAHPAUlua_State@@@Z ; CvLuaUnit::lGetFriendlyLandsAttackModifier
PUBLIC	??_C@_0BJ@ECEPCDCN@GetFriendlyLandsModifier?$AA@ ; `string'
PUBLIC	?lGetFriendlyLandsModifier@CvLuaUnit@@KAHPAUlua_State@@@Z ; CvLuaUnit::lGetFriendlyLandsModifier
PUBLIC	??_C@_0BG@KGCGLIBN@GetExtraCombatPercent?$AA@	; `string'
PUBLIC	?lGetExtraCombatPercent@CvLuaUnit@@KAHPAUlua_State@@@Z ; CvLuaUnit::lGetExtraCombatPercent
PUBLIC	??_C@_0BE@FOPILIOB@GetAdjacentTileHeal?$AA@	; `string'
PUBLIC	?lGetAdjacentTileHeal@CvLuaUnit@@KAHPAUlua_State@@@Z ; CvLuaUnit::lGetAdjacentTileHeal
PUBLIC	??_C@_0BA@PJJDJAFH@GetSameTileHeal?$AA@		; `string'
PUBLIC	?lGetSameTileHeal@CvLuaUnit@@KAHPAUlua_State@@@Z ; CvLuaUnit::lGetSameTileHeal
PUBLIC	??_C@_0BF@FDAKDOOD@GetExtraFriendlyHeal?$AA@	; `string'
PUBLIC	?lGetExtraFriendlyHeal@CvLuaUnit@@KAHPAUlua_State@@@Z ; CvLuaUnit::lGetExtraFriendlyHeal
PUBLIC	??_C@_0BE@PPNDFFOE@GetExtraNeutralHeal?$AA@	; `string'
PUBLIC	?lGetExtraNeutralHeal@CvLuaUnit@@KAHPAUlua_State@@@Z ; CvLuaUnit::lGetExtraNeutralHeal
PUBLIC	??_C@_0BC@BKCEPOIK@GetExtraEnemyHeal?$AA@	; `string'
PUBLIC	?lGetExtraEnemyHeal@CvLuaUnit@@KAHPAUlua_State@@@Z ; CvLuaUnit::lGetExtraEnemyHeal
PUBLIC	??_C@_0BD@IOALAFL@GetExtraWithdrawal?$AA@	; `string'
PUBLIC	?lGetExtraWithdrawal@CvLuaUnit@@KAHPAUlua_State@@@Z ; CvLuaUnit::lGetExtraWithdrawal
PUBLIC	??_C@_0BL@ODNAIGPH@GetExtraChanceFirstStrikes?$AA@ ; `string'
PUBLIC	?lGetExtraChanceFirstStrikes@CvLuaUnit@@KAHPAUlua_State@@@Z ; CvLuaUnit::lGetExtraChanceFirstStrikes
PUBLIC	??_C@_0BF@NHNKKCBF@GetExtraFirstStrikes?$AA@	; `string'
PUBLIC	?lGetExtraFirstStrikes@CvLuaUnit@@KAHPAUlua_State@@@Z ; CvLuaUnit::lGetExtraFirstStrikes
PUBLIC	??_C@_0BA@FKMGFEFH@GetExtraEvasion?$AA@		; `string'
PUBLIC	?lGetExtraEvasion@CvLuaUnit@@KAHPAUlua_State@@@Z ; CvLuaUnit::lGetExtraEvasion
PUBLIC	??_C@_0BC@MAMPNOBO@GetExtraIntercept?$AA@	; `string'
PUBLIC	?lGetExtraIntercept@CvLuaUnit@@KAHPAUlua_State@@@Z ; CvLuaUnit::lGetExtraIntercept
PUBLIC	??_C@_0O@HJCFAOBN@GetExtraRange?$AA@		; `string'
PUBLIC	?lGetExtraRange@CvLuaUnit@@KAHPAUlua_State@@@Z	; CvLuaUnit::lGetExtraRange
PUBLIC	??_C@_0BF@OMEPGIG@GetExtraMoveDiscount?$AA@	; `string'
PUBLIC	?lGetExtraMoveDiscount@CvLuaUnit@@KAHPAUlua_State@@@Z ; CvLuaUnit::lGetExtraMoveDiscount
PUBLIC	??_C@_0O@LOCEBOPL@GetExtraMoves?$AA@		; `string'
PUBLIC	?lGetExtraMoves@CvLuaUnit@@KAHPAUlua_State@@@Z	; CvLuaUnit::lGetExtraMoves
PUBLIC	??_C@_0BI@LMONEFFA@GetExtraVisibilityRange?$AA@	; `string'
PUBLIC	?lGetExtraVisibilityRange@CvLuaUnit@@KAHPAUlua_State@@@Z ; CvLuaUnit::lGetExtraVisibilityRange
PUBLIC	??_C@_0BC@NDGFBOMB@GetGarrisonedCity?$AA@	; `string'
PUBLIC	?lGetGarrisonedCity@CvLuaUnit@@KAHPAUlua_State@@@Z ; CvLuaUnit::lGetGarrisonedCity
PUBLIC	??_C@_0N@HELPNODL@IsGarrisoned?$AA@		; `string'
PUBLIC	?lIsGarrisoned@CvLuaUnit@@KAHPAUlua_State@@@Z	; CvLuaUnit::lIsGarrisoned
PUBLIC	??_C@_0BC@BEKIIEEN@IsHillsDoubleMove?$AA@	; `string'
PUBLIC	?lIsHillsDoubleMove@CvLuaUnit@@KAHPAUlua_State@@@Z ; CvLuaUnit::lIsHillsDoubleMove
PUBLIC	??_C@_0BG@FIHHHACK@IsHealOutsideFriendly?$AA@	; `string'
PUBLIC	?lIsHealOutsideFriendly@CvLuaUnit@@KAHPAUlua_State@@@Z ; CvLuaUnit::lIsHealOutsideFriendly
PUBLIC	??_C@_0N@NNLJCGEA@IsAlwaysHeal?$AA@		; `string'
PUBLIC	?lIsAlwaysHeal@CvLuaUnit@@KAHPAUlua_State@@@Z	; CvLuaUnit::lIsAlwaysHeal
PUBLIC	??_C@_0N@JICLFCIN@IsEnemyRoute?$AA@		; `string'
PUBLIC	?lIsEnemyRoute@CvLuaUnit@@KAHPAUlua_State@@@Z	; CvLuaUnit::lIsEnemyRoute
PUBLIC	??_C@_0BJ@CKMHLMJL@IsRiverCrossingNoPenalty?$AA@ ; `string'
PUBLIC	?lIsRiverCrossingNoPenalty@CvLuaUnit@@KAHPAUlua_State@@@Z ; CvLuaUnit::lIsRiverCrossingNoPenalty
PUBLIC	??_C@_0BP@FJEFOKIO@GetRiverCrossingNoPenaltyCount?$AA@ ; `string'
PUBLIC	?lGetRiverCrossingNoPenaltyCount@CvLuaUnit@@KAHPAUlua_State@@@Z ; CvLuaUnit::lGetRiverCrossingNoPenaltyCount
PUBLIC	??_C@_08IIDGMJO@IsAmphib?$AA@			; `string'
PUBLIC	?lIsAmphib@CvLuaUnit@@KAHPAUlua_State@@@Z	; CvLuaUnit::lIsAmphib
PUBLIC	??_C@_0P@DOEJINNJ@GetAmphibCount?$AA@		; `string'
PUBLIC	?lGetAmphibCount@CvLuaUnit@@KAHPAUlua_State@@@Z	; CvLuaUnit::lGetAmphibCount
PUBLIC	??_C@_07KPNLOLLE@IsBlitz?$AA@			; `string'
PUBLIC	?lIsBlitz@CvLuaUnit@@KAHPAUlua_State@@@Z	; CvLuaUnit::lIsBlitz
PUBLIC	??_C@_0O@CMMIPJMH@GetBlitzCount?$AA@		; `string'
PUBLIC	?lGetBlitzCount@CvLuaUnit@@KAHPAUlua_State@@@Z	; CvLuaUnit::lGetBlitzCount
PUBLIC	??_C@_0BA@OCAPIEKB@GetFortifyTurns?$AA@		; `string'
PUBLIC	?lGetFortifyTurns@CvLuaUnit@@KAHPAUlua_State@@@Z ; CvLuaUnit::lGetFortifyTurns
PUBLIC	??_C@_08GAHMDLJN@GetCargo?$AA@			; `string'
PUBLIC	?lGetCargo@CvLuaUnit@@KAHPAUlua_State@@@Z	; CvLuaUnit::lGetCargo
PUBLIC	??_C@_0CG@OOOIDGNO@RotateFacingDirectionCounterCloc@ ; `string'
PUBLIC	?lRotateFacingDirectionCounterClockwise@CvLuaUnit@@KAHPAUlua_State@@@Z ; CvLuaUnit::lRotateFacingDirectionCounterClockwise
PUBLIC	??_C@_0BP@JMEBNBEE@RotateFacingDirectionClockwise?$AA@ ; `string'
PUBLIC	?lRotateFacingDirectionClockwise@CvLuaUnit@@KAHPAUlua_State@@@Z ; CvLuaUnit::lRotateFacingDirectionClockwise
PUBLIC	??_C@_0BD@FNLDHKMI@GetFacingDirection?$AA@	; `string'
PUBLIC	?lGetFacingDirection@CvLuaUnit@@KAHPAUlua_State@@@Z ; CvLuaUnit::lGetFacingDirection
PUBLIC	??_C@_0M@GAKMDEHP@ChangeLevel?$AA@		; `string'
PUBLIC	?lChangeLevel@CvLuaUnit@@KAHPAUlua_State@@@Z	; CvLuaUnit::lChangeLevel
PUBLIC	??_C@_08DCENCMAP@SetLevel?$AA@			; `string'
PUBLIC	?lSetLevel@CvLuaUnit@@KAHPAUlua_State@@@Z	; CvLuaUnit::lSetLevel
PUBLIC	??_C@_08MDGBDPHC@GetLevel?$AA@			; `string'
PUBLIC	?lGetLevel@CvLuaUnit@@KAHPAUlua_State@@@Z	; CvLuaUnit::lGetLevel
PUBLIC	??_C@_0BB@KLHJLBIL@ChangeExperience?$AA@	; `string'
PUBLIC	?lChangeExperience@CvLuaUnit@@KAHPAUlua_State@@@Z ; CvLuaUnit::lChangeExperience
PUBLIC	??_C@_0O@OHKLKLHF@SetExperience?$AA@		; `string'
PUBLIC	?lSetExperience@CvLuaUnit@@KAHPAUlua_State@@@Z	; CvLuaUnit::lSetExperience
PUBLIC	??_C@_0O@JILFBIAC@GetExperience?$AA@		; `string'
PUBLIC	?lGetExperience@CvLuaUnit@@KAHPAUlua_State@@@Z	; CvLuaUnit::lGetExperience
PUBLIC	??_C@_0L@PCIEPGHM@IsImmobile?$AA@		; `string'
PUBLIC	?lIsImmobile@CvLuaUnit@@KAHPAUlua_State@@@Z	; CvLuaUnit::lIsImmobile
PUBLIC	??_C@_0M@HJHLDBGA@FinishMoves?$AA@		; `string'
PUBLIC	?lFinishMoves@CvLuaUnit@@KAHPAUlua_State@@@Z	; CvLuaUnit::lFinishMoves
PUBLIC	??_C@_0M@CMBKPBOF@ChangeMoves?$AA@		; `string'
PUBLIC	?lChangeMoves@CvLuaUnit@@KAHPAUlua_State@@@Z	; CvLuaUnit::lChangeMoves
PUBLIC	??_C@_08HOPLOJJF@SetMoves?$AA@			; `string'
PUBLIC	?lSetMoves@CvLuaUnit@@KAHPAUlua_State@@@Z	; CvLuaUnit::lSetMoves
PUBLIC	??_C@_08IPNHPKOI@GetMoves?$AA@			; `string'
PUBLIC	?lGetMoves@CvLuaUnit@@KAHPAUlua_State@@@Z	; CvLuaUnit::lGetMoves
PUBLIC	??_C@_0N@OECJINCP@ChangeDamage?$AA@		; `string'
PUBLIC	?lChangeDamage@CvLuaUnit@@KAHPAUlua_State@@@Z	; CvLuaUnit::lChangeDamage
PUBLIC	??_C@_09LEHOBNAL@SetDamage?$AA@			; `string'
PUBLIC	?lSetDamage@CvLuaUnit@@KAHPAUlua_State@@@Z	; CvLuaUnit::lSetDamage
PUBLIC	??_C@_09JKDLDMJJ@GetDamage?$AA@			; `string'
PUBLIC	?lGetDamage@CvLuaUnit@@KAHPAUlua_State@@@Z	; CvLuaUnit::lGetDamage
PUBLIC	??_C@_0BA@ICPFIKDJ@GetLastMoveTurn?$AA@		; `string'
PUBLIC	?lGetLastMoveTurn@CvLuaUnit@@KAHPAUlua_State@@@Z ; CvLuaUnit::lGetLastMoveTurn
PUBLIC	??_C@_0BD@GLLONDKJ@GetGameTurnCreated?$AA@	; `string'
PUBLIC	?lGetGameTurnCreated@CvLuaUnit@@KAHPAUlua_State@@@Z ; CvLuaUnit::lGetGameTurnCreated
PUBLIC	??_C@_0N@EBILAINE@SetReconPlot?$AA@		; `string'
PUBLIC	?lSetReconPlot@CvLuaUnit@@KAHPAUlua_State@@@Z	; CvLuaUnit::lSetReconPlot
PUBLIC	??_C@_0N@DFDFMEJI@GetReconPlot?$AA@		; `string'
PUBLIC	?lGetReconPlot@CvLuaUnit@@KAHPAUlua_State@@@Z	; CvLuaUnit::lGetReconPlot
PUBLIC	??_C@_07GGOHINDE@GetArea?$AA@			; `string'
PUBLIC	?lGetArea@CvLuaUnit@@KAHPAUlua_State@@@Z	; CvLuaUnit::lGetArea
PUBLIC	??_C@_07LBIDHAGI@GetPlot?$AA@			; `string'
PUBLIC	?lGetPlot@CvLuaUnit@@KAHPAUlua_State@@@Z	; CvLuaUnit::lGetPlot
PUBLIC	??_C@_06FBGHKGAE@AtPlot?$AA@			; `string'
PUBLIC	?lAtPlot@CvLuaUnit@@KAHPAUlua_State@@@Z		; CvLuaUnit::lAtPlot
PUBLIC	??_C@_02DKLFHNOI@At?$AA@			; `string'
PUBLIC	?lAt@CvLuaUnit@@KAHPAUlua_State@@@Z		; CvLuaUnit::lAt
PUBLIC	??_C@_05HIHOHCOG@SetXY?$AA@			; `string'
PUBLIC	?lSetXY@CvLuaUnit@@KAHPAUlua_State@@@Z		; CvLuaUnit::lSetXY
PUBLIC	??_C@_04OHHHKNBL@GetY?$AA@			; `string'
PUBLIC	?lGetY@CvLuaUnit@@KAHPAUlua_State@@@Z		; CvLuaUnit::lGetY
PUBLIC	??_C@_04POGMJMFK@GetX?$AA@			; `string'
PUBLIC	?lGetX@CvLuaUnit@@KAHPAUlua_State@@@Z		; CvLuaUnit::lGetX
PUBLIC	??_C@_0BA@KMOOCBFO@SetHotKeyNumber?$AA@		; `string'
PUBLIC	?lSetHotKeyNumber@CvLuaUnit@@KAHPAUlua_State@@@Z ; CvLuaUnit::lSetHotKeyNumber
PUBLIC	??_C@_0BA@JOPIFDEH@GetHotKeyNumber?$AA@		; `string'
PUBLIC	?lGetHotKeyNumber@CvLuaUnit@@KAHPAUlua_State@@@Z ; CvLuaUnit::lGetHotKeyNumber
PUBLIC	??_C@_05CLBJHDA@GetID?$AA@			; `string'
PUBLIC	?lGetID@CvLuaUnit@@KAHPAUlua_State@@@Z		; CvLuaUnit::lGetID
PUBLIC	??_C@_0P@FKNDEEFE@GetUnitAICargo?$AA@		; `string'
PUBLIC	?lGetUnitAICargo@CvLuaUnit@@KAHPAUlua_State@@@Z	; CvLuaUnit::lGetUnitAICargo
PUBLIC	??_C@_0BA@FAKJAOCC@CanCargoAllMove?$AA@		; `string'
PUBLIC	?lCanCargoAllMove@CvLuaUnit@@KAHPAUlua_State@@@Z ; CvLuaUnit::lCanCargoAllMove
PUBLIC	??_C@_08POCIMEDI@HasCargo?$AA@			; `string'
PUBLIC	?lHasCargo@CvLuaUnit@@KAHPAUlua_State@@@Z	; CvLuaUnit::lHasCargo
PUBLIC	??_C@_0BE@MFHGGLIO@CargoSpaceAvailable?$AA@	; `string'
PUBLIC	?lCargoSpaceAvailable@CvLuaUnit@@KAHPAUlua_State@@@Z ; CvLuaUnit::lCargoSpaceAvailable
PUBLIC	??_C@_06DNGBIEOM@IsFull?$AA@			; `string'
PUBLIC	?lIsFull@CvLuaUnit@@KAHPAUlua_State@@@Z		; CvLuaUnit::lIsFull
PUBLIC	??_C@_0BB@KHCPCPHA@ChangeCargoSpace?$AA@	; `string'
PUBLIC	?lChangeCargoSpace@CvLuaUnit@@KAHPAUlua_State@@@Z ; CvLuaUnit::lChangeCargoSpace
PUBLIC	??_C@_0L@DODLMACF@CargoSpace?$AA@		; `string'
PUBLIC	?lCargoSpace@CvLuaUnit@@KAHPAUlua_State@@@Z	; CvLuaUnit::lCargoSpace
PUBLIC	??_C@_0M@EMBKKFAL@DomainCargo?$AA@		; `string'
PUBLIC	?lDomainCargo@CvLuaUnit@@KAHPAUlua_State@@@Z	; CvLuaUnit::lDomainCargo
PUBLIC	??_C@_0N@JIBALDJB@SpecialCargo?$AA@		; `string'
PUBLIC	?lSpecialCargo@CvLuaUnit@@KAHPAUlua_State@@@Z	; CvLuaUnit::lSpecialCargo
PUBLIC	??_C@_0BG@CILHBFIF@CapitalDefenseFalloff?$AA@	; `string'
PUBLIC	?lCapitalDefenseFalloff@CvLuaUnit@@KAHPAUlua_State@@@Z ; CvLuaUnit::lCapitalDefenseFalloff
PUBLIC	??_C@_0BH@CDDLEEIL@CapitalDefenseModifier?$AA@	; `string'
PUBLIC	?lCapitalDefenseModifier@CvLuaUnit@@KAHPAUlua_State@@@Z ; CvLuaUnit::lCapitalDefenseModifier
PUBLIC	??_C@_0BC@IPOJCGCM@AirSweepCombatMod?$AA@	; `string'
PUBLIC	?lAirSweepCombatMod@CvLuaUnit@@KAHPAUlua_State@@@Z ; CvLuaUnit::lAirSweepCombatMod
PUBLIC	??_C@_0BM@KMIJFMOI@GetUnhappinessCombatPenalty?$AA@ ; `string'
PUBLIC	?lGetUnhappinessCombatPenalty@CvLuaUnit@@KAHPAUlua_State@@@Z ; CvLuaUnit::lGetUnhappinessCombatPenalty
PUBLIC	??_C@_0CC@OAGBAAPI@GetStrategicResourceCombatPenalt@ ; `string'
PUBLIC	?lGetStrategicResourceCombatPenalty@CvLuaUnit@@KAHPAUlua_State@@@Z ; CvLuaUnit::lGetStrategicResourceCombatPenalty
PUBLIC	??_C@_0P@NJCAJHBI@DomainModifier?$AA@		; `string'
PUBLIC	?lDomainModifier@CvLuaUnit@@KAHPAUlua_State@@@Z	; CvLuaUnit::lDomainModifier
PUBLIC	??_C@_0BD@DFAJNMBC@UnitCombatModifier?$AA@	; `string'
PUBLIC	?lUnitCombatModifier@CvLuaUnit@@KAHPAUlua_State@@@Z ; CvLuaUnit::lUnitCombatModifier
PUBLIC	??_C@_0BJ@OJACANJO@UnitClassDefenseModifier?$AA@ ; `string'
PUBLIC	?lUnitClassDefenseModifier@CvLuaUnit@@KAHPAUlua_State@@@Z ; CvLuaUnit::lUnitClassDefenseModifier
PUBLIC	??_C@_0BI@NFGAIELD@UnitClassAttackModifier?$AA@	; `string'
PUBLIC	?lUnitClassAttackModifier@CvLuaUnit@@KAHPAUlua_State@@@Z ; CvLuaUnit::lUnitClassAttackModifier
PUBLIC	??_C@_0BH@BEGNCFMJ@FeatureDefenseModifier?$AA@	; `string'
PUBLIC	?lFeatureDefenseModifier@CvLuaUnit@@KAHPAUlua_State@@@Z ; CvLuaUnit::lFeatureDefenseModifier
PUBLIC	??_C@_0BG@NILBKJKJ@FeatureAttackModifier?$AA@	; `string'
PUBLIC	?lFeatureAttackModifier@CvLuaUnit@@KAHPAUlua_State@@@Z ; CvLuaUnit::lFeatureAttackModifier
PUBLIC	??_C@_0BH@NAIEHADC@TerrainDefenseModifier?$AA@	; `string'
PUBLIC	?lTerrainDefenseModifier@CvLuaUnit@@KAHPAUlua_State@@@Z ; CvLuaUnit::lTerrainDefenseModifier
PUBLIC	??_C@_0BG@FAKOOKFA@TerrainAttackModifier?$AA@	; `string'
PUBLIC	?lTerrainAttackModifier@CvLuaUnit@@KAHPAUlua_State@@@Z ; CvLuaUnit::lTerrainAttackModifier
PUBLIC	??_C@_0BF@GLPAPCOP@RoughDefenseModifier?$AA@	; `string'
PUBLIC	?lRoughDefenseModifier@CvLuaUnit@@KAHPAUlua_State@@@Z ; CvLuaUnit::lRoughDefenseModifier
PUBLIC	??_C@_0BE@EPGDEJAB@FlankAttackModifier?$AA@	; `string'
PUBLIC	?lFlankAttackModifier@CvLuaUnit@@KAHPAUlua_State@@@Z ; CvLuaUnit::lFlankAttackModifier
PUBLIC	??_C@_0BG@FIKOLHBD@AttackWoundedModifier?$AA@	; `string'
PUBLIC	?lAttackWoundedModifier@CvLuaUnit@@KAHPAUlua_State@@@Z ; CvLuaUnit::lAttackWoundedModifier
PUBLIC	??_C@_0BI@JHKANDHP@AttackFortifiedModifier?$AA@	; `string'
PUBLIC	?lAttackFortifiedModifier@CvLuaUnit@@KAHPAUlua_State@@@Z ; CvLuaUnit::lAttackFortifiedModifier
PUBLIC	??_C@_0BK@FJFHFKJE@RoughRangedAttackModifier?$AA@ ; `string'
PUBLIC	?lRoughRangedAttackModifier@CvLuaUnit@@KAHPAUlua_State@@@Z ; CvLuaUnit::lRoughRangedAttackModifier
PUBLIC	??_C@_0BE@PIHGPDLD@OpenDefenseModifier?$AA@	; `string'
PUBLIC	?lOpenDefenseModifier@CvLuaUnit@@KAHPAUlua_State@@@Z ; CvLuaUnit::lOpenDefenseModifier
PUBLIC	??_C@_0BJ@KDNMKBNA@OpenRangedAttackModifier?$AA@ ; `string'
PUBLIC	?lOpenRangedAttackModifier@CvLuaUnit@@KAHPAUlua_State@@@Z ; CvLuaUnit::lOpenRangedAttackModifier
PUBLIC	??_C@_0BD@KAJFPFGI@OpenAttackModifier?$AA@	; `string'
PUBLIC	?lOpenAttackModifier@CvLuaUnit@@KAHPAUlua_State@@@Z ; CvLuaUnit::lOpenAttackModifier
PUBLIC	??_C@_0BE@CPGLDEOF@RoughAttackModifier?$AA@	; `string'
PUBLIC	?lRoughAttackModifier@CvLuaUnit@@KAHPAUlua_State@@@Z ; CvLuaUnit::lRoughAttackModifier
PUBLIC	??_C@_0BF@PHAMCNAD@HillsDefenseModifier?$AA@	; `string'
PUBLIC	?lHillsDefenseModifier@CvLuaUnit@@KAHPAUlua_State@@@Z ; CvLuaUnit::lHillsDefenseModifier
PUBLIC	??_C@_0BM@HLDAPOIG@HeavyChargeDownhillModifier?$AA@ ; `string'
PUBLIC	?lHeavyChargeDownhillModifier@CvLuaUnit@@KAHPAUlua_State@@@Z ; CvLuaUnit::lHeavyChargeDownhillModifier
PUBLIC	??_C@_0BE@NKLCHBCB@HillsAttackModifier?$AA@	; `string'
PUBLIC	?lHillsAttackModifier@CvLuaUnit@@KAHPAUlua_State@@@Z ; CvLuaUnit::lHillsAttackModifier
PUBLIC	??_C@_0BE@BAHDGHEA@CityDefenseModifier?$AA@	; `string'
PUBLIC	?lCityDefenseModifier@CvLuaUnit@@KAHPAUlua_State@@@Z ; CvLuaUnit::lCityDefenseModifier
PUBLIC	??_C@_0BD@BNNFDFCP@CityAttackModifier?$AA@	; `string'
PUBLIC	?lCityAttackModifier@CvLuaUnit@@KAHPAUlua_State@@@Z ; CvLuaUnit::lCityAttackModifier
PUBLIC	??_C@_0BI@DOOFICGI@GetRangedAttackModifier?$AA@	; `string'
PUBLIC	?lGetRangedAttackModifier@CvLuaUnit@@KAHPAUlua_State@@@Z ; CvLuaUnit::lGetRangedAttackModifier
PUBLIC	??_C@_0BD@DOEJPBBH@GetDefenseModifier?$AA@	; `string'
PUBLIC	?lGetDefenseModifier@CvLuaUnit@@KAHPAUlua_State@@@Z ; CvLuaUnit::lGetDefenseModifier
PUBLIC	??_C@_0BC@JDEOODFC@GetAttackModifier?$AA@	; `string'
PUBLIC	?lGetAttackModifier@CvLuaUnit@@KAHPAUlua_State@@@Z ; CvLuaUnit::lGetAttackModifier
PUBLIC	??_C@_0BE@DLLGHCIO@GetAdjacentModifier?$AA@	; `string'
PUBLIC	?lGetAdjacentModifier@CvLuaUnit@@KAHPAUlua_State@@@Z ; CvLuaUnit::lGetAdjacentModifier
PUBLIC	??_C@_0BG@OIIHINBE@WithdrawalProbability?$AA@	; `string'
PUBLIC	?lWithdrawalProbability@CvLuaUnit@@KAHPAUlua_State@@@Z ; CvLuaUnit::lWithdrawalProbability
PUBLIC	??_C@_0BD@NJKKJPLI@EvasionProbability?$AA@	; `string'
PUBLIC	?lEvasionProbability@CvLuaUnit@@KAHPAUlua_State@@@Z ; CvLuaUnit::lEvasionProbability
PUBLIC	??_C@_0BM@EFLPCPDH@CurrInterceptionProbability?$AA@ ; `string'
PUBLIC	?lCurrInterceptionProbability@CvLuaUnit@@KAHPAUlua_State@@@Z ; CvLuaUnit::lCurrInterceptionProbability
PUBLIC	??_C@_0BL@HEGDGCBF@MaxInterceptionProbability?$AA@ ; `string'
PUBLIC	?lMaxInterceptionProbability@CvLuaUnit@@KAHPAUlua_State@@@Z ; CvLuaUnit::lMaxInterceptionProbability
PUBLIC	??_C@_0BB@PJIAODBJ@IsCityAttackOnly?$AA@	; `string'
PUBLIC	?lIsCityAttackOnly@CvLuaUnit@@KAHPAUlua_State@@@Z ; CvLuaUnit::lIsCityAttackOnly
PUBLIC	??_C@_0BK@DIBEDCBC@IsRangeAttackOnlyInDomain?$AA@ ; `string'
PUBLIC	?lIsRangeAttackOnlyInDomain@CvLuaUnit@@KAHPAUlua_State@@@Z ; CvLuaUnit::lIsRangeAttackOnlyInDomain
PUBLIC	??_C@_0N@EJFNAKBN@IsNukeImmune?$AA@		; `string'
PUBLIC	?lIsNukeImmune@CvLuaUnit@@KAHPAUlua_State@@@Z	; CvLuaUnit::lIsNukeImmune
PUBLIC	??_C@_0M@BNMDJPAD@IsInvisible?$AA@		; `string'
PUBLIC	?lIsInvisible@CvLuaUnit@@KAHPAUlua_State@@@Z	; CvLuaUnit::lIsInvisible
PUBLIC	??_C@_0BB@IMPFCGLP@IsNeverInvisible?$AA@	; `string'
PUBLIC	?lIsNeverInvisible@CvLuaUnit@@KAHPAUlua_State@@@Z ; CvLuaUnit::lIsNeverInvisible
PUBLIC	??_C@_0BC@PNMBBNHM@IgnoreTerrainCost?$AA@	; `string'
PUBLIC	?lIgnoreTerrainCost@CvLuaUnit@@KAHPAUlua_State@@@Z ; CvLuaUnit::lIgnoreTerrainCost
PUBLIC	??_C@_0BB@MENGGKPI@FlatMovementCost?$AA@	; `string'
PUBLIC	?lFlatMovementCost@CvLuaUnit@@KAHPAUlua_State@@@Z ; CvLuaUnit::lFlatMovementCost
PUBLIC	??_C@_0BC@PHIBAHKE@CanMoveAllTerrain?$AA@	; `string'
PUBLIC	?lCanMoveAllTerrain@CvLuaUnit@@KAHPAUlua_State@@@Z ; CvLuaUnit::lCanMoveAllTerrain
PUBLIC	??_C@_0BC@DKMBECGO@CanMoveImpassable?$AA@	; `string'
PUBLIC	?lCanMoveImpassable@CvLuaUnit@@KAHPAUlua_State@@@Z ; CvLuaUnit::lCanMoveImpassable
PUBLIC	??_C@_0BG@NPOBMDEK@IgnoreBuildingDefense?$AA@	; `string'
PUBLIC	?lIgnoreBuildingDefense@CvLuaUnit@@KAHPAUlua_State@@@Z ; CvLuaUnit::lIgnoreBuildingDefense
PUBLIC	??_C@_0BB@EDEJJMBG@NoDefensiveBonus?$AA@	; `string'
PUBLIC	?lNoDefensiveBonus@CvLuaUnit@@KAHPAUlua_State@@@Z ; CvLuaUnit::lNoDefensiveBonus
PUBLIC	??_C@_0BF@LOKEAEHO@ImmuneToFirstStrikes?$AA@	; `string'
PUBLIC	?lImmuneToFirstStrikes@CvLuaUnit@@KAHPAUlua_State@@@Z ; CvLuaUnit::lImmuneToFirstStrikes
PUBLIC	??_C@_0BH@HMHIMLJG@IsSetUpForRangedAttack?$AA@	; `string'
PUBLIC	?lIsSetUpForRangedAttack@CvLuaUnit@@KAHPAUlua_State@@@Z ; CvLuaUnit::lIsSetUpForRangedAttack
PUBLIC	??_C@_0BI@IKLKKCFA@CanSetUpForRangedAttack?$AA@	; `string'
PUBLIC	?lCanSetUpForRangedAttack@CvLuaUnit@@KAHPAUlua_State@@@Z ; CvLuaUnit::lCanSetUpForRangedAttack
PUBLIC	??_C@_0BK@ODLOGFHD@IsMustSetUpToRangedAttack?$AA@ ; `string'
PUBLIC	?lIsMustSetUpToRangedAttack@CvLuaUnit@@KAHPAUlua_State@@@Z ; CvLuaUnit::lIsMustSetUpToRangedAttack
PUBLIC	??_C@_08PBIEENOB@IsRanged?$AA@			; `string'
PUBLIC	?lIsRanged@CvLuaUnit@@KAHPAUlua_State@@@Z	; CvLuaUnit::lIsRanged
PUBLIC	??_C@_0BA@BPAAIGPJ@MaxFirstStrikes?$AA@		; `string'
PUBLIC	?lMaxFirstStrikes@CvLuaUnit@@KAHPAUlua_State@@@Z ; CvLuaUnit::lMaxFirstStrikes
PUBLIC	??_C@_0BD@IEANKGHK@ChanceFirstStrikes?$AA@	; `string'
PUBLIC	?lChanceFirstStrikes@CvLuaUnit@@KAHPAUlua_State@@@Z ; CvLuaUnit::lChanceFirstStrikes
PUBLIC	??_C@_0N@PJAIAMPF@FirstStrikes?$AA@		; `string'
PUBLIC	?lFirstStrikes@CvLuaUnit@@KAHPAUlua_State@@@Z	; CvLuaUnit::lFirstStrikes
PUBLIC	??_C@_0L@BMCJNNEJ@MaxXPValue?$AA@		; `string'
PUBLIC	?lMaxXPValue@CvLuaUnit@@KAHPAUlua_State@@@Z	; CvLuaUnit::lMaxXPValue
PUBLIC	??_C@_0P@JHMJJDKG@DefenseXPValue?$AA@		; `string'
PUBLIC	?lDefenseXPValue@CvLuaUnit@@KAHPAUlua_State@@@Z	; CvLuaUnit::lDefenseXPValue
PUBLIC	??_C@_0O@DKJMBMOF@AttackXPValue?$AA@		; `string'
PUBLIC	?lAttackXPValue@CvLuaUnit@@KAHPAUlua_State@@@Z	; CvLuaUnit::lAttackXPValue
PUBLIC	??_C@_0BB@KHKCLNBJ@ExperienceNeeded?$AA@	; `string'
PUBLIC	?lExperienceNeeded@CvLuaUnit@@KAHPAUlua_State@@@Z ; CvLuaUnit::lExperienceNeeded
PUBLIC	??_C@_0BA@HLMKCAHI@FortifyModifier?$AA@		; `string'
PUBLIC	?lFortifyModifier@CvLuaUnit@@KAHPAUlua_State@@@Z ; CvLuaUnit::lFortifyModifier
PUBLIC	??_C@_0BC@GLEHCFPG@IsEverFortifyable?$AA@	; `string'
PUBLIC	?lIsEverFortifyable@CvLuaUnit@@KAHPAUlua_State@@@Z ; CvLuaUnit::lIsEverFortifyable
PUBLIC	??_C@_0O@OCMBHLME@IsFortifyable?$AA@		; `string'
PUBLIC	?lIsFortifyable@CvLuaUnit@@KAHPAUlua_State@@@Z	; CvLuaUnit::lIsFortifyable
PUBLIC	??_C@_09MIKEECCD@IsWaiting?$AA@			; `string'
PUBLIC	?lIsWaiting@CvLuaUnit@@KAHPAUlua_State@@@Z	; CvLuaUnit::lIsWaiting
PUBLIC	??_C@_0M@GLGABLLL@IsAutomated?$AA@		; `string'
PUBLIC	?lIsAutomated@CvLuaUnit@@KAHPAUlua_State@@@Z	; CvLuaUnit::lIsAutomated
PUBLIC	??_C@_0BB@OKDKFEAC@GetCaptureChance?$AA@	; `string'
PUBLIC	?lGetCaptureChance@CvLuaUnit@@KAHPAUlua_State@@@Z ; CvLuaUnit::lGetCaptureChance
PUBLIC	??_C@_0BN@LPOGIFFC@GetBestSeaPillageInterceptor?$AA@ ; `string'
PUBLIC	?lGetBestSeaPillageInterceptor@CvLuaUnit@@KAHPAUlua_State@@@Z ; CvLuaUnit::lGetBestSeaPillageInterceptor
PUBLIC	??_C@_0BE@FILFEJIA@GetInterceptorCount?$AA@	; `string'
PUBLIC	?lGetInterceptorCount@CvLuaUnit@@KAHPAUlua_State@@@Z ; CvLuaUnit::lGetInterceptorCount
PUBLIC	??_C@_0BD@LEJHGMC@GetBestInterceptor?$AA@	; `string'
PUBLIC	?lGetBestInterceptor@CvLuaUnit@@KAHPAUlua_State@@@Z ; CvLuaUnit::lGetBestInterceptor
PUBLIC	??_C@_0BK@LJEHDMDL@GetAirStrikeDefenseDamage?$AA@ ; `string'
PUBLIC	?lGetAirStrikeDefenseDamage@CvLuaUnit@@KAHPAUlua_State@@@Z ; CvLuaUnit::lGetAirStrikeDefenseDamage
PUBLIC	??_C@_0BF@KIPJJBIH@GetRangeCombatDamage?$AA@	; `string'
PUBLIC	?lGetRangeCombatDamage@CvLuaUnit@@KAHPAUlua_State@@@Z ; CvLuaUnit::lGetRangeCombatDamage
PUBLIC	??_C@_0BD@DKAALEFM@GetAirCombatDamage?$AA@	; `string'
PUBLIC	?lGetAirCombatDamage@CvLuaUnit@@KAHPAUlua_State@@@Z ; CvLuaUnit::lGetAirCombatDamage
PUBLIC	??_C@_0N@JPHLBGBL@CanAirDefend?$AA@		; `string'
PUBLIC	?lCanAirDefend@CvLuaUnit@@KAHPAUlua_State@@@Z	; CvLuaUnit::lCanAirDefend
PUBLIC	??_C@_0N@BPMLDEKL@CanAirAttack?$AA@		; `string'
PUBLIC	?lCanAirAttack@CvLuaUnit@@KAHPAUlua_State@@@Z	; CvLuaUnit::lCanAirAttack
PUBLIC	??_C@_0BF@CKDOAPEN@GetRangedCombatLimit?$AA@	; `string'
PUBLIC	?lGetRangedCombatLimit@CvLuaUnit@@KAHPAUlua_State@@@Z ; CvLuaUnit::lGetRangedCombatLimit
PUBLIC	??_C@_0P@PEHPLGIA@GetCombatLimit?$AA@		; `string'
PUBLIC	?lGetCombatLimit@CvLuaUnit@@KAHPAUlua_State@@@Z	; CvLuaUnit::lGetCombatLimit
PUBLIC	??_C@_0BL@DHDPDFCI@GetMaxRangedCombatStrength?$AA@ ; `string'
PUBLIC	?lGetMaxRangedCombatStrength@CvLuaUnit@@KAHPAUlua_State@@@Z ; CvLuaUnit::lGetMaxRangedCombatStrength
PUBLIC	??_C@_0BM@JJBLKOAN@GetBaseRangedCombatStrength?$AA@ ; `string'
PUBLIC	?lGetBaseRangedCombatStrength@CvLuaUnit@@KAHPAUlua_State@@@Z ; CvLuaUnit::lGetBaseRangedCombatStrength
PUBLIC	??_C@_07LBEMKGNA@IsTrade?$AA@			; `string'
PUBLIC	?lIsTrade@CvLuaUnit@@KAHPAUlua_State@@@Z	; CvLuaUnit::lIsTrade
PUBLIC	??_C@_0BH@CHHDBNLA@IsEnemyInMovementRange?$AA@	; `string'
PUBLIC	?lIsEnemyInMovementRange@CvLuaUnit@@KAHPAUlua_State@@@Z ; CvLuaUnit::lIsEnemyInMovementRange
PUBLIC	??_C@_0BH@DAIJJIKL@IsCanAttackWithMoveNow?$AA@	; `string'
PUBLIC	?lIsCanAttackWithMoveNow@CvLuaUnit@@KAHPAUlua_State@@@Z ; CvLuaUnit::lIsCanAttackWithMoveNow
PUBLIC	??_C@_0M@IEELDLKI@IsCanAttack?$AA@		; `string'
PUBLIC	?lIsCanAttack@CvLuaUnit@@KAHPAUlua_State@@@Z	; CvLuaUnit::lIsCanAttack
PUBLIC	??_C@_0BC@DBALPDOL@IsCanAttackRanged?$AA@	; `string'
PUBLIC	?lIsCanAttackRanged@CvLuaUnit@@KAHPAUlua_State@@@Z ; CvLuaUnit::lIsCanAttackRanged
PUBLIC	??_C@_0BE@FMPCPPOB@IsCanAttackWithMove?$AA@	; `string'
PUBLIC	?lIsCanAttackWithMove@CvLuaUnit@@KAHPAUlua_State@@@Z ; CvLuaUnit::lIsCanAttackWithMove
PUBLIC	??_C@_08HOPDGJBN@CanSiege?$AA@			; `string'
PUBLIC	?lCanSiege@CvLuaUnit@@KAHPAUlua_State@@@Z	; CvLuaUnit::lCanSiege
PUBLIC	??_C@_0M@EPLBJBI@IsCanDefend?$AA@		; `string'
PUBLIC	?lIsCanDefend@CvLuaUnit@@KAHPAUlua_State@@@Z	; CvLuaUnit::lIsCanDefend
PUBLIC	??_C@_0N@FDMOBEEM@IsCombatUnit?$AA@		; `string'
PUBLIC	?lIsCombatUnit@CvLuaUnit@@KAHPAUlua_State@@@Z	; CvLuaUnit::lIsCombatUnit
PUBLIC	??_C@_0BH@NDNEFMFF@GetEmbarkedUnitDefense?$AA@	; `string'
PUBLIC	?lGetEmbarkedUnitDefense@CvLuaUnit@@KAHPAUlua_State@@@Z ; CvLuaUnit::lGetEmbarkedUnitDefense
PUBLIC	??_C@_0BG@CEAGLNCO@GetMaxDefenseStrength?$AA@	; `string'
PUBLIC	?lGetMaxDefenseStrength@CvLuaUnit@@KAHPAUlua_State@@@Z ; CvLuaUnit::lGetMaxDefenseStrength
PUBLIC	??_C@_0BF@DAKJENBM@GetMaxAttackStrength?$AA@	; `string'
PUBLIC	?lGetMaxAttackStrength@CvLuaUnit@@KAHPAUlua_State@@@Z ; CvLuaUnit::lGetMaxAttackStrength
PUBLIC	??_C@_0BG@ONCMJAK@GetBaseCombatStrength?$AA@	; `string'
PUBLIC	?lGetBaseCombatStrength@CvLuaUnit@@KAHPAUlua_State@@@Z ; CvLuaUnit::lGetBaseCombatStrength
PUBLIC	??_C@_0BG@PLIEBAEL@SetBaseCombatStrength?$AA@	; `string'
PUBLIC	?lSetBaseCombatStrength@CvLuaUnit@@KAHPAUlua_State@@@Z ; CvLuaUnit::lSetBaseCombatStrength
PUBLIC	??_C@_0P@KICKDPKF@IsDelayedDeath?$AA@		; `string'
PUBLIC	?lIsDelayedDeath@CvLuaUnit@@KAHPAUlua_State@@@Z	; CvLuaUnit::lIsDelayedDeath
PUBLIC	??_C@_06NHLJJJEI@IsDead?$AA@			; `string'
PUBLIC	?lIsDead@CvLuaUnit@@KAHPAUlua_State@@@Z		; CvLuaUnit::lIsDead
PUBLIC	??_C@_06BGPCCMKO@IsHurt?$AA@			; `string'
PUBLIC	?lIsHurt@CvLuaUnit@@KAHPAUlua_State@@@Z		; CvLuaUnit::lIsHurt
PUBLIC	??_C@_0BB@OHDBNFAL@GetCurrHitPoints?$AA@	; `string'
PUBLIC	?lGetCurrHitPoints@CvLuaUnit@@KAHPAUlua_State@@@Z ; CvLuaUnit::lGetCurrHitPoints
PUBLIC	??_C@_0BA@NIPPNLFL@GetMaxHitPoints?$AA@		; `string'
PUBLIC	?lGetMaxHitPoints@CvLuaUnit@@KAHPAUlua_State@@@Z ; CvLuaUnit::lGetMaxHitPoints
PUBLIC	??_C@_0L@ONNJBDMN@IsInCombat?$AA@		; `string'
PUBLIC	?lIsInCombat@CvLuaUnit@@KAHPAUlua_State@@@Z	; CvLuaUnit::lIsInCombat
PUBLIC	??_C@_0M@HABIDFCI@IsDefending?$AA@		; `string'
PUBLIC	?lIsDefending@CvLuaUnit@@KAHPAUlua_State@@@Z	; CvLuaUnit::lIsDefending
PUBLIC	??_C@_0M@NJJFDOBE@IsAttacking?$AA@		; `string'
PUBLIC	?lIsAttacking@CvLuaUnit@@KAHPAUlua_State@@@Z	; CvLuaUnit::lIsAttacking
PUBLIC	??_C@_0L@MOBAIMGP@IsFighting?$AA@		; `string'
PUBLIC	?lIsFighting@CvLuaUnit@@KAHPAUlua_State@@@Z	; CvLuaUnit::lIsFighting
PUBLIC	??_C@_0O@EJGNOPIA@IsGreatPerson?$AA@		; `string'
PUBLIC	?lIsGreatPerson@CvLuaUnit@@KAHPAUlua_State@@@Z	; CvLuaUnit::lIsGreatPerson
PUBLIC	??_C@_0BI@JLJEOEEL@CanCoexistWithEnemyUnit?$AA@	; `string'
PUBLIC	?lCanCoexistWithEnemyUnit@CvLuaUnit@@KAHPAUlua_State@@@Z ; CvLuaUnit::lCanCoexistWithEnemyUnit
PUBLIC	??_C@_0BE@JOMPGGJE@IsNearFriendlyMinor?$AA@	; `string'
PUBLIC	?lIsNearFriendlyMinor@CvLuaUnit@@KAHPAUlua_State@@@Z ; CvLuaUnit::lIsNearFriendlyMinor
PUBLIC	??_C@_0M@EBKACFHH@IsGoldenAge?$AA@		; `string'
PUBLIC	?lIsGoldenAge@CvLuaUnit@@KAHPAUlua_State@@@Z	; CvLuaUnit::lIsGoldenAge
PUBLIC	??_C@_06GLMJFJI@IsWork?$AA@			; `string'
PUBLIC	?lIsWork@CvLuaUnit@@KAHPAUlua_State@@@Z		; CvLuaUnit::lIsWork
PUBLIC	??_C@_07KMNFCCCM@IsFound?$AA@			; `string'
PUBLIC	?lIsFound@CvLuaUnit@@KAHPAUlua_State@@@Z	; CvLuaUnit::lIsFound
PUBLIC	??_C@_0BB@NBBPHOPE@IsRivalTerritory?$AA@	; `string'
PUBLIC	?lIsRivalTerritory@CvLuaUnit@@KAHPAUlua_State@@@Z ; CvLuaUnit::lIsRivalTerritory
PUBLIC	??_C@_0M@NDDEEDIG@IsNoCapture?$AA@		; `string'
PUBLIC	?lIsNoCapture@CvLuaUnit@@KAHPAUlua_State@@@Z	; CvLuaUnit::lIsNoCapture
PUBLIC	??_C@_0BA@HAJEEKLO@IsOnlyDefensive?$AA@		; `string'
PUBLIC	?lIsOnlyDefensive@CvLuaUnit@@KAHPAUlua_State@@@Z ; CvLuaUnit::lIsOnlyDefensive
PUBLIC	??_C@_0P@GJBOHHLD@IsNoBadGoodies?$AA@		; `string'
PUBLIC	?lIsNoBadGoodies@CvLuaUnit@@KAHPAUlua_State@@@Z	; CvLuaUnit::lIsNoBadGoodies
PUBLIC	??_C@_08JFPBBIMB@WorkRate?$AA@			; `string'
PUBLIC	?lWorkRate@CvLuaUnit@@KAHPAUlua_State@@@Z	; CvLuaUnit::lWorkRate
PUBLIC	??_C@_0N@GJAMOEAC@GetBuildType?$AA@		; `string'
PUBLIC	?lGetBuildType@CvLuaUnit@@KAHPAUlua_State@@@Z	; CvLuaUnit::lGetBuildType
PUBLIC	??_C@_0O@NKBEKKHA@CanBuildRoute?$AA@		; `string'
PUBLIC	?lCanBuildRoute@CvLuaUnit@@KAHPAUlua_State@@@Z	; CvLuaUnit::lCanBuildRoute
PUBLIC	??_C@_0BA@NGIMPIOP@NukeDamageLevel?$AA@		; `string'
PUBLIC	?lNukeDamageLevel@CvLuaUnit@@KAHPAUlua_State@@@Z ; CvLuaUnit::lNukeDamageLevel
PUBLIC	??_C@_05CFMCGLCK@Range?$AA@			; `string'
PUBLIC	?lRange@CvLuaUnit@@KAHPAUlua_State@@@Z		; CvLuaUnit::lRange
PUBLIC	??_C@_08BEAAIBNL@HasMoved?$AA@			; `string'
PUBLIC	?lHasMoved@CvLuaUnit@@KAHPAUlua_State@@@Z	; CvLuaUnit::lHasMoved
PUBLIC	??_C@_07KJCADMEO@CanMove?$AA@			; `string'
PUBLIC	?lCanMove@CvLuaUnit@@KAHPAUlua_State@@@Z	; CvLuaUnit::lCanMove
PUBLIC	??_C@_09FMBOGIMP@MovesLeft?$AA@			; `string'
PUBLIC	?lMovesLeft@CvLuaUnit@@KAHPAUlua_State@@@Z	; CvLuaUnit::lMovesLeft
PUBLIC	??_C@_08FJBDBEPI@MaxMoves?$AA@			; `string'
PUBLIC	?lMaxMoves@CvLuaUnit@@KAHPAUlua_State@@@Z	; CvLuaUnit::lMaxMoves
PUBLIC	??_C@_0BA@ENFGLHEB@VisibilityRange?$AA@		; `string'
PUBLIC	?lVisibilityRange@CvLuaUnit@@KAHPAUlua_State@@@Z ; CvLuaUnit::lVisibilityRange
PUBLIC	??_C@_07NIJBBMLI@IsHuman?$AA@			; `string'
PUBLIC	?lIsHuman@CvLuaUnit@@KAHPAUlua_State@@@Z	; CvLuaUnit::lIsHuman
PUBLIC	??_C@_0M@NJNEDJLP@IsBarbarian?$AA@		; `string'
PUBLIC	?lIsBarbarian@CvLuaUnit@@KAHPAUlua_State@@@Z	; CvLuaUnit::lIsBarbarian
PUBLIC	??_C@_0M@ILNPEBIO@FlavorValue?$AA@		; `string'
PUBLIC	?lFlavorValue@CvLuaUnit@@KAHPAUlua_State@@@Z	; CvLuaUnit::lFlavorValue
PUBLIC	??_C@_0N@JCHAPCE@GetDropRange?$AA@		; `string'
PUBLIC	?lGetDropRange@CvLuaUnit@@KAHPAUlua_State@@@Z	; CvLuaUnit::lGetDropRange
PUBLIC	??_C@_0BE@JPOIAPEI@GetSeeInvisibleType?$AA@	; `string'
PUBLIC	?lGetSeeInvisibleType@CvLuaUnit@@KAHPAUlua_State@@@Z ; CvLuaUnit::lGetSeeInvisibleType
PUBLIC	??_C@_0BB@IDGIMNCA@GetInvisibleType?$AA@	; `string'
PUBLIC	?lGetInvisibleType@CvLuaUnit@@KAHPAUlua_State@@@Z ; CvLuaUnit::lGetInvisibleType
PUBLIC	??_C@_0O@HCLPONDK@GetDomainType?$AA@		; `string'
PUBLIC	?lGetDomainType@CvLuaUnit@@KAHPAUlua_State@@@Z	; CvLuaUnit::lGetDomainType
PUBLIC	??_C@_0O@CFHACEO@SetUnitAIType?$AA@		; `string'
PUBLIC	?lSetUnitAIType@CvLuaUnit@@KAHPAUlua_State@@@Z	; CvLuaUnit::lSetUnitAIType
PUBLIC	??_C@_0O@HNEJLBDJ@GetUnitAIType?$AA@		; `string'
PUBLIC	?lGetUnitAIType@CvLuaUnit@@KAHPAUlua_State@@@Z	; CvLuaUnit::lGetUnitAIType
PUBLIC	??_C@_0BC@GBCAHMII@GetUnitCombatType?$AA@	; `string'
PUBLIC	?lGetUnitCombatType@CvLuaUnit@@KAHPAUlua_State@@@Z ; CvLuaUnit::lGetUnitCombatType
PUBLIC	??_C@_0BD@JDJCDLLA@GetCaptureUnitType?$AA@	; `string'
PUBLIC	?lGetCaptureUnitType@CvLuaUnit@@KAHPAUlua_State@@@Z ; CvLuaUnit::lGetCaptureUnitType
PUBLIC	??_C@_0BD@GBFKJKHH@GetSpecialUnitType?$AA@	; `string'
PUBLIC	?lGetSpecialUnitType@CvLuaUnit@@KAHPAUlua_State@@@Z ; CvLuaUnit::lGetSpecialUnitType
PUBLIC	??_C@_0BE@OGLFKPOE@GetCivilizationType?$AA@	; `string'
PUBLIC	?lGetCivilizationType@CvLuaUnit@@KAHPAUlua_State@@@Z ; CvLuaUnit::lGetCivilizationType
PUBLIC	??_C@_0BA@NDPGKNBO@GetHandicapType?$AA@		; `string'
PUBLIC	?lGetHandicapType@CvLuaUnit@@KAHPAUlua_State@@@Z ; CvLuaUnit::lGetHandicapType
PUBLIC	??_C@_0BO@ODALBDFM@GetNumResourceNeededToUpgrade?$AA@ ; `string'
PUBLIC	?lGetNumResourceNeededToUpgrade@CvLuaUnit@@KAHPAUlua_State@@@Z ; CvLuaUnit::lGetNumResourceNeededToUpgrade
PUBLIC	??_C@_0BD@HPPLIDDI@CanUpgradeRightNow?$AA@	; `string'
PUBLIC	?lCanUpgradeRightNow@CvLuaUnit@@KAHPAUlua_State@@@Z ; CvLuaUnit::lCanUpgradeRightNow
PUBLIC	??_C@_0N@BGKJNLFL@UpgradePrice?$AA@		; `string'
PUBLIC	?lUpgradePrice@CvLuaUnit@@KAHPAUlua_State@@@Z	; CvLuaUnit::lUpgradePrice
PUBLIC	??_C@_0BD@DBHKLJBH@GetUpgradeUnitType?$AA@	; `string'
PUBLIC	?lGetUpgradeUnitType@CvLuaUnit@@KAHPAUlua_State@@@Z ; CvLuaUnit::lGetUpgradeUnitType
PUBLIC	??_C@_07EDLKEBK@Promote?$AA@			; `string'
PUBLIC	?lPromote@CvLuaUnit@@KAHPAUlua_State@@@Z	; CvLuaUnit::lPromote
PUBLIC	??_C@_0L@OPLAIAAJ@CanPromote?$AA@		; `string'
PUBLIC	?lCanPromote@CvLuaUnit@@KAHPAUlua_State@@@Z	; CvLuaUnit::lCanPromote
PUBLIC	??_C@_0P@FHKIFAJK@GiveExperience?$AA@		; `string'
PUBLIC	?lGiveExperience@CvLuaUnit@@KAHPAUlua_State@@@Z	; CvLuaUnit::lGiveExperience
PUBLIC	??_C@_0BC@FKOLNGFD@CanGiveExperience?$AA@	; `string'
PUBLIC	?lCanGiveExperience@CvLuaUnit@@KAHPAUlua_State@@@Z ; CvLuaUnit::lCanGiveExperience
PUBLIC	??_C@_04OAKCLFCP@Lead?$AA@			; `string'
PUBLIC	?lLead@CvLuaUnit@@KAHPAUlua_State@@@Z		; CvLuaUnit::lLead
PUBLIC	??_C@_07PLIPHBCO@CanLead?$AA@			; `string'
PUBLIC	?lCanLead@CvLuaUnit@@KAHPAUlua_State@@@Z	; CvLuaUnit::lCanLead
PUBLIC	??_C@_08EMPBKDLI@CanBuild?$AA@			; `string'
PUBLIC	?lCanBuild@CvLuaUnit@@KAHPAUlua_State@@@Z	; CvLuaUnit::lCanBuild
PUBLIC	??_C@_0BA@CHPOAIEH@GetBlastTourism?$AA@		; `string'
PUBLIC	?lGetBlastTourism@CvLuaUnit@@KAHPAUlua_State@@@Z ; CvLuaUnit::lGetBlastTourism
PUBLIC	??_C@_0BH@OOEAJGKD@GetGivePoliciesCulture?$AA@	; `string'
PUBLIC	?lGetGivePoliciesCulture@CvLuaUnit@@KAHPAUlua_State@@@Z ; CvLuaUnit::lGetGivePoliciesCulture
PUBLIC	??_C@_0BC@HOFBCHIL@GetGoldenAgeTurns?$AA@	; `string'
PUBLIC	?lGetGoldenAgeTurns@CvLuaUnit@@KAHPAUlua_State@@@Z ; CvLuaUnit::lGetGoldenAgeTurns
PUBLIC	??_C@_0N@EOBJHMDF@CanGoldenAge?$AA@		; `string'
PUBLIC	?lCanGoldenAge@CvLuaUnit@@KAHPAUlua_State@@@Z	; CvLuaUnit::lCanGoldenAge
PUBLIC	??_C@_0BC@BJJCCDBA@CanBuildSpaceship?$AA@	; `string'
PUBLIC	?lCanBuildSpaceship@CvLuaUnit@@KAHPAUlua_State@@@Z ; CvLuaUnit::lCanBuildSpaceship
PUBLIC	??_C@_0P@GCNIAAJM@CanRepairFleet?$AA@		; `string'
PUBLIC	?lCanRepairFleet@CvLuaUnit@@KAHPAUlua_State@@@Z	; CvLuaUnit::lCanRepairFleet
PUBLIC	??_C@_0BA@NGCBHOOC@CanBuyCityState?$AA@		; `string'
PUBLIC	?lCanBuyCityState@CvLuaUnit@@KAHPAUlua_State@@@Z ; CvLuaUnit::lCanBuyCityState
PUBLIC	??_C@_08PJOCNGDI@CanTrade?$AA@			; `string'
PUBLIC	?lCanTrade@CvLuaUnit@@KAHPAUlua_State@@@Z	; CvLuaUnit::lCanTrade
PUBLIC	??_C@_0BC@LGEOGBNA@GetTradeInfluence?$AA@	; `string'
PUBLIC	?lGetTradeInfluence@CvLuaUnit@@KAHPAUlua_State@@@Z ; CvLuaUnit::lGetTradeInfluence
PUBLIC	??_C@_0N@FCJOHAFH@GetTradeGold?$AA@		; `string'
PUBLIC	?lGetTradeGold@CvLuaUnit@@KAHPAUlua_State@@@Z	; CvLuaUnit::lGetTradeGold
PUBLIC	??_C@_0BD@KJHAMHFH@GetHurryProduction?$AA@	; `string'
PUBLIC	?lGetHurryProduction@CvLuaUnit@@KAHPAUlua_State@@@Z ; CvLuaUnit::lGetHurryProduction
PUBLIC	??_C@_0BC@KNNAIDOL@GetDiscoverAmount?$AA@	; `string'
PUBLIC	?lGetDiscoverAmount@CvLuaUnit@@KAHPAUlua_State@@@Z ; CvLuaUnit::lGetDiscoverAmount
PUBLIC	??_C@_0M@IELKHCBB@CanDiscover?$AA@		; `string'
PUBLIC	?lCanDiscover@CvLuaUnit@@KAHPAUlua_State@@@Z	; CvLuaUnit::lCanDiscover
PUBLIC	??_C@_0N@OBKNDGPF@CanConstruct?$AA@		; `string'
PUBLIC	?lCanConstruct@CvLuaUnit@@KAHPAUlua_State@@@Z	; CvLuaUnit::lCanConstruct
PUBLIC	??_C@_07OPIONNNI@CanJoin?$AA@			; `string'
PUBLIC	?lCanJoin@CvLuaUnit@@KAHPAUlua_State@@@Z	; CvLuaUnit::lCanJoin
PUBLIC	??_C@_08OEHLFCME@CanFound?$AA@			; `string'
PUBLIC	?lCanFound@CvLuaUnit@@KAHPAUlua_State@@@Z	; CvLuaUnit::lCanFound
PUBLIC	??_C@_0L@JGLKKBMI@IsSelected?$AA@		; `string'
PUBLIC	?lIsSelected@CvLuaUnit@@KAHPAUlua_State@@@Z	; CvLuaUnit::lIsSelected
PUBLIC	??_C@_0L@MPCCHJDJ@CanPillage?$AA@		; `string'
PUBLIC	?lCanPillage@CvLuaUnit@@KAHPAUlua_State@@@Z	; CvLuaUnit::lCanPillage
PUBLIC	??_C@_0BH@DNENGFGL@GetExoticGoodsXPAmount?$AA@	; `string'
PUBLIC	?lGetExoticGoodsXPAmount@CvLuaUnit@@KAHPAUlua_State@@@Z ; CvLuaUnit::lGetExoticGoodsXPAmount
PUBLIC	??_C@_0BJ@IPBHFLKL@GetExoticGoodsGoldAmount?$AA@ ; `string'
PUBLIC	?lGetExoticGoodsGoldAmount@CvLuaUnit@@KAHPAUlua_State@@@Z ; CvLuaUnit::lGetExoticGoodsGoldAmount
PUBLIC	??_C@_0BE@DBMFLENB@CanMakeTradeRouteAt?$AA@	; `string'
PUBLIC	?lCanMakeTradeRouteAt@CvLuaUnit@@KAHPAUlua_State@@@Z ; CvLuaUnit::lCanMakeTradeRouteAt
PUBLIC	??_C@_0BC@OKNIIGFN@CanMakeTradeRoute?$AA@	; `string'
PUBLIC	?lCanMakeTradeRoute@CvLuaUnit@@KAHPAUlua_State@@@Z ; CvLuaUnit::lCanMakeTradeRoute
PUBLIC	??_C@_0O@PGFAMOPK@CanParadropAt?$AA@		; `string'
PUBLIC	?lCanParadropAt@CvLuaUnit@@KAHPAUlua_State@@@Z	; CvLuaUnit::lCanParadropAt
PUBLIC	??_C@_0M@IKNPJBHE@CanParadrop?$AA@		; `string'
PUBLIC	?lCanParadrop@CvLuaUnit@@KAHPAUlua_State@@@Z	; CvLuaUnit::lCanParadrop
PUBLIC	??_C@_0BB@HFDCOJOB@CanRangeStrikeAt?$AA@	; `string'
PUBLIC	?lCanRangeStrikeAt@CvLuaUnit@@KAHPAUlua_State@@@Z ; CvLuaUnit::lCanRangeStrikeAt
PUBLIC	??_C@_0P@CDOKKCEP@CanRangeStrike?$AA@		; `string'
PUBLIC	?lCanRangeStrike@CvLuaUnit@@KAHPAUlua_State@@@Z	; CvLuaUnit::lCanRangeStrike
PUBLIC	??_C@_09HAELIEHK@CanNukeAt?$AA@			; `string'
PUBLIC	?lCanNukeAt@CvLuaUnit@@KAHPAUlua_State@@@Z	; CvLuaUnit::lCanNukeAt
PUBLIC	??_C@_07MFNKMBEG@CanNuke?$AA@			; `string'
PUBLIC	?lCanNuke@CvLuaUnit@@KAHPAUlua_State@@@Z	; CvLuaUnit::lCanNuke
PUBLIC	??_C@_0N@IJEAOBKF@IsNukeVictim?$AA@		; `string'
PUBLIC	?lIsNukeVictim@CvLuaUnit@@KAHPAUlua_State@@@Z	; CvLuaUnit::lIsNukeVictim
PUBLIC	??_C@_0N@IFJNICON@CanAirliftAt?$AA@		; `string'
PUBLIC	?lCanAirliftAt@CvLuaUnit@@KAHPAUlua_State@@@Z	; CvLuaUnit::lCanAirliftAt
PUBLIC	??_C@_0L@NBEAEKKP@CanAirlift?$AA@		; `string'
PUBLIC	?lCanAirlift@CvLuaUnit@@KAHPAUlua_State@@@Z	; CvLuaUnit::lCanAirlift
PUBLIC	??_C@_0BH@GAMNCMGE@IsRangeAttackIgnoreLOS?$AA@	; `string'
PUBLIC	?lIsRangeAttackIgnoreLOS@CvLuaUnit@@KAHPAUlua_State@@@Z ; CvLuaUnit::lIsRangeAttackIgnoreLOS
PUBLIC	??_C@_06HBNONMMC@Embark?$AA@			; `string'
PUBLIC	?lEmbark@CvLuaUnit@@KAHPAUlua_State@@@Z		; CvLuaUnit::lEmbark
PUBLIC	??_C@_0M@OAMKBJM@CanRebaseAt?$AA@		; `string'
PUBLIC	?lCanRebaseAt@CvLuaUnit@@KAHPAUlua_State@@@Z	; CvLuaUnit::lCanRebaseAt
PUBLIC	??_C@_0BB@EAECPAIA@CanDisembarkOnto?$AA@	; `string'
PUBLIC	?lCanDisembarkOnto@CvLuaUnit@@KAHPAUlua_State@@@Z ; CvLuaUnit::lCanDisembarkOnto
PUBLIC	??_C@_0O@EFELBNGC@CanEmbarkOnto?$AA@		; `string'
PUBLIC	?lCanEmbarkOnto@CvLuaUnit@@KAHPAUlua_State@@@Z	; CvLuaUnit::lCanEmbarkOnto
PUBLIC	??_C@_0N@NICHBKMI@CanDisembark?$AA@		; `string'
PUBLIC	?lCanDisembark@CvLuaUnit@@KAHPAUlua_State@@@Z	; CvLuaUnit::lCanDisembark
PUBLIC	??_C@_09PEMMPAAH@CanEmbark?$AA@			; `string'
PUBLIC	?lCanEmbark@CvLuaUnit@@KAHPAUlua_State@@@Z	; CvLuaUnit::lCanEmbark
PUBLIC	??_C@_09MGFCOBOB@CanSentry?$AA@			; `string'
PUBLIC	?lCanSentry@CvLuaUnit@@KAHPAUlua_State@@@Z	; CvLuaUnit::lCanSentry
PUBLIC	??_C@_07MGNGFNOG@CanHeal?$AA@			; `string'
PUBLIC	?lCanHeal@CvLuaUnit@@KAHPAUlua_State@@@Z	; CvLuaUnit::lCanHeal
PUBLIC	??_C@_0M@DBDMLICA@SetEmbarked?$AA@		; `string'
PUBLIC	?lSetEmbarked@CvLuaUnit@@KAHPAUlua_State@@@Z	; CvLuaUnit::lSetEmbarked
PUBLIC	??_C@_0L@ENBEBDG@IsEmbarked?$AA@		; `string'
PUBLIC	?lIsEmbarked@CvLuaUnit@@KAHPAUlua_State@@@Z	; CvLuaUnit::lIsEmbarked
PUBLIC	??_C@_0N@IJIOKHCL@CanAirPatrol?$AA@		; `string'
PUBLIC	?lCanAirPatrol@CvLuaUnit@@KAHPAUlua_State@@@Z	; CvLuaUnit::lCanAirPatrol
PUBLIC	??_C@_0L@FNGLNEIC@CanFortify?$AA@		; `string'
PUBLIC	?lCanFortify@CvLuaUnit@@KAHPAUlua_State@@@Z	; CvLuaUnit::lCanFortify
PUBLIC	??_C@_08ICCCNEBH@CanSleep?$AA@			; `string'
PUBLIC	?lCanSleep@CvLuaUnit@@KAHPAUlua_State@@@Z	; CvLuaUnit::lCanSleep
PUBLIC	??_C@_07GJGKKENJ@CanHold?$AA@			; `string'
PUBLIC	?lCanHold@CvLuaUnit@@KAHPAUlua_State@@@Z	; CvLuaUnit::lCanHold
PUBLIC	??_C@_0N@HEIIGDEG@CanUnloadAll?$AA@		; `string'
PUBLIC	?lCanUnloadAll@CvLuaUnit@@KAHPAUlua_State@@@Z	; CvLuaUnit::lCanUnloadAll
PUBLIC	??_C@_09NDJBNGND@CanUnload?$AA@			; `string'
PUBLIC	?lCanUnload@CvLuaUnit@@KAHPAUlua_State@@@Z	; CvLuaUnit::lCanUnload
PUBLIC	??_C@_07JEDCJBEK@CanLoad?$AA@			; `string'
PUBLIC	?lCanLoad@CvLuaUnit@@KAHPAUlua_State@@@Z	; CvLuaUnit::lCanLoad
PUBLIC	??_C@_0M@DFDFOFGE@CanLoadUnit?$AA@		; `string'
PUBLIC	?lCanLoadUnit@CvLuaUnit@@KAHPAUlua_State@@@Z	; CvLuaUnit::lCanLoadUnit
PUBLIC	??_C@_0BA@DPDGNGPL@CanDistanceGift?$AA@		; `string'
PUBLIC	?lCanDistanceGift@CvLuaUnit@@KAHPAUlua_State@@@Z ; CvLuaUnit::lCanDistanceGift
PUBLIC	??_C@_07IJAEPLFD@CanGift?$AA@			; `string'
PUBLIC	?lCanGift@CvLuaUnit@@KAHPAUlua_State@@@Z	; CvLuaUnit::lCanGift
PUBLIC	??_C@_0N@PIOOLHFL@GetScrapGold?$AA@		; `string'
PUBLIC	?lGetScrapGold@CvLuaUnit@@KAHPAUlua_State@@@Z	; CvLuaUnit::lGetScrapGold
PUBLIC	??_C@_08MKLFIEDM@CanScrap?$AA@			; `string'
PUBLIC	?lCanScrap@CvLuaUnit@@KAHPAUlua_State@@@Z	; CvLuaUnit::lCanScrap
PUBLIC	??_C@_0M@PIDFJMFI@CanAutomate?$AA@		; `string'
PUBLIC	?lCanAutomate@CvLuaUnit@@KAHPAUlua_State@@@Z	; CvLuaUnit::lCanAutomate
PUBLIC	??_C@_0BD@GAJIECNL@GetFireSupportUnit?$AA@	; `string'
PUBLIC	?lGetFireSupportUnit@CvLuaUnit@@KAHPAUlua_State@@@Z ; CvLuaUnit::lGetFireSupportUnit
PUBLIC	??_C@_0BA@PBKOJKLI@GetCombatDamage?$AA@		; `string'
PUBLIC	?lGetCombatDamage@CvLuaUnit@@KAHPAUlua_State@@@Z ; CvLuaUnit::lGetCombatDamage
PUBLIC	??_C@_0BH@HCNCEPKK@JumpToNearestValidPlot?$AA@	; `string'
PUBLIC	?lJumpToNearestValidPlot@CvLuaUnit@@KAHPAUlua_State@@@Z ; CvLuaUnit::lJumpToNearestValidPlot
PUBLIC	??_C@_0P@BOMOGPDF@CanMoveThrough?$AA@		; `string'
PUBLIC	?lCanMoveThrough@CvLuaUnit@@KAHPAUlua_State@@@Z	; CvLuaUnit::lCanMoveThrough
PUBLIC	??_C@_0BE@BAHEKEJL@CanMoveOrAttackInto?$AA@	; `string'
PUBLIC	?lCanMoveOrAttackInto@CvLuaUnit@@KAHPAUlua_State@@@Z ; CvLuaUnit::lCanMoveOrAttackInto
PUBLIC	??_C@_0BJ@DGAEPIGI@GetDeclareWarRangeStrike?$AA@ ; `string'
PUBLIC	?lGetDeclareWarRangeStrike@CvLuaUnit@@KAHPAUlua_State@@@Z ; CvLuaUnit::lGetDeclareWarRangeStrike
PUBLIC	??_C@_0BC@CNEKLHMJ@CanEnterTerritory?$AA@	; `string'
PUBLIC	?lCanEnterTerritory@CvLuaUnit@@KAHPAUlua_State@@@Z ; CvLuaUnit::lCanEnterTerritory
PUBLIC	??_C@_0N@HCLHBILF@GeneratePath?$AA@		; `string'
PUBLIC	?lGeneratePath@CvLuaUnit@@KAHPAUlua_State@@@Z	; CvLuaUnit::lGeneratePath
PUBLIC	??_C@_0BD@BDLBDMBH@GetPathEndTurnPlot?$AA@	; `string'
PUBLIC	?lGetPathEndTurnPlot@CvLuaUnit@@KAHPAUlua_State@@@Z ; CvLuaUnit::lGetPathEndTurnPlot
PUBLIC	??_C@_09MHJIPALD@DoCommand?$AA@			; `string'
PUBLIC	?lDoCommand@CvLuaUnit@@KAHPAUlua_State@@@Z	; CvLuaUnit::lDoCommand
PUBLIC	??_C@_0N@JKHELOHL@CanDoCommand?$AA@		; `string'
PUBLIC	?lCanDoCommand@CvLuaUnit@@KAHPAUlua_State@@@Z	; CvLuaUnit::lCanDoCommand
PUBLIC	??_C@_0BF@FAODCLBP@IsBetterDefenderThan?$AA@	; `string'
PUBLIC	?lIsBetterDefenderThan@CvLuaUnit@@KAHPAUlua_State@@@Z ; CvLuaUnit::lIsBetterDefenderThan
PUBLIC	??_C@_0BE@OOKFIDHO@IsActionRecommended?$AA@	; `string'
PUBLIC	?lIsActionRecommended@CvLuaUnit@@KAHPAUlua_State@@@Z ; CvLuaUnit::lIsActionRecommended
PUBLIC	??_C@_04NIFFMPNM@Kill?$AA@			; `string'
PUBLIC	?lKill@CvLuaUnit@@KAHPAUlua_State@@@Z		; CvLuaUnit::lKill
PUBLIC	??_C@_07BEIDKFCM@Convert?$AA@			; `string'
PUBLIC	?lConvert@CvLuaUnit@@KAHPAUlua_State@@@Z	; CvLuaUnit::lConvert
PUBLIC	??_C@_06OAPDBHPB@IsNone?$AA@			; `string'
PUBLIC	?lIsNone@CvLuaUnit@@KAHPAUlua_State@@@Z		; CvLuaUnit::lIsNone
PUBLIC	?PushMethods@CvLuaUnit@@SAXPAUlua_State@@H@Z	; CvLuaUnit::PushMethods
EXTRN	_lua_setfield:PROC
EXTRN	_lua_pushcclosure:PROC
;	COMDAT ??_C@_0CA@GENACOON@IsPlunderBlockedByOpposingTrait?$AA@
CONST	SEGMENT
??_C@_0CA@GENACOON@IsPlunderBlockedByOpposingTrait?$AA@ DB 'IsPlunderBloc'
	DB	'kedByOpposingTrait', 00H			; `string'
CONST	ENDS
;	COMDAT ??_C@_0BE@HLBAIPJO@IsRangedSupportFire?$AA@
CONST	SEGMENT
??_C@_0BE@HLBAIPJO@IsRangedSupportFire?$AA@ DB 'IsRangedSupportFire', 00H ; `string'
CONST	ENDS
;	COMDAT ??_C@_0BA@PCGBFCNG@IsLargerCivThan?$AA@
CONST	SEGMENT
??_C@_0BA@PCGBFCNG@IsLargerCivThan?$AA@ DB 'IsLargerCivThan', 00H ; `string'
CONST	ENDS
;	COMDAT ??_C@_0BB@DNHALCAP@IsHigherTechThan?$AA@
CONST	SEGMENT
??_C@_0BB@DNHALCAP@IsHigherTechThan?$AA@ DB 'IsHigherTechThan', 00H ; `string'
CONST	ENDS
;	COMDAT ??_C@_0BL@IFBCJAOO@SetDeployFromOperationTurn?$AA@
CONST	SEGMENT
??_C@_0BL@IFBCJAOO@SetDeployFromOperationTurn?$AA@ DB 'SetDeployFromOpera'
	DB	'tionTurn', 00H				; `string'
CONST	ENDS
;	COMDAT ??_C@_0BK@OKCCHHON@ExecuteSpecialExploreMove?$AA@
CONST	SEGMENT
??_C@_0BK@OKCCHHON@ExecuteSpecialExploreMove?$AA@ DB 'ExecuteSpecialExplo'
	DB	'reMove', 00H				; `string'
CONST	ENDS
;	COMDAT ??_C@_0BA@JEHNJEHH@CanStartMission?$AA@
CONST	SEGMENT
??_C@_0BA@JEHNJEHH@CanStartMission?$AA@ DB 'CanStartMission', 00H ; `string'
CONST	ENDS
;	COMDAT ??_C@_0BA@BNAEAOBO@LastMissionPlot?$AA@
CONST	SEGMENT
??_C@_0BA@BNAEAOBO@LastMissionPlot?$AA@ DB 'LastMissionPlot', 00H ; `string'
CONST	ENDS
;	COMDAT ??_C@_0L@FNCAEGNI@PopMission?$AA@
CONST	SEGMENT
??_C@_0L@FNCAEGNI@PopMission?$AA@ DB 'PopMission', 00H	; `string'
CONST	ENDS
;	COMDAT ??_C@_0M@KMEIMJMN@PushMission?$AA@
CONST	SEGMENT
??_C@_0M@KMEIMJMN@PushMission?$AA@ DB 'PushMission', 00H ; `string'
CONST	ENDS
;	COMDAT ??_C@_0M@LBKNMOHC@RangeStrike?$AA@
CONST	SEGMENT
??_C@_0M@LBKNMOHC@RangeStrike?$AA@ DB 'RangeStrike', 00H ; `string'
CONST	ENDS
;	COMDAT ??_C@_0BF@BJPLHKJ@GetGreatWorkSlotType?$AA@
CONST	SEGMENT
??_C@_0BF@BJPLHKJ@GetGreatWorkSlotType?$AA@ DB 'GetGreatWorkSlotType', 00H ; `string'
CONST	ENDS
;	COMDAT ??_C@_0BI@GPAANOLE@GetTourismBlastStrength?$AA@
CONST	SEGMENT
??_C@_0BI@GPAANOLE@GetTourismBlastStrength?$AA@ DB 'GetTourismBlastStreng'
	DB	'th', 00H					; `string'
CONST	ENDS
;	COMDAT ??_C@_0BP@HBADFCCC@GetMajorityReligionAfterSpread?$AA@
CONST	SEGMENT
??_C@_0BP@HBADFCCC@GetMajorityReligionAfterSpread?$AA@ DB 'GetMajorityRel'
	DB	'igionAfterSpread', 00H			; `string'
CONST	ENDS
;	COMDAT ??_C@_0BL@NDOCOGDO@GetNumFollowersAfterSpread?$AA@
CONST	SEGMENT
??_C@_0BL@NDOCOGDO@GetNumFollowersAfterSpread?$AA@ DB 'GetNumFollowersAft'
	DB	'erSpread', 00H				; `string'
CONST	ENDS
;	COMDAT ??_C@_0P@CCJGDKMN@GetSpreadsLeft?$AA@
CONST	SEGMENT
??_C@_0P@CCJGDKMN@GetSpreadsLeft?$AA@ DB 'GetSpreadsLeft', 00H ; `string'
CONST	ENDS
;	COMDAT ??_C@_0BG@CMODHJMA@GetConversionStrength?$AA@
CONST	SEGMENT
??_C@_0BG@CMODHJMA@GetConversionStrength?$AA@ DB 'GetConversionStrength', 00H ; `string'
CONST	ENDS
;	COMDAT ??_C@_0M@GMHLBOLL@GetReligion?$AA@
CONST	SEGMENT
??_C@_0M@GMHLBOLL@GetReligion?$AA@ DB 'GetReligion', 00H ; `string'
CONST	ENDS
;	COMDAT ??_C@_06OICOCAHF@IsBusy?$AA@
CONST	SEGMENT
??_C@_06OICOCAHF@IsBusy?$AA@ DB 'IsBusy', 00H		; `string'
CONST	ENDS
;	COMDAT ??_C@_0O@BOALNFPB@IsReadyToMove?$AA@
CONST	SEGMENT
??_C@_0O@BOALNFPB@IsReadyToMove?$AA@ DB 'IsReadyToMove', 00H ; `string'
CONST	ENDS
;	COMDAT ??_C@_0BA@PBKPFNFP@GetActivityType?$AA@
CONST	SEGMENT
??_C@_0BA@PBKPFNFP@GetActivityType?$AA@ DB 'GetActivityType', 00H ; `string'
CONST	ENDS
;	COMDAT ??_C@_0BA@MMNGCCEN@SetHasPromotion?$AA@
CONST	SEGMENT
??_C@_0BA@MMNGCCEN@SetHasPromotion?$AA@ DB 'SetHasPromotion', 00H ; `string'
CONST	ENDS
;	COMDAT ??_C@_0P@LONCCLND@IsHasPromotion?$AA@
CONST	SEGMENT
??_C@_0P@LONCCLND@IsHasPromotion?$AA@ DB 'IsHasPromotion', 00H ; `string'
CONST	ENDS
;	COMDAT ??_C@_0BB@LBEGEPDL@IsPromotionValid?$AA@
CONST	SEGMENT
??_C@_0BB@LBEGEPDL@IsPromotionValid?$AA@ DB 'IsPromotionValid', 00H ; `string'
CONST	ENDS
;	COMDAT ??_C@_0BH@KEAILGDL@CanAcquirePromotionAny?$AA@
CONST	SEGMENT
??_C@_0BH@KEAILGDL@CanAcquirePromotionAny?$AA@ DB 'CanAcquirePromotionAny'
	DB	00H						; `string'
CONST	ENDS
;	COMDAT ??_C@_0BE@NMKFIMAO@CanAcquirePromotion?$AA@
CONST	SEGMENT
??_C@_0BE@NMKFIMAO@CanAcquirePromotion?$AA@ DB 'CanAcquirePromotion', 00H ; `string'
CONST	ENDS
;	COMDAT ??_C@_0BF@IJFPHAOD@GetUnitClassModifier?$AA@
CONST	SEGMENT
??_C@_0BF@IJFPHAOD@GetUnitClassModifier?$AA@ DB 'GetUnitClassModifier', 00H ; `string'
CONST	ENDS
;	COMDAT ??_C@_0BL@FCNEPMJP@GetExtraUnitCombatModifier?$AA@
CONST	SEGMENT
??_C@_0BL@FCNEPMJP@GetExtraUnitCombatModifier?$AA@ DB 'GetExtraUnitCombat'
	DB	'Modifier', 00H				; `string'
CONST	ENDS
;	COMDAT ??_C@_0BO@MOKLIMJL@GetExtraFeatureDefensePercent?$AA@
CONST	SEGMENT
??_C@_0BO@MOKLIMJL@GetExtraFeatureDefensePercent?$AA@ DB 'GetExtraFeature'
	DB	'DefensePercent', 00H			; `string'
CONST	ENDS
;	COMDAT ??_C@_0BN@CPBINKED@GetExtraFeatureAttackPercent?$AA@
CONST	SEGMENT
??_C@_0BN@CPBINKED@GetExtraFeatureAttackPercent?$AA@ DB 'GetExtraFeatureA'
	DB	'ttackPercent', 00H				; `string'
CONST	ENDS
;	COMDAT ??_C@_0BO@EGLEMPGC@GetExtraTerrainDefensePercent?$AA@
CONST	SEGMENT
??_C@_0BO@EGLEMPGC@GetExtraTerrainDefensePercent?$AA@ DB 'GetExtraTerrain'
	DB	'DefensePercent', 00H			; `string'
CONST	ENDS
;	COMDAT ??_C@_0BN@DIABMFJL@GetExtraTerrainAttackPercent?$AA@
CONST	SEGMENT
??_C@_0BN@DIABMFJL@GetExtraTerrainAttackPercent?$AA@ DB 'GetExtraTerrainA'
	DB	'ttackPercent', 00H				; `string'
CONST	ENDS
;	COMDAT ??_C@_0BA@DGJIKHMC@SetScenarioData?$AA@
CONST	SEGMENT
??_C@_0BA@DGJIKHMC@SetScenarioData?$AA@ DB 'SetScenarioData', 00H ; `string'
CONST	ENDS
;	COMDAT ??_C@_0BA@EIONFNL@GetScenarioData?$AA@
CONST	SEGMENT
??_C@_0BA@EIONFNL@GetScenarioData?$AA@ DB 'GetScenarioData', 00H ; `string'
CONST	ENDS
;	COMDAT ??_C@_0O@PGOPIEFE@SetScriptData?$AA@
CONST	SEGMENT
??_C@_0O@PGOPIEFE@SetScriptData?$AA@ DB 'SetScriptData', 00H ; `string'
CONST	ENDS
;	COMDAT ??_C@_0O@IJPBDHCD@GetScriptData?$AA@
CONST	SEGMENT
??_C@_0O@IJPBDHCD@GetScriptData?$AA@ DB 'GetScriptData', 00H ; `string'
CONST	ENDS
;	COMDAT ??_C@_0BE@DLKIIJFH@IsFeatureDoubleMove?$AA@
CONST	SEGMENT
??_C@_0BE@DLKIIJFH@IsFeatureDoubleMove?$AA@ DB 'IsFeatureDoubleMove', 00H ; `string'
CONST	ENDS
;	COMDAT ??_C@_0BE@KAIIOOFC@IsTerrainDoubleMove?$AA@
CONST	SEGMENT
??_C@_0BE@KAIIOOFC@IsTerrainDoubleMove?$AA@ DB 'IsTerrainDoubleMove', 00H ; `string'
CONST	ENDS
;	COMDAT ??_C@_07DEJFEJPJ@SetName?$AA@
CONST	SEGMENT
??_C@_07DEJFEJPJ@SetName?$AA@ DB 'SetName', 00H		; `string'
CONST	ENDS
;	COMDAT ??_C@_0L@PJBAHION@GetNameKey?$AA@
CONST	SEGMENT
??_C@_0L@PJBAHION@GetNameKey?$AA@ DB 'GetNameKey', 00H	; `string'
CONST	ENDS
;	COMDAT ??_C@_07PMAOHACP@HasName?$AA@
CONST	SEGMENT
??_C@_07PMAOHACP@HasName?$AA@ DB 'HasName', 00H		; `string'
CONST	ENDS
;	COMDAT ??_C@_0O@OFOGDJDK@GetNameNoDesc?$AA@
CONST	SEGMENT
??_C@_0O@OFOGDJDK@GetNameNoDesc?$AA@ DB 'GetNameNoDesc', 00H ; `string'
CONST	ENDS
;	COMDAT ??_C@_07MMGEHGCI@GetName?$AA@
CONST	SEGMENT
??_C@_07MMGEHGCI@GetName?$AA@ DB 'GetName', 00H		; `string'
CONST	ENDS
;	COMDAT ??_C@_0BH@LGDAMEMJ@GetExtraDomainModifier?$AA@
CONST	SEGMENT
??_C@_0BH@LGDAMEMJ@GetExtraDomainModifier?$AA@ DB 'GetExtraDomainModifier'
	DB	00H						; `string'
CONST	ENDS
;	COMDAT ??_C@_07DCNKNHAD@IsCargo?$AA@
CONST	SEGMENT
??_C@_07DCNKNHAD@IsCargo?$AA@ DB 'IsCargo', 00H		; `string'
CONST	ENDS
;	COMDAT ??_C@_0BB@PJKLKFOJ@GetTransportUnit?$AA@
CONST	SEGMENT
??_C@_0BB@PJKLKFOJ@GetTransportUnit?$AA@ DB 'GetTransportUnit', 00H ; `string'
CONST	ENDS
;	COMDAT ??_C@_0BE@GIBMJJJB@IsEnemyCityAdjacent?$AA@
CONST	SEGMENT
??_C@_0BE@GIBMJJJB@IsEnemyCityAdjacent?$AA@ DB 'IsEnemyCityAdjacent', 00H ; `string'
CONST	ENDS
;	COMDAT ??_C@_0BJ@DJLNBBGK@GetNumEnemyUnitsAdjacent?$AA@
CONST	SEGMENT
??_C@_0BJ@DJLNBBGK@GetNumEnemyUnitsAdjacent?$AA@ DB 'GetNumEnemyUnitsAdja'
	DB	'cent', 00H					; `string'
CONST	ENDS
;	COMDAT ??_C@_0BH@EHMHKIDN@IsFriendlyUnitAdjacent?$AA@
CONST	SEGMENT
??_C@_0BH@EHMHKIDN@IsFriendlyUnitAdjacent?$AA@ DB 'IsFriendlyUnitAdjacent'
	DB	00H						; `string'
CONST	ENDS
;	COMDAT ??_C@_0BN@LIDKBFIB@GetNearbyImprovementModifier?$AA@
CONST	SEGMENT
??_C@_0BN@LIDKBFIB@GetNearbyImprovementModifier?$AA@ DB 'GetNearbyImprove'
	DB	'mentModifier', 00H				; `string'
CONST	ENDS
;	COMDAT ??_C@_0N@JPLHPCNE@IsNearSapper?$AA@
CONST	SEGMENT
??_C@_0N@JPLHPCNE@IsNearSapper?$AA@ DB 'IsNearSapper', 00H ; `string'
CONST	ENDS
;	COMDAT ??_C@_0BO@BNDFJFHP@GetGreatGeneralCombatModifier?$AA@
CONST	SEGMENT
??_C@_0BO@BNDFJFHP@GetGreatGeneralCombatModifier?$AA@ DB 'GetGreatGeneral'
	DB	'CombatModifier', 00H			; `string'
CONST	ENDS
;	COMDAT ??_C@_0BP@NPLEODON@GetReverseGreatGeneralModifier?$AA@
CONST	SEGMENT
??_C@_0BP@NPLEODON@GetReverseGreatGeneralModifier?$AA@ DB 'GetReverseGrea'
	DB	'tGeneralModifier', 00H			; `string'
CONST	ENDS
;	COMDAT ??_C@_0BM@GGCJAMLP@IsIgnoreGreatGeneralBenefit?$AA@
CONST	SEGMENT
??_C@_0BM@GGCJAMLP@IsIgnoreGreatGeneralBenefit?$AA@ DB 'IsIgnoreGreatGene'
	DB	'ralBenefit', 00H				; `string'
CONST	ENDS
;	COMDAT ??_C@_0BG@EGFCIODH@IsStackedGreatGeneral?$AA@
CONST	SEGMENT
??_C@_0BG@EGFCIODH@IsStackedGreatGeneral?$AA@ DB 'IsStackedGreatGeneral', 00H ; `string'
CONST	ENDS
;	COMDAT ??_C@_0BD@FIBLLGCA@IsNearGreatGeneral?$AA@
CONST	SEGMENT
??_C@_0BD@FIBLLGCA@IsNearGreatGeneral?$AA@ DB 'IsNearGreatGeneral', 00H ; `string'
CONST	ENDS
;	COMDAT ??_C@_0BC@CCMIAMOE@SetLeaderUnitType?$AA@
CONST	SEGMENT
??_C@_0BC@CCMIAMOE@SetLeaderUnitType?$AA@ DB 'SetLeaderUnitType', 00H ; `string'
CONST	ENDS
;	COMDAT ??_C@_0BC@HMDIHPK@GetLeaderUnitType?$AA@
CONST	SEGMENT
??_C@_0BC@HMDIHPK@GetLeaderUnitType?$AA@ DB 'GetLeaderUnitType', 00H ; `string'
CONST	ENDS
;	COMDAT ??_C@_0BB@DMDDFGBF@GetUnitClassType?$AA@
CONST	SEGMENT
??_C@_0BB@DMDDFGBF@GetUnitClassType?$AA@ DB 'GetUnitClassType', 00H ; `string'
CONST	ENDS
;	COMDAT ??_C@_0M@PKBGPJIJ@GetUnitType?$AA@
CONST	SEGMENT
??_C@_0M@PKBGPJIJ@GetUnitType?$AA@ DB 'GetUnitType', 00H ; `string'
CONST	ENDS
;	COMDAT ??_C@_0BG@PPJKPBMI@GetUnitPortraitOffset?$AA@
CONST	SEGMENT
??_C@_0BG@PPJKPBMI@GetUnitPortraitOffset?$AA@ DB 'GetUnitPortraitOffset', 00H ; `string'
CONST	ENDS
;	COMDAT ??_C@_0BG@GPHCCLK@GetUnitFlagIconOffset?$AA@
CONST	SEGMENT
??_C@_0BG@GPHCCLK@GetUnitFlagIconOffset?$AA@ DB 'GetUnitFlagIconOffset', 00H ; `string'
CONST	ENDS
;	COMDAT ??_C@_07KIJFBNDA@GetTeam?$AA@
CONST	SEGMENT
??_C@_07KIJFBNDA@GetTeam?$AA@ DB 'GetTeam', 00H		; `string'
CONST	ENDS
;	COMDAT ??_C@_0BB@DFCAPMCK@SetOriginalOwner?$AA@
CONST	SEGMENT
??_C@_0BB@DFCAPMCK@SetOriginalOwner?$AA@ DB 'SetOriginalOwner', 00H ; `string'
CONST	ENDS
;	COMDAT ??_C@_0BB@FBHJECJI@GetOriginalOwner?$AA@
CONST	SEGMENT
??_C@_0BB@FBHJECJI@GetOriginalOwner?$AA@ DB 'GetOriginalOwner', 00H ; `string'
CONST	ENDS
;	COMDAT ??_C@_0P@OAMOBMMB@GetCombatOwner?$AA@
CONST	SEGMENT
??_C@_0P@OAMOBMMB@GetCombatOwner?$AA@ DB 'GetCombatOwner', 00H ; `string'
CONST	ENDS
;	COMDAT ??_C@_0P@DJDHAACE@GetVisualOwner?$AA@
CONST	SEGMENT
??_C@_0P@DJDHAACE@GetVisualOwner?$AA@ DB 'GetVisualOwner', 00H ; `string'
CONST	ENDS
;	COMDAT ??_C@_08BODJMJJB@GetOwner?$AA@
CONST	SEGMENT
??_C@_08BODJMJJB@GetOwner?$AA@ DB 'GetOwner', 00H	; `string'
CONST	ENDS
;	COMDAT ??_C@_0BC@EMJHOBEL@SetPromotionReady?$AA@
CONST	SEGMENT
??_C@_0BC@EMJHOBEL@SetPromotionReady?$AA@ DB 'SetPromotionReady', 00H ; `string'
CONST	ENDS
;	COMDAT ??_C@_0BB@NKIJIMHP@IsPromotionReady?$AA@
CONST	SEGMENT
??_C@_0BB@NKIJIMHP@IsPromotionReady?$AA@ DB 'IsPromotionReady', 00H ; `string'
CONST	ENDS
;	COMDAT ??_C@_0BE@CHMMLBFN@SetMadeInterception?$AA@
CONST	SEGMENT
??_C@_0BE@CHMMLBFN@SetMadeInterception?$AA@ DB 'SetMadeInterception', 00H ; `string'
CONST	ENDS
;	COMDAT ??_C@_0BF@CMPDBBFM@isOutOfInterceptions?$AA@
CONST	SEGMENT
??_C@_0BF@CMPDBBFM@isOutOfInterceptions?$AA@ DB 'isOutOfInterceptions', 00H ; `string'
CONST	ENDS
;	COMDAT ??_C@_0O@MKFMNOAP@SetMadeAttack?$AA@
CONST	SEGMENT
??_C@_0O@MKFMNOAP@SetMadeAttack?$AA@ DB 'SetMadeAttack', 00H ; `string'
CONST	ENDS
;	COMDAT ??_C@_0P@IKHOEAOE@IsOutOfAttacks?$AA@
CONST	SEGMENT
??_C@_0P@IKHOEAOE@IsOutOfAttacks?$AA@ DB 'IsOutOfAttacks', 00H ; `string'
CONST	ENDS
;	COMDAT ??_C@_0BD@CFFKEBAO@GetKamikazePercent?$AA@
CONST	SEGMENT
??_C@_0BD@CFFKEBAO@GetKamikazePercent?$AA@ DB 'GetKamikazePercent', 00H ; `string'
CONST	ENDS
;	COMDAT ??_C@_0BF@MJPLLDMK@GetExperiencePercent?$AA@
CONST	SEGMENT
??_C@_0BF@MJPLLDMK@GetExperiencePercent?$AA@ DB 'GetExperiencePercent', 00H ; `string'
CONST	ENDS
;	COMDAT ??_C@_0BD@IEDPIMNK@GetUpgradeDiscount?$AA@
CONST	SEGMENT
??_C@_0BD@IEDPIMNK@GetUpgradeDiscount?$AA@ DB 'GetUpgradeDiscount', 00H ; `string'
CONST	ENDS
;	COMDAT ??_C@_0BB@HINGJFFL@GetPillageChange?$AA@
CONST	SEGMENT
??_C@_0BB@HINGJFFL@GetPillageChange?$AA@ DB 'GetPillageChange', 00H ; `string'
CONST	ENDS
;	COMDAT ??_C@_0BL@FFFJPCKI@GetExtraOpenDefensePercent?$AA@
CONST	SEGMENT
??_C@_0BL@FFFJPCKI@GetExtraOpenDefensePercent?$AA@ DB 'GetExtraOpenDefens'
	DB	'ePercent', 00H				; `string'
CONST	ENDS
;	COMDAT ??_C@_0BJ@JEMHENOI@GetExtraAttackWoundedMod?$AA@
CONST	SEGMENT
??_C@_0BJ@JEMHENOI@GetExtraAttackWoundedMod?$AA@ DB 'GetExtraAttackWounde'
	DB	'dMod', 00H					; `string'
CONST	ENDS
;	COMDAT ??_C@_0BL@PDPEFOMH@GetExtraAttackFortifiedMod?$AA@
CONST	SEGMENT
??_C@_0BL@PDPEFOMH@GetExtraAttackFortifiedMod?$AA@ DB 'GetExtraAttackFort'
	DB	'ifiedMod', 00H				; `string'
CONST	ENDS
;	COMDAT ??_C@_0BN@JELKIHJI@GetExtraRoughRangedAttackMod?$AA@
CONST	SEGMENT
??_C@_0BN@JELKIHJI@GetExtraRoughRangedAttackMod?$AA@ DB 'GetExtraRoughRan'
	DB	'gedAttackMod', 00H				; `string'
CONST	ENDS
;	COMDAT ??_C@_0BL@EFEMEKEJ@GetExtraRoughAttackPercent?$AA@
CONST	SEGMENT
??_C@_0BL@EFEMEKEJ@GetExtraRoughAttackPercent?$AA@ DB 'GetExtraRoughAttac'
	DB	'kPercent', 00H				; `string'
CONST	ENDS
;	COMDAT ??_C@_0BM@CBBBAFGK@GetExtraOpenRangedAttackMod?$AA@
CONST	SEGMENT
??_C@_0BM@CBBBAFGK@GetExtraOpenRangedAttackMod?$AA@ DB 'GetExtraOpenRange'
	DB	'dAttackMod', 00H				; `string'
CONST	ENDS
;	COMDAT ??_C@_0BK@LJKEFJID@GetExtraOpenAttackPercent?$AA@
CONST	SEGMENT
??_C@_0BK@LJKEFJID@GetExtraOpenAttackPercent?$AA@ DB 'GetExtraOpenAttackP'
	DB	'ercent', 00H				; `string'
CONST	ENDS
;	COMDAT ??_C@_0BM@NLMNHENB@GetExtraHillsDefensePercent?$AA@
CONST	SEGMENT
??_C@_0BM@NLMNHENB@GetExtraHillsDefensePercent?$AA@ DB 'GetExtraHillsDefe'
	DB	'nsePercent', 00H				; `string'
CONST	ENDS
;	COMDAT ??_C@_0BL@JDMNNJBO@GetExtraHillsAttackPercent?$AA@
CONST	SEGMENT
??_C@_0BL@JDMNNJBO@GetExtraHillsAttackPercent?$AA@ DB 'GetExtraHillsAttac'
	DB	'kPercent', 00H				; `string'
CONST	ENDS
;	COMDAT ??_C@_0BL@OIBJDCOP@GetExtraCityDefensePercent?$AA@
CONST	SEGMENT
??_C@_0BL@OIBJDCOP@GetExtraCityDefensePercent?$AA@ DB 'GetExtraCityDefens'
	DB	'ePercent', 00H				; `string'
CONST	ENDS
;	COMDAT ??_C@_0BK@EEJGACHD@GetExtraCityAttackPercent?$AA@
CONST	SEGMENT
??_C@_0BK@EEJGACHD@GetExtraCityAttackPercent?$AA@ DB 'GetExtraCityAttackP'
	DB	'ercent', 00H				; `string'
CONST	ENDS
;	COMDAT ??_C@_0CD@PFMFCNHJ@GetCombatStrengthNearFriendlyMin@
CONST	SEGMENT
??_C@_0CD@PFMFCNHJ@GetCombatStrengthNearFriendlyMin@ DB 'GetCombatStrengt'
	DB	'hNearFriendlyMinor', 00H			; `string'
CONST	ENDS
;	COMDAT ??_C@_0BP@BHKIBPGK@GetGoldenAgeForeignAttackBonus?$AA@
CONST	SEGMENT
??_C@_0BP@BHKIBPGK@GetGoldenAgeForeignAttackBonus?$AA@ DB 'GetGoldenAgeFo'
	DB	'reignAttackBonus', 00H			; `string'
CONST	ENDS
;	COMDAT ??_C@_0CA@IJLJKKDJ@GetOutsideFriendlyLandsModifier?$AA@
CONST	SEGMENT
??_C@_0CA@IJLJKKDJ@GetOutsideFriendlyLandsModifier?$AA@ DB 'GetOutsideFri'
	DB	'endlyLandsModifier', 00H			; `string'
CONST	ENDS
;	COMDAT ??_C@_0BP@KLDAEKDJ@GetFriendlyLandsAttackModifier?$AA@
CONST	SEGMENT
??_C@_0BP@KLDAEKDJ@GetFriendlyLandsAttackModifier?$AA@ DB 'GetFriendlyLan'
	DB	'dsAttackModifier', 00H			; `string'
CONST	ENDS
;	COMDAT ??_C@_0BJ@ECEPCDCN@GetFriendlyLandsModifier?$AA@
CONST	SEGMENT
??_C@_0BJ@ECEPCDCN@GetFriendlyLandsModifier?$AA@ DB 'GetFriendlyLandsModi'
	DB	'fier', 00H					; `string'
CONST	ENDS
;	COMDAT ??_C@_0BG@KGCGLIBN@GetExtraCombatPercent?$AA@
CONST	SEGMENT
??_C@_0BG@KGCGLIBN@GetExtraCombatPercent?$AA@ DB 'GetExtraCombatPercent', 00H ; `string'
CONST	ENDS
;	COMDAT ??_C@_0BE@FOPILIOB@GetAdjacentTileHeal?$AA@
CONST	SEGMENT
??_C@_0BE@FOPILIOB@GetAdjacentTileHeal?$AA@ DB 'GetAdjacentTileHeal', 00H ; `string'
CONST	ENDS
;	COMDAT ??_C@_0BA@PJJDJAFH@GetSameTileHeal?$AA@
CONST	SEGMENT
??_C@_0BA@PJJDJAFH@GetSameTileHeal?$AA@ DB 'GetSameTileHeal', 00H ; `string'
CONST	ENDS
;	COMDAT ??_C@_0BF@FDAKDOOD@GetExtraFriendlyHeal?$AA@
CONST	SEGMENT
??_C@_0BF@FDAKDOOD@GetExtraFriendlyHeal?$AA@ DB 'GetExtraFriendlyHeal', 00H ; `string'
CONST	ENDS
;	COMDAT ??_C@_0BE@PPNDFFOE@GetExtraNeutralHeal?$AA@
CONST	SEGMENT
??_C@_0BE@PPNDFFOE@GetExtraNeutralHeal?$AA@ DB 'GetExtraNeutralHeal', 00H ; `string'
CONST	ENDS
;	COMDAT ??_C@_0BC@BKCEPOIK@GetExtraEnemyHeal?$AA@
CONST	SEGMENT
??_C@_0BC@BKCEPOIK@GetExtraEnemyHeal?$AA@ DB 'GetExtraEnemyHeal', 00H ; `string'
CONST	ENDS
;	COMDAT ??_C@_0BD@IOALAFL@GetExtraWithdrawal?$AA@
CONST	SEGMENT
??_C@_0BD@IOALAFL@GetExtraWithdrawal?$AA@ DB 'GetExtraWithdrawal', 00H ; `string'
CONST	ENDS
;	COMDAT ??_C@_0BL@ODNAIGPH@GetExtraChanceFirstStrikes?$AA@
CONST	SEGMENT
??_C@_0BL@ODNAIGPH@GetExtraChanceFirstStrikes?$AA@ DB 'GetExtraChanceFirs'
	DB	'tStrikes', 00H				; `string'
CONST	ENDS
;	COMDAT ??_C@_0BF@NHNKKCBF@GetExtraFirstStrikes?$AA@
CONST	SEGMENT
??_C@_0BF@NHNKKCBF@GetExtraFirstStrikes?$AA@ DB 'GetExtraFirstStrikes', 00H ; `string'
CONST	ENDS
;	COMDAT ??_C@_0BA@FKMGFEFH@GetExtraEvasion?$AA@
CONST	SEGMENT
??_C@_0BA@FKMGFEFH@GetExtraEvasion?$AA@ DB 'GetExtraEvasion', 00H ; `string'
CONST	ENDS
;	COMDAT ??_C@_0BC@MAMPNOBO@GetExtraIntercept?$AA@
CONST	SEGMENT
??_C@_0BC@MAMPNOBO@GetExtraIntercept?$AA@ DB 'GetExtraIntercept', 00H ; `string'
CONST	ENDS
;	COMDAT ??_C@_0O@HJCFAOBN@GetExtraRange?$AA@
CONST	SEGMENT
??_C@_0O@HJCFAOBN@GetExtraRange?$AA@ DB 'GetExtraRange', 00H ; `string'
CONST	ENDS
;	COMDAT ??_C@_0BF@OMEPGIG@GetExtraMoveDiscount?$AA@
CONST	SEGMENT
??_C@_0BF@OMEPGIG@GetExtraMoveDiscount?$AA@ DB 'GetExtraMoveDiscount', 00H ; `string'
CONST	ENDS
;	COMDAT ??_C@_0O@LOCEBOPL@GetExtraMoves?$AA@
CONST	SEGMENT
??_C@_0O@LOCEBOPL@GetExtraMoves?$AA@ DB 'GetExtraMoves', 00H ; `string'
CONST	ENDS
;	COMDAT ??_C@_0BI@LMONEFFA@GetExtraVisibilityRange?$AA@
CONST	SEGMENT
??_C@_0BI@LMONEFFA@GetExtraVisibilityRange?$AA@ DB 'GetExtraVisibilityRan'
	DB	'ge', 00H					; `string'
CONST	ENDS
;	COMDAT ??_C@_0BC@NDGFBOMB@GetGarrisonedCity?$AA@
CONST	SEGMENT
??_C@_0BC@NDGFBOMB@GetGarrisonedCity?$AA@ DB 'GetGarrisonedCity', 00H ; `string'
CONST	ENDS
;	COMDAT ??_C@_0N@HELPNODL@IsGarrisoned?$AA@
CONST	SEGMENT
??_C@_0N@HELPNODL@IsGarrisoned?$AA@ DB 'IsGarrisoned', 00H ; `string'
CONST	ENDS
;	COMDAT ??_C@_0BC@BEKIIEEN@IsHillsDoubleMove?$AA@
CONST	SEGMENT
??_C@_0BC@BEKIIEEN@IsHillsDoubleMove?$AA@ DB 'IsHillsDoubleMove', 00H ; `string'
CONST	ENDS
;	COMDAT ??_C@_0BG@FIHHHACK@IsHealOutsideFriendly?$AA@
CONST	SEGMENT
??_C@_0BG@FIHHHACK@IsHealOutsideFriendly?$AA@ DB 'IsHealOutsideFriendly', 00H ; `string'
CONST	ENDS
;	COMDAT ??_C@_0N@NNLJCGEA@IsAlwaysHeal?$AA@
CONST	SEGMENT
??_C@_0N@NNLJCGEA@IsAlwaysHeal?$AA@ DB 'IsAlwaysHeal', 00H ; `string'
CONST	ENDS
;	COMDAT ??_C@_0N@JICLFCIN@IsEnemyRoute?$AA@
CONST	SEGMENT
??_C@_0N@JICLFCIN@IsEnemyRoute?$AA@ DB 'IsEnemyRoute', 00H ; `string'
CONST	ENDS
;	COMDAT ??_C@_0BJ@CKMHLMJL@IsRiverCrossingNoPenalty?$AA@
CONST	SEGMENT
??_C@_0BJ@CKMHLMJL@IsRiverCrossingNoPenalty?$AA@ DB 'IsRiverCrossingNoPen'
	DB	'alty', 00H					; `string'
CONST	ENDS
;	COMDAT ??_C@_0BP@FJEFOKIO@GetRiverCrossingNoPenaltyCount?$AA@
CONST	SEGMENT
??_C@_0BP@FJEFOKIO@GetRiverCrossingNoPenaltyCount?$AA@ DB 'GetRiverCrossi'
	DB	'ngNoPenaltyCount', 00H			; `string'
CONST	ENDS
;	COMDAT ??_C@_08IIDGMJO@IsAmphib?$AA@
CONST	SEGMENT
??_C@_08IIDGMJO@IsAmphib?$AA@ DB 'IsAmphib', 00H	; `string'
CONST	ENDS
;	COMDAT ??_C@_0P@DOEJINNJ@GetAmphibCount?$AA@
CONST	SEGMENT
??_C@_0P@DOEJINNJ@GetAmphibCount?$AA@ DB 'GetAmphibCount', 00H ; `string'
CONST	ENDS
;	COMDAT ??_C@_07KPNLOLLE@IsBlitz?$AA@
CONST	SEGMENT
??_C@_07KPNLOLLE@IsBlitz?$AA@ DB 'IsBlitz', 00H		; `string'
CONST	ENDS
;	COMDAT ??_C@_0O@CMMIPJMH@GetBlitzCount?$AA@
CONST	SEGMENT
??_C@_0O@CMMIPJMH@GetBlitzCount?$AA@ DB 'GetBlitzCount', 00H ; `string'
CONST	ENDS
;	COMDAT ??_C@_0BA@OCAPIEKB@GetFortifyTurns?$AA@
CONST	SEGMENT
??_C@_0BA@OCAPIEKB@GetFortifyTurns?$AA@ DB 'GetFortifyTurns', 00H ; `string'
CONST	ENDS
;	COMDAT ??_C@_08GAHMDLJN@GetCargo?$AA@
CONST	SEGMENT
??_C@_08GAHMDLJN@GetCargo?$AA@ DB 'GetCargo', 00H	; `string'
CONST	ENDS
;	COMDAT ??_C@_0CG@OOOIDGNO@RotateFacingDirectionCounterCloc@
CONST	SEGMENT
??_C@_0CG@OOOIDGNO@RotateFacingDirectionCounterCloc@ DB 'RotateFacingDire'
	DB	'ctionCounterClockwise', 00H			; `string'
CONST	ENDS
;	COMDAT ??_C@_0BP@JMEBNBEE@RotateFacingDirectionClockwise?$AA@
CONST	SEGMENT
??_C@_0BP@JMEBNBEE@RotateFacingDirectionClockwise?$AA@ DB 'RotateFacingDi'
	DB	'rectionClockwise', 00H			; `string'
CONST	ENDS
;	COMDAT ??_C@_0BD@FNLDHKMI@GetFacingDirection?$AA@
CONST	SEGMENT
??_C@_0BD@FNLDHKMI@GetFacingDirection?$AA@ DB 'GetFacingDirection', 00H ; `string'
CONST	ENDS
;	COMDAT ??_C@_0M@GAKMDEHP@ChangeLevel?$AA@
CONST	SEGMENT
??_C@_0M@GAKMDEHP@ChangeLevel?$AA@ DB 'ChangeLevel', 00H ; `string'
CONST	ENDS
;	COMDAT ??_C@_08DCENCMAP@SetLevel?$AA@
CONST	SEGMENT
??_C@_08DCENCMAP@SetLevel?$AA@ DB 'SetLevel', 00H	; `string'
CONST	ENDS
;	COMDAT ??_C@_08MDGBDPHC@GetLevel?$AA@
CONST	SEGMENT
??_C@_08MDGBDPHC@GetLevel?$AA@ DB 'GetLevel', 00H	; `string'
CONST	ENDS
;	COMDAT ??_C@_0BB@KLHJLBIL@ChangeExperience?$AA@
CONST	SEGMENT
??_C@_0BB@KLHJLBIL@ChangeExperience?$AA@ DB 'ChangeExperience', 00H ; `string'
CONST	ENDS
;	COMDAT ??_C@_0O@OHKLKLHF@SetExperience?$AA@
CONST	SEGMENT
??_C@_0O@OHKLKLHF@SetExperience?$AA@ DB 'SetExperience', 00H ; `string'
CONST	ENDS
;	COMDAT ??_C@_0O@JILFBIAC@GetExperience?$AA@
CONST	SEGMENT
??_C@_0O@JILFBIAC@GetExperience?$AA@ DB 'GetExperience', 00H ; `string'
CONST	ENDS
;	COMDAT ??_C@_0L@PCIEPGHM@IsImmobile?$AA@
CONST	SEGMENT
??_C@_0L@PCIEPGHM@IsImmobile?$AA@ DB 'IsImmobile', 00H	; `string'
CONST	ENDS
;	COMDAT ??_C@_0M@HJHLDBGA@FinishMoves?$AA@
CONST	SEGMENT
??_C@_0M@HJHLDBGA@FinishMoves?$AA@ DB 'FinishMoves', 00H ; `string'
CONST	ENDS
;	COMDAT ??_C@_0M@CMBKPBOF@ChangeMoves?$AA@
CONST	SEGMENT
??_C@_0M@CMBKPBOF@ChangeMoves?$AA@ DB 'ChangeMoves', 00H ; `string'
CONST	ENDS
;	COMDAT ??_C@_08HOPLOJJF@SetMoves?$AA@
CONST	SEGMENT
??_C@_08HOPLOJJF@SetMoves?$AA@ DB 'SetMoves', 00H	; `string'
CONST	ENDS
;	COMDAT ??_C@_08IPNHPKOI@GetMoves?$AA@
CONST	SEGMENT
??_C@_08IPNHPKOI@GetMoves?$AA@ DB 'GetMoves', 00H	; `string'
CONST	ENDS
;	COMDAT ??_C@_0N@OECJINCP@ChangeDamage?$AA@
CONST	SEGMENT
??_C@_0N@OECJINCP@ChangeDamage?$AA@ DB 'ChangeDamage', 00H ; `string'
CONST	ENDS
;	COMDAT ??_C@_09LEHOBNAL@SetDamage?$AA@
CONST	SEGMENT
??_C@_09LEHOBNAL@SetDamage?$AA@ DB 'SetDamage', 00H	; `string'
CONST	ENDS
;	COMDAT ??_C@_09JKDLDMJJ@GetDamage?$AA@
CONST	SEGMENT
??_C@_09JKDLDMJJ@GetDamage?$AA@ DB 'GetDamage', 00H	; `string'
CONST	ENDS
;	COMDAT ??_C@_0BA@ICPFIKDJ@GetLastMoveTurn?$AA@
CONST	SEGMENT
??_C@_0BA@ICPFIKDJ@GetLastMoveTurn?$AA@ DB 'GetLastMoveTurn', 00H ; `string'
CONST	ENDS
;	COMDAT ??_C@_0BD@GLLONDKJ@GetGameTurnCreated?$AA@
CONST	SEGMENT
??_C@_0BD@GLLONDKJ@GetGameTurnCreated?$AA@ DB 'GetGameTurnCreated', 00H ; `string'
CONST	ENDS
;	COMDAT ??_C@_0N@EBILAINE@SetReconPlot?$AA@
CONST	SEGMENT
??_C@_0N@EBILAINE@SetReconPlot?$AA@ DB 'SetReconPlot', 00H ; `string'
CONST	ENDS
;	COMDAT ??_C@_0N@DFDFMEJI@GetReconPlot?$AA@
CONST	SEGMENT
??_C@_0N@DFDFMEJI@GetReconPlot?$AA@ DB 'GetReconPlot', 00H ; `string'
CONST	ENDS
;	COMDAT ??_C@_07GGOHINDE@GetArea?$AA@
CONST	SEGMENT
??_C@_07GGOHINDE@GetArea?$AA@ DB 'GetArea', 00H		; `string'
CONST	ENDS
;	COMDAT ??_C@_07LBIDHAGI@GetPlot?$AA@
CONST	SEGMENT
??_C@_07LBIDHAGI@GetPlot?$AA@ DB 'GetPlot', 00H		; `string'
CONST	ENDS
;	COMDAT ??_C@_06FBGHKGAE@AtPlot?$AA@
CONST	SEGMENT
??_C@_06FBGHKGAE@AtPlot?$AA@ DB 'AtPlot', 00H		; `string'
CONST	ENDS
;	COMDAT ??_C@_02DKLFHNOI@At?$AA@
CONST	SEGMENT
??_C@_02DKLFHNOI@At?$AA@ DB 'At', 00H			; `string'
CONST	ENDS
;	COMDAT ??_C@_05HIHOHCOG@SetXY?$AA@
CONST	SEGMENT
??_C@_05HIHOHCOG@SetXY?$AA@ DB 'SetXY', 00H		; `string'
CONST	ENDS
;	COMDAT ??_C@_04OHHHKNBL@GetY?$AA@
CONST	SEGMENT
??_C@_04OHHHKNBL@GetY?$AA@ DB 'GetY', 00H		; `string'
CONST	ENDS
;	COMDAT ??_C@_04POGMJMFK@GetX?$AA@
CONST	SEGMENT
??_C@_04POGMJMFK@GetX?$AA@ DB 'GetX', 00H		; `string'
CONST	ENDS
;	COMDAT ??_C@_0BA@KMOOCBFO@SetHotKeyNumber?$AA@
CONST	SEGMENT
??_C@_0BA@KMOOCBFO@SetHotKeyNumber?$AA@ DB 'SetHotKeyNumber', 00H ; `string'
CONST	ENDS
;	COMDAT ??_C@_0BA@JOPIFDEH@GetHotKeyNumber?$AA@
CONST	SEGMENT
??_C@_0BA@JOPIFDEH@GetHotKeyNumber?$AA@ DB 'GetHotKeyNumber', 00H ; `string'
CONST	ENDS
;	COMDAT ??_C@_05CLBJHDA@GetID?$AA@
CONST	SEGMENT
??_C@_05CLBJHDA@GetID?$AA@ DB 'GetID', 00H		; `string'
CONST	ENDS
;	COMDAT ??_C@_0P@FKNDEEFE@GetUnitAICargo?$AA@
CONST	SEGMENT
??_C@_0P@FKNDEEFE@GetUnitAICargo?$AA@ DB 'GetUnitAICargo', 00H ; `string'
CONST	ENDS
;	COMDAT ??_C@_0BA@FAKJAOCC@CanCargoAllMove?$AA@
CONST	SEGMENT
??_C@_0BA@FAKJAOCC@CanCargoAllMove?$AA@ DB 'CanCargoAllMove', 00H ; `string'
CONST	ENDS
;	COMDAT ??_C@_08POCIMEDI@HasCargo?$AA@
CONST	SEGMENT
??_C@_08POCIMEDI@HasCargo?$AA@ DB 'HasCargo', 00H	; `string'
CONST	ENDS
;	COMDAT ??_C@_0BE@MFHGGLIO@CargoSpaceAvailable?$AA@
CONST	SEGMENT
??_C@_0BE@MFHGGLIO@CargoSpaceAvailable?$AA@ DB 'CargoSpaceAvailable', 00H ; `string'
CONST	ENDS
;	COMDAT ??_C@_06DNGBIEOM@IsFull?$AA@
CONST	SEGMENT
??_C@_06DNGBIEOM@IsFull?$AA@ DB 'IsFull', 00H		; `string'
CONST	ENDS
;	COMDAT ??_C@_0BB@KHCPCPHA@ChangeCargoSpace?$AA@
CONST	SEGMENT
??_C@_0BB@KHCPCPHA@ChangeCargoSpace?$AA@ DB 'ChangeCargoSpace', 00H ; `string'
CONST	ENDS
;	COMDAT ??_C@_0L@DODLMACF@CargoSpace?$AA@
CONST	SEGMENT
??_C@_0L@DODLMACF@CargoSpace?$AA@ DB 'CargoSpace', 00H	; `string'
CONST	ENDS
;	COMDAT ??_C@_0M@EMBKKFAL@DomainCargo?$AA@
CONST	SEGMENT
??_C@_0M@EMBKKFAL@DomainCargo?$AA@ DB 'DomainCargo', 00H ; `string'
CONST	ENDS
;	COMDAT ??_C@_0N@JIBALDJB@SpecialCargo?$AA@
CONST	SEGMENT
??_C@_0N@JIBALDJB@SpecialCargo?$AA@ DB 'SpecialCargo', 00H ; `string'
CONST	ENDS
;	COMDAT ??_C@_0BG@CILHBFIF@CapitalDefenseFalloff?$AA@
CONST	SEGMENT
??_C@_0BG@CILHBFIF@CapitalDefenseFalloff?$AA@ DB 'CapitalDefenseFalloff', 00H ; `string'
CONST	ENDS
;	COMDAT ??_C@_0BH@CDDLEEIL@CapitalDefenseModifier?$AA@
CONST	SEGMENT
??_C@_0BH@CDDLEEIL@CapitalDefenseModifier?$AA@ DB 'CapitalDefenseModifier'
	DB	00H						; `string'
CONST	ENDS
;	COMDAT ??_C@_0BC@IPOJCGCM@AirSweepCombatMod?$AA@
CONST	SEGMENT
??_C@_0BC@IPOJCGCM@AirSweepCombatMod?$AA@ DB 'AirSweepCombatMod', 00H ; `string'
CONST	ENDS
;	COMDAT ??_C@_0BM@KMIJFMOI@GetUnhappinessCombatPenalty?$AA@
CONST	SEGMENT
??_C@_0BM@KMIJFMOI@GetUnhappinessCombatPenalty?$AA@ DB 'GetUnhappinessCom'
	DB	'batPenalty', 00H				; `string'
CONST	ENDS
;	COMDAT ??_C@_0CC@OAGBAAPI@GetStrategicResourceCombatPenalt@
CONST	SEGMENT
??_C@_0CC@OAGBAAPI@GetStrategicResourceCombatPenalt@ DB 'GetStrategicReso'
	DB	'urceCombatPenalty', 00H			; `string'
CONST	ENDS
;	COMDAT ??_C@_0P@NJCAJHBI@DomainModifier?$AA@
CONST	SEGMENT
??_C@_0P@NJCAJHBI@DomainModifier?$AA@ DB 'DomainModifier', 00H ; `string'
CONST	ENDS
;	COMDAT ??_C@_0BD@DFAJNMBC@UnitCombatModifier?$AA@
CONST	SEGMENT
??_C@_0BD@DFAJNMBC@UnitCombatModifier?$AA@ DB 'UnitCombatModifier', 00H ; `string'
CONST	ENDS
;	COMDAT ??_C@_0BJ@OJACANJO@UnitClassDefenseModifier?$AA@
CONST	SEGMENT
??_C@_0BJ@OJACANJO@UnitClassDefenseModifier?$AA@ DB 'UnitClassDefenseModi'
	DB	'fier', 00H					; `string'
CONST	ENDS
;	COMDAT ??_C@_0BI@NFGAIELD@UnitClassAttackModifier?$AA@
CONST	SEGMENT
??_C@_0BI@NFGAIELD@UnitClassAttackModifier?$AA@ DB 'UnitClassAttackModifi'
	DB	'er', 00H					; `string'
CONST	ENDS
;	COMDAT ??_C@_0BH@BEGNCFMJ@FeatureDefenseModifier?$AA@
CONST	SEGMENT
??_C@_0BH@BEGNCFMJ@FeatureDefenseModifier?$AA@ DB 'FeatureDefenseModifier'
	DB	00H						; `string'
CONST	ENDS
;	COMDAT ??_C@_0BG@NILBKJKJ@FeatureAttackModifier?$AA@
CONST	SEGMENT
??_C@_0BG@NILBKJKJ@FeatureAttackModifier?$AA@ DB 'FeatureAttackModifier', 00H ; `string'
CONST	ENDS
;	COMDAT ??_C@_0BH@NAIEHADC@TerrainDefenseModifier?$AA@
CONST	SEGMENT
??_C@_0BH@NAIEHADC@TerrainDefenseModifier?$AA@ DB 'TerrainDefenseModifier'
	DB	00H						; `string'
CONST	ENDS
;	COMDAT ??_C@_0BG@FAKOOKFA@TerrainAttackModifier?$AA@
CONST	SEGMENT
??_C@_0BG@FAKOOKFA@TerrainAttackModifier?$AA@ DB 'TerrainAttackModifier', 00H ; `string'
CONST	ENDS
;	COMDAT ??_C@_0BF@GLPAPCOP@RoughDefenseModifier?$AA@
CONST	SEGMENT
??_C@_0BF@GLPAPCOP@RoughDefenseModifier?$AA@ DB 'RoughDefenseModifier', 00H ; `string'
CONST	ENDS
;	COMDAT ??_C@_0BE@EPGDEJAB@FlankAttackModifier?$AA@
CONST	SEGMENT
??_C@_0BE@EPGDEJAB@FlankAttackModifier?$AA@ DB 'FlankAttackModifier', 00H ; `string'
CONST	ENDS
;	COMDAT ??_C@_0BG@FIKOLHBD@AttackWoundedModifier?$AA@
CONST	SEGMENT
??_C@_0BG@FIKOLHBD@AttackWoundedModifier?$AA@ DB 'AttackWoundedModifier', 00H ; `string'
CONST	ENDS
;	COMDAT ??_C@_0BI@JHKANDHP@AttackFortifiedModifier?$AA@
CONST	SEGMENT
??_C@_0BI@JHKANDHP@AttackFortifiedModifier?$AA@ DB 'AttackFortifiedModifi'
	DB	'er', 00H					; `string'
CONST	ENDS
;	COMDAT ??_C@_0BK@FJFHFKJE@RoughRangedAttackModifier?$AA@
CONST	SEGMENT
??_C@_0BK@FJFHFKJE@RoughRangedAttackModifier?$AA@ DB 'RoughRangedAttackMo'
	DB	'difier', 00H				; `string'
CONST	ENDS
;	COMDAT ??_C@_0BE@PIHGPDLD@OpenDefenseModifier?$AA@
CONST	SEGMENT
??_C@_0BE@PIHGPDLD@OpenDefenseModifier?$AA@ DB 'OpenDefenseModifier', 00H ; `string'
CONST	ENDS
;	COMDAT ??_C@_0BJ@KDNMKBNA@OpenRangedAttackModifier?$AA@
CONST	SEGMENT
??_C@_0BJ@KDNMKBNA@OpenRangedAttackModifier?$AA@ DB 'OpenRangedAttackModi'
	DB	'fier', 00H					; `string'
CONST	ENDS
;	COMDAT ??_C@_0BD@KAJFPFGI@OpenAttackModifier?$AA@
CONST	SEGMENT
??_C@_0BD@KAJFPFGI@OpenAttackModifier?$AA@ DB 'OpenAttackModifier', 00H ; `string'
CONST	ENDS
;	COMDAT ??_C@_0BE@CPGLDEOF@RoughAttackModifier?$AA@
CONST	SEGMENT
??_C@_0BE@CPGLDEOF@RoughAttackModifier?$AA@ DB 'RoughAttackModifier', 00H ; `string'
CONST	ENDS
;	COMDAT ??_C@_0BF@PHAMCNAD@HillsDefenseModifier?$AA@
CONST	SEGMENT
??_C@_0BF@PHAMCNAD@HillsDefenseModifier?$AA@ DB 'HillsDefenseModifier', 00H ; `string'
CONST	ENDS
;	COMDAT ??_C@_0BM@HLDAPOIG@HeavyChargeDownhillModifier?$AA@
CONST	SEGMENT
??_C@_0BM@HLDAPOIG@HeavyChargeDownhillModifier?$AA@ DB 'HeavyChargeDownhi'
	DB	'llModifier', 00H				; `string'
CONST	ENDS
;	COMDAT ??_C@_0BE@NKLCHBCB@HillsAttackModifier?$AA@
CONST	SEGMENT
??_C@_0BE@NKLCHBCB@HillsAttackModifier?$AA@ DB 'HillsAttackModifier', 00H ; `string'
CONST	ENDS
;	COMDAT ??_C@_0BE@BAHDGHEA@CityDefenseModifier?$AA@
CONST	SEGMENT
??_C@_0BE@BAHDGHEA@CityDefenseModifier?$AA@ DB 'CityDefenseModifier', 00H ; `string'
CONST	ENDS
;	COMDAT ??_C@_0BD@BNNFDFCP@CityAttackModifier?$AA@
CONST	SEGMENT
??_C@_0BD@BNNFDFCP@CityAttackModifier?$AA@ DB 'CityAttackModifier', 00H ; `string'
CONST	ENDS
;	COMDAT ??_C@_0BI@DOOFICGI@GetRangedAttackModifier?$AA@
CONST	SEGMENT
??_C@_0BI@DOOFICGI@GetRangedAttackModifier?$AA@ DB 'GetRangedAttackModifi'
	DB	'er', 00H					; `string'
CONST	ENDS
;	COMDAT ??_C@_0BD@DOEJPBBH@GetDefenseModifier?$AA@
CONST	SEGMENT
??_C@_0BD@DOEJPBBH@GetDefenseModifier?$AA@ DB 'GetDefenseModifier', 00H ; `string'
CONST	ENDS
;	COMDAT ??_C@_0BC@JDEOODFC@GetAttackModifier?$AA@
CONST	SEGMENT
??_C@_0BC@JDEOODFC@GetAttackModifier?$AA@ DB 'GetAttackModifier', 00H ; `string'
CONST	ENDS
;	COMDAT ??_C@_0BE@DLLGHCIO@GetAdjacentModifier?$AA@
CONST	SEGMENT
??_C@_0BE@DLLGHCIO@GetAdjacentModifier?$AA@ DB 'GetAdjacentModifier', 00H ; `string'
CONST	ENDS
;	COMDAT ??_C@_0BG@OIIHINBE@WithdrawalProbability?$AA@
CONST	SEGMENT
??_C@_0BG@OIIHINBE@WithdrawalProbability?$AA@ DB 'WithdrawalProbability', 00H ; `string'
CONST	ENDS
;	COMDAT ??_C@_0BD@NJKKJPLI@EvasionProbability?$AA@
CONST	SEGMENT
??_C@_0BD@NJKKJPLI@EvasionProbability?$AA@ DB 'EvasionProbability', 00H ; `string'
CONST	ENDS
;	COMDAT ??_C@_0BM@EFLPCPDH@CurrInterceptionProbability?$AA@
CONST	SEGMENT
??_C@_0BM@EFLPCPDH@CurrInterceptionProbability?$AA@ DB 'CurrInterceptionP'
	DB	'robability', 00H				; `string'
CONST	ENDS
;	COMDAT ??_C@_0BL@HEGDGCBF@MaxInterceptionProbability?$AA@
CONST	SEGMENT
??_C@_0BL@HEGDGCBF@MaxInterceptionProbability?$AA@ DB 'MaxInterceptionPro'
	DB	'bability', 00H				; `string'
CONST	ENDS
;	COMDAT ??_C@_0BB@PJIAODBJ@IsCityAttackOnly?$AA@
CONST	SEGMENT
??_C@_0BB@PJIAODBJ@IsCityAttackOnly?$AA@ DB 'IsCityAttackOnly', 00H ; `string'
CONST	ENDS
;	COMDAT ??_C@_0BK@DIBEDCBC@IsRangeAttackOnlyInDomain?$AA@
CONST	SEGMENT
??_C@_0BK@DIBEDCBC@IsRangeAttackOnlyInDomain?$AA@ DB 'IsRangeAttackOnlyIn'
	DB	'Domain', 00H				; `string'
CONST	ENDS
;	COMDAT ??_C@_0N@EJFNAKBN@IsNukeImmune?$AA@
CONST	SEGMENT
??_C@_0N@EJFNAKBN@IsNukeImmune?$AA@ DB 'IsNukeImmune', 00H ; `string'
CONST	ENDS
;	COMDAT ??_C@_0M@BNMDJPAD@IsInvisible?$AA@
CONST	SEGMENT
??_C@_0M@BNMDJPAD@IsInvisible?$AA@ DB 'IsInvisible', 00H ; `string'
CONST	ENDS
;	COMDAT ??_C@_0BB@IMPFCGLP@IsNeverInvisible?$AA@
CONST	SEGMENT
??_C@_0BB@IMPFCGLP@IsNeverInvisible?$AA@ DB 'IsNeverInvisible', 00H ; `string'
CONST	ENDS
;	COMDAT ??_C@_0BC@PNMBBNHM@IgnoreTerrainCost?$AA@
CONST	SEGMENT
??_C@_0BC@PNMBBNHM@IgnoreTerrainCost?$AA@ DB 'IgnoreTerrainCost', 00H ; `string'
CONST	ENDS
;	COMDAT ??_C@_0BB@MENGGKPI@FlatMovementCost?$AA@
CONST	SEGMENT
??_C@_0BB@MENGGKPI@FlatMovementCost?$AA@ DB 'FlatMovementCost', 00H ; `string'
CONST	ENDS
;	COMDAT ??_C@_0BC@PHIBAHKE@CanMoveAllTerrain?$AA@
CONST	SEGMENT
??_C@_0BC@PHIBAHKE@CanMoveAllTerrain?$AA@ DB 'CanMoveAllTerrain', 00H ; `string'
CONST	ENDS
;	COMDAT ??_C@_0BC@DKMBECGO@CanMoveImpassable?$AA@
CONST	SEGMENT
??_C@_0BC@DKMBECGO@CanMoveImpassable?$AA@ DB 'CanMoveImpassable', 00H ; `string'
CONST	ENDS
;	COMDAT ??_C@_0BG@NPOBMDEK@IgnoreBuildingDefense?$AA@
CONST	SEGMENT
??_C@_0BG@NPOBMDEK@IgnoreBuildingDefense?$AA@ DB 'IgnoreBuildingDefense', 00H ; `string'
CONST	ENDS
;	COMDAT ??_C@_0BB@EDEJJMBG@NoDefensiveBonus?$AA@
CONST	SEGMENT
??_C@_0BB@EDEJJMBG@NoDefensiveBonus?$AA@ DB 'NoDefensiveBonus', 00H ; `string'
CONST	ENDS
;	COMDAT ??_C@_0BF@LOKEAEHO@ImmuneToFirstStrikes?$AA@
CONST	SEGMENT
??_C@_0BF@LOKEAEHO@ImmuneToFirstStrikes?$AA@ DB 'ImmuneToFirstStrikes', 00H ; `string'
CONST	ENDS
;	COMDAT ??_C@_0BH@HMHIMLJG@IsSetUpForRangedAttack?$AA@
CONST	SEGMENT
??_C@_0BH@HMHIMLJG@IsSetUpForRangedAttack?$AA@ DB 'IsSetUpForRangedAttack'
	DB	00H						; `string'
CONST	ENDS
;	COMDAT ??_C@_0BI@IKLKKCFA@CanSetUpForRangedAttack?$AA@
CONST	SEGMENT
??_C@_0BI@IKLKKCFA@CanSetUpForRangedAttack?$AA@ DB 'CanSetUpForRangedAtta'
	DB	'ck', 00H					; `string'
CONST	ENDS
;	COMDAT ??_C@_0BK@ODLOGFHD@IsMustSetUpToRangedAttack?$AA@
CONST	SEGMENT
??_C@_0BK@ODLOGFHD@IsMustSetUpToRangedAttack?$AA@ DB 'IsMustSetUpToRanged'
	DB	'Attack', 00H				; `string'
CONST	ENDS
;	COMDAT ??_C@_08PBIEENOB@IsRanged?$AA@
CONST	SEGMENT
??_C@_08PBIEENOB@IsRanged?$AA@ DB 'IsRanged', 00H	; `string'
CONST	ENDS
;	COMDAT ??_C@_0BA@BPAAIGPJ@MaxFirstStrikes?$AA@
CONST	SEGMENT
??_C@_0BA@BPAAIGPJ@MaxFirstStrikes?$AA@ DB 'MaxFirstStrikes', 00H ; `string'
CONST	ENDS
;	COMDAT ??_C@_0BD@IEANKGHK@ChanceFirstStrikes?$AA@
CONST	SEGMENT
??_C@_0BD@IEANKGHK@ChanceFirstStrikes?$AA@ DB 'ChanceFirstStrikes', 00H ; `string'
CONST	ENDS
;	COMDAT ??_C@_0N@PJAIAMPF@FirstStrikes?$AA@
CONST	SEGMENT
??_C@_0N@PJAIAMPF@FirstStrikes?$AA@ DB 'FirstStrikes', 00H ; `string'
CONST	ENDS
;	COMDAT ??_C@_0L@BMCJNNEJ@MaxXPValue?$AA@
CONST	SEGMENT
??_C@_0L@BMCJNNEJ@MaxXPValue?$AA@ DB 'MaxXPValue', 00H	; `string'
CONST	ENDS
;	COMDAT ??_C@_0P@JHMJJDKG@DefenseXPValue?$AA@
CONST	SEGMENT
??_C@_0P@JHMJJDKG@DefenseXPValue?$AA@ DB 'DefenseXPValue', 00H ; `string'
CONST	ENDS
;	COMDAT ??_C@_0O@DKJMBMOF@AttackXPValue?$AA@
CONST	SEGMENT
??_C@_0O@DKJMBMOF@AttackXPValue?$AA@ DB 'AttackXPValue', 00H ; `string'
CONST	ENDS
;	COMDAT ??_C@_0BB@KHKCLNBJ@ExperienceNeeded?$AA@
CONST	SEGMENT
??_C@_0BB@KHKCLNBJ@ExperienceNeeded?$AA@ DB 'ExperienceNeeded', 00H ; `string'
CONST	ENDS
;	COMDAT ??_C@_0BA@HLMKCAHI@FortifyModifier?$AA@
CONST	SEGMENT
??_C@_0BA@HLMKCAHI@FortifyModifier?$AA@ DB 'FortifyModifier', 00H ; `string'
CONST	ENDS
;	COMDAT ??_C@_0BC@GLEHCFPG@IsEverFortifyable?$AA@
CONST	SEGMENT
??_C@_0BC@GLEHCFPG@IsEverFortifyable?$AA@ DB 'IsEverFortifyable', 00H ; `string'
CONST	ENDS
;	COMDAT ??_C@_0O@OCMBHLME@IsFortifyable?$AA@
CONST	SEGMENT
??_C@_0O@OCMBHLME@IsFortifyable?$AA@ DB 'IsFortifyable', 00H ; `string'
CONST	ENDS
;	COMDAT ??_C@_09MIKEECCD@IsWaiting?$AA@
CONST	SEGMENT
??_C@_09MIKEECCD@IsWaiting?$AA@ DB 'IsWaiting', 00H	; `string'
CONST	ENDS
;	COMDAT ??_C@_0M@GLGABLLL@IsAutomated?$AA@
CONST	SEGMENT
??_C@_0M@GLGABLLL@IsAutomated?$AA@ DB 'IsAutomated', 00H ; `string'
CONST	ENDS
;	COMDAT ??_C@_0BB@OKDKFEAC@GetCaptureChance?$AA@
CONST	SEGMENT
??_C@_0BB@OKDKFEAC@GetCaptureChance?$AA@ DB 'GetCaptureChance', 00H ; `string'
CONST	ENDS
;	COMDAT ??_C@_0BN@LPOGIFFC@GetBestSeaPillageInterceptor?$AA@
CONST	SEGMENT
??_C@_0BN@LPOGIFFC@GetBestSeaPillageInterceptor?$AA@ DB 'GetBestSeaPillag'
	DB	'eInterceptor', 00H				; `string'
CONST	ENDS
;	COMDAT ??_C@_0BE@FILFEJIA@GetInterceptorCount?$AA@
CONST	SEGMENT
??_C@_0BE@FILFEJIA@GetInterceptorCount?$AA@ DB 'GetInterceptorCount', 00H ; `string'
CONST	ENDS
;	COMDAT ??_C@_0BD@LEJHGMC@GetBestInterceptor?$AA@
CONST	SEGMENT
??_C@_0BD@LEJHGMC@GetBestInterceptor?$AA@ DB 'GetBestInterceptor', 00H ; `string'
CONST	ENDS
;	COMDAT ??_C@_0BK@LJEHDMDL@GetAirStrikeDefenseDamage?$AA@
CONST	SEGMENT
??_C@_0BK@LJEHDMDL@GetAirStrikeDefenseDamage?$AA@ DB 'GetAirStrikeDefense'
	DB	'Damage', 00H				; `string'
CONST	ENDS
;	COMDAT ??_C@_0BF@KIPJJBIH@GetRangeCombatDamage?$AA@
CONST	SEGMENT
??_C@_0BF@KIPJJBIH@GetRangeCombatDamage?$AA@ DB 'GetRangeCombatDamage', 00H ; `string'
CONST	ENDS
;	COMDAT ??_C@_0BD@DKAALEFM@GetAirCombatDamage?$AA@
CONST	SEGMENT
??_C@_0BD@DKAALEFM@GetAirCombatDamage?$AA@ DB 'GetAirCombatDamage', 00H ; `string'
CONST	ENDS
;	COMDAT ??_C@_0N@JPHLBGBL@CanAirDefend?$AA@
CONST	SEGMENT
??_C@_0N@JPHLBGBL@CanAirDefend?$AA@ DB 'CanAirDefend', 00H ; `string'
CONST	ENDS
;	COMDAT ??_C@_0N@BPMLDEKL@CanAirAttack?$AA@
CONST	SEGMENT
??_C@_0N@BPMLDEKL@CanAirAttack?$AA@ DB 'CanAirAttack', 00H ; `string'
CONST	ENDS
;	COMDAT ??_C@_0BF@CKDOAPEN@GetRangedCombatLimit?$AA@
CONST	SEGMENT
??_C@_0BF@CKDOAPEN@GetRangedCombatLimit?$AA@ DB 'GetRangedCombatLimit', 00H ; `string'
CONST	ENDS
;	COMDAT ??_C@_0P@PEHPLGIA@GetCombatLimit?$AA@
CONST	SEGMENT
??_C@_0P@PEHPLGIA@GetCombatLimit?$AA@ DB 'GetCombatLimit', 00H ; `string'
CONST	ENDS
;	COMDAT ??_C@_0BL@DHDPDFCI@GetMaxRangedCombatStrength?$AA@
CONST	SEGMENT
??_C@_0BL@DHDPDFCI@GetMaxRangedCombatStrength?$AA@ DB 'GetMaxRangedCombat'
	DB	'Strength', 00H				; `string'
CONST	ENDS
;	COMDAT ??_C@_0BM@JJBLKOAN@GetBaseRangedCombatStrength?$AA@
CONST	SEGMENT
??_C@_0BM@JJBLKOAN@GetBaseRangedCombatStrength?$AA@ DB 'GetBaseRangedComb'
	DB	'atStrength', 00H				; `string'
CONST	ENDS
;	COMDAT ??_C@_07LBEMKGNA@IsTrade?$AA@
CONST	SEGMENT
??_C@_07LBEMKGNA@IsTrade?$AA@ DB 'IsTrade', 00H		; `string'
CONST	ENDS
;	COMDAT ??_C@_0BH@CHHDBNLA@IsEnemyInMovementRange?$AA@
CONST	SEGMENT
??_C@_0BH@CHHDBNLA@IsEnemyInMovementRange?$AA@ DB 'IsEnemyInMovementRange'
	DB	00H						; `string'
CONST	ENDS
;	COMDAT ??_C@_0BH@DAIJJIKL@IsCanAttackWithMoveNow?$AA@
CONST	SEGMENT
??_C@_0BH@DAIJJIKL@IsCanAttackWithMoveNow?$AA@ DB 'IsCanAttackWithMoveNow'
	DB	00H						; `string'
CONST	ENDS
;	COMDAT ??_C@_0M@IEELDLKI@IsCanAttack?$AA@
CONST	SEGMENT
??_C@_0M@IEELDLKI@IsCanAttack?$AA@ DB 'IsCanAttack', 00H ; `string'
CONST	ENDS
;	COMDAT ??_C@_0BC@DBALPDOL@IsCanAttackRanged?$AA@
CONST	SEGMENT
??_C@_0BC@DBALPDOL@IsCanAttackRanged?$AA@ DB 'IsCanAttackRanged', 00H ; `string'
CONST	ENDS
;	COMDAT ??_C@_0BE@FMPCPPOB@IsCanAttackWithMove?$AA@
CONST	SEGMENT
??_C@_0BE@FMPCPPOB@IsCanAttackWithMove?$AA@ DB 'IsCanAttackWithMove', 00H ; `string'
CONST	ENDS
;	COMDAT ??_C@_08HOPDGJBN@CanSiege?$AA@
CONST	SEGMENT
??_C@_08HOPDGJBN@CanSiege?$AA@ DB 'CanSiege', 00H	; `string'
CONST	ENDS
;	COMDAT ??_C@_0M@EPLBJBI@IsCanDefend?$AA@
CONST	SEGMENT
??_C@_0M@EPLBJBI@IsCanDefend?$AA@ DB 'IsCanDefend', 00H	; `string'
CONST	ENDS
;	COMDAT ??_C@_0N@FDMOBEEM@IsCombatUnit?$AA@
CONST	SEGMENT
??_C@_0N@FDMOBEEM@IsCombatUnit?$AA@ DB 'IsCombatUnit', 00H ; `string'
CONST	ENDS
;	COMDAT ??_C@_0BH@NDNEFMFF@GetEmbarkedUnitDefense?$AA@
CONST	SEGMENT
??_C@_0BH@NDNEFMFF@GetEmbarkedUnitDefense?$AA@ DB 'GetEmbarkedUnitDefense'
	DB	00H						; `string'
CONST	ENDS
;	COMDAT ??_C@_0BG@CEAGLNCO@GetMaxDefenseStrength?$AA@
CONST	SEGMENT
??_C@_0BG@CEAGLNCO@GetMaxDefenseStrength?$AA@ DB 'GetMaxDefenseStrength', 00H ; `string'
CONST	ENDS
;	COMDAT ??_C@_0BF@DAKJENBM@GetMaxAttackStrength?$AA@
CONST	SEGMENT
??_C@_0BF@DAKJENBM@GetMaxAttackStrength?$AA@ DB 'GetMaxAttackStrength', 00H ; `string'
CONST	ENDS
;	COMDAT ??_C@_0BG@ONCMJAK@GetBaseCombatStrength?$AA@
CONST	SEGMENT
??_C@_0BG@ONCMJAK@GetBaseCombatStrength?$AA@ DB 'GetBaseCombatStrength', 00H ; `string'
CONST	ENDS
;	COMDAT ??_C@_0BG@PLIEBAEL@SetBaseCombatStrength?$AA@
CONST	SEGMENT
??_C@_0BG@PLIEBAEL@SetBaseCombatStrength?$AA@ DB 'SetBaseCombatStrength', 00H ; `string'
CONST	ENDS
;	COMDAT ??_C@_0P@KICKDPKF@IsDelayedDeath?$AA@
CONST	SEGMENT
??_C@_0P@KICKDPKF@IsDelayedDeath?$AA@ DB 'IsDelayedDeath', 00H ; `string'
CONST	ENDS
;	COMDAT ??_C@_06NHLJJJEI@IsDead?$AA@
CONST	SEGMENT
??_C@_06NHLJJJEI@IsDead?$AA@ DB 'IsDead', 00H		; `string'
CONST	ENDS
;	COMDAT ??_C@_06BGPCCMKO@IsHurt?$AA@
CONST	SEGMENT
??_C@_06BGPCCMKO@IsHurt?$AA@ DB 'IsHurt', 00H		; `string'
CONST	ENDS
;	COMDAT ??_C@_0BB@OHDBNFAL@GetCurrHitPoints?$AA@
CONST	SEGMENT
??_C@_0BB@OHDBNFAL@GetCurrHitPoints?$AA@ DB 'GetCurrHitPoints', 00H ; `string'
CONST	ENDS
;	COMDAT ??_C@_0BA@NIPPNLFL@GetMaxHitPoints?$AA@
CONST	SEGMENT
??_C@_0BA@NIPPNLFL@GetMaxHitPoints?$AA@ DB 'GetMaxHitPoints', 00H ; `string'
CONST	ENDS
;	COMDAT ??_C@_0L@ONNJBDMN@IsInCombat?$AA@
CONST	SEGMENT
??_C@_0L@ONNJBDMN@IsInCombat?$AA@ DB 'IsInCombat', 00H	; `string'
CONST	ENDS
;	COMDAT ??_C@_0M@HABIDFCI@IsDefending?$AA@
CONST	SEGMENT
??_C@_0M@HABIDFCI@IsDefending?$AA@ DB 'IsDefending', 00H ; `string'
CONST	ENDS
;	COMDAT ??_C@_0M@NJJFDOBE@IsAttacking?$AA@
CONST	SEGMENT
??_C@_0M@NJJFDOBE@IsAttacking?$AA@ DB 'IsAttacking', 00H ; `string'
CONST	ENDS
;	COMDAT ??_C@_0L@MOBAIMGP@IsFighting?$AA@
CONST	SEGMENT
??_C@_0L@MOBAIMGP@IsFighting?$AA@ DB 'IsFighting', 00H	; `string'
CONST	ENDS
;	COMDAT ??_C@_0O@EJGNOPIA@IsGreatPerson?$AA@
CONST	SEGMENT
??_C@_0O@EJGNOPIA@IsGreatPerson?$AA@ DB 'IsGreatPerson', 00H ; `string'
CONST	ENDS
;	COMDAT ??_C@_0BI@JLJEOEEL@CanCoexistWithEnemyUnit?$AA@
CONST	SEGMENT
??_C@_0BI@JLJEOEEL@CanCoexistWithEnemyUnit?$AA@ DB 'CanCoexistWithEnemyUn'
	DB	'it', 00H					; `string'
CONST	ENDS
;	COMDAT ??_C@_0BE@JOMPGGJE@IsNearFriendlyMinor?$AA@
CONST	SEGMENT
??_C@_0BE@JOMPGGJE@IsNearFriendlyMinor?$AA@ DB 'IsNearFriendlyMinor', 00H ; `string'
CONST	ENDS
;	COMDAT ??_C@_0M@EBKACFHH@IsGoldenAge?$AA@
CONST	SEGMENT
??_C@_0M@EBKACFHH@IsGoldenAge?$AA@ DB 'IsGoldenAge', 00H ; `string'
CONST	ENDS
;	COMDAT ??_C@_06GLMJFJI@IsWork?$AA@
CONST	SEGMENT
??_C@_06GLMJFJI@IsWork?$AA@ DB 'IsWork', 00H		; `string'
CONST	ENDS
;	COMDAT ??_C@_07KMNFCCCM@IsFound?$AA@
CONST	SEGMENT
??_C@_07KMNFCCCM@IsFound?$AA@ DB 'IsFound', 00H		; `string'
CONST	ENDS
;	COMDAT ??_C@_0BB@NBBPHOPE@IsRivalTerritory?$AA@
CONST	SEGMENT
??_C@_0BB@NBBPHOPE@IsRivalTerritory?$AA@ DB 'IsRivalTerritory', 00H ; `string'
CONST	ENDS
;	COMDAT ??_C@_0M@NDDEEDIG@IsNoCapture?$AA@
CONST	SEGMENT
??_C@_0M@NDDEEDIG@IsNoCapture?$AA@ DB 'IsNoCapture', 00H ; `string'
CONST	ENDS
;	COMDAT ??_C@_0BA@HAJEEKLO@IsOnlyDefensive?$AA@
CONST	SEGMENT
??_C@_0BA@HAJEEKLO@IsOnlyDefensive?$AA@ DB 'IsOnlyDefensive', 00H ; `string'
CONST	ENDS
;	COMDAT ??_C@_0P@GJBOHHLD@IsNoBadGoodies?$AA@
CONST	SEGMENT
??_C@_0P@GJBOHHLD@IsNoBadGoodies?$AA@ DB 'IsNoBadGoodies', 00H ; `string'
CONST	ENDS
;	COMDAT ??_C@_08JFPBBIMB@WorkRate?$AA@
CONST	SEGMENT
??_C@_08JFPBBIMB@WorkRate?$AA@ DB 'WorkRate', 00H	; `string'
CONST	ENDS
;	COMDAT ??_C@_0N@GJAMOEAC@GetBuildType?$AA@
CONST	SEGMENT
??_C@_0N@GJAMOEAC@GetBuildType?$AA@ DB 'GetBuildType', 00H ; `string'
CONST	ENDS
;	COMDAT ??_C@_0O@NKBEKKHA@CanBuildRoute?$AA@
CONST	SEGMENT
??_C@_0O@NKBEKKHA@CanBuildRoute?$AA@ DB 'CanBuildRoute', 00H ; `string'
CONST	ENDS
;	COMDAT ??_C@_0BA@NGIMPIOP@NukeDamageLevel?$AA@
CONST	SEGMENT
??_C@_0BA@NGIMPIOP@NukeDamageLevel?$AA@ DB 'NukeDamageLevel', 00H ; `string'
CONST	ENDS
;	COMDAT ??_C@_05CFMCGLCK@Range?$AA@
CONST	SEGMENT
??_C@_05CFMCGLCK@Range?$AA@ DB 'Range', 00H		; `string'
CONST	ENDS
;	COMDAT ??_C@_08BEAAIBNL@HasMoved?$AA@
CONST	SEGMENT
??_C@_08BEAAIBNL@HasMoved?$AA@ DB 'HasMoved', 00H	; `string'
CONST	ENDS
;	COMDAT ??_C@_07KJCADMEO@CanMove?$AA@
CONST	SEGMENT
??_C@_07KJCADMEO@CanMove?$AA@ DB 'CanMove', 00H		; `string'
CONST	ENDS
;	COMDAT ??_C@_09FMBOGIMP@MovesLeft?$AA@
CONST	SEGMENT
??_C@_09FMBOGIMP@MovesLeft?$AA@ DB 'MovesLeft', 00H	; `string'
CONST	ENDS
;	COMDAT ??_C@_08FJBDBEPI@MaxMoves?$AA@
CONST	SEGMENT
??_C@_08FJBDBEPI@MaxMoves?$AA@ DB 'MaxMoves', 00H	; `string'
CONST	ENDS
;	COMDAT ??_C@_0BA@ENFGLHEB@VisibilityRange?$AA@
CONST	SEGMENT
??_C@_0BA@ENFGLHEB@VisibilityRange?$AA@ DB 'VisibilityRange', 00H ; `string'
CONST	ENDS
;	COMDAT ??_C@_07NIJBBMLI@IsHuman?$AA@
CONST	SEGMENT
??_C@_07NIJBBMLI@IsHuman?$AA@ DB 'IsHuman', 00H		; `string'
CONST	ENDS
;	COMDAT ??_C@_0M@NJNEDJLP@IsBarbarian?$AA@
CONST	SEGMENT
??_C@_0M@NJNEDJLP@IsBarbarian?$AA@ DB 'IsBarbarian', 00H ; `string'
CONST	ENDS
;	COMDAT ??_C@_0M@ILNPEBIO@FlavorValue?$AA@
CONST	SEGMENT
??_C@_0M@ILNPEBIO@FlavorValue?$AA@ DB 'FlavorValue', 00H ; `string'
CONST	ENDS
;	COMDAT ??_C@_0N@JCHAPCE@GetDropRange?$AA@
CONST	SEGMENT
??_C@_0N@JCHAPCE@GetDropRange?$AA@ DB 'GetDropRange', 00H ; `string'
CONST	ENDS
;	COMDAT ??_C@_0BE@JPOIAPEI@GetSeeInvisibleType?$AA@
CONST	SEGMENT
??_C@_0BE@JPOIAPEI@GetSeeInvisibleType?$AA@ DB 'GetSeeInvisibleType', 00H ; `string'
CONST	ENDS
;	COMDAT ??_C@_0BB@IDGIMNCA@GetInvisibleType?$AA@
CONST	SEGMENT
??_C@_0BB@IDGIMNCA@GetInvisibleType?$AA@ DB 'GetInvisibleType', 00H ; `string'
CONST	ENDS
;	COMDAT ??_C@_0O@HCLPONDK@GetDomainType?$AA@
CONST	SEGMENT
??_C@_0O@HCLPONDK@GetDomainType?$AA@ DB 'GetDomainType', 00H ; `string'
CONST	ENDS
;	COMDAT ??_C@_0O@CFHACEO@SetUnitAIType?$AA@
CONST	SEGMENT
??_C@_0O@CFHACEO@SetUnitAIType?$AA@ DB 'SetUnitAIType', 00H ; `string'
CONST	ENDS
;	COMDAT ??_C@_0O@HNEJLBDJ@GetUnitAIType?$AA@
CONST	SEGMENT
??_C@_0O@HNEJLBDJ@GetUnitAIType?$AA@ DB 'GetUnitAIType', 00H ; `string'
CONST	ENDS
;	COMDAT ??_C@_0BC@GBCAHMII@GetUnitCombatType?$AA@
CONST	SEGMENT
??_C@_0BC@GBCAHMII@GetUnitCombatType?$AA@ DB 'GetUnitCombatType', 00H ; `string'
CONST	ENDS
;	COMDAT ??_C@_0BD@JDJCDLLA@GetCaptureUnitType?$AA@
CONST	SEGMENT
??_C@_0BD@JDJCDLLA@GetCaptureUnitType?$AA@ DB 'GetCaptureUnitType', 00H ; `string'
CONST	ENDS
;	COMDAT ??_C@_0BD@GBFKJKHH@GetSpecialUnitType?$AA@
CONST	SEGMENT
??_C@_0BD@GBFKJKHH@GetSpecialUnitType?$AA@ DB 'GetSpecialUnitType', 00H ; `string'
CONST	ENDS
;	COMDAT ??_C@_0BE@OGLFKPOE@GetCivilizationType?$AA@
CONST	SEGMENT
??_C@_0BE@OGLFKPOE@GetCivilizationType?$AA@ DB 'GetCivilizationType', 00H ; `string'
CONST	ENDS
;	COMDAT ??_C@_0BA@NDPGKNBO@GetHandicapType?$AA@
CONST	SEGMENT
??_C@_0BA@NDPGKNBO@GetHandicapType?$AA@ DB 'GetHandicapType', 00H ; `string'
CONST	ENDS
;	COMDAT ??_C@_0BO@ODALBDFM@GetNumResourceNeededToUpgrade?$AA@
CONST	SEGMENT
??_C@_0BO@ODALBDFM@GetNumResourceNeededToUpgrade?$AA@ DB 'GetNumResourceN'
	DB	'eededToUpgrade', 00H			; `string'
CONST	ENDS
;	COMDAT ??_C@_0BD@HPPLIDDI@CanUpgradeRightNow?$AA@
CONST	SEGMENT
??_C@_0BD@HPPLIDDI@CanUpgradeRightNow?$AA@ DB 'CanUpgradeRightNow', 00H ; `string'
CONST	ENDS
;	COMDAT ??_C@_0N@BGKJNLFL@UpgradePrice?$AA@
CONST	SEGMENT
??_C@_0N@BGKJNLFL@UpgradePrice?$AA@ DB 'UpgradePrice', 00H ; `string'
CONST	ENDS
;	COMDAT ??_C@_0BD@DBHKLJBH@GetUpgradeUnitType?$AA@
CONST	SEGMENT
??_C@_0BD@DBHKLJBH@GetUpgradeUnitType?$AA@ DB 'GetUpgradeUnitType', 00H ; `string'
CONST	ENDS
;	COMDAT ??_C@_07EDLKEBK@Promote?$AA@
CONST	SEGMENT
??_C@_07EDLKEBK@Promote?$AA@ DB 'Promote', 00H		; `string'
CONST	ENDS
;	COMDAT ??_C@_0L@OPLAIAAJ@CanPromote?$AA@
CONST	SEGMENT
??_C@_0L@OPLAIAAJ@CanPromote?$AA@ DB 'CanPromote', 00H	; `string'
CONST	ENDS
;	COMDAT ??_C@_0P@FHKIFAJK@GiveExperience?$AA@
CONST	SEGMENT
??_C@_0P@FHKIFAJK@GiveExperience?$AA@ DB 'GiveExperience', 00H ; `string'
CONST	ENDS
;	COMDAT ??_C@_0BC@FKOLNGFD@CanGiveExperience?$AA@
CONST	SEGMENT
??_C@_0BC@FKOLNGFD@CanGiveExperience?$AA@ DB 'CanGiveExperience', 00H ; `string'
CONST	ENDS
;	COMDAT ??_C@_04OAKCLFCP@Lead?$AA@
CONST	SEGMENT
??_C@_04OAKCLFCP@Lead?$AA@ DB 'Lead', 00H		; `string'
CONST	ENDS
;	COMDAT ??_C@_07PLIPHBCO@CanLead?$AA@
CONST	SEGMENT
??_C@_07PLIPHBCO@CanLead?$AA@ DB 'CanLead', 00H		; `string'
CONST	ENDS
;	COMDAT ??_C@_08EMPBKDLI@CanBuild?$AA@
CONST	SEGMENT
??_C@_08EMPBKDLI@CanBuild?$AA@ DB 'CanBuild', 00H	; `string'
CONST	ENDS
;	COMDAT ??_C@_0BA@CHPOAIEH@GetBlastTourism?$AA@
CONST	SEGMENT
??_C@_0BA@CHPOAIEH@GetBlastTourism?$AA@ DB 'GetBlastTourism', 00H ; `string'
CONST	ENDS
;	COMDAT ??_C@_0BH@OOEAJGKD@GetGivePoliciesCulture?$AA@
CONST	SEGMENT
??_C@_0BH@OOEAJGKD@GetGivePoliciesCulture?$AA@ DB 'GetGivePoliciesCulture'
	DB	00H						; `string'
CONST	ENDS
;	COMDAT ??_C@_0BC@HOFBCHIL@GetGoldenAgeTurns?$AA@
CONST	SEGMENT
??_C@_0BC@HOFBCHIL@GetGoldenAgeTurns?$AA@ DB 'GetGoldenAgeTurns', 00H ; `string'
CONST	ENDS
;	COMDAT ??_C@_0N@EOBJHMDF@CanGoldenAge?$AA@
CONST	SEGMENT
??_C@_0N@EOBJHMDF@CanGoldenAge?$AA@ DB 'CanGoldenAge', 00H ; `string'
CONST	ENDS
;	COMDAT ??_C@_0BC@BJJCCDBA@CanBuildSpaceship?$AA@
CONST	SEGMENT
??_C@_0BC@BJJCCDBA@CanBuildSpaceship?$AA@ DB 'CanBuildSpaceship', 00H ; `string'
CONST	ENDS
;	COMDAT ??_C@_0P@GCNIAAJM@CanRepairFleet?$AA@
CONST	SEGMENT
??_C@_0P@GCNIAAJM@CanRepairFleet?$AA@ DB 'CanRepairFleet', 00H ; `string'
CONST	ENDS
;	COMDAT ??_C@_0BA@NGCBHOOC@CanBuyCityState?$AA@
CONST	SEGMENT
??_C@_0BA@NGCBHOOC@CanBuyCityState?$AA@ DB 'CanBuyCityState', 00H ; `string'
CONST	ENDS
;	COMDAT ??_C@_08PJOCNGDI@CanTrade?$AA@
CONST	SEGMENT
??_C@_08PJOCNGDI@CanTrade?$AA@ DB 'CanTrade', 00H	; `string'
CONST	ENDS
;	COMDAT ??_C@_0BC@LGEOGBNA@GetTradeInfluence?$AA@
CONST	SEGMENT
??_C@_0BC@LGEOGBNA@GetTradeInfluence?$AA@ DB 'GetTradeInfluence', 00H ; `string'
CONST	ENDS
;	COMDAT ??_C@_0N@FCJOHAFH@GetTradeGold?$AA@
CONST	SEGMENT
??_C@_0N@FCJOHAFH@GetTradeGold?$AA@ DB 'GetTradeGold', 00H ; `string'
CONST	ENDS
;	COMDAT ??_C@_0BD@KJHAMHFH@GetHurryProduction?$AA@
CONST	SEGMENT
??_C@_0BD@KJHAMHFH@GetHurryProduction?$AA@ DB 'GetHurryProduction', 00H ; `string'
CONST	ENDS
;	COMDAT ??_C@_0BC@KNNAIDOL@GetDiscoverAmount?$AA@
CONST	SEGMENT
??_C@_0BC@KNNAIDOL@GetDiscoverAmount?$AA@ DB 'GetDiscoverAmount', 00H ; `string'
CONST	ENDS
;	COMDAT ??_C@_0M@IELKHCBB@CanDiscover?$AA@
CONST	SEGMENT
??_C@_0M@IELKHCBB@CanDiscover?$AA@ DB 'CanDiscover', 00H ; `string'
CONST	ENDS
;	COMDAT ??_C@_0N@OBKNDGPF@CanConstruct?$AA@
CONST	SEGMENT
??_C@_0N@OBKNDGPF@CanConstruct?$AA@ DB 'CanConstruct', 00H ; `string'
CONST	ENDS
;	COMDAT ??_C@_07OPIONNNI@CanJoin?$AA@
CONST	SEGMENT
??_C@_07OPIONNNI@CanJoin?$AA@ DB 'CanJoin', 00H		; `string'
CONST	ENDS
;	COMDAT ??_C@_08OEHLFCME@CanFound?$AA@
CONST	SEGMENT
??_C@_08OEHLFCME@CanFound?$AA@ DB 'CanFound', 00H	; `string'
CONST	ENDS
;	COMDAT ??_C@_0L@JGLKKBMI@IsSelected?$AA@
CONST	SEGMENT
??_C@_0L@JGLKKBMI@IsSelected?$AA@ DB 'IsSelected', 00H	; `string'
CONST	ENDS
;	COMDAT ??_C@_0L@MPCCHJDJ@CanPillage?$AA@
CONST	SEGMENT
??_C@_0L@MPCCHJDJ@CanPillage?$AA@ DB 'CanPillage', 00H	; `string'
CONST	ENDS
;	COMDAT ??_C@_0BH@DNENGFGL@GetExoticGoodsXPAmount?$AA@
CONST	SEGMENT
??_C@_0BH@DNENGFGL@GetExoticGoodsXPAmount?$AA@ DB 'GetExoticGoodsXPAmount'
	DB	00H						; `string'
CONST	ENDS
;	COMDAT ??_C@_0BJ@IPBHFLKL@GetExoticGoodsGoldAmount?$AA@
CONST	SEGMENT
??_C@_0BJ@IPBHFLKL@GetExoticGoodsGoldAmount?$AA@ DB 'GetExoticGoodsGoldAm'
	DB	'ount', 00H					; `string'
CONST	ENDS
;	COMDAT ??_C@_0BE@DBMFLENB@CanMakeTradeRouteAt?$AA@
CONST	SEGMENT
??_C@_0BE@DBMFLENB@CanMakeTradeRouteAt?$AA@ DB 'CanMakeTradeRouteAt', 00H ; `string'
CONST	ENDS
;	COMDAT ??_C@_0BC@OKNIIGFN@CanMakeTradeRoute?$AA@
CONST	SEGMENT
??_C@_0BC@OKNIIGFN@CanMakeTradeRoute?$AA@ DB 'CanMakeTradeRoute', 00H ; `string'
CONST	ENDS
;	COMDAT ??_C@_0O@PGFAMOPK@CanParadropAt?$AA@
CONST	SEGMENT
??_C@_0O@PGFAMOPK@CanParadropAt?$AA@ DB 'CanParadropAt', 00H ; `string'
CONST	ENDS
;	COMDAT ??_C@_0M@IKNPJBHE@CanParadrop?$AA@
CONST	SEGMENT
??_C@_0M@IKNPJBHE@CanParadrop?$AA@ DB 'CanParadrop', 00H ; `string'
CONST	ENDS
;	COMDAT ??_C@_0BB@HFDCOJOB@CanRangeStrikeAt?$AA@
CONST	SEGMENT
??_C@_0BB@HFDCOJOB@CanRangeStrikeAt?$AA@ DB 'CanRangeStrikeAt', 00H ; `string'
CONST	ENDS
;	COMDAT ??_C@_0P@CDOKKCEP@CanRangeStrike?$AA@
CONST	SEGMENT
??_C@_0P@CDOKKCEP@CanRangeStrike?$AA@ DB 'CanRangeStrike', 00H ; `string'
CONST	ENDS
;	COMDAT ??_C@_09HAELIEHK@CanNukeAt?$AA@
CONST	SEGMENT
??_C@_09HAELIEHK@CanNukeAt?$AA@ DB 'CanNukeAt', 00H	; `string'
CONST	ENDS
;	COMDAT ??_C@_07MFNKMBEG@CanNuke?$AA@
CONST	SEGMENT
??_C@_07MFNKMBEG@CanNuke?$AA@ DB 'CanNuke', 00H		; `string'
CONST	ENDS
;	COMDAT ??_C@_0N@IJEAOBKF@IsNukeVictim?$AA@
CONST	SEGMENT
??_C@_0N@IJEAOBKF@IsNukeVictim?$AA@ DB 'IsNukeVictim', 00H ; `string'
CONST	ENDS
;	COMDAT ??_C@_0N@IFJNICON@CanAirliftAt?$AA@
CONST	SEGMENT
??_C@_0N@IFJNICON@CanAirliftAt?$AA@ DB 'CanAirliftAt', 00H ; `string'
CONST	ENDS
;	COMDAT ??_C@_0L@NBEAEKKP@CanAirlift?$AA@
CONST	SEGMENT
??_C@_0L@NBEAEKKP@CanAirlift?$AA@ DB 'CanAirlift', 00H	; `string'
CONST	ENDS
;	COMDAT ??_C@_0BH@GAMNCMGE@IsRangeAttackIgnoreLOS?$AA@
CONST	SEGMENT
??_C@_0BH@GAMNCMGE@IsRangeAttackIgnoreLOS?$AA@ DB 'IsRangeAttackIgnoreLOS'
	DB	00H						; `string'
CONST	ENDS
;	COMDAT ??_C@_06HBNONMMC@Embark?$AA@
CONST	SEGMENT
??_C@_06HBNONMMC@Embark?$AA@ DB 'Embark', 00H		; `string'
CONST	ENDS
;	COMDAT ??_C@_0M@OAMKBJM@CanRebaseAt?$AA@
CONST	SEGMENT
??_C@_0M@OAMKBJM@CanRebaseAt?$AA@ DB 'CanRebaseAt', 00H	; `string'
CONST	ENDS
;	COMDAT ??_C@_0BB@EAECPAIA@CanDisembarkOnto?$AA@
CONST	SEGMENT
??_C@_0BB@EAECPAIA@CanDisembarkOnto?$AA@ DB 'CanDisembarkOnto', 00H ; `string'
CONST	ENDS
;	COMDAT ??_C@_0O@EFELBNGC@CanEmbarkOnto?$AA@
CONST	SEGMENT
??_C@_0O@EFELBNGC@CanEmbarkOnto?$AA@ DB 'CanEmbarkOnto', 00H ; `string'
CONST	ENDS
;	COMDAT ??_C@_0N@NICHBKMI@CanDisembark?$AA@
CONST	SEGMENT
??_C@_0N@NICHBKMI@CanDisembark?$AA@ DB 'CanDisembark', 00H ; `string'
CONST	ENDS
;	COMDAT ??_C@_09PEMMPAAH@CanEmbark?$AA@
CONST	SEGMENT
??_C@_09PEMMPAAH@CanEmbark?$AA@ DB 'CanEmbark', 00H	; `string'
CONST	ENDS
;	COMDAT ??_C@_09MGFCOBOB@CanSentry?$AA@
CONST	SEGMENT
??_C@_09MGFCOBOB@CanSentry?$AA@ DB 'CanSentry', 00H	; `string'
CONST	ENDS
;	COMDAT ??_C@_07MGNGFNOG@CanHeal?$AA@
CONST	SEGMENT
??_C@_07MGNGFNOG@CanHeal?$AA@ DB 'CanHeal', 00H		; `string'
CONST	ENDS
;	COMDAT ??_C@_0M@DBDMLICA@SetEmbarked?$AA@
CONST	SEGMENT
??_C@_0M@DBDMLICA@SetEmbarked?$AA@ DB 'SetEmbarked', 00H ; `string'
CONST	ENDS
;	COMDAT ??_C@_0L@ENBEBDG@IsEmbarked?$AA@
CONST	SEGMENT
??_C@_0L@ENBEBDG@IsEmbarked?$AA@ DB 'IsEmbarked', 00H	; `string'
CONST	ENDS
;	COMDAT ??_C@_0N@IJIOKHCL@CanAirPatrol?$AA@
CONST	SEGMENT
??_C@_0N@IJIOKHCL@CanAirPatrol?$AA@ DB 'CanAirPatrol', 00H ; `string'
CONST	ENDS
;	COMDAT ??_C@_0L@FNGLNEIC@CanFortify?$AA@
CONST	SEGMENT
??_C@_0L@FNGLNEIC@CanFortify?$AA@ DB 'CanFortify', 00H	; `string'
CONST	ENDS
;	COMDAT ??_C@_08ICCCNEBH@CanSleep?$AA@
CONST	SEGMENT
??_C@_08ICCCNEBH@CanSleep?$AA@ DB 'CanSleep', 00H	; `string'
CONST	ENDS
;	COMDAT ??_C@_07GJGKKENJ@CanHold?$AA@
CONST	SEGMENT
??_C@_07GJGKKENJ@CanHold?$AA@ DB 'CanHold', 00H		; `string'
CONST	ENDS
;	COMDAT ??_C@_0N@HEIIGDEG@CanUnloadAll?$AA@
CONST	SEGMENT
??_C@_0N@HEIIGDEG@CanUnloadAll?$AA@ DB 'CanUnloadAll', 00H ; `string'
CONST	ENDS
;	COMDAT ??_C@_09NDJBNGND@CanUnload?$AA@
CONST	SEGMENT
??_C@_09NDJBNGND@CanUnload?$AA@ DB 'CanUnload', 00H	; `string'
CONST	ENDS
;	COMDAT ??_C@_07JEDCJBEK@CanLoad?$AA@
CONST	SEGMENT
??_C@_07JEDCJBEK@CanLoad?$AA@ DB 'CanLoad', 00H		; `string'
CONST	ENDS
;	COMDAT ??_C@_0M@DFDFOFGE@CanLoadUnit?$AA@
CONST	SEGMENT
??_C@_0M@DFDFOFGE@CanLoadUnit?$AA@ DB 'CanLoadUnit', 00H ; `string'
CONST	ENDS
;	COMDAT ??_C@_0BA@DPDGNGPL@CanDistanceGift?$AA@
CONST	SEGMENT
??_C@_0BA@DPDGNGPL@CanDistanceGift?$AA@ DB 'CanDistanceGift', 00H ; `string'
CONST	ENDS
;	COMDAT ??_C@_07IJAEPLFD@CanGift?$AA@
CONST	SEGMENT
??_C@_07IJAEPLFD@CanGift?$AA@ DB 'CanGift', 00H		; `string'
CONST	ENDS
;	COMDAT ??_C@_0N@PIOOLHFL@GetScrapGold?$AA@
CONST	SEGMENT
??_C@_0N@PIOOLHFL@GetScrapGold?$AA@ DB 'GetScrapGold', 00H ; `string'
CONST	ENDS
;	COMDAT ??_C@_08MKLFIEDM@CanScrap?$AA@
CONST	SEGMENT
??_C@_08MKLFIEDM@CanScrap?$AA@ DB 'CanScrap', 00H	; `string'
CONST	ENDS
;	COMDAT ??_C@_0M@PIDFJMFI@CanAutomate?$AA@
CONST	SEGMENT
??_C@_0M@PIDFJMFI@CanAutomate?$AA@ DB 'CanAutomate', 00H ; `string'
CONST	ENDS
;	COMDAT ??_C@_0BD@GAJIECNL@GetFireSupportUnit?$AA@
CONST	SEGMENT
??_C@_0BD@GAJIECNL@GetFireSupportUnit?$AA@ DB 'GetFireSupportUnit', 00H ; `string'
CONST	ENDS
;	COMDAT ??_C@_0BA@PBKOJKLI@GetCombatDamage?$AA@
CONST	SEGMENT
??_C@_0BA@PBKOJKLI@GetCombatDamage?$AA@ DB 'GetCombatDamage', 00H ; `string'
CONST	ENDS
;	COMDAT ??_C@_0BH@HCNCEPKK@JumpToNearestValidPlot?$AA@
CONST	SEGMENT
??_C@_0BH@HCNCEPKK@JumpToNearestValidPlot?$AA@ DB 'JumpToNearestValidPlot'
	DB	00H						; `string'
CONST	ENDS
;	COMDAT ??_C@_0P@BOMOGPDF@CanMoveThrough?$AA@
CONST	SEGMENT
??_C@_0P@BOMOGPDF@CanMoveThrough?$AA@ DB 'CanMoveThrough', 00H ; `string'
CONST	ENDS
;	COMDAT ??_C@_0BE@BAHEKEJL@CanMoveOrAttackInto?$AA@
CONST	SEGMENT
??_C@_0BE@BAHEKEJL@CanMoveOrAttackInto?$AA@ DB 'CanMoveOrAttackInto', 00H ; `string'
CONST	ENDS
;	COMDAT ??_C@_0BJ@DGAEPIGI@GetDeclareWarRangeStrike?$AA@
CONST	SEGMENT
??_C@_0BJ@DGAEPIGI@GetDeclareWarRangeStrike?$AA@ DB 'GetDeclareWarRangeSt'
	DB	'rike', 00H					; `string'
CONST	ENDS
;	COMDAT ??_C@_0BC@CNEKLHMJ@CanEnterTerritory?$AA@
CONST	SEGMENT
??_C@_0BC@CNEKLHMJ@CanEnterTerritory?$AA@ DB 'CanEnterTerritory', 00H ; `string'
CONST	ENDS
;	COMDAT ??_C@_0N@HCLHBILF@GeneratePath?$AA@
CONST	SEGMENT
??_C@_0N@HCLHBILF@GeneratePath?$AA@ DB 'GeneratePath', 00H ; `string'
CONST	ENDS
;	COMDAT ??_C@_0BD@BDLBDMBH@GetPathEndTurnPlot?$AA@
CONST	SEGMENT
??_C@_0BD@BDLBDMBH@GetPathEndTurnPlot?$AA@ DB 'GetPathEndTurnPlot', 00H ; `string'
CONST	ENDS
;	COMDAT ??_C@_09MHJIPALD@DoCommand?$AA@
CONST	SEGMENT
??_C@_09MHJIPALD@DoCommand?$AA@ DB 'DoCommand', 00H	; `string'
CONST	ENDS
;	COMDAT ??_C@_0N@JKHELOHL@CanDoCommand?$AA@
CONST	SEGMENT
??_C@_0N@JKHELOHL@CanDoCommand?$AA@ DB 'CanDoCommand', 00H ; `string'
CONST	ENDS
;	COMDAT ??_C@_0BF@FAODCLBP@IsBetterDefenderThan?$AA@
CONST	SEGMENT
??_C@_0BF@FAODCLBP@IsBetterDefenderThan?$AA@ DB 'IsBetterDefenderThan', 00H ; `string'
CONST	ENDS
;	COMDAT ??_C@_0BE@OOKFIDHO@IsActionRecommended?$AA@
CONST	SEGMENT
??_C@_0BE@OOKFIDHO@IsActionRecommended?$AA@ DB 'IsActionRecommended', 00H ; `string'
CONST	ENDS
;	COMDAT ??_C@_04NIFFMPNM@Kill?$AA@
CONST	SEGMENT
??_C@_04NIFFMPNM@Kill?$AA@ DB 'Kill', 00H		; `string'
CONST	ENDS
;	COMDAT ??_C@_07BEIDKFCM@Convert?$AA@
CONST	SEGMENT
??_C@_07BEIDKFCM@Convert?$AA@ DB 'Convert', 00H		; `string'
CONST	ENDS
;	COMDAT ??_C@_06OAPDBHPB@IsNone?$AA@
CONST	SEGMENT
??_C@_06OAPDBHPB@IsNone?$AA@ DB 'IsNone', 00H		; `string'
; Function compile flags: /Odtp
CONST	ENDS
;	COMDAT ?PushMethods@CvLuaUnit@@SAXPAUlua_State@@H@Z
_TEXT	SEGMENT
_L$ = 8							; size = 4
_t$ = 12						; size = 4
?PushMethods@CvLuaUnit@@SAXPAUlua_State@@H@Z PROC	; CvLuaUnit::PushMethods, COMDAT

; 30   : {

	push	ebp
	mov	ebp, esp

; 31   : 	Method(IsNone);

	push	0
	push	OFFSET ?lIsNone@CvLuaUnit@@KAHPAUlua_State@@@Z ; CvLuaUnit::lIsNone
	mov	eax, DWORD PTR _L$[ebp]
	push	eax
	call	_lua_pushcclosure
	add	esp, 12					; 0000000cH
	push	OFFSET ??_C@_06OAPDBHPB@IsNone?$AA@
	mov	ecx, DWORD PTR _t$[ebp]
	push	ecx
	mov	edx, DWORD PTR _L$[ebp]
	push	edx
	call	_lua_setfield
	add	esp, 12					; 0000000cH

; 32   : 	Method(Convert);

	push	0
	push	OFFSET ?lConvert@CvLuaUnit@@KAHPAUlua_State@@@Z ; CvLuaUnit::lConvert
	mov	eax, DWORD PTR _L$[ebp]
	push	eax
	call	_lua_pushcclosure
	add	esp, 12					; 0000000cH
	push	OFFSET ??_C@_07BEIDKFCM@Convert?$AA@
	mov	ecx, DWORD PTR _t$[ebp]
	push	ecx
	mov	edx, DWORD PTR _L$[ebp]
	push	edx
	call	_lua_setfield
	add	esp, 12					; 0000000cH

; 33   : 	Method(Kill);

	push	0
	push	OFFSET ?lKill@CvLuaUnit@@KAHPAUlua_State@@@Z ; CvLuaUnit::lKill
	mov	eax, DWORD PTR _L$[ebp]
	push	eax
	call	_lua_pushcclosure
	add	esp, 12					; 0000000cH
	push	OFFSET ??_C@_04NIFFMPNM@Kill?$AA@
	mov	ecx, DWORD PTR _t$[ebp]
	push	ecx
	mov	edx, DWORD PTR _L$[ebp]
	push	edx
	call	_lua_setfield
	add	esp, 12					; 0000000cH

; 34   : 
; 35   : 	Method(IsActionRecommended);

	push	0
	push	OFFSET ?lIsActionRecommended@CvLuaUnit@@KAHPAUlua_State@@@Z ; CvLuaUnit::lIsActionRecommended
	mov	eax, DWORD PTR _L$[ebp]
	push	eax
	call	_lua_pushcclosure
	add	esp, 12					; 0000000cH
	push	OFFSET ??_C@_0BE@OOKFIDHO@IsActionRecommended?$AA@
	mov	ecx, DWORD PTR _t$[ebp]
	push	ecx
	mov	edx, DWORD PTR _L$[ebp]
	push	edx
	call	_lua_setfield
	add	esp, 12					; 0000000cH

; 36   : 	Method(IsBetterDefenderThan);

	push	0
	push	OFFSET ?lIsBetterDefenderThan@CvLuaUnit@@KAHPAUlua_State@@@Z ; CvLuaUnit::lIsBetterDefenderThan
	mov	eax, DWORD PTR _L$[ebp]
	push	eax
	call	_lua_pushcclosure
	add	esp, 12					; 0000000cH
	push	OFFSET ??_C@_0BF@FAODCLBP@IsBetterDefenderThan?$AA@
	mov	ecx, DWORD PTR _t$[ebp]
	push	ecx
	mov	edx, DWORD PTR _L$[ebp]
	push	edx
	call	_lua_setfield
	add	esp, 12					; 0000000cH

; 37   : 
; 38   : 	Method(CanDoCommand);

	push	0
	push	OFFSET ?lCanDoCommand@CvLuaUnit@@KAHPAUlua_State@@@Z ; CvLuaUnit::lCanDoCommand
	mov	eax, DWORD PTR _L$[ebp]
	push	eax
	call	_lua_pushcclosure
	add	esp, 12					; 0000000cH
	push	OFFSET ??_C@_0N@JKHELOHL@CanDoCommand?$AA@
	mov	ecx, DWORD PTR _t$[ebp]
	push	ecx
	mov	edx, DWORD PTR _L$[ebp]
	push	edx
	call	_lua_setfield
	add	esp, 12					; 0000000cH

; 39   : 	Method(DoCommand);

	push	0
	push	OFFSET ?lDoCommand@CvLuaUnit@@KAHPAUlua_State@@@Z ; CvLuaUnit::lDoCommand
	mov	eax, DWORD PTR _L$[ebp]
	push	eax
	call	_lua_pushcclosure
	add	esp, 12					; 0000000cH
	push	OFFSET ??_C@_09MHJIPALD@DoCommand?$AA@
	mov	ecx, DWORD PTR _t$[ebp]
	push	ecx
	mov	edx, DWORD PTR _L$[ebp]
	push	edx
	call	_lua_setfield
	add	esp, 12					; 0000000cH

; 40   : 
; 41   : 	Method(GetPathEndTurnPlot);

	push	0
	push	OFFSET ?lGetPathEndTurnPlot@CvLuaUnit@@KAHPAUlua_State@@@Z ; CvLuaUnit::lGetPathEndTurnPlot
	mov	eax, DWORD PTR _L$[ebp]
	push	eax
	call	_lua_pushcclosure
	add	esp, 12					; 0000000cH
	push	OFFSET ??_C@_0BD@BDLBDMBH@GetPathEndTurnPlot?$AA@
	mov	ecx, DWORD PTR _t$[ebp]
	push	ecx
	mov	edx, DWORD PTR _L$[ebp]
	push	edx
	call	_lua_setfield
	add	esp, 12					; 0000000cH

; 42   : 	Method(GeneratePath);

	push	0
	push	OFFSET ?lGeneratePath@CvLuaUnit@@KAHPAUlua_State@@@Z ; CvLuaUnit::lGeneratePath
	mov	eax, DWORD PTR _L$[ebp]
	push	eax
	call	_lua_pushcclosure
	add	esp, 12					; 0000000cH
	push	OFFSET ??_C@_0N@HCLHBILF@GeneratePath?$AA@
	mov	ecx, DWORD PTR _t$[ebp]
	push	ecx
	mov	edx, DWORD PTR _L$[ebp]
	push	edx
	call	_lua_setfield
	add	esp, 12					; 0000000cH

; 43   : 
; 44   : 	Method(CanEnterTerritory);

	push	0
	push	OFFSET ?lCanEnterTerritory@CvLuaUnit@@KAHPAUlua_State@@@Z ; CvLuaUnit::lCanEnterTerritory
	mov	eax, DWORD PTR _L$[ebp]
	push	eax
	call	_lua_pushcclosure
	add	esp, 12					; 0000000cH
	push	OFFSET ??_C@_0BC@CNEKLHMJ@CanEnterTerritory?$AA@
	mov	ecx, DWORD PTR _t$[ebp]
	push	ecx
	mov	edx, DWORD PTR _L$[ebp]
	push	edx
	call	_lua_setfield
	add	esp, 12					; 0000000cH

; 45   : 	Method(GetDeclareWarRangeStrike);

	push	0
	push	OFFSET ?lGetDeclareWarRangeStrike@CvLuaUnit@@KAHPAUlua_State@@@Z ; CvLuaUnit::lGetDeclareWarRangeStrike
	mov	eax, DWORD PTR _L$[ebp]
	push	eax
	call	_lua_pushcclosure
	add	esp, 12					; 0000000cH
	push	OFFSET ??_C@_0BJ@DGAEPIGI@GetDeclareWarRangeStrike?$AA@
	mov	ecx, DWORD PTR _t$[ebp]
	push	ecx
	mov	edx, DWORD PTR _L$[ebp]
	push	edx
	call	_lua_setfield
	add	esp, 12					; 0000000cH

; 46   : 	Method(CanMoveOrAttackInto);

	push	0
	push	OFFSET ?lCanMoveOrAttackInto@CvLuaUnit@@KAHPAUlua_State@@@Z ; CvLuaUnit::lCanMoveOrAttackInto
	mov	eax, DWORD PTR _L$[ebp]
	push	eax
	call	_lua_pushcclosure
	add	esp, 12					; 0000000cH
	push	OFFSET ??_C@_0BE@BAHEKEJL@CanMoveOrAttackInto?$AA@
	mov	ecx, DWORD PTR _t$[ebp]
	push	ecx
	mov	edx, DWORD PTR _L$[ebp]
	push	edx
	call	_lua_setfield
	add	esp, 12					; 0000000cH

; 47   : 	Method(CanMoveThrough);

	push	0
	push	OFFSET ?lCanMoveThrough@CvLuaUnit@@KAHPAUlua_State@@@Z ; CvLuaUnit::lCanMoveThrough
	mov	eax, DWORD PTR _L$[ebp]
	push	eax
	call	_lua_pushcclosure
	add	esp, 12					; 0000000cH
	push	OFFSET ??_C@_0P@BOMOGPDF@CanMoveThrough?$AA@
	mov	ecx, DWORD PTR _t$[ebp]
	push	ecx
	mov	edx, DWORD PTR _L$[ebp]
	push	edx
	call	_lua_setfield
	add	esp, 12					; 0000000cH

; 48   : 	Method(JumpToNearestValidPlot);

	push	0
	push	OFFSET ?lJumpToNearestValidPlot@CvLuaUnit@@KAHPAUlua_State@@@Z ; CvLuaUnit::lJumpToNearestValidPlot
	mov	eax, DWORD PTR _L$[ebp]
	push	eax
	call	_lua_pushcclosure
	add	esp, 12					; 0000000cH
	push	OFFSET ??_C@_0BH@HCNCEPKK@JumpToNearestValidPlot?$AA@
	mov	ecx, DWORD PTR _t$[ebp]
	push	ecx
	mov	edx, DWORD PTR _L$[ebp]
	push	edx
	call	_lua_setfield
	add	esp, 12					; 0000000cH

; 49   : 
; 50   : 	Method(GetCombatDamage);

	push	0
	push	OFFSET ?lGetCombatDamage@CvLuaUnit@@KAHPAUlua_State@@@Z ; CvLuaUnit::lGetCombatDamage
	mov	eax, DWORD PTR _L$[ebp]
	push	eax
	call	_lua_pushcclosure
	add	esp, 12					; 0000000cH
	push	OFFSET ??_C@_0BA@PBKOJKLI@GetCombatDamage?$AA@
	mov	ecx, DWORD PTR _t$[ebp]
	push	ecx
	mov	edx, DWORD PTR _L$[ebp]
	push	edx
	call	_lua_setfield
	add	esp, 12					; 0000000cH

; 51   : 	Method(GetFireSupportUnit);

	push	0
	push	OFFSET ?lGetFireSupportUnit@CvLuaUnit@@KAHPAUlua_State@@@Z ; CvLuaUnit::lGetFireSupportUnit
	mov	eax, DWORD PTR _L$[ebp]
	push	eax
	call	_lua_pushcclosure
	add	esp, 12					; 0000000cH
	push	OFFSET ??_C@_0BD@GAJIECNL@GetFireSupportUnit?$AA@
	mov	ecx, DWORD PTR _t$[ebp]
	push	ecx
	mov	edx, DWORD PTR _L$[ebp]
	push	edx
	call	_lua_setfield
	add	esp, 12					; 0000000cH

; 52   : 
; 53   : 	Method(CanAutomate);

	push	0
	push	OFFSET ?lCanAutomate@CvLuaUnit@@KAHPAUlua_State@@@Z ; CvLuaUnit::lCanAutomate
	mov	eax, DWORD PTR _L$[ebp]
	push	eax
	call	_lua_pushcclosure
	add	esp, 12					; 0000000cH
	push	OFFSET ??_C@_0M@PIDFJMFI@CanAutomate?$AA@
	mov	ecx, DWORD PTR _t$[ebp]
	push	ecx
	mov	edx, DWORD PTR _L$[ebp]
	push	edx
	call	_lua_setfield
	add	esp, 12					; 0000000cH

; 54   : 	Method(CanScrap);

	push	0
	push	OFFSET ?lCanScrap@CvLuaUnit@@KAHPAUlua_State@@@Z ; CvLuaUnit::lCanScrap
	mov	eax, DWORD PTR _L$[ebp]
	push	eax
	call	_lua_pushcclosure
	add	esp, 12					; 0000000cH
	push	OFFSET ??_C@_08MKLFIEDM@CanScrap?$AA@
	mov	ecx, DWORD PTR _t$[ebp]
	push	ecx
	mov	edx, DWORD PTR _L$[ebp]
	push	edx
	call	_lua_setfield
	add	esp, 12					; 0000000cH

; 55   : 	Method(GetScrapGold);

	push	0
	push	OFFSET ?lGetScrapGold@CvLuaUnit@@KAHPAUlua_State@@@Z ; CvLuaUnit::lGetScrapGold
	mov	eax, DWORD PTR _L$[ebp]
	push	eax
	call	_lua_pushcclosure
	add	esp, 12					; 0000000cH
	push	OFFSET ??_C@_0N@PIOOLHFL@GetScrapGold?$AA@
	mov	ecx, DWORD PTR _t$[ebp]
	push	ecx
	mov	edx, DWORD PTR _L$[ebp]
	push	edx
	call	_lua_setfield
	add	esp, 12					; 0000000cH

; 56   : 	Method(CanGift);

	push	0
	push	OFFSET ?lCanGift@CvLuaUnit@@KAHPAUlua_State@@@Z ; CvLuaUnit::lCanGift
	mov	eax, DWORD PTR _L$[ebp]
	push	eax
	call	_lua_pushcclosure
	add	esp, 12					; 0000000cH
	push	OFFSET ??_C@_07IJAEPLFD@CanGift?$AA@
	mov	ecx, DWORD PTR _t$[ebp]
	push	ecx
	mov	edx, DWORD PTR _L$[ebp]
	push	edx
	call	_lua_setfield
	add	esp, 12					; 0000000cH

; 57   : 	Method(CanDistanceGift);

	push	0
	push	OFFSET ?lCanDistanceGift@CvLuaUnit@@KAHPAUlua_State@@@Z ; CvLuaUnit::lCanDistanceGift
	mov	eax, DWORD PTR _L$[ebp]
	push	eax
	call	_lua_pushcclosure
	add	esp, 12					; 0000000cH
	push	OFFSET ??_C@_0BA@DPDGNGPL@CanDistanceGift?$AA@
	mov	ecx, DWORD PTR _t$[ebp]
	push	ecx
	mov	edx, DWORD PTR _L$[ebp]
	push	edx
	call	_lua_setfield
	add	esp, 12					; 0000000cH

; 58   : 	Method(CanLoadUnit);

	push	0
	push	OFFSET ?lCanLoadUnit@CvLuaUnit@@KAHPAUlua_State@@@Z ; CvLuaUnit::lCanLoadUnit
	mov	eax, DWORD PTR _L$[ebp]
	push	eax
	call	_lua_pushcclosure
	add	esp, 12					; 0000000cH
	push	OFFSET ??_C@_0M@DFDFOFGE@CanLoadUnit?$AA@
	mov	ecx, DWORD PTR _t$[ebp]
	push	ecx
	mov	edx, DWORD PTR _L$[ebp]
	push	edx
	call	_lua_setfield
	add	esp, 12					; 0000000cH

; 59   : 	Method(CanLoad);

	push	0
	push	OFFSET ?lCanLoad@CvLuaUnit@@KAHPAUlua_State@@@Z ; CvLuaUnit::lCanLoad
	mov	eax, DWORD PTR _L$[ebp]
	push	eax
	call	_lua_pushcclosure
	add	esp, 12					; 0000000cH
	push	OFFSET ??_C@_07JEDCJBEK@CanLoad?$AA@
	mov	ecx, DWORD PTR _t$[ebp]
	push	ecx
	mov	edx, DWORD PTR _L$[ebp]
	push	edx
	call	_lua_setfield
	add	esp, 12					; 0000000cH

; 60   : 	Method(CanUnload);

	push	0
	push	OFFSET ?lCanUnload@CvLuaUnit@@KAHPAUlua_State@@@Z ; CvLuaUnit::lCanUnload
	mov	eax, DWORD PTR _L$[ebp]
	push	eax
	call	_lua_pushcclosure
	add	esp, 12					; 0000000cH
	push	OFFSET ??_C@_09NDJBNGND@CanUnload?$AA@
	mov	ecx, DWORD PTR _t$[ebp]
	push	ecx
	mov	edx, DWORD PTR _L$[ebp]
	push	edx
	call	_lua_setfield
	add	esp, 12					; 0000000cH

; 61   : 	Method(CanUnloadAll);

	push	0
	push	OFFSET ?lCanUnloadAll@CvLuaUnit@@KAHPAUlua_State@@@Z ; CvLuaUnit::lCanUnloadAll
	mov	eax, DWORD PTR _L$[ebp]
	push	eax
	call	_lua_pushcclosure
	add	esp, 12					; 0000000cH
	push	OFFSET ??_C@_0N@HEIIGDEG@CanUnloadAll?$AA@
	mov	ecx, DWORD PTR _t$[ebp]
	push	ecx
	mov	edx, DWORD PTR _L$[ebp]
	push	edx
	call	_lua_setfield
	add	esp, 12					; 0000000cH

; 62   : 	Method(CanHold);

	push	0
	push	OFFSET ?lCanHold@CvLuaUnit@@KAHPAUlua_State@@@Z ; CvLuaUnit::lCanHold
	mov	eax, DWORD PTR _L$[ebp]
	push	eax
	call	_lua_pushcclosure
	add	esp, 12					; 0000000cH
	push	OFFSET ??_C@_07GJGKKENJ@CanHold?$AA@
	mov	ecx, DWORD PTR _t$[ebp]
	push	ecx
	mov	edx, DWORD PTR _L$[ebp]
	push	edx
	call	_lua_setfield
	add	esp, 12					; 0000000cH

; 63   : 	Method(CanSleep);

	push	0
	push	OFFSET ?lCanSleep@CvLuaUnit@@KAHPAUlua_State@@@Z ; CvLuaUnit::lCanSleep
	mov	eax, DWORD PTR _L$[ebp]
	push	eax
	call	_lua_pushcclosure
	add	esp, 12					; 0000000cH
	push	OFFSET ??_C@_08ICCCNEBH@CanSleep?$AA@
	mov	ecx, DWORD PTR _t$[ebp]
	push	ecx
	mov	edx, DWORD PTR _L$[ebp]
	push	edx
	call	_lua_setfield
	add	esp, 12					; 0000000cH

; 64   : 	Method(CanFortify);

	push	0
	push	OFFSET ?lCanFortify@CvLuaUnit@@KAHPAUlua_State@@@Z ; CvLuaUnit::lCanFortify
	mov	eax, DWORD PTR _L$[ebp]
	push	eax
	call	_lua_pushcclosure
	add	esp, 12					; 0000000cH
	push	OFFSET ??_C@_0L@FNGLNEIC@CanFortify?$AA@
	mov	ecx, DWORD PTR _t$[ebp]
	push	ecx
	mov	edx, DWORD PTR _L$[ebp]
	push	edx
	call	_lua_setfield
	add	esp, 12					; 0000000cH

; 65   : 	Method(CanAirPatrol);

	push	0
	push	OFFSET ?lCanAirPatrol@CvLuaUnit@@KAHPAUlua_State@@@Z ; CvLuaUnit::lCanAirPatrol
	mov	eax, DWORD PTR _L$[ebp]
	push	eax
	call	_lua_pushcclosure
	add	esp, 12					; 0000000cH
	push	OFFSET ??_C@_0N@IJIOKHCL@CanAirPatrol?$AA@
	mov	ecx, DWORD PTR _t$[ebp]
	push	ecx
	mov	edx, DWORD PTR _L$[ebp]
	push	edx
	call	_lua_setfield
	add	esp, 12					; 0000000cH

; 66   : 	Method(IsEmbarked);

	push	0
	push	OFFSET ?lIsEmbarked@CvLuaUnit@@KAHPAUlua_State@@@Z ; CvLuaUnit::lIsEmbarked
	mov	eax, DWORD PTR _L$[ebp]
	push	eax
	call	_lua_pushcclosure
	add	esp, 12					; 0000000cH
	push	OFFSET ??_C@_0L@ENBEBDG@IsEmbarked?$AA@
	mov	ecx, DWORD PTR _t$[ebp]
	push	ecx
	mov	edx, DWORD PTR _L$[ebp]
	push	edx
	call	_lua_setfield
	add	esp, 12					; 0000000cH

; 67   : 	Method(SetEmbarked);

	push	0
	push	OFFSET ?lSetEmbarked@CvLuaUnit@@KAHPAUlua_State@@@Z ; CvLuaUnit::lSetEmbarked
	mov	eax, DWORD PTR _L$[ebp]
	push	eax
	call	_lua_pushcclosure
	add	esp, 12					; 0000000cH
	push	OFFSET ??_C@_0M@DBDMLICA@SetEmbarked?$AA@
	mov	ecx, DWORD PTR _t$[ebp]
	push	ecx
	mov	edx, DWORD PTR _L$[ebp]
	push	edx
	call	_lua_setfield
	add	esp, 12					; 0000000cH

; 68   : 	Method(CanHeal);

	push	0
	push	OFFSET ?lCanHeal@CvLuaUnit@@KAHPAUlua_State@@@Z ; CvLuaUnit::lCanHeal
	mov	eax, DWORD PTR _L$[ebp]
	push	eax
	call	_lua_pushcclosure
	add	esp, 12					; 0000000cH
	push	OFFSET ??_C@_07MGNGFNOG@CanHeal?$AA@
	mov	ecx, DWORD PTR _t$[ebp]
	push	ecx
	mov	edx, DWORD PTR _L$[ebp]
	push	edx
	call	_lua_setfield
	add	esp, 12					; 0000000cH

; 69   : 	Method(CanSentry);

	push	0
	push	OFFSET ?lCanSentry@CvLuaUnit@@KAHPAUlua_State@@@Z ; CvLuaUnit::lCanSentry
	mov	eax, DWORD PTR _L$[ebp]
	push	eax
	call	_lua_pushcclosure
	add	esp, 12					; 0000000cH
	push	OFFSET ??_C@_09MGFCOBOB@CanSentry?$AA@
	mov	ecx, DWORD PTR _t$[ebp]
	push	ecx
	mov	edx, DWORD PTR _L$[ebp]
	push	edx
	call	_lua_setfield
	add	esp, 12					; 0000000cH

; 70   : 	Method(CanEmbark);

	push	0
	push	OFFSET ?lCanEmbark@CvLuaUnit@@KAHPAUlua_State@@@Z ; CvLuaUnit::lCanEmbark
	mov	eax, DWORD PTR _L$[ebp]
	push	eax
	call	_lua_pushcclosure
	add	esp, 12					; 0000000cH
	push	OFFSET ??_C@_09PEMMPAAH@CanEmbark?$AA@
	mov	ecx, DWORD PTR _t$[ebp]
	push	ecx
	mov	edx, DWORD PTR _L$[ebp]
	push	edx
	call	_lua_setfield
	add	esp, 12					; 0000000cH

; 71   : 	Method(CanDisembark);

	push	0
	push	OFFSET ?lCanDisembark@CvLuaUnit@@KAHPAUlua_State@@@Z ; CvLuaUnit::lCanDisembark
	mov	eax, DWORD PTR _L$[ebp]
	push	eax
	call	_lua_pushcclosure
	add	esp, 12					; 0000000cH
	push	OFFSET ??_C@_0N@NICHBKMI@CanDisembark?$AA@
	mov	ecx, DWORD PTR _t$[ebp]
	push	ecx
	mov	edx, DWORD PTR _L$[ebp]
	push	edx
	call	_lua_setfield
	add	esp, 12					; 0000000cH

; 72   : 	Method(CanEmbarkOnto);

	push	0
	push	OFFSET ?lCanEmbarkOnto@CvLuaUnit@@KAHPAUlua_State@@@Z ; CvLuaUnit::lCanEmbarkOnto
	mov	eax, DWORD PTR _L$[ebp]
	push	eax
	call	_lua_pushcclosure
	add	esp, 12					; 0000000cH
	push	OFFSET ??_C@_0O@EFELBNGC@CanEmbarkOnto?$AA@
	mov	ecx, DWORD PTR _t$[ebp]
	push	ecx
	mov	edx, DWORD PTR _L$[ebp]
	push	edx
	call	_lua_setfield
	add	esp, 12					; 0000000cH

; 73   : 	Method(CanDisembarkOnto);

	push	0
	push	OFFSET ?lCanDisembarkOnto@CvLuaUnit@@KAHPAUlua_State@@@Z ; CvLuaUnit::lCanDisembarkOnto
	mov	eax, DWORD PTR _L$[ebp]
	push	eax
	call	_lua_pushcclosure
	add	esp, 12					; 0000000cH
	push	OFFSET ??_C@_0BB@EAECPAIA@CanDisembarkOnto?$AA@
	mov	ecx, DWORD PTR _t$[ebp]
	push	ecx
	mov	edx, DWORD PTR _L$[ebp]
	push	edx
	call	_lua_setfield
	add	esp, 12					; 0000000cH

; 74   : 	Method(CanRebaseAt);

	push	0
	push	OFFSET ?lCanRebaseAt@CvLuaUnit@@KAHPAUlua_State@@@Z ; CvLuaUnit::lCanRebaseAt
	mov	eax, DWORD PTR _L$[ebp]
	push	eax
	call	_lua_pushcclosure
	add	esp, 12					; 0000000cH
	push	OFFSET ??_C@_0M@OAMKBJM@CanRebaseAt?$AA@
	mov	ecx, DWORD PTR _t$[ebp]
	push	ecx
	mov	edx, DWORD PTR _L$[ebp]
	push	edx
	call	_lua_setfield
	add	esp, 12					; 0000000cH

; 75   : 	Method(Embark);

	push	0
	push	OFFSET ?lEmbark@CvLuaUnit@@KAHPAUlua_State@@@Z ; CvLuaUnit::lEmbark
	mov	eax, DWORD PTR _L$[ebp]
	push	eax
	call	_lua_pushcclosure
	add	esp, 12					; 0000000cH
	push	OFFSET ??_C@_06HBNONMMC@Embark?$AA@
	mov	ecx, DWORD PTR _t$[ebp]
	push	ecx
	mov	edx, DWORD PTR _L$[ebp]
	push	edx
	call	_lua_setfield
	add	esp, 12					; 0000000cH

; 76   : 
; 77   : 	Method(IsRangeAttackIgnoreLOS);

	push	0
	push	OFFSET ?lIsRangeAttackIgnoreLOS@CvLuaUnit@@KAHPAUlua_State@@@Z ; CvLuaUnit::lIsRangeAttackIgnoreLOS
	mov	eax, DWORD PTR _L$[ebp]
	push	eax
	call	_lua_pushcclosure
	add	esp, 12					; 0000000cH
	push	OFFSET ??_C@_0BH@GAMNCMGE@IsRangeAttackIgnoreLOS?$AA@
	mov	ecx, DWORD PTR _t$[ebp]
	push	ecx
	mov	edx, DWORD PTR _L$[ebp]
	push	edx
	call	_lua_setfield
	add	esp, 12					; 0000000cH

; 78   : 
; 79   : 	Method(CanAirlift);

	push	0
	push	OFFSET ?lCanAirlift@CvLuaUnit@@KAHPAUlua_State@@@Z ; CvLuaUnit::lCanAirlift
	mov	eax, DWORD PTR _L$[ebp]
	push	eax
	call	_lua_pushcclosure
	add	esp, 12					; 0000000cH
	push	OFFSET ??_C@_0L@NBEAEKKP@CanAirlift?$AA@
	mov	ecx, DWORD PTR _t$[ebp]
	push	ecx
	mov	edx, DWORD PTR _L$[ebp]
	push	edx
	call	_lua_setfield
	add	esp, 12					; 0000000cH

; 80   : 	Method(CanAirliftAt);

	push	0
	push	OFFSET ?lCanAirliftAt@CvLuaUnit@@KAHPAUlua_State@@@Z ; CvLuaUnit::lCanAirliftAt
	mov	eax, DWORD PTR _L$[ebp]
	push	eax
	call	_lua_pushcclosure
	add	esp, 12					; 0000000cH
	push	OFFSET ??_C@_0N@IFJNICON@CanAirliftAt?$AA@
	mov	ecx, DWORD PTR _t$[ebp]
	push	ecx
	mov	edx, DWORD PTR _L$[ebp]
	push	edx
	call	_lua_setfield
	add	esp, 12					; 0000000cH

; 81   : 
; 82   : 	Method(IsNukeVictim);

	push	0
	push	OFFSET ?lIsNukeVictim@CvLuaUnit@@KAHPAUlua_State@@@Z ; CvLuaUnit::lIsNukeVictim
	mov	eax, DWORD PTR _L$[ebp]
	push	eax
	call	_lua_pushcclosure
	add	esp, 12					; 0000000cH
	push	OFFSET ??_C@_0N@IJEAOBKF@IsNukeVictim?$AA@
	mov	ecx, DWORD PTR _t$[ebp]
	push	ecx
	mov	edx, DWORD PTR _L$[ebp]
	push	edx
	call	_lua_setfield
	add	esp, 12					; 0000000cH

; 83   : 	Method(CanNuke);

	push	0
	push	OFFSET ?lCanNuke@CvLuaUnit@@KAHPAUlua_State@@@Z ; CvLuaUnit::lCanNuke
	mov	eax, DWORD PTR _L$[ebp]
	push	eax
	call	_lua_pushcclosure
	add	esp, 12					; 0000000cH
	push	OFFSET ??_C@_07MFNKMBEG@CanNuke?$AA@
	mov	ecx, DWORD PTR _t$[ebp]
	push	ecx
	mov	edx, DWORD PTR _L$[ebp]
	push	edx
	call	_lua_setfield
	add	esp, 12					; 0000000cH

; 84   : 	Method(CanNukeAt);

	push	0
	push	OFFSET ?lCanNukeAt@CvLuaUnit@@KAHPAUlua_State@@@Z ; CvLuaUnit::lCanNukeAt
	mov	eax, DWORD PTR _L$[ebp]
	push	eax
	call	_lua_pushcclosure
	add	esp, 12					; 0000000cH
	push	OFFSET ??_C@_09HAELIEHK@CanNukeAt?$AA@
	mov	ecx, DWORD PTR _t$[ebp]
	push	ecx
	mov	edx, DWORD PTR _L$[ebp]
	push	edx
	call	_lua_setfield
	add	esp, 12					; 0000000cH

; 85   : 
; 86   : 	Method(CanRangeStrike);

	push	0
	push	OFFSET ?lCanRangeStrike@CvLuaUnit@@KAHPAUlua_State@@@Z ; CvLuaUnit::lCanRangeStrike
	mov	eax, DWORD PTR _L$[ebp]
	push	eax
	call	_lua_pushcclosure
	add	esp, 12					; 0000000cH
	push	OFFSET ??_C@_0P@CDOKKCEP@CanRangeStrike?$AA@
	mov	ecx, DWORD PTR _t$[ebp]
	push	ecx
	mov	edx, DWORD PTR _L$[ebp]
	push	edx
	call	_lua_setfield
	add	esp, 12					; 0000000cH

; 87   : 	Method(CanRangeStrikeAt);

	push	0
	push	OFFSET ?lCanRangeStrikeAt@CvLuaUnit@@KAHPAUlua_State@@@Z ; CvLuaUnit::lCanRangeStrikeAt
	mov	eax, DWORD PTR _L$[ebp]
	push	eax
	call	_lua_pushcclosure
	add	esp, 12					; 0000000cH
	push	OFFSET ??_C@_0BB@HFDCOJOB@CanRangeStrikeAt?$AA@
	mov	ecx, DWORD PTR _t$[ebp]
	push	ecx
	mov	edx, DWORD PTR _L$[ebp]
	push	edx
	call	_lua_setfield
	add	esp, 12					; 0000000cH

; 88   : #ifdef DEL_RANGED_COUNTERATTACKS
; 89   : 	Method(CanEverRangeStrikeAt);
; 90   : 	Method(PlotValid);
; 91   : #endif
; 92   : 
; 93   : 	Method(CanParadrop);

	push	0
	push	OFFSET ?lCanParadrop@CvLuaUnit@@KAHPAUlua_State@@@Z ; CvLuaUnit::lCanParadrop
	mov	eax, DWORD PTR _L$[ebp]
	push	eax
	call	_lua_pushcclosure
	add	esp, 12					; 0000000cH
	push	OFFSET ??_C@_0M@IKNPJBHE@CanParadrop?$AA@
	mov	ecx, DWORD PTR _t$[ebp]
	push	ecx
	mov	edx, DWORD PTR _L$[ebp]
	push	edx
	call	_lua_setfield
	add	esp, 12					; 0000000cH

; 94   : 	Method(CanParadropAt);

	push	0
	push	OFFSET ?lCanParadropAt@CvLuaUnit@@KAHPAUlua_State@@@Z ; CvLuaUnit::lCanParadropAt
	mov	eax, DWORD PTR _L$[ebp]
	push	eax
	call	_lua_pushcclosure
	add	esp, 12					; 0000000cH
	push	OFFSET ??_C@_0O@PGFAMOPK@CanParadropAt?$AA@
	mov	ecx, DWORD PTR _t$[ebp]
	push	ecx
	mov	edx, DWORD PTR _L$[ebp]
	push	edx
	call	_lua_setfield
	add	esp, 12					; 0000000cH

; 95   : 
; 96   : 	Method(CanMakeTradeRoute);

	push	0
	push	OFFSET ?lCanMakeTradeRoute@CvLuaUnit@@KAHPAUlua_State@@@Z ; CvLuaUnit::lCanMakeTradeRoute
	mov	eax, DWORD PTR _L$[ebp]
	push	eax
	call	_lua_pushcclosure
	add	esp, 12					; 0000000cH
	push	OFFSET ??_C@_0BC@OKNIIGFN@CanMakeTradeRoute?$AA@
	mov	ecx, DWORD PTR _t$[ebp]
	push	ecx
	mov	edx, DWORD PTR _L$[ebp]
	push	edx
	call	_lua_setfield
	add	esp, 12					; 0000000cH

; 97   : 	Method(CanMakeTradeRouteAt);

	push	0
	push	OFFSET ?lCanMakeTradeRouteAt@CvLuaUnit@@KAHPAUlua_State@@@Z ; CvLuaUnit::lCanMakeTradeRouteAt
	mov	eax, DWORD PTR _L$[ebp]
	push	eax
	call	_lua_pushcclosure
	add	esp, 12					; 0000000cH
	push	OFFSET ??_C@_0BE@DBMFLENB@CanMakeTradeRouteAt?$AA@
	mov	ecx, DWORD PTR _t$[ebp]
	push	ecx
	mov	edx, DWORD PTR _L$[ebp]
	push	edx
	call	_lua_setfield
	add	esp, 12					; 0000000cH

; 98   : 
; 99   : 	Method(GetExoticGoodsGoldAmount);

	push	0
	push	OFFSET ?lGetExoticGoodsGoldAmount@CvLuaUnit@@KAHPAUlua_State@@@Z ; CvLuaUnit::lGetExoticGoodsGoldAmount
	mov	eax, DWORD PTR _L$[ebp]
	push	eax
	call	_lua_pushcclosure
	add	esp, 12					; 0000000cH
	push	OFFSET ??_C@_0BJ@IPBHFLKL@GetExoticGoodsGoldAmount?$AA@
	mov	ecx, DWORD PTR _t$[ebp]
	push	ecx
	mov	edx, DWORD PTR _L$[ebp]
	push	edx
	call	_lua_setfield
	add	esp, 12					; 0000000cH

; 100  : 	Method(GetExoticGoodsXPAmount);

	push	0
	push	OFFSET ?lGetExoticGoodsXPAmount@CvLuaUnit@@KAHPAUlua_State@@@Z ; CvLuaUnit::lGetExoticGoodsXPAmount
	mov	eax, DWORD PTR _L$[ebp]
	push	eax
	call	_lua_pushcclosure
	add	esp, 12					; 0000000cH
	push	OFFSET ??_C@_0BH@DNENGFGL@GetExoticGoodsXPAmount?$AA@
	mov	ecx, DWORD PTR _t$[ebp]
	push	ecx
	mov	edx, DWORD PTR _L$[ebp]
	push	edx
	call	_lua_setfield
	add	esp, 12					; 0000000cH

; 101  : 
; 102  : 	Method(CanPillage);

	push	0
	push	OFFSET ?lCanPillage@CvLuaUnit@@KAHPAUlua_State@@@Z ; CvLuaUnit::lCanPillage
	mov	eax, DWORD PTR _L$[ebp]
	push	eax
	call	_lua_pushcclosure
	add	esp, 12					; 0000000cH
	push	OFFSET ??_C@_0L@MPCCHJDJ@CanPillage?$AA@
	mov	ecx, DWORD PTR _t$[ebp]
	push	ecx
	mov	edx, DWORD PTR _L$[ebp]
	push	edx
	call	_lua_setfield
	add	esp, 12					; 0000000cH

; 103  : 
; 104  : 	Method(IsSelected);

	push	0
	push	OFFSET ?lIsSelected@CvLuaUnit@@KAHPAUlua_State@@@Z ; CvLuaUnit::lIsSelected
	mov	eax, DWORD PTR _L$[ebp]
	push	eax
	call	_lua_pushcclosure
	add	esp, 12					; 0000000cH
	push	OFFSET ??_C@_0L@JGLKKBMI@IsSelected?$AA@
	mov	ecx, DWORD PTR _t$[ebp]
	push	ecx
	mov	edx, DWORD PTR _L$[ebp]
	push	edx
	call	_lua_setfield
	add	esp, 12					; 0000000cH

; 105  : 
; 106  : 	Method(CanFound);

	push	0
	push	OFFSET ?lCanFound@CvLuaUnit@@KAHPAUlua_State@@@Z ; CvLuaUnit::lCanFound
	mov	eax, DWORD PTR _L$[ebp]
	push	eax
	call	_lua_pushcclosure
	add	esp, 12					; 0000000cH
	push	OFFSET ??_C@_08OEHLFCME@CanFound?$AA@
	mov	ecx, DWORD PTR _t$[ebp]
	push	ecx
	mov	edx, DWORD PTR _L$[ebp]
	push	edx
	call	_lua_setfield
	add	esp, 12					; 0000000cH

; 107  : 	Method(CanJoin);

	push	0
	push	OFFSET ?lCanJoin@CvLuaUnit@@KAHPAUlua_State@@@Z ; CvLuaUnit::lCanJoin
	mov	eax, DWORD PTR _L$[ebp]
	push	eax
	call	_lua_pushcclosure
	add	esp, 12					; 0000000cH
	push	OFFSET ??_C@_07OPIONNNI@CanJoin?$AA@
	mov	ecx, DWORD PTR _t$[ebp]
	push	ecx
	mov	edx, DWORD PTR _L$[ebp]
	push	edx
	call	_lua_setfield
	add	esp, 12					; 0000000cH

; 108  : 	Method(CanConstruct);

	push	0
	push	OFFSET ?lCanConstruct@CvLuaUnit@@KAHPAUlua_State@@@Z ; CvLuaUnit::lCanConstruct
	mov	eax, DWORD PTR _L$[ebp]
	push	eax
	call	_lua_pushcclosure
	add	esp, 12					; 0000000cH
	push	OFFSET ??_C@_0N@OBKNDGPF@CanConstruct?$AA@
	mov	ecx, DWORD PTR _t$[ebp]
	push	ecx
	mov	edx, DWORD PTR _L$[ebp]
	push	edx
	call	_lua_setfield
	add	esp, 12					; 0000000cH

; 109  : 
; 110  : 	Method(CanDiscover);

	push	0
	push	OFFSET ?lCanDiscover@CvLuaUnit@@KAHPAUlua_State@@@Z ; CvLuaUnit::lCanDiscover
	mov	eax, DWORD PTR _L$[ebp]
	push	eax
	call	_lua_pushcclosure
	add	esp, 12					; 0000000cH
	push	OFFSET ??_C@_0M@IELKHCBB@CanDiscover?$AA@
	mov	ecx, DWORD PTR _t$[ebp]
	push	ecx
	mov	edx, DWORD PTR _L$[ebp]
	push	edx
	call	_lua_setfield
	add	esp, 12					; 0000000cH

; 111  : 	Method(GetDiscoverAmount);

	push	0
	push	OFFSET ?lGetDiscoverAmount@CvLuaUnit@@KAHPAUlua_State@@@Z ; CvLuaUnit::lGetDiscoverAmount
	mov	eax, DWORD PTR _L$[ebp]
	push	eax
	call	_lua_pushcclosure
	add	esp, 12					; 0000000cH
	push	OFFSET ??_C@_0BC@KNNAIDOL@GetDiscoverAmount?$AA@
	mov	ecx, DWORD PTR _t$[ebp]
	push	ecx
	mov	edx, DWORD PTR _L$[ebp]
	push	edx
	call	_lua_setfield
	add	esp, 12					; 0000000cH

; 112  : 	Method(GetHurryProduction);

	push	0
	push	OFFSET ?lGetHurryProduction@CvLuaUnit@@KAHPAUlua_State@@@Z ; CvLuaUnit::lGetHurryProduction
	mov	eax, DWORD PTR _L$[ebp]
	push	eax
	call	_lua_pushcclosure
	add	esp, 12					; 0000000cH
	push	OFFSET ??_C@_0BD@KJHAMHFH@GetHurryProduction?$AA@
	mov	ecx, DWORD PTR _t$[ebp]
	push	ecx
	mov	edx, DWORD PTR _L$[ebp]
	push	edx
	call	_lua_setfield
	add	esp, 12					; 0000000cH

; 113  : 	Method(GetTradeGold);

	push	0
	push	OFFSET ?lGetTradeGold@CvLuaUnit@@KAHPAUlua_State@@@Z ; CvLuaUnit::lGetTradeGold
	mov	eax, DWORD PTR _L$[ebp]
	push	eax
	call	_lua_pushcclosure
	add	esp, 12					; 0000000cH
	push	OFFSET ??_C@_0N@FCJOHAFH@GetTradeGold?$AA@
	mov	ecx, DWORD PTR _t$[ebp]
	push	ecx
	mov	edx, DWORD PTR _L$[ebp]
	push	edx
	call	_lua_setfield
	add	esp, 12					; 0000000cH

; 114  : 	Method(GetTradeInfluence);

	push	0
	push	OFFSET ?lGetTradeInfluence@CvLuaUnit@@KAHPAUlua_State@@@Z ; CvLuaUnit::lGetTradeInfluence
	mov	eax, DWORD PTR _L$[ebp]
	push	eax
	call	_lua_pushcclosure
	add	esp, 12					; 0000000cH
	push	OFFSET ??_C@_0BC@LGEOGBNA@GetTradeInfluence?$AA@
	mov	ecx, DWORD PTR _t$[ebp]
	push	ecx
	mov	edx, DWORD PTR _L$[ebp]
	push	edx
	call	_lua_setfield
	add	esp, 12					; 0000000cH

; 115  : 	Method(CanTrade);

	push	0
	push	OFFSET ?lCanTrade@CvLuaUnit@@KAHPAUlua_State@@@Z ; CvLuaUnit::lCanTrade
	mov	eax, DWORD PTR _L$[ebp]
	push	eax
	call	_lua_pushcclosure
	add	esp, 12					; 0000000cH
	push	OFFSET ??_C@_08PJOCNGDI@CanTrade?$AA@
	mov	ecx, DWORD PTR _t$[ebp]
	push	ecx
	mov	edx, DWORD PTR _L$[ebp]
	push	edx
	call	_lua_setfield
	add	esp, 12					; 0000000cH

; 116  : 	Method(CanBuyCityState);

	push	0
	push	OFFSET ?lCanBuyCityState@CvLuaUnit@@KAHPAUlua_State@@@Z ; CvLuaUnit::lCanBuyCityState
	mov	eax, DWORD PTR _L$[ebp]
	push	eax
	call	_lua_pushcclosure
	add	esp, 12					; 0000000cH
	push	OFFSET ??_C@_0BA@NGCBHOOC@CanBuyCityState?$AA@
	mov	ecx, DWORD PTR _t$[ebp]
	push	ecx
	mov	edx, DWORD PTR _L$[ebp]
	push	edx
	call	_lua_setfield
	add	esp, 12					; 0000000cH

; 117  : 	Method(CanRepairFleet);

	push	0
	push	OFFSET ?lCanRepairFleet@CvLuaUnit@@KAHPAUlua_State@@@Z ; CvLuaUnit::lCanRepairFleet
	mov	eax, DWORD PTR _L$[ebp]
	push	eax
	call	_lua_pushcclosure
	add	esp, 12					; 0000000cH
	push	OFFSET ??_C@_0P@GCNIAAJM@CanRepairFleet?$AA@
	mov	ecx, DWORD PTR _t$[ebp]
	push	ecx
	mov	edx, DWORD PTR _L$[ebp]
	push	edx
	call	_lua_setfield
	add	esp, 12					; 0000000cH

; 118  : 	Method(CanBuildSpaceship);

	push	0
	push	OFFSET ?lCanBuildSpaceship@CvLuaUnit@@KAHPAUlua_State@@@Z ; CvLuaUnit::lCanBuildSpaceship
	mov	eax, DWORD PTR _L$[ebp]
	push	eax
	call	_lua_pushcclosure
	add	esp, 12					; 0000000cH
	push	OFFSET ??_C@_0BC@BJJCCDBA@CanBuildSpaceship?$AA@
	mov	ecx, DWORD PTR _t$[ebp]
	push	ecx
	mov	edx, DWORD PTR _L$[ebp]
	push	edx
	call	_lua_setfield
	add	esp, 12					; 0000000cH

; 119  : 
; 120  : 	Method(CanGoldenAge);

	push	0
	push	OFFSET ?lCanGoldenAge@CvLuaUnit@@KAHPAUlua_State@@@Z ; CvLuaUnit::lCanGoldenAge
	mov	eax, DWORD PTR _L$[ebp]
	push	eax
	call	_lua_pushcclosure
	add	esp, 12					; 0000000cH
	push	OFFSET ??_C@_0N@EOBJHMDF@CanGoldenAge?$AA@
	mov	ecx, DWORD PTR _t$[ebp]
	push	ecx
	mov	edx, DWORD PTR _L$[ebp]
	push	edx
	call	_lua_setfield
	add	esp, 12					; 0000000cH

; 121  : 	Method(GetGoldenAgeTurns);

	push	0
	push	OFFSET ?lGetGoldenAgeTurns@CvLuaUnit@@KAHPAUlua_State@@@Z ; CvLuaUnit::lGetGoldenAgeTurns
	mov	eax, DWORD PTR _L$[ebp]
	push	eax
	call	_lua_pushcclosure
	add	esp, 12					; 0000000cH
	push	OFFSET ??_C@_0BC@HOFBCHIL@GetGoldenAgeTurns?$AA@
	mov	ecx, DWORD PTR _t$[ebp]
	push	ecx
	mov	edx, DWORD PTR _L$[ebp]
	push	edx
	call	_lua_setfield
	add	esp, 12					; 0000000cH

; 122  : 	Method(GetGivePoliciesCulture);

	push	0
	push	OFFSET ?lGetGivePoliciesCulture@CvLuaUnit@@KAHPAUlua_State@@@Z ; CvLuaUnit::lGetGivePoliciesCulture
	mov	eax, DWORD PTR _L$[ebp]
	push	eax
	call	_lua_pushcclosure
	add	esp, 12					; 0000000cH
	push	OFFSET ??_C@_0BH@OOEAJGKD@GetGivePoliciesCulture?$AA@
	mov	ecx, DWORD PTR _t$[ebp]
	push	ecx
	mov	edx, DWORD PTR _L$[ebp]
	push	edx
	call	_lua_setfield
	add	esp, 12					; 0000000cH

; 123  : 	Method(GetBlastTourism);

	push	0
	push	OFFSET ?lGetBlastTourism@CvLuaUnit@@KAHPAUlua_State@@@Z ; CvLuaUnit::lGetBlastTourism
	mov	eax, DWORD PTR _L$[ebp]
	push	eax
	call	_lua_pushcclosure
	add	esp, 12					; 0000000cH
	push	OFFSET ??_C@_0BA@CHPOAIEH@GetBlastTourism?$AA@
	mov	ecx, DWORD PTR _t$[ebp]
	push	ecx
	mov	edx, DWORD PTR _L$[ebp]
	push	edx
	call	_lua_setfield
	add	esp, 12					; 0000000cH

; 124  : 	Method(CanBuild);

	push	0
	push	OFFSET ?lCanBuild@CvLuaUnit@@KAHPAUlua_State@@@Z ; CvLuaUnit::lCanBuild
	mov	eax, DWORD PTR _L$[ebp]
	push	eax
	call	_lua_pushcclosure
	add	esp, 12					; 0000000cH
	push	OFFSET ??_C@_08EMPBKDLI@CanBuild?$AA@
	mov	ecx, DWORD PTR _t$[ebp]
	push	ecx
	mov	edx, DWORD PTR _L$[ebp]
	push	edx
	call	_lua_setfield
	add	esp, 12					; 0000000cH

; 125  : 	Method(CanLead);

	push	0
	push	OFFSET ?lCanLead@CvLuaUnit@@KAHPAUlua_State@@@Z ; CvLuaUnit::lCanLead
	mov	eax, DWORD PTR _L$[ebp]
	push	eax
	call	_lua_pushcclosure
	add	esp, 12					; 0000000cH
	push	OFFSET ??_C@_07PLIPHBCO@CanLead?$AA@
	mov	ecx, DWORD PTR _t$[ebp]
	push	ecx
	mov	edx, DWORD PTR _L$[ebp]
	push	edx
	call	_lua_setfield
	add	esp, 12					; 0000000cH

; 126  : 	Method(Lead);

	push	0
	push	OFFSET ?lLead@CvLuaUnit@@KAHPAUlua_State@@@Z ; CvLuaUnit::lLead
	mov	eax, DWORD PTR _L$[ebp]
	push	eax
	call	_lua_pushcclosure
	add	esp, 12					; 0000000cH
	push	OFFSET ??_C@_04OAKCLFCP@Lead?$AA@
	mov	ecx, DWORD PTR _t$[ebp]
	push	ecx
	mov	edx, DWORD PTR _L$[ebp]
	push	edx
	call	_lua_setfield
	add	esp, 12					; 0000000cH

; 127  : 	Method(CanGiveExperience);

	push	0
	push	OFFSET ?lCanGiveExperience@CvLuaUnit@@KAHPAUlua_State@@@Z ; CvLuaUnit::lCanGiveExperience
	mov	eax, DWORD PTR _L$[ebp]
	push	eax
	call	_lua_pushcclosure
	add	esp, 12					; 0000000cH
	push	OFFSET ??_C@_0BC@FKOLNGFD@CanGiveExperience?$AA@
	mov	ecx, DWORD PTR _t$[ebp]
	push	ecx
	mov	edx, DWORD PTR _L$[ebp]
	push	edx
	call	_lua_setfield
	add	esp, 12					; 0000000cH

; 128  : 	Method(GiveExperience);

	push	0
	push	OFFSET ?lGiveExperience@CvLuaUnit@@KAHPAUlua_State@@@Z ; CvLuaUnit::lGiveExperience
	mov	eax, DWORD PTR _L$[ebp]
	push	eax
	call	_lua_pushcclosure
	add	esp, 12					; 0000000cH
	push	OFFSET ??_C@_0P@FHKIFAJK@GiveExperience?$AA@
	mov	ecx, DWORD PTR _t$[ebp]
	push	ecx
	mov	edx, DWORD PTR _L$[ebp]
	push	edx
	call	_lua_setfield
	add	esp, 12					; 0000000cH

; 129  : 
; 130  : 	Method(CanPromote);

	push	0
	push	OFFSET ?lCanPromote@CvLuaUnit@@KAHPAUlua_State@@@Z ; CvLuaUnit::lCanPromote
	mov	eax, DWORD PTR _L$[ebp]
	push	eax
	call	_lua_pushcclosure
	add	esp, 12					; 0000000cH
	push	OFFSET ??_C@_0L@OPLAIAAJ@CanPromote?$AA@
	mov	ecx, DWORD PTR _t$[ebp]
	push	ecx
	mov	edx, DWORD PTR _L$[ebp]
	push	edx
	call	_lua_setfield
	add	esp, 12					; 0000000cH

; 131  : 	Method(Promote);

	push	0
	push	OFFSET ?lPromote@CvLuaUnit@@KAHPAUlua_State@@@Z ; CvLuaUnit::lPromote
	mov	eax, DWORD PTR _L$[ebp]
	push	eax
	call	_lua_pushcclosure
	add	esp, 12					; 0000000cH
	push	OFFSET ??_C@_07EDLKEBK@Promote?$AA@
	mov	ecx, DWORD PTR _t$[ebp]
	push	ecx
	mov	edx, DWORD PTR _L$[ebp]
	push	edx
	call	_lua_setfield
	add	esp, 12					; 0000000cH

; 132  : 
; 133  : 	Method(GetUpgradeUnitType);

	push	0
	push	OFFSET ?lGetUpgradeUnitType@CvLuaUnit@@KAHPAUlua_State@@@Z ; CvLuaUnit::lGetUpgradeUnitType
	mov	eax, DWORD PTR _L$[ebp]
	push	eax
	call	_lua_pushcclosure
	add	esp, 12					; 0000000cH
	push	OFFSET ??_C@_0BD@DBHKLJBH@GetUpgradeUnitType?$AA@
	mov	ecx, DWORD PTR _t$[ebp]
	push	ecx
	mov	edx, DWORD PTR _L$[ebp]
	push	edx
	call	_lua_setfield
	add	esp, 12					; 0000000cH

; 134  : 	Method(UpgradePrice);

	push	0
	push	OFFSET ?lUpgradePrice@CvLuaUnit@@KAHPAUlua_State@@@Z ; CvLuaUnit::lUpgradePrice
	mov	eax, DWORD PTR _L$[ebp]
	push	eax
	call	_lua_pushcclosure
	add	esp, 12					; 0000000cH
	push	OFFSET ??_C@_0N@BGKJNLFL@UpgradePrice?$AA@
	mov	ecx, DWORD PTR _t$[ebp]
	push	ecx
	mov	edx, DWORD PTR _L$[ebp]
	push	edx
	call	_lua_setfield
	add	esp, 12					; 0000000cH

; 135  : 	Method(CanUpgradeRightNow);

	push	0
	push	OFFSET ?lCanUpgradeRightNow@CvLuaUnit@@KAHPAUlua_State@@@Z ; CvLuaUnit::lCanUpgradeRightNow
	mov	eax, DWORD PTR _L$[ebp]
	push	eax
	call	_lua_pushcclosure
	add	esp, 12					; 0000000cH
	push	OFFSET ??_C@_0BD@HPPLIDDI@CanUpgradeRightNow?$AA@
	mov	ecx, DWORD PTR _t$[ebp]
	push	ecx
	mov	edx, DWORD PTR _L$[ebp]
	push	edx
	call	_lua_setfield
	add	esp, 12					; 0000000cH

; 136  : 	Method(GetNumResourceNeededToUpgrade);

	push	0
	push	OFFSET ?lGetNumResourceNeededToUpgrade@CvLuaUnit@@KAHPAUlua_State@@@Z ; CvLuaUnit::lGetNumResourceNeededToUpgrade
	mov	eax, DWORD PTR _L$[ebp]
	push	eax
	call	_lua_pushcclosure
	add	esp, 12					; 0000000cH
	push	OFFSET ??_C@_0BO@ODALBDFM@GetNumResourceNeededToUpgrade?$AA@
	mov	ecx, DWORD PTR _t$[ebp]
	push	ecx
	mov	edx, DWORD PTR _L$[ebp]
	push	edx
	call	_lua_setfield
	add	esp, 12					; 0000000cH

; 137  : 
; 138  : 	Method(GetHandicapType);

	push	0
	push	OFFSET ?lGetHandicapType@CvLuaUnit@@KAHPAUlua_State@@@Z ; CvLuaUnit::lGetHandicapType
	mov	eax, DWORD PTR _L$[ebp]
	push	eax
	call	_lua_pushcclosure
	add	esp, 12					; 0000000cH
	push	OFFSET ??_C@_0BA@NDPGKNBO@GetHandicapType?$AA@
	mov	ecx, DWORD PTR _t$[ebp]
	push	ecx
	mov	edx, DWORD PTR _L$[ebp]
	push	edx
	call	_lua_setfield
	add	esp, 12					; 0000000cH

; 139  : 	Method(GetCivilizationType);

	push	0
	push	OFFSET ?lGetCivilizationType@CvLuaUnit@@KAHPAUlua_State@@@Z ; CvLuaUnit::lGetCivilizationType
	mov	eax, DWORD PTR _L$[ebp]
	push	eax
	call	_lua_pushcclosure
	add	esp, 12					; 0000000cH
	push	OFFSET ??_C@_0BE@OGLFKPOE@GetCivilizationType?$AA@
	mov	ecx, DWORD PTR _t$[ebp]
	push	ecx
	mov	edx, DWORD PTR _L$[ebp]
	push	edx
	call	_lua_setfield
	add	esp, 12					; 0000000cH

; 140  : 	Method(GetSpecialUnitType);

	push	0
	push	OFFSET ?lGetSpecialUnitType@CvLuaUnit@@KAHPAUlua_State@@@Z ; CvLuaUnit::lGetSpecialUnitType
	mov	eax, DWORD PTR _L$[ebp]
	push	eax
	call	_lua_pushcclosure
	add	esp, 12					; 0000000cH
	push	OFFSET ??_C@_0BD@GBFKJKHH@GetSpecialUnitType?$AA@
	mov	ecx, DWORD PTR _t$[ebp]
	push	ecx
	mov	edx, DWORD PTR _L$[ebp]
	push	edx
	call	_lua_setfield
	add	esp, 12					; 0000000cH

; 141  : 	Method(GetCaptureUnitType);

	push	0
	push	OFFSET ?lGetCaptureUnitType@CvLuaUnit@@KAHPAUlua_State@@@Z ; CvLuaUnit::lGetCaptureUnitType
	mov	eax, DWORD PTR _L$[ebp]
	push	eax
	call	_lua_pushcclosure
	add	esp, 12					; 0000000cH
	push	OFFSET ??_C@_0BD@JDJCDLLA@GetCaptureUnitType?$AA@
	mov	ecx, DWORD PTR _t$[ebp]
	push	ecx
	mov	edx, DWORD PTR _L$[ebp]
	push	edx
	call	_lua_setfield
	add	esp, 12					; 0000000cH

; 142  : 	Method(GetUnitCombatType);

	push	0
	push	OFFSET ?lGetUnitCombatType@CvLuaUnit@@KAHPAUlua_State@@@Z ; CvLuaUnit::lGetUnitCombatType
	mov	eax, DWORD PTR _L$[ebp]
	push	eax
	call	_lua_pushcclosure
	add	esp, 12					; 0000000cH
	push	OFFSET ??_C@_0BC@GBCAHMII@GetUnitCombatType?$AA@
	mov	ecx, DWORD PTR _t$[ebp]
	push	ecx
	mov	edx, DWORD PTR _L$[ebp]
	push	edx
	call	_lua_setfield
	add	esp, 12					; 0000000cH

; 143  : 	Method(GetUnitAIType);

	push	0
	push	OFFSET ?lGetUnitAIType@CvLuaUnit@@KAHPAUlua_State@@@Z ; CvLuaUnit::lGetUnitAIType
	mov	eax, DWORD PTR _L$[ebp]
	push	eax
	call	_lua_pushcclosure
	add	esp, 12					; 0000000cH
	push	OFFSET ??_C@_0O@HNEJLBDJ@GetUnitAIType?$AA@
	mov	ecx, DWORD PTR _t$[ebp]
	push	ecx
	mov	edx, DWORD PTR _L$[ebp]
	push	edx
	call	_lua_setfield
	add	esp, 12					; 0000000cH

; 144  : 	Method(SetUnitAIType);

	push	0
	push	OFFSET ?lSetUnitAIType@CvLuaUnit@@KAHPAUlua_State@@@Z ; CvLuaUnit::lSetUnitAIType
	mov	eax, DWORD PTR _L$[ebp]
	push	eax
	call	_lua_pushcclosure
	add	esp, 12					; 0000000cH
	push	OFFSET ??_C@_0O@CFHACEO@SetUnitAIType?$AA@
	mov	ecx, DWORD PTR _t$[ebp]
	push	ecx
	mov	edx, DWORD PTR _L$[ebp]
	push	edx
	call	_lua_setfield
	add	esp, 12					; 0000000cH

; 145  : 	Method(GetDomainType);

	push	0
	push	OFFSET ?lGetDomainType@CvLuaUnit@@KAHPAUlua_State@@@Z ; CvLuaUnit::lGetDomainType
	mov	eax, DWORD PTR _L$[ebp]
	push	eax
	call	_lua_pushcclosure
	add	esp, 12					; 0000000cH
	push	OFFSET ??_C@_0O@HCLPONDK@GetDomainType?$AA@
	mov	ecx, DWORD PTR _t$[ebp]
	push	ecx
	mov	edx, DWORD PTR _L$[ebp]
	push	edx
	call	_lua_setfield
	add	esp, 12					; 0000000cH

; 146  : 	Method(GetInvisibleType);

	push	0
	push	OFFSET ?lGetInvisibleType@CvLuaUnit@@KAHPAUlua_State@@@Z ; CvLuaUnit::lGetInvisibleType
	mov	eax, DWORD PTR _L$[ebp]
	push	eax
	call	_lua_pushcclosure
	add	esp, 12					; 0000000cH
	push	OFFSET ??_C@_0BB@IDGIMNCA@GetInvisibleType?$AA@
	mov	ecx, DWORD PTR _t$[ebp]
	push	ecx
	mov	edx, DWORD PTR _L$[ebp]
	push	edx
	call	_lua_setfield
	add	esp, 12					; 0000000cH

; 147  : 	Method(GetSeeInvisibleType);

	push	0
	push	OFFSET ?lGetSeeInvisibleType@CvLuaUnit@@KAHPAUlua_State@@@Z ; CvLuaUnit::lGetSeeInvisibleType
	mov	eax, DWORD PTR _L$[ebp]
	push	eax
	call	_lua_pushcclosure
	add	esp, 12					; 0000000cH
	push	OFFSET ??_C@_0BE@JPOIAPEI@GetSeeInvisibleType?$AA@
	mov	ecx, DWORD PTR _t$[ebp]
	push	ecx
	mov	edx, DWORD PTR _L$[ebp]
	push	edx
	call	_lua_setfield
	add	esp, 12					; 0000000cH

; 148  : 	Method(GetDropRange);

	push	0
	push	OFFSET ?lGetDropRange@CvLuaUnit@@KAHPAUlua_State@@@Z ; CvLuaUnit::lGetDropRange
	mov	eax, DWORD PTR _L$[ebp]
	push	eax
	call	_lua_pushcclosure
	add	esp, 12					; 0000000cH
	push	OFFSET ??_C@_0N@JCHAPCE@GetDropRange?$AA@
	mov	ecx, DWORD PTR _t$[ebp]
	push	ecx
	mov	edx, DWORD PTR _L$[ebp]
	push	edx
	call	_lua_setfield
	add	esp, 12					; 0000000cH

; 149  : 
; 150  : 	Method(FlavorValue);

	push	0
	push	OFFSET ?lFlavorValue@CvLuaUnit@@KAHPAUlua_State@@@Z ; CvLuaUnit::lFlavorValue
	mov	eax, DWORD PTR _L$[ebp]
	push	eax
	call	_lua_pushcclosure
	add	esp, 12					; 0000000cH
	push	OFFSET ??_C@_0M@ILNPEBIO@FlavorValue?$AA@
	mov	ecx, DWORD PTR _t$[ebp]
	push	ecx
	mov	edx, DWORD PTR _L$[ebp]
	push	edx
	call	_lua_setfield
	add	esp, 12					; 0000000cH

; 151  : 	Method(IsBarbarian);

	push	0
	push	OFFSET ?lIsBarbarian@CvLuaUnit@@KAHPAUlua_State@@@Z ; CvLuaUnit::lIsBarbarian
	mov	eax, DWORD PTR _L$[ebp]
	push	eax
	call	_lua_pushcclosure
	add	esp, 12					; 0000000cH
	push	OFFSET ??_C@_0M@NJNEDJLP@IsBarbarian?$AA@
	mov	ecx, DWORD PTR _t$[ebp]
	push	ecx
	mov	edx, DWORD PTR _L$[ebp]
	push	edx
	call	_lua_setfield
	add	esp, 12					; 0000000cH

; 152  : 
; 153  : 	Method(IsHuman);

	push	0
	push	OFFSET ?lIsHuman@CvLuaUnit@@KAHPAUlua_State@@@Z ; CvLuaUnit::lIsHuman
	mov	eax, DWORD PTR _L$[ebp]
	push	eax
	call	_lua_pushcclosure
	add	esp, 12					; 0000000cH
	push	OFFSET ??_C@_07NIJBBMLI@IsHuman?$AA@
	mov	ecx, DWORD PTR _t$[ebp]
	push	ecx
	mov	edx, DWORD PTR _L$[ebp]
	push	edx
	call	_lua_setfield
	add	esp, 12					; 0000000cH

; 154  : 	Method(VisibilityRange);

	push	0
	push	OFFSET ?lVisibilityRange@CvLuaUnit@@KAHPAUlua_State@@@Z ; CvLuaUnit::lVisibilityRange
	mov	eax, DWORD PTR _L$[ebp]
	push	eax
	call	_lua_pushcclosure
	add	esp, 12					; 0000000cH
	push	OFFSET ??_C@_0BA@ENFGLHEB@VisibilityRange?$AA@
	mov	ecx, DWORD PTR _t$[ebp]
	push	ecx
	mov	edx, DWORD PTR _L$[ebp]
	push	edx
	call	_lua_setfield
	add	esp, 12					; 0000000cH

; 155  : 
; 156  : 	Method(MaxMoves);

	push	0
	push	OFFSET ?lMaxMoves@CvLuaUnit@@KAHPAUlua_State@@@Z ; CvLuaUnit::lMaxMoves
	mov	eax, DWORD PTR _L$[ebp]
	push	eax
	call	_lua_pushcclosure
	add	esp, 12					; 0000000cH
	push	OFFSET ??_C@_08FJBDBEPI@MaxMoves?$AA@
	mov	ecx, DWORD PTR _t$[ebp]
	push	ecx
	mov	edx, DWORD PTR _L$[ebp]
	push	edx
	call	_lua_setfield
	add	esp, 12					; 0000000cH

; 157  : 	Method(MovesLeft);

	push	0
	push	OFFSET ?lMovesLeft@CvLuaUnit@@KAHPAUlua_State@@@Z ; CvLuaUnit::lMovesLeft
	mov	eax, DWORD PTR _L$[ebp]
	push	eax
	call	_lua_pushcclosure
	add	esp, 12					; 0000000cH
	push	OFFSET ??_C@_09FMBOGIMP@MovesLeft?$AA@
	mov	ecx, DWORD PTR _t$[ebp]
	push	ecx
	mov	edx, DWORD PTR _L$[ebp]
	push	edx
	call	_lua_setfield
	add	esp, 12					; 0000000cH

; 158  : 
; 159  : 	Method(CanMove);

	push	0
	push	OFFSET ?lCanMove@CvLuaUnit@@KAHPAUlua_State@@@Z ; CvLuaUnit::lCanMove
	mov	eax, DWORD PTR _L$[ebp]
	push	eax
	call	_lua_pushcclosure
	add	esp, 12					; 0000000cH
	push	OFFSET ??_C@_07KJCADMEO@CanMove?$AA@
	mov	ecx, DWORD PTR _t$[ebp]
	push	ecx
	mov	edx, DWORD PTR _L$[ebp]
	push	edx
	call	_lua_setfield
	add	esp, 12					; 0000000cH

; 160  : 	Method(HasMoved);

	push	0
	push	OFFSET ?lHasMoved@CvLuaUnit@@KAHPAUlua_State@@@Z ; CvLuaUnit::lHasMoved
	mov	eax, DWORD PTR _L$[ebp]
	push	eax
	call	_lua_pushcclosure
	add	esp, 12					; 0000000cH
	push	OFFSET ??_C@_08BEAAIBNL@HasMoved?$AA@
	mov	ecx, DWORD PTR _t$[ebp]
	push	ecx
	mov	edx, DWORD PTR _L$[ebp]
	push	edx
	call	_lua_setfield
	add	esp, 12					; 0000000cH

; 161  : 	Method(Range);

	push	0
	push	OFFSET ?lRange@CvLuaUnit@@KAHPAUlua_State@@@Z ; CvLuaUnit::lRange
	mov	eax, DWORD PTR _L$[ebp]
	push	eax
	call	_lua_pushcclosure
	add	esp, 12					; 0000000cH
	push	OFFSET ??_C@_05CFMCGLCK@Range?$AA@
	mov	ecx, DWORD PTR _t$[ebp]
	push	ecx
	mov	edx, DWORD PTR _L$[ebp]
	push	edx
	call	_lua_setfield
	add	esp, 12					; 0000000cH

; 162  : 	Method(NukeDamageLevel);

	push	0
	push	OFFSET ?lNukeDamageLevel@CvLuaUnit@@KAHPAUlua_State@@@Z ; CvLuaUnit::lNukeDamageLevel
	mov	eax, DWORD PTR _L$[ebp]
	push	eax
	call	_lua_pushcclosure
	add	esp, 12					; 0000000cH
	push	OFFSET ??_C@_0BA@NGIMPIOP@NukeDamageLevel?$AA@
	mov	ecx, DWORD PTR _t$[ebp]
	push	ecx
	mov	edx, DWORD PTR _L$[ebp]
	push	edx
	call	_lua_setfield
	add	esp, 12					; 0000000cH

; 163  : 
; 164  : 	Method(CanBuildRoute);

	push	0
	push	OFFSET ?lCanBuildRoute@CvLuaUnit@@KAHPAUlua_State@@@Z ; CvLuaUnit::lCanBuildRoute
	mov	eax, DWORD PTR _L$[ebp]
	push	eax
	call	_lua_pushcclosure
	add	esp, 12					; 0000000cH
	push	OFFSET ??_C@_0O@NKBEKKHA@CanBuildRoute?$AA@
	mov	ecx, DWORD PTR _t$[ebp]
	push	ecx
	mov	edx, DWORD PTR _L$[ebp]
	push	edx
	call	_lua_setfield
	add	esp, 12					; 0000000cH

; 165  : 	Method(GetBuildType);

	push	0
	push	OFFSET ?lGetBuildType@CvLuaUnit@@KAHPAUlua_State@@@Z ; CvLuaUnit::lGetBuildType
	mov	eax, DWORD PTR _L$[ebp]
	push	eax
	call	_lua_pushcclosure
	add	esp, 12					; 0000000cH
	push	OFFSET ??_C@_0N@GJAMOEAC@GetBuildType?$AA@
	mov	ecx, DWORD PTR _t$[ebp]
	push	ecx
	mov	edx, DWORD PTR _L$[ebp]
	push	edx
	call	_lua_setfield
	add	esp, 12					; 0000000cH

; 166  : 	Method(WorkRate);

	push	0
	push	OFFSET ?lWorkRate@CvLuaUnit@@KAHPAUlua_State@@@Z ; CvLuaUnit::lWorkRate
	mov	eax, DWORD PTR _L$[ebp]
	push	eax
	call	_lua_pushcclosure
	add	esp, 12					; 0000000cH
	push	OFFSET ??_C@_08JFPBBIMB@WorkRate?$AA@
	mov	ecx, DWORD PTR _t$[ebp]
	push	ecx
	mov	edx, DWORD PTR _L$[ebp]
	push	edx
	call	_lua_setfield
	add	esp, 12					; 0000000cH

; 167  : 
; 168  : 	Method(IsNoBadGoodies);

	push	0
	push	OFFSET ?lIsNoBadGoodies@CvLuaUnit@@KAHPAUlua_State@@@Z ; CvLuaUnit::lIsNoBadGoodies
	mov	eax, DWORD PTR _L$[ebp]
	push	eax
	call	_lua_pushcclosure
	add	esp, 12					; 0000000cH
	push	OFFSET ??_C@_0P@GJBOHHLD@IsNoBadGoodies?$AA@
	mov	ecx, DWORD PTR _t$[ebp]
	push	ecx
	mov	edx, DWORD PTR _L$[ebp]
	push	edx
	call	_lua_setfield
	add	esp, 12					; 0000000cH

; 169  : 	Method(IsOnlyDefensive);

	push	0
	push	OFFSET ?lIsOnlyDefensive@CvLuaUnit@@KAHPAUlua_State@@@Z ; CvLuaUnit::lIsOnlyDefensive
	mov	eax, DWORD PTR _L$[ebp]
	push	eax
	call	_lua_pushcclosure
	add	esp, 12					; 0000000cH
	push	OFFSET ??_C@_0BA@HAJEEKLO@IsOnlyDefensive?$AA@
	mov	ecx, DWORD PTR _t$[ebp]
	push	ecx
	mov	edx, DWORD PTR _L$[ebp]
	push	edx
	call	_lua_setfield
	add	esp, 12					; 0000000cH

; 170  : 
; 171  : 	Method(IsNoCapture);

	push	0
	push	OFFSET ?lIsNoCapture@CvLuaUnit@@KAHPAUlua_State@@@Z ; CvLuaUnit::lIsNoCapture
	mov	eax, DWORD PTR _L$[ebp]
	push	eax
	call	_lua_pushcclosure
	add	esp, 12					; 0000000cH
	push	OFFSET ??_C@_0M@NDDEEDIG@IsNoCapture?$AA@
	mov	ecx, DWORD PTR _t$[ebp]
	push	ecx
	mov	edx, DWORD PTR _L$[ebp]
	push	edx
	call	_lua_setfield
	add	esp, 12					; 0000000cH

; 172  : 	Method(IsRivalTerritory);

	push	0
	push	OFFSET ?lIsRivalTerritory@CvLuaUnit@@KAHPAUlua_State@@@Z ; CvLuaUnit::lIsRivalTerritory
	mov	eax, DWORD PTR _L$[ebp]
	push	eax
	call	_lua_pushcclosure
	add	esp, 12					; 0000000cH
	push	OFFSET ??_C@_0BB@NBBPHOPE@IsRivalTerritory?$AA@
	mov	ecx, DWORD PTR _t$[ebp]
	push	ecx
	mov	edx, DWORD PTR _L$[ebp]
	push	edx
	call	_lua_setfield
	add	esp, 12					; 0000000cH

; 173  : 	Method(IsFound);

	push	0
	push	OFFSET ?lIsFound@CvLuaUnit@@KAHPAUlua_State@@@Z ; CvLuaUnit::lIsFound
	mov	eax, DWORD PTR _L$[ebp]
	push	eax
	call	_lua_pushcclosure
	add	esp, 12					; 0000000cH
	push	OFFSET ??_C@_07KMNFCCCM@IsFound?$AA@
	mov	ecx, DWORD PTR _t$[ebp]
	push	ecx
	mov	edx, DWORD PTR _L$[ebp]
	push	edx
	call	_lua_setfield
	add	esp, 12					; 0000000cH

; 174  : 	Method(IsWork);

	push	0
	push	OFFSET ?lIsWork@CvLuaUnit@@KAHPAUlua_State@@@Z ; CvLuaUnit::lIsWork
	mov	eax, DWORD PTR _L$[ebp]
	push	eax
	call	_lua_pushcclosure
	add	esp, 12					; 0000000cH
	push	OFFSET ??_C@_06GLMJFJI@IsWork?$AA@
	mov	ecx, DWORD PTR _t$[ebp]
	push	ecx
	mov	edx, DWORD PTR _L$[ebp]
	push	edx
	call	_lua_setfield
	add	esp, 12					; 0000000cH

; 175  : 	Method(IsGoldenAge);

	push	0
	push	OFFSET ?lIsGoldenAge@CvLuaUnit@@KAHPAUlua_State@@@Z ; CvLuaUnit::lIsGoldenAge
	mov	eax, DWORD PTR _L$[ebp]
	push	eax
	call	_lua_pushcclosure
	add	esp, 12					; 0000000cH
	push	OFFSET ??_C@_0M@EBKACFHH@IsGoldenAge?$AA@
	mov	ecx, DWORD PTR _t$[ebp]
	push	ecx
	mov	edx, DWORD PTR _L$[ebp]
	push	edx
	call	_lua_setfield
	add	esp, 12					; 0000000cH

; 176  : #ifdef NQ_COMBAT_STRENGTH_NEAR_FRIENDLY_MINOR
; 177  : 	Method(IsNearFriendlyMinor);

	push	0
	push	OFFSET ?lIsNearFriendlyMinor@CvLuaUnit@@KAHPAUlua_State@@@Z ; CvLuaUnit::lIsNearFriendlyMinor
	mov	eax, DWORD PTR _L$[ebp]
	push	eax
	call	_lua_pushcclosure
	add	esp, 12					; 0000000cH
	push	OFFSET ??_C@_0BE@JOMPGGJE@IsNearFriendlyMinor?$AA@
	mov	ecx, DWORD PTR _t$[ebp]
	push	ecx
	mov	edx, DWORD PTR _L$[ebp]
	push	edx
	call	_lua_setfield
	add	esp, 12					; 0000000cH

; 178  : #endif
; 179  : 	Method(CanCoexistWithEnemyUnit);

	push	0
	push	OFFSET ?lCanCoexistWithEnemyUnit@CvLuaUnit@@KAHPAUlua_State@@@Z ; CvLuaUnit::lCanCoexistWithEnemyUnit
	mov	eax, DWORD PTR _L$[ebp]
	push	eax
	call	_lua_pushcclosure
	add	esp, 12					; 0000000cH
	push	OFFSET ??_C@_0BI@JLJEOEEL@CanCoexistWithEnemyUnit?$AA@
	mov	ecx, DWORD PTR _t$[ebp]
	push	ecx
	mov	edx, DWORD PTR _L$[ebp]
	push	edx
	call	_lua_setfield
	add	esp, 12					; 0000000cH

; 180  : 
; 181  : 	Method(IsGreatPerson);

	push	0
	push	OFFSET ?lIsGreatPerson@CvLuaUnit@@KAHPAUlua_State@@@Z ; CvLuaUnit::lIsGreatPerson
	mov	eax, DWORD PTR _L$[ebp]
	push	eax
	call	_lua_pushcclosure
	add	esp, 12					; 0000000cH
	push	OFFSET ??_C@_0O@EJGNOPIA@IsGreatPerson?$AA@
	mov	ecx, DWORD PTR _t$[ebp]
	push	ecx
	mov	edx, DWORD PTR _L$[ebp]
	push	edx
	call	_lua_setfield
	add	esp, 12					; 0000000cH

; 182  : 
; 183  : 	Method(IsFighting);

	push	0
	push	OFFSET ?lIsFighting@CvLuaUnit@@KAHPAUlua_State@@@Z ; CvLuaUnit::lIsFighting
	mov	eax, DWORD PTR _L$[ebp]
	push	eax
	call	_lua_pushcclosure
	add	esp, 12					; 0000000cH
	push	OFFSET ??_C@_0L@MOBAIMGP@IsFighting?$AA@
	mov	ecx, DWORD PTR _t$[ebp]
	push	ecx
	mov	edx, DWORD PTR _L$[ebp]
	push	edx
	call	_lua_setfield
	add	esp, 12					; 0000000cH

; 184  : 	Method(IsAttacking);

	push	0
	push	OFFSET ?lIsAttacking@CvLuaUnit@@KAHPAUlua_State@@@Z ; CvLuaUnit::lIsAttacking
	mov	eax, DWORD PTR _L$[ebp]
	push	eax
	call	_lua_pushcclosure
	add	esp, 12					; 0000000cH
	push	OFFSET ??_C@_0M@NJJFDOBE@IsAttacking?$AA@
	mov	ecx, DWORD PTR _t$[ebp]
	push	ecx
	mov	edx, DWORD PTR _L$[ebp]
	push	edx
	call	_lua_setfield
	add	esp, 12					; 0000000cH

; 185  : 	Method(IsDefending);

	push	0
	push	OFFSET ?lIsDefending@CvLuaUnit@@KAHPAUlua_State@@@Z ; CvLuaUnit::lIsDefending
	mov	eax, DWORD PTR _L$[ebp]
	push	eax
	call	_lua_pushcclosure
	add	esp, 12					; 0000000cH
	push	OFFSET ??_C@_0M@HABIDFCI@IsDefending?$AA@
	mov	ecx, DWORD PTR _t$[ebp]
	push	ecx
	mov	edx, DWORD PTR _L$[ebp]
	push	edx
	call	_lua_setfield
	add	esp, 12					; 0000000cH

; 186  : 	Method(IsInCombat);

	push	0
	push	OFFSET ?lIsInCombat@CvLuaUnit@@KAHPAUlua_State@@@Z ; CvLuaUnit::lIsInCombat
	mov	eax, DWORD PTR _L$[ebp]
	push	eax
	call	_lua_pushcclosure
	add	esp, 12					; 0000000cH
	push	OFFSET ??_C@_0L@ONNJBDMN@IsInCombat?$AA@
	mov	ecx, DWORD PTR _t$[ebp]
	push	ecx
	mov	edx, DWORD PTR _L$[ebp]
	push	edx
	call	_lua_setfield
	add	esp, 12					; 0000000cH

; 187  : 
; 188  : 	Method(GetMaxHitPoints);

	push	0
	push	OFFSET ?lGetMaxHitPoints@CvLuaUnit@@KAHPAUlua_State@@@Z ; CvLuaUnit::lGetMaxHitPoints
	mov	eax, DWORD PTR _L$[ebp]
	push	eax
	call	_lua_pushcclosure
	add	esp, 12					; 0000000cH
	push	OFFSET ??_C@_0BA@NIPPNLFL@GetMaxHitPoints?$AA@
	mov	ecx, DWORD PTR _t$[ebp]
	push	ecx
	mov	edx, DWORD PTR _L$[ebp]
	push	edx
	call	_lua_setfield
	add	esp, 12					; 0000000cH

; 189  : 	Method(GetCurrHitPoints);

	push	0
	push	OFFSET ?lGetCurrHitPoints@CvLuaUnit@@KAHPAUlua_State@@@Z ; CvLuaUnit::lGetCurrHitPoints
	mov	eax, DWORD PTR _L$[ebp]
	push	eax
	call	_lua_pushcclosure
	add	esp, 12					; 0000000cH
	push	OFFSET ??_C@_0BB@OHDBNFAL@GetCurrHitPoints?$AA@
	mov	ecx, DWORD PTR _t$[ebp]
	push	ecx
	mov	edx, DWORD PTR _L$[ebp]
	push	edx
	call	_lua_setfield
	add	esp, 12					; 0000000cH

; 190  : 	Method(IsHurt);

	push	0
	push	OFFSET ?lIsHurt@CvLuaUnit@@KAHPAUlua_State@@@Z ; CvLuaUnit::lIsHurt
	mov	eax, DWORD PTR _L$[ebp]
	push	eax
	call	_lua_pushcclosure
	add	esp, 12					; 0000000cH
	push	OFFSET ??_C@_06BGPCCMKO@IsHurt?$AA@
	mov	ecx, DWORD PTR _t$[ebp]
	push	ecx
	mov	edx, DWORD PTR _L$[ebp]
	push	edx
	call	_lua_setfield
	add	esp, 12					; 0000000cH

; 191  : 	Method(IsDead);

	push	0
	push	OFFSET ?lIsDead@CvLuaUnit@@KAHPAUlua_State@@@Z ; CvLuaUnit::lIsDead
	mov	eax, DWORD PTR _L$[ebp]
	push	eax
	call	_lua_pushcclosure
	add	esp, 12					; 0000000cH
	push	OFFSET ??_C@_06NHLJJJEI@IsDead?$AA@
	mov	ecx, DWORD PTR _t$[ebp]
	push	ecx
	mov	edx, DWORD PTR _L$[ebp]
	push	edx
	call	_lua_setfield
	add	esp, 12					; 0000000cH

; 192  : 	Method(IsDelayedDeath);

	push	0
	push	OFFSET ?lIsDelayedDeath@CvLuaUnit@@KAHPAUlua_State@@@Z ; CvLuaUnit::lIsDelayedDeath
	mov	eax, DWORD PTR _L$[ebp]
	push	eax
	call	_lua_pushcclosure
	add	esp, 12					; 0000000cH
	push	OFFSET ??_C@_0P@KICKDPKF@IsDelayedDeath?$AA@
	mov	ecx, DWORD PTR _t$[ebp]
	push	ecx
	mov	edx, DWORD PTR _L$[ebp]
	push	edx
	call	_lua_setfield
	add	esp, 12					; 0000000cH

; 193  : 	Method(SetBaseCombatStrength);

	push	0
	push	OFFSET ?lSetBaseCombatStrength@CvLuaUnit@@KAHPAUlua_State@@@Z ; CvLuaUnit::lSetBaseCombatStrength
	mov	eax, DWORD PTR _L$[ebp]
	push	eax
	call	_lua_pushcclosure
	add	esp, 12					; 0000000cH
	push	OFFSET ??_C@_0BG@PLIEBAEL@SetBaseCombatStrength?$AA@
	mov	ecx, DWORD PTR _t$[ebp]
	push	ecx
	mov	edx, DWORD PTR _L$[ebp]
	push	edx
	call	_lua_setfield
	add	esp, 12					; 0000000cH

; 194  : 	Method(GetBaseCombatStrength);

	push	0
	push	OFFSET ?lGetBaseCombatStrength@CvLuaUnit@@KAHPAUlua_State@@@Z ; CvLuaUnit::lGetBaseCombatStrength
	mov	eax, DWORD PTR _L$[ebp]
	push	eax
	call	_lua_pushcclosure
	add	esp, 12					; 0000000cH
	push	OFFSET ??_C@_0BG@ONCMJAK@GetBaseCombatStrength?$AA@
	mov	ecx, DWORD PTR _t$[ebp]
	push	ecx
	mov	edx, DWORD PTR _L$[ebp]
	push	edx
	call	_lua_setfield
	add	esp, 12					; 0000000cH

; 195  : 
; 196  : 	Method(GetMaxAttackStrength);

	push	0
	push	OFFSET ?lGetMaxAttackStrength@CvLuaUnit@@KAHPAUlua_State@@@Z ; CvLuaUnit::lGetMaxAttackStrength
	mov	eax, DWORD PTR _L$[ebp]
	push	eax
	call	_lua_pushcclosure
	add	esp, 12					; 0000000cH
	push	OFFSET ??_C@_0BF@DAKJENBM@GetMaxAttackStrength?$AA@
	mov	ecx, DWORD PTR _t$[ebp]
	push	ecx
	mov	edx, DWORD PTR _L$[ebp]
	push	edx
	call	_lua_setfield
	add	esp, 12					; 0000000cH

; 197  : 	Method(GetMaxDefenseStrength);

	push	0
	push	OFFSET ?lGetMaxDefenseStrength@CvLuaUnit@@KAHPAUlua_State@@@Z ; CvLuaUnit::lGetMaxDefenseStrength
	mov	eax, DWORD PTR _L$[ebp]
	push	eax
	call	_lua_pushcclosure
	add	esp, 12					; 0000000cH
	push	OFFSET ??_C@_0BG@CEAGLNCO@GetMaxDefenseStrength?$AA@
	mov	ecx, DWORD PTR _t$[ebp]
	push	ecx
	mov	edx, DWORD PTR _L$[ebp]
	push	edx
	call	_lua_setfield
	add	esp, 12					; 0000000cH

; 198  : 	Method(GetEmbarkedUnitDefense);

	push	0
	push	OFFSET ?lGetEmbarkedUnitDefense@CvLuaUnit@@KAHPAUlua_State@@@Z ; CvLuaUnit::lGetEmbarkedUnitDefense
	mov	eax, DWORD PTR _L$[ebp]
	push	eax
	call	_lua_pushcclosure
	add	esp, 12					; 0000000cH
	push	OFFSET ??_C@_0BH@NDNEFMFF@GetEmbarkedUnitDefense?$AA@
	mov	ecx, DWORD PTR _t$[ebp]
	push	ecx
	mov	edx, DWORD PTR _L$[ebp]
	push	edx
	call	_lua_setfield
	add	esp, 12					; 0000000cH

; 199  : 
; 200  : 	Method(IsCombatUnit);

	push	0
	push	OFFSET ?lIsCombatUnit@CvLuaUnit@@KAHPAUlua_State@@@Z ; CvLuaUnit::lIsCombatUnit
	mov	eax, DWORD PTR _L$[ebp]
	push	eax
	call	_lua_pushcclosure
	add	esp, 12					; 0000000cH
	push	OFFSET ??_C@_0N@FDMOBEEM@IsCombatUnit?$AA@
	mov	ecx, DWORD PTR _t$[ebp]
	push	ecx
	mov	edx, DWORD PTR _L$[ebp]
	push	edx
	call	_lua_setfield
	add	esp, 12					; 0000000cH

; 201  : 	Method(IsCanDefend);

	push	0
	push	OFFSET ?lIsCanDefend@CvLuaUnit@@KAHPAUlua_State@@@Z ; CvLuaUnit::lIsCanDefend
	mov	eax, DWORD PTR _L$[ebp]
	push	eax
	call	_lua_pushcclosure
	add	esp, 12					; 0000000cH
	push	OFFSET ??_C@_0M@EPLBJBI@IsCanDefend?$AA@
	mov	ecx, DWORD PTR _t$[ebp]
	push	ecx
	mov	edx, DWORD PTR _L$[ebp]
	push	edx
	call	_lua_setfield
	add	esp, 12					; 0000000cH

; 202  : 	Method(CanSiege);

	push	0
	push	OFFSET ?lCanSiege@CvLuaUnit@@KAHPAUlua_State@@@Z ; CvLuaUnit::lCanSiege
	mov	eax, DWORD PTR _L$[ebp]
	push	eax
	call	_lua_pushcclosure
	add	esp, 12					; 0000000cH
	push	OFFSET ??_C@_08HOPDGJBN@CanSiege?$AA@
	mov	ecx, DWORD PTR _t$[ebp]
	push	ecx
	mov	edx, DWORD PTR _L$[ebp]
	push	edx
	call	_lua_setfield
	add	esp, 12					; 0000000cH

; 203  : 	Method(IsCanAttackWithMove);

	push	0
	push	OFFSET ?lIsCanAttackWithMove@CvLuaUnit@@KAHPAUlua_State@@@Z ; CvLuaUnit::lIsCanAttackWithMove
	mov	eax, DWORD PTR _L$[ebp]
	push	eax
	call	_lua_pushcclosure
	add	esp, 12					; 0000000cH
	push	OFFSET ??_C@_0BE@FMPCPPOB@IsCanAttackWithMove?$AA@
	mov	ecx, DWORD PTR _t$[ebp]
	push	ecx
	mov	edx, DWORD PTR _L$[ebp]
	push	edx
	call	_lua_setfield
	add	esp, 12					; 0000000cH

; 204  : 	Method(IsCanAttackRanged);

	push	0
	push	OFFSET ?lIsCanAttackRanged@CvLuaUnit@@KAHPAUlua_State@@@Z ; CvLuaUnit::lIsCanAttackRanged
	mov	eax, DWORD PTR _L$[ebp]
	push	eax
	call	_lua_pushcclosure
	add	esp, 12					; 0000000cH
	push	OFFSET ??_C@_0BC@DBALPDOL@IsCanAttackRanged?$AA@
	mov	ecx, DWORD PTR _t$[ebp]
	push	ecx
	mov	edx, DWORD PTR _L$[ebp]
	push	edx
	call	_lua_setfield
	add	esp, 12					; 0000000cH

; 205  : 	Method(IsCanAttack);

	push	0
	push	OFFSET ?lIsCanAttack@CvLuaUnit@@KAHPAUlua_State@@@Z ; CvLuaUnit::lIsCanAttack
	mov	eax, DWORD PTR _L$[ebp]
	push	eax
	call	_lua_pushcclosure
	add	esp, 12					; 0000000cH
	push	OFFSET ??_C@_0M@IEELDLKI@IsCanAttack?$AA@
	mov	ecx, DWORD PTR _t$[ebp]
	push	ecx
	mov	edx, DWORD PTR _L$[ebp]
	push	edx
	call	_lua_setfield
	add	esp, 12					; 0000000cH

; 206  : 	Method(IsCanAttackWithMoveNow);

	push	0
	push	OFFSET ?lIsCanAttackWithMoveNow@CvLuaUnit@@KAHPAUlua_State@@@Z ; CvLuaUnit::lIsCanAttackWithMoveNow
	mov	eax, DWORD PTR _L$[ebp]
	push	eax
	call	_lua_pushcclosure
	add	esp, 12					; 0000000cH
	push	OFFSET ??_C@_0BH@DAIJJIKL@IsCanAttackWithMoveNow?$AA@
	mov	ecx, DWORD PTR _t$[ebp]
	push	ecx
	mov	edx, DWORD PTR _L$[ebp]
	push	edx
	call	_lua_setfield
	add	esp, 12					; 0000000cH

; 207  : 	Method(IsEnemyInMovementRange);

	push	0
	push	OFFSET ?lIsEnemyInMovementRange@CvLuaUnit@@KAHPAUlua_State@@@Z ; CvLuaUnit::lIsEnemyInMovementRange
	mov	eax, DWORD PTR _L$[ebp]
	push	eax
	call	_lua_pushcclosure
	add	esp, 12					; 0000000cH
	push	OFFSET ??_C@_0BH@CHHDBNLA@IsEnemyInMovementRange?$AA@
	mov	ecx, DWORD PTR _t$[ebp]
	push	ecx
	mov	edx, DWORD PTR _L$[ebp]
	push	edx
	call	_lua_setfield
	add	esp, 12					; 0000000cH

; 208  : 
; 209  : 	Method(IsTrade);

	push	0
	push	OFFSET ?lIsTrade@CvLuaUnit@@KAHPAUlua_State@@@Z ; CvLuaUnit::lIsTrade
	mov	eax, DWORD PTR _L$[ebp]
	push	eax
	call	_lua_pushcclosure
	add	esp, 12					; 0000000cH
	push	OFFSET ??_C@_07LBEMKGNA@IsTrade?$AA@
	mov	ecx, DWORD PTR _t$[ebp]
	push	ecx
	mov	edx, DWORD PTR _L$[ebp]
	push	edx
	call	_lua_setfield
	add	esp, 12					; 0000000cH

; 210  : 
; 211  : 	Method(GetBaseRangedCombatStrength);

	push	0
	push	OFFSET ?lGetBaseRangedCombatStrength@CvLuaUnit@@KAHPAUlua_State@@@Z ; CvLuaUnit::lGetBaseRangedCombatStrength
	mov	eax, DWORD PTR _L$[ebp]
	push	eax
	call	_lua_pushcclosure
	add	esp, 12					; 0000000cH
	push	OFFSET ??_C@_0BM@JJBLKOAN@GetBaseRangedCombatStrength?$AA@
	mov	ecx, DWORD PTR _t$[ebp]
	push	ecx
	mov	edx, DWORD PTR _L$[ebp]
	push	edx
	call	_lua_setfield
	add	esp, 12					; 0000000cH

; 212  : 	Method(GetMaxRangedCombatStrength);

	push	0
	push	OFFSET ?lGetMaxRangedCombatStrength@CvLuaUnit@@KAHPAUlua_State@@@Z ; CvLuaUnit::lGetMaxRangedCombatStrength
	mov	eax, DWORD PTR _L$[ebp]
	push	eax
	call	_lua_pushcclosure
	add	esp, 12					; 0000000cH
	push	OFFSET ??_C@_0BL@DHDPDFCI@GetMaxRangedCombatStrength?$AA@
	mov	ecx, DWORD PTR _t$[ebp]
	push	ecx
	mov	edx, DWORD PTR _L$[ebp]
	push	edx
	call	_lua_setfield
	add	esp, 12					; 0000000cH

; 213  : 	Method(GetCombatLimit);

	push	0
	push	OFFSET ?lGetCombatLimit@CvLuaUnit@@KAHPAUlua_State@@@Z ; CvLuaUnit::lGetCombatLimit
	mov	eax, DWORD PTR _L$[ebp]
	push	eax
	call	_lua_pushcclosure
	add	esp, 12					; 0000000cH
	push	OFFSET ??_C@_0P@PEHPLGIA@GetCombatLimit?$AA@
	mov	ecx, DWORD PTR _t$[ebp]
	push	ecx
	mov	edx, DWORD PTR _L$[ebp]
	push	edx
	call	_lua_setfield
	add	esp, 12					; 0000000cH

; 214  : 	Method(GetRangedCombatLimit);

	push	0
	push	OFFSET ?lGetRangedCombatLimit@CvLuaUnit@@KAHPAUlua_State@@@Z ; CvLuaUnit::lGetRangedCombatLimit
	mov	eax, DWORD PTR _L$[ebp]
	push	eax
	call	_lua_pushcclosure
	add	esp, 12					; 0000000cH
	push	OFFSET ??_C@_0BF@CKDOAPEN@GetRangedCombatLimit?$AA@
	mov	ecx, DWORD PTR _t$[ebp]
	push	ecx
	mov	edx, DWORD PTR _L$[ebp]
	push	edx
	call	_lua_setfield
	add	esp, 12					; 0000000cH

; 215  : 	Method(CanAirAttack);

	push	0
	push	OFFSET ?lCanAirAttack@CvLuaUnit@@KAHPAUlua_State@@@Z ; CvLuaUnit::lCanAirAttack
	mov	eax, DWORD PTR _L$[ebp]
	push	eax
	call	_lua_pushcclosure
	add	esp, 12					; 0000000cH
	push	OFFSET ??_C@_0N@BPMLDEKL@CanAirAttack?$AA@
	mov	ecx, DWORD PTR _t$[ebp]
	push	ecx
	mov	edx, DWORD PTR _L$[ebp]
	push	edx
	call	_lua_setfield
	add	esp, 12					; 0000000cH

; 216  : 	Method(CanAirDefend);

	push	0
	push	OFFSET ?lCanAirDefend@CvLuaUnit@@KAHPAUlua_State@@@Z ; CvLuaUnit::lCanAirDefend
	mov	eax, DWORD PTR _L$[ebp]
	push	eax
	call	_lua_pushcclosure
	add	esp, 12					; 0000000cH
	push	OFFSET ??_C@_0N@JPHLBGBL@CanAirDefend?$AA@
	mov	ecx, DWORD PTR _t$[ebp]
	push	ecx
	mov	edx, DWORD PTR _L$[ebp]
	push	edx
	call	_lua_setfield
	add	esp, 12					; 0000000cH

; 217  : 	Method(GetAirCombatDamage);

	push	0
	push	OFFSET ?lGetAirCombatDamage@CvLuaUnit@@KAHPAUlua_State@@@Z ; CvLuaUnit::lGetAirCombatDamage
	mov	eax, DWORD PTR _L$[ebp]
	push	eax
	call	_lua_pushcclosure
	add	esp, 12					; 0000000cH
	push	OFFSET ??_C@_0BD@DKAALEFM@GetAirCombatDamage?$AA@
	mov	ecx, DWORD PTR _t$[ebp]
	push	ecx
	mov	edx, DWORD PTR _L$[ebp]
	push	edx
	call	_lua_setfield
	add	esp, 12					; 0000000cH

; 218  : 	Method(GetRangeCombatDamage);

	push	0
	push	OFFSET ?lGetRangeCombatDamage@CvLuaUnit@@KAHPAUlua_State@@@Z ; CvLuaUnit::lGetRangeCombatDamage
	mov	eax, DWORD PTR _L$[ebp]
	push	eax
	call	_lua_pushcclosure
	add	esp, 12					; 0000000cH
	push	OFFSET ??_C@_0BF@KIPJJBIH@GetRangeCombatDamage?$AA@
	mov	ecx, DWORD PTR _t$[ebp]
	push	ecx
	mov	edx, DWORD PTR _L$[ebp]
	push	edx
	call	_lua_setfield
	add	esp, 12					; 0000000cH

; 219  : 	Method(GetAirStrikeDefenseDamage);

	push	0
	push	OFFSET ?lGetAirStrikeDefenseDamage@CvLuaUnit@@KAHPAUlua_State@@@Z ; CvLuaUnit::lGetAirStrikeDefenseDamage
	mov	eax, DWORD PTR _L$[ebp]
	push	eax
	call	_lua_pushcclosure
	add	esp, 12					; 0000000cH
	push	OFFSET ??_C@_0BK@LJEHDMDL@GetAirStrikeDefenseDamage?$AA@
	mov	ecx, DWORD PTR _t$[ebp]
	push	ecx
	mov	edx, DWORD PTR _L$[ebp]
	push	edx
	call	_lua_setfield
	add	esp, 12					; 0000000cH

; 220  : 	Method(GetBestInterceptor);

	push	0
	push	OFFSET ?lGetBestInterceptor@CvLuaUnit@@KAHPAUlua_State@@@Z ; CvLuaUnit::lGetBestInterceptor
	mov	eax, DWORD PTR _L$[ebp]
	push	eax
	call	_lua_pushcclosure
	add	esp, 12					; 0000000cH
	push	OFFSET ??_C@_0BD@LEJHGMC@GetBestInterceptor?$AA@
	mov	ecx, DWORD PTR _t$[ebp]
	push	ecx
	mov	edx, DWORD PTR _L$[ebp]
	push	edx
	call	_lua_setfield
	add	esp, 12					; 0000000cH

; 221  : 	Method(GetInterceptorCount);

	push	0
	push	OFFSET ?lGetInterceptorCount@CvLuaUnit@@KAHPAUlua_State@@@Z ; CvLuaUnit::lGetInterceptorCount
	mov	eax, DWORD PTR _L$[ebp]
	push	eax
	call	_lua_pushcclosure
	add	esp, 12					; 0000000cH
	push	OFFSET ??_C@_0BE@FILFEJIA@GetInterceptorCount?$AA@
	mov	ecx, DWORD PTR _t$[ebp]
	push	ecx
	mov	edx, DWORD PTR _L$[ebp]
	push	edx
	call	_lua_setfield
	add	esp, 12					; 0000000cH

; 222  : 	Method(GetBestSeaPillageInterceptor);

	push	0
	push	OFFSET ?lGetBestSeaPillageInterceptor@CvLuaUnit@@KAHPAUlua_State@@@Z ; CvLuaUnit::lGetBestSeaPillageInterceptor
	mov	eax, DWORD PTR _L$[ebp]
	push	eax
	call	_lua_pushcclosure
	add	esp, 12					; 0000000cH
	push	OFFSET ??_C@_0BN@LPOGIFFC@GetBestSeaPillageInterceptor?$AA@
	mov	ecx, DWORD PTR _t$[ebp]
	push	ecx
	mov	edx, DWORD PTR _L$[ebp]
	push	edx
	call	_lua_setfield
	add	esp, 12					; 0000000cH

; 223  : 	Method(GetCaptureChance);

	push	0
	push	OFFSET ?lGetCaptureChance@CvLuaUnit@@KAHPAUlua_State@@@Z ; CvLuaUnit::lGetCaptureChance
	mov	eax, DWORD PTR _L$[ebp]
	push	eax
	call	_lua_pushcclosure
	add	esp, 12					; 0000000cH
	push	OFFSET ??_C@_0BB@OKDKFEAC@GetCaptureChance?$AA@
	mov	ecx, DWORD PTR _t$[ebp]
	push	ecx
	mov	edx, DWORD PTR _L$[ebp]
	push	edx
	call	_lua_setfield
	add	esp, 12					; 0000000cH

; 224  : 
; 225  : 	Method(IsAutomated);

	push	0
	push	OFFSET ?lIsAutomated@CvLuaUnit@@KAHPAUlua_State@@@Z ; CvLuaUnit::lIsAutomated
	mov	eax, DWORD PTR _L$[ebp]
	push	eax
	call	_lua_pushcclosure
	add	esp, 12					; 0000000cH
	push	OFFSET ??_C@_0M@GLGABLLL@IsAutomated?$AA@
	mov	ecx, DWORD PTR _t$[ebp]
	push	ecx
	mov	edx, DWORD PTR _L$[ebp]
	push	edx
	call	_lua_setfield
	add	esp, 12					; 0000000cH

; 226  : 	Method(IsWaiting);

	push	0
	push	OFFSET ?lIsWaiting@CvLuaUnit@@KAHPAUlua_State@@@Z ; CvLuaUnit::lIsWaiting
	mov	eax, DWORD PTR _L$[ebp]
	push	eax
	call	_lua_pushcclosure
	add	esp, 12					; 0000000cH
	push	OFFSET ??_C@_09MIKEECCD@IsWaiting?$AA@
	mov	ecx, DWORD PTR _t$[ebp]
	push	ecx
	mov	edx, DWORD PTR _L$[ebp]
	push	edx
	call	_lua_setfield
	add	esp, 12					; 0000000cH

; 227  : 	Method(IsFortifyable);

	push	0
	push	OFFSET ?lIsFortifyable@CvLuaUnit@@KAHPAUlua_State@@@Z ; CvLuaUnit::lIsFortifyable
	mov	eax, DWORD PTR _L$[ebp]
	push	eax
	call	_lua_pushcclosure
	add	esp, 12					; 0000000cH
	push	OFFSET ??_C@_0O@OCMBHLME@IsFortifyable?$AA@
	mov	ecx, DWORD PTR _t$[ebp]
	push	ecx
	mov	edx, DWORD PTR _L$[ebp]
	push	edx
	call	_lua_setfield
	add	esp, 12					; 0000000cH

; 228  : 	Method(IsEverFortifyable);

	push	0
	push	OFFSET ?lIsEverFortifyable@CvLuaUnit@@KAHPAUlua_State@@@Z ; CvLuaUnit::lIsEverFortifyable
	mov	eax, DWORD PTR _L$[ebp]
	push	eax
	call	_lua_pushcclosure
	add	esp, 12					; 0000000cH
	push	OFFSET ??_C@_0BC@GLEHCFPG@IsEverFortifyable?$AA@
	mov	ecx, DWORD PTR _t$[ebp]
	push	ecx
	mov	edx, DWORD PTR _L$[ebp]
	push	edx
	call	_lua_setfield
	add	esp, 12					; 0000000cH

; 229  : 	Method(FortifyModifier);

	push	0
	push	OFFSET ?lFortifyModifier@CvLuaUnit@@KAHPAUlua_State@@@Z ; CvLuaUnit::lFortifyModifier
	mov	eax, DWORD PTR _L$[ebp]
	push	eax
	call	_lua_pushcclosure
	add	esp, 12					; 0000000cH
	push	OFFSET ??_C@_0BA@HLMKCAHI@FortifyModifier?$AA@
	mov	ecx, DWORD PTR _t$[ebp]
	push	ecx
	mov	edx, DWORD PTR _L$[ebp]
	push	edx
	call	_lua_setfield
	add	esp, 12					; 0000000cH

; 230  : 	Method(ExperienceNeeded);

	push	0
	push	OFFSET ?lExperienceNeeded@CvLuaUnit@@KAHPAUlua_State@@@Z ; CvLuaUnit::lExperienceNeeded
	mov	eax, DWORD PTR _L$[ebp]
	push	eax
	call	_lua_pushcclosure
	add	esp, 12					; 0000000cH
	push	OFFSET ??_C@_0BB@KHKCLNBJ@ExperienceNeeded?$AA@
	mov	ecx, DWORD PTR _t$[ebp]
	push	ecx
	mov	edx, DWORD PTR _L$[ebp]
	push	edx
	call	_lua_setfield
	add	esp, 12					; 0000000cH

; 231  : 	Method(AttackXPValue);

	push	0
	push	OFFSET ?lAttackXPValue@CvLuaUnit@@KAHPAUlua_State@@@Z ; CvLuaUnit::lAttackXPValue
	mov	eax, DWORD PTR _L$[ebp]
	push	eax
	call	_lua_pushcclosure
	add	esp, 12					; 0000000cH
	push	OFFSET ??_C@_0O@DKJMBMOF@AttackXPValue?$AA@
	mov	ecx, DWORD PTR _t$[ebp]
	push	ecx
	mov	edx, DWORD PTR _L$[ebp]
	push	edx
	call	_lua_setfield
	add	esp, 12					; 0000000cH

; 232  : 	Method(DefenseXPValue);

	push	0
	push	OFFSET ?lDefenseXPValue@CvLuaUnit@@KAHPAUlua_State@@@Z ; CvLuaUnit::lDefenseXPValue
	mov	eax, DWORD PTR _L$[ebp]
	push	eax
	call	_lua_pushcclosure
	add	esp, 12					; 0000000cH
	push	OFFSET ??_C@_0P@JHMJJDKG@DefenseXPValue?$AA@
	mov	ecx, DWORD PTR _t$[ebp]
	push	ecx
	mov	edx, DWORD PTR _L$[ebp]
	push	edx
	call	_lua_setfield
	add	esp, 12					; 0000000cH

; 233  : 	Method(MaxXPValue);

	push	0
	push	OFFSET ?lMaxXPValue@CvLuaUnit@@KAHPAUlua_State@@@Z ; CvLuaUnit::lMaxXPValue
	mov	eax, DWORD PTR _L$[ebp]
	push	eax
	call	_lua_pushcclosure
	add	esp, 12					; 0000000cH
	push	OFFSET ??_C@_0L@BMCJNNEJ@MaxXPValue?$AA@
	mov	ecx, DWORD PTR _t$[ebp]
	push	ecx
	mov	edx, DWORD PTR _L$[ebp]
	push	edx
	call	_lua_setfield
	add	esp, 12					; 0000000cH

; 234  : 	Method(FirstStrikes);

	push	0
	push	OFFSET ?lFirstStrikes@CvLuaUnit@@KAHPAUlua_State@@@Z ; CvLuaUnit::lFirstStrikes
	mov	eax, DWORD PTR _L$[ebp]
	push	eax
	call	_lua_pushcclosure
	add	esp, 12					; 0000000cH
	push	OFFSET ??_C@_0N@PJAIAMPF@FirstStrikes?$AA@
	mov	ecx, DWORD PTR _t$[ebp]
	push	ecx
	mov	edx, DWORD PTR _L$[ebp]
	push	edx
	call	_lua_setfield
	add	esp, 12					; 0000000cH

; 235  : 	Method(ChanceFirstStrikes);

	push	0
	push	OFFSET ?lChanceFirstStrikes@CvLuaUnit@@KAHPAUlua_State@@@Z ; CvLuaUnit::lChanceFirstStrikes
	mov	eax, DWORD PTR _L$[ebp]
	push	eax
	call	_lua_pushcclosure
	add	esp, 12					; 0000000cH
	push	OFFSET ??_C@_0BD@IEANKGHK@ChanceFirstStrikes?$AA@
	mov	ecx, DWORD PTR _t$[ebp]
	push	ecx
	mov	edx, DWORD PTR _L$[ebp]
	push	edx
	call	_lua_setfield
	add	esp, 12					; 0000000cH

; 236  : 	Method(MaxFirstStrikes);

	push	0
	push	OFFSET ?lMaxFirstStrikes@CvLuaUnit@@KAHPAUlua_State@@@Z ; CvLuaUnit::lMaxFirstStrikes
	mov	eax, DWORD PTR _L$[ebp]
	push	eax
	call	_lua_pushcclosure
	add	esp, 12					; 0000000cH
	push	OFFSET ??_C@_0BA@BPAAIGPJ@MaxFirstStrikes?$AA@
	mov	ecx, DWORD PTR _t$[ebp]
	push	ecx
	mov	edx, DWORD PTR _L$[ebp]
	push	edx
	call	_lua_setfield
	add	esp, 12					; 0000000cH

; 237  : 	Method(IsRanged);

	push	0
	push	OFFSET ?lIsRanged@CvLuaUnit@@KAHPAUlua_State@@@Z ; CvLuaUnit::lIsRanged
	mov	eax, DWORD PTR _L$[ebp]
	push	eax
	call	_lua_pushcclosure
	add	esp, 12					; 0000000cH
	push	OFFSET ??_C@_08PBIEENOB@IsRanged?$AA@
	mov	ecx, DWORD PTR _t$[ebp]
	push	ecx
	mov	edx, DWORD PTR _L$[ebp]
	push	edx
	call	_lua_setfield
	add	esp, 12					; 0000000cH

; 238  : 	Method(IsMustSetUpToRangedAttack);

	push	0
	push	OFFSET ?lIsMustSetUpToRangedAttack@CvLuaUnit@@KAHPAUlua_State@@@Z ; CvLuaUnit::lIsMustSetUpToRangedAttack
	mov	eax, DWORD PTR _L$[ebp]
	push	eax
	call	_lua_pushcclosure
	add	esp, 12					; 0000000cH
	push	OFFSET ??_C@_0BK@ODLOGFHD@IsMustSetUpToRangedAttack?$AA@
	mov	ecx, DWORD PTR _t$[ebp]
	push	ecx
	mov	edx, DWORD PTR _L$[ebp]
	push	edx
	call	_lua_setfield
	add	esp, 12					; 0000000cH

; 239  : 	Method(CanSetUpForRangedAttack);

	push	0
	push	OFFSET ?lCanSetUpForRangedAttack@CvLuaUnit@@KAHPAUlua_State@@@Z ; CvLuaUnit::lCanSetUpForRangedAttack
	mov	eax, DWORD PTR _L$[ebp]
	push	eax
	call	_lua_pushcclosure
	add	esp, 12					; 0000000cH
	push	OFFSET ??_C@_0BI@IKLKKCFA@CanSetUpForRangedAttack?$AA@
	mov	ecx, DWORD PTR _t$[ebp]
	push	ecx
	mov	edx, DWORD PTR _L$[ebp]
	push	edx
	call	_lua_setfield
	add	esp, 12					; 0000000cH

; 240  : 	Method(IsSetUpForRangedAttack);

	push	0
	push	OFFSET ?lIsSetUpForRangedAttack@CvLuaUnit@@KAHPAUlua_State@@@Z ; CvLuaUnit::lIsSetUpForRangedAttack
	mov	eax, DWORD PTR _L$[ebp]
	push	eax
	call	_lua_pushcclosure
	add	esp, 12					; 0000000cH
	push	OFFSET ??_C@_0BH@HMHIMLJG@IsSetUpForRangedAttack?$AA@
	mov	ecx, DWORD PTR _t$[ebp]
	push	ecx
	mov	edx, DWORD PTR _L$[ebp]
	push	edx
	call	_lua_setfield
	add	esp, 12					; 0000000cH

; 241  : 	Method(ImmuneToFirstStrikes);

	push	0
	push	OFFSET ?lImmuneToFirstStrikes@CvLuaUnit@@KAHPAUlua_State@@@Z ; CvLuaUnit::lImmuneToFirstStrikes
	mov	eax, DWORD PTR _L$[ebp]
	push	eax
	call	_lua_pushcclosure
	add	esp, 12					; 0000000cH
	push	OFFSET ??_C@_0BF@LOKEAEHO@ImmuneToFirstStrikes?$AA@
	mov	ecx, DWORD PTR _t$[ebp]
	push	ecx
	mov	edx, DWORD PTR _L$[ebp]
	push	edx
	call	_lua_setfield
	add	esp, 12					; 0000000cH

; 242  : 	Method(NoDefensiveBonus);

	push	0
	push	OFFSET ?lNoDefensiveBonus@CvLuaUnit@@KAHPAUlua_State@@@Z ; CvLuaUnit::lNoDefensiveBonus
	mov	eax, DWORD PTR _L$[ebp]
	push	eax
	call	_lua_pushcclosure
	add	esp, 12					; 0000000cH
	push	OFFSET ??_C@_0BB@EDEJJMBG@NoDefensiveBonus?$AA@
	mov	ecx, DWORD PTR _t$[ebp]
	push	ecx
	mov	edx, DWORD PTR _L$[ebp]
	push	edx
	call	_lua_setfield
	add	esp, 12					; 0000000cH

; 243  : 	Method(IgnoreBuildingDefense);

	push	0
	push	OFFSET ?lIgnoreBuildingDefense@CvLuaUnit@@KAHPAUlua_State@@@Z ; CvLuaUnit::lIgnoreBuildingDefense
	mov	eax, DWORD PTR _L$[ebp]
	push	eax
	call	_lua_pushcclosure
	add	esp, 12					; 0000000cH
	push	OFFSET ??_C@_0BG@NPOBMDEK@IgnoreBuildingDefense?$AA@
	mov	ecx, DWORD PTR _t$[ebp]
	push	ecx
	mov	edx, DWORD PTR _L$[ebp]
	push	edx
	call	_lua_setfield
	add	esp, 12					; 0000000cH

; 244  : 	Method(CanMoveImpassable);

	push	0
	push	OFFSET ?lCanMoveImpassable@CvLuaUnit@@KAHPAUlua_State@@@Z ; CvLuaUnit::lCanMoveImpassable
	mov	eax, DWORD PTR _L$[ebp]
	push	eax
	call	_lua_pushcclosure
	add	esp, 12					; 0000000cH
	push	OFFSET ??_C@_0BC@DKMBECGO@CanMoveImpassable?$AA@
	mov	ecx, DWORD PTR _t$[ebp]
	push	ecx
	mov	edx, DWORD PTR _L$[ebp]
	push	edx
	call	_lua_setfield
	add	esp, 12					; 0000000cH

; 245  : 	Method(CanMoveAllTerrain);

	push	0
	push	OFFSET ?lCanMoveAllTerrain@CvLuaUnit@@KAHPAUlua_State@@@Z ; CvLuaUnit::lCanMoveAllTerrain
	mov	eax, DWORD PTR _L$[ebp]
	push	eax
	call	_lua_pushcclosure
	add	esp, 12					; 0000000cH
	push	OFFSET ??_C@_0BC@PHIBAHKE@CanMoveAllTerrain?$AA@
	mov	ecx, DWORD PTR _t$[ebp]
	push	ecx
	mov	edx, DWORD PTR _L$[ebp]
	push	edx
	call	_lua_setfield
	add	esp, 12					; 0000000cH

; 246  : 	Method(FlatMovementCost);

	push	0
	push	OFFSET ?lFlatMovementCost@CvLuaUnit@@KAHPAUlua_State@@@Z ; CvLuaUnit::lFlatMovementCost
	mov	eax, DWORD PTR _L$[ebp]
	push	eax
	call	_lua_pushcclosure
	add	esp, 12					; 0000000cH
	push	OFFSET ??_C@_0BB@MENGGKPI@FlatMovementCost?$AA@
	mov	ecx, DWORD PTR _t$[ebp]
	push	ecx
	mov	edx, DWORD PTR _L$[ebp]
	push	edx
	call	_lua_setfield
	add	esp, 12					; 0000000cH

; 247  : 	Method(IgnoreTerrainCost);

	push	0
	push	OFFSET ?lIgnoreTerrainCost@CvLuaUnit@@KAHPAUlua_State@@@Z ; CvLuaUnit::lIgnoreTerrainCost
	mov	eax, DWORD PTR _L$[ebp]
	push	eax
	call	_lua_pushcclosure
	add	esp, 12					; 0000000cH
	push	OFFSET ??_C@_0BC@PNMBBNHM@IgnoreTerrainCost?$AA@
	mov	ecx, DWORD PTR _t$[ebp]
	push	ecx
	mov	edx, DWORD PTR _L$[ebp]
	push	edx
	call	_lua_setfield
	add	esp, 12					; 0000000cH

; 248  : 	Method(IsNeverInvisible);

	push	0
	push	OFFSET ?lIsNeverInvisible@CvLuaUnit@@KAHPAUlua_State@@@Z ; CvLuaUnit::lIsNeverInvisible
	mov	eax, DWORD PTR _L$[ebp]
	push	eax
	call	_lua_pushcclosure
	add	esp, 12					; 0000000cH
	push	OFFSET ??_C@_0BB@IMPFCGLP@IsNeverInvisible?$AA@
	mov	ecx, DWORD PTR _t$[ebp]
	push	ecx
	mov	edx, DWORD PTR _L$[ebp]
	push	edx
	call	_lua_setfield
	add	esp, 12					; 0000000cH

; 249  : 	Method(IsInvisible);

	push	0
	push	OFFSET ?lIsInvisible@CvLuaUnit@@KAHPAUlua_State@@@Z ; CvLuaUnit::lIsInvisible
	mov	eax, DWORD PTR _L$[ebp]
	push	eax
	call	_lua_pushcclosure
	add	esp, 12					; 0000000cH
	push	OFFSET ??_C@_0M@BNMDJPAD@IsInvisible?$AA@
	mov	ecx, DWORD PTR _t$[ebp]
	push	ecx
	mov	edx, DWORD PTR _L$[ebp]
	push	edx
	call	_lua_setfield
	add	esp, 12					; 0000000cH

; 250  : 	Method(IsNukeImmune);

	push	0
	push	OFFSET ?lIsNukeImmune@CvLuaUnit@@KAHPAUlua_State@@@Z ; CvLuaUnit::lIsNukeImmune
	mov	eax, DWORD PTR _L$[ebp]
	push	eax
	call	_lua_pushcclosure
	add	esp, 12					; 0000000cH
	push	OFFSET ??_C@_0N@EJFNAKBN@IsNukeImmune?$AA@
	mov	ecx, DWORD PTR _t$[ebp]
	push	ecx
	mov	edx, DWORD PTR _L$[ebp]
	push	edx
	call	_lua_setfield
	add	esp, 12					; 0000000cH

; 251  : 	Method(IsRangeAttackOnlyInDomain);

	push	0
	push	OFFSET ?lIsRangeAttackOnlyInDomain@CvLuaUnit@@KAHPAUlua_State@@@Z ; CvLuaUnit::lIsRangeAttackOnlyInDomain
	mov	eax, DWORD PTR _L$[ebp]
	push	eax
	call	_lua_pushcclosure
	add	esp, 12					; 0000000cH
	push	OFFSET ??_C@_0BK@DIBEDCBC@IsRangeAttackOnlyInDomain?$AA@
	mov	ecx, DWORD PTR _t$[ebp]
	push	ecx
	mov	edx, DWORD PTR _L$[ebp]
	push	edx
	call	_lua_setfield
	add	esp, 12					; 0000000cH

; 252  : 	Method(IsCityAttackOnly);

	push	0
	push	OFFSET ?lIsCityAttackOnly@CvLuaUnit@@KAHPAUlua_State@@@Z ; CvLuaUnit::lIsCityAttackOnly
	mov	eax, DWORD PTR _L$[ebp]
	push	eax
	call	_lua_pushcclosure
	add	esp, 12					; 0000000cH
	push	OFFSET ??_C@_0BB@PJIAODBJ@IsCityAttackOnly?$AA@
	mov	ecx, DWORD PTR _t$[ebp]
	push	ecx
	mov	edx, DWORD PTR _L$[ebp]
	push	edx
	call	_lua_setfield
	add	esp, 12					; 0000000cH

; 253  : 
; 254  : 	Method(MaxInterceptionProbability);

	push	0
	push	OFFSET ?lMaxInterceptionProbability@CvLuaUnit@@KAHPAUlua_State@@@Z ; CvLuaUnit::lMaxInterceptionProbability
	mov	eax, DWORD PTR _L$[ebp]
	push	eax
	call	_lua_pushcclosure
	add	esp, 12					; 0000000cH
	push	OFFSET ??_C@_0BL@HEGDGCBF@MaxInterceptionProbability?$AA@
	mov	ecx, DWORD PTR _t$[ebp]
	push	ecx
	mov	edx, DWORD PTR _L$[ebp]
	push	edx
	call	_lua_setfield
	add	esp, 12					; 0000000cH

; 255  : 	Method(CurrInterceptionProbability);

	push	0
	push	OFFSET ?lCurrInterceptionProbability@CvLuaUnit@@KAHPAUlua_State@@@Z ; CvLuaUnit::lCurrInterceptionProbability
	mov	eax, DWORD PTR _L$[ebp]
	push	eax
	call	_lua_pushcclosure
	add	esp, 12					; 0000000cH
	push	OFFSET ??_C@_0BM@EFLPCPDH@CurrInterceptionProbability?$AA@
	mov	ecx, DWORD PTR _t$[ebp]
	push	ecx
	mov	edx, DWORD PTR _L$[ebp]
	push	edx
	call	_lua_setfield
	add	esp, 12					; 0000000cH

; 256  : 	Method(EvasionProbability);

	push	0
	push	OFFSET ?lEvasionProbability@CvLuaUnit@@KAHPAUlua_State@@@Z ; CvLuaUnit::lEvasionProbability
	mov	eax, DWORD PTR _L$[ebp]
	push	eax
	call	_lua_pushcclosure
	add	esp, 12					; 0000000cH
	push	OFFSET ??_C@_0BD@NJKKJPLI@EvasionProbability?$AA@
	mov	ecx, DWORD PTR _t$[ebp]
	push	ecx
	mov	edx, DWORD PTR _L$[ebp]
	push	edx
	call	_lua_setfield
	add	esp, 12					; 0000000cH

; 257  : 	Method(WithdrawalProbability);

	push	0
	push	OFFSET ?lWithdrawalProbability@CvLuaUnit@@KAHPAUlua_State@@@Z ; CvLuaUnit::lWithdrawalProbability
	mov	eax, DWORD PTR _L$[ebp]
	push	eax
	call	_lua_pushcclosure
	add	esp, 12					; 0000000cH
	push	OFFSET ??_C@_0BG@OIIHINBE@WithdrawalProbability?$AA@
	mov	ecx, DWORD PTR _t$[ebp]
	push	ecx
	mov	edx, DWORD PTR _L$[ebp]
	push	edx
	call	_lua_setfield
	add	esp, 12					; 0000000cH

; 258  : 
; 259  : 	Method(GetAdjacentModifier);

	push	0
	push	OFFSET ?lGetAdjacentModifier@CvLuaUnit@@KAHPAUlua_State@@@Z ; CvLuaUnit::lGetAdjacentModifier
	mov	eax, DWORD PTR _L$[ebp]
	push	eax
	call	_lua_pushcclosure
	add	esp, 12					; 0000000cH
	push	OFFSET ??_C@_0BE@DLLGHCIO@GetAdjacentModifier?$AA@
	mov	ecx, DWORD PTR _t$[ebp]
	push	ecx
	mov	edx, DWORD PTR _L$[ebp]
	push	edx
	call	_lua_setfield
	add	esp, 12					; 0000000cH

; 260  : 	Method(GetAttackModifier);

	push	0
	push	OFFSET ?lGetAttackModifier@CvLuaUnit@@KAHPAUlua_State@@@Z ; CvLuaUnit::lGetAttackModifier
	mov	eax, DWORD PTR _L$[ebp]
	push	eax
	call	_lua_pushcclosure
	add	esp, 12					; 0000000cH
	push	OFFSET ??_C@_0BC@JDEOODFC@GetAttackModifier?$AA@
	mov	ecx, DWORD PTR _t$[ebp]
	push	ecx
	mov	edx, DWORD PTR _L$[ebp]
	push	edx
	call	_lua_setfield
	add	esp, 12					; 0000000cH

; 261  : 	Method(GetDefenseModifier);

	push	0
	push	OFFSET ?lGetDefenseModifier@CvLuaUnit@@KAHPAUlua_State@@@Z ; CvLuaUnit::lGetDefenseModifier
	mov	eax, DWORD PTR _L$[ebp]
	push	eax
	call	_lua_pushcclosure
	add	esp, 12					; 0000000cH
	push	OFFSET ??_C@_0BD@DOEJPBBH@GetDefenseModifier?$AA@
	mov	ecx, DWORD PTR _t$[ebp]
	push	ecx
	mov	edx, DWORD PTR _L$[ebp]
	push	edx
	call	_lua_setfield
	add	esp, 12					; 0000000cH

; 262  : 	Method(GetRangedAttackModifier);

	push	0
	push	OFFSET ?lGetRangedAttackModifier@CvLuaUnit@@KAHPAUlua_State@@@Z ; CvLuaUnit::lGetRangedAttackModifier
	mov	eax, DWORD PTR _L$[ebp]
	push	eax
	call	_lua_pushcclosure
	add	esp, 12					; 0000000cH
	push	OFFSET ??_C@_0BI@DOOFICGI@GetRangedAttackModifier?$AA@
	mov	ecx, DWORD PTR _t$[ebp]
	push	ecx
	mov	edx, DWORD PTR _L$[ebp]
	push	edx
	call	_lua_setfield
	add	esp, 12					; 0000000cH

; 263  : 	Method(CityAttackModifier);

	push	0
	push	OFFSET ?lCityAttackModifier@CvLuaUnit@@KAHPAUlua_State@@@Z ; CvLuaUnit::lCityAttackModifier
	mov	eax, DWORD PTR _L$[ebp]
	push	eax
	call	_lua_pushcclosure
	add	esp, 12					; 0000000cH
	push	OFFSET ??_C@_0BD@BNNFDFCP@CityAttackModifier?$AA@
	mov	ecx, DWORD PTR _t$[ebp]
	push	ecx
	mov	edx, DWORD PTR _L$[ebp]
	push	edx
	call	_lua_setfield
	add	esp, 12					; 0000000cH

; 264  : 	Method(CityDefenseModifier);

	push	0
	push	OFFSET ?lCityDefenseModifier@CvLuaUnit@@KAHPAUlua_State@@@Z ; CvLuaUnit::lCityDefenseModifier
	mov	eax, DWORD PTR _L$[ebp]
	push	eax
	call	_lua_pushcclosure
	add	esp, 12					; 0000000cH
	push	OFFSET ??_C@_0BE@BAHDGHEA@CityDefenseModifier?$AA@
	mov	ecx, DWORD PTR _t$[ebp]
	push	ecx
	mov	edx, DWORD PTR _L$[ebp]
	push	edx
	call	_lua_setfield
	add	esp, 12					; 0000000cH

; 265  : 	Method(HillsAttackModifier);

	push	0
	push	OFFSET ?lHillsAttackModifier@CvLuaUnit@@KAHPAUlua_State@@@Z ; CvLuaUnit::lHillsAttackModifier
	mov	eax, DWORD PTR _L$[ebp]
	push	eax
	call	_lua_pushcclosure
	add	esp, 12					; 0000000cH
	push	OFFSET ??_C@_0BE@NKLCHBCB@HillsAttackModifier?$AA@
	mov	ecx, DWORD PTR _t$[ebp]
	push	ecx
	mov	edx, DWORD PTR _L$[ebp]
	push	edx
	call	_lua_setfield
	add	esp, 12					; 0000000cH

; 266  : #ifdef NQ_HEAVY_CHARGE_DOWNHILL
; 267  : 	Method(HeavyChargeDownhillModifier);

	push	0
	push	OFFSET ?lHeavyChargeDownhillModifier@CvLuaUnit@@KAHPAUlua_State@@@Z ; CvLuaUnit::lHeavyChargeDownhillModifier
	mov	eax, DWORD PTR _L$[ebp]
	push	eax
	call	_lua_pushcclosure
	add	esp, 12					; 0000000cH
	push	OFFSET ??_C@_0BM@HLDAPOIG@HeavyChargeDownhillModifier?$AA@
	mov	ecx, DWORD PTR _t$[ebp]
	push	ecx
	mov	edx, DWORD PTR _L$[ebp]
	push	edx
	call	_lua_setfield
	add	esp, 12					; 0000000cH

; 268  : #endif
; 269  : 	Method(HillsDefenseModifier);

	push	0
	push	OFFSET ?lHillsDefenseModifier@CvLuaUnit@@KAHPAUlua_State@@@Z ; CvLuaUnit::lHillsDefenseModifier
	mov	eax, DWORD PTR _L$[ebp]
	push	eax
	call	_lua_pushcclosure
	add	esp, 12					; 0000000cH
	push	OFFSET ??_C@_0BF@PHAMCNAD@HillsDefenseModifier?$AA@
	mov	ecx, DWORD PTR _t$[ebp]
	push	ecx
	mov	edx, DWORD PTR _L$[ebp]
	push	edx
	call	_lua_setfield
	add	esp, 12					; 0000000cH

; 270  : 	Method(RoughAttackModifier);

	push	0
	push	OFFSET ?lRoughAttackModifier@CvLuaUnit@@KAHPAUlua_State@@@Z ; CvLuaUnit::lRoughAttackModifier
	mov	eax, DWORD PTR _L$[ebp]
	push	eax
	call	_lua_pushcclosure
	add	esp, 12					; 0000000cH
	push	OFFSET ??_C@_0BE@CPGLDEOF@RoughAttackModifier?$AA@
	mov	ecx, DWORD PTR _t$[ebp]
	push	ecx
	mov	edx, DWORD PTR _L$[ebp]
	push	edx
	call	_lua_setfield
	add	esp, 12					; 0000000cH

; 271  : 	Method(OpenAttackModifier);

	push	0
	push	OFFSET ?lOpenAttackModifier@CvLuaUnit@@KAHPAUlua_State@@@Z ; CvLuaUnit::lOpenAttackModifier
	mov	eax, DWORD PTR _L$[ebp]
	push	eax
	call	_lua_pushcclosure
	add	esp, 12					; 0000000cH
	push	OFFSET ??_C@_0BD@KAJFPFGI@OpenAttackModifier?$AA@
	mov	ecx, DWORD PTR _t$[ebp]
	push	ecx
	mov	edx, DWORD PTR _L$[ebp]
	push	edx
	call	_lua_setfield
	add	esp, 12					; 0000000cH

; 272  : 	Method(OpenRangedAttackModifier);

	push	0
	push	OFFSET ?lOpenRangedAttackModifier@CvLuaUnit@@KAHPAUlua_State@@@Z ; CvLuaUnit::lOpenRangedAttackModifier
	mov	eax, DWORD PTR _L$[ebp]
	push	eax
	call	_lua_pushcclosure
	add	esp, 12					; 0000000cH
	push	OFFSET ??_C@_0BJ@KDNMKBNA@OpenRangedAttackModifier?$AA@
	mov	ecx, DWORD PTR _t$[ebp]
	push	ecx
	mov	edx, DWORD PTR _L$[ebp]
	push	edx
	call	_lua_setfield
	add	esp, 12					; 0000000cH

; 273  : 	Method(OpenDefenseModifier);

	push	0
	push	OFFSET ?lOpenDefenseModifier@CvLuaUnit@@KAHPAUlua_State@@@Z ; CvLuaUnit::lOpenDefenseModifier
	mov	eax, DWORD PTR _L$[ebp]
	push	eax
	call	_lua_pushcclosure
	add	esp, 12					; 0000000cH
	push	OFFSET ??_C@_0BE@PIHGPDLD@OpenDefenseModifier?$AA@
	mov	ecx, DWORD PTR _t$[ebp]
	push	ecx
	mov	edx, DWORD PTR _L$[ebp]
	push	edx
	call	_lua_setfield
	add	esp, 12					; 0000000cH

; 274  : 	Method(RoughRangedAttackModifier);

	push	0
	push	OFFSET ?lRoughRangedAttackModifier@CvLuaUnit@@KAHPAUlua_State@@@Z ; CvLuaUnit::lRoughRangedAttackModifier
	mov	eax, DWORD PTR _L$[ebp]
	push	eax
	call	_lua_pushcclosure
	add	esp, 12					; 0000000cH
	push	OFFSET ??_C@_0BK@FJFHFKJE@RoughRangedAttackModifier?$AA@
	mov	ecx, DWORD PTR _t$[ebp]
	push	ecx
	mov	edx, DWORD PTR _L$[ebp]
	push	edx
	call	_lua_setfield
	add	esp, 12					; 0000000cH

; 275  : 	Method(AttackFortifiedModifier);

	push	0
	push	OFFSET ?lAttackFortifiedModifier@CvLuaUnit@@KAHPAUlua_State@@@Z ; CvLuaUnit::lAttackFortifiedModifier
	mov	eax, DWORD PTR _L$[ebp]
	push	eax
	call	_lua_pushcclosure
	add	esp, 12					; 0000000cH
	push	OFFSET ??_C@_0BI@JHKANDHP@AttackFortifiedModifier?$AA@
	mov	ecx, DWORD PTR _t$[ebp]
	push	ecx
	mov	edx, DWORD PTR _L$[ebp]
	push	edx
	call	_lua_setfield
	add	esp, 12					; 0000000cH

; 276  : 	Method(AttackWoundedModifier);

	push	0
	push	OFFSET ?lAttackWoundedModifier@CvLuaUnit@@KAHPAUlua_State@@@Z ; CvLuaUnit::lAttackWoundedModifier
	mov	eax, DWORD PTR _L$[ebp]
	push	eax
	call	_lua_pushcclosure
	add	esp, 12					; 0000000cH
	push	OFFSET ??_C@_0BG@FIKOLHBD@AttackWoundedModifier?$AA@
	mov	ecx, DWORD PTR _t$[ebp]
	push	ecx
	mov	edx, DWORD PTR _L$[ebp]
	push	edx
	call	_lua_setfield
	add	esp, 12					; 0000000cH

; 277  : 	Method(FlankAttackModifier);

	push	0
	push	OFFSET ?lFlankAttackModifier@CvLuaUnit@@KAHPAUlua_State@@@Z ; CvLuaUnit::lFlankAttackModifier
	mov	eax, DWORD PTR _L$[ebp]
	push	eax
	call	_lua_pushcclosure
	add	esp, 12					; 0000000cH
	push	OFFSET ??_C@_0BE@EPGDEJAB@FlankAttackModifier?$AA@
	mov	ecx, DWORD PTR _t$[ebp]
	push	ecx
	mov	edx, DWORD PTR _L$[ebp]
	push	edx
	call	_lua_setfield
	add	esp, 12					; 0000000cH

; 278  : 	Method(RoughDefenseModifier);

	push	0
	push	OFFSET ?lRoughDefenseModifier@CvLuaUnit@@KAHPAUlua_State@@@Z ; CvLuaUnit::lRoughDefenseModifier
	mov	eax, DWORD PTR _L$[ebp]
	push	eax
	call	_lua_pushcclosure
	add	esp, 12					; 0000000cH
	push	OFFSET ??_C@_0BF@GLPAPCOP@RoughDefenseModifier?$AA@
	mov	ecx, DWORD PTR _t$[ebp]
	push	ecx
	mov	edx, DWORD PTR _L$[ebp]
	push	edx
	call	_lua_setfield
	add	esp, 12					; 0000000cH

; 279  : 	Method(TerrainAttackModifier);

	push	0
	push	OFFSET ?lTerrainAttackModifier@CvLuaUnit@@KAHPAUlua_State@@@Z ; CvLuaUnit::lTerrainAttackModifier
	mov	eax, DWORD PTR _L$[ebp]
	push	eax
	call	_lua_pushcclosure
	add	esp, 12					; 0000000cH
	push	OFFSET ??_C@_0BG@FAKOOKFA@TerrainAttackModifier?$AA@
	mov	ecx, DWORD PTR _t$[ebp]
	push	ecx
	mov	edx, DWORD PTR _L$[ebp]
	push	edx
	call	_lua_setfield
	add	esp, 12					; 0000000cH

; 280  : 	Method(TerrainDefenseModifier);

	push	0
	push	OFFSET ?lTerrainDefenseModifier@CvLuaUnit@@KAHPAUlua_State@@@Z ; CvLuaUnit::lTerrainDefenseModifier
	mov	eax, DWORD PTR _L$[ebp]
	push	eax
	call	_lua_pushcclosure
	add	esp, 12					; 0000000cH
	push	OFFSET ??_C@_0BH@NAIEHADC@TerrainDefenseModifier?$AA@
	mov	ecx, DWORD PTR _t$[ebp]
	push	ecx
	mov	edx, DWORD PTR _L$[ebp]
	push	edx
	call	_lua_setfield
	add	esp, 12					; 0000000cH

; 281  : 	Method(FeatureAttackModifier);

	push	0
	push	OFFSET ?lFeatureAttackModifier@CvLuaUnit@@KAHPAUlua_State@@@Z ; CvLuaUnit::lFeatureAttackModifier
	mov	eax, DWORD PTR _L$[ebp]
	push	eax
	call	_lua_pushcclosure
	add	esp, 12					; 0000000cH
	push	OFFSET ??_C@_0BG@NILBKJKJ@FeatureAttackModifier?$AA@
	mov	ecx, DWORD PTR _t$[ebp]
	push	ecx
	mov	edx, DWORD PTR _L$[ebp]
	push	edx
	call	_lua_setfield
	add	esp, 12					; 0000000cH

; 282  : 	Method(FeatureDefenseModifier);

	push	0
	push	OFFSET ?lFeatureDefenseModifier@CvLuaUnit@@KAHPAUlua_State@@@Z ; CvLuaUnit::lFeatureDefenseModifier
	mov	eax, DWORD PTR _L$[ebp]
	push	eax
	call	_lua_pushcclosure
	add	esp, 12					; 0000000cH
	push	OFFSET ??_C@_0BH@BEGNCFMJ@FeatureDefenseModifier?$AA@
	mov	ecx, DWORD PTR _t$[ebp]
	push	ecx
	mov	edx, DWORD PTR _L$[ebp]
	push	edx
	call	_lua_setfield
	add	esp, 12					; 0000000cH

; 283  : 	Method(UnitClassAttackModifier);

	push	0
	push	OFFSET ?lUnitClassAttackModifier@CvLuaUnit@@KAHPAUlua_State@@@Z ; CvLuaUnit::lUnitClassAttackModifier
	mov	eax, DWORD PTR _L$[ebp]
	push	eax
	call	_lua_pushcclosure
	add	esp, 12					; 0000000cH
	push	OFFSET ??_C@_0BI@NFGAIELD@UnitClassAttackModifier?$AA@
	mov	ecx, DWORD PTR _t$[ebp]
	push	ecx
	mov	edx, DWORD PTR _L$[ebp]
	push	edx
	call	_lua_setfield
	add	esp, 12					; 0000000cH

; 284  : 	Method(UnitClassDefenseModifier);

	push	0
	push	OFFSET ?lUnitClassDefenseModifier@CvLuaUnit@@KAHPAUlua_State@@@Z ; CvLuaUnit::lUnitClassDefenseModifier
	mov	eax, DWORD PTR _L$[ebp]
	push	eax
	call	_lua_pushcclosure
	add	esp, 12					; 0000000cH
	push	OFFSET ??_C@_0BJ@OJACANJO@UnitClassDefenseModifier?$AA@
	mov	ecx, DWORD PTR _t$[ebp]
	push	ecx
	mov	edx, DWORD PTR _L$[ebp]
	push	edx
	call	_lua_setfield
	add	esp, 12					; 0000000cH

; 285  : 	Method(UnitCombatModifier);

	push	0
	push	OFFSET ?lUnitCombatModifier@CvLuaUnit@@KAHPAUlua_State@@@Z ; CvLuaUnit::lUnitCombatModifier
	mov	eax, DWORD PTR _L$[ebp]
	push	eax
	call	_lua_pushcclosure
	add	esp, 12					; 0000000cH
	push	OFFSET ??_C@_0BD@DFAJNMBC@UnitCombatModifier?$AA@
	mov	ecx, DWORD PTR _t$[ebp]
	push	ecx
	mov	edx, DWORD PTR _L$[ebp]
	push	edx
	call	_lua_setfield
	add	esp, 12					; 0000000cH

; 286  : 	Method(DomainModifier);

	push	0
	push	OFFSET ?lDomainModifier@CvLuaUnit@@KAHPAUlua_State@@@Z ; CvLuaUnit::lDomainModifier
	mov	eax, DWORD PTR _L$[ebp]
	push	eax
	call	_lua_pushcclosure
	add	esp, 12					; 0000000cH
	push	OFFSET ??_C@_0P@NJCAJHBI@DomainModifier?$AA@
	mov	ecx, DWORD PTR _t$[ebp]
	push	ecx
	mov	edx, DWORD PTR _L$[ebp]
	push	edx
	call	_lua_setfield
	add	esp, 12					; 0000000cH

; 287  : 	Method(GetStrategicResourceCombatPenalty);

	push	0
	push	OFFSET ?lGetStrategicResourceCombatPenalty@CvLuaUnit@@KAHPAUlua_State@@@Z ; CvLuaUnit::lGetStrategicResourceCombatPenalty
	mov	eax, DWORD PTR _L$[ebp]
	push	eax
	call	_lua_pushcclosure
	add	esp, 12					; 0000000cH
	push	OFFSET ??_C@_0CC@OAGBAAPI@GetStrategicResourceCombatPenalt@
	mov	ecx, DWORD PTR _t$[ebp]
	push	ecx
	mov	edx, DWORD PTR _L$[ebp]
	push	edx
	call	_lua_setfield
	add	esp, 12					; 0000000cH

; 288  : 	Method(GetUnhappinessCombatPenalty);

	push	0
	push	OFFSET ?lGetUnhappinessCombatPenalty@CvLuaUnit@@KAHPAUlua_State@@@Z ; CvLuaUnit::lGetUnhappinessCombatPenalty
	mov	eax, DWORD PTR _L$[ebp]
	push	eax
	call	_lua_pushcclosure
	add	esp, 12					; 0000000cH
	push	OFFSET ??_C@_0BM@KMIJFMOI@GetUnhappinessCombatPenalty?$AA@
	mov	ecx, DWORD PTR _t$[ebp]
	push	ecx
	mov	edx, DWORD PTR _L$[ebp]
	push	edx
	call	_lua_setfield
	add	esp, 12					; 0000000cH

; 289  : 	Method(AirSweepCombatMod);

	push	0
	push	OFFSET ?lAirSweepCombatMod@CvLuaUnit@@KAHPAUlua_State@@@Z ; CvLuaUnit::lAirSweepCombatMod
	mov	eax, DWORD PTR _L$[ebp]
	push	eax
	call	_lua_pushcclosure
	add	esp, 12					; 0000000cH
	push	OFFSET ??_C@_0BC@IPOJCGCM@AirSweepCombatMod?$AA@
	mov	ecx, DWORD PTR _t$[ebp]
	push	ecx
	mov	edx, DWORD PTR _L$[ebp]
	push	edx
	call	_lua_setfield
	add	esp, 12					; 0000000cH

; 290  : 	Method(CapitalDefenseModifier);

	push	0
	push	OFFSET ?lCapitalDefenseModifier@CvLuaUnit@@KAHPAUlua_State@@@Z ; CvLuaUnit::lCapitalDefenseModifier
	mov	eax, DWORD PTR _L$[ebp]
	push	eax
	call	_lua_pushcclosure
	add	esp, 12					; 0000000cH
	push	OFFSET ??_C@_0BH@CDDLEEIL@CapitalDefenseModifier?$AA@
	mov	ecx, DWORD PTR _t$[ebp]
	push	ecx
	mov	edx, DWORD PTR _L$[ebp]
	push	edx
	call	_lua_setfield
	add	esp, 12					; 0000000cH

; 291  : 	Method(CapitalDefenseFalloff);

	push	0
	push	OFFSET ?lCapitalDefenseFalloff@CvLuaUnit@@KAHPAUlua_State@@@Z ; CvLuaUnit::lCapitalDefenseFalloff
	mov	eax, DWORD PTR _L$[ebp]
	push	eax
	call	_lua_pushcclosure
	add	esp, 12					; 0000000cH
	push	OFFSET ??_C@_0BG@CILHBFIF@CapitalDefenseFalloff?$AA@
	mov	ecx, DWORD PTR _t$[ebp]
	push	ecx
	mov	edx, DWORD PTR _L$[ebp]
	push	edx
	call	_lua_setfield
	add	esp, 12					; 0000000cH

; 292  : 
; 293  : 	Method(SpecialCargo);

	push	0
	push	OFFSET ?lSpecialCargo@CvLuaUnit@@KAHPAUlua_State@@@Z ; CvLuaUnit::lSpecialCargo
	mov	eax, DWORD PTR _L$[ebp]
	push	eax
	call	_lua_pushcclosure
	add	esp, 12					; 0000000cH
	push	OFFSET ??_C@_0N@JIBALDJB@SpecialCargo?$AA@
	mov	ecx, DWORD PTR _t$[ebp]
	push	ecx
	mov	edx, DWORD PTR _L$[ebp]
	push	edx
	call	_lua_setfield
	add	esp, 12					; 0000000cH

; 294  : 	Method(DomainCargo);

	push	0
	push	OFFSET ?lDomainCargo@CvLuaUnit@@KAHPAUlua_State@@@Z ; CvLuaUnit::lDomainCargo
	mov	eax, DWORD PTR _L$[ebp]
	push	eax
	call	_lua_pushcclosure
	add	esp, 12					; 0000000cH
	push	OFFSET ??_C@_0M@EMBKKFAL@DomainCargo?$AA@
	mov	ecx, DWORD PTR _t$[ebp]
	push	ecx
	mov	edx, DWORD PTR _L$[ebp]
	push	edx
	call	_lua_setfield
	add	esp, 12					; 0000000cH

; 295  : 	Method(CargoSpace);

	push	0
	push	OFFSET ?lCargoSpace@CvLuaUnit@@KAHPAUlua_State@@@Z ; CvLuaUnit::lCargoSpace
	mov	eax, DWORD PTR _L$[ebp]
	push	eax
	call	_lua_pushcclosure
	add	esp, 12					; 0000000cH
	push	OFFSET ??_C@_0L@DODLMACF@CargoSpace?$AA@
	mov	ecx, DWORD PTR _t$[ebp]
	push	ecx
	mov	edx, DWORD PTR _L$[ebp]
	push	edx
	call	_lua_setfield
	add	esp, 12					; 0000000cH

; 296  : 	Method(ChangeCargoSpace);

	push	0
	push	OFFSET ?lChangeCargoSpace@CvLuaUnit@@KAHPAUlua_State@@@Z ; CvLuaUnit::lChangeCargoSpace
	mov	eax, DWORD PTR _L$[ebp]
	push	eax
	call	_lua_pushcclosure
	add	esp, 12					; 0000000cH
	push	OFFSET ??_C@_0BB@KHCPCPHA@ChangeCargoSpace?$AA@
	mov	ecx, DWORD PTR _t$[ebp]
	push	ecx
	mov	edx, DWORD PTR _L$[ebp]
	push	edx
	call	_lua_setfield
	add	esp, 12					; 0000000cH

; 297  : 	Method(IsFull);

	push	0
	push	OFFSET ?lIsFull@CvLuaUnit@@KAHPAUlua_State@@@Z ; CvLuaUnit::lIsFull
	mov	eax, DWORD PTR _L$[ebp]
	push	eax
	call	_lua_pushcclosure
	add	esp, 12					; 0000000cH
	push	OFFSET ??_C@_06DNGBIEOM@IsFull?$AA@
	mov	ecx, DWORD PTR _t$[ebp]
	push	ecx
	mov	edx, DWORD PTR _L$[ebp]
	push	edx
	call	_lua_setfield
	add	esp, 12					; 0000000cH

; 298  : 	Method(CargoSpaceAvailable);

	push	0
	push	OFFSET ?lCargoSpaceAvailable@CvLuaUnit@@KAHPAUlua_State@@@Z ; CvLuaUnit::lCargoSpaceAvailable
	mov	eax, DWORD PTR _L$[ebp]
	push	eax
	call	_lua_pushcclosure
	add	esp, 12					; 0000000cH
	push	OFFSET ??_C@_0BE@MFHGGLIO@CargoSpaceAvailable?$AA@
	mov	ecx, DWORD PTR _t$[ebp]
	push	ecx
	mov	edx, DWORD PTR _L$[ebp]
	push	edx
	call	_lua_setfield
	add	esp, 12					; 0000000cH

; 299  : 	Method(HasCargo);

	push	0
	push	OFFSET ?lHasCargo@CvLuaUnit@@KAHPAUlua_State@@@Z ; CvLuaUnit::lHasCargo
	mov	eax, DWORD PTR _L$[ebp]
	push	eax
	call	_lua_pushcclosure
	add	esp, 12					; 0000000cH
	push	OFFSET ??_C@_08POCIMEDI@HasCargo?$AA@
	mov	ecx, DWORD PTR _t$[ebp]
	push	ecx
	mov	edx, DWORD PTR _L$[ebp]
	push	edx
	call	_lua_setfield
	add	esp, 12					; 0000000cH

; 300  : 	Method(CanCargoAllMove);

	push	0
	push	OFFSET ?lCanCargoAllMove@CvLuaUnit@@KAHPAUlua_State@@@Z ; CvLuaUnit::lCanCargoAllMove
	mov	eax, DWORD PTR _L$[ebp]
	push	eax
	call	_lua_pushcclosure
	add	esp, 12					; 0000000cH
	push	OFFSET ??_C@_0BA@FAKJAOCC@CanCargoAllMove?$AA@
	mov	ecx, DWORD PTR _t$[ebp]
	push	ecx
	mov	edx, DWORD PTR _L$[ebp]
	push	edx
	call	_lua_setfield
	add	esp, 12					; 0000000cH

; 301  : 	Method(GetUnitAICargo);

	push	0
	push	OFFSET ?lGetUnitAICargo@CvLuaUnit@@KAHPAUlua_State@@@Z ; CvLuaUnit::lGetUnitAICargo
	mov	eax, DWORD PTR _L$[ebp]
	push	eax
	call	_lua_pushcclosure
	add	esp, 12					; 0000000cH
	push	OFFSET ??_C@_0P@FKNDEEFE@GetUnitAICargo?$AA@
	mov	ecx, DWORD PTR _t$[ebp]
	push	ecx
	mov	edx, DWORD PTR _L$[ebp]
	push	edx
	call	_lua_setfield
	add	esp, 12					; 0000000cH

; 302  : 	Method(GetID);

	push	0
	push	OFFSET ?lGetID@CvLuaUnit@@KAHPAUlua_State@@@Z ; CvLuaUnit::lGetID
	mov	eax, DWORD PTR _L$[ebp]
	push	eax
	call	_lua_pushcclosure
	add	esp, 12					; 0000000cH
	push	OFFSET ??_C@_05CLBJHDA@GetID?$AA@
	mov	ecx, DWORD PTR _t$[ebp]
	push	ecx
	mov	edx, DWORD PTR _L$[ebp]
	push	edx
	call	_lua_setfield
	add	esp, 12					; 0000000cH

; 303  : 
; 304  : 	Method(GetHotKeyNumber);

	push	0
	push	OFFSET ?lGetHotKeyNumber@CvLuaUnit@@KAHPAUlua_State@@@Z ; CvLuaUnit::lGetHotKeyNumber
	mov	eax, DWORD PTR _L$[ebp]
	push	eax
	call	_lua_pushcclosure
	add	esp, 12					; 0000000cH
	push	OFFSET ??_C@_0BA@JOPIFDEH@GetHotKeyNumber?$AA@
	mov	ecx, DWORD PTR _t$[ebp]
	push	ecx
	mov	edx, DWORD PTR _L$[ebp]
	push	edx
	call	_lua_setfield
	add	esp, 12					; 0000000cH

; 305  : 	Method(SetHotKeyNumber);

	push	0
	push	OFFSET ?lSetHotKeyNumber@CvLuaUnit@@KAHPAUlua_State@@@Z ; CvLuaUnit::lSetHotKeyNumber
	mov	eax, DWORD PTR _L$[ebp]
	push	eax
	call	_lua_pushcclosure
	add	esp, 12					; 0000000cH
	push	OFFSET ??_C@_0BA@KMOOCBFO@SetHotKeyNumber?$AA@
	mov	ecx, DWORD PTR _t$[ebp]
	push	ecx
	mov	edx, DWORD PTR _L$[ebp]
	push	edx
	call	_lua_setfield
	add	esp, 12					; 0000000cH

; 306  : 
; 307  : 	Method(GetX);

	push	0
	push	OFFSET ?lGetX@CvLuaUnit@@KAHPAUlua_State@@@Z ; CvLuaUnit::lGetX
	mov	eax, DWORD PTR _L$[ebp]
	push	eax
	call	_lua_pushcclosure
	add	esp, 12					; 0000000cH
	push	OFFSET ??_C@_04POGMJMFK@GetX?$AA@
	mov	ecx, DWORD PTR _t$[ebp]
	push	ecx
	mov	edx, DWORD PTR _L$[ebp]
	push	edx
	call	_lua_setfield
	add	esp, 12					; 0000000cH

; 308  : 	Method(GetY);

	push	0
	push	OFFSET ?lGetY@CvLuaUnit@@KAHPAUlua_State@@@Z ; CvLuaUnit::lGetY
	mov	eax, DWORD PTR _L$[ebp]
	push	eax
	call	_lua_pushcclosure
	add	esp, 12					; 0000000cH
	push	OFFSET ??_C@_04OHHHKNBL@GetY?$AA@
	mov	ecx, DWORD PTR _t$[ebp]
	push	ecx
	mov	edx, DWORD PTR _L$[ebp]
	push	edx
	call	_lua_setfield
	add	esp, 12					; 0000000cH

; 309  : 	Method(SetXY);

	push	0
	push	OFFSET ?lSetXY@CvLuaUnit@@KAHPAUlua_State@@@Z ; CvLuaUnit::lSetXY
	mov	eax, DWORD PTR _L$[ebp]
	push	eax
	call	_lua_pushcclosure
	add	esp, 12					; 0000000cH
	push	OFFSET ??_C@_05HIHOHCOG@SetXY?$AA@
	mov	ecx, DWORD PTR _t$[ebp]
	push	ecx
	mov	edx, DWORD PTR _L$[ebp]
	push	edx
	call	_lua_setfield
	add	esp, 12					; 0000000cH

; 310  : 	Method(At);

	push	0
	push	OFFSET ?lAt@CvLuaUnit@@KAHPAUlua_State@@@Z ; CvLuaUnit::lAt
	mov	eax, DWORD PTR _L$[ebp]
	push	eax
	call	_lua_pushcclosure
	add	esp, 12					; 0000000cH
	push	OFFSET ??_C@_02DKLFHNOI@At?$AA@
	mov	ecx, DWORD PTR _t$[ebp]
	push	ecx
	mov	edx, DWORD PTR _L$[ebp]
	push	edx
	call	_lua_setfield
	add	esp, 12					; 0000000cH

; 311  : 	Method(AtPlot);

	push	0
	push	OFFSET ?lAtPlot@CvLuaUnit@@KAHPAUlua_State@@@Z ; CvLuaUnit::lAtPlot
	mov	eax, DWORD PTR _L$[ebp]
	push	eax
	call	_lua_pushcclosure
	add	esp, 12					; 0000000cH
	push	OFFSET ??_C@_06FBGHKGAE@AtPlot?$AA@
	mov	ecx, DWORD PTR _t$[ebp]
	push	ecx
	mov	edx, DWORD PTR _L$[ebp]
	push	edx
	call	_lua_setfield
	add	esp, 12					; 0000000cH

; 312  : 	Method(GetPlot);

	push	0
	push	OFFSET ?lGetPlot@CvLuaUnit@@KAHPAUlua_State@@@Z ; CvLuaUnit::lGetPlot
	mov	eax, DWORD PTR _L$[ebp]
	push	eax
	call	_lua_pushcclosure
	add	esp, 12					; 0000000cH
	push	OFFSET ??_C@_07LBIDHAGI@GetPlot?$AA@
	mov	ecx, DWORD PTR _t$[ebp]
	push	ecx
	mov	edx, DWORD PTR _L$[ebp]
	push	edx
	call	_lua_setfield
	add	esp, 12					; 0000000cH

; 313  : 	Method(GetArea);

	push	0
	push	OFFSET ?lGetArea@CvLuaUnit@@KAHPAUlua_State@@@Z ; CvLuaUnit::lGetArea
	mov	eax, DWORD PTR _L$[ebp]
	push	eax
	call	_lua_pushcclosure
	add	esp, 12					; 0000000cH
	push	OFFSET ??_C@_07GGOHINDE@GetArea?$AA@
	mov	ecx, DWORD PTR _t$[ebp]
	push	ecx
	mov	edx, DWORD PTR _L$[ebp]
	push	edx
	call	_lua_setfield
	add	esp, 12					; 0000000cH

; 314  : 	Method(GetReconPlot);

	push	0
	push	OFFSET ?lGetReconPlot@CvLuaUnit@@KAHPAUlua_State@@@Z ; CvLuaUnit::lGetReconPlot
	mov	eax, DWORD PTR _L$[ebp]
	push	eax
	call	_lua_pushcclosure
	add	esp, 12					; 0000000cH
	push	OFFSET ??_C@_0N@DFDFMEJI@GetReconPlot?$AA@
	mov	ecx, DWORD PTR _t$[ebp]
	push	ecx
	mov	edx, DWORD PTR _L$[ebp]
	push	edx
	call	_lua_setfield
	add	esp, 12					; 0000000cH

; 315  : 	Method(SetReconPlot);

	push	0
	push	OFFSET ?lSetReconPlot@CvLuaUnit@@KAHPAUlua_State@@@Z ; CvLuaUnit::lSetReconPlot
	mov	eax, DWORD PTR _L$[ebp]
	push	eax
	call	_lua_pushcclosure
	add	esp, 12					; 0000000cH
	push	OFFSET ??_C@_0N@EBILAINE@SetReconPlot?$AA@
	mov	ecx, DWORD PTR _t$[ebp]
	push	ecx
	mov	edx, DWORD PTR _L$[ebp]
	push	edx
	call	_lua_setfield
	add	esp, 12					; 0000000cH

; 316  : 
; 317  : 	Method(GetGameTurnCreated);

	push	0
	push	OFFSET ?lGetGameTurnCreated@CvLuaUnit@@KAHPAUlua_State@@@Z ; CvLuaUnit::lGetGameTurnCreated
	mov	eax, DWORD PTR _L$[ebp]
	push	eax
	call	_lua_pushcclosure
	add	esp, 12					; 0000000cH
	push	OFFSET ??_C@_0BD@GLLONDKJ@GetGameTurnCreated?$AA@
	mov	ecx, DWORD PTR _t$[ebp]
	push	ecx
	mov	edx, DWORD PTR _L$[ebp]
	push	edx
	call	_lua_setfield
	add	esp, 12					; 0000000cH

; 318  : 	Method(GetLastMoveTurn);

	push	0
	push	OFFSET ?lGetLastMoveTurn@CvLuaUnit@@KAHPAUlua_State@@@Z ; CvLuaUnit::lGetLastMoveTurn
	mov	eax, DWORD PTR _L$[ebp]
	push	eax
	call	_lua_pushcclosure
	add	esp, 12					; 0000000cH
	push	OFFSET ??_C@_0BA@ICPFIKDJ@GetLastMoveTurn?$AA@
	mov	ecx, DWORD PTR _t$[ebp]
	push	ecx
	mov	edx, DWORD PTR _L$[ebp]
	push	edx
	call	_lua_setfield
	add	esp, 12					; 0000000cH

; 319  : 
; 320  : 	Method(GetDamage);

	push	0
	push	OFFSET ?lGetDamage@CvLuaUnit@@KAHPAUlua_State@@@Z ; CvLuaUnit::lGetDamage
	mov	eax, DWORD PTR _L$[ebp]
	push	eax
	call	_lua_pushcclosure
	add	esp, 12					; 0000000cH
	push	OFFSET ??_C@_09JKDLDMJJ@GetDamage?$AA@
	mov	ecx, DWORD PTR _t$[ebp]
	push	ecx
	mov	edx, DWORD PTR _L$[ebp]
	push	edx
	call	_lua_setfield
	add	esp, 12					; 0000000cH

; 321  : 	Method(SetDamage);

	push	0
	push	OFFSET ?lSetDamage@CvLuaUnit@@KAHPAUlua_State@@@Z ; CvLuaUnit::lSetDamage
	mov	eax, DWORD PTR _L$[ebp]
	push	eax
	call	_lua_pushcclosure
	add	esp, 12					; 0000000cH
	push	OFFSET ??_C@_09LEHOBNAL@SetDamage?$AA@
	mov	ecx, DWORD PTR _t$[ebp]
	push	ecx
	mov	edx, DWORD PTR _L$[ebp]
	push	edx
	call	_lua_setfield
	add	esp, 12					; 0000000cH

; 322  : 	Method(ChangeDamage);

	push	0
	push	OFFSET ?lChangeDamage@CvLuaUnit@@KAHPAUlua_State@@@Z ; CvLuaUnit::lChangeDamage
	mov	eax, DWORD PTR _L$[ebp]
	push	eax
	call	_lua_pushcclosure
	add	esp, 12					; 0000000cH
	push	OFFSET ??_C@_0N@OECJINCP@ChangeDamage?$AA@
	mov	ecx, DWORD PTR _t$[ebp]
	push	ecx
	mov	edx, DWORD PTR _L$[ebp]
	push	edx
	call	_lua_setfield
	add	esp, 12					; 0000000cH

; 323  : 	Method(GetMoves);

	push	0
	push	OFFSET ?lGetMoves@CvLuaUnit@@KAHPAUlua_State@@@Z ; CvLuaUnit::lGetMoves
	mov	eax, DWORD PTR _L$[ebp]
	push	eax
	call	_lua_pushcclosure
	add	esp, 12					; 0000000cH
	push	OFFSET ??_C@_08IPNHPKOI@GetMoves?$AA@
	mov	ecx, DWORD PTR _t$[ebp]
	push	ecx
	mov	edx, DWORD PTR _L$[ebp]
	push	edx
	call	_lua_setfield
	add	esp, 12					; 0000000cH

; 324  : 	Method(SetMoves);

	push	0
	push	OFFSET ?lSetMoves@CvLuaUnit@@KAHPAUlua_State@@@Z ; CvLuaUnit::lSetMoves
	mov	eax, DWORD PTR _L$[ebp]
	push	eax
	call	_lua_pushcclosure
	add	esp, 12					; 0000000cH
	push	OFFSET ??_C@_08HOPLOJJF@SetMoves?$AA@
	mov	ecx, DWORD PTR _t$[ebp]
	push	ecx
	mov	edx, DWORD PTR _L$[ebp]
	push	edx
	call	_lua_setfield
	add	esp, 12					; 0000000cH

; 325  : 	Method(ChangeMoves);

	push	0
	push	OFFSET ?lChangeMoves@CvLuaUnit@@KAHPAUlua_State@@@Z ; CvLuaUnit::lChangeMoves
	mov	eax, DWORD PTR _L$[ebp]
	push	eax
	call	_lua_pushcclosure
	add	esp, 12					; 0000000cH
	push	OFFSET ??_C@_0M@CMBKPBOF@ChangeMoves?$AA@
	mov	ecx, DWORD PTR _t$[ebp]
	push	ecx
	mov	edx, DWORD PTR _L$[ebp]
	push	edx
	call	_lua_setfield
	add	esp, 12					; 0000000cH

; 326  : 	Method(FinishMoves);

	push	0
	push	OFFSET ?lFinishMoves@CvLuaUnit@@KAHPAUlua_State@@@Z ; CvLuaUnit::lFinishMoves
	mov	eax, DWORD PTR _L$[ebp]
	push	eax
	call	_lua_pushcclosure
	add	esp, 12					; 0000000cH
	push	OFFSET ??_C@_0M@HJHLDBGA@FinishMoves?$AA@
	mov	ecx, DWORD PTR _t$[ebp]
	push	ecx
	mov	edx, DWORD PTR _L$[ebp]
	push	edx
	call	_lua_setfield
	add	esp, 12					; 0000000cH

; 327  : 	Method(IsImmobile);

	push	0
	push	OFFSET ?lIsImmobile@CvLuaUnit@@KAHPAUlua_State@@@Z ; CvLuaUnit::lIsImmobile
	mov	eax, DWORD PTR _L$[ebp]
	push	eax
	call	_lua_pushcclosure
	add	esp, 12					; 0000000cH
	push	OFFSET ??_C@_0L@PCIEPGHM@IsImmobile?$AA@
	mov	ecx, DWORD PTR _t$[ebp]
	push	ecx
	mov	edx, DWORD PTR _L$[ebp]
	push	edx
	call	_lua_setfield
	add	esp, 12					; 0000000cH

; 328  : 
; 329  : 	Method(GetExperience);

	push	0
	push	OFFSET ?lGetExperience@CvLuaUnit@@KAHPAUlua_State@@@Z ; CvLuaUnit::lGetExperience
	mov	eax, DWORD PTR _L$[ebp]
	push	eax
	call	_lua_pushcclosure
	add	esp, 12					; 0000000cH
	push	OFFSET ??_C@_0O@JILFBIAC@GetExperience?$AA@
	mov	ecx, DWORD PTR _t$[ebp]
	push	ecx
	mov	edx, DWORD PTR _L$[ebp]
	push	edx
	call	_lua_setfield
	add	esp, 12					; 0000000cH

; 330  : 	Method(SetExperience);

	push	0
	push	OFFSET ?lSetExperience@CvLuaUnit@@KAHPAUlua_State@@@Z ; CvLuaUnit::lSetExperience
	mov	eax, DWORD PTR _L$[ebp]
	push	eax
	call	_lua_pushcclosure
	add	esp, 12					; 0000000cH
	push	OFFSET ??_C@_0O@OHKLKLHF@SetExperience?$AA@
	mov	ecx, DWORD PTR _t$[ebp]
	push	ecx
	mov	edx, DWORD PTR _L$[ebp]
	push	edx
	call	_lua_setfield
	add	esp, 12					; 0000000cH

; 331  : 	Method(ChangeExperience);

	push	0
	push	OFFSET ?lChangeExperience@CvLuaUnit@@KAHPAUlua_State@@@Z ; CvLuaUnit::lChangeExperience
	mov	eax, DWORD PTR _L$[ebp]
	push	eax
	call	_lua_pushcclosure
	add	esp, 12					; 0000000cH
	push	OFFSET ??_C@_0BB@KLHJLBIL@ChangeExperience?$AA@
	mov	ecx, DWORD PTR _t$[ebp]
	push	ecx
	mov	edx, DWORD PTR _L$[ebp]
	push	edx
	call	_lua_setfield
	add	esp, 12					; 0000000cH

; 332  : 	Method(GetLevel);

	push	0
	push	OFFSET ?lGetLevel@CvLuaUnit@@KAHPAUlua_State@@@Z ; CvLuaUnit::lGetLevel
	mov	eax, DWORD PTR _L$[ebp]
	push	eax
	call	_lua_pushcclosure
	add	esp, 12					; 0000000cH
	push	OFFSET ??_C@_08MDGBDPHC@GetLevel?$AA@
	mov	ecx, DWORD PTR _t$[ebp]
	push	ecx
	mov	edx, DWORD PTR _L$[ebp]
	push	edx
	call	_lua_setfield
	add	esp, 12					; 0000000cH

; 333  : 	Method(SetLevel);

	push	0
	push	OFFSET ?lSetLevel@CvLuaUnit@@KAHPAUlua_State@@@Z ; CvLuaUnit::lSetLevel
	mov	eax, DWORD PTR _L$[ebp]
	push	eax
	call	_lua_pushcclosure
	add	esp, 12					; 0000000cH
	push	OFFSET ??_C@_08DCENCMAP@SetLevel?$AA@
	mov	ecx, DWORD PTR _t$[ebp]
	push	ecx
	mov	edx, DWORD PTR _L$[ebp]
	push	edx
	call	_lua_setfield
	add	esp, 12					; 0000000cH

; 334  : 	Method(ChangeLevel);

	push	0
	push	OFFSET ?lChangeLevel@CvLuaUnit@@KAHPAUlua_State@@@Z ; CvLuaUnit::lChangeLevel
	mov	eax, DWORD PTR _L$[ebp]
	push	eax
	call	_lua_pushcclosure
	add	esp, 12					; 0000000cH
	push	OFFSET ??_C@_0M@GAKMDEHP@ChangeLevel?$AA@
	mov	ecx, DWORD PTR _t$[ebp]
	push	ecx
	mov	edx, DWORD PTR _L$[ebp]
	push	edx
	call	_lua_setfield
	add	esp, 12					; 0000000cH

; 335  : 	Method(GetFacingDirection);

	push	0
	push	OFFSET ?lGetFacingDirection@CvLuaUnit@@KAHPAUlua_State@@@Z ; CvLuaUnit::lGetFacingDirection
	mov	eax, DWORD PTR _L$[ebp]
	push	eax
	call	_lua_pushcclosure
	add	esp, 12					; 0000000cH
	push	OFFSET ??_C@_0BD@FNLDHKMI@GetFacingDirection?$AA@
	mov	ecx, DWORD PTR _t$[ebp]
	push	ecx
	mov	edx, DWORD PTR _L$[ebp]
	push	edx
	call	_lua_setfield
	add	esp, 12					; 0000000cH

; 336  : 	Method(RotateFacingDirectionClockwise);

	push	0
	push	OFFSET ?lRotateFacingDirectionClockwise@CvLuaUnit@@KAHPAUlua_State@@@Z ; CvLuaUnit::lRotateFacingDirectionClockwise
	mov	eax, DWORD PTR _L$[ebp]
	push	eax
	call	_lua_pushcclosure
	add	esp, 12					; 0000000cH
	push	OFFSET ??_C@_0BP@JMEBNBEE@RotateFacingDirectionClockwise?$AA@
	mov	ecx, DWORD PTR _t$[ebp]
	push	ecx
	mov	edx, DWORD PTR _L$[ebp]
	push	edx
	call	_lua_setfield
	add	esp, 12					; 0000000cH

; 337  : 	Method(RotateFacingDirectionCounterClockwise);

	push	0
	push	OFFSET ?lRotateFacingDirectionCounterClockwise@CvLuaUnit@@KAHPAUlua_State@@@Z ; CvLuaUnit::lRotateFacingDirectionCounterClockwise
	mov	eax, DWORD PTR _L$[ebp]
	push	eax
	call	_lua_pushcclosure
	add	esp, 12					; 0000000cH
	push	OFFSET ??_C@_0CG@OOOIDGNO@RotateFacingDirectionCounterCloc@
	mov	ecx, DWORD PTR _t$[ebp]
	push	ecx
	mov	edx, DWORD PTR _L$[ebp]
	push	edx
	call	_lua_setfield
	add	esp, 12					; 0000000cH

; 338  : 	Method(GetCargo);

	push	0
	push	OFFSET ?lGetCargo@CvLuaUnit@@KAHPAUlua_State@@@Z ; CvLuaUnit::lGetCargo
	mov	eax, DWORD PTR _L$[ebp]
	push	eax
	call	_lua_pushcclosure
	add	esp, 12					; 0000000cH
	push	OFFSET ??_C@_08GAHMDLJN@GetCargo?$AA@
	mov	ecx, DWORD PTR _t$[ebp]
	push	ecx
	mov	edx, DWORD PTR _L$[ebp]
	push	edx
	call	_lua_setfield
	add	esp, 12					; 0000000cH

; 339  : 	Method(GetFortifyTurns);

	push	0
	push	OFFSET ?lGetFortifyTurns@CvLuaUnit@@KAHPAUlua_State@@@Z ; CvLuaUnit::lGetFortifyTurns
	mov	eax, DWORD PTR _L$[ebp]
	push	eax
	call	_lua_pushcclosure
	add	esp, 12					; 0000000cH
	push	OFFSET ??_C@_0BA@OCAPIEKB@GetFortifyTurns?$AA@
	mov	ecx, DWORD PTR _t$[ebp]
	push	ecx
	mov	edx, DWORD PTR _L$[ebp]
	push	edx
	call	_lua_setfield
	add	esp, 12					; 0000000cH

; 340  : 	Method(GetBlitzCount);

	push	0
	push	OFFSET ?lGetBlitzCount@CvLuaUnit@@KAHPAUlua_State@@@Z ; CvLuaUnit::lGetBlitzCount
	mov	eax, DWORD PTR _L$[ebp]
	push	eax
	call	_lua_pushcclosure
	add	esp, 12					; 0000000cH
	push	OFFSET ??_C@_0O@CMMIPJMH@GetBlitzCount?$AA@
	mov	ecx, DWORD PTR _t$[ebp]
	push	ecx
	mov	edx, DWORD PTR _L$[ebp]
	push	edx
	call	_lua_setfield
	add	esp, 12					; 0000000cH

; 341  : 	Method(IsBlitz);

	push	0
	push	OFFSET ?lIsBlitz@CvLuaUnit@@KAHPAUlua_State@@@Z ; CvLuaUnit::lIsBlitz
	mov	eax, DWORD PTR _L$[ebp]
	push	eax
	call	_lua_pushcclosure
	add	esp, 12					; 0000000cH
	push	OFFSET ??_C@_07KPNLOLLE@IsBlitz?$AA@
	mov	ecx, DWORD PTR _t$[ebp]
	push	ecx
	mov	edx, DWORD PTR _L$[ebp]
	push	edx
	call	_lua_setfield
	add	esp, 12					; 0000000cH

; 342  : 	Method(GetAmphibCount);

	push	0
	push	OFFSET ?lGetAmphibCount@CvLuaUnit@@KAHPAUlua_State@@@Z ; CvLuaUnit::lGetAmphibCount
	mov	eax, DWORD PTR _L$[ebp]
	push	eax
	call	_lua_pushcclosure
	add	esp, 12					; 0000000cH
	push	OFFSET ??_C@_0P@DOEJINNJ@GetAmphibCount?$AA@
	mov	ecx, DWORD PTR _t$[ebp]
	push	ecx
	mov	edx, DWORD PTR _L$[ebp]
	push	edx
	call	_lua_setfield
	add	esp, 12					; 0000000cH

; 343  : 	Method(IsAmphib);

	push	0
	push	OFFSET ?lIsAmphib@CvLuaUnit@@KAHPAUlua_State@@@Z ; CvLuaUnit::lIsAmphib
	mov	eax, DWORD PTR _L$[ebp]
	push	eax
	call	_lua_pushcclosure
	add	esp, 12					; 0000000cH
	push	OFFSET ??_C@_08IIDGMJO@IsAmphib?$AA@
	mov	ecx, DWORD PTR _t$[ebp]
	push	ecx
	mov	edx, DWORD PTR _L$[ebp]
	push	edx
	call	_lua_setfield
	add	esp, 12					; 0000000cH

; 344  : 	Method(GetRiverCrossingNoPenaltyCount);

	push	0
	push	OFFSET ?lGetRiverCrossingNoPenaltyCount@CvLuaUnit@@KAHPAUlua_State@@@Z ; CvLuaUnit::lGetRiverCrossingNoPenaltyCount
	mov	eax, DWORD PTR _L$[ebp]
	push	eax
	call	_lua_pushcclosure
	add	esp, 12					; 0000000cH
	push	OFFSET ??_C@_0BP@FJEFOKIO@GetRiverCrossingNoPenaltyCount?$AA@
	mov	ecx, DWORD PTR _t$[ebp]
	push	ecx
	mov	edx, DWORD PTR _L$[ebp]
	push	edx
	call	_lua_setfield
	add	esp, 12					; 0000000cH

; 345  : 	Method(IsRiverCrossingNoPenalty);

	push	0
	push	OFFSET ?lIsRiverCrossingNoPenalty@CvLuaUnit@@KAHPAUlua_State@@@Z ; CvLuaUnit::lIsRiverCrossingNoPenalty
	mov	eax, DWORD PTR _L$[ebp]
	push	eax
	call	_lua_pushcclosure
	add	esp, 12					; 0000000cH
	push	OFFSET ??_C@_0BJ@CKMHLMJL@IsRiverCrossingNoPenalty?$AA@
	mov	ecx, DWORD PTR _t$[ebp]
	push	ecx
	mov	edx, DWORD PTR _L$[ebp]
	push	edx
	call	_lua_setfield
	add	esp, 12					; 0000000cH

; 346  : 	Method(IsEnemyRoute);

	push	0
	push	OFFSET ?lIsEnemyRoute@CvLuaUnit@@KAHPAUlua_State@@@Z ; CvLuaUnit::lIsEnemyRoute
	mov	eax, DWORD PTR _L$[ebp]
	push	eax
	call	_lua_pushcclosure
	add	esp, 12					; 0000000cH
	push	OFFSET ??_C@_0N@JICLFCIN@IsEnemyRoute?$AA@
	mov	ecx, DWORD PTR _t$[ebp]
	push	ecx
	mov	edx, DWORD PTR _L$[ebp]
	push	edx
	call	_lua_setfield
	add	esp, 12					; 0000000cH

; 347  : 	Method(IsAlwaysHeal);

	push	0
	push	OFFSET ?lIsAlwaysHeal@CvLuaUnit@@KAHPAUlua_State@@@Z ; CvLuaUnit::lIsAlwaysHeal
	mov	eax, DWORD PTR _L$[ebp]
	push	eax
	call	_lua_pushcclosure
	add	esp, 12					; 0000000cH
	push	OFFSET ??_C@_0N@NNLJCGEA@IsAlwaysHeal?$AA@
	mov	ecx, DWORD PTR _t$[ebp]
	push	ecx
	mov	edx, DWORD PTR _L$[ebp]
	push	edx
	call	_lua_setfield
	add	esp, 12					; 0000000cH

; 348  : 	Method(IsHealOutsideFriendly);

	push	0
	push	OFFSET ?lIsHealOutsideFriendly@CvLuaUnit@@KAHPAUlua_State@@@Z ; CvLuaUnit::lIsHealOutsideFriendly
	mov	eax, DWORD PTR _L$[ebp]
	push	eax
	call	_lua_pushcclosure
	add	esp, 12					; 0000000cH
	push	OFFSET ??_C@_0BG@FIHHHACK@IsHealOutsideFriendly?$AA@
	mov	ecx, DWORD PTR _t$[ebp]
	push	ecx
	mov	edx, DWORD PTR _L$[ebp]
	push	edx
	call	_lua_setfield
	add	esp, 12					; 0000000cH

; 349  : 	Method(IsHillsDoubleMove);

	push	0
	push	OFFSET ?lIsHillsDoubleMove@CvLuaUnit@@KAHPAUlua_State@@@Z ; CvLuaUnit::lIsHillsDoubleMove
	mov	eax, DWORD PTR _L$[ebp]
	push	eax
	call	_lua_pushcclosure
	add	esp, 12					; 0000000cH
	push	OFFSET ??_C@_0BC@BEKIIEEN@IsHillsDoubleMove?$AA@
	mov	ecx, DWORD PTR _t$[ebp]
	push	ecx
	mov	edx, DWORD PTR _L$[ebp]
	push	edx
	call	_lua_setfield
	add	esp, 12					; 0000000cH

; 350  : 	Method(IsGarrisoned);

	push	0
	push	OFFSET ?lIsGarrisoned@CvLuaUnit@@KAHPAUlua_State@@@Z ; CvLuaUnit::lIsGarrisoned
	mov	eax, DWORD PTR _L$[ebp]
	push	eax
	call	_lua_pushcclosure
	add	esp, 12					; 0000000cH
	push	OFFSET ??_C@_0N@HELPNODL@IsGarrisoned?$AA@
	mov	ecx, DWORD PTR _t$[ebp]
	push	ecx
	mov	edx, DWORD PTR _L$[ebp]
	push	edx
	call	_lua_setfield
	add	esp, 12					; 0000000cH

; 351  : 	Method(GetGarrisonedCity);

	push	0
	push	OFFSET ?lGetGarrisonedCity@CvLuaUnit@@KAHPAUlua_State@@@Z ; CvLuaUnit::lGetGarrisonedCity
	mov	eax, DWORD PTR _L$[ebp]
	push	eax
	call	_lua_pushcclosure
	add	esp, 12					; 0000000cH
	push	OFFSET ??_C@_0BC@NDGFBOMB@GetGarrisonedCity?$AA@
	mov	ecx, DWORD PTR _t$[ebp]
	push	ecx
	mov	edx, DWORD PTR _L$[ebp]
	push	edx
	call	_lua_setfield
	add	esp, 12					; 0000000cH

; 352  : 
; 353  : 	Method(GetExtraVisibilityRange);

	push	0
	push	OFFSET ?lGetExtraVisibilityRange@CvLuaUnit@@KAHPAUlua_State@@@Z ; CvLuaUnit::lGetExtraVisibilityRange
	mov	eax, DWORD PTR _L$[ebp]
	push	eax
	call	_lua_pushcclosure
	add	esp, 12					; 0000000cH
	push	OFFSET ??_C@_0BI@LMONEFFA@GetExtraVisibilityRange?$AA@
	mov	ecx, DWORD PTR _t$[ebp]
	push	ecx
	mov	edx, DWORD PTR _L$[ebp]
	push	edx
	call	_lua_setfield
	add	esp, 12					; 0000000cH

; 354  : 	Method(GetExtraMoves);

	push	0
	push	OFFSET ?lGetExtraMoves@CvLuaUnit@@KAHPAUlua_State@@@Z ; CvLuaUnit::lGetExtraMoves
	mov	eax, DWORD PTR _L$[ebp]
	push	eax
	call	_lua_pushcclosure
	add	esp, 12					; 0000000cH
	push	OFFSET ??_C@_0O@LOCEBOPL@GetExtraMoves?$AA@
	mov	ecx, DWORD PTR _t$[ebp]
	push	ecx
	mov	edx, DWORD PTR _L$[ebp]
	push	edx
	call	_lua_setfield
	add	esp, 12					; 0000000cH

; 355  : 	Method(GetExtraMoveDiscount);

	push	0
	push	OFFSET ?lGetExtraMoveDiscount@CvLuaUnit@@KAHPAUlua_State@@@Z ; CvLuaUnit::lGetExtraMoveDiscount
	mov	eax, DWORD PTR _L$[ebp]
	push	eax
	call	_lua_pushcclosure
	add	esp, 12					; 0000000cH
	push	OFFSET ??_C@_0BF@OMEPGIG@GetExtraMoveDiscount?$AA@
	mov	ecx, DWORD PTR _t$[ebp]
	push	ecx
	mov	edx, DWORD PTR _L$[ebp]
	push	edx
	call	_lua_setfield
	add	esp, 12					; 0000000cH

; 356  : 	Method(GetExtraRange);

	push	0
	push	OFFSET ?lGetExtraRange@CvLuaUnit@@KAHPAUlua_State@@@Z ; CvLuaUnit::lGetExtraRange
	mov	eax, DWORD PTR _L$[ebp]
	push	eax
	call	_lua_pushcclosure
	add	esp, 12					; 0000000cH
	push	OFFSET ??_C@_0O@HJCFAOBN@GetExtraRange?$AA@
	mov	ecx, DWORD PTR _t$[ebp]
	push	ecx
	mov	edx, DWORD PTR _L$[ebp]
	push	edx
	call	_lua_setfield
	add	esp, 12					; 0000000cH

; 357  : 	Method(GetExtraIntercept);

	push	0
	push	OFFSET ?lGetExtraIntercept@CvLuaUnit@@KAHPAUlua_State@@@Z ; CvLuaUnit::lGetExtraIntercept
	mov	eax, DWORD PTR _L$[ebp]
	push	eax
	call	_lua_pushcclosure
	add	esp, 12					; 0000000cH
	push	OFFSET ??_C@_0BC@MAMPNOBO@GetExtraIntercept?$AA@
	mov	ecx, DWORD PTR _t$[ebp]
	push	ecx
	mov	edx, DWORD PTR _L$[ebp]
	push	edx
	call	_lua_setfield
	add	esp, 12					; 0000000cH

; 358  : 	Method(GetExtraEvasion);

	push	0
	push	OFFSET ?lGetExtraEvasion@CvLuaUnit@@KAHPAUlua_State@@@Z ; CvLuaUnit::lGetExtraEvasion
	mov	eax, DWORD PTR _L$[ebp]
	push	eax
	call	_lua_pushcclosure
	add	esp, 12					; 0000000cH
	push	OFFSET ??_C@_0BA@FKMGFEFH@GetExtraEvasion?$AA@
	mov	ecx, DWORD PTR _t$[ebp]
	push	ecx
	mov	edx, DWORD PTR _L$[ebp]
	push	edx
	call	_lua_setfield
	add	esp, 12					; 0000000cH

; 359  : 	Method(GetExtraFirstStrikes);

	push	0
	push	OFFSET ?lGetExtraFirstStrikes@CvLuaUnit@@KAHPAUlua_State@@@Z ; CvLuaUnit::lGetExtraFirstStrikes
	mov	eax, DWORD PTR _L$[ebp]
	push	eax
	call	_lua_pushcclosure
	add	esp, 12					; 0000000cH
	push	OFFSET ??_C@_0BF@NHNKKCBF@GetExtraFirstStrikes?$AA@
	mov	ecx, DWORD PTR _t$[ebp]
	push	ecx
	mov	edx, DWORD PTR _L$[ebp]
	push	edx
	call	_lua_setfield
	add	esp, 12					; 0000000cH

; 360  : 	Method(GetExtraChanceFirstStrikes);

	push	0
	push	OFFSET ?lGetExtraChanceFirstStrikes@CvLuaUnit@@KAHPAUlua_State@@@Z ; CvLuaUnit::lGetExtraChanceFirstStrikes
	mov	eax, DWORD PTR _L$[ebp]
	push	eax
	call	_lua_pushcclosure
	add	esp, 12					; 0000000cH
	push	OFFSET ??_C@_0BL@ODNAIGPH@GetExtraChanceFirstStrikes?$AA@
	mov	ecx, DWORD PTR _t$[ebp]
	push	ecx
	mov	edx, DWORD PTR _L$[ebp]
	push	edx
	call	_lua_setfield
	add	esp, 12					; 0000000cH

; 361  : 	Method(GetExtraWithdrawal);

	push	0
	push	OFFSET ?lGetExtraWithdrawal@CvLuaUnit@@KAHPAUlua_State@@@Z ; CvLuaUnit::lGetExtraWithdrawal
	mov	eax, DWORD PTR _L$[ebp]
	push	eax
	call	_lua_pushcclosure
	add	esp, 12					; 0000000cH
	push	OFFSET ??_C@_0BD@IOALAFL@GetExtraWithdrawal?$AA@
	mov	ecx, DWORD PTR _t$[ebp]
	push	ecx
	mov	edx, DWORD PTR _L$[ebp]
	push	edx
	call	_lua_setfield
	add	esp, 12					; 0000000cH

; 362  : 	Method(GetExtraEnemyHeal);

	push	0
	push	OFFSET ?lGetExtraEnemyHeal@CvLuaUnit@@KAHPAUlua_State@@@Z ; CvLuaUnit::lGetExtraEnemyHeal
	mov	eax, DWORD PTR _L$[ebp]
	push	eax
	call	_lua_pushcclosure
	add	esp, 12					; 0000000cH
	push	OFFSET ??_C@_0BC@BKCEPOIK@GetExtraEnemyHeal?$AA@
	mov	ecx, DWORD PTR _t$[ebp]
	push	ecx
	mov	edx, DWORD PTR _L$[ebp]
	push	edx
	call	_lua_setfield
	add	esp, 12					; 0000000cH

; 363  : 	Method(GetExtraNeutralHeal);

	push	0
	push	OFFSET ?lGetExtraNeutralHeal@CvLuaUnit@@KAHPAUlua_State@@@Z ; CvLuaUnit::lGetExtraNeutralHeal
	mov	eax, DWORD PTR _L$[ebp]
	push	eax
	call	_lua_pushcclosure
	add	esp, 12					; 0000000cH
	push	OFFSET ??_C@_0BE@PPNDFFOE@GetExtraNeutralHeal?$AA@
	mov	ecx, DWORD PTR _t$[ebp]
	push	ecx
	mov	edx, DWORD PTR _L$[ebp]
	push	edx
	call	_lua_setfield
	add	esp, 12					; 0000000cH

; 364  : 	Method(GetExtraFriendlyHeal);

	push	0
	push	OFFSET ?lGetExtraFriendlyHeal@CvLuaUnit@@KAHPAUlua_State@@@Z ; CvLuaUnit::lGetExtraFriendlyHeal
	mov	eax, DWORD PTR _L$[ebp]
	push	eax
	call	_lua_pushcclosure
	add	esp, 12					; 0000000cH
	push	OFFSET ??_C@_0BF@FDAKDOOD@GetExtraFriendlyHeal?$AA@
	mov	ecx, DWORD PTR _t$[ebp]
	push	ecx
	mov	edx, DWORD PTR _L$[ebp]
	push	edx
	call	_lua_setfield
	add	esp, 12					; 0000000cH

; 365  : 
; 366  : 	Method(GetSameTileHeal);

	push	0
	push	OFFSET ?lGetSameTileHeal@CvLuaUnit@@KAHPAUlua_State@@@Z ; CvLuaUnit::lGetSameTileHeal
	mov	eax, DWORD PTR _L$[ebp]
	push	eax
	call	_lua_pushcclosure
	add	esp, 12					; 0000000cH
	push	OFFSET ??_C@_0BA@PJJDJAFH@GetSameTileHeal?$AA@
	mov	ecx, DWORD PTR _t$[ebp]
	push	ecx
	mov	edx, DWORD PTR _L$[ebp]
	push	edx
	call	_lua_setfield
	add	esp, 12					; 0000000cH

; 367  : 	Method(GetAdjacentTileHeal);

	push	0
	push	OFFSET ?lGetAdjacentTileHeal@CvLuaUnit@@KAHPAUlua_State@@@Z ; CvLuaUnit::lGetAdjacentTileHeal
	mov	eax, DWORD PTR _L$[ebp]
	push	eax
	call	_lua_pushcclosure
	add	esp, 12					; 0000000cH
	push	OFFSET ??_C@_0BE@FOPILIOB@GetAdjacentTileHeal?$AA@
	mov	ecx, DWORD PTR _t$[ebp]
	push	ecx
	mov	edx, DWORD PTR _L$[ebp]
	push	edx
	call	_lua_setfield
	add	esp, 12					; 0000000cH

; 368  : 
; 369  : 	Method(GetExtraCombatPercent);

	push	0
	push	OFFSET ?lGetExtraCombatPercent@CvLuaUnit@@KAHPAUlua_State@@@Z ; CvLuaUnit::lGetExtraCombatPercent
	mov	eax, DWORD PTR _L$[ebp]
	push	eax
	call	_lua_pushcclosure
	add	esp, 12					; 0000000cH
	push	OFFSET ??_C@_0BG@KGCGLIBN@GetExtraCombatPercent?$AA@
	mov	ecx, DWORD PTR _t$[ebp]
	push	ecx
	mov	edx, DWORD PTR _L$[ebp]
	push	edx
	call	_lua_setfield
	add	esp, 12					; 0000000cH

; 370  : 	Method(GetFriendlyLandsModifier);

	push	0
	push	OFFSET ?lGetFriendlyLandsModifier@CvLuaUnit@@KAHPAUlua_State@@@Z ; CvLuaUnit::lGetFriendlyLandsModifier
	mov	eax, DWORD PTR _L$[ebp]
	push	eax
	call	_lua_pushcclosure
	add	esp, 12					; 0000000cH
	push	OFFSET ??_C@_0BJ@ECEPCDCN@GetFriendlyLandsModifier?$AA@
	mov	ecx, DWORD PTR _t$[ebp]
	push	ecx
	mov	edx, DWORD PTR _L$[ebp]
	push	edx
	call	_lua_setfield
	add	esp, 12					; 0000000cH

; 371  : 	Method(GetFriendlyLandsAttackModifier);

	push	0
	push	OFFSET ?lGetFriendlyLandsAttackModifier@CvLuaUnit@@KAHPAUlua_State@@@Z ; CvLuaUnit::lGetFriendlyLandsAttackModifier
	mov	eax, DWORD PTR _L$[ebp]
	push	eax
	call	_lua_pushcclosure
	add	esp, 12					; 0000000cH
	push	OFFSET ??_C@_0BP@KLDAEKDJ@GetFriendlyLandsAttackModifier?$AA@
	mov	ecx, DWORD PTR _t$[ebp]
	push	ecx
	mov	edx, DWORD PTR _L$[ebp]
	push	edx
	call	_lua_setfield
	add	esp, 12					; 0000000cH

; 372  : 	Method(GetOutsideFriendlyLandsModifier);

	push	0
	push	OFFSET ?lGetOutsideFriendlyLandsModifier@CvLuaUnit@@KAHPAUlua_State@@@Z ; CvLuaUnit::lGetOutsideFriendlyLandsModifier
	mov	eax, DWORD PTR _L$[ebp]
	push	eax
	call	_lua_pushcclosure
	add	esp, 12					; 0000000cH
	push	OFFSET ??_C@_0CA@IJLJKKDJ@GetOutsideFriendlyLandsModifier?$AA@
	mov	ecx, DWORD PTR _t$[ebp]
	push	ecx
	mov	edx, DWORD PTR _L$[ebp]
	push	edx
	call	_lua_setfield
	add	esp, 12					; 0000000cH

; 373  : #ifdef NQ_GOLDEN_AGE_FOREIGN_ATTACK_BONUS
; 374  : 	Method(GetGoldenAgeForeignAttackBonus);

	push	0
	push	OFFSET ?lGetGoldenAgeForeignAttackBonus@CvLuaUnit@@KAHPAUlua_State@@@Z ; CvLuaUnit::lGetGoldenAgeForeignAttackBonus
	mov	eax, DWORD PTR _L$[ebp]
	push	eax
	call	_lua_pushcclosure
	add	esp, 12					; 0000000cH
	push	OFFSET ??_C@_0BP@BHKIBPGK@GetGoldenAgeForeignAttackBonus?$AA@
	mov	ecx, DWORD PTR _t$[ebp]
	push	ecx
	mov	edx, DWORD PTR _L$[ebp]
	push	edx
	call	_lua_setfield
	add	esp, 12					; 0000000cH

; 375  : #endif
; 376  : #ifdef NQ_COMBAT_STRENGTH_NEAR_FRIENDLY_MINOR
; 377  : 	Method(GetCombatStrengthNearFriendlyMinor);

	push	0
	push	OFFSET ?lGetCombatStrengthNearFriendlyMinor@CvLuaUnit@@KAHPAUlua_State@@@Z ; CvLuaUnit::lGetCombatStrengthNearFriendlyMinor
	mov	eax, DWORD PTR _L$[ebp]
	push	eax
	call	_lua_pushcclosure
	add	esp, 12					; 0000000cH
	push	OFFSET ??_C@_0CD@PFMFCNHJ@GetCombatStrengthNearFriendlyMin@
	mov	ecx, DWORD PTR _t$[ebp]
	push	ecx
	mov	edx, DWORD PTR _L$[ebp]
	push	edx
	call	_lua_setfield
	add	esp, 12					; 0000000cH

; 378  : #endif
; 379  : 	Method(GetExtraCityAttackPercent);

	push	0
	push	OFFSET ?lGetExtraCityAttackPercent@CvLuaUnit@@KAHPAUlua_State@@@Z ; CvLuaUnit::lGetExtraCityAttackPercent
	mov	eax, DWORD PTR _L$[ebp]
	push	eax
	call	_lua_pushcclosure
	add	esp, 12					; 0000000cH
	push	OFFSET ??_C@_0BK@EEJGACHD@GetExtraCityAttackPercent?$AA@
	mov	ecx, DWORD PTR _t$[ebp]
	push	ecx
	mov	edx, DWORD PTR _L$[ebp]
	push	edx
	call	_lua_setfield
	add	esp, 12					; 0000000cH

; 380  : 	Method(GetExtraCityDefensePercent);

	push	0
	push	OFFSET ?lGetExtraCityDefensePercent@CvLuaUnit@@KAHPAUlua_State@@@Z ; CvLuaUnit::lGetExtraCityDefensePercent
	mov	eax, DWORD PTR _L$[ebp]
	push	eax
	call	_lua_pushcclosure
	add	esp, 12					; 0000000cH
	push	OFFSET ??_C@_0BL@OIBJDCOP@GetExtraCityDefensePercent?$AA@
	mov	ecx, DWORD PTR _t$[ebp]
	push	ecx
	mov	edx, DWORD PTR _L$[ebp]
	push	edx
	call	_lua_setfield
	add	esp, 12					; 0000000cH

; 381  : 	Method(GetExtraHillsAttackPercent);

	push	0
	push	OFFSET ?lGetExtraHillsAttackPercent@CvLuaUnit@@KAHPAUlua_State@@@Z ; CvLuaUnit::lGetExtraHillsAttackPercent
	mov	eax, DWORD PTR _L$[ebp]
	push	eax
	call	_lua_pushcclosure
	add	esp, 12					; 0000000cH
	push	OFFSET ??_C@_0BL@JDMNNJBO@GetExtraHillsAttackPercent?$AA@
	mov	ecx, DWORD PTR _t$[ebp]
	push	ecx
	mov	edx, DWORD PTR _L$[ebp]
	push	edx
	call	_lua_setfield
	add	esp, 12					; 0000000cH

; 382  : 	Method(GetExtraHillsDefensePercent);

	push	0
	push	OFFSET ?lGetExtraHillsDefensePercent@CvLuaUnit@@KAHPAUlua_State@@@Z ; CvLuaUnit::lGetExtraHillsDefensePercent
	mov	eax, DWORD PTR _L$[ebp]
	push	eax
	call	_lua_pushcclosure
	add	esp, 12					; 0000000cH
	push	OFFSET ??_C@_0BM@NLMNHENB@GetExtraHillsDefensePercent?$AA@
	mov	ecx, DWORD PTR _t$[ebp]
	push	ecx
	mov	edx, DWORD PTR _L$[ebp]
	push	edx
	call	_lua_setfield
	add	esp, 12					; 0000000cH

; 383  : 
; 384  : 	Method(GetExtraOpenAttackPercent);

	push	0
	push	OFFSET ?lGetExtraOpenAttackPercent@CvLuaUnit@@KAHPAUlua_State@@@Z ; CvLuaUnit::lGetExtraOpenAttackPercent
	mov	eax, DWORD PTR _L$[ebp]
	push	eax
	call	_lua_pushcclosure
	add	esp, 12					; 0000000cH
	push	OFFSET ??_C@_0BK@LJKEFJID@GetExtraOpenAttackPercent?$AA@
	mov	ecx, DWORD PTR _t$[ebp]
	push	ecx
	mov	edx, DWORD PTR _L$[ebp]
	push	edx
	call	_lua_setfield
	add	esp, 12					; 0000000cH

; 385  : 	Method(GetExtraOpenRangedAttackMod);

	push	0
	push	OFFSET ?lGetExtraOpenRangedAttackMod@CvLuaUnit@@KAHPAUlua_State@@@Z ; CvLuaUnit::lGetExtraOpenRangedAttackMod
	mov	eax, DWORD PTR _L$[ebp]
	push	eax
	call	_lua_pushcclosure
	add	esp, 12					; 0000000cH
	push	OFFSET ??_C@_0BM@CBBBAFGK@GetExtraOpenRangedAttackMod?$AA@
	mov	ecx, DWORD PTR _t$[ebp]
	push	ecx
	mov	edx, DWORD PTR _L$[ebp]
	push	edx
	call	_lua_setfield
	add	esp, 12					; 0000000cH

; 386  : 	Method(GetExtraRoughAttackPercent);

	push	0
	push	OFFSET ?lGetExtraRoughAttackPercent@CvLuaUnit@@KAHPAUlua_State@@@Z ; CvLuaUnit::lGetExtraRoughAttackPercent
	mov	eax, DWORD PTR _L$[ebp]
	push	eax
	call	_lua_pushcclosure
	add	esp, 12					; 0000000cH
	push	OFFSET ??_C@_0BL@EFEMEKEJ@GetExtraRoughAttackPercent?$AA@
	mov	ecx, DWORD PTR _t$[ebp]
	push	ecx
	mov	edx, DWORD PTR _L$[ebp]
	push	edx
	call	_lua_setfield
	add	esp, 12					; 0000000cH

; 387  : 	Method(GetExtraRoughRangedAttackMod);

	push	0
	push	OFFSET ?lGetExtraRoughRangedAttackMod@CvLuaUnit@@KAHPAUlua_State@@@Z ; CvLuaUnit::lGetExtraRoughRangedAttackMod
	mov	eax, DWORD PTR _L$[ebp]
	push	eax
	call	_lua_pushcclosure
	add	esp, 12					; 0000000cH
	push	OFFSET ??_C@_0BN@JELKIHJI@GetExtraRoughRangedAttackMod?$AA@
	mov	ecx, DWORD PTR _t$[ebp]
	push	ecx
	mov	edx, DWORD PTR _L$[ebp]
	push	edx
	call	_lua_setfield
	add	esp, 12					; 0000000cH

; 388  : 	Method(GetExtraAttackFortifiedMod);

	push	0
	push	OFFSET ?lGetExtraAttackFortifiedMod@CvLuaUnit@@KAHPAUlua_State@@@Z ; CvLuaUnit::lGetExtraAttackFortifiedMod
	mov	eax, DWORD PTR _L$[ebp]
	push	eax
	call	_lua_pushcclosure
	add	esp, 12					; 0000000cH
	push	OFFSET ??_C@_0BL@PDPEFOMH@GetExtraAttackFortifiedMod?$AA@
	mov	ecx, DWORD PTR _t$[ebp]
	push	ecx
	mov	edx, DWORD PTR _L$[ebp]
	push	edx
	call	_lua_setfield
	add	esp, 12					; 0000000cH

; 389  : 	Method(GetExtraAttackWoundedMod);

	push	0
	push	OFFSET ?lGetExtraAttackWoundedMod@CvLuaUnit@@KAHPAUlua_State@@@Z ; CvLuaUnit::lGetExtraAttackWoundedMod
	mov	eax, DWORD PTR _L$[ebp]
	push	eax
	call	_lua_pushcclosure
	add	esp, 12					; 0000000cH
	push	OFFSET ??_C@_0BJ@JEMHENOI@GetExtraAttackWoundedMod?$AA@
	mov	ecx, DWORD PTR _t$[ebp]
	push	ecx
	mov	edx, DWORD PTR _L$[ebp]
	push	edx
	call	_lua_setfield
	add	esp, 12					; 0000000cH

; 390  : 	Method(GetExtraOpenDefensePercent);

	push	0
	push	OFFSET ?lGetExtraOpenDefensePercent@CvLuaUnit@@KAHPAUlua_State@@@Z ; CvLuaUnit::lGetExtraOpenDefensePercent
	mov	eax, DWORD PTR _L$[ebp]
	push	eax
	call	_lua_pushcclosure
	add	esp, 12					; 0000000cH
	push	OFFSET ??_C@_0BL@FFFJPCKI@GetExtraOpenDefensePercent?$AA@
	mov	ecx, DWORD PTR _t$[ebp]
	push	ecx
	mov	edx, DWORD PTR _L$[ebp]
	push	edx
	call	_lua_setfield
	add	esp, 12					; 0000000cH

; 391  : 
; 392  : 	Method(GetPillageChange);

	push	0
	push	OFFSET ?lGetPillageChange@CvLuaUnit@@KAHPAUlua_State@@@Z ; CvLuaUnit::lGetPillageChange
	mov	eax, DWORD PTR _L$[ebp]
	push	eax
	call	_lua_pushcclosure
	add	esp, 12					; 0000000cH
	push	OFFSET ??_C@_0BB@HINGJFFL@GetPillageChange?$AA@
	mov	ecx, DWORD PTR _t$[ebp]
	push	ecx
	mov	edx, DWORD PTR _L$[ebp]
	push	edx
	call	_lua_setfield
	add	esp, 12					; 0000000cH

; 393  : 	Method(GetUpgradeDiscount);

	push	0
	push	OFFSET ?lGetUpgradeDiscount@CvLuaUnit@@KAHPAUlua_State@@@Z ; CvLuaUnit::lGetUpgradeDiscount
	mov	eax, DWORD PTR _L$[ebp]
	push	eax
	call	_lua_pushcclosure
	add	esp, 12					; 0000000cH
	push	OFFSET ??_C@_0BD@IEDPIMNK@GetUpgradeDiscount?$AA@
	mov	ecx, DWORD PTR _t$[ebp]
	push	ecx
	mov	edx, DWORD PTR _L$[ebp]
	push	edx
	call	_lua_setfield
	add	esp, 12					; 0000000cH

; 394  : 	Method(GetExperiencePercent);

	push	0
	push	OFFSET ?lGetExperiencePercent@CvLuaUnit@@KAHPAUlua_State@@@Z ; CvLuaUnit::lGetExperiencePercent
	mov	eax, DWORD PTR _L$[ebp]
	push	eax
	call	_lua_pushcclosure
	add	esp, 12					; 0000000cH
	push	OFFSET ??_C@_0BF@MJPLLDMK@GetExperiencePercent?$AA@
	mov	ecx, DWORD PTR _t$[ebp]
	push	ecx
	mov	edx, DWORD PTR _L$[ebp]
	push	edx
	call	_lua_setfield
	add	esp, 12					; 0000000cH

; 395  : 	Method(GetKamikazePercent);

	push	0
	push	OFFSET ?lGetKamikazePercent@CvLuaUnit@@KAHPAUlua_State@@@Z ; CvLuaUnit::lGetKamikazePercent
	mov	eax, DWORD PTR _L$[ebp]
	push	eax
	call	_lua_pushcclosure
	add	esp, 12					; 0000000cH
	push	OFFSET ??_C@_0BD@CFFKEBAO@GetKamikazePercent?$AA@
	mov	ecx, DWORD PTR _t$[ebp]
	push	ecx
	mov	edx, DWORD PTR _L$[ebp]
	push	edx
	call	_lua_setfield
	add	esp, 12					; 0000000cH

; 396  : 
; 397  : 
; 398  : 	Method(IsOutOfAttacks);

	push	0
	push	OFFSET ?lIsOutOfAttacks@CvLuaUnit@@KAHPAUlua_State@@@Z ; CvLuaUnit::lIsOutOfAttacks
	mov	eax, DWORD PTR _L$[ebp]
	push	eax
	call	_lua_pushcclosure
	add	esp, 12					; 0000000cH
	push	OFFSET ??_C@_0P@IKHOEAOE@IsOutOfAttacks?$AA@
	mov	ecx, DWORD PTR _t$[ebp]
	push	ecx
	mov	edx, DWORD PTR _L$[ebp]
	push	edx
	call	_lua_setfield
	add	esp, 12					; 0000000cH

; 399  : 	Method(SetMadeAttack);

	push	0
	push	OFFSET ?lSetMadeAttack@CvLuaUnit@@KAHPAUlua_State@@@Z ; CvLuaUnit::lSetMadeAttack
	mov	eax, DWORD PTR _L$[ebp]
	push	eax
	call	_lua_pushcclosure
	add	esp, 12					; 0000000cH
	push	OFFSET ??_C@_0O@MKFMNOAP@SetMadeAttack?$AA@
	mov	ecx, DWORD PTR _t$[ebp]
	push	ecx
	mov	edx, DWORD PTR _L$[ebp]
	push	edx
	call	_lua_setfield
	add	esp, 12					; 0000000cH

; 400  : 	Method(isOutOfInterceptions);

	push	0
	push	OFFSET ?lisOutOfInterceptions@CvLuaUnit@@KAHPAUlua_State@@@Z ; CvLuaUnit::lisOutOfInterceptions
	mov	eax, DWORD PTR _L$[ebp]
	push	eax
	call	_lua_pushcclosure
	add	esp, 12					; 0000000cH
	push	OFFSET ??_C@_0BF@CMPDBBFM@isOutOfInterceptions?$AA@
	mov	ecx, DWORD PTR _t$[ebp]
	push	ecx
	mov	edx, DWORD PTR _L$[ebp]
	push	edx
	call	_lua_setfield
	add	esp, 12					; 0000000cH

; 401  : 	Method(SetMadeInterception);

	push	0
	push	OFFSET ?lSetMadeInterception@CvLuaUnit@@KAHPAUlua_State@@@Z ; CvLuaUnit::lSetMadeInterception
	mov	eax, DWORD PTR _L$[ebp]
	push	eax
	call	_lua_pushcclosure
	add	esp, 12					; 0000000cH
	push	OFFSET ??_C@_0BE@CHMMLBFN@SetMadeInterception?$AA@
	mov	ecx, DWORD PTR _t$[ebp]
	push	ecx
	mov	edx, DWORD PTR _L$[ebp]
	push	edx
	call	_lua_setfield
	add	esp, 12					; 0000000cH

; 402  : 
; 403  : 	Method(IsPromotionReady);

	push	0
	push	OFFSET ?lIsPromotionReady@CvLuaUnit@@KAHPAUlua_State@@@Z ; CvLuaUnit::lIsPromotionReady
	mov	eax, DWORD PTR _L$[ebp]
	push	eax
	call	_lua_pushcclosure
	add	esp, 12					; 0000000cH
	push	OFFSET ??_C@_0BB@NKIJIMHP@IsPromotionReady?$AA@
	mov	ecx, DWORD PTR _t$[ebp]
	push	ecx
	mov	edx, DWORD PTR _L$[ebp]
	push	edx
	call	_lua_setfield
	add	esp, 12					; 0000000cH

; 404  : 	Method(SetPromotionReady);

	push	0
	push	OFFSET ?lSetPromotionReady@CvLuaUnit@@KAHPAUlua_State@@@Z ; CvLuaUnit::lSetPromotionReady
	mov	eax, DWORD PTR _L$[ebp]
	push	eax
	call	_lua_pushcclosure
	add	esp, 12					; 0000000cH
	push	OFFSET ??_C@_0BC@EMJHOBEL@SetPromotionReady?$AA@
	mov	ecx, DWORD PTR _t$[ebp]
	push	ecx
	mov	edx, DWORD PTR _L$[ebp]
	push	edx
	call	_lua_setfield
	add	esp, 12					; 0000000cH

; 405  : 	Method(GetOwner);

	push	0
	push	OFFSET ?lGetOwner@CvLuaUnit@@KAHPAUlua_State@@@Z ; CvLuaUnit::lGetOwner
	mov	eax, DWORD PTR _L$[ebp]
	push	eax
	call	_lua_pushcclosure
	add	esp, 12					; 0000000cH
	push	OFFSET ??_C@_08BODJMJJB@GetOwner?$AA@
	mov	ecx, DWORD PTR _t$[ebp]
	push	ecx
	mov	edx, DWORD PTR _L$[ebp]
	push	edx
	call	_lua_setfield
	add	esp, 12					; 0000000cH

; 406  : 	Method(GetVisualOwner);

	push	0
	push	OFFSET ?lGetVisualOwner@CvLuaUnit@@KAHPAUlua_State@@@Z ; CvLuaUnit::lGetVisualOwner
	mov	eax, DWORD PTR _L$[ebp]
	push	eax
	call	_lua_pushcclosure
	add	esp, 12					; 0000000cH
	push	OFFSET ??_C@_0P@DJDHAACE@GetVisualOwner?$AA@
	mov	ecx, DWORD PTR _t$[ebp]
	push	ecx
	mov	edx, DWORD PTR _L$[ebp]
	push	edx
	call	_lua_setfield
	add	esp, 12					; 0000000cH

; 407  : 	Method(GetCombatOwner);

	push	0
	push	OFFSET ?lGetCombatOwner@CvLuaUnit@@KAHPAUlua_State@@@Z ; CvLuaUnit::lGetCombatOwner
	mov	eax, DWORD PTR _L$[ebp]
	push	eax
	call	_lua_pushcclosure
	add	esp, 12					; 0000000cH
	push	OFFSET ??_C@_0P@OAMOBMMB@GetCombatOwner?$AA@
	mov	ecx, DWORD PTR _t$[ebp]
	push	ecx
	mov	edx, DWORD PTR _L$[ebp]
	push	edx
	call	_lua_setfield
	add	esp, 12					; 0000000cH

; 408  : 	Method(GetOriginalOwner);

	push	0
	push	OFFSET ?lGetOriginalOwner@CvLuaUnit@@KAHPAUlua_State@@@Z ; CvLuaUnit::lGetOriginalOwner
	mov	eax, DWORD PTR _L$[ebp]
	push	eax
	call	_lua_pushcclosure
	add	esp, 12					; 0000000cH
	push	OFFSET ??_C@_0BB@FBHJECJI@GetOriginalOwner?$AA@
	mov	ecx, DWORD PTR _t$[ebp]
	push	ecx
	mov	edx, DWORD PTR _L$[ebp]
	push	edx
	call	_lua_setfield
	add	esp, 12					; 0000000cH

; 409  : 	Method(SetOriginalOwner);

	push	0
	push	OFFSET ?lSetOriginalOwner@CvLuaUnit@@KAHPAUlua_State@@@Z ; CvLuaUnit::lSetOriginalOwner
	mov	eax, DWORD PTR _L$[ebp]
	push	eax
	call	_lua_pushcclosure
	add	esp, 12					; 0000000cH
	push	OFFSET ??_C@_0BB@DFCAPMCK@SetOriginalOwner?$AA@
	mov	ecx, DWORD PTR _t$[ebp]
	push	ecx
	mov	edx, DWORD PTR _L$[ebp]
	push	edx
	call	_lua_setfield
	add	esp, 12					; 0000000cH

; 410  : 	Method(GetTeam);

	push	0
	push	OFFSET ?lGetTeam@CvLuaUnit@@KAHPAUlua_State@@@Z ; CvLuaUnit::lGetTeam
	mov	eax, DWORD PTR _L$[ebp]
	push	eax
	call	_lua_pushcclosure
	add	esp, 12					; 0000000cH
	push	OFFSET ??_C@_07KIJFBNDA@GetTeam?$AA@
	mov	ecx, DWORD PTR _t$[ebp]
	push	ecx
	mov	edx, DWORD PTR _L$[ebp]
	push	edx
	call	_lua_setfield
	add	esp, 12					; 0000000cH

; 411  : 	Method(GetUnitFlagIconOffset);

	push	0
	push	OFFSET ?lGetUnitFlagIconOffset@CvLuaUnit@@KAHPAUlua_State@@@Z ; CvLuaUnit::lGetUnitFlagIconOffset
	mov	eax, DWORD PTR _L$[ebp]
	push	eax
	call	_lua_pushcclosure
	add	esp, 12					; 0000000cH
	push	OFFSET ??_C@_0BG@GPHCCLK@GetUnitFlagIconOffset?$AA@
	mov	ecx, DWORD PTR _t$[ebp]
	push	ecx
	mov	edx, DWORD PTR _L$[ebp]
	push	edx
	call	_lua_setfield
	add	esp, 12					; 0000000cH

; 412  : 	Method(GetUnitPortraitOffset);

	push	0
	push	OFFSET ?lGetUnitPortraitOffset@CvLuaUnit@@KAHPAUlua_State@@@Z ; CvLuaUnit::lGetUnitPortraitOffset
	mov	eax, DWORD PTR _L$[ebp]
	push	eax
	call	_lua_pushcclosure
	add	esp, 12					; 0000000cH
	push	OFFSET ??_C@_0BG@PPJKPBMI@GetUnitPortraitOffset?$AA@
	mov	ecx, DWORD PTR _t$[ebp]
	push	ecx
	mov	edx, DWORD PTR _L$[ebp]
	push	edx
	call	_lua_setfield
	add	esp, 12					; 0000000cH

; 413  : 
; 414  : 	Method(GetUnitType);

	push	0
	push	OFFSET ?lGetUnitType@CvLuaUnit@@KAHPAUlua_State@@@Z ; CvLuaUnit::lGetUnitType
	mov	eax, DWORD PTR _L$[ebp]
	push	eax
	call	_lua_pushcclosure
	add	esp, 12					; 0000000cH
	push	OFFSET ??_C@_0M@PKBGPJIJ@GetUnitType?$AA@
	mov	ecx, DWORD PTR _t$[ebp]
	push	ecx
	mov	edx, DWORD PTR _L$[ebp]
	push	edx
	call	_lua_setfield
	add	esp, 12					; 0000000cH

; 415  : 	Method(GetUnitClassType);

	push	0
	push	OFFSET ?lGetUnitClassType@CvLuaUnit@@KAHPAUlua_State@@@Z ; CvLuaUnit::lGetUnitClassType
	mov	eax, DWORD PTR _L$[ebp]
	push	eax
	call	_lua_pushcclosure
	add	esp, 12					; 0000000cH
	push	OFFSET ??_C@_0BB@DMDDFGBF@GetUnitClassType?$AA@
	mov	ecx, DWORD PTR _t$[ebp]
	push	ecx
	mov	edx, DWORD PTR _L$[ebp]
	push	edx
	call	_lua_setfield
	add	esp, 12					; 0000000cH

; 416  : 	Method(GetLeaderUnitType);

	push	0
	push	OFFSET ?lGetLeaderUnitType@CvLuaUnit@@KAHPAUlua_State@@@Z ; CvLuaUnit::lGetLeaderUnitType
	mov	eax, DWORD PTR _L$[ebp]
	push	eax
	call	_lua_pushcclosure
	add	esp, 12					; 0000000cH
	push	OFFSET ??_C@_0BC@HMDIHPK@GetLeaderUnitType?$AA@
	mov	ecx, DWORD PTR _t$[ebp]
	push	ecx
	mov	edx, DWORD PTR _L$[ebp]
	push	edx
	call	_lua_setfield
	add	esp, 12					; 0000000cH

; 417  : 	Method(SetLeaderUnitType);

	push	0
	push	OFFSET ?lSetLeaderUnitType@CvLuaUnit@@KAHPAUlua_State@@@Z ; CvLuaUnit::lSetLeaderUnitType
	mov	eax, DWORD PTR _L$[ebp]
	push	eax
	call	_lua_pushcclosure
	add	esp, 12					; 0000000cH
	push	OFFSET ??_C@_0BC@CCMIAMOE@SetLeaderUnitType?$AA@
	mov	ecx, DWORD PTR _t$[ebp]
	push	ecx
	mov	edx, DWORD PTR _L$[ebp]
	push	edx
	call	_lua_setfield
	add	esp, 12					; 0000000cH

; 418  : 	Method(IsNearGreatGeneral);

	push	0
	push	OFFSET ?lIsNearGreatGeneral@CvLuaUnit@@KAHPAUlua_State@@@Z ; CvLuaUnit::lIsNearGreatGeneral
	mov	eax, DWORD PTR _L$[ebp]
	push	eax
	call	_lua_pushcclosure
	add	esp, 12					; 0000000cH
	push	OFFSET ??_C@_0BD@FIBLLGCA@IsNearGreatGeneral?$AA@
	mov	ecx, DWORD PTR _t$[ebp]
	push	ecx
	mov	edx, DWORD PTR _L$[ebp]
	push	edx
	call	_lua_setfield
	add	esp, 12					; 0000000cH

; 419  : 	Method(IsStackedGreatGeneral);

	push	0
	push	OFFSET ?lIsStackedGreatGeneral@CvLuaUnit@@KAHPAUlua_State@@@Z ; CvLuaUnit::lIsStackedGreatGeneral
	mov	eax, DWORD PTR _L$[ebp]
	push	eax
	call	_lua_pushcclosure
	add	esp, 12					; 0000000cH
