; Listing generated by Microsoft (R) Optimizing Compiler Version 15.00.30729.01 

	TITLE	D:\sources\Lekmod_git\checkout\LEKMOD_DLL\CvGameCoreDLL_Expansion2\Lua\CvLuaCity.cpp
	.686P
	.XMM
	include listing.inc
	.model	flat

INCLUDELIB MSVCRT
INCLUDELIB OLDNAMES

PUBLIC	??_C@_0CD@COEJMCEC@GetReligionCityRangeStrikeModifi@ ; `string'
PUBLIC	?lGetReligionCityRangeStrikeModifier@CvLuaCity@@KAHPAUlua_State@@@Z ; CvLuaCity::lGetReligionCityRangeStrikeModifier
PUBLIC	??_C@_0BJ@FDKOKGMB@GetNumForcedWorkingPlots?$AA@ ; `string'
PUBLIC	?lGetNumForcedWorkingPlots@CvLuaCity@@KAHPAUlua_State@@@Z ; CvLuaCity::lGetNumForcedWorkingPlots
PUBLIC	??_C@_0BJ@EJFOMIDN@GetCultureFromSpecialist?$AA@ ; `string'
PUBLIC	?lGetCultureFromSpecialist@CvLuaCity@@KAHPAUlua_State@@@Z ; CvLuaCity::lGetCultureFromSpecialist
PUBLIC	??_C@_0BD@LMIDJJOI@GetSpecialistYield?$AA@	; `string'
PUBLIC	?lGetSpecialistYield@CvLuaCity@@KAHPAUlua_State@@@Z ; CvLuaCity::lGetSpecialistYield
PUBLIC	??_C@_0BB@KGFIABNE@CanPlaceUnitHere?$AA@	; `string'
PUBLIC	?lCanPlaceUnitHere@CvLuaCity@@KAHPAUlua_State@@@Z ; CvLuaCity::lCanPlaceUnitHere
PUBLIC	??_C@_0BA@JCDPNDEK@GetNumCityPlots?$AA@		; `string'
PUBLIC	?lGetNumCityPlots@CvLuaCity@@KAHPAUlua_State@@@Z ; CvLuaCity::lGetNumCityPlots
PUBLIC	??_C@_0CD@BMMNEKOO@GetBuildingGlobalEspionageModifi@ ; `string'
PUBLIC	?lGetBuildingGlobalEspionageModifier@CvLuaCity@@KAHPAUlua_State@@@Z ; CvLuaCity::lGetBuildingGlobalEspionageModifier
PUBLIC	??_C@_0BN@KJGALFCA@GetBuildingEspionageModifier?$AA@ ; `string'
PUBLIC	?lGetBuildingEspionageModifier@CvLuaCity@@KAHPAUlua_State@@@Z ; CvLuaCity::lGetBuildingEspionageModifier
PUBLIC	??_C@_0BH@IJFNGACL@SetBuildingYieldChange?$AA@	; `string'
PUBLIC	?lSetBuildingYieldChange@CvLuaCity@@KAHPAUlua_State@@@Z ; CvLuaCity::lSetBuildingYieldChange
PUBLIC	??_C@_0BH@IIHDEHPE@GetBuildingYieldChange?$AA@	; `string'
PUBLIC	?lGetBuildingYieldChange@CvLuaCity@@KAHPAUlua_State@@@Z ; CvLuaCity::lGetBuildingYieldChange
PUBLIC	??_C@_0BE@PCCBFHJN@GetOrderQueueLength?$AA@	; `string'
PUBLIC	?lGetOrderQueueLength@CvLuaCity@@KAHPAUlua_State@@@Z ; CvLuaCity::lGetOrderQueueLength
PUBLIC	??_C@_08BEEKLBOG@PopOrder?$AA@			; `string'
PUBLIC	?lPopOrder@CvLuaCity@@KAHPAUlua_State@@@Z	; CvLuaCity::lPopOrder
PUBLIC	??_C@_09BPJOHKFH@PushOrder?$AA@			; `string'
PUBLIC	?lPushOrder@CvLuaCity@@KAHPAUlua_State@@@Z	; CvLuaCity::lPushOrder
PUBLIC	??_C@_0BA@OFIEGGCN@ClearOrderQueue?$AA@		; `string'
PUBLIC	?lClearOrderQueue@CvLuaCity@@KAHPAUlua_State@@@Z ; CvLuaCity::lClearOrderQueue
PUBLIC	??_C@_0BL@MHAHLBOF@GetNumGreatWorksInBuilding?$AA@ ; `string'
PUBLIC	?lGetNumGreatWorksInBuilding@CvLuaCity@@KAHPAUlua_State@@@Z ; CvLuaCity::lGetNumGreatWorksInBuilding
PUBLIC	??_C@_0BD@IFLPGFLJ@IsHoldingGreatWork?$AA@	; `string'
PUBLIC	?lIsHoldingGreatWork@CvLuaCity@@KAHPAUlua_State@@@Z ; CvLuaCity::lIsHoldingGreatWork
PUBLIC	??_C@_0BF@DIKBHKDI@SetBuildingGreatWork?$AA@	; `string'
PUBLIC	?lSetBuildingGreatWork@CvLuaCity@@KAHPAUlua_State@@@Z ; CvLuaCity::lSetBuildingGreatWork
PUBLIC	??_C@_0BF@GBLMGMGP@GetBuildingGreatWork?$AA@	; `string'
PUBLIC	?lGetBuildingGreatWork@CvLuaCity@@KAHPAUlua_State@@@Z ; CvLuaCity::lGetBuildingGreatWork
PUBLIC	??_C@_0CA@FAHLOAIH@GetTotalBaseBuildingMaintenance?$AA@ ; `string'
PUBLIC	?lGetTotalBaseBuildingMaintenance@CvLuaCity@@KAHPAUlua_State@@@Z ; CvLuaCity::lGetTotalBaseBuildingMaintenance
PUBLIC	??_C@_0BG@NPBALGAL@GetSellBuildingRefund?$AA@	; `string'
PUBLIC	?lGetSellBuildingRefund@CvLuaCity@@KAHPAUlua_State@@@Z ; CvLuaCity::lGetSellBuildingRefund
PUBLIC	??_C@_0BD@ONJFGLJC@IsBuildingSellable?$AA@	; `string'
PUBLIC	?lIsBuildingSellable@CvLuaCity@@KAHPAUlua_State@@@Z ; CvLuaCity::lIsBuildingSellable
PUBLIC	??_C@_0BD@MCLNCOID@GetNumFreeBuilding?$AA@	; `string'
PUBLIC	?lGetNumFreeBuilding@CvLuaCity@@KAHPAUlua_State@@@Z ; CvLuaCity::lGetNumFreeBuilding
PUBLIC	??_C@_0BD@HIGFIIBM@SetNumRealBuilding?$AA@	; `string'
PUBLIC	?lSetNumRealBuilding@CvLuaCity@@KAHPAUlua_State@@@Z ; CvLuaCity::lSetNumRealBuilding
PUBLIC	??_C@_0BD@ICEPLOPE@GetNumRealBuilding?$AA@	; `string'
PUBLIC	?lGetNumRealBuilding@CvLuaCity@@KAHPAUlua_State@@@Z ; CvLuaCity::lGetNumRealBuilding
PUBLIC	??_C@_0BE@MNHDNBKJ@IsForcedWorkingPlot?$AA@	; `string'
PUBLIC	?lIsForcedWorkingPlot@CvLuaCity@@KAHPAUlua_State@@@Z ; CvLuaCity::lIsForcedWorkingPlot
PUBLIC	??_C@_0BB@MLMHPGAK@AlterWorkingPlot?$AA@	; `string'
PUBLIC	?lAlterWorkingPlot@CvLuaCity@@KAHPAUlua_State@@@Z ; CvLuaCity::lAlterWorkingPlot
PUBLIC	??_C@_0O@CBDHABDH@IsWorkingPlot?$AA@		; `string'
PUBLIC	?lIsWorkingPlot@CvLuaCity@@KAHPAUlua_State@@@Z	; CvLuaCity::lIsWorkingPlot
PUBLIC	??_C@_0BK@LJEHDMDL@GetAirStrikeDefenseDamage?$AA@ ; `string'
PUBLIC	?lGetAirStrikeDefenseDamage@CvLuaCity@@KAHPAUlua_State@@@Z ; CvLuaCity::lGetAirStrikeDefenseDamage
PUBLIC	??_C@_0BC@IGMINMDO@RangeCombatDamage?$AA@	; `string'
PUBLIC	?lRangeCombatDamage@CvLuaCity@@KAHPAUlua_State@@@Z ; CvLuaCity::lRangeCombatDamage
PUBLIC	??_C@_0BH@GENLCPG@RangeCombatUnitDefense?$AA@	; `string'
PUBLIC	?lRangeCombatUnitDefense@CvLuaCity@@KAHPAUlua_State@@@Z ; CvLuaCity::lRangeCombatUnitDefense
PUBLIC	??_C@_0CB@EMMFCPOC@HasPerformedRangedStrikeThisTurn@ ; `string'
PUBLIC	?lHasPerformedRangedStrikeThisTurn@CvLuaCity@@KAHPAUlua_State@@@Z ; CvLuaCity::lHasPerformedRangedStrikeThisTurn
PUBLIC	??_C@_0BB@HFDCOJOB@CanRangeStrikeAt?$AA@	; `string'
PUBLIC	?lCanRangeStrikeAt@CvLuaCity@@KAHPAUlua_State@@@Z ; CvLuaCity::lCanRangeStrikeAt
PUBLIC	??_C@_0BC@PPBGFDPB@CanRangeStrikeNow?$AA@	; `string'
PUBLIC	?lCanRangeStrikeNow@CvLuaCity@@KAHPAUlua_State@@@Z ; CvLuaCity::lCanRangeStrikeNow
PUBLIC	??_C@_0P@CDOKKCEP@CanRangeStrike?$AA@		; `string'
PUBLIC	?lCanRangeStrike@CvLuaCity@@KAHPAUlua_State@@@Z	; CvLuaCity::lCanRangeStrike
PUBLIC	??_C@_0BA@NIPPNLFL@GetMaxHitPoints?$AA@		; `string'
PUBLIC	?lGetMaxHitPoints@CvLuaCity@@KAHPAUlua_State@@@Z ; CvLuaCity::lGetMaxHitPoints
PUBLIC	??_C@_0N@OECJINCP@ChangeDamage?$AA@		; `string'
PUBLIC	?lChangeDamage@CvLuaCity@@KAHPAUlua_State@@@Z	; CvLuaCity::lChangeDamage
PUBLIC	??_C@_09LEHOBNAL@SetDamage?$AA@			; `string'
PUBLIC	?lSetDamage@CvLuaCity@@KAHPAUlua_State@@@Z	; CvLuaCity::lSetDamage
PUBLIC	??_C@_09JKDLDMJJ@GetDamage?$AA@			; `string'
PUBLIC	?lGetDamage@CvLuaCity@@KAHPAUlua_State@@@Z	; CvLuaCity::lGetDamage
PUBLIC	??_C@_0BB@GOIDKIFF@GetStrengthValue?$AA@	; `string'
PUBLIC	?lGetStrengthValue@CvLuaCity@@KAHPAUlua_State@@@Z ; CvLuaCity::lGetStrengthValue
PUBLIC	??_C@_0BE@POOBMJHD@UpdateStrengthValue?$AA@	; `string'
PUBLIC	?lUpdateStrengthValue@CvLuaCity@@KAHPAUlua_State@@@Z ; CvLuaCity::lUpdateStrengthValue
PUBLIC	??_C@_0BM@IHAGDLPN@GetSpecialistFreeExperience?$AA@ ; `string'
PUBLIC	?lGetSpecialistFreeExperience@CvLuaCity@@KAHPAUlua_State@@@Z ; CvLuaCity::lGetSpecialistFreeExperience
PUBLIC	??_C@_0BA@IKABNDKF@IsFreePromotion?$AA@		; `string'
PUBLIC	?lIsFreePromotion@CvLuaCity@@KAHPAUlua_State@@@Z ; CvLuaCity::lIsFreePromotion
PUBLIC	??_C@_0BG@IMOAGJCF@GetFreePromotionCount?$AA@	; `string'
PUBLIC	?lGetFreePromotionCount@CvLuaCity@@KAHPAUlua_State@@@Z ; CvLuaCity::lGetFreePromotionCount
PUBLIC	??_C@_0BM@JLBDEMAE@GetUnitCombatFreeExperience?$AA@ ; `string'
PUBLIC	?lGetUnitCombatFreeExperience@CvLuaCity@@KAHPAUlua_State@@@Z ; CvLuaCity::lGetUnitCombatFreeExperience
PUBLIC	??_C@_0BE@MHBNFFJG@IsForcedAvoidGrowth?$AA@	; `string'
PUBLIC	?lIsForcedAvoidGrowth@CvLuaCity@@KAHPAUlua_State@@@Z ; CvLuaCity::lIsForcedAvoidGrowth
PUBLIC	??_C@_0N@FAOCLHCN@SetFocusType?$AA@		; `string'
PUBLIC	?lSetFocusType@CvLuaCity@@KAHPAUlua_State@@@Z	; CvLuaCity::lSetFocusType
PUBLIC	??_C@_0N@CEFMHLGB@GetFocusType?$AA@		; `string'
PUBLIC	?lGetFocusType@CvLuaCity@@KAHPAUlua_State@@@Z	; CvLuaCity::lGetFocusType
PUBLIC	??_C@_0BK@NJJDCLIJ@IsNoAutoAssignSpecialists?$AA@ ; `string'
PUBLIC	?lIsNoAutoAssignSpecialists@CvLuaCity@@KAHPAUlua_State@@@Z ; CvLuaCity::lIsNoAutoAssignSpecialists
PUBLIC	??_C@_0BF@FLFDINC@DoVerifyWorkingPlots?$AA@	; `string'
PUBLIC	?lDoVerifyWorkingPlots@CvLuaCity@@KAHPAUlua_State@@@Z ; CvLuaCity::lDoVerifyWorkingPlots
PUBLIC	??_C@_0BF@KEIPLLG@DoReallocateCitizens?$AA@	; `string'
PUBLIC	?lDoReallocateCitizens@CvLuaCity@@KAHPAUlua_State@@@Z ; CvLuaCity::lDoReallocateCitizens
PUBLIC	??_C@_0BM@PGFEFAIL@GetNumSpecialistsInBuilding?$AA@ ; `string'
PUBLIC	?lGetNumSpecialistsInBuilding@CvLuaCity@@KAHPAUlua_State@@@Z ; CvLuaCity::lGetNumSpecialistsInBuilding
PUBLIC	??_C@_0CM@FNFNICHP@ChangeSpecialistGreatPersonProgr@ ; `string'
PUBLIC	?lChangeSpecialistGreatPersonProgressTimes100@CvLuaCity@@KAHPAUlua_State@@@Z ; CvLuaCity::lChangeSpecialistGreatPersonProgressTimes100
PUBLIC	??_C@_0CJ@BIFDLHCL@GetSpecialistGreatPersonProgress@ ; `string'
PUBLIC	?lGetSpecialistGreatPersonProgressTimes100@CvLuaCity@@KAHPAUlua_State@@@Z ; CvLuaCity::lGetSpecialistGreatPersonProgressTimes100
PUBLIC	??_C@_0CB@HDCLCODD@GetSpecialistGreatPersonProgress@ ; `string'
PUBLIC	?lGetSpecialistGreatPersonProgress@CvLuaCity@@KAHPAUlua_State@@@Z ; CvLuaCity::lGetSpecialistGreatPersonProgress
PUBLIC	??_C@_0BD@IINBNMBF@GetSpecialistCount?$AA@	; `string'
PUBLIC	?lGetSpecialistCount@CvLuaCity@@KAHPAUlua_State@@@Z ; CvLuaCity::lGetSpecialistCount
PUBLIC	??_C@_0CD@HKGINKIM@GetNumSpecialistsAllowedByBuildi@ ; `string'
PUBLIC	?lGetNumSpecialistsAllowedByBuilding@CvLuaCity@@KAHPAUlua_State@@@Z ; CvLuaCity::lGetNumSpecialistsAllowedByBuilding
PUBLIC	??_C@_0BO@KFIIIIKB@GetSpecialistUpgradeThreshold?$AA@ ; `string'
PUBLIC	?lGetSpecialistUpgradeThreshold@CvLuaCity@@KAHPAUlua_State@@@Z ; CvLuaCity::lGetSpecialistUpgradeThreshold
PUBLIC	??_C@_0BN@EOHIHCLK@IsCanAddSpecialistToBuilding?$AA@ ; `string'
PUBLIC	?lIsCanAddSpecialistToBuilding@CvLuaCity@@KAHPAUlua_State@@@Z ; CvLuaCity::lIsCanAddSpecialistToBuilding
PUBLIC	??_C@_0BF@BKIOFMPC@ChangeUnitProduction?$AA@	; `string'
PUBLIC	?lChangeUnitProduction@CvLuaCity@@KAHPAUlua_State@@@Z ; CvLuaCity::lChangeUnitProduction
PUBLIC	??_C@_0BC@KBOCLBOG@SetUnitProduction?$AA@	; `string'
PUBLIC	?lSetUnitProduction@CvLuaCity@@KAHPAUlua_State@@@Z ; CvLuaCity::lSetUnitProduction
PUBLIC	??_C@_0BC@IEOJDKPI@GetUnitProduction?$AA@	; `string'
PUBLIC	?lGetUnitProduction@CvLuaCity@@KAHPAUlua_State@@@Z ; CvLuaCity::lGetUnitProduction
PUBLIC	??_C@_0BI@IGCHMDBE@GetBuildingOriginalTime?$AA@	; `string'
PUBLIC	?lGetBuildingOriginalTime@CvLuaCity@@KAHPAUlua_State@@@Z ; CvLuaCity::lGetBuildingOriginalTime
PUBLIC	??_C@_0BJ@KDCBJMJP@GetBuildingOriginalOwner?$AA@ ; `string'
PUBLIC	?lGetBuildingOriginalOwner@CvLuaCity@@KAHPAUlua_State@@@Z ; CvLuaCity::lGetBuildingOriginalOwner
PUBLIC	??_C@_0BN@BPJFOHCL@ChangeBuildingProductionTime?$AA@ ; `string'
PUBLIC	?lChangeBuildingProductionTime@CvLuaCity@@KAHPAUlua_State@@@Z ; CvLuaCity::lChangeBuildingProductionTime
PUBLIC	??_C@_0BK@JNDCOJAJ@SetBuildingProductionTime?$AA@ ; `string'
PUBLIC	?lSetBuildingProductionTime@CvLuaCity@@KAHPAUlua_State@@@Z ; CvLuaCity::lSetBuildingProductionTime
PUBLIC	??_C@_0BK@BNPECEKP@GetBuildingProductionTime?$AA@ ; `string'
PUBLIC	?lGetBuildingProductionTime@CvLuaCity@@KAHPAUlua_State@@@Z ; CvLuaCity::lGetBuildingProductionTime
PUBLIC	??_C@_0BJ@MMEAFHDF@ChangeBuildingProduction?$AA@ ; `string'
PUBLIC	?lChangeBuildingProduction@CvLuaCity@@KAHPAUlua_State@@@Z ; CvLuaCity::lChangeBuildingProduction
PUBLIC	??_C@_0BG@CHPKJKKB@SetBuildingProduction?$AA@	; `string'
PUBLIC	?lSetBuildingProduction@CvLuaCity@@KAHPAUlua_State@@@Z ; CvLuaCity::lSetBuildingProduction
PUBLIC	??_C@_0BG@NCKMEDOA@GetBuildingProduction?$AA@	; `string'
PUBLIC	?lGetBuildingProduction@CvLuaCity@@KAHPAUlua_State@@@Z ; CvLuaCity::lGetBuildingProduction
PUBLIC	??_C@_0BD@GIKEEJCO@IsHasResourceLocal?$AA@	; `string'
PUBLIC	?lIsHasResourceLocal@CvLuaCity@@KAHPAUlua_State@@@Z ; CvLuaCity::lIsHasResourceLocal
PUBLIC	??_C@_07DEJFEJPJ@SetName?$AA@			; `string'
PUBLIC	?lSetName@CvLuaCity@@KAHPAUlua_State@@@Z	; CvLuaCity::lSetName
PUBLIC	??_C@_07MMGEHGCI@GetName?$AA@			; `string'
PUBLIC	?lGetName@CvLuaCity@@KAHPAUlua_State@@@Z	; CvLuaCity::lGetName
PUBLIC	??_C@_0L@PJBAHION@GetNameKey?$AA@		; `string'
PUBLIC	?lGetNameKey@CvLuaCity@@KAHPAUlua_State@@@Z	; CvLuaCity::lGetNameKey
PUBLIC	??_C@_0M@JIOPKDAN@SetRevealed?$AA@		; `string'
PUBLIC	?lSetRevealed@CvLuaCity@@KAHPAUlua_State@@@Z	; CvLuaCity::lSetRevealed
PUBLIC	??_C@_0L@KNACFKBL@IsRevealed?$AA@		; `string'
PUBLIC	?lIsRevealed@CvLuaCity@@KAHPAUlua_State@@@Z	; CvLuaCity::lIsRevealed
PUBLIC	??_C@_0M@HHHODKFL@IsEverOwned?$AA@		; `string'
PUBLIC	?lIsEverOwned@CvLuaCity@@KAHPAUlua_State@@@Z	; CvLuaCity::lIsEverOwned
PUBLIC	??_C@_0BM@CIOKPJJB@GetDomainProductionModifier?$AA@ ; `string'
PUBLIC	?lGetDomainProductionModifier@CvLuaCity@@KAHPAUlua_State@@@Z ; CvLuaCity::lGetDomainProductionModifier
PUBLIC	??_C@_0BI@GMGIGBHD@GetDomainFreeExperience?$AA@	; `string'
PUBLIC	?lGetDomainFreeExperience@CvLuaCity@@KAHPAUlua_State@@@Z ; CvLuaCity::lGetDomainFreeExperience
PUBLIC	??_C@_0BO@GICAENNG@GetExtraSpecialistYieldOfType?$AA@ ; `string'
PUBLIC	?lGetExtraSpecialistYieldOfType@CvLuaCity@@KAHPAUlua_State@@@Z ; CvLuaCity::lGetExtraSpecialistYieldOfType
PUBLIC	??_C@_0BI@GIDAMOKL@GetExtraSpecialistYield?$AA@	; `string'
PUBLIC	?lGetExtraSpecialistYield@CvLuaCity@@KAHPAUlua_State@@@Z ; CvLuaCity::lGetExtraSpecialistYield
PUBLIC	??_C@_0BF@MPEACCAJ@GetYieldRateModifier?$AA@	; `string'
PUBLIC	?lGetYieldRateModifier@CvLuaCity@@KAHPAUlua_State@@@Z ; CvLuaCity::lGetYieldRateModifier
PUBLIC	??_C@_0BF@OFJHKEGP@GetYieldRateTimes100?$AA@	; `string'
PUBLIC	?lGetYieldRateTimes100@CvLuaCity@@KAHPAUlua_State@@@Z ; CvLuaCity::lGetYieldRateTimes100
PUBLIC	??_C@_0N@LGPNBIDL@GetYieldRate?$AA@		; `string'
PUBLIC	?lGetYieldRate@CvLuaCity@@KAHPAUlua_State@@@Z	; CvLuaCity::lGetYieldRate
PUBLIC	??_C@_0BJ@BHAAEGH@GetBaseYieldRateModifier?$AA@	; `string'
PUBLIC	?lGetBaseYieldRateModifier@CvLuaCity@@KAHPAUlua_State@@@Z ; CvLuaCity::lGetBaseYieldRateModifier
PUBLIC	??_C@_0BH@FHGKGLBM@GetYieldPerPopTimes100?$AA@	; `string'
PUBLIC	?lGetYieldPerPopTimes100@CvLuaCity@@KAHPAUlua_State@@@Z ; CvLuaCity::lGetYieldPerPopTimes100
PUBLIC	??_C@_0CA@JHBINGGO@ChangeBaseYieldRateFromReligion?$AA@ ; `string'
PUBLIC	?lChangeBaseYieldRateFromReligion@CvLuaCity@@KAHPAUlua_State@@@Z ; CvLuaCity::lChangeBaseYieldRateFromReligion
PUBLIC	??_C@_0BN@KLEGLAHD@GetBaseYieldRateFromReligion?$AA@ ; `string'
PUBLIC	?lGetBaseYieldRateFromReligion@CvLuaCity@@KAHPAUlua_State@@@Z ; CvLuaCity::lGetBaseYieldRateFromReligion
PUBLIC	??_C@_0BM@MDOMEKI@ChangeBaseYieldRateFromMisc?$AA@ ; `string'
PUBLIC	?lChangeBaseYieldRateFromMisc@CvLuaCity@@KAHPAUlua_State@@@Z ; CvLuaCity::lChangeBaseYieldRateFromMisc
PUBLIC	??_C@_0BJ@GOEKGL@GetBaseYieldRateFromMisc?$AA@	; `string'
PUBLIC	?lGetBaseYieldRateFromMisc@CvLuaCity@@KAHPAUlua_State@@@Z ; CvLuaCity::lGetBaseYieldRateFromMisc
PUBLIC	??_C@_0CD@JHMJIOOA@ChangeBaseYieldRateFromSpecialis@ ; `string'
PUBLIC	?lChangeBaseYieldRateFromSpecialists@CvLuaCity@@KAHPAUlua_State@@@Z ; CvLuaCity::lChangeBaseYieldRateFromSpecialists
PUBLIC	??_C@_0CA@DMEDAOCN@GetBaseYieldRateFromSpecialists?$AA@ ; `string'
PUBLIC	?lGetBaseYieldRateFromSpecialists@CvLuaCity@@KAHPAUlua_State@@@Z ; CvLuaCity::lGetBaseYieldRateFromSpecialists
PUBLIC	??_C@_0CB@OMALCKC@ChangeBaseYieldRateFromBuildings@ ; `string'
PUBLIC	?lChangeBaseYieldRateFromBuildings@CvLuaCity@@KAHPAUlua_State@@@Z ; CvLuaCity::lChangeBaseYieldRateFromBuildings
PUBLIC	??_C@_0BO@GNPKIABN@GetBaseYieldRateFromBuildings?$AA@ ; `string'
PUBLIC	?lGetBaseYieldRateFromBuildings@CvLuaCity@@KAHPAUlua_State@@@Z ; CvLuaCity::lGetBaseYieldRateFromBuildings
PUBLIC	??_C@_0BP@LEPGAIDG@ChangeBaseYieldRateFromTerrain?$AA@ ; `string'
PUBLIC	?lChangeBaseYieldRateFromTerrain@CvLuaCity@@KAHPAUlua_State@@@Z ; CvLuaCity::lChangeBaseYieldRateFromTerrain
PUBLIC	??_C@_0BM@OJHEMEBC@GetBaseYieldRateFromTerrain?$AA@ ; `string'
PUBLIC	?lGetBaseYieldRateFromTerrain@CvLuaCity@@KAHPAUlua_State@@@Z ; CvLuaCity::lGetBaseYieldRateFromTerrain
PUBLIC	??_C@_0BP@JIPPGLFE@GetBaseYieldRateFromGreatWorks?$AA@ ; `string'
PUBLIC	?lGetBaseYieldRateFromGreatWorks@CvLuaCity@@KAHPAUlua_State@@@Z ; CvLuaCity::lGetBaseYieldRateFromGreatWorks
PUBLIC	??_C@_0BB@PNJLKNIG@GetBaseYieldRate?$AA@	; `string'
PUBLIC	?lGetBaseYieldRate@CvLuaCity@@KAHPAUlua_State@@@Z ; CvLuaCity::lGetBaseYieldRate
PUBLIC	??_C@_0BB@KFDOAKNK@GetLakePlotYield?$AA@	; `string'
PUBLIC	?lGetLakePlotYield@CvLuaCity@@KAHPAUlua_State@@@Z ; CvLuaCity::lGetLakePlotYield
PUBLIC	??_C@_0BC@KGMJBNBB@GetRiverPlotYield?$AA@	; `string'
PUBLIC	?lGetRiverPlotYield@CvLuaCity@@KAHPAUlua_State@@@Z ; CvLuaCity::lGetRiverPlotYield
PUBLIC	??_C@_0BA@DGPKBBEO@GetSeaPlotYield?$AA@		; `string'
PUBLIC	?lGetSeaPlotYield@CvLuaCity@@KAHPAUlua_State@@@Z ; CvLuaCity::lGetSeaPlotYield
PUBLIC	??_C@_0BB@FBHJECJI@GetOriginalOwner?$AA@	; `string'
PUBLIC	?lGetOriginalOwner@CvLuaCity@@KAHPAUlua_State@@@Z ; CvLuaCity::lGetOriginalOwner
PUBLIC	??_C@_0BB@HFDBFLDN@GetPreviousOwner?$AA@	; `string'
PUBLIC	?lGetPreviousOwner@CvLuaCity@@KAHPAUlua_State@@@Z ; CvLuaCity::lGetPreviousOwner
PUBLIC	??_C@_07KIJFBNDA@GetTeam?$AA@			; `string'
PUBLIC	?lGetTeam@CvLuaCity@@KAHPAUlua_State@@@Z	; CvLuaCity::lGetTeam
PUBLIC	??_C@_08BODJMJJB@GetOwner?$AA@			; `string'
PUBLIC	?lGetOwner@CvLuaCity@@KAHPAUlua_State@@@Z	; CvLuaCity::lGetOwner
PUBLIC	??_C@_0BB@JHJGLAIL@SetCitySizeBoost?$AA@	; `string'
PUBLIC	?lSetCitySizeBoost@CvLuaCity@@KAHPAUlua_State@@@Z ; CvLuaCity::lSetCitySizeBoost
PUBLIC	??_C@_0BH@PFIOINMP@SetProductionAutomated?$AA@	; `string'
PUBLIC	?lSetProductionAutomated@CvLuaCity@@KAHPAUlua_State@@@Z ; CvLuaCity::lSetProductionAutomated
PUBLIC	??_C@_0BG@FJMABPLB@IsProductionAutomated?$AA@	; `string'
PUBLIC	?lIsProductionAutomated@CvLuaCity@@KAHPAUlua_State@@@Z ; CvLuaCity::lIsProductionAutomated
PUBLIC	??_C@_0BF@HABAGOM@GetNumThingsProduced?$AA@	; `string'
PUBLIC	?lGetNumThingsProduced@CvLuaCity@@KAHPAUlua_State@@@Z ; CvLuaCity::lGetNumThingsProduced
PUBLIC	??_C@_0BO@HIBOMBIM@ChangeWeLoveTheKingDayCounter?$AA@ ; `string'
PUBLIC	?lChangeWeLoveTheKingDayCounter@CvLuaCity@@KAHPAUlua_State@@@Z ; CvLuaCity::lChangeWeLoveTheKingDayCounter
PUBLIC	??_C@_0BL@KNPMCHGG@SetWeLoveTheKingDayCounter?$AA@ ; `string'
PUBLIC	?lSetWeLoveTheKingDayCounter@CvLuaCity@@KAHPAUlua_State@@@Z ; CvLuaCity::lSetWeLoveTheKingDayCounter
PUBLIC	??_C@_0BL@JCMJOHHG@GetWeLoveTheKingDayCounter?$AA@ ; `string'
PUBLIC	?lGetWeLoveTheKingDayCounter@CvLuaCity@@KAHPAUlua_State@@@Z ; CvLuaCity::lGetWeLoveTheKingDayCounter
PUBLIC	??_C@_0M@OAAFKHBJ@IsBlockaded?$AA@		; `string'
PUBLIC	?lIsBlockaded@CvLuaCity@@KAHPAUlua_State@@@Z	; CvLuaCity::lIsBlockaded
PUBLIC	??_C@_0L@EHIPGLHP@SetDrafted?$AA@		; `string'
PUBLIC	?lSetDrafted@CvLuaCity@@KAHPAUlua_State@@@Z	; CvLuaCity::lSetDrafted
PUBLIC	??_C@_09BPNOIHFH@IsDrafted?$AA@			; `string'
PUBLIC	?lIsDrafted@CvLuaCity@@KAHPAUlua_State@@@Z	; CvLuaCity::lIsDrafted
PUBLIC	??_C@_0N@DKLPEECK@SetNeverLost?$AA@		; `string'
PUBLIC	?lSetNeverLost@CvLuaCity@@KAHPAUlua_State@@@Z	; CvLuaCity::lSetNeverLost
PUBLIC	??_C@_0M@MOFOBMIC@IsNeverLost?$AA@		; `string'
PUBLIC	?lIsNeverLost@CvLuaCity@@KAHPAUlua_State@@@Z	; CvLuaCity::lIsNeverLost
PUBLIC	??_C@_0BC@JBPFIKFP@GetLocalHappiness?$AA@	; `string'
PUBLIC	?lGetLocalHappiness@CvLuaCity@@KAHPAUlua_State@@@Z ; CvLuaCity::lGetLocalHappiness
PUBLIC	??_C@_0N@BPJGOLFM@GetHappiness?$AA@		; `string'
PUBLIC	?lGetHappiness@CvLuaCity@@KAHPAUlua_State@@@Z	; CvLuaCity::lGetHappiness
PUBLIC	??_C@_0BK@NJJIHGAG@GetHappinessFromBuildings?$AA@ ; `string'
PUBLIC	?lGetHappinessFromBuildings@CvLuaCity@@KAHPAUlua_State@@@Z ; CvLuaCity::lGetHappinessFromBuildings
PUBLIC	??_C@_09JPCAHBOM@SetPuppet?$AA@			; `string'
PUBLIC	?lSetPuppet@CvLuaCity@@KAHPAUlua_State@@@Z	; CvLuaCity::lSetPuppet
PUBLIC	??_C@_08KGIAEINB@IsPuppet?$AA@			; `string'
PUBLIC	?lIsPuppet@CvLuaCity@@KAHPAUlua_State@@@Z	; CvLuaCity::lIsPuppet
PUBLIC	??_C@_0M@FPGBPAFO@SetOccupied?$AA@		; `string'
PUBLIC	?lSetOccupied@CvLuaCity@@KAHPAUlua_State@@@Z	; CvLuaCity::lSetOccupied
PUBLIC	??_C@_0L@GKIMAJEI@IsOccupied?$AA@		; `string'
PUBLIC	?lIsOccupied@CvLuaCity@@KAHPAUlua_State@@@Z	; CvLuaCity::lIsOccupied
PUBLIC	??_C@_0BC@GFDDGGHF@ChangeRazingTurns?$AA@	; `string'
PUBLIC	?lChangeRazingTurns@CvLuaCity@@KAHPAUlua_State@@@Z ; CvLuaCity::lChangeRazingTurns
PUBLIC	??_C@_0P@PBGEJBFI@GetRazingTurns?$AA@		; `string'
PUBLIC	?lGetRazingTurns@CvLuaCity@@KAHPAUlua_State@@@Z	; CvLuaCity::lGetRazingTurns
PUBLIC	??_C@_08KDEDLHLC@IsRazing?$AA@			; `string'
PUBLIC	?lIsRazing@CvLuaCity@@KAHPAUlua_State@@@Z	; CvLuaCity::lIsRazing
PUBLIC	??_C@_0BG@OGCOMNIG@ChangeResistanceTurns?$AA@	; `string'
PUBLIC	?lChangeResistanceTurns@CvLuaCity@@KAHPAUlua_State@@@Z ; CvLuaCity::lChangeResistanceTurns
PUBLIC	??_C@_0BD@GGFEDPO@GetResistanceTurns?$AA@	; `string'
PUBLIC	?lGetResistanceTurns@CvLuaCity@@KAHPAUlua_State@@@Z ; CvLuaCity::lGetResistanceTurns
PUBLIC	??_C@_0N@OIFCCPFM@IsResistance?$AA@		; `string'
PUBLIC	?lIsResistance@CvLuaCity@@KAHPAUlua_State@@@Z	; CvLuaCity::lIsResistance
PUBLIC	??_C@_0BA@IIFNIAFM@GetNukeModifier?$AA@		; `string'
PUBLIC	?lGetNukeModifier@CvLuaCity@@KAHPAUlua_State@@@Z ; CvLuaCity::lGetNukeModifier
PUBLIC	??_C@_0BC@KJGDLEFF@GetFreeExperience?$AA@	; `string'
PUBLIC	?lGetFreeExperience@CvLuaCity@@KAHPAUlua_State@@@Z ; CvLuaCity::lGetFreeExperience
PUBLIC	??_C@_0BD@IFIIOABK@GetBuildingDefense?$AA@	; `string'
PUBLIC	?lGetBuildingDefense@CvLuaCity@@KAHPAUlua_State@@@Z ; CvLuaCity::lGetBuildingDefense
PUBLIC	??_C@_0BL@EMAHKCFF@GetSpaceProductionModifier?$AA@ ; `string'
PUBLIC	?lGetSpaceProductionModifier@CvLuaCity@@KAHPAUlua_State@@@Z ; CvLuaCity::lGetSpaceProductionModifier
PUBLIC	??_C@_0BO@FAMIPBGF@GetMilitaryProductionModifier?$AA@ ; `string'
PUBLIC	?lGetMilitaryProductionModifier@CvLuaCity@@KAHPAUlua_State@@@Z ; CvLuaCity::lGetMilitaryProductionModifier
PUBLIC	??_C@_0BF@FMCOGOGC@SetFeatureProduction?$AA@	; `string'
PUBLIC	?lSetFeatureProduction@CvLuaCity@@KAHPAUlua_State@@@Z ; CvLuaCity::lSetFeatureProduction
PUBLIC	??_C@_0BF@FDDHIDF@GetFeatureProduction?$AA@	; `string'
PUBLIC	?lGetFeatureProduction@CvLuaCity@@KAHPAUlua_State@@@Z ; CvLuaCity::lGetFeatureProduction
PUBLIC	??_C@_0BG@FEEBJMBN@SetOverflowProduction?$AA@	; `string'
PUBLIC	?lSetOverflowProduction@CvLuaCity@@KAHPAUlua_State@@@Z ; CvLuaCity::lSetOverflowProduction
PUBLIC	??_C@_0BG@KBBHEFFM@GetOverflowProduction?$AA@	; `string'
PUBLIC	?lGetOverflowProduction@CvLuaCity@@KAHPAUlua_State@@@Z ; CvLuaCity::lGetOverflowProduction
PUBLIC	??_C@_0BG@DCGGEPDG@GetMaxFoodKeptPercent?$AA@	; `string'
PUBLIC	?lGetMaxFoodKeptPercent@CvLuaCity@@KAHPAUlua_State@@@Z ; CvLuaCity::lGetMaxFoodKeptPercent
PUBLIC	??_C@_0M@GIFBHLGG@GetFoodKept?$AA@		; `string'
PUBLIC	?lGetFoodKept@CvLuaCity@@KAHPAUlua_State@@@Z	; CvLuaCity::lGetFoodKept
PUBLIC	??_C@_0L@HHFPNGJH@ChangeFood?$AA@		; `string'
PUBLIC	?lChangeFood@CvLuaCity@@KAHPAUlua_State@@@Z	; CvLuaCity::lChangeFood
PUBLIC	??_C@_07POKFJACE@SetFood?$AA@			; `string'
PUBLIC	?lSetFood@CvLuaCity@@KAHPAUlua_State@@@Z	; CvLuaCity::lSetFood
PUBLIC	??_C@_0BA@EBLNMIHG@GetFoodTimes100?$AA@		; `string'
PUBLIC	?lGetFoodTimes100@CvLuaCity@@KAHPAUlua_State@@@Z ; CvLuaCity::lGetFoodTimes100
PUBLIC	??_C@_07GFEKPPF@GetFood?$AA@			; `string'
PUBLIC	?lGetFood@CvLuaCity@@KAHPAUlua_State@@@Z	; CvLuaCity::lGetFood
PUBLIC	??_C@_0BI@HOIIKDFF@IsNoOccupiedUnhappiness?$AA@	; `string'
PUBLIC	?lIsNoOccupiedUnhappiness@CvLuaCity@@KAHPAUlua_State@@@Z ; CvLuaCity::lIsNoOccupiedUnhappiness
PUBLIC	??_C@_0P@DFIEFIFC@ChangeHealRate?$AA@		; `string'
PUBLIC	?lChangeHealRate@CvLuaCity@@KAHPAUlua_State@@@Z	; CvLuaCity::lChangeHealRate
PUBLIC	??_C@_0CE@JOONDJO@GetLocalResourceWonderProduction@ ; `string'
PUBLIC	?lGetLocalResourceWonderProductionMod@CvLuaCity@@KAHPAUlua_State@@@Z ; CvLuaCity::lGetLocalResourceWonderProductionMod
PUBLIC	??_C@_0BP@CBAFPBHG@ChangeWonderProductionModifier?$AA@ ; `string'
PUBLIC	?lChangeWonderProductionModifier@CvLuaCity@@KAHPAUlua_State@@@Z ; CvLuaCity::lChangeWonderProductionModifier
PUBLIC	??_C@_0BM@HMIHDNFC@GetWonderProductionModifier?$AA@ ; `string'
PUBLIC	?lGetWonderProductionModifier@CvLuaCity@@KAHPAUlua_State@@@Z ; CvLuaCity::lGetWonderProductionModifier
PUBLIC	??_C@_0BA@BEIGCOAF@GetNumBuildings?$AA@		; `string'
PUBLIC	?lGetNumBuildings@CvLuaCity@@KAHPAUlua_State@@@Z ; CvLuaCity::lGetNumBuildings
PUBLIC	??_C@_0BG@HCJMDOLN@GetNumNationalWonders?$AA@	; `string'
PUBLIC	?lGetNumNationalWonders@CvLuaCity@@KAHPAUlua_State@@@Z ; CvLuaCity::lGetNumNationalWonders
PUBLIC	??_C@_0BC@OBPJLAFA@GetNumTeamWonders?$AA@	; `string'
PUBLIC	?lGetNumTeamWonders@CvLuaCity@@KAHPAUlua_State@@@Z ; CvLuaCity::lGetNumTeamWonders
PUBLIC	??_C@_0BD@FHKHHPIG@GetNumWorldWonders?$AA@	; `string'
PUBLIC	?lGetNumWorldWonders@CvLuaCity@@KAHPAUlua_State@@@Z ; CvLuaCity::lGetNumWorldWonders
PUBLIC	??_C@_0CA@FHBADINH@GetNumTradeRoutesAddingPressure?$AA@ ; `string'
PUBLIC	?lGetNumTradeRoutesAddingPressure@CvLuaCity@@KAHPAUlua_State@@@Z ; CvLuaCity::lGetNumTradeRoutesAddingPressure
PUBLIC	??_C@_0CC@JAADPGKC@GetLeagueBuildingClassYieldChang@ ; `string'
PUBLIC	?lGetLeagueBuildingClassYieldChange@CvLuaCity@@KAHPAUlua_State@@@Z ; CvLuaCity::lGetLeagueBuildingClassYieldChange
PUBLIC	??_C@_0CE@IHEOCEID@GetReligionBuildingClassYieldCha@ ; `string'
PUBLIC	?lGetReligionBuildingClassYieldChange@CvLuaCity@@KAHPAUlua_State@@@Z ; CvLuaCity::lGetReligionBuildingClassYieldChange
PUBLIC	??_C@_0CC@ENMDKGLO@GetReligionBuildingClassHappines@ ; `string'
PUBLIC	?lGetReligionBuildingClassHappiness@CvLuaCity@@KAHPAUlua_State@@@Z ; CvLuaCity::lGetReligionBuildingClassHappiness
PUBLIC	??_C@_0BD@FBGNFBCF@AdoptReligionFully?$AA@	; `string'
PUBLIC	?lAdoptReligionFully@CvLuaCity@@KAHPAUlua_State@@@Z ; CvLuaCity::lAdoptReligionFully
PUBLIC	??_C@_0BI@DDLKPOAO@ConvertPercentFollowers?$AA@	; `string'
PUBLIC	?lConvertPercentFollowers@CvLuaCity@@KAHPAUlua_State@@@Z ; CvLuaCity::lConvertPercentFollowers
PUBLIC	??_C@_0BD@JAFNIAKI@GetPressurePerTurn?$AA@	; `string'
PUBLIC	?lGetPressurePerTurn@CvLuaCity@@KAHPAUlua_State@@@Z ; CvLuaCity::lGetPressurePerTurn
PUBLIC	??_C@_0CD@GBBECGLH@GetSecondaryReligionPantheonBeli@ ; `string'
PUBLIC	?lGetSecondaryReligionPantheonBelief@CvLuaCity@@KAHPAUlua_State@@@Z ; CvLuaCity::lGetSecondaryReligionPantheonBelief
PUBLIC	??_C@_0BF@KNGLOBDC@GetSecondaryReligion?$AA@	; `string'
PUBLIC	?lGetSecondaryReligion@CvLuaCity@@KAHPAUlua_State@@@Z ; CvLuaCity::lGetSecondaryReligion
PUBLIC	??_C@_0BF@CPDBKIPJ@GetReligiousMajority?$AA@	; `string'
PUBLIC	?lGetReligiousMajority@CvLuaCity@@KAHPAUlua_State@@@Z ; CvLuaCity::lGetReligiousMajority
PUBLIC	??_C@_0BA@BEJIHHEO@GetNumFollowers?$AA@		; `string'
PUBLIC	?lGetNumFollowers@CvLuaCity@@KAHPAUlua_State@@@Z ; CvLuaCity::lGetNumFollowers
PUBLIC	??_C@_0BG@DCMLICBF@IsHolyCityAnyReligion?$AA@	; `string'
PUBLIC	?lIsHolyCityAnyReligion@CvLuaCity@@KAHPAUlua_State@@@Z ; CvLuaCity::lIsHolyCityAnyReligion
PUBLIC	??_C@_0BG@HPDNEPKN@IsHolyCityForReligion?$AA@	; `string'
PUBLIC	?lIsHolyCityForReligion@CvLuaCity@@KAHPAUlua_State@@@Z ; CvLuaCity::lIsHolyCityForReligion
PUBLIC	??_C@_0BB@PGCOPPAF@IsReligionInCity?$AA@	; `string'
PUBLIC	?lIsReligionInCity@CvLuaCity@@KAHPAUlua_State@@@Z ; CvLuaCity::lIsReligionInCity
PUBLIC	??_C@_0BM@FBEILFDB@GetFaithPerTurnFromReligion?$AA@ ; `string'
PUBLIC	?lGetFaithPerTurnFromReligion@CvLuaCity@@KAHPAUlua_State@@@Z ; CvLuaCity::lGetFaithPerTurnFromReligion
PUBLIC	??_C@_0BK@EKHAOHLH@GetFaithPerTurnFromTraits?$AA@ ; `string'
PUBLIC	?lGetFaithPerTurnFromTraits@CvLuaCity@@KAHPAUlua_State@@@Z ; CvLuaCity::lGetFaithPerTurnFromTraits
PUBLIC	??_C@_0BM@OJAFMOHF@GetFaithPerTurnFromPolicies?$AA@ ; `string'
PUBLIC	?lGetFaithPerTurnFromPolicies@CvLuaCity@@KAHPAUlua_State@@@Z ; CvLuaCity::lGetFaithPerTurnFromPolicies
PUBLIC	??_C@_0BN@PFNCKOKE@GetFaithPerTurnFromBuildings?$AA@ ; `string'
PUBLIC	?lGetFaithPerTurnFromBuildings@CvLuaCity@@KAHPAUlua_State@@@Z ; CvLuaCity::lGetFaithPerTurnFromBuildings
PUBLIC	??_C@_0BA@CIJNECBN@GetFaithPerTurn?$AA@		; `string'
PUBLIC	?lGetFaithPerTurn@CvLuaCity@@KAHPAUlua_State@@@Z ; CvLuaCity::lGetFaithPerTurn
PUBLIC	??_C@_0BC@IDIDCDN@GetThemingTooltip?$AA@	; `string'
PUBLIC	?lGetThemingTooltip@CvLuaCity@@KAHPAUlua_State@@@Z ; CvLuaCity::lGetThemingTooltip
PUBLIC	??_C@_0BA@PNNDDOA@GetThemingBonus?$AA@		; `string'
PUBLIC	?lGetThemingBonus@CvLuaCity@@KAHPAUlua_State@@@Z ; CvLuaCity::lGetThemingBonus
PUBLIC	??_C@_0BH@OADCDAOP@IsThemingBonusPossible?$AA@	; `string'
PUBLIC	?lIsThemingBonusPossible@CvLuaCity@@KAHPAUlua_State@@@Z ; CvLuaCity::lIsThemingBonusPossible
PUBLIC	??_C@_0BI@KDLLAHHF@GetFaithBuildingTourism?$AA@	; `string'
PUBLIC	?lGetFaithBuildingTourism@CvLuaCity@@KAHPAUlua_State@@@Z ; CvLuaCity::lGetFaithBuildingTourism
PUBLIC	??_C@_0BA@JEEBJAFO@ClearGreatWorks?$AA@		; `string'
PUBLIC	?lClearGreatWorks@CvLuaCity@@KAHPAUlua_State@@@Z ; CvLuaCity::lClearGreatWorks
PUBLIC	??_C@_0BF@CDKAAHGE@GetTotalSlotsTooltip?$AA@	; `string'
PUBLIC	?lGetTotalSlotsTooltip@CvLuaCity@@KAHPAUlua_State@@@Z ; CvLuaCity::lGetTotalSlotsTooltip
PUBLIC	??_C@_0BG@CNAADLGC@GetFilledSlotsTooltip?$AA@	; `string'
PUBLIC	?lGetFilledSlotsTooltip@CvLuaCity@@KAHPAUlua_State@@@Z ; CvLuaCity::lGetFilledSlotsTooltip
PUBLIC	??_C@_0BC@OAAAMMGM@GetTourismTooltip?$AA@	; `string'
PUBLIC	?lGetTourismTooltip@CvLuaCity@@KAHPAUlua_State@@@Z ; CvLuaCity::lGetTourismTooltip
PUBLIC	??_C@_0BF@MHJNCJDK@GetTourismMultiplier?$AA@	; `string'
PUBLIC	?lGetTourismMultiplier@CvLuaCity@@KAHPAUlua_State@@@Z ; CvLuaCity::lGetTourismMultiplier
PUBLIC	??_C@_0P@PJMIHAEJ@GetBaseTourism?$AA@		; `string'
PUBLIC	?lGetBaseTourism@CvLuaCity@@KAHPAUlua_State@@@Z	; CvLuaCity::lGetBaseTourism
PUBLIC	??_C@_0BF@FMOOCJFI@GetNumGreatWorkSlots?$AA@	; `string'
PUBLIC	?lGetNumGreatWorkSlots@CvLuaCity@@KAHPAUlua_State@@@Z ; CvLuaCity::lGetNumGreatWorkSlots
PUBLIC	??_C@_0BB@ILOKIPKM@GetNumGreatWorks?$AA@	; `string'
PUBLIC	?lGetNumGreatWorks@CvLuaCity@@KAHPAUlua_State@@@Z ; CvLuaCity::lGetNumGreatWorks
PUBLIC	??_C@_0BK@NOKONBPA@ChangeCultureRateModifier?$AA@ ; `string'
PUBLIC	?lChangeCultureRateModifier@CvLuaCity@@KAHPAUlua_State@@@Z ; CvLuaCity::lChangeCultureRateModifier
PUBLIC	??_C@_0BH@CIAJBLLP@GetCultureRateModifier?$AA@	; `string'
PUBLIC	?lGetCultureRateModifier@CvLuaCity@@KAHPAUlua_State@@@Z ; CvLuaCity::lGetCultureRateModifier
PUBLIC	??_C@_0CB@DONKGGML@GetJONSCulturePerTurnFromLeagues@ ; `string'
PUBLIC	?lGetJONSCulturePerTurnFromLeagues@CvLuaCity@@KAHPAUlua_State@@@Z ; CvLuaCity::lGetJONSCulturePerTurnFromLeagues
PUBLIC	??_C@_0CC@INODDPGK@GetJONSCulturePerTurnFromReligio@ ; `string'
PUBLIC	?lGetJONSCulturePerTurnFromReligion@CvLuaCity@@KAHPAUlua_State@@@Z ; CvLuaCity::lGetJONSCulturePerTurnFromReligion
PUBLIC	??_C@_0CA@MKHKHIDI@GetJONSCulturePerTurnFromTraits?$AA@ ; `string'
PUBLIC	?lGetJONSCulturePerTurnFromTraits@CvLuaCity@@KAHPAUlua_State@@@Z ; CvLuaCity::lGetJONSCulturePerTurnFromTraits
PUBLIC	??_C@_0CE@HOPIHKFI@GetJONSCulturePerTurnFromGreatWo@ ; `string'
PUBLIC	?lGetJONSCulturePerTurnFromGreatWorks@CvLuaCity@@KAHPAUlua_State@@@Z ; CvLuaCity::lGetJONSCulturePerTurnFromGreatWorks
PUBLIC	??_C@_0CI@GIJOCEDC@ChangeJONSCulturePerTurnFromSpec@ ; `string'
PUBLIC	?lChangeJONSCulturePerTurnFromSpecialists@CvLuaCity@@KAHPAUlua_State@@@Z ; CvLuaCity::lChangeJONSCulturePerTurnFromSpecialists
PUBLIC	??_C@_0CF@DFBDEFBH@GetJONSCulturePerTurnFromSpecial@ ; `string'
PUBLIC	?lGetJONSCulturePerTurnFromSpecialists@CvLuaCity@@KAHPAUlua_State@@@Z ; CvLuaCity::lGetJONSCulturePerTurnFromSpecialists
PUBLIC	??_C@_0CF@KGECMFIH@ChangeJONSCulturePerTurnFromPoli@ ; `string'
PUBLIC	?lChangeJONSCulturePerTurnFromPolicies@CvLuaCity@@KAHPAUlua_State@@@Z ; CvLuaCity::lChangeJONSCulturePerTurnFromPolicies
PUBLIC	??_C@_0CC@DFKOEECO@GetJONSCulturePerTurnFromPolicie@ ; `string'
PUBLIC	?lGetJONSCulturePerTurnFromPolicies@CvLuaCity@@KAHPAUlua_State@@@Z ; CvLuaCity::lGetJONSCulturePerTurnFromPolicies
PUBLIC	??_C@_0CG@KGCOHKJP@ChangeJONSCulturePerTurnFromBuil@ ; `string'
PUBLIC	?lChangeJONSCulturePerTurnFromBuildings@CvLuaCity@@KAHPAUlua_State@@@Z ; CvLuaCity::lChangeJONSCulturePerTurnFromBuildings
PUBLIC	??_C@_0CD@JLHINFC@GetJONSCulturePerTurnFromBuildin@ ; `string'
PUBLIC	?lGetJONSCulturePerTurnFromBuildings@CvLuaCity@@KAHPAUlua_State@@@Z ; CvLuaCity::lGetJONSCulturePerTurnFromBuildings
PUBLIC	??_C@_0BK@CGPFDHCN@GetBaseJONSCulturePerTurn?$AA@ ; `string'
PUBLIC	?lGetBaseJONSCulturePerTurn@CvLuaCity@@KAHPAUlua_State@@@Z ; CvLuaCity::lGetBaseJONSCulturePerTurn
PUBLIC	??_C@_0BG@IMDBELFE@GetJONSCulturePerTurn?$AA@	; `string'
PUBLIC	?lGetJONSCulturePerTurn@CvLuaCity@@KAHPAUlua_State@@@Z ; CvLuaCity::lGetJONSCulturePerTurn
PUBLIC	??_C@_0BI@MNIAPCAO@GetJONSCultureThreshold?$AA@	; `string'
PUBLIC	?lGetJONSCultureThreshold@CvLuaCity@@KAHPAUlua_State@@@Z ; CvLuaCity::lGetJONSCultureThreshold
PUBLIC	??_C@_0BL@IFAKDEMK@DoJONSCultureLevelIncrease?$AA@ ; `string'
PUBLIC	?lDoJONSCultureLevelIncrease@CvLuaCity@@KAHPAUlua_State@@@Z ; CvLuaCity::lDoJONSCultureLevelIncrease
PUBLIC	??_C@_0BH@CKDHJLDP@ChangeJONSCultureLevel?$AA@	; `string'
PUBLIC	?lChangeJONSCultureLevel@CvLuaCity@@KAHPAUlua_State@@@Z ; CvLuaCity::lChangeJONSCultureLevel
PUBLIC	??_C@_0BE@NKCCGJMD@SetJONSCultureLevel?$AA@	; `string'
PUBLIC	?lSetJONSCultureLevel@CvLuaCity@@KAHPAUlua_State@@@Z ; CvLuaCity::lSetJONSCultureLevel
PUBLIC	??_C@_0BE@HEAJCJLP@GetJONSCultureLevel?$AA@	; `string'
PUBLIC	?lGetJONSCultureLevel@CvLuaCity@@KAHPAUlua_State@@@Z ; CvLuaCity::lGetJONSCultureLevel
PUBLIC	??_C@_0BO@HDNKJLLK@GetJONSCulturePerTurnTimes100?$AA@ ; `string'
PUBLIC	?lGetJONSCulturePerTurnTimes100@CvLuaCity@@KAHPAUlua_State@@@Z ; CvLuaCity::lGetJONSCulturePerTurnTimes100
PUBLIC	??_C@_0CA@BEBPGHLA@ChangeJONSCultureStoredTimes100?$AA@ ; `string'
PUBLIC	?lChangeJONSCultureStoredTimes100@CvLuaCity@@KAHPAUlua_State@@@Z ; CvLuaCity::lChangeJONSCultureStoredTimes100
PUBLIC	??_C@_0BN@PJOHOOHJ@SetJONSCultureStoredTimes100?$AA@ ; `string'
PUBLIC	?lSetJONSCultureStoredTimes100@CvLuaCity@@KAHPAUlua_State@@@Z ; CvLuaCity::lSetJONSCultureStoredTimes100
PUBLIC	??_C@_0BN@CIEBABKN@GetJONSCultureStoredTimes100?$AA@ ; `string'
PUBLIC	?lGetJONSCultureStoredTimes100@CvLuaCity@@KAHPAUlua_State@@@Z ; CvLuaCity::lGetJONSCultureStoredTimes100
PUBLIC	??_C@_0BI@EBCOCIEG@ChangeJONSCultureStored?$AA@	; `string'
PUBLIC	?lChangeJONSCultureStored@CvLuaCity@@KAHPAUlua_State@@@Z ; CvLuaCity::lChangeJONSCultureStored
PUBLIC	??_C@_0BF@PFNFIDID@SetJONSCultureStored?$AA@	; `string'
PUBLIC	?lSetJONSCultureStored@CvLuaCity@@KAHPAUlua_State@@@Z ; CvLuaCity::lSetJONSCultureStored
PUBLIC	??_C@_0BF@KMMIJFNE@GetJONSCultureStored?$AA@	; `string'
PUBLIC	?lGetJONSCultureStored@CvLuaCity@@KAHPAUlua_State@@@Z ; CvLuaCity::lGetJONSCultureStored
PUBLIC	??_C@_0BL@NNNBCPJN@GetGreatPeopleRateModifier?$AA@ ; `string'
PUBLIC	?lGetGreatPeopleRateModifier@CvLuaCity@@KAHPAUlua_State@@@Z ; CvLuaCity::lGetGreatPeopleRateModifier
PUBLIC	??_C@_0BK@KDPOINAO@ChangeBaseGreatPeopleRate?$AA@ ; `string'
PUBLIC	?lChangeBaseGreatPeopleRate@CvLuaCity@@KAHPAUlua_State@@@Z ; CvLuaCity::lChangeBaseGreatPeopleRate
PUBLIC	??_C@_0CA@KMDLAMII@GetTotalGreatPeopleRateModifier?$AA@ ; `string'
PUBLIC	?lGetTotalGreatPeopleRateModifier@CvLuaCity@@KAHPAUlua_State@@@Z ; CvLuaCity::lGetTotalGreatPeopleRateModifier
PUBLIC	??_C@_0BD@EJKIAKHA@GetGreatPeopleRate?$AA@	; `string'
PUBLIC	?lGetGreatPeopleRate@CvLuaCity@@KAHPAUlua_State@@@Z ; CvLuaCity::lGetGreatPeopleRate
PUBLIC	??_C@_0BH@FFFJEHEB@GetBaseGreatPeopleRate?$AA@	; `string'
PUBLIC	?lGetBaseGreatPeopleRate@CvLuaCity@@KAHPAUlua_State@@@Z ; CvLuaCity::lGetBaseGreatPeopleRate
PUBLIC	??_C@_0BC@KLEPOAKG@GetNumGreatPeople?$AA@	; `string'
PUBLIC	?lGetNumGreatPeople@CvLuaCity@@KAHPAUlua_State@@@Z ; CvLuaCity::lGetNumGreatPeople
PUBLIC	??_C@_0BF@DCMBNE@SetHighestPopulation?$AA@	; `string'
PUBLIC	?lSetHighestPopulation@CvLuaCity@@KAHPAUlua_State@@@Z ; CvLuaCity::lSetHighestPopulation
PUBLIC	??_C@_0BF@FJCPNHID@GetHighestPopulation?$AA@	; `string'
PUBLIC	?lGetHighestPopulation@CvLuaCity@@KAHPAUlua_State@@@Z ; CvLuaCity::lGetHighestPopulation
PUBLIC	??_C@_0BC@KOHBIIDL@GetRealPopulation?$AA@	; `string'
PUBLIC	?lGetRealPopulation@CvLuaCity@@KAHPAUlua_State@@@Z ; CvLuaCity::lGetRealPopulation
PUBLIC	??_C@_0BB@DMBKLBGC@ChangePopulation?$AA@	; `string'
PUBLIC	?lChangePopulation@CvLuaCity@@KAHPAUlua_State@@@Z ; CvLuaCity::lChangePopulation
PUBLIC	??_C@_0O@HAMIKLJM@SetPopulation?$AA@		; `string'
PUBLIC	?lSetPopulation@CvLuaCity@@KAHPAUlua_State@@@Z	; CvLuaCity::lSetPopulation
PUBLIC	??_C@_0O@PNGBIOL@GetPopulation?$AA@		; `string'
PUBLIC	?lGetPopulation@CvLuaCity@@KAHPAUlua_State@@@Z	; CvLuaCity::lGetPopulation
PUBLIC	??_C@_0BI@IICLLOKC@GetGameTurnLastExpanded?$AA@	; `string'
PUBLIC	?lGetGameTurnLastExpanded@CvLuaCity@@KAHPAUlua_State@@@Z ; CvLuaCity::lGetGameTurnLastExpanded
PUBLIC	??_C@_0BE@GPLNLMHN@GetGameTurnAcquired?$AA@	; `string'
PUBLIC	?lGetGameTurnAcquired@CvLuaCity@@KAHPAUlua_State@@@Z ; CvLuaCity::lGetGameTurnAcquired
PUBLIC	??_C@_0BD@PEMIOCBG@GetGameTurnFounded?$AA@	; `string'
PUBLIC	?lGetGameTurnFounded@CvLuaCity@@KAHPAUlua_State@@@Z ; CvLuaCity::lGetGameTurnFounded
PUBLIC	??_C@_0BC@ECAKDE@GetGarrisonedUnit?$AA@		; `string'
PUBLIC	?lGetGarrisonedUnit@CvLuaCity@@KAHPAUlua_State@@@Z ; CvLuaCity::lGetGarrisonedUnit
PUBLIC	??_C@_0O@JAHGGNPO@CanBuyAnyPlot?$AA@		; `string'
PUBLIC	?lCanBuyAnyPlot@CvLuaCity@@KAHPAUlua_State@@@Z	; CvLuaCity::lCanBuyAnyPlot
PUBLIC	??_C@_0P@CLDNCOML@GetBuyPlotCost?$AA@		; `string'
PUBLIC	?lGetBuyPlotCost@CvLuaCity@@KAHPAUlua_State@@@Z	; CvLuaCity::lGetBuyPlotCost
PUBLIC	??_C@_0BD@EKOODAKH@GetBuyablePlotList?$AA@	; `string'
PUBLIC	?lGetBuyablePlotList@CvLuaCity@@KAHPAUlua_State@@@Z ; CvLuaCity::lGetBuyablePlotList
PUBLIC	??_C@_0BD@DPMBBFOK@GetNextBuyablePlot?$AA@	; `string'
PUBLIC	?lGetNextBuyablePlot@CvLuaCity@@KAHPAUlua_State@@@Z ; CvLuaCity::lGetNextBuyablePlot
PUBLIC	??_C@_0N@ELCKKIDJ@CanBuyPlotAt?$AA@		; `string'
PUBLIC	?lCanBuyPlotAt@CvLuaCity@@KAHPAUlua_State@@@Z	; CvLuaCity::lCanBuyPlotAt
PUBLIC	??_C@_0L@MJKINFAP@CanBuyPlot?$AA@		; `string'
PUBLIC	?lCanBuyPlot@CvLuaCity@@KAHPAUlua_State@@@Z	; CvLuaCity::lCanBuyPlot
PUBLIC	??_C@_0N@JOMCKPIG@GetRallyPlot?$AA@		; `string'
PUBLIC	?lGetRallyPlot@CvLuaCity@@KAHPAUlua_State@@@Z	; CvLuaCity::lGetRallyPlot
PUBLIC	??_C@_09CNIEIFHO@WaterArea?$AA@			; `string'
PUBLIC	?lWaterArea@CvLuaCity@@KAHPAUlua_State@@@Z	; CvLuaCity::lWaterArea
PUBLIC	??_C@_04KPICECCB@Area?$AA@			; `string'
PUBLIC	?lArea@CvLuaCity@@KAHPAUlua_State@@@Z		; CvLuaCity::lArea
PUBLIC	??_C@_04HIOGLPHN@Plot?$AA@			; `string'
PUBLIC	?lPlot@CvLuaCity@@KAHPAUlua_State@@@Z		; CvLuaCity::lPlot
PUBLIC	??_C@_06FBGHKGAE@AtPlot?$AA@			; `string'
PUBLIC	?lAtPlot@CvLuaCity@@KAHPAUlua_State@@@Z		; CvLuaCity::lAtPlot
PUBLIC	??_C@_02DKLFHNOI@At?$AA@			; `string'
PUBLIC	?lAt@CvLuaCity@@KAHPAUlua_State@@@Z		; CvLuaCity::lAt
PUBLIC	??_C@_04OHHHKNBL@GetY?$AA@			; `string'
PUBLIC	?lGetY@CvLuaCity@@KAHPAUlua_State@@@Z		; CvLuaCity::lGetY
PUBLIC	??_C@_04POGMJMFK@GetX?$AA@			; `string'
PUBLIC	?lGetX@CvLuaCity@@KAHPAUlua_State@@@Z		; CvLuaCity::lGetX
PUBLIC	??_C@_05CLBJHDA@GetID?$AA@			; `string'
PUBLIC	?lGetID@CvLuaCity@@KAHPAUlua_State@@@Z		; CvLuaCity::lGetID
PUBLIC	??_C@_0BF@OPJCOPIH@GetNumActiveBuilding?$AA@	; `string'
PUBLIC	?lGetNumActiveBuilding@CvLuaCity@@KAHPAUlua_State@@@Z ; CvLuaCity::lGetNumActiveBuilding
PUBLIC	??_C@_0O@ELHLCIIC@IsHasBuilding?$AA@		; `string'
PUBLIC	?lIsHasBuilding@CvLuaCity@@KAHPAUlua_State@@@Z	; CvLuaCity::lIsHasBuilding
PUBLIC	??_C@_0P@EOHOGKJK@GetNumBuilding?$AA@		; `string'
PUBLIC	?lGetNumBuilding@CvLuaCity@@KAHPAUlua_State@@@Z	; CvLuaCity::lGetNumBuilding
PUBLIC	??_C@_0BD@OEGDKNCP@MaxHurryPopulation?$AA@	; `string'
PUBLIC	?lMaxHurryPopulation@CvLuaCity@@KAHPAUlua_State@@@Z ; CvLuaCity::lMaxHurryPopulation
PUBLIC	??_C@_0BA@IMHIGCAF@HurryProduction?$AA@		; `string'
PUBLIC	?lHurryProduction@CvLuaCity@@KAHPAUlua_State@@@Z ; CvLuaCity::lHurryProduction
PUBLIC	??_C@_0BA@CCMOKMFO@HurryPopulation?$AA@		; `string'
PUBLIC	?lHurryPopulation@CvLuaCity@@KAHPAUlua_State@@@Z ; CvLuaCity::lHurryPopulation
PUBLIC	??_C@_09FLEJKCEK@HurryGold?$AA@			; `string'
PUBLIC	?lHurryGold@CvLuaCity@@KAHPAUlua_State@@@Z	; CvLuaCity::lHurryGold
PUBLIC	??_C@_09PDHBPCJG@HurryCost?$AA@			; `string'
PUBLIC	?lHurryCost@CvLuaCity@@KAHPAUlua_State@@@Z	; CvLuaCity::lHurryCost
PUBLIC	??_C@_0P@KBNPLEGK@ProductionLeft?$AA@		; `string'
PUBLIC	?lProductionLeft@CvLuaCity@@KAHPAUlua_State@@@Z	; CvLuaCity::lProductionLeft
PUBLIC	??_C@_0BA@NJNOJFJN@GrowthThreshold?$AA@		; `string'
PUBLIC	?lGrowthThreshold@CvLuaCity@@KAHPAUlua_State@@@Z ; CvLuaCity::lGrowthThreshold
PUBLIC	??_C@_0BH@LJBNHLKM@FoodDifferenceTimes100?$AA@	; `string'
PUBLIC	?lFoodDifferenceTimes100@CvLuaCity@@KAHPAUlua_State@@@Z ; CvLuaCity::lFoodDifferenceTimes100
PUBLIC	??_C@_0P@CNHJHJIP@FoodDifference?$AA@		; `string'
PUBLIC	?lFoodDifference@CvLuaCity@@KAHPAUlua_State@@@Z	; CvLuaCity::lFoodDifference
PUBLIC	??_C@_0BA@BJLFGBFC@FoodConsumption?$AA@		; `string'
PUBLIC	?lFoodConsumption@CvLuaCity@@KAHPAUlua_State@@@Z ; CvLuaCity::lFoodConsumption
PUBLIC	??_C@_09HEMCEJGG@IsCoastal?$AA@			; `string'
PUBLIC	?lIsCoastal@CvLuaCity@@KAHPAUlua_State@@@Z	; CvLuaCity::lIsCoastal
PUBLIC	??_C@_0BH@ONOJLMEH@IsOriginalMajorCapital?$AA@	; `string'
PUBLIC	?lIsOriginalMajorCapital@CvLuaCity@@KAHPAUlua_State@@@Z ; CvLuaCity::lIsOriginalMajorCapital
PUBLIC	??_C@_0BC@PAPJEFNG@IsOriginalCapital?$AA@	; `string'
PUBLIC	?lIsOriginalCapital@CvLuaCity@@KAHPAUlua_State@@@Z ; CvLuaCity::lIsOriginalCapital
PUBLIC	??_C@_09MGCHGMCG@IsCapital?$AA@			; `string'
PUBLIC	?lIsCapital@CvLuaCity@@KAHPAUlua_State@@@Z	; CvLuaCity::lIsCapital
PUBLIC	??_C@_09OLGPEPPJ@IsVisible?$AA@			; `string'
PUBLIC	?lIsVisible@CvLuaCity@@KAHPAUlua_State@@@Z	; CvLuaCity::lIsVisible
PUBLIC	??_C@_07NIJBBMLI@IsHuman?$AA@			; `string'
PUBLIC	?lIsHuman@CvLuaCity@@KAHPAUlua_State@@@Z	; CvLuaCity::lIsHuman
PUBLIC	??_C@_0M@NJNEDJLP@IsBarbarian?$AA@		; `string'
PUBLIC	?lIsBarbarian@CvLuaCity@@KAHPAUlua_State@@@Z	; CvLuaCity::lIsBarbarian
PUBLIC	??_C@_0BA@LACHPPMM@GetCitySizeType?$AA@		; `string'
PUBLIC	?lGetCitySizeType@CvLuaCity@@KAHPAUlua_State@@@Z ; CvLuaCity::lGetCitySizeType
PUBLIC	??_C@_0BA@GLKLOHNJ@GetArtStyleType?$AA@		; `string'
PUBLIC	?lGetArtStyleType@CvLuaCity@@KAHPAUlua_State@@@Z ; CvLuaCity::lGetArtStyleType
PUBLIC	??_C@_0BD@DDPEHEOB@GetPersonalityType?$AA@	; `string'
PUBLIC	?lGetPersonalityType@CvLuaCity@@KAHPAUlua_State@@@Z ; CvLuaCity::lGetPersonalityType
PUBLIC	??_C@_0BE@OGLFKPOE@GetCivilizationType?$AA@	; `string'
PUBLIC	?lGetCivilizationType@CvLuaCity@@KAHPAUlua_State@@@Z ; CvLuaCity::lGetCivilizationType
PUBLIC	??_C@_0BA@NDPGKNBO@GetHandicapType?$AA@		; `string'
PUBLIC	?lGetHandicapType@CvLuaCity@@KAHPAUlua_State@@@Z ; CvLuaCity::lGetHandicapType
PUBLIC	??_C@_0BN@GNJODLOF@GetResourceYieldRateModifier?$AA@ ; `string'
PUBLIC	?lGetResourceYieldRateModifier@CvLuaCity@@KAHPAUlua_State@@@Z ; CvLuaCity::lGetResourceYieldRateModifier
PUBLIC	??_C@_09KGDNLPBA@Conscript?$AA@			; `string'
PUBLIC	?lConscript@CvLuaCity@@KAHPAUlua_State@@@Z	; CvLuaCity::lConscript
PUBLIC	??_C@_0N@PLNBPBNI@CanConscript?$AA@		; `string'
PUBLIC	?lCanConscript@CvLuaCity@@KAHPAUlua_State@@@Z	; CvLuaCity::lCanConscript
PUBLIC	??_C@_0BL@PLEBJCEL@ConscriptMinCityPopulation?$AA@ ; `string'
PUBLIC	?lConscriptMinCityPopulation@CvLuaCity@@KAHPAUlua_State@@@Z ; CvLuaCity::lConscriptMinCityPopulation
PUBLIC	??_C@_0BH@IGNMDIJF@GetConscriptPopulation?$AA@	; `string'
PUBLIC	?lGetConscriptPopulation@CvLuaCity@@KAHPAUlua_State@@@Z ; CvLuaCity::lGetConscriptPopulation
PUBLIC	??_C@_0BB@EGKBFCJM@GetConscriptUnit?$AA@	; `string'
PUBLIC	?lGetConscriptUnit@CvLuaCity@@KAHPAUlua_State@@@Z ; CvLuaCity::lGetConscriptUnit
PUBLIC	??_C@_05PELKKPHE@Hurry?$AA@			; `string'
PUBLIC	?lHurry@CvLuaCity@@KAHPAUlua_State@@@Z		; CvLuaCity::lHurry
PUBLIC	??_C@_08IDKGLCCG@CanHurry?$AA@			; `string'
PUBLIC	?lCanHurry@CvLuaCity@@KAHPAUlua_State@@@Z	; CvLuaCity::lCanHurry
PUBLIC	??_C@_0BN@IGNDNHOA@GetExtraProductionDifference?$AA@ ; `string'
PUBLIC	?lGetExtraProductionDifference@CvLuaCity@@KAHPAUlua_State@@@Z ; CvLuaCity::lGetExtraProductionDifference
PUBLIC	??_C@_0CA@IIOBOOCG@GetSpecialistProductionModifier?$AA@ ; `string'
PUBLIC	?lGetSpecialistProductionModifier@CvLuaCity@@KAHPAUlua_State@@@Z ; CvLuaCity::lGetSpecialistProductionModifier
PUBLIC	??_C@_0BN@FIGLLOHP@GetProjectProductionModifier?$AA@ ; `string'
PUBLIC	?lGetProjectProductionModifier@CvLuaCity@@KAHPAUlua_State@@@Z ; CvLuaCity::lGetProjectProductionModifier
PUBLIC	??_C@_0BO@BOIFPPNB@GetBuildingProductionModifier?$AA@ ; `string'
PUBLIC	?lGetBuildingProductionModifier@CvLuaCity@@KAHPAUlua_State@@@Z ; CvLuaCity::lGetBuildingProductionModifier
PUBLIC	??_C@_0BK@CAONOBAD@GetUnitProductionModifier?$AA@ ; `string'
PUBLIC	?lGetUnitProductionModifier@CvLuaCity@@KAHPAUlua_State@@@Z ; CvLuaCity::lGetUnitProductionModifier
PUBLIC	??_C@_0CD@FAGAIJM@GetRawProductionDifferenceTimes1@ ; `string'
PUBLIC	?lGetRawProductionDifferenceTimes100@CvLuaCity@@KAHPAUlua_State@@@Z ; CvLuaCity::lGetRawProductionDifferenceTimes100
PUBLIC	??_C@_0CH@BNPOEMEH@GetCurrentProductionDifferenceTi@ ; `string'
PUBLIC	?lGetCurrentProductionDifferenceTimes100@CvLuaCity@@KAHPAUlua_State@@@Z ; CvLuaCity::lGetCurrentProductionDifferenceTimes100
PUBLIC	??_C@_0BL@KEJICAMN@GetRawProductionDifference?$AA@ ; `string'
PUBLIC	?lGetRawProductionDifference@CvLuaCity@@KAHPAUlua_State@@@Z ; CvLuaCity::lGetRawProductionDifference
PUBLIC	??_C@_0BP@DPKFHAM@GetCurrentProductionDifference?$AA@ ; `string'
PUBLIC	?lGetCurrentProductionDifference@CvLuaCity@@KAHPAUlua_State@@@Z ; CvLuaCity::lGetCurrentProductionDifference
PUBLIC	??_C@_0BG@COALBBFM@GetProductionModifier?$AA@	; `string'
PUBLIC	?lGetProductionModifier@CvLuaCity@@KAHPAUlua_State@@@Z ; CvLuaCity::lGetProductionModifier
PUBLIC	??_C@_0BI@LBFPCPLM@GetYieldModifierTooltip?$AA@	; `string'
PUBLIC	?lGetYieldModifierTooltip@CvLuaCity@@KAHPAUlua_State@@@Z ; CvLuaCity::lGetYieldModifierTooltip
PUBLIC	??_C@_0BB@JCKMHPDJ@ChangeProduction?$AA@	; `string'
PUBLIC	?lChangeProduction@CvLuaCity@@KAHPAUlua_State@@@Z ; CvLuaCity::lChangeProduction
PUBLIC	??_C@_0O@NOHOGFMH@SetProduction?$AA@		; `string'
PUBLIC	?lSetProduction@CvLuaCity@@KAHPAUlua_State@@@Z	; CvLuaCity::lSetProduction
PUBLIC	??_C@_0BH@JBKNIEHE@GetProjectPurchaseCost?$AA@	; `string'
PUBLIC	?lGetProjectPurchaseCost@CvLuaCity@@KAHPAUlua_State@@@Z ; CvLuaCity::lGetProjectPurchaseCost
PUBLIC	??_C@_0BN@CMKEAJOA@GetBuildingFaithPurchaseCost?$AA@ ; `string'
PUBLIC	?lGetBuildingFaithPurchaseCost@CvLuaCity@@KAHPAUlua_State@@@Z ; CvLuaCity::lGetBuildingFaithPurchaseCost
PUBLIC	??_C@_0BI@EOCLNJGF@GetBuildingPurchaseCost?$AA@	; `string'
PUBLIC	?lGetBuildingPurchaseCost@CvLuaCity@@KAHPAUlua_State@@@Z ; CvLuaCity::lGetBuildingPurchaseCost
PUBLIC	??_C@_0BJ@CKMNAAAH@GetUnitFaithPurchaseCost?$AA@ ; `string'
PUBLIC	?lGetUnitFaithPurchaseCost@CvLuaCity@@KAHPAUlua_State@@@Z ; CvLuaCity::lGetUnitFaithPurchaseCost
PUBLIC	??_C@_0BE@OFOJNOOB@GetUnitPurchaseCost?$AA@	; `string'
PUBLIC	?lGetUnitPurchaseCost@CvLuaCity@@KAHPAUlua_State@@@Z ; CvLuaCity::lGetUnitPurchaseCost
PUBLIC	??_C@_0O@NIIMABIN@IsCanPurchase?$AA@		; `string'
PUBLIC	?lIsCanPurchase@CvLuaCity@@KAHPAUlua_State@@@Z	; CvLuaCity::lIsCanPurchase
PUBLIC	??_C@_0BE@GBMHNAJH@CreateApolloProgram?$AA@	; `string'
PUBLIC	?lCreateApolloProgram@CvLuaCity@@KAHPAUlua_State@@@Z ; CvLuaCity::lCreateApolloProgram
PUBLIC	??_C@_0CB@EFOFIEPO@GetSpecialistProductionTurnsLeft@ ; `string'
PUBLIC	?lGetSpecialistProductionTurnsLeft@CvLuaCity@@KAHPAUlua_State@@@Z ; CvLuaCity::lGetSpecialistProductionTurnsLeft
PUBLIC	??_C@_0BO@FHICOHPO@GetProjectProductionTurnsLeft?$AA@ ; `string'
PUBLIC	?lGetProjectProductionTurnsLeft@CvLuaCity@@KAHPAUlua_State@@@Z ; CvLuaCity::lGetProjectProductionTurnsLeft
PUBLIC	??_C@_0BP@GGKKIHFA@GetBuildingProductionTurnsLeft?$AA@ ; `string'
PUBLIC	?lGetBuildingProductionTurnsLeft@CvLuaCity@@KAHPAUlua_State@@@Z ; CvLuaCity::lGetBuildingProductionTurnsLeft
PUBLIC	??_C@_0BL@OEJFMLG@GetUnitProductionTurnsLeft?$AA@ ; `string'
PUBLIC	?lGetUnitProductionTurnsLeft@CvLuaCity@@KAHPAUlua_State@@@Z ; CvLuaCity::lGetUnitProductionTurnsLeft
PUBLIC	??_C@_0BH@PFJDPGCD@GetProductionTurnsLeft?$AA@	; `string'
PUBLIC	?lGetProductionTurnsLeft@CvLuaCity@@KAHPAUlua_State@@@Z ; CvLuaCity::lGetProductionTurnsLeft
PUBLIC	??_C@_0BL@JBMFKMKF@GetProjectProductionNeeded?$AA@ ; `string'
PUBLIC	?lGetProjectProductionNeeded@CvLuaCity@@KAHPAUlua_State@@@Z ; CvLuaCity::lGetProjectProductionNeeded
PUBLIC	??_C@_0BM@GGLBNBDE@GetBuildingProductionNeeded?$AA@ ; `string'
PUBLIC	?lGetBuildingProductionNeeded@CvLuaCity@@KAHPAUlua_State@@@Z ; CvLuaCity::lGetBuildingProductionNeeded
PUBLIC	??_C@_0BI@LJANCJHB@GetUnitProductionNeeded?$AA@	; `string'
PUBLIC	?lGetUnitProductionNeeded@CvLuaCity@@KAHPAUlua_State@@@Z ; CvLuaCity::lGetUnitProductionNeeded
PUBLIC	??_C@_0BE@BJPFPGBE@GetProductionNeeded?$AA@	; `string'
PUBLIC	?lGetProductionNeeded@CvLuaCity@@KAHPAUlua_State@@@Z ; CvLuaCity::lGetProductionNeeded
PUBLIC	??_C@_0BG@ENMJHDK@GetProductionTimes100?$AA@	; `string'
PUBLIC	?lGetProductionTimes100@CvLuaCity@@KAHPAUlua_State@@@Z ; CvLuaCity::lGetProductionTimes100
PUBLIC	??_C@_0O@KBGANGLA@GetProduction?$AA@		; `string'
PUBLIC	?lGetProduction@CvLuaCity@@KAHPAUlua_State@@@Z	; CvLuaCity::lGetProduction
PUBLIC	??_C@_0BF@LICEFFKA@IsUnitFoodProduction?$AA@	; `string'
PUBLIC	?lIsUnitFoodProduction@CvLuaCity@@KAHPAUlua_State@@@Z ; CvLuaCity::lIsUnitFoodProduction
PUBLIC	??_C@_0BG@EDLGFJKE@GetFirstBuildingOrder?$AA@	; `string'
PUBLIC	?lGetFirstBuildingOrder@CvLuaCity@@KAHPAUlua_State@@@Z ; CvLuaCity::lGetFirstBuildingOrder
PUBLIC	??_C@_0BC@LOPIPDKF@GetNumTrainUnitAI?$AA@	; `string'
PUBLIC	?lGetNumTrainUnitAI@CvLuaCity@@KAHPAUlua_State@@@Z ; CvLuaCity::lGetNumTrainUnitAI
PUBLIC	??_C@_0BC@BMCPAEED@GetOrderFromQueue?$AA@	; `string'
PUBLIC	?lGetOrderFromQueue@CvLuaCity@@KAHPAUlua_State@@@Z ; CvLuaCity::lGetOrderFromQueue
PUBLIC	??_C@_0BI@GOLELKAA@GetFirstSpecialistOrder?$AA@	; `string'
PUBLIC	?lGetFirstSpecialistOrder@CvLuaCity@@KAHPAUlua_State@@@Z ; CvLuaCity::lGetFirstSpecialistOrder
PUBLIC	??_C@_0BF@KCLLEIOH@GetFirstProjectOrder?$AA@	; `string'
PUBLIC	?lGetFirstProjectOrder@CvLuaCity@@KAHPAUlua_State@@@Z ; CvLuaCity::lGetFirstProjectOrder
PUBLIC	??_C@_0BC@MEAEELJJ@GetFirstUnitOrder?$AA@	; `string'
PUBLIC	?lGetFirstUnitOrder@CvLuaCity@@KAHPAUlua_State@@@Z ; CvLuaCity::lGetFirstUnitOrder
PUBLIC	??_C@_0BB@FDBBPKLD@IsFoodProduction?$AA@	; `string'
PUBLIC	?lIsFoodProduction@CvLuaCity@@KAHPAUlua_State@@@Z ; CvLuaCity::lIsFoodProduction
PUBLIC	??_C@_0BO@NIKBHNEM@GetGeneralProductionTurnsLeft?$AA@ ; `string'
PUBLIC	?lGetGeneralProductionTurnsLeft@CvLuaCity@@KAHPAUlua_State@@@Z ; CvLuaCity::lGetGeneralProductionTurnsLeft
PUBLIC	??_C@_0BF@IAGNNOMA@GetProductionNameKey?$AA@	; `string'
PUBLIC	?lGetProductionNameKey@CvLuaCity@@KAHPAUlua_State@@@Z ; CvLuaCity::lGetProductionNameKey
PUBLIC	??_C@_0BF@NPELMAGE@GetProductionProcess?$AA@	; `string'
PUBLIC	?lGetProductionProcess@CvLuaCity@@KAHPAUlua_State@@@Z ; CvLuaCity::lGetProductionProcess
PUBLIC	??_C@_0BI@FNNHALBC@GetProductionSpecialist?$AA@	; `string'
PUBLIC	?lGetProductionSpecialist@CvLuaCity@@KAHPAUlua_State@@@Z ; CvLuaCity::lGetProductionSpecialist
PUBLIC	??_C@_0BF@IBDMJHKC@GetProductionProject?$AA@	; `string'
PUBLIC	?lGetProductionProject@CvLuaCity@@KAHPAUlua_State@@@Z ; CvLuaCity::lGetProductionProject
PUBLIC	??_C@_0BG@GMPDFJII@GetProductionBuilding?$AA@	; `string'
PUBLIC	?lGetProductionBuilding@CvLuaCity@@KAHPAUlua_State@@@Z ; CvLuaCity::lGetProductionBuilding
PUBLIC	??_C@_0BE@JMGMMAKO@GetProductionUnitAI?$AA@	; `string'
PUBLIC	?lGetProductionUnitAI@CvLuaCity@@KAHPAUlua_State@@@Z ; CvLuaCity::lGetProductionUnitAI
PUBLIC	??_C@_0BC@HHAFHDBH@GetProductionUnit?$AA@	; `string'
PUBLIC	?lGetProductionUnit@CvLuaCity@@KAHPAUlua_State@@@Z ; CvLuaCity::lGetProductionUnit
PUBLIC	??_C@_0BI@PMHACJOD@AddProductionExperience?$AA@	; `string'
PUBLIC	?lAddProductionExperience@CvLuaCity@@KAHPAUlua_State@@@Z ; CvLuaCity::lAddProductionExperience
PUBLIC	??_C@_0BI@HOMJNLCG@GetProductionExperience?$AA@	; `string'
PUBLIC	?lGetProductionExperience@CvLuaCity@@KAHPAUlua_State@@@Z ; CvLuaCity::lGetProductionExperience
PUBLIC	??_C@_0BG@FDHDEEDP@CanContinueProduction?$AA@	; `string'
PUBLIC	?lCanContinueProduction@CvLuaCity@@KAHPAUlua_State@@@Z ; CvLuaCity::lCanContinueProduction
PUBLIC	??_C@_0BE@IPGILDGA@IsProductionProcess?$AA@	; `string'
PUBLIC	?lIsProductionProcess@CvLuaCity@@KAHPAUlua_State@@@Z ; CvLuaCity::lIsProductionProcess
PUBLIC	??_C@_0BH@PMKLPINJ@IsProductionSpecialist?$AA@	; `string'
PUBLIC	?lIsProductionSpecialist@CvLuaCity@@KAHPAUlua_State@@@Z ; CvLuaCity::lIsProductionSpecialist
PUBLIC	??_C@_0BE@NBBPOEKG@IsProductionProject?$AA@	; `string'
PUBLIC	?lIsProductionProject@CvLuaCity@@KAHPAUlua_State@@@Z ; CvLuaCity::lIsProductionProject
PUBLIC	??_C@_0BF@GLMOLOOC@IsProductionBuilding?$AA@	; `string'
PUBLIC	?lIsProductionBuilding@CvLuaCity@@KAHPAUlua_State@@@Z ; CvLuaCity::lIsProductionBuilding
PUBLIC	??_C@_0BB@MEBAJFDN@IsProductionUnit?$AA@	; `string'
PUBLIC	?lIsProductionUnit@CvLuaCity@@KAHPAUlua_State@@@Z ; CvLuaCity::lIsProductionUnit
PUBLIC	??_C@_0BE@DDFAINDE@IsProductionLimited?$AA@	; `string'
PUBLIC	?lIsProductionLimited@CvLuaCity@@KAHPAUlua_State@@@Z ; CvLuaCity::lIsProductionLimited
PUBLIC	??_C@_0N@GIHKPEF@IsProduction?$AA@		; `string'
PUBLIC	?lIsProduction@CvLuaCity@@KAHPAUlua_State@@@Z	; CvLuaCity::lIsProduction
PUBLIC	??_C@_0BB@IKLMJKMH@GetFoodTurnsLeft?$AA@	; `string'
PUBLIC	?lGetFoodTurnsLeft@CvLuaCity@@KAHPAUlua_State@@@Z ; CvLuaCity::lGetFoodTurnsLeft
PUBLIC	??_C@_0BH@MCIHHEDJ@DoPickResourceDemanded?$AA@	; `string'
PUBLIC	?lDoPickResourceDemanded@CvLuaCity@@KAHPAUlua_State@@@Z ; CvLuaCity::lDoPickResourceDemanded
PUBLIC	??_C@_0BE@HDAFCNHJ@SetResourceDemanded?$AA@	; `string'
PUBLIC	?lSetResourceDemanded@CvLuaCity@@KAHPAUlua_State@@@Z ; CvLuaCity::lSetResourceDemanded
PUBLIC	??_C@_0BE@NNCOGNAF@GetResourceDemanded?$AA@	; `string'
PUBLIC	?lGetResourceDemanded@CvLuaCity@@KAHPAUlua_State@@@Z ; CvLuaCity::lGetResourceDemanded
PUBLIC	??_C@_0BN@GDJGPHKP@IsBuildingLocalResourceValid?$AA@ ; `string'
PUBLIC	?lIsBuildingLocalResourceValid@CvLuaCity@@KAHPAUlua_State@@@Z ; CvLuaCity::lIsBuildingLocalResourceValid
PUBLIC	??_C@_07OPIONNNI@CanJoin?$AA@			; `string'
PUBLIC	?lCanJoin@CvLuaCity@@KAHPAUlua_State@@@Z	; CvLuaCity::lCanJoin
PUBLIC	??_C@_0CA@GGJPFJGL@GetFaithPurchaseBuildingTooltip?$AA@ ; `string'
PUBLIC	?lGetFaithPurchaseBuildingTooltip@CvLuaCity@@KAHPAUlua_State@@@Z ; CvLuaCity::lGetFaithPurchaseBuildingTooltip
PUBLIC	??_C@_0BL@FAPMIPIE@GetPurchaseBuildingTooltip?$AA@ ; `string'
PUBLIC	?lGetPurchaseBuildingTooltip@CvLuaCity@@KAHPAUlua_State@@@Z ; CvLuaCity::lGetPurchaseBuildingTooltip
PUBLIC	??_C@_0BM@MAHKFKLD@GetFaithPurchaseUnitTooltip?$AA@ ; `string'
PUBLIC	?lGetFaithPurchaseUnitTooltip@CvLuaCity@@KAHPAUlua_State@@@Z ; CvLuaCity::lGetFaithPurchaseUnitTooltip
PUBLIC	??_C@_0BH@CFONLAFB@GetPurchaseUnitTooltip?$AA@	; `string'
PUBLIC	?lGetPurchaseUnitTooltip@CvLuaCity@@KAHPAUlua_State@@@Z ; CvLuaCity::lGetPurchaseUnitTooltip
PUBLIC	??_C@_0M@LBFPGCCN@CanMaintain?$AA@		; `string'
PUBLIC	?lCanMaintain@CvLuaCity@@KAHPAUlua_State@@@Z	; CvLuaCity::lCanMaintain
PUBLIC	??_C@_0L@DCAJPLNN@CanPrepare?$AA@		; `string'
PUBLIC	?lCanPrepare@CvLuaCity@@KAHPAUlua_State@@@Z	; CvLuaCity::lCanPrepare
PUBLIC	??_C@_09ENLCPIFP@CanCreate?$AA@			; `string'
PUBLIC	?lCanCreate@CvLuaCity@@KAHPAUlua_State@@@Z	; CvLuaCity::lCanCreate
PUBLIC	??_C@_0N@OBKNDGPF@CanConstruct?$AA@		; `string'
PUBLIC	?lCanConstruct@CvLuaCity@@KAHPAUlua_State@@@Z	; CvLuaCity::lCanConstruct
PUBLIC	??_C@_0BE@IHIHNENF@CanConstructTooltip?$AA@	; `string'
PUBLIC	?lCanConstructTooltip@CvLuaCity@@KAHPAUlua_State@@@Z ; CvLuaCity::lCanConstructTooltip
PUBLIC	??_C@_08BCMOJMKA@CanTrain?$AA@			; `string'
PUBLIC	?lCanTrain@CvLuaCity@@KAHPAUlua_State@@@Z	; CvLuaCity::lCanTrain
PUBLIC	??_C@_0BA@EKMJEJJ@CanTrainTooltip?$AA@		; `string'
PUBLIC	?lCanTrainTooltip@CvLuaCity@@KAHPAUlua_State@@@Z ; CvLuaCity::lCanTrainTooltip
PUBLIC	??_C@_0BB@PMKDJFAN@IsBuildingsMaxed?$AA@	; `string'
PUBLIC	?lIsBuildingsMaxed@CvLuaCity@@KAHPAUlua_State@@@Z ; CvLuaCity::lIsBuildingsMaxed
PUBLIC	??_C@_0BH@PEGJHPHH@IsNationalWondersMaxed?$AA@	; `string'
PUBLIC	?lIsNationalWondersMaxed@CvLuaCity@@KAHPAUlua_State@@@Z ; CvLuaCity::lIsNationalWondersMaxed
PUBLIC	??_C@_0BD@ILFMPGB@IsTeamWondersMaxed?$AA@	; `string'
PUBLIC	?lIsTeamWondersMaxed@CvLuaCity@@KAHPAUlua_State@@@Z ; CvLuaCity::lIsTeamWondersMaxed
PUBLIC	??_C@_0BE@MLOPBNAH@IsWorldWondersMaxed?$AA@	; `string'
PUBLIC	?lIsWorldWondersMaxed@CvLuaCity@@KAHPAUlua_State@@@Z ; CvLuaCity::lIsWorldWondersMaxed
PUBLIC	??_C@_0BF@DHLOKDMI@AllUpgradesAvailable?$AA@	; `string'
PUBLIC	?lAllUpgradesAvailable@CvLuaCity@@KAHPAUlua_State@@@Z ; CvLuaCity::lAllUpgradesAvailable
PUBLIC	??_C@_0BC@NIDNNACB@FindYieldRateRank?$AA@	; `string'
PUBLIC	?lFindYieldRateRank@CvLuaCity@@KAHPAUlua_State@@@Z ; CvLuaCity::lFindYieldRateRank
PUBLIC	??_C@_0BG@HJIHCGBJ@FindBaseYieldRateRank?$AA@	; `string'
PUBLIC	?lFindBaseYieldRateRank@CvLuaCity@@KAHPAUlua_State@@@Z ; CvLuaCity::lFindBaseYieldRateRank
PUBLIC	??_C@_0BD@CLJOHCFG@FindPopulationRank?$AA@	; `string'
PUBLIC	?lFindPopulationRank@CvLuaCity@@KAHPAUlua_State@@@Z ; CvLuaCity::lFindPopulationRank
PUBLIC	??_C@_0BD@ENGGNHLP@CountNumRiverPlots?$AA@	; `string'
PUBLIC	?lCountNumRiverPlots@CvLuaCity@@KAHPAUlua_State@@@Z ; CvLuaCity::lCountNumRiverPlots
PUBLIC	??_C@_0BD@BBABDIP@CountNumWaterPlots?$AA@	; `string'
PUBLIC	?lCountNumWaterPlots@CvLuaCity@@KAHPAUlua_State@@@Z ; CvLuaCity::lCountNumWaterPlots
PUBLIC	??_C@_0BG@FBLIMDFF@CountNumImprovedPlots?$AA@	; `string'
PUBLIC	?lCountNumImprovedPlots@CvLuaCity@@KAHPAUlua_State@@@Z ; CvLuaCity::lCountNumImprovedPlots
PUBLIC	??_C@_0BF@DHGDDLG@ClearWorkingOverride?$AA@	; `string'
PUBLIC	?lClearWorkingOverride@CvLuaCity@@KAHPAUlua_State@@@Z ; CvLuaCity::lClearWorkingOverride
PUBLIC	??_C@_0BA@PODKKBHB@IsPlotBlockaded?$AA@		; `string'
PUBLIC	?lIsPlotBlockaded@CvLuaCity@@KAHPAUlua_State@@@Z ; CvLuaCity::lIsPlotBlockaded
PUBLIC	??_C@_07BKPKDGDP@CanWork?$AA@			; `string'
PUBLIC	?lCanWork@CvLuaCity@@KAHPAUlua_State@@@Z	; CvLuaCity::lCanWork
PUBLIC	??_C@_0BB@EPAKKPKO@GetCityIndexPlot?$AA@	; `string'
PUBLIC	?lGetCityIndexPlot@CvLuaCity@@KAHPAUlua_State@@@Z ; CvLuaCity::lGetCityIndexPlot
PUBLIC	??_C@_0BB@JDCFJGPM@GetCityPlotIndex?$AA@	; `string'
PUBLIC	?lGetCityPlotIndex@CvLuaCity@@KAHPAUlua_State@@@Z ; CvLuaCity::lGetCityPlotIndex
PUBLIC	??_C@_0BB@JGGOEKHG@ChooseProduction?$AA@	; `string'
PUBLIC	?lChooseProduction@CvLuaCity@@KAHPAUlua_State@@@Z ; CvLuaCity::lChooseProduction
PUBLIC	??_C@_06LFMCFBGM@DoTask?$AA@			; `string'
PUBLIC	?lDoTask@CvLuaCity@@KAHPAUlua_State@@@Z		; CvLuaCity::lDoTask
PUBLIC	??_C@_0BD@NCKCFLCG@CreateGreatAdmiral?$AA@	; `string'
PUBLIC	?lCreateGreatAdmiral@CvLuaCity@@KAHPAUlua_State@@@Z ; CvLuaCity::lCreateGreatAdmiral
PUBLIC	??_C@_0BD@PBNOMGLK@CreateGreatGeneral?$AA@	; `string'
PUBLIC	?lCreateGreatGeneral@CvLuaCity@@KAHPAUlua_State@@@Z ; CvLuaCity::lCreateGreatGeneral
PUBLIC	??_C@_04NIFFMPNM@Kill?$AA@			; `string'
PUBLIC	?lKill@CvLuaCity@@KAHPAUlua_State@@@Z		; CvLuaCity::lKill
PUBLIC	??_C@_06OAPDBHPB@IsNone?$AA@			; `string'
PUBLIC	?lIsNone@CvLuaCity@@KAHPAUlua_State@@@Z		; CvLuaCity::lIsNone
PUBLIC	?PushMethods@CvLuaCity@@SAXPAUlua_State@@H@Z	; CvLuaCity::PushMethods
EXTRN	_lua_setfield:PROC
EXTRN	_lua_pushcclosure:PROC
;	COMDAT ??_C@_0CD@COEJMCEC@GetReligionCityRangeStrikeModifi@
; File d:\sources\lekmod_git\checkout\lekmod_dll\cvgamecoredll_expansion2\lua\cvluacity.cpp
CONST	SEGMENT
??_C@_0CD@COEJMCEC@GetReligionCityRangeStrikeModifi@ DB 'GetReligionCityR'
	DB	'angeStrikeModifier', 00H			; `string'
CONST	ENDS
;	COMDAT ??_C@_0BJ@FDKOKGMB@GetNumForcedWorkingPlots?$AA@
CONST	SEGMENT
??_C@_0BJ@FDKOKGMB@GetNumForcedWorkingPlots?$AA@ DB 'GetNumForcedWorkingP'
	DB	'lots', 00H					; `string'
CONST	ENDS
;	COMDAT ??_C@_0BJ@EJFOMIDN@GetCultureFromSpecialist?$AA@
CONST	SEGMENT
??_C@_0BJ@EJFOMIDN@GetCultureFromSpecialist?$AA@ DB 'GetCultureFromSpecia'
	DB	'list', 00H					; `string'
CONST	ENDS
;	COMDAT ??_C@_0BD@LMIDJJOI@GetSpecialistYield?$AA@
CONST	SEGMENT
??_C@_0BD@LMIDJJOI@GetSpecialistYield?$AA@ DB 'GetSpecialistYield', 00H ; `string'
CONST	ENDS
;	COMDAT ??_C@_0BB@KGFIABNE@CanPlaceUnitHere?$AA@
CONST	SEGMENT
??_C@_0BB@KGFIABNE@CanPlaceUnitHere?$AA@ DB 'CanPlaceUnitHere', 00H ; `string'
CONST	ENDS
;	COMDAT ??_C@_0BA@JCDPNDEK@GetNumCityPlots?$AA@
CONST	SEGMENT
??_C@_0BA@JCDPNDEK@GetNumCityPlots?$AA@ DB 'GetNumCityPlots', 00H ; `string'
CONST	ENDS
;	COMDAT ??_C@_0CD@BMMNEKOO@GetBuildingGlobalEspionageModifi@
CONST	SEGMENT
??_C@_0CD@BMMNEKOO@GetBuildingGlobalEspionageModifi@ DB 'GetBuildingGloba'
	DB	'lEspionageModifier', 00H			; `string'
CONST	ENDS
;	COMDAT ??_C@_0BN@KJGALFCA@GetBuildingEspionageModifier?$AA@
CONST	SEGMENT
??_C@_0BN@KJGALFCA@GetBuildingEspionageModifier?$AA@ DB 'GetBuildingEspio'
	DB	'nageModifier', 00H				; `string'
CONST	ENDS
;	COMDAT ??_C@_0BH@IJFNGACL@SetBuildingYieldChange?$AA@
CONST	SEGMENT
??_C@_0BH@IJFNGACL@SetBuildingYieldChange?$AA@ DB 'SetBuildingYieldChange'
	DB	00H						; `string'
CONST	ENDS
;	COMDAT ??_C@_0BH@IIHDEHPE@GetBuildingYieldChange?$AA@
CONST	SEGMENT
??_C@_0BH@IIHDEHPE@GetBuildingYieldChange?$AA@ DB 'GetBuildingYieldChange'
	DB	00H						; `string'
CONST	ENDS
;	COMDAT ??_C@_0BE@PCCBFHJN@GetOrderQueueLength?$AA@
CONST	SEGMENT
??_C@_0BE@PCCBFHJN@GetOrderQueueLength?$AA@ DB 'GetOrderQueueLength', 00H ; `string'
CONST	ENDS
;	COMDAT ??_C@_08BEEKLBOG@PopOrder?$AA@
CONST	SEGMENT
??_C@_08BEEKLBOG@PopOrder?$AA@ DB 'PopOrder', 00H	; `string'
CONST	ENDS
;	COMDAT ??_C@_09BPJOHKFH@PushOrder?$AA@
CONST	SEGMENT
??_C@_09BPJOHKFH@PushOrder?$AA@ DB 'PushOrder', 00H	; `string'
CONST	ENDS
;	COMDAT ??_C@_0BA@OFIEGGCN@ClearOrderQueue?$AA@
CONST	SEGMENT
??_C@_0BA@OFIEGGCN@ClearOrderQueue?$AA@ DB 'ClearOrderQueue', 00H ; `string'
CONST	ENDS
;	COMDAT ??_C@_0BL@MHAHLBOF@GetNumGreatWorksInBuilding?$AA@
CONST	SEGMENT
??_C@_0BL@MHAHLBOF@GetNumGreatWorksInBuilding?$AA@ DB 'GetNumGreatWorksIn'
	DB	'Building', 00H				; `string'
CONST	ENDS
;	COMDAT ??_C@_0BD@IFLPGFLJ@IsHoldingGreatWork?$AA@
CONST	SEGMENT
??_C@_0BD@IFLPGFLJ@IsHoldingGreatWork?$AA@ DB 'IsHoldingGreatWork', 00H ; `string'
CONST	ENDS
;	COMDAT ??_C@_0BF@DIKBHKDI@SetBuildingGreatWork?$AA@
CONST	SEGMENT
??_C@_0BF@DIKBHKDI@SetBuildingGreatWork?$AA@ DB 'SetBuildingGreatWork', 00H ; `string'
CONST	ENDS
;	COMDAT ??_C@_0BF@GBLMGMGP@GetBuildingGreatWork?$AA@
CONST	SEGMENT
??_C@_0BF@GBLMGMGP@GetBuildingGreatWork?$AA@ DB 'GetBuildingGreatWork', 00H ; `string'
CONST	ENDS
;	COMDAT ??_C@_0CA@FAHLOAIH@GetTotalBaseBuildingMaintenance?$AA@
CONST	SEGMENT
??_C@_0CA@FAHLOAIH@GetTotalBaseBuildingMaintenance?$AA@ DB 'GetTotalBaseB'
	DB	'uildingMaintenance', 00H			; `string'
CONST	ENDS
;	COMDAT ??_C@_0BG@NPBALGAL@GetSellBuildingRefund?$AA@
CONST	SEGMENT
??_C@_0BG@NPBALGAL@GetSellBuildingRefund?$AA@ DB 'GetSellBuildingRefund', 00H ; `string'
CONST	ENDS
;	COMDAT ??_C@_0BD@ONJFGLJC@IsBuildingSellable?$AA@
CONST	SEGMENT
??_C@_0BD@ONJFGLJC@IsBuildingSellable?$AA@ DB 'IsBuildingSellable', 00H ; `string'
CONST	ENDS
;	COMDAT ??_C@_0BD@MCLNCOID@GetNumFreeBuilding?$AA@
CONST	SEGMENT
??_C@_0BD@MCLNCOID@GetNumFreeBuilding?$AA@ DB 'GetNumFreeBuilding', 00H ; `string'
CONST	ENDS
;	COMDAT ??_C@_0BD@HIGFIIBM@SetNumRealBuilding?$AA@
CONST	SEGMENT
??_C@_0BD@HIGFIIBM@SetNumRealBuilding?$AA@ DB 'SetNumRealBuilding', 00H ; `string'
CONST	ENDS
;	COMDAT ??_C@_0BD@ICEPLOPE@GetNumRealBuilding?$AA@
CONST	SEGMENT
??_C@_0BD@ICEPLOPE@GetNumRealBuilding?$AA@ DB 'GetNumRealBuilding', 00H ; `string'
CONST	ENDS
;	COMDAT ??_C@_0BE@MNHDNBKJ@IsForcedWorkingPlot?$AA@
CONST	SEGMENT
??_C@_0BE@MNHDNBKJ@IsForcedWorkingPlot?$AA@ DB 'IsForcedWorkingPlot', 00H ; `string'
CONST	ENDS
;	COMDAT ??_C@_0BB@MLMHPGAK@AlterWorkingPlot?$AA@
CONST	SEGMENT
??_C@_0BB@MLMHPGAK@AlterWorkingPlot?$AA@ DB 'AlterWorkingPlot', 00H ; `string'
CONST	ENDS
;	COMDAT ??_C@_0O@CBDHABDH@IsWorkingPlot?$AA@
CONST	SEGMENT
??_C@_0O@CBDHABDH@IsWorkingPlot?$AA@ DB 'IsWorkingPlot', 00H ; `string'
CONST	ENDS
;	COMDAT ??_C@_0BK@LJEHDMDL@GetAirStrikeDefenseDamage?$AA@
CONST	SEGMENT
??_C@_0BK@LJEHDMDL@GetAirStrikeDefenseDamage?$AA@ DB 'GetAirStrikeDefense'
	DB	'Damage', 00H				; `string'
CONST	ENDS
;	COMDAT ??_C@_0BC@IGMINMDO@RangeCombatDamage?$AA@
CONST	SEGMENT
??_C@_0BC@IGMINMDO@RangeCombatDamage?$AA@ DB 'RangeCombatDamage', 00H ; `string'
CONST	ENDS
;	COMDAT ??_C@_0BH@GENLCPG@RangeCombatUnitDefense?$AA@
CONST	SEGMENT
??_C@_0BH@GENLCPG@RangeCombatUnitDefense?$AA@ DB 'RangeCombatUnitDefense', 00H ; `string'
CONST	ENDS
;	COMDAT ??_C@_0CB@EMMFCPOC@HasPerformedRangedStrikeThisTurn@
CONST	SEGMENT
??_C@_0CB@EMMFCPOC@HasPerformedRangedStrikeThisTurn@ DB 'HasPerformedRang'
	DB	'edStrikeThisTurn', 00H			; `string'
CONST	ENDS
;	COMDAT ??_C@_0BB@HFDCOJOB@CanRangeStrikeAt?$AA@
CONST	SEGMENT
??_C@_0BB@HFDCOJOB@CanRangeStrikeAt?$AA@ DB 'CanRangeStrikeAt', 00H ; `string'
CONST	ENDS
;	COMDAT ??_C@_0BC@PPBGFDPB@CanRangeStrikeNow?$AA@
CONST	SEGMENT
??_C@_0BC@PPBGFDPB@CanRangeStrikeNow?$AA@ DB 'CanRangeStrikeNow', 00H ; `string'
CONST	ENDS
;	COMDAT ??_C@_0P@CDOKKCEP@CanRangeStrike?$AA@
CONST	SEGMENT
??_C@_0P@CDOKKCEP@CanRangeStrike?$AA@ DB 'CanRangeStrike', 00H ; `string'
CONST	ENDS
;	COMDAT ??_C@_0BA@NIPPNLFL@GetMaxHitPoints?$AA@
CONST	SEGMENT
??_C@_0BA@NIPPNLFL@GetMaxHitPoints?$AA@ DB 'GetMaxHitPoints', 00H ; `string'
CONST	ENDS
;	COMDAT ??_C@_0N@OECJINCP@ChangeDamage?$AA@
CONST	SEGMENT
??_C@_0N@OECJINCP@ChangeDamage?$AA@ DB 'ChangeDamage', 00H ; `string'
CONST	ENDS
;	COMDAT ??_C@_09LEHOBNAL@SetDamage?$AA@
CONST	SEGMENT
??_C@_09LEHOBNAL@SetDamage?$AA@ DB 'SetDamage', 00H	; `string'
CONST	ENDS
;	COMDAT ??_C@_09JKDLDMJJ@GetDamage?$AA@
CONST	SEGMENT
??_C@_09JKDLDMJJ@GetDamage?$AA@ DB 'GetDamage', 00H	; `string'
CONST	ENDS
;	COMDAT ??_C@_0BB@GOIDKIFF@GetStrengthValue?$AA@
CONST	SEGMENT
??_C@_0BB@GOIDKIFF@GetStrengthValue?$AA@ DB 'GetStrengthValue', 00H ; `string'
CONST	ENDS
;	COMDAT ??_C@_0BE@POOBMJHD@UpdateStrengthValue?$AA@
CONST	SEGMENT
??_C@_0BE@POOBMJHD@UpdateStrengthValue?$AA@ DB 'UpdateStrengthValue', 00H ; `string'
CONST	ENDS
;	COMDAT ??_C@_0BM@IHAGDLPN@GetSpecialistFreeExperience?$AA@
CONST	SEGMENT
??_C@_0BM@IHAGDLPN@GetSpecialistFreeExperience?$AA@ DB 'GetSpecialistFree'
	DB	'Experience', 00H				; `string'
CONST	ENDS
;	COMDAT ??_C@_0BA@IKABNDKF@IsFreePromotion?$AA@
CONST	SEGMENT
??_C@_0BA@IKABNDKF@IsFreePromotion?$AA@ DB 'IsFreePromotion', 00H ; `string'
CONST	ENDS
;	COMDAT ??_C@_0BG@IMOAGJCF@GetFreePromotionCount?$AA@
CONST	SEGMENT
??_C@_0BG@IMOAGJCF@GetFreePromotionCount?$AA@ DB 'GetFreePromotionCount', 00H ; `string'
CONST	ENDS
;	COMDAT ??_C@_0BM@JLBDEMAE@GetUnitCombatFreeExperience?$AA@
CONST	SEGMENT
??_C@_0BM@JLBDEMAE@GetUnitCombatFreeExperience?$AA@ DB 'GetUnitCombatFree'
	DB	'Experience', 00H				; `string'
CONST	ENDS
;	COMDAT ??_C@_0BE@MHBNFFJG@IsForcedAvoidGrowth?$AA@
CONST	SEGMENT
??_C@_0BE@MHBNFFJG@IsForcedAvoidGrowth?$AA@ DB 'IsForcedAvoidGrowth', 00H ; `string'
CONST	ENDS
;	COMDAT ??_C@_0N@FAOCLHCN@SetFocusType?$AA@
CONST	SEGMENT
??_C@_0N@FAOCLHCN@SetFocusType?$AA@ DB 'SetFocusType', 00H ; `string'
CONST	ENDS
;	COMDAT ??_C@_0N@CEFMHLGB@GetFocusType?$AA@
CONST	SEGMENT
??_C@_0N@CEFMHLGB@GetFocusType?$AA@ DB 'GetFocusType', 00H ; `string'
CONST	ENDS
;	COMDAT ??_C@_0BK@NJJDCLIJ@IsNoAutoAssignSpecialists?$AA@
CONST	SEGMENT
??_C@_0BK@NJJDCLIJ@IsNoAutoAssignSpecialists?$AA@ DB 'IsNoAutoAssignSpeci'
	DB	'alists', 00H				; `string'
CONST	ENDS
;	COMDAT ??_C@_0BF@FLFDINC@DoVerifyWorkingPlots?$AA@
CONST	SEGMENT
??_C@_0BF@FLFDINC@DoVerifyWorkingPlots?$AA@ DB 'DoVerifyWorkingPlots', 00H ; `string'
CONST	ENDS
;	COMDAT ??_C@_0BF@KEIPLLG@DoReallocateCitizens?$AA@
CONST	SEGMENT
??_C@_0BF@KEIPLLG@DoReallocateCitizens?$AA@ DB 'DoReallocateCitizens', 00H ; `string'
CONST	ENDS
;	COMDAT ??_C@_0BM@PGFEFAIL@GetNumSpecialistsInBuilding?$AA@
CONST	SEGMENT
??_C@_0BM@PGFEFAIL@GetNumSpecialistsInBuilding?$AA@ DB 'GetNumSpecialists'
	DB	'InBuilding', 00H				; `string'
CONST	ENDS
;	COMDAT ??_C@_0CM@FNFNICHP@ChangeSpecialistGreatPersonProgr@
CONST	SEGMENT
??_C@_0CM@FNFNICHP@ChangeSpecialistGreatPersonProgr@ DB 'ChangeSpecialist'
	DB	'GreatPersonProgressTimes100', 00H		; `string'
CONST	ENDS
;	COMDAT ??_C@_0CJ@BIFDLHCL@GetSpecialistGreatPersonProgress@
CONST	SEGMENT
??_C@_0CJ@BIFDLHCL@GetSpecialistGreatPersonProgress@ DB 'GetSpecialistGre'
	DB	'atPersonProgressTimes100', 00H		; `string'
CONST	ENDS
;	COMDAT ??_C@_0CB@HDCLCODD@GetSpecialistGreatPersonProgress@
CONST	SEGMENT
??_C@_0CB@HDCLCODD@GetSpecialistGreatPersonProgress@ DB 'GetSpecialistGre'
	DB	'atPersonProgress', 00H			; `string'
CONST	ENDS
;	COMDAT ??_C@_0BD@IINBNMBF@GetSpecialistCount?$AA@
CONST	SEGMENT
??_C@_0BD@IINBNMBF@GetSpecialistCount?$AA@ DB 'GetSpecialistCount', 00H ; `string'
CONST	ENDS
;	COMDAT ??_C@_0CD@HKGINKIM@GetNumSpecialistsAllowedByBuildi@
CONST	SEGMENT
??_C@_0CD@HKGINKIM@GetNumSpecialistsAllowedByBuildi@ DB 'GetNumSpecialist'
	DB	'sAllowedByBuilding', 00H			; `string'
CONST	ENDS
;	COMDAT ??_C@_0BO@KFIIIIKB@GetSpecialistUpgradeThreshold?$AA@
CONST	SEGMENT
??_C@_0BO@KFIIIIKB@GetSpecialistUpgradeThreshold?$AA@ DB 'GetSpecialistUp'
	DB	'gradeThreshold', 00H			; `string'
CONST	ENDS
;	COMDAT ??_C@_0BN@EOHIHCLK@IsCanAddSpecialistToBuilding?$AA@
CONST	SEGMENT
??_C@_0BN@EOHIHCLK@IsCanAddSpecialistToBuilding?$AA@ DB 'IsCanAddSpeciali'
	DB	'stToBuilding', 00H				; `string'
CONST	ENDS
;	COMDAT ??_C@_0BF@BKIOFMPC@ChangeUnitProduction?$AA@
CONST	SEGMENT
??_C@_0BF@BKIOFMPC@ChangeUnitProduction?$AA@ DB 'ChangeUnitProduction', 00H ; `string'
CONST	ENDS
;	COMDAT ??_C@_0BC@KBOCLBOG@SetUnitProduction?$AA@
CONST	SEGMENT
??_C@_0BC@KBOCLBOG@SetUnitProduction?$AA@ DB 'SetUnitProduction', 00H ; `string'
CONST	ENDS
;	COMDAT ??_C@_0BC@IEOJDKPI@GetUnitProduction?$AA@
CONST	SEGMENT
??_C@_0BC@IEOJDKPI@GetUnitProduction?$AA@ DB 'GetUnitProduction', 00H ; `string'
CONST	ENDS
;	COMDAT ??_C@_0BI@IGCHMDBE@GetBuildingOriginalTime?$AA@
CONST	SEGMENT
??_C@_0BI@IGCHMDBE@GetBuildingOriginalTime?$AA@ DB 'GetBuildingOriginalTi'
	DB	'me', 00H					; `string'
CONST	ENDS
;	COMDAT ??_C@_0BJ@KDCBJMJP@GetBuildingOriginalOwner?$AA@
CONST	SEGMENT
??_C@_0BJ@KDCBJMJP@GetBuildingOriginalOwner?$AA@ DB 'GetBuildingOriginalO'
	DB	'wner', 00H					; `string'
CONST	ENDS
;	COMDAT ??_C@_0BN@BPJFOHCL@ChangeBuildingProductionTime?$AA@
CONST	SEGMENT
??_C@_0BN@BPJFOHCL@ChangeBuildingProductionTime?$AA@ DB 'ChangeBuildingPr'
	DB	'oductionTime', 00H				; `string'
CONST	ENDS
;	COMDAT ??_C@_0BK@JNDCOJAJ@SetBuildingProductionTime?$AA@
CONST	SEGMENT
??_C@_0BK@JNDCOJAJ@SetBuildingProductionTime?$AA@ DB 'SetBuildingProducti'
	DB	'onTime', 00H				; `string'
CONST	ENDS
;	COMDAT ??_C@_0BK@BNPECEKP@GetBuildingProductionTime?$AA@
CONST	SEGMENT
??_C@_0BK@BNPECEKP@GetBuildingProductionTime?$AA@ DB 'GetBuildingProducti'
	DB	'onTime', 00H				; `string'
CONST	ENDS
;	COMDAT ??_C@_0BJ@MMEAFHDF@ChangeBuildingProduction?$AA@
CONST	SEGMENT
??_C@_0BJ@MMEAFHDF@ChangeBuildingProduction?$AA@ DB 'ChangeBuildingProduc'
	DB	'tion', 00H					; `string'
CONST	ENDS
;	COMDAT ??_C@_0BG@CHPKJKKB@SetBuildingProduction?$AA@
CONST	SEGMENT
??_C@_0BG@CHPKJKKB@SetBuildingProduction?$AA@ DB 'SetBuildingProduction', 00H ; `string'
CONST	ENDS
;	COMDAT ??_C@_0BG@NCKMEDOA@GetBuildingProduction?$AA@
CONST	SEGMENT
??_C@_0BG@NCKMEDOA@GetBuildingProduction?$AA@ DB 'GetBuildingProduction', 00H ; `string'
CONST	ENDS
;	COMDAT ??_C@_0BD@GIKEEJCO@IsHasResourceLocal?$AA@
CONST	SEGMENT
??_C@_0BD@GIKEEJCO@IsHasResourceLocal?$AA@ DB 'IsHasResourceLocal', 00H ; `string'
CONST	ENDS
;	COMDAT ??_C@_07DEJFEJPJ@SetName?$AA@
CONST	SEGMENT
??_C@_07DEJFEJPJ@SetName?$AA@ DB 'SetName', 00H		; `string'
CONST	ENDS
;	COMDAT ??_C@_07MMGEHGCI@GetName?$AA@
CONST	SEGMENT
??_C@_07MMGEHGCI@GetName?$AA@ DB 'GetName', 00H		; `string'
CONST	ENDS
;	COMDAT ??_C@_0L@PJBAHION@GetNameKey?$AA@
CONST	SEGMENT
??_C@_0L@PJBAHION@GetNameKey?$AA@ DB 'GetNameKey', 00H	; `string'
CONST	ENDS
;	COMDAT ??_C@_0M@JIOPKDAN@SetRevealed?$AA@
CONST	SEGMENT
??_C@_0M@JIOPKDAN@SetRevealed?$AA@ DB 'SetRevealed', 00H ; `string'
CONST	ENDS
;	COMDAT ??_C@_0L@KNACFKBL@IsRevealed?$AA@
CONST	SEGMENT
??_C@_0L@KNACFKBL@IsRevealed?$AA@ DB 'IsRevealed', 00H	; `string'
CONST	ENDS
;	COMDAT ??_C@_0M@HHHODKFL@IsEverOwned?$AA@
CONST	SEGMENT
??_C@_0M@HHHODKFL@IsEverOwned?$AA@ DB 'IsEverOwned', 00H ; `string'
CONST	ENDS
;	COMDAT ??_C@_0BM@CIOKPJJB@GetDomainProductionModifier?$AA@
CONST	SEGMENT
??_C@_0BM@CIOKPJJB@GetDomainProductionModifier?$AA@ DB 'GetDomainProducti'
	DB	'onModifier', 00H				; `string'
CONST	ENDS
;	COMDAT ??_C@_0BI@GMGIGBHD@GetDomainFreeExperience?$AA@
CONST	SEGMENT
??_C@_0BI@GMGIGBHD@GetDomainFreeExperience?$AA@ DB 'GetDomainFreeExperien'
	DB	'ce', 00H					; `string'
CONST	ENDS
;	COMDAT ??_C@_0BO@GICAENNG@GetExtraSpecialistYieldOfType?$AA@
CONST	SEGMENT
??_C@_0BO@GICAENNG@GetExtraSpecialistYieldOfType?$AA@ DB 'GetExtraSpecial'
	DB	'istYieldOfType', 00H			; `string'
CONST	ENDS
;	COMDAT ??_C@_0BI@GIDAMOKL@GetExtraSpecialistYield?$AA@
CONST	SEGMENT
??_C@_0BI@GIDAMOKL@GetExtraSpecialistYield?$AA@ DB 'GetExtraSpecialistYie'
	DB	'ld', 00H					; `string'
CONST	ENDS
;	COMDAT ??_C@_0BF@MPEACCAJ@GetYieldRateModifier?$AA@
CONST	SEGMENT
??_C@_0BF@MPEACCAJ@GetYieldRateModifier?$AA@ DB 'GetYieldRateModifier', 00H ; `string'
CONST	ENDS
;	COMDAT ??_C@_0BF@OFJHKEGP@GetYieldRateTimes100?$AA@
CONST	SEGMENT
??_C@_0BF@OFJHKEGP@GetYieldRateTimes100?$AA@ DB 'GetYieldRateTimes100', 00H ; `string'
CONST	ENDS
;	COMDAT ??_C@_0N@LGPNBIDL@GetYieldRate?$AA@
CONST	SEGMENT
??_C@_0N@LGPNBIDL@GetYieldRate?$AA@ DB 'GetYieldRate', 00H ; `string'
CONST	ENDS
;	COMDAT ??_C@_0BJ@BHAAEGH@GetBaseYieldRateModifier?$AA@
CONST	SEGMENT
??_C@_0BJ@BHAAEGH@GetBaseYieldRateModifier?$AA@ DB 'GetBaseYieldRateModif'
	DB	'ier', 00H					; `string'
CONST	ENDS
;	COMDAT ??_C@_0BH@FHGKGLBM@GetYieldPerPopTimes100?$AA@
CONST	SEGMENT
??_C@_0BH@FHGKGLBM@GetYieldPerPopTimes100?$AA@ DB 'GetYieldPerPopTimes100'
	DB	00H						; `string'
CONST	ENDS
;	COMDAT ??_C@_0CA@JHBINGGO@ChangeBaseYieldRateFromReligion?$AA@
CONST	SEGMENT
??_C@_0CA@JHBINGGO@ChangeBaseYieldRateFromReligion?$AA@ DB 'ChangeBaseYie'
	DB	'ldRateFromReligion', 00H			; `string'
CONST	ENDS
;	COMDAT ??_C@_0BN@KLEGLAHD@GetBaseYieldRateFromReligion?$AA@
CONST	SEGMENT
??_C@_0BN@KLEGLAHD@GetBaseYieldRateFromReligion?$AA@ DB 'GetBaseYieldRate'
	DB	'FromReligion', 00H				; `string'
CONST	ENDS
;	COMDAT ??_C@_0BM@MDOMEKI@ChangeBaseYieldRateFromMisc?$AA@
CONST	SEGMENT
??_C@_0BM@MDOMEKI@ChangeBaseYieldRateFromMisc?$AA@ DB 'ChangeBaseYieldRat'
	DB	'eFromMisc', 00H				; `string'
CONST	ENDS
;	COMDAT ??_C@_0BJ@GOEKGL@GetBaseYieldRateFromMisc?$AA@
CONST	SEGMENT
??_C@_0BJ@GOEKGL@GetBaseYieldRateFromMisc?$AA@ DB 'GetBaseYieldRateFromMi'
	DB	'sc', 00H					; `string'
CONST	ENDS
;	COMDAT ??_C@_0CD@JHMJIOOA@ChangeBaseYieldRateFromSpecialis@
CONST	SEGMENT
??_C@_0CD@JHMJIOOA@ChangeBaseYieldRateFromSpecialis@ DB 'ChangeBaseYieldR'
	DB	'ateFromSpecialists', 00H			; `string'
CONST	ENDS
;	COMDAT ??_C@_0CA@DMEDAOCN@GetBaseYieldRateFromSpecialists?$AA@
CONST	SEGMENT
??_C@_0CA@DMEDAOCN@GetBaseYieldRateFromSpecialists?$AA@ DB 'GetBaseYieldR'
	DB	'ateFromSpecialists', 00H			; `string'
CONST	ENDS
;	COMDAT ??_C@_0CB@OMALCKC@ChangeBaseYieldRateFromBuildings@
CONST	SEGMENT
??_C@_0CB@OMALCKC@ChangeBaseYieldRateFromBuildings@ DB 'ChangeBaseYieldRa'
	DB	'teFromBuildings', 00H			; `string'
CONST	ENDS
;	COMDAT ??_C@_0BO@GNPKIABN@GetBaseYieldRateFromBuildings?$AA@
CONST	SEGMENT
??_C@_0BO@GNPKIABN@GetBaseYieldRateFromBuildings?$AA@ DB 'GetBaseYieldRat'
	DB	'eFromBuildings', 00H			; `string'
CONST	ENDS
;	COMDAT ??_C@_0BP@LEPGAIDG@ChangeBaseYieldRateFromTerrain?$AA@
CONST	SEGMENT
??_C@_0BP@LEPGAIDG@ChangeBaseYieldRateFromTerrain?$AA@ DB 'ChangeBaseYiel'
	DB	'dRateFromTerrain', 00H			; `string'
CONST	ENDS
;	COMDAT ??_C@_0BM@OJHEMEBC@GetBaseYieldRateFromTerrain?$AA@
CONST	SEGMENT
??_C@_0BM@OJHEMEBC@GetBaseYieldRateFromTerrain?$AA@ DB 'GetBaseYieldRateF'
	DB	'romTerrain', 00H				; `string'
CONST	ENDS
;	COMDAT ??_C@_0BP@JIPPGLFE@GetBaseYieldRateFromGreatWorks?$AA@
CONST	SEGMENT
??_C@_0BP@JIPPGLFE@GetBaseYieldRateFromGreatWorks?$AA@ DB 'GetBaseYieldRa'
	DB	'teFromGreatWorks', 00H			; `string'
CONST	ENDS
;	COMDAT ??_C@_0BB@PNJLKNIG@GetBaseYieldRate?$AA@
CONST	SEGMENT
??_C@_0BB@PNJLKNIG@GetBaseYieldRate?$AA@ DB 'GetBaseYieldRate', 00H ; `string'
CONST	ENDS
;	COMDAT ??_C@_0BB@KFDOAKNK@GetLakePlotYield?$AA@
CONST	SEGMENT
??_C@_0BB@KFDOAKNK@GetLakePlotYield?$AA@ DB 'GetLakePlotYield', 00H ; `string'
CONST	ENDS
;	COMDAT ??_C@_0BC@KGMJBNBB@GetRiverPlotYield?$AA@
CONST	SEGMENT
??_C@_0BC@KGMJBNBB@GetRiverPlotYield?$AA@ DB 'GetRiverPlotYield', 00H ; `string'
CONST	ENDS
;	COMDAT ??_C@_0BA@DGPKBBEO@GetSeaPlotYield?$AA@
CONST	SEGMENT
??_C@_0BA@DGPKBBEO@GetSeaPlotYield?$AA@ DB 'GetSeaPlotYield', 00H ; `string'
CONST	ENDS
;	COMDAT ??_C@_0BB@FBHJECJI@GetOriginalOwner?$AA@
CONST	SEGMENT
??_C@_0BB@FBHJECJI@GetOriginalOwner?$AA@ DB 'GetOriginalOwner', 00H ; `string'
CONST	ENDS
;	COMDAT ??_C@_0BB@HFDBFLDN@GetPreviousOwner?$AA@
CONST	SEGMENT
??_C@_0BB@HFDBFLDN@GetPreviousOwner?$AA@ DB 'GetPreviousOwner', 00H ; `string'
CONST	ENDS
;	COMDAT ??_C@_07KIJFBNDA@GetTeam?$AA@
CONST	SEGMENT
??_C@_07KIJFBNDA@GetTeam?$AA@ DB 'GetTeam', 00H		; `string'
CONST	ENDS
;	COMDAT ??_C@_08BODJMJJB@GetOwner?$AA@
CONST	SEGMENT
??_C@_08BODJMJJB@GetOwner?$AA@ DB 'GetOwner', 00H	; `string'
CONST	ENDS
;	COMDAT ??_C@_0BB@JHJGLAIL@SetCitySizeBoost?$AA@
CONST	SEGMENT
??_C@_0BB@JHJGLAIL@SetCitySizeBoost?$AA@ DB 'SetCitySizeBoost', 00H ; `string'
CONST	ENDS
;	COMDAT ??_C@_0BH@PFIOINMP@SetProductionAutomated?$AA@
CONST	SEGMENT
??_C@_0BH@PFIOINMP@SetProductionAutomated?$AA@ DB 'SetProductionAutomated'
	DB	00H						; `string'
CONST	ENDS
;	COMDAT ??_C@_0BG@FJMABPLB@IsProductionAutomated?$AA@
CONST	SEGMENT
??_C@_0BG@FJMABPLB@IsProductionAutomated?$AA@ DB 'IsProductionAutomated', 00H ; `string'
CONST	ENDS
;	COMDAT ??_C@_0BF@HABAGOM@GetNumThingsProduced?$AA@
CONST	SEGMENT
??_C@_0BF@HABAGOM@GetNumThingsProduced?$AA@ DB 'GetNumThingsProduced', 00H ; `string'
CONST	ENDS
;	COMDAT ??_C@_0BO@HIBOMBIM@ChangeWeLoveTheKingDayCounter?$AA@
CONST	SEGMENT
??_C@_0BO@HIBOMBIM@ChangeWeLoveTheKingDayCounter?$AA@ DB 'ChangeWeLoveThe'
	DB	'KingDayCounter', 00H			; `string'
CONST	ENDS
;	COMDAT ??_C@_0BL@KNPMCHGG@SetWeLoveTheKingDayCounter?$AA@
CONST	SEGMENT
??_C@_0BL@KNPMCHGG@SetWeLoveTheKingDayCounter?$AA@ DB 'SetWeLoveTheKingDa'
	DB	'yCounter', 00H				; `string'
CONST	ENDS
;	COMDAT ??_C@_0BL@JCMJOHHG@GetWeLoveTheKingDayCounter?$AA@
CONST	SEGMENT
??_C@_0BL@JCMJOHHG@GetWeLoveTheKingDayCounter?$AA@ DB 'GetWeLoveTheKingDa'
	DB	'yCounter', 00H				; `string'
CONST	ENDS
;	COMDAT ??_C@_0M@OAAFKHBJ@IsBlockaded?$AA@
CONST	SEGMENT
??_C@_0M@OAAFKHBJ@IsBlockaded?$AA@ DB 'IsBlockaded', 00H ; `string'
CONST	ENDS
;	COMDAT ??_C@_0L@EHIPGLHP@SetDrafted?$AA@
CONST	SEGMENT
??_C@_0L@EHIPGLHP@SetDrafted?$AA@ DB 'SetDrafted', 00H	; `string'
CONST	ENDS
;	COMDAT ??_C@_09BPNOIHFH@IsDrafted?$AA@
CONST	SEGMENT
??_C@_09BPNOIHFH@IsDrafted?$AA@ DB 'IsDrafted', 00H	; `string'
CONST	ENDS
;	COMDAT ??_C@_0N@DKLPEECK@SetNeverLost?$AA@
CONST	SEGMENT
??_C@_0N@DKLPEECK@SetNeverLost?$AA@ DB 'SetNeverLost', 00H ; `string'
CONST	ENDS
;	COMDAT ??_C@_0M@MOFOBMIC@IsNeverLost?$AA@
CONST	SEGMENT
??_C@_0M@MOFOBMIC@IsNeverLost?$AA@ DB 'IsNeverLost', 00H ; `string'
CONST	ENDS
;	COMDAT ??_C@_0BC@JBPFIKFP@GetLocalHappiness?$AA@
CONST	SEGMENT
??_C@_0BC@JBPFIKFP@GetLocalHappiness?$AA@ DB 'GetLocalHappiness', 00H ; `string'
CONST	ENDS
;	COMDAT ??_C@_0N@BPJGOLFM@GetHappiness?$AA@
CONST	SEGMENT
??_C@_0N@BPJGOLFM@GetHappiness?$AA@ DB 'GetHappiness', 00H ; `string'
CONST	ENDS
;	COMDAT ??_C@_0BK@NJJIHGAG@GetHappinessFromBuildings?$AA@
CONST	SEGMENT
??_C@_0BK@NJJIHGAG@GetHappinessFromBuildings?$AA@ DB 'GetHappinessFromBui'
	DB	'ldings', 00H				; `string'
CONST	ENDS
;	COMDAT ??_C@_09JPCAHBOM@SetPuppet?$AA@
CONST	SEGMENT
??_C@_09JPCAHBOM@SetPuppet?$AA@ DB 'SetPuppet', 00H	; `string'
CONST	ENDS
;	COMDAT ??_C@_08KGIAEINB@IsPuppet?$AA@
CONST	SEGMENT
??_C@_08KGIAEINB@IsPuppet?$AA@ DB 'IsPuppet', 00H	; `string'
CONST	ENDS
;	COMDAT ??_C@_0M@FPGBPAFO@SetOccupied?$AA@
CONST	SEGMENT
??_C@_0M@FPGBPAFO@SetOccupied?$AA@ DB 'SetOccupied', 00H ; `string'
CONST	ENDS
;	COMDAT ??_C@_0L@GKIMAJEI@IsOccupied?$AA@
CONST	SEGMENT
??_C@_0L@GKIMAJEI@IsOccupied?$AA@ DB 'IsOccupied', 00H	; `string'
CONST	ENDS
;	COMDAT ??_C@_0BC@GFDDGGHF@ChangeRazingTurns?$AA@
CONST	SEGMENT
??_C@_0BC@GFDDGGHF@ChangeRazingTurns?$AA@ DB 'ChangeRazingTurns', 00H ; `string'
CONST	ENDS
;	COMDAT ??_C@_0P@PBGEJBFI@GetRazingTurns?$AA@
CONST	SEGMENT
??_C@_0P@PBGEJBFI@GetRazingTurns?$AA@ DB 'GetRazingTurns', 00H ; `string'
CONST	ENDS
;	COMDAT ??_C@_08KDEDLHLC@IsRazing?$AA@
CONST	SEGMENT
??_C@_08KDEDLHLC@IsRazing?$AA@ DB 'IsRazing', 00H	; `string'
CONST	ENDS
;	COMDAT ??_C@_0BG@OGCOMNIG@ChangeResistanceTurns?$AA@
CONST	SEGMENT
??_C@_0BG@OGCOMNIG@ChangeResistanceTurns?$AA@ DB 'ChangeResistanceTurns', 00H ; `string'
CONST	ENDS
;	COMDAT ??_C@_0BD@GGFEDPO@GetResistanceTurns?$AA@
CONST	SEGMENT
??_C@_0BD@GGFEDPO@GetResistanceTurns?$AA@ DB 'GetResistanceTurns', 00H ; `string'
CONST	ENDS
;	COMDAT ??_C@_0N@OIFCCPFM@IsResistance?$AA@
CONST	SEGMENT
??_C@_0N@OIFCCPFM@IsResistance?$AA@ DB 'IsResistance', 00H ; `string'
CONST	ENDS
;	COMDAT ??_C@_0BA@IIFNIAFM@GetNukeModifier?$AA@
CONST	SEGMENT
??_C@_0BA@IIFNIAFM@GetNukeModifier?$AA@ DB 'GetNukeModifier', 00H ; `string'
CONST	ENDS
;	COMDAT ??_C@_0BC@KJGDLEFF@GetFreeExperience?$AA@
CONST	SEGMENT
??_C@_0BC@KJGDLEFF@GetFreeExperience?$AA@ DB 'GetFreeExperience', 00H ; `string'
CONST	ENDS
;	COMDAT ??_C@_0BD@IFIIOABK@GetBuildingDefense?$AA@
CONST	SEGMENT
??_C@_0BD@IFIIOABK@GetBuildingDefense?$AA@ DB 'GetBuildingDefense', 00H ; `string'
CONST	ENDS
;	COMDAT ??_C@_0BL@EMAHKCFF@GetSpaceProductionModifier?$AA@
CONST	SEGMENT
??_C@_0BL@EMAHKCFF@GetSpaceProductionModifier?$AA@ DB 'GetSpaceProduction'
	DB	'Modifier', 00H				; `string'
CONST	ENDS
;	COMDAT ??_C@_0BO@FAMIPBGF@GetMilitaryProductionModifier?$AA@
CONST	SEGMENT
??_C@_0BO@FAMIPBGF@GetMilitaryProductionModifier?$AA@ DB 'GetMilitaryProd'
	DB	'uctionModifier', 00H			; `string'
CONST	ENDS
;	COMDAT ??_C@_0BF@FMCOGOGC@SetFeatureProduction?$AA@
CONST	SEGMENT
??_C@_0BF@FMCOGOGC@SetFeatureProduction?$AA@ DB 'SetFeatureProduction', 00H ; `string'
CONST	ENDS
;	COMDAT ??_C@_0BF@FDDHIDF@GetFeatureProduction?$AA@
CONST	SEGMENT
??_C@_0BF@FDDHIDF@GetFeatureProduction?$AA@ DB 'GetFeatureProduction', 00H ; `string'
CONST	ENDS
;	COMDAT ??_C@_0BG@FEEBJMBN@SetOverflowProduction?$AA@
CONST	SEGMENT
??_C@_0BG@FEEBJMBN@SetOverflowProduction?$AA@ DB 'SetOverflowProduction', 00H ; `string'
CONST	ENDS
;	COMDAT ??_C@_0BG@KBBHEFFM@GetOverflowProduction?$AA@
CONST	SEGMENT
??_C@_0BG@KBBHEFFM@GetOverflowProduction?$AA@ DB 'GetOverflowProduction', 00H ; `string'
CONST	ENDS
;	COMDAT ??_C@_0BG@DCGGEPDG@GetMaxFoodKeptPercent?$AA@
CONST	SEGMENT
??_C@_0BG@DCGGEPDG@GetMaxFoodKeptPercent?$AA@ DB 'GetMaxFoodKeptPercent', 00H ; `string'
CONST	ENDS
;	COMDAT ??_C@_0M@GIFBHLGG@GetFoodKept?$AA@
CONST	SEGMENT
??_C@_0M@GIFBHLGG@GetFoodKept?$AA@ DB 'GetFoodKept', 00H ; `string'
CONST	ENDS
;	COMDAT ??_C@_0L@HHFPNGJH@ChangeFood?$AA@
CONST	SEGMENT
??_C@_0L@HHFPNGJH@ChangeFood?$AA@ DB 'ChangeFood', 00H	; `string'
CONST	ENDS
;	COMDAT ??_C@_07POKFJACE@SetFood?$AA@
CONST	SEGMENT
??_C@_07POKFJACE@SetFood?$AA@ DB 'SetFood', 00H		; `string'
CONST	ENDS
;	COMDAT ??_C@_0BA@EBLNMIHG@GetFoodTimes100?$AA@
CONST	SEGMENT
??_C@_0BA@EBLNMIHG@GetFoodTimes100?$AA@ DB 'GetFoodTimes100', 00H ; `string'
CONST	ENDS
;	COMDAT ??_C@_07GFEKPPF@GetFood?$AA@
CONST	SEGMENT
??_C@_07GFEKPPF@GetFood?$AA@ DB 'GetFood', 00H		; `string'
CONST	ENDS
;	COMDAT ??_C@_0BI@HOIIKDFF@IsNoOccupiedUnhappiness?$AA@
CONST	SEGMENT
??_C@_0BI@HOIIKDFF@IsNoOccupiedUnhappiness?$AA@ DB 'IsNoOccupiedUnhappine'
	DB	'ss', 00H					; `string'
CONST	ENDS
;	COMDAT ??_C@_0P@DFIEFIFC@ChangeHealRate?$AA@
CONST	SEGMENT
??_C@_0P@DFIEFIFC@ChangeHealRate?$AA@ DB 'ChangeHealRate', 00H ; `string'
CONST	ENDS
;	COMDAT ??_C@_0CE@JOONDJO@GetLocalResourceWonderProduction@
CONST	SEGMENT
??_C@_0CE@JOONDJO@GetLocalResourceWonderProduction@ DB 'GetLocalResourceW'
	DB	'onderProductionMod', 00H			; `string'
CONST	ENDS
;	COMDAT ??_C@_0BP@CBAFPBHG@ChangeWonderProductionModifier?$AA@
CONST	SEGMENT
??_C@_0BP@CBAFPBHG@ChangeWonderProductionModifier?$AA@ DB 'ChangeWonderPr'
	DB	'oductionModifier', 00H			; `string'
CONST	ENDS
;	COMDAT ??_C@_0BM@HMIHDNFC@GetWonderProductionModifier?$AA@
CONST	SEGMENT
??_C@_0BM@HMIHDNFC@GetWonderProductionModifier?$AA@ DB 'GetWonderProducti'
	DB	'onModifier', 00H				; `string'
CONST	ENDS
;	COMDAT ??_C@_0BA@BEIGCOAF@GetNumBuildings?$AA@
CONST	SEGMENT
??_C@_0BA@BEIGCOAF@GetNumBuildings?$AA@ DB 'GetNumBuildings', 00H ; `string'
CONST	ENDS
;	COMDAT ??_C@_0BG@HCJMDOLN@GetNumNationalWonders?$AA@
CONST	SEGMENT
??_C@_0BG@HCJMDOLN@GetNumNationalWonders?$AA@ DB 'GetNumNationalWonders', 00H ; `string'
CONST	ENDS
;	COMDAT ??_C@_0BC@OBPJLAFA@GetNumTeamWonders?$AA@
CONST	SEGMENT
??_C@_0BC@OBPJLAFA@GetNumTeamWonders?$AA@ DB 'GetNumTeamWonders', 00H ; `string'
CONST	ENDS
;	COMDAT ??_C@_0BD@FHKHHPIG@GetNumWorldWonders?$AA@
CONST	SEGMENT
??_C@_0BD@FHKHHPIG@GetNumWorldWonders?$AA@ DB 'GetNumWorldWonders', 00H ; `string'
CONST	ENDS
;	COMDAT ??_C@_0CA@FHBADINH@GetNumTradeRoutesAddingPressure?$AA@
CONST	SEGMENT
??_C@_0CA@FHBADINH@GetNumTradeRoutesAddingPressure?$AA@ DB 'GetNumTradeRo'
	DB	'utesAddingPressure', 00H			; `string'
CONST	ENDS
;	COMDAT ??_C@_0CC@JAADPGKC@GetLeagueBuildingClassYieldChang@
CONST	SEGMENT
??_C@_0CC@JAADPGKC@GetLeagueBuildingClassYieldChang@ DB 'GetLeagueBuildin'
	DB	'gClassYieldChange', 00H			; `string'
CONST	ENDS
;	COMDAT ??_C@_0CE@IHEOCEID@GetReligionBuildingClassYieldCha@
CONST	SEGMENT
??_C@_0CE@IHEOCEID@GetReligionBuildingClassYieldCha@ DB 'GetReligionBuild'
	DB	'ingClassYieldChange', 00H			; `string'
CONST	ENDS
;	COMDAT ??_C@_0CC@ENMDKGLO@GetReligionBuildingClassHappines@
CONST	SEGMENT
??_C@_0CC@ENMDKGLO@GetReligionBuildingClassHappines@ DB 'GetReligionBuild'
	DB	'ingClassHappiness', 00H			; `string'
CONST	ENDS
;	COMDAT ??_C@_0BD@FBGNFBCF@AdoptReligionFully?$AA@
CONST	SEGMENT
??_C@_0BD@FBGNFBCF@AdoptReligionFully?$AA@ DB 'AdoptReligionFully', 00H ; `string'
CONST	ENDS
;	COMDAT ??_C@_0BI@DDLKPOAO@ConvertPercentFollowers?$AA@
CONST	SEGMENT
??_C@_0BI@DDLKPOAO@ConvertPercentFollowers?$AA@ DB 'ConvertPercentFollowe'
	DB	'rs', 00H					; `string'
CONST	ENDS
;	COMDAT ??_C@_0BD@JAFNIAKI@GetPressurePerTurn?$AA@
CONST	SEGMENT
??_C@_0BD@JAFNIAKI@GetPressurePerTurn?$AA@ DB 'GetPressurePerTurn', 00H ; `string'
CONST	ENDS
;	COMDAT ??_C@_0CD@GBBECGLH@GetSecondaryReligionPantheonBeli@
CONST	SEGMENT
??_C@_0CD@GBBECGLH@GetSecondaryReligionPantheonBeli@ DB 'GetSecondaryReli'
	DB	'gionPantheonBelief', 00H			; `string'
CONST	ENDS
;	COMDAT ??_C@_0BF@KNGLOBDC@GetSecondaryReligion?$AA@
CONST	SEGMENT
??_C@_0BF@KNGLOBDC@GetSecondaryReligion?$AA@ DB 'GetSecondaryReligion', 00H ; `string'
CONST	ENDS
;	COMDAT ??_C@_0BF@CPDBKIPJ@GetReligiousMajority?$AA@
CONST	SEGMENT
??_C@_0BF@CPDBKIPJ@GetReligiousMajority?$AA@ DB 'GetReligiousMajority', 00H ; `string'
CONST	ENDS
;	COMDAT ??_C@_0BA@BEJIHHEO@GetNumFollowers?$AA@
CONST	SEGMENT
??_C@_0BA@BEJIHHEO@GetNumFollowers?$AA@ DB 'GetNumFollowers', 00H ; `string'
CONST	ENDS
;	COMDAT ??_C@_0BG@DCMLICBF@IsHolyCityAnyReligion?$AA@
CONST	SEGMENT
??_C@_0BG@DCMLICBF@IsHolyCityAnyReligion?$AA@ DB 'IsHolyCityAnyReligion', 00H ; `string'
CONST	ENDS
;	COMDAT ??_C@_0BG@HPDNEPKN@IsHolyCityForReligion?$AA@
CONST	SEGMENT
??_C@_0BG@HPDNEPKN@IsHolyCityForReligion?$AA@ DB 'IsHolyCityForReligion', 00H ; `string'
CONST	ENDS
;	COMDAT ??_C@_0BB@PGCOPPAF@IsReligionInCity?$AA@
CONST	SEGMENT
??_C@_0BB@PGCOPPAF@IsReligionInCity?$AA@ DB 'IsReligionInCity', 00H ; `string'
CONST	ENDS
;	COMDAT ??_C@_0BM@FBEILFDB@GetFaithPerTurnFromReligion?$AA@
CONST	SEGMENT
??_C@_0BM@FBEILFDB@GetFaithPerTurnFromReligion?$AA@ DB 'GetFaithPerTurnFr'
	DB	'omReligion', 00H				; `string'
CONST	ENDS
;	COMDAT ??_C@_0BK@EKHAOHLH@GetFaithPerTurnFromTraits?$AA@
CONST	SEGMENT
??_C@_0BK@EKHAOHLH@GetFaithPerTurnFromTraits?$AA@ DB 'GetFaithPerTurnFrom'
	DB	'Traits', 00H				; `string'
CONST	ENDS
;	COMDAT ??_C@_0BM@OJAFMOHF@GetFaithPerTurnFromPolicies?$AA@
CONST	SEGMENT
??_C@_0BM@OJAFMOHF@GetFaithPerTurnFromPolicies?$AA@ DB 'GetFaithPerTurnFr'
	DB	'omPolicies', 00H				; `string'
CONST	ENDS
;	COMDAT ??_C@_0BN@PFNCKOKE@GetFaithPerTurnFromBuildings?$AA@
CONST	SEGMENT
??_C@_0BN@PFNCKOKE@GetFaithPerTurnFromBuildings?$AA@ DB 'GetFaithPerTurnF'
	DB	'romBuildings', 00H				; `string'
CONST	ENDS
;	COMDAT ??_C@_0BA@CIJNECBN@GetFaithPerTurn?$AA@
CONST	SEGMENT
??_C@_0BA@CIJNECBN@GetFaithPerTurn?$AA@ DB 'GetFaithPerTurn', 00H ; `string'
CONST	ENDS
;	COMDAT ??_C@_0BC@IDIDCDN@GetThemingTooltip?$AA@
CONST	SEGMENT
??_C@_0BC@IDIDCDN@GetThemingTooltip?$AA@ DB 'GetThemingTooltip', 00H ; `string'
CONST	ENDS
;	COMDAT ??_C@_0BA@PNNDDOA@GetThemingBonus?$AA@
CONST	SEGMENT
??_C@_0BA@PNNDDOA@GetThemingBonus?$AA@ DB 'GetThemingBonus', 00H ; `string'
CONST	ENDS
;	COMDAT ??_C@_0BH@OADCDAOP@IsThemingBonusPossible?$AA@
CONST	SEGMENT
??_C@_0BH@OADCDAOP@IsThemingBonusPossible?$AA@ DB 'IsThemingBonusPossible'
	DB	00H						; `string'
CONST	ENDS
;	COMDAT ??_C@_0BI@KDLLAHHF@GetFaithBuildingTourism?$AA@
CONST	SEGMENT
??_C@_0BI@KDLLAHHF@GetFaithBuildingTourism?$AA@ DB 'GetFaithBuildingTouri'
	DB	'sm', 00H					; `string'
CONST	ENDS
;	COMDAT ??_C@_0BA@JEEBJAFO@ClearGreatWorks?$AA@
CONST	SEGMENT
??_C@_0BA@JEEBJAFO@ClearGreatWorks?$AA@ DB 'ClearGreatWorks', 00H ; `string'
CONST	ENDS
;	COMDAT ??_C@_0BF@CDKAAHGE@GetTotalSlotsTooltip?$AA@
CONST	SEGMENT
??_C@_0BF@CDKAAHGE@GetTotalSlotsTooltip?$AA@ DB 'GetTotalSlotsTooltip', 00H ; `string'
CONST	ENDS
;	COMDAT ??_C@_0BG@CNAADLGC@GetFilledSlotsTooltip?$AA@
CONST	SEGMENT
??_C@_0BG@CNAADLGC@GetFilledSlotsTooltip?$AA@ DB 'GetFilledSlotsTooltip', 00H ; `string'
CONST	ENDS
;	COMDAT ??_C@_0BC@OAAAMMGM@GetTourismTooltip?$AA@
CONST	SEGMENT
??_C@_0BC@OAAAMMGM@GetTourismTooltip?$AA@ DB 'GetTourismTooltip', 00H ; `string'
CONST	ENDS
;	COMDAT ??_C@_0BF@MHJNCJDK@GetTourismMultiplier?$AA@
CONST	SEGMENT
??_C@_0BF@MHJNCJDK@GetTourismMultiplier?$AA@ DB 'GetTourismMultiplier', 00H ; `string'
CONST	ENDS
;	COMDAT ??_C@_0P@PJMIHAEJ@GetBaseTourism?$AA@
CONST	SEGMENT
??_C@_0P@PJMIHAEJ@GetBaseTourism?$AA@ DB 'GetBaseTourism', 00H ; `string'
CONST	ENDS
;	COMDAT ??_C@_0BF@FMOOCJFI@GetNumGreatWorkSlots?$AA@
CONST	SEGMENT
??_C@_0BF@FMOOCJFI@GetNumGreatWorkSlots?$AA@ DB 'GetNumGreatWorkSlots', 00H ; `string'
CONST	ENDS
;	COMDAT ??_C@_0BB@ILOKIPKM@GetNumGreatWorks?$AA@
CONST	SEGMENT
??_C@_0BB@ILOKIPKM@GetNumGreatWorks?$AA@ DB 'GetNumGreatWorks', 00H ; `string'
CONST	ENDS
;	COMDAT ??_C@_0BK@NOKONBPA@ChangeCultureRateModifier?$AA@
CONST	SEGMENT
??_C@_0BK@NOKONBPA@ChangeCultureRateModifier?$AA@ DB 'ChangeCultureRateMo'
	DB	'difier', 00H				; `string'
CONST	ENDS
;	COMDAT ??_C@_0BH@CIAJBLLP@GetCultureRateModifier?$AA@
CONST	SEGMENT
??_C@_0BH@CIAJBLLP@GetCultureRateModifier?$AA@ DB 'GetCultureRateModifier'
	DB	00H						; `string'
CONST	ENDS
;	COMDAT ??_C@_0CB@DONKGGML@GetJONSCulturePerTurnFromLeagues@
CONST	SEGMENT
??_C@_0CB@DONKGGML@GetJONSCulturePerTurnFromLeagues@ DB 'GetJONSCulturePe'
	DB	'rTurnFromLeagues', 00H			; `string'
CONST	ENDS
;	COMDAT ??_C@_0CC@INODDPGK@GetJONSCulturePerTurnFromReligio@
CONST	SEGMENT
??_C@_0CC@INODDPGK@GetJONSCulturePerTurnFromReligio@ DB 'GetJONSCulturePe'
	DB	'rTurnFromReligion', 00H			; `string'
CONST	ENDS
;	COMDAT ??_C@_0CA@MKHKHIDI@GetJONSCulturePerTurnFromTraits?$AA@
CONST	SEGMENT
??_C@_0CA@MKHKHIDI@GetJONSCulturePerTurnFromTraits?$AA@ DB 'GetJONSCultur'
	DB	'ePerTurnFromTraits', 00H			; `string'
CONST	ENDS
;	COMDAT ??_C@_0CE@HOPIHKFI@GetJONSCulturePerTurnFromGreatWo@
CONST	SEGMENT
??_C@_0CE@HOPIHKFI@GetJONSCulturePerTurnFromGreatWo@ DB 'GetJONSCulturePe'
	DB	'rTurnFromGreatWorks', 00H			; `string'
CONST	ENDS
;	COMDAT ??_C@_0CI@GIJOCEDC@ChangeJONSCulturePerTurnFromSpec@
CONST	SEGMENT
??_C@_0CI@GIJOCEDC@ChangeJONSCulturePerTurnFromSpec@ DB 'ChangeJONSCultur'
	DB	'ePerTurnFromSpecialists', 00H		; `string'
CONST	ENDS
;	COMDAT ??_C@_0CF@DFBDEFBH@GetJONSCulturePerTurnFromSpecial@
CONST	SEGMENT
??_C@_0CF@DFBDEFBH@GetJONSCulturePerTurnFromSpecial@ DB 'GetJONSCulturePe'
	DB	'rTurnFromSpecialists', 00H			; `string'
CONST	ENDS
;	COMDAT ??_C@_0CF@KGECMFIH@ChangeJONSCulturePerTurnFromPoli@
CONST	SEGMENT
??_C@_0CF@KGECMFIH@ChangeJONSCulturePerTurnFromPoli@ DB 'ChangeJONSCultur'
	DB	'ePerTurnFromPolicies', 00H			; `string'
CONST	ENDS
;	COMDAT ??_C@_0CC@DFKOEECO@GetJONSCulturePerTurnFromPolicie@
CONST	SEGMENT
??_C@_0CC@DFKOEECO@GetJONSCulturePerTurnFromPolicie@ DB 'GetJONSCulturePe'
	DB	'rTurnFromPolicies', 00H			; `string'
CONST	ENDS
;	COMDAT ??_C@_0CG@KGCOHKJP@ChangeJONSCulturePerTurnFromBuil@
CONST	SEGMENT
??_C@_0CG@KGCOHKJP@ChangeJONSCulturePerTurnFromBuil@ DB 'ChangeJONSCultur'
	DB	'ePerTurnFromBuildings', 00H			; `string'
CONST	ENDS
;	COMDAT ??_C@_0CD@JLHINFC@GetJONSCulturePerTurnFromBuildin@
CONST	SEGMENT
??_C@_0CD@JLHINFC@GetJONSCulturePerTurnFromBuildin@ DB 'GetJONSCulturePer'
	DB	'TurnFromBuildings', 00H			; `string'
CONST	ENDS
;	COMDAT ??_C@_0BK@CGPFDHCN@GetBaseJONSCulturePerTurn?$AA@
CONST	SEGMENT
??_C@_0BK@CGPFDHCN@GetBaseJONSCulturePerTurn?$AA@ DB 'GetBaseJONSCultureP'
	DB	'erTurn', 00H				; `string'
CONST	ENDS
;	COMDAT ??_C@_0BG@IMDBELFE@GetJONSCulturePerTurn?$AA@
CONST	SEGMENT
??_C@_0BG@IMDBELFE@GetJONSCulturePerTurn?$AA@ DB 'GetJONSCulturePerTurn', 00H ; `string'
CONST	ENDS
;	COMDAT ??_C@_0BI@MNIAPCAO@GetJONSCultureThreshold?$AA@
CONST	SEGMENT
??_C@_0BI@MNIAPCAO@GetJONSCultureThreshold?$AA@ DB 'GetJONSCultureThresho'
	DB	'ld', 00H					; `string'
CONST	ENDS
;	COMDAT ??_C@_0BL@IFAKDEMK@DoJONSCultureLevelIncrease?$AA@
CONST	SEGMENT
??_C@_0BL@IFAKDEMK@DoJONSCultureLevelIncrease?$AA@ DB 'DoJONSCultureLevel'
	DB	'Increase', 00H				; `string'
CONST	ENDS
;	COMDAT ??_C@_0BH@CKDHJLDP@ChangeJONSCultureLevel?$AA@
CONST	SEGMENT
??_C@_0BH@CKDHJLDP@ChangeJONSCultureLevel?$AA@ DB 'ChangeJONSCultureLevel'
	DB	00H						; `string'
CONST	ENDS
;	COMDAT ??_C@_0BE@NKCCGJMD@SetJONSCultureLevel?$AA@
CONST	SEGMENT
??_C@_0BE@NKCCGJMD@SetJONSCultureLevel?$AA@ DB 'SetJONSCultureLevel', 00H ; `string'
CONST	ENDS
;	COMDAT ??_C@_0BE@HEAJCJLP@GetJONSCultureLevel?$AA@
CONST	SEGMENT
??_C@_0BE@HEAJCJLP@GetJONSCultureLevel?$AA@ DB 'GetJONSCultureLevel', 00H ; `string'
CONST	ENDS
;	COMDAT ??_C@_0BO@HDNKJLLK@GetJONSCulturePerTurnTimes100?$AA@
CONST	SEGMENT
??_C@_0BO@HDNKJLLK@GetJONSCulturePerTurnTimes100?$AA@ DB 'GetJONSCultureP'
	DB	'erTurnTimes100', 00H			; `string'
CONST	ENDS
;	COMDAT ??_C@_0CA@BEBPGHLA@ChangeJONSCultureStoredTimes100?$AA@
CONST	SEGMENT
??_C@_0CA@BEBPGHLA@ChangeJONSCultureStoredTimes100?$AA@ DB 'ChangeJONSCul'
	DB	'tureStoredTimes100', 00H			; `string'
CONST	ENDS
;	COMDAT ??_C@_0BN@PJOHOOHJ@SetJONSCultureStoredTimes100?$AA@
CONST	SEGMENT
??_C@_0BN@PJOHOOHJ@SetJONSCultureStoredTimes100?$AA@ DB 'SetJONSCultureSt'
	DB	'oredTimes100', 00H				; `string'
CONST	ENDS
;	COMDAT ??_C@_0BN@CIEBABKN@GetJONSCultureStoredTimes100?$AA@
CONST	SEGMENT
??_C@_0BN@CIEBABKN@GetJONSCultureStoredTimes100?$AA@ DB 'GetJONSCultureSt'
	DB	'oredTimes100', 00H				; `string'
CONST	ENDS
;	COMDAT ??_C@_0BI@EBCOCIEG@ChangeJONSCultureStored?$AA@
CONST	SEGMENT
??_C@_0BI@EBCOCIEG@ChangeJONSCultureStored?$AA@ DB 'ChangeJONSCultureStor'
	DB	'ed', 00H					; `string'
CONST	ENDS
;	COMDAT ??_C@_0BF@PFNFIDID@SetJONSCultureStored?$AA@
CONST	SEGMENT
??_C@_0BF@PFNFIDID@SetJONSCultureStored?$AA@ DB 'SetJONSCultureStored', 00H ; `string'
CONST	ENDS
;	COMDAT ??_C@_0BF@KMMIJFNE@GetJONSCultureStored?$AA@
CONST	SEGMENT
??_C@_0BF@KMMIJFNE@GetJONSCultureStored?$AA@ DB 'GetJONSCultureStored', 00H ; `string'
CONST	ENDS
;	COMDAT ??_C@_0BL@NNNBCPJN@GetGreatPeopleRateModifier?$AA@
CONST	SEGMENT
??_C@_0BL@NNNBCPJN@GetGreatPeopleRateModifier?$AA@ DB 'GetGreatPeopleRate'
	DB	'Modifier', 00H				; `string'
CONST	ENDS
;	COMDAT ??_C@_0BK@KDPOINAO@ChangeBaseGreatPeopleRate?$AA@
CONST	SEGMENT
??_C@_0BK@KDPOINAO@ChangeBaseGreatPeopleRate?$AA@ DB 'ChangeBaseGreatPeop'
	DB	'leRate', 00H				; `string'
CONST	ENDS
;	COMDAT ??_C@_0CA@KMDLAMII@GetTotalGreatPeopleRateModifier?$AA@
CONST	SEGMENT
??_C@_0CA@KMDLAMII@GetTotalGreatPeopleRateModifier?$AA@ DB 'GetTotalGreat'
	DB	'PeopleRateModifier', 00H			; `string'
CONST	ENDS
;	COMDAT ??_C@_0BD@EJKIAKHA@GetGreatPeopleRate?$AA@
CONST	SEGMENT
??_C@_0BD@EJKIAKHA@GetGreatPeopleRate?$AA@ DB 'GetGreatPeopleRate', 00H ; `string'
CONST	ENDS
;	COMDAT ??_C@_0BH@FFFJEHEB@GetBaseGreatPeopleRate?$AA@
CONST	SEGMENT
??_C@_0BH@FFFJEHEB@GetBaseGreatPeopleRate?$AA@ DB 'GetBaseGreatPeopleRate'
	DB	00H						; `string'
CONST	ENDS
;	COMDAT ??_C@_0BC@KLEPOAKG@GetNumGreatPeople?$AA@
CONST	SEGMENT
??_C@_0BC@KLEPOAKG@GetNumGreatPeople?$AA@ DB 'GetNumGreatPeople', 00H ; `string'
CONST	ENDS
;	COMDAT ??_C@_0BF@DCMBNE@SetHighestPopulation?$AA@
CONST	SEGMENT
??_C@_0BF@DCMBNE@SetHighestPopulation?$AA@ DB 'SetHighestPopulation', 00H ; `string'
CONST	ENDS
;	COMDAT ??_C@_0BF@FJCPNHID@GetHighestPopulation?$AA@
CONST	SEGMENT
??_C@_0BF@FJCPNHID@GetHighestPopulation?$AA@ DB 'GetHighestPopulation', 00H ; `string'
CONST	ENDS
;	COMDAT ??_C@_0BC@KOHBIIDL@GetRealPopulation?$AA@
CONST	SEGMENT
??_C@_0BC@KOHBIIDL@GetRealPopulation?$AA@ DB 'GetRealPopulation', 00H ; `string'
CONST	ENDS
;	COMDAT ??_C@_0BB@DMBKLBGC@ChangePopulation?$AA@
CONST	SEGMENT
??_C@_0BB@DMBKLBGC@ChangePopulation?$AA@ DB 'ChangePopulation', 00H ; `string'
CONST	ENDS
;	COMDAT ??_C@_0O@HAMIKLJM@SetPopulation?$AA@
CONST	SEGMENT
??_C@_0O@HAMIKLJM@SetPopulation?$AA@ DB 'SetPopulation', 00H ; `string'
CONST	ENDS
;	COMDAT ??_C@_0O@PNGBIOL@GetPopulation?$AA@
CONST	SEGMENT
??_C@_0O@PNGBIOL@GetPopulation?$AA@ DB 'GetPopulation', 00H ; `string'
CONST	ENDS
;	COMDAT ??_C@_0BI@IICLLOKC@GetGameTurnLastExpanded?$AA@
CONST	SEGMENT
??_C@_0BI@IICLLOKC@GetGameTurnLastExpanded?$AA@ DB 'GetGameTurnLastExpand'
	DB	'ed', 00H					; `string'
CONST	ENDS
;	COMDAT ??_C@_0BE@GPLNLMHN@GetGameTurnAcquired?$AA@
CONST	SEGMENT
??_C@_0BE@GPLNLMHN@GetGameTurnAcquired?$AA@ DB 'GetGameTurnAcquired', 00H ; `string'
CONST	ENDS
;	COMDAT ??_C@_0BD@PEMIOCBG@GetGameTurnFounded?$AA@
CONST	SEGMENT
??_C@_0BD@PEMIOCBG@GetGameTurnFounded?$AA@ DB 'GetGameTurnFounded', 00H ; `string'
CONST	ENDS
;	COMDAT ??_C@_0BC@ECAKDE@GetGarrisonedUnit?$AA@
CONST	SEGMENT
??_C@_0BC@ECAKDE@GetGarrisonedUnit?$AA@ DB 'GetGarrisonedUnit', 00H ; `string'
CONST	ENDS
;	COMDAT ??_C@_0O@JAHGGNPO@CanBuyAnyPlot?$AA@
CONST	SEGMENT
??_C@_0O@JAHGGNPO@CanBuyAnyPlot?$AA@ DB 'CanBuyAnyPlot', 00H ; `string'
CONST	ENDS
;	COMDAT ??_C@_0P@CLDNCOML@GetBuyPlotCost?$AA@
CONST	SEGMENT
??_C@_0P@CLDNCOML@GetBuyPlotCost?$AA@ DB 'GetBuyPlotCost', 00H ; `string'
CONST	ENDS
;	COMDAT ??_C@_0BD@EKOODAKH@GetBuyablePlotList?$AA@
CONST	SEGMENT
??_C@_0BD@EKOODAKH@GetBuyablePlotList?$AA@ DB 'GetBuyablePlotList', 00H ; `string'
CONST	ENDS
;	COMDAT ??_C@_0BD@DPMBBFOK@GetNextBuyablePlot?$AA@
CONST	SEGMENT
??_C@_0BD@DPMBBFOK@GetNextBuyablePlot?$AA@ DB 'GetNextBuyablePlot', 00H ; `string'
CONST	ENDS
;	COMDAT ??_C@_0N@ELCKKIDJ@CanBuyPlotAt?$AA@
CONST	SEGMENT
??_C@_0N@ELCKKIDJ@CanBuyPlotAt?$AA@ DB 'CanBuyPlotAt', 00H ; `string'
CONST	ENDS
;	COMDAT ??_C@_0L@MJKINFAP@CanBuyPlot?$AA@
CONST	SEGMENT
??_C@_0L@MJKINFAP@CanBuyPlot?$AA@ DB 'CanBuyPlot', 00H	; `string'
CONST	ENDS
;	COMDAT ??_C@_0N@JOMCKPIG@GetRallyPlot?$AA@
CONST	SEGMENT
??_C@_0N@JOMCKPIG@GetRallyPlot?$AA@ DB 'GetRallyPlot', 00H ; `string'
CONST	ENDS
;	COMDAT ??_C@_09CNIEIFHO@WaterArea?$AA@
CONST	SEGMENT
??_C@_09CNIEIFHO@WaterArea?$AA@ DB 'WaterArea', 00H	; `string'
CONST	ENDS
;	COMDAT ??_C@_04KPICECCB@Area?$AA@
CONST	SEGMENT
??_C@_04KPICECCB@Area?$AA@ DB 'Area', 00H		; `string'
CONST	ENDS
;	COMDAT ??_C@_04HIOGLPHN@Plot?$AA@
CONST	SEGMENT
??_C@_04HIOGLPHN@Plot?$AA@ DB 'Plot', 00H		; `string'
CONST	ENDS
;	COMDAT ??_C@_06FBGHKGAE@AtPlot?$AA@
CONST	SEGMENT
??_C@_06FBGHKGAE@AtPlot?$AA@ DB 'AtPlot', 00H		; `string'
CONST	ENDS
;	COMDAT ??_C@_02DKLFHNOI@At?$AA@
CONST	SEGMENT
??_C@_02DKLFHNOI@At?$AA@ DB 'At', 00H			; `string'
CONST	ENDS
;	COMDAT ??_C@_04OHHHKNBL@GetY?$AA@
CONST	SEGMENT
??_C@_04OHHHKNBL@GetY?$AA@ DB 'GetY', 00H		; `string'
CONST	ENDS
;	COMDAT ??_C@_04POGMJMFK@GetX?$AA@
CONST	SEGMENT
??_C@_04POGMJMFK@GetX?$AA@ DB 'GetX', 00H		; `string'
CONST	ENDS
;	COMDAT ??_C@_05CLBJHDA@GetID?$AA@
CONST	SEGMENT
??_C@_05CLBJHDA@GetID?$AA@ DB 'GetID', 00H		; `string'
CONST	ENDS
;	COMDAT ??_C@_0BF@OPJCOPIH@GetNumActiveBuilding?$AA@
CONST	SEGMENT
??_C@_0BF@OPJCOPIH@GetNumActiveBuilding?$AA@ DB 'GetNumActiveBuilding', 00H ; `string'
CONST	ENDS
;	COMDAT ??_C@_0O@ELHLCIIC@IsHasBuilding?$AA@
CONST	SEGMENT
??_C@_0O@ELHLCIIC@IsHasBuilding?$AA@ DB 'IsHasBuilding', 00H ; `string'
CONST	ENDS
;	COMDAT ??_C@_0P@EOHOGKJK@GetNumBuilding?$AA@
CONST	SEGMENT
??_C@_0P@EOHOGKJK@GetNumBuilding?$AA@ DB 'GetNumBuilding', 00H ; `string'
CONST	ENDS
;	COMDAT ??_C@_0BD@OEGDKNCP@MaxHurryPopulation?$AA@
CONST	SEGMENT
??_C@_0BD@OEGDKNCP@MaxHurryPopulation?$AA@ DB 'MaxHurryPopulation', 00H ; `string'
CONST	ENDS
;	COMDAT ??_C@_0BA@IMHIGCAF@HurryProduction?$AA@
CONST	SEGMENT
??_C@_0BA@IMHIGCAF@HurryProduction?$AA@ DB 'HurryProduction', 00H ; `string'
CONST	ENDS
;	COMDAT ??_C@_0BA@CCMOKMFO@HurryPopulation?$AA@
CONST	SEGMENT
??_C@_0BA@CCMOKMFO@HurryPopulation?$AA@ DB 'HurryPopulation', 00H ; `string'
CONST	ENDS
;	COMDAT ??_C@_09FLEJKCEK@HurryGold?$AA@
CONST	SEGMENT
??_C@_09FLEJKCEK@HurryGold?$AA@ DB 'HurryGold', 00H	; `string'
CONST	ENDS
;	COMDAT ??_C@_09PDHBPCJG@HurryCost?$AA@
CONST	SEGMENT
??_C@_09PDHBPCJG@HurryCost?$AA@ DB 'HurryCost', 00H	; `string'
CONST	ENDS
;	COMDAT ??_C@_0P@KBNPLEGK@ProductionLeft?$AA@
CONST	SEGMENT
??_C@_0P@KBNPLEGK@ProductionLeft?$AA@ DB 'ProductionLeft', 00H ; `string'
CONST	ENDS
;	COMDAT ??_C@_0BA@NJNOJFJN@GrowthThreshold?$AA@
CONST	SEGMENT
??_C@_0BA@NJNOJFJN@GrowthThreshold?$AA@ DB 'GrowthThreshold', 00H ; `string'
CONST	ENDS
;	COMDAT ??_C@_0BH@LJBNHLKM@FoodDifferenceTimes100?$AA@
CONST	SEGMENT
??_C@_0BH@LJBNHLKM@FoodDifferenceTimes100?$AA@ DB 'FoodDifferenceTimes100'
	DB	00H						; `string'
CONST	ENDS
;	COMDAT ??_C@_0P@CNHJHJIP@FoodDifference?$AA@
CONST	SEGMENT
??_C@_0P@CNHJHJIP@FoodDifference?$AA@ DB 'FoodDifference', 00H ; `string'
CONST	ENDS
;	COMDAT ??_C@_0BA@BJLFGBFC@FoodConsumption?$AA@
CONST	SEGMENT
??_C@_0BA@BJLFGBFC@FoodConsumption?$AA@ DB 'FoodConsumption', 00H ; `string'
CONST	ENDS
;	COMDAT ??_C@_09HEMCEJGG@IsCoastal?$AA@
CONST	SEGMENT
??_C@_09HEMCEJGG@IsCoastal?$AA@ DB 'IsCoastal', 00H	; `string'
CONST	ENDS
;	COMDAT ??_C@_0BH@ONOJLMEH@IsOriginalMajorCapital?$AA@
CONST	SEGMENT
??_C@_0BH@ONOJLMEH@IsOriginalMajorCapital?$AA@ DB 'IsOriginalMajorCapital'
	DB	00H						; `string'
CONST	ENDS
;	COMDAT ??_C@_0BC@PAPJEFNG@IsOriginalCapital?$AA@
CONST	SEGMENT
??_C@_0BC@PAPJEFNG@IsOriginalCapital?$AA@ DB 'IsOriginalCapital', 00H ; `string'
CONST	ENDS
;	COMDAT ??_C@_09MGCHGMCG@IsCapital?$AA@
CONST	SEGMENT
??_C@_09MGCHGMCG@IsCapital?$AA@ DB 'IsCapital', 00H	; `string'
CONST	ENDS
;	COMDAT ??_C@_09OLGPEPPJ@IsVisible?$AA@
CONST	SEGMENT
??_C@_09OLGPEPPJ@IsVisible?$AA@ DB 'IsVisible', 00H	; `string'
CONST	ENDS
;	COMDAT ??_C@_07NIJBBMLI@IsHuman?$AA@
CONST	SEGMENT
??_C@_07NIJBBMLI@IsHuman?$AA@ DB 'IsHuman', 00H		; `string'
CONST	ENDS
;	COMDAT ??_C@_0M@NJNEDJLP@IsBarbarian?$AA@
CONST	SEGMENT
??_C@_0M@NJNEDJLP@IsBarbarian?$AA@ DB 'IsBarbarian', 00H ; `string'
CONST	ENDS
;	COMDAT ??_C@_0BA@LACHPPMM@GetCitySizeType?$AA@
CONST	SEGMENT
??_C@_0BA@LACHPPMM@GetCitySizeType?$AA@ DB 'GetCitySizeType', 00H ; `string'
CONST	ENDS
;	COMDAT ??_C@_0BA@GLKLOHNJ@GetArtStyleType?$AA@
CONST	SEGMENT
??_C@_0BA@GLKLOHNJ@GetArtStyleType?$AA@ DB 'GetArtStyleType', 00H ; `string'
CONST	ENDS
;	COMDAT ??_C@_0BD@DDPEHEOB@GetPersonalityType?$AA@
CONST	SEGMENT
??_C@_0BD@DDPEHEOB@GetPersonalityType?$AA@ DB 'GetPersonalityType', 00H ; `string'
CONST	ENDS
;	COMDAT ??_C@_0BE@OGLFKPOE@GetCivilizationType?$AA@
CONST	SEGMENT
??_C@_0BE@OGLFKPOE@GetCivilizationType?$AA@ DB 'GetCivilizationType', 00H ; `string'
CONST	ENDS
;	COMDAT ??_C@_0BA@NDPGKNBO@GetHandicapType?$AA@
CONST	SEGMENT
??_C@_0BA@NDPGKNBO@GetHandicapType?$AA@ DB 'GetHandicapType', 00H ; `string'
CONST	ENDS
;	COMDAT ??_C@_0BN@GNJODLOF@GetResourceYieldRateModifier?$AA@
CONST	SEGMENT
??_C@_0BN@GNJODLOF@GetResourceYieldRateModifier?$AA@ DB 'GetResourceYield'
	DB	'RateModifier', 00H				; `string'
CONST	ENDS
;	COMDAT ??_C@_09KGDNLPBA@Conscript?$AA@
CONST	SEGMENT
??_C@_09KGDNLPBA@Conscript?$AA@ DB 'Conscript', 00H	; `string'
CONST	ENDS
;	COMDAT ??_C@_0N@PLNBPBNI@CanConscript?$AA@
CONST	SEGMENT
??_C@_0N@PLNBPBNI@CanConscript?$AA@ DB 'CanConscript', 00H ; `string'
CONST	ENDS
;	COMDAT ??_C@_0BL@PLEBJCEL@ConscriptMinCityPopulation?$AA@
CONST	SEGMENT
??_C@_0BL@PLEBJCEL@ConscriptMinCityPopulation?$AA@ DB 'ConscriptMinCityPo'
	DB	'pulation', 00H				; `string'
CONST	ENDS
;	COMDAT ??_C@_0BH@IGNMDIJF@GetConscriptPopulation?$AA@
CONST	SEGMENT
??_C@_0BH@IGNMDIJF@GetConscriptPopulation?$AA@ DB 'GetConscriptPopulation'
	DB	00H						; `string'
CONST	ENDS
;	COMDAT ??_C@_0BB@EGKBFCJM@GetConscriptUnit?$AA@
CONST	SEGMENT
??_C@_0BB@EGKBFCJM@GetConscriptUnit?$AA@ DB 'GetConscriptUnit', 00H ; `string'
CONST	ENDS
;	COMDAT ??_C@_05PELKKPHE@Hurry?$AA@
CONST	SEGMENT
??_C@_05PELKKPHE@Hurry?$AA@ DB 'Hurry', 00H		; `string'
CONST	ENDS
;	COMDAT ??_C@_08IDKGLCCG@CanHurry?$AA@
CONST	SEGMENT
??_C@_08IDKGLCCG@CanHurry?$AA@ DB 'CanHurry', 00H	; `string'
CONST	ENDS
;	COMDAT ??_C@_0BN@IGNDNHOA@GetExtraProductionDifference?$AA@
CONST	SEGMENT
??_C@_0BN@IGNDNHOA@GetExtraProductionDifference?$AA@ DB 'GetExtraProducti'
	DB	'onDifference', 00H				; `string'
CONST	ENDS
;	COMDAT ??_C@_0CA@IIOBOOCG@GetSpecialistProductionModifier?$AA@
CONST	SEGMENT
??_C@_0CA@IIOBOOCG@GetSpecialistProductionModifier?$AA@ DB 'GetSpecialist'
	DB	'ProductionModifier', 00H			; `string'
CONST	ENDS
;	COMDAT ??_C@_0BN@FIGLLOHP@GetProjectProductionModifier?$AA@
CONST	SEGMENT
??_C@_0BN@FIGLLOHP@GetProjectProductionModifier?$AA@ DB 'GetProjectProduc'
	DB	'tionModifier', 00H				; `string'
CONST	ENDS
;	COMDAT ??_C@_0BO@BOIFPPNB@GetBuildingProductionModifier?$AA@
CONST	SEGMENT
??_C@_0BO@BOIFPPNB@GetBuildingProductionModifier?$AA@ DB 'GetBuildingProd'
	DB	'uctionModifier', 00H			; `string'
CONST	ENDS
;	COMDAT ??_C@_0BK@CAONOBAD@GetUnitProductionModifier?$AA@
CONST	SEGMENT
??_C@_0BK@CAONOBAD@GetUnitProductionModifier?$AA@ DB 'GetUnitProductionMo'
	DB	'difier', 00H				; `string'
CONST	ENDS
;	COMDAT ??_C@_0CD@FAGAIJM@GetRawProductionDifferenceTimes1@
CONST	SEGMENT
??_C@_0CD@FAGAIJM@GetRawProductionDifferenceTimes1@ DB 'GetRawProductionD'
	DB	'ifferenceTimes100', 00H			; `string'
CONST	ENDS
;	COMDAT ??_C@_0CH@BNPOEMEH@GetCurrentProductionDifferenceTi@
CONST	SEGMENT
??_C@_0CH@BNPOEMEH@GetCurrentProductionDifferenceTi@ DB 'GetCurrentProduc'
	DB	'tionDifferenceTimes100', 00H		; `string'
CONST	ENDS
;	COMDAT ??_C@_0BL@KEJICAMN@GetRawProductionDifference?$AA@
CONST	SEGMENT
??_C@_0BL@KEJICAMN@GetRawProductionDifference?$AA@ DB 'GetRawProductionDi'
	DB	'fference', 00H				; `string'
CONST	ENDS
;	COMDAT ??_C@_0BP@DPKFHAM@GetCurrentProductionDifference?$AA@
CONST	SEGMENT
??_C@_0BP@DPKFHAM@GetCurrentProductionDifference?$AA@ DB 'GetCurrentProdu'
	DB	'ctionDifference', 00H			; `string'
CONST	ENDS
;	COMDAT ??_C@_0BG@COALBBFM@GetProductionModifier?$AA@
CONST	SEGMENT
??_C@_0BG@COALBBFM@GetProductionModifier?$AA@ DB 'GetProductionModifier', 00H ; `string'
CONST	ENDS
;	COMDAT ??_C@_0BI@LBFPCPLM@GetYieldModifierTooltip?$AA@
CONST	SEGMENT
??_C@_0BI@LBFPCPLM@GetYieldModifierTooltip?$AA@ DB 'GetYieldModifierToolt'
	DB	'ip', 00H					; `string'
CONST	ENDS
;	COMDAT ??_C@_0BB@JCKMHPDJ@ChangeProduction?$AA@
CONST	SEGMENT
??_C@_0BB@JCKMHPDJ@ChangeProduction?$AA@ DB 'ChangeProduction', 00H ; `string'
CONST	ENDS
;	COMDAT ??_C@_0O@NOHOGFMH@SetProduction?$AA@
CONST	SEGMENT
??_C@_0O@NOHOGFMH@SetProduction?$AA@ DB 'SetProduction', 00H ; `string'
CONST	ENDS
;	COMDAT ??_C@_0BH@JBKNIEHE@GetProjectPurchaseCost?$AA@
CONST	SEGMENT
??_C@_0BH@JBKNIEHE@GetProjectPurchaseCost?$AA@ DB 'GetProjectPurchaseCost'
	DB	00H						; `string'
CONST	ENDS
;	COMDAT ??_C@_0BN@CMKEAJOA@GetBuildingFaithPurchaseCost?$AA@
CONST	SEGMENT
??_C@_0BN@CMKEAJOA@GetBuildingFaithPurchaseCost?$AA@ DB 'GetBuildingFaith'
	DB	'PurchaseCost', 00H				; `string'
CONST	ENDS
;	COMDAT ??_C@_0BI@EOCLNJGF@GetBuildingPurchaseCost?$AA@
CONST	SEGMENT
??_C@_0BI@EOCLNJGF@GetBuildingPurchaseCost?$AA@ DB 'GetBuildingPurchaseCo'
	DB	'st', 00H					; `string'
CONST	ENDS
;	COMDAT ??_C@_0BJ@CKMNAAAH@GetUnitFaithPurchaseCost?$AA@
CONST	SEGMENT
??_C@_0BJ@CKMNAAAH@GetUnitFaithPurchaseCost?$AA@ DB 'GetUnitFaithPurchase'
	DB	'Cost', 00H					; `string'
CONST	ENDS
;	COMDAT ??_C@_0BE@OFOJNOOB@GetUnitPurchaseCost?$AA@
CONST	SEGMENT
??_C@_0BE@OFOJNOOB@GetUnitPurchaseCost?$AA@ DB 'GetUnitPurchaseCost', 00H ; `string'
CONST	ENDS
;	COMDAT ??_C@_0O@NIIMABIN@IsCanPurchase?$AA@
CONST	SEGMENT
??_C@_0O@NIIMABIN@IsCanPurchase?$AA@ DB 'IsCanPurchase', 00H ; `string'
CONST	ENDS
;	COMDAT ??_C@_0BE@GBMHNAJH@CreateApolloProgram?$AA@
CONST	SEGMENT
??_C@_0BE@GBMHNAJH@CreateApolloProgram?$AA@ DB 'CreateApolloProgram', 00H ; `string'
CONST	ENDS
;	COMDAT ??_C@_0CB@EFOFIEPO@GetSpecialistProductionTurnsLeft@
CONST	SEGMENT
??_C@_0CB@EFOFIEPO@GetSpecialistProductionTurnsLeft@ DB 'GetSpecialistPro'
	DB	'ductionTurnsLeft', 00H			; `string'
CONST	ENDS
;	COMDAT ??_C@_0BO@FHICOHPO@GetProjectProductionTurnsLeft?$AA@
CONST	SEGMENT
??_C@_0BO@FHICOHPO@GetProjectProductionTurnsLeft?$AA@ DB 'GetProjectProdu'
	DB	'ctionTurnsLeft', 00H			; `string'
CONST	ENDS
;	COMDAT ??_C@_0BP@GGKKIHFA@GetBuildingProductionTurnsLeft?$AA@
CONST	SEGMENT
??_C@_0BP@GGKKIHFA@GetBuildingProductionTurnsLeft?$AA@ DB 'GetBuildingPro'
	DB	'ductionTurnsLeft', 00H			; `string'
CONST	ENDS
;	COMDAT ??_C@_0BL@OEJFMLG@GetUnitProductionTurnsLeft?$AA@
CONST	SEGMENT
??_C@_0BL@OEJFMLG@GetUnitProductionTurnsLeft?$AA@ DB 'GetUnitProductionTu'
	DB	'rnsLeft', 00H				; `string'
CONST	ENDS
;	COMDAT ??_C@_0BH@PFJDPGCD@GetProductionTurnsLeft?$AA@
CONST	SEGMENT
??_C@_0BH@PFJDPGCD@GetProductionTurnsLeft?$AA@ DB 'GetProductionTurnsLeft'
	DB	00H						; `string'
CONST	ENDS
;	COMDAT ??_C@_0BL@JBMFKMKF@GetProjectProductionNeeded?$AA@
CONST	SEGMENT
??_C@_0BL@JBMFKMKF@GetProjectProductionNeeded?$AA@ DB 'GetProjectProducti'
	DB	'onNeeded', 00H				; `string'
CONST	ENDS
;	COMDAT ??_C@_0BM@GGLBNBDE@GetBuildingProductionNeeded?$AA@
CONST	SEGMENT
??_C@_0BM@GGLBNBDE@GetBuildingProductionNeeded?$AA@ DB 'GetBuildingProduc'
	DB	'tionNeeded', 00H				; `string'
CONST	ENDS
;	COMDAT ??_C@_0BI@LJANCJHB@GetUnitProductionNeeded?$AA@
CONST	SEGMENT
??_C@_0BI@LJANCJHB@GetUnitProductionNeeded?$AA@ DB 'GetUnitProductionNeed'
	DB	'ed', 00H					; `string'
CONST	ENDS
;	COMDAT ??_C@_0BE@BJPFPGBE@GetProductionNeeded?$AA@
CONST	SEGMENT
??_C@_0BE@BJPFPGBE@GetProductionNeeded?$AA@ DB 'GetProductionNeeded', 00H ; `string'
CONST	ENDS
;	COMDAT ??_C@_0BG@ENMJHDK@GetProductionTimes100?$AA@
CONST	SEGMENT
??_C@_0BG@ENMJHDK@GetProductionTimes100?$AA@ DB 'GetProductionTimes100', 00H ; `string'
CONST	ENDS
;	COMDAT ??_C@_0O@KBGANGLA@GetProduction?$AA@
CONST	SEGMENT
??_C@_0O@KBGANGLA@GetProduction?$AA@ DB 'GetProduction', 00H ; `string'
CONST	ENDS
;	COMDAT ??_C@_0BF@LICEFFKA@IsUnitFoodProduction?$AA@
CONST	SEGMENT
??_C@_0BF@LICEFFKA@IsUnitFoodProduction?$AA@ DB 'IsUnitFoodProduction', 00H ; `string'
CONST	ENDS
;	COMDAT ??_C@_0BG@EDLGFJKE@GetFirstBuildingOrder?$AA@
CONST	SEGMENT
??_C@_0BG@EDLGFJKE@GetFirstBuildingOrder?$AA@ DB 'GetFirstBuildingOrder', 00H ; `string'
CONST	ENDS
;	COMDAT ??_C@_0BC@LOPIPDKF@GetNumTrainUnitAI?$AA@
CONST	SEGMENT
??_C@_0BC@LOPIPDKF@GetNumTrainUnitAI?$AA@ DB 'GetNumTrainUnitAI', 00H ; `string'
CONST	ENDS
;	COMDAT ??_C@_0BC@BMCPAEED@GetOrderFromQueue?$AA@
CONST	SEGMENT
??_C@_0BC@BMCPAEED@GetOrderFromQueue?$AA@ DB 'GetOrderFromQueue', 00H ; `string'
CONST	ENDS
;	COMDAT ??_C@_0BI@GOLELKAA@GetFirstSpecialistOrder?$AA@
CONST	SEGMENT
??_C@_0BI@GOLELKAA@GetFirstSpecialistOrder?$AA@ DB 'GetFirstSpecialistOrd'
	DB	'er', 00H					; `string'
CONST	ENDS
;	COMDAT ??_C@_0BF@KCLLEIOH@GetFirstProjectOrder?$AA@
CONST	SEGMENT
??_C@_0BF@KCLLEIOH@GetFirstProjectOrder?$AA@ DB 'GetFirstProjectOrder', 00H ; `string'
CONST	ENDS
;	COMDAT ??_C@_0BC@MEAEELJJ@GetFirstUnitOrder?$AA@
CONST	SEGMENT
??_C@_0BC@MEAEELJJ@GetFirstUnitOrder?$AA@ DB 'GetFirstUnitOrder', 00H ; `string'
CONST	ENDS
;	COMDAT ??_C@_0BB@FDBBPKLD@IsFoodProduction?$AA@
CONST	SEGMENT
??_C@_0BB@FDBBPKLD@IsFoodProduction?$AA@ DB 'IsFoodProduction', 00H ; `string'
CONST	ENDS
;	COMDAT ??_C@_0BO@NIKBHNEM@GetGeneralProductionTurnsLeft?$AA@
CONST	SEGMENT
??_C@_0BO@NIKBHNEM@GetGeneralProductionTurnsLeft?$AA@ DB 'GetGeneralProdu'
	DB	'ctionTurnsLeft', 00H			; `string'
CONST	ENDS
;	COMDAT ??_C@_0BF@IAGNNOMA@GetProductionNameKey?$AA@
CONST	SEGMENT
??_C@_0BF@IAGNNOMA@GetProductionNameKey?$AA@ DB 'GetProductionNameKey', 00H ; `string'
CONST	ENDS
;	COMDAT ??_C@_0BF@NPELMAGE@GetProductionProcess?$AA@
CONST	SEGMENT
??_C@_0BF@NPELMAGE@GetProductionProcess?$AA@ DB 'GetProductionProcess', 00H ; `string'
CONST	ENDS
;	COMDAT ??_C@_0BI@FNNHALBC@GetProductionSpecialist?$AA@
CONST	SEGMENT
??_C@_0BI@FNNHALBC@GetProductionSpecialist?$AA@ DB 'GetProductionSpeciali'
	DB	'st', 00H					; `string'
CONST	ENDS
;	COMDAT ??_C@_0BF@IBDMJHKC@GetProductionProject?$AA@
CONST	SEGMENT
??_C@_0BF@IBDMJHKC@GetProductionProject?$AA@ DB 'GetProductionProject', 00H ; `string'
CONST	ENDS
;	COMDAT ??_C@_0BG@GMPDFJII@GetProductionBuilding?$AA@
CONST	SEGMENT
??_C@_0BG@GMPDFJII@GetProductionBuilding?$AA@ DB 'GetProductionBuilding', 00H ; `string'
CONST	ENDS
;	COMDAT ??_C@_0BE@JMGMMAKO@GetProductionUnitAI?$AA@
CONST	SEGMENT
??_C@_0BE@JMGMMAKO@GetProductionUnitAI?$AA@ DB 'GetProductionUnitAI', 00H ; `string'
CONST	ENDS
;	COMDAT ??_C@_0BC@HHAFHDBH@GetProductionUnit?$AA@
CONST	SEGMENT
??_C@_0BC@HHAFHDBH@GetProductionUnit?$AA@ DB 'GetProductionUnit', 00H ; `string'
CONST	ENDS
;	COMDAT ??_C@_0BI@PMHACJOD@AddProductionExperience?$AA@
CONST	SEGMENT
??_C@_0BI@PMHACJOD@AddProductionExperience?$AA@ DB 'AddProductionExperien'
	DB	'ce', 00H					; `string'
CONST	ENDS
;	COMDAT ??_C@_0BI@HOMJNLCG@GetProductionExperience?$AA@
CONST	SEGMENT
??_C@_0BI@HOMJNLCG@GetProductionExperience?$AA@ DB 'GetProductionExperien'
	DB	'ce', 00H					; `string'
CONST	ENDS
;	COMDAT ??_C@_0BG@FDHDEEDP@CanContinueProduction?$AA@
CONST	SEGMENT
??_C@_0BG@FDHDEEDP@CanContinueProduction?$AA@ DB 'CanContinueProduction', 00H ; `string'
CONST	ENDS
;	COMDAT ??_C@_0BE@IPGILDGA@IsProductionProcess?$AA@
CONST	SEGMENT
??_C@_0BE@IPGILDGA@IsProductionProcess?$AA@ DB 'IsProductionProcess', 00H ; `string'
CONST	ENDS
;	COMDAT ??_C@_0BH@PMKLPINJ@IsProductionSpecialist?$AA@
CONST	SEGMENT
??_C@_0BH@PMKLPINJ@IsProductionSpecialist?$AA@ DB 'IsProductionSpecialist'
	DB	00H						; `string'
CONST	ENDS
;	COMDAT ??_C@_0BE@NBBPOEKG@IsProductionProject?$AA@
CONST	SEGMENT
??_C@_0BE@NBBPOEKG@IsProductionProject?$AA@ DB 'IsProductionProject', 00H ; `string'
CONST	ENDS
;	COMDAT ??_C@_0BF@GLMOLOOC@IsProductionBuilding?$AA@
CONST	SEGMENT
??_C@_0BF@GLMOLOOC@IsProductionBuilding?$AA@ DB 'IsProductionBuilding', 00H ; `string'
CONST	ENDS
;	COMDAT ??_C@_0BB@MEBAJFDN@IsProductionUnit?$AA@
CONST	SEGMENT
??_C@_0BB@MEBAJFDN@IsProductionUnit?$AA@ DB 'IsProductionUnit', 00H ; `string'
CONST	ENDS
;	COMDAT ??_C@_0BE@DDFAINDE@IsProductionLimited?$AA@
CONST	SEGMENT
??_C@_0BE@DDFAINDE@IsProductionLimited?$AA@ DB 'IsProductionLimited', 00H ; `string'
CONST	ENDS
;	COMDAT ??_C@_0N@GIHKPEF@IsProduction?$AA@
CONST	SEGMENT
??_C@_0N@GIHKPEF@IsProduction?$AA@ DB 'IsProduction', 00H ; `string'
CONST	ENDS
;	COMDAT ??_C@_0BB@IKLMJKMH@GetFoodTurnsLeft?$AA@
CONST	SEGMENT
??_C@_0BB@IKLMJKMH@GetFoodTurnsLeft?$AA@ DB 'GetFoodTurnsLeft', 00H ; `string'
CONST	ENDS
;	COMDAT ??_C@_0BH@MCIHHEDJ@DoPickResourceDemanded?$AA@
CONST	SEGMENT
??_C@_0BH@MCIHHEDJ@DoPickResourceDemanded?$AA@ DB 'DoPickResourceDemanded'
	DB	00H						; `string'
CONST	ENDS
;	COMDAT ??_C@_0BE@HDAFCNHJ@SetResourceDemanded?$AA@
CONST	SEGMENT
??_C@_0BE@HDAFCNHJ@SetResourceDemanded?$AA@ DB 'SetResourceDemanded', 00H ; `string'
CONST	ENDS
;	COMDAT ??_C@_0BE@NNCOGNAF@GetResourceDemanded?$AA@
CONST	SEGMENT
??_C@_0BE@NNCOGNAF@GetResourceDemanded?$AA@ DB 'GetResourceDemanded', 00H ; `string'
CONST	ENDS
;	COMDAT ??_C@_0BN@GDJGPHKP@IsBuildingLocalResourceValid?$AA@
CONST	SEGMENT
??_C@_0BN@GDJGPHKP@IsBuildingLocalResourceValid?$AA@ DB 'IsBuildingLocalR'
	DB	'esourceValid', 00H				; `string'
CONST	ENDS
;	COMDAT ??_C@_07OPIONNNI@CanJoin?$AA@
CONST	SEGMENT
??_C@_07OPIONNNI@CanJoin?$AA@ DB 'CanJoin', 00H		; `string'
CONST	ENDS
;	COMDAT ??_C@_0CA@GGJPFJGL@GetFaithPurchaseBuildingTooltip?$AA@
CONST	SEGMENT
??_C@_0CA@GGJPFJGL@GetFaithPurchaseBuildingTooltip?$AA@ DB 'GetFaithPurch'
	DB	'aseBuildingTooltip', 00H			; `string'
CONST	ENDS
;	COMDAT ??_C@_0BL@FAPMIPIE@GetPurchaseBuildingTooltip?$AA@
CONST	SEGMENT
??_C@_0BL@FAPMIPIE@GetPurchaseBuildingTooltip?$AA@ DB 'GetPurchaseBuildin'
	DB	'gTooltip', 00H				; `string'
CONST	ENDS
;	COMDAT ??_C@_0BM@MAHKFKLD@GetFaithPurchaseUnitTooltip?$AA@
CONST	SEGMENT
??_C@_0BM@MAHKFKLD@GetFaithPurchaseUnitTooltip?$AA@ DB 'GetFaithPurchaseU'
	DB	'nitTooltip', 00H				; `string'
CONST	ENDS
;	COMDAT ??_C@_0BH@CFONLAFB@GetPurchaseUnitTooltip?$AA@
CONST	SEGMENT
??_C@_0BH@CFONLAFB@GetPurchaseUnitTooltip?$AA@ DB 'GetPurchaseUnitTooltip'
	DB	00H						; `string'
CONST	ENDS
;	COMDAT ??_C@_0M@LBFPGCCN@CanMaintain?$AA@
CONST	SEGMENT
??_C@_0M@LBFPGCCN@CanMaintain?$AA@ DB 'CanMaintain', 00H ; `string'
CONST	ENDS
;	COMDAT ??_C@_0L@DCAJPLNN@CanPrepare?$AA@
CONST	SEGMENT
??_C@_0L@DCAJPLNN@CanPrepare?$AA@ DB 'CanPrepare', 00H	; `string'
CONST	ENDS
;	COMDAT ??_C@_09ENLCPIFP@CanCreate?$AA@
CONST	SEGMENT
??_C@_09ENLCPIFP@CanCreate?$AA@ DB 'CanCreate', 00H	; `string'
CONST	ENDS
;	COMDAT ??_C@_0N@OBKNDGPF@CanConstruct?$AA@
CONST	SEGMENT
??_C@_0N@OBKNDGPF@CanConstruct?$AA@ DB 'CanConstruct', 00H ; `string'
CONST	ENDS
;	COMDAT ??_C@_0BE@IHIHNENF@CanConstructTooltip?$AA@
CONST	SEGMENT
??_C@_0BE@IHIHNENF@CanConstructTooltip?$AA@ DB 'CanConstructTooltip', 00H ; `string'
CONST	ENDS
;	COMDAT ??_C@_08BCMOJMKA@CanTrain?$AA@
CONST	SEGMENT
??_C@_08BCMOJMKA@CanTrain?$AA@ DB 'CanTrain', 00H	; `string'
CONST	ENDS
;	COMDAT ??_C@_0BA@EKMJEJJ@CanTrainTooltip?$AA@
CONST	SEGMENT
??_C@_0BA@EKMJEJJ@CanTrainTooltip?$AA@ DB 'CanTrainTooltip', 00H ; `string'
CONST	ENDS
;	COMDAT ??_C@_0BB@PMKDJFAN@IsBuildingsMaxed?$AA@
CONST	SEGMENT
??_C@_0BB@PMKDJFAN@IsBuildingsMaxed?$AA@ DB 'IsBuildingsMaxed', 00H ; `string'
CONST	ENDS
;	COMDAT ??_C@_0BH@PEGJHPHH@IsNationalWondersMaxed?$AA@
CONST	SEGMENT
??_C@_0BH@PEGJHPHH@IsNationalWondersMaxed?$AA@ DB 'IsNationalWondersMaxed'
	DB	00H						; `string'
CONST	ENDS
;	COMDAT ??_C@_0BD@ILFMPGB@IsTeamWondersMaxed?$AA@
CONST	SEGMENT
??_C@_0BD@ILFMPGB@IsTeamWondersMaxed?$AA@ DB 'IsTeamWondersMaxed', 00H ; `string'
CONST	ENDS
;	COMDAT ??_C@_0BE@MLOPBNAH@IsWorldWondersMaxed?$AA@
CONST	SEGMENT
??_C@_0BE@MLOPBNAH@IsWorldWondersMaxed?$AA@ DB 'IsWorldWondersMaxed', 00H ; `string'
CONST	ENDS
;	COMDAT ??_C@_0BF@DHLOKDMI@AllUpgradesAvailable?$AA@
CONST	SEGMENT
??_C@_0BF@DHLOKDMI@AllUpgradesAvailable?$AA@ DB 'AllUpgradesAvailable', 00H ; `string'
CONST	ENDS
;	COMDAT ??_C@_0BC@NIDNNACB@FindYieldRateRank?$AA@
CONST	SEGMENT
??_C@_0BC@NIDNNACB@FindYieldRateRank?$AA@ DB 'FindYieldRateRank', 00H ; `string'
CONST	ENDS
;	COMDAT ??_C@_0BG@HJIHCGBJ@FindBaseYieldRateRank?$AA@
CONST	SEGMENT
??_C@_0BG@HJIHCGBJ@FindBaseYieldRateRank?$AA@ DB 'FindBaseYieldRateRank', 00H ; `string'
CONST	ENDS
;	COMDAT ??_C@_0BD@CLJOHCFG@FindPopulationRank?$AA@
CONST	SEGMENT
??_C@_0BD@CLJOHCFG@FindPopulationRank?$AA@ DB 'FindPopulationRank', 00H ; `string'
CONST	ENDS
;	COMDAT ??_C@_0BD@ENGGNHLP@CountNumRiverPlots?$AA@
CONST	SEGMENT
??_C@_0BD@ENGGNHLP@CountNumRiverPlots?$AA@ DB 'CountNumRiverPlots', 00H ; `string'
CONST	ENDS
;	COMDAT ??_C@_0BD@BBABDIP@CountNumWaterPlots?$AA@
CONST	SEGMENT
??_C@_0BD@BBABDIP@CountNumWaterPlots?$AA@ DB 'CountNumWaterPlots', 00H ; `string'
CONST	ENDS
;	COMDAT ??_C@_0BG@FBLIMDFF@CountNumImprovedPlots?$AA@
CONST	SEGMENT
??_C@_0BG@FBLIMDFF@CountNumImprovedPlots?$AA@ DB 'CountNumImprovedPlots', 00H ; `string'
CONST	ENDS
;	COMDAT ??_C@_0BF@DHGDDLG@ClearWorkingOverride?$AA@
CONST	SEGMENT
??_C@_0BF@DHGDDLG@ClearWorkingOverride?$AA@ DB 'ClearWorkingOverride', 00H ; `string'
CONST	ENDS
;	COMDAT ??_C@_0BA@PODKKBHB@IsPlotBlockaded?$AA@
CONST	SEGMENT
??_C@_0BA@PODKKBHB@IsPlotBlockaded?$AA@ DB 'IsPlotBlockaded', 00H ; `string'
CONST	ENDS
;	COMDAT ??_C@_07BKPKDGDP@CanWork?$AA@
CONST	SEGMENT
??_C@_07BKPKDGDP@CanWork?$AA@ DB 'CanWork', 00H		; `string'
CONST	ENDS
;	COMDAT ??_C@_0BB@EPAKKPKO@GetCityIndexPlot?$AA@
CONST	SEGMENT
??_C@_0BB@EPAKKPKO@GetCityIndexPlot?$AA@ DB 'GetCityIndexPlot', 00H ; `string'
CONST	ENDS
;	COMDAT ??_C@_0BB@JDCFJGPM@GetCityPlotIndex?$AA@
CONST	SEGMENT
??_C@_0BB@JDCFJGPM@GetCityPlotIndex?$AA@ DB 'GetCityPlotIndex', 00H ; `string'
CONST	ENDS
;	COMDAT ??_C@_0BB@JGGOEKHG@ChooseProduction?$AA@
CONST	SEGMENT
??_C@_0BB@JGGOEKHG@ChooseProduction?$AA@ DB 'ChooseProduction', 00H ; `string'
CONST	ENDS
;	COMDAT ??_C@_06LFMCFBGM@DoTask?$AA@
CONST	SEGMENT
??_C@_06LFMCFBGM@DoTask?$AA@ DB 'DoTask', 00H		; `string'
CONST	ENDS
;	COMDAT ??_C@_0BD@NCKCFLCG@CreateGreatAdmiral?$AA@
CONST	SEGMENT
??_C@_0BD@NCKCFLCG@CreateGreatAdmiral?$AA@ DB 'CreateGreatAdmiral', 00H ; `string'
CONST	ENDS
;	COMDAT ??_C@_0BD@PBNOMGLK@CreateGreatGeneral?$AA@
CONST	SEGMENT
??_C@_0BD@PBNOMGLK@CreateGreatGeneral?$AA@ DB 'CreateGreatGeneral', 00H ; `string'
CONST	ENDS
;	COMDAT ??_C@_04NIFFMPNM@Kill?$AA@
CONST	SEGMENT
??_C@_04NIFFMPNM@Kill?$AA@ DB 'Kill', 00H		; `string'
CONST	ENDS
;	COMDAT ??_C@_06OAPDBHPB@IsNone?$AA@
CONST	SEGMENT
??_C@_06OAPDBHPB@IsNone?$AA@ DB 'IsNone', 00H		; `string'
; Function compile flags: /Odtp
CONST	ENDS
;	COMDAT ?PushMethods@CvLuaCity@@SAXPAUlua_State@@H@Z
_TEXT	SEGMENT
_L$ = 8							; size = 4
_t$ = 12						; size = 4
?PushMethods@CvLuaCity@@SAXPAUlua_State@@H@Z PROC	; CvLuaCity::PushMethods, COMDAT

; 26   : {

	push	ebp
	mov	ebp, esp

; 27   : 	Method(IsNone);

	push	0
	push	OFFSET ?lIsNone@CvLuaCity@@KAHPAUlua_State@@@Z ; CvLuaCity::lIsNone
	mov	eax, DWORD PTR _L$[ebp]
	push	eax
	call	_lua_pushcclosure
	add	esp, 12					; 0000000cH
	push	OFFSET ??_C@_06OAPDBHPB@IsNone?$AA@
	mov	ecx, DWORD PTR _t$[ebp]
	push	ecx
	mov	edx, DWORD PTR _L$[ebp]
	push	edx
	call	_lua_setfield
	add	esp, 12					; 0000000cH

; 28   : 	Method(Kill);

	push	0
	push	OFFSET ?lKill@CvLuaCity@@KAHPAUlua_State@@@Z ; CvLuaCity::lKill
	mov	eax, DWORD PTR _L$[ebp]
	push	eax
	call	_lua_pushcclosure
	add	esp, 12					; 0000000cH
	push	OFFSET ??_C@_04NIFFMPNM@Kill?$AA@
	mov	ecx, DWORD PTR _t$[ebp]
	push	ecx
	mov	edx, DWORD PTR _L$[ebp]
	push	edx
	call	_lua_setfield
	add	esp, 12					; 0000000cH

; 29   : 
; 30   : 	Method(CreateGreatGeneral);

	push	0
	push	OFFSET ?lCreateGreatGeneral@CvLuaCity@@KAHPAUlua_State@@@Z ; CvLuaCity::lCreateGreatGeneral
	mov	eax, DWORD PTR _L$[ebp]
	push	eax
	call	_lua_pushcclosure
	add	esp, 12					; 0000000cH
	push	OFFSET ??_C@_0BD@PBNOMGLK@CreateGreatGeneral?$AA@
	mov	ecx, DWORD PTR _t$[ebp]
	push	ecx
	mov	edx, DWORD PTR _L$[ebp]
	push	edx
	call	_lua_setfield
	add	esp, 12					; 0000000cH

; 31   : 	Method(CreateGreatAdmiral);

	push	0
	push	OFFSET ?lCreateGreatAdmiral@CvLuaCity@@KAHPAUlua_State@@@Z ; CvLuaCity::lCreateGreatAdmiral
	mov	eax, DWORD PTR _L$[ebp]
	push	eax
	call	_lua_pushcclosure
	add	esp, 12					; 0000000cH
	push	OFFSET ??_C@_0BD@NCKCFLCG@CreateGreatAdmiral?$AA@
	mov	ecx, DWORD PTR _t$[ebp]
	push	ecx
	mov	edx, DWORD PTR _L$[ebp]
	push	edx
	call	_lua_setfield
	add	esp, 12					; 0000000cH

; 32   : 
; 33   : 	Method(DoTask);

	push	0
	push	OFFSET ?lDoTask@CvLuaCity@@KAHPAUlua_State@@@Z ; CvLuaCity::lDoTask
	mov	eax, DWORD PTR _L$[ebp]
	push	eax
	call	_lua_pushcclosure
	add	esp, 12					; 0000000cH
	push	OFFSET ??_C@_06LFMCFBGM@DoTask?$AA@
	mov	ecx, DWORD PTR _t$[ebp]
	push	ecx
	mov	edx, DWORD PTR _L$[ebp]
	push	edx
	call	_lua_setfield
	add	esp, 12					; 0000000cH

; 34   : 	Method(ChooseProduction);

	push	0
	push	OFFSET ?lChooseProduction@CvLuaCity@@KAHPAUlua_State@@@Z ; CvLuaCity::lChooseProduction
	mov	eax, DWORD PTR _L$[ebp]
	push	eax
	call	_lua_pushcclosure
	add	esp, 12					; 0000000cH
	push	OFFSET ??_C@_0BB@JGGOEKHG@ChooseProduction?$AA@
	mov	ecx, DWORD PTR _t$[ebp]
	push	ecx
	mov	edx, DWORD PTR _L$[ebp]
	push	edx
	call	_lua_setfield
	add	esp, 12					; 0000000cH

; 35   : 	Method(GetCityPlotIndex);

	push	0
	push	OFFSET ?lGetCityPlotIndex@CvLuaCity@@KAHPAUlua_State@@@Z ; CvLuaCity::lGetCityPlotIndex
	mov	eax, DWORD PTR _L$[ebp]
	push	eax
	call	_lua_pushcclosure
	add	esp, 12					; 0000000cH
	push	OFFSET ??_C@_0BB@JDCFJGPM@GetCityPlotIndex?$AA@
	mov	ecx, DWORD PTR _t$[ebp]
	push	ecx
	mov	edx, DWORD PTR _L$[ebp]
	push	edx
	call	_lua_setfield
	add	esp, 12					; 0000000cH

; 36   : 	Method(GetCityIndexPlot);

	push	0
	push	OFFSET ?lGetCityIndexPlot@CvLuaCity@@KAHPAUlua_State@@@Z ; CvLuaCity::lGetCityIndexPlot
	mov	eax, DWORD PTR _L$[ebp]
	push	eax
	call	_lua_pushcclosure
	add	esp, 12					; 0000000cH
	push	OFFSET ??_C@_0BB@EPAKKPKO@GetCityIndexPlot?$AA@
	mov	ecx, DWORD PTR _t$[ebp]
	push	ecx
	mov	edx, DWORD PTR _L$[ebp]
	push	edx
	call	_lua_setfield
	add	esp, 12					; 0000000cH

; 37   : 	Method(CanWork);

	push	0
	push	OFFSET ?lCanWork@CvLuaCity@@KAHPAUlua_State@@@Z ; CvLuaCity::lCanWork
	mov	eax, DWORD PTR _L$[ebp]
	push	eax
	call	_lua_pushcclosure
	add	esp, 12					; 0000000cH
	push	OFFSET ??_C@_07BKPKDGDP@CanWork?$AA@
	mov	ecx, DWORD PTR _t$[ebp]
	push	ecx
	mov	edx, DWORD PTR _L$[ebp]
	push	edx
	call	_lua_setfield
	add	esp, 12					; 0000000cH

; 38   : 	Method(IsPlotBlockaded);

	push	0
	push	OFFSET ?lIsPlotBlockaded@CvLuaCity@@KAHPAUlua_State@@@Z ; CvLuaCity::lIsPlotBlockaded
	mov	eax, DWORD PTR _L$[ebp]
	push	eax
	call	_lua_pushcclosure
	add	esp, 12					; 0000000cH
	push	OFFSET ??_C@_0BA@PODKKBHB@IsPlotBlockaded?$AA@
	mov	ecx, DWORD PTR _t$[ebp]
	push	ecx
	mov	edx, DWORD PTR _L$[ebp]
	push	edx
	call	_lua_setfield
	add	esp, 12					; 0000000cH

; 39   : 	Method(ClearWorkingOverride);

	push	0
	push	OFFSET ?lClearWorkingOverride@CvLuaCity@@KAHPAUlua_State@@@Z ; CvLuaCity::lClearWorkingOverride
	mov	eax, DWORD PTR _L$[ebp]
	push	eax
	call	_lua_pushcclosure
	add	esp, 12					; 0000000cH
	push	OFFSET ??_C@_0BF@DHGDDLG@ClearWorkingOverride?$AA@
	mov	ecx, DWORD PTR _t$[ebp]
	push	ecx
	mov	edx, DWORD PTR _L$[ebp]
	push	edx
	call	_lua_setfield
	add	esp, 12					; 0000000cH

; 40   : 	Method(CountNumImprovedPlots);

	push	0
	push	OFFSET ?lCountNumImprovedPlots@CvLuaCity@@KAHPAUlua_State@@@Z ; CvLuaCity::lCountNumImprovedPlots
	mov	eax, DWORD PTR _L$[ebp]
	push	eax
	call	_lua_pushcclosure
	add	esp, 12					; 0000000cH
	push	OFFSET ??_C@_0BG@FBLIMDFF@CountNumImprovedPlots?$AA@
	mov	ecx, DWORD PTR _t$[ebp]
	push	ecx
	mov	edx, DWORD PTR _L$[ebp]
	push	edx
	call	_lua_setfield
	add	esp, 12					; 0000000cH

; 41   : 	Method(CountNumWaterPlots);

	push	0
	push	OFFSET ?lCountNumWaterPlots@CvLuaCity@@KAHPAUlua_State@@@Z ; CvLuaCity::lCountNumWaterPlots
	mov	eax, DWORD PTR _L$[ebp]
	push	eax
	call	_lua_pushcclosure
	add	esp, 12					; 0000000cH
	push	OFFSET ??_C@_0BD@BBABDIP@CountNumWaterPlots?$AA@
	mov	ecx, DWORD PTR _t$[ebp]
	push	ecx
	mov	edx, DWORD PTR _L$[ebp]
	push	edx
	call	_lua_setfield
	add	esp, 12					; 0000000cH

; 42   : 	Method(CountNumRiverPlots);

	push	0
	push	OFFSET ?lCountNumRiverPlots@CvLuaCity@@KAHPAUlua_State@@@Z ; CvLuaCity::lCountNumRiverPlots
	mov	eax, DWORD PTR _L$[ebp]
	push	eax
	call	_lua_pushcclosure
	add	esp, 12					; 0000000cH
	push	OFFSET ??_C@_0BD@ENGGNHLP@CountNumRiverPlots?$AA@
	mov	ecx, DWORD PTR _t$[ebp]
	push	ecx
	mov	edx, DWORD PTR _L$[ebp]
	push	edx
	call	_lua_setfield
	add	esp, 12					; 0000000cH

; 43   : 
; 44   : 	Method(FindPopulationRank);

	push	0
	push	OFFSET ?lFindPopulationRank@CvLuaCity@@KAHPAUlua_State@@@Z ; CvLuaCity::lFindPopulationRank
	mov	eax, DWORD PTR _L$[ebp]
	push	eax
	call	_lua_pushcclosure
	add	esp, 12					; 0000000cH
	push	OFFSET ??_C@_0BD@CLJOHCFG@FindPopulationRank?$AA@
	mov	ecx, DWORD PTR _t$[ebp]
	push	ecx
	mov	edx, DWORD PTR _L$[ebp]
	push	edx
	call	_lua_setfield
	add	esp, 12					; 0000000cH

; 45   : 	Method(FindBaseYieldRateRank);

	push	0
	push	OFFSET ?lFindBaseYieldRateRank@CvLuaCity@@KAHPAUlua_State@@@Z ; CvLuaCity::lFindBaseYieldRateRank
	mov	eax, DWORD PTR _L$[ebp]
	push	eax
	call	_lua_pushcclosure
	add	esp, 12					; 0000000cH
	push	OFFSET ??_C@_0BG@HJIHCGBJ@FindBaseYieldRateRank?$AA@
	mov	ecx, DWORD PTR _t$[ebp]
	push	ecx
	mov	edx, DWORD PTR _L$[ebp]
	push	edx
	call	_lua_setfield
	add	esp, 12					; 0000000cH

; 46   : 	Method(FindYieldRateRank);

	push	0
	push	OFFSET ?lFindYieldRateRank@CvLuaCity@@KAHPAUlua_State@@@Z ; CvLuaCity::lFindYieldRateRank
	mov	eax, DWORD PTR _L$[ebp]
	push	eax
	call	_lua_pushcclosure
	add	esp, 12					; 0000000cH
	push	OFFSET ??_C@_0BC@NIDNNACB@FindYieldRateRank?$AA@
	mov	ecx, DWORD PTR _t$[ebp]
	push	ecx
	mov	edx, DWORD PTR _L$[ebp]
	push	edx
	call	_lua_setfield
	add	esp, 12					; 0000000cH

; 47   : 
; 48   : 	Method(AllUpgradesAvailable);

	push	0
	push	OFFSET ?lAllUpgradesAvailable@CvLuaCity@@KAHPAUlua_State@@@Z ; CvLuaCity::lAllUpgradesAvailable
	mov	eax, DWORD PTR _L$[ebp]
	push	eax
	call	_lua_pushcclosure
	add	esp, 12					; 0000000cH
	push	OFFSET ??_C@_0BF@DHLOKDMI@AllUpgradesAvailable?$AA@
	mov	ecx, DWORD PTR _t$[ebp]
	push	ecx
	mov	edx, DWORD PTR _L$[ebp]
	push	edx
	call	_lua_setfield
	add	esp, 12					; 0000000cH

; 49   : 	Method(IsWorldWondersMaxed);

	push	0
	push	OFFSET ?lIsWorldWondersMaxed@CvLuaCity@@KAHPAUlua_State@@@Z ; CvLuaCity::lIsWorldWondersMaxed
	mov	eax, DWORD PTR _L$[ebp]
	push	eax
	call	_lua_pushcclosure
	add	esp, 12					; 0000000cH
	push	OFFSET ??_C@_0BE@MLOPBNAH@IsWorldWondersMaxed?$AA@
	mov	ecx, DWORD PTR _t$[ebp]
	push	ecx
	mov	edx, DWORD PTR _L$[ebp]
	push	edx
	call	_lua_setfield
	add	esp, 12					; 0000000cH

; 50   : 	Method(IsTeamWondersMaxed);

	push	0
	push	OFFSET ?lIsTeamWondersMaxed@CvLuaCity@@KAHPAUlua_State@@@Z ; CvLuaCity::lIsTeamWondersMaxed
	mov	eax, DWORD PTR _L$[ebp]
	push	eax
	call	_lua_pushcclosure
	add	esp, 12					; 0000000cH
	push	OFFSET ??_C@_0BD@ILFMPGB@IsTeamWondersMaxed?$AA@
	mov	ecx, DWORD PTR _t$[ebp]
	push	ecx
	mov	edx, DWORD PTR _L$[ebp]
	push	edx
	call	_lua_setfield
	add	esp, 12					; 0000000cH

; 51   : 	Method(IsNationalWondersMaxed);

	push	0
	push	OFFSET ?lIsNationalWondersMaxed@CvLuaCity@@KAHPAUlua_State@@@Z ; CvLuaCity::lIsNationalWondersMaxed
	mov	eax, DWORD PTR _L$[ebp]
	push	eax
	call	_lua_pushcclosure
	add	esp, 12					; 0000000cH
	push	OFFSET ??_C@_0BH@PEGJHPHH@IsNationalWondersMaxed?$AA@
	mov	ecx, DWORD PTR _t$[ebp]
	push	ecx
	mov	edx, DWORD PTR _L$[ebp]
	push	edx
	call	_lua_setfield
	add	esp, 12					; 0000000cH

; 52   : 	Method(IsBuildingsMaxed);

	push	0
	push	OFFSET ?lIsBuildingsMaxed@CvLuaCity@@KAHPAUlua_State@@@Z ; CvLuaCity::lIsBuildingsMaxed
	mov	eax, DWORD PTR _L$[ebp]
	push	eax
	call	_lua_pushcclosure
	add	esp, 12					; 0000000cH
	push	OFFSET ??_C@_0BB@PMKDJFAN@IsBuildingsMaxed?$AA@
	mov	ecx, DWORD PTR _t$[ebp]
	push	ecx
	mov	edx, DWORD PTR _L$[ebp]
	push	edx
	call	_lua_setfield
	add	esp, 12					; 0000000cH

; 53   : 
; 54   : 	Method(CanTrainTooltip);

	push	0
	push	OFFSET ?lCanTrainTooltip@CvLuaCity@@KAHPAUlua_State@@@Z ; CvLuaCity::lCanTrainTooltip
	mov	eax, DWORD PTR _L$[ebp]
	push	eax
	call	_lua_pushcclosure
	add	esp, 12					; 0000000cH
	push	OFFSET ??_C@_0BA@EKMJEJJ@CanTrainTooltip?$AA@
	mov	ecx, DWORD PTR _t$[ebp]
	push	ecx
	mov	edx, DWORD PTR _L$[ebp]
	push	edx
	call	_lua_setfield
	add	esp, 12					; 0000000cH

; 55   : 	Method(CanTrain);

	push	0
	push	OFFSET ?lCanTrain@CvLuaCity@@KAHPAUlua_State@@@Z ; CvLuaCity::lCanTrain
	mov	eax, DWORD PTR _L$[ebp]
	push	eax
	call	_lua_pushcclosure
	add	esp, 12					; 0000000cH
	push	OFFSET ??_C@_08BCMOJMKA@CanTrain?$AA@
	mov	ecx, DWORD PTR _t$[ebp]
	push	ecx
	mov	edx, DWORD PTR _L$[ebp]
	push	edx
	call	_lua_setfield
	add	esp, 12					; 0000000cH

; 56   : 	Method(CanConstructTooltip);

	push	0
	push	OFFSET ?lCanConstructTooltip@CvLuaCity@@KAHPAUlua_State@@@Z ; CvLuaCity::lCanConstructTooltip
	mov	eax, DWORD PTR _L$[ebp]
	push	eax
	call	_lua_pushcclosure
	add	esp, 12					; 0000000cH
	push	OFFSET ??_C@_0BE@IHIHNENF@CanConstructTooltip?$AA@
	mov	ecx, DWORD PTR _t$[ebp]
	push	ecx
	mov	edx, DWORD PTR _L$[ebp]
	push	edx
	call	_lua_setfield
	add	esp, 12					; 0000000cH

; 57   : 	Method(CanConstruct);

	push	0
	push	OFFSET ?lCanConstruct@CvLuaCity@@KAHPAUlua_State@@@Z ; CvLuaCity::lCanConstruct
	mov	eax, DWORD PTR _L$[ebp]
	push	eax
	call	_lua_pushcclosure
	add	esp, 12					; 0000000cH
	push	OFFSET ??_C@_0N@OBKNDGPF@CanConstruct?$AA@
	mov	ecx, DWORD PTR _t$[ebp]
	push	ecx
	mov	edx, DWORD PTR _L$[ebp]
	push	edx
	call	_lua_setfield
	add	esp, 12					; 0000000cH

; 58   : 	Method(CanCreate);

	push	0
	push	OFFSET ?lCanCreate@CvLuaCity@@KAHPAUlua_State@@@Z ; CvLuaCity::lCanCreate
	mov	eax, DWORD PTR _L$[ebp]
	push	eax
	call	_lua_pushcclosure
	add	esp, 12					; 0000000cH
	push	OFFSET ??_C@_09ENLCPIFP@CanCreate?$AA@
	mov	ecx, DWORD PTR _t$[ebp]
	push	ecx
	mov	edx, DWORD PTR _L$[ebp]
	push	edx
	call	_lua_setfield
	add	esp, 12					; 0000000cH

; 59   : 	Method(CanPrepare);

	push	0
	push	OFFSET ?lCanPrepare@CvLuaCity@@KAHPAUlua_State@@@Z ; CvLuaCity::lCanPrepare
	mov	eax, DWORD PTR _L$[ebp]
	push	eax
	call	_lua_pushcclosure
	add	esp, 12					; 0000000cH
	push	OFFSET ??_C@_0L@DCAJPLNN@CanPrepare?$AA@
	mov	ecx, DWORD PTR _t$[ebp]
	push	ecx
	mov	edx, DWORD PTR _L$[ebp]
	push	edx
	call	_lua_setfield
	add	esp, 12					; 0000000cH

; 60   : 	Method(CanMaintain);

	push	0
	push	OFFSET ?lCanMaintain@CvLuaCity@@KAHPAUlua_State@@@Z ; CvLuaCity::lCanMaintain
	mov	eax, DWORD PTR _L$[ebp]
	push	eax
	call	_lua_pushcclosure
	add	esp, 12					; 0000000cH
	push	OFFSET ??_C@_0M@LBFPGCCN@CanMaintain?$AA@
	mov	ecx, DWORD PTR _t$[ebp]
	push	ecx
	mov	edx, DWORD PTR _L$[ebp]
	push	edx
	call	_lua_setfield
	add	esp, 12					; 0000000cH

; 61   : 
; 62   : 	Method(GetPurchaseUnitTooltip);

	push	0
	push	OFFSET ?lGetPurchaseUnitTooltip@CvLuaCity@@KAHPAUlua_State@@@Z ; CvLuaCity::lGetPurchaseUnitTooltip
	mov	eax, DWORD PTR _L$[ebp]
	push	eax
	call	_lua_pushcclosure
	add	esp, 12					; 0000000cH
	push	OFFSET ??_C@_0BH@CFONLAFB@GetPurchaseUnitTooltip?$AA@
	mov	ecx, DWORD PTR _t$[ebp]
	push	ecx
	mov	edx, DWORD PTR _L$[ebp]
	push	edx
	call	_lua_setfield
	add	esp, 12					; 0000000cH

; 63   : 	Method(GetFaithPurchaseUnitTooltip);

	push	0
	push	OFFSET ?lGetFaithPurchaseUnitTooltip@CvLuaCity@@KAHPAUlua_State@@@Z ; CvLuaCity::lGetFaithPurchaseUnitTooltip
	mov	eax, DWORD PTR _L$[ebp]
	push	eax
	call	_lua_pushcclosure
	add	esp, 12					; 0000000cH
	push	OFFSET ??_C@_0BM@MAHKFKLD@GetFaithPurchaseUnitTooltip?$AA@
	mov	ecx, DWORD PTR _t$[ebp]
	push	ecx
	mov	edx, DWORD PTR _L$[ebp]
	push	edx
	call	_lua_setfield
	add	esp, 12					; 0000000cH

; 64   : 	Method(GetPurchaseBuildingTooltip);

	push	0
	push	OFFSET ?lGetPurchaseBuildingTooltip@CvLuaCity@@KAHPAUlua_State@@@Z ; CvLuaCity::lGetPurchaseBuildingTooltip
	mov	eax, DWORD PTR _L$[ebp]
	push	eax
	call	_lua_pushcclosure
	add	esp, 12					; 0000000cH
	push	OFFSET ??_C@_0BL@FAPMIPIE@GetPurchaseBuildingTooltip?$AA@
	mov	ecx, DWORD PTR _t$[ebp]
	push	ecx
	mov	edx, DWORD PTR _L$[ebp]
	push	edx
	call	_lua_setfield
	add	esp, 12					; 0000000cH

; 65   : 	Method(GetFaithPurchaseBuildingTooltip);

	push	0
	push	OFFSET ?lGetFaithPurchaseBuildingTooltip@CvLuaCity@@KAHPAUlua_State@@@Z ; CvLuaCity::lGetFaithPurchaseBuildingTooltip
	mov	eax, DWORD PTR _L$[ebp]
	push	eax
	call	_lua_pushcclosure
	add	esp, 12					; 0000000cH
	push	OFFSET ??_C@_0CA@GGJPFJGL@GetFaithPurchaseBuildingTooltip?$AA@
	mov	ecx, DWORD PTR _t$[ebp]
	push	ecx
	mov	edx, DWORD PTR _L$[ebp]
	push	edx
	call	_lua_setfield
	add	esp, 12					; 0000000cH

; 66   : 
; 67   : 	Method(CanJoin);

	push	0
	push	OFFSET ?lCanJoin@CvLuaCity@@KAHPAUlua_State@@@Z ; CvLuaCity::lCanJoin
	mov	eax, DWORD PTR _L$[ebp]
	push	eax
	call	_lua_pushcclosure
	add	esp, 12					; 0000000cH
	push	OFFSET ??_C@_07OPIONNNI@CanJoin?$AA@
	mov	ecx, DWORD PTR _t$[ebp]
	push	ecx
	mov	edx, DWORD PTR _L$[ebp]
	push	edx
	call	_lua_setfield
	add	esp, 12					; 0000000cH

; 68   : 	Method(IsBuildingLocalResourceValid);

	push	0
	push	OFFSET ?lIsBuildingLocalResourceValid@CvLuaCity@@KAHPAUlua_State@@@Z ; CvLuaCity::lIsBuildingLocalResourceValid
	mov	eax, DWORD PTR _L$[ebp]
	push	eax
	call	_lua_pushcclosure
	add	esp, 12					; 0000000cH
	push	OFFSET ??_C@_0BN@GDJGPHKP@IsBuildingLocalResourceValid?$AA@
	mov	ecx, DWORD PTR _t$[ebp]
	push	ecx
	mov	edx, DWORD PTR _L$[ebp]
	push	edx
	call	_lua_setfield
	add	esp, 12					; 0000000cH

; 69   : 
; 70   : 	Method(GetResourceDemanded);

	push	0
	push	OFFSET ?lGetResourceDemanded@CvLuaCity@@KAHPAUlua_State@@@Z ; CvLuaCity::lGetResourceDemanded
	mov	eax, DWORD PTR _L$[ebp]
	push	eax
	call	_lua_pushcclosure
	add	esp, 12					; 0000000cH
	push	OFFSET ??_C@_0BE@NNCOGNAF@GetResourceDemanded?$AA@
	mov	ecx, DWORD PTR _t$[ebp]
	push	ecx
	mov	edx, DWORD PTR _L$[ebp]
	push	edx
	call	_lua_setfield
	add	esp, 12					; 0000000cH

; 71   : 	Method(SetResourceDemanded);

	push	0
	push	OFFSET ?lSetResourceDemanded@CvLuaCity@@KAHPAUlua_State@@@Z ; CvLuaCity::lSetResourceDemanded
	mov	eax, DWORD PTR _L$[ebp]
	push	eax
	call	_lua_pushcclosure
	add	esp, 12					; 0000000cH
	push	OFFSET ??_C@_0BE@HDAFCNHJ@SetResourceDemanded?$AA@
	mov	ecx, DWORD PTR _t$[ebp]
	push	ecx
	mov	edx, DWORD PTR _L$[ebp]
	push	edx
	call	_lua_setfield
	add	esp, 12					; 0000000cH

; 72   : 	Method(DoPickResourceDemanded);

	push	0
	push	OFFSET ?lDoPickResourceDemanded@CvLuaCity@@KAHPAUlua_State@@@Z ; CvLuaCity::lDoPickResourceDemanded
	mov	eax, DWORD PTR _L$[ebp]
	push	eax
	call	_lua_pushcclosure
	add	esp, 12					; 0000000cH
	push	OFFSET ??_C@_0BH@MCIHHEDJ@DoPickResourceDemanded?$AA@
	mov	ecx, DWORD PTR _t$[ebp]
	push	ecx
	mov	edx, DWORD PTR _L$[ebp]
	push	edx
	call	_lua_setfield
	add	esp, 12					; 0000000cH

; 73   : 
; 74   : 	Method(GetFoodTurnsLeft);

	push	0
	push	OFFSET ?lGetFoodTurnsLeft@CvLuaCity@@KAHPAUlua_State@@@Z ; CvLuaCity::lGetFoodTurnsLeft
	mov	eax, DWORD PTR _L$[ebp]
	push	eax
	call	_lua_pushcclosure
	add	esp, 12					; 0000000cH
	push	OFFSET ??_C@_0BB@IKLMJKMH@GetFoodTurnsLeft?$AA@
	mov	ecx, DWORD PTR _t$[ebp]
	push	ecx
	mov	edx, DWORD PTR _L$[ebp]
	push	edx
	call	_lua_setfield
	add	esp, 12					; 0000000cH

; 75   : 	Method(IsProduction);

	push	0
	push	OFFSET ?lIsProduction@CvLuaCity@@KAHPAUlua_State@@@Z ; CvLuaCity::lIsProduction
	mov	eax, DWORD PTR _L$[ebp]
	push	eax
	call	_lua_pushcclosure
	add	esp, 12					; 0000000cH
	push	OFFSET ??_C@_0N@GIHKPEF@IsProduction?$AA@
	mov	ecx, DWORD PTR _t$[ebp]
	push	ecx
	mov	edx, DWORD PTR _L$[ebp]
	push	edx
	call	_lua_setfield
	add	esp, 12					; 0000000cH

; 76   : 	Method(IsProductionLimited);

	push	0
	push	OFFSET ?lIsProductionLimited@CvLuaCity@@KAHPAUlua_State@@@Z ; CvLuaCity::lIsProductionLimited
	mov	eax, DWORD PTR _L$[ebp]
	push	eax
	call	_lua_pushcclosure
	add	esp, 12					; 0000000cH
	push	OFFSET ??_C@_0BE@DDFAINDE@IsProductionLimited?$AA@
	mov	ecx, DWORD PTR _t$[ebp]
	push	ecx
	mov	edx, DWORD PTR _L$[ebp]
	push	edx
	call	_lua_setfield
	add	esp, 12					; 0000000cH

; 77   : 	Method(IsProductionUnit);

	push	0
	push	OFFSET ?lIsProductionUnit@CvLuaCity@@KAHPAUlua_State@@@Z ; CvLuaCity::lIsProductionUnit
	mov	eax, DWORD PTR _L$[ebp]
	push	eax
	call	_lua_pushcclosure
	add	esp, 12					; 0000000cH
	push	OFFSET ??_C@_0BB@MEBAJFDN@IsProductionUnit?$AA@
	mov	ecx, DWORD PTR _t$[ebp]
	push	ecx
	mov	edx, DWORD PTR _L$[ebp]
	push	edx
	call	_lua_setfield
	add	esp, 12					; 0000000cH

; 78   : 	Method(IsProductionBuilding);

	push	0
	push	OFFSET ?lIsProductionBuilding@CvLuaCity@@KAHPAUlua_State@@@Z ; CvLuaCity::lIsProductionBuilding
	mov	eax, DWORD PTR _L$[ebp]
	push	eax
	call	_lua_pushcclosure
	add	esp, 12					; 0000000cH
	push	OFFSET ??_C@_0BF@GLMOLOOC@IsProductionBuilding?$AA@
	mov	ecx, DWORD PTR _t$[ebp]
	push	ecx
	mov	edx, DWORD PTR _L$[ebp]
	push	edx
	call	_lua_setfield
	add	esp, 12					; 0000000cH

; 79   : 	Method(IsProductionProject);

	push	0
	push	OFFSET ?lIsProductionProject@CvLuaCity@@KAHPAUlua_State@@@Z ; CvLuaCity::lIsProductionProject
	mov	eax, DWORD PTR _L$[ebp]
	push	eax
	call	_lua_pushcclosure
	add	esp, 12					; 0000000cH
	push	OFFSET ??_C@_0BE@NBBPOEKG@IsProductionProject?$AA@
	mov	ecx, DWORD PTR _t$[ebp]
	push	ecx
	mov	edx, DWORD PTR _L$[ebp]
	push	edx
	call	_lua_setfield
	add	esp, 12					; 0000000cH

; 80   : 	Method(IsProductionSpecialist);

	push	0
	push	OFFSET ?lIsProductionSpecialist@CvLuaCity@@KAHPAUlua_State@@@Z ; CvLuaCity::lIsProductionSpecialist
	mov	eax, DWORD PTR _L$[ebp]
	push	eax
	call	_lua_pushcclosure
	add	esp, 12					; 0000000cH
	push	OFFSET ??_C@_0BH@PMKLPINJ@IsProductionSpecialist?$AA@
	mov	ecx, DWORD PTR _t$[ebp]
	push	ecx
	mov	edx, DWORD PTR _L$[ebp]
	push	edx
	call	_lua_setfield
	add	esp, 12					; 0000000cH

; 81   : 	Method(IsProductionProcess);

	push	0
	push	OFFSET ?lIsProductionProcess@CvLuaCity@@KAHPAUlua_State@@@Z ; CvLuaCity::lIsProductionProcess
	mov	eax, DWORD PTR _L$[ebp]
	push	eax
	call	_lua_pushcclosure
	add	esp, 12					; 0000000cH
	push	OFFSET ??_C@_0BE@IPGILDGA@IsProductionProcess?$AA@
	mov	ecx, DWORD PTR _t$[ebp]
	push	ecx
	mov	edx, DWORD PTR _L$[ebp]
	push	edx
	call	_lua_setfield
	add	esp, 12					; 0000000cH

; 82   : 
; 83   : 	Method(CanContinueProduction);

	push	0
	push	OFFSET ?lCanContinueProduction@CvLuaCity@@KAHPAUlua_State@@@Z ; CvLuaCity::lCanContinueProduction
	mov	eax, DWORD PTR _L$[ebp]
	push	eax
	call	_lua_pushcclosure
	add	esp, 12					; 0000000cH
	push	OFFSET ??_C@_0BG@FDHDEEDP@CanContinueProduction?$AA@
	mov	ecx, DWORD PTR _t$[ebp]
	push	ecx
	mov	edx, DWORD PTR _L$[ebp]
	push	edx
	call	_lua_setfield
	add	esp, 12					; 0000000cH

; 84   : 	Method(GetProductionExperience);

	push	0
	push	OFFSET ?lGetProductionExperience@CvLuaCity@@KAHPAUlua_State@@@Z ; CvLuaCity::lGetProductionExperience
	mov	eax, DWORD PTR _L$[ebp]
	push	eax
	call	_lua_pushcclosure
	add	esp, 12					; 0000000cH
	push	OFFSET ??_C@_0BI@HOMJNLCG@GetProductionExperience?$AA@
	mov	ecx, DWORD PTR _t$[ebp]
	push	ecx
	mov	edx, DWORD PTR _L$[ebp]
	push	edx
	call	_lua_setfield
	add	esp, 12					; 0000000cH

; 85   : 	Method(AddProductionExperience);

	push	0
	push	OFFSET ?lAddProductionExperience@CvLuaCity@@KAHPAUlua_State@@@Z ; CvLuaCity::lAddProductionExperience
	mov	eax, DWORD PTR _L$[ebp]
	push	eax
	call	_lua_pushcclosure
	add	esp, 12					; 0000000cH
	push	OFFSET ??_C@_0BI@PMHACJOD@AddProductionExperience?$AA@
	mov	ecx, DWORD PTR _t$[ebp]
	push	ecx
	mov	edx, DWORD PTR _L$[ebp]
	push	edx
	call	_lua_setfield
	add	esp, 12					; 0000000cH

; 86   : 
; 87   : 	Method(GetProductionUnit);

	push	0
	push	OFFSET ?lGetProductionUnit@CvLuaCity@@KAHPAUlua_State@@@Z ; CvLuaCity::lGetProductionUnit
	mov	eax, DWORD PTR _L$[ebp]
	push	eax
	call	_lua_pushcclosure
	add	esp, 12					; 0000000cH
	push	OFFSET ??_C@_0BC@HHAFHDBH@GetProductionUnit?$AA@
	mov	ecx, DWORD PTR _t$[ebp]
	push	ecx
	mov	edx, DWORD PTR _L$[ebp]
	push	edx
	call	_lua_setfield
	add	esp, 12					; 0000000cH

; 88   : 	Method(GetProductionUnitAI);

	push	0
	push	OFFSET ?lGetProductionUnitAI@CvLuaCity@@KAHPAUlua_State@@@Z ; CvLuaCity::lGetProductionUnitAI
	mov	eax, DWORD PTR _L$[ebp]
	push	eax
	call	_lua_pushcclosure
	add	esp, 12					; 0000000cH
	push	OFFSET ??_C@_0BE@JMGMMAKO@GetProductionUnitAI?$AA@
	mov	ecx, DWORD PTR _t$[ebp]
	push	ecx
	mov	edx, DWORD PTR _L$[ebp]
	push	edx
	call	_lua_setfield
	add	esp, 12					; 0000000cH

; 89   : 	Method(GetProductionBuilding);

	push	0
	push	OFFSET ?lGetProductionBuilding@CvLuaCity@@KAHPAUlua_State@@@Z ; CvLuaCity::lGetProductionBuilding
	mov	eax, DWORD PTR _L$[ebp]
	push	eax
	call	_lua_pushcclosure
	add	esp, 12					; 0000000cH
	push	OFFSET ??_C@_0BG@GMPDFJII@GetProductionBuilding?$AA@
	mov	ecx, DWORD PTR _t$[ebp]
	push	ecx
	mov	edx, DWORD PTR _L$[ebp]
	push	edx
	call	_lua_setfield
	add	esp, 12					; 0000000cH

; 90   : 	Method(GetProductionProject);

	push	0
	push	OFFSET ?lGetProductionProject@CvLuaCity@@KAHPAUlua_State@@@Z ; CvLuaCity::lGetProductionProject
	mov	eax, DWORD PTR _L$[ebp]
	push	eax
	call	_lua_pushcclosure
	add	esp, 12					; 0000000cH
	push	OFFSET ??_C@_0BF@IBDMJHKC@GetProductionProject?$AA@
	mov	ecx, DWORD PTR _t$[ebp]
	push	ecx
	mov	edx, DWORD PTR _L$[ebp]
	push	edx
	call	_lua_setfield
	add	esp, 12					; 0000000cH

; 91   : 	Method(GetProductionSpecialist);

	push	0
	push	OFFSET ?lGetProductionSpecialist@CvLuaCity@@KAHPAUlua_State@@@Z ; CvLuaCity::lGetProductionSpecialist
	mov	eax, DWORD PTR _L$[ebp]
	push	eax
	call	_lua_pushcclosure
	add	esp, 12					; 0000000cH
	push	OFFSET ??_C@_0BI@FNNHALBC@GetProductionSpecialist?$AA@
	mov	ecx, DWORD PTR _t$[ebp]
	push	ecx
	mov	edx, DWORD PTR _L$[ebp]
	push	edx
	call	_lua_setfield
	add	esp, 12					; 0000000cH

; 92   : 	Method(GetProductionProcess);

	push	0
	push	OFFSET ?lGetProductionProcess@CvLuaCity@@KAHPAUlua_State@@@Z ; CvLuaCity::lGetProductionProcess
	mov	eax, DWORD PTR _L$[ebp]
	push	eax
	call	_lua_pushcclosure
	add	esp, 12					; 0000000cH
	push	OFFSET ??_C@_0BF@NPELMAGE@GetProductionProcess?$AA@
	mov	ecx, DWORD PTR _t$[ebp]
	push	ecx
	mov	edx, DWORD PTR _L$[ebp]
	push	edx
	call	_lua_setfield
	add	esp, 12					; 0000000cH

; 93   : 	//Method(GetProductionName);
; 94   : 	Method(GetProductionNameKey);

	push	0
	push	OFFSET ?lGetProductionNameKey@CvLuaCity@@KAHPAUlua_State@@@Z ; CvLuaCity::lGetProductionNameKey
	mov	eax, DWORD PTR _L$[ebp]
	push	eax
	call	_lua_pushcclosure
	add	esp, 12					; 0000000cH
	push	OFFSET ??_C@_0BF@IAGNNOMA@GetProductionNameKey?$AA@
	mov	ecx, DWORD PTR _t$[ebp]
	push	ecx
	mov	edx, DWORD PTR _L$[ebp]
	push	edx
	call	_lua_setfield
	add	esp, 12					; 0000000cH

; 95   : 	Method(GetGeneralProductionTurnsLeft);

	push	0
	push	OFFSET ?lGetGeneralProductionTurnsLeft@CvLuaCity@@KAHPAUlua_State@@@Z ; CvLuaCity::lGetGeneralProductionTurnsLeft
	mov	eax, DWORD PTR _L$[ebp]
	push	eax
	call	_lua_pushcclosure
	add	esp, 12					; 0000000cH
	push	OFFSET ??_C@_0BO@NIKBHNEM@GetGeneralProductionTurnsLeft?$AA@
	mov	ecx, DWORD PTR _t$[ebp]
	push	ecx
	mov	edx, DWORD PTR _L$[ebp]
	push	edx
	call	_lua_setfield
	add	esp, 12					; 0000000cH

; 96   : 	Method(IsFoodProduction);

	push	0
	push	OFFSET ?lIsFoodProduction@CvLuaCity@@KAHPAUlua_State@@@Z ; CvLuaCity::lIsFoodProduction
	mov	eax, DWORD PTR _L$[ebp]
	push	eax
	call	_lua_pushcclosure
	add	esp, 12					; 0000000cH
	push	OFFSET ??_C@_0BB@FDBBPKLD@IsFoodProduction?$AA@
	mov	ecx, DWORD PTR _t$[ebp]
	push	ecx
	mov	edx, DWORD PTR _L$[ebp]
	push	edx
	call	_lua_setfield
	add	esp, 12					; 0000000cH

; 97   : 	Method(GetFirstUnitOrder);

	push	0
	push	OFFSET ?lGetFirstUnitOrder@CvLuaCity@@KAHPAUlua_State@@@Z ; CvLuaCity::lGetFirstUnitOrder
	mov	eax, DWORD PTR _L$[ebp]
	push	eax
	call	_lua_pushcclosure
	add	esp, 12					; 0000000cH
	push	OFFSET ??_C@_0BC@MEAEELJJ@GetFirstUnitOrder?$AA@
	mov	ecx, DWORD PTR _t$[ebp]
	push	ecx
	mov	edx, DWORD PTR _L$[ebp]
	push	edx
	call	_lua_setfield
	add	esp, 12					; 0000000cH

; 98   : 	Method(GetFirstProjectOrder);

	push	0
	push	OFFSET ?lGetFirstProjectOrder@CvLuaCity@@KAHPAUlua_State@@@Z ; CvLuaCity::lGetFirstProjectOrder
	mov	eax, DWORD PTR _L$[ebp]
	push	eax
	call	_lua_pushcclosure
	add	esp, 12					; 0000000cH
	push	OFFSET ??_C@_0BF@KCLLEIOH@GetFirstProjectOrder?$AA@
	mov	ecx, DWORD PTR _t$[ebp]
	push	ecx
	mov	edx, DWORD PTR _L$[ebp]
	push	edx
	call	_lua_setfield
	add	esp, 12					; 0000000cH

; 99   : 	Method(GetFirstSpecialistOrder);

	push	0
	push	OFFSET ?lGetFirstSpecialistOrder@CvLuaCity@@KAHPAUlua_State@@@Z ; CvLuaCity::lGetFirstSpecialistOrder
	mov	eax, DWORD PTR _L$[ebp]
	push	eax
	call	_lua_pushcclosure
	add	esp, 12					; 0000000cH
	push	OFFSET ??_C@_0BI@GOLELKAA@GetFirstSpecialistOrder?$AA@
	mov	ecx, DWORD PTR _t$[ebp]
	push	ecx
	mov	edx, DWORD PTR _L$[ebp]
	push	edx
	call	_lua_setfield
	add	esp, 12					; 0000000cH

; 100  : 
; 101  : 	Method(GetOrderFromQueue);

	push	0
	push	OFFSET ?lGetOrderFromQueue@CvLuaCity@@KAHPAUlua_State@@@Z ; CvLuaCity::lGetOrderFromQueue
	mov	eax, DWORD PTR _L$[ebp]
	push	eax
	call	_lua_pushcclosure
	add	esp, 12					; 0000000cH
	push	OFFSET ??_C@_0BC@BMCPAEED@GetOrderFromQueue?$AA@
	mov	ecx, DWORD PTR _t$[ebp]
	push	ecx
	mov	edx, DWORD PTR _L$[ebp]
	push	edx
	call	_lua_setfield
	add	esp, 12					; 0000000cH

; 102  : 
; 103  : 	Method(GetNumTrainUnitAI);

	push	0
	push	OFFSET ?lGetNumTrainUnitAI@CvLuaCity@@KAHPAUlua_State@@@Z ; CvLuaCity::lGetNumTrainUnitAI
	mov	eax, DWORD PTR _L$[ebp]
	push	eax
	call	_lua_pushcclosure
	add	esp, 12					; 0000000cH
	push	OFFSET ??_C@_0BC@LOPIPDKF@GetNumTrainUnitAI?$AA@
	mov	ecx, DWORD PTR _t$[ebp]
	push	ecx
	mov	edx, DWORD PTR _L$[ebp]
	push	edx
	call	_lua_setfield
	add	esp, 12					; 0000000cH

; 104  : 	Method(GetFirstBuildingOrder);

	push	0
	push	OFFSET ?lGetFirstBuildingOrder@CvLuaCity@@KAHPAUlua_State@@@Z ; CvLuaCity::lGetFirstBuildingOrder
	mov	eax, DWORD PTR _L$[ebp]
	push	eax
	call	_lua_pushcclosure
	add	esp, 12					; 0000000cH
	push	OFFSET ??_C@_0BG@EDLGFJKE@GetFirstBuildingOrder?$AA@
	mov	ecx, DWORD PTR _t$[ebp]
	push	ecx
	mov	edx, DWORD PTR _L$[ebp]
	push	edx
	call	_lua_setfield
	add	esp, 12					; 0000000cH

; 105  : 	Method(IsUnitFoodProduction);

	push	0
	push	OFFSET ?lIsUnitFoodProduction@CvLuaCity@@KAHPAUlua_State@@@Z ; CvLuaCity::lIsUnitFoodProduction
	mov	eax, DWORD PTR _L$[ebp]
	push	eax
	call	_lua_pushcclosure
	add	esp, 12					; 0000000cH
	push	OFFSET ??_C@_0BF@LICEFFKA@IsUnitFoodProduction?$AA@
	mov	ecx, DWORD PTR _t$[ebp]
	push	ecx
	mov	edx, DWORD PTR _L$[ebp]
	push	edx
	call	_lua_setfield
	add	esp, 12					; 0000000cH

; 106  : 	Method(GetProduction);

	push	0
	push	OFFSET ?lGetProduction@CvLuaCity@@KAHPAUlua_State@@@Z ; CvLuaCity::lGetProduction
	mov	eax, DWORD PTR _L$[ebp]
	push	eax
	call	_lua_pushcclosure
	add	esp, 12					; 0000000cH
	push	OFFSET ??_C@_0O@KBGANGLA@GetProduction?$AA@
	mov	ecx, DWORD PTR _t$[ebp]
	push	ecx
	mov	edx, DWORD PTR _L$[ebp]
	push	edx
	call	_lua_setfield
	add	esp, 12					; 0000000cH

; 107  : 	Method(GetProductionTimes100);

	push	0
	push	OFFSET ?lGetProductionTimes100@CvLuaCity@@KAHPAUlua_State@@@Z ; CvLuaCity::lGetProductionTimes100
	mov	eax, DWORD PTR _L$[ebp]
	push	eax
	call	_lua_pushcclosure
	add	esp, 12					; 0000000cH
	push	OFFSET ??_C@_0BG@ENMJHDK@GetProductionTimes100?$AA@
	mov	ecx, DWORD PTR _t$[ebp]
	push	ecx
	mov	edx, DWORD PTR _L$[ebp]
	push	edx
	call	_lua_setfield
	add	esp, 12					; 0000000cH

; 108  : 	Method(GetProductionNeeded);

	push	0
	push	OFFSET ?lGetProductionNeeded@CvLuaCity@@KAHPAUlua_State@@@Z ; CvLuaCity::lGetProductionNeeded
	mov	eax, DWORD PTR _L$[ebp]
	push	eax
	call	_lua_pushcclosure
	add	esp, 12					; 0000000cH
	push	OFFSET ??_C@_0BE@BJPFPGBE@GetProductionNeeded?$AA@
	mov	ecx, DWORD PTR _t$[ebp]
	push	ecx
	mov	edx, DWORD PTR _L$[ebp]
	push	edx
	call	_lua_setfield
	add	esp, 12					; 0000000cH

; 109  : 	Method(GetUnitProductionNeeded);

	push	0
	push	OFFSET ?lGetUnitProductionNeeded@CvLuaCity@@KAHPAUlua_State@@@Z ; CvLuaCity::lGetUnitProductionNeeded
	mov	eax, DWORD PTR _L$[ebp]
	push	eax
	call	_lua_pushcclosure
	add	esp, 12					; 0000000cH
	push	OFFSET ??_C@_0BI@LJANCJHB@GetUnitProductionNeeded?$AA@
	mov	ecx, DWORD PTR _t$[ebp]
	push	ecx
	mov	edx, DWORD PTR _L$[ebp]
	push	edx
	call	_lua_setfield
	add	esp, 12					; 0000000cH

; 110  : 	Method(GetBuildingProductionNeeded);

	push	0
	push	OFFSET ?lGetBuildingProductionNeeded@CvLuaCity@@KAHPAUlua_State@@@Z ; CvLuaCity::lGetBuildingProductionNeeded
	mov	eax, DWORD PTR _L$[ebp]
	push	eax
	call	_lua_pushcclosure
	add	esp, 12					; 0000000cH
	push	OFFSET ??_C@_0BM@GGLBNBDE@GetBuildingProductionNeeded?$AA@
	mov	ecx, DWORD PTR _t$[ebp]
	push	ecx
	mov	edx, DWORD PTR _L$[ebp]
	push	edx
	call	_lua_setfield
	add	esp, 12					; 0000000cH

; 111  : 	Method(GetProjectProductionNeeded);

	push	0
	push	OFFSET ?lGetProjectProductionNeeded@CvLuaCity@@KAHPAUlua_State@@@Z ; CvLuaCity::lGetProjectProductionNeeded
	mov	eax, DWORD PTR _L$[ebp]
	push	eax
	call	_lua_pushcclosure
	add	esp, 12					; 0000000cH
	push	OFFSET ??_C@_0BL@JBMFKMKF@GetProjectProductionNeeded?$AA@
	mov	ecx, DWORD PTR _t$[ebp]
	push	ecx
	mov	edx, DWORD PTR _L$[ebp]
	push	edx
	call	_lua_setfield
	add	esp, 12					; 0000000cH

; 112  : 	Method(GetProductionTurnsLeft);

	push	0
	push	OFFSET ?lGetProductionTurnsLeft@CvLuaCity@@KAHPAUlua_State@@@Z ; CvLuaCity::lGetProductionTurnsLeft
	mov	eax, DWORD PTR _L$[ebp]
	push	eax
	call	_lua_pushcclosure
	add	esp, 12					; 0000000cH
	push	OFFSET ??_C@_0BH@PFJDPGCD@GetProductionTurnsLeft?$AA@
	mov	ecx, DWORD PTR _t$[ebp]
	push	ecx
	mov	edx, DWORD PTR _L$[ebp]
	push	edx
	call	_lua_setfield
	add	esp, 12					; 0000000cH

; 113  : 	Method(GetUnitProductionTurnsLeft);

	push	0
	push	OFFSET ?lGetUnitProductionTurnsLeft@CvLuaCity@@KAHPAUlua_State@@@Z ; CvLuaCity::lGetUnitProductionTurnsLeft
	mov	eax, DWORD PTR _L$[ebp]
	push	eax
	call	_lua_pushcclosure
	add	esp, 12					; 0000000cH
	push	OFFSET ??_C@_0BL@OEJFMLG@GetUnitProductionTurnsLeft?$AA@
	mov	ecx, DWORD PTR _t$[ebp]
	push	ecx
	mov	edx, DWORD PTR _L$[ebp]
	push	edx
	call	_lua_setfield
	add	esp, 12					; 0000000cH

; 114  : 	Method(GetBuildingProductionTurnsLeft);

	push	0
	push	OFFSET ?lGetBuildingProductionTurnsLeft@CvLuaCity@@KAHPAUlua_State@@@Z ; CvLuaCity::lGetBuildingProductionTurnsLeft
	mov	eax, DWORD PTR _L$[ebp]
	push	eax
	call	_lua_pushcclosure
	add	esp, 12					; 0000000cH
	push	OFFSET ??_C@_0BP@GGKKIHFA@GetBuildingProductionTurnsLeft?$AA@
	mov	ecx, DWORD PTR _t$[ebp]
	push	ecx
	mov	edx, DWORD PTR _L$[ebp]
	push	edx
	call	_lua_setfield
	add	esp, 12					; 0000000cH

; 115  : 	Method(GetProjectProductionTurnsLeft);

	push	0
	push	OFFSET ?lGetProjectProductionTurnsLeft@CvLuaCity@@KAHPAUlua_State@@@Z ; CvLuaCity::lGetProjectProductionTurnsLeft
	mov	eax, DWORD PTR _L$[ebp]
	push	eax
	call	_lua_pushcclosure
	add	esp, 12					; 0000000cH
	push	OFFSET ??_C@_0BO@FHICOHPO@GetProjectProductionTurnsLeft?$AA@
	mov	ecx, DWORD PTR _t$[ebp]
	push	ecx
	mov	edx, DWORD PTR _L$[ebp]
	push	edx
	call	_lua_setfield
	add	esp, 12					; 0000000cH

; 116  : 	Method(GetSpecialistProductionTurnsLeft);

	push	0
	push	OFFSET ?lGetSpecialistProductionTurnsLeft@CvLuaCity@@KAHPAUlua_State@@@Z ; CvLuaCity::lGetSpecialistProductionTurnsLeft
	mov	eax, DWORD PTR _L$[ebp]
	push	eax
	call	_lua_pushcclosure
	add	esp, 12					; 0000000cH
	push	OFFSET ??_C@_0CB@EFOFIEPO@GetSpecialistProductionTurnsLeft@
	mov	ecx, DWORD PTR _t$[ebp]
	push	ecx
	mov	edx, DWORD PTR _L$[ebp]
	push	edx
	call	_lua_setfield
	add	esp, 12					; 0000000cH

; 117  : 
; 118  : 	Method(CreateApolloProgram);

	push	0
	push	OFFSET ?lCreateApolloProgram@CvLuaCity@@KAHPAUlua_State@@@Z ; CvLuaCity::lCreateApolloProgram
	mov	eax, DWORD PTR _L$[ebp]
	push	eax
	call	_lua_pushcclosure
	add	esp, 12					; 0000000cH
	push	OFFSET ??_C@_0BE@GBMHNAJH@CreateApolloProgram?$AA@
	mov	ecx, DWORD PTR _t$[ebp]
	push	ecx
	mov	edx, DWORD PTR _L$[ebp]
	push	edx
	call	_lua_setfield
	add	esp, 12					; 0000000cH

; 119  : 
; 120  : 	Method(IsCanPurchase);

	push	0
	push	OFFSET ?lIsCanPurchase@CvLuaCity@@KAHPAUlua_State@@@Z ; CvLuaCity::lIsCanPurchase
	mov	eax, DWORD PTR _L$[ebp]
	push	eax
	call	_lua_pushcclosure
	add	esp, 12					; 0000000cH
	push	OFFSET ??_C@_0O@NIIMABIN@IsCanPurchase?$AA@
	mov	ecx, DWORD PTR _t$[ebp]
	push	ecx
	mov	edx, DWORD PTR _L$[ebp]
	push	edx
	call	_lua_setfield
	add	esp, 12					; 0000000cH

; 121  : 	Method(GetUnitPurchaseCost);

	push	0
	push	OFFSET ?lGetUnitPurchaseCost@CvLuaCity@@KAHPAUlua_State@@@Z ; CvLuaCity::lGetUnitPurchaseCost
	mov	eax, DWORD PTR _L$[ebp]
	push	eax
	call	_lua_pushcclosure
	add	esp, 12					; 0000000cH
	push	OFFSET ??_C@_0BE@OFOJNOOB@GetUnitPurchaseCost?$AA@
	mov	ecx, DWORD PTR _t$[ebp]
	push	ecx
	mov	edx, DWORD PTR _L$[ebp]
	push	edx
	call	_lua_setfield
	add	esp, 12					; 0000000cH

; 122  : 	Method(GetUnitFaithPurchaseCost);

	push	0
	push	OFFSET ?lGetUnitFaithPurchaseCost@CvLuaCity@@KAHPAUlua_State@@@Z ; CvLuaCity::lGetUnitFaithPurchaseCost
	mov	eax, DWORD PTR _L$[ebp]
	push	eax
	call	_lua_pushcclosure
	add	esp, 12					; 0000000cH
	push	OFFSET ??_C@_0BJ@CKMNAAAH@GetUnitFaithPurchaseCost?$AA@
	mov	ecx, DWORD PTR _t$[ebp]
	push	ecx
	mov	edx, DWORD PTR _L$[ebp]
	push	edx
	call	_lua_setfield
	add	esp, 12					; 0000000cH

; 123  : 	Method(GetBuildingPurchaseCost);

	push	0
	push	OFFSET ?lGetBuildingPurchaseCost@CvLuaCity@@KAHPAUlua_State@@@Z ; CvLuaCity::lGetBuildingPurchaseCost
	mov	eax, DWORD PTR _L$[ebp]
	push	eax
	call	_lua_pushcclosure
	add	esp, 12					; 0000000cH
	push	OFFSET ??_C@_0BI@EOCLNJGF@GetBuildingPurchaseCost?$AA@
	mov	ecx, DWORD PTR _t$[ebp]
	push	ecx
	mov	edx, DWORD PTR _L$[ebp]
	push	edx
	call	_lua_setfield
	add	esp, 12					; 0000000cH

; 124  : 	Method(GetBuildingFaithPurchaseCost);

	push	0
	push	OFFSET ?lGetBuildingFaithPurchaseCost@CvLuaCity@@KAHPAUlua_State@@@Z ; CvLuaCity::lGetBuildingFaithPurchaseCost
	mov	eax, DWORD PTR _L$[ebp]
	push	eax
	call	_lua_pushcclosure
	add	esp, 12					; 0000000cH
	push	OFFSET ??_C@_0BN@CMKEAJOA@GetBuildingFaithPurchaseCost?$AA@
	mov	ecx, DWORD PTR _t$[ebp]
	push	ecx
	mov	edx, DWORD PTR _L$[ebp]
	push	edx
	call	_lua_setfield
	add	esp, 12					; 0000000cH

; 125  : 	Method(GetProjectPurchaseCost);

	push	0
	push	OFFSET ?lGetProjectPurchaseCost@CvLuaCity@@KAHPAUlua_State@@@Z ; CvLuaCity::lGetProjectPurchaseCost
	mov	eax, DWORD PTR _L$[ebp]
	push	eax
	call	_lua_pushcclosure
	add	esp, 12					; 0000000cH
	push	OFFSET ??_C@_0BH@JBKNIEHE@GetProjectPurchaseCost?$AA@
	mov	ecx, DWORD PTR _t$[ebp]
	push	ecx
	mov	edx, DWORD PTR _L$[ebp]
	push	edx
	call	_lua_setfield
	add	esp, 12					; 0000000cH

; 126  : 
; 127  : 	Method(SetProduction);

	push	0
	push	OFFSET ?lSetProduction@CvLuaCity@@KAHPAUlua_State@@@Z ; CvLuaCity::lSetProduction
	mov	eax, DWORD PTR _L$[ebp]
	push	eax
	call	_lua_pushcclosure
	add	esp, 12					; 0000000cH
	push	OFFSET ??_C@_0O@NOHOGFMH@SetProduction?$AA@
	mov	ecx, DWORD PTR _t$[ebp]
	push	ecx
	mov	edx, DWORD PTR _L$[ebp]
	push	edx
	call	_lua_setfield
	add	esp, 12					; 0000000cH

; 128  : 	Method(ChangeProduction);

	push	0
	push	OFFSET ?lChangeProduction@CvLuaCity@@KAHPAUlua_State@@@Z ; CvLuaCity::lChangeProduction
	mov	eax, DWORD PTR _L$[ebp]
	push	eax
	call	_lua_pushcclosure
	add	esp, 12					; 0000000cH
	push	OFFSET ??_C@_0BB@JCKMHPDJ@ChangeProduction?$AA@
	mov	ecx, DWORD PTR _t$[ebp]
	push	ecx
	mov	edx, DWORD PTR _L$[ebp]
	push	edx
	call	_lua_setfield
	add	esp, 12					; 0000000cH

; 129  : 
; 130  : 	Method(GetYieldModifierTooltip);

	push	0
	push	OFFSET ?lGetYieldModifierTooltip@CvLuaCity@@KAHPAUlua_State@@@Z ; CvLuaCity::lGetYieldModifierTooltip
	mov	eax, DWORD PTR _L$[ebp]
	push	eax
	call	_lua_pushcclosure
	add	esp, 12					; 0000000cH
	push	OFFSET ??_C@_0BI@LBFPCPLM@GetYieldModifierTooltip?$AA@
	mov	ecx, DWORD PTR _t$[ebp]
	push	ecx
	mov	edx, DWORD PTR _L$[ebp]
	push	edx
	call	_lua_setfield
	add	esp, 12					; 0000000cH

; 131  : 	Method(GetProductionModifier);

	push	0
	push	OFFSET ?lGetProductionModifier@CvLuaCity@@KAHPAUlua_State@@@Z ; CvLuaCity::lGetProductionModifier
	mov	eax, DWORD PTR _L$[ebp]
	push	eax
	call	_lua_pushcclosure
	add	esp, 12					; 0000000cH
	push	OFFSET ??_C@_0BG@COALBBFM@GetProductionModifier?$AA@
	mov	ecx, DWORD PTR _t$[ebp]
	push	ecx
	mov	edx, DWORD PTR _L$[ebp]
	push	edx
	call	_lua_setfield
	add	esp, 12					; 0000000cH

; 132  : 
; 133  : 	Method(GetCurrentProductionDifference);

	push	0
	push	OFFSET ?lGetCurrentProductionDifference@CvLuaCity@@KAHPAUlua_State@@@Z ; CvLuaCity::lGetCurrentProductionDifference
	mov	eax, DWORD PTR _L$[ebp]
	push	eax
	call	_lua_pushcclosure
	add	esp, 12					; 0000000cH
	push	OFFSET ??_C@_0BP@DPKFHAM@GetCurrentProductionDifference?$AA@
	mov	ecx, DWORD PTR _t$[ebp]
	push	ecx
	mov	edx, DWORD PTR _L$[ebp]
	push	edx
	call	_lua_setfield
	add	esp, 12					; 0000000cH

; 134  : 	Method(GetRawProductionDifference);

	push	0
	push	OFFSET ?lGetRawProductionDifference@CvLuaCity@@KAHPAUlua_State@@@Z ; CvLuaCity::lGetRawProductionDifference
	mov	eax, DWORD PTR _L$[ebp]
	push	eax
	call	_lua_pushcclosure
	add	esp, 12					; 0000000cH
	push	OFFSET ??_C@_0BL@KEJICAMN@GetRawProductionDifference?$AA@
	mov	ecx, DWORD PTR _t$[ebp]
	push	ecx
	mov	edx, DWORD PTR _L$[ebp]
	push	edx
	call	_lua_setfield
	add	esp, 12					; 0000000cH

; 135  : 	Method(GetCurrentProductionDifferenceTimes100);

	push	0
	push	OFFSET ?lGetCurrentProductionDifferenceTimes100@CvLuaCity@@KAHPAUlua_State@@@Z ; CvLuaCity::lGetCurrentProductionDifferenceTimes100
	mov	eax, DWORD PTR _L$[ebp]
	push	eax
	call	_lua_pushcclosure
	add	esp, 12					; 0000000cH
	push	OFFSET ??_C@_0CH@BNPOEMEH@GetCurrentProductionDifferenceTi@
	mov	ecx, DWORD PTR _t$[ebp]
	push	ecx
	mov	edx, DWORD PTR _L$[ebp]
	push	edx
	call	_lua_setfield
	add	esp, 12					; 0000000cH

; 136  : 	Method(GetRawProductionDifferenceTimes100);

	push	0
	push	OFFSET ?lGetRawProductionDifferenceTimes100@CvLuaCity@@KAHPAUlua_State@@@Z ; CvLuaCity::lGetRawProductionDifferenceTimes100
	mov	eax, DWORD PTR _L$[ebp]
	push	eax
	call	_lua_pushcclosure
	add	esp, 12					; 0000000cH
	push	OFFSET ??_C@_0CD@FAGAIJM@GetRawProductionDifferenceTimes1@
	mov	ecx, DWORD PTR _t$[ebp]
	push	ecx
	mov	edx, DWORD PTR _L$[ebp]
	push	edx
	call	_lua_setfield
	add	esp, 12					; 0000000cH

; 137  : 	Method(GetUnitProductionModifier);

	push	0
	push	OFFSET ?lGetUnitProductionModifier@CvLuaCity@@KAHPAUlua_State@@@Z ; CvLuaCity::lGetUnitProductionModifier
	mov	eax, DWORD PTR _L$[ebp]
	push	eax
	call	_lua_pushcclosure
	add	esp, 12					; 0000000cH
	push	OFFSET ??_C@_0BK@CAONOBAD@GetUnitProductionModifier?$AA@
	mov	ecx, DWORD PTR _t$[ebp]
	push	ecx
	mov	edx, DWORD PTR _L$[ebp]
	push	edx
	call	_lua_setfield
	add	esp, 12					; 0000000cH

; 138  : 	Method(GetBuildingProductionModifier);

	push	0
	push	OFFSET ?lGetBuildingProductionModifier@CvLuaCity@@KAHPAUlua_State@@@Z ; CvLuaCity::lGetBuildingProductionModifier
	mov	eax, DWORD PTR _L$[ebp]
	push	eax
	call	_lua_pushcclosure
	add	esp, 12					; 0000000cH
	push	OFFSET ??_C@_0BO@BOIFPPNB@GetBuildingProductionModifier?$AA@
	mov	ecx, DWORD PTR _t$[ebp]
	push	ecx
	mov	edx, DWORD PTR _L$[ebp]
	push	edx
	call	_lua_setfield
	add	esp, 12					; 0000000cH

; 139  : 	Method(GetProjectProductionModifier);

	push	0
	push	OFFSET ?lGetProjectProductionModifier@CvLuaCity@@KAHPAUlua_State@@@Z ; CvLuaCity::lGetProjectProductionModifier
	mov	eax, DWORD PTR _L$[ebp]
	push	eax
	call	_lua_pushcclosure
	add	esp, 12					; 0000000cH
	push	OFFSET ??_C@_0BN@FIGLLOHP@GetProjectProductionModifier?$AA@
	mov	ecx, DWORD PTR _t$[ebp]
	push	ecx
	mov	edx, DWORD PTR _L$[ebp]
	push	edx
	call	_lua_setfield
	add	esp, 12					; 0000000cH

; 140  : 	Method(GetSpecialistProductionModifier);

	push	0
	push	OFFSET ?lGetSpecialistProductionModifier@CvLuaCity@@KAHPAUlua_State@@@Z ; CvLuaCity::lGetSpecialistProductionModifier
	mov	eax, DWORD PTR _L$[ebp]
	push	eax
	call	_lua_pushcclosure
	add	esp, 12					; 0000000cH
	push	OFFSET ??_C@_0CA@IIOBOOCG@GetSpecialistProductionModifier?$AA@
	mov	ecx, DWORD PTR _t$[ebp]
	push	ecx
	mov	edx, DWORD PTR _L$[ebp]
	push	edx
	call	_lua_setfield
	add	esp, 12					; 0000000cH

; 141  : 
; 142  : 	Method(GetExtraProductionDifference);

	push	0
	push	OFFSET ?lGetExtraProductionDifference@CvLuaCity@@KAHPAUlua_State@@@Z ; CvLuaCity::lGetExtraProductionDifference
	mov	eax, DWORD PTR _L$[ebp]
	push	eax
	call	_lua_pushcclosure
	add	esp, 12					; 0000000cH
	push	OFFSET ??_C@_0BN@IGNDNHOA@GetExtraProductionDifference?$AA@
	mov	ecx, DWORD PTR _t$[ebp]
	push	ecx
	mov	edx, DWORD PTR _L$[ebp]
	push	edx
	call	_lua_setfield
	add	esp, 12					; 0000000cH

; 143  : 
; 144  : 	Method(CanHurry);

	push	0
	push	OFFSET ?lCanHurry@CvLuaCity@@KAHPAUlua_State@@@Z ; CvLuaCity::lCanHurry
	mov	eax, DWORD PTR _L$[ebp]
	push	eax
	call	_lua_pushcclosure
	add	esp, 12					; 0000000cH
	push	OFFSET ??_C@_08IDKGLCCG@CanHurry?$AA@
	mov	ecx, DWORD PTR _t$[ebp]
	push	ecx
	mov	edx, DWORD PTR _L$[ebp]
	push	edx
	call	_lua_setfield
	add	esp, 12					; 0000000cH

; 145  : 	Method(Hurry);

	push	0
	push	OFFSET ?lHurry@CvLuaCity@@KAHPAUlua_State@@@Z ; CvLuaCity::lHurry
	mov	eax, DWORD PTR _L$[ebp]
	push	eax
	call	_lua_pushcclosure
	add	esp, 12					; 0000000cH
	push	OFFSET ??_C@_05PELKKPHE@Hurry?$AA@
	mov	ecx, DWORD PTR _t$[ebp]
	push	ecx
	mov	edx, DWORD PTR _L$[ebp]
	push	edx
	call	_lua_setfield
	add	esp, 12					; 0000000cH

; 146  : 	Method(GetConscriptUnit);

	push	0
	push	OFFSET ?lGetConscriptUnit@CvLuaCity@@KAHPAUlua_State@@@Z ; CvLuaCity::lGetConscriptUnit
	mov	eax, DWORD PTR _L$[ebp]
	push	eax
	call	_lua_pushcclosure
	add	esp, 12					; 0000000cH
	push	OFFSET ??_C@_0BB@EGKBFCJM@GetConscriptUnit?$AA@
	mov	ecx, DWORD PTR _t$[ebp]
	push	ecx
	mov	edx, DWORD PTR _L$[ebp]
	push	edx
	call	_lua_setfield
	add	esp, 12					; 0000000cH

; 147  : 	Method(GetConscriptPopulation);

	push	0
	push	OFFSET ?lGetConscriptPopulation@CvLuaCity@@KAHPAUlua_State@@@Z ; CvLuaCity::lGetConscriptPopulation
	mov	eax, DWORD PTR _L$[ebp]
	push	eax
	call	_lua_pushcclosure
	add	esp, 12					; 0000000cH
	push	OFFSET ??_C@_0BH@IGNMDIJF@GetConscriptPopulation?$AA@
	mov	ecx, DWORD PTR _t$[ebp]
	push	ecx
	mov	edx, DWORD PTR _L$[ebp]
	push	edx
	call	_lua_setfield
	add	esp, 12					; 0000000cH

; 148  : 	Method(ConscriptMinCityPopulation);

	push	0
	push	OFFSET ?lConscriptMinCityPopulation@CvLuaCity@@KAHPAUlua_State@@@Z ; CvLuaCity::lConscriptMinCityPopulation
	mov	eax, DWORD PTR _L$[ebp]
	push	eax
	call	_lua_pushcclosure
	add	esp, 12					; 0000000cH
	push	OFFSET ??_C@_0BL@PLEBJCEL@ConscriptMinCityPopulation?$AA@
	mov	ecx, DWORD PTR _t$[ebp]
	push	ecx
	mov	edx, DWORD PTR _L$[ebp]
	push	edx
	call	_lua_setfield
	add	esp, 12					; 0000000cH

; 149  : 	Method(CanConscript);

	push	0
	push	OFFSET ?lCanConscript@CvLuaCity@@KAHPAUlua_State@@@Z ; CvLuaCity::lCanConscript
	mov	eax, DWORD PTR _L$[ebp]
	push	eax
	call	_lua_pushcclosure
	add	esp, 12					; 0000000cH
	push	OFFSET ??_C@_0N@PLNBPBNI@CanConscript?$AA@
	mov	ecx, DWORD PTR _t$[ebp]
	push	ecx
	mov	edx, DWORD PTR _L$[ebp]
	push	edx
	call	_lua_setfield
	add	esp, 12					; 0000000cH

; 150  : 	Method(Conscript);

	push	0
	push	OFFSET ?lConscript@CvLuaCity@@KAHPAUlua_State@@@Z ; CvLuaCity::lConscript
	mov	eax, DWORD PTR _L$[ebp]
	push	eax
	call	_lua_pushcclosure
	add	esp, 12					; 0000000cH
	push	OFFSET ??_C@_09KGDNLPBA@Conscript?$AA@
	mov	ecx, DWORD PTR _t$[ebp]
	push	ecx
	mov	edx, DWORD PTR _L$[ebp]
	push	edx
	call	_lua_setfield
	add	esp, 12					; 0000000cH

; 151  : 	Method(GetResourceYieldRateModifier);

	push	0
	push	OFFSET ?lGetResourceYieldRateModifier@CvLuaCity@@KAHPAUlua_State@@@Z ; CvLuaCity::lGetResourceYieldRateModifier
	mov	eax, DWORD PTR _L$[ebp]
	push	eax
	call	_lua_pushcclosure
	add	esp, 12					; 0000000cH
	push	OFFSET ??_C@_0BN@GNJODLOF@GetResourceYieldRateModifier?$AA@
	mov	ecx, DWORD PTR _t$[ebp]
	push	ecx
	mov	edx, DWORD PTR _L$[ebp]
	push	edx
	call	_lua_setfield
	add	esp, 12					; 0000000cH

; 152  : 	Method(GetHandicapType);

	push	0
	push	OFFSET ?lGetHandicapType@CvLuaCity@@KAHPAUlua_State@@@Z ; CvLuaCity::lGetHandicapType
	mov	eax, DWORD PTR _L$[ebp]
	push	eax
	call	_lua_pushcclosure
	add	esp, 12					; 0000000cH
	push	OFFSET ??_C@_0BA@NDPGKNBO@GetHandicapType?$AA@
	mov	ecx, DWORD PTR _t$[ebp]
	push	ecx
	mov	edx, DWORD PTR _L$[ebp]
	push	edx
	call	_lua_setfield
	add	esp, 12					; 0000000cH

; 153  : 	Method(GetCivilizationType);

	push	0
	push	OFFSET ?lGetCivilizationType@CvLuaCity@@KAHPAUlua_State@@@Z ; CvLuaCity::lGetCivilizationType
	mov	eax, DWORD PTR _L$[ebp]
	push	eax
	call	_lua_pushcclosure
	add	esp, 12					; 0000000cH
	push	OFFSET ??_C@_0BE@OGLFKPOE@GetCivilizationType?$AA@
	mov	ecx, DWORD PTR _t$[ebp]
	push	ecx
	mov	edx, DWORD PTR _L$[ebp]
	push	edx
	call	_lua_setfield
	add	esp, 12					; 0000000cH

; 154  : 	Method(GetPersonalityType);

	push	0
	push	OFFSET ?lGetPersonalityType@CvLuaCity@@KAHPAUlua_State@@@Z ; CvLuaCity::lGetPersonalityType
	mov	eax, DWORD PTR _L$[ebp]
	push	eax
	call	_lua_pushcclosure
	add	esp, 12					; 0000000cH
	push	OFFSET ??_C@_0BD@DDPEHEOB@GetPersonalityType?$AA@
	mov	ecx, DWORD PTR _t$[ebp]
	push	ecx
	mov	edx, DWORD PTR _L$[ebp]
	push	edx
	call	_lua_setfield
	add	esp, 12					; 0000000cH

; 155  : 	Method(GetArtStyleType);

	push	0
	push	OFFSET ?lGetArtStyleType@CvLuaCity@@KAHPAUlua_State@@@Z ; CvLuaCity::lGetArtStyleType
	mov	eax, DWORD PTR _L$[ebp]
	push	eax
	call	_lua_pushcclosure
	add	esp, 12					; 0000000cH
	push	OFFSET ??_C@_0BA@GLKLOHNJ@GetArtStyleType?$AA@
	mov	ecx, DWORD PTR _t$[ebp]
	push	ecx
	mov	edx, DWORD PTR _L$[ebp]
	push	edx
	call	_lua_setfield
	add	esp, 12					; 0000000cH

; 156  : 	Method(GetCitySizeType);

	push	0
	push	OFFSET ?lGetCitySizeType@CvLuaCity@@KAHPAUlua_State@@@Z ; CvLuaCity::lGetCitySizeType
	mov	eax, DWORD PTR _L$[ebp]
	push	eax
	call	_lua_pushcclosure
	add	esp, 12					; 0000000cH
	push	OFFSET ??_C@_0BA@LACHPPMM@GetCitySizeType?$AA@
	mov	ecx, DWORD PTR _t$[ebp]
	push	ecx
	mov	edx, DWORD PTR _L$[ebp]
	push	edx
	call	_lua_setfield
	add	esp, 12					; 0000000cH

; 157  : 
; 158  : 	Method(IsBarbarian);

	push	0
	push	OFFSET ?lIsBarbarian@CvLuaCity@@KAHPAUlua_State@@@Z ; CvLuaCity::lIsBarbarian
	mov	eax, DWORD PTR _L$[ebp]
	push	eax
	call	_lua_pushcclosure
	add	esp, 12					; 0000000cH
	push	OFFSET ??_C@_0M@NJNEDJLP@IsBarbarian?$AA@
	mov	ecx, DWORD PTR _t$[ebp]
	push	ecx
	mov	edx, DWORD PTR _L$[ebp]
	push	edx
	call	_lua_setfield
	add	esp, 12					; 0000000cH

; 159  : 	Method(IsHuman);

	push	0
	push	OFFSET ?lIsHuman@CvLuaCity@@KAHPAUlua_State@@@Z ; CvLuaCity::lIsHuman
	mov	eax, DWORD PTR _L$[ebp]
	push	eax
	call	_lua_pushcclosure
	add	esp, 12					; 0000000cH
	push	OFFSET ??_C@_07NIJBBMLI@IsHuman?$AA@
	mov	ecx, DWORD PTR _t$[ebp]
	push	ecx
	mov	edx, DWORD PTR _L$[ebp]
	push	edx
	call	_lua_setfield
	add	esp, 12					; 0000000cH

; 160  : 	Method(IsVisible);

	push	0
	push	OFFSET ?lIsVisible@CvLuaCity@@KAHPAUlua_State@@@Z ; CvLuaCity::lIsVisible
	mov	eax, DWORD PTR _L$[ebp]
	push	eax
	call	_lua_pushcclosure
	add	esp, 12					; 0000000cH
	push	OFFSET ??_C@_09OLGPEPPJ@IsVisible?$AA@
	mov	ecx, DWORD PTR _t$[ebp]
	push	ecx
	mov	edx, DWORD PTR _L$[ebp]
	push	edx
	call	_lua_setfield
	add	esp, 12					; 0000000cH

; 161  : 
; 162  : 	Method(IsCapital);

	push	0
	push	OFFSET ?lIsCapital@CvLuaCity@@KAHPAUlua_State@@@Z ; CvLuaCity::lIsCapital
	mov	eax, DWORD PTR _L$[ebp]
	push	eax
	call	_lua_pushcclosure
	add	esp, 12					; 0000000cH
	push	OFFSET ??_C@_09MGCHGMCG@IsCapital?$AA@
	mov	ecx, DWORD PTR _t$[ebp]
	push	ecx
	mov	edx, DWORD PTR _L$[ebp]
	push	edx
	call	_lua_setfield
	add	esp, 12					; 0000000cH

; 163  : 	Method(IsOriginalCapital);

	push	0
	push	OFFSET ?lIsOriginalCapital@CvLuaCity@@KAHPAUlua_State@@@Z ; CvLuaCity::lIsOriginalCapital
	mov	eax, DWORD PTR _L$[ebp]
	push	eax
	call	_lua_pushcclosure
	add	esp, 12					; 0000000cH
	push	OFFSET ??_C@_0BC@PAPJEFNG@IsOriginalCapital?$AA@
	mov	ecx, DWORD PTR _t$[ebp]
	push	ecx
	mov	edx, DWORD PTR _L$[ebp]
	push	edx
	call	_lua_setfield
	add	esp, 12					; 0000000cH

; 164  : 	Method(IsOriginalMajorCapital);

	push	0
	push	OFFSET ?lIsOriginalMajorCapital@CvLuaCity@@KAHPAUlua_State@@@Z ; CvLuaCity::lIsOriginalMajorCapital
	mov	eax, DWORD PTR _L$[ebp]
	push	eax
	call	_lua_pushcclosure
	add	esp, 12					; 0000000cH
	push	OFFSET ??_C@_0BH@ONOJLMEH@IsOriginalMajorCapital?$AA@
	mov	ecx, DWORD PTR _t$[ebp]
	push	ecx
	mov	edx, DWORD PTR _L$[ebp]
	push	edx
	call	_lua_setfield
	add	esp, 12					; 0000000cH

; 165  : 	Method(IsCoastal);

	push	0
	push	OFFSET ?lIsCoastal@CvLuaCity@@KAHPAUlua_State@@@Z ; CvLuaCity::lIsCoastal
	mov	eax, DWORD PTR _L$[ebp]
	push	eax
	call	_lua_pushcclosure
	add	esp, 12					; 0000000cH
	push	OFFSET ??_C@_09HEMCEJGG@IsCoastal?$AA@
	mov	ecx, DWORD PTR _t$[ebp]
	push	ecx
	mov	edx, DWORD PTR _L$[ebp]
	push	edx
	call	_lua_setfield
	add	esp, 12					; 0000000cH

; 166  : 
; 167  : 	Method(FoodConsumption);

	push	0
	push	OFFSET ?lFoodConsumption@CvLuaCity@@KAHPAUlua_State@@@Z ; CvLuaCity::lFoodConsumption
	mov	eax, DWORD PTR _L$[ebp]
	push	eax
	call	_lua_pushcclosure
	add	esp, 12					; 0000000cH
	push	OFFSET ??_C@_0BA@BJLFGBFC@FoodConsumption?$AA@
	mov	ecx, DWORD PTR _t$[ebp]
	push	ecx
	mov	edx, DWORD PTR _L$[ebp]
	push	edx
	call	_lua_setfield
	add	esp, 12					; 0000000cH

; 168  : 	Method(FoodDifference);

	push	0
	push	OFFSET ?lFoodDifference@CvLuaCity@@KAHPAUlua_State@@@Z ; CvLuaCity::lFoodDifference
	mov	eax, DWORD PTR _L$[ebp]
	push	eax
	call	_lua_pushcclosure
	add	esp, 12					; 0000000cH
	push	OFFSET ??_C@_0P@CNHJHJIP@FoodDifference?$AA@
	mov	ecx, DWORD PTR _t$[ebp]
	push	ecx
	mov	edx, DWORD PTR _L$[ebp]
	push	edx
	call	_lua_setfield
	add	esp, 12					; 0000000cH

; 169  : 	Method(FoodDifferenceTimes100);

	push	0
	push	OFFSET ?lFoodDifferenceTimes100@CvLuaCity@@KAHPAUlua_State@@@Z ; CvLuaCity::lFoodDifferenceTimes100
	mov	eax, DWORD PTR _L$[ebp]
	push	eax
	call	_lua_pushcclosure
	add	esp, 12					; 0000000cH
	push	OFFSET ??_C@_0BH@LJBNHLKM@FoodDifferenceTimes100?$AA@
	mov	ecx, DWORD PTR _t$[ebp]
	push	ecx
	mov	edx, DWORD PTR _L$[ebp]
	push	edx
	call	_lua_setfield
	add	esp, 12					; 0000000cH

; 170  : 	Method(GrowthThreshold);

	push	0
	push	OFFSET ?lGrowthThreshold@CvLuaCity@@KAHPAUlua_State@@@Z ; CvLuaCity::lGrowthThreshold
	mov	eax, DWORD PTR _L$[ebp]
	push	eax
	call	_lua_pushcclosure
	add	esp, 12					; 0000000cH
	push	OFFSET ??_C@_0BA@NJNOJFJN@GrowthThreshold?$AA@
	mov	ecx, DWORD PTR _t$[ebp]
	push	ecx
	mov	edx, DWORD PTR _L$[ebp]
	push	edx
	call	_lua_setfield
	add	esp, 12					; 0000000cH

; 171  : 	Method(ProductionLeft);

	push	0
	push	OFFSET ?lProductionLeft@CvLuaCity@@KAHPAUlua_State@@@Z ; CvLuaCity::lProductionLeft
	mov	eax, DWORD PTR _L$[ebp]
	push	eax
	call	_lua_pushcclosure
	add	esp, 12					; 0000000cH
	push	OFFSET ??_C@_0P@KBNPLEGK@ProductionLeft?$AA@
	mov	ecx, DWORD PTR _t$[ebp]
	push	ecx
	mov	edx, DWORD PTR _L$[ebp]
	push	edx
	call	_lua_setfield
	add	esp, 12					; 0000000cH

; 172  : 	Method(HurryCost);

	push	0
	push	OFFSET ?lHurryCost@CvLuaCity@@KAHPAUlua_State@@@Z ; CvLuaCity::lHurryCost
	mov	eax, DWORD PTR _L$[ebp]
	push	eax
	call	_lua_pushcclosure
	add	esp, 12					; 0000000cH
	push	OFFSET ??_C@_09PDHBPCJG@HurryCost?$AA@
	mov	ecx, DWORD PTR _t$[ebp]
	push	ecx
	mov	edx, DWORD PTR _L$[ebp]
	push	edx
	call	_lua_setfield
	add	esp, 12					; 0000000cH

; 173  : 	Method(HurryGold);

	push	0
	push	OFFSET ?lHurryGold@CvLuaCity@@KAHPAUlua_State@@@Z ; CvLuaCity::lHurryGold
	mov	eax, DWORD PTR _L$[ebp]
	push	eax
	call	_lua_pushcclosure
	add	esp, 12					; 0000000cH
	push	OFFSET ??_C@_09FLEJKCEK@HurryGold?$AA@
	mov	ecx, DWORD PTR _t$[ebp]
	push	ecx
	mov	edx, DWORD PTR _L$[ebp]
	push	edx
	call	_lua_setfield
	add	esp, 12					; 0000000cH

; 174  : 	Method(HurryPopulation);

	push	0
	push	OFFSET ?lHurryPopulation@CvLuaCity@@KAHPAUlua_State@@@Z ; CvLuaCity::lHurryPopulation
	mov	eax, DWORD PTR _L$[ebp]
	push	eax
	call	_lua_pushcclosure
	add	esp, 12					; 0000000cH
	push	OFFSET ??_C@_0BA@CCMOKMFO@HurryPopulation?$AA@
	mov	ecx, DWORD PTR _t$[ebp]
	push	ecx
	mov	edx, DWORD PTR _L$[ebp]
	push	edx
	call	_lua_setfield
	add	esp, 12					; 0000000cH

; 175  : 	Method(HurryProduction);

	push	0
	push	OFFSET ?lHurryProduction@CvLuaCity@@KAHPAUlua_State@@@Z ; CvLuaCity::lHurryProduction
	mov	eax, DWORD PTR _L$[ebp]
	push	eax
	call	_lua_pushcclosure
	add	esp, 12					; 0000000cH
	push	OFFSET ??_C@_0BA@IMHIGCAF@HurryProduction?$AA@
	mov	ecx, DWORD PTR _t$[ebp]
	push	ecx
	mov	edx, DWORD PTR _L$[ebp]
	push	edx
	call	_lua_setfield
	add	esp, 12					; 0000000cH

; 176  : 	Method(MaxHurryPopulation);

	push	0
	push	OFFSET ?lMaxHurryPopulation@CvLuaCity@@KAHPAUlua_State@@@Z ; CvLuaCity::lMaxHurryPopulation
	mov	eax, DWORD PTR _L$[ebp]
	push	eax
	call	_lua_pushcclosure
	add	esp, 12					; 0000000cH
	push	OFFSET ??_C@_0BD@OEGDKNCP@MaxHurryPopulation?$AA@
	mov	ecx, DWORD PTR _t$[ebp]
	push	ecx
	mov	edx, DWORD PTR _L$[ebp]
	push	edx
	call	_lua_setfield
	add	esp, 12					; 0000000cH

; 177  : 
; 178  : 	Method(GetNumBuilding);

	push	0
	push	OFFSET ?lGetNumBuilding@CvLuaCity@@KAHPAUlua_State@@@Z ; CvLuaCity::lGetNumBuilding
	mov	eax, DWORD PTR _L$[ebp]
	push	eax
	call	_lua_pushcclosure
	add	esp, 12					; 0000000cH
	push	OFFSET ??_C@_0P@EOHOGKJK@GetNumBuilding?$AA@
	mov	ecx, DWORD PTR _t$[ebp]
	push	ecx
	mov	edx, DWORD PTR _L$[ebp]
	push	edx
	call	_lua_setfield
	add	esp, 12					; 0000000cH

; 179  : 	Method(IsHasBuilding);

	push	0
	push	OFFSET ?lIsHasBuilding@CvLuaCity@@KAHPAUlua_State@@@Z ; CvLuaCity::lIsHasBuilding
	mov	eax, DWORD PTR _L$[ebp]
	push	eax
	call	_lua_pushcclosure
	add	esp, 12					; 0000000cH
	push	OFFSET ??_C@_0O@ELHLCIIC@IsHasBuilding?$AA@
	mov	ecx, DWORD PTR _t$[ebp]
	push	ecx
	mov	edx, DWORD PTR _L$[ebp]
	push	edx
	call	_lua_setfield
	add	esp, 12					; 0000000cH

; 180  : 	Method(GetNumActiveBuilding);

	push	0
	push	OFFSET ?lGetNumActiveBuilding@CvLuaCity@@KAHPAUlua_State@@@Z ; CvLuaCity::lGetNumActiveBuilding
	mov	eax, DWORD PTR _L$[ebp]
	push	eax
	call	_lua_pushcclosure
	add	esp, 12					; 0000000cH
	push	OFFSET ??_C@_0BF@OPJCOPIH@GetNumActiveBuilding?$AA@
	mov	ecx, DWORD PTR _t$[ebp]
	push	ecx
	mov	edx, DWORD PTR _L$[ebp]
	push	edx
	call	_lua_setfield
	add	esp, 12					; 0000000cH

; 181  : 	Method(GetID);

	push	0
	push	OFFSET ?lGetID@CvLuaCity@@KAHPAUlua_State@@@Z ; CvLuaCity::lGetID
	mov	eax, DWORD PTR _L$[ebp]
	push	eax
	call	_lua_pushcclosure
	add	esp, 12					; 0000000cH
	push	OFFSET ??_C@_05CLBJHDA@GetID?$AA@
	mov	ecx, DWORD PTR _t$[ebp]
	push	ecx
	mov	edx, DWORD PTR _L$[ebp]
	push	edx
	call	_lua_setfield
	add	esp, 12					; 0000000cH

; 182  : 	Method(GetX);

	push	0
	push	OFFSET ?lGetX@CvLuaCity@@KAHPAUlua_State@@@Z ; CvLuaCity::lGetX
	mov	eax, DWORD PTR _L$[ebp]
	push	eax
	call	_lua_pushcclosure
	add	esp, 12					; 0000000cH
	push	OFFSET ??_C@_04POGMJMFK@GetX?$AA@
	mov	ecx, DWORD PTR _t$[ebp]
	push	ecx
	mov	edx, DWORD PTR _L$[ebp]
	push	edx
	call	_lua_setfield
	add	esp, 12					; 0000000cH

; 183  : 	Method(GetY);

	push	0
	push	OFFSET ?lGetY@CvLuaCity@@KAHPAUlua_State@@@Z ; CvLuaCity::lGetY
	mov	eax, DWORD PTR _L$[ebp]
	push	eax
	call	_lua_pushcclosure
	add	esp, 12					; 0000000cH
	push	OFFSET ??_C@_04OHHHKNBL@GetY?$AA@
	mov	ecx, DWORD PTR _t$[ebp]
	push	ecx
	mov	edx, DWORD PTR _L$[ebp]
	push	edx
	call	_lua_setfield
	add	esp, 12					; 0000000cH

; 184  : 	Method(At);

	push	0
	push	OFFSET ?lAt@CvLuaCity@@KAHPAUlua_State@@@Z ; CvLuaCity::lAt
	mov	eax, DWORD PTR _L$[ebp]
	push	eax
	call	_lua_pushcclosure
	add	esp, 12					; 0000000cH
	push	OFFSET ??_C@_02DKLFHNOI@At?$AA@
	mov	ecx, DWORD PTR _t$[ebp]
	push	ecx
	mov	edx, DWORD PTR _L$[ebp]
	push	edx
	call	_lua_setfield
	add	esp, 12					; 0000000cH

; 185  : 	Method(AtPlot);

	push	0
	push	OFFSET ?lAtPlot@CvLuaCity@@KAHPAUlua_State@@@Z ; CvLuaCity::lAtPlot
	mov	eax, DWORD PTR _L$[ebp]
	push	eax
	call	_lua_pushcclosure
	add	esp, 12					; 0000000cH
	push	OFFSET ??_C@_06FBGHKGAE@AtPlot?$AA@
	mov	ecx, DWORD PTR _t$[ebp]
	push	ecx
	mov	edx, DWORD PTR _L$[ebp]
	push	edx
	call	_lua_setfield
	add	esp, 12					; 0000000cH

; 186  : 	Method(Plot);

	push	0
	push	OFFSET ?lPlot@CvLuaCity@@KAHPAUlua_State@@@Z ; CvLuaCity::lPlot
	mov	eax, DWORD PTR _L$[ebp]
	push	eax
	call	_lua_pushcclosure
	add	esp, 12					; 0000000cH
	push	OFFSET ??_C@_04HIOGLPHN@Plot?$AA@
	mov	ecx, DWORD PTR _t$[ebp]
	push	ecx
	mov	edx, DWORD PTR _L$[ebp]
	push	edx
	call	_lua_setfield
	add	esp, 12					; 0000000cH

; 187  : 	Method(Area);

	push	0
	push	OFFSET ?lArea@CvLuaCity@@KAHPAUlua_State@@@Z ; CvLuaCity::lArea
	mov	eax, DWORD PTR _L$[ebp]
	push	eax
	call	_lua_pushcclosure
	add	esp, 12					; 0000000cH
	push	OFFSET ??_C@_04KPICECCB@Area?$AA@
	mov	ecx, DWORD PTR _t$[ebp]
	push	ecx
	mov	edx, DWORD PTR _L$[ebp]
	push	edx
	call	_lua_setfield
	add	esp, 12					; 0000000cH

; 188  : 	Method(WaterArea);

	push	0
	push	OFFSET ?lWaterArea@CvLuaCity@@KAHPAUlua_State@@@Z ; CvLuaCity::lWaterArea
	mov	eax, DWORD PTR _L$[ebp]
	push	eax
	call	_lua_pushcclosure
	add	esp, 12					; 0000000cH
	push	OFFSET ??_C@_09CNIEIFHO@WaterArea?$AA@
	mov	ecx, DWORD PTR _t$[ebp]
	push	ecx
	mov	edx, DWORD PTR _L$[ebp]
	push	edx
	call	_lua_setfield
	add	esp, 12					; 0000000cH

; 189  : 	Method(GetRallyPlot);

	push	0
	push	OFFSET ?lGetRallyPlot@CvLuaCity@@KAHPAUlua_State@@@Z ; CvLuaCity::lGetRallyPlot
	mov	eax, DWORD PTR _L$[ebp]
	push	eax
	call	_lua_pushcclosure
	add	esp, 12					; 0000000cH
	push	OFFSET ??_C@_0N@JOMCKPIG@GetRallyPlot?$AA@
	mov	ecx, DWORD PTR _t$[ebp]
	push	ecx
	mov	edx, DWORD PTR _L$[ebp]
	push	edx
	call	_lua_setfield
	add	esp, 12					; 0000000cH

; 190  : 
; 191  : 	Method(CanBuyPlot);

	push	0
	push	OFFSET ?lCanBuyPlot@CvLuaCity@@KAHPAUlua_State@@@Z ; CvLuaCity::lCanBuyPlot
	mov	eax, DWORD PTR _L$[ebp]
	push	eax
	call	_lua_pushcclosure
	add	esp, 12					; 0000000cH
	push	OFFSET ??_C@_0L@MJKINFAP@CanBuyPlot?$AA@
	mov	ecx, DWORD PTR _t$[ebp]
	push	ecx
	mov	edx, DWORD PTR _L$[ebp]
	push	edx
	call	_lua_setfield
	add	esp, 12					; 0000000cH

; 192  : 	Method(CanBuyPlotAt);

	push	0
	push	OFFSET ?lCanBuyPlotAt@CvLuaCity@@KAHPAUlua_State@@@Z ; CvLuaCity::lCanBuyPlotAt
	mov	eax, DWORD PTR _L$[ebp]
	push	eax
	call	_lua_pushcclosure
	add	esp, 12					; 0000000cH
	push	OFFSET ??_C@_0N@ELCKKIDJ@CanBuyPlotAt?$AA@
	mov	ecx, DWORD PTR _t$[ebp]
	push	ecx
	mov	edx, DWORD PTR _L$[ebp]
	push	edx
	call	_lua_setfield
	add	esp, 12					; 0000000cH

; 193  : 	Method(GetNextBuyablePlot);

	push	0
	push	OFFSET ?lGetNextBuyablePlot@CvLuaCity@@KAHPAUlua_State@@@Z ; CvLuaCity::lGetNextBuyablePlot
	mov	eax, DWORD PTR _L$[ebp]
	push	eax
	call	_lua_pushcclosure
	add	esp, 12					; 0000000cH
	push	OFFSET ??_C@_0BD@DPMBBFOK@GetNextBuyablePlot?$AA@
	mov	ecx, DWORD PTR _t$[ebp]
	push	ecx
	mov	edx, DWORD PTR _L$[ebp]
	push	edx
	call	_lua_setfield
	add	esp, 12					; 0000000cH

; 194  : 	Method(GetBuyablePlotList);

	push	0
	push	OFFSET ?lGetBuyablePlotList@CvLuaCity@@KAHPAUlua_State@@@Z ; CvLuaCity::lGetBuyablePlotList
	mov	eax, DWORD PTR _L$[ebp]
	push	eax
	call	_lua_pushcclosure
	add	esp, 12					; 0000000cH
	push	OFFSET ??_C@_0BD@EKOODAKH@GetBuyablePlotList?$AA@
	mov	ecx, DWORD PTR _t$[ebp]
	push	ecx
	mov	edx, DWORD PTR _L$[ebp]
	push	edx
	call	_lua_setfield
	add	esp, 12					; 0000000cH

; 195  : 	Method(GetBuyPlotCost);

	push	0
	push	OFFSET ?lGetBuyPlotCost@CvLuaCity@@KAHPAUlua_State@@@Z ; CvLuaCity::lGetBuyPlotCost
	mov	eax, DWORD PTR _L$[ebp]
	push	eax
	call	_lua_pushcclosure
	add	esp, 12					; 0000000cH
	push	OFFSET ??_C@_0P@CLDNCOML@GetBuyPlotCost?$AA@
	mov	ecx, DWORD PTR _t$[ebp]
	push	ecx
	mov	edx, DWORD PTR _L$[ebp]
	push	edx
	call	_lua_setfield
	add	esp, 12					; 0000000cH

; 196  : 	Method(CanBuyAnyPlot);

	push	0
	push	OFFSET ?lCanBuyAnyPlot@CvLuaCity@@KAHPAUlua_State@@@Z ; CvLuaCity::lCanBuyAnyPlot
	mov	eax, DWORD PTR _L$[ebp]
	push	eax
	call	_lua_pushcclosure
	add	esp, 12					; 0000000cH
	push	OFFSET ??_C@_0O@JAHGGNPO@CanBuyAnyPlot?$AA@
	mov	ecx, DWORD PTR _t$[ebp]
	push	ecx
	mov	edx, DWORD PTR _L$[ebp]
	push	edx
	call	_lua_setfield
	add	esp, 12					; 0000000cH

; 197  : 
; 198  : 	Method(GetGarrisonedUnit);

	push	0
	push	OFFSET ?lGetGarrisonedUnit@CvLuaCity@@KAHPAUlua_State@@@Z ; CvLuaCity::lGetGarrisonedUnit
	mov	eax, DWORD PTR _L$[ebp]
	push	eax
	call	_lua_pushcclosure
	add	esp, 12					; 0000000cH
	push	OFFSET ??_C@_0BC@ECAKDE@GetGarrisonedUnit?$AA@
	mov	ecx, DWORD PTR _t$[ebp]
	push	ecx
	mov	edx, DWORD PTR _L$[ebp]
	push	edx
	call	_lua_setfield
	add	esp, 12					; 0000000cH

; 199  : 
; 200  : 	Method(GetGameTurnFounded);

	push	0
	push	OFFSET ?lGetGameTurnFounded@CvLuaCity@@KAHPAUlua_State@@@Z ; CvLuaCity::lGetGameTurnFounded
	mov	eax, DWORD PTR _L$[ebp]
	push	eax
	call	_lua_pushcclosure
	add	esp, 12					; 0000000cH
	push	OFFSET ??_C@_0BD@PEMIOCBG@GetGameTurnFounded?$AA@
	mov	ecx, DWORD PTR _t$[ebp]
	push	ecx
	mov	edx, DWORD PTR _L$[ebp]
	push	edx
	call	_lua_setfield
	add	esp, 12					; 0000000cH

; 201  : 	Method(GetGameTurnAcquired);

	push	0
	push	OFFSET ?lGetGameTurnAcquired@CvLuaCity@@KAHPAUlua_State@@@Z ; CvLuaCity::lGetGameTurnAcquired
	mov	eax, DWORD PTR _L$[ebp]
	push	eax
	call	_lua_pushcclosure
	add	esp, 12					; 0000000cH
	push	OFFSET ??_C@_0BE@GPLNLMHN@GetGameTurnAcquired?$AA@
	mov	ecx, DWORD PTR _t$[ebp]
	push	ecx
	mov	edx, DWORD PTR _L$[ebp]
	push	edx
	call	_lua_setfield
	add	esp, 12					; 0000000cH

; 202  : 	Method(GetGameTurnLastExpanded);

	push	0
	push	OFFSET ?lGetGameTurnLastExpanded@CvLuaCity@@KAHPAUlua_State@@@Z ; CvLuaCity::lGetGameTurnLastExpanded
	mov	eax, DWORD PTR _L$[ebp]
	push	eax
	call	_lua_pushcclosure
	add	esp, 12					; 0000000cH
	push	OFFSET ??_C@_0BI@IICLLOKC@GetGameTurnLastExpanded?$AA@
	mov	ecx, DWORD PTR _t$[ebp]
	push	ecx
	mov	edx, DWORD PTR _L$[ebp]
	push	edx
	call	_lua_setfield
	add	esp, 12					; 0000000cH

; 203  : 	Method(GetPopulation);

	push	0
	push	OFFSET ?lGetPopulation@CvLuaCity@@KAHPAUlua_State@@@Z ; CvLuaCity::lGetPopulation
	mov	eax, DWORD PTR _L$[ebp]
	push	eax
	call	_lua_pushcclosure
	add	esp, 12					; 0000000cH
	push	OFFSET ??_C@_0O@PNGBIOL@GetPopulation?$AA@
	mov	ecx, DWORD PTR _t$[ebp]
	push	ecx
	mov	edx, DWORD PTR _L$[ebp]
	push	edx
	call	_lua_setfield
	add	esp, 12					; 0000000cH

; 204  : 	Method(SetPopulation);

	push	0
	push	OFFSET ?lSetPopulation@CvLuaCity@@KAHPAUlua_State@@@Z ; CvLuaCity::lSetPopulation
	mov	eax, DWORD PTR _L$[ebp]
	push	eax
	call	_lua_pushcclosure
	add	esp, 12					; 0000000cH
	push	OFFSET ??_C@_0O@HAMIKLJM@SetPopulation?$AA@
	mov	ecx, DWORD PTR _t$[ebp]
	push	ecx
	mov	edx, DWORD PTR _L$[ebp]
	push	edx
	call	_lua_setfield
	add	esp, 12					; 0000000cH

; 205  : 	Method(ChangePopulation);

	push	0
	push	OFFSET ?lChangePopulation@CvLuaCity@@KAHPAUlua_State@@@Z ; CvLuaCity::lChangePopulation
	mov	eax, DWORD PTR _L$[ebp]
	push	eax
	call	_lua_pushcclosure
	add	esp, 12					; 0000000cH
	push	OFFSET ??_C@_0BB@DMBKLBGC@ChangePopulation?$AA@
	mov	ecx, DWORD PTR _t$[ebp]
	push	ecx
	mov	edx, DWORD PTR _L$[ebp]
	push	edx
	call	_lua_setfield
	add	esp, 12					; 0000000cH

; 206  : 	Method(GetRealPopulation);

	push	0
	push	OFFSET ?lGetRealPopulation@CvLuaCity@@KAHPAUlua_State@@@Z ; CvLuaCity::lGetRealPopulation
	mov	eax, DWORD PTR _L$[ebp]
	push	eax
	call	_lua_pushcclosure
	add	esp, 12					; 0000000cH
	push	OFFSET ??_C@_0BC@KOHBIIDL@GetRealPopulation?$AA@
	mov	ecx, DWORD PTR _t$[ebp]
	push	ecx
	mov	edx, DWORD PTR _L$[ebp]
	push	edx
	call	_lua_setfield
	add	esp, 12					; 0000000cH

; 207  : 
; 208  : 	Method(GetHighestPopulation);

	push	0
	push	OFFSET ?lGetHighestPopulation@CvLuaCity@@KAHPAUlua_State@@@Z ; CvLuaCity::lGetHighestPopulation
	mov	eax, DWORD PTR _L$[ebp]
	push	eax
	call	_lua_pushcclosure
	add	esp, 12					; 0000000cH
	push	OFFSET ??_C@_0BF@FJCPNHID@GetHighestPopulation?$AA@
	mov	ecx, DWORD PTR _t$[ebp]
	push	ecx
	mov	edx, DWORD PTR _L$[ebp]
	push	edx
	call	_lua_setfield
	add	esp, 12					; 0000000cH

; 209  : 	Method(SetHighestPopulation);

	push	0
	push	OFFSET ?lSetHighestPopulation@CvLuaCity@@KAHPAUlua_State@@@Z ; CvLuaCity::lSetHighestPopulation
	mov	eax, DWORD PTR _L$[ebp]
	push	eax
	call	_lua_pushcclosure
	add	esp, 12					; 0000000cH
	push	OFFSET ??_C@_0BF@DCMBNE@SetHighestPopulation?$AA@
	mov	ecx, DWORD PTR _t$[ebp]
	push	ecx
	mov	edx, DWORD PTR _L$[ebp]
	push	edx
	call	_lua_setfield
	add	esp, 12					; 0000000cH

; 210  : 	//Method(GetWorkingPopulation);
; 211  : 	//Method(GetSpecialistPopulation);
; 212  : 	Method(GetNumGreatPeople);

	push	0
	push	OFFSET ?lGetNumGreatPeople@CvLuaCity@@KAHPAUlua_State@@@Z ; CvLuaCity::lGetNumGreatPeople
	mov	eax, DWORD PTR _L$[ebp]
	push	eax
	call	_lua_pushcclosure
	add	esp, 12					; 0000000cH
	push	OFFSET ??_C@_0BC@KLEPOAKG@GetNumGreatPeople?$AA@
	mov	ecx, DWORD PTR _t$[ebp]
	push	ecx
	mov	edx, DWORD PTR _L$[ebp]
	push	edx
	call	_lua_setfield
	add	esp, 12					; 0000000cH

; 213  : 	Method(GetBaseGreatPeopleRate);

	push	0
	push	OFFSET ?lGetBaseGreatPeopleRate@CvLuaCity@@KAHPAUlua_State@@@Z ; CvLuaCity::lGetBaseGreatPeopleRate
	mov	eax, DWORD PTR _L$[ebp]
	push	eax
	call	_lua_pushcclosure
	add	esp, 12					; 0000000cH
	push	OFFSET ??_C@_0BH@FFFJEHEB@GetBaseGreatPeopleRate?$AA@
	mov	ecx, DWORD PTR _t$[ebp]
	push	ecx
	mov	edx, DWORD PTR _L$[ebp]
	push	edx
	call	_lua_setfield
	add	esp, 12					; 0000000cH

; 214  : 	Method(GetGreatPeopleRate);

	push	0
	push	OFFSET ?lGetGreatPeopleRate@CvLuaCity@@KAHPAUlua_State@@@Z ; CvLuaCity::lGetGreatPeopleRate
	mov	eax, DWORD PTR _L$[ebp]
	push	eax
	call	_lua_pushcclosure
	add	esp, 12					; 0000000cH
	push	OFFSET ??_C@_0BD@EJKIAKHA@GetGreatPeopleRate?$AA@
	mov	ecx, DWORD PTR _t$[ebp]
	push	ecx
	mov	edx, DWORD PTR _L$[ebp]
	push	edx
	call	_lua_setfield
	add	esp, 12					; 0000000cH

; 215  : 	Method(GetTotalGreatPeopleRateModifier);

	push	0
	push	OFFSET ?lGetTotalGreatPeopleRateModifier@CvLuaCity@@KAHPAUlua_State@@@Z ; CvLuaCity::lGetTotalGreatPeopleRateModifier
	mov	eax, DWORD PTR _L$[ebp]
	push	eax
	call	_lua_pushcclosure
	add	esp, 12					; 0000000cH
	push	OFFSET ??_C@_0CA@KMDLAMII@GetTotalGreatPeopleRateModifier?$AA@
	mov	ecx, DWORD PTR _t$[ebp]
	push	ecx
	mov	edx, DWORD PTR _L$[ebp]
	push	edx
	call	_lua_setfield
	add	esp, 12					; 0000000cH

; 216  : 	Method(ChangeBaseGreatPeopleRate);

	push	0
	push	OFFSET ?lChangeBaseGreatPeopleRate@CvLuaCity@@KAHPAUlua_State@@@Z ; CvLuaCity::lChangeBaseGreatPeopleRate
	mov	eax, DWORD PTR _L$[ebp]
	push	eax
	call	_lua_pushcclosure
	add	esp, 12					; 0000000cH
	push	OFFSET ??_C@_0BK@KDPOINAO@ChangeBaseGreatPeopleRate?$AA@
	mov	ecx, DWORD PTR _t$[ebp]
	push	ecx
	mov	edx, DWORD PTR _L$[ebp]
	push	edx
	call	_lua_setfield
	add	esp, 12					; 0000000cH

; 217  : 	Method(GetGreatPeopleRateModifier);

	push	0
	push	OFFSET ?lGetGreatPeopleRateModifier@CvLuaCity@@KAHPAUlua_State@@@Z ; CvLuaCity::lGetGreatPeopleRateModifier
	mov	eax, DWORD PTR _L$[ebp]
	push	eax
	call	_lua_pushcclosure
	add	esp, 12					; 0000000cH
	push	OFFSET ??_C@_0BL@NNNBCPJN@GetGreatPeopleRateModifier?$AA@
	mov	ecx, DWORD PTR _t$[ebp]
	push	ecx
	mov	edx, DWORD PTR _L$[ebp]
	push	edx
	call	_lua_setfield
	add	esp, 12					; 0000000cH

; 218  : 
; 219  : 	Method(GetJONSCultureStored);

	push	0
	push	OFFSET ?lGetJONSCultureStored@CvLuaCity@@KAHPAUlua_State@@@Z ; CvLuaCity::lGetJONSCultureStored
	mov	eax, DWORD PTR _L$[ebp]
	push	eax
	call	_lua_pushcclosure
	add	esp, 12					; 0000000cH
	push	OFFSET ??_C@_0BF@KMMIJFNE@GetJONSCultureStored?$AA@
	mov	ecx, DWORD PTR _t$[ebp]
	push	ecx
	mov	edx, DWORD PTR _L$[ebp]
	push	edx
	call	_lua_setfield
	add	esp, 12					; 0000000cH

; 220  : 	Method(SetJONSCultureStored);

	push	0
	push	OFFSET ?lSetJONSCultureStored@CvLuaCity@@KAHPAUlua_State@@@Z ; CvLuaCity::lSetJONSCultureStored
	mov	eax, DWORD PTR _L$[ebp]
	push	eax
	call	_lua_pushcclosure
	add	esp, 12					; 0000000cH
	push	OFFSET ??_C@_0BF@PFNFIDID@SetJONSCultureStored?$AA@
	mov	ecx, DWORD PTR _t$[ebp]
	push	ecx
	mov	edx, DWORD PTR _L$[ebp]
	push	edx
	call	_lua_setfield
	add	esp, 12					; 0000000cH

; 221  : 	Method(ChangeJONSCultureStored);

	push	0
	push	OFFSET ?lChangeJONSCultureStored@CvLuaCity@@KAHPAUlua_State@@@Z ; CvLuaCity::lChangeJONSCultureStored
	mov	eax, DWORD PTR _L$[ebp]
	push	eax
	call	_lua_pushcclosure
	add	esp, 12					; 0000000cH
	push	OFFSET ??_C@_0BI@EBCOCIEG@ChangeJONSCultureStored?$AA@
	mov	ecx, DWORD PTR _t$[ebp]
	push	ecx
	mov	edx, DWORD PTR _L$[ebp]
	push	edx
	call	_lua_setfield
	add	esp, 12					; 0000000cH

; 222  : #ifdef AUI_PLAYER_FIX_JONS_CULTURE_IS_T100
; 223  : 	Method(GetJONSCultureStoredTimes100);

	push	0
	push	OFFSET ?lGetJONSCultureStoredTimes100@CvLuaCity@@KAHPAUlua_State@@@Z ; CvLuaCity::lGetJONSCultureStoredTimes100
	mov	eax, DWORD PTR _L$[ebp]
	push	eax
	call	_lua_pushcclosure
	add	esp, 12					; 0000000cH
	push	OFFSET ??_C@_0BN@CIEBABKN@GetJONSCultureStoredTimes100?$AA@
	mov	ecx, DWORD PTR _t$[ebp]
	push	ecx
	mov	edx, DWORD PTR _L$[ebp]
	push	edx
	call	_lua_setfield
	add	esp, 12					; 0000000cH

; 224  : 	Method(SetJONSCultureStoredTimes100);

	push	0
	push	OFFSET ?lSetJONSCultureStoredTimes100@CvLuaCity@@KAHPAUlua_State@@@Z ; CvLuaCity::lSetJONSCultureStoredTimes100
	mov	eax, DWORD PTR _L$[ebp]
	push	eax
	call	_lua_pushcclosure
	add	esp, 12					; 0000000cH
	push	OFFSET ??_C@_0BN@PJOHOOHJ@SetJONSCultureStoredTimes100?$AA@
	mov	ecx, DWORD PTR _t$[ebp]
	push	ecx
	mov	edx, DWORD PTR _L$[ebp]
	push	edx
	call	_lua_setfield
	add	esp, 12					; 0000000cH

; 225  : 	Method(ChangeJONSCultureStoredTimes100);

	push	0
	push	OFFSET ?lChangeJONSCultureStoredTimes100@CvLuaCity@@KAHPAUlua_State@@@Z ; CvLuaCity::lChangeJONSCultureStoredTimes100
	mov	eax, DWORD PTR _L$[ebp]
	push	eax
	call	_lua_pushcclosure
	add	esp, 12					; 0000000cH
	push	OFFSET ??_C@_0CA@BEBPGHLA@ChangeJONSCultureStoredTimes100?$AA@
	mov	ecx, DWORD PTR _t$[ebp]
	push	ecx
	mov	edx, DWORD PTR _L$[ebp]
	push	edx
	call	_lua_setfield
	add	esp, 12					; 0000000cH

; 226  : 	Method(GetJONSCulturePerTurnTimes100);

	push	0
	push	OFFSET ?lGetJONSCulturePerTurnTimes100@CvLuaCity@@KAHPAUlua_State@@@Z ; CvLuaCity::lGetJONSCulturePerTurnTimes100
	mov	eax, DWORD PTR _L$[ebp]
	push	eax
	call	_lua_pushcclosure
	add	esp, 12					; 0000000cH
	push	OFFSET ??_C@_0BO@HDNKJLLK@GetJONSCulturePerTurnTimes100?$AA@
	mov	ecx, DWORD PTR _t$[ebp]
	push	ecx
	mov	edx, DWORD PTR _L$[ebp]
	push	edx
	call	_lua_setfield
	add	esp, 12					; 0000000cH

; 227  : #endif
; 228  : 	Method(GetJONSCultureLevel);

	push	0
	push	OFFSET ?lGetJONSCultureLevel@CvLuaCity@@KAHPAUlua_State@@@Z ; CvLuaCity::lGetJONSCultureLevel
	mov	eax, DWORD PTR _L$[ebp]
	push	eax
	call	_lua_pushcclosure
	add	esp, 12					; 0000000cH
	push	OFFSET ??_C@_0BE@HEAJCJLP@GetJONSCultureLevel?$AA@
	mov	ecx, DWORD PTR _t$[ebp]
	push	ecx
	mov	edx, DWORD PTR _L$[ebp]
	push	edx
	call	_lua_setfield
	add	esp, 12					; 0000000cH

; 229  : 	Method(SetJONSCultureLevel);

	push	0
	push	OFFSET ?lSetJONSCultureLevel@CvLuaCity@@KAHPAUlua_State@@@Z ; CvLuaCity::lSetJONSCultureLevel
	mov	eax, DWORD PTR _L$[ebp]
	push	eax
	call	_lua_pushcclosure
	add	esp, 12					; 0000000cH
	push	OFFSET ??_C@_0BE@NKCCGJMD@SetJONSCultureLevel?$AA@
	mov	ecx, DWORD PTR _t$[ebp]
	push	ecx
	mov	edx, DWORD PTR _L$[ebp]
	push	edx
	call	_lua_setfield
	add	esp, 12					; 0000000cH

; 230  : 	Method(ChangeJONSCultureLevel);

	push	0
	push	OFFSET ?lChangeJONSCultureLevel@CvLuaCity@@KAHPAUlua_State@@@Z ; CvLuaCity::lChangeJONSCultureLevel
	mov	eax, DWORD PTR _L$[ebp]
	push	eax
	call	_lua_pushcclosure
	add	esp, 12					; 0000000cH
	push	OFFSET ??_C@_0BH@CKDHJLDP@ChangeJONSCultureLevel?$AA@
	mov	ecx, DWORD PTR _t$[ebp]
	push	ecx
	mov	edx, DWORD PTR _L$[ebp]
	push	edx
	call	_lua_setfield
	add	esp, 12					; 0000000cH

; 231  : 	Method(DoJONSCultureLevelIncrease);

	push	0
	push	OFFSET ?lDoJONSCultureLevelIncrease@CvLuaCity@@KAHPAUlua_State@@@Z ; CvLuaCity::lDoJONSCultureLevelIncrease
	mov	eax, DWORD PTR _L$[ebp]
	push	eax
	call	_lua_pushcclosure
	add	esp, 12					; 0000000cH
	push	OFFSET ??_C@_0BL@IFAKDEMK@DoJONSCultureLevelIncrease?$AA@
	mov	ecx, DWORD PTR _t$[ebp]
	push	ecx
	mov	edx, DWORD PTR _L$[ebp]
	push	edx
	call	_lua_setfield
	add	esp, 12					; 0000000cH

; 232  : 	Method(GetJONSCultureThreshold);

	push	0
	push	OFFSET ?lGetJONSCultureThreshold@CvLuaCity@@KAHPAUlua_State@@@Z ; CvLuaCity::lGetJONSCultureThreshold
	mov	eax, DWORD PTR _L$[ebp]
	push	eax
	call	_lua_pushcclosure
	add	esp, 12					; 0000000cH
	push	OFFSET ??_C@_0BI@MNIAPCAO@GetJONSCultureThreshold?$AA@
	mov	ecx, DWORD PTR _t$[ebp]
	push	ecx
	mov	edx, DWORD PTR _L$[ebp]
	push	edx
	call	_lua_setfield
	add	esp, 12					; 0000000cH

; 233  : 
; 234  : 	Method(GetJONSCulturePerTurn);

	push	0
	push	OFFSET ?lGetJONSCulturePerTurn@CvLuaCity@@KAHPAUlua_State@@@Z ; CvLuaCity::lGetJONSCulturePerTurn
	mov	eax, DWORD PTR _L$[ebp]
	push	eax
	call	_lua_pushcclosure
	add	esp, 12					; 0000000cH
	push	OFFSET ??_C@_0BG@IMDBELFE@GetJONSCulturePerTurn?$AA@
	mov	ecx, DWORD PTR _t$[ebp]
	push	ecx
	mov	edx, DWORD PTR _L$[ebp]
	push	edx
	call	_lua_setfield
	add	esp, 12					; 0000000cH

; 235  : 
; 236  : 	Method(GetBaseJONSCulturePerTurn);

	push	0
	push	OFFSET ?lGetBaseJONSCulturePerTurn@CvLuaCity@@KAHPAUlua_State@@@Z ; CvLuaCity::lGetBaseJONSCulturePerTurn
	mov	eax, DWORD PTR _L$[ebp]
	push	eax
	call	_lua_pushcclosure
	add	esp, 12					; 0000000cH
	push	OFFSET ??_C@_0BK@CGPFDHCN@GetBaseJONSCulturePerTurn?$AA@
	mov	ecx, DWORD PTR _t$[ebp]
	push	ecx
	mov	edx, DWORD PTR _L$[ebp]
	push	edx
	call	_lua_setfield
	add	esp, 12					; 0000000cH

; 237  : 	Method(GetJONSCulturePerTurnFromBuildings);

	push	0
	push	OFFSET ?lGetJONSCulturePerTurnFromBuildings@CvLuaCity@@KAHPAUlua_State@@@Z ; CvLuaCity::lGetJONSCulturePerTurnFromBuildings
	mov	eax, DWORD PTR _L$[ebp]
	push	eax
	call	_lua_pushcclosure
	add	esp, 12					; 0000000cH
	push	OFFSET ??_C@_0CD@JLHINFC@GetJONSCulturePerTurnFromBuildin@
	mov	ecx, DWORD PTR _t$[ebp]
	push	ecx
	mov	edx, DWORD PTR _L$[ebp]
	push	edx
	call	_lua_setfield
	add	esp, 12					; 0000000cH

; 238  : 	Method(ChangeJONSCulturePerTurnFromBuildings);

	push	0
	push	OFFSET ?lChangeJONSCulturePerTurnFromBuildings@CvLuaCity@@KAHPAUlua_State@@@Z ; CvLuaCity::lChangeJONSCulturePerTurnFromBuildings
	mov	eax, DWORD PTR _L$[ebp]
	push	eax
	call	_lua_pushcclosure
	add	esp, 12					; 0000000cH
	push	OFFSET ??_C@_0CG@KGCOHKJP@ChangeJONSCulturePerTurnFromBuil@
	mov	ecx, DWORD PTR _t$[ebp]
	push	ecx
	mov	edx, DWORD PTR _L$[ebp]
	push	edx
	call	_lua_setfield
	add	esp, 12					; 0000000cH

; 239  : 	Method(GetJONSCulturePerTurnFromPolicies);

	push	0
	push	OFFSET ?lGetJONSCulturePerTurnFromPolicies@CvLuaCity@@KAHPAUlua_State@@@Z ; CvLuaCity::lGetJONSCulturePerTurnFromPolicies
	mov	eax, DWORD PTR _L$[ebp]
	push	eax
	call	_lua_pushcclosure
	add	esp, 12					; 0000000cH
	push	OFFSET ??_C@_0CC@DFKOEECO@GetJONSCulturePerTurnFromPolicie@
	mov	ecx, DWORD PTR _t$[ebp]
	push	ecx
	mov	edx, DWORD PTR _L$[ebp]
	push	edx
	call	_lua_setfield
	add	esp, 12					; 0000000cH

; 240  : 	Method(ChangeJONSCulturePerTurnFromPolicies);

	push	0
	push	OFFSET ?lChangeJONSCulturePerTurnFromPolicies@CvLuaCity@@KAHPAUlua_State@@@Z ; CvLuaCity::lChangeJONSCulturePerTurnFromPolicies
	mov	eax, DWORD PTR _L$[ebp]
	push	eax
	call	_lua_pushcclosure
	add	esp, 12					; 0000000cH
	push	OFFSET ??_C@_0CF@KGECMFIH@ChangeJONSCulturePerTurnFromPoli@
	mov	ecx, DWORD PTR _t$[ebp]
	push	ecx
	mov	edx, DWORD PTR _L$[ebp]
	push	edx
	call	_lua_setfield
	add	esp, 12					; 0000000cH

; 241  : 	Method(GetJONSCulturePerTurnFromSpecialists);

	push	0
	push	OFFSET ?lGetJONSCulturePerTurnFromSpecialists@CvLuaCity@@KAHPAUlua_State@@@Z ; CvLuaCity::lGetJONSCulturePerTurnFromSpecialists
	mov	eax, DWORD PTR _L$[ebp]
	push	eax
	call	_lua_pushcclosure
	add	esp, 12					; 0000000cH
	push	OFFSET ??_C@_0CF@DFBDEFBH@GetJONSCulturePerTurnFromSpecial@
	mov	ecx, DWORD PTR _t$[ebp]
	push	ecx
	mov	edx, DWORD PTR _L$[ebp]
	push	edx
	call	_lua_setfield
	add	esp, 12					; 0000000cH

; 242  : 	Method(ChangeJONSCulturePerTurnFromSpecialists);

	push	0
	push	OFFSET ?lChangeJONSCulturePerTurnFromSpecialists@CvLuaCity@@KAHPAUlua_State@@@Z ; CvLuaCity::lChangeJONSCulturePerTurnFromSpecialists
	mov	eax, DWORD PTR _L$[ebp]
	push	eax
	call	_lua_pushcclosure
	add	esp, 12					; 0000000cH
	push	OFFSET ??_C@_0CI@GIJOCEDC@ChangeJONSCulturePerTurnFromSpec@
	mov	ecx, DWORD PTR _t$[ebp]
	push	ecx
	mov	edx, DWORD PTR _L$[ebp]
	push	edx
	call	_lua_setfield
	add	esp, 12					; 0000000cH

; 243  : 	Method(GetJONSCulturePerTurnFromGreatWorks);

	push	0
	push	OFFSET ?lGetJONSCulturePerTurnFromGreatWorks@CvLuaCity@@KAHPAUlua_State@@@Z ; CvLuaCity::lGetJONSCulturePerTurnFromGreatWorks
	mov	eax, DWORD PTR _L$[ebp]
	push	eax
	call	_lua_pushcclosure
	add	esp, 12					; 0000000cH
	push	OFFSET ??_C@_0CE@HOPIHKFI@GetJONSCulturePerTurnFromGreatWo@
	mov	ecx, DWORD PTR _t$[ebp]
	push	ecx
	mov	edx, DWORD PTR _L$[ebp]
	push	edx
	call	_lua_setfield
	add	esp, 12					; 0000000cH

; 244  : 	Method(GetJONSCulturePerTurnFromTraits);

	push	0
	push	OFFSET ?lGetJONSCulturePerTurnFromTraits@CvLuaCity@@KAHPAUlua_State@@@Z ; CvLuaCity::lGetJONSCulturePerTurnFromTraits
	mov	eax, DWORD PTR _L$[ebp]
	push	eax
	call	_lua_pushcclosure
	add	esp, 12					; 0000000cH
	push	OFFSET ??_C@_0CA@MKHKHIDI@GetJONSCulturePerTurnFromTraits?$AA@
	mov	ecx, DWORD PTR _t$[ebp]
	push	ecx
	mov	edx, DWORD PTR _L$[ebp]
	push	edx
	call	_lua_setfield
	add	esp, 12					; 0000000cH

; 245  : 	Method(GetJONSCulturePerTurnFromReligion);

	push	0
	push	OFFSET ?lGetJONSCulturePerTurnFromReligion@CvLuaCity@@KAHPAUlua_State@@@Z ; CvLuaCity::lGetJONSCulturePerTurnFromReligion
	mov	eax, DWORD PTR _L$[ebp]
	push	eax
	call	_lua_pushcclosure
	add	esp, 12					; 0000000cH
	push	OFFSET ??_C@_0CC@INODDPGK@GetJONSCulturePerTurnFromReligio@
	mov	ecx, DWORD PTR _t$[ebp]
	push	ecx
	mov	edx, DWORD PTR _L$[ebp]
	push	edx
	call	_lua_setfield
	add	esp, 12					; 0000000cH

; 246  : 	Method(GetJONSCulturePerTurnFromLeagues);

	push	0
	push	OFFSET ?lGetJONSCulturePerTurnFromLeagues@CvLuaCity@@KAHPAUlua_State@@@Z ; CvLuaCity::lGetJONSCulturePerTurnFromLeagues
	mov	eax, DWORD PTR _L$[ebp]
	push	eax
	call	_lua_pushcclosure
	add	esp, 12					; 0000000cH
	push	OFFSET ??_C@_0CB@DONKGGML@GetJONSCulturePerTurnFromLeagues@
	mov	ecx, DWORD PTR _t$[ebp]
	push	ecx
	mov	edx, DWORD PTR _L$[ebp]
	push	edx
	call	_lua_setfield
	add	esp, 12					; 0000000cH

; 247  : 
; 248  : 	Method(GetCultureRateModifier);

	push	0
	push	OFFSET ?lGetCultureRateModifier@CvLuaCity@@KAHPAUlua_State@@@Z ; CvLuaCity::lGetCultureRateModifier
	mov	eax, DWORD PTR _L$[ebp]
	push	eax
	call	_lua_pushcclosure
	add	esp, 12					; 0000000cH
	push	OFFSET ??_C@_0BH@CIAJBLLP@GetCultureRateModifier?$AA@
	mov	ecx, DWORD PTR _t$[ebp]
	push	ecx
	mov	edx, DWORD PTR _L$[ebp]
	push	edx
	call	_lua_setfield
	add	esp, 12					; 0000000cH

; 249  : 	Method(ChangeCultureRateModifier);

	push	0
	push	OFFSET ?lChangeCultureRateModifier@CvLuaCity@@KAHPAUlua_State@@@Z ; CvLuaCity::lChangeCultureRateModifier
	mov	eax, DWORD PTR _L$[ebp]
	push	eax
	call	_lua_pushcclosure
	add	esp, 12					; 0000000cH
	push	OFFSET ??_C@_0BK@NOKONBPA@ChangeCultureRateModifier?$AA@
	mov	ecx, DWORD PTR _t$[ebp]
	push	ecx
	mov	edx, DWORD PTR _L$[ebp]
	push	edx
	call	_lua_setfield
	add	esp, 12					; 0000000cH

; 250  : 
; 251  : 	Method(GetNumGreatWorks);

	push	0
	push	OFFSET ?lGetNumGreatWorks@CvLuaCity@@KAHPAUlua_State@@@Z ; CvLuaCity::lGetNumGreatWorks
	mov	eax, DWORD PTR _L$[ebp]
	push	eax
	call	_lua_pushcclosure
	add	esp, 12					; 0000000cH
	push	OFFSET ??_C@_0BB@ILOKIPKM@GetNumGreatWorks?$AA@
	mov	ecx, DWORD PTR _t$[ebp]
	push	ecx
	mov	edx, DWORD PTR _L$[ebp]
	push	edx
	call	_lua_setfield
	add	esp, 12					; 0000000cH

; 252  : 	Method(GetNumGreatWorkSlots);

	push	0
	push	OFFSET ?lGetNumGreatWorkSlots@CvLuaCity@@KAHPAUlua_State@@@Z ; CvLuaCity::lGetNumGreatWorkSlots
	mov	eax, DWORD PTR _L$[ebp]
	push	eax
	call	_lua_pushcclosure
	add	esp, 12					; 0000000cH
	push	OFFSET ??_C@_0BF@FMOOCJFI@GetNumGreatWorkSlots?$AA@
	mov	ecx, DWORD PTR _t$[ebp]
	push	ecx
	mov	edx, DWORD PTR _L$[ebp]
	push	edx
	call	_lua_setfield
	add	esp, 12					; 0000000cH

; 253  : 	Method(GetBaseTourism);

	push	0
	push	OFFSET ?lGetBaseTourism@CvLuaCity@@KAHPAUlua_State@@@Z ; CvLuaCity::lGetBaseTourism
	mov	eax, DWORD PTR _L$[ebp]
	push	eax
	call	_lua_pushcclosure
	add	esp, 12					; 0000000cH
	push	OFFSET ??_C@_0P@PJMIHAEJ@GetBaseTourism?$AA@
	mov	ecx, DWORD PTR _t$[ebp]
	push	ecx
	mov	edx, DWORD PTR _L$[ebp]
	push	edx
	call	_lua_setfield
	add	esp, 12					; 0000000cH

; 254  : 	Method(GetTourismMultiplier);

	push	0
	push	OFFSET ?lGetTourismMultiplier@CvLuaCity@@KAHPAUlua_State@@@Z ; CvLuaCity::lGetTourismMultiplier
	mov	eax, DWORD PTR _L$[ebp]
	push	eax
	call	_lua_pushcclosure
	add	esp, 12					; 0000000cH
	push	OFFSET ??_C@_0BF@MHJNCJDK@GetTourismMultiplier?$AA@
	mov	ecx, DWORD PTR _t$[ebp]
	push	ecx
	mov	edx, DWORD PTR _L$[ebp]
	push	edx
	call	_lua_setfield
	add	esp, 12					; 0000000cH

; 255  : 	Method(GetTourismTooltip);

	push	0
	push	OFFSET ?lGetTourismTooltip@CvLuaCity@@KAHPAUlua_State@@@Z ; CvLuaCity::lGetTourismTooltip
	mov	eax, DWORD PTR _L$[ebp]
	push	eax
	call	_lua_pushcclosure
	add	esp, 12					; 0000000cH
	push	OFFSET ??_C@_0BC@OAAAMMGM@GetTourismTooltip?$AA@
	mov	ecx, DWORD PTR _t$[ebp]
	push	ecx
	mov	edx, DWORD PTR _L$[ebp]
	push	edx
	call	_lua_setfield
	add	esp, 12					; 0000000cH

; 256  : 	Method(GetFilledSlotsTooltip);

	push	0
	push	OFFSET ?lGetFilledSlotsTooltip@CvLuaCity@@KAHPAUlua_State@@@Z ; CvLuaCity::lGetFilledSlotsTooltip
	mov	eax, DWORD PTR _L$[ebp]
	push	eax
	call	_lua_pushcclosure
	add	esp, 12					; 0000000cH
	push	OFFSET ??_C@_0BG@CNAADLGC@GetFilledSlotsTooltip?$AA@
	mov	ecx, DWORD PTR _t$[ebp]
	push	ecx
	mov	edx, DWORD PTR _L$[ebp]
	push	edx
	call	_lua_setfield
	add	esp, 12					; 0000000cH

; 257  : 	Method(GetTotalSlotsTooltip);

	push	0
	push	OFFSET ?lGetTotalSlotsTooltip@CvLuaCity@@KAHPAUlua_State@@@Z ; CvLuaCity::lGetTotalSlotsTooltip
	mov	eax, DWORD PTR _L$[ebp]
	push	eax
	call	_lua_pushcclosure
	add	esp, 12					; 0000000cH
	push	OFFSET ??_C@_0BF@CDKAAHGE@GetTotalSlotsTooltip?$AA@
	mov	ecx, DWORD PTR _t$[ebp]
	push	ecx
	mov	edx, DWORD PTR _L$[ebp]
	push	edx
	call	_lua_setfield
	add	esp, 12					; 0000000cH

; 258  : 	Method(ClearGreatWorks);

	push	0
	push	OFFSET ?lClearGreatWorks@CvLuaCity@@KAHPAUlua_State@@@Z ; CvLuaCity::lClearGreatWorks
	mov	eax, DWORD PTR _L$[ebp]
	push	eax
	call	_lua_pushcclosure
	add	esp, 12					; 0000000cH
	push	OFFSET ??_C@_0BA@JEEBJAFO@ClearGreatWorks?$AA@
	mov	ecx, DWORD PTR _t$[ebp]
	push	ecx
	mov	edx, DWORD PTR _L$[ebp]
	push	edx
	call	_lua_setfield
	add	esp, 12					; 0000000cH

; 259  : 	Method(GetFaithBuildingTourism);

	push	0
	push	OFFSET ?lGetFaithBuildingTourism@CvLuaCity@@KAHPAUlua_State@@@Z ; CvLuaCity::lGetFaithBuildingTourism
	mov	eax, DWORD PTR _L$[ebp]
	push	eax
	call	_lua_pushcclosure
	add	esp, 12					; 0000000cH
	push	OFFSET ??_C@_0BI@KDLLAHHF@GetFaithBuildingTourism?$AA@
	mov	ecx, DWORD PTR _t$[ebp]
	push	ecx
	mov	edx, DWORD PTR _L$[ebp]
	push	edx
	call	_lua_setfield
	add	esp, 12					; 0000000cH

; 260  : 
; 261  : 	Method(IsThemingBonusPossible);

	push	0
	push	OFFSET ?lIsThemingBonusPossible@CvLuaCity@@KAHPAUlua_State@@@Z ; CvLuaCity::lIsThemingBonusPossible
	mov	eax, DWORD PTR _L$[ebp]
	push	eax
	call	_lua_pushcclosure
	add	esp, 12					; 0000000cH
	push	OFFSET ??_C@_0BH@OADCDAOP@IsThemingBonusPossible?$AA@
	mov	ecx, DWORD PTR _t$[ebp]
	push	ecx
	mov	edx, DWORD PTR _L$[ebp]
	push	edx
	call	_lua_setfield
	add	esp, 12					; 0000000cH

; 262  : 	Method(GetThemingBonus);

	push	0
	push	OFFSET ?lGetThemingBonus@CvLuaCity@@KAHPAUlua_State@@@Z ; CvLuaCity::lGetThemingBonus
	mov	eax, DWORD PTR _L$[ebp]
	push	eax
	call	_lua_pushcclosure
	add	esp, 12					; 0000000cH
	push	OFFSET ??_C@_0BA@PNNDDOA@GetThemingBonus?$AA@
	mov	ecx, DWORD PTR _t$[ebp]
	push	ecx
	mov	edx, DWORD PTR _L$[ebp]
	push	edx
	call	_lua_setfield
	add	esp, 12					; 0000000cH

; 263  : 	Method(GetThemingTooltip);

	push	0
	push	OFFSET ?lGetThemingTooltip@CvLuaCity@@KAHPAUlua_State@@@Z ; CvLuaCity::lGetThemingTooltip
	mov	eax, DWORD PTR _L$[ebp]
	push	eax
	call	_lua_pushcclosure
	add	esp, 12					; 0000000cH
	push	OFFSET ??_C@_0BC@IDIDCDN@GetThemingTooltip?$AA@
	mov	ecx, DWORD PTR _t$[ebp]
	push	ecx
	mov	edx, DWORD PTR _L$[ebp]
	push	edx
	call	_lua_setfield
	add	esp, 12					; 0000000cH

; 264  : 
; 265  : 	Method(GetFaithPerTurn);

	push	0
	push	OFFSET ?lGetFaithPerTurn@CvLuaCity@@KAHPAUlua_State@@@Z ; CvLuaCity::lGetFaithPerTurn
	mov	eax, DWORD PTR _L$[ebp]
	push	eax
	call	_lua_pushcclosure
	add	esp, 12					; 0000000cH
	push	OFFSET ??_C@_0BA@CIJNECBN@GetFaithPerTurn?$AA@
	mov	ecx, DWORD PTR _t$[ebp]
	push	ecx
	mov	edx, DWORD PTR _L$[ebp]
	push	edx
	call	_lua_setfield
	add	esp, 12					; 0000000cH

; 266  : 	Method(GetFaithPerTurnFromBuildings);

	push	0
	push	OFFSET ?lGetFaithPerTurnFromBuildings@CvLuaCity@@KAHPAUlua_State@@@Z ; CvLuaCity::lGetFaithPerTurnFromBuildings
	mov	eax, DWORD PTR _L$[ebp]
	push	eax
	call	_lua_pushcclosure
	add	esp, 12					; 0000000cH
	push	OFFSET ??_C@_0BN@PFNCKOKE@GetFaithPerTurnFromBuildings?$AA@
	mov	ecx, DWORD PTR _t$[ebp]
	push	ecx
	mov	edx, DWORD PTR _L$[ebp]
	push	edx
	call	_lua_setfield
	add	esp, 12					; 0000000cH

; 267  : 	Method(GetFaithPerTurnFromPolicies);

	push	0
	push	OFFSET ?lGetFaithPerTurnFromPolicies@CvLuaCity@@KAHPAUlua_State@@@Z ; CvLuaCity::lGetFaithPerTurnFromPolicies
	mov	eax, DWORD PTR _L$[ebp]
	push	eax
	call	_lua_pushcclosure
	add	esp, 12					; 0000000cH
	push	OFFSET ??_C@_0BM@OJAFMOHF@GetFaithPerTurnFromPolicies?$AA@
	mov	ecx, DWORD PTR _t$[ebp]
	push	ecx
	mov	edx, DWORD PTR _L$[ebp]
	push	edx
	call	_lua_setfield
	add	esp, 12					; 0000000cH

; 268  : 	Method(GetFaithPerTurnFromTraits);

	push	0
	push	OFFSET ?lGetFaithPerTurnFromTraits@CvLuaCity@@KAHPAUlua_State@@@Z ; CvLuaCity::lGetFaithPerTurnFromTraits
	mov	eax, DWORD PTR _L$[ebp]
	push	eax
	call	_lua_pushcclosure
	add	esp, 12					; 0000000cH
	push	OFFSET ??_C@_0BK@EKHAOHLH@GetFaithPerTurnFromTraits?$AA@
	mov	ecx, DWORD PTR _t$[ebp]
	push	ecx
	mov	edx, DWORD PTR _L$[ebp]
	push	edx
	call	_lua_setfield
	add	esp, 12					; 0000000cH

; 269  : 	Method(GetFaithPerTurnFromReligion);

	push	0
	push	OFFSET ?lGetFaithPerTurnFromReligion@CvLuaCity@@KAHPAUlua_State@@@Z ; CvLuaCity::lGetFaithPerTurnFromReligion
	mov	eax, DWORD PTR _L$[ebp]
	push	eax
	call	_lua_pushcclosure
	add	esp, 12					; 0000000cH
	push	OFFSET ??_C@_0BM@FBEILFDB@GetFaithPerTurnFromReligion?$AA@
	mov	ecx, DWORD PTR _t$[ebp]
	push	ecx
	mov	edx, DWORD PTR _L$[ebp]
	push	edx
	call	_lua_setfield
	add	esp, 12					; 0000000cH

; 270  : 
; 271  : 	Method(IsReligionInCity);

	push	0
	push	OFFSET ?lIsReligionInCity@CvLuaCity@@KAHPAUlua_State@@@Z ; CvLuaCity::lIsReligionInCity
	mov	eax, DWORD PTR _L$[ebp]
	push	eax
	call	_lua_pushcclosure
	add	esp, 12					; 0000000cH
	push	OFFSET ??_C@_0BB@PGCOPPAF@IsReligionInCity?$AA@
	mov	ecx, DWORD PTR _t$[ebp]
	push	ecx
	mov	edx, DWORD PTR _L$[ebp]
	push	edx
	call	_lua_setfield
	add	esp, 12					; 0000000cH

; 272  : 	Method(IsHolyCityForReligion);

	push	0
	push	OFFSET ?lIsHolyCityForReligion@CvLuaCity@@KAHPAUlua_State@@@Z ; CvLuaCity::lIsHolyCityForReligion
	mov	eax, DWORD PTR _L$[ebp]
	push	eax
	call	_lua_pushcclosure
	add	esp, 12					; 0000000cH
	push	OFFSET ??_C@_0BG@HPDNEPKN@IsHolyCityForReligion?$AA@
	mov	ecx, DWORD PTR _t$[ebp]
	push	ecx
	mov	edx, DWORD PTR _L$[ebp]
	push	edx
	call	_lua_setfield
	add	esp, 12					; 0000000cH

; 273  : 	Method(IsHolyCityAnyReligion);

	push	0
	push	OFFSET ?lIsHolyCityAnyReligion@CvLuaCity@@KAHPAUlua_State@@@Z ; CvLuaCity::lIsHolyCityAnyReligion
	mov	eax, DWORD PTR _L$[ebp]
	push	eax
	call	_lua_pushcclosure
	add	esp, 12					; 0000000cH
	push	OFFSET ??_C@_0BG@DCMLICBF@IsHolyCityAnyReligion?$AA@
	mov	ecx, DWORD PTR _t$[ebp]
	push	ecx
	mov	edx, DWORD PTR _L$[ebp]
	push	edx
	call	_lua_setfield
	add	esp, 12					; 0000000cH

; 274  : 
; 275  : 	Method(GetNumFollowers);

	push	0
	push	OFFSET ?lGetNumFollowers@CvLuaCity@@KAHPAUlua_State@@@Z ; CvLuaCity::lGetNumFollowers
	mov	eax, DWORD PTR _L$[ebp]
	push	eax
	call	_lua_pushcclosure
	add	esp, 12					; 0000000cH
	push	OFFSET ??_C@_0BA@BEJIHHEO@GetNumFollowers?$AA@
	mov	ecx, DWORD PTR _t$[ebp]
	push	ecx
	mov	edx, DWORD PTR _L$[ebp]
	push	edx
	call	_lua_setfield
	add	esp, 12					; 0000000cH

; 276  : 	Method(GetReligiousMajority);

	push	0
	push	OFFSET ?lGetReligiousMajority@CvLuaCity@@KAHPAUlua_State@@@Z ; CvLuaCity::lGetReligiousMajority
	mov	eax, DWORD PTR _L$[ebp]
	push	eax
	call	_lua_pushcclosure
	add	esp, 12					; 0000000cH
	push	OFFSET ??_C@_0BF@CPDBKIPJ@GetReligiousMajority?$AA@
	mov	ecx, DWORD PTR _t$[ebp]
	push	ecx
	mov	edx, DWORD PTR _L$[ebp]
	push	edx
	call	_lua_setfield
	add	esp, 12					; 0000000cH

; 277  : 	Method(GetSecondaryReligion);

	push	0
	push	OFFSET ?lGetSecondaryReligion@CvLuaCity@@KAHPAUlua_State@@@Z ; CvLuaCity::lGetSecondaryReligion
	mov	eax, DWORD PTR _L$[ebp]
	push	eax
	call	_lua_pushcclosure
	add	esp, 12					; 0000000cH
	push	OFFSET ??_C@_0BF@KNGLOBDC@GetSecondaryReligion?$AA@
	mov	ecx, DWORD PTR _t$[ebp]
	push	ecx
	mov	edx, DWORD PTR _L$[ebp]
	push	edx
	call	_lua_setfield
	add	esp, 12					; 0000000cH

; 278  : 	Method(GetSecondaryReligionPantheonBelief);

	push	0
	push	OFFSET ?lGetSecondaryReligionPantheonBelief@CvLuaCity@@KAHPAUlua_State@@@Z ; CvLuaCity::lGetSecondaryReligionPantheonBelief
	mov	eax, DWORD PTR _L$[ebp]
	push	eax
	call	_lua_pushcclosure
	add	esp, 12					; 0000000cH
	push	OFFSET ??_C@_0CD@GBBECGLH@GetSecondaryReligionPantheonBeli@
	mov	ecx, DWORD PTR _t$[ebp]
	push	ecx
	mov	edx, DWORD PTR _L$[ebp]
	push	edx
	call	_lua_setfield
	add	esp, 12					; 0000000cH

; 279  : 	Method(GetPressurePerTurn);

	push	0
	push	OFFSET ?lGetPressurePerTurn@CvLuaCity@@KAHPAUlua_State@@@Z ; CvLuaCity::lGetPressurePerTurn
	mov	eax, DWORD PTR _L$[ebp]
	push	eax
	call	_lua_pushcclosure
	add	esp, 12					; 0000000cH
	push	OFFSET ??_C@_0BD@JAFNIAKI@GetPressurePerTurn?$AA@
	mov	ecx, DWORD PTR _t$[ebp]
	push	ecx
	mov	edx, DWORD PTR _L$[ebp]
	push	edx
	call	_lua_setfield
	add	esp, 12					; 0000000cH

; 280  : 	Method(ConvertPercentFollowers);

	push	0
	push	OFFSET ?lConvertPercentFollowers@CvLuaCity@@KAHPAUlua_State@@@Z ; CvLuaCity::lConvertPercentFollowers
	mov	eax, DWORD PTR _L$[ebp]
	push	eax
	call	_lua_pushcclosure
	add	esp, 12					; 0000000cH
	push	OFFSET ??_C@_0BI@DDLKPOAO@ConvertPercentFollowers?$AA@
	mov	ecx, DWORD PTR _t$[ebp]
	push	ecx
	mov	edx, DWORD PTR _L$[ebp]
	push	edx
	call	_lua_setfield
	add	esp, 12					; 0000000cH

; 281  : 	Method(AdoptReligionFully);

	push	0
	push	OFFSET ?lAdoptReligionFully@CvLuaCity@@KAHPAUlua_State@@@Z ; CvLuaCity::lAdoptReligionFully
	mov	eax, DWORD PTR _L$[ebp]
	push	eax
	call	_lua_pushcclosure
	add	esp, 12					; 0000000cH
	push	OFFSET ??_C@_0BD@FBGNFBCF@AdoptReligionFully?$AA@
	mov	ecx, DWORD PTR _t$[ebp]
	push	ecx
	mov	edx, DWORD PTR _L$[ebp]
	push	edx
	call	_lua_setfield
	add	esp, 12					; 0000000cH

; 282  : 	Method(GetReligionBuildingClassHappiness);

	push	0
	push	OFFSET ?lGetReligionBuildingClassHappiness@CvLuaCity@@KAHPAUlua_State@@@Z ; CvLuaCity::lGetReligionBuildingClassHappiness
	mov	eax, DWORD PTR _L$[ebp]
	push	eax
	call	_lua_pushcclosure
	add	esp, 12					; 0000000cH
	push	OFFSET ??_C@_0CC@ENMDKGLO@GetReligionBuildingClassHappines@
	mov	ecx, DWORD PTR _t$[ebp]
	push	ecx
	mov	edx, DWORD PTR _L$[ebp]
	push	edx
	call	_lua_setfield
	add	esp, 12					; 0000000cH

; 283  : 	Method(GetReligionBuildingClassYieldChange);

	push	0
	push	OFFSET ?lGetReligionBuildingClassYieldChange@CvLuaCity@@KAHPAUlua_State@@@Z ; CvLuaCity::lGetReligionBuildingClassYieldChange
	mov	eax, DWORD PTR _L$[ebp]
	push	eax
	call	_lua_pushcclosure
	add	esp, 12					; 0000000cH
	push	OFFSET ??_C@_0CE@IHEOCEID@GetReligionBuildingClassYieldCha@
	mov	ecx, DWORD PTR _t$[ebp]
	push	ecx
	mov	edx, DWORD PTR _L$[ebp]
	push	edx
	call	_lua_setfield
	add	esp, 12					; 0000000cH

; 284  : 	Method(GetLeagueBuildingClassYieldChange);

	push	0
	push	OFFSET ?lGetLeagueBuildingClassYieldChange@CvLuaCity@@KAHPAUlua_State@@@Z ; CvLuaCity::lGetLeagueBuildingClassYieldChange
	mov	eax, DWORD PTR _L$[ebp]
	push	eax
	call	_lua_pushcclosure
	add	esp, 12					; 0000000cH
	push	OFFSET ??_C@_0CC@JAADPGKC@GetLeagueBuildingClassYieldChang@
	mov	ecx, DWORD PTR _t$[ebp]
	push	ecx
	mov	edx, DWORD PTR _L$[ebp]
	push	edx
	call	_lua_setfield
	add	esp, 12					; 0000000cH

; 285  : 	Method(GetNumTradeRoutesAddingPressure);

	push	0
	push	OFFSET ?lGetNumTradeRoutesAddingPressure@CvLuaCity@@KAHPAUlua_State@@@Z ; CvLuaCity::lGetNumTradeRoutesAddingPressure
	mov	eax, DWORD PTR _L$[ebp]
	push	eax
	call	_lua_pushcclosure
	add	esp, 12					; 0000000cH
	push	OFFSET ??_C@_0CA@FHBADINH@GetNumTradeRoutesAddingPressure?$AA@
	mov	ecx, DWORD PTR _t$[ebp]
	push	ecx
	mov	edx, DWORD PTR _L$[ebp]
	push	edx
	call	_lua_setfield
	add	esp, 12					; 0000000cH

; 286  : 
; 287  : 	Method(GetNumWorldWonders);

	push	0
	push	OFFSET ?lGetNumWorldWonders@CvLuaCity@@KAHPAUlua_State@@@Z ; CvLuaCity::lGetNumWorldWonders
	mov	eax, DWORD PTR _L$[ebp]
	push	eax
	call	_lua_pushcclosure
	add	esp, 12					; 0000000cH
	push	OFFSET ??_C@_0BD@FHKHHPIG@GetNumWorldWonders?$AA@
	mov	ecx, DWORD PTR _t$[ebp]
	push	ecx
	mov	edx, DWORD PTR _L$[ebp]
	push	edx
	call	_lua_setfield
	add	esp, 12					; 0000000cH

; 288  : 	Method(GetNumTeamWonders);

	push	0
	push	OFFSET ?lGetNumTeamWonders@CvLuaCity@@KAHPAUlua_State@@@Z ; CvLuaCity::lGetNumTeamWonders
	mov	eax, DWORD PTR _L$[ebp]
	push	eax
	call	_lua_pushcclosure
	add	esp, 12					; 0000000cH
	push	OFFSET ??_C@_0BC@OBPJLAFA@GetNumTeamWonders?$AA@
	mov	ecx, DWORD PTR _t$[ebp]
	push	ecx
	mov	edx, DWORD PTR _L$[ebp]
	push	edx
	call	_lua_setfield
	add	esp, 12					; 0000000cH

; 289  : 	Method(GetNumNationalWonders);

	push	0
	push	OFFSET ?lGetNumNationalWonders@CvLuaCity@@KAHPAUlua_State@@@Z ; CvLuaCity::lGetNumNationalWonders
	mov	eax, DWORD PTR _L$[ebp]
	push	eax
	call	_lua_pushcclosure
	add	esp, 12					; 0000000cH
	push	OFFSET ??_C@_0BG@HCJMDOLN@GetNumNationalWonders?$AA@
	mov	ecx, DWORD PTR _t$[ebp]
	push	ecx
	mov	edx, DWORD PTR _L$[ebp]
	push	edx
	call	_lua_setfield
	add	esp, 12					; 0000000cH

; 290  : 	Method(GetNumBuildings);

	push	0
	push	OFFSET ?lGetNumBuildings@CvLuaCity@@KAHPAUlua_State@@@Z ; CvLuaCity::lGetNumBuildings
	mov	eax, DWORD PTR _L$[ebp]
	push	eax
	call	_lua_pushcclosure
	add	esp, 12					; 0000000cH
	push	OFFSET ??_C@_0BA@BEIGCOAF@GetNumBuildings?$AA@
	mov	ecx, DWORD PTR _t$[ebp]
	push	ecx
	mov	edx, DWORD PTR _L$[ebp]
	push	edx
	call	_lua_setfield
	add	esp, 12					; 0000000cH

; 291  : 
; 292  : 	Method(GetWonderProductionModifier);

	push	0
	push	OFFSET ?lGetWonderProductionModifier@CvLuaCity@@KAHPAUlua_State@@@Z ; CvLuaCity::lGetWonderProductionModifier
	mov	eax, DWORD PTR _L$[ebp]
	push	eax
	call	_lua_pushcclosure
	add	esp, 12					; 0000000cH
	push	OFFSET ??_C@_0BM@HMIHDNFC@GetWonderProductionModifier?$AA@
	mov	ecx, DWORD PTR _t$[ebp]
	push	ecx
	mov	edx, DWORD PTR _L$[ebp]
	push	edx
	call	_lua_setfield
	add	esp, 12					; 0000000cH

; 293  : 	Method(ChangeWonderProductionModifier);

	push	0
	push	OFFSET ?lChangeWonderProductionModifier@CvLuaCity@@KAHPAUlua_State@@@Z ; CvLuaCity::lChangeWonderProductionModifier
	mov	eax, DWORD PTR _L$[ebp]
	push	eax
	call	_lua_pushcclosure
	add	esp, 12					; 0000000cH
	push	OFFSET ??_C@_0BP@CBAFPBHG@ChangeWonderProductionModifier?$AA@
	mov	ecx, DWORD PTR _t$[ebp]
	push	ecx
	mov	edx, DWORD PTR _L$[ebp]
	push	edx
	call	_lua_setfield
	add	esp, 12					; 0000000cH

; 294  : 
; 295  : 	Method(GetLocalResourceWonderProductionMod);

	push	0
	push	OFFSET ?lGetLocalResourceWonderProductionMod@CvLuaCity@@KAHPAUlua_State@@@Z ; CvLuaCity::lGetLocalResourceWonderProductionMod
	mov	eax, DWORD PTR _L$[ebp]
	push	eax
	call	_lua_pushcclosure
	add	esp, 12					; 0000000cH
	push	OFFSET ??_C@_0CE@JOONDJO@GetLocalResourceWonderProduction@
	mov	ecx, DWORD PTR _t$[ebp]
	push	ecx
	mov	edx, DWORD PTR _L$[ebp]
	push	edx
	call	_lua_setfield
	add	esp, 12					; 0000000cH

; 296  : 
; 297  : 	Method(ChangeHealRate);

	push	0
	push	OFFSET ?lChangeHealRate@CvLuaCity@@KAHPAUlua_State@@@Z ; CvLuaCity::lChangeHealRate
	mov	eax, DWORD PTR _L$[ebp]
	push	eax
	call	_lua_pushcclosure
	add	esp, 12					; 0000000cH
	push	OFFSET ??_C@_0P@DFIEFIFC@ChangeHealRate?$AA@
	mov	ecx, DWORD PTR _t$[ebp]
	push	ecx
	mov	edx, DWORD PTR _L$[ebp]
	push	edx
	call	_lua_setfield
	add	esp, 12					; 0000000cH

; 298  : 
; 299  : 	Method(IsNoOccupiedUnhappiness);

	push	0
	push	OFFSET ?lIsNoOccupiedUnhappiness@CvLuaCity@@KAHPAUlua_State@@@Z ; CvLuaCity::lIsNoOccupiedUnhappiness
	mov	eax, DWORD PTR _L$[ebp]
	push	eax
	call	_lua_pushcclosure
	add	esp, 12					; 0000000cH
	push	OFFSET ??_C@_0BI@HOIIKDFF@IsNoOccupiedUnhappiness?$AA@
	mov	ecx, DWORD PTR _t$[ebp]
	push	ecx
	mov	edx, DWORD PTR _L$[ebp]
	push	edx
	call	_lua_setfield
	add	esp, 12					; 0000000cH

; 300  : 
; 301  : 	Method(GetFood);

	push	0
	push	OFFSET ?lGetFood@CvLuaCity@@KAHPAUlua_State@@@Z ; CvLuaCity::lGetFood
	mov	eax, DWORD PTR _L$[ebp]
	push	eax
	call	_lua_pushcclosure
	add	esp, 12					; 0000000cH
	push	OFFSET ??_C@_07GFEKPPF@GetFood?$AA@
	mov	ecx, DWORD PTR _t$[ebp]
	push	ecx
	mov	edx, DWORD PTR _L$[ebp]
	push	edx
	call	_lua_setfield
	add	esp, 12					; 0000000cH

; 302  : 	Method(GetFoodTimes100);

	push	0
	push	OFFSET ?lGetFoodTimes100@CvLuaCity@@KAHPAUlua_State@@@Z ; CvLuaCity::lGetFoodTimes100
	mov	eax, DWORD PTR _L$[ebp]
	push	eax
	call	_lua_pushcclosure
	add	esp, 12					; 0000000cH
	push	OFFSET ??_C@_0BA@EBLNMIHG@GetFoodTimes100?$AA@
	mov	ecx, DWORD PTR _t$[ebp]
	push	ecx
	mov	edx, DWORD PTR _L$[ebp]
	push	edx
	call	_lua_setfield
	add	esp, 12					; 0000000cH

; 303  : 	Method(SetFood);

	push	0
	push	OFFSET ?lSetFood@CvLuaCity@@KAHPAUlua_State@@@Z ; CvLuaCity::lSetFood
	mov	eax, DWORD PTR _L$[ebp]
	push	eax
	call	_lua_pushcclosure
	add	esp, 12					; 0000000cH
	push	OFFSET ??_C@_07POKFJACE@SetFood?$AA@
	mov	ecx, DWORD PTR _t$[ebp]
	push	ecx
	mov	edx, DWORD PTR _L$[ebp]
	push	edx
	call	_lua_setfield
	add	esp, 12					; 0000000cH

; 304  : 	Method(ChangeFood);

	push	0
	push	OFFSET ?lChangeFood@CvLuaCity@@KAHPAUlua_State@@@Z ; CvLuaCity::lChangeFood
	mov	eax, DWORD PTR _L$[ebp]
	push	eax
	call	_lua_pushcclosure
	add	esp, 12					; 0000000cH
	push	OFFSET ??_C@_0L@HHFPNGJH@ChangeFood?$AA@
	mov	ecx, DWORD PTR _t$[ebp]
	push	ecx
	mov	edx, DWORD PTR _L$[ebp]
	push	edx
	call	_lua_setfield
	add	esp, 12					; 0000000cH

; 305  : 	Method(GetFoodKept);

	push	0
	push	OFFSET ?lGetFoodKept@CvLuaCity@@KAHPAUlua_State@@@Z ; CvLuaCity::lGetFoodKept
	mov	eax, DWORD PTR _L$[ebp]
	push	eax
	call	_lua_pushcclosure
	add	esp, 12					; 0000000cH
	push	OFFSET ??_C@_0M@GIFBHLGG@GetFoodKept?$AA@
	mov	ecx, DWORD PTR _t$[ebp]
	push	ecx
	mov	edx, DWORD PTR _L$[ebp]
	push	edx
	call	_lua_setfield
	add	esp, 12					; 0000000cH

; 306  : 	Method(GetMaxFoodKeptPercent);

	push	0
	push	OFFSET ?lGetMaxFoodKeptPercent@CvLuaCity@@KAHPAUlua_State@@@Z ; CvLuaCity::lGetMaxFoodKeptPercent
	mov	eax, DWORD PTR _L$[ebp]
	push	eax
	call	_lua_pushcclosure
	add	esp, 12					; 0000000cH
	push	OFFSET ??_C@_0BG@DCGGEPDG@GetMaxFoodKeptPercent?$AA@
	mov	ecx, DWORD PTR _t$[ebp]
	push	ecx
	mov	edx, DWORD PTR _L$[ebp]
	push	edx
	call	_lua_setfield
	add	esp, 12					; 0000000cH

; 307  : 	Method(GetOverflowProduction);

	push	0
	push	OFFSET ?lGetOverflowProduction@CvLuaCity@@KAHPAUlua_State@@@Z ; CvLuaCity::lGetOverflowProduction
	mov	eax, DWORD PTR _L$[ebp]
	push	eax
	call	_lua_pushcclosure
	add	esp, 12					; 0000000cH
	push	OFFSET ??_C@_0BG@KBBHEFFM@GetOverflowProduction?$AA@
	mov	ecx, DWORD PTR _t$[ebp]
	push	ecx
	mov	edx, DWORD PTR _L$[ebp]
	push	edx
	call	_lua_setfield
	add	esp, 12					; 0000000cH

; 308  : 	Method(SetOverflowProduction);

	push	0
	push	OFFSET ?lSetOverflowProduction@CvLuaCity@@KAHPAUlua_State@@@Z ; CvLuaCity::lSetOverflowProduction
	mov	eax, DWORD PTR _L$[ebp]
	push	eax
	call	_lua_pushcclosure
	add	esp, 12					; 0000000cH
	push	OFFSET ??_C@_0BG@FEEBJMBN@SetOverflowProduction?$AA@
	mov	ecx, DWORD PTR _t$[ebp]
	push	ecx
	mov	edx, DWORD PTR _L$[ebp]
	push	edx
	call	_lua_setfield
	add	esp, 12					; 0000000cH

; 309  : 	Method(GetFeatureProduction);

	push	0
	push	OFFSET ?lGetFeatureProduction@CvLuaCity@@KAHPAUlua_State@@@Z ; CvLuaCity::lGetFeatureProduction
	mov	eax, DWORD PTR _L$[ebp]
	push	eax
	call	_lua_pushcclosure
	add	esp, 12					; 0000000cH
	push	OFFSET ??_C@_0BF@FDDHIDF@GetFeatureProduction?$AA@
	mov	ecx, DWORD PTR _t$[ebp]
	push	ecx
	mov	edx, DWORD PTR _L$[ebp]
	push	edx
	call	_lua_setfield
	add	esp, 12					; 0000000cH

; 310  : 	Method(SetFeatureProduction);

	push	0
	push	OFFSET ?lSetFeatureProduction@CvLuaCity@@KAHPAUlua_State@@@Z ; CvLuaCity::lSetFeatureProduction
	mov	eax, DWORD PTR _L$[ebp]
	push	eax
	call	_lua_pushcclosure
	add	esp, 12					; 0000000cH
	push	OFFSET ??_C@_0BF@FMCOGOGC@SetFeatureProduction?$AA@
	mov	ecx, DWORD PTR _t$[ebp]
	push	ecx
	mov	edx, DWORD PTR _L$[ebp]
	push	edx
	call	_lua_setfield
	add	esp, 12					; 0000000cH

; 311  : 	Method(GetMilitaryProductionModifier);

	push	0
	push	OFFSET ?lGetMilitaryProductionModifier@CvLuaCity@@KAHPAUlua_State@@@Z ; CvLuaCity::lGetMilitaryProductionModifier
	mov	eax, DWORD PTR _L$[ebp]
	push	eax
	call	_lua_pushcclosure
	add	esp, 12					; 0000000cH
	push	OFFSET ??_C@_0BO@FAMIPBGF@GetMilitaryProductionModifier?$AA@
	mov	ecx, DWORD PTR _t$[ebp]
	push	ecx
	mov	edx, DWORD PTR _L$[ebp]
	push	edx
	call	_lua_setfield
	add	esp, 12					; 0000000cH

; 312  : 	Method(GetSpaceProductionModifier);

	push	0
	push	OFFSET ?lGetSpaceProductionModifier@CvLuaCity@@KAHPAUlua_State@@@Z ; CvLuaCity::lGetSpaceProductionModifier
	mov	eax, DWORD PTR _L$[ebp]
	push	eax
	call	_lua_pushcclosure
	add	esp, 12					; 0000000cH
	push	OFFSET ??_C@_0BL@EMAHKCFF@GetSpaceProductionModifier?$AA@
	mov	ecx, DWORD PTR _t$[ebp]
	push	ecx
	mov	edx, DWORD PTR _L$[ebp]
	push	edx
	call	_lua_setfield
	add	esp, 12					; 0000000cH

; 313  : 	Method(GetBuildingDefense);

	push	0
	push	OFFSET ?lGetBuildingDefense@CvLuaCity@@KAHPAUlua_State@@@Z ; CvLuaCity::lGetBuildingDefense
	mov	eax, DWORD PTR _L$[ebp]
	push	eax
	call	_lua_pushcclosure
	add	esp, 12					; 0000000cH
	push	OFFSET ??_C@_0BD@IFIIOABK@GetBuildingDefense?$AA@
	mov	ecx, DWORD PTR _t$[ebp]
	push	ecx
	mov	edx, DWORD PTR _L$[ebp]
	push	edx
	call	_lua_setfield
	add	esp, 12					; 0000000cH

; 314  : 	Method(GetFreeExperience);

	push	0
	push	OFFSET ?lGetFreeExperience@CvLuaCity@@KAHPAUlua_State@@@Z ; CvLuaCity::lGetFreeExperience
	mov	eax, DWORD PTR _L$[ebp]
	push	eax
	call	_lua_pushcclosure
	add	esp, 12					; 0000000cH
	push	OFFSET ??_C@_0BC@KJGDLEFF@GetFreeExperience?$AA@
	mov	ecx, DWORD PTR _t$[ebp]
	push	ecx
	mov	edx, DWORD PTR _L$[ebp]
	push	edx
	call	_lua_setfield
	add	esp, 12					; 0000000cH

; 315  : 	Method(GetNukeModifier);

	push	0
	push	OFFSET ?lGetNukeModifier@CvLuaCity@@KAHPAUlua_State@@@Z ; CvLuaCity::lGetNukeModifier
	mov	eax, DWORD PTR _L$[ebp]
	push	eax
	call	_lua_pushcclosure
	add	esp, 12					; 0000000cH
	push	OFFSET ??_C@_0BA@IIFNIAFM@GetNukeModifier?$AA@
	mov	ecx, DWORD PTR _t$[ebp]
	push	ecx
	mov	edx, DWORD PTR _L$[ebp]
	push	edx
	call	_lua_setfield
	add	esp, 12					; 0000000cH

; 316  : 	//Method(GetFreeSpecialist);
; 317  : 
; 318  : 	Method(IsResistance);

	push	0
	push	OFFSET ?lIsResistance@CvLuaCity@@KAHPAUlua_State@@@Z ; CvLuaCity::lIsResistance
	mov	eax, DWORD PTR _L$[ebp]
	push	eax
	call	_lua_pushcclosure
	add	esp, 12					; 0000000cH
	push	OFFSET ??_C@_0N@OIFCCPFM@IsResistance?$AA@
	mov	ecx, DWORD PTR _t$[ebp]
	push	ecx
	mov	edx, DWORD PTR _L$[ebp]
	push	edx
	call	_lua_setfield
	add	esp, 12					; 0000000cH

; 319  : 	Method(GetResistanceTurns);

	push	0
	push	OFFSET ?lGetResistanceTurns@CvLuaCity@@KAHPAUlua_State@@@Z ; CvLuaCity::lGetResistanceTurns
	mov	eax, DWORD PTR _L$[ebp]
	push	eax
	call	_lua_pushcclosure
	add	esp, 12					; 0000000cH
	push	OFFSET ??_C@_0BD@GGFEDPO@GetResistanceTurns?$AA@
	mov	ecx, DWORD PTR _t$[ebp]
	push	ecx
	mov	edx, DWORD PTR _L$[ebp]
	push	edx
	call	_lua_setfield
	add	esp, 12					; 0000000cH

; 320  : 	Method(ChangeResistanceTurns);

	push	0
	push	OFFSET ?lChangeResistanceTurns@CvLuaCity@@KAHPAUlua_State@@@Z ; CvLuaCity::lChangeResistanceTurns
	mov	eax, DWORD PTR _L$[ebp]
	push	eax
	call	_lua_pushcclosure
	add	esp, 12					; 0000000cH
	push	OFFSET ??_C@_0BG@OGCOMNIG@ChangeResistanceTurns?$AA@
	mov	ecx, DWORD PTR _t$[ebp]
	push	ecx
	mov	edx, DWORD PTR _L$[ebp]
	push	edx
	call	_lua_setfield
	add	esp, 12					; 0000000cH

; 321  : 
; 322  : 	Method(IsRazing);

	push	0
	push	OFFSET ?lIsRazing@CvLuaCity@@KAHPAUlua_State@@@Z ; CvLuaCity::lIsRazing
	mov	eax, DWORD PTR _L$[ebp]
	push	eax
	call	_lua_pushcclosure
	add	esp, 12					; 0000000cH
	push	OFFSET ??_C@_08KDEDLHLC@IsRazing?$AA@
	mov	ecx, DWORD PTR _t$[ebp]
	push	ecx
	mov	edx, DWORD PTR _L$[ebp]
	push	edx
	call	_lua_setfield
	add	esp, 12					; 0000000cH

; 323  : 	Method(GetRazingTurns);

	push	0
	push	OFFSET ?lGetRazingTurns@CvLuaCity@@KAHPAUlua_State@@@Z ; CvLuaCity::lGetRazingTurns
	mov	eax, DWORD PTR _L$[ebp]
	push	eax
	call	_lua_pushcclosure
	add	esp, 12					; 0000000cH
	push	OFFSET ??_C@_0P@PBGEJBFI@GetRazingTurns?$AA@
	mov	ecx, DWORD PTR _t$[ebp]
	push	ecx
	mov	edx, DWORD PTR _L$[ebp]
	push	edx
	call	_lua_setfield
	add	esp, 12					; 0000000cH

; 324  : 	Method(ChangeRazingTurns);

	push	0
	push	OFFSET ?lChangeRazingTurns@CvLuaCity@@KAHPAUlua_State@@@Z ; CvLuaCity::lChangeRazingTurns
	mov	eax, DWORD PTR _L$[ebp]
	push	eax
	call	_lua_pushcclosure
	add	esp, 12					; 0000000cH
	push	OFFSET ??_C@_0BC@GFDDGGHF@ChangeRazingTurns?$AA@
	mov	ecx, DWORD PTR _t$[ebp]
	push	ecx
	mov	edx, DWORD PTR _L$[ebp]
	push	edx
	call	_lua_setfield
	add	esp, 12					; 0000000cH

; 325  : 
; 326  : 	Method(IsOccupied);

	push	0
	push	OFFSET ?lIsOccupied@CvLuaCity@@KAHPAUlua_State@@@Z ; CvLuaCity::lIsOccupied
	mov	eax, DWORD PTR _L$[ebp]
	push	eax
	call	_lua_pushcclosure
	add	esp, 12					; 0000000cH
	push	OFFSET ??_C@_0L@GKIMAJEI@IsOccupied?$AA@
	mov	ecx, DWORD PTR _t$[ebp]
	push	ecx
	mov	edx, DWORD PTR _L$[ebp]
	push	edx
	call	_lua_setfield
	add	esp, 12					; 0000000cH

; 327  : 	Method(SetOccupied);

	push	0
	push	OFFSET ?lSetOccupied@CvLuaCity@@KAHPAUlua_State@@@Z ; CvLuaCity::lSetOccupied
	mov	eax, DWORD PTR _L$[ebp]
	push	eax
	call	_lua_pushcclosure
	add	esp, 12					; 0000000cH
	push	OFFSET ??_C@_0M@FPGBPAFO@SetOccupied?$AA@
	mov	ecx, DWORD PTR _t$[ebp]
	push	ecx
	mov	edx, DWORD PTR _L$[ebp]
	push	edx
	call	_lua_setfield
	add	esp, 12					; 0000000cH

; 328  : 
; 329  : 	Method(IsPuppet);

	push	0
	push	OFFSET ?lIsPuppet@CvLuaCity@@KAHPAUlua_State@@@Z ; CvLuaCity::lIsPuppet
	mov	eax, DWORD PTR _L$[ebp]
	push	eax
	call	_lua_pushcclosure
	add	esp, 12					; 0000000cH
	push	OFFSET ??_C@_08KGIAEINB@IsPuppet?$AA@
	mov	ecx, DWORD PTR _t$[ebp]
	push	ecx
	mov	edx, DWORD PTR _L$[ebp]
	push	edx
	call	_lua_setfield
	add	esp, 12					; 0000000cH

; 330  : 	Method(SetPuppet);

	push	0
	push	OFFSET ?lSetPuppet@CvLuaCity@@KAHPAUlua_State@@@Z ; CvLuaCity::lSetPuppet
	mov	eax, DWORD PTR _L$[ebp]
	push	eax
	call	_lua_pushcclosure
	add	esp, 12					; 0000000cH
	push	OFFSET ??_C@_09JPCAHBOM@SetPuppet?$AA@
	mov	ecx, DWORD PTR _t$[ebp]
	push	ecx
	mov	edx, DWORD PTR _L$[ebp]
	push	edx
	call	_lua_setfield
	add	esp, 12					; 0000000cH

; 331  : 
; 332  : 	Method(GetHappinessFromBuildings);

	push	0
	push	OFFSET ?lGetHappinessFromBuildings@CvLuaCity@@KAHPAUlua_State@@@Z ; CvLuaCity::lGetHappinessFromBuildings
	mov	eax, DWORD PTR _L$[ebp]
	push	eax
	call	_lua_pushcclosure
	add	esp, 12					; 0000000cH
	push	OFFSET ??_C@_0BK@NJJIHGAG@GetHappinessFromBuildings?$AA@
	mov	ecx, DWORD PTR _t$[ebp]
	push	ecx
	mov	edx, DWORD PTR _L$[ebp]
	push	edx
	call	_lua_setfield
	add	esp, 12					; 0000000cH

; 333  : 	Method(GetHappiness);

	push	0
	push	OFFSET ?lGetHappiness@CvLuaCity@@KAHPAUlua_State@@@Z ; CvLuaCity::lGetHappiness
	mov	eax, DWORD PTR _L$[ebp]
	push	eax
	call	_lua_pushcclosure
	add	esp, 12					; 0000000cH
	push	OFFSET ??_C@_0N@BPJGOLFM@GetHappiness?$AA@
	mov	ecx, DWORD PTR _t$[ebp]
	push	ecx
	mov	edx, DWORD PTR _L$[ebp]
	push	edx
	call	_lua_setfield
	add	esp, 12					; 0000000cH

; 334  : 	Method(GetLocalHappiness);

	push	0
	push	OFFSET ?lGetLocalHappiness@CvLuaCity@@KAHPAUlua_State@@@Z ; CvLuaCity::lGetLocalHappiness
	mov	eax, DWORD PTR _L$[ebp]
	push	eax
	call	_lua_pushcclosure
	add	esp, 12					; 0000000cH
	push	OFFSET ??_C@_0BC@JBPFIKFP@GetLocalHappiness?$AA@
	mov	ecx, DWORD PTR _t$[ebp]
	push	ecx
	mov	edx, DWORD PTR _L$[ebp]
	push	edx
	call	_lua_setfield
	add	esp, 12					; 0000000cH

; 335  : 
; 336  : 	Method(IsNeverLost);

	push	0
	push	OFFSET ?lIsNeverLost@CvLuaCity@@KAHPAUlua_State@@@Z ; CvLuaCity::lIsNeverLost
	mov	eax, DWORD PTR _L$[ebp]
	push	eax
	call	_lua_pushcclosure
	add	esp, 12					; 0000000cH
	push	OFFSET ??_C@_0M@MOFOBMIC@IsNeverLost?$AA@
	mov	ecx, DWORD PTR _t$[ebp]
	push	ecx
	mov	edx, DWORD PTR _L$[ebp]
	push	edx
	call	_lua_setfield
	add	esp, 12					; 0000000cH

; 337  : 	Method(SetNeverLost);

	push	0
	push	OFFSET ?lSetNeverLost@CvLuaCity@@KAHPAUlua_State@@@Z ; CvLuaCity::lSetNeverLost
	mov	eax, DWORD PTR _L$[ebp]
	push	eax
	call	_lua_pushcclosure
	add	esp, 12					; 0000000cH
	push	OFFSET ??_C@_0N@DKLPEECK@SetNeverLost?$AA@
	mov	ecx, DWORD PTR _t$[ebp]
	push	ecx
	mov	edx, DWORD PTR _L$[ebp]
	push	edx
	call	_lua_setfield
	add	esp, 12					; 0000000cH

; 338  : 	Method(IsDrafted);

	push	0
	push	OFFSET ?lIsDrafted@CvLuaCity@@KAHPAUlua_State@@@Z ; CvLuaCity::lIsDrafted
	mov	eax, DWORD PTR _L$[ebp]
	push	eax
	call	_lua_pushcclosure
	add	esp, 12					; 0000000cH
	push	OFFSET ??_C@_09BPNOIHFH@IsDrafted?$AA@
	mov	ecx, DWORD PTR _t$[ebp]
	push	ecx
	mov	edx, DWORD PTR _L$[ebp]
	push	edx
	call	_lua_setfield
	add	esp, 12					; 0000000cH

; 339  : 	Method(SetDrafted);

	push	0
	push	OFFSET ?lSetDrafted@CvLuaCity@@KAHPAUlua_State@@@Z ; CvLuaCity::lSetDrafted
	mov	eax, DWORD PTR _L$[ebp]
	push	eax
	call	_lua_pushcclosure
	add	esp, 12					; 0000000cH
	push	OFFSET ??_C@_0L@EHIPGLHP@SetDrafted?$AA@
	mov	ecx, DWORD PTR _t$[ebp]
	push	ecx
	mov	edx, DWORD PTR _L$[ebp]
	push	edx
	call	_lua_setfield
	add	esp, 12					; 0000000cH

; 340  : 
; 341  : 	Method(IsBlockaded);

	push	0
	push	OFFSET ?lIsBlockaded@CvLuaCity@@KAHPAUlua_State@@@Z ; CvLuaCity::lIsBlockaded
	mov	eax, DWORD PTR _L$[ebp]
	push	eax
	call	_lua_pushcclosure
	add	esp, 12					; 0000000cH
	push	OFFSET ??_C@_0M@OAAFKHBJ@IsBlockaded?$AA@
	mov	ecx, DWORD PTR _t$[ebp]
	push	ecx
	mov	edx, DWORD PTR _L$[ebp]
	push	edx
	call	_lua_setfield
	add	esp, 12					; 0000000cH

; 342  : 
; 343  : 	Method(GetWeLoveTheKingDayCounter);

	push	0
	push	OFFSET ?lGetWeLoveTheKingDayCounter@CvLuaCity@@KAHPAUlua_State@@@Z ; CvLuaCity::lGetWeLoveTheKingDayCounter
	mov	eax, DWORD PTR _L$[ebp]
	push	eax
	call	_lua_pushcclosure
	add	esp, 12					; 0000000cH
	push	OFFSET ??_C@_0BL@JCMJOHHG@GetWeLoveTheKingDayCounter?$AA@
	mov	ecx, DWORD PTR _t$[ebp]
	push	ecx
	mov	edx, DWORD PTR _L$[ebp]
	push	edx
	call	_lua_setfield
	add	esp, 12					; 0000000cH

; 344  : 	Method(SetWeLoveTheKingDayCounter);

	push	0
	push	OFFSET ?lSetWeLoveTheKingDayCounter@CvLuaCity@@KAHPAUlua_State@@@Z ; CvLuaCity::lSetWeLoveTheKingDayCounter
	mov	eax, DWORD PTR _L$[ebp]
	push	eax
	call	_lua_pushcclosure
	add	esp, 12					; 0000000cH
	push	OFFSET ??_C@_0BL@KNPMCHGG@SetWeLoveTheKingDayCounter?$AA@
	mov	ecx, DWORD PTR _t$[ebp]
	push	ecx
	mov	edx, DWORD PTR _L$[ebp]
	push	edx
	call	_lua_setfield
	add	esp, 12					; 0000000cH

; 345  : 	Method(ChangeWeLoveTheKingDayCounter);

	push	0
	push	OFFSET ?lChangeWeLoveTheKingDayCounter@CvLuaCity@@KAHPAUlua_State@@@Z ; CvLuaCity::lChangeWeLoveTheKingDayCounter
	mov	eax, DWORD PTR _L$[ebp]
	push	eax
	call	_lua_pushcclosure
	add	esp, 12					; 0000000cH
	push	OFFSET ??_C@_0BO@HIBOMBIM@ChangeWeLoveTheKingDayCounter?$AA@
	mov	ecx, DWORD PTR _t$[ebp]
	push	ecx
	mov	edx, DWORD PTR _L$[ebp]
	push	edx
	call	_lua_setfield
	add	esp, 12					; 0000000cH

; 346  : 
; 347  : 	Method(GetNumThingsProduced);

	push	0
	push	OFFSET ?lGetNumThingsProduced@CvLuaCity@@KAHPAUlua_State@@@Z ; CvLuaCity::lGetNumThingsProduced
	mov	eax, DWORD PTR _L$[ebp]
	push	eax
	call	_lua_pushcclosure
	add	esp, 12					; 0000000cH
	push	OFFSET ??_C@_0BF@HABAGOM@GetNumThingsProduced?$AA@
	mov	ecx, DWORD PTR _t$[ebp]
	push	ecx
	mov	edx, DWORD PTR _L$[ebp]
	push	edx
	call	_lua_setfield
	add	esp, 12					; 0000000cH

; 348  : 
; 349  : 	Method(IsProductionAutomated);

	push	0
	push	OFFSET ?lIsProductionAutomated@CvLuaCity@@KAHPAUlua_State@@@Z ; CvLuaCity::lIsProductionAutomated
	mov	eax, DWORD PTR _L$[ebp]
	push	eax
	call	_lua_pushcclosure
	add	esp, 12					; 0000000cH
	push	OFFSET ??_C@_0BG@FJMABPLB@IsProductionAutomated?$AA@
	mov	ecx, DWORD PTR _t$[ebp]
	push	ecx
	mov	edx, DWORD PTR _L$[ebp]
	push	edx
	call	_lua_setfield
	add	esp, 12					; 0000000cH

; 350  : 	Method(SetProductionAutomated);

	push	0
	push	OFFSET ?lSetProductionAutomated@CvLuaCity@@KAHPAUlua_State@@@Z ; CvLuaCity::lSetProductionAutomated
	mov	eax, DWORD PTR _L$[ebp]
	push	eax
	call	_lua_pushcclosure
	add	esp, 12					; 0000000cH
	push	OFFSET ??_C@_0BH@PFIOINMP@SetProductionAutomated?$AA@
	mov	ecx, DWORD PTR _t$[ebp]
	push	ecx
	mov	edx, DWORD PTR _L$[ebp]
	push	edx
	call	_lua_setfield
	add	esp, 12					; 0000000cH

; 351  : 	Method(SetCitySizeBoost);

	push	0
	push	OFFSET ?lSetCitySizeBoost@CvLuaCity@@KAHPAUlua_State@@@Z ; CvLuaCity::lSetCitySizeBoost
	mov	eax, DWORD PTR _L$[ebp]
	push	eax
	call	_lua_pushcclosure
	add	esp, 12					; 0000000cH
	push	OFFSET ??_C@_0BB@JHJGLAIL@SetCitySizeBoost?$AA@
	mov	ecx, DWORD PTR _t$[ebp]
	push	ecx
	mov	edx, DWORD PTR _L$[ebp]
	push	edx
	call	_lua_setfield
	add	esp, 12					; 0000000cH

; 352  : 	Method(GetOwner);

	push	0
	push	OFFSET ?lGetOwner@CvLuaCity@@KAHPAUlua_State@@@Z ; CvLuaCity::lGetOwner
	mov	eax, DWORD PTR _L$[ebp]
	push	eax
	call	_lua_pushcclosure
	add	esp, 12					; 0000000cH
	push	OFFSET ??_C@_08BODJMJJB@GetOwner?$AA@
	mov	ecx, DWORD PTR _t$[ebp]
	push	ecx
	mov	edx, DWORD PTR _L$[ebp]
	push	edx
	call	_lua_setfield
	add	esp, 12					; 0000000cH

; 353  : 	Method(GetTeam);

	push	0
	push	OFFSET ?lGetTeam@CvLuaCity@@KAHPAUlua_State@@@Z ; CvLuaCity::lGetTeam
	mov	eax, DWORD PTR _L$[ebp]
	push	eax
	call	_lua_pushcclosure
	add	esp, 12					; 0000000cH
	push	OFFSET ??_C@_07KIJFBNDA@GetTeam?$AA@
	mov	ecx, DWORD PTR _t$[ebp]
	push	ecx
	mov	edx, DWORD PTR _L$[ebp]
	push	edx
	call	_lua_setfield
	add	esp, 12					; 0000000cH

; 354  : 	Method(GetPreviousOwner);

	push	0
	push	OFFSET ?lGetPreviousOwner@CvLuaCity@@KAHPAUlua_State@@@Z ; CvLuaCity::lGetPreviousOwner
	mov	eax, DWORD PTR _L$[ebp]
	push	eax
	call	_lua_pushcclosure
	add	esp, 12					; 0000000cH
	push	OFFSET ??_C@_0BB@HFDBFLDN@GetPreviousOwner?$AA@
	mov	ecx, DWORD PTR _t$[ebp]
	push	ecx
	mov	edx, DWORD PTR _L$[ebp]
	push	edx
	call	_lua_setfield
	add	esp, 12					; 0000000cH

; 355  : 	Method(GetOriginalOwner);

	push	0
	push	OFFSET ?lGetOriginalOwner@CvLuaCity@@KAHPAUlua_State@@@Z ; CvLuaCity::lGetOriginalOwner
	mov	eax, DWORD PTR _L$[ebp]
	push	eax
	call	_lua_pushcclosure
	add	esp, 12					; 0000000cH
	push	OFFSET ??_C@_0BB@FBHJECJI@GetOriginalOwner?$AA@
	mov	ecx, DWORD PTR _t$[ebp]
	push	ecx
	mov	edx, DWORD PTR _L$[ebp]
	push	edx
	call	_lua_setfield
	add	esp, 12					; 0000000cH

; 356  : 	Method(GetSeaPlotYield);

	push	0
	push	OFFSET ?lGetSeaPlotYield@CvLuaCity@@KAHPAUlua_State@@@Z ; CvLuaCity::lGetSeaPlotYield
	mov	eax, DWORD PTR _L$[ebp]
	push	eax
	call	_lua_pushcclosure
	add	esp, 12					; 0000000cH
	push	OFFSET ??_C@_0BA@DGPKBBEO@GetSeaPlotYield?$AA@
	mov	ecx, DWORD PTR _t$[ebp]
	push	ecx
	mov	edx, DWORD PTR _L$[ebp]
	push	edx
	call	_lua_setfield
	add	esp, 12					; 0000000cH

; 357  : 	Method(GetRiverPlotYield);

	push	0
	push	OFFSET ?lGetRiverPlotYield@CvLuaCity@@KAHPAUlua_State@@@Z ; CvLuaCity::lGetRiverPlotYield
	mov	eax, DWORD PTR _L$[ebp]
	push	eax
	call	_lua_pushcclosure
	add	esp, 12					; 0000000cH
	push	OFFSET ??_C@_0BC@KGMJBNBB@GetRiverPlotYield?$AA@
	mov	ecx, DWORD PTR _t$[ebp]
	push	ecx
	mov	edx, DWORD PTR _L$[ebp]
	push	edx
	call	_lua_setfield
	add	esp, 12					; 0000000cH

; 358  : 	Method(GetLakePlotYield);

	push	0
	push	OFFSET ?lGetLakePlotYield@CvLuaCity@@KAHPAUlua_State@@@Z ; CvLuaCity::lGetLakePlotYield
	mov	eax, DWORD PTR _L$[ebp]
	push	eax
	call	_lua_pushcclosure
	add	esp, 12					; 0000000cH
	push	OFFSET ??_C@_0BB@KFDOAKNK@GetLakePlotYield?$AA@
	mov	ecx, DWORD PTR _t$[ebp]
	push	ecx
	mov	edx, DWORD PTR _L$[ebp]
	push	edx
	call	_lua_setfield
	add	esp, 12					; 0000000cH

; 359  : 
; 360  : 	Method(GetBaseYieldRate);

	push	0
	push	OFFSET ?lGetBaseYieldRate@CvLuaCity@@KAHPAUlua_State@@@Z ; CvLuaCity::lGetBaseYieldRate
	mov	eax, DWORD PTR _L$[ebp]
	push	eax
	call	_lua_pushcclosure
	add	esp, 12					; 0000000cH
	push	OFFSET ??_C@_0BB@PNJLKNIG@GetBaseYieldRate?$AA@
	mov	ecx, DWORD PTR _t$[ebp]
	push	ecx
	mov	edx, DWORD PTR _L$[ebp]
	push	edx
	call	_lua_setfield
	add	esp, 12					; 0000000cH

; 361  : 
; 362  : 	Method(GetBaseYieldRateFromGreatWorks);

	push	0
	push	OFFSET ?lGetBaseYieldRateFromGreatWorks@CvLuaCity@@KAHPAUlua_State@@@Z ; CvLuaCity::lGetBaseYieldRateFromGreatWorks
	mov	eax, DWORD PTR _L$[ebp]
	push	eax
	call	_lua_pushcclosure
	add	esp, 12					; 0000000cH
	push	OFFSET ??_C@_0BP@JIPPGLFE@GetBaseYieldRateFromGreatWorks?$AA@
	mov	ecx, DWORD PTR _t$[ebp]
	push	ecx
	mov	edx, DWORD PTR _L$[ebp]
	push	edx
	call	_lua_setfield
	add	esp, 12					; 0000000cH

; 363  : 
; 364  : 	Method(GetBaseYieldRateFromTerrain);

	push	0
	push	OFFSET ?lGetBaseYieldRateFromTerrain@CvLuaCity@@KAHPAUlua_State@@@Z ; CvLuaCity::lGetBaseYieldRateFromTerrain
	mov	eax, DWORD PTR _L$[ebp]
	push	eax
	call	_lua_pushcclosure
	add	esp, 12					; 0000000cH
	push	OFFSET ??_C@_0BM@OJHEMEBC@GetBaseYieldRateFromTerrain?$AA@
	mov	ecx, DWORD PTR _t$[ebp]
	push	ecx
	mov	edx, DWORD PTR _L$[ebp]
	push	edx
	call	_lua_setfield
	add	esp, 12					; 0000000cH

; 365  : 	Method(ChangeBaseYieldRateFromTerrain);

	push	0
	push	OFFSET ?lChangeBaseYieldRateFromTerrain@CvLuaCity@@KAHPAUlua_State@@@Z ; CvLuaCity::lChangeBaseYieldRateFromTerrain
	mov	eax, DWORD PTR _L$[ebp]
	push	eax
	call	_lua_pushcclosure
	add	esp, 12					; 0000000cH
	push	OFFSET ??_C@_0BP@LEPGAIDG@ChangeBaseYieldRateFromTerrain?$AA@
	mov	ecx, DWORD PTR _t$[ebp]
	push	ecx
	mov	edx, DWORD PTR _L$[ebp]
	push	edx
	call	_lua_setfield
	add	esp, 12					; 0000000cH

; 366  : 
; 367  : 	Method(GetBaseYieldRateFromBuildings);

	push	0
	push	OFFSET ?lGetBaseYieldRateFromBuildings@CvLuaCity@@KAHPAUlua_State@@@Z ; CvLuaCity::lGetBaseYieldRateFromBuildings
	mov	eax, DWORD PTR _L$[ebp]
	push	eax
	call	_lua_pushcclosure
	add	esp, 12					; 0000000cH
	push	OFFSET ??_C@_0BO@GNPKIABN@GetBaseYieldRateFromBuildings?$AA@
	mov	ecx, DWORD PTR _t$[ebp]
	push	ecx
	mov	edx, DWORD PTR _L$[ebp]
	push	edx
	call	_lua_setfield
	add	esp, 12					; 0000000cH

; 368  : 	Method(ChangeBaseYieldRateFromBuildings);

	push	0
	push	OFFSET ?lChangeBaseYieldRateFromBuildings@CvLuaCity@@KAHPAUlua_State@@@Z ; CvLuaCity::lChangeBaseYieldRateFromBuildings
	mov	eax, DWORD PTR _L$[ebp]
	push	eax
	call	_lua_pushcclosure
	add	esp, 12					; 0000000cH
	push	OFFSET ??_C@_0CB@OMALCKC@ChangeBaseYieldRateFromBuildings@
	mov	ecx, DWORD PTR _t$[ebp]
	push	ecx
	mov	edx, DWORD PTR _L$[ebp]
	push	edx
	call	_lua_setfield
	add	esp, 12					; 0000000cH

; 369  : 
; 370  : 	Method(GetBaseYieldRateFromSpecialists);

	push	0
	push	OFFSET ?lGetBaseYieldRateFromSpecialists@CvLuaCity@@KAHPAUlua_State@@@Z ; CvLuaCity::lGetBaseYieldRateFromSpecialists
	mov	eax, DWORD PTR _L$[ebp]
	push	eax
	call	_lua_pushcclosure
	add	esp, 12					; 0000000cH
	push	OFFSET ??_C@_0CA@DMEDAOCN@GetBaseYieldRateFromSpecialists?$AA@
	mov	ecx, DWORD PTR _t$[ebp]
	push	ecx
	mov	edx, DWORD PTR _L$[ebp]
	push	edx
	call	_lua_setfield
	add	esp, 12					; 0000000cH

; 371  : 	Method(ChangeBaseYieldRateFromSpecialists);

	push	0
	push	OFFSET ?lChangeBaseYieldRateFromSpecialists@CvLuaCity@@KAHPAUlua_State@@@Z ; CvLuaCity::lChangeBaseYieldRateFromSpecialists
	mov	eax, DWORD PTR _L$[ebp]
	push	eax
	call	_lua_pushcclosure
	add	esp, 12					; 0000000cH
	push	OFFSET ??_C@_0CD@JHMJIOOA@ChangeBaseYieldRateFromSpecialis@
	mov	ecx, DWORD PTR _t$[ebp]
	push	ecx
	mov	edx, DWORD PTR _L$[ebp]
	push	edx
	call	_lua_setfield
	add	esp, 12					; 0000000cH

; 372  : 
; 373  : 	Method(GetBaseYieldRateFromMisc);

	push	0
	push	OFFSET ?lGetBaseYieldRateFromMisc@CvLuaCity@@KAHPAUlua_State@@@Z ; CvLuaCity::lGetBaseYieldRateFromMisc
	mov	eax, DWORD PTR _L$[ebp]
	push	eax
	call	_lua_pushcclosure
	add	esp, 12					; 0000000cH
	push	OFFSET ??_C@_0BJ@GOEKGL@GetBaseYieldRateFromMisc?$AA@
	mov	ecx, DWORD PTR _t$[ebp]
	push	ecx
	mov	edx, DWORD PTR _L$[ebp]
	push	edx
	call	_lua_setfield
	add	esp, 12					; 0000000cH

; 374  : 	Method(ChangeBaseYieldRateFromMisc);

	push	0
	push	OFFSET ?lChangeBaseYieldRateFromMisc@CvLuaCity@@KAHPAUlua_State@@@Z ; CvLuaCity::lChangeBaseYieldRateFromMisc
	mov	eax, DWORD PTR _L$[ebp]
	push	eax
	call	_lua_pushcclosure
	add	esp, 12					; 0000000cH
	push	OFFSET ??_C@_0BM@MDOMEKI@ChangeBaseYieldRateFromMisc?$AA@
	mov	ecx, DWORD PTR _t$[ebp]
	push	ecx
	mov	edx, DWORD PTR _L$[ebp]
	push	edx
	call	_lua_setfield
	add	esp, 12					; 0000000cH

; 375  : 
; 376  : 	Method(GetBaseYieldRateFromReligion);

	push	0
	push	OFFSET ?lGetBaseYieldRateFromReligion@CvLuaCity@@KAHPAUlua_State@@@Z ; CvLuaCity::lGetBaseYieldRateFromReligion
	mov	eax, DWORD PTR _L$[ebp]
	push	eax
	call	_lua_pushcclosure
	add	esp, 12					; 0000000cH
	push	OFFSET ??_C@_0BN@KLEGLAHD@GetBaseYieldRateFromReligion?$AA@
	mov	ecx, DWORD PTR _t$[ebp]
	push	ecx
	mov	edx, DWORD PTR _L$[ebp]
	push	edx
	call	_lua_setfield
	add	esp, 12					; 0000000cH

; 377  : 	Method(ChangeBaseYieldRateFromReligion);

	push	0
	push	OFFSET ?lChangeBaseYieldRateFromReligion@CvLuaCity@@KAHPAUlua_State@@@Z ; CvLuaCity::lChangeBaseYieldRateFromReligion
	mov	eax, DWORD PTR _L$[ebp]
	push	eax
	call	_lua_pushcclosure
	add	esp, 12					; 0000000cH
	push	OFFSET ??_C@_0CA@JHBINGGO@ChangeBaseYieldRateFromReligion?$AA@
	mov	ecx, DWORD PTR _t$[ebp]
	push	ecx
	mov	edx, DWORD PTR _L$[ebp]
	push	edx
	call	_lua_setfield
	add	esp, 12					; 0000000cH

; 378  : 
; 379  : 	Method(GetYieldPerPopTimes100);

	push	0
	push	OFFSET ?lGetYieldPerPopTimes100@CvLuaCity@@KAHPAUlua_State@@@Z ; CvLuaCity::lGetYieldPerPopTimes100
	mov	eax, DWORD PTR _L$[ebp]
	push	eax
	call	_lua_pushcclosure
	add	esp, 12					; 0000000cH
	push	OFFSET ??_C@_0BH@FHGKGLBM@GetYieldPerPopTimes100?$AA@
	mov	ecx, DWORD PTR _t$[ebp]
	push	ecx
	mov	edx, DWORD PTR _L$[ebp]
	push	edx
	call	_lua_setfield
	add	esp, 12					; 0000000cH

; 380  : 
; 381  : 	Method(GetBaseYieldRateModifier);

	push	0
	push	OFFSET ?lGetBaseYieldRateModifier@CvLuaCity@@KAHPAUlua_State@@@Z ; CvLuaCity::lGetBaseYieldRateModifier
	mov	eax, DWORD PTR _L$[ebp]
	push	eax
	call	_lua_pushcclosure
	add	esp, 12					; 0000000cH
	push	OFFSET ??_C@_0BJ@BHAAEGH@GetBaseYieldRateModifier?$AA@
	mov	ecx, DWORD PTR _t$[ebp]
	push	ecx
	mov	edx, DWORD PTR _L$[ebp]
	push	edx
	call	_lua_setfield
	add	esp, 12					; 0000000cH

; 382  : 	Method(GetYieldRate);

	push	0
	push	OFFSET ?lGetYieldRate@CvLuaCity@@KAHPAUlua_State@@@Z ; CvLuaCity::lGetYieldRate
	mov	eax, DWORD PTR _L$[ebp]
	push	eax
	call	_lua_pushcclosure
	add	esp, 12					; 0000000cH
	push	OFFSET ??_C@_0N@LGPNBIDL@GetYieldRate?$AA@
	mov	ecx, DWORD PTR _t$[ebp]
	push	ecx
	mov	edx, DWORD PTR _L$[ebp]
	push	edx
	call	_lua_setfield
	add	esp, 12					; 0000000cH

; 383  : 	Method(GetYieldRateTimes100);

	push	0
	push	OFFSET ?lGetYieldRateTimes100@CvLuaCity@@KAHPAUlua_State@@@Z ; CvLuaCity::lGetYieldRateTimes100
	mov	eax, DWORD PTR _L$[ebp]
	push	eax
	call	_lua_pushcclosure
	add	esp, 12					; 0000000cH
	push	OFFSET ??_C@_0BF@OFJHKEGP@GetYieldRateTimes100?$AA@
	mov	ecx, DWORD PTR _t$[ebp]
	push	ecx
	mov	edx, DWORD PTR _L$[ebp]
	push	edx
	call	_lua_setfield
	add	esp, 12					; 0000000cH

; 384  : 	Method(GetYieldRateModifier);

	push	0
	push	OFFSET ?lGetYieldRateModifier@CvLuaCity@@KAHPAUlua_State@@@Z ; CvLuaCity::lGetYieldRateModifier
	mov	eax, DWORD PTR _L$[ebp]
	push	eax
	call	_lua_pushcclosure
	add	esp, 12					; 0000000cH
	push	OFFSET ??_C@_0BF@MPEACCAJ@GetYieldRateModifier?$AA@
	mov	ecx, DWORD PTR _t$[ebp]
	push	ecx
	mov	edx, DWORD PTR _L$[ebp]
	push	edx
	call	_lua_setfield
	add	esp, 12					; 0000000cH

; 385  : 
; 386  : 	Method(GetExtraSpecialistYield);

	push	0
	push	OFFSET ?lGetExtraSpecialistYield@CvLuaCity@@KAHPAUlua_State@@@Z ; CvLuaCity::lGetExtraSpecialistYield
	mov	eax, DWORD PTR _L$[ebp]
	push	eax
	call	_lua_pushcclosure
	add	esp, 12					; 0000000cH
	push	OFFSET ??_C@_0BI@GIDAMOKL@GetExtraSpecialistYield?$AA@
	mov	ecx, DWORD PTR _t$[ebp]
	push	ecx
	mov	edx, DWORD PTR _L$[ebp]
	push	edx
	call	_lua_setfield
	add	esp, 12					; 0000000cH

; 387  : 	Method(GetExtraSpecialistYieldOfType);

	push	0
	push	OFFSET ?lGetExtraSpecialistYieldOfType@CvLuaCity@@KAHPAUlua_State@@@Z ; CvLuaCity::lGetExtraSpecialistYieldOfType
	mov	eax, DWORD PTR _L$[ebp]
	push	eax
	call	_lua_pushcclosure
	add	esp, 12					; 0000000cH
	push	OFFSET ??_C@_0BO@GICAENNG@GetExtraSpecialistYieldOfType?$AA@
	mov	ecx, DWORD PTR _t$[ebp]
	push	ecx
	mov	edx, DWORD PTR _L$[ebp]
	push	edx
	call	_lua_setfield
	add	esp, 12					; 0000000cH

; 388  : 
; 389  : 	Method(GetDomainFreeExperience);

	push	0
	push	OFFSET ?lGetDomainFreeExperience@CvLuaCity@@KAHPAUlua_State@@@Z ; CvLuaCity::lGetDomainFreeExperience
	mov	eax, DWORD PTR _L$[ebp]
	push	eax
	call	_lua_pushcclosure
	add	esp, 12					; 0000000cH
	push	OFFSET ??_C@_0BI@GMGIGBHD@GetDomainFreeExperience?$AA@
	mov	ecx, DWORD PTR _t$[ebp]
	push	ecx
	mov	edx, DWORD PTR _L$[ebp]
	push	edx
	call	_lua_setfield
	add	esp, 12					; 0000000cH

; 390  : 	Method(GetDomainProductionModifier);

	push	0
	push	OFFSET ?lGetDomainProductionModifier@CvLuaCity@@KAHPAUlua_State@@@Z ; CvLuaCity::lGetDomainProductionModifier
	mov	eax, DWORD PTR _L$[ebp]
	push	eax
	call	_lua_pushcclosure
	add	esp, 12					; 0000000cH
	push	OFFSET ??_C@_0BM@CIOKPJJB@GetDomainProductionModifier?$AA@
	mov	ecx, DWORD PTR _t$[ebp]
	push	ecx
	mov	edx, DWORD PTR _L$[ebp]
	push	edx
	call	_lua_setfield
	add	esp, 12					; 0000000cH

; 391  : 
; 392  : 	Method(IsEverOwned);

	push	0
	push	OFFSET ?lIsEverOwned@CvLuaCity@@KAHPAUlua_State@@@Z ; CvLuaCity::lIsEverOwned
	mov	eax, DWORD PTR _L$[ebp]
	push	eax
	call	_lua_pushcclosure
	add	esp, 12					; 0000000cH
	push	OFFSET ??_C@_0M@HHHODKFL@IsEverOwned?$AA@
	mov	ecx, DWORD PTR _t$[ebp]
	push	ecx
	mov	edx, DWORD PTR _L$[ebp]
	push	edx
	call	_lua_setfield
	add	esp, 12					; 0000000cH

; 393  : 
; 394  : 	Method(IsRevealed);

	push	0
	push	OFFSET ?lIsRevealed@CvLuaCity@@KAHPAUlua_State@@@Z ; CvLuaCity::lIsRevealed
	mov	eax, DWORD PTR _L$[ebp]
	push	eax
	call	_lua_pushcclosure
	add	esp, 12					; 0000000cH
	push	OFFSET ??_C@_0L@KNACFKBL@IsRevealed?$AA@
	mov	ecx, DWORD PTR _t$[ebp]
	push	ecx
	mov	edx, DWORD PTR _L$[ebp]
	push	edx
	call	_lua_setfield
	add	esp, 12					; 0000000cH

; 395  : 	Method(SetRevealed);

	push	0
	push	OFFSET ?lSetRevealed@CvLuaCity@@KAHPAUlua_State@@@Z ; CvLuaCity::lSetRevealed
	mov	eax, DWORD PTR _L$[ebp]
	push	eax
	call	_lua_pushcclosure
	add	esp, 12					; 0000000cH
	push	OFFSET ??_C@_0M@JIOPKDAN@SetRevealed?$AA@
	mov	ecx, DWORD PTR _t$[ebp]
	push	ecx
	mov	edx, DWORD PTR _L$[ebp]
	push	edx
	call	_lua_setfield
	add	esp, 12					; 0000000cH

; 396  : 	Method(GetNameKey);

	push	0
	push	OFFSET ?lGetNameKey@CvLuaCity@@KAHPAUlua_State@@@Z ; CvLuaCity::lGetNameKey
	mov	eax, DWORD PTR _L$[ebp]
	push	eax
	call	_lua_pushcclosure
	add	esp, 12					; 0000000cH
	push	OFFSET ??_C@_0L@PJBAHION@GetNameKey?$AA@
	mov	ecx, DWORD PTR _t$[ebp]
	push	ecx
	mov	edx, DWORD PTR _L$[ebp]
	push	edx
	call	_lua_setfield
	add	esp, 12					; 0000000cH

; 397  : 	Method(GetName);

	push	0
	push	OFFSET ?lGetName@CvLuaCity@@KAHPAUlua_State@@@Z ; CvLuaCity::lGetName
	mov	eax, DWORD PTR _L$[ebp]
	push	eax
	call	_lua_pushcclosure
	add	esp, 12					; 0000000cH
	push	OFFSET ??_C@_07MMGEHGCI@GetName?$AA@
	mov	ecx, DWORD PTR _t$[ebp]
	push	ecx
	mov	edx, DWORD PTR _L$[ebp]
	push	edx
	call	_lua_setfield
	add	esp, 12					; 0000000cH

; 398  : 	Method(SetName);

	push	0
	push	OFFSET ?lSetName@CvLuaCity@@KAHPAUlua_State@@@Z ; CvLuaCity::lSetName
	mov	eax, DWORD PTR _L$[ebp]
	push	eax
	call	_lua_pushcclosure
	add	esp, 12					; 0000000cH
	push	OFFSET ??_C@_07DEJFEJPJ@SetName?$AA@
	mov	ecx, DWORD PTR _t$[ebp]
	push	ecx
	mov	edx, DWORD PTR _L$[ebp]
	push	edx
	call	_lua_setfield
	add	esp, 12					; 0000000cH

; 399  : 	Method(IsHasResourceLocal);

	push	0
	push	OFFSET ?lIsHasResourceLocal@CvLuaCity@@KAHPAUlua_State@@@Z ; CvLuaCity::lIsHasResourceLocal
	mov	eax, DWORD PTR _L$[ebp]
	push	eax
	call	_lua_pushcclosure
	add	esp, 12					; 0000000cH
	push	OFFSET ??_C@_0BD@GIKEEJCO@IsHasResourceLocal?$AA@
	mov	ecx, DWORD PTR _t$[ebp]
	push	ecx
	mov	edx, DWORD PTR _L$[ebp]
	push	edx
	call	_lua_setfield
	add	esp, 12					; 0000000cH

; 400  : 	Method(GetBuildingProduction);

	push	0
	push	OFFSET ?lGetBuildingProduction@CvLuaCity@@KAHPAUlua_State@@@Z ; CvLuaCity::lGetBuildingProduction
	mov	eax, DWORD PTR _L$[ebp]
	push	eax
	call	_lua_pushcclosure
