; Listing generated by Microsoft (R) Optimizing Compiler Version 15.00.30729.01 

	TITLE	D:\sources\Lekmod_git\checkout\LEKMOD_DLL\CvGameCoreDLL_Expansion2\CvMap.cpp
	.686P
	.XMM
	include listing.inc
	.model	flat

INCLUDELIB MSVCRT
INCLUDELIB OLDNAMES

_BSS	SEGMENT
_sgCvMapInstanceCount DD 01H DUP (?)
_BSS	ENDS
PUBLIC	??_7CvLandmass@@6B@				; CvLandmass::`vftable'
PUBLIC	??0CvLandmass@@QAE@XZ				; CvLandmass::CvLandmass
PUBLIC	?read@CvLandmass@@UAEXAAVFDataStream@@@Z	; CvLandmass::read
PUBLIC	?write@CvLandmass@@UBEXAAVFDataStream@@@Z	; CvLandmass::write
EXTRN	??_ECvLandmass@@UAEPAXI@Z:PROC			; CvLandmass::`vector deleting destructor'
;	COMDAT ??_7CvLandmass@@6B@
; File d:\sources\lekmod_git\checkout\lekmod_dll\cvgamecoredll_expansion2\cvmap.cpp
CONST	SEGMENT
??_7CvLandmass@@6B@ DD FLAT:??_ECvLandmass@@UAEPAXI@Z	; CvLandmass::`vftable'
	DD	FLAT:?read@CvLandmass@@UAEXAAVFDataStream@@@Z
	DD	FLAT:?write@CvLandmass@@UBEXAAVFDataStream@@@Z
; Function compile flags: /Odtp
CONST	ENDS
;	COMDAT ??0CvLandmass@@QAE@XZ
_TEXT	SEGMENT
_this$ = -4						; size = 4
??0CvLandmass@@QAE@XZ PROC				; CvLandmass::CvLandmass, COMDAT
; _this$ = ecx

; 39   : {

	push	ebp
	mov	ebp, esp
	push	ecx
	mov	DWORD PTR _this$[ebp], ecx
	mov	eax, DWORD PTR _this$[ebp]
	mov	DWORD PTR [eax], OFFSET ??_7CvLandmass@@6B@

; 40   : 	m_iID = -1;

	mov	ecx, DWORD PTR _this$[ebp]
	mov	DWORD PTR [ecx+4], -1

; 41   : 	m_iNumTiles = 0;

	mov	edx, DWORD PTR _this$[ebp]
	mov	DWORD PTR [edx+8], 0

; 42   : 	m_bWater = true;

	mov	eax, DWORD PTR _this$[ebp]
	mov	BYTE PTR [eax+13], 1

; 43   : 	m_cContinentType = 0;

	mov	ecx, DWORD PTR _this$[ebp]
	mov	BYTE PTR [ecx+12], 0

; 44   : 	m_iCentroidX = 0;

	mov	edx, DWORD PTR _this$[ebp]
	mov	DWORD PTR [edx+16], 0

; 45   : 	m_iCentroidY = 0;

	mov	eax, DWORD PTR _this$[ebp]
	mov	DWORD PTR [eax+20], 0

; 46   : }

	mov	eax, DWORD PTR _this$[ebp]
	mov	esp, ebp
	pop	ebp
	ret	0
??0CvLandmass@@QAE@XZ ENDP				; CvLandmass::CvLandmass
_TEXT	ENDS
PUBLIC	??1CvLandmass@@UAE@XZ				; CvLandmass::~CvLandmass
EXTRN	??3@YAXPAX@Z:PROC				; operator delete
; Function compile flags: /Odtp
;	COMDAT ??_GCvLandmass@@UAEPAXI@Z
_TEXT	SEGMENT
_this$ = -4						; size = 4
___flags$ = 8						; size = 4
??_GCvLandmass@@UAEPAXI@Z PROC				; CvLandmass::`scalar deleting destructor', COMDAT
; _this$ = ecx
	push	ebp
	mov	ebp, esp
	push	ecx
	mov	DWORD PTR _this$[ebp], ecx
	mov	ecx, DWORD PTR _this$[ebp]
	call	??1CvLandmass@@UAE@XZ			; CvLandmass::~CvLandmass
	mov	eax, DWORD PTR ___flags$[ebp]
	and	eax, 1
	je	SHORT $LN1@scalar
	mov	ecx, DWORD PTR _this$[ebp]
	push	ecx
	call	??3@YAXPAX@Z				; operator delete
	add	esp, 4
$LN1@scalar:
	mov	eax, DWORD PTR _this$[ebp]
	mov	esp, ebp
	pop	ebp
	ret	4
??_GCvLandmass@@UAEPAXI@Z ENDP				; CvLandmass::`scalar deleting destructor'
; Function compile flags: /Odtp
_TEXT	ENDS
;	COMDAT ??1CvLandmass@@UAE@XZ
_TEXT	SEGMENT
_this$ = -4						; size = 4
??1CvLandmass@@UAE@XZ PROC				; CvLandmass::~CvLandmass, COMDAT
; _this$ = ecx

; 50   : {

	push	ebp
	mov	ebp, esp
	push	ecx
	mov	DWORD PTR _this$[ebp], ecx
	mov	eax, DWORD PTR _this$[ebp]
	mov	DWORD PTR [eax], OFFSET ??_7CvLandmass@@6B@

; 51   : 
; 52   : }

	mov	esp, ebp
	pop	ebp
	ret	0
??1CvLandmass@@UAE@XZ ENDP				; CvLandmass::~CvLandmass
_TEXT	ENDS
PUBLIC	?init@CvLandmass@@QAEXH_N@Z			; CvLandmass::init
; Function compile flags: /Odtp
;	COMDAT ?init@CvLandmass@@QAEXH_N@Z
_TEXT	SEGMENT
_this$ = -4						; size = 4
_iID$ = 8						; size = 4
_bWater$ = 12						; size = 1
?init@CvLandmass@@QAEXH_N@Z PROC			; CvLandmass::init, COMDAT
; _this$ = ecx

; 56   : {

	push	ebp
	mov	ebp, esp
	push	ecx
	mov	DWORD PTR _this$[ebp], ecx

; 57   : 	m_iID = iID;

	mov	eax, DWORD PTR _this$[ebp]
	mov	ecx, DWORD PTR _iID$[ebp]
	mov	DWORD PTR [eax+4], ecx

; 58   : 	m_iNumTiles = 0;

	mov	edx, DWORD PTR _this$[ebp]
	mov	DWORD PTR [edx+8], 0

; 59   : 	m_bWater = bWater;

	mov	eax, DWORD PTR _this$[ebp]
	mov	cl, BYTE PTR _bWater$[ebp]
	mov	BYTE PTR [eax+13], cl

; 60   : 	m_cContinentType = 0;

	mov	edx, DWORD PTR _this$[ebp]
	mov	BYTE PTR [edx+12], 0

; 61   : 	m_iCentroidX = 0;

	mov	eax, DWORD PTR _this$[ebp]
	mov	DWORD PTR [eax+16], 0

; 62   : 	m_iCentroidY = 0;

	mov	ecx, DWORD PTR _this$[ebp]
	mov	DWORD PTR [ecx+20], 0

; 63   : }

	mov	esp, ebp
	pop	ebp
	ret	8
?init@CvLandmass@@QAEXH_N@Z ENDP			; CvLandmass::init
_TEXT	ENDS
PUBLIC	?GetID@CvLandmass@@QBEHXZ			; CvLandmass::GetID
; Function compile flags: /Odtp
;	COMDAT ?GetID@CvLandmass@@QBEHXZ
_TEXT	SEGMENT
_this$ = -4						; size = 4
?GetID@CvLandmass@@QBEHXZ PROC				; CvLandmass::GetID, COMDAT
; _this$ = ecx

; 67   : {

	push	ebp
	mov	ebp, esp
	push	ecx
	mov	DWORD PTR _this$[ebp], ecx

; 68   : 	return m_iID;

	mov	eax, DWORD PTR _this$[ebp]
	mov	eax, DWORD PTR [eax+4]

; 69   : }

	mov	esp, ebp
	pop	ebp
	ret	0
?GetID@CvLandmass@@QBEHXZ ENDP				; CvLandmass::GetID
_TEXT	ENDS
PUBLIC	?SetID@CvLandmass@@QAEXH@Z			; CvLandmass::SetID
; Function compile flags: /Odtp
;	COMDAT ?SetID@CvLandmass@@QAEXH@Z
_TEXT	SEGMENT
_this$ = -4						; size = 4
_iID$ = 8						; size = 4
?SetID@CvLandmass@@QAEXH@Z PROC				; CvLandmass::SetID, COMDAT
; _this$ = ecx

; 73   : {

	push	ebp
	mov	ebp, esp
	push	ecx
	mov	DWORD PTR _this$[ebp], ecx

; 74   : 	m_iID = iID;

	mov	eax, DWORD PTR _this$[ebp]
	mov	ecx, DWORD PTR _iID$[ebp]
	mov	DWORD PTR [eax+4], ecx

; 75   : }

	mov	esp, ebp
	pop	ebp
	ret	4
?SetID@CvLandmass@@QAEXH@Z ENDP				; CvLandmass::SetID
_TEXT	ENDS
PUBLIC	?getNumTiles@CvLandmass@@QBEHXZ			; CvLandmass::getNumTiles
; Function compile flags: /Odtp
;	COMDAT ?getNumTiles@CvLandmass@@QBEHXZ
_TEXT	SEGMENT
_this$ = -4						; size = 4
?getNumTiles@CvLandmass@@QBEHXZ PROC			; CvLandmass::getNumTiles, COMDAT
; _this$ = ecx

; 79   : {

	push	ebp
	mov	ebp, esp
	push	ecx
	mov	DWORD PTR _this$[ebp], ecx

; 80   : 	return m_iNumTiles;

	mov	eax, DWORD PTR _this$[ebp]
	mov	eax, DWORD PTR [eax+8]

; 81   : }

	mov	esp, ebp
	pop	ebp
	ret	0
?getNumTiles@CvLandmass@@QBEHXZ ENDP			; CvLandmass::getNumTiles
_TEXT	ENDS
PUBLIC	?updateYield@CvMap@@QAEXXZ			; CvMap::updateYield
PUBLIC	?isLake@CvLandmass@@QBE_NXZ			; CvLandmass::isLake
PUBLIC	?changeNumTiles@CvLandmass@@QAEXH@Z		; CvLandmass::changeNumTiles
EXTRN	?gGlobals@@3VCvGlobals@@A:BYTE			; gGlobals
; Function compile flags: /Odtp
;	COMDAT ?changeNumTiles@CvLandmass@@QAEXH@Z
_TEXT	SEGMENT
_this$ = -12						; size = 4
$T236805 = -8						; size = 4
_bOldLake$234712 = -1					; size = 1
_iChange$ = 8						; size = 4
?changeNumTiles@CvLandmass@@QAEXH@Z PROC		; CvLandmass::changeNumTiles, COMDAT
; _this$ = ecx

; 85   : {

	push	ebp
	mov	ebp, esp
	sub	esp, 12					; 0000000cH
	push	esi
	mov	DWORD PTR _this$[ebp], ecx

; 86   : 	if(iChange != 0)

	cmp	DWORD PTR _iChange$[ebp], 0
	je	SHORT $LN3@changeNumT

; 87   : 	{
; 88   : 		bool bOldLake = isLake();

	mov	ecx, DWORD PTR _this$[ebp]
	call	?isLake@CvLandmass@@QBE_NXZ		; CvLandmass::isLake
	mov	BYTE PTR _bOldLake$234712[ebp], al

; 89   : 
; 90   : 		m_iNumTiles = (m_iNumTiles + iChange);

	mov	eax, DWORD PTR _this$[ebp]
	mov	ecx, DWORD PTR [eax+8]
	add	ecx, DWORD PTR _iChange$[ebp]
	mov	edx, DWORD PTR _this$[ebp]
	mov	DWORD PTR [edx+8], ecx

; 91   : 		CvAssert(m_iNumTiles >= 0);
; 92   : 
; 93   : 		if(bOldLake != isLake())

	movzx	esi, BYTE PTR _bOldLake$234712[ebp]
	mov	ecx, DWORD PTR _this$[ebp]
	call	?isLake@CvLandmass@@QBE_NXZ		; CvLandmass::isLake
	movzx	eax, al
	cmp	esi, eax
	je	SHORT $LN3@changeNumT

; 94   : 		{
; 95   : 			GC.getMap().updateYield();

	mov	ecx, DWORD PTR ?gGlobals@@3VCvGlobals@@A+52
	mov	DWORD PTR $T236805[ebp], ecx
	mov	ecx, DWORD PTR $T236805[ebp]
	call	?updateYield@CvMap@@QAEXXZ		; CvMap::updateYield
$LN3@changeNumT:

; 96   : 		}
; 97   : 	}
; 98   : }

	pop	esi
	mov	esp, ebp
	pop	ebp
	ret	4
?changeNumTiles@CvLandmass@@QAEXH@Z ENDP		; CvLandmass::changeNumTiles
_TEXT	ENDS
PUBLIC	?ChangeCentroidX@CvLandmass@@QAEXH@Z		; CvLandmass::ChangeCentroidX
; Function compile flags: /Odtp
;	COMDAT ?ChangeCentroidX@CvLandmass@@QAEXH@Z
_TEXT	SEGMENT
_this$ = -4						; size = 4
_iChange$ = 8						; size = 4
?ChangeCentroidX@CvLandmass@@QAEXH@Z PROC		; CvLandmass::ChangeCentroidX, COMDAT
; _this$ = ecx

; 102  : {

	push	ebp
	mov	ebp, esp
	push	ecx
	mov	DWORD PTR _this$[ebp], ecx

; 103  : 	m_iCentroidX = (m_iCentroidX + iChange);

	mov	eax, DWORD PTR _this$[ebp]
	mov	ecx, DWORD PTR [eax+16]
	add	ecx, DWORD PTR _iChange$[ebp]
	mov	edx, DWORD PTR _this$[ebp]
	mov	DWORD PTR [edx+16], ecx

; 104  : }

	mov	esp, ebp
	pop	ebp
	ret	4
?ChangeCentroidX@CvLandmass@@QAEXH@Z ENDP		; CvLandmass::ChangeCentroidX
_TEXT	ENDS
PUBLIC	?ChangeCentroidY@CvLandmass@@QAEXH@Z		; CvLandmass::ChangeCentroidY
; Function compile flags: /Odtp
;	COMDAT ?ChangeCentroidY@CvLandmass@@QAEXH@Z
_TEXT	SEGMENT
_this$ = -4						; size = 4
_iChange$ = 8						; size = 4
?ChangeCentroidY@CvLandmass@@QAEXH@Z PROC		; CvLandmass::ChangeCentroidY, COMDAT
; _this$ = ecx

; 108  : {

	push	ebp
	mov	ebp, esp
	push	ecx
	mov	DWORD PTR _this$[ebp], ecx

; 109  : 	m_iCentroidY = (m_iCentroidY + iChange);

	mov	eax, DWORD PTR _this$[ebp]
	mov	ecx, DWORD PTR [eax+20]
	add	ecx, DWORD PTR _iChange$[ebp]
	mov	edx, DWORD PTR _this$[ebp]
	mov	DWORD PTR [edx+20], ecx

; 110  : }

	mov	esp, ebp
	pop	ebp
	ret	4
?ChangeCentroidY@CvLandmass@@QAEXH@Z ENDP		; CvLandmass::ChangeCentroidY
_TEXT	ENDS
PUBLIC	?isWater@CvLandmass@@QBE_NXZ			; CvLandmass::isWater
; Function compile flags: /Odtp
;	COMDAT ?isWater@CvLandmass@@QBE_NXZ
_TEXT	SEGMENT
_this$ = -4						; size = 4
?isWater@CvLandmass@@QBE_NXZ PROC			; CvLandmass::isWater, COMDAT
; _this$ = ecx

; 114  : {

	push	ebp
	mov	ebp, esp
	push	ecx
	mov	DWORD PTR _this$[ebp], ecx

; 115  : 	return m_bWater;

	mov	eax, DWORD PTR _this$[ebp]
	mov	al, BYTE PTR [eax+13]

; 116  : }

	mov	esp, ebp
	pop	ebp
	ret	0
?isWater@CvLandmass@@QBE_NXZ ENDP			; CvLandmass::isWater
; Function compile flags: /Odtp
_TEXT	ENDS
;	COMDAT ?isLake@CvLandmass@@QBE_NXZ
_TEXT	SEGMENT
tv71 = -12						; size = 4
_this$ = -8						; size = 4
$T236819 = -4						; size = 4
?isLake@CvLandmass@@QBE_NXZ PROC			; CvLandmass::isLake, COMDAT
; _this$ = ecx

; 120  : {

	push	ebp
	mov	ebp, esp
	sub	esp, 12					; 0000000cH
	mov	DWORD PTR _this$[ebp], ecx

; 121  : 	return (m_bWater && (m_iNumTiles <= GC.getLAKE_MAX_AREA_SIZE()));

	mov	eax, DWORD PTR _this$[ebp]
	movzx	ecx, BYTE PTR [eax+13]
	test	ecx, ecx
	je	SHORT $LN3@isLake
	mov	edx, DWORD PTR ?gGlobals@@3VCvGlobals@@A+6508
	mov	DWORD PTR $T236819[ebp], edx
	mov	eax, DWORD PTR _this$[ebp]
	mov	ecx, DWORD PTR [eax+8]
	cmp	ecx, DWORD PTR $T236819[ebp]
	jg	SHORT $LN3@isLake
	mov	DWORD PTR tv71[ebp], 1
	jmp	SHORT $LN4@isLake
$LN3@isLake:
	mov	DWORD PTR tv71[ebp], 0
$LN4@isLake:
	mov	al, BYTE PTR tv71[ebp]

; 122  : }

	mov	esp, ebp
	pop	ebp
	ret	0
?isLake@CvLandmass@@QBE_NXZ ENDP			; CvLandmass::isLake
_TEXT	ENDS
PUBLIC	?GetContinentType@CvLandmass@@QBEDXZ		; CvLandmass::GetContinentType
; Function compile flags: /Odtp
;	COMDAT ?GetContinentType@CvLandmass@@QBEDXZ
_TEXT	SEGMENT
_this$ = -4						; size = 4
?GetContinentType@CvLandmass@@QBEDXZ PROC		; CvLandmass::GetContinentType, COMDAT
; _this$ = ecx

; 131  : {

	push	ebp
	mov	ebp, esp
	push	ecx
	mov	DWORD PTR _this$[ebp], ecx

; 132  : 	return m_cContinentType;

	mov	eax, DWORD PTR _this$[ebp]
	mov	al, BYTE PTR [eax+12]

; 133  : }

	mov	esp, ebp
	pop	ebp
	ret	0
?GetContinentType@CvLandmass@@QBEDXZ ENDP		; CvLandmass::GetContinentType
_TEXT	ENDS
PUBLIC	?SetContinentType@CvLandmass@@QAEXD@Z		; CvLandmass::SetContinentType
; Function compile flags: /Odtp
;	COMDAT ?SetContinentType@CvLandmass@@QAEXD@Z
_TEXT	SEGMENT
_this$ = -4						; size = 4
_cContinent$ = 8					; size = 1
?SetContinentType@CvLandmass@@QAEXD@Z PROC		; CvLandmass::SetContinentType, COMDAT
; _this$ = ecx

; 141  : {

	push	ebp
	mov	ebp, esp
	push	ecx
	mov	DWORD PTR _this$[ebp], ecx

; 142  : 	m_cContinentType = cContinent;

	mov	eax, DWORD PTR _this$[ebp]
	mov	cl, BYTE PTR _cContinent$[ebp]
	mov	BYTE PTR [eax+12], cl

; 143  : }

	mov	esp, ebp
	pop	ebp
	ret	4
?SetContinentType@CvLandmass@@QAEXD@Z ENDP		; CvLandmass::SetContinentType
_TEXT	ENDS
PUBLIC	?GetCentroidX@CvLandmass@@QAEHXZ		; CvLandmass::GetCentroidX
; Function compile flags: /Odtp
;	COMDAT ?GetCentroidX@CvLandmass@@QAEHXZ
_TEXT	SEGMENT
_this$ = -4						; size = 4
?GetCentroidX@CvLandmass@@QAEHXZ PROC			; CvLandmass::GetCentroidX, COMDAT
; _this$ = ecx

; 147  : {

	push	ebp
	mov	ebp, esp
	push	ecx
	push	esi
	mov	DWORD PTR _this$[ebp], ecx

; 148  : 	if(m_iNumTiles > 0)

	mov	eax, DWORD PTR _this$[ebp]
	cmp	DWORD PTR [eax+8], 0
	jle	SHORT $LN1@GetCentroi

; 149  : 	{
; 150  : 		return m_iCentroidX / m_iNumTiles;

	mov	ecx, DWORD PTR _this$[ebp]
	mov	esi, DWORD PTR _this$[ebp]
	mov	eax, DWORD PTR [ecx+16]
	cdq
	idiv	DWORD PTR [esi+8]
	jmp	SHORT $LN2@GetCentroi
$LN1@GetCentroi:

; 151  : 
; 152  : 	}
; 153  : 	return -1;

	or	eax, -1
$LN2@GetCentroi:

; 154  : }

	pop	esi
	mov	esp, ebp
	pop	ebp
	ret	0
?GetCentroidX@CvLandmass@@QAEHXZ ENDP			; CvLandmass::GetCentroidX
_TEXT	ENDS
PUBLIC	?GetCentroidY@CvLandmass@@QAEHXZ		; CvLandmass::GetCentroidY
; Function compile flags: /Odtp
;	COMDAT ?GetCentroidY@CvLandmass@@QAEHXZ
_TEXT	SEGMENT
_this$ = -4						; size = 4
?GetCentroidY@CvLandmass@@QAEHXZ PROC			; CvLandmass::GetCentroidY, COMDAT
; _this$ = ecx

; 158  : {

	push	ebp
	mov	ebp, esp
	push	ecx
	push	esi
	mov	DWORD PTR _this$[ebp], ecx

; 159  : 	if(m_iNumTiles > 0)

	mov	eax, DWORD PTR _this$[ebp]
	cmp	DWORD PTR [eax+8], 0
	jle	SHORT $LN1@GetCentroi@2

; 160  : 	{
; 161  : 		return m_iCentroidY / m_iNumTiles;

	mov	ecx, DWORD PTR _this$[ebp]
	mov	esi, DWORD PTR _this$[ebp]
	mov	eax, DWORD PTR [ecx+20]
	cdq
	idiv	DWORD PTR [esi+8]
	jmp	SHORT $LN2@GetCentroi@2
$LN1@GetCentroi@2:

; 162  : 
; 163  : 	}
; 164  : 	return -1;

	or	eax, -1
$LN2@GetCentroi@2:

; 165  : }

	pop	esi
	mov	esp, ebp
	pop	ebp
	ret	0
?GetCentroidY@CvLandmass@@QAEHXZ ENDP			; CvLandmass::GetCentroidY
_TEXT	ENDS
EXTRN	?Read@FDataStream@@IAEXAAD@Z:PROC		; FDataStream::Read
EXTRN	?Read@FDataStream@@IAEXAA_N@Z:PROC		; FDataStream::Read
EXTRN	?Read@FDataStream@@IAEXAAH@Z:PROC		; FDataStream::Read
EXTRN	?Read@FDataStream@@IAEXAAI@Z:PROC		; FDataStream::Read
; Function compile flags: /Odtp
;	COMDAT ?read@CvLandmass@@UAEXAAVFDataStream@@@Z
_TEXT	SEGMENT
_this$ = -8						; size = 4
_uiVersion$ = -4					; size = 4
_kStream$ = 8						; size = 4
?read@CvLandmass@@UAEXAAVFDataStream@@@Z PROC		; CvLandmass::read, COMDAT
; _this$ = ecx

; 170  : {

	push	ebp
	mov	ebp, esp
	sub	esp, 8
	mov	DWORD PTR _this$[ebp], ecx

; 171  : 	// Version number to maintain backwards compatibility
; 172  : 	uint uiVersion;
; 173  : 	kStream >> uiVersion;

	lea	eax, DWORD PTR _uiVersion$[ebp]
	push	eax
	mov	ecx, DWORD PTR _kStream$[ebp]
	call	?Read@FDataStream@@IAEXAAI@Z		; FDataStream::Read

; 174  : 
; 175  : 	kStream >> m_iID;

	mov	ecx, DWORD PTR _this$[ebp]
	add	ecx, 4
	push	ecx
	mov	ecx, DWORD PTR _kStream$[ebp]
	call	?Read@FDataStream@@IAEXAAH@Z		; FDataStream::Read

; 176  : 	kStream >> m_iNumTiles;

	mov	edx, DWORD PTR _this$[ebp]
	add	edx, 8
	push	edx
	mov	ecx, DWORD PTR _kStream$[ebp]
	call	?Read@FDataStream@@IAEXAAH@Z		; FDataStream::Read

; 177  : 
; 178  : 	kStream >> m_iCentroidX;

	mov	eax, DWORD PTR _this$[ebp]
	add	eax, 16					; 00000010H
	push	eax
	mov	ecx, DWORD PTR _kStream$[ebp]
	call	?Read@FDataStream@@IAEXAAH@Z		; FDataStream::Read

; 179  : 	kStream >> m_iCentroidY;

	mov	ecx, DWORD PTR _this$[ebp]
	add	ecx, 20					; 00000014H
	push	ecx
	mov	ecx, DWORD PTR _kStream$[ebp]
	call	?Read@FDataStream@@IAEXAAH@Z		; FDataStream::Read

; 180  : 
; 181  : 	kStream >> m_bWater;

	mov	edx, DWORD PTR _this$[ebp]
	add	edx, 13					; 0000000dH
	push	edx
	mov	ecx, DWORD PTR _kStream$[ebp]
	call	?Read@FDataStream@@IAEXAA_N@Z		; FDataStream::Read

; 182  : 
; 183  : 	kStream >> m_cContinentType;

	mov	eax, DWORD PTR _this$[ebp]
	add	eax, 12					; 0000000cH
	push	eax
	mov	ecx, DWORD PTR _kStream$[ebp]
	call	?Read@FDataStream@@IAEXAAD@Z		; FDataStream::Read

; 184  : }

	mov	esp, ebp
	pop	ebp
	ret	4
?read@CvLandmass@@UAEXAAVFDataStream@@@Z ENDP		; CvLandmass::read
_TEXT	ENDS
EXTRN	?Write@FDataStream@@IAEXABD@Z:PROC		; FDataStream::Write
EXTRN	?Write@FDataStream@@IAEXAB_N@Z:PROC		; FDataStream::Write
EXTRN	?Write@FDataStream@@IAEXABH@Z:PROC		; FDataStream::Write
EXTRN	?Write@FDataStream@@IAEXABI@Z:PROC		; FDataStream::Write
; Function compile flags: /Odtp
;	COMDAT ?write@CvLandmass@@UBEXAAVFDataStream@@@Z
_TEXT	SEGMENT
_this$ = -8						; size = 4
_uiVersion$ = -4					; size = 4
_kStream$ = 8						; size = 4
?write@CvLandmass@@UBEXAAVFDataStream@@@Z PROC		; CvLandmass::write, COMDAT
; _this$ = ecx

; 188  : {

	push	ebp
	mov	ebp, esp
	sub	esp, 8
	mov	DWORD PTR _this$[ebp], ecx

; 189  : 	// Current version number
; 190  : 	uint uiVersion = 1;

	mov	DWORD PTR _uiVersion$[ebp], 1

; 191  : 	kStream << uiVersion;

	lea	eax, DWORD PTR _uiVersion$[ebp]
	push	eax
	mov	ecx, DWORD PTR _kStream$[ebp]
	call	?Write@FDataStream@@IAEXABI@Z		; FDataStream::Write

; 192  : 
; 193  : 	kStream << m_iID;

	mov	ecx, DWORD PTR _this$[ebp]
	add	ecx, 4
	push	ecx
	mov	ecx, DWORD PTR _kStream$[ebp]
	call	?Write@FDataStream@@IAEXABH@Z		; FDataStream::Write

; 194  : 	kStream << m_iNumTiles;

	mov	edx, DWORD PTR _this$[ebp]
	add	edx, 8
	push	edx
	mov	ecx, DWORD PTR _kStream$[ebp]
	call	?Write@FDataStream@@IAEXABH@Z		; FDataStream::Write

; 195  : 
; 196  : 	kStream << m_iCentroidX;

	mov	eax, DWORD PTR _this$[ebp]
	add	eax, 16					; 00000010H
	push	eax
	mov	ecx, DWORD PTR _kStream$[ebp]
	call	?Write@FDataStream@@IAEXABH@Z		; FDataStream::Write

; 197  : 	kStream << m_iCentroidY;

	mov	ecx, DWORD PTR _this$[ebp]
	add	ecx, 20					; 00000014H
	push	ecx
	mov	ecx, DWORD PTR _kStream$[ebp]
	call	?Write@FDataStream@@IAEXABH@Z		; FDataStream::Write

; 198  : 
; 199  : 	kStream << m_bWater;

	mov	edx, DWORD PTR _this$[ebp]
	add	edx, 13					; 0000000dH
	push	edx
	mov	ecx, DWORD PTR _kStream$[ebp]
	call	?Write@FDataStream@@IAEXAB_N@Z		; FDataStream::Write

; 200  : 
; 201  : 	kStream << m_cContinentType;

	mov	eax, DWORD PTR _this$[ebp]
	add	eax, 12					; 0000000cH
	push	eax
	mov	ecx, DWORD PTR _kStream$[ebp]
	call	?Write@FDataStream@@IAEXABD@Z		; FDataStream::Write

; 202  : 
; 203  : }

	mov	esp, ebp
	pop	ebp
	ret	4
?write@CvLandmass@@UBEXAAVFDataStream@@@Z ENDP		; CvLandmass::write
_TEXT	ENDS
PUBLIC	??6@YAAAVFDataStream@@AAV0@ABVCvLandmass@@@Z	; operator<<
; Function compile flags: /Odtp
;	COMDAT ??6@YAAAVFDataStream@@AAV0@ABVCvLandmass@@@Z
_TEXT	SEGMENT
_saveTo$ = 8						; size = 4
_readFrom$ = 12						; size = 4
??6@YAAAVFDataStream@@AAV0@ABVCvLandmass@@@Z PROC	; operator<<, COMDAT

; 208  : {

	push	ebp
	mov	ebp, esp

; 209  : 	readFrom.write(saveTo);

	mov	eax, DWORD PTR _saveTo$[ebp]
	push	eax
	mov	ecx, DWORD PTR _readFrom$[ebp]
	mov	edx, DWORD PTR [ecx]
	mov	ecx, DWORD PTR _readFrom$[ebp]
	mov	eax, DWORD PTR [edx+8]
	call	eax

; 210  : 	return saveTo;

	mov	eax, DWORD PTR _saveTo$[ebp]

; 211  : }

	pop	ebp
	ret	0
??6@YAAAVFDataStream@@AAV0@ABVCvLandmass@@@Z ENDP	; operator<<
_TEXT	ENDS
PUBLIC	??5@YAAAVFDataStream@@AAV0@AAVCvLandmass@@@Z	; operator>>
; Function compile flags: /Odtp
;	COMDAT ??5@YAAAVFDataStream@@AAV0@AAVCvLandmass@@@Z
_TEXT	SEGMENT
_loadFrom$ = 8						; size = 4
_writeTo$ = 12						; size = 4
??5@YAAAVFDataStream@@AAV0@AAVCvLandmass@@@Z PROC	; operator>>, COMDAT

; 215  : {

	push	ebp
	mov	ebp, esp

; 216  : 	writeTo.read(loadFrom);

	mov	eax, DWORD PTR _loadFrom$[ebp]
	push	eax
	mov	ecx, DWORD PTR _writeTo$[ebp]
	mov	edx, DWORD PTR [ecx]
	mov	ecx, DWORD PTR _writeTo$[ebp]
	mov	eax, DWORD PTR [edx+4]
	call	eax

; 217  : 	return loadFrom;

	mov	eax, DWORD PTR _loadFrom$[ebp]

; 218  : }

	pop	ebp
	ret	0
??5@YAAAVFDataStream@@AAV0@AAVCvLandmass@@@Z ENDP	; operator>>
_TEXT	ENDS
PUBLIC	??1?$FFreeListTrashArray@VCvLandmass@@@@UAE@XZ	; FFreeListTrashArray<CvLandmass>::~FFreeListTrashArray<CvLandmass>
PUBLIC	??1?$FFreeListTrashArray@VCvArea@@@@UAE@XZ	; FFreeListTrashArray<CvArea>::~FFreeListTrashArray<CvArea>
PUBLIC	??1?$FStaticVector@PAVCvPlot@@$0DOI@$00$0BCJ@$00@@QAE@XZ ; FStaticVector<CvPlot *,1000,1,297,1>::~FStaticVector<CvPlot *,1000,1,297,1>
PUBLIC	?reset@CvMap@@QAEXPAUCvMapInitData@@@Z		; CvMap::reset
PUBLIC	??0?$FFreeListTrashArray@VCvLandmass@@@@QAE@XZ	; FFreeListTrashArray<CvLandmass>::FFreeListTrashArray<CvLandmass>
PUBLIC	??0?$FFreeListTrashArray@VCvArea@@@@QAE@XZ	; FFreeListTrashArray<CvArea>::FFreeListTrashArray<CvArea>
PUBLIC	??0?$FStaticVector@PAVCvPlot@@$0DOI@$00$0BCJ@$00@@QAE@XZ ; FStaticVector<CvPlot *,1000,1,297,1>::FStaticVector<CvPlot *,1000,1,297,1>
PUBLIC	??_7CvMap@@6B@					; CvMap::`vftable'
PUBLIC	??0CvMap@@QAE@XZ				; CvMap::CvMap
EXTRN	??1CvPlotManager@@QAE@XZ:PROC			; CvPlotManager::~CvPlotManager
EXTRN	??0CvPlotManager@@QAE@XZ:PROC			; CvPlotManager::CvPlotManager
EXTRN	___security_cookie:DWORD
EXTRN	___CxxFrameHandler3:PROC
EXTRN	@__security_check_cookie@4:PROC
EXTRN	??_ECvMap@@UAEPAXI@Z:PROC			; CvMap::`vector deleting destructor'
;	COMDAT ??_7CvMap@@6B@
; File d:\sources\lekmod_git\checkout\lekmod_dll\cvgamecoredllutil\include\cvstructs.h
CONST	SEGMENT
??_7CvMap@@6B@ DD FLAT:??_ECvMap@@UAEPAXI@Z		; CvMap::`vftable'
CONST	ENDS
;	COMDAT xdata$x
xdata$x	SEGMENT
__unwindtable$??0CvMap@@QAE@XZ DD 0ffffffffH
	DD	FLAT:__unwindfunclet$??0CvMap@@QAE@XZ$0
	DD	00H
	DD	FLAT:__unwindfunclet$??0CvMap@@QAE@XZ$1
	DD	01H
	DD	FLAT:__unwindfunclet$??0CvMap@@QAE@XZ$2
	DD	02H
	DD	FLAT:__unwindfunclet$??0CvMap@@QAE@XZ$3
__ehfuncinfo$??0CvMap@@QAE@XZ DD 019930522H
	DD	04H
	DD	FLAT:__unwindtable$??0CvMap@@QAE@XZ
	DD	2 DUP(00H)
	DD	2 DUP(00H)
	DD	00H
	DD	01H
; Function compile flags: /Odtp
; File d:\sources\lekmod_git\checkout\lekmod_dll\cvgamecoredll_expansion2\cvmap.cpp
xdata$x	ENDS
;	COMDAT ??0CvMap@@QAE@XZ
_TEXT	SEGMENT
_this$ = -44						; size = 4
_defaultMapData$ = -32					; size = 20
__$EHRec$ = -12						; size = 12
??0CvMap@@QAE@XZ PROC					; CvMap::CvMap, COMDAT
; _this$ = ecx

; 227  : {

	push	ebp
	mov	ebp, esp
	push	-1
	push	__ehhandler$??0CvMap@@QAE@XZ
	mov	eax, DWORD PTR fs:0
	push	eax
	sub	esp, 32					; 00000020H
	mov	eax, DWORD PTR ___security_cookie
	xor	eax, ebp
	push	eax
	lea	eax, DWORD PTR __$EHRec$[ebp]
	mov	DWORD PTR fs:0, eax
	mov	DWORD PTR _this$[ebp], ecx
	mov	eax, DWORD PTR _this$[ebp]
	mov	DWORD PTR [eax], OFFSET ??_7CvMap@@6B@
	mov	ecx, DWORD PTR _this$[ebp]
	add	ecx, 4
	call	??0?$FStaticVector@PAVCvPlot@@$0DOI@$00$0BCJ@$00@@QAE@XZ ; FStaticVector<CvPlot *,1000,1,297,1>::FStaticVector<CvPlot *,1000,1,297,1>
	mov	DWORD PTR __$EHRec$[ebp+8], 0
	mov	ecx, DWORD PTR _this$[ebp]
	add	ecx, 4112				; 00001010H
	call	??0?$FFreeListTrashArray@VCvArea@@@@QAE@XZ ; FFreeListTrashArray<CvArea>::FFreeListTrashArray<CvArea>
	mov	BYTE PTR __$EHRec$[ebp+8], 1
	mov	ecx, DWORD PTR _this$[ebp]
	add	ecx, 4140				; 0000102cH
	call	??0?$FFreeListTrashArray@VCvLandmass@@@@QAE@XZ ; FFreeListTrashArray<CvLandmass>::FFreeListTrashArray<CvLandmass>
	mov	BYTE PTR __$EHRec$[ebp+8], 2
	mov	ecx, DWORD PTR _this$[ebp]
	add	ecx, 4184				; 00001058H
	call	??0CvPlotManager@@QAE@XZ		; CvPlotManager::CvPlotManager
	mov	BYTE PTR __$EHRec$[ebp+8], 3

; 228  : 	CvMapInitData defaultMapData;

	mov	DWORD PTR _defaultMapData$[ebp], 0
	mov	DWORD PTR _defaultMapData$[ebp+4], 0
	mov	DWORD PTR _defaultMapData$[ebp+8], 90	; 0000005aH
	mov	DWORD PTR _defaultMapData$[ebp+12], -90	; ffffffa6H
	mov	BYTE PTR _defaultMapData$[ebp+16], 1
	mov	BYTE PTR _defaultMapData$[ebp+17], 0

; 229  : 
; 230  : 	CvAssert(sgCvMapInstanceCount == 0);
; 231  : 	++sgCvMapInstanceCount;

	mov	ecx, DWORD PTR _sgCvMapInstanceCount
	add	ecx, 1
	mov	DWORD PTR _sgCvMapInstanceCount, ecx

; 232  : 
; 233  : 	m_paiNumResource = NULL;

	mov	edx, DWORD PTR _this$[ebp]
	mov	DWORD PTR [edx+4060], 0

; 234  : 	m_paiNumResourceOnLand = NULL;

	mov	eax, DWORD PTR _this$[ebp]
	mov	DWORD PTR [eax+4064], 0

; 235  : 
; 236  : 	m_pMapPlots = NULL;

	mov	ecx, DWORD PTR _this$[ebp]
	mov	DWORD PTR [ecx+4068], 0

; 237  : 
; 238  : 
; 239  : 	m_pYields = NULL;

	mov	edx, DWORD PTR _this$[ebp]
	mov	DWORD PTR [edx+4072], 0

; 240  : 	m_pFoundValue = NULL;

	mov	eax, DWORD PTR _this$[ebp]
	mov	DWORD PTR [eax+4076], 0

; 241  : 	m_pPlayerCityRadiusCount = NULL;

	mov	ecx, DWORD PTR _this$[ebp]
	mov	DWORD PTR [ecx+4080], 0

; 242  : 	m_pVisibilityCount = NULL;

	mov	edx, DWORD PTR _this$[ebp]
	mov	DWORD PTR [edx+4084], 0

; 243  : 	m_pRevealedOwner = NULL;

	mov	eax, DWORD PTR _this$[ebp]
	mov	DWORD PTR [eax+4088], 0

; 244  : 	m_pRevealed = NULL;

	mov	ecx, DWORD PTR _this$[ebp]
	mov	DWORD PTR [ecx+4092], 0

; 245  : 	m_pRevealedImprovementType = NULL;

	mov	edx, DWORD PTR _this$[ebp]
	mov	DWORD PTR [edx+4096], 0

; 246  : 	m_pRevealedRouteType = NULL;

	mov	eax, DWORD PTR _this$[ebp]
	mov	DWORD PTR [eax+4100], 0

; 247  : 	m_pNoSettling = NULL;

	mov	ecx, DWORD PTR _this$[ebp]
	mov	DWORD PTR [ecx+4104], 0

; 248  : 	m_pResourceForceReveal = NULL;

	mov	edx, DWORD PTR _this$[ebp]
	mov	DWORD PTR [edx+4108], 0

; 249  : 
; 250  : 	m_iAIMapHints = 0;

	mov	eax, DWORD PTR _this$[ebp]
	mov	DWORD PTR [eax+4052], 0

; 251  : 
; 252  : 	reset(&defaultMapData);

	lea	ecx, DWORD PTR _defaultMapData$[ebp]
	push	ecx
	mov	ecx, DWORD PTR _this$[ebp]
	call	?reset@CvMap@@QAEXPAUCvMapInitData@@@Z	; CvMap::reset

; 253  : }

	mov	DWORD PTR __$EHRec$[ebp+8], -1
	mov	eax, DWORD PTR _this$[ebp]
	mov	ecx, DWORD PTR __$EHRec$[ebp]
	mov	DWORD PTR fs:0, ecx
	pop	ecx
	mov	esp, ebp
	pop	ebp
	ret	0
_TEXT	ENDS
;	COMDAT text$x
text$x	SEGMENT
__unwindfunclet$??0CvMap@@QAE@XZ$0:
	mov	ecx, DWORD PTR _this$[ebp]
	add	ecx, 4
	jmp	??1?$FStaticVector@PAVCvPlot@@$0DOI@$00$0BCJ@$00@@QAE@XZ ; FStaticVector<CvPlot *,1000,1,297,1>::~FStaticVector<CvPlot *,1000,1,297,1>
__unwindfunclet$??0CvMap@@QAE@XZ$1:
	mov	ecx, DWORD PTR _this$[ebp]
	add	ecx, 4112				; 00001010H
	jmp	??1?$FFreeListTrashArray@VCvArea@@@@UAE@XZ ; FFreeListTrashArray<CvArea>::~FFreeListTrashArray<CvArea>
__unwindfunclet$??0CvMap@@QAE@XZ$2:
	mov	ecx, DWORD PTR _this$[ebp]
	add	ecx, 4140				; 0000102cH
	jmp	??1?$FFreeListTrashArray@VCvLandmass@@@@UAE@XZ ; FFreeListTrashArray<CvLandmass>::~FFreeListTrashArray<CvLandmass>
__unwindfunclet$??0CvMap@@QAE@XZ$3:
	mov	ecx, DWORD PTR _this$[ebp]
	add	ecx, 4184				; 00001058H
	jmp	??1CvPlotManager@@QAE@XZ		; CvPlotManager::~CvPlotManager
__ehhandler$??0CvMap@@QAE@XZ:
	mov	edx, DWORD PTR [esp+8]
	lea	eax, DWORD PTR [edx+12]
	mov	ecx, DWORD PTR [edx-36]
	xor	ecx, eax
	call	@__security_check_cookie@4
	mov	eax, OFFSET __ehfuncinfo$??0CvMap@@QAE@XZ
	jmp	___CxxFrameHandler3
text$x	ENDS
??0CvMap@@QAE@XZ ENDP					; CvMap::CvMap
PUBLIC	??1CvMap@@UAE@XZ				; CvMap::~CvMap
; Function compile flags: /Odtp
;	COMDAT ??_GCvMap@@UAEPAXI@Z
_TEXT	SEGMENT
_this$ = -4						; size = 4
___flags$ = 8						; size = 4
??_GCvMap@@UAEPAXI@Z PROC				; CvMap::`scalar deleting destructor', COMDAT
; _this$ = ecx
	push	ebp
	mov	ebp, esp
	push	ecx
	mov	DWORD PTR _this$[ebp], ecx
	mov	ecx, DWORD PTR _this$[ebp]
	call	??1CvMap@@UAE@XZ			; CvMap::~CvMap
	mov	eax, DWORD PTR ___flags$[ebp]
	and	eax, 1
	je	SHORT $LN1@scalar@2
	mov	ecx, DWORD PTR _this$[ebp]
	push	ecx
	call	??3@YAXPAX@Z				; operator delete
	add	esp, 4
$LN1@scalar@2:
	mov	eax, DWORD PTR _this$[ebp]
	mov	esp, ebp
	pop	ebp
	ret	4
??_GCvMap@@UAEPAXI@Z ENDP				; CvMap::`scalar deleting destructor'
_TEXT	ENDS
PUBLIC	?uninit@CvMap@@QAEXXZ				; CvMap::uninit
;	COMDAT xdata$x
; File d:\sources\lekmod_git\checkout\lekmod_dll\fireplace\include\fireworks\ffastvector.h
xdata$x	SEGMENT
__unwindtable$??1CvMap@@UAE@XZ DD 0ffffffffH
	DD	FLAT:__unwindfunclet$??1CvMap@@UAE@XZ$0
	DD	00H
	DD	FLAT:__unwindfunclet$??1CvMap@@UAE@XZ$1
	DD	01H
	DD	FLAT:__unwindfunclet$??1CvMap@@UAE@XZ$2
	DD	02H
	DD	FLAT:__unwindfunclet$??1CvMap@@UAE@XZ$3
__ehfuncinfo$??1CvMap@@UAE@XZ DD 019930522H
	DD	04H
	DD	FLAT:__unwindtable$??1CvMap@@UAE@XZ
	DD	2 DUP(00H)
	DD	2 DUP(00H)
	DD	00H
	DD	01H
; Function compile flags: /Odtp
; File d:\sources\lekmod_git\checkout\lekmod_dll\cvgamecoredll_expansion2\cvmap.cpp
xdata$x	ENDS
;	COMDAT ??1CvMap@@UAE@XZ
_TEXT	SEGMENT
_this$ = -28						; size = 4
__$EHRec$ = -12						; size = 12
??1CvMap@@UAE@XZ PROC					; CvMap::~CvMap, COMDAT
; _this$ = ecx

; 258  : {

	push	ebp
	mov	ebp, esp
	push	-1
	push	__ehhandler$??1CvMap@@UAE@XZ
	mov	eax, DWORD PTR fs:0
	push	eax
	sub	esp, 16					; 00000010H
	mov	eax, DWORD PTR ___security_cookie
	xor	eax, ebp
	push	eax
	lea	eax, DWORD PTR __$EHRec$[ebp]
	mov	DWORD PTR fs:0, eax
	mov	DWORD PTR _this$[ebp], ecx
	mov	eax, DWORD PTR _this$[ebp]
	mov	DWORD PTR [eax], OFFSET ??_7CvMap@@6B@
	mov	DWORD PTR __$EHRec$[ebp+8], 3

; 259  : 	uninit();

	mov	ecx, DWORD PTR _this$[ebp]
	call	?uninit@CvMap@@QAEXXZ			; CvMap::uninit

; 260  : 	--sgCvMapInstanceCount;

	mov	ecx, DWORD PTR _sgCvMapInstanceCount
	sub	ecx, 1
	mov	DWORD PTR _sgCvMapInstanceCount, ecx

; 261  : }

	mov	BYTE PTR __$EHRec$[ebp+8], 2
	mov	ecx, DWORD PTR _this$[ebp]
	add	ecx, 4184				; 00001058H
	call	??1CvPlotManager@@QAE@XZ		; CvPlotManager::~CvPlotManager
	mov	BYTE PTR __$EHRec$[ebp+8], 1
	mov	ecx, DWORD PTR _this$[ebp]
	add	ecx, 4140				; 0000102cH
	call	??1?$FFreeListTrashArray@VCvLandmass@@@@UAE@XZ ; FFreeListTrashArray<CvLandmass>::~FFreeListTrashArray<CvLandmass>
	mov	BYTE PTR __$EHRec$[ebp+8], 0
	mov	ecx, DWORD PTR _this$[ebp]
	add	ecx, 4112				; 00001010H
	call	??1?$FFreeListTrashArray@VCvArea@@@@UAE@XZ ; FFreeListTrashArray<CvArea>::~FFreeListTrashArray<CvArea>
	mov	DWORD PTR __$EHRec$[ebp+8], -1
	mov	ecx, DWORD PTR _this$[ebp]
	add	ecx, 4
	call	??1?$FStaticVector@PAVCvPlot@@$0DOI@$00$0BCJ@$00@@QAE@XZ ; FStaticVector<CvPlot *,1000,1,297,1>::~FStaticVector<CvPlot *,1000,1,297,1>
	mov	ecx, DWORD PTR __$EHRec$[ebp]
	mov	DWORD PTR fs:0, ecx
	pop	ecx
	mov	esp, ebp
	pop	ebp
	ret	0
_TEXT	ENDS
;	COMDAT text$x
text$x	SEGMENT
__unwindfunclet$??1CvMap@@UAE@XZ$0:
	mov	ecx, DWORD PTR _this$[ebp]
	add	ecx, 4
	jmp	??1?$FStaticVector@PAVCvPlot@@$0DOI@$00$0BCJ@$00@@QAE@XZ ; FStaticVector<CvPlot *,1000,1,297,1>::~FStaticVector<CvPlot *,1000,1,297,1>
__unwindfunclet$??1CvMap@@UAE@XZ$1:
	mov	ecx, DWORD PTR _this$[ebp]
	add	ecx, 4112				; 00001010H
	jmp	??1?$FFreeListTrashArray@VCvArea@@@@UAE@XZ ; FFreeListTrashArray<CvArea>::~FFreeListTrashArray<CvArea>
__unwindfunclet$??1CvMap@@UAE@XZ$2:
	mov	ecx, DWORD PTR _this$[ebp]
	add	ecx, 4140				; 0000102cH
	jmp	??1?$FFreeListTrashArray@VCvLandmass@@@@UAE@XZ ; FFreeListTrashArray<CvLandmass>::~FFreeListTrashArray<CvLandmass>
__unwindfunclet$??1CvMap@@UAE@XZ$3:
	mov	ecx, DWORD PTR _this$[ebp]
	add	ecx, 4184				; 00001058H
	jmp	??1CvPlotManager@@QAE@XZ		; CvPlotManager::~CvPlotManager
__ehhandler$??1CvMap@@UAE@XZ:
	mov	edx, DWORD PTR [esp+8]
	lea	eax, DWORD PTR [edx+12]
	mov	ecx, DWORD PTR [edx-20]
	xor	ecx, eax
	call	@__security_check_cookie@4
	mov	eax, OFFSET __ehfuncinfo$??1CvMap@@UAE@XZ
	jmp	___CxxFrameHandler3
text$x	ENDS
??1CvMap@@UAE@XZ ENDP					; CvMap::~CvMap
PUBLIC	?InitPlots@CvMap@@IAEXXZ			; CvMap::InitPlots
EXTRN	??_V@YAXPAX@Z:PROC				; operator delete[]
EXTRN	?Init@CvPlotManager@@QAEXII@Z:PROC		; CvPlotManager::Init
EXTRN	??_L@YGXPAXIHP6EX0@Z1@Z:PROC			; `eh vector constructor iterator'
EXTRN	??0CvPlot@@QAE@XZ:PROC				; CvPlot::CvPlot
EXTRN	??1CvPlot@@QAE@XZ:PROC				; CvPlot::~CvPlot
EXTRN	??_U@YAPAXI@Z:PROC				; operator new[]
EXTRN	_memset:PROC
;	COMDAT xdata$x
; File d:\sources\lekmod_git\checkout\lekmod_dll\cvgamecoredll_expansion2\cvmap.h
xdata$x	SEGMENT
__unwindtable$?InitPlots@CvMap@@IAEXXZ DD 0ffffffffH
	DD	FLAT:__unwindfunclet$?InitPlots@CvMap@@IAEXXZ$0
__ehfuncinfo$?InitPlots@CvMap@@IAEXXZ DD 019930522H
	DD	01H
	DD	FLAT:__unwindtable$?InitPlots@CvMap@@IAEXXZ
	DD	2 DUP(00H)
	DD	2 DUP(00H)
	DD	00H
	DD	01H
; Function compile flags: /Odtp
; File d:\sources\lekmod_git\checkout\lekmod_dll\cvgamecoredll_expansion2\cvmap.cpp
xdata$x	ENDS
;	COMDAT ?InitPlots@CvMap@@IAEXXZ
_TEXT	SEGMENT
tv89 = -128						; size = 4
_this$ = -124						; size = 4
$T236983 = -120						; size = 4
$T236979 = -116						; size = 4
$T236972 = -112						; size = 4
$T236967 = -108						; size = 4
$T236966 = -104						; size = 4
$T236965 = -100						; size = 4
$T236964 = -96						; size = 4
$T236963 = -92						; size = 4
$T236962 = -88						; size = 4
$T236961 = -84						; size = 4
$T236960 = -80						; size = 4
$T236959 = -76						; size = 4
$T236958 = -72						; size = 4
$T236955 = -68						; size = 4
$T236954 = -64						; size = 4
$T236953 = -60						; size = 4
_i$234823 = -56						; size = 4
_pVisibilityCount$ = -52				; size = 4
_pRevealedImprovementType$ = -48			; size = 4
_pResourceForceReveal$ = -44				; size = 4
_pPlayerCityRadiusCount$ = -40				; size = 4
_pRevealedRouteType$ = -36				; size = 4
_iNumPlots$ = -32					; size = 4
_pYields$ = -28						; size = 4
_pRevealedOwner$ = -24					; size = 4
_pFoundValue$ = -20					; size = 4
_pNoSettling$ = -16					; size = 4
__$EHRec$ = -12						; size = 12
?InitPlots@CvMap@@IAEXXZ PROC				; CvMap::InitPlots, COMDAT
; _this$ = ecx

; 265  : {

	push	ebp
	mov	ebp, esp
	push	-1
	push	__ehhandler$?InitPlots@CvMap@@IAEXXZ
	mov	eax, DWORD PTR fs:0
	push	eax
	sub	esp, 116				; 00000074H
	mov	eax, DWORD PTR ___security_cookie
	xor	eax, ebp
	push	eax
	lea	eax, DWORD PTR __$EHRec$[ebp]
	mov	DWORD PTR fs:0, eax
	mov	DWORD PTR _this$[ebp], ecx

; 266  : 	m_pMapPlots = FNEW(CvPlot[numPlots()], c_eCiv5GameplayDLL, 0);

	mov	eax, DWORD PTR _this$[ebp]
	mov	ecx, DWORD PTR [eax+4028]
	mov	DWORD PTR $T236972[ebp], ecx
	mov	edx, DWORD PTR $T236972[ebp]
	mov	DWORD PTR $T236953[ebp], edx
	xor	ecx, ecx
	mov	eax, DWORD PTR $T236953[ebp]
	mov	edx, 484				; 000001e4H
	mul	edx
	seto	cl
	neg	ecx
	or	ecx, eax
	xor	eax, eax
	add	ecx, 4
	setb	al
	neg	eax
	or	eax, ecx
	push	eax
	call	??_U@YAPAXI@Z				; operator new[]
	add	esp, 4
	mov	DWORD PTR $T236955[ebp], eax
	mov	DWORD PTR __$EHRec$[ebp+8], 0
	cmp	DWORD PTR $T236955[ebp], 0
	je	SHORT $LN6@InitPlots
	mov	ecx, DWORD PTR $T236955[ebp]
	mov	edx, DWORD PTR $T236953[ebp]
	mov	DWORD PTR [ecx], edx
	push	OFFSET ??1CvPlot@@QAE@XZ		; CvPlot::~CvPlot
	push	OFFSET ??0CvPlot@@QAE@XZ		; CvPlot::CvPlot
	mov	eax, DWORD PTR $T236953[ebp]
	push	eax
	push	484					; 000001e4H
	mov	ecx, DWORD PTR $T236955[ebp]
	add	ecx, 4
	push	ecx
	call	??_L@YGXPAXIHP6EX0@Z1@Z
	mov	edx, DWORD PTR $T236955[ebp]
	add	edx, 4
	mov	DWORD PTR tv89[ebp], edx
	jmp	SHORT $LN7@InitPlots
$LN6@InitPlots:
	mov	DWORD PTR tv89[ebp], 0
$LN7@InitPlots:
	mov	eax, DWORD PTR tv89[ebp]
	mov	DWORD PTR $T236954[ebp], eax
	mov	DWORD PTR __$EHRec$[ebp+8], -1
	mov	ecx, DWORD PTR _this$[ebp]
	mov	edx, DWORD PTR $T236954[ebp]
	mov	DWORD PTR [ecx+4068], edx

; 267  : 	//allocate all the memory we need up front
; 268  : 
; 269  : 	int iNumPlots = numPlots();

	mov	eax, DWORD PTR _this$[ebp]
	mov	ecx, DWORD PTR [eax+4028]
	mov	DWORD PTR _iNumPlots$[ebp], ecx

; 270  : 
; 271  : #ifdef AUI_WARNING_FIXES
; 272  : 	m_pYields					= FNEW(int[NUM_YIELD_TYPES*iNumPlots], c_eCiv5GameplayDLL, 0);
; 273  : 	m_pFoundValue				= FNEW(int[REALLY_MAX_PLAYERS*iNumPlots], c_eCiv5GameplayDLL, 0);
; 274  : 	m_pPlayerCityRadiusCount	= FNEW(int[REALLY_MAX_PLAYERS*iNumPlots], c_eCiv5GameplayDLL, 0);
; 275  : 	m_pVisibilityCount			= FNEW(int[REALLY_MAX_TEAMS*iNumPlots], c_eCiv5GameplayDLL, 0);
; 276  : 	m_pRevealedOwner			= FNEW(int[REALLY_MAX_TEAMS*iNumPlots], c_eCiv5GameplayDLL, 0);
; 277  : 	m_pRevealed					= FNEW(bool[REALLY_MAX_TEAMS*iNumPlots], c_eCiv5GameplayDLL, 0);
; 278  : 	m_pRevealedImprovementType	= FNEW(int[REALLY_MAX_TEAMS*iNumPlots], c_eCiv5GameplayDLL, 0);
; 279  : 	m_pRevealedRouteType		= FNEW(int[REALLY_MAX_TEAMS*iNumPlots], c_eCiv5GameplayDLL, 0);
; 280  : #else
; 281  : 	m_pYields					= FNEW(short[NUM_YIELD_TYPES*iNumPlots], c_eCiv5GameplayDLL, 0);

	mov	eax, DWORD PTR _iNumPlots$[ebp]
	imul	eax, 6
	xor	ecx, ecx
	mov	edx, 2
	mul	edx
	seto	cl
	neg	ecx
	or	ecx, eax
	push	ecx
	call	??_U@YAPAXI@Z				; operator new[]
	add	esp, 4
	mov	DWORD PTR $T236958[ebp], eax
	mov	eax, DWORD PTR _this$[ebp]
	mov	ecx, DWORD PTR $T236958[ebp]
	mov	DWORD PTR [eax+4072], ecx

; 282  : 	m_pFoundValue				= FNEW(int[REALLY_MAX_PLAYERS*iNumPlots], c_eCiv5GameplayDLL, 0);

	mov	eax, DWORD PTR _iNumPlots$[ebp]
	imul	eax, 80					; 00000050H
	xor	ecx, ecx
	mov	edx, 4
	mul	edx
	seto	cl
	neg	ecx
	or	ecx, eax
	push	ecx
	call	??_U@YAPAXI@Z				; operator new[]
	add	esp, 4
	mov	DWORD PTR $T236959[ebp], eax
	mov	eax, DWORD PTR _this$[ebp]
	mov	ecx, DWORD PTR $T236959[ebp]
	mov	DWORD PTR [eax+4076], ecx

; 283  : 	m_pPlayerCityRadiusCount	= FNEW(char[REALLY_MAX_PLAYERS*iNumPlots], c_eCiv5GameplayDLL, 0);

	mov	edx, DWORD PTR _iNumPlots$[ebp]
	imul	edx, 80					; 00000050H
	push	edx
	call	??_U@YAPAXI@Z				; operator new[]
	add	esp, 4
	mov	DWORD PTR $T236960[ebp], eax
	mov	eax, DWORD PTR _this$[ebp]
	mov	ecx, DWORD PTR $T236960[ebp]
	mov	DWORD PTR [eax+4080], ecx

; 284  : 	m_pVisibilityCount			= FNEW(short[REALLY_MAX_TEAMS*iNumPlots], c_eCiv5GameplayDLL, 0);

	mov	eax, DWORD PTR _iNumPlots$[ebp]
	imul	eax, 80					; 00000050H
	xor	ecx, ecx
	mov	edx, 2
	mul	edx
	seto	cl
	neg	ecx
	or	ecx, eax
	push	ecx
	call	??_U@YAPAXI@Z				; operator new[]
	add	esp, 4
	mov	DWORD PTR $T236961[ebp], eax
	mov	eax, DWORD PTR _this$[ebp]
	mov	ecx, DWORD PTR $T236961[ebp]
	mov	DWORD PTR [eax+4084], ecx

; 285  : 	m_pRevealedOwner			= FNEW(char[REALLY_MAX_TEAMS*iNumPlots], c_eCiv5GameplayDLL, 0);

	mov	edx, DWORD PTR _iNumPlots$[ebp]
	imul	edx, 80					; 00000050H
	push	edx
	call	??_U@YAPAXI@Z				; operator new[]
	add	esp, 4
	mov	DWORD PTR $T236962[ebp], eax
	mov	eax, DWORD PTR _this$[ebp]
	mov	ecx, DWORD PTR $T236962[ebp]
	mov	DWORD PTR [eax+4088], ecx

; 286  : 	m_pRevealed					= FNEW(bool[REALLY_MAX_TEAMS*iNumPlots], c_eCiv5GameplayDLL, 0);

	mov	edx, DWORD PTR _iNumPlots$[ebp]
	imul	edx, 80					; 00000050H
	push	edx
	call	??_U@YAPAXI@Z				; operator new[]
	add	esp, 4
	mov	DWORD PTR $T236963[ebp], eax
	mov	eax, DWORD PTR _this$[ebp]
	mov	ecx, DWORD PTR $T236963[ebp]
	mov	DWORD PTR [eax+4092], ecx

; 287  : 	m_pRevealedImprovementType  = FNEW(short[REALLY_MAX_TEAMS*iNumPlots], c_eCiv5GameplayDLL, 0);

	mov	eax, DWORD PTR _iNumPlots$[ebp]
	imul	eax, 80					; 00000050H
	xor	ecx, ecx
	mov	edx, 2
	mul	edx
	seto	cl
	neg	ecx
	or	ecx, eax
	push	ecx
	call	??_U@YAPAXI@Z				; operator new[]
	add	esp, 4
	mov	DWORD PTR $T236964[ebp], eax
	mov	eax, DWORD PTR _this$[ebp]
	mov	ecx, DWORD PTR $T236964[ebp]
	mov	DWORD PTR [eax+4096], ecx

; 288  : 	m_pRevealedRouteType		= FNEW(short[REALLY_MAX_TEAMS*iNumPlots], c_eCiv5GameplayDLL, 0);

	mov	eax, DWORD PTR _iNumPlots$[ebp]
	imul	eax, 80					; 00000050H
	xor	ecx, ecx
	mov	edx, 2
	mul	edx
	seto	cl
	neg	ecx
	or	ecx, eax
	push	ecx
	call	??_U@YAPAXI@Z				; operator new[]
	add	esp, 4
	mov	DWORD PTR $T236965[ebp], eax
	mov	eax, DWORD PTR _this$[ebp]
	mov	ecx, DWORD PTR $T236965[ebp]
	mov	DWORD PTR [eax+4100], ecx

; 289  : #endif
; 290  : 	m_pNoSettling				= FNEW(bool[MAX_MAJOR_CIVS*iNumPlots], c_eCiv5GameplayDLL, 0);

	mov	edx, DWORD PTR _iNumPlots$[ebp]
	imul	edx, 22					; 00000016H
	push	edx
	call	??_U@YAPAXI@Z				; operator new[]
	add	esp, 4
	mov	DWORD PTR $T236966[ebp], eax
	mov	eax, DWORD PTR _this$[ebp]
	mov	ecx, DWORD PTR $T236966[ebp]
	mov	DWORD PTR [eax+4104], ecx

; 291  : 	m_pResourceForceReveal		= FNEW(bool[REALLY_MAX_TEAMS*iNumPlots], c_eCiv5GameplayDLL, 0);

	mov	edx, DWORD PTR _iNumPlots$[ebp]
	imul	edx, 80					; 00000050H
	push	edx
	call	??_U@YAPAXI@Z				; operator new[]
	add	esp, 4
	mov	DWORD PTR $T236967[ebp], eax
	mov	eax, DWORD PTR _this$[ebp]
	mov	ecx, DWORD PTR $T236967[ebp]
	mov	DWORD PTR [eax+4108], ecx

; 292  : 
; 293  : 	memset(m_pYields, 0, NUM_YIELD_TYPES*iNumPlots*sizeof(short));

	mov	edx, DWORD PTR _iNumPlots$[ebp]
	imul	edx, 6
	shl	edx, 1
	push	edx
	push	0
	mov	eax, DWORD PTR _this$[ebp]
	mov	ecx, DWORD PTR [eax+4072]
	push	ecx
	call	_memset
	add	esp, 12					; 0000000cH

; 294  : 	memset(m_pFoundValue, 0, REALLY_MAX_PLAYERS*iNumPlots*sizeof(int));

	mov	edx, DWORD PTR _iNumPlots$[ebp]
	imul	edx, 80					; 00000050H
	shl	edx, 2
	push	edx
	push	0
	mov	eax, DWORD PTR _this$[ebp]
	mov	ecx, DWORD PTR [eax+4076]
	push	ecx
	call	_memset
	add	esp, 12					; 0000000cH

; 295  : 	memset(m_pPlayerCityRadiusCount, 0, REALLY_MAX_PLAYERS*iNumPlots*sizeof(char));

	mov	edx, DWORD PTR _iNumPlots$[ebp]
	imul	edx, 80					; 00000050H
	push	edx
	push	0
	mov	eax, DWORD PTR _this$[ebp]
	mov	ecx, DWORD PTR [eax+4080]
	push	ecx
	call	_memset
	add	esp, 12					; 0000000cH

; 296  : 	memset(m_pVisibilityCount, 0,REALLY_MAX_TEAMS*iNumPlots *sizeof(short));

	mov	edx, DWORD PTR _iNumPlots$[ebp]
	imul	edx, 80					; 00000050H
	shl	edx, 1
	push	edx
	push	0
	mov	eax, DWORD PTR _this$[ebp]
	mov	ecx, DWORD PTR [eax+4084]
	push	ecx
	call	_memset
	add	esp, 12					; 0000000cH

; 297  : 	memset(m_pRevealedOwner, -1 ,REALLY_MAX_TEAMS*iNumPlots *sizeof(char));

	mov	edx, DWORD PTR _iNumPlots$[ebp]
	imul	edx, 80					; 00000050H
	push	edx
	push	-1
	mov	eax, DWORD PTR _this$[ebp]
	mov	ecx, DWORD PTR [eax+4088]
	push	ecx
	call	_memset
	add	esp, 12					; 0000000cH

; 298  : 	memset(m_pRevealed, 0,REALLY_MAX_TEAMS*iNumPlots *sizeof(bool));

	mov	edx, DWORD PTR _iNumPlots$[ebp]
	imul	edx, 80					; 00000050H
	push	edx
	push	0
	mov	eax, DWORD PTR _this$[ebp]
	mov	ecx, DWORD PTR [eax+4092]
	push	ecx
	call	_memset
	add	esp, 12					; 0000000cH

; 299  : 	memset(m_pRevealedImprovementType, 0,REALLY_MAX_TEAMS*iNumPlots *sizeof(short));

	mov	edx, DWORD PTR _iNumPlots$[ebp]
	imul	edx, 80					; 00000050H
	shl	edx, 1
	push	edx
	push	0
	mov	eax, DWORD PTR _this$[ebp]
	mov	ecx, DWORD PTR [eax+4096]
	push	ecx
	call	_memset
	add	esp, 12					; 0000000cH

; 300  : 	memset(m_pRevealedRouteType, 0,REALLY_MAX_TEAMS*iNumPlots *sizeof(short));

	mov	edx, DWORD PTR _iNumPlots$[ebp]
	imul	edx, 80					; 00000050H
	shl	edx, 1
	push	edx
	push	0
	mov	eax, DWORD PTR _this$[ebp]
	mov	ecx, DWORD PTR [eax+4100]
	push	ecx
	call	_memset
	add	esp, 12					; 0000000cH

; 301  : 	memset(m_pNoSettling, 0,MAX_MAJOR_CIVS*iNumPlots *sizeof(bool));

	mov	edx, DWORD PTR _iNumPlots$[ebp]
	imul	edx, 22					; 00000016H
	push	edx
	push	0
	mov	eax, DWORD PTR _this$[ebp]
	mov	ecx, DWORD PTR [eax+4104]
	push	ecx
	call	_memset
	add	esp, 12					; 0000000cH

; 302  : 	memset(m_pResourceForceReveal, 0,REALLY_MAX_TEAMS*iNumPlots *sizeof(bool));

	mov	edx, DWORD PTR _iNumPlots$[ebp]
	imul	edx, 80					; 00000050H
	push	edx
	push	0
	mov	eax, DWORD PTR _this$[ebp]
	mov	ecx, DWORD PTR [eax+4108]
	push	ecx
	call	_memset
	add	esp, 12					; 0000000cH

; 303  : 
; 304  : 
; 305  : #ifdef AUI_WARNING_FIXES
; 306  : 	int* pYields					= m_pYields;
; 307  : 	int* pFoundValue				= m_pFoundValue;
; 308  : 	int* pPlayerCityRadiusCount		= m_pPlayerCityRadiusCount;
; 309  : 	int* pVisibilityCount			= m_pVisibilityCount;
; 310  : 	int* pRevealedOwner				= m_pRevealedOwner;
; 311  : 	int* pRevealedImprovementType	= m_pRevealedImprovementType;
; 312  : 	int* pRevealedRouteType			= m_pRevealedRouteType;
; 313  : #else
; 314  : 	short* pYields					= m_pYields;

	mov	edx, DWORD PTR _this$[ebp]
	mov	eax, DWORD PTR [edx+4072]
	mov	DWORD PTR _pYields$[ebp], eax

; 315  : 	int*   pFoundValue				= m_pFoundValue;

	mov	ecx, DWORD PTR _this$[ebp]
	mov	edx, DWORD PTR [ecx+4076]
	mov	DWORD PTR _pFoundValue$[ebp], edx

; 316  : 	char*  pPlayerCityRadiusCount   = m_pPlayerCityRadiusCount;

	mov	eax, DWORD PTR _this$[ebp]
	mov	ecx, DWORD PTR [eax+4080]
	mov	DWORD PTR _pPlayerCityRadiusCount$[ebp], ecx

; 317  : 	short* pVisibilityCount			= m_pVisibilityCount;

	mov	edx, DWORD PTR _this$[ebp]
	mov	eax, DWORD PTR [edx+4084]
	mov	DWORD PTR _pVisibilityCount$[ebp], eax

; 318  : 	char*  pRevealedOwner			= m_pRevealedOwner;

	mov	ecx, DWORD PTR _this$[ebp]
	mov	edx, DWORD PTR [ecx+4088]
	mov	DWORD PTR _pRevealedOwner$[ebp], edx

; 319  : 	short* pRevealedImprovementType = m_pRevealedImprovementType;

	mov	eax, DWORD PTR _this$[ebp]
	mov	ecx, DWORD PTR [eax+4096]
	mov	DWORD PTR _pRevealedImprovementType$[ebp], ecx

; 320  : 	short* pRevealedRouteType		= m_pRevealedRouteType;

	mov	edx, DWORD PTR _this$[ebp]
	mov	eax, DWORD PTR [edx+4100]
	mov	DWORD PTR _pRevealedRouteType$[ebp], eax

; 321  : #endif
; 322  : 	bool*  pNoSettling				= m_pNoSettling;

	mov	ecx, DWORD PTR _this$[ebp]
	mov	edx, DWORD PTR [ecx+4104]
	mov	DWORD PTR _pNoSettling$[ebp], edx

; 323  : 	bool*  pResourceForceReveal		= m_pResourceForceReveal;

	mov	eax, DWORD PTR _this$[ebp]
	mov	ecx, DWORD PTR [eax+4108]
	mov	DWORD PTR _pResourceForceReveal$[ebp], ecx

; 324  : 
; 325  : 	for(int i = 0; i < iNumPlots; i++)

	mov	DWORD PTR _i$234823[ebp], 0
	jmp	SHORT $LN3@InitPlots
$LN2@InitPlots:
	mov	edx, DWORD PTR _i$234823[ebp]
	add	edx, 1
	mov	DWORD PTR _i$234823[ebp], edx
$LN3@InitPlots:
	mov	eax, DWORD PTR _i$234823[ebp]
	cmp	eax, DWORD PTR _iNumPlots$[ebp]
	jge	$LN1@InitPlots

; 326  : 	{
; 327  : 		m_pMapPlots[i].m_aiYield				= pYields;

	mov	ecx, DWORD PTR _i$234823[ebp]
	imul	ecx, 484				; 000001e4H
	mov	edx, DWORD PTR _this$[ebp]
	mov	eax, DWORD PTR [edx+4068]
	mov	edx, DWORD PTR _pYields$[ebp]
	mov	DWORD PTR [eax+ecx+144], edx

; 328  : 		m_pMapPlots[i].m_aiFoundValue			= pFoundValue;

	mov	eax, DWORD PTR _i$234823[ebp]
	imul	eax, 484				; 000001e4H
	mov	ecx, DWORD PTR _this$[ebp]
	mov	edx, DWORD PTR [ecx+4068]
	mov	ecx, DWORD PTR _pFoundValue$[ebp]
	mov	DWORD PTR [edx+eax+148], ecx

; 329  : 		m_pMapPlots[i].m_aiPlayerCityRadiusCount= pPlayerCityRadiusCount;

	mov	edx, DWORD PTR _i$234823[ebp]
	imul	edx, 484				; 000001e4H
	mov	eax, DWORD PTR _this$[ebp]
	mov	ecx, DWORD PTR [eax+4068]
	mov	eax, DWORD PTR _pPlayerCityRadiusCount$[ebp]
	mov	DWORD PTR [ecx+edx+152], eax

; 330  : 		m_pMapPlots[i].m_aiVisibilityCount		= pVisibilityCount;

	mov	ecx, DWORD PTR _i$234823[ebp]
	imul	ecx, 484				; 000001e4H
	mov	edx, DWORD PTR _this$[ebp]
	mov	eax, DWORD PTR [edx+4068]
	mov	edx, DWORD PTR _pVisibilityCount$[ebp]
	mov	DWORD PTR [eax+ecx+156], edx

; 331  : 		m_pMapPlots[i].m_aiRevealedOwner		= pRevealedOwner;

	mov	eax, DWORD PTR _i$234823[ebp]
	imul	eax, 484				; 000001e4H
	mov	ecx, DWORD PTR _this$[ebp]
	mov	edx, DWORD PTR [ecx+4068]
	mov	ecx, DWORD PTR _pRevealedOwner$[ebp]
	mov	DWORD PTR [edx+eax+160], ecx

; 332  : 
; 333  : 		m_pMapPlots[i].m_aeRevealedImprovementType	= pRevealedImprovementType;

	mov	edx, DWORD PTR _i$234823[ebp]
	imul	edx, 484				; 000001e4H
	mov	eax, DWORD PTR _this$[ebp]
	mov	ecx, DWORD PTR [eax+4068]
	mov	eax, DWORD PTR _pRevealedImprovementType$[ebp]
	mov	DWORD PTR [ecx+edx+164], eax

; 334  : 		m_pMapPlots[i].m_aeRevealedRouteType		= pRevealedRouteType;

	mov	ecx, DWORD PTR _i$234823[ebp]
	imul	ecx, 484				; 000001e4H
	mov	edx, DWORD PTR _this$[ebp]
	mov	eax, DWORD PTR [edx+4068]
	mov	edx, DWORD PTR _pRevealedRouteType$[ebp]
	mov	DWORD PTR [eax+ecx+168], edx

; 335  : 		m_pMapPlots[i].m_abNoSettling				= pNoSettling;

	mov	eax, DWORD PTR _i$234823[ebp]
	imul	eax, 484				; 000001e4H
	mov	ecx, DWORD PTR _this$[ebp]
	mov	edx, DWORD PTR [ecx+4068]
	mov	ecx, DWORD PTR _pNoSettling$[ebp]
	mov	DWORD PTR [edx+eax+172], ecx

; 336  : 
; 337  : 		m_pMapPlots[i].m_abResourceForceReveal		= pResourceForceReveal;

	mov	edx, DWORD PTR _i$234823[ebp]
	imul	edx, 484				; 000001e4H
	mov	eax, DWORD PTR _this$[ebp]
	mov	ecx, DWORD PTR [eax+4068]
	mov	eax, DWORD PTR _pResourceForceReveal$[ebp]
	mov	DWORD PTR [ecx+edx+176], eax

; 338  : 
; 339  : 
; 340  : 		pYields					+= NUM_YIELD_TYPES;

	mov	ecx, DWORD PTR _pYields$[ebp]
	add	ecx, 12					; 0000000cH
	mov	DWORD PTR _pYields$[ebp], ecx

; 341  : 		pFoundValue				+= REALLY_MAX_PLAYERS;

	mov	edx, DWORD PTR _pFoundValue$[ebp]
	add	edx, 320				; 00000140H
	mov	DWORD PTR _pFoundValue$[ebp], edx

; 342  : 		pPlayerCityRadiusCount  += REALLY_MAX_PLAYERS;

	mov	eax, DWORD PTR _pPlayerCityRadiusCount$[ebp]
	add	eax, 80					; 00000050H
	mov	DWORD PTR _pPlayerCityRadiusCount$[ebp], eax

; 343  : 		pVisibilityCount		+= REALLY_MAX_TEAMS;

	mov	ecx, DWORD PTR _pVisibilityCount$[ebp]
	add	ecx, 160				; 000000a0H
	mov	DWORD PTR _pVisibilityCount$[ebp], ecx

; 344  : 		pRevealedOwner			+= REALLY_MAX_TEAMS;

	mov	edx, DWORD PTR _pRevealedOwner$[ebp]
	add	edx, 80					; 00000050H
	mov	DWORD PTR _pRevealedOwner$[ebp], edx

; 345  : 		pRevealedImprovementType+= REALLY_MAX_TEAMS;

	mov	eax, DWORD PTR _pRevealedImprovementType$[ebp]
	add	eax, 160				; 000000a0H
	mov	DWORD PTR _pRevealedImprovementType$[ebp], eax

; 346  : 		pRevealedRouteType		+= REALLY_MAX_TEAMS;

	mov	ecx, DWORD PTR _pRevealedRouteType$[ebp]
	add	ecx, 160				; 000000a0H
	mov	DWORD PTR _pRevealedRouteType$[ebp], ecx

; 347  : 		pNoSettling				+= MAX_MAJOR_CIVS;

	mov	edx, DWORD PTR _pNoSettling$[ebp]
	add	edx, 22					; 00000016H
	mov	DWORD PTR _pNoSettling$[ebp], edx

; 348  : 		pResourceForceReveal	+= REALLY_MAX_TEAMS;

	mov	eax, DWORD PTR _pResourceForceReveal$[ebp]
	add	eax, 80					; 00000050H
	mov	DWORD PTR _pResourceForceReveal$[ebp], eax

; 349  : 
; 350  : 	}

	jmp	$LN2@InitPlots
$LN1@InitPlots:

; 351  : 
; 352  : 	m_kPlotManager.Init(getGridWidth(), getGridHeight());

	mov	ecx, DWORD PTR _this$[ebp]
	mov	edx, DWORD PTR [ecx+4024]
	mov	DWORD PTR $T236979[ebp], edx
	mov	eax, DWORD PTR _this$[ebp]
	mov	ecx, DWORD PTR [eax+4020]
	mov	DWORD PTR $T236983[ebp], ecx
	mov	edx, DWORD PTR $T236979[ebp]
	push	edx
	mov	eax, DWORD PTR $T236983[ebp]
	push	eax
	mov	ecx, DWORD PTR _this$[ebp]
	add	ecx, 4184				; 00001058H
	call	?Init@CvPlotManager@@QAEXII@Z		; CvPlotManager::Init

; 353  : }

	mov	ecx, DWORD PTR __$EHRec$[ebp]
	mov	DWORD PTR fs:0, ecx
	pop	ecx
	mov	esp, ebp
	pop	ebp
	ret	0
_TEXT	ENDS
;	COMDAT text$x
text$x	SEGMENT
__unwindfunclet$?InitPlots@CvMap@@IAEXXZ$0:
	mov	eax, DWORD PTR $T236955[ebp]
	push	eax
	call	??_V@YAXPAX@Z				; operator delete[]
	pop	ecx
	ret	0
__ehhandler$?InitPlots@CvMap@@IAEXXZ:
	mov	edx, DWORD PTR [esp+8]
	lea	eax, DWORD PTR [edx+12]
	mov	ecx, DWORD PTR [edx-120]
	xor	ecx, eax
	call	@__security_check_cookie@4
	mov	eax, OFFSET __ehfuncinfo$?InitPlots@CvMap@@IAEXXZ
	jmp	___CxxFrameHandler3
text$x	ENDS
?InitPlots@CvMap@@IAEXXZ ENDP				; CvMap::InitPlots
PUBLIC	??_ECvPlot@@QAEPAXI@Z				; CvPlot::`vector deleting destructor'
EXTRN	??_M@YGXPAXIHP6EX0@Z@Z:PROC			; `eh vector destructor iterator'
; Function compile flags: /Odtp
;	COMDAT ??_ECvPlot@@QAEPAXI@Z
_TEXT	SEGMENT
_this$ = -4						; size = 4
___flags$ = 8						; size = 4
??_ECvPlot@@QAEPAXI@Z PROC				; CvPlot::`vector deleting destructor', COMDAT
; _this$ = ecx
	push	ebp
	mov	ebp, esp
	push	ecx
	mov	DWORD PTR _this$[ebp], ecx
	mov	eax, DWORD PTR ___flags$[ebp]
	and	eax, 2
	je	SHORT $LN3@vector
	push	OFFSET ??1CvPlot@@QAE@XZ		; CvPlot::~CvPlot
	mov	ecx, DWORD PTR _this$[ebp]
	mov	edx, DWORD PTR [ecx-4]
	push	edx
	push	484					; 000001e4H
	mov	eax, DWORD PTR _this$[ebp]
	push	eax
	call	??_M@YGXPAXIHP6EX0@Z@Z
	mov	ecx, DWORD PTR ___flags$[ebp]
	and	ecx, 1
	je	SHORT $LN2@vector
	mov	edx, DWORD PTR _this$[ebp]
	sub	edx, 4
	push	edx
	call	??_V@YAXPAX@Z				; operator delete[]
	add	esp, 4
$LN2@vector:
	mov	eax, DWORD PTR _this$[ebp]
	sub	eax, 4
	jmp	SHORT $LN4@vector
$LN3@vector:
	mov	ecx, DWORD PTR _this$[ebp]
	call	??1CvPlot@@QAE@XZ			; CvPlot::~CvPlot
	mov	eax, DWORD PTR ___flags$[ebp]
	and	eax, 1
	je	SHORT $LN1@vector
	mov	ecx, DWORD PTR _this$[ebp]
	push	ecx
	call	??3@YAXPAX@Z				; operator delete
	add	esp, 4
$LN1@vector:
	mov	eax, DWORD PTR _this$[ebp]
$LN4@vector:
	mov	esp, ebp
	pop	ebp
	ret	4
??_ECvPlot@@QAEPAXI@Z ENDP				; CvPlot::`vector deleting destructor'
_TEXT	ENDS
PUBLIC	??1CvString@@QAE@XZ				; CvString::~CvString
PUBLIC	?setup@CvMap@@IAEXXZ				; CvMap::setup
PUBLIC	?format@CvString@@SA?AV1@PBDZZ			; CvString::format
PUBLIC	??_C@_0DL@CIJNMIHH@CvMap?3?3init?5begin?5?9?5world?5size?$DN?$CF@ ; `string'
PUBLIC	?getWorldInfo@CvMap@@QBEABVCvWorldInfo@@XZ	; CvMap::getWorldInfo
PUBLIC	?getClimateInfo@CvMap@@QBEABVCvClimateInfo@@XZ	; CvMap::getClimateInfo
PUBLIC	?getSeaLevelInfo@CvMap@@QBEABVCvSeaLevelInfo@@XZ ; CvMap::getSeaLevelInfo
PUBLIC	__$ArrayPad$
PUBLIC	?init@CvMap@@QAEXPAUCvMapInitData@@@Z		; CvMap::init
EXTRN	__imp_??1?$basic_string@DU?$char_traits@D@std@@V?$allocator@D@2@@std@@QAE@XZ:PROC
EXTRN	?init@CvPlot@@QAEXHH@Z:PROC			; CvPlot::init
EXTRN	__imp_?c_str@?$basic_string@DU?$char_traits@D@std@@V?$allocator@D@2@@std@@QBEPBDXZ:PROC
;	COMDAT ??_C@_0DL@CIJNMIHH@CvMap?3?3init?5begin?5?9?5world?5size?$DN?$CF@
; File d:\sources\lekmod_git\checkout\lekmod_dll\cvgamecoredllutil\include\cvstring.h
CONST	SEGMENT
??_C@_0DL@CIJNMIHH@CvMap?3?3init?5begin?5?9?5world?5size?$DN?$CF@ DB 'CvM'
	DB	'ap::init begin - world size=%s, climate=%s, sealevel=%s', 00H ; `string'
CONST	ENDS
;	COMDAT xdata$x
xdata$x	SEGMENT
__unwindtable$?init@CvMap@@QAEXPAUCvMapInitData@@@Z DD 0ffffffffH
	DD	FLAT:__unwindfunclet$?init@CvMap@@QAEXPAUCvMapInitData@@@Z$0
__ehfuncinfo$?init@CvMap@@QAEXPAUCvMapInitData@@@Z DD 019930522H
	DD	01H
	DD	FLAT:__unwindtable$?init@CvMap@@QAEXPAUCvMapInitData@@@Z
	DD	2 DUP(00H)
	DD	2 DUP(00H)
	DD	00H
	DD	01H
; Function compile flags: /Odtp
; File d:\sources\lekmod_git\checkout\lekmod_dll\cvgamecoredll_expansion2\cvmap.cpp
xdata$x	ENDS
;	COMDAT ?init@CvMap@@QAEXPAUCvMapInitData@@@Z
_TEXT	SEGMENT
_this$ = -92						; size = 4
$T237023 = -88						; size = 4
$T237011 = -84						; size = 4
$T237010 = -80						; size = 4
$T237006 = -76						; size = 4
$T237005 = -72						; size = 4
$T237001 = -68						; size = 4
$T237000 = -64						; size = 4
_iH$ = -60						; size = 4
_iX$ = -56						; size = 4
_strMemState$ = -52					; size = 28
__$ArrayPad$ = -24					; size = 4
_iW$ = -20						; size = 4
_iY$ = -16						; size = 4
__$EHRec$ = -12						; size = 12
_pInitInfo$ = 8						; size = 4
?init@CvMap@@QAEXPAUCvMapInitData@@@Z PROC		; CvMap::init, COMDAT
; _this$ = ecx

; 357  : {

	push	ebp
	mov	ebp, esp
	push	-1
	push	__ehhandler$?init@CvMap@@QAEXPAUCvMapInitData@@@Z
	mov	eax, DWORD PTR fs:0
	push	eax
	sub	esp, 80					; 00000050H
	mov	eax, DWORD PTR ___security_cookie
	xor	eax, ebp
	mov	DWORD PTR __$ArrayPad$[ebp], eax
	push	eax
	lea	eax, DWORD PTR __$EHRec$[ebp]
	mov	DWORD PTR fs:0, eax
	mov	DWORD PTR _this$[ebp], ecx

; 358  : 	int iX, iY;
; 359  : 
; 360  : 	CvString strMemState = CvString::format("CvMap::init begin - world size=%s, climate=%s, sealevel=%s",
; 361  : 	                                        getWorldInfo().GetDescription(),
; 362  : 	                                        getClimateInfo().GetDescription(),
; 363  : 	                                        getSeaLevelInfo().GetDescription());

	mov	ecx, DWORD PTR _this$[ebp]
	call	?getSeaLevelInfo@CvMap@@QBEABVCvSeaLevelInfo@@XZ ; CvMap::getSeaLevelInfo
	mov	DWORD PTR $T237000[ebp], eax
	mov	ecx, DWORD PTR $T237000[ebp]
	add	ecx, 36					; 00000024H
	call	DWORD PTR __imp_?c_str@?$basic_string@DU?$char_traits@D@std@@V?$allocator@D@2@@std@@QBEPBDXZ
	mov	DWORD PTR $T237001[ebp], eax
	mov	ecx, DWORD PTR _this$[ebp]
	call	?getClimateInfo@CvMap@@QBEABVCvClimateInfo@@XZ ; CvMap::getClimateInfo
	mov	DWORD PTR $T237005[ebp], eax
	mov	ecx, DWORD PTR $T237005[ebp]
	add	ecx, 36					; 00000024H
	call	DWORD PTR __imp_?c_str@?$basic_string@DU?$char_traits@D@std@@V?$allocator@D@2@@std@@QBEPBDXZ
	mov	DWORD PTR $T237006[ebp], eax
	mov	ecx, DWORD PTR _this$[ebp]
	call	?getWorldInfo@CvMap@@QBEABVCvWorldInfo@@XZ ; CvMap::getWorldInfo
	mov	DWORD PTR $T237010[ebp], eax
	mov	ecx, DWORD PTR $T237010[ebp]
	add	ecx, 36					; 00000024H
	call	DWORD PTR __imp_?c_str@?$basic_string@DU?$char_traits@D@std@@V?$allocator@D@2@@std@@QBEPBDXZ
	mov	DWORD PTR $T237011[ebp], eax
	mov	eax, DWORD PTR $T237001[ebp]
	push	eax
	mov	ecx, DWORD PTR $T237006[ebp]
	push	ecx
	mov	edx, DWORD PTR $T237011[ebp]
	push	edx
	push	OFFSET ??_C@_0DL@CIJNMIHH@CvMap?3?3init?5begin?5?9?5world?5size?$DN?$CF@
	lea	eax, DWORD PTR _strMemState$[ebp]
	push	eax
	call	?format@CvString@@SA?AV1@PBDZZ		; CvString::format
	add	esp, 20					; 00000014H
	mov	DWORD PTR __$EHRec$[ebp+8], 0

; 364  : 
; 365  : 
; 366  : 	//--------------------------------
; 367  : 	// Init saved data
; 368  : 	reset(pInitInfo);

	mov	ecx, DWORD PTR _pInitInfo$[ebp]
	push	ecx
	mov	ecx, DWORD PTR _this$[ebp]
	call	?reset@CvMap@@QAEXPAUCvMapInitData@@@Z	; CvMap::reset

; 369  : 
; 370  : 	//--------------------------------
; 371  : 	// Init containers
; 372  : 	m_areas.Init();

	push	8
	mov	ecx, DWORD PTR _this$[ebp]
	add	ecx, 4112				; 00001010H
	mov	edx, DWORD PTR _this$[ebp]
	mov	eax, DWORD PTR [edx+4112]
	mov	edx, DWORD PTR [eax+4]
	call	edx

; 373  : 	m_landmasses.Init();

	push	8
	mov	ecx, DWORD PTR _this$[ebp]
	add	ecx, 4140				; 0000102cH
	mov	eax, DWORD PTR _this$[ebp]
	mov	edx, DWORD PTR [eax+4140]
	mov	eax, DWORD PTR [edx+4]
	call	eax

; 374  : 
; 375  : #ifdef AUI_ASTAR_CACHE_PLOTS_AT_NODES
; 376  : 	//--------------------------------
; 377  : 	// Init plot data
; 378  : 	InitPlots();
; 379  : #endif
; 380  : 
; 381  : 	//--------------------------------
; 382  : 	// Init non-saved data
; 383  : 	setup();

	mov	ecx, DWORD PTR _this$[ebp]
	call	?setup@CvMap@@IAEXXZ			; CvMap::setup

; 384  : 
; 385  : #ifndef AUI_ASTAR_CACHE_PLOTS_AT_NODES
; 386  : 	//--------------------------------
; 387  : 	// Init other game data
; 388  : 	InitPlots();

	mov	ecx, DWORD PTR _this$[ebp]
	call	?InitPlots@CvMap@@IAEXXZ		; CvMap::InitPlots

; 389  : #endif
; 390  : 
; 391  : 	int iW = getGridWidth();

	mov	ecx, DWORD PTR _this$[ebp]
	mov	edx, DWORD PTR [ecx+4020]
	mov	DWORD PTR _iW$[ebp], edx

; 392  : 	int iH = getGridHeight();

	mov	eax, DWORD PTR _this$[ebp]
	mov	ecx, DWORD PTR [eax+4024]
	mov	DWORD PTR _iH$[ebp], ecx

; 393  : 
; 394  : 
; 395  : 	for(iX = 0; iX < iW; iX++)

	mov	DWORD PTR _iX$[ebp], 0
	jmp	SHORT $LN6@init
$LN5@init:
	mov	edx, DWORD PTR _iX$[ebp]
	add	edx, 1
	mov	DWORD PTR _iX$[ebp], edx
$LN6@init:
	mov	eax, DWORD PTR _iX$[ebp]
	cmp	eax, DWORD PTR _iW$[ebp]
	jge	SHORT $LN4@init

; 396  : 	{
; 397  : 		for(iY = 0; iY < iH; iY++)

	mov	DWORD PTR _iY$[ebp], 0
	jmp	SHORT $LN3@init
$LN2@init:
	mov	ecx, DWORD PTR _iY$[ebp]
	add	ecx, 1
	mov	DWORD PTR _iY$[ebp], ecx
$LN3@init:
	mov	edx, DWORD PTR _iY$[ebp]
	cmp	edx, DWORD PTR _iH$[ebp]
	jge	SHORT $LN1@init

; 398  : 		{
; 399  : 			plotUnchecked(iX, iY)->init(iX, iY);

	mov	eax, DWORD PTR _this$[ebp]
	mov	ecx, DWORD PTR [eax+4020]
	mov	DWORD PTR $T237023[ebp], ecx
	mov	edx, DWORD PTR _iY$[ebp]
	push	edx
	mov	eax, DWORD PTR _iX$[ebp]
	push	eax
	mov	ecx, DWORD PTR _iY$[ebp]
	imul	ecx, DWORD PTR $T237023[ebp]
	add	ecx, DWORD PTR _iX$[ebp]
	imul	ecx, 484				; 000001e4H
	mov	edx, DWORD PTR _this$[ebp]
	add	ecx, DWORD PTR [edx+4068]
	call	?init@CvPlot@@QAEXHH@Z			; CvPlot::init

; 400  : 		}

	jmp	SHORT $LN2@init
$LN1@init:

; 401  : 	}

	jmp	SHORT $LN5@init
$LN4@init:

; 402  : }

	mov	DWORD PTR __$EHRec$[ebp+8], -1
	lea	ecx, DWORD PTR _strMemState$[ebp]
	call	DWORD PTR __imp_??1?$basic_string@DU?$char_traits@D@std@@V?$allocator@D@2@@std@@QAE@XZ
	mov	ecx, DWORD PTR __$EHRec$[ebp]
	mov	DWORD PTR fs:0, ecx
	pop	ecx
	mov	ecx, DWORD PTR __$ArrayPad$[ebp]
	xor	ecx, ebp
	call	@__security_check_cookie@4
	mov	esp, ebp
	pop	ebp
	ret	4
_TEXT	ENDS
;	COMDAT text$x
text$x	SEGMENT
__unwindfunclet$?init@CvMap@@QAEXPAUCvMapInitData@@@Z$0:
	lea	ecx, DWORD PTR _strMemState$[ebp]
	jmp	??1CvString@@QAE@XZ			; CvString::~CvString
__ehhandler$?init@CvMap@@QAEXPAUCvMapInitData@@@Z:
	mov	edx, DWORD PTR [esp+8]
	lea	eax, DWORD PTR [edx+12]
	mov	ecx, DWORD PTR [edx-84]
	xor	ecx, eax
	call	@__security_check_cookie@4
	mov	ecx, DWORD PTR [edx-12]
	xor	ecx, eax
	call	@__security_check_cookie@4
	mov	eax, OFFSET __ehfuncinfo$?init@CvMap@@QAEXPAUCvMapInitData@@@Z
	jmp	___CxxFrameHandler3
text$x	ENDS
?init@CvMap@@QAEXPAUCvMapInitData@@@Z ENDP		; CvMap::init
EXTRN	?Uninit@CvPlotManager@@QAEXXZ:PROC		; CvPlotManager::Uninit
; Function compile flags: /Odtp
;	COMDAT ?uninit@CvMap@@QAEXXZ
_TEXT	SEGMENT
tv152 = -116						; size = 4
_this$ = -112						; size = 4
$T237130 = -108						; size = 4
$T237129 = -104						; size = 4
$T237124 = -100						; size = 4
$T237122 = -96						; size = 4
$T237118 = -92						; size = 4
$T237116 = -88						; size = 4
$T237112 = -84						; size = 4
$T237110 = -80						; size = 4
$T237106 = -76						; size = 4
$T237104 = -72						; size = 4
$T237100 = -68						; size = 4
$T237098 = -64						; size = 4
$T237094 = -60						; size = 4
$T237092 = -56						; size = 4
$T237088 = -52						; size = 4
$T237086 = -48						; size = 4
$T237082 = -44						; size = 4
$T237080 = -40						; size = 4
$T237076 = -36						; size = 4
$T237074 = -32						; size = 4
$T237070 = -28						; size = 4
$T237066 = -24						; size = 4
$T237065 = -20						; size = 4
$T237057 = -16						; size = 4
$T237055 = -12						; size = 4
$T237051 = -8						; size = 4
$T237049 = -4						; size = 4
?uninit@CvMap@@QAEXXZ PROC				; CvMap::uninit, COMDAT
; _this$ = ecx

; 406  : {

	push	ebp
	mov	ebp, esp
	sub	esp, 116				; 00000074H
	mov	DWORD PTR _this$[ebp], ecx

; 407  : 	SAFE_DELETE_ARRAY(m_paiNumResource);

	mov	eax, DWORD PTR _this$[ebp]
	add	eax, 4060				; 00000fdcH
	mov	DWORD PTR $T237051[ebp], eax
	mov	ecx, DWORD PTR $T237051[ebp]
	mov	edx, DWORD PTR [ecx]
	mov	DWORD PTR $T237049[ebp], edx
	mov	eax, DWORD PTR $T237049[ebp]
	push	eax
	call	??_V@YAXPAX@Z				; operator delete[]
	add	esp, 4
	mov	ecx, DWORD PTR $T237051[ebp]
	mov	DWORD PTR [ecx], 0

; 408  : 	SAFE_DELETE_ARRAY(m_paiNumResourceOnLand);

	mov	edx, DWORD PTR _this$[ebp]
	add	edx, 4064				; 00000fe0H
	mov	DWORD PTR $T237057[ebp], edx
	mov	eax, DWORD PTR $T237057[ebp]
	mov	ecx, DWORD PTR [eax]
	mov	DWORD PTR $T237055[ebp], ecx
	mov	edx, DWORD PTR $T237055[ebp]
	push	edx
	call	??_V@YAXPAX@Z				; operator delete[]
	add	esp, 4
	mov	eax, DWORD PTR $T237057[ebp]
	mov	DWORD PTR [eax], 0

; 409  : 
; 410  : 	SAFE_DELETE_ARRAY(m_pMapPlots);

	mov	ecx, DWORD PTR _this$[ebp]
	add	ecx, 4068				; 00000fe4H
	mov	DWORD PTR $T237070[ebp], ecx
	mov	edx, DWORD PTR $T237070[ebp]
	mov	eax, DWORD PTR [edx]
	mov	DWORD PTR $T237066[ebp], eax
	mov	ecx, DWORD PTR $T237066[ebp]
	mov	DWORD PTR $T237065[ebp], ecx
	cmp	DWORD PTR $T237065[ebp], 0
	je	SHORT $LN9@uninit
	push	3
	mov	ecx, DWORD PTR $T237065[ebp]
	call	??_ECvPlot@@QAEPAXI@Z
	mov	DWORD PTR tv152[ebp], eax
	jmp	SHORT $LN10@uninit
$LN9@uninit:
	mov	DWORD PTR tv152[ebp], 0
$LN10@uninit:
	mov	edx, DWORD PTR $T237070[ebp]
	mov	DWORD PTR [edx], 0

; 411  : 
; 412  : 
; 413  : 	SAFE_DELETE_ARRAY(m_pYields);

	mov	eax, DWORD PTR _this$[ebp]
	add	eax, 4072				; 00000fe8H
	mov	DWORD PTR $T237076[ebp], eax
	mov	ecx, DWORD PTR $T237076[ebp]
	mov	edx, DWORD PTR [ecx]
	mov	DWORD PTR $T237074[ebp], edx
	mov	eax, DWORD PTR $T237074[ebp]
	push	eax
	call	??_V@YAXPAX@Z				; operator delete[]
	add	esp, 4
	mov	ecx, DWORD PTR $T237076[ebp]
	mov	DWORD PTR [ecx], 0

; 414  : 	SAFE_DELETE_ARRAY(m_pFoundValue);

	mov	edx, DWORD PTR _this$[ebp]
	add	edx, 4076				; 00000fecH
	mov	DWORD PTR $T237082[ebp], edx
	mov	eax, DWORD PTR $T237082[ebp]
	mov	ecx, DWORD PTR [eax]
	mov	DWORD PTR $T237080[ebp], ecx
	mov	edx, DWORD PTR $T237080[ebp]
	push	edx
	call	??_V@YAXPAX@Z				; operator delete[]
	add	esp, 4
	mov	eax, DWORD PTR $T237082[ebp]
	mov	DWORD PTR [eax], 0

; 415  : 	SAFE_DELETE_ARRAY(m_pPlayerCityRadiusCount);

	mov	ecx, DWORD PTR _this$[ebp]
	add	ecx, 4080				; 00000ff0H
	mov	DWORD PTR $T237088[ebp], ecx
	mov	edx, DWORD PTR $T237088[ebp]
	mov	eax, DWORD PTR [edx]
	mov	DWORD PTR $T237086[ebp], eax
	mov	ecx, DWORD PTR $T237086[ebp]
	push	ecx
	call	??_V@YAXPAX@Z				; operator delete[]
	add	esp, 4
	mov	edx, DWORD PTR $T237088[ebp]
	mov	DWORD PTR [edx], 0

; 416  : 	SAFE_DELETE_ARRAY(m_pVisibilityCount);

	mov	eax, DWORD PTR _this$[ebp]
	add	eax, 4084				; 00000ff4H
	mov	DWORD PTR $T237094[ebp], eax
	mov	ecx, DWORD PTR $T237094[ebp]
	mov	edx, DWORD PTR [ecx]
	mov	DWORD PTR $T237092[ebp], edx
	mov	eax, DWORD PTR $T237092[ebp]
	push	eax
	call	??_V@YAXPAX@Z				; operator delete[]
	add	esp, 4
	mov	ecx, DWORD PTR $T237094[ebp]
	mov	DWORD PTR [ecx], 0

; 417  : 	SAFE_DELETE_ARRAY(m_pRevealedOwner);

	mov	edx, DWORD PTR _this$[ebp]
	add	edx, 4088				; 00000ff8H
	mov	DWORD PTR $T237100[ebp], edx
	mov	eax, DWORD PTR $T237100[ebp]
	mov	ecx, DWORD PTR [eax]
	mov	DWORD PTR $T237098[ebp], ecx
	mov	edx, DWORD PTR $T237098[ebp]
	push	edx
	call	??_V@YAXPAX@Z				; operator delete[]
	add	esp, 4
	mov	eax, DWORD PTR $T237100[ebp]
	mov	DWORD PTR [eax], 0

; 418  : 	SAFE_DELETE_ARRAY(m_pRevealed);

	mov	ecx, DWORD PTR _this$[ebp]
	add	ecx, 4092				; 00000ffcH
	mov	DWORD PTR $T237106[ebp], ecx
	mov	edx, DWORD PTR $T237106[ebp]
	mov	eax, DWORD PTR [edx]
	mov	DWORD PTR $T237104[ebp], eax
	mov	ecx, DWORD PTR $T237104[ebp]
	push	ecx
	call	??_V@YAXPAX@Z				; operator delete[]
	add	esp, 4
	mov	edx, DWORD PTR $T237106[ebp]
	mov	DWORD PTR [edx], 0

; 419  : 	SAFE_DELETE_ARRAY(m_pRevealedImprovementType);

	mov	eax, DWORD PTR _this$[ebp]
	add	eax, 4096				; 00001000H
	mov	DWORD PTR $T237112[ebp], eax
	mov	ecx, DWORD PTR $T237112[ebp]
	mov	edx, DWORD PTR [ecx]
	mov	DWORD PTR $T237110[ebp], edx
	mov	eax, DWORD PTR $T237110[ebp]
	push	eax
	call	??_V@YAXPAX@Z				; operator delete[]
	add	esp, 4
	mov	ecx, DWORD PTR $T237112[ebp]
	mov	DWORD PTR [ecx], 0

; 420  : 	SAFE_DELETE_ARRAY(m_pRevealedRouteType);

	mov	edx, DWORD PTR _this$[ebp]
	add	edx, 4100				; 00001004H
	mov	DWORD PTR $T237118[ebp], edx
	mov	eax, DWORD PTR $T237118[ebp]
	mov	ecx, DWORD PTR [eax]
	mov	DWORD PTR $T237116[ebp], ecx
	mov	edx, DWORD PTR $T237116[ebp]
	push	edx
	call	??_V@YAXPAX@Z				; operator delete[]
	add	esp, 4
	mov	eax, DWORD PTR $T237118[ebp]
	mov	DWORD PTR [eax], 0

; 421  : 	SAFE_DELETE_ARRAY(m_pNoSettling);

	mov	ecx, DWORD PTR _this$[ebp]
	add	ecx, 4104				; 00001008H
	mov	DWORD PTR $T237124[ebp], ecx
	mov	edx, DWORD PTR $T237124[ebp]
	mov	eax, DWORD PTR [edx]
	mov	DWORD PTR $T237122[ebp], eax
	mov	ecx, DWORD PTR $T237122[ebp]
	push	ecx
	call	??_V@YAXPAX@Z				; operator delete[]
	add	esp, 4
	mov	edx, DWORD PTR $T237124[ebp]
	mov	DWORD PTR [edx], 0

; 422  : 	SAFE_DELETE_ARRAY(m_pResourceForceReveal);

	mov	eax, DWORD PTR _this$[ebp]
	add	eax, 4108				; 0000100cH
	mov	DWORD PTR $T237130[ebp], eax
	mov	ecx, DWORD PTR $T237130[ebp]
	mov	edx, DWORD PTR [ecx]
	mov	DWORD PTR $T237129[ebp], edx
	mov	eax, DWORD PTR $T237129[ebp]
	push	eax
	call	??_V@YAXPAX@Z				; operator delete[]
	add	esp, 4
	mov	ecx, DWORD PTR $T237130[ebp]
	mov	DWORD PTR [ecx], 0

; 423  : 
; 424  : 	m_iGridWidth = 0;

	mov	edx, DWORD PTR _this$[ebp]
	mov	DWORD PTR [edx+4020], 0

; 425  : 	m_iGridHeight = 0;

	mov	eax, DWORD PTR _this$[ebp]
	mov	DWORD PTR [eax+4024], 0

; 426  : 	m_iGridSize = 0;

	mov	ecx, DWORD PTR _this$[ebp]
	mov	DWORD PTR [ecx+4028], 0

; 427  : 	m_iLandPlots = 0;

	mov	edx, DWORD PTR _this$[ebp]
	mov	DWORD PTR [edx+4032], 0

; 428  : 	m_iOwnedPlots = 0;

	mov	eax, DWORD PTR _this$[ebp]
	mov	DWORD PTR [eax+4036], 0

; 429  : 	m_iNumNaturalWonders = 0;

	mov	ecx, DWORD PTR _this$[ebp]
	mov	DWORD PTR [ecx+4048], 0

; 430  : 
; 431  : 	m_areas.Uninit();

	mov	ecx, DWORD PTR _this$[ebp]
	add	ecx, 4112				; 00001010H
	mov	edx, DWORD PTR _this$[ebp]
	mov	eax, DWORD PTR [edx+4112]
	mov	edx, DWORD PTR [eax+8]
	call	edx

; 432  : 	m_landmasses.Uninit();

	mov	ecx, DWORD PTR _this$[ebp]
	add	ecx, 4140				; 0000102cH
	mov	eax, DWORD PTR _this$[ebp]
	mov	edx, DWORD PTR [eax+4140]
	mov	eax, DWORD PTR [edx+8]
	call	eax

; 433  : 	m_kPlotManager.Uninit();

	mov	ecx, DWORD PTR _this$[ebp]
	add	ecx, 4184				; 00001058H
	call	?Uninit@CvPlotManager@@QAEXXZ		; CvPlotManager::Uninit

; 434  : }

	mov	esp, ebp
	pop	ebp
	ret	0
?uninit@CvMap@@QAEXXZ ENDP				; CvMap::uninit
_TEXT	ENDS
EXTRN	?getNumResourceInfos@CvGlobals@@QAEHXZ:PROC	; CvGlobals::getNumResourceInfos
EXTRN	__imp__CoCreateGuid@4:PROC
EXTRN	?getGridHeight@CvWorldInfo@@QBEHXZ:PROC		; CvWorldInfo::getGridHeight
EXTRN	?getGridWidth@CvWorldInfo@@QBEHXZ:PROC		; CvWorldInfo::getGridWidth
EXTRN	?worldSize@CvPreGame@@YA?AW4WorldSizeTypes@@XZ:PROC ; CvPreGame::worldSize
; Function compile flags: /Odtp
;	COMDAT ?reset@CvMap@@QAEXPAUCvMapInitData@@@Z
_TEXT	SEGMENT
tv217 = -112						; size = 4
tv144 = -108						; size = 4
tv139 = -104						; size = 4
tv134 = -100						; size = 4
tv224 = -96						; size = 4
tv81 = -92						; size = 4
tv73 = -88						; size = 4
_this$ = -84						; size = 4
$T237209 = -80						; size = 4
$T237205 = -76						; size = 4
$T237201 = -72						; size = 4
_i$237196 = -68						; size = 4
$T237182 = -64						; size = 4
$T237179 = -60						; size = 4
$T237172 = -56						; size = 4
$T237169 = -52						; size = 4
$T237162 = -48						; size = 4
$T237159 = -44						; size = 4
$T237152 = -40						; size = 4
$T237149 = -36						; size = 4
$T237142 = -32						; size = 4
$T237141 = -28						; size = 4
$T237140 = -24						; size = 4
$T237139 = -20						; size = 4
$T237138 = -16						; size = 4
$T237137 = -12						; size = 4
_iI$234896 = -8						; size = 4
_iNumResourceInfos$ = -4				; size = 4
_pInitInfo$ = 8						; size = 4
?reset@CvMap@@QAEXPAUCvMapInitData@@@Z PROC		; CvMap::reset, COMDAT
; _this$ = ecx

; 440  : {

	push	ebp
	mov	ebp, esp
	sub	esp, 112				; 00000070H
	mov	DWORD PTR _this$[ebp], ecx

; 441  : 	//--------------------------------
; 442  : 	// Uninit class
; 443  : 	uninit();

	mov	ecx, DWORD PTR _this$[ebp]
	call	?uninit@CvMap@@QAEXXZ			; CvMap::uninit

; 444  : 
; 445  : 	m_iAIMapHints = 0;

	mov	eax, DWORD PTR _this$[ebp]
	mov	DWORD PTR [eax+4052], 0

; 446  : 	//
; 447  : 	// set grid size
; 448  : 	// initially set in terrain cell units
; 449  : 	//
; 450  : 	m_iGridWidth = (CvPreGame::worldSize() != NO_WORLDSIZE) ?  getWorldInfo().getGridWidth(): 0;	//todotw:tcells wide

	call	?worldSize@CvPreGame@@YA?AW4WorldSizeTypes@@XZ ; CvPreGame::worldSize
	cmp	eax, -1
	je	SHORT $LN10@reset
	mov	ecx, DWORD PTR _this$[ebp]
	call	?getWorldInfo@CvMap@@QBEABVCvWorldInfo@@XZ ; CvMap::getWorldInfo
	mov	ecx, eax
	call	?getGridWidth@CvWorldInfo@@QBEHXZ	; CvWorldInfo::getGridWidth
	mov	DWORD PTR tv73[ebp], eax
	jmp	SHORT $LN11@reset
$LN10@reset:
	mov	DWORD PTR tv73[ebp], 0
$LN11@reset:
	mov	ecx, DWORD PTR _this$[ebp]
	mov	edx, DWORD PTR tv73[ebp]
	mov	DWORD PTR [ecx+4020], edx

; 451  : 	m_iGridHeight = (CvPreGame::worldSize() != NO_WORLDSIZE) ? getWorldInfo().getGridHeight(): 0;

	call	?worldSize@CvPreGame@@YA?AW4WorldSizeTypes@@XZ ; CvPreGame::worldSize
	cmp	eax, -1
	je	SHORT $LN12@reset
	mov	ecx, DWORD PTR _this$[ebp]
	call	?getWorldInfo@CvMap@@QBEABVCvWorldInfo@@XZ ; CvMap::getWorldInfo
	mov	ecx, eax
	call	?getGridHeight@CvWorldInfo@@QBEHXZ	; CvWorldInfo::getGridHeight
	mov	DWORD PTR tv81[ebp], eax
	jmp	SHORT $LN13@reset
$LN12@reset:
	mov	DWORD PTR tv81[ebp], 0
$LN13@reset:
	mov	eax, DWORD PTR _this$[ebp]
	mov	ecx, DWORD PTR tv81[ebp]
	mov	DWORD PTR [eax+4024], ecx

; 452  : 
; 453  : 	// allow grid size override
; 454  : 	if(pInitInfo)

	cmp	DWORD PTR _pInitInfo$[ebp], 0
	je	SHORT $LN7@reset

; 455  : 	{
; 456  : 		m_iGridWidth	= pInitInfo->m_iGridW;

	mov	edx, DWORD PTR _this$[ebp]
	mov	eax, DWORD PTR _pInitInfo$[ebp]
	mov	ecx, DWORD PTR [eax]
	mov	DWORD PTR [edx+4020], ecx

; 457  : 		m_iGridHeight	= pInitInfo->m_iGridH;

	mov	edx, DWORD PTR _this$[ebp]
	mov	eax, DWORD PTR _pInitInfo$[ebp]
	mov	ecx, DWORD PTR [eax+4]
	mov	DWORD PTR [edx+4024], ecx
$LN7@reset:

; 458  : 	}
; 459  : 
; 460  : 	m_iGridSize = m_iGridHeight * m_iGridWidth;

	mov	edx, DWORD PTR _this$[ebp]
	mov	eax, DWORD PTR _this$[ebp]
	mov	ecx, DWORD PTR [edx+4024]
	imul	ecx, DWORD PTR [eax+4020]
	mov	edx, DWORD PTR _this$[ebp]
	mov	DWORD PTR [edx+4028], ecx

; 461  : 	m_iLandPlots = 0;

	mov	eax, DWORD PTR _this$[ebp]
	mov	DWORD PTR [eax+4032], 0

; 462  : 	m_iOwnedPlots = 0;

	mov	ecx, DWORD PTR _this$[ebp]
	mov	DWORD PTR [ecx+4036], 0

; 463  : 	m_iNumNaturalWonders = 0;

	mov	edx, DWORD PTR _this$[ebp]
	mov	DWORD PTR [edx+4048], 0

; 464  : 
; 465  : 	if(pInitInfo)

	cmp	DWORD PTR _pInitInfo$[ebp], 0
	je	SHORT $LN6@reset

; 466  : 	{
; 467  : 		m_iTopLatitude = pInitInfo->m_iTopLatitude;

	mov	eax, DWORD PTR _this$[ebp]
	mov	ecx, DWORD PTR _pInitInfo$[ebp]
	mov	edx, DWORD PTR [ecx+8]
	mov	DWORD PTR [eax+4040], edx

; 468  : 		m_iBottomLatitude = pInitInfo->m_iBottomLatitude;

	mov	eax, DWORD PTR _this$[ebp]
	mov	ecx, DWORD PTR _pInitInfo$[ebp]
	mov	edx, DWORD PTR [ecx+12]
	mov	DWORD PTR [eax+4044], edx
$LN6@reset:

; 469  : 	}
; 470  : 
; 471  : 	m_iTopLatitude = std::min(m_iTopLatitude, 90);

	mov	DWORD PTR $T237137[ebp], 90		; 0000005aH
	mov	eax, DWORD PTR _this$[ebp]
	add	eax, 4040				; 00000fc8H
	mov	DWORD PTR $T237152[ebp], eax
	mov	ecx, DWORD PTR $T237152[ebp]
	mov	edx, DWORD PTR $T237137[ebp]
	cmp	edx, DWORD PTR [ecx]
	jge	SHORT $LN16@reset
	lea	eax, DWORD PTR $T237137[ebp]
	mov	DWORD PTR tv224[ebp], eax
	jmp	SHORT $LN17@reset
$LN16@reset:
	mov	ecx, DWORD PTR $T237152[ebp]
	mov	DWORD PTR tv224[ebp], ecx
$LN17@reset:
	mov	edx, DWORD PTR tv224[ebp]
	mov	DWORD PTR $T237149[ebp], edx
	mov	eax, DWORD PTR _this$[ebp]
	mov	ecx, DWORD PTR $T237149[ebp]
	mov	edx, DWORD PTR [ecx]
	mov	DWORD PTR [eax+4040], edx

; 472  : 	m_iTopLatitude = std::max(m_iTopLatitude, -90);

	mov	DWORD PTR $T237138[ebp], -90		; ffffffa6H
	mov	eax, DWORD PTR _this$[ebp]
	add	eax, 4040				; 00000fc8H
	mov	DWORD PTR $T237162[ebp], eax
	mov	ecx, DWORD PTR $T237162[ebp]
	mov	edx, DWORD PTR [ecx]
	cmp	edx, DWORD PTR $T237138[ebp]
	jge	SHORT $LN20@reset
	lea	eax, DWORD PTR $T237138[ebp]
	mov	DWORD PTR tv134[ebp], eax
	jmp	SHORT $LN21@reset
$LN20@reset:
	mov	ecx, DWORD PTR $T237162[ebp]
	mov	DWORD PTR tv134[ebp], ecx
$LN21@reset:
	mov	edx, DWORD PTR tv134[ebp]
	mov	DWORD PTR $T237159[ebp], edx
	mov	eax, DWORD PTR _this$[ebp]
	mov	ecx, DWORD PTR $T237159[ebp]
	mov	edx, DWORD PTR [ecx]
	mov	DWORD PTR [eax+4040], edx

; 473  : 	m_iBottomLatitude = std::min(m_iBottomLatitude, 90);

	mov	DWORD PTR $T237139[ebp], 90		; 0000005aH
	mov	eax, DWORD PTR _this$[ebp]
	add	eax, 4044				; 00000fccH
	mov	DWORD PTR $T237172[ebp], eax
	mov	ecx, DWORD PTR $T237172[ebp]
	mov	edx, DWORD PTR $T237139[ebp]
	cmp	edx, DWORD PTR [ecx]
	jge	SHORT $LN24@reset
	lea	eax, DWORD PTR $T237139[ebp]
	mov	DWORD PTR tv139[ebp], eax
	jmp	SHORT $LN25@reset
$LN24@reset:
	mov	ecx, DWORD PTR $T237172[ebp]
	mov	DWORD PTR tv139[ebp], ecx
$LN25@reset:
	mov	edx, DWORD PTR tv139[ebp]
	mov	DWORD PTR $T237169[ebp], edx
	mov	eax, DWORD PTR _this$[ebp]
	mov	ecx, DWORD PTR $T237169[ebp]
	mov	edx, DWORD PTR [ecx]
	mov	DWORD PTR [eax+4044], edx

; 474  : 	m_iBottomLatitude = std::max(m_iBottomLatitude, -90);

	mov	DWORD PTR $T237140[ebp], -90		; ffffffa6H
	mov	eax, DWORD PTR _this$[ebp]
	add	eax, 4044				; 00000fccH
	mov	DWORD PTR $T237182[ebp], eax
	mov	ecx, DWORD PTR $T237182[ebp]
	mov	edx, DWORD PTR [ecx]
	cmp	edx, DWORD PTR $T237140[ebp]
	jge	SHORT $LN28@reset
	lea	eax, DWORD PTR $T237140[ebp]
	mov	DWORD PTR tv144[ebp], eax
	jmp	SHORT $LN29@reset
$LN28@reset:
	mov	ecx, DWORD PTR $T237182[ebp]
	mov	DWORD PTR tv144[ebp], ecx
$LN29@reset:
	mov	edx, DWORD PTR tv144[ebp]
	mov	DWORD PTR $T237179[ebp], edx
	mov	eax, DWORD PTR _this$[ebp]
	mov	ecx, DWORD PTR $T237179[ebp]
	mov	edx, DWORD PTR [ecx]
	mov	DWORD PTR [eax+4044], edx

; 475  : 
; 476  : 	//
; 477  : 	// set wrapping
; 478  : 	//
; 479  : 	m_bWrapX = true;

	mov	eax, DWORD PTR _this$[ebp]
	mov	BYTE PTR [eax+4056], 1

; 480  : 	m_bWrapY = false;

	mov	ecx, DWORD PTR _this$[ebp]
	mov	BYTE PTR [ecx+4057], 0

; 481  : 
; 482  : 	CoCreateGuid(&m_guid);

	mov	edx, DWORD PTR _this$[ebp]
	add	edx, 4168				; 00001048H
	push	edx
	call	DWORD PTR __imp__CoCreateGuid@4

; 483  : 
; 484  : 	if(pInitInfo)

	cmp	DWORD PTR _pInitInfo$[ebp], 0
	je	SHORT $LN5@reset

; 485  : 	{
; 486  : 		m_bWrapX = pInitInfo->m_bWrapX;

	mov	eax, DWORD PTR _this$[ebp]
	mov	ecx, DWORD PTR _pInitInfo$[ebp]
	mov	dl, BYTE PTR [ecx+16]
	mov	BYTE PTR [eax+4056], dl

; 487  : 		m_bWrapY = pInitInfo->m_bWrapY;

	mov	eax, DWORD PTR _this$[ebp]
	mov	ecx, DWORD PTR _pInitInfo$[ebp]
	mov	dl, BYTE PTR [ecx+17]
	mov	BYTE PTR [eax+4057], dl
$LN5@reset:

; 488  : 	}
; 489  : 
; 490  : #ifdef AUI_MAP_FIX_CALCULATE_INFLUENCE_DISTANCE_REUSE_PATHFINDER
; 491  : 	m_pLastInfluenceSourcePlot = NULL;
; 492  : #endif
; 493  : 
; 494  : 	int iNumResourceInfos = GC.getNumResourceInfos();

	mov	ecx, OFFSET ?gGlobals@@3VCvGlobals@@A	; gGlobals
	call	?getNumResourceInfos@CvGlobals@@QAEHXZ	; CvGlobals::getNumResourceInfos
	mov	DWORD PTR _iNumResourceInfos$[ebp], eax

; 495  : 	if(iNumResourceInfos)

	cmp	DWORD PTR _iNumResourceInfos$[ebp], 0
	je	$LN4@reset

; 496  : 	{
; 497  : 		CvAssertMsg((0 < GC.getNumResourceInfos()), "GC.getNumResourceInfos() is not greater than zero but an array is being allocated in CvMap::reset");
; 498  : 		CvAssertMsg(m_paiNumResource==NULL, "mem leak m_paiNumResource");
; 499  : 		m_paiNumResource = FNEW(int[iNumResourceInfos], c_eCiv5GameplayDLL, 0);

	xor	ecx, ecx
	mov	eax, DWORD PTR _iNumResourceInfos$[ebp]
	mov	edx, 4
	mul	edx
	seto	cl
	neg	ecx
	or	ecx, eax
	push	ecx
	call	??_U@YAPAXI@Z				; operator new[]
	add	esp, 4
	mov	DWORD PTR $T237141[ebp], eax
	mov	eax, DWORD PTR _this$[ebp]
	mov	ecx, DWORD PTR $T237141[ebp]
	mov	DWORD PTR [eax+4060], ecx

; 500  : 		CvAssertMsg(m_paiNumResourceOnLand==NULL, "mem leak m_paiNumResourceOnLand");
; 501  : 		m_paiNumResourceOnLand = FNEW(int[iNumResourceInfos], c_eCiv5GameplayDLL, 0);

	xor	ecx, ecx
	mov	eax, DWORD PTR _iNumResourceInfos$[ebp]
	mov	edx, 4
	mul	edx
	seto	cl
	neg	ecx
	or	ecx, eax
	push	ecx
	call	??_U@YAPAXI@Z				; operator new[]
	add	esp, 4
	mov	DWORD PTR $T237142[ebp], eax
	mov	eax, DWORD PTR _this$[ebp]
	mov	ecx, DWORD PTR $T237142[ebp]
	mov	DWORD PTR [eax+4064], ecx

; 502  : 		for(int iI = 0; iI < iNumResourceInfos; iI++)

	mov	DWORD PTR _iI$234896[ebp], 0
	jmp	SHORT $LN3@reset
$LN2@reset:
	mov	edx, DWORD PTR _iI$234896[ebp]
	add	edx, 1
	mov	DWORD PTR _iI$234896[ebp], edx
$LN3@reset:
	mov	eax, DWORD PTR _iI$234896[ebp]
	cmp	eax, DWORD PTR _iNumResourceInfos$[ebp]
	jge	SHORT $LN4@reset

; 503  : 		{
; 504  : 			m_paiNumResource[iI] = 0;

	mov	ecx, DWORD PTR _this$[ebp]
	mov	edx, DWORD PTR [ecx+4060]
	mov	eax, DWORD PTR _iI$234896[ebp]
	mov	DWORD PTR [edx+eax*4], 0

; 505  : 			m_paiNumResourceOnLand[iI] = 0;

	mov	ecx, DWORD PTR _this$[ebp]
	mov	edx, DWORD PTR [ecx+4064]
	mov	eax, DWORD PTR _iI$234896[ebp]
	mov	DWORD PTR [edx+eax*4], 0

; 506  : 		}

	jmp	SHORT $LN2@reset
$LN4@reset:

; 507  : 	}
; 508  : 
; 509  : 	m_areas.RemoveAll();

	mov	ecx, DWORD PTR _this$[ebp]
	add	ecx, 4112				; 00001010H
	mov	edx, DWORD PTR _this$[ebp]
	mov	eax, DWORD PTR [edx+4112]
	mov	edx, DWORD PTR [eax+20]
	call	edx

; 510  : 	m_landmasses.RemoveAll();

	mov	ecx, DWORD PTR _this$[ebp]
	add	ecx, 4140				; 0000102cH
	mov	eax, DWORD PTR _this$[ebp]
	mov	edx, DWORD PTR [eax+4140]
	mov	eax, DWORD PTR [edx+20]
	call	eax

; 511  : 
; 512  : 	m_vDeferredFogPlots.clear();

	mov	ecx, DWORD PTR _this$[ebp]
	add	ecx, 4
	mov	DWORD PTR $T237201[ebp], ecx
	xor	edx, edx
	je	SHORT $LN36@reset
	mov	DWORD PTR _i$237196[ebp], 0
	jmp	SHORT $LN34@reset
$LN33@reset:
	mov	eax, DWORD PTR _i$237196[ebp]
	add	eax, 1
	mov	DWORD PTR _i$237196[ebp], eax
$LN34@reset:
	mov	ecx, DWORD PTR $T237201[ebp]
	mov	edx, DWORD PTR _i$237196[ebp]
	cmp	edx, DWORD PTR [ecx+4]
	jae	SHORT $LN36@reset
	jmp	SHORT $LN33@reset
$LN36@reset:
	mov	eax, DWORD PTR $T237201[ebp]
	mov	DWORD PTR [eax+4], 0

; 513  : 
; 514  : 	gDLL->DoMapSetup(numPlots());

	mov	ecx, DWORD PTR $T237205[ebp]
	mov	DWORD PTR tv217[ebp], ecx
	mov	edx, DWORD PTR ?gGlobals@@3VCvGlobals@@A+8564
	mov	DWORD PTR tv217[ebp], edx
	mov	eax, DWORD PTR _this$[ebp]
	mov	ecx, DWORD PTR [eax+4028]
	mov	DWORD PTR $T237209[ebp], ecx
	mov	edx, DWORD PTR $T237209[ebp]
	push	edx
	mov	eax, DWORD PTR tv217[ebp]
	mov	edx, DWORD PTR [eax]
	mov	ecx, DWORD PTR tv217[ebp]
	mov	eax, DWORD PTR [edx+20]
	call	eax

; 515  : }

	mov	esp, ebp
	pop	ebp
	ret	4
?reset@CvMap@@QAEXPAUCvMapInitData@@@Z ENDP		; CvMap::reset
_TEXT	ENDS
EXTRN	?GetTacticalAnalysisMapFinder@CvGlobals@@QAEAAVCvTwoLayerPathFinder@@XZ:PROC ; CvGlobals::GetTacticalAnalysisMapFinder
EXTRN	?TacticalAnalysisMapPathValid@@YAHPAVCvAStarNode@@0HPBXPAVCvAStar@@@Z:PROC ; TacticalAnalysisMapPathValid
EXTRN	?GetInternationalTradeRouteWaterFinder@CvGlobals@@QAEAAVCvAStar@@XZ:PROC ; CvGlobals::GetInternationalTradeRouteWaterFinder
EXTRN	?TradeRouteWaterPathCost@@YAHPAVCvAStarNode@@0HPBXPAVCvAStar@@@Z:PROC ; TradeRouteWaterPathCost
EXTRN	?TradeRouteWaterValid@@YAHPAVCvAStarNode@@0HPBXPAVCvAStar@@@Z:PROC ; TradeRouteWaterValid
EXTRN	?GetInternationalTradeRouteLandFinder@CvGlobals@@QAEAAVCvAStar@@XZ:PROC ; CvGlobals::GetInternationalTradeRouteLandFinder
EXTRN	?TradeRouteHeuristic@@YAHHHHH@Z:PROC		; TradeRouteHeuristic
EXTRN	?TradeRouteLandPathCost@@YAHPAVCvAStarNode@@0HPBXPAVCvAStar@@@Z:PROC ; TradeRouteLandPathCost
EXTRN	?TradeRouteLandValid@@YAHPAVCvAStarNode@@0HPBXPAVCvAStar@@@Z:PROC ; TradeRouteLandValid
EXTRN	?TradePathInitialize@@YAXPBXPAVCvAStar@@@Z:PROC	; TradePathInitialize
EXTRN	?TradePathUninitialize@@YAXPBXPAVCvAStar@@@Z:PROC ; TradePathUninitialize
EXTRN	?GetBuildRouteFinder@CvGlobals@@QAEAAVCvAStar@@XZ:PROC ; CvGlobals::GetBuildRouteFinder
EXTRN	?BuildRouteCost@@YAHPAVCvAStarNode@@0HPBXPAVCvAStar@@@Z:PROC ; BuildRouteCost
EXTRN	?BuildRouteValid@@YAHPAVCvAStarNode@@0HPBXPAVCvAStar@@@Z:PROC ; BuildRouteValid
EXTRN	?getInfluenceFinder@CvGlobals@@QAEAAVCvAStar@@XZ:PROC ; CvGlobals::getInfluenceFinder
EXTRN	?InfluenceDestValid@@YAHHHPBXPAVCvAStar@@@Z:PROC ; InfluenceDestValid
EXTRN	?InfluenceHeuristic@@YAHHHHH@Z:PROC		; InfluenceHeuristic
EXTRN	?InfluenceCost@@YAHPAVCvAStarNode@@0HPBXPAVCvAStar@@@Z:PROC ; InfluenceCost
EXTRN	?InfluenceValid@@YAHPAVCvAStarNode@@0HPBXPAVCvAStar@@@Z:PROC ; InfluenceValid
EXTRN	?InfluenceAdd@@YAHPAVCvAStarNode@@0HPBXPAVCvAStar@@@Z:PROC ; InfluenceAdd
EXTRN	?getAreaFinder@CvGlobals@@QAEAAVCvAStar@@XZ:PROC ; CvGlobals::getAreaFinder
EXTRN	?AreaValid@@YAHPAVCvAStarNode@@0HPBXPAVCvAStar@@@Z:PROC ; AreaValid
EXTRN	?JoinArea@@YAHPAVCvAStarNode@@0HPBXPAVCvAStar@@@Z:PROC ; JoinArea
EXTRN	?GetWaterRouteFinder@CvGlobals@@QAEAAVCvAStar@@XZ:PROC ; CvGlobals::GetWaterRouteFinder
EXTRN	?WaterRouteValid@@YAHPAVCvAStarNode@@0HPBXPAVCvAStar@@@Z:PROC ; WaterRouteValid
EXTRN	?getRouteFinder@CvGlobals@@QAEAAVCvAStar@@XZ:PROC ; CvGlobals::getRouteFinder
EXTRN	?RouteValid@@YAHPAVCvAStarNode@@0HPBXPAVCvAStar@@@Z:PROC ; RouteValid
EXTRN	?RouteGetNumExtraChildren@@YAHPAVCvAStarNode@@PAVCvAStar@@@Z:PROC ; RouteGetNumExtraChildren
EXTRN	?RouteGetExtraChild@@YAHPAVCvAStarNode@@HAAH1PAVCvAStar@@@Z:PROC ; RouteGetExtraChild
EXTRN	?getStepFinder@CvGlobals@@QAEAAVCvStepPathFinder@@XZ:PROC ; CvGlobals::getStepFinder
EXTRN	?StepDestValid@@YAHHHPBXPAVCvAStar@@@Z:PROC	; StepDestValid
EXTRN	?StepHeuristic@@YAHHHHH@Z:PROC			; StepHeuristic
EXTRN	?StepCost@@YAHPAVCvAStarNode@@0HPBXPAVCvAStar@@@Z:PROC ; StepCost
EXTRN	?StepValid@@YAHPAVCvAStarNode@@0HPBXPAVCvAStar@@@Z:PROC ; StepValid
EXTRN	?StepAdd@@YAHPAVCvAStarNode@@0HPBXPAVCvAStar@@@Z:PROC ; StepAdd
EXTRN	?Initialize@CvAStar@@QAEXHH_N0P6AHHHPBXPAV1@@Z3P6AHHHHH@ZP6AHPAVCvAStarNode@@5H12@Z666P6AH52@ZP6AH5HAAH82@ZP6AX12@ZP6AX12@Z1@Z:PROC ; CvAStar::Initialize
EXTRN	?getIgnoreUnitsPathFinder@CvGlobals@@QAEAAVCvIgnoreUnitsPathFinder@@XZ:PROC ; CvGlobals::getIgnoreUnitsPathFinder
EXTRN	?IgnoreUnitsDestValid@@YAHHHPBXPAVCvAStar@@@Z:PROC ; IgnoreUnitsDestValid
EXTRN	?IgnoreUnitsCost@@YAHPAVCvAStarNode@@0HPBXPAVCvAStar@@@Z:PROC ; IgnoreUnitsCost
EXTRN	?IgnoreUnitsValid@@YAHPAVCvAStarNode@@0HPBXPAVCvAStar@@@Z:PROC ; IgnoreUnitsValid
EXTRN	?IgnoreUnitsPathAdd@@YAHPAVCvAStarNode@@0HPBXPAVCvAStar@@@Z:PROC ; IgnoreUnitsPathAdd
EXTRN	?getInterfacePathFinder@CvGlobals@@QAEAAVCvTwoLayerPathFinder@@XZ:PROC ; CvGlobals::getInterfacePathFinder
EXTRN	?Initialize@CvTwoLayerPathFinder@@QAEXHH_N0P6AHHHPBXPAVCvAStar@@@Z3P6AHHHHH@ZP6AHPAVCvAStarNode@@5H12@Z666P6AX12@Z71@Z:PROC ; CvTwoLayerPathFinder::Initialize
EXTRN	?getPathFinder@CvGlobals@@QAEAAVCvTwoLayerPathFinder@@XZ:PROC ; CvGlobals::getPathFinder
EXTRN	?PathDest@@YAHHHPBXPAVCvAStar@@@Z:PROC		; PathDest
EXTRN	?PathDestValid@@YAHHHPBXPAVCvAStar@@@Z:PROC	; PathDestValid
EXTRN	?PathHeuristic@@YAHHHHH@Z:PROC			; PathHeuristic
EXTRN	?PathCost@@YAHPAVCvAStarNode@@0HPBXPAVCvAStar@@@Z:PROC ; PathCost
EXTRN	?PathValid@@YAHPAVCvAStarNode@@0HPBXPAVCvAStar@@@Z:PROC ; PathValid
EXTRN	?PathAdd@@YAHPAVCvAStarNode@@0HPBXPAVCvAStar@@@Z:PROC ; PathAdd
EXTRN	?PathNodeAdd@@YAHPAVCvAStarNode@@0HPBXPAVCvAStar@@@Z:PROC ; PathNodeAdd
EXTRN	?UnitPathInitialize@@YAXPBXPAVCvAStar@@@Z:PROC	; UnitPathInitialize
EXTRN	?UnitPathUninitialize@@YAXPBXPAVCvAStar@@@Z:PROC ; UnitPathUninitialize
; Function compile flags: /Odtp
;	COMDAT ?setup@CvMap@@IAEXXZ
_TEXT	SEGMENT
_this$ = -180						; size = 4
$T237423 = -176						; size = 4
_bOldState$237422 = -169				; size = 1
$T237418 = -168						; size = 4
$T237414 = -164						; size = 4
$T237410 = -158						; size = 1
$T237406 = -157						; size = 1
$T237402 = -156						; size = 4
$T237398 = -152						; size = 4
$T237394 = -146						; size = 1
$T237390 = -145						; size = 1
$T237386 = -144						; size = 4
$T237382 = -140						; size = 4
$T237378 = -134						; size = 1
$T237374 = -133						; size = 1
$T237370 = -132						; size = 4
$T237366 = -128						; size = 4
$T237362 = -122						; size = 1
$T237358 = -121						; size = 1
$T237354 = -120						; size = 4
$T237350 = -116						; size = 4
$T237346 = -110						; size = 1
$T237342 = -109						; size = 1
$T237338 = -108						; size = 4
$T237334 = -104						; size = 4
$T237330 = -98						; size = 1
$T237326 = -97						; size = 1
$T237322 = -96						; size = 4
$T237318 = -92						; size = 4
$T237314 = -86						; size = 1
$T237310 = -85						; size = 1
$T237306 = -84						; size = 4
$T237302 = -80						; size = 4
$T237298 = -74						; size = 1
$T237294 = -73						; size = 1
$T237290 = -72						; size = 4
$T237286 = -68						; size = 4
$T237282 = -62						; size = 1
$T237278 = -61						; size = 1
$T237274 = -60						; size = 4
_bOldState$237273 = -53					; size = 1
$T237269 = -52						; size = 4
$T237265 = -48						; size = 4
$T237261 = -42						; size = 1
$T237257 = -41						; size = 1
$T237253 = -40						; size = 4
_bOldState$237252 = -33					; size = 1
$T237248 = -32						; size = 4
$T237244 = -28						; size = 4
$T237240 = -22						; size = 1
$T237236 = -21						; size = 1
$T237232 = -20						; size = 4
_bOldState$237231 = -13					; size = 1
$T237227 = -12						; size = 4
$T237223 = -8						; size = 4
$T237219 = -2						; size = 1
$T237215 = -1						; size = 1
?setup@CvMap@@IAEXXZ PROC				; CvMap::setup, COMDAT
; _this$ = ecx

; 522  : {

	push	ebp
	mov	ebp, esp
	sub	esp, 180				; 000000b4H
	mov	DWORD PTR _this$[ebp], ecx

; 523  : 	GC.getPathFinder().Initialize(getGridWidth(), getGridHeight(), isWrapX(), isWrapY(), PathDest, PathDestValid, PathHeuristic, PathCost, PathValid, PathAdd, PathNodeAdd, UnitPathInitialize, UnitPathUninitialize, NULL);

	mov	eax, DWORD PTR _this$[ebp]
	mov	cl, BYTE PTR [eax+4057]
	mov	BYTE PTR $T237215[ebp], cl
	mov	edx, DWORD PTR _this$[ebp]
	mov	al, BYTE PTR [edx+4056]
	mov	BYTE PTR $T237219[ebp], al
	mov	ecx, DWORD PTR _this$[ebp]
	mov	edx, DWORD PTR [ecx+4024]
	mov	DWORD PTR $T237223[ebp], edx
	mov	eax, DWORD PTR _this$[ebp]
	mov	ecx, DWORD PTR [eax+4020]
	mov	DWORD PTR $T237227[ebp], ecx
	push	0
	push	OFFSET ?UnitPathUninitialize@@YAXPBXPAVCvAStar@@@Z ; UnitPathUninitialize
	push	OFFSET ?UnitPathInitialize@@YAXPBXPAVCvAStar@@@Z ; UnitPathInitialize
	push	OFFSET ?PathNodeAdd@@YAHPAVCvAStarNode@@0HPBXPAVCvAStar@@@Z ; PathNodeAdd
	push	OFFSET ?PathAdd@@YAHPAVCvAStarNode@@0HPBXPAVCvAStar@@@Z ; PathAdd
	push	OFFSET ?PathValid@@YAHPAVCvAStarNode@@0HPBXPAVCvAStar@@@Z ; PathValid
	push	OFFSET ?PathCost@@YAHPAVCvAStarNode@@0HPBXPAVCvAStar@@@Z ; PathCost
	push	OFFSET ?PathHeuristic@@YAHHHHH@Z	; PathHeuristic
	push	OFFSET ?PathDestValid@@YAHHHPBXPAVCvAStar@@@Z ; PathDestValid
	push	OFFSET ?PathDest@@YAHHHPBXPAVCvAStar@@@Z ; PathDest
	movzx	edx, BYTE PTR $T237215[ebp]
	push	edx
	movzx	eax, BYTE PTR $T237219[ebp]
	push	eax
	mov	ecx, DWORD PTR $T237223[ebp]
	push	ecx
	mov	edx, DWORD PTR $T237227[ebp]
	push	edx
	mov	ecx, OFFSET ?gGlobals@@3VCvGlobals@@A	; gGlobals
	call	?getPathFinder@CvGlobals@@QAEAAVCvTwoLayerPathFinder@@XZ ; CvGlobals::getPathFinder
	mov	ecx, eax
	call	?Initialize@CvTwoLayerPathFinder@@QAEXHH_N0P6AHHHPBXPAVCvAStar@@@Z3P6AHHHHH@ZP6AHPAVCvAStarNode@@5H12@Z666P6AX12@Z71@Z ; CvTwoLayerPathFinder::Initialize

; 524  : 	GC.getPathFinder().SetDataChangeInvalidatesCache(true);

	mov	ecx, OFFSET ?gGlobals@@3VCvGlobals@@A	; gGlobals
	call	?getPathFinder@CvGlobals@@QAEAAVCvTwoLayerPathFinder@@XZ ; CvGlobals::getPathFinder
	mov	DWORD PTR $T237232[ebp], eax
	mov	eax, DWORD PTR $T237232[ebp]
	mov	cl, BYTE PTR [eax+80]
	mov	BYTE PTR _bOldState$237231[ebp], cl
	mov	edx, DWORD PTR $T237232[ebp]
	mov	BYTE PTR [edx+80], 1

; 525  : 	GC.getInterfacePathFinder().Initialize(getGridWidth(), getGridHeight(), isWrapX(), isWrapY(), PathDest, PathDestValid, PathHeuristic, PathCost, PathValid, PathAdd, PathNodeAdd, UnitPathInitialize, UnitPathUninitialize, NULL);

	mov	eax, DWORD PTR _this$[ebp]
	mov	cl, BYTE PTR [eax+4057]
	mov	BYTE PTR $T237236[ebp], cl
	mov	edx, DWORD PTR _this$[ebp]
	mov	al, BYTE PTR [edx+4056]
	mov	BYTE PTR $T237240[ebp], al
	mov	ecx, DWORD PTR _this$[ebp]
	mov	edx, DWORD PTR [ecx+4024]
	mov	DWORD PTR $T237244[ebp], edx
	mov	eax, DWORD PTR _this$[ebp]
	mov	ecx, DWORD PTR [eax+4020]
	mov	DWORD PTR $T237248[ebp], ecx
	push	0
	push	OFFSET ?UnitPathUninitialize@@YAXPBXPAVCvAStar@@@Z ; UnitPathUninitialize
	push	OFFSET ?UnitPathInitialize@@YAXPBXPAVCvAStar@@@Z ; UnitPathInitialize
	push	OFFSET ?PathNodeAdd@@YAHPAVCvAStarNode@@0HPBXPAVCvAStar@@@Z ; PathNodeAdd
	push	OFFSET ?PathAdd@@YAHPAVCvAStarNode@@0HPBXPAVCvAStar@@@Z ; PathAdd
	push	OFFSET ?PathValid@@YAHPAVCvAStarNode@@0HPBXPAVCvAStar@@@Z ; PathValid
	push	OFFSET ?PathCost@@YAHPAVCvAStarNode@@0HPBXPAVCvAStar@@@Z ; PathCost
	push	OFFSET ?PathHeuristic@@YAHHHHH@Z	; PathHeuristic
	push	OFFSET ?PathDestValid@@YAHHHPBXPAVCvAStar@@@Z ; PathDestValid
	push	OFFSET ?PathDest@@YAHHHPBXPAVCvAStar@@@Z ; PathDest
	movzx	edx, BYTE PTR $T237236[ebp]
	push	edx
	movzx	eax, BYTE PTR $T237240[ebp]
	push	eax
	mov	ecx, DWORD PTR $T237244[ebp]
	push	ecx
	mov	edx, DWORD PTR $T237248[ebp]
	push	edx
	mov	ecx, OFFSET ?gGlobals@@3VCvGlobals@@A	; gGlobals
	call	?getInterfacePathFinder@CvGlobals@@QAEAAVCvTwoLayerPathFinder@@XZ ; CvGlobals::getInterfacePathFinder
	mov	ecx, eax
	call	?Initialize@CvTwoLayerPathFinder@@QAEXHH_N0P6AHHHPBXPAVCvAStar@@@Z3P6AHHHHH@ZP6AHPAVCvAStarNode@@5H12@Z666P6AX12@Z71@Z ; CvTwoLayerPathFinder::Initialize

; 526  : 	GC.getInterfacePathFinder().SetDataChangeInvalidatesCache(true);

	mov	ecx, OFFSET ?gGlobals@@3VCvGlobals@@A	; gGlobals
	call	?getInterfacePathFinder@CvGlobals@@QAEAAVCvTwoLayerPathFinder@@XZ ; CvGlobals::getInterfacePathFinder
	mov	DWORD PTR $T237253[ebp], eax
	mov	eax, DWORD PTR $T237253[ebp]
	mov	cl, BYTE PTR [eax+80]
	mov	BYTE PTR _bOldState$237252[ebp], cl
	mov	edx, DWORD PTR $T237253[ebp]
	mov	BYTE PTR [edx+80], 1

; 527  : 	GC.getIgnoreUnitsPathFinder().Initialize(getGridWidth(), getGridHeight(), isWrapX(), isWrapY(), PathDest,  IgnoreUnitsDestValid, PathHeuristic, IgnoreUnitsCost, IgnoreUnitsValid, IgnoreUnitsPathAdd, NULL, NULL, NULL, UnitPathInitialize, UnitPathUninitialize, NULL);

	mov	eax, DWORD PTR _this$[ebp]
	mov	cl, BYTE PTR [eax+4057]
	mov	BYTE PTR $T237257[ebp], cl
	mov	edx, DWORD PTR _this$[ebp]
	mov	al, BYTE PTR [edx+4056]
	mov	BYTE PTR $T237261[ebp], al
	mov	ecx, DWORD PTR _this$[ebp]
	mov	edx, DWORD PTR [ecx+4024]
	mov	DWORD PTR $T237265[ebp], edx
	mov	eax, DWORD PTR _this$[ebp]
	mov	ecx, DWORD PTR [eax+4020]
	mov	DWORD PTR $T237269[ebp], ecx
	push	0
	push	OFFSET ?UnitPathUninitialize@@YAXPBXPAVCvAStar@@@Z ; UnitPathUninitialize
	push	OFFSET ?UnitPathInitialize@@YAXPBXPAVCvAStar@@@Z ; UnitPathInitialize
	push	0
	push	0
	push	0
	push	OFFSET ?IgnoreUnitsPathAdd@@YAHPAVCvAStarNode@@0HPBXPAVCvAStar@@@Z ; IgnoreUnitsPathAdd
	push	OFFSET ?IgnoreUnitsValid@@YAHPAVCvAStarNode@@0HPBXPAVCvAStar@@@Z ; IgnoreUnitsValid
	push	OFFSET ?IgnoreUnitsCost@@YAHPAVCvAStarNode@@0HPBXPAVCvAStar@@@Z ; IgnoreUnitsCost
	push	OFFSET ?PathHeuristic@@YAHHHHH@Z	; PathHeuristic
	push	OFFSET ?IgnoreUnitsDestValid@@YAHHHPBXPAVCvAStar@@@Z ; IgnoreUnitsDestValid
	push	OFFSET ?PathDest@@YAHHHPBXPAVCvAStar@@@Z ; PathDest
	movzx	edx, BYTE PTR $T237257[ebp]
	push	edx
	movzx	eax, BYTE PTR $T237261[ebp]
	push	eax
	mov	ecx, DWORD PTR $T237265[ebp]
	push	ecx
	mov	edx, DWORD PTR $T237269[ebp]
	push	edx
	mov	ecx, OFFSET ?gGlobals@@3VCvGlobals@@A	; gGlobals
	call	?getIgnoreUnitsPathFinder@CvGlobals@@QAEAAVCvIgnoreUnitsPathFinder@@XZ ; CvGlobals::getIgnoreUnitsPathFinder
	mov	ecx, eax
	call	?Initialize@CvAStar@@QAEXHH_N0P6AHHHPBXPAV1@@Z3P6AHHHHH@ZP6AHPAVCvAStarNode@@5H12@Z666P6AH52@ZP6AH5HAAH82@ZP6AX12@ZP6AX12@Z1@Z ; CvAStar::Initialize

; 528  : 	GC.getIgnoreUnitsPathFinder().SetDataChangeInvalidatesCache(true);

	mov	ecx, OFFSET ?gGlobals@@3VCvGlobals@@A	; gGlobals
	call	?getIgnoreUnitsPathFinder@CvGlobals@@QAEAAVCvIgnoreUnitsPathFinder@@XZ ; CvGlobals::getIgnoreUnitsPathFinder
	mov	DWORD PTR $T237274[ebp], eax
	mov	eax, DWORD PTR $T237274[ebp]
	mov	cl, BYTE PTR [eax+80]
	mov	BYTE PTR _bOldState$237273[ebp], cl
	mov	edx, DWORD PTR $T237274[ebp]
	mov	BYTE PTR [edx+80], 1

; 529  : 	GC.getStepFinder().Initialize(getGridWidth(), getGridHeight(), isWrapX(), isWrapY(), PathDest, StepDestValid, StepHeuristic, StepCost, StepValid, StepAdd, NULL, NULL, NULL, NULL, NULL, NULL);

	mov	eax, DWORD PTR _this$[ebp]
	mov	cl, BYTE PTR [eax+4057]
	mov	BYTE PTR $T237278[ebp], cl
	mov	edx, DWORD PTR _this$[ebp]
	mov	al, BYTE PTR [edx+4056]
	mov	BYTE PTR $T237282[ebp], al
	mov	ecx, DWORD PTR _this$[ebp]
	mov	edx, DWORD PTR [ecx+4024]
	mov	DWORD PTR $T237286[ebp], edx
	mov	eax, DWORD PTR _this$[ebp]
	mov	ecx, DWORD PTR [eax+4020]
	mov	DWORD PTR $T237290[ebp], ecx
	push	0
	push	0
	push	0
	push	0
	push	0
	push	0
	push	OFFSET ?StepAdd@@YAHPAVCvAStarNode@@0HPBXPAVCvAStar@@@Z ; StepAdd
	push	OFFSET ?StepValid@@YAHPAVCvAStarNode@@0HPBXPAVCvAStar@@@Z ; StepValid
	push	OFFSET ?StepCost@@YAHPAVCvAStarNode@@0HPBXPAVCvAStar@@@Z ; StepCost
	push	OFFSET ?StepHeuristic@@YAHHHHH@Z	; StepHeuristic
	push	OFFSET ?StepDestValid@@YAHHHPBXPAVCvAStar@@@Z ; StepDestValid
	push	OFFSET ?PathDest@@YAHHHPBXPAVCvAStar@@@Z ; PathDest
	movzx	edx, BYTE PTR $T237278[ebp]
	push	edx
	movzx	eax, BYTE PTR $T237282[ebp]
	push	eax
	mov	ecx, DWORD PTR $T237286[ebp]
	push	ecx
	mov	edx, DWORD PTR $T237290[ebp]
	push	edx
	mov	ecx, OFFSET ?gGlobals@@3VCvGlobals@@A	; gGlobals
	call	?getStepFinder@CvGlobals@@QAEAAVCvStepPathFinder@@XZ ; CvGlobals::getStepFinder
	mov	ecx, eax
	call	?Initialize@CvAStar@@QAEXHH_N0P6AHHHPBXPAV1@@Z3P6AHHHHH@ZP6AHPAVCvAStarNode@@5H12@Z666P6AH52@ZP6AH5HAAH82@ZP6AX12@ZP6AX12@Z1@Z ; CvAStar::Initialize

; 530  : 	GC.getRouteFinder().Initialize(getGridWidth(), getGridHeight(), isWrapX(), isWrapY(), PathDest, NULL, NULL, NULL, RouteValid, NULL, NULL, RouteGetNumExtraChildren, RouteGetExtraChild, NULL, NULL, NULL);

	mov	eax, DWORD PTR _this$[ebp]
	mov	cl, BYTE PTR [eax+4057]
	mov	BYTE PTR $T237294[ebp], cl
	mov	edx, DWORD PTR _this$[ebp]
	mov	al, BYTE PTR [edx+4056]
	mov	BYTE PTR $T237298[ebp], al
	mov	ecx, DWORD PTR _this$[ebp]
	mov	edx, DWORD PTR [ecx+4024]
	mov	DWORD PTR $T237302[ebp], edx
	mov	eax, DWORD PTR _this$[ebp]
	mov	ecx, DWORD PTR [eax+4020]
	mov	DWORD PTR $T237306[ebp], ecx
	push	0
	push	0
	push	0
	push	OFFSET ?RouteGetExtraChild@@YAHPAVCvAStarNode@@HAAH1PAVCvAStar@@@Z ; RouteGetExtraChild
	push	OFFSET ?RouteGetNumExtraChildren@@YAHPAVCvAStarNode@@PAVCvAStar@@@Z ; RouteGetNumExtraChildren
	push	0
	push	0
	push	OFFSET ?RouteValid@@YAHPAVCvAStarNode@@0HPBXPAVCvAStar@@@Z ; RouteValid
	push	0
	push	0
	push	0
	push	OFFSET ?PathDest@@YAHHHPBXPAVCvAStar@@@Z ; PathDest
	movzx	edx, BYTE PTR $T237294[ebp]
	push	edx
	movzx	eax, BYTE PTR $T237298[ebp]
	push	eax
	mov	ecx, DWORD PTR $T237302[ebp]
	push	ecx
	mov	edx, DWORD PTR $T237306[ebp]
	push	edx
	mov	ecx, OFFSET ?gGlobals@@3VCvGlobals@@A	; gGlobals
	call	?getRouteFinder@CvGlobals@@QAEAAVCvAStar@@XZ ; CvGlobals::getRouteFinder
	mov	ecx, eax
	call	?Initialize@CvAStar@@QAEXHH_N0P6AHHHPBXPAV1@@Z3P6AHHHHH@ZP6AHPAVCvAStarNode@@5H12@Z666P6AH52@ZP6AH5HAAH82@ZP6AX12@ZP6AX12@Z1@Z ; CvAStar::Initialize

; 531  : 	GC.GetWaterRouteFinder().Initialize(getGridWidth(), getGridHeight(), isWrapX(), isWrapY(), PathDest, NULL, NULL, NULL, WaterRouteValid, NULL, NULL, NULL, NULL, NULL, NULL, NULL);

	mov	eax, DWORD PTR _this$[ebp]
	mov	cl, BYTE PTR [eax+4057]
	mov	BYTE PTR $T237310[ebp], cl
	mov	edx, DWORD PTR _this$[ebp]
	mov	al, BYTE PTR [edx+4056]
	mov	BYTE PTR $T237314[ebp], al
	mov	ecx, DWORD PTR _this$[ebp]
	mov	edx, DWORD PTR [ecx+4024]
	mov	DWORD PTR $T237318[ebp], edx
	mov	eax, DWORD PTR _this$[ebp]
	mov	ecx, DWORD PTR [eax+4020]
	mov	DWORD PTR $T237322[ebp], ecx
	push	0
	push	0
	push	0
	push	0
	push	0
	push	0
	push	0
	push	OFFSET ?WaterRouteValid@@YAHPAVCvAStarNode@@0HPBXPAVCvAStar@@@Z ; WaterRouteValid
	push	0
	push	0
	push	0
	push	OFFSET ?PathDest@@YAHHHPBXPAVCvAStar@@@Z ; PathDest
	movzx	edx, BYTE PTR $T237310[ebp]
	push	edx
	movzx	eax, BYTE PTR $T237314[ebp]
	push	eax
	mov	ecx, DWORD PTR $T237318[ebp]
	push	ecx
	mov	edx, DWORD PTR $T237322[ebp]
	push	edx
	mov	ecx, OFFSET ?gGlobals@@3VCvGlobals@@A	; gGlobals
	call	?GetWaterRouteFinder@CvGlobals@@QAEAAVCvAStar@@XZ ; CvGlobals::GetWaterRouteFinder
	mov	ecx, eax
	call	?Initialize@CvAStar@@QAEXHH_N0P6AHHHPBXPAV1@@Z3P6AHHHHH@ZP6AHPAVCvAStarNode@@5H12@Z666P6AH52@ZP6AH5HAAH82@ZP6AX12@ZP6AX12@Z1@Z ; CvAStar::Initialize

; 532  : 	GC.getAreaFinder().Initialize(getGridWidth(), getGridHeight(), isWrapX(), isWrapY(), PathDest, NULL, NULL, NULL, AreaValid, NULL, JoinArea, NULL, NULL, NULL, NULL, NULL);

	mov	eax, DWORD PTR _this$[ebp]
	mov	cl, BYTE PTR [eax+4057]
	mov	BYTE PTR $T237326[ebp], cl
	mov	edx, DWORD PTR _this$[ebp]
	mov	al, BYTE PTR [edx+4056]
	mov	BYTE PTR $T237330[ebp], al
	mov	ecx, DWORD PTR _this$[ebp]
	mov	edx, DWORD PTR [ecx+4024]
	mov	DWORD PTR $T237334[ebp], edx
	mov	eax, DWORD PTR _this$[ebp]
	mov	ecx, DWORD PTR [eax+4020]
	mov	DWORD PTR $T237338[ebp], ecx
	push	0
	push	0
	push	0
	push	0
	push	0
	push	OFFSET ?JoinArea@@YAHPAVCvAStarNode@@0HPBXPAVCvAStar@@@Z ; JoinArea
	push	0
	push	OFFSET ?AreaValid@@YAHPAVCvAStarNode@@0HPBXPAVCvAStar@@@Z ; AreaValid
	push	0
	push	0
	push	0
	push	OFFSET ?PathDest@@YAHHHPBXPAVCvAStar@@@Z ; PathDest
	movzx	edx, BYTE PTR $T237326[ebp]
	push	edx
	movzx	eax, BYTE PTR $T237330[ebp]
	push	eax
	mov	ecx, DWORD PTR $T237334[ebp]
	push	ecx
	mov	edx, DWORD PTR $T237338[ebp]
	push	edx
	mov	ecx, OFFSET ?gGlobals@@3VCvGlobals@@A	; gGlobals
	call	?getAreaFinder@CvGlobals@@QAEAAVCvAStar@@XZ ; CvGlobals::getAreaFinder
	mov	ecx, eax
	call	?Initialize@CvAStar@@QAEXHH_N0P6AHHHPBXPAV1@@Z3P6AHHHHH@ZP6AHPAVCvAStarNode@@5H12@Z666P6AH52@ZP6AH5HAAH82@ZP6AX12@ZP6AX12@Z1@Z ; CvAStar::Initialize

; 533  : 	GC.getInfluenceFinder().Initialize(getGridWidth(), getGridHeight(), isWrapX(), isWrapY(), PathDest, InfluenceDestValid, InfluenceHeuristic, InfluenceCost, InfluenceValid, InfluenceAdd, NULL, NULL, NULL, NULL, NULL, NULL);

	mov	eax, DWORD PTR _this$[ebp]
	mov	cl, BYTE PTR [eax+4057]
	mov	BYTE PTR $T237342[ebp], cl
	mov	edx, DWORD PTR _this$[ebp]
	mov	al, BYTE PTR [edx+4056]
	mov	BYTE PTR $T237346[ebp], al
	mov	ecx, DWORD PTR _this$[ebp]
	mov	edx, DWORD PTR [ecx+4024]
	mov	DWORD PTR $T237350[ebp], edx
	mov	eax, DWORD PTR _this$[ebp]
	mov	ecx, DWORD PTR [eax+4020]
	mov	DWORD PTR $T237354[ebp], ecx
	push	0
	push	0
	push	0
	push	0
	push	0
	push	0
	push	OFFSET ?InfluenceAdd@@YAHPAVCvAStarNode@@0HPBXPAVCvAStar@@@Z ; InfluenceAdd
	push	OFFSET ?InfluenceValid@@YAHPAVCvAStarNode@@0HPBXPAVCvAStar@@@Z ; InfluenceValid
	push	OFFSET ?InfluenceCost@@YAHPAVCvAStarNode@@0HPBXPAVCvAStar@@@Z ; InfluenceCost
	push	OFFSET ?InfluenceHeuristic@@YAHHHHH@Z	; InfluenceHeuristic
	push	OFFSET ?InfluenceDestValid@@YAHHHPBXPAVCvAStar@@@Z ; InfluenceDestValid
	push	OFFSET ?PathDest@@YAHHHPBXPAVCvAStar@@@Z ; PathDest
	movzx	edx, BYTE PTR $T237342[ebp]
	push	edx
	movzx	eax, BYTE PTR $T237346[ebp]
	push	eax
	mov	ecx, DWORD PTR $T237350[ebp]
	push	ecx
	mov	edx, DWORD PTR $T237354[ebp]
	push	edx
	mov	ecx, OFFSET ?gGlobals@@3VCvGlobals@@A	; gGlobals
	call	?getInfluenceFinder@CvGlobals@@QAEAAVCvAStar@@XZ ; CvGlobals::getInfluenceFinder
	mov	ecx, eax
	call	?Initialize@CvAStar@@QAEXHH_N0P6AHHHPBXPAV1@@Z3P6AHHHHH@ZP6AHPAVCvAStarNode@@5H12@Z666P6AH52@ZP6AH5HAAH82@ZP6AX12@ZP6AX12@Z1@Z ; CvAStar::Initialize

; 534  : 	GC.GetBuildRouteFinder().Initialize(getGridWidth(), getGridHeight(), isWrapX(), isWrapY(), PathDest, NULL, NULL, BuildRouteCost, BuildRouteValid, NULL, NULL, NULL, NULL, NULL, NULL, NULL);

	mov	eax, DWORD PTR _this$[ebp]
	mov	cl, BYTE PTR [eax+4057]
	mov	BYTE PTR $T237358[ebp], cl
	mov	edx, DWORD PTR _this$[ebp]
	mov	al, BYTE PTR [edx+4056]
	mov	BYTE PTR $T237362[ebp], al
	mov	ecx, DWORD PTR _this$[ebp]
	mov	edx, DWORD PTR [ecx+4024]
	mov	DWORD PTR $T237366[ebp], edx
	mov	eax, DWORD PTR _this$[ebp]
	mov	ecx, DWORD PTR [eax+4020]
	mov	DWORD PTR $T237370[ebp], ecx
	push	0
	push	0
	push	0
	push	0
	push	0
	push	0
	push	0
	push	OFFSET ?BuildRouteValid@@YAHPAVCvAStarNode@@0HPBXPAVCvAStar@@@Z ; BuildRouteValid
	push	OFFSET ?BuildRouteCost@@YAHPAVCvAStarNode@@0HPBXPAVCvAStar@@@Z ; BuildRouteCost
	push	0
	push	0
	push	OFFSET ?PathDest@@YAHHHPBXPAVCvAStar@@@Z ; PathDest
	movzx	edx, BYTE PTR $T237358[ebp]
	push	edx
	movzx	eax, BYTE PTR $T237362[ebp]
	push	eax
	mov	ecx, DWORD PTR $T237366[ebp]
	push	ecx
	mov	edx, DWORD PTR $T237370[ebp]
	push	edx
	mov	ecx, OFFSET ?gGlobals@@3VCvGlobals@@A	; gGlobals
	call	?GetBuildRouteFinder@CvGlobals@@QAEAAVCvAStar@@XZ ; CvGlobals::GetBuildRouteFinder
	mov	ecx, eax
	call	?Initialize@CvAStar@@QAEXHH_N0P6AHHHPBXPAV1@@Z3P6AHHHHH@ZP6AHPAVCvAStarNode@@5H12@Z666P6AH52@ZP6AH5HAAH82@ZP6AX12@ZP6AX12@Z1@Z ; CvAStar::Initialize

; 535  : 	GC.GetInternationalTradeRouteLandFinder().Initialize(getGridWidth(), getGridHeight(), isWrapX(), isWrapY(), PathDest, NULL,	TradeRouteHeuristic, TradeRouteLandPathCost, TradeRouteLandValid, NULL, NULL, NULL, NULL, TradePathInitialize, TradePathUninitialize, NULL);

	mov	eax, DWORD PTR _this$[ebp]
	mov	cl, BYTE PTR [eax+4057]
	mov	BYTE PTR $T237374[ebp], cl
	mov	edx, DWORD PTR _this$[ebp]
	mov	al, BYTE PTR [edx+4056]
	mov	BYTE PTR $T237378[ebp], al
	mov	ecx, DWORD PTR _this$[ebp]
	mov	edx, DWORD PTR [ecx+4024]
	mov	DWORD PTR $T237382[ebp], edx
	mov	eax, DWORD PTR _this$[ebp]
	mov	ecx, DWORD PTR [eax+4020]
	mov	DWORD PTR $T237386[ebp], ecx
	push	0
	push	OFFSET ?TradePathUninitialize@@YAXPBXPAVCvAStar@@@Z ; TradePathUninitialize
	push	OFFSET ?TradePathInitialize@@YAXPBXPAVCvAStar@@@Z ; TradePathInitialize
	push	0
	push	0
	push	0
	push	0
	push	OFFSET ?TradeRouteLandValid@@YAHPAVCvAStarNode@@0HPBXPAVCvAStar@@@Z ; TradeRouteLandValid
	push	OFFSET ?TradeRouteLandPathCost@@YAHPAVCvAStarNode@@0HPBXPAVCvAStar@@@Z ; TradeRouteLandPathCost
	push	OFFSET ?TradeRouteHeuristic@@YAHHHHH@Z	; TradeRouteHeuristic
	push	0
	push	OFFSET ?PathDest@@YAHHHPBXPAVCvAStar@@@Z ; PathDest
	movzx	edx, BYTE PTR $T237374[ebp]
	push	edx
	movzx	eax, BYTE PTR $T237378[ebp]
	push	eax
	mov	ecx, DWORD PTR $T237382[ebp]
	push	ecx
	mov	edx, DWORD PTR $T237386[ebp]
	push	edx
	mov	ecx, OFFSET ?gGlobals@@3VCvGlobals@@A	; gGlobals
	call	?GetInternationalTradeRouteLandFinder@CvGlobals@@QAEAAVCvAStar@@XZ ; CvGlobals::GetInternationalTradeRouteLandFinder
	mov	ecx, eax
	call	?Initialize@CvAStar@@QAEXHH_N0P6AHHHPBXPAV1@@Z3P6AHHHHH@ZP6AHPAVCvAStarNode@@5H12@Z666P6AH52@ZP6AH5HAAH82@ZP6AX12@ZP6AX12@Z1@Z ; CvAStar::Initialize

; 536  : 	GC.GetInternationalTradeRouteWaterFinder().Initialize(getGridWidth(), getGridHeight(), isWrapX(), isWrapY(), PathDest, NULL, TradeRouteHeuristic, TradeRouteWaterPathCost, TradeRouteWaterValid, NULL, NULL, NULL, NULL, TradePathInitialize, TradePathUninitialize, NULL);

	mov	eax, DWORD PTR _this$[ebp]
	mov	cl, BYTE PTR [eax+4057]
	mov	BYTE PTR $T237390[ebp], cl
	mov	edx, DWORD PTR _this$[ebp]
	mov	al, BYTE PTR [edx+4056]
	mov	BYTE PTR $T237394[ebp], al
	mov	ecx, DWORD PTR _this$[ebp]
	mov	edx, DWORD PTR [ecx+4024]
	mov	DWORD PTR $T237398[ebp], edx
	mov	eax, DWORD PTR _this$[ebp]
	mov	ecx, DWORD PTR [eax+4020]
	mov	DWORD PTR $T237402[ebp], ecx
	push	0
	push	OFFSET ?TradePathUninitialize@@YAXPBXPAVCvAStar@@@Z ; TradePathUninitialize
	push	OFFSET ?TradePathInitialize@@YAXPBXPAVCvAStar@@@Z ; TradePathInitialize
	push	0
	push	0
	push	0
	push	0
	push	OFFSET ?TradeRouteWaterValid@@YAHPAVCvAStarNode@@0HPBXPAVCvAStar@@@Z ; TradeRouteWaterValid
	push	OFFSET ?TradeRouteWaterPathCost@@YAHPAVCvAStarNode@@0HPBXPAVCvAStar@@@Z ; TradeRouteWaterPathCost
	push	OFFSET ?TradeRouteHeuristic@@YAHHHHH@Z	; TradeRouteHeuristic
	push	0
	push	OFFSET ?PathDest@@YAHHHPBXPAVCvAStar@@@Z ; PathDest
	movzx	edx, BYTE PTR $T237390[ebp]
	push	edx
	movzx	eax, BYTE PTR $T237394[ebp]
	push	eax
	mov	ecx, DWORD PTR $T237398[ebp]
	push	ecx
	mov	edx, DWORD PTR $T237402[ebp]
	push	edx
	mov	ecx, OFFSET ?gGlobals@@3VCvGlobals@@A	; gGlobals
	call	?GetInternationalTradeRouteWaterFinder@CvGlobals@@QAEAAVCvAStar@@XZ ; CvGlobals::GetInternationalTradeRouteWaterFinder
	mov	ecx, eax
	call	?Initialize@CvAStar@@QAEXHH_N0P6AHHHPBXPAV1@@Z3P6AHHHHH@ZP6AHPAVCvAStarNode@@5H12@Z666P6AH52@ZP6AH5HAAH82@ZP6AX12@ZP6AX12@Z1@Z ; CvAStar::Initialize

; 537  : 	GC.GetTacticalAnalysisMapFinder().Initialize(getGridWidth(), getGridHeight(), isWrapX(), isWrapY(), PathDest, PathDestValid, PathHeuristic, PathCost, TacticalAnalysisMapPathValid, PathAdd, PathNodeAdd, UnitPathInitialize, UnitPathUninitialize, NULL);

	mov	eax, DWORD PTR _this$[ebp]
	mov	cl, BYTE PTR [eax+4057]
	mov	BYTE PTR $T237406[ebp], cl
	mov	edx, DWORD PTR _this$[ebp]
	mov	al, BYTE PTR [edx+4056]
	mov	BYTE PTR $T237410[ebp], al
	mov	ecx, DWORD PTR _this$[ebp]
	mov	edx, DWORD PTR [ecx+4024]
	mov	DWORD PTR $T237414[ebp], edx
	mov	eax, DWORD PTR _this$[ebp]
	mov	ecx, DWORD PTR [eax+4020]
	mov	DWORD PTR $T237418[ebp], ecx
	push	0
	push	OFFSET ?UnitPathUninitialize@@YAXPBXPAVCvAStar@@@Z ; UnitPathUninitialize
	push	OFFSET ?UnitPathInitialize@@YAXPBXPAVCvAStar@@@Z ; UnitPathInitialize
	push	OFFSET ?PathNodeAdd@@YAHPAVCvAStarNode@@0HPBXPAVCvAStar@@@Z ; PathNodeAdd
	push	OFFSET ?PathAdd@@YAHPAVCvAStarNode@@0HPBXPAVCvAStar@@@Z ; PathAdd
	push	OFFSET ?TacticalAnalysisMapPathValid@@YAHPAVCvAStarNode@@0HPBXPAVCvAStar@@@Z ; TacticalAnalysisMapPathValid
	push	OFFSET ?PathCost@@YAHPAVCvAStarNode@@0HPBXPAVCvAStar@@@Z ; PathCost
	push	OFFSET ?PathHeuristic@@YAHHHHH@Z	; PathHeuristic
	push	OFFSET ?PathDestValid@@YAHHHPBXPAVCvAStar@@@Z ; PathDestValid
	push	OFFSET ?PathDest@@YAHHHPBXPAVCvAStar@@@Z ; PathDest
	movzx	edx, BYTE PTR $T237406[ebp]
	push	edx
	movzx	eax, BYTE PTR $T237410[ebp]
	push	eax
	mov	ecx, DWORD PTR $T237414[ebp]
	push	ecx
	mov	edx, DWORD PTR $T237418[ebp]
	push	edx
	mov	ecx, OFFSET ?gGlobals@@3VCvGlobals@@A	; gGlobals
	call	?GetTacticalAnalysisMapFinder@CvGlobals@@QAEAAVCvTwoLayerPathFinder@@XZ ; CvGlobals::GetTacticalAnalysisMapFinder
	mov	ecx, eax
	call	?Initialize@CvTwoLayerPathFinder@@QAEXHH_N0P6AHHHPBXPAVCvAStar@@@Z3P6AHHHHH@ZP6AHPAVCvAStarNode@@5H12@Z666P6AX12@Z71@Z ; CvTwoLayerPathFinder::Initialize

; 538  : 	GC.GetTacticalAnalysisMapFinder().SetDataChangeInvalidatesCache(true);

	mov	ecx, OFFSET ?gGlobals@@3VCvGlobals@@A	; gGlobals
	call	?GetTacticalAnalysisMapFinder@CvGlobals@@QAEAAVCvTwoLayerPathFinder@@XZ ; CvGlobals::GetTacticalAnalysisMapFinder
	mov	DWORD PTR $T237423[ebp], eax
	mov	eax, DWORD PTR $T237423[ebp]
	mov	cl, BYTE PTR [eax+80]
	mov	BYTE PTR _bOldState$237422[ebp], cl
	mov	edx, DWORD PTR $T237423[ebp]
	mov	BYTE PTR [edx+80], 1

; 539  : }

	mov	esp, ebp
	pop	ebp
	ret	0
?setup@CvMap@@IAEXXZ ENDP				; CvMap::setup
_TEXT	ENDS
PUBLIC	?setupGraphical@CvMap@@QAEXXZ			; CvMap::setupGraphical
EXTRN	?setupGraphical@CvPlot@@QAEXXZ:PROC		; CvPlot::setupGraphical
EXTRN	?IsGraphicsInitialized@CvGlobals@@QBE_NXZ:PROC	; CvGlobals::IsGraphicsInitialized
; Function compile flags: /Odtp
;	COMDAT ?setupGraphical@CvMap@@QAEXXZ
_TEXT	SEGMENT
_this$ = -12						; size = 4
$T237429 = -8						; size = 4
_iI$234908 = -4						; size = 4
?setupGraphical@CvMap@@QAEXXZ PROC			; CvMap::setupGraphical, COMDAT
; _this$ = ecx

; 546  : {

	push	ebp
	mov	ebp, esp
	sub	esp, 12					; 0000000cH
	mov	DWORD PTR _this$[ebp], ecx

; 547  : 	if(!GC.IsGraphicsInitialized())

	mov	ecx, OFFSET ?gGlobals@@3VCvGlobals@@A	; gGlobals
	call	?IsGraphicsInitialized@CvGlobals@@QBE_NXZ ; CvGlobals::IsGraphicsInitialized
	movzx	eax, al
	test	eax, eax
	jne	SHORT $LN5@setupGraph

; 548  : 		return;

	jmp	SHORT $LN6@setupGraph
$LN5@setupGraph:

; 549  : 
; 550  : 	if(m_pMapPlots != NULL)

	mov	ecx, DWORD PTR _this$[ebp]
	cmp	DWORD PTR [ecx+4068], 0
	je	SHORT $LN6@setupGraph

; 551  : 	{
; 552  : #if defined(AUI_WARNING_FIXES) && defined(AUI_USE_OPENMP)
; 553  : #pragma omp parallel for
; 554  : 		for (int iI = 0; iI < (int)numPlots(); iI++)
; 555  : #elif defined(AUI_WARNING_FIXES)
; 556  : 		for (uint iI = 0; iI < numPlots(); iI++)
; 557  : #elif defined (AUI_USE_OPENMP)
; 558  : #pragma omp parallel for
; 559  : 		for (int iI = 0; iI < numPlots(); iI++)
; 560  : #else
; 561  : 		int iI;
; 562  : 		for(iI = 0; iI < numPlots(); iI++)

	mov	DWORD PTR _iI$234908[ebp], 0
	jmp	SHORT $LN3@setupGraph
$LN2@setupGraph:
	mov	edx, DWORD PTR _iI$234908[ebp]
	add	edx, 1
	mov	DWORD PTR _iI$234908[ebp], edx
$LN3@setupGraph:
	mov	eax, DWORD PTR _this$[ebp]
	mov	ecx, DWORD PTR [eax+4028]
	mov	DWORD PTR $T237429[ebp], ecx
	mov	edx, DWORD PTR _iI$234908[ebp]
	cmp	edx, DWORD PTR $T237429[ebp]
	jge	SHORT $LN6@setupGraph

; 563  : #endif
; 564  : 		{
; 565  : 			plotByIndexUnchecked(iI)->setupGraphical();

	mov	ecx, DWORD PTR _iI$234908[ebp]
	imul	ecx, 484				; 000001e4H
	mov	eax, DWORD PTR _this$[ebp]
	add	ecx, DWORD PTR [eax+4068]
	call	?setupGraphical@CvPlot@@QAEXXZ		; CvPlot::setupGraphical

; 566  : 		}

	jmp	SHORT $LN2@setupGraph
$LN6@setupGraph:

; 567  : 	}
; 568  : }

	mov	esp, ebp
	pop	ebp
	ret	0
?setupGraphical@CvMap@@QAEXXZ ENDP			; CvMap::setupGraphical
_TEXT	ENDS
PUBLIC	?erasePlots@CvMap@@QAEXXZ			; CvMap::erasePlots
EXTRN	?erase@CvPlot@@QAEX_N@Z:PROC			; CvPlot::erase
; Function compile flags: /Odtp
;	COMDAT ?erasePlots@CvMap@@QAEXXZ
_TEXT	SEGMENT
_this$ = -12						; size = 4
$T237438 = -8						; size = 4
_iI$ = -4						; size = 4
?erasePlots@CvMap@@QAEXXZ PROC				; CvMap::erasePlots, COMDAT
; _this$ = ecx

; 573  : {

	push	ebp
	mov	ebp, esp
	sub	esp, 12					; 0000000cH
	mov	DWORD PTR _this$[ebp], ecx

; 574  : #ifdef AUI_WARNING_FIXES
; 575  : 	for (uint iI = 0; iI < numPlots(); iI++)
; 576  : #else
; 577  : 	int iI;
; 578  : 
; 579  : 	for(iI = 0; iI < numPlots(); iI++)

	mov	DWORD PTR _iI$[ebp], 0
	jmp	SHORT $LN3@erasePlots
$LN2@erasePlots:
	mov	eax, DWORD PTR _iI$[ebp]
	add	eax, 1
	mov	DWORD PTR _iI$[ebp], eax
$LN3@erasePlots:
	mov	ecx, DWORD PTR _this$[ebp]
	mov	edx, DWORD PTR [ecx+4028]
	mov	DWORD PTR $T237438[ebp], edx
	mov	eax, DWORD PTR _iI$[ebp]
	cmp	eax, DWORD PTR $T237438[ebp]
	jge	SHORT $LN4@erasePlots

; 580  : #endif
; 581  : 	{
; 582  : 		plotByIndexUnchecked(iI)->erase(true/*bEraseUnitsIfWater*/);

	push	1
	mov	ecx, DWORD PTR _iI$[ebp]
	imul	ecx, 484				; 000001e4H
	mov	edx, DWORD PTR _this$[ebp]
	add	ecx, DWORD PTR [edx+4068]
	call	?erase@CvPlot@@QAEX_N@Z			; CvPlot::erase
	jmp	SHORT $LN2@erasePlots
$LN4@erasePlots:

; 583  : 	}
; 584  : }

	mov	esp, ebp
	pop	ebp
	ret	0
?erasePlots@CvMap@@QAEXXZ ENDP				; CvMap::erasePlots
_TEXT	ENDS
PUBLIC	?setRevealedPlots@CvMap@@QAEXW4TeamTypes@@_N1@Z	; CvMap::setRevealedPlots
EXTRN	?setRevealed@CvPlot@@QAE_NW4TeamTypes@@_N10@Z:PROC ; CvPlot::setRevealed
; Function compile flags: /Odtp
;	COMDAT ?setRevealedPlots@CvMap@@QAEXW4TeamTypes@@_N1@Z
_TEXT	SEGMENT
_this$ = -12						; size = 4
$T237447 = -8						; size = 4
_iI$ = -4						; size = 4
_eTeam$ = 8						; size = 4
_bNewValue$ = 12					; size = 1
_bTerrainOnly$ = 16					; size = 1
?setRevealedPlots@CvMap@@QAEXW4TeamTypes@@_N1@Z PROC	; CvMap::setRevealedPlots, COMDAT
; _this$ = ecx

; 589  : {

	push	ebp
	mov	ebp, esp
	sub	esp, 12					; 0000000cH
	mov	DWORD PTR _this$[ebp], ecx

; 590  : #ifdef AUI_WARNING_FIXES
; 591  : 	for (uint iI = 0; iI < numPlots(); iI++)
; 592  : #else
; 593  : 	int iI;
; 594  : 
; 595  : 	for(iI = 0; iI < numPlots(); iI++)

	mov	DWORD PTR _iI$[ebp], 0
	jmp	SHORT $LN3@setReveale
$LN2@setReveale:
	mov	eax, DWORD PTR _iI$[ebp]
	add	eax, 1
	mov	DWORD PTR _iI$[ebp], eax
$LN3@setReveale:
	mov	ecx, DWORD PTR _this$[ebp]
	mov	edx, DWORD PTR [ecx+4028]
	mov	DWORD PTR $T237447[ebp], edx
	mov	eax, DWORD PTR _iI$[ebp]
	cmp	eax, DWORD PTR $T237447[ebp]
	jge	SHORT $LN4@setReveale

; 596  : #endif
; 597  : 	{
; 598  : 		plotByIndexUnchecked(iI)->setRevealed(eTeam, bNewValue, bTerrainOnly);

	push	-1
	movzx	ecx, BYTE PTR _bTerrainOnly$[ebp]
	push	ecx
	movzx	edx, BYTE PTR _bNewValue$[ebp]
	push	edx
	mov	eax, DWORD PTR _eTeam$[ebp]
	push	eax
	mov	ecx, DWORD PTR _iI$[ebp]
	imul	ecx, 484				; 000001e4H
	mov	edx, DWORD PTR _this$[ebp]
	add	ecx, DWORD PTR [edx+4068]
	call	?setRevealed@CvPlot@@QAE_NW4TeamTypes@@_N10@Z ; CvPlot::setRevealed
	jmp	SHORT $LN2@setReveale
$LN4@setReveale:

; 599  : 	}
; 600  : }

	mov	esp, ebp
	pop	ebp
	ret	12					; 0000000cH
?setRevealedPlots@CvMap@@QAEXW4TeamTypes@@_N1@Z ENDP	; CvMap::setRevealedPlots
_TEXT	ENDS
PUBLIC	?recalculateAreas@CvMap@@QAEXXZ			; CvMap::recalculateAreas
PUBLIC	?setAllPlotTypes@CvMap@@QAEXW4PlotTypes@@@Z	; CvMap::setAllPlotTypes
EXTRN	?setPlotType@CvPlot@@QAEXW4PlotTypes@@_N11@Z:PROC ; CvPlot::setPlotType
; Function compile flags: /Odtp
;	COMDAT ?setAllPlotTypes@CvMap@@QAEXW4PlotTypes@@@Z
_TEXT	SEGMENT
_this$ = -12						; size = 4
$T237456 = -8						; size = 4
_i$234933 = -4						; size = 4
_ePlotType$ = 8						; size = 4
?setAllPlotTypes@CvMap@@QAEXW4PlotTypes@@@Z PROC	; CvMap::setAllPlotTypes, COMDAT
; _this$ = ecx

; 605  : {

	push	ebp
	mov	ebp, esp
	sub	esp, 12					; 0000000cH
	mov	DWORD PTR _this$[ebp], ecx

; 606  : 
; 607  : #ifdef AUI_WARNING_FIXES
; 608  : 	for (uint i = 0; i < numPlots(); i++)
; 609  : #else
; 610  : 	for(int i=0; i<numPlots(); i++)

	mov	DWORD PTR _i$234933[ebp], 0
	jmp	SHORT $LN3@setAllPlot
$LN2@setAllPlot:
	mov	eax, DWORD PTR _i$234933[ebp]
	add	eax, 1
	mov	DWORD PTR _i$234933[ebp], eax
$LN3@setAllPlot:
	mov	ecx, DWORD PTR _this$[ebp]
	mov	edx, DWORD PTR [ecx+4028]
	mov	DWORD PTR $T237456[ebp], edx
	mov	eax, DWORD PTR _i$234933[ebp]
	cmp	eax, DWORD PTR $T237456[ebp]
	jge	SHORT $LN1@setAllPlot

; 611  : #endif
; 612  : 	{
; 613  : 		plotByIndexUnchecked(i)->setPlotType(ePlotType, false, false);

	push	1
	push	0
	push	0
	mov	ecx, DWORD PTR _ePlotType$[ebp]
	push	ecx
	mov	ecx, DWORD PTR _i$234933[ebp]
	imul	ecx, 484				; 000001e4H
	mov	edx, DWORD PTR _this$[ebp]
	add	ecx, DWORD PTR [edx+4068]
	call	?setPlotType@CvPlot@@QAEXW4PlotTypes@@_N11@Z ; CvPlot::setPlotType

; 614  : 	}

	jmp	SHORT $LN2@setAllPlot
$LN1@setAllPlot:

; 615  : 
; 616  : 	recalculateAreas();

	mov	ecx, DWORD PTR _this$[ebp]
	call	?recalculateAreas@CvMap@@QAEXXZ		; CvMap::recalculateAreas

; 617  : }

	mov	esp, ebp
	pop	ebp
	ret	4
?setAllPlotTypes@CvMap@@QAEXW4PlotTypes@@@Z ENDP	; CvMap::setAllPlotTypes
_TEXT	ENDS
PUBLIC	?doTurn@CvMap@@QAEXXZ				; CvMap::doTurn
EXTRN	?doTurn@CvPlot@@QAEXXZ:PROC			; CvPlot::doTurn
; Function compile flags: /Odtp
;	COMDAT ?doTurn@CvMap@@QAEXXZ
_TEXT	SEGMENT
_this$ = -12						; size = 4
$T237465 = -8						; size = 4
_iI$ = -4						; size = 4
?doTurn@CvMap@@QAEXXZ PROC				; CvMap::doTurn, COMDAT
; _this$ = ecx

; 622  : {

	push	ebp
	mov	ebp, esp
	sub	esp, 12					; 0000000cH
	mov	DWORD PTR _this$[ebp], ecx

; 623  : #ifdef AUI_WARNING_FIXES
; 624  : 	for (uint iI = 0; iI < numPlots(); iI++)
; 625  : #else
; 626  : 	int iI;
; 627  : 
; 628  : 	for(iI = 0; iI < numPlots(); iI++)

	mov	DWORD PTR _iI$[ebp], 0
	jmp	SHORT $LN3@doTurn
$LN2@doTurn:
	mov	eax, DWORD PTR _iI$[ebp]
	add	eax, 1
	mov	DWORD PTR _iI$[ebp], eax
$LN3@doTurn:
	mov	ecx, DWORD PTR _this$[ebp]
	mov	edx, DWORD PTR [ecx+4028]
	mov	DWORD PTR $T237465[ebp], edx
	mov	eax, DWORD PTR _iI$[ebp]
	cmp	eax, DWORD PTR $T237465[ebp]
	jge	SHORT $LN4@doTurn

; 629  : #endif
; 630  : 	{
; 631  : 		plotByIndexUnchecked(iI)->doTurn();

	mov	ecx, DWORD PTR _iI$[ebp]
	imul	ecx, 484				; 000001e4H
	mov	edx, DWORD PTR _this$[ebp]
	add	ecx, DWORD PTR [edx+4068]
	call	?doTurn@CvPlot@@QAEXXZ			; CvPlot::doTurn
	jmp	SHORT $LN2@doTurn
$LN4@doTurn:

; 632  : 	}
; 633  : }

	mov	esp, ebp
	pop	ebp
	ret	0
?doTurn@CvMap@@QAEXXZ ENDP				; CvMap::doTurn
_TEXT	ENDS
PUBLIC	?updateFog@CvMap@@QAEXXZ			; CvMap::updateFog
EXTRN	?updateFog@CvPlot@@QAEX_N@Z:PROC		; CvPlot::updateFog
; Function compile flags: /Odtp
;	COMDAT ?updateFog@CvMap@@QAEXXZ
_TEXT	SEGMENT
_this$ = -12						; size = 4
$T237474 = -8						; size = 4
_iI$ = -4						; size = 4
?updateFog@CvMap@@QAEXXZ PROC				; CvMap::updateFog, COMDAT
; _this$ = ecx

; 638  : {

	push	ebp
	mov	ebp, esp
	sub	esp, 12					; 0000000cH
	mov	DWORD PTR _this$[ebp], ecx

; 639  : #if defined(AUI_WARNING_FIXES) && defined(AUI_USE_OPENMP)
; 640  : #pragma omp parallel for
; 641  : 	for (int iI = 0; iI < (int)numPlots(); iI++)
; 642  : #elif defined(AUI_WARNING_FIXES)
; 643  : 	for (uint iI = 0; iI < numPlots(); iI++)
; 644  : #elif defined(AUI_USE_OPENMP)
; 645  : #pragma omp parallel for
; 646  : 	for (int iI = 0; iI < numPlots(); iI++)
; 647  : #else
; 648  : 	int iI;
; 649  : 
; 650  : 	for(iI = 0; iI < numPlots(); iI++)

	mov	DWORD PTR _iI$[ebp], 0
	jmp	SHORT $LN3@updateFog
$LN2@updateFog:
	mov	eax, DWORD PTR _iI$[ebp]
	add	eax, 1
	mov	DWORD PTR _iI$[ebp], eax
$LN3@updateFog:
	mov	ecx, DWORD PTR _this$[ebp]
	mov	edx, DWORD PTR [ecx+4028]
	mov	DWORD PTR $T237474[ebp], edx
	mov	eax, DWORD PTR _iI$[ebp]
	cmp	eax, DWORD PTR $T237474[ebp]
	jge	SHORT $LN4@updateFog

; 651  : #endif
; 652  : 	{
; 653  : 		plotByIndexUnchecked(iI)->updateFog();

	push	0
	mov	ecx, DWORD PTR _iI$[ebp]
	imul	ecx, 484				; 000001e4H
	mov	edx, DWORD PTR _this$[ebp]
	add	ecx, DWORD PTR [edx+4068]
	call	?updateFog@CvPlot@@QAEX_N@Z		; CvPlot::updateFog
	jmp	SHORT $LN2@updateFog
$LN4@updateFog:

; 654  : 	}
; 655  : }

	mov	esp, ebp
	pop	ebp
	ret	0
?updateFog@CvMap@@QAEXXZ ENDP				; CvMap::updateFog
_TEXT	ENDS
PUBLIC	?updateDeferredFog@CvMap@@QAEXXZ		; CvMap::updateDeferredFog
; Function compile flags: /Odtp
;	COMDAT ?updateDeferredFog@CvMap@@QAEXXZ
_TEXT	SEGMENT
_this$ = -20						; size = 4
$T237505 = -16						; size = 4
_i$237500 = -12						; size = 4
$T237483 = -8						; size = 4
_uiI$234954 = -4					; size = 4
?updateDeferredFog@CvMap@@QAEXXZ PROC			; CvMap::updateDeferredFog, COMDAT
; _this$ = ecx

; 660  : {

	push	ebp
	mov	ebp, esp
	sub	esp, 20					; 00000014H
	mov	DWORD PTR _this$[ebp], ecx

; 661  : 	for(uint uiI=0; uiI < m_vDeferredFogPlots.size(); uiI++)

	mov	DWORD PTR _uiI$234954[ebp], 0
	jmp	SHORT $LN3@updateDefe
$LN2@updateDefe:
	mov	eax, DWORD PTR _uiI$234954[ebp]
	add	eax, 1
	mov	DWORD PTR _uiI$234954[ebp], eax
$LN3@updateDefe:
	mov	ecx, DWORD PTR _this$[ebp]
	mov	edx, DWORD PTR [ecx+8]
	mov	DWORD PTR $T237483[ebp], edx
	mov	eax, DWORD PTR _uiI$234954[ebp]
	cmp	eax, DWORD PTR $T237483[ebp]
	jae	SHORT $LN1@updateDefe

; 662  : 	{
; 663  : 		m_vDeferredFogPlots[uiI]->updateFog();

	push	0
	mov	ecx, DWORD PTR _this$[ebp]
	mov	edx, DWORD PTR [ecx+4]
	mov	eax, DWORD PTR _uiI$234954[ebp]
	mov	ecx, DWORD PTR [edx+eax*4]
	call	?updateFog@CvPlot@@QAEX_N@Z		; CvPlot::updateFog

; 664  : 	}

	jmp	SHORT $LN2@updateDefe
$LN1@updateDefe:

; 665  : 	m_vDeferredFogPlots.clear();

	mov	ecx, DWORD PTR _this$[ebp]
	add	ecx, 4
	mov	DWORD PTR $T237505[ebp], ecx
	xor	edx, edx
	je	SHORT $LN16@updateDefe
	mov	DWORD PTR _i$237500[ebp], 0
	jmp	SHORT $LN14@updateDefe
$LN13@updateDefe:
	mov	eax, DWORD PTR _i$237500[ebp]
	add	eax, 1
	mov	DWORD PTR _i$237500[ebp], eax
$LN14@updateDefe:
	mov	ecx, DWORD PTR $T237505[ebp]
	mov	edx, DWORD PTR _i$237500[ebp]
	cmp	edx, DWORD PTR [ecx+4]
	jae	SHORT $LN16@updateDefe
	jmp	SHORT $LN13@updateDefe
$LN16@updateDefe:
	mov	eax, DWORD PTR $T237505[ebp]
	mov	DWORD PTR [eax+4], 0

; 666  : }

	mov	esp, ebp
	pop	ebp
	ret	0
?updateDeferredFog@CvMap@@QAEXXZ ENDP			; CvMap::updateDeferredFog
_TEXT	ENDS
PUBLIC	?updateVisibility@CvMap@@QAEXXZ			; CvMap::updateVisibility
EXTRN	?updateVisibility@CvPlot@@QAEXXZ:PROC		; CvPlot::updateVisibility
; Function compile flags: /Odtp
;	COMDAT ?updateVisibility@CvMap@@QAEXXZ
_TEXT	SEGMENT
_this$ = -12						; size = 4
$T237511 = -8						; size = 4
_iI$ = -4						; size = 4
?updateVisibility@CvMap@@QAEXXZ PROC			; CvMap::updateVisibility, COMDAT
; _this$ = ecx

; 671  : {

	push	ebp
	mov	ebp, esp
	sub	esp, 12					; 0000000cH
	mov	DWORD PTR _this$[ebp], ecx

; 672  : #if defined(AUI_WARNING_FIXES) && defined(AUI_USE_OPENMP)
; 673  : #pragma omp parallel for
; 674  : 	for (int iI = 0; iI < (int)numPlots(); iI++)
; 675  : #elif defined(AUI_WARNING_FIXES)
; 676  : 	for (uint iI = 0; iI < numPlots(); iI++)
; 677  : #elif defined(AUI_USE_OPENMP)
; 678  : #pragma omp parallel for
; 679  : 	for (int iI = 0; iI < numPlots(); iI++)
; 680  : #else
; 681  : 	int iI;
; 682  : 
; 683  : 	for(iI = 0; iI < numPlots(); iI++)

	mov	DWORD PTR _iI$[ebp], 0
	jmp	SHORT $LN3@updateVisi
$LN2@updateVisi:
	mov	eax, DWORD PTR _iI$[ebp]
	add	eax, 1
	mov	DWORD PTR _iI$[ebp], eax
$LN3@updateVisi:
	mov	ecx, DWORD PTR _this$[ebp]
	mov	edx, DWORD PTR [ecx+4028]
	mov	DWORD PTR $T237511[ebp], edx
	mov	eax, DWORD PTR _iI$[ebp]
	cmp	eax, DWORD PTR $T237511[ebp]
	jge	SHORT $LN4@updateVisi

; 684  : #endif
; 685  : 	{
; 686  : 		plotByIndexUnchecked(iI)->updateVisibility();

	mov	ecx, DWORD PTR _iI$[ebp]
	imul	ecx, 484				; 000001e4H
	mov	edx, DWORD PTR _this$[ebp]
	add	ecx, DWORD PTR [edx+4068]
	call	?updateVisibility@CvPlot@@QAEXXZ	; CvPlot::updateVisibility
	jmp	SHORT $LN2@updateVisi
$LN4@updateVisi:

; 687  : 	}
; 688  : }

	mov	esp, ebp
	pop	ebp
	ret	0
?updateVisibility@CvMap@@QAEXXZ ENDP			; CvMap::updateVisibility
_TEXT	ENDS
PUBLIC	?updateLayout@CvMap@@QAEX_N@Z			; CvMap::updateLayout
EXTRN	?setLayoutDirty@CvPlot@@QAEX_N@Z:PROC		; CvPlot::setLayoutDirty
EXTRN	?updateLayout@CvPlot@@QAEX_N@Z:PROC		; CvPlot::updateLayout
EXTRN	?isLayoutDirty@CvPlot@@QBE_NXZ:PROC		; CvPlot::isLayoutDirty
; Function compile flags: /Odtp
;	COMDAT ?updateLayout@CvMap@@QAEX_N@Z
_TEXT	SEGMENT
tv87 = -24						; size = 4
_this$ = -20						; size = 4
$T237527 = -16						; size = 4
$T237520 = -12						; size = 4
_pThisPlot$234973 = -8					; size = 4
_iI$234969 = -4						; size = 4
_bDebug$ = 8						; size = 1
?updateLayout@CvMap@@QAEX_N@Z PROC			; CvMap::updateLayout, COMDAT
; _this$ = ecx

; 692  : {

	push	ebp
	mov	ebp, esp
	sub	esp, 24					; 00000018H
	mov	DWORD PTR _this$[ebp], ecx

; 693  : #ifdef AUI_WARNING_FIXES
; 694  : 	for (uint iI = 0; iI < numPlots(); iI++)
; 695  : #else
; 696  : 	for(int iI = 0; iI < numPlots(); iI++)

	mov	DWORD PTR _iI$234969[ebp], 0
	jmp	SHORT $LN4@updateLayo
$LN3@updateLayo:
	mov	eax, DWORD PTR _iI$234969[ebp]
	add	eax, 1
	mov	DWORD PTR _iI$234969[ebp], eax
$LN4@updateLayo:
	mov	ecx, DWORD PTR _this$[ebp]
	mov	edx, DWORD PTR [ecx+4028]
	mov	DWORD PTR $T237520[ebp], edx
	mov	eax, DWORD PTR _iI$234969[ebp]
	cmp	eax, DWORD PTR $T237520[ebp]
	jge	SHORT $LN2@updateLayo

; 697  : #endif
; 698  : 	{
; 699  : 		CvPlot* pThisPlot = plotByIndexUnchecked(iI);

	mov	ecx, DWORD PTR _iI$234969[ebp]
	imul	ecx, 484				; 000001e4H
	mov	edx, DWORD PTR _this$[ebp]
	add	ecx, DWORD PTR [edx+4068]
	mov	DWORD PTR _pThisPlot$234973[ebp], ecx

; 700  : 		if(pThisPlot && pThisPlot->isLayoutDirty())

	je	SHORT $LN1@updateLayo
	mov	ecx, DWORD PTR _pThisPlot$234973[ebp]
	call	?isLayoutDirty@CvPlot@@QBE_NXZ		; CvPlot::isLayoutDirty
	movzx	eax, al
	test	eax, eax
	je	SHORT $LN1@updateLayo

; 701  : 		{
; 702  : 			pThisPlot->updateLayout(bDebug);

	movzx	ecx, BYTE PTR _bDebug$[ebp]
	push	ecx
	mov	ecx, DWORD PTR _pThisPlot$234973[ebp]
	call	?updateLayout@CvPlot@@QAEX_N@Z		; CvPlot::updateLayout

; 703  : 			pThisPlot->setLayoutDirty(false);

	push	0
	mov	ecx, DWORD PTR _pThisPlot$234973[ebp]
	call	?setLayoutDirty@CvPlot@@QAEX_N@Z	; CvPlot::setLayoutDirty
$LN1@updateLayo:

; 704  : 		}
; 705  : 	}

	jmp	SHORT $LN3@updateLayo
$LN2@updateLayo:

; 706  : 	DLLUI->setDirty(PlotData_DIRTY_BIT,false);

	mov	edx, DWORD PTR $T237527[ebp]
	mov	DWORD PTR tv87[ebp], edx
	mov	eax, DWORD PTR ?gGlobals@@3VCvGlobals@@A+8568
	mov	DWORD PTR tv87[ebp], eax
	push	0
	push	33					; 00000021H
	mov	ecx, DWORD PTR tv87[ebp]
	mov	edx, DWORD PTR [ecx]
	mov	ecx, DWORD PTR tv87[ebp]
	mov	eax, DWORD PTR [edx+260]
	call	eax

; 707  : }

	mov	esp, ebp
	pop	ebp
	ret	4
?updateLayout@CvMap@@QAEX_N@Z ENDP			; CvMap::updateLayout
_TEXT	ENDS
PUBLIC	?updateSight@CvMap@@QAEX_N@Z			; CvMap::updateSight
EXTRN	?updateSight@CvPlot@@QAEX_N@Z:PROC		; CvPlot::updateSight
; Function compile flags: /Odtp
;	COMDAT ?updateSight@CvMap@@QAEX_N@Z
_TEXT	SEGMENT
_this$ = -12						; size = 4
$T237533 = -8						; size = 4
_iI$ = -4						; size = 4
_bIncrement$ = 8					; size = 1
?updateSight@CvMap@@QAEX_N@Z PROC			; CvMap::updateSight, COMDAT
; _this$ = ecx

; 711  : {

	push	ebp
	mov	ebp, esp
	sub	esp, 12					; 0000000cH
	mov	DWORD PTR _this$[ebp], ecx

; 712  : #ifdef AUI_WARNING_FIXES
; 713  : 	for (uint iI = 0; iI < numPlots(); iI++)
; 714  : #else
; 715  : 	int iI;
; 716  : 
; 717  : 	for(iI = 0; iI < numPlots(); iI++)

	mov	DWORD PTR _iI$[ebp], 0
	jmp	SHORT $LN3@updateSigh
$LN2@updateSigh:
	mov	eax, DWORD PTR _iI$[ebp]
	add	eax, 1
	mov	DWORD PTR _iI$[ebp], eax
$LN3@updateSigh:
	mov	ecx, DWORD PTR _this$[ebp]
	mov	edx, DWORD PTR [ecx+4028]
	mov	DWORD PTR $T237533[ebp], edx
	mov	eax, DWORD PTR _iI$[ebp]
	cmp	eax, DWORD PTR $T237533[ebp]
	jge	SHORT $LN4@updateSigh

; 718  : #endif
; 719  : 	{
; 720  : 		plotByIndexUnchecked(iI)->updateSight(bIncrement);

	movzx	ecx, BYTE PTR _bIncrement$[ebp]
	push	ecx
	mov	ecx, DWORD PTR _iI$[ebp]
	imul	ecx, 484				; 000001e4H
	mov	edx, DWORD PTR _this$[ebp]
	add	ecx, DWORD PTR [edx+4068]
	call	?updateSight@CvPlot@@QAEX_N@Z		; CvPlot::updateSight
	jmp	SHORT $LN2@updateSigh
$LN4@updateSigh:

; 721  : 	}
; 722  : }

	mov	esp, ebp
	pop	ebp
	ret	4
?updateSight@CvMap@@QAEX_N@Z ENDP			; CvMap::updateSight
_TEXT	ENDS
PUBLIC	?updateCenterUnit@CvMap@@QAEXXZ			; CvMap::updateCenterUnit
EXTRN	?updateCenterUnit@CvPlot@@QAEXXZ:PROC		; CvPlot::updateCenterUnit
; Function compile flags: /Odtp
;	COMDAT ?updateCenterUnit@CvMap@@QAEXXZ
_TEXT	SEGMENT
_this$ = -12						; size = 4
$T237542 = -8						; size = 4
_iI$ = -4						; size = 4
?updateCenterUnit@CvMap@@QAEXXZ PROC			; CvMap::updateCenterUnit, COMDAT
; _this$ = ecx

; 727  : {

	push	ebp
	mov	ebp, esp
	sub	esp, 12					; 0000000cH
	mov	DWORD PTR _this$[ebp], ecx

; 728  : #if defined(AUI_WARNING_FIXES) && defined(AUI_USE_OPENMP)
; 729  : #pragma omp parallel for
; 730  : 	for (int iI = 0; iI < (int)numPlots(); iI++)
; 731  : #elif defined(AUI_WARNING_FIXES)
; 732  : 	for (uint iI = 0; iI < numPlots(); iI++)
; 733  : #elif defined(AUI_USE_OPENMP)
; 734  : #pragma omp parallel for
; 735  : 	for (int iI = 0; iI < numPlots(); iI++)
; 736  : #else
; 737  : 	int iI;
; 738  : 
; 739  : 	for(iI = 0; iI < numPlots(); iI++)

	mov	DWORD PTR _iI$[ebp], 0
	jmp	SHORT $LN3@updateCent
$LN2@updateCent:
	mov	eax, DWORD PTR _iI$[ebp]
	add	eax, 1
	mov	DWORD PTR _iI$[ebp], eax
$LN3@updateCent:
	mov	ecx, DWORD PTR _this$[ebp]
	mov	edx, DWORD PTR [ecx+4028]
	mov	DWORD PTR $T237542[ebp], edx
	mov	eax, DWORD PTR _iI$[ebp]
	cmp	eax, DWORD PTR $T237542[ebp]
	jge	SHORT $LN4@updateCent

; 740  : #endif
; 741  : 	{
; 742  : 		plotByIndexUnchecked(iI)->updateCenterUnit();

	mov	ecx, DWORD PTR _iI$[ebp]
	imul	ecx, 484				; 000001e4H
	mov	edx, DWORD PTR _this$[ebp]
	add	ecx, DWORD PTR [edx+4068]
	call	?updateCenterUnit@CvPlot@@QAEXXZ	; CvPlot::updateCenterUnit
	jmp	SHORT $LN2@updateCent
$LN4@updateCent:

; 743  : 	}
; 744  : }

	mov	esp, ebp
	pop	ebp
	ret	0
?updateCenterUnit@CvMap@@QAEXXZ ENDP			; CvMap::updateCenterUnit
_TEXT	ENDS
PUBLIC	?plotXYWithRangeCheck@@YAPAVCvPlot@@HHHHH@Z	; plotXYWithRangeCheck
PUBLIC	?updateWorkingCity@CvMap@@QAEXPAVCvPlot@@H@Z	; CvMap::updateWorkingCity
EXTRN	?updateWorkingCity@CvPlot@@QAEXXZ:PROC		; CvPlot::updateWorkingCity
; Function compile flags: /Odtp
;	COMDAT ?updateWorkingCity@CvMap@@QAEXPAVCvPlot@@H@Z
_TEXT	SEGMENT
_this$ = -108						; size = 4
$T237691 = -104						; size = 4
$T237555 = -24						; size = 4
$T237551 = -20						; size = 4
_iI$235007 = -16					; size = 4
_pLoopPlot$235004 = -12					; size = 4
_iY$235000 = -8						; size = 4
_iX$234996 = -4						; size = 4
_pPlot$ = 8						; size = 4
_iRange$ = 12						; size = 4
?updateWorkingCity@CvMap@@QAEXPAVCvPlot@@H@Z PROC	; CvMap::updateWorkingCity, COMDAT
; _this$ = ecx

; 749  : {

	push	ebp
	mov	ebp, esp
	sub	esp, 108				; 0000006cH
	mov	DWORD PTR _this$[ebp], ecx

; 750  : 	if(pPlot && iRange > 0)

	cmp	DWORD PTR _pPlot$[ebp], 0
	je	$LN12@updateWork
	cmp	DWORD PTR _iRange$[ebp], 0
	jle	SHORT $LN12@updateWork

; 751  : 	{
; 752  : #ifdef AUI_HEXSPACE_DX_LOOPS
; 753  : 		int iMaxDX, iDX;
; 754  : 		CvPlot* pLoopPlot;
; 755  : 		for (int iDY = -iRange; iDY <= iRange; iDY++)
; 756  : 		{
; 757  : 			iMaxDX = iRange - MAX(0, iDY);
; 758  : 			for (iDX = -iRange - MIN(0, iDY); iDX <= iMaxDX; iDX++) // MIN() and MAX() stuff is to reduce loops (hexspace!)
; 759  : 			{
; 760  : 				// No need for range check because loops are set up properly
; 761  : 				pLoopPlot = plotXY(pPlot->getX(), pPlot->getY(), iDX, iDY);
; 762  : #else
; 763  : 		for(int iX = -iRange; iX <= iRange; iX++)

	mov	eax, DWORD PTR _iRange$[ebp]
	neg	eax
	mov	DWORD PTR _iX$234996[ebp], eax
	jmp	SHORT $LN11@updateWork
$LN10@updateWork:
	mov	ecx, DWORD PTR _iX$234996[ebp]
	add	ecx, 1
	mov	DWORD PTR _iX$234996[ebp], ecx
$LN11@updateWork:
	mov	edx, DWORD PTR _iX$234996[ebp]
	cmp	edx, DWORD PTR _iRange$[ebp]
	jg	SHORT $LN9@updateWork

; 764  : 		{
; 765  : 			for(int iY = -iRange; iY <= iRange; iY++)

	mov	eax, DWORD PTR _iRange$[ebp]
	neg	eax
	mov	DWORD PTR _iY$235000[ebp], eax
	jmp	SHORT $LN8@updateWork
$LN7@updateWork:
	mov	ecx, DWORD PTR _iY$235000[ebp]
	add	ecx, 1
	mov	DWORD PTR _iY$235000[ebp], ecx
$LN8@updateWork:
	mov	edx, DWORD PTR _iY$235000[ebp]
	cmp	edx, DWORD PTR _iRange$[ebp]
	jg	SHORT $LN6@updateWork

; 766  : 			{
; 767  : 				CvPlot* pLoopPlot = plotXYWithRangeCheck(pPlot->getX(), pPlot->getY(), iX, iY, iRange);

	mov	eax, DWORD PTR _pPlot$[ebp]
	movsx	ecx, WORD PTR [eax+2]
	mov	DWORD PTR $T237551[ebp], ecx
	mov	edx, DWORD PTR _pPlot$[ebp]
	movsx	eax, WORD PTR [edx]
	mov	DWORD PTR $T237555[ebp], eax
	mov	ecx, DWORD PTR _iRange$[ebp]
	push	ecx
	mov	edx, DWORD PTR _iY$235000[ebp]
	push	edx
	mov	eax, DWORD PTR _iX$234996[ebp]
	push	eax
	mov	ecx, DWORD PTR $T237551[ebp]
	push	ecx
	mov	edx, DWORD PTR $T237555[ebp]
	push	edx
	call	?plotXYWithRangeCheck@@YAPAVCvPlot@@HHHHH@Z ; plotXYWithRangeCheck
	add	esp, 20					; 00000014H
	mov	DWORD PTR _pLoopPlot$235004[ebp], eax

; 768  : #endif
; 769  : 				if(pLoopPlot)

	cmp	DWORD PTR _pLoopPlot$235004[ebp], 0
	je	SHORT $LN5@updateWork

; 770  : 				{
; 771  : 					pLoopPlot->updateWorkingCity();

	mov	ecx, DWORD PTR _pLoopPlot$235004[ebp]
	call	?updateWorkingCity@CvPlot@@QAEXXZ	; CvPlot::updateWorkingCity
$LN5@updateWork:

; 772  : 				}
; 773  : 			}

	jmp	SHORT $LN7@updateWork
$LN6@updateWork:

; 774  : 		}

	jmp	SHORT $LN10@updateWork
$LN9@updateWork:

; 775  : 	}
; 776  : 	else

	jmp	SHORT $LN13@updateWork
$LN12@updateWork:

; 777  : 	{
; 778  : #ifdef AUI_WARNING_FIXES
; 779  : 		for (uint iI = 0; iI < numPlots(); iI++)
; 780  : #else
; 781  : 		for(int iI = 0; iI < numPlots(); iI++)

	mov	DWORD PTR _iI$235007[ebp], 0
	jmp	SHORT $LN3@updateWork
$LN2@updateWork:
	mov	eax, DWORD PTR _iI$235007[ebp]
	add	eax, 1
	mov	DWORD PTR _iI$235007[ebp], eax
$LN3@updateWork:
	mov	ecx, DWORD PTR _this$[ebp]
	mov	edx, DWORD PTR [ecx+4028]
	mov	DWORD PTR $T237691[ebp], edx
	mov	eax, DWORD PTR _iI$235007[ebp]
	cmp	eax, DWORD PTR $T237691[ebp]
	jge	SHORT $LN13@updateWork

; 782  : #endif
; 783  : 		{
; 784  : 			plotByIndexUnchecked(iI)->updateWorkingCity();

	mov	ecx, DWORD PTR _iI$235007[ebp]
	imul	ecx, 484				; 000001e4H
	mov	edx, DWORD PTR _this$[ebp]
	add	ecx, DWORD PTR [edx+4068]
	call	?updateWorkingCity@CvPlot@@QAEXXZ	; CvPlot::updateWorkingCity

; 785  : 		}

	jmp	SHORT $LN2@updateWork
$LN13@updateWork:

; 786  : 	}
; 787  : }

	mov	esp, ebp
	pop	ebp
	ret	8
?updateWorkingCity@CvMap@@QAEXPAVCvPlot@@H@Z ENDP	; CvMap::updateWorkingCity
_TEXT	ENDS
PUBLIC	?plotXY@@YAPAVCvPlot@@HHHH@Z			; plotXY
; Function compile flags: /Odtp
; File d:\sources\lekmod_git\checkout\lekmod_dll\cvgamecoredll_expansion2\cvgamecoreutils.h
;	COMDAT ?plotXYWithRangeCheck@@YAPAVCvPlot@@HHHHH@Z
_TEXT	SEGMENT
tv83 = -96						; size = 4
tv81 = -92						; size = 4
tv78 = -88						; size = 4
tv74 = -84						; size = 4
tv71 = -80						; size = 4
_iAbsDY$216767 = -20					; size = 4
_iAbsDX$216766 = -16					; size = 4
_iAbsDY$216764 = -12					; size = 4
_iAbsDX$216763 = -8					; size = 4
_hexRange$ = -4						; size = 4
_iX$ = 8						; size = 4
_iY$ = 12						; size = 4
_iDX$ = 16						; size = 4
_iDY$ = 20						; size = 4
_iRange$ = 24						; size = 4
?plotXYWithRangeCheck@@YAPAVCvPlot@@HHHHH@Z PROC	; plotXYWithRangeCheck, COMDAT

; 233  : {

	push	ebp
	mov	ebp, esp
	sub	esp, 96					; 00000060H

; 234  : #ifdef NQM_GAME_CORE_UTILS_OPTIMIZATIONS
; 235  : 	// I'm assuming iDX and iDY are in hex-space
; 236  : 	if (hexDistance(iDX, iDY) > iRange)
; 237  : #else
; 238  : 	int hexRange;
; 239  : 
; 240  : 	// I'm assuming iDX and iDY are in hex-space
; 241  : 	if((iDX >= 0) == (iDY >= 0))  // the signs match

	xor	eax, eax
	cmp	DWORD PTR _iDX$[ebp], 0
	setge	al
	xor	ecx, ecx
	cmp	DWORD PTR _iDY$[ebp], 0
	setge	cl
	cmp	eax, ecx
	jne	SHORT $LN3@plotXYWith

; 242  : 	{
; 243  : 		int iAbsDX = iDX >= 0 ? iDX : -iDX;

	cmp	DWORD PTR _iDX$[ebp], 0
	jl	SHORT $LN6@plotXYWith
	mov	edx, DWORD PTR _iDX$[ebp]
	mov	DWORD PTR tv71[ebp], edx
	jmp	SHORT $LN7@plotXYWith
$LN6@plotXYWith:
	mov	eax, DWORD PTR _iDX$[ebp]
	neg	eax
	mov	DWORD PTR tv71[ebp], eax
$LN7@plotXYWith:
	mov	ecx, DWORD PTR tv71[ebp]
	mov	DWORD PTR _iAbsDX$216763[ebp], ecx

; 244  : 		int iAbsDY = iDY >= 0 ? iDY : -iDY;

	cmp	DWORD PTR _iDY$[ebp], 0
	jl	SHORT $LN8@plotXYWith
	mov	edx, DWORD PTR _iDY$[ebp]
	mov	DWORD PTR tv74[ebp], edx
	jmp	SHORT $LN9@plotXYWith
$LN8@plotXYWith:
	mov	eax, DWORD PTR _iDY$[ebp]
	neg	eax
	mov	DWORD PTR tv74[ebp], eax
$LN9@plotXYWith:
	mov	ecx, DWORD PTR tv74[ebp]
	mov	DWORD PTR _iAbsDY$216764[ebp], ecx

; 245  : 		hexRange = iAbsDX + iAbsDY;

	mov	edx, DWORD PTR _iAbsDX$216763[ebp]
	add	edx, DWORD PTR _iAbsDY$216764[ebp]
	mov	DWORD PTR _hexRange$[ebp], edx

; 246  : 	}
; 247  : 	else

	jmp	SHORT $LN2@plotXYWith
$LN3@plotXYWith:

; 248  : 	{
; 249  : 		int iAbsDX = iDX >= 0 ? iDX : -iDX;

	cmp	DWORD PTR _iDX$[ebp], 0
	jl	SHORT $LN10@plotXYWith
	mov	eax, DWORD PTR _iDX$[ebp]
	mov	DWORD PTR tv78[ebp], eax
	jmp	SHORT $LN11@plotXYWith
$LN10@plotXYWith:
	mov	ecx, DWORD PTR _iDX$[ebp]
	neg	ecx
	mov	DWORD PTR tv78[ebp], ecx
$LN11@plotXYWith:
	mov	edx, DWORD PTR tv78[ebp]
	mov	DWORD PTR _iAbsDX$216766[ebp], edx

; 250  : 		int iAbsDY = iDY >= 0 ? iDY : -iDY;

	cmp	DWORD PTR _iDY$[ebp], 0
	jl	SHORT $LN12@plotXYWith
	mov	eax, DWORD PTR _iDY$[ebp]
	mov	DWORD PTR tv81[ebp], eax
	jmp	SHORT $LN13@plotXYWith
$LN12@plotXYWith:
	mov	ecx, DWORD PTR _iDY$[ebp]
	neg	ecx
	mov	DWORD PTR tv81[ebp], ecx
$LN13@plotXYWith:
	mov	edx, DWORD PTR tv81[ebp]
	mov	DWORD PTR _iAbsDY$216767[ebp], edx

; 251  : 		hexRange = iAbsDX >= iAbsDY ? iAbsDX : iAbsDY;

	mov	eax, DWORD PTR _iAbsDX$216766[ebp]
	cmp	eax, DWORD PTR _iAbsDY$216767[ebp]
	jl	SHORT $LN14@plotXYWith
	mov	ecx, DWORD PTR _iAbsDX$216766[ebp]
	mov	DWORD PTR tv83[ebp], ecx
	jmp	SHORT $LN15@plotXYWith
$LN14@plotXYWith:
	mov	edx, DWORD PTR _iAbsDY$216767[ebp]
	mov	DWORD PTR tv83[ebp], edx
$LN15@plotXYWith:
	mov	eax, DWORD PTR tv83[ebp]
	mov	DWORD PTR _hexRange$[ebp], eax
$LN2@plotXYWith:

; 252  : 	}
; 253  : 
; 254  : 	if(hexRange > iRange)

	mov	ecx, DWORD PTR _hexRange$[ebp]
	cmp	ecx, DWORD PTR _iRange$[ebp]
	jle	SHORT $LN1@plotXYWith

; 255  : #endif
; 256  : 	{
; 257  : 		return NULL;

	xor	eax, eax
	jmp	SHORT $LN4@plotXYWith
$LN1@plotXYWith:

; 258  : 	}
; 259  : 
; 260  : 	return plotXY(iX, iY, iDX, iDY);

	mov	edx, DWORD PTR _iDY$[ebp]
	push	edx
	mov	eax, DWORD PTR _iDX$[ebp]
	push	eax
	mov	ecx, DWORD PTR _iY$[ebp]
	push	ecx
	mov	edx, DWORD PTR _iX$[ebp]
	push	edx
	call	?plotXY@@YAPAVCvPlot@@HHHH@Z		; plotXY
	add	esp, 16					; 00000010H
$LN4@plotXYWith:

; 261  : }

	mov	esp, ebp
	pop	ebp
	ret	0
?plotXYWithRangeCheck@@YAPAVCvPlot@@HHHHH@Z ENDP	; plotXYWithRangeCheck
; Function compile flags: /Odtp
_TEXT	ENDS
;	COMDAT ?plotXY@@YAPAVCvPlot@@HHHH@Z
_TEXT	SEGMENT
tv148 = -72						; size = 4
tv163 = -68						; size = 4
tv86 = -64						; size = 4
tv82 = -60						; size = 4
$T237949 = -56						; size = 4
$T237904 = -52						; size = 4
$T237891 = -48						; size = 4
$T237887 = -44						; size = 4
$T237873 = -40						; size = 4
$T237869 = -33						; size = 1
$T237858 = -32						; size = 4
$T237854 = -25						; size = 1
_iMapY$237948 = -24					; size = 4
_iMapX$237947 = -20					; size = 4
$T237847 = -16						; size = 4
_iPlotHexX$ = -12					; size = 4
_iPlotY$ = -8						; size = 4
_iStartHexX$ = -4					; size = 4
_iX$ = 8						; size = 4
_iY$ = 12						; size = 4
_iDX$ = 16						; size = 4
_iDY$ = 20						; size = 4
?plotXY@@YAPAVCvPlot@@HHHH@Z PROC			; plotXY, COMDAT

; 213  : {

	push	ebp
	mov	ebp, esp
	sub	esp, 72					; 00000048H

; 214  : 	// convert the start coord to hex-space coordinates
; 215  : 	int iStartHexX = xToHexspaceX(iX, iY);

	cmp	DWORD PTR _iY$[ebp], 0
	jl	SHORT $LN5@plotXY
	mov	eax, DWORD PTR _iY$[ebp]
	sar	eax, 1
	mov	DWORD PTR tv82[ebp], eax
	jmp	SHORT $LN3@plotXY
$LN5@plotXY:
	mov	eax, DWORD PTR _iY$[ebp]
	sub	eax, 1
	cdq
	sub	eax, edx
	sar	eax, 1
	mov	DWORD PTR tv82[ebp], eax
$LN3@plotXY:
	mov	ecx, DWORD PTR _iX$[ebp]
	sub	ecx, DWORD PTR tv82[ebp]
	mov	DWORD PTR _iStartHexX$[ebp], ecx

; 216  : 
; 217  : 	int iPlotHexX = iStartHexX + iDX;

	mov	edx, DWORD PTR _iStartHexX$[ebp]
	add	edx, DWORD PTR _iDX$[ebp]
	mov	DWORD PTR _iPlotHexX$[ebp], edx

; 218  : 	int iPlotY = iY + iDY; // Y is the same in both coordinate systems

	mov	eax, DWORD PTR _iY$[ebp]
	add	eax, DWORD PTR _iDY$[ebp]
	mov	DWORD PTR _iPlotY$[ebp], eax

; 219  : 
; 220  : 	// convert from hex-space coordinates to the storage array
; 221  : 	iPlotHexX = hexspaceXToX(iPlotHexX, iPlotY);

	js	SHORT $LN9@plotXY
	mov	ecx, DWORD PTR _iPlotY$[ebp]
	sar	ecx, 1
	mov	DWORD PTR tv86[ebp], ecx
	jmp	SHORT $LN7@plotXY
$LN9@plotXY:
	mov	eax, DWORD PTR _iPlotY$[ebp]
	sub	eax, 1
	cdq
	sub	eax, edx
	sar	eax, 1
	mov	DWORD PTR tv86[ebp], eax
$LN7@plotXY:
	mov	edx, DWORD PTR _iPlotHexX$[ebp]
	add	edx, DWORD PTR tv86[ebp]
	mov	DWORD PTR _iPlotHexX$[ebp], edx

; 222  : 
; 223  : 	return GC.getMap().plot(iPlotHexX , iPlotY);

	mov	eax, DWORD PTR ?gGlobals@@3VCvGlobals@@A+52
	mov	DWORD PTR $T237847[ebp], eax
	cmp	DWORD PTR _iPlotHexX$[ebp], -2147483647	; 80000001H
	je	SHORT $LN13@plotXY
	cmp	DWORD PTR _iPlotY$[ebp], -2147483647	; 80000001H
	jne	SHORT $LN14@plotXY
$LN13@plotXY:
	mov	DWORD PTR $T237949[ebp], 0
	jmp	$LN15@plotXY
$LN14@plotXY:
	mov	ecx, DWORD PTR $T237847[ebp]
	mov	dl, BYTE PTR [ecx+4056]
	mov	BYTE PTR $T237854[ebp], dl
	mov	eax, DWORD PTR $T237847[ebp]
	mov	ecx, DWORD PTR [eax+4020]
	mov	DWORD PTR $T237858[ebp], ecx
	movzx	edx, BYTE PTR $T237854[ebp]
	test	edx, edx
	je	SHORT $LN26@plotXY
	cmp	DWORD PTR _iPlotHexX$[ebp], 0
	jge	SHORT $LN25@plotXY
	mov	eax, DWORD PTR _iPlotHexX$[ebp]
	cdq
	idiv	DWORD PTR $T237858[ebp]
	add	edx, DWORD PTR $T237858[ebp]
	mov	DWORD PTR _iMapX$237947[ebp], edx
	jmp	SHORT $LN27@plotXY
	jmp	SHORT $LN26@plotXY
$LN25@plotXY:
	mov	eax, DWORD PTR _iPlotHexX$[ebp]
	cmp	eax, DWORD PTR $T237858[ebp]
	jl	SHORT $LN26@plotXY
	mov	eax, DWORD PTR _iPlotHexX$[ebp]
	cdq
	idiv	DWORD PTR $T237858[ebp]
	mov	DWORD PTR _iMapX$237947[ebp], edx
	jmp	SHORT $LN27@plotXY
$LN26@plotXY:
	mov	ecx, DWORD PTR _iPlotHexX$[ebp]
	mov	DWORD PTR _iMapX$237947[ebp], ecx
$LN27@plotXY:
	mov	edx, DWORD PTR $T237847[ebp]
	mov	al, BYTE PTR [edx+4057]
	mov	BYTE PTR $T237869[ebp], al
	mov	ecx, DWORD PTR $T237847[ebp]
	mov	edx, DWORD PTR [ecx+4024]
	mov	DWORD PTR $T237873[ebp], edx
	movzx	eax, BYTE PTR $T237869[ebp]
	test	eax, eax
	je	SHORT $LN36@plotXY
	cmp	DWORD PTR _iPlotY$[ebp], 0
	jge	SHORT $LN35@plotXY
	mov	eax, DWORD PTR _iPlotY$[ebp]
	cdq
	idiv	DWORD PTR $T237873[ebp]
	add	edx, DWORD PTR $T237873[ebp]
	mov	DWORD PTR _iMapY$237948[ebp], edx
	jmp	SHORT $LN37@plotXY
	jmp	SHORT $LN36@plotXY
$LN35@plotXY:
	mov	ecx, DWORD PTR _iPlotY$[ebp]
	cmp	ecx, DWORD PTR $T237873[ebp]
	jl	SHORT $LN36@plotXY
	mov	eax, DWORD PTR _iPlotY$[ebp]
	cdq
	idiv	DWORD PTR $T237873[ebp]
	mov	DWORD PTR _iMapY$237948[ebp], edx
	jmp	SHORT $LN37@plotXY
$LN36@plotXY:
	mov	edx, DWORD PTR _iPlotY$[ebp]
	mov	DWORD PTR _iMapY$237948[ebp], edx
$LN37@plotXY:
	cmp	DWORD PTR _iMapX$237947[ebp], 0
	jl	SHORT $LN41@plotXY
	mov	eax, DWORD PTR $T237847[ebp]
	mov	ecx, DWORD PTR [eax+4020]
	mov	DWORD PTR $T237887[ebp], ecx
	mov	edx, DWORD PTR _iMapX$237947[ebp]
	cmp	edx, DWORD PTR $T237887[ebp]
	jge	SHORT $LN41@plotXY
	cmp	DWORD PTR _iMapY$237948[ebp], 0
	jl	SHORT $LN41@plotXY
	mov	eax, DWORD PTR $T237847[ebp]
	mov	ecx, DWORD PTR [eax+4024]
	mov	DWORD PTR $T237891[ebp], ecx
	mov	edx, DWORD PTR _iMapY$237948[ebp]
	cmp	edx, DWORD PTR $T237891[ebp]
	jge	SHORT $LN41@plotXY
	mov	DWORD PTR tv163[ebp], 1
	jmp	SHORT $LN39@plotXY
$LN41@plotXY:
	mov	DWORD PTR tv163[ebp], 0
$LN39@plotXY:
	cmp	DWORD PTR tv163[ebp], 0
	je	SHORT $LN17@plotXY
	mov	eax, DWORD PTR $T237847[ebp]
	mov	ecx, DWORD PTR [eax+4020]
	mov	DWORD PTR $T237904[ebp], ecx
	mov	edx, DWORD PTR _iMapY$237948[ebp]
	imul	edx, DWORD PTR $T237904[ebp]
	add	edx, DWORD PTR _iMapX$237947[ebp]
	imul	edx, 484				; 000001e4H
	mov	eax, DWORD PTR $T237847[ebp]
	add	edx, DWORD PTR [eax+4068]
	mov	DWORD PTR tv148[ebp], edx
	jmp	SHORT $LN18@plotXY
$LN17@plotXY:
	mov	DWORD PTR tv148[ebp], 0
$LN18@plotXY:
	mov	ecx, DWORD PTR tv148[ebp]
	mov	DWORD PTR $T237949[ebp], ecx
$LN15@plotXY:
	mov	eax, DWORD PTR $T237949[ebp]

; 224  : }

	mov	esp, ebp
	pop	ebp
	ret	0
?plotXY@@YAPAVCvPlot@@HHHH@Z ENDP			; plotXY
_TEXT	ENDS
EXTRN	?updateYield@CvPlot@@QAEXXZ:PROC		; CvPlot::updateYield
; Function compile flags: /Odtp
; File d:\sources\lekmod_git\checkout\lekmod_dll\cvgamecoredll_expansion2\cvmap.cpp
;	COMDAT ?updateYield@CvMap@@QAEXXZ
_TEXT	SEGMENT
_this$ = -12						; size = 4
$T237955 = -8						; size = 4
_iI$ = -4						; size = 4
?updateYield@CvMap@@QAEXXZ PROC				; CvMap::updateYield, COMDAT
; _this$ = ecx

; 792  : {

	push	ebp
	mov	ebp, esp
	sub	esp, 12					; 0000000cH
	mov	DWORD PTR _this$[ebp], ecx

; 793  : #ifdef AUI_WARNING_FIXES
; 794  : 	for (uint iI = 0; iI < numPlots(); iI++)
; 795  : #else
; 796  : 	int iI;
; 797  : 
; 798  : 	for(iI = 0; iI < numPlots(); iI++)

	mov	DWORD PTR _iI$[ebp], 0
	jmp	SHORT $LN3@updateYiel
$LN2@updateYiel:
	mov	eax, DWORD PTR _iI$[ebp]
	add	eax, 1
	mov	DWORD PTR _iI$[ebp], eax
$LN3@updateYiel:
	mov	ecx, DWORD PTR _this$[ebp]
	mov	edx, DWORD PTR [ecx+4028]
	mov	DWORD PTR $T237955[ebp], edx
	mov	eax, DWORD PTR _iI$[ebp]
	cmp	eax, DWORD PTR $T237955[ebp]
	jge	SHORT $LN4@updateYiel

; 799  : #endif
; 800  : 	{
; 801  : 		plotByIndexUnchecked(iI)->updateYield();

	mov	ecx, DWORD PTR _iI$[ebp]
	imul	ecx, 484				; 000001e4H
	mov	edx, DWORD PTR _this$[ebp]
	add	ecx, DWORD PTR [edx+4068]
	call	?updateYield@CvPlot@@QAEXXZ		; CvPlot::updateYield
	jmp	SHORT $LN2@updateYiel
$LN4@updateYiel:

; 802  : 	}
; 803  : }

	mov	esp, ebp
	pop	ebp
	ret	0
?updateYield@CvMap@@QAEXXZ ENDP				; CvMap::updateYield
_TEXT	ENDS
PUBLIC	?updateAdjacency@CvMap@@QAEXXZ			; CvMap::updateAdjacency
EXTRN	?isAdjacentToLand@CvPlot@@QBE_NXZ:PROC		; CvPlot::isAdjacentToLand
; Function compile flags: /Odtp
;	COMDAT ?updateAdjacency@CvMap@@QAEXXZ
_TEXT	SEGMENT
tv74 = -17						; size = 1
_this$ = -16						; size = 4
$T237964 = -12						; size = 4
_pPlot$235025 = -8					; size = 4
_iI$ = -4						; size = 4
?updateAdjacency@CvMap@@QAEXXZ PROC			; CvMap::updateAdjacency, COMDAT
; _this$ = ecx

; 808  : {

	push	ebp
	mov	ebp, esp
	sub	esp, 20					; 00000014H
	mov	DWORD PTR _this$[ebp], ecx

; 809  : #if defined(AUI_WARNING_FIXES) && defined(AUI_USE_OPENMP)
; 810  : #pragma omp parallel for
; 811  : 	for (int iI = 0; iI < (int)numPlots(); iI++)
; 812  : #elif defined(AUI_WARNING_FIXES)
; 813  : 	for (uint iI = 0; iI < numPlots(); iI++)
; 814  : #elif defined(AUI_USE_OPENMP)
; 815  : #pragma omp parallel for
; 816  : 	for (int iI = 0; iI < numPlots(); iI++)
; 817  : #else
; 818  : 	int iI;
; 819  : 
; 820  : 	for(iI = 0; iI < numPlots(); iI++)

	mov	DWORD PTR _iI$[ebp], 0
	jmp	SHORT $LN3@updateAdja
$LN2@updateAdja:
	mov	eax, DWORD PTR _iI$[ebp]
	add	eax, 1
	mov	DWORD PTR _iI$[ebp], eax
$LN3@updateAdja:
	mov	ecx, DWORD PTR _this$[ebp]
	mov	edx, DWORD PTR [ecx+4028]
	mov	DWORD PTR $T237964[ebp], edx
	mov	eax, DWORD PTR _iI$[ebp]
	cmp	eax, DWORD PTR $T237964[ebp]
	jge	SHORT $LN4@updateAdja

; 821  : #endif
; 822  : 	{
; 823  : 		CvPlot* pPlot = plotByIndexUnchecked(iI);

	mov	ecx, DWORD PTR _iI$[ebp]
	imul	ecx, 484				; 000001e4H
	mov	edx, DWORD PTR _this$[ebp]
	add	ecx, DWORD PTR [edx+4068]
	mov	DWORD PTR _pPlot$235025[ebp], ecx

; 824  : 		pPlot->m_bIsAdjacentToLand = pPlot->isAdjacentToLand();

	mov	ecx, DWORD PTR _pPlot$235025[ebp]
	call	?isAdjacentToLand@CvPlot@@QBE_NXZ	; CvPlot::isAdjacentToLand
	mov	BYTE PTR tv74[ebp], al
	mov	al, BYTE PTR tv74[ebp]
	and	al, 1
	shl	al, 6
	mov	ecx, DWORD PTR _pPlot$235025[ebp]
	mov	dl, BYTE PTR [ecx+462]
	and	dl, 191					; 000000bfH
	or	dl, al
	mov	eax, DWORD PTR _pPlot$235025[ebp]
	mov	BYTE PTR [eax+462], dl
	jmp	SHORT $LN2@updateAdja
$LN4@updateAdja:

; 825  : 	}
; 826  : }

	mov	esp, ebp
	pop	ebp
	ret	0
?updateAdjacency@CvMap@@QAEXXZ ENDP			; CvMap::updateAdjacency
_TEXT	ENDS
PUBLIC	?verifyUnitValidPlot@CvMap@@QAEXXZ		; CvMap::verifyUnitValidPlot
EXTRN	?verifyUnitValidPlot@CvPlot@@QAEXXZ:PROC	; CvPlot::verifyUnitValidPlot
; Function compile flags: /Odtp
;	COMDAT ?verifyUnitValidPlot@CvMap@@QAEXXZ
_TEXT	SEGMENT
_this$ = -12						; size = 4
$T237973 = -8						; size = 4
_iI$ = -4						; size = 4
?verifyUnitValidPlot@CvMap@@QAEXXZ PROC			; CvMap::verifyUnitValidPlot, COMDAT
; _this$ = ecx

; 830  : {

	push	ebp
	mov	ebp, esp
	sub	esp, 12					; 0000000cH
	mov	DWORD PTR _this$[ebp], ecx

; 831  : #ifdef AUI_WARNING_FIXES
; 832  : 	for (uint iI = 0; iI < numPlots(); iI++)
; 833  : #else
; 834  : 	int iI;
; 835  : 
; 836  : 	for(iI = 0; iI < numPlots(); iI++)

	mov	DWORD PTR _iI$[ebp], 0
	jmp	SHORT $LN3@verifyUnit
$LN2@verifyUnit:
	mov	eax, DWORD PTR _iI$[ebp]
	add	eax, 1
	mov	DWORD PTR _iI$[ebp], eax
$LN3@verifyUnit:
	mov	ecx, DWORD PTR _this$[ebp]
	mov	edx, DWORD PTR [ecx+4028]
	mov	DWORD PTR $T237973[ebp], edx
	mov	eax, DWORD PTR _iI$[ebp]
	cmp	eax, DWORD PTR $T237973[ebp]
	jge	SHORT $LN4@verifyUnit

; 837  : #endif
; 838  : 	{
; 839  : 		plotByIndexUnchecked(iI)->verifyUnitValidPlot();

	mov	ecx, DWORD PTR _iI$[ebp]
	imul	ecx, 484				; 000001e4H
	mov	edx, DWORD PTR _this$[ebp]
	add	ecx, DWORD PTR [edx+4068]
	call	?verifyUnitValidPlot@CvPlot@@QAEXXZ	; CvPlot::verifyUnitValidPlot
	jmp	SHORT $LN2@verifyUnit
$LN4@verifyUnit:

; 840  : 	}
; 841  : }

	mov	esp, ebp
	pop	ebp
	ret	0
?verifyUnitValidPlot@CvMap@@QAEXXZ ENDP			; CvMap::verifyUnitValidPlot
_TEXT	ENDS
PUBLIC	?isCity@CvPlot@@QBE_NXZ				; CvPlot::isCity
PUBLIC	??_C@_0BA@COGMMLGC@Rand?5Plot?5Width?$AA@	; `string'
PUBLIC	??_C@_0BB@LEKJMANB@Rand?5Plot?5Height?$AA@	; `string'
PUBLIC	?syncRandPlot@CvMap@@QAEPAVCvPlot@@HHHH@Z	; CvMap::syncRandPlot
EXTRN	?isVisibleToCivTeam@CvPlot@@QBE_NXZ:PROC	; CvPlot::isVisibleToCivTeam
EXTRN	?isAdjacentOwned@CvPlot@@QBE_NXZ:PROC		; CvPlot::isAdjacentOwned
EXTRN	?isOwned@CvPlot@@QBE_NXZ:PROC			; CvPlot::isOwned
EXTRN	?isUnit@CvPlot@@QBE_NXZ:PROC			; CvPlot::isUnit
EXTRN	?getJonRandNum@CvGame@@QAEHHPBD@Z:PROC		; CvGame::getJonRandNum
;	COMDAT ??_C@_0BA@COGMMLGC@Rand?5Plot?5Width?$AA@
; File d:\sources\lekmod_git\checkout\lekmod_dll\cvgamecoredll_expansion2\cvplayerai.h
CONST	SEGMENT
??_C@_0BA@COGMMLGC@Rand?5Plot?5Width?$AA@ DB 'Rand Plot Width', 00H ; `string'
CONST	ENDS
;	COMDAT ??_C@_0BB@LEKJMANB@Rand?5Plot?5Height?$AA@
CONST	SEGMENT
??_C@_0BB@LEKJMANB@Rand?5Plot?5Height?$AA@ DB 'Rand Plot Height', 00H ; `string'
; Function compile flags: /Odtp
; File d:\sources\lekmod_git\checkout\lekmod_dll\cvgamecoredll_expansion2\cvmap.cpp
CONST	ENDS
;	COMDAT ?syncRandPlot@CvMap@@QAEPAVCvPlot@@HHHH@Z
_TEXT	SEGMENT
_this$ = -144						; size = 4
$T238026 = -68						; size = 4
$T238022 = -64						; size = 4
$T238018 = -60						; size = 4
$T238014 = -56						; size = 4
$T238013 = -52						; size = 4
$T238000 = -48						; size = 4
$T237994 = -44						; size = 4
$T237990 = -40						; size = 4
$T237986 = -36						; size = 4
$T237982 = -32						; size = 4
_iCount$ = -28						; size = 4
_iDY$ = -24						; size = 4
_iDX$ = -20						; size = 4
_pPlot$ = -16						; size = 4
_bValid$ = -9						; size = 1
_pTestPlot$ = -8					; size = 4
_pLoopPlot$ = -4					; size = 4
_iFlags$ = 8						; size = 4
_iArea$ = 12						; size = 4
_iMinUnitDistance$ = 16					; size = 4
_iTimeout$ = 20						; size = 4
?syncRandPlot@CvMap@@QAEPAVCvPlot@@HHHH@Z PROC		; CvMap::syncRandPlot, COMDAT
; _this$ = ecx

; 846  : {

	push	ebp
	mov	ebp, esp
	sub	esp, 144				; 00000090H
	mov	DWORD PTR _this$[ebp], ecx

; 847  : 	CvPlot* pPlot;
; 848  : 	CvPlot* pTestPlot;
; 849  : 	CvPlot* pLoopPlot;
; 850  : 	bool bValid;
; 851  : 	int iCount;
; 852  : 	int iDX, iDY;
; 853  : #ifdef AUI_HEXSPACE_DX_LOOPS
; 854  : 	int iMaxDX;
; 855  : #endif
; 856  : 
; 857  : 	pPlot = NULL;

	mov	DWORD PTR _pPlot$[ebp], 0

; 858  : 
; 859  : 	iCount = 0;

	mov	DWORD PTR _iCount$[ebp], 0
$LN37@syncRandPl:

; 860  : 
; 861  : 	while(iCount < iTimeout)

	mov	eax, DWORD PTR _iCount$[ebp]
	cmp	eax, DWORD PTR _iTimeout$[ebp]
	jge	$LN36@syncRandPl

; 862  : 	{
; 863  : 		iCount++;

	mov	ecx, DWORD PTR _iCount$[ebp]
	add	ecx, 1
	mov	DWORD PTR _iCount$[ebp], ecx

; 864  : 		pTestPlot = plotCheckInvalid(GC.getGame().getJonRandNum(getGridWidth(), "Rand Plot Width"), GC.getGame().getJonRandNum(getGridHeight(), "Rand Plot Height"));

	mov	edx, DWORD PTR _this$[ebp]
	mov	eax, DWORD PTR [edx+4024]
	mov	DWORD PTR $T237982[ebp], eax
	mov	ecx, DWORD PTR ?gGlobals@@3VCvGlobals@@A+48
	mov	DWORD PTR $T237986[ebp], ecx
	mov	edx, DWORD PTR _this$[ebp]
	mov	eax, DWORD PTR [edx+4020]
	mov	DWORD PTR $T237990[ebp], eax
	mov	ecx, DWORD PTR ?gGlobals@@3VCvGlobals@@A+48
	mov	DWORD PTR $T237994[ebp], ecx
	push	OFFSET ??_C@_0BB@LEKJMANB@Rand?5Plot?5Height?$AA@
	mov	edx, DWORD PTR $T237982[ebp]
	push	edx
	mov	ecx, DWORD PTR $T237986[ebp]
	call	?getJonRandNum@CvGame@@QAEHHPBD@Z	; CvGame::getJonRandNum
	mov	DWORD PTR $T238014[ebp], eax
	push	OFFSET ??_C@_0BA@COGMMLGC@Rand?5Plot?5Width?$AA@
	mov	eax, DWORD PTR $T237990[ebp]
	push	eax
	mov	ecx, DWORD PTR $T237994[ebp]
	call	?getJonRandNum@CvGame@@QAEHHPBD@Z	; CvGame::getJonRandNum
	mov	DWORD PTR $T238013[ebp], eax
	cmp	DWORD PTR $T238013[ebp], -2147483647	; 80000001H
	je	SHORT $LN48@syncRandPl
	cmp	DWORD PTR $T238014[ebp], -2147483647	; 80000001H
	jne	SHORT $LN49@syncRandPl
$LN48@syncRandPl:
	mov	DWORD PTR _pTestPlot$[ebp], 0
	jmp	SHORT $LN50@syncRandPl
$LN49@syncRandPl:
	mov	ecx, DWORD PTR _this$[ebp]
	mov	edx, DWORD PTR [ecx+4020]
	mov	DWORD PTR $T238000[ebp], edx
	mov	eax, DWORD PTR $T238014[ebp]
	imul	eax, DWORD PTR $T238000[ebp]
	add	eax, DWORD PTR $T238013[ebp]
	imul	eax, 484				; 000001e4H
	mov	ecx, DWORD PTR _this$[ebp]
	add	eax, DWORD PTR [ecx+4068]
	mov	DWORD PTR _pTestPlot$[ebp], eax
$LN50@syncRandPl:

; 865  : 
; 866  : 		CvAssertMsg(pTestPlot != NULL, "TestPlot is not assigned a valid value");
; 867  : 
; 868  : 		if(!pTestPlot) continue;

	cmp	DWORD PTR _pTestPlot$[ebp], 0
	jne	SHORT $LN35@syncRandPl
	jmp	$LN37@syncRandPl
$LN35@syncRandPl:

; 869  : 
; 870  : 		if((iArea == -1) || (pTestPlot->getArea() == iArea))

	cmp	DWORD PTR _iArea$[ebp], -1
	je	SHORT $LN33@syncRandPl
	mov	edx, DWORD PTR _pTestPlot$[ebp]
	mov	eax, DWORD PTR [edx+356]
	mov	DWORD PTR $T238018[ebp], eax
	mov	ecx, DWORD PTR $T238018[ebp]
	cmp	ecx, DWORD PTR _iArea$[ebp]
	jne	$LN34@syncRandPl
$LN33@syncRandPl:

; 871  : 		{
; 872  : 			bValid = true;

	mov	BYTE PTR _bValid$[ebp], 1

; 873  : 
; 874  : 			if(bValid)

	movzx	edx, BYTE PTR _bValid$[ebp]
	test	edx, edx
	je	$LN32@syncRandPl

; 875  : 			{
; 876  : 				if(iMinUnitDistance != -1)

	cmp	DWORD PTR _iMinUnitDistance$[ebp], -1
	je	$LN32@syncRandPl

; 877  : 				{
; 878  : #ifdef AUI_HEXSPACE_DX_LOOPS
; 879  : 					for (iDY = -iMinUnitDistance; iDY <= iMinUnitDistance; iDY++)
; 880  : 					{
; 881  : 						iMaxDX = iMinUnitDistance - MAX(0, iDY);
; 882  : 						for (iDX = -iMinUnitDistance - MIN(0, iDY); iDX <= iMaxDX; iDX++) // MIN() and MAX() stuff is to reduce loops (hexspace!)
; 883  : 						{
; 884  : 							// No need for range check because loops are set up properly
; 885  : 							pLoopPlot = plotXY(pTestPlot->getX(), pTestPlot->getY(), iDX, iDY);
; 886  : #else
; 887  : 					for(iDX = -(iMinUnitDistance); iDX <= iMinUnitDistance; iDX++)

	mov	eax, DWORD PTR _iMinUnitDistance$[ebp]
	neg	eax
	mov	DWORD PTR _iDX$[ebp], eax
	jmp	SHORT $LN30@syncRandPl
$LN29@syncRandPl:
	mov	ecx, DWORD PTR _iDX$[ebp]
	add	ecx, 1
	mov	DWORD PTR _iDX$[ebp], ecx
$LN30@syncRandPl:
	mov	edx, DWORD PTR _iDX$[ebp]
	cmp	edx, DWORD PTR _iMinUnitDistance$[ebp]
	jg	SHORT $LN32@syncRandPl

; 888  : 					{
; 889  : 						for(iDY = -(iMinUnitDistance); iDY <= iMinUnitDistance; iDY++)

	mov	eax, DWORD PTR _iMinUnitDistance$[ebp]
	neg	eax
	mov	DWORD PTR _iDY$[ebp], eax
	jmp	SHORT $LN27@syncRandPl
$LN26@syncRandPl:
	mov	ecx, DWORD PTR _iDY$[ebp]
	add	ecx, 1
	mov	DWORD PTR _iDY$[ebp], ecx
$LN27@syncRandPl:
	mov	edx, DWORD PTR _iDY$[ebp]
	cmp	edx, DWORD PTR _iMinUnitDistance$[ebp]
	jg	SHORT $LN25@syncRandPl

; 890  : 						{
; 891  : 							pLoopPlot	= plotXYWithRangeCheck(pTestPlot->getX(), pTestPlot->getY(), iDX, iDY, iMinUnitDistance);

	mov	eax, DWORD PTR _pTestPlot$[ebp]
	movsx	ecx, WORD PTR [eax+2]
	mov	DWORD PTR $T238022[ebp], ecx
	mov	edx, DWORD PTR _pTestPlot$[ebp]
	movsx	eax, WORD PTR [edx]
	mov	DWORD PTR $T238026[ebp], eax
	mov	ecx, DWORD PTR _iMinUnitDistance$[ebp]
	push	ecx
	mov	edx, DWORD PTR _iDY$[ebp]
	push	edx
	mov	eax, DWORD PTR _iDX$[ebp]
	push	eax
	mov	ecx, DWORD PTR $T238022[ebp]
	push	ecx
	mov	edx, DWORD PTR $T238026[ebp]
	push	edx
	call	?plotXYWithRangeCheck@@YAPAVCvPlot@@HHHHH@Z ; plotXYWithRangeCheck
	add	esp, 20					; 00000014H
	mov	DWORD PTR _pLoopPlot$[ebp], eax

; 892  : #endif
; 893  : 
; 894  : 							if(pLoopPlot != NULL)

	cmp	DWORD PTR _pLoopPlot$[ebp], 0
	je	SHORT $LN24@syncRandPl

; 895  : 							{
; 896  : 								if(pLoopPlot->isUnit())

	mov	ecx, DWORD PTR _pLoopPlot$[ebp]
	call	?isUnit@CvPlot@@QBE_NXZ			; CvPlot::isUnit
	movzx	eax, al
	test	eax, eax
	je	SHORT $LN24@syncRandPl

; 897  : 								{
; 898  : 									bValid = false;

	mov	BYTE PTR _bValid$[ebp], 0
$LN24@syncRandPl:

; 899  : 								}
; 900  : 							}
; 901  : 						}

	jmp	SHORT $LN26@syncRandPl
$LN25@syncRandPl:

; 902  : 					}

	jmp	SHORT $LN29@syncRandPl
$LN32@syncRandPl:

; 903  : 				}
; 904  : 			}
; 905  : 
; 906  : 			if(bValid)

	movzx	ecx, BYTE PTR _bValid$[ebp]
	test	ecx, ecx
	je	SHORT $LN22@syncRandPl

; 907  : 			{
; 908  : 				if(iFlags & RANDPLOT_LAND)

	mov	edx, DWORD PTR _iFlags$[ebp]
	and	edx, 1
	je	SHORT $LN22@syncRandPl

; 909  : 				{
; 910  : 					if(pTestPlot->isWater())

	mov	eax, DWORD PTR _pTestPlot$[ebp]
	movsx	ecx, BYTE PTR [eax+5]
	xor	edx, edx
	cmp	ecx, 3
	sete	dl
	movzx	eax, dl
	test	eax, eax
	je	SHORT $LN22@syncRandPl

; 911  : 					{
; 912  : 						bValid = false;

	mov	BYTE PTR _bValid$[ebp], 0
$LN22@syncRandPl:

; 913  : 					}
; 914  : 				}
; 915  : 			}
; 916  : 
; 917  : 			if(bValid)

	movzx	ecx, BYTE PTR _bValid$[ebp]
	test	ecx, ecx
	je	SHORT $LN19@syncRandPl

; 918  : 			{
; 919  : 				if(iFlags & RANDPLOT_UNOWNED)

	mov	edx, DWORD PTR _iFlags$[ebp]
	and	edx, 2
	je	SHORT $LN19@syncRandPl

; 920  : 				{
; 921  : 					if(pTestPlot->isOwned())

	mov	ecx, DWORD PTR _pTestPlot$[ebp]
	call	?isOwned@CvPlot@@QBE_NXZ		; CvPlot::isOwned
	movzx	eax, al
	test	eax, eax
	je	SHORT $LN19@syncRandPl

; 922  : 					{
; 923  : 						bValid = false;

	mov	BYTE PTR _bValid$[ebp], 0
$LN19@syncRandPl:

; 924  : 					}
; 925  : 				}
; 926  : 			}
; 927  : 
; 928  : 			if(bValid)

	movzx	ecx, BYTE PTR _bValid$[ebp]
	test	ecx, ecx
	je	SHORT $LN16@syncRandPl

; 929  : 			{
; 930  : 				if(iFlags & RANDPLOT_ADJACENT_UNOWNED)

	mov	edx, DWORD PTR _iFlags$[ebp]
	and	edx, 4
	je	SHORT $LN16@syncRandPl

; 931  : 				{
; 932  : 					if(pTestPlot->isAdjacentOwned())

	mov	ecx, DWORD PTR _pTestPlot$[ebp]
	call	?isAdjacentOwned@CvPlot@@QBE_NXZ	; CvPlot::isAdjacentOwned
	movzx	eax, al
	test	eax, eax
	je	SHORT $LN16@syncRandPl

; 933  : 					{
; 934  : 						bValid = false;

	mov	BYTE PTR _bValid$[ebp], 0
$LN16@syncRandPl:

; 935  : 					}
; 936  : 				}
; 937  : 			}
; 938  : 
; 939  : 			if(bValid)

	movzx	ecx, BYTE PTR _bValid$[ebp]
	test	ecx, ecx
	je	SHORT $LN13@syncRandPl

; 940  : 			{
; 941  : 				if(iFlags & RANDPLOT_ADJACENT_LAND)

	mov	edx, DWORD PTR _iFlags$[ebp]
	and	edx, 8
	je	SHORT $LN13@syncRandPl

; 942  : 				{
; 943  : 					if(!(pTestPlot->isAdjacentToLand()))

	mov	ecx, DWORD PTR _pTestPlot$[ebp]
	call	?isAdjacentToLand@CvPlot@@QBE_NXZ	; CvPlot::isAdjacentToLand
	movzx	eax, al
	test	eax, eax
	jne	SHORT $LN13@syncRandPl

; 944  : 					{
; 945  : 						bValid = false;

	mov	BYTE PTR _bValid$[ebp], 0
$LN13@syncRandPl:

; 946  : 					}
; 947  : 				}
; 948  : 			}
; 949  : 
; 950  : 			if(bValid)

	movzx	ecx, BYTE PTR _bValid$[ebp]
	test	ecx, ecx
	je	SHORT $LN10@syncRandPl

; 951  : 			{
; 952  : 				if(iFlags & RANDPLOT_PASSIBLE)

	mov	edx, DWORD PTR _iFlags$[ebp]
	and	edx, 16					; 00000010H
	je	SHORT $LN10@syncRandPl

; 953  : 				{
; 954  : 					if(pTestPlot->isImpassable())

	mov	eax, DWORD PTR _pTestPlot$[ebp]
	mov	cl, BYTE PTR [eax+462]
	shr	cl, 7
	and	cl, 1
	movzx	edx, cl
	test	edx, edx
	je	SHORT $LN10@syncRandPl

; 955  : 					{
; 956  : 						bValid = false;

	mov	BYTE PTR _bValid$[ebp], 0
$LN10@syncRandPl:

; 957  : 					}
; 958  : 				}
; 959  : 			}
; 960  : 
; 961  : 			if(bValid)

	movzx	eax, BYTE PTR _bValid$[ebp]
	test	eax, eax
	je	SHORT $LN7@syncRandPl

; 962  : 			{
; 963  : 				if(iFlags & RANDPLOT_NOT_VISIBLE_TO_CIV)

	mov	ecx, DWORD PTR _iFlags$[ebp]
	and	ecx, 32					; 00000020H
	je	SHORT $LN7@syncRandPl

; 964  : 				{
; 965  : 					if(pTestPlot->isVisibleToCivTeam())

	mov	ecx, DWORD PTR _pTestPlot$[ebp]
	call	?isVisibleToCivTeam@CvPlot@@QBE_NXZ	; CvPlot::isVisibleToCivTeam
	movzx	edx, al
	test	edx, edx
	je	SHORT $LN7@syncRandPl

; 966  : 					{
; 967  : 						bValid = false;

	mov	BYTE PTR _bValid$[ebp], 0
$LN7@syncRandPl:

; 968  : 					}
; 969  : 				}
; 970  : 			}
; 971  : 
; 972  : 			if(bValid)

	movzx	eax, BYTE PTR _bValid$[ebp]
	test	eax, eax
	je	SHORT $LN4@syncRandPl

; 973  : 			{
; 974  : 				if(iFlags & RANDPLOT_NOT_CITY)

	mov	ecx, DWORD PTR _iFlags$[ebp]
	and	ecx, 64					; 00000040H
	je	SHORT $LN4@syncRandPl

; 975  : 				{
; 976  : 					if(pTestPlot->isCity())

	mov	ecx, DWORD PTR _pTestPlot$[ebp]
	call	?isCity@CvPlot@@QBE_NXZ			; CvPlot::isCity
	movzx	edx, al
	test	edx, edx
	je	SHORT $LN4@syncRandPl

; 977  : 					{
; 978  : 						bValid = false;

	mov	BYTE PTR _bValid$[ebp], 0
$LN4@syncRandPl:

; 979  : 					}
; 980  : 				}
; 981  : 			}
; 982  : 
; 983  : 			if(bValid)

	movzx	eax, BYTE PTR _bValid$[ebp]
	test	eax, eax
	je	SHORT $LN34@syncRandPl

; 984  : 			{
; 985  : 				pPlot = pTestPlot;

	mov	ecx, DWORD PTR _pTestPlot$[ebp]
	mov	DWORD PTR _pPlot$[ebp], ecx

; 986  : 				break;

	jmp	SHORT $LN36@syncRandPl
$LN34@syncRandPl:

; 987  : 			}
; 988  : 		}
; 989  : 	}

	jmp	$LN37@syncRandPl
$LN36@syncRandPl:

; 990  : 
; 991  : 	return pPlot;

	mov	eax, DWORD PTR _pPlot$[ebp]

; 992  : }

	mov	esp, ebp
	pop	ebp
	ret	16					; 00000010H
?syncRandPlot@CvMap@@QAEPAVCvPlot@@HHHH@Z ENDP		; CvMap::syncRandPlot
_TEXT	ENDS
PUBLIC	?plotDistance@@YAHHHHH@Z			; plotDistance
PUBLIC	?dxWrap@@YAHH@Z					; dxWrap
PUBLIC	?dyWrap@@YAHH@Z					; dyWrap
PUBLIC	?isPlot@CvMap@@QBEHHH@Z				; CvMap::isPlot
PUBLIC	?coordRange@@YAHHH_N@Z				; coordRange
PUBLIC	?findCity@CvMap@@QAEPAVCvCity@@HHW4PlayerTypes@@W4TeamTypes@@_N21W4DirectionTypes@@PBV2@@Z ; CvMap::findCity
EXTRN	?estimateDirection@@YA?AW4DirectionTypes@@HH@Z:PROC ; estimateDirection
EXTRN	?atWar@@YA_NW4TeamTypes@@0@Z:PROC		; atWar
EXTRN	?isCoastal@CvCity@@QBE_NH@Z:PROC		; CvCity::isCoastal
EXTRN	?waterArea@CvCity@@QBEPAVCvArea@@XZ:PROC	; CvCity::waterArea
EXTRN	?area@CvPlot@@QBEPAVCvArea@@XZ:PROC		; CvPlot::area
EXTRN	?area@CvCity@@QBEPAVCvArea@@XZ:PROC		; CvCity::area
EXTRN	?nextCity@CvPlayer@@QAEPAVCvCity@@PAH_N@Z:PROC	; CvPlayer::nextCity
EXTRN	?firstCity@CvPlayer@@QAEPAVCvCity@@PAH_N@Z:PROC	; CvPlayer::firstCity
EXTRN	?m_aPlayers@CvPlayerAI@@1PAV1@A:DWORD		; CvPlayerAI::m_aPlayers
; Function compile flags: /Odtp
;	COMDAT ?findCity@CvMap@@QAEPAVCvCity@@HHW4PlayerTypes@@W4TeamTypes@@_N21W4DirectionTypes@@PBV2@@Z
_TEXT	SEGMENT
tv214 = -204						; size = 4
_this$ = -200						; size = 4
$T238311 = -116						; size = 4
$T238302 = -112						; size = 4
$T238273 = -92						; size = 4
$T238244 = -72						; size = 4
$T238235 = -68						; size = 4
$T238218 = -61						; size = 1
$T238176 = -60						; size = 4
$T238171 = -56						; size = 4
$T238167 = -49						; size = 1
$T238156 = -48						; size = 4
$T238152 = -41						; size = 1
_iMapY$238206 = -40					; size = 4
_iMapX$238205 = -36					; size = 4
_thisPlayer$235113 = -32				; size = 4
_pCheckPlot$ = -28					; size = 4
_iBestValue$ = -24					; size = 4
_pBestCity$ = -20					; size = 4
_iI$ = -16						; size = 4
_iValue$ = -12						; size = 4
_pLoopCity$ = -8					; size = 4
_iLoop$ = -4						; size = 4
_iX$ = 8						; size = 4
_iY$ = 12						; size = 4
_eOwner$ = 16						; size = 4
_eTeam$ = 20						; size = 4
_bSameArea$ = 24					; size = 1
_bCoastalOnly$ = 28					; size = 1
_eTeamAtWarWith$ = 32					; size = 4
_eDirection$ = 36					; size = 4
_pSkipCity$ = 40					; size = 4
?findCity@CvMap@@QAEPAVCvCity@@HHW4PlayerTypes@@W4TeamTypes@@_N21W4DirectionTypes@@PBV2@@Z PROC ; CvMap::findCity, COMDAT
; _this$ = ecx

; 996  : {

	push	ebp
	mov	ebp, esp
	sub	esp, 204				; 000000ccH
	push	esi
	mov	DWORD PTR _this$[ebp], ecx

; 997  : 	CvCity* pLoopCity;
; 998  : 	CvCity* pBestCity;
; 999  : 	int iValue;
; 1000 : 	int iBestValue;
; 1001 : 	int iLoop;
; 1002 : 	int iI;
; 1003 : 	CvPlot* pCheckPlot = plot(iX, iY);

	cmp	DWORD PTR _iX$[ebp], -2147483647	; 80000001H
	je	SHORT $LN26@findCity
	cmp	DWORD PTR _iY$[ebp], -2147483647	; 80000001H
	jne	SHORT $LN27@findCity
$LN26@findCity:
	mov	DWORD PTR _pCheckPlot$[ebp], 0
	jmp	$LN28@findCity
$LN27@findCity:
	mov	eax, DWORD PTR _this$[ebp]
	mov	cl, BYTE PTR [eax+4056]
	mov	BYTE PTR $T238152[ebp], cl
	mov	edx, DWORD PTR _this$[ebp]
	mov	eax, DWORD PTR [edx+4020]
	mov	DWORD PTR $T238156[ebp], eax
	movzx	ecx, BYTE PTR $T238152[ebp]
	test	ecx, ecx
	je	SHORT $LN39@findCity
	cmp	DWORD PTR _iX$[ebp], 0
	jge	SHORT $LN38@findCity
	mov	eax, DWORD PTR _iX$[ebp]
	cdq
	idiv	DWORD PTR $T238156[ebp]
	add	edx, DWORD PTR $T238156[ebp]
	mov	DWORD PTR _iMapX$238205[ebp], edx
	jmp	SHORT $LN40@findCity
	jmp	SHORT $LN39@findCity
$LN38@findCity:
	mov	edx, DWORD PTR _iX$[ebp]
	cmp	edx, DWORD PTR $T238156[ebp]
	jl	SHORT $LN39@findCity
	mov	eax, DWORD PTR _iX$[ebp]
	cdq
	idiv	DWORD PTR $T238156[ebp]
	mov	DWORD PTR _iMapX$238205[ebp], edx
	jmp	SHORT $LN40@findCity
$LN39@findCity:
	mov	eax, DWORD PTR _iX$[ebp]
	mov	DWORD PTR _iMapX$238205[ebp], eax
$LN40@findCity:
	mov	ecx, DWORD PTR _this$[ebp]
	mov	dl, BYTE PTR [ecx+4057]
	mov	BYTE PTR $T238167[ebp], dl
	mov	eax, DWORD PTR _this$[ebp]
	mov	ecx, DWORD PTR [eax+4024]
	mov	DWORD PTR $T238171[ebp], ecx
	movzx	edx, BYTE PTR $T238167[ebp]
	push	edx
	mov	eax, DWORD PTR $T238171[ebp]
	push	eax
	mov	ecx, DWORD PTR _iY$[ebp]
	push	ecx
	call	?coordRange@@YAHHH_N@Z			; coordRange
	add	esp, 12					; 0000000cH
	mov	DWORD PTR _iMapY$238206[ebp], eax
	mov	edx, DWORD PTR _iMapY$238206[ebp]
	push	edx
	mov	eax, DWORD PTR _iMapX$238205[ebp]
	push	eax
	mov	ecx, DWORD PTR _this$[ebp]
	call	?isPlot@CvMap@@QBEHHH@Z			; CvMap::isPlot
	test	eax, eax
	je	SHORT $LN30@findCity
	mov	ecx, DWORD PTR _this$[ebp]
	mov	edx, DWORD PTR [ecx+4020]
	mov	DWORD PTR $T238176[ebp], edx
	mov	eax, DWORD PTR _iMapY$238206[ebp]
	imul	eax, DWORD PTR $T238176[ebp]
	add	eax, DWORD PTR _iMapX$238205[ebp]
	imul	eax, 484				; 000001e4H
	mov	ecx, DWORD PTR _this$[ebp]
	add	eax, DWORD PTR [ecx+4068]
	mov	DWORD PTR tv214[ebp], eax
	jmp	SHORT $LN31@findCity
$LN30@findCity:
	mov	DWORD PTR tv214[ebp], 0
$LN31@findCity:
	mov	edx, DWORD PTR tv214[ebp]
	mov	DWORD PTR _pCheckPlot$[ebp], edx
$LN28@findCity:

; 1004 : 
; 1005 : 	CvAssertMsg(pCheckPlot != NULL, "Passed in an invalid plot to findCity");
; 1006 : 	if (pCheckPlot == NULL)

	cmp	DWORD PTR _pCheckPlot$[ebp], 0
	jne	SHORT $LN23@findCity

; 1007 : 		return NULL;

	xor	eax, eax
	jmp	$LN24@findCity
$LN23@findCity:

; 1008 : 
; 1009 : 	// XXX look for barbarian cities???
; 1010 : 
; 1011 : 	iBestValue = MAXINT;

	mov	DWORD PTR _iBestValue$[ebp], 2147483647	; 7fffffffH

; 1012 : 	pBestCity = NULL;

	mov	DWORD PTR _pBestCity$[ebp], 0

; 1013 : 
; 1014 : 	for(iI = 0; iI < MAX_PLAYERS; iI++)

	mov	DWORD PTR _iI$[ebp], 0
	jmp	SHORT $LN22@findCity
$LN21@findCity:
	mov	eax, DWORD PTR _iI$[ebp]
	add	eax, 1
	mov	DWORD PTR _iI$[ebp], eax
$LN22@findCity:
	cmp	DWORD PTR _iI$[ebp], 64			; 00000040H
	jge	$LN20@findCity

; 1015 : 	{
; 1016 : 		CvPlayer& thisPlayer = GET_PLAYER((PlayerTypes)iI);

	mov	ecx, DWORD PTR _iI$[ebp]
	imul	ecx, 63236				; 0000f704H
	add	ecx, DWORD PTR ?m_aPlayers@CvPlayerAI@@1PAV1@A ; CvPlayerAI::m_aPlayers
	mov	DWORD PTR _thisPlayer$235113[ebp], ecx

; 1017 : 		if(thisPlayer.isAlive())

	mov	edx, DWORD PTR _thisPlayer$235113[ebp]
	mov	al, BYTE PTR [edx+2256]
	mov	BYTE PTR $T238218[ebp], al
	movzx	ecx, BYTE PTR $T238218[ebp]
	test	ecx, ecx
	je	$LN19@findCity

; 1018 : 		{
; 1019 : 			if((eOwner == NO_PLAYER) || (iI == eOwner))

	cmp	DWORD PTR _eOwner$[ebp], -1
	je	SHORT $LN17@findCity
	mov	edx, DWORD PTR _iI$[ebp]
	cmp	edx, DWORD PTR _eOwner$[ebp]
	jne	$LN19@findCity
$LN17@findCity:

; 1020 : 			{
; 1021 : 				if((eTeam == NO_TEAM) || (thisPlayer.getTeam() == eTeam))

	cmp	DWORD PTR _eTeam$[ebp], -1
	je	SHORT $LN15@findCity
	mov	eax, DWORD PTR _thisPlayer$235113[ebp]
	mov	ecx, DWORD PTR [eax+44]
	push	ecx
	call	?teamType@CvPreGame@@YA?AW4TeamTypes@@W4PlayerTypes@@@Z ; CvPreGame::teamType
	add	esp, 4
	cmp	eax, DWORD PTR _eTeam$[ebp]
	jne	$LN19@findCity
$LN15@findCity:

; 1022 : 				{
; 1023 : 					for(pLoopCity = thisPlayer.firstCity(&iLoop); pLoopCity != NULL; pLoopCity = thisPlayer.nextCity(&iLoop))

	push	0
	lea	edx, DWORD PTR _iLoop$[ebp]
	push	edx
	mov	ecx, DWORD PTR _thisPlayer$235113[ebp]
	call	?firstCity@CvPlayer@@QAEPAVCvCity@@PAH_N@Z ; CvPlayer::firstCity
	mov	DWORD PTR _pLoopCity$[ebp], eax
	jmp	SHORT $LN14@findCity
$LN13@findCity:
	push	0
	lea	eax, DWORD PTR _iLoop$[ebp]
	push	eax
	mov	ecx, DWORD PTR _thisPlayer$235113[ebp]
	call	?nextCity@CvPlayer@@QAEPAVCvCity@@PAH_N@Z ; CvPlayer::nextCity
	mov	DWORD PTR _pLoopCity$[ebp], eax
$LN14@findCity:
	cmp	DWORD PTR _pLoopCity$[ebp], 0
	je	$LN19@findCity

; 1024 : 					{
; 1025 : 						if(!bSameArea || (pLoopCity->area() == pCheckPlot->area()) || (bCoastalOnly && (pLoopCity->waterArea() == pCheckPlot->area())))

	movzx	ecx, BYTE PTR _bSameArea$[ebp]
	test	ecx, ecx
	je	SHORT $LN10@findCity
	mov	ecx, DWORD PTR _pLoopCity$[ebp]
	call	?area@CvCity@@QBEPAVCvArea@@XZ		; CvCity::area
	mov	esi, eax
	mov	ecx, DWORD PTR _pCheckPlot$[ebp]
	call	?area@CvPlot@@QBEPAVCvArea@@XZ		; CvPlot::area
	cmp	esi, eax
	je	SHORT $LN10@findCity
	movzx	edx, BYTE PTR _bCoastalOnly$[ebp]
	test	edx, edx
	je	$LN11@findCity
	mov	ecx, DWORD PTR _pLoopCity$[ebp]
	call	?waterArea@CvCity@@QBEPAVCvArea@@XZ	; CvCity::waterArea
	mov	esi, eax
	mov	ecx, DWORD PTR _pCheckPlot$[ebp]
	call	?area@CvPlot@@QBEPAVCvArea@@XZ		; CvPlot::area
	cmp	esi, eax
	jne	$LN11@findCity
$LN10@findCity:

; 1026 : 						{
; 1027 : 							if(!bCoastalOnly || pLoopCity->isCoastal())

	movzx	eax, BYTE PTR _bCoastalOnly$[ebp]
	test	eax, eax
	je	SHORT $LN8@findCity
	push	-1
	mov	ecx, DWORD PTR _pLoopCity$[ebp]
	call	?isCoastal@CvCity@@QBE_NH@Z		; CvCity::isCoastal
	movzx	ecx, al
	test	ecx, ecx
	je	$LN11@findCity
$LN8@findCity:

; 1028 : 							{
; 1029 : 								if((eTeamAtWarWith == NO_TEAM) || atWar(thisPlayer.getTeam(), eTeamAtWarWith))

	cmp	DWORD PTR _eTeamAtWarWith$[ebp], -1
	je	SHORT $LN6@findCity
	mov	edx, DWORD PTR _thisPlayer$235113[ebp]
	mov	eax, DWORD PTR [edx+44]
	push	eax
	call	?teamType@CvPreGame@@YA?AW4TeamTypes@@W4PlayerTypes@@@Z ; CvPreGame::teamType
	add	esp, 4
	mov	DWORD PTR $T238235[ebp], eax
	mov	ecx, DWORD PTR _eTeamAtWarWith$[ebp]
	push	ecx
	mov	edx, DWORD PTR $T238235[ebp]
	push	edx
	call	?atWar@@YA_NW4TeamTypes@@0@Z		; atWar
	add	esp, 8
	movzx	eax, al
	test	eax, eax
	je	$LN11@findCity
$LN6@findCity:

; 1030 : 								{
; 1031 : 									if((eDirection == NO_DIRECTION) || (estimateDirection(dxWrap(pLoopCity->getX() - iX), dyWrap(pLoopCity->getY() - iY)) == eDirection))

	cmp	DWORD PTR _eDirection$[ebp], -1
	je	SHORT $LN4@findCity
	mov	ecx, DWORD PTR _pLoopCity$[ebp]
	mov	edx, DWORD PTR [ecx+108]
	mov	DWORD PTR $T238244[ebp], edx
	mov	eax, DWORD PTR _pLoopCity$[ebp]
	mov	ecx, DWORD PTR [eax+96]
	mov	DWORD PTR $T238273[ebp], ecx
	mov	edx, DWORD PTR $T238244[ebp]
	sub	edx, DWORD PTR _iY$[ebp]
	push	edx
	call	?dyWrap@@YAHH@Z				; dyWrap
	add	esp, 4
	push	eax
	mov	eax, DWORD PTR $T238273[ebp]
	sub	eax, DWORD PTR _iX$[ebp]
	push	eax
	call	?dxWrap@@YAHH@Z				; dxWrap
	add	esp, 4
	push	eax
	call	?estimateDirection@@YA?AW4DirectionTypes@@HH@Z ; estimateDirection
	add	esp, 8
	cmp	eax, DWORD PTR _eDirection$[ebp]
	jne	SHORT $LN11@findCity
$LN4@findCity:

; 1032 : 									{
; 1033 : 										if((pSkipCity == NULL) || (pLoopCity != pSkipCity))

	cmp	DWORD PTR _pSkipCity$[ebp], 0
	je	SHORT $LN102@findCity
	mov	ecx, DWORD PTR _pLoopCity$[ebp]
	cmp	ecx, DWORD PTR _pSkipCity$[ebp]
	je	SHORT $LN11@findCity

; 1034 : 										{
; 1035 : 											iValue = plotDistance(iX, iY, pLoopCity->getX(), pLoopCity->getY());

$LN102@findCity:
	mov	edx, DWORD PTR _pLoopCity$[ebp]
	mov	eax, DWORD PTR [edx+108]
	mov	DWORD PTR $T238302[ebp], eax
	mov	ecx, DWORD PTR _pLoopCity$[ebp]
	mov	edx, DWORD PTR [ecx+96]
	mov	DWORD PTR $T238311[ebp], edx
	mov	eax, DWORD PTR $T238302[ebp]
	push	eax
	mov	ecx, DWORD PTR $T238311[ebp]
	push	ecx
	mov	edx, DWORD PTR _iY$[ebp]
	push	edx
	mov	eax, DWORD PTR _iX$[ebp]
	push	eax
	call	?plotDistance@@YAHHHHH@Z		; plotDistance
	add	esp, 16					; 00000010H
	mov	DWORD PTR _iValue$[ebp], eax

; 1036 : 
; 1037 : 											if(iValue < iBestValue)

	mov	ecx, DWORD PTR _iValue$[ebp]
	cmp	ecx, DWORD PTR _iBestValue$[ebp]
	jge	SHORT $LN11@findCity

; 1038 : 											{
; 1039 : 												iBestValue = iValue;

	mov	edx, DWORD PTR _iValue$[ebp]
	mov	DWORD PTR _iBestValue$[ebp], edx

; 1040 : 												pBestCity = pLoopCity;

	mov	eax, DWORD PTR _pLoopCity$[ebp]
	mov	DWORD PTR _pBestCity$[ebp], eax
$LN11@findCity:

; 1041 : 											}
; 1042 : 										}
; 1043 : 									}
; 1044 : 								}
; 1045 : 							}
; 1046 : 						}
; 1047 : 					}

	jmp	$LN13@findCity
$LN19@findCity:

; 1048 : 				}
; 1049 : 			}
; 1050 : 		}
; 1051 : 	}

	jmp	$LN21@findCity
$LN20@findCity:

; 1052 : 
; 1053 : 	return pBestCity;

	mov	eax, DWORD PTR _pBestCity$[ebp]
$LN24@findCity:

; 1054 : }

	pop	esi
	mov	esp, ebp
	pop	ebp
	ret	36					; 00000024H
?findCity@CvMap@@QAEPAVCvCity@@HHW4PlayerTypes@@W4TeamTypes@@_N21W4DirectionTypes@@PBV2@@Z ENDP ; CvMap::findCity
; Function compile flags: /Odtp
; File d:\sources\lekmod_git\checkout\lekmod_dll\cvgamecoredll_expansion2\cvgamecoreutils.h
_TEXT	ENDS
;	COMDAT ?dxWrap@@YAHH@Z
_TEXT	SEGMENT
$T238417 = -16						; size = 4
$T238409 = -12						; size = 4
$T238405 = -5						; size = 1
_kMap$ = -4						; size = 4
_iDX$ = 8						; size = 4
?dxWrap@@YAHH@Z PROC					; dxWrap, COMDAT

; 73   : {

	push	ebp
	mov	ebp, esp
	sub	esp, 16					; 00000010H

; 74   : 	const CvMap& kMap = GC.getMap();

	mov	eax, DWORD PTR ?gGlobals@@3VCvGlobals@@A+52
	mov	DWORD PTR _kMap$[ebp], eax

; 75   : 	return wrapCoordDifference(iDX, kMap.getGridWidth(), kMap.isWrapX());

	mov	ecx, DWORD PTR _kMap$[ebp]
	mov	dl, BYTE PTR [ecx+4056]
	mov	BYTE PTR $T238405[ebp], dl
	mov	eax, DWORD PTR _kMap$[ebp]
	mov	ecx, DWORD PTR [eax+4020]
	mov	DWORD PTR $T238409[ebp], ecx
	movzx	edx, BYTE PTR $T238405[ebp]
	test	edx, edx
	je	SHORT $LN12@dxWrap
	mov	eax, DWORD PTR $T238409[ebp]
	shr	eax, 1
	cmp	DWORD PTR _iDX$[ebp], eax
	jle	SHORT $LN11@dxWrap
	mov	ecx, DWORD PTR _iDX$[ebp]
	sub	ecx, DWORD PTR $T238409[ebp]
	mov	DWORD PTR $T238417[ebp], ecx
	jmp	SHORT $LN13@dxWrap
	jmp	SHORT $LN12@dxWrap
$LN11@dxWrap:
	mov	edx, DWORD PTR $T238409[ebp]
	shr	edx, 1
	neg	edx
	cmp	DWORD PTR _iDX$[ebp], edx
	jge	SHORT $LN12@dxWrap
	mov	eax, DWORD PTR _iDX$[ebp]
	add	eax, DWORD PTR $T238409[ebp]
	mov	DWORD PTR $T238417[ebp], eax
	jmp	SHORT $LN13@dxWrap
$LN12@dxWrap:
	mov	ecx, DWORD PTR _iDX$[ebp]
	mov	DWORD PTR $T238417[ebp], ecx
$LN13@dxWrap:
	mov	eax, DWORD PTR $T238417[ebp]

; 76   : }

	mov	esp, ebp
	pop	ebp
	ret	0
?dxWrap@@YAHH@Z ENDP					; dxWrap
; Function compile flags: /Odtp
_TEXT	ENDS
;	COMDAT ?dyWrap@@YAHH@Z
_TEXT	SEGMENT
$T238438 = -16						; size = 4
$T238430 = -12						; size = 4
$T238426 = -5						; size = 1
_kMap$ = -4						; size = 4
_iDY$ = 8						; size = 4
?dyWrap@@YAHH@Z PROC					; dyWrap, COMDAT

; 79   : {

	push	ebp
	mov	ebp, esp
	sub	esp, 16					; 00000010H

; 80   : 	const CvMap& kMap = GC.getMap();

	mov	eax, DWORD PTR ?gGlobals@@3VCvGlobals@@A+52
	mov	DWORD PTR _kMap$[ebp], eax

; 81   : 	return wrapCoordDifference(iDY, kMap.getGridHeight(), kMap.isWrapY());

	mov	ecx, DWORD PTR _kMap$[ebp]
	mov	dl, BYTE PTR [ecx+4057]
	mov	BYTE PTR $T238426[ebp], dl
	mov	eax, DWORD PTR _kMap$[ebp]
	mov	ecx, DWORD PTR [eax+4024]
	mov	DWORD PTR $T238430[ebp], ecx
	movzx	edx, BYTE PTR $T238426[ebp]
	test	edx, edx
	je	SHORT $LN12@dyWrap
	mov	eax, DWORD PTR $T238430[ebp]
	shr	eax, 1
	cmp	DWORD PTR _iDY$[ebp], eax
	jle	SHORT $LN11@dyWrap
	mov	ecx, DWORD PTR _iDY$[ebp]
	sub	ecx, DWORD PTR $T238430[ebp]
	mov	DWORD PTR $T238438[ebp], ecx
	jmp	SHORT $LN13@dyWrap
	jmp	SHORT $LN12@dyWrap
$LN11@dyWrap:
	mov	edx, DWORD PTR $T238430[ebp]
	shr	edx, 1
	neg	edx
	cmp	DWORD PTR _iDY$[ebp], edx
	jge	SHORT $LN12@dyWrap
	mov	eax, DWORD PTR _iDY$[ebp]
	add	eax, DWORD PTR $T238430[ebp]
	mov	DWORD PTR $T238438[ebp], eax
	jmp	SHORT $LN13@dyWrap
$LN12@dyWrap:
	mov	ecx, DWORD PTR _iDY$[ebp]
	mov	DWORD PTR $T238438[ebp], ecx
$LN13@dyWrap:
	mov	eax, DWORD PTR $T238438[ebp]

; 82   : }

	mov	esp, ebp
	pop	ebp
	ret	0
?dyWrap@@YAHH@Z ENDP					; dyWrap
; Function compile flags: /Odtp
_TEXT	ENDS
;	COMDAT ?plotDistance@@YAHHHHH@Z
_TEXT	SEGMENT
tv157 = -92						; size = 4
tv138 = -88						; size = 4
tv135 = -84						; size = 4
$T238522 = -80						; size = 4
$T238495 = -60						; size = 4
_iDY$ = -24						; size = 4
_iDX$ = -20						; size = 4
_iWrappedDX$ = -16					; size = 4
_iHX1$ = -12						; size = 4
_iHX2$ = -8						; size = 4
_iWrappedDY$ = -4					; size = 4
_iX1$ = 8						; size = 4
_iY1$ = 12						; size = 4
_iX2$ = 16						; size = 4
_iY2$ = 20						; size = 4
?plotDistance@@YAHHHHH@Z PROC				; plotDistance, COMDAT

; 144  : {

	push	ebp
	mov	ebp, esp
	sub	esp, 92					; 0000005cH

; 145  : 	int iDX;
; 146  : 	int iWrappedDX = dxWrap(iX2 - iX1);

	mov	eax, DWORD PTR _iX2$[ebp]
	sub	eax, DWORD PTR _iX1$[ebp]
	push	eax
	call	?dxWrap@@YAHH@Z				; dxWrap
	add	esp, 4
	mov	DWORD PTR _iWrappedDX$[ebp], eax

; 147  : 	int iWrappedDY = dyWrap(iY2 - iY1);

	mov	ecx, DWORD PTR _iY2$[ebp]
	sub	ecx, DWORD PTR _iY1$[ebp]
	push	ecx
	call	?dyWrap@@YAHH@Z				; dyWrap
	add	esp, 4
	mov	DWORD PTR _iWrappedDY$[ebp], eax

; 148  : 	int iDY = abs(iWrappedDY);

	mov	eax, DWORD PTR _iWrappedDY$[ebp]
	cdq
	xor	eax, edx
	sub	eax, edx
	mov	DWORD PTR _iDY$[ebp], eax

; 149  : 
; 150  : 	// convert to hex-space coordinates - the coordinate system axes are E and NE (not orthogonal)
; 151  : 	int iHX1 = xToHexspaceX(iX1, iY1);

	cmp	DWORD PTR _iY1$[ebp], 0
	jl	SHORT $LN35@plotDistan
	mov	edx, DWORD PTR _iY1$[ebp]
	sar	edx, 1
	mov	DWORD PTR tv135[ebp], edx
	jmp	SHORT $LN33@plotDistan
$LN35@plotDistan:
	mov	eax, DWORD PTR _iY1$[ebp]
	sub	eax, 1
	cdq
	sub	eax, edx
	sar	eax, 1
	mov	DWORD PTR tv135[ebp], eax
$LN33@plotDistan:
	mov	eax, DWORD PTR _iX1$[ebp]
	sub	eax, DWORD PTR tv135[ebp]
	mov	DWORD PTR _iHX1$[ebp], eax

; 152  : 	int iHX2 = xToHexspaceX(iX1 + iWrappedDX, iY1 + iWrappedDY);

	mov	ecx, DWORD PTR _iY1$[ebp]
	add	ecx, DWORD PTR _iWrappedDY$[ebp]
	mov	DWORD PTR $T238495[ebp], ecx
	js	SHORT $LN39@plotDistan
	mov	edx, DWORD PTR $T238495[ebp]
	sar	edx, 1
	mov	DWORD PTR tv138[ebp], edx
	jmp	SHORT $LN37@plotDistan
$LN39@plotDistan:
	mov	eax, DWORD PTR $T238495[ebp]
	sub	eax, 1
	cdq
	sub	eax, edx
	sar	eax, 1
	mov	DWORD PTR tv138[ebp], eax
$LN37@plotDistan:
	mov	eax, DWORD PTR _iX1$[ebp]
	add	eax, DWORD PTR _iWrappedDX$[ebp]
	sub	eax, DWORD PTR tv138[ebp]
	mov	DWORD PTR _iHX2$[ebp], eax

; 153  : 
; 154  : 	iDX = abs(dxWrap(iHX2 - iHX1));

	mov	ecx, DWORD PTR _iHX2$[ebp]
	sub	ecx, DWORD PTR _iHX1$[ebp]
	push	ecx
	call	?dxWrap@@YAHH@Z				; dxWrap
	add	esp, 4
	cdq
	xor	eax, edx
	sub	eax, edx
	mov	DWORD PTR _iDX$[ebp], eax

; 155  : 
; 156  : #ifdef NQM_GAME_CORE_UTILS_OPTIMIZATIONS
; 157  : 	if (((iHX2 - iHX1) ^ (iWrappedDY)) >= 0)  // the signs match
; 158  : #else
; 159  : 	if((iHX2 - iHX1 >= 0) == (iWrappedDY >= 0))  // the signs match

	mov	edx, DWORD PTR _iHX2$[ebp]
	sub	edx, DWORD PTR _iHX1$[ebp]
	xor	eax, eax
	test	edx, edx
	setge	al
	xor	ecx, ecx
	cmp	DWORD PTR _iWrappedDY$[ebp], 0
	setge	cl
	cmp	eax, ecx
	jne	SHORT $LN2@plotDistan

; 160  : #endif
; 161  : 	{
; 162  : 		return iDX + iDY;

	mov	eax, DWORD PTR _iDX$[ebp]
	add	eax, DWORD PTR _iDY$[ebp]
	jmp	SHORT $LN3@plotDistan

; 163  : 	}
; 164  : 	else

	jmp	SHORT $LN3@plotDistan
$LN2@plotDistan:

; 165  : 	{
; 166  : #ifdef NQM_FAST_COMP
; 167  : 		return (MAX(iDX, iDY));
; 168  : #else
; 169  : 		return (std::max(iDX, iDY));

	mov	edx, DWORD PTR _iDX$[ebp]
	cmp	edx, DWORD PTR _iDY$[ebp]
	jge	SHORT $LN57@plotDistan
	lea	eax, DWORD PTR _iDY$[ebp]
	mov	DWORD PTR tv157[ebp], eax
	jmp	SHORT $LN58@plotDistan
$LN57@plotDistan:
	lea	ecx, DWORD PTR _iDX$[ebp]
	mov	DWORD PTR tv157[ebp], ecx
$LN58@plotDistan:
	mov	edx, DWORD PTR tv157[ebp]
	mov	DWORD PTR $T238522[ebp], edx
	mov	eax, DWORD PTR $T238522[ebp]
	mov	eax, DWORD PTR [eax]
$LN3@plotDistan:

; 170  : #endif
; 171  : 	}
; 172  : }

	mov	esp, ebp
	pop	ebp
	ret	0
?plotDistance@@YAHHHHH@Z ENDP				; plotDistance
_TEXT	ENDS
PUBLIC	?findUnit@CvMap@@QAEPAVCvUnit@@HHW4PlayerTypes@@_N1@Z ; CvMap::findUnit
EXTRN	?AI_getUnitAIType@CvUnit@@QBE?AW4UnitAITypes@@XZ:PROC ; CvUnit::AI_getUnitAIType
EXTRN	?ReadyToSelect@CvUnit@@QBE_NXZ:PROC		; CvUnit::ReadyToSelect
EXTRN	?nextUnit@CvPlayer@@QAEPAVCvUnit@@PAH_N@Z:PROC	; CvPlayer::nextUnit
EXTRN	?firstUnit@CvPlayer@@QAEPAVCvUnit@@PAH_N@Z:PROC	; CvPlayer::firstUnit
; Function compile flags: /Odtp
; File d:\sources\lekmod_git\checkout\lekmod_dll\cvgamecoredll_expansion2\cvmap.cpp
;	COMDAT ?findUnit@CvMap@@QAEPAVCvUnit@@HHW4PlayerTypes@@_N1@Z
_TEXT	SEGMENT
_this$ = -124						; size = 4
$T238556 = -40						; size = 4
$T238547 = -36						; size = 4
$T238538 = -29						; size = 1
_thisPlayer$235151 = -28				; size = 4
_pBestUnit$ = -24					; size = 4
_iBestValue$ = -20					; size = 4
_pLoopUnit$ = -16					; size = 4
_iI$ = -12						; size = 4
_iValue$ = -8						; size = 4
_iLoop$ = -4						; size = 4
_iX$ = 8						; size = 4
_iY$ = 12						; size = 4
_eOwner$ = 16						; size = 4
_bReadyToSelect$ = 20					; size = 1
_bWorkers$ = 24						; size = 1
?findUnit@CvMap@@QAEPAVCvUnit@@HHW4PlayerTypes@@_N1@Z PROC ; CvMap::findUnit, COMDAT
; _this$ = ecx

; 1059 : {

	push	ebp
	mov	ebp, esp
	sub	esp, 124				; 0000007cH
	mov	DWORD PTR _this$[ebp], ecx

; 1060 : 	CvUnit* pLoopUnit;
; 1061 : 	CvUnit* pBestUnit;
; 1062 : 	int iValue;
; 1063 : 	int iBestValue;
; 1064 : 	int iLoop;
; 1065 : 	int iI;
; 1066 : 
; 1067 : 	iBestValue = INT_MAX;

	mov	DWORD PTR _iBestValue$[ebp], 2147483647	; 7fffffffH

; 1068 : 	pBestUnit = NULL;

	mov	DWORD PTR _pBestUnit$[ebp], 0

; 1069 : 
; 1070 : 	for(iI = 0; iI < MAX_PLAYERS; iI++)

	mov	DWORD PTR _iI$[ebp], 0
	jmp	SHORT $LN14@findUnit
$LN13@findUnit:
	mov	eax, DWORD PTR _iI$[ebp]
	add	eax, 1
	mov	DWORD PTR _iI$[ebp], eax
$LN14@findUnit:
	cmp	DWORD PTR _iI$[ebp], 64			; 00000040H
	jge	$LN12@findUnit

; 1071 : 	{
; 1072 : 		CvPlayer& thisPlayer = GET_PLAYER((PlayerTypes)iI);

	mov	ecx, DWORD PTR _iI$[ebp]
	imul	ecx, 63236				; 0000f704H
	add	ecx, DWORD PTR ?m_aPlayers@CvPlayerAI@@1PAV1@A ; CvPlayerAI::m_aPlayers
	mov	DWORD PTR _thisPlayer$235151[ebp], ecx

; 1073 : 		if(thisPlayer.isAlive())

	mov	edx, DWORD PTR _thisPlayer$235151[ebp]
	mov	al, BYTE PTR [edx+2256]
	mov	BYTE PTR $T238538[ebp], al
	movzx	ecx, BYTE PTR $T238538[ebp]
	test	ecx, ecx
	je	$LN11@findUnit

; 1074 : 		{
; 1075 : 			if((eOwner == NO_PLAYER) || (iI == eOwner))

	cmp	DWORD PTR _eOwner$[ebp], -1
	je	SHORT $LN9@findUnit
	mov	edx, DWORD PTR _iI$[ebp]
	cmp	edx, DWORD PTR _eOwner$[ebp]
	jne	$LN11@findUnit
$LN9@findUnit:

; 1076 : 			{
; 1077 : 				for(pLoopUnit = thisPlayer.firstUnit(&iLoop); pLoopUnit != NULL; pLoopUnit = thisPlayer.nextUnit(&iLoop))

	push	0
	lea	eax, DWORD PTR _iLoop$[ebp]
	push	eax
	mov	ecx, DWORD PTR _thisPlayer$235151[ebp]
	call	?firstUnit@CvPlayer@@QAEPAVCvUnit@@PAH_N@Z ; CvPlayer::firstUnit
	mov	DWORD PTR _pLoopUnit$[ebp], eax
	jmp	SHORT $LN8@findUnit
$LN7@findUnit:
	push	0
	lea	ecx, DWORD PTR _iLoop$[ebp]
	push	ecx
	mov	ecx, DWORD PTR _thisPlayer$235151[ebp]
	call	?nextUnit@CvPlayer@@QAEPAVCvUnit@@PAH_N@Z ; CvPlayer::nextUnit
	mov	DWORD PTR _pLoopUnit$[ebp], eax
$LN8@findUnit:
	cmp	DWORD PTR _pLoopUnit$[ebp], 0
	je	SHORT $LN11@findUnit

; 1078 : 				{
; 1079 : 					if(!bReadyToSelect || pLoopUnit->ReadyToSelect())

	movzx	edx, BYTE PTR _bReadyToSelect$[ebp]
	test	edx, edx
	je	SHORT $LN4@findUnit
	mov	ecx, DWORD PTR _pLoopUnit$[ebp]
	call	?ReadyToSelect@CvUnit@@QBE_NXZ		; CvUnit::ReadyToSelect
	movzx	eax, al
	test	eax, eax
	je	SHORT $LN5@findUnit
$LN4@findUnit:

; 1080 : 					{
; 1081 : 						if(!bWorkers || pLoopUnit->AI_getUnitAIType() == UNITAI_WORKER || pLoopUnit->AI_getUnitAIType() == UNITAI_WORKER_SEA)

	movzx	ecx, BYTE PTR _bWorkers$[ebp]
	test	ecx, ecx
	je	SHORT $LN25@findUnit
	mov	ecx, DWORD PTR _pLoopUnit$[ebp]
	call	?AI_getUnitAIType@CvUnit@@QBE?AW4UnitAITypes@@XZ ; CvUnit::AI_getUnitAIType
	cmp	eax, 2
	je	SHORT $LN25@findUnit
	mov	ecx, DWORD PTR _pLoopUnit$[ebp]
	call	?AI_getUnitAIType@CvUnit@@QBE?AW4UnitAITypes@@XZ ; CvUnit::AI_getUnitAIType
	cmp	eax, 17					; 00000011H
	jne	SHORT $LN5@findUnit

; 1082 : 						{
; 1083 : 							iValue = plotDistance(iX, iY, pLoopUnit->getX(), pLoopUnit->getY());

$LN25@findUnit:
	mov	edx, DWORD PTR _pLoopUnit$[ebp]
	mov	eax, DWORD PTR [edx+88]
	mov	DWORD PTR $T238547[ebp], eax
	mov	ecx, DWORD PTR _pLoopUnit$[ebp]
	mov	edx, DWORD PTR [ecx+76]
	mov	DWORD PTR $T238556[ebp], edx
	mov	eax, DWORD PTR $T238547[ebp]
	push	eax
	mov	ecx, DWORD PTR $T238556[ebp]
	push	ecx
	mov	edx, DWORD PTR _iY$[ebp]
	push	edx
	mov	eax, DWORD PTR _iX$[ebp]
	push	eax
	call	?plotDistance@@YAHHHHH@Z		; plotDistance
	add	esp, 16					; 00000010H
	mov	DWORD PTR _iValue$[ebp], eax

; 1084 : 
; 1085 : 							if(iValue < iBestValue)

	mov	ecx, DWORD PTR _iValue$[ebp]
	cmp	ecx, DWORD PTR _iBestValue$[ebp]
	jge	SHORT $LN5@findUnit

; 1086 : 							{
; 1087 : 								iBestValue = iValue;

	mov	edx, DWORD PTR _iValue$[ebp]
	mov	DWORD PTR _iBestValue$[ebp], edx

; 1088 : 								pBestUnit = pLoopUnit;

	mov	eax, DWORD PTR _pLoopUnit$[ebp]
	mov	DWORD PTR _pBestUnit$[ebp], eax
$LN5@findUnit:

; 1089 : 							}
; 1090 : 						}
; 1091 : 					}
; 1092 : 				}

	jmp	$LN7@findUnit
$LN11@findUnit:

; 1093 : 			}
; 1094 : 		}
; 1095 : 	}

	jmp	$LN13@findUnit
$LN12@findUnit:

; 1096 : 
; 1097 : 	return pBestUnit;

	mov	eax, DWORD PTR _pBestUnit$[ebp]

; 1098 : }

	mov	esp, ebp
	pop	ebp
	ret	20					; 00000014H
?findUnit@CvMap@@QAEPAVCvUnit@@HHW4PlayerTypes@@_N1@Z ENDP ; CvMap::findUnit
_TEXT	ENDS
PUBLIC	?findNearestStartPlot@CvMap@@QAEPAVCvPlot@@HHAAW4PlayerTypes@@@Z ; CvMap::findNearestStartPlot
EXTRN	?getStartingPlot@CvPlayer@@QBEPAVCvPlot@@XZ:PROC ; CvPlayer::getStartingPlot
; Function compile flags: /Odtp
;	COMDAT ?findNearestStartPlot@CvMap@@QAEPAVCvPlot@@HHAAW4PlayerTypes@@@Z
_TEXT	SEGMENT
_this$ = -120						; size = 4
$T238663 = -36						; size = 4
$T238659 = -32						; size = 4
$T238655 = -25						; size = 1
_pStartPlot$235180 = -24				; size = 4
_thisPlayer$235177 = -20				; size = 4
_pBestStartPlot$ = -16					; size = 4
_iBestValue$ = -12					; size = 4
_iI$ = -8						; size = 4
_iValue$ = -4						; size = 4
_iX$ = 8						; size = 4
_iY$ = 12						; size = 4
_eOwner$ = 16						; size = 4
?findNearestStartPlot@CvMap@@QAEPAVCvPlot@@HHAAW4PlayerTypes@@@Z PROC ; CvMap::findNearestStartPlot, COMDAT
; _this$ = ecx

; 1103 : {

	push	ebp
	mov	ebp, esp
	sub	esp, 120				; 00000078H
	mov	DWORD PTR _this$[ebp], ecx

; 1104 : 	eOwner = NO_PLAYER;

	mov	eax, DWORD PTR _eOwner$[ebp]
	mov	DWORD PTR [eax], -1

; 1105 : 	int iValue;
; 1106 : 	int iBestValue;
; 1107 : 	int iI;
; 1108 : 	CvPlot* pBestStartPlot = 0;

	mov	DWORD PTR _pBestStartPlot$[ebp], 0

; 1109 : 
; 1110 : 	iBestValue = INT_MAX;

	mov	DWORD PTR _iBestValue$[ebp], 2147483647	; 7fffffffH

; 1111 : 
; 1112 : 	for(iI = 0; iI < MAX_PLAYERS; iI++)

	mov	DWORD PTR _iI$[ebp], 0
	jmp	SHORT $LN6@findNeares
$LN5@findNeares:
	mov	ecx, DWORD PTR _iI$[ebp]
	add	ecx, 1
	mov	DWORD PTR _iI$[ebp], ecx
$LN6@findNeares:
	cmp	DWORD PTR _iI$[ebp], 64			; 00000040H
	jge	$LN4@findNeares

; 1113 : 	{
; 1114 : 		CvPlayer& thisPlayer = GET_PLAYER((PlayerTypes)iI);

	mov	edx, DWORD PTR _iI$[ebp]
	imul	edx, 63236				; 0000f704H
	add	edx, DWORD PTR ?m_aPlayers@CvPlayerAI@@1PAV1@A ; CvPlayerAI::m_aPlayers
	mov	DWORD PTR _thisPlayer$235177[ebp], edx

; 1115 : 		if(thisPlayer.isEverAlive())

	mov	eax, DWORD PTR _thisPlayer$235177[ebp]
	mov	cl, BYTE PTR [eax+2268]
	mov	BYTE PTR $T238655[ebp], cl
	movzx	edx, BYTE PTR $T238655[ebp]
	test	edx, edx
	je	SHORT $LN3@findNeares

; 1116 : 		{
; 1117 : 			CvPlot* pStartPlot = thisPlayer.getStartingPlot();

	mov	ecx, DWORD PTR _thisPlayer$235177[ebp]
	call	?getStartingPlot@CvPlayer@@QBEPAVCvPlot@@XZ ; CvPlayer::getStartingPlot
	mov	DWORD PTR _pStartPlot$235180[ebp], eax

; 1118 : 			if (pStartPlot)

	cmp	DWORD PTR _pStartPlot$235180[ebp], 0
	je	SHORT $LN3@findNeares

; 1119 : 			{
; 1120 : 				iValue = plotDistance(iX, iY, pStartPlot->getX(), pStartPlot->getY());

	mov	eax, DWORD PTR _pStartPlot$235180[ebp]
	movsx	ecx, WORD PTR [eax+2]
	mov	DWORD PTR $T238659[ebp], ecx
	mov	edx, DWORD PTR _pStartPlot$235180[ebp]
	movsx	eax, WORD PTR [edx]
	mov	DWORD PTR $T238663[ebp], eax
	mov	ecx, DWORD PTR $T238659[ebp]
	push	ecx
	mov	edx, DWORD PTR $T238663[ebp]
	push	edx
	mov	eax, DWORD PTR _iY$[ebp]
	push	eax
	mov	ecx, DWORD PTR _iX$[ebp]
	push	ecx
	call	?plotDistance@@YAHHHHH@Z		; plotDistance
	add	esp, 16					; 00000010H
	mov	DWORD PTR _iValue$[ebp], eax

; 1121 : 				if(iValue < iBestValue)

	mov	edx, DWORD PTR _iValue$[ebp]
	cmp	edx, DWORD PTR _iBestValue$[ebp]
	jge	SHORT $LN3@findNeares

; 1122 : 				{
; 1123 : 					iBestValue = iValue;

	mov	eax, DWORD PTR _iValue$[ebp]
	mov	DWORD PTR _iBestValue$[ebp], eax

; 1124 : 					pBestStartPlot = pStartPlot;

	mov	ecx, DWORD PTR _pStartPlot$235180[ebp]
	mov	DWORD PTR _pBestStartPlot$[ebp], ecx

; 1125 : 					eOwner = static_cast<PlayerTypes>(iI);

	mov	edx, DWORD PTR _eOwner$[ebp]
	mov	eax, DWORD PTR _iI$[ebp]
	mov	DWORD PTR [edx], eax
$LN3@findNeares:

; 1126 : 				}
; 1127 : 			}
; 1128 : 		}
; 1129 : 	}

	jmp	$LN5@findNeares
$LN4@findNeares:

; 1130 : 	return pBestStartPlot;

	mov	eax, DWORD PTR _pBestStartPlot$[ebp]

; 1131 : }

	mov	esp, ebp
	pop	ebp
	ret	12					; 0000000cH
?findNearestStartPlot@CvMap@@QAEPAVCvPlot@@HHAAW4PlayerTypes@@@Z ENDP ; CvMap::findNearestStartPlot
_TEXT	ENDS
PUBLIC	?nextArea@CvMap@@QAEPAVCvArea@@PAH_N@Z		; CvMap::nextArea
PUBLIC	?firstArea@CvMap@@QAEPAVCvArea@@PAH_N@Z		; CvMap::firstArea
PUBLIC	?findBiggestArea@CvMap@@QAEPAVCvArea@@_N@Z	; CvMap::findBiggestArea
EXTRN	?getNumTiles@CvArea@@QBEHXZ:PROC		; CvArea::getNumTiles
EXTRN	?isWater@CvArea@@QBE_NXZ:PROC			; CvArea::isWater
; Function compile flags: /Odtp
;	COMDAT ?findBiggestArea@CvMap@@QAEPAVCvArea@@_N@Z
_TEXT	SEGMENT
_this$ = -24						; size = 4
_pBestArea$ = -20					; size = 4
_pLoopArea$ = -16					; size = 4
_iBestValue$ = -12					; size = 4
_iValue$ = -8						; size = 4
_iLoop$ = -4						; size = 4
_bWater$ = 8						; size = 1
?findBiggestArea@CvMap@@QAEPAVCvArea@@_N@Z PROC		; CvMap::findBiggestArea, COMDAT
; _this$ = ecx

; 1136 : {

	push	ebp
	mov	ebp, esp
	sub	esp, 24					; 00000018H
	mov	DWORD PTR _this$[ebp], ecx

; 1137 : 	CvArea* pLoopArea;
; 1138 : 	CvArea* pBestArea;
; 1139 : 	int iValue;
; 1140 : 	int iBestValue;
; 1141 : 	int iLoop;
; 1142 : 
; 1143 : 	iBestValue = 0;

	mov	DWORD PTR _iBestValue$[ebp], 0

; 1144 : 	pBestArea = NULL;

	mov	DWORD PTR _pBestArea$[ebp], 0

; 1145 : 
; 1146 : 	for(pLoopArea = firstArea(&iLoop); pLoopArea != NULL; pLoopArea = nextArea(&iLoop))

	push	0
	lea	eax, DWORD PTR _iLoop$[ebp]
	push	eax
	mov	ecx, DWORD PTR _this$[ebp]
	call	?firstArea@CvMap@@QAEPAVCvArea@@PAH_N@Z	; CvMap::firstArea
	mov	DWORD PTR _pLoopArea$[ebp], eax
	jmp	SHORT $LN5@findBigges
$LN4@findBigges:
	push	0
	lea	ecx, DWORD PTR _iLoop$[ebp]
	push	ecx
	mov	ecx, DWORD PTR _this$[ebp]
	call	?nextArea@CvMap@@QAEPAVCvArea@@PAH_N@Z	; CvMap::nextArea
	mov	DWORD PTR _pLoopArea$[ebp], eax
$LN5@findBigges:
	cmp	DWORD PTR _pLoopArea$[ebp], 0
	je	SHORT $LN3@findBigges

; 1147 : 	{
; 1148 : 		if(pLoopArea->isWater() == bWater)

	mov	ecx, DWORD PTR _pLoopArea$[ebp]
	call	?isWater@CvArea@@QBE_NXZ		; CvArea::isWater
	movzx	edx, al
	movzx	eax, BYTE PTR _bWater$[ebp]
	cmp	edx, eax
	jne	SHORT $LN2@findBigges

; 1149 : 		{
; 1150 : 			iValue = pLoopArea->getNumTiles();

	mov	ecx, DWORD PTR _pLoopArea$[ebp]
	call	?getNumTiles@CvArea@@QBEHXZ		; CvArea::getNumTiles
	mov	DWORD PTR _iValue$[ebp], eax

; 1151 : 
; 1152 : 			if(iValue > iBestValue)

	mov	ecx, DWORD PTR _iValue$[ebp]
	cmp	ecx, DWORD PTR _iBestValue$[ebp]
	jle	SHORT $LN2@findBigges

; 1153 : 			{
; 1154 : 				iBestValue = iValue;

	mov	edx, DWORD PTR _iValue$[ebp]
	mov	DWORD PTR _iBestValue$[ebp], edx

; 1155 : 				pBestArea = pLoopArea;

	mov	eax, DWORD PTR _pLoopArea$[ebp]
	mov	DWORD PTR _pBestArea$[ebp], eax
$LN2@findBigges:

; 1156 : 			}
; 1157 : 		}
; 1158 : 	}

	jmp	SHORT $LN4@findBigges
$LN3@findBigges:

; 1159 : 
; 1160 : 	return pBestArea;

	mov	eax, DWORD PTR _pBestArea$[ebp]

; 1161 : }

	mov	esp, ebp
	pop	ebp
	ret	4
?findBiggestArea@CvMap@@QAEPAVCvArea@@_N@Z ENDP		; CvMap::findBiggestArea
_TEXT	ENDS
PUBLIC	?getMapFractalFlags@CvMap@@QAEHXZ		; CvMap::getMapFractalFlags
; Function compile flags: /Odtp
;	COMDAT ?getMapFractalFlags@CvMap@@QAEHXZ
_TEXT	SEGMENT
_this$ = -16						; size = 4
$T238760 = -10						; size = 1
$T238756 = -9						; size = 1
_wrapY$ = -8						; size = 4
_wrapX$ = -4						; size = 4
?getMapFractalFlags@CvMap@@QAEHXZ PROC			; CvMap::getMapFractalFlags, COMDAT
; _this$ = ecx

; 1166 : {

	push	ebp
	mov	ebp, esp
	sub	esp, 16					; 00000010H
	mov	DWORD PTR _this$[ebp], ecx

; 1167 : 	int wrapX = 0;

	mov	DWORD PTR _wrapX$[ebp], 0

; 1168 : 	if(isWrapX())

	mov	eax, DWORD PTR _this$[ebp]
	mov	cl, BYTE PTR [eax+4056]
	mov	BYTE PTR $T238756[ebp], cl
	movzx	edx, BYTE PTR $T238756[ebp]
	test	edx, edx
	je	SHORT $LN2@getMapFrac

; 1169 : 	{
; 1170 : 		wrapX = (int)CvFractal::FRAC_WRAP_X;

	mov	DWORD PTR _wrapX$[ebp], 1
$LN2@getMapFrac:

; 1171 : 	}
; 1172 : 
; 1173 : 	int wrapY = 0;

	mov	DWORD PTR _wrapY$[ebp], 0

; 1174 : 	if(isWrapY())

	mov	eax, DWORD PTR _this$[ebp]
	mov	cl, BYTE PTR [eax+4057]
	mov	BYTE PTR $T238760[ebp], cl
	movzx	edx, BYTE PTR $T238760[ebp]
	test	edx, edx
	je	SHORT $LN1@getMapFrac

; 1175 : 	{
; 1176 : 		wrapY = (int)CvFractal::FRAC_WRAP_Y;

	mov	DWORD PTR _wrapY$[ebp], 2
$LN1@getMapFrac:

; 1177 : 	}
; 1178 : 
; 1179 : 	return (wrapX | wrapY);

	mov	eax, DWORD PTR _wrapX$[ebp]
	or	eax, DWORD PTR _wrapY$[ebp]

; 1180 : }

	mov	esp, ebp
	pop	ebp
	ret	0
?getMapFractalFlags@CvMap@@QAEHXZ ENDP			; CvMap::getMapFractalFlags
_TEXT	ENDS
PUBLIC	?findWater@CvMap@@QAE_NPAVCvPlot@@H_N@Z		; CvMap::findWater
EXTRN	?isFreshWater@CvPlot@@QBE_NXZ:PROC		; CvPlot::isFreshWater
; Function compile flags: /Odtp
;	COMDAT ?findWater@CvMap@@QAE_NPAVCvPlot@@H_N@Z
_TEXT	SEGMENT
_this$ = -100						; size = 4
_iDY$ = -20						; size = 4
_iDX$ = -16						; size = 4
_iPlotY$ = -12						; size = 4
_pLoopPlot$ = -8					; size = 4
_iPlotX$ = -4						; size = 4
_pPlot$ = 8						; size = 4
_iRange$ = 12						; size = 4
_bFreshWater$ = 16					; size = 1
?findWater@CvMap@@QAE_NPAVCvPlot@@H_N@Z PROC		; CvMap::findWater, COMDAT
; _this$ = ecx

; 1186 : {

	push	ebp
	mov	ebp, esp
	sub	esp, 100				; 00000064H
	mov	DWORD PTR _this$[ebp], ecx

; 1187 : 	CvPlot* pLoopPlot;
; 1188 : 	int iDX, iDY;
; 1189 : 	int iPlotX = pPlot->getX();

	mov	eax, DWORD PTR _pPlot$[ebp]
	movsx	ecx, WORD PTR [eax]
	mov	DWORD PTR _iPlotX$[ebp], ecx

; 1190 : 	int iPlotY = pPlot->getY();

	mov	edx, DWORD PTR _pPlot$[ebp]
	movsx	eax, WORD PTR [edx+2]
	mov	DWORD PTR _iPlotY$[ebp], eax

; 1191 : 
; 1192 : #ifdef AUI_HEXSPACE_DX_LOOPS
; 1193 : 	int iMaxDX;
; 1194 : 	for (iDY = -iRange; iDY <= iRange; iDY++)
; 1195 : 	{
; 1196 : 		iMaxDX = iRange - MAX(0, iDY);
; 1197 : 		for (iDX = -iRange - MIN(0, iDY); iDX <= iMaxDX; iDX++) // MIN() and MAX() stuff is to reduce loops (hexspace!)
; 1198 : 		{
; 1199 : 			// No need for range check because loops are set up properly
; 1200 : 			pLoopPlot = plotXY(iPlotX, iPlotY, iDX, iDY);
; 1201 : #else
; 1202 : 	for(iDX = -(iRange); iDX <= iRange; iDX++)

	mov	ecx, DWORD PTR _iRange$[ebp]
	neg	ecx
	mov	DWORD PTR _iDX$[ebp], ecx
	jmp	SHORT $LN11@findWater
$LN10@findWater:
	mov	edx, DWORD PTR _iDX$[ebp]
	add	edx, 1
	mov	DWORD PTR _iDX$[ebp], edx
$LN11@findWater:
	mov	eax, DWORD PTR _iDX$[ebp]
	cmp	eax, DWORD PTR _iRange$[ebp]
	jg	SHORT $LN9@findWater

; 1203 : 	{
; 1204 : 		for(iDY = -(iRange); iDY <= iRange; iDY++)

	mov	ecx, DWORD PTR _iRange$[ebp]
	neg	ecx
	mov	DWORD PTR _iDY$[ebp], ecx
	jmp	SHORT $LN8@findWater
$LN7@findWater:
	mov	edx, DWORD PTR _iDY$[ebp]
	add	edx, 1
	mov	DWORD PTR _iDY$[ebp], edx
$LN8@findWater:
	mov	eax, DWORD PTR _iDY$[ebp]
	cmp	eax, DWORD PTR _iRange$[ebp]
	jg	SHORT $LN6@findWater

; 1205 : 		{
; 1206 : 			pLoopPlot = plotXYWithRangeCheck(iPlotX, iPlotY, iDX, iDY, iRange);

	mov	ecx, DWORD PTR _iRange$[ebp]
	push	ecx
	mov	edx, DWORD PTR _iDY$[ebp]
	push	edx
	mov	eax, DWORD PTR _iDX$[ebp]
	push	eax
	mov	ecx, DWORD PTR _iPlotY$[ebp]
	push	ecx
	mov	edx, DWORD PTR _iPlotX$[ebp]
	push	edx
	call	?plotXYWithRangeCheck@@YAPAVCvPlot@@HHHHH@Z ; plotXYWithRangeCheck
	add	esp, 20					; 00000014H
	mov	DWORD PTR _pLoopPlot$[ebp], eax

; 1207 : #endif
; 1208 : 
; 1209 : 			if(pLoopPlot != NULL)

	cmp	DWORD PTR _pLoopPlot$[ebp], 0
	je	SHORT $LN5@findWater

; 1210 : 			{
; 1211 : 				if(bFreshWater)

	movzx	eax, BYTE PTR _bFreshWater$[ebp]
	test	eax, eax
	je	SHORT $LN83@findWater

; 1212 : 				{
; 1213 : 					if(pLoopPlot->isFreshWater())

	mov	ecx, DWORD PTR _pLoopPlot$[ebp]
	call	?isFreshWater@CvPlot@@QBE_NXZ		; CvPlot::isFreshWater
	movzx	ecx, al
	test	ecx, ecx
	je	SHORT $LN3@findWater

; 1214 : 					{
; 1215 : 						return true;

	mov	al, 1
	jmp	SHORT $LN12@findWater
$LN3@findWater:

; 1216 : 					}
; 1217 : 				}
; 1218 : 				else

	jmp	SHORT $LN5@findWater

; 1219 : 				{
; 1220 : 					if(pLoopPlot->isWater())

$LN83@findWater:
	mov	edx, DWORD PTR _pLoopPlot$[ebp]
	movsx	eax, BYTE PTR [edx+5]
	xor	ecx, ecx
	cmp	eax, 3
	sete	cl
	movzx	edx, cl
	test	edx, edx
	je	SHORT $LN5@findWater

; 1221 : 					{
; 1222 : 						return true;

	mov	al, 1
	jmp	SHORT $LN12@findWater
$LN5@findWater:

; 1223 : 					}
; 1224 : 				}
; 1225 : 			}
; 1226 : 		}

	jmp	SHORT $LN7@findWater
$LN6@findWater:

; 1227 : 	}

	jmp	$LN10@findWater
$LN9@findWater:

; 1228 : 
; 1229 : 	return false;

	xor	al, al
$LN12@findWater:

; 1230 : }

	mov	esp, ebp
	pop	ebp
	ret	12					; 0000000cH
?findWater@CvMap@@QAE_NPAVCvPlot@@H_N@Z ENDP		; CvMap::findWater
_TEXT	ENDS
PUBLIC	?plotX@CvMap@@QBEHH@Z				; CvMap::plotX
; Function compile flags: /Odtp
;	COMDAT ?plotX@CvMap@@QBEHH@Z
_TEXT	SEGMENT
_this$ = -8						; size = 4
$T238909 = -4						; size = 4
_iIndex$ = 8						; size = 4
?plotX@CvMap@@QBEHH@Z PROC				; CvMap::plotX, COMDAT
; _this$ = ecx

; 1234 : {

	push	ebp
	mov	ebp, esp
	sub	esp, 8
	mov	DWORD PTR _this$[ebp], ecx

; 1235 : 	return (iIndex % getGridWidth());

	mov	eax, DWORD PTR _this$[ebp]
	mov	ecx, DWORD PTR [eax+4020]
	mov	DWORD PTR $T238909[ebp], ecx
	mov	eax, DWORD PTR _iIndex$[ebp]
	cdq
	idiv	DWORD PTR $T238909[ebp]
	mov	eax, edx

; 1236 : }

	mov	esp, ebp
	pop	ebp
	ret	4
?plotX@CvMap@@QBEHH@Z ENDP				; CvMap::plotX
_TEXT	ENDS
PUBLIC	?plotY@CvMap@@QBEHH@Z				; CvMap::plotY
; Function compile flags: /Odtp
;	COMDAT ?plotY@CvMap@@QBEHH@Z
_TEXT	SEGMENT
_this$ = -8						; size = 4
$T238915 = -4						; size = 4
_iIndex$ = 8						; size = 4
?plotY@CvMap@@QBEHH@Z PROC				; CvMap::plotY, COMDAT
; _this$ = ecx

; 1241 : {

	push	ebp
	mov	ebp, esp
	sub	esp, 8
	mov	DWORD PTR _this$[ebp], ecx

; 1242 : 	return (iIndex / getGridWidth());

	mov	eax, DWORD PTR _this$[ebp]
	mov	ecx, DWORD PTR [eax+4020]
	mov	DWORD PTR $T238915[ebp], ecx
	mov	eax, DWORD PTR _iIndex$[ebp]
	cdq
	idiv	DWORD PTR $T238915[ebp]

; 1243 : }

	mov	esp, ebp
	pop	ebp
	ret	4
?plotY@CvMap@@QBEHH@Z ENDP				; CvMap::plotY
_TEXT	ENDS
PUBLIC	?maxPlotDistance@CvMap@@QAEHXZ			; CvMap::maxPlotDistance
; Function compile flags: /Odtp
;	COMDAT ?maxPlotDistance@CvMap@@QAEHXZ
_TEXT	SEGMENT
tv187 = -128						; size = 4
tv88 = -124						; size = 4
tv76 = -120						; size = 4
_this$ = -116						; size = 4
$T239030 = -112						; size = 4
$T238947 = -32						; size = 4
$T238943 = -28						; size = 4
$T238939 = -21						; size = 1
$T238935 = -20						; size = 4
$T238931 = -16						; size = 4
$T238927 = -9						; size = 1
$T238923 = -8						; size = 4
$T238918 = -4						; size = 4
?maxPlotDistance@CvMap@@QAEHXZ PROC			; CvMap::maxPlotDistance, COMDAT
; _this$ = ecx

; 1248 : {

	push	ebp
	mov	ebp, esp
	sub	esp, 128				; 00000080H
	mov	DWORD PTR _this$[ebp], ecx

; 1249 : #ifdef NQM_FAST_COMP
; 1250 : 	return MAX(1, plotDistance(0, 0, ((isWrapX()) ? (getGridWidth() / 2) : (getGridWidth() - 1)), ((isWrapY()) ? (getGridHeight() / 2) : (getGridHeight() - 1))));
; 1251 : #else
; 1252 : 	return std::max(1, plotDistance(0, 0, ((isWrapX()) ? (getGridWidth() / 2) : (getGridWidth() - 1)), ((isWrapY()) ? (getGridHeight() / 2) : (getGridHeight() - 1))));

	mov	eax, DWORD PTR _this$[ebp]
	mov	cl, BYTE PTR [eax+4057]
	mov	BYTE PTR $T238927[ebp], cl
	movzx	edx, BYTE PTR $T238927[ebp]
	test	edx, edx
	je	SHORT $LN3@maxPlotDis
	mov	eax, DWORD PTR _this$[ebp]
	mov	ecx, DWORD PTR [eax+4024]
	mov	DWORD PTR $T238931[ebp], ecx
	mov	eax, DWORD PTR $T238931[ebp]
	cdq
	sub	eax, edx
	sar	eax, 1
	mov	DWORD PTR tv76[ebp], eax
	jmp	SHORT $LN4@maxPlotDis
$LN3@maxPlotDis:
	mov	edx, DWORD PTR _this$[ebp]
	mov	eax, DWORD PTR [edx+4024]
	mov	DWORD PTR $T238935[ebp], eax
	mov	ecx, DWORD PTR $T238935[ebp]
	sub	ecx, 1
	mov	DWORD PTR tv76[ebp], ecx
$LN4@maxPlotDis:
	mov	edx, DWORD PTR _this$[ebp]
	mov	al, BYTE PTR [edx+4056]
	mov	BYTE PTR $T238939[ebp], al
	movzx	ecx, BYTE PTR $T238939[ebp]
	test	ecx, ecx
	je	SHORT $LN5@maxPlotDis
	mov	edx, DWORD PTR _this$[ebp]
	mov	eax, DWORD PTR [edx+4020]
	mov	DWORD PTR $T238943[ebp], eax
	mov	eax, DWORD PTR $T238943[ebp]
	cdq
	sub	eax, edx
	sar	eax, 1
	mov	DWORD PTR tv88[ebp], eax
	jmp	SHORT $LN6@maxPlotDis
$LN5@maxPlotDis:
	mov	ecx, DWORD PTR _this$[ebp]
	mov	edx, DWORD PTR [ecx+4020]
	mov	DWORD PTR $T238947[ebp], edx
	mov	eax, DWORD PTR $T238947[ebp]
	sub	eax, 1
	mov	DWORD PTR tv88[ebp], eax
$LN6@maxPlotDis:
	mov	ecx, DWORD PTR tv76[ebp]
	push	ecx
	mov	edx, DWORD PTR tv88[ebp]
	push	edx
	push	0
	push	0
	call	?plotDistance@@YAHHHHH@Z		; plotDistance
	add	esp, 16					; 00000010H
	mov	DWORD PTR $T238918[ebp], eax
	mov	DWORD PTR $T238923[ebp], 1
	mov	eax, DWORD PTR $T238923[ebp]
	cmp	eax, DWORD PTR $T238918[ebp]
	jge	SHORT $LN73@maxPlotDis
	lea	ecx, DWORD PTR $T238918[ebp]
	mov	DWORD PTR tv187[ebp], ecx
	jmp	SHORT $LN74@maxPlotDis
$LN73@maxPlotDis:
	lea	edx, DWORD PTR $T238923[ebp]
	mov	DWORD PTR tv187[ebp], edx
$LN74@maxPlotDis:
	mov	eax, DWORD PTR tv187[ebp]
	mov	DWORD PTR $T239030[ebp], eax
	mov	ecx, DWORD PTR $T239030[ebp]
	mov	eax, DWORD PTR [ecx]

; 1253 : #endif
; 1254 : }

	mov	esp, ebp
	pop	ebp
	ret	0
?maxPlotDistance@CvMap@@QAEHXZ ENDP			; CvMap::maxPlotDistance
_TEXT	ENDS
PUBLIC	?getLandPlots@CvMap@@QAEHXZ			; CvMap::getLandPlots
; Function compile flags: /Odtp
;	COMDAT ?getLandPlots@CvMap@@QAEHXZ
_TEXT	SEGMENT
_this$ = -4						; size = 4
?getLandPlots@CvMap@@QAEHXZ PROC			; CvMap::getLandPlots, COMDAT
; _this$ = ecx

; 1262 : {

	push	ebp
	mov	ebp, esp
	push	ecx
	mov	DWORD PTR _this$[ebp], ecx

; 1263 : 	return m_iLandPlots;

	mov	eax, DWORD PTR _this$[ebp]
	mov	eax, DWORD PTR [eax+4032]

; 1264 : }

	mov	esp, ebp
	pop	ebp
	ret	0
?getLandPlots@CvMap@@QAEHXZ ENDP			; CvMap::getLandPlots
_TEXT	ENDS
PUBLIC	?changeLandPlots@CvMap@@QAEXH@Z			; CvMap::changeLandPlots
; Function compile flags: /Odtp
;	COMDAT ?changeLandPlots@CvMap@@QAEXH@Z
_TEXT	SEGMENT
_this$ = -4						; size = 4
_iChange$ = 8						; size = 4
?changeLandPlots@CvMap@@QAEXH@Z PROC			; CvMap::changeLandPlots, COMDAT
; _this$ = ecx

; 1269 : {

	push	ebp
	mov	ebp, esp
	push	ecx
	mov	DWORD PTR _this$[ebp], ecx

; 1270 : #ifdef AUI_WARNING_FIXES
; 1271 : 	if (iChange < 0)
; 1272 : 		m_iLandPlots = (m_iLandPlots - abs(iChange));
; 1273 : 	else
; 1274 : #endif
; 1275 : 	m_iLandPlots = (m_iLandPlots + iChange);

	mov	eax, DWORD PTR _this$[ebp]
	mov	ecx, DWORD PTR [eax+4032]
	add	ecx, DWORD PTR _iChange$[ebp]
	mov	edx, DWORD PTR _this$[ebp]
	mov	DWORD PTR [edx+4032], ecx

; 1276 : 	CvAssert(getLandPlots() >= 0);
; 1277 : }

	mov	esp, ebp
	pop	ebp
	ret	4
?changeLandPlots@CvMap@@QAEXH@Z ENDP			; CvMap::changeLandPlots
_TEXT	ENDS
PUBLIC	?getOwnedPlots@CvMap@@QAEHXZ			; CvMap::getOwnedPlots
; Function compile flags: /Odtp
;	COMDAT ?getOwnedPlots@CvMap@@QAEHXZ
_TEXT	SEGMENT
_this$ = -4						; size = 4
?getOwnedPlots@CvMap@@QAEHXZ PROC			; CvMap::getOwnedPlots, COMDAT
; _this$ = ecx

; 1286 : {

	push	ebp
	mov	ebp, esp
	push	ecx
	mov	DWORD PTR _this$[ebp], ecx

; 1287 : 	return m_iOwnedPlots;

	mov	eax, DWORD PTR _this$[ebp]
	mov	eax, DWORD PTR [eax+4036]

; 1288 : }

	mov	esp, ebp
	pop	ebp
	ret	0
?getOwnedPlots@CvMap@@QAEHXZ ENDP			; CvMap::getOwnedPlots
_TEXT	ENDS
PUBLIC	?changeOwnedPlots@CvMap@@QAEXH@Z		; CvMap::changeOwnedPlots
; Function compile flags: /Odtp
;	COMDAT ?changeOwnedPlots@CvMap@@QAEXH@Z
_TEXT	SEGMENT
_this$ = -4						; size = 4
_iChange$ = 8						; size = 4
?changeOwnedPlots@CvMap@@QAEXH@Z PROC			; CvMap::changeOwnedPlots, COMDAT
; _this$ = ecx

; 1293 : {

	push	ebp
	mov	ebp, esp
	push	ecx
	mov	DWORD PTR _this$[ebp], ecx

; 1294 : #ifdef AUI_WARNING_FIXES
; 1295 : 	if (iChange < 0)
; 1296 : 		m_iOwnedPlots = (m_iOwnedPlots - abs(iChange));
; 1297 : 	else
; 1298 : #endif
; 1299 : 	m_iOwnedPlots = (m_iOwnedPlots + iChange);

	mov	eax, DWORD PTR _this$[ebp]
	mov	ecx, DWORD PTR [eax+4036]
	add	ecx, DWORD PTR _iChange$[ebp]
	mov	edx, DWORD PTR _this$[ebp]
	mov	DWORD PTR [edx+4036], ecx

; 1300 : 	CvAssert(getOwnedPlots() >= 0);
; 1301 : }

	mov	esp, ebp
	pop	ebp
	ret	4
?changeOwnedPlots@CvMap@@QAEXH@Z ENDP			; CvMap::changeOwnedPlots
_TEXT	ENDS
PUBLIC	?getTopLatitude@CvMap@@QAEHXZ			; CvMap::getTopLatitude
; Function compile flags: /Odtp
;	COMDAT ?getTopLatitude@CvMap@@QAEHXZ
_TEXT	SEGMENT
_this$ = -4						; size = 4
?getTopLatitude@CvMap@@QAEHXZ PROC			; CvMap::getTopLatitude, COMDAT
; _this$ = ecx

; 1306 : {

	push	ebp
	mov	ebp, esp
	push	ecx
	mov	DWORD PTR _this$[ebp], ecx

; 1307 : 	return m_iTopLatitude;

	mov	eax, DWORD PTR _this$[ebp]
	mov	eax, DWORD PTR [eax+4040]

; 1308 : }

	mov	esp, ebp
	pop	ebp
	ret	0
?getTopLatitude@CvMap@@QAEHXZ ENDP			; CvMap::getTopLatitude
_TEXT	ENDS
PUBLIC	?getBottomLatitude@CvMap@@QAEHXZ		; CvMap::getBottomLatitude
; Function compile flags: /Odtp
;	COMDAT ?getBottomLatitude@CvMap@@QAEHXZ
_TEXT	SEGMENT
_this$ = -4						; size = 4
?getBottomLatitude@CvMap@@QAEHXZ PROC			; CvMap::getBottomLatitude, COMDAT
; _this$ = ecx

; 1313 : {

	push	ebp
	mov	ebp, esp
	push	ecx
	mov	DWORD PTR _this$[ebp], ecx

; 1314 : 	return m_iBottomLatitude;

	mov	eax, DWORD PTR _this$[ebp]
	mov	eax, DWORD PTR [eax+4044]

; 1315 : }

	mov	esp, ebp
	pop	ebp
	ret	0
?getBottomLatitude@CvMap@@QAEHXZ ENDP			; CvMap::getBottomLatitude
_TEXT	ENDS
PUBLIC	?getWorldSize@CvMap@@QAE?AW4WorldSizeTypes@@XZ	; CvMap::getWorldSize
; Function compile flags: /Odtp
;	COMDAT ?getWorldSize@CvMap@@QAE?AW4WorldSizeTypes@@XZ
_TEXT	SEGMENT
_this$ = -4						; size = 4
?getWorldSize@CvMap@@QAE?AW4WorldSizeTypes@@XZ PROC	; CvMap::getWorldSize, COMDAT
; _this$ = ecx

; 1319 : {

	push	ebp
	mov	ebp, esp
	push	ecx
	mov	DWORD PTR _this$[ebp], ecx

; 1320 : 	return CvPreGame::worldSize();

	call	?worldSize@CvPreGame@@YA?AW4WorldSizeTypes@@XZ ; CvPreGame::worldSize

; 1321 : }

	mov	esp, ebp
	pop	ebp
	ret	0
?getWorldSize@CvMap@@QAE?AW4WorldSizeTypes@@XZ ENDP	; CvMap::getWorldSize
_TEXT	ENDS
EXTRN	?worldInfo@CvPreGame@@YAABVCvWorldInfo@@XZ:PROC	; CvPreGame::worldInfo
; Function compile flags: /Odtp
;	COMDAT ?getWorldInfo@CvMap@@QBEABVCvWorldInfo@@XZ
_TEXT	SEGMENT
_this$ = -4						; size = 4
?getWorldInfo@CvMap@@QBEABVCvWorldInfo@@XZ PROC		; CvMap::getWorldInfo, COMDAT
; _this$ = ecx

; 1325 : {

	push	ebp
	mov	ebp, esp
	push	ecx
	mov	DWORD PTR _this$[ebp], ecx

; 1326 : 	return CvPreGame::worldInfo();

	call	?worldInfo@CvPreGame@@YAABVCvWorldInfo@@XZ ; CvPreGame::worldInfo

; 1327 : }

	mov	esp, ebp
	pop	ebp
	ret	0
?getWorldInfo@CvMap@@QBEABVCvWorldInfo@@XZ ENDP		; CvMap::getWorldInfo
_TEXT	ENDS
PUBLIC	?getClimate@CvMap@@QAE?AW4ClimateTypes@@XZ	; CvMap::getClimate
EXTRN	?climate@CvPreGame@@YA?AW4ClimateTypes@@XZ:PROC	; CvPreGame::climate
; Function compile flags: /Odtp
;	COMDAT ?getClimate@CvMap@@QAE?AW4ClimateTypes@@XZ
_TEXT	SEGMENT
_this$ = -4						; size = 4
?getClimate@CvMap@@QAE?AW4ClimateTypes@@XZ PROC		; CvMap::getClimate, COMDAT
; _this$ = ecx

; 1331 : {

	push	ebp
	mov	ebp, esp
	push	ecx
	mov	DWORD PTR _this$[ebp], ecx

; 1332 : 	return CvPreGame::climate();

	call	?climate@CvPreGame@@YA?AW4ClimateTypes@@XZ ; CvPreGame::climate

; 1333 : }

	mov	esp, ebp
	pop	ebp
	ret	0
?getClimate@CvMap@@QAE?AW4ClimateTypes@@XZ ENDP		; CvMap::getClimate
_TEXT	ENDS
EXTRN	?climateInfo@CvPreGame@@YAABVCvClimateInfo@@XZ:PROC ; CvPreGame::climateInfo
; Function compile flags: /Odtp
;	COMDAT ?getClimateInfo@CvMap@@QBEABVCvClimateInfo@@XZ
_TEXT	SEGMENT
_this$ = -4						; size = 4
?getClimateInfo@CvMap@@QBEABVCvClimateInfo@@XZ PROC	; CvMap::getClimateInfo, COMDAT
; _this$ = ecx

; 1337 : {

	push	ebp
	mov	ebp, esp
	push	ecx
	mov	DWORD PTR _this$[ebp], ecx

; 1338 : 	return CvPreGame::climateInfo();

	call	?climateInfo@CvPreGame@@YAABVCvClimateInfo@@XZ ; CvPreGame::climateInfo

; 1339 : }

	mov	esp, ebp
	pop	ebp
	ret	0
?getClimateInfo@CvMap@@QBEABVCvClimateInfo@@XZ ENDP	; CvMap::getClimateInfo
_TEXT	ENDS
PUBLIC	?getSeaLevel@CvMap@@QAE?AW4SeaLevelTypes@@XZ	; CvMap::getSeaLevel
EXTRN	?seaLevel@CvPreGame@@YA?AW4SeaLevelTypes@@XZ:PROC ; CvPreGame::seaLevel
; Function compile flags: /Odtp
;	COMDAT ?getSeaLevel@CvMap@@QAE?AW4SeaLevelTypes@@XZ
_TEXT	SEGMENT
_this$ = -4						; size = 4
?getSeaLevel@CvMap@@QAE?AW4SeaLevelTypes@@XZ PROC	; CvMap::getSeaLevel, COMDAT
; _this$ = ecx

; 1343 : {

	push	ebp
	mov	ebp, esp
	push	ecx
	mov	DWORD PTR _this$[ebp], ecx

; 1344 : 	return CvPreGame::seaLevel();

	call	?seaLevel@CvPreGame@@YA?AW4SeaLevelTypes@@XZ ; CvPreGame::seaLevel

; 1345 : }

	mov	esp, ebp
	pop	ebp
	ret	0
?getSeaLevel@CvMap@@QAE?AW4SeaLevelTypes@@XZ ENDP	; CvMap::getSeaLevel
_TEXT	ENDS
EXTRN	?seaLevelInfo@CvPreGame@@YAABVCvSeaLevelInfo@@XZ:PROC ; CvPreGame::seaLevelInfo
; Function compile flags: /Odtp
;	COMDAT ?getSeaLevelInfo@CvMap@@QBEABVCvSeaLevelInfo@@XZ
_TEXT	SEGMENT
_this$ = -4						; size = 4
?getSeaLevelInfo@CvMap@@QBEABVCvSeaLevelInfo@@XZ PROC	; CvMap::getSeaLevelInfo, COMDAT
; _this$ = ecx

; 1349 : {

	push	ebp
	mov	ebp, esp
	push	ecx
	mov	DWORD PTR _this$[ebp], ecx

; 1350 : 	return CvPreGame::seaLevelInfo();

	call	?seaLevelInfo@CvPreGame@@YAABVCvSeaLevelInfo@@XZ ; CvPreGame::seaLevelInfo

; 1351 : }

	mov	esp, ebp
	pop	ebp
	ret	0
?getSeaLevelInfo@CvMap@@QBEABVCvSeaLevelInfo@@XZ ENDP	; CvMap::getSeaLevelInfo
_TEXT	ENDS
PUBLIC	??_C@_0CM@JKFLNAKA@Picking?5from?5random?5Resource?5Qua@ ; `string'
PUBLIC	?getRandomResourceQuantity@CvMap@@QAEHW4ResourceTypes@@@Z ; CvMap::getRandomResourceQuantity
EXTRN	?getResourceQuantityType@CvResourceInfo@@QBEHH@Z:PROC ; CvResourceInfo::getResourceQuantityType
EXTRN	?getResourceInfo@CvGlobals@@QAEPAVCvResourceInfo@@W4ResourceTypes@@@Z:PROC ; CvGlobals::getResourceInfo
;	COMDAT ??_C@_0CM@JKFLNAKA@Picking?5from?5random?5Resource?5Qua@
; File d:\sources\lekmod_git\checkout\lekmod_dll\cvgamecoredll_expansion2\cvglobals.h
CONST	SEGMENT
??_C@_0CM@JKFLNAKA@Picking?5from?5random?5Resource?5Qua@ DB 'Picking from'
	DB	' random Resource Quantity types', 00H	; `string'
; Function compile flags: /Odtp
; File d:\sources\lekmod_git\checkout\lekmod_dll\cvgamecoredll_expansion2\cvmap.cpp
CONST	ENDS
;	COMDAT ?getRandomResourceQuantity@CvMap@@QAEHW4ResourceTypes@@@Z
_TEXT	SEGMENT
_this$ = -28						; size = 4
$T239067 = -24						; size = 4
$T239063 = -20						; size = 4
_iLoop$235287 = -16					; size = 4
_iNumRands$ = -12					; size = 4
_iRand$ = -8						; size = 4
_thisResourceInfo$ = -4					; size = 4
_eIndex$ = 8						; size = 4
?getRandomResourceQuantity@CvMap@@QAEHW4ResourceTypes@@@Z PROC ; CvMap::getRandomResourceQuantity, COMDAT
; _this$ = ecx

; 1355 : {

	push	ebp
	mov	ebp, esp
	sub	esp, 28					; 0000001cH
	mov	DWORD PTR _this$[ebp], ecx

; 1356 : 	CvResourceInfo* thisResourceInfo = GC.getResourceInfo(eIndex);

	mov	eax, DWORD PTR _eIndex$[ebp]
	push	eax
	mov	ecx, OFFSET ?gGlobals@@3VCvGlobals@@A	; gGlobals
	call	?getResourceInfo@CvGlobals@@QAEPAVCvResourceInfo@@W4ResourceTypes@@@Z ; CvGlobals::getResourceInfo
	mov	DWORD PTR _thisResourceInfo$[ebp], eax

; 1357 : 	if(thisResourceInfo == NULL)

	cmp	DWORD PTR _thisResourceInfo$[ebp], 0
	jne	SHORT $LN5@getRandomR

; 1358 : 		return 0;

	xor	eax, eax
	jmp	SHORT $LN6@getRandomR
$LN5@getRandomR:

; 1359 : 
; 1360 : 	int iNumRands = 0;

	mov	DWORD PTR _iNumRands$[ebp], 0

; 1361 : 
; 1362 : 	// Find how many types of resources quantities there can be to pick from
; 1363 : 	for(int iLoop = 0; iLoop < GC.getNUM_RESOURCE_QUANTITY_TYPES(); iLoop++)

	mov	DWORD PTR _iLoop$235287[ebp], 0
	jmp	SHORT $LN4@getRandomR
$LN3@getRandomR:
	mov	ecx, DWORD PTR _iLoop$235287[ebp]
	add	ecx, 1
	mov	DWORD PTR _iLoop$235287[ebp], ecx
$LN4@getRandomR:
	mov	edx, DWORD PTR ?gGlobals@@3VCvGlobals@@A+7016
	mov	DWORD PTR $T239063[ebp], edx
	mov	eax, DWORD PTR _iLoop$235287[ebp]
	cmp	eax, DWORD PTR $T239063[ebp]
	jge	SHORT $LN2@getRandomR

; 1364 : 	{
; 1365 : 		if(thisResourceInfo->getResourceQuantityType(iLoop) <= 0)

	mov	ecx, DWORD PTR _iLoop$235287[ebp]
	push	ecx
	mov	ecx, DWORD PTR _thisResourceInfo$[ebp]
	call	?getResourceQuantityType@CvResourceInfo@@QBEHH@Z ; CvResourceInfo::getResourceQuantityType
	test	eax, eax
	jg	SHORT $LN1@getRandomR

; 1366 : 		{
; 1367 : 			break;

	jmp	SHORT $LN2@getRandomR
$LN1@getRandomR:

; 1368 : 		}
; 1369 : 
; 1370 : 		iNumRands++;

	mov	edx, DWORD PTR _iNumRands$[ebp]
	add	edx, 1
	mov	DWORD PTR _iNumRands$[ebp], edx

; 1371 : 	}

	jmp	SHORT $LN3@getRandomR
$LN2@getRandomR:

; 1372 : 
; 1373 : 	CvAssertMsg(iNumRands > 0, "Resource should have at least 1 Quantity type to choose from")
; 1374 : 
; 1375 : 	int iRand = GC.getGame().getJonRandNum(iNumRands, "Picking from random Resource Quantity types");

	mov	eax, DWORD PTR ?gGlobals@@3VCvGlobals@@A+48
	mov	DWORD PTR $T239067[ebp], eax
	push	OFFSET ??_C@_0CM@JKFLNAKA@Picking?5from?5random?5Resource?5Qua@
	mov	ecx, DWORD PTR _iNumRands$[ebp]
	push	ecx
	mov	ecx, DWORD PTR $T239067[ebp]
	call	?getJonRandNum@CvGame@@QAEHHPBD@Z	; CvGame::getJonRandNum
	mov	DWORD PTR _iRand$[ebp], eax

; 1376 : 
; 1377 : 	return thisResourceInfo->getResourceQuantityType(iRand);

	mov	edx, DWORD PTR _iRand$[ebp]
	push	edx
	mov	ecx, DWORD PTR _thisResourceInfo$[ebp]
	call	?getResourceQuantityType@CvResourceInfo@@QBEHH@Z ; CvResourceInfo::getResourceQuantityType
$LN6@getRandomR:

; 1378 : }

	mov	esp, ebp
	pop	ebp
	ret	4
?getRandomResourceQuantity@CvMap@@QAEHW4ResourceTypes@@@Z ENDP ; CvMap::getRandomResourceQuantity
_TEXT	ENDS
PUBLIC	?getNumResources@CvMap@@QAEHW4ResourceTypes@@@Z	; CvMap::getNumResources
; Function compile flags: /Odtp
;	COMDAT ?getNumResources@CvMap@@QAEHW4ResourceTypes@@@Z
_TEXT	SEGMENT
_this$ = -4						; size = 4
_eIndex$ = 8						; size = 4
?getNumResources@CvMap@@QAEHW4ResourceTypes@@@Z PROC	; CvMap::getNumResources, COMDAT
; _this$ = ecx

; 1382 : {

	push	ebp
	mov	ebp, esp
	push	ecx
	mov	DWORD PTR _this$[ebp], ecx

; 1383 : 	CvAssertMsg(eIndex >= 0, "eIndex is expected to be non-negative (invalid Index)");
; 1384 : 	CvAssertMsg(eIndex < GC.getNumResourceInfos(), "eIndex is expected to be within maximum bounds (invalid Index)");
; 1385 : 	return m_paiNumResource[eIndex];

	mov	eax, DWORD PTR _this$[ebp]
	mov	ecx, DWORD PTR [eax+4060]
	mov	edx, DWORD PTR _eIndex$[ebp]
	mov	eax, DWORD PTR [ecx+edx*4]

; 1386 : }

	mov	esp, ebp
	pop	ebp
	ret	4
?getNumResources@CvMap@@QAEHW4ResourceTypes@@@Z ENDP	; CvMap::getNumResources
_TEXT	ENDS
PUBLIC	?changeNumResources@CvMap@@QAEXW4ResourceTypes@@H@Z ; CvMap::changeNumResources
; Function compile flags: /Odtp
;	COMDAT ?changeNumResources@CvMap@@QAEXW4ResourceTypes@@H@Z
_TEXT	SEGMENT
_this$ = -4						; size = 4
_eIndex$ = 8						; size = 4
_iChange$ = 12						; size = 4
?changeNumResources@CvMap@@QAEXW4ResourceTypes@@H@Z PROC ; CvMap::changeNumResources, COMDAT
; _this$ = ecx

; 1391 : {

	push	ebp
	mov	ebp, esp
	push	ecx
	mov	DWORD PTR _this$[ebp], ecx

; 1392 : 	CvAssertMsg(eIndex >= 0, "eIndex is expected to be non-negative (invalid Index)");
; 1393 : 	CvAssertMsg(eIndex < GC.getNumResourceInfos(), "eIndex is expected to be within maximum bounds (invalid Index)");
; 1394 : 	m_paiNumResource[eIndex] = (m_paiNumResource[eIndex] + iChange);

	mov	eax, DWORD PTR _this$[ebp]
	mov	ecx, DWORD PTR [eax+4060]
	mov	edx, DWORD PTR _eIndex$[ebp]
	mov	eax, DWORD PTR [ecx+edx*4]
	add	eax, DWORD PTR _iChange$[ebp]
	mov	ecx, DWORD PTR _this$[ebp]
	mov	edx, DWORD PTR [ecx+4060]
	mov	ecx, DWORD PTR _eIndex$[ebp]
	mov	DWORD PTR [edx+ecx*4], eax

; 1395 : 	CvAssert(getNumResources(eIndex) >= 0);
; 1396 : }

	mov	esp, ebp
	pop	ebp
	ret	8
?changeNumResources@CvMap@@QAEXW4ResourceTypes@@H@Z ENDP ; CvMap::changeNumResources
_TEXT	ENDS
PUBLIC	?getNumResourcesOnLand@CvMap@@QAEHW4ResourceTypes@@@Z ; CvMap::getNumResourcesOnLand
; Function compile flags: /Odtp
;	COMDAT ?getNumResourcesOnLand@CvMap@@QAEHW4ResourceTypes@@@Z
_TEXT	SEGMENT
_this$ = -4						; size = 4
_eIndex$ = 8						; size = 4
?getNumResourcesOnLand@CvMap@@QAEHW4ResourceTypes@@@Z PROC ; CvMap::getNumResourcesOnLand, COMDAT
; _this$ = ecx

; 1401 : {

	push	ebp
	mov	ebp, esp
	push	ecx
	mov	DWORD PTR _this$[ebp], ecx

; 1402 : 	CvAssertMsg(eIndex >= 0, "eIndex is expected to be non-negative (invalid Index)");
; 1403 : 	CvAssertMsg(eIndex < GC.getNumResourceInfos(), "eIndex is expected to be within maximum bounds (invalid Index)");
; 1404 : 	return m_paiNumResourceOnLand[eIndex];

	mov	eax, DWORD PTR _this$[ebp]
	mov	ecx, DWORD PTR [eax+4064]
	mov	edx, DWORD PTR _eIndex$[ebp]
	mov	eax, DWORD PTR [ecx+edx*4]

; 1405 : }

	mov	esp, ebp
	pop	ebp
	ret	4
?getNumResourcesOnLand@CvMap@@QAEHW4ResourceTypes@@@Z ENDP ; CvMap::getNumResourcesOnLand
_TEXT	ENDS
PUBLIC	?changeNumResourcesOnLand@CvMap@@QAEXW4ResourceTypes@@H@Z ; CvMap::changeNumResourcesOnLand
; Function compile flags: /Odtp
;	COMDAT ?changeNumResourcesOnLand@CvMap@@QAEXW4ResourceTypes@@H@Z
_TEXT	SEGMENT
_this$ = -4						; size = 4
_eIndex$ = 8						; size = 4
_iChange$ = 12						; size = 4
?changeNumResourcesOnLand@CvMap@@QAEXW4ResourceTypes@@H@Z PROC ; CvMap::changeNumResourcesOnLand, COMDAT
; _this$ = ecx

; 1410 : {

	push	ebp
	mov	ebp, esp
	push	ecx
	mov	DWORD PTR _this$[ebp], ecx

; 1411 : 	CvAssertMsg(eIndex >= 0, "eIndex is expected to be non-negative (invalid Index)");
; 1412 : 	CvAssertMsg(eIndex < GC.getNumResourceInfos(), "eIndex is expected to be within maximum bounds (invalid Index)");
; 1413 : 	m_paiNumResourceOnLand[eIndex] = (m_paiNumResourceOnLand[eIndex] + iChange);

	mov	eax, DWORD PTR _this$[ebp]
	mov	ecx, DWORD PTR [eax+4064]
	mov	edx, DWORD PTR _eIndex$[ebp]
	mov	eax, DWORD PTR [ecx+edx*4]
	add	eax, DWORD PTR _iChange$[ebp]
	mov	ecx, DWORD PTR _this$[ebp]
	mov	edx, DWORD PTR [ecx+4064]
	mov	ecx, DWORD PTR _eIndex$[ebp]
	mov	DWORD PTR [edx+ecx*4], eax

; 1414 : 	CvAssert(getNumResourcesOnLand(eIndex) >= 0);
; 1415 : }

	mov	esp, ebp
	pop	ebp
	ret	8
?changeNumResourcesOnLand@CvMap@@QAEXW4ResourceTypes@@H@Z ENDP ; CvMap::changeNumResourcesOnLand
_TEXT	ENDS
PUBLIC	?getIndexAfterLastArea@CvMap@@QAEHXZ		; CvMap::getIndexAfterLastArea
; Function compile flags: /Odtp
;	COMDAT ?getIndexAfterLastArea@CvMap@@QAEHXZ
_TEXT	SEGMENT
_this$ = -4						; size = 4
?getIndexAfterLastArea@CvMap@@QAEHXZ PROC		; CvMap::getIndexAfterLastArea, COMDAT
; _this$ = ecx

; 1419 : {

	push	ebp
	mov	ebp, esp
	push	ecx
	mov	DWORD PTR _this$[ebp], ecx

; 1420 : 	return m_areas.GetIndexAfterLast();

	mov	eax, DWORD PTR _this$[ebp]
	mov	eax, DWORD PTR [eax+4124]
	add	eax, 1

; 1421 : }

	mov	esp, ebp
	pop	ebp
	ret	0
?getIndexAfterLastArea@CvMap@@QAEHXZ ENDP		; CvMap::getIndexAfterLastArea
_TEXT	ENDS
PUBLIC	?getNumAreas@CvMap@@QAEHXZ			; CvMap::getNumAreas
; Function compile flags: /Odtp
;	COMDAT ?getNumAreas@CvMap@@QAEHXZ
_TEXT	SEGMENT
_this$ = -8						; size = 4
$T239086 = -4						; size = 4
?getNumAreas@CvMap@@QAEHXZ PROC				; CvMap::getNumAreas, COMDAT
; _this$ = ecx

; 1426 : {

	push	ebp
	mov	ebp, esp
	sub	esp, 8
	mov	DWORD PTR _this$[ebp], ecx

; 1427 : 	return m_areas.GetCount();

	mov	eax, DWORD PTR _this$[ebp]
	add	eax, 4112				; 00001010H
	mov	DWORD PTR $T239086[ebp], eax
	mov	ecx, DWORD PTR $T239086[ebp]
	mov	edx, DWORD PTR $T239086[ebp]
	mov	eax, DWORD PTR [ecx+12]
	sub	eax, DWORD PTR [edx+8]
	add	eax, 1

; 1428 : }

	mov	esp, ebp
	pop	ebp
	ret	0
?getNumAreas@CvMap@@QAEHXZ ENDP				; CvMap::getNumAreas
_TEXT	ENDS
PUBLIC	?getNumLandAreas@CvMap@@QAEHXZ			; CvMap::getNumLandAreas
; Function compile flags: /Odtp
;	COMDAT ?getNumLandAreas@CvMap@@QAEHXZ
_TEXT	SEGMENT
_this$ = -24						; size = 4
$T239096 = -20						; size = 4
$T239092 = -16						; size = 4
_pLoopArea$ = -12					; size = 4
_iNumLandAreas$ = -8					; size = 4
_iLoop$ = -4						; size = 4
?getNumLandAreas@CvMap@@QAEHXZ PROC			; CvMap::getNumLandAreas, COMDAT
; _this$ = ecx

; 1433 : {

	push	ebp
	mov	ebp, esp
	sub	esp, 24					; 00000018H
	mov	DWORD PTR _this$[ebp], ecx

; 1434 : 	CvArea* pLoopArea;
; 1435 : 	int iNumLandAreas;
; 1436 : 	int iLoop;
; 1437 : 
; 1438 : 	iNumLandAreas = 0;

	mov	DWORD PTR _iNumLandAreas$[ebp], 0

; 1439 : 
; 1440 : 	for(pLoopArea = GC.getMap().firstArea(&iLoop); pLoopArea != NULL; pLoopArea = GC.getMap().nextArea(&iLoop))

	mov	eax, DWORD PTR ?gGlobals@@3VCvGlobals@@A+52
	mov	DWORD PTR $T239092[ebp], eax
	push	0
	lea	ecx, DWORD PTR _iLoop$[ebp]
	push	ecx
	mov	ecx, DWORD PTR $T239092[ebp]
	call	?firstArea@CvMap@@QAEPAVCvArea@@PAH_N@Z	; CvMap::firstArea
	mov	DWORD PTR _pLoopArea$[ebp], eax
	jmp	SHORT $LN4@getNumLand
$LN3@getNumLand:
	mov	edx, DWORD PTR ?gGlobals@@3VCvGlobals@@A+52
	mov	DWORD PTR $T239096[ebp], edx
	push	0
	lea	eax, DWORD PTR _iLoop$[ebp]
	push	eax
	mov	ecx, DWORD PTR $T239096[ebp]
	call	?nextArea@CvMap@@QAEPAVCvArea@@PAH_N@Z	; CvMap::nextArea
	mov	DWORD PTR _pLoopArea$[ebp], eax
$LN4@getNumLand:
	cmp	DWORD PTR _pLoopArea$[ebp], 0
	je	SHORT $LN2@getNumLand

; 1441 : 	{
; 1442 : 		if(!(pLoopArea->isWater()))

	mov	ecx, DWORD PTR _pLoopArea$[ebp]
	call	?isWater@CvArea@@QBE_NXZ		; CvArea::isWater
	movzx	ecx, al
	test	ecx, ecx
	jne	SHORT $LN1@getNumLand

; 1443 : 		{
; 1444 : 			iNumLandAreas++;

	mov	edx, DWORD PTR _iNumLandAreas$[ebp]
	add	edx, 1
	mov	DWORD PTR _iNumLandAreas$[ebp], edx
$LN1@getNumLand:

; 1445 : 		}
; 1446 : 	}

	jmp	SHORT $LN3@getNumLand
$LN2@getNumLand:

; 1447 : 
; 1448 : 	return iNumLandAreas;

	mov	eax, DWORD PTR _iNumLandAreas$[ebp]

; 1449 : }

	mov	esp, ebp
	pop	ebp
	ret	0
?getNumLandAreas@CvMap@@QAEHXZ ENDP			; CvMap::getNumLandAreas
_TEXT	ENDS
PUBLIC	?getArea@CvMap@@QAEPAVCvArea@@H@Z		; CvMap::getArea
; Function compile flags: /Odtp
;	COMDAT ?getArea@CvMap@@QAEPAVCvArea@@H@Z
_TEXT	SEGMENT
_this$ = -4						; size = 4
_iID$ = 8						; size = 4
?getArea@CvMap@@QAEPAVCvArea@@H@Z PROC			; CvMap::getArea, COMDAT
; _this$ = ecx

; 1454 : {

	push	ebp
	mov	ebp, esp
	push	ecx
	mov	DWORD PTR _this$[ebp], ecx

; 1455 : 	return m_areas.GetAt(iID);

	mov	eax, DWORD PTR _iID$[ebp]
	push	eax
	mov	ecx, DWORD PTR _this$[ebp]
	add	ecx, 4112				; 00001010H
	mov	edx, DWORD PTR _this$[ebp]
	mov	eax, DWORD PTR [edx+4112]
	mov	edx, DWORD PTR [eax+16]
	call	edx

; 1456 : }

	mov	esp, ebp
	pop	ebp
	ret	4
?getArea@CvMap@@QAEPAVCvArea@@H@Z ENDP			; CvMap::getArea
_TEXT	ENDS
PUBLIC	?Add@?$FFreeListTrashArray@VCvArea@@@@QAEPAVCvArea@@XZ ; FFreeListTrashArray<CvArea>::Add
PUBLIC	?addArea@CvMap@@QAEPAVCvArea@@XZ		; CvMap::addArea
; Function compile flags: /Odtp
;	COMDAT ?addArea@CvMap@@QAEPAVCvArea@@XZ
_TEXT	SEGMENT
_this$ = -4						; size = 4
?addArea@CvMap@@QAEPAVCvArea@@XZ PROC			; CvMap::addArea, COMDAT
; _this$ = ecx

; 1461 : {

	push	ebp
	mov	ebp, esp
	push	ecx
	mov	DWORD PTR _this$[ebp], ecx

; 1462 : 	return m_areas.Add();

	mov	ecx, DWORD PTR _this$[ebp]
	add	ecx, 4112				; 00001010H
	call	?Add@?$FFreeListTrashArray@VCvArea@@@@QAEPAVCvArea@@XZ ; FFreeListTrashArray<CvArea>::Add

; 1463 : }

	mov	esp, ebp
	pop	ebp
	ret	0
?addArea@CvMap@@QAEPAVCvArea@@XZ ENDP			; CvMap::addArea
_TEXT	ENDS
PUBLIC	?RemoveAt@?$FFreeListTrashArray@VCvArea@@@@QAE_NH@Z ; FFreeListTrashArray<CvArea>::RemoveAt
PUBLIC	?deleteArea@CvMap@@QAEXH@Z			; CvMap::deleteArea
; Function compile flags: /Odtp
;	COMDAT ?deleteArea@CvMap@@QAEXH@Z
_TEXT	SEGMENT
_this$ = -4						; size = 4
_iID$ = 8						; size = 4
?deleteArea@CvMap@@QAEXH@Z PROC				; CvMap::deleteArea, COMDAT
; _this$ = ecx

; 1468 : {

	push	ebp
	mov	ebp, esp
	push	ecx
	mov	DWORD PTR _this$[ebp], ecx

; 1469 : 	m_areas.RemoveAt(iID);

	mov	eax, DWORD PTR _iID$[ebp]
	push	eax
	mov	ecx, DWORD PTR _this$[ebp]
	add	ecx, 4112				; 00001010H
	call	?RemoveAt@?$FFreeListTrashArray@VCvArea@@@@QAE_NH@Z ; FFreeListTrashArray<CvArea>::RemoveAt

; 1470 : }

	mov	esp, ebp
	pop	ebp
	ret	4
?deleteArea@CvMap@@QAEXH@Z ENDP				; CvMap::deleteArea
_TEXT	ENDS
PUBLIC	?EndIter@?$FFreeListArrayBase@VCvArea@@@@QAEPAVCvArea@@PAH@Z ; FFreeListArrayBase<CvArea>::EndIter
PUBLIC	?BeginIter@?$FFreeListArrayBase@VCvArea@@@@QAEPAVCvArea@@PAH@Z ; FFreeListArrayBase<CvArea>::BeginIter
; Function compile flags: /Odtp
;	COMDAT ?firstArea@CvMap@@QAEPAVCvArea@@PAH_N@Z
_TEXT	SEGMENT
tv82 = -8						; size = 4
_this$ = -4						; size = 4
_pIterIdx$ = 8						; size = 4
_bRev$ = 12						; size = 1
?firstArea@CvMap@@QAEPAVCvArea@@PAH_N@Z PROC		; CvMap::firstArea, COMDAT
; _this$ = ecx

; 1475 : {

	push	ebp
	mov	ebp, esp
	sub	esp, 8
	mov	DWORD PTR _this$[ebp], ecx

; 1476 : 	return !bRev ? m_areas.BeginIter(pIterIdx) : m_areas.EndIter(pIterIdx);

	movzx	eax, BYTE PTR _bRev$[ebp]
	test	eax, eax
	jne	SHORT $LN3@firstArea
	mov	ecx, DWORD PTR _pIterIdx$[ebp]
	push	ecx
	mov	ecx, DWORD PTR _this$[ebp]
	add	ecx, 4112				; 00001010H
	call	?BeginIter@?$FFreeListArrayBase@VCvArea@@@@QAEPAVCvArea@@PAH@Z ; FFreeListArrayBase<CvArea>::BeginIter
	mov	DWORD PTR tv82[ebp], eax
	jmp	SHORT $LN4@firstArea
$LN3@firstArea:
	mov	edx, DWORD PTR _pIterIdx$[ebp]
	push	edx
	mov	ecx, DWORD PTR _this$[ebp]
	add	ecx, 4112				; 00001010H
	call	?EndIter@?$FFreeListArrayBase@VCvArea@@@@QAEPAVCvArea@@PAH@Z ; FFreeListArrayBase<CvArea>::EndIter
	mov	DWORD PTR tv82[ebp], eax
$LN4@firstArea:
	mov	eax, DWORD PTR tv82[ebp]

; 1477 : }

	mov	esp, ebp
	pop	ebp
	ret	8
?firstArea@CvMap@@QAEPAVCvArea@@PAH_N@Z ENDP		; CvMap::firstArea
_TEXT	ENDS
PUBLIC	?PrevIter@?$FFreeListArrayBase@VCvArea@@@@QAEPAVCvArea@@PAH@Z ; FFreeListArrayBase<CvArea>::PrevIter
PUBLIC	?NextIter@?$FFreeListArrayBase@VCvArea@@@@QAEPAVCvArea@@PAH@Z ; FFreeListArrayBase<CvArea>::NextIter
; Function compile flags: /Odtp
;	COMDAT ?nextArea@CvMap@@QAEPAVCvArea@@PAH_N@Z
_TEXT	SEGMENT
tv82 = -8						; size = 4
_this$ = -4						; size = 4
_pIterIdx$ = 8						; size = 4
_bRev$ = 12						; size = 1
?nextArea@CvMap@@QAEPAVCvArea@@PAH_N@Z PROC		; CvMap::nextArea, COMDAT
; _this$ = ecx

; 1482 : {

	push	ebp
	mov	ebp, esp
	sub	esp, 8
	mov	DWORD PTR _this$[ebp], ecx

; 1483 : 	return !bRev ? m_areas.NextIter(pIterIdx) : m_areas.PrevIter(pIterIdx);

	movzx	eax, BYTE PTR _bRev$[ebp]
	test	eax, eax
	jne	SHORT $LN3@nextArea
	mov	ecx, DWORD PTR _pIterIdx$[ebp]
	push	ecx
	mov	ecx, DWORD PTR _this$[ebp]
	add	ecx, 4112				; 00001010H
	call	?NextIter@?$FFreeListArrayBase@VCvArea@@@@QAEPAVCvArea@@PAH@Z ; FFreeListArrayBase<CvArea>::NextIter
	mov	DWORD PTR tv82[ebp], eax
	jmp	SHORT $LN4@nextArea
$LN3@nextArea:
	mov	edx, DWORD PTR _pIterIdx$[ebp]
	push	edx
	mov	ecx, DWORD PTR _this$[ebp]
	add	ecx, 4112				; 00001010H
	call	?PrevIter@?$FFreeListArrayBase@VCvArea@@@@QAEPAVCvArea@@PAH@Z ; FFreeListArrayBase<CvArea>::PrevIter
	mov	DWORD PTR tv82[ebp], eax
$LN4@nextArea:
	mov	eax, DWORD PTR tv82[ebp]

; 1484 : }

	mov	esp, ebp
	pop	ebp
	ret	8
?nextArea@CvMap@@QAEPAVCvArea@@PAH_N@Z ENDP		; CvMap::nextArea
_TEXT	ENDS
PUBLIC	?recalculateLandmasses@CvMap@@QAEXXZ		; CvMap::recalculateLandmasses
PUBLIC	?calculateAreas@CvMap@@QAEXXZ			; CvMap::calculateAreas
EXTRN	?setArea@CvPlot@@QAEXH@Z:PROC			; CvPlot::setArea
; Function compile flags: /Odtp
;	COMDAT ?recalculateAreas@CvMap@@QAEXXZ
_TEXT	SEGMENT
_this$ = -12						; size = 4
_iI$ = -8						; size = 4
_iNumPlots$ = -4					; size = 4
?recalculateAreas@CvMap@@QAEXXZ PROC			; CvMap::recalculateAreas, COMDAT
; _this$ = ecx

; 1489 : {

	push	ebp
	mov	ebp, esp
	sub	esp, 12					; 0000000cH
	mov	DWORD PTR _this$[ebp], ecx

; 1490 : 	int iI;
; 1491 : 
; 1492 : 	int iNumPlots = numPlots();

	mov	eax, DWORD PTR _this$[ebp]
	mov	ecx, DWORD PTR [eax+4028]
	mov	DWORD PTR _iNumPlots$[ebp], ecx

; 1493 : 	for(iI = 0; iI < iNumPlots; iI++)

	mov	DWORD PTR _iI$[ebp], 0
	jmp	SHORT $LN3@recalculat
$LN2@recalculat:
	mov	edx, DWORD PTR _iI$[ebp]
	add	edx, 1
	mov	DWORD PTR _iI$[ebp], edx
$LN3@recalculat:
	mov	eax, DWORD PTR _iI$[ebp]
	cmp	eax, DWORD PTR _iNumPlots$[ebp]
	jge	SHORT $LN1@recalculat

; 1494 : 	{
; 1495 : 		plotByIndexUnchecked(iI)->setArea(FFreeList::INVALID_INDEX);

	push	-1
	mov	ecx, DWORD PTR _iI$[ebp]
	imul	ecx, 484				; 000001e4H
	mov	edx, DWORD PTR _this$[ebp]
	add	ecx, DWORD PTR [edx+4068]
	call	?setArea@CvPlot@@QAEXH@Z		; CvPlot::setArea

; 1496 : 	}

	jmp	SHORT $LN2@recalculat
$LN1@recalculat:

; 1497 : 
; 1498 : 	m_areas.RemoveAll();

	mov	ecx, DWORD PTR _this$[ebp]
	add	ecx, 4112				; 00001010H
	mov	eax, DWORD PTR _this$[ebp]
	mov	edx, DWORD PTR [eax+4112]
	mov	eax, DWORD PTR [edx+20]
	call	eax

; 1499 : 
; 1500 : 	calculateAreas();

	mov	ecx, DWORD PTR _this$[ebp]
	call	?calculateAreas@CvMap@@QAEXXZ		; CvMap::calculateAreas

; 1501 : 
; 1502 : 	recalculateLandmasses();

	mov	ecx, DWORD PTR _this$[ebp]
	call	?recalculateLandmasses@CvMap@@QAEXXZ	; CvMap::recalculateLandmasses

; 1503 : }

	mov	esp, ebp
	pop	ebp
	ret	0
?recalculateAreas@CvMap@@QAEXXZ ENDP			; CvMap::recalculateAreas
_TEXT	ENDS
PUBLIC	?calculateInfluenceDistance@CvMap@@QAEHPAVCvPlot@@0H_N@Z ; CvMap::calculateInfluenceDistance
EXTRN	?GeneratePath@CvAStar@@QAE_NHHHHH_N@Z:PROC	; CvAStar::GeneratePath
; Function compile flags: /Odtp
;	COMDAT ?calculateInfluenceDistance@CvMap@@QAEHPAVCvPlot@@0H_N@Z
_TEXT	SEGMENT
_this$ = -32						; size = 4
$T239145 = -28						; size = 4
$T239141 = -24						; size = 4
$T239137 = -20						; size = 4
$T239133 = -16						; size = 4
$T239129 = -12						; size = 4
$T239125 = -8						; size = 4
_pNode$ = -4						; size = 4
_pSource$ = 8						; size = 4
_pDest$ = 12						; size = 4
_iMaxRange$ = 16					; size = 4
_bCorrectButSlower$ = 20				; size = 1
?calculateInfluenceDistance@CvMap@@QAEHPAVCvPlot@@0H_N@Z PROC ; CvMap::calculateInfluenceDistance, COMDAT
; _this$ = ecx

; 1508 : {

	push	ebp
	mov	ebp, esp
	sub	esp, 32					; 00000020H
	mov	DWORD PTR _this$[ebp], ecx

; 1509 : 	CvAStarNode* pNode;
; 1510 : 
; 1511 : 	if(pSource == NULL || pDest == NULL)

	cmp	DWORD PTR _pSource$[ebp], 0
	je	SHORT $LN3@calculateI
	cmp	DWORD PTR _pDest$[ebp], 0
	jne	SHORT $LN4@calculateI
$LN3@calculateI:

; 1512 : 	{
; 1513 : 		return -1;

	or	eax, -1
	jmp	$LN5@calculateI
$LN4@calculateI:

; 1514 : 	}
; 1515 : 
; 1516 : #ifdef AUI_MAP_FIX_CALCULATE_INFLUENCE_DISTANCE_REUSE_PATHFINDER
; 1517 : 	bCorrectButSlower = false;
; 1518 : 	if (m_pLastInfluenceSourcePlot != pSource)
; 1519 : 	{
; 1520 : 		m_pLastInfluenceSourcePlot = pSource;
; 1521 : 		bCorrectButSlower = true;
; 1522 : 	}
; 1523 : #endif
; 1524 : 
; 1525 : 	GC.getInfluenceFinder().SetData(&iMaxRange);

	mov	ecx, OFFSET ?gGlobals@@3VCvGlobals@@A	; gGlobals
	call	?getInfluenceFinder@CvGlobals@@QAEAAVCvAStar@@XZ ; CvGlobals::getInfluenceFinder
	mov	DWORD PTR $T239125[ebp], eax
	mov	eax, DWORD PTR $T239125[ebp]
	movzx	ecx, BYTE PTR [eax+80]
	test	ecx, ecx
	je	SHORT $LN7@calculateI
	mov	edx, DWORD PTR $T239125[ebp]
	mov	eax, DWORD PTR [edx+44]
	lea	ecx, DWORD PTR _iMaxRange$[ebp]
	cmp	eax, ecx
	je	SHORT $LN7@calculateI
	mov	edx, DWORD PTR $T239125[ebp]
	mov	BYTE PTR [edx+78], 1
$LN7@calculateI:
	mov	eax, DWORD PTR $T239125[ebp]
	lea	ecx, DWORD PTR _iMaxRange$[ebp]
	mov	DWORD PTR [eax+44], ecx

; 1526 : 	if(GC.getInfluenceFinder().GeneratePath(pSource->getX(), pSource->getY(), pDest->getX(), pDest->getY(), 0, !bCorrectButSlower))

	mov	edx, DWORD PTR _pDest$[ebp]
	movsx	eax, WORD PTR [edx+2]
	mov	DWORD PTR $T239129[ebp], eax
	mov	ecx, DWORD PTR _pDest$[ebp]
	movsx	edx, WORD PTR [ecx]
	mov	DWORD PTR $T239133[ebp], edx
	mov	eax, DWORD PTR _pSource$[ebp]
	movsx	ecx, WORD PTR [eax+2]
	mov	DWORD PTR $T239137[ebp], ecx
	mov	edx, DWORD PTR _pSource$[ebp]
	movsx	eax, WORD PTR [edx]
	mov	DWORD PTR $T239141[ebp], eax
	movzx	ecx, BYTE PTR _bCorrectButSlower$[ebp]
	test	ecx, ecx
	sete	dl
	movzx	eax, dl
	push	eax
	push	0
	mov	ecx, DWORD PTR $T239129[ebp]
	push	ecx
	mov	edx, DWORD PTR $T239133[ebp]
	push	edx
	mov	eax, DWORD PTR $T239137[ebp]
	push	eax
	mov	ecx, DWORD PTR $T239141[ebp]
	push	ecx
	mov	ecx, OFFSET ?gGlobals@@3VCvGlobals@@A	; gGlobals
	call	?getInfluenceFinder@CvGlobals@@QAEAAVCvAStar@@XZ ; CvGlobals::getInfluenceFinder
	mov	ecx, eax
	call	?GeneratePath@CvAStar@@QAE_NHHHHH_N@Z	; CvAStar::GeneratePath
	movzx	edx, al
	test	edx, edx
	je	SHORT $LN2@calculateI

; 1527 : 	{
; 1528 : 		pNode = GC.getInfluenceFinder().GetLastNode();

	mov	ecx, OFFSET ?gGlobals@@3VCvGlobals@@A	; gGlobals
	call	?getInfluenceFinder@CvGlobals@@QAEAAVCvAStar@@XZ ; CvGlobals::getInfluenceFinder
	mov	DWORD PTR $T239145[ebp], eax
	mov	eax, DWORD PTR $T239145[ebp]
	mov	ecx, DWORD PTR [eax+96]
	mov	DWORD PTR _pNode$[ebp], ecx

; 1529 : 
; 1530 : 		if(pNode != NULL)

	cmp	DWORD PTR _pNode$[ebp], 0
	je	SHORT $LN2@calculateI

; 1531 : 		{
; 1532 : 			return pNode->m_iKnownCost;

	mov	edx, DWORD PTR _pNode$[ebp]
	mov	eax, DWORD PTR [edx+4]
	jmp	SHORT $LN5@calculateI
$LN2@calculateI:

; 1533 : 		}
; 1534 : 	}
; 1535 : 
; 1536 : 	return -1; // no passable path exists

	or	eax, -1
$LN5@calculateI:

; 1537 : }

	mov	esp, ebp
	pop	ebp
	ret	16					; 00000010H
?calculateInfluenceDistance@CvMap@@QAEHPAVCvPlot@@0H_N@Z ENDP ; CvMap::calculateInfluenceDistance
_TEXT	ENDS
PUBLIC	??$?5VCvLandmass@@@@YAAAVFDataStream@@AAV0@AAV?$FFreeListTrashArray@VCvLandmass@@@@@Z ; operator>><CvLandmass>
PUBLIC	??$?5VCvArea@@@@YAAAVFDataStream@@AAV0@AAV?$FFreeListTrashArray@VCvArea@@@@@Z ; operator>><CvArea>
PUBLIC	??$ReadHashedDataArray@H@CvInfosSerializationHelper@@YAXAAVFDataStream@@PAHH@Z ; CvInfosSerializationHelper::ReadHashedDataArray<int>
PUBLIC	??$?5E@@YAAAVFDataStream@@AAV0@AAV?$ArrayWrapper@E@@@Z ; operator>><unsigned char>
PUBLIC	?Read@CvMap@@QAEXAAVFDataStream@@@Z		; CvMap::Read
EXTRN	?read@CvPlot@@QAEXAAVFDataStream@@@Z:PROC	; CvPlot::read
EXTRN	?Read@FDataStream@@IAEXAAG@Z:PROC		; FDataStream::Read
EXTRN	?Read@FDataStream@@IAEXAAK@Z:PROC		; FDataStream::Read
; Function compile flags: /Odtp
;	COMDAT ?Read@CvMap@@QAEXAAVFDataStream@@@Z
_TEXT	SEGMENT
tv201 = -60						; size = 4
_this$ = -56						; size = 4
$T239211 = -52						; size = 4
$T239207 = -48						; size = 4
$T239200 = -44						; size = 4
$T239196 = -40						; size = 4
_iI$235421 = -36					; size = 4
_uiVersion$ = -32					; size = 4
_defaultMapData$ = -28					; size = 20
_wrapm_guid$ = -8					; size = 8
_kStream$ = 8						; size = 4
?Read@CvMap@@QAEXAAVFDataStream@@@Z PROC		; CvMap::Read, COMDAT
; _this$ = ecx

; 1547 : {

	push	ebp
	mov	ebp, esp
	sub	esp, 60					; 0000003cH
	mov	DWORD PTR _this$[ebp], ecx

; 1548 : 	CvMapInitData defaultMapData;

	mov	DWORD PTR _defaultMapData$[ebp], 0
	mov	DWORD PTR _defaultMapData$[ebp+4], 0
	mov	DWORD PTR _defaultMapData$[ebp+8], 90	; 0000005aH
	mov	DWORD PTR _defaultMapData$[ebp+12], -90	; ffffffa6H
	mov	BYTE PTR _defaultMapData$[ebp+16], 1
	mov	BYTE PTR _defaultMapData$[ebp+17], 0

; 1549 : 
; 1550 : 	// Init data before load
; 1551 : 	reset(&defaultMapData);

	lea	eax, DWORD PTR _defaultMapData$[ebp]
	push	eax
	mov	ecx, DWORD PTR _this$[ebp]
	call	?reset@CvMap@@QAEXPAUCvMapInitData@@@Z	; CvMap::reset

; 1552 : 
; 1553 : 	// Version number to maintain backwards compatibility
; 1554 : 	uint uiVersion;
; 1555 : 	kStream >> uiVersion;

	lea	ecx, DWORD PTR _uiVersion$[ebp]
	push	ecx
	mov	ecx, DWORD PTR _kStream$[ebp]
	call	?Read@FDataStream@@IAEXAAI@Z		; FDataStream::Read

; 1556 : 
; 1557 : 	kStream >> m_iGridWidth;

	mov	edx, DWORD PTR _this$[ebp]
	add	edx, 4020				; 00000fb4H
	push	edx
	mov	ecx, DWORD PTR _kStream$[ebp]
	call	?Read@FDataStream@@IAEXAAH@Z		; FDataStream::Read

; 1558 : 	kStream >> m_iGridHeight;

	mov	eax, DWORD PTR _this$[ebp]
	add	eax, 4024				; 00000fb8H
	push	eax
	mov	ecx, DWORD PTR _kStream$[ebp]
	call	?Read@FDataStream@@IAEXAAH@Z		; FDataStream::Read

; 1559 : 	m_iGridSize = m_iGridHeight * m_iGridWidth;

	mov	ecx, DWORD PTR _this$[ebp]
	mov	edx, DWORD PTR _this$[ebp]
	mov	eax, DWORD PTR [ecx+4024]
	imul	eax, DWORD PTR [edx+4020]
	mov	ecx, DWORD PTR _this$[ebp]
	mov	DWORD PTR [ecx+4028], eax

; 1560 : 	kStream >> m_iLandPlots;

	mov	edx, DWORD PTR _this$[ebp]
	add	edx, 4032				; 00000fc0H
	push	edx
	mov	ecx, DWORD PTR _kStream$[ebp]
	call	?Read@FDataStream@@IAEXAAH@Z		; FDataStream::Read

; 1561 : 	kStream >> m_iOwnedPlots;

	mov	eax, DWORD PTR _this$[ebp]
	add	eax, 4036				; 00000fc4H
	push	eax
	mov	ecx, DWORD PTR _kStream$[ebp]
	call	?Read@FDataStream@@IAEXAAH@Z		; FDataStream::Read

; 1562 : 	kStream >> m_iNumNaturalWonders;

	mov	ecx, DWORD PTR _this$[ebp]
	add	ecx, 4048				; 00000fd0H
	push	ecx
	mov	ecx, DWORD PTR _kStream$[ebp]
	call	?Read@FDataStream@@IAEXAAH@Z		; FDataStream::Read

; 1563 : 	kStream >> m_iTopLatitude;

	mov	edx, DWORD PTR _this$[ebp]
	add	edx, 4040				; 00000fc8H
	push	edx
	mov	ecx, DWORD PTR _kStream$[ebp]
	call	?Read@FDataStream@@IAEXAAH@Z		; FDataStream::Read

; 1564 : 	kStream >> m_iBottomLatitude;

	mov	eax, DWORD PTR _this$[ebp]
	add	eax, 4044				; 00000fccH
	push	eax
	mov	ecx, DWORD PTR _kStream$[ebp]
	call	?Read@FDataStream@@IAEXAAH@Z		; FDataStream::Read

; 1565 : 
; 1566 : 	kStream >> m_bWrapX;

	mov	ecx, DWORD PTR _this$[ebp]
	add	ecx, 4056				; 00000fd8H
	push	ecx
	mov	ecx, DWORD PTR _kStream$[ebp]
	call	?Read@FDataStream@@IAEXAA_N@Z		; FDataStream::Read

; 1567 : 	kStream >> m_bWrapY;

	mov	edx, DWORD PTR _this$[ebp]
	add	edx, 4057				; 00000fd9H
	push	edx
	mov	ecx, DWORD PTR _kStream$[ebp]
	call	?Read@FDataStream@@IAEXAA_N@Z		; FDataStream::Read

; 1568 : 
; 1569 : 	kStream >> m_guid.Data1;

	mov	eax, DWORD PTR _this$[ebp]
	add	eax, 4168				; 00001048H
	push	eax
	mov	ecx, DWORD PTR _kStream$[ebp]
	call	?Read@FDataStream@@IAEXAAK@Z		; FDataStream::Read

; 1570 : 	kStream >> m_guid.Data2;

	mov	ecx, DWORD PTR _this$[ebp]
	add	ecx, 4172				; 0000104cH
	push	ecx
	mov	ecx, DWORD PTR _kStream$[ebp]
	call	?Read@FDataStream@@IAEXAAG@Z		; FDataStream::Read

; 1571 : 	kStream >> m_guid.Data3;

	mov	edx, DWORD PTR _this$[ebp]
	add	edx, 4174				; 0000104eH
	push	edx
	mov	ecx, DWORD PTR _kStream$[ebp]
	call	?Read@FDataStream@@IAEXAAG@Z		; FDataStream::Read

; 1572 : 	ArrayWrapper<unsigned char> wrapm_guid(8, m_guid.Data4);

	mov	eax, DWORD PTR _this$[ebp]
	add	eax, 4176				; 00001050H
	mov	DWORD PTR _wrapm_guid$[ebp], eax
	mov	DWORD PTR _wrapm_guid$[ebp+4], 8

; 1573 : 	kStream >> wrapm_guid;

	lea	ecx, DWORD PTR _wrapm_guid$[ebp]
	push	ecx
	mov	edx, DWORD PTR _kStream$[ebp]
	push	edx
	call	??$?5E@@YAAAVFDataStream@@AAV0@AAV?$ArrayWrapper@E@@@Z ; operator>><unsigned char>
	add	esp, 8

; 1574 : 
; 1575 : 	CvAssertMsg((0 < GC.getNumResourceInfos()), "GC.getNumResourceInfos() is not greater than zero but an array is being allocated");
; 1576 : 	CvInfosSerializationHelper::ReadHashedDataArray(kStream, m_paiNumResource, GC.getNumResourceInfos());

	mov	ecx, OFFSET ?gGlobals@@3VCvGlobals@@A	; gGlobals
	call	?getNumResourceInfos@CvGlobals@@QAEHXZ	; CvGlobals::getNumResourceInfos
	push	eax
	mov	eax, DWORD PTR _this$[ebp]
	mov	ecx, DWORD PTR [eax+4060]
	push	ecx
	mov	edx, DWORD PTR _kStream$[ebp]
	push	edx
	call	??$ReadHashedDataArray@H@CvInfosSerializationHelper@@YAXAAVFDataStream@@PAHH@Z ; CvInfosSerializationHelper::ReadHashedDataArray<int>
	add	esp, 12					; 0000000cH

; 1577 : 	CvInfosSerializationHelper::ReadHashedDataArray(kStream, m_paiNumResourceOnLand, GC.getNumResourceInfos());

	mov	ecx, OFFSET ?gGlobals@@3VCvGlobals@@A	; gGlobals
	call	?getNumResourceInfos@CvGlobals@@QAEHXZ	; CvGlobals::getNumResourceInfos
	push	eax
	mov	eax, DWORD PTR _this$[ebp]
	mov	ecx, DWORD PTR [eax+4064]
	push	ecx
	mov	edx, DWORD PTR _kStream$[ebp]
	push	edx
	call	??$ReadHashedDataArray@H@CvInfosSerializationHelper@@YAXAAVFDataStream@@PAHH@Z ; CvInfosSerializationHelper::ReadHashedDataArray<int>
	add	esp, 12					; 0000000cH

; 1578 : 
; 1579 : 	if(numPlots() > 0)

	mov	eax, DWORD PTR _this$[ebp]
	mov	ecx, DWORD PTR [eax+4028]
	mov	DWORD PTR $T239196[ebp], ecx
	cmp	DWORD PTR $T239196[ebp], 0
	jle	SHORT $LN4@Read

; 1580 : 	{
; 1581 : 		InitPlots();

	mov	ecx, DWORD PTR _this$[ebp]
	call	?InitPlots@CvMap@@IAEXXZ		; CvMap::InitPlots

; 1582 : #ifdef AUI_WARNING_FIXES
; 1583 : 		for (uint iI = 0; iI < numPlots(); iI++)
; 1584 : #else
; 1585 : 		int iI;
; 1586 : 		for(iI = 0; iI < numPlots(); iI++)

	mov	DWORD PTR _iI$235421[ebp], 0
	jmp	SHORT $LN3@Read
$LN2@Read:
	mov	edx, DWORD PTR _iI$235421[ebp]
	add	edx, 1
	mov	DWORD PTR _iI$235421[ebp], edx
$LN3@Read:
	mov	eax, DWORD PTR _this$[ebp]
	mov	ecx, DWORD PTR [eax+4028]
	mov	DWORD PTR $T239200[ebp], ecx
	mov	edx, DWORD PTR _iI$235421[ebp]
	cmp	edx, DWORD PTR $T239200[ebp]
	jge	SHORT $LN4@Read

; 1587 : #endif
; 1588 : 		{
; 1589 : 			m_pMapPlots[iI].read(kStream);

	mov	eax, DWORD PTR _kStream$[ebp]
	push	eax
	mov	ecx, DWORD PTR _iI$235421[ebp]
	imul	ecx, 484				; 000001e4H
	mov	edx, DWORD PTR _this$[ebp]
	add	ecx, DWORD PTR [edx+4068]
	call	?read@CvPlot@@QAEXAAVFDataStream@@@Z	; CvPlot::read

; 1590 : 		}

	jmp	SHORT $LN2@Read
$LN4@Read:

; 1591 : 	}
; 1592 : 
; 1593 : 	// call the read of the free list CvArea class allocations
; 1594 : 	kStream >> m_areas;

	mov	eax, DWORD PTR _this$[ebp]
	add	eax, 4112				; 00001010H
	push	eax
	mov	ecx, DWORD PTR _kStream$[ebp]
	push	ecx
	call	??$?5VCvArea@@@@YAAAVFDataStream@@AAV0@AAV?$FFreeListTrashArray@VCvArea@@@@@Z ; operator>><CvArea>
	add	esp, 8

; 1595 : 
; 1596 : 	kStream >> m_landmasses;

	mov	edx, DWORD PTR _this$[ebp]
	add	edx, 4140				; 0000102cH
	push	edx
	mov	eax, DWORD PTR _kStream$[ebp]
	push	eax
	call	??$?5VCvLandmass@@@@YAAAVFDataStream@@AAV0@AAV?$FFreeListTrashArray@VCvLandmass@@@@@Z ; operator>><CvLandmass>
	add	esp, 8

; 1597 : 
; 1598 : 	m_iAIMapHints = 0;

	mov	ecx, DWORD PTR _this$[ebp]
	mov	DWORD PTR [ecx+4052], 0

; 1599 : 	kStream >> m_iAIMapHints;

	mov	edx, DWORD PTR _this$[ebp]
	add	edx, 4052				; 00000fd4H
	push	edx
	mov	ecx, DWORD PTR _kStream$[ebp]
	call	?Read@FDataStream@@IAEXAAH@Z		; FDataStream::Read

; 1600 : 
; 1601 : 	setup();

	mov	ecx, DWORD PTR _this$[ebp]
	call	?setup@CvMap@@IAEXXZ			; CvMap::setup

; 1602 : 
; 1603 : 	updateAdjacency();

	mov	ecx, DWORD PTR _this$[ebp]
	call	?updateAdjacency@CvMap@@QAEXXZ		; CvMap::updateAdjacency

; 1604 : 
; 1605 : 	gDLL->DoMapSetup(numPlots());

	mov	eax, DWORD PTR $T239207[ebp]
	mov	DWORD PTR tv201[ebp], eax
	mov	ecx, DWORD PTR ?gGlobals@@3VCvGlobals@@A+8564
	mov	DWORD PTR tv201[ebp], ecx
	mov	edx, DWORD PTR _this$[ebp]
	mov	eax, DWORD PTR [edx+4028]
	mov	DWORD PTR $T239211[ebp], eax
	mov	ecx, DWORD PTR $T239211[ebp]
	push	ecx
	mov	edx, DWORD PTR tv201[ebp]
	mov	eax, DWORD PTR [edx]
	mov	ecx, DWORD PTR tv201[ebp]
	mov	edx, DWORD PTR [eax+20]
	call	edx

; 1606 : }

	mov	esp, ebp
	pop	ebp
	ret	4
?Read@CvMap@@QAEXAAVFDataStream@@@Z ENDP		; CvMap::Read
_TEXT	ENDS
PUBLIC	??$?6VCvLandmass@@@@YAAAVFDataStream@@AAV0@ABV?$FFreeListTrashArray@VCvLandmass@@@@@Z ; operator<<<CvLandmass>
PUBLIC	??$?6VCvArea@@@@YAAAVFDataStream@@AAV0@ABV?$FFreeListTrashArray@VCvArea@@@@@Z ; operator<<<CvArea>
PUBLIC	??$WriteHashedDataArray@W4ResourceTypes@@H@CvInfosSerializationHelper@@YAXAAVFDataStream@@PAHI@Z ; CvInfosSerializationHelper::WriteHashedDataArray<enum ResourceTypes,int>
PUBLIC	??$?6$$CBE@@YAAAVFDataStream@@AAV0@ABV?$ArrayWrapper@$$CBE@@@Z ; operator<<<unsigned char const >
PUBLIC	?Write@CvMap@@QBEXAAVFDataStream@@@Z		; CvMap::Write
EXTRN	?write@CvPlot@@QBEXAAVFDataStream@@@Z:PROC	; CvPlot::write
EXTRN	?Write@FDataStream@@IAEXABG@Z:PROC		; FDataStream::Write
EXTRN	?Write@FDataStream@@IAEXABK@Z:PROC		; FDataStream::Write
; Function compile flags: /Odtp
;	COMDAT ?Write@CvMap@@QBEXAAVFDataStream@@@Z
_TEXT	SEGMENT
_this$ = -24						; size = 4
$T239260 = -20						; size = 4
$T239214 = -16						; size = 8
_uiVersion$ = -8					; size = 4
_iI$ = -4						; size = 4
_kStream$ = 8						; size = 4
?Write@CvMap@@QBEXAAVFDataStream@@@Z PROC		; CvMap::Write, COMDAT
; _this$ = ecx

; 1613 : {

	push	ebp
	mov	ebp, esp
	sub	esp, 24					; 00000018H
	mov	DWORD PTR _this$[ebp], ecx

; 1614 : 	// Current version number
; 1615 : 	uint uiVersion = 1;

	mov	DWORD PTR _uiVersion$[ebp], 1

; 1616 : 	kStream << uiVersion;

	lea	eax, DWORD PTR _uiVersion$[ebp]
	push	eax
	mov	ecx, DWORD PTR _kStream$[ebp]
	call	?Write@FDataStream@@IAEXABI@Z		; FDataStream::Write

; 1617 : 
; 1618 : 	kStream << m_iGridWidth;

	mov	ecx, DWORD PTR _this$[ebp]
	add	ecx, 4020				; 00000fb4H
	push	ecx
	mov	ecx, DWORD PTR _kStream$[ebp]
	call	?Write@FDataStream@@IAEXABH@Z		; FDataStream::Write

; 1619 : 	kStream << m_iGridHeight;

	mov	edx, DWORD PTR _this$[ebp]
	add	edx, 4024				; 00000fb8H
	push	edx
	mov	ecx, DWORD PTR _kStream$[ebp]
	call	?Write@FDataStream@@IAEXABH@Z		; FDataStream::Write

; 1620 : 	kStream << m_iLandPlots;

	mov	eax, DWORD PTR _this$[ebp]
	add	eax, 4032				; 00000fc0H
	push	eax
	mov	ecx, DWORD PTR _kStream$[ebp]
	call	?Write@FDataStream@@IAEXABH@Z		; FDataStream::Write

; 1621 : 	kStream << m_iOwnedPlots;

	mov	ecx, DWORD PTR _this$[ebp]
	add	ecx, 4036				; 00000fc4H
	push	ecx
	mov	ecx, DWORD PTR _kStream$[ebp]
	call	?Write@FDataStream@@IAEXABH@Z		; FDataStream::Write

; 1622 : 	kStream << m_iNumNaturalWonders;

	mov	edx, DWORD PTR _this$[ebp]
	add	edx, 4048				; 00000fd0H
	push	edx
	mov	ecx, DWORD PTR _kStream$[ebp]
	call	?Write@FDataStream@@IAEXABH@Z		; FDataStream::Write

; 1623 : 	kStream << m_iTopLatitude;

	mov	eax, DWORD PTR _this$[ebp]
	add	eax, 4040				; 00000fc8H
	push	eax
	mov	ecx, DWORD PTR _kStream$[ebp]
	call	?Write@FDataStream@@IAEXABH@Z		; FDataStream::Write

; 1624 : 	kStream << m_iBottomLatitude;

	mov	ecx, DWORD PTR _this$[ebp]
	add	ecx, 4044				; 00000fccH
	push	ecx
	mov	ecx, DWORD PTR _kStream$[ebp]
	call	?Write@FDataStream@@IAEXABH@Z		; FDataStream::Write

; 1625 : 	kStream << m_bWrapX;

	mov	edx, DWORD PTR _this$[ebp]
	add	edx, 4056				; 00000fd8H
	push	edx
	mov	ecx, DWORD PTR _kStream$[ebp]
	call	?Write@FDataStream@@IAEXAB_N@Z		; FDataStream::Write

; 1626 : 	kStream << m_bWrapY;

	mov	eax, DWORD PTR _this$[ebp]
	add	eax, 4057				; 00000fd9H
	push	eax
	mov	ecx, DWORD PTR _kStream$[ebp]
	call	?Write@FDataStream@@IAEXAB_N@Z		; FDataStream::Write

; 1627 : 
; 1628 : 	kStream << m_guid.Data1;

	mov	ecx, DWORD PTR _this$[ebp]
	add	ecx, 4168				; 00001048H
	push	ecx
	mov	ecx, DWORD PTR _kStream$[ebp]
	call	?Write@FDataStream@@IAEXABK@Z		; FDataStream::Write

; 1629 : 	kStream << m_guid.Data2;

	mov	edx, DWORD PTR _this$[ebp]
	add	edx, 4172				; 0000104cH
	push	edx
	mov	ecx, DWORD PTR _kStream$[ebp]
	call	?Write@FDataStream@@IAEXABG@Z		; FDataStream::Write

; 1630 : 	kStream << m_guid.Data3;

	mov	eax, DWORD PTR _this$[ebp]
	add	eax, 4174				; 0000104eH
	push	eax
	mov	ecx, DWORD PTR _kStream$[ebp]
	call	?Write@FDataStream@@IAEXABG@Z		; FDataStream::Write

; 1631 : 	kStream << ArrayWrapper<const unsigned char>(8, m_guid.Data4);

	mov	ecx, DWORD PTR _this$[ebp]
	add	ecx, 4176				; 00001050H
	mov	DWORD PTR $T239214[ebp], ecx
	mov	DWORD PTR $T239214[ebp+4], 8
	lea	edx, DWORD PTR $T239214[ebp]
	push	edx
	mov	eax, DWORD PTR _kStream$[ebp]
	push	eax
	call	??$?6$$CBE@@YAAAVFDataStream@@AAV0@ABV?$ArrayWrapper@$$CBE@@@Z ; operator<<<unsigned char const >
	add	esp, 8

; 1632 : 
; 1633 : 	CvAssertMsg((0 < GC.getNumResourceInfos()), "GC.getNumResourceInfos() is not greater than zero but an array is being allocated");
; 1634 : 	CvInfosSerializationHelper::WriteHashedDataArray<ResourceTypes>(kStream, m_paiNumResource, GC.getNumResourceInfos());

	mov	ecx, OFFSET ?gGlobals@@3VCvGlobals@@A	; gGlobals
	call	?getNumResourceInfos@CvGlobals@@QAEHXZ	; CvGlobals::getNumResourceInfos
	push	eax
	mov	ecx, DWORD PTR _this$[ebp]
	mov	edx, DWORD PTR [ecx+4060]
	push	edx
	mov	eax, DWORD PTR _kStream$[ebp]
	push	eax
	call	??$WriteHashedDataArray@W4ResourceTypes@@H@CvInfosSerializationHelper@@YAXAAVFDataStream@@PAHI@Z ; CvInfosSerializationHelper::WriteHashedDataArray<enum ResourceTypes,int>
	add	esp, 12					; 0000000cH

; 1635 : 	CvInfosSerializationHelper::WriteHashedDataArray<ResourceTypes>(kStream, m_paiNumResourceOnLand, GC.getNumResourceInfos());

	mov	ecx, OFFSET ?gGlobals@@3VCvGlobals@@A	; gGlobals
	call	?getNumResourceInfos@CvGlobals@@QAEHXZ	; CvGlobals::getNumResourceInfos
	push	eax
	mov	ecx, DWORD PTR _this$[ebp]
	mov	edx, DWORD PTR [ecx+4064]
	push	edx
	mov	eax, DWORD PTR _kStream$[ebp]
	push	eax
	call	??$WriteHashedDataArray@W4ResourceTypes@@H@CvInfosSerializationHelper@@YAXAAVFDataStream@@PAHI@Z ; CvInfosSerializationHelper::WriteHashedDataArray<enum ResourceTypes,int>
	add	esp, 12					; 0000000cH

; 1636 : 
; 1637 : #ifdef AUI_WARNING_FIXES
; 1638 : 	for (uint iI = 0; iI < numPlots(); iI++)
; 1639 : #else
; 1640 : 	int iI;
; 1641 : 	for(iI = 0; iI < numPlots(); iI++)

	mov	DWORD PTR _iI$[ebp], 0
	jmp	SHORT $LN3@Write
$LN2@Write:
	mov	ecx, DWORD PTR _iI$[ebp]
	add	ecx, 1
	mov	DWORD PTR _iI$[ebp], ecx
$LN3@Write:
	mov	edx, DWORD PTR _this$[ebp]
	mov	eax, DWORD PTR [edx+4028]
	mov	DWORD PTR $T239260[ebp], eax
	mov	ecx, DWORD PTR _iI$[ebp]
	cmp	ecx, DWORD PTR $T239260[ebp]
	jge	SHORT $LN1@Write

; 1642 : #endif
; 1643 : 	{
; 1644 : 		m_pMapPlots[iI].write(kStream);

	mov	edx, DWORD PTR _kStream$[ebp]
	push	edx
	mov	ecx, DWORD PTR _iI$[ebp]
	imul	ecx, 484				; 000001e4H
	mov	eax, DWORD PTR _this$[ebp]
	add	ecx, DWORD PTR [eax+4068]
	call	?write@CvPlot@@QBEXAAVFDataStream@@@Z	; CvPlot::write

; 1645 : 	}

	jmp	SHORT $LN2@Write
$LN1@Write:

; 1646 : 
; 1647 : 	// call the read of the free list CvArea class allocations
; 1648 : 	kStream << m_areas;

	mov	ecx, DWORD PTR _this$[ebp]
	add	ecx, 4112				; 00001010H
	push	ecx
	mov	edx, DWORD PTR _kStream$[ebp]
	push	edx
	call	??$?6VCvArea@@@@YAAAVFDataStream@@AAV0@ABV?$FFreeListTrashArray@VCvArea@@@@@Z ; operator<<<CvArea>
	add	esp, 8

; 1649 : 
; 1650 : 	kStream << m_landmasses;

	mov	eax, DWORD PTR _this$[ebp]
	add	eax, 4140				; 0000102cH
	push	eax
	mov	ecx, DWORD PTR _kStream$[ebp]
	push	ecx
	call	??$?6VCvLandmass@@@@YAAAVFDataStream@@AAV0@ABV?$FFreeListTrashArray@VCvLandmass@@@@@Z ; operator<<<CvLandmass>
	add	esp, 8

; 1651 : 
; 1652 : 	kStream << m_iAIMapHints;

	mov	edx, DWORD PTR _this$[ebp]
	add	edx, 4052				; 00000fd4H
	push	edx
	mov	ecx, DWORD PTR _kStream$[ebp]
	call	?Write@FDataStream@@IAEXABH@Z		; FDataStream::Write

; 1653 : 
; 1654 : }

	mov	esp, ebp
	pop	ebp
	ret	4
?Write@CvMap@@QBEXAAVFDataStream@@@Z ENDP		; CvMap::Write
_TEXT	ENDS
PUBLIC	?rebuild@CvMap@@QAEXHHHH_N0W4WorldSizeTypes@@W4ClimateTypes@@W4SeaLevelTypes@@@Z ; CvMap::rebuild
EXTRN	?setSeaLevel@CvPreGame@@YAXW4SeaLevelTypes@@@Z:PROC ; CvPreGame::setSeaLevel
EXTRN	?setClimate@CvPreGame@@YAXW4ClimateTypes@@@Z:PROC ; CvPreGame::setClimate
EXTRN	?setWorldSize@CvPreGame@@YAXW4WorldSizeTypes@@_N@Z:PROC ; CvPreGame::setWorldSize
; Function compile flags: /Odtp
;	COMDAT ?rebuild@CvMap@@QAEXHHHH_N0W4WorldSizeTypes@@W4ClimateTypes@@W4SeaLevelTypes@@@Z
_TEXT	SEGMENT
_this$ = -24						; size = 4
_initData$ = -20					; size = 20
_iGridW$ = 8						; size = 4
_iGridH$ = 12						; size = 4
_iTopLatitude$ = 16					; size = 4
_iBottomLatitude$ = 20					; size = 4
_bWrapX$ = 24						; size = 1
_bWrapY$ = 28						; size = 1
_eWorldSize$ = 32					; size = 4
_eClimate$ = 36						; size = 4
_eSeaLevel$ = 40					; size = 4
?rebuild@CvMap@@QAEXHHHH_N0W4WorldSizeTypes@@W4ClimateTypes@@W4SeaLevelTypes@@@Z PROC ; CvMap::rebuild, COMDAT
; _this$ = ecx

; 1662 : {

	push	ebp
	mov	ebp, esp
	sub	esp, 24					; 00000018H
	mov	DWORD PTR _this$[ebp], ecx

; 1663 : 	CvMapInitData initData(iGridW, iGridH, iTopLatitude, iBottomLatitude, bWrapX, bWrapY);

	mov	eax, DWORD PTR _iGridW$[ebp]
	mov	DWORD PTR _initData$[ebp], eax
	mov	ecx, DWORD PTR _iGridH$[ebp]
	mov	DWORD PTR _initData$[ebp+4], ecx
	mov	edx, DWORD PTR _iTopLatitude$[ebp]
	mov	DWORD PTR _initData$[ebp+8], edx
	mov	eax, DWORD PTR _iBottomLatitude$[ebp]
	mov	DWORD PTR _initData$[ebp+12], eax
	mov	cl, BYTE PTR _bWrapX$[ebp]
	mov	BYTE PTR _initData$[ebp+16], cl
	mov	dl, BYTE PTR _bWrapY$[ebp]
	mov	BYTE PTR _initData$[ebp+17], dl

; 1664 : 
; 1665 : 	// Set init core data
; 1666 : 	CvPreGame::setWorldSize(eWorldSize, true);

	push	1
