; Listing generated by Microsoft (R) Optimizing Compiler Version 15.00.30729.01 

	TITLE	D:\sources\Lekmod_git\checkout\LEKMOD_DLL\CvGameCoreDLL_Expansion2\CvMinorCivAI.cpp
	.686P
	.XMM
	include listing.inc
	.model	flat

INCLUDELIB MSVCRT
INCLUDELIB OLDNAMES

PUBLIC	??_C@_0CF@JHCBKEFK@f2eb1642?93334?94d2c?98db1?908e6aede@ ; `string'
PUBLIC	?NO_QUEST_DATA@CvMinorCivQuest@@2HB		; CvMinorCivQuest::NO_QUEST_DATA
PUBLIC	?NO_TURN@CvMinorCivQuest@@2HB			; CvMinorCivQuest::NO_TURN
CONST	SEGMENT
_CIV5_XP2_SCENARIO2_MODID DD FLAT:??_C@_0CF@JHCBKEFK@f2eb1642?93334?94d2c?98db1?908e6aede@
CONST	ENDS
;	COMDAT ??_C@_0CF@JHCBKEFK@f2eb1642?93334?94d2c?98db1?908e6aede@
CONST	SEGMENT
??_C@_0CF@JHCBKEFK@f2eb1642?93334?94d2c?98db1?908e6aede@ DB 'f2eb1642-333'
	DB	'4-4d2c-8db1-08e6aede3532', 00H		; `string'
CONST	ENDS
;	COMDAT ?NO_TURN@CvMinorCivQuest@@2HB
CONST	SEGMENT
?NO_TURN@CvMinorCivQuest@@2HB DD 0ffffffffH		; CvMinorCivQuest::NO_TURN
CONST	ENDS
;	COMDAT ?NO_QUEST_DATA@CvMinorCivQuest@@2HB
CONST	SEGMENT
?NO_QUEST_DATA@CvMinorCivQuest@@2HB DD 0ffffffffH	; CvMinorCivQuest::NO_QUEST_DATA
CONST	ENDS
PUBLIC	??0CvMinorCivQuest@@QAE@XZ			; CvMinorCivQuest::CvMinorCivQuest
; Function compile flags: /Odtp
; File d:\sources\lekmod_git\checkout\lekmod_dll\cvgamecoredll_expansion2\cvminorcivai.cpp
;	COMDAT ??0CvMinorCivQuest@@QAE@XZ
_TEXT	SEGMENT
_this$ = -4						; size = 4
??0CvMinorCivQuest@@QAE@XZ PROC				; CvMinorCivQuest::CvMinorCivQuest, COMDAT
; _this$ = ecx

; 29   : {

	push	ebp
	mov	ebp, esp
	push	ecx
	mov	DWORD PTR _this$[ebp], ecx

; 30   : 	m_eMinor = NO_PLAYER;

	mov	eax, DWORD PTR _this$[ebp]
	mov	DWORD PTR [eax], -1

; 31   : 	m_eAssignedPlayer = NO_PLAYER;

	mov	ecx, DWORD PTR _this$[ebp]
	mov	DWORD PTR [ecx+4], -1

; 32   : 	m_eType = NO_MINOR_CIV_QUEST_TYPE;

	mov	edx, DWORD PTR _this$[ebp]
	mov	DWORD PTR [edx+8], -1

; 33   : 	m_iStartTurn = NO_TURN; /* -1 */

	mov	eax, DWORD PTR _this$[ebp]
	mov	DWORD PTR [eax+12], -1

; 34   : 	m_iData1 = NO_QUEST_DATA; /* -1 */

	mov	ecx, DWORD PTR _this$[ebp]
	mov	DWORD PTR [ecx+16], -1

; 35   : 	m_iData2 = NO_QUEST_DATA; /* -1 */

	mov	edx, DWORD PTR _this$[ebp]
	mov	DWORD PTR [edx+20], -1

; 36   : 	m_bHandled = false;

	mov	eax, DWORD PTR _this$[ebp]
	mov	BYTE PTR [eax+24], 0

; 37   : }

	mov	eax, DWORD PTR _this$[ebp]
	mov	esp, ebp
	pop	ebp
	ret	0
??0CvMinorCivQuest@@QAE@XZ ENDP				; CvMinorCivQuest::CvMinorCivQuest
_TEXT	ENDS
PUBLIC	??0CvMinorCivQuest@@QAE@W4PlayerTypes@@0W4MinorCivQuestTypes@@@Z ; CvMinorCivQuest::CvMinorCivQuest
; Function compile flags: /Odtp
;	COMDAT ??0CvMinorCivQuest@@QAE@W4PlayerTypes@@0W4MinorCivQuestTypes@@@Z
_TEXT	SEGMENT
_this$ = -4						; size = 4
_eMinor$ = 8						; size = 4
_eAssignedPlayer$ = 12					; size = 4
_eType$ = 16						; size = 4
??0CvMinorCivQuest@@QAE@W4PlayerTypes@@0W4MinorCivQuestTypes@@@Z PROC ; CvMinorCivQuest::CvMinorCivQuest, COMDAT
; _this$ = ecx

; 41   : {

	push	ebp
	mov	ebp, esp
	push	ecx
	mov	DWORD PTR _this$[ebp], ecx

; 42   : 	m_eMinor = eMinor;

	mov	eax, DWORD PTR _this$[ebp]
	mov	ecx, DWORD PTR _eMinor$[ebp]
	mov	DWORD PTR [eax], ecx

; 43   : 	m_eAssignedPlayer = eAssignedPlayer;

	mov	edx, DWORD PTR _this$[ebp]
	mov	eax, DWORD PTR _eAssignedPlayer$[ebp]
	mov	DWORD PTR [edx+4], eax

; 44   : 	m_eType = eType;

	mov	ecx, DWORD PTR _this$[ebp]
	mov	edx, DWORD PTR _eType$[ebp]
	mov	DWORD PTR [ecx+8], edx

; 45   : 	m_iStartTurn = NO_TURN; /* -1 */

	mov	eax, DWORD PTR _this$[ebp]
	mov	DWORD PTR [eax+12], -1

; 46   : 	m_iData1 = NO_QUEST_DATA; /* -1 */

	mov	ecx, DWORD PTR _this$[ebp]
	mov	DWORD PTR [ecx+16], -1

; 47   : 	m_iData2 = NO_QUEST_DATA; /* -1 */

	mov	edx, DWORD PTR _this$[ebp]
	mov	DWORD PTR [edx+20], -1

; 48   : 	m_bHandled = false;

	mov	eax, DWORD PTR _this$[ebp]
	mov	BYTE PTR [eax+24], 0

; 49   : }

	mov	eax, DWORD PTR _this$[ebp]
	mov	esp, ebp
	pop	ebp
	ret	12					; 0000000cH
??0CvMinorCivQuest@@QAE@W4PlayerTypes@@0W4MinorCivQuestTypes@@@Z ENDP ; CvMinorCivQuest::CvMinorCivQuest
_TEXT	ENDS
PUBLIC	??1CvMinorCivQuest@@QAE@XZ			; CvMinorCivQuest::~CvMinorCivQuest
; Function compile flags: /Odtp
;	COMDAT ??1CvMinorCivQuest@@QAE@XZ
_TEXT	SEGMENT
_this$ = -4						; size = 4
??1CvMinorCivQuest@@QAE@XZ PROC				; CvMinorCivQuest::~CvMinorCivQuest, COMDAT
; _this$ = ecx

; 52   : {

	push	ebp
	mov	ebp, esp
	push	ecx
	mov	DWORD PTR _this$[ebp], ecx

; 53   : }

	mov	esp, ebp
	pop	ebp
	ret	0
??1CvMinorCivQuest@@QAE@XZ ENDP				; CvMinorCivQuest::~CvMinorCivQuest
_TEXT	ENDS
PUBLIC	?GetMinor@CvMinorCivQuest@@QBE?AW4PlayerTypes@@XZ ; CvMinorCivQuest::GetMinor
; Function compile flags: /Odtp
;	COMDAT ?GetMinor@CvMinorCivQuest@@QBE?AW4PlayerTypes@@XZ
_TEXT	SEGMENT
_this$ = -4						; size = 4
?GetMinor@CvMinorCivQuest@@QBE?AW4PlayerTypes@@XZ PROC	; CvMinorCivQuest::GetMinor, COMDAT
; _this$ = ecx

; 57   : {

	push	ebp
	mov	ebp, esp
	push	ecx
	mov	DWORD PTR _this$[ebp], ecx

; 58   : 	return m_eMinor;

	mov	eax, DWORD PTR _this$[ebp]
	mov	eax, DWORD PTR [eax]

; 59   : }

	mov	esp, ebp
	pop	ebp
	ret	0
?GetMinor@CvMinorCivQuest@@QBE?AW4PlayerTypes@@XZ ENDP	; CvMinorCivQuest::GetMinor
_TEXT	ENDS
PUBLIC	?GetPlayerAssignedTo@CvMinorCivQuest@@QBE?AW4PlayerTypes@@XZ ; CvMinorCivQuest::GetPlayerAssignedTo
; Function compile flags: /Odtp
;	COMDAT ?GetPlayerAssignedTo@CvMinorCivQuest@@QBE?AW4PlayerTypes@@XZ
_TEXT	SEGMENT
_this$ = -4						; size = 4
?GetPlayerAssignedTo@CvMinorCivQuest@@QBE?AW4PlayerTypes@@XZ PROC ; CvMinorCivQuest::GetPlayerAssignedTo, COMDAT
; _this$ = ecx

; 63   : {

	push	ebp
	mov	ebp, esp
	push	ecx
	mov	DWORD PTR _this$[ebp], ecx

; 64   : 	return m_eAssignedPlayer;

	mov	eax, DWORD PTR _this$[ebp]
	mov	eax, DWORD PTR [eax+4]

; 65   : }

	mov	esp, ebp
	pop	ebp
	ret	0
?GetPlayerAssignedTo@CvMinorCivQuest@@QBE?AW4PlayerTypes@@XZ ENDP ; CvMinorCivQuest::GetPlayerAssignedTo
_TEXT	ENDS
PUBLIC	?GetType@CvMinorCivQuest@@QBE?AW4MinorCivQuestTypes@@XZ ; CvMinorCivQuest::GetType
; Function compile flags: /Odtp
;	COMDAT ?GetType@CvMinorCivQuest@@QBE?AW4MinorCivQuestTypes@@XZ
_TEXT	SEGMENT
_this$ = -4						; size = 4
?GetType@CvMinorCivQuest@@QBE?AW4MinorCivQuestTypes@@XZ PROC ; CvMinorCivQuest::GetType, COMDAT
; _this$ = ecx

; 69   : {

	push	ebp
	mov	ebp, esp
	push	ecx
	mov	DWORD PTR _this$[ebp], ecx

; 70   : 	return m_eType;

	mov	eax, DWORD PTR _this$[ebp]
	mov	eax, DWORD PTR [eax+8]

; 71   : }

	mov	esp, ebp
	pop	ebp
	ret	0
?GetType@CvMinorCivQuest@@QBE?AW4MinorCivQuestTypes@@XZ ENDP ; CvMinorCivQuest::GetType
_TEXT	ENDS
PUBLIC	?GetStartTurn@CvMinorCivQuest@@QBEHXZ		; CvMinorCivQuest::GetStartTurn
; Function compile flags: /Odtp
;	COMDAT ?GetStartTurn@CvMinorCivQuest@@QBEHXZ
_TEXT	SEGMENT
_this$ = -4						; size = 4
?GetStartTurn@CvMinorCivQuest@@QBEHXZ PROC		; CvMinorCivQuest::GetStartTurn, COMDAT
; _this$ = ecx

; 75   : {

	push	ebp
	mov	ebp, esp
	push	ecx
	mov	DWORD PTR _this$[ebp], ecx

; 76   : 	return m_iStartTurn;

	mov	eax, DWORD PTR _this$[ebp]
	mov	eax, DWORD PTR [eax+12]

; 77   : }

	mov	esp, ebp
	pop	ebp
	ret	0
?GetStartTurn@CvMinorCivQuest@@QBEHXZ ENDP		; CvMinorCivQuest::GetStartTurn
_TEXT	ENDS
PUBLIC	?GetEndTurn@CvMinorCivQuest@@QBEHXZ		; CvMinorCivQuest::GetEndTurn
EXTRN	?getGreatPeoplePercent@CvGameSpeedInfo@@QBEHXZ:PROC ; CvGameSpeedInfo::getGreatPeoplePercent
EXTRN	?getGameSpeedInfo@CvGame@@QBEAAVCvGameSpeedInfo@@XZ:PROC ; CvGame::getGameSpeedInfo
EXTRN	?gGlobals@@3VCvGlobals@@A:BYTE			; gGlobals
; Function compile flags: /Odtp
;	COMDAT ?GetEndTurn@CvMinorCivQuest@@QBEHXZ
_TEXT	SEGMENT
_this$ = -12						; size = 4
$T235039 = -8						; size = 4
_iLength$ = -4						; size = 4
?GetEndTurn@CvMinorCivQuest@@QBEHXZ PROC		; CvMinorCivQuest::GetEndTurn, COMDAT
; _this$ = ecx

; 81   : {

	push	ebp
	mov	ebp, esp
	sub	esp, 12					; 0000000cH
	mov	DWORD PTR _this$[ebp], ecx

; 82   : 	CvAssertMsg(m_iStartTurn != NO_TURN, "GetEndTurn called for a quest, but the start turn was not initialized!");
; 83   : 
; 84   : 	int iLength = 0;

	mov	DWORD PTR _iLength$[ebp], 0

; 85   : 
; 86   : 	if(m_eType == MINOR_CIV_QUEST_CONTEST_CULTURE)

	mov	eax, DWORD PTR _this$[ebp]
	cmp	DWORD PTR [eax+8], 10			; 0000000aH
	jne	SHORT $LN16@GetEndTurn

; 87   : 	{
; 88   : 		iLength = GC.getMINOR_QUEST_STANDARD_CONTEST_LENGTH();

	mov	ecx, DWORD PTR ?gGlobals@@3VCvGlobals@@A+3132
	mov	DWORD PTR _iLength$[ebp], ecx

; 89   : 	}
; 90   : 
; 91   : 	else if(m_eType == MINOR_CIV_QUEST_CONTEST_FAITH)

	jmp	$LN15@GetEndTurn
$LN16@GetEndTurn:
	mov	edx, DWORD PTR _this$[ebp]
	cmp	DWORD PTR [edx+8], 11			; 0000000bH
	jne	SHORT $LN14@GetEndTurn

; 92   : 	{
; 93   : 		iLength = GC.getMINOR_QUEST_STANDARD_CONTEST_LENGTH();

	mov	eax, DWORD PTR ?gGlobals@@3VCvGlobals@@A+3132
	mov	DWORD PTR _iLength$[ebp], eax

; 94   : 	}
; 95   : 
; 96   : 	else if(m_eType == MINOR_CIV_QUEST_CONTEST_TECHS)

	jmp	SHORT $LN15@GetEndTurn
$LN14@GetEndTurn:
	mov	ecx, DWORD PTR _this$[ebp]
	cmp	DWORD PTR [ecx+8], 12			; 0000000cH
	jne	SHORT $LN12@GetEndTurn

; 97   : 	{
; 98   : 		iLength = GC.getMINOR_QUEST_STANDARD_CONTEST_LENGTH();

	mov	edx, DWORD PTR ?gGlobals@@3VCvGlobals@@A+3132
	mov	DWORD PTR _iLength$[ebp], edx

; 99   : 	}
; 100  : 
; 101  : 	else if(m_eType == MINOR_CIV_QUEST_INVEST)

	jmp	SHORT $LN15@GetEndTurn
$LN12@GetEndTurn:
	mov	eax, DWORD PTR _this$[ebp]
	cmp	DWORD PTR [eax+8], 13			; 0000000dH
	jne	SHORT $LN10@GetEndTurn

; 102  : 	{
; 103  : 		iLength = GC.getMINOR_QUEST_STANDARD_CONTEST_LENGTH();

	mov	ecx, DWORD PTR ?gGlobals@@3VCvGlobals@@A+3132
	mov	DWORD PTR _iLength$[ebp], ecx

; 104  : 	}
; 105  : 
; 106  : 	else if(m_eType == MINOR_CIV_QUEST_GIVE_GOLD)

	jmp	SHORT $LN15@GetEndTurn
$LN10@GetEndTurn:
	mov	edx, DWORD PTR _this$[ebp]
	cmp	DWORD PTR [edx+8], 8
	jne	SHORT $LN8@GetEndTurn

; 107  : 	{
; 108  : 		iLength = GC.getMINOR_QUEST_STANDARD_CONTEST_LENGTH();

	mov	eax, DWORD PTR ?gGlobals@@3VCvGlobals@@A+3132
	mov	DWORD PTR _iLength$[ebp], eax

; 109  : 	}
; 110  : 
; 111  : 	else if(m_eType == MINOR_CIV_QUEST_PLEDGE_TO_PROTECT)

	jmp	SHORT $LN15@GetEndTurn
$LN8@GetEndTurn:
	mov	ecx, DWORD PTR _this$[ebp]
	cmp	DWORD PTR [ecx+8], 9
	jne	SHORT $LN6@GetEndTurn

; 112  : 	{
; 113  : 		iLength = GC.getMINOR_QUEST_STANDARD_CONTEST_LENGTH();

	mov	edx, DWORD PTR ?gGlobals@@3VCvGlobals@@A+3132
	mov	DWORD PTR _iLength$[ebp], edx

; 114  : 	}
; 115  : 
; 116  : 	else if(m_eType == MINOR_CIV_QUEST_BULLY_CITY_STATE)

	jmp	SHORT $LN15@GetEndTurn
$LN6@GetEndTurn:
	mov	eax, DWORD PTR _this$[ebp]
	cmp	DWORD PTR [eax+8], 14			; 0000000eH
	jne	SHORT $LN4@GetEndTurn

; 117  : 	{
; 118  : 		iLength = GC.getMINOR_QUEST_STANDARD_CONTEST_LENGTH();

	mov	ecx, DWORD PTR ?gGlobals@@3VCvGlobals@@A+3132
	mov	DWORD PTR _iLength$[ebp], ecx

; 119  : 	}
; 120  : 
; 121  : 	else if(m_eType == MINOR_CIV_QUEST_DENOUNCE_MAJOR)

	jmp	SHORT $LN15@GetEndTurn
$LN4@GetEndTurn:
	mov	edx, DWORD PTR _this$[ebp]
	cmp	DWORD PTR [edx+8], 15			; 0000000fH
	jne	SHORT $LN2@GetEndTurn

; 122  : 	{
; 123  : 		iLength = GC.getMINOR_QUEST_STANDARD_CONTEST_LENGTH();

	mov	eax, DWORD PTR ?gGlobals@@3VCvGlobals@@A+3132
	mov	DWORD PTR _iLength$[ebp], eax

; 124  : 	}
; 125  : 
; 126  : 	// Other quests are not time-sensitive
; 127  : 	else

	jmp	SHORT $LN15@GetEndTurn
$LN2@GetEndTurn:

; 128  : 	{
; 129  : 		return NO_TURN;

	or	eax, -1
	jmp	SHORT $LN17@GetEndTurn
$LN15@GetEndTurn:

; 130  : 	}
; 131  : 
; 132  : 	// Modify for Game Speed
; 133  : 	iLength *= GC.getGame().getGameSpeedInfo().getGreatPeoplePercent();

	mov	ecx, DWORD PTR ?gGlobals@@3VCvGlobals@@A+48
	mov	DWORD PTR $T235039[ebp], ecx
	mov	ecx, DWORD PTR $T235039[ebp]
	call	?getGameSpeedInfo@CvGame@@QBEAAVCvGameSpeedInfo@@XZ ; CvGame::getGameSpeedInfo
	mov	ecx, eax
	call	?getGreatPeoplePercent@CvGameSpeedInfo@@QBEHXZ ; CvGameSpeedInfo::getGreatPeoplePercent
	imul	eax, DWORD PTR _iLength$[ebp]
	mov	DWORD PTR _iLength$[ebp], eax

; 134  : 	iLength /= 100;

	mov	eax, DWORD PTR _iLength$[ebp]
	cdq
	mov	ecx, 100				; 00000064H
	idiv	ecx
	mov	DWORD PTR _iLength$[ebp], eax

; 135  : 
; 136  : 	return m_iStartTurn + iLength;

	mov	edx, DWORD PTR _this$[ebp]
	mov	eax, DWORD PTR [edx+12]
	add	eax, DWORD PTR _iLength$[ebp]
$LN17@GetEndTurn:

; 137  : }

	mov	esp, ebp
	pop	ebp
	ret	0
?GetEndTurn@CvMinorCivQuest@@QBEHXZ ENDP		; CvMinorCivQuest::GetEndTurn
_TEXT	ENDS
PUBLIC	?GetTurnsRemaining@CvMinorCivQuest@@QBEHH@Z	; CvMinorCivQuest::GetTurnsRemaining
; Function compile flags: /Odtp
;	COMDAT ?GetTurnsRemaining@CvMinorCivQuest@@QBEHH@Z
_TEXT	SEGMENT
_this$ = -12						; size = 4
_iStartTurn$ = -8					; size = 4
_iEndTurn$ = -4						; size = 4
_iCurrentTurn$ = 8					; size = 4
?GetTurnsRemaining@CvMinorCivQuest@@QBEHH@Z PROC	; CvMinorCivQuest::GetTurnsRemaining, COMDAT
; _this$ = ecx

; 141  : {

	push	ebp
	mov	ebp, esp
	sub	esp, 12					; 0000000cH
	mov	DWORD PTR _this$[ebp], ecx

; 142  : 	int iStartTurn = GetStartTurn();

	mov	ecx, DWORD PTR _this$[ebp]
	call	?GetStartTurn@CvMinorCivQuest@@QBEHXZ	; CvMinorCivQuest::GetStartTurn
	mov	DWORD PTR _iStartTurn$[ebp], eax

; 143  : 	int iEndTurn = GetEndTurn();

	mov	ecx, DWORD PTR _this$[ebp]
	call	?GetEndTurn@CvMinorCivQuest@@QBEHXZ	; CvMinorCivQuest::GetEndTurn
	mov	DWORD PTR _iEndTurn$[ebp], eax

; 144  : 
; 145  : 	if (iStartTurn == NO_TURN)

	cmp	DWORD PTR _iStartTurn$[ebp], -1
	jne	SHORT $LN2@GetTurnsRe

; 146  : 		return NO_TURN;

	or	eax, -1
	jmp	SHORT $LN3@GetTurnsRe
$LN2@GetTurnsRe:

; 147  : 
; 148  : 	if (iEndTurn == NO_TURN)

	cmp	DWORD PTR _iEndTurn$[ebp], -1
	jne	SHORT $LN1@GetTurnsRe

; 149  : 		return NO_TURN;

	or	eax, -1
	jmp	SHORT $LN3@GetTurnsRe
$LN1@GetTurnsRe:

; 150  : 
; 151  : 	return (iEndTurn - iCurrentTurn);

	mov	eax, DWORD PTR _iEndTurn$[ebp]
	sub	eax, DWORD PTR _iCurrentTurn$[ebp]
$LN3@GetTurnsRe:

; 152  : }

	mov	esp, ebp
	pop	ebp
	ret	4
?GetTurnsRemaining@CvMinorCivQuest@@QBEHH@Z ENDP	; CvMinorCivQuest::GetTurnsRemaining
_TEXT	ENDS
PUBLIC	?GetPrimaryData@CvMinorCivQuest@@QBEHXZ		; CvMinorCivQuest::GetPrimaryData
; Function compile flags: /Odtp
;	COMDAT ?GetPrimaryData@CvMinorCivQuest@@QBEHXZ
_TEXT	SEGMENT
_this$ = -4						; size = 4
?GetPrimaryData@CvMinorCivQuest@@QBEHXZ PROC		; CvMinorCivQuest::GetPrimaryData, COMDAT
; _this$ = ecx

; 156  : {

	push	ebp
	mov	ebp, esp
	push	ecx
	mov	DWORD PTR _this$[ebp], ecx

; 157  : 	return m_iData1;

	mov	eax, DWORD PTR _this$[ebp]
	mov	eax, DWORD PTR [eax+16]

; 158  : }

	mov	esp, ebp
	pop	ebp
	ret	0
?GetPrimaryData@CvMinorCivQuest@@QBEHXZ ENDP		; CvMinorCivQuest::GetPrimaryData
_TEXT	ENDS
PUBLIC	?GetSecondaryData@CvMinorCivQuest@@QBEHXZ	; CvMinorCivQuest::GetSecondaryData
; Function compile flags: /Odtp
;	COMDAT ?GetSecondaryData@CvMinorCivQuest@@QBEHXZ
_TEXT	SEGMENT
_this$ = -4						; size = 4
?GetSecondaryData@CvMinorCivQuest@@QBEHXZ PROC		; CvMinorCivQuest::GetSecondaryData, COMDAT
; _this$ = ecx

; 162  : {

	push	ebp
	mov	ebp, esp
	push	ecx
	mov	DWORD PTR _this$[ebp], ecx

; 163  : 	return m_iData2;

	mov	eax, DWORD PTR _this$[ebp]
	mov	eax, DWORD PTR [eax+20]

; 164  : }

	mov	esp, ebp
	pop	ebp
	ret	0
?GetSecondaryData@CvMinorCivQuest@@QBEHXZ ENDP		; CvMinorCivQuest::GetSecondaryData
_TEXT	ENDS
PUBLIC	?GetInfluenceReward@CvMinorCivQuest@@QBEHXZ	; CvMinorCivQuest::GetInfluenceReward
; Function compile flags: /Odtp
;	COMDAT ?GetInfluenceReward@CvMinorCivQuest@@QBEHXZ
_TEXT	SEGMENT
tv65 = -12						; size = 4
_this$ = -8						; size = 4
_iReward$ = -4						; size = 4
?GetInfluenceReward@CvMinorCivQuest@@QBEHXZ PROC	; CvMinorCivQuest::GetInfluenceReward, COMDAT
; _this$ = ecx

; 168  : {

	push	ebp
	mov	ebp, esp
	sub	esp, 12					; 0000000cH
	mov	DWORD PTR _this$[ebp], ecx

; 169  : 	int iReward = 0;

	mov	DWORD PTR _iReward$[ebp], 0

; 170  : 
; 171  : 	switch(m_eType)

	mov	eax, DWORD PTR _this$[ebp]
	mov	ecx, DWORD PTR [eax+8]
	mov	DWORD PTR tv65[ebp], ecx
	cmp	DWORD PTR tv65[ebp], 17			; 00000011H
	ja	$LN1@GetInfluen
	mov	edx, DWORD PTR tv65[ebp]
	jmp	DWORD PTR $LN60@GetInfluen[edx*4]
$LN19@GetInfluen:

; 172  : 	{
; 173  : 	case MINOR_CIV_QUEST_ROUTE:
; 174  : 		iReward = /*50*/ GC.getMINOR_QUEST_FRIENDSHIP_ROUTE();

	mov	eax, DWORD PTR ?gGlobals@@3VCvGlobals@@A+3060
	mov	DWORD PTR _iReward$[ebp], eax

; 175  : 		break;

	jmp	$LN20@GetInfluen
$LN18@GetInfluen:

; 176  : 	case MINOR_CIV_QUEST_KILL_CAMP:
; 177  : 		iReward = /*50*/ GC.getMINOR_QUEST_FRIENDSHIP_KILL_CAMP();

	mov	ecx, DWORD PTR ?gGlobals@@3VCvGlobals@@A+3064
	mov	DWORD PTR _iReward$[ebp], ecx

; 178  : 		break;

	jmp	$LN20@GetInfluen
$LN17@GetInfluen:

; 179  : 	case MINOR_CIV_QUEST_CONNECT_RESOURCE:
; 180  : 		iReward = /*40*/ GC.getMINOR_QUEST_FRIENDSHIP_CONNECT_RESOURCE();

	mov	edx, DWORD PTR ?gGlobals@@3VCvGlobals@@A+3068
	mov	DWORD PTR _iReward$[ebp], edx

; 181  : 		break;

	jmp	$LN20@GetInfluen
$LN16@GetInfluen:

; 182  : 	case MINOR_CIV_QUEST_CONSTRUCT_WONDER:
; 183  : 		iReward = /*40*/ GC.getMINOR_QUEST_FRIENDSHIP_CONSTRUCT_WONDER();

	mov	eax, DWORD PTR ?gGlobals@@3VCvGlobals@@A+3072
	mov	DWORD PTR _iReward$[ebp], eax

; 184  : 		break;

	jmp	$LN20@GetInfluen
$LN15@GetInfluen:

; 185  : 	case MINOR_CIV_QUEST_GREAT_PERSON:
; 186  : 		iReward = /*40*/ GC.getMINOR_QUEST_FRIENDSHIP_GREAT_PERSON();

	mov	ecx, DWORD PTR ?gGlobals@@3VCvGlobals@@A+3076
	mov	DWORD PTR _iReward$[ebp], ecx

; 187  : 		break;

	jmp	$LN20@GetInfluen
$LN14@GetInfluen:

; 188  : 	case MINOR_CIV_QUEST_KILL_CITY_STATE:
; 189  : 		iReward = /*80*/ GC.getMINOR_QUEST_FRIENDSHIP_KILL_CITY_STATE();

	mov	edx, DWORD PTR ?gGlobals@@3VCvGlobals@@A+3080
	mov	DWORD PTR _iReward$[ebp], edx

; 190  : 		break;

	jmp	$LN20@GetInfluen
$LN13@GetInfluen:

; 191  : 	case MINOR_CIV_QUEST_FIND_PLAYER:
; 192  : 		iReward = /*35*/ GC.getMINOR_QUEST_FRIENDSHIP_FIND_PLAYER();

	mov	eax, DWORD PTR ?gGlobals@@3VCvGlobals@@A+3084
	mov	DWORD PTR _iReward$[ebp], eax

; 193  : 		break;

	jmp	SHORT $LN20@GetInfluen
$LN12@GetInfluen:

; 194  : 	case MINOR_CIV_QUEST_FIND_NATURAL_WONDER:
; 195  : 		iReward = /*40*/ GC.getMINOR_QUEST_FRIENDSHIP_FIND_NATURAL_WONDER();

	mov	ecx, DWORD PTR ?gGlobals@@3VCvGlobals@@A+3088
	mov	DWORD PTR _iReward$[ebp], ecx

; 196  : 		break;

	jmp	SHORT $LN20@GetInfluen
$LN11@GetInfluen:

; 197  : 	case MINOR_CIV_QUEST_GIVE_GOLD:
; 198  : 		iReward = /*20*/ GC.getMINOR_QUEST_FRIENDSHIP_GIVE_GOLD();

	mov	edx, DWORD PTR ?gGlobals@@3VCvGlobals@@A+3092
	mov	DWORD PTR _iReward$[ebp], edx

; 199  : 		break;

	jmp	SHORT $LN20@GetInfluen
$LN10@GetInfluen:

; 200  : 	case MINOR_CIV_QUEST_PLEDGE_TO_PROTECT:
; 201  : 		iReward = /*20*/ GC.getMINOR_QUEST_FRIENDSHIP_PLEDGE_TO_PROTECT();

	mov	eax, DWORD PTR ?gGlobals@@3VCvGlobals@@A+3096
	mov	DWORD PTR _iReward$[ebp], eax

; 202  : 		break;

	jmp	SHORT $LN20@GetInfluen
$LN9@GetInfluen:

; 203  : 	case MINOR_CIV_QUEST_CONTEST_CULTURE:
; 204  : 		iReward = /*40*/ GC.getMINOR_QUEST_FRIENDSHIP_CONTEST_CULTURE();

	mov	ecx, DWORD PTR ?gGlobals@@3VCvGlobals@@A+3100
	mov	DWORD PTR _iReward$[ebp], ecx

; 205  : 		break;

	jmp	SHORT $LN20@GetInfluen
$LN8@GetInfluen:

; 206  : 	case MINOR_CIV_QUEST_CONTEST_FAITH:
; 207  : 		iReward = /*40*/ GC.getMINOR_QUEST_FRIENDSHIP_CONTEST_FAITH();

	mov	edx, DWORD PTR ?gGlobals@@3VCvGlobals@@A+3104
	mov	DWORD PTR _iReward$[ebp], edx

; 208  : 		break;

	jmp	SHORT $LN20@GetInfluen
$LN7@GetInfluen:

; 209  : 	case MINOR_CIV_QUEST_CONTEST_TECHS:
; 210  : 		iReward = /*40*/ GC.getMINOR_QUEST_FRIENDSHIP_CONTEST_TECHS();

	mov	eax, DWORD PTR ?gGlobals@@3VCvGlobals@@A+3108
	mov	DWORD PTR _iReward$[ebp], eax

; 211  : 		break;

	jmp	SHORT $LN20@GetInfluen
$LN6@GetInfluen:

; 212  : 	case MINOR_CIV_QUEST_INVEST:
; 213  : 		// Reward is indirect; increased gains from gold gifts
; 214  : 		iReward = /*0*/ GC.getMINOR_QUEST_FRIENDSHIP_INVEST();

	mov	ecx, DWORD PTR ?gGlobals@@3VCvGlobals@@A+3112
	mov	DWORD PTR _iReward$[ebp], ecx

; 215  : 		break;

	jmp	SHORT $LN20@GetInfluen
$LN5@GetInfluen:

; 216  : 	case MINOR_CIV_QUEST_BULLY_CITY_STATE:
; 217  : 		iReward = /*40*/ GC.getMINOR_QUEST_FRIENDSHIP_BULLY_CITY_STATE();

	mov	edx, DWORD PTR ?gGlobals@@3VCvGlobals@@A+3116
	mov	DWORD PTR _iReward$[ebp], edx

; 218  : 		break;

	jmp	SHORT $LN20@GetInfluen
$LN4@GetInfluen:

; 219  : 	case MINOR_CIV_QUEST_DENOUNCE_MAJOR:
; 220  : 		iReward = /*40*/ GC.getMINOR_QUEST_FRIENDSHIP_DENOUNCE_MAJOR();

	mov	eax, DWORD PTR ?gGlobals@@3VCvGlobals@@A+3120
	mov	DWORD PTR _iReward$[ebp], eax

; 221  : 		break;

	jmp	SHORT $LN20@GetInfluen
$LN3@GetInfluen:

; 222  : 	case MINOR_CIV_QUEST_SPREAD_RELIGION:
; 223  : 		iReward = /*40*/ GC.getMINOR_QUEST_FRIENDSHIP_SPREAD_RELIGION();

	mov	ecx, DWORD PTR ?gGlobals@@3VCvGlobals@@A+3124
	mov	DWORD PTR _iReward$[ebp], ecx

; 224  : 		break;

	jmp	SHORT $LN20@GetInfluen
$LN2@GetInfluen:

; 225  : 	case MINOR_CIV_QUEST_TRADE_ROUTE:
; 226  : 		iReward = /*40*/ GC.getMINOR_QUEST_FRIENDSHIP_TRADE_ROUTE();

	mov	edx, DWORD PTR ?gGlobals@@3VCvGlobals@@A+3128
	mov	DWORD PTR _iReward$[ebp], edx

; 227  : 		break;

	jmp	SHORT $LN20@GetInfluen
$LN1@GetInfluen:

; 228  : 	default:
; 229  : 		iReward = 0;

	mov	DWORD PTR _iReward$[ebp], 0
$LN20@GetInfluen:

; 230  : 		break;
; 231  : 	}
; 232  : 
; 233  : 	return iReward;

	mov	eax, DWORD PTR _iReward$[ebp]

; 234  : }

	mov	esp, ebp
	pop	ebp
	ret	0
	npad	3
$LN60@GetInfluen:
	DD	$LN19@GetInfluen
	DD	$LN18@GetInfluen
	DD	$LN17@GetInfluen
	DD	$LN16@GetInfluen
	DD	$LN15@GetInfluen
	DD	$LN14@GetInfluen
	DD	$LN13@GetInfluen
	DD	$LN12@GetInfluen
	DD	$LN11@GetInfluen
	DD	$LN10@GetInfluen
	DD	$LN9@GetInfluen
	DD	$LN8@GetInfluen
	DD	$LN7@GetInfluen
	DD	$LN6@GetInfluen
	DD	$LN5@GetInfluen
	DD	$LN4@GetInfluen
	DD	$LN3@GetInfluen
	DD	$LN2@GetInfluen
?GetInfluenceReward@CvMinorCivQuest@@QBEHXZ ENDP	; CvMinorCivQuest::GetInfluenceReward
_TEXT	ENDS
PUBLIC	?GetQuestData1@CvMinorCivAI@@QBEHW4PlayerTypes@@W4MinorCivQuestTypes@@@Z ; CvMinorCivAI::GetQuestData1
PUBLIC	?IsActiveQuestForPlayer@CvMinorCivAI@@QAE_NW4PlayerTypes@@W4MinorCivQuestTypes@@@Z ; CvMinorCivAI::IsActiveQuestForPlayer
PUBLIC	?GetContestValueForPlayer@CvMinorCivQuest@@QAEHW4PlayerTypes@@@Z ; CvMinorCivQuest::GetContestValueForPlayer
EXTRN	?GetNumTechsKnown@CvTeamTechs@@QBEHXZ:PROC	; CvTeamTechs::GetNumTechsKnown
EXTRN	?GetTeamTechs@CvTeam@@QBEPAVCvTeamTechs@@XZ:PROC ; CvTeam::GetTeamTechs
EXTRN	?m_aTeams@CvTeam@@1PAV1@A:DWORD			; CvTeam::m_aTeams
EXTRN	?GetFaithEverGenerated@CvPlayer@@QBEHXZ:PROC	; CvPlayer::GetFaithEverGenerated
EXTRN	?GetJONSCultureEverGenerated@CvPlayer@@QBEHXZ:PROC ; CvPlayer::GetJONSCultureEverGenerated
EXTRN	?GetMinorCivAI@CvPlayer@@QBEPAVCvMinorCivAI@@XZ:PROC ; CvPlayer::GetMinorCivAI
EXTRN	?m_aPlayers@CvPlayerAI@@1PAV1@A:DWORD		; CvPlayerAI::m_aPlayers
; Function compile flags: /Odtp
;	COMDAT ?GetContestValueForPlayer@CvMinorCivQuest@@QAEHW4PlayerTypes@@@Z
_TEXT	SEGMENT
_this$ = -64						; size = 4
$T235133 = -60						; size = 4
$T235129 = -56						; size = 4
$T235120 = -52						; size = 4
$T235116 = -48						; size = 4
$T235112 = -44						; size = 4
$T235108 = -40						; size = 4
_iStartTechs$220853 = -36				; size = 4
_iEndTechs$220854 = -32					; size = 4
_iStartFaith$220849 = -28				; size = 4
_iEndFaith$220850 = -24					; size = 4
_iStartCulture$220845 = -20				; size = 4
_iEndCulture$220846 = -16				; size = 4
_iValue$ = -12						; size = 4
_pMinor$ = -8						; size = 4
_eType$ = -4						; size = 4
_ePlayer$ = 8						; size = 4
?GetContestValueForPlayer@CvMinorCivQuest@@QAEHW4PlayerTypes@@@Z PROC ; CvMinorCivQuest::GetContestValueForPlayer, COMDAT
; _this$ = ecx

; 239  : {

	push	ebp
	mov	ebp, esp
	sub	esp, 64					; 00000040H
	mov	DWORD PTR _this$[ebp], ecx

; 240  : 	MinorCivQuestTypes eType = GetType();

	mov	ecx, DWORD PTR _this$[ebp]
	call	?GetType@CvMinorCivQuest@@QBE?AW4MinorCivQuestTypes@@XZ ; CvMinorCivQuest::GetType
	mov	DWORD PTR _eType$[ebp], eax

; 241  : 	int iValue = -1;

	mov	DWORD PTR _iValue$[ebp], -1

; 242  : 	CvPlayer* pMinor = &GET_PLAYER(GetMinor());

	mov	ecx, DWORD PTR _this$[ebp]
	call	?GetMinor@CvMinorCivQuest@@QBE?AW4PlayerTypes@@XZ ; CvMinorCivQuest::GetMinor
	mov	DWORD PTR $T235108[ebp], eax
	mov	eax, DWORD PTR $T235108[ebp]
	imul	eax, 63236				; 0000f704H
	add	eax, DWORD PTR ?m_aPlayers@CvPlayerAI@@1PAV1@A ; CvPlayerAI::m_aPlayers
	mov	DWORD PTR _pMinor$[ebp], eax

; 243  : 	if(!pMinor)

	jne	SHORT $LN7@GetContest

; 244  : 	{
; 245  : 		CvAssertMsg(false, "Error when calculating contest standings - could not find minor civ! Please send Anton your save file and version.");
; 246  : 		return iValue;

	mov	eax, DWORD PTR _iValue$[ebp]
	jmp	$LN8@GetContest
$LN7@GetContest:

; 247  : 	}
; 248  : 
; 249  : 	// Player must actually be in the contest to have a score!
; 250  : 	if(!pMinor->GetMinorCivAI()->IsActiveQuestForPlayer(ePlayer, eType))

	mov	ecx, DWORD PTR _eType$[ebp]
	push	ecx
	mov	edx, DWORD PTR _ePlayer$[ebp]
	push	edx
	mov	ecx, DWORD PTR _pMinor$[ebp]
	call	?GetMinorCivAI@CvPlayer@@QBEPAVCvMinorCivAI@@XZ ; CvPlayer::GetMinorCivAI
	mov	ecx, eax
	call	?IsActiveQuestForPlayer@CvMinorCivAI@@QAE_NW4PlayerTypes@@W4MinorCivQuestTypes@@@Z ; CvMinorCivAI::IsActiveQuestForPlayer
	movzx	eax, al
	test	eax, eax
	jne	SHORT $LN6@GetContest

; 251  : 		return iValue;

	mov	eax, DWORD PTR _iValue$[ebp]
	jmp	$LN8@GetContest
$LN6@GetContest:

; 252  : 
; 253  : 	if(eType == MINOR_CIV_QUEST_CONTEST_CULTURE)

	cmp	DWORD PTR _eType$[ebp], 10		; 0000000aH
	jne	SHORT $LN5@GetContest

; 254  : 	{
; 255  : 		int iStartCulture = pMinor->GetMinorCivAI()->GetQuestData1(ePlayer, eType);

	mov	ecx, DWORD PTR _eType$[ebp]
	push	ecx
	mov	edx, DWORD PTR _ePlayer$[ebp]
	push	edx
	mov	ecx, DWORD PTR _pMinor$[ebp]
	call	?GetMinorCivAI@CvPlayer@@QBEPAVCvMinorCivAI@@XZ ; CvPlayer::GetMinorCivAI
	mov	ecx, eax
	call	?GetQuestData1@CvMinorCivAI@@QBEHW4PlayerTypes@@W4MinorCivQuestTypes@@@Z ; CvMinorCivAI::GetQuestData1
	mov	DWORD PTR _iStartCulture$220845[ebp], eax

; 256  : 		int iEndCulture = GET_PLAYER(ePlayer).GetJONSCultureEverGenerated();

	mov	eax, DWORD PTR _ePlayer$[ebp]
	imul	eax, 63236				; 0000f704H
	add	eax, DWORD PTR ?m_aPlayers@CvPlayerAI@@1PAV1@A ; CvPlayerAI::m_aPlayers
	mov	DWORD PTR $T235112[ebp], eax
	mov	ecx, DWORD PTR $T235112[ebp]
	call	?GetJONSCultureEverGenerated@CvPlayer@@QBEHXZ ; CvPlayer::GetJONSCultureEverGenerated
	mov	DWORD PTR _iEndCulture$220846[ebp], eax

; 257  : 		iValue = iEndCulture - iStartCulture;

	mov	ecx, DWORD PTR _iEndCulture$220846[ebp]
	sub	ecx, DWORD PTR _iStartCulture$220845[ebp]
	mov	DWORD PTR _iValue$[ebp], ecx
	jmp	$LN4@GetContest
$LN5@GetContest:

; 258  : 	}
; 259  : 	else if(eType == MINOR_CIV_QUEST_CONTEST_FAITH)

	cmp	DWORD PTR _eType$[ebp], 11		; 0000000bH
	jne	SHORT $LN3@GetContest

; 260  : 	{
; 261  : 		int iStartFaith = pMinor->GetMinorCivAI()->GetQuestData1(ePlayer, eType);

	mov	edx, DWORD PTR _eType$[ebp]
	push	edx
	mov	eax, DWORD PTR _ePlayer$[ebp]
	push	eax
	mov	ecx, DWORD PTR _pMinor$[ebp]
	call	?GetMinorCivAI@CvPlayer@@QBEPAVCvMinorCivAI@@XZ ; CvPlayer::GetMinorCivAI
	mov	ecx, eax
	call	?GetQuestData1@CvMinorCivAI@@QBEHW4PlayerTypes@@W4MinorCivQuestTypes@@@Z ; CvMinorCivAI::GetQuestData1
	mov	DWORD PTR _iStartFaith$220849[ebp], eax

; 262  : 		int iEndFaith = GET_PLAYER(ePlayer).GetFaithEverGenerated();

	mov	ecx, DWORD PTR _ePlayer$[ebp]
	imul	ecx, 63236				; 0000f704H
	add	ecx, DWORD PTR ?m_aPlayers@CvPlayerAI@@1PAV1@A ; CvPlayerAI::m_aPlayers
	mov	DWORD PTR $T235116[ebp], ecx
	mov	ecx, DWORD PTR $T235116[ebp]
	call	?GetFaithEverGenerated@CvPlayer@@QBEHXZ	; CvPlayer::GetFaithEverGenerated
	mov	DWORD PTR _iEndFaith$220850[ebp], eax

; 263  : 		iValue = iEndFaith - iStartFaith;

	mov	edx, DWORD PTR _iEndFaith$220850[ebp]
	sub	edx, DWORD PTR _iStartFaith$220849[ebp]
	mov	DWORD PTR _iValue$[ebp], edx
	jmp	SHORT $LN4@GetContest
$LN3@GetContest:

; 264  : 	}
; 265  : 	else if(eType == MINOR_CIV_QUEST_CONTEST_TECHS)

	cmp	DWORD PTR _eType$[ebp], 12		; 0000000cH
	jne	SHORT $LN4@GetContest

; 266  : 	{
; 267  : 		int iStartTechs = pMinor->GetMinorCivAI()->GetQuestData1(ePlayer, eType);

	mov	eax, DWORD PTR _eType$[ebp]
	push	eax
	mov	ecx, DWORD PTR _ePlayer$[ebp]
	push	ecx
	mov	ecx, DWORD PTR _pMinor$[ebp]
	call	?GetMinorCivAI@CvPlayer@@QBEPAVCvMinorCivAI@@XZ ; CvPlayer::GetMinorCivAI
	mov	ecx, eax
	call	?GetQuestData1@CvMinorCivAI@@QBEHW4PlayerTypes@@W4MinorCivQuestTypes@@@Z ; CvMinorCivAI::GetQuestData1
	mov	DWORD PTR _iStartTechs$220853[ebp], eax

; 268  : 		int iEndTechs = GET_TEAM(GET_PLAYER(ePlayer).getTeam()).GetTeamTechs()->GetNumTechsKnown();

	mov	edx, DWORD PTR _ePlayer$[ebp]
	imul	edx, 63236				; 0000f704H
	add	edx, DWORD PTR ?m_aPlayers@CvPlayerAI@@1PAV1@A ; CvPlayerAI::m_aPlayers
	mov	DWORD PTR $T235120[ebp], edx
	mov	eax, DWORD PTR $T235120[ebp]
	mov	ecx, DWORD PTR [eax+44]
	push	ecx
	call	?teamType@CvPreGame@@YA?AW4TeamTypes@@W4PlayerTypes@@@Z ; CvPreGame::teamType
	add	esp, 4
	mov	DWORD PTR $T235129[ebp], eax
	mov	edx, DWORD PTR $T235129[ebp]
	imul	edx, 2984				; 00000ba8H
	add	edx, DWORD PTR ?m_aTeams@CvTeam@@1PAV1@A ; CvTeam::m_aTeams
	mov	DWORD PTR $T235133[ebp], edx
	mov	ecx, DWORD PTR $T235133[ebp]
	call	?GetTeamTechs@CvTeam@@QBEPAVCvTeamTechs@@XZ ; CvTeam::GetTeamTechs
	mov	ecx, eax
	call	?GetNumTechsKnown@CvTeamTechs@@QBEHXZ	; CvTeamTechs::GetNumTechsKnown
	mov	DWORD PTR _iEndTechs$220854[ebp], eax

; 269  : 		iValue = iEndTechs - iStartTechs;

	mov	eax, DWORD PTR _iEndTechs$220854[ebp]
	sub	eax, DWORD PTR _iStartTechs$220853[ebp]
	mov	DWORD PTR _iValue$[ebp], eax
$LN4@GetContest:

; 270  : 	}
; 271  : 
; 272  : 	return iValue;

	mov	eax, DWORD PTR _iValue$[ebp]
$LN8@GetContest:

; 273  : }

	mov	esp, ebp
	pop	ebp
	ret	4
?GetContestValueForPlayer@CvMinorCivQuest@@QAEHW4PlayerTypes@@@Z ENDP ; CvMinorCivQuest::GetContestValueForPlayer
_TEXT	ENDS
PUBLIC	?GetContestValueForLeader@CvMinorCivQuest@@QAEHXZ ; CvMinorCivQuest::GetContestValueForLeader
; Function compile flags: /Odtp
;	COMDAT ?GetContestValueForLeader@CvMinorCivQuest@@QAEHXZ
_TEXT	SEGMENT
_this$ = -24						; size = 4
_ePlayerLoop$220866 = -20				; size = 4
_iPlayerValue$220868 = -16				; size = 4
_iPlayerLoop$220862 = -12				; size = 4
_iHighestValue$ = -8					; size = 4
_eType$ = -4						; size = 4
?GetContestValueForLeader@CvMinorCivQuest@@QAEHXZ PROC	; CvMinorCivQuest::GetContestValueForLeader, COMDAT
; _this$ = ecx

; 276  : {

	push	ebp
	mov	ebp, esp
	sub	esp, 24					; 00000018H
	mov	DWORD PTR _this$[ebp], ecx

; 277  : 	MinorCivQuestTypes eType = GetType();

	mov	ecx, DWORD PTR _this$[ebp]
	call	?GetType@CvMinorCivQuest@@QBE?AW4MinorCivQuestTypes@@XZ ; CvMinorCivQuest::GetType
	mov	DWORD PTR _eType$[ebp], eax

; 278  : 	int iHighestValue = -1;

	mov	DWORD PTR _iHighestValue$[ebp], -1

; 279  : 
; 280  : 	if(eType == MINOR_CIV_QUEST_CONTEST_CULTURE ||
; 281  : 	        eType == MINOR_CIV_QUEST_CONTEST_FAITH ||
; 282  : 	        eType == MINOR_CIV_QUEST_CONTEST_TECHS)

	cmp	DWORD PTR _eType$[ebp], 10		; 0000000aH
	je	SHORT $LN5@GetContest@2
	cmp	DWORD PTR _eType$[ebp], 11		; 0000000bH
	je	SHORT $LN5@GetContest@2
	cmp	DWORD PTR _eType$[ebp], 12		; 0000000cH
	jne	SHORT $LN6@GetContest@2
$LN5@GetContest@2:

; 283  : 	{
; 284  : 		// What is the largest value a participant has for this contest?
; 285  : 		for(int iPlayerLoop = 0; iPlayerLoop < MAX_MAJOR_CIVS; iPlayerLoop++)

	mov	DWORD PTR _iPlayerLoop$220862[ebp], 0
	jmp	SHORT $LN4@GetContest@2
$LN3@GetContest@2:
	mov	eax, DWORD PTR _iPlayerLoop$220862[ebp]
	add	eax, 1
	mov	DWORD PTR _iPlayerLoop$220862[ebp], eax
$LN4@GetContest@2:
	cmp	DWORD PTR _iPlayerLoop$220862[ebp], 22	; 00000016H
	jge	SHORT $LN6@GetContest@2

; 286  : 		{
; 287  : 			PlayerTypes ePlayerLoop = (PlayerTypes) iPlayerLoop;

	mov	ecx, DWORD PTR _iPlayerLoop$220862[ebp]
	mov	DWORD PTR _ePlayerLoop$220866[ebp], ecx

; 288  : 
; 289  : 			int iPlayerValue = GetContestValueForPlayer(ePlayerLoop);

	mov	edx, DWORD PTR _ePlayerLoop$220866[ebp]
	push	edx
	mov	ecx, DWORD PTR _this$[ebp]
	call	?GetContestValueForPlayer@CvMinorCivQuest@@QAEHW4PlayerTypes@@@Z ; CvMinorCivQuest::GetContestValueForPlayer
	mov	DWORD PTR _iPlayerValue$220868[ebp], eax

; 290  : 			if(iPlayerValue > iHighestValue)

	mov	eax, DWORD PTR _iPlayerValue$220868[ebp]
	cmp	eax, DWORD PTR _iHighestValue$[ebp]
	jle	SHORT $LN1@GetContest@2

; 291  : 			{
; 292  : 				iHighestValue = iPlayerValue;

	mov	ecx, DWORD PTR _iPlayerValue$220868[ebp]
	mov	DWORD PTR _iHighestValue$[ebp], ecx
$LN1@GetContest@2:

; 293  : 			}
; 294  : 		}

	jmp	SHORT $LN3@GetContest@2
$LN6@GetContest@2:

; 295  : 	}
; 296  : 
; 297  : 	return iHighestValue;

	mov	eax, DWORD PTR _iHighestValue$[ebp]

; 298  : }

	mov	esp, ebp
	pop	ebp
	ret	0
?GetContestValueForLeader@CvMinorCivQuest@@QAEHXZ ENDP	; CvMinorCivQuest::GetContestValueForLeader
_TEXT	ENDS
PUBLIC	??1?$FStaticVector@W4PlayerTypes@@$0EA@$00$0BCJ@$0A@@@QAE@XZ ; FStaticVector<enum PlayerTypes,64,1,297,0>::~FStaticVector<enum PlayerTypes,64,1,297,0>
PUBLIC	??0?$FStaticVector@W4PlayerTypes@@$0EA@$00$0BCJ@$0A@@@QAE@ABV0@@Z ; FStaticVector<enum PlayerTypes,64,1,297,0>::FStaticVector<enum PlayerTypes,64,1,297,0>
PUBLIC	?push_back@?$FStaticVector@W4PlayerTypes@@$0EA@$00$0BCJ@$0A@@@QAEIABW4PlayerTypes@@@Z ; FStaticVector<enum PlayerTypes,64,1,297,0>::push_back
PUBLIC	??0?$FStaticVector@W4PlayerTypes@@$0EA@$00$0BCJ@$0A@@@QAE@XZ ; FStaticVector<enum PlayerTypes,64,1,297,0>::FStaticVector<enum PlayerTypes,64,1,297,0>
PUBLIC	__$ArrayPad$
PUBLIC	?GetContestLeaders@CvMinorCivQuest@@QAE?AV?$FStaticVector@W4PlayerTypes@@$0EA@$00$0BCJ@$0A@@@XZ ; CvMinorCivQuest::GetContestLeaders
EXTRN	___security_cookie:DWORD
EXTRN	___CxxFrameHandler3:PROC
EXTRN	@__security_check_cookie@4:PROC
;	COMDAT xdata$x
; File d:\sources\lekmod_git\checkout\lekmod_dll\fireplace\include\fireworks\ffastvector.h
xdata$x	SEGMENT
__unwindtable$?GetContestLeaders@CvMinorCivQuest@@QAE?AV?$FStaticVector@W4PlayerTypes@@$0EA@$00$0BCJ@$0A@@@XZ DD 0ffffffffH
	DD	FLAT:__unwindfunclet$?GetContestLeaders@CvMinorCivQuest@@QAE?AV?$FStaticVector@W4PlayerTypes@@$0EA@$00$0BCJ@$0A@@@XZ$1
	DD	00H
	DD	FLAT:__unwindfunclet$?GetContestLeaders@CvMinorCivQuest@@QAE?AV?$FStaticVector@W4PlayerTypes@@$0EA@$00$0BCJ@$0A@@@XZ$0
__ehfuncinfo$?GetContestLeaders@CvMinorCivQuest@@QAE?AV?$FStaticVector@W4PlayerTypes@@$0EA@$00$0BCJ@$0A@@@XZ DD 019930522H
	DD	02H
	DD	FLAT:__unwindtable$?GetContestLeaders@CvMinorCivQuest@@QAE?AV?$FStaticVector@W4PlayerTypes@@$0EA@$00$0BCJ@$0A@@@XZ
	DD	2 DUP(00H)
	DD	2 DUP(00H)
	DD	00H
	DD	01H
; Function compile flags: /Odtp
; File d:\sources\lekmod_git\checkout\lekmod_dll\cvgamecoredll_expansion2\cvminorcivai.cpp
xdata$x	ENDS
;	COMDAT ?GetContestLeaders@CvMinorCivQuest@@QAE?AV?$FStaticVector@W4PlayerTypes@@$0EA@$00$0BCJ@$0A@@@XZ
_TEXT	SEGMENT
_this$ = -360						; size = 4
$T235141 = -316						; size = 4
_ePlayerLoop$221028 = -312				; size = 4
_iPlayerValue$221030 = -308				; size = 4
_iPlayerLoop$221024 = -304				; size = 4
_veTiedForLead$ = -300					; size = 272
__$ArrayPad$ = -24					; size = 4
_iHighestValue$ = -20					; size = 4
_eType$ = -16						; size = 4
__$EHRec$ = -12						; size = 12
___$ReturnUdt$ = 8					; size = 4
?GetContestLeaders@CvMinorCivQuest@@QAE?AV?$FStaticVector@W4PlayerTypes@@$0EA@$00$0BCJ@$0A@@@XZ PROC ; CvMinorCivQuest::GetContestLeaders, COMDAT
; _this$ = ecx

; 302  : {

	push	ebp
	mov	ebp, esp
	push	-1
	push	__ehhandler$?GetContestLeaders@CvMinorCivQuest@@QAE?AV?$FStaticVector@W4PlayerTypes@@$0EA@$00$0BCJ@$0A@@@XZ
	mov	eax, DWORD PTR fs:0
	push	eax
	sub	esp, 348				; 0000015cH
	mov	eax, DWORD PTR ___security_cookie
	xor	eax, ebp
	mov	DWORD PTR __$ArrayPad$[ebp], eax
	push	eax
	lea	eax, DWORD PTR __$EHRec$[ebp]
	mov	DWORD PTR fs:0, eax
	mov	DWORD PTR _this$[ebp], ecx
	mov	DWORD PTR $T235141[ebp], 0

; 303  : 	MinorCivQuestTypes eType = GetType();

	mov	ecx, DWORD PTR _this$[ebp]
	call	?GetType@CvMinorCivQuest@@QBE?AW4MinorCivQuestTypes@@XZ ; CvMinorCivQuest::GetType
	mov	DWORD PTR _eType$[ebp], eax

; 304  : 	CivsList veTiedForLead;

	lea	ecx, DWORD PTR _veTiedForLead$[ebp]
	call	??0?$FStaticVector@W4PlayerTypes@@$0EA@$00$0BCJ@$0A@@@QAE@XZ ; FStaticVector<enum PlayerTypes,64,1,297,0>::FStaticVector<enum PlayerTypes,64,1,297,0>
	mov	DWORD PTR __$EHRec$[ebp+8], 1

; 305  : 	int iHighestValue = GetContestValueForLeader();

	mov	ecx, DWORD PTR _this$[ebp]
	call	?GetContestValueForLeader@CvMinorCivQuest@@QAEHXZ ; CvMinorCivQuest::GetContestValueForLeader
	mov	DWORD PTR _iHighestValue$[ebp], eax

; 306  : 
; 307  : 	if(eType == MINOR_CIV_QUEST_CONTEST_CULTURE ||
; 308  : 	        eType == MINOR_CIV_QUEST_CONTEST_FAITH ||
; 309  : 	        eType == MINOR_CIV_QUEST_CONTEST_TECHS)

	cmp	DWORD PTR _eType$[ebp], 10		; 0000000aH
	je	SHORT $LN5@GetContest@3
	cmp	DWORD PTR _eType$[ebp], 11		; 0000000bH
	je	SHORT $LN5@GetContest@3
	cmp	DWORD PTR _eType$[ebp], 12		; 0000000cH
	jne	SHORT $LN6@GetContest@3
$LN5@GetContest@3:

; 310  : 	{
; 311  : 		for(int iPlayerLoop = 0; iPlayerLoop < MAX_MAJOR_CIVS; iPlayerLoop++)

	mov	DWORD PTR _iPlayerLoop$221024[ebp], 0
	jmp	SHORT $LN4@GetContest@3
$LN3@GetContest@3:
	mov	eax, DWORD PTR _iPlayerLoop$221024[ebp]
	add	eax, 1
	mov	DWORD PTR _iPlayerLoop$221024[ebp], eax
$LN4@GetContest@3:
	cmp	DWORD PTR _iPlayerLoop$221024[ebp], 22	; 00000016H
	jge	SHORT $LN6@GetContest@3

; 312  : 		{
; 313  : 			PlayerTypes ePlayerLoop = (PlayerTypes) iPlayerLoop;

	mov	ecx, DWORD PTR _iPlayerLoop$221024[ebp]
	mov	DWORD PTR _ePlayerLoop$221028[ebp], ecx

; 314  : 			int iPlayerValue = GetContestValueForPlayer(ePlayerLoop);

	mov	edx, DWORD PTR _ePlayerLoop$221028[ebp]
	push	edx
	mov	ecx, DWORD PTR _this$[ebp]
	call	?GetContestValueForPlayer@CvMinorCivQuest@@QAEHW4PlayerTypes@@@Z ; CvMinorCivQuest::GetContestValueForPlayer
	mov	DWORD PTR _iPlayerValue$221030[ebp], eax

; 315  : 			CvAssertMsg(iPlayerValue <= iHighestValue, "Calculation error for calculating the leaders of a contest! Please send Anton your save file and version.");
; 316  : 			if(iPlayerValue == iHighestValue)

	mov	eax, DWORD PTR _iPlayerValue$221030[ebp]
	cmp	eax, DWORD PTR _iHighestValue$[ebp]
	jne	SHORT $LN1@GetContest@3

; 317  : 				veTiedForLead.push_back(ePlayerLoop);

	lea	ecx, DWORD PTR _ePlayerLoop$221028[ebp]
	push	ecx
	lea	ecx, DWORD PTR _veTiedForLead$[ebp]
	call	?push_back@?$FStaticVector@W4PlayerTypes@@$0EA@$00$0BCJ@$0A@@@QAEIABW4PlayerTypes@@@Z ; FStaticVector<enum PlayerTypes,64,1,297,0>::push_back
$LN1@GetContest@3:

; 318  : 		}

	jmp	SHORT $LN3@GetContest@3
$LN6@GetContest@3:

; 319  : 	}
; 320  : 
; 321  : 	return veTiedForLead;

	lea	edx, DWORD PTR _veTiedForLead$[ebp]
	push	edx
	mov	ecx, DWORD PTR ___$ReturnUdt$[ebp]
	call	??0?$FStaticVector@W4PlayerTypes@@$0EA@$00$0BCJ@$0A@@@QAE@ABV0@@Z ; FStaticVector<enum PlayerTypes,64,1,297,0>::FStaticVector<enum PlayerTypes,64,1,297,0>
	mov	eax, DWORD PTR $T235141[ebp]
	or	eax, 1
	mov	DWORD PTR $T235141[ebp], eax
	mov	BYTE PTR __$EHRec$[ebp+8], 0
	lea	ecx, DWORD PTR _veTiedForLead$[ebp]
	call	??1?$FStaticVector@W4PlayerTypes@@$0EA@$00$0BCJ@$0A@@@QAE@XZ ; FStaticVector<enum PlayerTypes,64,1,297,0>::~FStaticVector<enum PlayerTypes,64,1,297,0>
	mov	eax, DWORD PTR ___$ReturnUdt$[ebp]

; 322  : }

	mov	ecx, DWORD PTR __$EHRec$[ebp]
	mov	DWORD PTR fs:0, ecx
	pop	ecx
	mov	ecx, DWORD PTR __$ArrayPad$[ebp]
	xor	ecx, ebp
	call	@__security_check_cookie@4
	mov	esp, ebp
	pop	ebp
	ret	4
_TEXT	ENDS
;	COMDAT text$x
text$x	SEGMENT
__unwindfunclet$?GetContestLeaders@CvMinorCivQuest@@QAE?AV?$FStaticVector@W4PlayerTypes@@$0EA@$00$0BCJ@$0A@@@XZ$0:
	lea	ecx, DWORD PTR _veTiedForLead$[ebp]
	jmp	??1?$FStaticVector@W4PlayerTypes@@$0EA@$00$0BCJ@$0A@@@QAE@XZ ; FStaticVector<enum PlayerTypes,64,1,297,0>::~FStaticVector<enum PlayerTypes,64,1,297,0>
__unwindfunclet$?GetContestLeaders@CvMinorCivQuest@@QAE?AV?$FStaticVector@W4PlayerTypes@@$0EA@$00$0BCJ@$0A@@@XZ$1:
	mov	eax, DWORD PTR $T235141[ebp]
	and	eax, 1
	je	$LN11@GetContest@3
	and	DWORD PTR $T235141[ebp], -2		; fffffffeH
	mov	ecx, DWORD PTR ___$ReturnUdt$[ebp]
	jmp	??1?$FStaticVector@W4PlayerTypes@@$0EA@$00$0BCJ@$0A@@@QAE@XZ ; FStaticVector<enum PlayerTypes,64,1,297,0>::~FStaticVector<enum PlayerTypes,64,1,297,0>
$LN11@GetContest@3:
	ret	0
__ehhandler$?GetContestLeaders@CvMinorCivQuest@@QAE?AV?$FStaticVector@W4PlayerTypes@@$0EA@$00$0BCJ@$0A@@@XZ:
	mov	edx, DWORD PTR [esp+8]
	lea	eax, DWORD PTR [edx+12]
	mov	ecx, DWORD PTR [edx-352]
	xor	ecx, eax
	call	@__security_check_cookie@4
	mov	ecx, DWORD PTR [edx-12]
	xor	ecx, eax
	call	@__security_check_cookie@4
	mov	eax, OFFSET __ehfuncinfo$?GetContestLeaders@CvMinorCivQuest@@QAE?AV?$FStaticVector@W4PlayerTypes@@$0EA@$00$0BCJ@$0A@@@XZ
	jmp	___CxxFrameHandler3
text$x	ENDS
?GetContestLeaders@CvMinorCivQuest@@QAE?AV?$FStaticVector@W4PlayerTypes@@$0EA@$00$0BCJ@$0A@@@XZ ENDP ; CvMinorCivQuest::GetContestLeaders
PUBLIC	__$ArrayPad$
PUBLIC	?IsContestLeader@CvMinorCivQuest@@QAE_NW4PlayerTypes@@@Z ; CvMinorCivQuest::IsContestLeader
;	COMDAT xdata$x
; File d:\sources\lekmod_git\checkout\lekmod_dll\fireplace\include\fireworks\ffastvector.h
xdata$x	SEGMENT
__unwindtable$?IsContestLeader@CvMinorCivQuest@@QAE_NW4PlayerTypes@@@Z DD 0ffffffffH
	DD	FLAT:__unwindfunclet$?IsContestLeader@CvMinorCivQuest@@QAE_NW4PlayerTypes@@@Z$0
__ehfuncinfo$?IsContestLeader@CvMinorCivQuest@@QAE_NW4PlayerTypes@@@Z DD 019930522H
	DD	01H
	DD	FLAT:__unwindtable$?IsContestLeader@CvMinorCivQuest@@QAE_NW4PlayerTypes@@@Z
	DD	2 DUP(00H)
	DD	2 DUP(00H)
	DD	00H
	DD	01H
; Function compile flags: /Odtp
; File d:\sources\lekmod_git\checkout\lekmod_dll\cvgamecoredll_expansion2\cvminorcivai.cpp
xdata$x	ENDS
;	COMDAT ?IsContestLeader@CvMinorCivQuest@@QAE_NW4PlayerTypes@@@Z
_TEXT	SEGMENT
_this$ = -344						; size = 4
$T235231 = -316						; size = 4
$T235227 = -312						; size = 4
$T235222 = -305						; size = 1
_ui$221045 = -304					; size = 4
_veTiedForLead$221043 = -300				; size = 272
__$ArrayPad$ = -24					; size = 4
_pMinor$ = -20						; size = 4
_eType$ = -16						; size = 4
__$EHRec$ = -12						; size = 12
_ePlayer$ = 8						; size = 4
?IsContestLeader@CvMinorCivQuest@@QAE_NW4PlayerTypes@@@Z PROC ; CvMinorCivQuest::IsContestLeader, COMDAT
; _this$ = ecx

; 326  : {

	push	ebp
	mov	ebp, esp
	push	-1
	push	__ehhandler$?IsContestLeader@CvMinorCivQuest@@QAE_NW4PlayerTypes@@@Z
	mov	eax, DWORD PTR fs:0
	push	eax
	sub	esp, 332				; 0000014cH
	mov	eax, DWORD PTR ___security_cookie
	xor	eax, ebp
	mov	DWORD PTR __$ArrayPad$[ebp], eax
	push	eax
	lea	eax, DWORD PTR __$EHRec$[ebp]
	mov	DWORD PTR fs:0, eax
	mov	DWORD PTR _this$[ebp], ecx

; 327  : 	if(ePlayer == NO_PLAYER)

	cmp	DWORD PTR _ePlayer$[ebp], -1
	jne	SHORT $LN9@IsContestL

; 328  : 		ePlayer = GetPlayerAssignedTo();

	mov	ecx, DWORD PTR _this$[ebp]
	call	?GetPlayerAssignedTo@CvMinorCivQuest@@QBE?AW4PlayerTypes@@XZ ; CvMinorCivQuest::GetPlayerAssignedTo
	mov	DWORD PTR _ePlayer$[ebp], eax
$LN9@IsContestL:

; 329  : 
; 330  : 	MinorCivQuestTypes eType = GetType();

	mov	ecx, DWORD PTR _this$[ebp]
	call	?GetType@CvMinorCivQuest@@QBE?AW4MinorCivQuestTypes@@XZ ; CvMinorCivQuest::GetType
	mov	DWORD PTR _eType$[ebp], eax

; 331  : 	CvPlayer* pMinor = &GET_PLAYER(GetMinor());

	mov	ecx, DWORD PTR _this$[ebp]
	call	?GetMinor@CvMinorCivQuest@@QBE?AW4PlayerTypes@@XZ ; CvMinorCivQuest::GetMinor
	mov	DWORD PTR $T235227[ebp], eax
	mov	eax, DWORD PTR $T235227[ebp]
	imul	eax, 63236				; 0000f704H
	add	eax, DWORD PTR ?m_aPlayers@CvPlayerAI@@1PAV1@A ; CvPlayerAI::m_aPlayers
	mov	DWORD PTR _pMinor$[ebp], eax

; 332  : 	if(!pMinor)

	jne	SHORT $LN8@IsContestL

; 333  : 	{
; 334  : 		CvAssertMsg(false, "Error when calculating contest standings - could not find minor civ! Please send Anton your save file and version.");
; 335  : 		return false;

	xor	al, al
	jmp	$LN10@IsContestL
$LN8@IsContestL:

; 336  : 	}
; 337  : 	// Player must actually be in the contest!
; 338  : 	if(!pMinor->GetMinorCivAI()->IsActiveQuestForPlayer(ePlayer, eType))

	mov	ecx, DWORD PTR _eType$[ebp]
	push	ecx
	mov	edx, DWORD PTR _ePlayer$[ebp]
	push	edx
	mov	ecx, DWORD PTR _pMinor$[ebp]
	call	?GetMinorCivAI@CvPlayer@@QBEPAVCvMinorCivAI@@XZ ; CvPlayer::GetMinorCivAI
	mov	ecx, eax
	call	?IsActiveQuestForPlayer@CvMinorCivAI@@QAE_NW4PlayerTypes@@W4MinorCivQuestTypes@@@Z ; CvMinorCivAI::IsActiveQuestForPlayer
	movzx	eax, al
	test	eax, eax
	jne	SHORT $LN7@IsContestL

; 339  : 		return false;

	xor	al, al
	jmp	$LN10@IsContestL
$LN7@IsContestL:

; 340  : 
; 341  : 	if(eType == MINOR_CIV_QUEST_CONTEST_CULTURE ||
; 342  : 	        eType == MINOR_CIV_QUEST_CONTEST_FAITH ||
; 343  : 	        eType == MINOR_CIV_QUEST_CONTEST_TECHS)

	cmp	DWORD PTR _eType$[ebp], 10		; 0000000aH
	je	SHORT $LN5@IsContestL
	cmp	DWORD PTR _eType$[ebp], 11		; 0000000bH
	je	SHORT $LN5@IsContestL
	cmp	DWORD PTR _eType$[ebp], 12		; 0000000cH
	jne	$LN6@IsContestL
$LN5@IsContestL:

; 344  : 	{
; 345  : 		CivsList veTiedForLead = GetContestLeaders();

	lea	ecx, DWORD PTR _veTiedForLead$221043[ebp]
	push	ecx
	mov	ecx, DWORD PTR _this$[ebp]
	call	?GetContestLeaders@CvMinorCivQuest@@QAE?AV?$FStaticVector@W4PlayerTypes@@$0EA@$00$0BCJ@$0A@@@XZ ; CvMinorCivQuest::GetContestLeaders
	mov	DWORD PTR __$EHRec$[ebp+8], 0

; 346  : 		for(uint ui = 0; ui < veTiedForLead.size(); ui++)

	mov	DWORD PTR _ui$221045[ebp], 0
	jmp	SHORT $LN4@IsContestL
$LN3@IsContestL:
	mov	edx, DWORD PTR _ui$221045[ebp]
	add	edx, 1
	mov	DWORD PTR _ui$221045[ebp], edx
$LN4@IsContestL:
	mov	eax, DWORD PTR _veTiedForLead$221043[ebp+4]
	mov	DWORD PTR $T235231[ebp], eax
	mov	ecx, DWORD PTR _ui$221045[ebp]
	cmp	ecx, DWORD PTR $T235231[ebp]
	jae	SHORT $LN2@IsContestL

; 347  : 		{
; 348  : 			if(ePlayer == veTiedForLead[ui])

	mov	edx, DWORD PTR _ui$221045[ebp]
	mov	eax, DWORD PTR _veTiedForLead$221043[ebp]
	mov	ecx, DWORD PTR _ePlayer$[ebp]
	cmp	ecx, DWORD PTR [eax+edx*4]
	jne	SHORT $LN1@IsContestL

; 349  : 			{
; 350  : 				return true;

	mov	BYTE PTR $T235222[ebp], 1
	mov	DWORD PTR __$EHRec$[ebp+8], -1
	lea	ecx, DWORD PTR _veTiedForLead$221043[ebp]
	call	??1?$FStaticVector@W4PlayerTypes@@$0EA@$00$0BCJ@$0A@@@QAE@XZ ; FStaticVector<enum PlayerTypes,64,1,297,0>::~FStaticVector<enum PlayerTypes,64,1,297,0>
	mov	al, BYTE PTR $T235222[ebp]
	jmp	SHORT $LN10@IsContestL
$LN1@IsContestL:

; 351  : 			}
; 352  : 		}

	jmp	SHORT $LN3@IsContestL
$LN2@IsContestL:

; 353  : 	}

	mov	DWORD PTR __$EHRec$[ebp+8], -1
	lea	ecx, DWORD PTR _veTiedForLead$221043[ebp]
	call	??1?$FStaticVector@W4PlayerTypes@@$0EA@$00$0BCJ@$0A@@@QAE@XZ ; FStaticVector<enum PlayerTypes,64,1,297,0>::~FStaticVector<enum PlayerTypes,64,1,297,0>
$LN6@IsContestL:

; 354  : 
; 355  : 	return false;

	xor	al, al
$LN10@IsContestL:

; 356  : }

	mov	ecx, DWORD PTR __$EHRec$[ebp]
	mov	DWORD PTR fs:0, ecx
	pop	ecx
	mov	ecx, DWORD PTR __$ArrayPad$[ebp]
	xor	ecx, ebp
	call	@__security_check_cookie@4
	mov	esp, ebp
	pop	ebp
	ret	4
_TEXT	ENDS
;	COMDAT text$x
text$x	SEGMENT
__unwindfunclet$?IsContestLeader@CvMinorCivQuest@@QAE_NW4PlayerTypes@@@Z$0:
	lea	ecx, DWORD PTR _veTiedForLead$221043[ebp]
	jmp	??1?$FStaticVector@W4PlayerTypes@@$0EA@$00$0BCJ@$0A@@@QAE@XZ ; FStaticVector<enum PlayerTypes,64,1,297,0>::~FStaticVector<enum PlayerTypes,64,1,297,0>
__ehhandler$?IsContestLeader@CvMinorCivQuest@@QAE_NW4PlayerTypes@@@Z:
	mov	edx, DWORD PTR [esp+8]
	lea	eax, DWORD PTR [edx+12]
	mov	ecx, DWORD PTR [edx-336]
	xor	ecx, eax
	call	@__security_check_cookie@4
	mov	ecx, DWORD PTR [edx-12]
	xor	ecx, eax
	call	@__security_check_cookie@4
	mov	eax, OFFSET __ehfuncinfo$?IsContestLeader@CvMinorCivQuest@@QAE_NW4PlayerTypes@@@Z
	jmp	___CxxFrameHandler3
text$x	ENDS
?IsContestLeader@CvMinorCivQuest@@QAE_NW4PlayerTypes@@@Z ENDP ; CvMinorCivQuest::IsContestLeader
PUBLIC	?GetTurnLastBulliedByMajor@CvMinorCivAI@@QBEHW4PlayerTypes@@@Z ; CvMinorCivAI::GetTurnLastBulliedByMajor
PUBLIC	?IsProtectedByMajor@CvMinorCivAI@@QBE_NW4PlayerTypes@@@Z ; CvMinorCivAI::IsProtectedByMajor
PUBLIC	?GetNumGoldGifted@CvMinorCivAI@@QBEHW4PlayerTypes@@@Z ; CvMinorCivAI::GetNumGoldGifted
PUBLIC	?isPlot@CvMap@@QBEHHH@Z				; CvMap::isPlot
PUBLIC	?IsComplete@CvMinorCivQuest@@QAE_NXZ		; CvMinorCivQuest::IsComplete
EXTRN	?IsPlayerConnectedToPlayer@CvGameTrade@@QAE_NW4PlayerTypes@@0@Z:PROC ; CvGameTrade::IsPlayerConnectedToPlayer
EXTRN	?GetGameTrade@CvGame@@QAEPAVCvGameTrade@@XZ:PROC ; CvGame::GetGameTrade
EXTRN	?GetReligiousMajority@CvCityReligions@@QAE?AW4ReligionTypes@@XZ:PROC ; CvCityReligions::GetReligiousMajority
EXTRN	?GetCityReligions@CvCity@@QBEPAVCvCityReligions@@XZ:PROC ; CvCity::GetCityReligions
EXTRN	?getCapitalCity@CvPlayer@@QAEPAVCvCity@@XZ:PROC	; CvPlayer::getCapitalCity
EXTRN	?IsDenouncedPlayer@CvDiplomacyAI@@QBE_NW4PlayerTypes@@@Z:PROC ; CvDiplomacyAI::IsDenouncedPlayer
EXTRN	?GetDiplomacyAI@CvPlayer@@QBEPAVCvDiplomacyAI@@XZ:PROC ; CvPlayer::GetDiplomacyAI
EXTRN	?getGameTurn@CvGame@@QAEHXZ:PROC		; CvGame::getGameTurn
EXTRN	?GetNumNaturalWondersDiscovered@CvTeam@@QBEHXZ:PROC ; CvTeam::GetNumNaturalWondersDiscovered
EXTRN	?IsHasFoundPlayersTerritory@CvTeam@@QBE_NW4PlayerTypes@@@Z:PROC ; CvTeam::IsHasFoundPlayersTerritory
EXTRN	?GetKilledByTeam@CvTeam@@QBE?AW4TeamTypes@@XZ:PROC ; CvTeam::GetKilledByTeam
EXTRN	?getUnitType@CvUnit@@QBE?BW4UnitTypes@@XZ:PROC	; CvUnit::getUnitType
EXTRN	?nextUnit@CvPlayer@@QAEPAVCvUnit@@PAH_N@Z:PROC	; CvPlayer::nextUnit
EXTRN	?firstUnit@CvPlayer@@QAEPAVCvUnit@@PAH_N@Z:PROC	; CvPlayer::firstUnit
EXTRN	?countNumBuildings@CvPlayer@@QBEHW4BuildingTypes@@@Z:PROC ; CvPlayer::countNumBuildings
EXTRN	?getNumResourceTotal@CvPlayer@@QBEHW4ResourceTypes@@_N@Z:PROC ; CvPlayer::getNumResourceTotal
EXTRN	?GetPlayerThatClearedBarbCampHere@CvPlot@@QBE?AW4PlayerTypes@@XZ:PROC ; CvPlot::GetPlayerThatClearedBarbCampHere
EXTRN	?getImprovementType@CvPlot@@QBE?AW4ImprovementTypes@@XZ:PROC ; CvPlot::getImprovementType
EXTRN	?IsCapitalConnectedToPlayer@CvPlayer@@QAE_NW4PlayerTypes@@W4RouteTypes@@@Z:PROC ; CvPlayer::IsCapitalConnectedToPlayer
; Function compile flags: /Odtp
;	COMDAT ?IsComplete@CvMinorCivQuest@@QAE_NXZ
_TEXT	SEGMENT
tv381 = -176						; size = 4
_this$ = -172						; size = 4
$T235460 = -168						; size = 4
$T235450 = -164						; size = 4
$T235446 = -160						; size = 4
$T235442 = -156						; size = 4
$T235438 = -152						; size = 4
$T235434 = -148						; size = 4
$T235430 = -144						; size = 4
$T235421 = -140						; size = 4
$T235417 = -136						; size = 4
$T235408 = -132						; size = 4
$T235396 = -128						; size = 4
$T235384 = -124						; size = 4
$T235344 = -120						; size = 4
$T235332 = -116						; size = 4
$T235328 = -109						; size = 1
$T235317 = -108						; size = 4
$T235313 = -101						; size = 1
_iMapY$235353 = -100					; size = 4
_iMapX$235352 = -96					; size = 4
$T235306 = -92						; size = 4
_eReligion$221145 = -88					; size = 4
_eTargetMajor$221138 = -84				; size = 4
_pTargetMajor$221140 = -80				; size = 4
_iMostRecentBullyTurn$221134 = -76			; size = 4
_eTargetMinor$221130 = -72				; size = 4
_pTargetMinor$221132 = -68				; size = 4
_iGoldGiftedBefore$221108 = -64				; size = 4
_iNumWondersFoundBefore$221104 = -60			; size = 4
_ePlayerToFind$221099 = -56				; size = 4
_pTargetCityStateTeam$221094 = -52			; size = 4
_eTargetCityState$221090 = -48				; size = 4
_pTargetCityState$221092 = -44				; size = 4
_pLoopUnit$221083 = -40					; size = 4
_eUnit$221080 = -36					; size = 4
_iLoop$221082 = -32					; size = 4
_eWonder$221075 = -28					; size = 4
_eResource$221070 = -24					; size = 4
_pPlot$221064 = -20					; size = 4
_iX$221062 = -16					; size = 4
_iY$221063 = -12					; size = 4
_pAssignedPlayer$ = -8					; size = 4
_pMinor$ = -4						; size = 4
?IsComplete@CvMinorCivQuest@@QAE_NXZ PROC		; CvMinorCivQuest::IsComplete, COMDAT
; _this$ = ecx

; 361  : {

	push	ebp
	mov	ebp, esp
	sub	esp, 176				; 000000b0H
	push	esi
	mov	DWORD PTR _this$[ebp], ecx

; 362  : 	CvPlayer* pMinor = &GET_PLAYER(m_eMinor);

	mov	eax, DWORD PTR _this$[ebp]
	mov	ecx, DWORD PTR [eax]
	imul	ecx, 63236				; 0000f704H
	add	ecx, DWORD PTR ?m_aPlayers@CvPlayerAI@@1PAV1@A ; CvPlayerAI::m_aPlayers
	mov	DWORD PTR _pMinor$[ebp], ecx

; 363  : 	CvPlayer* pAssignedPlayer = &GET_PLAYER(m_eAssignedPlayer);

	mov	edx, DWORD PTR _this$[ebp]
	mov	eax, DWORD PTR [edx+4]
	imul	eax, 63236				; 0000f704H
	add	eax, DWORD PTR ?m_aPlayers@CvPlayerAI@@1PAV1@A ; CvPlayerAI::m_aPlayers
	mov	DWORD PTR _pAssignedPlayer$[ebp], eax

; 364  : 
; 365  : 	if(!pMinor)

	cmp	DWORD PTR _pMinor$[ebp], 0
	jne	SHORT $LN68@IsComplete

; 366  : 	{
; 367  : 		CvAssertMsg(false, "Minor player not found! Please send Anton your save file and version.");
; 368  : 		return false;

	xor	al, al
	jmp	$LN69@IsComplete
$LN68@IsComplete:

; 369  : 	}
; 370  : 	if(!pAssignedPlayer)

	cmp	DWORD PTR _pAssignedPlayer$[ebp], 0
	jne	SHORT $LN67@IsComplete

; 371  : 	{
; 372  : 		CvAssertMsg(false, "Assigned player not found! Please send Anton your save file and version.");
; 373  : 		return false;

	xor	al, al
	jmp	$LN69@IsComplete
$LN67@IsComplete:

; 374  : 	}
; 375  : 
; 376  : 	if(m_eType == MINOR_CIV_QUEST_ROUTE)

	mov	ecx, DWORD PTR _this$[ebp]
	cmp	DWORD PTR [ecx+8], 0
	jne	SHORT $LN66@IsComplete

; 377  : 	{
; 378  : 		if (pAssignedPlayer->IsCapitalConnectedToPlayer(m_eMinor))

	push	-1
	mov	edx, DWORD PTR _this$[ebp]
	mov	eax, DWORD PTR [edx]
	push	eax
	mov	ecx, DWORD PTR _pAssignedPlayer$[ebp]
	call	?IsCapitalConnectedToPlayer@CvPlayer@@QAE_NW4PlayerTypes@@W4RouteTypes@@@Z ; CvPlayer::IsCapitalConnectedToPlayer
	movzx	ecx, al
	test	ecx, ecx
	je	SHORT $LN65@IsComplete

; 379  : 		{
; 380  : 			return true;

	mov	al, 1
	jmp	$LN69@IsComplete
$LN65@IsComplete:

; 381  : 		}
; 382  : 	}

	jmp	$LN64@IsComplete
$LN66@IsComplete:

; 383  : 	else if(m_eType == MINOR_CIV_QUEST_KILL_CAMP)

	mov	edx, DWORD PTR _this$[ebp]
	cmp	DWORD PTR [edx+8], 1
	jne	$LN63@IsComplete

; 384  : 	{
; 385  : 		int iX = m_iData1;

	mov	eax, DWORD PTR _this$[ebp]
	mov	ecx, DWORD PTR [eax+16]
	mov	DWORD PTR _iX$221062[ebp], ecx

; 386  : 		int iY = m_iData2;

	mov	edx, DWORD PTR _this$[ebp]
	mov	eax, DWORD PTR [edx+20]
	mov	DWORD PTR _iY$221063[ebp], eax

; 387  : 		CvPlot* pPlot = GC.getMap().plot(iX, iY);

	mov	ecx, DWORD PTR ?gGlobals@@3VCvGlobals@@A+52
	mov	DWORD PTR $T235306[ebp], ecx
	cmp	DWORD PTR _iX$221062[ebp], -2147483647	; 80000001H
	je	SHORT $LN77@IsComplete
	cmp	DWORD PTR _iY$221063[ebp], -2147483647	; 80000001H
	jne	SHORT $LN78@IsComplete
$LN77@IsComplete:
	mov	DWORD PTR _pPlot$221064[ebp], 0
	jmp	$LN79@IsComplete
$LN78@IsComplete:
	mov	edx, DWORD PTR $T235306[ebp]
	mov	al, BYTE PTR [edx+4056]
	mov	BYTE PTR $T235313[ebp], al
	mov	ecx, DWORD PTR $T235306[ebp]
	mov	edx, DWORD PTR [ecx+4020]
	mov	DWORD PTR $T235317[ebp], edx
	movzx	eax, BYTE PTR $T235313[ebp]
	test	eax, eax
	je	SHORT $LN90@IsComplete
	cmp	DWORD PTR _iX$221062[ebp], 0
	jge	SHORT $LN89@IsComplete
	mov	eax, DWORD PTR _iX$221062[ebp]
	cdq
	idiv	DWORD PTR $T235317[ebp]
	add	edx, DWORD PTR $T235317[ebp]
	mov	DWORD PTR _iMapX$235352[ebp], edx
	jmp	SHORT $LN91@IsComplete
	jmp	SHORT $LN90@IsComplete
$LN89@IsComplete:
	mov	ecx, DWORD PTR _iX$221062[ebp]
	cmp	ecx, DWORD PTR $T235317[ebp]
	jl	SHORT $LN90@IsComplete
	mov	eax, DWORD PTR _iX$221062[ebp]
	cdq
	idiv	DWORD PTR $T235317[ebp]
	mov	DWORD PTR _iMapX$235352[ebp], edx
	jmp	SHORT $LN91@IsComplete
$LN90@IsComplete:
	mov	edx, DWORD PTR _iX$221062[ebp]
	mov	DWORD PTR _iMapX$235352[ebp], edx
$LN91@IsComplete:
	mov	eax, DWORD PTR $T235306[ebp]
	mov	cl, BYTE PTR [eax+4057]
	mov	BYTE PTR $T235328[ebp], cl
	mov	edx, DWORD PTR $T235306[ebp]
	mov	eax, DWORD PTR [edx+4024]
	mov	DWORD PTR $T235332[ebp], eax
	movzx	ecx, BYTE PTR $T235328[ebp]
	test	ecx, ecx
	je	SHORT $LN100@IsComplete
	cmp	DWORD PTR _iY$221063[ebp], 0
	jge	SHORT $LN99@IsComplete
	mov	eax, DWORD PTR _iY$221063[ebp]
	cdq
	idiv	DWORD PTR $T235332[ebp]
	add	edx, DWORD PTR $T235332[ebp]
	mov	DWORD PTR _iMapY$235353[ebp], edx
	jmp	SHORT $LN101@IsComplete
	jmp	SHORT $LN100@IsComplete
$LN99@IsComplete:
	mov	edx, DWORD PTR _iY$221063[ebp]
	cmp	edx, DWORD PTR $T235332[ebp]
	jl	SHORT $LN100@IsComplete
	mov	eax, DWORD PTR _iY$221063[ebp]
	cdq
	idiv	DWORD PTR $T235332[ebp]
	mov	DWORD PTR _iMapY$235353[ebp], edx
	jmp	SHORT $LN101@IsComplete
$LN100@IsComplete:
	mov	eax, DWORD PTR _iY$221063[ebp]
	mov	DWORD PTR _iMapY$235353[ebp], eax
$LN101@IsComplete:
	mov	ecx, DWORD PTR _iMapY$235353[ebp]
	push	ecx
	mov	edx, DWORD PTR _iMapX$235352[ebp]
	push	edx
	mov	ecx, DWORD PTR $T235306[ebp]
	call	?isPlot@CvMap@@QBEHHH@Z			; CvMap::isPlot
	test	eax, eax
	je	SHORT $LN81@IsComplete
	mov	eax, DWORD PTR $T235306[ebp]
	mov	ecx, DWORD PTR [eax+4020]
	mov	DWORD PTR $T235344[ebp], ecx
	mov	edx, DWORD PTR _iMapY$235353[ebp]
	imul	edx, DWORD PTR $T235344[ebp]
	add	edx, DWORD PTR _iMapX$235352[ebp]
	imul	edx, 484				; 000001e4H
	mov	eax, DWORD PTR $T235306[ebp]
	add	edx, DWORD PTR [eax+4068]
	mov	DWORD PTR tv381[ebp], edx
	jmp	SHORT $LN82@IsComplete
$LN81@IsComplete:
	mov	DWORD PTR tv381[ebp], 0
$LN82@IsComplete:
	mov	ecx, DWORD PTR tv381[ebp]
	mov	DWORD PTR _pPlot$221064[ebp], ecx
$LN79@IsComplete:

; 388  : 
; 389  : 		if(pPlot)

	cmp	DWORD PTR _pPlot$221064[ebp], 0
	je	SHORT $LN62@IsComplete

; 390  : 		{
; 391  : 			// No longer a camp here?
; 392  : 			if(pPlot->getImprovementType() != GC.getBARBARIAN_CAMP_IMPROVEMENT())

	mov	edx, DWORD PTR ?gGlobals@@3VCvGlobals@@A+8548
	mov	DWORD PTR $T235384[ebp], edx
	mov	ecx, DWORD PTR _pPlot$221064[ebp]
	call	?getImprovementType@CvPlot@@QBE?AW4ImprovementTypes@@XZ ; CvPlot::getImprovementType
	cmp	eax, DWORD PTR $T235384[ebp]
	je	SHORT $LN62@IsComplete

; 393  : 			{
; 394  : 				// Did this guy clear it?
; 395  : 				if(pPlot->GetPlayerThatClearedBarbCampHere() == m_eAssignedPlayer)

	mov	ecx, DWORD PTR _pPlot$221064[ebp]
	call	?GetPlayerThatClearedBarbCampHere@CvPlot@@QBE?AW4PlayerTypes@@XZ ; CvPlot::GetPlayerThatClearedBarbCampHere
	mov	ecx, DWORD PTR _this$[ebp]
	cmp	eax, DWORD PTR [ecx+4]
	jne	SHORT $LN62@IsComplete

; 396  : 				{
; 397  : 					return true;

	mov	al, 1
	jmp	$LN69@IsComplete
$LN62@IsComplete:

; 398  : 				}
; 399  : 			}
; 400  : 		}
; 401  : 	}

	jmp	$LN64@IsComplete
$LN63@IsComplete:

; 402  : 	else if(m_eType == MINOR_CIV_QUEST_CONNECT_RESOURCE)

	mov	edx, DWORD PTR _this$[ebp]
	cmp	DWORD PTR [edx+8], 2
	jne	SHORT $LN58@IsComplete

; 403  : 	{
; 404  : 		ResourceTypes eResource = (ResourceTypes) m_iData1;

	mov	eax, DWORD PTR _this$[ebp]
	mov	ecx, DWORD PTR [eax+16]
	mov	DWORD PTR _eResource$221070[ebp], ecx

; 405  : 
; 406  : 		// Player has the Resource?
; 407  : 		if(pAssignedPlayer->getNumResourceTotal(eResource, /*bIncludeImport*/ true) > 0)

	push	1
	mov	edx, DWORD PTR _eResource$221070[ebp]
	push	edx
	mov	ecx, DWORD PTR _pAssignedPlayer$[ebp]
	call	?getNumResourceTotal@CvPlayer@@QBEHW4ResourceTypes@@_N@Z ; CvPlayer::getNumResourceTotal
	test	eax, eax
	jle	SHORT $LN57@IsComplete

; 408  : 		{
; 409  : 			return true;

	mov	al, 1
	jmp	$LN69@IsComplete
$LN57@IsComplete:

; 410  : 		}
; 411  : 	}

	jmp	$LN64@IsComplete
$LN58@IsComplete:

; 412  : 	else if(m_eType == MINOR_CIV_QUEST_CONSTRUCT_WONDER)

	mov	eax, DWORD PTR _this$[ebp]
	cmp	DWORD PTR [eax+8], 3
	jne	SHORT $LN55@IsComplete

; 413  : 	{
; 414  : 		BuildingTypes eWonder = (BuildingTypes) m_iData1;

	mov	ecx, DWORD PTR _this$[ebp]
	mov	edx, DWORD PTR [ecx+16]
	mov	DWORD PTR _eWonder$221075[ebp], edx

; 415  : 
; 416  : 		// Player built the Wonder?
; 417  : 		if(pAssignedPlayer->countNumBuildings(eWonder) > 0)

	mov	eax, DWORD PTR _eWonder$221075[ebp]
	push	eax
	mov	ecx, DWORD PTR _pAssignedPlayer$[ebp]
	call	?countNumBuildings@CvPlayer@@QBEHW4BuildingTypes@@@Z ; CvPlayer::countNumBuildings
	test	eax, eax
	jle	SHORT $LN54@IsComplete

; 418  : 		{
; 419  : 			return true;

	mov	al, 1
	jmp	$LN69@IsComplete
$LN54@IsComplete:

; 420  : 		}
; 421  : 	}

	jmp	$LN64@IsComplete
$LN55@IsComplete:

; 422  : 	else if(m_eType == MINOR_CIV_QUEST_GREAT_PERSON)

	mov	ecx, DWORD PTR _this$[ebp]
	cmp	DWORD PTR [ecx+8], 4
	jne	SHORT $LN52@IsComplete

; 423  : 	{
; 424  : 		UnitTypes eUnit = (UnitTypes) m_iData1;

	mov	edx, DWORD PTR _this$[ebp]
	mov	eax, DWORD PTR [edx+16]
	mov	DWORD PTR _eUnit$221080[ebp], eax

; 425  : 
; 426  : 		// Player has the Great Person?
; 427  : 		int iLoop;
; 428  : 		for(CvUnit* pLoopUnit = pAssignedPlayer->firstUnit(&iLoop); NULL != pLoopUnit; pLoopUnit = pAssignedPlayer->nextUnit(&iLoop))

	push	0
	lea	ecx, DWORD PTR _iLoop$221082[ebp]
	push	ecx
	mov	ecx, DWORD PTR _pAssignedPlayer$[ebp]
	call	?firstUnit@CvPlayer@@QAEPAVCvUnit@@PAH_N@Z ; CvPlayer::firstUnit
	mov	DWORD PTR _pLoopUnit$221083[ebp], eax
	jmp	SHORT $LN51@IsComplete
$LN50@IsComplete:
	push	0
	lea	edx, DWORD PTR _iLoop$221082[ebp]
	push	edx
	mov	ecx, DWORD PTR _pAssignedPlayer$[ebp]
	call	?nextUnit@CvPlayer@@QAEPAVCvUnit@@PAH_N@Z ; CvPlayer::nextUnit
	mov	DWORD PTR _pLoopUnit$221083[ebp], eax
$LN51@IsComplete:
	cmp	DWORD PTR _pLoopUnit$221083[ebp], 0
	je	SHORT $LN49@IsComplete

; 429  : 		{
; 430  : 			if(pLoopUnit->getUnitType() == eUnit)

	mov	ecx, DWORD PTR _pLoopUnit$221083[ebp]
	call	?getUnitType@CvUnit@@QBE?BW4UnitTypes@@XZ ; CvUnit::getUnitType
	cmp	eax, DWORD PTR _eUnit$221080[ebp]
	jne	SHORT $LN48@IsComplete

; 431  : 			{
; 432  : 				return true;

	mov	al, 1
	jmp	$LN69@IsComplete
$LN48@IsComplete:

; 433  : 			}
; 434  : 		}

	jmp	SHORT $LN50@IsComplete
$LN49@IsComplete:

; 435  : 	}
; 436  : 	else if(m_eType == MINOR_CIV_QUEST_KILL_CITY_STATE)

	jmp	$LN64@IsComplete
$LN52@IsComplete:
	mov	eax, DWORD PTR _this$[ebp]
	cmp	DWORD PTR [eax+8], 5
	jne	SHORT $LN46@IsComplete

; 437  : 	{
; 438  : 		PlayerTypes eTargetCityState = (PlayerTypes) m_iData1;

	mov	ecx, DWORD PTR _this$[ebp]
	mov	edx, DWORD PTR [ecx+16]
	mov	DWORD PTR _eTargetCityState$221090[ebp], edx

; 439  : 		CvPlayer* pTargetCityState = &GET_PLAYER(eTargetCityState);

	mov	eax, DWORD PTR _eTargetCityState$221090[ebp]
	imul	eax, 63236				; 0000f704H
	add	eax, DWORD PTR ?m_aPlayers@CvPlayerAI@@1PAV1@A ; CvPlayerAI::m_aPlayers
	mov	DWORD PTR _pTargetCityState$221092[ebp], eax

; 440  : 		if(pTargetCityState)

	je	SHORT $LN45@IsComplete

; 441  : 		{
; 442  : 			CvTeam* pTargetCityStateTeam = &GET_TEAM(pTargetCityState->getTeam());

	mov	ecx, DWORD PTR _pTargetCityState$221092[ebp]
	mov	edx, DWORD PTR [ecx+44]
	push	edx
	call	?teamType@CvPreGame@@YA?AW4TeamTypes@@W4PlayerTypes@@@Z ; CvPreGame::teamType
	add	esp, 4
	mov	DWORD PTR $T235396[ebp], eax
	mov	eax, DWORD PTR $T235396[ebp]
	imul	eax, 2984				; 00000ba8H
	add	eax, DWORD PTR ?m_aTeams@CvTeam@@1PAV1@A ; CvTeam::m_aTeams
	mov	DWORD PTR _pTargetCityStateTeam$221094[ebp], eax

; 443  : 			if(pTargetCityStateTeam)

	je	SHORT $LN45@IsComplete

; 444  : 			{
; 445  : 				// Player killed the City State?
; 446  : 				if(pTargetCityStateTeam->GetKilledByTeam() == pAssignedPlayer->getTeam())

	mov	ecx, DWORD PTR _pAssignedPlayer$[ebp]
	mov	edx, DWORD PTR [ecx+44]
	push	edx
	call	?teamType@CvPreGame@@YA?AW4TeamTypes@@W4PlayerTypes@@@Z ; CvPreGame::teamType
	add	esp, 4
	mov	DWORD PTR $T235408[ebp], eax
	mov	ecx, DWORD PTR _pTargetCityStateTeam$221094[ebp]
	call	?GetKilledByTeam@CvTeam@@QBE?AW4TeamTypes@@XZ ; CvTeam::GetKilledByTeam
	cmp	eax, DWORD PTR $T235408[ebp]
	jne	SHORT $LN45@IsComplete

; 447  : 				{
; 448  : 					return true;

	mov	al, 1
	jmp	$LN69@IsComplete
$LN45@IsComplete:

; 449  : 				}
; 450  : 			}
; 451  : 		}
; 452  : 	}

	jmp	$LN64@IsComplete
$LN46@IsComplete:

; 453  : 	else if(m_eType == MINOR_CIV_QUEST_FIND_PLAYER)

	mov	eax, DWORD PTR _this$[ebp]
	cmp	DWORD PTR [eax+8], 6
	jne	SHORT $LN41@IsComplete

; 454  : 	{
; 455  : 		PlayerTypes ePlayerToFind = (PlayerTypes) m_iData1;

	mov	ecx, DWORD PTR _this$[ebp]
	mov	edx, DWORD PTR [ecx+16]
	mov	DWORD PTR _ePlayerToFind$221099[ebp], edx

; 456  : 
; 457  : 		// Player found the target player?
; 458  : 		if(GET_TEAM(pAssignedPlayer->getTeam()).IsHasFoundPlayersTerritory(ePlayerToFind))

	mov	eax, DWORD PTR _pAssignedPlayer$[ebp]
	mov	ecx, DWORD PTR [eax+44]
	push	ecx
	call	?teamType@CvPreGame@@YA?AW4TeamTypes@@W4PlayerTypes@@@Z ; CvPreGame::teamType
	add	esp, 4
	mov	DWORD PTR $T235417[ebp], eax
	mov	edx, DWORD PTR $T235417[ebp]
	imul	edx, 2984				; 00000ba8H
	add	edx, DWORD PTR ?m_aTeams@CvTeam@@1PAV1@A ; CvTeam::m_aTeams
	mov	DWORD PTR $T235421[ebp], edx
	mov	eax, DWORD PTR _ePlayerToFind$221099[ebp]
	push	eax
	mov	ecx, DWORD PTR $T235421[ebp]
	call	?IsHasFoundPlayersTerritory@CvTeam@@QBE_NW4PlayerTypes@@@Z ; CvTeam::IsHasFoundPlayersTerritory
	movzx	ecx, al
	test	ecx, ecx
	je	SHORT $LN40@IsComplete

; 459  : 		{
; 460  : 			return true;

	mov	al, 1
	jmp	$LN69@IsComplete
$LN40@IsComplete:

; 461  : 		}
; 462  : 	}

	jmp	$LN64@IsComplete
$LN41@IsComplete:

; 463  : 	else if(m_eType == MINOR_CIV_QUEST_FIND_NATURAL_WONDER)

	mov	edx, DWORD PTR _this$[ebp]
	cmp	DWORD PTR [edx+8], 7
	jne	SHORT $LN38@IsComplete

; 464  : 	{
; 465  : 		int iNumWondersFoundBefore = m_iData1;

	mov	eax, DWORD PTR _this$[ebp]
	mov	ecx, DWORD PTR [eax+16]
	mov	DWORD PTR _iNumWondersFoundBefore$221104[ebp], ecx

; 466  : 
; 467  : 		// Player found a new NW?
; 468  : 		if(GET_TEAM(pAssignedPlayer->getTeam()).GetNumNaturalWondersDiscovered() > iNumWondersFoundBefore)

	mov	edx, DWORD PTR _pAssignedPlayer$[ebp]
	mov	eax, DWORD PTR [edx+44]
	push	eax
	call	?teamType@CvPreGame@@YA?AW4TeamTypes@@W4PlayerTypes@@@Z ; CvPreGame::teamType
	add	esp, 4
	mov	DWORD PTR $T235430[ebp], eax
	mov	ecx, DWORD PTR $T235430[ebp]
	imul	ecx, 2984				; 00000ba8H
	add	ecx, DWORD PTR ?m_aTeams@CvTeam@@1PAV1@A ; CvTeam::m_aTeams
	mov	DWORD PTR $T235434[ebp], ecx
	mov	ecx, DWORD PTR $T235434[ebp]
	call	?GetNumNaturalWondersDiscovered@CvTeam@@QBEHXZ ; CvTeam::GetNumNaturalWondersDiscovered
	cmp	eax, DWORD PTR _iNumWondersFoundBefore$221104[ebp]
	jle	SHORT $LN37@IsComplete

; 469  : 		{
; 470  : 			return true;

	mov	al, 1
	jmp	$LN69@IsComplete
$LN37@IsComplete:

; 471  : 		}
; 472  : 	}

	jmp	$LN64@IsComplete
$LN38@IsComplete:

; 473  : 	else if(m_eType == MINOR_CIV_QUEST_GIVE_GOLD)

	mov	edx, DWORD PTR _this$[ebp]
	cmp	DWORD PTR [edx+8], 8
	jne	SHORT $LN35@IsComplete

; 474  : 	{
; 475  : 		int iGoldGiftedBefore = m_iData2;

	mov	eax, DWORD PTR _this$[ebp]
	mov	ecx, DWORD PTR [eax+20]
	mov	DWORD PTR _iGoldGiftedBefore$221108[ebp], ecx

; 476  : 
; 477  : 		// Has the player given gold since the quest began?
; 478  : 		if(pMinor->GetMinorCivAI()->GetNumGoldGifted(m_eAssignedPlayer) > iGoldGiftedBefore)

	mov	edx, DWORD PTR _this$[ebp]
	mov	eax, DWORD PTR [edx+4]
	push	eax
	mov	ecx, DWORD PTR _pMinor$[ebp]
	call	?GetMinorCivAI@CvPlayer@@QBEPAVCvMinorCivAI@@XZ ; CvPlayer::GetMinorCivAI
	mov	ecx, eax
	call	?GetNumGoldGifted@CvMinorCivAI@@QBEHW4PlayerTypes@@@Z ; CvMinorCivAI::GetNumGoldGifted
	cmp	eax, DWORD PTR _iGoldGiftedBefore$221108[ebp]
	jle	SHORT $LN34@IsComplete

; 479  : 		{
; 480  : 			return true;

	mov	al, 1
	jmp	$LN69@IsComplete
$LN34@IsComplete:

; 481  : 		}
; 482  : 	}

	jmp	$LN64@IsComplete
$LN35@IsComplete:

; 483  : 	else if(m_eType == MINOR_CIV_QUEST_PLEDGE_TO_PROTECT)

	mov	ecx, DWORD PTR _this$[ebp]
	cmp	DWORD PTR [ecx+8], 9
	jne	SHORT $LN32@IsComplete

; 484  : 	{
; 485  : 		// Has the player pledged?
; 486  : 		if(pMinor->GetMinorCivAI()->IsProtectedByMajor(m_eAssignedPlayer))

	mov	edx, DWORD PTR _this$[ebp]
	mov	eax, DWORD PTR [edx+4]
	push	eax
	mov	ecx, DWORD PTR _pMinor$[ebp]
	call	?GetMinorCivAI@CvPlayer@@QBEPAVCvMinorCivAI@@XZ ; CvPlayer::GetMinorCivAI
	mov	ecx, eax
	call	?IsProtectedByMajor@CvMinorCivAI@@QBE_NW4PlayerTypes@@@Z ; CvMinorCivAI::IsProtectedByMajor
	movzx	ecx, al
	test	ecx, ecx
	je	SHORT $LN31@IsComplete

; 487  : 		{
; 488  : 			return true;

	mov	al, 1
	jmp	$LN69@IsComplete
$LN31@IsComplete:

; 489  : 		}
; 490  : 	}

	jmp	$LN64@IsComplete
$LN32@IsComplete:

; 491  : 	else if(m_eType == MINOR_CIV_QUEST_CONTEST_CULTURE)

	mov	edx, DWORD PTR _this$[ebp]
	cmp	DWORD PTR [edx+8], 10			; 0000000aH
	jne	SHORT $LN29@IsComplete

; 492  : 	{
; 493  : 		// Is it time to compare the score?
; 494  : 		if(GetEndTurn() == GC.getGame().getGameTurn())

	mov	eax, DWORD PTR ?gGlobals@@3VCvGlobals@@A+48
	mov	DWORD PTR $T235438[ebp], eax
	mov	ecx, DWORD PTR _this$[ebp]
	call	?GetEndTurn@CvMinorCivQuest@@QBEHXZ	; CvMinorCivQuest::GetEndTurn
	mov	esi, eax
	mov	ecx, DWORD PTR $T235438[ebp]
	call	?getGameTurn@CvGame@@QAEHXZ		; CvGame::getGameTurn
	cmp	esi, eax
	jne	SHORT $LN28@IsComplete

; 495  : 			if(IsContestLeader(GetPlayerAssignedTo()))

	mov	ecx, DWORD PTR _this$[ebp]
	call	?GetPlayerAssignedTo@CvMinorCivQuest@@QBE?AW4PlayerTypes@@XZ ; CvMinorCivQuest::GetPlayerAssignedTo
	push	eax
	mov	ecx, DWORD PTR _this$[ebp]
	call	?IsContestLeader@CvMinorCivQuest@@QAE_NW4PlayerTypes@@@Z ; CvMinorCivQuest::IsContestLeader
	movzx	ecx, al
	test	ecx, ecx
	je	SHORT $LN28@IsComplete

; 496  : 				return true;

	mov	al, 1
	jmp	$LN69@IsComplete
$LN28@IsComplete:

; 497  : 	}

	jmp	$LN64@IsComplete
$LN29@IsComplete:

; 498  : 	else if(m_eType == MINOR_CIV_QUEST_CONTEST_FAITH)

	mov	edx, DWORD PTR _this$[ebp]
	cmp	DWORD PTR [edx+8], 11			; 0000000bH
	jne	SHORT $LN25@IsComplete

; 499  : 	{
; 500  : 		// Is it time to compare the score?
; 501  : 		if(GetEndTurn() == GC.getGame().getGameTurn())

	mov	eax, DWORD PTR ?gGlobals@@3VCvGlobals@@A+48
	mov	DWORD PTR $T235442[ebp], eax
	mov	ecx, DWORD PTR _this$[ebp]
	call	?GetEndTurn@CvMinorCivQuest@@QBEHXZ	; CvMinorCivQuest::GetEndTurn
	mov	esi, eax
	mov	ecx, DWORD PTR $T235442[ebp]
	call	?getGameTurn@CvGame@@QAEHXZ		; CvGame::getGameTurn
	cmp	esi, eax
	jne	SHORT $LN24@IsComplete

; 502  : 			if(IsContestLeader(GetPlayerAssignedTo()))

	mov	ecx, DWORD PTR _this$[ebp]
	call	?GetPlayerAssignedTo@CvMinorCivQuest@@QBE?AW4PlayerTypes@@XZ ; CvMinorCivQuest::GetPlayerAssignedTo
	push	eax
	mov	ecx, DWORD PTR _this$[ebp]
	call	?IsContestLeader@CvMinorCivQuest@@QAE_NW4PlayerTypes@@@Z ; CvMinorCivQuest::IsContestLeader
	movzx	ecx, al
	test	ecx, ecx
	je	SHORT $LN24@IsComplete

; 503  : 				return true;

	mov	al, 1
	jmp	$LN69@IsComplete
$LN24@IsComplete:

; 504  : 	}

	jmp	$LN64@IsComplete
$LN25@IsComplete:

; 505  : 	else if(m_eType == MINOR_CIV_QUEST_CONTEST_TECHS)

	mov	edx, DWORD PTR _this$[ebp]
	cmp	DWORD PTR [edx+8], 12			; 0000000cH
	jne	SHORT $LN21@IsComplete

; 506  : 	{
; 507  : 		// Is it time to compare the score?
; 508  : 		if(GetEndTurn() == GC.getGame().getGameTurn())

	mov	eax, DWORD PTR ?gGlobals@@3VCvGlobals@@A+48
	mov	DWORD PTR $T235446[ebp], eax
	mov	ecx, DWORD PTR _this$[ebp]
	call	?GetEndTurn@CvMinorCivQuest@@QBEHXZ	; CvMinorCivQuest::GetEndTurn
	mov	esi, eax
	mov	ecx, DWORD PTR $T235446[ebp]
	call	?getGameTurn@CvGame@@QAEHXZ		; CvGame::getGameTurn
	cmp	esi, eax
	jne	SHORT $LN20@IsComplete

; 509  : 			if(IsContestLeader(GetPlayerAssignedTo()))

	mov	ecx, DWORD PTR _this$[ebp]
	call	?GetPlayerAssignedTo@CvMinorCivQuest@@QBE?AW4PlayerTypes@@XZ ; CvMinorCivQuest::GetPlayerAssignedTo
	push	eax
	mov	ecx, DWORD PTR _this$[ebp]
	call	?IsContestLeader@CvMinorCivQuest@@QAE_NW4PlayerTypes@@@Z ; CvMinorCivQuest::IsContestLeader
	movzx	ecx, al
	test	ecx, ecx
	je	SHORT $LN20@IsComplete

; 510  : 				return true;

	mov	al, 1
	jmp	$LN69@IsComplete
$LN20@IsComplete:

; 511  : 	}

	jmp	$LN64@IsComplete
$LN21@IsComplete:

; 512  : 	else if(m_eType == MINOR_CIV_QUEST_INVEST)

	mov	edx, DWORD PTR _this$[ebp]
	cmp	DWORD PTR [edx+8], 13			; 0000000dH
	jne	SHORT $LN17@IsComplete

; 513  : 	{
; 514  : 		if(GetEndTurn() == GC.getGame().getGameTurn())

	mov	eax, DWORD PTR ?gGlobals@@3VCvGlobals@@A+48
	mov	DWORD PTR $T235450[ebp], eax
	mov	ecx, DWORD PTR _this$[ebp]
	call	?GetEndTurn@CvMinorCivQuest@@QBEHXZ	; CvMinorCivQuest::GetEndTurn
	mov	esi, eax
	mov	ecx, DWORD PTR $T235450[ebp]
	call	?getGameTurn@CvGame@@QAEHXZ		; CvGame::getGameTurn
	cmp	esi, eax
	jne	SHORT $LN16@IsComplete

; 515  : 			return true;

	mov	al, 1
	jmp	$LN69@IsComplete
$LN16@IsComplete:

; 516  : 	}

	jmp	$LN64@IsComplete
$LN17@IsComplete:

; 517  : 	else if(m_eType == MINOR_CIV_QUEST_BULLY_CITY_STATE)

	mov	ecx, DWORD PTR _this$[ebp]
	cmp	DWORD PTR [ecx+8], 14			; 0000000eH
	jne	SHORT $LN14@IsComplete

; 518  : 	{
; 519  : 		// Has the player bullied since the quest began?
; 520  : 		PlayerTypes eTargetMinor = (PlayerTypes) m_iData1;

	mov	edx, DWORD PTR _this$[ebp]
	mov	eax, DWORD PTR [edx+16]
	mov	DWORD PTR _eTargetMinor$221130[ebp], eax

; 521  : 		CvPlayer* pTargetMinor = &GET_PLAYER(eTargetMinor);

	mov	ecx, DWORD PTR _eTargetMinor$221130[ebp]
	imul	ecx, 63236				; 0000f704H
	add	ecx, DWORD PTR ?m_aPlayers@CvPlayerAI@@1PAV1@A ; CvPlayerAI::m_aPlayers
	mov	DWORD PTR _pTargetMinor$221132[ebp], ecx

; 522  : 		if(pTargetMinor)

	je	SHORT $LN13@IsComplete

; 523  : 		{
; 524  : 			int iMostRecentBullyTurn = pTargetMinor->GetMinorCivAI()->GetTurnLastBulliedByMajor(m_eAssignedPlayer);

	mov	edx, DWORD PTR _this$[ebp]
	mov	eax, DWORD PTR [edx+4]
	push	eax
	mov	ecx, DWORD PTR _pTargetMinor$221132[ebp]
	call	?GetMinorCivAI@CvPlayer@@QBEPAVCvMinorCivAI@@XZ ; CvPlayer::GetMinorCivAI
	mov	ecx, eax
	call	?GetTurnLastBulliedByMajor@CvMinorCivAI@@QBEHW4PlayerTypes@@@Z ; CvMinorCivAI::GetTurnLastBulliedByMajor
	mov	DWORD PTR _iMostRecentBullyTurn$221134[ebp], eax

; 525  : 			if(iMostRecentBullyTurn > m_iData2)

	mov	ecx, DWORD PTR _this$[ebp]
	mov	edx, DWORD PTR _iMostRecentBullyTurn$221134[ebp]
	cmp	edx, DWORD PTR [ecx+20]
	jle	SHORT $LN13@IsComplete

; 526  : 				return true;

	mov	al, 1
	jmp	$LN69@IsComplete
$LN13@IsComplete:

; 527  : 		}
; 528  : 	}

	jmp	$LN64@IsComplete
$LN14@IsComplete:

; 529  : 	else if(m_eType == MINOR_CIV_QUEST_DENOUNCE_MAJOR)

	mov	eax, DWORD PTR _this$[ebp]
	cmp	DWORD PTR [eax+8], 15			; 0000000fH
	jne	SHORT $LN10@IsComplete

; 530  : 	{
; 531  : 		// Has the player denounced that major yet?
; 532  : 		PlayerTypes eTargetMajor = (PlayerTypes) m_iData1;

	mov	ecx, DWORD PTR _this$[ebp]
	mov	edx, DWORD PTR [ecx+16]
	mov	DWORD PTR _eTargetMajor$221138[ebp], edx

; 533  : 		CvPlayer* pTargetMajor = &GET_PLAYER(eTargetMajor);

	mov	eax, DWORD PTR _eTargetMajor$221138[ebp]
	imul	eax, 63236				; 0000f704H
	add	eax, DWORD PTR ?m_aPlayers@CvPlayerAI@@1PAV1@A ; CvPlayerAI::m_aPlayers
	mov	DWORD PTR _pTargetMajor$221140[ebp], eax

; 534  : 		if(pTargetMajor)

	je	SHORT $LN9@IsComplete

; 535  : 		{
; 536  : 			if(pAssignedPlayer->GetDiplomacyAI()->IsDenouncedPlayer(eTargetMajor))

	mov	ecx, DWORD PTR _eTargetMajor$221138[ebp]
	push	ecx
	mov	ecx, DWORD PTR _pAssignedPlayer$[ebp]
	call	?GetDiplomacyAI@CvPlayer@@QBEPAVCvDiplomacyAI@@XZ ; CvPlayer::GetDiplomacyAI
	mov	ecx, eax
	call	?IsDenouncedPlayer@CvDiplomacyAI@@QBE_NW4PlayerTypes@@@Z ; CvDiplomacyAI::IsDenouncedPlayer
	movzx	edx, al
	test	edx, edx
	je	SHORT $LN9@IsComplete

; 537  : 				return true;

	mov	al, 1
	jmp	$LN69@IsComplete
$LN9@IsComplete:

; 538  : 		}
; 539  : 	}

	jmp	$LN64@IsComplete
$LN10@IsComplete:

; 540  : 	else if(m_eType == MINOR_CIV_QUEST_SPREAD_RELIGION)

	mov	eax, DWORD PTR _this$[ebp]
	cmp	DWORD PTR [eax+8], 16			; 00000010H
	jne	SHORT $LN6@IsComplete

; 541  : 	{
; 542  : 		// Does the CS have the right majority religion?
; 543  : 		ReligionTypes eReligion = (ReligionTypes) m_iData1;

	mov	ecx, DWORD PTR _this$[ebp]
	mov	edx, DWORD PTR [ecx+16]
	mov	DWORD PTR _eReligion$221145[ebp], edx

; 544  : 		if(pMinor->getCapitalCity())

	mov	ecx, DWORD PTR _pMinor$[ebp]
	call	?getCapitalCity@CvPlayer@@QAEPAVCvCity@@XZ ; CvPlayer::getCapitalCity
	test	eax, eax
	je	SHORT $LN5@IsComplete

; 545  : 		{
; 546  : 			if(pMinor->getCapitalCity()->GetCityReligions()->GetReligiousMajority() == eReligion)

	mov	ecx, DWORD PTR _pMinor$[ebp]
	call	?getCapitalCity@CvPlayer@@QAEPAVCvCity@@XZ ; CvPlayer::getCapitalCity
	mov	ecx, eax
	call	?GetCityReligions@CvCity@@QBEPAVCvCityReligions@@XZ ; CvCity::GetCityReligions
	mov	ecx, eax
	call	?GetReligiousMajority@CvCityReligions@@QAE?AW4ReligionTypes@@XZ ; CvCityReligions::GetReligiousMajority
	cmp	eax, DWORD PTR _eReligion$221145[ebp]
	jne	SHORT $LN5@IsComplete

; 547  : 				return true;

	mov	al, 1
	jmp	SHORT $LN69@IsComplete
$LN5@IsComplete:

; 548  : 		}
; 549  : 	}

	jmp	SHORT $LN64@IsComplete
$LN6@IsComplete:

; 550  : 	else if(m_eType == MINOR_CIV_QUEST_TRADE_ROUTE)

	mov	eax, DWORD PTR _this$[ebp]
	cmp	DWORD PTR [eax+8], 17			; 00000011H
	jne	SHORT $LN64@IsComplete

; 551  : 	{
; 552  : 		if(GC.getGame().GetGameTrade()->IsPlayerConnectedToPlayer(m_eMinor,m_eAssignedPlayer))

	mov	ecx, DWORD PTR ?gGlobals@@3VCvGlobals@@A+48
	mov	DWORD PTR $T235460[ebp], ecx
	mov	edx, DWORD PTR _this$[ebp]
	mov	eax, DWORD PTR [edx+4]
	push	eax
	mov	ecx, DWORD PTR _this$[ebp]
	mov	edx, DWORD PTR [ecx]
	push	edx
	mov	ecx, DWORD PTR $T235460[ebp]
	call	?GetGameTrade@CvGame@@QAEPAVCvGameTrade@@XZ ; CvGame::GetGameTrade
	mov	ecx, eax
	call	?IsPlayerConnectedToPlayer@CvGameTrade@@QAE_NW4PlayerTypes@@0@Z ; CvGameTrade::IsPlayerConnectedToPlayer
	movzx	eax, al
	test	eax, eax
	je	SHORT $LN64@IsComplete

; 553  : 			return true;

	mov	al, 1
	jmp	SHORT $LN69@IsComplete
$LN64@IsComplete:

; 554  : 	}
; 555  : 
; 556  : 	return false;

	xor	al, al
$LN69@IsComplete:

; 557  : }

	pop	esi
	mov	esp, ebp
	pop	ebp
	ret	0
?IsComplete@CvMinorCivQuest@@QAE_NXZ ENDP		; CvMinorCivQuest::IsComplete
_TEXT	ENDS
PUBLIC	?IsRecentlyBulliedByMajor@CvMinorCivAI@@QBE_NW4PlayerTypes@@@Z ; CvMinorCivAI::IsRecentlyBulliedByMajor
PUBLIC	?IsRevoked@CvMinorCivQuest@@QAE_NXZ		; CvMinorCivQuest::IsRevoked
; Function compile flags: /Odtp
;	COMDAT ?IsRevoked@CvMinorCivQuest@@QAE_NXZ
_TEXT	SEGMENT
_this$ = -8						; size = 4
$T235466 = -4						; size = 4
?IsRevoked@CvMinorCivQuest@@QAE_NXZ PROC		; CvMinorCivQuest::IsRevoked, COMDAT
; _this$ = ecx

; 561  : {

	push	ebp
	mov	ebp, esp
	sub	esp, 8
	mov	DWORD PTR _this$[ebp], ecx

; 562  : 	if(GET_PLAYER(m_eMinor).GetMinorCivAI()->IsRecentlyBulliedByMajor(m_eAssignedPlayer))

	mov	eax, DWORD PTR _this$[ebp]
	mov	ecx, DWORD PTR [eax]
	imul	ecx, 63236				; 0000f704H
	add	ecx, DWORD PTR ?m_aPlayers@CvPlayerAI@@1PAV1@A ; CvPlayerAI::m_aPlayers
	mov	DWORD PTR $T235466[ebp], ecx
	mov	edx, DWORD PTR _this$[ebp]
	mov	eax, DWORD PTR [edx+4]
	push	eax
	mov	ecx, DWORD PTR $T235466[ebp]
	call	?GetMinorCivAI@CvPlayer@@QBEPAVCvMinorCivAI@@XZ ; CvPlayer::GetMinorCivAI
	mov	ecx, eax
	call	?IsRecentlyBulliedByMajor@CvMinorCivAI@@QBE_NW4PlayerTypes@@@Z ; CvMinorCivAI::IsRecentlyBulliedByMajor
	movzx	ecx, al
	test	ecx, ecx
	je	$LN14@IsRevoked

; 563  : 	{
; 564  : 		if(m_eType == MINOR_CIV_QUEST_ROUTE)

	mov	edx, DWORD PTR _this$[ebp]
	cmp	DWORD PTR [edx+8], 0
	jne	SHORT $LN13@IsRevoked

; 565  : 			return true;

	mov	al, 1
	jmp	$LN15@IsRevoked
$LN13@IsRevoked:

; 566  : 		if(m_eType == MINOR_CIV_QUEST_CONNECT_RESOURCE)

	mov	eax, DWORD PTR _this$[ebp]
	cmp	DWORD PTR [eax+8], 2
	jne	SHORT $LN12@IsRevoked

; 567  : 			return true;

	mov	al, 1
	jmp	$LN15@IsRevoked
$LN12@IsRevoked:

; 568  : 		if(m_eType == MINOR_CIV_QUEST_CONSTRUCT_WONDER)

	mov	ecx, DWORD PTR _this$[ebp]
	cmp	DWORD PTR [ecx+8], 3
	jne	SHORT $LN11@IsRevoked

; 569  : 			return true;

	mov	al, 1
	jmp	$LN15@IsRevoked
$LN11@IsRevoked:

; 570  : 		if(m_eType == MINOR_CIV_QUEST_GREAT_PERSON)

	mov	edx, DWORD PTR _this$[ebp]
	cmp	DWORD PTR [edx+8], 4
	jne	SHORT $LN10@IsRevoked

; 571  : 			return true;

	mov	al, 1
	jmp	SHORT $LN15@IsRevoked
$LN10@IsRevoked:

; 572  : 		if(m_eType == MINOR_CIV_QUEST_FIND_PLAYER)

	mov	eax, DWORD PTR _this$[ebp]
	cmp	DWORD PTR [eax+8], 6
	jne	SHORT $LN9@IsRevoked

; 573  : 			return true;

	mov	al, 1
	jmp	SHORT $LN15@IsRevoked
$LN9@IsRevoked:

; 574  : 		if(m_eType == MINOR_CIV_QUEST_FIND_NATURAL_WONDER)

	mov	ecx, DWORD PTR _this$[ebp]
	cmp	DWORD PTR [ecx+8], 7
	jne	SHORT $LN8@IsRevoked

; 575  : 			return true;

	mov	al, 1
	jmp	SHORT $LN15@IsRevoked
$LN8@IsRevoked:

; 576  : 		if(m_eType == MINOR_CIV_QUEST_GIVE_GOLD)

	mov	edx, DWORD PTR _this$[ebp]
	cmp	DWORD PTR [edx+8], 8
	jne	SHORT $LN7@IsRevoked

; 577  : 			return true;

	mov	al, 1
	jmp	SHORT $LN15@IsRevoked
$LN7@IsRevoked:

; 578  : 		if(m_eType == MINOR_CIV_QUEST_PLEDGE_TO_PROTECT)

	mov	eax, DWORD PTR _this$[ebp]
	cmp	DWORD PTR [eax+8], 9
	jne	SHORT $LN6@IsRevoked

; 579  : 			return true;

	mov	al, 1
	jmp	SHORT $LN15@IsRevoked
$LN6@IsRevoked:

; 580  : 		if(m_eType == MINOR_CIV_QUEST_INVEST)

	mov	ecx, DWORD PTR _this$[ebp]
	cmp	DWORD PTR [ecx+8], 13			; 0000000dH
	jne	SHORT $LN5@IsRevoked

; 581  : 			return true;

	mov	al, 1
	jmp	SHORT $LN15@IsRevoked
$LN5@IsRevoked:

; 582  : 		if(m_eType == MINOR_CIV_QUEST_BULLY_CITY_STATE)

	mov	edx, DWORD PTR _this$[ebp]
	cmp	DWORD PTR [edx+8], 14			; 0000000eH
	jne	SHORT $LN4@IsRevoked

; 583  : 			return true;

	mov	al, 1
	jmp	SHORT $LN15@IsRevoked
$LN4@IsRevoked:

; 584  : 		if(m_eType == MINOR_CIV_QUEST_DENOUNCE_MAJOR)

	mov	eax, DWORD PTR _this$[ebp]
	cmp	DWORD PTR [eax+8], 15			; 0000000fH
	jne	SHORT $LN3@IsRevoked

; 585  : 			return true;

	mov	al, 1
	jmp	SHORT $LN15@IsRevoked
$LN3@IsRevoked:

; 586  : 		if(m_eType == MINOR_CIV_QUEST_SPREAD_RELIGION)

	mov	ecx, DWORD PTR _this$[ebp]
	cmp	DWORD PTR [ecx+8], 16			; 00000010H
	jne	SHORT $LN2@IsRevoked

; 587  : 			return true;

	mov	al, 1
	jmp	SHORT $LN15@IsRevoked
$LN2@IsRevoked:

; 588  : 		if(m_eType == MINOR_CIV_QUEST_TRADE_ROUTE)

	mov	edx, DWORD PTR _this$[ebp]
	cmp	DWORD PTR [edx+8], 17			; 00000011H
	jne	SHORT $LN14@IsRevoked

; 589  : 			return true;

	mov	al, 1
	jmp	SHORT $LN15@IsRevoked
$LN14@IsRevoked:

; 590  : 	}
; 591  : 
; 592  : 	return false;

	xor	al, al
$LN15@IsRevoked:

; 593  : }

	mov	esp, ebp
	pop	ebp
	ret	0
?IsRevoked@CvMinorCivQuest@@QAE_NXZ ENDP		; CvMinorCivQuest::IsRevoked
_TEXT	ENDS
PUBLIC	?coordRange@@YAHHH_N@Z				; coordRange
PUBLIC	?IsExpired@CvMinorCivQuest@@QAE_NXZ		; CvMinorCivQuest::IsExpired
EXTRN	?getBuildingInfo@CvGlobals@@QAEPAVCvBuildingEntry@@W4BuildingTypes@@@Z:PROC ; CvGlobals::getBuildingInfo
EXTRN	?HasBarbarianCamp@CvPlot@@QAE_NXZ:PROC		; CvPlot::HasBarbarianCamp
; Function compile flags: /Odtp
;	COMDAT ?IsExpired@CvMinorCivQuest@@QAE_NXZ
_TEXT	SEGMENT
tv323 = -152						; size = 4
_this$ = -148						; size = 4
$T235629 = -142						; size = 1
$T235617 = -141						; size = 1
$T235605 = -140						; size = 4
$T235601 = -136						; size = 4
$T235597 = -132						; size = 4
$T235593 = -125						; size = 1
$T235584 = -124						; size = 4
$T235577 = -120						; size = 4
$T235568 = -116						; size = 4
$T235564 = -109						; size = 1
$T235552 = -108						; size = 4
$T235507 = -104						; size = 4
$T235502 = -100						; size = 4
$T235498 = -93						; size = 1
$T235487 = -92						; size = 4
$T235483 = -85						; size = 1
_iMapY$235516 = -84					; size = 4
_iMapX$235515 = -80					; size = 4
$T235476 = -76						; size = 4
$T235472 = -72						; size = 4
_eTargetPlayer$221241 = -68				; size = 4
_pTargetPlayer$221243 = -64				; size = 4
_eTargetCityState$221234 = -60				; size = 4
_pTargetCityState$221236 = -56				; size = 4
_eTargetPlayer$221210 = -52				; size = 4
_pTargetPlayer$221212 = -48				; size = 4
_pTargetCityStateTeam$221205 = -44			; size = 4
_eTargetCityState$221201 = -40				; size = 4
_pTargetCityState$221203 = -36				; size = 4
_pLoopPlayer$221194 = -32				; size = 4
_eLoopPlayer$221192 = -28				; size = 4
_iPlayerLoop$221188 = -24				; size = 4
_eWonder$221184 = -20					; size = 4
_pkBuildingInfo$221186 = -16				; size = 4
_pPlot$221177 = -12					; size = 4
_iX$221175 = -8						; size = 4
_iY$221176 = -4						; size = 4
?IsExpired@CvMinorCivQuest@@QAE_NXZ PROC		; CvMinorCivQuest::IsExpired, COMDAT
; _this$ = ecx

; 597  : {

	push	ebp
	mov	ebp, esp
	sub	esp, 152				; 00000098H
	push	esi
	mov	DWORD PTR _this$[ebp], ecx

; 598  : 	// If this quest type has an end turn, have we passed it?
; 599  : 	if(GetEndTurn() != NO_TURN && GC.getGame().getGameTurn() > GetEndTurn())

	mov	ecx, DWORD PTR _this$[ebp]
	call	?GetEndTurn@CvMinorCivQuest@@QBEHXZ	; CvMinorCivQuest::GetEndTurn
	cmp	eax, -1
	je	SHORT $LN54@IsExpired
	mov	eax, DWORD PTR ?gGlobals@@3VCvGlobals@@A+48
	mov	DWORD PTR $T235472[ebp], eax
	mov	ecx, DWORD PTR $T235472[ebp]
	call	?getGameTurn@CvGame@@QAEHXZ		; CvGame::getGameTurn
	mov	esi, eax
	mov	ecx, DWORD PTR _this$[ebp]
	call	?GetEndTurn@CvMinorCivQuest@@QBEHXZ	; CvMinorCivQuest::GetEndTurn
	cmp	esi, eax
	jle	SHORT $LN54@IsExpired

; 600  : 	{
; 601  : 		return true;

	mov	al, 1
	jmp	$LN56@IsExpired
$LN54@IsExpired:

; 602  : 	}
; 603  : 
; 604  : 	// Build a Route
; 605  : 	if(m_eType == MINOR_CIV_QUEST_ROUTE)
; 606  : 	{
; 607  : 	}
; 608  : 
; 609  : 	// City-state wanted us to clear a camp
; 610  : 	if(m_eType == MINOR_CIV_QUEST_KILL_CAMP)

	mov	edx, DWORD PTR _this$[ebp]
	cmp	DWORD PTR [edx+8], 1
	jne	$LN53@IsExpired

; 611  : 	{
; 612  : 		int iX = GetPrimaryData();

	mov	ecx, DWORD PTR _this$[ebp]
	call	?GetPrimaryData@CvMinorCivQuest@@QBEHXZ	; CvMinorCivQuest::GetPrimaryData
	mov	DWORD PTR _iX$221175[ebp], eax

; 613  : 		int iY = GetSecondaryData();

	mov	ecx, DWORD PTR _this$[ebp]
	call	?GetSecondaryData@CvMinorCivQuest@@QBEHXZ ; CvMinorCivQuest::GetSecondaryData
	mov	DWORD PTR _iY$221176[ebp], eax

; 614  : 		CvPlot* pPlot = GC.getMap().plot(iX, iY);

	mov	eax, DWORD PTR ?gGlobals@@3VCvGlobals@@A+52
	mov	DWORD PTR $T235476[ebp], eax
	cmp	DWORD PTR _iX$221175[ebp], -2147483647	; 80000001H
	je	SHORT $LN62@IsExpired
	cmp	DWORD PTR _iY$221176[ebp], -2147483647	; 80000001H
	jne	SHORT $LN63@IsExpired
$LN62@IsExpired:
	mov	DWORD PTR _pPlot$221177[ebp], 0
	jmp	$LN64@IsExpired
$LN63@IsExpired:
	mov	ecx, DWORD PTR $T235476[ebp]
	mov	dl, BYTE PTR [ecx+4056]
	mov	BYTE PTR $T235483[ebp], dl
	mov	eax, DWORD PTR $T235476[ebp]
	mov	ecx, DWORD PTR [eax+4020]
	mov	DWORD PTR $T235487[ebp], ecx
	movzx	edx, BYTE PTR $T235483[ebp]
	test	edx, edx
	je	SHORT $LN75@IsExpired
	cmp	DWORD PTR _iX$221175[ebp], 0
	jge	SHORT $LN74@IsExpired
	mov	eax, DWORD PTR _iX$221175[ebp]
	cdq
	idiv	DWORD PTR $T235487[ebp]
	add	edx, DWORD PTR $T235487[ebp]
	mov	DWORD PTR _iMapX$235515[ebp], edx
	jmp	SHORT $LN76@IsExpired
	jmp	SHORT $LN75@IsExpired
$LN74@IsExpired:
	mov	eax, DWORD PTR _iX$221175[ebp]
	cmp	eax, DWORD PTR $T235487[ebp]
	jl	SHORT $LN75@IsExpired
	mov	eax, DWORD PTR _iX$221175[ebp]
	cdq
	idiv	DWORD PTR $T235487[ebp]
	mov	DWORD PTR _iMapX$235515[ebp], edx
	jmp	SHORT $LN76@IsExpired
$LN75@IsExpired:
	mov	ecx, DWORD PTR _iX$221175[ebp]
	mov	DWORD PTR _iMapX$235515[ebp], ecx
$LN76@IsExpired:
	mov	edx, DWORD PTR $T235476[ebp]
	mov	al, BYTE PTR [edx+4057]
	mov	BYTE PTR $T235498[ebp], al
	mov	ecx, DWORD PTR $T235476[ebp]
	mov	edx, DWORD PTR [ecx+4024]
	mov	DWORD PTR $T235502[ebp], edx
	movzx	eax, BYTE PTR $T235498[ebp]
	push	eax
	mov	ecx, DWORD PTR $T235502[ebp]
	push	ecx
	mov	edx, DWORD PTR _iY$221176[ebp]
	push	edx
	call	?coordRange@@YAHHH_N@Z			; coordRange
	add	esp, 12					; 0000000cH
	mov	DWORD PTR _iMapY$235516[ebp], eax
	mov	eax, DWORD PTR _iMapY$235516[ebp]
	push	eax
	mov	ecx, DWORD PTR _iMapX$235515[ebp]
	push	ecx
	mov	ecx, DWORD PTR $T235476[ebp]
	call	?isPlot@CvMap@@QBEHHH@Z			; CvMap::isPlot
	test	eax, eax
	je	SHORT $LN66@IsExpired
	mov	edx, DWORD PTR $T235476[ebp]
	mov	eax, DWORD PTR [edx+4020]
	mov	DWORD PTR $T235507[ebp], eax
	mov	ecx, DWORD PTR _iMapY$235516[ebp]
	imul	ecx, DWORD PTR $T235507[ebp]
	add	ecx, DWORD PTR _iMapX$235515[ebp]
	imul	ecx, 484				; 000001e4H
	mov	edx, DWORD PTR $T235476[ebp]
	add	ecx, DWORD PTR [edx+4068]
	mov	DWORD PTR tv323[ebp], ecx
	jmp	SHORT $LN67@IsExpired
$LN66@IsExpired:
	mov	DWORD PTR tv323[ebp], 0
$LN67@IsExpired:
	mov	eax, DWORD PTR tv323[ebp]
	mov	DWORD PTR _pPlot$221177[ebp], eax
$LN64@IsExpired:

; 615  : 
; 616  : 		if(pPlot)

	cmp	DWORD PTR _pPlot$221177[ebp], 0
	je	SHORT $LN53@IsExpired

; 617  : 		{
; 618  : 			// Camp that was here is gone
; 619  : 			if(!pPlot->HasBarbarianCamp())

	mov	ecx, DWORD PTR _pPlot$221177[ebp]
	call	?HasBarbarianCamp@CvPlot@@QAE_NXZ	; CvPlot::HasBarbarianCamp
	movzx	ecx, al
	test	ecx, ecx
	jne	SHORT $LN53@IsExpired

; 620  : 			{
; 621  : 				// Someone cleared it, and it wasn't us
; 622  : 				if(pPlot->GetPlayerThatClearedBarbCampHere() != NO_PLAYER && pPlot->GetPlayerThatClearedBarbCampHere() != m_eAssignedPlayer)

	mov	ecx, DWORD PTR _pPlot$221177[ebp]
	call	?GetPlayerThatClearedBarbCampHere@CvPlot@@QBE?AW4PlayerTypes@@XZ ; CvPlot::GetPlayerThatClearedBarbCampHere
	cmp	eax, -1
	je	SHORT $LN53@IsExpired
	mov	ecx, DWORD PTR _pPlot$221177[ebp]
	call	?GetPlayerThatClearedBarbCampHere@CvPlot@@QBE?AW4PlayerTypes@@XZ ; CvPlot::GetPlayerThatClearedBarbCampHere
	mov	edx, DWORD PTR _this$[ebp]
	cmp	eax, DWORD PTR [edx+4]
	je	SHORT $LN53@IsExpired

; 623  : 				{
; 624  : 					return true;

	mov	al, 1
	jmp	$LN56@IsExpired
$LN53@IsExpired:

; 625  : 				}
; 626  : 			}
; 627  : 		}
; 628  : 	}
; 629  : 
; 630  : 	// Connect a resource
; 631  : 	if(m_eType == MINOR_CIV_QUEST_CONNECT_RESOURCE)

	mov	eax, DWORD PTR _this$[ebp]
	cmp	DWORD PTR [eax+8], 2
	jne	SHORT $LN49@IsExpired
	jmp	$LN48@IsExpired
$LN49@IsExpired:

; 632  : 	{
; 633  : 	}
; 634  : 
; 635  : 	// CONSTRUCT A WONDER
; 636  : 	else if(m_eType == MINOR_CIV_QUEST_CONSTRUCT_WONDER)

	mov	ecx, DWORD PTR _this$[ebp]
	cmp	DWORD PTR [ecx+8], 3
	jne	$LN47@IsExpired

; 637  : 	{
; 638  : 		BuildingTypes eWonder = (BuildingTypes) GetPrimaryData();

	mov	ecx, DWORD PTR _this$[ebp]
	call	?GetPrimaryData@CvMinorCivQuest@@QBEHXZ	; CvMinorCivQuest::GetPrimaryData
	mov	DWORD PTR _eWonder$221184[ebp], eax

; 639  : 		CvBuildingEntry* pkBuildingInfo = GC.getBuildingInfo(eWonder);

	mov	edx, DWORD PTR _eWonder$221184[ebp]
	push	edx
	mov	ecx, OFFSET ?gGlobals@@3VCvGlobals@@A	; gGlobals
	call	?getBuildingInfo@CvGlobals@@QAEPAVCvBuildingEntry@@W4BuildingTypes@@@Z ; CvGlobals::getBuildingInfo
	mov	DWORD PTR _pkBuildingInfo$221186[ebp], eax

; 640  : 		CvAssertMsg(pkBuildingInfo, "Building info not expected to be FALSE! Please send Anton your save file and version.");
; 641  : 		if(!pkBuildingInfo) return false;

	cmp	DWORD PTR _pkBuildingInfo$221186[ebp], 0
	jne	SHORT $LN46@IsExpired
	xor	al, al
	jmp	$LN56@IsExpired
$LN46@IsExpired:

; 642  : 
; 643  : 		for(int iPlayerLoop = 0; iPlayerLoop < MAX_CIV_PLAYERS; iPlayerLoop++)

	mov	DWORD PTR _iPlayerLoop$221188[ebp], 0
	jmp	SHORT $LN45@IsExpired
$LN44@IsExpired:
	mov	eax, DWORD PTR _iPlayerLoop$221188[ebp]
	add	eax, 1
	mov	DWORD PTR _iPlayerLoop$221188[ebp], eax
$LN45@IsExpired:
	cmp	DWORD PTR _iPlayerLoop$221188[ebp], 63	; 0000003fH
	jge	SHORT $LN43@IsExpired

; 644  : 		{
; 645  : 			const PlayerTypes eLoopPlayer = (PlayerTypes) iPlayerLoop;

	mov	ecx, DWORD PTR _iPlayerLoop$221188[ebp]
	mov	DWORD PTR _eLoopPlayer$221192[ebp], ecx

; 646  : 			CvPlayer* pLoopPlayer = &GET_PLAYER(eLoopPlayer);

	mov	edx, DWORD PTR _eLoopPlayer$221192[ebp]
	imul	edx, 63236				; 0000f704H
	add	edx, DWORD PTR ?m_aPlayers@CvPlayerAI@@1PAV1@A ; CvPlayerAI::m_aPlayers
	mov	DWORD PTR _pLoopPlayer$221194[ebp], edx

; 647  : 
; 648  : 			if(pLoopPlayer)

	je	SHORT $LN42@IsExpired

; 649  : 			{
; 650  : 				// Someone built the wonder, and it wasn't us
; 651  : 				if(m_eAssignedPlayer != eLoopPlayer && pLoopPlayer->countNumBuildings(eWonder) > 0)

	mov	eax, DWORD PTR _this$[ebp]
	mov	ecx, DWORD PTR [eax+4]
	cmp	ecx, DWORD PTR _eLoopPlayer$221192[ebp]
	je	SHORT $LN42@IsExpired
	mov	edx, DWORD PTR _eWonder$221184[ebp]
	push	edx
	mov	ecx, DWORD PTR _pLoopPlayer$221194[ebp]
	call	?countNumBuildings@CvPlayer@@QBEHW4BuildingTypes@@@Z ; CvPlayer::countNumBuildings
	test	eax, eax
	jle	SHORT $LN42@IsExpired

; 652  : 				{
; 653  : 					return true;

	mov	al, 1
	jmp	$LN56@IsExpired
$LN42@IsExpired:

; 654  : 				}
; 655  : 			}
; 656  : 		}

	jmp	SHORT $LN44@IsExpired
$LN43@IsExpired:

; 657  : 	}
; 658  : 
; 659  : 	// Spawn a Great Person
; 660  : 	else if(m_eType == MINOR_CIV_QUEST_GREAT_PERSON)

	jmp	$LN48@IsExpired
$LN47@IsExpired:
	mov	eax, DWORD PTR _this$[ebp]
	cmp	DWORD PTR [eax+8], 4
	jne	SHORT $LN39@IsExpired
	jmp	$LN48@IsExpired
$LN39@IsExpired:

; 661  : 	{
; 662  : 	}
; 663  : 
; 664  : 	// KILL ANOTHER CITY STATE
; 665  : 	else if(m_eType == MINOR_CIV_QUEST_KILL_CITY_STATE)

	mov	ecx, DWORD PTR _this$[ebp]
	cmp	DWORD PTR [ecx+8], 5
	jne	$LN37@IsExpired

; 666  : 	{
; 667  : 		PlayerTypes eTargetCityState = (PlayerTypes) GetPrimaryData();

	mov	ecx, DWORD PTR _this$[ebp]
	call	?GetPrimaryData@CvMinorCivQuest@@QBEHXZ	; CvMinorCivQuest::GetPrimaryData
	mov	DWORD PTR _eTargetCityState$221201[ebp], eax

; 668  : 		CvPlayer* pTargetCityState = &GET_PLAYER(eTargetCityState);

	mov	edx, DWORD PTR _eTargetCityState$221201[ebp]
	imul	edx, 63236				; 0000f704H
	add	edx, DWORD PTR ?m_aPlayers@CvPlayerAI@@1PAV1@A ; CvPlayerAI::m_aPlayers
	mov	DWORD PTR _pTargetCityState$221203[ebp], edx

; 669  : 
; 670  : 		if(pTargetCityState)

	je	SHORT $LN36@IsExpired

; 671  : 		{
; 672  : 			CvTeam* pTargetCityStateTeam = &GET_TEAM(pTargetCityState->getTeam());

	mov	eax, DWORD PTR _pTargetCityState$221203[ebp]
	mov	ecx, DWORD PTR [eax+44]
	push	ecx
	call	?teamType@CvPreGame@@YA?AW4TeamTypes@@W4PlayerTypes@@@Z ; CvPreGame::teamType
	add	esp, 4
	mov	DWORD PTR $T235552[ebp], eax
	mov	edx, DWORD PTR $T235552[ebp]
	imul	edx, 2984				; 00000ba8H
	add	edx, DWORD PTR ?m_aTeams@CvTeam@@1PAV1@A ; CvTeam::m_aTeams
	mov	DWORD PTR _pTargetCityStateTeam$221205[ebp], edx

; 673  : 			if(pTargetCityStateTeam)

	je	SHORT $LN36@IsExpired

; 674  : 			{
; 675  : 				// Someone killed the City State, and it wasn't us
; 676  : 				if(!pTargetCityState->isAlive() && pTargetCityStateTeam->GetKilledByTeam() != GET_PLAYER(m_eAssignedPlayer).getTeam())

	mov	eax, DWORD PTR _pTargetCityState$221203[ebp]
	mov	cl, BYTE PTR [eax+2256]
	mov	BYTE PTR $T235564[ebp], cl
	movzx	edx, BYTE PTR $T235564[ebp]
	test	edx, edx
	jne	SHORT $LN36@IsExpired
	mov	eax, DWORD PTR _this$[ebp]
	mov	ecx, DWORD PTR [eax+4]
	imul	ecx, 63236				; 0000f704H
	add	ecx, DWORD PTR ?m_aPlayers@CvPlayerAI@@1PAV1@A ; CvPlayerAI::m_aPlayers
	mov	DWORD PTR $T235568[ebp], ecx
	mov	edx, DWORD PTR $T235568[ebp]
	mov	eax, DWORD PTR [edx+44]
	push	eax
	call	?teamType@CvPreGame@@YA?AW4TeamTypes@@W4PlayerTypes@@@Z ; CvPreGame::teamType
	add	esp, 4
	mov	DWORD PTR $T235577[ebp], eax
	mov	ecx, DWORD PTR _pTargetCityStateTeam$221205[ebp]
	call	?GetKilledByTeam@CvTeam@@QBE?AW4TeamTypes@@XZ ; CvTeam::GetKilledByTeam
	cmp	eax, DWORD PTR $T235577[ebp]
	je	SHORT $LN36@IsExpired

; 677  : 				{
; 678  : 					return true;

	mov	al, 1
	jmp	$LN56@IsExpired
$LN36@IsExpired:

; 679  : 				}
; 680  : 			}
; 681  : 		}
; 682  : 	}

	jmp	$LN48@IsExpired
$LN37@IsExpired:

; 683  : 
; 684  : 	// Find a Player
; 685  : 	else if(m_eType == MINOR_CIV_QUEST_FIND_PLAYER)

	mov	ecx, DWORD PTR _this$[ebp]
	cmp	DWORD PTR [ecx+8], 6
	jne	SHORT $LN32@IsExpired

; 686  : 	{
; 687  : 		PlayerTypes eTargetPlayer = (PlayerTypes) GetPrimaryData();

	mov	ecx, DWORD PTR _this$[ebp]
	call	?GetPrimaryData@CvMinorCivQuest@@QBEHXZ	; CvMinorCivQuest::GetPrimaryData
	mov	DWORD PTR _eTargetPlayer$221210[ebp], eax

; 688  : 		CvPlayer* pTargetPlayer = &GET_PLAYER(eTargetPlayer);

	mov	edx, DWORD PTR _eTargetPlayer$221210[ebp]
	imul	edx, 63236				; 0000f704H
	add	edx, DWORD PTR ?m_aPlayers@CvPlayerAI@@1PAV1@A ; CvPlayerAI::m_aPlayers
	mov	DWORD PTR _pTargetPlayer$221212[ebp], edx

; 689  : 
; 690  : 		if(pTargetPlayer)

	je	SHORT $LN31@IsExpired

; 691  : 		{
; 692  : 			// Someone killed the Player
; 693  : 			if(!GET_PLAYER(eTargetPlayer).isAlive())

	mov	eax, DWORD PTR _eTargetPlayer$221210[ebp]
	imul	eax, 63236				; 0000f704H
	add	eax, DWORD PTR ?m_aPlayers@CvPlayerAI@@1PAV1@A ; CvPlayerAI::m_aPlayers
	mov	DWORD PTR $T235584[ebp], eax
	mov	ecx, DWORD PTR $T235584[ebp]
	mov	dl, BYTE PTR [ecx+2256]
	mov	BYTE PTR $T235593[ebp], dl
	movzx	eax, BYTE PTR $T235593[ebp]
	test	eax, eax
	jne	SHORT $LN31@IsExpired

; 694  : 				return true;

	mov	al, 1
	jmp	$LN56@IsExpired
$LN31@IsExpired:

; 695  : 		}
; 696  : 	}

	jmp	$LN48@IsExpired
$LN32@IsExpired:

; 697  : 
; 698  : 	// Find a Natural Wonder
; 699  : 	else if(m_eType == MINOR_CIV_QUEST_FIND_NATURAL_WONDER)

	mov	ecx, DWORD PTR _this$[ebp]
	cmp	DWORD PTR [ecx+8], 7
	jne	SHORT $LN28@IsExpired
	jmp	$LN48@IsExpired
$LN28@IsExpired:

; 700  : 	{
; 701  : 	}
; 702  : 
; 703  : 	// Give Gold
; 704  : 	else if(m_eType == MINOR_CIV_QUEST_GIVE_GOLD)

	mov	edx, DWORD PTR _this$[ebp]
	cmp	DWORD PTR [edx+8], 8
	jne	SHORT $LN26@IsExpired
	jmp	$LN48@IsExpired
$LN26@IsExpired:

; 705  : 	{
; 706  : 	}
; 707  : 
; 708  : 	// Pledge to Protect
; 709  : 	else if(m_eType == MINOR_CIV_QUEST_PLEDGE_TO_PROTECT)

	mov	eax, DWORD PTR _this$[ebp]
	cmp	DWORD PTR [eax+8], 9
	jne	SHORT $LN24@IsExpired
	jmp	$LN48@IsExpired
$LN24@IsExpired:

; 710  : 	{
; 711  : 	}
; 712  : 
; 713  : 	// Contest Culture
; 714  : 	else if(m_eType == MINOR_CIV_QUEST_CONTEST_CULTURE)

	mov	ecx, DWORD PTR _this$[ebp]
	cmp	DWORD PTR [ecx+8], 10			; 0000000aH
	jne	SHORT $LN22@IsExpired

; 715  : 	{
; 716  : 		if(GC.getGame().getGameTurn() == GetEndTurn() && !IsComplete())

	mov	edx, DWORD PTR ?gGlobals@@3VCvGlobals@@A+48
	mov	DWORD PTR $T235597[ebp], edx
	mov	ecx, DWORD PTR $T235597[ebp]
	call	?getGameTurn@CvGame@@QAEHXZ		; CvGame::getGameTurn
	mov	esi, eax
	mov	ecx, DWORD PTR _this$[ebp]
	call	?GetEndTurn@CvMinorCivQuest@@QBEHXZ	; CvMinorCivQuest::GetEndTurn
	cmp	esi, eax
	jne	SHORT $LN21@IsExpired
	mov	ecx, DWORD PTR _this$[ebp]
	call	?IsComplete@CvMinorCivQuest@@QAE_NXZ	; CvMinorCivQuest::IsComplete
	movzx	eax, al
	test	eax, eax
	jne	SHORT $LN21@IsExpired

; 717  : 			return true;

	mov	al, 1
	jmp	$LN56@IsExpired
$LN21@IsExpired:

; 718  : 	}

	jmp	$LN48@IsExpired
$LN22@IsExpired:

; 719  : 
; 720  : 	// Contest Faith
; 721  : 	else if(m_eType == MINOR_CIV_QUEST_CONTEST_FAITH)

	mov	ecx, DWORD PTR _this$[ebp]
	cmp	DWORD PTR [ecx+8], 11			; 0000000bH
	jne	SHORT $LN19@IsExpired

; 722  : 	{
; 723  : 		if(GC.getGame().getGameTurn() == GetEndTurn() && !IsComplete())

	mov	edx, DWORD PTR ?gGlobals@@3VCvGlobals@@A+48
	mov	DWORD PTR $T235601[ebp], edx
	mov	ecx, DWORD PTR $T235601[ebp]
	call	?getGameTurn@CvGame@@QAEHXZ		; CvGame::getGameTurn
	mov	esi, eax
	mov	ecx, DWORD PTR _this$[ebp]
	call	?GetEndTurn@CvMinorCivQuest@@QBEHXZ	; CvMinorCivQuest::GetEndTurn
	cmp	esi, eax
	jne	SHORT $LN18@IsExpired
	mov	ecx, DWORD PTR _this$[ebp]
	call	?IsComplete@CvMinorCivQuest@@QAE_NXZ	; CvMinorCivQuest::IsComplete
	movzx	eax, al
	test	eax, eax
	jne	SHORT $LN18@IsExpired

; 724  : 			return true;

	mov	al, 1
	jmp	$LN56@IsExpired
$LN18@IsExpired:

; 725  : 	}

	jmp	$LN48@IsExpired
$LN19@IsExpired:

; 726  : 
; 727  : 	// Contest Techs
; 728  : 	else if(m_eType == MINOR_CIV_QUEST_CONTEST_TECHS)

	mov	ecx, DWORD PTR _this$[ebp]
	cmp	DWORD PTR [ecx+8], 12			; 0000000cH
	jne	SHORT $LN16@IsExpired

; 729  : 	{
; 730  : 		if(GC.getGame().getGameTurn() == GetEndTurn() && !IsComplete())

	mov	edx, DWORD PTR ?gGlobals@@3VCvGlobals@@A+48
	mov	DWORD PTR $T235605[ebp], edx
	mov	ecx, DWORD PTR $T235605[ebp]
	call	?getGameTurn@CvGame@@QAEHXZ		; CvGame::getGameTurn
	mov	esi, eax
	mov	ecx, DWORD PTR _this$[ebp]
	call	?GetEndTurn@CvMinorCivQuest@@QBEHXZ	; CvMinorCivQuest::GetEndTurn
	cmp	esi, eax
	jne	SHORT $LN15@IsExpired
	mov	ecx, DWORD PTR _this$[ebp]
	call	?IsComplete@CvMinorCivQuest@@QAE_NXZ	; CvMinorCivQuest::IsComplete
	movzx	eax, al
	test	eax, eax
	jne	SHORT $LN15@IsExpired

; 731  : 			return true;

	mov	al, 1
	jmp	$LN56@IsExpired
$LN15@IsExpired:

; 732  : 	}

	jmp	$LN48@IsExpired
$LN16@IsExpired:

; 733  : 
; 734  : 	// Invest
; 735  : 	else if(m_eType == MINOR_CIV_QUEST_INVEST)

	mov	ecx, DWORD PTR _this$[ebp]
	cmp	DWORD PTR [ecx+8], 13			; 0000000dH
	jne	SHORT $LN13@IsExpired
	jmp	$LN48@IsExpired
$LN13@IsExpired:

; 736  : 	{
; 737  : 	}
; 738  : 
; 739  : 	// Bully target City-State
; 740  : 	else if(m_eType == MINOR_CIV_QUEST_BULLY_CITY_STATE)

	mov	edx, DWORD PTR _this$[ebp]
	cmp	DWORD PTR [edx+8], 14			; 0000000eH
	jne	SHORT $LN11@IsExpired

; 741  : 	{
; 742  : 		PlayerTypes eTargetCityState = (PlayerTypes) GetPrimaryData();

	mov	ecx, DWORD PTR _this$[ebp]
	call	?GetPrimaryData@CvMinorCivQuest@@QBEHXZ	; CvMinorCivQuest::GetPrimaryData
	mov	DWORD PTR _eTargetCityState$221234[ebp], eax

; 743  : 		CvPlayer* pTargetCityState = &GET_PLAYER(eTargetCityState);

	mov	eax, DWORD PTR _eTargetCityState$221234[ebp]
	imul	eax, 63236				; 0000f704H
	add	eax, DWORD PTR ?m_aPlayers@CvPlayerAI@@1PAV1@A ; CvPlayerAI::m_aPlayers
	mov	DWORD PTR _pTargetCityState$221236[ebp], eax

; 744  : 
; 745  : 		if(pTargetCityState)

	je	SHORT $LN10@IsExpired

; 746  : 		{
; 747  : 			// Someone killed the City State...ouch
; 748  : 			if(!pTargetCityState->isAlive())

	mov	ecx, DWORD PTR _pTargetCityState$221236[ebp]
	mov	dl, BYTE PTR [ecx+2256]
	mov	BYTE PTR $T235617[ebp], dl
	movzx	eax, BYTE PTR $T235617[ebp]
	test	eax, eax
	jne	SHORT $LN10@IsExpired

; 749  : 				return true;

	mov	al, 1
	jmp	SHORT $LN56@IsExpired
$LN10@IsExpired:

; 750  : 		}
; 751  : 	}

	jmp	SHORT $LN48@IsExpired
$LN11@IsExpired:

; 752  : 
; 753  : 	// Denounce target Major
; 754  : 	else if(m_eType == MINOR_CIV_QUEST_DENOUNCE_MAJOR)

	mov	ecx, DWORD PTR _this$[ebp]
	cmp	DWORD PTR [ecx+8], 15			; 0000000fH
	jne	SHORT $LN48@IsExpired

; 755  : 	{
; 756  : 		PlayerTypes eTargetPlayer = (PlayerTypes) GetPrimaryData();

	mov	ecx, DWORD PTR _this$[ebp]
	call	?GetPrimaryData@CvMinorCivQuest@@QBEHXZ	; CvMinorCivQuest::GetPrimaryData
	mov	DWORD PTR _eTargetPlayer$221241[ebp], eax

; 757  : 		CvPlayer* pTargetPlayer = &GET_PLAYER(eTargetPlayer);

	mov	edx, DWORD PTR _eTargetPlayer$221241[ebp]
	imul	edx, 63236				; 0000f704H
	add	edx, DWORD PTR ?m_aPlayers@CvPlayerAI@@1PAV1@A ; CvPlayerAI::m_aPlayers
	mov	DWORD PTR _pTargetPlayer$221243[ebp], edx

; 758  : 
; 759  : 		if(pTargetPlayer)

	je	SHORT $LN48@IsExpired

; 760  : 		{
; 761  : 			// Someone killed the Major
; 762  : 			if(!pTargetPlayer->isAlive())

	mov	eax, DWORD PTR _pTargetPlayer$221243[ebp]
	mov	cl, BYTE PTR [eax+2256]
	mov	BYTE PTR $T235629[ebp], cl
	movzx	edx, BYTE PTR $T235629[ebp]
	test	edx, edx
	jne	SHORT $LN48@IsExpired

; 763  : 				return true;

	mov	al, 1
	jmp	SHORT $LN56@IsExpired
$LN48@IsExpired:

; 764  : 		}
; 765  : 	}
; 766  : 
; 767  : 	// Spread your religion to us
; 768  : 	else if(m_eType == MINOR_CIV_QUEST_SPREAD_RELIGION)
; 769  : 	{
; 770  : 		//antonjs: consider: if holy city is lost
; 771  : 	}
; 772  : 	
; 773  : 	// Trade Route
; 774  : 	else if(m_eType == MINOR_CIV_QUEST_TRADE_ROUTE)
; 775  : 	{
; 776  : 	}
; 777  : 
; 778  : 	return false;

	xor	al, al
$LN56@IsExpired:

; 779  : }

	pop	esi
	mov	esp, ebp
	pop	ebp
	ret	0
?IsExpired@CvMinorCivQuest@@QAE_NXZ ENDP		; CvMinorCivQuest::IsExpired
_TEXT	ENDS
PUBLIC	?IsObsolete@CvMinorCivQuest@@QAE_NXZ		; CvMinorCivQuest::IsObsolete
; Function compile flags: /Odtp
;	COMDAT ?IsObsolete@CvMinorCivQuest@@QAE_NXZ
_TEXT	SEGMENT
tv72 = -8						; size = 4
_this$ = -4						; size = 4
?IsObsolete@CvMinorCivQuest@@QAE_NXZ PROC		; CvMinorCivQuest::IsObsolete, COMDAT
; _this$ = ecx

; 782  : {

	push	ebp
	mov	ebp, esp
	sub	esp, 8
	mov	DWORD PTR _this$[ebp], ecx

; 783  : 	return (IsRevoked() || IsExpired());

	mov	ecx, DWORD PTR _this$[ebp]
	call	?IsRevoked@CvMinorCivQuest@@QAE_NXZ	; CvMinorCivQuest::IsRevoked
	movzx	eax, al
	test	eax, eax
	jne	SHORT $LN3@IsObsolete
	mov	ecx, DWORD PTR _this$[ebp]
	call	?IsExpired@CvMinorCivQuest@@QAE_NXZ	; CvMinorCivQuest::IsExpired
	movzx	ecx, al
	test	ecx, ecx
	jne	SHORT $LN3@IsObsolete
	mov	DWORD PTR tv72[ebp], 0
	jmp	SHORT $LN4@IsObsolete
$LN3@IsObsolete:
	mov	DWORD PTR tv72[ebp], 1
$LN4@IsObsolete:
	mov	al, BYTE PTR tv72[ebp]

; 784  : }

	mov	esp, ebp
	pop	ebp
	ret	0
?IsObsolete@CvMinorCivQuest@@QAE_NXZ ENDP		; CvMinorCivQuest::IsObsolete
_TEXT	ENDS
PUBLIC	?IsHandled@CvMinorCivQuest@@QAE_NXZ		; CvMinorCivQuest::IsHandled
; Function compile flags: /Odtp
;	COMDAT ?IsHandled@CvMinorCivQuest@@QAE_NXZ
_TEXT	SEGMENT
_this$ = -4						; size = 4
?IsHandled@CvMinorCivQuest@@QAE_NXZ PROC		; CvMinorCivQuest::IsHandled, COMDAT
; _this$ = ecx

; 788  : {

	push	ebp
	mov	ebp, esp
	push	ecx
	mov	DWORD PTR _this$[ebp], ecx

; 789  : 	return m_bHandled;

	mov	eax, DWORD PTR _this$[ebp]
	mov	al, BYTE PTR [eax+24]

; 790  : }

	mov	esp, ebp
	pop	ebp
	ret	0
?IsHandled@CvMinorCivQuest@@QAE_NXZ ENDP		; CvMinorCivQuest::IsHandled
_TEXT	ENDS
PUBLIC	?SetHandled@CvMinorCivQuest@@QAEX_N@Z		; CvMinorCivQuest::SetHandled
; Function compile flags: /Odtp
;	COMDAT ?SetHandled@CvMinorCivQuest@@QAEX_N@Z
_TEXT	SEGMENT
_this$ = -4						; size = 4
_bValue$ = 8						; size = 1
?SetHandled@CvMinorCivQuest@@QAEX_N@Z PROC		; CvMinorCivQuest::SetHandled, COMDAT
; _this$ = ecx

; 793  : {

	push	ebp
	mov	ebp, esp
	push	ecx
	mov	DWORD PTR _this$[ebp], ecx

; 794  : 	m_bHandled = bValue;

	mov	eax, DWORD PTR _this$[ebp]
	mov	cl, BYTE PTR _bValue$[ebp]
	mov	BYTE PTR [eax+24], cl

; 795  : }

	mov	esp, ebp
	pop	ebp
	ret	4
?SetHandled@CvMinorCivQuest@@QAEX_N@Z ENDP		; CvMinorCivQuest::SetHandled
_TEXT	ENDS
PUBLIC	??1CvString@@QAE@XZ				; CvString::~CvString
PUBLIC	?AddQuestNotification@CvMinorCivAI@@QAEXVCvString@@0W4PlayerTypes@@HH_N@Z ; CvMinorCivAI::AddQuestNotification
PUBLIC	??_C@_00CNPNBAHC@?$AA@				; `string'
PUBLIC	??_C@_0DF@HPHHOMOK@TXT_KEY_NOTIFICATION_SUMMARY_QUE@ ; `string'
PUBLIC	??_C@_0CN@IBMIDFCJ@TXT_KEY_NOTIFICATION_QUEST_START@ ; `string'
PUBLIC	??_C@_0M@KDICFKJM@No?5Religion?$AA@		; `string'
PUBLIC	??$?6VCvString@@@@YAAAVString@Localization@@AAV01@ABVCvString@@@Z ; operator<<<CvString>
PUBLIC	??_C@_0DD@DMMJAENL@TXT_KEY_NOTIFICATION_SUMMARY_QUE@ ; `string'
PUBLIC	??_C@_0CL@JFCNGIIL@TXT_KEY_NOTIFICATION_QUEST_SPREA@ ; `string'
PUBLIC	??_C@_0DC@KGPCGOOH@TXT_KEY_NOTIFICATION_SUMMARY_QUE@ ; `string'
PUBLIC	??_C@_0CK@PODAGNAL@TXT_KEY_NOTIFICATION_QUEST_DENOU@ ; `string'
PUBLIC	??_C@_0DE@ODEBBMLO@TXT_KEY_NOTIFICATION_SUMMARY_QUE@ ; `string'
PUBLIC	??_C@_0CM@IIIDKJCG@TXT_KEY_NOTIFICATION_QUEST_BULLY@ ; `string'
PUBLIC	??_C@_0CK@KFPMMEMI@TXT_KEY_NOTIFICATION_SUMMARY_QUE@ ; `string'
PUBLIC	??_C@_0CC@HPMCMOPM@TXT_KEY_NOTIFICATION_QUEST_INVES@ ; `string'
PUBLIC	??_C@_0DB@MDKFBKNC@TXT_KEY_NOTIFICATION_SUMMARY_QUE@ ; `string'
PUBLIC	??_C@_0CJ@GJOKOHOP@TXT_KEY_NOTIFICATION_QUEST_CONTE@ ; `string'
PUBLIC	??_C@_0DB@KLIMGOGI@TXT_KEY_NOTIFICATION_SUMMARY_QUE@ ; `string'
PUBLIC	??_C@_0CJ@BMDJDFF@TXT_KEY_NOTIFICATION_QUEST_CONTE@ ; `string'
PUBLIC	??_C@_0DD@MMNHOPKK@TXT_KEY_NOTIFICATION_SUMMARY_QUE@ ; `string'
PUBLIC	??$?6H@@YAAAVString@Localization@@AAV01@ABH@Z	; operator<<<int>
PUBLIC	??_C@_0CL@GFDDIDPK@TXT_KEY_NOTIFICATION_QUEST_CONTE@ ; `string'
PUBLIC	??_C@_0DF@MLEJDGL@TXT_KEY_NOTIFICATION_SUMMARY_QUE@ ; `string'
PUBLIC	??_C@_0CN@PCALEKKI@TXT_KEY_NOTIFICATION_QUEST_PLEDG@ ; `string'
PUBLIC	??_C@_06LOJBPBBB@Nobody?$AA@			; `string'
PUBLIC	??_C@_0CN@IAOJKNLN@TXT_KEY_NOTIFICATION_SUMMARY_QUE@ ; `string'
PUBLIC	??_C@_0CF@JIAFBFAK@TXT_KEY_NOTIFICATION_QUEST_GIVE_@ ; `string'
PUBLIC	?GetMostRecentBullyForQuest@CvMinorCivAI@@QBE?AW4PlayerTypes@@XZ ; CvMinorCivAI::GetMostRecentBullyForQuest
PUBLIC	??_C@_0DH@JFBGAKGN@TXT_KEY_NOTIFICATION_SUMMARY_QUE@ ; `string'
PUBLIC	??_C@_0CP@IKMOBKCP@TXT_KEY_NOTIFICATION_QUEST_FIND_@ ; `string'
PUBLIC	??_C@_0CP@MBHJPNJJ@TXT_KEY_NOTIFICATION_SUMMARY_QUE@ ; `string'
PUBLIC	??_C@_0CH@KPEHOGLE@TXT_KEY_NOTIFICATION_QUEST_FIND_@ ; `string'
PUBLIC	?GetBestPlayerToFind@CvMinorCivAI@@QAE?AW4PlayerTypes@@W42@@Z ; CvMinorCivAI::GetBestPlayerToFind
PUBLIC	??_C@_0DD@OKPFDOEH@TXT_KEY_NOTIFICATION_SUMMARY_QUE@ ; `string'
PUBLIC	??_C@_0CL@EDBBFCBH@TXT_KEY_NOTIFICATION_QUEST_KILL_@ ; `string'
PUBLIC	?GetBestCityStateTarget@CvMinorCivAI@@QAE?AW4PlayerTypes@@W42@@Z ; CvMinorCivAI::GetBestCityStateTarget
PUBLIC	??_C@_0DA@PEDKNNEN@TXT_KEY_NOTIFICATION_SUMMARY_QUE@ ; `string'
PUBLIC	??_C@_0CI@LBILLPCD@TXT_KEY_NOTIFICATION_QUEST_GREAT@ ; `string'
PUBLIC	?GetBestGreatPersonForQuest@CvMinorCivAI@@QAE?AW4UnitTypes@@W4PlayerTypes@@@Z ; CvMinorCivAI::GetBestGreatPersonForQuest
PUBLIC	??_C@_0DE@OCEMCCFF@TXT_KEY_NOTIFICATION_SUMMARY_QUE@ ; `string'
PUBLIC	??_C@_0CM@IJIOJHMN@TXT_KEY_NOTIFICATION_QUEST_CONST@ ; `string'
PUBLIC	?GetBestWonderForQuest@CvMinorCivAI@@QAE?AW4BuildingTypes@@W4PlayerTypes@@@Z ; CvMinorCivAI::GetBestWonderForQuest
PUBLIC	??_C@_0DE@DIFGCIIG@TXT_KEY_NOTIFICATION_SUMMARY_QUE@ ; `string'
PUBLIC	??$?6PBD@@YAAAVString@Localization@@AAV01@ABQBD@Z ; operator<<<char const *>
PUBLIC	??_C@_0CM@FDJEJNBO@TXT_KEY_NOTIFICATION_QUEST_CONNE@ ; `string'
PUBLIC	?GetNearbyResourceForQuest@CvMinorCivAI@@QAE?AW4ResourceTypes@@W4PlayerTypes@@@Z ; CvMinorCivAI::GetNearbyResourceForQuest
PUBLIC	??_C@_0CN@NIAFEJJC@TXT_KEY_NOTIFICATION_SUMMARY_QUE@ ; `string'
PUBLIC	??_C@_0CF@MAOJPBCF@TXT_KEY_NOTIFICATION_QUEST_KILL_@ ; `string'
PUBLIC	?GetBestNearbyCampToKill@CvMinorCivAI@@QAEPAVCvPlot@@XZ ; CvMinorCivAI::GetBestNearbyCampToKill
PUBLIC	??_C@_0CP@GBAOMNJD@TXT_KEY_NOTIFICATION_SUMMARY_QUE@ ; `string'
PUBLIC	??_C@_0CH@PDANGLO@TXT_KEY_NOTIFICATION_QUEST_START@ ; `string'
PUBLIC	__$ArrayPad$
PUBLIC	?DoStartQuest@CvMinorCivQuest@@QAEXH@Z		; CvMinorCivQuest::DoStartQuest
EXTRN	__imp_??0?$basic_string@DU?$char_traits@D@std@@V?$allocator@D@2@@std@@QAE@PBD@Z:PROC
EXTRN	__imp_?toUTF8@String@Localization@@QAEPBDXZ:PROC
EXTRN	__imp_??1?$basic_string@DU?$char_traits@D@std@@V?$allocator@D@2@@std@@QAE@XZ:PROC
EXTRN	?GetName@CvReligion@@QBE?AVCvString@@XZ:PROC	; CvReligion::GetName
EXTRN	?GetReligion@CvGameReligions@@QBEPBVCvReligion@@W4ReligionTypes@@W4PlayerTypes@@@Z:PROC ; CvGameReligions::GetReligion
EXTRN	?GetReligionCreatedByPlayer@CvGameReligions@@QBE?AW4ReligionTypes@@W4PlayerTypes@@@Z:PROC ; CvGameReligions::GetReligionCreatedByPlayer
EXTRN	?GetGameReligions@CvGame@@QAEPAVCvGameReligions@@XZ:PROC ; CvGame::GetGameReligions
EXTRN	?getCivilizationShortDescriptionKey@CvPlayer@@QBEPBDXZ:PROC ; CvPlayer::getCivilizationShortDescriptionKey
EXTRN	?getNameKey@CvPlayer@@QBEPBDXZ:PROC		; CvPlayer::getNameKey
EXTRN	?getUnitInfo@CvGlobals@@QAEPAVCvUnitEntry@@W4UnitTypes@@@Z:PROC ; CvGlobals::getUnitInfo
EXTRN	__imp_?c_str@?$basic_string@DU?$char_traits@D@std@@V?$allocator@D@2@@std@@QBEPBDXZ:PROC
EXTRN	?getResourceInfo@CvGlobals@@QAEPAVCvResourceInfo@@W4ResourceTypes@@@Z:PROC ; CvGlobals::getResourceInfo
EXTRN	?setRevealedImprovementType@CvPlot@@QAE_NW4TeamTypes@@W4ImprovementTypes@@@Z:PROC ; CvPlot::setRevealedImprovementType
EXTRN	?setRevealed@CvPlot@@QAE_NW4TeamTypes@@_N10@Z:PROC ; CvPlot::setRevealed
EXTRN	__imp_??1String@Localization@@UAE@XZ:PROC
EXTRN	__imp_??4String@Localization@@QAEAAV01@ABV01@@Z:PROC
EXTRN	__imp_?Lookup@Localization@@YA?AVString@1@PBD@Z:PROC
EXTRN	__imp_??0String@Localization@@QAE@XZ:PROC
;	COMDAT ??_C@_00CNPNBAHC@?$AA@
; File d:\sources\lekmod_git\checkout\lekmod_dll\cvgamecoredllutil\include\cvstring.h
CONST	SEGMENT
??_C@_00CNPNBAHC@?$AA@ DB 00H				; `string'
CONST	ENDS
;	COMDAT ??_C@_0DF@HPHHOMOK@TXT_KEY_NOTIFICATION_SUMMARY_QUE@
CONST	SEGMENT
??_C@_0DF@HPHHOMOK@TXT_KEY_NOTIFICATION_SUMMARY_QUE@ DB 'TXT_KEY_NOTIFICA'
	DB	'TION_SUMMARY_QUEST_START_TRADE_ROUTE', 00H	; `string'
CONST	ENDS
;	COMDAT ??_C@_0CN@IBMIDFCJ@TXT_KEY_NOTIFICATION_QUEST_START@
CONST	SEGMENT
??_C@_0CN@IBMIDFCJ@TXT_KEY_NOTIFICATION_QUEST_START@ DB 'TXT_KEY_NOTIFICA'
	DB	'TION_QUEST_START_TRADE_ROUTE', 00H		; `string'
CONST	ENDS
;	COMDAT ??_C@_0M@KDICFKJM@No?5Religion?$AA@
CONST	SEGMENT
??_C@_0M@KDICFKJM@No?5Religion?$AA@ DB 'No Religion', 00H ; `string'
CONST	ENDS
;	COMDAT ??_C@_0DD@DMMJAENL@TXT_KEY_NOTIFICATION_SUMMARY_QUE@
CONST	SEGMENT
??_C@_0DD@DMMJAENL@TXT_KEY_NOTIFICATION_SUMMARY_QUE@ DB 'TXT_KEY_NOTIFICA'
	DB	'TION_SUMMARY_QUEST_SPREAD_RELIGION', 00H	; `string'
CONST	ENDS
;	COMDAT ??_C@_0CL@JFCNGIIL@TXT_KEY_NOTIFICATION_QUEST_SPREA@
CONST	SEGMENT
??_C@_0CL@JFCNGIIL@TXT_KEY_NOTIFICATION_QUEST_SPREA@ DB 'TXT_KEY_NOTIFICA'
	DB	'TION_QUEST_SPREAD_RELIGION', 00H		; `string'
CONST	ENDS
;	COMDAT ??_C@_0DC@KGPCGOOH@TXT_KEY_NOTIFICATION_SUMMARY_QUE@
CONST	SEGMENT
??_C@_0DC@KGPCGOOH@TXT_KEY_NOTIFICATION_SUMMARY_QUE@ DB 'TXT_KEY_NOTIFICA'
	DB	'TION_SUMMARY_QUEST_DENOUNCE_MAJOR', 00H	; `string'
CONST	ENDS
;	COMDAT ??_C@_0CK@PODAGNAL@TXT_KEY_NOTIFICATION_QUEST_DENOU@
CONST	SEGMENT
??_C@_0CK@PODAGNAL@TXT_KEY_NOTIFICATION_QUEST_DENOU@ DB 'TXT_KEY_NOTIFICA'
	DB	'TION_QUEST_DENOUNCE_MAJOR', 00H		; `string'
CONST	ENDS
;	COMDAT ??_C@_0DE@ODEBBMLO@TXT_KEY_NOTIFICATION_SUMMARY_QUE@
CONST	SEGMENT
??_C@_0DE@ODEBBMLO@TXT_KEY_NOTIFICATION_SUMMARY_QUE@ DB 'TXT_KEY_NOTIFICA'
	DB	'TION_SUMMARY_QUEST_BULLY_CITY_STATE', 00H	; `string'
CONST	ENDS
;	COMDAT ??_C@_0CM@IIIDKJCG@TXT_KEY_NOTIFICATION_QUEST_BULLY@
CONST	SEGMENT
??_C@_0CM@IIIDKJCG@TXT_KEY_NOTIFICATION_QUEST_BULLY@ DB 'TXT_KEY_NOTIFICA'
	DB	'TION_QUEST_BULLY_CITY_STATE', 00H		; `string'
CONST	ENDS
;	COMDAT ??_C@_0CK@KFPMMEMI@TXT_KEY_NOTIFICATION_SUMMARY_QUE@
CONST	SEGMENT
??_C@_0CK@KFPMMEMI@TXT_KEY_NOTIFICATION_SUMMARY_QUE@ DB 'TXT_KEY_NOTIFICA'
	DB	'TION_SUMMARY_QUEST_INVEST', 00H		; `string'
CONST	ENDS
;	COMDAT ??_C@_0CC@HPMCMOPM@TXT_KEY_NOTIFICATION_QUEST_INVES@
CONST	SEGMENT
??_C@_0CC@HPMCMOPM@TXT_KEY_NOTIFICATION_QUEST_INVES@ DB 'TXT_KEY_NOTIFICA'
	DB	'TION_QUEST_INVEST', 00H			; `string'
CONST	ENDS
;	COMDAT ??_C@_0DB@MDKFBKNC@TXT_KEY_NOTIFICATION_SUMMARY_QUE@
CONST	SEGMENT
??_C@_0DB@MDKFBKNC@TXT_KEY_NOTIFICATION_SUMMARY_QUE@ DB 'TXT_KEY_NOTIFICA'
	DB	'TION_SUMMARY_QUEST_CONTEST_TECHS', 00H	; `string'
CONST	ENDS
;	COMDAT ??_C@_0CJ@GJOKOHOP@TXT_KEY_NOTIFICATION_QUEST_CONTE@
CONST	SEGMENT
??_C@_0CJ@GJOKOHOP@TXT_KEY_NOTIFICATION_QUEST_CONTE@ DB 'TXT_KEY_NOTIFICA'
	DB	'TION_QUEST_CONTEST_TECHS', 00H		; `string'
CONST	ENDS
;	COMDAT ??_C@_0DB@KLIMGOGI@TXT_KEY_NOTIFICATION_SUMMARY_QUE@
CONST	SEGMENT
??_C@_0DB@KLIMGOGI@TXT_KEY_NOTIFICATION_SUMMARY_QUE@ DB 'TXT_KEY_NOTIFICA'
	DB	'TION_SUMMARY_QUEST_CONTEST_FAITH', 00H	; `string'
CONST	ENDS
;	COMDAT ??_C@_0CJ@BMDJDFF@TXT_KEY_NOTIFICATION_QUEST_CONTE@
CONST	SEGMENT
??_C@_0CJ@BMDJDFF@TXT_KEY_NOTIFICATION_QUEST_CONTE@ DB 'TXT_KEY_NOTIFICAT'
	DB	'ION_QUEST_CONTEST_FAITH', 00H		; `string'
CONST	ENDS
;	COMDAT ??_C@_0DD@MMNHOPKK@TXT_KEY_NOTIFICATION_SUMMARY_QUE@
CONST	SEGMENT
??_C@_0DD@MMNHOPKK@TXT_KEY_NOTIFICATION_SUMMARY_QUE@ DB 'TXT_KEY_NOTIFICA'
	DB	'TION_SUMMARY_QUEST_CONTEST_CULTURE', 00H	; `string'
CONST	ENDS
;	COMDAT ??_C@_0CL@GFDDIDPK@TXT_KEY_NOTIFICATION_QUEST_CONTE@
CONST	SEGMENT
??_C@_0CL@GFDDIDPK@TXT_KEY_NOTIFICATION_QUEST_CONTE@ DB 'TXT_KEY_NOTIFICA'
	DB	'TION_QUEST_CONTEST_CULTURE', 00H		; `string'
CONST	ENDS
;	COMDAT ??_C@_0DF@MLEJDGL@TXT_KEY_NOTIFICATION_SUMMARY_QUE@
CONST	SEGMENT
??_C@_0DF@MLEJDGL@TXT_KEY_NOTIFICATION_SUMMARY_QUE@ DB 'TXT_KEY_NOTIFICAT'
	DB	'ION_SUMMARY_QUEST_PLEDGE_TO_PROTECT', 00H	; `string'
CONST	ENDS
;	COMDAT ??_C@_0CN@PCALEKKI@TXT_KEY_NOTIFICATION_QUEST_PLEDG@
CONST	SEGMENT
??_C@_0CN@PCALEKKI@TXT_KEY_NOTIFICATION_QUEST_PLEDG@ DB 'TXT_KEY_NOTIFICA'
	DB	'TION_QUEST_PLEDGE_TO_PROTECT', 00H		; `string'
CONST	ENDS
;	COMDAT ??_C@_06LOJBPBBB@Nobody?$AA@
CONST	SEGMENT
??_C@_06LOJBPBBB@Nobody?$AA@ DB 'Nobody', 00H		; `string'
CONST	ENDS
;	COMDAT ??_C@_0CN@IAOJKNLN@TXT_KEY_NOTIFICATION_SUMMARY_QUE@
CONST	SEGMENT
??_C@_0CN@IAOJKNLN@TXT_KEY_NOTIFICATION_SUMMARY_QUE@ DB 'TXT_KEY_NOTIFICA'
	DB	'TION_SUMMARY_QUEST_GIVE_GOLD', 00H		; `string'
CONST	ENDS
;	COMDAT ??_C@_0CF@JIAFBFAK@TXT_KEY_NOTIFICATION_QUEST_GIVE_@
CONST	SEGMENT
??_C@_0CF@JIAFBFAK@TXT_KEY_NOTIFICATION_QUEST_GIVE_@ DB 'TXT_KEY_NOTIFICA'
	DB	'TION_QUEST_GIVE_GOLD', 00H			; `string'
CONST	ENDS
;	COMDAT ??_C@_0DH@JFBGAKGN@TXT_KEY_NOTIFICATION_SUMMARY_QUE@
CONST	SEGMENT
??_C@_0DH@JFBGAKGN@TXT_KEY_NOTIFICATION_SUMMARY_QUE@ DB 'TXT_KEY_NOTIFICA'
	DB	'TION_SUMMARY_QUEST_FIND_NATURAL_WONDER', 00H ; `string'
CONST	ENDS
;	COMDAT ??_C@_0CP@IKMOBKCP@TXT_KEY_NOTIFICATION_QUEST_FIND_@
CONST	SEGMENT
??_C@_0CP@IKMOBKCP@TXT_KEY_NOTIFICATION_QUEST_FIND_@ DB 'TXT_KEY_NOTIFICA'
	DB	'TION_QUEST_FIND_NATURAL_WONDER', 00H	; `string'
CONST	ENDS
;	COMDAT ??_C@_0CP@MBHJPNJJ@TXT_KEY_NOTIFICATION_SUMMARY_QUE@
CONST	SEGMENT
??_C@_0CP@MBHJPNJJ@TXT_KEY_NOTIFICATION_SUMMARY_QUE@ DB 'TXT_KEY_NOTIFICA'
	DB	'TION_SUMMARY_QUEST_FIND_PLAYER', 00H	; `string'
CONST	ENDS
;	COMDAT ??_C@_0CH@KPEHOGLE@TXT_KEY_NOTIFICATION_QUEST_FIND_@
CONST	SEGMENT
??_C@_0CH@KPEHOGLE@TXT_KEY_NOTIFICATION_QUEST_FIND_@ DB 'TXT_KEY_NOTIFICA'
	DB	'TION_QUEST_FIND_PLAYER', 00H		; `string'
CONST	ENDS
;	COMDAT ??_C@_0DD@OKPFDOEH@TXT_KEY_NOTIFICATION_SUMMARY_QUE@
CONST	SEGMENT
??_C@_0DD@OKPFDOEH@TXT_KEY_NOTIFICATION_SUMMARY_QUE@ DB 'TXT_KEY_NOTIFICA'
	DB	'TION_SUMMARY_QUEST_KILL_CITY_STATE', 00H	; `string'
CONST	ENDS
;	COMDAT ??_C@_0CL@EDBBFCBH@TXT_KEY_NOTIFICATION_QUEST_KILL_@
CONST	SEGMENT
??_C@_0CL@EDBBFCBH@TXT_KEY_NOTIFICATION_QUEST_KILL_@ DB 'TXT_KEY_NOTIFICA'
	DB	'TION_QUEST_KILL_CITY_STATE', 00H		; `string'
CONST	ENDS
;	COMDAT ??_C@_0DA@PEDKNNEN@TXT_KEY_NOTIFICATION_SUMMARY_QUE@
CONST	SEGMENT
??_C@_0DA@PEDKNNEN@TXT_KEY_NOTIFICATION_SUMMARY_QUE@ DB 'TXT_KEY_NOTIFICA'
	DB	'TION_SUMMARY_QUEST_GREAT_PERSON', 00H	; `string'
CONST	ENDS
;	COMDAT ??_C@_0CI@LBILLPCD@TXT_KEY_NOTIFICATION_QUEST_GREAT@
CONST	SEGMENT
??_C@_0CI@LBILLPCD@TXT_KEY_NOTIFICATION_QUEST_GREAT@ DB 'TXT_KEY_NOTIFICA'
	DB	'TION_QUEST_GREAT_PERSON', 00H		; `string'
CONST	ENDS
;	COMDAT ??_C@_0DE@OCEMCCFF@TXT_KEY_NOTIFICATION_SUMMARY_QUE@
CONST	SEGMENT
??_C@_0DE@OCEMCCFF@TXT_KEY_NOTIFICATION_SUMMARY_QUE@ DB 'TXT_KEY_NOTIFICA'
	DB	'TION_SUMMARY_QUEST_CONSTRUCT_WONDER', 00H	; `string'
CONST	ENDS
;	COMDAT ??_C@_0CM@IJIOJHMN@TXT_KEY_NOTIFICATION_QUEST_CONST@
CONST	SEGMENT
??_C@_0CM@IJIOJHMN@TXT_KEY_NOTIFICATION_QUEST_CONST@ DB 'TXT_KEY_NOTIFICA'
	DB	'TION_QUEST_CONSTRUCT_WONDER', 00H		; `string'
CONST	ENDS
;	COMDAT ??_C@_0DE@DIFGCIIG@TXT_KEY_NOTIFICATION_SUMMARY_QUE@
CONST	SEGMENT
??_C@_0DE@DIFGCIIG@TXT_KEY_NOTIFICATION_SUMMARY_QUE@ DB 'TXT_KEY_NOTIFICA'
	DB	'TION_SUMMARY_QUEST_CONNECT_RESOURCE', 00H	; `string'
CONST	ENDS
;	COMDAT ??_C@_0CM@FDJEJNBO@TXT_KEY_NOTIFICATION_QUEST_CONNE@
CONST	SEGMENT
??_C@_0CM@FDJEJNBO@TXT_KEY_NOTIFICATION_QUEST_CONNE@ DB 'TXT_KEY_NOTIFICA'
	DB	'TION_QUEST_CONNECT_RESOURCE', 00H		; `string'
CONST	ENDS
;	COMDAT ??_C@_0CN@NIAFEJJC@TXT_KEY_NOTIFICATION_SUMMARY_QUE@
CONST	SEGMENT
??_C@_0CN@NIAFEJJC@TXT_KEY_NOTIFICATION_SUMMARY_QUE@ DB 'TXT_KEY_NOTIFICA'
	DB	'TION_SUMMARY_QUEST_KILL_CAMP', 00H		; `string'
CONST	ENDS
;	COMDAT ??_C@_0CF@MAOJPBCF@TXT_KEY_NOTIFICATION_QUEST_KILL_@
CONST	SEGMENT
??_C@_0CF@MAOJPBCF@TXT_KEY_NOTIFICATION_QUEST_KILL_@ DB 'TXT_KEY_NOTIFICA'
	DB	'TION_QUEST_KILL_CAMP', 00H			; `string'
CONST	ENDS
;	COMDAT ??_C@_0CP@GBAOMNJD@TXT_KEY_NOTIFICATION_SUMMARY_QUE@
CONST	SEGMENT
??_C@_0CP@GBAOMNJD@TXT_KEY_NOTIFICATION_SUMMARY_QUE@ DB 'TXT_KEY_NOTIFICA'
	DB	'TION_SUMMARY_QUEST_START_ROUTE', 00H	; `string'
CONST	ENDS
;	COMDAT ??_C@_0CH@PDANGLO@TXT_KEY_NOTIFICATION_QUEST_START@
CONST	SEGMENT
??_C@_0CH@PDANGLO@TXT_KEY_NOTIFICATION_QUEST_START@ DB 'TXT_KEY_NOTIFICAT'
	DB	'ION_QUEST_START_ROUTE', 00H			; `string'
CONST	ENDS
;	COMDAT xdata$x
xdata$x	SEGMENT
__ehfuncinfo$?DoStartQuest@CvMinorCivQuest@@QAEXH@Z DD 019930522H
	DD	029H
	DD	FLAT:__unwindtable$?DoStartQuest@CvMinorCivQuest@@QAEXH@Z
	DD	2 DUP(00H)
	DD	2 DUP(00H)
	DD	00H
	DD	01H
__unwindtable$?DoStartQuest@CvMinorCivQuest@@QAEXH@Z DD 0ffffffffH
	DD	FLAT:__unwindfunclet$?DoStartQuest@CvMinorCivQuest@@QAEXH@Z$0
	DD	00H
	DD	FLAT:__unwindfunclet$?DoStartQuest@CvMinorCivQuest@@QAEXH@Z$1
	DD	01H
	DD	FLAT:__unwindfunclet$?DoStartQuest@CvMinorCivQuest@@QAEXH@Z$2
	DD	01H
	DD	FLAT:__unwindfunclet$?DoStartQuest@CvMinorCivQuest@@QAEXH@Z$3
	DD	01H
	DD	FLAT:__unwindfunclet$?DoStartQuest@CvMinorCivQuest@@QAEXH@Z$4
	DD	01H
	DD	FLAT:__unwindfunclet$?DoStartQuest@CvMinorCivQuest@@QAEXH@Z$5
	DD	01H
	DD	FLAT:__unwindfunclet$?DoStartQuest@CvMinorCivQuest@@QAEXH@Z$6
	DD	01H
	DD	FLAT:__unwindfunclet$?DoStartQuest@CvMinorCivQuest@@QAEXH@Z$7
	DD	01H
	DD	FLAT:__unwindfunclet$?DoStartQuest@CvMinorCivQuest@@QAEXH@Z$8
	DD	01H
	DD	FLAT:__unwindfunclet$?DoStartQuest@CvMinorCivQuest@@QAEXH@Z$9
	DD	01H
	DD	FLAT:__unwindfunclet$?DoStartQuest@CvMinorCivQuest@@QAEXH@Z$10
	DD	01H
	DD	FLAT:__unwindfunclet$?DoStartQuest@CvMinorCivQuest@@QAEXH@Z$11
	DD	01H
	DD	FLAT:__unwindfunclet$?DoStartQuest@CvMinorCivQuest@@QAEXH@Z$12
	DD	01H
	DD	FLAT:__unwindfunclet$?DoStartQuest@CvMinorCivQuest@@QAEXH@Z$13
	DD	01H
	DD	FLAT:__unwindfunclet$?DoStartQuest@CvMinorCivQuest@@QAEXH@Z$14
	DD	01H
	DD	FLAT:__unwindfunclet$?DoStartQuest@CvMinorCivQuest@@QAEXH@Z$15
	DD	01H
	DD	FLAT:__unwindfunclet$?DoStartQuest@CvMinorCivQuest@@QAEXH@Z$16
	DD	01H
	DD	FLAT:__unwindfunclet$?DoStartQuest@CvMinorCivQuest@@QAEXH@Z$17
	DD	01H
	DD	FLAT:__unwindfunclet$?DoStartQuest@CvMinorCivQuest@@QAEXH@Z$18
	DD	01H
	DD	FLAT:__unwindfunclet$?DoStartQuest@CvMinorCivQuest@@QAEXH@Z$19
	DD	01H
	DD	FLAT:__unwindfunclet$?DoStartQuest@CvMinorCivQuest@@QAEXH@Z$20
	DD	01H
	DD	FLAT:__unwindfunclet$?DoStartQuest@CvMinorCivQuest@@QAEXH@Z$21
	DD	01H
	DD	FLAT:__unwindfunclet$?DoStartQuest@CvMinorCivQuest@@QAEXH@Z$22
	DD	01H
	DD	FLAT:__unwindfunclet$?DoStartQuest@CvMinorCivQuest@@QAEXH@Z$23
	DD	01H
	DD	FLAT:__unwindfunclet$?DoStartQuest@CvMinorCivQuest@@QAEXH@Z$24
	DD	01H
	DD	FLAT:__unwindfunclet$?DoStartQuest@CvMinorCivQuest@@QAEXH@Z$25
	DD	01H
	DD	FLAT:__unwindfunclet$?DoStartQuest@CvMinorCivQuest@@QAEXH@Z$26
	DD	01H
	DD	FLAT:__unwindfunclet$?DoStartQuest@CvMinorCivQuest@@QAEXH@Z$27
	DD	01H
	DD	FLAT:__unwindfunclet$?DoStartQuest@CvMinorCivQuest@@QAEXH@Z$28
	DD	01H
	DD	FLAT:__unwindfunclet$?DoStartQuest@CvMinorCivQuest@@QAEXH@Z$29
	DD	01H
	DD	FLAT:__unwindfunclet$?DoStartQuest@CvMinorCivQuest@@QAEXH@Z$30
	DD	01H
	DD	FLAT:__unwindfunclet$?DoStartQuest@CvMinorCivQuest@@QAEXH@Z$31
	DD	01H
	DD	FLAT:__unwindfunclet$?DoStartQuest@CvMinorCivQuest@@QAEXH@Z$32
	DD	01H
	DD	FLAT:__unwindfunclet$?DoStartQuest@CvMinorCivQuest@@QAEXH@Z$33
	DD	01H
	DD	FLAT:__unwindfunclet$?DoStartQuest@CvMinorCivQuest@@QAEXH@Z$34
	DD	01H
	DD	FLAT:__unwindfunclet$?DoStartQuest@CvMinorCivQuest@@QAEXH@Z$35
	DD	01H
	DD	FLAT:__unwindfunclet$?DoStartQuest@CvMinorCivQuest@@QAEXH@Z$36
	DD	01H
	DD	FLAT:__unwindfunclet$?DoStartQuest@CvMinorCivQuest@@QAEXH@Z$37
	DD	01H
	DD	FLAT:__unwindfunclet$?DoStartQuest@CvMinorCivQuest@@QAEXH@Z$38
	DD	01H
	DD	FLAT:__unwindfunclet$?DoStartQuest@CvMinorCivQuest@@QAEXH@Z$39
	DD	027H
	DD	FLAT:__unwindfunclet$?DoStartQuest@CvMinorCivQuest@@QAEXH@Z$40
; Function compile flags: /Odtp
; File d:\sources\lekmod_git\checkout\lekmod_dll\cvgamecoredll_expansion2\cvminorcivai.cpp
xdata$x	ENDS
;	COMDAT ?DoStartQuest@CvMinorCivQuest@@QAEXH@Z
_TEXT	SEGMENT
tv976 = -3688						; size = 4
tv1081 = -3684						; size = 4
tv973 = -3680						; size = 4
tv1068 = -3676						; size = 4
tv967 = -3672						; size = 4
tv1117 = -3668						; size = 4
tv965 = -3664						; size = 4
tv819 = -3660						; size = 4
tv962 = -3656						; size = 4
tv1116 = -3652						; size = 4
tv960 = -3648						; size = 4
tv1115 = -3644						; size = 4
tv958 = -3640						; size = 4
tv1114 = -3636						; size = 4
tv956 = -3632						; size = 4
tv1113 = -3628						; size = 4
tv954 = -3624						; size = 4
tv1112 = -3620						; size = 4
tv952 = -3616						; size = 4
tv1111 = -3612						; size = 4
tv950 = -3608						; size = 4
tv1110 = -3604						; size = 4
tv948 = -3600						; size = 4
tv1109 = -3596						; size = 4
tv946 = -3592						; size = 4
tv1108 = -3588						; size = 4
tv944 = -3584						; size = 4
tv1107 = -3580						; size = 4
tv942 = -3576						; size = 4
tv1106 = -3572						; size = 4
tv940 = -3568						; size = 4
tv1105 = -3564						; size = 4
tv938 = -3560						; size = 4
tv1104 = -3556						; size = 4
tv936 = -3552						; size = 4
tv1103 = -3548						; size = 4
tv934 = -3544						; size = 4
tv1102 = -3540						; size = 4
tv932 = -3536						; size = 4
tv1101 = -3532						; size = 4
tv930 = -3528						; size = 4
tv1100 = -3524						; size = 4
tv928 = -3520						; size = 4
tv1099 = -3516						; size = 4
tv926 = -3512						; size = 4
tv1098 = -3508						; size = 4
tv924 = -3504						; size = 4
tv1097 = -3500						; size = 4
tv922 = -3496						; size = 4
tv1096 = -3492						; size = 4
tv920 = -3488						; size = 4
tv1095 = -3484						; size = 4
tv918 = -3480						; size = 4
tv1094 = -3476						; size = 4
tv916 = -3472						; size = 4
tv1093 = -3468						; size = 4
tv914 = -3464						; size = 4
tv1092 = -3460						; size = 4
tv912 = -3456						; size = 4
tv1091 = -3452						; size = 4
tv910 = -3448						; size = 4
tv1090 = -3444						; size = 4
tv908 = -3440						; size = 4
tv1089 = -3436						; size = 4
tv906 = -3432						; size = 4
tv883 = -3428						; size = 4
tv904 = -3424						; size = 4
tv887 = -3420						; size = 4
tv902 = -3416						; size = 4
tv1066 = -3412						; size = 4
tv900 = -3408						; size = 4
tv1079 = -3404						; size = 4
tv898 = -3400						; size = 4
tv79 = -3396						; size = 4
tv896 = -3392						; size = 4
tv82 = -3388						; size = 4
_this$ = -3384						; size = 4
$T235870 = -3380					; size = 4
$T235869 = -3376					; size = 4
$T235860 = -3372					; size = 4
$T235859 = -3368					; size = 4
$T235846 = -3364					; size = 4
$T235842 = -3360					; size = 4
$T235838 = -3356					; size = 4
$T235834 = -3352					; size = 4
$T235830 = -3348					; size = 4
$T235826 = -3344					; size = 4
$T235822 = -3340					; size = 4
$T235818 = -3336					; size = 4
$T235814 = -3332					; size = 4
$T235805 = -3328					; size = 4
$T235801 = -3324					; size = 4
$T235797 = -3320					; size = 4
$T235793 = -3316					; size = 4
$T235789 = -3312					; size = 4
$T235785 = -3308					; size = 4
$T235776 = -3304					; size = 4
$T235772 = -3300					; size = 4
$T235768 = -3296					; size = 4
$T235764 = -3292					; size = 4
$T235760 = -3288					; size = 4
$T235750 = -3284					; size = 4
$T235680 = -3280					; size = 4
$T235679 = -3276					; size = 4
$T235678 = -3272					; size = 4
$T235677 = -3268					; size = 4
$T235676 = -3264					; size = 80
$T235675 = -3184					; size = 80
$T235674 = -3104					; size = 80
$T235673 = -3024					; size = 80
$T235672 = -2944					; size = 80
$T235671 = -2864					; size = 80
$T235670 = -2784					; size = 80
$T235669 = -2704					; size = 80
$T235668 = -2624					; size = 80
$T235667 = -2544					; size = 80
$T235666 = -2464					; size = 80
$T235665 = -2384					; size = 80
$T235664 = -2304					; size = 80
$T235663 = -2224					; size = 80
$T235662 = -2144					; size = 80
$T235661 = -2064					; size = 80
$T235660 = -1984					; size = 80
$T235659 = -1904					; size = 80
$T235658 = -1824					; size = 80
$T235657 = -1744					; size = 80
$T235656 = -1664					; size = 80
$T235655 = -1584					; size = 80
$T235654 = -1504					; size = 80
$T235653 = -1424					; size = 80
$T235652 = -1344					; size = 80
$T235651 = -1264					; size = 80
$T235650 = -1184					; size = 80
$T235649 = -1104					; size = 80
$T235648 = -1024					; size = 80
$T235647 = -944						; size = 80
$T235646 = -864						; size = 80
$T235645 = -784						; size = 80
$T235644 = -704						; size = 80
$T235643 = -624						; size = 80
$T235642 = -544						; size = 80
$T235641 = -464						; size = 80
_strReligion$221429 = -384				; size = 4
_strReligion$221426 = -380				; size = 28
__$ArrayPad$ = -352					; size = 4
_pkReligion$221425 = -348				; size = 4
_eReligion$221419 = -344				; size = 4
_strCivKey$221416 = -340				; size = 4
_strCivKey$221414 = -336				; size = 4
_eMostRecentBully$221408 = -332				; size = 4
_strCivKey$221405 = -328				; size = 4
_strCivKey$221403 = -324				; size = 4
_eTargetMinor$221396 = -320				; size = 4
_iLastBullyTurn$221397 = -316				; size = 4
_iTurnsRemaining$221388 = -312				; size = 4
_iBoostPercentage$221389 = -308				; size = 4
_iGoldAlreadyGiven$221387 = -304			; size = 4
_iTurnsDuration$221380 = -300				; size = 4
_iTurnsRemaining$221379 = -296				; size = 4
_iStartingTechs$221378 = -292				; size = 4
_iTurnsDuration$221371 = -288				; size = 4
_iTurnsRemaining$221370 = -284				; size = 4
_iStartingFaith$221369 = -280				; size = 4
_iTurnsDuration$221362 = -276				; size = 4
_iTurnsRemaining$221361 = -272				; size = 4
_iStartingCulture$221360 = -268				; size = 4
_strCivKey$221357 = -264				; size = 4
_strCivKey$221355 = -260				; size = 4
_eMostRecentBully$221349 = -256				; size = 4
_strCivKey$221345 = -252				; size = 4
_strCivKey$221343 = -248				; size = 4
_eMostRecentBully$221336 = -244				; size = 4
_iGoldAlreadyGiven$221337 = -240			; size = 4
_iNumWondersAlreadyFound$221329 = -236			; size = 4
_strCivKey$221322 = -232				; size = 4
_ePlayerToFind$221321 = -228				; size = 4
_eTargetCityState$221313 = -224				; size = 4
_strTargetNameKey$221314 = -220				; size = 4
_eUnit$221305 = -216					; size = 4
_strUnitName$221306 = -212				; size = 4
_eWonder$221297 = -208					; size = 4
_strBuildingName$221298 = -204				; size = 4
_eResource$221284 = -200				; size = 4
_strResourceName$221285 = -196				; size = 4
_pPlot$221277 = -192					; size = 4
_pAssignedPlayer$ = -188				; size = 4
_iNotificationX$ = -184					; size = 4
_strMessage$ = -180					; size = 80
_strSummary$ = -100					; size = 80
_iNotificationY$ = -20					; size = 4
_pMinor$ = -16						; size = 4
__$EHRec$ = -12						; size = 12
_iStartTurn$ = 8					; size = 4
?DoStartQuest@CvMinorCivQuest@@QAEXH@Z PROC		; CvMinorCivQuest::DoStartQuest, COMDAT
; _this$ = ecx

; 801  : {

	push	ebp
	mov	ebp, esp
	push	-1
	push	__ehhandler$?DoStartQuest@CvMinorCivQuest@@QAEXH@Z
	mov	eax, DWORD PTR fs:0
	push	eax
	sub	esp, 3676				; 00000e5cH
	mov	eax, DWORD PTR ___security_cookie
	xor	eax, ebp
	mov	DWORD PTR __$ArrayPad$[ebp], eax
	push	esi
	push	eax
	lea	eax, DWORD PTR __$EHRec$[ebp]
	mov	DWORD PTR fs:0, eax
	mov	DWORD PTR _this$[ebp], ecx

; 802  : 	m_iStartTurn = iStartTurn;

	mov	eax, DWORD PTR _this$[ebp]
	mov	ecx, DWORD PTR _iStartTurn$[ebp]
	mov	DWORD PTR [eax+12], ecx

; 803  : 
; 804  : 	CvPlayer* pMinor = &GET_PLAYER(m_eMinor);

	mov	edx, DWORD PTR _this$[ebp]
	mov	eax, DWORD PTR [edx]
	imul	eax, 63236				; 0000f704H
	add	eax, DWORD PTR ?m_aPlayers@CvPlayerAI@@1PAV1@A ; CvPlayerAI::m_aPlayers
	mov	DWORD PTR _pMinor$[ebp], eax

; 805  : 	CvPlayer* pAssignedPlayer = &GET_PLAYER(m_eAssignedPlayer);

	mov	ecx, DWORD PTR _this$[ebp]
	mov	edx, DWORD PTR [ecx+4]
	imul	edx, 63236				; 0000f704H
	add	edx, DWORD PTR ?m_aPlayers@CvPlayerAI@@1PAV1@A ; CvPlayerAI::m_aPlayers
	mov	DWORD PTR _pAssignedPlayer$[ebp], edx

; 806  : 
; 807  : 	Localization::String strMessage;

	lea	ecx, DWORD PTR _strMessage$[ebp]
	call	DWORD PTR __imp_??0String@Localization@@QAE@XZ
	mov	DWORD PTR __$EHRec$[ebp+8], 0

; 808  : 	Localization::String strSummary;

	lea	ecx, DWORD PTR _strSummary$[ebp]
	call	DWORD PTR __imp_??0String@Localization@@QAE@XZ
	mov	BYTE PTR __$EHRec$[ebp+8], 1

; 809  : 	int iNotificationX = -1;

	mov	DWORD PTR _iNotificationX$[ebp], -1

; 810  : 	int iNotificationY = -1;

	mov	DWORD PTR _iNotificationY$[ebp], -1

; 811  : 
; 812  : 	// Build a Route
; 813  : 	if(m_eType == MINOR_CIV_QUEST_ROUTE)

	mov	eax, DWORD PTR _this$[ebp]
	cmp	DWORD PTR [eax+8], 0
	jne	$LN45@DoStartQue

; 814  : 	{
; 815  : 		strMessage = Localization::Lookup("TXT_KEY_NOTIFICATION_QUEST_START_ROUTE");

	push	OFFSET ??_C@_0CH@PDANGLO@TXT_KEY_NOTIFICATION_QUEST_START@
	lea	ecx, DWORD PTR $T235641[ebp]
	push	ecx
	call	DWORD PTR __imp_?Lookup@Localization@@YA?AVString@1@PBD@Z
	add	esp, 8
	mov	DWORD PTR tv82[ebp], eax
	mov	edx, DWORD PTR tv82[ebp]
	mov	DWORD PTR tv896[ebp], edx
	mov	BYTE PTR __$EHRec$[ebp+8], 2
	mov	eax, DWORD PTR tv896[ebp]
	push	eax
	lea	ecx, DWORD PTR _strMessage$[ebp]
	call	DWORD PTR __imp_??4String@Localization@@QAEAAV01@ABV01@@Z
	mov	BYTE PTR __$EHRec$[ebp+8], 1
	lea	ecx, DWORD PTR $T235641[ebp]
	call	DWORD PTR __imp_??1String@Localization@@UAE@XZ

; 816  : 		strSummary = Localization::Lookup("TXT_KEY_NOTIFICATION_SUMMARY_QUEST_START_ROUTE");

	push	OFFSET ??_C@_0CP@GBAOMNJD@TXT_KEY_NOTIFICATION_SUMMARY_QUE@
	lea	ecx, DWORD PTR $T235642[ebp]
	push	ecx
	call	DWORD PTR __imp_?Lookup@Localization@@YA?AVString@1@PBD@Z
	add	esp, 8
	mov	DWORD PTR tv79[ebp], eax
	mov	edx, DWORD PTR tv79[ebp]
	mov	DWORD PTR tv898[ebp], edx
	mov	BYTE PTR __$EHRec$[ebp+8], 3
	mov	eax, DWORD PTR tv898[ebp]
	push	eax
	lea	ecx, DWORD PTR _strSummary$[ebp]
	call	DWORD PTR __imp_??4String@Localization@@QAEAAV01@ABV01@@Z
	mov	BYTE PTR __$EHRec$[ebp+8], 1
	lea	ecx, DWORD PTR $T235642[ebp]
	call	DWORD PTR __imp_??1String@Localization@@UAE@XZ
	jmp	$LN44@DoStartQue
$LN45@DoStartQue:

; 817  : 	}
; 818  : 	// Kill a Camp
; 819  : 	else if(m_eType == MINOR_CIV_QUEST_KILL_CAMP)

	mov	ecx, DWORD PTR _this$[ebp]
	cmp	DWORD PTR [ecx+8], 1
	jne	$LN43@DoStartQue

; 820  : 	{
; 821  : 		CvPlot* pPlot = pMinor->GetMinorCivAI()->GetBestNearbyCampToKill();

	mov	ecx, DWORD PTR _pMinor$[ebp]
	call	?GetMinorCivAI@CvPlayer@@QBEPAVCvMinorCivAI@@XZ ; CvPlayer::GetMinorCivAI
	mov	ecx, eax
	call	?GetBestNearbyCampToKill@CvMinorCivAI@@QAEPAVCvPlot@@XZ ; CvMinorCivAI::GetBestNearbyCampToKill
	mov	DWORD PTR _pPlot$221277[ebp], eax

; 822  : 
; 823  : 		FAssertMsg(pPlot != NULL, "MINOR CIV AI: Somehow we're starting a quest to kill a barb camp but we can't find one nearby. Please send Jon this with your last 5 autosaves and what changelist # you're playing. Oh, and you're about to crash.");
; 824  : 
; 825  : 		m_iData1 = pPlot->getX();

	mov	edx, DWORD PTR _pPlot$221277[ebp]
	movsx	eax, WORD PTR [edx]
	mov	ecx, DWORD PTR _this$[ebp]
	mov	DWORD PTR [ecx+16], eax

; 826  : 		m_iData2 = pPlot->getY();

	mov	edx, DWORD PTR _pPlot$221277[ebp]
	movsx	eax, WORD PTR [edx+2]
	mov	ecx, DWORD PTR _this$[ebp]
	mov	DWORD PTR [ecx+20], eax

; 827  : 
; 828  : 		pPlot->setRevealed(pAssignedPlayer->getTeam(), true);

	push	-1
	push	0
	push	1
	mov	edx, DWORD PTR _pAssignedPlayer$[ebp]
	mov	eax, DWORD PTR [edx+44]
	push	eax
	call	?teamType@CvPreGame@@YA?AW4TeamTypes@@W4PlayerTypes@@@Z ; CvPreGame::teamType
	add	esp, 4
	push	eax
	mov	ecx, DWORD PTR _pPlot$221277[ebp]
	call	?setRevealed@CvPlot@@QAE_NW4TeamTypes@@_N10@Z ; CvPlot::setRevealed

; 829  : 		pPlot->setRevealedImprovementType(pAssignedPlayer->getTeam(), pPlot->getImprovementType());

	mov	ecx, DWORD PTR _pAssignedPlayer$[ebp]
	mov	edx, DWORD PTR [ecx+44]
	push	edx
	call	?teamType@CvPreGame@@YA?AW4TeamTypes@@W4PlayerTypes@@@Z ; CvPreGame::teamType
	add	esp, 4
	mov	DWORD PTR $T235750[ebp], eax
	mov	ecx, DWORD PTR _pPlot$221277[ebp]
	call	?getImprovementType@CvPlot@@QBE?AW4ImprovementTypes@@XZ ; CvPlot::getImprovementType
	push	eax
	mov	eax, DWORD PTR $T235750[ebp]
	push	eax
	mov	ecx, DWORD PTR _pPlot$221277[ebp]
	call	?setRevealedImprovementType@CvPlot@@QAE_NW4TeamTypes@@W4ImprovementTypes@@@Z ; CvPlot::setRevealedImprovementType

; 830  : 
; 831  : 		strMessage = Localization::Lookup("TXT_KEY_NOTIFICATION_QUEST_KILL_CAMP");

	push	OFFSET ??_C@_0CF@MAOJPBCF@TXT_KEY_NOTIFICATION_QUEST_KILL_@
	lea	ecx, DWORD PTR $T235643[ebp]
	push	ecx
	call	DWORD PTR __imp_?Lookup@Localization@@YA?AVString@1@PBD@Z
	add	esp, 8
	mov	DWORD PTR tv1079[ebp], eax
	mov	edx, DWORD PTR tv1079[ebp]
	mov	DWORD PTR tv900[ebp], edx
	mov	BYTE PTR __$EHRec$[ebp+8], 4
	mov	eax, DWORD PTR tv900[ebp]
	push	eax
	lea	ecx, DWORD PTR _strMessage$[ebp]
	call	DWORD PTR __imp_??4String@Localization@@QAEAAV01@ABV01@@Z
	mov	BYTE PTR __$EHRec$[ebp+8], 1
	lea	ecx, DWORD PTR $T235643[ebp]
	call	DWORD PTR __imp_??1String@Localization@@UAE@XZ

; 832  : 		strSummary = Localization::Lookup("TXT_KEY_NOTIFICATION_SUMMARY_QUEST_KILL_CAMP");

	push	OFFSET ??_C@_0CN@NIAFEJJC@TXT_KEY_NOTIFICATION_SUMMARY_QUE@
	lea	ecx, DWORD PTR $T235644[ebp]
	push	ecx
	call	DWORD PTR __imp_?Lookup@Localization@@YA?AVString@1@PBD@Z
	add	esp, 8
	mov	DWORD PTR tv1066[ebp], eax
	mov	edx, DWORD PTR tv1066[ebp]
	mov	DWORD PTR tv902[ebp], edx
	mov	BYTE PTR __$EHRec$[ebp+8], 5
	mov	eax, DWORD PTR tv902[ebp]
	push	eax
	lea	ecx, DWORD PTR _strSummary$[ebp]
	call	DWORD PTR __imp_??4String@Localization@@QAEAAV01@ABV01@@Z
	mov	BYTE PTR __$EHRec$[ebp+8], 1
	lea	ecx, DWORD PTR $T235644[ebp]
	call	DWORD PTR __imp_??1String@Localization@@UAE@XZ

; 833  : 		iNotificationX = pPlot->getX();

	mov	ecx, DWORD PTR _pPlot$221277[ebp]
	movsx	edx, WORD PTR [ecx]
	mov	DWORD PTR _iNotificationX$[ebp], edx

; 834  : 		iNotificationY = pPlot->getY();

	mov	eax, DWORD PTR _pPlot$221277[ebp]
	movsx	ecx, WORD PTR [eax+2]
	mov	DWORD PTR _iNotificationY$[ebp], ecx
	jmp	$LN44@DoStartQue
$LN43@DoStartQue:

; 835  : 	}
; 836  : 	// Connect a Resource
; 837  : 	else if(m_eType == MINOR_CIV_QUEST_CONNECT_RESOURCE)

	mov	edx, DWORD PTR _this$[ebp]
	cmp	DWORD PTR [edx+8], 2
	jne	$LN41@DoStartQue

; 838  : 	{
; 839  : 		ResourceTypes eResource = pMinor->GetMinorCivAI()->GetNearbyResourceForQuest(m_eAssignedPlayer);

	mov	eax, DWORD PTR _this$[ebp]
	mov	ecx, DWORD PTR [eax+4]
	push	ecx
	mov	ecx, DWORD PTR _pMinor$[ebp]
	call	?GetMinorCivAI@CvPlayer@@QBEPAVCvMinorCivAI@@XZ ; CvPlayer::GetMinorCivAI
	mov	ecx, eax
	call	?GetNearbyResourceForQuest@CvMinorCivAI@@QAE?AW4ResourceTypes@@W4PlayerTypes@@@Z ; CvMinorCivAI::GetNearbyResourceForQuest
	mov	DWORD PTR _eResource$221284[ebp], eax

; 840  : 
; 841  : 		FAssertMsg(eResource != NO_RESOURCE, "MINOR CIV AI: For some reason we got NO_RESOURCE when starting a quest for a major to find a Resource. Please send Jon this with your last 5 autosaves and what changelist # you're playing. Bad things are probably going to happen.");
; 842  : 
; 843  : 		m_iData1 = eResource;

	mov	edx, DWORD PTR _this$[ebp]
	mov	eax, DWORD PTR _eResource$221284[ebp]
	mov	DWORD PTR [edx+16], eax

; 844  : 
; 845  : 		const char* strResourceName = GC.getResourceInfo(eResource)->GetDescriptionKey();

	mov	ecx, DWORD PTR _eResource$221284[ebp]
	push	ecx
	mov	ecx, OFFSET ?gGlobals@@3VCvGlobals@@A	; gGlobals
	call	?getResourceInfo@CvGlobals@@QAEPAVCvResourceInfo@@W4ResourceTypes@@@Z ; CvGlobals::getResourceInfo
	mov	DWORD PTR $T235760[ebp], eax
	mov	ecx, DWORD PTR $T235760[ebp]
	add	ecx, 64					; 00000040H
	call	DWORD PTR __imp_?c_str@?$basic_string@DU?$char_traits@D@std@@V?$allocator@D@2@@std@@QBEPBDXZ
	mov	DWORD PTR _strResourceName$221285[ebp], eax

; 846  : 
; 847  : 		strMessage = Localization::Lookup("TXT_KEY_NOTIFICATION_QUEST_CONNECT_RESOURCE");

	push	OFFSET ??_C@_0CM@FDJEJNBO@TXT_KEY_NOTIFICATION_QUEST_CONNE@
	lea	edx, DWORD PTR $T235645[ebp]
	push	edx
	call	DWORD PTR __imp_?Lookup@Localization@@YA?AVString@1@PBD@Z
	add	esp, 8
	mov	DWORD PTR tv887[ebp], eax
	mov	eax, DWORD PTR tv887[ebp]
	mov	DWORD PTR tv904[ebp], eax
	mov	BYTE PTR __$EHRec$[ebp+8], 6
	mov	ecx, DWORD PTR tv904[ebp]
	push	ecx
	lea	ecx, DWORD PTR _strMessage$[ebp]
	call	DWORD PTR __imp_??4String@Localization@@QAEAAV01@ABV01@@Z
	mov	BYTE PTR __$EHRec$[ebp+8], 1
	lea	ecx, DWORD PTR $T235645[ebp]
	call	DWORD PTR __imp_??1String@Localization@@UAE@XZ

; 848  : 		strMessage << strResourceName;

	lea	edx, DWORD PTR _strResourceName$221285[ebp]
	push	edx
	lea	eax, DWORD PTR _strMessage$[ebp]
	push	eax
	call	??$?6PBD@@YAAAVString@Localization@@AAV01@ABQBD@Z ; operator<<<char const *>
	add	esp, 8

; 849  : 		strSummary = Localization::Lookup("TXT_KEY_NOTIFICATION_SUMMARY_QUEST_CONNECT_RESOURCE");

	push	OFFSET ??_C@_0DE@DIFGCIIG@TXT_KEY_NOTIFICATION_SUMMARY_QUE@
	lea	ecx, DWORD PTR $T235646[ebp]
	push	ecx
	call	DWORD PTR __imp_?Lookup@Localization@@YA?AVString@1@PBD@Z
	add	esp, 8
	mov	DWORD PTR tv883[ebp], eax
	mov	edx, DWORD PTR tv883[ebp]
	mov	DWORD PTR tv906[ebp], edx
	mov	BYTE PTR __$EHRec$[ebp+8], 7
	mov	eax, DWORD PTR tv906[ebp]
	push	eax
	lea	ecx, DWORD PTR _strSummary$[ebp]
	call	DWORD PTR __imp_??4String@Localization@@QAEAAV01@ABV01@@Z
	mov	BYTE PTR __$EHRec$[ebp+8], 1
	lea	ecx, DWORD PTR $T235646[ebp]
	call	DWORD PTR __imp_??1String@Localization@@UAE@XZ

; 850  : 		strSummary << strResourceName;

	lea	ecx, DWORD PTR _strResourceName$221285[ebp]
	push	ecx
	lea	edx, DWORD PTR _strSummary$[ebp]
	push	edx
	call	??$?6PBD@@YAAAVString@Localization@@AAV01@ABQBD@Z ; operator<<<char const *>
	add	esp, 8
	jmp	$LN44@DoStartQue
$LN41@DoStartQue:

; 851  : 	}
; 852  : 	// Construct a Wonder
; 853  : 	else if(m_eType == MINOR_CIV_QUEST_CONSTRUCT_WONDER)

	mov	eax, DWORD PTR _this$[ebp]
	cmp	DWORD PTR [eax+8], 3
	jne	$LN39@DoStartQue

; 854  : 	{
; 855  : 		BuildingTypes eWonder = pMinor->GetMinorCivAI()->GetBestWonderForQuest(m_eAssignedPlayer);

	mov	ecx, DWORD PTR _this$[ebp]
	mov	edx, DWORD PTR [ecx+4]
	push	edx
	mov	ecx, DWORD PTR _pMinor$[ebp]
	call	?GetMinorCivAI@CvPlayer@@QBEPAVCvMinorCivAI@@XZ ; CvPlayer::GetMinorCivAI
	mov	ecx, eax
	call	?GetBestWonderForQuest@CvMinorCivAI@@QAE?AW4BuildingTypes@@W4PlayerTypes@@@Z ; CvMinorCivAI::GetBestWonderForQuest
	mov	DWORD PTR _eWonder$221297[ebp], eax

; 856  : 
; 857  : 		FAssertMsg(eWonder != NO_BUILDING, "MINOR CIV AI: For some reason we got NO_BUILDING when starting a quest for a major to find a Wonder. Please send Jon this with your last 5 autosaves and what changelist # you're playing. Bad things are probably going to happen.");
; 858  : 
; 859  : 		m_iData1 = eWonder;

	mov	eax, DWORD PTR _this$[ebp]
	mov	ecx, DWORD PTR _eWonder$221297[ebp]
	mov	DWORD PTR [eax+16], ecx

; 860  : 
; 861  : #ifdef AUI_WARNING_FIXES
; 862  : 		const char* strBuildingName;
; 863  : 		CvBuildingEntry* pWonderInfo = GC.getBuildingInfo(eWonder);
; 864  : 		if (pWonderInfo)
; 865  : 			strBuildingName = pWonderInfo->GetDescriptionKey();
; 866  : #else
; 867  : 		const char* strBuildingName = GC.getBuildingInfo(eWonder)->GetDescriptionKey();

	mov	edx, DWORD PTR _eWonder$221297[ebp]
	push	edx
	mov	ecx, OFFSET ?gGlobals@@3VCvGlobals@@A	; gGlobals
	call	?getBuildingInfo@CvGlobals@@QAEPAVCvBuildingEntry@@W4BuildingTypes@@@Z ; CvGlobals::getBuildingInfo
	mov	DWORD PTR $T235764[ebp], eax
	mov	ecx, DWORD PTR $T235764[ebp]
	add	ecx, 64					; 00000040H
	call	DWORD PTR __imp_?c_str@?$basic_string@DU?$char_traits@D@std@@V?$allocator@D@2@@std@@QBEPBDXZ
	mov	DWORD PTR _strBuildingName$221298[ebp], eax

; 868  : #endif
; 869  : 
; 870  : 		strMessage = Localization::Lookup("TXT_KEY_NOTIFICATION_QUEST_CONSTRUCT_WONDER");

	push	OFFSET ??_C@_0CM@IJIOJHMN@TXT_KEY_NOTIFICATION_QUEST_CONST@
	lea	eax, DWORD PTR $T235647[ebp]
	push	eax
	call	DWORD PTR __imp_?Lookup@Localization@@YA?AVString@1@PBD@Z
	add	esp, 8
	mov	DWORD PTR tv1089[ebp], eax
	mov	ecx, DWORD PTR tv1089[ebp]
	mov	DWORD PTR tv908[ebp], ecx
	mov	BYTE PTR __$EHRec$[ebp+8], 8
	mov	edx, DWORD PTR tv908[ebp]
	push	edx
	lea	ecx, DWORD PTR _strMessage$[ebp]
	call	DWORD PTR __imp_??4String@Localization@@QAEAAV01@ABV01@@Z
	mov	BYTE PTR __$EHRec$[ebp+8], 1
	lea	ecx, DWORD PTR $T235647[ebp]
	call	DWORD PTR __imp_??1String@Localization@@UAE@XZ

; 871  : 		strMessage << strBuildingName;

	lea	eax, DWORD PTR _strBuildingName$221298[ebp]
	push	eax
	lea	ecx, DWORD PTR _strMessage$[ebp]
	push	ecx
	call	??$?6PBD@@YAAAVString@Localization@@AAV01@ABQBD@Z ; operator<<<char const *>
	add	esp, 8

; 872  : 		strSummary = Localization::Lookup("TXT_KEY_NOTIFICATION_SUMMARY_QUEST_CONSTRUCT_WONDER");

	push	OFFSET ??_C@_0DE@OCEMCCFF@TXT_KEY_NOTIFICATION_SUMMARY_QUE@
	lea	edx, DWORD PTR $T235648[ebp]
	push	edx
	call	DWORD PTR __imp_?Lookup@Localization@@YA?AVString@1@PBD@Z
	add	esp, 8
	mov	DWORD PTR tv1090[ebp], eax
	mov	eax, DWORD PTR tv1090[ebp]
	mov	DWORD PTR tv910[ebp], eax
	mov	BYTE PTR __$EHRec$[ebp+8], 9
	mov	ecx, DWORD PTR tv910[ebp]
	push	ecx
	lea	ecx, DWORD PTR _strSummary$[ebp]
	call	DWORD PTR __imp_??4String@Localization@@QAEAAV01@ABV01@@Z
	mov	BYTE PTR __$EHRec$[ebp+8], 1
	lea	ecx, DWORD PTR $T235648[ebp]
	call	DWORD PTR __imp_??1String@Localization@@UAE@XZ

; 873  : 		strSummary << strBuildingName;

	lea	edx, DWORD PTR _strBuildingName$221298[ebp]
	push	edx
	lea	eax, DWORD PTR _strSummary$[ebp]
	push	eax
	call	??$?6PBD@@YAAAVString@Localization@@AAV01@ABQBD@Z ; operator<<<char const *>
	add	esp, 8
	jmp	$LN44@DoStartQue
$LN39@DoStartQue:

; 874  : 	}
; 875  : 	// Great Person
; 876  : 	else if(m_eType == MINOR_CIV_QUEST_GREAT_PERSON)

	mov	ecx, DWORD PTR _this$[ebp]
	cmp	DWORD PTR [ecx+8], 4
	jne	$LN37@DoStartQue

; 877  : 	{
; 878  : 		UnitTypes eUnit = pMinor->GetMinorCivAI()->GetBestGreatPersonForQuest(m_eAssignedPlayer);

	mov	edx, DWORD PTR _this$[ebp]
	mov	eax, DWORD PTR [edx+4]
	push	eax
	mov	ecx, DWORD PTR _pMinor$[ebp]
	call	?GetMinorCivAI@CvPlayer@@QBEPAVCvMinorCivAI@@XZ ; CvPlayer::GetMinorCivAI
	mov	ecx, eax
	call	?GetBestGreatPersonForQuest@CvMinorCivAI@@QAE?AW4UnitTypes@@W4PlayerTypes@@@Z ; CvMinorCivAI::GetBestGreatPersonForQuest
	mov	DWORD PTR _eUnit$221305[ebp], eax

; 879  : 
; 880  : 		FAssertMsg(eUnit != NO_UNIT, "MINOR CIV AI: For some reason we got NO_UNIT when starting a quest for a major to find a Great Person. Please send Jon this with your last 5 autosaves and what changelist # you're playing. Bad things are probably going to happen.");
; 881  : 
; 882  : 		m_iData1 = eUnit;

	mov	ecx, DWORD PTR _this$[ebp]
	mov	edx, DWORD PTR _eUnit$221305[ebp]
	mov	DWORD PTR [ecx+16], edx

; 883  : 
; 884  : #ifdef AUI_WARNING_FIXES
; 885  : 		const char* strUnitName;
; 886  : 		CvUnitEntry* pUnitInfo = GC.getUnitInfo(eUnit);
; 887  : 		if (pUnitInfo)
; 888  : 			strUnitName = pUnitInfo->GetDescriptionKey();
; 889  : #else
; 890  : 		const char* strUnitName = GC.getUnitInfo(eUnit)->GetDescriptionKey();

	mov	eax, DWORD PTR _eUnit$221305[ebp]
	push	eax
	mov	ecx, OFFSET ?gGlobals@@3VCvGlobals@@A	; gGlobals
	call	?getUnitInfo@CvGlobals@@QAEPAVCvUnitEntry@@W4UnitTypes@@@Z ; CvGlobals::getUnitInfo
	mov	DWORD PTR $T235768[ebp], eax
	mov	ecx, DWORD PTR $T235768[ebp]
	add	ecx, 64					; 00000040H
	call	DWORD PTR __imp_?c_str@?$basic_string@DU?$char_traits@D@std@@V?$allocator@D@2@@std@@QBEPBDXZ
	mov	DWORD PTR _strUnitName$221306[ebp], eax

; 891  : #endif
; 892  : 
; 893  : 		strMessage = Localization::Lookup("TXT_KEY_NOTIFICATION_QUEST_GREAT_PERSON");

	push	OFFSET ??_C@_0CI@LBILLPCD@TXT_KEY_NOTIFICATION_QUEST_GREAT@
	lea	ecx, DWORD PTR $T235649[ebp]
	push	ecx
	call	DWORD PTR __imp_?Lookup@Localization@@YA?AVString@1@PBD@Z
	add	esp, 8
	mov	DWORD PTR tv1091[ebp], eax
	mov	edx, DWORD PTR tv1091[ebp]
	mov	DWORD PTR tv912[ebp], edx
	mov	BYTE PTR __$EHRec$[ebp+8], 10		; 0000000aH
	mov	eax, DWORD PTR tv912[ebp]
	push	eax
	lea	ecx, DWORD PTR _strMessage$[ebp]
	call	DWORD PTR __imp_??4String@Localization@@QAEAAV01@ABV01@@Z
	mov	BYTE PTR __$EHRec$[ebp+8], 1
	lea	ecx, DWORD PTR $T235649[ebp]
	call	DWORD PTR __imp_??1String@Localization@@UAE@XZ

; 894  : 		strMessage << strUnitName;

	lea	ecx, DWORD PTR _strUnitName$221306[ebp]
	push	ecx
	lea	edx, DWORD PTR _strMessage$[ebp]
	push	edx
	call	??$?6PBD@@YAAAVString@Localization@@AAV01@ABQBD@Z ; operator<<<char const *>
	add	esp, 8

; 895  : 		strSummary = Localization::Lookup("TXT_KEY_NOTIFICATION_SUMMARY_QUEST_GREAT_PERSON");

	push	OFFSET ??_C@_0DA@PEDKNNEN@TXT_KEY_NOTIFICATION_SUMMARY_QUE@
	lea	eax, DWORD PTR $T235650[ebp]
	push	eax
	call	DWORD PTR __imp_?Lookup@Localization@@YA?AVString@1@PBD@Z
	add	esp, 8
	mov	DWORD PTR tv1092[ebp], eax
	mov	ecx, DWORD PTR tv1092[ebp]
	mov	DWORD PTR tv914[ebp], ecx
	mov	BYTE PTR __$EHRec$[ebp+8], 11		; 0000000bH
	mov	edx, DWORD PTR tv914[ebp]
	push	edx
	lea	ecx, DWORD PTR _strSummary$[ebp]
	call	DWORD PTR __imp_??4String@Localization@@QAEAAV01@ABV01@@Z
	mov	BYTE PTR __$EHRec$[ebp+8], 1
	lea	ecx, DWORD PTR $T235650[ebp]
	call	DWORD PTR __imp_??1String@Localization@@UAE@XZ

; 896  : 		strSummary << strUnitName;

	lea	eax, DWORD PTR _strUnitName$221306[ebp]
	push	eax
	lea	ecx, DWORD PTR _strSummary$[ebp]
	push	ecx
	call	??$?6PBD@@YAAAVString@Localization@@AAV01@ABQBD@Z ; operator<<<char const *>
	add	esp, 8
	jmp	$LN44@DoStartQue
$LN37@DoStartQue:

; 897  : 	}
; 898  : 	// Kill another City State
; 899  : 	else if(m_eType == MINOR_CIV_QUEST_KILL_CITY_STATE)

	mov	edx, DWORD PTR _this$[ebp]
	cmp	DWORD PTR [edx+8], 5
	jne	$LN35@DoStartQue

; 900  : 	{
; 901  : 		PlayerTypes eTargetCityState = pMinor->GetMinorCivAI()->GetBestCityStateTarget(m_eAssignedPlayer);

	mov	eax, DWORD PTR _this$[ebp]
	mov	ecx, DWORD PTR [eax+4]
	push	ecx
	mov	ecx, DWORD PTR _pMinor$[ebp]
	call	?GetMinorCivAI@CvPlayer@@QBEPAVCvMinorCivAI@@XZ ; CvPlayer::GetMinorCivAI
	mov	ecx, eax
	call	?GetBestCityStateTarget@CvMinorCivAI@@QAE?AW4PlayerTypes@@W42@@Z ; CvMinorCivAI::GetBestCityStateTarget
	mov	DWORD PTR _eTargetCityState$221313[ebp], eax

; 902  : 
; 903  : 		FAssertMsg(eTargetCityState != NO_PLAYER, "MINOR CIV AI: For some reason we got NO_PLAYER when starting a quest for a major to kill a City State. Please send Jon this with your last 5 autosaves and what changelist # you're playing. Bad things are probably going to happen.");
; 904  : 
; 905  : 		m_iData1 = eTargetCityState;

	mov	edx, DWORD PTR _this$[ebp]
	mov	eax, DWORD PTR _eTargetCityState$221313[ebp]
	mov	DWORD PTR [edx+16], eax

; 906  : 
; 907  : 		const char* strTargetNameKey = GET_PLAYER(eTargetCityState).getNameKey();

	mov	ecx, DWORD PTR _eTargetCityState$221313[ebp]
	imul	ecx, 63236				; 0000f704H
	add	ecx, DWORD PTR ?m_aPlayers@CvPlayerAI@@1PAV1@A ; CvPlayerAI::m_aPlayers
	mov	DWORD PTR $T235772[ebp], ecx
	mov	ecx, DWORD PTR $T235772[ebp]
	call	?getNameKey@CvPlayer@@QBEPBDXZ		; CvPlayer::getNameKey
	mov	DWORD PTR _strTargetNameKey$221314[ebp], eax

; 908  : 
; 909  : 		strMessage = Localization::Lookup("TXT_KEY_NOTIFICATION_QUEST_KILL_CITY_STATE");

	push	OFFSET ??_C@_0CL@EDBBFCBH@TXT_KEY_NOTIFICATION_QUEST_KILL_@
	lea	edx, DWORD PTR $T235651[ebp]
	push	edx
	call	DWORD PTR __imp_?Lookup@Localization@@YA?AVString@1@PBD@Z
	add	esp, 8
	mov	DWORD PTR tv1093[ebp], eax
	mov	eax, DWORD PTR tv1093[ebp]
	mov	DWORD PTR tv916[ebp], eax
	mov	BYTE PTR __$EHRec$[ebp+8], 12		; 0000000cH
	mov	ecx, DWORD PTR tv916[ebp]
	push	ecx
	lea	ecx, DWORD PTR _strMessage$[ebp]
	call	DWORD PTR __imp_??4String@Localization@@QAEAAV01@ABV01@@Z
	mov	BYTE PTR __$EHRec$[ebp+8], 1
	lea	ecx, DWORD PTR $T235651[ebp]
	call	DWORD PTR __imp_??1String@Localization@@UAE@XZ

; 910  : 		strMessage << strTargetNameKey;

	lea	edx, DWORD PTR _strTargetNameKey$221314[ebp]
	push	edx
	lea	eax, DWORD PTR _strMessage$[ebp]
	push	eax
	call	??$?6PBD@@YAAAVString@Localization@@AAV01@ABQBD@Z ; operator<<<char const *>
	add	esp, 8

; 911  : 		strSummary = Localization::Lookup("TXT_KEY_NOTIFICATION_SUMMARY_QUEST_KILL_CITY_STATE");

	push	OFFSET ??_C@_0DD@OKPFDOEH@TXT_KEY_NOTIFICATION_SUMMARY_QUE@
	lea	ecx, DWORD PTR $T235652[ebp]
	push	ecx
	call	DWORD PTR __imp_?Lookup@Localization@@YA?AVString@1@PBD@Z
	add	esp, 8
	mov	DWORD PTR tv1094[ebp], eax
	mov	edx, DWORD PTR tv1094[ebp]
	mov	DWORD PTR tv918[ebp], edx
	mov	BYTE PTR __$EHRec$[ebp+8], 13		; 0000000dH
	mov	eax, DWORD PTR tv918[ebp]
	push	eax
	lea	ecx, DWORD PTR _strSummary$[ebp]
	call	DWORD PTR __imp_??4String@Localization@@QAEAAV01@ABV01@@Z
	mov	BYTE PTR __$EHRec$[ebp+8], 1
	lea	ecx, DWORD PTR $T235652[ebp]
	call	DWORD PTR __imp_??1String@Localization@@UAE@XZ

; 912  : 		strSummary << strTargetNameKey;

	lea	ecx, DWORD PTR _strTargetNameKey$221314[ebp]
	push	ecx
	lea	edx, DWORD PTR _strSummary$[ebp]
	push	edx
	call	??$?6PBD@@YAAAVString@Localization@@AAV01@ABQBD@Z ; operator<<<char const *>
	add	esp, 8
	jmp	$LN44@DoStartQue
$LN35@DoStartQue:

; 913  : 	}
; 914  : 	// Find another player's territory
; 915  : 	else if(m_eType == MINOR_CIV_QUEST_FIND_PLAYER)

	mov	eax, DWORD PTR _this$[ebp]
	cmp	DWORD PTR [eax+8], 6
	jne	$LN33@DoStartQue

; 916  : 	{
; 917  : 		PlayerTypes ePlayerToFind = pMinor->GetMinorCivAI()->GetBestPlayerToFind(m_eAssignedPlayer);

	mov	ecx, DWORD PTR _this$[ebp]
	mov	edx, DWORD PTR [ecx+4]
	push	edx
	mov	ecx, DWORD PTR _pMinor$[ebp]
	call	?GetMinorCivAI@CvPlayer@@QBEPAVCvMinorCivAI@@XZ ; CvPlayer::GetMinorCivAI
	mov	ecx, eax
	call	?GetBestPlayerToFind@CvMinorCivAI@@QAE?AW4PlayerTypes@@W42@@Z ; CvMinorCivAI::GetBestPlayerToFind
	mov	DWORD PTR _ePlayerToFind$221321[ebp], eax

; 918  : 
; 919  : 		FAssertMsg(ePlayerToFind != NO_PLAYER, "MINOR CIV AI: For some reason we got NO_PLAYER when starting a quest for a major to find a player. Please send Jon this with your last 5 autosaves and what changelist # you're playing. Bad things are probably going to happen.");
; 920  : 
; 921  : 		m_iData1 = ePlayerToFind;

	mov	eax, DWORD PTR _this$[ebp]
	mov	ecx, DWORD PTR _ePlayerToFind$221321[ebp]
	mov	DWORD PTR [eax+16], ecx

; 922  : 
; 923  : 		const char* strCivKey = GET_PLAYER(ePlayerToFind).getCivilizationShortDescriptionKey();

	mov	edx, DWORD PTR _ePlayerToFind$221321[ebp]
	imul	edx, 63236				; 0000f704H
	add	edx, DWORD PTR ?m_aPlayers@CvPlayerAI@@1PAV1@A ; CvPlayerAI::m_aPlayers
	mov	DWORD PTR $T235776[ebp], edx
	mov	ecx, DWORD PTR $T235776[ebp]
	call	?getCivilizationShortDescriptionKey@CvPlayer@@QBEPBDXZ ; CvPlayer::getCivilizationShortDescriptionKey
	mov	DWORD PTR _strCivKey$221322[ebp], eax

; 924  : 
; 925  : 		strMessage = Localization::Lookup("TXT_KEY_NOTIFICATION_QUEST_FIND_PLAYER");

	push	OFFSET ??_C@_0CH@KPEHOGLE@TXT_KEY_NOTIFICATION_QUEST_FIND_@
	lea	eax, DWORD PTR $T235653[ebp]
	push	eax
	call	DWORD PTR __imp_?Lookup@Localization@@YA?AVString@1@PBD@Z
	add	esp, 8
	mov	DWORD PTR tv1095[ebp], eax
	mov	ecx, DWORD PTR tv1095[ebp]
	mov	DWORD PTR tv920[ebp], ecx
	mov	BYTE PTR __$EHRec$[ebp+8], 14		; 0000000eH
	mov	edx, DWORD PTR tv920[ebp]
	push	edx
	lea	ecx, DWORD PTR _strMessage$[ebp]
	call	DWORD PTR __imp_??4String@Localization@@QAEAAV01@ABV01@@Z
	mov	BYTE PTR __$EHRec$[ebp+8], 1
	lea	ecx, DWORD PTR $T235653[ebp]
	call	DWORD PTR __imp_??1String@Localization@@UAE@XZ

; 926  : 		strMessage << strCivKey;

	lea	eax, DWORD PTR _strCivKey$221322[ebp]
	push	eax
	lea	ecx, DWORD PTR _strMessage$[ebp]
	push	ecx
	call	??$?6PBD@@YAAAVString@Localization@@AAV01@ABQBD@Z ; operator<<<char const *>
	add	esp, 8

; 927  : 		strSummary = Localization::Lookup("TXT_KEY_NOTIFICATION_SUMMARY_QUEST_FIND_PLAYER");

	push	OFFSET ??_C@_0CP@MBHJPNJJ@TXT_KEY_NOTIFICATION_SUMMARY_QUE@
	lea	edx, DWORD PTR $T235654[ebp]
	push	edx
	call	DWORD PTR __imp_?Lookup@Localization@@YA?AVString@1@PBD@Z
	add	esp, 8
	mov	DWORD PTR tv1096[ebp], eax
	mov	eax, DWORD PTR tv1096[ebp]
	mov	DWORD PTR tv922[ebp], eax
	mov	BYTE PTR __$EHRec$[ebp+8], 15		; 0000000fH
	mov	ecx, DWORD PTR tv922[ebp]
	push	ecx
	lea	ecx, DWORD PTR _strSummary$[ebp]
	call	DWORD PTR __imp_??4String@Localization@@QAEAAV01@ABV01@@Z
	mov	BYTE PTR __$EHRec$[ebp+8], 1
	lea	ecx, DWORD PTR $T235654[ebp]
	call	DWORD PTR __imp_??1String@Localization@@UAE@XZ

; 928  : 		strSummary << strCivKey;

	lea	edx, DWORD PTR _strCivKey$221322[ebp]
	push	edx
	lea	eax, DWORD PTR _strSummary$[ebp]
	push	eax
	call	??$?6PBD@@YAAAVString@Localization@@AAV01@ABQBD@Z ; operator<<<char const *>
	add	esp, 8
	jmp	$LN44@DoStartQue
$LN33@DoStartQue:

; 929  : 	}
; 930  : 	// Find a Natural Wonder
; 931  : 	else if(m_eType == MINOR_CIV_QUEST_FIND_NATURAL_WONDER)

	mov	ecx, DWORD PTR _this$[ebp]
	cmp	DWORD PTR [ecx+8], 7
	jne	$LN31@DoStartQue

; 932  : 	{
; 933  : 		int iNumWondersAlreadyFound = GET_TEAM(pAssignedPlayer->getTeam()).GetNumNaturalWondersDiscovered();

	mov	edx, DWORD PTR _pAssignedPlayer$[ebp]
	mov	eax, DWORD PTR [edx+44]
	push	eax
	call	?teamType@CvPreGame@@YA?AW4TeamTypes@@W4PlayerTypes@@@Z ; CvPreGame::teamType
	add	esp, 4
	mov	DWORD PTR $T235785[ebp], eax
	mov	ecx, DWORD PTR $T235785[ebp]
	imul	ecx, 2984				; 00000ba8H
	add	ecx, DWORD PTR ?m_aTeams@CvTeam@@1PAV1@A ; CvTeam::m_aTeams
	mov	DWORD PTR $T235789[ebp], ecx
	mov	ecx, DWORD PTR $T235789[ebp]
	call	?GetNumNaturalWondersDiscovered@CvTeam@@QBEHXZ ; CvTeam::GetNumNaturalWondersDiscovered
	mov	DWORD PTR _iNumWondersAlreadyFound$221329[ebp], eax

; 934  : 
; 935  : 		m_iData1 = iNumWondersAlreadyFound;

	mov	edx, DWORD PTR _this$[ebp]
	mov	eax, DWORD PTR _iNumWondersAlreadyFound$221329[ebp]
	mov	DWORD PTR [edx+16], eax

; 936  : 
; 937  : 		strMessage = Localization::Lookup("TXT_KEY_NOTIFICATION_QUEST_FIND_NATURAL_WONDER");

	push	OFFSET ??_C@_0CP@IKMOBKCP@TXT_KEY_NOTIFICATION_QUEST_FIND_@
	lea	ecx, DWORD PTR $T235655[ebp]
	push	ecx
	call	DWORD PTR __imp_?Lookup@Localization@@YA?AVString@1@PBD@Z
	add	esp, 8
	mov	DWORD PTR tv1097[ebp], eax
	mov	edx, DWORD PTR tv1097[ebp]
	mov	DWORD PTR tv924[ebp], edx
	mov	BYTE PTR __$EHRec$[ebp+8], 16		; 00000010H
	mov	eax, DWORD PTR tv924[ebp]
	push	eax
	lea	ecx, DWORD PTR _strMessage$[ebp]
	call	DWORD PTR __imp_??4String@Localization@@QAEAAV01@ABV01@@Z
	mov	BYTE PTR __$EHRec$[ebp+8], 1
	lea	ecx, DWORD PTR $T235655[ebp]
	call	DWORD PTR __imp_??1String@Localization@@UAE@XZ

; 938  : 		strSummary = Localization::Lookup("TXT_KEY_NOTIFICATION_SUMMARY_QUEST_FIND_NATURAL_WONDER");

	push	OFFSET ??_C@_0DH@JFBGAKGN@TXT_KEY_NOTIFICATION_SUMMARY_QUE@
	lea	ecx, DWORD PTR $T235656[ebp]
	push	ecx
	call	DWORD PTR __imp_?Lookup@Localization@@YA?AVString@1@PBD@Z
	add	esp, 8
	mov	DWORD PTR tv1098[ebp], eax
	mov	edx, DWORD PTR tv1098[ebp]
	mov	DWORD PTR tv926[ebp], edx
	mov	BYTE PTR __$EHRec$[ebp+8], 17		; 00000011H
	mov	eax, DWORD PTR tv926[ebp]
	push	eax
	lea	ecx, DWORD PTR _strSummary$[ebp]
	call	DWORD PTR __imp_??4String@Localization@@QAEAAV01@ABV01@@Z
	mov	BYTE PTR __$EHRec$[ebp+8], 1
	lea	ecx, DWORD PTR $T235656[ebp]
	call	DWORD PTR __imp_??1String@Localization@@UAE@XZ
	jmp	$LN44@DoStartQue
$LN31@DoStartQue:

; 939  : 	}
; 940  : 	// Give a gift of gold
; 941  : 	else if(m_eType == MINOR_CIV_QUEST_GIVE_GOLD)

	mov	ecx, DWORD PTR _this$[ebp]
	cmp	DWORD PTR [ecx+8], 8
	jne	$LN29@DoStartQue

; 942  : 	{
; 943  : 		PlayerTypes eMostRecentBully = pMinor->GetMinorCivAI()->GetMostRecentBullyForQuest();

	mov	ecx, DWORD PTR _pMinor$[ebp]
	call	?GetMinorCivAI@CvPlayer@@QBEPAVCvMinorCivAI@@XZ ; CvPlayer::GetMinorCivAI
	mov	ecx, eax
	call	?GetMostRecentBullyForQuest@CvMinorCivAI@@QBE?AW4PlayerTypes@@XZ ; CvMinorCivAI::GetMostRecentBullyForQuest
	mov	DWORD PTR _eMostRecentBully$221336[ebp], eax

; 944  : 		int iGoldAlreadyGiven = pMinor->GetMinorCivAI()->GetNumGoldGifted(m_eAssignedPlayer);

	mov	edx, DWORD PTR _this$[ebp]
	mov	eax, DWORD PTR [edx+4]
	push	eax
	mov	ecx, DWORD PTR _pMinor$[ebp]
	call	?GetMinorCivAI@CvPlayer@@QBEPAVCvMinorCivAI@@XZ ; CvPlayer::GetMinorCivAI
	mov	ecx, eax
	call	?GetNumGoldGifted@CvMinorCivAI@@QBEHW4PlayerTypes@@@Z ; CvMinorCivAI::GetNumGoldGifted
	mov	DWORD PTR _iGoldAlreadyGiven$221337[ebp], eax

; 945  : 
; 946  : 		CvAssertMsg(eMostRecentBully != NO_PLAYER, "MINOR CIV AI: eMostRecentBully should not be NO_PLAYER when giving a Give Gold quest! Please send Anton your save file and version.");
; 947  : 
; 948  : 		m_iData1 = eMostRecentBully;

	mov	ecx, DWORD PTR _this$[ebp]
	mov	edx, DWORD PTR _eMostRecentBully$221336[ebp]
	mov	DWORD PTR [ecx+16], edx

; 949  : 		m_iData2 = iGoldAlreadyGiven;

	mov	eax, DWORD PTR _this$[ebp]
	mov	ecx, DWORD PTR _iGoldAlreadyGiven$221337[ebp]
	mov	DWORD PTR [eax+20], ecx

; 950  : 
; 951  : 		strMessage = Localization::Lookup("TXT_KEY_NOTIFICATION_QUEST_GIVE_GOLD");

	push	OFFSET ??_C@_0CF@JIAFBFAK@TXT_KEY_NOTIFICATION_QUEST_GIVE_@
	lea	edx, DWORD PTR $T235657[ebp]
	push	edx
	call	DWORD PTR __imp_?Lookup@Localization@@YA?AVString@1@PBD@Z
	add	esp, 8
	mov	DWORD PTR tv1099[ebp], eax
	mov	eax, DWORD PTR tv1099[ebp]
	mov	DWORD PTR tv928[ebp], eax
	mov	BYTE PTR __$EHRec$[ebp+8], 18		; 00000012H
	mov	ecx, DWORD PTR tv928[ebp]
	push	ecx
	lea	ecx, DWORD PTR _strMessage$[ebp]
	call	DWORD PTR __imp_??4String@Localization@@QAEAAV01@ABV01@@Z
	mov	BYTE PTR __$EHRec$[ebp+8], 1
	lea	ecx, DWORD PTR $T235657[ebp]
	call	DWORD PTR __imp_??1String@Localization@@UAE@XZ

; 952  : 		strSummary = Localization::Lookup("TXT_KEY_NOTIFICATION_SUMMARY_QUEST_GIVE_GOLD");

	push	OFFSET ??_C@_0CN@IAOJKNLN@TXT_KEY_NOTIFICATION_SUMMARY_QUE@
	lea	edx, DWORD PTR $T235658[ebp]
	push	edx
	call	DWORD PTR __imp_?Lookup@Localization@@YA?AVString@1@PBD@Z
	add	esp, 8
	mov	DWORD PTR tv1100[ebp], eax
	mov	eax, DWORD PTR tv1100[ebp]
	mov	DWORD PTR tv930[ebp], eax
	mov	BYTE PTR __$EHRec$[ebp+8], 19		; 00000013H
	mov	ecx, DWORD PTR tv930[ebp]
	push	ecx
	lea	ecx, DWORD PTR _strSummary$[ebp]
	call	DWORD PTR __imp_??4String@Localization@@QAEAAV01@ABV01@@Z
	mov	BYTE PTR __$EHRec$[ebp+8], 1
	lea	ecx, DWORD PTR $T235658[ebp]
	call	DWORD PTR __imp_??1String@Localization@@UAE@XZ

; 953  : 
; 954  : 		if(eMostRecentBully != NO_PLAYER)

	cmp	DWORD PTR _eMostRecentBully$221336[ebp], -1
	je	SHORT $LN28@DoStartQue

; 955  : 		{
; 956  : 			const char* strCivKey = GET_PLAYER(eMostRecentBully).getCivilizationShortDescriptionKey();

	mov	edx, DWORD PTR _eMostRecentBully$221336[ebp]
	imul	edx, 63236				; 0000f704H
	add	edx, DWORD PTR ?m_aPlayers@CvPlayerAI@@1PAV1@A ; CvPlayerAI::m_aPlayers
	mov	DWORD PTR $T235793[ebp], edx
	mov	ecx, DWORD PTR $T235793[ebp]
	call	?getCivilizationShortDescriptionKey@CvPlayer@@QBEPBDXZ ; CvPlayer::getCivilizationShortDescriptionKey
	mov	DWORD PTR _strCivKey$221343[ebp], eax

; 957  : 			strMessage << strCivKey;

	lea	eax, DWORD PTR _strCivKey$221343[ebp]
	push	eax
	lea	ecx, DWORD PTR _strMessage$[ebp]
	push	ecx
	call	??$?6PBD@@YAAAVString@Localization@@AAV01@ABQBD@Z ; operator<<<char const *>
	add	esp, 8

; 958  : 		}
; 959  : 		else

	jmp	SHORT $LN27@DoStartQue
$LN28@DoStartQue:

; 960  : 		{
; 961  : 			const char* strCivKey = "Nobody";

	mov	DWORD PTR _strCivKey$221345[ebp], OFFSET ??_C@_06LOJBPBBB@Nobody?$AA@

; 962  : 			strMessage << strCivKey;

	lea	edx, DWORD PTR _strCivKey$221345[ebp]
	push	edx
	lea	eax, DWORD PTR _strMessage$[ebp]
	push	eax
	call	??$?6PBD@@YAAAVString@Localization@@AAV01@ABQBD@Z ; operator<<<char const *>
	add	esp, 8
$LN27@DoStartQue:

; 963  : 		}

	jmp	$LN44@DoStartQue
$LN29@DoStartQue:

; 964  : 	}
; 965  : 	// Pledge to protect them
; 966  : 	else if(m_eType == MINOR_CIV_QUEST_PLEDGE_TO_PROTECT)

	mov	ecx, DWORD PTR _this$[ebp]
	cmp	DWORD PTR [ecx+8], 9
	jne	$LN25@DoStartQue

; 967  : 	{
; 968  : 		PlayerTypes eMostRecentBully = pMinor->GetMinorCivAI()->GetMostRecentBullyForQuest();

	mov	ecx, DWORD PTR _pMinor$[ebp]
	call	?GetMinorCivAI@CvPlayer@@QBEPAVCvMinorCivAI@@XZ ; CvPlayer::GetMinorCivAI
	mov	ecx, eax
	call	?GetMostRecentBullyForQuest@CvMinorCivAI@@QBE?AW4PlayerTypes@@XZ ; CvMinorCivAI::GetMostRecentBullyForQuest
	mov	DWORD PTR _eMostRecentBully$221349[ebp], eax

; 969  : 
; 970  : 		CvAssertMsg(eMostRecentBully != NO_PLAYER, "MINOR CIV AI: eMostRecentBully should not be NO_PLAYER when giving a Pledge to Protect quest! Please send Anton your save file and version.");
; 971  : 
; 972  : 		m_iData1 = eMostRecentBully;

	mov	edx, DWORD PTR _this$[ebp]
	mov	eax, DWORD PTR _eMostRecentBully$221349[ebp]
	mov	DWORD PTR [edx+16], eax

; 973  : 
; 974  : 		strMessage = Localization::Lookup("TXT_KEY_NOTIFICATION_QUEST_PLEDGE_TO_PROTECT");

	push	OFFSET ??_C@_0CN@PCALEKKI@TXT_KEY_NOTIFICATION_QUEST_PLEDG@
	lea	ecx, DWORD PTR $T235659[ebp]
	push	ecx
	call	DWORD PTR __imp_?Lookup@Localization@@YA?AVString@1@PBD@Z
	add	esp, 8
	mov	DWORD PTR tv1101[ebp], eax
	mov	edx, DWORD PTR tv1101[ebp]
	mov	DWORD PTR tv932[ebp], edx
	mov	BYTE PTR __$EHRec$[ebp+8], 20		; 00000014H
	mov	eax, DWORD PTR tv932[ebp]
	push	eax
	lea	ecx, DWORD PTR _strMessage$[ebp]
	call	DWORD PTR __imp_??4String@Localization@@QAEAAV01@ABV01@@Z
	mov	BYTE PTR __$EHRec$[ebp+8], 1
	lea	ecx, DWORD PTR $T235659[ebp]
	call	DWORD PTR __imp_??1String@Localization@@UAE@XZ

; 975  : 		strSummary = Localization::Lookup("TXT_KEY_NOTIFICATION_SUMMARY_QUEST_PLEDGE_TO_PROTECT");

	push	OFFSET ??_C@_0DF@MLEJDGL@TXT_KEY_NOTIFICATION_SUMMARY_QUE@
	lea	ecx, DWORD PTR $T235660[ebp]
	push	ecx
	call	DWORD PTR __imp_?Lookup@Localization@@YA?AVString@1@PBD@Z
	add	esp, 8
	mov	DWORD PTR tv1102[ebp], eax
	mov	edx, DWORD PTR tv1102[ebp]
	mov	DWORD PTR tv934[ebp], edx
	mov	BYTE PTR __$EHRec$[ebp+8], 21		; 00000015H
	mov	eax, DWORD PTR tv934[ebp]
	push	eax
	lea	ecx, DWORD PTR _strSummary$[ebp]
	call	DWORD PTR __imp_??4String@Localization@@QAEAAV01@ABV01@@Z
	mov	BYTE PTR __$EHRec$[ebp+8], 1
	lea	ecx, DWORD PTR $T235660[ebp]
	call	DWORD PTR __imp_??1String@Localization@@UAE@XZ

; 976  : 
; 977  : 		if(eMostRecentBully != NO_PLAYER)

	cmp	DWORD PTR _eMostRecentBully$221349[ebp], -1
	je	SHORT $LN24@DoStartQue

; 978  : 		{
; 979  : 			const char* strCivKey = GET_PLAYER(eMostRecentBully).getCivilizationShortDescriptionKey();

	mov	ecx, DWORD PTR _eMostRecentBully$221349[ebp]
	imul	ecx, 63236				; 0000f704H
	add	ecx, DWORD PTR ?m_aPlayers@CvPlayerAI@@1PAV1@A ; CvPlayerAI::m_aPlayers
	mov	DWORD PTR $T235797[ebp], ecx
	mov	ecx, DWORD PTR $T235797[ebp]
	call	?getCivilizationShortDescriptionKey@CvPlayer@@QBEPBDXZ ; CvPlayer::getCivilizationShortDescriptionKey
	mov	DWORD PTR _strCivKey$221355[ebp], eax

; 980  : 			strMessage << strCivKey;

	lea	edx, DWORD PTR _strCivKey$221355[ebp]
	push	edx
	lea	eax, DWORD PTR _strMessage$[ebp]
	push	eax
	call	??$?6PBD@@YAAAVString@Localization@@AAV01@ABQBD@Z ; operator<<<char const *>
	add	esp, 8

; 981  : 		}
; 982  : 		else

	jmp	SHORT $LN23@DoStartQue
$LN24@DoStartQue:

; 983  : 		{
; 984  : 			const char* strCivKey = "Nobody";

	mov	DWORD PTR _strCivKey$221357[ebp], OFFSET ??_C@_06LOJBPBBB@Nobody?$AA@

; 985  : 			strMessage << strCivKey;

	lea	ecx, DWORD PTR _strCivKey$221357[ebp]
	push	ecx
	lea	edx, DWORD PTR _strMessage$[ebp]
	push	edx
	call	??$?6PBD@@YAAAVString@Localization@@AAV01@ABQBD@Z ; operator<<<char const *>
	add	esp, 8
$LN23@DoStartQue:

; 986  : 		}

	jmp	$LN44@DoStartQue
$LN25@DoStartQue:

; 987  : 	}
; 988  : 	// Culture contest
; 989  : 	else if(m_eType == MINOR_CIV_QUEST_CONTEST_CULTURE)

	mov	eax, DWORD PTR _this$[ebp]
	cmp	DWORD PTR [eax+8], 10			; 0000000aH
	jne	$LN21@DoStartQue

; 990  : 	{
; 991  : 		int iStartingCulture = pAssignedPlayer->GetJONSCultureEverGenerated();

	mov	ecx, DWORD PTR _pAssignedPlayer$[ebp]
	call	?GetJONSCultureEverGenerated@CvPlayer@@QBEHXZ ; CvPlayer::GetJONSCultureEverGenerated
	mov	DWORD PTR _iStartingCulture$221360[ebp], eax

; 992  : 
; 993  : 		m_iData1 = iStartingCulture;

	mov	ecx, DWORD PTR _this$[ebp]
	mov	edx, DWORD PTR _iStartingCulture$221360[ebp]
	mov	DWORD PTR [ecx+16], edx

; 994  : 
; 995  : 		int iTurnsRemaining = GetEndTurn() - GC.getGame().getGameTurn();

	mov	eax, DWORD PTR ?gGlobals@@3VCvGlobals@@A+48
	mov	DWORD PTR $T235801[ebp], eax
	mov	ecx, DWORD PTR _this$[ebp]
	call	?GetEndTurn@CvMinorCivQuest@@QBEHXZ	; CvMinorCivQuest::GetEndTurn
	mov	esi, eax
	mov	ecx, DWORD PTR $T235801[ebp]
	call	?getGameTurn@CvGame@@QAEHXZ		; CvGame::getGameTurn
	sub	esi, eax
	mov	DWORD PTR _iTurnsRemaining$221361[ebp], esi

; 996  : 		int iTurnsDuration = GetEndTurn() - GetStartTurn();

	mov	ecx, DWORD PTR _this$[ebp]
	call	?GetEndTurn@CvMinorCivQuest@@QBEHXZ	; CvMinorCivQuest::GetEndTurn
	mov	esi, eax
	mov	ecx, DWORD PTR _this$[ebp]
	call	?GetStartTurn@CvMinorCivQuest@@QBEHXZ	; CvMinorCivQuest::GetStartTurn
	sub	esi, eax
	mov	DWORD PTR _iTurnsDuration$221362[ebp], esi

; 997  : 
; 998  : 		strMessage = Localization::Lookup("TXT_KEY_NOTIFICATION_QUEST_CONTEST_CULTURE");

	push	OFFSET ??_C@_0CL@GFDDIDPK@TXT_KEY_NOTIFICATION_QUEST_CONTE@
	lea	ecx, DWORD PTR $T235661[ebp]
	push	ecx
	call	DWORD PTR __imp_?Lookup@Localization@@YA?AVString@1@PBD@Z
	add	esp, 8
	mov	DWORD PTR tv1103[ebp], eax
	mov	edx, DWORD PTR tv1103[ebp]
	mov	DWORD PTR tv936[ebp], edx
	mov	BYTE PTR __$EHRec$[ebp+8], 22		; 00000016H
	mov	eax, DWORD PTR tv936[ebp]
	push	eax
	lea	ecx, DWORD PTR _strMessage$[ebp]
	call	DWORD PTR __imp_??4String@Localization@@QAEAAV01@ABV01@@Z
	mov	BYTE PTR __$EHRec$[ebp+8], 1
	lea	ecx, DWORD PTR $T235661[ebp]
	call	DWORD PTR __imp_??1String@Localization@@UAE@XZ

; 999  : 		strMessage << iTurnsRemaining;

	lea	ecx, DWORD PTR _iTurnsRemaining$221361[ebp]
	push	ecx
	lea	edx, DWORD PTR _strMessage$[ebp]
	push	edx
	call	??$?6H@@YAAAVString@Localization@@AAV01@ABH@Z ; operator<<<int>
	add	esp, 8

; 1000 : 		strMessage << iTurnsDuration;

	lea	eax, DWORD PTR _iTurnsDuration$221362[ebp]
	push	eax
	lea	ecx, DWORD PTR _strMessage$[ebp]
	push	ecx
	call	??$?6H@@YAAAVString@Localization@@AAV01@ABH@Z ; operator<<<int>
	add	esp, 8

; 1001 : 		strSummary = Localization::Lookup("TXT_KEY_NOTIFICATION_SUMMARY_QUEST_CONTEST_CULTURE");

	push	OFFSET ??_C@_0DD@MMNHOPKK@TXT_KEY_NOTIFICATION_SUMMARY_QUE@
	lea	edx, DWORD PTR $T235662[ebp]
	push	edx
	call	DWORD PTR __imp_?Lookup@Localization@@YA?AVString@1@PBD@Z
	add	esp, 8
	mov	DWORD PTR tv1104[ebp], eax
	mov	eax, DWORD PTR tv1104[ebp]
	mov	DWORD PTR tv938[ebp], eax
	mov	BYTE PTR __$EHRec$[ebp+8], 23		; 00000017H
	mov	ecx, DWORD PTR tv938[ebp]
	push	ecx
	lea	ecx, DWORD PTR _strSummary$[ebp]
	call	DWORD PTR __imp_??4String@Localization@@QAEAAV01@ABV01@@Z
	mov	BYTE PTR __$EHRec$[ebp+8], 1
	lea	ecx, DWORD PTR $T235662[ebp]
	call	DWORD PTR __imp_??1String@Localization@@UAE@XZ
	jmp	$LN44@DoStartQue
$LN21@DoStartQue:

; 1002 : 	}
; 1003 : 	// Faith contest
; 1004 : 	else if(m_eType == MINOR_CIV_QUEST_CONTEST_FAITH)

	mov	edx, DWORD PTR _this$[ebp]
	cmp	DWORD PTR [edx+8], 11			; 0000000bH
	jne	$LN19@DoStartQue

; 1005 : 	{
; 1006 : 		int iStartingFaith = pAssignedPlayer->GetFaithEverGenerated();

	mov	ecx, DWORD PTR _pAssignedPlayer$[ebp]
	call	?GetFaithEverGenerated@CvPlayer@@QBEHXZ	; CvPlayer::GetFaithEverGenerated
	mov	DWORD PTR _iStartingFaith$221369[ebp], eax

; 1007 : 
; 1008 : 		m_iData1 = iStartingFaith;

	mov	eax, DWORD PTR _this$[ebp]
	mov	ecx, DWORD PTR _iStartingFaith$221369[ebp]
	mov	DWORD PTR [eax+16], ecx

; 1009 : 
; 1010 : 		int iTurnsRemaining = GetEndTurn() - GC.getGame().getGameTurn();

	mov	edx, DWORD PTR ?gGlobals@@3VCvGlobals@@A+48
	mov	DWORD PTR $T235805[ebp], edx
	mov	ecx, DWORD PTR _this$[ebp]
	call	?GetEndTurn@CvMinorCivQuest@@QBEHXZ	; CvMinorCivQuest::GetEndTurn
	mov	esi, eax
	mov	ecx, DWORD PTR $T235805[ebp]
	call	?getGameTurn@CvGame@@QAEHXZ		; CvGame::getGameTurn
	sub	esi, eax
	mov	DWORD PTR _iTurnsRemaining$221370[ebp], esi

; 1011 : 		int iTurnsDuration = GetEndTurn() - GetStartTurn();

	mov	ecx, DWORD PTR _this$[ebp]
	call	?GetEndTurn@CvMinorCivQuest@@QBEHXZ	; CvMinorCivQuest::GetEndTurn
	mov	esi, eax
	mov	ecx, DWORD PTR _this$[ebp]
	call	?GetStartTurn@CvMinorCivQuest@@QBEHXZ	; CvMinorCivQuest::GetStartTurn
	sub	esi, eax
	mov	DWORD PTR _iTurnsDuration$221371[ebp], esi

; 1012 : 
; 1013 : 		strMessage = Localization::Lookup("TXT_KEY_NOTIFICATION_QUEST_CONTEST_FAITH");

	push	OFFSET ??_C@_0CJ@BMDJDFF@TXT_KEY_NOTIFICATION_QUEST_CONTE@
	lea	eax, DWORD PTR $T235663[ebp]
	push	eax
	call	DWORD PTR __imp_?Lookup@Localization@@YA?AVString@1@PBD@Z
	add	esp, 8
	mov	DWORD PTR tv1105[ebp], eax
	mov	ecx, DWORD PTR tv1105[ebp]
	mov	DWORD PTR tv940[ebp], ecx
	mov	BYTE PTR __$EHRec$[ebp+8], 24		; 00000018H
	mov	edx, DWORD PTR tv940[ebp]
	push	edx
	lea	ecx, DWORD PTR _strMessage$[ebp]
	call	DWORD PTR __imp_??4String@Localization@@QAEAAV01@ABV01@@Z
	mov	BYTE PTR __$EHRec$[ebp+8], 1
	lea	ecx, DWORD PTR $T235663[ebp]
	call	DWORD PTR __imp_??1String@Localization@@UAE@XZ

; 1014 : 		strMessage << iTurnsRemaining;

	lea	eax, DWORD PTR _iTurnsRemaining$221370[ebp]
	push	eax
	lea	ecx, DWORD PTR _strMessage$[ebp]
	push	ecx
	call	??$?6H@@YAAAVString@Localization@@AAV01@ABH@Z ; operator<<<int>
	add	esp, 8

; 1015 : 		strMessage << iTurnsDuration;

	lea	edx, DWORD PTR _iTurnsDuration$221371[ebp]
	push	edx
	lea	eax, DWORD PTR _strMessage$[ebp]
	push	eax
	call	??$?6H@@YAAAVString@Localization@@AAV01@ABH@Z ; operator<<<int>
	add	esp, 8

; 1016 : 		strSummary = Localization::Lookup("TXT_KEY_NOTIFICATION_SUMMARY_QUEST_CONTEST_FAITH");

	push	OFFSET ??_C@_0DB@KLIMGOGI@TXT_KEY_NOTIFICATION_SUMMARY_QUE@
	lea	ecx, DWORD PTR $T235664[ebp]
	push	ecx
	call	DWORD PTR __imp_?Lookup@Localization@@YA?AVString@1@PBD@Z
	add	esp, 8
	mov	DWORD PTR tv1106[ebp], eax
	mov	edx, DWORD PTR tv1106[ebp]
	mov	DWORD PTR tv942[ebp], edx
	mov	BYTE PTR __$EHRec$[ebp+8], 25		; 00000019H
	mov	eax, DWORD PTR tv942[ebp]
	push	eax
	lea	ecx, DWORD PTR _strSummary$[ebp]
	call	DWORD PTR __imp_??4String@Localization@@QAEAAV01@ABV01@@Z
	mov	BYTE PTR __$EHRec$[ebp+8], 1
	lea	ecx, DWORD PTR $T235664[ebp]
	call	DWORD PTR __imp_??1String@Localization@@UAE@XZ
	jmp	$LN44@DoStartQue
$LN19@DoStartQue:

; 1017 : 	}
; 1018 : 	// Techs contest
; 1019 : 	else if(m_eType == MINOR_CIV_QUEST_CONTEST_TECHS)

	mov	ecx, DWORD PTR _this$[ebp]
	cmp	DWORD PTR [ecx+8], 12			; 0000000cH
	jne	$LN17@DoStartQue

; 1020 : 	{
; 1021 : 		int iStartingTechs = GET_TEAM(pAssignedPlayer->getTeam()).GetTeamTechs()->GetNumTechsKnown();

	mov	edx, DWORD PTR _pAssignedPlayer$[ebp]
	mov	eax, DWORD PTR [edx+44]
	push	eax
	call	?teamType@CvPreGame@@YA?AW4TeamTypes@@W4PlayerTypes@@@Z ; CvPreGame::teamType
	add	esp, 4
	mov	DWORD PTR $T235814[ebp], eax
	mov	ecx, DWORD PTR $T235814[ebp]
	imul	ecx, 2984				; 00000ba8H
	add	ecx, DWORD PTR ?m_aTeams@CvTeam@@1PAV1@A ; CvTeam::m_aTeams
	mov	DWORD PTR $T235818[ebp], ecx
	mov	ecx, DWORD PTR $T235818[ebp]
	call	?GetTeamTechs@CvTeam@@QBEPAVCvTeamTechs@@XZ ; CvTeam::GetTeamTechs
	mov	ecx, eax
	call	?GetNumTechsKnown@CvTeamTechs@@QBEHXZ	; CvTeamTechs::GetNumTechsKnown
	mov	DWORD PTR _iStartingTechs$221378[ebp], eax

; 1022 : 
; 1023 : 		m_iData1 = iStartingTechs;

	mov	edx, DWORD PTR _this$[ebp]
	mov	eax, DWORD PTR _iStartingTechs$221378[ebp]
	mov	DWORD PTR [edx+16], eax

; 1024 : 
; 1025 : 		int iTurnsRemaining = GetEndTurn() - GC.getGame().getGameTurn();

	mov	ecx, DWORD PTR ?gGlobals@@3VCvGlobals@@A+48
	mov	DWORD PTR $T235822[ebp], ecx
	mov	ecx, DWORD PTR _this$[ebp]
	call	?GetEndTurn@CvMinorCivQuest@@QBEHXZ	; CvMinorCivQuest::GetEndTurn
	mov	esi, eax
	mov	ecx, DWORD PTR $T235822[ebp]
	call	?getGameTurn@CvGame@@QAEHXZ		; CvGame::getGameTurn
	sub	esi, eax
	mov	DWORD PTR _iTurnsRemaining$221379[ebp], esi

; 1026 : 		int iTurnsDuration = GetEndTurn() - GetStartTurn();

	mov	ecx, DWORD PTR _this$[ebp]
	call	?GetEndTurn@CvMinorCivQuest@@QBEHXZ	; CvMinorCivQuest::GetEndTurn
	mov	esi, eax
	mov	ecx, DWORD PTR _this$[ebp]
	call	?GetStartTurn@CvMinorCivQuest@@QBEHXZ	; CvMinorCivQuest::GetStartTurn
	sub	esi, eax
	mov	DWORD PTR _iTurnsDuration$221380[ebp], esi

; 1027 : 
; 1028 : 		strMessage = Localization::Lookup("TXT_KEY_NOTIFICATION_QUEST_CONTEST_TECHS");

	push	OFFSET ??_C@_0CJ@GJOKOHOP@TXT_KEY_NOTIFICATION_QUEST_CONTE@
	lea	edx, DWORD PTR $T235665[ebp]
	push	edx
	call	DWORD PTR __imp_?Lookup@Localization@@YA?AVString@1@PBD@Z
	add	esp, 8
	mov	DWORD PTR tv1107[ebp], eax
	mov	eax, DWORD PTR tv1107[ebp]
	mov	DWORD PTR tv944[ebp], eax
	mov	BYTE PTR __$EHRec$[ebp+8], 26		; 0000001aH
	mov	ecx, DWORD PTR tv944[ebp]
	push	ecx
	lea	ecx, DWORD PTR _strMessage$[ebp]
	call	DWORD PTR __imp_??4String@Localization@@QAEAAV01@ABV01@@Z
	mov	BYTE PTR __$EHRec$[ebp+8], 1
	lea	ecx, DWORD PTR $T235665[ebp]
	call	DWORD PTR __imp_??1String@Localization@@UAE@XZ

; 1029 : 		strMessage << iTurnsRemaining;

	lea	edx, DWORD PTR _iTurnsRemaining$221379[ebp]
	push	edx
	lea	eax, DWORD PTR _strMessage$[ebp]
	push	eax
	call	??$?6H@@YAAAVString@Localization@@AAV01@ABH@Z ; operator<<<int>
	add	esp, 8

; 1030 : 		strMessage << iTurnsDuration;

	lea	ecx, DWORD PTR _iTurnsDuration$221380[ebp]
	push	ecx
	lea	edx, DWORD PTR _strMessage$[ebp]
	push	edx
	call	??$?6H@@YAAAVString@Localization@@AAV01@ABH@Z ; operator<<<int>
	add	esp, 8

; 1031 : 		strSummary = Localization::Lookup("TXT_KEY_NOTIFICATION_SUMMARY_QUEST_CONTEST_TECHS");

	push	OFFSET ??_C@_0DB@MDKFBKNC@TXT_KEY_NOTIFICATION_SUMMARY_QUE@
	lea	eax, DWORD PTR $T235666[ebp]
	push	eax
	call	DWORD PTR __imp_?Lookup@Localization@@YA?AVString@1@PBD@Z
	add	esp, 8
	mov	DWORD PTR tv1108[ebp], eax
	mov	ecx, DWORD PTR tv1108[ebp]
	mov	DWORD PTR tv946[ebp], ecx
	mov	BYTE PTR __$EHRec$[ebp+8], 27		; 0000001bH
	mov	edx, DWORD PTR tv946[ebp]
	push	edx
	lea	ecx, DWORD PTR _strSummary$[ebp]
	call	DWORD PTR __imp_??4String@Localization@@QAEAAV01@ABV01@@Z
	mov	BYTE PTR __$EHRec$[ebp+8], 1
	lea	ecx, DWORD PTR $T235666[ebp]
	call	DWORD PTR __imp_??1String@Localization@@UAE@XZ
	jmp	$LN44@DoStartQue
$LN17@DoStartQue:

; 1032 : 	}
; 1033 : 	// Invest
; 1034 : 	else if(m_eType == MINOR_CIV_QUEST_INVEST)

	mov	eax, DWORD PTR _this$[ebp]
	cmp	DWORD PTR [eax+8], 13			; 0000000dH
	jne	$LN15@DoStartQue

; 1035 : 	{
; 1036 : 		int iGoldAlreadyGiven = pMinor->GetMinorCivAI()->GetNumGoldGifted(m_eAssignedPlayer);

	mov	ecx, DWORD PTR _this$[ebp]
	mov	edx, DWORD PTR [ecx+4]
	push	edx
	mov	ecx, DWORD PTR _pMinor$[ebp]
	call	?GetMinorCivAI@CvPlayer@@QBEPAVCvMinorCivAI@@XZ ; CvPlayer::GetMinorCivAI
	mov	ecx, eax
	call	?GetNumGoldGifted@CvMinorCivAI@@QBEHW4PlayerTypes@@@Z ; CvMinorCivAI::GetNumGoldGifted
	mov	DWORD PTR _iGoldAlreadyGiven$221387[ebp], eax

; 1037 : 
; 1038 : 		m_iData1 = iGoldAlreadyGiven;

	mov	eax, DWORD PTR _this$[ebp]
	mov	ecx, DWORD PTR _iGoldAlreadyGiven$221387[ebp]
	mov	DWORD PTR [eax+16], ecx

; 1039 : 
; 1040 : 		int iTurnsRemaining = GetEndTurn() - GC.getGame().getGameTurn();

	mov	edx, DWORD PTR ?gGlobals@@3VCvGlobals@@A+48
	mov	DWORD PTR $T235826[ebp], edx
	mov	ecx, DWORD PTR _this$[ebp]
	call	?GetEndTurn@CvMinorCivQuest@@QBEHXZ	; CvMinorCivQuest::GetEndTurn
	mov	esi, eax
	mov	ecx, DWORD PTR $T235826[ebp]
	call	?getGameTurn@CvGame@@QAEHXZ		; CvGame::getGameTurn
	sub	esi, eax
	mov	DWORD PTR _iTurnsRemaining$221388[ebp], esi

; 1041 : 		int iBoostPercentage = 50;//antonjs: todo: XML

	mov	DWORD PTR _iBoostPercentage$221389[ebp], 50 ; 00000032H

; 1042 : 
; 1043 : 		strMessage = Localization::Lookup("TXT_KEY_NOTIFICATION_QUEST_INVEST");

	push	OFFSET ??_C@_0CC@HPMCMOPM@TXT_KEY_NOTIFICATION_QUEST_INVES@
	lea	eax, DWORD PTR $T235667[ebp]
	push	eax
	call	DWORD PTR __imp_?Lookup@Localization@@YA?AVString@1@PBD@Z
	add	esp, 8
	mov	DWORD PTR tv1109[ebp], eax
	mov	ecx, DWORD PTR tv1109[ebp]
	mov	DWORD PTR tv948[ebp], ecx
	mov	BYTE PTR __$EHRec$[ebp+8], 28		; 0000001cH
	mov	edx, DWORD PTR tv948[ebp]
	push	edx
	lea	ecx, DWORD PTR _strMessage$[ebp]
	call	DWORD PTR __imp_??4String@Localization@@QAEAAV01@ABV01@@Z
	mov	BYTE PTR __$EHRec$[ebp+8], 1
	lea	ecx, DWORD PTR $T235667[ebp]
	call	DWORD PTR __imp_??1String@Localization@@UAE@XZ

; 1044 : 		strMessage << iTurnsRemaining;

	lea	eax, DWORD PTR _iTurnsRemaining$221388[ebp]
	push	eax
	lea	ecx, DWORD PTR _strMessage$[ebp]
	push	ecx
	call	??$?6H@@YAAAVString@Localization@@AAV01@ABH@Z ; operator<<<int>
	add	esp, 8

; 1045 : 		strMessage << iBoostPercentage;

	lea	edx, DWORD PTR _iBoostPercentage$221389[ebp]
	push	edx
	lea	eax, DWORD PTR _strMessage$[ebp]
	push	eax
	call	??$?6H@@YAAAVString@Localization@@AAV01@ABH@Z ; operator<<<int>
	add	esp, 8

; 1046 : 		strSummary = Localization::Lookup("TXT_KEY_NOTIFICATION_SUMMARY_QUEST_INVEST");

	push	OFFSET ??_C@_0CK@KFPMMEMI@TXT_KEY_NOTIFICATION_SUMMARY_QUE@
	lea	ecx, DWORD PTR $T235668[ebp]
	push	ecx
	call	DWORD PTR __imp_?Lookup@Localization@@YA?AVString@1@PBD@Z
	add	esp, 8
	mov	DWORD PTR tv1110[ebp], eax
	mov	edx, DWORD PTR tv1110[ebp]
	mov	DWORD PTR tv950[ebp], edx
	mov	BYTE PTR __$EHRec$[ebp+8], 29		; 0000001dH
	mov	eax, DWORD PTR tv950[ebp]
	push	eax
	lea	ecx, DWORD PTR _strSummary$[ebp]
	call	DWORD PTR __imp_??4String@Localization@@QAEAAV01@ABV01@@Z
	mov	BYTE PTR __$EHRec$[ebp+8], 1
	lea	ecx, DWORD PTR $T235668[ebp]
	call	DWORD PTR __imp_??1String@Localization@@UAE@XZ
	jmp	$LN44@DoStartQue
$LN15@DoStartQue:

; 1047 : 	}
; 1048 : 	// Bully target City-State
; 1049 : 	else if(m_eType == MINOR_CIV_QUEST_BULLY_CITY_STATE)

	mov	ecx, DWORD PTR _this$[ebp]
	cmp	DWORD PTR [ecx+8], 14			; 0000000eH
	jne	$LN13@DoStartQue

; 1050 : 	{
; 1051 : 		PlayerTypes eTargetMinor = pMinor->GetMinorCivAI()->GetBestCityStateTarget(m_eAssignedPlayer);

	mov	edx, DWORD PTR _this$[ebp]
	mov	eax, DWORD PTR [edx+4]
	push	eax
	mov	ecx, DWORD PTR _pMinor$[ebp]
	call	?GetMinorCivAI@CvPlayer@@QBEPAVCvMinorCivAI@@XZ ; CvPlayer::GetMinorCivAI
	mov	ecx, eax
	call	?GetBestCityStateTarget@CvMinorCivAI@@QAE?AW4PlayerTypes@@W42@@Z ; CvMinorCivAI::GetBestCityStateTarget
	mov	DWORD PTR _eTargetMinor$221396[ebp], eax

; 1052 : 		CvAssertMsg(eTargetMinor != NO_PLAYER, "MINOR CIV AI: eTargetMinor should not be NO_PLAYER when giving a Bully CS quest! Please send Anton your save file and version.");
; 1053 : 		int iLastBullyTurn = GET_PLAYER(eTargetMinor).GetMinorCivAI()->GetTurnLastBulliedByMajor(m_eAssignedPlayer);

	mov	ecx, DWORD PTR _eTargetMinor$221396[ebp]
	imul	ecx, 63236				; 0000f704H
	add	ecx, DWORD PTR ?m_aPlayers@CvPlayerAI@@1PAV1@A ; CvPlayerAI::m_aPlayers
	mov	DWORD PTR $T235830[ebp], ecx
	mov	edx, DWORD PTR _this$[ebp]
	mov	eax, DWORD PTR [edx+4]
	push	eax
	mov	ecx, DWORD PTR $T235830[ebp]
	call	?GetMinorCivAI@CvPlayer@@QBEPAVCvMinorCivAI@@XZ ; CvPlayer::GetMinorCivAI
	mov	ecx, eax
	call	?GetTurnLastBulliedByMajor@CvMinorCivAI@@QBEHW4PlayerTypes@@@Z ; CvMinorCivAI::GetTurnLastBulliedByMajor
	mov	DWORD PTR _iLastBullyTurn$221397[ebp], eax

; 1054 : 
; 1055 : 		m_iData1 = eTargetMinor;

	mov	ecx, DWORD PTR _this$[ebp]
	mov	edx, DWORD PTR _eTargetMinor$221396[ebp]
	mov	DWORD PTR [ecx+16], edx

; 1056 : 		m_iData2 = iLastBullyTurn;

	mov	eax, DWORD PTR _this$[ebp]
	mov	ecx, DWORD PTR _iLastBullyTurn$221397[ebp]
	mov	DWORD PTR [eax+20], ecx

; 1057 : 
; 1058 : 		strMessage = Localization::Lookup("TXT_KEY_NOTIFICATION_QUEST_BULLY_CITY_STATE");

	push	OFFSET ??_C@_0CM@IIIDKJCG@TXT_KEY_NOTIFICATION_QUEST_BULLY@
	lea	edx, DWORD PTR $T235669[ebp]
	push	edx
	call	DWORD PTR __imp_?Lookup@Localization@@YA?AVString@1@PBD@Z
	add	esp, 8
	mov	DWORD PTR tv1111[ebp], eax
	mov	eax, DWORD PTR tv1111[ebp]
	mov	DWORD PTR tv952[ebp], eax
	mov	BYTE PTR __$EHRec$[ebp+8], 30		; 0000001eH
	mov	ecx, DWORD PTR tv952[ebp]
	push	ecx
	lea	ecx, DWORD PTR _strMessage$[ebp]
	call	DWORD PTR __imp_??4String@Localization@@QAEAAV01@ABV01@@Z
	mov	BYTE PTR __$EHRec$[ebp+8], 1
	lea	ecx, DWORD PTR $T235669[ebp]
	call	DWORD PTR __imp_??1String@Localization@@UAE@XZ

; 1059 : 		strSummary = Localization::Lookup("TXT_KEY_NOTIFICATION_SUMMARY_QUEST_BULLY_CITY_STATE");

	push	OFFSET ??_C@_0DE@ODEBBMLO@TXT_KEY_NOTIFICATION_SUMMARY_QUE@
	lea	edx, DWORD PTR $T235670[ebp]
	push	edx
	call	DWORD PTR __imp_?Lookup@Localization@@YA?AVString@1@PBD@Z
	add	esp, 8
	mov	DWORD PTR tv1112[ebp], eax
	mov	eax, DWORD PTR tv1112[ebp]
	mov	DWORD PTR tv954[ebp], eax
	mov	BYTE PTR __$EHRec$[ebp+8], 31		; 0000001fH
	mov	ecx, DWORD PTR tv954[ebp]
	push	ecx
	lea	ecx, DWORD PTR _strSummary$[ebp]
	call	DWORD PTR __imp_??4String@Localization@@QAEAAV01@ABV01@@Z
	mov	BYTE PTR __$EHRec$[ebp+8], 1
	lea	ecx, DWORD PTR $T235670[ebp]
	call	DWORD PTR __imp_??1String@Localization@@UAE@XZ

; 1060 : 
; 1061 : 		if(eTargetMinor != NO_PLAYER)

	cmp	DWORD PTR _eTargetMinor$221396[ebp], -1
	je	SHORT $LN12@DoStartQue

; 1062 : 		{
; 1063 : 			const char* strCivKey = GET_PLAYER(eTargetMinor).getCivilizationShortDescriptionKey();

	mov	edx, DWORD PTR _eTargetMinor$221396[ebp]
	imul	edx, 63236				; 0000f704H
	add	edx, DWORD PTR ?m_aPlayers@CvPlayerAI@@1PAV1@A ; CvPlayerAI::m_aPlayers
	mov	DWORD PTR $T235834[ebp], edx
	mov	ecx, DWORD PTR $T235834[ebp]
	call	?getCivilizationShortDescriptionKey@CvPlayer@@QBEPBDXZ ; CvPlayer::getCivilizationShortDescriptionKey
	mov	DWORD PTR _strCivKey$221403[ebp], eax

; 1064 : 			strMessage << strCivKey;

	lea	eax, DWORD PTR _strCivKey$221403[ebp]
	push	eax
	lea	ecx, DWORD PTR _strMessage$[ebp]
	push	ecx
	call	??$?6PBD@@YAAAVString@Localization@@AAV01@ABQBD@Z ; operator<<<char const *>
	add	esp, 8

; 1065 : 			strSummary << strCivKey;

	lea	edx, DWORD PTR _strCivKey$221403[ebp]
	push	edx
	lea	eax, DWORD PTR _strSummary$[ebp]
	push	eax
	call	??$?6PBD@@YAAAVString@Localization@@AAV01@ABQBD@Z ; operator<<<char const *>
	add	esp, 8

; 1066 : 		}
; 1067 : 		else

	jmp	SHORT $LN11@DoStartQue
$LN12@DoStartQue:

; 1068 : 		{
; 1069 : 			const char* strCivKey = "Nobody";

	mov	DWORD PTR _strCivKey$221405[ebp], OFFSET ??_C@_06LOJBPBBB@Nobody?$AA@

; 1070 : 			strMessage << strCivKey;

	lea	ecx, DWORD PTR _strCivKey$221405[ebp]
	push	ecx
	lea	edx, DWORD PTR _strMessage$[ebp]
	push	edx
	call	??$?6PBD@@YAAAVString@Localization@@AAV01@ABQBD@Z ; operator<<<char const *>
	add	esp, 8

; 1071 : 			strSummary << strCivKey;

	lea	eax, DWORD PTR _strCivKey$221405[ebp]
	push	eax
	lea	ecx, DWORD PTR _strSummary$[ebp]
	push	ecx
	call	??$?6PBD@@YAAAVString@Localization@@AAV01@ABQBD@Z ; operator<<<char const *>
	add	esp, 8
$LN11@DoStartQue:

; 1072 : 		}

	jmp	$LN44@DoStartQue
$LN13@DoStartQue:

; 1073 : 	}
; 1074 : 	// Denounce target Major
; 1075 : 	else if(m_eType == MINOR_CIV_QUEST_DENOUNCE_MAJOR)

	mov	edx, DWORD PTR _this$[ebp]
	cmp	DWORD PTR [edx+8], 15			; 0000000fH
	jne	$LN9@DoStartQue

; 1076 : 	{
; 1077 : 		PlayerTypes eMostRecentBully = pMinor->GetMinorCivAI()->GetMostRecentBullyForQuest();

	mov	ecx, DWORD PTR _pMinor$[ebp]
	call	?GetMinorCivAI@CvPlayer@@QBEPAVCvMinorCivAI@@XZ ; CvPlayer::GetMinorCivAI
	mov	ecx, eax
	call	?GetMostRecentBullyForQuest@CvMinorCivAI@@QBE?AW4PlayerTypes@@XZ ; CvMinorCivAI::GetMostRecentBullyForQuest
	mov	DWORD PTR _eMostRecentBully$221408[ebp], eax

; 1078 : 
; 1079 : 		CvAssertMsg(eMostRecentBully != NO_PLAYER, "MINOR CIV AI: eMostRecentBully should not be NO_PLAYER when giving a Denounce Major quest! Please send Anton your save file and version.");
; 1080 : 
; 1081 : 		m_iData1 = eMostRecentBully;

	mov	eax, DWORD PTR _this$[ebp]
	mov	ecx, DWORD PTR _eMostRecentBully$221408[ebp]
	mov	DWORD PTR [eax+16], ecx

; 1082 : 
; 1083 : 		strMessage = Localization::Lookup("TXT_KEY_NOTIFICATION_QUEST_DENOUNCE_MAJOR");

	push	OFFSET ??_C@_0CK@PODAGNAL@TXT_KEY_NOTIFICATION_QUEST_DENOU@
	lea	edx, DWORD PTR $T235671[ebp]
	push	edx
	call	DWORD PTR __imp_?Lookup@Localization@@YA?AVString@1@PBD@Z
	add	esp, 8
	mov	DWORD PTR tv1113[ebp], eax
	mov	eax, DWORD PTR tv1113[ebp]
	mov	DWORD PTR tv956[ebp], eax
	mov	BYTE PTR __$EHRec$[ebp+8], 32		; 00000020H
	mov	ecx, DWORD PTR tv956[ebp]
	push	ecx
	lea	ecx, DWORD PTR _strMessage$[ebp]
	call	DWORD PTR __imp_??4String@Localization@@QAEAAV01@ABV01@@Z
	mov	BYTE PTR __$EHRec$[ebp+8], 1
	lea	ecx, DWORD PTR $T235671[ebp]
	call	DWORD PTR __imp_??1String@Localization@@UAE@XZ

; 1084 : 		strSummary = Localization::Lookup("TXT_KEY_NOTIFICATION_SUMMARY_QUEST_DENOUNCE_MAJOR");

	push	OFFSET ??_C@_0DC@KGPCGOOH@TXT_KEY_NOTIFICATION_SUMMARY_QUE@
	lea	edx, DWORD PTR $T235672[ebp]
	push	edx
	call	DWORD PTR __imp_?Lookup@Localization@@YA?AVString@1@PBD@Z
	add	esp, 8
	mov	DWORD PTR tv1114[ebp], eax
	mov	eax, DWORD PTR tv1114[ebp]
	mov	DWORD PTR tv958[ebp], eax
	mov	BYTE PTR __$EHRec$[ebp+8], 33		; 00000021H
	mov	ecx, DWORD PTR tv958[ebp]
	push	ecx
	lea	ecx, DWORD PTR _strSummary$[ebp]
	call	DWORD PTR __imp_??4String@Localization@@QAEAAV01@ABV01@@Z
	mov	BYTE PTR __$EHRec$[ebp+8], 1
	lea	ecx, DWORD PTR $T235672[ebp]
	call	DWORD PTR __imp_??1String@Localization@@UAE@XZ

; 1085 : 
; 1086 : 		if(eMostRecentBully != NO_PLAYER)

	cmp	DWORD PTR _eMostRecentBully$221408[ebp], -1
	je	SHORT $LN8@DoStartQue

; 1087 : 		{
; 1088 : 			const char* strCivKey = GET_PLAYER(eMostRecentBully).getCivilizationShortDescriptionKey();

	mov	edx, DWORD PTR _eMostRecentBully$221408[ebp]
	imul	edx, 63236				; 0000f704H
	add	edx, DWORD PTR ?m_aPlayers@CvPlayerAI@@1PAV1@A ; CvPlayerAI::m_aPlayers
	mov	DWORD PTR $T235838[ebp], edx
	mov	ecx, DWORD PTR $T235838[ebp]
	call	?getCivilizationShortDescriptionKey@CvPlayer@@QBEPBDXZ ; CvPlayer::getCivilizationShortDescriptionKey
	mov	DWORD PTR _strCivKey$221414[ebp], eax

; 1089 : 			strMessage << strCivKey;

	lea	eax, DWORD PTR _strCivKey$221414[ebp]
	push	eax
	lea	ecx, DWORD PTR _strMessage$[ebp]
	push	ecx
	call	??$?6PBD@@YAAAVString@Localization@@AAV01@ABQBD@Z ; operator<<<char const *>
	add	esp, 8

; 1090 : 			strSummary << strCivKey;

	lea	edx, DWORD PTR _strCivKey$221414[ebp]
	push	edx
	lea	eax, DWORD PTR _strSummary$[ebp]
	push	eax
	call	??$?6PBD@@YAAAVString@Localization@@AAV01@ABQBD@Z ; operator<<<char const *>
	add	esp, 8

; 1091 : 		}
; 1092 : 		else

	jmp	SHORT $LN7@DoStartQue
$LN8@DoStartQue:

; 1093 : 		{
; 1094 : 			const char* strCivKey = "Nobody";

	mov	DWORD PTR _strCivKey$221416[ebp], OFFSET ??_C@_06LOJBPBBB@Nobody?$AA@

; 1095 : 			strMessage << strCivKey;

	lea	ecx, DWORD PTR _strCivKey$221416[ebp]
	push	ecx
	lea	edx, DWORD PTR _strMessage$[ebp]
	push	edx
	call	??$?6PBD@@YAAAVString@Localization@@AAV01@ABQBD@Z ; operator<<<char const *>
	add	esp, 8

; 1096 : 			strSummary << strCivKey;

	lea	eax, DWORD PTR _strCivKey$221416[ebp]
	push	eax
	lea	ecx, DWORD PTR _strSummary$[ebp]
	push	ecx
	call	??$?6PBD@@YAAAVString@Localization@@AAV01@ABQBD@Z ; operator<<<char const *>
	add	esp, 8
$LN7@DoStartQue:

; 1097 : 		}

	jmp	$LN44@DoStartQue
$LN9@DoStartQue:

; 1098 : 	}
; 1099 : 	// Spread your religion to us
; 1100 : 	else if(m_eType == MINOR_CIV_QUEST_SPREAD_RELIGION)

	mov	edx, DWORD PTR _this$[ebp]
	cmp	DWORD PTR [edx+8], 16			; 00000010H
	jne	$LN5@DoStartQue

; 1101 : 	{
; 1102 : 		ReligionTypes eReligion = GC.getGame().GetGameReligions()->GetReligionCreatedByPlayer(m_eAssignedPlayer);

	mov	eax, DWORD PTR ?gGlobals@@3VCvGlobals@@A+48
	mov	DWORD PTR $T235842[ebp], eax
	mov	ecx, DWORD PTR _this$[ebp]
	mov	edx, DWORD PTR [ecx+4]
	push	edx
	mov	ecx, DWORD PTR $T235842[ebp]
	call	?GetGameReligions@CvGame@@QAEPAVCvGameReligions@@XZ ; CvGame::GetGameReligions
	mov	ecx, eax
	call	?GetReligionCreatedByPlayer@CvGameReligions@@QBE?AW4ReligionTypes@@W4PlayerTypes@@@Z ; CvGameReligions::GetReligionCreatedByPlayer
	mov	DWORD PTR _eReligion$221419[ebp], eax

; 1103 : 
; 1104 : 		CvAssertMsg(eReligion != NO_RELIGION, "MINOR CIV AI: eReligion should not be NO_RELIGION when giving a Spread Religion quest! Please send Anton your save file and version.");
; 1105 : 
; 1106 : 		m_iData1 = eReligion;

	mov	eax, DWORD PTR _this$[ebp]
	mov	ecx, DWORD PTR _eReligion$221419[ebp]
	mov	DWORD PTR [eax+16], ecx

; 1107 : 
; 1108 : 		strMessage = Localization::Lookup("TXT_KEY_NOTIFICATION_QUEST_SPREAD_RELIGION");

	push	OFFSET ??_C@_0CL@JFCNGIIL@TXT_KEY_NOTIFICATION_QUEST_SPREA@
	lea	edx, DWORD PTR $T235673[ebp]
	push	edx
	call	DWORD PTR __imp_?Lookup@Localization@@YA?AVString@1@PBD@Z
	add	esp, 8
	mov	DWORD PTR tv1115[ebp], eax
	mov	eax, DWORD PTR tv1115[ebp]
	mov	DWORD PTR tv960[ebp], eax
	mov	BYTE PTR __$EHRec$[ebp+8], 34		; 00000022H
	mov	ecx, DWORD PTR tv960[ebp]
	push	ecx
	lea	ecx, DWORD PTR _strMessage$[ebp]
	call	DWORD PTR __imp_??4String@Localization@@QAEAAV01@ABV01@@Z
	mov	BYTE PTR __$EHRec$[ebp+8], 1
	lea	ecx, DWORD PTR $T235673[ebp]
	call	DWORD PTR __imp_??1String@Localization@@UAE@XZ

; 1109 : 		strSummary = Localization::Lookup("TXT_KEY_NOTIFICATION_SUMMARY_QUEST_SPREAD_RELIGION");

	push	OFFSET ??_C@_0DD@DMMJAENL@TXT_KEY_NOTIFICATION_SUMMARY_QUE@
	lea	edx, DWORD PTR $T235674[ebp]
	push	edx
	call	DWORD PTR __imp_?Lookup@Localization@@YA?AVString@1@PBD@Z
	add	esp, 8
	mov	DWORD PTR tv1116[ebp], eax
	mov	eax, DWORD PTR tv1116[ebp]
	mov	DWORD PTR tv962[ebp], eax
	mov	BYTE PTR __$EHRec$[ebp+8], 35		; 00000023H
	mov	ecx, DWORD PTR tv962[ebp]
	push	ecx
	lea	ecx, DWORD PTR _strSummary$[ebp]
	call	DWORD PTR __imp_??4String@Localization@@QAEAAV01@ABV01@@Z
	mov	BYTE PTR __$EHRec$[ebp+8], 1
	lea	ecx, DWORD PTR $T235674[ebp]
	call	DWORD PTR __imp_??1String@Localization@@UAE@XZ

; 1110 : 
; 1111 : 		if(eReligion != NO_RELIGION)

	cmp	DWORD PTR _eReligion$221419[ebp], -1
	je	SHORT $LN4@DoStartQue

; 1112 : 		{
; 1113 : 			const CvReligion* pkReligion = GC.getGame().GetGameReligions()->GetReligion(eReligion, NO_PLAYER);

	mov	edx, DWORD PTR ?gGlobals@@3VCvGlobals@@A+48
	mov	DWORD PTR $T235846[ebp], edx
	push	-1
	mov	eax, DWORD PTR _eReligion$221419[ebp]
	push	eax
	mov	ecx, DWORD PTR $T235846[ebp]
	call	?GetGameReligions@CvGame@@QAEPAVCvGameReligions@@XZ ; CvGame::GetGameReligions
	mov	ecx, eax
	call	?GetReligion@CvGameReligions@@QBEPBVCvReligion@@W4ReligionTypes@@W4PlayerTypes@@@Z ; CvGameReligions::GetReligion
	mov	DWORD PTR _pkReligion$221425[ebp], eax

; 1114 : 			CvString strReligion = pkReligion->GetName(); // Not a key, already localized (may be custom name)

	lea	ecx, DWORD PTR _strReligion$221426[ebp]
	push	ecx
	mov	ecx, DWORD PTR _pkReligion$221425[ebp]
	call	?GetName@CvReligion@@QBE?AVCvString@@XZ	; CvReligion::GetName
	mov	BYTE PTR __$EHRec$[ebp+8], 36		; 00000024H

; 1115 : 			strMessage << strReligion;

	lea	edx, DWORD PTR _strReligion$221426[ebp]
	push	edx
	lea	eax, DWORD PTR _strMessage$[ebp]
	push	eax
	call	??$?6VCvString@@@@YAAAVString@Localization@@AAV01@ABVCvString@@@Z ; operator<<<CvString>
	add	esp, 8

; 1116 : 			strSummary << strReligion;

	lea	ecx, DWORD PTR _strReligion$221426[ebp]
	push	ecx
	lea	edx, DWORD PTR _strSummary$[ebp]
	push	edx
	call	??$?6VCvString@@@@YAAAVString@Localization@@AAV01@ABVCvString@@@Z ; operator<<<CvString>
	add	esp, 8

; 1117 : 		}

	mov	BYTE PTR __$EHRec$[ebp+8], 1
	lea	ecx, DWORD PTR _strReligion$221426[ebp]
	call	DWORD PTR __imp_??1?$basic_string@DU?$char_traits@D@std@@V?$allocator@D@2@@std@@QAE@XZ

; 1118 : 		else

	jmp	SHORT $LN3@DoStartQue
$LN4@DoStartQue:

; 1119 : 		{
; 1120 : 			const char* strReligion = "No Religion";

	mov	DWORD PTR _strReligion$221429[ebp], OFFSET ??_C@_0M@KDICFKJM@No?5Religion?$AA@

; 1121 : 			strMessage << strReligion;

	lea	eax, DWORD PTR _strReligion$221429[ebp]
	push	eax
	lea	ecx, DWORD PTR _strMessage$[ebp]
	push	ecx
	call	??$?6PBD@@YAAAVString@Localization@@AAV01@ABQBD@Z ; operator<<<char const *>
	add	esp, 8

; 1122 : 			strSummary << strReligion;

	lea	edx, DWORD PTR _strReligion$221429[ebp]
	push	edx
	lea	eax, DWORD PTR _strSummary$[ebp]
	push	eax
	call	??$?6PBD@@YAAAVString@Localization@@AAV01@ABQBD@Z ; operator<<<char const *>
	add	esp, 8
$LN3@DoStartQue:

; 1123 : 		}

	jmp	$LN44@DoStartQue
$LN5@DoStartQue:

; 1124 : 	}
; 1125 : 	// Connect a trade Route
; 1126 : 	else if(m_eType == MINOR_CIV_QUEST_TRADE_ROUTE)

	mov	ecx, DWORD PTR _this$[ebp]
	cmp	DWORD PTR [ecx+8], 17			; 00000011H
	jne	$LN44@DoStartQue

; 1127 : 	{
; 1128 : 		strMessage = Localization::Lookup("TXT_KEY_NOTIFICATION_QUEST_START_TRADE_ROUTE");

	push	OFFSET ??_C@_0CN@IBMIDFCJ@TXT_KEY_NOTIFICATION_QUEST_START@
	lea	edx, DWORD PTR $T235675[ebp]
	push	edx
	call	DWORD PTR __imp_?Lookup@Localization@@YA?AVString@1@PBD@Z
	add	esp, 8
	mov	DWORD PTR tv819[ebp], eax
	mov	eax, DWORD PTR tv819[ebp]
	mov	DWORD PTR tv965[ebp], eax
	mov	BYTE PTR __$EHRec$[ebp+8], 37		; 00000025H
	mov	ecx, DWORD PTR tv965[ebp]
	push	ecx
	lea	ecx, DWORD PTR _strMessage$[ebp]
	call	DWORD PTR __imp_??4String@Localization@@QAEAAV01@ABV01@@Z
	mov	BYTE PTR __$EHRec$[ebp+8], 1
	lea	ecx, DWORD PTR $T235675[ebp]
	call	DWORD PTR __imp_??1String@Localization@@UAE@XZ

; 1129 : 		strSummary = Localization::Lookup("TXT_KEY_NOTIFICATION_SUMMARY_QUEST_START_TRADE_ROUTE");

	push	OFFSET ??_C@_0DF@HPHHOMOK@TXT_KEY_NOTIFICATION_SUMMARY_QUE@
	lea	edx, DWORD PTR $T235676[ebp]
	push	edx
	call	DWORD PTR __imp_?Lookup@Localization@@YA?AVString@1@PBD@Z
	add	esp, 8
	mov	DWORD PTR tv1117[ebp], eax
	mov	eax, DWORD PTR tv1117[ebp]
	mov	DWORD PTR tv967[ebp], eax
	mov	BYTE PTR __$EHRec$[ebp+8], 38		; 00000026H
	mov	ecx, DWORD PTR tv967[ebp]
	push	ecx
	lea	ecx, DWORD PTR _strSummary$[ebp]
	call	DWORD PTR __imp_??4String@Localization@@QAEAAV01@ABV01@@Z
	mov	BYTE PTR __$EHRec$[ebp+8], 1
	lea	ecx, DWORD PTR $T235676[ebp]
	call	DWORD PTR __imp_??1String@Localization@@UAE@XZ
$LN44@DoStartQue:

; 1130 : 	}
; 1131 : 
; 1132 : 	strMessage << pMinor->getNameKey();

	mov	ecx, DWORD PTR _pMinor$[ebp]
	call	?getNameKey@CvPlayer@@QBEPBDXZ		; CvPlayer::getNameKey
	mov	DWORD PTR $T235677[ebp], eax
	lea	edx, DWORD PTR $T235677[ebp]
	push	edx
	lea	eax, DWORD PTR _strMessage$[ebp]
	push	eax
	call	??$?6PBD@@YAAAVString@Localization@@AAV01@ABQBD@Z ; operator<<<char const *>
	add	esp, 8

; 1133 : 	strSummary << pMinor->getNameKey();

	mov	ecx, DWORD PTR _pMinor$[ebp]
	call	?getNameKey@CvPlayer@@QBEPBDXZ		; CvPlayer::getNameKey
	mov	DWORD PTR $T235678[ebp], eax
	lea	ecx, DWORD PTR $T235678[ebp]
	push	ecx
	lea	edx, DWORD PTR _strSummary$[ebp]
	push	edx
	call	??$?6PBD@@YAAAVString@Localization@@AAV01@ABQBD@Z ; operator<<<char const *>
	add	esp, 8

; 1134 : 	pMinor->GetMinorCivAI()->AddQuestNotification(strMessage.toUTF8(), strSummary.toUTF8(), m_eAssignedPlayer, iNotificationX, iNotificationY);

	push	0
	mov	eax, DWORD PTR _iNotificationY$[ebp]
	push	eax
	mov	ecx, DWORD PTR _iNotificationX$[ebp]
	push	ecx
	mov	edx, DWORD PTR _this$[ebp]
	mov	eax, DWORD PTR [edx+4]
	push	eax
	lea	ecx, DWORD PTR _strSummary$[ebp]
	call	DWORD PTR __imp_?toUTF8@String@Localization@@QAEPBDXZ
	mov	DWORD PTR $T235860[ebp], eax
	sub	esp, 28					; 0000001cH
	mov	ecx, esp
	mov	DWORD PTR $T235679[ebp], esp
	mov	DWORD PTR $T235859[ebp], ecx
	cmp	DWORD PTR $T235860[ebp], 0
	je	SHORT $LN158@DoStartQue
	mov	edx, DWORD PTR $T235860[ebp]
	mov	DWORD PTR tv1068[ebp], edx
	jmp	SHORT $LN159@DoStartQue
$LN158@DoStartQue:
	mov	DWORD PTR tv1068[ebp], OFFSET ??_C@_00CNPNBAHC@?$AA@
$LN159@DoStartQue:
	mov	eax, DWORD PTR tv1068[ebp]
	push	eax
	mov	ecx, DWORD PTR $T235859[ebp]
	call	DWORD PTR __imp_??0?$basic_string@DU?$char_traits@D@std@@V?$allocator@D@2@@std@@QAE@PBD@Z
	mov	ecx, DWORD PTR $T235859[ebp]
	mov	DWORD PTR tv973[ebp], ecx
	mov	BYTE PTR __$EHRec$[ebp+8], 39		; 00000027H
	lea	ecx, DWORD PTR _strMessage$[ebp]
	call	DWORD PTR __imp_?toUTF8@String@Localization@@QAEPBDXZ
	mov	DWORD PTR $T235870[ebp], eax
	sub	esp, 28					; 0000001cH
	mov	edx, esp
	mov	DWORD PTR $T235680[ebp], esp
	mov	DWORD PTR $T235869[ebp], edx
	cmp	DWORD PTR $T235870[ebp], 0
	je	SHORT $LN163@DoStartQue
	mov	eax, DWORD PTR $T235870[ebp]
	mov	DWORD PTR tv1081[ebp], eax
	jmp	SHORT $LN164@DoStartQue
$LN163@DoStartQue:
	mov	DWORD PTR tv1081[ebp], OFFSET ??_C@_00CNPNBAHC@?$AA@
$LN164@DoStartQue:
	mov	ecx, DWORD PTR tv1081[ebp]
	push	ecx
	mov	ecx, DWORD PTR $T235869[ebp]
	call	DWORD PTR __imp_??0?$basic_string@DU?$char_traits@D@std@@V?$allocator@D@2@@std@@QAE@PBD@Z
	mov	edx, DWORD PTR $T235869[ebp]
	mov	DWORD PTR tv976[ebp], edx
	mov	BYTE PTR __$EHRec$[ebp+8], 40		; 00000028H
	mov	ecx, DWORD PTR _pMinor$[ebp]
	call	?GetMinorCivAI@CvPlayer@@QBEPAVCvMinorCivAI@@XZ ; CvPlayer::GetMinorCivAI
	mov	BYTE PTR __$EHRec$[ebp+8], 1
	mov	ecx, eax
	call	?AddQuestNotification@CvMinorCivAI@@QAEXVCvString@@0W4PlayerTypes@@HH_N@Z ; CvMinorCivAI::AddQuestNotification

; 1135 : }

	mov	BYTE PTR __$EHRec$[ebp+8], 0
	lea	ecx, DWORD PTR _strSummary$[ebp]
	call	DWORD PTR __imp_??1String@Localization@@UAE@XZ
	mov	DWORD PTR __$EHRec$[ebp+8], -1
	lea	ecx, DWORD PTR _strMessage$[ebp]
	call	DWORD PTR __imp_??1String@Localization@@UAE@XZ
	mov	ecx, DWORD PTR __$EHRec$[ebp]
	mov	DWORD PTR fs:0, ecx
	pop	ecx
	pop	esi
	mov	ecx, DWORD PTR __$ArrayPad$[ebp]
	xor	ecx, ebp
	call	@__security_check_cookie@4
	mov	esp, ebp
	pop	ebp
	ret	4
_TEXT	ENDS
;	COMDAT text$x
text$x	SEGMENT
__unwindfunclet$?DoStartQuest@CvMinorCivQuest@@QAEXH@Z$0:
	lea	ecx, DWORD PTR _strMessage$[ebp]
	jmp	DWORD PTR __imp_??1String@Localization@@UAE@XZ
__unwindfunclet$?DoStartQuest@CvMinorCivQuest@@QAEXH@Z$1:
	lea	ecx, DWORD PTR _strSummary$[ebp]
	jmp	DWORD PTR __imp_??1String@Localization@@UAE@XZ
__unwindfunclet$?DoStartQuest@CvMinorCivQuest@@QAEXH@Z$2:
	lea	ecx, DWORD PTR $T235641[ebp]
	jmp	DWORD PTR __imp_??1String@Localization@@UAE@XZ
__unwindfunclet$?DoStartQuest@CvMinorCivQuest@@QAEXH@Z$3:
	lea	ecx, DWORD PTR $T235642[ebp]
	jmp	DWORD PTR __imp_??1String@Localization@@UAE@XZ
__unwindfunclet$?DoStartQuest@CvMinorCivQuest@@QAEXH@Z$4:
	lea	ecx, DWORD PTR $T235643[ebp]
	jmp	DWORD PTR __imp_??1String@Localization@@UAE@XZ
__unwindfunclet$?DoStartQuest@CvMinorCivQuest@@QAEXH@Z$5:
	lea	ecx, DWORD PTR $T235644[ebp]
	jmp	DWORD PTR __imp_??1String@Localization@@UAE@XZ
__unwindfunclet$?DoStartQuest@CvMinorCivQuest@@QAEXH@Z$6:
	lea	ecx, DWORD PTR $T235645[ebp]
	jmp	DWORD PTR __imp_??1String@Localization@@UAE@XZ
__unwindfunclet$?DoStartQuest@CvMinorCivQuest@@QAEXH@Z$7:
	lea	ecx, DWORD PTR $T235646[ebp]
	jmp	DWORD PTR __imp_??1String@Localization@@UAE@XZ
__unwindfunclet$?DoStartQuest@CvMinorCivQuest@@QAEXH@Z$8:
	lea	ecx, DWORD PTR $T235647[ebp]
	jmp	DWORD PTR __imp_??1String@Localization@@UAE@XZ
__unwindfunclet$?DoStartQuest@CvMinorCivQuest@@QAEXH@Z$9:
	lea	ecx, DWORD PTR $T235648[ebp]
	jmp	DWORD PTR __imp_??1String@Localization@@UAE@XZ
__unwindfunclet$?DoStartQuest@CvMinorCivQuest@@QAEXH@Z$10:
	lea	ecx, DWORD PTR $T235649[ebp]
	jmp	DWORD PTR __imp_??1String@Localization@@UAE@XZ
__unwindfunclet$?DoStartQuest@CvMinorCivQuest@@QAEXH@Z$11:
	lea	ecx, DWORD PTR $T235650[ebp]
	jmp	DWORD PTR __imp_??1String@Localization@@UAE@XZ
__unwindfunclet$?DoStartQuest@CvMinorCivQuest@@QAEXH@Z$12:
	lea	ecx, DWORD PTR $T235651[ebp]
	jmp	DWORD PTR __imp_??1String@Localization@@UAE@XZ
__unwindfunclet$?DoStartQuest@CvMinorCivQuest@@QAEXH@Z$13:
	lea	ecx, DWORD PTR $T235652[ebp]
	jmp	DWORD PTR __imp_??1String@Localization@@UAE@XZ
__unwindfunclet$?DoStartQuest@CvMinorCivQuest@@QAEXH@Z$14:
	lea	ecx, DWORD PTR $T235653[ebp]
	jmp	DWORD PTR __imp_??1String@Localization@@UAE@XZ
__unwindfunclet$?DoStartQuest@CvMinorCivQuest@@QAEXH@Z$15:
	lea	ecx, DWORD PTR $T235654[ebp]
	jmp	DWORD PTR __imp_??1String@Localization@@UAE@XZ
__unwindfunclet$?DoStartQuest@CvMinorCivQuest@@QAEXH@Z$16:
	lea	ecx, DWORD PTR $T235655[ebp]
	jmp	DWORD PTR __imp_??1String@Localization@@UAE@XZ
__unwindfunclet$?DoStartQuest@CvMinorCivQuest@@QAEXH@Z$17:
	lea	ecx, DWORD PTR $T235656[ebp]
	jmp	DWORD PTR __imp_??1String@Localization@@UAE@XZ
__unwindfunclet$?DoStartQuest@CvMinorCivQuest@@QAEXH@Z$18:
	lea	ecx, DWORD PTR $T235657[ebp]
	jmp	DWORD PTR __imp_??1String@Localization@@UAE@XZ
__unwindfunclet$?DoStartQuest@CvMinorCivQuest@@QAEXH@Z$19:
	lea	ecx, DWORD PTR $T235658[ebp]
	jmp	DWORD PTR __imp_??1String@Localization@@UAE@XZ
__unwindfunclet$?DoStartQuest@CvMinorCivQuest@@QAEXH@Z$20:
	lea	ecx, DWORD PTR $T235659[ebp]
	jmp	DWORD PTR __imp_??1String@Localization@@UAE@XZ
__unwindfunclet$?DoStartQuest@CvMinorCivQuest@@QAEXH@Z$21:
	lea	ecx, DWORD PTR $T235660[ebp]
	jmp	DWORD PTR __imp_??1String@Localization@@UAE@XZ
__unwindfunclet$?DoStartQuest@CvMinorCivQuest@@QAEXH@Z$22:
	lea	ecx, DWORD PTR $T235661[ebp]
	jmp	DWORD PTR __imp_??1String@Localization@@UAE@XZ
__unwindfunclet$?DoStartQuest@CvMinorCivQuest@@QAEXH@Z$23:
	lea	ecx, DWORD PTR $T235662[ebp]
	jmp	DWORD PTR __imp_??1String@Localization@@UAE@XZ
__unwindfunclet$?DoStartQuest@CvMinorCivQuest@@QAEXH@Z$24:
	lea	ecx, DWORD PTR $T235663[ebp]
	jmp	DWORD PTR __imp_??1String@Localization@@UAE@XZ
__unwindfunclet$?DoStartQuest@CvMinorCivQuest@@QAEXH@Z$25:
	lea	ecx, DWORD PTR $T235664[ebp]
	jmp	DWORD PTR __imp_??1String@Localization@@UAE@XZ
__unwindfunclet$?DoStartQuest@CvMinorCivQuest@@QAEXH@Z$26:
	lea	ecx, DWORD PTR $T235665[ebp]
	jmp	DWORD PTR __imp_??1String@Localization@@UAE@XZ
__unwindfunclet$?DoStartQuest@CvMinorCivQuest@@QAEXH@Z$27:
	lea	ecx, DWORD PTR $T235666[ebp]
	jmp	DWORD PTR __imp_??1String@Localization@@UAE@XZ
__unwindfunclet$?DoStartQuest@CvMinorCivQuest@@QAEXH@Z$28:
	lea	ecx, DWORD PTR $T235667[ebp]
	jmp	DWORD PTR __imp_??1String@Localization@@UAE@XZ
__unwindfunclet$?DoStartQuest@CvMinorCivQuest@@QAEXH@Z$29:
	lea	ecx, DWORD PTR $T235668[ebp]
	jmp	DWORD PTR __imp_??1String@Localization@@UAE@XZ
__unwindfunclet$?DoStartQuest@CvMinorCivQuest@@QAEXH@Z$30:
	lea	ecx, DWORD PTR $T235669[ebp]
	jmp	DWORD PTR __imp_??1String@Localization@@UAE@XZ
__unwindfunclet$?DoStartQuest@CvMinorCivQuest@@QAEXH@Z$31:
	lea	ecx, DWORD PTR $T235670[ebp]
	jmp	DWORD PTR __imp_??1String@Localization@@UAE@XZ
__unwindfunclet$?DoStartQuest@CvMinorCivQuest@@QAEXH@Z$32:
	lea	ecx, DWORD PTR $T235671[ebp]
	jmp	DWORD PTR __imp_??1String@Localization@@UAE@XZ
__unwindfunclet$?DoStartQuest@CvMinorCivQuest@@QAEXH@Z$33:
	lea	ecx, DWORD PTR $T235672[ebp]
	jmp	DWORD PTR __imp_??1String@Localization@@UAE@XZ
__unwindfunclet$?DoStartQuest@CvMinorCivQuest@@QAEXH@Z$34:
	lea	ecx, DWORD PTR $T235673[ebp]
	jmp	DWORD PTR __imp_??1String@Localization@@UAE@XZ
__unwindfunclet$?DoStartQuest@CvMinorCivQuest@@QAEXH@Z$35:
	lea	ecx, DWORD PTR $T235674[ebp]
	jmp	DWORD PTR __imp_??1String@Localization@@UAE@XZ
__unwindfunclet$?DoStartQuest@CvMinorCivQuest@@QAEXH@Z$36:
	lea	ecx, DWORD PTR _strReligion$221426[ebp]
	jmp	??1CvString@@QAE@XZ			; CvString::~CvString
__unwindfunclet$?DoStartQuest@CvMinorCivQuest@@QAEXH@Z$37:
	lea	ecx, DWORD PTR $T235675[ebp]
	jmp	DWORD PTR __imp_??1String@Localization@@UAE@XZ
__unwindfunclet$?DoStartQuest@CvMinorCivQuest@@QAEXH@Z$38:
	lea	ecx, DWORD PTR $T235676[ebp]
	jmp	DWORD PTR __imp_??1String@Localization@@UAE@XZ
__unwindfunclet$?DoStartQuest@CvMinorCivQuest@@QAEXH@Z$39:
	mov	ecx, DWORD PTR $T235679[ebp]
	jmp	??1CvString@@QAE@XZ			; CvString::~CvString
__unwindfunclet$?DoStartQuest@CvMinorCivQuest@@QAEXH@Z$40:
	mov	ecx, DWORD PTR $T235680[ebp]
	jmp	??1CvString@@QAE@XZ			; CvString::~CvString
__ehhandler$?DoStartQuest@CvMinorCivQuest@@QAEXH@Z:
	mov	edx, DWORD PTR [esp+8]
	lea	eax, DWORD PTR [edx+12]
	mov	ecx, DWORD PTR [edx-3684]
	xor	ecx, eax
	call	@__security_check_cookie@4
	mov	ecx, DWORD PTR [edx-340]
	xor	ecx, eax
	call	@__security_check_cookie@4
	mov	eax, OFFSET __ehfuncinfo$?DoStartQuest@CvMinorCivQuest@@QAEXH@Z
	jmp	___CxxFrameHandler3
text$x	ENDS
?DoStartQuest@CvMinorCivQuest@@QAEXH@Z ENDP		; CvMinorCivQuest::DoStartQuest
PUBLIC	?IsGlobalQuest@CvMinorCivAI@@QBE_NW4MinorCivQuestTypes@@@Z ; CvMinorCivAI::IsGlobalQuest
PUBLIC	?DoStartQuestUsingExistingData@CvMinorCivQuest@@QAEXPAV1@@Z ; CvMinorCivQuest::DoStartQuestUsingExistingData
;	COMDAT xdata$x
; File d:\sources\lekmod_git\checkout\lekmod_dll\cvgamecoredllutil\include\cvstring.h
xdata$x	SEGMENT
__ehfuncinfo$?DoStartQuestUsingExistingData@CvMinorCivQuest@@QAEXPAV1@@Z DD 019930522H
	DD	06H
	DD	FLAT:__unwindtable$?DoStartQuestUsingExistingData@CvMinorCivQuest@@QAEXPAV1@@Z
	DD	2 DUP(00H)
	DD	2 DUP(00H)
	DD	00H
	DD	01H
__unwindtable$?DoStartQuestUsingExistingData@CvMinorCivQuest@@QAEXPAV1@@Z DD 0ffffffffH
	DD	FLAT:__unwindfunclet$?DoStartQuestUsingExistingData@CvMinorCivQuest@@QAEXPAV1@@Z$0
	DD	00H
	DD	FLAT:__unwindfunclet$?DoStartQuestUsingExistingData@CvMinorCivQuest@@QAEXPAV1@@Z$1
	DD	01H
	DD	FLAT:__unwindfunclet$?DoStartQuestUsingExistingData@CvMinorCivQuest@@QAEXPAV1@@Z$2
	DD	01H
	DD	FLAT:__unwindfunclet$?DoStartQuestUsingExistingData@CvMinorCivQuest@@QAEXPAV1@@Z$3
	DD	01H
	DD	FLAT:__unwindfunclet$?DoStartQuestUsingExistingData@CvMinorCivQuest@@QAEXPAV1@@Z$4
	DD	04H
	DD	FLAT:__unwindfunclet$?DoStartQuestUsingExistingData@CvMinorCivQuest@@QAEXPAV1@@Z$5
; Function compile flags: /Odtp
; File d:\sources\lekmod_git\checkout\lekmod_dll\cvgamecoredll_expansion2\cvminorcivai.cpp
xdata$x	ENDS
;	COMDAT ?DoStartQuestUsingExistingData@CvMinorCivQuest@@QAEXPAV1@@Z
_TEXT	SEGMENT
tv255 = -472						; size = 4
tv321 = -468						; size = 4
tv252 = -464						; size = 4
tv308 = -460						; size = 4
tv246 = -456						; size = 4
tv81 = -452						; size = 4
tv244 = -448						; size = 4
tv84 = -444						; size = 4
tv288 = -440						; size = 4
_this$ = -436						; size = 4
$T236021 = -432						; size = 4
$T236020 = -428						; size = 4
$T236011 = -424						; size = 4
$T236010 = -420						; size = 4
$T235995 = -416						; size = 4
$T235978 = -412						; size = 4
$T235938 = -408						; size = 4
$T235926 = -404						; size = 4
$T235922 = -397						; size = 1
$T235911 = -396						; size = 4
$T235907 = -389						; size = 1
_iMapY$235974 = -388					; size = 4
_iMapX$235973 = -384					; size = 4
$T235900 = -380						; size = 4
$T235884 = -376						; size = 4
$T235883 = -372						; size = 4
$T235882 = -368						; size = 4
$T235881 = -364						; size = 4
$T235880 = -360						; size = 80
$T235879 = -280						; size = 80
_pPlot$221456 = -200					; size = 4
_iCampX$221454 = -196					; size = 4
_iCampY$221455 = -192					; size = 4
_pAssignedPlayer$ = -188				; size = 4
_iNotificationX$ = -184					; size = 4
_strMessage$ = -180					; size = 80
_strSummary$ = -100					; size = 80
_iNotificationY$ = -20					; size = 4
_pMinor$ = -16						; size = 4
__$EHRec$ = -12						; size = 12
_pExistingQuest$ = 8					; size = 4
?DoStartQuestUsingExistingData@CvMinorCivQuest@@QAEXPAV1@@Z PROC ; CvMinorCivQuest::DoStartQuestUsingExistingData, COMDAT
; _this$ = ecx

; 1140 : {

	push	ebp
	mov	ebp, esp
	push	-1
	push	__ehhandler$?DoStartQuestUsingExistingData@CvMinorCivQuest@@QAEXPAV1@@Z
	mov	eax, DWORD PTR fs:0
	push	eax
	sub	esp, 460				; 000001ccH
	mov	eax, DWORD PTR ___security_cookie
	xor	eax, ebp
	push	eax
	lea	eax, DWORD PTR __$EHRec$[ebp]
	mov	DWORD PTR fs:0, eax
	mov	DWORD PTR _this$[ebp], ecx

; 1141 : 	CvPlayer* pMinor = &GET_PLAYER(m_eMinor);

	mov	eax, DWORD PTR _this$[ebp]
	mov	ecx, DWORD PTR [eax]
	imul	ecx, 63236				; 0000f704H
	add	ecx, DWORD PTR ?m_aPlayers@CvPlayerAI@@1PAV1@A ; CvPlayerAI::m_aPlayers
	mov	DWORD PTR _pMinor$[ebp], ecx

; 1142 : 	CvPlayer* pAssignedPlayer = &GET_PLAYER(m_eAssignedPlayer);

	mov	edx, DWORD PTR _this$[ebp]
	mov	eax, DWORD PTR [edx+4]
	imul	eax, 63236				; 0000f704H
	add	eax, DWORD PTR ?m_aPlayers@CvPlayerAI@@1PAV1@A ; CvPlayerAI::m_aPlayers
	mov	DWORD PTR _pAssignedPlayer$[ebp], eax

; 1143 : 
; 1144 : 	CvAssertMsg(pMinor != NULL, "pMinor should not be NULL. Please send Anton your save file and version.");
; 1145 : 	CvAssertMsg(pAssignedPlayer != NULL, "pAssignedPlayer should not be NULL. Please send Anton your save file and version.");
; 1146 : 	CvAssertMsg(pExistingQuest != NULL, "pExistingQuest should not be NULL. Please send Anton your save file and version.");
; 1147 : 	if(pMinor == NULL || pAssignedPlayer == NULL || pExistingQuest == NULL) return;

	cmp	DWORD PTR _pMinor$[ebp], 0
	je	SHORT $LN7@DoStartQue@2
	cmp	DWORD PTR _pAssignedPlayer$[ebp], 0
	je	SHORT $LN7@DoStartQue@2
	cmp	DWORD PTR _pExistingQuest$[ebp], 0
	jne	SHORT $LN8@DoStartQue@2
$LN7@DoStartQue@2:
	jmp	$LN9@DoStartQue@2
$LN8@DoStartQue@2:

; 1148 : 
; 1149 : 	Localization::String strMessage;

	lea	ecx, DWORD PTR _strMessage$[ebp]
	call	DWORD PTR __imp_??0String@Localization@@QAE@XZ
	mov	DWORD PTR __$EHRec$[ebp+8], 0

; 1150 : 	Localization::String strSummary;

	lea	ecx, DWORD PTR _strSummary$[ebp]
	call	DWORD PTR __imp_??0String@Localization@@QAE@XZ
	mov	BYTE PTR __$EHRec$[ebp+8], 1

; 1151 : 	int iNotificationX = -1;

	mov	DWORD PTR _iNotificationX$[ebp], -1

; 1152 : 	int iNotificationY = -1;

	mov	DWORD PTR _iNotificationY$[ebp], -1

; 1153 : 
; 1154 : 	// Kill a Camp - This quest needs to have the data for the same camp as the existing quest
; 1155 : 	if(m_eType == MINOR_CIV_QUEST_KILL_CAMP)

	mov	ecx, DWORD PTR _this$[ebp]
	cmp	DWORD PTR [ecx+8], 1
	jne	$LN6@DoStartQue@2

; 1156 : 	{
; 1157 : 		m_iStartTurn = pExistingQuest->GetStartTurn();

	mov	ecx, DWORD PTR _pExistingQuest$[ebp]
	call	?GetStartTurn@CvMinorCivQuest@@QBEHXZ	; CvMinorCivQuest::GetStartTurn
	mov	edx, DWORD PTR _this$[ebp]
	mov	DWORD PTR [edx+12], eax

; 1158 : 
; 1159 : 		int iCampX = pExistingQuest->GetPrimaryData();

	mov	ecx, DWORD PTR _pExistingQuest$[ebp]
	call	?GetPrimaryData@CvMinorCivQuest@@QBEHXZ	; CvMinorCivQuest::GetPrimaryData
	mov	DWORD PTR _iCampX$221454[ebp], eax

; 1160 : 		int iCampY = pExistingQuest->GetSecondaryData();

	mov	ecx, DWORD PTR _pExistingQuest$[ebp]
	call	?GetSecondaryData@CvMinorCivQuest@@QBEHXZ ; CvMinorCivQuest::GetSecondaryData
	mov	DWORD PTR _iCampY$221455[ebp], eax

; 1161 : 
; 1162 : 		CvPlot* pPlot = GC.getMap().plot(iCampX, iCampY);

	mov	eax, DWORD PTR ?gGlobals@@3VCvGlobals@@A+52
	mov	DWORD PTR $T235900[ebp], eax
	cmp	DWORD PTR _iCampX$221454[ebp], -2147483647 ; 80000001H
	je	SHORT $LN23@DoStartQue@2
	cmp	DWORD PTR _iCampY$221455[ebp], -2147483647 ; 80000001H
	jne	SHORT $LN24@DoStartQue@2
$LN23@DoStartQue@2:
	mov	DWORD PTR _pPlot$221456[ebp], 0
	jmp	$LN25@DoStartQue@2
$LN24@DoStartQue@2:
	mov	ecx, DWORD PTR $T235900[ebp]
	mov	dl, BYTE PTR [ecx+4056]
	mov	BYTE PTR $T235907[ebp], dl
	mov	eax, DWORD PTR $T235900[ebp]
	mov	ecx, DWORD PTR [eax+4020]
	mov	DWORD PTR $T235911[ebp], ecx
	movzx	edx, BYTE PTR $T235907[ebp]
	test	edx, edx
	je	SHORT $LN36@DoStartQue@2
	cmp	DWORD PTR _iCampX$221454[ebp], 0
	jge	SHORT $LN35@DoStartQue@2
	mov	eax, DWORD PTR _iCampX$221454[ebp]
	cdq
	idiv	DWORD PTR $T235911[ebp]
	add	edx, DWORD PTR $T235911[ebp]
	mov	DWORD PTR _iMapX$235973[ebp], edx
	jmp	SHORT $LN37@DoStartQue@2
	jmp	SHORT $LN36@DoStartQue@2
$LN35@DoStartQue@2:
	mov	eax, DWORD PTR _iCampX$221454[ebp]
	cmp	eax, DWORD PTR $T235911[ebp]
	jl	SHORT $LN36@DoStartQue@2
	mov	eax, DWORD PTR _iCampX$221454[ebp]
	cdq
	idiv	DWORD PTR $T235911[ebp]
	mov	DWORD PTR _iMapX$235973[ebp], edx
	jmp	SHORT $LN37@DoStartQue@2
$LN36@DoStartQue@2:
	mov	ecx, DWORD PTR _iCampX$221454[ebp]
	mov	DWORD PTR _iMapX$235973[ebp], ecx
$LN37@DoStartQue@2:
	mov	edx, DWORD PTR $T235900[ebp]
	mov	al, BYTE PTR [edx+4057]
	mov	BYTE PTR $T235922[ebp], al
	mov	ecx, DWORD PTR $T235900[ebp]
	mov	edx, DWORD PTR [ecx+4024]
	mov	DWORD PTR $T235926[ebp], edx
	movzx	eax, BYTE PTR $T235922[ebp]
	test	eax, eax
	je	SHORT $LN46@DoStartQue@2
	cmp	DWORD PTR _iCampY$221455[ebp], 0
	jge	SHORT $LN45@DoStartQue@2
	mov	eax, DWORD PTR _iCampY$221455[ebp]
	cdq
	idiv	DWORD PTR $T235926[ebp]
	add	edx, DWORD PTR $T235926[ebp]
	mov	DWORD PTR _iMapY$235974[ebp], edx
	jmp	SHORT $LN47@DoStartQue@2
	jmp	SHORT $LN46@DoStartQue@2
$LN45@DoStartQue@2:
	mov	ecx, DWORD PTR _iCampY$221455[ebp]
	cmp	ecx, DWORD PTR $T235926[ebp]
	jl	SHORT $LN46@DoStartQue@2
	mov	eax, DWORD PTR _iCampY$221455[ebp]
	cdq
	idiv	DWORD PTR $T235926[ebp]
	mov	DWORD PTR _iMapY$235974[ebp], edx
	jmp	SHORT $LN47@DoStartQue@2
$LN46@DoStartQue@2:
	mov	edx, DWORD PTR _iCampY$221455[ebp]
	mov	DWORD PTR _iMapY$235974[ebp], edx
$LN47@DoStartQue@2:
	mov	eax, DWORD PTR _iMapY$235974[ebp]
	push	eax
	mov	ecx, DWORD PTR _iMapX$235973[ebp]
	push	ecx
	mov	ecx, DWORD PTR $T235900[ebp]
	call	?isPlot@CvMap@@QBEHHH@Z			; CvMap::isPlot
	test	eax, eax
	je	SHORT $LN27@DoStartQue@2
	mov	edx, DWORD PTR $T235900[ebp]
	mov	eax, DWORD PTR [edx+4020]
	mov	DWORD PTR $T235938[ebp], eax
	mov	ecx, DWORD PTR _iMapY$235974[ebp]
	imul	ecx, DWORD PTR $T235938[ebp]
	add	ecx, DWORD PTR _iMapX$235973[ebp]
	imul	ecx, 484				; 000001e4H
	mov	edx, DWORD PTR $T235900[ebp]
	add	ecx, DWORD PTR [edx+4068]
	mov	DWORD PTR tv288[ebp], ecx
	jmp	SHORT $LN28@DoStartQue@2
$LN27@DoStartQue@2:
	mov	DWORD PTR tv288[ebp], 0
$LN28@DoStartQue@2:
	mov	eax, DWORD PTR tv288[ebp]
	mov	DWORD PTR _pPlot$221456[ebp], eax
$LN25@DoStartQue@2:

; 1163 : 
; 1164 : 		if(!pPlot)

	cmp	DWORD PTR _pPlot$221456[ebp], 0
	jne	SHORT $LN5@DoStartQue@2

; 1165 : 		{
; 1166 : 			CvAssertMsg(false, "We're starting a quest to kill a barb camp using an existing quest's barb camp data, but the data is bad. Please send Anton your save file and version.");
; 1167 : 			return;

	mov	BYTE PTR __$EHRec$[ebp+8], 0
	lea	ecx, DWORD PTR _strSummary$[ebp]
	call	DWORD PTR __imp_??1String@Localization@@UAE@XZ
	mov	DWORD PTR __$EHRec$[ebp+8], -1
	lea	ecx, DWORD PTR _strMessage$[ebp]
	call	DWORD PTR __imp_??1String@Localization@@UAE@XZ
	jmp	$LN9@DoStartQue@2
$LN5@DoStartQue@2:

; 1168 : 		}
; 1169 : 		if(pPlot->getImprovementType() != GC.getBARBARIAN_CAMP_IMPROVEMENT())

	mov	ecx, DWORD PTR ?gGlobals@@3VCvGlobals@@A+8548
	mov	DWORD PTR $T235978[ebp], ecx
	mov	ecx, DWORD PTR _pPlot$221456[ebp]
	call	?getImprovementType@CvPlot@@QBE?AW4ImprovementTypes@@XZ ; CvPlot::getImprovementType
	cmp	eax, DWORD PTR $T235978[ebp]
	je	SHORT $LN4@DoStartQue@2

; 1170 : 		{
; 1171 : 			CvAssertMsg(false, "We're starting a quest to kill a barb camp using an existing quest's barb camp data, but there's no camp there anymore. Please send Anton your save file and version.");
; 1172 : 			return;

	mov	BYTE PTR __$EHRec$[ebp+8], 0
	lea	ecx, DWORD PTR _strSummary$[ebp]
	call	DWORD PTR __imp_??1String@Localization@@UAE@XZ
	mov	DWORD PTR __$EHRec$[ebp+8], -1
	lea	ecx, DWORD PTR _strMessage$[ebp]
	call	DWORD PTR __imp_??1String@Localization@@UAE@XZ
	jmp	$LN9@DoStartQue@2
$LN4@DoStartQue@2:

; 1173 : 		}
; 1174 : 
; 1175 : 		m_iData1 = iCampX;

	mov	edx, DWORD PTR _this$[ebp]
	mov	eax, DWORD PTR _iCampX$221454[ebp]
	mov	DWORD PTR [edx+16], eax

; 1176 : 		m_iData2 = iCampY;

	mov	ecx, DWORD PTR _this$[ebp]
	mov	edx, DWORD PTR _iCampY$221455[ebp]
	mov	DWORD PTR [ecx+20], edx

; 1177 : 
; 1178 : 		pPlot->setRevealed(pAssignedPlayer->getTeam(), true);

	push	-1
	push	0
	push	1
	mov	eax, DWORD PTR _pAssignedPlayer$[ebp]
	mov	ecx, DWORD PTR [eax+44]
	push	ecx
	call	?teamType@CvPreGame@@YA?AW4TeamTypes@@W4PlayerTypes@@@Z ; CvPreGame::teamType
	add	esp, 4
	push	eax
	mov	ecx, DWORD PTR _pPlot$221456[ebp]
	call	?setRevealed@CvPlot@@QAE_NW4TeamTypes@@_N10@Z ; CvPlot::setRevealed

; 1179 : 		pPlot->setRevealedImprovementType(pAssignedPlayer->getTeam(), pPlot->getImprovementType());

	mov	edx, DWORD PTR _pAssignedPlayer$[ebp]
	mov	eax, DWORD PTR [edx+44]
	push	eax
	call	?teamType@CvPreGame@@YA?AW4TeamTypes@@W4PlayerTypes@@@Z ; CvPreGame::teamType
	add	esp, 4
	mov	DWORD PTR $T235995[ebp], eax
	mov	ecx, DWORD PTR _pPlot$221456[ebp]
	call	?getImprovementType@CvPlot@@QBE?AW4ImprovementTypes@@XZ ; CvPlot::getImprovementType
	push	eax
	mov	ecx, DWORD PTR $T235995[ebp]
	push	ecx
	mov	ecx, DWORD PTR _pPlot$221456[ebp]
	call	?setRevealedImprovementType@CvPlot@@QAE_NW4TeamTypes@@W4ImprovementTypes@@@Z ; CvPlot::setRevealedImprovementType

; 1180 : 
; 1181 : 		strMessage = Localization::Lookup("TXT_KEY_NOTIFICATION_QUEST_KILL_CAMP");

	push	OFFSET ??_C@_0CF@MAOJPBCF@TXT_KEY_NOTIFICATION_QUEST_KILL_@
	lea	edx, DWORD PTR $T235879[ebp]
	push	edx
	call	DWORD PTR __imp_?Lookup@Localization@@YA?AVString@1@PBD@Z
	add	esp, 8
	mov	DWORD PTR tv84[ebp], eax
	mov	eax, DWORD PTR tv84[ebp]
	mov	DWORD PTR tv244[ebp], eax
	mov	BYTE PTR __$EHRec$[ebp+8], 2
	mov	ecx, DWORD PTR tv244[ebp]
	push	ecx
	lea	ecx, DWORD PTR _strMessage$[ebp]
	call	DWORD PTR __imp_??4String@Localization@@QAEAAV01@ABV01@@Z
	mov	BYTE PTR __$EHRec$[ebp+8], 1
	lea	ecx, DWORD PTR $T235879[ebp]
	call	DWORD PTR __imp_??1String@Localization@@UAE@XZ

; 1182 : 		strSummary = Localization::Lookup("TXT_KEY_NOTIFICATION_SUMMARY_QUEST_KILL_CAMP");

	push	OFFSET ??_C@_0CN@NIAFEJJC@TXT_KEY_NOTIFICATION_SUMMARY_QUE@
	lea	edx, DWORD PTR $T235880[ebp]
	push	edx
	call	DWORD PTR __imp_?Lookup@Localization@@YA?AVString@1@PBD@Z
	add	esp, 8
	mov	DWORD PTR tv81[ebp], eax
	mov	eax, DWORD PTR tv81[ebp]
	mov	DWORD PTR tv246[ebp], eax
	mov	BYTE PTR __$EHRec$[ebp+8], 3
	mov	ecx, DWORD PTR tv246[ebp]
	push	ecx
	lea	ecx, DWORD PTR _strSummary$[ebp]
	call	DWORD PTR __imp_??4String@Localization@@QAEAAV01@ABV01@@Z
	mov	BYTE PTR __$EHRec$[ebp+8], 1
	lea	ecx, DWORD PTR $T235880[ebp]
	call	DWORD PTR __imp_??1String@Localization@@UAE@XZ

; 1183 : 		iNotificationX = pPlot->getX();

	mov	edx, DWORD PTR _pPlot$221456[ebp]
	movsx	eax, WORD PTR [edx]
	mov	DWORD PTR _iNotificationX$[ebp], eax

; 1184 : 		iNotificationY = pPlot->getY();

	mov	ecx, DWORD PTR _pPlot$221456[ebp]
	movsx	edx, WORD PTR [ecx+2]
	mov	DWORD PTR _iNotificationY$[ebp], edx

; 1185 : 
; 1186 : 		strMessage << pMinor->getNameKey();

	mov	ecx, DWORD PTR _pMinor$[ebp]
	call	?getNameKey@CvPlayer@@QBEPBDXZ		; CvPlayer::getNameKey
	mov	DWORD PTR $T235881[ebp], eax
	lea	eax, DWORD PTR $T235881[ebp]
	push	eax
	lea	ecx, DWORD PTR _strMessage$[ebp]
	push	ecx
	call	??$?6PBD@@YAAAVString@Localization@@AAV01@ABQBD@Z ; operator<<<char const *>
	add	esp, 8

; 1187 : 		strSummary << pMinor->getNameKey();

	mov	ecx, DWORD PTR _pMinor$[ebp]
	call	?getNameKey@CvPlayer@@QBEPBDXZ		; CvPlayer::getNameKey
	mov	DWORD PTR $T235882[ebp], eax
	lea	edx, DWORD PTR $T235882[ebp]
	push	edx
	lea	eax, DWORD PTR _strSummary$[ebp]
	push	eax
	call	??$?6PBD@@YAAAVString@Localization@@AAV01@ABQBD@Z ; operator<<<char const *>
	add	esp, 8

; 1188 : 		pMinor->GetMinorCivAI()->AddQuestNotification(strMessage.toUTF8(), strSummary.toUTF8(), m_eAssignedPlayer, iNotificationX, iNotificationY);

	push	0
	mov	ecx, DWORD PTR _iNotificationY$[ebp]
	push	ecx
	mov	edx, DWORD PTR _iNotificationX$[ebp]
	push	edx
	mov	eax, DWORD PTR _this$[ebp]
	mov	ecx, DWORD PTR [eax+4]
	push	ecx
	lea	ecx, DWORD PTR _strSummary$[ebp]
	call	DWORD PTR __imp_?toUTF8@String@Localization@@QAEPBDXZ
	mov	DWORD PTR $T236011[ebp], eax
	sub	esp, 28					; 0000001cH
	mov	edx, esp
	mov	DWORD PTR $T235883[ebp], esp
	mov	DWORD PTR $T236010[ebp], edx
	cmp	DWORD PTR $T236011[ebp], 0
	je	SHORT $LN69@DoStartQue@2
	mov	eax, DWORD PTR $T236011[ebp]
	mov	DWORD PTR tv308[ebp], eax
	jmp	SHORT $LN70@DoStartQue@2
$LN69@DoStartQue@2:
	mov	DWORD PTR tv308[ebp], OFFSET ??_C@_00CNPNBAHC@?$AA@
$LN70@DoStartQue@2:
	mov	ecx, DWORD PTR tv308[ebp]
	push	ecx
	mov	ecx, DWORD PTR $T236010[ebp]
	call	DWORD PTR __imp_??0?$basic_string@DU?$char_traits@D@std@@V?$allocator@D@2@@std@@QAE@PBD@Z
	mov	edx, DWORD PTR $T236010[ebp]
	mov	DWORD PTR tv252[ebp], edx
	mov	BYTE PTR __$EHRec$[ebp+8], 4
	lea	ecx, DWORD PTR _strMessage$[ebp]
	call	DWORD PTR __imp_?toUTF8@String@Localization@@QAEPBDXZ
	mov	DWORD PTR $T236021[ebp], eax
	sub	esp, 28					; 0000001cH
	mov	eax, esp
	mov	DWORD PTR $T235884[ebp], esp
	mov	DWORD PTR $T236020[ebp], eax
	cmp	DWORD PTR $T236021[ebp], 0
	je	SHORT $LN74@DoStartQue@2
	mov	ecx, DWORD PTR $T236021[ebp]
	mov	DWORD PTR tv321[ebp], ecx
	jmp	SHORT $LN75@DoStartQue@2
$LN74@DoStartQue@2:
	mov	DWORD PTR tv321[ebp], OFFSET ??_C@_00CNPNBAHC@?$AA@
$LN75@DoStartQue@2:
	mov	edx, DWORD PTR tv321[ebp]
	push	edx
	mov	ecx, DWORD PTR $T236020[ebp]
	call	DWORD PTR __imp_??0?$basic_string@DU?$char_traits@D@std@@V?$allocator@D@2@@std@@QAE@PBD@Z
	mov	eax, DWORD PTR $T236020[ebp]
	mov	DWORD PTR tv255[ebp], eax
	mov	BYTE PTR __$EHRec$[ebp+8], 5
	mov	ecx, DWORD PTR _pMinor$[ebp]
	call	?GetMinorCivAI@CvPlayer@@QBEPAVCvMinorCivAI@@XZ ; CvPlayer::GetMinorCivAI
	mov	BYTE PTR __$EHRec$[ebp+8], 1
	mov	ecx, eax
	call	?AddQuestNotification@CvMinorCivAI@@QAEXVCvString@@0W4PlayerTypes@@HH_N@Z ; CvMinorCivAI::AddQuestNotification
	jmp	SHORT $LN3@DoStartQue@2
$LN6@DoStartQue@2:

; 1189 : 	}
; 1190 : 
; 1191 : 	// Other global quests (ie. contests) - Quest data is initialized as normal except for the start turn, which was in the past
; 1192 : 	else if(pMinor->GetMinorCivAI()->IsGlobalQuest(pExistingQuest->GetType()))

	mov	ecx, DWORD PTR _pExistingQuest$[ebp]
	call	?GetType@CvMinorCivQuest@@QBE?AW4MinorCivQuestTypes@@XZ ; CvMinorCivQuest::GetType
	push	eax
	mov	ecx, DWORD PTR _pMinor$[ebp]
	call	?GetMinorCivAI@CvPlayer@@QBEPAVCvMinorCivAI@@XZ ; CvPlayer::GetMinorCivAI
	mov	ecx, eax
	call	?IsGlobalQuest@CvMinorCivAI@@QBE_NW4MinorCivQuestTypes@@@Z ; CvMinorCivAI::IsGlobalQuest
	movzx	ecx, al
	test	ecx, ecx
	je	SHORT $LN2@DoStartQue@2

; 1193 : 	{
; 1194 : 		DoStartQuest(pExistingQuest->GetStartTurn());

	mov	ecx, DWORD PTR _pExistingQuest$[ebp]
	call	?GetStartTurn@CvMinorCivQuest@@QBEHXZ	; CvMinorCivQuest::GetStartTurn
	push	eax
	mov	ecx, DWORD PTR _this$[ebp]
	call	?DoStartQuest@CvMinorCivQuest@@QAEXH@Z	; CvMinorCivQuest::DoStartQuest

; 1195 : 	}
; 1196 : 
; 1197 : 	// Personal quests - Should not be started from an existing quest's data!!
; 1198 : 	else

	jmp	SHORT $LN3@DoStartQue@2
$LN2@DoStartQue@2:

; 1199 : 	{
; 1200 : 		CvAssertMsg(false, "Trying to start a personal quest using existing quest data.  This should not be done.  Please send Anton your save file and version.");
; 1201 : 		DoStartQuest(pExistingQuest->GetStartTurn());

	mov	ecx, DWORD PTR _pExistingQuest$[ebp]
	call	?GetStartTurn@CvMinorCivQuest@@QBEHXZ	; CvMinorCivQuest::GetStartTurn
	push	eax
	mov	ecx, DWORD PTR _this$[ebp]
	call	?DoStartQuest@CvMinorCivQuest@@QAEXH@Z	; CvMinorCivQuest::DoStartQuest
$LN3@DoStartQue@2:

; 1202 : 	}
; 1203 : }

	mov	BYTE PTR __$EHRec$[ebp+8], 0
	lea	ecx, DWORD PTR _strSummary$[ebp]
	call	DWORD PTR __imp_??1String@Localization@@UAE@XZ
	mov	DWORD PTR __$EHRec$[ebp+8], -1
	lea	ecx, DWORD PTR _strMessage$[ebp]
	call	DWORD PTR __imp_??1String@Localization@@UAE@XZ
$LN9@DoStartQue@2:
	mov	ecx, DWORD PTR __$EHRec$[ebp]
	mov	DWORD PTR fs:0, ecx
	pop	ecx
	mov	esp, ebp
	pop	ebp
	ret	4
_TEXT	ENDS
;	COMDAT text$x
text$x	SEGMENT
__unwindfunclet$?DoStartQuestUsingExistingData@CvMinorCivQuest@@QAEXPAV1@@Z$0:
	lea	ecx, DWORD PTR _strMessage$[ebp]
	jmp	DWORD PTR __imp_??1String@Localization@@UAE@XZ
__unwindfunclet$?DoStartQuestUsingExistingData@CvMinorCivQuest@@QAEXPAV1@@Z$1:
	lea	ecx, DWORD PTR _strSummary$[ebp]
	jmp	DWORD PTR __imp_??1String@Localization@@UAE@XZ
__unwindfunclet$?DoStartQuestUsingExistingData@CvMinorCivQuest@@QAEXPAV1@@Z$2:
	lea	ecx, DWORD PTR $T235879[ebp]
	jmp	DWORD PTR __imp_??1String@Localization@@UAE@XZ
__unwindfunclet$?DoStartQuestUsingExistingData@CvMinorCivQuest@@QAEXPAV1@@Z$3:
	lea	ecx, DWORD PTR $T235880[ebp]
	jmp	DWORD PTR __imp_??1String@Localization@@UAE@XZ
__unwindfunclet$?DoStartQuestUsingExistingData@CvMinorCivQuest@@QAEXPAV1@@Z$4:
	mov	ecx, DWORD PTR $T235883[ebp]
	jmp	??1CvString@@QAE@XZ			; CvString::~CvString
__unwindfunclet$?DoStartQuestUsingExistingData@CvMinorCivQuest@@QAEXPAV1@@Z$5:
	mov	ecx, DWORD PTR $T235884[ebp]
	jmp	??1CvString@@QAE@XZ			; CvString::~CvString
__ehhandler$?DoStartQuestUsingExistingData@CvMinorCivQuest@@QAEXPAV1@@Z:
	mov	edx, DWORD PTR [esp+8]
	lea	eax, DWORD PTR [edx+12]
	mov	ecx, DWORD PTR [edx-464]
	xor	ecx, eax
	call	@__security_check_cookie@4
	mov	eax, OFFSET __ehfuncinfo$?DoStartQuestUsingExistingData@CvMinorCivQuest@@QAEXPAV1@@Z
	jmp	___CxxFrameHandler3
text$x	ENDS
?DoStartQuestUsingExistingData@CvMinorCivQuest@@QAEXPAV1@@Z ENDP ; CvMinorCivQuest::DoStartQuestUsingExistingData
PUBLIC	??1?$pair@VCvString@@V1@@std@@QAE@XZ		; std::pair<CvString,CvString>::~pair<CvString,CvString>
PUBLIC	??_C@_0BD@CNJPLLGH@?$FLNEWLINE?$FN?$FLNEWLINE?$FN?$AA@ ; `string'
PUBLIC	?GetStatusChangeNotificationStrings@CvMinorCivAI@@QAE?AU?$pair@VCvString@@V1@@std@@W4PlayerTypes@@_N1100@Z ; CvMinorCivAI::GetStatusChangeNotificationStrings
PUBLIC	?GetNamesListAsString@CvMinorCivAI@@QAE?AVCvString@@V?$FStaticVector@W4PlayerTypes@@$0EA@$00$0BCJ@$0A@@@@Z ; CvMinorCivAI::GetNamesListAsString
PUBLIC	??_C@_0DI@JEIAPGCG@TXT_KEY_NOTIFICATION_SUMMARY_QUE@ ; `string'
PUBLIC	??_C@_0DA@MENAOIK@TXT_KEY_NOTIFICATION_QUEST_COMPL@ ; `string'
PUBLIC	??_C@_0DM@KNAPHEH@TXT_KEY_NOTIFICATION_SUMMARY_QUE@ ; `string'
PUBLIC	??_C@_0DE@DGDKMBOH@TXT_KEY_NOTIFICATION_QUEST_COMPL@ ; `string'
PUBLIC	??_C@_07BCHCBILN@Atheism?$AA@			; `string'
PUBLIC	??_C@_0DL@LMELAEEN@TXT_KEY_NOTIFICATION_SUMMARY_QUE@ ; `string'
PUBLIC	??_C@_0DD@FFJJHFGJ@TXT_KEY_NOTIFICATION_QUEST_COMPL@ ; `string'
PUBLIC	??_C@_0DN@BKMONKCC@TXT_KEY_NOTIFICATION_SUMMARY_QUE@ ; `string'
PUBLIC	??_C@_0DF@MMCEJDPM@TXT_KEY_NOTIFICATION_QUEST_COMPL@ ; `string'
PUBLIC	??_C@_0DD@CMGLGCBM@TXT_KEY_NOTIFICATION_SUMMARY_QUE@ ; `string'
PUBLIC	??_C@_0CL@IFIPAOEM@TXT_KEY_NOTIFICATION_QUEST_COMPL@ ; `string'
PUBLIC	??_C@_0DK@KABLMNMG@TXT_KEY_NOTIFICATION_SUMMARY_QUE@ ; `string'
PUBLIC	??_C@_0DC@BBMPNMMA@TXT_KEY_NOTIFICATION_QUEST_COMPL@ ; `string'
PUBLIC	??_C@_0DK@MIDCLJHM@TXT_KEY_NOTIFICATION_SUMMARY_QUE@ ; `string'
PUBLIC	??_C@_0DC@HJOGKIHK@TXT_KEY_NOTIFICATION_QUEST_COMPL@ ; `string'
PUBLIC	??4?$FStaticVector@W4PlayerTypes@@$0EA@$00$0BCJ@$0A@@@QAEXABV0@@Z ; FStaticVector<enum PlayerTypes,64,1,297,0>::operator=
PUBLIC	??_C@_0DM@PKMOBMDG@TXT_KEY_NOTIFICATION_SUMMARY_QUE@ ; `string'
PUBLIC	??_C@_0DE@MGCECKJG@TXT_KEY_NOTIFICATION_QUEST_COMPL@ ; `string'
PUBLIC	??_C@_0DO@PFPEMDMC@TXT_KEY_NOTIFICATION_SUMMARY_QUE@ ; `string'
PUBLIC	??_C@_0DG@JEEJNGFI@TXT_KEY_NOTIFICATION_QUEST_COMPL@ ; `string'
PUBLIC	??_C@_0DG@JMFPCNFA@TXT_KEY_NOTIFICATION_SUMMARY_QUE@ ; `string'
PUBLIC	??_C@_0CO@JOMMABID@TXT_KEY_NOTIFICATION_QUEST_COMPL@ ; `string'
PUBLIC	??_C@_0EA@IBLIKFHJ@TXT_KEY_NOTIFICATION_SUMMARY_QUE@ ; `string'
PUBLIC	??_C@_0DI@GHMLECLP@TXT_KEY_NOTIFICATION_QUEST_COMPL@ ; `string'
PUBLIC	??_C@_0DI@MHBBOPKO@TXT_KEY_NOTIFICATION_SUMMARY_QUE@ ; `string'
PUBLIC	??_C@_0DA@FPNMBHAC@TXT_KEY_NOTIFICATION_QUEST_COMPL@ ; `string'
PUBLIC	??_C@_0DM@NMOMMNNL@TXT_KEY_NOTIFICATION_SUMMARY_QUE@ ; `string'
PUBLIC	??_C@_0DE@OAAGPLHL@TXT_KEY_NOTIFICATION_QUEST_COMPL@ ; `string'
PUBLIC	??_C@_0DJ@EMIBBAFA@TXT_KEY_NOTIFICATION_SUMMARY_QUE@ ; `string'
PUBLIC	??_C@_0DB@JDHJDCGL@TXT_KEY_NOTIFICATION_QUEST_COMPL@ ; `string'
PUBLIC	??_C@_0DN@BLMDOEMJ@TXT_KEY_NOTIFICATION_SUMMARY_QUE@ ; `string'
PUBLIC	??_C@_0DF@MNCJKNBH@TXT_KEY_NOTIFICATION_QUEST_COMPL@ ; `string'
PUBLIC	??_C@_0DN@MBNJOOBK@TXT_KEY_NOTIFICATION_SUMMARY_QUE@ ; `string'
PUBLIC	??_C@_0DF@BHDDKHME@TXT_KEY_NOTIFICATION_QUEST_COMPL@ ; `string'
PUBLIC	??_C@_0DG@MELDMJHP@TXT_KEY_NOTIFICATION_SUMMARY_QUE@ ; `string'
PUBLIC	??_C@_0CO@MGCAOFKM@TXT_KEY_NOTIFICATION_QUEST_COMPL@ ; `string'
PUBLIC	??_C@_0DE@KGEFMFOO@TXT_KEY_NOTIFICATION_SUMMARY_MIN@ ; `string'
PUBLIC	??_C@_0CM@MNIHHAHG@TXT_KEY_NOTIFICATION_MINOR_ROUTE@ ; `string'
PUBLIC	?SetRouteConnectionEstablished@CvMinorCivAI@@QAEXW4PlayerTypes@@_N@Z ; CvMinorCivAI::SetRouteConnectionEstablished
PUBLIC	?ChangeFriendshipWithMajor@CvMinorCivAI@@QAEXW4PlayerTypes@@H_N@Z ; CvMinorCivAI::ChangeFriendshipWithMajor
PUBLIC	?GetEffectiveFriendshipWithMajor@CvMinorCivAI@@QAEHW4PlayerTypes@@@Z ; CvMinorCivAI::GetEffectiveFriendshipWithMajor
PUBLIC	?GetAlly@CvMinorCivAI@@QBE?AW4PlayerTypes@@XZ	; CvMinorCivAI::GetAlly
PUBLIC	?IsAllies@CvMinorCivAI@@QBE_NW4PlayerTypes@@@Z	; CvMinorCivAI::IsAllies
PUBLIC	?IsFriends@CvMinorCivAI@@QAE_NW4PlayerTypes@@@Z	; CvMinorCivAI::IsFriends
PUBLIC	__$ArrayPad$
PUBLIC	?DoFinishQuest@CvMinorCivQuest@@QAE_NXZ		; CvMinorCivQuest::DoFinishQuest
EXTRN	__imp_??0?$basic_string@DU?$char_traits@D@std@@V?$allocator@D@2@@std@@QAE@ABV01@@Z:PROC
EXTRN	__imp_??$?HDU?$char_traits@D@std@@V?$allocator@D@1@@std@@YA?AV?$basic_string@DU?$char_traits@D@std@@V?$allocator@D@2@@0@ABV10@PBD@Z:PROC
EXTRN	__imp_?assign@?$basic_string@DU?$char_traits@D@std@@V?$allocator@D@2@@std@@QAEAAV12@PBD@Z:PROC
EXTRN	__imp_??$?HDU?$char_traits@D@std@@V?$allocator@D@1@@std@@YA?AV?$basic_string@DU?$char_traits@D@std@@V?$allocator@D@2@@0@ABV10@0@Z:PROC
EXTRN	?getActivePlayer@CvGame@@QBE?AW4PlayerTypes@@XZ:PROC ; CvGame::getActivePlayer
EXTRN	__imp_??4?$basic_string@DU?$char_traits@D@std@@V?$allocator@D@2@@std@@QAEAAV01@ABV01@@Z:PROC
EXTRN	__chkstk:PROC
;	COMDAT ??_C@_0BD@CNJPLLGH@?$FLNEWLINE?$FN?$FLNEWLINE?$FN?$AA@
; File d:\sources\lekmod_git\checkout\lekmod_dll\fireplace\include\fireworks\ffastvector.h
CONST	SEGMENT
??_C@_0BD@CNJPLLGH@?$FLNEWLINE?$FN?$FLNEWLINE?$FN?$AA@ DB '[NEWLINE][NEWL'
	DB	'INE]', 00H					; `string'
CONST	ENDS
;	COMDAT ??_C@_0DI@JEIAPGCG@TXT_KEY_NOTIFICATION_SUMMARY_QUE@
CONST	SEGMENT
??_C@_0DI@JEIAPGCG@TXT_KEY_NOTIFICATION_SUMMARY_QUE@ DB 'TXT_KEY_NOTIFICA'
	DB	'TION_SUMMARY_QUEST_COMPLETE_TRADE_ROUTE', 00H ; `string'
CONST	ENDS
;	COMDAT ??_C@_0DA@MENAOIK@TXT_KEY_NOTIFICATION_QUEST_COMPL@
CONST	SEGMENT
??_C@_0DA@MENAOIK@TXT_KEY_NOTIFICATION_QUEST_COMPL@ DB 'TXT_KEY_NOTIFICAT'
	DB	'ION_QUEST_COMPLETE_TRADE_ROUTE', 00H	; `string'
CONST	ENDS
;	COMDAT ??_C@_0DM@KNAPHEH@TXT_KEY_NOTIFICATION_SUMMARY_QUE@
CONST	SEGMENT
??_C@_0DM@KNAPHEH@TXT_KEY_NOTIFICATION_SUMMARY_QUE@ DB 'TXT_KEY_NOTIFICAT'
	DB	'ION_SUMMARY_QUEST_COMPLETE_SPREAD_RELIGION', 00H ; `string'
CONST	ENDS
;	COMDAT ??_C@_0DE@DGDKMBOH@TXT_KEY_NOTIFICATION_QUEST_COMPL@
CONST	SEGMENT
??_C@_0DE@DGDKMBOH@TXT_KEY_NOTIFICATION_QUEST_COMPL@ DB 'TXT_KEY_NOTIFICA'
	DB	'TION_QUEST_COMPLETE_SPREAD_RELIGION', 00H	; `string'
CONST	ENDS
;	COMDAT ??_C@_07BCHCBILN@Atheism?$AA@
CONST	SEGMENT
??_C@_07BCHCBILN@Atheism?$AA@ DB 'Atheism', 00H		; `string'
CONST	ENDS
;	COMDAT ??_C@_0DL@LMELAEEN@TXT_KEY_NOTIFICATION_SUMMARY_QUE@
CONST	SEGMENT
??_C@_0DL@LMELAEEN@TXT_KEY_NOTIFICATION_SUMMARY_QUE@ DB 'TXT_KEY_NOTIFICA'
	DB	'TION_SUMMARY_QUEST_COMPLETE_DENOUNCE_MAJOR', 00H ; `string'
CONST	ENDS
;	COMDAT ??_C@_0DD@FFJJHFGJ@TXT_KEY_NOTIFICATION_QUEST_COMPL@
CONST	SEGMENT
??_C@_0DD@FFJJHFGJ@TXT_KEY_NOTIFICATION_QUEST_COMPL@ DB 'TXT_KEY_NOTIFICA'
	DB	'TION_QUEST_COMPLETE_DENOUNCE_MAJOR', 00H	; `string'
CONST	ENDS
;	COMDAT ??_C@_0DN@BKMONKCC@TXT_KEY_NOTIFICATION_SUMMARY_QUE@
CONST	SEGMENT
??_C@_0DN@BKMONKCC@TXT_KEY_NOTIFICATION_SUMMARY_QUE@ DB 'TXT_KEY_NOTIFICA'
	DB	'TION_SUMMARY_QUEST_COMPLETE_BULLY_CITY_STATE', 00H ; `string'
CONST	ENDS
;	COMDAT ??_C@_0DF@MMCEJDPM@TXT_KEY_NOTIFICATION_QUEST_COMPL@
CONST	SEGMENT
??_C@_0DF@MMCEJDPM@TXT_KEY_NOTIFICATION_QUEST_COMPL@ DB 'TXT_KEY_NOTIFICA'
	DB	'TION_QUEST_COMPLETE_BULLY_CITY_STATE', 00H	; `string'
CONST	ENDS
;	COMDAT ??_C@_0DD@CMGLGCBM@TXT_KEY_NOTIFICATION_SUMMARY_QUE@
CONST	SEGMENT
??_C@_0DD@CMGLGCBM@TXT_KEY_NOTIFICATION_SUMMARY_QUE@ DB 'TXT_KEY_NOTIFICA'
	DB	'TION_SUMMARY_QUEST_COMPLETE_INVEST', 00H	; `string'
CONST	ENDS
;	COMDAT ??_C@_0CL@IFIPAOEM@TXT_KEY_NOTIFICATION_QUEST_COMPL@
CONST	SEGMENT
??_C@_0CL@IFIPAOEM@TXT_KEY_NOTIFICATION_QUEST_COMPL@ DB 'TXT_KEY_NOTIFICA'
	DB	'TION_QUEST_COMPLETE_INVEST', 00H		; `string'
CONST	ENDS
;	COMDAT ??_C@_0DK@KABLMNMG@TXT_KEY_NOTIFICATION_SUMMARY_QUE@
CONST	SEGMENT
??_C@_0DK@KABLMNMG@TXT_KEY_NOTIFICATION_SUMMARY_QUE@ DB 'TXT_KEY_NOTIFICA'
	DB	'TION_SUMMARY_QUEST_COMPLETE_CONTEST_TECHS', 00H ; `string'
CONST	ENDS
;	COMDAT ??_C@_0DC@BBMPNMMA@TXT_KEY_NOTIFICATION_QUEST_COMPL@
CONST	SEGMENT
??_C@_0DC@BBMPNMMA@TXT_KEY_NOTIFICATION_QUEST_COMPL@ DB 'TXT_KEY_NOTIFICA'
	DB	'TION_QUEST_COMPLETE_CONTEST_TECHS', 00H	; `string'
CONST	ENDS
;	COMDAT ??_C@_0DK@MIDCLJHM@TXT_KEY_NOTIFICATION_SUMMARY_QUE@
CONST	SEGMENT
??_C@_0DK@MIDCLJHM@TXT_KEY_NOTIFICATION_SUMMARY_QUE@ DB 'TXT_KEY_NOTIFICA'
	DB	'TION_SUMMARY_QUEST_COMPLETE_CONTEST_FAITH', 00H ; `string'
CONST	ENDS
;	COMDAT ??_C@_0DC@HJOGKIHK@TXT_KEY_NOTIFICATION_QUEST_COMPL@
CONST	SEGMENT
??_C@_0DC@HJOGKIHK@TXT_KEY_NOTIFICATION_QUEST_COMPL@ DB 'TXT_KEY_NOTIFICA'
	DB	'TION_QUEST_COMPLETE_CONTEST_FAITH', 00H	; `string'
CONST	ENDS
;	COMDAT ??_C@_0DM@PKMOBMDG@TXT_KEY_NOTIFICATION_SUMMARY_QUE@
CONST	SEGMENT
??_C@_0DM@PKMOBMDG@TXT_KEY_NOTIFICATION_SUMMARY_QUE@ DB 'TXT_KEY_NOTIFICA'
	DB	'TION_SUMMARY_QUEST_COMPLETE_CONTEST_CULTURE', 00H ; `string'
CONST	ENDS
;	COMDAT ??_C@_0DE@MGCECKJG@TXT_KEY_NOTIFICATION_QUEST_COMPL@
CONST	SEGMENT
??_C@_0DE@MGCECKJG@TXT_KEY_NOTIFICATION_QUEST_COMPL@ DB 'TXT_KEY_NOTIFICA'
	DB	'TION_QUEST_COMPLETE_CONTEST_CULTURE', 00H	; `string'
CONST	ENDS
;	COMDAT ??_C@_0DO@PFPEMDMC@TXT_KEY_NOTIFICATION_SUMMARY_QUE@
CONST	SEGMENT
??_C@_0DO@PFPEMDMC@TXT_KEY_NOTIFICATION_SUMMARY_QUE@ DB 'TXT_KEY_NOTIFICA'
	DB	'TION_SUMMARY_QUEST_COMPLETE_PLEDGE_TO_PROTECT', 00H ; `string'
CONST	ENDS
;	COMDAT ??_C@_0DG@JEEJNGFI@TXT_KEY_NOTIFICATION_QUEST_COMPL@
CONST	SEGMENT
??_C@_0DG@JEEJNGFI@TXT_KEY_NOTIFICATION_QUEST_COMPL@ DB 'TXT_KEY_NOTIFICA'
	DB	'TION_QUEST_COMPLETE_PLEDGE_TO_PROTECT', 00H	; `string'
CONST	ENDS
;	COMDAT ??_C@_0DG@JMFPCNFA@TXT_KEY_NOTIFICATION_SUMMARY_QUE@
CONST	SEGMENT
??_C@_0DG@JMFPCNFA@TXT_KEY_NOTIFICATION_SUMMARY_QUE@ DB 'TXT_KEY_NOTIFICA'
	DB	'TION_SUMMARY_QUEST_COMPLETE_GIVE_GOLD', 00H	; `string'
CONST	ENDS
;	COMDAT ??_C@_0CO@JOMMABID@TXT_KEY_NOTIFICATION_QUEST_COMPL@
CONST	SEGMENT
??_C@_0CO@JOMMABID@TXT_KEY_NOTIFICATION_QUEST_COMPL@ DB 'TXT_KEY_NOTIFICA'
	DB	'TION_QUEST_COMPLETE_GIVE_GOLD', 00H		; `string'
CONST	ENDS
;	COMDAT ??_C@_0EA@IBLIKFHJ@TXT_KEY_NOTIFICATION_SUMMARY_QUE@
CONST	SEGMENT
??_C@_0EA@IBLIKFHJ@TXT_KEY_NOTIFICATION_SUMMARY_QUE@ DB 'TXT_KEY_NOTIFICA'
	DB	'TION_SUMMARY_QUEST_COMPLETE_FIND_NATURAL_WONDER', 00H ; `string'
CONST	ENDS
;	COMDAT ??_C@_0DI@GHMLECLP@TXT_KEY_NOTIFICATION_QUEST_COMPL@
CONST	SEGMENT
??_C@_0DI@GHMLECLP@TXT_KEY_NOTIFICATION_QUEST_COMPL@ DB 'TXT_KEY_NOTIFICA'
	DB	'TION_QUEST_COMPLETE_FIND_NATURAL_WONDER', 00H ; `string'
CONST	ENDS
;	COMDAT ??_C@_0DI@MHBBOPKO@TXT_KEY_NOTIFICATION_SUMMARY_QUE@
CONST	SEGMENT
??_C@_0DI@MHBBOPKO@TXT_KEY_NOTIFICATION_SUMMARY_QUE@ DB 'TXT_KEY_NOTIFICA'
	DB	'TION_SUMMARY_QUEST_COMPLETE_FIND_PLAYER', 00H ; `string'
CONST	ENDS
;	COMDAT ??_C@_0DA@FPNMBHAC@TXT_KEY_NOTIFICATION_QUEST_COMPL@
CONST	SEGMENT
??_C@_0DA@FPNMBHAC@TXT_KEY_NOTIFICATION_QUEST_COMPL@ DB 'TXT_KEY_NOTIFICA'
	DB	'TION_QUEST_COMPLETE_FIND_PLAYER', 00H	; `string'
CONST	ENDS
;	COMDAT ??_C@_0DM@NMOMMNNL@TXT_KEY_NOTIFICATION_SUMMARY_QUE@
CONST	SEGMENT
??_C@_0DM@NMOMMNNL@TXT_KEY_NOTIFICATION_SUMMARY_QUE@ DB 'TXT_KEY_NOTIFICA'
	DB	'TION_SUMMARY_QUEST_COMPLETE_KILL_CITY_STATE', 00H ; `string'
CONST	ENDS
;	COMDAT ??_C@_0DE@OAAGPLHL@TXT_KEY_NOTIFICATION_QUEST_COMPL@
CONST	SEGMENT
??_C@_0DE@OAAGPLHL@TXT_KEY_NOTIFICATION_QUEST_COMPL@ DB 'TXT_KEY_NOTIFICA'
	DB	'TION_QUEST_COMPLETE_KILL_CITY_STATE', 00H	; `string'
CONST	ENDS
;	COMDAT ??_C@_0DJ@EMIBBAFA@TXT_KEY_NOTIFICATION_SUMMARY_QUE@
CONST	SEGMENT
??_C@_0DJ@EMIBBAFA@TXT_KEY_NOTIFICATION_SUMMARY_QUE@ DB 'TXT_KEY_NOTIFICA'
	DB	'TION_SUMMARY_QUEST_COMPLETE_GREAT_PERSON', 00H ; `string'
CONST	ENDS
;	COMDAT ??_C@_0DB@JDHJDCGL@TXT_KEY_NOTIFICATION_QUEST_COMPL@
CONST	SEGMENT
??_C@_0DB@JDHJDCGL@TXT_KEY_NOTIFICATION_QUEST_COMPL@ DB 'TXT_KEY_NOTIFICA'
	DB	'TION_QUEST_COMPLETE_GREAT_PERSON', 00H	; `string'
CONST	ENDS
;	COMDAT ??_C@_0DN@BLMDOEMJ@TXT_KEY_NOTIFICATION_SUMMARY_QUE@
CONST	SEGMENT
??_C@_0DN@BLMDOEMJ@TXT_KEY_NOTIFICATION_SUMMARY_QUE@ DB 'TXT_KEY_NOTIFICA'
	DB	'TION_SUMMARY_QUEST_COMPLETE_CONSTRUCT_WONDER', 00H ; `string'
CONST	ENDS
;	COMDAT ??_C@_0DF@MNCJKNBH@TXT_KEY_NOTIFICATION_QUEST_COMPL@
CONST	SEGMENT
??_C@_0DF@MNCJKNBH@TXT_KEY_NOTIFICATION_QUEST_COMPL@ DB 'TXT_KEY_NOTIFICA'
	DB	'TION_QUEST_COMPLETE_CONSTRUCT_WONDER', 00H	; `string'
CONST	ENDS
;	COMDAT ??_C@_0DN@MBNJOOBK@TXT_KEY_NOTIFICATION_SUMMARY_QUE@
CONST	SEGMENT
??_C@_0DN@MBNJOOBK@TXT_KEY_NOTIFICATION_SUMMARY_QUE@ DB 'TXT_KEY_NOTIFICA'
	DB	'TION_SUMMARY_QUEST_COMPLETE_CONNECT_RESOURCE', 00H ; `string'
CONST	ENDS
;	COMDAT ??_C@_0DF@BHDDKHME@TXT_KEY_NOTIFICATION_QUEST_COMPL@
CONST	SEGMENT
??_C@_0DF@BHDDKHME@TXT_KEY_NOTIFICATION_QUEST_COMPL@ DB 'TXT_KEY_NOTIFICA'
	DB	'TION_QUEST_COMPLETE_CONNECT_RESOURCE', 00H	; `string'
CONST	ENDS
;	COMDAT ??_C@_0DG@MELDMJHP@TXT_KEY_NOTIFICATION_SUMMARY_QUE@
CONST	SEGMENT
??_C@_0DG@MELDMJHP@TXT_KEY_NOTIFICATION_SUMMARY_QUE@ DB 'TXT_KEY_NOTIFICA'
	DB	'TION_SUMMARY_QUEST_COMPLETE_KILL_CAMP', 00H	; `string'
CONST	ENDS
;	COMDAT ??_C@_0CO@MGCAOFKM@TXT_KEY_NOTIFICATION_QUEST_COMPL@
CONST	SEGMENT
??_C@_0CO@MGCAOFKM@TXT_KEY_NOTIFICATION_QUEST_COMPL@ DB 'TXT_KEY_NOTIFICA'
	DB	'TION_QUEST_COMPLETE_KILL_CAMP', 00H		; `string'
CONST	ENDS
;	COMDAT ??_C@_0DE@KGEFMFOO@TXT_KEY_NOTIFICATION_SUMMARY_MIN@
CONST	SEGMENT
??_C@_0DE@KGEFMFOO@TXT_KEY_NOTIFICATION_SUMMARY_MIN@ DB 'TXT_KEY_NOTIFICA'
	DB	'TION_SUMMARY_MINOR_ROUTE_CONNECTION', 00H	; `string'
CONST	ENDS
;	COMDAT ??_C@_0CM@MNIHHAHG@TXT_KEY_NOTIFICATION_MINOR_ROUTE@
CONST	SEGMENT
??_C@_0CM@MNIHHAHG@TXT_KEY_NOTIFICATION_MINOR_ROUTE@ DB 'TXT_KEY_NOTIFICA'
	DB	'TION_MINOR_ROUTE_CONNECTION', 00H		; `string'
CONST	ENDS
;	COMDAT xdata$x
xdata$x	SEGMENT
__ehfuncinfo$?DoFinishQuest@CvMinorCivQuest@@QAE_NXZ DD 019930522H
	DD	037H
	DD	FLAT:__unwindtable$?DoFinishQuest@CvMinorCivQuest@@QAE_NXZ
	DD	2 DUP(00H)
	DD	2 DUP(00H)
	DD	00H
	DD	01H
__unwindtable$?DoFinishQuest@CvMinorCivQuest@@QAE_NXZ DD 0ffffffffH
	DD	FLAT:__unwindfunclet$?DoFinishQuest@CvMinorCivQuest@@QAE_NXZ$0
	DD	00H
	DD	FLAT:__unwindfunclet$?DoFinishQuest@CvMinorCivQuest@@QAE_NXZ$1
	DD	01H
	DD	FLAT:__unwindfunclet$?DoFinishQuest@CvMinorCivQuest@@QAE_NXZ$2
	DD	02H
	DD	FLAT:__unwindfunclet$?DoFinishQuest@CvMinorCivQuest@@QAE_NXZ$3
	DD	02H
	DD	FLAT:__unwindfunclet$?DoFinishQuest@CvMinorCivQuest@@QAE_NXZ$4
	DD	02H
	DD	FLAT:__unwindfunclet$?DoFinishQuest@CvMinorCivQuest@@QAE_NXZ$5
	DD	02H
	DD	FLAT:__unwindfunclet$?DoFinishQuest@CvMinorCivQuest@@QAE_NXZ$6
	DD	02H
	DD	FLAT:__unwindfunclet$?DoFinishQuest@CvMinorCivQuest@@QAE_NXZ$7
	DD	02H
	DD	FLAT:__unwindfunclet$?DoFinishQuest@CvMinorCivQuest@@QAE_NXZ$8
	DD	02H
	DD	FLAT:__unwindfunclet$?DoFinishQuest@CvMinorCivQuest@@QAE_NXZ$9
	DD	02H
	DD	FLAT:__unwindfunclet$?DoFinishQuest@CvMinorCivQuest@@QAE_NXZ$10
	DD	02H
	DD	FLAT:__unwindfunclet$?DoFinishQuest@CvMinorCivQuest@@QAE_NXZ$11
	DD	02H
	DD	FLAT:__unwindfunclet$?DoFinishQuest@CvMinorCivQuest@@QAE_NXZ$12
	DD	02H
	DD	FLAT:__unwindfunclet$?DoFinishQuest@CvMinorCivQuest@@QAE_NXZ$13
	DD	02H
	DD	FLAT:__unwindfunclet$?DoFinishQuest@CvMinorCivQuest@@QAE_NXZ$14
	DD	02H
	DD	FLAT:__unwindfunclet$?DoFinishQuest@CvMinorCivQuest@@QAE_NXZ$15
	DD	02H
	DD	FLAT:__unwindfunclet$?DoFinishQuest@CvMinorCivQuest@@QAE_NXZ$16
	DD	02H
	DD	FLAT:__unwindfunclet$?DoFinishQuest@CvMinorCivQuest@@QAE_NXZ$17
	DD	02H
	DD	FLAT:__unwindfunclet$?DoFinishQuest@CvMinorCivQuest@@QAE_NXZ$18
	DD	02H
	DD	FLAT:__unwindfunclet$?DoFinishQuest@CvMinorCivQuest@@QAE_NXZ$19
	DD	02H
	DD	FLAT:__unwindfunclet$?DoFinishQuest@CvMinorCivQuest@@QAE_NXZ$20
	DD	02H
	DD	FLAT:__unwindfunclet$?DoFinishQuest@CvMinorCivQuest@@QAE_NXZ$21
	DD	02H
	DD	FLAT:__unwindfunclet$?DoFinishQuest@CvMinorCivQuest@@QAE_NXZ$22
	DD	02H
	DD	FLAT:__unwindfunclet$?DoFinishQuest@CvMinorCivQuest@@QAE_NXZ$23
	DD	02H
	DD	FLAT:__unwindfunclet$?DoFinishQuest@CvMinorCivQuest@@QAE_NXZ$24
	DD	02H
	DD	FLAT:__unwindfunclet$?DoFinishQuest@CvMinorCivQuest@@QAE_NXZ$25
	DD	02H
	DD	FLAT:__unwindfunclet$?DoFinishQuest@CvMinorCivQuest@@QAE_NXZ$26
	DD	02H
	DD	FLAT:__unwindfunclet$?DoFinishQuest@CvMinorCivQuest@@QAE_NXZ$27
	DD	02H
	DD	FLAT:__unwindfunclet$?DoFinishQuest@CvMinorCivQuest@@QAE_NXZ$28
	DD	02H
	DD	FLAT:__unwindfunclet$?DoFinishQuest@CvMinorCivQuest@@QAE_NXZ$29
	DD	02H
	DD	FLAT:__unwindfunclet$?DoFinishQuest@CvMinorCivQuest@@QAE_NXZ$30
	DD	02H
	DD	FLAT:__unwindfunclet$?DoFinishQuest@CvMinorCivQuest@@QAE_NXZ$31
	DD	02H
	DD	FLAT:__unwindfunclet$?DoFinishQuest@CvMinorCivQuest@@QAE_NXZ$32
	DD	02H
	DD	FLAT:__unwindfunclet$?DoFinishQuest@CvMinorCivQuest@@QAE_NXZ$33
	DD	02H
	DD	FLAT:__unwindfunclet$?DoFinishQuest@CvMinorCivQuest@@QAE_NXZ$34
	DD	02H
	DD	FLAT:__unwindfunclet$?DoFinishQuest@CvMinorCivQuest@@QAE_NXZ$35
	DD	02H
	DD	FLAT:__unwindfunclet$?DoFinishQuest@CvMinorCivQuest@@QAE_NXZ$36
	DD	02H
	DD	FLAT:__unwindfunclet$?DoFinishQuest@CvMinorCivQuest@@QAE_NXZ$37
	DD	02H
	DD	FLAT:__unwindfunclet$?DoFinishQuest@CvMinorCivQuest@@QAE_NXZ$38
	DD	026H
	DD	FLAT:__unwindfunclet$?DoFinishQuest@CvMinorCivQuest@@QAE_NXZ$39
	DD	026H
	DD	FLAT:__unwindfunclet$?DoFinishQuest@CvMinorCivQuest@@QAE_NXZ$40
	DD	026H
	DD	FLAT:__unwindfunclet$?DoFinishQuest@CvMinorCivQuest@@QAE_NXZ$41
	DD	02H
	DD	FLAT:__unwindfunclet$?DoFinishQuest@CvMinorCivQuest@@QAE_NXZ$42
	DD	02H
	DD	FLAT:__unwindfunclet$?DoFinishQuest@CvMinorCivQuest@@QAE_NXZ$43
	DD	02H
	DD	FLAT:__unwindfunclet$?DoFinishQuest@CvMinorCivQuest@@QAE_NXZ$44
	DD	02cH
	DD	FLAT:__unwindfunclet$?DoFinishQuest@CvMinorCivQuest@@QAE_NXZ$45
	DD	02dH
	DD	FLAT:__unwindfunclet$?DoFinishQuest@CvMinorCivQuest@@QAE_NXZ$46
	DD	02dH
	DD	FLAT:__unwindfunclet$?DoFinishQuest@CvMinorCivQuest@@QAE_NXZ$47
	DD	02fH
	DD	FLAT:__unwindfunclet$?DoFinishQuest@CvMinorCivQuest@@QAE_NXZ$48
	DD	02dH
	DD	FLAT:__unwindfunclet$?DoFinishQuest@CvMinorCivQuest@@QAE_NXZ$49
	DD	031H
	DD	FLAT:__unwindfunclet$?DoFinishQuest@CvMinorCivQuest@@QAE_NXZ$50
	DD	032H
	DD	FLAT:__unwindfunclet$?DoFinishQuest@CvMinorCivQuest@@QAE_NXZ$51
	DD	02dH
	DD	FLAT:__unwindfunclet$?DoFinishQuest@CvMinorCivQuest@@QAE_NXZ$65
	DD	02dH
	DD	FLAT:__unwindfunclet$?DoFinishQuest@CvMinorCivQuest@@QAE_NXZ$52
	DD	035H
	DD	FLAT:__unwindfunclet$?DoFinishQuest@CvMinorCivQuest@@QAE_NXZ$53
; Function compile flags: /Odtp
; File d:\sources\lekmod_git\checkout\lekmod_dll\cvgamecoredll_expansion2\cvminorcivai.cpp
xdata$x	ENDS
;	COMDAT ?DoFinishQuest@CvMinorCivQuest@@QAE_NXZ
_TEXT	SEGMENT
tv1022 = -5136						; size = 4
tv1019 = -5132						; size = 4
tv1619 = -5128						; size = 4
tv1011 = -5124						; size = 4
tv849 = -5120						; size = 4
tv1618 = -5116						; size = 4
tv1006 = -5112						; size = 4
tv1004 = -5108						; size = 4
tv1003 = -5104						; size = 4
tv1616 = -5100						; size = 4
tv1402 = -5096						; size = 4
tv1389 = -5092						; size = 4
tv767 = -5088						; size = 4
tv999 = -5084						; size = 4
tv1615 = -5080						; size = 4
tv997 = -5076						; size = 4
tv1614 = -5072						; size = 4
tv995 = -5068						; size = 4
tv1613 = -5064						; size = 4
tv993 = -5060						; size = 4
tv1612 = -5056						; size = 4
tv1611 = -5052						; size = 4
tv1349 = -5048						; size = 4
tv988 = -5044						; size = 4
tv1610 = -5040						; size = 4
tv986 = -5036						; size = 4
tv1609 = -5032						; size = 4
tv984 = -5028						; size = 4
tv1608 = -5024						; size = 4
tv982 = -5020						; size = 4
tv1607 = -5016						; size = 4
tv980 = -5012						; size = 4
tv1606 = -5008						; size = 4
tv978 = -5004						; size = 4
tv1605 = -5000						; size = 4
tv976 = -4996						; size = 4
tv1604 = -4992						; size = 4
tv974 = -4988						; size = 4
tv1603 = -4984						; size = 4
tv972 = -4980						; size = 4
tv1602 = -4976						; size = 4
tv970 = -4972						; size = 4
tv1601 = -4968						; size = 4
tv968 = -4964						; size = 4
tv1600 = -4960						; size = 4
tv966 = -4956						; size = 4
tv1567 = -4952						; size = 4
tv964 = -4948						; size = 4
tv1558 = -4944						; size = 4
tv962 = -4940						; size = 4
tv1560 = -4936						; size = 4
tv960 = -4932						; size = 4
tv1559 = -4928						; size = 4
tv958 = -4924						; size = 4
tv1539 = -4920						; size = 4
tv956 = -4916						; size = 4
tv1551 = -4912						; size = 4
tv954 = -4908						; size = 4
tv1545 = -4904						; size = 4
tv952 = -4900						; size = 4
tv1538 = -4896						; size = 4
tv950 = -4892						; size = 4
tv1540 = -4888						; size = 4
tv948 = -4884						; size = 4
tv1553 = -4880						; size = 4
tv946 = -4876						; size = 4
tv1564 = -4872						; size = 4
tv944 = -4868						; size = 4
tv1565 = -4864						; size = 4
tv942 = -4860						; size = 4
tv1566 = -4856						; size = 4
tv940 = -4852						; size = 4
tv1561 = -4848						; size = 4
tv938 = -4844						; size = 4
tv1562 = -4840						; size = 4
tv936 = -4836						; size = 4
tv1563 = -4832						; size = 4
tv934 = -4828						; size = 4
tv1357 = -4824						; size = 4
tv932 = -4820						; size = 4
tv1387 = -4816						; size = 4
tv930 = -4812						; size = 4
tv1400 = -4808						; size = 4
tv928 = -4804						; size = 4
tv1495 = -4800						; size = 4
tv926 = -4796						; size = 4
tv1514 = -4792						; size = 4
tv924 = -4788						; size = 4
tv167 = -4784						; size = 4
tv922 = -4780						; size = 4
tv170 = -4776						; size = 4
tv920 = -4772						; size = 4
tv173 = -4768						; size = 4
_this$ = -4764						; size = 4
$T236381 = -4748					; size = 4
$T236376 = -4744					; size = 4
$T236361 = -4740					; size = 4
$T236353 = -4736					; size = 4
$T236345 = -4732					; size = 4
$T236322 = -4712					; size = 4
$T236318 = -4708					; size = 4
$T236309 = -4704					; size = 4
$T236300 = -4700					; size = 4
$T236296 = -4696					; size = 4
$T236284 = -4692					; size = 4
$T236280 = -4688					; size = 4
$T236268 = -4684					; size = 4
$T236264 = -4680					; size = 4
$T236179 = -4604					; size = 4
$T236175 = -4600					; size = 4
$T236171 = -4596					; size = 4
$T236167 = -4592					; size = 4
$T236163 = -4588					; size = 4
$T236159 = -4584					; size = 4
$T236155 = -4580					; size = 4
$T236082 = -4565					; size = 1
$T236081 = -4564					; size = 4
$T236080 = -4560					; size = 4
$T236079 = -4556					; size = 28
$T236078 = -4528					; size = 28
$T236077 = -4500					; size = 28
$T236076 = -4472					; size = 28
$T236075 = -4444					; size = 4
$T236074 = -4440					; size = 4
$T236073 = -4436					; size = 4
$T236072 = -4432					; size = 80
$T236071 = -4352					; size = 80
$T236070 = -4272					; size = 4
$T236069 = -4268					; size = 80
$T236068 = -4188					; size = 4
$T236067 = -4184					; size = 80
$T236066 = -4104					; size = 28
$T236065 = -4076					; size = 80
$T236064 = -3996					; size = 80
$T236063 = -3916					; size = 80
$T236062 = -3836					; size = 80
$T236061 = -3756					; size = 80
$T236060 = -3676					; size = 80
$T236059 = -3596					; size = 272
$T236058 = -3324					; size = 80
$T236057 = -3244					; size = 80
$T236056 = -3164					; size = 272
$T236055 = -2892					; size = 80
$T236054 = -2812					; size = 80
$T236053 = -2732					; size = 272
$T236052 = -2460					; size = 80
$T236051 = -2380					; size = 80
$T236050 = -2300					; size = 80
$T236049 = -2220					; size = 80
$T236048 = -2140					; size = 80
$T236047 = -2060					; size = 80
$T236046 = -1980					; size = 80
$T236045 = -1900					; size = 80
$T236044 = -1820					; size = 80
$T236043 = -1740					; size = 80
$T236042 = -1660					; size = 80
$T236041 = -1580					; size = 80
$T236040 = -1500					; size = 80
$T236039 = -1420					; size = 80
$T236038 = -1340					; size = 80
$T236037 = -1260					; size = 80
$T236036 = -1180					; size = 80
$T236035 = -1100					; size = 80
$T236034 = -1020					; size = 80
$T236033 = -940						; size = 80
$T236032 = -860						; size = 80
$T236031 = -780						; size = 80
_statusChangeStrings$221680 = -700			; size = 56
_pReligion$221622 = -644				; size = 4
_eReligion$221617 = -640				; size = 4
_strReligionKey$221619 = -636				; size = 28
_eTargetMajor$221607 = -608				; size = 4
_strCivKey$221609 = -604				; size = 4
_strCivKey$221599 = -600				; size = 4
_eTargetMinor$221597 = -596				; size = 4
_eMostRecentBully$221560 = -592				; size = 4
_strCivKey$221562 = -588				; size = 4
_eMostRecentBully$221550 = -584				; size = 4
_strCivKey$221552 = -580				; size = 4
_ePlayerFound$221535 = -576				; size = 4
_strCivKey$221537 = -572				; size = 4
_eTargetCityState$221526 = -568				; size = 4
_strTargetNameKey$221528 = -564				; size = 4
_eUnit$221517 = -560					; size = 4
_strUnitName$221519 = -556				; size = 4
_eWonder$221508 = -552					; size = 4
_strBuildingName$221510 = -548				; size = 4
_eResource$221499 = -544				; size = 4
_strResourceName$221501 = -540				; size = 4
_eNewAlly$ = -536					; size = 4
_veNamesToShow$ = -532					; size = 272
_sSummary$ = -260					; size = 28
_iInfChange$ = -232					; size = 4
_iOldInf$ = -228					; size = 4
_bNowAllies$ = -222					; size = 1
_bNowFriends$ = -221					; size = 1
_sMessage$ = -220					; size = 28
__$ArrayPad$ = -192					; size = 4
_strMessage$ = -188					; size = 80
_strSummary$ = -108					; size = 80
_pMinor$ = -28						; size = 4
_eOldAlly$ = -24					; size = 4
_iNewInf$ = -20						; size = 4
_bWasFriends$ = -14					; size = 1
_bWasAllies$ = -13					; size = 1
__$EHRec$ = -12						; size = 12
?DoFinishQuest@CvMinorCivQuest@@QAE_NXZ PROC		; CvMinorCivQuest::DoFinishQuest, COMDAT
; _this$ = ecx

; 1208 : {

	push	ebp
	mov	ebp, esp
	push	-1
	push	__ehhandler$?DoFinishQuest@CvMinorCivQuest@@QAE_NXZ
	mov	eax, DWORD PTR fs:0
	push	eax
	mov	eax, 5124				; 00001404H
	call	__chkstk
	mov	eax, DWORD PTR ___security_cookie
	xor	eax, ebp
	mov	DWORD PTR __$ArrayPad$[ebp], eax
	push	eax
	lea	eax, DWORD PTR __$EHRec$[ebp]
	mov	DWORD PTR fs:0, eax
	mov	DWORD PTR _this$[ebp], ecx

; 1209 : 	if (!IsComplete())

	mov	ecx, DWORD PTR _this$[ebp]
	call	?IsComplete@CvMinorCivQuest@@QAE_NXZ	; CvMinorCivQuest::IsComplete
	movzx	eax, al
	test	eax, eax
	jne	SHORT $LN47@DoFinishQu

; 1210 : 		return false;

	xor	al, al
	jmp	$LN48@DoFinishQu
$LN47@DoFinishQu:

; 1211 : 
; 1212 : 	if (IsHandled())

	mov	ecx, DWORD PTR _this$[ebp]
	call	?IsHandled@CvMinorCivQuest@@QAE_NXZ	; CvMinorCivQuest::IsHandled
	movzx	ecx, al
	test	ecx, ecx
	je	SHORT $LN46@DoFinishQu

; 1213 : 		return false;

	xor	al, al
	jmp	$LN48@DoFinishQu
$LN46@DoFinishQu:

; 1214 : 
; 1215 : 	SetHandled(true); // We are handling the end of the quest, and this should only happen once

	push	1
	mov	ecx, DWORD PTR _this$[ebp]
	call	?SetHandled@CvMinorCivQuest@@QAEX_N@Z	; CvMinorCivQuest::SetHandled

; 1216 : 
; 1217 : 	CvPlayer* pMinor = &GET_PLAYER(m_eMinor);

	mov	edx, DWORD PTR _this$[ebp]
	mov	eax, DWORD PTR [edx]
	imul	eax, 63236				; 0000f704H
	add	eax, DWORD PTR ?m_aPlayers@CvPlayerAI@@1PAV1@A ; CvPlayerAI::m_aPlayers
	mov	DWORD PTR _pMinor$[ebp], eax

; 1218 : 
; 1219 : 	bool bWasFriends = pMinor->GetMinorCivAI()->IsFriends(m_eAssignedPlayer);

	mov	ecx, DWORD PTR _this$[ebp]
	mov	edx, DWORD PTR [ecx+4]
	push	edx
	mov	ecx, DWORD PTR _pMinor$[ebp]
	call	?GetMinorCivAI@CvPlayer@@QBEPAVCvMinorCivAI@@XZ ; CvPlayer::GetMinorCivAI
	mov	ecx, eax
	call	?IsFriends@CvMinorCivAI@@QAE_NW4PlayerTypes@@@Z ; CvMinorCivAI::IsFriends
	mov	BYTE PTR _bWasFriends$[ebp], al

; 1220 : 	bool bWasAllies = pMinor->GetMinorCivAI()->IsAllies(m_eAssignedPlayer);

	mov	eax, DWORD PTR _this$[ebp]
	mov	ecx, DWORD PTR [eax+4]
	push	ecx
	mov	ecx, DWORD PTR _pMinor$[ebp]
	call	?GetMinorCivAI@CvPlayer@@QBEPAVCvMinorCivAI@@XZ ; CvPlayer::GetMinorCivAI
	mov	ecx, eax
	call	?IsAllies@CvMinorCivAI@@QBE_NW4PlayerTypes@@@Z ; CvMinorCivAI::IsAllies
	mov	BYTE PTR _bWasAllies$[ebp], al

; 1221 : 	PlayerTypes eOldAlly = pMinor->GetMinorCivAI()->GetAlly();

	mov	ecx, DWORD PTR _pMinor$[ebp]
	call	?GetMinorCivAI@CvPlayer@@QBEPAVCvMinorCivAI@@XZ ; CvPlayer::GetMinorCivAI
	mov	ecx, eax
	call	?GetAlly@CvMinorCivAI@@QBE?AW4PlayerTypes@@XZ ; CvMinorCivAI::GetAlly
