; Listing generated by Microsoft (R) Optimizing Compiler Version 15.00.30729.01 

	TITLE	D:\sources\Lekmod_git\checkout\LEKMOD_DLL\CvGameCoreDLL_Expansion2\CvPlayerAI.cpp
	.686P
	.XMM
	include listing.inc
	.model	flat

INCLUDELIB MSVCRT
INCLUDELIB OLDNAMES

PUBLIC	?NO_QUEST_DATA@CvMinorCivQuest@@2HB		; CvMinorCivQuest::NO_QUEST_DATA
PUBLIC	?NO_TURN@CvMinorCivQuest@@2HB			; CvMinorCivQuest::NO_TURN
PUBLIC	?m_aPlayers@CvPlayerAI@@1PAV1@A			; CvPlayerAI::m_aPlayers
_BSS	SEGMENT
?m_aPlayers@CvPlayerAI@@1PAV1@A DD 01H DUP (?)		; CvPlayerAI::m_aPlayers
_BSS	ENDS
;	COMDAT ?NO_TURN@CvMinorCivQuest@@2HB
CONST	SEGMENT
?NO_TURN@CvMinorCivQuest@@2HB DD 0ffffffffH		; CvMinorCivQuest::NO_TURN
CONST	ENDS
;	COMDAT ?NO_QUEST_DATA@CvMinorCivQuest@@2HB
CONST	SEGMENT
?NO_QUEST_DATA@CvMinorCivQuest@@2HB DD 0ffffffffH	; CvMinorCivQuest::NO_QUEST_DATA
CONST	ENDS
PUBLIC	?insert@?$_Tree@V?$_Tset_traits@PAVFAutoVariableBase@@U?$less@PAVFAutoVariableBase@@@std@@V?$allocator@PAVFAutoVariableBase@@@3@$0A@@std@@@std@@QAE?AU?$pair@Viterator@?$_Tree@V?$_Tset_traits@PAVFAutoVariableBase@@U?$less@PAVFAutoVariableBase@@@std@@V?$allocator@PAVFAutoVariableBase@@@3@$0A@@std@@@std@@_N@2@ABQAVFAutoVariableBase@@@Z ; std::_Tree<std::_Tset_traits<FAutoVariableBase *,std::less<FAutoVariableBase *>,std::allocator<FAutoVariableBase *>,0> >::insert
PUBLIC	??0CvPlayerAI@@QAE@XZ				; CvPlayerAI::CvPlayerAI
PUBLIC	??1CvPlayerAI@@UAE@XZ				; CvPlayerAI::~CvPlayerAI
PUBLIC	?initStatics@CvPlayerAI@@SAXXZ			; CvPlayerAI::initStatics
EXTRN	??_V@YAXPAX@Z:PROC				; operator delete[]
EXTRN	??_L@YGXPAXIHP6EX0@Z1@Z:PROC			; `eh vector constructor iterator'
EXTRN	??_U@YAPAXI@Z:PROC				; operator new[]
EXTRN	___security_cookie:DWORD
EXTRN	___CxxFrameHandler3:PROC
EXTRN	@__security_check_cookie@4:PROC
;	COMDAT xdata$x
; File c:\program files (x86)\microsoft visual studio 9.0\vc\include\utility
xdata$x	SEGMENT
__unwindtable$?initStatics@CvPlayerAI@@SAXXZ DD 0ffffffffH
	DD	FLAT:__unwindfunclet$?initStatics@CvPlayerAI@@SAXXZ$0
__ehfuncinfo$?initStatics@CvPlayerAI@@SAXXZ DD 019930522H
	DD	01H
	DD	FLAT:__unwindtable$?initStatics@CvPlayerAI@@SAXXZ
	DD	2 DUP(00H)
	DD	2 DUP(00H)
	DD	00H
	DD	01H
; Function compile flags: /Odtp
; File d:\sources\lekmod_git\checkout\lekmod_dll\cvgamecoredll_expansion2\cvplayerai.cpp
xdata$x	ENDS
;	COMDAT ?initStatics@CvPlayerAI@@SAXXZ
_TEXT	SEGMENT
tv76 = -124						; size = 4
$T229036 = -120						; size = 4
$T229018 = -116						; size = 4
$T229034 = -40						; size = 8
$T229033 = -32						; size = 4
$T228874 = -28						; size = 4
$T228871 = -24						; size = 4
$T228870 = -20						; size = 4
_iI$225149 = -16					; size = 4
__$EHRec$ = -12						; size = 12
?initStatics@CvPlayerAI@@SAXXZ PROC			; CvPlayerAI::initStatics, COMDAT

; 44   : {

	push	ebp
	mov	ebp, esp
	push	-1
	push	__ehhandler$?initStatics@CvPlayerAI@@SAXXZ
	mov	eax, DWORD PTR fs:0
	push	eax
	sub	esp, 112				; 00000070H
	mov	eax, DWORD PTR ___security_cookie
	xor	eax, ebp
	push	eax
	lea	eax, DWORD PTR __$EHRec$[ebp]
	mov	DWORD PTR fs:0, eax

; 45   : 	m_aPlayers = FNEW(CvPlayerAI[MAX_PLAYERS], c_eCiv5GameplayDLL, 0);

	push	4047108					; 003dc104H
	call	??_U@YAPAXI@Z				; operator new[]
	add	esp, 4
	mov	DWORD PTR $T228871[ebp], eax
	mov	DWORD PTR __$EHRec$[ebp+8], 0
	cmp	DWORD PTR $T228871[ebp], 0
	je	SHORT $LN6@initStatic
	mov	eax, DWORD PTR $T228871[ebp]
	mov	DWORD PTR [eax], 64			; 00000040H
	push	OFFSET ??1CvPlayerAI@@UAE@XZ		; CvPlayerAI::~CvPlayerAI
	push	OFFSET ??0CvPlayerAI@@QAE@XZ		; CvPlayerAI::CvPlayerAI
	push	64					; 00000040H
	push	63236					; 0000f704H
	mov	ecx, DWORD PTR $T228871[ebp]
	add	ecx, 4
	push	ecx
	call	??_L@YGXPAXIHP6EX0@Z1@Z
	mov	edx, DWORD PTR $T228871[ebp]
	add	edx, 4
	mov	DWORD PTR tv76[ebp], edx
	jmp	SHORT $LN7@initStatic
$LN6@initStatic:
	mov	DWORD PTR tv76[ebp], 0
$LN7@initStatic:
	mov	eax, DWORD PTR tv76[ebp]
	mov	DWORD PTR $T228870[ebp], eax
	mov	DWORD PTR __$EHRec$[ebp+8], -1
	mov	ecx, DWORD PTR $T228870[ebp]
	mov	DWORD PTR ?m_aPlayers@CvPlayerAI@@1PAV1@A, ecx ; CvPlayerAI::m_aPlayers

; 46   : 	for(int iI = 0; iI < MAX_PLAYERS; iI++)

	mov	DWORD PTR _iI$225149[ebp], 0
	jmp	SHORT $LN3@initStatic
$LN2@initStatic:
	mov	edx, DWORD PTR _iI$225149[ebp]
	add	edx, 1
	mov	DWORD PTR _iI$225149[ebp], edx
$LN3@initStatic:
	cmp	DWORD PTR _iI$225149[ebp], 64		; 00000040H
	jge	SHORT $LN4@initStatic

; 47   : 	{
; 48   : 		m_aPlayers[iI].m_eID = ((PlayerTypes)iI);

	mov	eax, DWORD PTR _iI$225149[ebp]
	mov	DWORD PTR $T228874[ebp], eax
	mov	ecx, DWORD PTR _iI$225149[ebp]
	imul	ecx, 63236				; 0000f704H
	mov	edx, DWORD PTR ?m_aPlayers@CvPlayerAI@@1PAV1@A ; CvPlayerAI::m_aPlayers
	lea	eax, DWORD PTR [edx+ecx+40]
	mov	DWORD PTR $T229036[ebp], eax
	mov	ecx, DWORD PTR $T229036[ebp]
	mov	edx, DWORD PTR $T228874[ebp]
	cmp	edx, DWORD PTR [ecx+4]
	je	SHORT $LN10@initStatic
	mov	eax, DWORD PTR $T229036[ebp]
	mov	ecx, DWORD PTR [eax+4]
	cmp	ecx, DWORD PTR $T228874[ebp]
	je	SHORT $LN10@initStatic
	mov	edx, DWORD PTR $T229036[ebp]
	mov	eax, DWORD PTR [edx+8]
	mov	DWORD PTR $T229018[ebp], eax
	mov	ecx, DWORD PTR $T229036[ebp]
	mov	DWORD PTR $T229033[ebp], ecx
	lea	edx, DWORD PTR $T229033[ebp]
	push	edx
	lea	eax, DWORD PTR $T229034[ebp]
	push	eax
	mov	ecx, DWORD PTR $T229018[ebp]
	add	ecx, 20					; 00000014H
	call	?insert@?$_Tree@V?$_Tset_traits@PAVFAutoVariableBase@@U?$less@PAVFAutoVariableBase@@@std@@V?$allocator@PAVFAutoVariableBase@@@3@$0A@@std@@@std@@QAE?AU?$pair@Viterator@?$_Tree@V?$_Tset_traits@PAVFAutoVariableBase@@U?$less@PAVFAutoVariableBase@@@std@@V?$allocator@PAVFAutoVariableBase@@@3@$0A@@std@@@std@@_N@2@ABQAVFAutoVariableBase@@@Z ; std::_Tree<std::_Tset_traits<FAutoVariableBase *,std::less<FAutoVariableBase *>,std::allocator<FAutoVariableBase *>,0> >::insert
	mov	ecx, DWORD PTR $T229036[ebp]
	mov	edx, DWORD PTR $T228874[ebp]
	mov	DWORD PTR [ecx+4], edx
$LN10@initStatic:

; 49   : 	}

	jmp	SHORT $LN2@initStatic
$LN4@initStatic:

; 50   : }

	mov	ecx, DWORD PTR __$EHRec$[ebp]
	mov	DWORD PTR fs:0, ecx
	pop	ecx
	mov	esp, ebp
	pop	ebp
	ret	0
_TEXT	ENDS
;	COMDAT text$x
text$x	SEGMENT
__unwindfunclet$?initStatics@CvPlayerAI@@SAXXZ$0:
	mov	eax, DWORD PTR $T228871[ebp]
	push	eax
	call	??_V@YAXPAX@Z				; operator delete[]
	pop	ecx
	ret	0
__ehhandler$?initStatics@CvPlayerAI@@SAXXZ:
	mov	edx, DWORD PTR [esp+8]
	lea	eax, DWORD PTR [edx+12]
	mov	ecx, DWORD PTR [edx-116]
	xor	ecx, eax
	call	@__security_check_cookie@4
	mov	eax, OFFSET __ehfuncinfo$?initStatics@CvPlayerAI@@SAXXZ
	jmp	___CxxFrameHandler3
text$x	ENDS
?initStatics@CvPlayerAI@@SAXXZ ENDP			; CvPlayerAI::initStatics
PUBLIC	??_ECvPlayerAI@@UAEPAXI@Z			; CvPlayerAI::`vector deleting destructor'
EXTRN	??3@YAXPAX@Z:PROC				; operator delete
EXTRN	??_M@YGXPAXIHP6EX0@Z@Z:PROC			; `eh vector destructor iterator'
; Function compile flags: /Odtp
;	COMDAT ??_ECvPlayerAI@@UAEPAXI@Z
_TEXT	SEGMENT
_this$ = -4						; size = 4
___flags$ = 8						; size = 4
??_ECvPlayerAI@@UAEPAXI@Z PROC				; CvPlayerAI::`vector deleting destructor', COMDAT
; _this$ = ecx
	push	ebp
	mov	ebp, esp
	push	ecx
	mov	DWORD PTR _this$[ebp], ecx
	mov	eax, DWORD PTR ___flags$[ebp]
	and	eax, 2
	je	SHORT $LN3@vector
	push	OFFSET ??1CvPlayerAI@@UAE@XZ		; CvPlayerAI::~CvPlayerAI
	mov	ecx, DWORD PTR _this$[ebp]
	mov	edx, DWORD PTR [ecx-4]
	push	edx
	push	63236					; 0000f704H
	mov	eax, DWORD PTR _this$[ebp]
	push	eax
	call	??_M@YGXPAXIHP6EX0@Z@Z
	mov	ecx, DWORD PTR ___flags$[ebp]
	and	ecx, 1
	je	SHORT $LN2@vector
	mov	edx, DWORD PTR _this$[ebp]
	sub	edx, 4
	push	edx
	call	??_V@YAXPAX@Z				; operator delete[]
	add	esp, 4
$LN2@vector:
	mov	eax, DWORD PTR _this$[ebp]
	sub	eax, 4
	jmp	SHORT $LN4@vector
$LN3@vector:
	mov	ecx, DWORD PTR _this$[ebp]
	call	??1CvPlayerAI@@UAE@XZ			; CvPlayerAI::~CvPlayerAI
	mov	eax, DWORD PTR ___flags$[ebp]
	and	eax, 1
	je	SHORT $LN1@vector
	mov	ecx, DWORD PTR _this$[ebp]
	push	ecx
	call	??3@YAXPAX@Z				; operator delete
	add	esp, 4
$LN1@vector:
	mov	eax, DWORD PTR _this$[ebp]
$LN4@vector:
	mov	esp, ebp
	pop	ebp
	ret	4
??_ECvPlayerAI@@UAEPAXI@Z ENDP				; CvPlayerAI::`vector deleting destructor'
_TEXT	ENDS
PUBLIC	?freeStatics@CvPlayerAI@@SAXXZ			; CvPlayerAI::freeStatics
; Function compile flags: /Odtp
;	COMDAT ?freeStatics@CvPlayerAI@@SAXXZ
_TEXT	SEGMENT
tv80 = -20						; size = 4
tv79 = -16						; size = 4
$T229064 = -12						; size = 4
$T229063 = -8						; size = 4
$T229062 = -4						; size = 4
?freeStatics@CvPlayerAI@@SAXXZ PROC			; CvPlayerAI::freeStatics, COMDAT

; 53   : {

	push	ebp
	mov	ebp, esp
	sub	esp, 20					; 00000014H

; 54   : 	SAFE_DELETE_ARRAY(m_aPlayers);

	mov	eax, DWORD PTR ?m_aPlayers@CvPlayerAI@@1PAV1@A ; CvPlayerAI::m_aPlayers
	mov	DWORD PTR $T229064[ebp], eax
	mov	ecx, DWORD PTR $T229064[ebp]
	mov	DWORD PTR $T229063[ebp], ecx
	mov	edx, DWORD PTR $T229063[ebp]
	mov	DWORD PTR $T229062[ebp], edx
	cmp	DWORD PTR $T229062[ebp], 0
	je	SHORT $LN7@freeStatic
	mov	eax, DWORD PTR $T229062[ebp]
	cmp	DWORD PTR [eax-4], 0
	je	SHORT $LN5@freeStatic
	push	3
	mov	ecx, DWORD PTR $T229063[ebp]
	mov	edx, DWORD PTR [ecx]
	mov	ecx, DWORD PTR $T229063[ebp]
	mov	eax, DWORD PTR [edx]
	call	eax
	mov	DWORD PTR tv79[ebp], eax
	jmp	SHORT $LN6@freeStatic
$LN5@freeStatic:
	mov	ecx, DWORD PTR $T229062[ebp]
	sub	ecx, 4
	push	ecx
	call	??_V@YAXPAX@Z				; operator delete[]
	add	esp, 4
	mov	DWORD PTR tv79[ebp], 0
$LN6@freeStatic:
	mov	edx, DWORD PTR tv79[ebp]
	mov	DWORD PTR tv80[ebp], edx
	jmp	SHORT $LN8@freeStatic
$LN7@freeStatic:
	mov	DWORD PTR tv80[ebp], 0
$LN8@freeStatic:
	mov	DWORD PTR ?m_aPlayers@CvPlayerAI@@1PAV1@A, 0 ; CvPlayerAI::m_aPlayers

; 55   : }

	mov	esp, ebp
	pop	ebp
	ret	0
?freeStatics@CvPlayerAI@@SAXXZ ENDP			; CvPlayerAI::freeStatics
_TEXT	ENDS
PUBLIC	?AI_reset@CvPlayerAI@@UAEXXZ			; CvPlayerAI::AI_reset
PUBLIC	??_7CvPlayerAI@@6B@				; CvPlayerAI::`vftable'
PUBLIC	?Read@CvPlayerAI@@UAEXAAVFDataStream@@@Z	; CvPlayerAI::Read
PUBLIC	?Write@CvPlayerAI@@UBEXAAVFDataStream@@@Z	; CvPlayerAI::Write
PUBLIC	?AI_init@CvPlayerAI@@UAEXXZ			; CvPlayerAI::AI_init
PUBLIC	?AI_doTurnPre@CvPlayerAI@@UAEXXZ		; CvPlayerAI::AI_doTurnPre
PUBLIC	?AI_doTurnPost@CvPlayerAI@@UAEXXZ		; CvPlayerAI::AI_doTurnPost
PUBLIC	?AI_doTurnUnitsPre@CvPlayerAI@@UAEXXZ		; CvPlayerAI::AI_doTurnUnitsPre
PUBLIC	?AI_doTurnUnitsPost@CvPlayerAI@@UAEXXZ		; CvPlayerAI::AI_doTurnUnitsPost
PUBLIC	?AI_updateFoundValues@CvPlayerAI@@UAEX_N@Z	; CvPlayerAI::AI_updateFoundValues
PUBLIC	?AI_unitUpdate@CvPlayerAI@@UAEXXZ		; CvPlayerAI::AI_unitUpdate
PUBLIC	?AI_conquerCity@CvPlayerAI@@UAEXPAVCvCity@@W4PlayerTypes@@@Z ; CvPlayerAI::AI_conquerCity
PUBLIC	?AI_foundValue@CvPlayerAI@@UAEHHHH_N@Z		; CvPlayerAI::AI_foundValue
PUBLIC	?AI_chooseFreeGreatPerson@CvPlayerAI@@UAEXXZ	; CvPlayerAI::AI_chooseFreeGreatPerson
PUBLIC	?AI_chooseFreeTech@CvPlayerAI@@UAEXXZ		; CvPlayerAI::AI_chooseFreeTech
PUBLIC	?AI_chooseResearch@CvPlayerAI@@UAEXXZ		; CvPlayerAI::AI_chooseResearch
PUBLIC	?AI_plotTargetMissionAIs@CvPlayerAI@@UAEHPAVCvPlot@@W4MissionAITypes@@H@Z ; CvPlayerAI::AI_plotTargetMissionAIs
PUBLIC	?AI_launch@CvPlayerAI@@UAEXW4VictoryTypes@@@Z	; CvPlayerAI::AI_launch
PUBLIC	?PeekAtNextUnitToBuildForOperationSlot@CvPlayerAI@@UAE?AUOperationSlot@@H@Z ; CvPlayerAI::PeekAtNextUnitToBuildForOperationSlot
PUBLIC	?CityCommitToBuildUnitForOperationSlot@CvPlayerAI@@UAE?AUOperationSlot@@HHPAVCvCity@@@Z ; CvPlayerAI::CityCommitToBuildUnitForOperationSlot
PUBLIC	?CityUncommitToBuildUnitForOperationSlot@CvPlayerAI@@UAEXUOperationSlot@@@Z ; CvPlayerAI::CityUncommitToBuildUnitForOperationSlot
PUBLIC	?CityFinishedBuildingUnitForOperationSlot@CvPlayerAI@@UAEXUOperationSlot@@PAVCvUnit@@@Z ; CvPlayerAI::CityFinishedBuildingUnitForOperationSlot
PUBLIC	?GetNumUnitsNeededToBeBuilt@CvPlayerAI@@UAEHXZ	; CvPlayerAI::GetNumUnitsNeededToBeBuilt
EXTRN	??1CvPlayer@@UAE@XZ:PROC			; CvPlayer::~CvPlayer
EXTRN	??0CvPlayer@@QAE@XZ:PROC			; CvPlayer::CvPlayer
;	COMDAT ??_7CvPlayerAI@@6B@
CONST	SEGMENT
??_7CvPlayerAI@@6B@ DD FLAT:??_ECvPlayerAI@@UAEPAXI@Z	; CvPlayerAI::`vftable'
	DD	FLAT:?Read@CvPlayerAI@@UAEXAAVFDataStream@@@Z
	DD	FLAT:?Write@CvPlayerAI@@UBEXAAVFDataStream@@@Z
	DD	FLAT:?AI_init@CvPlayerAI@@UAEXXZ
	DD	FLAT:?AI_reset@CvPlayerAI@@UAEXXZ
	DD	FLAT:?AI_doTurnPre@CvPlayerAI@@UAEXXZ
	DD	FLAT:?AI_doTurnPost@CvPlayerAI@@UAEXXZ
	DD	FLAT:?AI_doTurnUnitsPre@CvPlayerAI@@UAEXXZ
	DD	FLAT:?AI_doTurnUnitsPost@CvPlayerAI@@UAEXXZ
	DD	FLAT:?AI_updateFoundValues@CvPlayerAI@@UAEX_N@Z
	DD	FLAT:?AI_unitUpdate@CvPlayerAI@@UAEXXZ
	DD	FLAT:?AI_conquerCity@CvPlayerAI@@UAEXPAVCvCity@@W4PlayerTypes@@@Z
	DD	FLAT:?AI_foundValue@CvPlayerAI@@UAEHHHH_N@Z
	DD	FLAT:?AI_chooseFreeGreatPerson@CvPlayerAI@@UAEXXZ
	DD	FLAT:?AI_chooseFreeTech@CvPlayerAI@@UAEXXZ
	DD	FLAT:?AI_chooseResearch@CvPlayerAI@@UAEXXZ
	DD	FLAT:?AI_plotTargetMissionAIs@CvPlayerAI@@UAEHPAVCvPlot@@W4MissionAITypes@@H@Z
	DD	FLAT:?AI_launch@CvPlayerAI@@UAEXW4VictoryTypes@@@Z
	DD	FLAT:?PeekAtNextUnitToBuildForOperationSlot@CvPlayerAI@@UAE?AUOperationSlot@@H@Z
	DD	FLAT:?CityCommitToBuildUnitForOperationSlot@CvPlayerAI@@UAE?AUOperationSlot@@HHPAVCvCity@@@Z
	DD	FLAT:?CityUncommitToBuildUnitForOperationSlot@CvPlayerAI@@UAEXUOperationSlot@@@Z
	DD	FLAT:?CityFinishedBuildingUnitForOperationSlot@CvPlayerAI@@UAEXUOperationSlot@@PAVCvUnit@@@Z
	DD	FLAT:?GetNumUnitsNeededToBeBuilt@CvPlayerAI@@UAEHXZ
CONST	ENDS
;	COMDAT xdata$x
xdata$x	SEGMENT
__unwindtable$??0CvPlayerAI@@QAE@XZ DD 0ffffffffH
	DD	FLAT:__unwindfunclet$??0CvPlayerAI@@QAE@XZ$0
__ehfuncinfo$??0CvPlayerAI@@QAE@XZ DD 019930522H
	DD	01H
	DD	FLAT:__unwindtable$??0CvPlayerAI@@QAE@XZ
	DD	2 DUP(00H)
	DD	2 DUP(00H)
	DD	00H
	DD	01H
; Function compile flags: /Odtp
xdata$x	ENDS
;	COMDAT ??0CvPlayerAI@@QAE@XZ
_TEXT	SEGMENT
_this$ = -16						; size = 4
__$EHRec$ = -12						; size = 12
??0CvPlayerAI@@QAE@XZ PROC				; CvPlayerAI::CvPlayerAI, COMDAT
; _this$ = ecx

; 59   : {

	push	ebp
	mov	ebp, esp
	push	-1
	push	__ehhandler$??0CvPlayerAI@@QAE@XZ
	mov	eax, DWORD PTR fs:0
	push	eax
	push	ecx
	mov	eax, DWORD PTR ___security_cookie
	xor	eax, ebp
	push	eax
	lea	eax, DWORD PTR __$EHRec$[ebp]
	mov	DWORD PTR fs:0, eax
	mov	DWORD PTR _this$[ebp], ecx
	mov	ecx, DWORD PTR _this$[ebp]
	call	??0CvPlayer@@QAE@XZ			; CvPlayer::CvPlayer
	mov	DWORD PTR __$EHRec$[ebp+8], 0
	mov	eax, DWORD PTR _this$[ebp]
	mov	DWORD PTR [eax], OFFSET ??_7CvPlayerAI@@6B@

; 60   : 	AI_reset();

	mov	ecx, DWORD PTR _this$[ebp]
	call	?AI_reset@CvPlayerAI@@UAEXXZ		; CvPlayerAI::AI_reset

; 61   : }

	mov	DWORD PTR __$EHRec$[ebp+8], -1
	mov	eax, DWORD PTR _this$[ebp]
	mov	ecx, DWORD PTR __$EHRec$[ebp]
	mov	DWORD PTR fs:0, ecx
	pop	ecx
	mov	esp, ebp
	pop	ebp
	ret	0
_TEXT	ENDS
;	COMDAT text$x
text$x	SEGMENT
__unwindfunclet$??0CvPlayerAI@@QAE@XZ$0:
	mov	ecx, DWORD PTR _this$[ebp]
	jmp	??1CvPlayer@@UAE@XZ			; CvPlayer::~CvPlayer
__ehhandler$??0CvPlayerAI@@QAE@XZ:
	mov	edx, DWORD PTR [esp+8]
	lea	eax, DWORD PTR [edx+12]
	mov	ecx, DWORD PTR [edx-8]
	xor	ecx, eax
	call	@__security_check_cookie@4
	mov	eax, OFFSET __ehfuncinfo$??0CvPlayerAI@@QAE@XZ
	jmp	___CxxFrameHandler3
text$x	ENDS
??0CvPlayerAI@@QAE@XZ ENDP				; CvPlayerAI::CvPlayerAI
PUBLIC	?AI_uninit@CvPlayerAI@@QAEXXZ			; CvPlayerAI::AI_uninit
;	COMDAT xdata$x
xdata$x	SEGMENT
__unwindtable$??1CvPlayerAI@@UAE@XZ DD 0ffffffffH
	DD	FLAT:__unwindfunclet$??1CvPlayerAI@@UAE@XZ$0
__ehfuncinfo$??1CvPlayerAI@@UAE@XZ DD 019930522H
	DD	01H
	DD	FLAT:__unwindtable$??1CvPlayerAI@@UAE@XZ
	DD	2 DUP(00H)
	DD	2 DUP(00H)
	DD	00H
	DD	01H
; Function compile flags: /Odtp
xdata$x	ENDS
;	COMDAT ??1CvPlayerAI@@UAE@XZ
_TEXT	SEGMENT
_this$ = -16						; size = 4
__$EHRec$ = -12						; size = 12
??1CvPlayerAI@@UAE@XZ PROC				; CvPlayerAI::~CvPlayerAI, COMDAT
; _this$ = ecx

; 65   : {

	push	ebp
	mov	ebp, esp
	push	-1
	push	__ehhandler$??1CvPlayerAI@@UAE@XZ
	mov	eax, DWORD PTR fs:0
	push	eax
	push	ecx
	mov	eax, DWORD PTR ___security_cookie
	xor	eax, ebp
	push	eax
	lea	eax, DWORD PTR __$EHRec$[ebp]
	mov	DWORD PTR fs:0, eax
	mov	DWORD PTR _this$[ebp], ecx
	mov	eax, DWORD PTR _this$[ebp]
	mov	DWORD PTR [eax], OFFSET ??_7CvPlayerAI@@6B@
	mov	DWORD PTR __$EHRec$[ebp+8], 0

; 66   : 	AI_uninit();

	mov	ecx, DWORD PTR _this$[ebp]
	call	?AI_uninit@CvPlayerAI@@QAEXXZ		; CvPlayerAI::AI_uninit

; 67   : }

	mov	DWORD PTR __$EHRec$[ebp+8], -1
	mov	ecx, DWORD PTR _this$[ebp]
	call	??1CvPlayer@@UAE@XZ			; CvPlayer::~CvPlayer
	mov	ecx, DWORD PTR __$EHRec$[ebp]
	mov	DWORD PTR fs:0, ecx
	pop	ecx
	mov	esp, ebp
	pop	ebp
	ret	0
_TEXT	ENDS
;	COMDAT text$x
text$x	SEGMENT
__unwindfunclet$??1CvPlayerAI@@UAE@XZ$0:
	mov	ecx, DWORD PTR _this$[ebp]
	jmp	??1CvPlayer@@UAE@XZ			; CvPlayer::~CvPlayer
__ehhandler$??1CvPlayerAI@@UAE@XZ:
	mov	edx, DWORD PTR [esp+8]
	lea	eax, DWORD PTR [edx+12]
	mov	ecx, DWORD PTR [edx-8]
	xor	ecx, eax
	call	@__security_check_cookie@4
	mov	eax, OFFSET __ehfuncinfo$??1CvPlayerAI@@UAE@XZ
	jmp	___CxxFrameHandler3
text$x	ENDS
??1CvPlayerAI@@UAE@XZ ENDP				; CvPlayerAI::~CvPlayerAI
; Function compile flags: /Odtp
;	COMDAT ?AI_init@CvPlayerAI@@UAEXXZ
_TEXT	SEGMENT
_this$ = -4						; size = 4
?AI_init@CvPlayerAI@@UAEXXZ PROC			; CvPlayerAI::AI_init, COMDAT
; _this$ = ecx

; 71   : {

	push	ebp
	mov	ebp, esp
	push	ecx
	mov	DWORD PTR _this$[ebp], ecx

; 72   : 	AI_reset();

	mov	eax, DWORD PTR _this$[ebp]
	mov	edx, DWORD PTR [eax]
	mov	ecx, DWORD PTR _this$[ebp]
	mov	eax, DWORD PTR [edx+16]
	call	eax

; 73   : }

	mov	esp, ebp
	pop	ebp
	ret	0
?AI_init@CvPlayerAI@@UAEXXZ ENDP			; CvPlayerAI::AI_init
; Function compile flags: /Odtp
_TEXT	ENDS
;	COMDAT ?AI_uninit@CvPlayerAI@@QAEXXZ
_TEXT	SEGMENT
_this$ = -4						; size = 4
?AI_uninit@CvPlayerAI@@QAEXXZ PROC			; CvPlayerAI::AI_uninit, COMDAT
; _this$ = ecx

; 77   : {

	push	ebp
	mov	ebp, esp
	push	ecx
	mov	DWORD PTR _this$[ebp], ecx

; 78   : }

	mov	esp, ebp
	pop	ebp
	ret	0
?AI_uninit@CvPlayerAI@@QAEXXZ ENDP			; CvPlayerAI::AI_uninit
; Function compile flags: /Odtp
_TEXT	ENDS
;	COMDAT ?AI_reset@CvPlayerAI@@UAEXXZ
_TEXT	SEGMENT
_this$ = -4						; size = 4
?AI_reset@CvPlayerAI@@UAEXXZ PROC			; CvPlayerAI::AI_reset, COMDAT
; _this$ = ecx

; 82   : {

	push	ebp
	mov	ebp, esp
	push	ecx
	mov	DWORD PTR _this$[ebp], ecx

; 83   : 	AI_uninit();

	mov	ecx, DWORD PTR _this$[ebp]
	call	?AI_uninit@CvPlayerAI@@QAEXXZ		; CvPlayerAI::AI_uninit

; 84   : }

	mov	esp, ebp
	pop	ebp
	ret	0
?AI_reset@CvPlayerAI@@UAEXXZ ENDP			; CvPlayerAI::AI_reset
_TEXT	ENDS
PUBLIC	?AI_considerAnnex@CvPlayerAI@@QAEXXZ		; CvPlayerAI::AI_considerAnnex
PUBLIC	?AI_doResearch@CvPlayerAI@@IAEXXZ		; CvPlayerAI::AI_doResearch
EXTRN	?isHuman@CvPlayer@@QBE_NXZ:PROC			; CvPlayer::isHuman
; Function compile flags: /Odtp
;	COMDAT ?AI_doTurnPre@CvPlayerAI@@UAEXXZ
_TEXT	SEGMENT
_this$ = -4						; size = 4
?AI_doTurnPre@CvPlayerAI@@UAEXXZ PROC			; CvPlayerAI::AI_doTurnPre, COMDAT
; _this$ = ecx

; 87   : {

	push	ebp
	mov	ebp, esp
	push	ecx
	mov	DWORD PTR _this$[ebp], ecx

; 88   : 	AI_PERF_FORMAT("AI-perf.csv", ("CvPlayerAI::AI_doTurnPre, Turn %03d, %s", GC.getGame().getElapsedGameTurns(), getCivilizationShortDescription()) );
; 89   : 	CvAssertMsg(getPersonalityType() != NO_LEADER, "getPersonalityType() is not expected to be equal with NO_LEADER");
; 90   : 	CvAssertMsg(getLeaderType() != NO_LEADER, "getLeaderType() is not expected to be equal with NO_LEADER");
; 91   : 	CvAssertMsg(getCivilizationType() != NO_CIVILIZATION, "getCivilizationType() is not expected to be equal with NO_CIVILIZATION");
; 92   : 
; 93   : 	if(isHuman())

	mov	ecx, DWORD PTR _this$[ebp]
	call	?isHuman@CvPlayer@@QBE_NXZ		; CvPlayer::isHuman
	movzx	eax, al
	test	eax, eax
	je	SHORT $LN1@AI_doTurnP

; 94   : 	{
; 95   : 		return;

	jmp	SHORT $LN2@AI_doTurnP
$LN1@AI_doTurnP:

; 96   : 	}
; 97   : 
; 98   : 	AI_updateFoundValues();

	push	0
	mov	ecx, DWORD PTR _this$[ebp]
	mov	edx, DWORD PTR [ecx]
	mov	ecx, DWORD PTR _this$[ebp]
	mov	eax, DWORD PTR [edx+36]
	call	eax

; 99   : 
; 100  : 	AI_doResearch();

	mov	ecx, DWORD PTR _this$[ebp]
	call	?AI_doResearch@CvPlayerAI@@IAEXXZ	; CvPlayerAI::AI_doResearch

; 101  : 	AI_considerAnnex();

	mov	ecx, DWORD PTR _this$[ebp]
	call	?AI_considerAnnex@CvPlayerAI@@QAEXXZ	; CvPlayerAI::AI_considerAnnex
$LN2@AI_doTurnP:

; 102  : }

	mov	esp, ebp
	pop	ebp
	ret	0
?AI_doTurnPre@CvPlayerAI@@UAEXXZ ENDP			; CvPlayerAI::AI_doTurnPre
_TEXT	ENDS
PUBLIC	?ProcessGreatPeople@CvPlayerAI@@QAEXXZ		; CvPlayerAI::ProcessGreatPeople
EXTRN	?DoTurn@CvTradeAI@@QAEXXZ:PROC			; CvTradeAI::DoTurn
EXTRN	?GetTradeAI@CvPlayer@@QBEPAVCvTradeAI@@XZ:PROC	; CvPlayer::GetTradeAI
EXTRN	?DoTurn@CvEspionageAI@@QAEXXZ:PROC		; CvEspionageAI::DoTurn
EXTRN	?GetEspionageAI@CvPlayer@@QBEPAVCvEspionageAI@@XZ:PROC ; CvPlayer::GetEspionageAI
EXTRN	?getNumVictoryInfos@CvGlobals@@QAEHXZ:PROC	; CvGlobals::getNumVictoryInfos
EXTRN	?gGlobals@@3VCvGlobals@@A:BYTE			; gGlobals
EXTRN	?isMinorCiv@CvPlayer@@QBE_NXZ:PROC		; CvPlayer::isMinorCiv
EXTRN	?isBarbarian@CvPlayer@@QBE_NXZ:PROC		; CvPlayer::isBarbarian
; Function compile flags: /Odtp
;	COMDAT ?AI_doTurnPost@CvPlayerAI@@UAEXXZ
_TEXT	SEGMENT
_this$ = -8						; size = 4
_i$225199 = -4						; size = 4
?AI_doTurnPost@CvPlayerAI@@UAEXXZ PROC			; CvPlayerAI::AI_doTurnPost, COMDAT
; _this$ = ecx

; 106  : {

	push	ebp
	mov	ebp, esp
	sub	esp, 8
	mov	DWORD PTR _this$[ebp], ecx

; 107  : 	AI_PERF_FORMAT("AI-perf.csv", ("CvPlayerAI::AI_doTurnPost, Turn %03d, %s", GC.getGame().getElapsedGameTurns(), getCivilizationShortDescription()) );
; 108  : 	if(isHuman())

	mov	ecx, DWORD PTR _this$[ebp]
	call	?isHuman@CvPlayer@@QBE_NXZ		; CvPlayer::isHuman
	movzx	eax, al
	test	eax, eax
	je	SHORT $LN6@AI_doTurnP@2

; 109  : 	{
; 110  : 		return;

	jmp	SHORT $LN7@AI_doTurnP@2
$LN6@AI_doTurnP@2:

; 111  : 	}
; 112  : 
; 113  : 	if(isBarbarian())

	mov	ecx, DWORD PTR _this$[ebp]
	call	?isBarbarian@CvPlayer@@QBE_NXZ		; CvPlayer::isBarbarian
	movzx	ecx, al
	test	ecx, ecx
	je	SHORT $LN5@AI_doTurnP@2

; 114  : 	{
; 115  : 		return;

	jmp	SHORT $LN7@AI_doTurnP@2
$LN5@AI_doTurnP@2:

; 116  : 	}
; 117  : 
; 118  : 	if(isMinorCiv())

	mov	ecx, DWORD PTR _this$[ebp]
	call	?isMinorCiv@CvPlayer@@QBE_NXZ		; CvPlayer::isMinorCiv
	movzx	edx, al
	test	edx, edx
	je	SHORT $LN4@AI_doTurnP@2

; 119  : 	{
; 120  : 		return;

	jmp	SHORT $LN7@AI_doTurnP@2
$LN4@AI_doTurnP@2:

; 121  : 	}
; 122  : 
; 123  : #ifdef AUI_WARNING_FIXES
; 124  : 	for (uint i = 0; i < GC.getNumVictoryInfos(); ++i)
; 125  : #else
; 126  : 	for(int i = 0; i < GC.getNumVictoryInfos(); ++i)

	mov	DWORD PTR _i$225199[ebp], 0
	jmp	SHORT $LN3@AI_doTurnP@2
$LN2@AI_doTurnP@2:
	mov	eax, DWORD PTR _i$225199[ebp]
	add	eax, 1
	mov	DWORD PTR _i$225199[ebp], eax
$LN3@AI_doTurnP@2:
	mov	ecx, OFFSET ?gGlobals@@3VCvGlobals@@A	; gGlobals
	call	?getNumVictoryInfos@CvGlobals@@QAEHXZ	; CvGlobals::getNumVictoryInfos
	cmp	DWORD PTR _i$225199[ebp], eax
	jge	SHORT $LN1@AI_doTurnP@2

; 127  : #endif
; 128  : 	{
; 129  : 		AI_launch((VictoryTypes)i);

	mov	ecx, DWORD PTR _i$225199[ebp]
	push	ecx
	mov	edx, DWORD PTR _this$[ebp]
	mov	eax, DWORD PTR [edx]
	mov	ecx, DWORD PTR _this$[ebp]
	mov	edx, DWORD PTR [eax+68]
	call	edx

; 130  : 	}

	jmp	SHORT $LN2@AI_doTurnP@2
$LN1@AI_doTurnP@2:

; 131  : 
; 132  : 	ProcessGreatPeople();

	mov	ecx, DWORD PTR _this$[ebp]
	call	?ProcessGreatPeople@CvPlayerAI@@QAEXXZ	; CvPlayerAI::ProcessGreatPeople

; 133  : 	GetEspionageAI()->DoTurn();

	mov	ecx, DWORD PTR _this$[ebp]
	call	?GetEspionageAI@CvPlayer@@QBEPAVCvEspionageAI@@XZ ; CvPlayer::GetEspionageAI
	mov	ecx, eax
	call	?DoTurn@CvEspionageAI@@QAEXXZ		; CvEspionageAI::DoTurn

; 134  : 	GetTradeAI()->DoTurn();

	mov	ecx, DWORD PTR _this$[ebp]
	call	?GetTradeAI@CvPlayer@@QBEPAVCvTradeAI@@XZ ; CvPlayer::GetTradeAI
	mov	ecx, eax
	call	?DoTurn@CvTradeAI@@QAEXXZ		; CvTradeAI::DoTurn
$LN7@AI_doTurnP@2:

; 135  : }

	mov	esp, ebp
	pop	ebp
	ret	0
?AI_doTurnPost@CvPlayerAI@@UAEXXZ ENDP			; CvPlayerAI::AI_doTurnPost
_TEXT	ENDS
EXTRN	?InitializeQueuedAttacks@CvTacticalAI@@QAEXXZ:PROC ; CvTacticalAI::InitializeQueuedAttacks
EXTRN	?GetTacticalAI@CvPlayer@@QBEPAVCvTacticalAI@@XZ:PROC ; CvPlayer::GetTacticalAI
; Function compile flags: /Odtp
;	COMDAT ?AI_doTurnUnitsPre@CvPlayerAI@@UAEXXZ
_TEXT	SEGMENT
_this$ = -4						; size = 4
?AI_doTurnUnitsPre@CvPlayerAI@@UAEXXZ PROC		; CvPlayerAI::AI_doTurnUnitsPre, COMDAT
; _this$ = ecx

; 139  : {

	push	ebp
	mov	ebp, esp
	push	ecx
	mov	DWORD PTR _this$[ebp], ecx

; 140  : 	GetTacticalAI()->InitializeQueuedAttacks();

	mov	ecx, DWORD PTR _this$[ebp]
	call	?GetTacticalAI@CvPlayer@@QBEPAVCvTacticalAI@@XZ ; CvPlayer::GetTacticalAI
	mov	ecx, eax
	call	?InitializeQueuedAttacks@CvTacticalAI@@QAEXXZ ; CvTacticalAI::InitializeQueuedAttacks

; 141  : 
; 142  : 	if(isHuman())

	mov	ecx, DWORD PTR _this$[ebp]
	call	?isHuman@CvPlayer@@QBE_NXZ		; CvPlayer::isHuman
	movzx	eax, al
	test	eax, eax
	je	SHORT $LN2@AI_doTurnU

; 143  : 	{
; 144  : 		return;

	jmp	SHORT $LN3@AI_doTurnU
$LN2@AI_doTurnU:

; 145  : 	}
; 146  : 
; 147  : 	if(isBarbarian())

	mov	ecx, DWORD PTR _this$[ebp]
	call	?isBarbarian@CvPlayer@@QBE_NXZ		; CvPlayer::isBarbarian
$LN3@AI_doTurnU:

; 148  : 	{
; 149  : 		return;
; 150  : 	}
; 151  : }

	mov	esp, ebp
	pop	ebp
	ret	0
?AI_doTurnUnitsPre@CvPlayerAI@@UAEXXZ ENDP		; CvPlayerAI::AI_doTurnUnitsPre
_TEXT	ENDS
EXTRN	?AI_promote@CvUnit@@QAEXXZ:PROC			; CvUnit::AI_promote
EXTRN	?nextUnit@CvPlayer@@QAEPAVCvUnit@@PAH_N@Z:PROC	; CvPlayer::nextUnit
EXTRN	?firstUnit@CvPlayer@@QAEPAVCvUnit@@PAH_N@Z:PROC	; CvPlayer::firstUnit
; Function compile flags: /Odtp
;	COMDAT ?AI_doTurnUnitsPost@CvPlayerAI@@UAEXXZ
_TEXT	SEGMENT
_this$ = -12						; size = 4
_pLoopUnit$ = -8					; size = 4
_iLoop$ = -4						; size = 4
?AI_doTurnUnitsPost@CvPlayerAI@@UAEXXZ PROC		; CvPlayerAI::AI_doTurnUnitsPost, COMDAT
; _this$ = ecx

; 155  : {

	push	ebp
	mov	ebp, esp
	sub	esp, 12					; 0000000cH
	mov	DWORD PTR _this$[ebp], ecx

; 156  : 	CvUnit* pLoopUnit;
; 157  : 	int iLoop;
; 158  : 
; 159  : 	if(!isHuman())

	mov	ecx, DWORD PTR _this$[ebp]
	call	?isHuman@CvPlayer@@QBE_NXZ		; CvPlayer::isHuman
	movzx	eax, al
	test	eax, eax
	jne	SHORT $LN5@AI_doTurnU@2

; 160  : 	{
; 161  : 		for(pLoopUnit = firstUnit(&iLoop); pLoopUnit != NULL; pLoopUnit = nextUnit(&iLoop))

	push	0
	lea	ecx, DWORD PTR _iLoop$[ebp]
	push	ecx
	mov	ecx, DWORD PTR _this$[ebp]
	call	?firstUnit@CvPlayer@@QAEPAVCvUnit@@PAH_N@Z ; CvPlayer::firstUnit
	mov	DWORD PTR _pLoopUnit$[ebp], eax
	jmp	SHORT $LN3@AI_doTurnU@2
$LN2@AI_doTurnU@2:
	push	0
	lea	edx, DWORD PTR _iLoop$[ebp]
	push	edx
	mov	ecx, DWORD PTR _this$[ebp]
	call	?nextUnit@CvPlayer@@QAEPAVCvUnit@@PAH_N@Z ; CvPlayer::nextUnit
	mov	DWORD PTR _pLoopUnit$[ebp], eax
$LN3@AI_doTurnU@2:
	cmp	DWORD PTR _pLoopUnit$[ebp], 0
	je	SHORT $LN5@AI_doTurnU@2

; 162  : 		{
; 163  : 			pLoopUnit->AI_promote();

	mov	ecx, DWORD PTR _pLoopUnit$[ebp]
	call	?AI_promote@CvUnit@@QAEXXZ		; CvUnit::AI_promote

; 164  : 		}

	jmp	SHORT $LN2@AI_doTurnU@2
$LN5@AI_doTurnU@2:

; 165  : 	}
; 166  : }

	mov	esp, ebp
	pop	ebp
	ret	0
?AI_doTurnUnitsPost@CvPlayerAI@@UAEXXZ ENDP		; CvPlayerAI::AI_doTurnUnitsPost
_TEXT	ENDS
EXTRN	?getTotalFoundValue@CvArea@@QBEHXZ:PROC		; CvArea::getTotalFoundValue
EXTRN	?isWater@CvArea@@QBE_NXZ:PROC			; CvArea::isWater
EXTRN	?getArea@CvMap@@QAEPAVCvArea@@H@Z:PROC		; CvMap::getArea
EXTRN	?GetSettlerSiteEvaluator@CvGame@@QAEPAVCvSiteEvaluatorForSettler@@XZ:PROC ; CvGame::GetSettlerSiteEvaluator
EXTRN	?setFoundValue@CvPlot@@QAEXW4PlayerTypes@@H@Z:PROC ; CvPlot::setFoundValue
EXTRN	?setTotalFoundValue@CvArea@@QAEXH@Z:PROC	; CvArea::setTotalFoundValue
EXTRN	?nextArea@CvMap@@QAEPAVCvArea@@PAH_N@Z:PROC	; CvMap::nextArea
EXTRN	?firstArea@CvMap@@QAEPAVCvArea@@PAH_N@Z:PROC	; CvMap::firstArea
; Function compile flags: /Odtp
;	COMDAT ?AI_updateFoundValues@CvPlayerAI@@UAEX_N@Z
_TEXT	SEGMENT
tv179 = -96						; size = 4
tv150 = -92						; size = 4
_this$ = -88						; size = 4
$T229176 = -84						; size = 4
$T229172 = -80						; size = 4
$T229168 = -76						; size = 4
_uiOffset$229163 = -72					; size = 4
$T229151 = -68						; size = 4
$T229147 = -64						; size = 4
$T229132 = -60						; size = 4
$T229120 = -56						; size = 4
$T229116 = -52						; size = 4
$T229109 = -48						; size = 4
_pLoopArea$225245 = -44					; size = 4
_iValue$225243 = -40					; size = 4
_pLoopPlot$225241 = -36					; size = 4
_iI$225237 = -32					; size = 4
_eTeam$225236 = -28					; size = 4
_iI$225231 = -24					; size = 4
_pLoopArea$225225 = -20					; size = 4
_eID$ = -16						; size = 4
_iGoodEnoughToBeWorthOurTime$ = -12			; size = 4
_iNumPlots$ = -8					; size = 4
_iLoop$ = -4						; size = 4
_bStartingLoc$ = 8					; size = 1
?AI_updateFoundValues@CvPlayerAI@@UAEX_N@Z PROC		; CvPlayerAI::AI_updateFoundValues, COMDAT
; _this$ = ecx

; 169  : {

	push	ebp
	mov	ebp, esp
	sub	esp, 96					; 00000060H
	mov	DWORD PTR _this$[ebp], ecx

; 170  : 	int iGoodEnoughToBeWorthOurTime = GC.getAI_STRATEGY_MINIMUM_SETTLE_FERTILITY();

	mov	eax, DWORD PTR ?gGlobals@@3VCvGlobals@@A+2028
	mov	DWORD PTR _iGoodEnoughToBeWorthOurTime$[ebp], eax

; 171  : 	int iLoop;
; 172  : 	const int iNumPlots = GC.getMap().numPlots();

	mov	ecx, DWORD PTR ?gGlobals@@3VCvGlobals@@A+52
	mov	DWORD PTR $T229109[ebp], ecx
	mov	edx, DWORD PTR $T229109[ebp]
	mov	eax, DWORD PTR [edx+4028]
	mov	DWORD PTR _iNumPlots$[ebp], eax

; 173  : 	for(CvArea* pLoopArea = GC.getMap().firstArea(&iLoop); pLoopArea != NULL; pLoopArea = GC.getMap().nextArea(&iLoop))

	mov	ecx, DWORD PTR ?gGlobals@@3VCvGlobals@@A+52
	mov	DWORD PTR $T229116[ebp], ecx
	push	0
	lea	edx, DWORD PTR _iLoop$[ebp]
	push	edx
	mov	ecx, DWORD PTR $T229116[ebp]
	call	?firstArea@CvMap@@QAEPAVCvArea@@PAH_N@Z	; CvMap::firstArea
	mov	DWORD PTR _pLoopArea$225225[ebp], eax
	jmp	SHORT $LN15@AI_updateF
$LN14@AI_updateF:
	mov	eax, DWORD PTR ?gGlobals@@3VCvGlobals@@A+52
	mov	DWORD PTR $T229120[ebp], eax
	push	0
	lea	ecx, DWORD PTR _iLoop$[ebp]
	push	ecx
	mov	ecx, DWORD PTR $T229120[ebp]
	call	?nextArea@CvMap@@QAEPAVCvArea@@PAH_N@Z	; CvMap::nextArea
	mov	DWORD PTR _pLoopArea$225225[ebp], eax
$LN15@AI_updateF:
	cmp	DWORD PTR _pLoopArea$225225[ebp], 0
	je	SHORT $LN30@AI_updateF

; 174  : 	{
; 175  : 		pLoopArea->setTotalFoundValue(0);

	push	0
	mov	ecx, DWORD PTR _pLoopArea$225225[ebp]
	call	?setTotalFoundValue@CvArea@@QAEXH@Z	; CvArea::setTotalFoundValue

; 176  : 	}

	jmp	SHORT $LN14@AI_updateF

; 177  : 
; 178  : 	const PlayerTypes eID = GetID();

$LN30@AI_updateF:
	mov	edx, DWORD PTR _this$[ebp]
	mov	eax, DWORD PTR [edx+44]
	mov	DWORD PTR _eID$[ebp], eax

; 179  : 	if(bStartingLoc)

	movzx	ecx, BYTE PTR _bStartingLoc$[ebp]
	test	ecx, ecx
	je	SHORT $LN36@AI_updateF

; 180  : 	{
; 181  : 		for(int iI = 0; iI < iNumPlots; iI++)

	mov	DWORD PTR _iI$225231[ebp], 0
	jmp	SHORT $LN11@AI_updateF
$LN10@AI_updateF:
	mov	edx, DWORD PTR _iI$225231[ebp]
	add	edx, 1
	mov	DWORD PTR _iI$225231[ebp], edx
$LN11@AI_updateF:
	mov	eax, DWORD PTR _iI$225231[ebp]
	cmp	eax, DWORD PTR _iNumPlots$[ebp]
	jge	SHORT $LN9@AI_updateF

; 182  : 		{
; 183  : 			GC.getMap().plotByIndexUnchecked(iI)->setFoundValue(eID, -1);

	mov	ecx, DWORD PTR ?gGlobals@@3VCvGlobals@@A+52
	mov	DWORD PTR $T229132[ebp], ecx
	push	-1
	mov	edx, DWORD PTR _eID$[ebp]
	push	edx
	mov	ecx, DWORD PTR _iI$225231[ebp]
	imul	ecx, 484				; 000001e4H
	mov	eax, DWORD PTR $T229132[ebp]
	add	ecx, DWORD PTR [eax+4068]
	call	?setFoundValue@CvPlot@@QAEXW4PlayerTypes@@H@Z ; CvPlot::setFoundValue

; 184  : 		}

	jmp	SHORT $LN10@AI_updateF
$LN9@AI_updateF:

; 185  : 	}
; 186  : 	else

	jmp	$LN16@AI_updateF

; 187  : 	{
; 188  : 		const TeamTypes eTeam = getTeam();

$LN36@AI_updateF:
	mov	ecx, DWORD PTR _this$[ebp]
	mov	edx, DWORD PTR [ecx+44]
	push	edx
	call	?teamType@CvPreGame@@YA?AW4TeamTypes@@W4PlayerTypes@@@Z ; CvPreGame::teamType
	add	esp, 4
	mov	DWORD PTR _eTeam$225236[ebp], eax

; 189  : 		GC.getGame().GetSettlerSiteEvaluator()->ComputeFlavorMultipliers(this);

	mov	eax, DWORD PTR ?gGlobals@@3VCvGlobals@@A+48
	mov	DWORD PTR $T229147[ebp], eax
	mov	ecx, DWORD PTR $T229147[ebp]
	call	?GetSettlerSiteEvaluator@CvGame@@QAEPAVCvSiteEvaluatorForSettler@@XZ ; CvGame::GetSettlerSiteEvaluator
	mov	DWORD PTR tv150[ebp], eax
	mov	ecx, DWORD PTR _this$[ebp]
	push	ecx
	mov	edx, DWORD PTR tv150[ebp]
	mov	eax, DWORD PTR [edx]
	mov	ecx, DWORD PTR tv150[ebp]
	mov	edx, DWORD PTR [eax+4]
	call	edx

; 190  : 		for (int iI = 0; iI < iNumPlots; iI++)

	mov	DWORD PTR _iI$225237[ebp], 0
	jmp	SHORT $LN7@AI_updateF
$LN6@AI_updateF:
	mov	eax, DWORD PTR _iI$225237[ebp]
	add	eax, 1
	mov	DWORD PTR _iI$225237[ebp], eax
$LN7@AI_updateF:
	mov	ecx, DWORD PTR _iI$225237[ebp]
	cmp	ecx, DWORD PTR _iNumPlots$[ebp]
	jge	$LN16@AI_updateF

; 191  : 		{
; 192  : 			CvPlot* pLoopPlot = GC.getMap().plotByIndexUnchecked(iI);

	mov	edx, DWORD PTR ?gGlobals@@3VCvGlobals@@A+52
	mov	DWORD PTR $T229151[ebp], edx
	mov	eax, DWORD PTR _iI$225237[ebp]
	imul	eax, 484				; 000001e4H
	mov	ecx, DWORD PTR $T229151[ebp]
	add	eax, DWORD PTR [ecx+4068]
	mov	DWORD PTR _pLoopPlot$225241[ebp], eax

; 193  : 
; 194  : 			if (pLoopPlot->isRevealed(eTeam))

	mov	edx, DWORD PTR _eTeam$225236[ebp]
	shr	edx, 5
	mov	DWORD PTR _uiOffset$229163[ebp], edx
	mov	eax, DWORD PTR _uiOffset$229163[ebp]
	shl	eax, 5
	mov	ecx, DWORD PTR _eTeam$225236[ebp]
	sub	ecx, eax
	mov	edx, 1
	shl	edx, cl
	mov	eax, DWORD PTR _uiOffset$229163[ebp]
	mov	ecx, DWORD PTR _pLoopPlot$225241[ebp]
	and	edx, DWORD PTR [ecx+eax*4+8]
	setne	dl
	movzx	eax, dl
	test	eax, eax
	je	$LN4@AI_updateF

; 195  : 			{
; 196  : 				const int iValue = GC.getGame().GetSettlerSiteEvaluator()->PlotFoundValue(pLoopPlot, this, NO_YIELD, false);

	mov	ecx, DWORD PTR ?gGlobals@@3VCvGlobals@@A+48
	mov	DWORD PTR $T229168[ebp], ecx
	mov	ecx, DWORD PTR $T229168[ebp]
	call	?GetSettlerSiteEvaluator@CvGame@@QAEPAVCvSiteEvaluatorForSettler@@XZ ; CvGame::GetSettlerSiteEvaluator
	mov	DWORD PTR tv179[ebp], eax
	push	0
	push	-1
	mov	edx, DWORD PTR _this$[ebp]
	push	edx
	mov	eax, DWORD PTR _pLoopPlot$225241[ebp]
	push	eax
	mov	ecx, DWORD PTR tv179[ebp]
	mov	edx, DWORD PTR [ecx]
	mov	ecx, DWORD PTR tv179[ebp]
	mov	eax, DWORD PTR [edx+12]
	call	eax
	mov	DWORD PTR _iValue$225243[ebp], eax

; 197  : 				pLoopPlot->setFoundValue(eID, iValue);

	mov	ecx, DWORD PTR _iValue$225243[ebp]
	push	ecx
	mov	edx, DWORD PTR _eID$[ebp]
	push	edx
	mov	ecx, DWORD PTR _pLoopPlot$225241[ebp]
	call	?setFoundValue@CvPlot@@QAEXW4PlayerTypes@@H@Z ; CvPlot::setFoundValue

; 198  : 				if (iValue >= iGoodEnoughToBeWorthOurTime)

	mov	eax, DWORD PTR _iValue$225243[ebp]
	cmp	eax, DWORD PTR _iGoodEnoughToBeWorthOurTime$[ebp]
	jl	SHORT $LN3@AI_updateF

; 199  : 				{
; 200  : 					CvArea* pLoopArea = GC.getMap().getArea(pLoopPlot->getArea());

	mov	ecx, DWORD PTR _pLoopPlot$225241[ebp]
	mov	edx, DWORD PTR [ecx+356]
	mov	DWORD PTR $T229172[ebp], edx
	mov	eax, DWORD PTR ?gGlobals@@3VCvGlobals@@A+52
	mov	DWORD PTR $T229176[ebp], eax
	mov	ecx, DWORD PTR $T229172[ebp]
	push	ecx
	mov	ecx, DWORD PTR $T229176[ebp]
	call	?getArea@CvMap@@QAEPAVCvArea@@H@Z	; CvMap::getArea
	mov	DWORD PTR _pLoopArea$225245[ebp], eax

; 201  : 					if(pLoopArea && !pLoopArea->isWater())

	cmp	DWORD PTR _pLoopArea$225245[ebp], 0
	je	SHORT $LN3@AI_updateF
	mov	ecx, DWORD PTR _pLoopArea$225245[ebp]
	call	?isWater@CvArea@@QBE_NXZ		; CvArea::isWater
	movzx	edx, al
	test	edx, edx
	jne	SHORT $LN3@AI_updateF

; 202  : 					{
; 203  : 						pLoopArea->setTotalFoundValue(pLoopArea->getTotalFoundValue() + iValue);

	mov	ecx, DWORD PTR _pLoopArea$225245[ebp]
	call	?getTotalFoundValue@CvArea@@QBEHXZ	; CvArea::getTotalFoundValue
	add	eax, DWORD PTR _iValue$225243[ebp]
	push	eax
	mov	ecx, DWORD PTR _pLoopArea$225245[ebp]
	call	?setTotalFoundValue@CvArea@@QAEXH@Z	; CvArea::setTotalFoundValue
$LN3@AI_updateF:

; 204  : 					}
; 205  : 				}
; 206  : 			}
; 207  : 			else

	jmp	SHORT $LN1@AI_updateF
$LN4@AI_updateF:

; 208  : 			{
; 209  : 				pLoopPlot->setFoundValue(eID, -1);

	push	-1
	mov	eax, DWORD PTR _eID$[ebp]
	push	eax
	mov	ecx, DWORD PTR _pLoopPlot$225241[ebp]
	call	?setFoundValue@CvPlot@@QAEXW4PlayerTypes@@H@Z ; CvPlot::setFoundValue
$LN1@AI_updateF:

; 210  : 			}

	jmp	$LN6@AI_updateF
$LN16@AI_updateF:

; 211  : 		}
; 212  : 	}
; 213  : }

	mov	esp, ebp
	pop	ebp
	ret	4
?AI_updateFoundValues@CvPlayerAI@@UAEX_N@Z ENDP		; CvPlayerAI::AI_updateFoundValues
_TEXT	ENDS
PUBLIC	??_C@_0BG@FMLOPNPI@PlayerPreAIUnitUpdate?$AA@	; `string'
EXTRN	?RecruitUnits@CvHomelandAI@@QAEXXZ:PROC		; CvHomelandAI::RecruitUnits
EXTRN	?Update@CvTacticalAI@@QAEXXZ:PROC		; CvTacticalAI::Update
EXTRN	?CommandeerUnits@CvTacticalAI@@QAEXXZ:PROC	; CvTacticalAI::CommandeerUnits
EXTRN	?Update@CvHomelandAI@@QAEXXZ:PROC		; CvHomelandAI::Update
EXTRN	?FindAutomatedUnits@CvHomelandAI@@QAEXXZ:PROC	; CvHomelandAI::FindAutomatedUnits
EXTRN	?GetHomelandAI@CvPlayer@@QBEPAVCvHomelandAI@@XZ:PROC ; CvPlayer::GetHomelandAI
EXTRN	?dispatchingNetMessage@CvUnit@@SAX_N@Z:PROC	; CvUnit::dispatchingNetMessage
EXTRN	?hasBusyUnitOrCity@CvPlayer@@QBE_NXZ:PROC	; CvPlayer::hasBusyUnitOrCity
EXTRN	??1CvLuaArgsHandle@@QAE@XZ:PROC			; CvLuaArgsHandle::~CvLuaArgsHandle
EXTRN	?CallHook@LuaSupport@@YA_NPAVICvEngineScriptSystem1@@PBDPAVICvEngineScriptSystemArgs1@@AA_N@Z:PROC ; LuaSupport::CallHook
EXTRN	??0CvLuaArgsHandle@@QAE@XZ:PROC			; CvLuaArgsHandle::CvLuaArgsHandle
EXTRN	?getInfluenceFinder@CvGlobals@@QAEAAVCvAStar@@XZ:PROC ; CvGlobals::getInfluenceFinder
EXTRN	?GetTacticalAnalysisMapFinder@CvGlobals@@QAEAAVCvTwoLayerPathFinder@@XZ:PROC ; CvGlobals::GetTacticalAnalysisMapFinder
EXTRN	?GetWaterRouteFinder@CvGlobals@@QAEAAVCvAStar@@XZ:PROC ; CvGlobals::GetWaterRouteFinder
EXTRN	?getRouteFinder@CvGlobals@@QAEAAVCvAStar@@XZ:PROC ; CvGlobals::getRouteFinder
EXTRN	?getIgnoreUnitsPathFinder@CvGlobals@@QAEAAVCvIgnoreUnitsPathFinder@@XZ:PROC ; CvGlobals::getIgnoreUnitsPathFinder
EXTRN	?getPathFinder@CvGlobals@@QAEAAVCvTwoLayerPathFinder@@XZ:PROC ; CvGlobals::getPathFinder
;	COMDAT ??_C@_0BG@FMLOPNPI@PlayerPreAIUnitUpdate?$AA@
; File d:\sources\lekmod_git\checkout\lekmod_dll\cvgamecoredll_expansion2\cvastar.h
CONST	SEGMENT
??_C@_0BG@FMLOPNPI@PlayerPreAIUnitUpdate?$AA@ DB 'PlayerPreAIUnitUpdate', 00H ; `string'
CONST	ENDS
;	COMDAT xdata$x
xdata$x	SEGMENT
__unwindtable$?AI_unitUpdate@CvPlayerAI@@UAEXXZ DD 0ffffffffH
	DD	FLAT:__unwindfunclet$?AI_unitUpdate@CvPlayerAI@@UAEXXZ$0
__ehfuncinfo$?AI_unitUpdate@CvPlayerAI@@UAEXXZ DD 019930522H
	DD	01H
	DD	FLAT:__unwindtable$?AI_unitUpdate@CvPlayerAI@@UAEXXZ
	DD	2 DUP(00H)
	DD	2 DUP(00H)
	DD	00H
	DD	01H
; Function compile flags: /Odtp
; File d:\sources\lekmod_git\checkout\lekmod_dll\cvgamecoredll_expansion2\cvplayerai.cpp
xdata$x	ENDS
;	COMDAT ?AI_unitUpdate@CvPlayerAI@@UAEXXZ
_TEXT	SEGMENT
tv176 = -168						; size = 4
tv165 = -164						; size = 4
_this$ = -160						; size = 4
$T229289 = -156						; size = 4
_bOldState$229286 = -149				; size = 1
$T229283 = -148						; size = 4
_bOldState$229280 = -141				; size = 1
$T229277 = -140						; size = 4
_bOldState$229274 = -133				; size = 1
$T229271 = -132						; size = 4
_bOldState$229268 = -125				; size = 1
$T229265 = -124						; size = 4
_bOldState$229262 = -117				; size = 1
$T229259 = -116						; size = 4
_bOldState$229256 = -109				; size = 1
$T229247 = -108						; size = 4
$T229235 = -104						; size = 4
$T229231 = -100						; size = 4
_bOldState$229229 = -93					; size = 1
$T229225 = -92						; size = 4
_bOldState$229223 = -85					; size = 1
$T229219 = -84						; size = 4
_bOldState$229217 = -77					; size = 1
$T229213 = -76						; size = 4
_bOldState$229211 = -69					; size = 1
$T229207 = -68						; size = 4
_bOldState$229205 = -61					; size = 1
$T229201 = -60						; size = 4
_bOldState$229199 = -53					; size = 1
$T229195 = -52						; size = 4
$T229191 = -48						; size = 4
$T229187 = -44						; size = 4
$T229183 = -40						; size = 4
_bResult$225260 = -33					; size = 1
_args$225259 = -32					; size = 4
_bIgnoreUnitsPathFinderMPCaching$ = -25			; size = 1
_bTacticalPathFinderMPCaching$ = -24			; size = 1
_bInfluencePathFinderMPCaching$ = -23			; size = 1
_bCommonPathFinderMPCaching$ = -22			; size = 1
_bWaterRoutePathFinderMPCaching$ = -21			; size = 1
_pkScriptSystem$ = -20					; size = 4
_bRoutePathFinderMPCaching$ = -13			; size = 1
__$EHRec$ = -12						; size = 12
?AI_unitUpdate@CvPlayerAI@@UAEXXZ PROC			; CvPlayerAI::AI_unitUpdate, COMDAT
; _this$ = ecx

; 217  : {

	push	ebp
	mov	ebp, esp
	push	-1
	push	__ehhandler$?AI_unitUpdate@CvPlayerAI@@UAEXXZ
	mov	eax, DWORD PTR fs:0
	push	eax
	sub	esp, 156				; 0000009cH
	mov	eax, DWORD PTR ___security_cookie
	xor	eax, ebp
	push	eax
	lea	eax, DWORD PTR __$EHRec$[ebp]
	mov	DWORD PTR fs:0, eax
	mov	DWORD PTR _this$[ebp], ecx

; 218  : 	GC.getPathFinder().ForceReset();

	mov	ecx, OFFSET ?gGlobals@@3VCvGlobals@@A	; gGlobals
	call	?getPathFinder@CvGlobals@@QAEAAVCvTwoLayerPathFinder@@XZ ; CvGlobals::getPathFinder
	mov	DWORD PTR $T229183[ebp], eax
	mov	eax, DWORD PTR $T229183[ebp]
	mov	BYTE PTR [eax+78], 1

; 219  : 	GC.getIgnoreUnitsPathFinder().ForceReset();

	mov	ecx, OFFSET ?gGlobals@@3VCvGlobals@@A	; gGlobals
	call	?getIgnoreUnitsPathFinder@CvGlobals@@QAEAAVCvIgnoreUnitsPathFinder@@XZ ; CvGlobals::getIgnoreUnitsPathFinder
	mov	DWORD PTR $T229187[ebp], eax
	mov	ecx, DWORD PTR $T229187[ebp]
	mov	BYTE PTR [ecx+78], 1

; 220  : 	GC.getRouteFinder().ForceReset();

	mov	ecx, OFFSET ?gGlobals@@3VCvGlobals@@A	; gGlobals
	call	?getRouteFinder@CvGlobals@@QAEAAVCvAStar@@XZ ; CvGlobals::getRouteFinder
	mov	DWORD PTR $T229191[ebp], eax
	mov	edx, DWORD PTR $T229191[ebp]
	mov	BYTE PTR [edx+78], 1

; 221  : 	GC.GetWaterRouteFinder().ForceReset();

	mov	ecx, OFFSET ?gGlobals@@3VCvGlobals@@A	; gGlobals
	call	?GetWaterRouteFinder@CvGlobals@@QAEAAVCvAStar@@XZ ; CvGlobals::GetWaterRouteFinder
	mov	DWORD PTR $T229195[ebp], eax
	mov	eax, DWORD PTR $T229195[ebp]
	mov	BYTE PTR [eax+78], 1

; 222  : 
; 223  : 	// Set individual pathers as MP cache safe.  A global for all pathers might be simpler,
; 224  : 	// but this will allow selective control in case one type of pather is causing out-of-syncs.
; 225  : 	bool bCommonPathFinderMPCaching = GC.getPathFinder().SetMPCacheSafe(true);

	mov	ecx, OFFSET ?gGlobals@@3VCvGlobals@@A	; gGlobals
	call	?getPathFinder@CvGlobals@@QAEAAVCvTwoLayerPathFinder@@XZ ; CvGlobals::getPathFinder
	mov	DWORD PTR $T229201[ebp], eax
	mov	ecx, DWORD PTR $T229201[ebp]
	mov	dl, BYTE PTR [ecx+79]
	mov	BYTE PTR _bOldState$229199[ebp], dl
	mov	eax, 1
	mov	ecx, DWORD PTR $T229201[ebp]
	movzx	edx, BYTE PTR [ecx+79]
	cmp	eax, edx
	je	SHORT $LN18@AI_unitUpd
	mov	eax, DWORD PTR $T229201[ebp]
	mov	BYTE PTR [eax+78], 1
	mov	ecx, DWORD PTR $T229201[ebp]
	mov	BYTE PTR [ecx+79], 1
$LN18@AI_unitUpd:
	mov	dl, BYTE PTR _bOldState$229199[ebp]
	mov	BYTE PTR _bCommonPathFinderMPCaching$[ebp], dl

; 226  : 	bool bIgnoreUnitsPathFinderMPCaching = GC.getIgnoreUnitsPathFinder().SetMPCacheSafe(true);

	mov	ecx, OFFSET ?gGlobals@@3VCvGlobals@@A	; gGlobals
	call	?getIgnoreUnitsPathFinder@CvGlobals@@QAEAAVCvIgnoreUnitsPathFinder@@XZ ; CvGlobals::getIgnoreUnitsPathFinder
	mov	DWORD PTR $T229207[ebp], eax
	mov	eax, DWORD PTR $T229207[ebp]
	mov	cl, BYTE PTR [eax+79]
	mov	BYTE PTR _bOldState$229205[ebp], cl
	mov	edx, 1
	mov	eax, DWORD PTR $T229207[ebp]
	movzx	ecx, BYTE PTR [eax+79]
	cmp	edx, ecx
	je	SHORT $LN21@AI_unitUpd
	mov	edx, DWORD PTR $T229207[ebp]
	mov	BYTE PTR [edx+78], 1
	mov	eax, DWORD PTR $T229207[ebp]
	mov	BYTE PTR [eax+79], 1
$LN21@AI_unitUpd:
	mov	cl, BYTE PTR _bOldState$229205[ebp]
	mov	BYTE PTR _bIgnoreUnitsPathFinderMPCaching$[ebp], cl

; 227  : 	bool bTacticalPathFinderMPCaching = GC.GetTacticalAnalysisMapFinder().SetMPCacheSafe(true);

	mov	ecx, OFFSET ?gGlobals@@3VCvGlobals@@A	; gGlobals
	call	?GetTacticalAnalysisMapFinder@CvGlobals@@QAEAAVCvTwoLayerPathFinder@@XZ ; CvGlobals::GetTacticalAnalysisMapFinder
	mov	DWORD PTR $T229213[ebp], eax
	mov	edx, DWORD PTR $T229213[ebp]
	mov	al, BYTE PTR [edx+79]
	mov	BYTE PTR _bOldState$229211[ebp], al
	mov	ecx, 1
	mov	edx, DWORD PTR $T229213[ebp]
	movzx	eax, BYTE PTR [edx+79]
	cmp	ecx, eax
	je	SHORT $LN24@AI_unitUpd
	mov	ecx, DWORD PTR $T229213[ebp]
	mov	BYTE PTR [ecx+78], 1
	mov	edx, DWORD PTR $T229213[ebp]
	mov	BYTE PTR [edx+79], 1
$LN24@AI_unitUpd:
	mov	al, BYTE PTR _bOldState$229211[ebp]
	mov	BYTE PTR _bTacticalPathFinderMPCaching$[ebp], al

; 228  : 	bool bInfluencePathFinderMPCaching = GC.getInfluenceFinder().SetMPCacheSafe(true);

	mov	ecx, OFFSET ?gGlobals@@3VCvGlobals@@A	; gGlobals
	call	?getInfluenceFinder@CvGlobals@@QAEAAVCvAStar@@XZ ; CvGlobals::getInfluenceFinder
	mov	DWORD PTR $T229219[ebp], eax
	mov	ecx, DWORD PTR $T229219[ebp]
	mov	dl, BYTE PTR [ecx+79]
	mov	BYTE PTR _bOldState$229217[ebp], dl
	mov	eax, 1
	mov	ecx, DWORD PTR $T229219[ebp]
	movzx	edx, BYTE PTR [ecx+79]
	cmp	eax, edx
	je	SHORT $LN27@AI_unitUpd
	mov	eax, DWORD PTR $T229219[ebp]
	mov	BYTE PTR [eax+78], 1
	mov	ecx, DWORD PTR $T229219[ebp]
	mov	BYTE PTR [ecx+79], 1
$LN27@AI_unitUpd:
	mov	dl, BYTE PTR _bOldState$229217[ebp]
	mov	BYTE PTR _bInfluencePathFinderMPCaching$[ebp], dl

; 229  : 	bool bRoutePathFinderMPCaching = GC.getRouteFinder().SetMPCacheSafe(true);

	mov	ecx, OFFSET ?gGlobals@@3VCvGlobals@@A	; gGlobals
	call	?getRouteFinder@CvGlobals@@QAEAAVCvAStar@@XZ ; CvGlobals::getRouteFinder
	mov	DWORD PTR $T229225[ebp], eax
	mov	eax, DWORD PTR $T229225[ebp]
	mov	cl, BYTE PTR [eax+79]
	mov	BYTE PTR _bOldState$229223[ebp], cl
	mov	edx, 1
	mov	eax, DWORD PTR $T229225[ebp]
	movzx	ecx, BYTE PTR [eax+79]
	cmp	edx, ecx
	je	SHORT $LN30@AI_unitUpd
	mov	edx, DWORD PTR $T229225[ebp]
	mov	BYTE PTR [edx+78], 1
	mov	eax, DWORD PTR $T229225[ebp]
	mov	BYTE PTR [eax+79], 1
$LN30@AI_unitUpd:
	mov	cl, BYTE PTR _bOldState$229223[ebp]
	mov	BYTE PTR _bRoutePathFinderMPCaching$[ebp], cl

; 230  : 	bool bWaterRoutePathFinderMPCaching = GC.GetWaterRouteFinder().SetMPCacheSafe(true);

	mov	ecx, OFFSET ?gGlobals@@3VCvGlobals@@A	; gGlobals
	call	?GetWaterRouteFinder@CvGlobals@@QAEAAVCvAStar@@XZ ; CvGlobals::GetWaterRouteFinder
	mov	DWORD PTR $T229231[ebp], eax
	mov	edx, DWORD PTR $T229231[ebp]
	mov	al, BYTE PTR [edx+79]
	mov	BYTE PTR _bOldState$229229[ebp], al
	mov	ecx, 1
	mov	edx, DWORD PTR $T229231[ebp]
	movzx	eax, BYTE PTR [edx+79]
	cmp	ecx, eax
	je	SHORT $LN33@AI_unitUpd
	mov	ecx, DWORD PTR $T229231[ebp]
	mov	BYTE PTR [ecx+78], 1
	mov	edx, DWORD PTR $T229231[ebp]
	mov	BYTE PTR [edx+79], 1
$LN33@AI_unitUpd:
	mov	al, BYTE PTR _bOldState$229229[ebp]
	mov	BYTE PTR _bWaterRoutePathFinderMPCaching$[ebp], al

; 231  : 
; 232  : 	ICvEngineScriptSystem1* pkScriptSystem = gDLL->GetScriptSystem();

	mov	ecx, DWORD PTR $T229235[ebp]
	mov	DWORD PTR tv165[ebp], ecx
	mov	edx, DWORD PTR ?gGlobals@@3VCvGlobals@@A+8564
	mov	DWORD PTR tv165[ebp], edx
	mov	eax, DWORD PTR tv165[ebp]
	mov	edx, DWORD PTR [eax]
	mov	ecx, DWORD PTR tv165[ebp]
	mov	eax, DWORD PTR [edx+12]
	call	eax
	mov	DWORD PTR _pkScriptSystem$[ebp], eax

; 233  : 	if(pkScriptSystem)

	cmp	DWORD PTR _pkScriptSystem$[ebp], 0
	je	SHORT $LN5@AI_unitUpd

; 234  : 	{
; 235  : 		CvLuaArgsHandle args;

	lea	ecx, DWORD PTR _args$225259[ebp]
	call	??0CvLuaArgsHandle@@QAE@XZ		; CvLuaArgsHandle::CvLuaArgsHandle
	mov	DWORD PTR __$EHRec$[ebp+8], 0

; 236  : 		args->Push(GetID());

	mov	ecx, DWORD PTR _args$225259[ebp]
	mov	DWORD PTR tv176[ebp], ecx
	mov	edx, DWORD PTR _this$[ebp]
	mov	eax, DWORD PTR [edx+44]
	mov	DWORD PTR $T229247[ebp], eax
	mov	ecx, DWORD PTR $T229247[ebp]
	push	ecx
	mov	edx, DWORD PTR tv176[ebp]
	mov	eax, DWORD PTR [edx]
	mov	ecx, DWORD PTR tv176[ebp]
	mov	edx, DWORD PTR [eax+8]
	call	edx

; 237  : 
; 238  : 		bool bResult;
; 239  : 		LuaSupport::CallHook(pkScriptSystem, "PlayerPreAIUnitUpdate", args.get(), bResult);

	lea	eax, DWORD PTR _bResult$225260[ebp]
	push	eax
	mov	ecx, DWORD PTR _args$225259[ebp]
	push	ecx
	push	OFFSET ??_C@_0BG@FMLOPNPI@PlayerPreAIUnitUpdate?$AA@
	mov	edx, DWORD PTR _pkScriptSystem$[ebp]
	push	edx
	call	?CallHook@LuaSupport@@YA_NPAVICvEngineScriptSystem1@@PBDPAVICvEngineScriptSystemArgs1@@AA_N@Z ; LuaSupport::CallHook
	add	esp, 16					; 00000010H

; 240  : 	}

	mov	DWORD PTR __$EHRec$[ebp+8], -1
	lea	ecx, DWORD PTR _args$225259[ebp]
	call	??1CvLuaArgsHandle@@QAE@XZ		; CvLuaArgsHandle::~CvLuaArgsHandle
$LN5@AI_unitUpd:

; 241  : 
; 242  : 	//GC.getGame().GetTacticalAnalysisMap()->RefreshDataForNextPlayer(this);
; 243  : 
; 244  : 	// this was a !hasBusyUnit around the entire rest of the function, so I tried to make it a bit flatter.
; 245  : 	if(hasBusyUnitOrCity())

	mov	ecx, DWORD PTR _this$[ebp]
	call	?hasBusyUnitOrCity@CvPlayer@@QBE_NXZ	; CvPlayer::hasBusyUnitOrCity
	movzx	eax, al
	test	eax, eax
	je	SHORT $LN4@AI_unitUpd

; 246  : 	{
; 247  : 		return;

	jmp	$LN6@AI_unitUpd
$LN4@AI_unitUpd:

; 248  : 	}
; 249  : 
; 250  : 	if(isHuman())

	mov	ecx, DWORD PTR _this$[ebp]
	call	?isHuman@CvPlayer@@QBE_NXZ		; CvPlayer::isHuman
	movzx	ecx, al
	test	ecx, ecx
	je	SHORT $LN3@AI_unitUpd

; 251  : 	{
; 252  : 		CvUnit::dispatchingNetMessage(true);

	push	1
	call	?dispatchingNetMessage@CvUnit@@SAX_N@Z	; CvUnit::dispatchingNetMessage
	add	esp, 4

; 253  : 		// The homeland AI goes first.
; 254  : 		GetHomelandAI()->FindAutomatedUnits();

	mov	ecx, DWORD PTR _this$[ebp]
	call	?GetHomelandAI@CvPlayer@@QBEPAVCvHomelandAI@@XZ ; CvPlayer::GetHomelandAI
	mov	ecx, eax
	call	?FindAutomatedUnits@CvHomelandAI@@QAEXXZ ; CvHomelandAI::FindAutomatedUnits

; 255  : 		GetHomelandAI()->Update();

	mov	ecx, DWORD PTR _this$[ebp]
	call	?GetHomelandAI@CvPlayer@@QBEPAVCvHomelandAI@@XZ ; CvPlayer::GetHomelandAI
	mov	ecx, eax
	call	?Update@CvHomelandAI@@QAEXXZ		; CvHomelandAI::Update

; 256  : 		CvUnit::dispatchingNetMessage(false);

	push	0
	call	?dispatchingNetMessage@CvUnit@@SAX_N@Z	; CvUnit::dispatchingNetMessage
	add	esp, 4

; 257  : 	}
; 258  : 	else

	jmp	SHORT $LN2@AI_unitUpd
$LN3@AI_unitUpd:

; 259  : 	{
; 260  : 		// Update tactical AI
; 261  : 		GetTacticalAI()->CommandeerUnits();

	mov	ecx, DWORD PTR _this$[ebp]
	call	?GetTacticalAI@CvPlayer@@QBEPAVCvTacticalAI@@XZ ; CvPlayer::GetTacticalAI
	mov	ecx, eax
	call	?CommandeerUnits@CvTacticalAI@@QAEXXZ	; CvTacticalAI::CommandeerUnits

; 262  : 
; 263  : 		// Now let the tactical AI run.  Putting it after the operations update allows units who have
; 264  : 		// just been handed off to the tactical AI to get a move in the same turn they switch between
; 265  : 		// AI subsystems
; 266  : 		GetTacticalAI()->Update();

	mov	ecx, DWORD PTR _this$[ebp]
	call	?GetTacticalAI@CvPlayer@@QBEPAVCvTacticalAI@@XZ ; CvPlayer::GetTacticalAI
	mov	ecx, eax
	call	?Update@CvTacticalAI@@QAEXXZ		; CvTacticalAI::Update

; 267  : 
; 268  : 		// Skip homeland AI processing if a barbarian
; 269  : 		if(m_eID != BARBARIAN_PLAYER)

	mov	edx, DWORD PTR _this$[ebp]
	cmp	DWORD PTR [edx+44], 63			; 0000003fH
	je	SHORT $LN2@AI_unitUpd

; 270  : 		{
; 271  : 			// Now its the homeland AI's turn.
; 272  : 			GetHomelandAI()->RecruitUnits();

	mov	ecx, DWORD PTR _this$[ebp]
	call	?GetHomelandAI@CvPlayer@@QBEPAVCvHomelandAI@@XZ ; CvPlayer::GetHomelandAI
	mov	ecx, eax
	call	?RecruitUnits@CvHomelandAI@@QAEXXZ	; CvHomelandAI::RecruitUnits

; 273  : 			GetHomelandAI()->Update();

	mov	ecx, DWORD PTR _this$[ebp]
	call	?GetHomelandAI@CvPlayer@@QBEPAVCvHomelandAI@@XZ ; CvPlayer::GetHomelandAI
	mov	ecx, eax
	call	?Update@CvHomelandAI@@QAEXXZ		; CvHomelandAI::Update
$LN2@AI_unitUpd:

; 274  : 		}
; 275  : 	}
; 276  : 
; 277  : 	GC.getPathFinder().SetMPCacheSafe(bCommonPathFinderMPCaching);

	mov	ecx, OFFSET ?gGlobals@@3VCvGlobals@@A	; gGlobals
	call	?getPathFinder@CvGlobals@@QAEAAVCvTwoLayerPathFinder@@XZ ; CvGlobals::getPathFinder
	mov	DWORD PTR $T229259[ebp], eax
	mov	eax, DWORD PTR $T229259[ebp]
	mov	cl, BYTE PTR [eax+79]
	mov	BYTE PTR _bOldState$229256[ebp], cl
	movzx	edx, BYTE PTR _bCommonPathFinderMPCaching$[ebp]
	mov	eax, DWORD PTR $T229259[ebp]
	movzx	ecx, BYTE PTR [eax+79]
	cmp	edx, ecx
	je	SHORT $LN48@AI_unitUpd
	mov	edx, DWORD PTR $T229259[ebp]
	mov	BYTE PTR [edx+78], 1
	mov	eax, DWORD PTR $T229259[ebp]
	mov	cl, BYTE PTR _bCommonPathFinderMPCaching$[ebp]
	mov	BYTE PTR [eax+79], cl
$LN48@AI_unitUpd:

; 278  : 	GC.getIgnoreUnitsPathFinder().SetMPCacheSafe(bIgnoreUnitsPathFinderMPCaching);

	mov	ecx, OFFSET ?gGlobals@@3VCvGlobals@@A	; gGlobals
	call	?getIgnoreUnitsPathFinder@CvGlobals@@QAEAAVCvIgnoreUnitsPathFinder@@XZ ; CvGlobals::getIgnoreUnitsPathFinder
	mov	DWORD PTR $T229265[ebp], eax
	mov	edx, DWORD PTR $T229265[ebp]
	mov	al, BYTE PTR [edx+79]
	mov	BYTE PTR _bOldState$229262[ebp], al
	movzx	ecx, BYTE PTR _bIgnoreUnitsPathFinderMPCaching$[ebp]
	mov	edx, DWORD PTR $T229265[ebp]
	movzx	eax, BYTE PTR [edx+79]
	cmp	ecx, eax
	je	SHORT $LN51@AI_unitUpd
	mov	ecx, DWORD PTR $T229265[ebp]
	mov	BYTE PTR [ecx+78], 1
	mov	edx, DWORD PTR $T229265[ebp]
	mov	al, BYTE PTR _bIgnoreUnitsPathFinderMPCaching$[ebp]
	mov	BYTE PTR [edx+79], al
$LN51@AI_unitUpd:

; 279  : 	GC.GetTacticalAnalysisMapFinder().SetMPCacheSafe(bTacticalPathFinderMPCaching);

	mov	ecx, OFFSET ?gGlobals@@3VCvGlobals@@A	; gGlobals
	call	?GetTacticalAnalysisMapFinder@CvGlobals@@QAEAAVCvTwoLayerPathFinder@@XZ ; CvGlobals::GetTacticalAnalysisMapFinder
	mov	DWORD PTR $T229271[ebp], eax
	mov	ecx, DWORD PTR $T229271[ebp]
	mov	dl, BYTE PTR [ecx+79]
	mov	BYTE PTR _bOldState$229268[ebp], dl
	movzx	eax, BYTE PTR _bTacticalPathFinderMPCaching$[ebp]
	mov	ecx, DWORD PTR $T229271[ebp]
	movzx	edx, BYTE PTR [ecx+79]
	cmp	eax, edx
	je	SHORT $LN54@AI_unitUpd
	mov	eax, DWORD PTR $T229271[ebp]
	mov	BYTE PTR [eax+78], 1
	mov	ecx, DWORD PTR $T229271[ebp]
	mov	dl, BYTE PTR _bTacticalPathFinderMPCaching$[ebp]
	mov	BYTE PTR [ecx+79], dl
$LN54@AI_unitUpd:

; 280  : 	GC.getInfluenceFinder().SetMPCacheSafe(bInfluencePathFinderMPCaching);

	mov	ecx, OFFSET ?gGlobals@@3VCvGlobals@@A	; gGlobals
	call	?getInfluenceFinder@CvGlobals@@QAEAAVCvAStar@@XZ ; CvGlobals::getInfluenceFinder
	mov	DWORD PTR $T229277[ebp], eax
	mov	eax, DWORD PTR $T229277[ebp]
	mov	cl, BYTE PTR [eax+79]
	mov	BYTE PTR _bOldState$229274[ebp], cl
	movzx	edx, BYTE PTR _bInfluencePathFinderMPCaching$[ebp]
	mov	eax, DWORD PTR $T229277[ebp]
	movzx	ecx, BYTE PTR [eax+79]
	cmp	edx, ecx
	je	SHORT $LN57@AI_unitUpd
	mov	edx, DWORD PTR $T229277[ebp]
	mov	BYTE PTR [edx+78], 1
	mov	eax, DWORD PTR $T229277[ebp]
	mov	cl, BYTE PTR _bInfluencePathFinderMPCaching$[ebp]
	mov	BYTE PTR [eax+79], cl
$LN57@AI_unitUpd:

; 281  : 	GC.getRouteFinder().SetMPCacheSafe(bRoutePathFinderMPCaching);

	mov	ecx, OFFSET ?gGlobals@@3VCvGlobals@@A	; gGlobals
	call	?getRouteFinder@CvGlobals@@QAEAAVCvAStar@@XZ ; CvGlobals::getRouteFinder
	mov	DWORD PTR $T229283[ebp], eax
	mov	edx, DWORD PTR $T229283[ebp]
	mov	al, BYTE PTR [edx+79]
	mov	BYTE PTR _bOldState$229280[ebp], al
	movzx	ecx, BYTE PTR _bRoutePathFinderMPCaching$[ebp]
	mov	edx, DWORD PTR $T229283[ebp]
	movzx	eax, BYTE PTR [edx+79]
	cmp	ecx, eax
	je	SHORT $LN60@AI_unitUpd
	mov	ecx, DWORD PTR $T229283[ebp]
	mov	BYTE PTR [ecx+78], 1
	mov	edx, DWORD PTR $T229283[ebp]
	mov	al, BYTE PTR _bRoutePathFinderMPCaching$[ebp]
	mov	BYTE PTR [edx+79], al
$LN60@AI_unitUpd:

; 282  : 	GC.GetWaterRouteFinder().SetMPCacheSafe(bWaterRoutePathFinderMPCaching);

	mov	ecx, OFFSET ?gGlobals@@3VCvGlobals@@A	; gGlobals
	call	?GetWaterRouteFinder@CvGlobals@@QAEAAVCvAStar@@XZ ; CvGlobals::GetWaterRouteFinder
	mov	DWORD PTR $T229289[ebp], eax
	mov	ecx, DWORD PTR $T229289[ebp]
	mov	dl, BYTE PTR [ecx+79]
	mov	BYTE PTR _bOldState$229286[ebp], dl
	movzx	eax, BYTE PTR _bWaterRoutePathFinderMPCaching$[ebp]
	mov	ecx, DWORD PTR $T229289[ebp]
	movzx	edx, BYTE PTR [ecx+79]
	cmp	eax, edx
	je	SHORT $LN6@AI_unitUpd
	mov	eax, DWORD PTR $T229289[ebp]
	mov	BYTE PTR [eax+78], 1
	mov	ecx, DWORD PTR $T229289[ebp]
	mov	dl, BYTE PTR _bWaterRoutePathFinderMPCaching$[ebp]
	mov	BYTE PTR [ecx+79], dl
$LN6@AI_unitUpd:

; 283  : }

	mov	ecx, DWORD PTR __$EHRec$[ebp]
	mov	DWORD PTR fs:0, ecx
	pop	ecx
	mov	esp, ebp
	pop	ebp
	ret	0
_TEXT	ENDS
;	COMDAT text$x
text$x	SEGMENT
__unwindfunclet$?AI_unitUpdate@CvPlayerAI@@UAEXXZ$0:
	lea	ecx, DWORD PTR _args$225259[ebp]
	jmp	??1CvLuaArgsHandle@@QAE@XZ		; CvLuaArgsHandle::~CvLuaArgsHandle
__ehhandler$?AI_unitUpdate@CvPlayerAI@@UAEXXZ:
	mov	edx, DWORD PTR [esp+8]
	lea	eax, DWORD PTR [edx+12]
	mov	ecx, DWORD PTR [edx-160]
	xor	ecx, eax
	call	@__security_check_cookie@4
	mov	eax, OFFSET __ehfuncinfo$?AI_unitUpdate@CvPlayerAI@@UAEXXZ
	jmp	___CxxFrameHandler3
text$x	ENDS
?AI_unitUpdate@CvPlayerAI@@UAEXXZ ENDP			; CvPlayerAI::AI_unitUpdate
EXTRN	?DoCreatePuppet@CvCity@@QAEXXZ:PROC		; CvCity::DoCreatePuppet
EXTRN	?doTask@CvCity@@QAE?AW4CityTaskResult@@W4TaskTypes@@HH_N111@Z:PROC ; CvCity::doTask
EXTRN	?getGameTurn@CvGame@@QAEHXZ:PROC		; CvGame::getGameTurn
EXTRN	?getNumCities@CvPlayer@@QBEHXZ:PROC		; CvPlayer::getNumCities
EXTRN	?GetPlayerTraits@CvPlayer@@QBEPAVCvPlayerTraits@@XZ:PROC ; CvPlayer::GetPlayerTraits
EXTRN	?GetAIMapHint@CvMap@@QAEHXZ:PROC		; CvMap::GetAIMapHint
EXTRN	?IsEmpireUnhappy@CvPlayer@@QBE_NXZ:PROC		; CvPlayer::IsEmpireUnhappy
EXTRN	?canRaze@CvPlayer@@QBE_NPAVCvCity@@_N@Z:PROC	; CvPlayer::canRaze
EXTRN	?DoLiberatePlayer@CvPlayer@@QAEXW4PlayerTypes@@H@Z:PROC ; CvPlayer::DoLiberatePlayer
EXTRN	?IsGoingForDiploVictory@CvDiplomacyAI@@QAE_NXZ:PROC ; CvDiplomacyAI::IsGoingForDiploVictory
EXTRN	?IsDoFAccepted@CvDiplomacyAI@@QBE_NW4PlayerTypes@@@Z:PROC ; CvDiplomacyAI::IsDoFAccepted
EXTRN	?isAtWar@CvTeam@@QBE_NW4TeamTypes@@@Z:PROC	; CvTeam::isAtWar
EXTRN	?IsHasDefensivePact@CvTeam@@QBE_NW4TeamTypes@@@Z:PROC ; CvTeam::IsHasDefensivePact
EXTRN	?m_aTeams@CvTeam@@1PAV1@A:DWORD			; CvTeam::m_aTeams
EXTRN	?DoPossibleMinorLiberation@CvDiplomacyAI@@QAE_NW4PlayerTypes@@H@Z:PROC ; CvDiplomacyAI::DoPossibleMinorLiberation
EXTRN	?GetDiplomacyAI@CvPlayer@@QBEPAVCvDiplomacyAI@@XZ:PROC ; CvPlayer::GetDiplomacyAI
EXTRN	?CanLiberatePlayerCity@CvPlayer@@QAE_NW4PlayerTypes@@@Z:PROC ; CvPlayer::CanLiberatePlayerCity
EXTRN	?getOriginalOwner@CvCity@@QBE?AW4PlayerTypes@@XZ:PROC ; CvCity::getOriginalOwner
; Function compile flags: /Odtp
;	COMDAT ?AI_conquerCity@CvPlayerAI@@UAEXPAVCvCity@@W4PlayerTypes@@@Z
_TEXT	SEGMENT
_this$ = -108						; size = 4
$T229433 = -101						; size = 1
$T229432 = -100						; size = 4
$T229428 = -96						; size = 4
$T229421 = -92						; size = 4
$T229412 = -88						; size = 4
$T229408 = -84						; size = 4
$T229407 = -80						; size = 4
$T229403 = -76						; size = 4
$T229399 = -72						; size = 4
$T229390 = -68						; size = 4
$T229386 = -64						; size = 4
$T229382 = -60						; size = 4
$T229378 = -56						; size = 4
$T229369 = -52						; size = 4
$T229365 = -48						; size = 4
$T229348 = -44						; size = 4
$T229344 = -37						; size = 1
$T229335 = -36						; size = 4
$T229331 = -32						; size = 4
$T229322 = -28						; size = 4
$T229318 = -24						; size = 4
$T229301 = -20						; size = 4
_eOriginalOwnerTeam$225280 = -16			; size = 4
_bLiberate$225278 = -9					; size = 1
_eOldOwnerTeam$ = -8					; size = 4
_eOriginalOwner$ = -4					; size = 4
_pCity$ = 8						; size = 4
_eOldOwner$ = 12					; size = 4
?AI_conquerCity@CvPlayerAI@@UAEXPAVCvCity@@W4PlayerTypes@@@Z PROC ; CvPlayerAI::AI_conquerCity, COMDAT
; _this$ = ecx

; 287  : {

	push	ebp
	mov	ebp, esp
	sub	esp, 108				; 0000006cH
	push	esi
	mov	DWORD PTR _this$[ebp], ecx

; 288  : 	PlayerTypes eOriginalOwner = pCity->getOriginalOwner();

	mov	ecx, DWORD PTR _pCity$[ebp]
	call	?getOriginalOwner@CvCity@@QBE?AW4PlayerTypes@@XZ ; CvCity::getOriginalOwner
	mov	DWORD PTR _eOriginalOwner$[ebp], eax

; 289  : 	TeamTypes eOldOwnerTeam = GET_PLAYER(eOldOwner).getTeam();

	mov	eax, DWORD PTR _eOldOwner$[ebp]
	imul	eax, 63236				; 0000f704H
	add	eax, DWORD PTR ?m_aPlayers@CvPlayerAI@@1PAV1@A ; CvPlayerAI::m_aPlayers
	mov	DWORD PTR $T229301[ebp], eax
	mov	ecx, DWORD PTR $T229301[ebp]
	mov	edx, DWORD PTR [ecx+44]
	push	edx
	call	?teamType@CvPreGame@@YA?AW4TeamTypes@@W4PlayerTypes@@@Z ; CvPreGame::teamType
	add	esp, 4
	mov	DWORD PTR _eOldOwnerTeam$[ebp], eax

; 290  : 
; 291  : 	// Liberate a city?
; 292  : 	if(eOriginalOwner != eOldOwner && eOriginalOwner != GetID() && CanLiberatePlayerCity(eOriginalOwner))

	mov	eax, DWORD PTR _eOriginalOwner$[ebp]
	cmp	eax, DWORD PTR _eOldOwner$[ebp]
	je	$LN16@AI_conquer
	mov	ecx, DWORD PTR _this$[ebp]
	mov	edx, DWORD PTR [ecx+44]
	mov	DWORD PTR $T229318[ebp], edx
	mov	eax, DWORD PTR _eOriginalOwner$[ebp]
	cmp	eax, DWORD PTR $T229318[ebp]
	je	$LN16@AI_conquer
	mov	ecx, DWORD PTR _eOriginalOwner$[ebp]
	push	ecx
	mov	ecx, DWORD PTR _this$[ebp]
	call	?CanLiberatePlayerCity@CvPlayer@@QAE_NW4PlayerTypes@@@Z ; CvPlayer::CanLiberatePlayerCity
	movzx	edx, al
	test	edx, edx
	je	$LN16@AI_conquer

; 293  : 	{
; 294  : 		// minor civ
; 295  : 		if(GET_PLAYER(eOriginalOwner).isMinorCiv())

	mov	eax, DWORD PTR _eOriginalOwner$[ebp]
	imul	eax, 63236				; 0000f704H
	add	eax, DWORD PTR ?m_aPlayers@CvPlayerAI@@1PAV1@A ; CvPlayerAI::m_aPlayers
	mov	DWORD PTR $T229322[ebp], eax
	mov	ecx, DWORD PTR $T229322[ebp]
	call	?isMinorCiv@CvPlayer@@QBE_NXZ		; CvPlayer::isMinorCiv
	movzx	ecx, al
	test	ecx, ecx
	je	SHORT $LN15@AI_conquer

; 296  : 		{
; 297  : 			if(GetDiplomacyAI()->DoPossibleMinorLiberation(eOriginalOwner, pCity->GetID()))

	mov	edx, DWORD PTR _pCity$[ebp]
	mov	eax, DWORD PTR [edx+120]
	mov	DWORD PTR $T229331[ebp], eax
	mov	ecx, DWORD PTR $T229331[ebp]
	push	ecx
	mov	edx, DWORD PTR _eOriginalOwner$[ebp]
	push	edx
	mov	ecx, DWORD PTR _this$[ebp]
	call	?GetDiplomacyAI@CvPlayer@@QBEPAVCvDiplomacyAI@@XZ ; CvPlayer::GetDiplomacyAI
	mov	ecx, eax
	call	?DoPossibleMinorLiberation@CvDiplomacyAI@@QAE_NW4PlayerTypes@@H@Z ; CvDiplomacyAI::DoPossibleMinorLiberation
	movzx	eax, al
	test	eax, eax
	je	SHORT $LN14@AI_conquer

; 298  : 				return;

	jmp	$LN17@AI_conquer
$LN14@AI_conquer:

; 299  : 		}
; 300  : 		else // major civ

	jmp	$LN16@AI_conquer
$LN15@AI_conquer:

; 301  : 		{
; 302  : 			bool bLiberate = false;

	mov	BYTE PTR _bLiberate$225278[ebp], 0

; 303  : 			if (GET_PLAYER(eOriginalOwner).isAlive())

	mov	ecx, DWORD PTR _eOriginalOwner$[ebp]
	imul	ecx, 63236				; 0000f704H
	add	ecx, DWORD PTR ?m_aPlayers@CvPlayerAI@@1PAV1@A ; CvPlayerAI::m_aPlayers
	mov	DWORD PTR $T229335[ebp], ecx
	mov	edx, DWORD PTR $T229335[ebp]
	mov	al, BYTE PTR [edx+2256]
	mov	BYTE PTR $T229344[ebp], al
	movzx	ecx, BYTE PTR $T229344[ebp]
	test	ecx, ecx
	je	$LN12@AI_conquer

; 304  : 			{
; 305  : 				// If the original owner and this player have a defensive pact
; 306  : 				// and both the original owner and the player are at war with the old owner of this city
; 307  : 				// give the city back to the original owner
; 308  : 				TeamTypes eOriginalOwnerTeam = GET_PLAYER(eOriginalOwner).getTeam();

	mov	edx, DWORD PTR _eOriginalOwner$[ebp]
	imul	edx, 63236				; 0000f704H
	add	edx, DWORD PTR ?m_aPlayers@CvPlayerAI@@1PAV1@A ; CvPlayerAI::m_aPlayers
	mov	DWORD PTR $T229348[ebp], edx
	mov	eax, DWORD PTR $T229348[ebp]
	mov	ecx, DWORD PTR [eax+44]
	push	ecx
	call	?teamType@CvPreGame@@YA?AW4TeamTypes@@W4PlayerTypes@@@Z ; CvPreGame::teamType
	add	esp, 4
	mov	DWORD PTR _eOriginalOwnerTeam$225280[ebp], eax

; 309  : 				if (GET_TEAM(getTeam()).IsHasDefensivePact(eOriginalOwnerTeam) && GET_TEAM(getTeam()).isAtWar(eOldOwnerTeam) && GET_TEAM(eOriginalOwnerTeam).isAtWar(eOldOwnerTeam))

	mov	edx, DWORD PTR _this$[ebp]
	mov	eax, DWORD PTR [edx+44]
	push	eax
	call	?teamType@CvPreGame@@YA?AW4TeamTypes@@W4PlayerTypes@@@Z ; CvPreGame::teamType
	add	esp, 4
	mov	DWORD PTR $T229365[ebp], eax
	mov	ecx, DWORD PTR $T229365[ebp]
	imul	ecx, 2984				; 00000ba8H
	add	ecx, DWORD PTR ?m_aTeams@CvTeam@@1PAV1@A ; CvTeam::m_aTeams
	mov	DWORD PTR $T229369[ebp], ecx
	mov	edx, DWORD PTR _eOriginalOwnerTeam$225280[ebp]
	push	edx
	mov	ecx, DWORD PTR $T229369[ebp]
	call	?IsHasDefensivePact@CvTeam@@QBE_NW4TeamTypes@@@Z ; CvTeam::IsHasDefensivePact
	movzx	eax, al
	test	eax, eax
	je	SHORT $LN11@AI_conquer
	mov	ecx, DWORD PTR _this$[ebp]
	mov	edx, DWORD PTR [ecx+44]
	push	edx
	call	?teamType@CvPreGame@@YA?AW4TeamTypes@@W4PlayerTypes@@@Z ; CvPreGame::teamType
	add	esp, 4
	mov	DWORD PTR $T229378[ebp], eax
	mov	eax, DWORD PTR $T229378[ebp]
	imul	eax, 2984				; 00000ba8H
	add	eax, DWORD PTR ?m_aTeams@CvTeam@@1PAV1@A ; CvTeam::m_aTeams
	mov	DWORD PTR $T229382[ebp], eax
	mov	ecx, DWORD PTR _eOldOwnerTeam$[ebp]
	push	ecx
	mov	ecx, DWORD PTR $T229382[ebp]
	call	?isAtWar@CvTeam@@QBE_NW4TeamTypes@@@Z	; CvTeam::isAtWar
	movzx	edx, al
	test	edx, edx
	je	SHORT $LN11@AI_conquer
	mov	eax, DWORD PTR _eOriginalOwnerTeam$225280[ebp]
	imul	eax, 2984				; 00000ba8H
	add	eax, DWORD PTR ?m_aTeams@CvTeam@@1PAV1@A ; CvTeam::m_aTeams
	mov	DWORD PTR $T229386[ebp], eax
	mov	ecx, DWORD PTR _eOldOwnerTeam$[ebp]
	push	ecx
	mov	ecx, DWORD PTR $T229386[ebp]
	call	?isAtWar@CvTeam@@QBE_NW4TeamTypes@@@Z	; CvTeam::isAtWar
	movzx	edx, al
	test	edx, edx
	je	SHORT $LN11@AI_conquer

; 310  : 				{
; 311  : 					bLiberate = true;

	mov	BYTE PTR _bLiberate$225278[ebp], 1
	jmp	SHORT $LN10@AI_conquer
$LN11@AI_conquer:

; 312  : 				}
; 313  : 				// if the player is a friend and we're going for diplo victory, then liberate to score some friend points
; 314  : 				else if (GetDiplomacyAI()->IsDoFAccepted(eOriginalOwner) && GetDiplomacyAI()->IsGoingForDiploVictory())

	mov	eax, DWORD PTR _eOriginalOwner$[ebp]
	push	eax
	mov	ecx, DWORD PTR _this$[ebp]
	call	?GetDiplomacyAI@CvPlayer@@QBEPAVCvDiplomacyAI@@XZ ; CvPlayer::GetDiplomacyAI
	mov	ecx, eax
	call	?IsDoFAccepted@CvDiplomacyAI@@QBE_NW4PlayerTypes@@@Z ; CvDiplomacyAI::IsDoFAccepted
	movzx	ecx, al
	test	ecx, ecx
	je	SHORT $LN10@AI_conquer
	mov	ecx, DWORD PTR _this$[ebp]
	call	?GetDiplomacyAI@CvPlayer@@QBEPAVCvDiplomacyAI@@XZ ; CvPlayer::GetDiplomacyAI
	mov	ecx, eax
	call	?IsGoingForDiploVictory@CvDiplomacyAI@@QAE_NXZ ; CvDiplomacyAI::IsGoingForDiploVictory
	movzx	edx, al
	test	edx, edx
	je	SHORT $LN10@AI_conquer

; 315  : 				{
; 316  : 					bLiberate = true;

	mov	BYTE PTR _bLiberate$225278[ebp], 1
$LN10@AI_conquer:

; 317  : 				}
; 318  : 			}

	jmp	SHORT $LN8@AI_conquer
$LN12@AI_conquer:

; 319  : 			// if the player isn't human and we're going for diplo victory, resurrect players to get super diplo bonuses
; 320  : 			else if (!GET_PLAYER(eOriginalOwner).isHuman() && GetDiplomacyAI()->IsGoingForDiploVictory())

	mov	eax, DWORD PTR _eOriginalOwner$[ebp]
	imul	eax, 63236				; 0000f704H
	add	eax, DWORD PTR ?m_aPlayers@CvPlayerAI@@1PAV1@A ; CvPlayerAI::m_aPlayers
	mov	DWORD PTR $T229390[ebp], eax
	mov	ecx, DWORD PTR $T229390[ebp]
	call	?isHuman@CvPlayer@@QBE_NXZ		; CvPlayer::isHuman
	movzx	ecx, al
	test	ecx, ecx
	jne	SHORT $LN8@AI_conquer
	mov	ecx, DWORD PTR _this$[ebp]
	call	?GetDiplomacyAI@CvPlayer@@QBEPAVCvDiplomacyAI@@XZ ; CvPlayer::GetDiplomacyAI
	mov	ecx, eax
	call	?IsGoingForDiploVictory@CvDiplomacyAI@@QAE_NXZ ; CvDiplomacyAI::IsGoingForDiploVictory
	movzx	edx, al
	test	edx, edx
	je	SHORT $LN8@AI_conquer

; 321  : 			{
; 322  : 				bLiberate = true;

	mov	BYTE PTR _bLiberate$225278[ebp], 1
$LN8@AI_conquer:

; 323  : 			}
; 324  : 
; 325  : 			if (bLiberate)

	movzx	eax, BYTE PTR _bLiberate$225278[ebp]
	test	eax, eax
	je	SHORT $LN16@AI_conquer

; 326  : 			{
; 327  : 				DoLiberatePlayer(eOriginalOwner, pCity->GetID());

	mov	ecx, DWORD PTR _pCity$[ebp]
	mov	edx, DWORD PTR [ecx+120]
	mov	DWORD PTR $T229399[ebp], edx
	mov	eax, DWORD PTR $T229399[ebp]
	push	eax
	mov	ecx, DWORD PTR _eOriginalOwner$[ebp]
	push	ecx
	mov	ecx, DWORD PTR _this$[ebp]
	call	?DoLiberatePlayer@CvPlayer@@QAEXW4PlayerTypes@@H@Z ; CvPlayer::DoLiberatePlayer

; 328  : 				return;

	jmp	$LN17@AI_conquer
$LN16@AI_conquer:

; 329  : 			}
; 330  : 		}
; 331  : 	}
; 332  : 
; 333  : 	// Do we want to burn this city down?
; 334  : 	if(canRaze(pCity))

	push	0
	mov	edx, DWORD PTR _pCity$[ebp]
	push	edx
	mov	ecx, DWORD PTR _this$[ebp]
	call	?canRaze@CvPlayer@@QBE_NPAVCvCity@@_N@Z	; CvPlayer::canRaze
	movzx	eax, al
	test	eax, eax
	je	$LN75@AI_conquer

; 335  : 	{
; 336  : 		// Burn the city if the empire is unhappy - keeping the city will only make things worse or if map hint dictates
; 337  : 		// Huns will burn down everything possible once they have a core of a few cities (was 3, but this put Attila out of the running long term as a conqueror)
; 338  : 		if (IsEmpireUnhappy() || (GC.getMap().GetAIMapHint() & 2) || (GetPlayerTraits()->GetRazeSpeedModifier() > 0 && getNumCities() >= 3 + (GC.getGame().getGameTurn() / 100)) )

	mov	ecx, DWORD PTR _this$[ebp]
	call	?IsEmpireUnhappy@CvPlayer@@QBE_NXZ	; CvPlayer::IsEmpireUnhappy
	movzx	ecx, al
	test	ecx, ecx
	jne	SHORT $LN3@AI_conquer
	mov	edx, DWORD PTR ?gGlobals@@3VCvGlobals@@A+52
	mov	DWORD PTR $T229403[ebp], edx
	mov	ecx, DWORD PTR $T229403[ebp]
	call	?GetAIMapHint@CvMap@@QAEHXZ		; CvMap::GetAIMapHint
	and	eax, 2
	jne	SHORT $LN3@AI_conquer
	mov	ecx, DWORD PTR _this$[ebp]
	call	?GetPlayerTraits@CvPlayer@@QBEPAVCvPlayerTraits@@XZ ; CvPlayer::GetPlayerTraits
	mov	DWORD PTR $T229407[ebp], eax
	mov	eax, DWORD PTR $T229407[ebp]
	mov	ecx, DWORD PTR [eax+256]
	mov	DWORD PTR $T229408[ebp], ecx
	cmp	DWORD PTR $T229408[ebp], 0
	jle	SHORT $LN75@AI_conquer
	mov	edx, DWORD PTR ?gGlobals@@3VCvGlobals@@A+48
	mov	DWORD PTR $T229412[ebp], edx
	mov	ecx, DWORD PTR _this$[ebp]
	call	?getNumCities@CvPlayer@@QBEHXZ		; CvPlayer::getNumCities
	mov	esi, eax
	mov	ecx, DWORD PTR $T229412[ebp]
	call	?getGameTurn@CvGame@@QAEHXZ		; CvGame::getGameTurn
	cdq
	mov	ecx, 100				; 00000064H
	idiv	ecx
	add	eax, 3
	cmp	esi, eax
	jl	SHORT $LN75@AI_conquer
$LN3@AI_conquer:

; 339  : 		{
; 340  : 			pCity->doTask(TASK_RAZE);

	push	0
	push	0
	push	0
	push	0
	push	-1
	push	-1
	push	0
	mov	ecx, DWORD PTR _pCity$[ebp]
	call	?doTask@CvCity@@QAE?AW4CityTaskResult@@W4TaskTypes@@HH_N111@Z ; CvCity::doTask

; 341  : 			return;

	jmp	SHORT $LN17@AI_conquer

; 342  : 		}
; 343  : 	}
; 344  : 
; 345  : 	// Puppet the city
; 346  : 	if(pCity->getOriginalOwner() != GetID() || GET_PLAYER(m_eID).GetPlayerTraits()->IsNoAnnexing())

$LN75@AI_conquer:
	mov	edx, DWORD PTR _this$[ebp]
	mov	eax, DWORD PTR [edx+44]
	mov	DWORD PTR $T229421[ebp], eax
	mov	ecx, DWORD PTR _pCity$[ebp]
	call	?getOriginalOwner@CvCity@@QBE?AW4PlayerTypes@@XZ ; CvCity::getOriginalOwner
	cmp	eax, DWORD PTR $T229421[ebp]
	jne	SHORT $LN1@AI_conquer
	mov	ecx, DWORD PTR _this$[ebp]
	mov	edx, DWORD PTR [ecx+44]
	imul	edx, 63236				; 0000f704H
	add	edx, DWORD PTR ?m_aPlayers@CvPlayerAI@@1PAV1@A ; CvPlayerAI::m_aPlayers
	mov	DWORD PTR $T229428[ebp], edx
	mov	ecx, DWORD PTR $T229428[ebp]
	call	?GetPlayerTraits@CvPlayer@@QBEPAVCvPlayerTraits@@XZ ; CvPlayer::GetPlayerTraits
	mov	DWORD PTR $T229432[ebp], eax
	mov	eax, DWORD PTR $T229432[ebp]
	mov	cl, BYTE PTR [eax+351]
	mov	BYTE PTR $T229433[ebp], cl
	movzx	edx, BYTE PTR $T229433[ebp]
	test	edx, edx
	je	SHORT $LN17@AI_conquer
$LN1@AI_conquer:

; 347  : 	{
; 348  : #ifdef AUI_CITIZENS_MID_TURN_ASSIGN_RUNS_SELF_CONSISTENCY
; 349  : 		pCity->DoCreatePuppet(false);
; 350  : #else
; 351  : 		pCity->DoCreatePuppet();

	mov	ecx, DWORD PTR _pCity$[ebp]
	call	?DoCreatePuppet@CvCity@@QAEXXZ		; CvCity::DoCreatePuppet
$LN17@AI_conquer:

; 352  : #endif
; 353  : 	}
; 354  : }

	pop	esi
	mov	esp, ebp
	pop	ebp
	ret	8
?AI_conquerCity@CvPlayerAI@@UAEXPAVCvCity@@W4PlayerTypes@@@Z ENDP ; CvPlayerAI::AI_conquerCity
_TEXT	ENDS
PUBLIC	?plotDistance@@YAHHHHH@Z			; plotDistance
PUBLIC	?AI_captureUnit@CvPlayerAI@@QAE_NW4UnitTypes@@PAVCvPlot@@@Z ; CvPlayerAI::AI_captureUnit
EXTRN	?findCity@CvMap@@QAEPAVCvCity@@HHW4PlayerTypes@@W4TeamTypes@@_N21W4DirectionTypes@@PBV2@@Z:PROC ; CvMap::findCity
EXTRN	?IsFriendlyTerritory@CvPlot@@QBE_NW4PlayerTypes@@@Z:PROC ; CvPlot::IsFriendlyTerritory
; Function compile flags: /Odtp
;	COMDAT ?AI_captureUnit@CvPlayerAI@@QAE_NW4UnitTypes@@PAVCvPlot@@@Z
_TEXT	SEGMENT
_this$ = -224						; size = 4
$T229620 = -140						; size = 4
$T229616 = -136						; size = 4
$T229612 = -132						; size = 4
$T229603 = -128						; size = 4
$T229594 = -124						; size = 4
$T229590 = -120						; size = 4
$T229586 = -116						; size = 4
$T229533 = -56						; size = 4
$T229529 = -52						; size = 4
$T229525 = -48						; size = 4
$T229516 = -44						; size = 4
$T229507 = -40						; size = 4
$T229503 = -36						; size = 4
$T229499 = -32						; size = 4
$T229495 = -28						; size = 4
$T229486 = -24						; size = 4
$T229477 = -20						; size = 4
_playerID$229474 = -16					; size = 4
$T229452 = -12						; size = 4
_playerID$229449 = -8					; size = 4
_pNearestCity$ = -4					; size = 4
___formal$ = 8						; size = 4
_pPlot$ = 12						; size = 4
?AI_captureUnit@CvPlayerAI@@QAE_NW4UnitTypes@@PAVCvPlot@@@Z PROC ; CvPlayerAI::AI_captureUnit, COMDAT
; _this$ = ecx

; 357  : {

	push	ebp
	mov	ebp, esp
	sub	esp, 224				; 000000e0H
	mov	DWORD PTR _this$[ebp], ecx

; 358  : 	CvCity* pNearestCity;
; 359  : 
; 360  : 	CvAssert(!isHuman());
; 361  : 
; 362  : 	// Barbs always capture
; 363  : 	if (isBarbarian())

	mov	ecx, DWORD PTR _this$[ebp]
	call	?isBarbarian@CvPlayer@@QBE_NXZ		; CvPlayer::isBarbarian
	movzx	eax, al
	test	eax, eax
	je	SHORT $LN15@AI_capture

; 364  : 		return true;

	mov	al, 1
	jmp	$LN9@AI_capture

; 365  : 
; 366  : 	// we own it
; 367  : 	if (pPlot->getTeam() == getTeam())

$LN15@AI_capture:
	mov	ecx, DWORD PTR _pPlot$[ebp]
	movsx	edx, BYTE PTR [ecx+4]
	mov	DWORD PTR _playerID$229449[ebp], edx
	cmp	DWORD PTR _playerID$229449[ebp], -1
	je	SHORT $LN12@AI_capture
	mov	eax, DWORD PTR _playerID$229449[ebp]
	push	eax
	call	?teamType@CvPreGame@@YA?AW4TeamTypes@@W4PlayerTypes@@@Z ; CvPreGame::teamType
	add	esp, 4
	mov	DWORD PTR $T229452[ebp], eax
	jmp	SHORT $LN19@AI_capture
	jmp	SHORT $LN19@AI_capture
$LN12@AI_capture:
	mov	DWORD PTR $T229452[ebp], -1
$LN19@AI_capture:
	mov	ecx, DWORD PTR _this$[ebp]
	mov	edx, DWORD PTR [ecx+44]
	push	edx
	call	?teamType@CvPreGame@@YA?AW4TeamTypes@@W4PlayerTypes@@@Z ; CvPreGame::teamType
	add	esp, 4
	cmp	DWORD PTR $T229452[ebp], eax
	jne	SHORT $LN27@AI_capture

; 368  : 		return true;

	mov	al, 1
	jmp	$LN9@AI_capture

; 369  : 
; 370  : 	// no man's land - may as well
; 371  : 	if (pPlot->getTeam() == NO_TEAM)

$LN27@AI_capture:
	mov	eax, DWORD PTR _pPlot$[ebp]
	movsx	ecx, BYTE PTR [eax+4]
	mov	DWORD PTR _playerID$229474[ebp], ecx
	cmp	DWORD PTR _playerID$229474[ebp], -1
	je	SHORT $LN24@AI_capture
	mov	edx, DWORD PTR _playerID$229474[ebp]
	push	edx
	call	?teamType@CvPreGame@@YA?AW4TeamTypes@@W4PlayerTypes@@@Z ; CvPreGame::teamType
	add	esp, 4
	mov	DWORD PTR $T229477[ebp], eax
	jmp	SHORT $LN25@AI_capture
	jmp	SHORT $LN25@AI_capture
$LN24@AI_capture:
	mov	DWORD PTR $T229477[ebp], -1
$LN25@AI_capture:
	cmp	DWORD PTR $T229477[ebp], -1
	jne	SHORT $LN33@AI_capture

; 372  : 		return true;

	mov	al, 1
	jmp	$LN9@AI_capture

; 373  : 
; 374  : 	// friendly, sure (okay, this is pretty much just means open borders)
; 375  : 	if (pPlot->IsFriendlyTerritory(GetID()))

$LN33@AI_capture:
	mov	eax, DWORD PTR _this$[ebp]
	mov	ecx, DWORD PTR [eax+44]
	mov	DWORD PTR $T229486[ebp], ecx
	mov	edx, DWORD PTR $T229486[ebp]
	push	edx
	mov	ecx, DWORD PTR _pPlot$[ebp]
	call	?IsFriendlyTerritory@CvPlot@@QBE_NW4PlayerTypes@@@Z ; CvPlot::IsFriendlyTerritory
	movzx	eax, al
	test	eax, eax
	je	SHORT $LN37@AI_capture

; 376  : 		return true;

	mov	al, 1
	jmp	$LN9@AI_capture

; 377  : 
; 378  : 	// not friendly, but "near" us
; 379  : 	pNearestCity = GC.getMap().findCity(pPlot->getX(), pPlot->getY(), NO_PLAYER, getTeam());

$LN37@AI_capture:
	mov	ecx, DWORD PTR _this$[ebp]
	mov	edx, DWORD PTR [ecx+44]
	push	edx
	call	?teamType@CvPreGame@@YA?AW4TeamTypes@@W4PlayerTypes@@@Z ; CvPreGame::teamType
	add	esp, 4
	mov	DWORD PTR $T229495[ebp], eax
	mov	eax, DWORD PTR _pPlot$[ebp]
	movsx	ecx, WORD PTR [eax+2]
	mov	DWORD PTR $T229499[ebp], ecx
	mov	edx, DWORD PTR _pPlot$[ebp]
	movsx	eax, WORD PTR [edx]
	mov	DWORD PTR $T229503[ebp], eax
	mov	ecx, DWORD PTR ?gGlobals@@3VCvGlobals@@A+52
	mov	DWORD PTR $T229507[ebp], ecx
	push	0
	push	-1
	push	-1
	push	0
	push	1
	mov	edx, DWORD PTR $T229495[ebp]
	push	edx
	push	-1
	mov	eax, DWORD PTR $T229499[ebp]
	push	eax
	mov	ecx, DWORD PTR $T229503[ebp]
	push	ecx
	mov	ecx, DWORD PTR $T229507[ebp]
	call	?findCity@CvMap@@QAEPAVCvCity@@HHW4PlayerTypes@@W4TeamTypes@@_N21W4DirectionTypes@@PBV2@@Z ; CvMap::findCity
	mov	DWORD PTR _pNearestCity$[ebp], eax

; 380  : 	if (pNearestCity != NULL)

	cmp	DWORD PTR _pNearestCity$[ebp], 0
	je	SHORT $LN4@AI_capture

; 381  : 	{
; 382  : 		if (plotDistance(pPlot->getX(), pPlot->getY(), pNearestCity->getX(), pNearestCity->getY()) <= 7)

	mov	edx, DWORD PTR _pNearestCity$[ebp]
	mov	eax, DWORD PTR [edx+108]
	mov	DWORD PTR $T229516[ebp], eax
	mov	ecx, DWORD PTR _pNearestCity$[ebp]
	mov	edx, DWORD PTR [ecx+96]
	mov	DWORD PTR $T229525[ebp], edx
	mov	eax, DWORD PTR _pPlot$[ebp]
	movsx	ecx, WORD PTR [eax+2]
	mov	DWORD PTR $T229529[ebp], ecx
	mov	edx, DWORD PTR _pPlot$[ebp]
	movsx	eax, WORD PTR [edx]
	mov	DWORD PTR $T229533[ebp], eax
	mov	ecx, DWORD PTR $T229516[ebp]
	push	ecx
	mov	edx, DWORD PTR $T229525[ebp]
	push	edx
	mov	eax, DWORD PTR $T229529[ebp]
	push	eax
	mov	ecx, DWORD PTR $T229533[ebp]
	push	ecx
	call	?plotDistance@@YAHHHHH@Z		; plotDistance
	add	esp, 16					; 00000010H
	cmp	eax, 7
	jg	SHORT $LN4@AI_capture

; 383  : 			return true;

	mov	al, 1
	jmp	$LN9@AI_capture
$LN4@AI_capture:

; 384  : 	}
; 385  : 
; 386  : 	// very near someone we aren't friends with (and far from our nearest city)
; 387  : 	pNearestCity = GC.getMap().findCity(pPlot->getX(), pPlot->getY());

	mov	edx, DWORD PTR _pPlot$[ebp]
	movsx	eax, WORD PTR [edx+2]
	mov	DWORD PTR $T229586[ebp], eax
	mov	ecx, DWORD PTR _pPlot$[ebp]
	movsx	edx, WORD PTR [ecx]
	mov	DWORD PTR $T229590[ebp], edx
	mov	eax, DWORD PTR ?gGlobals@@3VCvGlobals@@A+52
	mov	DWORD PTR $T229594[ebp], eax
	push	0
	push	-1
	push	-1
	push	0
	push	1
	push	-1
	push	-1
	mov	ecx, DWORD PTR $T229586[ebp]
	push	ecx
	mov	edx, DWORD PTR $T229590[ebp]
	push	edx
	mov	ecx, DWORD PTR $T229594[ebp]
	call	?findCity@CvMap@@QAEPAVCvCity@@HHW4PlayerTypes@@W4TeamTypes@@_N21W4DirectionTypes@@PBV2@@Z ; CvMap::findCity
	mov	DWORD PTR _pNearestCity$[ebp], eax

; 388  : 	if (pNearestCity != NULL)

	cmp	DWORD PTR _pNearestCity$[ebp], 0
	je	SHORT $LN2@AI_capture

; 389  : 	{
; 390  : 		if (plotDistance(pPlot->getX(), pPlot->getY(), pNearestCity->getX(), pNearestCity->getY()) <= 4)

	mov	eax, DWORD PTR _pNearestCity$[ebp]
	mov	ecx, DWORD PTR [eax+108]
	mov	DWORD PTR $T229603[ebp], ecx
	mov	edx, DWORD PTR _pNearestCity$[ebp]
	mov	eax, DWORD PTR [edx+96]
	mov	DWORD PTR $T229612[ebp], eax
	mov	ecx, DWORD PTR _pPlot$[ebp]
	movsx	edx, WORD PTR [ecx+2]
	mov	DWORD PTR $T229616[ebp], edx
	mov	eax, DWORD PTR _pPlot$[ebp]
	movsx	ecx, WORD PTR [eax]
	mov	DWORD PTR $T229620[ebp], ecx
	mov	edx, DWORD PTR $T229603[ebp]
	push	edx
	mov	eax, DWORD PTR $T229612[ebp]
	push	eax
	mov	ecx, DWORD PTR $T229616[ebp]
	push	ecx
	mov	edx, DWORD PTR $T229620[ebp]
	push	edx
	call	?plotDistance@@YAHHHHH@Z		; plotDistance
	add	esp, 16					; 00000010H
	cmp	eax, 4
	jg	SHORT $LN2@AI_capture

; 391  : 			return false;

	xor	al, al
	jmp	SHORT $LN9@AI_capture
$LN2@AI_capture:

; 392  : 	}
; 393  : 
; 394  : 	// I'd rather we grab it and run than destroy it
; 395  : 	return true;

	mov	al, 1
$LN9@AI_capture:

; 396  : }

	mov	esp, ebp
	pop	ebp
	ret	8
?AI_captureUnit@CvPlayerAI@@QAE_NW4UnitTypes@@PAVCvPlot@@@Z ENDP ; CvPlayerAI::AI_captureUnit
_TEXT	ENDS
PUBLIC	?dyWrap@@YAHH@Z					; dyWrap
PUBLIC	?dxWrap@@YAHH@Z					; dxWrap
; Function compile flags: /Odtp
; File d:\sources\lekmod_git\checkout\lekmod_dll\cvgamecoredll_expansion2\cvgamecoreutils.h
;	COMDAT ?plotDistance@@YAHHHHH@Z
_TEXT	SEGMENT
tv157 = -92						; size = 4
tv138 = -88						; size = 4
tv135 = -84						; size = 4
$T229789 = -80						; size = 4
$T229762 = -60						; size = 4
_iDY$ = -24						; size = 4
_iDX$ = -20						; size = 4
_iWrappedDX$ = -16					; size = 4
_iHX1$ = -12						; size = 4
_iHX2$ = -8						; size = 4
_iWrappedDY$ = -4					; size = 4
_iX1$ = 8						; size = 4
_iY1$ = 12						; size = 4
_iX2$ = 16						; size = 4
_iY2$ = 20						; size = 4
?plotDistance@@YAHHHHH@Z PROC				; plotDistance, COMDAT

; 144  : {

	push	ebp
	mov	ebp, esp
	sub	esp, 92					; 0000005cH

; 145  : 	int iDX;
; 146  : 	int iWrappedDX = dxWrap(iX2 - iX1);

	mov	eax, DWORD PTR _iX2$[ebp]
	sub	eax, DWORD PTR _iX1$[ebp]
	push	eax
	call	?dxWrap@@YAHH@Z				; dxWrap
	add	esp, 4
	mov	DWORD PTR _iWrappedDX$[ebp], eax

; 147  : 	int iWrappedDY = dyWrap(iY2 - iY1);

	mov	ecx, DWORD PTR _iY2$[ebp]
	sub	ecx, DWORD PTR _iY1$[ebp]
	push	ecx
	call	?dyWrap@@YAHH@Z				; dyWrap
	add	esp, 4
	mov	DWORD PTR _iWrappedDY$[ebp], eax

; 148  : 	int iDY = abs(iWrappedDY);

	mov	eax, DWORD PTR _iWrappedDY$[ebp]
	cdq
	xor	eax, edx
	sub	eax, edx
	mov	DWORD PTR _iDY$[ebp], eax

; 149  : 
; 150  : 	// convert to hex-space coordinates - the coordinate system axes are E and NE (not orthogonal)
; 151  : 	int iHX1 = xToHexspaceX(iX1, iY1);

	cmp	DWORD PTR _iY1$[ebp], 0
	jl	SHORT $LN35@plotDistan
	mov	edx, DWORD PTR _iY1$[ebp]
	sar	edx, 1
	mov	DWORD PTR tv135[ebp], edx
	jmp	SHORT $LN33@plotDistan
$LN35@plotDistan:
	mov	eax, DWORD PTR _iY1$[ebp]
	sub	eax, 1
	cdq
	sub	eax, edx
	sar	eax, 1
	mov	DWORD PTR tv135[ebp], eax
$LN33@plotDistan:
	mov	eax, DWORD PTR _iX1$[ebp]
	sub	eax, DWORD PTR tv135[ebp]
	mov	DWORD PTR _iHX1$[ebp], eax

; 152  : 	int iHX2 = xToHexspaceX(iX1 + iWrappedDX, iY1 + iWrappedDY);

	mov	ecx, DWORD PTR _iY1$[ebp]
	add	ecx, DWORD PTR _iWrappedDY$[ebp]
	mov	DWORD PTR $T229762[ebp], ecx
	js	SHORT $LN39@plotDistan
	mov	edx, DWORD PTR $T229762[ebp]
	sar	edx, 1
	mov	DWORD PTR tv138[ebp], edx
	jmp	SHORT $LN37@plotDistan
$LN39@plotDistan:
	mov	eax, DWORD PTR $T229762[ebp]
	sub	eax, 1
	cdq
	sub	eax, edx
	sar	eax, 1
	mov	DWORD PTR tv138[ebp], eax
$LN37@plotDistan:
	mov	eax, DWORD PTR _iX1$[ebp]
	add	eax, DWORD PTR _iWrappedDX$[ebp]
	sub	eax, DWORD PTR tv138[ebp]
	mov	DWORD PTR _iHX2$[ebp], eax

; 153  : 
; 154  : 	iDX = abs(dxWrap(iHX2 - iHX1));

	mov	ecx, DWORD PTR _iHX2$[ebp]
	sub	ecx, DWORD PTR _iHX1$[ebp]
	push	ecx
	call	?dxWrap@@YAHH@Z				; dxWrap
	add	esp, 4
	cdq
	xor	eax, edx
	sub	eax, edx
	mov	DWORD PTR _iDX$[ebp], eax

; 155  : 
; 156  : #ifdef NQM_GAME_CORE_UTILS_OPTIMIZATIONS
; 157  : 	if (((iHX2 - iHX1) ^ (iWrappedDY)) >= 0)  // the signs match
; 158  : #else
; 159  : 	if((iHX2 - iHX1 >= 0) == (iWrappedDY >= 0))  // the signs match

	mov	edx, DWORD PTR _iHX2$[ebp]
	sub	edx, DWORD PTR _iHX1$[ebp]
	xor	eax, eax
	test	edx, edx
	setge	al
	xor	ecx, ecx
	cmp	DWORD PTR _iWrappedDY$[ebp], 0
	setge	cl
	cmp	eax, ecx
	jne	SHORT $LN2@plotDistan

; 160  : #endif
; 161  : 	{
; 162  : 		return iDX + iDY;

	mov	eax, DWORD PTR _iDX$[ebp]
	add	eax, DWORD PTR _iDY$[ebp]
	jmp	SHORT $LN3@plotDistan

; 163  : 	}
; 164  : 	else

	jmp	SHORT $LN3@plotDistan
$LN2@plotDistan:

; 165  : 	{
; 166  : #ifdef NQM_FAST_COMP
; 167  : 		return (MAX(iDX, iDY));
; 168  : #else
; 169  : 		return (std::max(iDX, iDY));

	mov	edx, DWORD PTR _iDX$[ebp]
	cmp	edx, DWORD PTR _iDY$[ebp]
	jge	SHORT $LN57@plotDistan
	lea	eax, DWORD PTR _iDY$[ebp]
	mov	DWORD PTR tv157[ebp], eax
	jmp	SHORT $LN58@plotDistan
$LN57@plotDistan:
	lea	ecx, DWORD PTR _iDX$[ebp]
	mov	DWORD PTR tv157[ebp], ecx
$LN58@plotDistan:
	mov	edx, DWORD PTR tv157[ebp]
	mov	DWORD PTR $T229789[ebp], edx
	mov	eax, DWORD PTR $T229789[ebp]
	mov	eax, DWORD PTR [eax]
$LN3@plotDistan:

; 170  : #endif
; 171  : 	}
; 172  : }

	mov	esp, ebp
	pop	ebp
	ret	0
?plotDistance@@YAHHHHH@Z ENDP				; plotDistance
; Function compile flags: /Odtp
_TEXT	ENDS
;	COMDAT ?dxWrap@@YAHH@Z
_TEXT	SEGMENT
$T229812 = -16						; size = 4
$T229804 = -12						; size = 4
$T229800 = -5						; size = 1
_kMap$ = -4						; size = 4
_iDX$ = 8						; size = 4
?dxWrap@@YAHH@Z PROC					; dxWrap, COMDAT

; 73   : {

	push	ebp
	mov	ebp, esp
	sub	esp, 16					; 00000010H

; 74   : 	const CvMap& kMap = GC.getMap();

	mov	eax, DWORD PTR ?gGlobals@@3VCvGlobals@@A+52
	mov	DWORD PTR _kMap$[ebp], eax

; 75   : 	return wrapCoordDifference(iDX, kMap.getGridWidth(), kMap.isWrapX());

	mov	ecx, DWORD PTR _kMap$[ebp]
	mov	dl, BYTE PTR [ecx+4056]
	mov	BYTE PTR $T229800[ebp], dl
	mov	eax, DWORD PTR _kMap$[ebp]
	mov	ecx, DWORD PTR [eax+4020]
	mov	DWORD PTR $T229804[ebp], ecx
	movzx	edx, BYTE PTR $T229800[ebp]
	test	edx, edx
	je	SHORT $LN12@dxWrap
	mov	eax, DWORD PTR $T229804[ebp]
	shr	eax, 1
	cmp	DWORD PTR _iDX$[ebp], eax
	jle	SHORT $LN11@dxWrap
	mov	ecx, DWORD PTR _iDX$[ebp]
	sub	ecx, DWORD PTR $T229804[ebp]
	mov	DWORD PTR $T229812[ebp], ecx
	jmp	SHORT $LN13@dxWrap
	jmp	SHORT $LN12@dxWrap
$LN11@dxWrap:
	mov	edx, DWORD PTR $T229804[ebp]
	shr	edx, 1
	neg	edx
	cmp	DWORD PTR _iDX$[ebp], edx
	jge	SHORT $LN12@dxWrap
	mov	eax, DWORD PTR _iDX$[ebp]
	add	eax, DWORD PTR $T229804[ebp]
	mov	DWORD PTR $T229812[ebp], eax
	jmp	SHORT $LN13@dxWrap
$LN12@dxWrap:
	mov	ecx, DWORD PTR _iDX$[ebp]
	mov	DWORD PTR $T229812[ebp], ecx
$LN13@dxWrap:
	mov	eax, DWORD PTR $T229812[ebp]

; 76   : }

	mov	esp, ebp
	pop	ebp
	ret	0
?dxWrap@@YAHH@Z ENDP					; dxWrap
; Function compile flags: /Odtp
_TEXT	ENDS
;	COMDAT ?dyWrap@@YAHH@Z
_TEXT	SEGMENT
$T229833 = -16						; size = 4
$T229825 = -12						; size = 4
$T229821 = -5						; size = 1
_kMap$ = -4						; size = 4
_iDY$ = 8						; size = 4
?dyWrap@@YAHH@Z PROC					; dyWrap, COMDAT

; 79   : {

	push	ebp
	mov	ebp, esp
	sub	esp, 16					; 00000010H

; 80   : 	const CvMap& kMap = GC.getMap();

	mov	eax, DWORD PTR ?gGlobals@@3VCvGlobals@@A+52
	mov	DWORD PTR _kMap$[ebp], eax

; 81   : 	return wrapCoordDifference(iDY, kMap.getGridHeight(), kMap.isWrapY());

	mov	ecx, DWORD PTR _kMap$[ebp]
	mov	dl, BYTE PTR [ecx+4057]
	mov	BYTE PTR $T229821[ebp], dl
	mov	eax, DWORD PTR _kMap$[ebp]
	mov	ecx, DWORD PTR [eax+4024]
	mov	DWORD PTR $T229825[ebp], ecx
	movzx	edx, BYTE PTR $T229821[ebp]
	test	edx, edx
	je	SHORT $LN12@dyWrap
	mov	eax, DWORD PTR $T229825[ebp]
	shr	eax, 1
	cmp	DWORD PTR _iDY$[ebp], eax
	jle	SHORT $LN11@dyWrap
	mov	ecx, DWORD PTR _iDY$[ebp]
	sub	ecx, DWORD PTR $T229825[ebp]
	mov	DWORD PTR $T229833[ebp], ecx
	jmp	SHORT $LN13@dyWrap
	jmp	SHORT $LN12@dyWrap
$LN11@dyWrap:
	mov	edx, DWORD PTR $T229825[ebp]
	shr	edx, 1
	neg	edx
	cmp	DWORD PTR _iDY$[ebp], edx
	jge	SHORT $LN12@dyWrap
	mov	eax, DWORD PTR _iDY$[ebp]
	add	eax, DWORD PTR $T229825[ebp]
	mov	DWORD PTR $T229833[ebp], eax
	jmp	SHORT $LN13@dyWrap
$LN12@dyWrap:
	mov	ecx, DWORD PTR _iDY$[ebp]
	mov	DWORD PTR $T229833[ebp], ecx
$LN13@dyWrap:
	mov	eax, DWORD PTR $T229833[ebp]

; 82   : }

	mov	esp, ebp
	pop	ebp
	ret	0
?dyWrap@@YAHH@Z ENDP					; dyWrap
_TEXT	ENDS
EXTRN	?GetStartSiteEvaluator@CvGame@@QAEPAVCvSiteEvaluatorForStart@@XZ:PROC ; CvGame::GetStartSiteEvaluator
; Function compile flags: /Odtp
; File d:\sources\lekmod_git\checkout\lekmod_dll\cvgamecoredll_expansion2\cvplayerai.cpp
;	COMDAT ?AI_foundValue@CvPlayerAI@@UAEHHHH_N@Z
_TEXT	SEGMENT
tv151 = -84						; size = 4
tv134 = -80						; size = 4
tv81 = -76						; size = 4
tv193 = -72						; size = 4
tv208 = -68						; size = 4
_this$ = -64						; size = 4
$T229952 = -60						; size = 4
$T229948 = -56						; size = 4
$T229944 = -52						; size = 4
$T229896 = -48						; size = 4
$T229883 = -44						; size = 4
$T229879 = -40						; size = 4
$T229865 = -36						; size = 4
$T229861 = -29						; size = 1
$T229850 = -28						; size = 4
$T229846 = -21						; size = 1
_iMapY$229940 = -20					; size = 4
_iMapX$229939 = -16					; size = 4
$T229839 = -12						; size = 4
_pPlot$ = -8						; size = 4
_rtnValue$ = -4						; size = 4
_iX$ = 8						; size = 4
_iY$ = 12						; size = 4
___formal$ = 16						; size = 4
_bStartingLoc$ = 20					; size = 1
?AI_foundValue@CvPlayerAI@@UAEHHHH_N@Z PROC		; CvPlayerAI::AI_foundValue, COMDAT
; _this$ = ecx

; 399  : {

	push	ebp
	mov	ebp, esp
	sub	esp, 84					; 00000054H
	mov	DWORD PTR _this$[ebp], ecx

; 400  : 
; 401  : 	CvPlot* pPlot;
; 402  : 	int rtnValue = 0;

	mov	DWORD PTR _rtnValue$[ebp], 0

; 403  : 
; 404  : 	pPlot = GC.getMap().plot(iX, iY);

	mov	eax, DWORD PTR ?gGlobals@@3VCvGlobals@@A+52
	mov	DWORD PTR $T229839[ebp], eax
	cmp	DWORD PTR _iX$[ebp], -2147483647	; 80000001H
	je	SHORT $LN7@AI_foundVa
	cmp	DWORD PTR _iY$[ebp], -2147483647	; 80000001H
	jne	SHORT $LN8@AI_foundVa
$LN7@AI_foundVa:
	mov	DWORD PTR _pPlot$[ebp], 0
	jmp	$LN9@AI_foundVa
$LN8@AI_foundVa:
	mov	ecx, DWORD PTR $T229839[ebp]
	mov	dl, BYTE PTR [ecx+4056]
	mov	BYTE PTR $T229846[ebp], dl
	mov	eax, DWORD PTR $T229839[ebp]
	mov	ecx, DWORD PTR [eax+4020]
	mov	DWORD PTR $T229850[ebp], ecx
	movzx	edx, BYTE PTR $T229846[ebp]
	test	edx, edx
	je	SHORT $LN20@AI_foundVa
	cmp	DWORD PTR _iX$[ebp], 0
	jge	SHORT $LN19@AI_foundVa
	mov	eax, DWORD PTR _iX$[ebp]
	cdq
	idiv	DWORD PTR $T229850[ebp]
	add	edx, DWORD PTR $T229850[ebp]
	mov	DWORD PTR _iMapX$229939[ebp], edx
	jmp	SHORT $LN21@AI_foundVa
	jmp	SHORT $LN20@AI_foundVa
$LN19@AI_foundVa:
	mov	eax, DWORD PTR _iX$[ebp]
	cmp	eax, DWORD PTR $T229850[ebp]
	jl	SHORT $LN20@AI_foundVa
	mov	eax, DWORD PTR _iX$[ebp]
	cdq
	idiv	DWORD PTR $T229850[ebp]
	mov	DWORD PTR _iMapX$229939[ebp], edx
	jmp	SHORT $LN21@AI_foundVa
$LN20@AI_foundVa:
	mov	ecx, DWORD PTR _iX$[ebp]
	mov	DWORD PTR _iMapX$229939[ebp], ecx
$LN21@AI_foundVa:
	mov	edx, DWORD PTR $T229839[ebp]
	mov	al, BYTE PTR [edx+4057]
	mov	BYTE PTR $T229861[ebp], al
	mov	ecx, DWORD PTR $T229839[ebp]
	mov	edx, DWORD PTR [ecx+4024]
	mov	DWORD PTR $T229865[ebp], edx
	movzx	eax, BYTE PTR $T229861[ebp]
	test	eax, eax
	je	SHORT $LN30@AI_foundVa
	cmp	DWORD PTR _iY$[ebp], 0
	jge	SHORT $LN29@AI_foundVa
	mov	eax, DWORD PTR _iY$[ebp]
	cdq
	idiv	DWORD PTR $T229865[ebp]
	add	edx, DWORD PTR $T229865[ebp]
	mov	DWORD PTR _iMapY$229940[ebp], edx
	jmp	SHORT $LN31@AI_foundVa
	jmp	SHORT $LN30@AI_foundVa
$LN29@AI_foundVa:
	mov	ecx, DWORD PTR _iY$[ebp]
	cmp	ecx, DWORD PTR $T229865[ebp]
	jl	SHORT $LN30@AI_foundVa
	mov	eax, DWORD PTR _iY$[ebp]
	cdq
	idiv	DWORD PTR $T229865[ebp]
	mov	DWORD PTR _iMapY$229940[ebp], edx
	jmp	SHORT $LN31@AI_foundVa
$LN30@AI_foundVa:
	mov	edx, DWORD PTR _iY$[ebp]
	mov	DWORD PTR _iMapY$229940[ebp], edx
$LN31@AI_foundVa:
	cmp	DWORD PTR _iMapX$229939[ebp], 0
	jl	SHORT $LN35@AI_foundVa
	mov	eax, DWORD PTR $T229839[ebp]
	mov	ecx, DWORD PTR [eax+4020]
	mov	DWORD PTR $T229879[ebp], ecx
	mov	edx, DWORD PTR _iMapX$229939[ebp]
	cmp	edx, DWORD PTR $T229879[ebp]
	jge	SHORT $LN35@AI_foundVa
	cmp	DWORD PTR _iMapY$229940[ebp], 0
	jl	SHORT $LN35@AI_foundVa
	mov	eax, DWORD PTR $T229839[ebp]
	mov	ecx, DWORD PTR [eax+4024]
	mov	DWORD PTR $T229883[ebp], ecx
	mov	edx, DWORD PTR _iMapY$229940[ebp]
	cmp	edx, DWORD PTR $T229883[ebp]
	jge	SHORT $LN35@AI_foundVa
	mov	DWORD PTR tv208[ebp], 1
	jmp	SHORT $LN33@AI_foundVa
$LN35@AI_foundVa:
	mov	DWORD PTR tv208[ebp], 0
$LN33@AI_foundVa:
	cmp	DWORD PTR tv208[ebp], 0
	je	SHORT $LN11@AI_foundVa
	mov	eax, DWORD PTR $T229839[ebp]
	mov	ecx, DWORD PTR [eax+4020]
	mov	DWORD PTR $T229896[ebp], ecx
	mov	edx, DWORD PTR _iMapY$229940[ebp]
	imul	edx, DWORD PTR $T229896[ebp]
	add	edx, DWORD PTR _iMapX$229939[ebp]
	imul	edx, 484				; 000001e4H
	mov	eax, DWORD PTR $T229839[ebp]
	add	edx, DWORD PTR [eax+4068]
	mov	DWORD PTR tv193[ebp], edx
	jmp	SHORT $LN12@AI_foundVa
$LN11@AI_foundVa:
	mov	DWORD PTR tv193[ebp], 0
$LN12@AI_foundVa:
	mov	ecx, DWORD PTR tv193[ebp]
	mov	DWORD PTR _pPlot$[ebp], ecx
$LN9@AI_foundVa:

; 405  : 
; 406  : 	if(bStartingLoc)

	movzx	edx, BYTE PTR _bStartingLoc$[ebp]
	test	edx, edx
	je	SHORT $LN2@AI_foundVa

; 407  : 	{
; 408  : 		rtnValue =  GC.getGame().GetStartSiteEvaluator()->PlotFoundValue(pPlot, this);

	mov	eax, DWORD PTR ?gGlobals@@3VCvGlobals@@A+48
	mov	DWORD PTR $T229944[ebp], eax
	mov	ecx, DWORD PTR $T229944[ebp]
	call	?GetStartSiteEvaluator@CvGame@@QAEPAVCvSiteEvaluatorForStart@@XZ ; CvGame::GetStartSiteEvaluator
	mov	DWORD PTR tv81[ebp], eax
	push	1
	push	-1
	mov	ecx, DWORD PTR _this$[ebp]
	push	ecx
	mov	edx, DWORD PTR _pPlot$[ebp]
	push	edx
	mov	eax, DWORD PTR tv81[ebp]
	mov	edx, DWORD PTR [eax]
	mov	ecx, DWORD PTR tv81[ebp]
	mov	eax, DWORD PTR [edx+12]
	call	eax
	mov	DWORD PTR _rtnValue$[ebp], eax

; 409  : 	}
; 410  : 	else

	jmp	SHORT $LN1@AI_foundVa
$LN2@AI_foundVa:

; 411  : 	{
; 412  : 		GC.getGame().GetSettlerSiteEvaluator()->ComputeFlavorMultipliers(this);

	mov	ecx, DWORD PTR ?gGlobals@@3VCvGlobals@@A+48
	mov	DWORD PTR $T229948[ebp], ecx
	mov	ecx, DWORD PTR $T229948[ebp]
	call	?GetSettlerSiteEvaluator@CvGame@@QAEPAVCvSiteEvaluatorForSettler@@XZ ; CvGame::GetSettlerSiteEvaluator
	mov	DWORD PTR tv134[ebp], eax
	mov	edx, DWORD PTR _this$[ebp]
	push	edx
	mov	eax, DWORD PTR tv134[ebp]
	mov	edx, DWORD PTR [eax]
	mov	ecx, DWORD PTR tv134[ebp]
	mov	eax, DWORD PTR [edx+4]
	call	eax

; 413  : 		rtnValue =  GC.getGame().GetSettlerSiteEvaluator()->PlotFoundValue(pPlot, this, NO_YIELD, false);

	mov	ecx, DWORD PTR ?gGlobals@@3VCvGlobals@@A+48
	mov	DWORD PTR $T229952[ebp], ecx
	mov	ecx, DWORD PTR $T229952[ebp]
	call	?GetSettlerSiteEvaluator@CvGame@@QAEPAVCvSiteEvaluatorForSettler@@XZ ; CvGame::GetSettlerSiteEvaluator
	mov	DWORD PTR tv151[ebp], eax
	push	0
	push	-1
	mov	edx, DWORD PTR _this$[ebp]
	push	edx
	mov	eax, DWORD PTR _pPlot$[ebp]
	push	eax
	mov	ecx, DWORD PTR tv151[ebp]
	mov	edx, DWORD PTR [ecx]
	mov	ecx, DWORD PTR tv151[ebp]
	mov	eax, DWORD PTR [edx+12]
	call	eax
	mov	DWORD PTR _rtnValue$[ebp], eax
$LN1@AI_foundVa:

; 414  : 	}
; 415  : 
; 416  : 	return rtnValue;

	mov	eax, DWORD PTR _rtnValue$[ebp]

; 417  : }

	mov	esp, ebp
	pop	ebp
	ret	16					; 00000010H
?AI_foundValue@CvPlayerAI@@UAEHHHH_N@Z ENDP		; CvPlayerAI::AI_foundValue
_TEXT	ENDS
PUBLIC	??_C@_0P@MKBOELIK@UNIT_SCIENTIST?$AA@		; `string'
PUBLIC	??_C@_0BK@CCPNHFB@AIGRANDSTRATEGY_SPACESHIP?$AA@ ; `string'
PUBLIC	??_C@_0O@HLOLPMBO@UNIT_MERCHANT?$AA@		; `string'
PUBLIC	??_C@_0BP@DOCBNDKB@AIGRANDSTRATEGY_UNITED_NATIONS?$AA@ ; `string'
PUBLIC	??_C@_0M@FNEDFKCL@UNIT_ARTIST?$AA@		; `string'
PUBLIC	??_C@_0BI@FNGLFDGI@AIGRANDSTRATEGY_CULTURE?$AA@	; `string'
PUBLIC	??_C@_0BD@CPBEDAAN@UNIT_GREAT_GENERAL?$AA@	; `string'
PUBLIC	??_C@_0BJ@GCKPAHPE@AIGRANDSTRATEGY_CONQUEST?$AA@ ; `string'
PUBLIC	??_C@_0O@FDAJPIMP@UNIT_ENGINEER?$AA@		; `string'
EXTRN	?ChangeNumFreeGreatPeople@CvPlayer@@QAEXH@Z:PROC ; CvPlayer::ChangeNumFreeGreatPeople
EXTRN	?DoSpawnGreatPerson@CvCityCitizens@@QAEXW4UnitTypes@@_N1@Z:PROC ; CvCityCitizens::DoSpawnGreatPerson
EXTRN	?GetCityCitizens@CvCity@@QBEPAVCvCityCitizens@@XZ:PROC ; CvCity::GetCityCitizens
EXTRN	?getCapitalCity@CvPlayer@@QAEPAVCvCity@@XZ:PROC	; CvPlayer::getCapitalCity
EXTRN	?GetActiveGrandStrategy@CvGrandStrategyAI@@QBE?AW4AIGrandStrategyTypes@@XZ:PROC ; CvGrandStrategyAI::GetActiveGrandStrategy
EXTRN	?GetGrandStrategyAI@CvPlayer@@QBEPAVCvGrandStrategyAI@@XZ:PROC ; CvPlayer::GetGrandStrategyAI
EXTRN	?getInfoTypeForString@CvGlobals@@QBEHPBD_N@Z:PROC ; CvGlobals::getInfoTypeForString
EXTRN	?getEstimateEndTurn@CvGame@@QBEHXZ:PROC		; CvGame::getEstimateEndTurn
EXTRN	?GetWonderCompetitiveness@CvDiplomacyAI@@QBEHXZ:PROC ; CvDiplomacyAI::GetWonderCompetitiveness
EXTRN	?GetNumFreeGreatPeople@CvPlayer@@QBEHXZ:PROC	; CvPlayer::GetNumFreeGreatPeople
;	COMDAT ??_C@_0P@MKBOELIK@UNIT_SCIENTIST?$AA@
; File d:\sources\lekmod_git\checkout\lekmod_dll\cvgamecoredll_expansion2\cvglobals.h
CONST	SEGMENT
??_C@_0P@MKBOELIK@UNIT_SCIENTIST?$AA@ DB 'UNIT_SCIENTIST', 00H ; `string'
CONST	ENDS
;	COMDAT ??_C@_0BK@CCPNHFB@AIGRANDSTRATEGY_SPACESHIP?$AA@
CONST	SEGMENT
??_C@_0BK@CCPNHFB@AIGRANDSTRATEGY_SPACESHIP?$AA@ DB 'AIGRANDSTRATEGY_SPAC'
	DB	'ESHIP', 00H					; `string'
CONST	ENDS
;	COMDAT ??_C@_0O@HLOLPMBO@UNIT_MERCHANT?$AA@
CONST	SEGMENT
??_C@_0O@HLOLPMBO@UNIT_MERCHANT?$AA@ DB 'UNIT_MERCHANT', 00H ; `string'
CONST	ENDS
;	COMDAT ??_C@_0BP@DOCBNDKB@AIGRANDSTRATEGY_UNITED_NATIONS?$AA@
CONST	SEGMENT
??_C@_0BP@DOCBNDKB@AIGRANDSTRATEGY_UNITED_NATIONS?$AA@ DB 'AIGRANDSTRATEG'
	DB	'Y_UNITED_NATIONS', 00H			; `string'
CONST	ENDS
;	COMDAT ??_C@_0M@FNEDFKCL@UNIT_ARTIST?$AA@
CONST	SEGMENT
??_C@_0M@FNEDFKCL@UNIT_ARTIST?$AA@ DB 'UNIT_ARTIST', 00H ; `string'
CONST	ENDS
;	COMDAT ??_C@_0BI@FNGLFDGI@AIGRANDSTRATEGY_CULTURE?$AA@
CONST	SEGMENT
??_C@_0BI@FNGLFDGI@AIGRANDSTRATEGY_CULTURE?$AA@ DB 'AIGRANDSTRATEGY_CULTU'
	DB	'RE', 00H					; `string'
CONST	ENDS
;	COMDAT ??_C@_0BD@CPBEDAAN@UNIT_GREAT_GENERAL?$AA@
CONST	SEGMENT
??_C@_0BD@CPBEDAAN@UNIT_GREAT_GENERAL?$AA@ DB 'UNIT_GREAT_GENERAL', 00H ; `string'
CONST	ENDS
;	COMDAT ??_C@_0BJ@GCKPAHPE@AIGRANDSTRATEGY_CONQUEST?$AA@
CONST	SEGMENT
??_C@_0BJ@GCKPAHPE@AIGRANDSTRATEGY_CONQUEST?$AA@ DB 'AIGRANDSTRATEGY_CONQ'
	DB	'UEST', 00H					; `string'
CONST	ENDS
;	COMDAT ??_C@_0O@FDAJPIMP@UNIT_ENGINEER?$AA@
CONST	SEGMENT
??_C@_0O@FDAJPIMP@UNIT_ENGINEER?$AA@ DB 'UNIT_ENGINEER', 00H ; `string'
; Function compile flags: /Odtp
; File d:\sources\lekmod_git\checkout\lekmod_dll\cvgamecoredll_expansion2\cvplayerai.cpp
CONST	ENDS
;	COMDAT ?AI_chooseFreeGreatPerson@CvPlayerAI@@UAEXXZ
_TEXT	SEGMENT
_this$ = -24						; size = 4
$T229962 = -20						; size = 4
$T229958 = -16						; size = 4
_pCapital$225353 = -12					; size = 4
_eVictoryStrategy$225328 = -8				; size = 4
_eDesiredGreatPerson$225323 = -4			; size = 4
?AI_chooseFreeGreatPerson@CvPlayerAI@@UAEXXZ PROC	; CvPlayerAI::AI_chooseFreeGreatPerson, COMDAT
; _this$ = ecx

; 420  : {

	push	ebp
	mov	ebp, esp
	sub	esp, 24					; 00000018H
	push	esi
	mov	DWORD PTR _this$[ebp], ecx
$LN14@AI_chooseF:

; 421  : 	while(GetNumFreeGreatPeople() > 0)

	mov	ecx, DWORD PTR _this$[ebp]
	call	?GetNumFreeGreatPeople@CvPlayer@@QBEHXZ	; CvPlayer::GetNumFreeGreatPeople
	test	eax, eax
	jle	$LN15@AI_chooseF

; 422  : 	{
; 423  : 		UnitTypes eDesiredGreatPerson = NO_UNIT;

	mov	DWORD PTR _eDesiredGreatPerson$225323[ebp], -1

; 424  : 
; 425  : 		// Highly wonder competitive and still early in game?
; 426  : 		if(GetDiplomacyAI()->GetWonderCompetitiveness() >= 8 && GC.getGame().getGameTurn() <= (GC.getGame().getEstimateEndTurn() / 2))

	mov	ecx, DWORD PTR _this$[ebp]
	call	?GetDiplomacyAI@CvPlayer@@QBEPAVCvDiplomacyAI@@XZ ; CvPlayer::GetDiplomacyAI
	mov	ecx, eax
	call	?GetWonderCompetitiveness@CvDiplomacyAI@@QBEHXZ ; CvDiplomacyAI::GetWonderCompetitiveness
	cmp	eax, 8
	jl	SHORT $LN12@AI_chooseF
	mov	eax, DWORD PTR ?gGlobals@@3VCvGlobals@@A+48
	mov	DWORD PTR $T229958[ebp], eax
	mov	ecx, DWORD PTR ?gGlobals@@3VCvGlobals@@A+48
	mov	DWORD PTR $T229962[ebp], ecx
	mov	ecx, DWORD PTR $T229958[ebp]
	call	?getGameTurn@CvGame@@QAEHXZ		; CvGame::getGameTurn
	mov	esi, eax
	mov	ecx, DWORD PTR $T229962[ebp]
	call	?getEstimateEndTurn@CvGame@@QBEHXZ	; CvGame::getEstimateEndTurn
	cdq
	sub	eax, edx
	sar	eax, 1
	cmp	esi, eax
	jg	SHORT $LN12@AI_chooseF

; 427  : 		{
; 428  : 			eDesiredGreatPerson = (UnitTypes)GC.getInfoTypeForString("UNIT_ENGINEER");

	push	0
	push	OFFSET ??_C@_0O@FDAJPIMP@UNIT_ENGINEER?$AA@
	mov	ecx, OFFSET ?gGlobals@@3VCvGlobals@@A	; gGlobals
	call	?getInfoTypeForString@CvGlobals@@QBEHPBD_N@Z ; CvGlobals::getInfoTypeForString
	mov	DWORD PTR _eDesiredGreatPerson$225323[ebp], eax

; 429  : 		}
; 430  : 		else

	jmp	$LN11@AI_chooseF
$LN12@AI_chooseF:

; 431  : 		{
; 432  : 			// Pick the person based on our victory method
; 433  : 			AIGrandStrategyTypes eVictoryStrategy = GetGrandStrategyAI()->GetActiveGrandStrategy();

	mov	ecx, DWORD PTR _this$[ebp]
	call	?GetGrandStrategyAI@CvPlayer@@QBEPAVCvGrandStrategyAI@@XZ ; CvPlayer::GetGrandStrategyAI
	mov	ecx, eax
	call	?GetActiveGrandStrategy@CvGrandStrategyAI@@QBE?AW4AIGrandStrategyTypes@@XZ ; CvGrandStrategyAI::GetActiveGrandStrategy
	mov	DWORD PTR _eVictoryStrategy$225328[ebp], eax

; 434  : 			if(eVictoryStrategy == (AIGrandStrategyTypes) GC.getInfoTypeForString("AIGRANDSTRATEGY_CONQUEST"))

	push	0
	push	OFFSET ??_C@_0BJ@GCKPAHPE@AIGRANDSTRATEGY_CONQUEST?$AA@
	mov	ecx, OFFSET ?gGlobals@@3VCvGlobals@@A	; gGlobals
	call	?getInfoTypeForString@CvGlobals@@QBEHPBD_N@Z ; CvGlobals::getInfoTypeForString
	cmp	DWORD PTR _eVictoryStrategy$225328[ebp], eax
	jne	SHORT $LN10@AI_chooseF

; 435  : 			{
; 436  : 				eDesiredGreatPerson = (UnitTypes)GC.getInfoTypeForString("UNIT_GREAT_GENERAL");

	push	0
	push	OFFSET ??_C@_0BD@CPBEDAAN@UNIT_GREAT_GENERAL?$AA@
	mov	ecx, OFFSET ?gGlobals@@3VCvGlobals@@A	; gGlobals
	call	?getInfoTypeForString@CvGlobals@@QBEHPBD_N@Z ; CvGlobals::getInfoTypeForString
	mov	DWORD PTR _eDesiredGreatPerson$225323[ebp], eax
	jmp	$LN11@AI_chooseF
$LN10@AI_chooseF:

; 437  : 			}
; 438  : 			else if(eVictoryStrategy == (AIGrandStrategyTypes) GC.getInfoTypeForString("AIGRANDSTRATEGY_CULTURE"))

	push	0
	push	OFFSET ??_C@_0BI@FNGLFDGI@AIGRANDSTRATEGY_CULTURE?$AA@
	mov	ecx, OFFSET ?gGlobals@@3VCvGlobals@@A	; gGlobals
	call	?getInfoTypeForString@CvGlobals@@QBEHPBD_N@Z ; CvGlobals::getInfoTypeForString
	cmp	DWORD PTR _eVictoryStrategy$225328[ebp], eax
	jne	SHORT $LN8@AI_chooseF

; 439  : 			{
; 440  : 				eDesiredGreatPerson = (UnitTypes)GC.getInfoTypeForString("UNIT_ARTIST");

	push	0
	push	OFFSET ??_C@_0M@FNEDFKCL@UNIT_ARTIST?$AA@
	mov	ecx, OFFSET ?gGlobals@@3VCvGlobals@@A	; gGlobals
	call	?getInfoTypeForString@CvGlobals@@QBEHPBD_N@Z ; CvGlobals::getInfoTypeForString
	mov	DWORD PTR _eDesiredGreatPerson$225323[ebp], eax
	jmp	SHORT $LN11@AI_chooseF
$LN8@AI_chooseF:

; 441  : 			}
; 442  : 			else if(eVictoryStrategy == (AIGrandStrategyTypes) GC.getInfoTypeForString("AIGRANDSTRATEGY_UNITED_NATIONS"))

	push	0
	push	OFFSET ??_C@_0BP@DOCBNDKB@AIGRANDSTRATEGY_UNITED_NATIONS?$AA@
	mov	ecx, OFFSET ?gGlobals@@3VCvGlobals@@A	; gGlobals
	call	?getInfoTypeForString@CvGlobals@@QBEHPBD_N@Z ; CvGlobals::getInfoTypeForString
	cmp	DWORD PTR _eVictoryStrategy$225328[ebp], eax
	jne	SHORT $LN6@AI_chooseF

; 443  : 			{
; 444  : 				eDesiredGreatPerson = (UnitTypes)GC.getInfoTypeForString("UNIT_MERCHANT");

	push	0
	push	OFFSET ??_C@_0O@HLOLPMBO@UNIT_MERCHANT?$AA@
	mov	ecx, OFFSET ?gGlobals@@3VCvGlobals@@A	; gGlobals
	call	?getInfoTypeForString@CvGlobals@@QBEHPBD_N@Z ; CvGlobals::getInfoTypeForString
	mov	DWORD PTR _eDesiredGreatPerson$225323[ebp], eax
	jmp	SHORT $LN11@AI_chooseF
$LN6@AI_chooseF:

; 445  : 			}
; 446  : 			else if(eVictoryStrategy == (AIGrandStrategyTypes) GC.getInfoTypeForString("AIGRANDSTRATEGY_SPACESHIP"))

	push	0
	push	OFFSET ??_C@_0BK@CCPNHFB@AIGRANDSTRATEGY_SPACESHIP?$AA@
	mov	ecx, OFFSET ?gGlobals@@3VCvGlobals@@A	; gGlobals
	call	?getInfoTypeForString@CvGlobals@@QBEHPBD_N@Z ; CvGlobals::getInfoTypeForString
	cmp	DWORD PTR _eVictoryStrategy$225328[ebp], eax
	jne	SHORT $LN11@AI_chooseF

; 447  : 			{
; 448  : 				eDesiredGreatPerson = (UnitTypes)GC.getInfoTypeForString("UNIT_SCIENTIST");

	push	0
	push	OFFSET ??_C@_0P@MKBOELIK@UNIT_SCIENTIST?$AA@
	mov	ecx, OFFSET ?gGlobals@@3VCvGlobals@@A	; gGlobals
	call	?getInfoTypeForString@CvGlobals@@QBEHPBD_N@Z ; CvGlobals::getInfoTypeForString
	mov	DWORD PTR _eDesiredGreatPerson$225323[ebp], eax
$LN11@AI_chooseF:

; 449  : 			}
; 450  : 		}
; 451  : 
; 452  : 		if(eDesiredGreatPerson != NO_UNIT)

	cmp	DWORD PTR _eDesiredGreatPerson$225323[ebp], -1
	je	SHORT $LN3@AI_chooseF

; 453  : 		{
; 454  : 			CvCity* pCapital = getCapitalCity();

	mov	ecx, DWORD PTR _this$[ebp]
	call	?getCapitalCity@CvPlayer@@QAEPAVCvCity@@XZ ; CvPlayer::getCapitalCity
	mov	DWORD PTR _pCapital$225353[ebp], eax

; 455  : 			if(pCapital)

	cmp	DWORD PTR _pCapital$225353[ebp], 0
	je	SHORT $LN2@AI_chooseF

; 456  : 			{
; 457  : 				// NQMP GJS: AI should also get truly "free" Great People when the player would as well. Changed 2nd parameter below from true to false.
; 458  : 				pCapital->GetCityCitizens()->DoSpawnGreatPerson(eDesiredGreatPerson, false, false);

	push	0
	push	0
	mov	edx, DWORD PTR _eDesiredGreatPerson$225323[ebp]
	push	edx
	mov	ecx, DWORD PTR _pCapital$225353[ebp]
	call	?GetCityCitizens@CvCity@@QBEPAVCvCityCitizens@@XZ ; CvCity::GetCityCitizens
	mov	ecx, eax
	call	?DoSpawnGreatPerson@CvCityCitizens@@QAEXW4UnitTypes@@_N1@Z ; CvCityCitizens::DoSpawnGreatPerson
$LN2@AI_chooseF:

; 459  : 			}
; 460  : 			ChangeNumFreeGreatPeople(-1);

	push	-1
	mov	ecx, DWORD PTR _this$[ebp]
	call	?ChangeNumFreeGreatPeople@CvPlayer@@QAEXH@Z ; CvPlayer::ChangeNumFreeGreatPeople

; 461  : 		}
; 462  : 		else

	jmp	SHORT $LN1@AI_chooseF
$LN3@AI_chooseF:

; 463  : 		{
; 464  : 			break;

	jmp	SHORT $LN15@AI_chooseF
$LN1@AI_chooseF:

; 465  : 		}
; 466  : 	}

	jmp	$LN14@AI_chooseF
$LN15@AI_chooseF:

; 467  : }

	pop	esi
	mov	esp, ebp
	pop	ebp
	ret	0
?AI_chooseFreeGreatPerson@CvPlayerAI@@UAEXXZ ENDP	; CvPlayerAI::AI_chooseFreeGreatPerson
_TEXT	ENDS
EXTRN	?setHasTech@CvTeam@@QAEXW4TechTypes@@_NW4PlayerTypes@@11@Z:PROC ; CvTeam::setHasTech
EXTRN	?ChooseNextTech@CvTechAI@@QAE?AW4TechTypes@@PAVCvPlayer@@_N@Z:PROC ; CvTechAI::ChooseNextTech
EXTRN	?GetTechAI@CvPlayerTechs@@QAEPAVCvTechAI@@XZ:PROC ; CvPlayerTechs::GetTechAI
EXTRN	?GetPlayerTechs@CvPlayer@@QBEPAVCvPlayerTechs@@XZ:PROC ; CvPlayer::GetPlayerTechs
EXTRN	?clearResearchQueue@CvPlayer@@QAEXXZ:PROC	; CvPlayer::clearResearchQueue
; Function compile flags: /Odtp
;	COMDAT ?AI_chooseFreeTech@CvPlayerAI@@UAEXXZ
_TEXT	SEGMENT
_this$ = -16						; size = 4
$T229982 = -12						; size = 4
$T229973 = -8						; size = 4
_eBestTech$ = -4					; size = 4
?AI_chooseFreeTech@CvPlayerAI@@UAEXXZ PROC		; CvPlayerAI::AI_chooseFreeTech, COMDAT
; _this$ = ecx

; 470  : {

	push	ebp
	mov	ebp, esp
	sub	esp, 16					; 00000010H
	mov	DWORD PTR _this$[ebp], ecx

; 471  : 	TechTypes eBestTech = NO_TECH;

	mov	DWORD PTR _eBestTech$[ebp], -1

; 472  : 
; 473  : 	clearResearchQueue();

	mov	ecx, DWORD PTR _this$[ebp]
	call	?clearResearchQueue@CvPlayer@@QAEXXZ	; CvPlayer::clearResearchQueue

; 474  : 
; 475  : 	// TODO: script override
; 476  : 
; 477  : 	if(eBestTech == NO_TECH)

	cmp	DWORD PTR _eBestTech$[ebp], -1
	jne	SHORT $LN2@AI_chooseF@2

; 478  : 	{
; 479  : 		eBestTech = GetPlayerTechs()->GetTechAI()->ChooseNextTech(this, /*bFreeTech*/ true);

	push	1
	mov	eax, DWORD PTR _this$[ebp]
	push	eax
	mov	ecx, DWORD PTR _this$[ebp]
	call	?GetPlayerTechs@CvPlayer@@QBEPAVCvPlayerTechs@@XZ ; CvPlayer::GetPlayerTechs
	mov	ecx, eax
	call	?GetTechAI@CvPlayerTechs@@QAEPAVCvTechAI@@XZ ; CvPlayerTechs::GetTechAI
	mov	ecx, eax
	call	?ChooseNextTech@CvTechAI@@QAE?AW4TechTypes@@PAVCvPlayer@@_N@Z ; CvTechAI::ChooseNextTech
	mov	DWORD PTR _eBestTech$[ebp], eax
$LN2@AI_chooseF@2:

; 480  : 	}
; 481  : 
; 482  : 	if(eBestTech != NO_TECH)

	cmp	DWORD PTR _eBestTech$[ebp], -1
	je	SHORT $LN3@AI_chooseF@2

; 483  : 	{
; 484  : 		GET_TEAM(getTeam()).setHasTech(eBestTech, true, GetID(), true, true);

	mov	ecx, DWORD PTR _this$[ebp]
	mov	edx, DWORD PTR [ecx+44]
	mov	DWORD PTR $T229973[ebp], edx
	mov	eax, DWORD PTR _this$[ebp]
	mov	ecx, DWORD PTR [eax+44]
	push	ecx
	call	?teamType@CvPreGame@@YA?AW4TeamTypes@@W4PlayerTypes@@@Z ; CvPreGame::teamType
	add	esp, 4
	mov	DWORD PTR $T229982[ebp], eax
	push	1
	push	1
	mov	edx, DWORD PTR $T229973[ebp]
	push	edx
	push	1
	mov	eax, DWORD PTR _eBestTech$[ebp]
	push	eax
	mov	ecx, DWORD PTR $T229982[ebp]
	imul	ecx, 2984				; 00000ba8H
	add	ecx, DWORD PTR ?m_aTeams@CvTeam@@1PAV1@A ; CvTeam::m_aTeams
	call	?setHasTech@CvTeam@@QAEXW4TechTypes@@_NW4PlayerTypes@@11@Z ; CvTeam::setHasTech
$LN3@AI_chooseF@2:

; 485  : 	}
; 486  : }

	mov	esp, ebp
	pop	ebp
	ret	0
?AI_chooseFreeTech@CvPlayerAI@@UAEXXZ ENDP		; CvPlayerAI::AI_chooseFreeTech
_TEXT	ENDS
EXTRN	?pushResearch@CvPlayer@@QAE_NW4TechTypes@@_N@Z:PROC ; CvPlayer::pushResearch
EXTRN	?CanResearch@CvPlayerTechs@@QBE_NW4TechTypes@@_N@Z:PROC ; CvPlayerTechs::CanResearch
EXTRN	?GetCurrentResearch@CvPlayerTechs@@QBE?AW4TechTypes@@XZ:PROC ; CvPlayerTechs::GetCurrentResearch
; Function compile flags: /Odtp
;	COMDAT ?AI_chooseResearch@CvPlayerAI@@UAEXXZ
_TEXT	SEGMENT
_this$ = -44						; size = 4
$T230042 = -40						; size = 4
$T230038 = -36						; size = 4
$T230034 = -32						; size = 4
$T230022 = -28						; size = 4
$T230013 = -24						; size = 4
$T230009 = -20						; size = 4
$T230000 = -13						; size = 1
$T229991 = -12						; size = 4
_eBestTech$ = -8					; size = 4
_iI$ = -4						; size = 4
?AI_chooseResearch@CvPlayerAI@@UAEXXZ PROC		; CvPlayerAI::AI_chooseResearch, COMDAT
; _this$ = ecx

; 490  : {

	push	ebp
	mov	ebp, esp
	sub	esp, 44					; 0000002cH
	mov	DWORD PTR _this$[ebp], ecx

; 491  : #ifdef AUI_PERF_LOGGING_FORMATTING_TWEAKS
; 492  : 	AI_PERF_FORMAT("AI-perf.csv", ("AI_chooseResearch, Turn %03d, %s", GC.getGame().getGameTurn(), getCivilizationShortDescription()));
; 493  : #else
; 494  : 	AI_PERF("AI-perf.csv", "AI_chooseResearch");
; 495  : #endif
; 496  : 
; 497  : 	TechTypes eBestTech = NO_TECH;

	mov	DWORD PTR _eBestTech$[ebp], -1

; 498  : 	int iI;
; 499  : 
; 500  : 	clearResearchQueue();

	mov	ecx, DWORD PTR _this$[ebp]
	call	?clearResearchQueue@CvPlayer@@QAEXXZ	; CvPlayer::clearResearchQueue

; 501  : 
; 502  : 	if(GetPlayerTechs()->GetCurrentResearch() == NO_TECH)

	mov	ecx, DWORD PTR _this$[ebp]
	call	?GetPlayerTechs@CvPlayer@@QBEPAVCvPlayerTechs@@XZ ; CvPlayer::GetPlayerTechs
	mov	ecx, eax
	call	?GetCurrentResearch@CvPlayerTechs@@QBE?AW4TechTypes@@XZ ; CvPlayerTechs::GetCurrentResearch
	cmp	eax, -1
	jne	$LN11@AI_chooseR

; 503  : 	{
; 504  : 		for(iI = 0; iI < MAX_PLAYERS; iI++)

	mov	DWORD PTR _iI$[ebp], 0
	jmp	SHORT $LN10@AI_chooseR
$LN9@AI_chooseR:
	mov	eax, DWORD PTR _iI$[ebp]
	add	eax, 1
	mov	DWORD PTR _iI$[ebp], eax
$LN10@AI_chooseR:
	cmp	DWORD PTR _iI$[ebp], 64			; 00000040H
	jge	$LN11@AI_chooseR

; 505  : 		{
; 506  : 			if(GET_PLAYER((PlayerTypes)iI).isAlive())

	mov	ecx, DWORD PTR _iI$[ebp]
	imul	ecx, 63236				; 0000f704H
	add	ecx, DWORD PTR ?m_aPlayers@CvPlayerAI@@1PAV1@A ; CvPlayerAI::m_aPlayers
	mov	DWORD PTR $T229991[ebp], ecx
	mov	edx, DWORD PTR $T229991[ebp]
	mov	al, BYTE PTR [edx+2256]
	mov	BYTE PTR $T230000[ebp], al
	movzx	ecx, BYTE PTR $T230000[ebp]
	test	ecx, ecx
	je	$LN7@AI_chooseR

; 507  : 			{
; 508  : 				if((iI != GetID()) && (GET_PLAYER((PlayerTypes)iI).getTeam() == getTeam()))

	mov	edx, DWORD PTR _this$[ebp]
	mov	eax, DWORD PTR [edx+44]
	mov	DWORD PTR $T230009[ebp], eax
	mov	ecx, DWORD PTR _iI$[ebp]
	cmp	ecx, DWORD PTR $T230009[ebp]
	je	$LN7@AI_chooseR
	mov	edx, DWORD PTR _iI$[ebp]
	imul	edx, 63236				; 0000f704H
	add	edx, DWORD PTR ?m_aPlayers@CvPlayerAI@@1PAV1@A ; CvPlayerAI::m_aPlayers
	mov	DWORD PTR $T230013[ebp], edx
	mov	eax, DWORD PTR $T230013[ebp]
	mov	ecx, DWORD PTR [eax+44]
	push	ecx
	call	?teamType@CvPreGame@@YA?AW4TeamTypes@@W4PlayerTypes@@@Z ; CvPreGame::teamType
	add	esp, 4
	mov	DWORD PTR $T230022[ebp], eax
	mov	edx, DWORD PTR _this$[ebp]
	mov	eax, DWORD PTR [edx+44]
	push	eax
	call	?teamType@CvPreGame@@YA?AW4TeamTypes@@W4PlayerTypes@@@Z ; CvPreGame::teamType
	add	esp, 4
	cmp	DWORD PTR $T230022[ebp], eax
	jne	$LN7@AI_chooseR

; 509  : 				{
; 510  : 					if(GET_PLAYER((PlayerTypes)iI).GetPlayerTechs()->GetCurrentResearch() != NO_TECH)

	mov	ecx, DWORD PTR _iI$[ebp]
	imul	ecx, 63236				; 0000f704H
	add	ecx, DWORD PTR ?m_aPlayers@CvPlayerAI@@1PAV1@A ; CvPlayerAI::m_aPlayers
	mov	DWORD PTR $T230034[ebp], ecx
	mov	ecx, DWORD PTR $T230034[ebp]
	call	?GetPlayerTechs@CvPlayer@@QBEPAVCvPlayerTechs@@XZ ; CvPlayer::GetPlayerTechs
	mov	ecx, eax
	call	?GetCurrentResearch@CvPlayerTechs@@QBE?AW4TechTypes@@XZ ; CvPlayerTechs::GetCurrentResearch
	cmp	eax, -1
	je	SHORT $LN7@AI_chooseR

; 511  : 					{
; 512  : 						if(GetPlayerTechs()->CanResearch(GET_PLAYER((PlayerTypes)iI).GetPlayerTechs()->GetCurrentResearch()))

	mov	edx, DWORD PTR _iI$[ebp]
	imul	edx, 63236				; 0000f704H
	add	edx, DWORD PTR ?m_aPlayers@CvPlayerAI@@1PAV1@A ; CvPlayerAI::m_aPlayers
	mov	DWORD PTR $T230038[ebp], edx
	push	0
	mov	ecx, DWORD PTR $T230038[ebp]
	call	?GetPlayerTechs@CvPlayer@@QBEPAVCvPlayerTechs@@XZ ; CvPlayer::GetPlayerTechs
	mov	ecx, eax
	call	?GetCurrentResearch@CvPlayerTechs@@QBE?AW4TechTypes@@XZ ; CvPlayerTechs::GetCurrentResearch
	push	eax
	mov	ecx, DWORD PTR _this$[ebp]
	call	?GetPlayerTechs@CvPlayer@@QBEPAVCvPlayerTechs@@XZ ; CvPlayer::GetPlayerTechs
	mov	ecx, eax
	call	?CanResearch@CvPlayerTechs@@QBE_NW4TechTypes@@_N@Z ; CvPlayerTechs::CanResearch
	movzx	eax, al
	test	eax, eax
	je	SHORT $LN7@AI_chooseR

; 513  : 						{
; 514  : 							pushResearch(GET_PLAYER((PlayerTypes)iI).GetPlayerTechs()->GetCurrentResearch());

	mov	ecx, DWORD PTR _iI$[ebp]
	imul	ecx, 63236				; 0000f704H
	add	ecx, DWORD PTR ?m_aPlayers@CvPlayerAI@@1PAV1@A ; CvPlayerAI::m_aPlayers
	mov	DWORD PTR $T230042[ebp], ecx
	push	0
	mov	ecx, DWORD PTR $T230042[ebp]
	call	?GetPlayerTechs@CvPlayer@@QBEPAVCvPlayerTechs@@XZ ; CvPlayer::GetPlayerTechs
	mov	ecx, eax
	call	?GetCurrentResearch@CvPlayerTechs@@QBE?AW4TechTypes@@XZ ; CvPlayerTechs::GetCurrentResearch
	push	eax
	mov	ecx, DWORD PTR _this$[ebp]
	call	?pushResearch@CvPlayer@@QAE_NW4TechTypes@@_N@Z ; CvPlayer::pushResearch
$LN7@AI_chooseR:

; 515  : 						}
; 516  : 					}
; 517  : 				}
; 518  : 			}
; 519  : 		}

	jmp	$LN9@AI_chooseR
$LN11@AI_chooseR:

; 520  : 	}
; 521  : 
; 522  : 	if(GetPlayerTechs()->GetCurrentResearch() == NO_TECH)

	mov	ecx, DWORD PTR _this$[ebp]
	call	?GetPlayerTechs@CvPlayer@@QBEPAVCvPlayerTechs@@XZ ; CvPlayer::GetPlayerTechs
	mov	ecx, eax
	call	?GetCurrentResearch@CvPlayerTechs@@QBE?AW4TechTypes@@XZ ; CvPlayerTechs::GetCurrentResearch
	cmp	eax, -1
	jne	SHORT $LN12@AI_chooseR

; 523  : 	{
; 524  : 		//todo: script override
; 525  : 
; 526  : 		if(eBestTech == NO_TECH)

	cmp	DWORD PTR _eBestTech$[ebp], -1
	jne	SHORT $LN2@AI_chooseR

; 527  : 		{
; 528  : 			eBestTech = GetPlayerTechs()->GetTechAI()->ChooseNextTech(this);

	push	0
	mov	edx, DWORD PTR _this$[ebp]
	push	edx
	mov	ecx, DWORD PTR _this$[ebp]
	call	?GetPlayerTechs@CvPlayer@@QBEPAVCvPlayerTechs@@XZ ; CvPlayer::GetPlayerTechs
	mov	ecx, eax
	call	?GetTechAI@CvPlayerTechs@@QAEPAVCvTechAI@@XZ ; CvPlayerTechs::GetTechAI
	mov	ecx, eax
	call	?ChooseNextTech@CvTechAI@@QAE?AW4TechTypes@@PAVCvPlayer@@_N@Z ; CvTechAI::ChooseNextTech
	mov	DWORD PTR _eBestTech$[ebp], eax
$LN2@AI_chooseR:

; 529  : 		}
; 530  : 
; 531  : 		if(eBestTech != NO_TECH)

	cmp	DWORD PTR _eBestTech$[ebp], -1
	je	SHORT $LN12@AI_chooseR

; 532  : 		{
; 533  : 			pushResearch(eBestTech);

	push	0
	mov	eax, DWORD PTR _eBestTech$[ebp]
	push	eax
	mov	ecx, DWORD PTR _this$[ebp]
	call	?pushResearch@CvPlayer@@QAE_NW4TechTypes@@_N@Z ; CvPlayer::pushResearch
$LN12@AI_chooseR:

; 534  : 		}
; 535  : 	}
; 536  : }

	mov	esp, ebp
	pop	ebp
	ret	0
?AI_chooseResearch@CvPlayerAI@@UAEXXZ ENDP		; CvPlayerAI::AI_chooseResearch
_TEXT	ENDS
PUBLIC	??1?$_Vector_val@UCityAndProduction@@V?$allocator@UCityAndProduction@@@std@@@std@@QAE@XZ ; std::_Vector_val<CityAndProduction,std::allocator<CityAndProduction> >::~_Vector_val<CityAndProduction,std::allocator<CityAndProduction> >
PUBLIC	??1?$vector@UCityAndProduction@@V?$allocator@UCityAndProduction@@@std@@@std@@QAE@XZ ; std::vector<CityAndProduction,std::allocator<CityAndProduction> >::~vector<CityAndProduction,std::allocator<CityAndProduction> >
PUBLIC	?_Tidy@?$vector@UCityAndProduction@@V?$allocator@UCityAndProduction@@@std@@@std@@IAEXXZ ; std::vector<CityAndProduction,std::allocator<CityAndProduction> >::_Tidy
PUBLIC	??$stable_sort@V?$_Vector_iterator@UCityAndProduction@@V?$allocator@UCityAndProduction@@@std@@@std@@UCityAndProductionEval@@@std@@YAXV?$_Vector_iterator@UCityAndProduction@@V?$allocator@UCityAndProduction@@@std@@@0@0UCityAndProductionEval@@@Z ; std::stable_sort<std::_Vector_iterator<CityAndProduction,std::allocator<CityAndProduction> >,CityAndProductionEval>
PUBLIC	?push_back@?$vector@UCityAndProduction@@V?$allocator@UCityAndProduction@@@std@@@std@@QAEXABUCityAndProduction@@@Z ; std::vector<CityAndProduction,std::allocator<CityAndProduction> >::push_back
PUBLIC	??0?$vector@UCityAndProduction@@V?$allocator@UCityAndProduction@@@std@@@std@@QAE@XZ ; std::vector<CityAndProduction,std::allocator<CityAndProduction> >::vector<CityAndProduction,std::allocator<CityAndProduction> >
EXTRN	?IsResistance@CvCity@@QBE_NXZ:PROC		; CvCity::IsResistance
EXTRN	?GetBuildingClassProductionModifier@CvPlayerPolicies@@QAEHW4BuildingClassTypes@@@Z:PROC ; CvPlayerPolicies::GetBuildingClassProductionModifier
EXTRN	?GetPlayerPolicies@CvPlayer@@QBEPAVCvPlayerPolicies@@XZ:PROC ; CvPlayer::GetPlayerPolicies
EXTRN	?GetBuildingClassType@CvBuildingEntry@@QBEHXZ:PROC ; CvBuildingEntry::GetBuildingClassType
EXTRN	?IsNoOccupiedUnhappiness@CvBuildingEntry@@QBE_NXZ:PROC ; CvBuildingEntry::IsNoOccupiedUnhappiness
EXTRN	?getBuildingInfo@CvGlobals@@QAEPAVCvBuildingEntry@@W4BuildingTypes@@@Z:PROC ; CvGlobals::getBuildingInfo
EXTRN	?getNumBuildingInfos@CvGlobals@@QAEHXZ:PROC	; CvGlobals::getNumBuildingInfos
EXTRN	?getYieldRateTimes100@CvCity@@QBEHW4YieldTypes@@_N@Z:PROC ; CvCity::getYieldRateTimes100
EXTRN	?nextCity@CvPlayer@@QAEPAVCvCity@@PAH_N@Z:PROC	; CvPlayer::nextCity
EXTRN	?firstCity@CvPlayer@@QAEPAVCvCity@@PAH_N@Z:PROC	; CvPlayer::firstCity
EXTRN	?DoAnnex@CvCity@@QAEXXZ:PROC			; CvCity::DoAnnex
EXTRN	?IsPuppet@CvCity@@QBE_NXZ:PROC			; CvCity::IsPuppet
EXTRN	?IsGoingForCultureVictory@CvDiplomacyAI@@QAE_NXZ:PROC ; CvDiplomacyAI::IsGoingForCultureVictory
EXTRN	__fltused:DWORD
;	COMDAT xdata$x
; File c:\program files (x86)\microsoft visual studio 9.0\vc\include\xutility
xdata$x	SEGMENT
__unwindtable$?AI_considerAnnex@CvPlayerAI@@QAEXXZ DD 0ffffffffH
	DD	FLAT:__unwindfunclet$?AI_considerAnnex@CvPlayerAI@@QAEXXZ$0
	DD	0ffffffffH
	DD	FLAT:__unwindfunclet$?AI_considerAnnex@CvPlayerAI@@QAEXXZ$4
__ehfuncinfo$?AI_considerAnnex@CvPlayerAI@@QAEXXZ DD 019930522H
	DD	02H
	DD	FLAT:__unwindtable$?AI_considerAnnex@CvPlayerAI@@QAEXXZ
	DD	2 DUP(00H)
	DD	2 DUP(00H)
	DD	00H
	DD	01H
; Function compile flags: /Odtp
; File d:\sources\lekmod_git\checkout\lekmod_dll\cvgamecoredll_expansion2\cvplayerai.cpp
xdata$x	ENDS
;	COMDAT ?AI_considerAnnex@CvPlayerAI@@QAEXXZ
_TEXT	SEGMENT
tv415 = -264						; size = 8
tv413 = -256						; size = 4
tv410 = -250						; size = 2
tv407 = -248						; size = 8
_this$ = -240						; size = 4
$T230235 = -204						; size = 4
$T230145 = -152						; size = 4
$T230129 = -148						; size = 4
$T230053 = -97						; size = 1
$T230052 = -96						; size = 4
$T230047 = -92						; size = 4
$T230046 = -88						; size = 4
$T230045 = -81						; size = 1
_ui$225897 = -80					; size = 4
_eBuilding$225885 = -76					; size = 4
_buildingInfo$225887 = -72				; size = 4
_eBuildingType$225881 = -68				; size = 4
_kEval$225720 = -64					; size = 8
_eCourthouseType$ = -56					; size = 4
_uiCutOff$ = -52					; size = 4
_bCourthouseImprovement$ = -45				; size = 1
_pCity$ = -44						; size = 4
_pTargetCity$ = -40					; size = 4
_fCutoffValue$ = -36					; size = 4
_aCityAndProductions$ = -32				; size = 16
_iLoop$ = -16						; size = 4
__$EHRec$ = -12						; size = 12
?AI_considerAnnex@CvPlayerAI@@QAEXXZ PROC		; CvPlayerAI::AI_considerAnnex, COMDAT
; _this$ = ecx

; 554  : {

	push	ebp
	mov	ebp, esp
	push	-1
	push	__ehhandler$?AI_considerAnnex@CvPlayerAI@@QAEXXZ
	mov	eax, DWORD PTR fs:0
	push	eax
	sub	esp, 252				; 000000fcH
	mov	eax, DWORD PTR ___security_cookie
	xor	eax, ebp
	push	eax
	lea	eax, DWORD PTR __$EHRec$[ebp]
	mov	DWORD PTR fs:0, eax
	mov	DWORD PTR _this$[ebp], ecx

; 555  : #ifdef AUI_PERF_LOGGING_FORMATTING_TWEAKS
; 556  : 	AI_PERF_FORMAT("AI-perf.csv", ("AI_considerAnnex, Turn %03d, %s", GC.getGame().getGameTurn(), getCivilizationShortDescription()));
; 557  : #else
; 558  : 	AI_PERF("AI-perf.csv", "AI_ considerAnnex");
; 559  : #endif
; 560  : 
; 561  : 	// if the empire is unhappy, don't consider annexing
; 562  : 	if (IsEmpireUnhappy())

	mov	ecx, DWORD PTR _this$[ebp]
	call	?IsEmpireUnhappy@CvPlayer@@QBE_NXZ	; CvPlayer::IsEmpireUnhappy
	movzx	eax, al
	test	eax, eax
	je	SHORT $LN21@AI_conside

; 563  : 	{
; 564  : 		return;

	jmp	$LN22@AI_conside
$LN21@AI_conside:

; 565  : 	}
; 566  : 
; 567  : 	// if we're going for a culture victory, don't consider annexing
; 568  : 	if (GetDiplomacyAI()->IsGoingForCultureVictory())

	mov	ecx, DWORD PTR _this$[ebp]
	call	?GetDiplomacyAI@CvPlayer@@QBEPAVCvDiplomacyAI@@XZ ; CvPlayer::GetDiplomacyAI
	mov	ecx, eax
	call	?IsGoingForCultureVictory@CvDiplomacyAI@@QAE_NXZ ; CvDiplomacyAI::IsGoingForCultureVictory
	movzx	ecx, al
	test	ecx, ecx
	je	SHORT $LN20@AI_conside

; 569  : 	{
; 570  : 		return;

	jmp	$LN22@AI_conside
$LN20@AI_conside:

; 571  : 	}
; 572  : 
; 573  : 	// for Venice
; 574  : 	if (GetPlayerTraits()->IsNoAnnexing())

	mov	ecx, DWORD PTR _this$[ebp]
	call	?GetPlayerTraits@CvPlayer@@QBEPAVCvPlayerTraits@@XZ ; CvPlayer::GetPlayerTraits
	mov	DWORD PTR $T230052[ebp], eax
	mov	edx, DWORD PTR $T230052[ebp]
	mov	al, BYTE PTR [edx+351]
	mov	BYTE PTR $T230053[ebp], al
	movzx	ecx, BYTE PTR $T230053[ebp]
	test	ecx, ecx
	je	SHORT $LN19@AI_conside

; 575  : 	{
; 576  : 		return;

	jmp	$LN22@AI_conside
$LN19@AI_conside:

; 577  : 	}
; 578  : 
; 579  : 	// if their capital city is puppeted, annex it
; 580  : 	CvCity* pCity = getCapitalCity();

	mov	ecx, DWORD PTR _this$[ebp]
	call	?getCapitalCity@CvPlayer@@QAEPAVCvCity@@XZ ; CvPlayer::getCapitalCity
	mov	DWORD PTR _pCity$[ebp], eax

; 581  : 	if (pCity && pCity->IsPuppet())

	cmp	DWORD PTR _pCity$[ebp], 0
	je	SHORT $LN18@AI_conside
	mov	ecx, DWORD PTR _pCity$[ebp]
	call	?IsPuppet@CvCity@@QBE_NXZ		; CvCity::IsPuppet
	movzx	edx, al
	test	edx, edx
	je	SHORT $LN18@AI_conside

; 582  : 	{
; 583  : 		// we should only annex one city a turn, and sense this is one, we're done!
; 584  : 		pCity->DoAnnex();

	mov	ecx, DWORD PTR _pCity$[ebp]
	call	?DoAnnex@CvCity@@QAEXXZ			; CvCity::DoAnnex

; 585  : 		return;

	jmp	$LN22@AI_conside
$LN18@AI_conside:

; 586  : 	}
; 587  : 
; 588  : 	std::vector<CityAndProduction> aCityAndProductions;

	lea	ecx, DWORD PTR _aCityAndProductions$[ebp]
	call	??0?$vector@UCityAndProduction@@V?$allocator@UCityAndProduction@@@std@@@std@@QAE@XZ ; std::vector<CityAndProduction,std::allocator<CityAndProduction> >::vector<CityAndProduction,std::allocator<CityAndProduction> >
	mov	DWORD PTR __$EHRec$[ebp+8], 0

; 589  : 	int iLoop = 0;

	mov	DWORD PTR _iLoop$[ebp], 0

; 590  : 	pCity = NULL;

	mov	DWORD PTR _pCity$[ebp], 0

; 591  : 
; 592  : 	// Find first coastal city in same area as settler
; 593  : 	for(pCity = firstCity(&iLoop); pCity != NULL; pCity = nextCity(&iLoop))

	push	0
	lea	eax, DWORD PTR _iLoop$[ebp]
	push	eax
	mov	ecx, DWORD PTR _this$[ebp]
	call	?firstCity@CvPlayer@@QAEPAVCvCity@@PAH_N@Z ; CvPlayer::firstCity
	mov	DWORD PTR _pCity$[ebp], eax
	jmp	SHORT $LN17@AI_conside
$LN16@AI_conside:
	push	0
	lea	ecx, DWORD PTR _iLoop$[ebp]
	push	ecx
	mov	ecx, DWORD PTR _this$[ebp]
	call	?nextCity@CvPlayer@@QAEPAVCvCity@@PAH_N@Z ; CvPlayer::nextCity
	mov	DWORD PTR _pCity$[ebp], eax
$LN17@AI_conside:
	cmp	DWORD PTR _pCity$[ebp], 0
	je	SHORT $LN15@AI_conside

; 594  : 	{
; 595  : 		CityAndProduction kEval;
; 596  : 		kEval.pCity = pCity;

	mov	edx, DWORD PTR _pCity$[ebp]
	mov	DWORD PTR _kEval$225720[ebp], edx

; 597  : 		kEval.iProduction = pCity->getYieldRateTimes100(YIELD_PRODUCTION, false);

	push	0
	push	1
	mov	ecx, DWORD PTR _pCity$[ebp]
	call	?getYieldRateTimes100@CvCity@@QBEHW4YieldTypes@@_N@Z ; CvCity::getYieldRateTimes100
	mov	DWORD PTR _kEval$225720[ebp+4], eax

; 598  : 		aCityAndProductions.push_back(kEval);

	lea	eax, DWORD PTR _kEval$225720[ebp]
	push	eax
	lea	ecx, DWORD PTR _aCityAndProductions$[ebp]
	call	?push_back@?$vector@UCityAndProduction@@V?$allocator@UCityAndProduction@@@std@@@std@@QAEXABUCityAndProduction@@@Z ; std::vector<CityAndProduction,std::allocator<CityAndProduction> >::push_back

; 599  : 	}

	jmp	SHORT $LN16@AI_conside
$LN15@AI_conside:

; 600  : 	
; 601  : 	std::stable_sort(aCityAndProductions.begin(), aCityAndProductions.end(), CityAndProductionEval());

	xor	ecx, ecx
	mov	BYTE PTR $T230045[ebp], cl
	mov	edx, DWORD PTR _aCityAndProductions$[ebp+8]
	mov	DWORD PTR $T230129[ebp], edx
	mov	eax, DWORD PTR $T230129[ebp]
	mov	DWORD PTR $T230046[ebp], eax
	mov	ecx, DWORD PTR _aCityAndProductions$[ebp+4]
	mov	DWORD PTR $T230145[ebp], ecx
	mov	edx, DWORD PTR $T230145[ebp]
	mov	DWORD PTR $T230047[ebp], edx
	movzx	eax, BYTE PTR $T230045[ebp]
	push	eax
	mov	ecx, DWORD PTR $T230046[ebp]
	push	ecx
	mov	edx, DWORD PTR $T230047[ebp]
	push	edx
	call	??$stable_sort@V?$_Vector_iterator@UCityAndProduction@@V?$allocator@UCityAndProduction@@@std@@@std@@UCityAndProductionEval@@@std@@YAXV?$_Vector_iterator@UCityAndProduction@@V?$allocator@UCityAndProduction@@@std@@@0@0UCityAndProductionEval@@@Z ; std::stable_sort<std::_Vector_iterator<CityAndProduction,std::allocator<CityAndProduction> >,CityAndProductionEval>
	add	esp, 12					; 0000000cH

; 602  : 	
; 603  : 	CvCity* pTargetCity = NULL;

	mov	DWORD PTR _pTargetCity$[ebp], 0

; 604  : 	float fCutoffValue = GC.getNORMAL_ANNEX();

	movss	xmm0, DWORD PTR ?gGlobals@@3VCvGlobals@@A+8192
	movss	DWORD PTR _fCutoffValue$[ebp], xmm0

; 605  : 	BuildingClassTypes eCourthouseType = NO_BUILDINGCLASS;

	mov	DWORD PTR _eCourthouseType$[ebp], -1

; 606  : 	// find courthouse
; 607  : #ifdef AUI_WARNING_FIXES
; 608  : 	for (uint eBuildingType = 0; eBuildingType < GC.getNumBuildingInfos(); eBuildingType++)
; 609  : #else
; 610  : 	for(int eBuildingType = 0; eBuildingType < GC.getNumBuildingInfos(); eBuildingType++)

	mov	DWORD PTR _eBuildingType$225881[ebp], 0
	jmp	SHORT $LN14@AI_conside
$LN13@AI_conside:
	mov	eax, DWORD PTR _eBuildingType$225881[ebp]
	add	eax, 1
	mov	DWORD PTR _eBuildingType$225881[ebp], eax
$LN14@AI_conside:
	mov	ecx, OFFSET ?gGlobals@@3VCvGlobals@@A	; gGlobals
	call	?getNumBuildingInfos@CvGlobals@@QAEHXZ	; CvGlobals::getNumBuildingInfos
	cmp	DWORD PTR _eBuildingType$225881[ebp], eax
	jge	SHORT $LN12@AI_conside

; 611  : #endif
; 612  : 	{
; 613  : 		const BuildingTypes eBuilding = static_cast<BuildingTypes>(eBuildingType);

	mov	ecx, DWORD PTR _eBuildingType$225881[ebp]
	mov	DWORD PTR _eBuilding$225885[ebp], ecx

; 614  : 		CvBuildingEntry* buildingInfo = GC.getBuildingInfo(eBuilding);

	mov	edx, DWORD PTR _eBuilding$225885[ebp]
	push	edx
	mov	ecx, OFFSET ?gGlobals@@3VCvGlobals@@A	; gGlobals
	call	?getBuildingInfo@CvGlobals@@QAEPAVCvBuildingEntry@@W4BuildingTypes@@@Z ; CvGlobals::getBuildingInfo
	mov	DWORD PTR _buildingInfo$225887[ebp], eax

; 615  : 
; 616  : 		if(buildingInfo)

	cmp	DWORD PTR _buildingInfo$225887[ebp], 0
	je	SHORT $LN10@AI_conside

; 617  : 		{
; 618  : 			if (buildingInfo->IsNoOccupiedUnhappiness())

	mov	ecx, DWORD PTR _buildingInfo$225887[ebp]
	call	?IsNoOccupiedUnhappiness@CvBuildingEntry@@QBE_NXZ ; CvBuildingEntry::IsNoOccupiedUnhappiness
	movzx	eax, al
	test	eax, eax
	je	SHORT $LN10@AI_conside

; 619  : 			{
; 620  : 				eCourthouseType = (BuildingClassTypes)buildingInfo->GetBuildingClassType();

	mov	ecx, DWORD PTR _buildingInfo$225887[ebp]
	call	?GetBuildingClassType@CvBuildingEntry@@QBEHXZ ; CvBuildingEntry::GetBuildingClassType
	mov	DWORD PTR _eCourthouseType$[ebp], eax

; 621  : 				break;

	jmp	SHORT $LN12@AI_conside
$LN10@AI_conside:

; 622  : 			}
; 623  : 		}
; 624  : 	}

	jmp	SHORT $LN13@AI_conside
$LN12@AI_conside:

; 625  : 
; 626  : 	bool bCourthouseImprovement = false;

	mov	BYTE PTR _bCourthouseImprovement$[ebp], 0

; 627  : 	if (eCourthouseType != NO_BUILDINGCLASS)

	cmp	DWORD PTR _eCourthouseType$[ebp], -1
	je	SHORT $LN8@AI_conside

; 628  : 	{
; 629  : 		if (GetPlayerPolicies()->GetBuildingClassProductionModifier(eCourthouseType) > 0)

	mov	ecx, DWORD PTR _eCourthouseType$[ebp]
	push	ecx
	mov	ecx, DWORD PTR _this$[ebp]
	call	?GetPlayerPolicies@CvPlayer@@QBEPAVCvPlayerPolicies@@XZ ; CvPlayer::GetPlayerPolicies
	mov	ecx, eax
	call	?GetBuildingClassProductionModifier@CvPlayerPolicies@@QAEHW4BuildingClassTypes@@@Z ; CvPlayerPolicies::GetBuildingClassProductionModifier
	test	eax, eax
	jle	SHORT $LN8@AI_conside

; 630  : 		{
; 631  : 			bCourthouseImprovement = true;

	mov	BYTE PTR _bCourthouseImprovement$[ebp], 1
$LN8@AI_conside:

; 632  : 		}
; 633  : 	}
; 634  : 
; 635  : 	if (bCourthouseImprovement)

	movzx	edx, BYTE PTR _bCourthouseImprovement$[ebp]
	test	edx, edx
	je	SHORT $LN97@AI_conside

; 636  : 	{
; 637  : 		fCutoffValue = GC.getAGGRESIVE_ANNEX();

	movss	xmm0, DWORD PTR ?gGlobals@@3VCvGlobals@@A+8196
	movss	DWORD PTR _fCutoffValue$[ebp], xmm0
$LN97@AI_conside:

; 638  : 	}
; 639  : 
; 640  : 	uint uiCutOff = (uint)(aCityAndProductions.size() * fCutoffValue);

	mov	eax, DWORD PTR _aCityAndProductions$[ebp+8]
	sub	eax, DWORD PTR _aCityAndProductions$[ebp+4]
	sar	eax, 3
	mov	DWORD PTR tv407[ebp], eax
	mov	DWORD PTR tv407[ebp+4], 0
	fild	QWORD PTR tv407[ebp]
	fmul	DWORD PTR _fCutoffValue$[ebp]
	fnstcw	WORD PTR tv410[ebp]
	movzx	eax, WORD PTR tv410[ebp]
	or	eax, 3072				; 00000c00H
	mov	DWORD PTR tv413[ebp], eax
	fldcw	WORD PTR tv413[ebp]
	fistp	QWORD PTR tv415[ebp]
	fldcw	WORD PTR tv410[ebp]
	mov	ecx, DWORD PTR tv415[ebp]
	mov	DWORD PTR _uiCutOff$[ebp], ecx

; 641  : 	for (uint ui = 0; ui < uiCutOff; ui++)

	mov	DWORD PTR _ui$225897[ebp], 0
	jmp	SHORT $LN6@AI_conside
$LN5@AI_conside:
	mov	edx, DWORD PTR _ui$225897[ebp]
	add	edx, 1
	mov	DWORD PTR _ui$225897[ebp], edx
$LN6@AI_conside:
	mov	eax, DWORD PTR _ui$225897[ebp]
	cmp	eax, DWORD PTR _uiCutOff$[ebp]
	jae	SHORT $LN4@AI_conside

; 642  : 	{
; 643  : 		if (aCityAndProductions[ui].pCity->IsPuppet())

	mov	ecx, DWORD PTR _aCityAndProductions$[ebp+4]
	mov	edx, DWORD PTR _ui$225897[ebp]
	lea	eax, DWORD PTR [ecx+edx*8]
	mov	DWORD PTR $T230235[ebp], eax
	mov	ecx, DWORD PTR $T230235[ebp]
	mov	ecx, DWORD PTR [ecx]
	call	?IsPuppet@CvCity@@QBE_NXZ		; CvCity::IsPuppet
	movzx	edx, al
	test	edx, edx
	je	SHORT $LN3@AI_conside

; 644  : 		{
; 645  : 			pTargetCity = aCityAndProductions[ui].pCity;

	mov	eax, DWORD PTR _aCityAndProductions$[ebp+4]
	mov	ecx, DWORD PTR _ui$225897[ebp]
	mov	edx, DWORD PTR [eax+ecx*8]
	mov	DWORD PTR _pTargetCity$[ebp], edx

; 646  : 			break;

	jmp	SHORT $LN4@AI_conside
$LN3@AI_conside:

; 647  : 		}
; 648  : 	}

	jmp	SHORT $LN5@AI_conside
$LN4@AI_conside:

; 649  : 
; 650  : 	if (pTargetCity)

	cmp	DWORD PTR _pTargetCity$[ebp], 0
	je	SHORT $LN1@AI_conside

; 651  : 	{
; 652  : 		if (!pTargetCity->IsResistance())

	mov	ecx, DWORD PTR _pTargetCity$[ebp]
	call	?IsResistance@CvCity@@QBE_NXZ		; CvCity::IsResistance
	movzx	eax, al
	test	eax, eax
	jne	SHORT $LN1@AI_conside

; 653  : 		{
; 654  : 			pTargetCity->DoAnnex();

	mov	ecx, DWORD PTR _pTargetCity$[ebp]
	call	?DoAnnex@CvCity@@QAEXXZ			; CvCity::DoAnnex
$LN1@AI_conside:

; 655  : 		}
; 656  : 	}
; 657  : }

	mov	DWORD PTR __$EHRec$[ebp+8], 1
	lea	ecx, DWORD PTR _aCityAndProductions$[ebp]
	call	?_Tidy@?$vector@UCityAndProduction@@V?$allocator@UCityAndProduction@@@std@@@std@@IAEXXZ ; std::vector<CityAndProduction,std::allocator<CityAndProduction> >::_Tidy
	mov	DWORD PTR __$EHRec$[ebp+8], -1
$LN22@AI_conside:
	mov	ecx, DWORD PTR __$EHRec$[ebp]
	mov	DWORD PTR fs:0, ecx
	pop	ecx
	mov	esp, ebp
	pop	ebp
	ret	0
_TEXT	ENDS
;	COMDAT text$x
text$x	SEGMENT
__unwindfunclet$?AI_considerAnnex@CvPlayerAI@@QAEXXZ$0:
	lea	ecx, DWORD PTR _aCityAndProductions$[ebp]
	jmp	??1?$vector@UCityAndProduction@@V?$allocator@UCityAndProduction@@@std@@@std@@QAE@XZ ; std::vector<CityAndProduction,std::allocator<CityAndProduction> >::~vector<CityAndProduction,std::allocator<CityAndProduction> >
__unwindfunclet$?AI_considerAnnex@CvPlayerAI@@QAEXXZ$4:
	lea	ecx, DWORD PTR _aCityAndProductions$[ebp]
	jmp	??1?$_Vector_val@UCityAndProduction@@V?$allocator@UCityAndProduction@@@std@@@std@@QAE@XZ
__ehhandler$?AI_considerAnnex@CvPlayerAI@@QAEXXZ:
	mov	edx, DWORD PTR [esp+8]
	lea	eax, DWORD PTR [edx+12]
	mov	ecx, DWORD PTR [edx-256]
	xor	ecx, eax
	call	@__security_check_cookie@4
	mov	eax, OFFSET __ehfuncinfo$?AI_considerAnnex@CvPlayerAI@@QAEXXZ
	jmp	___CxxFrameHandler3
text$x	ENDS
?AI_considerAnnex@CvPlayerAI@@QAEXXZ ENDP		; CvPlayerAI::AI_considerAnnex
EXTRN	?GetMissionAIType@CvUnit@@QAE?AW4MissionAITypes@@XZ:PROC ; CvUnit::GetMissionAIType
EXTRN	?GetMissionAIPlot@CvUnit@@QAEPAVCvPlot@@XZ:PROC	; CvUnit::GetMissionAIPlot
; Function compile flags: /Odtp
;	COMDAT ?AI_plotTargetMissionAIs@CvPlayerAI@@UAEHPAVCvPlot@@W4MissionAITypes@@H@Z
_TEXT	SEGMENT
_this$ = -124						; size = 4
$T230348 = -40						; size = 4
$T230344 = -36						; size = 4
$T230340 = -32						; size = 4
$T230336 = -28						; size = 4
_pMissionPlot$225916 = -24				; size = 4
_iDistance$225920 = -20					; size = 4
_eGroupMissionAI$225918 = -16				; size = 4
_pLoopUnit$225912 = -12					; size = 4
_iCount$ = -8						; size = 4
_iLoop$ = -4						; size = 4
_pPlot$ = 8						; size = 4
_eMissionAI$ = 12					; size = 4
_iRange$ = 16						; size = 4
?AI_plotTargetMissionAIs@CvPlayerAI@@UAEHPAVCvPlot@@W4MissionAITypes@@H@Z PROC ; CvPlayerAI::AI_plotTargetMissionAIs, COMDAT
; _this$ = ecx

; 660  : {

	push	ebp
	mov	ebp, esp
	sub	esp, 124				; 0000007cH
	mov	DWORD PTR _this$[ebp], ecx

; 661  : 	int iCount = 0;

	mov	DWORD PTR _iCount$[ebp], 0

; 662  : 
; 663  : 	int iLoop;
; 664  : 	for(CvUnit* pLoopUnit = firstUnit(&iLoop); pLoopUnit; pLoopUnit = nextUnit(&iLoop))

	push	0
	lea	eax, DWORD PTR _iLoop$[ebp]
	push	eax
	mov	ecx, DWORD PTR _this$[ebp]
	call	?firstUnit@CvPlayer@@QAEPAVCvUnit@@PAH_N@Z ; CvPlayer::firstUnit
	mov	DWORD PTR _pLoopUnit$225912[ebp], eax
	jmp	SHORT $LN6@AI_plotTar
$LN5@AI_plotTar:
	push	0
	lea	ecx, DWORD PTR _iLoop$[ebp]
	push	ecx
	mov	ecx, DWORD PTR _this$[ebp]
	call	?nextUnit@CvPlayer@@QAEPAVCvUnit@@PAH_N@Z ; CvPlayer::nextUnit
	mov	DWORD PTR _pLoopUnit$225912[ebp], eax
$LN6@AI_plotTar:
	cmp	DWORD PTR _pLoopUnit$225912[ebp], 0
	je	SHORT $LN4@AI_plotTar

; 665  : 	{
; 666  : 		CvPlot* pMissionPlot = pLoopUnit->GetMissionAIPlot();

	mov	ecx, DWORD PTR _pLoopUnit$225912[ebp]
	call	?GetMissionAIPlot@CvUnit@@QAEPAVCvPlot@@XZ ; CvUnit::GetMissionAIPlot
	mov	DWORD PTR _pMissionPlot$225916[ebp], eax

; 667  : 		if(!pMissionPlot)

	cmp	DWORD PTR _pMissionPlot$225916[ebp], 0
	jne	SHORT $LN3@AI_plotTar

; 668  : 		{
; 669  : 			continue;

	jmp	SHORT $LN5@AI_plotTar
$LN3@AI_plotTar:

; 670  : 		}
; 671  : 
; 672  : 		MissionAITypes eGroupMissionAI = pLoopUnit->GetMissionAIType();

	mov	ecx, DWORD PTR _pLoopUnit$225912[ebp]
	call	?GetMissionAIType@CvUnit@@QAE?AW4MissionAITypes@@XZ ; CvUnit::GetMissionAIType
	mov	DWORD PTR _eGroupMissionAI$225918[ebp], eax

; 673  : 		if(eGroupMissionAI != eMissionAI)

	mov	edx, DWORD PTR _eGroupMissionAI$225918[ebp]
	cmp	edx, DWORD PTR _eMissionAI$[ebp]
	je	SHORT $LN2@AI_plotTar

; 674  : 		{
; 675  : 			continue;

	jmp	SHORT $LN5@AI_plotTar
$LN2@AI_plotTar:

; 676  : 		}
; 677  : 
; 678  : 		int iDistance = plotDistance(pPlot->getX(), pPlot->getY(), pMissionPlot->getX(), pMissionPlot->getY());

	mov	eax, DWORD PTR _pMissionPlot$225916[ebp]
	movsx	ecx, WORD PTR [eax+2]
	mov	DWORD PTR $T230336[ebp], ecx
	mov	edx, DWORD PTR _pMissionPlot$225916[ebp]
	movsx	eax, WORD PTR [edx]
	mov	DWORD PTR $T230340[ebp], eax
	mov	ecx, DWORD PTR _pPlot$[ebp]
	movsx	edx, WORD PTR [ecx+2]
	mov	DWORD PTR $T230344[ebp], edx
	mov	eax, DWORD PTR _pPlot$[ebp]
	movsx	ecx, WORD PTR [eax]
	mov	DWORD PTR $T230348[ebp], ecx
	mov	edx, DWORD PTR $T230336[ebp]
	push	edx
	mov	eax, DWORD PTR $T230340[ebp]
	push	eax
	mov	ecx, DWORD PTR $T230344[ebp]
	push	ecx
	mov	edx, DWORD PTR $T230348[ebp]
	push	edx
	call	?plotDistance@@YAHHHHH@Z		; plotDistance
	add	esp, 16					; 00000010H
	mov	DWORD PTR _iDistance$225920[ebp], eax

; 679  : 		if(iDistance == iRange)

	mov	eax, DWORD PTR _iDistance$225920[ebp]
	cmp	eax, DWORD PTR _iRange$[ebp]
	jne	SHORT $LN1@AI_plotTar

; 680  : 		{
; 681  : 			iCount++;

	mov	ecx, DWORD PTR _iCount$[ebp]
	add	ecx, 1
	mov	DWORD PTR _iCount$[ebp], ecx
$LN1@AI_plotTar:

; 682  : 		}
; 683  : 	}

	jmp	$LN5@AI_plotTar
$LN4@AI_plotTar:

; 684  : 
; 685  : 	return iCount;

	mov	eax, DWORD PTR _iCount$[ebp]

; 686  : }

	mov	esp, ebp
	pop	ebp
	ret	12					; 0000000cH
?AI_plotTargetMissionAIs@CvPlayerAI@@UAEHPAVCvPlot@@W4MissionAITypes@@H@Z ENDP ; CvPlayerAI::AI_plotTargetMissionAIs
; Function compile flags: /Odtp
_TEXT	ENDS
;	COMDAT ?AI_doResearch@CvPlayerAI@@IAEXXZ
_TEXT	SEGMENT
_this$ = -4						; size = 4
?AI_doResearch@CvPlayerAI@@IAEXXZ PROC			; CvPlayerAI::AI_doResearch, COMDAT
; _this$ = ecx

; 691  : {

	push	ebp
	mov	ebp, esp
	push	ecx
	mov	DWORD PTR _this$[ebp], ecx

; 692  : 	CvAssertMsg(!isHuman(), "isHuman did not return false as expected");
; 693  : 
; 694  : 	if(GetPlayerTechs()->GetCurrentResearch() == NO_TECH)

	mov	ecx, DWORD PTR _this$[ebp]
	call	?GetPlayerTechs@CvPlayer@@QBEPAVCvPlayerTechs@@XZ ; CvPlayer::GetPlayerTechs
	mov	ecx, eax
	call	?GetCurrentResearch@CvPlayerTechs@@QBE?AW4TechTypes@@XZ ; CvPlayerTechs::GetCurrentResearch
	cmp	eax, -1
	jne	SHORT $LN2@AI_doResea

; 695  : 	{
; 696  : 		AI_chooseResearch();

	mov	eax, DWORD PTR _this$[ebp]
	mov	edx, DWORD PTR [eax]
	mov	ecx, DWORD PTR _this$[ebp]
	mov	eax, DWORD PTR [edx+60]
	call	eax
$LN2@AI_doResea:

; 697  : 		//AI_forceUpdateStrategies(); //to account for current research.
; 698  : 	}
; 699  : }

	mov	esp, ebp
	pop	ebp
	ret	0
?AI_doResearch@CvPlayerAI@@IAEXXZ ENDP			; CvPlayerAI::AI_doResearch
_TEXT	ENDS
EXTRN	?Read@FDataStream@@IAEXAAI@Z:PROC		; FDataStream::Read
EXTRN	?Read@CvPlayer@@UAEXAAVFDataStream@@@Z:PROC	; CvPlayer::Read
; Function compile flags: /Odtp
;	COMDAT ?Read@CvPlayerAI@@UAEXAAVFDataStream@@@Z
_TEXT	SEGMENT
_this$ = -8						; size = 4
_uiVersion$ = -4					; size = 4
_kStream$ = 8						; size = 4
?Read@CvPlayerAI@@UAEXAAVFDataStream@@@Z PROC		; CvPlayerAI::Read, COMDAT
; _this$ = ecx

; 707  : {

	push	ebp
	mov	ebp, esp
	sub	esp, 8
	mov	DWORD PTR _this$[ebp], ecx

; 708  : 	CvPlayer::Read(kStream);	// read base class data first

	mov	eax, DWORD PTR _kStream$[ebp]
	push	eax
	mov	ecx, DWORD PTR _this$[ebp]
	call	?Read@CvPlayer@@UAEXAAVFDataStream@@@Z	; CvPlayer::Read

; 709  : 
; 710  : 	// Version number to maintain backwards compatibility
; 711  : 	uint uiVersion;
; 712  : 	kStream >> uiVersion;

	lea	ecx, DWORD PTR _uiVersion$[ebp]
	push	ecx
	mov	ecx, DWORD PTR _kStream$[ebp]
	call	?Read@FDataStream@@IAEXAAI@Z		; FDataStream::Read

; 713  : }

	mov	esp, ebp
	pop	ebp
	ret	4
?Read@CvPlayerAI@@UAEXAAVFDataStream@@@Z ENDP		; CvPlayerAI::Read
_TEXT	ENDS
EXTRN	?Write@FDataStream@@IAEXABI@Z:PROC		; FDataStream::Write
EXTRN	?Write@CvPlayer@@UBEXAAVFDataStream@@@Z:PROC	; CvPlayer::Write
; Function compile flags: /Odtp
;	COMDAT ?Write@CvPlayerAI@@UBEXAAVFDataStream@@@Z
_TEXT	SEGMENT
_this$ = -8						; size = 4
_uiVersion$ = -4					; size = 4
_kStream$ = 8						; size = 4
?Write@CvPlayerAI@@UBEXAAVFDataStream@@@Z PROC		; CvPlayerAI::Write, COMDAT
; _this$ = ecx

; 721  : {

	push	ebp
	mov	ebp, esp
	sub	esp, 8
	mov	DWORD PTR _this$[ebp], ecx

; 722  : 	CvPlayer::Write(kStream);	// write base class data first

	mov	eax, DWORD PTR _kStream$[ebp]
	push	eax
	mov	ecx, DWORD PTR _this$[ebp]
	call	?Write@CvPlayer@@UBEXAAVFDataStream@@@Z	; CvPlayer::Write

; 723  : 
; 724  : 	// Current version number
; 725  : 	uint uiVersion = 1;

	mov	DWORD PTR _uiVersion$[ebp], 1

; 726  : 	kStream << uiVersion;

	lea	ecx, DWORD PTR _uiVersion$[ebp]
	push	ecx
	mov	ecx, DWORD PTR _kStream$[ebp]
	call	?Write@FDataStream@@IAEXABI@Z		; FDataStream::Write

; 727  : }

	mov	esp, ebp
	pop	ebp
	ret	4
?Write@CvPlayerAI@@UBEXAAVFDataStream@@@Z ENDP		; CvPlayerAI::Write
_TEXT	ENDS
EXTRN	?launch@CvPlayer@@QAEXW4VictoryTypes@@@Z:PROC	; CvPlayer::launch
EXTRN	?canLaunch@CvTeam@@QBE_NW4VictoryTypes@@@Z:PROC	; CvTeam::canLaunch
EXTRN	?isHuman@CvTeam@@QBE_NXZ:PROC			; CvTeam::isHuman
; Function compile flags: /Odtp
;	COMDAT ?AI_launch@CvPlayerAI@@UAEXW4VictoryTypes@@@Z
_TEXT	SEGMENT
_this$ = -20						; size = 4
$T230473 = -16						; size = 4
$T230469 = -12						; size = 4
$T230460 = -8						; size = 4
$T230456 = -4						; size = 4
_eVictory$ = 8						; size = 4
?AI_launch@CvPlayerAI@@UAEXW4VictoryTypes@@@Z PROC	; CvPlayerAI::AI_launch, COMDAT
; _this$ = ecx

; 730  : {

	push	ebp
	mov	ebp, esp
	sub	esp, 20					; 00000014H
	mov	DWORD PTR _this$[ebp], ecx

; 731  : 	if(GET_TEAM(getTeam()).isHuman())

	mov	eax, DWORD PTR _this$[ebp]
	mov	ecx, DWORD PTR [eax+44]
	push	ecx
	call	?teamType@CvPreGame@@YA?AW4TeamTypes@@W4PlayerTypes@@@Z ; CvPreGame::teamType
	add	esp, 4
	mov	DWORD PTR $T230456[ebp], eax
	mov	edx, DWORD PTR $T230456[ebp]
	imul	edx, 2984				; 00000ba8H
	add	edx, DWORD PTR ?m_aTeams@CvTeam@@1PAV1@A ; CvTeam::m_aTeams
	mov	DWORD PTR $T230460[ebp], edx
	mov	ecx, DWORD PTR $T230460[ebp]
	call	?isHuman@CvTeam@@QBE_NXZ		; CvTeam::isHuman
	movzx	eax, al
	test	eax, eax
	je	SHORT $LN13@AI_launch

; 732  : 	{
; 733  : 		return;

	jmp	SHORT $LN3@AI_launch

; 734  : 	}
; 735  : 
; 736  : 	if(!GET_TEAM(getTeam()).canLaunch(eVictory))

$LN13@AI_launch:
	mov	ecx, DWORD PTR _this$[ebp]
	mov	edx, DWORD PTR [ecx+44]
	push	edx
	call	?teamType@CvPreGame@@YA?AW4TeamTypes@@W4PlayerTypes@@@Z ; CvPreGame::teamType
	add	esp, 4
	mov	DWORD PTR $T230469[ebp], eax
	mov	eax, DWORD PTR $T230469[ebp]
	imul	eax, 2984				; 00000ba8H
	add	eax, DWORD PTR ?m_aTeams@CvTeam@@1PAV1@A ; CvTeam::m_aTeams
	mov	DWORD PTR $T230473[ebp], eax
	mov	ecx, DWORD PTR _eVictory$[ebp]
	push	ecx
	mov	ecx, DWORD PTR $T230473[ebp]
	call	?canLaunch@CvTeam@@QBE_NW4VictoryTypes@@@Z ; CvTeam::canLaunch
	movzx	edx, al
	test	edx, edx
	jne	SHORT $LN1@AI_launch

; 737  : 	{
; 738  : 		return;

	jmp	SHORT $LN3@AI_launch
$LN1@AI_launch:

; 739  : 	}
; 740  : 
; 741  : 	launch(eVictory);

	mov	eax, DWORD PTR _eVictory$[ebp]
	push	eax
	mov	ecx, DWORD PTR _this$[ebp]
	call	?launch@CvPlayer@@QAEXW4VictoryTypes@@@Z ; CvPlayer::launch
$LN3@AI_launch:

; 742  : }

	mov	esp, ebp
	pop	ebp
	ret	4
?AI_launch@CvPlayerAI@@UAEXW4VictoryTypes@@@Z ENDP	; CvPlayerAI::AI_launch
_TEXT	ENDS
PUBLIC	?_Inc@const_iterator@?$_Tree@V?$_Tmap_traits@HPAVCvAIOperation@@U?$less@H@std@@V?$allocator@U?$pair@$$CBHPAVCvAIOperation@@@std@@@3@$0A@@std@@@std@@QAEXXZ ; std::_Tree<std::_Tmap_traits<int,CvAIOperation *,std::less<int>,std::allocator<std::pair<int const ,CvAIOperation *> >,0> >::const_iterator::_Inc
; Function compile flags: /Odtp
;	COMDAT ?PeekAtNextUnitToBuildForOperationSlot@CvPlayerAI@@UAE?AUOperationSlot@@H@Z
_TEXT	SEGMENT
tv193 = -76						; size = 4
_this$ = -72						; size = 4
$T230581 = -68						; size = 4
$T230508 = -48						; size = 4
$T230495 = -44						; size = 4
$T230478 = -40						; size = 12
$T230477 = -28						; size = 4
$T230476 = -24						; size = 4
_pThisOperation$225967 = -20				; size = 4
_thisSlot$ = -16					; size = 12
_iter$ = -4						; size = 4
___$ReturnUdt$ = 8					; size = 4
_iAreaID$ = 12						; size = 4
?PeekAtNextUnitToBuildForOperationSlot@CvPlayerAI@@UAE?AUOperationSlot@@H@Z PROC ; CvPlayerAI::PeekAtNextUnitToBuildForOperationSlot, COMDAT
; _this$ = ecx

; 745  : {

	push	ebp
	mov	ebp, esp
	sub	esp, 76					; 0000004cH
	mov	DWORD PTR _this$[ebp], ecx

; 746  : 	OperationSlot thisSlot;

	mov	DWORD PTR _thisSlot$[ebp], -1
	mov	DWORD PTR _thisSlot$[ebp+4], -1
	mov	DWORD PTR _thisSlot$[ebp+8], -1

; 747  : 
; 748  : 	// search through our operations till we find one that needs a unit
; 749  : 	std::map<int, CvAIOperation*>::iterator iter;

	mov	DWORD PTR _iter$[ebp], 0

; 750  : 	for(iter = m_AIOperations.begin(); iter != m_AIOperations.end(); ++iter)

	mov	eax, DWORD PTR _this$[ebp]
	mov	ecx, DWORD PTR [eax+4532]
	mov	DWORD PTR $T230495[ebp], ecx
	mov	edx, DWORD PTR $T230495[ebp]
	mov	eax, DWORD PTR [edx]
	mov	DWORD PTR $T230508[ebp], eax
	mov	ecx, DWORD PTR $T230508[ebp]
	mov	DWORD PTR $T230476[ebp], ecx
	mov	edx, DWORD PTR $T230476[ebp]
	mov	DWORD PTR _iter$[ebp], edx
	jmp	SHORT $LN5@PeekAtNext
$LN4@PeekAtNext:
	lea	ecx, DWORD PTR _iter$[ebp]
	call	?_Inc@const_iterator@?$_Tree@V?$_Tmap_traits@HPAVCvAIOperation@@U?$less@H@std@@V?$allocator@U?$pair@$$CBHPAVCvAIOperation@@@std@@@3@$0A@@std@@@std@@QAEXXZ ; std::_Tree<std::_Tmap_traits<int,CvAIOperation *,std::less<int>,std::allocator<std::pair<int const ,CvAIOperation *> >,0> >::const_iterator::_Inc
$LN5@PeekAtNext:
	mov	eax, DWORD PTR _this$[ebp]
	mov	ecx, DWORD PTR [eax+4532]
	mov	DWORD PTR $T230581[ebp], ecx
	mov	edx, DWORD PTR $T230581[ebp]
	mov	DWORD PTR $T230477[ebp], edx
	mov	eax, DWORD PTR _iter$[ebp]
	xor	ecx, ecx
	cmp	eax, DWORD PTR $T230477[ebp]
	sete	cl
	movzx	edx, cl
	neg	edx
	sbb	edx, edx
	add	edx, 1
	movzx	eax, dl
	test	eax, eax
	je	SHORT $LN3@PeekAtNext

; 751  : 	{
; 752  : 		CvAIOperation* pThisOperation = iter->second;

	mov	ecx, DWORD PTR _iter$[ebp]
	mov	edx, DWORD PTR [ecx+16]
	mov	DWORD PTR _pThisOperation$225967[ebp], edx

; 753  : 		if(pThisOperation)

	cmp	DWORD PTR _pThisOperation$225967[ebp], 0
	je	SHORT $LN2@PeekAtNext

; 754  : 		{
; 755  : 			thisSlot = pThisOperation->PeekAtNextUnitToBuild(iAreaID);

	mov	eax, DWORD PTR _iAreaID$[ebp]
	push	eax
	lea	ecx, DWORD PTR $T230478[ebp]
	push	ecx
	mov	edx, DWORD PTR _pThisOperation$225967[ebp]
	mov	eax, DWORD PTR [edx]
	mov	ecx, DWORD PTR _pThisOperation$225967[ebp]
	mov	edx, DWORD PTR [eax+96]
	call	edx
	mov	ecx, DWORD PTR [eax]
	mov	DWORD PTR _thisSlot$[ebp], ecx
	mov	edx, DWORD PTR [eax+4]
	mov	DWORD PTR _thisSlot$[ebp+4], edx
	mov	eax, DWORD PTR [eax+8]
	mov	DWORD PTR _thisSlot$[ebp+8], eax

; 756  : 			if(thisSlot.IsValid())

	cmp	DWORD PTR _thisSlot$[ebp+4], -1
	je	SHORT $LN80@PeekAtNext
	cmp	DWORD PTR _thisSlot$[ebp+8], -1
	je	SHORT $LN80@PeekAtNext
	cmp	DWORD PTR _thisSlot$[ebp], -1
	je	SHORT $LN80@PeekAtNext
	mov	DWORD PTR tv193[ebp], 1
	jmp	SHORT $LN78@PeekAtNext
$LN80@PeekAtNext:
	mov	DWORD PTR tv193[ebp], 0
$LN78@PeekAtNext:
	movzx	ecx, BYTE PTR tv193[ebp]
	test	ecx, ecx
	je	SHORT $LN2@PeekAtNext

; 757  : 			{
; 758  : 				break;

	jmp	SHORT $LN3@PeekAtNext
$LN2@PeekAtNext:

; 759  : 			}
; 760  : 		}
; 761  : 	}

	jmp	$LN4@PeekAtNext
$LN3@PeekAtNext:

; 762  : 
; 763  : 	return thisSlot;

	mov	edx, DWORD PTR ___$ReturnUdt$[ebp]
	mov	eax, DWORD PTR _thisSlot$[ebp]
	mov	DWORD PTR [edx], eax
	mov	ecx, DWORD PTR _thisSlot$[ebp+4]
	mov	DWORD PTR [edx+4], ecx
	mov	eax, DWORD PTR _thisSlot$[ebp+8]
	mov	DWORD PTR [edx+8], eax
	mov	eax, DWORD PTR ___$ReturnUdt$[ebp]

; 764  : }

	mov	esp, ebp
	pop	ebp
	ret	8
?PeekAtNextUnitToBuildForOperationSlot@CvPlayerAI@@UAE?AUOperationSlot@@H@Z ENDP ; CvPlayerAI::PeekAtNextUnitToBuildForOperationSlot
; Function compile flags: /Odtp
_TEXT	ENDS
;	COMDAT ?CityCommitToBuildUnitForOperationSlot@CvPlayerAI@@UAE?AUOperationSlot@@HHPAVCvCity@@@Z
_TEXT	SEGMENT
tv195 = -76						; size = 4
_this$ = -72						; size = 4
$T230734 = -68						; size = 4
$T230661 = -48						; size = 4
$T230648 = -44						; size = 4
$T230631 = -40						; size = 12
$T230630 = -28						; size = 4
$T230629 = -24						; size = 4
_pThisOperation$226022 = -20				; size = 4
_thisSlot$ = -16					; size = 12
_iter$ = -4						; size = 4
___$ReturnUdt$ = 8					; size = 4
_iAreaID$ = 12						; size = 4
_iTurns$ = 16						; size = 4
_pCity$ = 20						; size = 4
?CityCommitToBuildUnitForOperationSlot@CvPlayerAI@@UAE?AUOperationSlot@@HHPAVCvCity@@@Z PROC ; CvPlayerAI::CityCommitToBuildUnitForOperationSlot, COMDAT
; _this$ = ecx

; 768  : {

	push	ebp
	mov	ebp, esp
	sub	esp, 76					; 0000004cH
	mov	DWORD PTR _this$[ebp], ecx

; 769  : 	OperationSlot thisSlot;

	mov	DWORD PTR _thisSlot$[ebp], -1
	mov	DWORD PTR _thisSlot$[ebp+4], -1
	mov	DWORD PTR _thisSlot$[ebp+8], -1

; 770  : 
; 771  : 	// search through our operations till we find one that needs a unit
; 772  : 	std::map<int, CvAIOperation*>::iterator iter;

	mov	DWORD PTR _iter$[ebp], 0

; 773  : 	for(iter = m_AIOperations.begin(); iter != m_AIOperations.end(); ++iter)

	mov	eax, DWORD PTR _this$[ebp]
	mov	ecx, DWORD PTR [eax+4532]
	mov	DWORD PTR $T230648[ebp], ecx
	mov	edx, DWORD PTR $T230648[ebp]
	mov	eax, DWORD PTR [edx]
	mov	DWORD PTR $T230661[ebp], eax
	mov	ecx, DWORD PTR $T230661[ebp]
	mov	DWORD PTR $T230629[ebp], ecx
	mov	edx, DWORD PTR $T230629[ebp]
	mov	DWORD PTR _iter$[ebp], edx
	jmp	SHORT $LN5@CityCommit
$LN4@CityCommit:
	lea	ecx, DWORD PTR _iter$[ebp]
	call	?_Inc@const_iterator@?$_Tree@V?$_Tmap_traits@HPAVCvAIOperation@@U?$less@H@std@@V?$allocator@U?$pair@$$CBHPAVCvAIOperation@@@std@@@3@$0A@@std@@@std@@QAEXXZ ; std::_Tree<std::_Tmap_traits<int,CvAIOperation *,std::less<int>,std::allocator<std::pair<int const ,CvAIOperation *> >,0> >::const_iterator::_Inc
$LN5@CityCommit:
	mov	eax, DWORD PTR _this$[ebp]
	mov	ecx, DWORD PTR [eax+4532]
	mov	DWORD PTR $T230734[ebp], ecx
	mov	edx, DWORD PTR $T230734[ebp]
	mov	DWORD PTR $T230630[ebp], edx
	mov	eax, DWORD PTR _iter$[ebp]
	xor	ecx, ecx
	cmp	eax, DWORD PTR $T230630[ebp]
	sete	cl
	movzx	edx, cl
	neg	edx
	sbb	edx, edx
	add	edx, 1
	movzx	eax, dl
	test	eax, eax
	je	SHORT $LN3@CityCommit

; 774  : 	{
; 775  : 		CvAIOperation* pThisOperation = iter->second;

	mov	ecx, DWORD PTR _iter$[ebp]
	mov	edx, DWORD PTR [ecx+16]
	mov	DWORD PTR _pThisOperation$226022[ebp], edx

; 776  : 		if(pThisOperation)

	cmp	DWORD PTR _pThisOperation$226022[ebp], 0
	je	SHORT $LN2@CityCommit

; 777  : 		{
; 778  : 			thisSlot = pThisOperation->CommitToBuildNextUnit(iAreaID, iTurns, pCity);

	mov	eax, DWORD PTR _pCity$[ebp]
	push	eax
	mov	ecx, DWORD PTR _iTurns$[ebp]
	push	ecx
	mov	edx, DWORD PTR _iAreaID$[ebp]
	push	edx
	lea	eax, DWORD PTR $T230631[ebp]
	push	eax
	mov	ecx, DWORD PTR _pThisOperation$226022[ebp]
	mov	edx, DWORD PTR [ecx]
	mov	ecx, DWORD PTR _pThisOperation$226022[ebp]
	mov	eax, DWORD PTR [edx+100]
	call	eax
	mov	ecx, DWORD PTR [eax]
	mov	DWORD PTR _thisSlot$[ebp], ecx
	mov	edx, DWORD PTR [eax+4]
	mov	DWORD PTR _thisSlot$[ebp+4], edx
	mov	eax, DWORD PTR [eax+8]
	mov	DWORD PTR _thisSlot$[ebp+8], eax

; 779  : 			if(thisSlot.IsValid())

	cmp	DWORD PTR _thisSlot$[ebp+4], -1
	je	SHORT $LN80@CityCommit
	cmp	DWORD PTR _thisSlot$[ebp+8], -1
	je	SHORT $LN80@CityCommit
	cmp	DWORD PTR _thisSlot$[ebp], -1
	je	SHORT $LN80@CityCommit
	mov	DWORD PTR tv195[ebp], 1
	jmp	SHORT $LN78@CityCommit
$LN80@CityCommit:
	mov	DWORD PTR tv195[ebp], 0
$LN78@CityCommit:
	movzx	ecx, BYTE PTR tv195[ebp]
	test	ecx, ecx
	je	SHORT $LN2@CityCommit

; 780  : 			{
; 781  : 				break;

	jmp	SHORT $LN3@CityCommit
$LN2@CityCommit:

; 782  : 			}
; 783  : 		}
; 784  : 	}

	jmp	$LN4@CityCommit
$LN3@CityCommit:

; 785  : 
; 786  : 	return thisSlot;

	mov	edx, DWORD PTR ___$ReturnUdt$[ebp]
	mov	eax, DWORD PTR _thisSlot$[ebp]
	mov	DWORD PTR [edx], eax
	mov	ecx, DWORD PTR _thisSlot$[ebp+4]
	mov	DWORD PTR [edx+4], ecx
	mov	eax, DWORD PTR _thisSlot$[ebp+8]
	mov	DWORD PTR [edx+8], eax
	mov	eax, DWORD PTR ___$ReturnUdt$[ebp]

; 787  : }

	mov	esp, ebp
	pop	ebp
	ret	16					; 00000010H
?CityCommitToBuildUnitForOperationSlot@CvPlayerAI@@UAE?AUOperationSlot@@HHPAVCvCity@@@Z ENDP ; CvPlayerAI::CityCommitToBuildUnitForOperationSlot
_TEXT	ENDS
EXTRN	?getAIOperation@CvPlayer@@QAEPAVCvAIOperation@@H@Z:PROC ; CvPlayer::getAIOperation
; Function compile flags: /Odtp
;	COMDAT ?CityUncommitToBuildUnitForOperationSlot@CvPlayerAI@@UAEXUOperationSlot@@@Z
_TEXT	SEGMENT
_this$ = -8						; size = 4
_pThisOperation$ = -4					; size = 4
_thisSlot$ = 8						; size = 12
?CityUncommitToBuildUnitForOperationSlot@CvPlayerAI@@UAEXUOperationSlot@@@Z PROC ; CvPlayerAI::CityUncommitToBuildUnitForOperationSlot, COMDAT
; _this$ = ecx

; 794  : {

	push	ebp
	mov	ebp, esp
	sub	esp, 8
	mov	DWORD PTR _this$[ebp], ecx

; 795  : 	// find this operation
; 796  : 	CvAIOperation* pThisOperation = getAIOperation(thisSlot.m_iOperationID);

	mov	eax, DWORD PTR _thisSlot$[ebp]
	push	eax
	mov	ecx, DWORD PTR _this$[ebp]
	call	?getAIOperation@CvPlayer@@QAEPAVCvAIOperation@@H@Z ; CvPlayer::getAIOperation
	mov	DWORD PTR _pThisOperation$[ebp], eax

; 797  : 	if(pThisOperation)

	cmp	DWORD PTR _pThisOperation$[ebp], 0
	je	SHORT $LN2@CityUncomm

; 798  : 	{
; 799  : 		pThisOperation->UncommitToBuild(thisSlot);

	sub	esp, 12					; 0000000cH
	mov	ecx, esp
	mov	edx, DWORD PTR _thisSlot$[ebp]
	mov	DWORD PTR [ecx], edx
	mov	eax, DWORD PTR _thisSlot$[ebp+4]
	mov	DWORD PTR [ecx+4], eax
	mov	edx, DWORD PTR _thisSlot$[ebp+8]
	mov	DWORD PTR [ecx+8], edx
	mov	eax, DWORD PTR _pThisOperation$[ebp]
	mov	edx, DWORD PTR [eax]
	mov	ecx, DWORD PTR _pThisOperation$[ebp]
	mov	eax, DWORD PTR [edx+104]
	call	eax
$LN2@CityUncomm:

; 800  : 	}
; 801  : }

	mov	esp, ebp
	pop	ebp
	ret	12					; 0000000cH
?CityUncommitToBuildUnitForOperationSlot@CvPlayerAI@@UAEXUOperationSlot@@@Z ENDP ; CvPlayerAI::CityUncommitToBuildUnitForOperationSlot
_TEXT	ENDS
EXTRN	?AddUnit@CvArmyAI@@QAEXHH@Z:PROC		; CvArmyAI::AddUnit
EXTRN	?getArmyAI@CvPlayer@@QAEPAVCvArmyAI@@H@Z:PROC	; CvPlayer::getArmyAI
; Function compile flags: /Odtp
;	COMDAT ?CityFinishedBuildingUnitForOperationSlot@CvPlayerAI@@UAEXUOperationSlot@@PAVCvUnit@@@Z
_TEXT	SEGMENT
_this$ = -16						; size = 4
$T230792 = -12						; size = 4
_pThisOperation$ = -8					; size = 4
_pThisArmy$ = -4					; size = 4
_thisSlot$ = 8						; size = 12
_pThisUnit$ = 20					; size = 4
?CityFinishedBuildingUnitForOperationSlot@CvPlayerAI@@UAEXUOperationSlot@@PAVCvUnit@@@Z PROC ; CvPlayerAI::CityFinishedBuildingUnitForOperationSlot, COMDAT
; _this$ = ecx

; 808  : {

	push	ebp
	mov	ebp, esp
	sub	esp, 16					; 00000010H
	mov	DWORD PTR _this$[ebp], ecx

; 809  : 	// find this operation
; 810  : 	CvAIOperation* pThisOperation = getAIOperation(thisSlot.m_iOperationID);

	mov	eax, DWORD PTR _thisSlot$[ebp]
	push	eax
	mov	ecx, DWORD PTR _this$[ebp]
	call	?getAIOperation@CvPlayer@@QAEPAVCvAIOperation@@H@Z ; CvPlayer::getAIOperation
	mov	DWORD PTR _pThisOperation$[ebp], eax

; 811  : 	CvArmyAI* pThisArmy = getArmyAI(thisSlot.m_iArmyID);

	mov	ecx, DWORD PTR _thisSlot$[ebp+4]
	push	ecx
	mov	ecx, DWORD PTR _this$[ebp]
	call	?getArmyAI@CvPlayer@@QAEPAVCvArmyAI@@H@Z ; CvPlayer::getArmyAI
	mov	DWORD PTR _pThisArmy$[ebp], eax

; 812  : 	if(pThisOperation && pThisArmy && pThisUnit)

	cmp	DWORD PTR _pThisOperation$[ebp], 0
	je	SHORT $LN2@CityFinish
	cmp	DWORD PTR _pThisArmy$[ebp], 0
	je	SHORT $LN2@CityFinish
	cmp	DWORD PTR _pThisUnit$[ebp], 0
	je	SHORT $LN2@CityFinish

; 813  : 	{
; 814  : 		pThisArmy->AddUnit(pThisUnit->GetID(), thisSlot.m_iSlotID);

	mov	edx, DWORD PTR _pThisUnit$[ebp]
	mov	eax, DWORD PTR [edx+100]
	mov	DWORD PTR $T230792[ebp], eax
	mov	ecx, DWORD PTR _thisSlot$[ebp+8]
	push	ecx
	mov	edx, DWORD PTR $T230792[ebp]
	push	edx
	mov	ecx, DWORD PTR _pThisArmy$[ebp]
	call	?AddUnit@CvArmyAI@@QAEXHH@Z		; CvArmyAI::AddUnit

; 815  : 		pThisOperation->FinishedBuilding(thisSlot);

	sub	esp, 12					; 0000000cH
	mov	eax, esp
	mov	ecx, DWORD PTR _thisSlot$[ebp]
	mov	DWORD PTR [eax], ecx
	mov	edx, DWORD PTR _thisSlot$[ebp+4]
	mov	DWORD PTR [eax+4], edx
	mov	ecx, DWORD PTR _thisSlot$[ebp+8]
	mov	DWORD PTR [eax+8], ecx
	mov	edx, DWORD PTR _pThisOperation$[ebp]
	mov	eax, DWORD PTR [edx]
	mov	ecx, DWORD PTR _pThisOperation$[ebp]
	mov	edx, DWORD PTR [eax+108]
	call	edx
$LN2@CityFinish:

; 816  : 	}
; 817  : }

	mov	esp, ebp
	pop	ebp
	ret	16					; 00000010H
?CityFinishedBuildingUnitForOperationSlot@CvPlayerAI@@UAEXUOperationSlot@@PAVCvUnit@@@Z ENDP ; CvPlayerAI::CityFinishedBuildingUnitForOperationSlot
; Function compile flags: /Odtp
_TEXT	ENDS
;	COMDAT ?GetNumUnitsNeededToBeBuilt@CvPlayerAI@@UAEHXZ
_TEXT	SEGMENT
_this$ = -56						; size = 4
$T230939 = -52						; size = 4
$T230896 = -48						; size = 4
$T230823 = -28						; size = 4
$T230810 = -24						; size = 4
$T230796 = -20						; size = 4
$T230795 = -16						; size = 4
_pThisOperation$226063 = -12				; size = 4
_iRtnValue$ = -8					; size = 4
_iter$ = -4						; size = 4
?GetNumUnitsNeededToBeBuilt@CvPlayerAI@@UAEHXZ PROC	; CvPlayerAI::GetNumUnitsNeededToBeBuilt, COMDAT
; _this$ = ecx

; 820  : {

	push	ebp
	mov	ebp, esp
	sub	esp, 56					; 00000038H
	mov	DWORD PTR _this$[ebp], ecx

; 821  : 	int iRtnValue = 0;

	mov	DWORD PTR _iRtnValue$[ebp], 0

; 822  : 
; 823  : 	std::map<int, CvAIOperation*>::iterator iter;

	mov	DWORD PTR _iter$[ebp], 0

; 824  : 	for(iter = m_AIOperations.begin(); iter != m_AIOperations.end(); ++iter)

	mov	eax, DWORD PTR _this$[ebp]
	mov	ecx, DWORD PTR [eax+4532]
	mov	DWORD PTR $T230810[ebp], ecx
	mov	edx, DWORD PTR $T230810[ebp]
	mov	eax, DWORD PTR [edx]
	mov	DWORD PTR $T230823[ebp], eax
	mov	ecx, DWORD PTR $T230823[ebp]
	mov	DWORD PTR $T230795[ebp], ecx
	mov	edx, DWORD PTR $T230795[ebp]
	mov	DWORD PTR _iter$[ebp], edx
	jmp	SHORT $LN4@GetNumUnit
$LN3@GetNumUnit:
	lea	ecx, DWORD PTR _iter$[ebp]
	call	?_Inc@const_iterator@?$_Tree@V?$_Tmap_traits@HPAVCvAIOperation@@U?$less@H@std@@V?$allocator@U?$pair@$$CBHPAVCvAIOperation@@@std@@@3@$0A@@std@@@std@@QAEXXZ ; std::_Tree<std::_Tmap_traits<int,CvAIOperation *,std::less<int>,std::allocator<std::pair<int const ,CvAIOperation *> >,0> >::const_iterator::_Inc
$LN4@GetNumUnit:
	mov	eax, DWORD PTR _this$[ebp]
	mov	ecx, DWORD PTR [eax+4532]
	mov	DWORD PTR $T230896[ebp], ecx
	mov	edx, DWORD PTR $T230896[ebp]
	mov	DWORD PTR $T230796[ebp], edx
	mov	eax, DWORD PTR _iter$[ebp]
	xor	ecx, ecx
	cmp	eax, DWORD PTR $T230796[ebp]
	sete	cl
	movzx	edx, cl
	neg	edx
	sbb	edx, edx
	add	edx, 1
	movzx	eax, dl
	test	eax, eax
	je	SHORT $LN2@GetNumUnit

; 825  : 	{
; 826  : 		CvAIOperation* pThisOperation = iter->second;

	mov	ecx, DWORD PTR _iter$[ebp]
	mov	edx, DWORD PTR [ecx+16]
	mov	DWORD PTR _pThisOperation$226063[ebp], edx

; 827  : 		if(pThisOperation)

	cmp	DWORD PTR _pThisOperation$226063[ebp], 0
	je	SHORT $LN1@GetNumUnit

; 828  : 		{
; 829  : 			iRtnValue += pThisOperation->GetNumUnitsNeededToBeBuilt();

	mov	eax, DWORD PTR _pThisOperation$226063[ebp]
	add	eax, 20					; 00000014H
	mov	DWORD PTR $T230939[ebp], eax
	mov	ecx, DWORD PTR $T230939[ebp]
	mov	edx, DWORD PTR $T230939[ebp]
	mov	eax, DWORD PTR [ecx+8]
	sub	eax, DWORD PTR [edx+4]
	cdq
	mov	ecx, 12					; 0000000cH
	idiv	ecx
	add	eax, DWORD PTR _iRtnValue$[ebp]
	mov	DWORD PTR _iRtnValue$[ebp], eax
$LN1@GetNumUnit:

; 830  : 		}
; 831  : 	}

	jmp	SHORT $LN3@GetNumUnit
$LN2@GetNumUnit:

; 832  : 
; 833  : 	return iRtnValue;

	mov	eax, DWORD PTR _iRtnValue$[ebp]

; 834  : }

	mov	esp, ebp
	pop	ebp
	ret	0
?GetNumUnitsNeededToBeBuilt@CvPlayerAI@@UAEHXZ ENDP	; CvPlayerAI::GetNumUnitsNeededToBeBuilt
_TEXT	ENDS
PUBLIC	?GetDirectiveAdmiral@CvPlayerAI@@QAE?AW4GreatPeopleDirectiveTypes@@PAVCvUnit@@@Z ; CvPlayerAI::GetDirectiveAdmiral
PUBLIC	?GetDirectiveProphet@CvPlayerAI@@QAE?AW4GreatPeopleDirectiveTypes@@PAVCvUnit@@@Z ; CvPlayerAI::GetDirectiveProphet
PUBLIC	?GetDirectiveGeneral@CvPlayerAI@@QAE?AW4GreatPeopleDirectiveTypes@@PAVCvUnit@@@Z ; CvPlayerAI::GetDirectiveGeneral
PUBLIC	?GetDirectiveScientist@CvPlayerAI@@QAE?AW4GreatPeopleDirectiveTypes@@PAVCvUnit@@@Z ; CvPlayerAI::GetDirectiveScientist
PUBLIC	?GetDirectiveMerchant@CvPlayerAI@@QAE?AW4GreatPeopleDirectiveTypes@@PAVCvUnit@@@Z ; CvPlayerAI::GetDirectiveMerchant
PUBLIC	?GetDirectiveEngineer@CvPlayerAI@@QAE?AW4GreatPeopleDirectiveTypes@@PAVCvUnit@@@Z ; CvPlayerAI::GetDirectiveEngineer
PUBLIC	?GetDirectiveMusician@CvPlayerAI@@QAE?AW4GreatPeopleDirectiveTypes@@PAVCvUnit@@@Z ; CvPlayerAI::GetDirectiveMusician
PUBLIC	?GetDirectiveArtist@CvPlayerAI@@QAE?AW4GreatPeopleDirectiveTypes@@PAVCvUnit@@@Z ; CvPlayerAI::GetDirectiveArtist
PUBLIC	?GetDirectiveWriter@CvPlayerAI@@QAE?AW4GreatPeopleDirectiveTypes@@PAVCvUnit@@@Z ; CvPlayerAI::GetDirectiveWriter
PUBLIC	??_C@_0BD@NNACGNOP@SPECIALUNIT_PEOPLE?$AA@	; `string'
EXTRN	?SetGreatPeopleDirective@CvUnit@@QAEXW4GreatPeopleDirectiveTypes@@@Z:PROC ; CvUnit::SetGreatPeopleDirective
EXTRN	?AI_getUnitAIType@CvUnit@@QBE?AW4UnitAITypes@@XZ:PROC ; CvUnit::AI_getUnitAIType
EXTRN	?getSpecialUnitType@CvUnit@@QBE?AW4SpecialUnitTypes@@XZ:PROC ; CvUnit::getSpecialUnitType
;	COMDAT ??_C@_0BD@NNACGNOP@SPECIALUNIT_PEOPLE?$AA@
; File d:\sources\lekmod_git\checkout\lekmod_dll\fireplace\include\fireworks\fautovariable.h
CONST	SEGMENT
??_C@_0BD@NNACGNOP@SPECIALUNIT_PEOPLE?$AA@ DB 'SPECIALUNIT_PEOPLE', 00H ; `string'
; Function compile flags: /Odtp
; File d:\sources\lekmod_git\checkout\lekmod_dll\cvgamecoredll_expansion2\cvplayerai.cpp
CONST	ENDS
;	COMDAT ?ProcessGreatPeople@CvPlayerAI@@QAEXXZ
_TEXT	SEGMENT
tv130 = -28						; size = 4
_this$ = -24						; size = 4
$T230954 = -17						; size = 1
_eDirective$226079 = -16				; size = 4
_pLoopUnit$226074 = -12					; size = 4
_eSpecialUnitGreatPerson$ = -8				; size = 4
_iLoop$ = -4						; size = 4
?ProcessGreatPeople@CvPlayerAI@@QAEXXZ PROC		; CvPlayerAI::ProcessGreatPeople, COMDAT
; _this$ = ecx

; 837  : {

	push	ebp
	mov	ebp, esp
	sub	esp, 28					; 0000001cH
	mov	DWORD PTR _this$[ebp], ecx

; 838  : 	SpecialUnitTypes eSpecialUnitGreatPerson = (SpecialUnitTypes) GC.getInfoTypeForString("SPECIALUNIT_PEOPLE");

	push	0
	push	OFFSET ??_C@_0BD@NNACGNOP@SPECIALUNIT_PEOPLE?$AA@
	mov	ecx, OFFSET ?gGlobals@@3VCvGlobals@@A	; gGlobals
	call	?getInfoTypeForString@CvGlobals@@QBEHPBD_N@Z ; CvGlobals::getInfoTypeForString
	mov	DWORD PTR _eSpecialUnitGreatPerson$[ebp], eax

; 839  : 
; 840  : 	CvAssert(isAlive());
; 841  : 
; 842  : 	if(!isAlive())

	mov	eax, DWORD PTR _this$[ebp]
	mov	cl, BYTE PTR [eax+2256]
	mov	BYTE PTR $T230954[ebp], cl
	movzx	edx, BYTE PTR $T230954[ebp]
	test	edx, edx
	jne	SHORT $LN16@ProcessGre

; 843  : 		return;

	jmp	$LN17@ProcessGre
$LN16@ProcessGre:

; 844  : 
; 845  : 	int iLoop;
; 846  : 	for(CvUnit* pLoopUnit = firstUnit(&iLoop); pLoopUnit; pLoopUnit = nextUnit(&iLoop))

	push	0
	lea	eax, DWORD PTR _iLoop$[ebp]
	push	eax
	mov	ecx, DWORD PTR _this$[ebp]
	call	?firstUnit@CvPlayer@@QAEPAVCvUnit@@PAH_N@Z ; CvPlayer::firstUnit
	mov	DWORD PTR _pLoopUnit$226074[ebp], eax
	jmp	SHORT $LN15@ProcessGre
$LN14@ProcessGre:
	push	0
	lea	ecx, DWORD PTR _iLoop$[ebp]
	push	ecx
	mov	ecx, DWORD PTR _this$[ebp]
	call	?nextUnit@CvPlayer@@QAEPAVCvUnit@@PAH_N@Z ; CvPlayer::nextUnit
	mov	DWORD PTR _pLoopUnit$226074[ebp], eax
$LN15@ProcessGre:
	cmp	DWORD PTR _pLoopUnit$226074[ebp], 0
	je	$LN17@ProcessGre

; 847  : 	{
; 848  : 		if(pLoopUnit->getSpecialUnitType() != eSpecialUnitGreatPerson)

	mov	ecx, DWORD PTR _pLoopUnit$226074[ebp]
	call	?getSpecialUnitType@CvUnit@@QBE?AW4SpecialUnitTypes@@XZ ; CvUnit::getSpecialUnitType
	cmp	eax, DWORD PTR _eSpecialUnitGreatPerson$[ebp]
	je	SHORT $LN12@ProcessGre

; 849  : 		{
; 850  : 			continue;

	jmp	SHORT $LN14@ProcessGre
$LN12@ProcessGre:

; 851  : 		}
; 852  : 
; 853  : 		GreatPeopleDirectiveTypes eDirective = NO_GREAT_PEOPLE_DIRECTIVE_TYPE;

	mov	DWORD PTR _eDirective$226079[ebp], -1

; 854  : 		switch(pLoopUnit->AI_getUnitAIType())

	mov	ecx, DWORD PTR _pLoopUnit$226074[ebp]
	call	?AI_getUnitAIType@CvUnit@@QBE?AW4UnitAITypes@@XZ ; CvUnit::AI_getUnitAIType
	mov	DWORD PTR tv130[ebp], eax
	mov	edx, DWORD PTR tv130[ebp]
	sub	edx, 11					; 0000000bH
	mov	DWORD PTR tv130[ebp], edx
	cmp	DWORD PTR tv130[ebp], 30		; 0000001eH
	ja	$LN10@ProcessGre
	mov	eax, DWORD PTR tv130[ebp]
	movzx	ecx, BYTE PTR $LN23@ProcessGre[eax]
	jmp	DWORD PTR $LN24@ProcessGre[ecx*4]
$LN9@ProcessGre:

; 855  : 		{
; 856  : 		case UNITAI_WRITER:
; 857  : 			eDirective = GetDirectiveWriter(pLoopUnit);

	mov	edx, DWORD PTR _pLoopUnit$226074[ebp]
	push	edx
	mov	ecx, DWORD PTR _this$[ebp]
	call	?GetDirectiveWriter@CvPlayerAI@@QAE?AW4GreatPeopleDirectiveTypes@@PAVCvUnit@@@Z ; CvPlayerAI::GetDirectiveWriter
	mov	DWORD PTR _eDirective$226079[ebp], eax

; 858  : 			break;

	jmp	$LN10@ProcessGre
$LN8@ProcessGre:

; 859  : 		case UNITAI_ARTIST:
; 860  : 			eDirective = GetDirectiveArtist(pLoopUnit);

	mov	eax, DWORD PTR _pLoopUnit$226074[ebp]
	push	eax
	mov	ecx, DWORD PTR _this$[ebp]
	call	?GetDirectiveArtist@CvPlayerAI@@QAE?AW4GreatPeopleDirectiveTypes@@PAVCvUnit@@@Z ; CvPlayerAI::GetDirectiveArtist
	mov	DWORD PTR _eDirective$226079[ebp], eax

; 861  : 			break;

	jmp	SHORT $LN10@ProcessGre
$LN7@ProcessGre:

; 862  : 		case UNITAI_MUSICIAN:
; 863  : 			eDirective = GetDirectiveMusician(pLoopUnit);

	mov	ecx, DWORD PTR _pLoopUnit$226074[ebp]
	push	ecx
	mov	ecx, DWORD PTR _this$[ebp]
	call	?GetDirectiveMusician@CvPlayerAI@@QAE?AW4GreatPeopleDirectiveTypes@@PAVCvUnit@@@Z ; CvPlayerAI::GetDirectiveMusician
	mov	DWORD PTR _eDirective$226079[ebp], eax

; 864  : 			break;

	jmp	SHORT $LN10@ProcessGre
$LN6@ProcessGre:

; 865  : 		case UNITAI_ENGINEER:
; 866  : 			eDirective = GetDirectiveEngineer(pLoopUnit);

	mov	edx, DWORD PTR _pLoopUnit$226074[ebp]
	push	edx
	mov	ecx, DWORD PTR _this$[ebp]
	call	?GetDirectiveEngineer@CvPlayerAI@@QAE?AW4GreatPeopleDirectiveTypes@@PAVCvUnit@@@Z ; CvPlayerAI::GetDirectiveEngineer
	mov	DWORD PTR _eDirective$226079[ebp], eax

; 867  : 			break;

	jmp	SHORT $LN10@ProcessGre
$LN5@ProcessGre:

; 868  : 		case UNITAI_MERCHANT:
; 869  : 			eDirective = GetDirectiveMerchant(pLoopUnit);

	mov	eax, DWORD PTR _pLoopUnit$226074[ebp]
	push	eax
	mov	ecx, DWORD PTR _this$[ebp]
	call	?GetDirectiveMerchant@CvPlayerAI@@QAE?AW4GreatPeopleDirectiveTypes@@PAVCvUnit@@@Z ; CvPlayerAI::GetDirectiveMerchant
	mov	DWORD PTR _eDirective$226079[ebp], eax

; 870  : 			break;

	jmp	SHORT $LN10@ProcessGre
$LN4@ProcessGre:

; 871  : 		case UNITAI_SCIENTIST:
; 872  : 			eDirective = GetDirectiveScientist(pLoopUnit);

	mov	ecx, DWORD PTR _pLoopUnit$226074[ebp]
	push	ecx
	mov	ecx, DWORD PTR _this$[ebp]
	call	?GetDirectiveScientist@CvPlayerAI@@QAE?AW4GreatPeopleDirectiveTypes@@PAVCvUnit@@@Z ; CvPlayerAI::GetDirectiveScientist
	mov	DWORD PTR _eDirective$226079[ebp], eax

; 873  : 			break;

	jmp	SHORT $LN10@ProcessGre
$LN3@ProcessGre:

; 874  : 		case UNITAI_GENERAL:
; 875  : 			eDirective = GetDirectiveGeneral(pLoopUnit);

	mov	edx, DWORD PTR _pLoopUnit$226074[ebp]
	push	edx
	mov	ecx, DWORD PTR _this$[ebp]
	call	?GetDirectiveGeneral@CvPlayerAI@@QAE?AW4GreatPeopleDirectiveTypes@@PAVCvUnit@@@Z ; CvPlayerAI::GetDirectiveGeneral
	mov	DWORD PTR _eDirective$226079[ebp], eax

; 876  : 			break;

	jmp	SHORT $LN10@ProcessGre
$LN2@ProcessGre:

; 877  : 		case UNITAI_PROPHET:
; 878  : 			eDirective = GetDirectiveProphet(pLoopUnit);

	mov	eax, DWORD PTR _pLoopUnit$226074[ebp]
	push	eax
	mov	ecx, DWORD PTR _this$[ebp]
	call	?GetDirectiveProphet@CvPlayerAI@@QAE?AW4GreatPeopleDirectiveTypes@@PAVCvUnit@@@Z ; CvPlayerAI::GetDirectiveProphet
	mov	DWORD PTR _eDirective$226079[ebp], eax

; 879  : 			break;

	jmp	SHORT $LN10@ProcessGre
$LN1@ProcessGre:

; 880  : 		case UNITAI_ADMIRAL:
; 881  : 			eDirective = GetDirectiveAdmiral(pLoopUnit);

	mov	ecx, DWORD PTR _pLoopUnit$226074[ebp]
	push	ecx
	mov	ecx, DWORD PTR _this$[ebp]
	call	?GetDirectiveAdmiral@CvPlayerAI@@QAE?AW4GreatPeopleDirectiveTypes@@PAVCvUnit@@@Z ; CvPlayerAI::GetDirectiveAdmiral
	mov	DWORD PTR _eDirective$226079[ebp], eax
$LN10@ProcessGre:

; 882  : 			break;
; 883  : 		}
; 884  : 
; 885  : 		pLoopUnit->SetGreatPeopleDirective(eDirective);

	mov	edx, DWORD PTR _eDirective$226079[ebp]
	push	edx
	mov	ecx, DWORD PTR _pLoopUnit$226074[ebp]
	call	?SetGreatPeopleDirective@CvUnit@@QAEXW4GreatPeopleDirectiveTypes@@@Z ; CvUnit::SetGreatPeopleDirective
	jmp	$LN14@ProcessGre
$LN17@ProcessGre:

; 886  : 	}
; 887  : }

	mov	esp, ebp
	pop	ebp
	ret	0
$LN24@ProcessGre:
	DD	$LN8@ProcessGre
	DD	$LN4@ProcessGre
	DD	$LN3@ProcessGre
	DD	$LN5@ProcessGre
	DD	$LN6@ProcessGre
	DD	$LN2@ProcessGre
	DD	$LN1@ProcessGre
	DD	$LN9@ProcessGre
	DD	$LN7@ProcessGre
	DD	$LN10@ProcessGre
$LN23@ProcessGre:
	DB	0
	DB	1
	DB	2
	DB	3
	DB	4
	DB	9
	DB	9
	DB	9
	DB	9
	DB	9
	DB	9
	DB	9
	DB	9
	DB	9
	DB	9
	DB	9
	DB	9
	DB	9
	DB	9
	DB	9
	DB	9
	DB	9
	DB	9
	DB	5
	DB	9
	DB	9
	DB	6
	DB	9
	DB	9
	DB	7
	DB	8
?ProcessGreatPeople@CvPlayerAI@@QAEXXZ ENDP		; CvPlayerAI::ProcessGreatPeople
_TEXT	ENDS
PUBLIC	??_C@_0CE@MNJNOLKD@MILITARYAISTRATEGY_WAR_MOBILIZAT@ ; `string'
PUBLIC	?PreparingForWar@@YA_NPAVCvPlayerAI@@@Z		; PreparingForWar
EXTRN	?IsUsingStrategy@CvMilitaryAI@@QAE_NW4MilitaryAIStrategyTypes@@@Z:PROC ; CvMilitaryAI::IsUsingStrategy
EXTRN	?GetMilitaryAI@CvPlayer@@QBEPAVCvMilitaryAI@@XZ:PROC ; CvPlayer::GetMilitaryAI
;	COMDAT ??_C@_0CE@MNJNOLKD@MILITARYAISTRATEGY_WAR_MOBILIZAT@
CONST	SEGMENT
??_C@_0CE@MNJNOLKD@MILITARYAISTRATEGY_WAR_MOBILIZAT@ DB 'MILITARYAISTRATE'
	DB	'GY_WAR_MOBILIZATION', 00H			; `string'
; Function compile flags: /Odtp
CONST	ENDS
;	COMDAT ?PreparingForWar@@YA_NPAVCvPlayerAI@@@Z
_TEXT	SEGMENT
_pMilitaryAI$ = -8					; size = 4
_eWarMobilizationStrategy$ = -4				; size = 4
_pPlayer$ = 8						; size = 4
?PreparingForWar@@YA_NPAVCvPlayerAI@@@Z PROC		; PreparingForWar, COMDAT

; 890  : {

	push	ebp
	mov	ebp, esp
	sub	esp, 8

; 891  : 	CvAssertMsg(pPlayer, "Need a player");
; 892  : 	if(!pPlayer)

	cmp	DWORD PTR _pPlayer$[ebp], 0
	jne	SHORT $LN3@PreparingF

; 893  : 	{
; 894  : 		return false;

	xor	al, al
	jmp	SHORT $LN4@PreparingF
$LN3@PreparingF:

; 895  : 	}
; 896  : 	CvMilitaryAI* pMilitaryAI = pPlayer->GetMilitaryAI();

	mov	ecx, DWORD PTR _pPlayer$[ebp]
	call	?GetMilitaryAI@CvPlayer@@QBEPAVCvMilitaryAI@@XZ ; CvPlayer::GetMilitaryAI
	mov	DWORD PTR _pMilitaryAI$[ebp], eax

; 897  : 	CvAssertMsg(pMilitaryAI, "No military AI");
; 898  : 	if(!pMilitaryAI)

	cmp	DWORD PTR _pMilitaryAI$[ebp], 0
	jne	SHORT $LN2@PreparingF

; 899  : 	{
; 900  : 		return false;

	xor	al, al
	jmp	SHORT $LN4@PreparingF
$LN2@PreparingF:

; 901  : 	}
; 902  : 
; 903  : 	MilitaryAIStrategyTypes eWarMobilizationStrategy = (MilitaryAIStrategyTypes)GC.getInfoTypeForString("MILITARYAISTRATEGY_WAR_MOBILIZATION");

	push	0
	push	OFFSET ??_C@_0CE@MNJNOLKD@MILITARYAISTRATEGY_WAR_MOBILIZAT@
	mov	ecx, OFFSET ?gGlobals@@3VCvGlobals@@A	; gGlobals
	call	?getInfoTypeForString@CvGlobals@@QBEHPBD_N@Z ; CvGlobals::getInfoTypeForString
	mov	DWORD PTR _eWarMobilizationStrategy$[ebp], eax

; 904  : 	if(pMilitaryAI->IsUsingStrategy(eWarMobilizationStrategy))

	mov	eax, DWORD PTR _eWarMobilizationStrategy$[ebp]
	push	eax
	mov	ecx, DWORD PTR _pMilitaryAI$[ebp]
	call	?IsUsingStrategy@CvMilitaryAI@@QAE_NW4MilitaryAIStrategyTypes@@@Z ; CvMilitaryAI::IsUsingStrategy
	movzx	ecx, al
	test	ecx, ecx
	je	SHORT $LN1@PreparingF

; 905  : 	{
; 906  : 		return true;

	mov	al, 1
	jmp	SHORT $LN4@PreparingF
$LN1@PreparingF:

; 907  : 	}
; 908  : 
; 909  : 	return false;

	xor	al, al
$LN4@PreparingF:

; 910  : }

	mov	esp, ebp
	pop	ebp
	ret	0
?PreparingForWar@@YA_NPAVCvPlayerAI@@@Z ENDP		; PreparingForWar
_TEXT	ENDS
PUBLIC	??_C@_0BK@KDAIIFJ@MILITARYAISTRATEGY_AT_WAR?$AA@ ; `string'
PUBLIC	?IsSafe@@YA_NPAVCvPlayerAI@@@Z			; IsSafe
EXTRN	?GetStateAllWars@CvDiplomacyAI@@QBE?AW4StateAllWars@@XZ:PROC ; CvDiplomacyAI::GetStateAllWars
;	COMDAT ??_C@_0BK@KDAIIFJ@MILITARYAISTRATEGY_AT_WAR?$AA@
CONST	SEGMENT
??_C@_0BK@KDAIIFJ@MILITARYAISTRATEGY_AT_WAR?$AA@ DB 'MILITARYAISTRATEGY_A'
	DB	'T_WAR', 00H					; `string'
; Function compile flags: /Odtp
CONST	ENDS
;	COMDAT ?IsSafe@@YA_NPAVCvPlayerAI@@@Z
_TEXT	SEGMENT
_pMilitaryAI$226109 = -8				; size = 4
_eAtWarStrategy$226111 = -4				; size = 4
_pPlayer$ = 8						; size = 4
?IsSafe@@YA_NPAVCvPlayerAI@@@Z PROC			; IsSafe, COMDAT

; 913  : {

	push	ebp
	mov	ebp, esp
	sub	esp, 8

; 914  : 	CvAssertMsg(pPlayer, "Need a player");
; 915  : 	if(!pPlayer)

	cmp	DWORD PTR _pPlayer$[ebp], 0
	jne	SHORT $LN5@IsSafe

; 916  : 	{
; 917  : 		return false;

	xor	al, al
	jmp	SHORT $LN6@IsSafe
$LN5@IsSafe:

; 918  : 	}
; 919  : 
; 920  : 	if(pPlayer->GetDiplomacyAI()->GetStateAllWars() == STATE_ALL_WARS_WINNING)

	mov	ecx, DWORD PTR _pPlayer$[ebp]
	call	?GetDiplomacyAI@CvPlayer@@QBEPAVCvDiplomacyAI@@XZ ; CvPlayer::GetDiplomacyAI
	mov	ecx, eax
	call	?GetStateAllWars@CvDiplomacyAI@@QBE?AW4StateAllWars@@XZ ; CvDiplomacyAI::GetStateAllWars
	cmp	eax, 1
	jne	SHORT $LN4@IsSafe

; 921  : 	{
; 922  : 		return true;

	mov	al, 1
	jmp	SHORT $LN6@IsSafe

; 923  : 	}
; 924  : 	else

	jmp	SHORT $LN6@IsSafe
$LN4@IsSafe:

; 925  : 	{
; 926  : 		CvMilitaryAI* pMilitaryAI = pPlayer->GetMilitaryAI();

	mov	ecx, DWORD PTR _pPlayer$[ebp]
	call	?GetMilitaryAI@CvPlayer@@QBEPAVCvMilitaryAI@@XZ ; CvPlayer::GetMilitaryAI
	mov	DWORD PTR _pMilitaryAI$226109[ebp], eax

; 927  : 		CvAssertMsg(pMilitaryAI, "No military AI");
; 928  : 		if(!pMilitaryAI)

	cmp	DWORD PTR _pMilitaryAI$226109[ebp], 0
	jne	SHORT $LN2@IsSafe

; 929  : 		{
; 930  : 			return false;

	xor	al, al
	jmp	SHORT $LN6@IsSafe
$LN2@IsSafe:

; 931  : 		}
; 932  : 
; 933  : 		MilitaryAIStrategyTypes eAtWarStrategy = (MilitaryAIStrategyTypes)GC.getInfoTypeForString("MILITARYAISTRATEGY_AT_WAR");

	push	0
	push	OFFSET ??_C@_0BK@KDAIIFJ@MILITARYAISTRATEGY_AT_WAR?$AA@
	mov	ecx, OFFSET ?gGlobals@@3VCvGlobals@@A	; gGlobals
	call	?getInfoTypeForString@CvGlobals@@QBEHPBD_N@Z ; CvGlobals::getInfoTypeForString
	mov	DWORD PTR _eAtWarStrategy$226111[ebp], eax

; 934  : 		if(!pMilitaryAI->IsUsingStrategy(eAtWarStrategy))

	mov	eax, DWORD PTR _eAtWarStrategy$226111[ebp]
	push	eax
	mov	ecx, DWORD PTR _pMilitaryAI$226109[ebp]
	call	?IsUsingStrategy@CvMilitaryAI@@QAE_NW4MilitaryAIStrategyTypes@@@Z ; CvMilitaryAI::IsUsingStrategy
	movzx	ecx, al
	test	ecx, ecx
	jne	SHORT $LN1@IsSafe

; 935  : 		{
; 936  : 			return true;

	mov	al, 1
	jmp	SHORT $LN6@IsSafe
$LN1@IsSafe:

; 937  : 		}
; 938  : 
; 939  : 		return false;

	xor	al, al
$LN6@IsSafe:

; 940  : 	}
; 941  : }

	mov	esp, ebp
	pop	ebp
	ret	0
?IsSafe@@YA_NPAVCvPlayerAI@@@Z ENDP			; IsSafe
_TEXT	ENDS
EXTRN	?GetBestGreatWorkCity@CvEconomicAI@@QBEPAVCvCity@@PAVCvPlot@@W4GreatWorkType@@@Z:PROC ; CvEconomicAI::GetBestGreatWorkCity
EXTRN	?GetEconomicAI@CvPlayer@@QBEPAVCvEconomicAI@@XZ:PROC ; CvPlayer::GetEconomicAI
EXTRN	?plot@CvUnit@@QBEPAVCvPlot@@XZ:PROC		; CvUnit::plot
EXTRN	?GetGreatWork@CvUnit@@QBE?AW4GreatWorkType@@XZ:PROC ; CvUnit::GetGreatWork
EXTRN	?CanGetAdvancedTenet@CvPlayerPolicies@@QBE_NXZ:PROC ; CvPlayerPolicies::CanGetAdvancedTenet
EXTRN	?GetPublicOpinionUnhappiness@CvPlayerCulture@@QBEHXZ:PROC ; CvPlayerCulture::GetPublicOpinionUnhappiness
EXTRN	?GetCulture@CvPlayer@@QBEPAVCvPlayerCulture@@XZ:PROC ; CvPlayer::GetCulture
; Function compile flags: /Odtp
;	COMDAT ?GetDirectiveWriter@CvPlayerAI@@QAE?AW4GreatPeopleDirectiveTypes@@PAVCvUnit@@@Z
_TEXT	SEGMENT
_this$ = -12						; size = 4
_eGreatWork$ = -8					; size = 4
_eDirective$ = -4					; size = 4
_pGreatWriter$ = 8					; size = 4
?GetDirectiveWriter@CvPlayerAI@@QAE?AW4GreatPeopleDirectiveTypes@@PAVCvUnit@@@Z PROC ; CvPlayerAI::GetDirectiveWriter, COMDAT
; _this$ = ecx

; 944  : {

	push	ebp
	mov	ebp, esp
	sub	esp, 12					; 0000000cH
	mov	DWORD PTR _this$[ebp], ecx

; 945  : 	GreatPeopleDirectiveTypes eDirective = NO_GREAT_PEOPLE_DIRECTIVE_TYPE;

	mov	DWORD PTR _eDirective$[ebp], -1

; 946  : 
; 947  : 	// Defend against ideology pressure if not going for culture win
; 948  : #ifdef AUI_WARNING_FIXES
; 949  : 	if (!GetDiplomacyAI()->IsGoingForCultureVictory() && GetCulture()->GetPublicOpinionUnhappiness() > 10)
; 950  : #else
; 951  : 	if (eDirective == NO_GREAT_PEOPLE_DIRECTIVE_TYPE && !GetDiplomacyAI()->IsGoingForCultureVictory() && GetCulture()->GetPublicOpinionUnhappiness() > 10)

	cmp	DWORD PTR _eDirective$[ebp], -1
	jne	SHORT $LN4@GetDirecti
	mov	ecx, DWORD PTR _this$[ebp]
	call	?GetDiplomacyAI@CvPlayer@@QBEPAVCvDiplomacyAI@@XZ ; CvPlayer::GetDiplomacyAI
	mov	ecx, eax
	call	?IsGoingForCultureVictory@CvDiplomacyAI@@QAE_NXZ ; CvDiplomacyAI::IsGoingForCultureVictory
	movzx	eax, al
	test	eax, eax
	jne	SHORT $LN4@GetDirecti
	mov	ecx, DWORD PTR _this$[ebp]
	call	?GetCulture@CvPlayer@@QBEPAVCvPlayerCulture@@XZ ; CvPlayer::GetCulture
	mov	ecx, eax
	call	?GetPublicOpinionUnhappiness@CvPlayerCulture@@QBEHXZ ; CvPlayerCulture::GetPublicOpinionUnhappiness
	cmp	eax, 10					; 0000000aH
	jle	SHORT $LN4@GetDirecti

; 952  : #endif
; 953  : 	{
; 954  : 		eDirective = GREAT_PEOPLE_DIRECTIVE_CULTURE_BLAST;

	mov	DWORD PTR _eDirective$[ebp], 4
$LN4@GetDirecti:

; 955  : 	}
; 956  : 
; 957  : 	// If not going for culture win and a Level 2 or 3 Tenet is available, try to snag it
; 958  : 	if (eDirective == NO_GREAT_PEOPLE_DIRECTIVE_TYPE && !GetDiplomacyAI()->IsGoingForCultureVictory() && GetPlayerPolicies()->CanGetAdvancedTenet())

	cmp	DWORD PTR _eDirective$[ebp], -1
	jne	SHORT $LN3@GetDirecti
	mov	ecx, DWORD PTR _this$[ebp]
	call	?GetDiplomacyAI@CvPlayer@@QBEPAVCvDiplomacyAI@@XZ ; CvPlayer::GetDiplomacyAI
	mov	ecx, eax
	call	?IsGoingForCultureVictory@CvDiplomacyAI@@QAE_NXZ ; CvDiplomacyAI::IsGoingForCultureVictory
	movzx	ecx, al
	test	ecx, ecx
	jne	SHORT $LN3@GetDirecti
	mov	ecx, DWORD PTR _this$[ebp]
	call	?GetPlayerPolicies@CvPlayer@@QBEPAVCvPlayerPolicies@@XZ ; CvPlayer::GetPlayerPolicies
	mov	ecx, eax
	call	?CanGetAdvancedTenet@CvPlayerPolicies@@QBE_NXZ ; CvPlayerPolicies::CanGetAdvancedTenet
	movzx	edx, al
	test	edx, edx
	je	SHORT $LN3@GetDirecti

; 959  : 	{
; 960  : 		eDirective = GREAT_PEOPLE_DIRECTIVE_CULTURE_BLAST;

	mov	DWORD PTR _eDirective$[ebp], 4
$LN3@GetDirecti:

; 961  : 	}
; 962  : 
; 963  : 	// Create Great Work if there is a slot
; 964  : 	GreatWorkType eGreatWork = pGreatWriter->GetGreatWork();

	mov	ecx, DWORD PTR _pGreatWriter$[ebp]
	call	?GetGreatWork@CvUnit@@QBE?AW4GreatWorkType@@XZ ; CvUnit::GetGreatWork
	mov	DWORD PTR _eGreatWork$[ebp], eax

; 965  : 	if (eDirective == NO_GREAT_PEOPLE_DIRECTIVE_TYPE && GetEconomicAI()->GetBestGreatWorkCity(pGreatWriter->plot(), eGreatWork))

	cmp	DWORD PTR _eDirective$[ebp], -1
	jne	SHORT $LN2@GetDirecti
	mov	eax, DWORD PTR _eGreatWork$[ebp]
	push	eax
	mov	ecx, DWORD PTR _pGreatWriter$[ebp]
	call	?plot@CvUnit@@QBEPAVCvPlot@@XZ		; CvUnit::plot
	push	eax
	mov	ecx, DWORD PTR _this$[ebp]
	call	?GetEconomicAI@CvPlayer@@QBEPAVCvEconomicAI@@XZ ; CvPlayer::GetEconomicAI
	mov	ecx, eax
	call	?GetBestGreatWorkCity@CvEconomicAI@@QBEPAVCvCity@@PAVCvPlot@@W4GreatWorkType@@@Z ; CvEconomicAI::GetBestGreatWorkCity
	test	eax, eax
	je	SHORT $LN2@GetDirecti

; 966  : 	{
; 967  : 		eDirective = GREAT_PEOPLE_DIRECTIVE_USE_POWER;

	mov	DWORD PTR _eDirective$[ebp], 1

; 968  : 	}
; 969  : 	else

	jmp	SHORT $LN1@GetDirecti
$LN2@GetDirecti:

; 970  : 	{
; 971  : 		eDirective = GREAT_PEOPLE_DIRECTIVE_CULTURE_BLAST;

	mov	DWORD PTR _eDirective$[ebp], 4
$LN1@GetDirecti:

; 972  : 	}
; 973  : 
; 974  : 	return eDirective;

	mov	eax, DWORD PTR _eDirective$[ebp]

; 975  : }

	mov	esp, ebp
	pop	ebp
	ret	4
?GetDirectiveWriter@CvPlayerAI@@QAE?AW4GreatPeopleDirectiveTypes@@PAVCvUnit@@@Z ENDP ; CvPlayerAI::GetDirectiveWriter
_TEXT	ENDS
EXTRN	?GetNumCivsInfluentialOn@CvPlayerCulture@@QBEHXZ:PROC ; CvPlayerCulture::GetNumCivsInfluentialOn
EXTRN	?isGoldenAge@CvPlayer@@QBE_NXZ:PROC		; CvPlayer::isGoldenAge
EXTRN	?GetNumberCivsAtWarWith@CvMilitaryAI@@QBEHXZ:PROC ; CvMilitaryAI::GetNumberCivsAtWarWith
EXTRN	?IsTestStrategy_GS_SpaceshipHomestretch@EconomicAIHelpers@@YA_NPAVCvPlayer@@@Z:PROC ; EconomicAIHelpers::IsTestStrategy_GS_SpaceshipHomestretch
EXTRN	?IsGoingForSpaceshipVictory@CvDiplomacyAI@@QAE_NXZ:PROC ; CvDiplomacyAI::IsGoingForSpaceshipVictory
; Function compile flags: /Odtp
;	COMDAT ?GetDirectiveArtist@CvPlayerAI@@QAE?AW4GreatPeopleDirectiveTypes@@PAVCvUnit@@@Z
_TEXT	SEGMENT
_this$ = -28						; size = 4
$T230974 = -24						; size = 4
$T230973 = -20						; size = 4
$T230969 = -16						; size = 4
$T230968 = -12						; size = 4
_eGreatWork$ = -8					; size = 4
_eDirective$ = -4					; size = 4
_pGreatArtist$ = 8					; size = 4
?GetDirectiveArtist@CvPlayerAI@@QAE?AW4GreatPeopleDirectiveTypes@@PAVCvUnit@@@Z PROC ; CvPlayerAI::GetDirectiveArtist, COMDAT
; _this$ = ecx

; 978  : {

	push	ebp
	mov	ebp, esp
	sub	esp, 28					; 0000001cH
	mov	DWORD PTR _this$[ebp], ecx

; 979  : 	GreatPeopleDirectiveTypes eDirective = NO_GREAT_PEOPLE_DIRECTIVE_TYPE;

	mov	DWORD PTR _eDirective$[ebp], -1

; 980  : 
; 981  : 	// Defend against ideology pressure if not going for culture win
; 982  : #ifdef AUI_WARNING_FIXES
; 983  : 	if (!GetDiplomacyAI()->IsGoingForCultureVictory() && GetCulture()->GetPublicOpinionUnhappiness() > 10)
; 984  : #else
; 985  : 	if (eDirective == NO_GREAT_PEOPLE_DIRECTIVE_TYPE && !GetDiplomacyAI()->IsGoingForCultureVictory() && GetCulture()->GetPublicOpinionUnhappiness() > 10)

	cmp	DWORD PTR _eDirective$[ebp], -1
	jne	SHORT $LN7@GetDirecti@2
	mov	ecx, DWORD PTR _this$[ebp]
	call	?GetDiplomacyAI@CvPlayer@@QBEPAVCvDiplomacyAI@@XZ ; CvPlayer::GetDiplomacyAI
	mov	ecx, eax
	call	?IsGoingForCultureVictory@CvDiplomacyAI@@QAE_NXZ ; CvDiplomacyAI::IsGoingForCultureVictory
	movzx	eax, al
	test	eax, eax
	jne	SHORT $LN7@GetDirecti@2
	mov	ecx, DWORD PTR _this$[ebp]
	call	?GetCulture@CvPlayer@@QBEPAVCvPlayerCulture@@XZ ; CvPlayer::GetCulture
	mov	ecx, eax
	call	?GetPublicOpinionUnhappiness@CvPlayerCulture@@QBEHXZ ; CvPlayerCulture::GetPublicOpinionUnhappiness
	cmp	eax, 10					; 0000000aH
	jle	SHORT $LN7@GetDirecti@2

; 986  : #endif
; 987  : 	{
; 988  : 		eDirective = GREAT_PEOPLE_DIRECTIVE_GOLDEN_AGE;

	mov	DWORD PTR _eDirective$[ebp], 0
$LN7@GetDirecti@2:

; 989  : 	}
; 990  : 
; 991  : 	// If prepping for war, Golden Age will build units quickly
; 992  : 	if (eDirective == NO_GREAT_PEOPLE_DIRECTIVE_TYPE && !GetDiplomacyAI()->IsGoingForCultureVictory() && PreparingForWar(this))

	cmp	DWORD PTR _eDirective$[ebp], -1
	jne	SHORT $LN6@GetDirecti@2
	mov	ecx, DWORD PTR _this$[ebp]
	call	?GetDiplomacyAI@CvPlayer@@QBEPAVCvDiplomacyAI@@XZ ; CvPlayer::GetDiplomacyAI
	mov	ecx, eax
	call	?IsGoingForCultureVictory@CvDiplomacyAI@@QAE_NXZ ; CvDiplomacyAI::IsGoingForCultureVictory
	movzx	ecx, al
	test	ecx, ecx
	jne	SHORT $LN6@GetDirecti@2
	mov	edx, DWORD PTR _this$[ebp]
	push	edx
	call	?PreparingForWar@@YA_NPAVCvPlayerAI@@@Z	; PreparingForWar
	add	esp, 4
	movzx	eax, al
	test	eax, eax
	je	SHORT $LN6@GetDirecti@2

; 993  : 	{
; 994  : 		eDirective = GREAT_PEOPLE_DIRECTIVE_GOLDEN_AGE;

	mov	DWORD PTR _eDirective$[ebp], 0
$LN6@GetDirecti@2:

; 995  : 	}
; 996  : 
; 997  : 	// If finishing up spaceship parts, Golden Age will help build those quickly
; 998  : 	if (eDirective == NO_GREAT_PEOPLE_DIRECTIVE_TYPE && GetDiplomacyAI()->IsGoingForSpaceshipVictory() && EconomicAIHelpers::IsTestStrategy_GS_SpaceshipHomestretch(this))

	cmp	DWORD PTR _eDirective$[ebp], -1
	jne	SHORT $LN5@GetDirecti@2
	mov	ecx, DWORD PTR _this$[ebp]
	call	?GetDiplomacyAI@CvPlayer@@QBEPAVCvDiplomacyAI@@XZ ; CvPlayer::GetDiplomacyAI
	mov	ecx, eax
	call	?IsGoingForSpaceshipVictory@CvDiplomacyAI@@QAE_NXZ ; CvDiplomacyAI::IsGoingForSpaceshipVictory
	movzx	ecx, al
	test	ecx, ecx
	je	SHORT $LN5@GetDirecti@2
	mov	edx, DWORD PTR _this$[ebp]
	push	edx
	call	?IsTestStrategy_GS_SpaceshipHomestretch@EconomicAIHelpers@@YA_NPAVCvPlayer@@@Z ; EconomicAIHelpers::IsTestStrategy_GS_SpaceshipHomestretch
	add	esp, 4
	movzx	eax, al
	test	eax, eax
	je	SHORT $LN5@GetDirecti@2

; 999  : 	{
; 1000 : 		eDirective = GREAT_PEOPLE_DIRECTIVE_GOLDEN_AGE;

	mov	DWORD PTR _eDirective$[ebp], 0
$LN5@GetDirecti@2:

; 1001 : 	}
; 1002 : 
; 1003 : 	// If Persia and I'm at war, get a Golden Age going
; 1004 : 	if (eDirective == NO_GREAT_PEOPLE_DIRECTIVE_TYPE && GetPlayerTraits()->GetGoldenAgeMoveChange() > 0 && GetMilitaryAI()->GetNumberCivsAtWarWith() > 1 && !isGoldenAge())

	cmp	DWORD PTR _eDirective$[ebp], -1
	jne	SHORT $LN4@GetDirecti@2
	mov	ecx, DWORD PTR _this$[ebp]
	call	?GetPlayerTraits@CvPlayer@@QBEPAVCvPlayerTraits@@XZ ; CvPlayer::GetPlayerTraits
	mov	DWORD PTR $T230968[ebp], eax
	mov	ecx, DWORD PTR $T230968[ebp]
	mov	edx, DWORD PTR [ecx+176]
	mov	DWORD PTR $T230969[ebp], edx
	cmp	DWORD PTR $T230969[ebp], 0
	jle	SHORT $LN4@GetDirecti@2
	mov	ecx, DWORD PTR _this$[ebp]
	call	?GetMilitaryAI@CvPlayer@@QBEPAVCvMilitaryAI@@XZ ; CvPlayer::GetMilitaryAI
	mov	ecx, eax
	call	?GetNumberCivsAtWarWith@CvMilitaryAI@@QBEHXZ ; CvMilitaryAI::GetNumberCivsAtWarWith
	cmp	eax, 1
	jle	SHORT $LN4@GetDirecti@2
	mov	ecx, DWORD PTR _this$[ebp]
	call	?isGoldenAge@CvPlayer@@QBE_NXZ		; CvPlayer::isGoldenAge
	movzx	eax, al
	test	eax, eax
	jne	SHORT $LN4@GetDirecti@2

; 1005 : 	{
; 1006 : 		eDirective = GREAT_PEOPLE_DIRECTIVE_GOLDEN_AGE;

	mov	DWORD PTR _eDirective$[ebp], 0
$LN4@GetDirecti@2:

; 1007 : 	}
; 1008 : 
; 1009 : 	// If Brazil and we're closing in on Culture Victory
; 1010 : 	if (eDirective == NO_GREAT_PEOPLE_DIRECTIVE_TYPE && GetPlayerTraits()->GetGoldenAgeTourismModifier() > 0 && GetCulture()->GetNumCivsInfluentialOn() > 0)

	cmp	DWORD PTR _eDirective$[ebp], -1
	jne	SHORT $LN3@GetDirecti@2
	mov	ecx, DWORD PTR _this$[ebp]
	call	?GetPlayerTraits@CvPlayer@@QBEPAVCvPlayerTraits@@XZ ; CvPlayer::GetPlayerTraits
	mov	DWORD PTR $T230973[ebp], eax
	mov	ecx, DWORD PTR $T230973[ebp]
	mov	edx, DWORD PTR [ecx+184]
	mov	DWORD PTR $T230974[ebp], edx
	cmp	DWORD PTR $T230974[ebp], 0
	jle	SHORT $LN3@GetDirecti@2
	mov	ecx, DWORD PTR _this$[ebp]
	call	?GetCulture@CvPlayer@@QBEPAVCvPlayerCulture@@XZ ; CvPlayer::GetCulture
	mov	ecx, eax
	call	?GetNumCivsInfluentialOn@CvPlayerCulture@@QBEHXZ ; CvPlayerCulture::GetNumCivsInfluentialOn
	test	eax, eax
	jle	SHORT $LN3@GetDirecti@2

; 1011 : 	{
; 1012 : 		eDirective = GREAT_PEOPLE_DIRECTIVE_GOLDEN_AGE;

	mov	DWORD PTR _eDirective$[ebp], 0
$LN3@GetDirecti@2:

; 1013 : 	}
; 1014 : 
; 1015 : 	// Create Great Work if there is a slot
; 1016 : 	GreatWorkType eGreatWork = pGreatArtist->GetGreatWork();

	mov	ecx, DWORD PTR _pGreatArtist$[ebp]
	call	?GetGreatWork@CvUnit@@QBE?AW4GreatWorkType@@XZ ; CvUnit::GetGreatWork
	mov	DWORD PTR _eGreatWork$[ebp], eax

; 1017 : 	if (eDirective == NO_GREAT_PEOPLE_DIRECTIVE_TYPE && GetEconomicAI()->GetBestGreatWorkCity(pGreatArtist->plot(), eGreatWork))

	cmp	DWORD PTR _eDirective$[ebp], -1
	jne	SHORT $LN2@GetDirecti@2
	mov	eax, DWORD PTR _eGreatWork$[ebp]
	push	eax
	mov	ecx, DWORD PTR _pGreatArtist$[ebp]
	call	?plot@CvUnit@@QBEPAVCvPlot@@XZ		; CvUnit::plot
	push	eax
	mov	ecx, DWORD PTR _this$[ebp]
	call	?GetEconomicAI@CvPlayer@@QBEPAVCvEconomicAI@@XZ ; CvPlayer::GetEconomicAI
	mov	ecx, eax
	call	?GetBestGreatWorkCity@CvEconomicAI@@QBEPAVCvCity@@PAVCvPlot@@W4GreatWorkType@@@Z ; CvEconomicAI::GetBestGreatWorkCity
	test	eax, eax
	je	SHORT $LN2@GetDirecti@2

; 1018 : 	{
; 1019 : 		eDirective = GREAT_PEOPLE_DIRECTIVE_USE_POWER;

	mov	DWORD PTR _eDirective$[ebp], 1
$LN2@GetDirecti@2:

; 1020 : 	}
; 1021 : 
; 1022 : 	if (eDirective == NO_GREAT_PEOPLE_DIRECTIVE_TYPE && !isGoldenAge())

	cmp	DWORD PTR _eDirective$[ebp], -1
	jne	SHORT $LN1@GetDirecti@2
	mov	ecx, DWORD PTR _this$[ebp]
	call	?isGoldenAge@CvPlayer@@QBE_NXZ		; CvPlayer::isGoldenAge
	movzx	ecx, al
	test	ecx, ecx
	jne	SHORT $LN1@GetDirecti@2

; 1023 : 	{
; 1024 : 		eDirective = GREAT_PEOPLE_DIRECTIVE_GOLDEN_AGE;

	mov	DWORD PTR _eDirective$[ebp], 0
$LN1@GetDirecti@2:

; 1025 : 	}
; 1026 : 
; 1027 : 	return eDirective;

	mov	eax, DWORD PTR _eDirective$[ebp]

; 1028 : }

	mov	esp, ebp
	pop	ebp
	ret	4
?GetDirectiveArtist@CvPlayerAI@@QAE?AW4GreatPeopleDirectiveTypes@@PAVCvUnit@@@Z ENDP ; CvPlayerAI::GetDirectiveArtist
_TEXT	ENDS
PUBLIC	?FindBestMusicianTargetPlot@CvPlayerAI@@QAEPAVCvPlot@@PAVCvUnit@@_N@Z ; CvPlayerAI::FindBestMusicianTargetPlot
EXTRN	?GetNumCivsInfluentialForWin@CvGameCulture@@QBEHXZ:PROC ; CvGameCulture::GetNumCivsInfluentialForWin
EXTRN	?GetGameCulture@CvGame@@QAEPAVCvGameCulture@@XZ:PROC ; CvGame::GetGameCulture
EXTRN	?getArmyID@CvUnit@@QBEHXZ:PROC			; CvUnit::getArmyID
; Function compile flags: /Odtp
;	COMDAT ?GetDirectiveMusician@CvPlayerAI@@QAE?AW4GreatPeopleDirectiveTypes@@PAVCvUnit@@@Z
_TEXT	SEGMENT
_this$ = -24						; size = 4
$T230980 = -20						; size = 4
_pTarget$226150 = -16					; size = 4
_pTarget$226145 = -12					; size = 4
_eGreatWork$ = -8					; size = 4
_eDirective$ = -4					; size = 4
_pGreatMusician$ = 8					; size = 4
?GetDirectiveMusician@CvPlayerAI@@QAE?AW4GreatPeopleDirectiveTypes@@PAVCvUnit@@@Z PROC ; CvPlayerAI::GetDirectiveMusician, COMDAT
; _this$ = ecx

; 1031 : {

	push	ebp
	mov	ebp, esp
	sub	esp, 24					; 00000018H
	push	esi
	mov	DWORD PTR _this$[ebp], ecx

; 1032 : 	GreatPeopleDirectiveTypes eDirective = NO_GREAT_PEOPLE_DIRECTIVE_TYPE;

	mov	DWORD PTR _eDirective$[ebp], -1

; 1033 : 
; 1034 : 	// If headed on a concert tour, keep going
; 1035 : 	if (pGreatMusician->getArmyID() != FFreeList::INVALID_INDEX)

	mov	ecx, DWORD PTR _pGreatMusician$[ebp]
	call	?getArmyID@CvUnit@@QBEHXZ		; CvUnit::getArmyID
	cmp	eax, -1
	je	SHORT $LN6@GetDirecti@3

; 1036 : 	{
; 1037 : 		eDirective = GREAT_PEOPLE_DIRECTIVE_TOURISM_BLAST;

	mov	DWORD PTR _eDirective$[ebp], 5
$LN6@GetDirecti@3:

; 1038 : 	}
; 1039 : 
; 1040 : 	// If closing in on a Culture win, go for the Concert Tour
; 1041 : 	if (eDirective == NO_GREAT_PEOPLE_DIRECTIVE_TYPE && GetDiplomacyAI()->IsGoingForCultureVictory() && GetCulture()->GetNumCivsInfluentialOn() > (GC.getGame().GetGameCulture()->GetNumCivsInfluentialForWin() / 2))

	cmp	DWORD PTR _eDirective$[ebp], -1
	jne	SHORT $LN5@GetDirecti@3
	mov	ecx, DWORD PTR _this$[ebp]
	call	?GetDiplomacyAI@CvPlayer@@QBEPAVCvDiplomacyAI@@XZ ; CvPlayer::GetDiplomacyAI
	mov	ecx, eax
	call	?IsGoingForCultureVictory@CvDiplomacyAI@@QAE_NXZ ; CvDiplomacyAI::IsGoingForCultureVictory
	movzx	eax, al
	test	eax, eax
	je	SHORT $LN5@GetDirecti@3
	mov	ecx, DWORD PTR ?gGlobals@@3VCvGlobals@@A+48
	mov	DWORD PTR $T230980[ebp], ecx
	mov	ecx, DWORD PTR _this$[ebp]
	call	?GetCulture@CvPlayer@@QBEPAVCvPlayerCulture@@XZ ; CvPlayer::GetCulture
	mov	ecx, eax
	call	?GetNumCivsInfluentialOn@CvPlayerCulture@@QBEHXZ ; CvPlayerCulture::GetNumCivsInfluentialOn
	mov	esi, eax
	mov	ecx, DWORD PTR $T230980[ebp]
	call	?GetGameCulture@CvGame@@QAEPAVCvGameCulture@@XZ ; CvGame::GetGameCulture
	mov	ecx, eax
	call	?GetNumCivsInfluentialForWin@CvGameCulture@@QBEHXZ ; CvGameCulture::GetNumCivsInfluentialForWin
	cdq
	sub	eax, edx
	sar	eax, 1
	cmp	esi, eax
	jle	SHORT $LN5@GetDirecti@3

; 1042 : 	{		
; 1043 : 		CvPlot* pTarget = FindBestMusicianTargetPlot(pGreatMusician, true);

	push	1
	mov	edx, DWORD PTR _pGreatMusician$[ebp]
	push	edx
	mov	ecx, DWORD PTR _this$[ebp]
	call	?FindBestMusicianTargetPlot@CvPlayerAI@@QAEPAVCvPlot@@PAVCvUnit@@_N@Z ; CvPlayerAI::FindBestMusicianTargetPlot
	mov	DWORD PTR _pTarget$226145[ebp], eax

; 1044 : 		if(pTarget)

	cmp	DWORD PTR _pTarget$226145[ebp], 0
	je	SHORT $LN5@GetDirecti@3

; 1045 : 		{
; 1046 : 			eDirective = GREAT_PEOPLE_DIRECTIVE_TOURISM_BLAST;

	mov	DWORD PTR _eDirective$[ebp], 5
$LN5@GetDirecti@3:

; 1047 : 		}
; 1048 : 	}
; 1049 : 
; 1050 : 	// Create Great Work if there is a slot
; 1051 : 	GreatWorkType eGreatWork = pGreatMusician->GetGreatWork();

	mov	ecx, DWORD PTR _pGreatMusician$[ebp]
	call	?GetGreatWork@CvUnit@@QBE?AW4GreatWorkType@@XZ ; CvUnit::GetGreatWork
	mov	DWORD PTR _eGreatWork$[ebp], eax

; 1052 : 	if (eDirective == NO_GREAT_PEOPLE_DIRECTIVE_TYPE && GetEconomicAI()->GetBestGreatWorkCity(pGreatMusician->plot(), eGreatWork))

	cmp	DWORD PTR _eDirective$[ebp], -1
	jne	SHORT $LN3@GetDirecti@3
	mov	eax, DWORD PTR _eGreatWork$[ebp]
	push	eax
	mov	ecx, DWORD PTR _pGreatMusician$[ebp]
	call	?plot@CvUnit@@QBEPAVCvPlot@@XZ		; CvUnit::plot
	push	eax
	mov	ecx, DWORD PTR _this$[ebp]
	call	?GetEconomicAI@CvPlayer@@QBEPAVCvEconomicAI@@XZ ; CvPlayer::GetEconomicAI
	mov	ecx, eax
	call	?GetBestGreatWorkCity@CvEconomicAI@@QBEPAVCvCity@@PAVCvPlot@@W4GreatWorkType@@@Z ; CvEconomicAI::GetBestGreatWorkCity
	test	eax, eax
	je	SHORT $LN3@GetDirecti@3

; 1053 : 	{
; 1054 : 		eDirective = GREAT_PEOPLE_DIRECTIVE_USE_POWER;

	mov	DWORD PTR _eDirective$[ebp], 1

; 1055 : 	}
; 1056 : 	else

	jmp	SHORT $LN2@GetDirecti@3
$LN3@GetDirecti@3:

; 1057 : 	{
; 1058 : 		CvPlot* pTarget = FindBestMusicianTargetPlot(pGreatMusician, true);

	push	1
	mov	ecx, DWORD PTR _pGreatMusician$[ebp]
	push	ecx
	mov	ecx, DWORD PTR _this$[ebp]
	call	?FindBestMusicianTargetPlot@CvPlayerAI@@QAEPAVCvPlot@@PAVCvUnit@@_N@Z ; CvPlayerAI::FindBestMusicianTargetPlot
	mov	DWORD PTR _pTarget$226150[ebp], eax

; 1059 : 		if(pTarget)

	cmp	DWORD PTR _pTarget$226150[ebp], 0
	je	SHORT $LN2@GetDirecti@3

; 1060 : 		{
; 1061 : 			eDirective = GREAT_PEOPLE_DIRECTIVE_TOURISM_BLAST;

	mov	DWORD PTR _eDirective$[ebp], 5
$LN2@GetDirecti@3:

; 1062 : 		}
; 1063 : 	}
; 1064 : 
; 1065 : 	return eDirective;

	mov	eax, DWORD PTR _eDirective$[ebp]

; 1066 : }

	pop	esi
	mov	esp, ebp
	pop	ebp
	ret	4
?GetDirectiveMusician@CvPlayerAI@@QAE?AW4GreatPeopleDirectiveTypes@@PAVCvUnit@@@Z ENDP ; CvPlayerAI::GetDirectiveMusician
_TEXT	ENDS
EXTRN	?getGameTurnCreated@CvUnit@@QBEHXZ:PROC		; CvUnit::getGameTurnCreated
EXTRN	?IsGoingForWorldConquest@CvDiplomacyAI@@QAE_NXZ:PROC ; CvDiplomacyAI::IsGoingForWorldConquest
EXTRN	?ChooseWonder@CvWonderProductionAI@@QAE?AW4BuildingTypes@@_N0AAH@Z:PROC ; CvWonderProductionAI::ChooseWonder
EXTRN	?GetWonderProductionAI@CvPlayer@@QBEPAVCvWonderProductionAI@@XZ:PROC ; CvPlayer::GetWonderProductionAI
; Function compile flags: /Odtp
;	COMDAT ?GetDirectiveEngineer@CvPlayerAI@@QAE?AW4GreatPeopleDirectiveTypes@@PAVCvUnit@@@Z
_TEXT	SEGMENT
_this$ = -32						; size = 4
$T230998 = -28						; size = 4
$T230994 = -24						; size = 4
$T230990 = -20						; size = 4
$T230986 = -16						; size = 4
_eNextWonderDesired$226159 = -12			; size = 4
_iNextWonderWeight$226158 = -8				; size = 4
_eDirective$ = -4					; size = 4
_pGreatEngineer$ = 8					; size = 4
?GetDirectiveEngineer@CvPlayerAI@@QAE?AW4GreatPeopleDirectiveTypes@@PAVCvUnit@@@Z PROC ; CvPlayerAI::GetDirectiveEngineer, COMDAT
; _this$ = ecx

; 1069 : {

	push	ebp
	mov	ebp, esp
	sub	esp, 32					; 00000020H
	push	esi
	mov	DWORD PTR _this$[ebp], ecx

; 1070 : 	GreatPeopleDirectiveTypes eDirective = NO_GREAT_PEOPLE_DIRECTIVE_TYPE;

	mov	DWORD PTR _eDirective$[ebp], -1

; 1071 : 
; 1072 : 	// look for a wonder to rush
; 1073 : 	if(eDirective == NO_GREAT_PEOPLE_DIRECTIVE_TYPE)

	cmp	DWORD PTR _eDirective$[ebp], -1
	jne	SHORT $LN5@GetDirecti@4

; 1074 : 	{
; 1075 : 		int iNextWonderWeight;
; 1076 : 		BuildingTypes eNextWonderDesired = GetWonderProductionAI()->ChooseWonder(false /*bUseAsyncRandom*/, false /*bAdjustForOtherPlayers*/, iNextWonderWeight);

	lea	eax, DWORD PTR _iNextWonderWeight$226158[ebp]
	push	eax
	push	0
	push	0
	mov	ecx, DWORD PTR _this$[ebp]
	call	?GetWonderProductionAI@CvPlayer@@QBEPAVCvWonderProductionAI@@XZ ; CvPlayer::GetWonderProductionAI
	mov	ecx, eax
	call	?ChooseWonder@CvWonderProductionAI@@QAE?AW4BuildingTypes@@_N0AAH@Z ; CvWonderProductionAI::ChooseWonder
	mov	DWORD PTR _eNextWonderDesired$226159[ebp], eax

; 1077 : 		if(eNextWonderDesired != NO_BUILDING)

	cmp	DWORD PTR _eNextWonderDesired$226159[ebp], -1
	je	SHORT $LN5@GetDirecti@4

; 1078 : 		{
; 1079 : 			eDirective = GREAT_PEOPLE_DIRECTIVE_USE_POWER;

	mov	DWORD PTR _eDirective$[ebp], 1
$LN5@GetDirecti@4:

; 1080 : 		}
; 1081 : 	}
; 1082 : 
; 1083 : 	if (eDirective == NO_GREAT_PEOPLE_DIRECTIVE_TYPE && GC.getGame().getGameTurn() <= ((GC.getGame().getEstimateEndTurn() * 3) / 4))

	cmp	DWORD PTR _eDirective$[ebp], -1
	jne	SHORT $LN3@GetDirecti@4
	mov	ecx, DWORD PTR ?gGlobals@@3VCvGlobals@@A+48
	mov	DWORD PTR $T230986[ebp], ecx
	mov	edx, DWORD PTR ?gGlobals@@3VCvGlobals@@A+48
	mov	DWORD PTR $T230990[ebp], edx
	mov	ecx, DWORD PTR $T230986[ebp]
	call	?getGameTurn@CvGame@@QAEHXZ		; CvGame::getGameTurn
	mov	esi, eax
	mov	ecx, DWORD PTR $T230990[ebp]
	call	?getEstimateEndTurn@CvGame@@QBEHXZ	; CvGame::getEstimateEndTurn
	imul	eax, 3
	cdq
	and	edx, 3
	add	eax, edx
	sar	eax, 2
	cmp	esi, eax
	jg	SHORT $LN3@GetDirecti@4

; 1084 : 	{
; 1085 : 		if (GetDiplomacyAI()->IsGoingForWorldConquest())

	mov	ecx, DWORD PTR _this$[ebp]
	call	?GetDiplomacyAI@CvPlayer@@QBEPAVCvDiplomacyAI@@XZ ; CvPlayer::GetDiplomacyAI
	mov	ecx, eax
	call	?IsGoingForWorldConquest@CvDiplomacyAI@@QAE_NXZ ; CvDiplomacyAI::IsGoingForWorldConquest
	movzx	eax, al
	test	eax, eax
	je	SHORT $LN3@GetDirecti@4

; 1086 : 		{
; 1087 : 			eDirective = GREAT_PEOPLE_DIRECTIVE_CONSTRUCT_IMPROVEMENT;

	mov	DWORD PTR _eDirective$[ebp], 2
$LN3@GetDirecti@4:

; 1088 : 		}
; 1089 : 	}
; 1090 : 
; 1091 : 	if(eDirective == NO_GREAT_PEOPLE_DIRECTIVE_TYPE && (GC.getGame().getGameTurn() - pGreatEngineer->getGameTurnCreated()) >= GC.getAI_HOMELAND_GREAT_PERSON_TURNS_TO_WAIT())

	cmp	DWORD PTR _eDirective$[ebp], -1
	jne	SHORT $LN1@GetDirecti@4
	mov	ecx, DWORD PTR ?gGlobals@@3VCvGlobals@@A+48
	mov	DWORD PTR $T230994[ebp], ecx
	mov	edx, DWORD PTR ?gGlobals@@3VCvGlobals@@A+2700
	mov	DWORD PTR $T230998[ebp], edx
	mov	ecx, DWORD PTR $T230994[ebp]
	call	?getGameTurn@CvGame@@QAEHXZ		; CvGame::getGameTurn
	mov	esi, eax
	mov	ecx, DWORD PTR _pGreatEngineer$[ebp]
	call	?getGameTurnCreated@CvUnit@@QBEHXZ	; CvUnit::getGameTurnCreated
	sub	esi, eax
	cmp	esi, DWORD PTR $T230998[ebp]
	jl	SHORT $LN1@GetDirecti@4

; 1092 : 	{
; 1093 : 		eDirective = GREAT_PEOPLE_DIRECTIVE_CONSTRUCT_IMPROVEMENT;

	mov	DWORD PTR _eDirective$[ebp], 2
$LN1@GetDirecti@4:

; 1094 : 	}
; 1095 : 
; 1096 : 	return eDirective;

	mov	eax, DWORD PTR _eDirective$[ebp]

; 1097 : }

	pop	esi
	mov	esp, ebp
	pop	ebp
	ret	4
?GetDirectiveEngineer@CvPlayerAI@@QAE?AW4GreatPeopleDirectiveTypes@@PAVCvUnit@@@Z ENDP ; CvPlayerAI::GetDirectiveEngineer
_TEXT	ENDS
PUBLIC	?FindBestMerchantTargetPlot@CvPlayerAI@@QAEPAVCvPlot@@PAVCvUnit@@_N@Z ; CvPlayerAI::FindBestMerchantTargetPlot
; Function compile flags: /Odtp
;	COMDAT ?GetDirectiveMerchant@CvPlayerAI@@QAE?AW4GreatPeopleDirectiveTypes@@PAVCvUnit@@@Z
_TEXT	SEGMENT
_this$ = -40						; size = 4
$T231021 = -36						; size = 4
$T231017 = -32						; size = 4
$T231013 = -28						; size = 4
$T231009 = -24						; size = 4
$T231005 = -17						; size = 1
$T231004 = -16						; size = 4
_pTarget$226175 = -12					; size = 4
_bTheVeniceException$ = -5				; size = 1
_eDirective$ = -4					; size = 4
_pGreatMerchant$ = 8					; size = 4
?GetDirectiveMerchant@CvPlayerAI@@QAE?AW4GreatPeopleDirectiveTypes@@PAVCvUnit@@@Z PROC ; CvPlayerAI::GetDirectiveMerchant, COMDAT
; _this$ = ecx

; 1100 : {

	push	ebp
	mov	ebp, esp
	sub	esp, 40					; 00000028H
	push	esi
	mov	DWORD PTR _this$[ebp], ecx

; 1101 : 	GreatPeopleDirectiveTypes eDirective = NO_GREAT_PEOPLE_DIRECTIVE_TYPE;

	mov	DWORD PTR _eDirective$[ebp], -1

; 1102 : 
; 1103 : 	bool bTheVeniceException = false;

	mov	BYTE PTR _bTheVeniceException$[ebp], 0

; 1104 : 	if (GetPlayerTraits()->IsNoAnnexing())

	mov	ecx, DWORD PTR _this$[ebp]
	call	?GetPlayerTraits@CvPlayer@@QBEPAVCvPlayerTraits@@XZ ; CvPlayer::GetPlayerTraits
	mov	DWORD PTR $T231004[ebp], eax
	mov	eax, DWORD PTR $T231004[ebp]
	mov	cl, BYTE PTR [eax+351]
	mov	BYTE PTR $T231005[ebp], cl
	movzx	edx, BYTE PTR $T231005[ebp]
	test	edx, edx
	je	SHORT $LN7@GetDirecti@5

; 1105 : 	{
; 1106 : 		bTheVeniceException = true;

	mov	BYTE PTR _bTheVeniceException$[ebp], 1
$LN7@GetDirecti@5:

; 1107 : 	}
; 1108 : 
; 1109 : 	// if the merchant is in an army, he's already marching to a destination, so don't evaluate him
; 1110 : 	if(pGreatMerchant->getArmyID() != FFreeList::INVALID_INDEX)

	mov	ecx, DWORD PTR _pGreatMerchant$[ebp]
	call	?getArmyID@CvUnit@@QBEHXZ		; CvUnit::getArmyID
	cmp	eax, -1
	je	SHORT $LN6@GetDirecti@5

; 1111 : 	{
; 1112 : 		return NO_GREAT_PEOPLE_DIRECTIVE_TYPE;

	or	eax, -1
	jmp	$LN8@GetDirecti@5
$LN6@GetDirecti@5:

; 1113 : 	}
; 1114 : 
; 1115 : #ifdef AUI_WARNING_FIXES
; 1116 : 	if (GC.getGame().getGameTurn() <= ((GC.getGame().getEstimateEndTurn() * 2) / 4))
; 1117 : #else
; 1118 : 	if (eDirective == NO_GREAT_PEOPLE_DIRECTIVE_TYPE && GC.getGame().getGameTurn() <= ((GC.getGame().getEstimateEndTurn() * 2) / 4))

	cmp	DWORD PTR _eDirective$[ebp], -1
	jne	SHORT $LN5@GetDirecti@5
	mov	eax, DWORD PTR ?gGlobals@@3VCvGlobals@@A+48
	mov	DWORD PTR $T231009[ebp], eax
	mov	ecx, DWORD PTR ?gGlobals@@3VCvGlobals@@A+48
	mov	DWORD PTR $T231013[ebp], ecx
	mov	ecx, DWORD PTR $T231009[ebp]
	call	?getGameTurn@CvGame@@QAEHXZ		; CvGame::getGameTurn
	mov	esi, eax
	mov	ecx, DWORD PTR $T231013[ebp]
	call	?getEstimateEndTurn@CvGame@@QBEHXZ	; CvGame::getEstimateEndTurn
	shl	eax, 1
	cdq
	and	edx, 3
	add	eax, edx
	sar	eax, 2
	cmp	esi, eax
	jg	SHORT $LN5@GetDirecti@5

; 1119 : #endif
; 1120 : 	{
; 1121 : 		if (GetDiplomacyAI()->IsGoingForDiploVictory() && !bTheVeniceException)

	mov	ecx, DWORD PTR _this$[ebp]
	call	?GetDiplomacyAI@CvPlayer@@QBEPAVCvDiplomacyAI@@XZ ; CvPlayer::GetDiplomacyAI
	mov	ecx, eax
	call	?IsGoingForDiploVictory@CvDiplomacyAI@@QAE_NXZ ; CvDiplomacyAI::IsGoingForDiploVictory
	movzx	edx, al
	test	edx, edx
	je	SHORT $LN5@GetDirecti@5
	movzx	eax, BYTE PTR _bTheVeniceException$[ebp]
	test	eax, eax
	jne	SHORT $LN5@GetDirecti@5

; 1122 : 		{
; 1123 : 			eDirective = GREAT_PEOPLE_DIRECTIVE_CONSTRUCT_IMPROVEMENT;

	mov	DWORD PTR _eDirective$[ebp], 2
$LN5@GetDirecti@5:

; 1124 : 		}
; 1125 : 	}
; 1126 : 
; 1127 : 	// Attempt a run to a minor civ
; 1128 : 	if(eDirective == NO_GREAT_PEOPLE_DIRECTIVE_TYPE && IsSafe(this))

	cmp	DWORD PTR _eDirective$[ebp], -1
	jne	SHORT $LN3@GetDirecti@5
	mov	ecx, DWORD PTR _this$[ebp]
	push	ecx
	call	?IsSafe@@YA_NPAVCvPlayerAI@@@Z		; IsSafe
	add	esp, 4
	movzx	edx, al
	test	edx, edx
	je	SHORT $LN3@GetDirecti@5

; 1129 : 	{
; 1130 : 		CvPlot* pTarget = FindBestMerchantTargetPlot(pGreatMerchant, true);

	push	1
	mov	eax, DWORD PTR _pGreatMerchant$[ebp]
	push	eax
	mov	ecx, DWORD PTR _this$[ebp]
	call	?FindBestMerchantTargetPlot@CvPlayerAI@@QAEPAVCvPlot@@PAVCvUnit@@_N@Z ; CvPlayerAI::FindBestMerchantTargetPlot
	mov	DWORD PTR _pTarget$226175[ebp], eax

; 1131 : 		if(pTarget)

	cmp	DWORD PTR _pTarget$226175[ebp], 0
	je	SHORT $LN3@GetDirecti@5

; 1132 : 		{
; 1133 : 			eDirective = GREAT_PEOPLE_DIRECTIVE_USE_POWER;

	mov	DWORD PTR _eDirective$[ebp], 1
$LN3@GetDirecti@5:

; 1134 : 		}
; 1135 : 	}
; 1136 : 
; 1137 : 	if(eDirective == NO_GREAT_PEOPLE_DIRECTIVE_TYPE && (GC.getGame().getGameTurn() - pGreatMerchant->getGameTurnCreated()) >= GC.getAI_HOMELAND_GREAT_PERSON_TURNS_TO_WAIT() && !bTheVeniceException)

	cmp	DWORD PTR _eDirective$[ebp], -1
	jne	SHORT $LN1@GetDirecti@5
	mov	ecx, DWORD PTR ?gGlobals@@3VCvGlobals@@A+48
	mov	DWORD PTR $T231017[ebp], ecx
	mov	edx, DWORD PTR ?gGlobals@@3VCvGlobals@@A+2700
	mov	DWORD PTR $T231021[ebp], edx
	mov	ecx, DWORD PTR $T231017[ebp]
	call	?getGameTurn@CvGame@@QAEHXZ		; CvGame::getGameTurn
	mov	esi, eax
	mov	ecx, DWORD PTR _pGreatMerchant$[ebp]
	call	?getGameTurnCreated@CvUnit@@QBEHXZ	; CvUnit::getGameTurnCreated
	sub	esi, eax
	cmp	esi, DWORD PTR $T231021[ebp]
	jl	SHORT $LN1@GetDirecti@5
	movzx	eax, BYTE PTR _bTheVeniceException$[ebp]
	test	eax, eax
	jne	SHORT $LN1@GetDirecti@5

; 1138 : 	{
; 1139 : 		eDirective = GREAT_PEOPLE_DIRECTIVE_CONSTRUCT_IMPROVEMENT;

	mov	DWORD PTR _eDirective$[ebp], 2
$LN1@GetDirecti@5:

; 1140 : 	}
; 1141 : 
; 1142 : 	return eDirective;

	mov	eax, DWORD PTR _eDirective$[ebp]
$LN8@GetDirecti@5:

; 1143 : }

	pop	esi
	mov	esp, ebp
	pop	ebp
	ret	4
?GetDirectiveMerchant@CvPlayerAI@@QAE?AW4GreatPeopleDirectiveTypes@@PAVCvUnit@@@Z ENDP ; CvPlayerAI::GetDirectiveMerchant
; Function compile flags: /Odtp
_TEXT	ENDS
;	COMDAT ?GetDirectiveScientist@CvPlayerAI@@QAE?AW4GreatPeopleDirectiveTypes@@PAVCvUnit@@@Z
_TEXT	SEGMENT
_this$ = -16						; size = 4
$T231031 = -12						; size = 4
$T231027 = -8						; size = 4
_eDirective$ = -4					; size = 4
___formal$ = 8						; size = 4
?GetDirectiveScientist@CvPlayerAI@@QAE?AW4GreatPeopleDirectiveTypes@@PAVCvUnit@@@Z PROC ; CvPlayerAI::GetDirectiveScientist, COMDAT
; _this$ = ecx

; 1146 : {

	push	ebp
	mov	ebp, esp
	sub	esp, 16					; 00000010H
	push	esi
	mov	DWORD PTR _this$[ebp], ecx

; 1147 : 	GreatPeopleDirectiveTypes eDirective = NO_GREAT_PEOPLE_DIRECTIVE_TYPE;

	mov	DWORD PTR _eDirective$[ebp], -1

; 1148 : 
; 1149 : 	// If I'm in danger, use great person to get a tech boost
; 1150 : #ifdef AUI_WARNING_FIXES
; 1151 : 	if (!IsSafe(this))
; 1152 : #else
; 1153 : 	if(eDirective == NO_GREAT_PEOPLE_DIRECTIVE_TYPE && !IsSafe(this))

	cmp	DWORD PTR _eDirective$[ebp], -1
	jne	SHORT $LN4@GetDirecti@6
	mov	eax, DWORD PTR _this$[ebp]
	push	eax
	call	?IsSafe@@YA_NPAVCvPlayerAI@@@Z		; IsSafe
	add	esp, 4
	movzx	ecx, al
	test	ecx, ecx
	jne	SHORT $LN4@GetDirecti@6

; 1154 : #endif
; 1155 : 	{
; 1156 : 		eDirective = GREAT_PEOPLE_DIRECTIVE_USE_POWER;

	mov	DWORD PTR _eDirective$[ebp], 1
$LN4@GetDirecti@6:

; 1157 : 	}
; 1158 : 
; 1159 : 	if(eDirective == NO_GREAT_PEOPLE_DIRECTIVE_TYPE && GC.getGame().getGameTurn() <= ((GC.getGame().getEstimateEndTurn() * 1) / 4))

	cmp	DWORD PTR _eDirective$[ebp], -1
	jne	SHORT $LN3@GetDirecti@6
	mov	edx, DWORD PTR ?gGlobals@@3VCvGlobals@@A+48
	mov	DWORD PTR $T231027[ebp], edx
	mov	eax, DWORD PTR ?gGlobals@@3VCvGlobals@@A+48
	mov	DWORD PTR $T231031[ebp], eax
	mov	ecx, DWORD PTR $T231027[ebp]
	call	?getGameTurn@CvGame@@QAEHXZ		; CvGame::getGameTurn
	mov	esi, eax
	mov	ecx, DWORD PTR $T231031[ebp]
	call	?getEstimateEndTurn@CvGame@@QBEHXZ	; CvGame::getEstimateEndTurn
	cdq
	and	edx, 3
	add	eax, edx
	sar	eax, 2
	cmp	esi, eax
	jg	SHORT $LN3@GetDirecti@6

; 1160 : 	{
; 1161 : 		if(GetDiplomacyAI()->IsGoingForSpaceshipVictory())

	mov	ecx, DWORD PTR _this$[ebp]
	call	?GetDiplomacyAI@CvPlayer@@QBEPAVCvDiplomacyAI@@XZ ; CvPlayer::GetDiplomacyAI
	mov	ecx, eax
	call	?IsGoingForSpaceshipVictory@CvDiplomacyAI@@QAE_NXZ ; CvDiplomacyAI::IsGoingForSpaceshipVictory
	movzx	ecx, al
	test	ecx, ecx
	je	SHORT $LN3@GetDirecti@6

; 1162 : 		{
; 1163 : 			eDirective = GREAT_PEOPLE_DIRECTIVE_CONSTRUCT_IMPROVEMENT;

	mov	DWORD PTR _eDirective$[ebp], 2
$LN3@GetDirecti@6:

; 1164 : 		}
; 1165 : 	}
; 1166 : 
; 1167 : 	if (eDirective == NO_GREAT_PEOPLE_DIRECTIVE_TYPE)

	cmp	DWORD PTR _eDirective$[ebp], -1
	jne	SHORT $LN1@GetDirecti@6

; 1168 : 	{
; 1169 : 		// a tech boost is never bad
; 1170 : 		eDirective = GREAT_PEOPLE_DIRECTIVE_USE_POWER;

	mov	DWORD PTR _eDirective$[ebp], 1
$LN1@GetDirecti@6:

; 1171 : 	}
; 1172 : 
; 1173 : 	return eDirective;

	mov	eax, DWORD PTR _eDirective$[ebp]

; 1174 : }

	pop	esi
	mov	esp, ebp
	pop	ebp
	ret	4
?GetDirectiveScientist@CvPlayerAI@@QAE?AW4GreatPeopleDirectiveTypes@@PAVCvUnit@@@Z ENDP ; CvPlayerAI::GetDirectiveScientist
_TEXT	ENDS
EXTRN	?GetGreatPeopleDirective@CvUnit@@QBE?AW4GreatPeopleDirectiveTypes@@XZ:PROC ; CvUnit::GetGreatPeopleDirective
; Function compile flags: /Odtp
;	COMDAT ?GetDirectiveGeneral@CvPlayerAI@@QAE?AW4GreatPeopleDirectiveTypes@@PAVCvUnit@@@Z
_TEXT	SEGMENT
_this$ = -36						; size = 4
$T231047 = -32						; size = 4
$T231038 = -28						; size = 4
$T231037 = -24						; size = 4
_pLoopUnit$226196 = -20					; size = 4
_eSpecialUnitGreatPerson$ = -16				; size = 4
_iGreatGeneralCount$ = -12				; size = 4
_eDirective$ = -8					; size = 4
_iLoop$ = -4						; size = 4
_pGreatGeneral$ = 8					; size = 4
?GetDirectiveGeneral@CvPlayerAI@@QAE?AW4GreatPeopleDirectiveTypes@@PAVCvUnit@@@Z PROC ; CvPlayerAI::GetDirectiveGeneral, COMDAT
; _this$ = ecx

; 1177 : {

	push	ebp
	mov	ebp, esp
	sub	esp, 36					; 00000024H
	mov	DWORD PTR _this$[ebp], ecx

; 1178 : 	GreatPeopleDirectiveTypes eDirective = NO_GREAT_PEOPLE_DIRECTIVE_TYPE;

	mov	DWORD PTR _eDirective$[ebp], -1

; 1179 : 
; 1180 : 	SpecialUnitTypes eSpecialUnitGreatPerson = (SpecialUnitTypes) GC.getInfoTypeForString("SPECIALUNIT_PEOPLE");

	push	0
	push	OFFSET ??_C@_0BD@NNACGNOP@SPECIALUNIT_PEOPLE?$AA@
	mov	ecx, OFFSET ?gGlobals@@3VCvGlobals@@A	; gGlobals
	call	?getInfoTypeForString@CvGlobals@@QBEHPBD_N@Z ; CvGlobals::getInfoTypeForString
	mov	DWORD PTR _eSpecialUnitGreatPerson$[ebp], eax

; 1181 : 
; 1182 : 	int iGreatGeneralCount = 0;

	mov	DWORD PTR _iGreatGeneralCount$[ebp], 0

; 1183 : 
; 1184 : 	int iLoop;
; 1185 : 	for(CvUnit* pLoopUnit = firstUnit(&iLoop); pLoopUnit; pLoopUnit = nextUnit(&iLoop))

	push	0
	lea	eax, DWORD PTR _iLoop$[ebp]
	push	eax
	mov	ecx, DWORD PTR _this$[ebp]
	call	?firstUnit@CvPlayer@@QAEPAVCvUnit@@PAH_N@Z ; CvPlayer::firstUnit
	mov	DWORD PTR _pLoopUnit$226196[ebp], eax
	jmp	SHORT $LN6@GetDirecti@7
$LN5@GetDirecti@7:
	push	0
	lea	ecx, DWORD PTR _iLoop$[ebp]
	push	ecx
	mov	ecx, DWORD PTR _this$[ebp]
	call	?nextUnit@CvPlayer@@QAEPAVCvUnit@@PAH_N@Z ; CvPlayer::nextUnit
	mov	DWORD PTR _pLoopUnit$226196[ebp], eax
$LN6@GetDirecti@7:
	cmp	DWORD PTR _pLoopUnit$226196[ebp], 0
	je	SHORT $LN4@GetDirecti@7

; 1186 : 	{
; 1187 : 		if(pLoopUnit->getSpecialUnitType() != eSpecialUnitGreatPerson)

	mov	ecx, DWORD PTR _pLoopUnit$226196[ebp]
	call	?getSpecialUnitType@CvUnit@@QBE?AW4SpecialUnitTypes@@XZ ; CvUnit::getSpecialUnitType
	cmp	eax, DWORD PTR _eSpecialUnitGreatPerson$[ebp]
	je	SHORT $LN3@GetDirecti@7

; 1188 : 		{
; 1189 : 			continue;

	jmp	SHORT $LN5@GetDirecti@7
$LN3@GetDirecti@7:

; 1190 : 		}
; 1191 : 
; 1192 : 		if(pLoopUnit->AI_getUnitAIType() == UNITAI_GENERAL && pLoopUnit->GetGreatPeopleDirective() != GREAT_PEOPLE_DIRECTIVE_GOLDEN_AGE)

	mov	ecx, DWORD PTR _pLoopUnit$226196[ebp]
	call	?AI_getUnitAIType@CvUnit@@QBE?AW4UnitAITypes@@XZ ; CvUnit::AI_getUnitAIType
	cmp	eax, 13					; 0000000dH
	jne	SHORT $LN2@GetDirecti@7
	mov	ecx, DWORD PTR _pLoopUnit$226196[ebp]
	call	?GetGreatPeopleDirective@CvUnit@@QBE?AW4GreatPeopleDirectiveTypes@@XZ ; CvUnit::GetGreatPeopleDirective
	test	eax, eax
	je	SHORT $LN2@GetDirecti@7

; 1193 : 		{
; 1194 : 			iGreatGeneralCount++;

	mov	edx, DWORD PTR _iGreatGeneralCount$[ebp]
	add	edx, 1
	mov	DWORD PTR _iGreatGeneralCount$[ebp], edx
$LN2@GetDirecti@7:

; 1195 : 		}
; 1196 : 	}

	jmp	SHORT $LN5@GetDirecti@7
$LN4@GetDirecti@7:

; 1197 : 
; 1198 : 	if(iGreatGeneralCount > 2 && pGreatGeneral->plot()->getOwner() == pGreatGeneral->getOwner())

	cmp	DWORD PTR _iGreatGeneralCount$[ebp], 2
	jle	SHORT $LN1@GetDirecti@7
	mov	ecx, DWORD PTR _pGreatGeneral$[ebp]
	call	?plot@CvUnit@@QBEPAVCvPlot@@XZ		; CvUnit::plot
	mov	DWORD PTR $T231037[ebp], eax
	mov	eax, DWORD PTR $T231037[ebp]
	movsx	ecx, BYTE PTR [eax+4]
	mov	DWORD PTR $T231038[ebp], ecx
	mov	edx, DWORD PTR _pGreatGeneral$[ebp]
	mov	eax, DWORD PTR [edx+40]
	mov	DWORD PTR $T231047[ebp], eax
	mov	ecx, DWORD PTR $T231038[ebp]
	cmp	ecx, DWORD PTR $T231047[ebp]
	jne	SHORT $LN1@GetDirecti@7

; 1199 : 	{
; 1200 : 		// we're using a power at this point because constructing the improvement goes through different code
; 1201 : 		eDirective = GREAT_PEOPLE_DIRECTIVE_USE_POWER;

	mov	DWORD PTR _eDirective$[ebp], 1
$LN1@GetDirecti@7:

; 1202 : 	}
; 1203 : 
; 1204 : 	return eDirective;

	mov	eax, DWORD PTR _eDirective$[ebp]

; 1205 : }

	mov	esp, ebp
	pop	ebp
	ret	4
?GetDirectiveGeneral@CvPlayerAI@@QAE?AW4GreatPeopleDirectiveTypes@@PAVCvUnit@@@Z ENDP ; CvPlayerAI::GetDirectiveGeneral
_TEXT	ENDS
EXTRN	?GetNumReligionsStillToFound@CvGameReligions@@QBEHXZ:PROC ; CvGameReligions::GetNumReligionsStillToFound
EXTRN	?ChooseProphetConversionCity@CvReligionAI@@QBEPAVCvCity@@_N@Z:PROC ; CvReligionAI::ChooseProphetConversionCity
EXTRN	?GetReligionAI@CvPlayer@@QBEPAVCvReligionAI@@XZ:PROC ; CvPlayer::GetReligionAI
EXTRN	?GetReligion@CvGameReligions@@QBEPBVCvReligion@@W4ReligionTypes@@W4PlayerTypes@@@Z:PROC ; CvGameReligions::GetReligion
EXTRN	?GetGameReligions@CvGame@@QAEPAVCvGameReligions@@XZ:PROC ; CvGame::GetGameReligions
EXTRN	?GetReligionCreatedByPlayer@CvPlayerReligions@@QBE?AW4ReligionTypes@@XZ:PROC ; CvPlayerReligions::GetReligionCreatedByPlayer
EXTRN	?GetReligions@CvPlayer@@QBEPAVCvPlayerReligions@@XZ:PROC ; CvPlayer::GetReligions
; Function compile flags: /Odtp
;	COMDAT ?GetDirectiveProphet@CvPlayerAI@@QAE?AW4GreatPeopleDirectiveTypes@@PAVCvUnit@@@Z
_TEXT	SEGMENT
_this$ = -28						; size = 4
$T231066 = -24						; size = 4
$T231062 = -20						; size = 4
$T231058 = -16						; size = 4
_eReligion$ = -12					; size = 4
_pMyReligion$ = -8					; size = 4
_eDirective$ = -4					; size = 4
___formal$ = 8						; size = 4
?GetDirectiveProphet@CvPlayerAI@@QAE?AW4GreatPeopleDirectiveTypes@@PAVCvUnit@@@Z PROC ; CvPlayerAI::GetDirectiveProphet, COMDAT
; _this$ = ecx

; 1208 : {

	push	ebp
	mov	ebp, esp
	sub	esp, 28					; 0000001cH
	mov	DWORD PTR _this$[ebp], ecx

; 1209 : 	GreatPeopleDirectiveTypes eDirective = NO_GREAT_PEOPLE_DIRECTIVE_TYPE;

	mov	DWORD PTR _eDirective$[ebp], -1

; 1210 : 
; 1211 : 	ReligionTypes eReligion = GetReligions()->GetReligionCreatedByPlayer();

	mov	ecx, DWORD PTR _this$[ebp]
	call	?GetReligions@CvPlayer@@QBEPAVCvPlayerReligions@@XZ ; CvPlayer::GetReligions
	mov	ecx, eax
	call	?GetReligionCreatedByPlayer@CvPlayerReligions@@QBE?AW4ReligionTypes@@XZ ; CvPlayerReligions::GetReligionCreatedByPlayer
	mov	DWORD PTR _eReligion$[ebp], eax

; 1212 : 	const CvReligion* pMyReligion = GC.getGame().GetGameReligions()->GetReligion(eReligion, GetID());

	mov	eax, DWORD PTR _this$[ebp]
	mov	ecx, DWORD PTR [eax+44]
	mov	DWORD PTR $T231058[ebp], ecx
	mov	edx, DWORD PTR ?gGlobals@@3VCvGlobals@@A+48
	mov	DWORD PTR $T231062[ebp], edx
	mov	eax, DWORD PTR $T231058[ebp]
	push	eax
	mov	ecx, DWORD PTR _eReligion$[ebp]
	push	ecx
	mov	ecx, DWORD PTR $T231062[ebp]
	call	?GetGameReligions@CvGame@@QAEPAVCvGameReligions@@XZ ; CvGame::GetGameReligions
	mov	ecx, eax
	call	?GetReligion@CvGameReligions@@QBEPBVCvReligion@@W4ReligionTypes@@W4PlayerTypes@@@Z ; CvGameReligions::GetReligion
	mov	DWORD PTR _pMyReligion$[ebp], eax

; 1213 : 
; 1214 : 	// CASE 1: I have an enhanced religion
; 1215 : 	if (pMyReligion && pMyReligion->m_bEnhanced)

	cmp	DWORD PTR _pMyReligion$[ebp], 0
	je	SHORT $LN10@GetDirecti@8
	mov	edx, DWORD PTR _pMyReligion$[ebp]
	movzx	eax, BYTE PTR [edx+21]
	test	eax, eax
	je	SHORT $LN10@GetDirecti@8

; 1216 : 	{
; 1217 : 		// Spread religion if there is any city that needs it
; 1218 : 		if (GetReligionAI()->ChooseProphetConversionCity(false/*bOnlyBetterThanEnhancingReligion*/))

	push	0
	mov	ecx, DWORD PTR _this$[ebp]
	call	?GetReligionAI@CvPlayer@@QBEPAVCvReligionAI@@XZ ; CvPlayer::GetReligionAI
	mov	ecx, eax
	call	?ChooseProphetConversionCity@CvReligionAI@@QBEPAVCvCity@@_N@Z ; CvReligionAI::ChooseProphetConversionCity
	test	eax, eax
	je	SHORT $LN9@GetDirecti@8

; 1219 : 		{
; 1220 : 			eDirective = GREAT_PEOPLE_DIRECTIVE_SPREAD_RELIGION;

	mov	DWORD PTR _eDirective$[ebp], 3

; 1221 : 		}
; 1222 : 		else

	jmp	SHORT $LN8@GetDirecti@8
$LN9@GetDirecti@8:

; 1223 : 		{
; 1224 : 			eDirective = GREAT_PEOPLE_DIRECTIVE_CONSTRUCT_IMPROVEMENT;

	mov	DWORD PTR _eDirective$[ebp], 2
$LN8@GetDirecti@8:

; 1225 : 		}

	jmp	SHORT $LN7@GetDirecti@8
$LN10@GetDirecti@8:

; 1226 : 	}
; 1227 : 
; 1228 : 
; 1229 : 	// CASE 2: I have a religion that hasn't yet been enhanced
; 1230 : 	else if (pMyReligion)

	cmp	DWORD PTR _pMyReligion$[ebp], 0
	je	SHORT $LN6@GetDirecti@8

; 1231 : 	{
; 1232 : 		// Spread religion if there is a city that needs it CRITICALLY
; 1233 : 		if (GetReligionAI()->ChooseProphetConversionCity(true/*bOnlyBetterThanEnhancingReligion*/))

	push	1
	mov	ecx, DWORD PTR _this$[ebp]
	call	?GetReligionAI@CvPlayer@@QBEPAVCvReligionAI@@XZ ; CvPlayer::GetReligionAI
	mov	ecx, eax
	call	?ChooseProphetConversionCity@CvReligionAI@@QBEPAVCvCity@@_N@Z ; CvReligionAI::ChooseProphetConversionCity
	test	eax, eax
	je	SHORT $LN5@GetDirecti@8

; 1234 : 		{
; 1235 : 			eDirective = GREAT_PEOPLE_DIRECTIVE_SPREAD_RELIGION;

	mov	DWORD PTR _eDirective$[ebp], 3

; 1236 : 		}
; 1237 : 		else

	jmp	SHORT $LN4@GetDirecti@8
$LN5@GetDirecti@8:

; 1238 : 		{
; 1239 : 			eDirective = GREAT_PEOPLE_DIRECTIVE_USE_POWER;

	mov	DWORD PTR _eDirective$[ebp], 1
$LN4@GetDirecti@8:

; 1240 : 		}
; 1241 : 	}
; 1242 : 
; 1243 : 	// CASE 3: No religion for me yet
; 1244 : 	else

	jmp	SHORT $LN7@GetDirecti@8
$LN6@GetDirecti@8:

; 1245 : 	{
; 1246 : 		// Locked out?
; 1247 : 		if (GC.getGame().GetGameReligions()->GetNumReligionsStillToFound() <= 0)

	mov	ecx, DWORD PTR ?gGlobals@@3VCvGlobals@@A+48
	mov	DWORD PTR $T231066[ebp], ecx
	mov	ecx, DWORD PTR $T231066[ebp]
	call	?GetGameReligions@CvGame@@QAEPAVCvGameReligions@@XZ ; CvGame::GetGameReligions
	mov	ecx, eax
	call	?GetNumReligionsStillToFound@CvGameReligions@@QBEHXZ ; CvGameReligions::GetNumReligionsStillToFound
	test	eax, eax
	jg	SHORT $LN2@GetDirecti@8

; 1248 : 		{
; 1249 : 			eDirective = GREAT_PEOPLE_DIRECTIVE_CONSTRUCT_IMPROVEMENT;

	mov	DWORD PTR _eDirective$[ebp], 2

; 1250 : 		}
; 1251 : 
; 1252 : 		// Not locked out
; 1253 : 		else

	jmp	SHORT $LN7@GetDirecti@8
$LN2@GetDirecti@8:

; 1254 : 		{
; 1255 : 			eDirective = GREAT_PEOPLE_DIRECTIVE_USE_POWER;

	mov	DWORD PTR _eDirective$[ebp], 1
$LN7@GetDirecti@8:

; 1256 : 		}
; 1257 : 	}
; 1258 : 
; 1259 : 	return eDirective;

	mov	eax, DWORD PTR _eDirective$[ebp]

; 1260 : }

	mov	esp, ebp
	pop	ebp
	ret	4
?GetDirectiveProphet@CvPlayerAI@@QAE?AW4GreatPeopleDirectiveTypes@@PAVCvUnit@@@Z ENDP ; CvPlayerAI::GetDirectiveProphet
; Function compile flags: /Odtp
_TEXT	ENDS
;	COMDAT ?GetDirectiveAdmiral@CvPlayerAI@@QAE?AW4GreatPeopleDirectiveTypes@@PAVCvUnit@@@Z
_TEXT	SEGMENT
_this$ = -8						; size = 4
_eDirective$ = -4					; size = 4
___formal$ = 8						; size = 4
?GetDirectiveAdmiral@CvPlayerAI@@QAE?AW4GreatPeopleDirectiveTypes@@PAVCvUnit@@@Z PROC ; CvPlayerAI::GetDirectiveAdmiral, COMDAT
; _this$ = ecx

; 1263 : {

	push	ebp
	mov	ebp, esp
	sub	esp, 8
	mov	DWORD PTR _this$[ebp], ecx

; 1264 : 	GreatPeopleDirectiveTypes eDirective = NO_GREAT_PEOPLE_DIRECTIVE_TYPE;

	mov	DWORD PTR _eDirective$[ebp], -1

; 1265 : 
; 1266 : 	return eDirective;

	mov	eax, DWORD PTR _eDirective$[ebp]

; 1267 : }

	mov	esp, ebp
	pop	ebp
	ret	4
?GetDirectiveAdmiral@CvPlayerAI@@QAE?AW4GreatPeopleDirectiveTypes@@PAVCvUnit@@@Z ENDP ; CvPlayerAI::GetDirectiveAdmiral
_TEXT	ENDS
PUBLIC	?GreatMerchantWantsCash@CvPlayerAI@@QAE_NXZ	; CvPlayerAI::GreatMerchantWantsCash
; Function compile flags: /Odtp
;	COMDAT ?GreatMerchantWantsCash@CvPlayerAI@@QAE_NXZ
_TEXT	SEGMENT
_this$ = -12						; size = 4
$T231074 = -8						; size = 4
_bIsVenice$ = -1					; size = 1
?GreatMerchantWantsCash@CvPlayerAI@@QAE_NXZ PROC	; CvPlayerAI::GreatMerchantWantsCash, COMDAT
; _this$ = ecx

; 1270 : {

	push	ebp
	mov	ebp, esp
	sub	esp, 12					; 0000000cH
	mov	DWORD PTR _this$[ebp], ecx

; 1271 : 	// slewis - everybody wants cash . . .
; 1272 : 	// slewis - . . . except Venice. Venice wants to buy city states, unless it already has enough cities, then it doesn't want city states.
; 1273 : 	bool bIsVenice = GetPlayerTraits()->IsNoAnnexing();

	mov	ecx, DWORD PTR _this$[ebp]
	call	?GetPlayerTraits@CvPlayer@@QBEPAVCvPlayerTraits@@XZ ; CvPlayer::GetPlayerTraits
	mov	DWORD PTR $T231074[ebp], eax
	mov	eax, DWORD PTR $T231074[ebp]
	mov	cl, BYTE PTR [eax+351]
	mov	BYTE PTR _bIsVenice$[ebp], cl

; 1274 : 	if (bIsVenice)

	movzx	edx, BYTE PTR _bIsVenice$[ebp]
	test	edx, edx
	je	SHORT $LN3@GreatMerch

; 1275 : 	{
; 1276 : 		if (getNumCities() >= 4)

	mov	ecx, DWORD PTR _this$[ebp]
	call	?getNumCities@CvPlayer@@QBEHXZ		; CvPlayer::getNumCities
	cmp	eax, 4
	jl	SHORT $LN2@GreatMerch

; 1277 : 		{
; 1278 : 			return true;

	mov	al, 1
	jmp	SHORT $LN4@GreatMerch

; 1279 : 		}
; 1280 : 		else

	jmp	SHORT $LN3@GreatMerch
$LN2@GreatMerch:

; 1281 : 		{
; 1282 : 			return false;

	xor	al, al
	jmp	SHORT $LN4@GreatMerch
$LN3@GreatMerch:

; 1283 : 		}
; 1284 : 	}
; 1285 : 
; 1286 : 	return true;

	mov	al, 1
$LN4@GreatMerch:

; 1287 : }

	mov	esp, ebp
	pop	ebp
	ret	0
?GreatMerchantWantsCash@CvPlayerAI@@QAE_NXZ ENDP	; CvPlayerAI::GreatMerchantWantsCash
_TEXT	ENDS
PUBLIC	??1?$FObjectHandle@VCvUnit@@@@QAE@XZ		; FObjectHandle<CvUnit>::~FObjectHandle<CvUnit>
PUBLIC	?plotDirection@@YAPAVCvPlot@@HHW4DirectionTypes@@@Z ; plotDirection
EXTRN	?TurnsToReachTarget@@YAHV?$FObjectHandle@VCvUnit@@@@PAVCvPlot@@_N22@Z:PROC ; TurnsToReachTarget
EXTRN	?GetWarGoal@CvDiplomacyAI@@QBE?AW4WarGoalTypes@@W4PlayerTypes@@@Z:PROC ; CvDiplomacyAI::GetWarGoal
EXTRN	?GetMinorCivApproach@CvDiplomacyAI@@QBE?AW4MinorCivApproachTypes@@W4PlayerTypes@@@Z:PROC ; CvDiplomacyAI::GetMinorCivApproach
EXTRN	?getStartingPlot@CvPlayer@@QBEPAVCvPlot@@XZ:PROC ; CvPlayer::getStartingPlot
EXTRN	?getDestructionNotification@CvUnit@@QAEAAU?$DestructionNotification@V?$FObjectHandle@VCvUnit@@@@@@XZ:PROC ; CvUnit::getDestructionNotification
;	COMDAT xdata$x
; File d:\sources\lekmod_git\checkout\lekmod_dll\fireplace\include\fireworks\fobjecthandle.h
xdata$x	SEGMENT
__unwindtable$?FindBestMerchantTargetPlot@CvPlayerAI@@QAEPAVCvPlot@@PAVCvUnit@@_N@Z DD 0ffffffffH
	DD	FLAT:__unwindfunclet$?FindBestMerchantTargetPlot@CvPlayerAI@@QAEPAVCvPlot@@PAVCvUnit@@_N@Z$0
__ehfuncinfo$?FindBestMerchantTargetPlot@CvPlayerAI@@QAEPAVCvPlot@@PAVCvUnit@@_N@Z DD 019930522H
	DD	01H
	DD	FLAT:__unwindtable$?FindBestMerchantTargetPlot@CvPlayerAI@@QAEPAVCvPlot@@PAVCvUnit@@_N@Z
	DD	2 DUP(00H)
	DD	2 DUP(00H)
	DD	00H
	DD	01H
; Function compile flags: /Odtp
; File d:\sources\lekmod_git\checkout\lekmod_dll\cvgamecoredll_expansion2\cvplayerai.cpp
xdata$x	ENDS
;	COMDAT ?FindBestMerchantTargetPlot@CvPlayerAI@@QAEPAVCvPlot@@PAVCvUnit@@_N@Z
_TEXT	SEGMENT
tv237 = -204						; size = 4
tv236 = -200						; size = 4
_this$ = -196						; size = 4
$T231343 = -192						; size = 4
_uiOffset$231332 = -188					; size = 4
$T231323 = -184						; size = 4
$T231158 = -108						; size = 4
$T231154 = -104						; size = 4
$T231150 = -100						; size = 4
$T231141 = -96						; size = 4
$T231132 = -92						; size = 4
_uiOffset$231122 = -88					; size = 4
$T231113 = -84						; size = 4
$T231098 = -80						; size = 4
$T231078 = -76						; size = 4
$T231077 = -72						; size = 4
_bRightOwner$226265 = -66				; size = 1
_bIsRevealed$226267 = -65				; size = 1
_pAdjacentPlot$226262 = -64				; size = 4
_jJ$226258 = -60					; size = 4
_bMinorCivApproachIsCorrect$226254 = -53		; size = 1
_pCSPlot$226251 = -52					; size = 4
_bNotPlanningAWar$226256 = -46				; size = 1
_bNotAtWar$226255 = -45					; size = 1
_kPlayer$226248 = -44					; size = 4
_iI$226244 = -40					; size = 4
_pBestTargetPlot$ = -36					; size = 4
_iBestTurnsToReach$ = -32				; size = 4
_pMerchant$ = -28					; size = 8
_iPathTurns$ = -20					; size = 4
_kTeam$ = -16						; size = 4
__$EHRec$ = -12						; size = 12
_pGreatMerchant$ = 8					; size = 4
_bOnlySafePaths$ = 12					; size = 1
?FindBestMerchantTargetPlot@CvPlayerAI@@QAEPAVCvPlot@@PAVCvUnit@@_N@Z PROC ; CvPlayerAI::FindBestMerchantTargetPlot, COMDAT
; _this$ = ecx

; 1290 : {

	push	ebp
	mov	ebp, esp
	push	-1
	push	__ehhandler$?FindBestMerchantTargetPlot@CvPlayerAI@@QAEPAVCvPlot@@PAVCvUnit@@_N@Z
	mov	eax, DWORD PTR fs:0
	push	eax
	sub	esp, 192				; 000000c0H
	mov	eax, DWORD PTR ___security_cookie
	xor	eax, ebp
	push	eax
	lea	eax, DWORD PTR __$EHRec$[ebp]
	mov	DWORD PTR fs:0, eax
	mov	DWORD PTR _this$[ebp], ecx

; 1291 : 	CvAssertMsg(pGreatMerchant, "pGreatMerchant is null");
; 1292 : 	if(!pGreatMerchant)

	cmp	DWORD PTR _pGreatMerchant$[ebp], 0
	jne	SHORT $LN14@FindBestMe

; 1293 : 	{
; 1294 : 		return NULL;

	xor	eax, eax
	jmp	$LN15@FindBestMe
$LN14@FindBestMe:

; 1295 : 	}
; 1296 : 
; 1297 : 	int iBestTurnsToReach = MAX_INT;

	mov	DWORD PTR _iBestTurnsToReach$[ebp], 2147483647 ; 7fffffffH

; 1298 : 	CvPlot* pBestTargetPlot = NULL;

	mov	DWORD PTR _pBestTargetPlot$[ebp], 0

; 1299 : 	int iPathTurns;
; 1300 : 	UnitHandle pMerchant = UnitHandle(pGreatMerchant);

	mov	eax, DWORD PTR _pGreatMerchant$[ebp]
	mov	DWORD PTR _pMerchant$[ebp], eax
	mov	BYTE PTR _pMerchant$[ebp+4], 0
	cmp	DWORD PTR _pMerchant$[ebp], 0
	je	SHORT $LN20@FindBestMe
	mov	ecx, DWORD PTR _pMerchant$[ebp]
	call	?getDestructionNotification@CvUnit@@QAEAAU?$DestructionNotification@V?$FObjectHandle@VCvUnit@@@@@@XZ ; CvUnit::getDestructionNotification
$LN20@FindBestMe:
	mov	DWORD PTR __$EHRec$[ebp+8], 0

; 1301 : 	CvTeam& kTeam = GET_TEAM(getTeam());

	mov	ecx, DWORD PTR _this$[ebp]
	mov	edx, DWORD PTR [ecx+44]
	push	edx
	call	?teamType@CvPreGame@@YA?AW4TeamTypes@@W4PlayerTypes@@@Z ; CvPreGame::teamType
	add	esp, 4
	mov	DWORD PTR $T231098[ebp], eax
	mov	eax, DWORD PTR $T231098[ebp]
	imul	eax, 2984				; 00000ba8H
	add	eax, DWORD PTR ?m_aTeams@CvTeam@@1PAV1@A ; CvTeam::m_aTeams
	mov	DWORD PTR _kTeam$[ebp], eax

; 1302 : 
; 1303 : 	//bool bIsVenice = GetPlayerTraits()->IsNoAnnexing();
; 1304 : 	//bool bWantsCash = GreatMerchantWantsCash();
; 1305 : 
; 1306 : 	// Loop through each city state
; 1307 : 	for(int iI = 0; iI < MAX_PLAYERS; iI++)

	mov	DWORD PTR _iI$226244[ebp], 0
	jmp	SHORT $LN13@FindBestMe
$LN12@FindBestMe:
	mov	ecx, DWORD PTR _iI$226244[ebp]
	add	ecx, 1
	mov	DWORD PTR _iI$226244[ebp], ecx
$LN13@FindBestMe:
	cmp	DWORD PTR _iI$226244[ebp], 64		; 00000040H
	jge	$LN11@FindBestMe

; 1308 : 	{
; 1309 : 		CvPlayer& kPlayer = GET_PLAYER((PlayerTypes)iI);

	mov	edx, DWORD PTR _iI$226244[ebp]
	imul	edx, 63236				; 0000f704H
	add	edx, DWORD PTR ?m_aPlayers@CvPlayerAI@@1PAV1@A ; CvPlayerAI::m_aPlayers
	mov	DWORD PTR _kPlayer$226248[ebp], edx

; 1310 : 		if (!kPlayer.isMinorCiv())

	mov	ecx, DWORD PTR _kPlayer$226248[ebp]
	call	?isMinorCiv@CvPlayer@@QBE_NXZ		; CvPlayer::isMinorCiv
	movzx	eax, al
	test	eax, eax
	jne	SHORT $LN10@FindBestMe

; 1311 : 		{
; 1312 : 			continue;

	jmp	SHORT $LN12@FindBestMe
$LN10@FindBestMe:

; 1313 : 		}
; 1314 : 
; 1315 : 		// if I'm Venice, I don't want to send a Merchant of Venice to a buy a city that I have trade routes 
; 1316 : 		// with because it's probably more valuable as a trade partner than as an owned entity
; 1317 : 		//if (!bWantsCash)
; 1318 : 		//{
; 1319 : 		//	if (bIsVenice)
; 1320 : 		//	{
; 1321 : 		//		if (GetTrade()->IsConnectedToPlayer(kPlayer.GetID()))
; 1322 : 		//		{
; 1323 : 		//			continue;
; 1324 : 		//		}
; 1325 : 		//	}
; 1326 : 		//}
; 1327 : 
; 1328 : 		CvPlot* pCSPlot = kPlayer.getStartingPlot();

	mov	ecx, DWORD PTR _kPlayer$226248[ebp]
	call	?getStartingPlot@CvPlayer@@QBEPAVCvPlot@@XZ ; CvPlayer::getStartingPlot
	mov	DWORD PTR _pCSPlot$226251[ebp], eax

; 1329 : 		if (!pCSPlot)

	cmp	DWORD PTR _pCSPlot$226251[ebp], 0
	jne	SHORT $LN34@FindBestMe

; 1330 : 		{
; 1331 : 			continue;

	jmp	SHORT $LN12@FindBestMe

; 1332 : 		}
; 1333 : 
; 1334 : 		if (!pCSPlot->isRevealed(getTeam()))

$LN34@FindBestMe:
	mov	ecx, DWORD PTR _this$[ebp]
	mov	edx, DWORD PTR [ecx+44]
	push	edx
	call	?teamType@CvPreGame@@YA?AW4TeamTypes@@W4PlayerTypes@@@Z ; CvPreGame::teamType
	add	esp, 4
	mov	DWORD PTR $T231113[ebp], eax
	mov	eax, DWORD PTR $T231113[ebp]
	shr	eax, 5
	mov	DWORD PTR _uiOffset$231122[ebp], eax
	mov	ecx, DWORD PTR _uiOffset$231122[ebp]
	shl	ecx, 5
	mov	edx, DWORD PTR $T231113[ebp]
	sub	edx, ecx
	mov	eax, 1
	mov	ecx, edx
	shl	eax, cl
	mov	ecx, DWORD PTR _uiOffset$231122[ebp]
	mov	edx, DWORD PTR _pCSPlot$226251[ebp]
	and	eax, DWORD PTR [edx+ecx*4+8]
	setne	al
	movzx	ecx, al
	test	ecx, ecx
	jne	SHORT $LN42@FindBestMe

; 1335 : 		{
; 1336 : 			continue;

	jmp	$LN12@FindBestMe

; 1337 : 		}
; 1338 : 
; 1339 : 		// Is this a minor we are friendly with?
; 1340 : 		bool bMinorCivApproachIsCorrect = (GetDiplomacyAI()->GetMinorCivApproach(kPlayer.GetID()) != MINOR_CIV_APPROACH_CONQUEST);

$LN42@FindBestMe:
	mov	edx, DWORD PTR _kPlayer$226248[ebp]
	mov	eax, DWORD PTR [edx+44]
	mov	DWORD PTR $T231132[ebp], eax
	mov	ecx, DWORD PTR $T231132[ebp]
	push	ecx
	mov	ecx, DWORD PTR _this$[ebp]
	call	?GetDiplomacyAI@CvPlayer@@QBEPAVCvDiplomacyAI@@XZ ; CvPlayer::GetDiplomacyAI
	mov	ecx, eax
	call	?GetMinorCivApproach@CvDiplomacyAI@@QBE?AW4MinorCivApproachTypes@@W4PlayerTypes@@@Z ; CvDiplomacyAI::GetMinorCivApproach
	xor	edx, edx
	cmp	eax, 3
	setne	dl
	mov	BYTE PTR _bMinorCivApproachIsCorrect$226254[ebp], dl

; 1341 : 		bool bNotAtWar = !kTeam.isAtWar(kPlayer.getTeam());

	mov	eax, DWORD PTR _kPlayer$226248[ebp]
	mov	ecx, DWORD PTR [eax+44]
	push	ecx
	call	?teamType@CvPreGame@@YA?AW4TeamTypes@@W4PlayerTypes@@@Z ; CvPreGame::teamType
	add	esp, 4
	mov	DWORD PTR $T231141[ebp], eax
	mov	edx, DWORD PTR $T231141[ebp]
	push	edx
	mov	ecx, DWORD PTR _kTeam$[ebp]
	call	?isAtWar@CvTeam@@QBE_NW4TeamTypes@@@Z	; CvTeam::isAtWar
	movzx	eax, al
	neg	eax
	sbb	eax, eax
	add	eax, 1
	mov	BYTE PTR _bNotAtWar$226255[ebp], al

; 1342 : 		bool bNotPlanningAWar = GetDiplomacyAI()->GetWarGoal(kPlayer.GetID()) == NO_WAR_GOAL_TYPE;

	mov	ecx, DWORD PTR _kPlayer$226248[ebp]
	mov	edx, DWORD PTR [ecx+44]
	mov	DWORD PTR $T231150[ebp], edx
	mov	eax, DWORD PTR $T231150[ebp]
	push	eax
	mov	ecx, DWORD PTR _this$[ebp]
	call	?GetDiplomacyAI@CvPlayer@@QBEPAVCvDiplomacyAI@@XZ ; CvPlayer::GetDiplomacyAI
	mov	ecx, eax
	call	?GetWarGoal@CvDiplomacyAI@@QBE?AW4WarGoalTypes@@W4PlayerTypes@@@Z ; CvDiplomacyAI::GetWarGoal
	xor	ecx, ecx
	cmp	eax, -1
	sete	cl
	mov	BYTE PTR _bNotPlanningAWar$226256[ebp], cl

; 1343 : 
; 1344 : 		if(bMinorCivApproachIsCorrect && bNotAtWar && bNotPlanningAWar)

	movzx	edx, BYTE PTR _bMinorCivApproachIsCorrect$226254[ebp]
	test	edx, edx
	je	$LN7@FindBestMe
	movzx	eax, BYTE PTR _bNotAtWar$226255[ebp]
	test	eax, eax
	je	$LN7@FindBestMe
	movzx	ecx, BYTE PTR _bNotPlanningAWar$226256[ebp]
	test	ecx, ecx
	je	$LN7@FindBestMe

; 1345 : 		{
; 1346 : 			// Search all the plots adjacent to this city (since can't enter the minor city plot itself)
; 1347 : 			for(int jJ = 0; jJ < NUM_DIRECTION_TYPES; jJ++)

	mov	DWORD PTR _jJ$226258[ebp], 0
	jmp	SHORT $LN6@FindBestMe
$LN5@FindBestMe:
	mov	edx, DWORD PTR _jJ$226258[ebp]
	add	edx, 1
	mov	DWORD PTR _jJ$226258[ebp], edx
$LN6@FindBestMe:
	cmp	DWORD PTR _jJ$226258[ebp], 6
	jge	$LN7@FindBestMe

; 1348 : 			{
; 1349 : 				CvPlot* pAdjacentPlot = plotDirection(pCSPlot->getX(), pCSPlot->getY(), ((DirectionTypes)jJ));

	mov	eax, DWORD PTR _pCSPlot$226251[ebp]
	movsx	ecx, WORD PTR [eax+2]
	mov	DWORD PTR $T231154[ebp], ecx
	mov	edx, DWORD PTR _pCSPlot$226251[ebp]
	movsx	eax, WORD PTR [edx]
	mov	DWORD PTR $T231158[ebp], eax
	mov	ecx, DWORD PTR _jJ$226258[ebp]
	push	ecx
	mov	edx, DWORD PTR $T231154[ebp]
	push	edx
	mov	eax, DWORD PTR $T231158[ebp]
	push	eax
	call	?plotDirection@@YAPAVCvPlot@@HHW4DirectionTypes@@@Z ; plotDirection
	add	esp, 12					; 0000000cH
	mov	DWORD PTR _pAdjacentPlot$226262[ebp], eax

; 1350 : 				if(pAdjacentPlot != NULL)

	cmp	DWORD PTR _pAdjacentPlot$226262[ebp], 0
	je	$LN3@FindBestMe

; 1351 : 				{
; 1352 : 					// Make sure this is still owned by the city state and is revealed to us and isn't a water tile
; 1353 : 					//if(pAdjacentPlot->getOwner() == (PlayerTypes)iI && pAdjacentPlot->isRevealed(getTeam()) && !pAdjacentPlot->isWater())
; 1354 : 					bool bRightOwner = (pAdjacentPlot->getOwner() == (PlayerTypes)iI);

	mov	ecx, DWORD PTR _pAdjacentPlot$226262[ebp]
	movsx	edx, BYTE PTR [ecx+4]
	xor	eax, eax
	cmp	edx, DWORD PTR _iI$226244[ebp]
	sete	al
	mov	BYTE PTR _bRightOwner$226265[ebp], al

; 1355 : 					bool bIsRevealed = pAdjacentPlot->isRevealed(getTeam());

	mov	ecx, DWORD PTR _this$[ebp]
	mov	edx, DWORD PTR [ecx+44]
	push	edx
	call	?teamType@CvPreGame@@YA?AW4TeamTypes@@W4PlayerTypes@@@Z ; CvPreGame::teamType
	add	esp, 4
	mov	DWORD PTR $T231323[ebp], eax
	mov	eax, DWORD PTR $T231323[ebp]
	shr	eax, 5
	mov	DWORD PTR _uiOffset$231332[ebp], eax
	mov	ecx, DWORD PTR _uiOffset$231332[ebp]
	shl	ecx, 5
	mov	edx, DWORD PTR $T231323[ebp]
	sub	edx, ecx
	mov	eax, 1
	mov	ecx, edx
	shl	eax, cl
	mov	ecx, DWORD PTR _uiOffset$231332[ebp]
	mov	edx, DWORD PTR _pAdjacentPlot$226262[ebp]
	and	eax, DWORD PTR [edx+ecx*4+8]
	setne	al
	mov	BYTE PTR _bIsRevealed$226267[ebp], al

; 1356 : 					if(bRightOwner && bIsRevealed)

	movzx	ecx, BYTE PTR _bRightOwner$226265[ebp]
	test	ecx, ecx
	je	$LN3@FindBestMe
	movzx	edx, BYTE PTR _bIsRevealed$226267[ebp]
	test	edx, edx
	je	$LN3@FindBestMe

; 1357 : 					{
; 1358 : 						iPathTurns = TurnsToReachTarget(pMerchant, pAdjacentPlot, true /*bReusePaths*/, !bOnlySafePaths/*bIgnoreUnits*/);

	push	0
	movzx	eax, BYTE PTR _bOnlySafePaths$[ebp]
	test	eax, eax
	sete	cl
	movzx	edx, cl
	push	edx
	push	1
	mov	eax, DWORD PTR _pAdjacentPlot$226262[ebp]
	push	eax
	sub	esp, 8
	mov	ecx, esp
	mov	DWORD PTR $T231077[ebp], esp
	mov	DWORD PTR $T231343[ebp], ecx
	mov	edx, DWORD PTR $T231343[ebp]
	mov	eax, DWORD PTR _pMerchant$[ebp]
	mov	DWORD PTR [edx], eax
	mov	ecx, DWORD PTR $T231343[ebp]
	mov	dl, BYTE PTR _pMerchant$[ebp+4]
	mov	BYTE PTR [ecx+4], dl
	mov	eax, DWORD PTR $T231343[ebp]
	cmp	DWORD PTR [eax], 0
	je	SHORT $LN135@FindBestMe
	mov	ecx, DWORD PTR $T231343[ebp]
	mov	ecx, DWORD PTR [ecx]
	call	?getDestructionNotification@CvUnit@@QAEAAU?$DestructionNotification@V?$FObjectHandle@VCvUnit@@@@@@XZ ; CvUnit::getDestructionNotification
$LN135@FindBestMe:
	mov	edx, DWORD PTR $T231343[ebp]
	mov	DWORD PTR tv236[ebp], edx
	call	?TurnsToReachTarget@@YAHV?$FObjectHandle@VCvUnit@@@@PAVCvPlot@@_N22@Z ; TurnsToReachTarget
	add	esp, 24					; 00000018H
	mov	DWORD PTR tv237[ebp], eax
	mov	eax, DWORD PTR tv237[ebp]
	mov	DWORD PTR _iPathTurns$[ebp], eax

; 1359 : 						if(iPathTurns < iBestTurnsToReach)

	mov	ecx, DWORD PTR _iPathTurns$[ebp]
	cmp	ecx, DWORD PTR _iBestTurnsToReach$[ebp]
	jge	SHORT $LN3@FindBestMe

; 1360 : 						{
; 1361 : 							iBestTurnsToReach = iPathTurns;

	mov	edx, DWORD PTR _iPathTurns$[ebp]
	mov	DWORD PTR _iBestTurnsToReach$[ebp], edx

; 1362 : 							pBestTargetPlot = pAdjacentPlot;

	mov	eax, DWORD PTR _pAdjacentPlot$226262[ebp]
	mov	DWORD PTR _pBestTargetPlot$[ebp], eax
$LN3@FindBestMe:

; 1363 : 						}
; 1364 : 					}
; 1365 : 				}
; 1366 : 			}

	jmp	$LN5@FindBestMe
$LN7@FindBestMe:

; 1367 : 		}
; 1368 : 	}

	jmp	$LN12@FindBestMe
$LN11@FindBestMe:

; 1369 : 
; 1370 : 	return pBestTargetPlot;

	mov	ecx, DWORD PTR _pBestTargetPlot$[ebp]
	mov	DWORD PTR $T231078[ebp], ecx
	mov	DWORD PTR __$EHRec$[ebp+8], -1
	cmp	DWORD PTR _pMerchant$[ebp], 0
	je	SHORT $LN140@FindBestMe
	mov	ecx, DWORD PTR _pMerchant$[ebp]
	call	?getDestructionNotification@CvUnit@@QAEAAU?$DestructionNotification@V?$FObjectHandle@VCvUnit@@@@@@XZ ; CvUnit::getDestructionNotification
$LN140@FindBestMe:
	mov	eax, DWORD PTR $T231078[ebp]
$LN15@FindBestMe:

; 1371 : }

	mov	ecx, DWORD PTR __$EHRec$[ebp]
	mov	DWORD PTR fs:0, ecx
	pop	ecx
	mov	esp, ebp
	pop	ebp
	ret	8
_TEXT	ENDS
;	COMDAT text$x
text$x	SEGMENT
__unwindfunclet$?FindBestMerchantTargetPlot@CvPlayerAI@@QAEPAVCvPlot@@PAVCvUnit@@_N@Z$0:
	lea	ecx, DWORD PTR _pMerchant$[ebp]
	jmp	??1?$FObjectHandle@VCvUnit@@@@QAE@XZ	; FObjectHandle<CvUnit>::~FObjectHandle<CvUnit>
__ehhandler$?FindBestMerchantTargetPlot@CvPlayerAI@@QAEPAVCvPlot@@PAVCvUnit@@_N@Z:
	mov	edx, DWORD PTR [esp+8]
	lea	eax, DWORD PTR [edx+12]
	mov	ecx, DWORD PTR [edx-196]
	xor	ecx, eax
	call	@__security_check_cookie@4
	mov	eax, OFFSET __ehfuncinfo$?FindBestMerchantTargetPlot@CvPlayerAI@@QAEPAVCvPlot@@PAVCvUnit@@_N@Z
	jmp	___CxxFrameHandler3
text$x	ENDS
?FindBestMerchantTargetPlot@CvPlayerAI@@QAEPAVCvPlot@@PAVCvUnit@@_N@Z ENDP ; CvPlayerAI::FindBestMerchantTargetPlot
PUBLIC	?isPlot@CvMap@@QBEHHH@Z				; CvMap::isPlot
; Function compile flags: /Odtp
; File d:\sources\lekmod_git\checkout\lekmod_dll\cvgamecoredll_expansion2\cvgamecoreutils.h
;	COMDAT ?plotDirection@@YAPAVCvPlot@@HHW4DirectionTypes@@@Z
_TEXT	SEGMENT
tv198 = -100						; size = 4
tv213 = -96						; size = 4
tv168 = -92						; size = 4
tv151 = -88						; size = 4
tv155 = -84						; size = 4
$T231565 = -80						; size = 4
$T231520 = -76						; size = 4
$T231507 = -72						; size = 4
$T231503 = -68						; size = 4
$T231489 = -64						; size = 4
$T231485 = -57						; size = 1
$T231474 = -56						; size = 4
$T231470 = -49						; size = 1
_iMapY$231564 = -48					; size = 4
_iMapX$231563 = -44					; size = 4
$T231463 = -40						; size = 4
$T231439 = -36						; size = 4
$T231402 = -32						; size = 4
$T231390 = -28						; size = 4
$T231386 = -21						; size = 1
$T231375 = -20						; size = 4
$T231371 = -13						; size = 1
_iMapY$231411 = -12					; size = 4
_iMapX$231410 = -8					; size = 4
$T231364 = -4						; size = 4
_iX$ = 8						; size = 4
_iY$ = 12						; size = 4
_eDirection$ = 16					; size = 4
?plotDirection@@YAPAVCvPlot@@HHW4DirectionTypes@@@Z PROC ; plotDirection, COMDAT

; 193  : {

	push	ebp
	mov	ebp, esp
	sub	esp, 100				; 00000064H

; 194  : 	if(eDirection == NO_DIRECTION)

	cmp	DWORD PTR _eDirection$[ebp], -1
	jne	$LN2@plotDirect

; 195  : 	{
; 196  : 		return GC.getMap().plot(iX, iY);

	mov	eax, DWORD PTR ?gGlobals@@3VCvGlobals@@A+52
	mov	DWORD PTR $T231364[ebp], eax
	cmp	DWORD PTR _iX$[ebp], -2147483647	; 80000001H
	je	SHORT $LN7@plotDirect
	cmp	DWORD PTR _iY$[ebp], -2147483647	; 80000001H
	jne	SHORT $LN8@plotDirect
$LN7@plotDirect:
	mov	DWORD PTR $T231439[ebp], 0
	jmp	$LN9@plotDirect
$LN8@plotDirect:
	mov	ecx, DWORD PTR $T231364[ebp]
	mov	dl, BYTE PTR [ecx+4056]
	mov	BYTE PTR $T231371[ebp], dl
	mov	eax, DWORD PTR $T231364[ebp]
	mov	ecx, DWORD PTR [eax+4020]
	mov	DWORD PTR $T231375[ebp], ecx
	movzx	edx, BYTE PTR $T231371[ebp]
	test	edx, edx
	je	SHORT $LN20@plotDirect
	cmp	DWORD PTR _iX$[ebp], 0
	jge	SHORT $LN19@plotDirect
	mov	eax, DWORD PTR _iX$[ebp]
	cdq
	idiv	DWORD PTR $T231375[ebp]
	add	edx, DWORD PTR $T231375[ebp]
	mov	DWORD PTR _iMapX$231410[ebp], edx
	jmp	SHORT $LN21@plotDirect
	jmp	SHORT $LN20@plotDirect
$LN19@plotDirect:
	mov	eax, DWORD PTR _iX$[ebp]
	cmp	eax, DWORD PTR $T231375[ebp]
	jl	SHORT $LN20@plotDirect
	mov	eax, DWORD PTR _iX$[ebp]
	cdq
	idiv	DWORD PTR $T231375[ebp]
	mov	DWORD PTR _iMapX$231410[ebp], edx
	jmp	SHORT $LN21@plotDirect
$LN20@plotDirect:
	mov	ecx, DWORD PTR _iX$[ebp]
	mov	DWORD PTR _iMapX$231410[ebp], ecx
$LN21@plotDirect:
	mov	edx, DWORD PTR $T231364[ebp]
	mov	al, BYTE PTR [edx+4057]
	mov	BYTE PTR $T231386[ebp], al
	mov	ecx, DWORD PTR $T231364[ebp]
	mov	edx, DWORD PTR [ecx+4024]
	mov	DWORD PTR $T231390[ebp], edx
	movzx	eax, BYTE PTR $T231386[ebp]
	test	eax, eax
	je	SHORT $LN30@plotDirect
	cmp	DWORD PTR _iY$[ebp], 0
	jge	SHORT $LN29@plotDirect
	mov	eax, DWORD PTR _iY$[ebp]
	cdq
	idiv	DWORD PTR $T231390[ebp]
	add	edx, DWORD PTR $T231390[ebp]
	mov	DWORD PTR _iMapY$231411[ebp], edx
	jmp	SHORT $LN31@plotDirect
	jmp	SHORT $LN30@plotDirect
$LN29@plotDirect:
	mov	ecx, DWORD PTR _iY$[ebp]
	cmp	ecx, DWORD PTR $T231390[ebp]
	jl	SHORT $LN30@plotDirect
	mov	eax, DWORD PTR _iY$[ebp]
	cdq
	idiv	DWORD PTR $T231390[ebp]
	mov	DWORD PTR _iMapY$231411[ebp], edx
	jmp	SHORT $LN31@plotDirect
$LN30@plotDirect:
	mov	edx, DWORD PTR _iY$[ebp]
	mov	DWORD PTR _iMapY$231411[ebp], edx
$LN31@plotDirect:
	mov	eax, DWORD PTR _iMapY$231411[ebp]
	push	eax
	mov	ecx, DWORD PTR _iMapX$231410[ebp]
	push	ecx
	mov	ecx, DWORD PTR $T231364[ebp]
	call	?isPlot@CvMap@@QBEHHH@Z			; CvMap::isPlot
	test	eax, eax
	je	SHORT $LN11@plotDirect
	mov	edx, DWORD PTR $T231364[ebp]
	mov	eax, DWORD PTR [edx+4020]
	mov	DWORD PTR $T231402[ebp], eax
	mov	ecx, DWORD PTR _iMapY$231411[ebp]
	imul	ecx, DWORD PTR $T231402[ebp]
	add	ecx, DWORD PTR _iMapX$231410[ebp]
	imul	ecx, 484				; 000001e4H
	mov	edx, DWORD PTR $T231364[ebp]
	add	ecx, DWORD PTR [edx+4068]
	mov	DWORD PTR tv155[ebp], ecx
	jmp	SHORT $LN12@plotDirect
$LN11@plotDirect:
	mov	DWORD PTR tv155[ebp], 0
$LN12@plotDirect:
	mov	eax, DWORD PTR tv155[ebp]
	mov	DWORD PTR $T231439[ebp], eax
$LN9@plotDirect:
	mov	eax, DWORD PTR $T231439[ebp]
	jmp	$LN3@plotDirect

; 197  : 	}
; 198  : 	else

	jmp	$LN3@plotDirect
$LN2@plotDirect:

; 199  : 	{
; 200  : 		// convert to hex-space coordinates - the coordinate system axes are E and NE (not orthogonal)
; 201  : 		iX = xToHexspaceX(iX , iY);

	cmp	DWORD PTR _iY$[ebp], 0
	jl	SHORT $LN39@plotDirect
	mov	ecx, DWORD PTR _iY$[ebp]
	sar	ecx, 1
	mov	DWORD PTR tv151[ebp], ecx
	jmp	SHORT $LN37@plotDirect
$LN39@plotDirect:
	mov	eax, DWORD PTR _iY$[ebp]
	sub	eax, 1
	cdq
	sub	eax, edx
	sar	eax, 1
	mov	DWORD PTR tv151[ebp], eax
$LN37@plotDirect:
	mov	edx, DWORD PTR _iX$[ebp]
	sub	edx, DWORD PTR tv151[ebp]
	mov	DWORD PTR _iX$[ebp], edx

; 202  : 		iX += GC.getPlotDirectionX()[eDirection];

	mov	eax, DWORD PTR _eDirection$[ebp]
	mov	ecx, DWORD PTR _iX$[ebp]
	add	ecx, DWORD PTR ?gGlobals@@3VCvGlobals@@A[eax*4+112]
	mov	DWORD PTR _iX$[ebp], ecx

; 203  : 		iY += GC.getPlotDirectionY()[eDirection];

	mov	edx, DWORD PTR _eDirection$[ebp]
	mov	eax, DWORD PTR _iY$[ebp]
	add	eax, DWORD PTR ?gGlobals@@3VCvGlobals@@A[edx*4+136]
	mov	DWORD PTR _iY$[ebp], eax

; 204  : 
; 205  : 		// convert from hex-space coordinates to the storage array
; 206  : 		iX = hexspaceXToX(iX, iY);

	js	SHORT $LN47@plotDirect
	mov	ecx, DWORD PTR _iY$[ebp]
	sar	ecx, 1
	mov	DWORD PTR tv168[ebp], ecx
	jmp	SHORT $LN45@plotDirect
$LN47@plotDirect:
	mov	eax, DWORD PTR _iY$[ebp]
	sub	eax, 1
	cdq
	sub	eax, edx
	sar	eax, 1
	mov	DWORD PTR tv168[ebp], eax
$LN45@plotDirect:
	mov	edx, DWORD PTR _iX$[ebp]
	add	edx, DWORD PTR tv168[ebp]
	mov	DWORD PTR _iX$[ebp], edx

; 207  : 
; 208  : 		return GC.getMap().plot(iX, iY);

	mov	eax, DWORD PTR ?gGlobals@@3VCvGlobals@@A+52
	mov	DWORD PTR $T231463[ebp], eax
	cmp	DWORD PTR _iX$[ebp], -2147483647	; 80000001H
	je	SHORT $LN51@plotDirect
	cmp	DWORD PTR _iY$[ebp], -2147483647	; 80000001H
	jne	SHORT $LN52@plotDirect
$LN51@plotDirect:
	mov	DWORD PTR $T231565[ebp], 0
	jmp	$LN53@plotDirect
$LN52@plotDirect:
	mov	ecx, DWORD PTR $T231463[ebp]
	mov	dl, BYTE PTR [ecx+4056]
	mov	BYTE PTR $T231470[ebp], dl
	mov	eax, DWORD PTR $T231463[ebp]
	mov	ecx, DWORD PTR [eax+4020]
	mov	DWORD PTR $T231474[ebp], ecx
	movzx	edx, BYTE PTR $T231470[ebp]
	test	edx, edx
	je	SHORT $LN64@plotDirect
	cmp	DWORD PTR _iX$[ebp], 0
	jge	SHORT $LN63@plotDirect
	mov	eax, DWORD PTR _iX$[ebp]
	cdq
	idiv	DWORD PTR $T231474[ebp]
	add	edx, DWORD PTR $T231474[ebp]
	mov	DWORD PTR _iMapX$231563[ebp], edx
	jmp	SHORT $LN65@plotDirect
	jmp	SHORT $LN64@plotDirect
$LN63@plotDirect:
	mov	eax, DWORD PTR _iX$[ebp]
	cmp	eax, DWORD PTR $T231474[ebp]
	jl	SHORT $LN64@plotDirect
	mov	eax, DWORD PTR _iX$[ebp]
	cdq
	idiv	DWORD PTR $T231474[ebp]
	mov	DWORD PTR _iMapX$231563[ebp], edx
	jmp	SHORT $LN65@plotDirect
$LN64@plotDirect:
	mov	ecx, DWORD PTR _iX$[ebp]
	mov	DWORD PTR _iMapX$231563[ebp], ecx
$LN65@plotDirect:
	mov	edx, DWORD PTR $T231463[ebp]
	mov	al, BYTE PTR [edx+4057]
	mov	BYTE PTR $T231485[ebp], al
	mov	ecx, DWORD PTR $T231463[ebp]
	mov	edx, DWORD PTR [ecx+4024]
	mov	DWORD PTR $T231489[ebp], edx
	movzx	eax, BYTE PTR $T231485[ebp]
	test	eax, eax
	je	SHORT $LN74@plotDirect
	cmp	DWORD PTR _iY$[ebp], 0
	jge	SHORT $LN73@plotDirect
	mov	eax, DWORD PTR _iY$[ebp]
	cdq
	idiv	DWORD PTR $T231489[ebp]
	add	edx, DWORD PTR $T231489[ebp]
	mov	DWORD PTR _iMapY$231564[ebp], edx
	jmp	SHORT $LN75@plotDirect
	jmp	SHORT $LN74@plotDirect
$LN73@plotDirect:
	mov	ecx, DWORD PTR _iY$[ebp]
	cmp	ecx, DWORD PTR $T231489[ebp]
	jl	SHORT $LN74@plotDirect
	mov	eax, DWORD PTR _iY$[ebp]
	cdq
	idiv	DWORD PTR $T231489[ebp]
	mov	DWORD PTR _iMapY$231564[ebp], edx
	jmp	SHORT $LN75@plotDirect
$LN74@plotDirect:
	mov	edx, DWORD PTR _iY$[ebp]
	mov	DWORD PTR _iMapY$231564[ebp], edx
$LN75@plotDirect:
	cmp	DWORD PTR _iMapX$231563[ebp], 0
	jl	SHORT $LN79@plotDirect
	mov	eax, DWORD PTR $T231463[ebp]
	mov	ecx, DWORD PTR [eax+4020]
	mov	DWORD PTR $T231503[ebp], ecx
	mov	edx, DWORD PTR _iMapX$231563[ebp]
	cmp	edx, DWORD PTR $T231503[ebp]
	jge	SHORT $LN79@plotDirect
	cmp	DWORD PTR _iMapY$231564[ebp], 0
	jl	SHORT $LN79@plotDirect
	mov	eax, DWORD PTR $T231463[ebp]
	mov	ecx, DWORD PTR [eax+4024]
	mov	DWORD PTR $T231507[ebp], ecx
	mov	edx, DWORD PTR _iMapY$231564[ebp]
	cmp	edx, DWORD PTR $T231507[ebp]
	jge	SHORT $LN79@plotDirect
	mov	DWORD PTR tv213[ebp], 1
	jmp	SHORT $LN77@plotDirect
$LN79@plotDirect:
	mov	DWORD PTR tv213[ebp], 0
$LN77@plotDirect:
	cmp	DWORD PTR tv213[ebp], 0
	je	SHORT $LN55@plotDirect
	mov	eax, DWORD PTR $T231463[ebp]
	mov	ecx, DWORD PTR [eax+4020]
	mov	DWORD PTR $T231520[ebp], ecx
	mov	edx, DWORD PTR _iMapY$231564[ebp]
	imul	edx, DWORD PTR $T231520[ebp]
	add	edx, DWORD PTR _iMapX$231563[ebp]
	imul	edx, 484				; 000001e4H
	mov	eax, DWORD PTR $T231463[ebp]
	add	edx, DWORD PTR [eax+4068]
	mov	DWORD PTR tv198[ebp], edx
	jmp	SHORT $LN56@plotDirect
$LN55@plotDirect:
	mov	DWORD PTR tv198[ebp], 0
$LN56@plotDirect:
	mov	ecx, DWORD PTR tv198[ebp]
	mov	DWORD PTR $T231565[ebp], ecx
$LN53@plotDirect:
	mov	eax, DWORD PTR $T231565[ebp]
$LN3@plotDirect:

; 209  : 	}
; 210  : }

	mov	esp, ebp
	pop	ebp
	ret	0
?plotDirection@@YAPAVCvPlot@@HHW4DirectionTypes@@@Z ENDP ; plotDirection
_TEXT	ENDS
EXTRN	?plotCity@@YAPAVCvPlot@@HHH@Z:PROC		; plotCity
EXTRN	?GetCivLowestInfluence@CvPlayerCulture@@QBE?AW4PlayerTypes@@_N@Z:PROC ; CvPlayerCulture::GetCivLowestInfluence
;	COMDAT xdata$x
; File d:\sources\lekmod_git\checkout\lekmod_dll\fireplace\include\fireworks\fobjecthandle.h
xdata$x	SEGMENT
__unwindtable$?FindBestMusicianTargetPlot@CvPlayerAI@@QAEPAVCvPlot@@PAVCvUnit@@_N@Z DD 0ffffffffH
	DD	FLAT:__unwindfunclet$?FindBestMusicianTargetPlot@CvPlayerAI@@QAEPAVCvPlot@@PAVCvUnit@@_N@Z$0
__ehfuncinfo$?FindBestMusicianTargetPlot@CvPlayerAI@@QAEPAVCvPlot@@PAVCvUnit@@_N@Z DD 019930522H
	DD	01H
	DD	FLAT:__unwindtable$?FindBestMusicianTargetPlot@CvPlayerAI@@QAEPAVCvPlot@@PAVCvUnit@@_N@Z
	DD	2 DUP(00H)
	DD	2 DUP(00H)
	DD	00H
	DD	01H
; Function compile flags: /Odtp
; File d:\sources\lekmod_git\checkout\lekmod_dll\cvgamecoredll_expansion2\cvplayerai.cpp
xdata$x	ENDS
;	COMDAT ?FindBestMusicianTargetPlot@CvPlayerAI@@QAEPAVCvPlot@@PAVCvUnit@@_N@Z
_TEXT	SEGMENT
tv246 = -224						; size = 4
tv245 = -220						; size = 4
tv239 = -216						; size = 4
tv238 = -212						; size = 4
_this$ = -208						; size = 4
$T231835 = -204						; size = 4
_uiOffset$231824 = -200					; size = 4
$T231815 = -196						; size = 4
$T231803 = -192						; size = 4
$T231794 = -188						; size = 4
$T231785 = -184						; size = 4
_uiOffset$231774 = -180					; size = 4
$T231765 = -176						; size = 4
$T231613 = -100						; size = 4
$T231604 = -96						; size = 4
$T231571 = -92						; size = 4
$T231570 = -88						; size = 4
$T231569 = -84						; size = 4
$T231568 = -80						; size = 4
_bRightOwner$226312 = -74				; size = 1
_bIsRevealed$226313 = -73				; size = 1
_iJ$226307 = -72					; size = 4
_pLoopPlot$226306 = -68					; size = 4
_bRightOwner$226300 = -62				; size = 1
_bIsRevealed$226301 = -61				; size = 1
_pAdjacentPlot$226297 = -60				; size = 4
_jJ$226293 = -56					; size = 4
_pBestTargetPlot$ = -52					; size = 4
_pBestTargetCity$ = -48					; size = 4
_iBestTurnsToReach$ = -44				; size = 4
_iPathTurns$ = -40					; size = 4
_eTargetPlayer$ = -36					; size = 4
_pMusician$ = -32					; size = 8
_kTargetPlayer$ = -24					; size = 4
_pLoopCity$ = -20					; size = 4
_iLoop$ = -16						; size = 4
__$EHRec$ = -12						; size = 12
_pGreatMusician$ = 8					; size = 4
_bOnlySafePaths$ = 12					; size = 1
?FindBestMusicianTargetPlot@CvPlayerAI@@QAEPAVCvPlot@@PAVCvUnit@@_N@Z PROC ; CvPlayerAI::FindBestMusicianTargetPlot, COMDAT
; _this$ = ecx

; 1374 : {

	push	ebp
	mov	ebp, esp
	push	-1
	push	__ehhandler$?FindBestMusicianTargetPlot@CvPlayerAI@@QAEPAVCvPlot@@PAVCvUnit@@_N@Z
	mov	eax, DWORD PTR fs:0
	push	eax
	sub	esp, 212				; 000000d4H
	mov	eax, DWORD PTR ___security_cookie
	xor	eax, ebp
	push	eax
	lea	eax, DWORD PTR __$EHRec$[ebp]
	mov	DWORD PTR fs:0, eax
	mov	DWORD PTR _this$[ebp], ecx

; 1375 : 	CvAssertMsg(pGreatMusician, "pGreatMusician is null");
; 1376 : 	if(!pGreatMusician)

	cmp	DWORD PTR _pGreatMusician$[ebp], 0
	jne	SHORT $LN18@FindBestMu

; 1377 : 	{
; 1378 : 		return NULL;

	xor	eax, eax
	jmp	$LN19@FindBestMu
$LN18@FindBestMu:

; 1379 : 	}
; 1380 : 
; 1381 : 	int iBestTurnsToReach = MAX_INT;

	mov	DWORD PTR _iBestTurnsToReach$[ebp], 2147483647 ; 7fffffffH

; 1382 : 	CvPlot* pBestTargetPlot = NULL;

	mov	DWORD PTR _pBestTargetPlot$[ebp], 0

; 1383 : 	CvCity* pBestTargetCity = NULL;

	mov	DWORD PTR _pBestTargetCity$[ebp], 0

; 1384 : 	int iPathTurns;
; 1385 : 	UnitHandle pMusician = UnitHandle(pGreatMusician);

	mov	eax, DWORD PTR _pGreatMusician$[ebp]
	mov	DWORD PTR _pMusician$[ebp], eax
	mov	BYTE PTR _pMusician$[ebp+4], 0
	cmp	DWORD PTR _pMusician$[ebp], 0
	je	SHORT $LN25@FindBestMu
	mov	ecx, DWORD PTR _pMusician$[ebp]
	call	?getDestructionNotification@CvUnit@@QAEAAU?$DestructionNotification@V?$FObjectHandle@VCvUnit@@@@@@XZ ; CvUnit::getDestructionNotification
$LN25@FindBestMu:
	mov	DWORD PTR __$EHRec$[ebp+8], 0

; 1386 : 
; 1387 : 	// Find target civ
; 1388 : 	PlayerTypes eTargetPlayer = GetCulture()->GetCivLowestInfluence(true /*bCheckOpenBorders*/);

	push	1
	mov	ecx, DWORD PTR _this$[ebp]
	call	?GetCulture@CvPlayer@@QBEPAVCvPlayerCulture@@XZ ; CvPlayer::GetCulture
	mov	ecx, eax
	call	?GetCivLowestInfluence@CvPlayerCulture@@QBE?AW4PlayerTypes@@_N@Z ; CvPlayerCulture::GetCivLowestInfluence
	mov	DWORD PTR _eTargetPlayer$[ebp], eax

; 1389 : 	if (eTargetPlayer == NO_PLAYER)

	cmp	DWORD PTR _eTargetPlayer$[ebp], -1
	jne	SHORT $LN34@FindBestMu

; 1390 : 	{
; 1391 : 		return NULL;

	mov	DWORD PTR $T231568[ebp], 0
	mov	DWORD PTR __$EHRec$[ebp+8], -1
	cmp	DWORD PTR _pMusician$[ebp], 0
	je	SHORT $LN30@FindBestMu
	mov	ecx, DWORD PTR _pMusician$[ebp]
	call	?getDestructionNotification@CvUnit@@QAEAAU?$DestructionNotification@V?$FObjectHandle@VCvUnit@@@@@@XZ ; CvUnit::getDestructionNotification
$LN30@FindBestMu:
	mov	eax, DWORD PTR $T231568[ebp]
	jmp	$LN19@FindBestMu

; 1392 : 	}
; 1393 : 
; 1394 : 	CvPlayer &kTargetPlayer = GET_PLAYER(eTargetPlayer);

$LN34@FindBestMu:
	mov	ecx, DWORD PTR _eTargetPlayer$[ebp]
	imul	ecx, 63236				; 0000f704H
	add	ecx, DWORD PTR ?m_aPlayers@CvPlayerAI@@1PAV1@A ; CvPlayerAI::m_aPlayers
	mov	DWORD PTR _kTargetPlayer$[ebp], ecx

; 1395 : 
; 1396 : 	// Loop through each of that player's cities
; 1397 : 	int iLoop;
; 1398 : 	CvCity *pLoopCity;
; 1399 : 	for(pLoopCity = kTargetPlayer.firstCity(&iLoop); pLoopCity != NULL; pLoopCity = kTargetPlayer.nextCity(&iLoop))

	push	0
	lea	edx, DWORD PTR _iLoop$[ebp]
	push	edx
	mov	ecx, DWORD PTR _kTargetPlayer$[ebp]
	call	?firstCity@CvPlayer@@QAEPAVCvCity@@PAH_N@Z ; CvPlayer::firstCity
	mov	DWORD PTR _pLoopCity$[ebp], eax
	jmp	SHORT $LN16@FindBestMu
$LN15@FindBestMu:
	push	0
	lea	eax, DWORD PTR _iLoop$[ebp]
	push	eax
	mov	ecx, DWORD PTR _kTargetPlayer$[ebp]
	call	?nextCity@CvPlayer@@QAEPAVCvCity@@PAH_N@Z ; CvPlayer::nextCity
	mov	DWORD PTR _pLoopCity$[ebp], eax
$LN16@FindBestMu:
	cmp	DWORD PTR _pLoopCity$[ebp], 0
	je	$LN14@FindBestMu

; 1400 : 	{
; 1401 : 		// Search all the plots adjacent to this city
; 1402 : 		for(int jJ = 0; jJ < NUM_DIRECTION_TYPES; jJ++)

	mov	DWORD PTR _jJ$226293[ebp], 0
	jmp	SHORT $LN13@FindBestMu
$LN12@FindBestMu:
	mov	ecx, DWORD PTR _jJ$226293[ebp]
	add	ecx, 1
	mov	DWORD PTR _jJ$226293[ebp], ecx
$LN13@FindBestMu:
	cmp	DWORD PTR _jJ$226293[ebp], 6
	jge	$LN11@FindBestMu

; 1403 : 		{
; 1404 : 			CvPlot* pAdjacentPlot = plotDirection(pLoopCity->getX(), pLoopCity->getY(), ((DirectionTypes)jJ));

	mov	edx, DWORD PTR _pLoopCity$[ebp]
	mov	eax, DWORD PTR [edx+108]
	mov	DWORD PTR $T231604[ebp], eax
	mov	ecx, DWORD PTR _pLoopCity$[ebp]
	mov	edx, DWORD PTR [ecx+96]
	mov	DWORD PTR $T231613[ebp], edx
	mov	eax, DWORD PTR _jJ$226293[ebp]
	push	eax
	mov	ecx, DWORD PTR $T231604[ebp]
	push	ecx
	mov	edx, DWORD PTR $T231613[ebp]
	push	edx
	call	?plotDirection@@YAPAVCvPlot@@HHW4DirectionTypes@@@Z ; plotDirection
	add	esp, 12					; 0000000cH
	mov	DWORD PTR _pAdjacentPlot$226297[ebp], eax

; 1405 : 			if(pAdjacentPlot != NULL)

	cmp	DWORD PTR _pAdjacentPlot$226297[ebp], 0
	je	$LN10@FindBestMu

; 1406 : 			{
; 1407 : 				// Make sure this is still owned by target and is revealed to us
; 1408 : 				bool bRightOwner = (pAdjacentPlot->getOwner() == eTargetPlayer);

	mov	eax, DWORD PTR _pAdjacentPlot$226297[ebp]
	movsx	ecx, BYTE PTR [eax+4]
	xor	edx, edx
	cmp	ecx, DWORD PTR _eTargetPlayer$[ebp]
	sete	dl
	mov	BYTE PTR _bRightOwner$226300[ebp], dl

; 1409 : 				bool bIsRevealed = pAdjacentPlot->isRevealed(getTeam());

	mov	eax, DWORD PTR _this$[ebp]
	mov	ecx, DWORD PTR [eax+44]
	push	ecx
	call	?teamType@CvPreGame@@YA?AW4TeamTypes@@W4PlayerTypes@@@Z ; CvPreGame::teamType
	add	esp, 4
	mov	DWORD PTR $T231765[ebp], eax
	mov	edx, DWORD PTR $T231765[ebp]
	shr	edx, 5
	mov	DWORD PTR _uiOffset$231774[ebp], edx
	mov	eax, DWORD PTR _uiOffset$231774[ebp]
	shl	eax, 5
	mov	ecx, DWORD PTR $T231765[ebp]
	sub	ecx, eax
	mov	edx, 1
	shl	edx, cl
	mov	eax, DWORD PTR _uiOffset$231774[ebp]
	mov	ecx, DWORD PTR _pAdjacentPlot$226297[ebp]
	and	edx, DWORD PTR [ecx+eax*4+8]
	setne	dl
	mov	BYTE PTR _bIsRevealed$226301[ebp], dl

; 1410 : 				if(bRightOwner && bIsRevealed)

	movzx	eax, BYTE PTR _bRightOwner$226300[ebp]
	test	eax, eax
	je	$LN10@FindBestMu
	movzx	ecx, BYTE PTR _bIsRevealed$226301[ebp]
	test	ecx, ecx
	je	$LN10@FindBestMu

; 1411 : 				{
; 1412 : 					iPathTurns = TurnsToReachTarget(pMusician, pAdjacentPlot, true /*bReusePaths*/, !bOnlySafePaths/*bIgnoreUnits*/);

	push	0
	movzx	edx, BYTE PTR _bOnlySafePaths$[ebp]
	test	edx, edx
	sete	al
	movzx	ecx, al
	push	ecx
	push	1
	mov	edx, DWORD PTR _pAdjacentPlot$226297[ebp]
	push	edx
	sub	esp, 8
	mov	eax, esp
	mov	DWORD PTR $T231569[ebp], esp
	mov	DWORD PTR $T231785[ebp], eax
	mov	ecx, DWORD PTR $T231785[ebp]
	mov	edx, DWORD PTR _pMusician$[ebp]
	mov	DWORD PTR [ecx], edx
	mov	eax, DWORD PTR $T231785[ebp]
	mov	cl, BYTE PTR _pMusician$[ebp+4]
	mov	BYTE PTR [eax+4], cl
	mov	edx, DWORD PTR $T231785[ebp]
	cmp	DWORD PTR [edx], 0
	je	SHORT $LN117@FindBestMu
	mov	eax, DWORD PTR $T231785[ebp]
	mov	ecx, DWORD PTR [eax]
	call	?getDestructionNotification@CvUnit@@QAEAAU?$DestructionNotification@V?$FObjectHandle@VCvUnit@@@@@@XZ ; CvUnit::getDestructionNotification
$LN117@FindBestMu:
	mov	ecx, DWORD PTR $T231785[ebp]
	mov	DWORD PTR tv238[ebp], ecx
	call	?TurnsToReachTarget@@YAHV?$FObjectHandle@VCvUnit@@@@PAVCvPlot@@_N22@Z ; TurnsToReachTarget
	add	esp, 24					; 00000018H
	mov	DWORD PTR tv239[ebp], eax
	mov	edx, DWORD PTR tv239[ebp]
	mov	DWORD PTR _iPathTurns$[ebp], edx

; 1413 : 					if(iPathTurns < iBestTurnsToReach)

	mov	eax, DWORD PTR _iPathTurns$[ebp]
	cmp	eax, DWORD PTR _iBestTurnsToReach$[ebp]
	jge	SHORT $LN10@FindBestMu

