; Listing generated by Microsoft (R) Optimizing Compiler Version 15.00.30729.01 

	TITLE	D:\sources\Lekmod_git\checkout\LEKMOD_DLL\CvGameCoreDLL_Expansion2\CvPlot.cpp
	.686P
	.XMM
	include listing.inc
	.model	flat

INCLUDELIB MSVCRT
INCLUDELIB OLDNAMES

PUBLIC	??_C@_0CF@BIOENABP@daf6f887?93614?94169?9a0e5?93ac9bd4e@ ; `string'
PUBLIC	?NO_QUEST_DATA@CvMinorCivQuest@@2HB		; CvMinorCivQuest::NO_QUEST_DATA
PUBLIC	?NO_TURN@CvMinorCivQuest@@2HB			; CvMinorCivQuest::NO_TURN
CONST	SEGMENT
_CIV5_DLC_04_SCENARIO_MODID DD FLAT:??_C@_0CF@BIOENABP@daf6f887?93614?94169?9a0e5?93ac9bd4e@
CONST	ENDS
;	COMDAT ??_C@_0CF@BIOENABP@daf6f887?93614?94169?9a0e5?93ac9bd4e@
CONST	SEGMENT
??_C@_0CF@BIOENABP@daf6f887?93614?94169?9a0e5?93ac9bd4e@ DB 'daf6f887-361'
	DB	'4-4169-a0e5-3ac9bd4ef82b', 00H		; `string'
CONST	ENDS
;	COMDAT ?NO_TURN@CvMinorCivQuest@@2HB
CONST	SEGMENT
?NO_TURN@CvMinorCivQuest@@2HB DD 0ffffffffH		; CvMinorCivQuest::NO_TURN
CONST	ENDS
;	COMDAT ?NO_QUEST_DATA@CvMinorCivQuest@@2HB
CONST	SEGMENT
?NO_QUEST_DATA@CvMinorCivQuest@@2HB DD 0ffffffffH	; CvMinorCivQuest::NO_QUEST_DATA
CONST	ENDS
PUBLIC	??1?$_Vector_val@U?$pair@V?$basic_string@DU?$char_traits@D@std@@V?$allocator@D@2@@std@@V12@@std@@V?$allocator@U?$pair@V?$basic_string@DU?$char_traits@D@std@@V?$allocator@D@2@@std@@V12@@std@@@2@@std@@QAE@XZ ; std::_Vector_val<std::pair<std::basic_string<char,std::char_traits<char>,std::allocator<char> >,std::basic_string<char,std::char_traits<char>,std::allocator<char> > >,std::allocator<std::pair<std::basic_string<char,std::char_traits<char>,std::allocator<char> >,std::basic_string<char,std::char_traits<char>,std::allocator<char> > > > >::~_Vector_val<std::pair<std::basic_string<char,std::char_traits<char>,std::allocator<char> >,std::basic_string<char,std::char_traits<char>,std::allocator<char> > >,std::allocator<std::pair<std::basic_string<char,std::char_traits<char>,std::allocator<char> >,std::basic_string<char,std::char_traits<char>,std::allocator<char> > > > >
PUBLIC	??1?$vector@U?$pair@V?$basic_string@DU?$char_traits@D@std@@V?$allocator@D@2@@std@@V12@@std@@V?$allocator@U?$pair@V?$basic_string@DU?$char_traits@D@std@@V?$allocator@D@2@@std@@V12@@std@@@2@@std@@QAE@XZ ; std::vector<std::pair<std::basic_string<char,std::char_traits<char>,std::allocator<char> >,std::basic_string<char,std::char_traits<char>,std::allocator<char> > >,std::allocator<std::pair<std::basic_string<char,std::char_traits<char>,std::allocator<char> >,std::basic_string<char,std::char_traits<char>,std::allocator<char> > > > >::~vector<std::pair<std::basic_string<char,std::char_traits<char>,std::allocator<char> >,std::basic_string<char,std::char_traits<char>,std::allocator<char> > >,std::allocator<std::pair<std::basic_string<char,std::char_traits<char>,std::allocator<char> >,std::basic_string<char,std::char_traits<char>,std::allocator<char> > > > >
PUBLIC	?_Tidy@?$vector@U?$pair@V?$basic_string@DU?$char_traits@D@std@@V?$allocator@D@2@@std@@V12@@std@@V?$allocator@U?$pair@V?$basic_string@DU?$char_traits@D@std@@V?$allocator@D@2@@std@@V12@@std@@@2@@std@@IAEXXZ ; std::vector<std::pair<std::basic_string<char,std::char_traits<char>,std::allocator<char> >,std::basic_string<char,std::char_traits<char>,std::allocator<char> > >,std::allocator<std::pair<std::basic_string<char,std::char_traits<char>,std::allocator<char> >,std::basic_string<char,std::char_traits<char>,std::allocator<char> > > > >::_Tidy
PUBLIC	??0?$vector@U?$pair@V?$basic_string@DU?$char_traits@D@std@@V?$allocator@D@2@@std@@V12@@std@@V?$allocator@U?$pair@V?$basic_string@DU?$char_traits@D@std@@V?$allocator@D@2@@std@@V12@@std@@@2@@std@@QAE@XZ ; std::vector<std::pair<std::basic_string<char,std::char_traits<char>,std::allocator<char> >,std::basic_string<char,std::char_traits<char>,std::allocator<char> > >,std::allocator<std::pair<std::basic_string<char,std::char_traits<char>,std::allocator<char> >,std::basic_string<char,std::char_traits<char>,std::allocator<char> > > > >::vector<std::pair<std::basic_string<char,std::char_traits<char>,std::allocator<char> >,std::basic_string<char,std::char_traits<char>,std::allocator<char> > >,std::allocator<std::pair<std::basic_string<char,std::char_traits<char>,std::allocator<char> >,std::basic_string<char,std::char_traits<char>,std::allocator<char> > > > >
PUBLIC	?getSyncArchive@CvPlot@@QBEABVFAutoArchive@@XZ	; CvPlot::getSyncArchive
PUBLIC	?_Inc@const_iterator@?$_Tree@V?$_Tset_traits@PAVCvPlot@@U?$less@PAVCvPlot@@@std@@V?$allocator@PAVCvPlot@@@3@$0A@@std@@@std@@QAEXXZ ; std::_Tree<std::_Tset_traits<CvPlot *,std::less<CvPlot *>,std::allocator<CvPlot *>,0> >::const_iterator::_Inc
PUBLIC	?SyncPlots@FSerialization@@YAXXZ		; FSerialization::SyncPlots
EXTRN	??1FMemoryStream@@UAE@XZ:PROC			; FMemoryStream::~FMemoryStream
EXTRN	?saveDelta@FAutoArchive@@QBEXAAVFDataStream@@AAV?$vector@U?$pair@V?$basic_string@DU?$char_traits@D@std@@V?$allocator@D@2@@std@@V12@@std@@V?$allocator@U?$pair@V?$basic_string@DU?$char_traits@D@std@@V?$allocator@D@2@@std@@V12@@std@@@2@@std@@@Z:PROC ; FAutoArchive::saveDelta
EXTRN	??0FMemoryStream@@QAE@XZ:PROC			; FMemoryStream::FMemoryStream
EXTRN	?hasDeltas@FAutoArchive@@QBE_NXZ:PROC		; FAutoArchive::hasDeltas
EXTRN	?getActivePlayer@CvGame@@QBE?AW4PlayerTypes@@XZ:PROC ; CvGame::getActivePlayer
EXTRN	?isNetworkMultiPlayer@CvGame@@QBE_NXZ:PROC	; CvGame::isNetworkMultiPlayer
EXTRN	?gGlobals@@3VCvGlobals@@A:BYTE			; gGlobals
EXTRN	___security_cookie:DWORD
EXTRN	___CxxFrameHandler3:PROC
EXTRN	@__security_check_cookie@4:PROC
;	COMDAT xdata$x
; File c:\program files (x86)\microsoft visual studio 9.0\vc\include\xutility
xdata$x	SEGMENT
__unwindtable$?SyncPlots@FSerialization@@YAXXZ DD 0ffffffffH
	DD	FLAT:__unwindfunclet$?SyncPlots@FSerialization@@YAXXZ$0
	DD	00H
	DD	FLAT:__unwindfunclet$?SyncPlots@FSerialization@@YAXXZ$1
	DD	00H
	DD	FLAT:__unwindfunclet$?SyncPlots@FSerialization@@YAXXZ$4
__ehfuncinfo$?SyncPlots@FSerialization@@YAXXZ DD 019930522H
	DD	03H
	DD	FLAT:__unwindtable$?SyncPlots@FSerialization@@YAXXZ
	DD	2 DUP(00H)
	DD	2 DUP(00H)
	DD	00H
	DD	01H
; Function compile flags: /Odtp
; File d:\sources\lekmod_git\checkout\lekmod_dll\cvgamecoredll_expansion2\cvplot.cpp
xdata$x	ENDS
;	COMDAT ?SyncPlots@FSerialization@@YAXXZ
_TEXT	SEGMENT
tv165 = -180						; size = 4
$T229505 = -148						; size = 4
$T229501 = -144						; size = 4
$T229444 = -120						; size = 4
$T229421 = -116						; size = 4
$T229408 = -112						; size = 4
$T229399 = -108						; size = 4
$T229395 = -104						; size = 4
$T229389 = -100						; size = 4
$T229388 = -96						; size = 4
_memoryStream$221305 = -92				; size = 48
_callStacks$221607 = -44				; size = 16
_archive$221303 = -28					; size = 4
_plot$221301 = -24					; size = 4
_authoritativePlayer$221192 = -20			; size = 4
_i$221275 = -16						; size = 4
__$EHRec$ = -12						; size = 12
?SyncPlots@FSerialization@@YAXXZ PROC			; FSerialization::SyncPlots, COMDAT

; 60   : {

	push	ebp
	mov	ebp, esp
	push	-1
	push	__ehhandler$?SyncPlots@FSerialization@@YAXXZ
	mov	eax, DWORD PTR fs:0
	push	eax
	sub	esp, 168				; 000000a8H
	mov	eax, DWORD PTR ___security_cookie
	xor	eax, ebp
	push	eax
	lea	eax, DWORD PTR __$EHRec$[ebp]
	mov	DWORD PTR fs:0, eax

; 61   : 	if(GC.getGame().isNetworkMultiPlayer())

	mov	eax, DWORD PTR ?gGlobals@@3VCvGlobals@@A+48
	mov	DWORD PTR $T229395[ebp], eax
	mov	ecx, DWORD PTR $T229395[ebp]
	call	?isNetworkMultiPlayer@CvGame@@QBE_NXZ	; CvGame::isNetworkMultiPlayer
	movzx	ecx, al
	test	ecx, ecx
	je	$LN7@SyncPlots

; 62   : 	{
; 63   : 		PlayerTypes authoritativePlayer = GC.getGame().getActivePlayer();

	mov	edx, DWORD PTR ?gGlobals@@3VCvGlobals@@A+48
	mov	DWORD PTR $T229399[ebp], edx
	mov	ecx, DWORD PTR $T229399[ebp]
	call	?getActivePlayer@CvGame@@QBE?AW4PlayerTypes@@XZ ; CvGame::getActivePlayer
	mov	DWORD PTR _authoritativePlayer$221192[ebp], eax

; 64   : 		std::set<CvPlot*>::const_iterator i;

	mov	DWORD PTR _i$221275[ebp], 0

; 65   : 		for(i = plotsToCheck.begin(); i != plotsToCheck.end(); ++i)

	mov	eax, DWORD PTR ?plotsToCheck@FSerialization@@3V?$set@PAVCvPlot@@U?$less@PAVCvPlot@@@std@@V?$allocator@PAVCvPlot@@@3@@std@@A+4
	mov	DWORD PTR $T229408[ebp], eax
	mov	ecx, DWORD PTR $T229408[ebp]
	mov	edx, DWORD PTR [ecx]
	mov	DWORD PTR $T229421[ebp], edx
	mov	eax, DWORD PTR $T229421[ebp]
	mov	DWORD PTR $T229388[ebp], eax
	mov	ecx, DWORD PTR $T229388[ebp]
	mov	DWORD PTR _i$221275[ebp], ecx
	jmp	SHORT $LN5@SyncPlots
$LN4@SyncPlots:
	lea	ecx, DWORD PTR _i$221275[ebp]
	call	?_Inc@const_iterator@?$_Tree@V?$_Tset_traits@PAVCvPlot@@U?$less@PAVCvPlot@@@std@@V?$allocator@PAVCvPlot@@@3@$0A@@std@@@std@@QAEXXZ ; std::_Tree<std::_Tset_traits<CvPlot *,std::less<CvPlot *>,std::allocator<CvPlot *>,0> >::const_iterator::_Inc
$LN5@SyncPlots:
	mov	edx, DWORD PTR ?plotsToCheck@FSerialization@@3V?$set@PAVCvPlot@@U?$less@PAVCvPlot@@@std@@V?$allocator@PAVCvPlot@@@3@@std@@A+4
	mov	DWORD PTR $T229444[ebp], edx
	mov	eax, DWORD PTR $T229444[ebp]
	mov	DWORD PTR $T229389[ebp], eax
	mov	ecx, DWORD PTR _i$221275[ebp]
	xor	edx, edx
	cmp	ecx, DWORD PTR $T229389[ebp]
	sete	dl
	movzx	eax, dl
	neg	eax
	sbb	eax, eax
	add	eax, 1
	movzx	ecx, al
	test	ecx, ecx
	je	$LN7@SyncPlots

; 66   : 		{
; 67   : 			const CvPlot* plot = *i;

	mov	edx, DWORD PTR _i$221275[ebp]
	mov	eax, DWORD PTR [edx+12]
	mov	DWORD PTR _plot$221301[ebp], eax

; 68   : 
; 69   : 			if(plot)

	cmp	DWORD PTR _plot$221301[ebp], 0
	je	$LN2@SyncPlots

; 70   : 			{
; 71   : 				const FAutoArchive& archive = plot->getSyncArchive();

	mov	ecx, DWORD PTR _plot$221301[ebp]
	call	?getSyncArchive@CvPlot@@QBEABVFAutoArchive@@XZ ; CvPlot::getSyncArchive
	mov	DWORD PTR _archive$221303[ebp], eax

; 72   : 				if(archive.hasDeltas())

	mov	ecx, DWORD PTR _archive$221303[ebp]
	call	?hasDeltas@FAutoArchive@@QBE_NXZ	; FAutoArchive::hasDeltas
	movzx	ecx, al
	test	ecx, ecx
	je	$LN2@SyncPlots

; 73   : 				{
; 74   : 					FMemoryStream memoryStream;

	lea	ecx, DWORD PTR _memoryStream$221305[ebp]
	call	??0FMemoryStream@@QAE@XZ		; FMemoryStream::FMemoryStream
	mov	DWORD PTR __$EHRec$[ebp+8], 0

; 75   : 					std::vector<std::pair<std::string, std::string> > callStacks;

	lea	ecx, DWORD PTR _callStacks$221607[ebp]
	call	??0?$vector@U?$pair@V?$basic_string@DU?$char_traits@D@std@@V?$allocator@D@2@@std@@V12@@std@@V?$allocator@U?$pair@V?$basic_string@DU?$char_traits@D@std@@V?$allocator@D@2@@std@@V12@@std@@@2@@std@@QAE@XZ ; std::vector<std::pair<std::basic_string<char,std::char_traits<char>,std::allocator<char> >,std::basic_string<char,std::char_traits<char>,std::allocator<char> > >,std::allocator<std::pair<std::basic_string<char,std::char_traits<char>,std::allocator<char> >,std::basic_string<char,std::char_traits<char>,std::allocator<char> > > > >::vector<std::pair<std::basic_string<char,std::char_traits<char>,std::allocator<char> >,std::basic_string<char,std::char_traits<char>,std::allocator<char> > >,std::allocator<std::pair<std::basic_string<char,std::char_traits<char>,std::allocator<char> >,std::basic_string<char,std::char_traits<char>,std::allocator<char> > > > >
	mov	BYTE PTR __$EHRec$[ebp+8], 1

; 76   : 					archive.saveDelta(memoryStream, callStacks);

	lea	edx, DWORD PTR _callStacks$221607[ebp]
	push	edx
	lea	eax, DWORD PTR _memoryStream$221305[ebp]
	push	eax
	mov	ecx, DWORD PTR _archive$221303[ebp]
	call	?saveDelta@FAutoArchive@@QBEXAAVFDataStream@@AAV?$vector@U?$pair@V?$basic_string@DU?$char_traits@D@std@@V?$allocator@D@2@@std@@V12@@std@@V?$allocator@U?$pair@V?$basic_string@DU?$char_traits@D@std@@V?$allocator@D@2@@std@@V12@@std@@@2@@std@@@Z ; FAutoArchive::saveDelta

; 77   : #ifdef AUI_WARNING_FIXES
; 78   : 					gDLL->sendPlotSyncCheck(authoritativePlayer, short(plot->getX()), short(plot->getY()), memoryStream, callStacks);
; 79   : #else
; 80   : 					gDLL->sendPlotSyncCheck(authoritativePlayer, plot->getX(), plot->getY(), memoryStream, callStacks);

	mov	ecx, DWORD PTR $T229501[ebp]
	mov	DWORD PTR tv165[ebp], ecx
	mov	edx, DWORD PTR ?gGlobals@@3VCvGlobals@@A+8564
	mov	DWORD PTR tv165[ebp], edx
	mov	eax, DWORD PTR _plot$221301[ebp]
	movsx	ecx, WORD PTR [eax+2]
	mov	DWORD PTR $T229505[ebp], ecx
	lea	edx, DWORD PTR _callStacks$221607[ebp]
	push	edx
	lea	eax, DWORD PTR _memoryStream$221305[ebp]
	push	eax
	movzx	ecx, WORD PTR $T229505[ebp]
	push	ecx
	mov	edx, DWORD PTR _plot$221301[ebp]
	movsx	eax, WORD PTR [edx]
	push	eax
	mov	ecx, DWORD PTR _authoritativePlayer$221192[ebp]
	push	ecx
	mov	edx, DWORD PTR tv165[ebp]
	mov	eax, DWORD PTR [edx]
	mov	ecx, DWORD PTR tv165[ebp]
	mov	edx, DWORD PTR [eax+340]
	call	edx

; 81   : #endif
; 82   : 				}

	mov	BYTE PTR __$EHRec$[ebp+8], 2
	lea	ecx, DWORD PTR _callStacks$221607[ebp]
	call	?_Tidy@?$vector@U?$pair@V?$basic_string@DU?$char_traits@D@std@@V?$allocator@D@2@@std@@V12@@std@@V?$allocator@U?$pair@V?$basic_string@DU?$char_traits@D@std@@V?$allocator@D@2@@std@@V12@@std@@@2@@std@@IAEXXZ ; std::vector<std::pair<std::basic_string<char,std::char_traits<char>,std::allocator<char> >,std::basic_string<char,std::char_traits<char>,std::allocator<char> > >,std::allocator<std::pair<std::basic_string<char,std::char_traits<char>,std::allocator<char> >,std::basic_string<char,std::char_traits<char>,std::allocator<char> > > > >::_Tidy
	mov	BYTE PTR __$EHRec$[ebp+8], 0
	mov	DWORD PTR __$EHRec$[ebp+8], -1
	lea	ecx, DWORD PTR _memoryStream$221305[ebp]
	call	??1FMemoryStream@@UAE@XZ		; FMemoryStream::~FMemoryStream
$LN2@SyncPlots:

; 83   : 			}
; 84   : 		}

	jmp	$LN4@SyncPlots
$LN7@SyncPlots:

; 85   : 	}
; 86   : }

	mov	ecx, DWORD PTR __$EHRec$[ebp]
	mov	DWORD PTR fs:0, ecx
	pop	ecx
	mov	esp, ebp
	pop	ebp
	ret	0
_TEXT	ENDS
;	COMDAT text$x
text$x	SEGMENT
__unwindfunclet$?SyncPlots@FSerialization@@YAXXZ$0:
	lea	ecx, DWORD PTR _memoryStream$221305[ebp]
	jmp	??1FMemoryStream@@UAE@XZ		; FMemoryStream::~FMemoryStream
__unwindfunclet$?SyncPlots@FSerialization@@YAXXZ$1:
	lea	ecx, DWORD PTR _callStacks$221607[ebp]
	jmp	??1?$vector@U?$pair@V?$basic_string@DU?$char_traits@D@std@@V?$allocator@D@2@@std@@V12@@std@@V?$allocator@U?$pair@V?$basic_string@DU?$char_traits@D@std@@V?$allocator@D@2@@std@@V12@@std@@@2@@std@@QAE@XZ ; std::vector<std::pair<std::basic_string<char,std::char_traits<char>,std::allocator<char> >,std::basic_string<char,std::char_traits<char>,std::allocator<char> > >,std::allocator<std::pair<std::basic_string<char,std::char_traits<char>,std::allocator<char> >,std::basic_string<char,std::char_traits<char>,std::allocator<char> > > > >::~vector<std::pair<std::basic_string<char,std::char_traits<char>,std::allocator<char> >,std::basic_string<char,std::char_traits<char>,std::allocator<char> > >,std::allocator<std::pair<std::basic_string<char,std::char_traits<char>,std::allocator<char> >,std::basic_string<char,std::char_traits<char>,std::allocator<char> > > > >
__unwindfunclet$?SyncPlots@FSerialization@@YAXXZ$4:
	lea	ecx, DWORD PTR _callStacks$221607[ebp]
	jmp	??1?$_Vector_val@U?$pair@V?$basic_string@DU?$char_traits@D@std@@V?$allocator@D@2@@std@@V12@@std@@V?$allocator@U?$pair@V?$basic_string@DU?$char_traits@D@std@@V?$allocator@D@2@@std@@V12@@std@@@2@@std@@QAE@XZ
__ehhandler$?SyncPlots@FSerialization@@YAXXZ:
	mov	edx, DWORD PTR [esp+8]
	lea	eax, DWORD PTR [edx+12]
	mov	ecx, DWORD PTR [edx-172]
	xor	ecx, eax
	call	@__security_check_cookie@4
	mov	eax, OFFSET __ehfuncinfo$?SyncPlots@FSerialization@@YAXXZ
	jmp	___CxxFrameHandler3
text$x	ENDS
?SyncPlots@FSerialization@@YAXXZ ENDP			; FSerialization::SyncPlots
PUBLIC	?getSyncArchive@CvPlot@@QAEAAVFAutoArchive@@XZ	; CvPlot::getSyncArchive
PUBLIC	?ClearPlotDeltas@FSerialization@@YAXXZ		; FSerialization::ClearPlotDeltas
EXTRN	?clearDelta@FAutoArchive@@QAEXXZ:PROC		; FAutoArchive::clearDelta
; Function compile flags: /Odtp
;	COMDAT ?ClearPlotDeltas@FSerialization@@YAXXZ
_TEXT	SEGMENT
$T229703 = -48						; size = 4
$T229630 = -28						; size = 4
$T229617 = -24						; size = 4
$T229603 = -20						; size = 4
$T229602 = -16						; size = 4
_archive$221626 = -12					; size = 4
_plot$221624 = -8					; size = 4
_i$ = -4						; size = 4
?ClearPlotDeltas@FSerialization@@YAXXZ PROC		; FSerialization::ClearPlotDeltas, COMDAT

; 90   : {

	push	ebp
	mov	ebp, esp
	sub	esp, 48					; 00000030H

; 91   : 	std::set<CvPlot*>::iterator i;

	mov	DWORD PTR _i$[ebp], 0

; 92   : 	for(i = plotsToCheck.begin(); i != plotsToCheck.end(); ++i)

	mov	eax, DWORD PTR ?plotsToCheck@FSerialization@@3V?$set@PAVCvPlot@@U?$less@PAVCvPlot@@@std@@V?$allocator@PAVCvPlot@@@3@@std@@A+4
	mov	DWORD PTR $T229617[ebp], eax
	mov	ecx, DWORD PTR $T229617[ebp]
	mov	edx, DWORD PTR [ecx]
	mov	DWORD PTR $T229630[ebp], edx
	mov	eax, DWORD PTR $T229630[ebp]
	mov	DWORD PTR $T229602[ebp], eax
	mov	ecx, DWORD PTR $T229602[ebp]
	mov	DWORD PTR _i$[ebp], ecx
	jmp	SHORT $LN4@ClearPlotD
$LN3@ClearPlotD:
	lea	ecx, DWORD PTR _i$[ebp]
	call	?_Inc@const_iterator@?$_Tree@V?$_Tset_traits@PAVCvPlot@@U?$less@PAVCvPlot@@@std@@V?$allocator@PAVCvPlot@@@3@$0A@@std@@@std@@QAEXXZ ; std::_Tree<std::_Tset_traits<CvPlot *,std::less<CvPlot *>,std::allocator<CvPlot *>,0> >::const_iterator::_Inc
$LN4@ClearPlotD:
	mov	edx, DWORD PTR ?plotsToCheck@FSerialization@@3V?$set@PAVCvPlot@@U?$less@PAVCvPlot@@@std@@V?$allocator@PAVCvPlot@@@3@@std@@A+4
	mov	DWORD PTR $T229703[ebp], edx
	mov	eax, DWORD PTR $T229703[ebp]
	mov	DWORD PTR $T229603[ebp], eax
	mov	ecx, DWORD PTR _i$[ebp]
	xor	edx, edx
	cmp	ecx, DWORD PTR $T229603[ebp]
	sete	dl
	movzx	eax, dl
	neg	eax
	sbb	eax, eax
	add	eax, 1
	movzx	ecx, al
	test	ecx, ecx
	je	SHORT $LN5@ClearPlotD

; 93   : 	{
; 94   : 		CvPlot* plot = *i;

	mov	edx, DWORD PTR _i$[ebp]
	mov	eax, DWORD PTR [edx+12]
	mov	DWORD PTR _plot$221624[ebp], eax

; 95   : 
; 96   : 		if(plot)

	cmp	DWORD PTR _plot$221624[ebp], 0
	je	SHORT $LN1@ClearPlotD

; 97   : 		{
; 98   : 			FAutoArchive& archive = plot->getSyncArchive();

	mov	ecx, DWORD PTR _plot$221624[ebp]
	call	?getSyncArchive@CvPlot@@QAEAAVFAutoArchive@@XZ ; CvPlot::getSyncArchive
	mov	DWORD PTR _archive$221626[ebp], eax

; 99   : 			archive.clearDelta();

	mov	ecx, DWORD PTR _archive$221626[ebp]
	call	?clearDelta@FAutoArchive@@QAEXXZ	; FAutoArchive::clearDelta
$LN1@ClearPlotD:

; 100  : 		}

	jmp	SHORT $LN3@ClearPlotD
$LN5@ClearPlotD:

; 101  : 	}
; 102  : }

	mov	esp, ebp
	pop	ebp
	ret	0
?ClearPlotDeltas@FSerialization@@YAXXZ ENDP		; FSerialization::ClearPlotDeltas
_TEXT	ENDS
PUBLIC	??5@YAAAVFDataStream@@AAV0@AAUCvArchaeologyData@@@Z ; operator>>
EXTRN	??5@YAAAVFDataStream@@AAV0@AAW4PlayerTypes@@@Z:PROC ; operator>>
EXTRN	??5@YAAAVFDataStream@@AAV0@AAW4EraTypes@@@Z:PROC ; operator>>
EXTRN	?Read@FDataStream@@IAEXAAH@Z:PROC		; FDataStream::Read
EXTRN	?Read@FDataStream@@IAEXAAI@Z:PROC		; FDataStream::Read
; Function compile flags: /Odtp
;	COMDAT ??5@YAAAVFDataStream@@AAV0@AAUCvArchaeologyData@@@Z
_TEXT	SEGMENT
_uiVersion$ = -8					; size = 4
_iTemp$ = -4						; size = 4
_loadFrom$ = 8						; size = 4
_writeTo$ = 12						; size = 4
??5@YAAAVFDataStream@@AAV0@AAUCvArchaeologyData@@@Z PROC ; operator>>, COMDAT

; 109  : {

	push	ebp
	mov	ebp, esp
	sub	esp, 8

; 110  : 	uint uiVersion;
; 111  : 	loadFrom >> uiVersion;

	lea	eax, DWORD PTR _uiVersion$[ebp]
	push	eax
	mov	ecx, DWORD PTR _loadFrom$[ebp]
	call	?Read@FDataStream@@IAEXAAI@Z		; FDataStream::Read

; 112  : 
; 113  : 	int iTemp;
; 114  : 	loadFrom >> iTemp;

	lea	ecx, DWORD PTR _iTemp$[ebp]
	push	ecx
	mov	ecx, DWORD PTR _loadFrom$[ebp]
	call	?Read@FDataStream@@IAEXAAH@Z		; FDataStream::Read

; 115  : 	writeTo.m_eArtifactType = (GreatWorkArtifactClass)iTemp;

	mov	edx, DWORD PTR _writeTo$[ebp]
	mov	eax, DWORD PTR _iTemp$[ebp]
	mov	DWORD PTR [edx], eax

; 116  : 	loadFrom >> writeTo.m_eEra;

	mov	ecx, DWORD PTR _writeTo$[ebp]
	add	ecx, 4
	push	ecx
	mov	edx, DWORD PTR _loadFrom$[ebp]
	push	edx
	call	??5@YAAAVFDataStream@@AAV0@AAW4EraTypes@@@Z ; operator>>
	add	esp, 8

; 117  : 	loadFrom >> writeTo.m_ePlayer1;

	mov	eax, DWORD PTR _writeTo$[ebp]
	add	eax, 8
	push	eax
	mov	ecx, DWORD PTR _loadFrom$[ebp]
	push	ecx
	call	??5@YAAAVFDataStream@@AAV0@AAW4PlayerTypes@@@Z ; operator>>
	add	esp, 8

; 118  : 	loadFrom >> writeTo.m_ePlayer2;

	mov	edx, DWORD PTR _writeTo$[ebp]
	add	edx, 12					; 0000000cH
	push	edx
	mov	eax, DWORD PTR _loadFrom$[ebp]
	push	eax
	call	??5@YAAAVFDataStream@@AAV0@AAW4PlayerTypes@@@Z ; operator>>
	add	esp, 8

; 119  : 	if (uiVersion >= 2)

	cmp	DWORD PTR _uiVersion$[ebp], 2
	jb	SHORT $LN2@operator

; 120  : 	{
; 121  : 		loadFrom >> iTemp;

	lea	ecx, DWORD PTR _iTemp$[ebp]
	push	ecx
	mov	ecx, DWORD PTR _loadFrom$[ebp]
	call	?Read@FDataStream@@IAEXAAH@Z		; FDataStream::Read

; 122  : 		writeTo.m_eWork = (GreatWorkType)iTemp;

	mov	edx, DWORD PTR _writeTo$[ebp]
	mov	eax, DWORD PTR _iTemp$[ebp]
	mov	DWORD PTR [edx+16], eax

; 123  : 	}
; 124  : 	else

	jmp	SHORT $LN1@operator
$LN2@operator:

; 125  : 	{
; 126  : 		writeTo.m_eWork = NO_GREAT_WORK;

	mov	ecx, DWORD PTR _writeTo$[ebp]
	mov	DWORD PTR [ecx+16], -1
$LN1@operator:

; 127  : 	}
; 128  : 
; 129  : 	return loadFrom;

	mov	eax, DWORD PTR _loadFrom$[ebp]

; 130  : }

	mov	esp, ebp
	pop	ebp
	ret	0
??5@YAAAVFDataStream@@AAV0@AAUCvArchaeologyData@@@Z ENDP ; operator>>
_TEXT	ENDS
PUBLIC	??6@YAAAVFDataStream@@AAV0@ABUCvArchaeologyData@@@Z ; operator<<
EXTRN	??6@YAAAVFDataStream@@AAV0@ABW4PlayerTypes@@@Z:PROC ; operator<<
EXTRN	??6@YAAAVFDataStream@@AAV0@ABW4EraTypes@@@Z:PROC ; operator<<
EXTRN	?Write@FDataStream@@IAEXABH@Z:PROC		; FDataStream::Write
EXTRN	?Write@FDataStream@@IAEXABI@Z:PROC		; FDataStream::Write
; Function compile flags: /Odtp
;	COMDAT ??6@YAAAVFDataStream@@AAV0@ABUCvArchaeologyData@@@Z
_TEXT	SEGMENT
$T229757 = -12						; size = 4
$T229752 = -8						; size = 4
_uiVersion$ = -4					; size = 4
_saveTo$ = 8						; size = 4
_readFrom$ = 12						; size = 4
??6@YAAAVFDataStream@@AAV0@ABUCvArchaeologyData@@@Z PROC ; operator<<, COMDAT

; 134  : {

	push	ebp
	mov	ebp, esp
	sub	esp, 12					; 0000000cH

; 135  : 	uint uiVersion = 2;

	mov	DWORD PTR _uiVersion$[ebp], 2

; 136  : 	saveTo << uiVersion;

	lea	eax, DWORD PTR _uiVersion$[ebp]
	push	eax
	mov	ecx, DWORD PTR _saveTo$[ebp]
	call	?Write@FDataStream@@IAEXABI@Z		; FDataStream::Write

; 137  : 
; 138  : 	saveTo << readFrom.m_eArtifactType;

	mov	ecx, DWORD PTR _readFrom$[ebp]
	mov	edx, DWORD PTR [ecx]
	mov	DWORD PTR $T229752[ebp], edx
	lea	eax, DWORD PTR $T229752[ebp]
	push	eax
	mov	ecx, DWORD PTR _saveTo$[ebp]
	call	?Write@FDataStream@@IAEXABH@Z		; FDataStream::Write

; 139  : 	saveTo << readFrom.m_eEra;

	mov	ecx, DWORD PTR _readFrom$[ebp]
	add	ecx, 4
	push	ecx
	mov	edx, DWORD PTR _saveTo$[ebp]
	push	edx
	call	??6@YAAAVFDataStream@@AAV0@ABW4EraTypes@@@Z ; operator<<
	add	esp, 8

; 140  : 	saveTo << readFrom.m_ePlayer1;

	mov	eax, DWORD PTR _readFrom$[ebp]
	add	eax, 8
	push	eax
	mov	ecx, DWORD PTR _saveTo$[ebp]
	push	ecx
	call	??6@YAAAVFDataStream@@AAV0@ABW4PlayerTypes@@@Z ; operator<<
	add	esp, 8

; 141  : 	saveTo << readFrom.m_ePlayer2;

	mov	edx, DWORD PTR _readFrom$[ebp]
	add	edx, 12					; 0000000cH
	push	edx
	mov	eax, DWORD PTR _saveTo$[ebp]
	push	eax
	call	??6@YAAAVFDataStream@@AAV0@ABW4PlayerTypes@@@Z ; operator<<
	add	esp, 8

; 142  : 	saveTo << readFrom.m_eWork;

	mov	ecx, DWORD PTR _readFrom$[ebp]
	mov	edx, DWORD PTR [ecx+16]
	mov	DWORD PTR $T229757[ebp], edx
	lea	eax, DWORD PTR $T229757[ebp]
	push	eax
	mov	ecx, DWORD PTR _saveTo$[ebp]
	call	?Write@FDataStream@@IAEXABH@Z		; FDataStream::Write

; 143  : 
; 144  : 	return saveTo;

	mov	eax, DWORD PTR _saveTo$[ebp]

; 145  : }

	mov	esp, ebp
	pop	ebp
	ret	0
??6@YAAAVFDataStream@@AAV0@ABUCvArchaeologyData@@@Z ENDP ; operator<<
_TEXT	ENDS
PUBLIC	??1?$FAutoVariable@DVCvPlot@@@@UAE@XZ		; FAutoVariable<char,CvPlot>::~FAutoVariable<char,CvPlot>
PUBLIC	??1?$FAutoArchiveClassContainer@VCvPlot@@@@UAE@XZ ; FAutoArchiveClassContainer<CvPlot>::~FAutoArchiveClassContainer<CvPlot>
PUBLIC	??1?$FObjectHandle@VCvUnit@@@@QAE@XZ		; FObjectHandle<CvUnit>::~FObjectHandle<CvUnit>
PUBLIC	??1?$FFastSmallFixedList@UIDInfo@@$07$00$0BCJ@$0A@@@QAE@XZ ; FFastSmallFixedList<IDInfo,8,1,297,0>::~FFastSmallFixedList<IDInfo,8,1,297,0>
PUBLIC	??1?$FStaticVector@UIDInfo@@$07$00$0BCJ@$0A@@@QAE@XZ ; FStaticVector<IDInfo,8,1,297,0>::~FStaticVector<IDInfo,8,1,297,0>
PUBLIC	?reset@CvPlot@@QAEXHH_N@Z			; CvPlot::reset
PUBLIC	?insert@?$_Tree@V?$_Tset_traits@PAVCvPlot@@U?$less@PAVCvPlot@@@std@@V?$allocator@PAVCvPlot@@@3@$0A@@std@@@std@@QAE?AU?$pair@Viterator@?$_Tree@V?$_Tset_traits@PAVCvPlot@@U?$less@PAVCvPlot@@@std@@V?$allocator@PAVCvPlot@@@3@$0A@@std@@@std@@_N@2@ABQAVCvPlot@@@Z ; std::_Tree<std::_Tset_traits<CvPlot *,std::less<CvPlot *>,std::allocator<CvPlot *>,0> >::insert
PUBLIC	??0?$FAutoVariable@DVCvPlot@@@@QAE@ABV?$basic_string@DU?$char_traits@D@std@@V?$allocator@D@2@@std@@AAV?$FAutoArchiveClassContainer@VCvPlot@@@@_N@Z ; FAutoVariable<char,CvPlot>::FAutoVariable<char,CvPlot>
PUBLIC	??_C@_0BH@CBFDEJLB@CvPlot?3?3m_eFeatureType?$AA@ ; `string'
PUBLIC	??_7?$FAutoArchiveClassContainer@VCvPlot@@@@6B@	; FAutoArchiveClassContainer<CvPlot>::`vftable'
PUBLIC	?GrowSize@?$FStaticVector@UIDInfo@@$07$00$0BCJ@$0A@@@IAEXI@Z ; FStaticVector<IDInfo,8,1,297,0>::GrowSize
PUBLIC	??0?$FStaticVector@UIDInfo@@$07$00$0BCJ@$0A@@@QAE@XZ ; FStaticVector<IDInfo,8,1,297,0>::FStaticVector<IDInfo,8,1,297,0>
PUBLIC	??0CvPlot@@QAE@XZ				; CvPlot::CvPlot
PUBLIC	?getVariableName@?$FAutoArchiveClassContainer@VCvPlot@@@@UBEPBV?$basic_string@DU?$char_traits@D@std@@V?$allocator@D@2@@std@@ABVFAutoVariableBase@@@Z ; FAutoArchiveClassContainer<CvPlot>::getVariableName
PUBLIC	?setVariableName@?$FAutoArchiveClassContainer@VCvPlot@@@@UBEXABVFAutoVariableBase@@ABV?$basic_string@DU?$char_traits@D@std@@V?$allocator@D@2@@std@@@Z ; FAutoArchiveClassContainer<CvPlot>::setVariableName
PUBLIC	?debugDump@?$FAutoArchiveClassContainer@VCvPlot@@@@UBE?AV?$basic_string@DU?$char_traits@D@std@@V?$allocator@D@2@@std@@ABVFAutoVariableBase@@@Z ; FAutoArchiveClassContainer<CvPlot>::debugDump
PUBLIC	?stackTraceRemark@?$FAutoArchiveClassContainer@VCvPlot@@@@UBE?AV?$basic_string@DU?$char_traits@D@std@@V?$allocator@D@2@@std@@ABVFAutoVariableBase@@@Z ; FAutoArchiveClassContainer<CvPlot>::stackTraceRemark
EXTRN	__imp_??1?$basic_string@DU?$char_traits@D@std@@V?$allocator@D@2@@std@@QAE@XZ:PROC
EXTRN	__imp_??0?$basic_string@DU?$char_traits@D@std@@V?$allocator@D@2@@std@@QAE@PBD@Z:PROC
EXTRN	??0FAutoArchive@@QAE@XZ:PROC			; FAutoArchive::FAutoArchive
EXTRN	??_E?$FAutoArchiveClassContainer@VCvPlot@@@@UAEPAXI@Z:PROC ; FAutoArchiveClassContainer<CvPlot>::`vector deleting destructor'
;	COMDAT ??_C@_0BH@CBFDEJLB@CvPlot?3?3m_eFeatureType?$AA@
; File c:\program files (x86)\microsoft visual studio 9.0\vc\include\utility
CONST	SEGMENT
??_C@_0BH@CBFDEJLB@CvPlot?3?3m_eFeatureType?$AA@ DB 'CvPlot::m_eFeatureTy'
	DB	'pe', 00H					; `string'
CONST	ENDS
;	COMDAT ??_7?$FAutoArchiveClassContainer@VCvPlot@@@@6B@
CONST	SEGMENT
??_7?$FAutoArchiveClassContainer@VCvPlot@@@@6B@ DD FLAT:??_E?$FAutoArchiveClassContainer@VCvPlot@@@@UAEPAXI@Z ; FAutoArchiveClassContainer<CvPlot>::`vftable'
	DD	FLAT:?getVariableName@?$FAutoArchiveClassContainer@VCvPlot@@@@UBEPBV?$basic_string@DU?$char_traits@D@std@@V?$allocator@D@2@@std@@ABVFAutoVariableBase@@@Z
	DD	FLAT:?setVariableName@?$FAutoArchiveClassContainer@VCvPlot@@@@UBEXABVFAutoVariableBase@@ABV?$basic_string@DU?$char_traits@D@std@@V?$allocator@D@2@@std@@@Z
	DD	FLAT:?debugDump@?$FAutoArchiveClassContainer@VCvPlot@@@@UBE?AV?$basic_string@DU?$char_traits@D@std@@V?$allocator@D@2@@std@@ABVFAutoVariableBase@@@Z
	DD	FLAT:?stackTraceRemark@?$FAutoArchiveClassContainer@VCvPlot@@@@UBE?AV?$basic_string@DU?$char_traits@D@std@@V?$allocator@D@2@@std@@ABVFAutoVariableBase@@@Z
CONST	ENDS
;	COMDAT xdata$x
xdata$x	SEGMENT
__ehfuncinfo$??0CvPlot@@QAE@XZ DD 019930522H
	DD	07H
	DD	FLAT:__unwindtable$??0CvPlot@@QAE@XZ
	DD	2 DUP(00H)
	DD	2 DUP(00H)
	DD	00H
	DD	01H
__unwindtable$??0CvPlot@@QAE@XZ DD 0ffffffffH
	DD	FLAT:__unwindfunclet$??0CvPlot@@QAE@XZ$5
	DD	0ffffffffH
	DD	FLAT:__unwindfunclet$??0CvPlot@@QAE@XZ$0
	DD	01H
	DD	FLAT:__unwindfunclet$??0CvPlot@@QAE@XZ$1
	DD	02H
	DD	FLAT:__unwindfunclet$??0CvPlot@@QAE@XZ$2
	DD	03H
	DD	FLAT:__unwindfunclet$??0CvPlot@@QAE@XZ$3
	DD	04H
	DD	FLAT:__unwindfunclet$??0CvPlot@@QAE@XZ$4
	DD	03H
	DD	FLAT:__unwindfunclet$??0CvPlot@@QAE@XZ$4
; Function compile flags: /Odtp
; File d:\sources\lekmod_git\checkout\lekmod_dll\cvgamecoredll_expansion2\cvplot.cpp
xdata$x	ENDS
;	COMDAT ??0CvPlot@@QAE@XZ
_TEXT	SEGMENT
_this$ = -164						; size = 4
$T229821 = -88						; size = 4
$T229817 = -84						; size = 4
$T229812 = -80						; size = 4
$T229808 = -76						; size = 4
$T229804 = -72						; size = 4
$T229800 = -68						; size = 4
$T229796 = -64						; size = 4
$T229792 = -60						; size = 4
$T229788 = -56						; size = 4
$T229763 = -52						; size = 8
$T229762 = -44						; size = 4
$T229761 = -40						; size = 28
__$EHRec$ = -12						; size = 12
??0CvPlot@@QAE@XZ PROC					; CvPlot::CvPlot, COMDAT
; _this$ = ecx

; 153  : {

	push	ebp
	mov	ebp, esp
	push	-1
	push	__ehhandler$??0CvPlot@@QAE@XZ
	mov	eax, DWORD PTR fs:0
	push	eax
	sub	esp, 152				; 00000098H
	mov	eax, DWORD PTR ___security_cookie
	xor	eax, ebp
	push	eax
	lea	eax, DWORD PTR __$EHRec$[ebp]
	mov	DWORD PTR fs:0, eax
	mov	DWORD PTR _this$[ebp], ecx
	mov	eax, DWORD PTR _this$[ebp]
	add	eax, 24					; 00000018H
	mov	DWORD PTR $T229788[ebp], eax
	mov	ecx, DWORD PTR $T229788[ebp]
	call	??0?$FStaticVector@UIDInfo@@$07$00$0BCJ@$0A@@@QAE@XZ ; FStaticVector<IDInfo,8,1,297,0>::FStaticVector<IDInfo,8,1,297,0>
	mov	DWORD PTR __$EHRec$[ebp+8], 0
	mov	ecx, DWORD PTR $T229788[ebp]
	cmp	DWORD PTR [ecx+8], 0
	jae	SHORT $LN13@CvPlot
	push	0
	mov	ecx, DWORD PTR $T229788[ebp]
	call	?GrowSize@?$FStaticVector@UIDInfo@@$07$00$0BCJ@$0A@@@IAEXI@Z ; FStaticVector<IDInfo,8,1,297,0>::GrowSize
$LN13@CvPlot:
	mov	edx, DWORD PTR $T229788[ebp]
	mov	DWORD PTR [edx+4], 0
	mov	DWORD PTR __$EHRec$[ebp+8], 1
	mov	eax, DWORD PTR _this$[ebp]
	add	eax, 104				; 00000068H
	mov	DWORD PTR $T229792[ebp], eax
	mov	ecx, DWORD PTR $T229792[ebp]
	mov	DWORD PTR [ecx], -1
	mov	edx, DWORD PTR $T229792[ebp]
	mov	DWORD PTR [edx+4], -1
	mov	eax, DWORD PTR _this$[ebp]
	add	eax, 112				; 00000070H
	mov	DWORD PTR $T229796[ebp], eax
	mov	ecx, DWORD PTR $T229796[ebp]
	mov	DWORD PTR [ecx], -1
	mov	edx, DWORD PTR $T229796[ebp]
	mov	DWORD PTR [edx+4], -1
	mov	eax, DWORD PTR _this$[ebp]
	add	eax, 120				; 00000078H
	mov	DWORD PTR $T229800[ebp], eax
	mov	ecx, DWORD PTR $T229800[ebp]
	mov	DWORD PTR [ecx], -1
	mov	edx, DWORD PTR $T229800[ebp]
	mov	DWORD PTR [edx+4], -1
	mov	eax, DWORD PTR _this$[ebp]
	add	eax, 128				; 00000080H
	mov	DWORD PTR $T229804[ebp], eax
	mov	ecx, DWORD PTR $T229804[ebp]
	mov	DWORD PTR [ecx], -1
	mov	edx, DWORD PTR $T229804[ebp]
	mov	DWORD PTR [edx+4], -1
	mov	eax, DWORD PTR _this$[ebp]
	add	eax, 136				; 00000088H
	mov	DWORD PTR $T229808[ebp], eax
	mov	ecx, DWORD PTR $T229808[ebp]
	mov	DWORD PTR [ecx], -1
	mov	edx, DWORD PTR $T229808[ebp]
	mov	DWORD PTR [edx+4], -1
	mov	eax, DWORD PTR _this$[ebp]
	add	eax, 188				; 000000bcH
	mov	DWORD PTR $T229812[ebp], eax
	mov	ecx, DWORD PTR $T229812[ebp]
	mov	DWORD PTR [ecx], 0
	mov	edx, DWORD PTR $T229812[ebp]
	mov	BYTE PTR [edx+4], 0
	mov	BYTE PTR __$EHRec$[ebp+8], 2
	mov	eax, DWORD PTR _this$[ebp]
	add	eax, 392				; 00000188H
	mov	DWORD PTR $T229817[ebp], eax
	mov	ecx, DWORD PTR $T229817[ebp]
	call	??0FAutoArchive@@QAE@XZ			; FAutoArchive::FAutoArchive
	mov	ecx, DWORD PTR $T229817[ebp]
	mov	DWORD PTR [ecx], OFFSET ??_7?$FAutoArchiveClassContainer@VCvPlot@@@@6B@
	mov	edx, DWORD PTR $T229817[ebp]
	mov	eax, DWORD PTR _this$[ebp]
	mov	DWORD PTR [edx+32], eax
	mov	BYTE PTR __$EHRec$[ebp+8], 3
	push	OFFSET ??_C@_0BH@CBFDEJLB@CvPlot?3?3m_eFeatureType?$AA@
	lea	ecx, DWORD PTR $T229761[ebp]
	call	DWORD PTR __imp_??0?$basic_string@DU?$char_traits@D@std@@V?$allocator@D@2@@std@@QAE@PBD@Z
	mov	BYTE PTR __$EHRec$[ebp+8], 4
	push	1
	mov	ecx, DWORD PTR _this$[ebp]
	add	ecx, 392				; 00000188H
	push	ecx
	lea	edx, DWORD PTR $T229761[ebp]
	push	edx
	mov	ecx, DWORD PTR _this$[ebp]
	add	ecx, 428				; 000001acH
	call	??0?$FAutoVariable@DVCvPlot@@@@QAE@ABV?$basic_string@DU?$char_traits@D@std@@V?$allocator@D@2@@std@@AAV?$FAutoArchiveClassContainer@VCvPlot@@@@_N@Z ; FAutoVariable<char,CvPlot>::FAutoVariable<char,CvPlot>
	mov	BYTE PTR __$EHRec$[ebp+8], 6
	lea	ecx, DWORD PTR $T229761[ebp]
	call	DWORD PTR __imp_??1?$basic_string@DU?$char_traits@D@std@@V?$allocator@D@2@@std@@QAE@XZ
	mov	eax, DWORD PTR _this$[ebp]
	add	eax, 464				; 000001d0H
	mov	DWORD PTR $T229821[ebp], eax
	mov	ecx, DWORD PTR $T229821[ebp]
	mov	DWORD PTR [ecx], 0
	mov	edx, DWORD PTR $T229821[ebp]
	mov	DWORD PTR [edx+4], -1
	mov	eax, DWORD PTR $T229821[ebp]
	mov	DWORD PTR [eax+8], -1
	mov	ecx, DWORD PTR $T229821[ebp]
	mov	DWORD PTR [ecx+12], -1
	mov	edx, DWORD PTR $T229821[ebp]
	mov	DWORD PTR [edx+16], -1

; 154  : 	FSerialization::plotsToCheck.insert(this);

	mov	eax, DWORD PTR _this$[ebp]
	mov	DWORD PTR $T229762[ebp], eax
	lea	ecx, DWORD PTR $T229762[ebp]
	push	ecx
	lea	edx, DWORD PTR $T229763[ebp]
	push	edx
	mov	ecx, OFFSET ?plotsToCheck@FSerialization@@3V?$set@PAVCvPlot@@U?$less@PAVCvPlot@@@std@@V?$allocator@PAVCvPlot@@@3@@std@@A ; FSerialization::plotsToCheck
	call	?insert@?$_Tree@V?$_Tset_traits@PAVCvPlot@@U?$less@PAVCvPlot@@@std@@V?$allocator@PAVCvPlot@@@3@$0A@@std@@@std@@QAE?AU?$pair@Viterator@?$_Tree@V?$_Tset_traits@PAVCvPlot@@U?$less@PAVCvPlot@@@std@@V?$allocator@PAVCvPlot@@@3@$0A@@std@@@std@@_N@2@ABQAVCvPlot@@@Z ; std::_Tree<std::_Tset_traits<CvPlot *,std::less<CvPlot *>,std::allocator<CvPlot *>,0> >::insert

; 155  : 	m_paiBuildProgress = NULL;

	mov	eax, DWORD PTR _this$[ebp]
	mov	DWORD PTR [eax+184], 0

; 156  : 
; 157  : 	m_szScriptData = NULL;

	mov	ecx, DWORD PTR _this$[ebp]
	mov	DWORD PTR [ecx+180], 0

; 158  : 
; 159  : 	m_cContinentType = 0;

	mov	edx, DWORD PTR _this$[ebp]
	mov	BYTE PTR [edx+459], 0

; 160  : 	m_cRiverCrossing = 0;

	mov	eax, DWORD PTR _this$[ebp]
	mov	BYTE PTR [eax+460], 0

; 161  : 
; 162  : 	reset(0, 0, true);

	push	1
	push	0
	push	0
	mov	ecx, DWORD PTR _this$[ebp]
	call	?reset@CvPlot@@QAEXHH_N@Z		; CvPlot::reset

; 163  : }

	mov	DWORD PTR __$EHRec$[ebp+8], -1
	mov	eax, DWORD PTR _this$[ebp]
	mov	ecx, DWORD PTR __$EHRec$[ebp]
	mov	DWORD PTR fs:0, ecx
	pop	ecx
	mov	esp, ebp
	pop	ebp
	ret	0
_TEXT	ENDS
;	COMDAT text$x
text$x	SEGMENT
__unwindfunclet$??0CvPlot@@QAE@XZ$5:
	mov	ecx, DWORD PTR $T229788[ebp]
	jmp	??1?$FStaticVector@UIDInfo@@$07$00$0BCJ@$0A@@@QAE@XZ ; FStaticVector<IDInfo,8,1,297,0>::~FStaticVector<IDInfo,8,1,297,0>
__unwindfunclet$??0CvPlot@@QAE@XZ$0:
	mov	ecx, DWORD PTR _this$[ebp]
	add	ecx, 24					; 00000018H
	jmp	??1?$FFastSmallFixedList@UIDInfo@@$07$00$0BCJ@$0A@@@QAE@XZ
__unwindfunclet$??0CvPlot@@QAE@XZ$1:
	mov	ecx, DWORD PTR _this$[ebp]
	add	ecx, 188				; 000000bcH
	jmp	??1?$FObjectHandle@VCvUnit@@@@QAE@XZ	; FObjectHandle<CvUnit>::~FObjectHandle<CvUnit>
__unwindfunclet$??0CvPlot@@QAE@XZ$2:
	mov	ecx, DWORD PTR _this$[ebp]
	add	ecx, 392				; 00000188H
	jmp	??1?$FAutoArchiveClassContainer@VCvPlot@@@@UAE@XZ
__unwindfunclet$??0CvPlot@@QAE@XZ$3:
	lea	ecx, DWORD PTR $T229761[ebp]
	jmp	DWORD PTR __imp_??1?$basic_string@DU?$char_traits@D@std@@V?$allocator@D@2@@std@@QAE@XZ
__unwindfunclet$??0CvPlot@@QAE@XZ$4:
	mov	ecx, DWORD PTR _this$[ebp]
	add	ecx, 428				; 000001acH
	jmp	??1?$FAutoVariable@DVCvPlot@@@@UAE@XZ	; FAutoVariable<char,CvPlot>::~FAutoVariable<char,CvPlot>
__ehhandler$??0CvPlot@@QAE@XZ:
	mov	edx, DWORD PTR [esp+8]
	lea	eax, DWORD PTR [edx+12]
	mov	ecx, DWORD PTR [edx-156]
	xor	ecx, eax
	call	@__security_check_cookie@4
	mov	eax, OFFSET __ehfuncinfo$??0CvPlot@@QAE@XZ
	jmp	___CxxFrameHandler3
text$x	ENDS
??0CvPlot@@QAE@XZ ENDP					; CvPlot::CvPlot
; Function compile flags: /Odtp
;	COMDAT ??1?$FFastSmallFixedList@UIDInfo@@$07$00$0BCJ@$0A@@@QAE@XZ
_TEXT	SEGMENT
_this$ = -16						; size = 4
??1?$FFastSmallFixedList@UIDInfo@@$07$00$0BCJ@$0A@@@QAE@XZ PROC ; FFastSmallFixedList<IDInfo,8,1,297,0>::~FFastSmallFixedList<IDInfo,8,1,297,0>, COMDAT
; _this$ = ecx
	push	ebp
	mov	ebp, esp
	sub	esp, 16					; 00000010H
	mov	DWORD PTR _this$[ebp], ecx
	mov	ecx, DWORD PTR _this$[ebp]
	call	??1?$FStaticVector@UIDInfo@@$07$00$0BCJ@$0A@@@QAE@XZ ; FStaticVector<IDInfo,8,1,297,0>::~FStaticVector<IDInfo,8,1,297,0>
	mov	esp, ebp
	pop	ebp
	ret	0
??1?$FFastSmallFixedList@UIDInfo@@$07$00$0BCJ@$0A@@@QAE@XZ ENDP ; FFastSmallFixedList<IDInfo,8,1,297,0>::~FFastSmallFixedList<IDInfo,8,1,297,0>
_TEXT	ENDS
EXTRN	??1FAutoArchive@@UAE@XZ:PROC			; FAutoArchive::~FAutoArchive
; Function compile flags: /Odtp
;	COMDAT ??1?$FAutoArchiveClassContainer@VCvPlot@@@@UAE@XZ
_TEXT	SEGMENT
_this$ = -4						; size = 4
??1?$FAutoArchiveClassContainer@VCvPlot@@@@UAE@XZ PROC	; FAutoArchiveClassContainer<CvPlot>::~FAutoArchiveClassContainer<CvPlot>, COMDAT
; _this$ = ecx
	push	ebp
	mov	ebp, esp
	push	ecx
	mov	DWORD PTR _this$[ebp], ecx
	mov	ecx, DWORD PTR _this$[ebp]
	call	??1FAutoArchive@@UAE@XZ			; FAutoArchive::~FAutoArchive
	mov	esp, ebp
	pop	ebp
	ret	0
??1?$FAutoArchiveClassContainer@VCvPlot@@@@UAE@XZ ENDP	; FAutoArchiveClassContainer<CvPlot>::~FAutoArchiveClassContainer<CvPlot>
_TEXT	ENDS
PUBLIC	?uninit@CvPlot@@QAEXXZ				; CvPlot::uninit
PUBLIC	?erase@?$_Tree@V?$_Tset_traits@PAVCvPlot@@U?$less@PAVCvPlot@@@std@@V?$allocator@PAVCvPlot@@@3@$0A@@std@@@std@@QAEIABQAVCvPlot@@@Z ; std::_Tree<std::_Tset_traits<CvPlot *,std::less<CvPlot *>,std::allocator<CvPlot *>,0> >::erase
PUBLIC	??1CvPlot@@QAE@XZ				; CvPlot::~CvPlot
EXTRN	?getDestructionNotification@CvUnit@@QAEAAU?$DestructionNotification@V?$FObjectHandle@VCvUnit@@@@@@XZ:PROC ; CvUnit::getDestructionNotification
;	COMDAT xdata$x
; File d:\sources\lekmod_git\checkout\lekmod_dll\fireplace\include\fireworks\ffastvector.h
xdata$x	SEGMENT
__unwindtable$??1CvPlot@@QAE@XZ DD 0ffffffffH
	DD	FLAT:__unwindfunclet$??1CvPlot@@QAE@XZ$0
	DD	00H
	DD	FLAT:__unwindfunclet$??1CvPlot@@QAE@XZ$1
	DD	01H
	DD	FLAT:__unwindfunclet$??1CvPlot@@QAE@XZ$2
	DD	02H
	DD	FLAT:__unwindfunclet$??1CvPlot@@QAE@XZ$3
__ehfuncinfo$??1CvPlot@@QAE@XZ DD 019930522H
	DD	04H
	DD	FLAT:__unwindtable$??1CvPlot@@QAE@XZ
	DD	2 DUP(00H)
	DD	2 DUP(00H)
	DD	00H
	DD	01H
; Function compile flags: /Odtp
; File d:\sources\lekmod_git\checkout\lekmod_dll\cvgamecoredll_expansion2\cvplot.cpp
xdata$x	ENDS
;	COMDAT ??1CvPlot@@QAE@XZ
_TEXT	SEGMENT
_this$ = -136						; size = 4
$T230233 = -132						; size = 4
$T230201 = -116						; size = 4
$T230191 = -112						; size = 4
$T229996 = -16						; size = 4
__$EHRec$ = -12						; size = 12
??1CvPlot@@QAE@XZ PROC					; CvPlot::~CvPlot, COMDAT
; _this$ = ecx

; 168  : {

	push	ebp
	mov	ebp, esp
	push	-1
	push	__ehhandler$??1CvPlot@@QAE@XZ
	mov	eax, DWORD PTR fs:0
	push	eax
	sub	esp, 124				; 0000007cH
	mov	eax, DWORD PTR ___security_cookie
	xor	eax, ebp
	push	eax
	lea	eax, DWORD PTR __$EHRec$[ebp]
	mov	DWORD PTR fs:0, eax
	mov	DWORD PTR _this$[ebp], ecx
	mov	DWORD PTR __$EHRec$[ebp+8], 3

; 169  : 	FSerialization::plotsToCheck.erase(this);

	mov	eax, DWORD PTR _this$[ebp]
	mov	DWORD PTR $T229996[ebp], eax
	lea	ecx, DWORD PTR $T229996[ebp]
	push	ecx
	mov	ecx, OFFSET ?plotsToCheck@FSerialization@@3V?$set@PAVCvPlot@@U?$less@PAVCvPlot@@@std@@V?$allocator@PAVCvPlot@@@3@@std@@A ; FSerialization::plotsToCheck
	call	?erase@?$_Tree@V?$_Tset_traits@PAVCvPlot@@U?$less@PAVCvPlot@@@std@@V?$allocator@PAVCvPlot@@@3@$0A@@std@@@std@@QAEIABQAVCvPlot@@@Z ; std::_Tree<std::_Tset_traits<CvPlot *,std::less<CvPlot *>,std::allocator<CvPlot *>,0> >::erase

; 170  : 	uninit();

	mov	ecx, DWORD PTR _this$[ebp]
	call	?uninit@CvPlot@@QAEXXZ			; CvPlot::uninit

; 171  : }

	mov	BYTE PTR __$EHRec$[ebp+8], 2
	mov	ecx, DWORD PTR _this$[ebp]
	add	ecx, 428				; 000001acH
	call	??1?$FAutoVariable@DVCvPlot@@@@UAE@XZ	; FAutoVariable<char,CvPlot>::~FAutoVariable<char,CvPlot>
	mov	BYTE PTR __$EHRec$[ebp+8], 1
	mov	edx, DWORD PTR _this$[ebp]
	add	edx, 392				; 00000188H
	mov	DWORD PTR $T230191[ebp], edx
	mov	ecx, DWORD PTR $T230191[ebp]
	call	??1FAutoArchive@@UAE@XZ			; FAutoArchive::~FAutoArchive
	mov	BYTE PTR __$EHRec$[ebp+8], 0
	mov	eax, DWORD PTR _this$[ebp]
	add	eax, 188				; 000000bcH
	mov	DWORD PTR $T230201[ebp], eax
	mov	ecx, DWORD PTR $T230201[ebp]
	cmp	DWORD PTR [ecx], 0
	je	SHORT $LN82@CvPlot@2
	mov	edx, DWORD PTR $T230201[ebp]
	mov	ecx, DWORD PTR [edx]
	call	?getDestructionNotification@CvUnit@@QAEAAU?$DestructionNotification@V?$FObjectHandle@VCvUnit@@@@@@XZ ; CvUnit::getDestructionNotification
$LN82@CvPlot@2:
	mov	DWORD PTR __$EHRec$[ebp+8], -1
	mov	eax, DWORD PTR _this$[ebp]
	add	eax, 24					; 00000018H
	mov	DWORD PTR $T230233[ebp], eax
	mov	ecx, DWORD PTR $T230233[ebp]
	call	??1?$FStaticVector@UIDInfo@@$07$00$0BCJ@$0A@@@QAE@XZ ; FStaticVector<IDInfo,8,1,297,0>::~FStaticVector<IDInfo,8,1,297,0>
	mov	ecx, DWORD PTR __$EHRec$[ebp]
	mov	DWORD PTR fs:0, ecx
	pop	ecx
	mov	esp, ebp
	pop	ebp
	ret	0
_TEXT	ENDS
;	COMDAT text$x
text$x	SEGMENT
__unwindfunclet$??1CvPlot@@QAE@XZ$0:
	mov	ecx, DWORD PTR _this$[ebp]
	add	ecx, 24					; 00000018H
	jmp	??1?$FFastSmallFixedList@UIDInfo@@$07$00$0BCJ@$0A@@@QAE@XZ
__unwindfunclet$??1CvPlot@@QAE@XZ$1:
	mov	ecx, DWORD PTR _this$[ebp]
	add	ecx, 188				; 000000bcH
	jmp	??1?$FObjectHandle@VCvUnit@@@@QAE@XZ	; FObjectHandle<CvUnit>::~FObjectHandle<CvUnit>
__unwindfunclet$??1CvPlot@@QAE@XZ$2:
	mov	ecx, DWORD PTR _this$[ebp]
	add	ecx, 392				; 00000188H
	jmp	??1?$FAutoArchiveClassContainer@VCvPlot@@@@UAE@XZ
__unwindfunclet$??1CvPlot@@QAE@XZ$3:
	mov	ecx, DWORD PTR _this$[ebp]
	add	ecx, 428				; 000001acH
	jmp	??1?$FAutoVariable@DVCvPlot@@@@UAE@XZ	; FAutoVariable<char,CvPlot>::~FAutoVariable<char,CvPlot>
__ehhandler$??1CvPlot@@QAE@XZ:
	mov	edx, DWORD PTR [esp+8]
	lea	eax, DWORD PTR [edx+12]
	mov	ecx, DWORD PTR [edx-128]
	xor	ecx, eax
	call	@__security_check_cookie@4
	mov	eax, OFFSET __ehfuncinfo$??1CvPlot@@QAE@XZ
	jmp	___CxxFrameHandler3
text$x	ENDS
??1CvPlot@@QAE@XZ ENDP					; CvPlot::~CvPlot
PUBLIC	?init@CvPlot@@QAEXHH@Z				; CvPlot::init
; Function compile flags: /Odtp
;	COMDAT ?init@CvPlot@@QAEXHH@Z
_TEXT	SEGMENT
_this$ = -4						; size = 4
_iX$ = 8						; size = 4
_iY$ = 12						; size = 4
?init@CvPlot@@QAEXHH@Z PROC				; CvPlot::init, COMDAT
; _this$ = ecx

; 175  : {

	push	ebp
	mov	ebp, esp
	push	ecx
	mov	DWORD PTR _this$[ebp], ecx

; 176  : 	//--------------------------------
; 177  : 	// Init saved data
; 178  : 	reset(iX, iY);

	push	0
	mov	eax, DWORD PTR _iY$[ebp]
	push	eax
	mov	ecx, DWORD PTR _iX$[ebp]
	push	ecx
	mov	ecx, DWORD PTR _this$[ebp]
	call	?reset@CvPlot@@QAEXHH_N@Z		; CvPlot::reset

; 179  : 
; 180  : 	//--------------------------------
; 181  : 	// Init non-saved data
; 182  : 
; 183  : 	//--------------------------------
; 184  : 	// Init other game data
; 185  : }

	mov	esp, ebp
	pop	ebp
	ret	8
?init@CvPlot@@QAEXHH@Z ENDP				; CvPlot::init
_TEXT	ENDS
EXTRN	??_V@YAXPAX@Z:PROC				; operator delete[]
; Function compile flags: /Odtp
;	COMDAT ?uninit@CvPlot@@QAEXXZ
_TEXT	SEGMENT
_this$ = -64						; size = 4
$T230318 = -60						; size = 4
$T230271 = -20						; size = 4
$T230270 = -16						; size = 4
$T230265 = -12						; size = 4
$T230249 = -8						; size = 4
$T230248 = -4						; size = 4
?uninit@CvPlot@@QAEXXZ PROC				; CvPlot::uninit, COMDAT
; _this$ = ecx

; 190  : {

	push	ebp
	mov	ebp, esp
	sub	esp, 64					; 00000040H
	mov	DWORD PTR _this$[ebp], ecx

; 191  : 	SAFE_DELETE_ARRAY(m_szScriptData);

	mov	eax, DWORD PTR _this$[ebp]
	add	eax, 180				; 000000b4H
	mov	DWORD PTR $T230249[ebp], eax
	mov	ecx, DWORD PTR $T230249[ebp]
	mov	edx, DWORD PTR [ecx]
	mov	DWORD PTR $T230248[ebp], edx
	mov	eax, DWORD PTR $T230248[ebp]
	push	eax
	call	??_V@YAXPAX@Z				; operator delete[]
	add	esp, 4
	mov	ecx, DWORD PTR $T230249[ebp]
	mov	DWORD PTR [ecx], 0

; 192  : 
; 193  : 	m_pCenterUnit = NULL;

	mov	edx, DWORD PTR _this$[ebp]
	add	edx, 188				; 000000bcH
	mov	DWORD PTR $T230265[ebp], edx
	mov	eax, DWORD PTR $T230265[ebp]
	cmp	DWORD PTR [eax], 0
	je	SHORT $LN6@uninit
	mov	ecx, DWORD PTR $T230265[ebp]
	mov	ecx, DWORD PTR [ecx]
	call	?getDestructionNotification@CvUnit@@QAEAAU?$DestructionNotification@V?$FObjectHandle@VCvUnit@@@@@@XZ ; CvUnit::getDestructionNotification
$LN6@uninit:
	mov	edx, DWORD PTR $T230265[ebp]
	mov	DWORD PTR [edx], 0
	mov	eax, DWORD PTR $T230265[ebp]
	cmp	DWORD PTR [eax], 0
	je	SHORT $LN7@uninit
	mov	ecx, DWORD PTR $T230265[ebp]
	mov	ecx, DWORD PTR [ecx]
	call	?getDestructionNotification@CvUnit@@QAEAAU?$DestructionNotification@V?$FObjectHandle@VCvUnit@@@@@@XZ ; CvUnit::getDestructionNotification
$LN7@uninit:

; 194  : 
; 195  : 	SAFE_DELETE_ARRAY(m_paiBuildProgress);

	mov	edx, DWORD PTR _this$[ebp]
	add	edx, 184				; 000000b8H
	mov	DWORD PTR $T230271[ebp], edx
	mov	eax, DWORD PTR $T230271[ebp]
	mov	ecx, DWORD PTR [eax]
	mov	DWORD PTR $T230270[ebp], ecx
	mov	edx, DWORD PTR $T230270[ebp]
	push	edx
	call	??_V@YAXPAX@Z				; operator delete[]
	add	esp, 4
	mov	eax, DWORD PTR $T230271[ebp]
	mov	DWORD PTR [eax], 0

; 196  : 
; 197  : 	m_units.clear();

	mov	ecx, DWORD PTR _this$[ebp]
	add	ecx, 24					; 00000018H
	mov	DWORD PTR $T230318[ebp], ecx
	mov	edx, DWORD PTR $T230318[ebp]
	cmp	DWORD PTR [edx+8], 0
	jae	SHORT $LN17@uninit
	push	0
	mov	ecx, DWORD PTR $T230318[ebp]
	call	?GrowSize@?$FStaticVector@UIDInfo@@$07$00$0BCJ@$0A@@@IAEXI@Z ; FStaticVector<IDInfo,8,1,297,0>::GrowSize
$LN17@uninit:
	mov	eax, DWORD PTR $T230318[ebp]
	mov	DWORD PTR [eax+4], 0

; 198  : }

	mov	esp, ebp
	pop	ebp
	ret	0
?uninit@CvPlot@@QAEXXZ ENDP				; CvPlot::uninit
_TEXT	ENDS
PUBLIC	?insert@?$_Tree@V?$_Tset_traits@PAVFAutoVariableBase@@U?$less@PAVFAutoVariableBase@@@std@@V?$allocator@PAVFAutoVariableBase@@@3@$0A@@std@@@std@@QAE?AU?$pair@Viterator@?$_Tree@V?$_Tset_traits@PAVFAutoVariableBase@@U?$less@PAVFAutoVariableBase@@@std@@V?$allocator@PAVFAutoVariableBase@@@3@$0A@@std@@@std@@_N@2@ABQAVFAutoVariableBase@@@Z ; std::_Tree<std::_Tset_traits<FAutoVariableBase *,std::less<FAutoVariableBase *>,std::allocator<FAutoVariableBase *>,0> >::insert
; Function compile flags: /Odtp
;	COMDAT ?reset@CvPlot@@QAEXHH_N@Z
_TEXT	SEGMENT
_this$ = -104						; size = 4
$T230380 = -100						; size = 4
_i$230372 = -96						; size = 4
$T230369 = -92						; size = 4
$T230365 = -88						; size = 4
$T230361 = -84						; size = 4
$T230357 = -80						; size = 4
$T230353 = -76						; size = 4
$T230349 = -72						; size = 4
$T230331 = -68						; size = 4
$T230348 = -64						; size = 8
$T230347 = -56						; size = 4
$T230321 = -49						; size = 1
_iJ$221778 = -48					; size = 4
_iI$221774 = -44					; size = 4
_iI$221770 = -40					; size = 4
_iI$221766 = -36					; size = 4
_iI$221762 = -32					; size = 4
_iI$221758 = -28					; size = 4
_iI$221754 = -24					; size = 4
_iI$221750 = -20					; size = 4
_iI$221746 = -16					; size = 4
_iI$221742 = -12					; size = 4
_iI$221738 = -8						; size = 4
_iI$221734 = -4						; size = 4
_iX$ = 8						; size = 4
_iY$ = 12						; size = 4
_bConstructorCall$ = 16					; size = 1
?reset@CvPlot@@QAEXHH_N@Z PROC				; CvPlot::reset, COMDAT
; _this$ = ecx

; 204  : {

	push	ebp
	mov	ebp, esp
	sub	esp, 104				; 00000068H
	mov	DWORD PTR _this$[ebp], ecx

; 205  : 	//--------------------------------
; 206  : 	// Uninit class
; 207  : 	uninit();

	mov	ecx, DWORD PTR _this$[ebp]
	call	?uninit@CvPlot@@QAEXXZ			; CvPlot::uninit

; 208  : 
; 209  : 	m_iX = iX;

	mov	eax, DWORD PTR _this$[ebp]
	mov	cx, WORD PTR _iX$[ebp]
	mov	WORD PTR [eax], cx

; 210  : 	m_iY = iY;

	mov	edx, DWORD PTR _this$[ebp]
	mov	ax, WORD PTR _iY$[ebp]
	mov	WORD PTR [edx+2], ax

; 211  : 	m_iArea = FFreeList::INVALID_INDEX;

	mov	ecx, DWORD PTR _this$[ebp]
	mov	DWORD PTR [ecx+356], -1

; 212  : 	m_iLandmass = FFreeList::INVALID_INDEX;

	mov	edx, DWORD PTR _this$[ebp]
	mov	DWORD PTR [edx+360], -1

; 213  : 	m_iFeatureVariety = 0;

	mov	eax, DWORD PTR _this$[ebp]
	mov	BYTE PTR [eax+453], 0

; 214  : 	m_iOwnershipDuration = 0;

	xor	ecx, ecx
	mov	edx, DWORD PTR _this$[ebp]
	mov	WORD PTR [edx+380], cx

; 215  : 	m_iImprovementDuration = 0;

	xor	eax, eax
	mov	ecx, DWORD PTR _this$[ebp]
	mov	WORD PTR [ecx+382], ax

; 216  : 	m_iUpgradeProgress = 0;

	xor	edx, edx
	mov	eax, DWORD PTR _this$[ebp]
	mov	WORD PTR [eax+384], dx

; 217  : 	m_iCulture = 0;

	xor	ecx, ecx
	mov	edx, DWORD PTR _this$[ebp]
	mov	WORD PTR [edx+386], cx

; 218  : 	m_iNumMajorCivsRevealed = 0;

	mov	eax, DWORD PTR _this$[ebp]
	mov	BYTE PTR [eax+454], 0

; 219  : 	m_iCityRadiusCount = 0;

	mov	ecx, DWORD PTR _this$[ebp]
	mov	BYTE PTR [ecx+455], 0

; 220  : 	m_iReconCount = 0;

	mov	edx, DWORD PTR _this$[ebp]
	mov	BYTE PTR [edx+456], 0

; 221  : 	m_iRiverCrossingCount = 0;

	mov	eax, DWORD PTR _this$[ebp]
	mov	BYTE PTR [eax+457], 0

; 222  : 	m_iResourceNum = 0;

	mov	ecx, DWORD PTR _this$[ebp]
	mov	BYTE PTR [ecx+458], 0

; 223  : 	m_cContinentType = 0;

	mov	edx, DWORD PTR _this$[ebp]
	mov	BYTE PTR [edx+459], 0

; 224  : 
; 225  : 	m_uiTradeRouteBitFlags = 0;

	mov	eax, DWORD PTR _this$[ebp]
	mov	DWORD PTR [eax+388], 0

; 226  : 
; 227  : 	m_bStartingPlot = false;

	mov	ecx, DWORD PTR _this$[ebp]
	mov	dl, BYTE PTR [ecx+461]
	and	dl, 251					; 000000fbH
	mov	eax, DWORD PTR _this$[ebp]
	mov	BYTE PTR [eax+461], dl

; 228  : 	m_bHills = false;

	mov	ecx, DWORD PTR _this$[ebp]
	mov	dl, BYTE PTR [ecx+461]
	and	dl, 247					; 000000f7H
	mov	eax, DWORD PTR _this$[ebp]
	mov	BYTE PTR [eax+461], dl

; 229  : 	m_bNEOfRiver = false;

	mov	ecx, DWORD PTR _this$[ebp]
	mov	dl, BYTE PTR [ecx+461]
	and	dl, 239					; 000000efH
	mov	eax, DWORD PTR _this$[ebp]
	mov	BYTE PTR [eax+461], dl

; 230  : 	m_bWOfRiver = false;

	mov	ecx, DWORD PTR _this$[ebp]
	mov	dl, BYTE PTR [ecx+461]
	and	dl, 223					; 000000dfH
	mov	eax, DWORD PTR _this$[ebp]
	mov	BYTE PTR [eax+461], dl

; 231  : 	m_bNWOfRiver = false;

	mov	ecx, DWORD PTR _this$[ebp]
	mov	dl, BYTE PTR [ecx+461]
	and	dl, 191					; 000000bfH
	mov	eax, DWORD PTR _this$[ebp]
	mov	BYTE PTR [eax+461], dl

; 232  : 	m_bPotentialCityWork = false;

	mov	ecx, DWORD PTR _this$[ebp]
	mov	dl, BYTE PTR [ecx+461]
	and	dl, 127					; 0000007fH
	mov	eax, DWORD PTR _this$[ebp]
	mov	BYTE PTR [eax+461], dl

; 233  : 	m_bPlotLayoutDirty = false;

	mov	ecx, DWORD PTR _this$[ebp]
	mov	dl, BYTE PTR [ecx+462]
	and	dl, 254					; 000000feH
	mov	eax, DWORD PTR _this$[ebp]
	mov	BYTE PTR [eax+462], dl

; 234  : 	m_bLayoutStateWorked = false;

	mov	ecx, DWORD PTR _this$[ebp]
	mov	dl, BYTE PTR [ecx+462]
	and	dl, 253					; 000000fdH
	mov	eax, DWORD PTR _this$[ebp]
	mov	BYTE PTR [eax+462], dl

; 235  : 	m_bImprovementPillaged = false;

	mov	ecx, DWORD PTR _this$[ebp]
	mov	dl, BYTE PTR [ecx+461]
	and	dl, 254					; 000000feH
	mov	eax, DWORD PTR _this$[ebp]
	mov	BYTE PTR [eax+461], dl

; 236  : 	m_bRoutePillaged = false;

	mov	ecx, DWORD PTR _this$[ebp]
	mov	dl, BYTE PTR [ecx+461]
	and	dl, 253					; 000000fdH
	mov	eax, DWORD PTR _this$[ebp]
	mov	BYTE PTR [eax+461], dl

; 237  : 	m_bBarbCampNotConverting = false;

	mov	ecx, DWORD PTR _this$[ebp]
	mov	dl, BYTE PTR [ecx+462]
	and	dl, 251					; 000000fbH
	mov	eax, DWORD PTR _this$[ebp]
	mov	BYTE PTR [eax+462], dl

; 238  : 	m_bRoughFeature = false;

	mov	ecx, DWORD PTR _this$[ebp]
	mov	dl, BYTE PTR [ecx+462]
	and	dl, 247					; 000000f7H
	mov	eax, DWORD PTR _this$[ebp]
	mov	BYTE PTR [eax+462], dl

; 239  : 	m_bResourceLinkedCityActive = false;

	mov	ecx, DWORD PTR _this$[ebp]
	mov	dl, BYTE PTR [ecx+462]
	and	dl, 239					; 000000efH
	mov	eax, DWORD PTR _this$[ebp]
	mov	BYTE PTR [eax+462], dl

; 240  : 	m_bImprovedByGiftFromMajor = false;

	mov	ecx, DWORD PTR _this$[ebp]
	mov	dl, BYTE PTR [ecx+462]
	and	dl, 223					; 000000dfH
	mov	eax, DWORD PTR _this$[ebp]
	mov	BYTE PTR [eax+462], dl

; 241  : 	m_bIsAdjacentToLand = false;

	mov	ecx, DWORD PTR _this$[ebp]
	mov	dl, BYTE PTR [ecx+462]
	and	dl, 191					; 000000bfH
	mov	eax, DWORD PTR _this$[ebp]
	mov	BYTE PTR [eax+462], dl

; 242  : 	m_bIsImpassable = false;

	mov	ecx, DWORD PTR _this$[ebp]
	mov	dl, BYTE PTR [ecx+462]
	and	dl, 127					; 0000007fH
	mov	eax, DWORD PTR _this$[ebp]
	mov	BYTE PTR [eax+462], dl

; 243  : 
; 244  : 	m_eOwner = NO_PLAYER;

	mov	ecx, DWORD PTR _this$[ebp]
	mov	BYTE PTR [ecx+4], -1

; 245  : 	m_ePlotType = PLOT_OCEAN;

	mov	edx, DWORD PTR _this$[ebp]
	mov	BYTE PTR [edx+5], 3

; 246  : 	m_eTerrainType = NO_TERRAIN;

	mov	eax, DWORD PTR _this$[ebp]
	mov	BYTE PTR [eax+6], -1

; 247  : 	m_eFeatureType = NO_FEATURE;

	mov	BYTE PTR $T230321[ebp], -1
	mov	ecx, DWORD PTR _this$[ebp]
	add	ecx, 428				; 000001acH
	mov	DWORD PTR $T230349[ebp], ecx
	movsx	edx, BYTE PTR $T230321[ebp]
	mov	eax, DWORD PTR $T230349[ebp]
	movsx	ecx, BYTE PTR [eax+4]
	cmp	edx, ecx
	je	SHORT $LN41@reset
	mov	edx, DWORD PTR $T230349[ebp]
	movsx	eax, BYTE PTR [edx+4]
	movsx	ecx, BYTE PTR $T230321[ebp]
	cmp	eax, ecx
	je	SHORT $LN41@reset
	mov	edx, DWORD PTR $T230349[ebp]
	mov	eax, DWORD PTR [edx+8]
	mov	DWORD PTR $T230331[ebp], eax
	mov	ecx, DWORD PTR $T230349[ebp]
	mov	DWORD PTR $T230347[ebp], ecx
	lea	edx, DWORD PTR $T230347[ebp]
	push	edx
	lea	eax, DWORD PTR $T230348[ebp]
	push	eax
	mov	ecx, DWORD PTR $T230331[ebp]
	add	ecx, 20					; 00000014H
	call	?insert@?$_Tree@V?$_Tset_traits@PAVFAutoVariableBase@@U?$less@PAVFAutoVariableBase@@@std@@V?$allocator@PAVFAutoVariableBase@@@3@$0A@@std@@@std@@QAE?AU?$pair@Viterator@?$_Tree@V?$_Tset_traits@PAVFAutoVariableBase@@U?$less@PAVFAutoVariableBase@@@std@@V?$allocator@PAVFAutoVariableBase@@@3@$0A@@std@@@std@@_N@2@ABQAVFAutoVariableBase@@@Z ; std::_Tree<std::_Tset_traits<FAutoVariableBase *,std::less<FAutoVariableBase *>,std::allocator<FAutoVariableBase *>,0> >::insert
	mov	ecx, DWORD PTR $T230349[ebp]
	mov	dl, BYTE PTR $T230321[ebp]
	mov	BYTE PTR [ecx+4], dl
$LN41@reset:

; 248  : 	m_eResourceType = NO_RESOURCE;

	mov	eax, DWORD PTR _this$[ebp]
	mov	BYTE PTR [eax+440], -1

; 249  : 	m_eImprovementType = NO_IMPROVEMENT;

	mov	ecx, DWORD PTR _this$[ebp]
	mov	BYTE PTR [ecx+441], -1

; 250  : 	m_eImprovementTypeUnderConstruction = NO_IMPROVEMENT;

	mov	edx, DWORD PTR _this$[ebp]
	mov	BYTE PTR [edx+442], -1

; 251  : 	m_ePlayerBuiltImprovement = NO_PLAYER;

	mov	eax, DWORD PTR _this$[ebp]
	mov	BYTE PTR [eax+443], -1

; 252  : 	m_ePlayerResponsibleForImprovement = NO_PLAYER;

	mov	ecx, DWORD PTR _this$[ebp]
	mov	BYTE PTR [ecx+444], -1

; 253  : 	m_ePlayerResponsibleForRoute = NO_PLAYER;

	mov	edx, DWORD PTR _this$[ebp]
	mov	BYTE PTR [edx+445], -1

; 254  : 	m_ePlayerThatClearedBarbCampHere = NO_PLAYER;

	mov	eax, DWORD PTR _this$[ebp]
	mov	BYTE PTR [eax+446], -1

; 255  : 	m_eRouteType = NO_ROUTE;

	mov	ecx, DWORD PTR _this$[ebp]
	mov	BYTE PTR [ecx+447], -1

; 256  : 	m_eWorldAnchor = NO_WORLD_ANCHOR;

	mov	edx, DWORD PTR _this$[ebp]
	mov	BYTE PTR [edx+448], -1

; 257  : 	m_cWorldAnchorData = NO_WORLD_ANCHOR;

	mov	eax, DWORD PTR _this$[ebp]
	mov	BYTE PTR [eax+449], -1

; 258  : 	m_eRiverEFlowDirection = NO_FLOWDIRECTION;

	mov	ecx, DWORD PTR _this$[ebp]
	mov	BYTE PTR [ecx+450], -1

; 259  : 	m_eRiverSEFlowDirection = NO_FLOWDIRECTION;

	mov	edx, DWORD PTR _this$[ebp]
	mov	BYTE PTR [edx+451], -1

; 260  : 	m_eRiverSWFlowDirection = NO_FLOWDIRECTION;

	mov	eax, DWORD PTR _this$[ebp]
	mov	BYTE PTR [eax+452], -1

; 261  : 	m_cRiverCrossing = 0;

	mov	ecx, DWORD PTR _this$[ebp]
	mov	BYTE PTR [ecx+460], 0

; 262  : 
; 263  : 	m_cBuilderAIScratchPadPlayer = 0;

	mov	edx, DWORD PTR _this$[ebp]
	mov	BYTE PTR [edx+368], 0

; 264  : 	m_sBuilderAIScratchPadTurn = 0;

	xor	eax, eax
	mov	ecx, DWORD PTR _this$[ebp]
	mov	WORD PTR [ecx+370], ax

; 265  : 	m_sBuilderAIScratchPadValue = 0;

	xor	edx, edx
	mov	eax, DWORD PTR _this$[ebp]
	mov	WORD PTR [eax+372], dx

; 266  : 	m_eBuilderAIScratchPadRoute = NO_ROUTE;

	mov	ecx, DWORD PTR _this$[ebp]
	mov	DWORD PTR [ecx+376], -1

; 267  : 
; 268  : 	m_plotCity.reset();

	mov	edx, DWORD PTR _this$[ebp]
	add	edx, 104				; 00000068H
	mov	DWORD PTR $T230353[ebp], edx
	mov	eax, DWORD PTR $T230353[ebp]
	mov	DWORD PTR [eax], -1
	mov	ecx, DWORD PTR $T230353[ebp]
	mov	DWORD PTR [ecx+4], -1

; 269  : 	m_workingCity.reset();

	mov	edx, DWORD PTR _this$[ebp]
	add	edx, 112				; 00000070H
	mov	DWORD PTR $T230357[ebp], edx
	mov	eax, DWORD PTR $T230357[ebp]
	mov	DWORD PTR [eax], -1
	mov	ecx, DWORD PTR $T230357[ebp]
	mov	DWORD PTR [ecx+4], -1

; 270  : 	m_workingCityOverride.reset();

	mov	edx, DWORD PTR _this$[ebp]
	add	edx, 120				; 00000078H
	mov	DWORD PTR $T230361[ebp], edx
	mov	eax, DWORD PTR $T230361[ebp]
	mov	DWORD PTR [eax], -1
	mov	ecx, DWORD PTR $T230361[ebp]
	mov	DWORD PTR [ecx+4], -1

; 271  : 	m_ResourceLinkedCity.reset();

	mov	edx, DWORD PTR _this$[ebp]
	add	edx, 128				; 00000080H
	mov	DWORD PTR $T230365[ebp], edx
	mov	eax, DWORD PTR $T230365[ebp]
	mov	DWORD PTR [eax], -1
	mov	ecx, DWORD PTR $T230365[ebp]
	mov	DWORD PTR [ecx+4], -1

; 272  : 	m_purchaseCity.reset();

	mov	edx, DWORD PTR _this$[ebp]
	add	edx, 136				; 00000088H
	mov	DWORD PTR $T230369[ebp], edx
	mov	eax, DWORD PTR $T230369[ebp]
	mov	DWORD PTR [eax], -1
	mov	ecx, DWORD PTR $T230369[ebp]
	mov	DWORD PTR [ecx+4], -1

; 273  : 	
; 274  : 	if(!bConstructorCall)

	movzx	edx, BYTE PTR _bConstructorCall$[ebp]
	test	edx, edx
	jne	$LN37@reset

; 275  : 	{
; 276  : 		for(int iI = 0; iI < NUM_YIELD_TYPES; ++iI)

	mov	DWORD PTR _iI$221734[ebp], 0
	jmp	SHORT $LN36@reset
$LN35@reset:
	mov	eax, DWORD PTR _iI$221734[ebp]
	add	eax, 1
	mov	DWORD PTR _iI$221734[ebp], eax
$LN36@reset:
	cmp	DWORD PTR _iI$221734[ebp], 6
	jge	SHORT $LN34@reset

; 277  : 		{
; 278  : 			m_aiYield[iI] = 0;

	mov	ecx, DWORD PTR _this$[ebp]
	mov	edx, DWORD PTR [ecx+144]
	xor	eax, eax
	mov	ecx, DWORD PTR _iI$221734[ebp]
	mov	WORD PTR [edx+ecx*2], ax

; 279  : 		}

	jmp	SHORT $LN35@reset
$LN34@reset:

; 280  : 		for(int iI = 0; iI < REALLY_MAX_PLAYERS; ++iI)

	mov	DWORD PTR _iI$221738[ebp], 0
	jmp	SHORT $LN33@reset
$LN32@reset:
	mov	edx, DWORD PTR _iI$221738[ebp]
	add	edx, 1
	mov	DWORD PTR _iI$221738[ebp], edx
$LN33@reset:
	cmp	DWORD PTR _iI$221738[ebp], 80		; 00000050H
	jge	SHORT $LN31@reset

; 281  : 		{
; 282  : 			m_aiFoundValue[iI] = -1;

	mov	eax, DWORD PTR _this$[ebp]
	mov	ecx, DWORD PTR [eax+148]
	mov	edx, DWORD PTR _iI$221738[ebp]
	mov	DWORD PTR [ecx+edx*4], -1

; 283  : 		}

	jmp	SHORT $LN32@reset
$LN31@reset:

; 284  : 		for(int iI = 0; iI < REALLY_MAX_PLAYERS; ++iI)

	mov	DWORD PTR _iI$221742[ebp], 0
	jmp	SHORT $LN30@reset
$LN29@reset:
	mov	eax, DWORD PTR _iI$221742[ebp]
	add	eax, 1
	mov	DWORD PTR _iI$221742[ebp], eax
$LN30@reset:
	cmp	DWORD PTR _iI$221742[ebp], 80		; 00000050H
	jge	SHORT $LN28@reset

; 285  : 		{
; 286  : 			m_aiPlayerCityRadiusCount[iI] = 0;

	mov	ecx, DWORD PTR _this$[ebp]
	mov	edx, DWORD PTR [ecx+152]
	mov	eax, DWORD PTR _iI$221742[ebp]
	mov	BYTE PTR [edx+eax], 0

; 287  : 		}

	jmp	SHORT $LN29@reset
$LN28@reset:

; 288  : 		for(int iI = 0; iI < REALLY_MAX_TEAMS; ++iI)

	mov	DWORD PTR _iI$221746[ebp], 0
	jmp	SHORT $LN27@reset
$LN26@reset:
	mov	ecx, DWORD PTR _iI$221746[ebp]
	add	ecx, 1
	mov	DWORD PTR _iI$221746[ebp], ecx
$LN27@reset:
	cmp	DWORD PTR _iI$221746[ebp], 80		; 00000050H
	jge	SHORT $LN25@reset

; 289  : 		{
; 290  : 			m_aiVisibilityCount[iI] = 0;

	mov	edx, DWORD PTR _this$[ebp]
	mov	eax, DWORD PTR [edx+156]
	xor	ecx, ecx
	mov	edx, DWORD PTR _iI$221746[ebp]
	mov	WORD PTR [eax+edx*2], cx

; 291  : 		}

	jmp	SHORT $LN26@reset
$LN25@reset:

; 292  : 		for(int iI = 0; iI < REALLY_MAX_TEAMS; ++iI)

	mov	DWORD PTR _iI$221750[ebp], 0
	jmp	SHORT $LN24@reset
$LN23@reset:
	mov	eax, DWORD PTR _iI$221750[ebp]
	add	eax, 1
	mov	DWORD PTR _iI$221750[ebp], eax
$LN24@reset:
	cmp	DWORD PTR _iI$221750[ebp], 80		; 00000050H
	jge	SHORT $LN22@reset

; 293  : 		{
; 294  : 			m_aiRevealedOwner[iI] = -1;

	mov	ecx, DWORD PTR _this$[ebp]
	mov	edx, DWORD PTR [ecx+160]
	mov	eax, DWORD PTR _iI$221750[ebp]
	mov	BYTE PTR [edx+eax], -1

; 295  : 		}

	jmp	SHORT $LN23@reset
$LN22@reset:

; 296  : 		for(int iI = 0; iI < REALLY_MAX_TEAMS; ++iI)

	mov	DWORD PTR _iI$221754[ebp], 0
	jmp	SHORT $LN21@reset
$LN20@reset:
	mov	ecx, DWORD PTR _iI$221754[ebp]
	add	ecx, 1
	mov	DWORD PTR _iI$221754[ebp], ecx
$LN21@reset:
	cmp	DWORD PTR _iI$221754[ebp], 80		; 00000050H
	jge	SHORT $LN19@reset

; 297  : 		{
; 298  : 			//m_abRevealed[iI] = false;
; 299  : 		}

	jmp	SHORT $LN20@reset
$LN19@reset:

; 300  : 		m_bfRevealed.ClearAll();

	mov	DWORD PTR _i$230372[ebp], 0
	jmp	SHORT $LN60@reset
$LN59@reset:
	mov	edx, DWORD PTR _i$230372[ebp]
	add	edx, 1
	mov	DWORD PTR _i$230372[ebp], edx
$LN60@reset:
	cmp	DWORD PTR _i$230372[ebp], 4
	jae	SHORT $LN61@reset
	mov	eax, DWORD PTR _i$230372[ebp]
	mov	ecx, DWORD PTR _this$[ebp]
	mov	DWORD PTR [ecx+eax*4+8], 0
	jmp	SHORT $LN59@reset
$LN61@reset:

; 301  : 		for(int iI = 0; iI < REALLY_MAX_TEAMS; ++iI)

	mov	DWORD PTR _iI$221758[ebp], 0
	jmp	SHORT $LN18@reset
$LN17@reset:
	mov	edx, DWORD PTR _iI$221758[ebp]
	add	edx, 1
	mov	DWORD PTR _iI$221758[ebp], edx
$LN18@reset:
	cmp	DWORD PTR _iI$221758[ebp], 80		; 00000050H
	jge	SHORT $LN16@reset

; 302  : 		{
; 303  : 			m_abResourceForceReveal[iI] = false;

	mov	eax, DWORD PTR _this$[ebp]
	mov	ecx, DWORD PTR [eax+176]
	mov	edx, DWORD PTR _iI$221758[ebp]
	mov	BYTE PTR [ecx+edx], 0

; 304  : 		}

	jmp	SHORT $LN17@reset
$LN16@reset:

; 305  : 		for(int iI = 0; iI < REALLY_MAX_TEAMS; ++iI)

	mov	DWORD PTR _iI$221762[ebp], 0
	jmp	SHORT $LN15@reset
$LN14@reset:
	mov	eax, DWORD PTR _iI$221762[ebp]
	add	eax, 1
	mov	DWORD PTR _iI$221762[ebp], eax
$LN15@reset:
	cmp	DWORD PTR _iI$221762[ebp], 80		; 00000050H
	jge	SHORT $LN13@reset

; 306  : 		{
; 307  : 			m_aeRevealedImprovementType[iI] = NO_IMPROVEMENT;

	mov	ecx, DWORD PTR _this$[ebp]
	mov	edx, DWORD PTR [ecx+164]
	or	eax, -1
	mov	ecx, DWORD PTR _iI$221762[ebp]
	mov	WORD PTR [edx+ecx*2], ax

; 308  : 		}

	jmp	SHORT $LN14@reset
$LN13@reset:

; 309  : 		for(int iI = 0; iI < REALLY_MAX_TEAMS; ++iI)

	mov	DWORD PTR _iI$221766[ebp], 0
	jmp	SHORT $LN12@reset
$LN11@reset:
	mov	edx, DWORD PTR _iI$221766[ebp]
	add	edx, 1
	mov	DWORD PTR _iI$221766[ebp], edx
$LN12@reset:
	cmp	DWORD PTR _iI$221766[ebp], 80		; 00000050H
	jge	SHORT $LN10@reset

; 310  : 		{
; 311  : 			m_aeRevealedRouteType[iI] = NO_ROUTE;

	mov	eax, DWORD PTR _this$[ebp]
	mov	ecx, DWORD PTR [eax+168]
	or	edx, -1
	mov	eax, DWORD PTR _iI$221766[ebp]
	mov	WORD PTR [ecx+eax*2], dx

; 312  : 		}

	jmp	SHORT $LN11@reset
$LN10@reset:

; 313  : 		for(int iI = 0; iI < MAX_MAJOR_CIVS; ++iI)

	mov	DWORD PTR _iI$221770[ebp], 0
	jmp	SHORT $LN9@reset
$LN8@reset:
	mov	ecx, DWORD PTR _iI$221770[ebp]
	add	ecx, 1
	mov	DWORD PTR _iI$221770[ebp], ecx
$LN9@reset:
	cmp	DWORD PTR _iI$221770[ebp], 22		; 00000016H
	jge	SHORT $LN37@reset

; 314  : 		{
; 315  : 			m_abNoSettling[iI] = false;

	mov	edx, DWORD PTR _this$[ebp]
	mov	eax, DWORD PTR [edx+172]
	mov	ecx, DWORD PTR _iI$221770[ebp]
	mov	BYTE PTR [eax+ecx], 0

; 316  : 		}

	jmp	SHORT $LN8@reset
$LN37@reset:

; 317  : 	}
; 318  : 	for(int iI = 0; iI < REALLY_MAX_TEAMS; ++iI)

	mov	DWORD PTR _iI$221774[ebp], 0
	jmp	SHORT $LN6@reset
$LN5@reset:
	mov	edx, DWORD PTR _iI$221774[ebp]
	add	edx, 1
	mov	DWORD PTR _iI$221774[ebp], edx
$LN6@reset:
	cmp	DWORD PTR _iI$221774[ebp], 80		; 00000050H
	jge	SHORT $LN4@reset

; 319  : 	{
; 320  : 		for(int iJ = 0; iJ < NUM_INVISIBLE_TYPES; ++iJ)

	mov	DWORD PTR _iJ$221778[ebp], 0
	jmp	SHORT $LN3@reset
$LN2@reset:
	mov	eax, DWORD PTR _iJ$221778[ebp]
	add	eax, 1
	mov	DWORD PTR _iJ$221778[ebp], eax
$LN3@reset:
	cmp	DWORD PTR _iJ$221778[ebp], 1
	jge	SHORT $LN1@reset

; 321  : 		{
; 322  : 			m_apaiInvisibleVisibilityCount[iI][iJ] = 0;

	mov	ecx, DWORD PTR _iI$221774[ebp]
	mov	edx, DWORD PTR _this$[ebp]
	lea	eax, DWORD PTR [edx+ecx*2+196]
	xor	ecx, ecx
	mov	edx, DWORD PTR _iJ$221778[ebp]
	mov	WORD PTR [eax+edx*2], cx

; 323  : 		}

	jmp	SHORT $LN2@reset
$LN1@reset:

; 324  : 	}

	jmp	SHORT $LN5@reset
$LN4@reset:

; 325  : 
; 326  : 	m_kArchaeologyData.Reset();

	mov	eax, DWORD PTR _this$[ebp]
	add	eax, 464				; 000001d0H
	mov	DWORD PTR $T230380[ebp], eax
	mov	ecx, DWORD PTR $T230380[ebp]
	mov	DWORD PTR [ecx], 0
	mov	edx, DWORD PTR $T230380[ebp]
	mov	DWORD PTR [edx+4], -1
	mov	eax, DWORD PTR $T230380[ebp]
	mov	DWORD PTR [eax+8], -1
	mov	ecx, DWORD PTR $T230380[ebp]
	mov	DWORD PTR [ecx+12], -1
	mov	edx, DWORD PTR $T230380[ebp]
	mov	DWORD PTR [edx+16], -1

; 327  : }

	mov	esp, ebp
	pop	ebp
	ret	12					; 0000000cH
?reset@CvPlot@@QAEXHH_N@Z ENDP				; CvPlot::reset
_TEXT	ENDS
PUBLIC	?updateVisibility@CvPlot@@QAEXXZ		; CvPlot::updateVisibility
PUBLIC	?updateSymbols@CvPlot@@QAEXXZ			; CvPlot::updateSymbols
PUBLIC	?setupGraphical@CvPlot@@QAEXXZ			; CvPlot::setupGraphical
EXTRN	?IsGraphicsInitialized@CvGlobals@@QBE_NXZ:PROC	; CvGlobals::IsGraphicsInitialized
; Function compile flags: /Odtp
;	COMDAT ?setupGraphical@CvPlot@@QAEXXZ
_TEXT	SEGMENT
_this$ = -4						; size = 4
?setupGraphical@CvPlot@@QAEXXZ PROC			; CvPlot::setupGraphical, COMDAT
; _this$ = ecx

; 333  : {

	push	ebp
	mov	ebp, esp
	push	ecx
	mov	DWORD PTR _this$[ebp], ecx

; 334  : 	if(!GC.IsGraphicsInitialized())

	mov	ecx, OFFSET ?gGlobals@@3VCvGlobals@@A	; gGlobals
	call	?IsGraphicsInitialized@CvGlobals@@QBE_NXZ ; CvGlobals::IsGraphicsInitialized
	movzx	eax, al
	test	eax, eax
	jne	SHORT $LN1@setupGraph

; 335  : 	{
; 336  : 		return;

	jmp	SHORT $LN2@setupGraph
$LN1@setupGraph:

; 337  : 	}
; 338  : 
; 339  : 	updateSymbols();

	mov	ecx, DWORD PTR _this$[ebp]
	call	?updateSymbols@CvPlot@@QAEXXZ		; CvPlot::updateSymbols

; 340  : 
; 341  : 	updateVisibility();

	mov	ecx, DWORD PTR _this$[ebp]
	call	?updateVisibility@CvPlot@@QAEXXZ	; CvPlot::updateVisibility
$LN2@setupGraph:

; 342  : }

	mov	esp, ebp
	pop	ebp
	ret	0
?setupGraphical@CvPlot@@QAEXXZ ENDP			; CvPlot::setupGraphical
_TEXT	ENDS
PUBLIC	??1?$FFastSmallFixedList@UIDInfo@@$0BJ@$00$0BCJ@$0A@@@QAE@XZ ; FFastSmallFixedList<IDInfo,25,1,297,0>::~FFastSmallFixedList<IDInfo,25,1,297,0>
PUBLIC	??1?$FStaticVector@UIDInfo@@$0BJ@$00$0BCJ@$0A@@@QAE@XZ ; FStaticVector<IDInfo,25,1,297,0>::~FStaticVector<IDInfo,25,1,297,0>
PUBLIC	?setWOfRiver@CvPlot@@QAEX_NW4FlowDirectionTypes@@@Z ; CvPlot::setWOfRiver
PUBLIC	?setNWOfRiver@CvPlot@@QAEX_NW4FlowDirectionTypes@@@Z ; CvPlot::setNWOfRiver
PUBLIC	?setNEOfRiver@CvPlot@@QAEX_NW4FlowDirectionTypes@@@Z ; CvPlot::setNEOfRiver
PUBLIC	?setFeatureType@CvPlot@@QAEXW4FeatureTypes@@H@Z	; CvPlot::setFeatureType
PUBLIC	?setRouteType@CvPlot@@QAEXW4RouteTypes@@@Z	; CvPlot::setRouteType
PUBLIC	?setImprovementType@CvPlot@@QAEXW4ImprovementTypes@@W4PlayerTypes@@@Z ; CvPlot::setImprovementType
PUBLIC	?setResourceType@CvPlot@@QAEXW4ResourceTypes@@H_N@Z ; CvPlot::setResourceType
PUBLIC	?getPlotCity@CvPlot@@QBEPAVCvCity@@XZ		; CvPlot::getPlotCity
PUBLIC	?nextUnitNode@CvPlot@@QAEPAUIDInfo@@PAU2@@Z	; CvPlot::nextUnitNode
PUBLIC	?push_back@?$FStaticVector@UIDInfo@@$0BJ@$00$0BCJ@$0A@@@QAEIABUIDInfo@@@Z ; FStaticVector<IDInfo,25,1,297,0>::push_back
PUBLIC	?headUnitNode@CvPlot@@QAEPAUIDInfo@@XZ		; CvPlot::headUnitNode
PUBLIC	?GrowSize@?$FStaticVector@UIDInfo@@$0BJ@$00$0BCJ@$0A@@@IAEXI@Z ; FStaticVector<IDInfo,25,1,297,0>::GrowSize
PUBLIC	?resize@?$FStaticVector@UIDInfo@@$0BJ@$00$0BCJ@$0A@@@QAEXI@Z ; FStaticVector<IDInfo,25,1,297,0>::resize
PUBLIC	??0?$FStaticVector@UIDInfo@@$0BJ@$00$0BCJ@$0A@@@QAE@XZ ; FStaticVector<IDInfo,25,1,297,0>::FStaticVector<IDInfo,25,1,297,0>
PUBLIC	__$ArrayPad$
PUBLIC	?erase@CvPlot@@QAEX_N@Z				; CvPlot::erase
EXTRN	?kill@CvCity@@QAEXXZ:PROC			; CvCity::kill
EXTRN	?kill@CvUnit@@QAEX_NW4PlayerTypes@@@Z:PROC	; CvUnit::kill
EXTRN	?m_aPlayers@CvPlayerAI@@1PAV1@A:DWORD		; CvPlayerAI::m_aPlayers
;	COMDAT xdata$x
; File d:\sources\lekmod_git\checkout\lekmod_dll\fireplace\include\fireworks\ffastvector.h
xdata$x	SEGMENT
__unwindtable$?erase@CvPlot@@QAEX_N@Z DD 0ffffffffH
	DD	FLAT:__unwindfunclet$?erase@CvPlot@@QAEX_N@Z$1
	DD	0ffffffffH
	DD	FLAT:__unwindfunclet$?erase@CvPlot@@QAEX_N@Z$0
__ehfuncinfo$?erase@CvPlot@@QAEX_N@Z DD 019930522H
	DD	02H
	DD	FLAT:__unwindtable$?erase@CvPlot@@QAEX_N@Z
	DD	2 DUP(00H)
	DD	2 DUP(00H)
	DD	00H
	DD	01H
; Function compile flags: /Odtp
; File d:\sources\lekmod_git\checkout\lekmod_dll\cvgamecoredll_expansion2\cvplot.cpp
xdata$x	ENDS
;	COMDAT ?erase@CvPlot@@QAEX_N@Z
_TEXT	SEGMENT
tv214 = -288						; size = 4
_this$ = -284						; size = 4
$T230459 = -264						; size = 4
$T230447 = -260						; size = 4
_iIndex$230472 = -256					; size = 4
_uSize$230427 = -252					; size = 4
_pUnitNode$ = -248					; size = 4
_oldUnits$ = -244					; size = 216
__$ArrayPad$ = -24					; size = 4
_pCity$ = -20						; size = 4
_pLoopUnit$ = -16					; size = 4
__$EHRec$ = -12						; size = 12
_bEraseUnits$ = 8					; size = 1
?erase@CvPlot@@QAEX_N@Z PROC				; CvPlot::erase, COMDAT
; _this$ = ecx

; 346  : {

	push	ebp
	mov	ebp, esp
	push	-1
	push	__ehhandler$?erase@CvPlot@@QAEX_N@Z
	mov	eax, DWORD PTR fs:0
	push	eax
	sub	esp, 276				; 00000114H
	mov	eax, DWORD PTR ___security_cookie
	xor	eax, ebp
	mov	DWORD PTR __$ArrayPad$[ebp], eax
	push	eax
	lea	eax, DWORD PTR __$EHRec$[ebp]
	mov	DWORD PTR fs:0, eax
	mov	DWORD PTR _this$[ebp], ecx

; 347  : 	IDInfo* pUnitNode;
; 348  : 	CvCity* pCity;
; 349  : 	CvUnit* pLoopUnit;
; 350  : 	FFastSmallFixedList<IDInfo, 25, true, c_eCiv5GameplayDLL > oldUnits;

	lea	ecx, DWORD PTR _oldUnits$[ebp]
	call	??0?$FStaticVector@UIDInfo@@$0BJ@$00$0BCJ@$0A@@@QAE@XZ ; FStaticVector<IDInfo,25,1,297,0>::FStaticVector<IDInfo,25,1,297,0>
	mov	DWORD PTR __$EHRec$[ebp+8], 0
	push	0
	lea	ecx, DWORD PTR _oldUnits$[ebp]
	call	?resize@?$FStaticVector@UIDInfo@@$0BJ@$00$0BCJ@$0A@@@QAEXI@Z ; FStaticVector<IDInfo,25,1,297,0>::resize
	mov	DWORD PTR __$EHRec$[ebp+8], 1

; 351  : 
; 352  : 	// kill units
; 353  : 	if (bEraseUnits)

	movzx	eax, BYTE PTR _bEraseUnits$[ebp]
	test	eax, eax
	je	$LN7@erase

; 354  : 	{
; 355  : 		oldUnits.clear();

	cmp	DWORD PTR _oldUnits$[ebp+8], 0
	jae	SHORT $LN23@erase
	push	0
	lea	ecx, DWORD PTR _oldUnits$[ebp]
	call	?GrowSize@?$FStaticVector@UIDInfo@@$0BJ@$00$0BCJ@$0A@@@IAEXI@Z ; FStaticVector<IDInfo,25,1,297,0>::GrowSize
$LN23@erase:
	mov	DWORD PTR _oldUnits$[ebp+4], 0

; 356  : 
; 357  : 		pUnitNode = headUnitNode();

	mov	ecx, DWORD PTR _this$[ebp]
	call	?headUnitNode@CvPlot@@QAEPAUIDInfo@@XZ	; CvPlot::headUnitNode
	mov	DWORD PTR _pUnitNode$[ebp], eax
$LN6@erase:

; 358  : 
; 359  : 		while (pUnitNode != NULL)

	cmp	DWORD PTR _pUnitNode$[ebp], 0
	je	SHORT $LN5@erase

; 360  : 		{
; 361  : 			oldUnits.insertAtEnd(pUnitNode);

	mov	ecx, DWORD PTR _pUnitNode$[ebp]
	push	ecx
	lea	ecx, DWORD PTR _oldUnits$[ebp]
	call	?push_back@?$FStaticVector@UIDInfo@@$0BJ@$00$0BCJ@$0A@@@QAEIABUIDInfo@@@Z ; FStaticVector<IDInfo,25,1,297,0>::push_back

; 362  : 			pUnitNode = nextUnitNode(pUnitNode);

	mov	edx, DWORD PTR _pUnitNode$[ebp]
	push	edx
	mov	ecx, DWORD PTR _this$[ebp]
	call	?nextUnitNode@CvPlot@@QAEPAUIDInfo@@PAU2@@Z ; CvPlot::nextUnitNode
	mov	DWORD PTR _pUnitNode$[ebp], eax

; 363  : 		}

	jmp	SHORT $LN6@erase
$LN5@erase:

; 364  : 
; 365  : 		pUnitNode = oldUnits.head();

	mov	eax, DWORD PTR _oldUnits$[ebp+4]
	mov	DWORD PTR _uSize$230427[ebp], eax
	cmp	DWORD PTR _uSize$230427[ebp], 0
	jbe	SHORT $LN29@erase
	xor	ecx, ecx
	shl	ecx, 3
	add	ecx, DWORD PTR _oldUnits$[ebp]
	mov	DWORD PTR _pUnitNode$[ebp], ecx
	jmp	SHORT $LN4@erase
	jmp	SHORT $LN4@erase
$LN29@erase:
	mov	DWORD PTR _pUnitNode$[ebp], 0
$LN4@erase:

; 366  : 
; 367  : 		while (pUnitNode != NULL)

	cmp	DWORD PTR _pUnitNode$[ebp], 0
	je	$LN7@erase

; 368  : 		{
; 369  : 			pLoopUnit = GetPlayerUnit(*pUnitNode);

	mov	edx, DWORD PTR _pUnitNode$[ebp]
	cmp	DWORD PTR [edx], 0
	jl	SHORT $LN36@erase
	mov	eax, DWORD PTR _pUnitNode$[ebp]
	cmp	DWORD PTR [eax], 64			; 00000040H
	jge	SHORT $LN36@erase
	mov	ecx, DWORD PTR _pUnitNode$[ebp]
	mov	edx, DWORD PTR [ecx]
	imul	edx, 63236				; 0000f704H
	mov	eax, DWORD PTR ?m_aPlayers@CvPlayerAI@@1PAV1@A ; CvPlayerAI::m_aPlayers
	lea	ecx, DWORD PTR [eax+edx+4472]
	mov	DWORD PTR tv214[ebp], ecx
	mov	edx, DWORD PTR _pUnitNode$[ebp]
	mov	eax, DWORD PTR [edx+4]
	push	eax
	mov	ecx, DWORD PTR tv214[ebp]
	mov	edx, DWORD PTR [ecx]
	mov	ecx, DWORD PTR tv214[ebp]
	mov	eax, DWORD PTR [edx+16]
	call	eax
	mov	DWORD PTR _pLoopUnit$[ebp], eax
	jmp	SHORT $LN43@erase
$LN36@erase:
	mov	DWORD PTR _pLoopUnit$[ebp], 0

; 370  : 			pUnitNode = oldUnits.next(pUnitNode);

$LN43@erase:
	mov	ecx, DWORD PTR _pUnitNode$[ebp]
	add	ecx, 8
	xor	edx, edx
	shl	edx, 3
	add	edx, DWORD PTR _oldUnits$[ebp]
	sub	ecx, edx
	sar	ecx, 3
	mov	DWORD PTR _iIndex$230472[ebp], ecx
	mov	eax, DWORD PTR _oldUnits$[ebp+4]
	mov	DWORD PTR $T230447[ebp], eax
	mov	ecx, DWORD PTR _iIndex$230472[ebp]
	cmp	ecx, DWORD PTR $T230447[ebp]
	jae	SHORT $LN46@erase
	mov	edx, DWORD PTR _iIndex$230472[ebp]
	mov	eax, DWORD PTR _oldUnits$[ebp]
	lea	ecx, DWORD PTR [eax+edx*8]
	mov	DWORD PTR $T230459[ebp], ecx
	jmp	SHORT $LN41@erase
	jmp	SHORT $LN41@erase
$LN46@erase:
	mov	DWORD PTR $T230459[ebp], 0
$LN41@erase:
	mov	edx, DWORD PTR $T230459[ebp]
	mov	DWORD PTR _pUnitNode$[ebp], edx

; 371  : 
; 372  : 			if (pLoopUnit != NULL)

	cmp	DWORD PTR _pLoopUnit$[ebp], 0
	je	SHORT $LN2@erase

; 373  : 			{
; 374  : 				pLoopUnit->kill(false);

	push	-1
	push	0
	mov	ecx, DWORD PTR _pLoopUnit$[ebp]
	call	?kill@CvUnit@@QAEX_NW4PlayerTypes@@@Z	; CvUnit::kill
$LN2@erase:

; 375  : 			}
; 376  : 		}

	jmp	$LN4@erase
$LN7@erase:

; 377  : 	}
; 378  : 
; 379  : 	// kill cities
; 380  : 	pCity = getPlotCity();

	mov	ecx, DWORD PTR _this$[ebp]
	call	?getPlotCity@CvPlot@@QBEPAVCvCity@@XZ	; CvPlot::getPlotCity
	mov	DWORD PTR _pCity$[ebp], eax

; 381  : 	if (pCity != NULL)

	cmp	DWORD PTR _pCity$[ebp], 0
	je	SHORT $LN1@erase

; 382  : 	{
; 383  : 		pCity->kill();

	mov	ecx, DWORD PTR _pCity$[ebp]
	call	?kill@CvCity@@QAEXXZ			; CvCity::kill
$LN1@erase:

; 384  : 	}
; 385  : 
; 386  : 	setResourceType(NO_RESOURCE, 0);

	push	0
	push	0
	push	-1
	mov	ecx, DWORD PTR _this$[ebp]
	call	?setResourceType@CvPlot@@QAEXW4ResourceTypes@@H_N@Z ; CvPlot::setResourceType

; 387  : 	setImprovementType(NO_IMPROVEMENT);

	push	-1
	push	-1
	mov	ecx, DWORD PTR _this$[ebp]
	call	?setImprovementType@CvPlot@@QAEXW4ImprovementTypes@@W4PlayerTypes@@@Z ; CvPlot::setImprovementType

; 388  : 	setRouteType(NO_ROUTE);

	push	-1
	mov	ecx, DWORD PTR _this$[ebp]
	call	?setRouteType@CvPlot@@QAEXW4RouteTypes@@@Z ; CvPlot::setRouteType

; 389  : 	setFeatureType(NO_FEATURE);

	push	-1
	push	-1
	mov	ecx, DWORD PTR _this$[ebp]
	call	?setFeatureType@CvPlot@@QAEXW4FeatureTypes@@H@Z ; CvPlot::setFeatureType

; 390  : 
; 391  : 	// disable rivers
; 392  : 	setNEOfRiver(false, NO_FLOWDIRECTION);

	push	-1
	push	0
	mov	ecx, DWORD PTR _this$[ebp]
	call	?setNEOfRiver@CvPlot@@QAEX_NW4FlowDirectionTypes@@@Z ; CvPlot::setNEOfRiver

; 393  : 	setNWOfRiver(false, NO_FLOWDIRECTION);

	push	-1
	push	0
	mov	ecx, DWORD PTR _this$[ebp]
	call	?setNWOfRiver@CvPlot@@QAEX_NW4FlowDirectionTypes@@@Z ; CvPlot::setNWOfRiver

; 394  : 	setWOfRiver(false, NO_FLOWDIRECTION);

	push	-1
	push	0
	mov	ecx, DWORD PTR _this$[ebp]
	call	?setWOfRiver@CvPlot@@QAEX_NW4FlowDirectionTypes@@@Z ; CvPlot::setWOfRiver

; 395  : }

	mov	DWORD PTR __$EHRec$[ebp+8], -1
	lea	ecx, DWORD PTR _oldUnits$[ebp]
	call	??1?$FStaticVector@UIDInfo@@$0BJ@$00$0BCJ@$0A@@@QAE@XZ ; FStaticVector<IDInfo,25,1,297,0>::~FStaticVector<IDInfo,25,1,297,0>
	mov	ecx, DWORD PTR __$EHRec$[ebp]
	mov	DWORD PTR fs:0, ecx
	pop	ecx
	mov	ecx, DWORD PTR __$ArrayPad$[ebp]
	xor	ecx, ebp
	call	@__security_check_cookie@4
	mov	esp, ebp
	pop	ebp
	ret	4
_TEXT	ENDS
;	COMDAT text$x
text$x	SEGMENT
__unwindfunclet$?erase@CvPlot@@QAEX_N@Z$1:
	lea	ecx, DWORD PTR _oldUnits$[ebp]
	jmp	??1?$FStaticVector@UIDInfo@@$0BJ@$00$0BCJ@$0A@@@QAE@XZ ; FStaticVector<IDInfo,25,1,297,0>::~FStaticVector<IDInfo,25,1,297,0>
__unwindfunclet$?erase@CvPlot@@QAEX_N@Z$0:
	lea	ecx, DWORD PTR _oldUnits$[ebp]
	jmp	??1?$FFastSmallFixedList@UIDInfo@@$0BJ@$00$0BCJ@$0A@@@QAE@XZ
__ehhandler$?erase@CvPlot@@QAEX_N@Z:
	mov	edx, DWORD PTR [esp+8]
	lea	eax, DWORD PTR [edx+12]
	mov	ecx, DWORD PTR [edx-280]
	xor	ecx, eax
	call	@__security_check_cookie@4
	mov	ecx, DWORD PTR [edx-12]
	xor	ecx, eax
	call	@__security_check_cookie@4
	mov	eax, OFFSET __ehfuncinfo$?erase@CvPlot@@QAEX_N@Z
	jmp	___CxxFrameHandler3
text$x	ENDS
?erase@CvPlot@@QAEX_N@Z ENDP				; CvPlot::erase
; Function compile flags: /Odtp
;	COMDAT ??1?$FFastSmallFixedList@UIDInfo@@$0BJ@$00$0BCJ@$0A@@@QAE@XZ
_TEXT	SEGMENT
_this$ = -16						; size = 4
??1?$FFastSmallFixedList@UIDInfo@@$0BJ@$00$0BCJ@$0A@@@QAE@XZ PROC ; FFastSmallFixedList<IDInfo,25,1,297,0>::~FFastSmallFixedList<IDInfo,25,1,297,0>, COMDAT
; _this$ = ecx
	push	ebp
	mov	ebp, esp
	sub	esp, 16					; 00000010H
	mov	DWORD PTR _this$[ebp], ecx
	mov	ecx, DWORD PTR _this$[ebp]
	call	??1?$FStaticVector@UIDInfo@@$0BJ@$00$0BCJ@$0A@@@QAE@XZ ; FStaticVector<IDInfo,25,1,297,0>::~FStaticVector<IDInfo,25,1,297,0>
	mov	esp, ebp
	pop	ebp
	ret	0
??1?$FFastSmallFixedList@UIDInfo@@$0BJ@$00$0BCJ@$0A@@@QAE@XZ ENDP ; FFastSmallFixedList<IDInfo,25,1,297,0>::~FFastSmallFixedList<IDInfo,25,1,297,0>
_TEXT	ENDS
PUBLIC	?SetWorldAnchor@CvPlot@@QAEXW4GenericWorldAnchorTypes@@H@Z ; CvPlot::SetWorldAnchor
PUBLIC	?verifyUnitValidPlot@CvPlot@@QAEXXZ		; CvPlot::verifyUnitValidPlot
PUBLIC	?changeImprovementDuration@CvPlot@@QAEXH@Z	; CvPlot::changeImprovementDuration
PUBLIC	?getImprovementType@CvPlot@@QBE?AW4ImprovementTypes@@XZ ; CvPlot::getImprovementType
PUBLIC	?changeOwnershipDuration@CvPlot@@QAEXH@Z	; CvPlot::changeOwnershipDuration
PUBLIC	?isOwned@CvPlot@@QBE_NXZ			; CvPlot::isOwned
PUBLIC	?doTurn@CvPlot@@QAEXXZ				; CvPlot::doTurn
; Function compile flags: /Odtp
;	COMDAT ?doTurn@CvPlot@@QAEXXZ
_TEXT	SEGMENT
_this$ = -4						; size = 4
?doTurn@CvPlot@@QAEXXZ PROC				; CvPlot::doTurn, COMDAT
; _this$ = ecx

; 399  : {

	push	ebp
	mov	ebp, esp
	push	ecx
	mov	DWORD PTR _this$[ebp], ecx

; 400  : 	if(isOwned())

	mov	ecx, DWORD PTR _this$[ebp]
	call	?isOwned@CvPlot@@QBE_NXZ		; CvPlot::isOwned
	movzx	eax, al
	test	eax, eax
	je	SHORT $LN2@doTurn

; 401  : 	{
; 402  : 		changeOwnershipDuration(1);

	push	1
	mov	ecx, DWORD PTR _this$[ebp]
	call	?changeOwnershipDuration@CvPlot@@QAEXH@Z ; CvPlot::changeOwnershipDuration
$LN2@doTurn:

; 403  : 	}
; 404  : 
; 405  : 	if(getImprovementType() != NO_IMPROVEMENT)

	mov	ecx, DWORD PTR _this$[ebp]
	call	?getImprovementType@CvPlot@@QBE?AW4ImprovementTypes@@XZ ; CvPlot::getImprovementType
	cmp	eax, -1
	je	SHORT $LN1@doTurn

; 406  : 	{
; 407  : 		changeImprovementDuration(1);

	push	1
	mov	ecx, DWORD PTR _this$[ebp]
	call	?changeImprovementDuration@CvPlot@@QAEXH@Z ; CvPlot::changeImprovementDuration
$LN1@doTurn:

; 408  : 	}
; 409  : 
; 410  : 	verifyUnitValidPlot();

	mov	ecx, DWORD PTR _this$[ebp]
	call	?verifyUnitValidPlot@CvPlot@@QAEXXZ	; CvPlot::verifyUnitValidPlot

; 411  : 
; 412  : 	// Clear world anchor
; 413  : 	SetWorldAnchor(NO_WORLD_ANCHOR);

	push	-1
	push	-1
	mov	ecx, DWORD PTR _this$[ebp]
	call	?SetWorldAnchor@CvPlot@@QAEXW4GenericWorldAnchorTypes@@H@Z ; CvPlot::SetWorldAnchor

; 414  : 
; 415  : 	// XXX
; 416  : #ifdef _DEBUG
; 417  : 	{
; 418  : 		IDInfo* pUnitNode;
; 419  : 		CvUnit* pLoopUnit;
; 420  : 
; 421  : 		pUnitNode = headUnitNode();
; 422  : 
; 423  : 		while(pUnitNode != NULL)
; 424  : 		{
; 425  : 			pLoopUnit = GetPlayerUnit(*pUnitNode);
; 426  : 			pUnitNode = nextUnitNode(pUnitNode);
; 427  : 
; 428  : 			if(pLoopUnit)
; 429  : 			{
; 430  : 				CvAssertMsg(pLoopUnit->atPlot(*this), "pLoopUnit is expected to be at the current plot instance");
; 431  : 				if(!pLoopUnit->atPlot(*this))
; 432  : 				{
; 433  : 					removeUnit(pLoopUnit, true);
; 434  : 				}
; 435  : 			}
; 436  : 		}
; 437  : 	}
; 438  : #endif
; 439  : 	// XXX
; 440  : }

	mov	esp, ebp
	pop	ebp
	ret	0
?doTurn@CvPlot@@QAEXXZ ENDP				; CvPlot::doTurn
_TEXT	ENDS
PUBLIC	??1CvString@@QAE@XZ				; CvString::~CvString
PUBLIC	?doImprovementUpgrade@CvPlot@@IAEXXZ		; CvPlot::doImprovementUpgrade
PUBLIC	??$GetLocalizedText@PBDPBD@@YA?AVCvString@@PBDABQBD1@Z ; GetLocalizedText<char const *,char const *>
PUBLIC	??_C@_0CF@EPDFDEFI@TXT_KEY_MISC_DISCOVERED_NEW_RESO@ ; `string'
PUBLIC	??_C@_0CO@ODOBJOOJ@TXT_KEY_MISC_DISCOVERED_HIDDEN_A@ ; `string'
PUBLIC	??_C@_0BK@GEJOKJMD@RESOURCE_HIDDEN_ARTIFACTS?$AA@ ; `string'
PUBLIC	??$GetLocalizedText@PBD@@YA?AVCvString@@PBD0@Z	; GetLocalizedText<char const *>
PUBLIC	??_C@_0CH@BOBAFPHE@TXT_KEY_MISC_DISCOVERED_ARTIFACT@ ; `string'
PUBLIC	??_C@_0BD@DCOOKOLP@RESOURCE_ARTIFACTS?$AA@	; `string'
PUBLIC	??_C@_0BD@OCGDIBFA@Resource?5Discovery?$AA@	; `string'
PUBLIC	__$ArrayPad$
PUBLIC	?doImprovement@CvPlot@@QAEXXZ			; CvPlot::doImprovement
EXTRN	?GetIDInfo@CvCity@@QBE?AUIDInfo@@XZ:PROC	; CvCity::GetIDInfo
EXTRN	?GetTextKey@CvBaseInfo@@QBEPBDXZ:PROC		; CvBaseInfo::GetTextKey
EXTRN	__imp_??4?$basic_string@DU?$char_traits@D@std@@V?$allocator@D@2@@std@@QAEAAV01@ABV01@@Z:PROC
EXTRN	?getNameKey@CvCity@@QBEPBDXZ:PROC		; CvCity::getNameKey
EXTRN	__imp_?c_str@?$basic_string@DU?$char_traits@D@std@@V?$allocator@D@2@@std@@QBEPBDXZ:PROC
EXTRN	?findCity@CvMap@@QAEPAVCvCity@@HHW4PlayerTypes@@W4TeamTypes@@_N21W4DirectionTypes@@PBV2@@Z:PROC ; CvMap::findCity
EXTRN	?getRandomResourceQuantity@CvMap@@QAEHW4ResourceTypes@@@Z:PROC ; CvMap::getRandomResourceQuantity
EXTRN	?getJonRandNum@CvGame@@QAEHHPBD@Z:PROC		; CvGame::getJonRandNum
EXTRN	?GetImprovementResourceDiscoverRand@CvImprovementEntry@@QBEHH@Z:PROC ; CvImprovementEntry::GetImprovementResourceDiscoverRand
EXTRN	?HasTech@CvTeamTechs@@QBE_NW4TechTypes@@@Z:PROC	; CvTeamTechs::HasTech
EXTRN	?GetTeamTechs@CvTeam@@QBEPAVCvTeamTechs@@XZ:PROC ; CvTeam::GetTeamTechs
EXTRN	?getTechReveal@CvResourceInfo@@QBEHXZ:PROC	; CvResourceInfo::getTechReveal
EXTRN	?getResourceInfo@CvGlobals@@QAEPAVCvResourceInfo@@W4ResourceTypes@@@Z:PROC ; CvGlobals::getResourceInfo
EXTRN	?getImprovementInfo@CvGlobals@@QAEPAVCvImprovementEntry@@W4ImprovementTypes@@@Z:PROC ; CvGlobals::getImprovementInfo
EXTRN	?getNumResourceInfos@CvGlobals@@QAEHXZ:PROC	; CvGlobals::getNumResourceInfos
EXTRN	?m_aTeams@CvTeam@@1PAV1@A:DWORD			; CvTeam::m_aTeams
EXTRN	__imp_??0?$basic_string@DU?$char_traits@D@std@@V?$allocator@D@2@@std@@QAE@XZ:PROC
;	COMDAT ??_C@_0CF@EPDFDEFI@TXT_KEY_MISC_DISCOVERED_NEW_RESO@
; File d:\sources\lekmod_git\checkout\lekmod_dll\cvgamecoredllutil\include\cvstring.h
CONST	SEGMENT
??_C@_0CF@EPDFDEFI@TXT_KEY_MISC_DISCOVERED_NEW_RESO@ DB 'TXT_KEY_MISC_DIS'
	DB	'COVERED_NEW_RESOURCE', 00H			; `string'
CONST	ENDS
;	COMDAT ??_C@_0CO@ODOBJOOJ@TXT_KEY_MISC_DISCOVERED_HIDDEN_A@
CONST	SEGMENT
??_C@_0CO@ODOBJOOJ@TXT_KEY_MISC_DISCOVERED_HIDDEN_A@ DB 'TXT_KEY_MISC_DIS'
	DB	'COVERED_HIDDEN_ARTIFACTS_NEAR', 00H		; `string'
CONST	ENDS
;	COMDAT ??_C@_0BK@GEJOKJMD@RESOURCE_HIDDEN_ARTIFACTS?$AA@
CONST	SEGMENT
??_C@_0BK@GEJOKJMD@RESOURCE_HIDDEN_ARTIFACTS?$AA@ DB 'RESOURCE_HIDDEN_ART'
	DB	'IFACTS', 00H				; `string'
CONST	ENDS
;	COMDAT ??_C@_0CH@BOBAFPHE@TXT_KEY_MISC_DISCOVERED_ARTIFACT@
CONST	SEGMENT
??_C@_0CH@BOBAFPHE@TXT_KEY_MISC_DISCOVERED_ARTIFACT@ DB 'TXT_KEY_MISC_DIS'
	DB	'COVERED_ARTIFACTS_NEAR', 00H		; `string'
CONST	ENDS
;	COMDAT ??_C@_0BD@DCOOKOLP@RESOURCE_ARTIFACTS?$AA@
CONST	SEGMENT
??_C@_0BD@DCOOKOLP@RESOURCE_ARTIFACTS?$AA@ DB 'RESOURCE_ARTIFACTS', 00H ; `string'
CONST	ENDS
;	COMDAT ??_C@_0BD@OCGDIBFA@Resource?5Discovery?$AA@
CONST	SEGMENT
??_C@_0BD@OCGDIBFA@Resource?5Discovery?$AA@ DB 'Resource Discovery', 00H ; `string'
CONST	ENDS
;	COMDAT xdata$x
xdata$x	SEGMENT
__unwindtable$?doImprovement@CvPlot@@QAEXXZ DD 0ffffffffH
	DD	FLAT:__unwindfunclet$?doImprovement@CvPlot@@QAEXXZ$0
	DD	00H
	DD	FLAT:__unwindfunclet$?doImprovement@CvPlot@@QAEXXZ$1
	DD	00H
	DD	FLAT:__unwindfunclet$?doImprovement@CvPlot@@QAEXXZ$2
	DD	00H
	DD	FLAT:__unwindfunclet$?doImprovement@CvPlot@@QAEXXZ$3
__ehfuncinfo$?doImprovement@CvPlot@@QAEXXZ DD 019930522H
	DD	04H
	DD	FLAT:__unwindtable$?doImprovement@CvPlot@@QAEXXZ
	DD	2 DUP(00H)
	DD	2 DUP(00H)
	DD	00H
	DD	01H
; Function compile flags: /Odtp
; File d:\sources\lekmod_git\checkout\lekmod_dll\cvgamecoredll_expansion2\cvplot.cpp
xdata$x	ENDS
;	COMDAT ?doImprovement@CvPlot@@QAEXXZ
_TEXT	SEGMENT
tv247 = -300						; size = 4
tv364 = -296						; size = 4
tv66 = -292						; size = 4
tv211 = -288						; size = 4
tv483 = -284						; size = 4
tv478 = -278						; size = 1
tv471 = -277						; size = 1
tv467 = -276						; size = 4
tv468 = -272						; size = 4
tv286 = -268						; size = 4
tv190 = -264						; size = 4
tv454 = -260						; size = 4
tv449 = -254						; size = 1
tv442 = -253						; size = 1
tv438 = -252						; size = 4
tv439 = -248						; size = 4
_this$ = -244						; size = 4
$T230661 = -240						; size = 4
$T230657 = -236						; size = 4
$T230653 = -232						; size = 4
$T230649 = -228						; size = 4
$T230641 = -224						; size = 4
$T230633 = -220						; size = 4
$T230622 = -216						; size = 4
$T230615 = -212						; size = 4
$T230611 = -208						; size = 4
$T230607 = -204						; size = 4
$T230603 = -200						; size = 4
$T230599 = -196						; size = 4
$T230595 = -192						; size = 4
$T230591 = -188						; size = 4
$T230587 = -184						; size = 4
$T230580 = -180						; size = 4
_playerID$230577 = -176					; size = 4
$T230555 = -172						; size = 8
$T230554 = -164						; size = 28
$T230553 = -136						; size = 4
$T230552 = -132						; size = 4
$T230551 = -128						; size = 28
$T230550 = -100						; size = 28
_thisResourceInfo$221947 = -72				; size = 4
_iNumResourceInfos$221941 = -68				; size = 4
_thisImprovementInfo$221942 = -64			; size = 4
_thisTeam$ = -60					; size = 4
_strBuffer$ = -56					; size = 28
__$ArrayPad$ = -28					; size = 4
_pCity$ = -24						; size = 4
_iI$ = -20						; size = 4
_iResourceNum$ = -16					; size = 4
__$EHRec$ = -12						; size = 12
?doImprovement@CvPlot@@QAEXXZ PROC			; CvPlot::doImprovement, COMDAT
; _this$ = ecx

; 445  : {

	push	ebp
	mov	ebp, esp
	push	-1
	push	__ehhandler$?doImprovement@CvPlot@@QAEXXZ
	mov	eax, DWORD PTR fs:0
	push	eax
	sub	esp, 288				; 00000120H
	mov	eax, DWORD PTR ___security_cookie
	xor	eax, ebp
	mov	DWORD PTR __$ArrayPad$[ebp], eax
	push	eax
	lea	eax, DWORD PTR __$EHRec$[ebp]
	mov	DWORD PTR fs:0, eax
	mov	DWORD PTR _this$[ebp], ecx

; 446  : 	CvCity* pCity;
; 447  : 	CvString strBuffer;

	lea	ecx, DWORD PTR _strBuffer$[ebp]
	call	DWORD PTR __imp_??0?$basic_string@DU?$char_traits@D@std@@V?$allocator@D@2@@std@@QAE@XZ
	mov	DWORD PTR __$EHRec$[ebp+8], 0

; 448  : 	int iI;
; 449  : 	int iResourceNum = 0;

	mov	DWORD PTR _iResourceNum$[ebp], 0

; 450  : 	CvTeam& thisTeam = GET_TEAM(getTeam());

	mov	eax, DWORD PTR _this$[ebp]
	movsx	ecx, BYTE PTR [eax+4]
	mov	DWORD PTR _playerID$230577[ebp], ecx
	cmp	DWORD PTR _playerID$230577[ebp], -1
	je	SHORT $LN26@doImprovem
	mov	edx, DWORD PTR _playerID$230577[ebp]
	push	edx
	call	?teamType@CvPreGame@@YA?AW4TeamTypes@@W4PlayerTypes@@@Z ; CvPreGame::teamType
	add	esp, 4
	mov	DWORD PTR $T230580[ebp], eax
	jmp	SHORT $LN33@doImprovem
	jmp	SHORT $LN33@doImprovem
$LN26@doImprovem:
	mov	DWORD PTR $T230580[ebp], -1
$LN33@doImprovem:
	mov	eax, DWORD PTR $T230580[ebp]
	imul	eax, 2984				; 00000ba8H
	add	eax, DWORD PTR ?m_aTeams@CvTeam@@1PAV1@A ; CvTeam::m_aTeams
	mov	DWORD PTR _thisTeam$[ebp], eax

; 451  : 
; 452  : 	CvAssert(isBeingWorked() && isOwned());
; 453  : 
; 454  : 	if(m_eImprovementType != NO_IMPROVEMENT)

	mov	ecx, DWORD PTR _this$[ebp]
	movsx	edx, BYTE PTR [ecx+441]
	cmp	edx, -1
	je	$LN15@doImprovem

; 455  : 	{
; 456  : 		if(m_eResourceType == NO_RESOURCE)

	mov	eax, DWORD PTR _this$[ebp]
	movsx	ecx, BYTE PTR [eax+440]
	cmp	ecx, -1
	jne	$LN15@doImprovem

; 457  : 		{
; 458  : 			CvAssertMsg((0 < GC.getNumResourceInfos()), "GC.getNumResourceInfos() is not greater than zero but an array is being allocated in CvPlot::doImprovement");
; 459  : 			int iNumResourceInfos = GC.getNumResourceInfos();

	mov	ecx, OFFSET ?gGlobals@@3VCvGlobals@@A	; gGlobals
	call	?getNumResourceInfos@CvGlobals@@QAEHXZ	; CvGlobals::getNumResourceInfos
	mov	DWORD PTR _iNumResourceInfos$221941[ebp], eax

; 460  : 			CvImprovementEntry* thisImprovementInfo = GC.getImprovementInfo((ImprovementTypes)m_eImprovementType);

	mov	edx, DWORD PTR _this$[ebp]
	movsx	eax, BYTE PTR [edx+441]
	push	eax
	mov	ecx, OFFSET ?gGlobals@@3VCvGlobals@@A	; gGlobals
	call	?getImprovementInfo@CvGlobals@@QAEPAVCvImprovementEntry@@W4ImprovementTypes@@@Z ; CvGlobals::getImprovementInfo
	mov	DWORD PTR _thisImprovementInfo$221942[ebp], eax

; 461  : 			for(iI = 0; iI < iNumResourceInfos; ++iI)

	mov	DWORD PTR _iI$[ebp], 0
	jmp	SHORT $LN13@doImprovem
$LN12@doImprovem:
	mov	ecx, DWORD PTR _iI$[ebp]
	add	ecx, 1
	mov	DWORD PTR _iI$[ebp], ecx
$LN13@doImprovem:
	mov	edx, DWORD PTR _iI$[ebp]
	cmp	edx, DWORD PTR _iNumResourceInfos$221941[ebp]
	jge	$LN15@doImprovem

; 462  : 			{
; 463  : 				CvResourceInfo* thisResourceInfo = GC.getResourceInfo((ResourceTypes) iI);

	mov	eax, DWORD PTR _iI$[ebp]
	push	eax
	mov	ecx, OFFSET ?gGlobals@@3VCvGlobals@@A	; gGlobals
	call	?getResourceInfo@CvGlobals@@QAEPAVCvResourceInfo@@W4ResourceTypes@@@Z ; CvGlobals::getResourceInfo
	mov	DWORD PTR _thisResourceInfo$221947[ebp], eax

; 464  : 				if (thisResourceInfo)

	cmp	DWORD PTR _thisResourceInfo$221947[ebp], 0
	je	$LN10@doImprovem

; 465  : 				{
; 466  : 					if(thisTeam.GetTeamTechs()->HasTech((TechTypes)(thisResourceInfo->getTechReveal())))

	mov	ecx, DWORD PTR _thisResourceInfo$221947[ebp]
	call	?getTechReveal@CvResourceInfo@@QBEHXZ	; CvResourceInfo::getTechReveal
	push	eax
	mov	ecx, DWORD PTR _thisTeam$[ebp]
	call	?GetTeamTechs@CvTeam@@QBEPAVCvTeamTechs@@XZ ; CvTeam::GetTeamTechs
	mov	ecx, eax
	call	?HasTech@CvTeamTechs@@QBE_NW4TechTypes@@@Z ; CvTeamTechs::HasTech
	movzx	ecx, al
	test	ecx, ecx
	je	$LN10@doImprovem

; 467  : 					{
; 468  : 						if(thisImprovementInfo->GetImprovementResourceDiscoverRand(iI) > 0)

	mov	edx, DWORD PTR _iI$[ebp]
	push	edx
	mov	ecx, DWORD PTR _thisImprovementInfo$221942[ebp]
	call	?GetImprovementResourceDiscoverRand@CvImprovementEntry@@QBEHH@Z ; CvImprovementEntry::GetImprovementResourceDiscoverRand
	test	eax, eax
	jle	$LN10@doImprovem

; 469  : 						{
; 470  : 							if(GC.getGame().getJonRandNum(thisImprovementInfo->GetImprovementResourceDiscoverRand(iI), "Resource Discovery") == 0)

	mov	eax, DWORD PTR ?gGlobals@@3VCvGlobals@@A+48
	mov	DWORD PTR $T230587[ebp], eax
	push	OFFSET ??_C@_0BD@OCGDIBFA@Resource?5Discovery?$AA@
	mov	ecx, DWORD PTR _iI$[ebp]
	push	ecx
	mov	ecx, DWORD PTR _thisImprovementInfo$221942[ebp]
	call	?GetImprovementResourceDiscoverRand@CvImprovementEntry@@QBEHH@Z ; CvImprovementEntry::GetImprovementResourceDiscoverRand
	push	eax
	mov	ecx, DWORD PTR $T230587[ebp]
	call	?getJonRandNum@CvGame@@QAEHHPBD@Z	; CvGame::getJonRandNum
	test	eax, eax
	jne	$LN10@doImprovem

; 471  : 							{
; 472  : 								iResourceNum = GC.getMap().getRandomResourceQuantity((ResourceTypes)iI);

	mov	edx, DWORD PTR ?gGlobals@@3VCvGlobals@@A+52
	mov	DWORD PTR $T230591[ebp], edx
	mov	eax, DWORD PTR _iI$[ebp]
	push	eax
	mov	ecx, DWORD PTR $T230591[ebp]
	call	?getRandomResourceQuantity@CvMap@@QAEHW4ResourceTypes@@@Z ; CvMap::getRandomResourceQuantity
	mov	DWORD PTR _iResourceNum$[ebp], eax

; 473  : 								setResourceType((ResourceTypes)iI, iResourceNum);

	push	0
	mov	ecx, DWORD PTR _iResourceNum$[ebp]
	push	ecx
	mov	edx, DWORD PTR _iI$[ebp]
	push	edx
	mov	ecx, DWORD PTR _this$[ebp]
	call	?setResourceType@CvPlot@@QAEXW4ResourceTypes@@H_N@Z ; CvPlot::setResourceType

; 474  : 								if(getOwner() == GC.getGame().getActivePlayer())

	mov	eax, DWORD PTR _this$[ebp]
	movsx	ecx, BYTE PTR [eax+4]
	mov	DWORD PTR $T230595[ebp], ecx
	mov	edx, DWORD PTR ?gGlobals@@3VCvGlobals@@A+48
	mov	DWORD PTR $T230599[ebp], edx
	mov	ecx, DWORD PTR $T230599[ebp]
	call	?getActivePlayer@CvGame@@QBE?AW4PlayerTypes@@XZ ; CvGame::getActivePlayer
	cmp	DWORD PTR $T230595[ebp], eax
	jne	$LN6@doImprovem

; 475  : 								{
; 476  : 									pCity = GC.getMap().findCity(getX(), getY(), getOwner(), NO_TEAM, false);

	mov	eax, DWORD PTR _this$[ebp]
	movsx	ecx, BYTE PTR [eax+4]
	mov	DWORD PTR $T230603[ebp], ecx
	mov	edx, DWORD PTR _this$[ebp]
	movsx	eax, WORD PTR [edx+2]
	mov	DWORD PTR $T230607[ebp], eax
	mov	ecx, DWORD PTR _this$[ebp]
	movsx	edx, WORD PTR [ecx]
	mov	DWORD PTR $T230611[ebp], edx
	mov	eax, DWORD PTR ?gGlobals@@3VCvGlobals@@A+52
	mov	DWORD PTR $T230615[ebp], eax
	push	0
	push	-1
	push	-1
	push	0
	push	0
	push	-1
	mov	ecx, DWORD PTR $T230603[ebp]
	push	ecx
	mov	edx, DWORD PTR $T230607[ebp]
	push	edx
	mov	eax, DWORD PTR $T230611[ebp]
	push	eax
	mov	ecx, DWORD PTR $T230615[ebp]
	call	?findCity@CvMap@@QAEPAVCvCity@@HHW4PlayerTypes@@W4TeamTypes@@_N21W4DirectionTypes@@PBV2@@Z ; CvMap::findCity
	mov	DWORD PTR _pCity$[ebp], eax

; 477  : 									if(pCity != NULL)

	cmp	DWORD PTR _pCity$[ebp], 0
	je	$LN6@doImprovem

; 478  : 									{
; 479  : 										if(strcmp(thisResourceInfo->GetType(), "RESOURCE_ARTIFACTS") == 0)

	mov	DWORD PTR tv439[ebp], OFFSET ??_C@_0BD@DCOOKOLP@RESOURCE_ARTIFACTS?$AA@
	mov	ecx, DWORD PTR _thisResourceInfo$221947[ebp]
	add	ecx, 176				; 000000b0H
	call	DWORD PTR __imp_?c_str@?$basic_string@DU?$char_traits@D@std@@V?$allocator@D@2@@std@@QBEPBDXZ
	mov	DWORD PTR tv438[ebp], eax
$LL81@doImprovem:
	mov	ecx, DWORD PTR tv438[ebp]
	mov	dl, BYTE PTR [ecx]
	mov	BYTE PTR tv442[ebp], dl
	mov	eax, DWORD PTR tv439[ebp]
	cmp	dl, BYTE PTR [eax]
	jne	SHORT $LN82@doImprovem
	cmp	BYTE PTR tv442[ebp], 0
	je	SHORT $LN83@doImprovem
	mov	ecx, DWORD PTR tv438[ebp]
	mov	dl, BYTE PTR [ecx+1]
	mov	BYTE PTR tv449[ebp], dl
	mov	eax, DWORD PTR tv439[ebp]
	cmp	dl, BYTE PTR [eax+1]
	jne	SHORT $LN82@doImprovem
	add	DWORD PTR tv438[ebp], 2
	add	DWORD PTR tv439[ebp], 2
	cmp	BYTE PTR tv449[ebp], 0
	jne	SHORT $LL81@doImprovem
$LN83@doImprovem:
	mov	DWORD PTR tv454[ebp], 0
	jmp	SHORT $LN84@doImprovem
$LN82@doImprovem:
	sbb	ecx, ecx
	sbb	ecx, -1
	mov	DWORD PTR tv454[ebp], ecx
$LN84@doImprovem:
	mov	edx, DWORD PTR tv454[ebp]
	mov	DWORD PTR tv190[ebp], edx
	cmp	DWORD PTR tv190[ebp], 0
	jne	SHORT $LN58@doImprovem

; 480  : 										{
; 481  : 											strBuffer = GetLocalizedText("TXT_KEY_MISC_DISCOVERED_ARTIFACTS_NEAR", pCity->getNameKey());

	mov	ecx, DWORD PTR _pCity$[ebp]
	call	?getNameKey@CvCity@@QBEPBDXZ		; CvCity::getNameKey
	push	eax
	push	OFFSET ??_C@_0CH@BOBAFPHE@TXT_KEY_MISC_DISCOVERED_ARTIFACT@
	lea	eax, DWORD PTR $T230550[ebp]
	push	eax
	call	??$GetLocalizedText@PBD@@YA?AVCvString@@PBD0@Z ; GetLocalizedText<char const *>
	add	esp, 12					; 0000000cH
	mov	DWORD PTR tv286[ebp], eax
	mov	ecx, DWORD PTR tv286[ebp]
	mov	DWORD PTR $T230622[ebp], ecx
	mov	BYTE PTR __$EHRec$[ebp+8], 1
	mov	edx, DWORD PTR $T230622[ebp]
	push	edx
	lea	ecx, DWORD PTR _strBuffer$[ebp]
	call	DWORD PTR __imp_??4?$basic_string@DU?$char_traits@D@std@@V?$allocator@D@2@@std@@QAEAAV01@ABV01@@Z
	mov	BYTE PTR __$EHRec$[ebp+8], 0
	lea	ecx, DWORD PTR $T230550[ebp]
	call	DWORD PTR __imp_??1?$basic_string@DU?$char_traits@D@std@@V?$allocator@D@2@@std@@QAE@XZ
	jmp	$LN3@doImprovem

; 482  : 										}
; 483  : 										else if(strcmp(thisResourceInfo->GetType(), "RESOURCE_HIDDEN_ARTIFACTS") == 0)

$LN58@doImprovem:
	mov	DWORD PTR tv468[ebp], OFFSET ??_C@_0BK@GEJOKJMD@RESOURCE_HIDDEN_ARTIFACTS?$AA@
	mov	ecx, DWORD PTR _thisResourceInfo$221947[ebp]
	add	ecx, 176				; 000000b0H
	call	DWORD PTR __imp_?c_str@?$basic_string@DU?$char_traits@D@std@@V?$allocator@D@2@@std@@QBEPBDXZ
	mov	DWORD PTR tv467[ebp], eax
$LL85@doImprovem:
	mov	eax, DWORD PTR tv467[ebp]
	mov	cl, BYTE PTR [eax]
	mov	BYTE PTR tv471[ebp], cl
	mov	edx, DWORD PTR tv468[ebp]
	cmp	cl, BYTE PTR [edx]
	jne	SHORT $LN86@doImprovem
	cmp	BYTE PTR tv471[ebp], 0
	je	SHORT $LN87@doImprovem
	mov	eax, DWORD PTR tv467[ebp]
	mov	cl, BYTE PTR [eax+1]
	mov	BYTE PTR tv478[ebp], cl
	mov	edx, DWORD PTR tv468[ebp]
	cmp	cl, BYTE PTR [edx+1]
	jne	SHORT $LN86@doImprovem
	add	DWORD PTR tv467[ebp], 2
	add	DWORD PTR tv468[ebp], 2
	cmp	BYTE PTR tv478[ebp], 0
	jne	SHORT $LL85@doImprovem
$LN87@doImprovem:
	mov	DWORD PTR tv483[ebp], 0
	jmp	SHORT $LN88@doImprovem
$LN86@doImprovem:
	sbb	eax, eax
	sbb	eax, -1
	mov	DWORD PTR tv483[ebp], eax
$LN88@doImprovem:
	mov	ecx, DWORD PTR tv483[ebp]
	mov	DWORD PTR tv211[ebp], ecx
	cmp	DWORD PTR tv211[ebp], 0
	jne	SHORT $LN2@doImprovem

; 484  : 										{
; 485  : 											strBuffer = GetLocalizedText("TXT_KEY_MISC_DISCOVERED_HIDDEN_ARTIFACTS_NEAR", pCity->getNameKey());

	mov	ecx, DWORD PTR _pCity$[ebp]
	call	?getNameKey@CvCity@@QBEPBDXZ		; CvCity::getNameKey
	push	eax
	push	OFFSET ??_C@_0CO@ODOBJOOJ@TXT_KEY_MISC_DISCOVERED_HIDDEN_A@
	lea	edx, DWORD PTR $T230551[ebp]
	push	edx
	call	??$GetLocalizedText@PBD@@YA?AVCvString@@PBD0@Z ; GetLocalizedText<char const *>
	add	esp, 12					; 0000000cH
	mov	DWORD PTR tv66[ebp], eax
	mov	eax, DWORD PTR tv66[ebp]
	mov	DWORD PTR $T230633[ebp], eax
	mov	BYTE PTR __$EHRec$[ebp+8], 2
	mov	ecx, DWORD PTR $T230633[ebp]
	push	ecx
	lea	ecx, DWORD PTR _strBuffer$[ebp]
	call	DWORD PTR __imp_??4?$basic_string@DU?$char_traits@D@std@@V?$allocator@D@2@@std@@QAEAAV01@ABV01@@Z
	mov	BYTE PTR __$EHRec$[ebp+8], 0
	lea	ecx, DWORD PTR $T230551[ebp]
	call	DWORD PTR __imp_??1?$basic_string@DU?$char_traits@D@std@@V?$allocator@D@2@@std@@QAE@XZ

; 486  : 										}
; 487  : 										else

	jmp	SHORT $LN3@doImprovem
$LN2@doImprovem:

; 488  : 										{
; 489  : 											strBuffer = GetLocalizedText("TXT_KEY_MISC_DISCOVERED_NEW_RESOURCE", thisResourceInfo->GetTextKey(), pCity->getNameKey());

	mov	ecx, DWORD PTR _pCity$[ebp]
	call	?getNameKey@CvCity@@QBEPBDXZ		; CvCity::getNameKey
	mov	DWORD PTR $T230552[ebp], eax
	mov	ecx, DWORD PTR _thisResourceInfo$221947[ebp]
	call	?GetTextKey@CvBaseInfo@@QBEPBDXZ	; CvBaseInfo::GetTextKey
	mov	DWORD PTR $T230553[ebp], eax
	lea	edx, DWORD PTR $T230552[ebp]
	push	edx
	lea	eax, DWORD PTR $T230553[ebp]
	push	eax
	push	OFFSET ??_C@_0CF@EPDFDEFI@TXT_KEY_MISC_DISCOVERED_NEW_RESO@
	lea	ecx, DWORD PTR $T230554[ebp]
	push	ecx
	call	??$GetLocalizedText@PBDPBD@@YA?AVCvString@@PBDABQBD1@Z ; GetLocalizedText<char const *,char const *>
	add	esp, 16					; 00000010H
	mov	DWORD PTR tv364[ebp], eax
	mov	edx, DWORD PTR tv364[ebp]
	mov	DWORD PTR $T230641[ebp], edx
	mov	BYTE PTR __$EHRec$[ebp+8], 3
	mov	eax, DWORD PTR $T230641[ebp]
	push	eax
	lea	ecx, DWORD PTR _strBuffer$[ebp]
	call	DWORD PTR __imp_??4?$basic_string@DU?$char_traits@D@std@@V?$allocator@D@2@@std@@QAEAAV01@ABV01@@Z
	mov	BYTE PTR __$EHRec$[ebp+8], 0
	lea	ecx, DWORD PTR $T230554[ebp]
	call	DWORD PTR __imp_??1?$basic_string@DU?$char_traits@D@std@@V?$allocator@D@2@@std@@QAE@XZ
$LN3@doImprovem:

; 490  : 										}
; 491  : 
; 492  : 										GC.GetEngineUserInterface()->AddCityMessage(0, pCity->GetIDInfo(), getOwner(), false, GC.getEVENT_MESSAGE_TIME(), strBuffer/*, "AS2D_DISCOVERRESOURCE", MESSAGE_TYPE_MINOR_EVENT, thisResourceInfo.GetButton(), (ColorTypes)GC.getInfoTypeForString("COLOR_WHITE"), getX(), getY(), true, true*/);

	mov	ecx, DWORD PTR $T230649[ebp]
	mov	DWORD PTR tv247[ebp], ecx
	mov	edx, DWORD PTR ?gGlobals@@3VCvGlobals@@A+8568
	mov	DWORD PTR tv247[ebp], edx
	lea	ecx, DWORD PTR _strBuffer$[ebp]
	call	DWORD PTR __imp_?c_str@?$basic_string@DU?$char_traits@D@std@@V?$allocator@D@2@@std@@QBEPBDXZ
	mov	DWORD PTR $T230653[ebp], eax
	mov	eax, DWORD PTR ?gGlobals@@3VCvGlobals@@A+6176
	mov	DWORD PTR $T230657[ebp], eax
	mov	ecx, DWORD PTR _this$[ebp]
	movsx	edx, BYTE PTR [ecx+4]
	mov	DWORD PTR $T230661[ebp], edx
	push	0
	push	0
	push	-1
	push	-1
	push	-1
	push	0
	push	0
	push	0
	mov	eax, DWORD PTR $T230653[ebp]
	push	eax
	mov	ecx, DWORD PTR $T230657[ebp]
	push	ecx
	push	0
	mov	edx, DWORD PTR $T230661[ebp]
	push	edx
	lea	eax, DWORD PTR $T230555[ebp]
	push	eax
	mov	ecx, DWORD PTR _pCity$[ebp]
	call	?GetIDInfo@CvCity@@QBE?AUIDInfo@@XZ	; CvCity::GetIDInfo
	push	eax
	push	0
	mov	ecx, DWORD PTR tv247[ebp]
	mov	edx, DWORD PTR [ecx]
	mov	ecx, DWORD PTR tv247[ebp]
	mov	eax, DWORD PTR [edx+172]
	call	eax
$LN6@doImprovem:

; 493  : 									}
; 494  : 								}
; 495  : 
; 496  : 								break;

	jmp	SHORT $LN15@doImprovem
$LN10@doImprovem:

; 497  : 							}
; 498  : 						}
; 499  : 					}
; 500  : 				}
; 501  : 			}

	jmp	$LN12@doImprovem
$LN15@doImprovem:

; 502  : 		}
; 503  : 	}
; 504  : 
; 505  : 	doImprovementUpgrade();

	mov	ecx, DWORD PTR _this$[ebp]
	call	?doImprovementUpgrade@CvPlot@@IAEXXZ	; CvPlot::doImprovementUpgrade

; 506  : }

	mov	DWORD PTR __$EHRec$[ebp+8], -1
	lea	ecx, DWORD PTR _strBuffer$[ebp]
	call	DWORD PTR __imp_??1?$basic_string@DU?$char_traits@D@std@@V?$allocator@D@2@@std@@QAE@XZ
	mov	ecx, DWORD PTR __$EHRec$[ebp]
	mov	DWORD PTR fs:0, ecx
	pop	ecx
	mov	ecx, DWORD PTR __$ArrayPad$[ebp]
	xor	ecx, ebp
	call	@__security_check_cookie@4
	mov	esp, ebp
	pop	ebp
	ret	0
_TEXT	ENDS
;	COMDAT text$x
text$x	SEGMENT
__unwindfunclet$?doImprovement@CvPlot@@QAEXXZ$0:
	lea	ecx, DWORD PTR _strBuffer$[ebp]
	jmp	??1CvString@@QAE@XZ			; CvString::~CvString
__unwindfunclet$?doImprovement@CvPlot@@QAEXXZ$1:
	lea	ecx, DWORD PTR $T230550[ebp]
	jmp	??1CvString@@QAE@XZ			; CvString::~CvString
__unwindfunclet$?doImprovement@CvPlot@@QAEXXZ$2:
	lea	ecx, DWORD PTR $T230551[ebp]
	jmp	??1CvString@@QAE@XZ			; CvString::~CvString
__unwindfunclet$?doImprovement@CvPlot@@QAEXXZ$3:
	lea	ecx, DWORD PTR $T230554[ebp]
	jmp	??1CvString@@QAE@XZ			; CvString::~CvString
__ehhandler$?doImprovement@CvPlot@@QAEXXZ:
	mov	edx, DWORD PTR [esp+8]
	lea	eax, DWORD PTR [edx+12]
	mov	ecx, DWORD PTR [edx-292]
	xor	ecx, eax
	call	@__security_check_cookie@4
	mov	ecx, DWORD PTR [edx-16]
	xor	ecx, eax
	call	@__security_check_cookie@4
	mov	eax, OFFSET __ehfuncinfo$?doImprovement@CvPlot@@QAEXXZ
	jmp	___CxxFrameHandler3
text$x	ENDS
?doImprovement@CvPlot@@QAEXXZ ENDP			; CvPlot::doImprovement
PUBLIC	?GetPlayerThatBuiltImprovement@CvPlot@@QBE?AW4PlayerTypes@@XZ ; CvPlot::GetPlayerThatBuiltImprovement
PUBLIC	?getUpgradeProgress@CvPlot@@QBEHXZ		; CvPlot::getUpgradeProgress
PUBLIC	?changeUpgradeProgress@CvPlot@@QAEXH@Z		; CvPlot::changeUpgradeProgress
PUBLIC	?isBeingWorked@CvPlot@@QBE_NXZ			; CvPlot::isBeingWorked
EXTRN	?getImprovementUpgradeTime@CvGame@@QBEHW4ImprovementTypes@@PBVCvPlot@@@Z:PROC ; CvGame::getImprovementUpgradeTime
EXTRN	?getImprovementUpgradeRate@CvPlayer@@QBEHXZ:PROC ; CvPlayer::getImprovementUpgradeRate
EXTRN	?IsOutsideBorders@CvImprovementEntry@@QBE_NXZ:PROC ; CvImprovementEntry::IsOutsideBorders
EXTRN	?GetImprovementUpgrade@CvImprovementEntry@@QBEHXZ:PROC ; CvImprovementEntry::GetImprovementUpgrade
; Function compile flags: /Odtp
;	COMDAT ?doImprovementUpgrade@CvPlot@@IAEXXZ
_TEXT	SEGMENT
_this$ = -20						; size = 4
$T230693 = -16						; size = 4
$T230689 = -12						; size = 4
$T230685 = -8						; size = 4
_eImprovementUpdrade$221990 = -4			; size = 4
?doImprovementUpgrade@CvPlot@@IAEXXZ PROC		; CvPlot::doImprovementUpgrade, COMDAT
; _this$ = ecx

; 510  : {

	push	ebp
	mov	ebp, esp
	sub	esp, 20					; 00000014H
	push	esi
	mov	DWORD PTR _this$[ebp], ecx

; 511  : 	if(getImprovementType() != NO_IMPROVEMENT)

	mov	ecx, DWORD PTR _this$[ebp]
	call	?getImprovementType@CvPlot@@QBE?AW4ImprovementTypes@@XZ ; CvPlot::getImprovementType
	cmp	eax, -1
	je	$LN6@doImprovem@2

; 512  : 	{
; 513  : 		ImprovementTypes eImprovementUpdrade = (ImprovementTypes)GC.getImprovementInfo(getImprovementType())->GetImprovementUpgrade();

	mov	ecx, DWORD PTR _this$[ebp]
	call	?getImprovementType@CvPlot@@QBE?AW4ImprovementTypes@@XZ ; CvPlot::getImprovementType
	push	eax
	mov	ecx, OFFSET ?gGlobals@@3VCvGlobals@@A	; gGlobals
	call	?getImprovementInfo@CvGlobals@@QAEPAVCvImprovementEntry@@W4ImprovementTypes@@@Z ; CvGlobals::getImprovementInfo
	mov	ecx, eax
	call	?GetImprovementUpgrade@CvImprovementEntry@@QBEHXZ ; CvImprovementEntry::GetImprovementUpgrade
	mov	DWORD PTR _eImprovementUpdrade$221990[ebp], eax

; 514  : 		if(eImprovementUpdrade != NO_IMPROVEMENT)

	cmp	DWORD PTR _eImprovementUpdrade$221990[ebp], -1
	je	$LN6@doImprovem@2

; 515  : 		{
; 516  : 			if(isBeingWorked() || GC.getImprovementInfo(eImprovementUpdrade)->IsOutsideBorders())

	mov	ecx, DWORD PTR _this$[ebp]
	call	?isBeingWorked@CvPlot@@QBE_NXZ		; CvPlot::isBeingWorked
	movzx	eax, al
	test	eax, eax
	jne	SHORT $LN2@doImprovem@2
	mov	ecx, DWORD PTR _eImprovementUpdrade$221990[ebp]
	push	ecx
	mov	ecx, OFFSET ?gGlobals@@3VCvGlobals@@A	; gGlobals
	call	?getImprovementInfo@CvGlobals@@QAEPAVCvImprovementEntry@@W4ImprovementTypes@@@Z ; CvGlobals::getImprovementInfo
	mov	ecx, eax
	call	?IsOutsideBorders@CvImprovementEntry@@QBE_NXZ ; CvImprovementEntry::IsOutsideBorders
	movzx	edx, al
	test	edx, edx
	je	SHORT $LN6@doImprovem@2
$LN2@doImprovem@2:

; 517  : 			{
; 518  : 				changeUpgradeProgress(GET_PLAYER(getOwner()).getImprovementUpgradeRate());

	mov	eax, DWORD PTR _this$[ebp]
	movsx	ecx, BYTE PTR [eax+4]
	mov	DWORD PTR $T230685[ebp], ecx
	mov	edx, DWORD PTR $T230685[ebp]
	imul	edx, 63236				; 0000f704H
	add	edx, DWORD PTR ?m_aPlayers@CvPlayerAI@@1PAV1@A ; CvPlayerAI::m_aPlayers
	mov	DWORD PTR $T230689[ebp], edx
	mov	ecx, DWORD PTR $T230689[ebp]
	call	?getImprovementUpgradeRate@CvPlayer@@QBEHXZ ; CvPlayer::getImprovementUpgradeRate
	push	eax
	mov	ecx, DWORD PTR _this$[ebp]
	call	?changeUpgradeProgress@CvPlot@@QAEXH@Z	; CvPlot::changeUpgradeProgress

; 519  : 
; 520  : 				if(getUpgradeProgress() >= (GC.getGame().getImprovementUpgradeTime(getImprovementType(), this)) * 100)

	mov	eax, DWORD PTR ?gGlobals@@3VCvGlobals@@A+48
	mov	DWORD PTR $T230693[ebp], eax
	mov	ecx, DWORD PTR _this$[ebp]
	call	?getUpgradeProgress@CvPlot@@QBEHXZ	; CvPlot::getUpgradeProgress
	mov	esi, eax
	mov	ecx, DWORD PTR _this$[ebp]
	push	ecx
	mov	ecx, DWORD PTR _this$[ebp]
	call	?getImprovementType@CvPlot@@QBE?AW4ImprovementTypes@@XZ ; CvPlot::getImprovementType
	push	eax
	mov	ecx, DWORD PTR $T230693[ebp]
	call	?getImprovementUpgradeTime@CvGame@@QBEHW4ImprovementTypes@@PBVCvPlot@@@Z ; CvGame::getImprovementUpgradeTime
	imul	eax, 100				; 00000064H
	cmp	esi, eax
	jl	SHORT $LN6@doImprovem@2

; 521  : 				{
; 522  : 					setImprovementType(eImprovementUpdrade, GetPlayerThatBuiltImprovement());

	mov	ecx, DWORD PTR _this$[ebp]
	call	?GetPlayerThatBuiltImprovement@CvPlot@@QBE?AW4PlayerTypes@@XZ ; CvPlot::GetPlayerThatBuiltImprovement
	push	eax
	mov	edx, DWORD PTR _eImprovementUpdrade$221990[ebp]
	push	edx
	mov	ecx, DWORD PTR _this$[ebp]
	call	?setImprovementType@CvPlot@@QAEXW4ImprovementTypes@@W4PlayerTypes@@@Z ; CvPlot::setImprovementType
$LN6@doImprovem@2:

; 523  : 				}
; 524  : 			}
; 525  : 		}
; 526  : 	}
; 527  : }

	pop	esi
	mov	esp, ebp
	pop	ebp
	ret	0
?doImprovementUpgrade@CvPlot@@IAEXXZ ENDP		; CvPlot::doImprovementUpgrade
_TEXT	ENDS
PUBLIC	?isRevealed@CvPlot@@QBE_NW4TeamTypes@@_N@Z	; CvPlot::isRevealed
PUBLIC	?GetActiveFogOfWarMode@CvPlot@@QBE?AW4FogOfWarModeTypes@@XZ ; CvPlot::GetActiveFogOfWarMode
EXTRN	?isDebugMode@CvGame@@QBE_NXZ:PROC		; CvGame::isDebugMode
EXTRN	?getActiveTeam@CvGame@@QAE?AW4TeamTypes@@XZ:PROC ; CvGame::getActiveTeam
; Function compile flags: /Odtp
;	COMDAT ?GetActiveFogOfWarMode@CvPlot@@QBE?AW4FogOfWarModeTypes@@XZ
_TEXT	SEGMENT
_this$ = -36						; size = 4
$T230725 = -29						; size = 1
$T230712 = -28						; size = 4
_activeTeam$ = -16					; size = 4
_Game$ = -12						; size = 4
_eFOWMode$ = -8						; size = 4
_bIsDebug$ = -1						; size = 1
?GetActiveFogOfWarMode@CvPlot@@QBE?AW4FogOfWarModeTypes@@XZ PROC ; CvPlot::GetActiveFogOfWarMode, COMDAT
; _this$ = ecx

; 531  : {

	push	ebp
	mov	ebp, esp
	sub	esp, 36					; 00000024H
	mov	DWORD PTR _this$[ebp], ecx

; 532  : 	CvGame& Game = GC.getGame();

	mov	eax, DWORD PTR ?gGlobals@@3VCvGlobals@@A+48
	mov	DWORD PTR _Game$[ebp], eax

; 533  : 	const TeamTypes activeTeam = Game.getActiveTeam();

	mov	ecx, DWORD PTR _Game$[ebp]
	call	?getActiveTeam@CvGame@@QAE?AW4TeamTypes@@XZ ; CvGame::getActiveTeam
	mov	DWORD PTR _activeTeam$[ebp], eax

; 534  : 	CvAssert(activeTeam != NO_TEAM);
; 535  : 
; 536  : 	FogOfWarModeTypes eFOWMode = FOGOFWARMODE_UNEXPLORED;

	mov	DWORD PTR _eFOWMode$[ebp], 1

; 537  : 
; 538  : 	bool bIsDebug = Game.isDebugMode();

	mov	ecx, DWORD PTR _Game$[ebp]
	call	?isDebugMode@CvGame@@QBE_NXZ		; CvGame::isDebugMode
	mov	BYTE PTR _bIsDebug$[ebp], al

; 539  : 	if(bIsDebug || activeTeam != NO_TEAM)

	movzx	ecx, BYTE PTR _bIsDebug$[ebp]
	test	ecx, ecx
	jne	SHORT $LN2@GetActiveF
	cmp	DWORD PTR _activeTeam$[ebp], -1
	je	SHORT $LN3@GetActiveF
$LN2@GetActiveF:

; 540  : 	{
; 541  : 		if(isRevealed(activeTeam, bIsDebug))

	movzx	edx, BYTE PTR _bIsDebug$[ebp]
	push	edx
	mov	eax, DWORD PTR _activeTeam$[ebp]
	push	eax
	mov	ecx, DWORD PTR _this$[ebp]
	call	?isRevealed@CvPlot@@QBE_NW4TeamTypes@@_N@Z ; CvPlot::isRevealed
	movzx	ecx, al
	test	ecx, ecx
	je	SHORT $LN3@GetActiveF

; 542  : 		{
; 543  : 			eFOWMode = (isVisible(activeTeam, bIsDebug))? FOGOFWARMODE_OFF : FOGOFWARMODE_NOVIS;

	movzx	edx, BYTE PTR _bIsDebug$[ebp]
	test	edx, edx
	je	SHORT $LN17@GetActiveF
	mov	eax, DWORD PTR ?gGlobals@@3VCvGlobals@@A+48
	mov	DWORD PTR $T230712[ebp], eax
	mov	ecx, DWORD PTR $T230712[ebp]
	call	?isDebugMode@CvGame@@QBE_NXZ		; CvGame::isDebugMode
	movzx	ecx, al
	test	ecx, ecx
	je	SHORT $LN17@GetActiveF
	mov	BYTE PTR $T230725[ebp], 1
	jmp	SHORT $LN18@GetActiveF
	jmp	SHORT $LN18@GetActiveF
$LN17@GetActiveF:
	cmp	DWORD PTR _activeTeam$[ebp], -1
	jne	SHORT $LN22@GetActiveF
	mov	BYTE PTR $T230725[ebp], 0
	jmp	SHORT $LN18@GetActiveF
$LN22@GetActiveF:
	mov	edx, DWORD PTR _this$[ebp]
	mov	eax, DWORD PTR [edx+156]
	mov	ecx, DWORD PTR _activeTeam$[ebp]
	movsx	edx, WORD PTR [eax+ecx*2]
	xor	eax, eax
	test	edx, edx
	setg	al
	mov	BYTE PTR $T230725[ebp], al
$LN18@GetActiveF:
	movzx	ecx, BYTE PTR $T230725[ebp]
	neg	ecx
	sbb	ecx, ecx
	and	ecx, -2					; fffffffeH
	add	ecx, 2
	mov	DWORD PTR _eFOWMode$[ebp], ecx
$LN3@GetActiveF:

; 544  : 		}
; 545  : 	}
; 546  : 
; 547  : 	return eFOWMode;

	mov	eax, DWORD PTR _eFOWMode$[ebp]

; 548  : }

	mov	esp, ebp
	pop	ebp
	ret	0
?GetActiveFogOfWarMode@CvPlot@@QBE?AW4FogOfWarModeTypes@@XZ ENDP ; CvPlot::GetActiveFogOfWarMode
_TEXT	ENDS
PUBLIC	?push_back@?$FStaticVector@PAVCvPlot@@$0DOI@$00$0BCJ@$00@@QAEIABQAVCvPlot@@@Z ; FStaticVector<CvPlot *,1000,1,297,1>::push_back
PUBLIC	?updateFog@CvPlot@@QAEX_N@Z			; CvPlot::updateFog
; Function compile flags: /Odtp
;	COMDAT ?updateFog@CvPlot@@QAEX_N@Z
_TEXT	SEGMENT
tv79 = -76						; size = 4
_this$ = -72						; size = 4
$T230743 = -28						; size = 4
$T230736 = -24						; size = 4
$T230732 = -20						; size = 4
$T230728 = -16						; size = 4
_itr$222015 = -12					; size = 4
_plotList$222014 = -8					; size = 4
_eFOWMode$ = -4						; size = 4
_bDefer$ = 8						; size = 1
?updateFog@CvPlot@@QAEX_N@Z PROC			; CvPlot::updateFog, COMDAT
; _this$ = ecx

; 553  : {

	push	ebp
	mov	ebp, esp
	sub	esp, 76					; 0000004cH
	mov	DWORD PTR _this$[ebp], ecx

; 554  : 	if(!GC.IsGraphicsInitialized())

	mov	ecx, OFFSET ?gGlobals@@3VCvGlobals@@A	; gGlobals
	call	?IsGraphicsInitialized@CvGlobals@@QBE_NXZ ; CvGlobals::IsGraphicsInitialized
	movzx	eax, al
	test	eax, eax
	jne	SHORT $LN7@updateFog

; 555  : 	{
; 556  : 		return;

	jmp	$LN8@updateFog
$LN7@updateFog:

; 557  : 	}
; 558  : 
; 559  : 	FogOfWarModeTypes eFOWMode = GetActiveFogOfWarMode();

	mov	ecx, DWORD PTR _this$[ebp]
	call	?GetActiveFogOfWarMode@CvPlot@@QBE?AW4FogOfWarModeTypes@@XZ ; CvPlot::GetActiveFogOfWarMode
	mov	DWORD PTR _eFOWMode$[ebp], eax

; 560  : 
; 561  : 	if(!bDefer)

	movzx	ecx, BYTE PTR _bDefer$[ebp]
	test	ecx, ecx
	jne	SHORT $LN6@updateFog

; 562  : 	{
; 563  : 		gDLL->GameplayFOWChanged(getX(), getY(), eFOWMode, false);

	mov	edx, DWORD PTR $T230732[ebp]
	mov	DWORD PTR tv79[ebp], edx
	mov	eax, DWORD PTR ?gGlobals@@3VCvGlobals@@A+8564
	mov	DWORD PTR tv79[ebp], eax
	mov	ecx, DWORD PTR _this$[ebp]
	movsx	edx, WORD PTR [ecx+2]
	mov	DWORD PTR $T230736[ebp], edx
	push	0
	mov	eax, DWORD PTR _eFOWMode$[ebp]
	push	eax
	mov	ecx, DWORD PTR $T230736[ebp]
	push	ecx
	mov	edx, DWORD PTR _this$[ebp]
	movsx	eax, WORD PTR [edx]
	push	eax
	mov	ecx, DWORD PTR tv79[ebp]
	mov	edx, DWORD PTR [ecx]
	mov	ecx, DWORD PTR tv79[ebp]
	mov	eax, DWORD PTR [edx+712]
	call	eax

; 564  : 	}
; 565  : 	else

	jmp	SHORT $LN8@updateFog
$LN6@updateFog:

; 566  : 	{
; 567  : 		CvMap::DeferredPlotArray& plotList = GC.getMap().m_vDeferredFogPlots;

	mov	ecx, DWORD PTR ?gGlobals@@3VCvGlobals@@A+52
	mov	DWORD PTR $T230743[ebp], ecx
	mov	edx, DWORD PTR $T230743[ebp]
	add	edx, 4
	mov	DWORD PTR _plotList$222014[ebp], edx

; 568  : 		for (CvMap::DeferredPlotArray::const_iterator itr = plotList.begin(); itr != plotList.end(); ++itr)

	mov	eax, DWORD PTR _plotList$222014[ebp]
	mov	ecx, DWORD PTR [eax]
	mov	DWORD PTR _itr$222015[ebp], ecx
	jmp	SHORT $LN20@updateFog
$LN3@updateFog:
	mov	edx, DWORD PTR _itr$222015[ebp]
	add	edx, 4
	mov	DWORD PTR _itr$222015[ebp], edx
$LN20@updateFog:
	mov	eax, DWORD PTR _plotList$222014[ebp]
	mov	ecx, DWORD PTR [eax+4]
	mov	edx, DWORD PTR _plotList$222014[ebp]
	mov	eax, DWORD PTR [edx]
	lea	ecx, DWORD PTR [eax+ecx*4]
	cmp	DWORD PTR _itr$222015[ebp], ecx
	je	SHORT $LN2@updateFog

; 569  : 		{
; 570  : 			if((*itr) == this)

	mov	edx, DWORD PTR _itr$222015[ebp]
	mov	eax, DWORD PTR [edx]
	cmp	eax, DWORD PTR _this$[ebp]
	jne	SHORT $LN1@updateFog

; 571  : 				return;	// Already in

	jmp	SHORT $LN8@updateFog
$LN1@updateFog:

; 572  : 		}

	jmp	SHORT $LN3@updateFog
$LN2@updateFog:

; 573  : 		plotList.push_back(this);

	mov	ecx, DWORD PTR _this$[ebp]
	mov	DWORD PTR $T230728[ebp], ecx
	lea	edx, DWORD PTR $T230728[ebp]
	push	edx
	mov	ecx, DWORD PTR _plotList$222014[ebp]
	call	?push_back@?$FStaticVector@PAVCvPlot@@$0DOI@$00$0BCJ@$00@@QAEIABQAVCvPlot@@@Z ; FStaticVector<CvPlot *,1000,1,297,1>::push_back
$LN8@updateFog:

; 574  : 	}
; 575  : }

	mov	esp, ebp
	pop	ebp
	ret	4
?updateFog@CvPlot@@QAEX_N@Z ENDP			; CvPlot::updateFog
_TEXT	ENDS
PUBLIC	??1?$auto_ptr@VICvUnit1@@@std@@QAE@XZ		; std::auto_ptr<ICvUnit1>::~auto_ptr<ICvUnit1>
PUBLIC	__real@3c23d70a
PUBLIC	?isInvisibleVisible@CvPlot@@QBE_NW4TeamTypes@@W4InvisibleTypes@@@Z ; CvPlot::isInvisibleVisible
PUBLIC	?setLayoutDirty@CvPlot@@QAEX_N@Z		; CvPlot::setLayoutDirty
EXTRN	??3CvDllUnit@@SAXPAX@Z:PROC			; CvDllUnit::operator delete
EXTRN	?getUnit@@YAPAVCvUnit@@ABUIDInfo@@@Z:PROC	; getUnit
EXTRN	?GetUnitsByIndex@CvPlotManager@@QBEABVCvIDInfoFixedVector@@HHH@Z:PROC ; CvPlotManager::GetUnitsByIndex
EXTRN	?GetNumLayers@CvPlotManager@@QBEHXZ:PROC	; CvPlotManager::GetNumLayers
EXTRN	?getTeam@CvUnit@@QBE?AW4TeamTypes@@XZ:PROC	; CvUnit::getTeam
EXTRN	??0CvDllUnit@@QAE@PAVCvUnit@@@Z:PROC		; CvDllUnit::CvDllUnit
EXTRN	??2CvDllUnit@@SAPAXI@Z:PROC			; CvDllUnit::operator new
EXTRN	?getInvisibleType@CvUnit@@QBE?BW4InvisibleTypes@@XZ:PROC ; CvUnit::getInvisibleType
EXTRN	__fltused:DWORD
;	COMDAT __real@3c23d70a
; File d:\sources\lekmod_git\checkout\lekmod_dll\cvgamecoredllutil\include\cvdllinterfaces.h
CONST	SEGMENT
__real@3c23d70a DD 03c23d70ar			; 0.01
CONST	ENDS
;	COMDAT xdata$x
xdata$x	SEGMENT
__unwindtable$?updateVisibility@CvPlot@@QAEXXZ DD 0ffffffffH
	DD	FLAT:__unwindfunclet$?updateVisibility@CvPlot@@QAEXXZ$0
	DD	0ffffffffH
	DD	FLAT:__unwindfunclet$?updateVisibility@CvPlot@@QAEXXZ$1
	DD	0ffffffffH
	DD	FLAT:__unwindfunclet$?updateVisibility@CvPlot@@QAEXXZ$2
	DD	0ffffffffH
	DD	FLAT:__unwindfunclet$?updateVisibility@CvPlot@@QAEXXZ$3
__ehfuncinfo$?updateVisibility@CvPlot@@QAEXXZ DD 019930522H
	DD	04H
	DD	FLAT:__unwindtable$?updateVisibility@CvPlot@@QAEXXZ
	DD	2 DUP(00H)
	DD	2 DUP(00H)
	DD	00H
	DD	01H
; Function compile flags: /Odtp
; File d:\sources\lekmod_git\checkout\lekmod_dll\cvgamecoredll_expansion2\cvplot.cpp
xdata$x	ENDS
;	COMDAT ?updateVisibility@CvPlot@@QAEXXZ
_TEXT	SEGMENT
tv218 = -144						; size = 4
tv230 = -137						; size = 1
tv208 = -136						; size = 4
tv142 = -132						; size = 4
tv154 = -125						; size = 1
tv132 = -124						; size = 4
tv253 = -120						; size = 4
_this$ = -116						; size = 4
_inst$230883 = -112					; size = 4
$T230879 = -108						; size = 4
$T230867 = -104						; size = 4
$T230851 = -100						; size = 4
_inst$230846 = -96					; size = 4
$T230842 = -92						; size = 4
$T230830 = -88						; size = 4
$T230814 = -84						; size = 4
$T230802 = -80						; size = 4
$T230801 = -76						; size = 4
$T230796 = -72						; size = 4
$T230795 = -68						; size = 4
_pDllUnit$222116 = -64					; size = 4
_eInvisibleType$222109 = -60				; size = 4
_pLoopUnit$222107 = -56					; size = 4
_itrUnit$222103 = -52					; size = 4
_kUnits$222102 = -48					; size = 4
_iLayer$222098 = -44					; size = 4
_pDllUnit$222086 = -40					; size = 4
_eInvisibleType$222033 = -36				; size = 4
_pLoopUnit$222031 = -32					; size = 4
_kPlotManager$222096 = -28				; size = 4
_pUnitNode$222027 = -24					; size = 4
_iNumLayers$222097 = -20				; size = 4
_eActiveTeam$ = -16					; size = 4
__$EHRec$ = -12						; size = 12
?updateVisibility@CvPlot@@QAEXXZ PROC			; CvPlot::updateVisibility, COMDAT
; _this$ = ecx

; 579  : {

	push	ebp
	mov	ebp, esp
	push	-1
	push	__ehhandler$?updateVisibility@CvPlot@@QAEXXZ
	mov	eax, DWORD PTR fs:0
	push	eax
	sub	esp, 132				; 00000084H
	mov	eax, DWORD PTR ___security_cookie
	xor	eax, ebp
	push	eax
	lea	eax, DWORD PTR __$EHRec$[ebp]
	mov	DWORD PTR fs:0, eax
	mov	DWORD PTR _this$[ebp], ecx

; 580  : 	if(!GC.IsGraphicsInitialized())

	mov	ecx, OFFSET ?gGlobals@@3VCvGlobals@@A	; gGlobals
	call	?IsGraphicsInitialized@CvGlobals@@QBE_NXZ ; CvGlobals::IsGraphicsInitialized
	movzx	eax, al
	test	eax, eax
	jne	SHORT $LN14@updateVisi

; 581  : 	{
; 582  : 		return;

	jmp	$LN15@updateVisi
$LN14@updateVisi:

; 583  : 	}
; 584  : 
; 585  : 	setLayoutDirty(true);

	push	1
	mov	ecx, DWORD PTR _this$[ebp]
	call	?setLayoutDirty@CvPlot@@QAEX_N@Z	; CvPlot::setLayoutDirty

; 586  : 
; 587  : 	// Any unit that has visibility rules (it can become invisible to another player) needs to update itself.
; 588  : 	const TeamTypes eActiveTeam = GC.getGame().getActiveTeam();

	mov	ecx, DWORD PTR ?gGlobals@@3VCvGlobals@@A+48
	mov	DWORD PTR $T230814[ebp], ecx
	mov	ecx, DWORD PTR $T230814[ebp]
	call	?getActiveTeam@CvGame@@QAE?AW4TeamTypes@@XZ ; CvGame::getActiveTeam
	mov	DWORD PTR _eActiveTeam$[ebp], eax

; 589  : 	CvAssert(eActiveTeam != NO_TEAM);
; 590  : 	if (eActiveTeam != NO_TEAM)

	cmp	DWORD PTR _eActiveTeam$[ebp], -1
	je	$LN6@updateVisi

; 591  : 	{
; 592  : 		IDInfo* pUnitNode = headUnitNode();

	mov	ecx, DWORD PTR _this$[ebp]
	call	?headUnitNode@CvPlot@@QAEPAUIDInfo@@XZ	; CvPlot::headUnitNode
	mov	DWORD PTR _pUnitNode$222027[ebp], eax
$LN12@updateVisi:

; 593  : 		while (pUnitNode != NULL)

	cmp	DWORD PTR _pUnitNode$222027[ebp], 0
	je	$LN11@updateVisi

; 594  : 		{
; 595  : 			CvUnit* pLoopUnit = GetPlayerUnit(*pUnitNode);

	mov	edx, DWORD PTR _pUnitNode$222027[ebp]
	cmp	DWORD PTR [edx], 0
	jl	SHORT $LN31@updateVisi
	mov	eax, DWORD PTR _pUnitNode$222027[ebp]
	cmp	DWORD PTR [eax], 64			; 00000040H
	jge	SHORT $LN31@updateVisi
	mov	ecx, DWORD PTR _pUnitNode$222027[ebp]
	mov	edx, DWORD PTR [ecx]
	imul	edx, 63236				; 0000f704H
	mov	eax, DWORD PTR ?m_aPlayers@CvPlayerAI@@1PAV1@A ; CvPlayerAI::m_aPlayers
	lea	ecx, DWORD PTR [eax+edx+4472]
	mov	DWORD PTR tv253[ebp], ecx
	mov	edx, DWORD PTR _pUnitNode$222027[ebp]
	mov	eax, DWORD PTR [edx+4]
	push	eax
	mov	ecx, DWORD PTR tv253[ebp]
	mov	edx, DWORD PTR [ecx]
	mov	ecx, DWORD PTR tv253[ebp]
	mov	eax, DWORD PTR [edx+16]
	call	eax
	mov	DWORD PTR _pLoopUnit$222031[ebp], eax
	jmp	SHORT $LN32@updateVisi
$LN31@updateVisi:
	mov	DWORD PTR _pLoopUnit$222031[ebp], 0
$LN32@updateVisi:

; 596  : 			pUnitNode = nextUnitNode(pUnitNode);

	mov	ecx, DWORD PTR _pUnitNode$222027[ebp]
	push	ecx
	mov	ecx, DWORD PTR _this$[ebp]
	call	?nextUnitNode@CvPlot@@QAEPAUIDInfo@@PAU2@@Z ; CvPlot::nextUnitNode
	mov	DWORD PTR _pUnitNode$222027[ebp], eax

; 597  : 
; 598  : 			if (pLoopUnit)

	cmp	DWORD PTR _pLoopUnit$222031[ebp], 0
	je	$LN42@updateVisi

; 599  : 			{
; 600  : 				InvisibleTypes eInvisibleType = pLoopUnit->getInvisibleType();

	mov	ecx, DWORD PTR _pLoopUnit$222031[ebp]
	call	?getInvisibleType@CvUnit@@QBE?BW4InvisibleTypes@@XZ ; CvUnit::getInvisibleType
	mov	DWORD PTR _eInvisibleType$222033[ebp], eax

; 601  : 				if (eInvisibleType != NO_INVISIBLE)

	cmp	DWORD PTR _eInvisibleType$222033[ebp], -1
	je	$LN42@updateVisi

; 602  : 				{
; 603  : 					// This unit has visibility rules, send a message that it needs to update itself.
; 604  : 					auto_ptr<ICvUnit1> pDllUnit(new CvDllUnit(pLoopUnit));

	push	12					; 0000000cH
	call	??2CvDllUnit@@SAPAXI@Z			; CvDllUnit::operator new
	add	esp, 4
	mov	DWORD PTR $T230796[ebp], eax
	mov	DWORD PTR __$EHRec$[ebp+8], 0
	cmp	DWORD PTR $T230796[ebp], 0
	je	SHORT $LN17@updateVisi
	mov	edx, DWORD PTR _pLoopUnit$222031[ebp]
	push	edx
	mov	ecx, DWORD PTR $T230796[ebp]
	call	??0CvDllUnit@@QAE@PAVCvUnit@@@Z		; CvDllUnit::CvDllUnit
	mov	DWORD PTR tv132[ebp], eax
	jmp	SHORT $LN18@updateVisi
$LN17@updateVisi:
	mov	DWORD PTR tv132[ebp], 0
$LN18@updateVisi:
	mov	eax, DWORD PTR tv132[ebp]
	mov	DWORD PTR $T230795[ebp], eax
	mov	DWORD PTR __$EHRec$[ebp+8], -1
	mov	ecx, DWORD PTR $T230795[ebp]
	mov	DWORD PTR _pDllUnit$222086[ebp], ecx
	mov	DWORD PTR __$EHRec$[ebp+8], 1

; 605  : 					gDLL->GameplayUnitVisibility(pDllUnit.get(), (pLoopUnit->getTeam() == eActiveTeam)?true:isInvisibleVisible(eActiveTeam, eInvisibleType), true, 0.01f);

	mov	ecx, DWORD PTR _pLoopUnit$222031[ebp]
	call	?getTeam@CvUnit@@QBE?AW4TeamTypes@@XZ	; CvUnit::getTeam
	cmp	eax, DWORD PTR _eActiveTeam$[ebp]
	jne	SHORT $LN19@updateVisi
	mov	BYTE PTR tv154[ebp], 1
	jmp	SHORT $LN20@updateVisi
$LN19@updateVisi:
	mov	edx, DWORD PTR _eInvisibleType$222033[ebp]
	push	edx
	mov	eax, DWORD PTR _eActiveTeam$[ebp]
	push	eax
	mov	ecx, DWORD PTR _this$[ebp]
	call	?isInvisibleVisible@CvPlot@@QBE_NW4TeamTypes@@W4InvisibleTypes@@@Z ; CvPlot::isInvisibleVisible
	mov	BYTE PTR tv154[ebp], al
$LN20@updateVisi:
	mov	ecx, DWORD PTR $T230830[ebp]
	mov	DWORD PTR tv142[ebp], ecx
	mov	edx, DWORD PTR ?gGlobals@@3VCvGlobals@@A+8564
	mov	DWORD PTR tv142[ebp], edx
	push	ecx
	fld	DWORD PTR __real@3c23d70a
	fstp	DWORD PTR [esp]
	push	1
	movzx	eax, BYTE PTR tv154[ebp]
	push	eax
	mov	ecx, DWORD PTR _pDllUnit$222086[ebp]
	push	ecx
	mov	edx, DWORD PTR tv142[ebp]
	mov	eax, DWORD PTR [edx]
	mov	ecx, DWORD PTR tv142[ebp]
	mov	edx, DWORD PTR [eax+640]
	call	edx

; 606  : 				}

	mov	DWORD PTR __$EHRec$[ebp+8], -1
	mov	eax, DWORD PTR _pDllUnit$222086[ebp]
	mov	DWORD PTR $T230842[ebp], eax
	cmp	DWORD PTR $T230842[ebp], 0
	je	SHORT $LN44@updateVisi
	mov	ecx, DWORD PTR $T230842[ebp]
	mov	DWORD PTR _inst$230846[ebp], ecx
	mov	edx, DWORD PTR _inst$230846[ebp]
	mov	eax, DWORD PTR [edx]
	mov	ecx, DWORD PTR _inst$230846[ebp]
	push	ecx
	mov	edx, DWORD PTR [eax+4]
	call	edx
$LN44@updateVisi:
$LN42@updateVisi:

; 607  : 			}
; 608  : 		}

	jmp	$LN12@updateVisi
$LN11@updateVisi:

; 609  : 
; 610  : 		// Must update the other layers as well
; 611  : 		CvPlotManager& kPlotManager = GC.getMap().plotManager();

	mov	eax, DWORD PTR ?gGlobals@@3VCvGlobals@@A+52
	mov	DWORD PTR $T230851[ebp], eax
	mov	ecx, DWORD PTR $T230851[ebp]
	add	ecx, 4184				; 00001058H
	mov	DWORD PTR _kPlotManager$222096[ebp], ecx

; 612  : 		int iNumLayers = kPlotManager.GetNumLayers();

	mov	ecx, DWORD PTR _kPlotManager$222096[ebp]
	call	?GetNumLayers@CvPlotManager@@QBEHXZ	; CvPlotManager::GetNumLayers
	mov	DWORD PTR _iNumLayers$222097[ebp], eax

; 613  : 		for (int iLayer = 0; iLayer < iNumLayers; ++iLayer)

	mov	DWORD PTR _iLayer$222098[ebp], 0
	jmp	SHORT $LN8@updateVisi
$LN7@updateVisi:
	mov	edx, DWORD PTR _iLayer$222098[ebp]
	add	edx, 1
	mov	DWORD PTR _iLayer$222098[ebp], edx
$LN8@updateVisi:
	mov	eax, DWORD PTR _iLayer$222098[ebp]
	cmp	eax, DWORD PTR _iNumLayers$222097[ebp]
	jge	$LN6@updateVisi

; 614  : 		{	
; 615  : 			const CvIDInfoFixedVector &kUnits = kPlotManager.GetUnitsByIndex(m_iX, m_iY, iLayer);

	mov	ecx, DWORD PTR _iLayer$222098[ebp]
	push	ecx
	mov	edx, DWORD PTR _this$[ebp]
	movsx	eax, WORD PTR [edx+2]
	push	eax
	mov	ecx, DWORD PTR _this$[ebp]
	movsx	edx, WORD PTR [ecx]
	push	edx
	mov	ecx, DWORD PTR _kPlotManager$222096[ebp]
	call	?GetUnitsByIndex@CvPlotManager@@QBEABVCvIDInfoFixedVector@@HHH@Z ; CvPlotManager::GetUnitsByIndex
	mov	DWORD PTR _kUnits$222102[ebp], eax

; 616  : 			for (CvIDInfoFixedVector::const_iterator itrUnit = kUnits.begin(); itrUnit != kUnits.end(); ++itrUnit)

	mov	eax, DWORD PTR _kUnits$222102[ebp]
	mov	ecx, DWORD PTR [eax]
	mov	DWORD PTR _itrUnit$222103[ebp], ecx
	jmp	SHORT $LN5@updateVisi
$LN4@updateVisi:
	mov	edx, DWORD PTR _itrUnit$222103[ebp]
	add	edx, 8
	mov	DWORD PTR _itrUnit$222103[ebp], edx
$LN5@updateVisi:
	mov	eax, DWORD PTR _kUnits$222102[ebp]
	mov	ecx, DWORD PTR [eax+4]
	mov	edx, DWORD PTR _kUnits$222102[ebp]
	mov	eax, DWORD PTR [edx]
	lea	ecx, DWORD PTR [eax+ecx*8]
	cmp	DWORD PTR _itrUnit$222103[ebp], ecx
	je	$LN3@updateVisi

; 617  : 			{
; 618  : 				CvUnit* pLoopUnit = ::getUnit(*itrUnit);

	mov	edx, DWORD PTR _itrUnit$222103[ebp]
	push	edx
	call	?getUnit@@YAPAVCvUnit@@ABUIDInfo@@@Z	; getUnit
	add	esp, 4
	mov	DWORD PTR _pLoopUnit$222107[ebp], eax

; 619  : 				if (pLoopUnit)

	cmp	DWORD PTR _pLoopUnit$222107[ebp], 0
	je	$LN61@updateVisi

; 620  : 				{
; 621  : 					InvisibleTypes eInvisibleType = pLoopUnit->getInvisibleType();

	mov	ecx, DWORD PTR _pLoopUnit$222107[ebp]
	call	?getInvisibleType@CvUnit@@QBE?BW4InvisibleTypes@@XZ ; CvUnit::getInvisibleType
	mov	DWORD PTR _eInvisibleType$222109[ebp], eax

; 622  : 					if (eInvisibleType != NO_INVISIBLE)

	cmp	DWORD PTR _eInvisibleType$222109[ebp], -1
	je	$LN61@updateVisi

; 623  : 					{
; 624  : 						// This unit has visibility rules, send a message that it needs to update itself.
; 625  : 						auto_ptr<ICvUnit1> pDllUnit(new CvDllUnit(pLoopUnit));

	push	12					; 0000000cH
	call	??2CvDllUnit@@SAPAXI@Z			; CvDllUnit::operator new
	add	esp, 4
	mov	DWORD PTR $T230802[ebp], eax
	mov	DWORD PTR __$EHRec$[ebp+8], 2
	cmp	DWORD PTR $T230802[ebp], 0
	je	SHORT $LN21@updateVisi
	mov	eax, DWORD PTR _pLoopUnit$222107[ebp]
	push	eax
	mov	ecx, DWORD PTR $T230802[ebp]
	call	??0CvDllUnit@@QAE@PAVCvUnit@@@Z		; CvDllUnit::CvDllUnit
	mov	DWORD PTR tv208[ebp], eax
	jmp	SHORT $LN22@updateVisi
$LN21@updateVisi:
	mov	DWORD PTR tv208[ebp], 0
$LN22@updateVisi:
	mov	ecx, DWORD PTR tv208[ebp]
	mov	DWORD PTR $T230801[ebp], ecx
	mov	DWORD PTR __$EHRec$[ebp+8], -1
	mov	edx, DWORD PTR $T230801[ebp]
	mov	DWORD PTR _pDllUnit$222116[ebp], edx
	mov	DWORD PTR __$EHRec$[ebp+8], 3

; 626  : 						gDLL->GameplayUnitVisibility(pDllUnit.get(), (pLoopUnit->getTeam() == eActiveTeam)?true:isInvisibleVisible(eActiveTeam, eInvisibleType), true, 0.01f);

	mov	ecx, DWORD PTR _pLoopUnit$222107[ebp]
	call	?getTeam@CvUnit@@QBE?AW4TeamTypes@@XZ	; CvUnit::getTeam
	cmp	eax, DWORD PTR _eActiveTeam$[ebp]
	jne	SHORT $LN23@updateVisi
	mov	BYTE PTR tv230[ebp], 1
	jmp	SHORT $LN24@updateVisi
$LN23@updateVisi:
	mov	eax, DWORD PTR _eInvisibleType$222109[ebp]
	push	eax
	mov	ecx, DWORD PTR _eActiveTeam$[ebp]
	push	ecx
	mov	ecx, DWORD PTR _this$[ebp]
	call	?isInvisibleVisible@CvPlot@@QBE_NW4TeamTypes@@W4InvisibleTypes@@@Z ; CvPlot::isInvisibleVisible
	mov	BYTE PTR tv230[ebp], al
$LN24@updateVisi:
	mov	edx, DWORD PTR $T230867[ebp]
	mov	DWORD PTR tv218[ebp], edx
	mov	eax, DWORD PTR ?gGlobals@@3VCvGlobals@@A+8564
	mov	DWORD PTR tv218[ebp], eax
	push	ecx
	fld	DWORD PTR __real@3c23d70a
	fstp	DWORD PTR [esp]
	push	1
	movzx	ecx, BYTE PTR tv230[ebp]
	push	ecx
	mov	edx, DWORD PTR _pDllUnit$222116[ebp]
	push	edx
	mov	eax, DWORD PTR tv218[ebp]
	mov	edx, DWORD PTR [eax]
	mov	ecx, DWORD PTR tv218[ebp]
	mov	eax, DWORD PTR [edx+640]
	call	eax

; 627  : 					}

	mov	DWORD PTR __$EHRec$[ebp+8], -1
	mov	ecx, DWORD PTR _pDllUnit$222116[ebp]
	mov	DWORD PTR $T230879[ebp], ecx
	cmp	DWORD PTR $T230879[ebp], 0
	je	SHORT $LN63@updateVisi
	mov	edx, DWORD PTR $T230879[ebp]
	mov	DWORD PTR _inst$230883[ebp], edx
	mov	eax, DWORD PTR _inst$230883[ebp]
	mov	ecx, DWORD PTR [eax]
	mov	edx, DWORD PTR _inst$230883[ebp]
	push	edx
	mov	eax, DWORD PTR [ecx+4]
	call	eax
$LN63@updateVisi:
$LN61@updateVisi:

; 628  : 				}
; 629  : 			}

	jmp	$LN4@updateVisi
$LN3@updateVisi:

; 630  : 		}

	jmp	$LN7@updateVisi
$LN6@updateVisi:
$LN15@updateVisi:

; 631  : 	}
; 632  : }

	mov	ecx, DWORD PTR __$EHRec$[ebp]
	mov	DWORD PTR fs:0, ecx
	pop	ecx
	mov	esp, ebp
	pop	ebp
	ret	0
_TEXT	ENDS
;	COMDAT text$x
text$x	SEGMENT
__unwindfunclet$?updateVisibility@CvPlot@@QAEXXZ$0:
	mov	eax, DWORD PTR $T230796[ebp]
	push	eax
	call	??3CvDllUnit@@SAXPAX@Z			; CvDllUnit::operator delete
	pop	ecx
	ret	0
__unwindfunclet$?updateVisibility@CvPlot@@QAEXXZ$1:
	lea	ecx, DWORD PTR _pDllUnit$222086[ebp]
	jmp	??1?$auto_ptr@VICvUnit1@@@std@@QAE@XZ	; std::auto_ptr<ICvUnit1>::~auto_ptr<ICvUnit1>
__unwindfunclet$?updateVisibility@CvPlot@@QAEXXZ$2:
	mov	eax, DWORD PTR $T230802[ebp]
	push	eax
	call	??3CvDllUnit@@SAXPAX@Z			; CvDllUnit::operator delete
	pop	ecx
	ret	0
__unwindfunclet$?updateVisibility@CvPlot@@QAEXXZ$3:
	lea	ecx, DWORD PTR _pDllUnit$222116[ebp]
	jmp	??1?$auto_ptr@VICvUnit1@@@std@@QAE@XZ	; std::auto_ptr<ICvUnit1>::~auto_ptr<ICvUnit1>
__ehhandler$?updateVisibility@CvPlot@@QAEXXZ:
	mov	edx, DWORD PTR [esp+8]
	lea	eax, DWORD PTR [edx+12]
	mov	ecx, DWORD PTR [edx-136]
	xor	ecx, eax
	call	@__security_check_cookie@4
	mov	eax, OFFSET __ehfuncinfo$?updateVisibility@CvPlot@@QAEXXZ
	jmp	___CxxFrameHandler3
text$x	ENDS
?updateVisibility@CvPlot@@QAEXXZ ENDP			; CvPlot::updateVisibility
PUBLIC	??1?$auto_ptr@VICvPlot1@@@std@@QAE@XZ		; std::auto_ptr<ICvPlot1>::~auto_ptr<ICvPlot1>
EXTRN	??3CvDllPlot@@SAXPAX@Z:PROC			; CvDllPlot::operator delete
EXTRN	??0CvDllPlot@@QAE@PAVCvPlot@@@Z:PROC		; CvDllPlot::CvDllPlot
EXTRN	??2CvDllPlot@@SAPAXI@Z:PROC			; CvDllPlot::operator new
;	COMDAT xdata$x
; File d:\sources\lekmod_git\checkout\lekmod_dll\cvgamecoredllutil\include\cvdllinterfaces.h
xdata$x	SEGMENT
__unwindtable$?updateSymbols@CvPlot@@QAEXXZ DD 0ffffffffH
	DD	FLAT:__unwindfunclet$?updateSymbols@CvPlot@@QAEXXZ$0
	DD	0ffffffffH
	DD	FLAT:__unwindfunclet$?updateSymbols@CvPlot@@QAEXXZ$1
__ehfuncinfo$?updateSymbols@CvPlot@@QAEXXZ DD 019930522H
	DD	02H
	DD	FLAT:__unwindtable$?updateSymbols@CvPlot@@QAEXXZ
	DD	2 DUP(00H)
	DD	2 DUP(00H)
	DD	00H
	DD	01H
; Function compile flags: /Odtp
; File d:\sources\lekmod_git\checkout\lekmod_dll\cvgamecoredll_expansion2\cvplot.cpp
xdata$x	ENDS
;	COMDAT ?updateSymbols@CvPlot@@QAEXXZ
_TEXT	SEGMENT
tv87 = -48						; size = 4
tv77 = -44						; size = 4
_this$ = -40						; size = 4
_inst$230924 = -36					; size = 4
$T230920 = -32						; size = 4
$T230908 = -28						; size = 4
$T230897 = -24						; size = 4
$T230896 = -20						; size = 4
_pDllPlot$ = -16					; size = 4
__$EHRec$ = -12						; size = 12
?updateSymbols@CvPlot@@QAEXXZ PROC			; CvPlot::updateSymbols, COMDAT
; _this$ = ecx

; 636  : {

	push	ebp
	mov	ebp, esp
	push	-1
	push	__ehhandler$?updateSymbols@CvPlot@@QAEXXZ
	mov	eax, DWORD PTR fs:0
	push	eax
	sub	esp, 36					; 00000024H
	mov	eax, DWORD PTR ___security_cookie
	xor	eax, ebp
	push	eax
	lea	eax, DWORD PTR __$EHRec$[ebp]
	mov	DWORD PTR fs:0, eax
	mov	DWORD PTR _this$[ebp], ecx

; 637  : 	auto_ptr<ICvPlot1> pDllPlot(new CvDllPlot(this));

	push	12					; 0000000cH
	call	??2CvDllPlot@@SAPAXI@Z			; CvDllPlot::operator new
	add	esp, 4
	mov	DWORD PTR $T230897[ebp], eax
	mov	DWORD PTR __$EHRec$[ebp+8], 0
	cmp	DWORD PTR $T230897[ebp], 0
	je	SHORT $LN3@updateSymb
	mov	eax, DWORD PTR _this$[ebp]
	push	eax
	mov	ecx, DWORD PTR $T230897[ebp]
	call	??0CvDllPlot@@QAE@PAVCvPlot@@@Z		; CvDllPlot::CvDllPlot
	mov	DWORD PTR tv77[ebp], eax
	jmp	SHORT $LN4@updateSymb
$LN3@updateSymb:
	mov	DWORD PTR tv77[ebp], 0
$LN4@updateSymb:
	mov	ecx, DWORD PTR tv77[ebp]
	mov	DWORD PTR $T230896[ebp], ecx
	mov	DWORD PTR __$EHRec$[ebp+8], -1
	mov	edx, DWORD PTR $T230896[ebp]
	mov	DWORD PTR _pDllPlot$[ebp], edx
	mov	DWORD PTR __$EHRec$[ebp+8], 1

; 638  : 	gDLL->GameplayYieldMightHaveChanged(pDllPlot.get());

	mov	eax, DWORD PTR $T230908[ebp]
	mov	DWORD PTR tv87[ebp], eax
	mov	ecx, DWORD PTR ?gGlobals@@3VCvGlobals@@A+8564
	mov	DWORD PTR tv87[ebp], ecx
	mov	edx, DWORD PTR _pDllPlot$[ebp]
	push	edx
	mov	eax, DWORD PTR tv87[ebp]
	mov	edx, DWORD PTR [eax]
	mov	ecx, DWORD PTR tv87[ebp]
	mov	eax, DWORD PTR [edx+716]
	call	eax

; 639  : }

	mov	DWORD PTR __$EHRec$[ebp+8], -1
	mov	ecx, DWORD PTR _pDllPlot$[ebp]
	mov	DWORD PTR $T230920[ebp], ecx
	cmp	DWORD PTR $T230920[ebp], 0
	je	SHORT $LN1@updateSymb
	mov	edx, DWORD PTR $T230920[ebp]
	mov	DWORD PTR _inst$230924[ebp], edx
	mov	eax, DWORD PTR _inst$230924[ebp]
	mov	ecx, DWORD PTR [eax]
	mov	edx, DWORD PTR _inst$230924[ebp]
	push	edx
	mov	eax, DWORD PTR [ecx+4]
	call	eax
$LN1@updateSymb:
	mov	ecx, DWORD PTR __$EHRec$[ebp]
	mov	DWORD PTR fs:0, ecx
	pop	ecx
	mov	esp, ebp
	pop	ebp
	ret	0
_TEXT	ENDS
;	COMDAT text$x
text$x	SEGMENT
__unwindfunclet$?updateSymbols@CvPlot@@QAEXXZ$0:
	mov	eax, DWORD PTR $T230897[ebp]
	push	eax
	call	??3CvDllPlot@@SAXPAX@Z			; CvDllPlot::operator delete
	pop	ecx
	ret	0
__unwindfunclet$?updateSymbols@CvPlot@@QAEXXZ$1:
	lea	ecx, DWORD PTR _pDllPlot$[ebp]
	jmp	??1?$auto_ptr@VICvPlot1@@@std@@QAE@XZ	; std::auto_ptr<ICvPlot1>::~auto_ptr<ICvPlot1>
__ehhandler$?updateSymbols@CvPlot@@QAEXXZ:
	mov	edx, DWORD PTR [esp+8]
	lea	eax, DWORD PTR [edx+12]
	mov	ecx, DWORD PTR [edx-40]
	xor	ecx, eax
	call	@__security_check_cookie@4
	mov	eax, OFFSET __ehfuncinfo$?updateSymbols@CvPlot@@QAEXXZ
	jmp	___CxxFrameHandler3
text$x	ENDS
?updateSymbols@CvPlot@@QAEXXZ ENDP			; CvPlot::updateSymbols
PUBLIC	?getBestDefender@CvPlot@@QAE?AV?$FObjectHandle@VCvUnit@@@@W4PlayerTypes@@0PBVCvUnit@@_N222@Z ; CvPlot::getBestDefender
PUBLIC	?getCenterUnit@CvPlot@@QAE?AV?$FObjectHandle@VCvUnit@@@@XZ ; CvPlot::getCenterUnit
PUBLIC	?getSelectedUnit@CvPlot@@QAEPAVCvUnit@@XZ	; CvPlot::getSelectedUnit
PUBLIC	?setCenterUnit@CvPlot@@QAEXV?$FObjectHandle@VCvUnit@@@@@Z ; CvPlot::setCenterUnit
PUBLIC	?isActiveVisible@CvPlot@@QBE_N_N@Z		; CvPlot::isActiveVisible
PUBLIC	?updateCenterUnit@CvPlot@@QAEXXZ		; CvPlot::updateCenterUnit
EXTRN	?IsGarrisoned@CvUnit@@QBE_NXZ:PROC		; CvUnit::IsGarrisoned
EXTRN	?isInvisible@CvUnit@@QBE_NW4TeamTypes@@_N1@Z:PROC ; CvUnit::isInvisible
EXTRN	?getDomainType@CvUnit@@QBE?AW4DomainTypes@@XZ:PROC ; CvUnit::getDomainType
;	COMDAT xdata$x
; File d:\sources\lekmod_git\checkout\lekmod_dll\cvgamecoredllutil\include\cvdllinterfaces.h
xdata$x	SEGMENT
__unwindtable$?updateCenterUnit@CvPlot@@QAEXXZ DD 0ffffffffH
	DD	FLAT:__unwindfunclet$?updateCenterUnit@CvPlot@@QAEXXZ$3
	DD	0ffffffffH
	DD	FLAT:__unwindfunclet$?updateCenterUnit@CvPlot@@QAEXXZ$8
	DD	0ffffffffH
	DD	FLAT:__unwindfunclet$?updateCenterUnit@CvPlot@@QAEXXZ$9
__ehfuncinfo$?updateCenterUnit@CvPlot@@QAEXXZ DD 019930522H
	DD	03H
	DD	FLAT:__unwindtable$?updateCenterUnit@CvPlot@@QAEXXZ
	DD	2 DUP(00H)
	DD	2 DUP(00H)
	DD	00H
	DD	01H
; Function compile flags: /Odtp
; File d:\sources\lekmod_git\checkout\lekmod_dll\cvgamecoredll_expansion2\cvplot.cpp
xdata$x	ENDS
;	COMDAT ?updateCenterUnit@CvPlot@@QAEXXZ
_TEXT	SEGMENT
tv298 = -208						; size = 4
tv282 = -204						; size = 4
tv271 = -200						; size = 4
tv400 = -196						; size = 4
tv319 = -192						; size = 4
tv349 = -188						; size = 4
tv315 = -184						; size = 4
tv310 = -180						; size = 4
tv308 = -176						; size = 4
_this$ = -172						; size = 4
_inst$231112 = -168					; size = 4
$T231108 = -164						; size = 4
$T231096 = -160						; size = 4
$T231089 = -156						; size = 4
$T231064 = -152						; size = 4
$T231060 = -148						; size = 4
$T231032 = -144						; size = 4
$T231019 = -140						; size = 4
$T231009 = -136						; size = 4
$T231005 = -132						; size = 4
$T230998 = -128						; size = 4
$T230985 = -124						; size = 4
$T230981 = -120						; size = 4
$T230977 = -116						; size = 4
$T230976 = -112						; size = 4
$T230966 = -108						; size = 4
$T230944 = -104						; size = 4
$T230943 = -100						; size = 4
$T230942 = -96						; size = 8
$T230941 = -88						; size = 4
$T230940 = -84						; size = 8
$T230939 = -73						; size = 1
$T230938 = -72						; size = 4
$T230937 = -68						; size = 8
$T230936 = -57						; size = 1
$T230935 = -56						; size = 4
$T230934 = -52						; size = 4
_pDllUnit$222217 = -48					; size = 4
_pUnitNode$222199 = -44					; size = 4
_pLoopUnit$222200 = -40					; size = 4
_hBestDefender$222192 = -36				; size = 8
_eActiveTeam$ = -28					; size = 4
_pUnitNode$ = -24					; size = 4
_pLoopUnit$ = -20					; size = 4
_pCenterUnit$ = -16					; size = 4
__$EHRec$ = -12						; size = 12
?updateCenterUnit@CvPlot@@QAEXXZ PROC			; CvPlot::updateCenterUnit, COMDAT
; _this$ = ecx

; 644  : {

	push	ebp
	mov	ebp, esp
	push	-1
	push	__ehhandler$?updateCenterUnit@CvPlot@@QAEXXZ
	mov	eax, DWORD PTR fs:0
	push	eax
	sub	esp, 196				; 000000c4H
	mov	eax, DWORD PTR ___security_cookie
	xor	eax, ebp
	push	eax
	lea	eax, DWORD PTR __$EHRec$[ebp]
	mov	DWORD PTR fs:0, eax
	mov	DWORD PTR _this$[ebp], ecx

; 645  : 	if(!GC.IsGraphicsInitialized())

	mov	ecx, OFFSET ?gGlobals@@3VCvGlobals@@A	; gGlobals
	call	?IsGraphicsInitialized@CvGlobals@@QBE_NXZ ; CvGlobals::IsGraphicsInitialized
	movzx	eax, al
	test	eax, eax
	jne	SHORT $LN12@updateCent

; 646  : 	{
; 647  : 		return;

	jmp	$LN13@updateCent
$LN12@updateCent:

; 648  : 	}
; 649  : 
; 650  : 	if(!isActiveVisible(true))

	push	1
	mov	ecx, DWORD PTR _this$[ebp]
	call	?isActiveVisible@CvPlot@@QBE_N_N@Z	; CvPlot::isActiveVisible
	movzx	ecx, al
	test	ecx, ecx
	jne	SHORT $LN11@updateCent

; 651  : 	{
; 652  : 		setCenterUnit(NULL);

	sub	esp, 8
	mov	edx, esp
	mov	DWORD PTR $T230934[ebp], esp
	mov	DWORD PTR $T230966[ebp], edx
	mov	eax, DWORD PTR $T230966[ebp]
	mov	DWORD PTR [eax], 0
	mov	ecx, DWORD PTR $T230966[ebp]
	mov	BYTE PTR [ecx+4], 0
	mov	edx, DWORD PTR $T230966[ebp]
	cmp	DWORD PTR [edx], 0
	je	SHORT $LN30@updateCent
	mov	eax, DWORD PTR $T230966[ebp]
	mov	ecx, DWORD PTR [eax]
	call	?getDestructionNotification@CvUnit@@QAEAAU?$DestructionNotification@V?$FObjectHandle@VCvUnit@@@@@@XZ ; CvUnit::getDestructionNotification
$LN30@updateCent:
	mov	ecx, DWORD PTR $T230966[ebp]
	mov	DWORD PTR tv308[ebp], ecx
	mov	ecx, DWORD PTR _this$[ebp]
	call	?setCenterUnit@CvPlot@@QAEXV?$FObjectHandle@VCvUnit@@@@@Z ; CvPlot::setCenterUnit

; 653  : 		return;

	jmp	$LN13@updateCent
$LN11@updateCent:

; 654  : 	}
; 655  : 
; 656  : 	setCenterUnit(getSelectedUnit());

	mov	ecx, DWORD PTR _this$[ebp]
	call	?getSelectedUnit@CvPlot@@QAEPAVCvUnit@@XZ ; CvPlot::getSelectedUnit
	mov	DWORD PTR $T230977[ebp], eax
	sub	esp, 8
	mov	edx, esp
	mov	DWORD PTR $T230935[ebp], esp
	mov	DWORD PTR $T230976[ebp], edx
	mov	eax, DWORD PTR $T230976[ebp]
	mov	ecx, DWORD PTR $T230977[ebp]
	mov	DWORD PTR [eax], ecx
	mov	edx, DWORD PTR $T230976[ebp]
	mov	BYTE PTR [edx+4], 0
	mov	eax, DWORD PTR $T230976[ebp]
	cmp	DWORD PTR [eax], 0
	je	SHORT $LN35@updateCent
	mov	ecx, DWORD PTR $T230976[ebp]
	mov	ecx, DWORD PTR [ecx]
	call	?getDestructionNotification@CvUnit@@QAEAAU?$DestructionNotification@V?$FObjectHandle@VCvUnit@@@@@@XZ ; CvUnit::getDestructionNotification
$LN35@updateCent:
	mov	edx, DWORD PTR $T230976[ebp]
	mov	DWORD PTR tv310[ebp], edx
	mov	ecx, DWORD PTR _this$[ebp]
	call	?setCenterUnit@CvPlot@@QAEXV?$FObjectHandle@VCvUnit@@@@@Z ; CvPlot::setCenterUnit

; 657  : 
; 658  : 	TeamTypes eActiveTeam = GC.getGame().getActiveTeam();

	mov	eax, DWORD PTR ?gGlobals@@3VCvGlobals@@A+48
	mov	DWORD PTR $T230981[ebp], eax
	mov	ecx, DWORD PTR $T230981[ebp]
	call	?getActiveTeam@CvGame@@QAE?AW4TeamTypes@@XZ ; CvGame::getActiveTeam
	mov	DWORD PTR _eActiveTeam$[ebp], eax

; 659  : 
; 660  : 	if(!getCenterUnit())

	lea	ecx, DWORD PTR $T230937[ebp]
	push	ecx
	mov	ecx, DWORD PTR _this$[ebp]
	call	?getCenterUnit@CvPlot@@QAE?AV?$FObjectHandle@VCvUnit@@@@XZ ; CvPlot::getCenterUnit
	mov	DWORD PTR $T230985[ebp], eax
	mov	edx, DWORD PTR $T230985[ebp]
	xor	eax, eax
	cmp	DWORD PTR [edx], 0
	sete	al
	mov	BYTE PTR $T230936[ebp], al
	cmp	DWORD PTR $T230937[ebp], 0
	je	SHORT $LN44@updateCent
	mov	ecx, DWORD PTR $T230937[ebp]
	call	?getDestructionNotification@CvUnit@@QAEAAU?$DestructionNotification@V?$FObjectHandle@VCvUnit@@@@@@XZ ; CvUnit::getDestructionNotification
$LN44@updateCent:
	movzx	ecx, BYTE PTR $T230936[ebp]
	test	ecx, ecx
	je	$LN60@updateCent

; 661  : 	{
; 662  : 		UnitHandle hBestDefender = getBestDefender(NO_PLAYER, GC.getGame().getActivePlayer());

	mov	edx, DWORD PTR ?gGlobals@@3VCvGlobals@@A+48
	mov	DWORD PTR $T230998[ebp], edx
	push	0
	push	0
	push	0
	push	0
	push	0
	mov	ecx, DWORD PTR $T230998[ebp]
	call	?getActivePlayer@CvGame@@QBE?AW4PlayerTypes@@XZ ; CvGame::getActivePlayer
	push	eax
	push	-1
	lea	eax, DWORD PTR _hBestDefender$222192[ebp]
	push	eax
	mov	ecx, DWORD PTR _this$[ebp]
	call	?getBestDefender@CvPlot@@QAE?AV?$FObjectHandle@VCvUnit@@@@W4PlayerTypes@@0PBVCvUnit@@_N222@Z ; CvPlot::getBestDefender
	mov	DWORD PTR __$EHRec$[ebp+8], 0

; 663  : 		if(hBestDefender && hBestDefender->getDomainType() != DOMAIN_AIR && !hBestDefender->isInvisible(eActiveTeam,false))

	xor	ecx, ecx
	cmp	DWORD PTR _hBestDefender$222192[ebp], 0
	setne	cl
	movzx	edx, cl
	test	edx, edx
	je	$LN9@updateCent
	mov	eax, DWORD PTR _hBestDefender$222192[ebp]
	mov	DWORD PTR $T231005[ebp], eax
	mov	ecx, DWORD PTR $T231005[ebp]
	call	?getDomainType@CvUnit@@QBE?AW4DomainTypes@@XZ ; CvUnit::getDomainType
	cmp	eax, 1
	je	SHORT $LN9@updateCent
	mov	ecx, DWORD PTR _hBestDefender$222192[ebp]
	mov	DWORD PTR $T231009[ebp], ecx
	push	1
	push	0
	mov	edx, DWORD PTR _eActiveTeam$[ebp]
	push	edx
	mov	ecx, DWORD PTR $T231009[ebp]
	call	?isInvisible@CvUnit@@QBE_NW4TeamTypes@@_N1@Z ; CvUnit::isInvisible
	movzx	eax, al
	test	eax, eax
	jne	SHORT $LN9@updateCent

; 664  : 			setCenterUnit(hBestDefender);

	sub	esp, 8
	mov	ecx, esp
	mov	DWORD PTR $T230938[ebp], esp
	mov	DWORD PTR $T231019[ebp], ecx
	mov	edx, DWORD PTR $T231019[ebp]
	mov	eax, DWORD PTR _hBestDefender$222192[ebp]
	mov	DWORD PTR [edx], eax
	mov	ecx, DWORD PTR $T231019[ebp]
	mov	dl, BYTE PTR _hBestDefender$222192[ebp+4]
	mov	BYTE PTR [ecx+4], dl
	mov	eax, DWORD PTR $T231019[ebp]
	cmp	DWORD PTR [eax], 0
	je	SHORT $LN57@updateCent
	mov	ecx, DWORD PTR $T231019[ebp]
	mov	ecx, DWORD PTR [ecx]
	call	?getDestructionNotification@CvUnit@@QAEAAU?$DestructionNotification@V?$FObjectHandle@VCvUnit@@@@@@XZ ; CvUnit::getDestructionNotification
$LN57@updateCent:
	mov	edx, DWORD PTR $T231019[ebp]
	mov	DWORD PTR tv315[ebp], edx
	mov	ecx, DWORD PTR _this$[ebp]
	call	?setCenterUnit@CvPlot@@QAEXV?$FObjectHandle@VCvUnit@@@@@Z ; CvPlot::setCenterUnit
$LN9@updateCent:

; 665  : 	}

	mov	DWORD PTR __$EHRec$[ebp+8], -1
	cmp	DWORD PTR _hBestDefender$222192[ebp], 0
	je	SHORT $LN62@updateCent
	mov	ecx, DWORD PTR _hBestDefender$222192[ebp]
	call	?getDestructionNotification@CvUnit@@QAEAAU?$DestructionNotification@V?$FObjectHandle@VCvUnit@@@@@@XZ ; CvUnit::getDestructionNotification
$LN62@updateCent:
$LN60@updateCent:

; 666  : 
; 667  : 	// okay, all of the other checks failed - if there is any unit here, make it the center unit
; 668  : 	if(!getCenterUnit())

	lea	eax, DWORD PTR $T230940[ebp]
	push	eax
	mov	ecx, DWORD PTR _this$[ebp]
	call	?getCenterUnit@CvPlot@@QAE?AV?$FObjectHandle@VCvUnit@@@@XZ ; CvPlot::getCenterUnit
	mov	DWORD PTR $T231032[ebp], eax
	mov	ecx, DWORD PTR $T231032[ebp]
	xor	edx, edx
	cmp	DWORD PTR [ecx], 0
	sete	dl
	mov	BYTE PTR $T230939[ebp], dl
	cmp	DWORD PTR $T230940[ebp], 0
	je	SHORT $LN69@updateCent
	mov	ecx, DWORD PTR $T230940[ebp]
	call	?getDestructionNotification@CvUnit@@QAEAAU?$DestructionNotification@V?$FObjectHandle@VCvUnit@@@@@@XZ ; CvUnit::getDestructionNotification
$LN69@updateCent:
	movzx	eax, BYTE PTR $T230939[ebp]
	test	eax, eax
	je	$LN6@updateCent

; 669  : 	{
; 670  : 		IDInfo* pUnitNode;
; 671  : 		CvUnit* pLoopUnit;
; 672  : 
; 673  : 		pUnitNode = headUnitNode();

	mov	ecx, DWORD PTR _this$[ebp]
	call	?headUnitNode@CvPlot@@QAEPAUIDInfo@@XZ	; CvPlot::headUnitNode
	mov	DWORD PTR _pUnitNode$222199[ebp], eax

; 674  : 
; 675  : 		if(pUnitNode != NULL)

	cmp	DWORD PTR _pUnitNode$222199[ebp], 0
	je	$LN6@updateCent

; 676  : 		{
; 677  : 			pLoopUnit = GetPlayerUnit(*pUnitNode);

	mov	ecx, DWORD PTR _pUnitNode$222199[ebp]
	cmp	DWORD PTR [ecx], 0
	jl	SHORT $LN71@updateCent
	mov	edx, DWORD PTR _pUnitNode$222199[ebp]
	cmp	DWORD PTR [edx], 64			; 00000040H
	jge	SHORT $LN71@updateCent
	mov	eax, DWORD PTR _pUnitNode$222199[ebp]
	mov	ecx, DWORD PTR [eax]
	imul	ecx, 63236				; 0000f704H
	mov	edx, DWORD PTR ?m_aPlayers@CvPlayerAI@@1PAV1@A ; CvPlayerAI::m_aPlayers
	lea	eax, DWORD PTR [edx+ecx+4472]
	mov	DWORD PTR tv349[ebp], eax
	mov	ecx, DWORD PTR _pUnitNode$222199[ebp]
	mov	edx, DWORD PTR [ecx+4]
	push	edx
	mov	eax, DWORD PTR tv349[ebp]
	mov	edx, DWORD PTR [eax]
	mov	ecx, DWORD PTR tv349[ebp]
	mov	eax, DWORD PTR [edx+16]
	call	eax
	mov	DWORD PTR _pLoopUnit$222200[ebp], eax
	jmp	SHORT $LN72@updateCent
$LN71@updateCent:
	mov	DWORD PTR _pLoopUnit$222200[ebp], 0
$LN72@updateCent:

; 678  : 			if(pLoopUnit && !pLoopUnit->IsGarrisoned() && pLoopUnit->getDomainType() != DOMAIN_AIR && !pLoopUnit->isInvisible(eActiveTeam,false))

	cmp	DWORD PTR _pLoopUnit$222200[ebp], 0
	je	$LN6@updateCent
	mov	ecx, DWORD PTR _pLoopUnit$222200[ebp]
	call	?IsGarrisoned@CvUnit@@QBE_NXZ		; CvUnit::IsGarrisoned
	movzx	ecx, al
	test	ecx, ecx
	jne	SHORT $LN6@updateCent
	mov	ecx, DWORD PTR _pLoopUnit$222200[ebp]
	call	?getDomainType@CvUnit@@QBE?AW4DomainTypes@@XZ ; CvUnit::getDomainType
	cmp	eax, 1
	je	SHORT $LN6@updateCent
	push	1
	push	0
	mov	edx, DWORD PTR _eActiveTeam$[ebp]
	push	edx
	mov	ecx, DWORD PTR _pLoopUnit$222200[ebp]
	call	?isInvisible@CvUnit@@QBE_NW4TeamTypes@@_N1@Z ; CvUnit::isInvisible
	movzx	eax, al
	test	eax, eax
	jne	SHORT $LN6@updateCent

; 679  : 			{
; 680  : 				setCenterUnit(pLoopUnit);

	sub	esp, 8
	mov	ecx, esp
	mov	DWORD PTR $T230941[ebp], esp
	mov	DWORD PTR $T231060[ebp], ecx
	mov	edx, DWORD PTR $T231060[ebp]
	mov	eax, DWORD PTR _pLoopUnit$222200[ebp]
	mov	DWORD PTR [edx], eax
	mov	ecx, DWORD PTR $T231060[ebp]
	mov	BYTE PTR [ecx+4], 0
	mov	edx, DWORD PTR $T231060[ebp]
	cmp	DWORD PTR [edx], 0
	je	SHORT $LN79@updateCent
	mov	eax, DWORD PTR $T231060[ebp]
	mov	ecx, DWORD PTR [eax]
	call	?getDestructionNotification@CvUnit@@QAEAAU?$DestructionNotification@V?$FObjectHandle@VCvUnit@@@@@@XZ ; CvUnit::getDestructionNotification
$LN79@updateCent:
	mov	ecx, DWORD PTR $T231060[ebp]
	mov	DWORD PTR tv319[ebp], ecx
	mov	ecx, DWORD PTR _this$[ebp]
	call	?setCenterUnit@CvPlot@@QAEXV?$FObjectHandle@VCvUnit@@@@@Z ; CvPlot::setCenterUnit
$LN6@updateCent:

; 681  : 			}
; 682  : 		}
; 683  : 	}
; 684  : 
; 685  : 	IDInfo* pUnitNode;
; 686  : 	CvUnit* pLoopUnit;
; 687  : 	CvUnit* pCenterUnit = getCenterUnit().pointer();

	lea	edx, DWORD PTR $T230942[ebp]
	push	edx
	mov	ecx, DWORD PTR _this$[ebp]
	call	?getCenterUnit@CvPlot@@QAE?AV?$FObjectHandle@VCvUnit@@@@XZ ; CvPlot::getCenterUnit
	mov	DWORD PTR $T231064[ebp], eax
	mov	eax, DWORD PTR $T231064[ebp]
	mov	ecx, DWORD PTR [eax]
	mov	DWORD PTR _pCenterUnit$[ebp], ecx
	cmp	DWORD PTR $T230942[ebp], 0
	je	SHORT $LN86@updateCent
	mov	ecx, DWORD PTR $T230942[ebp]
	call	?getDestructionNotification@CvUnit@@QAEAAU?$DestructionNotification@V?$FObjectHandle@VCvUnit@@@@@@XZ ; CvUnit::getDestructionNotification
$LN86@updateCent:

; 688  : 	pUnitNode = headUnitNode();

	mov	ecx, DWORD PTR _this$[ebp]
	call	?headUnitNode@CvPlot@@QAEPAUIDInfo@@XZ	; CvPlot::headUnitNode
	mov	DWORD PTR _pUnitNode$[ebp], eax
$LN5@updateCent:

; 689  : 	while(pUnitNode != NULL)

	cmp	DWORD PTR _pUnitNode$[ebp], 0
	je	$LN4@updateCent

; 690  : 	{
; 691  : 		pLoopUnit = GetPlayerUnit(*pUnitNode);

	mov	edx, DWORD PTR _pUnitNode$[ebp]
	cmp	DWORD PTR [edx], 0
	jl	SHORT $LN88@updateCent
	mov	eax, DWORD PTR _pUnitNode$[ebp]
	cmp	DWORD PTR [eax], 64			; 00000040H
	jge	SHORT $LN88@updateCent
	mov	ecx, DWORD PTR _pUnitNode$[ebp]
	mov	edx, DWORD PTR [ecx]
	imul	edx, 63236				; 0000f704H
	mov	eax, DWORD PTR ?m_aPlayers@CvPlayerAI@@1PAV1@A ; CvPlayerAI::m_aPlayers
	lea	ecx, DWORD PTR [eax+edx+4472]
	mov	DWORD PTR tv400[ebp], ecx
	mov	edx, DWORD PTR _pUnitNode$[ebp]
	mov	eax, DWORD PTR [edx+4]
	push	eax
	mov	ecx, DWORD PTR tv400[ebp]
	mov	edx, DWORD PTR [ecx]
	mov	ecx, DWORD PTR tv400[ebp]
	mov	eax, DWORD PTR [edx+16]
	call	eax
	mov	DWORD PTR _pLoopUnit$[ebp], eax
	jmp	SHORT $LN89@updateCent
$LN88@updateCent:
	mov	DWORD PTR _pLoopUnit$[ebp], 0
$LN89@updateCent:

; 692  : 		pUnitNode = nextUnitNode(pUnitNode);

	mov	ecx, DWORD PTR _pUnitNode$[ebp]
	push	ecx
	mov	ecx, DWORD PTR _this$[ebp]
	call	?nextUnitNode@CvPlot@@QAEPAUIDInfo@@PAU2@@Z ; CvPlot::nextUnitNode
	mov	DWORD PTR _pUnitNode$[ebp], eax

; 693  : 
; 694  : 		if(pLoopUnit)

	cmp	DWORD PTR _pLoopUnit$[ebp], 0
	je	$LN103@updateCent

; 695  : 		{
; 696  : 			auto_ptr<ICvUnit1> pDllUnit(new CvDllUnit(pLoopUnit));

	push	12					; 0000000cH
	call	??2CvDllUnit@@SAPAXI@Z			; CvDllUnit::operator new
	add	esp, 4
	mov	DWORD PTR $T230944[ebp], eax
	mov	DWORD PTR __$EHRec$[ebp+8], 1
	cmp	DWORD PTR $T230944[ebp], 0
	je	SHORT $LN15@updateCent
	mov	edx, DWORD PTR _pLoopUnit$[ebp]
	push	edx
	mov	ecx, DWORD PTR $T230944[ebp]
	call	??0CvDllUnit@@QAE@PAVCvUnit@@@Z		; CvDllUnit::CvDllUnit
	mov	DWORD PTR tv271[ebp], eax
	jmp	SHORT $LN16@updateCent
$LN15@updateCent:
	mov	DWORD PTR tv271[ebp], 0
$LN16@updateCent:
	mov	eax, DWORD PTR tv271[ebp]
	mov	DWORD PTR $T230943[ebp], eax
	mov	DWORD PTR __$EHRec$[ebp+8], -1
	mov	ecx, DWORD PTR $T230943[ebp]
	mov	DWORD PTR _pDllUnit$222217[ebp], ecx
	mov	DWORD PTR __$EHRec$[ebp+8], 2

; 697  : 
; 698  : 			if(pCenterUnit == pLoopUnit)

	mov	edx, DWORD PTR _pCenterUnit$[ebp]
	cmp	edx, DWORD PTR _pLoopUnit$[ebp]
	jne	SHORT $LN2@updateCent

; 699  : 			{
; 700  : 				gDLL->GameplayUnitVisibility(pDllUnit.get(), true, false, 0.01f);

	mov	eax, DWORD PTR $T231089[ebp]
	mov	DWORD PTR tv282[ebp], eax
	mov	ecx, DWORD PTR ?gGlobals@@3VCvGlobals@@A+8564
	mov	DWORD PTR tv282[ebp], ecx
	push	ecx
	fld	DWORD PTR __real@3c23d70a
	fstp	DWORD PTR [esp]
	push	0
	push	1
	mov	edx, DWORD PTR _pDllUnit$222217[ebp]
	push	edx
	mov	eax, DWORD PTR tv282[ebp]
	mov	edx, DWORD PTR [eax]
	mov	ecx, DWORD PTR tv282[ebp]
	mov	eax, DWORD PTR [edx+640]
	call	eax

; 701  : 			}
; 702  : 			else

	jmp	SHORT $LN1@updateCent
$LN2@updateCent:

; 703  : 			{
; 704  : 				gDLL->GameplayUnitVisibility(pDllUnit.get(), false, false, 0.01f);

	mov	ecx, DWORD PTR $T231096[ebp]
	mov	DWORD PTR tv298[ebp], ecx
	mov	edx, DWORD PTR ?gGlobals@@3VCvGlobals@@A+8564
	mov	DWORD PTR tv298[ebp], edx
	push	ecx
	fld	DWORD PTR __real@3c23d70a
	fstp	DWORD PTR [esp]
	push	0
	push	0
	mov	eax, DWORD PTR _pDllUnit$222217[ebp]
	push	eax
	mov	ecx, DWORD PTR tv298[ebp]
	mov	edx, DWORD PTR [ecx]
	mov	ecx, DWORD PTR tv298[ebp]
	mov	eax, DWORD PTR [edx+640]
	call	eax
$LN1@updateCent:

; 705  : 			}
; 706  : 		}

	mov	DWORD PTR __$EHRec$[ebp+8], -1
	mov	ecx, DWORD PTR _pDllUnit$222217[ebp]
	mov	DWORD PTR $T231108[ebp], ecx
	cmp	DWORD PTR $T231108[ebp], 0
	je	SHORT $LN105@updateCent
	mov	edx, DWORD PTR $T231108[ebp]
	mov	DWORD PTR _inst$231112[ebp], edx
	mov	eax, DWORD PTR _inst$231112[ebp]
	mov	ecx, DWORD PTR [eax]
	mov	edx, DWORD PTR _inst$231112[ebp]
	push	edx
	mov	eax, DWORD PTR [ecx+4]
	call	eax
$LN105@updateCent:
$LN103@updateCent:

; 707  : 	}

	jmp	$LN5@updateCent
$LN4@updateCent:
$LN13@updateCent:

; 708  : }

	mov	ecx, DWORD PTR __$EHRec$[ebp]
	mov	DWORD PTR fs:0, ecx
	pop	ecx
	mov	esp, ebp
	pop	ebp
	ret	0
_TEXT	ENDS
;	COMDAT text$x
text$x	SEGMENT
__unwindfunclet$?updateCenterUnit@CvPlot@@QAEXXZ$3:
	lea	ecx, DWORD PTR _hBestDefender$222192[ebp]
	jmp	??1?$FObjectHandle@VCvUnit@@@@QAE@XZ	; FObjectHandle<CvUnit>::~FObjectHandle<CvUnit>
__unwindfunclet$?updateCenterUnit@CvPlot@@QAEXXZ$8:
	mov	eax, DWORD PTR $T230944[ebp]
	push	eax
	call	??3CvDllUnit@@SAXPAX@Z			; CvDllUnit::operator delete
	pop	ecx
	ret	0
__unwindfunclet$?updateCenterUnit@CvPlot@@QAEXXZ$9:
	lea	ecx, DWORD PTR _pDllUnit$222217[ebp]
	jmp	??1?$auto_ptr@VICvUnit1@@@std@@QAE@XZ	; std::auto_ptr<ICvUnit1>::~auto_ptr<ICvUnit1>
__ehhandler$?updateCenterUnit@CvPlot@@QAEXXZ:
	mov	edx, DWORD PTR [esp+8]
	lea	eax, DWORD PTR [edx+12]
	mov	ecx, DWORD PTR [edx-200]
	xor	ecx, eax
	call	@__security_check_cookie@4
	mov	eax, OFFSET __ehfuncinfo$?updateCenterUnit@CvPlot@@QAEXXZ
	jmp	___CxxFrameHandler3
text$x	ENDS
?updateCenterUnit@CvPlot@@QAEXXZ ENDP			; CvPlot::updateCenterUnit
PUBLIC	??1?$FStaticVector@UIDInfo@@$0DC@$00$0BCJ@$0A@@@QAE@XZ ; FStaticVector<IDInfo,50,1,297,0>::~FStaticVector<IDInfo,50,1,297,0>
PUBLIC	?isVisibleEnemyUnit@CvPlot@@QBE_NPBVCvUnit@@@Z	; CvPlot::isVisibleEnemyUnit
PUBLIC	?isCity@CvPlot@@QBE_NXZ				; CvPlot::isCity
PUBLIC	?isValidDomainForLocation@CvPlot@@QBE_NABVCvUnit@@@Z ; CvPlot::isValidDomainForLocation
PUBLIC	?getNumFriendlyUnitsOfType@CvPlot@@QBEHPBVCvUnit@@_N@Z ; CvPlot::getNumFriendlyUnitsOfType
PUBLIC	?push_back@?$FStaticVector@UIDInfo@@$0DC@$00$0BCJ@$0A@@@QAEIABUIDInfo@@@Z ; FStaticVector<IDInfo,50,1,297,0>::push_back
PUBLIC	??0?$FStaticVector@UIDInfo@@$0DC@$00$0BCJ@$0A@@@QAE@XZ ; FStaticVector<IDInfo,50,1,297,0>::FStaticVector<IDInfo,50,1,297,0>
PUBLIC	__$ArrayPad$
EXTRN	?canEnterTerritory@CvUnit@@QBE_NW4TeamTypes@@_N11@Z:PROC ; CvUnit::canEnterTerritory
EXTRN	?isMinorCiv@CvPlayer@@QBE_NXZ:PROC		; CvPlayer::isMinorCiv
EXTRN	?jumpToNearestValidPlot@CvUnit@@QAE_NXZ:PROC	; CvUnit::jumpToNearestValidPlot
EXTRN	?isInCombat@CvUnit@@QBE_NXZ:PROC		; CvUnit::isInCombat
EXTRN	?isCargo@CvUnit@@QBE_NXZ:PROC			; CvUnit::isCargo
EXTRN	?atPlot@CvUnit@@QBE_NABVCvPlot@@@Z:PROC		; CvUnit::atPlot
EXTRN	?isDelayedDeath@CvUnit@@QBE_NXZ:PROC		; CvUnit::isDelayedDeath
;	COMDAT xdata$x
; File d:\sources\lekmod_git\checkout\lekmod_dll\fireplace\include\fireworks\ffastvector.h
xdata$x	SEGMENT
__unwindtable$?verifyUnitValidPlot@CvPlot@@QAEXXZ DD 0ffffffffH
	DD	FLAT:__unwindfunclet$?verifyUnitValidPlot@CvPlot@@QAEXXZ$0
__ehfuncinfo$?verifyUnitValidPlot@CvPlot@@QAEXXZ DD 019930522H
	DD	01H
	DD	FLAT:__unwindtable$?verifyUnitValidPlot@CvPlot@@QAEXXZ
	DD	2 DUP(00H)
	DD	2 DUP(00H)
	DD	00H
	DD	01H
; Function compile flags: /Odtp
; File d:\sources\lekmod_git\checkout\lekmod_dll\cvgamecoredll_expansion2\cvplot.cpp
xdata$x	ENDS
;	COMDAT ?verifyUnitValidPlot@CvPlot@@QAEXXZ
_TEXT	SEGMENT
tv376 = -548						; size = 4
tv311 = -544						; size = 4
_this$ = -540						; size = 4
$T231259 = -524						; size = 4
_playerID$231251 = -520					; size = 4
$T231242 = -516						; size = 4
$T231238 = -512						; size = 4
$T231234 = -508						; size = 4
_playerID$231226 = -504					; size = 4
$T231208 = -500						; size = 4
$T231204 = -496						; size = 4
_playerID$231196 = -492					; size = 4
$T231182 = -484						; size = 4
$T231178 = -480						; size = 4
$T231174 = -476						; size = 4
$T231161 = -472						; size = 4
$T231157 = -468						; size = 4
_i$231141 = -460					; size = 4
_iVectorLoop$222321 = -456				; size = 4
_bIsOwnedByMinor$222314 = -449				; size = 1
_iVectorLoop$222301 = -448				; size = 4
_oldUnitList$ = -444					; size = 416
__$ArrayPad$ = -28					; size = 4
_iUnitListSize$ = -24					; size = 4
_pUnitNode$ = -20					; size = 4
_pLoopUnit$ = -16					; size = 4
__$EHRec$ = -12						; size = 12
?verifyUnitValidPlot@CvPlot@@QAEXXZ PROC		; CvPlot::verifyUnitValidPlot, COMDAT
; _this$ = ecx

; 713  : {

	push	ebp
	mov	ebp, esp
	push	-1
	push	__ehhandler$?verifyUnitValidPlot@CvPlot@@QAEXXZ
	mov	eax, DWORD PTR fs:0
	push	eax
	sub	esp, 536				; 00000218H
	mov	eax, DWORD PTR ___security_cookie
	xor	eax, ebp
	mov	DWORD PTR __$ArrayPad$[ebp], eax
	push	eax
	lea	eax, DWORD PTR __$EHRec$[ebp]
	mov	DWORD PTR fs:0, eax
	mov	DWORD PTR _this$[ebp], ecx

; 714  : 	FStaticVector<IDInfo, 50, true, c_eCiv5GameplayDLL, 0> oldUnitList;

	lea	ecx, DWORD PTR _oldUnitList$[ebp]
	call	??0?$FStaticVector@UIDInfo@@$0DC@$00$0BCJ@$0A@@@QAE@XZ ; FStaticVector<IDInfo,50,1,297,0>::FStaticVector<IDInfo,50,1,297,0>
	mov	DWORD PTR __$EHRec$[ebp+8], 0

; 715  : 
; 716  : 	IDInfo* pUnitNode;
; 717  : 	CvUnit* pLoopUnit;
; 718  : 
; 719  : 	oldUnitList.clear();

	xor	eax, eax
	je	SHORT $LN45@verifyUnit
	mov	DWORD PTR _i$231141[ebp], 0
	jmp	SHORT $LN43@verifyUnit
$LN42@verifyUnit:
	mov	ecx, DWORD PTR _i$231141[ebp]
	add	ecx, 1
	mov	DWORD PTR _i$231141[ebp], ecx
$LN43@verifyUnit:
	mov	edx, DWORD PTR _i$231141[ebp]
	cmp	edx, DWORD PTR _oldUnitList$[ebp+4]
	jae	SHORT $LN45@verifyUnit
	jmp	SHORT $LN42@verifyUnit
$LN45@verifyUnit:
	mov	DWORD PTR _oldUnitList$[ebp+4], 0

; 720  : 
; 721  : 	pUnitNode = headUnitNode();

	mov	ecx, DWORD PTR _this$[ebp]
	call	?headUnitNode@CvPlot@@QAEPAUIDInfo@@XZ	; CvPlot::headUnitNode
	mov	DWORD PTR _pUnitNode$[ebp], eax
$LN30@verifyUnit:

; 722  : 
; 723  : 	while(pUnitNode != NULL)

	cmp	DWORD PTR _pUnitNode$[ebp], 0
	je	SHORT $LN29@verifyUnit

; 724  : 	{
; 725  : 		oldUnitList.push_back(*pUnitNode);

	mov	eax, DWORD PTR _pUnitNode$[ebp]
	push	eax
	lea	ecx, DWORD PTR _oldUnitList$[ebp]
	call	?push_back@?$FStaticVector@UIDInfo@@$0DC@$00$0BCJ@$0A@@@QAEIABUIDInfo@@@Z ; FStaticVector<IDInfo,50,1,297,0>::push_back

; 726  : 		pUnitNode = nextUnitNode(pUnitNode);

	mov	ecx, DWORD PTR _pUnitNode$[ebp]
	push	ecx
	mov	ecx, DWORD PTR _this$[ebp]
	call	?nextUnitNode@CvPlot@@QAEPAUIDInfo@@PAU2@@Z ; CvPlot::nextUnitNode
	mov	DWORD PTR _pUnitNode$[ebp], eax

; 727  : 	}

	jmp	SHORT $LN30@verifyUnit
$LN29@verifyUnit:

; 728  : 
; 729  : 	int iUnitListSize = (int) oldUnitList.size();

	mov	edx, DWORD PTR _oldUnitList$[ebp+4]
	mov	DWORD PTR $T231157[ebp], edx
	mov	eax, DWORD PTR $T231157[ebp]
	mov	DWORD PTR _iUnitListSize$[ebp], eax

; 730  : 	for(int iVectorLoop = 0; iVectorLoop < (int) iUnitListSize; ++iVectorLoop)

	mov	DWORD PTR _iVectorLoop$222301[ebp], 0
	jmp	SHORT $LN28@verifyUnit
$LN27@verifyUnit:
	mov	ecx, DWORD PTR _iVectorLoop$222301[ebp]
	add	ecx, 1
	mov	DWORD PTR _iVectorLoop$222301[ebp], ecx
$LN28@verifyUnit:
	mov	edx, DWORD PTR _iVectorLoop$222301[ebp]
	cmp	edx, DWORD PTR _iUnitListSize$[ebp]
	jge	$LN26@verifyUnit

; 731  : 	{
; 732  : 		pLoopUnit = GetPlayerUnit(oldUnitList[iVectorLoop]);

	mov	eax, DWORD PTR _iVectorLoop$222301[ebp]
	mov	ecx, DWORD PTR _oldUnitList$[ebp]
	lea	edx, DWORD PTR [ecx+eax*8]
	mov	DWORD PTR $T231161[ebp], edx
	mov	eax, DWORD PTR $T231161[ebp]
	cmp	DWORD PTR [eax], 0
	jl	SHORT $LN58@verifyUnit
	mov	ecx, DWORD PTR $T231161[ebp]
	cmp	DWORD PTR [ecx], 64			; 00000040H
	jge	SHORT $LN58@verifyUnit
	mov	edx, DWORD PTR $T231161[ebp]
	mov	eax, DWORD PTR [edx]
	imul	eax, 63236				; 0000f704H
	mov	ecx, DWORD PTR ?m_aPlayers@CvPlayerAI@@1PAV1@A ; CvPlayerAI::m_aPlayers
	lea	edx, DWORD PTR [ecx+eax+4472]
	mov	DWORD PTR tv311[ebp], edx
	mov	eax, DWORD PTR $T231161[ebp]
	mov	ecx, DWORD PTR [eax+4]
	push	ecx
	mov	edx, DWORD PTR tv311[ebp]
	mov	eax, DWORD PTR [edx]
	mov	ecx, DWORD PTR tv311[ebp]
	mov	edx, DWORD PTR [eax+16]
	call	edx
	mov	DWORD PTR _pLoopUnit$[ebp], eax
	jmp	SHORT $LN59@verifyUnit
$LN58@verifyUnit:
	mov	DWORD PTR _pLoopUnit$[ebp], 0
$LN59@verifyUnit:

; 733  : 		if(pLoopUnit != NULL)

	cmp	DWORD PTR _pLoopUnit$[ebp], 0
	je	$LN25@verifyUnit

; 734  : 		{
; 735  : 			if(!pLoopUnit->isDelayedDeath())

	mov	ecx, DWORD PTR _pLoopUnit$[ebp]
	call	?isDelayedDeath@CvUnit@@QBE_NXZ		; CvUnit::isDelayedDeath
	movzx	eax, al
	test	eax, eax
	jne	$LN25@verifyUnit

; 736  : 			{
; 737  : 				if(pLoopUnit->atPlot(*this))

	mov	ecx, DWORD PTR _this$[ebp]
	push	ecx
	mov	ecx, DWORD PTR _pLoopUnit$[ebp]
	call	?atPlot@CvUnit@@QBE_NABVCvPlot@@@Z	; CvUnit::atPlot
	movzx	edx, al
	test	edx, edx
	je	$LN25@verifyUnit

; 738  : 				{
; 739  : 					if(!(pLoopUnit->isCargo()))

	mov	ecx, DWORD PTR _pLoopUnit$[ebp]
	call	?isCargo@CvUnit@@QBE_NXZ		; CvUnit::isCargo
	movzx	eax, al
	test	eax, eax
	jne	$LN25@verifyUnit

; 740  : 					{
; 741  : 						if(!(pLoopUnit->isInCombat()))

	mov	ecx, DWORD PTR _pLoopUnit$[ebp]
	call	?isInCombat@CvUnit@@QBE_NXZ		; CvUnit::isInCombat
	movzx	ecx, al
	test	ecx, ecx
	jne	$LN25@verifyUnit

; 742  : 						{
; 743  : 							// Unit not allowed to be here
; 744  : 							if(getNumFriendlyUnitsOfType(pLoopUnit) > /*1*/ GC.getPLOT_UNIT_LIMIT())

	mov	edx, DWORD PTR ?gGlobals@@3VCvGlobals@@A+7356
	mov	DWORD PTR $T231174[ebp], edx
	push	1
	mov	eax, DWORD PTR _pLoopUnit$[ebp]
	push	eax
	mov	ecx, DWORD PTR _this$[ebp]
	call	?getNumFriendlyUnitsOfType@CvPlot@@QBEHPBVCvUnit@@_N@Z ; CvPlot::getNumFriendlyUnitsOfType
	cmp	eax, DWORD PTR $T231174[ebp]
	jle	SHORT $LN20@verifyUnit

; 745  : 							{
; 746  : 								if (!pLoopUnit->jumpToNearestValidPlot())

	mov	ecx, DWORD PTR _pLoopUnit$[ebp]
	call	?jumpToNearestValidPlot@CvUnit@@QAE_NXZ	; CvUnit::jumpToNearestValidPlot
	movzx	ecx, al
	test	ecx, ecx
	jne	SHORT $LN20@verifyUnit

; 747  : 								{
; 748  : 									pLoopUnit->kill(false);

	push	-1
	push	0
	mov	ecx, DWORD PTR _pLoopUnit$[ebp]
	call	?kill@CvUnit@@QAEX_NW4PlayerTypes@@@Z	; CvUnit::kill

; 749  : 									pLoopUnit = NULL;

	mov	DWORD PTR _pLoopUnit$[ebp], 0
$LN20@verifyUnit:

; 750  : 								}
; 751  : 							}
; 752  : 							
; 753  : 							if (pLoopUnit != NULL)

	cmp	DWORD PTR _pLoopUnit$[ebp], 0
	je	$LN25@verifyUnit

; 754  : 							{
; 755  : #ifdef NQ_NEVER_PUSH_OUT_OF_MINORS_ON_PEACE
; 756  : 								bool bIsOwnedByMinor = false;

	mov	BYTE PTR _bIsOwnedByMinor$222314[ebp], 0

; 757  : 								if (isOwned())

	mov	ecx, DWORD PTR _this$[ebp]
	call	?isOwned@CvPlot@@QBE_NXZ		; CvPlot::isOwned
	movzx	edx, al
	test	edx, edx
	je	SHORT $LN17@verifyUnit

; 758  : 								{
; 759  : 									if (GET_PLAYER(getOwner()).isMinorCiv())

	mov	eax, DWORD PTR _this$[ebp]
	movsx	ecx, BYTE PTR [eax+4]
	mov	DWORD PTR $T231178[ebp], ecx
	mov	edx, DWORD PTR $T231178[ebp]
	imul	edx, 63236				; 0000f704H
	add	edx, DWORD PTR ?m_aPlayers@CvPlayerAI@@1PAV1@A ; CvPlayerAI::m_aPlayers
	mov	DWORD PTR $T231182[ebp], edx
	mov	ecx, DWORD PTR $T231182[ebp]
	call	?isMinorCiv@CvPlayer@@QBE_NXZ		; CvPlayer::isMinorCiv
	movzx	eax, al
	test	eax, eax
	je	SHORT $LN17@verifyUnit

; 760  : 									{
; 761  : 										bIsOwnedByMinor = true;

	mov	BYTE PTR _bIsOwnedByMinor$222314[ebp], 1
$LN17@verifyUnit:

; 762  : 									}
; 763  : 								}
; 764  : 								// may want to make an extra check here about if it's owned by minor, we can still enter territory but with ignoring right of passage
; 765  : 								if(!isValidDomainForLocation(*pLoopUnit) || (!bIsOwnedByMinor && !(pLoopUnit->canEnterTerritory(getTeam(), false /*bIgnoreRightOfPassage*/, isCity()))))

	mov	ecx, DWORD PTR _pLoopUnit$[ebp]
	push	ecx
	mov	ecx, DWORD PTR _this$[ebp]
	call	?isValidDomainForLocation@CvPlot@@QBE_NABVCvUnit@@@Z ; CvPlot::isValidDomainForLocation
	movzx	edx, al
	test	edx, edx
	je	SHORT $LN14@verifyUnit
	movzx	eax, BYTE PTR _bIsOwnedByMinor$222314[ebp]
	test	eax, eax
	jne	$LN25@verifyUnit
	mov	ecx, DWORD PTR _this$[ebp]
	movsx	edx, BYTE PTR [ecx+4]
	mov	DWORD PTR _playerID$231196[ebp], edx
	cmp	DWORD PTR _playerID$231196[ebp], -1
	je	SHORT $LN75@verifyUnit
	mov	eax, DWORD PTR _playerID$231196[ebp]
	push	eax
	call	?teamType@CvPreGame@@YA?AW4TeamTypes@@W4PlayerTypes@@@Z ; CvPreGame::teamType
	add	esp, 4
	mov	DWORD PTR $T231204[ebp], eax
	jmp	SHORT $LN76@verifyUnit
	jmp	SHORT $LN76@verifyUnit
$LN75@verifyUnit:
	mov	DWORD PTR $T231204[ebp], -1
$LN76@verifyUnit:
	push	0
	mov	ecx, DWORD PTR _this$[ebp]
	call	?isCity@CvPlot@@QBE_NXZ			; CvPlot::isCity
	movzx	ecx, al
	push	ecx
	push	0
	mov	edx, DWORD PTR $T231204[ebp]
	push	edx
	mov	ecx, DWORD PTR _pLoopUnit$[ebp]
	call	?canEnterTerritory@CvUnit@@QBE_NW4TeamTypes@@_N11@Z ; CvUnit::canEnterTerritory
	movzx	eax, al
	test	eax, eax
	jne	SHORT $LN25@verifyUnit
$LN14@verifyUnit:

; 766  : #else
; 767  : 								if(!isValidDomainForLocation(*pLoopUnit) || !(pLoopUnit->canEnterTerritory(getTeam(), false /*bIgnoreRightOfPassage*/, isCity())))
; 768  : #endif
; 769  : 								{
; 770  : 									if (!pLoopUnit->jumpToNearestValidPlot())

	mov	ecx, DWORD PTR _pLoopUnit$[ebp]
	call	?jumpToNearestValidPlot@CvUnit@@QAE_NXZ	; CvUnit::jumpToNearestValidPlot
	movzx	ecx, al
	test	ecx, ecx
	jne	SHORT $LN25@verifyUnit

; 771  : 										pLoopUnit->kill(false);

	push	-1
	push	0
	mov	ecx, DWORD PTR _pLoopUnit$[ebp]
	call	?kill@CvUnit@@QAEX_NW4PlayerTypes@@@Z	; CvUnit::kill
$LN25@verifyUnit:

; 772  : 								}
; 773  : 							}
; 774  : 						}
; 775  : 					}
; 776  : 				}
; 777  : 			}
; 778  : 		}
; 779  : 	}

	jmp	$LN27@verifyUnit
$LN26@verifyUnit:

; 780  : 
; 781  : 	// Unit not allowed in a plot owned by someone?
; 782  : 	if(isOwned())

	mov	ecx, DWORD PTR _this$[ebp]
	call	?isOwned@CvPlot@@QBE_NXZ		; CvPlot::isOwned
	movzx	edx, al
	test	edx, edx
	je	$LN12@verifyUnit

; 783  : 	{
; 784  : 		for(int iVectorLoop = 0; iVectorLoop < (int) iUnitListSize; ++iVectorLoop)

	mov	DWORD PTR _iVectorLoop$222321[ebp], 0
	jmp	SHORT $LN11@verifyUnit
$LN10@verifyUnit:
	mov	eax, DWORD PTR _iVectorLoop$222321[ebp]
	add	eax, 1
	mov	DWORD PTR _iVectorLoop$222321[ebp], eax
$LN11@verifyUnit:
	mov	ecx, DWORD PTR _iVectorLoop$222321[ebp]
	cmp	ecx, DWORD PTR _iUnitListSize$[ebp]
	jge	$LN12@verifyUnit

; 785  : 		{
; 786  : 			pLoopUnit = GetPlayerUnit(oldUnitList[iVectorLoop]);

	mov	edx, DWORD PTR _iVectorLoop$222321[ebp]
	mov	eax, DWORD PTR _oldUnitList$[ebp]
	lea	ecx, DWORD PTR [eax+edx*8]
	mov	DWORD PTR $T231208[ebp], ecx
	mov	edx, DWORD PTR $T231208[ebp]
	cmp	DWORD PTR [edx], 0
	jl	SHORT $LN84@verifyUnit
	mov	eax, DWORD PTR $T231208[ebp]
	cmp	DWORD PTR [eax], 64			; 00000040H
	jge	SHORT $LN84@verifyUnit
	mov	ecx, DWORD PTR $T231208[ebp]
	mov	edx, DWORD PTR [ecx]
	imul	edx, 63236				; 0000f704H
	mov	eax, DWORD PTR ?m_aPlayers@CvPlayerAI@@1PAV1@A ; CvPlayerAI::m_aPlayers
	lea	ecx, DWORD PTR [eax+edx+4472]
	mov	DWORD PTR tv376[ebp], ecx
	mov	edx, DWORD PTR $T231208[ebp]
	mov	eax, DWORD PTR [edx+4]
	push	eax
	mov	ecx, DWORD PTR tv376[ebp]
	mov	edx, DWORD PTR [ecx]
	mov	ecx, DWORD PTR tv376[ebp]
	mov	eax, DWORD PTR [edx+16]
	call	eax
	mov	DWORD PTR _pLoopUnit$[ebp], eax
	jmp	SHORT $LN85@verifyUnit
$LN84@verifyUnit:
	mov	DWORD PTR _pLoopUnit$[ebp], 0
$LN85@verifyUnit:

; 787  : 			if(pLoopUnit != NULL)

	cmp	DWORD PTR _pLoopUnit$[ebp], 0
	je	$LN8@verifyUnit

; 788  : 			{
; 789  : 				if(!pLoopUnit->isDelayedDeath())

	mov	ecx, DWORD PTR _pLoopUnit$[ebp]
	call	?isDelayedDeath@CvUnit@@QBE_NXZ		; CvUnit::isDelayedDeath
	movzx	ecx, al
	test	ecx, ecx
	jne	$LN8@verifyUnit

; 790  : 				{
; 791  : 					if(pLoopUnit->atPlot(*this))  // it may have jumped

	mov	edx, DWORD PTR _this$[ebp]
	push	edx
	mov	ecx, DWORD PTR _pLoopUnit$[ebp]
	call	?atPlot@CvUnit@@QBE_NABVCvPlot@@@Z	; CvUnit::atPlot
	movzx	eax, al
	test	eax, eax
	je	$LN8@verifyUnit

; 792  : 					{
; 793  : 						if(!(pLoopUnit->isInCombat()))

	mov	ecx, DWORD PTR _pLoopUnit$[ebp]
	call	?isInCombat@CvUnit@@QBE_NXZ		; CvUnit::isInCombat
	movzx	ecx, al
	test	ecx, ecx
	jne	$LN8@verifyUnit

; 794  : 						{
; 795  : #ifdef NQ_NEVER_PUSH_OUT_OF_MINORS_ON_PEACE
; 796  : 							if(pLoopUnit->getTeam() != getTeam() && !GET_PLAYER(getOwner()).isMinorCiv())

	mov	edx, DWORD PTR _this$[ebp]
	movsx	eax, BYTE PTR [edx+4]
	mov	DWORD PTR _playerID$231226[ebp], eax
	cmp	DWORD PTR _playerID$231226[ebp], -1
	je	SHORT $LN90@verifyUnit
	mov	ecx, DWORD PTR _playerID$231226[ebp]
	push	ecx
	call	?teamType@CvPreGame@@YA?AW4TeamTypes@@W4PlayerTypes@@@Z ; CvPreGame::teamType
	add	esp, 4
	mov	DWORD PTR $T231234[ebp], eax
	jmp	SHORT $LN91@verifyUnit
	jmp	SHORT $LN91@verifyUnit
$LN90@verifyUnit:
	mov	DWORD PTR $T231234[ebp], -1
$LN91@verifyUnit:
	mov	ecx, DWORD PTR _pLoopUnit$[ebp]
	call	?getTeam@CvUnit@@QBE?AW4TeamTypes@@XZ	; CvUnit::getTeam
	cmp	eax, DWORD PTR $T231234[ebp]
	je	$LN8@verifyUnit
	mov	edx, DWORD PTR _this$[ebp]
	movsx	eax, BYTE PTR [edx+4]
	mov	DWORD PTR $T231238[ebp], eax
	mov	ecx, DWORD PTR $T231238[ebp]
	imul	ecx, 63236				; 0000f704H
	add	ecx, DWORD PTR ?m_aPlayers@CvPlayerAI@@1PAV1@A ; CvPlayerAI::m_aPlayers
	mov	DWORD PTR $T231242[ebp], ecx
	mov	ecx, DWORD PTR $T231242[ebp]
	call	?isMinorCiv@CvPlayer@@QBE_NXZ		; CvPlayer::isMinorCiv
	movzx	edx, al
	test	edx, edx
	jne	$LN8@verifyUnit

; 797  : #else
; 798  : 							if(pLoopUnit->getTeam() != getTeam()) // && getTeam() == NO_TEAM)// || !GET_TEAM(getTeam()).isVassal(pLoopUnit->getTeam())))
; 799  : #endif
; 800  : 							{
; 801  : 								if(isVisibleEnemyUnit(pLoopUnit))

	mov	eax, DWORD PTR _pLoopUnit$[ebp]
	push	eax
	mov	ecx, DWORD PTR _this$[ebp]
	call	?isVisibleEnemyUnit@CvPlot@@QBE_NPBVCvUnit@@@Z ; CvPlot::isVisibleEnemyUnit
	movzx	ecx, al
	test	ecx, ecx
	je	SHORT $LN8@verifyUnit

; 802  : 								{
; 803  : 									if(!(pLoopUnit->isInvisible(getTeam(), false)))

	mov	edx, DWORD PTR _this$[ebp]
	movsx	eax, BYTE PTR [edx+4]
	mov	DWORD PTR _playerID$231251[ebp], eax
	cmp	DWORD PTR _playerID$231251[ebp], -1
	je	SHORT $LN102@verifyUnit
	mov	ecx, DWORD PTR _playerID$231251[ebp]
	push	ecx
	call	?teamType@CvPreGame@@YA?AW4TeamTypes@@W4PlayerTypes@@@Z ; CvPreGame::teamType
	add	esp, 4
	mov	DWORD PTR $T231259[ebp], eax
	jmp	SHORT $LN103@verifyUnit
	jmp	SHORT $LN103@verifyUnit
$LN102@verifyUnit:
	mov	DWORD PTR $T231259[ebp], -1
$LN103@verifyUnit:
	push	1
	push	0
	mov	edx, DWORD PTR $T231259[ebp]
	push	edx
	mov	ecx, DWORD PTR _pLoopUnit$[ebp]
	call	?isInvisible@CvUnit@@QBE_NW4TeamTypes@@_N1@Z ; CvUnit::isInvisible
	movzx	eax, al
	test	eax, eax
	jne	SHORT $LN8@verifyUnit

; 804  : 									{
; 805  : 										if (!pLoopUnit->jumpToNearestValidPlot())

	mov	ecx, DWORD PTR _pLoopUnit$[ebp]
	call	?jumpToNearestValidPlot@CvUnit@@QAE_NXZ	; CvUnit::jumpToNearestValidPlot
	movzx	ecx, al
	test	ecx, ecx
	jne	SHORT $LN8@verifyUnit

; 806  : 											pLoopUnit->kill(false);

	push	-1
	push	0
	mov	ecx, DWORD PTR _pLoopUnit$[ebp]
	call	?kill@CvUnit@@QAEX_NW4PlayerTypes@@@Z	; CvUnit::kill
$LN8@verifyUnit:

; 807  : 									}
; 808  : 								}
; 809  : 							}
; 810  : 						}
; 811  : 					}
; 812  : 				}
; 813  : 			}
; 814  : 		}

	jmp	$LN10@verifyUnit
$LN12@verifyUnit:

; 815  : 	}
; 816  : }

	mov	DWORD PTR __$EHRec$[ebp+8], -1
	lea	ecx, DWORD PTR _oldUnitList$[ebp]
	call	??1?$FStaticVector@UIDInfo@@$0DC@$00$0BCJ@$0A@@@QAE@XZ ; FStaticVector<IDInfo,50,1,297,0>::~FStaticVector<IDInfo,50,1,297,0>
	mov	ecx, DWORD PTR __$EHRec$[ebp]
	mov	DWORD PTR fs:0, ecx
	pop	ecx
	mov	ecx, DWORD PTR __$ArrayPad$[ebp]
	xor	ecx, ebp
	call	@__security_check_cookie@4
	mov	esp, ebp
	pop	ebp
	ret	0
_TEXT	ENDS
;	COMDAT text$x
text$x	SEGMENT
__unwindfunclet$?verifyUnitValidPlot@CvPlot@@QAEXXZ$0:
	lea	ecx, DWORD PTR _oldUnitList$[ebp]
	jmp	??1?$FStaticVector@UIDInfo@@$0DC@$00$0BCJ@$0A@@@QAE@XZ ; FStaticVector<IDInfo,50,1,297,0>::~FStaticVector<IDInfo,50,1,297,0>
__ehhandler$?verifyUnitValidPlot@CvPlot@@QAEXXZ:
	mov	edx, DWORD PTR [esp+8]
	lea	eax, DWORD PTR [edx+12]
	mov	ecx, DWORD PTR [edx-540]
	xor	ecx, eax
	call	@__security_check_cookie@4
	mov	ecx, DWORD PTR [edx-16]
	xor	ecx, eax
	call	@__security_check_cookie@4
	mov	eax, OFFSET __ehfuncinfo$?verifyUnitValidPlot@CvPlot@@QAEXXZ
	jmp	___CxxFrameHandler3
text$x	ENDS
?verifyUnitValidPlot@CvPlot@@QAEXXZ ENDP		; CvPlot::verifyUnitValidPlot
PUBLIC	?nukeExplosion@CvPlot@@QAEXHPAVCvUnit@@@Z	; CvPlot::nukeExplosion
EXTRN	?ApplyNuclearExplosionDamage@CvUnitCombat@@SAIPAVCvPlot@@HPAVCvUnit@@@Z:PROC ; CvUnitCombat::ApplyNuclearExplosionDamage
; Function compile flags: /Odtp
;	COMDAT ?nukeExplosion@CvPlot@@QAEXHPAVCvUnit@@@Z
_TEXT	SEGMENT
_this$ = -4						; size = 4
_iDamageLevel$ = 8					; size = 4
___formal$ = 12						; size = 4
?nukeExplosion@CvPlot@@QAEXHPAVCvUnit@@@Z PROC		; CvPlot::nukeExplosion, COMDAT
; _this$ = ecx

; 821  : {

	push	ebp
	mov	ebp, esp
	push	ecx
	mov	DWORD PTR _this$[ebp], ecx

; 822  : 	CvUnitCombat::ApplyNuclearExplosionDamage(this, iDamageLevel);

	push	0
	mov	eax, DWORD PTR _iDamageLevel$[ebp]
	push	eax
	mov	ecx, DWORD PTR _this$[ebp]
	push	ecx
	call	?ApplyNuclearExplosionDamage@CvUnitCombat@@SAIPAVCvPlot@@HPAVCvUnit@@@Z ; CvUnitCombat::ApplyNuclearExplosionDamage
	add	esp, 12					; 0000000cH

; 823  : }

	mov	esp, ebp
	pop	ebp
	ret	8
?nukeExplosion@CvPlot@@QAEXHPAVCvUnit@@@Z ENDP		; CvPlot::nukeExplosion
_TEXT	ENDS
PUBLIC	?plotDirection@@YAPAVCvPlot@@HHW4DirectionTypes@@@Z ; plotDirection
PUBLIC	?isAdjacentToArea@CvPlot@@QBE_NH@Z		; CvPlot::isAdjacentToArea
; Function compile flags: /Odtp
;	COMDAT ?isAdjacentToArea@CvPlot@@QBE_NH@Z
_TEXT	SEGMENT
_this$ = -112						; size = 4
$T231515 = -108						; size = 4
$T231304 = -16						; size = 4
$T231300 = -12						; size = 4
_iI$ = -8						; size = 4
_pAdjacentPlot$ = -4					; size = 4
_iAreaID$ = 8						; size = 4
?isAdjacentToArea@CvPlot@@QBE_NH@Z PROC			; CvPlot::isAdjacentToArea, COMDAT
; _this$ = ecx

; 827  : {

	push	ebp
	mov	ebp, esp
	sub	esp, 112				; 00000070H
	mov	DWORD PTR _this$[ebp], ecx

; 828  : 
; 829  : 	CvPlot* pAdjacentPlot;
; 830  : 	int iI;
; 831  : 
; 832  : 	for(iI = 0; iI < NUM_DIRECTION_TYPES; ++iI)

	mov	DWORD PTR _iI$[ebp], 0
	jmp	SHORT $LN5@isAdjacent
$LN4@isAdjacent:
	mov	eax, DWORD PTR _iI$[ebp]
	add	eax, 1
	mov	DWORD PTR _iI$[ebp], eax
$LN5@isAdjacent:
	cmp	DWORD PTR _iI$[ebp], 6
	jge	SHORT $LN3@isAdjacent

; 833  : 	{
; 834  : 		pAdjacentPlot = plotDirection(getX(), getY(), ((DirectionTypes)iI));

	mov	ecx, DWORD PTR _this$[ebp]
	movsx	edx, WORD PTR [ecx+2]
	mov	DWORD PTR $T231300[ebp], edx
	mov	eax, DWORD PTR _this$[ebp]
	movsx	ecx, WORD PTR [eax]
	mov	DWORD PTR $T231304[ebp], ecx
	mov	edx, DWORD PTR _iI$[ebp]
	push	edx
	mov	eax, DWORD PTR $T231300[ebp]
	push	eax
	mov	ecx, DWORD PTR $T231304[ebp]
	push	ecx
	call	?plotDirection@@YAPAVCvPlot@@HHW4DirectionTypes@@@Z ; plotDirection
	add	esp, 12					; 0000000cH
	mov	DWORD PTR _pAdjacentPlot$[ebp], eax

; 835  : 
; 836  : 		if(pAdjacentPlot != NULL)

	cmp	DWORD PTR _pAdjacentPlot$[ebp], 0
	je	SHORT $LN2@isAdjacent

; 837  : 		{
; 838  : 			if(pAdjacentPlot->getArea() == iAreaID)

	mov	edx, DWORD PTR _pAdjacentPlot$[ebp]
	mov	eax, DWORD PTR [edx+356]
	mov	DWORD PTR $T231515[ebp], eax
	mov	ecx, DWORD PTR $T231515[ebp]
	cmp	ecx, DWORD PTR _iAreaID$[ebp]
	jne	SHORT $LN2@isAdjacent

; 839  : 			{
; 840  : 				return true;

	mov	al, 1
	jmp	SHORT $LN6@isAdjacent
$LN2@isAdjacent:

; 841  : 			}
; 842  : 		}
; 843  : 	}

	jmp	SHORT $LN4@isAdjacent
$LN3@isAdjacent:

; 844  : 
; 845  : 	return false;

	xor	al, al
$LN6@isAdjacent:

; 846  : }

	mov	esp, ebp
	pop	ebp
	ret	4
?isAdjacentToArea@CvPlot@@QBE_NH@Z ENDP			; CvPlot::isAdjacentToArea
_TEXT	ENDS
PUBLIC	?isPlot@CvMap@@QBEHHH@Z				; CvMap::isPlot
; Function compile flags: /Odtp
; File d:\sources\lekmod_git\checkout\lekmod_dll\cvgamecoredll_expansion2\cvgamecoreutils.h
;	COMDAT ?plotDirection@@YAPAVCvPlot@@HHW4DirectionTypes@@@Z
_TEXT	SEGMENT
tv198 = -100						; size = 4
tv213 = -96						; size = 4
tv168 = -92						; size = 4
tv151 = -88						; size = 4
tv155 = -84						; size = 4
$T231722 = -80						; size = 4
$T231677 = -76						; size = 4
$T231664 = -72						; size = 4
$T231660 = -68						; size = 4
$T231646 = -64						; size = 4
$T231642 = -57						; size = 1
$T231631 = -56						; size = 4
$T231627 = -49						; size = 1
_iMapY$231721 = -48					; size = 4
_iMapX$231720 = -44					; size = 4
$T231620 = -40						; size = 4
$T231596 = -36						; size = 4
$T231559 = -32						; size = 4
$T231547 = -28						; size = 4
$T231543 = -21						; size = 1
$T231532 = -20						; size = 4
$T231528 = -13						; size = 1
_iMapY$231595 = -12					; size = 4
_iMapX$231594 = -8					; size = 4
$T231521 = -4						; size = 4
_iX$ = 8						; size = 4
_iY$ = 12						; size = 4
_eDirection$ = 16					; size = 4
?plotDirection@@YAPAVCvPlot@@HHW4DirectionTypes@@@Z PROC ; plotDirection, COMDAT

; 193  : {

	push	ebp
	mov	ebp, esp
	sub	esp, 100				; 00000064H

; 194  : 	if(eDirection == NO_DIRECTION)

	cmp	DWORD PTR _eDirection$[ebp], -1
	jne	$LN2@plotDirect

; 195  : 	{
; 196  : 		return GC.getMap().plot(iX, iY);

	mov	eax, DWORD PTR ?gGlobals@@3VCvGlobals@@A+52
	mov	DWORD PTR $T231521[ebp], eax
	cmp	DWORD PTR _iX$[ebp], -2147483647	; 80000001H
	je	SHORT $LN7@plotDirect
	cmp	DWORD PTR _iY$[ebp], -2147483647	; 80000001H
	jne	SHORT $LN8@plotDirect
$LN7@plotDirect:
	mov	DWORD PTR $T231596[ebp], 0
	jmp	$LN9@plotDirect
$LN8@plotDirect:
	mov	ecx, DWORD PTR $T231521[ebp]
	mov	dl, BYTE PTR [ecx+4056]
	mov	BYTE PTR $T231528[ebp], dl
	mov	eax, DWORD PTR $T231521[ebp]
	mov	ecx, DWORD PTR [eax+4020]
	mov	DWORD PTR $T231532[ebp], ecx
	movzx	edx, BYTE PTR $T231528[ebp]
	test	edx, edx
	je	SHORT $LN20@plotDirect
	cmp	DWORD PTR _iX$[ebp], 0
	jge	SHORT $LN19@plotDirect
	mov	eax, DWORD PTR _iX$[ebp]
	cdq
	idiv	DWORD PTR $T231532[ebp]
	add	edx, DWORD PTR $T231532[ebp]
	mov	DWORD PTR _iMapX$231594[ebp], edx
	jmp	SHORT $LN21@plotDirect
	jmp	SHORT $LN20@plotDirect
$LN19@plotDirect:
	mov	eax, DWORD PTR _iX$[ebp]
	cmp	eax, DWORD PTR $T231532[ebp]
	jl	SHORT $LN20@plotDirect
	mov	eax, DWORD PTR _iX$[ebp]
	cdq
	idiv	DWORD PTR $T231532[ebp]
	mov	DWORD PTR _iMapX$231594[ebp], edx
	jmp	SHORT $LN21@plotDirect
$LN20@plotDirect:
	mov	ecx, DWORD PTR _iX$[ebp]
	mov	DWORD PTR _iMapX$231594[ebp], ecx
$LN21@plotDirect:
	mov	edx, DWORD PTR $T231521[ebp]
	mov	al, BYTE PTR [edx+4057]
	mov	BYTE PTR $T231543[ebp], al
	mov	ecx, DWORD PTR $T231521[ebp]
	mov	edx, DWORD PTR [ecx+4024]
	mov	DWORD PTR $T231547[ebp], edx
	movzx	eax, BYTE PTR $T231543[ebp]
	test	eax, eax
	je	SHORT $LN30@plotDirect
	cmp	DWORD PTR _iY$[ebp], 0
	jge	SHORT $LN29@plotDirect
	mov	eax, DWORD PTR _iY$[ebp]
	cdq
	idiv	DWORD PTR $T231547[ebp]
	add	edx, DWORD PTR $T231547[ebp]
	mov	DWORD PTR _iMapY$231595[ebp], edx
	jmp	SHORT $LN31@plotDirect
	jmp	SHORT $LN30@plotDirect
$LN29@plotDirect:
	mov	ecx, DWORD PTR _iY$[ebp]
	cmp	ecx, DWORD PTR $T231547[ebp]
	jl	SHORT $LN30@plotDirect
	mov	eax, DWORD PTR _iY$[ebp]
	cdq
	idiv	DWORD PTR $T231547[ebp]
	mov	DWORD PTR _iMapY$231595[ebp], edx
	jmp	SHORT $LN31@plotDirect
$LN30@plotDirect:
	mov	edx, DWORD PTR _iY$[ebp]
	mov	DWORD PTR _iMapY$231595[ebp], edx
$LN31@plotDirect:
	mov	eax, DWORD PTR _iMapY$231595[ebp]
	push	eax
	mov	ecx, DWORD PTR _iMapX$231594[ebp]
	push	ecx
	mov	ecx, DWORD PTR $T231521[ebp]
	call	?isPlot@CvMap@@QBEHHH@Z			; CvMap::isPlot
	test	eax, eax
	je	SHORT $LN11@plotDirect
	mov	edx, DWORD PTR $T231521[ebp]
	mov	eax, DWORD PTR [edx+4020]
	mov	DWORD PTR $T231559[ebp], eax
	mov	ecx, DWORD PTR _iMapY$231595[ebp]
	imul	ecx, DWORD PTR $T231559[ebp]
	add	ecx, DWORD PTR _iMapX$231594[ebp]
	imul	ecx, 484				; 000001e4H
	mov	edx, DWORD PTR $T231521[ebp]
	add	ecx, DWORD PTR [edx+4068]
	mov	DWORD PTR tv155[ebp], ecx
	jmp	SHORT $LN12@plotDirect
$LN11@plotDirect:
	mov	DWORD PTR tv155[ebp], 0
$LN12@plotDirect:
	mov	eax, DWORD PTR tv155[ebp]
	mov	DWORD PTR $T231596[ebp], eax
$LN9@plotDirect:
	mov	eax, DWORD PTR $T231596[ebp]
	jmp	$LN3@plotDirect

; 197  : 	}
; 198  : 	else

	jmp	$LN3@plotDirect
$LN2@plotDirect:

; 199  : 	{
; 200  : 		// convert to hex-space coordinates - the coordinate system axes are E and NE (not orthogonal)
; 201  : 		iX = xToHexspaceX(iX , iY);

	cmp	DWORD PTR _iY$[ebp], 0
	jl	SHORT $LN39@plotDirect
	mov	ecx, DWORD PTR _iY$[ebp]
	sar	ecx, 1
	mov	DWORD PTR tv151[ebp], ecx
	jmp	SHORT $LN37@plotDirect
$LN39@plotDirect:
	mov	eax, DWORD PTR _iY$[ebp]
	sub	eax, 1
	cdq
	sub	eax, edx
	sar	eax, 1
	mov	DWORD PTR tv151[ebp], eax
$LN37@plotDirect:
	mov	edx, DWORD PTR _iX$[ebp]
	sub	edx, DWORD PTR tv151[ebp]
	mov	DWORD PTR _iX$[ebp], edx

; 202  : 		iX += GC.getPlotDirectionX()[eDirection];

	mov	eax, DWORD PTR _eDirection$[ebp]
	mov	ecx, DWORD PTR _iX$[ebp]
	add	ecx, DWORD PTR ?gGlobals@@3VCvGlobals@@A[eax*4+112]
	mov	DWORD PTR _iX$[ebp], ecx

; 203  : 		iY += GC.getPlotDirectionY()[eDirection];

	mov	edx, DWORD PTR _eDirection$[ebp]
	mov	eax, DWORD PTR _iY$[ebp]
	add	eax, DWORD PTR ?gGlobals@@3VCvGlobals@@A[edx*4+136]
	mov	DWORD PTR _iY$[ebp], eax

; 204  : 
; 205  : 		// convert from hex-space coordinates to the storage array
; 206  : 		iX = hexspaceXToX(iX, iY);

	js	SHORT $LN47@plotDirect
	mov	ecx, DWORD PTR _iY$[ebp]
	sar	ecx, 1
	mov	DWORD PTR tv168[ebp], ecx
	jmp	SHORT $LN45@plotDirect
$LN47@plotDirect:
	mov	eax, DWORD PTR _iY$[ebp]
	sub	eax, 1
	cdq
	sub	eax, edx
	sar	eax, 1
	mov	DWORD PTR tv168[ebp], eax
$LN45@plotDirect:
	mov	edx, DWORD PTR _iX$[ebp]
	add	edx, DWORD PTR tv168[ebp]
	mov	DWORD PTR _iX$[ebp], edx

; 207  : 
; 208  : 		return GC.getMap().plot(iX, iY);

	mov	eax, DWORD PTR ?gGlobals@@3VCvGlobals@@A+52
	mov	DWORD PTR $T231620[ebp], eax
	cmp	DWORD PTR _iX$[ebp], -2147483647	; 80000001H
	je	SHORT $LN51@plotDirect
	cmp	DWORD PTR _iY$[ebp], -2147483647	; 80000001H
	jne	SHORT $LN52@plotDirect
$LN51@plotDirect:
	mov	DWORD PTR $T231722[ebp], 0
	jmp	$LN53@plotDirect
$LN52@plotDirect:
	mov	ecx, DWORD PTR $T231620[ebp]
	mov	dl, BYTE PTR [ecx+4056]
	mov	BYTE PTR $T231627[ebp], dl
	mov	eax, DWORD PTR $T231620[ebp]
	mov	ecx, DWORD PTR [eax+4020]
	mov	DWORD PTR $T231631[ebp], ecx
	movzx	edx, BYTE PTR $T231627[ebp]
	test	edx, edx
	je	SHORT $LN64@plotDirect
	cmp	DWORD PTR _iX$[ebp], 0
	jge	SHORT $LN63@plotDirect
	mov	eax, DWORD PTR _iX$[ebp]
	cdq
	idiv	DWORD PTR $T231631[ebp]
	add	edx, DWORD PTR $T231631[ebp]
	mov	DWORD PTR _iMapX$231720[ebp], edx
	jmp	SHORT $LN65@plotDirect
	jmp	SHORT $LN64@plotDirect
$LN63@plotDirect:
	mov	eax, DWORD PTR _iX$[ebp]
	cmp	eax, DWORD PTR $T231631[ebp]
	jl	SHORT $LN64@plotDirect
	mov	eax, DWORD PTR _iX$[ebp]
	cdq
	idiv	DWORD PTR $T231631[ebp]
	mov	DWORD PTR _iMapX$231720[ebp], edx
	jmp	SHORT $LN65@plotDirect
$LN64@plotDirect:
	mov	ecx, DWORD PTR _iX$[ebp]
	mov	DWORD PTR _iMapX$231720[ebp], ecx
$LN65@plotDirect:
	mov	edx, DWORD PTR $T231620[ebp]
	mov	al, BYTE PTR [edx+4057]
	mov	BYTE PTR $T231642[ebp], al
	mov	ecx, DWORD PTR $T231620[ebp]
	mov	edx, DWORD PTR [ecx+4024]
	mov	DWORD PTR $T231646[ebp], edx
	movzx	eax, BYTE PTR $T231642[ebp]
	test	eax, eax
	je	SHORT $LN74@plotDirect
	cmp	DWORD PTR _iY$[ebp], 0
	jge	SHORT $LN73@plotDirect
	mov	eax, DWORD PTR _iY$[ebp]
	cdq
	idiv	DWORD PTR $T231646[ebp]
	add	edx, DWORD PTR $T231646[ebp]
	mov	DWORD PTR _iMapY$231721[ebp], edx
	jmp	SHORT $LN75@plotDirect
	jmp	SHORT $LN74@plotDirect
$LN73@plotDirect:
	mov	ecx, DWORD PTR _iY$[ebp]
	cmp	ecx, DWORD PTR $T231646[ebp]
	jl	SHORT $LN74@plotDirect
	mov	eax, DWORD PTR _iY$[ebp]
	cdq
	idiv	DWORD PTR $T231646[ebp]
	mov	DWORD PTR _iMapY$231721[ebp], edx
	jmp	SHORT $LN75@plotDirect
$LN74@plotDirect:
	mov	edx, DWORD PTR _iY$[ebp]
	mov	DWORD PTR _iMapY$231721[ebp], edx
$LN75@plotDirect:
	cmp	DWORD PTR _iMapX$231720[ebp], 0
	jl	SHORT $LN79@plotDirect
	mov	eax, DWORD PTR $T231620[ebp]
	mov	ecx, DWORD PTR [eax+4020]
	mov	DWORD PTR $T231660[ebp], ecx
	mov	edx, DWORD PTR _iMapX$231720[ebp]
	cmp	edx, DWORD PTR $T231660[ebp]
	jge	SHORT $LN79@plotDirect
	cmp	DWORD PTR _iMapY$231721[ebp], 0
	jl	SHORT $LN79@plotDirect
	mov	eax, DWORD PTR $T231620[ebp]
	mov	ecx, DWORD PTR [eax+4024]
	mov	DWORD PTR $T231664[ebp], ecx
	mov	edx, DWORD PTR _iMapY$231721[ebp]
	cmp	edx, DWORD PTR $T231664[ebp]
	jge	SHORT $LN79@plotDirect
	mov	DWORD PTR tv213[ebp], 1
	jmp	SHORT $LN77@plotDirect
$LN79@plotDirect:
	mov	DWORD PTR tv213[ebp], 0
$LN77@plotDirect:
	cmp	DWORD PTR tv213[ebp], 0
	je	SHORT $LN55@plotDirect
	mov	eax, DWORD PTR $T231620[ebp]
	mov	ecx, DWORD PTR [eax+4020]
	mov	DWORD PTR $T231677[ebp], ecx
	mov	edx, DWORD PTR _iMapY$231721[ebp]
	imul	edx, DWORD PTR $T231677[ebp]
	add	edx, DWORD PTR _iMapX$231720[ebp]
	imul	edx, 484				; 000001e4H
	mov	eax, DWORD PTR $T231620[ebp]
	add	edx, DWORD PTR [eax+4068]
	mov	DWORD PTR tv198[ebp], edx
	jmp	SHORT $LN56@plotDirect
$LN55@plotDirect:
	mov	DWORD PTR tv198[ebp], 0
$LN56@plotDirect:
	mov	ecx, DWORD PTR tv198[ebp]
	mov	DWORD PTR $T231722[ebp], ecx
$LN53@plotDirect:
	mov	eax, DWORD PTR $T231722[ebp]
$LN3@plotDirect:

; 209  : 	}
; 210  : }

	mov	esp, ebp
	pop	ebp
	ret	0
?plotDirection@@YAPAVCvPlot@@HHW4DirectionTypes@@@Z ENDP ; plotDirection
_TEXT	ENDS
PUBLIC	?isAdjacentToArea@CvPlot@@QBE_NPBVCvArea@@@Z	; CvPlot::isAdjacentToArea
; Function compile flags: /Odtp
; File d:\sources\lekmod_git\checkout\lekmod_dll\cvgamecoredll_expansion2\cvplot.cpp
;	COMDAT ?isAdjacentToArea@CvPlot@@QBE_NPBVCvArea@@@Z
_TEXT	SEGMENT
_this$ = -8						; size = 4
$T231728 = -4						; size = 4
_pArea$ = 8						; size = 4
?isAdjacentToArea@CvPlot@@QBE_NPBVCvArea@@@Z PROC	; CvPlot::isAdjacentToArea, COMDAT
; _this$ = ecx

; 850  : {

	push	ebp
	mov	ebp, esp
	sub	esp, 8
	mov	DWORD PTR _this$[ebp], ecx

; 851  : 	return isAdjacentToArea(pArea->GetID());

	mov	eax, DWORD PTR _pArea$[ebp]
	mov	ecx, DWORD PTR [eax+4]
	mov	DWORD PTR $T231728[ebp], ecx
	mov	edx, DWORD PTR $T231728[ebp]
	push	edx
	mov	ecx, DWORD PTR _this$[ebp]
	call	?isAdjacentToArea@CvPlot@@QBE_NH@Z	; CvPlot::isAdjacentToArea

; 852  : }

	mov	esp, ebp
	pop	ebp
	ret	4
?isAdjacentToArea@CvPlot@@QBE_NPBVCvArea@@@Z ENDP	; CvPlot::isAdjacentToArea
_TEXT	ENDS
PUBLIC	?shareAdjacentArea@CvPlot@@QBE_NPBV1@@Z		; CvPlot::shareAdjacentArea
; Function compile flags: /Odtp
;	COMDAT ?shareAdjacentArea@CvPlot@@QBE_NPBV1@@Z
_TEXT	SEGMENT
_this$ = -116						; size = 4
$T231738 = -24						; size = 4
$T231734 = -20						; size = 4
_iCurrArea$ = -16					; size = 4
_iLastArea$ = -12					; size = 4
_iI$ = -8						; size = 4
_pAdjacentPlot$ = -4					; size = 4
_pPlot$ = 8						; size = 4
?shareAdjacentArea@CvPlot@@QBE_NPBV1@@Z PROC		; CvPlot::shareAdjacentArea, COMDAT
; _this$ = ecx

; 857  : {

	push	ebp
	mov	ebp, esp
	sub	esp, 116				; 00000074H
	mov	DWORD PTR _this$[ebp], ecx

; 858  : 	int iCurrArea;
; 859  : 	int iLastArea;
; 860  : 	CvPlot* pAdjacentPlot;
; 861  : 	int iI;
; 862  : 
; 863  : 	iLastArea = FFreeList::INVALID_INDEX;

	mov	DWORD PTR _iLastArea$[ebp], -1

; 864  : 
; 865  : 	for(iI = 0; iI < NUM_DIRECTION_TYPES; ++iI)

	mov	DWORD PTR _iI$[ebp], 0
	jmp	SHORT $LN6@shareAdjac
$LN5@shareAdjac:
	mov	eax, DWORD PTR _iI$[ebp]
	add	eax, 1
	mov	DWORD PTR _iI$[ebp], eax
$LN6@shareAdjac:
	cmp	DWORD PTR _iI$[ebp], 6
	jge	SHORT $LN4@shareAdjac

; 866  : 	{
; 867  : 		pAdjacentPlot = plotDirection(getX(), getY(), ((DirectionTypes)iI));

	mov	ecx, DWORD PTR _this$[ebp]
	movsx	edx, WORD PTR [ecx+2]
	mov	DWORD PTR $T231734[ebp], edx
	mov	eax, DWORD PTR _this$[ebp]
	movsx	ecx, WORD PTR [eax]
	mov	DWORD PTR $T231738[ebp], ecx
	mov	edx, DWORD PTR _iI$[ebp]
	push	edx
	mov	eax, DWORD PTR $T231734[ebp]
	push	eax
	mov	ecx, DWORD PTR $T231738[ebp]
	push	ecx
	call	?plotDirection@@YAPAVCvPlot@@HHW4DirectionTypes@@@Z ; plotDirection
	add	esp, 12					; 0000000cH
	mov	DWORD PTR _pAdjacentPlot$[ebp], eax

; 868  : 
; 869  : 		if(pAdjacentPlot != NULL)

	cmp	DWORD PTR _pAdjacentPlot$[ebp], 0
	je	SHORT $LN3@shareAdjac

; 870  : 		{
; 871  : 			iCurrArea = pAdjacentPlot->getArea();

	mov	edx, DWORD PTR _pAdjacentPlot$[ebp]
	mov	eax, DWORD PTR [edx+356]
	mov	DWORD PTR _iCurrArea$[ebp], eax

; 872  : 
; 873  : 			if(iCurrArea != iLastArea)

	mov	ecx, DWORD PTR _iCurrArea$[ebp]
	cmp	ecx, DWORD PTR _iLastArea$[ebp]
	je	SHORT $LN3@shareAdjac

; 874  : 			{
; 875  : 				if(pPlot->isAdjacentToArea(iCurrArea))

	mov	edx, DWORD PTR _iCurrArea$[ebp]
	push	edx
	mov	ecx, DWORD PTR _pPlot$[ebp]
	call	?isAdjacentToArea@CvPlot@@QBE_NH@Z	; CvPlot::isAdjacentToArea
	movzx	eax, al
	test	eax, eax
	je	SHORT $LN1@shareAdjac

; 876  : 				{
; 877  : 					return true;

	mov	al, 1
	jmp	SHORT $LN7@shareAdjac
$LN1@shareAdjac:

; 878  : 				}
; 879  : 
; 880  : 				iLastArea = iCurrArea;

	mov	ecx, DWORD PTR _iCurrArea$[ebp]
	mov	DWORD PTR _iLastArea$[ebp], ecx
$LN3@shareAdjac:

; 881  : 			}
; 882  : 		}
; 883  : 	}

	jmp	SHORT $LN5@shareAdjac
$LN4@shareAdjac:

; 884  : 
; 885  : 	return false;

	xor	al, al
$LN7@shareAdjac:

; 886  : }

	mov	esp, ebp
	pop	ebp
	ret	4
?shareAdjacentArea@CvPlot@@QBE_NPBV1@@Z ENDP		; CvPlot::shareAdjacentArea
_TEXT	ENDS
PUBLIC	?isAdjacent@CvPlot@@QBE_NPBV1@@Z		; CvPlot::isAdjacent
; Function compile flags: /Odtp
;	COMDAT ?isAdjacent@CvPlot@@QBE_NPBV1@@Z
_TEXT	SEGMENT
_this$ = -108						; size = 4
$T231958 = -16						; size = 4
$T231954 = -12						; size = 4
_iI$ = -8						; size = 4
_pAdjacentPlot$ = -4					; size = 4
_pPlot$ = 8						; size = 4
?isAdjacent@CvPlot@@QBE_NPBV1@@Z PROC			; CvPlot::isAdjacent, COMDAT
; _this$ = ecx

; 890  : {

	push	ebp
	mov	ebp, esp
	sub	esp, 108				; 0000006cH
	mov	DWORD PTR _this$[ebp], ecx

; 891  : 	if(pPlot == NULL)

	cmp	DWORD PTR _pPlot$[ebp], 0
	jne	SHORT $LN5@isAdjacent@2

; 892  : 	{
; 893  : 		return false;

	xor	al, al
	jmp	SHORT $LN6@isAdjacent@2
$LN5@isAdjacent@2:

; 894  : 	}
; 895  : 
; 896  : 	CvPlot* pAdjacentPlot;
; 897  : 	int iI;
; 898  : 
; 899  : 	for(iI = 0; iI < NUM_DIRECTION_TYPES; ++iI)

	mov	DWORD PTR _iI$[ebp], 0
	jmp	SHORT $LN4@isAdjacent@2
$LN3@isAdjacent@2:
	mov	eax, DWORD PTR _iI$[ebp]
	add	eax, 1
	mov	DWORD PTR _iI$[ebp], eax
$LN4@isAdjacent@2:
	cmp	DWORD PTR _iI$[ebp], 6
	jge	SHORT $LN2@isAdjacent@2

; 900  : 	{
; 901  : 		pAdjacentPlot = plotDirection(getX(), getY(), ((DirectionTypes)iI));

	mov	ecx, DWORD PTR _this$[ebp]
	movsx	edx, WORD PTR [ecx+2]
	mov	DWORD PTR $T231954[ebp], edx
	mov	eax, DWORD PTR _this$[ebp]
	movsx	ecx, WORD PTR [eax]
	mov	DWORD PTR $T231958[ebp], ecx
	mov	edx, DWORD PTR _iI$[ebp]
	push	edx
	mov	eax, DWORD PTR $T231954[ebp]
	push	eax
	mov	ecx, DWORD PTR $T231958[ebp]
	push	ecx
	call	?plotDirection@@YAPAVCvPlot@@HHW4DirectionTypes@@@Z ; plotDirection
	add	esp, 12					; 0000000cH
	mov	DWORD PTR _pAdjacentPlot$[ebp], eax

; 902  : 
; 903  : 		if(pAdjacentPlot == pPlot)

	mov	edx, DWORD PTR _pAdjacentPlot$[ebp]
	cmp	edx, DWORD PTR _pPlot$[ebp]
	jne	SHORT $LN1@isAdjacent@2

; 904  : 		{
; 905  : 			return true;

	mov	al, 1
	jmp	SHORT $LN6@isAdjacent@2
$LN1@isAdjacent@2:

; 906  : 		}
; 907  : 	}

	jmp	SHORT $LN3@isAdjacent@2
$LN2@isAdjacent@2:

; 908  : 
; 909  : 	return false;

	xor	al, al
$LN6@isAdjacent@2:

; 910  : }

	mov	esp, ebp
	pop	ebp
	ret	4
?isAdjacent@CvPlot@@QBE_NPBV1@@Z ENDP			; CvPlot::isAdjacent
_TEXT	ENDS
PUBLIC	?isAdjacentToLand@CvPlot@@QBE_NXZ		; CvPlot::isAdjacentToLand
; Function compile flags: /Odtp
;	COMDAT ?isAdjacentToLand@CvPlot@@QBE_NXZ
_TEXT	SEGMENT
_this$ = -108						; size = 4
$T232188 = -16						; size = 4
$T232184 = -12						; size = 4
_iI$ = -8						; size = 4
_pAdjacentPlot$ = -4					; size = 4
?isAdjacentToLand@CvPlot@@QBE_NXZ PROC			; CvPlot::isAdjacentToLand, COMDAT
; _this$ = ecx

; 914  : {

	push	ebp
	mov	ebp, esp
	sub	esp, 108				; 0000006cH
	mov	DWORD PTR _this$[ebp], ecx

; 915  : 	CvPlot* pAdjacentPlot;
; 916  : 	int iI;
; 917  : 
; 918  : 	for(iI = 0; iI < NUM_DIRECTION_TYPES; ++iI)

	mov	DWORD PTR _iI$[ebp], 0
	jmp	SHORT $LN5@isAdjacent@3
$LN4@isAdjacent@3:
	mov	eax, DWORD PTR _iI$[ebp]
	add	eax, 1
	mov	DWORD PTR _iI$[ebp], eax
$LN5@isAdjacent@3:
	cmp	DWORD PTR _iI$[ebp], 6
	jge	SHORT $LN3@isAdjacent@3

; 919  : 	{
; 920  : 		pAdjacentPlot = plotDirection(getX(), getY(), ((DirectionTypes)iI));

	mov	ecx, DWORD PTR _this$[ebp]
	movsx	edx, WORD PTR [ecx+2]
	mov	DWORD PTR $T232184[ebp], edx
	mov	eax, DWORD PTR _this$[ebp]
	movsx	ecx, WORD PTR [eax]
	mov	DWORD PTR $T232188[ebp], ecx
	mov	edx, DWORD PTR _iI$[ebp]
	push	edx
	mov	eax, DWORD PTR $T232184[ebp]
	push	eax
	mov	ecx, DWORD PTR $T232188[ebp]
	push	ecx
	call	?plotDirection@@YAPAVCvPlot@@HHW4DirectionTypes@@@Z ; plotDirection
	add	esp, 12					; 0000000cH
	mov	DWORD PTR _pAdjacentPlot$[ebp], eax

; 921  : 
; 922  : 		if(pAdjacentPlot != NULL)

	cmp	DWORD PTR _pAdjacentPlot$[ebp], 0
	je	SHORT $LN2@isAdjacent@3

; 923  : 		{
; 924  : 			if(!(pAdjacentPlot->isWater()))

	mov	edx, DWORD PTR _pAdjacentPlot$[ebp]
	movsx	eax, BYTE PTR [edx+5]
	xor	ecx, ecx
	cmp	eax, 3
	sete	cl
	movzx	edx, cl
	test	edx, edx
	jne	SHORT $LN2@isAdjacent@3

; 925  : 			{
; 926  : 				return true;

	mov	al, 1
	jmp	SHORT $LN6@isAdjacent@3
$LN2@isAdjacent@3:

; 927  : 			}
; 928  : 		}
; 929  : 	}

	jmp	SHORT $LN4@isAdjacent@3
$LN3@isAdjacent@3:

; 930  : 
; 931  : 	return false;

	xor	al, al
$LN6@isAdjacent@3:

; 932  : }

	mov	esp, ebp
	pop	ebp
	ret	0
?isAdjacentToLand@CvPlot@@QBE_NXZ ENDP			; CvPlot::isAdjacentToLand
_TEXT	ENDS
PUBLIC	?isShallowWater@CvPlot@@QBE_NXZ			; CvPlot::isShallowWater
; Function compile flags: /Odtp
;	COMDAT ?isShallowWater@CvPlot@@QBE_NXZ
_TEXT	SEGMENT
_this$ = -8						; size = 4
_eShallowWater$222397 = -4				; size = 4
?isShallowWater@CvPlot@@QBE_NXZ PROC			; CvPlot::isShallowWater, COMDAT
; _this$ = ecx

; 936  : {

	push	ebp
	mov	ebp, esp
	sub	esp, 8
	mov	DWORD PTR _this$[ebp], ecx

; 937  : 	if(isWater())

	mov	eax, DWORD PTR _this$[ebp]
	movsx	ecx, BYTE PTR [eax+5]
	xor	edx, edx
	cmp	ecx, 3
	sete	dl
	movzx	eax, dl
	test	eax, eax
	je	SHORT $LN2@isShallowW

; 938  : 	{
; 939  : 		TerrainTypes eShallowWater = (TerrainTypes) GC.getSHALLOW_WATER_TERRAIN();

	mov	ecx, DWORD PTR ?gGlobals@@3VCvGlobals@@A+8396
	mov	DWORD PTR _eShallowWater$222397[ebp], ecx

; 940  : 		if(getTerrainType() == eShallowWater)

	mov	edx, DWORD PTR _this$[ebp]
	movsx	eax, BYTE PTR [edx+6]
	cmp	eax, DWORD PTR _eShallowWater$222397[ebp]
	jne	SHORT $LN2@isShallowW

; 941  : 		{
; 942  : 			return true;

	mov	al, 1
	jmp	SHORT $LN3@isShallowW
$LN2@isShallowW:

; 943  : 		}
; 944  : 	}
; 945  : 	return false;

	xor	al, al
$LN3@isShallowW:

; 946  : }

	mov	esp, ebp
	pop	ebp
	ret	0
?isShallowWater@CvPlot@@QBE_NXZ ENDP			; CvPlot::isShallowWater
_TEXT	ENDS
PUBLIC	?isAdjacentToShallowWater@CvPlot@@QBE_NXZ	; CvPlot::isAdjacentToShallowWater
; Function compile flags: /Odtp
;	COMDAT ?isAdjacentToShallowWater@CvPlot@@QBE_NXZ
_TEXT	SEGMENT
_this$ = -112						; size = 4
$T232422 = -20						; size = 4
$T232418 = -16						; size = 4
_eShallowWater$ = -12					; size = 4
_iI$ = -8						; size = 4
_pAdjacentPlot$ = -4					; size = 4
?isAdjacentToShallowWater@CvPlot@@QBE_NXZ PROC		; CvPlot::isAdjacentToShallowWater, COMDAT
; _this$ = ecx

; 950  : {

	push	ebp
	mov	ebp, esp
	sub	esp, 112				; 00000070H
	mov	DWORD PTR _this$[ebp], ecx

; 951  : 	CvPlot* pAdjacentPlot;
; 952  : 	int iI;
; 953  : 
; 954  : 	TerrainTypes eShallowWater = (TerrainTypes) GC.getSHALLOW_WATER_TERRAIN();

	mov	eax, DWORD PTR ?gGlobals@@3VCvGlobals@@A+8396
	mov	DWORD PTR _eShallowWater$[ebp], eax

; 955  : 
; 956  : 	for(iI = 0; iI < NUM_DIRECTION_TYPES; ++iI)

	mov	DWORD PTR _iI$[ebp], 0
	jmp	SHORT $LN5@isAdjacent@4
$LN4@isAdjacent@4:
	mov	ecx, DWORD PTR _iI$[ebp]
	add	ecx, 1
	mov	DWORD PTR _iI$[ebp], ecx
$LN5@isAdjacent@4:
	cmp	DWORD PTR _iI$[ebp], 6
	jge	SHORT $LN3@isAdjacent@4

; 957  : 	{
; 958  : 		pAdjacentPlot = plotDirection(getX(), getY(), ((DirectionTypes)iI));

	mov	edx, DWORD PTR _this$[ebp]
	movsx	eax, WORD PTR [edx+2]
	mov	DWORD PTR $T232418[ebp], eax
	mov	ecx, DWORD PTR _this$[ebp]
	movsx	edx, WORD PTR [ecx]
	mov	DWORD PTR $T232422[ebp], edx
	mov	eax, DWORD PTR _iI$[ebp]
	push	eax
	mov	ecx, DWORD PTR $T232418[ebp]
	push	ecx
	mov	edx, DWORD PTR $T232422[ebp]
	push	edx
	call	?plotDirection@@YAPAVCvPlot@@HHW4DirectionTypes@@@Z ; plotDirection
	add	esp, 12					; 0000000cH
	mov	DWORD PTR _pAdjacentPlot$[ebp], eax

; 959  : 
; 960  : 		if(pAdjacentPlot != NULL)

	cmp	DWORD PTR _pAdjacentPlot$[ebp], 0
	je	SHORT $LN2@isAdjacent@4

; 961  : 		{
; 962  : 			if(pAdjacentPlot->getTerrainType() == eShallowWater)

	mov	eax, DWORD PTR _pAdjacentPlot$[ebp]
	movsx	ecx, BYTE PTR [eax+6]
	cmp	ecx, DWORD PTR _eShallowWater$[ebp]
	jne	SHORT $LN2@isAdjacent@4

; 963  : 			{
; 964  : 				return true;

	mov	al, 1
	jmp	SHORT $LN6@isAdjacent@4
$LN2@isAdjacent@4:

; 965  : 			}
; 966  : 		}
; 967  : 	}

	jmp	SHORT $LN4@isAdjacent@4
$LN3@isAdjacent@4:

; 968  : 
; 969  : 	return false;

	xor	al, al
$LN6@isAdjacent@4:

; 970  : }

	mov	esp, ebp
	pop	ebp
	ret	0
?isAdjacentToShallowWater@CvPlot@@QBE_NXZ ENDP		; CvPlot::isAdjacentToShallowWater
_TEXT	ENDS
PUBLIC	?isCoastalLand@CvPlot@@QBE_NH@Z			; CvPlot::isCoastalLand
EXTRN	?getNumTiles@CvLandmass@@QBEHXZ:PROC		; CvLandmass::getNumTiles
EXTRN	?getLandmass@CvMap@@QAEPAVCvLandmass@@H@Z:PROC	; CvMap::getLandmass
; Function compile flags: /Odtp
;	COMDAT ?isCoastalLand@CvPlot@@QBE_NH@Z
_TEXT	SEGMENT
_this$ = -112						; size = 4
$T232839 = -108						; size = 4
$T232835 = -104						; size = 4
$T232648 = -20						; size = 4
$T232644 = -16						; size = 4
_pAdjacentBodyOfWater$222428 = -12			; size = 4
_iI$ = -8						; size = 4
_pAdjacentPlot$ = -4					; size = 4
_iMinWaterSize$ = 8					; size = 4
?isCoastalLand@CvPlot@@QBE_NH@Z PROC			; CvPlot::isCoastalLand, COMDAT
; _this$ = ecx

; 975  : {

	push	ebp
	mov	ebp, esp
	sub	esp, 112				; 00000070H
	mov	DWORD PTR _this$[ebp], ecx

; 976  : 	CvPlot* pAdjacentPlot;
; 977  : 	int iI;
; 978  : 
; 979  : 	if(isWater())

	mov	eax, DWORD PTR _this$[ebp]
	movsx	ecx, BYTE PTR [eax+5]
	xor	edx, edx
	cmp	ecx, 3
	sete	dl
	movzx	eax, dl
	test	eax, eax
	je	SHORT $LN9@isCoastalL

; 980  : 	{
; 981  : 		return false;

	xor	al, al
	jmp	$LN10@isCoastalL
$LN9@isCoastalL:

; 982  : 	}
; 983  : 
; 984  : 	// If -1 was passed in (default argument) use min water size for ocean define
; 985  : 	if(iMinWaterSize == -1)

	cmp	DWORD PTR _iMinWaterSize$[ebp], -1
	jne	SHORT $LN8@isCoastalL

; 986  : 	{
; 987  : 		iMinWaterSize = GC.getMIN_WATER_SIZE_FOR_OCEAN();

	mov	ecx, DWORD PTR ?gGlobals@@3VCvGlobals@@A+6876
	mov	DWORD PTR _iMinWaterSize$[ebp], ecx
$LN8@isCoastalL:

; 988  : 	}
; 989  : 
; 990  : 	for(iI = 0; iI < NUM_DIRECTION_TYPES; ++iI)

	mov	DWORD PTR _iI$[ebp], 0
	jmp	SHORT $LN7@isCoastalL
$LN6@isCoastalL:
	mov	edx, DWORD PTR _iI$[ebp]
	add	edx, 1
	mov	DWORD PTR _iI$[ebp], edx
$LN7@isCoastalL:
	cmp	DWORD PTR _iI$[ebp], 6
	jge	$LN5@isCoastalL

; 991  : 	{
; 992  : 		pAdjacentPlot = plotDirection(getX(), getY(), ((DirectionTypes)iI));

	mov	eax, DWORD PTR _this$[ebp]
	movsx	ecx, WORD PTR [eax+2]
	mov	DWORD PTR $T232644[ebp], ecx
	mov	edx, DWORD PTR _this$[ebp]
	movsx	eax, WORD PTR [edx]
	mov	DWORD PTR $T232648[ebp], eax
	mov	ecx, DWORD PTR _iI$[ebp]
	push	ecx
	mov	edx, DWORD PTR $T232644[ebp]
	push	edx
	mov	eax, DWORD PTR $T232648[ebp]
	push	eax
	call	?plotDirection@@YAPAVCvPlot@@HHW4DirectionTypes@@@Z ; plotDirection
	add	esp, 12					; 0000000cH
	mov	DWORD PTR _pAdjacentPlot$[ebp], eax

; 993  : 
; 994  : 		if(pAdjacentPlot != NULL)

	cmp	DWORD PTR _pAdjacentPlot$[ebp], 0
	je	SHORT $LN4@isCoastalL

; 995  : 		{
; 996  : 			if(pAdjacentPlot->isWater())

	mov	ecx, DWORD PTR _pAdjacentPlot$[ebp]
	movsx	edx, BYTE PTR [ecx+5]
	xor	eax, eax
	cmp	edx, 3
	sete	al
	movzx	ecx, al
	test	ecx, ecx
	je	SHORT $LN4@isCoastalL

; 997  : 			{
; 998  : 				if(iMinWaterSize <= 0)

	cmp	DWORD PTR _iMinWaterSize$[ebp], 0
	jg	SHORT $LN2@isCoastalL

; 999  : 				{
; 1000 : 					return true;

	mov	al, 1
	jmp	SHORT $LN10@isCoastalL
$LN2@isCoastalL:

; 1001 : 				}
; 1002 : 				CvLandmass* pAdjacentBodyOfWater = GC.getMap().getLandmass(pAdjacentPlot->getLandmass());

	mov	edx, DWORD PTR _pAdjacentPlot$[ebp]
	mov	eax, DWORD PTR [edx+360]
	mov	DWORD PTR $T232835[ebp], eax
	mov	ecx, DWORD PTR ?gGlobals@@3VCvGlobals@@A+52
	mov	DWORD PTR $T232839[ebp], ecx
	mov	edx, DWORD PTR $T232835[ebp]
	push	edx
	mov	ecx, DWORD PTR $T232839[ebp]
	call	?getLandmass@CvMap@@QAEPAVCvLandmass@@H@Z ; CvMap::getLandmass
	mov	DWORD PTR _pAdjacentBodyOfWater$222428[ebp], eax

; 1003 : 				if(pAdjacentBodyOfWater && pAdjacentBodyOfWater->getNumTiles() >= iMinWaterSize)

	cmp	DWORD PTR _pAdjacentBodyOfWater$222428[ebp], 0
	je	SHORT $LN4@isCoastalL
	mov	ecx, DWORD PTR _pAdjacentBodyOfWater$222428[ebp]
	call	?getNumTiles@CvLandmass@@QBEHXZ		; CvLandmass::getNumTiles
	cmp	eax, DWORD PTR _iMinWaterSize$[ebp]
	jl	SHORT $LN4@isCoastalL

; 1004 : 				{
; 1005 : 					return true;

	mov	al, 1
	jmp	SHORT $LN10@isCoastalL
$LN4@isCoastalL:

; 1006 : 				}
; 1007 : 			}
; 1008 : 		}
; 1009 : 	}

	jmp	$LN6@isCoastalL
$LN5@isCoastalL:

; 1010 : 
; 1011 : 	return false;

	xor	al, al
$LN10@isCoastalL:

; 1012 : }

	mov	esp, ebp
	pop	ebp
	ret	4
?isCoastalLand@CvPlot@@QBE_NH@Z ENDP			; CvPlot::isCoastalLand
_TEXT	ENDS
PUBLIC	?GetSizeLargestAdjacentWater@CvPlot@@QBEHXZ	; CvPlot::GetSizeLargestAdjacentWater
; Function compile flags: /Odtp
;	COMDAT ?GetSizeLargestAdjacentWater@CvPlot@@QBEHXZ
_TEXT	SEGMENT
_this$ = -116						; size = 4
$T233043 = -112						; size = 4
$T233039 = -108						; size = 4
$T232852 = -24						; size = 4
$T232848 = -20						; size = 4
_pAdjacentBodyOfWater$222443 = -16			; size = 4
_iRtnValue$ = -12					; size = 4
_iI$ = -8						; size = 4
_pAdjacentPlot$ = -4					; size = 4
?GetSizeLargestAdjacentWater@CvPlot@@QBEHXZ PROC	; CvPlot::GetSizeLargestAdjacentWater, COMDAT
; _this$ = ecx

; 1016 : {

	push	ebp
	mov	ebp, esp
	sub	esp, 116				; 00000074H
	mov	DWORD PTR _this$[ebp], ecx

; 1017 : 	CvPlot* pAdjacentPlot;
; 1018 : 	int iI;
; 1019 : 	int iRtnValue = 0;

	mov	DWORD PTR _iRtnValue$[ebp], 0

; 1020 : 
; 1021 : 	if(isWater())

	mov	eax, DWORD PTR _this$[ebp]
	movsx	ecx, BYTE PTR [eax+5]
	xor	edx, edx
	cmp	ecx, 3
	sete	dl
	movzx	eax, dl
	test	eax, eax
	je	SHORT $LN7@GetSizeLar

; 1022 : 	{
; 1023 : 		return iRtnValue;

	mov	eax, DWORD PTR _iRtnValue$[ebp]
	jmp	$LN8@GetSizeLar
$LN7@GetSizeLar:

; 1024 : 	}
; 1025 : 
; 1026 : 	for(iI = 0; iI < NUM_DIRECTION_TYPES; ++iI)

	mov	DWORD PTR _iI$[ebp], 0
	jmp	SHORT $LN6@GetSizeLar
$LN5@GetSizeLar:
	mov	ecx, DWORD PTR _iI$[ebp]
	add	ecx, 1
	mov	DWORD PTR _iI$[ebp], ecx
$LN6@GetSizeLar:
	cmp	DWORD PTR _iI$[ebp], 6
	jge	$LN4@GetSizeLar

; 1027 : 	{
; 1028 : 		pAdjacentPlot = plotDirection(getX(), getY(), ((DirectionTypes)iI));

	mov	edx, DWORD PTR _this$[ebp]
	movsx	eax, WORD PTR [edx+2]
	mov	DWORD PTR $T232848[ebp], eax
	mov	ecx, DWORD PTR _this$[ebp]
	movsx	edx, WORD PTR [ecx]
	mov	DWORD PTR $T232852[ebp], edx
	mov	eax, DWORD PTR _iI$[ebp]
	push	eax
	mov	ecx, DWORD PTR $T232848[ebp]
	push	ecx
	mov	edx, DWORD PTR $T232852[ebp]
	push	edx
	call	?plotDirection@@YAPAVCvPlot@@HHW4DirectionTypes@@@Z ; plotDirection
	add	esp, 12					; 0000000cH
	mov	DWORD PTR _pAdjacentPlot$[ebp], eax

; 1029 : 
; 1030 : 		if(pAdjacentPlot != NULL)

	cmp	DWORD PTR _pAdjacentPlot$[ebp], 0
	je	SHORT $LN3@GetSizeLar

; 1031 : 		{
; 1032 : 			if(pAdjacentPlot->isWater())

	mov	eax, DWORD PTR _pAdjacentPlot$[ebp]
	movsx	ecx, BYTE PTR [eax+5]
	xor	edx, edx
	cmp	ecx, 3
	sete	dl
	movzx	eax, dl
	test	eax, eax
	je	SHORT $LN3@GetSizeLar

; 1033 : 			{
; 1034 : 				CvLandmass* pAdjacentBodyOfWater = GC.getMap().getLandmass(pAdjacentPlot->getLandmass());

	mov	ecx, DWORD PTR _pAdjacentPlot$[ebp]
	mov	edx, DWORD PTR [ecx+360]
	mov	DWORD PTR $T233039[ebp], edx
	mov	eax, DWORD PTR ?gGlobals@@3VCvGlobals@@A+52
	mov	DWORD PTR $T233043[ebp], eax
	mov	ecx, DWORD PTR $T233039[ebp]
	push	ecx
	mov	ecx, DWORD PTR $T233043[ebp]
	call	?getLandmass@CvMap@@QAEPAVCvLandmass@@H@Z ; CvMap::getLandmass
	mov	DWORD PTR _pAdjacentBodyOfWater$222443[ebp], eax

; 1035 : 				if (pAdjacentBodyOfWater && pAdjacentBodyOfWater->getNumTiles() >= iRtnValue)

	cmp	DWORD PTR _pAdjacentBodyOfWater$222443[ebp], 0
	je	SHORT $LN3@GetSizeLar
	mov	ecx, DWORD PTR _pAdjacentBodyOfWater$222443[ebp]
	call	?getNumTiles@CvLandmass@@QBEHXZ		; CvLandmass::getNumTiles
	cmp	eax, DWORD PTR _iRtnValue$[ebp]
	jl	SHORT $LN3@GetSizeLar

; 1036 : 				{
; 1037 : 					iRtnValue = pAdjacentBodyOfWater->getNumTiles();

	mov	ecx, DWORD PTR _pAdjacentBodyOfWater$222443[ebp]
	call	?getNumTiles@CvLandmass@@QBEHXZ		; CvLandmass::getNumTiles
	mov	DWORD PTR _iRtnValue$[ebp], eax
$LN3@GetSizeLar:

; 1038 : 				}
; 1039 : 			}
; 1040 : 		}
; 1041 : 	}

	jmp	$LN5@GetSizeLar
$LN4@GetSizeLar:

; 1042 : 
; 1043 : 	return iRtnValue;

	mov	eax, DWORD PTR _iRtnValue$[ebp]
$LN8@GetSizeLar:

; 1044 : }

	mov	esp, ebp
	pop	ebp
	ret	0
?GetSizeLargestAdjacentWater@CvPlot@@QBEHXZ ENDP	; CvPlot::GetSizeLargestAdjacentWater
_TEXT	ENDS
PUBLIC	?isVisibleWorked@CvPlot@@QBE_NXZ		; CvPlot::isVisibleWorked
; Function compile flags: /Odtp
;	COMDAT ?isVisibleWorked@CvPlot@@QBE_NXZ
_TEXT	SEGMENT
_this$ = -20						; size = 4
$T233070 = -16						; size = 4
$T233066 = -12						; size = 4
$T233062 = -8						; size = 4
_playerID$233054 = -4					; size = 4
?isVisibleWorked@CvPlot@@QBE_NXZ PROC			; CvPlot::isVisibleWorked, COMDAT
; _this$ = ecx

; 1048 : {

	push	ebp
	mov	ebp, esp
	sub	esp, 20					; 00000014H
	mov	DWORD PTR _this$[ebp], ecx

; 1049 : 	if(isBeingWorked())

	mov	ecx, DWORD PTR _this$[ebp]
	call	?isBeingWorked@CvPlot@@QBE_NXZ		; CvPlot::isBeingWorked
	movzx	eax, al
	test	eax, eax
	je	SHORT $LN3@isVisibleW

; 1050 : 	{
; 1051 : 		if((getTeam() == GC.getGame().getActiveTeam()) || GC.getGame().isDebugMode())

	mov	ecx, DWORD PTR _this$[ebp]
	movsx	edx, BYTE PTR [ecx+4]
	mov	DWORD PTR _playerID$233054[ebp], edx
	cmp	DWORD PTR _playerID$233054[ebp], -1
	je	SHORT $LN7@isVisibleW
	mov	eax, DWORD PTR _playerID$233054[ebp]
	push	eax
	call	?teamType@CvPreGame@@YA?AW4TeamTypes@@W4PlayerTypes@@@Z ; CvPreGame::teamType
	add	esp, 4
	mov	DWORD PTR $T233062[ebp], eax
	jmp	SHORT $LN8@isVisibleW
	jmp	SHORT $LN8@isVisibleW
$LN7@isVisibleW:
	mov	DWORD PTR $T233062[ebp], -1
$LN8@isVisibleW:
	mov	ecx, DWORD PTR ?gGlobals@@3VCvGlobals@@A+48
	mov	DWORD PTR $T233066[ebp], ecx
	mov	ecx, DWORD PTR $T233066[ebp]
	call	?getActiveTeam@CvGame@@QAE?AW4TeamTypes@@XZ ; CvGame::getActiveTeam
	cmp	DWORD PTR $T233062[ebp], eax
	je	SHORT $LN1@isVisibleW
	mov	edx, DWORD PTR ?gGlobals@@3VCvGlobals@@A+48
	mov	DWORD PTR $T233070[ebp], edx
	mov	ecx, DWORD PTR $T233070[ebp]
	call	?isDebugMode@CvGame@@QBE_NXZ		; CvGame::isDebugMode
	movzx	eax, al
	test	eax, eax
	je	SHORT $LN3@isVisibleW
$LN1@isVisibleW:

; 1052 : 		{
; 1053 : 			return true;

	mov	al, 1
	jmp	SHORT $LN4@isVisibleW
$LN3@isVisibleW:

; 1054 : 		}
; 1055 : 	}
; 1056 : 
; 1057 : 	return false;

	xor	al, al
$LN4@isVisibleW:

; 1058 : }

	mov	esp, ebp
	pop	ebp
	ret	0
?isVisibleWorked@CvPlot@@QBE_NXZ ENDP			; CvPlot::isVisibleWorked
_TEXT	ENDS
PUBLIC	?isPlayerCityRadius@CvPlot@@QBE_NW4PlayerTypes@@@Z ; CvPlot::isPlayerCityRadius
PUBLIC	?isWithinTeamCityRadius@CvPlot@@QBE_NW4TeamTypes@@W4PlayerTypes@@@Z ; CvPlot::isWithinTeamCityRadius
; Function compile flags: /Odtp
;	COMDAT ?isWithinTeamCityRadius@CvPlot@@QBE_NW4TeamTypes@@W4PlayerTypes@@@Z
_TEXT	SEGMENT
_this$ = -20						; size = 4
$T233089 = -16						; size = 4
$T233085 = -9						; size = 1
$T233076 = -8						; size = 4
_iI$ = -4						; size = 4
_eTeam$ = 8						; size = 4
_eIgnorePlayer$ = 12					; size = 4
?isWithinTeamCityRadius@CvPlot@@QBE_NW4TeamTypes@@W4PlayerTypes@@@Z PROC ; CvPlot::isWithinTeamCityRadius, COMDAT
; _this$ = ecx

; 1063 : {

	push	ebp
	mov	ebp, esp
	sub	esp, 20					; 00000014H
	mov	DWORD PTR _this$[ebp], ecx

; 1064 : 	int iI;
; 1065 : 
; 1066 : 	for(iI = 0; iI < MAX_PLAYERS; ++iI)

	mov	DWORD PTR _iI$[ebp], 0
	jmp	SHORT $LN8@isWithinTe
$LN7@isWithinTe:
	mov	eax, DWORD PTR _iI$[ebp]
	add	eax, 1
	mov	DWORD PTR _iI$[ebp], eax
$LN8@isWithinTe:
	cmp	DWORD PTR _iI$[ebp], 64			; 00000040H
	jge	SHORT $LN6@isWithinTe

; 1067 : 	{
; 1068 : 		if(GET_PLAYER((PlayerTypes)iI).isAlive())

	mov	ecx, DWORD PTR _iI$[ebp]
	imul	ecx, 63236				; 0000f704H
	add	ecx, DWORD PTR ?m_aPlayers@CvPlayerAI@@1PAV1@A ; CvPlayerAI::m_aPlayers
	mov	DWORD PTR $T233076[ebp], ecx
	mov	edx, DWORD PTR $T233076[ebp]
	mov	al, BYTE PTR [edx+2256]
	mov	BYTE PTR $T233085[ebp], al
	movzx	ecx, BYTE PTR $T233085[ebp]
	test	ecx, ecx
	je	SHORT $LN5@isWithinTe

; 1069 : 		{
; 1070 : 			if(GET_PLAYER((PlayerTypes)iI).getTeam() == eTeam)

	mov	edx, DWORD PTR _iI$[ebp]
	imul	edx, 63236				; 0000f704H
	add	edx, DWORD PTR ?m_aPlayers@CvPlayerAI@@1PAV1@A ; CvPlayerAI::m_aPlayers
	mov	DWORD PTR $T233089[ebp], edx
	mov	eax, DWORD PTR $T233089[ebp]
	mov	ecx, DWORD PTR [eax+44]
	push	ecx
	call	?teamType@CvPreGame@@YA?AW4TeamTypes@@W4PlayerTypes@@@Z ; CvPreGame::teamType
	add	esp, 4
	cmp	eax, DWORD PTR _eTeam$[ebp]
	jne	SHORT $LN5@isWithinTe

; 1071 : 			{
; 1072 : 				if((eIgnorePlayer == NO_PLAYER) || (((PlayerTypes)iI) != eIgnorePlayer))

	cmp	DWORD PTR _eIgnorePlayer$[ebp], -1
	je	SHORT $LN2@isWithinTe
	mov	edx, DWORD PTR _iI$[ebp]
	cmp	edx, DWORD PTR _eIgnorePlayer$[ebp]
	je	SHORT $LN5@isWithinTe
$LN2@isWithinTe:

; 1073 : 				{
; 1074 : 					if(isPlayerCityRadius((PlayerTypes)iI))

	mov	eax, DWORD PTR _iI$[ebp]
	push	eax
	mov	ecx, DWORD PTR _this$[ebp]
	call	?isPlayerCityRadius@CvPlot@@QBE_NW4PlayerTypes@@@Z ; CvPlot::isPlayerCityRadius
	movzx	ecx, al
	test	ecx, ecx
	je	SHORT $LN5@isWithinTe

; 1075 : 					{
; 1076 : 						return true;

	mov	al, 1
	jmp	SHORT $LN9@isWithinTe
$LN5@isWithinTe:

; 1077 : 					}
; 1078 : 				}
; 1079 : 			}
; 1080 : 		}
; 1081 : 	}

	jmp	$LN7@isWithinTe
$LN6@isWithinTe:

; 1082 : 
; 1083 : 	return false;

	xor	al, al
$LN9@isWithinTe:

; 1084 : }

	mov	esp, ebp
	pop	ebp
	ret	8
?isWithinTeamCityRadius@CvPlot@@QBE_NW4TeamTypes@@W4PlayerTypes@@@Z ENDP ; CvPlot::isWithinTeamCityRadius
_TEXT	ENDS
PUBLIC	?isLake@CvPlot@@QBE_NXZ				; CvPlot::isLake
EXTRN	?isLake@CvLandmass@@QBE_NXZ:PROC		; CvLandmass::isLake
; Function compile flags: /Odtp
;	COMDAT ?isLake@CvPlot@@QBE_NXZ
_TEXT	SEGMENT
_this$ = -12						; size = 4
$T233103 = -8						; size = 4
_pLandmass$ = -4					; size = 4
?isLake@CvPlot@@QBE_NXZ PROC				; CvPlot::isLake, COMDAT
; _this$ = ecx

; 1089 : {

	push	ebp
	mov	ebp, esp
	sub	esp, 12					; 0000000cH
	mov	DWORD PTR _this$[ebp], ecx

; 1090 : 	CvLandmass* pLandmass = GC.getMap().getLandmass(m_iLandmass);

	mov	eax, DWORD PTR ?gGlobals@@3VCvGlobals@@A+52
	mov	DWORD PTR $T233103[ebp], eax
	mov	ecx, DWORD PTR _this$[ebp]
	mov	edx, DWORD PTR [ecx+360]
	push	edx
	mov	ecx, DWORD PTR $T233103[ebp]
	call	?getLandmass@CvMap@@QAEPAVCvLandmass@@H@Z ; CvMap::getLandmass
	mov	DWORD PTR _pLandmass$[ebp], eax

; 1091 : 
; 1092 : 	if(pLandmass != NULL)

	cmp	DWORD PTR _pLandmass$[ebp], 0
	je	SHORT $LN1@isLake

; 1093 : 	{
; 1094 : 		return pLandmass->isLake();

	mov	ecx, DWORD PTR _pLandmass$[ebp]
	call	?isLake@CvLandmass@@QBE_NXZ		; CvLandmass::isLake
	jmp	SHORT $LN2@isLake
$LN1@isLake:

; 1095 : 	}
; 1096 : 
; 1097 : 	return false;

	xor	al, al
$LN2@isLake:

; 1098 : }

	mov	esp, ebp
	pop	ebp
	ret	0
?isLake@CvPlot@@QBE_NXZ ENDP				; CvPlot::isLake
_TEXT	ENDS
PUBLIC	?plotXYWithRangeCheck@@YAPAVCvPlot@@HHHHH@Z	; plotXYWithRangeCheck
PUBLIC	?isFreshWater@CvPlot@@QBE_NXZ			; CvPlot::isFreshWater
EXTRN	?isAddsFreshWater@CvFeatureInfo@@QBE_NXZ:PROC	; CvFeatureInfo::isAddsFreshWater
EXTRN	?getFeatureInfo@CvGlobals@@QAEPAVCvFeatureInfo@@W4FeatureTypes@@@Z:PROC ; CvGlobals::getFeatureInfo
; Function compile flags: /Odtp
;	COMDAT ?isFreshWater@CvPlot@@QBE_NXZ
_TEXT	SEGMENT
_this$ = -108						; size = 4
_f$233263 = -101					; size = 1
$T233125 = -24						; size = 4
$T233121 = -20						; size = 4
_feature_type$222491 = -16				; size = 4
_iDY$ = -12						; size = 4
_iDX$ = -8						; size = 4
_pLoopPlot$ = -4					; size = 4
?isFreshWater@CvPlot@@QBE_NXZ PROC			; CvPlot::isFreshWater, COMDAT
; _this$ = ecx

; 1104 : {

	push	ebp
	mov	ebp, esp
	sub	esp, 108				; 0000006cH
	mov	DWORD PTR _this$[ebp], ecx

; 1105 : 	CvPlot* pLoopPlot;
; 1106 : 	int iDX, iDY;
; 1107 : 
; 1108 : 	if(isWater() || isImpassable() || isMountain())

	mov	eax, DWORD PTR _this$[ebp]
	movsx	ecx, BYTE PTR [eax+5]
	xor	edx, edx
	cmp	ecx, 3
	sete	dl
	movzx	eax, dl
	test	eax, eax
	jne	SHORT $LN12@isFreshWat
	mov	ecx, DWORD PTR _this$[ebp]
	mov	dl, BYTE PTR [ecx+462]
	shr	dl, 7
	and	dl, 1
	movzx	eax, dl
	test	eax, eax
	jne	SHORT $LN12@isFreshWat
	mov	ecx, DWORD PTR _this$[ebp]
	movsx	edx, BYTE PTR [ecx+5]
	neg	edx
	sbb	edx, edx
	add	edx, 1
	movzx	eax, dl
	test	eax, eax
	je	SHORT $LN22@isFreshWat
$LN12@isFreshWat:

; 1109 : 		return false;

	xor	al, al
	jmp	$LN14@isFreshWat

; 1110 : 
; 1111 : 	if(isRiver())

$LN22@isFreshWat:
	mov	ecx, DWORD PTR _this$[ebp]
	movsx	edx, BYTE PTR [ecx+457]
	xor	eax, eax
	test	edx, edx
	setg	al
	movzx	ecx, al
	test	ecx, ecx
	je	SHORT $LN11@isFreshWat

; 1112 : 	{
; 1113 : 		return true;

	mov	al, 1
	jmp	$LN14@isFreshWat
$LN11@isFreshWat:

; 1114 : 	}
; 1115 : 
; 1116 : #ifdef AUI_HEXSPACE_DX_LOOPS
; 1117 : 	int iMaxDX;
; 1118 : 	for (iDY = -1; iDY <= 1; iDY++)
; 1119 : 	{
; 1120 : 		iMaxDX = 1 - MAX(0, iDY);
; 1121 : 		for (iDX = -1 - MIN(0, iDY); iDX <= iMaxDX; iDX++) // MIN() and MAX() stuff is to reduce loops (hexspace!)
; 1122 : 		{
; 1123 : 			pLoopPlot = plotXY(getX(), getY(), iDX, iDY);
; 1124 : #else
; 1125 : 	for(iDX = -1; iDX <= 1; iDX++)

	mov	DWORD PTR _iDX$[ebp], -1
	jmp	SHORT $LN10@isFreshWat
$LN9@isFreshWat:
	mov	edx, DWORD PTR _iDX$[ebp]
	add	edx, 1
	mov	DWORD PTR _iDX$[ebp], edx
$LN10@isFreshWat:
	cmp	DWORD PTR _iDX$[ebp], 1
	jg	$LN8@isFreshWat

; 1126 : 	{
; 1127 : 		for(iDY = -1; iDY <= 1; iDY++)

	mov	DWORD PTR _iDY$[ebp], -1
	jmp	SHORT $LN7@isFreshWat
$LN6@isFreshWat:
	mov	eax, DWORD PTR _iDY$[ebp]
	add	eax, 1
	mov	DWORD PTR _iDY$[ebp], eax
$LN7@isFreshWat:
	cmp	DWORD PTR _iDY$[ebp], 1
	jg	$LN5@isFreshWat

; 1128 : 		{
; 1129 : 			pLoopPlot	= plotXYWithRangeCheck(getX(), getY(), iDX, iDY, 1);

	mov	ecx, DWORD PTR _this$[ebp]
	movsx	edx, WORD PTR [ecx+2]
	mov	DWORD PTR $T233121[ebp], edx
	mov	eax, DWORD PTR _this$[ebp]
	movsx	ecx, WORD PTR [eax]
	mov	DWORD PTR $T233125[ebp], ecx
	push	1
	mov	edx, DWORD PTR _iDY$[ebp]
	push	edx
	mov	eax, DWORD PTR _iDX$[ebp]
	push	eax
	mov	ecx, DWORD PTR $T233121[ebp]
	push	ecx
	mov	edx, DWORD PTR $T233125[ebp]
	push	edx
	call	?plotXYWithRangeCheck@@YAPAVCvPlot@@HHHHH@Z ; plotXYWithRangeCheck
	add	esp, 20					; 00000014H
	mov	DWORD PTR _pLoopPlot$[ebp], eax

; 1130 : #endif
; 1131 : 
; 1132 : 			if(pLoopPlot != NULL)

	cmp	DWORD PTR _pLoopPlot$[ebp], 0
	je	SHORT $LN4@isFreshWat

; 1133 : 			{
; 1134 : 				if(pLoopPlot->isLake())

	mov	ecx, DWORD PTR _pLoopPlot$[ebp]
	call	?isLake@CvPlot@@QBE_NXZ			; CvPlot::isLake
	movzx	eax, al
	test	eax, eax
	je	SHORT $LN95@isFreshWat

; 1135 : 				{
; 1136 : 					return true;

	mov	al, 1
	jmp	SHORT $LN14@isFreshWat

; 1137 : 				}
; 1138 : 
; 1139 : 				FeatureTypes feature_type = pLoopPlot->getFeatureType();

$LN95@isFreshWat:
	mov	ecx, DWORD PTR _pLoopPlot$[ebp]
	mov	dl, BYTE PTR [ecx+432]
	mov	BYTE PTR _f$233263[ebp], dl
	movsx	eax, BYTE PTR _f$233263[ebp]
	mov	DWORD PTR _feature_type$222491[ebp], eax

; 1140 : 
; 1141 : 				if(feature_type != NO_FEATURE)

	cmp	DWORD PTR _feature_type$222491[ebp], -1
	je	SHORT $LN4@isFreshWat

; 1142 : 				{
; 1143 : 					if(GC.getFeatureInfo(feature_type)->isAddsFreshWater())

	mov	ecx, DWORD PTR _feature_type$222491[ebp]
	push	ecx
	mov	ecx, OFFSET ?gGlobals@@3VCvGlobals@@A	; gGlobals
	call	?getFeatureInfo@CvGlobals@@QAEPAVCvFeatureInfo@@W4FeatureTypes@@@Z ; CvGlobals::getFeatureInfo
	mov	ecx, eax
	call	?isAddsFreshWater@CvFeatureInfo@@QBE_NXZ ; CvFeatureInfo::isAddsFreshWater
	movzx	edx, al
	test	edx, edx
	je	SHORT $LN4@isFreshWat

; 1144 : 					{
; 1145 : 						return true;

	mov	al, 1
	jmp	SHORT $LN14@isFreshWat
$LN4@isFreshWat:

; 1146 : 					}
; 1147 : 				}
; 1148 : 			}
; 1149 : 		}

	jmp	$LN6@isFreshWat
$LN5@isFreshWat:

; 1150 : 	}

	jmp	$LN9@isFreshWat
$LN8@isFreshWat:

; 1151 : 
; 1152 : 	return false;

	xor	al, al
$LN14@isFreshWat:

; 1153 : }

	mov	esp, ebp
	pop	ebp
	ret	0
?isFreshWater@CvPlot@@QBE_NXZ ENDP			; CvPlot::isFreshWater
_TEXT	ENDS
PUBLIC	?plotXY@@YAPAVCvPlot@@HHHH@Z			; plotXY
; Function compile flags: /Odtp
; File d:\sources\lekmod_git\checkout\lekmod_dll\cvgamecoredll_expansion2\cvgamecoreutils.h
;	COMDAT ?plotXYWithRangeCheck@@YAPAVCvPlot@@HHHHH@Z
_TEXT	SEGMENT
tv83 = -96						; size = 4
tv81 = -92						; size = 4
tv78 = -88						; size = 4
tv74 = -84						; size = 4
tv71 = -80						; size = 4
_iAbsDY$216767 = -20					; size = 4
_iAbsDX$216766 = -16					; size = 4
_iAbsDY$216764 = -12					; size = 4
_iAbsDX$216763 = -8					; size = 4
_hexRange$ = -4						; size = 4
_iX$ = 8						; size = 4
_iY$ = 12						; size = 4
_iDX$ = 16						; size = 4
_iDY$ = 20						; size = 4
_iRange$ = 24						; size = 4
?plotXYWithRangeCheck@@YAPAVCvPlot@@HHHHH@Z PROC	; plotXYWithRangeCheck, COMDAT

; 233  : {

	push	ebp
	mov	ebp, esp
	sub	esp, 96					; 00000060H

; 234  : #ifdef NQM_GAME_CORE_UTILS_OPTIMIZATIONS
; 235  : 	// I'm assuming iDX and iDY are in hex-space
; 236  : 	if (hexDistance(iDX, iDY) > iRange)
; 237  : #else
; 238  : 	int hexRange;
; 239  : 
; 240  : 	// I'm assuming iDX and iDY are in hex-space
; 241  : 	if((iDX >= 0) == (iDY >= 0))  // the signs match

	xor	eax, eax
	cmp	DWORD PTR _iDX$[ebp], 0
	setge	al
	xor	ecx, ecx
	cmp	DWORD PTR _iDY$[ebp], 0
	setge	cl
	cmp	eax, ecx
	jne	SHORT $LN3@plotXYWith

; 242  : 	{
; 243  : 		int iAbsDX = iDX >= 0 ? iDX : -iDX;

	cmp	DWORD PTR _iDX$[ebp], 0
	jl	SHORT $LN6@plotXYWith
	mov	edx, DWORD PTR _iDX$[ebp]
	mov	DWORD PTR tv71[ebp], edx
	jmp	SHORT $LN7@plotXYWith
$LN6@plotXYWith:
	mov	eax, DWORD PTR _iDX$[ebp]
	neg	eax
	mov	DWORD PTR tv71[ebp], eax
$LN7@plotXYWith:
	mov	ecx, DWORD PTR tv71[ebp]
	mov	DWORD PTR _iAbsDX$216763[ebp], ecx

; 244  : 		int iAbsDY = iDY >= 0 ? iDY : -iDY;

	cmp	DWORD PTR _iDY$[ebp], 0
	jl	SHORT $LN8@plotXYWith
	mov	edx, DWORD PTR _iDY$[ebp]
	mov	DWORD PTR tv74[ebp], edx
	jmp	SHORT $LN9@plotXYWith
$LN8@plotXYWith:
	mov	eax, DWORD PTR _iDY$[ebp]
	neg	eax
	mov	DWORD PTR tv74[ebp], eax
$LN9@plotXYWith:
	mov	ecx, DWORD PTR tv74[ebp]
	mov	DWORD PTR _iAbsDY$216764[ebp], ecx

; 245  : 		hexRange = iAbsDX + iAbsDY;

	mov	edx, DWORD PTR _iAbsDX$216763[ebp]
	add	edx, DWORD PTR _iAbsDY$216764[ebp]
	mov	DWORD PTR _hexRange$[ebp], edx

; 246  : 	}
; 247  : 	else

	jmp	SHORT $LN2@plotXYWith
$LN3@plotXYWith:

; 248  : 	{
; 249  : 		int iAbsDX = iDX >= 0 ? iDX : -iDX;

	cmp	DWORD PTR _iDX$[ebp], 0
	jl	SHORT $LN10@plotXYWith
	mov	eax, DWORD PTR _iDX$[ebp]
	mov	DWORD PTR tv78[ebp], eax
	jmp	SHORT $LN11@plotXYWith
$LN10@plotXYWith:
	mov	ecx, DWORD PTR _iDX$[ebp]
	neg	ecx
	mov	DWORD PTR tv78[ebp], ecx
$LN11@plotXYWith:
	mov	edx, DWORD PTR tv78[ebp]
	mov	DWORD PTR _iAbsDX$216766[ebp], edx

; 250  : 		int iAbsDY = iDY >= 0 ? iDY : -iDY;

	cmp	DWORD PTR _iDY$[ebp], 0
	jl	SHORT $LN12@plotXYWith
	mov	eax, DWORD PTR _iDY$[ebp]
	mov	DWORD PTR tv81[ebp], eax
	jmp	SHORT $LN13@plotXYWith
$LN12@plotXYWith:
	mov	ecx, DWORD PTR _iDY$[ebp]
	neg	ecx
	mov	DWORD PTR tv81[ebp], ecx
$LN13@plotXYWith:
	mov	edx, DWORD PTR tv81[ebp]
	mov	DWORD PTR _iAbsDY$216767[ebp], edx

; 251  : 		hexRange = iAbsDX >= iAbsDY ? iAbsDX : iAbsDY;

	mov	eax, DWORD PTR _iAbsDX$216766[ebp]
	cmp	eax, DWORD PTR _iAbsDY$216767[ebp]
	jl	SHORT $LN14@plotXYWith
	mov	ecx, DWORD PTR _iAbsDX$216766[ebp]
	mov	DWORD PTR tv83[ebp], ecx
	jmp	SHORT $LN15@plotXYWith
$LN14@plotXYWith:
	mov	edx, DWORD PTR _iAbsDY$216767[ebp]
	mov	DWORD PTR tv83[ebp], edx
$LN15@plotXYWith:
	mov	eax, DWORD PTR tv83[ebp]
	mov	DWORD PTR _hexRange$[ebp], eax
$LN2@plotXYWith:

; 252  : 	}
; 253  : 
; 254  : 	if(hexRange > iRange)

	mov	ecx, DWORD PTR _hexRange$[ebp]
	cmp	ecx, DWORD PTR _iRange$[ebp]
	jle	SHORT $LN1@plotXYWith

; 255  : #endif
; 256  : 	{
; 257  : 		return NULL;

	xor	eax, eax
	jmp	SHORT $LN4@plotXYWith
$LN1@plotXYWith:

; 258  : 	}
; 259  : 
; 260  : 	return plotXY(iX, iY, iDX, iDY);

	mov	edx, DWORD PTR _iDY$[ebp]
	push	edx
	mov	eax, DWORD PTR _iDX$[ebp]
	push	eax
	mov	ecx, DWORD PTR _iY$[ebp]
	push	ecx
	mov	edx, DWORD PTR _iX$[ebp]
	push	edx
	call	?plotXY@@YAPAVCvPlot@@HHHH@Z		; plotXY
	add	esp, 16					; 00000010H
$LN4@plotXYWith:

; 261  : }

	mov	esp, ebp
	pop	ebp
	ret	0
?plotXYWithRangeCheck@@YAPAVCvPlot@@HHHHH@Z ENDP	; plotXYWithRangeCheck
; Function compile flags: /Odtp
_TEXT	ENDS
;	COMDAT ?plotXY@@YAPAVCvPlot@@HHHH@Z
_TEXT	SEGMENT
tv148 = -72						; size = 4
tv163 = -68						; size = 4
tv86 = -64						; size = 4
tv82 = -60						; size = 4
$T233521 = -56						; size = 4
$T233476 = -52						; size = 4
$T233463 = -48						; size = 4
$T233459 = -44						; size = 4
$T233445 = -40						; size = 4
$T233441 = -33						; size = 1
$T233430 = -32						; size = 4
$T233426 = -25						; size = 1
_iMapY$233489 = -24					; size = 4
_iMapX$233488 = -20					; size = 4
$T233419 = -16						; size = 4
_iPlotHexX$ = -12					; size = 4
_iPlotY$ = -8						; size = 4
_iStartHexX$ = -4					; size = 4
_iX$ = 8						; size = 4
_iY$ = 12						; size = 4
_iDX$ = 16						; size = 4
_iDY$ = 20						; size = 4
?plotXY@@YAPAVCvPlot@@HHHH@Z PROC			; plotXY, COMDAT

; 213  : {

	push	ebp
	mov	ebp, esp
	sub	esp, 72					; 00000048H

; 214  : 	// convert the start coord to hex-space coordinates
; 215  : 	int iStartHexX = xToHexspaceX(iX, iY);

	cmp	DWORD PTR _iY$[ebp], 0
	jl	SHORT $LN5@plotXY
	mov	eax, DWORD PTR _iY$[ebp]
	sar	eax, 1
	mov	DWORD PTR tv82[ebp], eax
	jmp	SHORT $LN3@plotXY
$LN5@plotXY:
	mov	eax, DWORD PTR _iY$[ebp]
	sub	eax, 1
	cdq
	sub	eax, edx
	sar	eax, 1
	mov	DWORD PTR tv82[ebp], eax
$LN3@plotXY:
	mov	ecx, DWORD PTR _iX$[ebp]
	sub	ecx, DWORD PTR tv82[ebp]
	mov	DWORD PTR _iStartHexX$[ebp], ecx

; 216  : 
; 217  : 	int iPlotHexX = iStartHexX + iDX;

	mov	edx, DWORD PTR _iStartHexX$[ebp]
	add	edx, DWORD PTR _iDX$[ebp]
	mov	DWORD PTR _iPlotHexX$[ebp], edx

; 218  : 	int iPlotY = iY + iDY; // Y is the same in both coordinate systems

	mov	eax, DWORD PTR _iY$[ebp]
	add	eax, DWORD PTR _iDY$[ebp]
	mov	DWORD PTR _iPlotY$[ebp], eax

; 219  : 
; 220  : 	// convert from hex-space coordinates to the storage array
; 221  : 	iPlotHexX = hexspaceXToX(iPlotHexX, iPlotY);

	js	SHORT $LN9@plotXY
	mov	ecx, DWORD PTR _iPlotY$[ebp]
	sar	ecx, 1
	mov	DWORD PTR tv86[ebp], ecx
	jmp	SHORT $LN7@plotXY
$LN9@plotXY:
	mov	eax, DWORD PTR _iPlotY$[ebp]
	sub	eax, 1
	cdq
	sub	eax, edx
	sar	eax, 1
	mov	DWORD PTR tv86[ebp], eax
$LN7@plotXY:
	mov	edx, DWORD PTR _iPlotHexX$[ebp]
	add	edx, DWORD PTR tv86[ebp]
	mov	DWORD PTR _iPlotHexX$[ebp], edx

; 222  : 
; 223  : 	return GC.getMap().plot(iPlotHexX , iPlotY);

	mov	eax, DWORD PTR ?gGlobals@@3VCvGlobals@@A+52
	mov	DWORD PTR $T233419[ebp], eax
	cmp	DWORD PTR _iPlotHexX$[ebp], -2147483647	; 80000001H
	je	SHORT $LN13@plotXY
	cmp	DWORD PTR _iPlotY$[ebp], -2147483647	; 80000001H
	jne	SHORT $LN14@plotXY
$LN13@plotXY:
	mov	DWORD PTR $T233521[ebp], 0
	jmp	$LN15@plotXY
$LN14@plotXY:
	mov	ecx, DWORD PTR $T233419[ebp]
	mov	dl, BYTE PTR [ecx+4056]
	mov	BYTE PTR $T233426[ebp], dl
	mov	eax, DWORD PTR $T233419[ebp]
	mov	ecx, DWORD PTR [eax+4020]
	mov	DWORD PTR $T233430[ebp], ecx
	movzx	edx, BYTE PTR $T233426[ebp]
	test	edx, edx
	je	SHORT $LN26@plotXY
	cmp	DWORD PTR _iPlotHexX$[ebp], 0
	jge	SHORT $LN25@plotXY
	mov	eax, DWORD PTR _iPlotHexX$[ebp]
	cdq
	idiv	DWORD PTR $T233430[ebp]
	add	edx, DWORD PTR $T233430[ebp]
	mov	DWORD PTR _iMapX$233488[ebp], edx
	jmp	SHORT $LN27@plotXY
	jmp	SHORT $LN26@plotXY
$LN25@plotXY:
	mov	eax, DWORD PTR _iPlotHexX$[ebp]
	cmp	eax, DWORD PTR $T233430[ebp]
	jl	SHORT $LN26@plotXY
	mov	eax, DWORD PTR _iPlotHexX$[ebp]
	cdq
	idiv	DWORD PTR $T233430[ebp]
	mov	DWORD PTR _iMapX$233488[ebp], edx
	jmp	SHORT $LN27@plotXY
$LN26@plotXY:
	mov	ecx, DWORD PTR _iPlotHexX$[ebp]
	mov	DWORD PTR _iMapX$233488[ebp], ecx
$LN27@plotXY:
	mov	edx, DWORD PTR $T233419[ebp]
	mov	al, BYTE PTR [edx+4057]
	mov	BYTE PTR $T233441[ebp], al
	mov	ecx, DWORD PTR $T233419[ebp]
	mov	edx, DWORD PTR [ecx+4024]
	mov	DWORD PTR $T233445[ebp], edx
	movzx	eax, BYTE PTR $T233441[ebp]
	test	eax, eax
	je	SHORT $LN36@plotXY
	cmp	DWORD PTR _iPlotY$[ebp], 0
	jge	SHORT $LN35@plotXY
	mov	eax, DWORD PTR _iPlotY$[ebp]
	cdq
	idiv	DWORD PTR $T233445[ebp]
	add	edx, DWORD PTR $T233445[ebp]
	mov	DWORD PTR _iMapY$233489[ebp], edx
	jmp	SHORT $LN37@plotXY
	jmp	SHORT $LN36@plotXY
$LN35@plotXY:
	mov	ecx, DWORD PTR _iPlotY$[ebp]
	cmp	ecx, DWORD PTR $T233445[ebp]
	jl	SHORT $LN36@plotXY
	mov	eax, DWORD PTR _iPlotY$[ebp]
	cdq
	idiv	DWORD PTR $T233445[ebp]
	mov	DWORD PTR _iMapY$233489[ebp], edx
	jmp	SHORT $LN37@plotXY
$LN36@plotXY:
	mov	edx, DWORD PTR _iPlotY$[ebp]
	mov	DWORD PTR _iMapY$233489[ebp], edx
$LN37@plotXY:
	cmp	DWORD PTR _iMapX$233488[ebp], 0
	jl	SHORT $LN41@plotXY
	mov	eax, DWORD PTR $T233419[ebp]
	mov	ecx, DWORD PTR [eax+4020]
	mov	DWORD PTR $T233459[ebp], ecx
	mov	edx, DWORD PTR _iMapX$233488[ebp]
	cmp	edx, DWORD PTR $T233459[ebp]
	jge	SHORT $LN41@plotXY
	cmp	DWORD PTR _iMapY$233489[ebp], 0
	jl	SHORT $LN41@plotXY
	mov	eax, DWORD PTR $T233419[ebp]
	mov	ecx, DWORD PTR [eax+4024]
	mov	DWORD PTR $T233463[ebp], ecx
	mov	edx, DWORD PTR _iMapY$233489[ebp]
	cmp	edx, DWORD PTR $T233463[ebp]
	jge	SHORT $LN41@plotXY
	mov	DWORD PTR tv163[ebp], 1
	jmp	SHORT $LN39@plotXY
$LN41@plotXY:
	mov	DWORD PTR tv163[ebp], 0
$LN39@plotXY:
	cmp	DWORD PTR tv163[ebp], 0
	je	SHORT $LN17@plotXY
	mov	eax, DWORD PTR $T233419[ebp]
	mov	ecx, DWORD PTR [eax+4020]
	mov	DWORD PTR $T233476[ebp], ecx
	mov	edx, DWORD PTR _iMapY$233489[ebp]
	imul	edx, DWORD PTR $T233476[ebp]
	add	edx, DWORD PTR _iMapX$233488[ebp]
	imul	edx, 484				; 000001e4H
	mov	eax, DWORD PTR $T233419[ebp]
	add	edx, DWORD PTR [eax+4068]
	mov	DWORD PTR tv148[ebp], edx
	jmp	SHORT $LN18@plotXY
$LN17@plotXY:
	mov	DWORD PTR tv148[ebp], 0
$LN18@plotXY:
	mov	ecx, DWORD PTR tv148[ebp]
	mov	DWORD PTR $T233521[ebp], ecx
$LN15@plotXY:
	mov	eax, DWORD PTR $T233521[ebp]

; 224  : }

	mov	esp, ebp
	pop	ebp
	ret	0
?plotXY@@YAPAVCvPlot@@HHHH@Z ENDP			; plotXY
_TEXT	ENDS
PUBLIC	?getRiverSEFlowDirection@CvPlot@@QBE?AW4FlowDirectionTypes@@XZ ; CvPlot::getRiverSEFlowDirection
PUBLIC	?getRiverEFlowDirection@CvPlot@@QBE?AW4FlowDirectionTypes@@XZ ; CvPlot::getRiverEFlowDirection
PUBLIC	?getRiverSWFlowDirection@CvPlot@@QBE?AW4FlowDirectionTypes@@XZ ; CvPlot::getRiverSWFlowDirection
PUBLIC	?isRiverCrossingFlowClockwise@CvPlot@@QBE_NW4DirectionTypes@@@Z ; CvPlot::isRiverCrossingFlowClockwise
; Function compile flags: /Odtp
; File d:\sources\lekmod_git\checkout\lekmod_dll\cvgamecoredll_expansion2\cvplot.cpp
;	COMDAT ?isRiverCrossingFlowClockwise@CvPlot@@QBE_NW4DirectionTypes@@@Z
_TEXT	SEGMENT
tv64 = -276						; size = 4
_this$ = -272						; size = 4
$T233894 = -188						; size = 4
$T233890 = -184						; size = 4
$T233706 = -100						; size = 4
$T233702 = -96						; size = 4
$T233531 = -12						; size = 4
$T233527 = -8						; size = 4
_pPlot$ = -4						; size = 4
_eDirection$ = 8					; size = 4
?isRiverCrossingFlowClockwise@CvPlot@@QBE_NW4DirectionTypes@@@Z PROC ; CvPlot::isRiverCrossingFlowClockwise, COMDAT
; _this$ = ecx

; 1160 : {

	push	ebp
	mov	ebp, esp
	sub	esp, 276				; 00000114H
	mov	DWORD PTR _this$[ebp], ecx

; 1161 : 	CvPlot* pPlot;
; 1162 : 	switch(eDirection)

	mov	eax, DWORD PTR _eDirection$[ebp]
	mov	DWORD PTR tv64[ebp], eax
	cmp	DWORD PTR tv64[ebp], 5
	ja	$LN11@isRiverCro
	mov	ecx, DWORD PTR tv64[ebp]
	jmp	DWORD PTR $LN255@isRiverCro[ecx*4]
$LN10@isRiverCro:

; 1163 : 	{
; 1164 : 	case DIRECTION_NORTHEAST:
; 1165 : 		pPlot = plotDirection(getX(), getY(), DIRECTION_NORTHEAST);

	mov	edx, DWORD PTR _this$[ebp]
	movsx	eax, WORD PTR [edx+2]
	mov	DWORD PTR $T233527[ebp], eax
	mov	ecx, DWORD PTR _this$[ebp]
	movsx	edx, WORD PTR [ecx]
	mov	DWORD PTR $T233531[ebp], edx
	push	0
	mov	eax, DWORD PTR $T233527[ebp]
	push	eax
	mov	ecx, DWORD PTR $T233531[ebp]
	push	ecx
	call	?plotDirection@@YAPAVCvPlot@@HHW4DirectionTypes@@@Z ; plotDirection
	add	esp, 12					; 0000000cH
	mov	DWORD PTR _pPlot$[ebp], eax

; 1166 : 		if(pPlot != NULL)

	cmp	DWORD PTR _pPlot$[ebp], 0
	je	SHORT $LN9@isRiverCro

; 1167 : 		{
; 1168 : 			return (pPlot->getRiverSWFlowDirection() == FLOWDIRECTION_SOUTHEAST);

	mov	ecx, DWORD PTR _pPlot$[ebp]
	call	?getRiverSWFlowDirection@CvPlot@@QBE?AW4FlowDirectionTypes@@XZ ; CvPlot::getRiverSWFlowDirection
	xor	edx, edx
	cmp	eax, 2
	sete	dl
	mov	al, dl
	jmp	$LN13@isRiverCro
$LN9@isRiverCro:

; 1169 : 		}
; 1170 : 		break;

	jmp	$LN11@isRiverCro
$LN8@isRiverCro:

; 1171 : 	case DIRECTION_EAST:
; 1172 : 		return (getRiverEFlowDirection() == FLOWDIRECTION_SOUTH);

	mov	ecx, DWORD PTR _this$[ebp]
	call	?getRiverEFlowDirection@CvPlot@@QBE?AW4FlowDirectionTypes@@XZ ; CvPlot::getRiverEFlowDirection
	xor	ecx, ecx
	cmp	eax, 3
	sete	cl
	mov	al, cl
	jmp	$LN13@isRiverCro

; 1173 : 		break;

	jmp	$LN11@isRiverCro
$LN7@isRiverCro:

; 1174 : 	case DIRECTION_SOUTHEAST:
; 1175 : 		return (getRiverSEFlowDirection() == FLOWDIRECTION_SOUTHWEST);

	mov	ecx, DWORD PTR _this$[ebp]
	call	?getRiverSEFlowDirection@CvPlot@@QBE?AW4FlowDirectionTypes@@XZ ; CvPlot::getRiverSEFlowDirection
	xor	edx, edx
	cmp	eax, 4
	sete	dl
	mov	al, dl
	jmp	$LN13@isRiverCro

; 1176 : 		break;

	jmp	$LN11@isRiverCro
$LN6@isRiverCro:

; 1177 : 	case DIRECTION_SOUTHWEST:
; 1178 : 		return (getRiverSWFlowDirection() == FLOWDIRECTION_NORTHWEST);

	mov	ecx, DWORD PTR _this$[ebp]
	call	?getRiverSWFlowDirection@CvPlot@@QBE?AW4FlowDirectionTypes@@XZ ; CvPlot::getRiverSWFlowDirection
	xor	ecx, ecx
	cmp	eax, 5
	sete	cl
	mov	al, cl
	jmp	$LN13@isRiverCro

; 1179 : 		break;

	jmp	$LN11@isRiverCro
$LN5@isRiverCro:

; 1180 : 	case DIRECTION_WEST:
; 1181 : 		pPlot = plotDirection(getX(), getY(), DIRECTION_WEST);

	mov	edx, DWORD PTR _this$[ebp]
	movsx	eax, WORD PTR [edx+2]
	mov	DWORD PTR $T233702[ebp], eax
	mov	ecx, DWORD PTR _this$[ebp]
	movsx	edx, WORD PTR [ecx]
	mov	DWORD PTR $T233706[ebp], edx
	push	4
	mov	eax, DWORD PTR $T233702[ebp]
	push	eax
	mov	ecx, DWORD PTR $T233706[ebp]
	push	ecx
	call	?plotDirection@@YAPAVCvPlot@@HHW4DirectionTypes@@@Z ; plotDirection
	add	esp, 12					; 0000000cH
	mov	DWORD PTR _pPlot$[ebp], eax

; 1182 : 		if(pPlot != NULL)

	cmp	DWORD PTR _pPlot$[ebp], 0
	je	SHORT $LN4@isRiverCro

; 1183 : 		{
; 1184 : 			return (pPlot->getRiverEFlowDirection() == FLOWDIRECTION_NORTH);

	mov	ecx, DWORD PTR _pPlot$[ebp]
	call	?getRiverEFlowDirection@CvPlot@@QBE?AW4FlowDirectionTypes@@XZ ; CvPlot::getRiverEFlowDirection
	neg	eax
	sbb	eax, eax
	add	eax, 1
	jmp	SHORT $LN13@isRiverCro
$LN4@isRiverCro:

; 1185 : 		}
; 1186 : 		break;

	jmp	SHORT $LN11@isRiverCro
$LN3@isRiverCro:

; 1187 : 	case DIRECTION_NORTHWEST:
; 1188 : 		pPlot = plotDirection(getX(), getY(), DIRECTION_NORTHWEST);

	mov	edx, DWORD PTR _this$[ebp]
	movsx	eax, WORD PTR [edx+2]
	mov	DWORD PTR $T233890[ebp], eax
	mov	ecx, DWORD PTR _this$[ebp]
	movsx	edx, WORD PTR [ecx]
	mov	DWORD PTR $T233894[ebp], edx
	push	5
	mov	eax, DWORD PTR $T233890[ebp]
	push	eax
	mov	ecx, DWORD PTR $T233894[ebp]
	push	ecx
	call	?plotDirection@@YAPAVCvPlot@@HHW4DirectionTypes@@@Z ; plotDirection
	add	esp, 12					; 0000000cH
	mov	DWORD PTR _pPlot$[ebp], eax

; 1189 : 		if(pPlot != NULL)

	cmp	DWORD PTR _pPlot$[ebp], 0
	je	SHORT $LN11@isRiverCro

; 1190 : 		{
; 1191 : 			return (pPlot->getRiverSEFlowDirection() == FLOWDIRECTION_NORTHEAST);

	mov	ecx, DWORD PTR _pPlot$[ebp]
	call	?getRiverSEFlowDirection@CvPlot@@QBE?AW4FlowDirectionTypes@@XZ ; CvPlot::getRiverSEFlowDirection
	sub	eax, 1
	neg	eax
	sbb	eax, eax
	add	eax, 1
	jmp	SHORT $LN13@isRiverCro
$LN11@isRiverCro:

; 1192 : 		}
; 1193 : 		break;
; 1194 : 	default:
; 1195 : 		CvAssert(false);
; 1196 : 		break;
; 1197 : 	}
; 1198 : 
; 1199 : 	return false;

	xor	al, al
$LN13@isRiverCro:

; 1200 : }

	mov	esp, ebp
	pop	ebp
	ret	4
	npad	2
$LN255@isRiverCro:
	DD	$LN10@isRiverCro
	DD	$LN8@isRiverCro
	DD	$LN7@isRiverCro
	DD	$LN6@isRiverCro
	DD	$LN5@isRiverCro
	DD	$LN3@isRiverCro
?isRiverCrossingFlowClockwise@CvPlot@@QBE_NW4DirectionTypes@@@Z ENDP ; CvPlot::isRiverCrossingFlowClockwise
_TEXT	ENDS
PUBLIC	?isRiverCrossing@CvPlot@@QBE_NW4DirectionTypes@@@Z ; CvPlot::isRiverCrossing
PUBLIC	?directionXY@@YA?AW4DirectionTypes@@PBVCvPlot@@0@Z ; directionXY
PUBLIC	?isRiverSide@CvPlot@@QBE_NXZ			; CvPlot::isRiverSide
; Function compile flags: /Odtp
;	COMDAT ?isRiverSide@CvPlot@@QBE_NXZ
_TEXT	SEGMENT
_this$ = -172						; size = 4
$T234098 = -16						; size = 4
$T234094 = -12						; size = 4
_iI$ = -8						; size = 4
_pLoopPlot$ = -4					; size = 4
?isRiverSide@CvPlot@@QBE_NXZ PROC			; CvPlot::isRiverSide, COMDAT
; _this$ = ecx

; 1205 : {

	push	ebp
	mov	ebp, esp
	sub	esp, 172				; 000000acH
	mov	DWORD PTR _this$[ebp], ecx

; 1206 : 	CvPlot* pLoopPlot;
; 1207 : 	int iI;
; 1208 : 
; 1209 : 	for(iI = 0; iI < NUM_DIRECTION_TYPES; ++iI)

	mov	DWORD PTR _iI$[ebp], 0
	jmp	SHORT $LN5@isRiverSid
$LN4@isRiverSid:
	mov	eax, DWORD PTR _iI$[ebp]
	add	eax, 1
	mov	DWORD PTR _iI$[ebp], eax
$LN5@isRiverSid:
	cmp	DWORD PTR _iI$[ebp], 6
	jge	SHORT $LN3@isRiverSid

; 1210 : 	{
; 1211 : 		pLoopPlot = plotDirection(getX(), getY(), ((DirectionTypes)iI));

	mov	ecx, DWORD PTR _this$[ebp]
	movsx	edx, WORD PTR [ecx+2]
	mov	DWORD PTR $T234094[ebp], edx
	mov	eax, DWORD PTR _this$[ebp]
	movsx	ecx, WORD PTR [eax]
	mov	DWORD PTR $T234098[ebp], ecx
	mov	edx, DWORD PTR _iI$[ebp]
	push	edx
	mov	eax, DWORD PTR $T234094[ebp]
	push	eax
	mov	ecx, DWORD PTR $T234098[ebp]
	push	ecx
	call	?plotDirection@@YAPAVCvPlot@@HHW4DirectionTypes@@@Z ; plotDirection
	add	esp, 12					; 0000000cH
	mov	DWORD PTR _pLoopPlot$[ebp], eax

; 1212 : 
; 1213 : 		if(pLoopPlot != NULL)

	cmp	DWORD PTR _pLoopPlot$[ebp], 0
	je	SHORT $LN2@isRiverSid

; 1214 : 		{
; 1215 : 			if(isRiverCrossing(directionXY(this, pLoopPlot)))

	mov	edx, DWORD PTR _pLoopPlot$[ebp]
	push	edx
	mov	eax, DWORD PTR _this$[ebp]
	push	eax
	call	?directionXY@@YA?AW4DirectionTypes@@PBVCvPlot@@0@Z ; directionXY
	add	esp, 8
	push	eax
	mov	ecx, DWORD PTR _this$[ebp]
	call	?isRiverCrossing@CvPlot@@QBE_NW4DirectionTypes@@@Z ; CvPlot::isRiverCrossing
	movzx	ecx, al
	test	ecx, ecx
	je	SHORT $LN2@isRiverSid

; 1216 : 			{
; 1217 : 				return true;

	mov	al, 1
	jmp	SHORT $LN6@isRiverSid
$LN2@isRiverSid:

; 1218 : 			}
; 1219 : 		}
; 1220 : 	}

	jmp	SHORT $LN4@isRiverSid
$LN3@isRiverSid:

; 1221 : 
; 1222 : 	return false;

	xor	al, al
$LN6@isRiverSid:

; 1223 : }

	mov	esp, ebp
	pop	ebp
	ret	0
?isRiverSide@CvPlot@@QBE_NXZ ENDP			; CvPlot::isRiverSide
_TEXT	ENDS
PUBLIC	?directionXY@@YA?AW4DirectionTypes@@HHHH@Z	; directionXY
; Function compile flags: /Odtp
; File d:\sources\lekmod_git\checkout\lekmod_dll\cvgamecoredll_expansion2\cvgamecoreutils.h
;	COMDAT ?directionXY@@YA?AW4DirectionTypes@@PBVCvPlot@@0@Z
_TEXT	SEGMENT
$T234395 = -16						; size = 4
$T234391 = -12						; size = 4
$T234387 = -8						; size = 4
$T234383 = -4						; size = 4
_pFromPlot$ = 8						; size = 4
_pToPlot$ = 12						; size = 4
?directionXY@@YA?AW4DirectionTypes@@PBVCvPlot@@0@Z PROC	; directionXY, COMDAT

; 311  : {

	push	ebp
	mov	ebp, esp
	sub	esp, 64					; 00000040H

; 312  : 	return directionXY(pFromPlot->getX(), pFromPlot->getY(),
; 313  : 	                   pToPlot->getX(), pToPlot->getY());

	mov	eax, DWORD PTR _pToPlot$[ebp]
	movsx	ecx, WORD PTR [eax+2]
	mov	DWORD PTR $T234383[ebp], ecx
	mov	edx, DWORD PTR _pToPlot$[ebp]
	movsx	eax, WORD PTR [edx]
	mov	DWORD PTR $T234387[ebp], eax
	mov	ecx, DWORD PTR _pFromPlot$[ebp]
	movsx	edx, WORD PTR [ecx+2]
	mov	DWORD PTR $T234391[ebp], edx
	mov	eax, DWORD PTR _pFromPlot$[ebp]
	movsx	ecx, WORD PTR [eax]
	mov	DWORD PTR $T234395[ebp], ecx
	mov	edx, DWORD PTR $T234383[ebp]
	push	edx
	mov	eax, DWORD PTR $T234387[ebp]
	push	eax
	mov	ecx, DWORD PTR $T234391[ebp]
	push	ecx
	mov	edx, DWORD PTR $T234395[ebp]
	push	edx
	call	?directionXY@@YA?AW4DirectionTypes@@HHHH@Z ; directionXY
	add	esp, 16					; 00000010H

; 314  : 
; 315  : }

	mov	esp, ebp
	pop	ebp
	ret	0
?directionXY@@YA?AW4DirectionTypes@@PBVCvPlot@@0@Z ENDP	; directionXY
_TEXT	ENDS
PUBLIC	?dyWrap@@YAHH@Z					; dyWrap
PUBLIC	?dxWrap@@YAHH@Z					; dxWrap
; Function compile flags: /Odtp
;	COMDAT ?directionXY@@YA?AW4DirectionTypes@@HHHH@Z
_TEXT	SEGMENT
tv90 = -56						; size = 4
tv86 = -52						; size = 4
_iDestHexX$ = -16					; size = 4
_iWrappedXOffset$ = -12					; size = 4
_iSourceHexX$ = -8					; size = 4
_iWrappedYOffset$ = -4					; size = 4
_iSourceX$ = 8						; size = 4
_iSourceY$ = 12						; size = 4
_iDestX$ = 16						; size = 4
_iDestY$ = 20						; size = 4
?directionXY@@YA?AW4DirectionTypes@@HHHH@Z PROC		; directionXY, COMDAT

; 264  : {

	push	ebp
	mov	ebp, esp
	sub	esp, 56					; 00000038H

; 265  : 	int iSourceHexX = xToHexspaceX(iSourceX, iSourceY);

	cmp	DWORD PTR _iSourceY$[ebp], 0
	jl	SHORT $LN17@directionX
	mov	eax, DWORD PTR _iSourceY$[ebp]
	sar	eax, 1
	mov	DWORD PTR tv86[ebp], eax
	jmp	SHORT $LN15@directionX
$LN17@directionX:
	mov	eax, DWORD PTR _iSourceY$[ebp]
	sub	eax, 1
	cdq
	sub	eax, edx
	sar	eax, 1
	mov	DWORD PTR tv86[ebp], eax
$LN15@directionX:
	mov	ecx, DWORD PTR _iSourceX$[ebp]
	sub	ecx, DWORD PTR tv86[ebp]
	mov	DWORD PTR _iSourceHexX$[ebp], ecx

; 266  : 	int iDestHexX = xToHexspaceX(iDestX, iDestY);

	cmp	DWORD PTR _iDestY$[ebp], 0
	jl	SHORT $LN21@directionX
	mov	edx, DWORD PTR _iDestY$[ebp]
	sar	edx, 1
	mov	DWORD PTR tv90[ebp], edx
	jmp	SHORT $LN19@directionX
$LN21@directionX:
	mov	eax, DWORD PTR _iDestY$[ebp]
	sub	eax, 1
	cdq
	sub	eax, edx
	sar	eax, 1
	mov	DWORD PTR tv90[ebp], eax
$LN19@directionX:
	mov	eax, DWORD PTR _iDestX$[ebp]
	sub	eax, DWORD PTR tv90[ebp]
	mov	DWORD PTR _iDestHexX$[ebp], eax

; 267  : 
; 268  : 	int iWrappedXOffset = dxWrap(iDestHexX - iSourceHexX);

	mov	ecx, DWORD PTR _iDestHexX$[ebp]
	sub	ecx, DWORD PTR _iSourceHexX$[ebp]
	push	ecx
	call	?dxWrap@@YAHH@Z				; dxWrap
	add	esp, 4
	mov	DWORD PTR _iWrappedXOffset$[ebp], eax

; 269  : 	int iWrappedYOffset = dyWrap(iDestY - iSourceY);

	mov	edx, DWORD PTR _iDestY$[ebp]
	sub	edx, DWORD PTR _iSourceY$[ebp]
	push	edx
	call	?dyWrap@@YAHH@Z				; dyWrap
	add	esp, 4
	mov	DWORD PTR _iWrappedYOffset$[ebp], eax

; 270  : 
; 271  : 	if(iWrappedYOffset > 0)

	cmp	DWORD PTR _iWrappedYOffset$[ebp], 0
	jle	SHORT $LN12@directionX

; 272  : 	{
; 273  : 		if(iWrappedXOffset >= 0)

	cmp	DWORD PTR _iWrappedXOffset$[ebp], 0
	jl	SHORT $LN11@directionX

; 274  : 		{
; 275  : 			return DIRECTION_NORTHEAST;

	xor	eax, eax
	jmp	SHORT $LN13@directionX

; 276  : 		}
; 277  : 		else

	jmp	SHORT $LN10@directionX
$LN11@directionX:

; 278  : 		{
; 279  : 			return DIRECTION_NORTHWEST;

	mov	eax, 5
	jmp	SHORT $LN13@directionX
$LN10@directionX:

; 280  : 		}

	jmp	SHORT $LN13@directionX
$LN12@directionX:

; 281  : 	}
; 282  : 	else if(iWrappedYOffset == 0)

	cmp	DWORD PTR _iWrappedYOffset$[ebp], 0
	jne	SHORT $LN8@directionX

; 283  : 	{
; 284  : 		if(iWrappedXOffset > 0)

	cmp	DWORD PTR _iWrappedXOffset$[ebp], 0
	jle	SHORT $LN7@directionX

; 285  : 		{
; 286  : 			return DIRECTION_EAST;

	mov	eax, 1
	jmp	SHORT $LN13@directionX
	jmp	SHORT $LN6@directionX
$LN7@directionX:

; 287  : 		}
; 288  : 		else if(iWrappedXOffset == 0)

	cmp	DWORD PTR _iWrappedXOffset$[ebp], 0
	jne	SHORT $LN5@directionX

; 289  : 		{
; 290  : 			return NO_DIRECTION;

	or	eax, -1
	jmp	SHORT $LN13@directionX

; 291  : 		}
; 292  : 		else

	jmp	SHORT $LN6@directionX
$LN5@directionX:

; 293  : 		{
; 294  : 			return DIRECTION_WEST;

	mov	eax, 4
	jmp	SHORT $LN13@directionX
$LN6@directionX:

; 295  : 		}
; 296  : 	}
; 297  : 	else// if (iWrappedYOffset < 0)

	jmp	SHORT $LN13@directionX
$LN8@directionX:

; 298  : 	{
; 299  : 		if(iWrappedXOffset > 0)

	cmp	DWORD PTR _iWrappedXOffset$[ebp], 0
	jle	SHORT $LN2@directionX

; 300  : 		{
; 301  : 			return DIRECTION_SOUTHEAST;

	mov	eax, 2
	jmp	SHORT $LN13@directionX

; 302  : 		}
; 303  : 		else

	jmp	SHORT $LN13@directionX
$LN2@directionX:

; 304  : 		{
; 305  : 			return DIRECTION_SOUTHWEST;

	mov	eax, 3
$LN13@directionX:

; 306  : 		}
; 307  : 	}
; 308  : }

	mov	esp, ebp
	pop	ebp
	ret	0
?directionXY@@YA?AW4DirectionTypes@@HHHH@Z ENDP		; directionXY
; Function compile flags: /Odtp
_TEXT	ENDS
;	COMDAT ?dxWrap@@YAHH@Z
_TEXT	SEGMENT
$T234527 = -16						; size = 4
$T234519 = -12						; size = 4
$T234515 = -5						; size = 1
_kMap$ = -4						; size = 4
_iDX$ = 8						; size = 4
?dxWrap@@YAHH@Z PROC					; dxWrap, COMDAT

; 73   : {

	push	ebp
	mov	ebp, esp
	sub	esp, 16					; 00000010H

; 74   : 	const CvMap& kMap = GC.getMap();

	mov	eax, DWORD PTR ?gGlobals@@3VCvGlobals@@A+52
	mov	DWORD PTR _kMap$[ebp], eax

; 75   : 	return wrapCoordDifference(iDX, kMap.getGridWidth(), kMap.isWrapX());

	mov	ecx, DWORD PTR _kMap$[ebp]
	mov	dl, BYTE PTR [ecx+4056]
	mov	BYTE PTR $T234515[ebp], dl
	mov	eax, DWORD PTR _kMap$[ebp]
	mov	ecx, DWORD PTR [eax+4020]
	mov	DWORD PTR $T234519[ebp], ecx
	movzx	edx, BYTE PTR $T234515[ebp]
	test	edx, edx
	je	SHORT $LN12@dxWrap
	mov	eax, DWORD PTR $T234519[ebp]
	shr	eax, 1
	cmp	DWORD PTR _iDX$[ebp], eax
	jle	SHORT $LN11@dxWrap
	mov	ecx, DWORD PTR _iDX$[ebp]
	sub	ecx, DWORD PTR $T234519[ebp]
	mov	DWORD PTR $T234527[ebp], ecx
	jmp	SHORT $LN13@dxWrap
	jmp	SHORT $LN12@dxWrap
$LN11@dxWrap:
	mov	edx, DWORD PTR $T234519[ebp]
	shr	edx, 1
	neg	edx
	cmp	DWORD PTR _iDX$[ebp], edx
	jge	SHORT $LN12@dxWrap
	mov	eax, DWORD PTR _iDX$[ebp]
	add	eax, DWORD PTR $T234519[ebp]
	mov	DWORD PTR $T234527[ebp], eax
	jmp	SHORT $LN13@dxWrap
$LN12@dxWrap:
	mov	ecx, DWORD PTR _iDX$[ebp]
	mov	DWORD PTR $T234527[ebp], ecx
$LN13@dxWrap:
	mov	eax, DWORD PTR $T234527[ebp]

; 76   : }

	mov	esp, ebp
	pop	ebp
	ret	0
?dxWrap@@YAHH@Z ENDP					; dxWrap
; Function compile flags: /Odtp
_TEXT	ENDS
;	COMDAT ?dyWrap@@YAHH@Z
_TEXT	SEGMENT
$T234548 = -16						; size = 4
$T234540 = -12						; size = 4
$T234536 = -5						; size = 1
_kMap$ = -4						; size = 4
_iDY$ = 8						; size = 4
?dyWrap@@YAHH@Z PROC					; dyWrap, COMDAT

; 79   : {

	push	ebp
	mov	ebp, esp
	sub	esp, 16					; 00000010H

; 80   : 	const CvMap& kMap = GC.getMap();

	mov	eax, DWORD PTR ?gGlobals@@3VCvGlobals@@A+52
	mov	DWORD PTR _kMap$[ebp], eax

; 81   : 	return wrapCoordDifference(iDY, kMap.getGridHeight(), kMap.isWrapY());

	mov	ecx, DWORD PTR _kMap$[ebp]
	mov	dl, BYTE PTR [ecx+4057]
	mov	BYTE PTR $T234536[ebp], dl
	mov	eax, DWORD PTR _kMap$[ebp]
	mov	ecx, DWORD PTR [eax+4024]
	mov	DWORD PTR $T234540[ebp], ecx
	movzx	edx, BYTE PTR $T234536[ebp]
	test	edx, edx
	je	SHORT $LN12@dyWrap
	mov	eax, DWORD PTR $T234540[ebp]
	shr	eax, 1
	cmp	DWORD PTR _iDY$[ebp], eax
	jle	SHORT $LN11@dyWrap
	mov	ecx, DWORD PTR _iDY$[ebp]
	sub	ecx, DWORD PTR $T234540[ebp]
	mov	DWORD PTR $T234548[ebp], ecx
	jmp	SHORT $LN13@dyWrap
	jmp	SHORT $LN12@dyWrap
$LN11@dyWrap:
	mov	edx, DWORD PTR $T234540[ebp]
	shr	edx, 1
	neg	edx
	cmp	DWORD PTR _iDY$[ebp], edx
	jge	SHORT $LN12@dyWrap
	mov	eax, DWORD PTR _iDY$[ebp]
	add	eax, DWORD PTR $T234540[ebp]
	mov	DWORD PTR $T234548[ebp], eax
	jmp	SHORT $LN13@dyWrap
$LN12@dyWrap:
	mov	ecx, DWORD PTR _iDY$[ebp]
	mov	DWORD PTR $T234548[ebp], ecx
$LN13@dyWrap:
	mov	eax, DWORD PTR $T234548[ebp]

; 82   : }

	mov	esp, ebp
	pop	ebp
	ret	0
?dyWrap@@YAHH@Z ENDP					; dyWrap
_TEXT	ENDS
PUBLIC	?isRiverConnection@CvPlot@@QBE_NW4DirectionTypes@@@Z ; CvPlot::isRiverConnection
; Function compile flags: /Odtp
; File d:\sources\lekmod_git\checkout\lekmod_dll\cvgamecoredll_expansion2\cvplot.cpp
;	COMDAT ?isRiverConnection@CvPlot@@QBE_NW4DirectionTypes@@@Z
_TEXT	SEGMENT
tv168 = -32						; size = 4
tv156 = -28						; size = 4
tv144 = -24						; size = 4
tv132 = -20						; size = 4
tv88 = -16						; size = 4
tv76 = -12						; size = 4
tv65 = -8						; size = 4
_this$ = -4						; size = 4
_eDirection$ = 8					; size = 4
?isRiverConnection@CvPlot@@QBE_NW4DirectionTypes@@@Z PROC ; CvPlot::isRiverConnection, COMDAT
; _this$ = ecx

; 1227 : {

	push	ebp
	mov	ebp, esp
	sub	esp, 32					; 00000020H
	mov	DWORD PTR _this$[ebp], ecx

; 1228 : 	if(eDirection == NO_DIRECTION)

	cmp	DWORD PTR _eDirection$[ebp], -1
	jne	SHORT $LN10@isRiverCon

; 1229 : 	{
; 1230 : 		return false;

	xor	al, al
	jmp	$LN11@isRiverCon
$LN10@isRiverCon:

; 1231 : 	}
; 1232 : 
; 1233 : 	switch(eDirection)

	mov	eax, DWORD PTR _eDirection$[ebp]
	mov	DWORD PTR tv65[ebp], eax
	cmp	DWORD PTR tv65[ebp], 5
	ja	$LN8@isRiverCon
	mov	ecx, DWORD PTR tv65[ebp]
	jmp	DWORD PTR $LN25@isRiverCon[ecx*4]
$LN7@isRiverCon:

; 1234 : 	{
; 1235 : 
; 1236 : 	case DIRECTION_NORTHEAST:
; 1237 : 		return (isRiverCrossing(DIRECTION_NORTHWEST) || isRiverCrossing(DIRECTION_EAST));

	push	5
	mov	ecx, DWORD PTR _this$[ebp]
	call	?isRiverCrossing@CvPlot@@QBE_NW4DirectionTypes@@@Z ; CvPlot::isRiverCrossing
	movzx	edx, al
	test	edx, edx
	jne	SHORT $LN13@isRiverCon
	push	1
	mov	ecx, DWORD PTR _this$[ebp]
	call	?isRiverCrossing@CvPlot@@QBE_NW4DirectionTypes@@@Z ; CvPlot::isRiverCrossing
	movzx	eax, al
	test	eax, eax
	jne	SHORT $LN13@isRiverCon
	mov	DWORD PTR tv76[ebp], 0
	jmp	SHORT $LN14@isRiverCon
$LN13@isRiverCon:
	mov	DWORD PTR tv76[ebp], 1
$LN14@isRiverCon:
	mov	al, BYTE PTR tv76[ebp]
	jmp	$LN11@isRiverCon

; 1238 : 		break;

	jmp	$LN8@isRiverCon
$LN6@isRiverCon:

; 1239 : 
; 1240 : 	case DIRECTION_EAST:
; 1241 : 		return (isRiverCrossing(DIRECTION_NORTHEAST) || isRiverCrossing(DIRECTION_SOUTHEAST));

	push	0
	mov	ecx, DWORD PTR _this$[ebp]
	call	?isRiverCrossing@CvPlot@@QBE_NW4DirectionTypes@@@Z ; CvPlot::isRiverCrossing
	movzx	ecx, al
	test	ecx, ecx
	jne	SHORT $LN15@isRiverCon
	push	2
	mov	ecx, DWORD PTR _this$[ebp]
	call	?isRiverCrossing@CvPlot@@QBE_NW4DirectionTypes@@@Z ; CvPlot::isRiverCrossing
	movzx	edx, al
	test	edx, edx
	jne	SHORT $LN15@isRiverCon
	mov	DWORD PTR tv88[ebp], 0
	jmp	SHORT $LN16@isRiverCon
$LN15@isRiverCon:
	mov	DWORD PTR tv88[ebp], 1
$LN16@isRiverCon:
	mov	al, BYTE PTR tv88[ebp]
	jmp	$LN11@isRiverCon

; 1242 : 		break;

	jmp	$LN8@isRiverCon
$LN5@isRiverCon:

; 1243 : 
; 1244 : 	case DIRECTION_SOUTHEAST:
; 1245 : 		return (isRiverCrossing(DIRECTION_EAST) || isRiverCrossing(DIRECTION_SOUTHWEST));

	push	1
	mov	ecx, DWORD PTR _this$[ebp]
	call	?isRiverCrossing@CvPlot@@QBE_NW4DirectionTypes@@@Z ; CvPlot::isRiverCrossing
	movzx	eax, al
	test	eax, eax
	jne	SHORT $LN17@isRiverCon
	push	3
	mov	ecx, DWORD PTR _this$[ebp]
	call	?isRiverCrossing@CvPlot@@QBE_NW4DirectionTypes@@@Z ; CvPlot::isRiverCrossing
	movzx	ecx, al
	test	ecx, ecx
	jne	SHORT $LN17@isRiverCon
	mov	DWORD PTR tv132[ebp], 0
	jmp	SHORT $LN18@isRiverCon
$LN17@isRiverCon:
	mov	DWORD PTR tv132[ebp], 1
$LN18@isRiverCon:
	mov	al, BYTE PTR tv132[ebp]
	jmp	$LN11@isRiverCon

; 1246 : 		break;

	jmp	$LN8@isRiverCon
$LN4@isRiverCon:

; 1247 : 
; 1248 : 	case DIRECTION_SOUTHWEST:
; 1249 : 		return (isRiverCrossing(DIRECTION_SOUTHEAST) || isRiverCrossing(DIRECTION_WEST));

	push	2
	mov	ecx, DWORD PTR _this$[ebp]
	call	?isRiverCrossing@CvPlot@@QBE_NW4DirectionTypes@@@Z ; CvPlot::isRiverCrossing
	movzx	edx, al
	test	edx, edx
	jne	SHORT $LN19@isRiverCon
	push	4
	mov	ecx, DWORD PTR _this$[ebp]
	call	?isRiverCrossing@CvPlot@@QBE_NW4DirectionTypes@@@Z ; CvPlot::isRiverCrossing
	movzx	eax, al
	test	eax, eax
	jne	SHORT $LN19@isRiverCon
	mov	DWORD PTR tv144[ebp], 0
	jmp	SHORT $LN20@isRiverCon
$LN19@isRiverCon:
	mov	DWORD PTR tv144[ebp], 1
$LN20@isRiverCon:
	mov	al, BYTE PTR tv144[ebp]
	jmp	SHORT $LN11@isRiverCon

; 1250 : 		break;

	jmp	SHORT $LN8@isRiverCon
$LN3@isRiverCon:

; 1251 : 
; 1252 : 	case DIRECTION_WEST:
; 1253 : 		return (isRiverCrossing(DIRECTION_NORTHWEST) || isRiverCrossing(DIRECTION_SOUTHWEST));

	push	5
	mov	ecx, DWORD PTR _this$[ebp]
	call	?isRiverCrossing@CvPlot@@QBE_NW4DirectionTypes@@@Z ; CvPlot::isRiverCrossing
	movzx	ecx, al
	test	ecx, ecx
	jne	SHORT $LN21@isRiverCon
	push	3
	mov	ecx, DWORD PTR _this$[ebp]
	call	?isRiverCrossing@CvPlot@@QBE_NW4DirectionTypes@@@Z ; CvPlot::isRiverCrossing
	movzx	edx, al
	test	edx, edx
	jne	SHORT $LN21@isRiverCon
	mov	DWORD PTR tv156[ebp], 0
	jmp	SHORT $LN22@isRiverCon
$LN21@isRiverCon:
	mov	DWORD PTR tv156[ebp], 1
$LN22@isRiverCon:
	mov	al, BYTE PTR tv156[ebp]
	jmp	SHORT $LN11@isRiverCon

; 1254 : 		break;

	jmp	SHORT $LN8@isRiverCon
$LN2@isRiverCon:

; 1255 : 
; 1256 : 	case DIRECTION_NORTHWEST:
; 1257 : 		return (isRiverCrossing(DIRECTION_NORTHEAST) || isRiverCrossing(DIRECTION_WEST));

	push	0
	mov	ecx, DWORD PTR _this$[ebp]
	call	?isRiverCrossing@CvPlot@@QBE_NW4DirectionTypes@@@Z ; CvPlot::isRiverCrossing
	movzx	eax, al
	test	eax, eax
	jne	SHORT $LN23@isRiverCon
	push	4
	mov	ecx, DWORD PTR _this$[ebp]
	call	?isRiverCrossing@CvPlot@@QBE_NW4DirectionTypes@@@Z ; CvPlot::isRiverCrossing
	movzx	ecx, al
	test	ecx, ecx
	jne	SHORT $LN23@isRiverCon
	mov	DWORD PTR tv168[ebp], 0
	jmp	SHORT $LN24@isRiverCon
$LN23@isRiverCon:
	mov	DWORD PTR tv168[ebp], 1
$LN24@isRiverCon:
	mov	al, BYTE PTR tv168[ebp]
	jmp	SHORT $LN11@isRiverCon
$LN8@isRiverCon:

; 1258 : 		break;
; 1259 : 
; 1260 : 	default:
; 1261 : 		CvAssert(false);
; 1262 : 		break;
; 1263 : 	}
; 1264 : 
; 1265 : 	return false;

	xor	al, al
$LN11@isRiverCon:

; 1266 : }

	mov	esp, ebp
	pop	ebp
	ret	4
	npad	2
$LN25@isRiverCon:
	DD	$LN7@isRiverCon
	DD	$LN6@isRiverCon
	DD	$LN5@isRiverCon
	DD	$LN4@isRiverCon
	DD	$LN3@isRiverCon
	DD	$LN2@isRiverCon
?isRiverConnection@CvPlot@@QBE_NW4DirectionTypes@@@Z ENDP ; CvPlot::isRiverConnection
_TEXT	ENDS
PUBLIC	?getNeighboringPlot@CvPlot@@QBEPAV1@W4DirectionTypes@@@Z ; CvPlot::getNeighboringPlot
; Function compile flags: /Odtp
;	COMDAT ?getNeighboringPlot@CvPlot@@QBEPAV1@W4DirectionTypes@@@Z
_TEXT	SEGMENT
_this$ = -100						; size = 4
$T234573 = -8						; size = 4
$T234569 = -4						; size = 4
_eDirection$ = 8					; size = 4
?getNeighboringPlot@CvPlot@@QBEPAV1@W4DirectionTypes@@@Z PROC ; CvPlot::getNeighboringPlot, COMDAT
; _this$ = ecx

; 1270 : {

	push	ebp
	mov	ebp, esp
	sub	esp, 100				; 00000064H
	mov	DWORD PTR _this$[ebp], ecx

; 1271 : 	return plotDirection(getX(), getY(), eDirection);

	mov	eax, DWORD PTR _this$[ebp]
	movsx	ecx, WORD PTR [eax+2]
	mov	DWORD PTR $T234569[ebp], ecx
	mov	edx, DWORD PTR _this$[ebp]
	movsx	eax, WORD PTR [edx]
	mov	DWORD PTR $T234573[ebp], eax
	mov	ecx, DWORD PTR _eDirection$[ebp]
	push	ecx
	mov	edx, DWORD PTR $T234569[ebp]
	push	edx
	mov	eax, DWORD PTR $T234573[ebp]
	push	eax
	call	?plotDirection@@YAPAVCvPlot@@HHW4DirectionTypes@@@Z ; plotDirection
	add	esp, 12					; 0000000cH

; 1272 : }

	mov	esp, ebp
	pop	ebp
	ret	4
?getNeighboringPlot@CvPlot@@QBEPAV1@W4DirectionTypes@@@Z ENDP ; CvPlot::getNeighboringPlot
_TEXT	ENDS
PUBLIC	?plotDistance@@YAHHHHH@Z			; plotDistance
PUBLIC	?getNearestLandPlotInternal@CvPlot@@QBEPAV1@H@Z	; CvPlot::getNearestLandPlotInternal
; Function compile flags: /Odtp
;	COMDAT ?getNearestLandPlotInternal@CvPlot@@QBEPAV1@H@Z
_TEXT	SEGMENT
_this$ = -184						; size = 4
$T234932 = -100						; size = 4
$T234928 = -96						; size = 4
$T234924 = -92						; size = 4
$T234920 = -88						; size = 4
$T234819 = -36						; size = 4
$T234815 = -32						; size = 4
$T234811 = -28						; size = 4
$T234807 = -24						; size = 4
$T234803 = -20						; size = 4
$T234799 = -16						; size = 4
_pPlot$222557 = -12					; size = 4
_iDY$222553 = -8					; size = 4
_iDX$222549 = -4					; size = 4
_iDistance$ = 8						; size = 4
?getNearestLandPlotInternal@CvPlot@@QBEPAV1@H@Z PROC	; CvPlot::getNearestLandPlotInternal, COMDAT
; _this$ = ecx

; 1276 : {

	push	ebp
	mov	ebp, esp
	sub	esp, 184				; 000000b8H
	mov	DWORD PTR _this$[ebp], ecx

; 1277 : #ifdef AUI_WARNING_FIXES
; 1278 : 	if (uint(iDistance) > GC.getMap().getGridHeight() && uint(iDistance) > GC.getMap().getGridWidth())
; 1279 : #else
; 1280 : 	if(iDistance > GC.getMap().getGridHeight() && iDistance > GC.getMap().getGridWidth())

	mov	eax, DWORD PTR ?gGlobals@@3VCvGlobals@@A+52
	mov	DWORD PTR $T234799[ebp], eax
	mov	ecx, DWORD PTR $T234799[ebp]
	mov	edx, DWORD PTR [ecx+4024]
	mov	DWORD PTR $T234803[ebp], edx
	mov	eax, DWORD PTR _iDistance$[ebp]
	cmp	eax, DWORD PTR $T234803[ebp]
	jle	SHORT $LN8@getNearest
	mov	ecx, DWORD PTR ?gGlobals@@3VCvGlobals@@A+52
	mov	DWORD PTR $T234807[ebp], ecx
	mov	edx, DWORD PTR $T234807[ebp]
	mov	eax, DWORD PTR [edx+4020]
	mov	DWORD PTR $T234811[ebp], eax
	mov	ecx, DWORD PTR _iDistance$[ebp]
	cmp	ecx, DWORD PTR $T234811[ebp]
	jle	SHORT $LN8@getNearest

; 1281 : #endif
; 1282 : 	{
; 1283 : 		return NULL;

	xor	eax, eax
	jmp	$LN9@getNearest
$LN8@getNearest:

; 1284 : 	}
; 1285 : 
; 1286 : #ifdef AUI_HEXSPACE_DX_LOOPS
; 1287 : 	int iDX, iMaxDX;
; 1288 : 	for (int iDY = -iDistance; iDY <= iDistance; iDY++)
; 1289 : 	{
; 1290 : 		iMaxDX = iDistance - MAX(0, iDY);
; 1291 : 		for (iDX = -iDistance - MIN(0, iDY); iDX <= iMaxDX; ((iDY == abs(iDistance) || iDX == iMaxDX) ? iDX++ : iDX = iMaxDX)) // MIN() and MAX() stuff is to reduce loops (hexspace!)
; 1292 : #else
; 1293 : 	for(int iDX = -iDistance; iDX <= iDistance; iDX++)

	mov	edx, DWORD PTR _iDistance$[ebp]
	neg	edx
	mov	DWORD PTR _iDX$222549[ebp], edx
	jmp	SHORT $LN7@getNearest
$LN6@getNearest:
	mov	eax, DWORD PTR _iDX$222549[ebp]
	add	eax, 1
	mov	DWORD PTR _iDX$222549[ebp], eax
$LN7@getNearest:
	mov	ecx, DWORD PTR _iDX$222549[ebp]
	cmp	ecx, DWORD PTR _iDistance$[ebp]
	jg	$LN5@getNearest

; 1294 : 	{
; 1295 : 		for(int iDY = -iDistance; iDY <= iDistance; iDY++)

	mov	edx, DWORD PTR _iDistance$[ebp]
	neg	edx
	mov	DWORD PTR _iDY$222553[ebp], edx
	jmp	SHORT $LN4@getNearest
$LN3@getNearest:
	mov	eax, DWORD PTR _iDY$222553[ebp]
	add	eax, 1
	mov	DWORD PTR _iDY$222553[ebp], eax
$LN4@getNearest:
	mov	ecx, DWORD PTR _iDY$222553[ebp]
	cmp	ecx, DWORD PTR _iDistance$[ebp]
	jg	$LN2@getNearest

; 1296 : #endif
; 1297 : 		{
; 1298 : 			// bkw - revisit this, it works but is inefficient
; 1299 : 			CvPlot* pPlot = plotXY(getX(), getY(), iDX, iDY);

	mov	edx, DWORD PTR _this$[ebp]
	movsx	eax, WORD PTR [edx+2]
	mov	DWORD PTR $T234815[ebp], eax
	mov	ecx, DWORD PTR _this$[ebp]
	movsx	edx, WORD PTR [ecx]
	mov	DWORD PTR $T234819[ebp], edx
	mov	eax, DWORD PTR _iDY$222553[ebp]
