; Listing generated by Microsoft (R) Optimizing Compiler Version 15.00.30729.01 

	TITLE	D:\sources\Lekmod_git\checkout\LEKMOD_DLL\CvGameCoreDLL_Expansion2\CvPolicyAI.cpp
	.686P
	.XMM
	include listing.inc
	.model	flat

INCLUDELIB MSVCRT
INCLUDELIB OLDNAMES

PUBLIC	?NO_QUEST_DATA@CvMinorCivQuest@@2HB		; CvMinorCivQuest::NO_QUEST_DATA
PUBLIC	?NO_TURN@CvMinorCivQuest@@2HB			; CvMinorCivQuest::NO_TURN
;	COMDAT ?NO_TURN@CvMinorCivQuest@@2HB
CONST	SEGMENT
?NO_TURN@CvMinorCivQuest@@2HB DD 0ffffffffH		; CvMinorCivQuest::NO_TURN
CONST	ENDS
;	COMDAT ?NO_QUEST_DATA@CvMinorCivQuest@@2HB
CONST	SEGMENT
?NO_QUEST_DATA@CvMinorCivQuest@@2HB DD 0ffffffffH	; CvMinorCivQuest::NO_QUEST_DATA
CONST	ENDS
PUBLIC	??1?$CvWeightedVector@H$0EA@$00@@QAE@XZ		; CvWeightedVector<int,64,1>::~CvWeightedVector<int,64,1>
PUBLIC	??0?$FStaticVector@UWeightedElement@?$CvWeightedVector@H$0EA@$00@@$0EA@$00$0A@$0A@@@QAE@XZ ; FStaticVector<CvWeightedVector<int,64,1>::WeightedElement,64,1,0,0>::FStaticVector<CvWeightedVector<int,64,1>::WeightedElement,64,1,0,0>
PUBLIC	??0CvPolicyAI@@QAE@PAVCvPlayerPolicies@@@Z	; CvPolicyAI::CvPolicyAI
EXTRN	___security_cookie:DWORD
EXTRN	___CxxFrameHandler3:PROC
EXTRN	@__security_check_cookie@4:PROC
;	COMDAT xdata$x
; File d:\sources\lekmod_git\checkout\lekmod_dll\fireplace\include\fireworks\ffastvector.h
xdata$x	SEGMENT
__unwindtable$??0CvPolicyAI@@QAE@PAVCvPlayerPolicies@@@Z DD 0ffffffffH
	DD	FLAT:__unwindfunclet$??0CvPolicyAI@@QAE@PAVCvPlayerPolicies@@@Z$0
__ehfuncinfo$??0CvPolicyAI@@QAE@PAVCvPlayerPolicies@@@Z DD 019930522H
	DD	01H
	DD	FLAT:__unwindtable$??0CvPolicyAI@@QAE@PAVCvPlayerPolicies@@@Z
	DD	2 DUP(00H)
	DD	2 DUP(00H)
	DD	00H
	DD	01H
; Function compile flags: /Odtp
; File d:\sources\lekmod_git\checkout\lekmod_dll\cvgamecoredll_expansion2\cvpolicyai.cpp
xdata$x	ENDS
;	COMDAT ??0CvPolicyAI@@QAE@PAVCvPlayerPolicies@@@Z
_TEXT	SEGMENT
_this$ = -40						; size = 4
$T222991 = -36						; size = 4
$T222974 = -24						; size = 4
__$EHRec$ = -12						; size = 12
_currentPolicies$ = 8					; size = 4
??0CvPolicyAI@@QAE@PAVCvPlayerPolicies@@@Z PROC		; CvPolicyAI::CvPolicyAI, COMDAT
; _this$ = ecx

; 20   : {

	push	ebp
	mov	ebp, esp
	push	-1
	push	__ehhandler$??0CvPolicyAI@@QAE@PAVCvPlayerPolicies@@@Z
	mov	eax, DWORD PTR fs:0
	push	eax
	sub	esp, 28					; 0000001cH
	mov	eax, DWORD PTR ___security_cookie
	xor	eax, ebp
	push	eax
	lea	eax, DWORD PTR __$EHRec$[ebp]
	mov	DWORD PTR fs:0, eax
	mov	DWORD PTR _this$[ebp], ecx
	mov	eax, DWORD PTR _this$[ebp]
	mov	ecx, DWORD PTR _currentPolicies$[ebp]
	mov	DWORD PTR [eax], ecx
	mov	edx, DWORD PTR _this$[ebp]
	add	edx, 4
	mov	DWORD PTR $T222974[ebp], edx
	mov	ecx, DWORD PTR $T222974[ebp]
	call	??0?$FStaticVector@UWeightedElement@?$CvWeightedVector@H$0EA@$00@@$0EA@$00$0A@$0A@@@QAE@XZ ; FStaticVector<CvWeightedVector<int,64,1>::WeightedElement,64,1,0,0>::FStaticVector<CvWeightedVector<int,64,1>::WeightedElement,64,1,0,0>
	mov	DWORD PTR __$EHRec$[ebp+8], 0
	mov	eax, DWORD PTR _this$[ebp]
	add	eax, 532				; 00000214H
	mov	DWORD PTR $T222991[ebp], eax
	mov	ecx, DWORD PTR $T222991[ebp]
	call	??0?$FStaticVector@UWeightedElement@?$CvWeightedVector@H$0EA@$00@@$0EA@$00$0A@$0A@@@QAE@XZ ; FStaticVector<CvWeightedVector<int,64,1>::WeightedElement,64,1,0,0>::FStaticVector<CvWeightedVector<int,64,1>::WeightedElement,64,1,0,0>

; 21   : #ifdef AUI_WARNING_FIXES
; 22   : 	m_iPolicyWeightPropagationLevels = 0;
; 23   : 	m_iPolicyWeightPercentDropNewBranch = 0;
; 24   : #endif	
; 25   : }

	mov	DWORD PTR __$EHRec$[ebp+8], -1
	mov	eax, DWORD PTR _this$[ebp]
	mov	ecx, DWORD PTR __$EHRec$[ebp]
	mov	DWORD PTR fs:0, ecx
	pop	ecx
	mov	esp, ebp
	pop	ebp
	ret	4
_TEXT	ENDS
;	COMDAT text$x
text$x	SEGMENT
__unwindfunclet$??0CvPolicyAI@@QAE@PAVCvPlayerPolicies@@@Z$0:
	mov	ecx, DWORD PTR _this$[ebp]
	add	ecx, 4
	jmp	??1?$CvWeightedVector@H$0EA@$00@@QAE@XZ	; CvWeightedVector<int,64,1>::~CvWeightedVector<int,64,1>
__ehhandler$??0CvPolicyAI@@QAE@PAVCvPlayerPolicies@@@Z:
	mov	edx, DWORD PTR [esp+8]
	lea	eax, DWORD PTR [edx+12]
	mov	ecx, DWORD PTR [edx-32]
	xor	ecx, eax
	call	@__security_check_cookie@4
	mov	eax, OFFSET __ehfuncinfo$??0CvPolicyAI@@QAE@PAVCvPlayerPolicies@@@Z
	jmp	___CxxFrameHandler3
text$x	ENDS
??0CvPolicyAI@@QAE@PAVCvPlayerPolicies@@@Z ENDP		; CvPolicyAI::CvPolicyAI
PUBLIC	??1?$FStaticVector@UWeightedElement@?$CvWeightedVector@H$0EA@$00@@$0EA@$00$0A@$0A@@@QAE@XZ ; FStaticVector<CvWeightedVector<int,64,1>::WeightedElement,64,1,0,0>::~FStaticVector<CvWeightedVector<int,64,1>::WeightedElement,64,1,0,0>
PUBLIC	??1CvPolicyAI@@QAE@XZ				; CvPolicyAI::~CvPolicyAI
;	COMDAT xdata$x
; File d:\sources\lekmod_git\checkout\lekmod_dll\fireplace\include\fireworks\ffastvector.h
xdata$x	SEGMENT
__unwindtable$??1CvPolicyAI@@QAE@XZ DD 0ffffffffH
	DD	FLAT:__unwindfunclet$??1CvPolicyAI@@QAE@XZ$0
__ehfuncinfo$??1CvPolicyAI@@QAE@XZ DD 019930522H
	DD	01H
	DD	FLAT:__unwindtable$??1CvPolicyAI@@QAE@XZ
	DD	2 DUP(00H)
	DD	2 DUP(00H)
	DD	00H
	DD	01H
; Function compile flags: /Odtp
; File d:\sources\lekmod_git\checkout\lekmod_dll\cvgamecoredll_expansion2\cvpolicyai.cpp
xdata$x	ENDS
;	COMDAT ??1CvPolicyAI@@QAE@XZ
_TEXT	SEGMENT
_this$ = -48						; size = 4
$T223070 = -44						; size = 4
$T223038 = -28						; size = 4
__$EHRec$ = -12						; size = 12
??1CvPolicyAI@@QAE@XZ PROC				; CvPolicyAI::~CvPolicyAI, COMDAT
; _this$ = ecx

; 29   : {

	push	ebp
	mov	ebp, esp
	push	-1
	push	__ehhandler$??1CvPolicyAI@@QAE@XZ
	mov	eax, DWORD PTR fs:0
	push	eax
	sub	esp, 36					; 00000024H
	mov	eax, DWORD PTR ___security_cookie
	xor	eax, ebp
	push	eax
	lea	eax, DWORD PTR __$EHRec$[ebp]
	mov	DWORD PTR fs:0, eax
	mov	DWORD PTR _this$[ebp], ecx
	mov	DWORD PTR __$EHRec$[ebp+8], 0

; 30   : }

	mov	eax, DWORD PTR _this$[ebp]
	add	eax, 532				; 00000214H
	mov	DWORD PTR $T223038[ebp], eax
	mov	ecx, DWORD PTR $T223038[ebp]
	call	??1?$FStaticVector@UWeightedElement@?$CvWeightedVector@H$0EA@$00@@$0EA@$00$0A@$0A@@@QAE@XZ ; FStaticVector<CvWeightedVector<int,64,1>::WeightedElement,64,1,0,0>::~FStaticVector<CvWeightedVector<int,64,1>::WeightedElement,64,1,0,0>
	mov	DWORD PTR __$EHRec$[ebp+8], -1
	mov	ecx, DWORD PTR _this$[ebp]
	add	ecx, 4
	mov	DWORD PTR $T223070[ebp], ecx
	mov	ecx, DWORD PTR $T223070[ebp]
	call	??1?$FStaticVector@UWeightedElement@?$CvWeightedVector@H$0EA@$00@@$0EA@$00$0A@$0A@@@QAE@XZ ; FStaticVector<CvWeightedVector<int,64,1>::WeightedElement,64,1,0,0>::~FStaticVector<CvWeightedVector<int,64,1>::WeightedElement,64,1,0,0>
	mov	ecx, DWORD PTR __$EHRec$[ebp]
	mov	DWORD PTR fs:0, ecx
	pop	ecx
	mov	esp, ebp
	pop	ebp
	ret	0
_TEXT	ENDS
;	COMDAT text$x
text$x	SEGMENT
__unwindfunclet$??1CvPolicyAI@@QAE@XZ$0:
	mov	ecx, DWORD PTR _this$[ebp]
	add	ecx, 4
	jmp	??1?$CvWeightedVector@H$0EA@$00@@QAE@XZ	; CvWeightedVector<int,64,1>::~CvWeightedVector<int,64,1>
__ehhandler$??1CvPolicyAI@@QAE@XZ:
	mov	edx, DWORD PTR [esp+8]
	lea	eax, DWORD PTR [edx+12]
	mov	ecx, DWORD PTR [edx-40]
	xor	ecx, eax
	call	@__security_check_cookie@4
	mov	eax, OFFSET __ehfuncinfo$??1CvPolicyAI@@QAE@XZ
	jmp	___CxxFrameHandler3
text$x	ENDS
??1CvPolicyAI@@QAE@XZ ENDP				; CvPolicyAI::~CvPolicyAI
PUBLIC	?push_back@?$FStaticVector@UWeightedElement@?$CvWeightedVector@H$0EA@$00@@$0EA@$00$0A@$0A@@@QAEIABUWeightedElement@?$CvWeightedVector@H$0EA@$00@@@Z ; FStaticVector<CvWeightedVector<int,64,1>::WeightedElement,64,1,0,0>::push_back
PUBLIC	?Reset@CvPolicyAI@@QAEXXZ			; CvPolicyAI::Reset
EXTRN	?GetNumPolicies@CvPolicyXMLEntries@@QAEHXZ:PROC	; CvPolicyXMLEntries::GetNumPolicies
EXTRN	?GetPolicies@CvPlayerPolicies@@QBEPAVCvPolicyXMLEntries@@XZ:PROC ; CvPlayerPolicies::GetPolicies
EXTRN	?gGlobals@@3VCvGlobals@@A:BYTE			; gGlobals
; Function compile flags: /Odtp
;	COMDAT ?Reset@CvPolicyAI@@QAEXXZ
_TEXT	SEGMENT
_this$ = -80						; size = 4
_weightedElem$223155 = -36				; size = 8
$T223117 = -28						; size = 4
$T223113 = -24						; size = 4
$T223109 = -20						; size = 4
_i$223105 = -16						; size = 4
_i$221286 = -12						; size = 4
_nPolicyEntries$221285 = -8				; size = 4
_pPolicyEntries$221283 = -4				; size = 4
?Reset@CvPolicyAI@@QAEXXZ PROC				; CvPolicyAI::Reset, COMDAT
; _this$ = ecx

; 34   : {

	push	ebp
	mov	ebp, esp
	sub	esp, 80					; 00000050H
	mov	DWORD PTR _this$[ebp], ecx

; 35   : 	m_PolicyAIWeights.clear();

	mov	eax, DWORD PTR _this$[ebp]
	add	eax, 4
	mov	DWORD PTR $T223109[ebp], eax
	xor	ecx, ecx
	je	SHORT $LN16@Reset
	mov	DWORD PTR _i$223105[ebp], 0
	jmp	SHORT $LN14@Reset
$LN13@Reset:
	mov	edx, DWORD PTR _i$223105[ebp]
	add	edx, 1
	mov	DWORD PTR _i$223105[ebp], edx
$LN14@Reset:
	mov	eax, DWORD PTR $T223109[ebp]
	mov	ecx, DWORD PTR _i$223105[ebp]
	cmp	ecx, DWORD PTR [eax+4]
	jae	SHORT $LN16@Reset
	jmp	SHORT $LN13@Reset
$LN16@Reset:
	mov	edx, DWORD PTR $T223109[ebp]
	mov	DWORD PTR [edx+4], 0

; 36   : 	m_iPolicyWeightPropagationLevels = GC.getPOLICY_WEIGHT_PROPAGATION_LEVELS();

	mov	eax, DWORD PTR ?gGlobals@@3VCvGlobals@@A+1828
	mov	DWORD PTR $T223113[ebp], eax
	mov	ecx, DWORD PTR _this$[ebp]
	mov	edx, DWORD PTR $T223113[ebp]
	mov	DWORD PTR [ecx+1060], edx

; 37   : 	m_iPolicyWeightPercentDropNewBranch = GC.getPOLICY_WEIGHT_PERCENT_DROP_NEW_BRANCH();

	mov	eax, DWORD PTR ?gGlobals@@3VCvGlobals@@A+1832
	mov	DWORD PTR $T223117[ebp], eax
	mov	ecx, DWORD PTR _this$[ebp]
	mov	edx, DWORD PTR $T223117[ebp]
	mov	DWORD PTR [ecx+1064], edx

; 38   : 
; 39   : 	CvAssertMsg(m_pCurrentPolicies != NULL, "Policy AI init failure: player policy data is NULL");
; 40   : 	if(m_pCurrentPolicies != NULL)

	mov	eax, DWORD PTR _this$[ebp]
	cmp	DWORD PTR [eax], 0
	je	SHORT $LN6@Reset

; 41   : 	{
; 42   : 		CvPolicyXMLEntries* pPolicyEntries = m_pCurrentPolicies->GetPolicies();

	mov	ecx, DWORD PTR _this$[ebp]
	mov	ecx, DWORD PTR [ecx]
	call	?GetPolicies@CvPlayerPolicies@@QBEPAVCvPolicyXMLEntries@@XZ ; CvPlayerPolicies::GetPolicies
	mov	DWORD PTR _pPolicyEntries$221283[ebp], eax

; 43   : 		CvAssertMsg(pPolicyEntries != NULL, "Policy AI init failure: no policy data");
; 44   : 		if(pPolicyEntries != NULL)

	cmp	DWORD PTR _pPolicyEntries$221283[ebp], 0
	je	SHORT $LN6@Reset

; 45   : 		{
; 46   : 			// Loop through reading each one and add an entry with 0 weight to our vector
; 47   : 			const int nPolicyEntries = pPolicyEntries->GetNumPolicies();

	mov	ecx, DWORD PTR _pPolicyEntries$221283[ebp]
	call	?GetNumPolicies@CvPolicyXMLEntries@@QAEHXZ ; CvPolicyXMLEntries::GetNumPolicies
	mov	DWORD PTR _nPolicyEntries$221285[ebp], eax

; 48   : 			for(int i = 0; i < nPolicyEntries; i++)

	mov	DWORD PTR _i$221286[ebp], 0
	jmp	SHORT $LN3@Reset
$LN2@Reset:
	mov	edx, DWORD PTR _i$221286[ebp]
	add	edx, 1
	mov	DWORD PTR _i$221286[ebp], edx
$LN3@Reset:
	mov	eax, DWORD PTR _i$221286[ebp]
	cmp	eax, DWORD PTR _nPolicyEntries$221285[ebp]
	jge	SHORT $LN6@Reset

; 49   : 			{
; 50   : 				m_PolicyAIWeights.push_back(i, 0);

	mov	DWORD PTR _weightedElem$223155[ebp], 0
	mov	DWORD PTR _weightedElem$223155[ebp+4], 0
	mov	ecx, DWORD PTR _i$221286[ebp]
	mov	DWORD PTR _weightedElem$223155[ebp], ecx
	mov	DWORD PTR _weightedElem$223155[ebp+4], 0
	lea	edx, DWORD PTR _weightedElem$223155[ebp]
	push	edx
	mov	ecx, DWORD PTR _this$[ebp]
	add	ecx, 4
	call	?push_back@?$FStaticVector@UWeightedElement@?$CvWeightedVector@H$0EA@$00@@$0EA@$00$0A@$0A@@@QAEIABUWeightedElement@?$CvWeightedVector@H$0EA@$00@@@Z ; FStaticVector<CvWeightedVector<int,64,1>::WeightedElement,64,1,0,0>::push_back

; 51   : 			}

	jmp	SHORT $LN2@Reset
$LN6@Reset:

; 52   : 		}
; 53   : 	}
; 54   : }

	mov	esp, ebp
	pop	ebp
	ret	0
?Reset@CvPolicyAI@@QAEXXZ ENDP				; CvPolicyAI::Reset
_TEXT	ENDS
PUBLIC	?GrowSize@?$FStaticVector@UWeightedElement@?$CvWeightedVector@H$0EA@$00@@$0EA@$00$0A@$0A@@@IAEXI@Z ; FStaticVector<CvWeightedVector<int,64,1>::WeightedElement,64,1,0,0>::GrowSize
PUBLIC	?Read@CvPolicyAI@@QAEXAAVFDataStream@@@Z	; CvPolicyAI::Read
EXTRN	?Read@FDataStream@@IAEXAAH@Z:PROC		; FDataStream::Read
EXTRN	?ReadHashed@CvInfosSerializationHelper@@YAHAAVFDataStream@@PA_N@Z:PROC ; CvInfosSerializationHelper::ReadHashed
EXTRN	?Read@FDataStream@@IAEXAAI@Z:PROC		; FDataStream::Read
; Function compile flags: /Odtp
;	COMDAT ?Read@CvPolicyAI@@QAEXAAVFDataStream@@@Z
_TEXT	SEGMENT
_this$ = -48						; size = 4
$T223228 = -44						; size = 4
$T223205 = -40						; size = 4
$T223194 = -36						; size = 4
_i$223189 = -32						; size = 4
_ePolicy$221306 = -28					; size = 4
_uiIndex$221302 = -24					; size = 4
_uiIndex$221297 = -20					; size = 4
_uiPolicyArraySize$ = -16				; size = 4
_uiVersion$ = -12					; size = 4
_iWeight$ = -8						; size = 4
_uiPolicyCount$ = -4					; size = 4
_kStream$ = 8						; size = 4
?Read@CvPolicyAI@@QAEXAAVFDataStream@@@Z PROC		; CvPolicyAI::Read, COMDAT
; _this$ = ecx

; 58   : {

	push	ebp
	mov	ebp, esp
	sub	esp, 48					; 00000030H
	mov	DWORD PTR _this$[ebp], ecx

; 59   : 	// Version number to maintain backwards compatibility
; 60   : 	uint uiVersion;
; 61   : 	kStream >> uiVersion;

	lea	eax, DWORD PTR _uiVersion$[ebp]
	push	eax
	mov	ecx, DWORD PTR _kStream$[ebp]
	call	?Read@FDataStream@@IAEXAAI@Z		; FDataStream::Read

; 62   : 
; 63   : 	int iWeight;
; 64   : 
; 65   : 	CvAssertMsg(m_pCurrentPolicies->GetPolicies() != NULL, "Policy AI serialization failure: no policy data");
; 66   : 	CvAssertMsg(m_pCurrentPolicies->GetPolicies()->GetNumPolicies() > 0, "Policy AI serialization failure: number of policies not greater than 0");
; 67   : 
; 68   : 	// Reset vector
; 69   : 	m_PolicyAIWeights.clear();

	mov	ecx, DWORD PTR _this$[ebp]
	add	ecx, 4
	mov	DWORD PTR $T223194[ebp], ecx
	xor	edx, edx
	je	SHORT $LN20@Read
	mov	DWORD PTR _i$223189[ebp], 0
	jmp	SHORT $LN18@Read
$LN17@Read:
	mov	eax, DWORD PTR _i$223189[ebp]
	add	eax, 1
	mov	DWORD PTR _i$223189[ebp], eax
$LN18@Read:
	mov	ecx, DWORD PTR $T223194[ebp]
	mov	edx, DWORD PTR _i$223189[ebp]
	cmp	edx, DWORD PTR [ecx+4]
	jae	SHORT $LN20@Read
	jmp	SHORT $LN17@Read
$LN20@Read:
	mov	eax, DWORD PTR $T223194[ebp]
	mov	DWORD PTR [eax+4], 0

; 70   : 
; 71   : 	uint uiPolicyArraySize = m_pCurrentPolicies->GetPolicies()->GetNumPolicies();

	mov	ecx, DWORD PTR _this$[ebp]
	mov	ecx, DWORD PTR [ecx]
	call	?GetPolicies@CvPlayerPolicies@@QBEPAVCvPolicyXMLEntries@@XZ ; CvPlayerPolicies::GetPolicies
	mov	ecx, eax
	call	?GetNumPolicies@CvPolicyXMLEntries@@QAEHXZ ; CvPolicyXMLEntries::GetNumPolicies
	mov	DWORD PTR _uiPolicyArraySize$[ebp], eax

; 72   : 	// Must set to the final size because we might not be adding in sequentially
; 73   : 	m_PolicyAIWeights.resize(uiPolicyArraySize);

	mov	edx, DWORD PTR _this$[ebp]
	add	edx, 4
	mov	DWORD PTR $T223205[ebp], edx
	mov	eax, DWORD PTR $T223205[ebp]
	mov	ecx, DWORD PTR [eax+8]
	cmp	ecx, DWORD PTR _uiPolicyArraySize$[ebp]
	jae	SHORT $LN24@Read
	mov	edx, DWORD PTR _uiPolicyArraySize$[ebp]
	push	edx
	mov	ecx, DWORD PTR $T223205[ebp]
	call	?GrowSize@?$FStaticVector@UWeightedElement@?$CvWeightedVector@H$0EA@$00@@$0EA@$00$0A@$0A@@@IAEXI@Z ; FStaticVector<CvWeightedVector<int,64,1>::WeightedElement,64,1,0,0>::GrowSize
$LN24@Read:
	mov	eax, DWORD PTR $T223205[ebp]
	mov	ecx, DWORD PTR _uiPolicyArraySize$[ebp]
	mov	DWORD PTR [eax+4], ecx

; 74   : 	// Clear the contents in case we are loading a smaller set
; 75   : 	for(uint uiIndex = 0; uiIndex < uiPolicyArraySize; ++uiIndex)

	mov	DWORD PTR _uiIndex$221297[ebp], 0
	jmp	SHORT $LN7@Read
$LN6@Read:
	mov	edx, DWORD PTR _uiIndex$221297[ebp]
	add	edx, 1
	mov	DWORD PTR _uiIndex$221297[ebp], edx
$LN7@Read:
	mov	eax, DWORD PTR _uiIndex$221297[ebp]
	cmp	eax, DWORD PTR _uiPolicyArraySize$[ebp]
	jae	SHORT $LN5@Read

; 76   : 		m_PolicyAIWeights.SetWeight(uiIndex, 0);

	mov	ecx, DWORD PTR _this$[ebp]
	mov	edx, DWORD PTR [ecx+4]
	mov	eax, DWORD PTR _uiIndex$221297[ebp]
	mov	DWORD PTR [edx+eax*8+4], 0
	jmp	SHORT $LN6@Read
$LN5@Read:

; 77   : 
; 78   : 	uint uiPolicyCount;
; 79   : 	kStream >> uiPolicyCount;

	lea	ecx, DWORD PTR _uiPolicyCount$[ebp]
	push	ecx
	mov	ecx, DWORD PTR _kStream$[ebp]
	call	?Read@FDataStream@@IAEXAAI@Z		; FDataStream::Read

; 80   : 
; 81   : 	for(uint uiIndex = 0; uiIndex < uiPolicyCount; ++uiIndex)

	mov	DWORD PTR _uiIndex$221302[ebp], 0
	jmp	SHORT $LN4@Read
$LN3@Read:
	mov	edx, DWORD PTR _uiIndex$221302[ebp]
	add	edx, 1
	mov	DWORD PTR _uiIndex$221302[ebp], edx
$LN4@Read:
	mov	eax, DWORD PTR _uiIndex$221302[ebp]
	cmp	eax, DWORD PTR _uiPolicyCount$[ebp]
	jae	SHORT $LN8@Read

; 82   : 	{
; 83   : 		PolicyTypes ePolicy = (PolicyTypes)CvInfosSerializationHelper::ReadHashed(kStream);

	push	0
	mov	ecx, DWORD PTR _kStream$[ebp]
	push	ecx
	call	?ReadHashed@CvInfosSerializationHelper@@YAHAAVFDataStream@@PA_N@Z ; CvInfosSerializationHelper::ReadHashed
	add	esp, 8
	mov	DWORD PTR _ePolicy$221306[ebp], eax

; 84   : 		kStream >> iWeight;

	lea	edx, DWORD PTR _iWeight$[ebp]
	push	edx
	mov	ecx, DWORD PTR _kStream$[ebp]
	call	?Read@FDataStream@@IAEXAAH@Z		; FDataStream::Read

; 85   : 		if(ePolicy != NO_POLICY && (uint)ePolicy < uiPolicyArraySize)

	cmp	DWORD PTR _ePolicy$221306[ebp], -1
	je	SHORT $LN1@Read
	mov	eax, DWORD PTR _ePolicy$221306[ebp]
	cmp	eax, DWORD PTR _uiPolicyArraySize$[ebp]
	jae	SHORT $LN1@Read

; 86   : 			m_PolicyAIWeights.SetWeight((uint)ePolicy, iWeight);

	mov	ecx, DWORD PTR _iWeight$[ebp]
	mov	DWORD PTR $T223228[ebp], ecx
	mov	edx, DWORD PTR _this$[ebp]
	mov	eax, DWORD PTR [edx+4]
	mov	ecx, DWORD PTR _ePolicy$221306[ebp]
	mov	edx, DWORD PTR $T223228[ebp]
	mov	DWORD PTR [eax+ecx*8+4], edx
$LN1@Read:
	jmp	SHORT $LN3@Read
$LN8@Read:

; 87   : 	}
; 88   : }

	mov	esp, ebp
	pop	ebp
	ret	4
?Read@CvPolicyAI@@QAEXAAVFDataStream@@@Z ENDP		; CvPolicyAI::Read
_TEXT	ENDS
PUBLIC	?Write@CvPolicyAI@@QAEXAAVFDataStream@@@Z	; CvPolicyAI::Write
EXTRN	?Write@FDataStream@@IAEXABH@Z:PROC		; FDataStream::Write
EXTRN	?WriteHashed@CvInfosSerializationHelper@@YA_NAAVFDataStream@@W4PolicyTypes@@@Z:PROC ; CvInfosSerializationHelper::WriteHashed
EXTRN	?Write@FDataStream@@IAEXABI@Z:PROC		; FDataStream::Write
; Function compile flags: /Odtp
;	COMDAT ?Write@CvPolicyAI@@QAEXAAVFDataStream@@@Z
_TEXT	SEGMENT
_this$ = -28						; size = 4
_elem$223251 = -24					; size = 8
$T223231 = -16						; size = 4
_i$221317 = -12						; size = 4
_uiVersion$ = -8					; size = 4
_uiPolicyCount$ = -4					; size = 4
_kStream$ = 8						; size = 4
?Write@CvPolicyAI@@QAEXAAVFDataStream@@@Z PROC		; CvPolicyAI::Write, COMDAT
; _this$ = ecx

; 92   : {

	push	ebp
	mov	ebp, esp
	sub	esp, 28					; 0000001cH
	mov	DWORD PTR _this$[ebp], ecx

; 93   : 	// Current version number
; 94   : 	uint uiVersion = 1;

	mov	DWORD PTR _uiVersion$[ebp], 1

; 95   : 	kStream << uiVersion;

	lea	eax, DWORD PTR _uiVersion$[ebp]
	push	eax
	mov	ecx, DWORD PTR _kStream$[ebp]
	call	?Write@FDataStream@@IAEXABI@Z		; FDataStream::Write

; 96   : 
; 97   : 	CvAssertMsg(m_pCurrentPolicies->GetPolicies() != NULL, "Policy AI serialization failure: no policy data");
; 98   : 	CvAssertMsg(m_pCurrentPolicies->GetPolicies()->GetNumPolicies() > 0, "Policy AI serialization failure: number of policies not greater than 0");
; 99   : 
; 100  : 	// Loop through writing each entry
; 101  : 	uint uiPolicyCount = m_pCurrentPolicies->GetPolicies()->GetNumPolicies();

	mov	ecx, DWORD PTR _this$[ebp]
	mov	ecx, DWORD PTR [ecx]
	call	?GetPolicies@CvPlayerPolicies@@QBEPAVCvPolicyXMLEntries@@XZ ; CvPlayerPolicies::GetPolicies
	mov	ecx, eax
	call	?GetNumPolicies@CvPolicyXMLEntries@@QAEHXZ ; CvPolicyXMLEntries::GetNumPolicies
	mov	DWORD PTR _uiPolicyCount$[ebp], eax

; 102  : 	kStream << uiPolicyCount;

	lea	edx, DWORD PTR _uiPolicyCount$[ebp]
	push	edx
	mov	ecx, DWORD PTR _kStream$[ebp]
	call	?Write@FDataStream@@IAEXABI@Z		; FDataStream::Write

; 103  : 
; 104  : #ifdef AUI_WARNING_FIXES
; 105  : 	for (uint i = 0; i < m_pCurrentPolicies->GetPolicies()->GetNumPolicies(); i++)
; 106  : #else
; 107  : 	for(int i = 0; i < m_pCurrentPolicies->GetPolicies()->GetNumPolicies(); i++)

	mov	DWORD PTR _i$221317[ebp], 0
	jmp	SHORT $LN3@Write
$LN2@Write:
	mov	eax, DWORD PTR _i$221317[ebp]
	add	eax, 1
	mov	DWORD PTR _i$221317[ebp], eax
$LN3@Write:
	mov	ecx, DWORD PTR _this$[ebp]
	mov	ecx, DWORD PTR [ecx]
	call	?GetPolicies@CvPlayerPolicies@@QBEPAVCvPolicyXMLEntries@@XZ ; CvPlayerPolicies::GetPolicies
	mov	ecx, eax
	call	?GetNumPolicies@CvPolicyXMLEntries@@QAEHXZ ; CvPolicyXMLEntries::GetNumPolicies
	cmp	DWORD PTR _i$221317[ebp], eax
	jge	SHORT $LN4@Write

; 108  : #endif
; 109  : 	{
; 110  : 		CvInfosSerializationHelper::WriteHashed(kStream, static_cast<const PolicyTypes>(i));

	mov	edx, DWORD PTR _i$221317[ebp]
	push	edx
	mov	eax, DWORD PTR _kStream$[ebp]
	push	eax
	call	?WriteHashed@CvInfosSerializationHelper@@YA_NAAVFDataStream@@W4PolicyTypes@@@Z ; CvInfosSerializationHelper::WriteHashed
	add	esp, 8

; 111  : 		kStream << m_PolicyAIWeights.GetWeight(i);

	mov	DWORD PTR _elem$223251[ebp], 0
	mov	DWORD PTR _elem$223251[ebp+4], 0
	mov	ecx, DWORD PTR _this$[ebp]
	mov	edx, DWORD PTR [ecx+4]
	mov	eax, DWORD PTR _i$221317[ebp]
	mov	ecx, DWORD PTR [edx+eax*8]
	mov	edx, DWORD PTR [edx+eax*8+4]
	mov	DWORD PTR _elem$223251[ebp], ecx
	mov	DWORD PTR _elem$223251[ebp+4], edx
	mov	eax, DWORD PTR _elem$223251[ebp+4]
	mov	DWORD PTR $T223231[ebp], eax
	lea	ecx, DWORD PTR $T223231[ebp]
	push	ecx
	mov	ecx, DWORD PTR _kStream$[ebp]
	call	?Write@FDataStream@@IAEXABH@Z		; FDataStream::Write

; 112  : 	}

	jmp	SHORT $LN2@Write
$LN4@Write:

; 113  : }

	mov	esp, ebp
	pop	ebp
	ret	4
?Write@CvPolicyAI@@QAEXAAVFDataStream@@@Z ENDP		; CvPolicyAI::Write
_TEXT	ENDS
PUBLIC	?WeightPrereqs@CvPolicyAI@@AAEXPAHH@Z		; CvPolicyAI::WeightPrereqs
PUBLIC	__$ArrayPad$
PUBLIC	?AddFlavorWeights@CvPolicyAI@@QAEXW4FlavorTypes@@HH@Z ; CvPolicyAI::AddFlavorWeights
EXTRN	?GetFlavorValue@CvPolicyEntry@@QBEHH@Z:PROC	; CvPolicyEntry::GetFlavorValue
EXTRN	?GetPolicyEntry@CvPolicyXMLEntries@@QAEPAVCvPolicyEntry@@H@Z:PROC ; CvPolicyXMLEntries::GetPolicyEntry
EXTRN	__alloca_probe_16:PROC
; Function compile flags: /Odtp
;	COMDAT ?AddFlavorWeights@CvPolicyAI@@QAEXW4FlavorTypes@@HH@Z
_TEXT	SEGMENT
tv144 = -36						; size = 4
tv71 = -32						; size = 4
_this$ = -28						; size = 4
$T223266 = -24						; size = 4
__$ArrayPad$ = -20					; size = 4
_entry$ = -16						; size = 4
_iPolicy$ = -12						; size = 4
_paiTempWeights$ = -8					; size = 4
_pkPolicyEntries$ = -4					; size = 4
_eFlavor$ = 8						; size = 4
_iWeight$ = 12						; size = 4
_iPropagationPercent$ = 16				; size = 4
?AddFlavorWeights@CvPolicyAI@@QAEXW4FlavorTypes@@HH@Z PROC ; CvPolicyAI::AddFlavorWeights, COMDAT
; _this$ = ecx

; 117  : {

	push	ebp
	mov	ebp, esp
	sub	esp, 36					; 00000024H
	mov	eax, DWORD PTR ___security_cookie
	xor	eax, ebp
	mov	DWORD PTR __$ArrayPad$[ebp], eax
	mov	DWORD PTR _this$[ebp], ecx

; 118  : #ifdef AUI_WARNING_FIXES
; 119  : 	uint iPolicy;
; 120  : #else
; 121  : 	int iPolicy;
; 122  : #endif
; 123  : 	CvPolicyEntry* entry;
; 124  : #ifndef AUI_WARNING_FIXES
; 125  : 	int* paiTempWeights;
; 126  : #endif
; 127  : 
; 128  : 	CvPolicyXMLEntries* pkPolicyEntries = m_pCurrentPolicies->GetPolicies();

	mov	eax, DWORD PTR _this$[ebp]
	mov	ecx, DWORD PTR [eax]
	call	?GetPolicies@CvPlayerPolicies@@QBEPAVCvPolicyXMLEntries@@XZ ; CvPlayerPolicies::GetPolicies
	mov	DWORD PTR _pkPolicyEntries$[ebp], eax

; 129  : 	// Create a temporary array of weights
; 130  : #ifdef AUI_WARNING_FIXES
; 131  : 	FFastVector<int, true> paiTempWeights;
; 132  : 	paiTempWeights.reserve(pkPolicyEntries->GetNumPolicies());
; 133  : #else
; 134  : 	paiTempWeights = (int*)_alloca(sizeof(int*) * pkPolicyEntries->GetNumPolicies());

	mov	ecx, DWORD PTR _pkPolicyEntries$[ebp]
	call	?GetNumPolicies@CvPolicyXMLEntries@@QAEHXZ ; CvPolicyXMLEntries::GetNumPolicies
	shl	eax, 2
	call	__alloca_probe_16
	mov	DWORD PTR tv71[ebp], esp
	mov	ecx, DWORD PTR tv71[ebp]
	mov	DWORD PTR _paiTempWeights$[ebp], ecx

; 135  : #endif
; 136  : 
; 137  : 	// Loop through all our policies
; 138  : 	for(iPolicy = 0; iPolicy < pkPolicyEntries->GetNumPolicies(); iPolicy++)

	mov	DWORD PTR _iPolicy$[ebp], 0
	jmp	SHORT $LN9@AddFlavorW
$LN8@AddFlavorW:
	mov	edx, DWORD PTR _iPolicy$[ebp]
	add	edx, 1
	mov	DWORD PTR _iPolicy$[ebp], edx
$LN9@AddFlavorW:
	mov	ecx, DWORD PTR _pkPolicyEntries$[ebp]
	call	?GetNumPolicies@CvPolicyXMLEntries@@QAEHXZ ; CvPolicyXMLEntries::GetNumPolicies
	cmp	DWORD PTR _iPolicy$[ebp], eax
	jge	SHORT $LN7@AddFlavorW

; 139  : 	{
; 140  : 		entry = pkPolicyEntries->GetPolicyEntry(iPolicy);

	mov	eax, DWORD PTR _iPolicy$[ebp]
	push	eax
	mov	ecx, DWORD PTR _pkPolicyEntries$[ebp]
	call	?GetPolicyEntry@CvPolicyXMLEntries@@QAEPAVCvPolicyEntry@@H@Z ; CvPolicyXMLEntries::GetPolicyEntry
	mov	DWORD PTR _entry$[ebp], eax

; 141  : 
; 142  : 		// Set its weight by looking at policy's weight for this flavor and using iWeight multiplier passed in
; 143  : 		if(entry)

	cmp	DWORD PTR _entry$[ebp], 0
	je	SHORT $LN6@AddFlavorW

; 144  : #ifdef AUI_WARNING_FIXES
; 145  : 			paiTempWeights.push_back(entry->GetFlavorValue(eFlavor) * iWeight);
; 146  : 		else
; 147  : 			paiTempWeights.push_back(0);
; 148  : #else
; 149  : 			paiTempWeights[iPolicy] = entry->GetFlavorValue(eFlavor) * iWeight;

	mov	ecx, DWORD PTR _eFlavor$[ebp]
	push	ecx
	mov	ecx, DWORD PTR _entry$[ebp]
	call	?GetFlavorValue@CvPolicyEntry@@QBEHH@Z	; CvPolicyEntry::GetFlavorValue
	imul	eax, DWORD PTR _iWeight$[ebp]
	mov	edx, DWORD PTR _iPolicy$[ebp]
	mov	ecx, DWORD PTR _paiTempWeights$[ebp]
	mov	DWORD PTR [ecx+edx*4], eax

; 150  : 		else

	jmp	SHORT $LN5@AddFlavorW
$LN6@AddFlavorW:

; 151  : 			paiTempWeights[iPolicy] = 0;

	mov	edx, DWORD PTR _iPolicy$[ebp]
	mov	eax, DWORD PTR _paiTempWeights$[ebp]
	mov	DWORD PTR [eax+edx*4], 0
$LN5@AddFlavorW:

; 152  : #endif
; 153  : 	}

	jmp	SHORT $LN8@AddFlavorW
$LN7@AddFlavorW:

; 154  : 
; 155  : 	// Propagate these values left in the tree so prereqs get bought
; 156  : 	if(iPropagationPercent > 0)

	cmp	DWORD PTR _iPropagationPercent$[ebp], 0
	jle	SHORT $LN4@AddFlavorW

; 157  : 	{
; 158  : 		WeightPrereqs(paiTempWeights, iPropagationPercent);

	mov	ecx, DWORD PTR _iPropagationPercent$[ebp]
	push	ecx
	mov	edx, DWORD PTR _paiTempWeights$[ebp]
	push	edx
	mov	ecx, DWORD PTR _this$[ebp]
	call	?WeightPrereqs@CvPolicyAI@@AAEXPAHH@Z	; CvPolicyAI::WeightPrereqs
$LN4@AddFlavorW:

; 159  : 	}
; 160  : 
; 161  : 	// Add these weights over previous ones
; 162  : 	for(iPolicy = 0; iPolicy < m_pCurrentPolicies->GetPolicies()->GetNumPolicies(); iPolicy++)

	mov	DWORD PTR _iPolicy$[ebp], 0
	jmp	SHORT $LN3@AddFlavorW
$LN2@AddFlavorW:
	mov	eax, DWORD PTR _iPolicy$[ebp]
	add	eax, 1
	mov	DWORD PTR _iPolicy$[ebp], eax
$LN3@AddFlavorW:
	mov	ecx, DWORD PTR _this$[ebp]
	mov	ecx, DWORD PTR [ecx]
	call	?GetPolicies@CvPlayerPolicies@@QBEPAVCvPolicyXMLEntries@@XZ ; CvPlayerPolicies::GetPolicies
	mov	ecx, eax
	call	?GetNumPolicies@CvPolicyXMLEntries@@QAEHXZ ; CvPolicyXMLEntries::GetNumPolicies
	cmp	DWORD PTR _iPolicy$[ebp], eax
	jge	SHORT $LN10@AddFlavorW

; 163  : 	{
; 164  : 		m_PolicyAIWeights.IncreaseWeight(iPolicy, paiTempWeights[iPolicy]);

	mov	edx, DWORD PTR _iPolicy$[ebp]
	mov	eax, DWORD PTR _paiTempWeights$[ebp]
	mov	ecx, DWORD PTR [eax+edx*4]
	mov	DWORD PTR $T223266[ebp], ecx
	mov	edx, DWORD PTR _this$[ebp]
	mov	eax, DWORD PTR [edx+4]
	mov	ecx, DWORD PTR _iPolicy$[ebp]
	lea	edx, DWORD PTR [eax+ecx*8+4]
	mov	DWORD PTR tv144[ebp], edx
	mov	eax, DWORD PTR tv144[ebp]
	mov	ecx, DWORD PTR [eax]
	add	ecx, DWORD PTR $T223266[ebp]
	mov	edx, DWORD PTR tv144[ebp]
	mov	DWORD PTR [edx], ecx

; 165  : 	}

	jmp	SHORT $LN2@AddFlavorW
$LN10@AddFlavorW:

; 166  : }

	lea	esp, DWORD PTR [ebp-36]
	mov	ecx, DWORD PTR __$ArrayPad$[ebp]
	xor	ecx, ebp
	call	@__security_check_cookie@4
	mov	esp, ebp
	pop	ebp
	ret	12					; 0000000cH
?AddFlavorWeights@CvPolicyAI@@QAEXW4FlavorTypes@@HH@Z ENDP ; CvPolicyAI::AddFlavorWeights
_TEXT	ENDS
PUBLIC	??1?$_Vector_val@HV?$allocator@H@std@@@std@@QAE@XZ ; std::_Vector_val<int,std::allocator<int> >::~_Vector_val<int,std::allocator<int> >
PUBLIC	??1?$vector@HV?$allocator@H@std@@@std@@QAE@XZ	; std::vector<int,std::allocator<int> >::~vector<int,std::allocator<int> >
PUBLIC	?LogBranchChoice@CvPolicyAI@@AAEXW4PolicyBranchTypes@@@Z ; CvPolicyAI::LogBranchChoice
PUBLIC	?ChooseAtRandom@?$CvWeightedVector@H$0EA@$00@@QAEHPAV?$FastDelegate2@HPBDH@fastdelegate@@PBD@Z ; CvWeightedVector<int,64,1>::ChooseAtRandom
PUBLIC	??_C@_0CM@GEFFIOHP@Choosing?5policy?5at?5random?5?$CIno?5go@ ; `string'
PUBLIC	?ChooseFromTopChoices@?$CvWeightedVector@H$0EA@$00@@QAEHHPAV?$FastDelegate2@HPBDH@fastdelegate@@PBD@Z ; CvWeightedVector<int,64,1>::ChooseFromTopChoices
PUBLIC	??_C@_0CB@EPKNHKBJ@Choosing?5policy?5from?5Top?5Choices@ ; `string'
PUBLIC	??_C@_0P@DAJFKJHO@FLAVOR_CULTURE?$AA@		; `string'
PUBLIC	??_C@_0BB@BPIBEAAN@FLAVOR_DIPLOMACY?$AA@	; `string'
PUBLIC	??_C@_0BP@DOCBNDKB@AIGRANDSTRATEGY_UNITED_NATIONS?$AA@ ; `string'
PUBLIC	??_C@_0BB@EDNPBEHK@FLAVOR_SPACESHIP?$AA@	; `string'
PUBLIC	??_C@_0BK@CCPNHFB@AIGRANDSTRATEGY_SPACESHIP?$AA@ ; `string'
PUBLIC	?_Tidy@?$vector@HV?$allocator@H@std@@@std@@IAEXXZ ; std::vector<int,std::allocator<int> >::_Tidy
PUBLIC	?LogPolicyChoice@CvPolicyAI@@AAEXW4PolicyTypes@@@Z ; CvPolicyAI::LogPolicyChoice
PUBLIC	??_C@_0P@ELMNBNJP@FLAVOR_OFFENSE?$AA@		; `string'
PUBLIC	??_C@_0BJ@GCKPAHPE@AIGRANDSTRATEGY_CONQUEST?$AA@ ; `string'
PUBLIC	?LogPossiblePolicies@CvPolicyAI@@AAEXXZ		; CvPolicyAI::LogPossiblePolicies
PUBLIC	??$_Sort@PAUWeightedElement@?$CvWeightedVector@H$0EA@$00@@H@std@@YAXPAUWeightedElement@?$CvWeightedVector@H$0EA@$00@@0H@Z ; std::_Sort<CvWeightedVector<int,64,1>::WeightedElement *,int>
PUBLIC	?WeighBranch@CvPolicyAI@@AAEHW4PolicyBranchTypes@@@Z ; CvPolicyAI::WeighBranch
PUBLIC	?IsBranchEffectiveInGame@CvPolicyAI@@AAE_NW4PolicyBranchTypes@@@Z ; CvPolicyAI::IsBranchEffectiveInGame
PUBLIC	??_C@_0BI@FNGLFDGI@AIGRANDSTRATEGY_CULTURE?$AA@	; `string'
PUBLIC	?push_back@?$vector@HV?$allocator@H@std@@@std@@QAEXABH@Z ; std::vector<int,std::allocator<int> >::push_back
PUBLIC	??0?$vector@HV?$allocator@H@std@@@std@@QAE@XZ	; std::vector<int,std::allocator<int> >::vector<int,std::allocator<int> >
PUBLIC	??$MakeDelegate@VCvGame@@V1@HPBDH@fastdelegate@@YA?AV?$FastDelegate2@HPBDH@0@PAVCvGame@@P82@AEHHPBD@Z@Z ; fastdelegate::MakeDelegate<CvGame,CvGame,int,char const *,int>
PUBLIC	?ChooseNextPolicy@CvPolicyAI@@QAEHPAVCvPlayer@@@Z ; CvPolicyAI::ChooseNextPolicy
EXTRN	?GetPolicyNumOptions@CvHandicapInfo@@QBEHXZ:PROC ; CvHandicapInfo::GetPolicyNumOptions
EXTRN	?getHandicapInfo@CvGame@@QBEAAVCvHandicapInfo@@XZ:PROC ; CvGame::getHandicapInfo
EXTRN	?CanUnlockPolicyBranch@CvPlayerPolicies@@QAE_NW4PolicyBranchTypes@@@Z:PROC ; CvPlayerPolicies::CanUnlockPolicyBranch
EXTRN	?GetActiveGrandStrategy@CvGrandStrategyAI@@QBE?AW4AIGrandStrategyTypes@@XZ:PROC ; CvGrandStrategyAI::GetActiveGrandStrategy
EXTRN	?GetGrandStrategyAI@CvPlayer@@QBEPAVCvGrandStrategyAI@@XZ:PROC ; CvPlayer::GetGrandStrategyAI
EXTRN	?getInfoTypeForString@CvGlobals@@QBEHPBD_N@Z:PROC ; CvGlobals::getInfoTypeForString
EXTRN	?IsMutuallyExclusive@CvPolicyBranchEntry@@QBE_NXZ:PROC ; CvPolicyBranchEntry::IsMutuallyExclusive
EXTRN	?IsPolicyBranchUnlocked@CvPlayerPolicies@@QBE_NW4PolicyBranchTypes@@@Z:PROC ; CvPlayerPolicies::IsPolicyBranchUnlocked
EXTRN	?GetPlayerPolicies@CvPlayer@@QBEPAVCvPlayerPolicies@@XZ:PROC ; CvPlayer::GetPlayerPolicies
EXTRN	?getPolicyBranchInfo@CvGlobals@@QAEPAVCvPolicyBranchEntry@@W4PolicyBranchTypes@@@Z:PROC ; CvGlobals::getPolicyBranchInfo
EXTRN	?getNumPolicyBranchInfos@CvGlobals@@QAEHXZ:PROC	; CvGlobals::getNumPolicyBranchInfos
EXTRN	?GetFreeFinishingPolicy@CvPolicyBranchEntry@@QBEHXZ:PROC ; CvPolicyBranchEntry::GetFreeFinishingPolicy
EXTRN	?GetPolicyBranchEntry@CvPolicyXMLEntries@@QAEPAVCvPolicyBranchEntry@@H@Z:PROC ; CvPolicyXMLEntries::GetPolicyBranchEntry
EXTRN	?GetPolicyBranchType@CvPolicyEntry@@QBEHXZ:PROC	; CvPolicyEntry::GetPolicyBranchType
EXTRN	?WillFinishBranchIfAdopted@CvPlayerPolicies@@QBE_NW4PolicyTypes@@@Z:PROC ; CvPlayerPolicies::WillFinishBranchIfAdopted
EXTRN	?GetLevel@CvPolicyEntry@@QBEHXZ:PROC		; CvPolicyEntry::GetLevel
EXTRN	?CanAdoptPolicy@CvPlayerPolicies@@QBE_NW4PolicyTypes@@_N@Z:PROC ; CvPlayerPolicies::CanAdoptPolicy
EXTRN	?GetNumFreeTenets@CvPlayer@@QBEHXZ:PROC		; CvPlayer::GetNumFreeTenets
EXTRN	?getJonRandNum@CvGame@@QAEHHPBD@Z:PROC		; CvGame::getJonRandNum
;	COMDAT ??_C@_0CM@GEFFIOHP@Choosing?5policy?5at?5random?5?$CIno?5go@
; File c:\program files (x86)\microsoft visual studio 9.0\vc\include\xutility
CONST	SEGMENT
??_C@_0CM@GEFFIOHP@Choosing?5policy?5at?5random?5?$CIno?5go@ DB 'Choosing'
	DB	' policy at random (no good choices)', 00H	; `string'
CONST	ENDS
;	COMDAT ??_C@_0CB@EPKNHKBJ@Choosing?5policy?5from?5Top?5Choices@
CONST	SEGMENT
??_C@_0CB@EPKNHKBJ@Choosing?5policy?5from?5Top?5Choices@ DB 'Choosing pol'
	DB	'icy from Top Choices', 00H			; `string'
CONST	ENDS
;	COMDAT ??_C@_0P@DAJFKJHO@FLAVOR_CULTURE?$AA@
CONST	SEGMENT
??_C@_0P@DAJFKJHO@FLAVOR_CULTURE?$AA@ DB 'FLAVOR_CULTURE', 00H ; `string'
CONST	ENDS
;	COMDAT ??_C@_0BB@BPIBEAAN@FLAVOR_DIPLOMACY?$AA@
CONST	SEGMENT
??_C@_0BB@BPIBEAAN@FLAVOR_DIPLOMACY?$AA@ DB 'FLAVOR_DIPLOMACY', 00H ; `string'
CONST	ENDS
;	COMDAT ??_C@_0BP@DOCBNDKB@AIGRANDSTRATEGY_UNITED_NATIONS?$AA@
CONST	SEGMENT
??_C@_0BP@DOCBNDKB@AIGRANDSTRATEGY_UNITED_NATIONS?$AA@ DB 'AIGRANDSTRATEG'
	DB	'Y_UNITED_NATIONS', 00H			; `string'
CONST	ENDS
;	COMDAT ??_C@_0BB@EDNPBEHK@FLAVOR_SPACESHIP?$AA@
CONST	SEGMENT
??_C@_0BB@EDNPBEHK@FLAVOR_SPACESHIP?$AA@ DB 'FLAVOR_SPACESHIP', 00H ; `string'
CONST	ENDS
;	COMDAT ??_C@_0BK@CCPNHFB@AIGRANDSTRATEGY_SPACESHIP?$AA@
CONST	SEGMENT
??_C@_0BK@CCPNHFB@AIGRANDSTRATEGY_SPACESHIP?$AA@ DB 'AIGRANDSTRATEGY_SPAC'
	DB	'ESHIP', 00H					; `string'
CONST	ENDS
;	COMDAT ??_C@_0P@ELMNBNJP@FLAVOR_OFFENSE?$AA@
CONST	SEGMENT
??_C@_0P@ELMNBNJP@FLAVOR_OFFENSE?$AA@ DB 'FLAVOR_OFFENSE', 00H ; `string'
CONST	ENDS
;	COMDAT ??_C@_0BJ@GCKPAHPE@AIGRANDSTRATEGY_CONQUEST?$AA@
CONST	SEGMENT
??_C@_0BJ@GCKPAHPE@AIGRANDSTRATEGY_CONQUEST?$AA@ DB 'AIGRANDSTRATEGY_CONQ'
	DB	'UEST', 00H					; `string'
CONST	ENDS
;	COMDAT ??_C@_0BI@FNGLFDGI@AIGRANDSTRATEGY_CULTURE?$AA@
CONST	SEGMENT
??_C@_0BI@FNGLFDGI@AIGRANDSTRATEGY_CULTURE?$AA@ DB 'AIGRANDSTRATEGY_CULTU'
	DB	'RE', 00H					; `string'
CONST	ENDS
;	COMDAT xdata$x
xdata$x	SEGMENT
__ehfuncinfo$?ChooseNextPolicy@CvPolicyAI@@QAEHPAVCvPlayer@@@Z DD 019930522H
	DD	06H
	DD	FLAT:__unwindtable$?ChooseNextPolicy@CvPolicyAI@@QAEHPAVCvPlayer@@@Z
	DD	2 DUP(00H)
	DD	2 DUP(00H)
	DD	00H
	DD	01H
__unwindtable$?ChooseNextPolicy@CvPolicyAI@@QAEHPAVCvPlayer@@@Z DD 0ffffffffH
	DD	FLAT:__unwindfunclet$?ChooseNextPolicy@CvPolicyAI@@QAEHPAVCvPlayer@@@Z$0
	DD	0ffffffffH
	DD	FLAT:__unwindfunclet$?ChooseNextPolicy@CvPolicyAI@@QAEHPAVCvPlayer@@@Z$2
	DD	0ffffffffH
	DD	FLAT:__unwindfunclet$?ChooseNextPolicy@CvPolicyAI@@QAEHPAVCvPlayer@@@Z$4
	DD	0ffffffffH
	DD	FLAT:__unwindfunclet$?ChooseNextPolicy@CvPolicyAI@@QAEHPAVCvPlayer@@@Z$6
	DD	0ffffffffH
	DD	FLAT:__unwindfunclet$?ChooseNextPolicy@CvPolicyAI@@QAEHPAVCvPlayer@@@Z$8
	DD	0ffffffffH
	DD	FLAT:__unwindfunclet$?ChooseNextPolicy@CvPolicyAI@@QAEHPAVCvPlayer@@@Z$10
; Function compile flags: /Odtp
; File d:\sources\lekmod_git\checkout\lekmod_dll\cvgamecoredll_expansion2\cvpolicyai.cpp
xdata$x	ENDS
;	COMDAT ?ChooseNextPolicy@CvPolicyAI@@QAEHPAVCvPlayer@@@Z
_TEXT	SEGMENT
_this$ = -556						; size = 4
$T223871 = -496						; size = 4
$T223866 = -492						; size = 4
$T223851 = -488						; size = 4
$T223844 = -484						; size = 4
_elem$223865 = -480					; size = 8
_i$223861 = -472					; size = 4
_rtnValue$223860 = -468					; size = 4
$T223806 = -428						; size = 4
$T223802 = -424						; size = 4
$T223787 = -420						; size = 4
$T223780 = -416						; size = 4
_elem$223801 = -412					; size = 8
_i$223797 = -404					; size = 4
_rtnValue$223796 = -400					; size = 4
$T223720 = -368						; size = 4
$T223658 = -336						; size = 4
$T223596 = -304						; size = 4
$T223534 = -272						; size = 4
$T223527 = -268						; size = 4
$T223509 = -264						; size = 4
__Tmp$223499 = -260					; size = 4
$T223484 = -256						; size = 4
$T223468 = -252						; size = 4
$T223456 = -248						; size = 4
$T223452 = -244						; size = 4
_weightedElem$223447 = -240				; size = 8
_weightedElem$223403 = -208				; size = 8
_elem$223394 = -200					; size = 8
$T223380 = -192						; size = 4
_elem$223379 = -188					; size = 8
$T223365 = -180						; size = 4
_i$223359 = -176					; size = 4
$T223327 = -164						; size = 4
$T223311 = -160						; size = 4
$T223279 = -156						; size = 4
$T223278 = -152						; size = 4
$T223277 = -148						; size = 4
$T223276 = -144						; size = 4
$T223275 = -140						; size = 4
$T223274 = -136						; size = 4
$T223273 = -132						; size = 4
$T223272 = -128						; size = 4
$T223271 = -124						; size = 4
$T223270 = -120						; size = 8
_iNumChoices$221600 = -112				; size = 4
_eGrandStrategy$221568 = -108				; size = 4
_pEntry$221566 = -104					; size = 4
_it$221559 = -100					; size = 4
_iBranchWeight$221551 = -96				; size = 4
_pkPolicyBranchInfo$221547 = -92			; size = 4
_ePolicyBranch$221545 = -88				; size = 4
_iBranchLoop$221541 = -84				; size = 4
_pkPolicyBranchInfo$221532 = -80			; size = 4
_ePolicyBranch$221530 = -76				; size = 4
_iBranchLoop$221526 = -72				; size = 4
_iFinisherPolicy$221521 = -68				; size = 4
_iPolicyBranch$221519 = -64				; size = 4
_iWeight$221516 = -60					; size = 4
_fcn$ = -56						; size = 8
_iRtnValue$ = -48					; size = 4
_bMustChooseTenet$ = -42				; size = 1
_bStartedAMutuallyExclusiveBranch$ = -41		; size = 1
_eCultureGrandStrategy$ = -40				; size = 4
_iPolicyLoop$ = -36					; size = 4
_aLevel3Tenets$ = -32					; size = 16
_eCurrentGrandStrategy$ = -16				; size = 4
__$EHRec$ = -12						; size = 12
_pPlayer$ = 8						; size = 4
?ChooseNextPolicy@CvPolicyAI@@QAEHPAVCvPlayer@@@Z PROC	; CvPolicyAI::ChooseNextPolicy, COMDAT
; _this$ = ecx

; 174  : {

	push	ebp
	mov	ebp, esp
	push	-1
	push	__ehhandler$?ChooseNextPolicy@CvPolicyAI@@QAEHPAVCvPlayer@@@Z
	mov	eax, DWORD PTR fs:0
	push	eax
	sub	esp, 544				; 00000220H
	mov	eax, DWORD PTR ___security_cookie
	xor	eax, ebp
	push	eax
	lea	eax, DWORD PTR __$EHRec$[ebp]
	mov	DWORD PTR fs:0, eax
	mov	DWORD PTR _this$[ebp], ecx

; 175  : 	RandomNumberDelegate fcn;

	mov	DWORD PTR _fcn$[ebp], 0
	mov	DWORD PTR _fcn$[ebp+4], 0
	mov	DWORD PTR _fcn$[ebp], 0
	mov	DWORD PTR _fcn$[ebp+4], 0

; 176  : 	fcn = MakeDelegate(&GC.getGame(), &CvGame::getJonRandNum);

	mov	eax, DWORD PTR ?gGlobals@@3VCvGlobals@@A+48
	mov	DWORD PTR $T223311[ebp], eax
	push	OFFSET ?getJonRandNum@CvGame@@QAEHHPBD@Z ; CvGame::getJonRandNum
	mov	ecx, DWORD PTR $T223311[ebp]
	push	ecx
	lea	edx, DWORD PTR $T223270[ebp]
	push	edx
	call	??$MakeDelegate@VCvGame@@V1@HPBDH@fastdelegate@@YA?AV?$FastDelegate2@HPBDH@0@PAVCvGame@@P82@AEHHPBD@Z@Z ; fastdelegate::MakeDelegate<CvGame,CvGame,int,char const *,int>
	add	esp, 12					; 0000000cH
	mov	DWORD PTR $T223327[ebp], eax
	mov	eax, DWORD PTR $T223327[ebp]
	mov	ecx, DWORD PTR [eax+4]
	mov	DWORD PTR _fcn$[ebp+4], ecx
	mov	edx, DWORD PTR $T223327[ebp]
	mov	eax, DWORD PTR [edx]
	mov	DWORD PTR _fcn$[ebp], eax

; 177  : #ifdef AUI_WARNING_FIXES
; 178  : 	uint iRtnValue = (uint)NO_POLICY;
; 179  : 	uint iPolicyLoop;
; 180  : #else
; 181  : 	int iRtnValue = (int)NO_POLICY;

	mov	DWORD PTR _iRtnValue$[ebp], -1

; 182  : 	int iPolicyLoop;
; 183  : #endif
; 184  : 	vector<int> aLevel3Tenets;

	lea	ecx, DWORD PTR _aLevel3Tenets$[ebp]
	call	??0?$vector@HV?$allocator@H@std@@@std@@QAE@XZ ; std::vector<int,std::allocator<int> >::vector<int,std::allocator<int> >
	mov	DWORD PTR __$EHRec$[ebp+8], 0

; 185  : 
; 186  : 	bool bMustChooseTenet = (pPlayer->GetNumFreeTenets() > 0);

	mov	ecx, DWORD PTR _pPlayer$[ebp]
	call	?GetNumFreeTenets@CvPlayer@@QBEHXZ	; CvPlayer::GetNumFreeTenets
	xor	ecx, ecx
	test	eax, eax
	setg	cl
	mov	BYTE PTR _bMustChooseTenet$[ebp], cl

; 187  : 
; 188  : 	// Create a new vector holding only policies we can currently adopt
; 189  : 	m_AdoptablePolicies.clear();

	mov	edx, DWORD PTR _this$[ebp]
	add	edx, 532				; 00000214H
	mov	DWORD PTR $T223365[ebp], edx
	xor	eax, eax
	je	SHORT $LN81@ChooseNext
	mov	DWORD PTR _i$223359[ebp], 0
	jmp	SHORT $LN79@ChooseNext
$LN78@ChooseNext:
	mov	ecx, DWORD PTR _i$223359[ebp]
	add	ecx, 1
	mov	DWORD PTR _i$223359[ebp], ecx
$LN79@ChooseNext:
	mov	edx, DWORD PTR $T223365[ebp]
	mov	eax, DWORD PTR _i$223359[ebp]
	cmp	eax, DWORD PTR [edx+4]
	jae	SHORT $LN81@ChooseNext
	jmp	SHORT $LN78@ChooseNext
$LN81@ChooseNext:
	mov	ecx, DWORD PTR $T223365[ebp]
	mov	DWORD PTR [ecx+4], 0

; 190  : 
; 191  : 	// Loop through adding the adoptable policies
; 192  : 	for(iPolicyLoop = 0; iPolicyLoop < m_pCurrentPolicies->GetPolicies()->GetNumPolicies(); iPolicyLoop++)

	mov	DWORD PTR _iPolicyLoop$[ebp], 0
	jmp	SHORT $LN46@ChooseNext
$LN45@ChooseNext:
	mov	edx, DWORD PTR _iPolicyLoop$[ebp]
	add	edx, 1
	mov	DWORD PTR _iPolicyLoop$[ebp], edx
$LN46@ChooseNext:
	mov	eax, DWORD PTR _this$[ebp]
	mov	ecx, DWORD PTR [eax]
	call	?GetPolicies@CvPlayerPolicies@@QBEPAVCvPolicyXMLEntries@@XZ ; CvPlayerPolicies::GetPolicies
	mov	ecx, eax
	call	?GetNumPolicies@CvPolicyXMLEntries@@QAEHXZ ; CvPolicyXMLEntries::GetNumPolicies
	cmp	DWORD PTR _iPolicyLoop$[ebp], eax
	jge	$LN44@ChooseNext

; 193  : 	{
; 194  : 		if(m_pCurrentPolicies->CanAdoptPolicy((PolicyTypes) iPolicyLoop) && (!bMustChooseTenet || m_pCurrentPolicies->GetPolicies()->GetPolicyEntry(iPolicyLoop)->GetLevel() > 0))

	push	0
	mov	ecx, DWORD PTR _iPolicyLoop$[ebp]
	push	ecx
	mov	edx, DWORD PTR _this$[ebp]
	mov	ecx, DWORD PTR [edx]
	call	?CanAdoptPolicy@CvPlayerPolicies@@QBE_NW4PolicyTypes@@_N@Z ; CvPlayerPolicies::CanAdoptPolicy
	movzx	eax, al
	test	eax, eax
	je	$LN43@ChooseNext
	movzx	ecx, BYTE PTR _bMustChooseTenet$[ebp]
	test	ecx, ecx
	je	SHORT $LN42@ChooseNext
	mov	edx, DWORD PTR _iPolicyLoop$[ebp]
	push	edx
	mov	eax, DWORD PTR _this$[ebp]
	mov	ecx, DWORD PTR [eax]
	call	?GetPolicies@CvPlayerPolicies@@QBEPAVCvPolicyXMLEntries@@XZ ; CvPlayerPolicies::GetPolicies
	mov	ecx, eax
	call	?GetPolicyEntry@CvPolicyXMLEntries@@QAEPAVCvPolicyEntry@@H@Z ; CvPolicyXMLEntries::GetPolicyEntry
	mov	ecx, eax
	call	?GetLevel@CvPolicyEntry@@QBEHXZ		; CvPolicyEntry::GetLevel
	test	eax, eax
	jle	$LN43@ChooseNext
$LN42@ChooseNext:

; 195  : 		{
; 196  : 			int iWeight = 0;

	mov	DWORD PTR _iWeight$221516[ebp], 0

; 197  : 
; 198  : 			iWeight += m_PolicyAIWeights.GetWeight(iPolicyLoop);

	mov	ecx, DWORD PTR _iPolicyLoop$[ebp]
	mov	DWORD PTR $T223380[ebp], ecx
	mov	DWORD PTR _elem$223379[ebp], 0
	mov	DWORD PTR _elem$223379[ebp+4], 0
	mov	edx, DWORD PTR _this$[ebp]
	mov	eax, DWORD PTR [edx+4]
	mov	ecx, DWORD PTR $T223380[ebp]
	mov	edx, DWORD PTR [eax+ecx*8]
	mov	eax, DWORD PTR [eax+ecx*8+4]
	mov	DWORD PTR _elem$223379[ebp], edx
	mov	DWORD PTR _elem$223379[ebp+4], eax
	mov	ecx, DWORD PTR _iWeight$221516[ebp]
	add	ecx, DWORD PTR _elem$223379[ebp+4]
	mov	DWORD PTR _iWeight$221516[ebp], ecx

; 199  : 
; 200  : 			// Does this policy finish a branch for us?
; 201  : 			if(m_pCurrentPolicies->WillFinishBranchIfAdopted((PolicyTypes) iPolicyLoop))

	mov	edx, DWORD PTR _iPolicyLoop$[ebp]
	push	edx
	mov	eax, DWORD PTR _this$[ebp]
	mov	ecx, DWORD PTR [eax]
	call	?WillFinishBranchIfAdopted@CvPlayerPolicies@@QBE_NW4PolicyTypes@@@Z ; CvPlayerPolicies::WillFinishBranchIfAdopted
	movzx	ecx, al
	test	ecx, ecx
	je	$LN41@ChooseNext

; 202  : 			{
; 203  : 				int iPolicyBranch = m_pCurrentPolicies->GetPolicies()->GetPolicyEntry(iPolicyLoop)->GetPolicyBranchType();

	mov	edx, DWORD PTR _iPolicyLoop$[ebp]
	push	edx
	mov	eax, DWORD PTR _this$[ebp]
	mov	ecx, DWORD PTR [eax]
	call	?GetPolicies@CvPlayerPolicies@@QBEPAVCvPolicyXMLEntries@@XZ ; CvPlayerPolicies::GetPolicies
	mov	ecx, eax
	call	?GetPolicyEntry@CvPolicyXMLEntries@@QAEPAVCvPolicyEntry@@H@Z ; CvPolicyXMLEntries::GetPolicyEntry
	mov	ecx, eax
	call	?GetPolicyBranchType@CvPolicyEntry@@QBEHXZ ; CvPolicyEntry::GetPolicyBranchType
	mov	DWORD PTR _iPolicyBranch$221519[ebp], eax

; 204  : 				if(iPolicyBranch != NO_POLICY_BRANCH_TYPE)

	cmp	DWORD PTR _iPolicyBranch$221519[ebp], -1
	je	SHORT $LN41@ChooseNext

; 205  : 				{
; 206  : 					int iFinisherPolicy = m_pCurrentPolicies->GetPolicies()->GetPolicyBranchEntry(iPolicyBranch)->GetFreeFinishingPolicy();

	mov	ecx, DWORD PTR _iPolicyBranch$221519[ebp]
	push	ecx
	mov	edx, DWORD PTR _this$[ebp]
	mov	ecx, DWORD PTR [edx]
	call	?GetPolicies@CvPlayerPolicies@@QBEPAVCvPolicyXMLEntries@@XZ ; CvPlayerPolicies::GetPolicies
	mov	ecx, eax
	call	?GetPolicyBranchEntry@CvPolicyXMLEntries@@QAEPAVCvPolicyBranchEntry@@H@Z ; CvPolicyXMLEntries::GetPolicyBranchEntry
	mov	ecx, eax
	call	?GetFreeFinishingPolicy@CvPolicyBranchEntry@@QBEHXZ ; CvPolicyBranchEntry::GetFreeFinishingPolicy
	mov	DWORD PTR _iFinisherPolicy$221521[ebp], eax

; 207  : 					if(iFinisherPolicy != NO_POLICY)

	cmp	DWORD PTR _iFinisherPolicy$221521[ebp], -1
	je	SHORT $LN41@ChooseNext

; 208  : 					{
; 209  : 						iWeight += m_PolicyAIWeights.GetWeight(iFinisherPolicy);

	mov	DWORD PTR _elem$223394[ebp], 0
	mov	DWORD PTR _elem$223394[ebp+4], 0
	mov	eax, DWORD PTR _this$[ebp]
	mov	ecx, DWORD PTR [eax+4]
	mov	edx, DWORD PTR _iFinisherPolicy$221521[ebp]
	mov	eax, DWORD PTR [ecx+edx*8]
	mov	ecx, DWORD PTR [ecx+edx*8+4]
	mov	DWORD PTR _elem$223394[ebp], eax
	mov	DWORD PTR _elem$223394[ebp+4], ecx
	mov	edx, DWORD PTR _iWeight$221516[ebp]
	add	edx, DWORD PTR _elem$223394[ebp+4]
	mov	DWORD PTR _iWeight$221516[ebp], edx
$LN41@ChooseNext:

; 210  : 					}
; 211  : 				}
; 212  : 			}
; 213  : 			m_AdoptablePolicies.push_back(iPolicyLoop + GC.getNumPolicyBranchInfos(), iWeight);

	mov	ecx, OFFSET ?gGlobals@@3VCvGlobals@@A	; gGlobals
	call	?getNumPolicyBranchInfos@CvGlobals@@QAEHXZ ; CvGlobals::getNumPolicyBranchInfos
	add	eax, DWORD PTR _iPolicyLoop$[ebp]
	mov	DWORD PTR $T223271[ebp], eax
	mov	DWORD PTR _weightedElem$223403[ebp], 0
	mov	DWORD PTR _weightedElem$223403[ebp+4], 0
	mov	eax, DWORD PTR $T223271[ebp]
	mov	DWORD PTR _weightedElem$223403[ebp], eax
	mov	ecx, DWORD PTR _iWeight$221516[ebp]
	mov	DWORD PTR _weightedElem$223403[ebp+4], ecx
	lea	edx, DWORD PTR _weightedElem$223403[ebp]
	push	edx
	mov	ecx, DWORD PTR _this$[ebp]
	add	ecx, 532				; 00000214H
	call	?push_back@?$FStaticVector@UWeightedElement@?$CvWeightedVector@H$0EA@$00@@$0EA@$00$0A@$0A@@@QAEIABUWeightedElement@?$CvWeightedVector@H$0EA@$00@@@Z ; FStaticVector<CvWeightedVector<int,64,1>::WeightedElement,64,1,0,0>::push_back

; 214  : 
; 215  : 			if (m_pCurrentPolicies->GetPolicies()->GetPolicyEntry(iPolicyLoop)->GetLevel() == 3)

	mov	eax, DWORD PTR _iPolicyLoop$[ebp]
	push	eax
	mov	ecx, DWORD PTR _this$[ebp]
	mov	ecx, DWORD PTR [ecx]
	call	?GetPolicies@CvPlayerPolicies@@QBEPAVCvPolicyXMLEntries@@XZ ; CvPlayerPolicies::GetPolicies
	mov	ecx, eax
	call	?GetPolicyEntry@CvPolicyXMLEntries@@QAEPAVCvPolicyEntry@@H@Z ; CvPolicyXMLEntries::GetPolicyEntry
	mov	ecx, eax
	call	?GetLevel@CvPolicyEntry@@QBEHXZ		; CvPolicyEntry::GetLevel
	cmp	eax, 3
	jne	SHORT $LN43@ChooseNext

; 216  : 			{
; 217  : 				aLevel3Tenets.push_back(iPolicyLoop);

	lea	edx, DWORD PTR _iPolicyLoop$[ebp]
	push	edx
	lea	ecx, DWORD PTR _aLevel3Tenets$[ebp]
	call	?push_back@?$vector@HV?$allocator@H@std@@@std@@QAEXABH@Z ; std::vector<int,std::allocator<int> >::push_back
$LN43@ChooseNext:

; 218  : 			}
; 219  : 		}
; 220  : 	}

	jmp	$LN45@ChooseNext
$LN44@ChooseNext:

; 221  : 
; 222  : 	// Did we already start a branch in the set that is mutually exclusive?
; 223  : 	bool bStartedAMutuallyExclusiveBranch = false;

	mov	BYTE PTR _bStartedAMutuallyExclusiveBranch$[ebp], 0

; 224  : #ifdef AUI_WARNING_FIXES
; 225  : 	for (uint iBranchLoop = 0; iBranchLoop < GC.getNumPolicyBranchInfos(); iBranchLoop++)
; 226  : #else
; 227  : 	for(int iBranchLoop = 0; iBranchLoop < GC.getNumPolicyBranchInfos(); iBranchLoop++)

	mov	DWORD PTR _iBranchLoop$221526[ebp], 0
	jmp	SHORT $LN37@ChooseNext
$LN36@ChooseNext:
	mov	eax, DWORD PTR _iBranchLoop$221526[ebp]
	add	eax, 1
	mov	DWORD PTR _iBranchLoop$221526[ebp], eax
$LN37@ChooseNext:
	mov	ecx, OFFSET ?gGlobals@@3VCvGlobals@@A	; gGlobals
	call	?getNumPolicyBranchInfos@CvGlobals@@QAEHXZ ; CvGlobals::getNumPolicyBranchInfos
	cmp	DWORD PTR _iBranchLoop$221526[ebp], eax
	jge	SHORT $LN35@ChooseNext

; 228  : #endif
; 229  : 	{
; 230  : 		const PolicyBranchTypes ePolicyBranch = static_cast<PolicyBranchTypes>(iBranchLoop);

	mov	ecx, DWORD PTR _iBranchLoop$221526[ebp]
	mov	DWORD PTR _ePolicyBranch$221530[ebp], ecx

; 231  : 		CvPolicyBranchEntry* pkPolicyBranchInfo = GC.getPolicyBranchInfo(ePolicyBranch);

	mov	edx, DWORD PTR _ePolicyBranch$221530[ebp]
	push	edx
	mov	ecx, OFFSET ?gGlobals@@3VCvGlobals@@A	; gGlobals
	call	?getPolicyBranchInfo@CvGlobals@@QAEPAVCvPolicyBranchEntry@@W4PolicyBranchTypes@@@Z ; CvGlobals::getPolicyBranchInfo
	mov	DWORD PTR _pkPolicyBranchInfo$221532[ebp], eax

; 232  : 		if(pkPolicyBranchInfo)

	cmp	DWORD PTR _pkPolicyBranchInfo$221532[ebp], 0
	je	SHORT $LN34@ChooseNext

; 233  : 		{
; 234  : 			if(pPlayer->GetPlayerPolicies()->IsPolicyBranchUnlocked(ePolicyBranch))

	mov	eax, DWORD PTR _ePolicyBranch$221530[ebp]
	push	eax
	mov	ecx, DWORD PTR _pPlayer$[ebp]
	call	?GetPlayerPolicies@CvPlayer@@QBEPAVCvPlayerPolicies@@XZ ; CvPlayer::GetPlayerPolicies
	mov	ecx, eax
	call	?IsPolicyBranchUnlocked@CvPlayerPolicies@@QBE_NW4PolicyBranchTypes@@@Z ; CvPlayerPolicies::IsPolicyBranchUnlocked
	movzx	ecx, al
	test	ecx, ecx
	je	SHORT $LN34@ChooseNext

; 235  : 			{
; 236  : 				if(pkPolicyBranchInfo->IsMutuallyExclusive())

	mov	ecx, DWORD PTR _pkPolicyBranchInfo$221532[ebp]
	call	?IsMutuallyExclusive@CvPolicyBranchEntry@@QBE_NXZ ; CvPolicyBranchEntry::IsMutuallyExclusive
	movzx	edx, al
	test	edx, edx
	je	SHORT $LN34@ChooseNext

; 237  : 				{
; 238  : 					bStartedAMutuallyExclusiveBranch = true;

	mov	BYTE PTR _bStartedAMutuallyExclusiveBranch$[ebp], 1
$LN34@ChooseNext:

; 239  : 				}
; 240  : 			}
; 241  : 		}
; 242  : 	}

	jmp	SHORT $LN36@ChooseNext
$LN35@ChooseNext:

; 243  : 
; 244  : 	AIGrandStrategyTypes eCultureGrandStrategy = (AIGrandStrategyTypes) GC.getInfoTypeForString("AIGRANDSTRATEGY_CULTURE");

	push	0
	push	OFFSET ??_C@_0BI@FNGLFDGI@AIGRANDSTRATEGY_CULTURE?$AA@
	mov	ecx, OFFSET ?gGlobals@@3VCvGlobals@@A	; gGlobals
	call	?getInfoTypeForString@CvGlobals@@QBEHPBD_N@Z ; CvGlobals::getInfoTypeForString
	mov	DWORD PTR _eCultureGrandStrategy$[ebp], eax

; 245  : 	AIGrandStrategyTypes eCurrentGrandStrategy = pPlayer->GetGrandStrategyAI()->GetActiveGrandStrategy();

	mov	ecx, DWORD PTR _pPlayer$[ebp]
	call	?GetGrandStrategyAI@CvPlayer@@QBEPAVCvGrandStrategyAI@@XZ ; CvPlayer::GetGrandStrategyAI
	mov	ecx, eax
	call	?GetActiveGrandStrategy@CvGrandStrategyAI@@QBE?AW4AIGrandStrategyTypes@@XZ ; CvGrandStrategyAI::GetActiveGrandStrategy
	mov	DWORD PTR _eCurrentGrandStrategy$[ebp], eax

; 246  : 
; 247  : 	// Loop though the branches adding each as another possibility
; 248  : 	if (!bMustChooseTenet)

	movzx	eax, BYTE PTR _bMustChooseTenet$[ebp]
	test	eax, eax
	jne	$LN31@ChooseNext

; 249  : 	{
; 250  : #ifdef AUI_WARNING_FIXES
; 251  : 		for (uint iBranchLoop = 0; iBranchLoop < GC.getNumPolicyBranchInfos(); iBranchLoop++)
; 252  : #else
; 253  : 		for(int iBranchLoop = 0; iBranchLoop < GC.getNumPolicyBranchInfos(); iBranchLoop++)

	mov	DWORD PTR _iBranchLoop$221541[ebp], 0
	jmp	SHORT $LN30@ChooseNext
$LN29@ChooseNext:
	mov	ecx, DWORD PTR _iBranchLoop$221541[ebp]
	add	ecx, 1
	mov	DWORD PTR _iBranchLoop$221541[ebp], ecx
$LN30@ChooseNext:
	mov	ecx, OFFSET ?gGlobals@@3VCvGlobals@@A	; gGlobals
	call	?getNumPolicyBranchInfos@CvGlobals@@QAEHXZ ; CvGlobals::getNumPolicyBranchInfos
	cmp	DWORD PTR _iBranchLoop$221541[ebp], eax
	jge	$LN31@ChooseNext

; 254  : #endif
; 255  : 		{
; 256  : 			const PolicyBranchTypes ePolicyBranch = static_cast<PolicyBranchTypes>(iBranchLoop);

	mov	edx, DWORD PTR _iBranchLoop$221541[ebp]
	mov	DWORD PTR _ePolicyBranch$221545[ebp], edx

; 257  : 			CvPolicyBranchEntry* pkPolicyBranchInfo = GC.getPolicyBranchInfo(ePolicyBranch);

	mov	eax, DWORD PTR _ePolicyBranch$221545[ebp]
	push	eax
	mov	ecx, OFFSET ?gGlobals@@3VCvGlobals@@A	; gGlobals
	call	?getPolicyBranchInfo@CvGlobals@@QAEPAVCvPolicyBranchEntry@@W4PolicyBranchTypes@@@Z ; CvGlobals::getPolicyBranchInfo
	mov	DWORD PTR _pkPolicyBranchInfo$221547[ebp], eax

; 258  : 			if(pkPolicyBranchInfo)

	cmp	DWORD PTR _pkPolicyBranchInfo$221547[ebp], 0
	je	$LN27@ChooseNext

; 259  : 			{
; 260  : 				if(bStartedAMutuallyExclusiveBranch && pkPolicyBranchInfo->IsMutuallyExclusive())

	movzx	ecx, BYTE PTR _bStartedAMutuallyExclusiveBranch$[ebp]
	test	ecx, ecx
	je	SHORT $LN26@ChooseNext
	mov	ecx, DWORD PTR _pkPolicyBranchInfo$221547[ebp]
	call	?IsMutuallyExclusive@CvPolicyBranchEntry@@QBE_NXZ ; CvPolicyBranchEntry::IsMutuallyExclusive
	movzx	edx, al
	test	edx, edx
	je	SHORT $LN26@ChooseNext

; 261  : 				{
; 262  : 					continue;

	jmp	SHORT $LN29@ChooseNext
$LN26@ChooseNext:

; 263  : 				}
; 264  : 
; 265  : 				if(pPlayer->GetPlayerPolicies()->CanUnlockPolicyBranch(ePolicyBranch) && !pPlayer->GetPlayerPolicies()->IsPolicyBranchUnlocked(ePolicyBranch))

	mov	eax, DWORD PTR _ePolicyBranch$221545[ebp]
	push	eax
	mov	ecx, DWORD PTR _pPlayer$[ebp]
	call	?GetPlayerPolicies@CvPlayer@@QBEPAVCvPlayerPolicies@@XZ ; CvPlayer::GetPlayerPolicies
	mov	ecx, eax
	call	?CanUnlockPolicyBranch@CvPlayerPolicies@@QAE_NW4PolicyBranchTypes@@@Z ; CvPlayerPolicies::CanUnlockPolicyBranch
	movzx	ecx, al
	test	ecx, ecx
	je	$LN27@ChooseNext
	mov	edx, DWORD PTR _ePolicyBranch$221545[ebp]
	push	edx
	mov	ecx, DWORD PTR _pPlayer$[ebp]
	call	?GetPlayerPolicies@CvPlayer@@QBEPAVCvPlayerPolicies@@XZ ; CvPlayer::GetPlayerPolicies
	mov	ecx, eax
	call	?IsPolicyBranchUnlocked@CvPlayerPolicies@@QBE_NW4PolicyBranchTypes@@@Z ; CvPlayerPolicies::IsPolicyBranchUnlocked
	movzx	eax, al
	test	eax, eax
	jne	$LN27@ChooseNext

; 266  : 				{
; 267  : 					int iBranchWeight = 0;

	mov	DWORD PTR _iBranchWeight$221551[ebp], 0

; 268  : 
; 269  : 					// Does this branch actually help us, based on game options?
; 270  : 					if(IsBranchEffectiveInGame(ePolicyBranch))

	mov	ecx, DWORD PTR _ePolicyBranch$221545[ebp]
	push	ecx
	mov	ecx, DWORD PTR _this$[ebp]
	call	?IsBranchEffectiveInGame@CvPolicyAI@@AAE_NW4PolicyBranchTypes@@@Z ; CvPolicyAI::IsBranchEffectiveInGame
	movzx	edx, al
	test	edx, edx
	je	SHORT $LN24@ChooseNext

; 271  : 					{
; 272  : 						iBranchWeight += WeighBranch(ePolicyBranch);

	mov	eax, DWORD PTR _ePolicyBranch$221545[ebp]
	push	eax
	mov	ecx, DWORD PTR _this$[ebp]
	call	?WeighBranch@CvPolicyAI@@AAEHW4PolicyBranchTypes@@@Z ; CvPolicyAI::WeighBranch
	add	eax, DWORD PTR _iBranchWeight$221551[ebp]
	mov	DWORD PTR _iBranchWeight$221551[ebp], eax

; 273  : 
; 274  : 						iBranchWeight *= (100 - m_iPolicyWeightPercentDropNewBranch);

	mov	ecx, DWORD PTR _this$[ebp]
	mov	edx, 100				; 00000064H
	sub	edx, DWORD PTR [ecx+1064]
	imul	edx, DWORD PTR _iBranchWeight$221551[ebp]
	mov	DWORD PTR _iBranchWeight$221551[ebp], edx

; 275  : 						iBranchWeight /= 100;

	mov	eax, DWORD PTR _iBranchWeight$221551[ebp]
	cdq
	mov	ecx, 100				; 00000064H
	idiv	ecx
	mov	DWORD PTR _iBranchWeight$221551[ebp], eax

; 276  : 						if(eCurrentGrandStrategy == eCultureGrandStrategy)

	mov	edx, DWORD PTR _eCurrentGrandStrategy$[ebp]
	cmp	edx, DWORD PTR _eCultureGrandStrategy$[ebp]
	jne	SHORT $LN24@ChooseNext

; 277  : 						{
; 278  : 							iBranchWeight /= 3;

	mov	eax, DWORD PTR _iBranchWeight$221551[ebp]
	cdq
	mov	ecx, 3
	idiv	ecx
	mov	DWORD PTR _iBranchWeight$221551[ebp], eax
$LN24@ChooseNext:

; 279  : 						}
; 280  : 					}
; 281  : 
; 282  : 					m_AdoptablePolicies.push_back(iBranchLoop, iBranchWeight);

	mov	DWORD PTR _weightedElem$223447[ebp], 0
	mov	DWORD PTR _weightedElem$223447[ebp+4], 0
	mov	edx, DWORD PTR _iBranchLoop$221541[ebp]
	mov	DWORD PTR _weightedElem$223447[ebp], edx
	mov	eax, DWORD PTR _iBranchWeight$221551[ebp]
	mov	DWORD PTR _weightedElem$223447[ebp+4], eax
	lea	ecx, DWORD PTR _weightedElem$223447[ebp]
	push	ecx
	mov	ecx, DWORD PTR _this$[ebp]
	add	ecx, 532				; 00000214H
	call	?push_back@?$FStaticVector@UWeightedElement@?$CvWeightedVector@H$0EA@$00@@$0EA@$00$0A@$0A@@@QAEIABUWeightedElement@?$CvWeightedVector@H$0EA@$00@@@Z ; FStaticVector<CvWeightedVector<int,64,1>::WeightedElement,64,1,0,0>::push_back
$LN27@ChooseNext:

; 283  : 				}
; 284  : 			}
; 285  : 		}

	jmp	$LN29@ChooseNext
$LN31@ChooseNext:

; 286  : 	}
; 287  : 
; 288  : 	m_AdoptablePolicies.SortItems();

	mov	edx, DWORD PTR _this$[ebp]
	add	edx, 532				; 00000214H
	mov	DWORD PTR $T223468[ebp], edx
	mov	eax, DWORD PTR $T223468[ebp]
	mov	ecx, DWORD PTR [eax+4]
	mov	edx, DWORD PTR $T223468[ebp]
	mov	eax, DWORD PTR [edx]
	lea	ecx, DWORD PTR [eax+ecx*8]
	mov	DWORD PTR $T223452[ebp], ecx
	mov	edx, DWORD PTR $T223468[ebp]
	mov	eax, DWORD PTR [edx]
	mov	DWORD PTR $T223456[ebp], eax
	mov	ecx, DWORD PTR $T223452[ebp]
	sub	ecx, DWORD PTR $T223456[ebp]
	sar	ecx, 3
	push	ecx
	mov	edx, DWORD PTR $T223452[ebp]
	push	edx
	mov	eax, DWORD PTR $T223456[ebp]
	push	eax
	call	??$_Sort@PAUWeightedElement@?$CvWeightedVector@H$0EA@$00@@H@std@@YAXPAUWeightedElement@?$CvWeightedVector@H$0EA@$00@@0H@Z ; std::_Sort<CvWeightedVector<int,64,1>::WeightedElement *,int>
	add	esp, 12					; 0000000cH

; 289  : 	LogPossiblePolicies();

	mov	ecx, DWORD PTR _this$[ebp]
	call	?LogPossiblePolicies@CvPolicyAI@@AAEXXZ	; CvPolicyAI::LogPossiblePolicies

; 290  : 
; 291  : 	// If there were any Level 3 tenets found, consider going for the one that matches our victory strategy
; 292  : 	if (aLevel3Tenets.size() > 0)

	mov	ecx, DWORD PTR _aLevel3Tenets$[ebp+8]
	sub	ecx, DWORD PTR _aLevel3Tenets$[ebp+4]
	sar	ecx, 2
	test	ecx, ecx
	jbe	$LN22@ChooseNext

; 293  : 	{
; 294  : 		vector<int>::const_iterator it;

	mov	DWORD PTR _it$221559[ebp], 0

; 295  : #ifdef AUI_ITERATOR_POSTFIX_INCREMENT_OPTIMIZATIONS
; 296  : 		for (it = aLevel3Tenets.begin(); it != aLevel3Tenets.end(); ++it)
; 297  : #else
; 298  : 		for (it = aLevel3Tenets.begin(); it != aLevel3Tenets.end(); it++)

	mov	edx, DWORD PTR _aLevel3Tenets$[ebp+4]
	mov	DWORD PTR $T223484[ebp], edx
	mov	eax, DWORD PTR $T223484[ebp]
	mov	DWORD PTR $T223272[ebp], eax
	mov	ecx, DWORD PTR $T223272[ebp]
	mov	DWORD PTR _it$221559[ebp], ecx
	jmp	SHORT $LN21@ChooseNext
$LN20@ChooseNext:
	mov	edx, DWORD PTR _it$221559[ebp]
	mov	DWORD PTR __Tmp$223499[ebp], edx
	mov	eax, DWORD PTR _it$221559[ebp]
	add	eax, 4
	mov	DWORD PTR _it$221559[ebp], eax
	mov	ecx, DWORD PTR __Tmp$223499[ebp]
	mov	DWORD PTR $T223273[ebp], ecx
$LN21@ChooseNext:
	mov	edx, DWORD PTR _aLevel3Tenets$[ebp+8]
	mov	DWORD PTR $T223509[ebp], edx
	mov	eax, DWORD PTR $T223509[ebp]
	mov	DWORD PTR $T223274[ebp], eax
	mov	ecx, DWORD PTR _it$221559[ebp]
	xor	edx, edx
	cmp	ecx, DWORD PTR $T223274[ebp]
	sete	dl
	movzx	eax, dl
	neg	eax
	sbb	eax, eax
	add	eax, 1
	movzx	ecx, al
	test	ecx, ecx
	je	$LN22@ChooseNext

; 299  : #endif
; 300  : 		{
; 301  : 			CvPolicyEntry *pEntry;
; 302  : 			pEntry = m_pCurrentPolicies->GetPolicies()->GetPolicyEntry(*it);

	mov	edx, DWORD PTR _it$221559[ebp]
	mov	DWORD PTR $T223527[ebp], edx
	mov	eax, DWORD PTR $T223527[ebp]
	mov	ecx, DWORD PTR [eax]
	push	ecx
	mov	edx, DWORD PTR _this$[ebp]
	mov	ecx, DWORD PTR [edx]
	call	?GetPolicies@CvPlayerPolicies@@QBEPAVCvPolicyXMLEntries@@XZ ; CvPlayerPolicies::GetPolicies
	mov	ecx, eax
	call	?GetPolicyEntry@CvPolicyXMLEntries@@QAEPAVCvPolicyEntry@@H@Z ; CvPolicyXMLEntries::GetPolicyEntry
	mov	DWORD PTR _pEntry$221566[ebp], eax

; 303  : 			if (pEntry)

	cmp	DWORD PTR _pEntry$221566[ebp], 0
	je	$LN18@ChooseNext

; 304  : 			{
; 305  : 				AIGrandStrategyTypes eGrandStrategy = pPlayer->GetGrandStrategyAI()->GetActiveGrandStrategy();

	mov	ecx, DWORD PTR _pPlayer$[ebp]
	call	?GetGrandStrategyAI@CvPlayer@@QBEPAVCvGrandStrategyAI@@XZ ; CvPlayer::GetGrandStrategyAI
	mov	ecx, eax
	call	?GetActiveGrandStrategy@CvGrandStrategyAI@@QBE?AW4AIGrandStrategyTypes@@XZ ; CvGrandStrategyAI::GetActiveGrandStrategy
	mov	DWORD PTR _eGrandStrategy$221568[ebp], eax

; 306  : 				if (eGrandStrategy == GC.getInfoTypeForString("AIGRANDSTRATEGY_CONQUEST"))

	push	0
	push	OFFSET ??_C@_0BJ@GCKPAHPE@AIGRANDSTRATEGY_CONQUEST?$AA@
	mov	ecx, OFFSET ?gGlobals@@3VCvGlobals@@A	; gGlobals
	call	?getInfoTypeForString@CvGlobals@@QBEHPBD_N@Z ; CvGlobals::getInfoTypeForString
	cmp	DWORD PTR _eGrandStrategy$221568[ebp], eax
	jne	SHORT $LN17@ChooseNext

; 307  : 				{
; 308  : 					if (pEntry->GetFlavorValue((FlavorTypes)GC.getInfoTypeForString("FLAVOR_OFFENSE")) > 0)

	push	0
	push	OFFSET ??_C@_0P@ELMNBNJP@FLAVOR_OFFENSE?$AA@
	mov	ecx, OFFSET ?gGlobals@@3VCvGlobals@@A	; gGlobals
	call	?getInfoTypeForString@CvGlobals@@QBEHPBD_N@Z ; CvGlobals::getInfoTypeForString
	push	eax
	mov	ecx, DWORD PTR _pEntry$221566[ebp]
	call	?GetFlavorValue@CvPolicyEntry@@QBEHH@Z	; CvPolicyEntry::GetFlavorValue
	test	eax, eax
	jle	SHORT $LN16@ChooseNext

; 309  : 					{
; 310  : 						LogPolicyChoice((PolicyTypes)*it);

	mov	eax, DWORD PTR _it$221559[ebp]
	mov	ecx, DWORD PTR [eax]
	push	ecx
	mov	ecx, DWORD PTR _this$[ebp]
	call	?LogPolicyChoice@CvPolicyAI@@AAEXW4PolicyTypes@@@Z ; CvPolicyAI::LogPolicyChoice

; 311  : 						return (*it) + GC.getNumPolicyBranchInfos();

	mov	edx, DWORD PTR _it$221559[ebp]
	mov	DWORD PTR $T223534[ebp], edx
	mov	ecx, OFFSET ?gGlobals@@3VCvGlobals@@A	; gGlobals
	call	?getNumPolicyBranchInfos@CvGlobals@@QAEHXZ ; CvGlobals::getNumPolicyBranchInfos
	mov	ecx, DWORD PTR $T223534[ebp]
	add	eax, DWORD PTR [ecx]
	mov	DWORD PTR $T223275[ebp], eax
	mov	DWORD PTR __$EHRec$[ebp+8], 1
	lea	ecx, DWORD PTR _aLevel3Tenets$[ebp]
	call	?_Tidy@?$vector@HV?$allocator@H@std@@@std@@IAEXXZ ; std::vector<int,std::allocator<int> >::_Tidy
	mov	DWORD PTR __$EHRec$[ebp+8], -1
	mov	eax, DWORD PTR $T223275[ebp]
	jmp	$LN47@ChooseNext
$LN16@ChooseNext:

; 312  : 					}
; 313  : 				}

	jmp	$LN18@ChooseNext
$LN17@ChooseNext:

; 314  : 				else if(eGrandStrategy == GC.getInfoTypeForString("AIGRANDSTRATEGY_SPACESHIP"))

	push	0
	push	OFFSET ??_C@_0BK@CCPNHFB@AIGRANDSTRATEGY_SPACESHIP?$AA@
	mov	ecx, OFFSET ?gGlobals@@3VCvGlobals@@A	; gGlobals
	call	?getInfoTypeForString@CvGlobals@@QBEHPBD_N@Z ; CvGlobals::getInfoTypeForString
	cmp	DWORD PTR _eGrandStrategy$221568[ebp], eax
	jne	SHORT $LN14@ChooseNext

; 315  : 				{
; 316  : 					if (pEntry->GetFlavorValue((FlavorTypes)GC.getInfoTypeForString("FLAVOR_SPACESHIP")) > 0)

	push	0
	push	OFFSET ??_C@_0BB@EDNPBEHK@FLAVOR_SPACESHIP?$AA@
	mov	ecx, OFFSET ?gGlobals@@3VCvGlobals@@A	; gGlobals
	call	?getInfoTypeForString@CvGlobals@@QBEHPBD_N@Z ; CvGlobals::getInfoTypeForString
	push	eax
	mov	ecx, DWORD PTR _pEntry$221566[ebp]
	call	?GetFlavorValue@CvPolicyEntry@@QBEHH@Z	; CvPolicyEntry::GetFlavorValue
	test	eax, eax
	jle	SHORT $LN13@ChooseNext

; 317  : 					{
; 318  : 						LogPolicyChoice((PolicyTypes)*it);

	mov	edx, DWORD PTR _it$221559[ebp]
	mov	eax, DWORD PTR [edx]
	push	eax
	mov	ecx, DWORD PTR _this$[ebp]
	call	?LogPolicyChoice@CvPolicyAI@@AAEXW4PolicyTypes@@@Z ; CvPolicyAI::LogPolicyChoice

; 319  : 						return (*it) + GC.getNumPolicyBranchInfos();

	mov	ecx, DWORD PTR _it$221559[ebp]
	mov	DWORD PTR $T223596[ebp], ecx
	mov	ecx, OFFSET ?gGlobals@@3VCvGlobals@@A	; gGlobals
	call	?getNumPolicyBranchInfos@CvGlobals@@QAEHXZ ; CvGlobals::getNumPolicyBranchInfos
	mov	edx, DWORD PTR $T223596[ebp]
	add	eax, DWORD PTR [edx]
	mov	DWORD PTR $T223276[ebp], eax
	mov	DWORD PTR __$EHRec$[ebp+8], 2
	lea	ecx, DWORD PTR _aLevel3Tenets$[ebp]
	call	?_Tidy@?$vector@HV?$allocator@H@std@@@std@@IAEXXZ ; std::vector<int,std::allocator<int> >::_Tidy
	mov	DWORD PTR __$EHRec$[ebp+8], -1
	mov	eax, DWORD PTR $T223276[ebp]
	jmp	$LN47@ChooseNext
$LN13@ChooseNext:

; 320  : 					}
; 321  : 				}

	jmp	$LN18@ChooseNext
$LN14@ChooseNext:

; 322  : 				else if(eGrandStrategy == GC.getInfoTypeForString("AIGRANDSTRATEGY_UNITED_NATIONS"))

	push	0
	push	OFFSET ??_C@_0BP@DOCBNDKB@AIGRANDSTRATEGY_UNITED_NATIONS?$AA@
	mov	ecx, OFFSET ?gGlobals@@3VCvGlobals@@A	; gGlobals
	call	?getInfoTypeForString@CvGlobals@@QBEHPBD_N@Z ; CvGlobals::getInfoTypeForString
	cmp	DWORD PTR _eGrandStrategy$221568[ebp], eax
	jne	SHORT $LN11@ChooseNext

; 323  : 				{
; 324  : 					if (pEntry->GetFlavorValue((FlavorTypes)GC.getInfoTypeForString("FLAVOR_DIPLOMACY")) > 0)

	push	0
	push	OFFSET ??_C@_0BB@BPIBEAAN@FLAVOR_DIPLOMACY?$AA@
	mov	ecx, OFFSET ?gGlobals@@3VCvGlobals@@A	; gGlobals
	call	?getInfoTypeForString@CvGlobals@@QBEHPBD_N@Z ; CvGlobals::getInfoTypeForString
	push	eax
	mov	ecx, DWORD PTR _pEntry$221566[ebp]
	call	?GetFlavorValue@CvPolicyEntry@@QBEHH@Z	; CvPolicyEntry::GetFlavorValue
	test	eax, eax
	jle	SHORT $LN10@ChooseNext

; 325  : 					{
; 326  : 						LogPolicyChoice((PolicyTypes)*it);

	mov	eax, DWORD PTR _it$221559[ebp]
	mov	ecx, DWORD PTR [eax]
	push	ecx
	mov	ecx, DWORD PTR _this$[ebp]
	call	?LogPolicyChoice@CvPolicyAI@@AAEXW4PolicyTypes@@@Z ; CvPolicyAI::LogPolicyChoice

; 327  : 						return (*it) + GC.getNumPolicyBranchInfos();

	mov	edx, DWORD PTR _it$221559[ebp]
	mov	DWORD PTR $T223658[ebp], edx
	mov	ecx, OFFSET ?gGlobals@@3VCvGlobals@@A	; gGlobals
	call	?getNumPolicyBranchInfos@CvGlobals@@QAEHXZ ; CvGlobals::getNumPolicyBranchInfos
	mov	ecx, DWORD PTR $T223658[ebp]
	add	eax, DWORD PTR [ecx]
	mov	DWORD PTR $T223277[ebp], eax
	mov	DWORD PTR __$EHRec$[ebp+8], 3
	lea	ecx, DWORD PTR _aLevel3Tenets$[ebp]
	call	?_Tidy@?$vector@HV?$allocator@H@std@@@std@@IAEXXZ ; std::vector<int,std::allocator<int> >::_Tidy
	mov	DWORD PTR __$EHRec$[ebp+8], -1
	mov	eax, DWORD PTR $T223277[ebp]
	jmp	$LN47@ChooseNext
$LN10@ChooseNext:

; 328  : 					}
; 329  : 				}

	jmp	$LN18@ChooseNext
$LN11@ChooseNext:

; 330  : 				else if(eGrandStrategy == GC.getInfoTypeForString("AIGRANDSTRATEGY_CULTURE"))

	push	0
	push	OFFSET ??_C@_0BI@FNGLFDGI@AIGRANDSTRATEGY_CULTURE?$AA@
	mov	ecx, OFFSET ?gGlobals@@3VCvGlobals@@A	; gGlobals
	call	?getInfoTypeForString@CvGlobals@@QBEHPBD_N@Z ; CvGlobals::getInfoTypeForString
	cmp	DWORD PTR _eGrandStrategy$221568[ebp], eax
	jne	SHORT $LN18@ChooseNext

; 331  : 				{
; 332  : 					if (pEntry->GetFlavorValue((FlavorTypes)GC.getInfoTypeForString("FLAVOR_CULTURE")) > 0)

	push	0
	push	OFFSET ??_C@_0P@DAJFKJHO@FLAVOR_CULTURE?$AA@
	mov	ecx, OFFSET ?gGlobals@@3VCvGlobals@@A	; gGlobals
	call	?getInfoTypeForString@CvGlobals@@QBEHPBD_N@Z ; CvGlobals::getInfoTypeForString
	push	eax
	mov	ecx, DWORD PTR _pEntry$221566[ebp]
	call	?GetFlavorValue@CvPolicyEntry@@QBEHH@Z	; CvPolicyEntry::GetFlavorValue
	test	eax, eax
	jle	SHORT $LN18@ChooseNext

; 333  : 					{
; 334  : 						LogPolicyChoice((PolicyTypes)*it);

	mov	edx, DWORD PTR _it$221559[ebp]
	mov	eax, DWORD PTR [edx]
	push	eax
	mov	ecx, DWORD PTR _this$[ebp]
	call	?LogPolicyChoice@CvPolicyAI@@AAEXW4PolicyTypes@@@Z ; CvPolicyAI::LogPolicyChoice

; 335  : 						return (*it) + GC.getNumPolicyBranchInfos();

	mov	ecx, DWORD PTR _it$221559[ebp]
	mov	DWORD PTR $T223720[ebp], ecx
	mov	ecx, OFFSET ?gGlobals@@3VCvGlobals@@A	; gGlobals
	call	?getNumPolicyBranchInfos@CvGlobals@@QAEHXZ ; CvGlobals::getNumPolicyBranchInfos
	mov	edx, DWORD PTR $T223720[ebp]
	add	eax, DWORD PTR [edx]
	mov	DWORD PTR $T223278[ebp], eax
	mov	DWORD PTR __$EHRec$[ebp+8], 4
	lea	ecx, DWORD PTR _aLevel3Tenets$[ebp]
	call	?_Tidy@?$vector@HV?$allocator@H@std@@@std@@IAEXXZ ; std::vector<int,std::allocator<int> >::_Tidy
	mov	DWORD PTR __$EHRec$[ebp+8], -1
	mov	eax, DWORD PTR $T223278[ebp]
	jmp	$LN47@ChooseNext
$LN18@ChooseNext:

; 336  : 					}
; 337  : 				}
; 338  : 			}
; 339  : 		}

	jmp	$LN20@ChooseNext
$LN22@ChooseNext:

; 340  : 	}
; 341  : 
; 342  : 	CvAssertMsg(m_AdoptablePolicies.GetTotalWeight() >= 0, "Total weights of considered policies should not be negative! Please send Anton your save file and version.");
; 343  : 
; 344  : 	// If total weight is above 0, choose one above a threshold
; 345  : 	if(m_AdoptablePolicies.GetTotalWeight() > 0)

	mov	eax, DWORD PTR _this$[ebp]
	add	eax, 532				; 00000214H
	mov	DWORD PTR $T223802[ebp], eax
	mov	DWORD PTR _rtnValue$223796[ebp], 0
	mov	DWORD PTR _i$223797[ebp], 0
	jmp	SHORT $LN257@ChooseNext
$LN256@ChooseNext:
	mov	ecx, DWORD PTR _i$223797[ebp]
	add	ecx, 1
	mov	DWORD PTR _i$223797[ebp], ecx
$LN257@ChooseNext:
	mov	edx, DWORD PTR $T223802[ebp]
	mov	eax, DWORD PTR [edx+4]
	mov	DWORD PTR $T223780[ebp], eax
	mov	ecx, DWORD PTR _i$223797[ebp]
	cmp	ecx, DWORD PTR $T223780[ebp]
	jae	SHORT $LN258@ChooseNext
	mov	edx, DWORD PTR $T223802[ebp]
	mov	eax, DWORD PTR [edx]
	mov	ecx, DWORD PTR _i$223797[ebp]
	lea	edx, DWORD PTR [eax+ecx*8]
	mov	DWORD PTR $T223787[ebp], edx
	mov	eax, DWORD PTR $T223787[ebp]
	mov	ecx, DWORD PTR [eax]
	mov	DWORD PTR _elem$223801[ebp], ecx
	mov	edx, DWORD PTR $T223787[ebp]
	mov	eax, DWORD PTR [edx+4]
	mov	DWORD PTR _elem$223801[ebp+4], eax
	mov	ecx, DWORD PTR _rtnValue$223796[ebp]
	add	ecx, DWORD PTR _elem$223801[ebp+4]
	mov	DWORD PTR _rtnValue$223796[ebp], ecx
	jmp	SHORT $LN256@ChooseNext
$LN258@ChooseNext:
	cmp	DWORD PTR _rtnValue$223796[ebp], 0
	jle	SHORT $LN6@ChooseNext

; 346  : 	{
; 347  : 		int iNumChoices = GC.getGame().getHandicapInfo().GetPolicyNumOptions();

	mov	edx, DWORD PTR ?gGlobals@@3VCvGlobals@@A+48
	mov	DWORD PTR $T223806[ebp], edx
	mov	ecx, DWORD PTR $T223806[ebp]
	call	?getHandicapInfo@CvGame@@QBEAAVCvHandicapInfo@@XZ ; CvGame::getHandicapInfo
	mov	ecx, eax
	call	?GetPolicyNumOptions@CvHandicapInfo@@QBEHXZ ; CvHandicapInfo::GetPolicyNumOptions
	mov	DWORD PTR _iNumChoices$221600[ebp], eax

; 348  : 		iRtnValue = m_AdoptablePolicies.ChooseFromTopChoices(iNumChoices, &fcn, "Choosing policy from Top Choices");

	push	OFFSET ??_C@_0CB@EPKNHKBJ@Choosing?5policy?5from?5Top?5Choices@
	lea	eax, DWORD PTR _fcn$[ebp]
	push	eax
	mov	ecx, DWORD PTR _iNumChoices$221600[ebp]
	push	ecx
	mov	ecx, DWORD PTR _this$[ebp]
	add	ecx, 532				; 00000214H
	call	?ChooseFromTopChoices@?$CvWeightedVector@H$0EA@$00@@QAEHHPAV?$FastDelegate2@HPBDH@fastdelegate@@PBD@Z ; CvWeightedVector<int,64,1>::ChooseFromTopChoices
	mov	DWORD PTR _iRtnValue$[ebp], eax
	jmp	$LN5@ChooseNext
$LN6@ChooseNext:

; 349  : 	}
; 350  : 	// Total weight may be 0 if the only branches and policies left are ones that are ineffective in our game, but we gotta pick something
; 351  : 	else if(m_AdoptablePolicies.GetTotalWeight() == 0 && m_AdoptablePolicies.size() > 0)

	mov	edx, DWORD PTR _this$[ebp]
	add	edx, 532				; 00000214H
	mov	DWORD PTR $T223866[ebp], edx
	mov	DWORD PTR _rtnValue$223860[ebp], 0
	mov	DWORD PTR _i$223861[ebp], 0
	jmp	SHORT $LN296@ChooseNext
$LN295@ChooseNext:
	mov	eax, DWORD PTR _i$223861[ebp]
	add	eax, 1
	mov	DWORD PTR _i$223861[ebp], eax
$LN296@ChooseNext:
	mov	ecx, DWORD PTR $T223866[ebp]
	mov	edx, DWORD PTR [ecx+4]
	mov	DWORD PTR $T223844[ebp], edx
	mov	eax, DWORD PTR _i$223861[ebp]
	cmp	eax, DWORD PTR $T223844[ebp]
	jae	SHORT $LN297@ChooseNext
	mov	ecx, DWORD PTR $T223866[ebp]
	mov	edx, DWORD PTR [ecx]
	mov	eax, DWORD PTR _i$223861[ebp]
	lea	ecx, DWORD PTR [edx+eax*8]
	mov	DWORD PTR $T223851[ebp], ecx
	mov	edx, DWORD PTR $T223851[ebp]
	mov	eax, DWORD PTR [edx]
	mov	DWORD PTR _elem$223865[ebp], eax
	mov	ecx, DWORD PTR $T223851[ebp]
	mov	edx, DWORD PTR [ecx+4]
	mov	DWORD PTR _elem$223865[ebp+4], edx
	mov	eax, DWORD PTR _rtnValue$223860[ebp]
	add	eax, DWORD PTR _elem$223865[ebp+4]
	mov	DWORD PTR _rtnValue$223860[ebp], eax
	jmp	SHORT $LN295@ChooseNext
$LN297@ChooseNext:
	cmp	DWORD PTR _rtnValue$223860[ebp], 0
	jne	SHORT $LN5@ChooseNext
	mov	ecx, DWORD PTR _this$[ebp]
	mov	edx, DWORD PTR [ecx+536]
	mov	DWORD PTR $T223871[ebp], edx
	cmp	DWORD PTR $T223871[ebp], 0
	jle	SHORT $LN5@ChooseNext

; 352  : 	{
; 353  : 		iRtnValue = m_AdoptablePolicies.ChooseAtRandom(&fcn, "Choosing policy at random (no good choices)");

	push	OFFSET ??_C@_0CM@GEFFIOHP@Choosing?5policy?5at?5random?5?$CIno?5go@
	lea	eax, DWORD PTR _fcn$[ebp]
	push	eax
	mov	ecx, DWORD PTR _this$[ebp]
	add	ecx, 532				; 00000214H
	call	?ChooseAtRandom@?$CvWeightedVector@H$0EA@$00@@QAEHPAV?$FastDelegate2@HPBDH@fastdelegate@@PBD@Z ; CvWeightedVector<int,64,1>::ChooseAtRandom
	mov	DWORD PTR _iRtnValue$[ebp], eax
$LN5@ChooseNext:

; 354  : 	}
; 355  : 
; 356  : 	// Log our choice
; 357  : #ifdef AUI_WARNING_FIXES
; 358  : 	if (iRtnValue != (uint)NO_POLICY)
; 359  : #else
; 360  : 	if(iRtnValue != (int)NO_POLICY)

	cmp	DWORD PTR _iRtnValue$[ebp], -1
	je	SHORT $LN3@ChooseNext

; 361  : #endif
; 362  : 	{
; 363  : 		if(iRtnValue >= GC.getNumPolicyBranchInfos())

	mov	ecx, OFFSET ?gGlobals@@3VCvGlobals@@A	; gGlobals
	call	?getNumPolicyBranchInfos@CvGlobals@@QAEHXZ ; CvGlobals::getNumPolicyBranchInfos
	cmp	DWORD PTR _iRtnValue$[ebp], eax
	jl	SHORT $LN2@ChooseNext

; 364  : 		{
; 365  : 			LogPolicyChoice((PolicyTypes)(iRtnValue - GC.getNumPolicyBranchInfos()));

	mov	ecx, OFFSET ?gGlobals@@3VCvGlobals@@A	; gGlobals
	call	?getNumPolicyBranchInfos@CvGlobals@@QAEHXZ ; CvGlobals::getNumPolicyBranchInfos
	mov	ecx, DWORD PTR _iRtnValue$[ebp]
	sub	ecx, eax
	push	ecx
	mov	ecx, DWORD PTR _this$[ebp]
	call	?LogPolicyChoice@CvPolicyAI@@AAEXW4PolicyTypes@@@Z ; CvPolicyAI::LogPolicyChoice

; 366  : 		}
; 367  : 		else

	jmp	SHORT $LN3@ChooseNext
$LN2@ChooseNext:

; 368  : 		{
; 369  : 			LogBranchChoice((PolicyBranchTypes)iRtnValue);

	mov	edx, DWORD PTR _iRtnValue$[ebp]
	push	edx
	mov	ecx, DWORD PTR _this$[ebp]
	call	?LogBranchChoice@CvPolicyAI@@AAEXW4PolicyBranchTypes@@@Z ; CvPolicyAI::LogBranchChoice
$LN3@ChooseNext:

; 370  : 		}
; 371  : 	}
; 372  : 
; 373  : 	return iRtnValue;

	mov	eax, DWORD PTR _iRtnValue$[ebp]
	mov	DWORD PTR $T223279[ebp], eax
	mov	DWORD PTR __$EHRec$[ebp+8], 5
	lea	ecx, DWORD PTR _aLevel3Tenets$[ebp]
	call	?_Tidy@?$vector@HV?$allocator@H@std@@@std@@IAEXXZ ; std::vector<int,std::allocator<int> >::_Tidy
	mov	DWORD PTR __$EHRec$[ebp+8], -1
	mov	eax, DWORD PTR $T223279[ebp]
$LN47@ChooseNext:

; 374  : }

	mov	ecx, DWORD PTR __$EHRec$[ebp]
	mov	DWORD PTR fs:0, ecx
	pop	ecx
	mov	esp, ebp
	pop	ebp
	ret	4
_TEXT	ENDS
;	COMDAT text$x
text$x	SEGMENT
__unwindfunclet$?ChooseNextPolicy@CvPolicyAI@@QAEHPAVCvPlayer@@@Z$0:
	lea	ecx, DWORD PTR _aLevel3Tenets$[ebp]
	jmp	??1?$vector@HV?$allocator@H@std@@@std@@QAE@XZ ; std::vector<int,std::allocator<int> >::~vector<int,std::allocator<int> >
__unwindfunclet$?ChooseNextPolicy@CvPolicyAI@@QAEHPAVCvPlayer@@@Z$2:
	lea	ecx, DWORD PTR _aLevel3Tenets$[ebp]
	jmp	??1?$_Vector_val@HV?$allocator@H@std@@@std@@QAE@XZ
__unwindfunclet$?ChooseNextPolicy@CvPolicyAI@@QAEHPAVCvPlayer@@@Z$4:
	lea	ecx, DWORD PTR _aLevel3Tenets$[ebp]
	jmp	??1?$_Vector_val@HV?$allocator@H@std@@@std@@QAE@XZ
__unwindfunclet$?ChooseNextPolicy@CvPolicyAI@@QAEHPAVCvPlayer@@@Z$6:
	lea	ecx, DWORD PTR _aLevel3Tenets$[ebp]
	jmp	??1?$_Vector_val@HV?$allocator@H@std@@@std@@QAE@XZ
__unwindfunclet$?ChooseNextPolicy@CvPolicyAI@@QAEHPAVCvPlayer@@@Z$8:
	lea	ecx, DWORD PTR _aLevel3Tenets$[ebp]
	jmp	??1?$_Vector_val@HV?$allocator@H@std@@@std@@QAE@XZ
__unwindfunclet$?ChooseNextPolicy@CvPolicyAI@@QAEHPAVCvPlayer@@@Z$10:
	lea	ecx, DWORD PTR _aLevel3Tenets$[ebp]
	jmp	??1?$_Vector_val@HV?$allocator@H@std@@@std@@QAE@XZ
__ehhandler$?ChooseNextPolicy@CvPolicyAI@@QAEHPAVCvPlayer@@@Z:
	mov	edx, DWORD PTR [esp+8]
	lea	eax, DWORD PTR [edx+12]
	mov	ecx, DWORD PTR [edx-548]
	xor	ecx, eax
	call	@__security_check_cookie@4
	mov	eax, OFFSET __ehfuncinfo$?ChooseNextPolicy@CvPolicyAI@@QAEHPAVCvPlayer@@@Z
	jmp	___CxxFrameHandler3
text$x	ENDS
?ChooseNextPolicy@CvPolicyAI@@QAEHPAVCvPlayer@@@Z ENDP	; CvPolicyAI::ChooseNextPolicy
PUBLIC	??1CvString@@QAE@XZ				; CvString::~CvString
PUBLIC	??_C@_0CH@HBOAPKPC@Final?5?$CIafter?5Clear?5Victory?5Prefe@ ; `string'
PUBLIC	??_C@_0BH@PCNEDEBJ@After?5Random?5?$CI1?5to?510?$CJ?$AA@ ; `string'
PUBLIC	??_C@_0BL@FKPNCDOG@Order?5random?5priority?5bump?$AA@ ; `string'
PUBLIC	??_C@_0BP@MIILPLFJ@Autocracy?5random?5priority?5bump?$AA@ ; `string'
PUBLIC	??_C@_0BN@ECFBKOLO@Freedom?5random?5priority?5bump?$AA@ ; `string'
PUBLIC	??_C@_0BP@LIABBEKP@After?5Public?5Opinion?5Happiness?$AA@ ; `string'
PUBLIC	??_C@_0BN@MLNAJKNC@After?5Tenet?5Happiness?5Boosts?$AA@ ; `string'
PUBLIC	?GetNumHappinessPolicies@CvPolicyAI@@QAEHPAVCvPlayer@@W4PolicyBranchTypes@@@Z ; CvPolicyAI::GetNumHappinessPolicies
PUBLIC	?GetBranchBuildingHappiness@CvPolicyAI@@QAEHPAVCvPlayer@@W4PolicyBranchTypes@@@Z ; CvPolicyAI::GetBranchBuildingHappiness
PUBLIC	??_C@_0BA@HNHLJGOF@After?5Relations?$AA@	; `string'
PUBLIC	??_C@_0BE@LEFHHEJH@After?5Free?5Policies?$AA@	; `string'
PUBLIC	?LogIdeologyChoice@CvPolicyAI@@AAEXAAVCvString@@HHH@Z ; CvPolicyAI::LogIdeologyChoice
PUBLIC	??_C@_00CNPNBAHC@?$AA@				; `string'
PUBLIC	??_C@_0BH@LIGMKNEN@After?5Grand?5Strategies?$AA@ ; `string'
PUBLIC	__$ArrayPad$
PUBLIC	?DoChooseIdeology@CvPolicyAI@@QAEXPAVCvPlayer@@@Z ; CvPolicyAI::DoChooseIdeology
EXTRN	__imp_??1?$basic_string@DU?$char_traits@D@std@@V?$allocator@D@2@@std@@QAE@XZ:PROC
EXTRN	?SetPolicyBranchUnlocked@CvPlayerPolicies@@QAEXW4PolicyBranchTypes@@_N1@Z:PROC ; CvPlayerPolicies::SetPolicyBranchUnlocked
EXTRN	?ComputeHypotheticalPublicOpinionUnhappiness@CvPlayerCulture@@QAEHW4PolicyBranchTypes@@@Z:PROC ; CvPlayerCulture::ComputeHypotheticalPublicOpinionUnhappiness
EXTRN	?GetCulture@CvPlayer@@QBEPAVCvPlayerCulture@@XZ:PROC ; CvPlayer::GetCulture
EXTRN	?GetMajorCivApproach@CvDiplomacyAI@@QBE?AW4MajorCivApproachTypes@@W4PlayerTypes@@_N@Z:PROC ; CvDiplomacyAI::GetMajorCivApproach
EXTRN	?GetLateGamePolicyTree@CvPlayerPolicies@@QBE?AW4PolicyBranchTypes@@XZ:PROC ; CvPlayerPolicies::GetLateGamePolicyTree
EXTRN	?m_aPlayers@CvPlayerAI@@1PAV1@A:DWORD		; CvPlayerAI::m_aPlayers
EXTRN	?IsPlayerValid@CvDiplomacyAI@@QAE_NW4PlayerTypes@@_N@Z:PROC ; CvDiplomacyAI::IsPlayerValid
EXTRN	?GetDiplomacyAI@CvPlayer@@QBEPAVCvDiplomacyAI@@XZ:PROC ; CvPlayer::GetDiplomacyAI
EXTRN	__imp_?clear@?$basic_string@DU?$char_traits@D@std@@V?$allocator@D@2@@std@@QAEXXZ:PROC
EXTRN	__imp_?assign@?$basic_string@DU?$char_traits@D@std@@V?$allocator@D@2@@std@@QAEAAV12@PBD@Z:PROC
EXTRN	?GetNumFreePolicies@PolicyHelpers@@YAHW4PolicyBranchTypes@@@Z:PROC ; PolicyHelpers::GetNumFreePolicies
EXTRN	__imp_??0?$basic_string@DU?$char_traits@D@std@@V?$allocator@D@2@@std@@QAE@PBD@Z:PROC
EXTRN	?GetCulturePriority@CvGrandStrategyAI@@QAEHXZ:PROC ; CvGrandStrategyAI::GetCulturePriority
EXTRN	?GetSpaceshipPriority@CvGrandStrategyAI@@QAEHXZ:PROC ; CvGrandStrategyAI::GetSpaceshipPriority
EXTRN	?GetUnitedNationsPriority@CvGrandStrategyAI@@QAEHXZ:PROC ; CvGrandStrategyAI::GetUnitedNationsPriority
EXTRN	?GetConquestPriority@CvGrandStrategyAI@@QAEHXZ:PROC ; CvGrandStrategyAI::GetConquestPriority
;	COMDAT ??_C@_0CH@HBOAPKPC@Final?5?$CIafter?5Clear?5Victory?5Prefe@
; File d:\sources\lekmod_git\checkout\lekmod_dll\cvgamecoredllutil\include\cvstring.h
CONST	SEGMENT
??_C@_0CH@HBOAPKPC@Final?5?$CIafter?5Clear?5Victory?5Prefe@ DB 'Final (af'
	DB	'ter Clear Victory Preference)', 00H		; `string'
CONST	ENDS
;	COMDAT ??_C@_0BH@PCNEDEBJ@After?5Random?5?$CI1?5to?510?$CJ?$AA@
CONST	SEGMENT
??_C@_0BH@PCNEDEBJ@After?5Random?5?$CI1?5to?510?$CJ?$AA@ DB 'After Random'
	DB	' (1 to 10)', 00H				; `string'
CONST	ENDS
;	COMDAT ??_C@_0BL@FKPNCDOG@Order?5random?5priority?5bump?$AA@
CONST	SEGMENT
??_C@_0BL@FKPNCDOG@Order?5random?5priority?5bump?$AA@ DB 'Order random pr'
	DB	'iority bump', 00H				; `string'
CONST	ENDS
;	COMDAT ??_C@_0BP@MIILPLFJ@Autocracy?5random?5priority?5bump?$AA@
CONST	SEGMENT
??_C@_0BP@MIILPLFJ@Autocracy?5random?5priority?5bump?$AA@ DB 'Autocracy r'
	DB	'andom priority bump', 00H			; `string'
CONST	ENDS
;	COMDAT ??_C@_0BN@ECFBKOLO@Freedom?5random?5priority?5bump?$AA@
CONST	SEGMENT
??_C@_0BN@ECFBKOLO@Freedom?5random?5priority?5bump?$AA@ DB 'Freedom rando'
	DB	'm priority bump', 00H			; `string'
CONST	ENDS
;	COMDAT ??_C@_0BP@LIABBEKP@After?5Public?5Opinion?5Happiness?$AA@
CONST	SEGMENT
??_C@_0BP@LIABBEKP@After?5Public?5Opinion?5Happiness?$AA@ DB 'After Publi'
	DB	'c Opinion Happiness', 00H			; `string'
CONST	ENDS
;	COMDAT ??_C@_0BN@MLNAJKNC@After?5Tenet?5Happiness?5Boosts?$AA@
CONST	SEGMENT
??_C@_0BN@MLNAJKNC@After?5Tenet?5Happiness?5Boosts?$AA@ DB 'After Tenet H'
	DB	'appiness Boosts', 00H			; `string'
CONST	ENDS
;	COMDAT ??_C@_0BA@HNHLJGOF@After?5Relations?$AA@
CONST	SEGMENT
??_C@_0BA@HNHLJGOF@After?5Relations?$AA@ DB 'After Relations', 00H ; `string'
CONST	ENDS
;	COMDAT ??_C@_0BE@LEFHHEJH@After?5Free?5Policies?$AA@
CONST	SEGMENT
??_C@_0BE@LEFHHEJH@After?5Free?5Policies?$AA@ DB 'After Free Policies', 00H ; `string'
CONST	ENDS
;	COMDAT ??_C@_00CNPNBAHC@?$AA@
CONST	SEGMENT
??_C@_00CNPNBAHC@?$AA@ DB 00H				; `string'
CONST	ENDS
;	COMDAT ??_C@_0BH@LIGMKNEN@After?5Grand?5Strategies?$AA@
CONST	SEGMENT
??_C@_0BH@LIGMKNEN@After?5Grand?5Strategies?$AA@ DB 'After Grand Strategi'
	DB	'es', 00H					; `string'
CONST	ENDS
;	COMDAT xdata$x
xdata$x	SEGMENT
__unwindtable$?DoChooseIdeology@CvPolicyAI@@QAEXPAVCvPlayer@@@Z DD 0ffffffffH
	DD	FLAT:__unwindfunclet$?DoChooseIdeology@CvPolicyAI@@QAEXPAVCvPlayer@@@Z$0
__ehfuncinfo$?DoChooseIdeology@CvPolicyAI@@QAEXPAVCvPlayer@@@Z DD 019930522H
	DD	01H
	DD	FLAT:__unwindtable$?DoChooseIdeology@CvPolicyAI@@QAEXPAVCvPlayer@@@Z
	DD	2 DUP(00H)
	DD	2 DUP(00H)
	DD	00H
	DD	01H
; Function compile flags: /Odtp
; File d:\sources\lekmod_git\checkout\lekmod_dll\cvgamecoredll_expansion2\cvpolicyai.cpp
xdata$x	ENDS
;	COMDAT ?DoChooseIdeology@CvPolicyAI@@QAEXPAVCvPlayer@@@Z
_TEXT	SEGMENT
tv423 = -376						; size = 4
tv412 = -372						; size = 4
tv397 = -368						; size = 4
tv283 = -364						; size = 4
tv497 = -360						; size = 4
tv93 = -356						; size = 4
tv86 = -352						; size = 4
tv79 = -348						; size = 4
tv68 = -344						; size = 4
_this$ = -340						; size = 4
$T224198 = -336						; size = 4
$T224194 = -332						; size = 4
$T224190 = -328						; size = 4
$T224178 = -324						; size = 4
$T224169 = -320						; size = 4
$T224160 = -316						; size = 4
$T224141 = -312						; size = 4
$T224137 = -308						; size = 4
$T224133 = -304						; size = 4
$T224129 = -300						; size = 4
$T224125 = -296						; size = 4
$T224121 = -292						; size = 4
$T224117 = -288						; size = 4
$T224113 = -284						; size = 4
$T224109 = -280						; size = 4
$T224105 = -276						; size = 4
$T224101 = -272						; size = 4
$T224097 = -268						; size = 4
$T224093 = -264						; size = 4
$T224089 = -260						; size = 4
$T224085 = -256						; size = 4
$T224081 = -252						; size = 4
$T224077 = -248						; size = 4
$T224073 = -244						; size = 4
$T224066 = -240						; size = 4
$T224052 = -236						; size = 4
$T224048 = -232						; size = 4
$T224044 = -228						; size = 4
$T224023 = -224						; size = 4
$T224014 = -220						; size = 4
$T224005 = -216						; size = 4
$T223996 = -212						; size = 4
$T223980 = -208						; size = 4
$T223979 = -204						; size = 4
$T223978 = -200						; size = 4
$T223977 = -196						; size = 4
$T223976 = -192						; size = 4
$T223975 = -188						; size = 4
$T223974 = -184						; size = 4
$T223973 = -180						; size = 4
$T223972 = -176						; size = 4
$T223971 = -172						; size = 4
$T223970 = -168						; size = 4
$T223969 = -164						; size = 4
$T223968 = -160						; size = 4
$T223967 = -156						; size = 4
_kOtherPlayer$221669 = -152				; size = 4
_eOtherPlayerIdeology$221670 = -148			; size = 4
_iPlayerLoop$221663 = -144				; size = 4
_iPriorityToDivide$221658 = -140			; size = 4
_iTechPriority$ = -136					; size = 4
_iClearPrefPercent$ = -132				; size = 4
_iDiploPriority$ = -128					; size = 4
_iAutocracyTotal$ = -124				; size = 4
_iHappinessDelta$ = -120				; size = 4
_eLoopPlayer$ = -116					; size = 4
_stage$ = -112						; size = 28
__$ArrayPad$ = -84					; size = 4
_iAutocracyMultiplier$ = -80				; size = 4
_eFreedomBranch$ = -76					; size = 4
_iFreedomTotal$ = -72					; size = 4
_iAutocracyPriority$ = -68				; size = 4
_iOrderTotal$ = -64					; size = 4
_iFreedomMultiplier$ = -60				; size = 4
_iOrderMultiplier$ = -56				; size = 4
_iHappinessModifier$ = -52				; size = 4
_iConquestPriority$ = -48				; size = 4
_iGrandTotal$ = -44					; size = 4
_eOrderBranch$ = -40					; size = 4
_iHappinessPoliciesInBranch$ = -36			; size = 4
_iFreedomPriority$ = -32				; size = 4
_iOrderPriority$ = -28					; size = 4
_eAutocracyBranch$ = -24				; size = 4
_iCulturePriority$ = -20				; size = 4
_eChosenBranch$ = -16					; size = 4
__$EHRec$ = -12						; size = 12
_pPlayer$ = 8						; size = 4
?DoChooseIdeology@CvPolicyAI@@QAEXPAVCvPlayer@@@Z PROC	; CvPolicyAI::DoChooseIdeology, COMDAT
; _this$ = ecx

; 377  : {

	push	ebp
	mov	ebp, esp
	push	-1
	push	__ehhandler$?DoChooseIdeology@CvPolicyAI@@QAEXPAVCvPlayer@@@Z
	mov	eax, DWORD PTR fs:0
	push	eax
	sub	esp, 364				; 0000016cH
	mov	eax, DWORD PTR ___security_cookie
	xor	eax, ebp
	mov	DWORD PTR __$ArrayPad$[ebp], eax
	push	eax
	lea	eax, DWORD PTR __$EHRec$[ebp]
	mov	DWORD PTR fs:0, eax
	mov	DWORD PTR _this$[ebp], ecx

; 378  : 	int iFreedomPriority = 0;

	mov	DWORD PTR _iFreedomPriority$[ebp], 0

; 379  : 	int iAutocracyPriority = 0;

	mov	DWORD PTR _iAutocracyPriority$[ebp], 0

; 380  : 	int iOrderPriority = 0;

	mov	DWORD PTR _iOrderPriority$[ebp], 0

; 381  : 	int iFreedomMultiplier = 1;

	mov	DWORD PTR _iFreedomMultiplier$[ebp], 1

; 382  : 	int iAutocracyMultiplier = 1;

	mov	DWORD PTR _iAutocracyMultiplier$[ebp], 1

; 383  : 	int iOrderMultiplier = 1;

	mov	DWORD PTR _iOrderMultiplier$[ebp], 1

; 384  : 	PolicyBranchTypes eFreedomBranch = (PolicyBranchTypes)GC.getPOLICY_BRANCH_FREEDOM();

	mov	eax, DWORD PTR ?gGlobals@@3VCvGlobals@@A+8376
	mov	DWORD PTR _eFreedomBranch$[ebp], eax

; 385  : 	PolicyBranchTypes eAutocracyBranch = (PolicyBranchTypes)GC.getPOLICY_BRANCH_AUTOCRACY();

	mov	ecx, DWORD PTR ?gGlobals@@3VCvGlobals@@A+8380
	mov	DWORD PTR _eAutocracyBranch$[ebp], ecx

; 386  : 	PolicyBranchTypes eOrderBranch = (PolicyBranchTypes)GC.getPOLICY_BRANCH_ORDER();

	mov	edx, DWORD PTR ?gGlobals@@3VCvGlobals@@A+8384
	mov	DWORD PTR _eOrderBranch$[ebp], edx

; 387  : 	if (eFreedomBranch == NO_POLICY_BRANCH_TYPE || eAutocracyBranch == NO_POLICY_BRANCH_TYPE || eOrderBranch == NO_POLICY_BRANCH_TYPE)

	cmp	DWORD PTR _eFreedomBranch$[ebp], -1
	je	SHORT $LN45@DoChooseId
	cmp	DWORD PTR _eAutocracyBranch$[ebp], -1
	je	SHORT $LN45@DoChooseId
	cmp	DWORD PTR _eOrderBranch$[ebp], -1
	jne	SHORT $LN46@DoChooseId
$LN45@DoChooseId:

; 388  : 	{
; 389  : 		return;

	jmp	$LN47@DoChooseId
$LN46@DoChooseId:

; 390  : 	}
; 391  : 
; 392  : 	// First consideration is our victory type
; 393  : 	int iConquestPriority = max(0, pPlayer->GetGrandStrategyAI()->GetConquestPriority());

	mov	ecx, DWORD PTR _pPlayer$[ebp]
	call	?GetGrandStrategyAI@CvPlayer@@QBEPAVCvGrandStrategyAI@@XZ ; CvPlayer::GetGrandStrategyAI
	mov	ecx, eax
	call	?GetConquestPriority@CvGrandStrategyAI@@QAEHXZ ; CvGrandStrategyAI::GetConquestPriority
	mov	DWORD PTR $T223967[ebp], eax
	mov	DWORD PTR $T223968[ebp], 0
	mov	eax, DWORD PTR $T223968[ebp]
	cmp	eax, DWORD PTR $T223967[ebp]
	jge	SHORT $LN58@DoChooseId
	lea	ecx, DWORD PTR $T223967[ebp]
	mov	DWORD PTR tv68[ebp], ecx
	jmp	SHORT $LN59@DoChooseId
$LN58@DoChooseId:
	lea	edx, DWORD PTR $T223968[ebp]
	mov	DWORD PTR tv68[ebp], edx
$LN59@DoChooseId:
	mov	eax, DWORD PTR tv68[ebp]
	mov	DWORD PTR $T223996[ebp], eax
	mov	ecx, DWORD PTR $T223996[ebp]
	mov	edx, DWORD PTR [ecx]
	mov	DWORD PTR _iConquestPriority$[ebp], edx

; 394  : 	int iDiploPriority = max(0, pPlayer->GetGrandStrategyAI()->GetUnitedNationsPriority());

	mov	ecx, DWORD PTR _pPlayer$[ebp]
	call	?GetGrandStrategyAI@CvPlayer@@QBEPAVCvGrandStrategyAI@@XZ ; CvPlayer::GetGrandStrategyAI
	mov	ecx, eax
	call	?GetUnitedNationsPriority@CvGrandStrategyAI@@QAEHXZ ; CvGrandStrategyAI::GetUnitedNationsPriority
	mov	DWORD PTR $T223969[ebp], eax
	mov	DWORD PTR $T223970[ebp], 0
	mov	eax, DWORD PTR $T223970[ebp]
	cmp	eax, DWORD PTR $T223969[ebp]
	jge	SHORT $LN62@DoChooseId
	lea	ecx, DWORD PTR $T223969[ebp]
	mov	DWORD PTR tv79[ebp], ecx
	jmp	SHORT $LN63@DoChooseId
$LN62@DoChooseId:
	lea	edx, DWORD PTR $T223970[ebp]
	mov	DWORD PTR tv79[ebp], edx
$LN63@DoChooseId:
	mov	eax, DWORD PTR tv79[ebp]
	mov	DWORD PTR $T224005[ebp], eax
	mov	ecx, DWORD PTR $T224005[ebp]
	mov	edx, DWORD PTR [ecx]
	mov	DWORD PTR _iDiploPriority$[ebp], edx

; 395  : 	int iTechPriority = max(0, pPlayer->GetGrandStrategyAI()->GetSpaceshipPriority());

	mov	ecx, DWORD PTR _pPlayer$[ebp]
	call	?GetGrandStrategyAI@CvPlayer@@QBEPAVCvGrandStrategyAI@@XZ ; CvPlayer::GetGrandStrategyAI
	mov	ecx, eax
	call	?GetSpaceshipPriority@CvGrandStrategyAI@@QAEHXZ ; CvGrandStrategyAI::GetSpaceshipPriority
	mov	DWORD PTR $T223971[ebp], eax
	mov	DWORD PTR $T223972[ebp], 0
	mov	eax, DWORD PTR $T223972[ebp]
	cmp	eax, DWORD PTR $T223971[ebp]
	jge	SHORT $LN66@DoChooseId
	lea	ecx, DWORD PTR $T223971[ebp]
	mov	DWORD PTR tv86[ebp], ecx
	jmp	SHORT $LN67@DoChooseId
$LN66@DoChooseId:
	lea	edx, DWORD PTR $T223972[ebp]
	mov	DWORD PTR tv86[ebp], edx
$LN67@DoChooseId:
	mov	eax, DWORD PTR tv86[ebp]
	mov	DWORD PTR $T224014[ebp], eax
	mov	ecx, DWORD PTR $T224014[ebp]
	mov	edx, DWORD PTR [ecx]
	mov	DWORD PTR _iTechPriority$[ebp], edx

; 396  : 	int iCulturePriority = max(0, pPlayer->GetGrandStrategyAI()->GetCulturePriority());

	mov	ecx, DWORD PTR _pPlayer$[ebp]
	call	?GetGrandStrategyAI@CvPlayer@@QBEPAVCvGrandStrategyAI@@XZ ; CvPlayer::GetGrandStrategyAI
	mov	ecx, eax
	call	?GetCulturePriority@CvGrandStrategyAI@@QAEHXZ ; CvGrandStrategyAI::GetCulturePriority
	mov	DWORD PTR $T223973[ebp], eax
	mov	DWORD PTR $T223974[ebp], 0
	mov	eax, DWORD PTR $T223974[ebp]
	cmp	eax, DWORD PTR $T223973[ebp]
	jge	SHORT $LN70@DoChooseId
	lea	ecx, DWORD PTR $T223973[ebp]
	mov	DWORD PTR tv93[ebp], ecx
	jmp	SHORT $LN71@DoChooseId
$LN70@DoChooseId:
	lea	edx, DWORD PTR $T223974[ebp]
	mov	DWORD PTR tv93[ebp], edx
$LN71@DoChooseId:
	mov	eax, DWORD PTR tv93[ebp]
	mov	DWORD PTR $T224023[ebp], eax
	mov	ecx, DWORD PTR $T224023[ebp]
	mov	edx, DWORD PTR [ecx]
	mov	DWORD PTR _iCulturePriority$[ebp], edx

; 397  : 
; 398  : 	// Rule out one ideology if we are clearly (at least 25% more priority) going for the victory this ideology doesn't support
; 399  : 	int iClearPrefPercent = GC.getIDEOLOGY_PERCENT_CLEAR_VICTORY_PREF();

	mov	eax, DWORD PTR ?gGlobals@@3VCvGlobals@@A+8344
	mov	DWORD PTR _iClearPrefPercent$[ebp], eax

; 400  : 	if (iConquestPriority > (iDiploPriority   * (100 + iClearPrefPercent) / 100) &&
; 401  : 		iConquestPriority > (iTechPriority    * (100 + iClearPrefPercent) / 100) &&
; 402  : 		iConquestPriority > (iCulturePriority * (100 + iClearPrefPercent) / 100))

	mov	ecx, DWORD PTR _iClearPrefPercent$[ebp]
	add	ecx, 100				; 00000064H
	mov	eax, ecx
	imul	eax, DWORD PTR _iDiploPriority$[ebp]
	cdq
	mov	ecx, 100				; 00000064H
	idiv	ecx
	cmp	DWORD PTR _iConquestPriority$[ebp], eax
	jle	SHORT $LN44@DoChooseId
	mov	edx, DWORD PTR _iClearPrefPercent$[ebp]
	add	edx, 100				; 00000064H
	mov	eax, edx
	imul	eax, DWORD PTR _iTechPriority$[ebp]
	cdq
	mov	ecx, 100				; 00000064H
	idiv	ecx
	cmp	DWORD PTR _iConquestPriority$[ebp], eax
	jle	SHORT $LN44@DoChooseId
	mov	edx, DWORD PTR _iClearPrefPercent$[ebp]
	add	edx, 100				; 00000064H
	mov	eax, edx
	imul	eax, DWORD PTR _iCulturePriority$[ebp]
	cdq
	mov	ecx, 100				; 00000064H
	idiv	ecx
	cmp	DWORD PTR _iConquestPriority$[ebp], eax
	jle	SHORT $LN44@DoChooseId

; 403  : 	{
; 404  : 		iFreedomMultiplier = 0;

	mov	DWORD PTR _iFreedomMultiplier$[ebp], 0

; 405  : 	}
; 406  : 	else if (iDiploPriority > (iConquestPriority * (100 + iClearPrefPercent) / 100) &&

	jmp	$LN43@DoChooseId
$LN44@DoChooseId:

; 407  : 		iDiploPriority > (iTechPriority     * (100 + iClearPrefPercent) / 100) &&
; 408  : 		iDiploPriority > (iCulturePriority  * (100 + iClearPrefPercent) / 100))

	mov	edx, DWORD PTR _iClearPrefPercent$[ebp]
	add	edx, 100				; 00000064H
	mov	eax, edx
	imul	eax, DWORD PTR _iConquestPriority$[ebp]
	cdq
	mov	ecx, 100				; 00000064H
	idiv	ecx
	cmp	DWORD PTR _iDiploPriority$[ebp], eax
	jle	SHORT $LN42@DoChooseId
	mov	edx, DWORD PTR _iClearPrefPercent$[ebp]
	add	edx, 100				; 00000064H
	mov	eax, edx
	imul	eax, DWORD PTR _iTechPriority$[ebp]
	cdq
	mov	ecx, 100				; 00000064H
	idiv	ecx
	cmp	DWORD PTR _iDiploPriority$[ebp], eax
	jle	SHORT $LN42@DoChooseId
	mov	edx, DWORD PTR _iClearPrefPercent$[ebp]
	add	edx, 100				; 00000064H
	mov	eax, edx
	imul	eax, DWORD PTR _iCulturePriority$[ebp]
	cdq
	mov	ecx, 100				; 00000064H
	idiv	ecx
	cmp	DWORD PTR _iDiploPriority$[ebp], eax
	jle	SHORT $LN42@DoChooseId

; 409  : 	{
; 410  : 		iOrderMultiplier = 0;

	mov	DWORD PTR _iOrderMultiplier$[ebp], 0

; 411  : 	}
; 412  : 	else if (iTechPriority > (iConquestPriority * (100 + iClearPrefPercent) / 100) &&

	jmp	SHORT $LN43@DoChooseId
$LN42@DoChooseId:

; 413  : 		iTechPriority > (iDiploPriority    * (100 + iClearPrefPercent) / 100) &&
; 414  : 		iTechPriority > (iCulturePriority  * (100 + iClearPrefPercent) / 100))

	mov	edx, DWORD PTR _iClearPrefPercent$[ebp]
	add	edx, 100				; 00000064H
	mov	eax, edx
	imul	eax, DWORD PTR _iConquestPriority$[ebp]
	cdq
	mov	ecx, 100				; 00000064H
	idiv	ecx
	cmp	DWORD PTR _iTechPriority$[ebp], eax
	jle	SHORT $LN43@DoChooseId
	mov	edx, DWORD PTR _iClearPrefPercent$[ebp]
	add	edx, 100				; 00000064H
	mov	eax, edx
	imul	eax, DWORD PTR _iDiploPriority$[ebp]
	cdq
	mov	ecx, 100				; 00000064H
	idiv	ecx
	cmp	DWORD PTR _iTechPriority$[ebp], eax
	jle	SHORT $LN43@DoChooseId
	mov	edx, DWORD PTR _iClearPrefPercent$[ebp]
	add	edx, 100				; 00000064H
	mov	eax, edx
	imul	eax, DWORD PTR _iCulturePriority$[ebp]
	cdq
	mov	ecx, 100				; 00000064H
	idiv	ecx
	cmp	DWORD PTR _iTechPriority$[ebp], eax
	jle	SHORT $LN43@DoChooseId

; 415  : 	{
; 416  : 		iAutocracyMultiplier = 0;

	mov	DWORD PTR _iAutocracyMultiplier$[ebp], 0
$LN43@DoChooseId:

; 417  : 	}
; 418  : 
; 419  : 	int iFreedomTotal = iDiploPriority + iTechPriority + iCulturePriority;

	mov	edx, DWORD PTR _iDiploPriority$[ebp]
	add	edx, DWORD PTR _iTechPriority$[ebp]
	add	edx, DWORD PTR _iCulturePriority$[ebp]
	mov	DWORD PTR _iFreedomTotal$[ebp], edx

; 420  : 	int iAutocracyTotal = iDiploPriority + iConquestPriority + iCulturePriority;

	mov	eax, DWORD PTR _iDiploPriority$[ebp]
	add	eax, DWORD PTR _iConquestPriority$[ebp]
	add	eax, DWORD PTR _iCulturePriority$[ebp]
	mov	DWORD PTR _iAutocracyTotal$[ebp], eax

; 421  : 	int iOrderTotal = iTechPriority + iConquestPriority + iCulturePriority;

	mov	ecx, DWORD PTR _iTechPriority$[ebp]
	add	ecx, DWORD PTR _iConquestPriority$[ebp]
	add	ecx, DWORD PTR _iCulturePriority$[ebp]
	mov	DWORD PTR _iOrderTotal$[ebp], ecx

; 422  : 	int iGrandTotal = iFreedomTotal + iAutocracyTotal + iOrderTotal;

	mov	edx, DWORD PTR _iFreedomTotal$[ebp]
	add	edx, DWORD PTR _iAutocracyTotal$[ebp]
	add	edx, DWORD PTR _iOrderTotal$[ebp]
	mov	DWORD PTR _iGrandTotal$[ebp], edx

; 423  : 
; 424  : 	if (iGrandTotal > 0)

	cmp	DWORD PTR _iGrandTotal$[ebp], 0
	jle	SHORT $LN39@DoChooseId

; 425  : 	{
; 426  : 		int iPriorityToDivide = GC.getIDEOLOGY_SCORE_GRAND_STRATS();

	mov	eax, DWORD PTR ?gGlobals@@3VCvGlobals@@A+8348
	mov	DWORD PTR _iPriorityToDivide$221658[ebp], eax

; 427  : 		iFreedomPriority = (iFreedomTotal * iPriorityToDivide) / iGrandTotal;

	mov	eax, DWORD PTR _iFreedomTotal$[ebp]
	imul	eax, DWORD PTR _iPriorityToDivide$221658[ebp]
	cdq
	idiv	DWORD PTR _iGrandTotal$[ebp]
	mov	DWORD PTR _iFreedomPriority$[ebp], eax

; 428  : 		iAutocracyPriority = (iAutocracyTotal * iPriorityToDivide) / iGrandTotal;

	mov	eax, DWORD PTR _iAutocracyTotal$[ebp]
	imul	eax, DWORD PTR _iPriorityToDivide$221658[ebp]
	cdq
	idiv	DWORD PTR _iGrandTotal$[ebp]
	mov	DWORD PTR _iAutocracyPriority$[ebp], eax

; 429  : 		iOrderPriority = (iOrderTotal * iPriorityToDivide) / iGrandTotal;

	mov	eax, DWORD PTR _iOrderTotal$[ebp]
	imul	eax, DWORD PTR _iPriorityToDivide$221658[ebp]
	cdq
	idiv	DWORD PTR _iGrandTotal$[ebp]
	mov	DWORD PTR _iOrderPriority$[ebp], eax
$LN39@DoChooseId:

; 430  : 	}
; 431  : 
; 432  : 	CvString stage = "After Grand Strategies";

	mov	ecx, OFFSET ??_C@_0BH@LIGMKNEN@After?5Grand?5Strategies?$AA@
	test	ecx, ecx
	je	SHORT $LN78@DoChooseId
	mov	DWORD PTR tv497[ebp], OFFSET ??_C@_0BH@LIGMKNEN@After?5Grand?5Strategies?$AA@
	jmp	SHORT $LN79@DoChooseId
$LN78@DoChooseId:
	mov	DWORD PTR tv497[ebp], OFFSET ??_C@_00CNPNBAHC@?$AA@
$LN79@DoChooseId:
	mov	edx, DWORD PTR tv497[ebp]
	push	edx
	lea	ecx, DWORD PTR _stage$[ebp]
	call	DWORD PTR __imp_??0?$basic_string@DU?$char_traits@D@std@@V?$allocator@D@2@@std@@QAE@PBD@Z
	mov	DWORD PTR __$EHRec$[ebp+8], 0

; 433  : 	LogIdeologyChoice(stage, iFreedomPriority, iAutocracyPriority, iOrderPriority);

	mov	eax, DWORD PTR _iOrderPriority$[ebp]
	push	eax
	mov	ecx, DWORD PTR _iAutocracyPriority$[ebp]
	push	ecx
	mov	edx, DWORD PTR _iFreedomPriority$[ebp]
	push	edx
	lea	eax, DWORD PTR _stage$[ebp]
	push	eax
	mov	ecx, DWORD PTR _this$[ebp]
	call	?LogIdeologyChoice@CvPolicyAI@@AAEXAAVCvString@@HHH@Z ; CvPolicyAI::LogIdeologyChoice

; 434  : 
; 435  : 	// Next look at free policies we can get
; 436  : 	iFreedomPriority += PolicyHelpers::GetNumFreePolicies(eFreedomBranch) * GC.getIDEOLOGY_SCORE_PER_FREE_TENET();

	mov	ecx, DWORD PTR ?gGlobals@@3VCvGlobals@@A+8356
	mov	DWORD PTR $T224044[ebp], ecx
	mov	edx, DWORD PTR _eFreedomBranch$[ebp]
	push	edx
	call	?GetNumFreePolicies@PolicyHelpers@@YAHW4PolicyBranchTypes@@@Z ; PolicyHelpers::GetNumFreePolicies
	add	esp, 4
	imul	eax, DWORD PTR $T224044[ebp]
	add	eax, DWORD PTR _iFreedomPriority$[ebp]
	mov	DWORD PTR _iFreedomPriority$[ebp], eax

; 437  : 	iAutocracyPriority += PolicyHelpers::GetNumFreePolicies(eAutocracyBranch) * GC.getIDEOLOGY_SCORE_PER_FREE_TENET();

	mov	eax, DWORD PTR ?gGlobals@@3VCvGlobals@@A+8356
	mov	DWORD PTR $T224048[ebp], eax
	mov	ecx, DWORD PTR _eAutocracyBranch$[ebp]
	push	ecx
	call	?GetNumFreePolicies@PolicyHelpers@@YAHW4PolicyBranchTypes@@@Z ; PolicyHelpers::GetNumFreePolicies
	add	esp, 4
	imul	eax, DWORD PTR $T224048[ebp]
	add	eax, DWORD PTR _iAutocracyPriority$[ebp]
	mov	DWORD PTR _iAutocracyPriority$[ebp], eax

; 438  : 	iOrderPriority += PolicyHelpers::GetNumFreePolicies(eOrderBranch) * GC.getIDEOLOGY_SCORE_PER_FREE_TENET();;

	mov	edx, DWORD PTR ?gGlobals@@3VCvGlobals@@A+8356
	mov	DWORD PTR $T224052[ebp], edx
	mov	eax, DWORD PTR _eOrderBranch$[ebp]
	push	eax
	call	?GetNumFreePolicies@PolicyHelpers@@YAHW4PolicyBranchTypes@@@Z ; PolicyHelpers::GetNumFreePolicies
	add	esp, 4
	imul	eax, DWORD PTR $T224052[ebp]
	add	eax, DWORD PTR _iOrderPriority$[ebp]
	mov	DWORD PTR _iOrderPriority$[ebp], eax

; 439  : 
; 440  : 	stage = "After Free Policies";

	mov	ecx, OFFSET ??_C@_0BE@LEFHHEJH@After?5Free?5Policies?$AA@
	test	ecx, ecx
	je	SHORT $LN88@DoChooseId
	push	OFFSET ??_C@_0BE@LEFHHEJH@After?5Free?5Policies?$AA@
	lea	ecx, DWORD PTR _stage$[ebp]
	call	DWORD PTR __imp_?assign@?$basic_string@DU?$char_traits@D@std@@V?$allocator@D@2@@std@@QAEAAV12@PBD@Z
	jmp	SHORT $LN89@DoChooseId
$LN88@DoChooseId:
	lea	ecx, DWORD PTR _stage$[ebp]
	call	DWORD PTR __imp_?clear@?$basic_string@DU?$char_traits@D@std@@V?$allocator@D@2@@std@@QAEXXZ
$LN89@DoChooseId:

; 441  : 	LogIdeologyChoice(stage, iFreedomPriority, iAutocracyPriority, iOrderPriority);

	mov	edx, DWORD PTR _iOrderPriority$[ebp]
	push	edx
	mov	eax, DWORD PTR _iAutocracyPriority$[ebp]
	push	eax
	mov	ecx, DWORD PTR _iFreedomPriority$[ebp]
	push	ecx
	lea	edx, DWORD PTR _stage$[ebp]
	push	edx
	mov	ecx, DWORD PTR _this$[ebp]
	call	?LogIdeologyChoice@CvPolicyAI@@AAEXAAVCvString@@HHH@Z ; CvPolicyAI::LogIdeologyChoice

; 442  : 
; 443  : 	// Finally see what our friends (and enemies) have already chosen
; 444  : 	PlayerTypes eLoopPlayer;
; 445  : 	for (int iPlayerLoop = 0; iPlayerLoop < MAX_MAJOR_CIVS; iPlayerLoop++)

	mov	DWORD PTR _iPlayerLoop$221663[ebp], 0
	jmp	SHORT $LN38@DoChooseId
$LN37@DoChooseId:
	mov	eax, DWORD PTR _iPlayerLoop$221663[ebp]
	add	eax, 1
	mov	DWORD PTR _iPlayerLoop$221663[ebp], eax
$LN38@DoChooseId:
	cmp	DWORD PTR _iPlayerLoop$221663[ebp], 22	; 00000016H
	jge	$LN36@DoChooseId

; 446  : 	{
; 447  : 		eLoopPlayer = (PlayerTypes) iPlayerLoop;

	mov	ecx, DWORD PTR _iPlayerLoop$221663[ebp]
	mov	DWORD PTR _eLoopPlayer$[ebp], ecx

; 448  : 		if (eLoopPlayer != pPlayer->GetID() && pPlayer->GetDiplomacyAI()->IsPlayerValid(eLoopPlayer))

	mov	edx, DWORD PTR _pPlayer$[ebp]
	mov	eax, DWORD PTR [edx+44]
	mov	DWORD PTR $T224066[ebp], eax
	mov	ecx, DWORD PTR _eLoopPlayer$[ebp]
	cmp	ecx, DWORD PTR $T224066[ebp]
	je	$LN35@DoChooseId
	push	0
	mov	edx, DWORD PTR _eLoopPlayer$[ebp]
	push	edx
	mov	ecx, DWORD PTR _pPlayer$[ebp]
	call	?GetDiplomacyAI@CvPlayer@@QBEPAVCvDiplomacyAI@@XZ ; CvPlayer::GetDiplomacyAI
	mov	ecx, eax
	call	?IsPlayerValid@CvDiplomacyAI@@QAE_NW4PlayerTypes@@_N@Z ; CvDiplomacyAI::IsPlayerValid
	movzx	eax, al
	test	eax, eax
	je	$LN35@DoChooseId

; 449  : 		{
; 450  : 			CvPlayer &kOtherPlayer = GET_PLAYER(eLoopPlayer);

	mov	ecx, DWORD PTR _eLoopPlayer$[ebp]
	imul	ecx, 63236				; 0000f704H
	add	ecx, DWORD PTR ?m_aPlayers@CvPlayerAI@@1PAV1@A ; CvPlayerAI::m_aPlayers
	mov	DWORD PTR _kOtherPlayer$221669[ebp], ecx

; 451  : 			PolicyBranchTypes eOtherPlayerIdeology;
; 452  : 			eOtherPlayerIdeology = kOtherPlayer.GetPlayerPolicies()->GetLateGamePolicyTree();

	mov	ecx, DWORD PTR _kOtherPlayer$221669[ebp]
	call	?GetPlayerPolicies@CvPlayer@@QBEPAVCvPlayerPolicies@@XZ ; CvPlayer::GetPlayerPolicies
	mov	ecx, eax
	call	?GetLateGamePolicyTree@CvPlayerPolicies@@QBE?AW4PolicyBranchTypes@@XZ ; CvPlayerPolicies::GetLateGamePolicyTree
	mov	DWORD PTR _eOtherPlayerIdeology$221670[ebp], eax

; 453  : 
; 454  : 			switch(pPlayer->GetDiplomacyAI()->GetMajorCivApproach(eLoopPlayer, /*bHideTrueFeelings*/ true))

	push	1
	mov	edx, DWORD PTR _eLoopPlayer$[ebp]
	push	edx
	mov	ecx, DWORD PTR _pPlayer$[ebp]
	call	?GetDiplomacyAI@CvPlayer@@QBEPAVCvDiplomacyAI@@XZ ; CvPlayer::GetDiplomacyAI
	mov	ecx, eax
	call	?GetMajorCivApproach@CvDiplomacyAI@@QBE?AW4MajorCivApproachTypes@@W4PlayerTypes@@_N@Z ; CvDiplomacyAI::GetMajorCivApproach
	mov	DWORD PTR tv283[ebp], eax
	mov	eax, DWORD PTR tv283[ebp]
	sub	eax, 1
	mov	DWORD PTR tv283[ebp], eax
	cmp	DWORD PTR tv283[ebp], 4
	ja	$LN35@DoChooseId
	mov	ecx, DWORD PTR tv283[ebp]
	jmp	DWORD PTR $LN177@DoChooseId[ecx*4]
$LN32@DoChooseId:

; 455  : 			{
; 456  : 			case MAJOR_CIV_APPROACH_HOSTILE:
; 457  : 				if (eOtherPlayerIdeology == eFreedomBranch)

	mov	edx, DWORD PTR _eOtherPlayerIdeology$221670[ebp]
	cmp	edx, DWORD PTR _eFreedomBranch$[ebp]
	jne	SHORT $LN31@DoChooseId

; 458  : 				{
; 459  : 					iAutocracyPriority += GC.getIDEOLOGY_SCORE_HOSTILE();

	mov	eax, DWORD PTR ?gGlobals@@3VCvGlobals@@A+8360
	mov	DWORD PTR $T224073[ebp], eax
	mov	ecx, DWORD PTR _iAutocracyPriority$[ebp]
	add	ecx, DWORD PTR $T224073[ebp]
	mov	DWORD PTR _iAutocracyPriority$[ebp], ecx

; 460  : 					iOrderPriority += GC.getIDEOLOGY_SCORE_HOSTILE();

	mov	edx, DWORD PTR ?gGlobals@@3VCvGlobals@@A+8360
	mov	DWORD PTR $T224077[ebp], edx
	mov	eax, DWORD PTR _iOrderPriority$[ebp]
	add	eax, DWORD PTR $T224077[ebp]
	mov	DWORD PTR _iOrderPriority$[ebp], eax
	jmp	SHORT $LN30@DoChooseId
$LN31@DoChooseId:

; 461  : 				}
; 462  : 				else if (eOtherPlayerIdeology == eAutocracyBranch)

	mov	ecx, DWORD PTR _eOtherPlayerIdeology$221670[ebp]
	cmp	ecx, DWORD PTR _eAutocracyBranch$[ebp]
	jne	SHORT $LN29@DoChooseId

; 463  : 				{
; 464  : 					iFreedomPriority += GC.getIDEOLOGY_SCORE_HOSTILE();

	mov	edx, DWORD PTR ?gGlobals@@3VCvGlobals@@A+8360
	mov	DWORD PTR $T224081[ebp], edx
	mov	eax, DWORD PTR _iFreedomPriority$[ebp]
	add	eax, DWORD PTR $T224081[ebp]
	mov	DWORD PTR _iFreedomPriority$[ebp], eax

; 465  : 					iOrderPriority += GC.getIDEOLOGY_SCORE_HOSTILE();

	mov	ecx, DWORD PTR ?gGlobals@@3VCvGlobals@@A+8360
	mov	DWORD PTR $T224085[ebp], ecx
	mov	edx, DWORD PTR _iOrderPriority$[ebp]
	add	edx, DWORD PTR $T224085[ebp]
	mov	DWORD PTR _iOrderPriority$[ebp], edx
	jmp	SHORT $LN30@DoChooseId
$LN29@DoChooseId:

; 466  : 				}
; 467  : 				else if (eOtherPlayerIdeology == eOrderBranch)

	mov	eax, DWORD PTR _eOtherPlayerIdeology$221670[ebp]
	cmp	eax, DWORD PTR _eOrderBranch$[ebp]
	jne	SHORT $LN30@DoChooseId

; 468  : 				{
; 469  : 					iAutocracyPriority += GC.getIDEOLOGY_SCORE_HOSTILE();;

	mov	ecx, DWORD PTR ?gGlobals@@3VCvGlobals@@A+8360
	mov	DWORD PTR $T224089[ebp], ecx
	mov	edx, DWORD PTR _iAutocracyPriority$[ebp]
	add	edx, DWORD PTR $T224089[ebp]
	mov	DWORD PTR _iAutocracyPriority$[ebp], edx

; 470  : 					iFreedomPriority += GC.getIDEOLOGY_SCORE_HOSTILE();

	mov	eax, DWORD PTR ?gGlobals@@3VCvGlobals@@A+8360
	mov	DWORD PTR $T224093[ebp], eax
	mov	ecx, DWORD PTR _iFreedomPriority$[ebp]
	add	ecx, DWORD PTR $T224093[ebp]
	mov	DWORD PTR _iFreedomPriority$[ebp], ecx
$LN30@DoChooseId:

; 471  : 				}
; 472  : 				break;

	jmp	$LN35@DoChooseId
$LN26@DoChooseId:

; 473  : 			case MAJOR_CIV_APPROACH_GUARDED:
; 474  : 				if (eOtherPlayerIdeology == eFreedomBranch)

	mov	edx, DWORD PTR _eOtherPlayerIdeology$221670[ebp]
	cmp	edx, DWORD PTR _eFreedomBranch$[ebp]
	jne	SHORT $LN25@DoChooseId

; 475  : 				{
; 476  : 					iAutocracyPriority += GC.getIDEOLOGY_SCORE_GUARDED();

	mov	eax, DWORD PTR ?gGlobals@@3VCvGlobals@@A+8364
	mov	DWORD PTR $T224097[ebp], eax
	mov	ecx, DWORD PTR _iAutocracyPriority$[ebp]
	add	ecx, DWORD PTR $T224097[ebp]
	mov	DWORD PTR _iAutocracyPriority$[ebp], ecx

; 477  : 					iOrderPriority += GC.getIDEOLOGY_SCORE_GUARDED();

	mov	edx, DWORD PTR ?gGlobals@@3VCvGlobals@@A+8364
	mov	DWORD PTR $T224101[ebp], edx
	mov	eax, DWORD PTR _iOrderPriority$[ebp]
	add	eax, DWORD PTR $T224101[ebp]
	mov	DWORD PTR _iOrderPriority$[ebp], eax
	jmp	SHORT $LN24@DoChooseId
$LN25@DoChooseId:

; 478  : 				}
; 479  : 				else if (eOtherPlayerIdeology == eAutocracyBranch)

	mov	ecx, DWORD PTR _eOtherPlayerIdeology$221670[ebp]
	cmp	ecx, DWORD PTR _eAutocracyBranch$[ebp]
	jne	SHORT $LN23@DoChooseId

; 480  : 				{
; 481  : 					iFreedomPriority += GC.getIDEOLOGY_SCORE_GUARDED();

	mov	edx, DWORD PTR ?gGlobals@@3VCvGlobals@@A+8364
	mov	DWORD PTR $T224105[ebp], edx
	mov	eax, DWORD PTR _iFreedomPriority$[ebp]
	add	eax, DWORD PTR $T224105[ebp]
	mov	DWORD PTR _iFreedomPriority$[ebp], eax

; 482  : 					iOrderPriority += GC.getIDEOLOGY_SCORE_GUARDED();

	mov	ecx, DWORD PTR ?gGlobals@@3VCvGlobals@@A+8364
	mov	DWORD PTR $T224109[ebp], ecx
	mov	edx, DWORD PTR _iOrderPriority$[ebp]
	add	edx, DWORD PTR $T224109[ebp]
	mov	DWORD PTR _iOrderPriority$[ebp], edx
	jmp	SHORT $LN24@DoChooseId
$LN23@DoChooseId:

; 483  : 				}
; 484  : 				else if (eOtherPlayerIdeology == eOrderBranch)

	mov	eax, DWORD PTR _eOtherPlayerIdeology$221670[ebp]
	cmp	eax, DWORD PTR _eOrderBranch$[ebp]
	jne	SHORT $LN24@DoChooseId

; 485  : 				{
; 486  : 					iAutocracyPriority += GC.getIDEOLOGY_SCORE_GUARDED();

	mov	ecx, DWORD PTR ?gGlobals@@3VCvGlobals@@A+8364
	mov	DWORD PTR $T224113[ebp], ecx
	mov	edx, DWORD PTR _iAutocracyPriority$[ebp]
	add	edx, DWORD PTR $T224113[ebp]
	mov	DWORD PTR _iAutocracyPriority$[ebp], edx

; 487  : 					iFreedomPriority += GC.getIDEOLOGY_SCORE_GUARDED();

	mov	eax, DWORD PTR ?gGlobals@@3VCvGlobals@@A+8364
	mov	DWORD PTR $T224117[ebp], eax
	mov	ecx, DWORD PTR _iFreedomPriority$[ebp]
	add	ecx, DWORD PTR $T224117[ebp]
	mov	DWORD PTR _iFreedomPriority$[ebp], ecx
$LN24@DoChooseId:

; 488  : 				}
; 489  : 				break;

	jmp	$LN35@DoChooseId
$LN20@DoChooseId:

; 490  : 			case MAJOR_CIV_APPROACH_AFRAID:
; 491  : 				if (eOtherPlayerIdeology == eFreedomBranch)

	mov	edx, DWORD PTR _eOtherPlayerIdeology$221670[ebp]
	cmp	edx, DWORD PTR _eFreedomBranch$[ebp]
	jne	SHORT $LN19@DoChooseId

; 492  : 				{
; 493  : 					iFreedomPriority += GC.getIDEOLOGY_SCORE_AFRAID();

	mov	eax, DWORD PTR ?gGlobals@@3VCvGlobals@@A+8368
	mov	DWORD PTR $T224121[ebp], eax
	mov	ecx, DWORD PTR _iFreedomPriority$[ebp]
	add	ecx, DWORD PTR $T224121[ebp]
	mov	DWORD PTR _iFreedomPriority$[ebp], ecx
	jmp	SHORT $LN18@DoChooseId
$LN19@DoChooseId:

; 494  : 				}
; 495  : 				else if (eOtherPlayerIdeology == eAutocracyBranch)

	mov	edx, DWORD PTR _eOtherPlayerIdeology$221670[ebp]
	cmp	edx, DWORD PTR _eAutocracyBranch$[ebp]
	jne	SHORT $LN17@DoChooseId

; 496  : 				{
; 497  : 					iAutocracyPriority += GC.getIDEOLOGY_SCORE_AFRAID();

	mov	eax, DWORD PTR ?gGlobals@@3VCvGlobals@@A+8368
	mov	DWORD PTR $T224125[ebp], eax
	mov	ecx, DWORD PTR _iAutocracyPriority$[ebp]
	add	ecx, DWORD PTR $T224125[ebp]
	mov	DWORD PTR _iAutocracyPriority$[ebp], ecx
	jmp	SHORT $LN18@DoChooseId
$LN17@DoChooseId:

; 498  : 				}
; 499  : 				else if (eOtherPlayerIdeology == eOrderBranch)

	mov	edx, DWORD PTR _eOtherPlayerIdeology$221670[ebp]
	cmp	edx, DWORD PTR _eOrderBranch$[ebp]
	jne	SHORT $LN18@DoChooseId

; 500  : 				{
; 501  : 					iOrderPriority += GC.getIDEOLOGY_SCORE_AFRAID();

	mov	eax, DWORD PTR ?gGlobals@@3VCvGlobals@@A+8368
	mov	DWORD PTR $T224129[ebp], eax
	mov	ecx, DWORD PTR _iOrderPriority$[ebp]
	add	ecx, DWORD PTR $T224129[ebp]
	mov	DWORD PTR _iOrderPriority$[ebp], ecx
$LN18@DoChooseId:

; 502  : 				}
; 503  : 				break;

	jmp	SHORT $LN35@DoChooseId
$LN14@DoChooseId:

; 504  : 			case MAJOR_CIV_APPROACH_FRIENDLY:
; 505  : 				if (eOtherPlayerIdeology == eFreedomBranch)

	mov	edx, DWORD PTR _eOtherPlayerIdeology$221670[ebp]
	cmp	edx, DWORD PTR _eFreedomBranch$[ebp]
	jne	SHORT $LN13@DoChooseId

; 506  : 				{
; 507  : 					iFreedomPriority += GC.getIDEOLOGY_SCORE_FRIENDLY();

	mov	eax, DWORD PTR ?gGlobals@@3VCvGlobals@@A+8372
	mov	DWORD PTR $T224133[ebp], eax
	mov	ecx, DWORD PTR _iFreedomPriority$[ebp]
	add	ecx, DWORD PTR $T224133[ebp]
	mov	DWORD PTR _iFreedomPriority$[ebp], ecx
	jmp	SHORT $LN35@DoChooseId
$LN13@DoChooseId:

; 508  : 				}
; 509  : 				else if (eOtherPlayerIdeology == eAutocracyBranch)

	mov	edx, DWORD PTR _eOtherPlayerIdeology$221670[ebp]
	cmp	edx, DWORD PTR _eAutocracyBranch$[ebp]
	jne	SHORT $LN11@DoChooseId

; 510  : 				{
; 511  : 					iAutocracyPriority += GC.getIDEOLOGY_SCORE_FRIENDLY();

	mov	eax, DWORD PTR ?gGlobals@@3VCvGlobals@@A+8372
	mov	DWORD PTR $T224137[ebp], eax
	mov	ecx, DWORD PTR _iAutocracyPriority$[ebp]
	add	ecx, DWORD PTR $T224137[ebp]
	mov	DWORD PTR _iAutocracyPriority$[ebp], ecx
	jmp	SHORT $LN35@DoChooseId
$LN11@DoChooseId:

; 512  : 				}
; 513  : 				else if (eOtherPlayerIdeology == eOrderBranch)

	mov	edx, DWORD PTR _eOtherPlayerIdeology$221670[ebp]
	cmp	edx, DWORD PTR _eOrderBranch$[ebp]
	jne	SHORT $LN35@DoChooseId

; 514  : 				{
; 515  : 					iOrderPriority += GC.getIDEOLOGY_SCORE_FRIENDLY();

	mov	eax, DWORD PTR ?gGlobals@@3VCvGlobals@@A+8372
	mov	DWORD PTR $T224141[ebp], eax
	mov	ecx, DWORD PTR _iOrderPriority$[ebp]
	add	ecx, DWORD PTR $T224141[ebp]
	mov	DWORD PTR _iOrderPriority$[ebp], ecx
$LN35@DoChooseId:

; 516  : 				}
; 517  : 				break;
; 518  : 			case MAJOR_CIV_APPROACH_NEUTRAL:
; 519  : 				// No changes
; 520  : 				break;
; 521  : 			}
; 522  : 		}
; 523  : 	}

	jmp	$LN37@DoChooseId
$LN36@DoChooseId:

; 524  : 
; 525  : 	stage = "After Relations";

	mov	edx, OFFSET ??_C@_0BA@HNHLJGOF@After?5Relations?$AA@
	test	edx, edx
	je	SHORT $LN134@DoChooseId
	push	OFFSET ??_C@_0BA@HNHLJGOF@After?5Relations?$AA@
	lea	ecx, DWORD PTR _stage$[ebp]
	call	DWORD PTR __imp_?assign@?$basic_string@DU?$char_traits@D@std@@V?$allocator@D@2@@std@@QAEAAV12@PBD@Z
	jmp	SHORT $LN135@DoChooseId
$LN134@DoChooseId:
	lea	ecx, DWORD PTR _stage$[ebp]
	call	DWORD PTR __imp_?clear@?$basic_string@DU?$char_traits@D@std@@V?$allocator@D@2@@std@@QAEXXZ
$LN135@DoChooseId:

; 526  : 	LogIdeologyChoice(stage, iFreedomPriority, iAutocracyPriority, iOrderPriority);

	mov	eax, DWORD PTR _iOrderPriority$[ebp]
	push	eax
	mov	ecx, DWORD PTR _iAutocracyPriority$[ebp]
	push	ecx
	mov	edx, DWORD PTR _iFreedomPriority$[ebp]
	push	edx
	lea	eax, DWORD PTR _stage$[ebp]
	push	eax
	mov	ecx, DWORD PTR _this$[ebp]
	call	?LogIdeologyChoice@CvPolicyAI@@AAEXAAVCvString@@HHH@Z ; CvPolicyAI::LogIdeologyChoice

; 527  : 
; 528  : 	// Look at Happiness impacts
; 529  : 	int iHappinessModifier = GC.getIDEOLOGY_SCORE_HAPPINESS();

	mov	ecx, DWORD PTR ?gGlobals@@3VCvGlobals@@A+8352
	mov	DWORD PTR _iHappinessModifier$[ebp], ecx

; 530  : 
; 531  : 	// -- Happiness we could add through tenets
; 532  : 	int iHappinessDelta;
; 533  : 	int iHappinessPoliciesInBranch;
; 534  : 	iHappinessDelta = GetBranchBuildingHappiness(pPlayer, eFreedomBranch);

	mov	edx, DWORD PTR _eFreedomBranch$[ebp]
	push	edx
	mov	eax, DWORD PTR _pPlayer$[ebp]
	push	eax
	mov	ecx, DWORD PTR _this$[ebp]
	call	?GetBranchBuildingHappiness@CvPolicyAI@@QAEHPAVCvPlayer@@W4PolicyBranchTypes@@@Z ; CvPolicyAI::GetBranchBuildingHappiness
	mov	DWORD PTR _iHappinessDelta$[ebp], eax

; 535  : 	iHappinessPoliciesInBranch = GetNumHappinessPolicies(pPlayer, eFreedomBranch);

	mov	ecx, DWORD PTR _eFreedomBranch$[ebp]
	push	ecx
	mov	edx, DWORD PTR _pPlayer$[ebp]
	push	edx
	mov	ecx, DWORD PTR _this$[ebp]
	call	?GetNumHappinessPolicies@CvPolicyAI@@QAEHPAVCvPlayer@@W4PolicyBranchTypes@@@Z ; CvPolicyAI::GetNumHappinessPolicies
	mov	DWORD PTR _iHappinessPoliciesInBranch$[ebp], eax

; 536  : 	if (iHappinessPoliciesInBranch > 0)

	cmp	DWORD PTR _iHappinessPoliciesInBranch$[ebp], 0
	jle	SHORT $LN7@DoChooseId

; 537  : 	{
; 538  : 		iFreedomPriority += iHappinessDelta * iHappinessModifier / iHappinessPoliciesInBranch;		

	mov	eax, DWORD PTR _iHappinessDelta$[ebp]
	imul	eax, DWORD PTR _iHappinessModifier$[ebp]
	cdq
	idiv	DWORD PTR _iHappinessPoliciesInBranch$[ebp]
	add	eax, DWORD PTR _iFreedomPriority$[ebp]
	mov	DWORD PTR _iFreedomPriority$[ebp], eax
$LN7@DoChooseId:

; 539  : 	}
; 540  : 	iHappinessDelta = GetBranchBuildingHappiness(pPlayer, eAutocracyBranch);

	mov	eax, DWORD PTR _eAutocracyBranch$[ebp]
	push	eax
	mov	ecx, DWORD PTR _pPlayer$[ebp]
	push	ecx
	mov	ecx, DWORD PTR _this$[ebp]
	call	?GetBranchBuildingHappiness@CvPolicyAI@@QAEHPAVCvPlayer@@W4PolicyBranchTypes@@@Z ; CvPolicyAI::GetBranchBuildingHappiness
	mov	DWORD PTR _iHappinessDelta$[ebp], eax

; 541  : 	iHappinessPoliciesInBranch = GetNumHappinessPolicies(pPlayer, eAutocracyBranch);

	mov	edx, DWORD PTR _eAutocracyBranch$[ebp]
	push	edx
	mov	eax, DWORD PTR _pPlayer$[ebp]
	push	eax
	mov	ecx, DWORD PTR _this$[ebp]
	call	?GetNumHappinessPolicies@CvPolicyAI@@QAEHPAVCvPlayer@@W4PolicyBranchTypes@@@Z ; CvPolicyAI::GetNumHappinessPolicies
	mov	DWORD PTR _iHappinessPoliciesInBranch$[ebp], eax

; 542  : 	if (iHappinessPoliciesInBranch > 0)

	cmp	DWORD PTR _iHappinessPoliciesInBranch$[ebp], 0
	jle	SHORT $LN6@DoChooseId

; 543  : 	{
; 544  : 		iAutocracyPriority += iHappinessDelta * iHappinessModifier / iHappinessPoliciesInBranch;		

	mov	eax, DWORD PTR _iHappinessDelta$[ebp]
	imul	eax, DWORD PTR _iHappinessModifier$[ebp]
	cdq
	idiv	DWORD PTR _iHappinessPoliciesInBranch$[ebp]
	add	eax, DWORD PTR _iAutocracyPriority$[ebp]
	mov	DWORD PTR _iAutocracyPriority$[ebp], eax
$LN6@DoChooseId:

; 545  : 	}
; 546  : 	iHappinessDelta = GetBranchBuildingHappiness(pPlayer, eOrderBranch);

	mov	ecx, DWORD PTR _eOrderBranch$[ebp]
	push	ecx
	mov	edx, DWORD PTR _pPlayer$[ebp]
	push	edx
	mov	ecx, DWORD PTR _this$[ebp]
	call	?GetBranchBuildingHappiness@CvPolicyAI@@QAEHPAVCvPlayer@@W4PolicyBranchTypes@@@Z ; CvPolicyAI::GetBranchBuildingHappiness
	mov	DWORD PTR _iHappinessDelta$[ebp], eax

; 547  : 	iHappinessPoliciesInBranch = GetNumHappinessPolicies(pPlayer, eOrderBranch);

	mov	eax, DWORD PTR _eOrderBranch$[ebp]
	push	eax
	mov	ecx, DWORD PTR _pPlayer$[ebp]
	push	ecx
	mov	ecx, DWORD PTR _this$[ebp]
	call	?GetNumHappinessPolicies@CvPolicyAI@@QAEHPAVCvPlayer@@W4PolicyBranchTypes@@@Z ; CvPolicyAI::GetNumHappinessPolicies
	mov	DWORD PTR _iHappinessPoliciesInBranch$[ebp], eax

; 548  : 	if (iHappinessPoliciesInBranch > 0)

	cmp	DWORD PTR _iHappinessPoliciesInBranch$[ebp], 0
	jle	SHORT $LN5@DoChooseId

; 549  : 	{
; 550  : 		iOrderPriority += iHappinessDelta * iHappinessModifier / iHappinessPoliciesInBranch;		

	mov	eax, DWORD PTR _iHappinessDelta$[ebp]
	imul	eax, DWORD PTR _iHappinessModifier$[ebp]
	cdq
	idiv	DWORD PTR _iHappinessPoliciesInBranch$[ebp]
	add	eax, DWORD PTR _iOrderPriority$[ebp]
	mov	DWORD PTR _iOrderPriority$[ebp], eax
$LN5@DoChooseId:

; 551  : 	}
; 552  : 
; 553  : 	stage = "After Tenet Happiness Boosts";

	mov	edx, OFFSET ??_C@_0BN@MLNAJKNC@After?5Tenet?5Happiness?5Boosts?$AA@
	test	edx, edx
	je	SHORT $LN140@DoChooseId
	push	OFFSET ??_C@_0BN@MLNAJKNC@After?5Tenet?5Happiness?5Boosts?$AA@
	lea	ecx, DWORD PTR _stage$[ebp]
	call	DWORD PTR __imp_?assign@?$basic_string@DU?$char_traits@D@std@@V?$allocator@D@2@@std@@QAEAAV12@PBD@Z
	jmp	SHORT $LN141@DoChooseId
$LN140@DoChooseId:
	lea	ecx, DWORD PTR _stage$[ebp]
	call	DWORD PTR __imp_?clear@?$basic_string@DU?$char_traits@D@std@@V?$allocator@D@2@@std@@QAEXXZ
$LN141@DoChooseId:

; 554  : 	LogIdeologyChoice(stage, iFreedomPriority, iAutocracyPriority, iOrderPriority);

	mov	eax, DWORD PTR _iOrderPriority$[ebp]
	push	eax
	mov	ecx, DWORD PTR _iAutocracyPriority$[ebp]
	push	ecx
	mov	edx, DWORD PTR _iFreedomPriority$[ebp]
	push	edx
	lea	eax, DWORD PTR _stage$[ebp]
	push	eax
	mov	ecx, DWORD PTR _this$[ebp]
	call	?LogIdeologyChoice@CvPolicyAI@@AAEXAAVCvString@@HHH@Z ; CvPolicyAI::LogIdeologyChoice

; 555  : 
; 556  : 	// -- Happiness we'd lose through Public Opinion
; 557  : 	iHappinessDelta = max (0, 100 - pPlayer->GetCulture()->ComputeHypotheticalPublicOpinionUnhappiness(eFreedomBranch));

	mov	ecx, DWORD PTR _eFreedomBranch$[ebp]
	push	ecx
	mov	ecx, DWORD PTR _pPlayer$[ebp]
	call	?GetCulture@CvPlayer@@QBEPAVCvPlayerCulture@@XZ ; CvPlayer::GetCulture
	mov	ecx, eax
	call	?ComputeHypotheticalPublicOpinionUnhappiness@CvPlayerCulture@@QAEHW4PolicyBranchTypes@@@Z ; CvPlayerCulture::ComputeHypotheticalPublicOpinionUnhappiness
	mov	edx, 100				; 00000064H
	sub	edx, eax
	mov	DWORD PTR $T223975[ebp], edx
	mov	DWORD PTR $T223976[ebp], 0
	mov	eax, DWORD PTR $T223976[ebp]
	cmp	eax, DWORD PTR $T223975[ebp]
	jge	SHORT $LN145@DoChooseId
	lea	ecx, DWORD PTR $T223975[ebp]
	mov	DWORD PTR tv397[ebp], ecx
	jmp	SHORT $LN146@DoChooseId
$LN145@DoChooseId:
	lea	edx, DWORD PTR $T223976[ebp]
	mov	DWORD PTR tv397[ebp], edx
$LN146@DoChooseId:
	mov	eax, DWORD PTR tv397[ebp]
	mov	DWORD PTR $T224160[ebp], eax
	mov	ecx, DWORD PTR $T224160[ebp]
	mov	edx, DWORD PTR [ecx]
	mov	DWORD PTR _iHappinessDelta$[ebp], edx

; 558  : 	iFreedomPriority += iHappinessDelta * iHappinessModifier;

	mov	eax, DWORD PTR _iHappinessDelta$[ebp]
	imul	eax, DWORD PTR _iHappinessModifier$[ebp]
	add	eax, DWORD PTR _iFreedomPriority$[ebp]
	mov	DWORD PTR _iFreedomPriority$[ebp], eax

; 559  : 	iHappinessDelta = max (0, 100 - pPlayer->GetCulture()->ComputeHypotheticalPublicOpinionUnhappiness(eAutocracyBranch));

	mov	ecx, DWORD PTR _eAutocracyBranch$[ebp]
	push	ecx
	mov	ecx, DWORD PTR _pPlayer$[ebp]
	call	?GetCulture@CvPlayer@@QBEPAVCvPlayerCulture@@XZ ; CvPlayer::GetCulture
	mov	ecx, eax
	call	?ComputeHypotheticalPublicOpinionUnhappiness@CvPlayerCulture@@QAEHW4PolicyBranchTypes@@@Z ; CvPlayerCulture::ComputeHypotheticalPublicOpinionUnhappiness
	mov	edx, 100				; 00000064H
	sub	edx, eax
	mov	DWORD PTR $T223977[ebp], edx
	mov	DWORD PTR $T223978[ebp], 0
	mov	eax, DWORD PTR $T223978[ebp]
	cmp	eax, DWORD PTR $T223977[ebp]
	jge	SHORT $LN149@DoChooseId
	lea	ecx, DWORD PTR $T223977[ebp]
	mov	DWORD PTR tv412[ebp], ecx
	jmp	SHORT $LN150@DoChooseId
$LN149@DoChooseId:
	lea	edx, DWORD PTR $T223978[ebp]
	mov	DWORD PTR tv412[ebp], edx
$LN150@DoChooseId:
	mov	eax, DWORD PTR tv412[ebp]
	mov	DWORD PTR $T224169[ebp], eax
	mov	ecx, DWORD PTR $T224169[ebp]
	mov	edx, DWORD PTR [ecx]
	mov	DWORD PTR _iHappinessDelta$[ebp], edx

; 560  : 	iAutocracyPriority += iHappinessDelta * iHappinessModifier;

	mov	eax, DWORD PTR _iHappinessDelta$[ebp]
	imul	eax, DWORD PTR _iHappinessModifier$[ebp]
	add	eax, DWORD PTR _iAutocracyPriority$[ebp]
	mov	DWORD PTR _iAutocracyPriority$[ebp], eax

; 561  : 	iHappinessDelta = max (0, 100 - pPlayer->GetCulture()->ComputeHypotheticalPublicOpinionUnhappiness(eOrderBranch));

	mov	ecx, DWORD PTR _eOrderBranch$[ebp]
	push	ecx
	mov	ecx, DWORD PTR _pPlayer$[ebp]
	call	?GetCulture@CvPlayer@@QBEPAVCvPlayerCulture@@XZ ; CvPlayer::GetCulture
	mov	ecx, eax
	call	?ComputeHypotheticalPublicOpinionUnhappiness@CvPlayerCulture@@QAEHW4PolicyBranchTypes@@@Z ; CvPlayerCulture::ComputeHypotheticalPublicOpinionUnhappiness
	mov	edx, 100				; 00000064H
	sub	edx, eax
	mov	DWORD PTR $T223979[ebp], edx
	mov	DWORD PTR $T223980[ebp], 0
	mov	eax, DWORD PTR $T223980[ebp]
	cmp	eax, DWORD PTR $T223979[ebp]
	jge	SHORT $LN153@DoChooseId
	lea	ecx, DWORD PTR $T223979[ebp]
	mov	DWORD PTR tv423[ebp], ecx
	jmp	SHORT $LN154@DoChooseId
$LN153@DoChooseId:
	lea	edx, DWORD PTR $T223980[ebp]
	mov	DWORD PTR tv423[ebp], edx
$LN154@DoChooseId:
	mov	eax, DWORD PTR tv423[ebp]
	mov	DWORD PTR $T224178[ebp], eax
	mov	ecx, DWORD PTR $T224178[ebp]
	mov	edx, DWORD PTR [ecx]
	mov	DWORD PTR _iHappinessDelta$[ebp], edx

; 562  : 	iOrderPriority += iHappinessDelta * iHappinessModifier;

	mov	eax, DWORD PTR _iHappinessDelta$[ebp]
	imul	eax, DWORD PTR _iHappinessModifier$[ebp]
	add	eax, DWORD PTR _iOrderPriority$[ebp]
	mov	DWORD PTR _iOrderPriority$[ebp], eax

; 563  : 
; 564  : 	stage = "After Public Opinion Happiness";

	mov	ecx, OFFSET ??_C@_0BP@LIABBEKP@After?5Public?5Opinion?5Happiness?$AA@
	test	ecx, ecx
	je	SHORT $LN156@DoChooseId
	push	OFFSET ??_C@_0BP@LIABBEKP@After?5Public?5Opinion?5Happiness?$AA@
	lea	ecx, DWORD PTR _stage$[ebp]
	call	DWORD PTR __imp_?assign@?$basic_string@DU?$char_traits@D@std@@V?$allocator@D@2@@std@@QAEAAV12@PBD@Z
	jmp	SHORT $LN157@DoChooseId
$LN156@DoChooseId:
	lea	ecx, DWORD PTR _stage$[ebp]
	call	DWORD PTR __imp_?clear@?$basic_string@DU?$char_traits@D@std@@V?$allocator@D@2@@std@@QAEXXZ
$LN157@DoChooseId:

; 565  : 	LogIdeologyChoice(stage, iFreedomPriority, iAutocracyPriority, iOrderPriority);

	mov	edx, DWORD PTR _iOrderPriority$[ebp]
	push	edx
	mov	eax, DWORD PTR _iAutocracyPriority$[ebp]
	push	eax
	mov	ecx, DWORD PTR _iFreedomPriority$[ebp]
	push	ecx
	lea	edx, DWORD PTR _stage$[ebp]
	push	edx
	mov	ecx, DWORD PTR _this$[ebp]
	call	?LogIdeologyChoice@CvPolicyAI@@AAEXAAVCvString@@HHH@Z ; CvPolicyAI::LogIdeologyChoice

; 566  : 
; 567  : 	// Small random add-on
; 568  : 	iFreedomPriority += GC.getGame().getJonRandNum(10, "Freedom random priority bump");

	mov	eax, DWORD PTR ?gGlobals@@3VCvGlobals@@A+48
	mov	DWORD PTR $T224190[ebp], eax
	push	OFFSET ??_C@_0BN@ECFBKOLO@Freedom?5random?5priority?5bump?$AA@
	push	10					; 0000000aH
	mov	ecx, DWORD PTR $T224190[ebp]
	call	?getJonRandNum@CvGame@@QAEHHPBD@Z	; CvGame::getJonRandNum
	add	eax, DWORD PTR _iFreedomPriority$[ebp]
	mov	DWORD PTR _iFreedomPriority$[ebp], eax

; 569  : 	iAutocracyPriority += GC.getGame().getJonRandNum(10, "Autocracy random priority bump");

	mov	ecx, DWORD PTR ?gGlobals@@3VCvGlobals@@A+48
	mov	DWORD PTR $T224194[ebp], ecx
	push	OFFSET ??_C@_0BP@MIILPLFJ@Autocracy?5random?5priority?5bump?$AA@
	push	10					; 0000000aH
	mov	ecx, DWORD PTR $T224194[ebp]
	call	?getJonRandNum@CvGame@@QAEHHPBD@Z	; CvGame::getJonRandNum
	add	eax, DWORD PTR _iAutocracyPriority$[ebp]
	mov	DWORD PTR _iAutocracyPriority$[ebp], eax

; 570  : 	iOrderPriority += GC.getGame().getJonRandNum(10, "Order random priority bump");

	mov	edx, DWORD PTR ?gGlobals@@3VCvGlobals@@A+48
	mov	DWORD PTR $T224198[ebp], edx
	push	OFFSET ??_C@_0BL@FKPNCDOG@Order?5random?5priority?5bump?$AA@
	push	10					; 0000000aH
	mov	ecx, DWORD PTR $T224198[ebp]
	call	?getJonRandNum@CvGame@@QAEHHPBD@Z	; CvGame::getJonRandNum
	add	eax, DWORD PTR _iOrderPriority$[ebp]
	mov	DWORD PTR _iOrderPriority$[ebp], eax

; 571  : 
; 572  : 	stage = "After Random (1 to 10)";

	mov	eax, OFFSET ??_C@_0BH@PCNEDEBJ@After?5Random?5?$CI1?5to?510?$CJ?$AA@
	test	eax, eax
	je	SHORT $LN166@DoChooseId
	push	OFFSET ??_C@_0BH@PCNEDEBJ@After?5Random?5?$CI1?5to?510?$CJ?$AA@
	lea	ecx, DWORD PTR _stage$[ebp]
	call	DWORD PTR __imp_?assign@?$basic_string@DU?$char_traits@D@std@@V?$allocator@D@2@@std@@QAEAAV12@PBD@Z
	jmp	SHORT $LN167@DoChooseId
$LN166@DoChooseId:
	lea	ecx, DWORD PTR _stage$[ebp]
	call	DWORD PTR __imp_?clear@?$basic_string@DU?$char_traits@D@std@@V?$allocator@D@2@@std@@QAEXXZ
$LN167@DoChooseId:

; 573  : 	LogIdeologyChoice(stage, iFreedomPriority, iAutocracyPriority, iOrderPriority);

	mov	ecx, DWORD PTR _iOrderPriority$[ebp]
	push	ecx
	mov	edx, DWORD PTR _iAutocracyPriority$[ebp]
	push	edx
	mov	eax, DWORD PTR _iFreedomPriority$[ebp]
	push	eax
	lea	ecx, DWORD PTR _stage$[ebp]
	push	ecx
	mov	ecx, DWORD PTR _this$[ebp]
	call	?LogIdeologyChoice@CvPolicyAI@@AAEXAAVCvString@@HHH@Z ; CvPolicyAI::LogIdeologyChoice

; 574  : 
; 575  : 	// Rule out any branches that are totally out of consideration
; 576  : 	iFreedomPriority = iFreedomPriority * iFreedomMultiplier;

	mov	edx, DWORD PTR _iFreedomPriority$[ebp]
	imul	edx, DWORD PTR _iFreedomMultiplier$[ebp]
	mov	DWORD PTR _iFreedomPriority$[ebp], edx

; 577  : 	iAutocracyPriority = iAutocracyPriority * iAutocracyMultiplier;

	mov	eax, DWORD PTR _iAutocracyPriority$[ebp]
	imul	eax, DWORD PTR _iAutocracyMultiplier$[ebp]
	mov	DWORD PTR _iAutocracyPriority$[ebp], eax

; 578  : 	iOrderPriority = iOrderPriority * iOrderMultiplier;

	mov	ecx, DWORD PTR _iOrderPriority$[ebp]
	imul	ecx, DWORD PTR _iOrderMultiplier$[ebp]
	mov	DWORD PTR _iOrderPriority$[ebp], ecx

; 579  : 
; 580  : 	stage = "Final (after Clear Victory Preference)";

	mov	edx, OFFSET ??_C@_0CH@HBOAPKPC@Final?5?$CIafter?5Clear?5Victory?5Prefe@
	test	edx, edx
	je	SHORT $LN170@DoChooseId
	push	OFFSET ??_C@_0CH@HBOAPKPC@Final?5?$CIafter?5Clear?5Victory?5Prefe@
	lea	ecx, DWORD PTR _stage$[ebp]
	call	DWORD PTR __imp_?assign@?$basic_string@DU?$char_traits@D@std@@V?$allocator@D@2@@std@@QAEAAV12@PBD@Z
	jmp	SHORT $LN171@DoChooseId
$LN170@DoChooseId:
	lea	ecx, DWORD PTR _stage$[ebp]
	call	DWORD PTR __imp_?clear@?$basic_string@DU?$char_traits@D@std@@V?$allocator@D@2@@std@@QAEXXZ
$LN171@DoChooseId:

; 581  : 	LogIdeologyChoice(stage, iFreedomPriority, iAutocracyPriority, iOrderPriority);

	mov	eax, DWORD PTR _iOrderPriority$[ebp]
	push	eax
	mov	ecx, DWORD PTR _iAutocracyPriority$[ebp]
	push	ecx
	mov	edx, DWORD PTR _iFreedomPriority$[ebp]
	push	edx
	lea	eax, DWORD PTR _stage$[ebp]
	push	eax
	mov	ecx, DWORD PTR _this$[ebp]
	call	?LogIdeologyChoice@CvPolicyAI@@AAEXAAVCvString@@HHH@Z ; CvPolicyAI::LogIdeologyChoice

; 582  : 
; 583  : 	// Pick the ideology
; 584  : 	PolicyBranchTypes eChosenBranch;
; 585  : 	if (iFreedomPriority >= iAutocracyPriority && iFreedomPriority >= iOrderPriority)

	mov	ecx, DWORD PTR _iFreedomPriority$[ebp]
	cmp	ecx, DWORD PTR _iAutocracyPriority$[ebp]
	jl	SHORT $LN4@DoChooseId
	mov	edx, DWORD PTR _iFreedomPriority$[ebp]
	cmp	edx, DWORD PTR _iOrderPriority$[ebp]
	jl	SHORT $LN4@DoChooseId

; 586  : 	{
; 587  : 		eChosenBranch = eFreedomBranch;

	mov	eax, DWORD PTR _eFreedomBranch$[ebp]
	mov	DWORD PTR _eChosenBranch$[ebp], eax
	jmp	SHORT $LN3@DoChooseId
$LN4@DoChooseId:

; 588  : 	}
; 589  : 	else if (iAutocracyPriority >= iFreedomPriority && iAutocracyPriority >= iOrderPriority)

	mov	ecx, DWORD PTR _iAutocracyPriority$[ebp]
	cmp	ecx, DWORD PTR _iFreedomPriority$[ebp]
	jl	SHORT $LN2@DoChooseId
	mov	edx, DWORD PTR _iAutocracyPriority$[ebp]
	cmp	edx, DWORD PTR _iOrderPriority$[ebp]
	jl	SHORT $LN2@DoChooseId

; 590  : 	{
; 591  : 		eChosenBranch = eAutocracyBranch;

	mov	eax, DWORD PTR _eAutocracyBranch$[ebp]
	mov	DWORD PTR _eChosenBranch$[ebp], eax

; 592  : 	}
; 593  : 	else

	jmp	SHORT $LN3@DoChooseId
$LN2@DoChooseId:

; 594  : 	{
; 595  : 		eChosenBranch = eOrderBranch;

	mov	ecx, DWORD PTR _eOrderBranch$[ebp]
	mov	DWORD PTR _eChosenBranch$[ebp], ecx
$LN3@DoChooseId:

; 596  : 	}
; 597  : 	pPlayer->GetPlayerPolicies()->SetPolicyBranchUnlocked(eChosenBranch, true, false);

	push	0
	push	1
	mov	edx, DWORD PTR _eChosenBranch$[ebp]
	push	edx
	mov	ecx, DWORD PTR _pPlayer$[ebp]
	call	?GetPlayerPolicies@CvPlayer@@QBEPAVCvPlayerPolicies@@XZ ; CvPlayer::GetPlayerPolicies
	mov	ecx, eax
	call	?SetPolicyBranchUnlocked@CvPlayerPolicies@@QAEXW4PolicyBranchTypes@@_N1@Z ; CvPlayerPolicies::SetPolicyBranchUnlocked

; 598  : 	LogBranchChoice(eChosenBranch);

	mov	eax, DWORD PTR _eChosenBranch$[ebp]
	push	eax
	mov	ecx, DWORD PTR _this$[ebp]
	call	?LogBranchChoice@CvPolicyAI@@AAEXW4PolicyBranchTypes@@@Z ; CvPolicyAI::LogBranchChoice

; 599  : }

	mov	DWORD PTR __$EHRec$[ebp+8], -1
	lea	ecx, DWORD PTR _stage$[ebp]
	call	DWORD PTR __imp_??1?$basic_string@DU?$char_traits@D@std@@V?$allocator@D@2@@std@@QAE@XZ
$LN47@DoChooseId:
	mov	ecx, DWORD PTR __$EHRec$[ebp]
	mov	DWORD PTR fs:0, ecx
	pop	ecx
	mov	ecx, DWORD PTR __$ArrayPad$[ebp]
	xor	ecx, ebp
	call	@__security_check_cookie@4
	mov	esp, ebp
	pop	ebp
	ret	4
$LN177@DoChooseId:
	DD	$LN32@DoChooseId
	DD	$LN35@DoChooseId
	DD	$LN26@DoChooseId
	DD	$LN20@DoChooseId
	DD	$LN14@DoChooseId
_TEXT	ENDS
;	COMDAT text$x
text$x	SEGMENT
__unwindfunclet$?DoChooseIdeology@CvPolicyAI@@QAEXPAVCvPlayer@@@Z$0:
	lea	ecx, DWORD PTR _stage$[ebp]
	jmp	??1CvString@@QAE@XZ			; CvString::~CvString
__ehhandler$?DoChooseIdeology@CvPolicyAI@@QAEXPAVCvPlayer@@@Z:
	mov	edx, DWORD PTR [esp+8]
	lea	eax, DWORD PTR [edx+12]
	mov	ecx, DWORD PTR [edx-368]
	xor	ecx, eax
	call	@__security_check_cookie@4
	mov	ecx, DWORD PTR [edx-72]
	xor	ecx, eax
	call	@__security_check_cookie@4
	mov	eax, OFFSET __ehfuncinfo$?DoChooseIdeology@CvPolicyAI@@QAEXPAVCvPlayer@@@Z
	jmp	___CxxFrameHandler3
text$x	ENDS
?DoChooseIdeology@CvPolicyAI@@QAEXPAVCvPlayer@@@Z ENDP	; CvPolicyAI::DoChooseIdeology
PUBLIC	?DoConsiderIdeologySwitch@CvPolicyAI@@QAEXPAVCvPlayer@@@Z ; CvPolicyAI::DoConsiderIdeologySwitch
EXTRN	?getActivePlayer@CvGame@@QBE?AW4PlayerTypes@@XZ:PROC ; CvGame::getActivePlayer
EXTRN	?DoSwitchIdeologies@CvPlayerPolicies@@QAEXW4PolicyBranchTypes@@@Z:PROC ; CvPlayerPolicies::DoSwitchIdeologies
EXTRN	?SetAnarchyNumTurns@CvPlayer@@QAEXH@Z:PROC	; CvPlayer::SetAnarchyNumTurns
EXTRN	?GetPublicOpinionBiggestInfluence@CvPlayerCulture@@QBE?AW4PlayerTypes@@XZ:PROC ; CvPlayerCulture::GetPublicOpinionBiggestInfluence
EXTRN	?GetPublicOpinionPreferredIdeology@CvPlayerCulture@@QBE?AW4PolicyBranchTypes@@XZ:PROC ; CvPlayerCulture::GetPublicOpinionPreferredIdeology
EXTRN	?GetPublicOpinionUnhappiness@CvPlayerCulture@@QBEHXZ:PROC ; CvPlayerCulture::GetPublicOpinionUnhappiness
EXTRN	?GetExcessHappiness@CvPlayer@@QBEHXZ:PROC	; CvPlayer::GetExcessHappiness
; Function compile flags: /Odtp
;	COMDAT ?DoConsiderIdeologySwitch@CvPolicyAI@@QAEXPAVCvPlayer@@@Z
_TEXT	SEGMENT
tv232 = -112						; size = 4
_this$ = -108						; size = 4
$T224273 = -104						; size = 4
$T224269 = -100						; size = 4
$T224265 = -96						; size = 4
$T224256 = -92						; size = 4
$T224252 = -88						; size = 4
$T224248 = -84						; size = 4
$T224244 = -80						; size = 4
$T224240 = -76						; size = 4
$T224236 = -72						; size = 4
$T224232 = -68						; size = 4
$T224225 = -64						; size = 4
_bDontSwitchOrder$221738 = -57				; size = 1
_iTechPriority$221742 = -56				; size = 4
_iClearPrefPercent$221744 = -52				; size = 4
_iDiploPriority$221741 = -48				; size = 4
_iHappinessCurrentIdeology$221735 = -44			; size = 4
_bDontSwitchFreedom$221737 = -38			; size = 1
_bDontSwitchAutocracy$221739 = -37			; size = 1
_iTotalHappinessImprovement$221750 = -36		; size = 4
_iConquestPriority$221740 = -32				; size = 4
_iHappinessPreferredIdeology$221736 = -28		; size = 4
_iCulturePriority$221743 = -24				; size = 4
_ePreferredIdeology$ = -20				; size = 4
_eCurrentIdeology$ = -16				; size = 4
_iCurrentHappiness$ = -12				; size = 4
_eMostPressure$ = -8					; size = 4
_iPublicOpinionUnhappiness$ = -4			; size = 4
_pPlayer$ = 8						; size = 4
?DoConsiderIdeologySwitch@CvPolicyAI@@QAEXPAVCvPlayer@@@Z PROC ; CvPolicyAI::DoConsiderIdeologySwitch, COMDAT
; _this$ = ecx

; 603  : {

	push	ebp
	mov	ebp, esp
	sub	esp, 112				; 00000070H
	mov	DWORD PTR _this$[ebp], ecx

; 604  : 	// Gather basic Ideology info
; 605  : 	int iCurrentHappiness = pPlayer->GetExcessHappiness();

	mov	ecx, DWORD PTR _pPlayer$[ebp]
	call	?GetExcessHappiness@CvPlayer@@QBEHXZ	; CvPlayer::GetExcessHappiness
	mov	DWORD PTR _iCurrentHappiness$[ebp], eax

; 606  : 	int iPublicOpinionUnhappiness = pPlayer->GetCulture()->GetPublicOpinionUnhappiness();

	mov	ecx, DWORD PTR _pPlayer$[ebp]
	call	?GetCulture@CvPlayer@@QBEPAVCvPlayerCulture@@XZ ; CvPlayer::GetCulture
	mov	ecx, eax
	call	?GetPublicOpinionUnhappiness@CvPlayerCulture@@QBEHXZ ; CvPlayerCulture::GetPublicOpinionUnhappiness
	mov	DWORD PTR _iPublicOpinionUnhappiness$[ebp], eax

; 607  : 	PolicyBranchTypes ePreferredIdeology = pPlayer->GetCulture()->GetPublicOpinionPreferredIdeology();

	mov	ecx, DWORD PTR _pPlayer$[ebp]
	call	?GetCulture@CvPlayer@@QBEPAVCvPlayerCulture@@XZ ; CvPlayer::GetCulture
	mov	ecx, eax
	call	?GetPublicOpinionPreferredIdeology@CvPlayerCulture@@QBE?AW4PolicyBranchTypes@@XZ ; CvPlayerCulture::GetPublicOpinionPreferredIdeology
	mov	DWORD PTR _ePreferredIdeology$[ebp], eax

; 608  : 	PolicyBranchTypes eCurrentIdeology = pPlayer->GetPlayerPolicies()->GetLateGamePolicyTree();

	mov	ecx, DWORD PTR _pPlayer$[ebp]
	call	?GetPlayerPolicies@CvPlayer@@QBEPAVCvPlayerPolicies@@XZ ; CvPlayer::GetPlayerPolicies
	mov	ecx, eax
	call	?GetLateGamePolicyTree@CvPlayerPolicies@@QBE?AW4PolicyBranchTypes@@XZ ; CvPlayerPolicies::GetLateGamePolicyTree
	mov	DWORD PTR _eCurrentIdeology$[ebp], eax

; 609  : 	PlayerTypes eMostPressure = pPlayer->GetCulture()->GetPublicOpinionBiggestInfluence();

	mov	ecx, DWORD PTR _pPlayer$[ebp]
	call	?GetCulture@CvPlayer@@QBEPAVCvPlayerCulture@@XZ ; CvPlayer::GetCulture
	mov	ecx, eax
	call	?GetPublicOpinionBiggestInfluence@CvPlayerCulture@@QBE?AW4PlayerTypes@@XZ ; CvPlayerCulture::GetPublicOpinionBiggestInfluence
	mov	DWORD PTR _eMostPressure$[ebp], eax

; 610  : 	
; 611  : 	// Possible enough that we need to look at this in detail?
; 612  : 	if (iCurrentHappiness <= GC.getSUPER_UNHAPPY_THRESHOLD() && iPublicOpinionUnhappiness >= 10)

	mov	eax, DWORD PTR ?gGlobals@@3VCvGlobals@@A+6376
	mov	DWORD PTR $T224225[ebp], eax
	mov	ecx, DWORD PTR _iCurrentHappiness$[ebp]
	cmp	ecx, DWORD PTR $T224225[ebp]
	jg	$LN13@DoConsider
	cmp	DWORD PTR _iPublicOpinionUnhappiness$[ebp], 10 ; 0000000aH
	jl	$LN13@DoConsider

; 613  : 	{
; 614  : 		// How much Happiness could we gain from a switch?
; 615  : 		int iHappinessCurrentIdeology = GetBranchBuildingHappiness(pPlayer, eCurrentIdeology);

	mov	edx, DWORD PTR _eCurrentIdeology$[ebp]
	push	edx
	mov	eax, DWORD PTR _pPlayer$[ebp]
	push	eax
	mov	ecx, DWORD PTR _this$[ebp]
	call	?GetBranchBuildingHappiness@CvPolicyAI@@QAEHPAVCvPlayer@@W4PolicyBranchTypes@@@Z ; CvPolicyAI::GetBranchBuildingHappiness
	mov	DWORD PTR _iHappinessCurrentIdeology$221735[ebp], eax

; 616  : 		int iHappinessPreferredIdeology = GetBranchBuildingHappiness(pPlayer, ePreferredIdeology);

	mov	ecx, DWORD PTR _ePreferredIdeology$[ebp]
	push	ecx
	mov	edx, DWORD PTR _pPlayer$[ebp]
	push	edx
	mov	ecx, DWORD PTR _this$[ebp]
	call	?GetBranchBuildingHappiness@CvPolicyAI@@QAEHPAVCvPlayer@@W4PolicyBranchTypes@@@Z ; CvPolicyAI::GetBranchBuildingHappiness
	mov	DWORD PTR _iHappinessPreferredIdeology$221736[ebp], eax

; 617  : 
; 618  : 		// Does the switch fight against our clearly preferred victory path?
; 619  : 		bool bDontSwitchFreedom = false;

	mov	BYTE PTR _bDontSwitchFreedom$221737[ebp], 0

; 620  : 		bool bDontSwitchOrder = false;

	mov	BYTE PTR _bDontSwitchOrder$221738[ebp], 0

; 621  : 		bool bDontSwitchAutocracy = false;

	mov	BYTE PTR _bDontSwitchAutocracy$221739[ebp], 0

; 622  : 		int iConquestPriority = pPlayer->GetGrandStrategyAI()->GetConquestPriority();

	mov	ecx, DWORD PTR _pPlayer$[ebp]
	call	?GetGrandStrategyAI@CvPlayer@@QBEPAVCvGrandStrategyAI@@XZ ; CvPlayer::GetGrandStrategyAI
	mov	ecx, eax
	call	?GetConquestPriority@CvGrandStrategyAI@@QAEHXZ ; CvGrandStrategyAI::GetConquestPriority
	mov	DWORD PTR _iConquestPriority$221740[ebp], eax

; 623  : 		int iDiploPriority = pPlayer->GetGrandStrategyAI()->GetUnitedNationsPriority();

	mov	ecx, DWORD PTR _pPlayer$[ebp]
	call	?GetGrandStrategyAI@CvPlayer@@QBEPAVCvGrandStrategyAI@@XZ ; CvPlayer::GetGrandStrategyAI
	mov	ecx, eax
	call	?GetUnitedNationsPriority@CvGrandStrategyAI@@QAEHXZ ; CvGrandStrategyAI::GetUnitedNationsPriority
	mov	DWORD PTR _iDiploPriority$221741[ebp], eax

; 624  : 		int iTechPriority = pPlayer->GetGrandStrategyAI()->GetSpaceshipPriority();

	mov	ecx, DWORD PTR _pPlayer$[ebp]
	call	?GetGrandStrategyAI@CvPlayer@@QBEPAVCvGrandStrategyAI@@XZ ; CvPlayer::GetGrandStrategyAI
	mov	ecx, eax
	call	?GetSpaceshipPriority@CvGrandStrategyAI@@QAEHXZ ; CvGrandStrategyAI::GetSpaceshipPriority
	mov	DWORD PTR _iTechPriority$221742[ebp], eax

; 625  : 		int iCulturePriority = pPlayer->GetGrandStrategyAI()->GetCulturePriority();

	mov	ecx, DWORD PTR _pPlayer$[ebp]
	call	?GetGrandStrategyAI@CvPlayer@@QBEPAVCvGrandStrategyAI@@XZ ; CvPlayer::GetGrandStrategyAI
	mov	ecx, eax
	call	?GetCulturePriority@CvGrandStrategyAI@@QAEHXZ ; CvGrandStrategyAI::GetCulturePriority
	mov	DWORD PTR _iCulturePriority$221743[ebp], eax

; 626  : 		int iClearPrefPercent = GC.getIDEOLOGY_PERCENT_CLEAR_VICTORY_PREF();

	mov	eax, DWORD PTR ?gGlobals@@3VCvGlobals@@A+8344
	mov	DWORD PTR _iClearPrefPercent$221744[ebp], eax

; 627  : 		if (iConquestPriority > (iDiploPriority   * (100 + iClearPrefPercent) / 100) &&
; 628  : 			iConquestPriority > (iTechPriority    * (100 + iClearPrefPercent) / 100) &&
; 629  : 			iConquestPriority > (iCulturePriority * (100 + iClearPrefPercent) / 100))

	mov	ecx, DWORD PTR _iClearPrefPercent$221744[ebp]
	add	ecx, 100				; 00000064H
	mov	eax, ecx
	imul	eax, DWORD PTR _iDiploPriority$221741[ebp]
	cdq
	mov	ecx, 100				; 00000064H
	idiv	ecx
	cmp	DWORD PTR _iConquestPriority$221740[ebp], eax
	jle	SHORT $LN11@DoConsider
	mov	edx, DWORD PTR _iClearPrefPercent$221744[ebp]
	add	edx, 100				; 00000064H
	mov	eax, edx
	imul	eax, DWORD PTR _iTechPriority$221742[ebp]
	cdq
	mov	ecx, 100				; 00000064H
	idiv	ecx
	cmp	DWORD PTR _iConquestPriority$221740[ebp], eax
	jle	SHORT $LN11@DoConsider
	mov	edx, DWORD PTR _iClearPrefPercent$221744[ebp]
	add	edx, 100				; 00000064H
	mov	eax, edx
	imul	eax, DWORD PTR _iCulturePriority$221743[ebp]
	cdq
	mov	ecx, 100				; 00000064H
	idiv	ecx
	cmp	DWORD PTR _iConquestPriority$221740[ebp], eax
	jle	SHORT $LN11@DoConsider

; 630  : 		{
; 631  : 			bDontSwitchFreedom = true;

	mov	BYTE PTR _bDontSwitchFreedom$221737[ebp], 1

; 632  : 		}
; 633  : 		else if (iDiploPriority > (iConquestPriority * (100 + iClearPrefPercent) / 100) &&

	jmp	$LN10@DoConsider
$LN11@DoConsider:

; 634  : 			iDiploPriority > (iTechPriority     * (100 + iClearPrefPercent) / 100) &&
; 635  : 			iDiploPriority > (iCulturePriority  * (100 + iClearPrefPercent) / 100))

	mov	edx, DWORD PTR _iClearPrefPercent$221744[ebp]
	add	edx, 100				; 00000064H
	mov	eax, edx
	imul	eax, DWORD PTR _iConquestPriority$221740[ebp]
	cdq
	mov	ecx, 100				; 00000064H
	idiv	ecx
	cmp	DWORD PTR _iDiploPriority$221741[ebp], eax
	jle	SHORT $LN9@DoConsider
	mov	edx, DWORD PTR _iClearPrefPercent$221744[ebp]
	add	edx, 100				; 00000064H
	mov	eax, edx
	imul	eax, DWORD PTR _iTechPriority$221742[ebp]
	cdq
	mov	ecx, 100				; 00000064H
	idiv	ecx
	cmp	DWORD PTR _iDiploPriority$221741[ebp], eax
	jle	SHORT $LN9@DoConsider
	mov	edx, DWORD PTR _iClearPrefPercent$221744[ebp]
	add	edx, 100				; 00000064H
	mov	eax, edx
	imul	eax, DWORD PTR _iCulturePriority$221743[ebp]
	cdq
	mov	ecx, 100				; 00000064H
	idiv	ecx
	cmp	DWORD PTR _iDiploPriority$221741[ebp], eax
	jle	SHORT $LN9@DoConsider

; 636  : 		{
; 637  : 			bDontSwitchOrder = true;

	mov	BYTE PTR _bDontSwitchOrder$221738[ebp], 1

; 638  : 		}
; 639  : 		else if (iTechPriority > (iConquestPriority * (100 + iClearPrefPercent) / 100) &&

	jmp	SHORT $LN10@DoConsider
$LN9@DoConsider:

; 640  : 			iTechPriority > (iDiploPriority    * (100 + iClearPrefPercent) / 100) &&
; 641  : 			iTechPriority > (iCulturePriority  * (100 + iClearPrefPercent) / 100))

	mov	edx, DWORD PTR _iClearPrefPercent$221744[ebp]
	add	edx, 100				; 00000064H
	mov	eax, edx
	imul	eax, DWORD PTR _iConquestPriority$221740[ebp]
	cdq
	mov	ecx, 100				; 00000064H
	idiv	ecx
	cmp	DWORD PTR _iTechPriority$221742[ebp], eax
	jle	SHORT $LN10@DoConsider
	mov	edx, DWORD PTR _iClearPrefPercent$221744[ebp]
	add	edx, 100				; 00000064H
	mov	eax, edx
	imul	eax, DWORD PTR _iDiploPriority$221741[ebp]
	cdq
	mov	ecx, 100				; 00000064H
	idiv	ecx
	cmp	DWORD PTR _iTechPriority$221742[ebp], eax
	jle	SHORT $LN10@DoConsider
	mov	edx, DWORD PTR _iClearPrefPercent$221744[ebp]
	add	edx, 100				; 00000064H
	mov	eax, edx
	imul	eax, DWORD PTR _iCulturePriority$221743[ebp]
	cdq
	mov	ecx, 100				; 00000064H
	idiv	ecx
	cmp	DWORD PTR _iTechPriority$221742[ebp], eax
	jle	SHORT $LN10@DoConsider

; 642  : 		{
; 643  : 			bDontSwitchAutocracy = true;

	mov	BYTE PTR _bDontSwitchAutocracy$221739[ebp], 1
$LN10@DoConsider:

; 644  : 		}
; 645  : 
; 646  : 		int iTotalHappinessImprovement = iPublicOpinionUnhappiness + iHappinessPreferredIdeology - iHappinessCurrentIdeology;

	mov	edx, DWORD PTR _iPublicOpinionUnhappiness$[ebp]
	add	edx, DWORD PTR _iHappinessPreferredIdeology$221736[ebp]
	sub	edx, DWORD PTR _iHappinessCurrentIdeology$221735[ebp]
	mov	DWORD PTR _iTotalHappinessImprovement$221750[ebp], edx

; 647  : 		if (iTotalHappinessImprovement >= 10)

	cmp	DWORD PTR _iTotalHappinessImprovement$221750[ebp], 10 ; 0000000aH
	jl	$LN13@DoConsider

; 648  : 		{
; 649  : 			if (bDontSwitchFreedom && ePreferredIdeology == GC.getPOLICY_BRANCH_FREEDOM())

	movzx	eax, BYTE PTR _bDontSwitchFreedom$221737[ebp]
	test	eax, eax
	je	SHORT $LN5@DoConsider
	mov	ecx, DWORD PTR ?gGlobals@@3VCvGlobals@@A+8376
	mov	DWORD PTR $T224232[ebp], ecx
	mov	edx, DWORD PTR _ePreferredIdeology$[ebp]
	cmp	edx, DWORD PTR $T224232[ebp]
	jne	SHORT $LN5@DoConsider

; 650  : 			{
; 651  : 				return;

	jmp	$LN13@DoConsider
$LN5@DoConsider:

; 652  : 			}
; 653  : 			if (bDontSwitchAutocracy && ePreferredIdeology == GC.getPOLICY_BRANCH_AUTOCRACY())

	movzx	eax, BYTE PTR _bDontSwitchAutocracy$221739[ebp]
	test	eax, eax
	je	SHORT $LN4@DoConsider
	mov	ecx, DWORD PTR ?gGlobals@@3VCvGlobals@@A+8380
	mov	DWORD PTR $T224236[ebp], ecx
	mov	edx, DWORD PTR _ePreferredIdeology$[ebp]
	cmp	edx, DWORD PTR $T224236[ebp]
	jne	SHORT $LN4@DoConsider

; 654  : 			{
; 655  : 				return;

	jmp	$LN13@DoConsider
$LN4@DoConsider:

; 656  : 			}
; 657  : 			if (bDontSwitchOrder && ePreferredIdeology == GC.getPOLICY_BRANCH_ORDER())

	movzx	eax, BYTE PTR _bDontSwitchOrder$221738[ebp]
	test	eax, eax
	je	SHORT $LN3@DoConsider
	mov	ecx, DWORD PTR ?gGlobals@@3VCvGlobals@@A+8384
	mov	DWORD PTR $T224240[ebp], ecx
	mov	edx, DWORD PTR _ePreferredIdeology$[ebp]
	cmp	edx, DWORD PTR $T224240[ebp]
	jne	SHORT $LN3@DoConsider

; 658  : 			{
; 659  : 				return;

	jmp	$LN13@DoConsider
$LN3@DoConsider:

; 660  : 			}
; 661  : 
; 662  : 			// Cleared all obstacles -- REVOLUTION!
; 663  : 			pPlayer->SetAnarchyNumTurns(GC.getSWITCH_POLICY_BRANCHES_ANARCHY_TURNS());

	mov	eax, DWORD PTR ?gGlobals@@3VCvGlobals@@A+6976
	mov	DWORD PTR $T224244[ebp], eax
	mov	ecx, DWORD PTR $T224244[ebp]
	push	ecx
	mov	ecx, DWORD PTR _pPlayer$[ebp]
	call	?SetAnarchyNumTurns@CvPlayer@@QAEXH@Z	; CvPlayer::SetAnarchyNumTurns

; 664  : 			pPlayer->GetPlayerPolicies()->DoSwitchIdeologies(ePreferredIdeology);	

	mov	edx, DWORD PTR _ePreferredIdeology$[ebp]
	push	edx
	mov	ecx, DWORD PTR _pPlayer$[ebp]
	call	?GetPlayerPolicies@CvPlayer@@QBEPAVCvPlayerPolicies@@XZ ; CvPlayer::GetPlayerPolicies
	mov	ecx, eax
	call	?DoSwitchIdeologies@CvPlayerPolicies@@QAEXW4PolicyBranchTypes@@@Z ; CvPlayerPolicies::DoSwitchIdeologies

; 665  : 
; 666  : 			if (ePreferredIdeology == GC.getPOLICY_BRANCH_FREEDOM() && eCurrentIdeology == GC.getPOLICY_BRANCH_ORDER())

	mov	eax, DWORD PTR ?gGlobals@@3VCvGlobals@@A+8376
	mov	DWORD PTR $T224248[ebp], eax
	mov	ecx, DWORD PTR _ePreferredIdeology$[ebp]
	cmp	ecx, DWORD PTR $T224248[ebp]
	jne	SHORT $LN13@DoConsider
	mov	edx, DWORD PTR ?gGlobals@@3VCvGlobals@@A+8384
	mov	DWORD PTR $T224252[ebp], edx
	mov	eax, DWORD PTR _eCurrentIdeology$[ebp]
	cmp	eax, DWORD PTR $T224252[ebp]
	jne	SHORT $LN13@DoConsider

; 667  : 			{
; 668  : 				if (GET_PLAYER(eMostPressure).GetID() == GC.getGame().getActivePlayer())

	mov	ecx, DWORD PTR _eMostPressure$[ebp]
	imul	ecx, 63236				; 0000f704H
	add	ecx, DWORD PTR ?m_aPlayers@CvPlayerAI@@1PAV1@A ; CvPlayerAI::m_aPlayers
	mov	DWORD PTR $T224256[ebp], ecx
	mov	edx, DWORD PTR $T224256[ebp]
	mov	eax, DWORD PTR [edx+44]
	mov	DWORD PTR $T224265[ebp], eax
	mov	ecx, DWORD PTR ?gGlobals@@3VCvGlobals@@A+48
	mov	DWORD PTR $T224269[ebp], ecx
	mov	ecx, DWORD PTR $T224269[ebp]
	call	?getActivePlayer@CvGame@@QBE?AW4PlayerTypes@@XZ ; CvGame::getActivePlayer
	cmp	DWORD PTR $T224265[ebp], eax
	jne	SHORT $LN13@DoConsider

; 669  : 				{
; 670  : 					gDLL->UnlockAchievement(ACHIEVEMENT_XP2_39);

	mov	edx, DWORD PTR $T224273[ebp]
	mov	DWORD PTR tv232[ebp], edx
	mov	eax, DWORD PTR ?gGlobals@@3VCvGlobals@@A+8564
	mov	DWORD PTR tv232[ebp], eax
	push	281					; 00000119H
	mov	ecx, DWORD PTR tv232[ebp]
	mov	edx, DWORD PTR [ecx]
	mov	ecx, DWORD PTR tv232[ebp]
	mov	eax, DWORD PTR [edx+828]
	call	eax
$LN13@DoConsider:

; 671  : 				}
; 672  : 			}
; 673  : 		}
; 674  : 	}
; 675  : }

	mov	esp, ebp
	pop	ebp
	ret	4
?DoConsiderIdeologySwitch@CvPolicyAI@@QAEXPAVCvPlayer@@@Z ENDP ; CvPolicyAI::DoConsiderIdeologySwitch
_TEXT	ENDS
EXTRN	?GetNumBuilding@CvCityBuildings@@QBEHW4BuildingTypes@@@Z:PROC ; CvCityBuildings::GetNumBuilding
EXTRN	?GetCityBuildings@CvCity@@QBEPAVCvCityBuildings@@XZ:PROC ; CvCity::GetCityBuildings
EXTRN	?nextCity@CvPlayer@@QAEPAVCvCity@@PAH_N@Z:PROC	; CvPlayer::nextCity
EXTRN	?firstCity@CvPlayer@@QAEPAVCvCity@@PAH_N@Z:PROC	; CvPlayer::firstCity
EXTRN	?getCivilizationBuildings@CvCivilizationInfo@@QBEHH@Z:PROC ; CvCivilizationInfo::getCivilizationBuildings
EXTRN	?getCivilizationInfo@CvPlayer@@QBEAAVCvCivilizationInfo@@XZ:PROC ; CvPlayer::getCivilizationInfo
EXTRN	?GetBuildingClassHappiness@CvPolicyEntry@@QBEHH@Z:PROC ; CvPolicyEntry::GetBuildingClassHappiness
EXTRN	?getBuildingClassInfo@CvGlobals@@QAEPAVCvBuildingClassInfo@@W4BuildingClassTypes@@@Z:PROC ; CvGlobals::getBuildingClassInfo
EXTRN	?getNumBuildingClassInfos@CvGlobals@@QAEHXZ:PROC ; CvGlobals::getNumBuildingClassInfos
EXTRN	?getPolicyInfo@CvGlobals@@QAEPAVCvPolicyEntry@@W4PolicyTypes@@@Z:PROC ; CvGlobals::getPolicyInfo
EXTRN	?getNumPolicyInfos@CvGlobals@@QAEHXZ:PROC	; CvGlobals::getNumPolicyInfos
; Function compile flags: /Odtp
;	COMDAT ?GetBranchBuildingHappiness@CvPolicyAI@@QAEHPAVCvPlayer@@W4PolicyBranchTypes@@@Z
_TEXT	SEGMENT
_this$ = -44						; size = 4
_pCity$221784 = -40					; size = 4
_iLoop$221785 = -36					; size = 4
_eBuilding$221781 = -32					; size = 4
_pkBuildingClassInfo$221778 = -28			; size = 4
_pkPolicyInfo$221771 = -24				; size = 4
_ePolicy$221769 = -20					; size = 4
_iPolicyLoop$221765 = -16				; size = 4
_iSpecialPolicyBuildingHappiness$ = -12			; size = 4
_iBuildingClassLoop$ = -8				; size = 4
_eBuildingClass$ = -4					; size = 4
_pPlayer$ = 8						; size = 4
_eBranch$ = 12						; size = 4
?GetBranchBuildingHappiness@CvPolicyAI@@QAEHPAVCvPlayer@@W4PolicyBranchTypes@@@Z PROC ; CvPolicyAI::GetBranchBuildingHappiness, COMDAT
; _this$ = ecx

; 679  : {

	push	ebp
	mov	ebp, esp
	sub	esp, 44					; 0000002cH
	mov	DWORD PTR _this$[ebp], ecx

; 680  : 	// Policy Building Mods
; 681  : 	int iSpecialPolicyBuildingHappiness = 0;

	mov	DWORD PTR _iSpecialPolicyBuildingHappiness$[ebp], 0

; 682  : #ifdef AUI_WARNING_FIXES
; 683  : 	uint iBuildingClassLoop;
; 684  : #else
; 685  : 	int iBuildingClassLoop;
; 686  : #endif
; 687  : 	BuildingClassTypes eBuildingClass;
; 688  : #ifdef AUI_WARNING_FIXES
; 689  : 	for (uint iPolicyLoop = 0; iPolicyLoop < GC.getNumPolicyInfos(); iPolicyLoop++)
; 690  : #else
; 691  : 	for(int iPolicyLoop = 0; iPolicyLoop < GC.getNumPolicyInfos(); iPolicyLoop++)

	mov	DWORD PTR _iPolicyLoop$221765[ebp], 0
	jmp	SHORT $LN15@GetBranchB
$LN14@GetBranchB:
	mov	eax, DWORD PTR _iPolicyLoop$221765[ebp]
	add	eax, 1
	mov	DWORD PTR _iPolicyLoop$221765[ebp], eax
$LN15@GetBranchB:
	mov	ecx, OFFSET ?gGlobals@@3VCvGlobals@@A	; gGlobals
	call	?getNumPolicyInfos@CvGlobals@@QAEHXZ	; CvGlobals::getNumPolicyInfos
	cmp	DWORD PTR _iPolicyLoop$221765[ebp], eax
	jge	$LN13@GetBranchB

; 692  : #endif
; 693  : 	{
; 694  : 		PolicyTypes ePolicy = (PolicyTypes)iPolicyLoop;

	mov	ecx, DWORD PTR _iPolicyLoop$221765[ebp]
	mov	DWORD PTR _ePolicy$221769[ebp], ecx

; 695  : 		CvPolicyEntry* pkPolicyInfo = GC.getPolicyInfo(ePolicy);

	mov	edx, DWORD PTR _ePolicy$221769[ebp]
	push	edx
	mov	ecx, OFFSET ?gGlobals@@3VCvGlobals@@A	; gGlobals
	call	?getPolicyInfo@CvGlobals@@QAEPAVCvPolicyEntry@@W4PolicyTypes@@@Z ; CvGlobals::getPolicyInfo
	mov	DWORD PTR _pkPolicyInfo$221771[ebp], eax

; 696  : 		if(pkPolicyInfo)

	cmp	DWORD PTR _pkPolicyInfo$221771[ebp], 0
	je	$LN12@GetBranchB

; 697  : 		{
; 698  : 			if (pkPolicyInfo->GetPolicyBranchType() == eBranch)

	mov	ecx, DWORD PTR _pkPolicyInfo$221771[ebp]
	call	?GetPolicyBranchType@CvPolicyEntry@@QBEHXZ ; CvPolicyEntry::GetPolicyBranchType
	cmp	eax, DWORD PTR _eBranch$[ebp]
	jne	$LN12@GetBranchB

; 699  : 			{
; 700  : 				for(iBuildingClassLoop = 0; iBuildingClassLoop < GC.getNumBuildingClassInfos(); iBuildingClassLoop++)

	mov	DWORD PTR _iBuildingClassLoop$[ebp], 0
	jmp	SHORT $LN10@GetBranchB
$LN9@GetBranchB:
	mov	eax, DWORD PTR _iBuildingClassLoop$[ebp]
	add	eax, 1
	mov	DWORD PTR _iBuildingClassLoop$[ebp], eax
$LN10@GetBranchB:
	mov	ecx, OFFSET ?gGlobals@@3VCvGlobals@@A	; gGlobals
	call	?getNumBuildingClassInfos@CvGlobals@@QAEHXZ ; CvGlobals::getNumBuildingClassInfos
	cmp	DWORD PTR _iBuildingClassLoop$[ebp], eax
	jge	$LN12@GetBranchB

; 701  : 				{
; 702  : 					eBuildingClass = (BuildingClassTypes) iBuildingClassLoop;

	mov	ecx, DWORD PTR _iBuildingClassLoop$[ebp]
	mov	DWORD PTR _eBuildingClass$[ebp], ecx

; 703  : 
; 704  : 					CvBuildingClassInfo* pkBuildingClassInfo = GC.getBuildingClassInfo(eBuildingClass);

	mov	edx, DWORD PTR _eBuildingClass$[ebp]
	push	edx
	mov	ecx, OFFSET ?gGlobals@@3VCvGlobals@@A	; gGlobals
	call	?getBuildingClassInfo@CvGlobals@@QAEPAVCvBuildingClassInfo@@W4BuildingClassTypes@@@Z ; CvGlobals::getBuildingClassInfo
	mov	DWORD PTR _pkBuildingClassInfo$221778[ebp], eax

; 705  : 					if (!pkBuildingClassInfo)

	cmp	DWORD PTR _pkBuildingClassInfo$221778[ebp], 0
	jne	SHORT $LN7@GetBranchB

; 706  : 					{
; 707  : 						continue;

	jmp	SHORT $LN9@GetBranchB
$LN7@GetBranchB:

; 708  : 					}
; 709  : 
; 710  : 					if (pkPolicyInfo->GetBuildingClassHappiness(eBuildingClass) != 0)

	mov	eax, DWORD PTR _eBuildingClass$[ebp]
	push	eax
	mov	ecx, DWORD PTR _pkPolicyInfo$221771[ebp]
	call	?GetBuildingClassHappiness@CvPolicyEntry@@QBEHH@Z ; CvPolicyEntry::GetBuildingClassHappiness
	test	eax, eax
	je	SHORT $LN6@GetBranchB

; 711  : 					{
; 712  : 						BuildingTypes eBuilding = (BuildingTypes)pPlayer->getCivilizationInfo().getCivilizationBuildings(eBuildingClass);

	mov	ecx, DWORD PTR _eBuildingClass$[ebp]
	push	ecx
	mov	ecx, DWORD PTR _pPlayer$[ebp]
	call	?getCivilizationInfo@CvPlayer@@QBEAAVCvCivilizationInfo@@XZ ; CvPlayer::getCivilizationInfo
	mov	ecx, eax
	call	?getCivilizationBuildings@CvCivilizationInfo@@QBEHH@Z ; CvCivilizationInfo::getCivilizationBuildings
	mov	DWORD PTR _eBuilding$221781[ebp], eax

; 713  : 						if (eBuilding != NO_BUILDING)

	cmp	DWORD PTR _eBuilding$221781[ebp], -1
	je	SHORT $LN6@GetBranchB

; 714  : 						{
; 715  : 							CvCity *pCity;
; 716  : 							int iLoop;
; 717  : 							for (pCity = pPlayer->firstCity(&iLoop); pCity != NULL; pCity = pPlayer->nextCity(&iLoop))

	push	0
	lea	edx, DWORD PTR _iLoop$221785[ebp]
	push	edx
	mov	ecx, DWORD PTR _pPlayer$[ebp]
	call	?firstCity@CvPlayer@@QAEPAVCvCity@@PAH_N@Z ; CvPlayer::firstCity
	mov	DWORD PTR _pCity$221784[ebp], eax
	jmp	SHORT $LN4@GetBranchB
$LN3@GetBranchB:
	push	0
	lea	eax, DWORD PTR _iLoop$221785[ebp]
	push	eax
	mov	ecx, DWORD PTR _pPlayer$[ebp]
	call	?nextCity@CvPlayer@@QAEPAVCvCity@@PAH_N@Z ; CvPlayer::nextCity
	mov	DWORD PTR _pCity$221784[ebp], eax
$LN4@GetBranchB:
	cmp	DWORD PTR _pCity$221784[ebp], 0
	je	SHORT $LN6@GetBranchB

; 718  : 							{
; 719  : 								if (pCity->GetCityBuildings()->GetNumBuilding(eBuilding) > 0)

	mov	ecx, DWORD PTR _eBuilding$221781[ebp]
	push	ecx
	mov	ecx, DWORD PTR _pCity$221784[ebp]
	call	?GetCityBuildings@CvCity@@QBEPAVCvCityBuildings@@XZ ; CvCity::GetCityBuildings
	mov	ecx, eax
	call	?GetNumBuilding@CvCityBuildings@@QBEHW4BuildingTypes@@@Z ; CvCityBuildings::GetNumBuilding
	test	eax, eax
	jle	SHORT $LN1@GetBranchB

; 720  : 								{
; 721  : 									iSpecialPolicyBuildingHappiness += pkPolicyInfo->GetBuildingClassHappiness(eBuildingClass);

	mov	edx, DWORD PTR _eBuildingClass$[ebp]
	push	edx
	mov	ecx, DWORD PTR _pkPolicyInfo$221771[ebp]
	call	?GetBuildingClassHappiness@CvPolicyEntry@@QBEHH@Z ; CvPolicyEntry::GetBuildingClassHappiness
	add	eax, DWORD PTR _iSpecialPolicyBuildingHappiness$[ebp]
	mov	DWORD PTR _iSpecialPolicyBuildingHappiness$[ebp], eax
$LN1@GetBranchB:

; 722  : 								}
; 723  : 							}

	jmp	SHORT $LN3@GetBranchB
$LN6@GetBranchB:

; 724  : 						}
; 725  : 					}
; 726  : 				}

	jmp	$LN9@GetBranchB
$LN12@GetBranchB:

; 727  : 			}
; 728  : 		}
; 729  : 	}

	jmp	$LN14@GetBranchB
$LN13@GetBranchB:

; 730  : 	return iSpecialPolicyBuildingHappiness;

	mov	eax, DWORD PTR _iSpecialPolicyBuildingHappiness$[ebp]

; 731  : }

	mov	esp, ebp
	pop	ebp
	ret	8
?GetBranchBuildingHappiness@CvPolicyAI@@QAEHPAVCvPlayer@@W4PolicyBranchTypes@@@Z ENDP ; CvPolicyAI::GetBranchBuildingHappiness
_TEXT	ENDS
EXTRN	?IsNoOccupiedUnhappiness@CvBuildingEntry@@QBE_NXZ:PROC ; CvBuildingEntry::IsNoOccupiedUnhappiness
EXTRN	?getBuildingInfo@CvGlobals@@QAEPAVCvBuildingEntry@@W4BuildingTypes@@@Z:PROC ; CvGlobals::getBuildingInfo
; Function compile flags: /Odtp
;	COMDAT ?GetNumHappinessPolicies@CvPolicyAI@@QAEHPAVCvPlayer@@W4PolicyBranchTypes@@@Z
_TEXT	SEGMENT
_this$ = -40						; size = 4
_pkEntry$221816 = -36					; size = 4
_eBuilding$221813 = -32					; size = 4
_pkBuildingClassInfo$221811 = -28			; size = 4
_pkPolicyInfo$221804 = -24				; size = 4
_ePolicy$221802 = -20					; size = 4
_iPolicyLoop$221798 = -16				; size = 4
_iRtnValue$ = -12					; size = 4
_iBuildingClassLoop$ = -8				; size = 4
_eBuildingClass$ = -4					; size = 4
_pPlayer$ = 8						; size = 4
_eBranch$ = 12						; size = 4
?GetNumHappinessPolicies@CvPolicyAI@@QAEHPAVCvPlayer@@W4PolicyBranchTypes@@@Z PROC ; CvPolicyAI::GetNumHappinessPolicies, COMDAT
; _this$ = ecx

; 735  : {

	push	ebp
	mov	ebp, esp
	sub	esp, 40					; 00000028H
	mov	DWORD PTR _this$[ebp], ecx

; 736  : 	int iRtnValue = 0;

	mov	DWORD PTR _iRtnValue$[ebp], 0

; 737  : #ifdef AUI_WARNING_FIXES
; 738  : 	uint iBuildingClassLoop;
; 739  : 	BuildingClassTypes eBuildingClass;
; 740  : 	for (uint iPolicyLoop = 0; iPolicyLoop < GC.getNumPolicyInfos(); iPolicyLoop++)
; 741  : #else
; 742  : 	int iBuildingClassLoop;
; 743  : 	BuildingClassTypes eBuildingClass;
; 744  : 	for(int iPolicyLoop = 0; iPolicyLoop < GC.getNumPolicyInfos(); iPolicyLoop++)

	mov	DWORD PTR _iPolicyLoop$221798[ebp], 0
	jmp	SHORT $LN13@GetNumHapp
$LN12@GetNumHapp:
	mov	eax, DWORD PTR _iPolicyLoop$221798[ebp]
	add	eax, 1
	mov	DWORD PTR _iPolicyLoop$221798[ebp], eax
$LN13@GetNumHapp:
	mov	ecx, OFFSET ?gGlobals@@3VCvGlobals@@A	; gGlobals
	call	?getNumPolicyInfos@CvGlobals@@QAEHXZ	; CvGlobals::getNumPolicyInfos
	cmp	DWORD PTR _iPolicyLoop$221798[ebp], eax
	jge	$LN11@GetNumHapp

; 745  : #endif
; 746  : 	{
; 747  : 		PolicyTypes ePolicy = (PolicyTypes)iPolicyLoop;

	mov	ecx, DWORD PTR _iPolicyLoop$221798[ebp]
	mov	DWORD PTR _ePolicy$221802[ebp], ecx

; 748  : 		CvPolicyEntry* pkPolicyInfo = GC.getPolicyInfo(ePolicy);

	mov	edx, DWORD PTR _ePolicy$221802[ebp]
	push	edx
	mov	ecx, OFFSET ?gGlobals@@3VCvGlobals@@A	; gGlobals
	call	?getPolicyInfo@CvGlobals@@QAEPAVCvPolicyEntry@@W4PolicyTypes@@@Z ; CvGlobals::getPolicyInfo
	mov	DWORD PTR _pkPolicyInfo$221804[ebp], eax

; 749  : 		if(pkPolicyInfo)

	cmp	DWORD PTR _pkPolicyInfo$221804[ebp], 0
	je	$LN10@GetNumHapp

; 750  : 		{
; 751  : 			if (pkPolicyInfo->GetPolicyBranchType() == eBranch)

	mov	ecx, DWORD PTR _pkPolicyInfo$221804[ebp]
	call	?GetPolicyBranchType@CvPolicyEntry@@QBEHXZ ; CvPolicyEntry::GetPolicyBranchType
	cmp	eax, DWORD PTR _eBranch$[ebp]
	jne	$LN10@GetNumHapp

; 752  : 			{
; 753  : 				for(iBuildingClassLoop = 0; iBuildingClassLoop < GC.getNumBuildingClassInfos(); iBuildingClassLoop++)

	mov	DWORD PTR _iBuildingClassLoop$[ebp], 0
	jmp	SHORT $LN8@GetNumHapp
$LN7@GetNumHapp:
	mov	eax, DWORD PTR _iBuildingClassLoop$[ebp]
	add	eax, 1
	mov	DWORD PTR _iBuildingClassLoop$[ebp], eax
$LN8@GetNumHapp:
	mov	ecx, OFFSET ?gGlobals@@3VCvGlobals@@A	; gGlobals
	call	?getNumBuildingClassInfos@CvGlobals@@QAEHXZ ; CvGlobals::getNumBuildingClassInfos
	cmp	DWORD PTR _iBuildingClassLoop$[ebp], eax
	jge	$LN10@GetNumHapp

; 754  : 				{
; 755  : 					eBuildingClass = (BuildingClassTypes) iBuildingClassLoop;

	mov	ecx, DWORD PTR _iBuildingClassLoop$[ebp]
	mov	DWORD PTR _eBuildingClass$[ebp], ecx

; 756  : 
; 757  : 					CvBuildingClassInfo* pkBuildingClassInfo = GC.getBuildingClassInfo(eBuildingClass);

	mov	edx, DWORD PTR _eBuildingClass$[ebp]
	push	edx
	mov	ecx, OFFSET ?gGlobals@@3VCvGlobals@@A	; gGlobals
	call	?getBuildingClassInfo@CvGlobals@@QAEPAVCvBuildingClassInfo@@W4BuildingClassTypes@@@Z ; CvGlobals::getBuildingClassInfo
	mov	DWORD PTR _pkBuildingClassInfo$221811[ebp], eax

; 758  : 					if (!pkBuildingClassInfo)

	cmp	DWORD PTR _pkBuildingClassInfo$221811[ebp], 0
	jne	SHORT $LN5@GetNumHapp

; 759  : 					{
; 760  : 						continue;

	jmp	SHORT $LN7@GetNumHapp
$LN5@GetNumHapp:

; 761  : 					}
; 762  : 
; 763  : 					BuildingTypes eBuilding = (BuildingTypes)pPlayer->getCivilizationInfo().getCivilizationBuildings(eBuildingClass);

	mov	eax, DWORD PTR _eBuildingClass$[ebp]
	push	eax
	mov	ecx, DWORD PTR _pPlayer$[ebp]
	call	?getCivilizationInfo@CvPlayer@@QBEAAVCvCivilizationInfo@@XZ ; CvPlayer::getCivilizationInfo
	mov	ecx, eax
	call	?getCivilizationBuildings@CvCivilizationInfo@@QBEHH@Z ; CvCivilizationInfo::getCivilizationBuildings
	mov	DWORD PTR _eBuilding$221813[ebp], eax

; 764  : 					if (eBuilding != NO_BUILDING)

	cmp	DWORD PTR _eBuilding$221813[ebp], -1
	je	SHORT $LN4@GetNumHapp

; 765  : 					{
; 766  : 						// Don't count a building that can only be built in conquered cities
; 767  : 						CvBuildingEntry *pkEntry = GC.getBuildingInfo(eBuilding);

	mov	ecx, DWORD PTR _eBuilding$221813[ebp]
	push	ecx
	mov	ecx, OFFSET ?gGlobals@@3VCvGlobals@@A	; gGlobals
	call	?getBuildingInfo@CvGlobals@@QAEPAVCvBuildingEntry@@W4BuildingTypes@@@Z ; CvGlobals::getBuildingInfo
	mov	DWORD PTR _pkEntry$221816[ebp], eax

; 768  : 						if (!pkEntry || pkEntry->IsNoOccupiedUnhappiness())

	cmp	DWORD PTR _pkEntry$221816[ebp], 0
	je	SHORT $LN2@GetNumHapp
	mov	ecx, DWORD PTR _pkEntry$221816[ebp]
	call	?IsNoOccupiedUnhappiness@CvBuildingEntry@@QBE_NXZ ; CvBuildingEntry::IsNoOccupiedUnhappiness
	movzx	edx, al
	test	edx, edx
	je	SHORT $LN3@GetNumHapp
$LN2@GetNumHapp:

; 769  : 						{
; 770  : 							continue;

	jmp	SHORT $LN7@GetNumHapp
$LN3@GetNumHapp:

; 771  : 						}
; 772  : 
; 773  : 						if (pkPolicyInfo->GetBuildingClassHappiness(eBuildingClass) != 0)

	mov	eax, DWORD PTR _eBuildingClass$[ebp]
	push	eax
	mov	ecx, DWORD PTR _pkPolicyInfo$221804[ebp]
	call	?GetBuildingClassHappiness@CvPolicyEntry@@QBEHH@Z ; CvPolicyEntry::GetBuildingClassHappiness
	test	eax, eax
	je	SHORT $LN4@GetNumHapp

; 774  : 						{
; 775  : 							iRtnValue++;

	mov	ecx, DWORD PTR _iRtnValue$[ebp]
	add	ecx, 1
	mov	DWORD PTR _iRtnValue$[ebp], ecx

; 776  : 							break;

	jmp	SHORT $LN10@GetNumHapp
$LN4@GetNumHapp:

; 777  : 						}
; 778  : 					}
; 779  : 				}

	jmp	$LN7@GetNumHapp
$LN10@GetNumHapp:

; 780  : 			}
; 781  : 		}
; 782  : 	}

	jmp	$LN12@GetNumHapp
$LN11@GetNumHapp:

; 783  : 	return iRtnValue;

	mov	eax, DWORD PTR _iRtnValue$[ebp]

; 784  : }

	mov	esp, ebp
	pop	ebp
	ret	8
?GetNumHappinessPolicies@CvPolicyAI@@QAEHPAVCvPlayer@@W4PolicyBranchTypes@@@Z ENDP ; CvPolicyAI::GetNumHappinessPolicies
_TEXT	ENDS
PUBLIC	?PropagateWeights@CvPolicyAI@@AAEXHHHH@Z	; CvPolicyAI::PropagateWeights
; Function compile flags: /Odtp
;	COMDAT ?WeightPrereqs@CvPolicyAI@@AAEXPAHH@Z
_TEXT	SEGMENT
_this$ = -8						; size = 4
_iPolicyLoop$ = -4					; size = 4
_paiTempWeights$ = 8					; size = 4
_iPropagationPercent$ = 12				; size = 4
?WeightPrereqs@CvPolicyAI@@AAEXPAHH@Z PROC		; CvPolicyAI::WeightPrereqs, COMDAT
; _this$ = ecx

; 796  : {

	push	ebp
	mov	ebp, esp
	sub	esp, 8
	mov	DWORD PTR _this$[ebp], ecx

; 797  : 	int iPolicyLoop;
; 798  : #endif
; 799  : 
; 800  : 	// Loop through policies looking for ones that are just getting some new weight
; 801  : 	for(iPolicyLoop = 0; iPolicyLoop < m_pCurrentPolicies->GetPolicies()->GetNumPolicies(); iPolicyLoop++)

	mov	DWORD PTR _iPolicyLoop$[ebp], 0
	jmp	SHORT $LN4@WeightPrer
$LN3@WeightPrer:
	mov	eax, DWORD PTR _iPolicyLoop$[ebp]
	add	eax, 1
	mov	DWORD PTR _iPolicyLoop$[ebp], eax
$LN4@WeightPrer:
	mov	ecx, DWORD PTR _this$[ebp]
	mov	ecx, DWORD PTR [ecx]
	call	?GetPolicies@CvPlayerPolicies@@QBEPAVCvPolicyXMLEntries@@XZ ; CvPlayerPolicies::GetPolicies
	mov	ecx, eax
	call	?GetNumPolicies@CvPolicyXMLEntries@@QAEHXZ ; CvPolicyXMLEntries::GetNumPolicies
	cmp	DWORD PTR _iPolicyLoop$[ebp], eax
	jge	SHORT $LN5@WeightPrer

; 802  : 	{
; 803  : 		// If found one, call our recursive routine to weight everything to the left in the tree
; 804  : 		if(paiTempWeights[iPolicyLoop] > 0)

	mov	edx, DWORD PTR _iPolicyLoop$[ebp]
	mov	eax, DWORD PTR _paiTempWeights$[ebp]
	cmp	DWORD PTR [eax+edx*4], 0
	jle	SHORT $LN1@WeightPrer

; 805  : 		{
; 806  : 			PropagateWeights(iPolicyLoop, paiTempWeights[iPolicyLoop], iPropagationPercent, 0);

	push	0
	mov	ecx, DWORD PTR _iPropagationPercent$[ebp]
	push	ecx
	mov	edx, DWORD PTR _iPolicyLoop$[ebp]
	mov	eax, DWORD PTR _paiTempWeights$[ebp]
	mov	ecx, DWORD PTR [eax+edx*4]
	push	ecx
	mov	edx, DWORD PTR _iPolicyLoop$[ebp]
	push	edx
	mov	ecx, DWORD PTR _this$[ebp]
	call	?PropagateWeights@CvPolicyAI@@AAEXHHHH@Z ; CvPolicyAI::PropagateWeights
$LN1@WeightPrer:

; 807  : 		}

	jmp	SHORT $LN3@WeightPrer
$LN5@WeightPrer:

; 808  : 	}
; 809  : }

	mov	esp, ebp
	pop	ebp
	ret	8
?WeightPrereqs@CvPolicyAI@@AAEXPAHH@Z ENDP		; CvPolicyAI::WeightPrereqs
_TEXT	ENDS
EXTRN	?GetPrereqAndPolicies@CvPolicyEntry@@QBEHH@Z:PROC ; CvPolicyEntry::GetPrereqAndPolicies
; Function compile flags: /Odtp
;	COMDAT ?PropagateWeights@CvPolicyAI@@AAEXHHHH@Z
_TEXT	SEGMENT
tv88 = -28						; size = 4
tv133 = -24						; size = 4
_this$ = -20						; size = 4
$T224285 = -16						; size = 4
_iPrereq$221843 = -12					; size = 4
_iI$221839 = -8						; size = 4
_iPropagatedWeight$221838 = -4				; size = 4
_iPolicy$ = 8						; size = 4
_iWeight$ = 12						; size = 4
_iPropagationPercent$ = 16				; size = 4
_iPropagationLevel$ = 20				; size = 4
?PropagateWeights@CvPolicyAI@@AAEXHHHH@Z PROC		; CvPolicyAI::PropagateWeights, COMDAT
; _this$ = ecx

; 813  : {

	push	ebp
	mov	ebp, esp
	sub	esp, 28					; 0000001cH
	mov	DWORD PTR _this$[ebp], ecx

; 814  : 	if(iPropagationLevel < m_iPolicyWeightPropagationLevels)

	mov	eax, DWORD PTR _this$[ebp]
	mov	ecx, DWORD PTR _iPropagationLevel$[ebp]
	cmp	ecx, DWORD PTR [eax+1060]
	jge	$LN8@PropagateW

; 815  : 	{
; 816  : 		int iPropagatedWeight = iWeight * iPropagationPercent / 100;

	mov	eax, DWORD PTR _iWeight$[ebp]
	imul	eax, DWORD PTR _iPropagationPercent$[ebp]
	cdq
	mov	ecx, 100				; 00000064H
	idiv	ecx
	mov	DWORD PTR _iPropagatedWeight$221838[ebp], eax

; 817  : 
; 818  : 		// Loop through all prerequisites
; 819  : 		for(int iI = 0; iI < GC.getNUM_OR_TECH_PREREQS(); iI++)

	mov	DWORD PTR _iI$221839[ebp], 0
	jmp	SHORT $LN6@PropagateW
$LN5@PropagateW:
	mov	edx, DWORD PTR _iI$221839[ebp]
	add	edx, 1
	mov	DWORD PTR _iI$221839[ebp], edx
$LN6@PropagateW:
	mov	eax, DWORD PTR ?gGlobals@@3VCvGlobals@@A+6268
	mov	DWORD PTR $T224285[ebp], eax
	mov	ecx, DWORD PTR _iI$221839[ebp]
	cmp	ecx, DWORD PTR $T224285[ebp]
	jge	SHORT $LN8@PropagateW

; 820  : 		{
; 821  : 			// Did we find a prereq?
; 822  : 			int iPrereq = m_pCurrentPolicies->GetPolicies()->GetPolicyEntry(iPolicy)->GetPrereqAndPolicies(iI);

	mov	edx, DWORD PTR _iI$221839[ebp]
	push	edx
	mov	eax, DWORD PTR _iPolicy$[ebp]
	push	eax
	mov	ecx, DWORD PTR _this$[ebp]
	mov	ecx, DWORD PTR [ecx]
	call	?GetPolicies@CvPlayerPolicies@@QBEPAVCvPolicyXMLEntries@@XZ ; CvPlayerPolicies::GetPolicies
	mov	ecx, eax
	call	?GetPolicyEntry@CvPolicyXMLEntries@@QAEPAVCvPolicyEntry@@H@Z ; CvPolicyXMLEntries::GetPolicyEntry
	mov	ecx, eax
	call	?GetPrereqAndPolicies@CvPolicyEntry@@QBEHH@Z ; CvPolicyEntry::GetPrereqAndPolicies
	mov	DWORD PTR _iPrereq$221843[ebp], eax

; 823  : 			if(iPrereq != NO_POLICY)

	cmp	DWORD PTR _iPrereq$221843[ebp], -1
	je	SHORT $LN3@PropagateW

; 824  : 			{
; 825  : 				// Apply reduced weight here.  Note that we apply these to the master weight array, not
; 826  : 				// the temporary one.  The temporary one is just used to hold the newly weighted policies
; 827  : 				// (from which this weight propagation must originate).
; 828  : 				m_PolicyAIWeights.IncreaseWeight(iPrereq, iPropagatedWeight);

	mov	edx, DWORD PTR _this$[ebp]
	mov	eax, DWORD PTR [edx+4]
	mov	ecx, DWORD PTR _iPrereq$221843[ebp]
	lea	edx, DWORD PTR [eax+ecx*8+4]
	mov	DWORD PTR tv133[ebp], edx
	mov	eax, DWORD PTR tv133[ebp]
	mov	ecx, DWORD PTR [eax]
	add	ecx, DWORD PTR _iPropagatedWeight$221838[ebp]
	mov	edx, DWORD PTR tv133[ebp]
	mov	DWORD PTR [edx], ecx

; 829  : 
; 830  : 				// Recurse to its prereqs (assuming we have any weight left)
; 831  : 				if(iPropagatedWeight > 0)

	cmp	DWORD PTR _iPropagatedWeight$221838[ebp], 0
	jle	SHORT $LN2@PropagateW

; 832  : 				{
; 833  : 					PropagateWeights(iPrereq, iPropagatedWeight, iPropagationPercent, iPropagationLevel++);

	mov	eax, DWORD PTR _iPropagationLevel$[ebp]
	mov	DWORD PTR tv88[ebp], eax
	mov	ecx, DWORD PTR tv88[ebp]
	push	ecx
	mov	edx, DWORD PTR _iPropagationPercent$[ebp]
	push	edx
	mov	eax, DWORD PTR _iPropagatedWeight$221838[ebp]
	push	eax
	mov	ecx, DWORD PTR _iPrereq$221843[ebp]
	push	ecx
	mov	ecx, DWORD PTR _this$[ebp]
	call	?PropagateWeights@CvPolicyAI@@AAEXHHHH@Z ; CvPolicyAI::PropagateWeights
	mov	edx, DWORD PTR _iPropagationLevel$[ebp]
	add	edx, 1
	mov	DWORD PTR _iPropagationLevel$[ebp], edx
$LN2@PropagateW:

; 834  : 				}
; 835  : 			}
; 836  : 			else

	jmp	SHORT $LN1@PropagateW
$LN3@PropagateW:

; 837  : 			{
; 838  : 				break;

	jmp	SHORT $LN8@PropagateW
$LN1@PropagateW:

; 839  : 			}
; 840  : 		}

	jmp	$LN5@PropagateW
$LN8@PropagateW:

; 841  : 	}
; 842  : }

	mov	esp, ebp
	pop	ebp
	ret	16					; 00000010H
?PropagateWeights@CvPolicyAI@@AAEXHHHH@Z ENDP		; CvPolicyAI::PropagateWeights
_TEXT	ENDS
EXTRN	?GetFreePolicy@CvPolicyBranchEntry@@QBEHXZ:PROC	; CvPolicyBranchEntry::GetFreePolicy
EXTRN	?HasPolicy@CvPlayerPolicies@@QBE_NW4PolicyTypes@@@Z:PROC ; CvPlayerPolicies::HasPolicy
; Function compile flags: /Odtp
;	COMDAT ?WeighBranch@CvPolicyAI@@AAEHW4PolicyBranchTypes@@@Z
_TEXT	SEGMENT
_this$ = -44						; size = 4
$T224324 = -40						; size = 4
_elem$224323 = -36					; size = 8
_elem$224309 = -28					; size = 8
_ePolicyLoop$221858 = -20				; size = 4
_pkLoopPolicyInfo$221860 = -16				; size = 4
_iPolicyLoop$221854 = -12				; size = 4
_pkPolicyBranchInfo$ = -8				; size = 4
_iWeight$ = -4						; size = 4
_eBranch$ = 8						; size = 4
?WeighBranch@CvPolicyAI@@AAEHW4PolicyBranchTypes@@@Z PROC ; CvPolicyAI::WeighBranch, COMDAT
; _this$ = ecx

; 846  : {

	push	ebp
	mov	ebp, esp
	sub	esp, 44					; 0000002cH
	mov	DWORD PTR _this$[ebp], ecx

; 847  : 	int iWeight = 0;

	mov	DWORD PTR _iWeight$[ebp], 0

; 848  : 
; 849  : 	CvPolicyBranchEntry* pkPolicyBranchInfo = GC.getPolicyBranchInfo(eBranch);

	mov	eax, DWORD PTR _eBranch$[ebp]
	push	eax
	mov	ecx, OFFSET ?gGlobals@@3VCvGlobals@@A	; gGlobals
	call	?getPolicyBranchInfo@CvGlobals@@QAEPAVCvPolicyBranchEntry@@W4PolicyBranchTypes@@@Z ; CvGlobals::getPolicyBranchInfo
	mov	DWORD PTR _pkPolicyBranchInfo$[ebp], eax

; 850  : 	if(pkPolicyBranchInfo)

	cmp	DWORD PTR _pkPolicyBranchInfo$[ebp], 0
	je	$LN8@WeighBranc

; 851  : 	{
; 852  : #ifdef AUI_WARNING_FIXES
; 853  : 		for (uint iPolicyLoop = 0; iPolicyLoop < m_pCurrentPolicies->GetPolicies()->GetNumPolicies(); iPolicyLoop++)
; 854  : #else
; 855  : 		for(int iPolicyLoop = 0; iPolicyLoop < m_pCurrentPolicies->GetPolicies()->GetNumPolicies(); iPolicyLoop++)

	mov	DWORD PTR _iPolicyLoop$221854[ebp], 0
	jmp	SHORT $LN7@WeighBranc
$LN6@WeighBranc:
	mov	ecx, DWORD PTR _iPolicyLoop$221854[ebp]
	add	ecx, 1
	mov	DWORD PTR _iPolicyLoop$221854[ebp], ecx
$LN7@WeighBranc:
	mov	edx, DWORD PTR _this$[ebp]
	mov	ecx, DWORD PTR [edx]
	call	?GetPolicies@CvPlayerPolicies@@QBEPAVCvPolicyXMLEntries@@XZ ; CvPlayerPolicies::GetPolicies
	mov	ecx, eax
	call	?GetNumPolicies@CvPolicyXMLEntries@@QAEHXZ ; CvPolicyXMLEntries::GetNumPolicies
	cmp	DWORD PTR _iPolicyLoop$221854[ebp], eax
	jge	$LN5@WeighBranc

; 856  : #endif
; 857  : 		{
; 858  : 			const PolicyTypes ePolicyLoop = static_cast<PolicyTypes>(iPolicyLoop);

	mov	eax, DWORD PTR _iPolicyLoop$221854[ebp]
	mov	DWORD PTR _ePolicyLoop$221858[ebp], eax

; 859  : 			CvPolicyEntry* pkLoopPolicyInfo = GC.getPolicyInfo(ePolicyLoop);

	mov	ecx, DWORD PTR _ePolicyLoop$221858[ebp]
	push	ecx
	mov	ecx, OFFSET ?gGlobals@@3VCvGlobals@@A	; gGlobals
	call	?getPolicyInfo@CvGlobals@@QAEPAVCvPolicyEntry@@W4PolicyTypes@@@Z ; CvGlobals::getPolicyInfo
	mov	DWORD PTR _pkLoopPolicyInfo$221860[ebp], eax

; 860  : 			if(pkLoopPolicyInfo)

	cmp	DWORD PTR _pkLoopPolicyInfo$221860[ebp], 0
	je	SHORT $LN4@WeighBranc

; 861  : 			{
; 862  : 				// Policy we don't have?
; 863  : 				if(!m_pCurrentPolicies->HasPolicy(ePolicyLoop))

	mov	edx, DWORD PTR _ePolicyLoop$221858[ebp]
	push	edx
	mov	eax, DWORD PTR _this$[ebp]
	mov	ecx, DWORD PTR [eax]
	call	?HasPolicy@CvPlayerPolicies@@QBE_NW4PolicyTypes@@@Z ; CvPlayerPolicies::HasPolicy
	movzx	ecx, al
	test	ecx, ecx
	jne	SHORT $LN4@WeighBranc

; 864  : 				{
; 865  : 					// From this branch we are considering opening?
; 866  : 					if(pkLoopPolicyInfo->GetPolicyBranchType() == eBranch)

	mov	ecx, DWORD PTR _pkLoopPolicyInfo$221860[ebp]
	call	?GetPolicyBranchType@CvPolicyEntry@@QBEHXZ ; CvPolicyEntry::GetPolicyBranchType
	cmp	eax, DWORD PTR _eBranch$[ebp]
	jne	SHORT $LN4@WeighBranc

; 867  : 					{
; 868  : 						// With no prereqs?
; 869  : 						if(pkLoopPolicyInfo->GetPrereqAndPolicies(0) == NO_POLICY)

	push	0
	mov	ecx, DWORD PTR _pkLoopPolicyInfo$221860[ebp]
	call	?GetPrereqAndPolicies@CvPolicyEntry@@QBEHH@Z ; CvPolicyEntry::GetPrereqAndPolicies
	cmp	eax, -1
	jne	SHORT $LN4@WeighBranc

; 870  : 						{
; 871  : 							iWeight += m_PolicyAIWeights.GetWeight(iPolicyLoop);

	mov	DWORD PTR _elem$224309[ebp], 0
	mov	DWORD PTR _elem$224309[ebp+4], 0
	mov	edx, DWORD PTR _this$[ebp]
	mov	eax, DWORD PTR [edx+4]
	mov	ecx, DWORD PTR _iPolicyLoop$221854[ebp]
	mov	edx, DWORD PTR [eax+ecx*8]
	mov	eax, DWORD PTR [eax+ecx*8+4]
	mov	DWORD PTR _elem$224309[ebp], edx
	mov	DWORD PTR _elem$224309[ebp+4], eax
	mov	ecx, DWORD PTR _iWeight$[ebp]
	add	ecx, DWORD PTR _elem$224309[ebp+4]
	mov	DWORD PTR _iWeight$[ebp], ecx
$LN4@WeighBranc:

; 872  : 						}
; 873  : 					}
; 874  : 				}
; 875  : 			}
; 876  : 		}

	jmp	$LN6@WeighBranc
$LN5@WeighBranc:

; 877  : 
; 878  : 		// Add weight of free policy from branch
; 879  : 		iWeight += m_PolicyAIWeights.GetWeight(pkPolicyBranchInfo->GetFreePolicy());

	mov	ecx, DWORD PTR _pkPolicyBranchInfo$[ebp]
	call	?GetFreePolicy@CvPolicyBranchEntry@@QBEHXZ ; CvPolicyBranchEntry::GetFreePolicy
	mov	DWORD PTR $T224324[ebp], eax
	mov	DWORD PTR _elem$224323[ebp], 0
	mov	DWORD PTR _elem$224323[ebp+4], 0
	mov	edx, DWORD PTR _this$[ebp]
	mov	eax, DWORD PTR [edx+4]
	mov	ecx, DWORD PTR $T224324[ebp]
	mov	edx, DWORD PTR [eax+ecx*8]
	mov	eax, DWORD PTR [eax+ecx*8+4]
	mov	DWORD PTR _elem$224323[ebp], edx
	mov	DWORD PTR _elem$224323[ebp+4], eax
	mov	ecx, DWORD PTR _iWeight$[ebp]
	add	ecx, DWORD PTR _elem$224323[ebp+4]
	mov	DWORD PTR _iWeight$[ebp], ecx
$LN8@WeighBranc:

; 880  : 	}
; 881  : 
; 882  : 	return iWeight;

	mov	eax, DWORD PTR _iWeight$[ebp]

; 883  : }

	mov	esp, ebp
	pop	ebp
	ret	4
?WeighBranch@CvPolicyAI@@AAEHW4PolicyBranchTypes@@@Z ENDP ; CvPolicyAI::WeighBranch
_TEXT	ENDS
EXTRN	?GetNumMinorCivsEver@CvGame@@QAEHXZ:PROC	; CvGame::GetNumMinorCivsEver
EXTRN	?IsDelayWhenNoCityStates@CvPolicyBranchEntry@@QBE_NXZ:PROC ; CvPolicyBranchEntry::IsDelayWhenNoCityStates
EXTRN	?IsDelayWhenNoScience@CvPolicyBranchEntry@@QBE_NXZ:PROC ; CvPolicyBranchEntry::IsDelayWhenNoScience
EXTRN	?IsDelayWhenNoCulture@CvPolicyBranchEntry@@QBE_NXZ:PROC ; CvPolicyBranchEntry::IsDelayWhenNoCulture
EXTRN	?isOption@CvGame@@QBE_NW4GameOptionTypes@@@Z:PROC ; CvGame::isOption
EXTRN	?IsDelayWhenNoReligion@CvPolicyBranchEntry@@QBE_NXZ:PROC ; CvPolicyBranchEntry::IsDelayWhenNoReligion
; Function compile flags: /Odtp
;	COMDAT ?IsBranchEffectiveInGame@CvPolicyAI@@AAE_NW4PolicyBranchTypes@@@Z
_TEXT	SEGMENT
_this$ = -24						; size = 4
$T224342 = -20						; size = 4
$T224338 = -16						; size = 4
$T224334 = -12						; size = 4
$T224330 = -8						; size = 4
_pBranchInfo$ = -4					; size = 4
_eBranch$ = 8						; size = 4
?IsBranchEffectiveInGame@CvPolicyAI@@AAE_NW4PolicyBranchTypes@@@Z PROC ; CvPolicyAI::IsBranchEffectiveInGame, COMDAT
; _this$ = ecx

; 887  : {

	push	ebp
	mov	ebp, esp
	sub	esp, 24					; 00000018H
	mov	DWORD PTR _this$[ebp], ecx

; 888  : 	CvPolicyBranchEntry* pBranchInfo = GC.getPolicyBranchInfo(eBranch);

	mov	eax, DWORD PTR _eBranch$[ebp]
	push	eax
	mov	ecx, OFFSET ?gGlobals@@3VCvGlobals@@A	; gGlobals
	call	?getPolicyBranchInfo@CvGlobals@@QAEPAVCvPolicyBranchEntry@@W4PolicyBranchTypes@@@Z ; CvGlobals::getPolicyBranchInfo
	mov	DWORD PTR _pBranchInfo$[ebp], eax

; 889  : 	CvAssertMsg(pBranchInfo, "Branch info not found! Please send Anton your save file and version.");
; 890  : 	if (!pBranchInfo) return false;

	cmp	DWORD PTR _pBranchInfo$[ebp], 0
	jne	SHORT $LN9@IsBranchEf
	xor	al, al
	jmp	$LN10@IsBranchEf
$LN9@IsBranchEf:

; 891  : 	
; 892  : 	if (pBranchInfo->IsDelayWhenNoReligion())

	mov	ecx, DWORD PTR _pBranchInfo$[ebp]
	call	?IsDelayWhenNoReligion@CvPolicyBranchEntry@@QBE_NXZ ; CvPolicyBranchEntry::IsDelayWhenNoReligion
	movzx	ecx, al
	test	ecx, ecx
	je	SHORT $LN8@IsBranchEf

; 893  : 		if (GC.getGame().isOption(GAMEOPTION_NO_RELIGION))

	mov	edx, DWORD PTR ?gGlobals@@3VCvGlobals@@A+48
	mov	DWORD PTR $T224330[ebp], edx
	push	21					; 00000015H
	mov	ecx, DWORD PTR $T224330[ebp]
	call	?isOption@CvGame@@QBE_NW4GameOptionTypes@@@Z ; CvGame::isOption
	movzx	eax, al
	test	eax, eax
	je	SHORT $LN8@IsBranchEf

; 894  : 			return false;

	xor	al, al
	jmp	$LN10@IsBranchEf
$LN8@IsBranchEf:

; 895  : 
; 896  : 	if (pBranchInfo->IsDelayWhenNoCulture())

	mov	ecx, DWORD PTR _pBranchInfo$[ebp]
	call	?IsDelayWhenNoCulture@CvPolicyBranchEntry@@QBE_NXZ ; CvPolicyBranchEntry::IsDelayWhenNoCulture
	movzx	ecx, al
	test	ecx, ecx
	je	SHORT $LN6@IsBranchEf

; 897  : 		if (GC.getGame().isOption(GAMEOPTION_NO_POLICIES))

	mov	edx, DWORD PTR ?gGlobals@@3VCvGlobals@@A+48
	mov	DWORD PTR $T224334[ebp], edx
	push	18					; 00000012H
	mov	ecx, DWORD PTR $T224334[ebp]
	call	?isOption@CvGame@@QBE_NW4GameOptionTypes@@@Z ; CvGame::isOption
	movzx	eax, al
	test	eax, eax
	je	SHORT $LN6@IsBranchEf

; 898  : 			return false;

	xor	al, al
	jmp	SHORT $LN10@IsBranchEf
$LN6@IsBranchEf:

; 899  : 
; 900  : 	if (pBranchInfo->IsDelayWhenNoScience())

	mov	ecx, DWORD PTR _pBranchInfo$[ebp]
	call	?IsDelayWhenNoScience@CvPolicyBranchEntry@@QBE_NXZ ; CvPolicyBranchEntry::IsDelayWhenNoScience
	movzx	ecx, al
	test	ecx, ecx
	je	SHORT $LN4@IsBranchEf

; 901  : 		if (GC.getGame().isOption(GAMEOPTION_NO_SCIENCE))

	mov	edx, DWORD PTR ?gGlobals@@3VCvGlobals@@A+48
	mov	DWORD PTR $T224338[ebp], edx
	push	17					; 00000011H
	mov	ecx, DWORD PTR $T224338[ebp]
	call	?isOption@CvGame@@QBE_NW4GameOptionTypes@@@Z ; CvGame::isOption
	movzx	eax, al
	test	eax, eax
	je	SHORT $LN4@IsBranchEf

; 902  : 			return false;

	xor	al, al
	jmp	SHORT $LN10@IsBranchEf
$LN4@IsBranchEf:

; 903  : 
; 904  : 	if (pBranchInfo->IsDelayWhenNoCityStates())

	mov	ecx, DWORD PTR _pBranchInfo$[ebp]
	call	?IsDelayWhenNoCityStates@CvPolicyBranchEntry@@QBE_NXZ ; CvPolicyBranchEntry::IsDelayWhenNoCityStates
	movzx	ecx, al
	test	ecx, ecx
	je	SHORT $LN2@IsBranchEf

; 905  : 		if (GC.getGame().GetNumMinorCivsEver() <= 0)

	mov	edx, DWORD PTR ?gGlobals@@3VCvGlobals@@A+48
	mov	DWORD PTR $T224342[ebp], edx
	mov	ecx, DWORD PTR $T224342[ebp]
	call	?GetNumMinorCivsEver@CvGame@@QAEHXZ	; CvGame::GetNumMinorCivsEver
	test	eax, eax
	jg	SHORT $LN2@IsBranchEf

; 906  : 			return false;

	xor	al, al
	jmp	SHORT $LN10@IsBranchEf
$LN2@IsBranchEf:

; 907  : 
; 908  : 	return true;

	mov	al, 1
$LN10@IsBranchEf:

; 909  : }

	mov	esp, ebp
	pop	ebp
	ret	4
?IsBranchEffectiveInGame@CvPolicyAI@@AAE_NW4PolicyBranchTypes@@@Z ENDP ; CvPolicyAI::IsBranchEffectiveInGame
_TEXT	ENDS
PUBLIC	??_C@_06OJLEAOEG@?$CFs?0?5?$CFd?$AA@		; `string'
PUBLIC	??_C@_07NBCGADJA@Unknown?$AA@			; `string'
PUBLIC	??_C@_0O@FEIHADIP@Branch?5?$CFd?0?5?$CFd?$AA@	; `string'
PUBLIC	??_C@_02KEGNLNML@?0?5?$AA@			; `string'
PUBLIC	?Format@CvString@@QAAXPBDZZ			; CvString::Format
PUBLIC	??_C@_06NHKAIDD@?$CF03d?0?5?$AA@		; `string'
PUBLIC	?GetLogFileName@CvPolicyAI@@ABE?AVCvString@@AAV2@@Z ; CvPolicyAI::GetLogFileName
PUBLIC	__$ArrayPad$
EXTRN	__imp_??$?HDU?$char_traits@D@std@@V?$allocator@D@1@@std@@YA?AV?$basic_string@DU?$char_traits@D@std@@V?$allocator@D@2@@0@ABV10@0@Z:PROC
EXTRN	__imp_??Y?$basic_string@DU?$char_traits@D@std@@V?$allocator@D@2@@std@@QAEAAV01@ABV01@@Z:PROC
EXTRN	__imp_??$?HDU?$char_traits@D@std@@V?$allocator@D@1@@std@@YA?AV?$basic_string@DU?$char_traits@D@std@@V?$allocator@D@2@@0@ABV10@PBD@Z:PROC
EXTRN	?getElapsedGameTurns@CvGame@@QBEHXZ:PROC	; CvGame::getElapsedGameTurns
EXTRN	__imp_?c_str@?$basic_string@DU?$char_traits@D@std@@V?$allocator@D@2@@std@@QBEPBDXZ:PROC
EXTRN	?GetInstance@FILogFileMgr@@SAAAV1@XZ:PROC	; FILogFileMgr::GetInstance
EXTRN	?getCivilizationShortDescription@CvPlayer@@QBEPBDXZ:PROC ; CvPlayer::getCivilizationShortDescription
EXTRN	?GetPlayer@CvPlayerPolicies@@QAEPAVCvPlayer@@XZ:PROC ; CvPlayerPolicies::GetPlayer
EXTRN	__imp_??0?$basic_string@DU?$char_traits@D@std@@V?$allocator@D@2@@std@@QAE@XZ:PROC
EXTRN	?getAILogging@CvGlobals@@QAE_NXZ:PROC		; CvGlobals::getAILogging
EXTRN	?getLogging@CvGlobals@@QAE_NXZ:PROC		; CvGlobals::getLogging
;	COMDAT ??_C@_06OJLEAOEG@?$CFs?0?5?$CFd?$AA@
; File d:\sources\lekmod_git\checkout\lekmod_dll\cvgamecoredllutil\include\cvstring.h
CONST	SEGMENT
??_C@_06OJLEAOEG@?$CFs?0?5?$CFd?$AA@ DB '%s, %d', 00H	; `string'
CONST	ENDS
;	COMDAT ??_C@_07NBCGADJA@Unknown?$AA@
CONST	SEGMENT
??_C@_07NBCGADJA@Unknown?$AA@ DB 'Unknown', 00H		; `string'
CONST	ENDS
;	COMDAT ??_C@_0O@FEIHADIP@Branch?5?$CFd?0?5?$CFd?$AA@
CONST	SEGMENT
??_C@_0O@FEIHADIP@Branch?5?$CFd?0?5?$CFd?$AA@ DB 'Branch %d, %d', 00H ; `string'
CONST	ENDS
;	COMDAT ??_C@_02KEGNLNML@?0?5?$AA@
CONST	SEGMENT
??_C@_02KEGNLNML@?0?5?$AA@ DB ', ', 00H			; `string'
CONST	ENDS
;	COMDAT ??_C@_06NHKAIDD@?$CF03d?0?5?$AA@
CONST	SEGMENT
??_C@_06NHKAIDD@?$CF03d?0?5?$AA@ DB '%03d, ', 00H	; `string'
CONST	ENDS
;	COMDAT xdata$x
xdata$x	SEGMENT
__ehfuncinfo$?LogPossiblePolicies@CvPolicyAI@@AAEXXZ DD 019930522H
	DD	08H
	DD	FLAT:__unwindtable$?LogPossiblePolicies@CvPolicyAI@@AAEXXZ
	DD	2 DUP(00H)
	DD	2 DUP(00H)
	DD	00H
	DD	01H
__unwindtable$?LogPossiblePolicies@CvPolicyAI@@AAEXXZ DD 0ffffffffH
	DD	FLAT:__unwindfunclet$?LogPossiblePolicies@CvPolicyAI@@AAEXXZ$0
	DD	00H
	DD	FLAT:__unwindfunclet$?LogPossiblePolicies@CvPolicyAI@@AAEXXZ$1
	DD	01H
	DD	FLAT:__unwindfunclet$?LogPossiblePolicies@CvPolicyAI@@AAEXXZ$2
	DD	02H
	DD	FLAT:__unwindfunclet$?LogPossiblePolicies@CvPolicyAI@@AAEXXZ$3
	DD	03H
	DD	FLAT:__unwindfunclet$?LogPossiblePolicies@CvPolicyAI@@AAEXXZ$4
	DD	04H
	DD	FLAT:__unwindfunclet$?LogPossiblePolicies@CvPolicyAI@@AAEXXZ$5
	DD	04H
	DD	FLAT:__unwindfunclet$?LogPossiblePolicies@CvPolicyAI@@AAEXXZ$6
	DD	04H
	DD	FLAT:__unwindfunclet$?LogPossiblePolicies@CvPolicyAI@@AAEXXZ$7
; Function compile flags: /Odtp
; File d:\sources\lekmod_git\checkout\lekmod_dll\cvgamecoredll_expansion2\cvpolicyai.cpp
xdata$x	ENDS
;	COMDAT ?LogPossiblePolicies@CvPolicyAI@@AAEXXZ
_TEXT	SEGMENT
tv269 = -332						; size = 4
tv204 = -328						; size = 4
tv239 = -324						; size = 4
tv280 = -320						; size = 4
tv291 = -316						; size = 4
tv95 = -312						; size = 4
_this$ = -308						; size = 4
$T224455 = -304						; size = 4
$T224451 = -300						; size = 4
_elem$224420 = -296					; size = 8
$T224402 = -288						; size = 4
$T224397 = -284						; size = 4
$T224389 = -280						; size = 4
$T224388 = -276						; size = 4
$T224384 = -272						; size = 4
$T224350 = -268						; size = 28
$T224347 = -240						; size = 28
$T224346 = -212						; size = 28
_szPolicyType$221905 = -184				; size = 4
_pPolicyEntry$221904 = -180				; size = 4
_ePolicy$221902 = -176					; size = 4
_iWeight$221898 = -172					; size = 4
_iI$221894 = -168					; size = 4
_strOutBuf$221883 = -164				; size = 28
_playerName$221886 = -136				; size = 28
_iNumBranches$221893 = -108				; size = 4
_strDesc$221887 = -104					; size = 28
_pLog$221888 = -76					; size = 4
_strTemp$221885 = -72					; size = 28
_strBaseString$221884 = -44				; size = 28
__$ArrayPad$ = -16					; size = 4
__$EHRec$ = -12						; size = 12
?LogPossiblePolicies@CvPolicyAI@@AAEXXZ PROC		; CvPolicyAI::LogPossiblePolicies, COMDAT
; _this$ = ecx

; 913  : {

	push	ebp
	mov	ebp, esp
	push	-1
	push	__ehhandler$?LogPossiblePolicies@CvPolicyAI@@AAEXXZ
	mov	eax, DWORD PTR fs:0
	push	eax
	sub	esp, 320				; 00000140H
	mov	eax, DWORD PTR ___security_cookie
	xor	eax, ebp
	mov	DWORD PTR __$ArrayPad$[ebp], eax
	push	eax
	lea	eax, DWORD PTR __$EHRec$[ebp]
	mov	DWORD PTR fs:0, eax
	mov	DWORD PTR _this$[ebp], ecx

; 914  : 	if(GC.getLogging() && GC.getAILogging())

	mov	ecx, OFFSET ?gGlobals@@3VCvGlobals@@A	; gGlobals
	call	?getLogging@CvGlobals@@QAE_NXZ		; CvGlobals::getLogging
	movzx	eax, al
	test	eax, eax
	je	$LN7@LogPossibl
	mov	ecx, OFFSET ?gGlobals@@3VCvGlobals@@A	; gGlobals
	call	?getAILogging@CvGlobals@@QAE_NXZ	; CvGlobals::getAILogging
	movzx	ecx, al
	test	ecx, ecx
	je	$LN7@LogPossibl

; 915  : 	{
; 916  : 		CvString strOutBuf;

	lea	ecx, DWORD PTR _strOutBuf$221883[ebp]
	call	DWORD PTR __imp_??0?$basic_string@DU?$char_traits@D@std@@V?$allocator@D@2@@std@@QAE@XZ
	mov	DWORD PTR __$EHRec$[ebp+8], 0

; 917  : 		CvString strBaseString;

	lea	ecx, DWORD PTR _strBaseString$221884[ebp]
	call	DWORD PTR __imp_??0?$basic_string@DU?$char_traits@D@std@@V?$allocator@D@2@@std@@QAE@XZ
	mov	BYTE PTR __$EHRec$[ebp+8], 1

; 918  : 		CvString strTemp;

	lea	ecx, DWORD PTR _strTemp$221885[ebp]
	call	DWORD PTR __imp_??0?$basic_string@DU?$char_traits@D@std@@V?$allocator@D@2@@std@@QAE@XZ
	mov	BYTE PTR __$EHRec$[ebp+8], 2

; 919  : 		CvString playerName;

	lea	ecx, DWORD PTR _playerName$221886[ebp]
	call	DWORD PTR __imp_??0?$basic_string@DU?$char_traits@D@std@@V?$allocator@D@2@@std@@QAE@XZ
	mov	BYTE PTR __$EHRec$[ebp+8], 3

; 920  : 		CvString strDesc;

	lea	ecx, DWORD PTR _strDesc$221887[ebp]
	call	DWORD PTR __imp_??0?$basic_string@DU?$char_traits@D@std@@V?$allocator@D@2@@std@@QAE@XZ
	mov	BYTE PTR __$EHRec$[ebp+8], 4

; 921  : 
; 922  : 		// Find the name of this civ and city
; 923  : 		playerName = m_pCurrentPolicies->GetPlayer()->getCivilizationShortDescription();

	mov	edx, DWORD PTR _this$[ebp]
	mov	ecx, DWORD PTR [edx]
	call	?GetPlayer@CvPlayerPolicies@@QAEPAVCvPlayer@@XZ ; CvPlayerPolicies::GetPlayer
	mov	ecx, eax
	call	?getCivilizationShortDescription@CvPlayer@@QBEPBDXZ ; CvPlayer::getCivilizationShortDescription
	mov	DWORD PTR $T224384[ebp], eax
	cmp	DWORD PTR $T224384[ebp], 0
	je	SHORT $LN35@LogPossibl
	mov	eax, DWORD PTR $T224384[ebp]
	push	eax
	lea	ecx, DWORD PTR _playerName$221886[ebp]
	call	DWORD PTR __imp_?assign@?$basic_string@DU?$char_traits@D@std@@V?$allocator@D@2@@std@@QAEAAV12@PBD@Z
	jmp	SHORT $LN36@LogPossibl
$LN35@LogPossibl:
	lea	ecx, DWORD PTR _playerName$221886[ebp]
	call	DWORD PTR __imp_?clear@?$basic_string@DU?$char_traits@D@std@@V?$allocator@D@2@@std@@QAEXXZ
$LN36@LogPossibl:

; 924  : 
; 925  : 		FILogFile* pLog;
; 926  : 		pLog = LOGFILEMGR.GetLog(GetLogFileName(playerName), FILogFile::kDontTimeStamp);

	call	?GetInstance@FILogFileMgr@@SAAAV1@XZ	; FILogFileMgr::GetInstance
	mov	DWORD PTR tv95[ebp], eax
	lea	ecx, DWORD PTR _playerName$221886[ebp]
	push	ecx
	lea	edx, DWORD PTR $T224346[ebp]
	push	edx
	mov	ecx, DWORD PTR _this$[ebp]
	call	?GetLogFileName@CvPolicyAI@@ABE?AVCvString@@AAV2@@Z ; CvPolicyAI::GetLogFileName
	mov	DWORD PTR tv291[ebp], eax
	mov	eax, DWORD PTR tv291[ebp]
	mov	DWORD PTR $T224388[ebp], eax
	mov	BYTE PTR __$EHRec$[ebp+8], 5
	mov	ecx, DWORD PTR $T224388[ebp]
	call	DWORD PTR __imp_?c_str@?$basic_string@DU?$char_traits@D@std@@V?$allocator@D@2@@std@@QBEPBDXZ
	mov	DWORD PTR $T224389[ebp], eax
	push	0
	push	1
	mov	ecx, DWORD PTR $T224389[ebp]
	push	ecx
	mov	edx, DWORD PTR tv95[ebp]
	mov	eax, DWORD PTR [edx]
	mov	ecx, DWORD PTR tv95[ebp]
	mov	edx, DWORD PTR [eax+12]
	call	edx
	mov	DWORD PTR _pLog$221888[ebp], eax
	mov	BYTE PTR __$EHRec$[ebp+8], 4
	lea	ecx, DWORD PTR $T224346[ebp]
	call	DWORD PTR __imp_??1?$basic_string@DU?$char_traits@D@std@@V?$allocator@D@2@@std@@QAE@XZ

; 927  : 
; 928  : 		// Get the leading info for this line
; 929  : 		strBaseString.Format("%03d, ", GC.getGame().getElapsedGameTurns());

	mov	eax, DWORD PTR ?gGlobals@@3VCvGlobals@@A+48
	mov	DWORD PTR $T224397[ebp], eax
	mov	ecx, DWORD PTR $T224397[ebp]
	call	?getElapsedGameTurns@CvGame@@QBEHXZ	; CvGame::getElapsedGameTurns
	push	eax
	push	OFFSET ??_C@_06NHKAIDD@?$CF03d?0?5?$AA@
	lea	ecx, DWORD PTR _strBaseString$221884[ebp]
	push	ecx
	call	?Format@CvString@@QAAXPBDZZ		; CvString::Format
	add	esp, 12					; 0000000cH

; 930  : 		strBaseString += playerName + ", ";

	push	OFFSET ??_C@_02KEGNLNML@?0?5?$AA@
	lea	edx, DWORD PTR _playerName$221886[ebp]
	push	edx
	lea	eax, DWORD PTR $T224347[ebp]
	push	eax
	call	DWORD PTR __imp_??$?HDU?$char_traits@D@std@@V?$allocator@D@1@@std@@YA?AV?$basic_string@DU?$char_traits@D@std@@V?$allocator@D@2@@0@ABV10@PBD@Z
	add	esp, 12					; 0000000cH
	mov	DWORD PTR tv280[ebp], eax
	mov	ecx, DWORD PTR tv280[ebp]
	mov	DWORD PTR tv239[ebp], ecx
	mov	BYTE PTR __$EHRec$[ebp+8], 6
	mov	edx, DWORD PTR tv239[ebp]
	push	edx
	lea	ecx, DWORD PTR _strBaseString$221884[ebp]
	call	DWORD PTR __imp_??Y?$basic_string@DU?$char_traits@D@std@@V?$allocator@D@2@@std@@QAEAAV01@ABV01@@Z
	mov	BYTE PTR __$EHRec$[ebp+8], 4
	lea	ecx, DWORD PTR $T224347[ebp]
	call	DWORD PTR __imp_??1?$basic_string@DU?$char_traits@D@std@@V?$allocator@D@2@@std@@QAE@XZ

; 931  : 
; 932  : #ifdef AUI_WARNING_FIXES
; 933  : 		uint iNumBranches = GC.getNumPolicyBranchInfos();
; 934  : #else
; 935  : 		int iNumBranches = GC.getNumPolicyBranchInfos();

	mov	ecx, OFFSET ?gGlobals@@3VCvGlobals@@A	; gGlobals
	call	?getNumPolicyBranchInfos@CvGlobals@@QAEHXZ ; CvGlobals::getNumPolicyBranchInfos
	mov	DWORD PTR _iNumBranches$221893[ebp], eax

; 936  : #endif
; 937  : 
; 938  : 		// Dump out the weight of each possible policy
; 939  : 		for(int iI = 0; iI < m_AdoptablePolicies.size(); iI++)

	mov	DWORD PTR _iI$221894[ebp], 0
	jmp	SHORT $LN5@LogPossibl
$LN4@LogPossibl:
	mov	eax, DWORD PTR _iI$221894[ebp]
	add	eax, 1
	mov	DWORD PTR _iI$221894[ebp], eax
$LN5@LogPossibl:
	mov	ecx, DWORD PTR _this$[ebp]
	mov	edx, DWORD PTR [ecx+536]
	mov	DWORD PTR $T224402[ebp], edx
	mov	eax, DWORD PTR _iI$221894[ebp]
	cmp	eax, DWORD PTR $T224402[ebp]
	jge	$LN3@LogPossibl

; 940  : 		{
; 941  : 			int iWeight = m_AdoptablePolicies.GetWeight(iI);

	mov	DWORD PTR _elem$224420[ebp], 0
	mov	DWORD PTR _elem$224420[ebp+4], 0
	mov	ecx, DWORD PTR _this$[ebp]
	mov	edx, DWORD PTR [ecx+532]
	mov	eax, DWORD PTR _iI$221894[ebp]
	mov	ecx, DWORD PTR [edx+eax*8]
	mov	edx, DWORD PTR [edx+eax*8+4]
	mov	DWORD PTR _elem$224420[ebp], ecx
	mov	DWORD PTR _elem$224420[ebp+4], edx
	mov	eax, DWORD PTR _elem$224420[ebp+4]
	mov	DWORD PTR _iWeight$221898[ebp], eax

; 942  : 
; 943  : 			if(m_AdoptablePolicies.GetElement(iI) < iNumBranches)

	mov	ecx, DWORD PTR _this$[ebp]
	mov	edx, DWORD PTR [ecx+532]
	mov	eax, DWORD PTR _iI$221894[ebp]
	mov	ecx, DWORD PTR [edx+eax*8]
	cmp	ecx, DWORD PTR _iNumBranches$221893[ebp]
	jge	SHORT $LN63@LogPossibl

; 944  : 			{
; 945  : 				strTemp.Format("Branch %d, %d", m_AdoptablePolicies.GetElement(iI), iWeight);

	mov	edx, DWORD PTR _iWeight$221898[ebp]
	push	edx
	mov	eax, DWORD PTR _this$[ebp]
	mov	ecx, DWORD PTR [eax+532]
	mov	edx, DWORD PTR _iI$221894[ebp]
	mov	eax, DWORD PTR [ecx+edx*8]
	push	eax
	push	OFFSET ??_C@_0O@FEIHADIP@Branch?5?$CFd?0?5?$CFd?$AA@
	lea	ecx, DWORD PTR _strTemp$221885[ebp]
	push	ecx
	call	?Format@CvString@@QAAXPBDZZ		; CvString::Format
	add	esp, 16					; 00000010H

; 946  : 			}
; 947  : 			else

	jmp	$LN1@LogPossibl

; 948  : 			{
; 949  : 
; 950  : 				PolicyTypes ePolicy = (PolicyTypes)(m_AdoptablePolicies.GetElement(iI) - iNumBranches);

$LN63@LogPossibl:
	mov	edx, DWORD PTR _this$[ebp]
	mov	eax, DWORD PTR [edx+532]
	mov	ecx, DWORD PTR _iI$221894[ebp]
	mov	edx, DWORD PTR [eax+ecx*8]
	sub	edx, DWORD PTR _iNumBranches$221893[ebp]
	mov	DWORD PTR _ePolicy$221902[ebp], edx

; 951  : 				CvPolicyEntry* pPolicyEntry = GC.getPolicyInfo(ePolicy);

	mov	eax, DWORD PTR _ePolicy$221902[ebp]
	push	eax
	mov	ecx, OFFSET ?gGlobals@@3VCvGlobals@@A	; gGlobals
	call	?getPolicyInfo@CvGlobals@@QAEPAVCvPolicyEntry@@W4PolicyTypes@@@Z ; CvGlobals::getPolicyInfo
	mov	DWORD PTR _pPolicyEntry$221904[ebp], eax

; 952  : 				const char* szPolicyType = (pPolicyEntry != NULL)? pPolicyEntry->GetType() : "Unknown";

	cmp	DWORD PTR _pPolicyEntry$221904[ebp], 0
	je	SHORT $LN9@LogPossibl
	mov	ecx, DWORD PTR _pPolicyEntry$221904[ebp]
	add	ecx, 176				; 000000b0H
	call	DWORD PTR __imp_?c_str@?$basic_string@DU?$char_traits@D@std@@V?$allocator@D@2@@std@@QBEPBDXZ
	mov	DWORD PTR tv204[ebp], eax
	jmp	SHORT $LN10@LogPossibl
$LN9@LogPossibl:
	mov	DWORD PTR tv204[ebp], OFFSET ??_C@_07NBCGADJA@Unknown?$AA@
$LN10@LogPossibl:
	mov	ecx, DWORD PTR tv204[ebp]
	mov	DWORD PTR _szPolicyType$221905[ebp], ecx

; 953  : 				strTemp.Format("%s, %d", szPolicyType, iWeight);

	mov	edx, DWORD PTR _iWeight$221898[ebp]
	push	edx
	mov	eax, DWORD PTR _szPolicyType$221905[ebp]
	push	eax
	push	OFFSET ??_C@_06OJLEAOEG@?$CFs?0?5?$CFd?$AA@
	lea	ecx, DWORD PTR _strTemp$221885[ebp]
	push	ecx
	call	?Format@CvString@@QAAXPBDZZ		; CvString::Format
	add	esp, 16					; 00000010H
$LN1@LogPossibl:

; 954  : 			}
; 955  : 			strOutBuf = strBaseString + strTemp;

	lea	edx, DWORD PTR _strTemp$221885[ebp]
	push	edx
	lea	eax, DWORD PTR _strBaseString$221884[ebp]
	push	eax
	lea	ecx, DWORD PTR $T224350[ebp]
	push	ecx
	call	DWORD PTR __imp_??$?HDU?$char_traits@D@std@@V?$allocator@D@1@@std@@YA?AV?$basic_string@DU?$char_traits@D@std@@V?$allocator@D@2@@0@ABV10@0@Z
	add	esp, 12					; 0000000cH
	mov	DWORD PTR tv269[ebp], eax
	mov	edx, DWORD PTR tv269[ebp]
	mov	DWORD PTR $T224451[ebp], edx
	mov	BYTE PTR __$EHRec$[ebp+8], 7
	mov	ecx, DWORD PTR $T224451[ebp]
	call	DWORD PTR __imp_?c_str@?$basic_string@DU?$char_traits@D@std@@V?$allocator@D@2@@std@@QBEPBDXZ
	push	eax
	lea	ecx, DWORD PTR _strOutBuf$221883[ebp]
	call	DWORD PTR __imp_?assign@?$basic_string@DU?$char_traits@D@std@@V?$allocator@D@2@@std@@QAEAAV12@PBD@Z
	mov	BYTE PTR __$EHRec$[ebp+8], 4
	lea	ecx, DWORD PTR $T224350[ebp]
	call	DWORD PTR __imp_??1?$basic_string@DU?$char_traits@D@std@@V?$allocator@D@2@@std@@QAE@XZ

; 956  : 			pLog->Msg(strOutBuf);

	lea	ecx, DWORD PTR _strOutBuf$221883[ebp]
	call	DWORD PTR __imp_?c_str@?$basic_string@DU?$char_traits@D@std@@V?$allocator@D@2@@std@@QBEPBDXZ
	mov	DWORD PTR $T224455[ebp], eax
	mov	eax, DWORD PTR $T224455[ebp]
	push	eax
	mov	ecx, DWORD PTR _pLog$221888[ebp]
	mov	edx, DWORD PTR [ecx]
	mov	eax, DWORD PTR _pLog$221888[ebp]
	push	eax
	mov	ecx, DWORD PTR [edx]
	call	ecx
	add	esp, 8

; 957  : 		}

	jmp	$LN4@LogPossibl
$LN3@LogPossibl:

; 958  : 	}

	mov	BYTE PTR __$EHRec$[ebp+8], 3
	lea	ecx, DWORD PTR _strDesc$221887[ebp]
	call	DWORD PTR __imp_??1?$basic_string@DU?$char_traits@D@std@@V?$allocator@D@2@@std@@QAE@XZ
	mov	BYTE PTR __$EHRec$[ebp+8], 2
	lea	ecx, DWORD PTR _playerName$221886[ebp]
	call	DWORD PTR __imp_??1?$basic_string@DU?$char_traits@D@std@@V?$allocator@D@2@@std@@QAE@XZ
	mov	BYTE PTR __$EHRec$[ebp+8], 1
	lea	ecx, DWORD PTR _strTemp$221885[ebp]
	call	DWORD PTR __imp_??1?$basic_string@DU?$char_traits@D@std@@V?$allocator@D@2@@std@@QAE@XZ
	mov	BYTE PTR __$EHRec$[ebp+8], 0
	lea	ecx, DWORD PTR _strBaseString$221884[ebp]
	call	DWORD PTR __imp_??1?$basic_string@DU?$char_traits@D@std@@V?$allocator@D@2@@std@@QAE@XZ
	mov	DWORD PTR __$EHRec$[ebp+8], -1
	lea	ecx, DWORD PTR _strOutBuf$221883[ebp]
	call	DWORD PTR __imp_??1?$basic_string@DU?$char_traits@D@std@@V?$allocator@D@2@@std@@QAE@XZ
$LN7@LogPossibl:

; 959  : }

	mov	ecx, DWORD PTR __$EHRec$[ebp]
	mov	DWORD PTR fs:0, ecx
	pop	ecx
	mov	ecx, DWORD PTR __$ArrayPad$[ebp]
	xor	ecx, ebp
	call	@__security_check_cookie@4
	mov	esp, ebp
	pop	ebp
	ret	0
_TEXT	ENDS
;	COMDAT text$x
text$x	SEGMENT
__unwindfunclet$?LogPossiblePolicies@CvPolicyAI@@AAEXXZ$0:
	lea	ecx, DWORD PTR _strOutBuf$221883[ebp]
	jmp	??1CvString@@QAE@XZ			; CvString::~CvString
__unwindfunclet$?LogPossiblePolicies@CvPolicyAI@@AAEXXZ$1:
	lea	ecx, DWORD PTR _strBaseString$221884[ebp]
	jmp	??1CvString@@QAE@XZ			; CvString::~CvString
__unwindfunclet$?LogPossiblePolicies@CvPolicyAI@@AAEXXZ$2:
	lea	ecx, DWORD PTR _strTemp$221885[ebp]
	jmp	??1CvString@@QAE@XZ			; CvString::~CvString
__unwindfunclet$?LogPossiblePolicies@CvPolicyAI@@AAEXXZ$3:
	lea	ecx, DWORD PTR _playerName$221886[ebp]
	jmp	??1CvString@@QAE@XZ			; CvString::~CvString
__unwindfunclet$?LogPossiblePolicies@CvPolicyAI@@AAEXXZ$4:
	lea	ecx, DWORD PTR _strDesc$221887[ebp]
	jmp	??1CvString@@QAE@XZ			; CvString::~CvString
__unwindfunclet$?LogPossiblePolicies@CvPolicyAI@@AAEXXZ$5:
	lea	ecx, DWORD PTR $T224346[ebp]
	jmp	??1CvString@@QAE@XZ			; CvString::~CvString
__unwindfunclet$?LogPossiblePolicies@CvPolicyAI@@AAEXXZ$6:
	lea	ecx, DWORD PTR $T224347[ebp]
	jmp	DWORD PTR __imp_??1?$basic_string@DU?$char_traits@D@std@@V?$allocator@D@2@@std@@QAE@XZ
__unwindfunclet$?LogPossiblePolicies@CvPolicyAI@@AAEXXZ$7:
	lea	ecx, DWORD PTR $T224350[ebp]
	jmp	DWORD PTR __imp_??1?$basic_string@DU?$char_traits@D@std@@V?$allocator@D@2@@std@@QAE@XZ
__ehhandler$?LogPossiblePolicies@CvPolicyAI@@AAEXXZ:
	mov	edx, DWORD PTR [esp+8]
	lea	eax, DWORD PTR [edx+12]
	mov	ecx, DWORD PTR [edx-324]
	xor	ecx, eax
	call	@__security_check_cookie@4
	mov	ecx, DWORD PTR [edx-4]
	xor	ecx, eax
	call	@__security_check_cookie@4
	mov	eax, OFFSET __ehfuncinfo$?LogPossiblePolicies@CvPolicyAI@@AAEXXZ
	jmp	___CxxFrameHandler3
text$x	ENDS
?LogPossiblePolicies@CvPolicyAI@@AAEXXZ ENDP		; CvPolicyAI::LogPossiblePolicies
PUBLIC	??_C@_0L@DBMLLMJN@CHOSEN?0?5?$CFs?$AA@		; `string'
PUBLIC	__$ArrayPad$
;	COMDAT ??_C@_0L@DBMLLMJN@CHOSEN?0?5?$CFs?$AA@
; File d:\sources\lekmod_git\checkout\lekmod_dll\cvgamecoredllutil\include\cvstring.h
CONST	SEGMENT
??_C@_0L@DBMLLMJN@CHOSEN?0?5?$CFs?$AA@ DB 'CHOSEN, %s', 00H ; `string'
CONST	ENDS
;	COMDAT xdata$x
xdata$x	SEGMENT
__ehfuncinfo$?LogPolicyChoice@CvPolicyAI@@AAEXW4PolicyTypes@@@Z DD 019930522H
	DD	08H
	DD	FLAT:__unwindtable$?LogPolicyChoice@CvPolicyAI@@AAEXW4PolicyTypes@@@Z
	DD	2 DUP(00H)
	DD	2 DUP(00H)
	DD	00H
	DD	01H
__unwindtable$?LogPolicyChoice@CvPolicyAI@@AAEXW4PolicyTypes@@@Z DD 0ffffffffH
	DD	FLAT:__unwindfunclet$?LogPolicyChoice@CvPolicyAI@@AAEXW4PolicyTypes@@@Z$0
	DD	00H
	DD	FLAT:__unwindfunclet$?LogPolicyChoice@CvPolicyAI@@AAEXW4PolicyTypes@@@Z$1
	DD	01H
	DD	FLAT:__unwindfunclet$?LogPolicyChoice@CvPolicyAI@@AAEXW4PolicyTypes@@@Z$2
	DD	02H
	DD	FLAT:__unwindfunclet$?LogPolicyChoice@CvPolicyAI@@AAEXW4PolicyTypes@@@Z$3
	DD	03H
	DD	FLAT:__unwindfunclet$?LogPolicyChoice@CvPolicyAI@@AAEXW4PolicyTypes@@@Z$4
	DD	04H
	DD	FLAT:__unwindfunclet$?LogPolicyChoice@CvPolicyAI@@AAEXW4PolicyTypes@@@Z$5
	DD	04H
	DD	FLAT:__unwindfunclet$?LogPolicyChoice@CvPolicyAI@@AAEXW4PolicyTypes@@@Z$6
	DD	04H
	DD	FLAT:__unwindfunclet$?LogPolicyChoice@CvPolicyAI@@AAEXW4PolicyTypes@@@Z$7
; Function compile flags: /Odtp
; File d:\sources\lekmod_git\checkout\lekmod_dll\cvgamecoredll_expansion2\cvpolicyai.cpp
xdata$x	ENDS
;	COMDAT ?LogPolicyChoice@CvPolicyAI@@AAEXW4PolicyTypes@@@Z
_TEXT	SEGMENT
tv239 = -304						; size = 4
tv175 = -300						; size = 4
tv209 = -296						; size = 4
tv250 = -292						; size = 4
tv261 = -288						; size = 4
tv95 = -284						; size = 4
_this$ = -280						; size = 4
$T224547 = -276						; size = 4
$T224543 = -272						; size = 4
$T224536 = -268						; size = 4
$T224528 = -264						; size = 4
$T224527 = -260						; size = 4
$T224523 = -256						; size = 4
$T224489 = -252						; size = 28
$T224486 = -224						; size = 28
$T224485 = -196						; size = 28
_strOutBuf$221913 = -168				; size = 28
_playerName$221916 = -140				; size = 28
_szPolicyType$221922 = -112				; size = 4
_strDesc$221917 = -108					; size = 28
_pLog$221918 = -80					; size = 4
_pPolicyEntry$221921 = -76				; size = 4
_strTemp$221915 = -72					; size = 28
_strBaseString$221914 = -44				; size = 28
__$ArrayPad$ = -16					; size = 4
__$EHRec$ = -12						; size = 12
_ePolicy$ = 8						; size = 4
?LogPolicyChoice@CvPolicyAI@@AAEXW4PolicyTypes@@@Z PROC	; CvPolicyAI::LogPolicyChoice, COMDAT
; _this$ = ecx

; 963  : {

	push	ebp
	mov	ebp, esp
	push	-1
	push	__ehhandler$?LogPolicyChoice@CvPolicyAI@@AAEXW4PolicyTypes@@@Z
	mov	eax, DWORD PTR fs:0
	push	eax
	sub	esp, 292				; 00000124H
	mov	eax, DWORD PTR ___security_cookie
	xor	eax, ebp
	mov	DWORD PTR __$ArrayPad$[ebp], eax
	push	eax
	lea	eax, DWORD PTR __$EHRec$[ebp]
	mov	DWORD PTR fs:0, eax
	mov	DWORD PTR _this$[ebp], ecx

; 964  : 	if(GC.getLogging() && GC.getAILogging())

	mov	ecx, OFFSET ?gGlobals@@3VCvGlobals@@A	; gGlobals
	call	?getLogging@CvGlobals@@QAE_NXZ		; CvGlobals::getLogging
	movzx	eax, al
	test	eax, eax
	je	$LN2@LogPolicyC
	mov	ecx, OFFSET ?gGlobals@@3VCvGlobals@@A	; gGlobals
	call	?getAILogging@CvGlobals@@QAE_NXZ	; CvGlobals::getAILogging
	movzx	ecx, al
	test	ecx, ecx
	je	$LN2@LogPolicyC

; 965  : 	{
; 966  : 		CvString strOutBuf;

	lea	ecx, DWORD PTR _strOutBuf$221913[ebp]
	call	DWORD PTR __imp_??0?$basic_string@DU?$char_traits@D@std@@V?$allocator@D@2@@std@@QAE@XZ
	mov	DWORD PTR __$EHRec$[ebp+8], 0

; 967  : 		CvString strBaseString;

	lea	ecx, DWORD PTR _strBaseString$221914[ebp]
	call	DWORD PTR __imp_??0?$basic_string@DU?$char_traits@D@std@@V?$allocator@D@2@@std@@QAE@XZ
	mov	BYTE PTR __$EHRec$[ebp+8], 1

; 968  : 		CvString strTemp;

	lea	ecx, DWORD PTR _strTemp$221915[ebp]
	call	DWORD PTR __imp_??0?$basic_string@DU?$char_traits@D@std@@V?$allocator@D@2@@std@@QAE@XZ
	mov	BYTE PTR __$EHRec$[ebp+8], 2

; 969  : 		CvString playerName;

	lea	ecx, DWORD PTR _playerName$221916[ebp]
	call	DWORD PTR __imp_??0?$basic_string@DU?$char_traits@D@std@@V?$allocator@D@2@@std@@QAE@XZ
	mov	BYTE PTR __$EHRec$[ebp+8], 3

; 970  : 		CvString strDesc;

	lea	ecx, DWORD PTR _strDesc$221917[ebp]
	call	DWORD PTR __imp_??0?$basic_string@DU?$char_traits@D@std@@V?$allocator@D@2@@std@@QAE@XZ
	mov	BYTE PTR __$EHRec$[ebp+8], 4

; 971  : 
; 972  : 		// Find the name of this civ and city
; 973  : 		playerName = m_pCurrentPolicies->GetPlayer()->getCivilizationShortDescription();

	mov	edx, DWORD PTR _this$[ebp]
	mov	ecx, DWORD PTR [edx]
	call	?GetPlayer@CvPlayerPolicies@@QAEPAVCvPlayer@@XZ ; CvPlayerPolicies::GetPlayer
	mov	ecx, eax
	call	?getCivilizationShortDescription@CvPlayer@@QBEPBDXZ ; CvPlayer::getCivilizationShortDescription
	mov	DWORD PTR $T224523[ebp], eax
	cmp	DWORD PTR $T224523[ebp], 0
	je	SHORT $LN30@LogPolicyC
	mov	eax, DWORD PTR $T224523[ebp]
	push	eax
	lea	ecx, DWORD PTR _playerName$221916[ebp]
	call	DWORD PTR __imp_?assign@?$basic_string@DU?$char_traits@D@std@@V?$allocator@D@2@@std@@QAEAAV12@PBD@Z
	jmp	SHORT $LN31@LogPolicyC
$LN30@LogPolicyC:
	lea	ecx, DWORD PTR _playerName$221916[ebp]
	call	DWORD PTR __imp_?clear@?$basic_string@DU?$char_traits@D@std@@V?$allocator@D@2@@std@@QAEXXZ
$LN31@LogPolicyC:

; 974  : 
; 975  : 		FILogFile* pLog;
; 976  : 		pLog = LOGFILEMGR.GetLog(GetLogFileName(playerName), FILogFile::kDontTimeStamp);

	call	?GetInstance@FILogFileMgr@@SAAAV1@XZ	; FILogFileMgr::GetInstance
	mov	DWORD PTR tv95[ebp], eax
	lea	ecx, DWORD PTR _playerName$221916[ebp]
	push	ecx
	lea	edx, DWORD PTR $T224485[ebp]
	push	edx
	mov	ecx, DWORD PTR _this$[ebp]
	call	?GetLogFileName@CvPolicyAI@@ABE?AVCvString@@AAV2@@Z ; CvPolicyAI::GetLogFileName
	mov	DWORD PTR tv261[ebp], eax
	mov	eax, DWORD PTR tv261[ebp]
	mov	DWORD PTR $T224527[ebp], eax
	mov	BYTE PTR __$EHRec$[ebp+8], 5
	mov	ecx, DWORD PTR $T224527[ebp]
	call	DWORD PTR __imp_?c_str@?$basic_string@DU?$char_traits@D@std@@V?$allocator@D@2@@std@@QBEPBDXZ
	mov	DWORD PTR $T224528[ebp], eax
	push	0
	push	1
	mov	ecx, DWORD PTR $T224528[ebp]
	push	ecx
	mov	edx, DWORD PTR tv95[ebp]
	mov	eax, DWORD PTR [edx]
	mov	ecx, DWORD PTR tv95[ebp]
	mov	edx, DWORD PTR [eax+12]
	call	edx
	mov	DWORD PTR _pLog$221918[ebp], eax
	mov	BYTE PTR __$EHRec$[ebp+8], 4
	lea	ecx, DWORD PTR $T224485[ebp]
	call	DWORD PTR __imp_??1?$basic_string@DU?$char_traits@D@std@@V?$allocator@D@2@@std@@QAE@XZ

; 977  : 
; 978  : 		// Get the leading info for this line
; 979  : 		strBaseString.Format("%03d, ", GC.getGame().getElapsedGameTurns());

	mov	eax, DWORD PTR ?gGlobals@@3VCvGlobals@@A+48
	mov	DWORD PTR $T224536[ebp], eax
	mov	ecx, DWORD PTR $T224536[ebp]
	call	?getElapsedGameTurns@CvGame@@QBEHXZ	; CvGame::getElapsedGameTurns
	push	eax
	push	OFFSET ??_C@_06NHKAIDD@?$CF03d?0?5?$AA@
	lea	ecx, DWORD PTR _strBaseString$221914[ebp]
	push	ecx
	call	?Format@CvString@@QAAXPBDZZ		; CvString::Format
	add	esp, 12					; 0000000cH

; 980  : 		strBaseString += playerName + ", ";

	push	OFFSET ??_C@_02KEGNLNML@?0?5?$AA@
	lea	edx, DWORD PTR _playerName$221916[ebp]
	push	edx
	lea	eax, DWORD PTR $T224486[ebp]
	push	eax
	call	DWORD PTR __imp_??$?HDU?$char_traits@D@std@@V?$allocator@D@1@@std@@YA?AV?$basic_string@DU?$char_traits@D@std@@V?$allocator@D@2@@0@ABV10@PBD@Z
	add	esp, 12					; 0000000cH
	mov	DWORD PTR tv250[ebp], eax
	mov	ecx, DWORD PTR tv250[ebp]
	mov	DWORD PTR tv209[ebp], ecx
	mov	BYTE PTR __$EHRec$[ebp+8], 6
	mov	edx, DWORD PTR tv209[ebp]
	push	edx
	lea	ecx, DWORD PTR _strBaseString$221914[ebp]
	call	DWORD PTR __imp_??Y?$basic_string@DU?$char_traits@D@std@@V?$allocator@D@2@@std@@QAEAAV01@ABV01@@Z
	mov	BYTE PTR __$EHRec$[ebp+8], 4
	lea	ecx, DWORD PTR $T224486[ebp]
	call	DWORD PTR __imp_??1?$basic_string@DU?$char_traits@D@std@@V?$allocator@D@2@@std@@QAE@XZ

; 981  : 
; 982  : 		CvPolicyEntry* pPolicyEntry = GC.getPolicyInfo(ePolicy);

	mov	eax, DWORD PTR _ePolicy$[ebp]
	push	eax
	mov	ecx, OFFSET ?gGlobals@@3VCvGlobals@@A	; gGlobals
	call	?getPolicyInfo@CvGlobals@@QAEPAVCvPolicyEntry@@W4PolicyTypes@@@Z ; CvGlobals::getPolicyInfo
	mov	DWORD PTR _pPolicyEntry$221921[ebp], eax

; 983  : 		const char* szPolicyType = (pPolicyEntry != NULL)? pPolicyEntry->GetType() : "Unknown";

	cmp	DWORD PTR _pPolicyEntry$221921[ebp], 0
	je	SHORT $LN4@LogPolicyC
	mov	ecx, DWORD PTR _pPolicyEntry$221921[ebp]
	add	ecx, 176				; 000000b0H
	call	DWORD PTR __imp_?c_str@?$basic_string@DU?$char_traits@D@std@@V?$allocator@D@2@@std@@QBEPBDXZ
	mov	DWORD PTR tv175[ebp], eax
	jmp	SHORT $LN5@LogPolicyC
$LN4@LogPolicyC:
	mov	DWORD PTR tv175[ebp], OFFSET ??_C@_07NBCGADJA@Unknown?$AA@
$LN5@LogPolicyC:
	mov	ecx, DWORD PTR tv175[ebp]
	mov	DWORD PTR _szPolicyType$221922[ebp], ecx

; 984  : 		strTemp.Format("CHOSEN, %s", szPolicyType);

	mov	edx, DWORD PTR _szPolicyType$221922[ebp]
	push	edx
	push	OFFSET ??_C@_0L@DBMLLMJN@CHOSEN?0?5?$CFs?$AA@
	lea	eax, DWORD PTR _strTemp$221915[ebp]
	push	eax
	call	?Format@CvString@@QAAXPBDZZ		; CvString::Format
	add	esp, 12					; 0000000cH

; 985  : 
; 986  : 		strOutBuf = strBaseString + strTemp;

	lea	ecx, DWORD PTR _strTemp$221915[ebp]
	push	ecx
	lea	edx, DWORD PTR _strBaseString$221914[ebp]
	push	edx
	lea	eax, DWORD PTR $T224489[ebp]
	push	eax
	call	DWORD PTR __imp_??$?HDU?$char_traits@D@std@@V?$allocator@D@1@@std@@YA?AV?$basic_string@DU?$char_traits@D@std@@V?$allocator@D@2@@0@ABV10@0@Z
	add	esp, 12					; 0000000cH
	mov	DWORD PTR tv239[ebp], eax
	mov	ecx, DWORD PTR tv239[ebp]
	mov	DWORD PTR $T224543[ebp], ecx
	mov	BYTE PTR __$EHRec$[ebp+8], 7
	mov	ecx, DWORD PTR $T224543[ebp]
	call	DWORD PTR __imp_?c_str@?$basic_string@DU?$char_traits@D@std@@V?$allocator@D@2@@std@@QBEPBDXZ
	push	eax
	lea	ecx, DWORD PTR _strOutBuf$221913[ebp]
	call	DWORD PTR __imp_?assign@?$basic_string@DU?$char_traits@D@std@@V?$allocator@D@2@@std@@QAEAAV12@PBD@Z
	mov	BYTE PTR __$EHRec$[ebp+8], 4
	lea	ecx, DWORD PTR $T224489[ebp]
	call	DWORD PTR __imp_??1?$basic_string@DU?$char_traits@D@std@@V?$allocator@D@2@@std@@QAE@XZ

; 987  : 		pLog->Msg(strOutBuf);

	lea	ecx, DWORD PTR _strOutBuf$221913[ebp]
	call	DWORD PTR __imp_?c_str@?$basic_string@DU?$char_traits@D@std@@V?$allocator@D@2@@std@@QBEPBDXZ
	mov	DWORD PTR $T224547[ebp], eax
	mov	edx, DWORD PTR $T224547[ebp]
	push	edx
	mov	eax, DWORD PTR _pLog$221918[ebp]
	mov	ecx, DWORD PTR [eax]
	mov	edx, DWORD PTR _pLog$221918[ebp]
	push	edx
	mov	eax, DWORD PTR [ecx]
	call	eax
	add	esp, 8

; 988  : 	}

	mov	BYTE PTR __$EHRec$[ebp+8], 3
	lea	ecx, DWORD PTR _strDesc$221917[ebp]
	call	DWORD PTR __imp_??1?$basic_string@DU?$char_traits@D@std@@V?$allocator@D@2@@std@@QAE@XZ
	mov	BYTE PTR __$EHRec$[ebp+8], 2
	lea	ecx, DWORD PTR _playerName$221916[ebp]
	call	DWORD PTR __imp_??1?$basic_string@DU?$char_traits@D@std@@V?$allocator@D@2@@std@@QAE@XZ
	mov	BYTE PTR __$EHRec$[ebp+8], 1
	lea	ecx, DWORD PTR _strTemp$221915[ebp]
	call	DWORD PTR __imp_??1?$basic_string@DU?$char_traits@D@std@@V?$allocator@D@2@@std@@QAE@XZ
	mov	BYTE PTR __$EHRec$[ebp+8], 0
	lea	ecx, DWORD PTR _strBaseString$221914[ebp]
	call	DWORD PTR __imp_??1?$basic_string@DU?$char_traits@D@std@@V?$allocator@D@2@@std@@QAE@XZ
	mov	DWORD PTR __$EHRec$[ebp+8], -1
	lea	ecx, DWORD PTR _strOutBuf$221913[ebp]
	call	DWORD PTR __imp_??1?$basic_string@DU?$char_traits@D@std@@V?$allocator@D@2@@std@@QAE@XZ
$LN2@LogPolicyC:

; 989  : }

	mov	ecx, DWORD PTR __$EHRec$[ebp]
	mov	DWORD PTR fs:0, ecx
	pop	ecx
	mov	ecx, DWORD PTR __$ArrayPad$[ebp]
	xor	ecx, ebp
	call	@__security_check_cookie@4
	mov	esp, ebp
	pop	ebp
	ret	4
_TEXT	ENDS
;	COMDAT text$x
text$x	SEGMENT
__unwindfunclet$?LogPolicyChoice@CvPolicyAI@@AAEXW4PolicyTypes@@@Z$0:
	lea	ecx, DWORD PTR _strOutBuf$221913[ebp]
	jmp	??1CvString@@QAE@XZ			; CvString::~CvString
__unwindfunclet$?LogPolicyChoice@CvPolicyAI@@AAEXW4PolicyTypes@@@Z$1:
	lea	ecx, DWORD PTR _strBaseString$221914[ebp]
	jmp	??1CvString@@QAE@XZ			; CvString::~CvString
__unwindfunclet$?LogPolicyChoice@CvPolicyAI@@AAEXW4PolicyTypes@@@Z$2:
	lea	ecx, DWORD PTR _strTemp$221915[ebp]
	jmp	??1CvString@@QAE@XZ			; CvString::~CvString
__unwindfunclet$?LogPolicyChoice@CvPolicyAI@@AAEXW4PolicyTypes@@@Z$3:
	lea	ecx, DWORD PTR _playerName$221916[ebp]
	jmp	??1CvString@@QAE@XZ			; CvString::~CvString
__unwindfunclet$?LogPolicyChoice@CvPolicyAI@@AAEXW4PolicyTypes@@@Z$4:
	lea	ecx, DWORD PTR _strDesc$221917[ebp]
	jmp	??1CvString@@QAE@XZ			; CvString::~CvString
__unwindfunclet$?LogPolicyChoice@CvPolicyAI@@AAEXW4PolicyTypes@@@Z$5:
	lea	ecx, DWORD PTR $T224485[ebp]
	jmp	??1CvString@@QAE@XZ			; CvString::~CvString
__unwindfunclet$?LogPolicyChoice@CvPolicyAI@@AAEXW4PolicyTypes@@@Z$6:
	lea	ecx, DWORD PTR $T224486[ebp]
	jmp	DWORD PTR __imp_??1?$basic_string@DU?$char_traits@D@std@@V?$allocator@D@2@@std@@QAE@XZ
__unwindfunclet$?LogPolicyChoice@CvPolicyAI@@AAEXW4PolicyTypes@@@Z$7:
	lea	ecx, DWORD PTR $T224489[ebp]
	jmp	DWORD PTR __imp_??1?$basic_string@DU?$char_traits@D@std@@V?$allocator@D@2@@std@@QAE@XZ
__ehhandler$?LogPolicyChoice@CvPolicyAI@@AAEXW4PolicyTypes@@@Z:
	mov	edx, DWORD PTR [esp+8]
	lea	eax, DWORD PTR [edx+12]
	mov	ecx, DWORD PTR [edx-296]
	xor	ecx, eax
	call	@__security_check_cookie@4
	mov	ecx, DWORD PTR [edx-4]
	xor	ecx, eax
	call	@__security_check_cookie@4
	mov	eax, OFFSET __ehfuncinfo$?LogPolicyChoice@CvPolicyAI@@AAEXW4PolicyTypes@@@Z
	jmp	___CxxFrameHandler3
text$x	ENDS
?LogPolicyChoice@CvPolicyAI@@AAEXW4PolicyTypes@@@Z ENDP	; CvPolicyAI::LogPolicyChoice
PUBLIC	??_C@_0BC@GOMKNKMF@CHOSEN?0?5Branch?5?$CFd?$AA@	; `string'
PUBLIC	__$ArrayPad$
;	COMDAT ??_C@_0BC@GOMKNKMF@CHOSEN?0?5Branch?5?$CFd?$AA@
; File d:\sources\lekmod_git\checkout\lekmod_dll\cvgamecoredllutil\include\cvstring.h
CONST	SEGMENT
??_C@_0BC@GOMKNKMF@CHOSEN?0?5Branch?5?$CFd?$AA@ DB 'CHOSEN, Branch %d', 00H ; `string'
CONST	ENDS
;	COMDAT xdata$x
xdata$x	SEGMENT
__ehfuncinfo$?LogBranchChoice@CvPolicyAI@@AAEXW4PolicyBranchTypes@@@Z DD 019930522H
	DD	08H
	DD	FLAT:__unwindtable$?LogBranchChoice@CvPolicyAI@@AAEXW4PolicyBranchTypes@@@Z
	DD	2 DUP(00H)
	DD	2 DUP(00H)
	DD	00H
	DD	01H
__unwindtable$?LogBranchChoice@CvPolicyAI@@AAEXW4PolicyBranchTypes@@@Z DD 0ffffffffH
	DD	FLAT:__unwindfunclet$?LogBranchChoice@CvPolicyAI@@AAEXW4PolicyBranchTypes@@@Z$0
	DD	00H
	DD	FLAT:__unwindfunclet$?LogBranchChoice@CvPolicyAI@@AAEXW4PolicyBranchTypes@@@Z$1
	DD	01H
	DD	FLAT:__unwindfunclet$?LogBranchChoice@CvPolicyAI@@AAEXW4PolicyBranchTypes@@@Z$2
	DD	02H
	DD	FLAT:__unwindfunclet$?LogBranchChoice@CvPolicyAI@@AAEXW4PolicyBranchTypes@@@Z$3
	DD	03H
	DD	FLAT:__unwindfunclet$?LogBranchChoice@CvPolicyAI@@AAEXW4PolicyBranchTypes@@@Z$4
	DD	04H
	DD	FLAT:__unwindfunclet$?LogBranchChoice@CvPolicyAI@@AAEXW4PolicyBranchTypes@@@Z$5
	DD	04H
	DD	FLAT:__unwindfunclet$?LogBranchChoice@CvPolicyAI@@AAEXW4PolicyBranchTypes@@@Z$6
	DD	04H
	DD	FLAT:__unwindfunclet$?LogBranchChoice@CvPolicyAI@@AAEXW4PolicyBranchTypes@@@Z$7
; Function compile flags: /Odtp
; File d:\sources\lekmod_git\checkout\lekmod_dll\cvgamecoredll_expansion2\cvpolicyai.cpp
xdata$x	ENDS
;	COMDAT ?LogBranchChoice@CvPolicyAI@@AAEXW4PolicyBranchTypes@@@Z
_TEXT	SEGMENT
tv228 = -292						; size = 4
tv198 = -288						; size = 4
tv239 = -284						; size = 4
tv250 = -280						; size = 4
tv95 = -276						; size = 4
_this$ = -272						; size = 4
$T224634 = -268						; size = 4
$T224630 = -264						; size = 4
$T224626 = -260						; size = 4
$T224618 = -256						; size = 4
$T224617 = -252						; size = 4
$T224613 = -248						; size = 4
$T224579 = -244						; size = 28
$T224578 = -216						; size = 28
$T224577 = -188						; size = 28
_strOutBuf$221930 = -160				; size = 28
_playerName$221933 = -132				; size = 28
_strDesc$221934 = -104					; size = 28
_pLog$221935 = -76					; size = 4
_strTemp$221932 = -72					; size = 28
_strBaseString$221931 = -44				; size = 28
__$ArrayPad$ = -16					; size = 4
__$EHRec$ = -12						; size = 12
_eBranch$ = 8						; size = 4
?LogBranchChoice@CvPolicyAI@@AAEXW4PolicyBranchTypes@@@Z PROC ; CvPolicyAI::LogBranchChoice, COMDAT
; _this$ = ecx

; 993  : {

	push	ebp
	mov	ebp, esp
	push	-1
	push	__ehhandler$?LogBranchChoice@CvPolicyAI@@AAEXW4PolicyBranchTypes@@@Z
	mov	eax, DWORD PTR fs:0
	push	eax
	sub	esp, 280				; 00000118H
	mov	eax, DWORD PTR ___security_cookie
	xor	eax, ebp
	mov	DWORD PTR __$ArrayPad$[ebp], eax
	push	eax
	lea	eax, DWORD PTR __$EHRec$[ebp]
	mov	DWORD PTR fs:0, eax
	mov	DWORD PTR _this$[ebp], ecx

; 994  : 	if(GC.getLogging() && GC.getAILogging())

	mov	ecx, OFFSET ?gGlobals@@3VCvGlobals@@A	; gGlobals
	call	?getLogging@CvGlobals@@QAE_NXZ		; CvGlobals::getLogging
	movzx	eax, al
	test	eax, eax
	je	$LN2@LogBranchC
	mov	ecx, OFFSET ?gGlobals@@3VCvGlobals@@A	; gGlobals
	call	?getAILogging@CvGlobals@@QAE_NXZ	; CvGlobals::getAILogging
	movzx	ecx, al
	test	ecx, ecx
	je	$LN2@LogBranchC

; 995  : 	{
; 996  : 		CvString strOutBuf;

	lea	ecx, DWORD PTR _strOutBuf$221930[ebp]
	call	DWORD PTR __imp_??0?$basic_string@DU?$char_traits@D@std@@V?$allocator@D@2@@std@@QAE@XZ
	mov	DWORD PTR __$EHRec$[ebp+8], 0

; 997  : 		CvString strBaseString;

	lea	ecx, DWORD PTR _strBaseString$221931[ebp]
	call	DWORD PTR __imp_??0?$basic_string@DU?$char_traits@D@std@@V?$allocator@D@2@@std@@QAE@XZ
	mov	BYTE PTR __$EHRec$[ebp+8], 1

; 998  : 		CvString strTemp;

	lea	ecx, DWORD PTR _strTemp$221932[ebp]
	call	DWORD PTR __imp_??0?$basic_string@DU?$char_traits@D@std@@V?$allocator@D@2@@std@@QAE@XZ
	mov	BYTE PTR __$EHRec$[ebp+8], 2

; 999  : 		CvString playerName;

	lea	ecx, DWORD PTR _playerName$221933[ebp]
	call	DWORD PTR __imp_??0?$basic_string@DU?$char_traits@D@std@@V?$allocator@D@2@@std@@QAE@XZ
	mov	BYTE PTR __$EHRec$[ebp+8], 3

; 1000 : 		CvString strDesc;

	lea	ecx, DWORD PTR _strDesc$221934[ebp]
	call	DWORD PTR __imp_??0?$basic_string@DU?$char_traits@D@std@@V?$allocator@D@2@@std@@QAE@XZ
	mov	BYTE PTR __$EHRec$[ebp+8], 4

; 1001 : 
; 1002 : 		// Find the name of this civ and city
; 1003 : 		playerName = m_pCurrentPolicies->GetPlayer()->getCivilizationShortDescription();

	mov	edx, DWORD PTR _this$[ebp]
	mov	ecx, DWORD PTR [edx]
	call	?GetPlayer@CvPlayerPolicies@@QAEPAVCvPlayer@@XZ ; CvPlayerPolicies::GetPlayer
	mov	ecx, eax
	call	?getCivilizationShortDescription@CvPlayer@@QBEPBDXZ ; CvPlayer::getCivilizationShortDescription
	mov	DWORD PTR $T224613[ebp], eax
	cmp	DWORD PTR $T224613[ebp], 0
	je	SHORT $LN28@LogBranchC
	mov	eax, DWORD PTR $T224613[ebp]
	push	eax
	lea	ecx, DWORD PTR _playerName$221933[ebp]
	call	DWORD PTR __imp_?assign@?$basic_string@DU?$char_traits@D@std@@V?$allocator@D@2@@std@@QAEAAV12@PBD@Z
	jmp	SHORT $LN29@LogBranchC
$LN28@LogBranchC:
	lea	ecx, DWORD PTR _playerName$221933[ebp]
	call	DWORD PTR __imp_?clear@?$basic_string@DU?$char_traits@D@std@@V?$allocator@D@2@@std@@QAEXXZ
$LN29@LogBranchC:

; 1004 : 
; 1005 : 		FILogFile* pLog;
; 1006 : 		pLog = LOGFILEMGR.GetLog(GetLogFileName(playerName), FILogFile::kDontTimeStamp);

	call	?GetInstance@FILogFileMgr@@SAAAV1@XZ	; FILogFileMgr::GetInstance
	mov	DWORD PTR tv95[ebp], eax
	lea	ecx, DWORD PTR _playerName$221933[ebp]
	push	ecx
	lea	edx, DWORD PTR $T224577[ebp]
	push	edx
	mov	ecx, DWORD PTR _this$[ebp]
	call	?GetLogFileName@CvPolicyAI@@ABE?AVCvString@@AAV2@@Z ; CvPolicyAI::GetLogFileName
	mov	DWORD PTR tv250[ebp], eax
	mov	eax, DWORD PTR tv250[ebp]
	mov	DWORD PTR $T224617[ebp], eax
	mov	BYTE PTR __$EHRec$[ebp+8], 5
	mov	ecx, DWORD PTR $T224617[ebp]
	call	DWORD PTR __imp_?c_str@?$basic_string@DU?$char_traits@D@std@@V?$allocator@D@2@@std@@QBEPBDXZ
	mov	DWORD PTR $T224618[ebp], eax
	push	0
	push	1
	mov	ecx, DWORD PTR $T224618[ebp]
	push	ecx
	mov	edx, DWORD PTR tv95[ebp]
	mov	eax, DWORD PTR [edx]
	mov	ecx, DWORD PTR tv95[ebp]
	mov	edx, DWORD PTR [eax+12]
	call	edx
	mov	DWORD PTR _pLog$221935[ebp], eax
	mov	BYTE PTR __$EHRec$[ebp+8], 4
	lea	ecx, DWORD PTR $T224577[ebp]
	call	DWORD PTR __imp_??1?$basic_string@DU?$char_traits@D@std@@V?$allocator@D@2@@std@@QAE@XZ

; 1007 : 
; 1008 : 		// Get the leading info for this line
; 1009 : 		strBaseString.Format("%03d, ", GC.getGame().getElapsedGameTurns());

	mov	eax, DWORD PTR ?gGlobals@@3VCvGlobals@@A+48
	mov	DWORD PTR $T224626[ebp], eax
	mov	ecx, DWORD PTR $T224626[ebp]
	call	?getElapsedGameTurns@CvGame@@QBEHXZ	; CvGame::getElapsedGameTurns
	push	eax
	push	OFFSET ??_C@_06NHKAIDD@?$CF03d?0?5?$AA@
	lea	ecx, DWORD PTR _strBaseString$221931[ebp]
	push	ecx
	call	?Format@CvString@@QAAXPBDZZ		; CvString::Format
	add	esp, 12					; 0000000cH

; 1010 : 		strBaseString += playerName + ", ";

	push	OFFSET ??_C@_02KEGNLNML@?0?5?$AA@
	lea	edx, DWORD PTR _playerName$221933[ebp]
	push	edx
	lea	eax, DWORD PTR $T224578[ebp]
	push	eax
	call	DWORD PTR __imp_??$?HDU?$char_traits@D@std@@V?$allocator@D@1@@std@@YA?AV?$basic_string@DU?$char_traits@D@std@@V?$allocator@D@2@@0@ABV10@PBD@Z
	add	esp, 12					; 0000000cH
	mov	DWORD PTR tv239[ebp], eax
	mov	ecx, DWORD PTR tv239[ebp]
	mov	DWORD PTR tv198[ebp], ecx
	mov	BYTE PTR __$EHRec$[ebp+8], 6
	mov	edx, DWORD PTR tv198[ebp]
	push	edx
	lea	ecx, DWORD PTR _strBaseString$221931[ebp]
	call	DWORD PTR __imp_??Y?$basic_string@DU?$char_traits@D@std@@V?$allocator@D@2@@std@@QAEAAV01@ABV01@@Z
	mov	BYTE PTR __$EHRec$[ebp+8], 4
	lea	ecx, DWORD PTR $T224578[ebp]
	call	DWORD PTR __imp_??1?$basic_string@DU?$char_traits@D@std@@V?$allocator@D@2@@std@@QAE@XZ

; 1011 : 
; 1012 : 		strTemp.Format("CHOSEN, Branch %d", eBranch);

	mov	eax, DWORD PTR _eBranch$[ebp]
	push	eax
	push	OFFSET ??_C@_0BC@GOMKNKMF@CHOSEN?0?5Branch?5?$CFd?$AA@
	lea	ecx, DWORD PTR _strTemp$221932[ebp]
	push	ecx
	call	?Format@CvString@@QAAXPBDZZ		; CvString::Format
	add	esp, 12					; 0000000cH

; 1013 : 
; 1014 : 		strOutBuf = strBaseString + strTemp;

	lea	edx, DWORD PTR _strTemp$221932[ebp]
	push	edx
	lea	eax, DWORD PTR _strBaseString$221931[ebp]
	push	eax
	lea	ecx, DWORD PTR $T224579[ebp]
	push	ecx
	call	DWORD PTR __imp_??$?HDU?$char_traits@D@std@@V?$allocator@D@1@@std@@YA?AV?$basic_string@DU?$char_traits@D@std@@V?$allocator@D@2@@0@ABV10@0@Z
	add	esp, 12					; 0000000cH
	mov	DWORD PTR tv228[ebp], eax
	mov	edx, DWORD PTR tv228[ebp]
	mov	DWORD PTR $T224630[ebp], edx
	mov	BYTE PTR __$EHRec$[ebp+8], 7
	mov	ecx, DWORD PTR $T224630[ebp]
	call	DWORD PTR __imp_?c_str@?$basic_string@DU?$char_traits@D@std@@V?$allocator@D@2@@std@@QBEPBDXZ
	push	eax
	lea	ecx, DWORD PTR _strOutBuf$221930[ebp]
	call	DWORD PTR __imp_?assign@?$basic_string@DU?$char_traits@D@std@@V?$allocator@D@2@@std@@QAEAAV12@PBD@Z
	mov	BYTE PTR __$EHRec$[ebp+8], 4
	lea	ecx, DWORD PTR $T224579[ebp]
	call	DWORD PTR __imp_??1?$basic_string@DU?$char_traits@D@std@@V?$allocator@D@2@@std@@QAE@XZ

; 1015 : 		pLog->Msg(strOutBuf);

	lea	ecx, DWORD PTR _strOutBuf$221930[ebp]
	call	DWORD PTR __imp_?c_str@?$basic_string@DU?$char_traits@D@std@@V?$allocator@D@2@@std@@QBEPBDXZ
	mov	DWORD PTR $T224634[ebp], eax
	mov	eax, DWORD PTR $T224634[ebp]
	push	eax
	mov	ecx, DWORD PTR _pLog$221935[ebp]
	mov	edx, DWORD PTR [ecx]
	mov	eax, DWORD PTR _pLog$221935[ebp]
	push	eax
	mov	ecx, DWORD PTR [edx]
	call	ecx
	add	esp, 8

; 1016 : 	}

	mov	BYTE PTR __$EHRec$[ebp+8], 3
	lea	ecx, DWORD PTR _strDesc$221934[ebp]
	call	DWORD PTR __imp_??1?$basic_string@DU?$char_traits@D@std@@V?$allocator@D@2@@std@@QAE@XZ
	mov	BYTE PTR __$EHRec$[ebp+8], 2
	lea	ecx, DWORD PTR _playerName$221933[ebp]
	call	DWORD PTR __imp_??1?$basic_string@DU?$char_traits@D@std@@V?$allocator@D@2@@std@@QAE@XZ
	mov	BYTE PTR __$EHRec$[ebp+8], 1
	lea	ecx, DWORD PTR _strTemp$221932[ebp]
	call	DWORD PTR __imp_??1?$basic_string@DU?$char_traits@D@std@@V?$allocator@D@2@@std@@QAE@XZ
	mov	BYTE PTR __$EHRec$[ebp+8], 0
	lea	ecx, DWORD PTR _strBaseString$221931[ebp]
	call	DWORD PTR __imp_??1?$basic_string@DU?$char_traits@D@std@@V?$allocator@D@2@@std@@QAE@XZ
	mov	DWORD PTR __$EHRec$[ebp+8], -1
	lea	ecx, DWORD PTR _strOutBuf$221930[ebp]
	call	DWORD PTR __imp_??1?$basic_string@DU?$char_traits@D@std@@V?$allocator@D@2@@std@@QAE@XZ
$LN2@LogBranchC:

; 1017 : }

	mov	ecx, DWORD PTR __$EHRec$[ebp]
	mov	DWORD PTR fs:0, ecx
	pop	ecx
	mov	ecx, DWORD PTR __$ArrayPad$[ebp]
	xor	ecx, ebp
	call	@__security_check_cookie@4
	mov	esp, ebp
	pop	ebp
	ret	4
_TEXT	ENDS
;	COMDAT text$x
text$x	SEGMENT
__unwindfunclet$?LogBranchChoice@CvPolicyAI@@AAEXW4PolicyBranchTypes@@@Z$0:
	lea	ecx, DWORD PTR _strOutBuf$221930[ebp]
	jmp	??1CvString@@QAE@XZ			; CvString::~CvString
__unwindfunclet$?LogBranchChoice@CvPolicyAI@@AAEXW4PolicyBranchTypes@@@Z$1:
	lea	ecx, DWORD PTR _strBaseString$221931[ebp]
	jmp	??1CvString@@QAE@XZ			; CvString::~CvString
__unwindfunclet$?LogBranchChoice@CvPolicyAI@@AAEXW4PolicyBranchTypes@@@Z$2:
	lea	ecx, DWORD PTR _strTemp$221932[ebp]
	jmp	??1CvString@@QAE@XZ			; CvString::~CvString
__unwindfunclet$?LogBranchChoice@CvPolicyAI@@AAEXW4PolicyBranchTypes@@@Z$3:
	lea	ecx, DWORD PTR _playerName$221933[ebp]
	jmp	??1CvString@@QAE@XZ			; CvString::~CvString
__unwindfunclet$?LogBranchChoice@CvPolicyAI@@AAEXW4PolicyBranchTypes@@@Z$4:
	lea	ecx, DWORD PTR _strDesc$221934[ebp]
	jmp	??1CvString@@QAE@XZ			; CvString::~CvString
__unwindfunclet$?LogBranchChoice@CvPolicyAI@@AAEXW4PolicyBranchTypes@@@Z$5:
	lea	ecx, DWORD PTR $T224577[ebp]
	jmp	??1CvString@@QAE@XZ			; CvString::~CvString
__unwindfunclet$?LogBranchChoice@CvPolicyAI@@AAEXW4PolicyBranchTypes@@@Z$6:
	lea	ecx, DWORD PTR $T224578[ebp]
	jmp	DWORD PTR __imp_??1?$basic_string@DU?$char_traits@D@std@@V?$allocator@D@2@@std@@QAE@XZ
__unwindfunclet$?LogBranchChoice@CvPolicyAI@@AAEXW4PolicyBranchTypes@@@Z$7:
	lea	ecx, DWORD PTR $T224579[ebp]
	jmp	DWORD PTR __imp_??1?$basic_string@DU?$char_traits@D@std@@V?$allocator@D@2@@std@@QAE@XZ
__ehhandler$?LogBranchChoice@CvPolicyAI@@AAEXW4PolicyBranchTypes@@@Z:
	mov	edx, DWORD PTR [esp+8]
	lea	eax, DWORD PTR [edx+12]
	mov	ecx, DWORD PTR [edx-284]
	xor	ecx, eax
	call	@__security_check_cookie@4
	mov	ecx, DWORD PTR [edx-4]
	xor	ecx, eax
	call	@__security_check_cookie@4
	mov	eax, OFFSET __ehfuncinfo$?LogBranchChoice@CvPolicyAI@@AAEXW4PolicyBranchTypes@@@Z
	jmp	___CxxFrameHandler3
text$x	ENDS
?LogBranchChoice@CvPolicyAI@@AAEXW4PolicyBranchTypes@@@Z ENDP ; CvPolicyAI::LogBranchChoice
PUBLIC	??_C@_0CK@JDFIMOMA@?$CFs?0?5Freedom?3?5?$CFd?0?5Order?3?5?$CFd?0?5Auto@ ; `string'
PUBLIC	__$ArrayPad$
;	COMDAT ??_C@_0CK@JDFIMOMA@?$CFs?0?5Freedom?3?5?$CFd?0?5Order?3?5?$CFd?0?5Auto@
; File d:\sources\lekmod_git\checkout\lekmod_dll\cvgamecoredllutil\include\cvstring.h
CONST	SEGMENT
??_C@_0CK@JDFIMOMA@?$CFs?0?5Freedom?3?5?$CFd?0?5Order?3?5?$CFd?0?5Auto@ DB '%'
	DB	's, Freedom: %d, Order: %d, Autocracy: %d', 00H ; `string'
CONST	ENDS
;	COMDAT xdata$x
xdata$x	SEGMENT
__ehfuncinfo$?LogIdeologyChoice@CvPolicyAI@@AAEXAAVCvString@@HHH@Z DD 019930522H
	DD	07H
	DD	FLAT:__unwindtable$?LogIdeologyChoice@CvPolicyAI@@AAEXAAVCvString@@HHH@Z
	DD	2 DUP(00H)
	DD	2 DUP(00H)
	DD	00H
	DD	01H
__unwindtable$?LogIdeologyChoice@CvPolicyAI@@AAEXAAVCvString@@HHH@Z DD 0ffffffffH
	DD	FLAT:__unwindfunclet$?LogIdeologyChoice@CvPolicyAI@@AAEXAAVCvString@@HHH@Z$0
	DD	00H
	DD	FLAT:__unwindfunclet$?LogIdeologyChoice@CvPolicyAI@@AAEXAAVCvString@@HHH@Z$1
	DD	01H
	DD	FLAT:__unwindfunclet$?LogIdeologyChoice@CvPolicyAI@@AAEXAAVCvString@@HHH@Z$2
	DD	02H
	DD	FLAT:__unwindfunclet$?LogIdeologyChoice@CvPolicyAI@@AAEXAAVCvString@@HHH@Z$3
	DD	03H
	DD	FLAT:__unwindfunclet$?LogIdeologyChoice@CvPolicyAI@@AAEXAAVCvString@@HHH@Z$4
	DD	03H
	DD	FLAT:__unwindfunclet$?LogIdeologyChoice@CvPolicyAI@@AAEXAAVCvString@@HHH@Z$5
	DD	03H
	DD	FLAT:__unwindfunclet$?LogIdeologyChoice@CvPolicyAI@@AAEXAAVCvString@@HHH@Z$6
; Function compile flags: /Odtp
; File d:\sources\lekmod_git\checkout\lekmod_dll\cvgamecoredll_expansion2\cvpolicyai.cpp
xdata$x	ENDS
;	COMDAT ?LogIdeologyChoice@CvPolicyAI@@AAEXAAVCvString@@HHH@Z
_TEXT	SEGMENT
tv222 = -264						; size = 4
tv203 = -260						; size = 4
tv233 = -256						; size = 4
tv244 = -252						; size = 4
tv92 = -248						; size = 4
_this$ = -244						; size = 4
$T224716 = -240						; size = 4
$T224712 = -236						; size = 4
$T224708 = -232						; size = 4
$T224700 = -228						; size = 4
$T224699 = -224						; size = 4
$T224695 = -220						; size = 4
$T224666 = -216						; size = 28
$T224665 = -188						; size = 28
$T224664 = -160						; size = 28
_strOutBuf$221948 = -132				; size = 28
_playerName$221951 = -104				; size = 28
_pLog$221952 = -76					; size = 4
_strTemp$221950 = -72					; size = 28
_strBaseString$221949 = -44				; size = 28
__$ArrayPad$ = -16					; size = 4
__$EHRec$ = -12						; size = 12
_decisionState$ = 8					; size = 4
_iWeightFreedom$ = 12					; size = 4
_iWeightAutocracy$ = 16					; size = 4
_iWeightOrder$ = 20					; size = 4
?LogIdeologyChoice@CvPolicyAI@@AAEXAAVCvString@@HHH@Z PROC ; CvPolicyAI::LogIdeologyChoice, COMDAT
; _this$ = ecx

; 1021 : {

	push	ebp
	mov	ebp, esp
	push	-1
	push	__ehhandler$?LogIdeologyChoice@CvPolicyAI@@AAEXAAVCvString@@HHH@Z
	mov	eax, DWORD PTR fs:0
	push	eax
	sub	esp, 252				; 000000fcH
	mov	eax, DWORD PTR ___security_cookie
	xor	eax, ebp
	mov	DWORD PTR __$ArrayPad$[ebp], eax
	push	eax
	lea	eax, DWORD PTR __$EHRec$[ebp]
	mov	DWORD PTR fs:0, eax
	mov	DWORD PTR _this$[ebp], ecx

; 1022 : 	if(GC.getLogging() && GC.getAILogging())

	mov	ecx, OFFSET ?gGlobals@@3VCvGlobals@@A	; gGlobals
	call	?getLogging@CvGlobals@@QAE_NXZ		; CvGlobals::getLogging
	movzx	eax, al
	test	eax, eax
	je	$LN2@LogIdeolog
	mov	ecx, OFFSET ?gGlobals@@3VCvGlobals@@A	; gGlobals
	call	?getAILogging@CvGlobals@@QAE_NXZ	; CvGlobals::getAILogging
	movzx	ecx, al
	test	ecx, ecx
	je	$LN2@LogIdeolog

; 1023 : 	{
; 1024 : 		CvString strOutBuf;

	lea	ecx, DWORD PTR _strOutBuf$221948[ebp]
	call	DWORD PTR __imp_??0?$basic_string@DU?$char_traits@D@std@@V?$allocator@D@2@@std@@QAE@XZ
	mov	DWORD PTR __$EHRec$[ebp+8], 0

; 1025 : 		CvString strBaseString;

	lea	ecx, DWORD PTR _strBaseString$221949[ebp]
	call	DWORD PTR __imp_??0?$basic_string@DU?$char_traits@D@std@@V?$allocator@D@2@@std@@QAE@XZ
	mov	BYTE PTR __$EHRec$[ebp+8], 1

; 1026 : 		CvString strTemp;

	lea	ecx, DWORD PTR _strTemp$221950[ebp]
	call	DWORD PTR __imp_??0?$basic_string@DU?$char_traits@D@std@@V?$allocator@D@2@@std@@QAE@XZ
	mov	BYTE PTR __$EHRec$[ebp+8], 2

; 1027 : 		CvString playerName;

	lea	ecx, DWORD PTR _playerName$221951[ebp]
	call	DWORD PTR __imp_??0?$basic_string@DU?$char_traits@D@std@@V?$allocator@D@2@@std@@QAE@XZ
	mov	BYTE PTR __$EHRec$[ebp+8], 3

; 1028 : 
; 1029 : 		// Find the name of this civ
; 1030 : 		playerName = m_pCurrentPolicies->GetPlayer()->getCivilizationShortDescription();

	mov	edx, DWORD PTR _this$[ebp]
	mov	ecx, DWORD PTR [edx]
	call	?GetPlayer@CvPlayerPolicies@@QAEPAVCvPlayer@@XZ ; CvPlayerPolicies::GetPlayer
	mov	ecx, eax
	call	?getCivilizationShortDescription@CvPlayer@@QBEPBDXZ ; CvPlayer::getCivilizationShortDescription
	mov	DWORD PTR $T224695[ebp], eax
	cmp	DWORD PTR $T224695[ebp], 0
	je	SHORT $LN24@LogIdeolog
	mov	eax, DWORD PTR $T224695[ebp]
	push	eax
	lea	ecx, DWORD PTR _playerName$221951[ebp]
	call	DWORD PTR __imp_?assign@?$basic_string@DU?$char_traits@D@std@@V?$allocator@D@2@@std@@QAEAAV12@PBD@Z
	jmp	SHORT $LN25@LogIdeolog
$LN24@LogIdeolog:
	lea	ecx, DWORD PTR _playerName$221951[ebp]
	call	DWORD PTR __imp_?clear@?$basic_string@DU?$char_traits@D@std@@V?$allocator@D@2@@std@@QAEXXZ
$LN25@LogIdeolog:

; 1031 : 
; 1032 : 		FILogFile* pLog;
; 1033 : 		pLog = LOGFILEMGR.GetLog(GetLogFileName(playerName), FILogFile::kDontTimeStamp);

	call	?GetInstance@FILogFileMgr@@SAAAV1@XZ	; FILogFileMgr::GetInstance
	mov	DWORD PTR tv92[ebp], eax
	lea	ecx, DWORD PTR _playerName$221951[ebp]
	push	ecx
	lea	edx, DWORD PTR $T224664[ebp]
	push	edx
	mov	ecx, DWORD PTR _this$[ebp]
	call	?GetLogFileName@CvPolicyAI@@ABE?AVCvString@@AAV2@@Z ; CvPolicyAI::GetLogFileName
	mov	DWORD PTR tv244[ebp], eax
	mov	eax, DWORD PTR tv244[ebp]
	mov	DWORD PTR $T224699[ebp], eax
	mov	BYTE PTR __$EHRec$[ebp+8], 4
	mov	ecx, DWORD PTR $T224699[ebp]
	call	DWORD PTR __imp_?c_str@?$basic_string@DU?$char_traits@D@std@@V?$allocator@D@2@@std@@QBEPBDXZ
	mov	DWORD PTR $T224700[ebp], eax
	push	0
	push	1
	mov	ecx, DWORD PTR $T224700[ebp]
	push	ecx
	mov	edx, DWORD PTR tv92[ebp]
	mov	eax, DWORD PTR [edx]
	mov	ecx, DWORD PTR tv92[ebp]
	mov	edx, DWORD PTR [eax+12]
	call	edx
	mov	DWORD PTR _pLog$221952[ebp], eax
	mov	BYTE PTR __$EHRec$[ebp+8], 3
	lea	ecx, DWORD PTR $T224664[ebp]
	call	DWORD PTR __imp_??1?$basic_string@DU?$char_traits@D@std@@V?$allocator@D@2@@std@@QAE@XZ

; 1034 : 
; 1035 : 		// Get the leading info for this line
; 1036 : 		strBaseString.Format("%03d, ", GC.getGame().getElapsedGameTurns());

	mov	eax, DWORD PTR ?gGlobals@@3VCvGlobals@@A+48
	mov	DWORD PTR $T224708[ebp], eax
	mov	ecx, DWORD PTR $T224708[ebp]
	call	?getElapsedGameTurns@CvGame@@QBEHXZ	; CvGame::getElapsedGameTurns
	push	eax
	push	OFFSET ??_C@_06NHKAIDD@?$CF03d?0?5?$AA@
	lea	ecx, DWORD PTR _strBaseString$221949[ebp]
	push	ecx
	call	?Format@CvString@@QAAXPBDZZ		; CvString::Format
	add	esp, 12					; 0000000cH

; 1037 : 		strBaseString += playerName + ", ";

	push	OFFSET ??_C@_02KEGNLNML@?0?5?$AA@
	lea	edx, DWORD PTR _playerName$221951[ebp]
	push	edx
	lea	eax, DWORD PTR $T224665[ebp]
	push	eax
	call	DWORD PTR __imp_??$?HDU?$char_traits@D@std@@V?$allocator@D@1@@std@@YA?AV?$basic_string@DU?$char_traits@D@std@@V?$allocator@D@2@@0@ABV10@PBD@Z
	add	esp, 12					; 0000000cH
	mov	DWORD PTR tv233[ebp], eax
	mov	ecx, DWORD PTR tv233[ebp]
	mov	DWORD PTR tv203[ebp], ecx
	mov	BYTE PTR __$EHRec$[ebp+8], 5
	mov	edx, DWORD PTR tv203[ebp]
	push	edx
	lea	ecx, DWORD PTR _strBaseString$221949[ebp]
	call	DWORD PTR __imp_??Y?$basic_string@DU?$char_traits@D@std@@V?$allocator@D@2@@std@@QAEAAV01@ABV01@@Z
	mov	BYTE PTR __$EHRec$[ebp+8], 3
	lea	ecx, DWORD PTR $T224665[ebp]
	call	DWORD PTR __imp_??1?$basic_string@DU?$char_traits@D@std@@V?$allocator@D@2@@std@@QAE@XZ

; 1038 : 
; 1039 : 		strTemp.Format("%s, Freedom: %d, Order: %d, Autocracy: %d", decisionState.c_str(), iWeightFreedom, iWeightOrder, iWeightAutocracy);

	mov	eax, DWORD PTR _iWeightAutocracy$[ebp]
	push	eax
	mov	ecx, DWORD PTR _iWeightOrder$[ebp]
	push	ecx
	mov	edx, DWORD PTR _iWeightFreedom$[ebp]
	push	edx
	mov	ecx, DWORD PTR _decisionState$[ebp]
	call	DWORD PTR __imp_?c_str@?$basic_string@DU?$char_traits@D@std@@V?$allocator@D@2@@std@@QBEPBDXZ
	push	eax
	push	OFFSET ??_C@_0CK@JDFIMOMA@?$CFs?0?5Freedom?3?5?$CFd?0?5Order?3?5?$CFd?0?5Auto@
	lea	eax, DWORD PTR _strTemp$221950[ebp]
	push	eax
	call	?Format@CvString@@QAAXPBDZZ		; CvString::Format
	add	esp, 24					; 00000018H

; 1040 : 
; 1041 : 		strOutBuf = strBaseString + strTemp;

	lea	ecx, DWORD PTR _strTemp$221950[ebp]
	push	ecx
	lea	edx, DWORD PTR _strBaseString$221949[ebp]
	push	edx
	lea	eax, DWORD PTR $T224666[ebp]
	push	eax
	call	DWORD PTR __imp_??$?HDU?$char_traits@D@std@@V?$allocator@D@1@@std@@YA?AV?$basic_string@DU?$char_traits@D@std@@V?$allocator@D@2@@0@ABV10@0@Z
	add	esp, 12					; 0000000cH
	mov	DWORD PTR tv222[ebp], eax
	mov	ecx, DWORD PTR tv222[ebp]
	mov	DWORD PTR $T224712[ebp], ecx
	mov	BYTE PTR __$EHRec$[ebp+8], 6
	mov	ecx, DWORD PTR $T224712[ebp]
	call	DWORD PTR __imp_?c_str@?$basic_string@DU?$char_traits@D@std@@V?$allocator@D@2@@std@@QBEPBDXZ
	push	eax
	lea	ecx, DWORD PTR _strOutBuf$221948[ebp]
	call	DWORD PTR __imp_?assign@?$basic_string@DU?$char_traits@D@std@@V?$allocator@D@2@@std@@QAEAAV12@PBD@Z
	mov	BYTE PTR __$EHRec$[ebp+8], 3
	lea	ecx, DWORD PTR $T224666[ebp]
	call	DWORD PTR __imp_??1?$basic_string@DU?$char_traits@D@std@@V?$allocator@D@2@@std@@QAE@XZ

; 1042 : 		pLog->Msg(strOutBuf);

	lea	ecx, DWORD PTR _strOutBuf$221948[ebp]
	call	DWORD PTR __imp_?c_str@?$basic_string@DU?$char_traits@D@std@@V?$allocator@D@2@@std@@QBEPBDXZ
	mov	DWORD PTR $T224716[ebp], eax
	mov	edx, DWORD PTR $T224716[ebp]
	push	edx
	mov	eax, DWORD PTR _pLog$221952[ebp]
	mov	ecx, DWORD PTR [eax]
	mov	edx, DWORD PTR _pLog$221952[ebp]
	push	edx
	mov	eax, DWORD PTR [ecx]
	call	eax
	add	esp, 8

; 1043 : 	}

	mov	BYTE PTR __$EHRec$[ebp+8], 2
	lea	ecx, DWORD PTR _playerName$221951[ebp]
	call	DWORD PTR __imp_??1?$basic_string@DU?$char_traits@D@std@@V?$allocator@D@2@@std@@QAE@XZ
	mov	BYTE PTR __$EHRec$[ebp+8], 1
	lea	ecx, DWORD PTR _strTemp$221950[ebp]
	call	DWORD PTR __imp_??1?$basic_string@DU?$char_traits@D@std@@V?$allocator@D@2@@std@@QAE@XZ
	mov	BYTE PTR __$EHRec$[ebp+8], 0
	lea	ecx, DWORD PTR _strBaseString$221949[ebp]
	call	DWORD PTR __imp_??1?$basic_string@DU?$char_traits@D@std@@V?$allocator@D@2@@std@@QAE@XZ
	mov	DWORD PTR __$EHRec$[ebp+8], -1
	lea	ecx, DWORD PTR _strOutBuf$221948[ebp]
	call	DWORD PTR __imp_??1?$basic_string@DU?$char_traits@D@std@@V?$allocator@D@2@@std@@QAE@XZ
$LN2@LogIdeolog:

; 1044 : }

	mov	ecx, DWORD PTR __$EHRec$[ebp]
	mov	DWORD PTR fs:0, ecx
	pop	ecx
	mov	ecx, DWORD PTR __$ArrayPad$[ebp]
	xor	ecx, ebp
	call	@__security_check_cookie@4
	mov	esp, ebp
	pop	ebp
	ret	16					; 00000010H
_TEXT	ENDS
;	COMDAT text$x
text$x	SEGMENT
__unwindfunclet$?LogIdeologyChoice@CvPolicyAI@@AAEXAAVCvString@@HHH@Z$0:
	lea	ecx, DWORD PTR _strOutBuf$221948[ebp]
	jmp	??1CvString@@QAE@XZ			; CvString::~CvString
__unwindfunclet$?LogIdeologyChoice@CvPolicyAI@@AAEXAAVCvString@@HHH@Z$1:
	lea	ecx, DWORD PTR _strBaseString$221949[ebp]
	jmp	??1CvString@@QAE@XZ			; CvString::~CvString
__unwindfunclet$?LogIdeologyChoice@CvPolicyAI@@AAEXAAVCvString@@HHH@Z$2:
	lea	ecx, DWORD PTR _strTemp$221950[ebp]
	jmp	??1CvString@@QAE@XZ			; CvString::~CvString
__unwindfunclet$?LogIdeologyChoice@CvPolicyAI@@AAEXAAVCvString@@HHH@Z$3:
	lea	ecx, DWORD PTR _playerName$221951[ebp]
	jmp	??1CvString@@QAE@XZ			; CvString::~CvString
__unwindfunclet$?LogIdeologyChoice@CvPolicyAI@@AAEXAAVCvString@@HHH@Z$4:
	lea	ecx, DWORD PTR $T224664[ebp]
	jmp	??1CvString@@QAE@XZ			; CvString::~CvString
__unwindfunclet$?LogIdeologyChoice@CvPolicyAI@@AAEXAAVCvString@@HHH@Z$5:
	lea	ecx, DWORD PTR $T224665[ebp]
	jmp	DWORD PTR __imp_??1?$basic_string@DU?$char_traits@D@std@@V?$allocator@D@2@@std@@QAE@XZ
__unwindfunclet$?LogIdeologyChoice@CvPolicyAI@@AAEXAAVCvString@@HHH@Z$6:
	lea	ecx, DWORD PTR $T224666[ebp]
	jmp	DWORD PTR __imp_??1?$basic_string@DU?$char_traits@D@std@@V?$allocator@D@2@@std@@QAE@XZ
__ehhandler$?LogIdeologyChoice@CvPolicyAI@@AAEXAAVCvString@@HHH@Z:
	mov	edx, DWORD PTR [esp+8]
	lea	eax, DWORD PTR [edx+12]
	mov	ecx, DWORD PTR [edx-256]
	xor	ecx, eax
	call	@__security_check_cookie@4
	mov	ecx, DWORD PTR [edx-4]
	xor	ecx, eax
	call	@__security_check_cookie@4
	mov	eax, OFFSET __ehfuncinfo$?LogIdeologyChoice@CvPolicyAI@@AAEXAAVCvString@@HHH@Z
	jmp	___CxxFrameHandler3
text$x	ENDS
?LogIdeologyChoice@CvPolicyAI@@AAEXAAVCvString@@HHH@Z ENDP ; CvPolicyAI::LogIdeologyChoice
PUBLIC	??_C@_0BA@FFICCKPD@PolicyAILog?4csv?$AA@	; `string'
PUBLIC	??_C@_04EBGNMJBD@?4csv?$AA@			; `string'
PUBLIC	??_C@_0N@EGNMIKKA@PolicyAILog_?$AA@		; `string'
PUBLIC	__$ArrayPad$
EXTRN	__imp_??0?$basic_string@DU?$char_traits@D@std@@V?$allocator@D@2@@std@@QAE@ABV01@@Z:PROC
EXTRN	__imp_??$?HDU?$char_traits@D@std@@V?$allocator@D@1@@std@@YA?AV?$basic_string@DU?$char_traits@D@std@@V?$allocator@D@2@@0@PBDABV10@@Z:PROC
EXTRN	?getPlayerAndCityAILogSplit@CvGlobals@@QAE_NXZ:PROC ; CvGlobals::getPlayerAndCityAILogSplit
;	COMDAT ??_C@_0BA@FFICCKPD@PolicyAILog?4csv?$AA@
; File d:\sources\lekmod_git\checkout\lekmod_dll\cvgamecoredllutil\include\cvstring.h
CONST	SEGMENT
??_C@_0BA@FFICCKPD@PolicyAILog?4csv?$AA@ DB 'PolicyAILog.csv', 00H ; `string'
CONST	ENDS
;	COMDAT ??_C@_04EBGNMJBD@?4csv?$AA@
CONST	SEGMENT
??_C@_04EBGNMJBD@?4csv?$AA@ DB '.csv', 00H		; `string'
CONST	ENDS
;	COMDAT ??_C@_0N@EGNMIKKA@PolicyAILog_?$AA@
CONST	SEGMENT
??_C@_0N@EGNMIKKA@PolicyAILog_?$AA@ DB 'PolicyAILog_', 00H ; `string'
CONST	ENDS
;	COMDAT xdata$x
xdata$x	SEGMENT
__unwindtable$?GetLogFileName@CvPolicyAI@@ABE?AVCvString@@AAV2@@Z DD 0ffffffffH
	DD	FLAT:__unwindfunclet$?GetLogFileName@CvPolicyAI@@ABE?AVCvString@@AAV2@@Z$3
	DD	00H
	DD	FLAT:__unwindfunclet$?GetLogFileName@CvPolicyAI@@ABE?AVCvString@@AAV2@@Z$0
	DD	01H
	DD	FLAT:__unwindfunclet$?GetLogFileName@CvPolicyAI@@ABE?AVCvString@@AAV2@@Z$1
	DD	02H
	DD	FLAT:__unwindfunclet$?GetLogFileName@CvPolicyAI@@ABE?AVCvString@@AAV2@@Z$2
__ehfuncinfo$?GetLogFileName@CvPolicyAI@@ABE?AVCvString@@AAV2@@Z DD 019930522H
	DD	04H
	DD	FLAT:__unwindtable$?GetLogFileName@CvPolicyAI@@ABE?AVCvString@@AAV2@@Z
	DD	2 DUP(00H)
	DD	2 DUP(00H)
	DD	00H
	DD	01H
; Function compile flags: /Odtp
; File d:\sources\lekmod_git\checkout\lekmod_dll\cvgamecoredll_expansion2\cvpolicyai.cpp
xdata$x	ENDS
;	COMDAT ?GetLogFileName@CvPolicyAI@@ABE?AVCvString@@AAV2@@Z
_TEXT	SEGMENT
tv142 = -124						; size = 4
tv129 = -120						; size = 4
tv169 = -116						; size = 4
_this$ = -112						; size = 4
$T224757 = -108						; size = 4
$T224748 = -104						; size = 4
$T224743 = -100						; size = 28
$T224742 = -72						; size = 28
_strLogName$ = -44					; size = 28
__$ArrayPad$ = -16					; size = 4
__$EHRec$ = -12						; size = 12
___$ReturnUdt$ = 8					; size = 4
_playerName$ = 12					; size = 4
?GetLogFileName@CvPolicyAI@@ABE?AVCvString@@AAV2@@Z PROC ; CvPolicyAI::GetLogFileName, COMDAT
; _this$ = ecx

; 1048 : {

	push	ebp
	mov	ebp, esp
	push	-1
	push	__ehhandler$?GetLogFileName@CvPolicyAI@@ABE?AVCvString@@AAV2@@Z
	mov	eax, DWORD PTR fs:0
	push	eax
	sub	esp, 112				; 00000070H
	mov	eax, DWORD PTR ___security_cookie
	xor	eax, ebp
	mov	DWORD PTR __$ArrayPad$[ebp], eax
	push	eax
	lea	eax, DWORD PTR __$EHRec$[ebp]
	mov	DWORD PTR fs:0, eax
	mov	DWORD PTR _this$[ebp], ecx
	mov	DWORD PTR $T224748[ebp], 0

; 1049 : 	CvString strLogName;

	lea	ecx, DWORD PTR _strLogName$[ebp]
	call	DWORD PTR __imp_??0?$basic_string@DU?$char_traits@D@std@@V?$allocator@D@2@@std@@QAE@XZ
	mov	DWORD PTR __$EHRec$[ebp+8], 1

; 1050 : 
; 1051 : 	// Open the log file
; 1052 : 	if(GC.getPlayerAndCityAILogSplit())

	mov	ecx, OFFSET ?gGlobals@@3VCvGlobals@@A	; gGlobals
	call	?getPlayerAndCityAILogSplit@CvGlobals@@QAE_NXZ ; CvGlobals::getPlayerAndCityAILogSplit
	movzx	eax, al
	test	eax, eax
	je	SHORT $LN2@GetLogFile

; 1053 : 	{
; 1054 : 		strLogName = "PolicyAILog_" + playerName + ".csv";

	mov	ecx, DWORD PTR _playerName$[ebp]
	push	ecx
	push	OFFSET ??_C@_0N@EGNMIKKA@PolicyAILog_?$AA@
	lea	edx, DWORD PTR $T224742[ebp]
	push	edx
	call	DWORD PTR __imp_??$?HDU?$char_traits@D@std@@V?$allocator@D@1@@std@@YA?AV?$basic_string@DU?$char_traits@D@std@@V?$allocator@D@2@@0@PBDABV10@@Z
	add	esp, 12					; 0000000cH
	mov	DWORD PTR tv169[ebp], eax
	mov	eax, DWORD PTR tv169[ebp]
	mov	DWORD PTR tv129[ebp], eax
	mov	BYTE PTR __$EHRec$[ebp+8], 2
	push	OFFSET ??_C@_04EBGNMJBD@?4csv?$AA@
	mov	ecx, DWORD PTR tv129[ebp]
	push	ecx
	lea	edx, DWORD PTR $T224743[ebp]
	push	edx
	call	DWORD PTR __imp_??$?HDU?$char_traits@D@std@@V?$allocator@D@1@@std@@YA?AV?$basic_string@DU?$char_traits@D@std@@V?$allocator@D@2@@0@ABV10@PBD@Z
	add	esp, 12					; 0000000cH
	mov	DWORD PTR tv142[ebp], eax
	mov	eax, DWORD PTR tv142[ebp]
	mov	DWORD PTR $T224757[ebp], eax
	mov	BYTE PTR __$EHRec$[ebp+8], 3
	mov	ecx, DWORD PTR $T224757[ebp]
	call	DWORD PTR __imp_?c_str@?$basic_string@DU?$char_traits@D@std@@V?$allocator@D@2@@std@@QBEPBDXZ
	push	eax
	lea	ecx, DWORD PTR _strLogName$[ebp]
	call	DWORD PTR __imp_?assign@?$basic_string@DU?$char_traits@D@std@@V?$allocator@D@2@@std@@QAEAAV12@PBD@Z
	mov	BYTE PTR __$EHRec$[ebp+8], 2
	lea	ecx, DWORD PTR $T224743[ebp]
	call	DWORD PTR __imp_??1?$basic_string@DU?$char_traits@D@std@@V?$allocator@D@2@@std@@QAE@XZ
	mov	BYTE PTR __$EHRec$[ebp+8], 1
	lea	ecx, DWORD PTR $T224742[ebp]
	call	DWORD PTR __imp_??1?$basic_string@DU?$char_traits@D@std@@V?$allocator@D@2@@std@@QAE@XZ

; 1055 : 	}
; 1056 : 	else

	jmp	SHORT $LN1@GetLogFile
$LN2@GetLogFile:

; 1057 : 	{
; 1058 : 		strLogName = "PolicyAILog.csv";

	mov	ecx, OFFSET ??_C@_0BA@FFICCKPD@PolicyAILog?4csv?$AA@
	test	ecx, ecx
	je	SHORT $LN16@GetLogFile
	push	OFFSET ??_C@_0BA@FFICCKPD@PolicyAILog?4csv?$AA@
	lea	ecx, DWORD PTR _strLogName$[ebp]
	call	DWORD PTR __imp_?assign@?$basic_string@DU?$char_traits@D@std@@V?$allocator@D@2@@std@@QAEAAV12@PBD@Z
	jmp	SHORT $LN1@GetLogFile
$LN16@GetLogFile:
	lea	ecx, DWORD PTR _strLogName$[ebp]
	call	DWORD PTR __imp_?clear@?$basic_string@DU?$char_traits@D@std@@V?$allocator@D@2@@std@@QAEXXZ
$LN1@GetLogFile:

; 1059 : 	}
; 1060 : 
; 1061 : 	return strLogName;

	lea	edx, DWORD PTR _strLogName$[ebp]
	push	edx
	mov	ecx, DWORD PTR ___$ReturnUdt$[ebp]
	call	DWORD PTR __imp_??0?$basic_string@DU?$char_traits@D@std@@V?$allocator@D@2@@std@@QAE@ABV01@@Z
	mov	eax, DWORD PTR $T224748[ebp]
	or	eax, 1
	mov	DWORD PTR $T224748[ebp], eax
	mov	BYTE PTR __$EHRec$[ebp+8], 0
	lea	ecx, DWORD PTR _strLogName$[ebp]
	call	DWORD PTR __imp_??1?$basic_string@DU?$char_traits@D@std@@V?$allocator@D@2@@std@@QAE@XZ
	mov	eax, DWORD PTR ___$ReturnUdt$[ebp]

; 1062 : }

	mov	ecx, DWORD PTR __$EHRec$[ebp]
	mov	DWORD PTR fs:0, ecx
	pop	ecx
	mov	ecx, DWORD PTR __$ArrayPad$[ebp]
	xor	ecx, ebp
	call	@__security_check_cookie@4
	mov	esp, ebp
	pop	ebp
	ret	8
_TEXT	ENDS
;	COMDAT text$x
text$x	SEGMENT
__unwindfunclet$?GetLogFileName@CvPolicyAI@@ABE?AVCvString@@AAV2@@Z$0:
	lea	ecx, DWORD PTR _strLogName$[ebp]
	jmp	??1CvString@@QAE@XZ			; CvString::~CvString
__unwindfunclet$?GetLogFileName@CvPolicyAI@@ABE?AVCvString@@AAV2@@Z$1:
	lea	ecx, DWORD PTR $T224742[ebp]
	jmp	DWORD PTR __imp_??1?$basic_string@DU?$char_traits@D@std@@V?$allocator@D@2@@std@@QAE@XZ
__unwindfunclet$?GetLogFileName@CvPolicyAI@@ABE?AVCvString@@AAV2@@Z$2:
	lea	ecx, DWORD PTR $T224743[ebp]
	jmp	DWORD PTR __imp_??1?$basic_string@DU?$char_traits@D@std@@V?$allocator@D@2@@std@@QAE@XZ
__unwindfunclet$?GetLogFileName@CvPolicyAI@@ABE?AVCvString@@AAV2@@Z$3:
	mov	eax, DWORD PTR $T224748[ebp]
	and	eax, 1
	je	$LN9@GetLogFile
	and	DWORD PTR $T224748[ebp], -2		; fffffffeH
	mov	ecx, DWORD PTR ___$ReturnUdt$[ebp]
	jmp	??1CvString@@QAE@XZ			; CvString::~CvString
$LN9@GetLogFile:
	ret	0
__ehhandler$?GetLogFileName@CvPolicyAI@@ABE?AVCvString@@AAV2@@Z:
	mov	edx, DWORD PTR [esp+8]
	lea	eax, DWORD PTR [edx+12]
	mov	ecx, DWORD PTR [edx-116]
	xor	ecx, eax
	call	@__security_check_cookie@4
	mov	ecx, DWORD PTR [edx-4]
	xor	ecx, eax
	call	@__security_check_cookie@4
	mov	eax, OFFSET __ehfuncinfo$?GetLogFileName@CvPolicyAI@@ABE?AVCvString@@AAV2@@Z
	jmp	___CxxFrameHandler3
text$x	ENDS
?GetLogFileName@CvPolicyAI@@ABE?AVCvString@@AAV2@@Z ENDP ; CvPolicyAI::GetLogFileName
; Function compile flags: /Odtp
; File d:\sources\lekmod_git\checkout\lekmod_dll\cvgamecoredllutil\include\cvweightedvector.h
;	COMDAT ??1?$CvWeightedVector@H$0EA@$00@@QAE@XZ
_TEXT	SEGMENT
_this$ = -16						; size = 4
??1?$CvWeightedVector@H$0EA@$00@@QAE@XZ PROC		; CvWeightedVector<int,64,1>::~CvWeightedVector<int,64,1>, COMDAT
; _this$ = ecx

; 58   : 	{

	push	ebp
	mov	ebp, esp
	sub	esp, 16					; 00000010H
	mov	DWORD PTR _this$[ebp], ecx

; 59   : 	};

	mov	ecx, DWORD PTR _this$[ebp]
	call	??1?$FStaticVector@UWeightedElement@?$CvWeightedVector@H$0EA@$00@@$0EA@$00$0A@$0A@@@QAE@XZ ; FStaticVector<CvWeightedVector<int,64,1>::WeightedElement,64,1,0,0>::~FStaticVector<CvWeightedVector<int,64,1>::WeightedElement,64,1,0,0>
	mov	esp, ebp
	pop	ebp
	ret	0
??1?$CvWeightedVector@H$0EA@$00@@QAE@XZ ENDP		; CvWeightedVector<int,64,1>::~CvWeightedVector<int,64,1>
; Function compile flags: /Odtp
_TEXT	ENDS
;	COMDAT ?ChooseAtRandom@?$CvWeightedVector@H$0EA@$00@@QAEHPAV?$FastDelegate2@HPBDH@fastdelegate@@PBD@Z
_TEXT	SEGMENT
_this$ = -32						; size = 4
$T224834 = -28						; size = 4
$T224821 = -24						; size = 4
$T224817 = -20						; size = 4
$T224812 = -16						; size = 4
_iChoice$ = -12						; size = 4
_elem$ = -8						; size = 8
_rndFcn$ = 8						; size = 4
_szRollName$ = 12					; size = 4
?ChooseAtRandom@?$CvWeightedVector@H$0EA@$00@@QAEHPAV?$FastDelegate2@HPBDH@fastdelegate@@PBD@Z PROC ; CvWeightedVector<int,64,1>::ChooseAtRandom, COMDAT
; _this$ = ecx

; 185  : 	{

	push	ebp
	mov	ebp, esp
	sub	esp, 32					; 00000020H
	mov	DWORD PTR _this$[ebp], ecx

; 186  : 		int iChoice;
; 187  : 
; 188  : 		// Based on the number of elements we have, pick one at random
; 189  : 		iChoice = (*rndFcn)(m_pItems.size(), szRollName);

	mov	eax, DWORD PTR _this$[ebp]
	mov	ecx, DWORD PTR [eax+4]
	mov	DWORD PTR $T224812[ebp], ecx
	mov	edx, DWORD PTR _rndFcn$[ebp]
	mov	eax, DWORD PTR [edx+4]
	mov	DWORD PTR $T224817[ebp], eax
	mov	ecx, DWORD PTR _rndFcn$[ebp]
	mov	edx, DWORD PTR [ecx]
	mov	DWORD PTR $T224821[ebp], edx
	mov	eax, DWORD PTR _szRollName$[ebp]
	push	eax
	mov	ecx, DWORD PTR $T224812[ebp]
	push	ecx
	mov	ecx, DWORD PTR $T224821[ebp]
	call	DWORD PTR $T224817[ebp]
	mov	DWORD PTR _iChoice$[ebp], eax

; 190  : 		WeightedElement elem = m_pItems[iChoice];

	mov	edx, DWORD PTR _this$[ebp]
	mov	eax, DWORD PTR [edx]
	mov	ecx, DWORD PTR _iChoice$[ebp]
	lea	edx, DWORD PTR [eax+ecx*8]
	mov	DWORD PTR $T224834[ebp], edx
	mov	eax, DWORD PTR $T224834[ebp]
	mov	ecx, DWORD PTR [eax]
	mov	DWORD PTR _elem$[ebp], ecx
	mov	edx, DWORD PTR $T224834[ebp]
	mov	eax, DWORD PTR [edx+4]
	mov	DWORD PTR _elem$[ebp+4], eax

; 191  : 
; 192  : 		return elem.m_Element;

	mov	eax, DWORD PTR _elem$[ebp]

; 193  : 	};

	mov	esp, ebp
	pop	ebp
	ret	8
?ChooseAtRandom@?$CvWeightedVector@H$0EA@$00@@QAEHPAV?$FastDelegate2@HPBDH@fastdelegate@@PBD@Z ENDP ; CvWeightedVector<int,64,1>::ChooseAtRandom
; Function compile flags: /Odtp
_TEXT	ENDS
;	COMDAT ?ChooseFromTopChoices@?$CvWeightedVector@H$0EA@$00@@QAEHHPAV?$FastDelegate2@HPBDH@fastdelegate@@PBD@Z
_TEXT	SEGMENT
_this$ = -40						; size = 4
$T224859 = -36						; size = 4
$T224855 = -32						; size = 4
$T224844 = -28						; size = 4
$T224840 = -24						; size = 4
_iTotalTopChoicesWeight$ = -20				; size = 4
_iChoice$ = -16						; size = 4
_i$ = -12						; size = 4
_elem$ = -8						; size = 8
_iNumChoices$ = 8					; size = 4
_rndFcn$ = 12						; size = 4
_szRollName$ = 16					; size = 4
?ChooseFromTopChoices@?$CvWeightedVector@H$0EA@$00@@QAEHHPAV?$FastDelegate2@HPBDH@fastdelegate@@PBD@Z PROC ; CvWeightedVector<int,64,1>::ChooseFromTopChoices, COMDAT
; _this$ = ecx

; 223  : 	{

	push	ebp
	mov	ebp, esp
	sub	esp, 40					; 00000028H
	mov	DWORD PTR _this$[ebp], ecx

; 224  : 		// Loop through the top choices, or the total vector size, whichever is smaller
; 225  : 		if (iNumChoices > (int) m_pItems.size())

	mov	eax, DWORD PTR _this$[ebp]
	mov	ecx, DWORD PTR [eax+4]
	mov	DWORD PTR $T224840[ebp], ecx
	mov	edx, DWORD PTR _iNumChoices$[ebp]
	cmp	edx, DWORD PTR $T224840[ebp]
	jle	SHORT $LN8@ChooseFrom

; 226  : 		{
; 227  : 			iNumChoices = (int) m_pItems.size();

	mov	eax, DWORD PTR _this$[ebp]
	mov	ecx, DWORD PTR [eax+4]
	mov	DWORD PTR $T224844[ebp], ecx
	mov	edx, DWORD PTR $T224844[ebp]
	mov	DWORD PTR _iNumChoices$[ebp], edx
$LN8@ChooseFrom:

; 228  : 		}
; 229  : 
; 230  : 		WeightedElement elem;

	mov	DWORD PTR _elem$[ebp], 0
	mov	DWORD PTR _elem$[ebp+4], 0

; 231  : 		int i;
; 232  : 		int iChoice;
; 233  : 		int iTotalTopChoicesWeight = 0;

	mov	DWORD PTR _iTotalTopChoicesWeight$[ebp], 0

; 234  : 
; 235  : 		// Get the total weight
; 236  : 		for (i = 0; i < iNumChoices; i++)

	mov	DWORD PTR _i$[ebp], 0
	jmp	SHORT $LN7@ChooseFrom
$LN6@ChooseFrom:
	mov	eax, DWORD PTR _i$[ebp]
	add	eax, 1
	mov	DWORD PTR _i$[ebp], eax
$LN7@ChooseFrom:
	mov	ecx, DWORD PTR _i$[ebp]
	cmp	ecx, DWORD PTR _iNumChoices$[ebp]
	jge	SHORT $LN5@ChooseFrom

; 237  : 		{
; 238  : 			elem = m_pItems[i];

	mov	edx, DWORD PTR _this$[ebp]
	mov	eax, DWORD PTR [edx]
	mov	ecx, DWORD PTR _i$[ebp]
	mov	edx, DWORD PTR [eax+ecx*8]
	mov	eax, DWORD PTR [eax+ecx*8+4]
	mov	DWORD PTR _elem$[ebp], edx
	mov	DWORD PTR _elem$[ebp+4], eax

; 239  : 			iTotalTopChoicesWeight += elem.m_iWeight;

	mov	ecx, DWORD PTR _iTotalTopChoicesWeight$[ebp]
	add	ecx, DWORD PTR _elem$[ebp+4]
	mov	DWORD PTR _iTotalTopChoicesWeight$[ebp], ecx

; 240  : 		}

	jmp	SHORT $LN6@ChooseFrom
$LN5@ChooseFrom:

; 241  : 
; 242  : 		// Random roll up to total weight
; 243  : 		iChoice = (*rndFcn)(iTotalTopChoicesWeight, szRollName);

	mov	edx, DWORD PTR _rndFcn$[ebp]
	mov	eax, DWORD PTR [edx+4]
	mov	DWORD PTR $T224855[ebp], eax
	mov	ecx, DWORD PTR _rndFcn$[ebp]
	mov	edx, DWORD PTR [ecx]
	mov	DWORD PTR $T224859[ebp], edx
	mov	eax, DWORD PTR _szRollName$[ebp]
	push	eax
	mov	ecx, DWORD PTR _iTotalTopChoicesWeight$[ebp]
	push	ecx
	mov	ecx, DWORD PTR $T224859[ebp]
	call	DWORD PTR $T224855[ebp]
	mov	DWORD PTR _iChoice$[ebp], eax

; 244  : 
; 245  : 		// Find out which element was chosen
; 246  : 		for (i = 0; i < iNumChoices; i++)

	mov	DWORD PTR _i$[ebp], 0
	jmp	SHORT $LN4@ChooseFrom
$LN3@ChooseFrom:
	mov	edx, DWORD PTR _i$[ebp]
	add	edx, 1
	mov	DWORD PTR _i$[ebp], edx
$LN4@ChooseFrom:
	mov	eax, DWORD PTR _i$[ebp]
	cmp	eax, DWORD PTR _iNumChoices$[ebp]
	jge	SHORT $LN2@ChooseFrom

; 247  : 		{
; 248  : 			elem = m_pItems[i];

	mov	ecx, DWORD PTR _this$[ebp]
	mov	edx, DWORD PTR [ecx]
	mov	eax, DWORD PTR _i$[ebp]
	mov	ecx, DWORD PTR [edx+eax*8]
	mov	edx, DWORD PTR [edx+eax*8+4]
	mov	DWORD PTR _elem$[ebp], ecx
	mov	DWORD PTR _elem$[ebp+4], edx

; 249  : 			iChoice -= elem.m_iWeight;

	mov	eax, DWORD PTR _iChoice$[ebp]
	sub	eax, DWORD PTR _elem$[ebp+4]
	mov	DWORD PTR _iChoice$[ebp], eax

; 250  : 			if (iChoice < 0)

	jns	SHORT $LN1@ChooseFrom

; 251  : 			{
; 252  : 				return elem.m_Element;

	mov	eax, DWORD PTR _elem$[ebp]
	jmp	SHORT $LN9@ChooseFrom
$LN1@ChooseFrom:

; 253  : 			}
; 254  : 		}

	jmp	SHORT $LN3@ChooseFrom
$LN2@ChooseFrom:

; 255  : 
; 256  : 		// We should have found something, so reaching here is an error
; 257  : 		//    Just return last thing accessed
; 258  : 		CvAssertMsg (false, "Internal error in CvWeightedVector.");
; 259  : 		return elem.m_Element;

	mov	eax, DWORD PTR _elem$[ebp]
$LN9@ChooseFrom:

; 260  : 	};

	mov	esp, ebp
	pop	ebp
	ret	12					; 0000000cH
?ChooseFromTopChoices@?$CvWeightedVector@H$0EA@$00@@QAEHHPAV?$FastDelegate2@HPBDH@fastdelegate@@PBD@Z ENDP ; CvWeightedVector<int,64,1>::ChooseFromTopChoices
_TEXT	ENDS
PUBLIC	??1?$BaseVector@UWeightedElement@?$CvWeightedVector@H$0EA@$00@@$00@@QAE@XZ ; BaseVector<CvWeightedVector<int,64,1>::WeightedElement,1>::~BaseVector<CvWeightedVector<int,64,1>::WeightedElement,1>
PUBLIC	??_C@_0FE@GLGBBJMA@d?3?2sources?2lekmod_git?2checkout?2l@ ; `string'
EXTRN	?FireMallocAlignedNoTracking@@YAPAXIIPBDH@Z:PROC ; FireMallocAlignedNoTracking
;	COMDAT ??_C@_0FE@GLGBBJMA@d?3?2sources?2lekmod_git?2checkout?2l@
; File d:\sources\lekmod_git\checkout\lekmod_dll\fireplace\include\fireworks\ffastvector.h
CONST	SEGMENT
??_C@_0FE@GLGBBJMA@d?3?2sources?2lekmod_git?2checkout?2l@ DB 'd:\sources\'
	DB	'lekmod_git\checkout\lekmod_dll\fireplace\include\fireworks\FF'
	DB	'astVector.h', 00H				; `string'
CONST	ENDS
;	COMDAT xdata$x
xdata$x	SEGMENT
__unwindtable$??0?$FStaticVector@UWeightedElement@?$CvWeightedVector@H$0EA@$00@@$0EA@$00$0A@$0A@@@QAE@XZ DD 0ffffffffH
	DD	FLAT:__unwindfunclet$??0?$FStaticVector@UWeightedElement@?$CvWeightedVector@H$0EA@$00@@$0EA@$00$0A@$0A@@@QAE@XZ$0
__ehfuncinfo$??0?$FStaticVector@UWeightedElement@?$CvWeightedVector@H$0EA@$00@@$0EA@$00$0A@$0A@@@QAE@XZ DD 019930522H
	DD	01H
	DD	FLAT:__unwindtable$??0?$FStaticVector@UWeightedElement@?$CvWeightedVector@H$0EA@$00@@$0EA@$00$0A@$0A@@@QAE@XZ
	DD	2 DUP(00H)
	DD	2 DUP(00H)
	DD	00H
	DD	01H
; Function compile flags: /Odtp
xdata$x	ENDS
;	COMDAT ??0?$FStaticVector@UWeightedElement@?$CvWeightedVector@H$0EA@$00@@$0EA@$00$0A@$0A@@@QAE@XZ
_TEXT	SEGMENT
_this$ = -24						; size = 4
$T224881 = -20						; size = 4
_pRet$224878 = -16					; size = 4
__$EHRec$ = -12						; size = 12
??0?$FStaticVector@UWeightedElement@?$CvWeightedVector@H$0EA@$00@@$0EA@$00$0A@$0A@@@QAE@XZ PROC ; FStaticVector<CvWeightedVector<int,64,1>::WeightedElement,64,1,0,0>::FStaticVector<CvWeightedVector<int,64,1>::WeightedElement,64,1,0,0>, COMDAT
; _this$ = ecx

; 601  : 	FStaticVector()

	push	ebp
	mov	ebp, esp
	push	-1
	push	__ehhandler$??0?$FStaticVector@UWeightedElement@?$CvWeightedVector@H$0EA@$00@@$0EA@$00$0A@$0A@@@QAE@XZ
	mov	eax, DWORD PTR fs:0
	push	eax
	sub	esp, 12					; 0000000cH
	mov	eax, DWORD PTR ___security_cookie
	xor	eax, ebp
	push	eax
	lea	eax, DWORD PTR __$EHRec$[ebp]
	mov	DWORD PTR fs:0, eax
	mov	DWORD PTR _this$[ebp], ecx
	mov	eax, DWORD PTR _this$[ebp]
	mov	DWORD PTR [eax], 0
	mov	ecx, DWORD PTR _this$[ebp]
	mov	DWORD PTR [ecx+4], 0
	mov	edx, DWORD PTR _this$[ebp]
	mov	DWORD PTR [edx+8], 0
	mov	DWORD PTR __$EHRec$[ebp+8], 0

; 602  :     {
; 603  : 		m_uiCurrMaxSize = L;

	mov	eax, DWORD PTR _this$[ebp]
	mov	DWORD PTR [eax+8], 64			; 00000040H

; 604  : 		m_pData = Alloc(m_uiCurrMaxSize);

	mov	ecx, DWORD PTR _this$[ebp]
	mov	edx, DWORD PTR [ecx+8]
	mov	DWORD PTR $T224881[ebp], edx
	cmp	DWORD PTR $T224881[ebp], 64		; 00000040H
	jbe	SHORT $LN7@FStaticVec
	push	798					; 0000031eH
	push	OFFSET ??_C@_0FE@GLGBBJMA@d?3?2sources?2lekmod_git?2checkout?2l@
	push	4
	mov	eax, DWORD PTR $T224881[ebp]
	shl	eax, 3
	push	eax
	call	?FireMallocAlignedNoTracking@@YAPAXIIPBDH@Z ; FireMallocAlignedNoTracking
	add	esp, 16					; 00000010H
	mov	DWORD PTR _pRet$224878[ebp], eax
	mov	ecx, DWORD PTR _this$[ebp]
	mov	edx, DWORD PTR $T224881[ebp]
	mov	DWORD PTR [ecx+8], edx
	jmp	SHORT $LN8@FStaticVec
$LN7@FStaticVec:
	mov	eax, DWORD PTR _this$[ebp]
	add	eax, 12					; 0000000cH
	mov	DWORD PTR _pRet$224878[ebp], eax
	mov	ecx, DWORD PTR _this$[ebp]
	mov	DWORD PTR [ecx+8], 64			; 00000040H
$LN8@FStaticVec:
	mov	edx, DWORD PTR _this$[ebp]
	mov	eax, DWORD PTR _pRet$224878[ebp]
	mov	DWORD PTR [edx], eax

; 605  : #ifdef BREAK_ON_STATIC_RESIZE
; 606  : 		m_iNumResized = 0;
; 607  : #endif
; 608  :     };

	mov	DWORD PTR __$EHRec$[ebp+8], -1
	mov	eax, DWORD PTR _this$[ebp]
	mov	ecx, DWORD PTR __$EHRec$[ebp]
	mov	DWORD PTR fs:0, ecx
	pop	ecx
	mov	esp, ebp
	pop	ebp
	ret	0
_TEXT	ENDS
;	COMDAT text$x
text$x	SEGMENT
