; Listing generated by Microsoft (R) Optimizing Compiler Version 15.00.30729.01 

	TITLE	D:\sources\Lekmod_git\checkout\LEKMOD_DLL\CvGameCoreDLL_Expansion2\CvPolicyClasses.cpp
	.686P
	.XMM
	include listing.inc
	.model	flat

INCLUDELIB MSVCRT
INCLUDELIB OLDNAMES

PUBLIC	??_C@_0CF@IGNANIEL@b103d2e0?93aab?940d7?9a2f3?9375d2eab@ ; `string'
PUBLIC	?NO_QUEST_DATA@CvMinorCivQuest@@2HB		; CvMinorCivQuest::NO_QUEST_DATA
PUBLIC	?NO_TURN@CvMinorCivQuest@@2HB			; CvMinorCivQuest::NO_TURN
CONST	SEGMENT
_CIV5_XP1_SCENARIO3_MODID DD FLAT:??_C@_0CF@IGNANIEL@b103d2e0?93aab?940d7?9a2f3?9375d2eab@
CONST	ENDS
;	COMDAT ??_C@_0CF@IGNANIEL@b103d2e0?93aab?940d7?9a2f3?9375d2eab@
CONST	SEGMENT
??_C@_0CF@IGNANIEL@b103d2e0?93aab?940d7?9a2f3?9375d2eab@ DB 'b103d2e0-3aa'
	DB	'b-40d7-a2f3-375d2eabfcaf', 00H		; `string'
CONST	ENDS
;	COMDAT ?NO_TURN@CvMinorCivQuest@@2HB
CONST	SEGMENT
?NO_TURN@CvMinorCivQuest@@2HB DD 0ffffffffH		; CvMinorCivQuest::NO_TURN
CONST	ENDS
;	COMDAT ?NO_QUEST_DATA@CvMinorCivQuest@@2HB
CONST	SEGMENT
?NO_QUEST_DATA@CvMinorCivQuest@@2HB DD 0ffffffffH	; CvMinorCivQuest::NO_QUEST_DATA
CONST	ENDS
PUBLIC	??1CvString@@QAE@XZ				; CvString::~CvString
PUBLIC	??1CvBaseInfo@@QAE@XZ				; CvBaseInfo::~CvBaseInfo
PUBLIC	??0?$multimap@HHU?$less@H@std@@V?$allocator@U?$pair@$$CBHH@std@@@2@@std@@QAE@XZ ; std::multimap<int,int,std::less<int>,std::allocator<std::pair<int const ,int> > >::multimap<int,int,std::less<int>,std::allocator<std::pair<int const ,int> > >
PUBLIC	??_7CvPolicyEntry@@6B@				; CvPolicyEntry::`vftable'
PUBLIC	??0CvPolicyEntry@@QAE@XZ			; CvPolicyEntry::CvPolicyEntry
PUBLIC	?CacheResults@CvPolicyEntry@@UAE_NAAVResults@Database@@AAVCvDatabaseUtility@@@Z ; CvPolicyEntry::CacheResults
EXTRN	__imp_??0?$basic_string@DU?$char_traits@D@std@@V?$allocator@D@2@@std@@QAE@XZ:PROC
EXTRN	??0CvBaseInfo@@QAE@XZ:PROC			; CvBaseInfo::CvBaseInfo
EXTRN	___security_cookie:DWORD
EXTRN	___CxxFrameHandler3:PROC
EXTRN	@__security_check_cookie@4:PROC
EXTRN	??8CvBaseInfo@@UBE_NABV0@@Z:PROC		; CvBaseInfo::operator==
EXTRN	?readFrom@CvBaseInfo@@UAEXAAVFDataStream@@@Z:PROC ; CvBaseInfo::readFrom
EXTRN	?writeTo@CvBaseInfo@@UBEXAAVFDataStream@@@Z:PROC ; CvBaseInfo::writeTo
;	COMDAT ??_7CvPolicyEntry@@6B@
; File c:\program files (x86)\microsoft visual studio 9.0\vc\include\xtree
CONST	SEGMENT
??_7CvPolicyEntry@@6B@ DD FLAT:?CacheResults@CvPolicyEntry@@UAE_NAAVResults@Database@@AAVCvDatabaseUtility@@@Z ; CvPolicyEntry::`vftable'
	DD	FLAT:??8CvBaseInfo@@UBE_NABV0@@Z
	DD	FLAT:?readFrom@CvBaseInfo@@UAEXAAVFDataStream@@@Z
	DD	FLAT:?writeTo@CvBaseInfo@@UBEXAAVFDataStream@@@Z
CONST	ENDS
;	COMDAT xdata$x
xdata$x	SEGMENT
__unwindtable$??0CvPolicyEntry@@QAE@XZ DD 0ffffffffH
	DD	FLAT:__unwindfunclet$??0CvPolicyEntry@@QAE@XZ$0
	DD	00H
	DD	FLAT:__unwindfunclet$??0CvPolicyEntry@@QAE@XZ$1
	DD	01H
	DD	FLAT:__unwindfunclet$??0CvPolicyEntry@@QAE@XZ$2
__ehfuncinfo$??0CvPolicyEntry@@QAE@XZ DD 019930522H
	DD	03H
	DD	FLAT:__unwindtable$??0CvPolicyEntry@@QAE@XZ
	DD	2 DUP(00H)
	DD	2 DUP(00H)
	DD	00H
	DD	01H
; Function compile flags: /Odtp
; File d:\sources\lekmod_git\checkout\lekmod_dll\cvgamecoredll_expansion2\cvpolicyclasses.cpp
xdata$x	ENDS
;	COMDAT ??0CvPolicyEntry@@QAE@XZ
_TEXT	SEGMENT
_this$ = -80						; size = 4
$T230506 = -20						; size = 4
$T230501 = -16						; size = 4
__$EHRec$ = -12						; size = 12
??0CvPolicyEntry@@QAE@XZ PROC				; CvPolicyEntry::CvPolicyEntry, COMDAT
; _this$ = ecx

; 292  : {

	push	ebp
	mov	ebp, esp
	push	-1
	push	__ehhandler$??0CvPolicyEntry@@QAE@XZ
	mov	eax, DWORD PTR fs:0
	push	eax
	sub	esp, 68					; 00000044H
	mov	eax, DWORD PTR ___security_cookie
	xor	eax, ebp
	push	eax
	lea	eax, DWORD PTR __$EHRec$[ebp]
	mov	DWORD PTR fs:0, eax
	mov	DWORD PTR _this$[ebp], ecx
	mov	ecx, DWORD PTR _this$[ebp]
	call	??0CvBaseInfo@@QAE@XZ			; CvBaseInfo::CvBaseInfo
	mov	DWORD PTR __$EHRec$[ebp+8], 0
	mov	eax, DWORD PTR _this$[ebp]
	mov	DWORD PTR [eax], OFFSET ??_7CvPolicyEntry@@6B@
	mov	ecx, DWORD PTR _this$[ebp]
	mov	DWORD PTR [ecx+260], -1
	mov	edx, DWORD PTR _this$[ebp]
	mov	DWORD PTR [edx+264], 0
	mov	eax, DWORD PTR _this$[ebp]
	mov	DWORD PTR [eax+268], 0
	mov	ecx, DWORD PTR _this$[ebp]
	mov	DWORD PTR [ecx+272], 0
	mov	edx, DWORD PTR _this$[ebp]
	mov	DWORD PTR [edx+276], 0
	mov	eax, DWORD PTR _this$[ebp]
	mov	DWORD PTR [eax+280], 0
	mov	ecx, DWORD PTR _this$[ebp]
	mov	DWORD PTR [ecx+284], 0
	mov	edx, DWORD PTR _this$[ebp]
	mov	DWORD PTR [edx+288], 0
	mov	eax, DWORD PTR _this$[ebp]
	mov	DWORD PTR [eax+292], 0
	mov	ecx, DWORD PTR _this$[ebp]
	mov	DWORD PTR [ecx+296], 0
	mov	edx, DWORD PTR _this$[ebp]
	mov	DWORD PTR [edx+300], 0
	mov	eax, DWORD PTR _this$[ebp]
	mov	DWORD PTR [eax+304], 0
	mov	ecx, DWORD PTR _this$[ebp]
	mov	DWORD PTR [ecx+308], 0
	mov	edx, DWORD PTR _this$[ebp]
	mov	DWORD PTR [edx+312], 0
	mov	eax, DWORD PTR _this$[ebp]
	mov	DWORD PTR [eax+316], 0
	mov	ecx, DWORD PTR _this$[ebp]
	mov	DWORD PTR [ecx+320], 0
	mov	edx, DWORD PTR _this$[ebp]
	mov	DWORD PTR [edx+324], 0
	mov	eax, DWORD PTR _this$[ebp]
	mov	DWORD PTR [eax+328], 0
	mov	ecx, DWORD PTR _this$[ebp]
	mov	DWORD PTR [ecx+332], 0
	mov	edx, DWORD PTR _this$[ebp]
	mov	DWORD PTR [edx+336], 0
	mov	eax, DWORD PTR _this$[ebp]
	mov	DWORD PTR [eax+340], 0
	mov	ecx, DWORD PTR _this$[ebp]
	mov	DWORD PTR [ecx+344], 0
	mov	edx, DWORD PTR _this$[ebp]
	mov	DWORD PTR [edx+348], 0
	mov	eax, DWORD PTR _this$[ebp]
	mov	DWORD PTR [eax+352], 0
	mov	ecx, DWORD PTR _this$[ebp]
	mov	DWORD PTR [ecx+356], 0
	mov	edx, DWORD PTR _this$[ebp]
	mov	DWORD PTR [edx+360], 0
	mov	eax, DWORD PTR _this$[ebp]
	mov	DWORD PTR [eax+364], 0
	mov	ecx, DWORD PTR _this$[ebp]
	mov	DWORD PTR [ecx+368], 0
	mov	edx, DWORD PTR _this$[ebp]
	mov	DWORD PTR [edx+372], 0
	mov	eax, DWORD PTR _this$[ebp]
	mov	DWORD PTR [eax+376], 0
	mov	ecx, DWORD PTR _this$[ebp]
	mov	DWORD PTR [ecx+380], 0
	mov	edx, DWORD PTR _this$[ebp]
	mov	DWORD PTR [edx+384], 0
	mov	eax, DWORD PTR _this$[ebp]
	mov	DWORD PTR [eax+388], 0
	mov	ecx, DWORD PTR _this$[ebp]
	mov	DWORD PTR [ecx+392], 0
	mov	edx, DWORD PTR _this$[ebp]
	mov	DWORD PTR [edx+396], 0
	mov	eax, DWORD PTR _this$[ebp]
	mov	DWORD PTR [eax+400], 0
	mov	ecx, DWORD PTR _this$[ebp]
	mov	DWORD PTR [ecx+404], 0
	mov	edx, DWORD PTR _this$[ebp]
	mov	DWORD PTR [edx+408], 0
	mov	eax, DWORD PTR _this$[ebp]
	mov	DWORD PTR [eax+412], 0
	mov	ecx, DWORD PTR _this$[ebp]
	mov	DWORD PTR [ecx+416], 0
	mov	edx, DWORD PTR _this$[ebp]
	mov	DWORD PTR [edx+420], 0
	mov	eax, DWORD PTR _this$[ebp]
	mov	DWORD PTR [eax+424], 0
	mov	ecx, DWORD PTR _this$[ebp]
	mov	DWORD PTR [ecx+428], 0
	mov	edx, DWORD PTR _this$[ebp]
	mov	DWORD PTR [edx+432], 0
	mov	eax, DWORD PTR _this$[ebp]
	mov	DWORD PTR [eax+436], 0
	mov	ecx, DWORD PTR _this$[ebp]
	mov	DWORD PTR [ecx+440], 0
	mov	edx, DWORD PTR _this$[ebp]
	mov	DWORD PTR [edx+444], 0
	mov	eax, DWORD PTR _this$[ebp]
	mov	DWORD PTR [eax+448], 0
	mov	ecx, DWORD PTR _this$[ebp]
	mov	DWORD PTR [ecx+452], 0
	mov	edx, DWORD PTR _this$[ebp]
	mov	DWORD PTR [edx+456], 0
	mov	eax, DWORD PTR _this$[ebp]
	mov	DWORD PTR [eax+460], 0
	mov	ecx, DWORD PTR _this$[ebp]
	mov	DWORD PTR [ecx+464], 0
	mov	edx, DWORD PTR _this$[ebp]
	mov	DWORD PTR [edx+468], 0
	mov	eax, DWORD PTR _this$[ebp]
	mov	DWORD PTR [eax+472], 0
	mov	ecx, DWORD PTR _this$[ebp]
	mov	DWORD PTR [ecx+476], 0
	mov	edx, DWORD PTR _this$[ebp]
	mov	DWORD PTR [edx+480], 0
	mov	eax, DWORD PTR _this$[ebp]
	mov	DWORD PTR [eax+484], 0
	mov	ecx, DWORD PTR _this$[ebp]
	mov	DWORD PTR [ecx+488], 0
	mov	edx, DWORD PTR _this$[ebp]
	mov	DWORD PTR [edx+492], 0
	mov	eax, DWORD PTR _this$[ebp]
	mov	DWORD PTR [eax+496], 0
	mov	ecx, DWORD PTR _this$[ebp]
	mov	DWORD PTR [ecx+500], 0
	mov	edx, DWORD PTR _this$[ebp]
	mov	DWORD PTR [edx+504], 0
	mov	eax, DWORD PTR _this$[ebp]
	mov	DWORD PTR [eax+508], 0
	mov	ecx, DWORD PTR _this$[ebp]
	mov	DWORD PTR [ecx+512], 0
	mov	edx, DWORD PTR _this$[ebp]
	mov	DWORD PTR [edx+516], 0
	mov	eax, DWORD PTR _this$[ebp]
	mov	DWORD PTR [eax+520], 0
	mov	ecx, DWORD PTR _this$[ebp]
	mov	DWORD PTR [ecx+524], 0
	mov	edx, DWORD PTR _this$[ebp]
	mov	DWORD PTR [edx+528], 0
	mov	eax, DWORD PTR _this$[ebp]
	mov	DWORD PTR [eax+532], 0
	mov	ecx, DWORD PTR _this$[ebp]
	mov	DWORD PTR [ecx+536], 0
	mov	edx, DWORD PTR _this$[ebp]
	mov	DWORD PTR [edx+540], 0
	mov	eax, DWORD PTR _this$[ebp]
	mov	DWORD PTR [eax+544], 0
	mov	ecx, DWORD PTR _this$[ebp]
	mov	DWORD PTR [ecx+548], 0
	mov	edx, DWORD PTR _this$[ebp]
	mov	DWORD PTR [edx+552], 0
	mov	eax, DWORD PTR _this$[ebp]
	mov	DWORD PTR [eax+556], 0
	mov	ecx, DWORD PTR _this$[ebp]
	mov	DWORD PTR [ecx+560], 0
	mov	edx, DWORD PTR _this$[ebp]
	mov	DWORD PTR [edx+564], 0
	mov	eax, DWORD PTR _this$[ebp]
	mov	DWORD PTR [eax+568], 0
	mov	ecx, DWORD PTR _this$[ebp]
	mov	DWORD PTR [ecx+572], 0
	mov	edx, DWORD PTR _this$[ebp]
	mov	DWORD PTR [edx+576], 0
	mov	eax, DWORD PTR _this$[ebp]
	mov	DWORD PTR [eax+580], 0
	mov	ecx, DWORD PTR _this$[ebp]
	mov	DWORD PTR [ecx+584], 0
	mov	edx, DWORD PTR _this$[ebp]
	mov	DWORD PTR [edx+588], 0
	mov	eax, DWORD PTR _this$[ebp]
	mov	DWORD PTR [eax+592], 0
	mov	ecx, DWORD PTR _this$[ebp]
	mov	DWORD PTR [ecx+596], 0
	mov	edx, DWORD PTR _this$[ebp]
	mov	DWORD PTR [edx+600], 0
	mov	eax, DWORD PTR _this$[ebp]
	mov	DWORD PTR [eax+604], 0
	mov	ecx, DWORD PTR _this$[ebp]
	mov	DWORD PTR [ecx+608], 0
	mov	edx, DWORD PTR _this$[ebp]
	mov	DWORD PTR [edx+612], 0
	mov	eax, DWORD PTR _this$[ebp]
	mov	DWORD PTR [eax+616], 0
	mov	ecx, DWORD PTR _this$[ebp]
	mov	DWORD PTR [ecx+620], 0
	mov	edx, DWORD PTR _this$[ebp]
	mov	DWORD PTR [edx+624], 0
	mov	eax, DWORD PTR _this$[ebp]
	mov	DWORD PTR [eax+628], 0
	mov	ecx, DWORD PTR _this$[ebp]
	mov	DWORD PTR [ecx+632], 0
	mov	edx, DWORD PTR _this$[ebp]
	mov	DWORD PTR [edx+636], 0
	mov	eax, DWORD PTR _this$[ebp]
	mov	DWORD PTR [eax+640], 0
	mov	ecx, DWORD PTR _this$[ebp]
	mov	DWORD PTR [ecx+644], 0
	mov	edx, DWORD PTR _this$[ebp]
	mov	DWORD PTR [edx+648], 0
	mov	eax, DWORD PTR _this$[ebp]
	mov	DWORD PTR [eax+652], 0
	mov	ecx, DWORD PTR _this$[ebp]
	mov	DWORD PTR [ecx+656], 0
	mov	edx, DWORD PTR _this$[ebp]
	mov	DWORD PTR [edx+660], 0
	mov	eax, DWORD PTR _this$[ebp]
	mov	DWORD PTR [eax+664], 0
	mov	ecx, DWORD PTR _this$[ebp]
	mov	DWORD PTR [ecx+668], 0
	mov	edx, DWORD PTR _this$[ebp]
	mov	DWORD PTR [edx+672], 0
	mov	eax, DWORD PTR _this$[ebp]
	mov	DWORD PTR [eax+676], 0
	mov	ecx, DWORD PTR _this$[ebp]
	mov	DWORD PTR [ecx+680], 0
	mov	edx, DWORD PTR _this$[ebp]
	mov	DWORD PTR [edx+684], 0
	mov	eax, DWORD PTR _this$[ebp]
	mov	DWORD PTR [eax+688], 0
	mov	ecx, DWORD PTR _this$[ebp]
	mov	DWORD PTR [ecx+692], 0
	mov	edx, DWORD PTR _this$[ebp]
	mov	DWORD PTR [edx+696], 0
	mov	eax, DWORD PTR _this$[ebp]
	mov	DWORD PTR [eax+700], 0
	mov	ecx, DWORD PTR _this$[ebp]
	mov	DWORD PTR [ecx+704], 0
	mov	edx, DWORD PTR _this$[ebp]
	mov	DWORD PTR [edx+708], 0
	mov	eax, DWORD PTR _this$[ebp]
	mov	DWORD PTR [eax+712], 0
	mov	ecx, DWORD PTR _this$[ebp]
	mov	DWORD PTR [ecx+716], 0
	mov	edx, DWORD PTR _this$[ebp]
	mov	DWORD PTR [edx+720], 0
	mov	eax, DWORD PTR _this$[ebp]
	mov	DWORD PTR [eax+724], 0
	mov	ecx, DWORD PTR _this$[ebp]
	mov	DWORD PTR [ecx+728], 0
	mov	edx, DWORD PTR _this$[ebp]
	mov	DWORD PTR [edx+732], 0
	mov	eax, DWORD PTR _this$[ebp]
	mov	DWORD PTR [eax+736], 0
	mov	ecx, DWORD PTR _this$[ebp]
	mov	DWORD PTR [ecx+740], 0
	mov	edx, DWORD PTR _this$[ebp]
	mov	DWORD PTR [edx+744], 0
	mov	eax, DWORD PTR _this$[ebp]
	mov	DWORD PTR [eax+748], 0
	mov	ecx, DWORD PTR _this$[ebp]
	mov	DWORD PTR [ecx+752], 0
	mov	edx, DWORD PTR _this$[ebp]
	mov	DWORD PTR [edx+756], 0
	mov	eax, DWORD PTR _this$[ebp]
	mov	DWORD PTR [eax+760], 0
	mov	ecx, DWORD PTR _this$[ebp]
	mov	DWORD PTR [ecx+764], 0
	mov	edx, DWORD PTR _this$[ebp]
	mov	DWORD PTR [edx+768], 0
	mov	eax, DWORD PTR _this$[ebp]
	mov	DWORD PTR [eax+772], 0
	mov	ecx, DWORD PTR _this$[ebp]
	mov	BYTE PTR [ecx+776], 0
	mov	edx, DWORD PTR _this$[ebp]
	mov	BYTE PTR [edx+777], 0
	mov	eax, DWORD PTR _this$[ebp]
	mov	BYTE PTR [eax+778], 0
	mov	ecx, DWORD PTR _this$[ebp]
	mov	DWORD PTR [ecx+780], 0
	mov	edx, DWORD PTR _this$[ebp]
	mov	DWORD PTR [edx+784], 0
	mov	eax, DWORD PTR _this$[ebp]
	mov	DWORD PTR [eax+788], 0
	mov	ecx, DWORD PTR _this$[ebp]
	mov	DWORD PTR [ecx+792], 0
	mov	edx, DWORD PTR _this$[ebp]
	mov	DWORD PTR [edx+796], 0
	mov	eax, DWORD PTR _this$[ebp]
	mov	DWORD PTR [eax+800], 0
	mov	ecx, DWORD PTR _this$[ebp]
	mov	DWORD PTR [ecx+804], 0
	mov	edx, DWORD PTR _this$[ebp]
	mov	DWORD PTR [edx+808], 0
	mov	eax, DWORD PTR _this$[ebp]
	mov	DWORD PTR [eax+812], 0
	mov	ecx, DWORD PTR _this$[ebp]
	mov	DWORD PTR [ecx+816], 0
	mov	edx, DWORD PTR _this$[ebp]
	mov	DWORD PTR [edx+820], -1
	mov	eax, DWORD PTR _this$[ebp]
	mov	DWORD PTR [eax+824], 0
	mov	ecx, DWORD PTR _this$[ebp]
	mov	DWORD PTR [ecx+828], 0
	mov	edx, DWORD PTR _this$[ebp]
	mov	DWORD PTR [edx+832], 0
	mov	eax, DWORD PTR _this$[ebp]
	mov	DWORD PTR [eax+836], 0
	mov	ecx, DWORD PTR _this$[ebp]
	mov	DWORD PTR [ecx+840], 0
	mov	edx, DWORD PTR _this$[ebp]
	mov	DWORD PTR [edx+844], 0
	mov	eax, DWORD PTR _this$[ebp]
	mov	DWORD PTR [eax+848], 0
	mov	ecx, DWORD PTR _this$[ebp]
	mov	DWORD PTR [ecx+852], 0
	mov	edx, DWORD PTR _this$[ebp]
	mov	DWORD PTR [edx+856], 0
	mov	eax, DWORD PTR _this$[ebp]
	mov	DWORD PTR [eax+860], 0
	mov	ecx, DWORD PTR _this$[ebp]
	mov	DWORD PTR [ecx+864], 0
	mov	edx, DWORD PTR _this$[ebp]
	mov	DWORD PTR [edx+868], 0
	mov	eax, DWORD PTR _this$[ebp]
	mov	BYTE PTR [eax+872], 0
	mov	ecx, DWORD PTR _this$[ebp]
	mov	BYTE PTR [ecx+873], 0
	mov	edx, DWORD PTR _this$[ebp]
	mov	BYTE PTR [edx+874], 0
	mov	eax, DWORD PTR _this$[ebp]
	mov	BYTE PTR [eax+875], 0
	mov	ecx, DWORD PTR _this$[ebp]
	mov	BYTE PTR [ecx+876], 0
	mov	edx, DWORD PTR _this$[ebp]
	mov	BYTE PTR [edx+877], 0
	mov	eax, DWORD PTR _this$[ebp]
	mov	BYTE PTR [eax+878], 0
	mov	ecx, DWORD PTR _this$[ebp]
	mov	BYTE PTR [ecx+879], 0
	mov	edx, DWORD PTR _this$[ebp]
	mov	BYTE PTR [edx+880], 0
	mov	eax, DWORD PTR _this$[ebp]
	mov	BYTE PTR [eax+881], 0
	mov	ecx, DWORD PTR _this$[ebp]
	mov	BYTE PTR [ecx+882], 0
	mov	edx, DWORD PTR _this$[ebp]
	mov	BYTE PTR [edx+883], 0
	mov	eax, DWORD PTR _this$[ebp]
	mov	BYTE PTR [eax+884], 0
	mov	ecx, DWORD PTR _this$[ebp]
	mov	BYTE PTR [ecx+885], 0
	mov	edx, DWORD PTR _this$[ebp]
	mov	BYTE PTR [edx+886], 0
	mov	eax, DWORD PTR _this$[ebp]
	mov	BYTE PTR [eax+887], 0
	mov	ecx, DWORD PTR _this$[ebp]
	mov	BYTE PTR [ecx+888], 0
	mov	edx, DWORD PTR _this$[ebp]
	mov	BYTE PTR [edx+889], 0
	mov	eax, DWORD PTR _this$[ebp]
	mov	BYTE PTR [eax+890], 0
	mov	ecx, DWORD PTR _this$[ebp]
	mov	BYTE PTR [ecx+891], 0
	mov	edx, DWORD PTR _this$[ebp]
	add	edx, 892				; 0000037cH
	mov	DWORD PTR $T230501[ebp], edx
	mov	ecx, DWORD PTR $T230501[ebp]
	call	DWORD PTR __imp_??0?$basic_string@DU?$char_traits@D@std@@V?$allocator@D@2@@std@@QAE@XZ
	mov	BYTE PTR __$EHRec$[ebp+8], 1
	mov	eax, DWORD PTR _this$[ebp]
	add	eax, 920				; 00000398H
	mov	DWORD PTR $T230506[ebp], eax
	mov	ecx, DWORD PTR $T230506[ebp]
	call	DWORD PTR __imp_??0?$basic_string@DU?$char_traits@D@std@@V?$allocator@D@2@@std@@QAE@XZ
	mov	BYTE PTR __$EHRec$[ebp+8], 2
	mov	ecx, DWORD PTR _this$[ebp]
	mov	DWORD PTR [ecx+948], -1
	mov	ecx, DWORD PTR _this$[ebp]
	add	ecx, 952				; 000003b8H
	call	??0?$multimap@HHU?$less@H@std@@V?$allocator@U?$pair@$$CBHH@std@@@2@@std@@QAE@XZ ; std::multimap<int,int,std::less<int>,std::allocator<std::pair<int const ,int> > >::multimap<int,int,std::less<int>,std::allocator<std::pair<int const ,int> > >
	mov	edx, DWORD PTR _this$[ebp]
	mov	DWORD PTR [edx+964], 0
	mov	eax, DWORD PTR _this$[ebp]
	mov	DWORD PTR [eax+968], 0
	mov	ecx, DWORD PTR _this$[ebp]
	mov	DWORD PTR [ecx+972], 0
	mov	edx, DWORD PTR _this$[ebp]
	mov	DWORD PTR [edx+976], 0
	mov	eax, DWORD PTR _this$[ebp]
	mov	DWORD PTR [eax+980], 0
	mov	ecx, DWORD PTR _this$[ebp]
	mov	DWORD PTR [ecx+984], 0
	mov	edx, DWORD PTR _this$[ebp]
	mov	DWORD PTR [edx+988], 0
	mov	eax, DWORD PTR _this$[ebp]
	mov	DWORD PTR [eax+992], 0
	mov	ecx, DWORD PTR _this$[ebp]
	mov	DWORD PTR [ecx+996], 0
	mov	edx, DWORD PTR _this$[ebp]
	mov	DWORD PTR [edx+1000], 0
	mov	eax, DWORD PTR _this$[ebp]
	mov	DWORD PTR [eax+1004], 0
	mov	ecx, DWORD PTR _this$[ebp]
	mov	DWORD PTR [ecx+1012], 0
	mov	edx, DWORD PTR _this$[ebp]
	mov	DWORD PTR [edx+1016], 0
	mov	eax, DWORD PTR _this$[ebp]
	mov	DWORD PTR [eax+1020], 0
	mov	ecx, DWORD PTR _this$[ebp]
	mov	DWORD PTR [ecx+1024], 0
	mov	edx, DWORD PTR _this$[ebp]
	mov	DWORD PTR [edx+1028], 0
	mov	eax, DWORD PTR _this$[ebp]
	mov	DWORD PTR [eax+1032], 0
	mov	ecx, DWORD PTR _this$[ebp]
	mov	DWORD PTR [ecx+1036], 0
	mov	edx, DWORD PTR _this$[ebp]
	mov	DWORD PTR [edx+1040], 0
	mov	eax, DWORD PTR _this$[ebp]
	mov	DWORD PTR [eax+1044], 0
	mov	ecx, DWORD PTR _this$[ebp]
	mov	DWORD PTR [ecx+1048], 0
	mov	edx, DWORD PTR _this$[ebp]
	mov	DWORD PTR [edx+1052], 0
	mov	eax, DWORD PTR _this$[ebp]
	mov	DWORD PTR [eax+1056], 0
	mov	ecx, DWORD PTR _this$[ebp]
	mov	DWORD PTR [ecx+1060], 0
	mov	edx, DWORD PTR _this$[ebp]
	mov	DWORD PTR [edx+1064], 0
	mov	eax, DWORD PTR _this$[ebp]
	mov	DWORD PTR [eax+1068], 0

; 293  : }

	mov	DWORD PTR __$EHRec$[ebp+8], -1
	mov	eax, DWORD PTR _this$[ebp]
	mov	ecx, DWORD PTR __$EHRec$[ebp]
	mov	DWORD PTR fs:0, ecx
	pop	ecx
	mov	esp, ebp
	pop	ebp
	ret	0
_TEXT	ENDS
;	COMDAT text$x
text$x	SEGMENT
__unwindfunclet$??0CvPolicyEntry@@QAE@XZ$0:
	mov	ecx, DWORD PTR _this$[ebp]
	jmp	??1CvBaseInfo@@QAE@XZ
__unwindfunclet$??0CvPolicyEntry@@QAE@XZ$1:
	mov	ecx, DWORD PTR _this$[ebp]
	add	ecx, 892				; 0000037cH
	jmp	??1CvString@@QAE@XZ			; CvString::~CvString
__unwindfunclet$??0CvPolicyEntry@@QAE@XZ$2:
	mov	ecx, DWORD PTR _this$[ebp]
	add	ecx, 920				; 00000398H
	jmp	??1CvString@@QAE@XZ			; CvString::~CvString
__ehhandler$??0CvPolicyEntry@@QAE@XZ:
	mov	edx, DWORD PTR [esp+8]
	lea	eax, DWORD PTR [edx+12]
	mov	ecx, DWORD PTR [edx-72]
	xor	ecx, eax
	call	@__security_check_cookie@4
	mov	eax, OFFSET __ehfuncinfo$??0CvPolicyEntry@@QAE@XZ
	jmp	___CxxFrameHandler3
text$x	ENDS
??0CvPolicyEntry@@QAE@XZ ENDP				; CvPolicyEntry::CvPolicyEntry
EXTRN	__imp_??1?$basic_string@DU?$char_traits@D@std@@V?$allocator@D@2@@std@@QAE@XZ:PROC
;	COMDAT xdata$x
xdata$x	SEGMENT
__ehfuncinfo$??1CvBaseInfo@@QAE@XZ DD 019930522H
	DD	08H
	DD	FLAT:__unwindtable$??1CvBaseInfo@@QAE@XZ
	DD	2 DUP(00H)
	DD	2 DUP(00H)
	DD	00H
	DD	01H
__unwindtable$??1CvBaseInfo@@QAE@XZ DD 0ffffffffH
	DD	FLAT:__unwindfunclet$??1CvBaseInfo@@QAE@XZ$0
	DD	00H
	DD	FLAT:__unwindfunclet$??1CvBaseInfo@@QAE@XZ$1
	DD	01H
	DD	FLAT:__unwindfunclet$??1CvBaseInfo@@QAE@XZ$2
	DD	02H
	DD	FLAT:__unwindfunclet$??1CvBaseInfo@@QAE@XZ$3
	DD	03H
	DD	FLAT:__unwindfunclet$??1CvBaseInfo@@QAE@XZ$4
	DD	04H
	DD	FLAT:__unwindfunclet$??1CvBaseInfo@@QAE@XZ$5
	DD	05H
	DD	FLAT:__unwindfunclet$??1CvBaseInfo@@QAE@XZ$6
	DD	06H
	DD	FLAT:__unwindfunclet$??1CvBaseInfo@@QAE@XZ$7
; Function compile flags: /Odtp
xdata$x	ENDS
;	COMDAT ??1CvBaseInfo@@QAE@XZ
_TEXT	SEGMENT
_this$ = -52						; size = 4
$T230765 = -48						; size = 4
$T230760 = -44						; size = 4
$T230755 = -40						; size = 4
$T230750 = -36						; size = 4
$T230745 = -32						; size = 4
$T230740 = -28						; size = 4
$T230735 = -24						; size = 4
$T230730 = -20						; size = 4
$T230725 = -16						; size = 4
__$EHRec$ = -12						; size = 12
??1CvBaseInfo@@QAE@XZ PROC				; CvBaseInfo::~CvBaseInfo, COMDAT
; _this$ = ecx
	push	ebp
	mov	ebp, esp
	push	-1
	push	__ehhandler$??1CvBaseInfo@@QAE@XZ
	mov	eax, DWORD PTR fs:0
	push	eax
	sub	esp, 40					; 00000028H
	mov	eax, DWORD PTR ___security_cookie
	xor	eax, ebp
	push	eax
	lea	eax, DWORD PTR __$EHRec$[ebp]
	mov	DWORD PTR fs:0, eax
	mov	DWORD PTR _this$[ebp], ecx
	mov	DWORD PTR __$EHRec$[ebp+8], 7
	mov	eax, DWORD PTR _this$[ebp]
	add	eax, 232				; 000000e8H
	mov	DWORD PTR $T230725[ebp], eax
	mov	ecx, DWORD PTR $T230725[ebp]
	call	DWORD PTR __imp_??1?$basic_string@DU?$char_traits@D@std@@V?$allocator@D@2@@std@@QAE@XZ
	mov	BYTE PTR __$EHRec$[ebp+8], 6
	mov	ecx, DWORD PTR _this$[ebp]
	add	ecx, 204				; 000000ccH
	mov	DWORD PTR $T230730[ebp], ecx
	mov	ecx, DWORD PTR $T230730[ebp]
	call	DWORD PTR __imp_??1?$basic_string@DU?$char_traits@D@std@@V?$allocator@D@2@@std@@QAE@XZ
	mov	BYTE PTR __$EHRec$[ebp+8], 5
	mov	edx, DWORD PTR _this$[ebp]
	add	edx, 176				; 000000b0H
	mov	DWORD PTR $T230735[ebp], edx
	mov	ecx, DWORD PTR $T230735[ebp]
	call	DWORD PTR __imp_??1?$basic_string@DU?$char_traits@D@std@@V?$allocator@D@2@@std@@QAE@XZ
	mov	BYTE PTR __$EHRec$[ebp+8], 4
	mov	eax, DWORD PTR _this$[ebp]
	add	eax, 148				; 00000094H
	mov	DWORD PTR $T230740[ebp], eax
	mov	ecx, DWORD PTR $T230740[ebp]
	call	DWORD PTR __imp_??1?$basic_string@DU?$char_traits@D@std@@V?$allocator@D@2@@std@@QAE@XZ
	mov	BYTE PTR __$EHRec$[ebp+8], 3
	mov	ecx, DWORD PTR _this$[ebp]
	add	ecx, 120				; 00000078H
	mov	DWORD PTR $T230745[ebp], ecx
	mov	ecx, DWORD PTR $T230745[ebp]
	call	DWORD PTR __imp_??1?$basic_string@DU?$char_traits@D@std@@V?$allocator@D@2@@std@@QAE@XZ
	mov	BYTE PTR __$EHRec$[ebp+8], 2
	mov	edx, DWORD PTR _this$[ebp]
	add	edx, 92					; 0000005cH
	mov	DWORD PTR $T230750[ebp], edx
	mov	ecx, DWORD PTR $T230750[ebp]
	call	DWORD PTR __imp_??1?$basic_string@DU?$char_traits@D@std@@V?$allocator@D@2@@std@@QAE@XZ
	mov	BYTE PTR __$EHRec$[ebp+8], 1
	mov	eax, DWORD PTR _this$[ebp]
	add	eax, 64					; 00000040H
	mov	DWORD PTR $T230755[ebp], eax
	mov	ecx, DWORD PTR $T230755[ebp]
	call	DWORD PTR __imp_??1?$basic_string@DU?$char_traits@D@std@@V?$allocator@D@2@@std@@QAE@XZ
	mov	BYTE PTR __$EHRec$[ebp+8], 0
	mov	ecx, DWORD PTR _this$[ebp]
	add	ecx, 36					; 00000024H
	mov	DWORD PTR $T230760[ebp], ecx
	mov	ecx, DWORD PTR $T230760[ebp]
	call	DWORD PTR __imp_??1?$basic_string@DU?$char_traits@D@std@@V?$allocator@D@2@@std@@QAE@XZ
	mov	DWORD PTR __$EHRec$[ebp+8], -1
	mov	edx, DWORD PTR _this$[ebp]
	add	edx, 8
	mov	DWORD PTR $T230765[ebp], edx
	mov	ecx, DWORD PTR $T230765[ebp]
	call	DWORD PTR __imp_??1?$basic_string@DU?$char_traits@D@std@@V?$allocator@D@2@@std@@QAE@XZ
	mov	ecx, DWORD PTR __$EHRec$[ebp]
	mov	DWORD PTR fs:0, ecx
	pop	ecx
	mov	esp, ebp
	pop	ebp
	ret	0
_TEXT	ENDS
;	COMDAT text$x
text$x	SEGMENT
__unwindfunclet$??1CvBaseInfo@@QAE@XZ$0:
	mov	ecx, DWORD PTR _this$[ebp]
	add	ecx, 8
	jmp	??1CvString@@QAE@XZ			; CvString::~CvString
__unwindfunclet$??1CvBaseInfo@@QAE@XZ$1:
	mov	ecx, DWORD PTR _this$[ebp]
	add	ecx, 36					; 00000024H
	jmp	??1CvString@@QAE@XZ			; CvString::~CvString
__unwindfunclet$??1CvBaseInfo@@QAE@XZ$2:
	mov	ecx, DWORD PTR _this$[ebp]
	add	ecx, 64					; 00000040H
	jmp	??1CvString@@QAE@XZ			; CvString::~CvString
__unwindfunclet$??1CvBaseInfo@@QAE@XZ$3:
	mov	ecx, DWORD PTR _this$[ebp]
	add	ecx, 92					; 0000005cH
	jmp	??1CvString@@QAE@XZ			; CvString::~CvString
__unwindfunclet$??1CvBaseInfo@@QAE@XZ$4:
	mov	ecx, DWORD PTR _this$[ebp]
	add	ecx, 120				; 00000078H
	jmp	??1CvString@@QAE@XZ			; CvString::~CvString
__unwindfunclet$??1CvBaseInfo@@QAE@XZ$5:
	mov	ecx, DWORD PTR _this$[ebp]
	add	ecx, 148				; 00000094H
	jmp	??1CvString@@QAE@XZ			; CvString::~CvString
__unwindfunclet$??1CvBaseInfo@@QAE@XZ$6:
	mov	ecx, DWORD PTR _this$[ebp]
	add	ecx, 176				; 000000b0H
	jmp	??1CvString@@QAE@XZ			; CvString::~CvString
__unwindfunclet$??1CvBaseInfo@@QAE@XZ$7:
	mov	ecx, DWORD PTR _this$[ebp]
	add	ecx, 204				; 000000ccH
	jmp	??1CvString@@QAE@XZ			; CvString::~CvString
__ehhandler$??1CvBaseInfo@@QAE@XZ:
	mov	edx, DWORD PTR [esp+8]
	lea	eax, DWORD PTR [edx+12]
	mov	ecx, DWORD PTR [edx-44]
	xor	ecx, eax
	call	@__security_check_cookie@4
	mov	eax, OFFSET __ehfuncinfo$??1CvBaseInfo@@QAE@XZ
	jmp	___CxxFrameHandler3
text$x	ENDS
??1CvBaseInfo@@QAE@XZ ENDP				; CvBaseInfo::~CvBaseInfo
PUBLIC	??1?$_Tree_val@V?$_Tmap_traits@HHU?$less@H@std@@V?$allocator@U?$pair@$$CBHH@std@@@2@$00@std@@@std@@QAE@XZ ; std::_Tree_val<std::_Tmap_traits<int,int,std::less<int>,std::allocator<std::pair<int const ,int> >,1> >::~_Tree_val<std::_Tmap_traits<int,int,std::less<int>,std::allocator<std::pair<int const ,int> >,1> >
PUBLIC	??1?$multimap@HHU?$less@H@std@@V?$allocator@U?$pair@$$CBHH@std@@@2@@std@@QAE@XZ ; std::multimap<int,int,std::less<int>,std::allocator<std::pair<int const ,int> > >::~multimap<int,int,std::less<int>,std::allocator<std::pair<int const ,int> > >
PUBLIC	?_Tidy@?$_Tree@V?$_Tmap_traits@HHU?$less@H@std@@V?$allocator@U?$pair@$$CBHH@std@@@2@$00@std@@@std@@IAEXXZ ; std::_Tree<std::_Tmap_traits<int,int,std::less<int>,std::allocator<std::pair<int const ,int> >,1> >::_Tidy
PUBLIC	??1CvPolicyEntry@@QAE@XZ			; CvPolicyEntry::~CvPolicyEntry
EXTRN	?SafeDelete2DArray@CvDatabaseUtility@@SAXAAPAPAH@Z:PROC ; CvDatabaseUtility::SafeDelete2DArray
EXTRN	??_V@YAXPAX@Z:PROC				; operator delete[]
;	COMDAT xdata$x
; File d:\sources\lekmod_git\checkout\lekmod_dll\cvgamecoredllutil\include\cvstring.h
xdata$x	SEGMENT
__ehfuncinfo$??1CvPolicyEntry@@QAE@XZ DD 019930522H
	DD	05H
	DD	FLAT:__unwindtable$??1CvPolicyEntry@@QAE@XZ
	DD	2 DUP(00H)
	DD	2 DUP(00H)
	DD	00H
	DD	01H
__unwindtable$??1CvPolicyEntry@@QAE@XZ DD 0ffffffffH
	DD	FLAT:__unwindfunclet$??1CvPolicyEntry@@QAE@XZ$0
	DD	00H
	DD	FLAT:__unwindfunclet$??1CvPolicyEntry@@QAE@XZ$1
	DD	01H
	DD	FLAT:__unwindfunclet$??1CvPolicyEntry@@QAE@XZ$2
	DD	02H
	DD	FLAT:__unwindfunclet$??1CvPolicyEntry@@QAE@XZ$3
	DD	02H
	DD	FLAT:__unwindfunclet$??1CvPolicyEntry@@QAE@XZ$5
; Function compile flags: /Odtp
; File d:\sources\lekmod_git\checkout\lekmod_dll\cvgamecoredll_expansion2\cvpolicyclasses.cpp
xdata$x	ENDS
;	COMDAT ??1CvPolicyEntry@@QAE@XZ
_TEXT	SEGMENT
_this$ = -280						; size = 4
$T231078 = -240						; size = 4
$T231073 = -236						; size = 4
$T231068 = -232						; size = 4
$T230909 = -188						; size = 4
$T230908 = -184						; size = 4
$T230903 = -180						; size = 4
$T230902 = -176						; size = 4
$T230897 = -172						; size = 4
$T230896 = -168						; size = 4
$T230891 = -164						; size = 4
$T230890 = -160						; size = 4
$T230885 = -156						; size = 4
$T230884 = -152						; size = 4
$T230879 = -148						; size = 4
$T230878 = -144						; size = 4
$T230873 = -140						; size = 4
$T230872 = -136						; size = 4
$T230867 = -132						; size = 4
$T230866 = -128						; size = 4
$T230861 = -124						; size = 4
$T230860 = -120						; size = 4
$T230855 = -116						; size = 4
$T230854 = -112						; size = 4
$T230849 = -108						; size = 4
$T230848 = -104						; size = 4
$T230843 = -100						; size = 4
$T230842 = -96						; size = 4
$T230837 = -92						; size = 4
$T230836 = -88						; size = 4
$T230831 = -84						; size = 4
$T230830 = -80						; size = 4
$T230825 = -76						; size = 4
$T230824 = -72						; size = 4
$T230819 = -68						; size = 4
$T230818 = -64						; size = 4
$T230813 = -60						; size = 4
$T230812 = -56						; size = 4
$T230807 = -52						; size = 4
$T230806 = -48						; size = 4
$T230801 = -44						; size = 4
$T230800 = -40						; size = 4
$T230795 = -36						; size = 4
$T230794 = -32						; size = 4
$T230789 = -28						; size = 4
$T230788 = -24						; size = 4
$T230783 = -20						; size = 4
$T230782 = -16						; size = 4
__$EHRec$ = -12						; size = 12
??1CvPolicyEntry@@QAE@XZ PROC				; CvPolicyEntry::~CvPolicyEntry, COMDAT
; _this$ = ecx

; 297  : {

	push	ebp
	mov	ebp, esp
	push	-1
	push	__ehhandler$??1CvPolicyEntry@@QAE@XZ
	mov	eax, DWORD PTR fs:0
	push	eax
	sub	esp, 268				; 0000010cH
	mov	eax, DWORD PTR ___security_cookie
	xor	eax, ebp
	push	eax
	lea	eax, DWORD PTR __$EHRec$[ebp]
	mov	DWORD PTR fs:0, eax
	mov	DWORD PTR _this$[ebp], ecx
	mov	eax, DWORD PTR _this$[ebp]
	mov	DWORD PTR [eax], OFFSET ??_7CvPolicyEntry@@6B@
	mov	DWORD PTR __$EHRec$[ebp+8], 3

; 298  : 	SAFE_DELETE_ARRAY(m_piPrereqOrPolicies);

	mov	ecx, DWORD PTR _this$[ebp]
	add	ecx, 964				; 000003c4H
	mov	DWORD PTR $T230783[ebp], ecx
	mov	edx, DWORD PTR $T230783[ebp]
	mov	eax, DWORD PTR [edx]
	mov	DWORD PTR $T230782[ebp], eax
	mov	ecx, DWORD PTR $T230782[ebp]
	push	ecx
	call	??_V@YAXPAX@Z				; operator delete[]
	add	esp, 4
	mov	edx, DWORD PTR $T230783[ebp]
	mov	DWORD PTR [edx], 0

; 299  : 	SAFE_DELETE_ARRAY(m_piPrereqAndPolicies);

	mov	eax, DWORD PTR _this$[ebp]
	add	eax, 968				; 000003c8H
	mov	DWORD PTR $T230789[ebp], eax
	mov	ecx, DWORD PTR $T230789[ebp]
	mov	edx, DWORD PTR [ecx]
	mov	DWORD PTR $T230788[ebp], edx
	mov	eax, DWORD PTR $T230788[ebp]
	push	eax
	call	??_V@YAXPAX@Z				; operator delete[]
	add	esp, 4
	mov	ecx, DWORD PTR $T230789[ebp]
	mov	DWORD PTR [ecx], 0

; 300  : 	SAFE_DELETE_ARRAY(m_piPolicyDisables);

	mov	edx, DWORD PTR _this$[ebp]
	add	edx, 972				; 000003ccH
	mov	DWORD PTR $T230795[ebp], edx
	mov	eax, DWORD PTR $T230795[ebp]
	mov	ecx, DWORD PTR [eax]
	mov	DWORD PTR $T230794[ebp], ecx
	mov	edx, DWORD PTR $T230794[ebp]
	push	edx
	call	??_V@YAXPAX@Z				; operator delete[]
	add	esp, 4
	mov	eax, DWORD PTR $T230795[ebp]
	mov	DWORD PTR [eax], 0

; 301  : 	SAFE_DELETE_ARRAY(m_piYieldModifier);

	mov	ecx, DWORD PTR _this$[ebp]
	add	ecx, 976				; 000003d0H
	mov	DWORD PTR $T230801[ebp], ecx
	mov	edx, DWORD PTR $T230801[ebp]
	mov	eax, DWORD PTR [edx]
	mov	DWORD PTR $T230800[ebp], eax
	mov	ecx, DWORD PTR $T230800[ebp]
	push	ecx
	call	??_V@YAXPAX@Z				; operator delete[]
	add	esp, 4
	mov	edx, DWORD PTR $T230801[ebp]
	mov	DWORD PTR [edx], 0

; 302  : 	SAFE_DELETE_ARRAY(m_piCityYieldChange);

	mov	eax, DWORD PTR _this$[ebp]
	add	eax, 980				; 000003d4H
	mov	DWORD PTR $T230807[ebp], eax
	mov	ecx, DWORD PTR $T230807[ebp]
	mov	edx, DWORD PTR [ecx]
	mov	DWORD PTR $T230806[ebp], edx
	mov	eax, DWORD PTR $T230806[ebp]
	push	eax
	call	??_V@YAXPAX@Z				; operator delete[]
	add	esp, 4
	mov	ecx, DWORD PTR $T230807[ebp]
	mov	DWORD PTR [ecx], 0

; 303  : 	SAFE_DELETE_ARRAY(m_piCoastalCityYieldChange);

	mov	edx, DWORD PTR _this$[ebp]
	add	edx, 984				; 000003d8H
	mov	DWORD PTR $T230813[ebp], edx
	mov	eax, DWORD PTR $T230813[ebp]
	mov	ecx, DWORD PTR [eax]
	mov	DWORD PTR $T230812[ebp], ecx
	mov	edx, DWORD PTR $T230812[ebp]
	push	edx
	call	??_V@YAXPAX@Z				; operator delete[]
	add	esp, 4
	mov	eax, DWORD PTR $T230813[ebp]
	mov	DWORD PTR [eax], 0

; 304  : 	SAFE_DELETE_ARRAY(m_piCapitalYieldChange);

	mov	ecx, DWORD PTR _this$[ebp]
	add	ecx, 988				; 000003dcH
	mov	DWORD PTR $T230819[ebp], ecx
	mov	edx, DWORD PTR $T230819[ebp]
	mov	eax, DWORD PTR [edx]
	mov	DWORD PTR $T230818[ebp], eax
	mov	ecx, DWORD PTR $T230818[ebp]
	push	ecx
	call	??_V@YAXPAX@Z				; operator delete[]
	add	esp, 4
	mov	edx, DWORD PTR $T230819[ebp]
	mov	DWORD PTR [edx], 0

; 305  : 	SAFE_DELETE_ARRAY(m_piCapitalYieldPerPopChange);

	mov	eax, DWORD PTR _this$[ebp]
	add	eax, 992				; 000003e0H
	mov	DWORD PTR $T230825[ebp], eax
	mov	ecx, DWORD PTR $T230825[ebp]
	mov	edx, DWORD PTR [ecx]
	mov	DWORD PTR $T230824[ebp], edx
	mov	eax, DWORD PTR $T230824[ebp]
	push	eax
	call	??_V@YAXPAX@Z				; operator delete[]
	add	esp, 4
	mov	ecx, DWORD PTR $T230825[ebp]
	mov	DWORD PTR [ecx], 0

; 306  : 	SAFE_DELETE_ARRAY(m_piCapitalYieldModifier);

	mov	edx, DWORD PTR _this$[ebp]
	add	edx, 996				; 000003e4H
	mov	DWORD PTR $T230831[ebp], edx
	mov	eax, DWORD PTR $T230831[ebp]
	mov	ecx, DWORD PTR [eax]
	mov	DWORD PTR $T230830[ebp], ecx
	mov	edx, DWORD PTR $T230830[ebp]
	push	edx
	call	??_V@YAXPAX@Z				; operator delete[]
	add	esp, 4
	mov	eax, DWORD PTR $T230831[ebp]
	mov	DWORD PTR [eax], 0

; 307  : 	SAFE_DELETE_ARRAY(m_piGreatWorkYieldChange);

	mov	ecx, DWORD PTR _this$[ebp]
	add	ecx, 1000				; 000003e8H
	mov	DWORD PTR $T230837[ebp], ecx
	mov	edx, DWORD PTR $T230837[ebp]
	mov	eax, DWORD PTR [edx]
	mov	DWORD PTR $T230836[ebp], eax
	mov	ecx, DWORD PTR $T230836[ebp]
	push	ecx
	call	??_V@YAXPAX@Z				; operator delete[]
	add	esp, 4
	mov	edx, DWORD PTR $T230837[ebp]
	mov	DWORD PTR [edx], 0

; 308  : 	SAFE_DELETE_ARRAY(m_piSpecialistExtraYield);

	mov	eax, DWORD PTR _this$[ebp]
	add	eax, 1004				; 000003ecH
	mov	DWORD PTR $T230843[ebp], eax
	mov	ecx, DWORD PTR $T230843[ebp]
	mov	edx, DWORD PTR [ecx]
	mov	DWORD PTR $T230842[ebp], edx
	mov	eax, DWORD PTR $T230842[ebp]
	push	eax
	call	??_V@YAXPAX@Z				; operator delete[]
	add	esp, 4
	mov	ecx, DWORD PTR $T230843[ebp]
	mov	DWORD PTR [ecx], 0

; 309  : 	SAFE_DELETE_ARRAY(m_pabFreePromotion);

	mov	edx, DWORD PTR _this$[ebp]
	add	edx, 1012				; 000003f4H
	mov	DWORD PTR $T230849[ebp], edx
	mov	eax, DWORD PTR $T230849[ebp]
	mov	ecx, DWORD PTR [eax]
	mov	DWORD PTR $T230848[ebp], ecx
	mov	edx, DWORD PTR $T230848[ebp]
	push	edx
	call	??_V@YAXPAX@Z				; operator delete[]
	add	esp, 4
	mov	eax, DWORD PTR $T230849[ebp]
	mov	DWORD PTR [eax], 0

; 310  : 	SAFE_DELETE_ARRAY(m_paiUnitCombatProductionModifiers);

	mov	ecx, DWORD PTR _this$[ebp]
	add	ecx, 1016				; 000003f8H
	mov	DWORD PTR $T230855[ebp], ecx
	mov	edx, DWORD PTR $T230855[ebp]
	mov	eax, DWORD PTR [edx]
	mov	DWORD PTR $T230854[ebp], eax
	mov	ecx, DWORD PTR $T230854[ebp]
	push	ecx
	call	??_V@YAXPAX@Z				; operator delete[]
	add	esp, 4
	mov	edx, DWORD PTR $T230855[ebp]
	mov	DWORD PTR [edx], 0

; 311  : 	SAFE_DELETE_ARRAY(m_paiUnitCombatFreeExperiences);

	mov	eax, DWORD PTR _this$[ebp]
	add	eax, 1020				; 000003fcH
	mov	DWORD PTR $T230861[ebp], eax
	mov	ecx, DWORD PTR $T230861[ebp]
	mov	edx, DWORD PTR [ecx]
	mov	DWORD PTR $T230860[ebp], edx
	mov	eax, DWORD PTR $T230860[ebp]
	push	eax
	call	??_V@YAXPAX@Z				; operator delete[]
	add	esp, 4
	mov	ecx, DWORD PTR $T230861[ebp]
	mov	DWORD PTR [ecx], 0

; 312  : 	SAFE_DELETE_ARRAY(m_paiBuildingClassCultureChanges);

	mov	edx, DWORD PTR _this$[ebp]
	add	edx, 1028				; 00000404H
	mov	DWORD PTR $T230867[ebp], edx
	mov	eax, DWORD PTR $T230867[ebp]
	mov	ecx, DWORD PTR [eax]
	mov	DWORD PTR $T230866[ebp], ecx
	mov	edx, DWORD PTR $T230866[ebp]
	push	edx
	call	??_V@YAXPAX@Z				; operator delete[]
	add	esp, 4
	mov	eax, DWORD PTR $T230867[ebp]
	mov	DWORD PTR [eax], 0

; 313  : 	SAFE_DELETE_ARRAY(m_paiBuildingClassProductionModifiers);

	mov	ecx, DWORD PTR _this$[ebp]
	add	ecx, 1032				; 00000408H
	mov	DWORD PTR $T230873[ebp], ecx
	mov	edx, DWORD PTR $T230873[ebp]
	mov	eax, DWORD PTR [edx]
	mov	DWORD PTR $T230872[ebp], eax
	mov	ecx, DWORD PTR $T230872[ebp]
	push	ecx
	call	??_V@YAXPAX@Z				; operator delete[]
	add	esp, 4
	mov	edx, DWORD PTR $T230873[ebp]
	mov	DWORD PTR [edx], 0

; 314  : 	SAFE_DELETE_ARRAY(m_paiBuildingClassTourismModifiers);

	mov	eax, DWORD PTR _this$[ebp]
	add	eax, 1036				; 0000040cH
	mov	DWORD PTR $T230879[ebp], eax
	mov	ecx, DWORD PTR $T230879[ebp]
	mov	edx, DWORD PTR [ecx]
	mov	DWORD PTR $T230878[ebp], edx
	mov	eax, DWORD PTR $T230878[ebp]
	push	eax
	call	??_V@YAXPAX@Z				; operator delete[]
	add	esp, 4
	mov	ecx, DWORD PTR $T230879[ebp]
	mov	DWORD PTR [ecx], 0

; 315  : 	SAFE_DELETE_ARRAY(m_paiBuildingClassHappiness);

	mov	edx, DWORD PTR _this$[ebp]
	add	edx, 1040				; 00000410H
	mov	DWORD PTR $T230885[ebp], edx
	mov	eax, DWORD PTR $T230885[ebp]
	mov	ecx, DWORD PTR [eax]
	mov	DWORD PTR $T230884[ebp], ecx
	mov	edx, DWORD PTR $T230884[ebp]
	push	edx
	call	??_V@YAXPAX@Z				; operator delete[]
	add	esp, 4
	mov	eax, DWORD PTR $T230885[ebp]
	mov	DWORD PTR [eax], 0

; 316  : 	SAFE_DELETE_ARRAY(m_paiFreeUnitClasses);

	mov	ecx, DWORD PTR _this$[ebp]
	add	ecx, 1044				; 00000414H
	mov	DWORD PTR $T230891[ebp], ecx
	mov	edx, DWORD PTR $T230891[ebp]
	mov	eax, DWORD PTR [edx]
	mov	DWORD PTR $T230890[ebp], eax
	mov	ecx, DWORD PTR $T230890[ebp]
	push	ecx
	call	??_V@YAXPAX@Z				; operator delete[]
	add	esp, 4
	mov	edx, DWORD PTR $T230891[ebp]
	mov	DWORD PTR [edx], 0

; 317  : 	SAFE_DELETE_ARRAY(m_paiTourismOnUnitCreation);

	mov	eax, DWORD PTR _this$[ebp]
	add	eax, 1048				; 00000418H
	mov	DWORD PTR $T230897[ebp], eax
	mov	ecx, DWORD PTR $T230897[ebp]
	mov	edx, DWORD PTR [ecx]
	mov	DWORD PTR $T230896[ebp], edx
	mov	eax, DWORD PTR $T230896[ebp]
	push	eax
	call	??_V@YAXPAX@Z				; operator delete[]
	add	esp, 4
	mov	ecx, DWORD PTR $T230897[ebp]
	mov	DWORD PTR [ecx], 0

; 318  : 
; 319  : //	SAFE_DELETE_ARRAY(m_pabHurry);
; 320  : 	SAFE_DELETE_ARRAY(m_paiHurryModifier);

	mov	edx, DWORD PTR _this$[ebp]
	add	edx, 1024				; 00000400H
	mov	DWORD PTR $T230903[ebp], edx
	mov	eax, DWORD PTR $T230903[ebp]
	mov	ecx, DWORD PTR [eax]
	mov	DWORD PTR $T230902[ebp], ecx
	mov	edx, DWORD PTR $T230902[ebp]
	push	edx
	call	??_V@YAXPAX@Z				; operator delete[]
	add	esp, 4
	mov	eax, DWORD PTR $T230903[ebp]
	mov	DWORD PTR [eax], 0

; 321  : 	SAFE_DELETE_ARRAY(m_pabSpecialistValid);

	mov	ecx, DWORD PTR _this$[ebp]
	add	ecx, 1052				; 0000041cH
	mov	DWORD PTR $T230909[ebp], ecx
	mov	edx, DWORD PTR $T230909[ebp]
	mov	eax, DWORD PTR [edx]
	mov	DWORD PTR $T230908[ebp], eax
	mov	ecx, DWORD PTR $T230908[ebp]
	push	ecx
	call	??_V@YAXPAX@Z				; operator delete[]
	add	esp, 4
	mov	edx, DWORD PTR $T230909[ebp]
	mov	DWORD PTR [edx], 0

; 322  : 
; 323  : #ifdef AUI_WARNING_FIXES
; 324  : 	SAFE_DELETE_ARRAY(m_piFlavorValue);
; 325  : 	SAFE_DELETE_ARRAY(m_piImprovementCultureChange);
; 326  : #endif
; 327  : 
; 328  : #ifdef AUI_DATABASE_UTILITY_PROPER_2D_ALLOCATION_AND_DESTRUCTION
; 329  : 	CvDatabaseUtility::SafeDelete2DArray(m_ppiImprovementYieldChanges.first, m_ppiImprovementYieldChanges.second);
; 330  : 	CvDatabaseUtility::SafeDelete2DArray(m_ppiBuildingClassYieldModifiers.first, m_ppiBuildingClassYieldModifiers.second);
; 331  : 	CvDatabaseUtility::SafeDelete2DArray(m_ppiBuildingClassYieldChanges.first, m_ppiBuildingClassYieldChanges.second);
; 332  : #ifdef AUI_POLICY_BUILDING_CLASS_FLAVOR_MODIFIERS
; 333  : 	CvDatabaseUtility::SafeDelete2DArray(m_ppiBuildingClassFlavorChanges.first, m_ppiBuildingClassFlavorChanges.second);
; 334  : #endif
; 335  : #else
; 336  : 	CvDatabaseUtility::SafeDelete2DArray(m_ppiImprovementYieldChanges);

	mov	eax, DWORD PTR _this$[ebp]
	add	eax, 1056				; 00000420H
	push	eax
	call	?SafeDelete2DArray@CvDatabaseUtility@@SAXAAPAPAH@Z ; CvDatabaseUtility::SafeDelete2DArray
	add	esp, 4

; 337  : 	CvDatabaseUtility::SafeDelete2DArray(m_ppiBuildingClassYieldModifiers);

	mov	ecx, DWORD PTR _this$[ebp]
	add	ecx, 1060				; 00000424H
	push	ecx
	call	?SafeDelete2DArray@CvDatabaseUtility@@SAXAAPAPAH@Z ; CvDatabaseUtility::SafeDelete2DArray
	add	esp, 4

; 338  : 	CvDatabaseUtility::SafeDelete2DArray(m_ppiBuildingClassYieldChanges);

	mov	edx, DWORD PTR _this$[ebp]
	add	edx, 1064				; 00000428H
	push	edx
	call	?SafeDelete2DArray@CvDatabaseUtility@@SAXAAPAPAH@Z ; CvDatabaseUtility::SafeDelete2DArray
	add	esp, 4

; 339  : #ifdef AUI_POLICY_BUILDING_CLASS_FLAVOR_MODIFIERS
; 340  : 	CvDatabaseUtility::SafeDelete2DArray(m_ppiBuildingClassFlavorChanges);
; 341  : #endif
; 342  : #endif
; 343  : }

	mov	BYTE PTR __$EHRec$[ebp+8], 2
	mov	eax, DWORD PTR _this$[ebp]
	add	eax, 952				; 000003b8H
	mov	DWORD PTR $T231068[ebp], eax
	mov	BYTE PTR __$EHRec$[ebp+8], 4
	mov	ecx, DWORD PTR $T231068[ebp]
	call	?_Tidy@?$_Tree@V?$_Tmap_traits@HHU?$less@H@std@@V?$allocator@U?$pair@$$CBHH@std@@@2@$00@std@@@std@@IAEXXZ ; std::_Tree<std::_Tmap_traits<int,int,std::less<int>,std::allocator<std::pair<int const ,int> >,1> >::_Tidy
	mov	BYTE PTR __$EHRec$[ebp+8], 2
	mov	BYTE PTR __$EHRec$[ebp+8], 1
	mov	ecx, DWORD PTR _this$[ebp]
	add	ecx, 920				; 00000398H
	mov	DWORD PTR $T231073[ebp], ecx
	mov	ecx, DWORD PTR $T231073[ebp]
	call	DWORD PTR __imp_??1?$basic_string@DU?$char_traits@D@std@@V?$allocator@D@2@@std@@QAE@XZ
	mov	BYTE PTR __$EHRec$[ebp+8], 0
	mov	edx, DWORD PTR _this$[ebp]
	add	edx, 892				; 0000037cH
	mov	DWORD PTR $T231078[ebp], edx
	mov	ecx, DWORD PTR $T231078[ebp]
	call	DWORD PTR __imp_??1?$basic_string@DU?$char_traits@D@std@@V?$allocator@D@2@@std@@QAE@XZ
	mov	DWORD PTR __$EHRec$[ebp+8], -1
	mov	ecx, DWORD PTR _this$[ebp]
	call	??1CvBaseInfo@@QAE@XZ
	mov	ecx, DWORD PTR __$EHRec$[ebp]
	mov	DWORD PTR fs:0, ecx
	pop	ecx
	mov	esp, ebp
	pop	ebp
	ret	0
_TEXT	ENDS
;	COMDAT text$x
text$x	SEGMENT
__unwindfunclet$??1CvPolicyEntry@@QAE@XZ$0:
	mov	ecx, DWORD PTR _this$[ebp]
	jmp	??1CvBaseInfo@@QAE@XZ
__unwindfunclet$??1CvPolicyEntry@@QAE@XZ$1:
	mov	ecx, DWORD PTR _this$[ebp]
	add	ecx, 892				; 0000037cH
	jmp	??1CvString@@QAE@XZ			; CvString::~CvString
__unwindfunclet$??1CvPolicyEntry@@QAE@XZ$2:
	mov	ecx, DWORD PTR _this$[ebp]
	add	ecx, 920				; 00000398H
	jmp	??1CvString@@QAE@XZ			; CvString::~CvString
__unwindfunclet$??1CvPolicyEntry@@QAE@XZ$3:
	mov	ecx, DWORD PTR _this$[ebp]
	add	ecx, 952				; 000003b8H
	jmp	??1?$multimap@HHU?$less@H@std@@V?$allocator@U?$pair@$$CBHH@std@@@2@@std@@QAE@XZ
__unwindfunclet$??1CvPolicyEntry@@QAE@XZ$5:
	mov	ecx, DWORD PTR $T231068[ebp]
	jmp	??1?$_Tree_val@V?$_Tmap_traits@HHU?$less@H@std@@V?$allocator@U?$pair@$$CBHH@std@@@2@$00@std@@@std@@QAE@XZ
__ehhandler$??1CvPolicyEntry@@QAE@XZ:
	mov	edx, DWORD PTR [esp+8]
	lea	eax, DWORD PTR [edx+12]
	mov	ecx, DWORD PTR [edx-272]
	xor	ecx, eax
	call	@__security_check_cookie@4
	mov	eax, OFFSET __ehfuncinfo$??1CvPolicyEntry@@QAE@XZ
	jmp	___CxxFrameHandler3
text$x	ENDS
??1CvPolicyEntry@@QAE@XZ ENDP				; CvPolicyEntry::~CvPolicyEntry
;	COMDAT xdata$x
xdata$x	SEGMENT
__unwindtable$??1?$multimap@HHU?$less@H@std@@V?$allocator@U?$pair@$$CBHH@std@@@2@@std@@QAE@XZ DD 0ffffffffH
	DD	FLAT:__unwindfunclet$??1?$multimap@HHU?$less@H@std@@V?$allocator@U?$pair@$$CBHH@std@@@2@@std@@QAE@XZ$1
__ehfuncinfo$??1?$multimap@HHU?$less@H@std@@V?$allocator@U?$pair@$$CBHH@std@@@2@@std@@QAE@XZ DD 019930522H
	DD	01H
	DD	FLAT:__unwindtable$??1?$multimap@HHU?$less@H@std@@V?$allocator@U?$pair@$$CBHH@std@@@2@@std@@QAE@XZ
	DD	2 DUP(00H)
	DD	2 DUP(00H)
	DD	00H
	DD	01H
; Function compile flags: /Odtp
xdata$x	ENDS
;	COMDAT ??1?$multimap@HHU?$less@H@std@@V?$allocator@U?$pair@$$CBHH@std@@@2@@std@@QAE@XZ
_TEXT	SEGMENT
_this$ = -100						; size = 4
__$EHRec$ = -12						; size = 12
??1?$multimap@HHU?$less@H@std@@V?$allocator@U?$pair@$$CBHH@std@@@2@@std@@QAE@XZ PROC ; std::multimap<int,int,std::less<int>,std::allocator<std::pair<int const ,int> > >::~multimap<int,int,std::less<int>,std::allocator<std::pair<int const ,int> > >, COMDAT
; _this$ = ecx
	push	ebp
	mov	ebp, esp
	push	-1
	push	__ehhandler$??1?$multimap@HHU?$less@H@std@@V?$allocator@U?$pair@$$CBHH@std@@@2@@std@@QAE@XZ
	mov	eax, DWORD PTR fs:0
	push	eax
	sub	esp, 88					; 00000058H
	mov	eax, DWORD PTR ___security_cookie
	xor	eax, ebp
	push	eax
	lea	eax, DWORD PTR __$EHRec$[ebp]
	mov	DWORD PTR fs:0, eax
	mov	DWORD PTR _this$[ebp], ecx
	mov	DWORD PTR __$EHRec$[ebp+8], 0
	mov	ecx, DWORD PTR _this$[ebp]
	call	?_Tidy@?$_Tree@V?$_Tmap_traits@HHU?$less@H@std@@V?$allocator@U?$pair@$$CBHH@std@@@2@$00@std@@@std@@IAEXXZ ; std::_Tree<std::_Tmap_traits<int,int,std::less<int>,std::allocator<std::pair<int const ,int> >,1> >::_Tidy
	mov	DWORD PTR __$EHRec$[ebp+8], -1
	mov	ecx, DWORD PTR __$EHRec$[ebp]
	mov	DWORD PTR fs:0, ecx
	pop	ecx
	mov	esp, ebp
	pop	ebp
	ret	0
_TEXT	ENDS
;	COMDAT text$x
text$x	SEGMENT
__unwindfunclet$??1?$multimap@HHU?$less@H@std@@V?$allocator@U?$pair@$$CBHH@std@@@2@@std@@QAE@XZ$1:
	mov	ecx, DWORD PTR _this$[ebp]
	jmp	??1?$_Tree_val@V?$_Tmap_traits@HHU?$less@H@std@@V?$allocator@U?$pair@$$CBHH@std@@@2@$00@std@@@std@@QAE@XZ
__ehhandler$??1?$multimap@HHU?$less@H@std@@V?$allocator@U?$pair@$$CBHH@std@@@2@@std@@QAE@XZ:
	mov	edx, DWORD PTR [esp+8]
	lea	eax, DWORD PTR [edx+12]
	mov	ecx, DWORD PTR [edx-92]
	xor	ecx, eax
	call	@__security_check_cookie@4
	mov	eax, OFFSET __ehfuncinfo$??1?$multimap@HHU?$less@H@std@@V?$allocator@U?$pair@$$CBHH@std@@@2@@std@@QAE@XZ
	jmp	___CxxFrameHandler3
text$x	ENDS
??1?$multimap@HHU?$less@H@std@@V?$allocator@U?$pair@$$CBHH@std@@@2@@std@@QAE@XZ ENDP ; std::multimap<int,int,std::less<int>,std::allocator<std::pair<int const ,int> > >::~multimap<int,int,std::less<int>,std::allocator<std::pair<int const ,int> > >
PUBLIC	?swap@?$_Tree@V?$_Tmap_traits@HHU?$less@H@std@@V?$allocator@U?$pair@$$CBHH@std@@@2@$00@std@@@std@@QAEXAAV12@@Z ; std::_Tree<std::_Tmap_traits<int,int,std::less<int>,std::allocator<std::pair<int const ,int> >,1> >::swap
PUBLIC	??0?$_Tree@V?$_Tmap_traits@HHU?$less@H@std@@V?$allocator@U?$pair@$$CBHH@std@@@2@$00@std@@@std@@QAE@ABV01@@Z ; std::_Tree<std::_Tmap_traits<int,int,std::less<int>,std::allocator<std::pair<int const ,int> >,1> >::_Tree<std::_Tmap_traits<int,int,std::less<int>,std::allocator<std::pair<int const ,int> >,1> >
PUBLIC	?insert@?$_Tree@V?$_Tmap_traits@HHU?$less@H@std@@V?$allocator@U?$pair@$$CBHH@std@@@2@$00@std@@@std@@QAE?AU?$pair@Viterator@?$_Tree@V?$_Tmap_traits@HHU?$less@H@std@@V?$allocator@U?$pair@$$CBHH@std@@@2@$00@std@@@std@@_N@2@ABU?$pair@$$CBHH@2@@Z ; std::_Tree<std::_Tmap_traits<int,int,std::less<int>,std::allocator<std::pair<int const ,int> >,1> >::insert
PUBLIC	??_C@_0NH@JGCEKKAB@select?5UnitPromotions?4ID?0?5UnitCo@ ; `string'
PUBLIC	??_C@_0BM@DNOOJGJD@m_FreePromotionsUnitCombats?$AA@ ; `string'
PUBLIC	?clear@?$_Tree@V?$_Tmap_traits@HHU?$less@H@std@@V?$allocator@U?$pair@$$CBHH@std@@@2@$00@std@@@std@@QAEXXZ ; std::_Tree<std::_Tmap_traits<int,int,std::less<int>,std::allocator<std::pair<int const ,int> >,1> >::clear
PUBLIC	??_C@_0HC@FGKHHPOB@select?5Policies?4ID?5from?5Policy_D@ ; `string'
PUBLIC	??_C@_0BD@KHHJPNKJ@m_piPolicyDisables?$AA@	; `string'
PUBLIC	??_C@_0HH@MGLLOFBN@select?5Policies?4ID?5from?5Policy_P@ ; `string'
PUBLIC	??_C@_0BG@HDAGFADH@m_piPrereqAndPolicies?$AA@	; `string'
PUBLIC	??_C@_0HJ@CCDHNOKM@select?5Policies?4ID?5from?5Policy_P@ ; `string'
PUBLIC	??_C@_0BF@CDEDBDG@m_piPrereqOrPolicies?$AA@	; `string'
PUBLIC	?InitializeArray@CvDatabaseUtility@@QAEXAAPAHIH@Z ; CvDatabaseUtility::InitializeArray
PUBLIC	??_C@_08NDDAPGNJ@Policies?$AA@			; `string'
PUBLIC	??_C@_0CB@JPJEMFOO@Policy_ImprovementCultureChanges@ ; `string'
PUBLIC	??_C@_0BA@PMOLGEPK@ImprovementType?$AA@		; `string'
PUBLIC	??_C@_0OK@OMDAFMLP@select?5Improvements?4ID?5as?5Improv@ ; `string'
PUBLIC	??_C@_0BP@DBAIIMOC@Policy_ImprovementYieldChanges?$AA@ ; `string'
PUBLIC	??_C@_0N@CJDAHDJO@Improvements?$AA@		; `string'
PUBLIC	??_C@_0PP@PBCKHIDL@select?5BuildingClasses?4ID?5as?5Bui@ ; `string'
PUBLIC	??_C@_0CB@GDAPPICJ@Policy_BuildingClassYieldChanges@ ; `string'
PUBLIC	??_C@_0PO@NAMOGGP@select?5BuildingClasses?4ID?5as?5Bui@ ; `string'
PUBLIC	??_C@_0CD@CIHGELLG@Policy_BuildingClassYieldModifie@ ; `string'
PUBLIC	??_C@_06JAMLCLDI@Yields?$AA@			; `string'
PUBLIC	??_C@_0BN@HDOPCCMH@Policy_TourismOnUnitCreation?$AA@ ; `string'
PUBLIC	??_C@_07COHILFBB@Tourism?$AA@			; `string'
PUBLIC	??_C@_0M@HLHJNCC@UnitClasses?$AA@		; `string'
PUBLIC	??_C@_0BH@KKBIBCHK@Policy_FreeUnitClasses?$AA@	; `string'
PUBLIC	??_C@_0O@JGILCIIO@UnitClassType?$AA@		; `string'
PUBLIC	??_C@_05IJGIMMHE@Count?$AA@			; `string'
PUBLIC	??_C@_0BO@BNAMIIKH@Policy_BuildingClassHappiness?$AA@ ; `string'
PUBLIC	??_C@_09MNJMGIDC@Happiness?$AA@			; `string'
PUBLIC	??_C@_0CF@CMGLKFDI@Policy_BuildingClassTourismModif@ ; `string'
PUBLIC	??_C@_0BA@COIBAHID@TourismModifier?$AA@		; `string'
PUBLIC	??_C@_0CI@MCHMEPOE@Policy_BuildingClassProductionMo@ ; `string'
PUBLIC	??_C@_0BA@GLDILOEP@BuildingClasses?$AA@		; `string'
PUBLIC	??_C@_0CD@OAPCCMEJ@Policy_BuildingClassCultureChang@ ; `string'
PUBLIC	??_C@_0BC@OELPCAJJ@BuildingClassType?$AA@	; `string'
PUBLIC	??_C@_0O@DKCHOOHE@CultureChange?$AA@		; `string'
PUBLIC	??_C@_0CF@JAEDOHPB@Policy_UnitCombatProductionModif@ ; `string'
PUBLIC	??_C@_0BD@JMJICLDJ@ProductionModifier?$AA@	; `string'
PUBLIC	??_C@_0BA@NHHFHDEL@UnitCombatInfos?$AA@		; `string'
PUBLIC	??_C@_0CB@ILPCOPJK@Policy_UnitCombatFreeExperiences@ ; `string'
PUBLIC	??_C@_0P@GFHIODK@UnitCombatType?$AA@		; `string'
PUBLIC	??_C@_0P@GCBJCIAG@UnitPromotions?$AA@		; `string'
PUBLIC	??_C@_0BG@ECDIGOEK@Policy_FreePromotions?$AA@	; `string'
PUBLIC	??_C@_0O@IILJPJBB@PromotionType?$AA@		; `string'
PUBLIC	??_C@_0M@EENMFCNN@Specialists?$AA@		; `string'
PUBLIC	??_C@_0BI@BPBDIBOC@Policy_ValidSpecialists?$AA@	; `string'
PUBLIC	??_C@_0P@KLBEOMLO@SpecialistType?$AA@		; `string'
PUBLIC	??_C@_0L@PGMCIMFM@HurryInfos?$AA@		; `string'
PUBLIC	??_C@_0BG@FHFLCHBI@Policy_HurryModifiers?$AA@	; `string'
PUBLIC	??_C@_09FFMCMAO@HurryType?$AA@			; `string'
PUBLIC	??_C@_0BC@KALJCKJH@HurryCostModifier?$AA@	; `string'
PUBLIC	??_C@_0P@BFDDJDDA@Policy_Flavors?$AA@		; `string'
PUBLIC	??_C@_0BN@JKGJDLCA@Policy_SpecialistExtraYields?$AA@ ; `string'
PUBLIC	??_C@_0BN@MFJLJONG@Policy_GreatWorkYieldChanges?$AA@ ; `string'
PUBLIC	??_C@_0BN@MENJPEMM@Policy_CapitalYieldModifiers?$AA@ ; `string'
PUBLIC	??_C@_0CB@JNJCBEJA@Policy_CapitalYieldPerPopChanges@ ; `string'
PUBLIC	??_C@_0BL@CCCEKMJN@Policy_CapitalYieldChanges?$AA@ ; `string'
PUBLIC	??_C@_0BP@NJFEBBPC@Policy_CoastalCityYieldChanges?$AA@ ; `string'
PUBLIC	??_C@_0BI@KKDHIEEK@Policy_CityYieldChanges?$AA@	; `string'
PUBLIC	??_C@_0BG@KPLKNJFC@Policy_YieldModifiers?$AA@	; `string'
PUBLIC	??_C@_0L@LIHFHODE@PolicyType?$AA@		; `string'
PUBLIC	??_C@_0BH@MPDGGDMG@FreeBuildingOnConquest?$AA@	; `string'
PUBLIC	??_C@_0BB@MAJHKHNK@NumExtraBranches?$AA@	; `string'
PUBLIC	??_C@_0BB@NPPBPBOI@PolicyBranchType?$AA@	; `string'
PUBLIC	??_C@_0L@IANCLNMF@TechPrereq?$AA@		; `string'
PUBLIC	?GetLocalizedText@@YA?AVCvString@@PBD@Z		; GetLocalizedText
PUBLIC	??_C@_0O@FEEMIMFP@WeLoveTheKing?$AA@		; `string'
PUBLIC	??_C@_0BJ@HFFJCDOB@IncludesOneShotFreeUnits?$AA@ ; `string'
PUBLIC	??_C@_07GACJADJO@OneShot?$AA@			; `string'
PUBLIC	??_C@_0BG@CDIIOFIJ@AbleToAnnexCityStates?$AA@	; `string'
PUBLIC	??_C@_0BG@JJPEJKJK@EnablesSSPartPurchase?$AA@	; `string'
PUBLIC	??_C@_0BG@BGMJCDCP@AllowPuppetPurchasing?$AA@	; `string'
PUBLIC	??_C@_0BE@PCLBMPHC@NoMinorDOWIfFriends?$AA@	; `string'
PUBLIC	??_C@_09FCFHIKFI@IsWarHero?$AA@			; `string'
PUBLIC	??_C@_0CB@GIDMBFM@IsDoubleTrainedMilitaryLandUnits@ ; `string'
PUBLIC	??_C@_0BH@FDMMCIJH@DisablesResistanceTime?$AA@	; `string'
PUBLIC	??_C@_0BD@PONKBHPA@EnablesSSPartHurry?$AA@	; `string'
PUBLIC	??_C@_0BF@GEHLOEOL@AddReformationBelief?$AA@	; `string'
PUBLIC	??_C@_0BH@KEAINGJC@SecondReligionPantheon?$AA@	; `string'
PUBLIC	??_C@_0BO@FKDEDCGL@GoldenAgeCultureBonusDisabled?$AA@ ; `string'
PUBLIC	??_C@_0BH@BHOFEKLH@ProductionFromGarrison?$AA@	; `string'
PUBLIC	??_C@_0CE@FEKIMMKI@IdeologyPressureUnhappinessModif@ ; `string'
PUBLIC	??_C@_0P@DMNLMCNC@TourismPerCity?$AA@		; `string'
PUBLIC	??_C@_0BB@FIJKHBME@TourismPerWonder?$AA@	; `string'
PUBLIC	??_C@_0BJ@PPFAPLBM@ExtraTourismPerGreatWork?$AA@ ; `string'
PUBLIC	??_C@_0BE@GFLBEIAH@ExtraTerritoryClaim?$AA@	; `string'
PUBLIC	??_C@_0BH@BJAEBEN@CityStateBonusModifier?$AA@	; `string'
PUBLIC	??_C@_0CB@INOPFAOD@MinorMilitaryNumExtraUnitsToGift@ ; `string'
PUBLIC	??_C@_0BD@LDBBMJHF@MinorResourceBonus?$AA@	; `string'
PUBLIC	??_C@_0BD@OIOEBHLN@MinorScienceAllies?$AA@	; `string'
PUBLIC	??_C@_0BH@NDGBALIP@MinorGreatPeopleAllies?$AA@	; `string'
PUBLIC	??_C@_0BF@MKBOLOFE@CityStateTradeChange?$AA@	; `string'
PUBLIC	??_C@_0BL@BBIFLCLM@OpenBordersTourismModifier?$AA@ ; `string'
PUBLIC	??_C@_0BK@LGCJBFHM@TradeRouteTourismModifier?$AA@ ; `string'
PUBLIC	??_C@_0BO@GLBABIPM@SharedReligionTourismModifier?$AA@ ; `string'
PUBLIC	??_C@_0BD@GIMAOKOM@CoupChanceModifier?$AA@	; `string'
PUBLIC	??_C@_0CE@DKCEDOAL@MinorFriendshipGainBullyGoldSucc@ ; `string'
PUBLIC	??_C@_0BP@GOECOIG@HappinessFromGreatImprovements?$AA@ ; `string'
PUBLIC	??_C@_0BJ@EMLAAIA@TourismFromTradeMissions?$AA@	; `string'
PUBLIC	??_C@_0CB@IIFBEMOI@InfluenceBoostPerGreatPersonBorn@ ; `string'
PUBLIC	??_C@_0BK@NKEMBBH@SciencePerGreatPersonBorn?$AA@ ; `string'
PUBLIC	??_C@_0BO@JKAGNMLN@TradeMissionInfluenceModifier?$AA@ ; `string'
PUBLIC	??_C@_0CD@PLONLNAF@ProductionToGreatMusiciansModifi@ ; `string'
PUBLIC	??_C@_0BI@NMJFENFF@CombatBonusVsSmallerCiv?$AA@	; `string'
PUBLIC	??_C@_0CB@EAENMJPL@RailConnectionProductionModifier@ ; `string'
PUBLIC	??_C@_0CI@PIJMLMPB@InternalTradeRouteProductionYiel@ ; `string'
PUBLIC	??_C@_0CA@KBPBNEF@InternalTradeRouteYieldModifier?$AA@ ; `string'
PUBLIC	??_C@_0BH@NCANENCP@ThemingBonusMultiplier?$AA@	; `string'
PUBLIC	??_C@_0BI@DFKMMHDF@MinorBullyScoreModifier?$AA@	; `string'
PUBLIC	??_C@_0BM@IPHHLIAB@AfraidMinorPerTurnInfluence?$AA@ ; `string'
PUBLIC	??_C@_0BP@ODMELIBJ@ProtectedMinorPerTurnInfluence?$AA@ ; `string'
PUBLIC	??_C@_0BP@DHAEOHLB@MilitaryUnitGiftExtraInfluence?$AA@ ; `string'
PUBLIC	??_C@_0BI@EDFKCKKD@RiggingElectionModifier?$AA@	; `string'
PUBLIC	??_C@_0BO@LIPLOMJF@SharedIdeologyTradeGoldChange?$AA@ ; `string'
PUBLIC	??_C@_0BN@PBNBAHDF@InternalTradeRouteGoldChange?$AA@ ; `string'
PUBLIC	??_C@_0BI@JMHDBAJE@SeaTradeRouteGoldChange?$AA@	; `string'
PUBLIC	??_C@_0BJ@NPLFFGBN@LandTradeRouteGoldChange?$AA@ ; `string'
PUBLIC	??_C@_0BO@NCHBIENE@SharedIdeologyTourismModifier?$AA@ ; `string'
PUBLIC	??_C@_0BJ@PKHFPDIL@LessHappyTourismModifier?$AA@ ; `string'
PUBLIC	??_C@_0BJ@ONGDHBAE@CommonFoeTourismModifier?$AA@ ; `string'
PUBLIC	??_C@_0BP@BOJEJAGP@CityStateUnitFrequencyModifier?$AA@ ; `string'
PUBLIC	??_C@_0CE@OKMBJAKL@OtherPlayersMinorFriendshipDecay@ ; `string'
PUBLIC	??_C@_0BI@EBPAAEPN@MinorFriendshipDecayMod?$AA@	; `string'
PUBLIC	??_C@_0BH@CNJFAHMI@MinorFriendshipMinimum?$AA@	; `string'
PUBLIC	??_C@_0BH@PGJKGPKO@MinorGoldFriendshipMod?$AA@	; `string'
PUBLIC	??_C@_0BI@HIEEGHEA@MinorQuestFriendshipMod?$AA@	; `string'
PUBLIC	??_C@_0BE@JMMGOOCJ@ExpInBorderModifier?$AA@	; `string'
PUBLIC	??_C@_0M@OLBPIHKG@ExpModifier?$AA@		; `string'
PUBLIC	??_C@_0P@ONAKJGND@FreeSpecialist?$AA@		; `string'
PUBLIC	??_C@_0BI@FBAEOHNO@GarrisonFreeMaintenance?$AA@	; `string'
PUBLIC	??_C@_0BC@DOIJCEHM@RevealAllCapitals?$AA@	; `string'
PUBLIC	??_C@_0BD@MDAIKGML@AlwaysSeeBarbCamps?$AA@	; `string'
PUBLIC	??_C@_0BF@HFMOGHPJ@BarbarianCombatBonus?$AA@	; `string'
PUBLIC	??_C@_0BD@GBJLPLCI@UnitUpgradeCostMod?$AA@	; `string'
PUBLIC	??_C@_0BF@HBALDEPJ@WoundedUnitDamageMod?$AA@	; `string'
PUBLIC	??_C@_0N@EHHEPDOA@MaxConscript?$AA@		; `string'
PUBLIC	??_C@_0BH@PINGGCAG@MilitaryFoodProduction?$AA@	; `string'
PUBLIC	??_C@_0BD@HOBGLLL@HalfSpecialistFood?$AA@	; `string'
PUBLIC	??_C@_0BO@JCLIINCC@HalfMoreSpecialistUnhappiness?$AA@ ; `string'
PUBLIC	??_C@_0BK@MNPNKBOH@HalfSpecialistUnhappiness?$AA@ ; `string'
PUBLIC	??_C@_0BK@KFJBPGNL@NumCitiesFreeFoodBuilding?$AA@ ; `string'
PUBLIC	??_C@_0BN@FIEHLJMJ@NumCitiesFreeCultureBuilding?$AA@ ; `string'
PUBLIC	??_C@_0BD@KDKHHJEK@NumCitiesFreeWalls?$AA@	; `string'
PUBLIC	??_C@_0BK@JOIILMDO@NumCitiesFreePietyGardens?$AA@ ; `string'
PUBLIC	??_C@_0BP@ELCFNBD@NumCitiesFreeAestheticsSchools?$AA@ ; `string'
PUBLIC	??_C@_0O@ELPPBGEP@GoldToScience?$AA@		; `string'
PUBLIC	??_C@_0BD@CDMOEEGG@HappinessToScience?$AA@	; `string'
PUBLIC	??_C@_0BD@MMMKOKOB@HappinessToCulture?$AA@	; `string'
PUBLIC	??_C@_0BF@NKCDCBLE@HappyPerMilitaryUnit?$AA@	; `string'
PUBLIC	??_C@_0O@IKEGJHGF@UnitSupplyMod?$AA@		; `string'
PUBLIC	??_C@_0BH@GPCCGJFH@UnitGoldMaintenanceMod?$AA@	; `string'
PUBLIC	??_C@_0BL@GOKAHANB@BuildingGoldMaintenanceMod?$AA@ ; `string'
PUBLIC	??_C@_0BI@JPCPBJHC@RouteGoldMaintenanceMod?$AA@	; `string'
PUBLIC	??_C@_0M@EOGMLPFM@FreeFoodBox?$AA@		; `string'
PUBLIC	??_C@_0BH@PDNAFCEG@NewCityExtraPopulation?$AA@	; `string'
PUBLIC	??_C@_0CB@MIGPIJHP@CapitalSettlerProductionModifier@ ; `string'
PUBLIC	??_C@_0BK@KEMFJDHB@SettlerProductionModifier?$AA@ ; `string'
PUBLIC	??_C@_0BB@IIOEMOFG@CapitalGrowthMod?$AA@	; `string'
PUBLIC	??_C@_0O@KIHLCIGE@CityGrowthMod?$AA@		; `string'
PUBLIC	??_C@_0BA@JGKPMHDI@CityStrengthMod?$AA@		; `string'
PUBLIC	??_C@_0BE@LMFGEEFC@GoldPerMilitaryUnit?$AA@	; `string'
PUBLIC	??_C@_0M@CELEIBNP@GoldPerUnit?$AA@		; `string'
PUBLIC	??_C@_0BD@FEHHPDEP@CatchSpiesModifier?$AA@	; `string'
PUBLIC	??_C@_0BI@PDPCGKIO@StealTechFasterModifier?$AA@	; `string'
PUBLIC	??_C@_0BI@GKMOPGMA@StealTechSlowerModifier?$AA@	; `string'
PUBLIC	??_C@_0BK@FGEFNEAF@CulturalPlunderMultiplier?$AA@ ; `string'
PUBLIC	??_C@_0BC@LIHGJKGH@FaithCostModifier?$AA@	; `string'
PUBLIC	??_C@_0BJ@OGAAKMBL@TradeMissionGoldModifier?$AA@ ; `string'
PUBLIC	??_C@_0CF@CKGIHFME@CityConnectionTradeRouteGoldModi@ ; `string'
PUBLIC	??_C@_0BN@MDJBNLIP@BuildingPurchaseCostModifier?$AA@ ; `string'
PUBLIC	??_C@_0BJ@MKCDENAA@UnitPurchaseCostModifier?$AA@ ; `string'
PUBLIC	??_C@_0CC@ELHNOAEL@GarrisonedCityRangeStrikeModifie@ ; `string'
PUBLIC	??_C@_0BO@MEMOKKJL@NumCitiesResearchCostDiscount?$AA@ ; `string'
PUBLIC	??_C@_0BM@COIEECHE@NumCitiesPolicyCostDiscount?$AA@ ; `string'
PUBLIC	??_C@_0BM@FKOPEKNC@PlotCultureExponentModifier?$AA@ ; `string'
PUBLIC	??_C@_0BI@CCICLKEE@PlotCultureCostModifier?$AA@	; `string'
PUBLIC	??_C@_0BA@EBDNNHOP@PlotGoldCostMod?$AA@		; `string'
PUBLIC	??_C@_0BB@ONFGPAJH@NumExtraBuilders?$AA@	; `string'
PUBLIC	??_C@_0BI@IMKGJEKK@UnhappinessFromUnitsMod?$AA@	; `string'
PUBLIC	??_C@_0BI@KDPCJKIO@ExtraHappinessPerLuxury?$AA@	; `string'
PUBLIC	??_C@_0BI@EKOONHKP@HappinessPerXPopulation?$AA@	; `string'
PUBLIC	??_C@_0BL@NOANKODL@HappinessPerRailConnection?$AA@ ; `string'
PUBLIC	??_C@_0BH@FKMKPMOM@HappinessPerTradeRoute?$AA@	; `string'
PUBLIC	??_C@_0BJ@JGKBABME@CulturePerGarrisonedUnit?$AA@ ; `string'
PUBLIC	??_C@_0BL@JJAGICMO@HappinessPerGarrisonedUnit?$AA@ ; `string'
PUBLIC	??_C@_0CD@HCLGJPMG@FreeMilitaryUnitsPopulationPerce@ ; `string'
PUBLIC	??_C@_0BL@OICFPJHJ@FreeUnitsPopulationPercent?$AA@ ; `string'
PUBLIC	??_C@_0BG@HNNABIFD@BaseFreeMilitaryUnits?$AA@	; `string'
PUBLIC	??_C@_0O@EIFAIMLA@BaseFreeUnits?$AA@		; `string'
PUBLIC	??_C@_0BL@DFCFJKDP@MilitaryProductionModifier?$AA@ ; `string'
PUBLIC	??_C@_0BK@CFFAKCBM@SpecialistUpgradeModifier?$AA@ ; `string'
PUBLIC	??_C@_0BN@BCNFIGMF@SpecialistProductionModifier?$AA@ ; `string'
PUBLIC	??_C@_0BP@HAEEHIKP@ImprovementUpgradeRateModifier?$AA@ ; `string'
PUBLIC	??_C@_0BI@OOJHBKNI@ImprovementCostModifier?$AA@	; `string'
PUBLIC	??_C@_0BF@BBFBLGII@AllFeatureProduction?$AA@	; `string'
PUBLIC	??_C@_0BE@NGOPBNAB@WorkerSpeedModifier?$AA@	; `string'
PUBLIC	??_C@_0P@MOBEEGOH@FreeExperience?$AA@		; `string'
PUBLIC	??_C@_0BG@GLEFCJIP@CapitalUnhappinessMod?$AA@	; `string'
PUBLIC	??_C@_0CB@MDKPLGNJ@OccupiedPopulationUnhappinessMod@ ; `string'
PUBLIC	??_C@_0BI@NMIGNJMC@CityCountUnhappinessMod?$AA@	; `string'
PUBLIC	??_C@_0P@MJJHCDCN@UnhappinessMod?$AA@		; `string'
PUBLIC	??_C@_0BG@BNECOPBF@ExtraHappinessPerCity?$AA@	; `string'
PUBLIC	??_C@_0P@PKOJCLKH@ExtraHappiness?$AA@		; `string'
PUBLIC	??_C@_0CB@PIKCEEAD@DomesticGreatGeneralRateModifier@ ; `string'
PUBLIC	??_C@_0BL@JEHMMHCB@GreatScientistRateModifier?$AA@ ; `string'
PUBLIC	??_C@_0BK@EFBINBKL@GreatMerchantRateModifier?$AA@ ; `string'
PUBLIC	??_C@_0BK@EGCNJBGG@GreatMusicianRateModifier?$AA@ ; `string'
PUBLIC	??_C@_0BI@EDMONEDH@GreatArtistRateModifier?$AA@	; `string'
PUBLIC	??_C@_0BI@LJIIKCIN@GreatWriterRateModifier?$AA@	; `string'
PUBLIC	??_C@_0BJ@OJPABOPK@GreatAdmiralRateModifier?$AA@ ; `string'
PUBLIC	??_C@_0BJ@MFKPLGEE@GreatGeneralRateModifier?$AA@ ; `string'
PUBLIC	??_C@_0BI@DKDDAFPG@GreatPeopleRateModifier?$AA@	; `string'
PUBLIC	??_C@_0BL@HLGIJEIL@BuildingProductionModifier?$AA@ ; `string'
PUBLIC	??_C@_0BJ@KGAAGHKI@WonderProductionModifier?$AA@ ; `string'
PUBLIC	??_C@_0BF@OHPDEMNG@StrategicResourceMod?$AA@	; `string'
PUBLIC	??_C@_0BI@COMEBICJ@MedianTechPercentChange?$AA@	; `string'
PUBLIC	??_C@_0O@OGNCLEHN@NumExtraSpies?$AA@		; `string'
PUBLIC	??_C@_0BD@JMFDFLLL@NumFreeGreatPeople?$AA@	; `string'
PUBLIC	??_C@_0BA@BKNGJGHF@NumFreePolicies?$AA@		; `string'
PUBLIC	??_C@_0N@DBLFACAI@NumFreeTechs?$AA@		; `string'
PUBLIC	??_C@_0BF@MHEADKKO@GoldenAgeDurationMod?$AA@	; `string'
PUBLIC	??_C@_0BC@GGDDOBLH@GoldenAgeMeterMod?$AA@	; `string'
PUBLIC	??_C@_0P@BJCGNFDJ@GoldenAgeTurns?$AA@		; `string'
PUBLIC	??_C@_0BB@LCLFIBJM@AttackBonusTurns?$AA@	; `string'
PUBLIC	??_C@_0BD@KHNGHMJB@EmbarkedExtraMoves?$AA@	; `string'
PUBLIC	??_C@_0BB@OCLFMNEB@ScienceFromKills?$AA@	; `string'
PUBLIC	??_C@_0O@IFCPKMIO@GoldFromKills?$AA@		; `string'
PUBLIC	??_C@_0BK@DICAPLG@CultureFromBarbarianKills?$AA@ ; `string'
PUBLIC	??_C@_0BB@EMBLNIDN@CultureFromKills?$AA@	; `string'
PUBLIC	??_C@_0BJ@BLBDGMPP@CultureImprovementChange?$AA@ ; `string'
PUBLIC	??_C@_0BJ@KNLKNLF@CulturePerTechResearched?$AA@	; `string'
PUBLIC	??_C@_0BI@DGDBMDFC@CultureWonderMultiplier?$AA@	; `string'
PUBLIC	??_C@_0BB@LIMEGBNN@CulturePerWonder?$AA@	; `string'
PUBLIC	??_C@_0P@HLGECCII@CulturePerCity?$AA@		; `string'
PUBLIC	??_C@_0BD@MIAKAFOH@PolicyCostModifier?$AA@	; `string'
PUBLIC	??_C@_05KOHFLOFG@Level?$AA@			; `string'
PUBLIC	??_C@_05LNPLOKEP@GridY?$AA@			; `string'
PUBLIC	??_C@_05KEOANLAO@GridX?$AA@			; `string'
PUBLIC	??_C@_0M@IMLKLLCO@CultureCost?$AA@		; `string'
PUBLIC	__$ArrayPad$
EXTRN	__imp_?Reset@Results@Database@@QAE_NXZ:PROC
EXTRN	?MaxRows@CvDatabaseUtility@@QAEHPBD@Z:PROC	; CvDatabaseUtility::MaxRows
EXTRN	__imp_?GetInt@Results@Database@@QAEHH@Z:PROC
EXTRN	__imp_?Step@Results@Database@@QAE_NXZ:PROC
EXTRN	__imp_?Bind@Results@Database@@QAE_NHPBD_N@Z:PROC
EXTRN	?PrepareResults@CvDatabaseUtility@@QAEPAVResults@Database@@ABV?$basic_string@DU?$char_traits@D@std@@V?$allocator@D@2@@std@@PBD@Z:PROC ; CvDatabaseUtility::PrepareResults
EXTRN	?GetResults@CvDatabaseUtility@@QAEPAVResults@Database@@ABV?$basic_string@DU?$char_traits@D@std@@V?$allocator@D@2@@std@@@Z:PROC ; CvDatabaseUtility::GetResults
EXTRN	__imp_??0?$basic_string@DU?$char_traits@D@std@@V?$allocator@D@2@@std@@QAE@PBD@Z:PROC
EXTRN	?Initialize2DArray@CvDatabaseUtility@@QAE_NAAPAPAHPBD1H@Z:PROC ; CvDatabaseUtility::Initialize2DArray
EXTRN	?PopulateArrayByExistence@CvDatabaseUtility@@QAE_NAAPA_NPBD1111@Z:PROC ; CvDatabaseUtility::PopulateArrayByExistence
EXTRN	?PopulateArrayByValue@CvDatabaseUtility@@QAE_NAAPAHPBD11111HH@Z:PROC ; CvDatabaseUtility::PopulateArrayByValue
EXTRN	?SetFlavors@CvDatabaseUtility@@QAE_NAAPAHPBD11H@Z:PROC ; CvDatabaseUtility::SetFlavors
EXTRN	?SetYields@CvDatabaseUtility@@QAE_NAAPAHPBD11@Z:PROC ; CvDatabaseUtility::SetYields
EXTRN	?getInfoTypeForString@CvGlobals@@QBEHPBD_N@Z:PROC ; CvGlobals::getInfoTypeForString
EXTRN	?gGlobals@@3VCvGlobals@@A:BYTE			; gGlobals
EXTRN	__imp_??4?$basic_string@DU?$char_traits@D@std@@V?$allocator@D@2@@std@@QAEAAV01@ABV01@@Z:PROC
EXTRN	__imp_?c_str@?$basic_string@DU?$char_traits@D@std@@V?$allocator@D@2@@std@@QBEPBDXZ:PROC
EXTRN	__imp_?clear@?$basic_string@DU?$char_traits@D@std@@V?$allocator@D@2@@std@@QAEXXZ:PROC
EXTRN	__imp_?assign@?$basic_string@DU?$char_traits@D@std@@V?$allocator@D@2@@std@@QAEAAV12@PBD@Z:PROC
EXTRN	__imp_?GetText@Results@Database@@QAEPBDPBD@Z:PROC
EXTRN	__imp_?GetBool@Results@Database@@QAE_NPBD@Z:PROC
EXTRN	__imp_?GetInt@Results@Database@@QAEHPBD@Z:PROC
EXTRN	?CacheResults@CvBaseInfo@@UAE_NAAVResults@Database@@AAVCvDatabaseUtility@@@Z:PROC ; CvBaseInfo::CacheResults
EXTRN	__CxxThrowException@8:PROC
;	COMDAT ??_C@_0NH@JGCEKKAB@select?5UnitPromotions?4ID?0?5UnitCo@
; File c:\program files (x86)\microsoft visual studio 9.0\vc\include\xutility
CONST	SEGMENT
??_C@_0NH@JGCEKKAB@select?5UnitPromotions?4ID?0?5UnitCo@ DB 'select UnitP'
	DB	'romotions.ID, UnitCombatInfos.ID  from Policy_FreePromotionUn'
	DB	'itCombats, UnitPromotions, UnitCombatInfos where PolicyType ='
	DB	' ? and PromotionType = UnitPromotions.ID and UnitCombatType ='
	DB	' UnitCombatInfos.ID', 00H			; `string'
CONST	ENDS
;	COMDAT ??_C@_0BM@DNOOJGJD@m_FreePromotionsUnitCombats?$AA@
CONST	SEGMENT
??_C@_0BM@DNOOJGJD@m_FreePromotionsUnitCombats?$AA@ DB 'm_FreePromotionsU'
	DB	'nitCombats', 00H				; `string'
CONST	ENDS
;	COMDAT ??_C@_0HC@FGKHHPOB@select?5Policies?4ID?5from?5Policy_D@
CONST	SEGMENT
??_C@_0HC@FGKHHPOB@select?5Policies?4ID?5from?5Policy_D@ DB 'select Polic'
	DB	'ies.ID from Policy_Disables inner join Policies on Policies.T'
	DB	'ype = PolicyDisable where PolicyType = ?', 00H ; `string'
CONST	ENDS
;	COMDAT ??_C@_0BD@KHHJPNKJ@m_piPolicyDisables?$AA@
CONST	SEGMENT
??_C@_0BD@KHHJPNKJ@m_piPolicyDisables?$AA@ DB 'm_piPolicyDisables', 00H ; `string'
CONST	ENDS
;	COMDAT ??_C@_0HH@MGLLOFBN@select?5Policies?4ID?5from?5Policy_P@
CONST	SEGMENT
??_C@_0HH@MGLLOFBN@select?5Policies?4ID?5from?5Policy_P@ DB 'select Polic'
	DB	'ies.ID from Policy_PrereqPolicies inner join Policies on Poli'
	DB	'cies.Type = PrereqPolicy where PolicyType = ?', 00H ; `string'
CONST	ENDS
;	COMDAT ??_C@_0BG@HDAGFADH@m_piPrereqAndPolicies?$AA@
CONST	SEGMENT
??_C@_0BG@HDAGFADH@m_piPrereqAndPolicies?$AA@ DB 'm_piPrereqAndPolicies', 00H ; `string'
CONST	ENDS
;	COMDAT ??_C@_0HJ@CCDHNOKM@select?5Policies?4ID?5from?5Policy_P@
CONST	SEGMENT
??_C@_0HJ@CCDHNOKM@select?5Policies?4ID?5from?5Policy_P@ DB 'select Polic'
	DB	'ies.ID from Policy_PrereqORPolicies inner join Policies on Po'
	DB	'licies.Type = PrereqPolicy where PolicyType = ?', 00H ; `string'
CONST	ENDS
;	COMDAT ??_C@_0BF@CDEDBDG@m_piPrereqOrPolicies?$AA@
CONST	SEGMENT
??_C@_0BF@CDEDBDG@m_piPrereqOrPolicies?$AA@ DB 'm_piPrereqOrPolicies', 00H ; `string'
CONST	ENDS
;	COMDAT ??_C@_08NDDAPGNJ@Policies?$AA@
CONST	SEGMENT
??_C@_08NDDAPGNJ@Policies?$AA@ DB 'Policies', 00H	; `string'
CONST	ENDS
;	COMDAT ??_C@_0CB@JPJEMFOO@Policy_ImprovementCultureChanges@
CONST	SEGMENT
??_C@_0CB@JPJEMFOO@Policy_ImprovementCultureChanges@ DB 'Policy_Improveme'
	DB	'ntCultureChanges', 00H			; `string'
CONST	ENDS
;	COMDAT ??_C@_0BA@PMOLGEPK@ImprovementType?$AA@
CONST	SEGMENT
??_C@_0BA@PMOLGEPK@ImprovementType?$AA@ DB 'ImprovementType', 00H ; `string'
CONST	ENDS
;	COMDAT ??_C@_0OK@OMDAFMLP@select?5Improvements?4ID?5as?5Improv@
CONST	SEGMENT
??_C@_0OK@OMDAFMLP@select?5Improvements?4ID?5as?5Improv@ DB 'select Impro'
	DB	'vements.ID as ImprovementID, Yields.ID as YieldID, Yield from'
	DB	' Policy_ImprovementYieldChanges inner join Improvements on Im'
	DB	'provements.Type = ImprovementType inner join Yields on Yields'
	DB	'.Type = YieldType where PolicyType = ?', 00H ; `string'
CONST	ENDS
;	COMDAT ??_C@_0BP@DBAIIMOC@Policy_ImprovementYieldChanges?$AA@
CONST	SEGMENT
??_C@_0BP@DBAIIMOC@Policy_ImprovementYieldChanges?$AA@ DB 'Policy_Improve'
	DB	'mentYieldChanges', 00H			; `string'
CONST	ENDS
;	COMDAT ??_C@_0N@CJDAHDJO@Improvements?$AA@
CONST	SEGMENT
??_C@_0N@CJDAHDJO@Improvements?$AA@ DB 'Improvements', 00H ; `string'
CONST	ENDS
;	COMDAT ??_C@_0PP@PBCKHIDL@select?5BuildingClasses?4ID?5as?5Bui@
CONST	SEGMENT
??_C@_0PP@PBCKHIDL@select?5BuildingClasses?4ID?5as?5Bui@ DB 'select Build'
	DB	'ingClasses.ID as BuildingClassID, Yields.ID as YieldID, Yield'
	DB	'Change from Policy_BuildingClassYieldChanges inner join Build'
	DB	'ingClasses on BuildingClasses.Type = BuildingClassType inner '
	DB	'join Yields on Yields.Type = YieldType where PolicyType = ?', 00H ; `string'
CONST	ENDS
;	COMDAT ??_C@_0CB@GDAPPICJ@Policy_BuildingClassYieldChanges@
CONST	SEGMENT
??_C@_0CB@GDAPPICJ@Policy_BuildingClassYieldChanges@ DB 'Policy_BuildingC'
	DB	'lassYieldChanges', 00H			; `string'
CONST	ENDS
;	COMDAT ??_C@_0PO@NAMOGGP@select?5BuildingClasses?4ID?5as?5Bui@
CONST	SEGMENT
??_C@_0PO@NAMOGGP@select?5BuildingClasses?4ID?5as?5Bui@ DB 'select Buildi'
	DB	'ngClasses.ID as BuildingClassID, Yields.ID as YieldID, YieldM'
	DB	'od from Policy_BuildingClassYieldModifiers inner join Buildin'
	DB	'gClasses on BuildingClasses.Type = BuildingClassType inner jo'
	DB	'in Yields on Yields.Type = YieldType where PolicyType = ?', 00H ; `string'
CONST	ENDS
;	COMDAT ??_C@_0CD@CIHGELLG@Policy_BuildingClassYieldModifie@
CONST	SEGMENT
??_C@_0CD@CIHGELLG@Policy_BuildingClassYieldModifie@ DB 'Policy_BuildingC'
	DB	'lassYieldModifiers', 00H			; `string'
CONST	ENDS
;	COMDAT ??_C@_06JAMLCLDI@Yields?$AA@
CONST	SEGMENT
??_C@_06JAMLCLDI@Yields?$AA@ DB 'Yields', 00H		; `string'
CONST	ENDS
;	COMDAT ??_C@_0BN@HDOPCCMH@Policy_TourismOnUnitCreation?$AA@
CONST	SEGMENT
??_C@_0BN@HDOPCCMH@Policy_TourismOnUnitCreation?$AA@ DB 'Policy_TourismOn'
	DB	'UnitCreation', 00H				; `string'
CONST	ENDS
;	COMDAT ??_C@_07COHILFBB@Tourism?$AA@
CONST	SEGMENT
??_C@_07COHILFBB@Tourism?$AA@ DB 'Tourism', 00H		; `string'
CONST	ENDS
;	COMDAT ??_C@_0M@HLHJNCC@UnitClasses?$AA@
CONST	SEGMENT
??_C@_0M@HLHJNCC@UnitClasses?$AA@ DB 'UnitClasses', 00H	; `string'
CONST	ENDS
;	COMDAT ??_C@_0BH@KKBIBCHK@Policy_FreeUnitClasses?$AA@
CONST	SEGMENT
??_C@_0BH@KKBIBCHK@Policy_FreeUnitClasses?$AA@ DB 'Policy_FreeUnitClasses'
	DB	00H						; `string'
CONST	ENDS
;	COMDAT ??_C@_0O@JGILCIIO@UnitClassType?$AA@
CONST	SEGMENT
??_C@_0O@JGILCIIO@UnitClassType?$AA@ DB 'UnitClassType', 00H ; `string'
CONST	ENDS
;	COMDAT ??_C@_05IJGIMMHE@Count?$AA@
CONST	SEGMENT
??_C@_05IJGIMMHE@Count?$AA@ DB 'Count', 00H		; `string'
CONST	ENDS
;	COMDAT ??_C@_0BO@BNAMIIKH@Policy_BuildingClassHappiness?$AA@
CONST	SEGMENT
??_C@_0BO@BNAMIIKH@Policy_BuildingClassHappiness?$AA@ DB 'Policy_Building'
	DB	'ClassHappiness', 00H			; `string'
CONST	ENDS
;	COMDAT ??_C@_09MNJMGIDC@Happiness?$AA@
CONST	SEGMENT
??_C@_09MNJMGIDC@Happiness?$AA@ DB 'Happiness', 00H	; `string'
CONST	ENDS
;	COMDAT ??_C@_0CF@CMGLKFDI@Policy_BuildingClassTourismModif@
CONST	SEGMENT
??_C@_0CF@CMGLKFDI@Policy_BuildingClassTourismModif@ DB 'Policy_BuildingC'
	DB	'lassTourismModifiers', 00H			; `string'
CONST	ENDS
;	COMDAT ??_C@_0BA@COIBAHID@TourismModifier?$AA@
CONST	SEGMENT
??_C@_0BA@COIBAHID@TourismModifier?$AA@ DB 'TourismModifier', 00H ; `string'
CONST	ENDS
;	COMDAT ??_C@_0CI@MCHMEPOE@Policy_BuildingClassProductionMo@
CONST	SEGMENT
??_C@_0CI@MCHMEPOE@Policy_BuildingClassProductionMo@ DB 'Policy_BuildingC'
	DB	'lassProductionModifiers', 00H		; `string'
CONST	ENDS
;	COMDAT ??_C@_0BA@GLDILOEP@BuildingClasses?$AA@
CONST	SEGMENT
??_C@_0BA@GLDILOEP@BuildingClasses?$AA@ DB 'BuildingClasses', 00H ; `string'
CONST	ENDS
;	COMDAT ??_C@_0CD@OAPCCMEJ@Policy_BuildingClassCultureChang@
CONST	SEGMENT
??_C@_0CD@OAPCCMEJ@Policy_BuildingClassCultureChang@ DB 'Policy_BuildingC'
	DB	'lassCultureChanges', 00H			; `string'
CONST	ENDS
;	COMDAT ??_C@_0BC@OELPCAJJ@BuildingClassType?$AA@
CONST	SEGMENT
??_C@_0BC@OELPCAJJ@BuildingClassType?$AA@ DB 'BuildingClassType', 00H ; `string'
CONST	ENDS
;	COMDAT ??_C@_0O@DKCHOOHE@CultureChange?$AA@
CONST	SEGMENT
??_C@_0O@DKCHOOHE@CultureChange?$AA@ DB 'CultureChange', 00H ; `string'
CONST	ENDS
;	COMDAT ??_C@_0CF@JAEDOHPB@Policy_UnitCombatProductionModif@
CONST	SEGMENT
??_C@_0CF@JAEDOHPB@Policy_UnitCombatProductionModif@ DB 'Policy_UnitComba'
	DB	'tProductionModifiers', 00H			; `string'
CONST	ENDS
;	COMDAT ??_C@_0BD@JMJICLDJ@ProductionModifier?$AA@
CONST	SEGMENT
??_C@_0BD@JMJICLDJ@ProductionModifier?$AA@ DB 'ProductionModifier', 00H ; `string'
CONST	ENDS
;	COMDAT ??_C@_0BA@NHHFHDEL@UnitCombatInfos?$AA@
CONST	SEGMENT
??_C@_0BA@NHHFHDEL@UnitCombatInfos?$AA@ DB 'UnitCombatInfos', 00H ; `string'
CONST	ENDS
;	COMDAT ??_C@_0CB@ILPCOPJK@Policy_UnitCombatFreeExperiences@
CONST	SEGMENT
??_C@_0CB@ILPCOPJK@Policy_UnitCombatFreeExperiences@ DB 'Policy_UnitComba'
	DB	'tFreeExperiences', 00H			; `string'
CONST	ENDS
;	COMDAT ??_C@_0P@GFHIODK@UnitCombatType?$AA@
CONST	SEGMENT
??_C@_0P@GFHIODK@UnitCombatType?$AA@ DB 'UnitCombatType', 00H ; `string'
CONST	ENDS
;	COMDAT ??_C@_0P@GCBJCIAG@UnitPromotions?$AA@
CONST	SEGMENT
??_C@_0P@GCBJCIAG@UnitPromotions?$AA@ DB 'UnitPromotions', 00H ; `string'
CONST	ENDS
;	COMDAT ??_C@_0BG@ECDIGOEK@Policy_FreePromotions?$AA@
CONST	SEGMENT
??_C@_0BG@ECDIGOEK@Policy_FreePromotions?$AA@ DB 'Policy_FreePromotions', 00H ; `string'
CONST	ENDS
;	COMDAT ??_C@_0O@IILJPJBB@PromotionType?$AA@
CONST	SEGMENT
??_C@_0O@IILJPJBB@PromotionType?$AA@ DB 'PromotionType', 00H ; `string'
CONST	ENDS
;	COMDAT ??_C@_0M@EENMFCNN@Specialists?$AA@
CONST	SEGMENT
??_C@_0M@EENMFCNN@Specialists?$AA@ DB 'Specialists', 00H ; `string'
CONST	ENDS
;	COMDAT ??_C@_0BI@BPBDIBOC@Policy_ValidSpecialists?$AA@
CONST	SEGMENT
??_C@_0BI@BPBDIBOC@Policy_ValidSpecialists?$AA@ DB 'Policy_ValidSpecialis'
	DB	'ts', 00H					; `string'
CONST	ENDS
;	COMDAT ??_C@_0P@KLBEOMLO@SpecialistType?$AA@
CONST	SEGMENT
??_C@_0P@KLBEOMLO@SpecialistType?$AA@ DB 'SpecialistType', 00H ; `string'
CONST	ENDS
;	COMDAT ??_C@_0L@PGMCIMFM@HurryInfos?$AA@
CONST	SEGMENT
??_C@_0L@PGMCIMFM@HurryInfos?$AA@ DB 'HurryInfos', 00H	; `string'
CONST	ENDS
;	COMDAT ??_C@_0BG@FHFLCHBI@Policy_HurryModifiers?$AA@
CONST	SEGMENT
??_C@_0BG@FHFLCHBI@Policy_HurryModifiers?$AA@ DB 'Policy_HurryModifiers', 00H ; `string'
CONST	ENDS
;	COMDAT ??_C@_09FFMCMAO@HurryType?$AA@
CONST	SEGMENT
??_C@_09FFMCMAO@HurryType?$AA@ DB 'HurryType', 00H	; `string'
CONST	ENDS
;	COMDAT ??_C@_0BC@KALJCKJH@HurryCostModifier?$AA@
CONST	SEGMENT
??_C@_0BC@KALJCKJH@HurryCostModifier?$AA@ DB 'HurryCostModifier', 00H ; `string'
CONST	ENDS
;	COMDAT ??_C@_0P@BFDDJDDA@Policy_Flavors?$AA@
CONST	SEGMENT
??_C@_0P@BFDDJDDA@Policy_Flavors?$AA@ DB 'Policy_Flavors', 00H ; `string'
CONST	ENDS
;	COMDAT ??_C@_0BN@JKGJDLCA@Policy_SpecialistExtraYields?$AA@
CONST	SEGMENT
??_C@_0BN@JKGJDLCA@Policy_SpecialistExtraYields?$AA@ DB 'Policy_Specialis'
	DB	'tExtraYields', 00H				; `string'
CONST	ENDS
;	COMDAT ??_C@_0BN@MFJLJONG@Policy_GreatWorkYieldChanges?$AA@
CONST	SEGMENT
??_C@_0BN@MFJLJONG@Policy_GreatWorkYieldChanges?$AA@ DB 'Policy_GreatWork'
	DB	'YieldChanges', 00H				; `string'
CONST	ENDS
;	COMDAT ??_C@_0BN@MENJPEMM@Policy_CapitalYieldModifiers?$AA@
CONST	SEGMENT
??_C@_0BN@MENJPEMM@Policy_CapitalYieldModifiers?$AA@ DB 'Policy_CapitalYi'
	DB	'eldModifiers', 00H				; `string'
CONST	ENDS
;	COMDAT ??_C@_0CB@JNJCBEJA@Policy_CapitalYieldPerPopChanges@
CONST	SEGMENT
??_C@_0CB@JNJCBEJA@Policy_CapitalYieldPerPopChanges@ DB 'Policy_CapitalYi'
	DB	'eldPerPopChanges', 00H			; `string'
CONST	ENDS
;	COMDAT ??_C@_0BL@CCCEKMJN@Policy_CapitalYieldChanges?$AA@
CONST	SEGMENT
??_C@_0BL@CCCEKMJN@Policy_CapitalYieldChanges?$AA@ DB 'Policy_CapitalYiel'
	DB	'dChanges', 00H				; `string'
CONST	ENDS
;	COMDAT ??_C@_0BP@NJFEBBPC@Policy_CoastalCityYieldChanges?$AA@
CONST	SEGMENT
??_C@_0BP@NJFEBBPC@Policy_CoastalCityYieldChanges?$AA@ DB 'Policy_Coastal'
	DB	'CityYieldChanges', 00H			; `string'
CONST	ENDS
;	COMDAT ??_C@_0BI@KKDHIEEK@Policy_CityYieldChanges?$AA@
CONST	SEGMENT
??_C@_0BI@KKDHIEEK@Policy_CityYieldChanges?$AA@ DB 'Policy_CityYieldChang'
	DB	'es', 00H					; `string'
CONST	ENDS
;	COMDAT ??_C@_0BG@KPLKNJFC@Policy_YieldModifiers?$AA@
CONST	SEGMENT
??_C@_0BG@KPLKNJFC@Policy_YieldModifiers?$AA@ DB 'Policy_YieldModifiers', 00H ; `string'
CONST	ENDS
;	COMDAT ??_C@_0L@LIHFHODE@PolicyType?$AA@
CONST	SEGMENT
??_C@_0L@LIHFHODE@PolicyType?$AA@ DB 'PolicyType', 00H	; `string'
CONST	ENDS
;	COMDAT ??_C@_0BH@MPDGGDMG@FreeBuildingOnConquest?$AA@
CONST	SEGMENT
??_C@_0BH@MPDGGDMG@FreeBuildingOnConquest?$AA@ DB 'FreeBuildingOnConquest'
	DB	00H						; `string'
CONST	ENDS
;	COMDAT ??_C@_0BB@MAJHKHNK@NumExtraBranches?$AA@
CONST	SEGMENT
??_C@_0BB@MAJHKHNK@NumExtraBranches?$AA@ DB 'NumExtraBranches', 00H ; `string'
CONST	ENDS
;	COMDAT ??_C@_0BB@NPPBPBOI@PolicyBranchType?$AA@
CONST	SEGMENT
??_C@_0BB@NPPBPBOI@PolicyBranchType?$AA@ DB 'PolicyBranchType', 00H ; `string'
CONST	ENDS
;	COMDAT ??_C@_0L@IANCLNMF@TechPrereq?$AA@
CONST	SEGMENT
??_C@_0L@IANCLNMF@TechPrereq?$AA@ DB 'TechPrereq', 00H	; `string'
CONST	ENDS
;	COMDAT ??_C@_0O@FEEMIMFP@WeLoveTheKing?$AA@
CONST	SEGMENT
??_C@_0O@FEEMIMFP@WeLoveTheKing?$AA@ DB 'WeLoveTheKing', 00H ; `string'
CONST	ENDS
;	COMDAT ??_C@_0BJ@HFFJCDOB@IncludesOneShotFreeUnits?$AA@
CONST	SEGMENT
??_C@_0BJ@HFFJCDOB@IncludesOneShotFreeUnits?$AA@ DB 'IncludesOneShotFreeU'
	DB	'nits', 00H					; `string'
CONST	ENDS
;	COMDAT ??_C@_07GACJADJO@OneShot?$AA@
CONST	SEGMENT
??_C@_07GACJADJO@OneShot?$AA@ DB 'OneShot', 00H		; `string'
CONST	ENDS
;	COMDAT ??_C@_0BG@CDIIOFIJ@AbleToAnnexCityStates?$AA@
CONST	SEGMENT
??_C@_0BG@CDIIOFIJ@AbleToAnnexCityStates?$AA@ DB 'AbleToAnnexCityStates', 00H ; `string'
CONST	ENDS
;	COMDAT ??_C@_0BG@JJPEJKJK@EnablesSSPartPurchase?$AA@
CONST	SEGMENT
??_C@_0BG@JJPEJKJK@EnablesSSPartPurchase?$AA@ DB 'EnablesSSPartPurchase', 00H ; `string'
CONST	ENDS
;	COMDAT ??_C@_0BG@BGMJCDCP@AllowPuppetPurchasing?$AA@
CONST	SEGMENT
??_C@_0BG@BGMJCDCP@AllowPuppetPurchasing?$AA@ DB 'AllowPuppetPurchasing', 00H ; `string'
CONST	ENDS
;	COMDAT ??_C@_0BE@PCLBMPHC@NoMinorDOWIfFriends?$AA@
CONST	SEGMENT
??_C@_0BE@PCLBMPHC@NoMinorDOWIfFriends?$AA@ DB 'NoMinorDOWIfFriends', 00H ; `string'
CONST	ENDS
;	COMDAT ??_C@_09FCFHIKFI@IsWarHero?$AA@
CONST	SEGMENT
??_C@_09FCFHIKFI@IsWarHero?$AA@ DB 'IsWarHero', 00H	; `string'
CONST	ENDS
;	COMDAT ??_C@_0CB@GIDMBFM@IsDoubleTrainedMilitaryLandUnits@
CONST	SEGMENT
??_C@_0CB@GIDMBFM@IsDoubleTrainedMilitaryLandUnits@ DB 'IsDoubleTrainedMi'
	DB	'litaryLandUnits', 00H			; `string'
CONST	ENDS
;	COMDAT ??_C@_0BH@FDMMCIJH@DisablesResistanceTime?$AA@
CONST	SEGMENT
??_C@_0BH@FDMMCIJH@DisablesResistanceTime?$AA@ DB 'DisablesResistanceTime'
	DB	00H						; `string'
CONST	ENDS
;	COMDAT ??_C@_0BD@PONKBHPA@EnablesSSPartHurry?$AA@
CONST	SEGMENT
??_C@_0BD@PONKBHPA@EnablesSSPartHurry?$AA@ DB 'EnablesSSPartHurry', 00H ; `string'
CONST	ENDS
;	COMDAT ??_C@_0BF@GEHLOEOL@AddReformationBelief?$AA@
CONST	SEGMENT
??_C@_0BF@GEHLOEOL@AddReformationBelief?$AA@ DB 'AddReformationBelief', 00H ; `string'
CONST	ENDS
;	COMDAT ??_C@_0BH@KEAINGJC@SecondReligionPantheon?$AA@
CONST	SEGMENT
??_C@_0BH@KEAINGJC@SecondReligionPantheon?$AA@ DB 'SecondReligionPantheon'
	DB	00H						; `string'
CONST	ENDS
;	COMDAT ??_C@_0BO@FKDEDCGL@GoldenAgeCultureBonusDisabled?$AA@
CONST	SEGMENT
??_C@_0BO@FKDEDCGL@GoldenAgeCultureBonusDisabled?$AA@ DB 'GoldenAgeCultur'
	DB	'eBonusDisabled', 00H			; `string'
CONST	ENDS
;	COMDAT ??_C@_0BH@BHOFEKLH@ProductionFromGarrison?$AA@
CONST	SEGMENT
??_C@_0BH@BHOFEKLH@ProductionFromGarrison?$AA@ DB 'ProductionFromGarrison'
	DB	00H						; `string'
CONST	ENDS
;	COMDAT ??_C@_0CE@FEKIMMKI@IdeologyPressureUnhappinessModif@
CONST	SEGMENT
??_C@_0CE@FEKIMMKI@IdeologyPressureUnhappinessModif@ DB 'IdeologyPressure'
	DB	'UnhappinessModifier', 00H			; `string'
CONST	ENDS
;	COMDAT ??_C@_0P@DMNLMCNC@TourismPerCity?$AA@
CONST	SEGMENT
??_C@_0P@DMNLMCNC@TourismPerCity?$AA@ DB 'TourismPerCity', 00H ; `string'
CONST	ENDS
;	COMDAT ??_C@_0BB@FIJKHBME@TourismPerWonder?$AA@
CONST	SEGMENT
??_C@_0BB@FIJKHBME@TourismPerWonder?$AA@ DB 'TourismPerWonder', 00H ; `string'
CONST	ENDS
;	COMDAT ??_C@_0BJ@PPFAPLBM@ExtraTourismPerGreatWork?$AA@
CONST	SEGMENT
??_C@_0BJ@PPFAPLBM@ExtraTourismPerGreatWork?$AA@ DB 'ExtraTourismPerGreat'
	DB	'Work', 00H					; `string'
CONST	ENDS
;	COMDAT ??_C@_0BE@GFLBEIAH@ExtraTerritoryClaim?$AA@
CONST	SEGMENT
??_C@_0BE@GFLBEIAH@ExtraTerritoryClaim?$AA@ DB 'ExtraTerritoryClaim', 00H ; `string'
CONST	ENDS
;	COMDAT ??_C@_0BH@BJAEBEN@CityStateBonusModifier?$AA@
CONST	SEGMENT
??_C@_0BH@BJAEBEN@CityStateBonusModifier?$AA@ DB 'CityStateBonusModifier', 00H ; `string'
CONST	ENDS
;	COMDAT ??_C@_0CB@INOPFAOD@MinorMilitaryNumExtraUnitsToGift@
CONST	SEGMENT
??_C@_0CB@INOPFAOD@MinorMilitaryNumExtraUnitsToGift@ DB 'MinorMilitaryNum'
	DB	'ExtraUnitsToGift', 00H			; `string'
CONST	ENDS
;	COMDAT ??_C@_0BD@LDBBMJHF@MinorResourceBonus?$AA@
CONST	SEGMENT
??_C@_0BD@LDBBMJHF@MinorResourceBonus?$AA@ DB 'MinorResourceBonus', 00H ; `string'
CONST	ENDS
;	COMDAT ??_C@_0BD@OIOEBHLN@MinorScienceAllies?$AA@
CONST	SEGMENT
??_C@_0BD@OIOEBHLN@MinorScienceAllies?$AA@ DB 'MinorScienceAllies', 00H ; `string'
CONST	ENDS
;	COMDAT ??_C@_0BH@NDGBALIP@MinorGreatPeopleAllies?$AA@
CONST	SEGMENT
??_C@_0BH@NDGBALIP@MinorGreatPeopleAllies?$AA@ DB 'MinorGreatPeopleAllies'
	DB	00H						; `string'
CONST	ENDS
;	COMDAT ??_C@_0BF@MKBOLOFE@CityStateTradeChange?$AA@
CONST	SEGMENT
??_C@_0BF@MKBOLOFE@CityStateTradeChange?$AA@ DB 'CityStateTradeChange', 00H ; `string'
CONST	ENDS
;	COMDAT ??_C@_0BL@BBIFLCLM@OpenBordersTourismModifier?$AA@
CONST	SEGMENT
??_C@_0BL@BBIFLCLM@OpenBordersTourismModifier?$AA@ DB 'OpenBordersTourism'
	DB	'Modifier', 00H				; `string'
CONST	ENDS
;	COMDAT ??_C@_0BK@LGCJBFHM@TradeRouteTourismModifier?$AA@
CONST	SEGMENT
??_C@_0BK@LGCJBFHM@TradeRouteTourismModifier?$AA@ DB 'TradeRouteTourismMo'
	DB	'difier', 00H				; `string'
CONST	ENDS
;	COMDAT ??_C@_0BO@GLBABIPM@SharedReligionTourismModifier?$AA@
CONST	SEGMENT
??_C@_0BO@GLBABIPM@SharedReligionTourismModifier?$AA@ DB 'SharedReligionT'
	DB	'ourismModifier', 00H			; `string'
CONST	ENDS
;	COMDAT ??_C@_0BD@GIMAOKOM@CoupChanceModifier?$AA@
CONST	SEGMENT
??_C@_0BD@GIMAOKOM@CoupChanceModifier?$AA@ DB 'CoupChanceModifier', 00H ; `string'
CONST	ENDS
;	COMDAT ??_C@_0CE@DKCEDOAL@MinorFriendshipGainBullyGoldSucc@
CONST	SEGMENT
??_C@_0CE@DKCEDOAL@MinorFriendshipGainBullyGoldSucc@ DB 'MinorFriendshipG'
	DB	'ainBullyGoldSuccess', 00H			; `string'
CONST	ENDS
;	COMDAT ??_C@_0BP@GOECOIG@HappinessFromGreatImprovements?$AA@
CONST	SEGMENT
??_C@_0BP@GOECOIG@HappinessFromGreatImprovements?$AA@ DB 'HappinessFromGr'
	DB	'eatImprovements', 00H			; `string'
CONST	ENDS
;	COMDAT ??_C@_0BJ@EMLAAIA@TourismFromTradeMissions?$AA@
CONST	SEGMENT
??_C@_0BJ@EMLAAIA@TourismFromTradeMissions?$AA@ DB 'TourismFromTradeMissi'
	DB	'ons', 00H					; `string'
CONST	ENDS
;	COMDAT ??_C@_0CB@IIFBEMOI@InfluenceBoostPerGreatPersonBorn@
CONST	SEGMENT
??_C@_0CB@IIFBEMOI@InfluenceBoostPerGreatPersonBorn@ DB 'InfluenceBoostPe'
	DB	'rGreatPersonBorn', 00H			; `string'
CONST	ENDS
;	COMDAT ??_C@_0BK@NKEMBBH@SciencePerGreatPersonBorn?$AA@
CONST	SEGMENT
??_C@_0BK@NKEMBBH@SciencePerGreatPersonBorn?$AA@ DB 'SciencePerGreatPerso'
	DB	'nBorn', 00H					; `string'
CONST	ENDS
;	COMDAT ??_C@_0BO@JKAGNMLN@TradeMissionInfluenceModifier?$AA@
CONST	SEGMENT
??_C@_0BO@JKAGNMLN@TradeMissionInfluenceModifier?$AA@ DB 'TradeMissionInf'
	DB	'luenceModifier', 00H			; `string'
CONST	ENDS
;	COMDAT ??_C@_0CD@PLONLNAF@ProductionToGreatMusiciansModifi@
CONST	SEGMENT
??_C@_0CD@PLONLNAF@ProductionToGreatMusiciansModifi@ DB 'ProductionToGrea'
	DB	'tMusiciansModifier', 00H			; `string'
CONST	ENDS
;	COMDAT ??_C@_0BI@NMJFENFF@CombatBonusVsSmallerCiv?$AA@
CONST	SEGMENT
??_C@_0BI@NMJFENFF@CombatBonusVsSmallerCiv?$AA@ DB 'CombatBonusVsSmallerC'
	DB	'iv', 00H					; `string'
CONST	ENDS
;	COMDAT ??_C@_0CB@EAENMJPL@RailConnectionProductionModifier@
CONST	SEGMENT
??_C@_0CB@EAENMJPL@RailConnectionProductionModifier@ DB 'RailConnectionPr'
	DB	'oductionModifier', 00H			; `string'
CONST	ENDS
;	COMDAT ??_C@_0CI@PIJMLMPB@InternalTradeRouteProductionYiel@
CONST	SEGMENT
??_C@_0CI@PIJMLMPB@InternalTradeRouteProductionYiel@ DB 'InternalTradeRou'
	DB	'teProductionYieldChange', 00H		; `string'
CONST	ENDS
;	COMDAT ??_C@_0CA@KBPBNEF@InternalTradeRouteYieldModifier?$AA@
CONST	SEGMENT
??_C@_0CA@KBPBNEF@InternalTradeRouteYieldModifier?$AA@ DB 'InternalTradeR'
	DB	'outeYieldModifier', 00H			; `string'
CONST	ENDS
;	COMDAT ??_C@_0BH@NCANENCP@ThemingBonusMultiplier?$AA@
CONST	SEGMENT
??_C@_0BH@NCANENCP@ThemingBonusMultiplier?$AA@ DB 'ThemingBonusMultiplier'
	DB	00H						; `string'
CONST	ENDS
;	COMDAT ??_C@_0BI@DFKMMHDF@MinorBullyScoreModifier?$AA@
CONST	SEGMENT
??_C@_0BI@DFKMMHDF@MinorBullyScoreModifier?$AA@ DB 'MinorBullyScoreModifi'
	DB	'er', 00H					; `string'
CONST	ENDS
;	COMDAT ??_C@_0BM@IPHHLIAB@AfraidMinorPerTurnInfluence?$AA@
CONST	SEGMENT
??_C@_0BM@IPHHLIAB@AfraidMinorPerTurnInfluence?$AA@ DB 'AfraidMinorPerTur'
	DB	'nInfluence', 00H				; `string'
CONST	ENDS
;	COMDAT ??_C@_0BP@ODMELIBJ@ProtectedMinorPerTurnInfluence?$AA@
CONST	SEGMENT
??_C@_0BP@ODMELIBJ@ProtectedMinorPerTurnInfluence?$AA@ DB 'ProtectedMinor'
	DB	'PerTurnInfluence', 00H			; `string'
CONST	ENDS
;	COMDAT ??_C@_0BP@DHAEOHLB@MilitaryUnitGiftExtraInfluence?$AA@
CONST	SEGMENT
??_C@_0BP@DHAEOHLB@MilitaryUnitGiftExtraInfluence?$AA@ DB 'MilitaryUnitGi'
	DB	'ftExtraInfluence', 00H			; `string'
CONST	ENDS
;	COMDAT ??_C@_0BI@EDFKCKKD@RiggingElectionModifier?$AA@
CONST	SEGMENT
??_C@_0BI@EDFKCKKD@RiggingElectionModifier?$AA@ DB 'RiggingElectionModifi'
	DB	'er', 00H					; `string'
CONST	ENDS
;	COMDAT ??_C@_0BO@LIPLOMJF@SharedIdeologyTradeGoldChange?$AA@
CONST	SEGMENT
??_C@_0BO@LIPLOMJF@SharedIdeologyTradeGoldChange?$AA@ DB 'SharedIdeologyT'
	DB	'radeGoldChange', 00H			; `string'
CONST	ENDS
;	COMDAT ??_C@_0BN@PBNBAHDF@InternalTradeRouteGoldChange?$AA@
CONST	SEGMENT
??_C@_0BN@PBNBAHDF@InternalTradeRouteGoldChange?$AA@ DB 'InternalTradeRou'
	DB	'teGoldChange', 00H				; `string'
CONST	ENDS
;	COMDAT ??_C@_0BI@JMHDBAJE@SeaTradeRouteGoldChange?$AA@
CONST	SEGMENT
??_C@_0BI@JMHDBAJE@SeaTradeRouteGoldChange?$AA@ DB 'SeaTradeRouteGoldChan'
	DB	'ge', 00H					; `string'
CONST	ENDS
;	COMDAT ??_C@_0BJ@NPLFFGBN@LandTradeRouteGoldChange?$AA@
CONST	SEGMENT
??_C@_0BJ@NPLFFGBN@LandTradeRouteGoldChange?$AA@ DB 'LandTradeRouteGoldCh'
	DB	'ange', 00H					; `string'
CONST	ENDS
;	COMDAT ??_C@_0BO@NCHBIENE@SharedIdeologyTourismModifier?$AA@
CONST	SEGMENT
??_C@_0BO@NCHBIENE@SharedIdeologyTourismModifier?$AA@ DB 'SharedIdeologyT'
	DB	'ourismModifier', 00H			; `string'
CONST	ENDS
;	COMDAT ??_C@_0BJ@PKHFPDIL@LessHappyTourismModifier?$AA@
CONST	SEGMENT
??_C@_0BJ@PKHFPDIL@LessHappyTourismModifier?$AA@ DB 'LessHappyTourismModi'
	DB	'fier', 00H					; `string'
CONST	ENDS
;	COMDAT ??_C@_0BJ@ONGDHBAE@CommonFoeTourismModifier?$AA@
CONST	SEGMENT
??_C@_0BJ@ONGDHBAE@CommonFoeTourismModifier?$AA@ DB 'CommonFoeTourismModi'
	DB	'fier', 00H					; `string'
CONST	ENDS
;	COMDAT ??_C@_0BP@BOJEJAGP@CityStateUnitFrequencyModifier?$AA@
CONST	SEGMENT
??_C@_0BP@BOJEJAGP@CityStateUnitFrequencyModifier?$AA@ DB 'CityStateUnitF'
	DB	'requencyModifier', 00H			; `string'
CONST	ENDS
;	COMDAT ??_C@_0CE@OKMBJAKL@OtherPlayersMinorFriendshipDecay@
CONST	SEGMENT
??_C@_0CE@OKMBJAKL@OtherPlayersMinorFriendshipDecay@ DB 'OtherPlayersMino'
	DB	'rFriendshipDecayMod', 00H			; `string'
CONST	ENDS
;	COMDAT ??_C@_0BI@EBPAAEPN@MinorFriendshipDecayMod?$AA@
CONST	SEGMENT
??_C@_0BI@EBPAAEPN@MinorFriendshipDecayMod?$AA@ DB 'MinorFriendshipDecayM'
	DB	'od', 00H					; `string'
CONST	ENDS
;	COMDAT ??_C@_0BH@CNJFAHMI@MinorFriendshipMinimum?$AA@
CONST	SEGMENT
??_C@_0BH@CNJFAHMI@MinorFriendshipMinimum?$AA@ DB 'MinorFriendshipMinimum'
	DB	00H						; `string'
CONST	ENDS
;	COMDAT ??_C@_0BH@PGJKGPKO@MinorGoldFriendshipMod?$AA@
CONST	SEGMENT
??_C@_0BH@PGJKGPKO@MinorGoldFriendshipMod?$AA@ DB 'MinorGoldFriendshipMod'
	DB	00H						; `string'
CONST	ENDS
;	COMDAT ??_C@_0BI@HIEEGHEA@MinorQuestFriendshipMod?$AA@
CONST	SEGMENT
??_C@_0BI@HIEEGHEA@MinorQuestFriendshipMod?$AA@ DB 'MinorQuestFriendshipM'
	DB	'od', 00H					; `string'
CONST	ENDS
;	COMDAT ??_C@_0BE@JMMGOOCJ@ExpInBorderModifier?$AA@
CONST	SEGMENT
??_C@_0BE@JMMGOOCJ@ExpInBorderModifier?$AA@ DB 'ExpInBorderModifier', 00H ; `string'
CONST	ENDS
;	COMDAT ??_C@_0M@OLBPIHKG@ExpModifier?$AA@
CONST	SEGMENT
??_C@_0M@OLBPIHKG@ExpModifier?$AA@ DB 'ExpModifier', 00H ; `string'
CONST	ENDS
;	COMDAT ??_C@_0P@ONAKJGND@FreeSpecialist?$AA@
CONST	SEGMENT
??_C@_0P@ONAKJGND@FreeSpecialist?$AA@ DB 'FreeSpecialist', 00H ; `string'
CONST	ENDS
;	COMDAT ??_C@_0BI@FBAEOHNO@GarrisonFreeMaintenance?$AA@
CONST	SEGMENT
??_C@_0BI@FBAEOHNO@GarrisonFreeMaintenance?$AA@ DB 'GarrisonFreeMaintenan'
	DB	'ce', 00H					; `string'
CONST	ENDS
;	COMDAT ??_C@_0BC@DOIJCEHM@RevealAllCapitals?$AA@
CONST	SEGMENT
??_C@_0BC@DOIJCEHM@RevealAllCapitals?$AA@ DB 'RevealAllCapitals', 00H ; `string'
CONST	ENDS
;	COMDAT ??_C@_0BD@MDAIKGML@AlwaysSeeBarbCamps?$AA@
CONST	SEGMENT
??_C@_0BD@MDAIKGML@AlwaysSeeBarbCamps?$AA@ DB 'AlwaysSeeBarbCamps', 00H ; `string'
CONST	ENDS
;	COMDAT ??_C@_0BF@HFMOGHPJ@BarbarianCombatBonus?$AA@
CONST	SEGMENT
??_C@_0BF@HFMOGHPJ@BarbarianCombatBonus?$AA@ DB 'BarbarianCombatBonus', 00H ; `string'
CONST	ENDS
;	COMDAT ??_C@_0BD@GBJLPLCI@UnitUpgradeCostMod?$AA@
CONST	SEGMENT
??_C@_0BD@GBJLPLCI@UnitUpgradeCostMod?$AA@ DB 'UnitUpgradeCostMod', 00H ; `string'
CONST	ENDS
;	COMDAT ??_C@_0BF@HBALDEPJ@WoundedUnitDamageMod?$AA@
CONST	SEGMENT
??_C@_0BF@HBALDEPJ@WoundedUnitDamageMod?$AA@ DB 'WoundedUnitDamageMod', 00H ; `string'
CONST	ENDS
;	COMDAT ??_C@_0N@EHHEPDOA@MaxConscript?$AA@
CONST	SEGMENT
??_C@_0N@EHHEPDOA@MaxConscript?$AA@ DB 'MaxConscript', 00H ; `string'
CONST	ENDS
;	COMDAT ??_C@_0BH@PINGGCAG@MilitaryFoodProduction?$AA@
CONST	SEGMENT
??_C@_0BH@PINGGCAG@MilitaryFoodProduction?$AA@ DB 'MilitaryFoodProduction'
	DB	00H						; `string'
CONST	ENDS
;	COMDAT ??_C@_0BD@HOBGLLL@HalfSpecialistFood?$AA@
CONST	SEGMENT
??_C@_0BD@HOBGLLL@HalfSpecialistFood?$AA@ DB 'HalfSpecialistFood', 00H ; `string'
CONST	ENDS
;	COMDAT ??_C@_0BO@JCLIINCC@HalfMoreSpecialistUnhappiness?$AA@
CONST	SEGMENT
??_C@_0BO@JCLIINCC@HalfMoreSpecialistUnhappiness?$AA@ DB 'HalfMoreSpecial'
	DB	'istUnhappiness', 00H			; `string'
CONST	ENDS
;	COMDAT ??_C@_0BK@MNPNKBOH@HalfSpecialistUnhappiness?$AA@
CONST	SEGMENT
??_C@_0BK@MNPNKBOH@HalfSpecialistUnhappiness?$AA@ DB 'HalfSpecialistUnhap'
	DB	'piness', 00H				; `string'
CONST	ENDS
;	COMDAT ??_C@_0BK@KFJBPGNL@NumCitiesFreeFoodBuilding?$AA@
CONST	SEGMENT
??_C@_0BK@KFJBPGNL@NumCitiesFreeFoodBuilding?$AA@ DB 'NumCitiesFreeFoodBu'
	DB	'ilding', 00H				; `string'
CONST	ENDS
;	COMDAT ??_C@_0BN@FIEHLJMJ@NumCitiesFreeCultureBuilding?$AA@
CONST	SEGMENT
??_C@_0BN@FIEHLJMJ@NumCitiesFreeCultureBuilding?$AA@ DB 'NumCitiesFreeCul'
	DB	'tureBuilding', 00H				; `string'
CONST	ENDS
;	COMDAT ??_C@_0BD@KDKHHJEK@NumCitiesFreeWalls?$AA@
CONST	SEGMENT
??_C@_0BD@KDKHHJEK@NumCitiesFreeWalls?$AA@ DB 'NumCitiesFreeWalls', 00H ; `string'
CONST	ENDS
;	COMDAT ??_C@_0BK@JOIILMDO@NumCitiesFreePietyGardens?$AA@
CONST	SEGMENT
??_C@_0BK@JOIILMDO@NumCitiesFreePietyGardens?$AA@ DB 'NumCitiesFreePietyG'
	DB	'ardens', 00H				; `string'
CONST	ENDS
;	COMDAT ??_C@_0BP@ELCFNBD@NumCitiesFreeAestheticsSchools?$AA@
CONST	SEGMENT
??_C@_0BP@ELCFNBD@NumCitiesFreeAestheticsSchools?$AA@ DB 'NumCitiesFreeAe'
	DB	'stheticsSchools', 00H			; `string'
CONST	ENDS
;	COMDAT ??_C@_0O@ELPPBGEP@GoldToScience?$AA@
CONST	SEGMENT
??_C@_0O@ELPPBGEP@GoldToScience?$AA@ DB 'GoldToScience', 00H ; `string'
CONST	ENDS
;	COMDAT ??_C@_0BD@CDMOEEGG@HappinessToScience?$AA@
CONST	SEGMENT
??_C@_0BD@CDMOEEGG@HappinessToScience?$AA@ DB 'HappinessToScience', 00H ; `string'
CONST	ENDS
;	COMDAT ??_C@_0BD@MMMKOKOB@HappinessToCulture?$AA@
CONST	SEGMENT
??_C@_0BD@MMMKOKOB@HappinessToCulture?$AA@ DB 'HappinessToCulture', 00H ; `string'
CONST	ENDS
;	COMDAT ??_C@_0BF@NKCDCBLE@HappyPerMilitaryUnit?$AA@
CONST	SEGMENT
??_C@_0BF@NKCDCBLE@HappyPerMilitaryUnit?$AA@ DB 'HappyPerMilitaryUnit', 00H ; `string'
CONST	ENDS
;	COMDAT ??_C@_0O@IKEGJHGF@UnitSupplyMod?$AA@
CONST	SEGMENT
??_C@_0O@IKEGJHGF@UnitSupplyMod?$AA@ DB 'UnitSupplyMod', 00H ; `string'
CONST	ENDS
;	COMDAT ??_C@_0BH@GPCCGJFH@UnitGoldMaintenanceMod?$AA@
CONST	SEGMENT
??_C@_0BH@GPCCGJFH@UnitGoldMaintenanceMod?$AA@ DB 'UnitGoldMaintenanceMod'
	DB	00H						; `string'
CONST	ENDS
;	COMDAT ??_C@_0BL@GOKAHANB@BuildingGoldMaintenanceMod?$AA@
CONST	SEGMENT
??_C@_0BL@GOKAHANB@BuildingGoldMaintenanceMod?$AA@ DB 'BuildingGoldMainte'
	DB	'nanceMod', 00H				; `string'
CONST	ENDS
;	COMDAT ??_C@_0BI@JPCPBJHC@RouteGoldMaintenanceMod?$AA@
CONST	SEGMENT
??_C@_0BI@JPCPBJHC@RouteGoldMaintenanceMod?$AA@ DB 'RouteGoldMaintenanceM'
	DB	'od', 00H					; `string'
CONST	ENDS
;	COMDAT ??_C@_0M@EOGMLPFM@FreeFoodBox?$AA@
CONST	SEGMENT
??_C@_0M@EOGMLPFM@FreeFoodBox?$AA@ DB 'FreeFoodBox', 00H ; `string'
CONST	ENDS
;	COMDAT ??_C@_0BH@PDNAFCEG@NewCityExtraPopulation?$AA@
CONST	SEGMENT
??_C@_0BH@PDNAFCEG@NewCityExtraPopulation?$AA@ DB 'NewCityExtraPopulation'
	DB	00H						; `string'
CONST	ENDS
;	COMDAT ??_C@_0CB@MIGPIJHP@CapitalSettlerProductionModifier@
CONST	SEGMENT
??_C@_0CB@MIGPIJHP@CapitalSettlerProductionModifier@ DB 'CapitalSettlerPr'
	DB	'oductionModifier', 00H			; `string'
CONST	ENDS
;	COMDAT ??_C@_0BK@KEMFJDHB@SettlerProductionModifier?$AA@
CONST	SEGMENT
??_C@_0BK@KEMFJDHB@SettlerProductionModifier?$AA@ DB 'SettlerProductionMo'
	DB	'difier', 00H				; `string'
CONST	ENDS
;	COMDAT ??_C@_0BB@IIOEMOFG@CapitalGrowthMod?$AA@
CONST	SEGMENT
??_C@_0BB@IIOEMOFG@CapitalGrowthMod?$AA@ DB 'CapitalGrowthMod', 00H ; `string'
CONST	ENDS
;	COMDAT ??_C@_0O@KIHLCIGE@CityGrowthMod?$AA@
CONST	SEGMENT
??_C@_0O@KIHLCIGE@CityGrowthMod?$AA@ DB 'CityGrowthMod', 00H ; `string'
CONST	ENDS
;	COMDAT ??_C@_0BA@JGKPMHDI@CityStrengthMod?$AA@
CONST	SEGMENT
??_C@_0BA@JGKPMHDI@CityStrengthMod?$AA@ DB 'CityStrengthMod', 00H ; `string'
CONST	ENDS
;	COMDAT ??_C@_0BE@LMFGEEFC@GoldPerMilitaryUnit?$AA@
CONST	SEGMENT
??_C@_0BE@LMFGEEFC@GoldPerMilitaryUnit?$AA@ DB 'GoldPerMilitaryUnit', 00H ; `string'
CONST	ENDS
;	COMDAT ??_C@_0M@CELEIBNP@GoldPerUnit?$AA@
CONST	SEGMENT
??_C@_0M@CELEIBNP@GoldPerUnit?$AA@ DB 'GoldPerUnit', 00H ; `string'
CONST	ENDS
;	COMDAT ??_C@_0BD@FEHHPDEP@CatchSpiesModifier?$AA@
CONST	SEGMENT
??_C@_0BD@FEHHPDEP@CatchSpiesModifier?$AA@ DB 'CatchSpiesModifier', 00H ; `string'
CONST	ENDS
;	COMDAT ??_C@_0BI@PDPCGKIO@StealTechFasterModifier?$AA@
CONST	SEGMENT
??_C@_0BI@PDPCGKIO@StealTechFasterModifier?$AA@ DB 'StealTechFasterModifi'
	DB	'er', 00H					; `string'
CONST	ENDS
;	COMDAT ??_C@_0BI@GKMOPGMA@StealTechSlowerModifier?$AA@
CONST	SEGMENT
??_C@_0BI@GKMOPGMA@StealTechSlowerModifier?$AA@ DB 'StealTechSlowerModifi'
	DB	'er', 00H					; `string'
CONST	ENDS
;	COMDAT ??_C@_0BK@FGEFNEAF@CulturalPlunderMultiplier?$AA@
CONST	SEGMENT
??_C@_0BK@FGEFNEAF@CulturalPlunderMultiplier?$AA@ DB 'CulturalPlunderMult'
	DB	'iplier', 00H				; `string'
CONST	ENDS
;	COMDAT ??_C@_0BC@LIHGJKGH@FaithCostModifier?$AA@
CONST	SEGMENT
??_C@_0BC@LIHGJKGH@FaithCostModifier?$AA@ DB 'FaithCostModifier', 00H ; `string'
CONST	ENDS
;	COMDAT ??_C@_0BJ@OGAAKMBL@TradeMissionGoldModifier?$AA@
CONST	SEGMENT
??_C@_0BJ@OGAAKMBL@TradeMissionGoldModifier?$AA@ DB 'TradeMissionGoldModi'
	DB	'fier', 00H					; `string'
CONST	ENDS
;	COMDAT ??_C@_0CF@CKGIHFME@CityConnectionTradeRouteGoldModi@
CONST	SEGMENT
??_C@_0CF@CKGIHFME@CityConnectionTradeRouteGoldModi@ DB 'CityConnectionTr'
	DB	'adeRouteGoldModifier', 00H			; `string'
CONST	ENDS
;	COMDAT ??_C@_0BN@MDJBNLIP@BuildingPurchaseCostModifier?$AA@
CONST	SEGMENT
??_C@_0BN@MDJBNLIP@BuildingPurchaseCostModifier?$AA@ DB 'BuildingPurchase'
	DB	'CostModifier', 00H				; `string'
CONST	ENDS
;	COMDAT ??_C@_0BJ@MKCDENAA@UnitPurchaseCostModifier?$AA@
CONST	SEGMENT
??_C@_0BJ@MKCDENAA@UnitPurchaseCostModifier?$AA@ DB 'UnitPurchaseCostModi'
	DB	'fier', 00H					; `string'
CONST	ENDS
;	COMDAT ??_C@_0CC@ELHNOAEL@GarrisonedCityRangeStrikeModifie@
CONST	SEGMENT
??_C@_0CC@ELHNOAEL@GarrisonedCityRangeStrikeModifie@ DB 'GarrisonedCityRa'
	DB	'ngeStrikeModifier', 00H			; `string'
CONST	ENDS
;	COMDAT ??_C@_0BO@MEMOKKJL@NumCitiesResearchCostDiscount?$AA@
CONST	SEGMENT
??_C@_0BO@MEMOKKJL@NumCitiesResearchCostDiscount?$AA@ DB 'NumCitiesResear'
	DB	'chCostDiscount', 00H			; `string'
CONST	ENDS
;	COMDAT ??_C@_0BM@COIEECHE@NumCitiesPolicyCostDiscount?$AA@
CONST	SEGMENT
??_C@_0BM@COIEECHE@NumCitiesPolicyCostDiscount?$AA@ DB 'NumCitiesPolicyCo'
	DB	'stDiscount', 00H				; `string'
CONST	ENDS
;	COMDAT ??_C@_0BM@FKOPEKNC@PlotCultureExponentModifier?$AA@
CONST	SEGMENT
??_C@_0BM@FKOPEKNC@PlotCultureExponentModifier?$AA@ DB 'PlotCultureExpone'
	DB	'ntModifier', 00H				; `string'
CONST	ENDS
;	COMDAT ??_C@_0BI@CCICLKEE@PlotCultureCostModifier?$AA@
CONST	SEGMENT
??_C@_0BI@CCICLKEE@PlotCultureCostModifier?$AA@ DB 'PlotCultureCostModifi'
	DB	'er', 00H					; `string'
CONST	ENDS
;	COMDAT ??_C@_0BA@EBDNNHOP@PlotGoldCostMod?$AA@
CONST	SEGMENT
??_C@_0BA@EBDNNHOP@PlotGoldCostMod?$AA@ DB 'PlotGoldCostMod', 00H ; `string'
CONST	ENDS
;	COMDAT ??_C@_0BB@ONFGPAJH@NumExtraBuilders?$AA@
CONST	SEGMENT
??_C@_0BB@ONFGPAJH@NumExtraBuilders?$AA@ DB 'NumExtraBuilders', 00H ; `string'
CONST	ENDS
;	COMDAT ??_C@_0BI@IMKGJEKK@UnhappinessFromUnitsMod?$AA@
CONST	SEGMENT
??_C@_0BI@IMKGJEKK@UnhappinessFromUnitsMod?$AA@ DB 'UnhappinessFromUnitsM'
	DB	'od', 00H					; `string'
CONST	ENDS
;	COMDAT ??_C@_0BI@KDPCJKIO@ExtraHappinessPerLuxury?$AA@
CONST	SEGMENT
??_C@_0BI@KDPCJKIO@ExtraHappinessPerLuxury?$AA@ DB 'ExtraHappinessPerLuxu'
	DB	'ry', 00H					; `string'
CONST	ENDS
;	COMDAT ??_C@_0BI@EKOONHKP@HappinessPerXPopulation?$AA@
CONST	SEGMENT
??_C@_0BI@EKOONHKP@HappinessPerXPopulation?$AA@ DB 'HappinessPerXPopulati'
	DB	'on', 00H					; `string'
CONST	ENDS
;	COMDAT ??_C@_0BL@NOANKODL@HappinessPerRailConnection?$AA@
CONST	SEGMENT
??_C@_0BL@NOANKODL@HappinessPerRailConnection?$AA@ DB 'HappinessPerRailCo'
	DB	'nnection', 00H				; `string'
CONST	ENDS
;	COMDAT ??_C@_0BH@FKMKPMOM@HappinessPerTradeRoute?$AA@
CONST	SEGMENT
??_C@_0BH@FKMKPMOM@HappinessPerTradeRoute?$AA@ DB 'HappinessPerTradeRoute'
	DB	00H						; `string'
CONST	ENDS
;	COMDAT ??_C@_0BJ@JGKBABME@CulturePerGarrisonedUnit?$AA@
CONST	SEGMENT
??_C@_0BJ@JGKBABME@CulturePerGarrisonedUnit?$AA@ DB 'CulturePerGarrisoned'
	DB	'Unit', 00H					; `string'
CONST	ENDS
;	COMDAT ??_C@_0BL@JJAGICMO@HappinessPerGarrisonedUnit?$AA@
CONST	SEGMENT
??_C@_0BL@JJAGICMO@HappinessPerGarrisonedUnit?$AA@ DB 'HappinessPerGarris'
	DB	'onedUnit', 00H				; `string'
CONST	ENDS
;	COMDAT ??_C@_0CD@HCLGJPMG@FreeMilitaryUnitsPopulationPerce@
CONST	SEGMENT
??_C@_0CD@HCLGJPMG@FreeMilitaryUnitsPopulationPerce@ DB 'FreeMilitaryUnit'
	DB	'sPopulationPercent', 00H			; `string'
CONST	ENDS
;	COMDAT ??_C@_0BL@OICFPJHJ@FreeUnitsPopulationPercent?$AA@
CONST	SEGMENT
??_C@_0BL@OICFPJHJ@FreeUnitsPopulationPercent?$AA@ DB 'FreeUnitsPopulatio'
	DB	'nPercent', 00H				; `string'
CONST	ENDS
;	COMDAT ??_C@_0BG@HNNABIFD@BaseFreeMilitaryUnits?$AA@
CONST	SEGMENT
??_C@_0BG@HNNABIFD@BaseFreeMilitaryUnits?$AA@ DB 'BaseFreeMilitaryUnits', 00H ; `string'
CONST	ENDS
;	COMDAT ??_C@_0O@EIFAIMLA@BaseFreeUnits?$AA@
CONST	SEGMENT
??_C@_0O@EIFAIMLA@BaseFreeUnits?$AA@ DB 'BaseFreeUnits', 00H ; `string'
CONST	ENDS
;	COMDAT ??_C@_0BL@DFCFJKDP@MilitaryProductionModifier?$AA@
CONST	SEGMENT
??_C@_0BL@DFCFJKDP@MilitaryProductionModifier?$AA@ DB 'MilitaryProduction'
	DB	'Modifier', 00H				; `string'
CONST	ENDS
;	COMDAT ??_C@_0BK@CFFAKCBM@SpecialistUpgradeModifier?$AA@
CONST	SEGMENT
??_C@_0BK@CFFAKCBM@SpecialistUpgradeModifier?$AA@ DB 'SpecialistUpgradeMo'
	DB	'difier', 00H				; `string'
CONST	ENDS
;	COMDAT ??_C@_0BN@BCNFIGMF@SpecialistProductionModifier?$AA@
CONST	SEGMENT
??_C@_0BN@BCNFIGMF@SpecialistProductionModifier?$AA@ DB 'SpecialistProduc'
	DB	'tionModifier', 00H				; `string'
CONST	ENDS
;	COMDAT ??_C@_0BP@HAEEHIKP@ImprovementUpgradeRateModifier?$AA@
CONST	SEGMENT
??_C@_0BP@HAEEHIKP@ImprovementUpgradeRateModifier?$AA@ DB 'ImprovementUpg'
	DB	'radeRateModifier', 00H			; `string'
CONST	ENDS
;	COMDAT ??_C@_0BI@OOJHBKNI@ImprovementCostModifier?$AA@
CONST	SEGMENT
??_C@_0BI@OOJHBKNI@ImprovementCostModifier?$AA@ DB 'ImprovementCostModifi'
	DB	'er', 00H					; `string'
CONST	ENDS
;	COMDAT ??_C@_0BF@BBFBLGII@AllFeatureProduction?$AA@
CONST	SEGMENT
??_C@_0BF@BBFBLGII@AllFeatureProduction?$AA@ DB 'AllFeatureProduction', 00H ; `string'
CONST	ENDS
;	COMDAT ??_C@_0BE@NGOPBNAB@WorkerSpeedModifier?$AA@
CONST	SEGMENT
??_C@_0BE@NGOPBNAB@WorkerSpeedModifier?$AA@ DB 'WorkerSpeedModifier', 00H ; `string'
CONST	ENDS
;	COMDAT ??_C@_0P@MOBEEGOH@FreeExperience?$AA@
CONST	SEGMENT
??_C@_0P@MOBEEGOH@FreeExperience?$AA@ DB 'FreeExperience', 00H ; `string'
CONST	ENDS
;	COMDAT ??_C@_0BG@GLEFCJIP@CapitalUnhappinessMod?$AA@
CONST	SEGMENT
??_C@_0BG@GLEFCJIP@CapitalUnhappinessMod?$AA@ DB 'CapitalUnhappinessMod', 00H ; `string'
CONST	ENDS
;	COMDAT ??_C@_0CB@MDKPLGNJ@OccupiedPopulationUnhappinessMod@
CONST	SEGMENT
??_C@_0CB@MDKPLGNJ@OccupiedPopulationUnhappinessMod@ DB 'OccupiedPopulati'
	DB	'onUnhappinessMod', 00H			; `string'
CONST	ENDS
;	COMDAT ??_C@_0BI@NMIGNJMC@CityCountUnhappinessMod?$AA@
CONST	SEGMENT
??_C@_0BI@NMIGNJMC@CityCountUnhappinessMod?$AA@ DB 'CityCountUnhappinessM'
	DB	'od', 00H					; `string'
CONST	ENDS
;	COMDAT ??_C@_0P@MJJHCDCN@UnhappinessMod?$AA@
CONST	SEGMENT
??_C@_0P@MJJHCDCN@UnhappinessMod?$AA@ DB 'UnhappinessMod', 00H ; `string'
CONST	ENDS
;	COMDAT ??_C@_0BG@BNECOPBF@ExtraHappinessPerCity?$AA@
CONST	SEGMENT
??_C@_0BG@BNECOPBF@ExtraHappinessPerCity?$AA@ DB 'ExtraHappinessPerCity', 00H ; `string'
CONST	ENDS
;	COMDAT ??_C@_0P@PKOJCLKH@ExtraHappiness?$AA@
CONST	SEGMENT
??_C@_0P@PKOJCLKH@ExtraHappiness?$AA@ DB 'ExtraHappiness', 00H ; `string'
CONST	ENDS
;	COMDAT ??_C@_0CB@PIKCEEAD@DomesticGreatGeneralRateModifier@
CONST	SEGMENT
??_C@_0CB@PIKCEEAD@DomesticGreatGeneralRateModifier@ DB 'DomesticGreatGen'
	DB	'eralRateModifier', 00H			; `string'
CONST	ENDS
;	COMDAT ??_C@_0BL@JEHMMHCB@GreatScientistRateModifier?$AA@
CONST	SEGMENT
??_C@_0BL@JEHMMHCB@GreatScientistRateModifier?$AA@ DB 'GreatScientistRate'
	DB	'Modifier', 00H				; `string'
CONST	ENDS
;	COMDAT ??_C@_0BK@EFBINBKL@GreatMerchantRateModifier?$AA@
CONST	SEGMENT
??_C@_0BK@EFBINBKL@GreatMerchantRateModifier?$AA@ DB 'GreatMerchantRateMo'
	DB	'difier', 00H				; `string'
CONST	ENDS
;	COMDAT ??_C@_0BK@EGCNJBGG@GreatMusicianRateModifier?$AA@
CONST	SEGMENT
??_C@_0BK@EGCNJBGG@GreatMusicianRateModifier?$AA@ DB 'GreatMusicianRateMo'
	DB	'difier', 00H				; `string'
CONST	ENDS
;	COMDAT ??_C@_0BI@EDMONEDH@GreatArtistRateModifier?$AA@
CONST	SEGMENT
??_C@_0BI@EDMONEDH@GreatArtistRateModifier?$AA@ DB 'GreatArtistRateModifi'
	DB	'er', 00H					; `string'
CONST	ENDS
;	COMDAT ??_C@_0BI@LJIIKCIN@GreatWriterRateModifier?$AA@
CONST	SEGMENT
??_C@_0BI@LJIIKCIN@GreatWriterRateModifier?$AA@ DB 'GreatWriterRateModifi'
	DB	'er', 00H					; `string'
CONST	ENDS
;	COMDAT ??_C@_0BJ@OJPABOPK@GreatAdmiralRateModifier?$AA@
CONST	SEGMENT
??_C@_0BJ@OJPABOPK@GreatAdmiralRateModifier?$AA@ DB 'GreatAdmiralRateModi'
	DB	'fier', 00H					; `string'
CONST	ENDS
;	COMDAT ??_C@_0BJ@MFKPLGEE@GreatGeneralRateModifier?$AA@
CONST	SEGMENT
??_C@_0BJ@MFKPLGEE@GreatGeneralRateModifier?$AA@ DB 'GreatGeneralRateModi'
	DB	'fier', 00H					; `string'
CONST	ENDS
;	COMDAT ??_C@_0BI@DKDDAFPG@GreatPeopleRateModifier?$AA@
CONST	SEGMENT
??_C@_0BI@DKDDAFPG@GreatPeopleRateModifier?$AA@ DB 'GreatPeopleRateModifi'
	DB	'er', 00H					; `string'
CONST	ENDS
;	COMDAT ??_C@_0BL@HLGIJEIL@BuildingProductionModifier?$AA@
CONST	SEGMENT
??_C@_0BL@HLGIJEIL@BuildingProductionModifier?$AA@ DB 'BuildingProduction'
	DB	'Modifier', 00H				; `string'
CONST	ENDS
;	COMDAT ??_C@_0BJ@KGAAGHKI@WonderProductionModifier?$AA@
CONST	SEGMENT
??_C@_0BJ@KGAAGHKI@WonderProductionModifier?$AA@ DB 'WonderProductionModi'
	DB	'fier', 00H					; `string'
CONST	ENDS
;	COMDAT ??_C@_0BF@OHPDEMNG@StrategicResourceMod?$AA@
CONST	SEGMENT
??_C@_0BF@OHPDEMNG@StrategicResourceMod?$AA@ DB 'StrategicResourceMod', 00H ; `string'
CONST	ENDS
;	COMDAT ??_C@_0BI@COMEBICJ@MedianTechPercentChange?$AA@
CONST	SEGMENT
??_C@_0BI@COMEBICJ@MedianTechPercentChange?$AA@ DB 'MedianTechPercentChan'
	DB	'ge', 00H					; `string'
CONST	ENDS
;	COMDAT ??_C@_0O@OGNCLEHN@NumExtraSpies?$AA@
CONST	SEGMENT
??_C@_0O@OGNCLEHN@NumExtraSpies?$AA@ DB 'NumExtraSpies', 00H ; `string'
CONST	ENDS
;	COMDAT ??_C@_0BD@JMFDFLLL@NumFreeGreatPeople?$AA@
CONST	SEGMENT
??_C@_0BD@JMFDFLLL@NumFreeGreatPeople?$AA@ DB 'NumFreeGreatPeople', 00H ; `string'
CONST	ENDS
;	COMDAT ??_C@_0BA@BKNGJGHF@NumFreePolicies?$AA@
CONST	SEGMENT
??_C@_0BA@BKNGJGHF@NumFreePolicies?$AA@ DB 'NumFreePolicies', 00H ; `string'
CONST	ENDS
;	COMDAT ??_C@_0N@DBLFACAI@NumFreeTechs?$AA@
CONST	SEGMENT
??_C@_0N@DBLFACAI@NumFreeTechs?$AA@ DB 'NumFreeTechs', 00H ; `string'
CONST	ENDS
;	COMDAT ??_C@_0BF@MHEADKKO@GoldenAgeDurationMod?$AA@
CONST	SEGMENT
??_C@_0BF@MHEADKKO@GoldenAgeDurationMod?$AA@ DB 'GoldenAgeDurationMod', 00H ; `string'
CONST	ENDS
;	COMDAT ??_C@_0BC@GGDDOBLH@GoldenAgeMeterMod?$AA@
CONST	SEGMENT
??_C@_0BC@GGDDOBLH@GoldenAgeMeterMod?$AA@ DB 'GoldenAgeMeterMod', 00H ; `string'
CONST	ENDS
;	COMDAT ??_C@_0P@BJCGNFDJ@GoldenAgeTurns?$AA@
CONST	SEGMENT
??_C@_0P@BJCGNFDJ@GoldenAgeTurns?$AA@ DB 'GoldenAgeTurns', 00H ; `string'
CONST	ENDS
;	COMDAT ??_C@_0BB@LCLFIBJM@AttackBonusTurns?$AA@
CONST	SEGMENT
??_C@_0BB@LCLFIBJM@AttackBonusTurns?$AA@ DB 'AttackBonusTurns', 00H ; `string'
CONST	ENDS
;	COMDAT ??_C@_0BD@KHNGHMJB@EmbarkedExtraMoves?$AA@
CONST	SEGMENT
??_C@_0BD@KHNGHMJB@EmbarkedExtraMoves?$AA@ DB 'EmbarkedExtraMoves', 00H ; `string'
CONST	ENDS
;	COMDAT ??_C@_0BB@OCLFMNEB@ScienceFromKills?$AA@
CONST	SEGMENT
??_C@_0BB@OCLFMNEB@ScienceFromKills?$AA@ DB 'ScienceFromKills', 00H ; `string'
CONST	ENDS
;	COMDAT ??_C@_0O@IFCPKMIO@GoldFromKills?$AA@
CONST	SEGMENT
??_C@_0O@IFCPKMIO@GoldFromKills?$AA@ DB 'GoldFromKills', 00H ; `string'
CONST	ENDS
;	COMDAT ??_C@_0BK@DICAPLG@CultureFromBarbarianKills?$AA@
CONST	SEGMENT
??_C@_0BK@DICAPLG@CultureFromBarbarianKills?$AA@ DB 'CultureFromBarbarian'
	DB	'Kills', 00H					; `string'
CONST	ENDS
;	COMDAT ??_C@_0BB@EMBLNIDN@CultureFromKills?$AA@
CONST	SEGMENT
??_C@_0BB@EMBLNIDN@CultureFromKills?$AA@ DB 'CultureFromKills', 00H ; `string'
CONST	ENDS
;	COMDAT ??_C@_0BJ@BLBDGMPP@CultureImprovementChange?$AA@
CONST	SEGMENT
??_C@_0BJ@BLBDGMPP@CultureImprovementChange?$AA@ DB 'CultureImprovementCh'
	DB	'ange', 00H					; `string'
CONST	ENDS
;	COMDAT ??_C@_0BJ@KNLKNLF@CulturePerTechResearched?$AA@
CONST	SEGMENT
??_C@_0BJ@KNLKNLF@CulturePerTechResearched?$AA@ DB 'CulturePerTechResearc'
	DB	'hed', 00H					; `string'
CONST	ENDS
;	COMDAT ??_C@_0BI@DGDBMDFC@CultureWonderMultiplier?$AA@
CONST	SEGMENT
??_C@_0BI@DGDBMDFC@CultureWonderMultiplier?$AA@ DB 'CultureWonderMultipli'
	DB	'er', 00H					; `string'
CONST	ENDS
;	COMDAT ??_C@_0BB@LIMEGBNN@CulturePerWonder?$AA@
CONST	SEGMENT
??_C@_0BB@LIMEGBNN@CulturePerWonder?$AA@ DB 'CulturePerWonder', 00H ; `string'
CONST	ENDS
;	COMDAT ??_C@_0P@HLGECCII@CulturePerCity?$AA@
CONST	SEGMENT
??_C@_0P@HLGECCII@CulturePerCity?$AA@ DB 'CulturePerCity', 00H ; `string'
CONST	ENDS
;	COMDAT ??_C@_0BD@MIAKAFOH@PolicyCostModifier?$AA@
CONST	SEGMENT
??_C@_0BD@MIAKAFOH@PolicyCostModifier?$AA@ DB 'PolicyCostModifier', 00H ; `string'
CONST	ENDS
;	COMDAT ??_C@_05KOHFLOFG@Level?$AA@
CONST	SEGMENT
??_C@_05KOHFLOFG@Level?$AA@ DB 'Level', 00H		; `string'
CONST	ENDS
;	COMDAT ??_C@_05LNPLOKEP@GridY?$AA@
CONST	SEGMENT
??_C@_05LNPLOKEP@GridY?$AA@ DB 'GridY', 00H		; `string'
CONST	ENDS
;	COMDAT ??_C@_05KEOANLAO@GridX?$AA@
CONST	SEGMENT
??_C@_05KEOANLAO@GridX?$AA@ DB 'GridX', 00H		; `string'
CONST	ENDS
;	COMDAT ??_C@_0M@IMLKLLCO@CultureCost?$AA@
CONST	SEGMENT
??_C@_0M@IMLKLLCO@CultureCost?$AA@ DB 'CultureCost', 00H ; `string'
CONST	ENDS
;	COMDAT xdata$x
xdata$x	SEGMENT
__ehfuncinfo$?CacheResults@CvPolicyEntry@@UAE_NAAVResults@Database@@AAVCvDatabaseUtility@@@Z DD 019930522H
	DD	0aH
	DD	FLAT:__unwindtable$?CacheResults@CvPolicyEntry@@UAE_NAAVResults@Database@@AAVCvDatabaseUtility@@@Z
	DD	2 DUP(00H)
	DD	2 DUP(00H)
	DD	00H
	DD	01H
__unwindtable$?CacheResults@CvPolicyEntry@@UAE_NAAVResults@Database@@AAVCvDatabaseUtility@@@Z DD 0ffffffffH
	DD	FLAT:__unwindfunclet$?CacheResults@CvPolicyEntry@@UAE_NAAVResults@Database@@AAVCvDatabaseUtility@@@Z$0
	DD	0ffffffffH
	DD	FLAT:__unwindfunclet$?CacheResults@CvPolicyEntry@@UAE_NAAVResults@Database@@AAVCvDatabaseUtility@@@Z$1
	DD	0ffffffffH
	DD	FLAT:__unwindfunclet$?CacheResults@CvPolicyEntry@@UAE_NAAVResults@Database@@AAVCvDatabaseUtility@@@Z$2
	DD	0ffffffffH
	DD	FLAT:__unwindfunclet$?CacheResults@CvPolicyEntry@@UAE_NAAVResults@Database@@AAVCvDatabaseUtility@@@Z$3
	DD	0ffffffffH
	DD	FLAT:__unwindfunclet$?CacheResults@CvPolicyEntry@@UAE_NAAVResults@Database@@AAVCvDatabaseUtility@@@Z$4
	DD	0ffffffffH
	DD	FLAT:__unwindfunclet$?CacheResults@CvPolicyEntry@@UAE_NAAVResults@Database@@AAVCvDatabaseUtility@@@Z$5
	DD	0ffffffffH
	DD	FLAT:__unwindfunclet$?CacheResults@CvPolicyEntry@@UAE_NAAVResults@Database@@AAVCvDatabaseUtility@@@Z$6
	DD	0ffffffffH
	DD	FLAT:__unwindfunclet$?CacheResults@CvPolicyEntry@@UAE_NAAVResults@Database@@AAVCvDatabaseUtility@@@Z$7
	DD	07H
	DD	FLAT:__unwindfunclet$?CacheResults@CvPolicyEntry@@UAE_NAAVResults@Database@@AAVCvDatabaseUtility@@@Z$8
	DD	07H
	DD	FLAT:__unwindfunclet$?CacheResults@CvPolicyEntry@@UAE_NAAVResults@Database@@AAVCvDatabaseUtility@@@Z$19
; Function compile flags: /Odtp
; File d:\sources\lekmod_git\checkout\lekmod_dll\cvgamecoredll_expansion2\cvpolicyclasses.cpp
xdata$x	ENDS
;	COMDAT ?CacheResults@CvPolicyEntry@@UAE_NAAVResults@Database@@AAVCvDatabaseUtility@@@Z
_TEXT	SEGMENT
tv1572 = -1076						; size = 4
tv1765 = -1072						; size = 4
_this$ = -1068						; size = 4
$T231673 = -460						; size = 8
_count$231469 = -436					; size = 4
_count$231462 = -424					; size = 4
_count$231455 = -412					; size = 4
$T231442 = -408						; size = 4
$T231441 = -404						; size = 4
$T231437 = -400						; size = 4
$T231433 = -396						; size = 4
$T231432 = -392						; size = 4
$T231417 = -388						; size = 12
$T231416 = -376						; size = 4
$T231415 = -372						; size = 8
$T231414 = -364						; size = 8
$T231413 = -356						; size = 28
_UnitPromotionID$223420 = -328				; size = 4
_UnitCombatInfoID$223421 = -324				; size = 4
_szSQL$223415 = -320					; size = 4
_pResults$223413 = -316					; size = 4
_sqlKey$223411 = -312					; size = 28
_szSQL$223405 = -284					; size = 4
_pResults$223403 = -280					; size = 4
_sqlKey$223401 = -276					; size = 28
_i$223407 = -248					; size = 4
_szSQL$223394 = -244					; size = 4
_pResults$223392 = -240					; size = 4
_sqlKey$223390 = -236					; size = 28
_i$223396 = -208					; size = 4
_szSQL$223383 = -204					; size = 4
_pResults$223381 = -200					; size = 4
_sqlKey$223379 = -196					; size = 28
_i$223385 = -168					; size = 4
_yield$223369 = -164					; size = 4
_ImprovementID$223367 = -160				; size = 4
_YieldID$223368 = -156					; size = 4
_pResults$223361 = -152					; size = 4
_strKey$223359 = -148					; size = 28
_iYieldChange$223357 = -120				; size = 4
_BuildingClassID$223355 = -116				; size = 4
_iYieldID$223356 = -112					; size = 4
_pResults$223349 = -108					; size = 4
_strKey$223347 = -104					; size = 28
_iYieldMod$223346 = -76					; size = 4
_BuildingClassID$223344 = -72				; size = 4
_iYieldID$223345 = -68					; size = 4
_pResults$223338 = -64					; size = 4
_strKey$223336 = -60					; size = 28
__$ArrayPad$ = -32					; size = 4
_szTechPrereq$ = -28					; size = 4
_szPolicyType$ = -24					; size = 4
_szPolicyBranchType$ = -20				; size = 4
_szFreeBuilding$ = -16					; size = 4
__$EHRec$ = -12						; size = 12
_kResults$ = 8						; size = 4
_kUtility$ = 12						; size = 4
?CacheResults@CvPolicyEntry@@UAE_NAAVResults@Database@@AAVCvDatabaseUtility@@@Z PROC ; CvPolicyEntry::CacheResults, COMDAT
; _this$ = ecx

; 347  : {

	push	ebp
	mov	ebp, esp
	push	-1
	push	__ehhandler$?CacheResults@CvPolicyEntry@@UAE_NAAVResults@Database@@AAVCvDatabaseUtility@@@Z
	mov	eax, DWORD PTR fs:0
	push	eax
	sub	esp, 1064				; 00000428H
	mov	eax, DWORD PTR ___security_cookie
	xor	eax, ebp
	mov	DWORD PTR __$ArrayPad$[ebp], eax
	push	eax
	lea	eax, DWORD PTR __$EHRec$[ebp]
	mov	DWORD PTR fs:0, eax
	mov	DWORD PTR _this$[ebp], ecx

; 348  : 	if(!CvBaseInfo::CacheResults(kResults, kUtility))

	mov	eax, DWORD PTR _kUtility$[ebp]
	push	eax
	mov	ecx, DWORD PTR _kResults$[ebp]
	push	ecx
	mov	ecx, DWORD PTR _this$[ebp]
	call	?CacheResults@CvBaseInfo@@UAE_NAAVResults@Database@@AAVCvDatabaseUtility@@@Z ; CvBaseInfo::CacheResults
	movzx	edx, al
	test	edx, edx
	jne	SHORT $LN23@CacheResul

; 349  : 		return false;

	xor	al, al
	jmp	$LN24@CacheResul
$LN23@CacheResul:

; 350  : 
; 351  : 	//Basic Properties
; 352  : 	m_iCultureCost = kResults.GetInt("CultureCost");

	push	OFFSET ??_C@_0M@IMLKLLCO@CultureCost?$AA@
	mov	ecx, DWORD PTR _kResults$[ebp]
	call	DWORD PTR __imp_?GetInt@Results@Database@@QAEHPBD@Z
	mov	ecx, DWORD PTR _this$[ebp]
	mov	DWORD PTR [ecx+264], eax

; 353  : 	m_iGridX = kResults.GetInt("GridX");

	push	OFFSET ??_C@_05KEOANLAO@GridX?$AA@
	mov	ecx, DWORD PTR _kResults$[ebp]
	call	DWORD PTR __imp_?GetInt@Results@Database@@QAEHPBD@Z
	mov	edx, DWORD PTR _this$[ebp]
	mov	DWORD PTR [edx+268], eax

; 354  : 	m_iGridY = kResults.GetInt("GridY");

	push	OFFSET ??_C@_05LNPLOKEP@GridY?$AA@
	mov	ecx, DWORD PTR _kResults$[ebp]
	call	DWORD PTR __imp_?GetInt@Results@Database@@QAEHPBD@Z
	mov	ecx, DWORD PTR _this$[ebp]
	mov	DWORD PTR [ecx+272], eax

; 355  : 	m_iLevel = kResults.GetInt("Level");

	push	OFFSET ??_C@_05KOHFLOFG@Level?$AA@
	mov	ecx, DWORD PTR _kResults$[ebp]
	call	DWORD PTR __imp_?GetInt@Results@Database@@QAEHPBD@Z
	mov	edx, DWORD PTR _this$[ebp]
	mov	DWORD PTR [edx+276], eax

; 356  : 	m_iPolicyCostModifier = kResults.GetInt("PolicyCostModifier");

	push	OFFSET ??_C@_0BD@MIAKAFOH@PolicyCostModifier?$AA@
	mov	ecx, DWORD PTR _kResults$[ebp]
	call	DWORD PTR __imp_?GetInt@Results@Database@@QAEHPBD@Z
	mov	ecx, DWORD PTR _this$[ebp]
	mov	DWORD PTR [ecx+280], eax

; 357  : 	m_iCulturePerCity = kResults.GetInt("CulturePerCity");

	push	OFFSET ??_C@_0P@HLGECCII@CulturePerCity?$AA@
	mov	ecx, DWORD PTR _kResults$[ebp]
	call	DWORD PTR __imp_?GetInt@Results@Database@@QAEHPBD@Z
	mov	edx, DWORD PTR _this$[ebp]
	mov	DWORD PTR [edx+284], eax

; 358  : #ifdef FRUITY_TRADITION_ARISTOCRACY
; 359  : 	m_iCapitalCulturePerUniqueLuxury = kResults.GetInt("CapitalCulturePerUniqueLuxury");
; 360  : #endif
; 361  : 	m_iCulturePerWonder = kResults.GetInt("CulturePerWonder");

	push	OFFSET ??_C@_0BB@LIMEGBNN@CulturePerWonder?$AA@
	mov	ecx, DWORD PTR _kResults$[ebp]
	call	DWORD PTR __imp_?GetInt@Results@Database@@QAEHPBD@Z
	mov	ecx, DWORD PTR _this$[ebp]
	mov	DWORD PTR [ecx+288], eax

; 362  : 	m_iCultureWonderMultiplier = kResults.GetInt("CultureWonderMultiplier");

	push	OFFSET ??_C@_0BI@DGDBMDFC@CultureWonderMultiplier?$AA@
	mov	ecx, DWORD PTR _kResults$[ebp]
	call	DWORD PTR __imp_?GetInt@Results@Database@@QAEHPBD@Z
	mov	edx, DWORD PTR _this$[ebp]
	mov	DWORD PTR [edx+292], eax

; 363  : 	m_iCulturePerTechResearched = kResults.GetInt("CulturePerTechResearched");

	push	OFFSET ??_C@_0BJ@KNLKNLF@CulturePerTechResearched?$AA@
	mov	ecx, DWORD PTR _kResults$[ebp]
	call	DWORD PTR __imp_?GetInt@Results@Database@@QAEHPBD@Z
	mov	ecx, DWORD PTR _this$[ebp]
	mov	DWORD PTR [ecx+296], eax

; 364  : 	m_iCultureImprovementChange = kResults.GetInt("CultureImprovementChange");

	push	OFFSET ??_C@_0BJ@BLBDGMPP@CultureImprovementChange?$AA@
	mov	ecx, DWORD PTR _kResults$[ebp]
	call	DWORD PTR __imp_?GetInt@Results@Database@@QAEHPBD@Z
	mov	edx, DWORD PTR _this$[ebp]
	mov	DWORD PTR [edx+300], eax

; 365  : 	m_iCultureFromKills = kResults.GetInt("CultureFromKills");

	push	OFFSET ??_C@_0BB@EMBLNIDN@CultureFromKills?$AA@
	mov	ecx, DWORD PTR _kResults$[ebp]
	call	DWORD PTR __imp_?GetInt@Results@Database@@QAEHPBD@Z
	mov	ecx, DWORD PTR _this$[ebp]
	mov	DWORD PTR [ecx+304], eax

; 366  : 	m_iCultureFromBarbarianKills = kResults.GetInt("CultureFromBarbarianKills");

	push	OFFSET ??_C@_0BK@DICAPLG@CultureFromBarbarianKills?$AA@
	mov	ecx, DWORD PTR _kResults$[ebp]
	call	DWORD PTR __imp_?GetInt@Results@Database@@QAEHPBD@Z
	mov	edx, DWORD PTR _this$[ebp]
	mov	DWORD PTR [edx+308], eax

; 367  : 	m_iGoldFromKills = kResults.GetInt("GoldFromKills");

	push	OFFSET ??_C@_0O@IFCPKMIO@GoldFromKills?$AA@
	mov	ecx, DWORD PTR _kResults$[ebp]
	call	DWORD PTR __imp_?GetInt@Results@Database@@QAEHPBD@Z
	mov	ecx, DWORD PTR _this$[ebp]
	mov	DWORD PTR [ecx+312], eax

; 368  : 	m_iScienceFromKills = kResults.GetInt("ScienceFromKills"); // NQMP GJS - Honor Finisher

	push	OFFSET ??_C@_0BB@OCLFMNEB@ScienceFromKills?$AA@
	mov	ecx, DWORD PTR _kResults$[ebp]
	call	DWORD PTR __imp_?GetInt@Results@Database@@QAEHPBD@Z
	mov	edx, DWORD PTR _this$[ebp]
	mov	DWORD PTR [edx+316], eax

; 369  : 	m_iEmbarkedExtraMoves = kResults.GetInt("EmbarkedExtraMoves");

	push	OFFSET ??_C@_0BD@KHNGHMJB@EmbarkedExtraMoves?$AA@
	mov	ecx, DWORD PTR _kResults$[ebp]
	call	DWORD PTR __imp_?GetInt@Results@Database@@QAEHPBD@Z
	mov	ecx, DWORD PTR _this$[ebp]
	mov	DWORD PTR [ecx+320], eax

; 370  : 	m_iAttackBonusTurns = kResults.GetInt("AttackBonusTurns");

	push	OFFSET ??_C@_0BB@LCLFIBJM@AttackBonusTurns?$AA@
	mov	ecx, DWORD PTR _kResults$[ebp]
	call	DWORD PTR __imp_?GetInt@Results@Database@@QAEHPBD@Z
	mov	edx, DWORD PTR _this$[ebp]
	mov	DWORD PTR [edx+324], eax

; 371  : 	m_iGoldenAgeTurns = kResults.GetInt("GoldenAgeTurns");

	push	OFFSET ??_C@_0P@BJCGNFDJ@GoldenAgeTurns?$AA@
	mov	ecx, DWORD PTR _kResults$[ebp]
	call	DWORD PTR __imp_?GetInt@Results@Database@@QAEHPBD@Z
	mov	ecx, DWORD PTR _this$[ebp]
	mov	DWORD PTR [ecx+328], eax

; 372  : 	m_iGoldenAgeMeterMod = kResults.GetInt("GoldenAgeMeterMod");

	push	OFFSET ??_C@_0BC@GGDDOBLH@GoldenAgeMeterMod?$AA@
	mov	ecx, DWORD PTR _kResults$[ebp]
	call	DWORD PTR __imp_?GetInt@Results@Database@@QAEHPBD@Z
	mov	edx, DWORD PTR _this$[ebp]
	mov	DWORD PTR [edx+332], eax

; 373  : 	m_iGoldenAgeDurationMod = kResults.GetInt("GoldenAgeDurationMod");

	push	OFFSET ??_C@_0BF@MHEADKKO@GoldenAgeDurationMod?$AA@
	mov	ecx, DWORD PTR _kResults$[ebp]
	call	DWORD PTR __imp_?GetInt@Results@Database@@QAEHPBD@Z
	mov	ecx, DWORD PTR _this$[ebp]
	mov	DWORD PTR [ecx+336], eax

; 374  : 	m_iNumFreeTechs = kResults.GetInt("NumFreeTechs");

	push	OFFSET ??_C@_0N@DBLFACAI@NumFreeTechs?$AA@
	mov	ecx, DWORD PTR _kResults$[ebp]
	call	DWORD PTR __imp_?GetInt@Results@Database@@QAEHPBD@Z
	mov	edx, DWORD PTR _this$[ebp]
	mov	DWORD PTR [edx+340], eax

; 375  : 	m_iNumFreePolicies = kResults.GetInt("NumFreePolicies");

	push	OFFSET ??_C@_0BA@BKNGJGHF@NumFreePolicies?$AA@
	mov	ecx, DWORD PTR _kResults$[ebp]
	call	DWORD PTR __imp_?GetInt@Results@Database@@QAEHPBD@Z
	mov	ecx, DWORD PTR _this$[ebp]
	mov	DWORD PTR [ecx+344], eax

; 376  : 	m_iNumFreeGreatPeople = kResults.GetInt("NumFreeGreatPeople");

	push	OFFSET ??_C@_0BD@JMFDFLLL@NumFreeGreatPeople?$AA@
	mov	ecx, DWORD PTR _kResults$[ebp]
	call	DWORD PTR __imp_?GetInt@Results@Database@@QAEHPBD@Z
	mov	edx, DWORD PTR _this$[ebp]
	mov	DWORD PTR [edx+348], eax

; 377  : #ifdef NQ_EXTRA_SPIES_FROM_POLICIES
; 378  : 	m_iNumExtraSpies = kResults.GetInt("NumExtraSpies");

	push	OFFSET ??_C@_0O@OGNCLEHN@NumExtraSpies?$AA@
	mov	ecx, DWORD PTR _kResults$[ebp]
	call	DWORD PTR __imp_?GetInt@Results@Database@@QAEHPBD@Z
	mov	ecx, DWORD PTR _this$[ebp]
	mov	DWORD PTR [ecx+352], eax

; 379  : #endif
; 380  : 	m_iMedianTechPercentChange = kResults.GetInt("MedianTechPercentChange");

	push	OFFSET ??_C@_0BI@COMEBICJ@MedianTechPercentChange?$AA@
	mov	ecx, DWORD PTR _kResults$[ebp]
	call	DWORD PTR __imp_?GetInt@Results@Database@@QAEHPBD@Z
	mov	edx, DWORD PTR _this$[ebp]
	mov	DWORD PTR [edx+356], eax

; 381  : 	m_iStrategicResourceMod = kResults.GetInt("StrategicResourceMod");

	push	OFFSET ??_C@_0BF@OHPDEMNG@StrategicResourceMod?$AA@
	mov	ecx, DWORD PTR _kResults$[ebp]
	call	DWORD PTR __imp_?GetInt@Results@Database@@QAEHPBD@Z
	mov	ecx, DWORD PTR _this$[ebp]
	mov	DWORD PTR [ecx+360], eax

; 382  : 	m_iWonderProductionModifier = kResults.GetInt("WonderProductionModifier");

	push	OFFSET ??_C@_0BJ@KGAAGHKI@WonderProductionModifier?$AA@
	mov	ecx, DWORD PTR _kResults$[ebp]
	call	DWORD PTR __imp_?GetInt@Results@Database@@QAEHPBD@Z
	mov	edx, DWORD PTR _this$[ebp]
	mov	DWORD PTR [edx+364], eax

; 383  : 	m_iBuildingProductionModifier = kResults.GetInt("BuildingProductionModifier");

	push	OFFSET ??_C@_0BL@HLGIJEIL@BuildingProductionModifier?$AA@
	mov	ecx, DWORD PTR _kResults$[ebp]
	call	DWORD PTR __imp_?GetInt@Results@Database@@QAEHPBD@Z
	mov	ecx, DWORD PTR _this$[ebp]
	mov	DWORD PTR [ecx+368], eax

; 384  : 	m_iGreatPeopleRateModifier = kResults.GetInt("GreatPeopleRateModifier");

	push	OFFSET ??_C@_0BI@DKDDAFPG@GreatPeopleRateModifier?$AA@
	mov	ecx, DWORD PTR _kResults$[ebp]
	call	DWORD PTR __imp_?GetInt@Results@Database@@QAEHPBD@Z
	mov	edx, DWORD PTR _this$[ebp]
	mov	DWORD PTR [edx+372], eax

; 385  : 	m_iGreatGeneralRateModifier = kResults.GetInt("GreatGeneralRateModifier");

	push	OFFSET ??_C@_0BJ@MFKPLGEE@GreatGeneralRateModifier?$AA@
	mov	ecx, DWORD PTR _kResults$[ebp]
	call	DWORD PTR __imp_?GetInt@Results@Database@@QAEHPBD@Z
	mov	ecx, DWORD PTR _this$[ebp]
	mov	DWORD PTR [ecx+376], eax

; 386  : 	m_iGreatAdmiralRateModifier = kResults.GetInt("GreatAdmiralRateModifier");

	push	OFFSET ??_C@_0BJ@OJPABOPK@GreatAdmiralRateModifier?$AA@
	mov	ecx, DWORD PTR _kResults$[ebp]
	call	DWORD PTR __imp_?GetInt@Results@Database@@QAEHPBD@Z
	mov	edx, DWORD PTR _this$[ebp]
	mov	DWORD PTR [edx+380], eax

; 387  : 	m_iGreatWriterRateModifier = kResults.GetInt("GreatWriterRateModifier");

	push	OFFSET ??_C@_0BI@LJIIKCIN@GreatWriterRateModifier?$AA@
	mov	ecx, DWORD PTR _kResults$[ebp]
	call	DWORD PTR __imp_?GetInt@Results@Database@@QAEHPBD@Z
	mov	ecx, DWORD PTR _this$[ebp]
	mov	DWORD PTR [ecx+384], eax

; 388  : 	m_iGreatArtistRateModifier = kResults.GetInt("GreatArtistRateModifier");

	push	OFFSET ??_C@_0BI@EDMONEDH@GreatArtistRateModifier?$AA@
	mov	ecx, DWORD PTR _kResults$[ebp]
	call	DWORD PTR __imp_?GetInt@Results@Database@@QAEHPBD@Z
	mov	edx, DWORD PTR _this$[ebp]
	mov	DWORD PTR [edx+388], eax

; 389  : 	m_iGreatMusicianRateModifier = kResults.GetInt("GreatMusicianRateModifier");

	push	OFFSET ??_C@_0BK@EGCNJBGG@GreatMusicianRateModifier?$AA@
	mov	ecx, DWORD PTR _kResults$[ebp]
	call	DWORD PTR __imp_?GetInt@Results@Database@@QAEHPBD@Z
	mov	ecx, DWORD PTR _this$[ebp]
	mov	DWORD PTR [ecx+392], eax

; 390  : 	m_iGreatMerchantRateModifier = kResults.GetInt("GreatMerchantRateModifier");

	push	OFFSET ??_C@_0BK@EFBINBKL@GreatMerchantRateModifier?$AA@
	mov	ecx, DWORD PTR _kResults$[ebp]
	call	DWORD PTR __imp_?GetInt@Results@Database@@QAEHPBD@Z
	mov	edx, DWORD PTR _this$[ebp]
	mov	DWORD PTR [edx+396], eax

; 391  : 	m_iGreatScientistRateModifier = kResults.GetInt("GreatScientistRateModifier");

	push	OFFSET ??_C@_0BL@JEHMMHCB@GreatScientistRateModifier?$AA@
	mov	ecx, DWORD PTR _kResults$[ebp]
	call	DWORD PTR __imp_?GetInt@Results@Database@@QAEHPBD@Z
	mov	ecx, DWORD PTR _this$[ebp]
	mov	DWORD PTR [ecx+400], eax

; 392  : 	m_iDomesticGreatGeneralRateModifier = kResults.GetInt("DomesticGreatGeneralRateModifier");

	push	OFFSET ??_C@_0CB@PIKCEEAD@DomesticGreatGeneralRateModifier@
	mov	ecx, DWORD PTR _kResults$[ebp]
	call	DWORD PTR __imp_?GetInt@Results@Database@@QAEHPBD@Z
	mov	edx, DWORD PTR _this$[ebp]
	mov	DWORD PTR [edx+404], eax

; 393  : 	m_iExtraHappiness = kResults.GetInt("ExtraHappiness");

	push	OFFSET ??_C@_0P@PKOJCLKH@ExtraHappiness?$AA@
	mov	ecx, DWORD PTR _kResults$[ebp]
	call	DWORD PTR __imp_?GetInt@Results@Database@@QAEHPBD@Z
	mov	ecx, DWORD PTR _this$[ebp]
	mov	DWORD PTR [ecx+408], eax

; 394  : 	m_iExtraHappinessPerCity = kResults.GetInt("ExtraHappinessPerCity");

	push	OFFSET ??_C@_0BG@BNECOPBF@ExtraHappinessPerCity?$AA@
	mov	ecx, DWORD PTR _kResults$[ebp]
	call	DWORD PTR __imp_?GetInt@Results@Database@@QAEHPBD@Z
	mov	edx, DWORD PTR _this$[ebp]
	mov	DWORD PTR [edx+412], eax

; 395  : 	m_iUnhappinessMod = kResults.GetInt("UnhappinessMod");

	push	OFFSET ??_C@_0P@MJJHCDCN@UnhappinessMod?$AA@
	mov	ecx, DWORD PTR _kResults$[ebp]
	call	DWORD PTR __imp_?GetInt@Results@Database@@QAEHPBD@Z
	mov	ecx, DWORD PTR _this$[ebp]
	mov	DWORD PTR [ecx+416], eax

; 396  : 	m_iCityCountUnhappinessMod = kResults.GetInt("CityCountUnhappinessMod");

	push	OFFSET ??_C@_0BI@NMIGNJMC@CityCountUnhappinessMod?$AA@
	mov	ecx, DWORD PTR _kResults$[ebp]
	call	DWORD PTR __imp_?GetInt@Results@Database@@QAEHPBD@Z
	mov	edx, DWORD PTR _this$[ebp]
	mov	DWORD PTR [edx+420], eax

; 397  : 	m_iOccupiedPopulationUnhappinessMod = kResults.GetInt("OccupiedPopulationUnhappinessMod");

	push	OFFSET ??_C@_0CB@MDKPLGNJ@OccupiedPopulationUnhappinessMod@
	mov	ecx, DWORD PTR _kResults$[ebp]
	call	DWORD PTR __imp_?GetInt@Results@Database@@QAEHPBD@Z
	mov	ecx, DWORD PTR _this$[ebp]
	mov	DWORD PTR [ecx+424], eax

; 398  : 	m_iCapitalUnhappinessMod = kResults.GetInt("CapitalUnhappinessMod");

	push	OFFSET ??_C@_0BG@GLEFCJIP@CapitalUnhappinessMod?$AA@
	mov	ecx, DWORD PTR _kResults$[ebp]
	call	DWORD PTR __imp_?GetInt@Results@Database@@QAEHPBD@Z
	mov	edx, DWORD PTR _this$[ebp]
	mov	DWORD PTR [edx+428], eax

; 399  : 	m_iFreeExperience = kResults.GetInt("FreeExperience");

	push	OFFSET ??_C@_0P@MOBEEGOH@FreeExperience?$AA@
	mov	ecx, DWORD PTR _kResults$[ebp]
	call	DWORD PTR __imp_?GetInt@Results@Database@@QAEHPBD@Z
	mov	ecx, DWORD PTR _this$[ebp]
	mov	DWORD PTR [ecx+432], eax

; 400  : 	m_iWorkerSpeedModifier = kResults.GetInt("WorkerSpeedModifier");

	push	OFFSET ??_C@_0BE@NGOPBNAB@WorkerSpeedModifier?$AA@
	mov	ecx, DWORD PTR _kResults$[ebp]
	call	DWORD PTR __imp_?GetInt@Results@Database@@QAEHPBD@Z
	mov	edx, DWORD PTR _this$[ebp]
	mov	DWORD PTR [edx+436], eax

; 401  : 	m_iAllFeatureProduction = kResults.GetInt("AllFeatureProduction");

	push	OFFSET ??_C@_0BF@BBFBLGII@AllFeatureProduction?$AA@
	mov	ecx, DWORD PTR _kResults$[ebp]
	call	DWORD PTR __imp_?GetInt@Results@Database@@QAEHPBD@Z
	mov	ecx, DWORD PTR _this$[ebp]
	mov	DWORD PTR [ecx+440], eax

; 402  : 	m_iImprovementCostModifier = kResults.GetInt("ImprovementCostModifier");

	push	OFFSET ??_C@_0BI@OOJHBKNI@ImprovementCostModifier?$AA@
	mov	ecx, DWORD PTR _kResults$[ebp]
	call	DWORD PTR __imp_?GetInt@Results@Database@@QAEHPBD@Z
	mov	edx, DWORD PTR _this$[ebp]
	mov	DWORD PTR [edx+444], eax

; 403  : 	m_iImprovementUpgradeRateModifier = kResults.GetInt("ImprovementUpgradeRateModifier");

	push	OFFSET ??_C@_0BP@HAEEHIKP@ImprovementUpgradeRateModifier?$AA@
	mov	ecx, DWORD PTR _kResults$[ebp]
	call	DWORD PTR __imp_?GetInt@Results@Database@@QAEHPBD@Z
	mov	ecx, DWORD PTR _this$[ebp]
	mov	DWORD PTR [ecx+448], eax

; 404  : 	m_iSpecialistProductionModifier = kResults.GetInt("SpecialistProductionModifier");

	push	OFFSET ??_C@_0BN@BCNFIGMF@SpecialistProductionModifier?$AA@
	mov	ecx, DWORD PTR _kResults$[ebp]
	call	DWORD PTR __imp_?GetInt@Results@Database@@QAEHPBD@Z
	mov	edx, DWORD PTR _this$[ebp]
	mov	DWORD PTR [edx+452], eax

; 405  : 	m_iSpecialistUpgradeModifier = kResults.GetInt("SpecialistUpgradeModifier");

	push	OFFSET ??_C@_0BK@CFFAKCBM@SpecialistUpgradeModifier?$AA@
	mov	ecx, DWORD PTR _kResults$[ebp]
	call	DWORD PTR __imp_?GetInt@Results@Database@@QAEHPBD@Z
	mov	ecx, DWORD PTR _this$[ebp]
	mov	DWORD PTR [ecx+456], eax

; 406  : 	m_iMilitaryProductionModifier = kResults.GetInt("MilitaryProductionModifier");

	push	OFFSET ??_C@_0BL@DFCFJKDP@MilitaryProductionModifier?$AA@
	mov	ecx, DWORD PTR _kResults$[ebp]
	call	DWORD PTR __imp_?GetInt@Results@Database@@QAEHPBD@Z
	mov	edx, DWORD PTR _this$[ebp]
	mov	DWORD PTR [edx+460], eax

; 407  : 	m_iBaseFreeUnits = kResults.GetInt("BaseFreeUnits");

	push	OFFSET ??_C@_0O@EIFAIMLA@BaseFreeUnits?$AA@
	mov	ecx, DWORD PTR _kResults$[ebp]
	call	DWORD PTR __imp_?GetInt@Results@Database@@QAEHPBD@Z
	mov	ecx, DWORD PTR _this$[ebp]
	mov	DWORD PTR [ecx+464], eax

; 408  : 	m_iBaseFreeMilitaryUnits = kResults.GetInt("BaseFreeMilitaryUnits");

	push	OFFSET ??_C@_0BG@HNNABIFD@BaseFreeMilitaryUnits?$AA@
	mov	ecx, DWORD PTR _kResults$[ebp]
	call	DWORD PTR __imp_?GetInt@Results@Database@@QAEHPBD@Z
	mov	edx, DWORD PTR _this$[ebp]
	mov	DWORD PTR [edx+468], eax

; 409  : 	m_iFreeUnitsPopulationPercent = kResults.GetInt("FreeUnitsPopulationPercent");

	push	OFFSET ??_C@_0BL@OICFPJHJ@FreeUnitsPopulationPercent?$AA@
	mov	ecx, DWORD PTR _kResults$[ebp]
	call	DWORD PTR __imp_?GetInt@Results@Database@@QAEHPBD@Z
	mov	ecx, DWORD PTR _this$[ebp]
	mov	DWORD PTR [ecx+472], eax

; 410  : 	m_iFreeMilitaryUnitsPopulationPercent = kResults.GetInt("FreeMilitaryUnitsPopulationPercent");

	push	OFFSET ??_C@_0CD@HCLGJPMG@FreeMilitaryUnitsPopulationPerce@
	mov	ecx, DWORD PTR _kResults$[ebp]
	call	DWORD PTR __imp_?GetInt@Results@Database@@QAEHPBD@Z
	mov	edx, DWORD PTR _this$[ebp]
	mov	DWORD PTR [edx+476], eax

; 411  : 	m_iHappinessPerGarrisonedUnit = kResults.GetInt("HappinessPerGarrisonedUnit");

	push	OFFSET ??_C@_0BL@JJAGICMO@HappinessPerGarrisonedUnit?$AA@
	mov	ecx, DWORD PTR _kResults$[ebp]
	call	DWORD PTR __imp_?GetInt@Results@Database@@QAEHPBD@Z
	mov	ecx, DWORD PTR _this$[ebp]
	mov	DWORD PTR [ecx+480], eax

; 412  : 	m_iCulturePerGarrisonedUnit = kResults.GetInt("CulturePerGarrisonedUnit");

	push	OFFSET ??_C@_0BJ@JGKBABME@CulturePerGarrisonedUnit?$AA@
	mov	ecx, DWORD PTR _kResults$[ebp]
	call	DWORD PTR __imp_?GetInt@Results@Database@@QAEHPBD@Z
	mov	edx, DWORD PTR _this$[ebp]
	mov	DWORD PTR [edx+484], eax

; 413  : 	m_iHappinessPerTradeRoute = kResults.GetInt("HappinessPerTradeRoute");

	push	OFFSET ??_C@_0BH@FKMKPMOM@HappinessPerTradeRoute?$AA@
	mov	ecx, DWORD PTR _kResults$[ebp]
	call	DWORD PTR __imp_?GetInt@Results@Database@@QAEHPBD@Z
	mov	ecx, DWORD PTR _this$[ebp]
	mov	DWORD PTR [ecx+488], eax

; 414  : #ifdef NQ_RAIL_CONNECTION_HAPPINESS_FROM_POLICIES
; 415  : 	m_iHappinessPerRailConnection = kResults.GetInt("HappinessPerRailConnection");

	push	OFFSET ??_C@_0BL@NOANKODL@HappinessPerRailConnection?$AA@
	mov	ecx, DWORD PTR _kResults$[ebp]
	call	DWORD PTR __imp_?GetInt@Results@Database@@QAEHPBD@Z
	mov	edx, DWORD PTR _this$[ebp]
	mov	DWORD PTR [edx+492], eax

; 416  : #endif
; 417  : 	m_iHappinessPerXPopulation = kResults.GetInt("HappinessPerXPopulation");

	push	OFFSET ??_C@_0BI@EKOONHKP@HappinessPerXPopulation?$AA@
	mov	ecx, DWORD PTR _kResults$[ebp]
	call	DWORD PTR __imp_?GetInt@Results@Database@@QAEHPBD@Z
	mov	ecx, DWORD PTR _this$[ebp]
	mov	DWORD PTR [ecx+496], eax

; 418  : 	m_iExtraHappinessPerLuxury = kResults.GetInt("ExtraHappinessPerLuxury");

	push	OFFSET ??_C@_0BI@KDPCJKIO@ExtraHappinessPerLuxury?$AA@
	mov	ecx, DWORD PTR _kResults$[ebp]
	call	DWORD PTR __imp_?GetInt@Results@Database@@QAEHPBD@Z
	mov	edx, DWORD PTR _this$[ebp]
	mov	DWORD PTR [edx+500], eax

; 419  : 	m_iUnhappinessFromUnitsMod = kResults.GetInt("UnhappinessFromUnitsMod");

	push	OFFSET ??_C@_0BI@IMKGJEKK@UnhappinessFromUnitsMod?$AA@
	mov	ecx, DWORD PTR _kResults$[ebp]
	call	DWORD PTR __imp_?GetInt@Results@Database@@QAEHPBD@Z
	mov	ecx, DWORD PTR _this$[ebp]
	mov	DWORD PTR [ecx+504], eax

; 420  : 	m_iNumExtraBuilders = kResults.GetInt("NumExtraBuilders");

	push	OFFSET ??_C@_0BB@ONFGPAJH@NumExtraBuilders?$AA@
	mov	ecx, DWORD PTR _kResults$[ebp]
	call	DWORD PTR __imp_?GetInt@Results@Database@@QAEHPBD@Z
	mov	edx, DWORD PTR _this$[ebp]
	mov	DWORD PTR [edx+508], eax

; 421  : 	m_iPlotGoldCostMod = kResults.GetInt("PlotGoldCostMod");

	push	OFFSET ??_C@_0BA@EBDNNHOP@PlotGoldCostMod?$AA@
	mov	ecx, DWORD PTR _kResults$[ebp]
	call	DWORD PTR __imp_?GetInt@Results@Database@@QAEHPBD@Z
	mov	ecx, DWORD PTR _this$[ebp]
	mov	DWORD PTR [ecx+512], eax

; 422  : 	m_iPlotCultureCostModifier = kResults.GetInt("PlotCultureCostModifier");

	push	OFFSET ??_C@_0BI@CCICLKEE@PlotCultureCostModifier?$AA@
	mov	ecx, DWORD PTR _kResults$[ebp]
	call	DWORD PTR __imp_?GetInt@Results@Database@@QAEHPBD@Z
	mov	edx, DWORD PTR _this$[ebp]
	mov	DWORD PTR [edx+516], eax

; 423  : 	m_iPlotCultureExponentModifier = kResults.GetInt("PlotCultureExponentModifier");

	push	OFFSET ??_C@_0BM@FKOPEKNC@PlotCultureExponentModifier?$AA@
	mov	ecx, DWORD PTR _kResults$[ebp]
	call	DWORD PTR __imp_?GetInt@Results@Database@@QAEHPBD@Z
	mov	ecx, DWORD PTR _this$[ebp]
	mov	DWORD PTR [ecx+520], eax

; 424  : 	m_iNumCitiesPolicyCostDiscount = kResults.GetInt("NumCitiesPolicyCostDiscount");

	push	OFFSET ??_C@_0BM@COIEECHE@NumCitiesPolicyCostDiscount?$AA@
	mov	ecx, DWORD PTR _kResults$[ebp]
	call	DWORD PTR __imp_?GetInt@Results@Database@@QAEHPBD@Z
	mov	edx, DWORD PTR _this$[ebp]
	mov	DWORD PTR [edx+524], eax

; 425  : 	m_iNumCitiesResearchCostDiscount = kResults.GetInt("NumCitiesResearchCostDiscount"); // NQMP GJS - new Dictatorship of the Proletariat i.e. Communism

	push	OFFSET ??_C@_0BO@MEMOKKJL@NumCitiesResearchCostDiscount?$AA@
	mov	ecx, DWORD PTR _kResults$[ebp]
	call	DWORD PTR __imp_?GetInt@Results@Database@@QAEHPBD@Z
	mov	ecx, DWORD PTR _this$[ebp]
	mov	DWORD PTR [ecx+528], eax

; 426  : 	m_iGarrisonedCityRangeStrikeModifier = kResults.GetInt("GarrisonedCityRangeStrikeModifier");

	push	OFFSET ??_C@_0CC@ELHNOAEL@GarrisonedCityRangeStrikeModifie@
	mov	ecx, DWORD PTR _kResults$[ebp]
	call	DWORD PTR __imp_?GetInt@Results@Database@@QAEHPBD@Z
	mov	edx, DWORD PTR _this$[ebp]
	mov	DWORD PTR [edx+532], eax

; 427  : 	m_iUnitPurchaseCostModifier = kResults.GetInt("UnitPurchaseCostModifier");

	push	OFFSET ??_C@_0BJ@MKCDENAA@UnitPurchaseCostModifier?$AA@
	mov	ecx, DWORD PTR _kResults$[ebp]
	call	DWORD PTR __imp_?GetInt@Results@Database@@QAEHPBD@Z
	mov	ecx, DWORD PTR _this$[ebp]
	mov	DWORD PTR [ecx+536], eax

; 428  : 	m_iBuildingPurchaseCostModifier = kResults.GetInt("BuildingPurchaseCostModifier");

	push	OFFSET ??_C@_0BN@MDJBNLIP@BuildingPurchaseCostModifier?$AA@
	mov	ecx, DWORD PTR _kResults$[ebp]
	call	DWORD PTR __imp_?GetInt@Results@Database@@QAEHPBD@Z
	mov	edx, DWORD PTR _this$[ebp]
	mov	DWORD PTR [edx+540], eax

; 429  : 	m_iCityConnectionTradeRouteGoldModifier = kResults.GetInt("CityConnectionTradeRouteGoldModifier");

	push	OFFSET ??_C@_0CF@CKGIHFME@CityConnectionTradeRouteGoldModi@
	mov	ecx, DWORD PTR _kResults$[ebp]
	call	DWORD PTR __imp_?GetInt@Results@Database@@QAEHPBD@Z
	mov	ecx, DWORD PTR _this$[ebp]
	mov	DWORD PTR [ecx+544], eax

; 430  : 	m_iTradeMissionGoldModifier = kResults.GetInt("TradeMissionGoldModifier");

	push	OFFSET ??_C@_0BJ@OGAAKMBL@TradeMissionGoldModifier?$AA@
	mov	ecx, DWORD PTR _kResults$[ebp]
	call	DWORD PTR __imp_?GetInt@Results@Database@@QAEHPBD@Z
	mov	edx, DWORD PTR _this$[ebp]
	mov	DWORD PTR [edx+548], eax

; 431  : 	m_iFaithCostModifier = kResults.GetInt("FaithCostModifier");

	push	OFFSET ??_C@_0BC@LIHGJKGH@FaithCostModifier?$AA@
	mov	ecx, DWORD PTR _kResults$[ebp]
	call	DWORD PTR __imp_?GetInt@Results@Database@@QAEHPBD@Z
	mov	ecx, DWORD PTR _this$[ebp]
	mov	DWORD PTR [ecx+552], eax

; 432  : 	m_iCulturalPlunderMultiplier = kResults.GetInt("CulturalPlunderMultiplier");

	push	OFFSET ??_C@_0BK@FGEFNEAF@CulturalPlunderMultiplier?$AA@
	mov	ecx, DWORD PTR _kResults$[ebp]
	call	DWORD PTR __imp_?GetInt@Results@Database@@QAEHPBD@Z
	mov	edx, DWORD PTR _this$[ebp]
	mov	DWORD PTR [edx+556], eax

; 433  : 	m_iStealTechSlowerModifier = kResults.GetInt("StealTechSlowerModifier");

	push	OFFSET ??_C@_0BI@GKMOPGMA@StealTechSlowerModifier?$AA@
	mov	ecx, DWORD PTR _kResults$[ebp]
	call	DWORD PTR __imp_?GetInt@Results@Database@@QAEHPBD@Z
	mov	ecx, DWORD PTR _this$[ebp]
	mov	DWORD PTR [ecx+560], eax

; 434  : 	m_iStealTechFasterModifier = kResults.GetInt("StealTechFasterModifier");

	push	OFFSET ??_C@_0BI@PDPCGKIO@StealTechFasterModifier?$AA@
	mov	ecx, DWORD PTR _kResults$[ebp]
	call	DWORD PTR __imp_?GetInt@Results@Database@@QAEHPBD@Z
	mov	edx, DWORD PTR _this$[ebp]
	mov	DWORD PTR [edx+564], eax

; 435  : 	m_iCatchSpiesModifier = kResults.GetInt("CatchSpiesModifier");

	push	OFFSET ??_C@_0BD@FEHHPDEP@CatchSpiesModifier?$AA@
	mov	ecx, DWORD PTR _kResults$[ebp]
	call	DWORD PTR __imp_?GetInt@Results@Database@@QAEHPBD@Z
	mov	ecx, DWORD PTR _this$[ebp]
	mov	DWORD PTR [ecx+568], eax

; 436  : 	m_iGoldPerUnit = kResults.GetInt("GoldPerUnit");

	push	OFFSET ??_C@_0M@CELEIBNP@GoldPerUnit?$AA@
	mov	ecx, DWORD PTR _kResults$[ebp]
	call	DWORD PTR __imp_?GetInt@Results@Database@@QAEHPBD@Z
	mov	edx, DWORD PTR _this$[ebp]
	mov	DWORD PTR [edx+572], eax

; 437  : 	m_iGoldPerMilitaryUnit = kResults.GetInt("GoldPerMilitaryUnit");

	push	OFFSET ??_C@_0BE@LMFGEEFC@GoldPerMilitaryUnit?$AA@
	mov	ecx, DWORD PTR _kResults$[ebp]
	call	DWORD PTR __imp_?GetInt@Results@Database@@QAEHPBD@Z
	mov	ecx, DWORD PTR _this$[ebp]
	mov	DWORD PTR [ecx+576], eax

; 438  : 	m_iCityStrengthMod = kResults.GetInt("CityStrengthMod");

	push	OFFSET ??_C@_0BA@JGKPMHDI@CityStrengthMod?$AA@
	mov	ecx, DWORD PTR _kResults$[ebp]
	call	DWORD PTR __imp_?GetInt@Results@Database@@QAEHPBD@Z
	mov	edx, DWORD PTR _this$[ebp]
	mov	DWORD PTR [edx+580], eax

; 439  : 	m_iCityGrowthMod = kResults.GetInt("CityGrowthMod");

	push	OFFSET ??_C@_0O@KIHLCIGE@CityGrowthMod?$AA@
	mov	ecx, DWORD PTR _kResults$[ebp]
	call	DWORD PTR __imp_?GetInt@Results@Database@@QAEHPBD@Z
	mov	ecx, DWORD PTR _this$[ebp]
	mov	DWORD PTR [ecx+584], eax

; 440  : 	m_iCapitalGrowthMod = kResults.GetInt("CapitalGrowthMod");

	push	OFFSET ??_C@_0BB@IIOEMOFG@CapitalGrowthMod?$AA@
	mov	ecx, DWORD PTR _kResults$[ebp]
	call	DWORD PTR __imp_?GetInt@Results@Database@@QAEHPBD@Z
	mov	edx, DWORD PTR _this$[ebp]
	mov	DWORD PTR [edx+588], eax

; 441  : 	m_iSettlerProductionModifier = kResults.GetInt("SettlerProductionModifier");

	push	OFFSET ??_C@_0BK@KEMFJDHB@SettlerProductionModifier?$AA@
	mov	ecx, DWORD PTR _kResults$[ebp]
	call	DWORD PTR __imp_?GetInt@Results@Database@@QAEHPBD@Z
	mov	ecx, DWORD PTR _this$[ebp]
	mov	DWORD PTR [ecx+592], eax

; 442  : 	m_iCapitalSettlerProductionModifier = kResults.GetInt("CapitalSettlerProductionModifier");

	push	OFFSET ??_C@_0CB@MIGPIJHP@CapitalSettlerProductionModifier@
	mov	ecx, DWORD PTR _kResults$[ebp]
	call	DWORD PTR __imp_?GetInt@Results@Database@@QAEHPBD@Z
	mov	edx, DWORD PTR _this$[ebp]
	mov	DWORD PTR [edx+596], eax

; 443  : 	m_iNewCityExtraPopulation = kResults.GetInt("NewCityExtraPopulation");

	push	OFFSET ??_C@_0BH@PDNAFCEG@NewCityExtraPopulation?$AA@
	mov	ecx, DWORD PTR _kResults$[ebp]
	call	DWORD PTR __imp_?GetInt@Results@Database@@QAEHPBD@Z
	mov	ecx, DWORD PTR _this$[ebp]
	mov	DWORD PTR [ecx+600], eax

; 444  : 	m_iFreeFoodBox = kResults.GetInt("FreeFoodBox");

	push	OFFSET ??_C@_0M@EOGMLPFM@FreeFoodBox?$AA@
	mov	ecx, DWORD PTR _kResults$[ebp]
	call	DWORD PTR __imp_?GetInt@Results@Database@@QAEHPBD@Z
	mov	edx, DWORD PTR _this$[ebp]
	mov	DWORD PTR [edx+604], eax

; 445  : 	m_iRouteGoldMaintenanceMod = kResults.GetInt("RouteGoldMaintenanceMod");

	push	OFFSET ??_C@_0BI@JPCPBJHC@RouteGoldMaintenanceMod?$AA@
	mov	ecx, DWORD PTR _kResults$[ebp]
	call	DWORD PTR __imp_?GetInt@Results@Database@@QAEHPBD@Z
	mov	ecx, DWORD PTR _this$[ebp]
	mov	DWORD PTR [ecx+608], eax

; 446  : 	m_iBuildingGoldMaintenanceMod = kResults.GetInt("BuildingGoldMaintenanceMod");

	push	OFFSET ??_C@_0BL@GOKAHANB@BuildingGoldMaintenanceMod?$AA@
	mov	ecx, DWORD PTR _kResults$[ebp]
	call	DWORD PTR __imp_?GetInt@Results@Database@@QAEHPBD@Z
	mov	edx, DWORD PTR _this$[ebp]
	mov	DWORD PTR [edx+612], eax

; 447  : 	m_iUnitGoldMaintenanceMod = kResults.GetInt("UnitGoldMaintenanceMod");

	push	OFFSET ??_C@_0BH@GPCCGJFH@UnitGoldMaintenanceMod?$AA@
	mov	ecx, DWORD PTR _kResults$[ebp]
	call	DWORD PTR __imp_?GetInt@Results@Database@@QAEHPBD@Z
	mov	ecx, DWORD PTR _this$[ebp]
	mov	DWORD PTR [ecx+616], eax

; 448  : 	m_iUnitSupplyMod = kResults.GetInt("UnitSupplyMod");

	push	OFFSET ??_C@_0O@IKEGJHGF@UnitSupplyMod?$AA@
	mov	ecx, DWORD PTR _kResults$[ebp]
	call	DWORD PTR __imp_?GetInt@Results@Database@@QAEHPBD@Z
	mov	edx, DWORD PTR _this$[ebp]
	mov	DWORD PTR [edx+620], eax

; 449  : 	m_iHappyPerMilitaryUnit = kResults.GetInt("HappyPerMilitaryUnit");

	push	OFFSET ??_C@_0BF@NKCDCBLE@HappyPerMilitaryUnit?$AA@
	mov	ecx, DWORD PTR _kResults$[ebp]
	call	DWORD PTR __imp_?GetInt@Results@Database@@QAEHPBD@Z
	mov	ecx, DWORD PTR _this$[ebp]
	mov	DWORD PTR [ecx+624], eax

; 450  : 	m_iHappinessToCulture = kResults.GetInt("HappinessToCulture");

	push	OFFSET ??_C@_0BD@MMMKOKOB@HappinessToCulture?$AA@
	mov	ecx, DWORD PTR _kResults$[ebp]
	call	DWORD PTR __imp_?GetInt@Results@Database@@QAEHPBD@Z
	mov	edx, DWORD PTR _this$[ebp]
	mov	DWORD PTR [edx+840], eax

; 451  : 	m_iHappinessToScience = kResults.GetInt("HappinessToScience");

	push	OFFSET ??_C@_0BD@CDMOEEGG@HappinessToScience?$AA@
	mov	ecx, DWORD PTR _kResults$[ebp]
	call	DWORD PTR __imp_?GetInt@Results@Database@@QAEHPBD@Z
	mov	ecx, DWORD PTR _this$[ebp]
	mov	DWORD PTR [ecx+844], eax

; 452  : #ifdef NQ_GOLD_TO_SCIENCE_FROM_POLICIES
; 453  : 	m_iGoldToScience = kResults.GetInt("GoldToScience");

	push	OFFSET ??_C@_0O@ELPPBGEP@GoldToScience?$AA@
	mov	ecx, DWORD PTR _kResults$[ebp]
	call	DWORD PTR __imp_?GetInt@Results@Database@@QAEHPBD@Z
	mov	edx, DWORD PTR _this$[ebp]
	mov	DWORD PTR [edx+848], eax

; 454  : #endif
; 455  : 	m_iNumCitiesFreeAestheticsSchools = kResults.GetInt("NumCitiesFreeAestheticsSchools"); // NQMP GJS - add support for NumCitiesFreeAestheticsSchools

	push	OFFSET ??_C@_0BP@ELCFNBD@NumCitiesFreeAestheticsSchools?$AA@
	mov	ecx, DWORD PTR _kResults$[ebp]
	call	DWORD PTR __imp_?GetInt@Results@Database@@QAEHPBD@Z
	mov	ecx, DWORD PTR _this$[ebp]
	mov	DWORD PTR [ecx+852], eax

; 456  : 	m_iNumCitiesFreePietyGardens = kResults.GetInt("NumCitiesFreePietyGardens");

	push	OFFSET ??_C@_0BK@JOIILMDO@NumCitiesFreePietyGardens?$AA@
	mov	ecx, DWORD PTR _kResults$[ebp]
	call	DWORD PTR __imp_?GetInt@Results@Database@@QAEHPBD@Z
	mov	edx, DWORD PTR _this$[ebp]
	mov	DWORD PTR [edx+856], eax

; 457  : 	m_iNumCitiesFreeWalls = kResults.GetInt("NumCitiesFreeWalls"); // NQMP GJS - New Oligarchy add support for NumCitiesFreeWalls

	push	OFFSET ??_C@_0BD@KDKHHJEK@NumCitiesFreeWalls?$AA@
	mov	ecx, DWORD PTR _kResults$[ebp]
	call	DWORD PTR __imp_?GetInt@Results@Database@@QAEHPBD@Z
	mov	ecx, DWORD PTR _this$[ebp]
	mov	DWORD PTR [ecx+860], eax

; 458  : 	m_iNumCitiesFreeCultureBuilding = kResults.GetInt("NumCitiesFreeCultureBuilding");

	push	OFFSET ??_C@_0BN@FIEHLJMJ@NumCitiesFreeCultureBuilding?$AA@
	mov	ecx, DWORD PTR _kResults$[ebp]
	call	DWORD PTR __imp_?GetInt@Results@Database@@QAEHPBD@Z
	mov	edx, DWORD PTR _this$[ebp]
	mov	DWORD PTR [edx+864], eax

; 459  : 	m_iNumCitiesFreeFoodBuilding = kResults.GetInt("NumCitiesFreeFoodBuilding");

	push	OFFSET ??_C@_0BK@KFJBPGNL@NumCitiesFreeFoodBuilding?$AA@
	mov	ecx, DWORD PTR _kResults$[ebp]
	call	DWORD PTR __imp_?GetInt@Results@Database@@QAEHPBD@Z
	mov	ecx, DWORD PTR _this$[ebp]
	mov	DWORD PTR [ecx+868], eax

; 460  : 	m_bHalfSpecialistUnhappiness = kResults.GetBool("HalfSpecialistUnhappiness");

	push	OFFSET ??_C@_0BK@MNPNKBOH@HalfSpecialistUnhappiness?$AA@
	mov	ecx, DWORD PTR _kResults$[ebp]
	call	DWORD PTR __imp_?GetBool@Results@Database@@QAE_NPBD@Z
	mov	edx, DWORD PTR _this$[ebp]
	mov	BYTE PTR [edx+872], al

; 461  : 	m_bHalfMoreSpecialistUnhappiness = kResults.GetBool("HalfMoreSpecialistUnhappiness");

	push	OFFSET ??_C@_0BO@JCLIINCC@HalfMoreSpecialistUnhappiness?$AA@
	mov	ecx, DWORD PTR _kResults$[ebp]
	call	DWORD PTR __imp_?GetBool@Results@Database@@QAE_NPBD@Z
	mov	ecx, DWORD PTR _this$[ebp]
	mov	BYTE PTR [ecx+873], al

; 462  : 	m_bHalfSpecialistFood = kResults.GetBool("HalfSpecialistFood");

	push	OFFSET ??_C@_0BD@HOBGLLL@HalfSpecialistFood?$AA@
	mov	ecx, DWORD PTR _kResults$[ebp]
	call	DWORD PTR __imp_?GetBool@Results@Database@@QAE_NPBD@Z
	mov	edx, DWORD PTR _this$[ebp]
	mov	BYTE PTR [edx+874], al

; 463  : 	m_bMilitaryFoodProduction = kResults.GetBool("MilitaryFoodProduction");

	push	OFFSET ??_C@_0BH@PINGGCAG@MilitaryFoodProduction?$AA@
	mov	ecx, DWORD PTR _kResults$[ebp]
	call	DWORD PTR __imp_?GetBool@Results@Database@@QAE_NPBD@Z
	mov	ecx, DWORD PTR _this$[ebp]
	mov	BYTE PTR [ecx+875], al

; 464  : 	m_iMaxConscript = kResults.GetInt("MaxConscript");

	push	OFFSET ??_C@_0N@EHHEPDOA@MaxConscript?$AA@
	mov	ecx, DWORD PTR _kResults$[ebp]
	call	DWORD PTR __imp_?GetInt@Results@Database@@QAEHPBD@Z
	mov	edx, DWORD PTR _this$[ebp]
	mov	DWORD PTR [edx+816], eax

; 465  : 	m_iWoundedUnitDamageMod = kResults.GetInt("WoundedUnitDamageMod");

	push	OFFSET ??_C@_0BF@HBALDEPJ@WoundedUnitDamageMod?$AA@
	mov	ecx, DWORD PTR _kResults$[ebp]
	call	DWORD PTR __imp_?GetInt@Results@Database@@QAEHPBD@Z
	mov	ecx, DWORD PTR _this$[ebp]
	mov	DWORD PTR [ecx+828], eax

; 466  : 	m_iUnitUpgradeCostMod = kResults.GetInt("UnitUpgradeCostMod");

	push	OFFSET ??_C@_0BD@GBJLPLCI@UnitUpgradeCostMod?$AA@
	mov	ecx, DWORD PTR _kResults$[ebp]
	call	DWORD PTR __imp_?GetInt@Results@Database@@QAEHPBD@Z
	mov	edx, DWORD PTR _this$[ebp]
	mov	DWORD PTR [edx+832], eax

; 467  : 	m_iBarbarianCombatBonus = kResults.GetInt("BarbarianCombatBonus");

	push	OFFSET ??_C@_0BF@HFMOGHPJ@BarbarianCombatBonus?$AA@
	mov	ecx, DWORD PTR _kResults$[ebp]
	call	DWORD PTR __imp_?GetInt@Results@Database@@QAEHPBD@Z
	mov	ecx, DWORD PTR _this$[ebp]
	mov	DWORD PTR [ecx+836], eax

; 468  : 	m_bAlwaysSeeBarbCamps = kResults.GetBool("AlwaysSeeBarbCamps");

	push	OFFSET ??_C@_0BD@MDAIKGML@AlwaysSeeBarbCamps?$AA@
	mov	ecx, DWORD PTR _kResults$[ebp]
	call	DWORD PTR __imp_?GetBool@Results@Database@@QAE_NPBD@Z
	mov	edx, DWORD PTR _this$[ebp]
	mov	BYTE PTR [edx+876], al

; 469  : 	m_bRevealAllCapitals = kResults.GetBool("RevealAllCapitals");

	push	OFFSET ??_C@_0BC@DOIJCEHM@RevealAllCapitals?$AA@
	mov	ecx, DWORD PTR _kResults$[ebp]
	call	DWORD PTR __imp_?GetBool@Results@Database@@QAE_NPBD@Z
	mov	ecx, DWORD PTR _this$[ebp]
	mov	BYTE PTR [ecx+877], al

; 470  : 	m_bGarrisonFreeMaintenance = kResults.GetBool("GarrisonFreeMaintenance");

	push	OFFSET ??_C@_0BI@FBAEOHNO@GarrisonFreeMaintenance?$AA@
	mov	ecx, DWORD PTR _kResults$[ebp]
	call	DWORD PTR __imp_?GetBool@Results@Database@@QAE_NPBD@Z
	mov	edx, DWORD PTR _this$[ebp]
	mov	BYTE PTR [edx+878], al

; 471  : 	m_iFreeSpecialist = kResults.GetInt("FreeSpecialist");

	push	OFFSET ??_C@_0P@ONAKJGND@FreeSpecialist?$AA@
	mov	ecx, DWORD PTR _kResults$[ebp]
	call	DWORD PTR __imp_?GetInt@Results@Database@@QAEHPBD@Z
	mov	ecx, DWORD PTR _this$[ebp]
	mov	DWORD PTR [ecx+812], eax

; 472  : 	m_iExpModifier = kResults.GetInt("ExpModifier");

	push	OFFSET ??_C@_0M@OLBPIHKG@ExpModifier?$AA@
	mov	ecx, DWORD PTR _kResults$[ebp]
	call	DWORD PTR __imp_?GetInt@Results@Database@@QAEHPBD@Z
	mov	edx, DWORD PTR _this$[ebp]
	mov	DWORD PTR [edx+628], eax

; 473  : 	m_iExpInBorderModifier = kResults.GetInt("ExpInBorderModifier");

	push	OFFSET ??_C@_0BE@JMMGOOCJ@ExpInBorderModifier?$AA@
	mov	ecx, DWORD PTR _kResults$[ebp]
	call	DWORD PTR __imp_?GetInt@Results@Database@@QAEHPBD@Z
	mov	ecx, DWORD PTR _this$[ebp]
	mov	DWORD PTR [ecx+632], eax

; 474  : 	m_iMinorQuestFriendshipMod = kResults.GetInt("MinorQuestFriendshipMod");

	push	OFFSET ??_C@_0BI@HIEEGHEA@MinorQuestFriendshipMod?$AA@
	mov	ecx, DWORD PTR _kResults$[ebp]
	call	DWORD PTR __imp_?GetInt@Results@Database@@QAEHPBD@Z
	mov	edx, DWORD PTR _this$[ebp]
	mov	DWORD PTR [edx+636], eax

; 475  : 	m_iMinorGoldFriendshipMod = kResults.GetInt("MinorGoldFriendshipMod");

	push	OFFSET ??_C@_0BH@PGJKGPKO@MinorGoldFriendshipMod?$AA@
	mov	ecx, DWORD PTR _kResults$[ebp]
	call	DWORD PTR __imp_?GetInt@Results@Database@@QAEHPBD@Z
	mov	ecx, DWORD PTR _this$[ebp]
	mov	DWORD PTR [ecx+640], eax

; 476  : 	m_iMinorFriendshipMinimum = kResults.GetInt("MinorFriendshipMinimum");

	push	OFFSET ??_C@_0BH@CNJFAHMI@MinorFriendshipMinimum?$AA@
	mov	ecx, DWORD PTR _kResults$[ebp]
	call	DWORD PTR __imp_?GetInt@Results@Database@@QAEHPBD@Z
	mov	edx, DWORD PTR _this$[ebp]
	mov	DWORD PTR [edx+644], eax

; 477  : 	m_iMinorFriendshipDecayMod = kResults.GetInt("MinorFriendshipDecayMod");

	push	OFFSET ??_C@_0BI@EBPAAEPN@MinorFriendshipDecayMod?$AA@
	mov	ecx, DWORD PTR _kResults$[ebp]
	call	DWORD PTR __imp_?GetInt@Results@Database@@QAEHPBD@Z
	mov	ecx, DWORD PTR _this$[ebp]
	mov	DWORD PTR [ecx+648], eax

; 478  : 	m_iOtherPlayersMinorFriendshipDecayMod = kResults.GetInt("OtherPlayersMinorFriendshipDecayMod");

	push	OFFSET ??_C@_0CE@OKMBJAKL@OtherPlayersMinorFriendshipDecay@
	mov	ecx, DWORD PTR _kResults$[ebp]
	call	DWORD PTR __imp_?GetInt@Results@Database@@QAEHPBD@Z
	mov	edx, DWORD PTR _this$[ebp]
	mov	DWORD PTR [edx+652], eax

; 479  : 	m_iCityStateUnitFrequencyModifier = kResults.GetInt("CityStateUnitFrequencyModifier");

	push	OFFSET ??_C@_0BP@BOJEJAGP@CityStateUnitFrequencyModifier?$AA@
	mov	ecx, DWORD PTR _kResults$[ebp]
	call	DWORD PTR __imp_?GetInt@Results@Database@@QAEHPBD@Z
	mov	ecx, DWORD PTR _this$[ebp]
	mov	DWORD PTR [ecx+656], eax

; 480  : 	m_iCommonFoeTourismModifier = kResults.GetInt("CommonFoeTourismModifier");

	push	OFFSET ??_C@_0BJ@ONGDHBAE@CommonFoeTourismModifier?$AA@
	mov	ecx, DWORD PTR _kResults$[ebp]
	call	DWORD PTR __imp_?GetInt@Results@Database@@QAEHPBD@Z
	mov	edx, DWORD PTR _this$[ebp]
	mov	DWORD PTR [edx+660], eax

; 481  : 	m_iLessHappyTourismModifier = kResults.GetInt("LessHappyTourismModifier");

	push	OFFSET ??_C@_0BJ@PKHFPDIL@LessHappyTourismModifier?$AA@
	mov	ecx, DWORD PTR _kResults$[ebp]
	call	DWORD PTR __imp_?GetInt@Results@Database@@QAEHPBD@Z
	mov	ecx, DWORD PTR _this$[ebp]
	mov	DWORD PTR [ecx+664], eax

; 482  : 	m_iSharedIdeologyTourismModifier = kResults.GetInt("SharedIdeologyTourismModifier");

	push	OFFSET ??_C@_0BO@NCHBIENE@SharedIdeologyTourismModifier?$AA@
	mov	ecx, DWORD PTR _kResults$[ebp]
	call	DWORD PTR __imp_?GetInt@Results@Database@@QAEHPBD@Z
	mov	edx, DWORD PTR _this$[ebp]
	mov	DWORD PTR [edx+668], eax

; 483  : 	m_iLandTradeRouteGoldChange = kResults.GetInt("LandTradeRouteGoldChange");

	push	OFFSET ??_C@_0BJ@NPLFFGBN@LandTradeRouteGoldChange?$AA@
	mov	ecx, DWORD PTR _kResults$[ebp]
	call	DWORD PTR __imp_?GetInt@Results@Database@@QAEHPBD@Z
	mov	ecx, DWORD PTR _this$[ebp]
	mov	DWORD PTR [ecx+672], eax

; 484  : 	m_iSeaTradeRouteGoldChange = kResults.GetInt("SeaTradeRouteGoldChange");

	push	OFFSET ??_C@_0BI@JMHDBAJE@SeaTradeRouteGoldChange?$AA@
	mov	ecx, DWORD PTR _kResults$[ebp]
	call	DWORD PTR __imp_?GetInt@Results@Database@@QAEHPBD@Z
	mov	edx, DWORD PTR _this$[ebp]
	mov	DWORD PTR [edx+676], eax

; 485  : 	m_iInternalTradeRouteGoldChange = kResults.GetInt("InternalTradeRouteGoldChange"); // NQMP GJS - Silk Road

	push	OFFSET ??_C@_0BN@PBNBAHDF@InternalTradeRouteGoldChange?$AA@
	mov	ecx, DWORD PTR _kResults$[ebp]
	call	DWORD PTR __imp_?GetInt@Results@Database@@QAEHPBD@Z
	mov	ecx, DWORD PTR _this$[ebp]
	mov	DWORD PTR [ecx+680], eax

; 486  : 	m_iSharedIdeologyTradeGoldChange = kResults.GetInt("SharedIdeologyTradeGoldChange");

	push	OFFSET ??_C@_0BO@LIPLOMJF@SharedIdeologyTradeGoldChange?$AA@
	mov	ecx, DWORD PTR _kResults$[ebp]
	call	DWORD PTR __imp_?GetInt@Results@Database@@QAEHPBD@Z
	mov	edx, DWORD PTR _this$[ebp]
	mov	DWORD PTR [edx+684], eax

; 487  : 
; 488  : 	m_iRiggingElectionModifier = kResults.GetInt("RiggingElectionModifier");

	push	OFFSET ??_C@_0BI@EDFKCKKD@RiggingElectionModifier?$AA@
	mov	ecx, DWORD PTR _kResults$[ebp]
	call	DWORD PTR __imp_?GetInt@Results@Database@@QAEHPBD@Z
	mov	ecx, DWORD PTR _this$[ebp]
	mov	DWORD PTR [ecx+688], eax

; 489  : 	m_iMilitaryUnitGiftExtraInfluence = kResults.GetInt("MilitaryUnitGiftExtraInfluence");

	push	OFFSET ??_C@_0BP@DHAEOHLB@MilitaryUnitGiftExtraInfluence?$AA@
	mov	ecx, DWORD PTR _kResults$[ebp]
	call	DWORD PTR __imp_?GetInt@Results@Database@@QAEHPBD@Z
	mov	edx, DWORD PTR _this$[ebp]
	mov	DWORD PTR [edx+692], eax

; 490  : 	m_iProtectedMinorPerTurnInfluence = kResults.GetInt("ProtectedMinorPerTurnInfluence");

	push	OFFSET ??_C@_0BP@ODMELIBJ@ProtectedMinorPerTurnInfluence?$AA@
	mov	ecx, DWORD PTR _kResults$[ebp]
	call	DWORD PTR __imp_?GetInt@Results@Database@@QAEHPBD@Z
	mov	ecx, DWORD PTR _this$[ebp]
	mov	DWORD PTR [ecx+696], eax

; 491  : 	m_iAfraidMinorPerTurnInfluence = kResults.GetInt("AfraidMinorPerTurnInfluence");

	push	OFFSET ??_C@_0BM@IPHHLIAB@AfraidMinorPerTurnInfluence?$AA@
	mov	ecx, DWORD PTR _kResults$[ebp]
	call	DWORD PTR __imp_?GetInt@Results@Database@@QAEHPBD@Z
	mov	edx, DWORD PTR _this$[ebp]
	mov	DWORD PTR [edx+700], eax

; 492  : 	m_iMinorBullyScoreModifier = kResults.GetInt("MinorBullyScoreModifier");

	push	OFFSET ??_C@_0BI@DFKMMHDF@MinorBullyScoreModifier?$AA@
	mov	ecx, DWORD PTR _kResults$[ebp]
	call	DWORD PTR __imp_?GetInt@Results@Database@@QAEHPBD@Z
	mov	ecx, DWORD PTR _this$[ebp]
	mov	DWORD PTR [ecx+704], eax

; 493  : 	m_iThemingBonusMultiplier = kResults.GetInt("ThemingBonusMultiplier");

	push	OFFSET ??_C@_0BH@NCANENCP@ThemingBonusMultiplier?$AA@
	mov	ecx, DWORD PTR _kResults$[ebp]
	call	DWORD PTR __imp_?GetInt@Results@Database@@QAEHPBD@Z
	mov	edx, DWORD PTR _this$[ebp]
	mov	DWORD PTR [edx+708], eax

; 494  : 	m_iInternalTradeRouteYieldModifier = kResults.GetInt("InternalTradeRouteYieldModifier");

	push	OFFSET ??_C@_0CA@KBPBNEF@InternalTradeRouteYieldModifier?$AA@
	mov	ecx, DWORD PTR _kResults$[ebp]
	call	DWORD PTR __imp_?GetInt@Results@Database@@QAEHPBD@Z
	mov	ecx, DWORD PTR _this$[ebp]
	mov	DWORD PTR [ecx+712], eax

; 495  : #ifdef FRUITY_TRADITION_LANDED_ELITE
; 496  : 	m_iInternalTradeRouteFoodYieldChange = kResults.GetInt("InternalTradeRouteFoodYieldChange");
; 497  : #endif
; 498  : #ifdef NQ_INTERNAL_TRADE_ROUTE_PRODUCTION_YIELD_CHANGE_FROM_POLICIES
; 499  : 	m_iInternalTradeRouteProductionYieldChange = kResults.GetInt("InternalTradeRouteProductionYieldChange");

	push	OFFSET ??_C@_0CI@PIJMLMPB@InternalTradeRouteProductionYiel@
	mov	ecx, DWORD PTR _kResults$[ebp]
	call	DWORD PTR __imp_?GetInt@Results@Database@@QAEHPBD@Z
	mov	edx, DWORD PTR _this$[ebp]
	mov	DWORD PTR [edx+716], eax

; 500  : #endif
; 501  : #ifdef NQ_RAIL_CONNECTION_PRODUCTION_MODIFIER_FROM_POLICIES
; 502  : 	m_iRailConnectionProductionModifier = kResults.GetInt("RailConnectionProductionModifier");

	push	OFFSET ??_C@_0CB@EAENMJPL@RailConnectionProductionModifier@
	mov	ecx, DWORD PTR _kResults$[ebp]
	call	DWORD PTR __imp_?GetInt@Results@Database@@QAEHPBD@Z
	mov	ecx, DWORD PTR _this$[ebp]
	mov	DWORD PTR [ecx+720], eax

; 503  : #endif
; 504  : #ifdef NQ_COMBAT_BONUS_VS_SMALLER_CIV_FROM_POLICIES
; 505  : 	m_iCombatBonusVsSmallerCiv = kResults.GetInt("CombatBonusVsSmallerCiv");

	push	OFFSET ??_C@_0BI@NMJFENFF@CombatBonusVsSmallerCiv?$AA@
	mov	ecx, DWORD PTR _kResults$[ebp]
	call	DWORD PTR __imp_?GetInt@Results@Database@@QAEHPBD@Z
	mov	edx, DWORD PTR _this$[ebp]
	mov	DWORD PTR [edx+724], eax

; 506  : #endif
; 507  : #ifdef NQ_PRODUCTION_TO_GREAT_MUSICIANS_MODIFIER_FROM_POLICIES
; 508  : 	m_iProductionToGreatMusiciansModifier = kResults.GetInt("ProductionToGreatMusiciansModifier");

	push	OFFSET ??_C@_0CD@PLONLNAF@ProductionToGreatMusiciansModifi@
	mov	ecx, DWORD PTR _kResults$[ebp]
	call	DWORD PTR __imp_?GetInt@Results@Database@@QAEHPBD@Z
	mov	ecx, DWORD PTR _this$[ebp]
	mov	DWORD PTR [ecx+728], eax

; 509  : #endif
; 510  : #ifdef NQ_TRADE_MISSION_INFLUENCE_MODIFIER_FROM_POLICIES
; 511  : 	m_iTradeMissionInfluenceModifier = kResults.GetInt("TradeMissionInfluenceModifier");

	push	OFFSET ??_C@_0BO@JKAGNMLN@TradeMissionInfluenceModifier?$AA@
	mov	ecx, DWORD PTR _kResults$[ebp]
	call	DWORD PTR __imp_?GetInt@Results@Database@@QAEHPBD@Z
	mov	edx, DWORD PTR _this$[ebp]
	mov	DWORD PTR [edx+732], eax

; 512  : #endif
; 513  : #ifdef NQ_SCIENCE_PER_GREAT_PERSON_BORN_FROM_POLICIES
; 514  : 	m_iSciencePerGreatPersonBorn = kResults.GetInt("SciencePerGreatPersonBorn");

	push	OFFSET ??_C@_0BK@NKEMBBH@SciencePerGreatPersonBorn?$AA@
	mov	ecx, DWORD PTR _kResults$[ebp]
	call	DWORD PTR __imp_?GetInt@Results@Database@@QAEHPBD@Z
	mov	ecx, DWORD PTR _this$[ebp]
	mov	DWORD PTR [ecx+736], eax

; 515  : #endif
; 516  : #ifdef NQ_INFLUENCE_BOOST_PER_GREAT_PERSON_BORN_FROM_POLICIES
; 517  : 	m_iInfluenceBoostPerGreatPersonBorn = kResults.GetInt("InfluenceBoostPerGreatPersonBorn");

	push	OFFSET ??_C@_0CB@IIFBEMOI@InfluenceBoostPerGreatPersonBorn@
	mov	ecx, DWORD PTR _kResults$[ebp]
	call	DWORD PTR __imp_?GetInt@Results@Database@@QAEHPBD@Z
	mov	edx, DWORD PTR _this$[ebp]
	mov	DWORD PTR [edx+740], eax

; 518  : #endif
; 519  : #ifdef NQ_TOURISM_FROM_TRADE_MISSIONS_FROM_POLICIES
; 520  : 	m_iTourismFromTradeMissions = kResults.GetInt("TourismFromTradeMissions");

	push	OFFSET ??_C@_0BJ@EMLAAIA@TourismFromTradeMissions?$AA@
	mov	ecx, DWORD PTR _kResults$[ebp]
	call	DWORD PTR __imp_?GetInt@Results@Database@@QAEHPBD@Z
	mov	ecx, DWORD PTR _this$[ebp]
	mov	DWORD PTR [ecx+744], eax

; 521  : #endif
; 522  : #ifdef NQ_HAPPINESS_FROM_GREAT_IMPROVEMENTS_FROM_POLICIES
; 523  : 	m_iHappinessFromGreatImprovements = kResults.GetInt("HappinessFromGreatImprovements");

	push	OFFSET ??_C@_0BP@GOECOIG@HappinessFromGreatImprovements?$AA@
	mov	ecx, DWORD PTR _kResults$[ebp]
	call	DWORD PTR __imp_?GetInt@Results@Database@@QAEHPBD@Z
	mov	edx, DWORD PTR _this$[ebp]
	mov	DWORD PTR [edx+748], eax

; 524  : #endif
; 525  : #ifdef NQ_MINOR_FRIENDSHIP_GAIN_BULLY_GOLD_SUCCESS_FROM_POLICIES
; 526  : 	m_iMinorFriendshipGainBullyGoldSuccess = kResults.GetInt("MinorFriendshipGainBullyGoldSuccess");

	push	OFFSET ??_C@_0CE@DKCEDOAL@MinorFriendshipGainBullyGoldSucc@
	mov	ecx, DWORD PTR _kResults$[ebp]
	call	DWORD PTR __imp_?GetInt@Results@Database@@QAEHPBD@Z
	mov	ecx, DWORD PTR _this$[ebp]
	mov	DWORD PTR [ecx+752], eax

; 527  : #endif
; 528  : #ifdef NQ_COUP_CHANCE_MODIFIER_FROM_POLICIES
; 529  : 	m_iCoupChanceModifier = kResults.GetInt("CoupChanceModifier");

	push	OFFSET ??_C@_0BD@GIMAOKOM@CoupChanceModifier?$AA@
	mov	ecx, DWORD PTR _kResults$[ebp]
	call	DWORD PTR __imp_?GetInt@Results@Database@@QAEHPBD@Z
	mov	edx, DWORD PTR _this$[ebp]
	mov	DWORD PTR [edx+756], eax

; 530  : #endif
; 531  : 	m_iSharedReligionTourismModifier = kResults.GetInt("SharedReligionTourismModifier");

	push	OFFSET ??_C@_0BO@GLBABIPM@SharedReligionTourismModifier?$AA@
	mov	ecx, DWORD PTR _kResults$[ebp]
	call	DWORD PTR __imp_?GetInt@Results@Database@@QAEHPBD@Z
	mov	ecx, DWORD PTR _this$[ebp]
	mov	DWORD PTR [ecx+760], eax

; 532  : 	m_iTradeRouteTourismModifier = kResults.GetInt("TradeRouteTourismModifier");

	push	OFFSET ??_C@_0BK@LGCJBFHM@TradeRouteTourismModifier?$AA@
	mov	ecx, DWORD PTR _kResults$[ebp]
	call	DWORD PTR __imp_?GetInt@Results@Database@@QAEHPBD@Z
	mov	edx, DWORD PTR _this$[ebp]
	mov	DWORD PTR [edx+764], eax

; 533  : 	m_iOpenBordersTourismModifier = kResults.GetInt("OpenBordersTourismModifier");

	push	OFFSET ??_C@_0BL@BBIFLCLM@OpenBordersTourismModifier?$AA@
	mov	ecx, DWORD PTR _kResults$[ebp]
	call	DWORD PTR __imp_?GetInt@Results@Database@@QAEHPBD@Z
	mov	ecx, DWORD PTR _this$[ebp]
	mov	DWORD PTR [ecx+768], eax

; 534  : 	m_iCityStateTradeChange = kResults.GetInt("CityStateTradeChange");

	push	OFFSET ??_C@_0BF@MKBOLOFE@CityStateTradeChange?$AA@
	mov	ecx, DWORD PTR _kResults$[ebp]
	call	DWORD PTR __imp_?GetInt@Results@Database@@QAEHPBD@Z
	mov	edx, DWORD PTR _this$[ebp]
	mov	DWORD PTR [edx+772], eax

; 535  : 	m_bMinorGreatPeopleAllies = kResults.GetBool("MinorGreatPeopleAllies");

	push	OFFSET ??_C@_0BH@NDGBALIP@MinorGreatPeopleAllies?$AA@
	mov	ecx, DWORD PTR _kResults$[ebp]
	call	DWORD PTR __imp_?GetBool@Results@Database@@QAE_NPBD@Z
	mov	ecx, DWORD PTR _this$[ebp]
	mov	BYTE PTR [ecx+776], al

; 536  : 	m_bMinorScienceAllies = kResults.GetBool("MinorScienceAllies");

	push	OFFSET ??_C@_0BD@OIOEBHLN@MinorScienceAllies?$AA@
	mov	ecx, DWORD PTR _kResults$[ebp]
	call	DWORD PTR __imp_?GetBool@Results@Database@@QAE_NPBD@Z
	mov	edx, DWORD PTR _this$[ebp]
	mov	BYTE PTR [edx+777], al

; 537  : 	m_bMinorResourceBonus = kResults.GetBool("MinorResourceBonus");

	push	OFFSET ??_C@_0BD@LDBBMJHF@MinorResourceBonus?$AA@
	mov	ecx, DWORD PTR _kResults$[ebp]
	call	DWORD PTR __imp_?GetBool@Results@Database@@QAE_NPBD@Z
	mov	ecx, DWORD PTR _this$[ebp]
	mov	BYTE PTR [ecx+778], al

; 538  : 	m_iMinorMilitaryNumExtraUnitsToGift = kResults.GetInt("MinorMilitaryNumExtraUnitsToGift"); // NQMP GJS - Patronage Finisher

	push	OFFSET ??_C@_0CB@INOPFAOD@MinorMilitaryNumExtraUnitsToGift@
	mov	ecx, DWORD PTR _kResults$[ebp]
	call	DWORD PTR __imp_?GetInt@Results@Database@@QAEHPBD@Z
	mov	edx, DWORD PTR _this$[ebp]
	mov	DWORD PTR [edx+780], eax

; 539  : 	m_iCityStateBonusModifier = kResults.GetInt("CityStateBonusModifier"); // NQMP GJS - Patronage Finisher

	push	OFFSET ??_C@_0BH@BJAEBEN@CityStateBonusModifier?$AA@
	mov	ecx, DWORD PTR _kResults$[ebp]
	call	DWORD PTR __imp_?GetInt@Results@Database@@QAEHPBD@Z
	mov	ecx, DWORD PTR _this$[ebp]
	mov	DWORD PTR [ecx+784], eax

; 540  : 	m_iExtraTerritoryClaim = kResults.GetInt("ExtraTerritoryClaim"); // NQMP GJS - Colonialism

	push	OFFSET ??_C@_0BE@GFLBEIAH@ExtraTerritoryClaim?$AA@
	mov	ecx, DWORD PTR _kResults$[ebp]
	call	DWORD PTR __imp_?GetInt@Results@Database@@QAEHPBD@Z
	mov	edx, DWORD PTR _this$[ebp]
	mov	DWORD PTR [edx+788], eax

; 541  : 	m_iExtraTourismPerGreatWork = kResults.GetInt("ExtraTourismPerGreatWork"); // NQMP GJS - Cultural Exchange

	push	OFFSET ??_C@_0BJ@PPFAPLBM@ExtraTourismPerGreatWork?$AA@
	mov	ecx, DWORD PTR _kResults$[ebp]
	call	DWORD PTR __imp_?GetInt@Results@Database@@QAEHPBD@Z
	mov	ecx, DWORD PTR _this$[ebp]
	mov	DWORD PTR [ecx+792], eax

; 542  : 	m_iTourismPerWonder = kResults.GetInt("TourismPerWonder"); // NQMP GJS - Flourishing of the Arts

	push	OFFSET ??_C@_0BB@FIJKHBME@TourismPerWonder?$AA@
	mov	ecx, DWORD PTR _kResults$[ebp]
	call	DWORD PTR __imp_?GetInt@Results@Database@@QAEHPBD@Z
	mov	edx, DWORD PTR _this$[ebp]
	mov	DWORD PTR [edx+796], eax

; 543  : #ifdef NQ_TOURISM_PER_CITY
; 544  : 	m_iTourismPerCity = kResults.GetInt("TourismPerCity");

	push	OFFSET ??_C@_0P@DMNLMCNC@TourismPerCity?$AA@
	mov	ecx, DWORD PTR _kResults$[ebp]
	call	DWORD PTR __imp_?GetInt@Results@Database@@QAEHPBD@Z
	mov	ecx, DWORD PTR _this$[ebp]
	mov	DWORD PTR [ecx+800], eax

; 545  : #endif
; 546  : #ifdef NQ_IDEOLOGY_PRESSURE_UNHAPPINESS_MODIFIER_FROM_POLICIES
; 547  : 	m_iIdeologyPressureUnhappinessModifier = kResults.GetInt("IdeologyPressureUnhappinessModifier");

	push	OFFSET ??_C@_0CE@FEKIMMKI@IdeologyPressureUnhappinessModif@
	mov	ecx, DWORD PTR _kResults$[ebp]
	call	DWORD PTR __imp_?GetInt@Results@Database@@QAEHPBD@Z
	mov	edx, DWORD PTR _this$[ebp]
	mov	DWORD PTR [edx+804], eax

; 548  : #endif
; 549  : 
; 550  : 	m_iProductionFromGarrison = kResults.GetInt("ProductionFromGarrison"); // NQMP GJS - Military Caste

	push	OFFSET ??_C@_0BH@BHOFEKLH@ProductionFromGarrison?$AA@
	mov	ecx, DWORD PTR _kResults$[ebp]
	call	DWORD PTR __imp_?GetInt@Results@Database@@QAEHPBD@Z
	mov	ecx, DWORD PTR _this$[ebp]
	mov	DWORD PTR [ecx+808], eax

; 551  : 	m_bGoldenAgeCultureBonusDisabled = kResults.GetBool("GoldenAgeCultureBonusDisabled");

	push	OFFSET ??_C@_0BO@FKDEDCGL@GoldenAgeCultureBonusDisabled?$AA@
	mov	ecx, DWORD PTR _kResults$[ebp]
	call	DWORD PTR __imp_?GetBool@Results@Database@@QAE_NPBD@Z
	mov	edx, DWORD PTR _this$[ebp]
	mov	BYTE PTR [edx+879], al

; 552  : 	m_bSecondReligionPantheon = kResults.GetBool("SecondReligionPantheon");

	push	OFFSET ??_C@_0BH@KEAINGJC@SecondReligionPantheon?$AA@
	mov	ecx, DWORD PTR _kResults$[ebp]
	call	DWORD PTR __imp_?GetBool@Results@Database@@QAE_NPBD@Z
	mov	ecx, DWORD PTR _this$[ebp]
	mov	BYTE PTR [ecx+880], al

; 553  : 	m_bAddReformationBelief = kResults.GetBool("AddReformationBelief");

	push	OFFSET ??_C@_0BF@GEHLOEOL@AddReformationBelief?$AA@
	mov	ecx, DWORD PTR _kResults$[ebp]
	call	DWORD PTR __imp_?GetBool@Results@Database@@QAE_NPBD@Z
	mov	edx, DWORD PTR _this$[ebp]
	mov	BYTE PTR [edx+881], al

; 554  : 	m_bEnablesSSPartHurry = kResults.GetBool("EnablesSSPartHurry");

	push	OFFSET ??_C@_0BD@PONKBHPA@EnablesSSPartHurry?$AA@
	mov	ecx, DWORD PTR _kResults$[ebp]
	call	DWORD PTR __imp_?GetBool@Results@Database@@QAE_NPBD@Z
	mov	ecx, DWORD PTR _this$[ebp]
	mov	BYTE PTR [ecx+882], al

; 555  : #ifdef NQ_DIABLE_RESISTANCE_TIME_VIA_POLICIES
; 556  : 	m_bDisablesResistanceTime = kResults.GetBool("DisablesResistanceTime");

	push	OFFSET ??_C@_0BH@FDMMCIJH@DisablesResistanceTime?$AA@
	mov	ecx, DWORD PTR _kResults$[ebp]
	call	DWORD PTR __imp_?GetBool@Results@Database@@QAE_NPBD@Z
	mov	edx, DWORD PTR _this$[ebp]
	mov	BYTE PTR [edx+883], al

; 557  : #endif
; 558  : #ifdef NQ_PATRIOTIC_WAR
; 559  : 	m_bDoubleTrainedMilitaryLandUnit = kResults.GetBool("IsDoubleTrainedMilitaryLandUnits");

	push	OFFSET ??_C@_0CB@GIDMBFM@IsDoubleTrainedMilitaryLandUnits@
	mov	ecx, DWORD PTR _kResults$[ebp]
	call	DWORD PTR __imp_?GetBool@Results@Database@@QAE_NPBD@Z
	mov	ecx, DWORD PTR _this$[ebp]
	mov	BYTE PTR [ecx+884], al

; 560  : #endif
; 561  : #ifdef NQ_WAR_HERO
; 562  : 	m_bWarHero = kResults.GetBool("IsWarHero");

	push	OFFSET ??_C@_09FCFHIKFI@IsWarHero?$AA@
	mov	ecx, DWORD PTR _kResults$[ebp]
	call	DWORD PTR __imp_?GetBool@Results@Database@@QAE_NPBD@Z
	mov	edx, DWORD PTR _this$[ebp]
	mov	BYTE PTR [edx+885], al

; 563  : #endif
; 564  : #ifdef NQ_IGNORE_PUPPETS_FOR_RESEARCH_COSTS_FROM_POLICIES
; 565  : 	m_bIgnorePuppetsForResearchCosts = kResults.GetBool("IgnorePuppetsForResearchCosts");
; 566  : #endif
; 567  : #ifdef NQ_POLICY_TOGGLE_NO_MINOR_DOW_IF_FRIENDS
; 568  : 	m_bNoMinorDOWIfFriends = kResults.GetBool("NoMinorDOWIfFriends");

	push	OFFSET ??_C@_0BE@PCLBMPHC@NoMinorDOWIfFriends?$AA@
	mov	ecx, DWORD PTR _kResults$[ebp]
	call	DWORD PTR __imp_?GetBool@Results@Database@@QAE_NPBD@Z
	mov	ecx, DWORD PTR _this$[ebp]
	mov	BYTE PTR [ecx+886], al

; 569  : #endif
; 570  : #ifdef NQ_ALLOW_PUPPET_PURCHASING_FROM_POLICIES
; 571  : 	m_bAllowPuppetPurchasing = kResults.GetBool("AllowPuppetPurchasing");

	push	OFFSET ??_C@_0BG@BGMJCDCP@AllowPuppetPurchasing?$AA@
	mov	ecx, DWORD PTR _kResults$[ebp]
	call	DWORD PTR __imp_?GetBool@Results@Database@@QAE_NPBD@Z
	mov	edx, DWORD PTR _this$[ebp]
	mov	BYTE PTR [edx+887], al

; 572  : #endif
; 573  : 
; 574  : 	m_bEnablesSSPartPurchase = kResults.GetBool("EnablesSSPartPurchase");

	push	OFFSET ??_C@_0BG@JJPEJKJK@EnablesSSPartPurchase?$AA@
	mov	ecx, DWORD PTR _kResults$[ebp]
	call	DWORD PTR __imp_?GetBool@Results@Database@@QAE_NPBD@Z
	mov	ecx, DWORD PTR _this$[ebp]
	mov	BYTE PTR [ecx+888], al

; 575  : 	m_bAbleToAnnexCityStates = kResults.GetBool("AbleToAnnexCityStates");

	push	OFFSET ??_C@_0BG@CDIIOFIJ@AbleToAnnexCityStates?$AA@
	mov	ecx, DWORD PTR _kResults$[ebp]
	call	DWORD PTR __imp_?GetBool@Results@Database@@QAE_NPBD@Z
	mov	edx, DWORD PTR _this$[ebp]
	mov	BYTE PTR [edx+889], al

; 576  : 	m_bOneShot = kResults.GetBool("OneShot");

	push	OFFSET ??_C@_07GACJADJO@OneShot?$AA@
	mov	ecx, DWORD PTR _kResults$[ebp]
	call	DWORD PTR __imp_?GetBool@Results@Database@@QAE_NPBD@Z
	mov	ecx, DWORD PTR _this$[ebp]
	mov	BYTE PTR [ecx+890], al

; 577  : 	m_bIncludesOneShotFreeUnits = kResults.GetBool("IncludesOneShotFreeUnits");

	push	OFFSET ??_C@_0BJ@HFFJCDOB@IncludesOneShotFreeUnits?$AA@
	mov	ecx, DWORD PTR _kResults$[ebp]
	call	DWORD PTR __imp_?GetBool@Results@Database@@QAE_NPBD@Z
	mov	edx, DWORD PTR _this$[ebp]
	mov	BYTE PTR [edx+891], al

; 578  : 
; 579  : 	m_strWeLoveTheKingKey = kResults.GetText("WeLoveTheKing");

	push	OFFSET ??_C@_0O@FEEMIMFP@WeLoveTheKing?$AA@
	mov	ecx, DWORD PTR _kResults$[ebp]
	call	DWORD PTR __imp_?GetText@Results@Database@@QAEPBDPBD@Z
	mov	DWORD PTR $T231433[ebp], eax
	mov	eax, DWORD PTR _this$[ebp]
	add	eax, 892				; 0000037cH
	mov	DWORD PTR $T231432[ebp], eax
	cmp	DWORD PTR $T231433[ebp], 0
	je	SHORT $LN36@CacheResul
	mov	ecx, DWORD PTR $T231433[ebp]
	push	ecx
	mov	ecx, DWORD PTR $T231432[ebp]
	call	DWORD PTR __imp_?assign@?$basic_string@DU?$char_traits@D@std@@V?$allocator@D@2@@std@@QAEAAV12@PBD@Z
	jmp	SHORT $LN37@CacheResul
$LN36@CacheResul:
	mov	ecx, DWORD PTR $T231432[ebp]
	call	DWORD PTR __imp_?clear@?$basic_string@DU?$char_traits@D@std@@V?$allocator@D@2@@std@@QAEXXZ
$LN37@CacheResul:

; 580  : 	m_wstrWeLoveTheKing = GetLocalizedText(m_strWeLoveTheKingKey);

	mov	ecx, DWORD PTR _this$[ebp]
	add	ecx, 892				; 0000037cH
	call	DWORD PTR __imp_?c_str@?$basic_string@DU?$char_traits@D@std@@V?$allocator@D@2@@std@@QBEPBDXZ
	mov	DWORD PTR $T231437[ebp], eax
	mov	edx, DWORD PTR $T231437[ebp]
	push	edx
	lea	eax, DWORD PTR $T231413[ebp]
	push	eax
	call	?GetLocalizedText@@YA?AVCvString@@PBD@Z	; GetLocalizedText
	add	esp, 8
	mov	DWORD PTR tv1765[ebp], eax
	mov	ecx, DWORD PTR tv1765[ebp]
	mov	DWORD PTR $T231442[ebp], ecx
	mov	DWORD PTR __$EHRec$[ebp+8], 0
	mov	edx, DWORD PTR _this$[ebp]
	add	edx, 920				; 00000398H
	mov	DWORD PTR $T231441[ebp], edx
	mov	eax, DWORD PTR $T231442[ebp]
	push	eax
	mov	ecx, DWORD PTR $T231441[ebp]
	call	DWORD PTR __imp_??4?$basic_string@DU?$char_traits@D@std@@V?$allocator@D@2@@std@@QAEAAV01@ABV01@@Z
	mov	DWORD PTR __$EHRec$[ebp+8], -1
	lea	ecx, DWORD PTR $T231413[ebp]
	call	DWORD PTR __imp_??1?$basic_string@DU?$char_traits@D@std@@V?$allocator@D@2@@std@@QAE@XZ

; 581  : 
; 582  : 	//References
; 583  : 	const char* szTechPrereq = kResults.GetText("TechPrereq");

	push	OFFSET ??_C@_0L@IANCLNMF@TechPrereq?$AA@
	mov	ecx, DWORD PTR _kResults$[ebp]
	call	DWORD PTR __imp_?GetText@Results@Database@@QAEPBDPBD@Z
	mov	DWORD PTR _szTechPrereq$[ebp], eax

; 584  : 	m_iTechPrereq = GC.getInfoTypeForString(szTechPrereq, true);

	push	1
	mov	ecx, DWORD PTR _szTechPrereq$[ebp]
	push	ecx
	mov	ecx, OFFSET ?gGlobals@@3VCvGlobals@@A	; gGlobals
	call	?getInfoTypeForString@CvGlobals@@QBEHPBD_N@Z ; CvGlobals::getInfoTypeForString
	mov	edx, DWORD PTR _this$[ebp]
	mov	DWORD PTR [edx+260], eax

; 585  : 
; 586  : 	const char* szPolicyBranchType = kResults.GetText("PolicyBranchType");

	push	OFFSET ??_C@_0BB@NPPBPBOI@PolicyBranchType?$AA@
	mov	ecx, DWORD PTR _kResults$[ebp]
	call	DWORD PTR __imp_?GetText@Results@Database@@QAEPBDPBD@Z
	mov	DWORD PTR _szPolicyBranchType$[ebp], eax

; 587  : 	m_iPolicyBranchType = GC.getInfoTypeForString(szPolicyBranchType, true);

	push	1
	mov	eax, DWORD PTR _szPolicyBranchType$[ebp]
	push	eax
	mov	ecx, OFFSET ?gGlobals@@3VCvGlobals@@A	; gGlobals
	call	?getInfoTypeForString@CvGlobals@@QBEHPBD_N@Z ; CvGlobals::getInfoTypeForString
	mov	ecx, DWORD PTR _this$[ebp]
	mov	DWORD PTR [ecx+820], eax

; 588  : 
; 589  : 	m_iNumExtraBranches = kResults.GetInt("NumExtraBranches");

	push	OFFSET ??_C@_0BB@MAJHKHNK@NumExtraBranches?$AA@
	mov	ecx, DWORD PTR _kResults$[ebp]
	call	DWORD PTR __imp_?GetInt@Results@Database@@QAEHPBD@Z
	mov	edx, DWORD PTR _this$[ebp]
	mov	DWORD PTR [edx+824], eax

; 590  : 
; 591  : 	const char* szFreeBuilding = kResults.GetText("FreeBuildingOnConquest");

	push	OFFSET ??_C@_0BH@MPDGGDMG@FreeBuildingOnConquest?$AA@
	mov	ecx, DWORD PTR _kResults$[ebp]
	call	DWORD PTR __imp_?GetText@Results@Database@@QAEPBDPBD@Z
	mov	DWORD PTR _szFreeBuilding$[ebp], eax

; 592  : 	if(szFreeBuilding)

	cmp	DWORD PTR _szFreeBuilding$[ebp], 0
	je	SHORT $LN46@CacheResul

; 593  : 	{
; 594  : 		m_eFreeBuildingOnConquest = (BuildingTypes)GC.getInfoTypeForString(szFreeBuilding, true);

	push	1
	mov	eax, DWORD PTR _szFreeBuilding$[ebp]
	push	eax
	mov	ecx, OFFSET ?gGlobals@@3VCvGlobals@@A	; gGlobals
	call	?getInfoTypeForString@CvGlobals@@QBEHPBD_N@Z ; CvGlobals::getInfoTypeForString
	mov	ecx, DWORD PTR _this$[ebp]
	mov	DWORD PTR [ecx+948], eax

; 595  : 	}
; 596  : 
; 597  : 	//Arrays
; 598  : 	const char* szPolicyType = GetType();

$LN46@CacheResul:
	mov	ecx, DWORD PTR _this$[ebp]
	add	ecx, 176				; 000000b0H
	call	DWORD PTR __imp_?c_str@?$basic_string@DU?$char_traits@D@std@@V?$allocator@D@2@@std@@QBEPBDXZ
	mov	DWORD PTR _szPolicyType$[ebp], eax

; 599  : 	kUtility.SetYields(m_piYieldModifier, "Policy_YieldModifiers", "PolicyType", szPolicyType);

	mov	edx, DWORD PTR _szPolicyType$[ebp]
	push	edx
	push	OFFSET ??_C@_0L@LIHFHODE@PolicyType?$AA@
	push	OFFSET ??_C@_0BG@KPLKNJFC@Policy_YieldModifiers?$AA@
	mov	eax, DWORD PTR _this$[ebp]
	add	eax, 976				; 000003d0H
	push	eax
	mov	ecx, DWORD PTR _kUtility$[ebp]
	call	?SetYields@CvDatabaseUtility@@QAE_NAAPAHPBD11@Z ; CvDatabaseUtility::SetYields

; 600  : 	kUtility.SetYields(m_piCityYieldChange, "Policy_CityYieldChanges", "PolicyType", szPolicyType);

	mov	ecx, DWORD PTR _szPolicyType$[ebp]
	push	ecx
	push	OFFSET ??_C@_0L@LIHFHODE@PolicyType?$AA@
	push	OFFSET ??_C@_0BI@KKDHIEEK@Policy_CityYieldChanges?$AA@
	mov	edx, DWORD PTR _this$[ebp]
	add	edx, 980				; 000003d4H
	push	edx
	mov	ecx, DWORD PTR _kUtility$[ebp]
	call	?SetYields@CvDatabaseUtility@@QAE_NAAPAHPBD11@Z ; CvDatabaseUtility::SetYields

; 601  : 	kUtility.SetYields(m_piCoastalCityYieldChange, "Policy_CoastalCityYieldChanges", "PolicyType", szPolicyType);

	mov	eax, DWORD PTR _szPolicyType$[ebp]
	push	eax
	push	OFFSET ??_C@_0L@LIHFHODE@PolicyType?$AA@
	push	OFFSET ??_C@_0BP@NJFEBBPC@Policy_CoastalCityYieldChanges?$AA@
	mov	ecx, DWORD PTR _this$[ebp]
	add	ecx, 984				; 000003d8H
	push	ecx
	mov	ecx, DWORD PTR _kUtility$[ebp]
	call	?SetYields@CvDatabaseUtility@@QAE_NAAPAHPBD11@Z ; CvDatabaseUtility::SetYields

; 602  : 	kUtility.SetYields(m_piCapitalYieldChange, "Policy_CapitalYieldChanges", "PolicyType", szPolicyType);

	mov	edx, DWORD PTR _szPolicyType$[ebp]
	push	edx
	push	OFFSET ??_C@_0L@LIHFHODE@PolicyType?$AA@
	push	OFFSET ??_C@_0BL@CCCEKMJN@Policy_CapitalYieldChanges?$AA@
	mov	eax, DWORD PTR _this$[ebp]
	add	eax, 988				; 000003dcH
	push	eax
	mov	ecx, DWORD PTR _kUtility$[ebp]
	call	?SetYields@CvDatabaseUtility@@QAE_NAAPAHPBD11@Z ; CvDatabaseUtility::SetYields

; 603  : 	kUtility.SetYields(m_piCapitalYieldPerPopChange, "Policy_CapitalYieldPerPopChanges", "PolicyType", szPolicyType);

	mov	ecx, DWORD PTR _szPolicyType$[ebp]
	push	ecx
	push	OFFSET ??_C@_0L@LIHFHODE@PolicyType?$AA@
	push	OFFSET ??_C@_0CB@JNJCBEJA@Policy_CapitalYieldPerPopChanges@
	mov	edx, DWORD PTR _this$[ebp]
	add	edx, 992				; 000003e0H
	push	edx
	mov	ecx, DWORD PTR _kUtility$[ebp]
	call	?SetYields@CvDatabaseUtility@@QAE_NAAPAHPBD11@Z ; CvDatabaseUtility::SetYields

; 604  : 	kUtility.SetYields(m_piCapitalYieldModifier, "Policy_CapitalYieldModifiers", "PolicyType", szPolicyType);

	mov	eax, DWORD PTR _szPolicyType$[ebp]
	push	eax
	push	OFFSET ??_C@_0L@LIHFHODE@PolicyType?$AA@
	push	OFFSET ??_C@_0BN@MENJPEMM@Policy_CapitalYieldModifiers?$AA@
	mov	ecx, DWORD PTR _this$[ebp]
	add	ecx, 996				; 000003e4H
	push	ecx
	mov	ecx, DWORD PTR _kUtility$[ebp]
	call	?SetYields@CvDatabaseUtility@@QAE_NAAPAHPBD11@Z ; CvDatabaseUtility::SetYields

; 605  : 	kUtility.SetYields(m_piGreatWorkYieldChange, "Policy_GreatWorkYieldChanges", "PolicyType", szPolicyType);

	mov	edx, DWORD PTR _szPolicyType$[ebp]
	push	edx
	push	OFFSET ??_C@_0L@LIHFHODE@PolicyType?$AA@
	push	OFFSET ??_C@_0BN@MFJLJONG@Policy_GreatWorkYieldChanges?$AA@
	mov	eax, DWORD PTR _this$[ebp]
	add	eax, 1000				; 000003e8H
	push	eax
	mov	ecx, DWORD PTR _kUtility$[ebp]
	call	?SetYields@CvDatabaseUtility@@QAE_NAAPAHPBD11@Z ; CvDatabaseUtility::SetYields

; 606  : 	kUtility.SetYields(m_piSpecialistExtraYield, "Policy_SpecialistExtraYields", "PolicyType", szPolicyType);

	mov	ecx, DWORD PTR _szPolicyType$[ebp]
	push	ecx
	push	OFFSET ??_C@_0L@LIHFHODE@PolicyType?$AA@
	push	OFFSET ??_C@_0BN@JKGJDLCA@Policy_SpecialistExtraYields?$AA@
	mov	edx, DWORD PTR _this$[ebp]
	add	edx, 1004				; 000003ecH
	push	edx
	mov	ecx, DWORD PTR _kUtility$[ebp]
	call	?SetYields@CvDatabaseUtility@@QAE_NAAPAHPBD11@Z ; CvDatabaseUtility::SetYields

; 607  : 
; 608  : 	kUtility.SetFlavors(m_piFlavorValue, "Policy_Flavors", "PolicyType", szPolicyType);

	push	0
	mov	eax, DWORD PTR _szPolicyType$[ebp]
	push	eax
	push	OFFSET ??_C@_0L@LIHFHODE@PolicyType?$AA@
	push	OFFSET ??_C@_0P@BFDDJDDA@Policy_Flavors?$AA@
	mov	ecx, DWORD PTR _this$[ebp]
	add	ecx, 1068				; 0000042cH
	push	ecx
	mov	ecx, DWORD PTR _kUtility$[ebp]
	call	?SetFlavors@CvDatabaseUtility@@QAE_NAAPAHPBD11H@Z ; CvDatabaseUtility::SetFlavors

; 609  : 
; 610  : 	kUtility.PopulateArrayByValue(m_paiHurryModifier, "HurryInfos", "Policy_HurryModifiers", "HurryType", "PolicyType", szPolicyType, "HurryCostModifier");

	push	0
	push	0
	push	OFFSET ??_C@_0BC@KALJCKJH@HurryCostModifier?$AA@
	mov	edx, DWORD PTR _szPolicyType$[ebp]
	push	edx
	push	OFFSET ??_C@_0L@LIHFHODE@PolicyType?$AA@
	push	OFFSET ??_C@_09FFMCMAO@HurryType?$AA@
	push	OFFSET ??_C@_0BG@FHFLCHBI@Policy_HurryModifiers?$AA@
	push	OFFSET ??_C@_0L@PGMCIMFM@HurryInfos?$AA@
	mov	eax, DWORD PTR _this$[ebp]
	add	eax, 1024				; 00000400H
	push	eax
	mov	ecx, DWORD PTR _kUtility$[ebp]
	call	?PopulateArrayByValue@CvDatabaseUtility@@QAE_NAAPAHPBD11111HH@Z ; CvDatabaseUtility::PopulateArrayByValue

; 611  : 
; 612  : 	kUtility.PopulateArrayByExistence(m_pabSpecialistValid, "Specialists", "Policy_ValidSpecialists", "SpecialistType", "PolicyType", szPolicyType);

	mov	ecx, DWORD PTR _szPolicyType$[ebp]
	push	ecx
	push	OFFSET ??_C@_0L@LIHFHODE@PolicyType?$AA@
	push	OFFSET ??_C@_0P@KLBEOMLO@SpecialistType?$AA@
	push	OFFSET ??_C@_0BI@BPBDIBOC@Policy_ValidSpecialists?$AA@
	push	OFFSET ??_C@_0M@EENMFCNN@Specialists?$AA@
	mov	edx, DWORD PTR _this$[ebp]
	add	edx, 1052				; 0000041cH
	push	edx
	mov	ecx, DWORD PTR _kUtility$[ebp]
	call	?PopulateArrayByExistence@CvDatabaseUtility@@QAE_NAAPA_NPBD1111@Z ; CvDatabaseUtility::PopulateArrayByExistence

; 613  : 
; 614  : 	kUtility.PopulateArrayByExistence(m_pabFreePromotion, "UnitPromotions", "Policy_FreePromotions", "PromotionType", "PolicyType", szPolicyType);

	mov	eax, DWORD PTR _szPolicyType$[ebp]
	push	eax
	push	OFFSET ??_C@_0L@LIHFHODE@PolicyType?$AA@
	push	OFFSET ??_C@_0O@IILJPJBB@PromotionType?$AA@
	push	OFFSET ??_C@_0BG@ECDIGOEK@Policy_FreePromotions?$AA@
	push	OFFSET ??_C@_0P@GCBJCIAG@UnitPromotions?$AA@
	mov	ecx, DWORD PTR _this$[ebp]
	add	ecx, 1012				; 000003f4H
	push	ecx
	mov	ecx, DWORD PTR _kUtility$[ebp]
	call	?PopulateArrayByExistence@CvDatabaseUtility@@QAE_NAAPA_NPBD1111@Z ; CvDatabaseUtility::PopulateArrayByExistence

; 615  : 	kUtility.PopulateArrayByValue(m_paiUnitCombatFreeExperiences, "UnitCombatInfos", "Policy_UnitCombatFreeExperiences", "UnitCombatType", "PolicyType", szPolicyType, "FreeExperience");

	push	0
	push	0
	push	OFFSET ??_C@_0P@MOBEEGOH@FreeExperience?$AA@
	mov	edx, DWORD PTR _szPolicyType$[ebp]
	push	edx
	push	OFFSET ??_C@_0L@LIHFHODE@PolicyType?$AA@
	push	OFFSET ??_C@_0P@GFHIODK@UnitCombatType?$AA@
	push	OFFSET ??_C@_0CB@ILPCOPJK@Policy_UnitCombatFreeExperiences@
	push	OFFSET ??_C@_0BA@NHHFHDEL@UnitCombatInfos?$AA@
	mov	eax, DWORD PTR _this$[ebp]
	add	eax, 1020				; 000003fcH
	push	eax
	mov	ecx, DWORD PTR _kUtility$[ebp]
	call	?PopulateArrayByValue@CvDatabaseUtility@@QAE_NAAPAHPBD11111HH@Z ; CvDatabaseUtility::PopulateArrayByValue

; 616  : 	kUtility.PopulateArrayByValue(m_paiUnitCombatProductionModifiers, "UnitCombatInfos", "Policy_UnitCombatProductionModifiers", "UnitCombatType", "PolicyType", szPolicyType, "ProductionModifier");

	push	0
	push	0
	push	OFFSET ??_C@_0BD@JMJICLDJ@ProductionModifier?$AA@
	mov	ecx, DWORD PTR _szPolicyType$[ebp]
	push	ecx
	push	OFFSET ??_C@_0L@LIHFHODE@PolicyType?$AA@
	push	OFFSET ??_C@_0P@GFHIODK@UnitCombatType?$AA@
	push	OFFSET ??_C@_0CF@JAEDOHPB@Policy_UnitCombatProductionModif@
	push	OFFSET ??_C@_0BA@NHHFHDEL@UnitCombatInfos?$AA@
	mov	edx, DWORD PTR _this$[ebp]
	add	edx, 1016				; 000003f8H
	push	edx
	mov	ecx, DWORD PTR _kUtility$[ebp]
	call	?PopulateArrayByValue@CvDatabaseUtility@@QAE_NAAPAHPBD11111HH@Z ; CvDatabaseUtility::PopulateArrayByValue

; 617  : 
; 618  : 	kUtility.PopulateArrayByValue(m_paiBuildingClassCultureChanges, "BuildingClasses", "Policy_BuildingClassCultureChanges", "BuildingClassType", "PolicyType", szPolicyType, "CultureChange");

	push	0
	push	0
	push	OFFSET ??_C@_0O@DKCHOOHE@CultureChange?$AA@
	mov	eax, DWORD PTR _szPolicyType$[ebp]
	push	eax
	push	OFFSET ??_C@_0L@LIHFHODE@PolicyType?$AA@
	push	OFFSET ??_C@_0BC@OELPCAJJ@BuildingClassType?$AA@
	push	OFFSET ??_C@_0CD@OAPCCMEJ@Policy_BuildingClassCultureChang@
	push	OFFSET ??_C@_0BA@GLDILOEP@BuildingClasses?$AA@
	mov	ecx, DWORD PTR _this$[ebp]
	add	ecx, 1028				; 00000404H
	push	ecx
	mov	ecx, DWORD PTR _kUtility$[ebp]
	call	?PopulateArrayByValue@CvDatabaseUtility@@QAE_NAAPAHPBD11111HH@Z ; CvDatabaseUtility::PopulateArrayByValue

; 619  : 	kUtility.PopulateArrayByValue(m_paiBuildingClassProductionModifiers, "BuildingClasses", "Policy_BuildingClassProductionModifiers", "BuildingClassType", "PolicyType", szPolicyType, "ProductionModifier");

	push	0
	push	0
	push	OFFSET ??_C@_0BD@JMJICLDJ@ProductionModifier?$AA@
	mov	edx, DWORD PTR _szPolicyType$[ebp]
	push	edx
	push	OFFSET ??_C@_0L@LIHFHODE@PolicyType?$AA@
	push	OFFSET ??_C@_0BC@OELPCAJJ@BuildingClassType?$AA@
	push	OFFSET ??_C@_0CI@MCHMEPOE@Policy_BuildingClassProductionMo@
	push	OFFSET ??_C@_0BA@GLDILOEP@BuildingClasses?$AA@
	mov	eax, DWORD PTR _this$[ebp]
	add	eax, 1032				; 00000408H
	push	eax
	mov	ecx, DWORD PTR _kUtility$[ebp]
	call	?PopulateArrayByValue@CvDatabaseUtility@@QAE_NAAPAHPBD11111HH@Z ; CvDatabaseUtility::PopulateArrayByValue

; 620  : 	kUtility.PopulateArrayByValue(m_paiBuildingClassTourismModifiers, "BuildingClasses", "Policy_BuildingClassTourismModifiers", "BuildingClassType", "PolicyType", szPolicyType, "TourismModifier");

	push	0
	push	0
	push	OFFSET ??_C@_0BA@COIBAHID@TourismModifier?$AA@
	mov	ecx, DWORD PTR _szPolicyType$[ebp]
	push	ecx
	push	OFFSET ??_C@_0L@LIHFHODE@PolicyType?$AA@
	push	OFFSET ??_C@_0BC@OELPCAJJ@BuildingClassType?$AA@
	push	OFFSET ??_C@_0CF@CMGLKFDI@Policy_BuildingClassTourismModif@
	push	OFFSET ??_C@_0BA@GLDILOEP@BuildingClasses?$AA@
	mov	edx, DWORD PTR _this$[ebp]
	add	edx, 1036				; 0000040cH
	push	edx
	mov	ecx, DWORD PTR _kUtility$[ebp]
	call	?PopulateArrayByValue@CvDatabaseUtility@@QAE_NAAPAHPBD11111HH@Z ; CvDatabaseUtility::PopulateArrayByValue

; 621  : 	kUtility.PopulateArrayByValue(m_paiBuildingClassHappiness, "BuildingClasses", "Policy_BuildingClassHappiness", "BuildingClassType", "PolicyType", szPolicyType, "Happiness");

	push	0
	push	0
	push	OFFSET ??_C@_09MNJMGIDC@Happiness?$AA@
	mov	eax, DWORD PTR _szPolicyType$[ebp]
	push	eax
	push	OFFSET ??_C@_0L@LIHFHODE@PolicyType?$AA@
	push	OFFSET ??_C@_0BC@OELPCAJJ@BuildingClassType?$AA@
	push	OFFSET ??_C@_0BO@BNAMIIKH@Policy_BuildingClassHappiness?$AA@
	push	OFFSET ??_C@_0BA@GLDILOEP@BuildingClasses?$AA@
	mov	ecx, DWORD PTR _this$[ebp]
	add	ecx, 1040				; 00000410H
	push	ecx
	mov	ecx, DWORD PTR _kUtility$[ebp]
	call	?PopulateArrayByValue@CvDatabaseUtility@@QAE_NAAPAHPBD11111HH@Z ; CvDatabaseUtility::PopulateArrayByValue

; 622  : 
; 623  : 	kUtility.PopulateArrayByValue(m_paiFreeUnitClasses, "UnitClasses", "Policy_FreeUnitClasses", "UnitClassType", "PolicyType", szPolicyType, "Count");

	push	0
	push	0
	push	OFFSET ??_C@_05IJGIMMHE@Count?$AA@
	mov	edx, DWORD PTR _szPolicyType$[ebp]
	push	edx
	push	OFFSET ??_C@_0L@LIHFHODE@PolicyType?$AA@
	push	OFFSET ??_C@_0O@JGILCIIO@UnitClassType?$AA@
	push	OFFSET ??_C@_0BH@KKBIBCHK@Policy_FreeUnitClasses?$AA@
	push	OFFSET ??_C@_0M@HLHJNCC@UnitClasses?$AA@
	mov	eax, DWORD PTR _this$[ebp]
	add	eax, 1044				; 00000414H
	push	eax
	mov	ecx, DWORD PTR _kUtility$[ebp]
	call	?PopulateArrayByValue@CvDatabaseUtility@@QAE_NAAPAHPBD11111HH@Z ; CvDatabaseUtility::PopulateArrayByValue

; 624  : 	kUtility.PopulateArrayByValue(m_paiTourismOnUnitCreation, "UnitClasses", "Policy_TourismOnUnitCreation", "UnitClassType", "PolicyType", szPolicyType, "Tourism");

	push	0
	push	0
	push	OFFSET ??_C@_07COHILFBB@Tourism?$AA@
	mov	ecx, DWORD PTR _szPolicyType$[ebp]
	push	ecx
	push	OFFSET ??_C@_0L@LIHFHODE@PolicyType?$AA@
	push	OFFSET ??_C@_0O@JGILCIIO@UnitClassType?$AA@
	push	OFFSET ??_C@_0BN@HDOPCCMH@Policy_TourismOnUnitCreation?$AA@
	push	OFFSET ??_C@_0M@HLHJNCC@UnitClasses?$AA@
	mov	edx, DWORD PTR _this$[ebp]
	add	edx, 1048				; 00000418H
	push	edx
	mov	ecx, DWORD PTR _kUtility$[ebp]
	call	?PopulateArrayByValue@CvDatabaseUtility@@QAE_NAAPAHPBD11111HH@Z ; CvDatabaseUtility::PopulateArrayByValue

; 625  : 
; 626  : 	//BuildingYieldModifiers
; 627  : 	{
; 628  : #ifdef AUI_DATABASE_UTILITY_PROPER_2D_ALLOCATION_AND_DESTRUCTION
; 629  : 		kUtility.Initialize2DArray(m_ppiBuildingClassYieldModifiers.first, "BuildingClasses", "Yields");
; 630  : 		m_ppiBuildingClassYieldModifiers.second = kUtility.MaxRows("BuildingClasses");
; 631  : #else
; 632  : 		kUtility.Initialize2DArray(m_ppiBuildingClassYieldModifiers, "BuildingClasses", "Yields");

	push	0
	push	OFFSET ??_C@_06JAMLCLDI@Yields?$AA@
	push	OFFSET ??_C@_0BA@GLDILOEP@BuildingClasses?$AA@
	mov	eax, DWORD PTR _this$[ebp]
	add	eax, 1060				; 00000424H
	push	eax
	mov	ecx, DWORD PTR _kUtility$[ebp]
	call	?Initialize2DArray@CvDatabaseUtility@@QAE_NAAPAPAHPBD1H@Z ; CvDatabaseUtility::Initialize2DArray

; 633  : #endif
; 634  : 
; 635  : 		std::string strKey("Policy_BuildingClassYieldModifiers");

	push	OFFSET ??_C@_0CD@CIHGELLG@Policy_BuildingClassYieldModifie@
	lea	ecx, DWORD PTR _strKey$223336[ebp]
	call	DWORD PTR __imp_??0?$basic_string@DU?$char_traits@D@std@@V?$allocator@D@2@@std@@QAE@PBD@Z
	mov	DWORD PTR __$EHRec$[ebp+8], 1

; 636  : 		Database::Results* pResults = kUtility.GetResults(strKey);

	lea	ecx, DWORD PTR _strKey$223336[ebp]
	push	ecx
	mov	ecx, DWORD PTR _kUtility$[ebp]
	call	?GetResults@CvDatabaseUtility@@QAEPAVResults@Database@@ABV?$basic_string@DU?$char_traits@D@std@@V?$allocator@D@2@@std@@@Z ; CvDatabaseUtility::GetResults
	mov	DWORD PTR _pResults$223338[ebp], eax

; 637  : 		if(pResults == NULL)

	cmp	DWORD PTR _pResults$223338[ebp], 0
	jne	SHORT $LN21@CacheResul

; 638  : 		{
; 639  : 			pResults = kUtility.PrepareResults(strKey, "select BuildingClasses.ID as BuildingClassID, Yields.ID as YieldID, YieldMod from Policy_BuildingClassYieldModifiers inner join BuildingClasses on BuildingClasses.Type = BuildingClassType inner join Yields on Yields.Type = YieldType where PolicyType = ?");

	push	OFFSET ??_C@_0PO@NAMOGGP@select?5BuildingClasses?4ID?5as?5Bui@
	lea	edx, DWORD PTR _strKey$223336[ebp]
	push	edx
	mov	ecx, DWORD PTR _kUtility$[ebp]
	call	?PrepareResults@CvDatabaseUtility@@QAEPAVResults@Database@@ABV?$basic_string@DU?$char_traits@D@std@@V?$allocator@D@2@@std@@PBD@Z ; CvDatabaseUtility::PrepareResults
	mov	DWORD PTR _pResults$223338[ebp], eax
$LN21@CacheResul:

; 640  : 		}
; 641  : 
; 642  : 		pResults->Bind(1, szPolicyType);

	push	1
	mov	eax, DWORD PTR _szPolicyType$[ebp]
	push	eax
	push	1
	mov	ecx, DWORD PTR _pResults$223338[ebp]
	call	DWORD PTR __imp_?Bind@Results@Database@@QAE_NHPBD_N@Z
$LN20@CacheResul:

; 643  : 
; 644  : 		while(pResults->Step())

	mov	ecx, DWORD PTR _pResults$223338[ebp]
	call	DWORD PTR __imp_?Step@Results@Database@@QAE_NXZ
	movzx	ecx, al
	test	ecx, ecx
	je	SHORT $LN19@CacheResul

; 645  : 		{
; 646  : 			const int BuildingClassID = pResults->GetInt(0);

	push	0
	mov	ecx, DWORD PTR _pResults$223338[ebp]
	call	DWORD PTR __imp_?GetInt@Results@Database@@QAEHH@Z
	mov	DWORD PTR _BuildingClassID$223344[ebp], eax

; 647  : 			const int iYieldID = pResults->GetInt(1);

	push	1
	mov	ecx, DWORD PTR _pResults$223338[ebp]
	call	DWORD PTR __imp_?GetInt@Results@Database@@QAEHH@Z
	mov	DWORD PTR _iYieldID$223345[ebp], eax

; 648  : 			const int iYieldMod = pResults->GetInt(2);

	push	2
	mov	ecx, DWORD PTR _pResults$223338[ebp]
	call	DWORD PTR __imp_?GetInt@Results@Database@@QAEHH@Z
	mov	DWORD PTR _iYieldMod$223346[ebp], eax

; 649  : 
; 650  : #ifdef AUI_DATABASE_UTILITY_PROPER_2D_ALLOCATION_AND_DESTRUCTION
; 651  : 			m_ppiBuildingClassYieldModifiers.first[BuildingClassID][iYieldID] = iYieldMod;
; 652  : #else
; 653  : 			m_ppiBuildingClassYieldModifiers[BuildingClassID][iYieldID] = iYieldMod;

	mov	edx, DWORD PTR _this$[ebp]
	mov	eax, DWORD PTR [edx+1060]
	mov	ecx, DWORD PTR _BuildingClassID$223344[ebp]
	mov	edx, DWORD PTR [eax+ecx*4]
	mov	eax, DWORD PTR _iYieldID$223345[ebp]
	mov	ecx, DWORD PTR _iYieldMod$223346[ebp]
	mov	DWORD PTR [edx+eax*4], ecx

; 654  : #endif
; 655  : 		}

	jmp	SHORT $LN20@CacheResul
$LN19@CacheResul:

; 656  : 	}

	mov	DWORD PTR __$EHRec$[ebp+8], -1
	lea	ecx, DWORD PTR _strKey$223336[ebp]
	call	DWORD PTR __imp_??1?$basic_string@DU?$char_traits@D@std@@V?$allocator@D@2@@std@@QAE@XZ

; 657  : 
; 658  : 	//BuildingYieldChanges
; 659  : 	{
; 660  : #ifdef AUI_DATABASE_UTILITY_PROPER_2D_ALLOCATION_AND_DESTRUCTION
; 661  : 		kUtility.Initialize2DArray(m_ppiBuildingClassYieldChanges.first, "BuildingClasses", "Yields");
; 662  : 		m_ppiBuildingClassYieldChanges.second = kUtility.MaxRows("BuildingClasses");
; 663  : #else
; 664  : 		kUtility.Initialize2DArray(m_ppiBuildingClassYieldChanges, "BuildingClasses", "Yields");

	push	0
	push	OFFSET ??_C@_06JAMLCLDI@Yields?$AA@
	push	OFFSET ??_C@_0BA@GLDILOEP@BuildingClasses?$AA@
	mov	edx, DWORD PTR _this$[ebp]
	add	edx, 1064				; 00000428H
	push	edx
	mov	ecx, DWORD PTR _kUtility$[ebp]
	call	?Initialize2DArray@CvDatabaseUtility@@QAE_NAAPAPAHPBD1H@Z ; CvDatabaseUtility::Initialize2DArray

; 665  : #endif
; 666  : 
; 667  : 		std::string strKey("Policy_BuildingClassYieldChanges");

	push	OFFSET ??_C@_0CB@GDAPPICJ@Policy_BuildingClassYieldChanges@
	lea	ecx, DWORD PTR _strKey$223347[ebp]
	call	DWORD PTR __imp_??0?$basic_string@DU?$char_traits@D@std@@V?$allocator@D@2@@std@@QAE@PBD@Z
	mov	DWORD PTR __$EHRec$[ebp+8], 2

; 668  : 		Database::Results* pResults = kUtility.GetResults(strKey);

	lea	eax, DWORD PTR _strKey$223347[ebp]
	push	eax
	mov	ecx, DWORD PTR _kUtility$[ebp]
	call	?GetResults@CvDatabaseUtility@@QAEPAVResults@Database@@ABV?$basic_string@DU?$char_traits@D@std@@V?$allocator@D@2@@std@@@Z ; CvDatabaseUtility::GetResults
	mov	DWORD PTR _pResults$223349[ebp], eax

; 669  : 		if(pResults == NULL)

	cmp	DWORD PTR _pResults$223349[ebp], 0
	jne	SHORT $LN18@CacheResul

; 670  : 		{
; 671  : 			pResults = kUtility.PrepareResults(strKey, "select BuildingClasses.ID as BuildingClassID, Yields.ID as YieldID, YieldChange from Policy_BuildingClassYieldChanges inner join BuildingClasses on BuildingClasses.Type = BuildingClassType inner join Yields on Yields.Type = YieldType where PolicyType = ?");

	push	OFFSET ??_C@_0PP@PBCKHIDL@select?5BuildingClasses?4ID?5as?5Bui@
	lea	ecx, DWORD PTR _strKey$223347[ebp]
	push	ecx
	mov	ecx, DWORD PTR _kUtility$[ebp]
	call	?PrepareResults@CvDatabaseUtility@@QAEPAVResults@Database@@ABV?$basic_string@DU?$char_traits@D@std@@V?$allocator@D@2@@std@@PBD@Z ; CvDatabaseUtility::PrepareResults
	mov	DWORD PTR _pResults$223349[ebp], eax
$LN18@CacheResul:

; 672  : 		}
; 673  : 
; 674  : 		pResults->Bind(1, szPolicyType);

	push	1
	mov	edx, DWORD PTR _szPolicyType$[ebp]
	push	edx
	push	1
	mov	ecx, DWORD PTR _pResults$223349[ebp]
	call	DWORD PTR __imp_?Bind@Results@Database@@QAE_NHPBD_N@Z
$LN17@CacheResul:

; 675  : 
; 676  : 		while(pResults->Step())

	mov	ecx, DWORD PTR _pResults$223349[ebp]
	call	DWORD PTR __imp_?Step@Results@Database@@QAE_NXZ
	movzx	eax, al
	test	eax, eax
	je	SHORT $LN16@CacheResul

; 677  : 		{
; 678  : 			const int BuildingClassID = pResults->GetInt(0);

	push	0
	mov	ecx, DWORD PTR _pResults$223349[ebp]
	call	DWORD PTR __imp_?GetInt@Results@Database@@QAEHH@Z
	mov	DWORD PTR _BuildingClassID$223355[ebp], eax

; 679  : 			const int iYieldID = pResults->GetInt(1);

	push	1
	mov	ecx, DWORD PTR _pResults$223349[ebp]
	call	DWORD PTR __imp_?GetInt@Results@Database@@QAEHH@Z
	mov	DWORD PTR _iYieldID$223356[ebp], eax

; 680  : 			const int iYieldChange = pResults->GetInt(2);

	push	2
	mov	ecx, DWORD PTR _pResults$223349[ebp]
	call	DWORD PTR __imp_?GetInt@Results@Database@@QAEHH@Z
	mov	DWORD PTR _iYieldChange$223357[ebp], eax

; 681  : 
; 682  : #ifdef AUI_DATABASE_UTILITY_PROPER_2D_ALLOCATION_AND_DESTRUCTION
; 683  : 			m_ppiBuildingClassYieldChanges.first[BuildingClassID][iYieldID] = iYieldChange;
; 684  : #else
; 685  : 			m_ppiBuildingClassYieldChanges[BuildingClassID][iYieldID] = iYieldChange;

	mov	ecx, DWORD PTR _this$[ebp]
	mov	edx, DWORD PTR [ecx+1064]
	mov	eax, DWORD PTR _BuildingClassID$223355[ebp]
	mov	ecx, DWORD PTR [edx+eax*4]
	mov	edx, DWORD PTR _iYieldID$223356[ebp]
	mov	eax, DWORD PTR _iYieldChange$223357[ebp]
	mov	DWORD PTR [ecx+edx*4], eax

; 686  : #endif
; 687  : 		}

	jmp	SHORT $LN17@CacheResul
$LN16@CacheResul:

; 688  : 	}

	mov	DWORD PTR __$EHRec$[ebp+8], -1
	lea	ecx, DWORD PTR _strKey$223347[ebp]
	call	DWORD PTR __imp_??1?$basic_string@DU?$char_traits@D@std@@V?$allocator@D@2@@std@@QAE@XZ

; 689  : 
; 690  : #ifdef AUI_POLICY_BUILDING_CLASS_FLAVOR_MODIFIERS
; 691  : 	//BuildingClassFlavorChanges
; 692  : 	{
; 693  : #ifdef AUI_DATABASE_UTILITY_PROPER_2D_ALLOCATION_AND_DESTRUCTION
; 694  : 		kUtility.Initialize2DArray(m_ppiBuildingClassFlavorChanges.first, "BuildingClasses", "Flavors");
; 695  : 		m_ppiBuildingClassFlavorChanges.second = kUtility.MaxRows("BuildingClasses");
; 696  : #else
; 697  : 		kUtility.Initialize2DArray(m_ppiBuildingClassFlavorChanges, "BuildingClasses", "Flavors");
; 698  : #endif
; 699  : 
; 700  : 		std::string strKey("Policy_BuildingClassFlavorChanges");
; 701  : 		Database::Results* pResults = kUtility.GetResults(strKey);
; 702  : 		if (pResults == NULL)
; 703  : 		{
; 704  : 			pResults = kUtility.PrepareResults(strKey, "select BuildingClasses.ID as BuildingClassID, Flavors.ID as FlavorID, FlavorChange from Policy_BuildingClassFlavorChanges inner join BuildingClasses on BuildingClasses.Type = BuildingClassType inner join Flavors on Flavors.Type = FlavorType where PolicyType = ?");
; 705  : 		}
; 706  : 
; 707  : 		pResults->Bind(1, szPolicyType);
; 708  : 
; 709  : 		while (pResults->Step())
; 710  : 		{
; 711  : 			const int BuildingClassID = pResults->GetInt(0);
; 712  : 			const int iFlavorID = pResults->GetInt(1);
; 713  : 			const int iFlavorChange = pResults->GetInt(2);
; 714  : 
; 715  : #ifdef AUI_DATABASE_UTILITY_PROPER_2D_ALLOCATION_AND_DESTRUCTION
; 716  : 			m_ppiBuildingClassFlavorChanges.first[BuildingClassID][iFlavorID] = iFlavorChange;
; 717  : #else
; 718  : 			m_ppiBuildingClassFlavorChanges[BuildingClassID][iFlavorID] = iFlavorChange;
; 719  : #endif
; 720  : 		}
; 721  : 	}
; 722  : #endif
; 723  : 
; 724  : 	//ImprovementYieldChanges
; 725  : 	{
; 726  : #ifdef AUI_DATABASE_UTILITY_PROPER_2D_ALLOCATION_AND_DESTRUCTION
; 727  : 		kUtility.Initialize2DArray(m_ppiImprovementYieldChanges.first, "Improvements", "Yields");
; 728  : 		m_ppiImprovementYieldChanges.second = kUtility.MaxRows("Improvements");
; 729  : #else
; 730  : 		kUtility.Initialize2DArray(m_ppiImprovementYieldChanges, "Improvements", "Yields");

	push	0
	push	OFFSET ??_C@_06JAMLCLDI@Yields?$AA@
	push	OFFSET ??_C@_0N@CJDAHDJO@Improvements?$AA@
	mov	ecx, DWORD PTR _this$[ebp]
	add	ecx, 1056				; 00000420H
	push	ecx
	mov	ecx, DWORD PTR _kUtility$[ebp]
	call	?Initialize2DArray@CvDatabaseUtility@@QAE_NAAPAPAHPBD1H@Z ; CvDatabaseUtility::Initialize2DArray

; 731  : #endif
; 732  : 
; 733  : 		std::string strKey("Policy_ImprovementYieldChanges");

	push	OFFSET ??_C@_0BP@DBAIIMOC@Policy_ImprovementYieldChanges?$AA@
	lea	ecx, DWORD PTR _strKey$223359[ebp]
	call	DWORD PTR __imp_??0?$basic_string@DU?$char_traits@D@std@@V?$allocator@D@2@@std@@QAE@PBD@Z
	mov	DWORD PTR __$EHRec$[ebp+8], 3

; 734  : 		Database::Results* pResults = kUtility.GetResults(strKey);

	lea	edx, DWORD PTR _strKey$223359[ebp]
	push	edx
	mov	ecx, DWORD PTR _kUtility$[ebp]
	call	?GetResults@CvDatabaseUtility@@QAEPAVResults@Database@@ABV?$basic_string@DU?$char_traits@D@std@@V?$allocator@D@2@@std@@@Z ; CvDatabaseUtility::GetResults
	mov	DWORD PTR _pResults$223361[ebp], eax

; 735  : 		if(pResults == NULL)

	cmp	DWORD PTR _pResults$223361[ebp], 0
	jne	SHORT $LN15@CacheResul

; 736  : 		{
; 737  : 			pResults = kUtility.PrepareResults(strKey, "select Improvements.ID as ImprovementID, Yields.ID as YieldID, Yield from Policy_ImprovementYieldChanges inner join Improvements on Improvements.Type = ImprovementType inner join Yields on Yields.Type = YieldType where PolicyType = ?");

	push	OFFSET ??_C@_0OK@OMDAFMLP@select?5Improvements?4ID?5as?5Improv@
	lea	eax, DWORD PTR _strKey$223359[ebp]
	push	eax
	mov	ecx, DWORD PTR _kUtility$[ebp]
	call	?PrepareResults@CvDatabaseUtility@@QAEPAVResults@Database@@ABV?$basic_string@DU?$char_traits@D@std@@V?$allocator@D@2@@std@@PBD@Z ; CvDatabaseUtility::PrepareResults
	mov	DWORD PTR _pResults$223361[ebp], eax
$LN15@CacheResul:

; 738  : 		}
; 739  : 
; 740  : 		pResults->Bind(1, szPolicyType);

	push	1
	mov	ecx, DWORD PTR _szPolicyType$[ebp]
	push	ecx
	push	1
	mov	ecx, DWORD PTR _pResults$223361[ebp]
	call	DWORD PTR __imp_?Bind@Results@Database@@QAE_NHPBD_N@Z
$LN14@CacheResul:

; 741  : 
; 742  : 		while(pResults->Step())

	mov	ecx, DWORD PTR _pResults$223361[ebp]
	call	DWORD PTR __imp_?Step@Results@Database@@QAE_NXZ
	movzx	edx, al
	test	edx, edx
	je	SHORT $LN13@CacheResul

; 743  : 		{
; 744  : 			const int ImprovementID = pResults->GetInt(0);

	push	0
	mov	ecx, DWORD PTR _pResults$223361[ebp]
	call	DWORD PTR __imp_?GetInt@Results@Database@@QAEHH@Z
	mov	DWORD PTR _ImprovementID$223367[ebp], eax

; 745  : 			const int YieldID = pResults->GetInt(1);

	push	1
	mov	ecx, DWORD PTR _pResults$223361[ebp]
	call	DWORD PTR __imp_?GetInt@Results@Database@@QAEHH@Z
	mov	DWORD PTR _YieldID$223368[ebp], eax

; 746  : 			const int yield = pResults->GetInt(2);

	push	2
	mov	ecx, DWORD PTR _pResults$223361[ebp]
	call	DWORD PTR __imp_?GetInt@Results@Database@@QAEHH@Z
	mov	DWORD PTR _yield$223369[ebp], eax

; 747  : 
; 748  : #ifdef AUI_DATABASE_UTILITY_PROPER_2D_ALLOCATION_AND_DESTRUCTION
; 749  : 			m_ppiImprovementYieldChanges.first[ImprovementID][YieldID] = yield;
; 750  : #else
; 751  : 			m_ppiImprovementYieldChanges[ImprovementID][YieldID] = yield;

	mov	eax, DWORD PTR _this$[ebp]
	mov	ecx, DWORD PTR [eax+1056]
	mov	edx, DWORD PTR _ImprovementID$223367[ebp]
	mov	eax, DWORD PTR [ecx+edx*4]
	mov	ecx, DWORD PTR _YieldID$223368[ebp]
	mov	edx, DWORD PTR _yield$223369[ebp]
	mov	DWORD PTR [eax+ecx*4], edx

; 752  : #endif
; 753  : 		}

	jmp	SHORT $LN14@CacheResul
$LN13@CacheResul:

; 754  : 	}

	mov	DWORD PTR __$EHRec$[ebp+8], -1
	lea	ecx, DWORD PTR _strKey$223359[ebp]
	call	DWORD PTR __imp_??1?$basic_string@DU?$char_traits@D@std@@V?$allocator@D@2@@std@@QAE@XZ

; 755  : 
; 756  : 	//ImprovementCultureChanges
; 757  : 	kUtility.PopulateArrayByValue(m_piImprovementCultureChange, "Improvements", "Policy_ImprovementCultureChanges", "ImprovementType", "PolicyType", szPolicyType, "CultureChange");

	push	0
	push	0
	push	OFFSET ??_C@_0O@DKCHOOHE@CultureChange?$AA@
	mov	eax, DWORD PTR _szPolicyType$[ebp]
	push	eax
	push	OFFSET ??_C@_0L@LIHFHODE@PolicyType?$AA@
	push	OFFSET ??_C@_0BA@PMOLGEPK@ImprovementType?$AA@
	push	OFFSET ??_C@_0CB@JPJEMFOO@Policy_ImprovementCultureChanges@
	push	OFFSET ??_C@_0N@CJDAHDJO@Improvements?$AA@
	mov	ecx, DWORD PTR _this$[ebp]
	add	ecx, 1008				; 000003f0H
	push	ecx
	mov	ecx, DWORD PTR _kUtility$[ebp]
	call	?PopulateArrayByValue@CvDatabaseUtility@@QAE_NAAPAHPBD11111HH@Z ; CvDatabaseUtility::PopulateArrayByValue

; 758  : 
; 759  : 	//OrPreReqs
; 760  : 	{
; 761  : 		kUtility.InitializeArray(m_piPrereqOrPolicies, "Policies", (int)NO_POLICY);

	push	OFFSET ??_C@_08NDDAPGNJ@Policies?$AA@
	mov	ecx, DWORD PTR _kUtility$[ebp]
	call	?MaxRows@CvDatabaseUtility@@QAEHPBD@Z	; CvDatabaseUtility::MaxRows
	mov	DWORD PTR _count$231455[ebp], eax
	cmp	DWORD PTR _count$231455[ebp], 0
	jne	SHORT $LN48@CacheResul
	mov	DWORD PTR _count$231455[ebp], 1
$LN48@CacheResul:
	push	-1
	mov	edx, DWORD PTR _count$231455[ebp]
	push	edx
	mov	eax, DWORD PTR _this$[ebp]
	add	eax, 964				; 000003c4H
	push	eax
	mov	ecx, DWORD PTR _kUtility$[ebp]
	call	?InitializeArray@CvDatabaseUtility@@QAEXAAPAHIH@Z ; CvDatabaseUtility::InitializeArray

; 762  : 
; 763  : 		std::string sqlKey = "m_piPrereqOrPolicies";

	push	OFFSET ??_C@_0BF@CDEDBDG@m_piPrereqOrPolicies?$AA@
	lea	ecx, DWORD PTR _sqlKey$223379[ebp]
	call	DWORD PTR __imp_??0?$basic_string@DU?$char_traits@D@std@@V?$allocator@D@2@@std@@QAE@PBD@Z
	mov	DWORD PTR __$EHRec$[ebp+8], 4

; 764  : 		Database::Results* pResults = kUtility.GetResults(sqlKey);

	lea	ecx, DWORD PTR _sqlKey$223379[ebp]
	push	ecx
	mov	ecx, DWORD PTR _kUtility$[ebp]
	call	?GetResults@CvDatabaseUtility@@QAEPAVResults@Database@@ABV?$basic_string@DU?$char_traits@D@std@@V?$allocator@D@2@@std@@@Z ; CvDatabaseUtility::GetResults
	mov	DWORD PTR _pResults$223381[ebp], eax

; 765  : 		if(pResults == NULL)

	cmp	DWORD PTR _pResults$223381[ebp], 0
	jne	SHORT $LN12@CacheResul

; 766  : 		{
; 767  : 			const char* szSQL = "select Policies.ID from Policy_PrereqORPolicies inner join Policies on Policies.Type = PrereqPolicy where PolicyType = ?";

	mov	DWORD PTR _szSQL$223383[ebp], OFFSET ??_C@_0HJ@CCDHNOKM@select?5Policies?4ID?5from?5Policy_P@

; 768  : 			pResults = kUtility.PrepareResults(sqlKey, szSQL);

	mov	edx, DWORD PTR _szSQL$223383[ebp]
	push	edx
	lea	eax, DWORD PTR _sqlKey$223379[ebp]
	push	eax
	mov	ecx, DWORD PTR _kUtility$[ebp]
	call	?PrepareResults@CvDatabaseUtility@@QAEPAVResults@Database@@ABV?$basic_string@DU?$char_traits@D@std@@V?$allocator@D@2@@std@@PBD@Z ; CvDatabaseUtility::PrepareResults
	mov	DWORD PTR _pResults$223381[ebp], eax
$LN12@CacheResul:

; 769  : 		}
; 770  : 
; 771  : 		pResults->Bind(1, szPolicyType, false);

	push	0
	mov	ecx, DWORD PTR _szPolicyType$[ebp]
	push	ecx
	push	1
	mov	ecx, DWORD PTR _pResults$223381[ebp]
	call	DWORD PTR __imp_?Bind@Results@Database@@QAE_NHPBD_N@Z

; 772  : 
; 773  : 		int i = 0;

	mov	DWORD PTR _i$223385[ebp], 0
$LN11@CacheResul:

; 774  : 		while(pResults->Step())

	mov	ecx, DWORD PTR _pResults$223381[ebp]
	call	DWORD PTR __imp_?Step@Results@Database@@QAE_NXZ
	movzx	edx, al
	test	edx, edx
	je	SHORT $LN10@CacheResul

; 775  : 		{
; 776  : 			m_piPrereqOrPolicies[i++] = pResults->GetInt(0);

	push	0
	mov	ecx, DWORD PTR _pResults$223381[ebp]
	call	DWORD PTR __imp_?GetInt@Results@Database@@QAEHH@Z
	mov	ecx, DWORD PTR _this$[ebp]
	mov	edx, DWORD PTR [ecx+964]
	mov	ecx, DWORD PTR _i$223385[ebp]
	mov	DWORD PTR [edx+ecx*4], eax
	mov	edx, DWORD PTR _i$223385[ebp]
	add	edx, 1
	mov	DWORD PTR _i$223385[ebp], edx

; 777  : 		}

	jmp	SHORT $LN11@CacheResul
$LN10@CacheResul:

; 778  : 
; 779  : 		pResults->Reset();

	mov	ecx, DWORD PTR _pResults$223381[ebp]
	call	DWORD PTR __imp_?Reset@Results@Database@@QAE_NXZ

; 780  : 	}

	mov	DWORD PTR __$EHRec$[ebp+8], -1
	lea	ecx, DWORD PTR _sqlKey$223379[ebp]
	call	DWORD PTR __imp_??1?$basic_string@DU?$char_traits@D@std@@V?$allocator@D@2@@std@@QAE@XZ

; 781  : 
; 782  : 	//AndPreReqs
; 783  : 	{
; 784  : 		kUtility.InitializeArray(m_piPrereqAndPolicies, "Policies", (int)NO_POLICY);

	push	OFFSET ??_C@_08NDDAPGNJ@Policies?$AA@
	mov	ecx, DWORD PTR _kUtility$[ebp]
	call	?MaxRows@CvDatabaseUtility@@QAEHPBD@Z	; CvDatabaseUtility::MaxRows
	mov	DWORD PTR _count$231462[ebp], eax
	cmp	DWORD PTR _count$231462[ebp], 0
	jne	SHORT $LN58@CacheResul
	mov	DWORD PTR _count$231462[ebp], 1
$LN58@CacheResul:
	push	-1
	mov	eax, DWORD PTR _count$231462[ebp]
	push	eax
	mov	ecx, DWORD PTR _this$[ebp]
	add	ecx, 968				; 000003c8H
	push	ecx
	mov	ecx, DWORD PTR _kUtility$[ebp]
	call	?InitializeArray@CvDatabaseUtility@@QAEXAAPAHIH@Z ; CvDatabaseUtility::InitializeArray

; 785  : 		std::string sqlKey = "m_piPrereqAndPolicies";

	push	OFFSET ??_C@_0BG@HDAGFADH@m_piPrereqAndPolicies?$AA@
	lea	ecx, DWORD PTR _sqlKey$223390[ebp]
	call	DWORD PTR __imp_??0?$basic_string@DU?$char_traits@D@std@@V?$allocator@D@2@@std@@QAE@PBD@Z
	mov	DWORD PTR __$EHRec$[ebp+8], 5

; 786  : 
; 787  : 		Database::Results* pResults = kUtility.GetResults(sqlKey);

	lea	edx, DWORD PTR _sqlKey$223390[ebp]
	push	edx
	mov	ecx, DWORD PTR _kUtility$[ebp]
	call	?GetResults@CvDatabaseUtility@@QAEPAVResults@Database@@ABV?$basic_string@DU?$char_traits@D@std@@V?$allocator@D@2@@std@@@Z ; CvDatabaseUtility::GetResults
	mov	DWORD PTR _pResults$223392[ebp], eax

; 788  : 		if(pResults == NULL)

	cmp	DWORD PTR _pResults$223392[ebp], 0
	jne	SHORT $LN9@CacheResul

; 789  : 		{
; 790  : 			const char* szSQL = "select Policies.ID from Policy_PrereqPolicies inner join Policies on Policies.Type = PrereqPolicy where PolicyType = ?";

	mov	DWORD PTR _szSQL$223394[ebp], OFFSET ??_C@_0HH@MGLLOFBN@select?5Policies?4ID?5from?5Policy_P@

; 791  : 			pResults = kUtility.PrepareResults(sqlKey, szSQL);

	mov	eax, DWORD PTR _szSQL$223394[ebp]
	push	eax
	lea	ecx, DWORD PTR _sqlKey$223390[ebp]
	push	ecx
	mov	ecx, DWORD PTR _kUtility$[ebp]
	call	?PrepareResults@CvDatabaseUtility@@QAEPAVResults@Database@@ABV?$basic_string@DU?$char_traits@D@std@@V?$allocator@D@2@@std@@PBD@Z ; CvDatabaseUtility::PrepareResults
	mov	DWORD PTR _pResults$223392[ebp], eax
$LN9@CacheResul:

; 792  : 		}
; 793  : 
; 794  : 		pResults->Bind(1, szPolicyType, false);

	push	0
	mov	edx, DWORD PTR _szPolicyType$[ebp]
	push	edx
	push	1
	mov	ecx, DWORD PTR _pResults$223392[ebp]
	call	DWORD PTR __imp_?Bind@Results@Database@@QAE_NHPBD_N@Z

; 795  : 
; 796  : 		int i = 0;

	mov	DWORD PTR _i$223396[ebp], 0
$LN8@CacheResul:

; 797  : 		while(pResults->Step())

	mov	ecx, DWORD PTR _pResults$223392[ebp]
	call	DWORD PTR __imp_?Step@Results@Database@@QAE_NXZ
	movzx	eax, al
	test	eax, eax
	je	SHORT $LN7@CacheResul

; 798  : 		{
; 799  : 			m_piPrereqAndPolicies[i++] = pResults->GetInt(0);

	push	0
	mov	ecx, DWORD PTR _pResults$223392[ebp]
	call	DWORD PTR __imp_?GetInt@Results@Database@@QAEHH@Z
	mov	ecx, DWORD PTR _this$[ebp]
	mov	edx, DWORD PTR [ecx+968]
	mov	ecx, DWORD PTR _i$223396[ebp]
	mov	DWORD PTR [edx+ecx*4], eax
	mov	edx, DWORD PTR _i$223396[ebp]
	add	edx, 1
	mov	DWORD PTR _i$223396[ebp], edx

; 800  : 		}

	jmp	SHORT $LN8@CacheResul
$LN7@CacheResul:

; 801  : 
; 802  : 		pResults->Reset();

	mov	ecx, DWORD PTR _pResults$223392[ebp]
	call	DWORD PTR __imp_?Reset@Results@Database@@QAE_NXZ

; 803  : 	}

	mov	DWORD PTR __$EHRec$[ebp+8], -1
	lea	ecx, DWORD PTR _sqlKey$223390[ebp]
	call	DWORD PTR __imp_??1?$basic_string@DU?$char_traits@D@std@@V?$allocator@D@2@@std@@QAE@XZ

; 804  : 
; 805  : 	//Policy_Disables
; 806  : 	{
; 807  : 		kUtility.InitializeArray(m_piPolicyDisables, "Policies", (int)NO_POLICY);

	push	OFFSET ??_C@_08NDDAPGNJ@Policies?$AA@
	mov	ecx, DWORD PTR _kUtility$[ebp]
	call	?MaxRows@CvDatabaseUtility@@QAEHPBD@Z	; CvDatabaseUtility::MaxRows
	mov	DWORD PTR _count$231469[ebp], eax
	cmp	DWORD PTR _count$231469[ebp], 0
	jne	SHORT $LN68@CacheResul
	mov	DWORD PTR _count$231469[ebp], 1
$LN68@CacheResul:
	push	-1
	mov	eax, DWORD PTR _count$231469[ebp]
	push	eax
	mov	ecx, DWORD PTR _this$[ebp]
	add	ecx, 972				; 000003ccH
	push	ecx
	mov	ecx, DWORD PTR _kUtility$[ebp]
	call	?InitializeArray@CvDatabaseUtility@@QAEXAAPAHIH@Z ; CvDatabaseUtility::InitializeArray

; 808  : 
; 809  : 		std::string sqlKey = "m_piPolicyDisables";

	push	OFFSET ??_C@_0BD@KHHJPNKJ@m_piPolicyDisables?$AA@
	lea	ecx, DWORD PTR _sqlKey$223401[ebp]
	call	DWORD PTR __imp_??0?$basic_string@DU?$char_traits@D@std@@V?$allocator@D@2@@std@@QAE@PBD@Z
	mov	DWORD PTR __$EHRec$[ebp+8], 6

; 810  : 		Database::Results* pResults = kUtility.GetResults(sqlKey);

	lea	edx, DWORD PTR _sqlKey$223401[ebp]
	push	edx
	mov	ecx, DWORD PTR _kUtility$[ebp]
	call	?GetResults@CvDatabaseUtility@@QAEPAVResults@Database@@ABV?$basic_string@DU?$char_traits@D@std@@V?$allocator@D@2@@std@@@Z ; CvDatabaseUtility::GetResults
	mov	DWORD PTR _pResults$223403[ebp], eax

; 811  : 		if(pResults == NULL)

	cmp	DWORD PTR _pResults$223403[ebp], 0
	jne	SHORT $LN6@CacheResul

; 812  : 		{
; 813  : 			const char* szSQL = "select Policies.ID from Policy_Disables inner join Policies on Policies.Type = PolicyDisable where PolicyType = ?";

	mov	DWORD PTR _szSQL$223405[ebp], OFFSET ??_C@_0HC@FGKHHPOB@select?5Policies?4ID?5from?5Policy_D@

; 814  : 			pResults = kUtility.PrepareResults(sqlKey, szSQL);

	mov	eax, DWORD PTR _szSQL$223405[ebp]
	push	eax
	lea	ecx, DWORD PTR _sqlKey$223401[ebp]
	push	ecx
	mov	ecx, DWORD PTR _kUtility$[ebp]
	call	?PrepareResults@CvDatabaseUtility@@QAEPAVResults@Database@@ABV?$basic_string@DU?$char_traits@D@std@@V?$allocator@D@2@@std@@PBD@Z ; CvDatabaseUtility::PrepareResults
	mov	DWORD PTR _pResults$223403[ebp], eax
$LN6@CacheResul:

; 815  : 		}
; 816  : 
; 817  : 		pResults->Bind(1, szPolicyType, false);

	push	0
	mov	edx, DWORD PTR _szPolicyType$[ebp]
	push	edx
	push	1
	mov	ecx, DWORD PTR _pResults$223403[ebp]
	call	DWORD PTR __imp_?Bind@Results@Database@@QAE_NHPBD_N@Z

; 818  : 
; 819  : 		int i = 0;

	mov	DWORD PTR _i$223407[ebp], 0
$LN5@CacheResul:

; 820  : 		while(pResults->Step())

	mov	ecx, DWORD PTR _pResults$223403[ebp]
	call	DWORD PTR __imp_?Step@Results@Database@@QAE_NXZ
	movzx	eax, al
	test	eax, eax
	je	SHORT $LN4@CacheResul

; 821  : 		{
; 822  : 			m_piPolicyDisables[i++] = pResults->GetInt(0);

	push	0
	mov	ecx, DWORD PTR _pResults$223403[ebp]
	call	DWORD PTR __imp_?GetInt@Results@Database@@QAEHH@Z
	mov	ecx, DWORD PTR _this$[ebp]
	mov	edx, DWORD PTR [ecx+972]
	mov	ecx, DWORD PTR _i$223407[ebp]
	mov	DWORD PTR [edx+ecx*4], eax
	mov	edx, DWORD PTR _i$223407[ebp]
	add	edx, 1
	mov	DWORD PTR _i$223407[ebp], edx

; 823  : 		}

	jmp	SHORT $LN5@CacheResul
$LN4@CacheResul:

; 824  : 
; 825  : 		pResults->Reset();

	mov	ecx, DWORD PTR _pResults$223403[ebp]
	call	DWORD PTR __imp_?Reset@Results@Database@@QAE_NXZ

; 826  : 	}

	mov	DWORD PTR __$EHRec$[ebp+8], -1
	lea	ecx, DWORD PTR _sqlKey$223401[ebp]
	call	DWORD PTR __imp_??1?$basic_string@DU?$char_traits@D@std@@V?$allocator@D@2@@std@@QAE@XZ

; 827  : 
; 828  : 	//UnitCombatFreePromotions
; 829  : 	{
; 830  : 		m_FreePromotionUnitCombats.clear();

	mov	ecx, DWORD PTR _this$[ebp]
	add	ecx, 952				; 000003b8H
	call	?clear@?$_Tree@V?$_Tmap_traits@HHU?$less@H@std@@V?$allocator@U?$pair@$$CBHH@std@@@2@$00@std@@@std@@QAEXXZ ; std::_Tree<std::_Tmap_traits<int,int,std::less<int>,std::allocator<std::pair<int const ,int> >,1> >::clear

; 831  : 		std::string sqlKey = "m_FreePromotionsUnitCombats";

	push	OFFSET ??_C@_0BM@DNOOJGJD@m_FreePromotionsUnitCombats?$AA@
	lea	ecx, DWORD PTR _sqlKey$223411[ebp]
	call	DWORD PTR __imp_??0?$basic_string@DU?$char_traits@D@std@@V?$allocator@D@2@@std@@QAE@PBD@Z
	mov	DWORD PTR __$EHRec$[ebp+8], 7

; 832  : 		Database::Results* pResults = kUtility.GetResults(sqlKey);

	lea	eax, DWORD PTR _sqlKey$223411[ebp]
	push	eax
	mov	ecx, DWORD PTR _kUtility$[ebp]
	call	?GetResults@CvDatabaseUtility@@QAEPAVResults@Database@@ABV?$basic_string@DU?$char_traits@D@std@@V?$allocator@D@2@@std@@@Z ; CvDatabaseUtility::GetResults
	mov	DWORD PTR _pResults$223413[ebp], eax

; 833  : 		if(pResults == NULL)

	cmp	DWORD PTR _pResults$223413[ebp], 0
	jne	SHORT $LN3@CacheResul

; 834  : 		{
; 835  : 			const char* szSQL = "select UnitPromotions.ID, UnitCombatInfos.ID  from Policy_FreePromotionUnitCombats, UnitPromotions, UnitCombatInfos where PolicyType = ? and PromotionType = UnitPromotions.ID and UnitCombatType = UnitCombatInfos.ID";

	mov	DWORD PTR _szSQL$223415[ebp], OFFSET ??_C@_0NH@JGCEKKAB@select?5UnitPromotions?4ID?0?5UnitCo@

; 836  : 			pResults = kUtility.PrepareResults(sqlKey, szSQL);

	mov	ecx, DWORD PTR _szSQL$223415[ebp]
	push	ecx
	lea	edx, DWORD PTR _sqlKey$223411[ebp]
	push	edx
	mov	ecx, DWORD PTR _kUtility$[ebp]
	call	?PrepareResults@CvDatabaseUtility@@QAEPAVResults@Database@@ABV?$basic_string@DU?$char_traits@D@std@@V?$allocator@D@2@@std@@PBD@Z ; CvDatabaseUtility::PrepareResults
	mov	DWORD PTR _pResults$223413[ebp], eax
$LN3@CacheResul:

; 837  : 		}
; 838  : 
; 839  : 		pResults->Bind(1, szPolicyType, false);

	push	0
	mov	eax, DWORD PTR _szPolicyType$[ebp]
	push	eax
	push	1
	mov	ecx, DWORD PTR _pResults$223413[ebp]
	call	DWORD PTR __imp_?Bind@Results@Database@@QAE_NHPBD_N@Z
$LN2@CacheResul:

; 840  : 
; 841  : 		while(pResults->Step())

	mov	ecx, DWORD PTR _pResults$223413[ebp]
	call	DWORD PTR __imp_?Step@Results@Database@@QAE_NXZ
	movzx	ecx, al
	test	ecx, ecx
	je	$LN1@CacheResul

; 842  : 		{
; 843  : 			const int UnitPromotionID = pResults->GetInt(0);

	push	0
	mov	ecx, DWORD PTR _pResults$223413[ebp]
	call	DWORD PTR __imp_?GetInt@Results@Database@@QAEHH@Z
	mov	DWORD PTR _UnitPromotionID$223420[ebp], eax

; 844  : 			const int UnitCombatInfoID = pResults->GetInt(1);

	push	1
	mov	ecx, DWORD PTR _pResults$223413[ebp]
	call	DWORD PTR __imp_?GetInt@Results@Database@@QAEHH@Z
	mov	DWORD PTR _UnitCombatInfoID$223421[ebp], eax

; 845  : 
; 846  : 			m_FreePromotionUnitCombats.insert(std::pair<int, int>(UnitPromotionID, UnitCombatInfoID));

	mov	edx, DWORD PTR _UnitPromotionID$223420[ebp]
	mov	DWORD PTR $T231415[ebp], edx
	mov	eax, DWORD PTR _UnitCombatInfoID$223421[ebp]
	mov	DWORD PTR $T231415[ebp+4], eax
	mov	ecx, DWORD PTR $T231415[ebp]
	mov	DWORD PTR $T231414[ebp], ecx
	mov	edx, DWORD PTR $T231415[ebp+4]
	mov	DWORD PTR $T231414[ebp+4], edx
	lea	eax, DWORD PTR $T231414[ebp]
	push	eax
	lea	ecx, DWORD PTR $T231673[ebp]
	push	ecx
	mov	ecx, DWORD PTR _this$[ebp]
	add	ecx, 952				; 000003b8H
	call	?insert@?$_Tree@V?$_Tmap_traits@HHU?$less@H@std@@V?$allocator@U?$pair@$$CBHH@std@@@2@$00@std@@@std@@QAE?AU?$pair@Viterator@?$_Tree@V?$_Tmap_traits@HHU?$less@H@std@@V?$allocator@U?$pair@$$CBHH@std@@@2@$00@std@@@std@@_N@2@ABU?$pair@$$CBHH@2@@Z ; std::_Tree<std::_Tmap_traits<int,int,std::less<int>,std::allocator<std::pair<int const ,int> >,1> >::insert
	mov	edx, DWORD PTR [eax]
	mov	DWORD PTR $T231416[ebp], edx

; 847  : 		}

	jmp	$LN2@CacheResul
$LN1@CacheResul:

; 848  : 
; 849  : 		//Trim capacity
; 850  : 		std::multimap<int, int>(m_FreePromotionUnitCombats).swap(m_FreePromotionUnitCombats);

	mov	eax, DWORD PTR _this$[ebp]
	add	eax, 952				; 000003b8H
	push	eax
	lea	ecx, DWORD PTR $T231417[ebp]
	call	??0?$_Tree@V?$_Tmap_traits@HHU?$less@H@std@@V?$allocator@U?$pair@$$CBHH@std@@@2@$00@std@@@std@@QAE@ABV01@@Z ; std::_Tree<std::_Tmap_traits<int,int,std::less<int>,std::allocator<std::pair<int const ,int> >,1> >::_Tree<std::_Tmap_traits<int,int,std::less<int>,std::allocator<std::pair<int const ,int> >,1> >
	lea	ecx, DWORD PTR $T231417[ebp]
	mov	DWORD PTR tv1572[ebp], ecx
	mov	BYTE PTR __$EHRec$[ebp+8], 8
	mov	edx, DWORD PTR _this$[ebp]
	add	edx, 952				; 000003b8H
	push	edx
	mov	ecx, DWORD PTR tv1572[ebp]
	call	?swap@?$_Tree@V?$_Tmap_traits@HHU?$less@H@std@@V?$allocator@U?$pair@$$CBHH@std@@@2@$00@std@@@std@@QAEXAAV12@@Z ; std::_Tree<std::_Tmap_traits<int,int,std::less<int>,std::allocator<std::pair<int const ,int> >,1> >::swap
	mov	BYTE PTR __$EHRec$[ebp+8], 7
	mov	BYTE PTR __$EHRec$[ebp+8], 9
	lea	ecx, DWORD PTR $T231417[ebp]
	call	?_Tidy@?$_Tree@V?$_Tmap_traits@HHU?$less@H@std@@V?$allocator@U?$pair@$$CBHH@std@@@2@$00@std@@@std@@IAEXXZ ; std::_Tree<std::_Tmap_traits<int,int,std::less<int>,std::allocator<std::pair<int const ,int> >,1> >::_Tidy
	mov	BYTE PTR __$EHRec$[ebp+8], 7

; 851  : 
; 852  : 		pResults->Reset();

	mov	ecx, DWORD PTR _pResults$223413[ebp]
	call	DWORD PTR __imp_?Reset@Results@Database@@QAE_NXZ

; 853  : 	}

	mov	DWORD PTR __$EHRec$[ebp+8], -1
	lea	ecx, DWORD PTR _sqlKey$223411[ebp]
	call	DWORD PTR __imp_??1?$basic_string@DU?$char_traits@D@std@@V?$allocator@D@2@@std@@QAE@XZ

; 854  : 
; 855  : 	return true;

	mov	al, 1
$LN24@CacheResul:

; 856  : }

	mov	ecx, DWORD PTR __$EHRec$[ebp]
	mov	DWORD PTR fs:0, ecx
	pop	ecx
	mov	ecx, DWORD PTR __$ArrayPad$[ebp]
	xor	ecx, ebp
	call	@__security_check_cookie@4
	mov	esp, ebp
	pop	ebp
	ret	8
_TEXT	ENDS
;	COMDAT text$x
text$x	SEGMENT
__unwindfunclet$?CacheResults@CvPolicyEntry@@UAE_NAAVResults@Database@@AAVCvDatabaseUtility@@@Z$0:
	lea	ecx, DWORD PTR $T231413[ebp]
	jmp	??1CvString@@QAE@XZ			; CvString::~CvString
__unwindfunclet$?CacheResults@CvPolicyEntry@@UAE_NAAVResults@Database@@AAVCvDatabaseUtility@@@Z$1:
	lea	ecx, DWORD PTR _strKey$223336[ebp]
	jmp	DWORD PTR __imp_??1?$basic_string@DU?$char_traits@D@std@@V?$allocator@D@2@@std@@QAE@XZ
__unwindfunclet$?CacheResults@CvPolicyEntry@@UAE_NAAVResults@Database@@AAVCvDatabaseUtility@@@Z$2:
	lea	ecx, DWORD PTR _strKey$223347[ebp]
	jmp	DWORD PTR __imp_??1?$basic_string@DU?$char_traits@D@std@@V?$allocator@D@2@@std@@QAE@XZ
__unwindfunclet$?CacheResults@CvPolicyEntry@@UAE_NAAVResults@Database@@AAVCvDatabaseUtility@@@Z$3:
	lea	ecx, DWORD PTR _strKey$223359[ebp]
	jmp	DWORD PTR __imp_??1?$basic_string@DU?$char_traits@D@std@@V?$allocator@D@2@@std@@QAE@XZ
__unwindfunclet$?CacheResults@CvPolicyEntry@@UAE_NAAVResults@Database@@AAVCvDatabaseUtility@@@Z$4:
	lea	ecx, DWORD PTR _sqlKey$223379[ebp]
	jmp	DWORD PTR __imp_??1?$basic_string@DU?$char_traits@D@std@@V?$allocator@D@2@@std@@QAE@XZ
__unwindfunclet$?CacheResults@CvPolicyEntry@@UAE_NAAVResults@Database@@AAVCvDatabaseUtility@@@Z$5:
	lea	ecx, DWORD PTR _sqlKey$223390[ebp]
	jmp	DWORD PTR __imp_??1?$basic_string@DU?$char_traits@D@std@@V?$allocator@D@2@@std@@QAE@XZ
__unwindfunclet$?CacheResults@CvPolicyEntry@@UAE_NAAVResults@Database@@AAVCvDatabaseUtility@@@Z$6:
	lea	ecx, DWORD PTR _sqlKey$223401[ebp]
	jmp	DWORD PTR __imp_??1?$basic_string@DU?$char_traits@D@std@@V?$allocator@D@2@@std@@QAE@XZ
__unwindfunclet$?CacheResults@CvPolicyEntry@@UAE_NAAVResults@Database@@AAVCvDatabaseUtility@@@Z$7:
	lea	ecx, DWORD PTR _sqlKey$223411[ebp]
	jmp	DWORD PTR __imp_??1?$basic_string@DU?$char_traits@D@std@@V?$allocator@D@2@@std@@QAE@XZ
__unwindfunclet$?CacheResults@CvPolicyEntry@@UAE_NAAVResults@Database@@AAVCvDatabaseUtility@@@Z$8:
	lea	ecx, DWORD PTR $T231417[ebp]
	jmp	??1?$multimap@HHU?$less@H@std@@V?$allocator@U?$pair@$$CBHH@std@@@2@@std@@QAE@XZ
__unwindfunclet$?CacheResults@CvPolicyEntry@@UAE_NAAVResults@Database@@AAVCvDatabaseUtility@@@Z$19:
	lea	ecx, DWORD PTR $T231417[ebp]
	jmp	??1?$_Tree_val@V?$_Tmap_traits@HHU?$less@H@std@@V?$allocator@U?$pair@$$CBHH@std@@@2@$00@std@@@std@@QAE@XZ
__ehhandler$?CacheResults@CvPolicyEntry@@UAE_NAAVResults@Database@@AAVCvDatabaseUtility@@@Z:
	mov	edx, DWORD PTR [esp+8]
	lea	eax, DWORD PTR [edx+12]
	mov	ecx, DWORD PTR [edx-1068]
	xor	ecx, eax
	call	@__security_check_cookie@4
	mov	ecx, DWORD PTR [edx-20]
	xor	ecx, eax
	call	@__security_check_cookie@4
	mov	eax, OFFSET __ehfuncinfo$?CacheResults@CvPolicyEntry@@UAE_NAAVResults@Database@@AAVCvDatabaseUtility@@@Z
	jmp	___CxxFrameHandler3
text$x	ENDS
?CacheResults@CvPolicyEntry@@UAE_NAAVResults@Database@@AAVCvDatabaseUtility@@@Z ENDP ; CvPolicyEntry::CacheResults
PUBLIC	__$ArrayPad$
EXTRN	__imp_??1String@Localization@@UAE@XZ:PROC
EXTRN	__imp_??0?$basic_string@DU?$char_traits@D@std@@V?$allocator@D@2@@std@@QAE@ABV01@@Z:PROC
EXTRN	__imp_?assign@?$basic_string@DU?$char_traits@D@std@@V?$allocator@D@2@@std@@QAEAAV12@PBDI@Z:PROC
EXTRN	__imp_?toUTF8@String@Localization@@QAEPBDAAIH@Z:PROC
EXTRN	__imp_?Lookup@Localization@@YA?AVString@1@PBD@Z:PROC
;	COMDAT xdata$x
; File d:\sources\lekmod_git\checkout\lekmod_dll\cvgamecoredllutil\include\cvstring.h
xdata$x	SEGMENT
__unwindtable$?GetLocalizedText@@YA?AVCvString@@PBD@Z DD 0ffffffffH
	DD	FLAT:__unwindfunclet$?GetLocalizedText@@YA?AVCvString@@PBD@Z$2
	DD	00H
	DD	FLAT:__unwindfunclet$?GetLocalizedText@@YA?AVCvString@@PBD@Z$0
	DD	01H
	DD	FLAT:__unwindfunclet$?GetLocalizedText@@YA?AVCvString@@PBD@Z$1
__ehfuncinfo$?GetLocalizedText@@YA?AVCvString@@PBD@Z DD 019930522H
	DD	03H
	DD	FLAT:__unwindtable$?GetLocalizedText@@YA?AVCvString@@PBD@Z
	DD	2 DUP(00H)
	DD	2 DUP(00H)
	DD	00H
	DD	01H
; Function compile flags: /Odtp
; File d:\sources\lekmod_git\checkout\lekmod_dll\cvgamecoredll_expansion2\cvgamecoreutils.h
xdata$x	ENDS
;	COMDAT ?GetLocalizedText@@YA?AVCvString@@PBD@Z
_TEXT	SEGMENT
$T233018 = -140						; size = 4
_str$ = -136						; size = 28
__$ArrayPad$ = -108					; size = 4
_bytes$ = -104						; size = 4
_text$ = -100						; size = 80
_szComposedString$ = -16				; size = 4
__$EHRec$ = -12						; size = 12
___$ReturnUdt$ = 8					; size = 4
_szString$ = 12						; size = 4
?GetLocalizedText@@YA?AVCvString@@PBD@Z PROC		; GetLocalizedText, COMDAT

; 489  : {

	push	ebp
	mov	ebp, esp
	push	-1
	push	__ehhandler$?GetLocalizedText@@YA?AVCvString@@PBD@Z
	mov	eax, DWORD PTR fs:0
	push	eax
	sub	esp, 128				; 00000080H
	mov	eax, DWORD PTR ___security_cookie
	xor	eax, ebp
	mov	DWORD PTR __$ArrayPad$[ebp], eax
	push	eax
	lea	eax, DWORD PTR __$EHRec$[ebp]
	mov	DWORD PTR fs:0, eax
	mov	DWORD PTR $T233018[ebp], 0

; 490  : 	Localization::String text = Localization::Lookup(szString);

	mov	eax, DWORD PTR _szString$[ebp]
	push	eax
	lea	ecx, DWORD PTR _text$[ebp]
	push	ecx
	call	DWORD PTR __imp_?Lookup@Localization@@YA?AVString@1@PBD@Z
	add	esp, 8
	mov	DWORD PTR __$EHRec$[ebp+8], 1

; 491  : 
; 492  : 	size_t bytes = 0;

	mov	DWORD PTR _bytes$[ebp], 0

; 493  : 	const char* szComposedString = text.toUTF8(bytes);

	push	1
	lea	edx, DWORD PTR _bytes$[ebp]
	push	edx
	lea	ecx, DWORD PTR _text$[ebp]
	call	DWORD PTR __imp_?toUTF8@String@Localization@@QAEPBDAAIH@Z
	mov	DWORD PTR _szComposedString$[ebp], eax

; 494  : 	CvString str;

	lea	ecx, DWORD PTR _str$[ebp]
	call	DWORD PTR __imp_??0?$basic_string@DU?$char_traits@D@std@@V?$allocator@D@2@@std@@QAE@XZ
	mov	BYTE PTR __$EHRec$[ebp+8], 2

; 495  : 	str.assign(szComposedString, bytes);

	mov	eax, DWORD PTR _bytes$[ebp]
	push	eax
	mov	ecx, DWORD PTR _szComposedString$[ebp]
	push	ecx
	lea	ecx, DWORD PTR _str$[ebp]
	call	DWORD PTR __imp_?assign@?$basic_string@DU?$char_traits@D@std@@V?$allocator@D@2@@std@@QAEAAV12@PBDI@Z

; 496  : 	return str;

	lea	edx, DWORD PTR _str$[ebp]
	push	edx
	mov	ecx, DWORD PTR ___$ReturnUdt$[ebp]
	call	DWORD PTR __imp_??0?$basic_string@DU?$char_traits@D@std@@V?$allocator@D@2@@std@@QAE@ABV01@@Z
	mov	eax, DWORD PTR $T233018[ebp]
	or	eax, 1
	mov	DWORD PTR $T233018[ebp], eax
	mov	BYTE PTR __$EHRec$[ebp+8], 1
	lea	ecx, DWORD PTR _str$[ebp]
	call	DWORD PTR __imp_??1?$basic_string@DU?$char_traits@D@std@@V?$allocator@D@2@@std@@QAE@XZ
	mov	BYTE PTR __$EHRec$[ebp+8], 0
	lea	ecx, DWORD PTR _text$[ebp]
	call	DWORD PTR __imp_??1String@Localization@@UAE@XZ
	mov	eax, DWORD PTR ___$ReturnUdt$[ebp]

; 497  : }

	mov	ecx, DWORD PTR __$EHRec$[ebp]
	mov	DWORD PTR fs:0, ecx
	pop	ecx
	mov	ecx, DWORD PTR __$ArrayPad$[ebp]
	xor	ecx, ebp
	call	@__security_check_cookie@4
	mov	esp, ebp
	pop	ebp
	ret	0
_TEXT	ENDS
;	COMDAT text$x
text$x	SEGMENT
__unwindfunclet$?GetLocalizedText@@YA?AVCvString@@PBD@Z$0:
	lea	ecx, DWORD PTR _text$[ebp]
	jmp	DWORD PTR __imp_??1String@Localization@@UAE@XZ
__unwindfunclet$?GetLocalizedText@@YA?AVCvString@@PBD@Z$1:
	lea	ecx, DWORD PTR _str$[ebp]
	jmp	??1CvString@@QAE@XZ			; CvString::~CvString
__unwindfunclet$?GetLocalizedText@@YA?AVCvString@@PBD@Z$2:
	mov	eax, DWORD PTR $T233018[ebp]
	and	eax, 1
	je	$LN6@GetLocaliz
	and	DWORD PTR $T233018[ebp], -2		; fffffffeH
	mov	ecx, DWORD PTR ___$ReturnUdt$[ebp]
	jmp	??1CvString@@QAE@XZ			; CvString::~CvString
$LN6@GetLocaliz:
	ret	0
__ehhandler$?GetLocalizedText@@YA?AVCvString@@PBD@Z:
	mov	edx, DWORD PTR [esp+8]
	lea	eax, DWORD PTR [edx+12]
	mov	ecx, DWORD PTR [edx-132]
	xor	ecx, eax
	call	@__security_check_cookie@4
	mov	ecx, DWORD PTR [edx-96]
	xor	ecx, eax
	call	@__security_check_cookie@4
	mov	eax, OFFSET __ehfuncinfo$?GetLocalizedText@@YA?AVCvString@@PBD@Z
	jmp	___CxxFrameHandler3
text$x	ENDS
?GetLocalizedText@@YA?AVCvString@@PBD@Z ENDP		; GetLocalizedText
PUBLIC	?GetCultureCost@CvPolicyEntry@@QBEHXZ		; CvPolicyEntry::GetCultureCost
; Function compile flags: /Odtp
; File d:\sources\lekmod_git\checkout\lekmod_dll\cvgamecoredll_expansion2\cvpolicyclasses.cpp
;	COMDAT ?GetCultureCost@CvPolicyEntry@@QBEHXZ
_TEXT	SEGMENT
_this$ = -4						; size = 4
?GetCultureCost@CvPolicyEntry@@QBEHXZ PROC		; CvPolicyEntry::GetCultureCost, COMDAT
; _this$ = ecx

; 860  : {

	push	ebp
	mov	ebp, esp
	push	ecx
	mov	DWORD PTR _this$[ebp], ecx

; 861  : 	return m_iCultureCost;

	mov	eax, DWORD PTR _this$[ebp]
	mov	eax, DWORD PTR [eax+264]

; 862  : }

	mov	esp, ebp
	pop	ebp
	ret	0
?GetCultureCost@CvPolicyEntry@@QBEHXZ ENDP		; CvPolicyEntry::GetCultureCost
_TEXT	ENDS
PUBLIC	?GetGridX@CvPolicyEntry@@QBEHXZ			; CvPolicyEntry::GetGridX
; Function compile flags: /Odtp
;	COMDAT ?GetGridX@CvPolicyEntry@@QBEHXZ
_TEXT	SEGMENT
_this$ = -4						; size = 4
?GetGridX@CvPolicyEntry@@QBEHXZ PROC			; CvPolicyEntry::GetGridX, COMDAT
; _this$ = ecx

; 866  : {

	push	ebp
	mov	ebp, esp
	push	ecx
	mov	DWORD PTR _this$[ebp], ecx

; 867  : 	return m_iGridX;

	mov	eax, DWORD PTR _this$[ebp]
	mov	eax, DWORD PTR [eax+268]

; 868  : }

	mov	esp, ebp
	pop	ebp
	ret	0
?GetGridX@CvPolicyEntry@@QBEHXZ ENDP			; CvPolicyEntry::GetGridX
_TEXT	ENDS
PUBLIC	?GetGridY@CvPolicyEntry@@QBEHXZ			; CvPolicyEntry::GetGridY
; Function compile flags: /Odtp
;	COMDAT ?GetGridY@CvPolicyEntry@@QBEHXZ
_TEXT	SEGMENT
_this$ = -4						; size = 4
?GetGridY@CvPolicyEntry@@QBEHXZ PROC			; CvPolicyEntry::GetGridY, COMDAT
; _this$ = ecx

; 872  : {

	push	ebp
	mov	ebp, esp
	push	ecx
	mov	DWORD PTR _this$[ebp], ecx

; 873  : 	return m_iGridY;

	mov	eax, DWORD PTR _this$[ebp]
	mov	eax, DWORD PTR [eax+272]

; 874  : }

	mov	esp, ebp
	pop	ebp
	ret	0
?GetGridY@CvPolicyEntry@@QBEHXZ ENDP			; CvPolicyEntry::GetGridY
_TEXT	ENDS
PUBLIC	?GetLevel@CvPolicyEntry@@QBEHXZ			; CvPolicyEntry::GetLevel
; Function compile flags: /Odtp
;	COMDAT ?GetLevel@CvPolicyEntry@@QBEHXZ
_TEXT	SEGMENT
_this$ = -4						; size = 4
?GetLevel@CvPolicyEntry@@QBEHXZ PROC			; CvPolicyEntry::GetLevel, COMDAT
; _this$ = ecx

; 878  : {

	push	ebp
	mov	ebp, esp
	push	ecx
	mov	DWORD PTR _this$[ebp], ecx

; 879  : 	return m_iLevel;

	mov	eax, DWORD PTR _this$[ebp]
	mov	eax, DWORD PTR [eax+276]

; 880  : }

	mov	esp, ebp
	pop	ebp
	ret	0
?GetLevel@CvPolicyEntry@@QBEHXZ ENDP			; CvPolicyEntry::GetLevel
_TEXT	ENDS
PUBLIC	?GetPolicyCostModifier@CvPolicyEntry@@QBEHXZ	; CvPolicyEntry::GetPolicyCostModifier
; Function compile flags: /Odtp
;	COMDAT ?GetPolicyCostModifier@CvPolicyEntry@@QBEHXZ
_TEXT	SEGMENT
_this$ = -4						; size = 4
?GetPolicyCostModifier@CvPolicyEntry@@QBEHXZ PROC	; CvPolicyEntry::GetPolicyCostModifier, COMDAT
; _this$ = ecx

; 884  : {

	push	ebp
	mov	ebp, esp
	push	ecx
	mov	DWORD PTR _this$[ebp], ecx

; 885  : 	return m_iPolicyCostModifier;

	mov	eax, DWORD PTR _this$[ebp]
	mov	eax, DWORD PTR [eax+280]

; 886  : }

	mov	esp, ebp
	pop	ebp
	ret	0
?GetPolicyCostModifier@CvPolicyEntry@@QBEHXZ ENDP	; CvPolicyEntry::GetPolicyCostModifier
_TEXT	ENDS
PUBLIC	?GetCulturePerCity@CvPolicyEntry@@QBEHXZ	; CvPolicyEntry::GetCulturePerCity
; Function compile flags: /Odtp
;	COMDAT ?GetCulturePerCity@CvPolicyEntry@@QBEHXZ
_TEXT	SEGMENT
_this$ = -4						; size = 4
?GetCulturePerCity@CvPolicyEntry@@QBEHXZ PROC		; CvPolicyEntry::GetCulturePerCity, COMDAT
; _this$ = ecx

; 890  : {

	push	ebp
	mov	ebp, esp
	push	ecx
	mov	DWORD PTR _this$[ebp], ecx

; 891  : 	return m_iCulturePerCity;

	mov	eax, DWORD PTR _this$[ebp]
	mov	eax, DWORD PTR [eax+284]

; 892  : }

	mov	esp, ebp
	pop	ebp
	ret	0
?GetCulturePerCity@CvPolicyEntry@@QBEHXZ ENDP		; CvPolicyEntry::GetCulturePerCity
_TEXT	ENDS
PUBLIC	?GetCulturePerWonder@CvPolicyEntry@@QBEHXZ	; CvPolicyEntry::GetCulturePerWonder
; Function compile flags: /Odtp
;	COMDAT ?GetCulturePerWonder@CvPolicyEntry@@QBEHXZ
_TEXT	SEGMENT
_this$ = -4						; size = 4
?GetCulturePerWonder@CvPolicyEntry@@QBEHXZ PROC		; CvPolicyEntry::GetCulturePerWonder, COMDAT
; _this$ = ecx

; 905  : {

	push	ebp
	mov	ebp, esp
	push	ecx
	mov	DWORD PTR _this$[ebp], ecx

; 906  : 	return m_iCulturePerWonder;

	mov	eax, DWORD PTR _this$[ebp]
	mov	eax, DWORD PTR [eax+288]

; 907  : }

	mov	esp, ebp
	pop	ebp
	ret	0
?GetCulturePerWonder@CvPolicyEntry@@QBEHXZ ENDP		; CvPolicyEntry::GetCulturePerWonder
_TEXT	ENDS
PUBLIC	?GetCultureWonderMultiplier@CvPolicyEntry@@QBEHXZ ; CvPolicyEntry::GetCultureWonderMultiplier
; Function compile flags: /Odtp
;	COMDAT ?GetCultureWonderMultiplier@CvPolicyEntry@@QBEHXZ
_TEXT	SEGMENT
_this$ = -4						; size = 4
?GetCultureWonderMultiplier@CvPolicyEntry@@QBEHXZ PROC	; CvPolicyEntry::GetCultureWonderMultiplier, COMDAT
; _this$ = ecx

; 911  : {

	push	ebp
	mov	ebp, esp
	push	ecx
	mov	DWORD PTR _this$[ebp], ecx

; 912  : 	return m_iCultureWonderMultiplier;

	mov	eax, DWORD PTR _this$[ebp]
	mov	eax, DWORD PTR [eax+292]

; 913  : }

	mov	esp, ebp
	pop	ebp
	ret	0
?GetCultureWonderMultiplier@CvPolicyEntry@@QBEHXZ ENDP	; CvPolicyEntry::GetCultureWonderMultiplier
_TEXT	ENDS
PUBLIC	?GetCulturePerTechResearched@CvPolicyEntry@@QBEHXZ ; CvPolicyEntry::GetCulturePerTechResearched
; Function compile flags: /Odtp
;	COMDAT ?GetCulturePerTechResearched@CvPolicyEntry@@QBEHXZ
_TEXT	SEGMENT
_this$ = -4						; size = 4
?GetCulturePerTechResearched@CvPolicyEntry@@QBEHXZ PROC	; CvPolicyEntry::GetCulturePerTechResearched, COMDAT
; _this$ = ecx

; 917  : {

	push	ebp
	mov	ebp, esp
	push	ecx
	mov	DWORD PTR _this$[ebp], ecx

; 918  : 	return m_iCulturePerTechResearched;

	mov	eax, DWORD PTR _this$[ebp]
	mov	eax, DWORD PTR [eax+296]

; 919  : }

	mov	esp, ebp
	pop	ebp
	ret	0
?GetCulturePerTechResearched@CvPolicyEntry@@QBEHXZ ENDP	; CvPolicyEntry::GetCulturePerTechResearched
_TEXT	ENDS
PUBLIC	?GetCultureImprovementChange@CvPolicyEntry@@QBEHXZ ; CvPolicyEntry::GetCultureImprovementChange
; Function compile flags: /Odtp
;	COMDAT ?GetCultureImprovementChange@CvPolicyEntry@@QBEHXZ
_TEXT	SEGMENT
_this$ = -4						; size = 4
?GetCultureImprovementChange@CvPolicyEntry@@QBEHXZ PROC	; CvPolicyEntry::GetCultureImprovementChange, COMDAT
; _this$ = ecx

; 923  : {

	push	ebp
	mov	ebp, esp
	push	ecx
	mov	DWORD PTR _this$[ebp], ecx

; 924  : 	return m_iCultureImprovementChange;

	mov	eax, DWORD PTR _this$[ebp]
	mov	eax, DWORD PTR [eax+300]

; 925  : }

	mov	esp, ebp
	pop	ebp
	ret	0
?GetCultureImprovementChange@CvPolicyEntry@@QBEHXZ ENDP	; CvPolicyEntry::GetCultureImprovementChange
_TEXT	ENDS
PUBLIC	?GetCultureFromKills@CvPolicyEntry@@QBEHXZ	; CvPolicyEntry::GetCultureFromKills
; Function compile flags: /Odtp
;	COMDAT ?GetCultureFromKills@CvPolicyEntry@@QBEHXZ
_TEXT	SEGMENT
_this$ = -4						; size = 4
?GetCultureFromKills@CvPolicyEntry@@QBEHXZ PROC		; CvPolicyEntry::GetCultureFromKills, COMDAT
; _this$ = ecx

; 929  : {

	push	ebp
	mov	ebp, esp
	push	ecx
	mov	DWORD PTR _this$[ebp], ecx

; 930  : 	return m_iCultureFromKills;

	mov	eax, DWORD PTR _this$[ebp]
	mov	eax, DWORD PTR [eax+304]

; 931  : }

	mov	esp, ebp
	pop	ebp
	ret	0
?GetCultureFromKills@CvPolicyEntry@@QBEHXZ ENDP		; CvPolicyEntry::GetCultureFromKills
_TEXT	ENDS
PUBLIC	?GetCultureFromBarbarianKills@CvPolicyEntry@@QBEHXZ ; CvPolicyEntry::GetCultureFromBarbarianKills
; Function compile flags: /Odtp
;	COMDAT ?GetCultureFromBarbarianKills@CvPolicyEntry@@QBEHXZ
_TEXT	SEGMENT
_this$ = -4						; size = 4
?GetCultureFromBarbarianKills@CvPolicyEntry@@QBEHXZ PROC ; CvPolicyEntry::GetCultureFromBarbarianKills, COMDAT
; _this$ = ecx

; 935  : {

	push	ebp
	mov	ebp, esp
	push	ecx
	mov	DWORD PTR _this$[ebp], ecx

; 936  : 	return m_iCultureFromBarbarianKills;

	mov	eax, DWORD PTR _this$[ebp]
	mov	eax, DWORD PTR [eax+308]

; 937  : }

	mov	esp, ebp
	pop	ebp
	ret	0
?GetCultureFromBarbarianKills@CvPolicyEntry@@QBEHXZ ENDP ; CvPolicyEntry::GetCultureFromBarbarianKills
_TEXT	ENDS
PUBLIC	?GetGoldFromKills@CvPolicyEntry@@QBEHXZ		; CvPolicyEntry::GetGoldFromKills
; Function compile flags: /Odtp
;	COMDAT ?GetGoldFromKills@CvPolicyEntry@@QBEHXZ
_TEXT	SEGMENT
_this$ = -4						; size = 4
?GetGoldFromKills@CvPolicyEntry@@QBEHXZ PROC		; CvPolicyEntry::GetGoldFromKills, COMDAT
; _this$ = ecx

; 941  : {

	push	ebp
	mov	ebp, esp
	push	ecx
	mov	DWORD PTR _this$[ebp], ecx

; 942  : 	return m_iGoldFromKills;

	mov	eax, DWORD PTR _this$[ebp]
	mov	eax, DWORD PTR [eax+312]

; 943  : }

	mov	esp, ebp
	pop	ebp
	ret	0
?GetGoldFromKills@CvPolicyEntry@@QBEHXZ ENDP		; CvPolicyEntry::GetGoldFromKills
_TEXT	ENDS
PUBLIC	?GetScienceFromKills@CvPolicyEntry@@QBEHXZ	; CvPolicyEntry::GetScienceFromKills
; Function compile flags: /Odtp
;	COMDAT ?GetScienceFromKills@CvPolicyEntry@@QBEHXZ
_TEXT	SEGMENT
_this$ = -4						; size = 4
?GetScienceFromKills@CvPolicyEntry@@QBEHXZ PROC		; CvPolicyEntry::GetScienceFromKills, COMDAT
; _this$ = ecx

; 948  : {

	push	ebp
	mov	ebp, esp
	push	ecx
	mov	DWORD PTR _this$[ebp], ecx

; 949  : 	return m_iScienceFromKills;

	mov	eax, DWORD PTR _this$[ebp]
	mov	eax, DWORD PTR [eax+316]

; 950  : }

	mov	esp, ebp
	pop	ebp
	ret	0
?GetScienceFromKills@CvPolicyEntry@@QBEHXZ ENDP		; CvPolicyEntry::GetScienceFromKills
_TEXT	ENDS
PUBLIC	?GetEmbarkedExtraMoves@CvPolicyEntry@@QBEHXZ	; CvPolicyEntry::GetEmbarkedExtraMoves
; Function compile flags: /Odtp
;	COMDAT ?GetEmbarkedExtraMoves@CvPolicyEntry@@QBEHXZ
_TEXT	SEGMENT
_this$ = -4						; size = 4
?GetEmbarkedExtraMoves@CvPolicyEntry@@QBEHXZ PROC	; CvPolicyEntry::GetEmbarkedExtraMoves, COMDAT
; _this$ = ecx

; 955  : {

	push	ebp
	mov	ebp, esp
	push	ecx
	mov	DWORD PTR _this$[ebp], ecx

; 956  : 	return m_iEmbarkedExtraMoves;

	mov	eax, DWORD PTR _this$[ebp]
	mov	eax, DWORD PTR [eax+320]

; 957  : }

	mov	esp, ebp
	pop	ebp
	ret	0
?GetEmbarkedExtraMoves@CvPolicyEntry@@QBEHXZ ENDP	; CvPolicyEntry::GetEmbarkedExtraMoves
_TEXT	ENDS
PUBLIC	?GetAttackBonusTurns@CvPolicyEntry@@QBEHXZ	; CvPolicyEntry::GetAttackBonusTurns
; Function compile flags: /Odtp
;	COMDAT ?GetAttackBonusTurns@CvPolicyEntry@@QBEHXZ
_TEXT	SEGMENT
_this$ = -4						; size = 4
?GetAttackBonusTurns@CvPolicyEntry@@QBEHXZ PROC		; CvPolicyEntry::GetAttackBonusTurns, COMDAT
; _this$ = ecx

; 961  : {

	push	ebp
	mov	ebp, esp
	push	ecx
	mov	DWORD PTR _this$[ebp], ecx

; 962  : 	return m_iAttackBonusTurns;

	mov	eax, DWORD PTR _this$[ebp]
	mov	eax, DWORD PTR [eax+324]

; 963  : }

	mov	esp, ebp
	pop	ebp
	ret	0
?GetAttackBonusTurns@CvPolicyEntry@@QBEHXZ ENDP		; CvPolicyEntry::GetAttackBonusTurns
_TEXT	ENDS
PUBLIC	?GetGoldenAgeTurns@CvPolicyEntry@@QBEHXZ	; CvPolicyEntry::GetGoldenAgeTurns
; Function compile flags: /Odtp
;	COMDAT ?GetGoldenAgeTurns@CvPolicyEntry@@QBEHXZ
_TEXT	SEGMENT
_this$ = -4						; size = 4
?GetGoldenAgeTurns@CvPolicyEntry@@QBEHXZ PROC		; CvPolicyEntry::GetGoldenAgeTurns, COMDAT
; _this$ = ecx

; 967  : {

	push	ebp
	mov	ebp, esp
	push	ecx
	mov	DWORD PTR _this$[ebp], ecx

; 968  : 	return m_iGoldenAgeTurns;

	mov	eax, DWORD PTR _this$[ebp]
	mov	eax, DWORD PTR [eax+328]

; 969  : }

	mov	esp, ebp
	pop	ebp
	ret	0
?GetGoldenAgeTurns@CvPolicyEntry@@QBEHXZ ENDP		; CvPolicyEntry::GetGoldenAgeTurns
_TEXT	ENDS
PUBLIC	?GetGoldenAgeMeterMod@CvPolicyEntry@@QBEHXZ	; CvPolicyEntry::GetGoldenAgeMeterMod
; Function compile flags: /Odtp
;	COMDAT ?GetGoldenAgeMeterMod@CvPolicyEntry@@QBEHXZ
_TEXT	SEGMENT
_this$ = -4						; size = 4
?GetGoldenAgeMeterMod@CvPolicyEntry@@QBEHXZ PROC	; CvPolicyEntry::GetGoldenAgeMeterMod, COMDAT
; _this$ = ecx

; 973  : {

	push	ebp
	mov	ebp, esp
	push	ecx
	mov	DWORD PTR _this$[ebp], ecx

; 974  : 	return m_iGoldenAgeMeterMod;

	mov	eax, DWORD PTR _this$[ebp]
	mov	eax, DWORD PTR [eax+332]

; 975  : }

	mov	esp, ebp
	pop	ebp
	ret	0
?GetGoldenAgeMeterMod@CvPolicyEntry@@QBEHXZ ENDP	; CvPolicyEntry::GetGoldenAgeMeterMod
_TEXT	ENDS
PUBLIC	?GetGoldenAgeDurationMod@CvPolicyEntry@@QBEHXZ	; CvPolicyEntry::GetGoldenAgeDurationMod
; Function compile flags: /Odtp
;	COMDAT ?GetGoldenAgeDurationMod@CvPolicyEntry@@QBEHXZ
_TEXT	SEGMENT
_this$ = -4						; size = 4
?GetGoldenAgeDurationMod@CvPolicyEntry@@QBEHXZ PROC	; CvPolicyEntry::GetGoldenAgeDurationMod, COMDAT
; _this$ = ecx

; 979  : {

	push	ebp
	mov	ebp, esp
	push	ecx
	mov	DWORD PTR _this$[ebp], ecx

; 980  : 	return m_iGoldenAgeDurationMod;

	mov	eax, DWORD PTR _this$[ebp]
	mov	eax, DWORD PTR [eax+336]

; 981  : }

	mov	esp, ebp
	pop	ebp
	ret	0
?GetGoldenAgeDurationMod@CvPolicyEntry@@QBEHXZ ENDP	; CvPolicyEntry::GetGoldenAgeDurationMod
_TEXT	ENDS
PUBLIC	?GetNumFreeTechs@CvPolicyEntry@@QBEHXZ		; CvPolicyEntry::GetNumFreeTechs
; Function compile flags: /Odtp
;	COMDAT ?GetNumFreeTechs@CvPolicyEntry@@QBEHXZ
_TEXT	SEGMENT
_this$ = -4						; size = 4
?GetNumFreeTechs@CvPolicyEntry@@QBEHXZ PROC		; CvPolicyEntry::GetNumFreeTechs, COMDAT
; _this$ = ecx

; 985  : {

	push	ebp
	mov	ebp, esp
	push	ecx
	mov	DWORD PTR _this$[ebp], ecx

; 986  : 	return m_iNumFreeTechs;

	mov	eax, DWORD PTR _this$[ebp]
	mov	eax, DWORD PTR [eax+340]

; 987  : }

	mov	esp, ebp
	pop	ebp
	ret	0
?GetNumFreeTechs@CvPolicyEntry@@QBEHXZ ENDP		; CvPolicyEntry::GetNumFreeTechs
_TEXT	ENDS
PUBLIC	?GetNumFreePolicies@CvPolicyEntry@@QBEHXZ	; CvPolicyEntry::GetNumFreePolicies
; Function compile flags: /Odtp
;	COMDAT ?GetNumFreePolicies@CvPolicyEntry@@QBEHXZ
_TEXT	SEGMENT
_this$ = -4						; size = 4
?GetNumFreePolicies@CvPolicyEntry@@QBEHXZ PROC		; CvPolicyEntry::GetNumFreePolicies, COMDAT
; _this$ = ecx

; 991  : {

	push	ebp
	mov	ebp, esp
	push	ecx
	mov	DWORD PTR _this$[ebp], ecx

; 992  : 	return m_iNumFreePolicies;

	mov	eax, DWORD PTR _this$[ebp]
	mov	eax, DWORD PTR [eax+344]

; 993  : }

	mov	esp, ebp
	pop	ebp
	ret	0
?GetNumFreePolicies@CvPolicyEntry@@QBEHXZ ENDP		; CvPolicyEntry::GetNumFreePolicies
_TEXT	ENDS
PUBLIC	?GetNumFreeGreatPeople@CvPolicyEntry@@QBEHXZ	; CvPolicyEntry::GetNumFreeGreatPeople
; Function compile flags: /Odtp
;	COMDAT ?GetNumFreeGreatPeople@CvPolicyEntry@@QBEHXZ
_TEXT	SEGMENT
_this$ = -4						; size = 4
?GetNumFreeGreatPeople@CvPolicyEntry@@QBEHXZ PROC	; CvPolicyEntry::GetNumFreeGreatPeople, COMDAT
; _this$ = ecx

; 997  : {

	push	ebp
	mov	ebp, esp
	push	ecx
	mov	DWORD PTR _this$[ebp], ecx

; 998  : 	return m_iNumFreeGreatPeople;

	mov	eax, DWORD PTR _this$[ebp]
	mov	eax, DWORD PTR [eax+348]

; 999  : }

	mov	esp, ebp
	pop	ebp
	ret	0
?GetNumFreeGreatPeople@CvPolicyEntry@@QBEHXZ ENDP	; CvPolicyEntry::GetNumFreeGreatPeople
_TEXT	ENDS
PUBLIC	?GetNumExtraSpies@CvPolicyEntry@@QBEHXZ		; CvPolicyEntry::GetNumExtraSpies
; Function compile flags: /Odtp
;	COMDAT ?GetNumExtraSpies@CvPolicyEntry@@QBEHXZ
_TEXT	SEGMENT
_this$ = -4						; size = 4
?GetNumExtraSpies@CvPolicyEntry@@QBEHXZ PROC		; CvPolicyEntry::GetNumExtraSpies, COMDAT
; _this$ = ecx

; 1004 : {

	push	ebp
	mov	ebp, esp
	push	ecx
	mov	DWORD PTR _this$[ebp], ecx

; 1005 : 	return m_iNumExtraSpies;

	mov	eax, DWORD PTR _this$[ebp]
	mov	eax, DWORD PTR [eax+352]

; 1006 : }

	mov	esp, ebp
	pop	ebp
	ret	0
?GetNumExtraSpies@CvPolicyEntry@@QBEHXZ ENDP		; CvPolicyEntry::GetNumExtraSpies
_TEXT	ENDS
PUBLIC	?GetMedianTechPercentChange@CvPolicyEntry@@QBEHXZ ; CvPolicyEntry::GetMedianTechPercentChange
; Function compile flags: /Odtp
;	COMDAT ?GetMedianTechPercentChange@CvPolicyEntry@@QBEHXZ
_TEXT	SEGMENT
_this$ = -4						; size = 4
?GetMedianTechPercentChange@CvPolicyEntry@@QBEHXZ PROC	; CvPolicyEntry::GetMedianTechPercentChange, COMDAT
; _this$ = ecx

; 1011 : {

	push	ebp
	mov	ebp, esp
	push	ecx
	mov	DWORD PTR _this$[ebp], ecx

; 1012 : 	return m_iMedianTechPercentChange;

	mov	eax, DWORD PTR _this$[ebp]
	mov	eax, DWORD PTR [eax+356]

; 1013 : }

	mov	esp, ebp
	pop	ebp
	ret	0
?GetMedianTechPercentChange@CvPolicyEntry@@QBEHXZ ENDP	; CvPolicyEntry::GetMedianTechPercentChange
_TEXT	ENDS
PUBLIC	?GetStrategicResourceMod@CvPolicyEntry@@QBEHXZ	; CvPolicyEntry::GetStrategicResourceMod
; Function compile flags: /Odtp
;	COMDAT ?GetStrategicResourceMod@CvPolicyEntry@@QBEHXZ
_TEXT	SEGMENT
_this$ = -4						; size = 4
?GetStrategicResourceMod@CvPolicyEntry@@QBEHXZ PROC	; CvPolicyEntry::GetStrategicResourceMod, COMDAT
; _this$ = ecx

; 1017 : {

	push	ebp
	mov	ebp, esp
	push	ecx
	mov	DWORD PTR _this$[ebp], ecx

; 1018 : 	return m_iStrategicResourceMod;

	mov	eax, DWORD PTR _this$[ebp]
	mov	eax, DWORD PTR [eax+360]

; 1019 : }

	mov	esp, ebp
	pop	ebp
	ret	0
?GetStrategicResourceMod@CvPolicyEntry@@QBEHXZ ENDP	; CvPolicyEntry::GetStrategicResourceMod
_TEXT	ENDS
PUBLIC	?GetWonderProductionModifier@CvPolicyEntry@@QBEHXZ ; CvPolicyEntry::GetWonderProductionModifier
; Function compile flags: /Odtp
;	COMDAT ?GetWonderProductionModifier@CvPolicyEntry@@QBEHXZ
_TEXT	SEGMENT
_this$ = -4						; size = 4
?GetWonderProductionModifier@CvPolicyEntry@@QBEHXZ PROC	; CvPolicyEntry::GetWonderProductionModifier, COMDAT
; _this$ = ecx

; 1023 : {

	push	ebp
	mov	ebp, esp
	push	ecx
	mov	DWORD PTR _this$[ebp], ecx

; 1024 : 	return m_iWonderProductionModifier;

	mov	eax, DWORD PTR _this$[ebp]
	mov	eax, DWORD PTR [eax+364]

; 1025 : }

	mov	esp, ebp
	pop	ebp
	ret	0
?GetWonderProductionModifier@CvPolicyEntry@@QBEHXZ ENDP	; CvPolicyEntry::GetWonderProductionModifier
_TEXT	ENDS
PUBLIC	?GetBuildingProductionModifier@CvPolicyEntry@@QBEHXZ ; CvPolicyEntry::GetBuildingProductionModifier
; Function compile flags: /Odtp
;	COMDAT ?GetBuildingProductionModifier@CvPolicyEntry@@QBEHXZ
_TEXT	SEGMENT
_this$ = -4						; size = 4
?GetBuildingProductionModifier@CvPolicyEntry@@QBEHXZ PROC ; CvPolicyEntry::GetBuildingProductionModifier, COMDAT
; _this$ = ecx

; 1029 : {

	push	ebp
	mov	ebp, esp
	push	ecx
	mov	DWORD PTR _this$[ebp], ecx

; 1030 : 	return m_iBuildingProductionModifier;

	mov	eax, DWORD PTR _this$[ebp]
	mov	eax, DWORD PTR [eax+368]

; 1031 : }

	mov	esp, ebp
	pop	ebp
	ret	0
?GetBuildingProductionModifier@CvPolicyEntry@@QBEHXZ ENDP ; CvPolicyEntry::GetBuildingProductionModifier
_TEXT	ENDS
PUBLIC	?GetGreatPeopleRateModifier@CvPolicyEntry@@QBEHXZ ; CvPolicyEntry::GetGreatPeopleRateModifier
; Function compile flags: /Odtp
;	COMDAT ?GetGreatPeopleRateModifier@CvPolicyEntry@@QBEHXZ
_TEXT	SEGMENT
_this$ = -4						; size = 4
?GetGreatPeopleRateModifier@CvPolicyEntry@@QBEHXZ PROC	; CvPolicyEntry::GetGreatPeopleRateModifier, COMDAT
; _this$ = ecx

; 1035 : {

	push	ebp
	mov	ebp, esp
	push	ecx
	mov	DWORD PTR _this$[ebp], ecx

; 1036 : 	return m_iGreatPeopleRateModifier;

	mov	eax, DWORD PTR _this$[ebp]
	mov	eax, DWORD PTR [eax+372]

; 1037 : }

	mov	esp, ebp
	pop	ebp
	ret	0
?GetGreatPeopleRateModifier@CvPolicyEntry@@QBEHXZ ENDP	; CvPolicyEntry::GetGreatPeopleRateModifier
_TEXT	ENDS
PUBLIC	?GetGreatGeneralRateModifier@CvPolicyEntry@@QBEHXZ ; CvPolicyEntry::GetGreatGeneralRateModifier
; Function compile flags: /Odtp
;	COMDAT ?GetGreatGeneralRateModifier@CvPolicyEntry@@QBEHXZ
_TEXT	SEGMENT
_this$ = -4						; size = 4
?GetGreatGeneralRateModifier@CvPolicyEntry@@QBEHXZ PROC	; CvPolicyEntry::GetGreatGeneralRateModifier, COMDAT
; _this$ = ecx

; 1041 : {

	push	ebp
	mov	ebp, esp
	push	ecx
	mov	DWORD PTR _this$[ebp], ecx

; 1042 : 	return m_iGreatGeneralRateModifier;

	mov	eax, DWORD PTR _this$[ebp]
	mov	eax, DWORD PTR [eax+376]

; 1043 : }

	mov	esp, ebp
	pop	ebp
	ret	0
?GetGreatGeneralRateModifier@CvPolicyEntry@@QBEHXZ ENDP	; CvPolicyEntry::GetGreatGeneralRateModifier
_TEXT	ENDS
PUBLIC	?GetGreatAdmiralRateModifier@CvPolicyEntry@@QBEHXZ ; CvPolicyEntry::GetGreatAdmiralRateModifier
; Function compile flags: /Odtp
;	COMDAT ?GetGreatAdmiralRateModifier@CvPolicyEntry@@QBEHXZ
_TEXT	SEGMENT
_this$ = -4						; size = 4
?GetGreatAdmiralRateModifier@CvPolicyEntry@@QBEHXZ PROC	; CvPolicyEntry::GetGreatAdmiralRateModifier, COMDAT
; _this$ = ecx

; 1047 : {

	push	ebp
	mov	ebp, esp
	push	ecx
	mov	DWORD PTR _this$[ebp], ecx

; 1048 : 	return m_iGreatAdmiralRateModifier;

	mov	eax, DWORD PTR _this$[ebp]
	mov	eax, DWORD PTR [eax+380]

; 1049 : }

	mov	esp, ebp
	pop	ebp
	ret	0
?GetGreatAdmiralRateModifier@CvPolicyEntry@@QBEHXZ ENDP	; CvPolicyEntry::GetGreatAdmiralRateModifier
_TEXT	ENDS
PUBLIC	?GetGreatWriterRateModifier@CvPolicyEntry@@QBEHXZ ; CvPolicyEntry::GetGreatWriterRateModifier
; Function compile flags: /Odtp
;	COMDAT ?GetGreatWriterRateModifier@CvPolicyEntry@@QBEHXZ
_TEXT	SEGMENT
_this$ = -4						; size = 4
?GetGreatWriterRateModifier@CvPolicyEntry@@QBEHXZ PROC	; CvPolicyEntry::GetGreatWriterRateModifier, COMDAT
; _this$ = ecx

; 1053 : {

	push	ebp
	mov	ebp, esp
	push	ecx
	mov	DWORD PTR _this$[ebp], ecx

; 1054 : 	return m_iGreatWriterRateModifier;

	mov	eax, DWORD PTR _this$[ebp]
	mov	eax, DWORD PTR [eax+384]

; 1055 : }

	mov	esp, ebp
	pop	ebp
	ret	0
?GetGreatWriterRateModifier@CvPolicyEntry@@QBEHXZ ENDP	; CvPolicyEntry::GetGreatWriterRateModifier
_TEXT	ENDS
PUBLIC	?GetGreatArtistRateModifier@CvPolicyEntry@@QBEHXZ ; CvPolicyEntry::GetGreatArtistRateModifier
; Function compile flags: /Odtp
;	COMDAT ?GetGreatArtistRateModifier@CvPolicyEntry@@QBEHXZ
_TEXT	SEGMENT
_this$ = -4						; size = 4
?GetGreatArtistRateModifier@CvPolicyEntry@@QBEHXZ PROC	; CvPolicyEntry::GetGreatArtistRateModifier, COMDAT
; _this$ = ecx

; 1059 : {

	push	ebp
	mov	ebp, esp
	push	ecx
	mov	DWORD PTR _this$[ebp], ecx

; 1060 : 	return m_iGreatArtistRateModifier;

	mov	eax, DWORD PTR _this$[ebp]
	mov	eax, DWORD PTR [eax+388]

; 1061 : }

	mov	esp, ebp
	pop	ebp
	ret	0
?GetGreatArtistRateModifier@CvPolicyEntry@@QBEHXZ ENDP	; CvPolicyEntry::GetGreatArtistRateModifier
_TEXT	ENDS
PUBLIC	?GetGreatMusicianRateModifier@CvPolicyEntry@@QBEHXZ ; CvPolicyEntry::GetGreatMusicianRateModifier
; Function compile flags: /Odtp
;	COMDAT ?GetGreatMusicianRateModifier@CvPolicyEntry@@QBEHXZ
_TEXT	SEGMENT
_this$ = -4						; size = 4
?GetGreatMusicianRateModifier@CvPolicyEntry@@QBEHXZ PROC ; CvPolicyEntry::GetGreatMusicianRateModifier, COMDAT
; _this$ = ecx

; 1065 : {

	push	ebp
	mov	ebp, esp
	push	ecx
	mov	DWORD PTR _this$[ebp], ecx

; 1066 : 	return m_iGreatMusicianRateModifier;

	mov	eax, DWORD PTR _this$[ebp]
	mov	eax, DWORD PTR [eax+392]

; 1067 : }

	mov	esp, ebp
	pop	ebp
	ret	0
?GetGreatMusicianRateModifier@CvPolicyEntry@@QBEHXZ ENDP ; CvPolicyEntry::GetGreatMusicianRateModifier
_TEXT	ENDS
PUBLIC	?GetGreatMerchantRateModifier@CvPolicyEntry@@QBEHXZ ; CvPolicyEntry::GetGreatMerchantRateModifier
; Function compile flags: /Odtp
;	COMDAT ?GetGreatMerchantRateModifier@CvPolicyEntry@@QBEHXZ
_TEXT	SEGMENT
_this$ = -4						; size = 4
?GetGreatMerchantRateModifier@CvPolicyEntry@@QBEHXZ PROC ; CvPolicyEntry::GetGreatMerchantRateModifier, COMDAT
; _this$ = ecx

; 1071 : {

	push	ebp
	mov	ebp, esp
	push	ecx
	mov	DWORD PTR _this$[ebp], ecx

; 1072 : 	return m_iGreatMerchantRateModifier;

	mov	eax, DWORD PTR _this$[ebp]
	mov	eax, DWORD PTR [eax+396]

; 1073 : }

	mov	esp, ebp
	pop	ebp
	ret	0
?GetGreatMerchantRateModifier@CvPolicyEntry@@QBEHXZ ENDP ; CvPolicyEntry::GetGreatMerchantRateModifier
_TEXT	ENDS
PUBLIC	?GetGreatScientistRateModifier@CvPolicyEntry@@QBEHXZ ; CvPolicyEntry::GetGreatScientistRateModifier
; Function compile flags: /Odtp
;	COMDAT ?GetGreatScientistRateModifier@CvPolicyEntry@@QBEHXZ
_TEXT	SEGMENT
_this$ = -4						; size = 4
?GetGreatScientistRateModifier@CvPolicyEntry@@QBEHXZ PROC ; CvPolicyEntry::GetGreatScientistRateModifier, COMDAT
; _this$ = ecx

; 1077 : {

	push	ebp
	mov	ebp, esp
	push	ecx
	mov	DWORD PTR _this$[ebp], ecx

; 1078 : 	return m_iGreatScientistRateModifier;

	mov	eax, DWORD PTR _this$[ebp]
	mov	eax, DWORD PTR [eax+400]

; 1079 : }

	mov	esp, ebp
	pop	ebp
	ret	0
?GetGreatScientistRateModifier@CvPolicyEntry@@QBEHXZ ENDP ; CvPolicyEntry::GetGreatScientistRateModifier
_TEXT	ENDS
PUBLIC	?GetDomesticGreatGeneralRateModifier@CvPolicyEntry@@QBEHXZ ; CvPolicyEntry::GetDomesticGreatGeneralRateModifier
; Function compile flags: /Odtp
;	COMDAT ?GetDomesticGreatGeneralRateModifier@CvPolicyEntry@@QBEHXZ
_TEXT	SEGMENT
_this$ = -4						; size = 4
?GetDomesticGreatGeneralRateModifier@CvPolicyEntry@@QBEHXZ PROC ; CvPolicyEntry::GetDomesticGreatGeneralRateModifier, COMDAT
; _this$ = ecx

; 1083 : {

	push	ebp
	mov	ebp, esp
	push	ecx
	mov	DWORD PTR _this$[ebp], ecx

; 1084 : 	return m_iDomesticGreatGeneralRateModifier;

	mov	eax, DWORD PTR _this$[ebp]
	mov	eax, DWORD PTR [eax+404]

; 1085 : }

	mov	esp, ebp
	pop	ebp
	ret	0
?GetDomesticGreatGeneralRateModifier@CvPolicyEntry@@QBEHXZ ENDP ; CvPolicyEntry::GetDomesticGreatGeneralRateModifier
_TEXT	ENDS
PUBLIC	?GetExtraHappiness@CvPolicyEntry@@QBEHXZ	; CvPolicyEntry::GetExtraHappiness
; Function compile flags: /Odtp
;	COMDAT ?GetExtraHappiness@CvPolicyEntry@@QBEHXZ
_TEXT	SEGMENT
_this$ = -4						; size = 4
?GetExtraHappiness@CvPolicyEntry@@QBEHXZ PROC		; CvPolicyEntry::GetExtraHappiness, COMDAT
; _this$ = ecx

; 1089 : {

	push	ebp
	mov	ebp, esp
	push	ecx
	mov	DWORD PTR _this$[ebp], ecx

; 1090 : 	return m_iExtraHappiness;

	mov	eax, DWORD PTR _this$[ebp]
	mov	eax, DWORD PTR [eax+408]

; 1091 : }

	mov	esp, ebp
	pop	ebp
	ret	0
?GetExtraHappiness@CvPolicyEntry@@QBEHXZ ENDP		; CvPolicyEntry::GetExtraHappiness
_TEXT	ENDS
PUBLIC	?GetExtraHappinessPerCity@CvPolicyEntry@@QBEHXZ	; CvPolicyEntry::GetExtraHappinessPerCity
; Function compile flags: /Odtp
;	COMDAT ?GetExtraHappinessPerCity@CvPolicyEntry@@QBEHXZ
_TEXT	SEGMENT
_this$ = -4						; size = 4
?GetExtraHappinessPerCity@CvPolicyEntry@@QBEHXZ PROC	; CvPolicyEntry::GetExtraHappinessPerCity, COMDAT
; _this$ = ecx

; 1095 : {

	push	ebp
	mov	ebp, esp
	push	ecx
	mov	DWORD PTR _this$[ebp], ecx

; 1096 : 	return m_iExtraHappinessPerCity;

	mov	eax, DWORD PTR _this$[ebp]
	mov	eax, DWORD PTR [eax+412]

; 1097 : }

	mov	esp, ebp
	pop	ebp
	ret	0
?GetExtraHappinessPerCity@CvPolicyEntry@@QBEHXZ ENDP	; CvPolicyEntry::GetExtraHappinessPerCity
_TEXT	ENDS
PUBLIC	?GetUnhappinessMod@CvPolicyEntry@@QBEHXZ	; CvPolicyEntry::GetUnhappinessMod
; Function compile flags: /Odtp
;	COMDAT ?GetUnhappinessMod@CvPolicyEntry@@QBEHXZ
_TEXT	SEGMENT
_this$ = -4						; size = 4
?GetUnhappinessMod@CvPolicyEntry@@QBEHXZ PROC		; CvPolicyEntry::GetUnhappinessMod, COMDAT
; _this$ = ecx

; 1101 : {

	push	ebp
	mov	ebp, esp
	push	ecx
	mov	DWORD PTR _this$[ebp], ecx

; 1102 : 	return m_iUnhappinessMod;

	mov	eax, DWORD PTR _this$[ebp]
	mov	eax, DWORD PTR [eax+416]

; 1103 : }

	mov	esp, ebp
	pop	ebp
	ret	0
?GetUnhappinessMod@CvPolicyEntry@@QBEHXZ ENDP		; CvPolicyEntry::GetUnhappinessMod
_TEXT	ENDS
PUBLIC	?GetCityCountUnhappinessMod@CvPolicyEntry@@QBEHXZ ; CvPolicyEntry::GetCityCountUnhappinessMod
; Function compile flags: /Odtp
;	COMDAT ?GetCityCountUnhappinessMod@CvPolicyEntry@@QBEHXZ
_TEXT	SEGMENT
_this$ = -4						; size = 4
?GetCityCountUnhappinessMod@CvPolicyEntry@@QBEHXZ PROC	; CvPolicyEntry::GetCityCountUnhappinessMod, COMDAT
; _this$ = ecx

; 1107 : {

	push	ebp
	mov	ebp, esp
	push	ecx
	mov	DWORD PTR _this$[ebp], ecx

; 1108 : 	return m_iCityCountUnhappinessMod;

	mov	eax, DWORD PTR _this$[ebp]
	mov	eax, DWORD PTR [eax+420]

; 1109 : }

	mov	esp, ebp
	pop	ebp
	ret	0
?GetCityCountUnhappinessMod@CvPolicyEntry@@QBEHXZ ENDP	; CvPolicyEntry::GetCityCountUnhappinessMod
_TEXT	ENDS
PUBLIC	?GetOccupiedPopulationUnhappinessMod@CvPolicyEntry@@QBEHXZ ; CvPolicyEntry::GetOccupiedPopulationUnhappinessMod
; Function compile flags: /Odtp
;	COMDAT ?GetOccupiedPopulationUnhappinessMod@CvPolicyEntry@@QBEHXZ
_TEXT	SEGMENT
_this$ = -4						; size = 4
?GetOccupiedPopulationUnhappinessMod@CvPolicyEntry@@QBEHXZ PROC ; CvPolicyEntry::GetOccupiedPopulationUnhappinessMod, COMDAT
; _this$ = ecx

; 1113 : {

	push	ebp
	mov	ebp, esp
	push	ecx
	mov	DWORD PTR _this$[ebp], ecx

; 1114 : 	return m_iOccupiedPopulationUnhappinessMod;

	mov	eax, DWORD PTR _this$[ebp]
	mov	eax, DWORD PTR [eax+424]

; 1115 : }

	mov	esp, ebp
	pop	ebp
	ret	0
?GetOccupiedPopulationUnhappinessMod@CvPolicyEntry@@QBEHXZ ENDP ; CvPolicyEntry::GetOccupiedPopulationUnhappinessMod
_TEXT	ENDS
PUBLIC	?GetCapitalUnhappinessMod@CvPolicyEntry@@QBEHXZ	; CvPolicyEntry::GetCapitalUnhappinessMod
; Function compile flags: /Odtp
;	COMDAT ?GetCapitalUnhappinessMod@CvPolicyEntry@@QBEHXZ
_TEXT	SEGMENT
_this$ = -4						; size = 4
?GetCapitalUnhappinessMod@CvPolicyEntry@@QBEHXZ PROC	; CvPolicyEntry::GetCapitalUnhappinessMod, COMDAT
; _this$ = ecx

; 1119 : {

	push	ebp
	mov	ebp, esp
	push	ecx
	mov	DWORD PTR _this$[ebp], ecx

; 1120 : 	return m_iCapitalUnhappinessMod;

	mov	eax, DWORD PTR _this$[ebp]
	mov	eax, DWORD PTR [eax+428]

; 1121 : }

	mov	esp, ebp
	pop	ebp
	ret	0
?GetCapitalUnhappinessMod@CvPolicyEntry@@QBEHXZ ENDP	; CvPolicyEntry::GetCapitalUnhappinessMod
_TEXT	ENDS
PUBLIC	?GetFreeExperience@CvPolicyEntry@@QBEHXZ	; CvPolicyEntry::GetFreeExperience
; Function compile flags: /Odtp
;	COMDAT ?GetFreeExperience@CvPolicyEntry@@QBEHXZ
_TEXT	SEGMENT
_this$ = -4						; size = 4
?GetFreeExperience@CvPolicyEntry@@QBEHXZ PROC		; CvPolicyEntry::GetFreeExperience, COMDAT
; _this$ = ecx

; 1125 : {

	push	ebp
	mov	ebp, esp
	push	ecx
	mov	DWORD PTR _this$[ebp], ecx

; 1126 : 	return m_iFreeExperience;

	mov	eax, DWORD PTR _this$[ebp]
	mov	eax, DWORD PTR [eax+432]

; 1127 : }

	mov	esp, ebp
	pop	ebp
	ret	0
?GetFreeExperience@CvPolicyEntry@@QBEHXZ ENDP		; CvPolicyEntry::GetFreeExperience
_TEXT	ENDS
PUBLIC	?GetWorkerSpeedModifier@CvPolicyEntry@@QBEHXZ	; CvPolicyEntry::GetWorkerSpeedModifier
; Function compile flags: /Odtp
;	COMDAT ?GetWorkerSpeedModifier@CvPolicyEntry@@QBEHXZ
_TEXT	SEGMENT
_this$ = -4						; size = 4
?GetWorkerSpeedModifier@CvPolicyEntry@@QBEHXZ PROC	; CvPolicyEntry::GetWorkerSpeedModifier, COMDAT
; _this$ = ecx

; 1131 : {

	push	ebp
	mov	ebp, esp
	push	ecx
	mov	DWORD PTR _this$[ebp], ecx

; 1132 : 	return m_iWorkerSpeedModifier;

	mov	eax, DWORD PTR _this$[ebp]
	mov	eax, DWORD PTR [eax+436]

; 1133 : }

	mov	esp, ebp
	pop	ebp
	ret	0
?GetWorkerSpeedModifier@CvPolicyEntry@@QBEHXZ ENDP	; CvPolicyEntry::GetWorkerSpeedModifier
_TEXT	ENDS
PUBLIC	?GetAllFeatureProduction@CvPolicyEntry@@QBEHXZ	; CvPolicyEntry::GetAllFeatureProduction
; Function compile flags: /Odtp
;	COMDAT ?GetAllFeatureProduction@CvPolicyEntry@@QBEHXZ
_TEXT	SEGMENT
_this$ = -4						; size = 4
?GetAllFeatureProduction@CvPolicyEntry@@QBEHXZ PROC	; CvPolicyEntry::GetAllFeatureProduction, COMDAT
; _this$ = ecx

; 1137 : {

	push	ebp
	mov	ebp, esp
	push	ecx
	mov	DWORD PTR _this$[ebp], ecx

; 1138 : 	return m_iAllFeatureProduction;

	mov	eax, DWORD PTR _this$[ebp]
	mov	eax, DWORD PTR [eax+440]

; 1139 : }

	mov	esp, ebp
	pop	ebp
	ret	0
?GetAllFeatureProduction@CvPolicyEntry@@QBEHXZ ENDP	; CvPolicyEntry::GetAllFeatureProduction
_TEXT	ENDS
PUBLIC	?GetImprovementCostModifier@CvPolicyEntry@@QBEHXZ ; CvPolicyEntry::GetImprovementCostModifier
; Function compile flags: /Odtp
;	COMDAT ?GetImprovementCostModifier@CvPolicyEntry@@QBEHXZ
_TEXT	SEGMENT
_this$ = -4						; size = 4
?GetImprovementCostModifier@CvPolicyEntry@@QBEHXZ PROC	; CvPolicyEntry::GetImprovementCostModifier, COMDAT
; _this$ = ecx

; 1143 : {

	push	ebp
	mov	ebp, esp
	push	ecx
	mov	DWORD PTR _this$[ebp], ecx

; 1144 : 	return m_iImprovementCostModifier;

	mov	eax, DWORD PTR _this$[ebp]
	mov	eax, DWORD PTR [eax+444]

; 1145 : }

	mov	esp, ebp
	pop	ebp
	ret	0
?GetImprovementCostModifier@CvPolicyEntry@@QBEHXZ ENDP	; CvPolicyEntry::GetImprovementCostModifier
_TEXT	ENDS
PUBLIC	?GetImprovementUpgradeRateModifier@CvPolicyEntry@@QBEHXZ ; CvPolicyEntry::GetImprovementUpgradeRateModifier
; Function compile flags: /Odtp
;	COMDAT ?GetImprovementUpgradeRateModifier@CvPolicyEntry@@QBEHXZ
_TEXT	SEGMENT
_this$ = -4						; size = 4
?GetImprovementUpgradeRateModifier@CvPolicyEntry@@QBEHXZ PROC ; CvPolicyEntry::GetImprovementUpgradeRateModifier, COMDAT
; _this$ = ecx

; 1149 : {

	push	ebp
	mov	ebp, esp
	push	ecx
	mov	DWORD PTR _this$[ebp], ecx

; 1150 : 	return m_iImprovementUpgradeRateModifier;

	mov	eax, DWORD PTR _this$[ebp]
	mov	eax, DWORD PTR [eax+448]

; 1151 : }

	mov	esp, ebp
	pop	ebp
	ret	0
?GetImprovementUpgradeRateModifier@CvPolicyEntry@@QBEHXZ ENDP ; CvPolicyEntry::GetImprovementUpgradeRateModifier
_TEXT	ENDS
PUBLIC	?GetSpecialistProductionModifier@CvPolicyEntry@@QBEHXZ ; CvPolicyEntry::GetSpecialistProductionModifier
; Function compile flags: /Odtp
;	COMDAT ?GetSpecialistProductionModifier@CvPolicyEntry@@QBEHXZ
_TEXT	SEGMENT
_this$ = -4						; size = 4
