; Listing generated by Microsoft (R) Optimizing Compiler Version 15.00.30729.01 

	TITLE	D:\sources\Lekmod_git\checkout\LEKMOD_DLL\CvGameCoreDLL_Expansion2\CvPromotionClasses.cpp
	.686P
	.XMM
	include listing.inc
	.model	flat

INCLUDELIB MSVCRT
INCLUDELIB OLDNAMES

PUBLIC	??1CvHotKeyInfo@@QAE@XZ				; CvHotKeyInfo::~CvHotKeyInfo
PUBLIC	??_7CvPromotionEntry@@6B@			; CvPromotionEntry::`vftable'
PUBLIC	??0CvPromotionEntry@@QAE@XZ			; CvPromotionEntry::CvPromotionEntry
PUBLIC	?CacheResults@CvPromotionEntry@@UAE_NAAVResults@Database@@AAVCvDatabaseUtility@@@Z ; CvPromotionEntry::CacheResults
EXTRN	__imp_??0?$basic_string@DU?$char_traits@D@std@@V?$allocator@D@2@@std@@QAE@XZ:PROC
EXTRN	??0CvHotKeyInfo@@QAE@XZ:PROC			; CvHotKeyInfo::CvHotKeyInfo
EXTRN	___security_cookie:DWORD
EXTRN	___CxxFrameHandler3:PROC
EXTRN	@__security_check_cookie@4:PROC
EXTRN	??8CvBaseInfo@@UBE_NABV0@@Z:PROC		; CvBaseInfo::operator==
EXTRN	?readFrom@CvBaseInfo@@UAEXAAVFDataStream@@@Z:PROC ; CvBaseInfo::readFrom
EXTRN	?writeTo@CvBaseInfo@@UBEXAAVFDataStream@@@Z:PROC ; CvBaseInfo::writeTo
;	COMDAT ??_7CvPromotionEntry@@6B@
; File d:\sources\lekmod_git\checkout\lekmod_dll\cvgamecoredllutil\include\cvstring.h
CONST	SEGMENT
??_7CvPromotionEntry@@6B@ DD FLAT:?CacheResults@CvPromotionEntry@@UAE_NAAVResults@Database@@AAVCvDatabaseUtility@@@Z ; CvPromotionEntry::`vftable'
	DD	FLAT:??8CvBaseInfo@@UBE_NABV0@@Z
	DD	FLAT:?readFrom@CvBaseInfo@@UAEXAAVFDataStream@@@Z
	DD	FLAT:?writeTo@CvBaseInfo@@UBEXAAVFDataStream@@@Z
CONST	ENDS
;	COMDAT xdata$x
xdata$x	SEGMENT
__unwindtable$??0CvPromotionEntry@@QAE@XZ DD 0ffffffffH
	DD	FLAT:__unwindfunclet$??0CvPromotionEntry@@QAE@XZ$0
__ehfuncinfo$??0CvPromotionEntry@@QAE@XZ DD 019930522H
	DD	01H
	DD	FLAT:__unwindtable$??0CvPromotionEntry@@QAE@XZ
	DD	2 DUP(00H)
	DD	2 DUP(00H)
	DD	00H
	DD	01H
; Function compile flags: /Odtp
; File d:\sources\lekmod_git\checkout\lekmod_dll\cvgamecoredll_expansion2\cvpromotionclasses.cpp
xdata$x	ENDS
;	COMDAT ??0CvPromotionEntry@@QAE@XZ
_TEXT	SEGMENT
_this$ = -20						; size = 4
$T219293 = -16						; size = 4
__$EHRec$ = -12						; size = 12
??0CvPromotionEntry@@QAE@XZ PROC			; CvPromotionEntry::CvPromotionEntry, COMDAT
; _this$ = ecx

; 182  : {

	push	ebp
	mov	ebp, esp
	push	-1
	push	__ehhandler$??0CvPromotionEntry@@QAE@XZ
	mov	eax, DWORD PTR fs:0
	push	eax
	sub	esp, 8
	mov	eax, DWORD PTR ___security_cookie
	xor	eax, ebp
	push	eax
	lea	eax, DWORD PTR __$EHRec$[ebp]
	mov	DWORD PTR fs:0, eax
	mov	DWORD PTR _this$[ebp], ecx
	mov	ecx, DWORD PTR _this$[ebp]
	call	??0CvHotKeyInfo@@QAE@XZ			; CvHotKeyInfo::CvHotKeyInfo
	mov	DWORD PTR __$EHRec$[ebp+8], 0
	mov	eax, DWORD PTR _this$[ebp]
	mov	DWORD PTR [eax], OFFSET ??_7CvPromotionEntry@@6B@
	mov	ecx, DWORD PTR _this$[ebp]
	mov	DWORD PTR [ecx+460], -1
	mov	edx, DWORD PTR _this$[ebp]
	mov	DWORD PTR [edx+464], -1
	mov	eax, DWORD PTR _this$[ebp]
	mov	DWORD PTR [eax+468], -1
	mov	ecx, DWORD PTR _this$[ebp]
	mov	DWORD PTR [ecx+472], -1
	mov	edx, DWORD PTR _this$[ebp]
	mov	DWORD PTR [edx+476], -1
	mov	eax, DWORD PTR _this$[ebp]
	mov	DWORD PTR [eax+480], -1
	mov	ecx, DWORD PTR _this$[ebp]
	mov	DWORD PTR [ecx+484], -1
	mov	edx, DWORD PTR _this$[ebp]
	mov	DWORD PTR [edx+488], -1
	mov	eax, DWORD PTR _this$[ebp]
	mov	DWORD PTR [eax+492], -1
	mov	ecx, DWORD PTR _this$[ebp]
	mov	DWORD PTR [ecx+496], -1
	mov	edx, DWORD PTR _this$[ebp]
	mov	DWORD PTR [edx+500], -1
	mov	eax, DWORD PTR _this$[ebp]
	mov	DWORD PTR [eax+504], -1
	mov	ecx, DWORD PTR _this$[ebp]
	mov	DWORD PTR [ecx+508], -1
	mov	edx, DWORD PTR _this$[ebp]
	mov	DWORD PTR [edx+512], -1
	mov	eax, DWORD PTR _this$[ebp]
	mov	DWORD PTR [eax+516], -1
	mov	ecx, DWORD PTR _this$[ebp]
	mov	DWORD PTR [ecx+520], 0
	mov	edx, DWORD PTR _this$[ebp]
	mov	DWORD PTR [edx+524], 0
	mov	eax, DWORD PTR _this$[ebp]
	mov	DWORD PTR [eax+528], 0
	mov	ecx, DWORD PTR _this$[ebp]
	mov	DWORD PTR [ecx+532], 0
	mov	edx, DWORD PTR _this$[ebp]
	mov	DWORD PTR [edx+536], 0
	mov	eax, DWORD PTR _this$[ebp]
	mov	DWORD PTR [eax+540], 0
	mov	ecx, DWORD PTR _this$[ebp]
	mov	DWORD PTR [ecx+544], 0
	mov	edx, DWORD PTR _this$[ebp]
	mov	DWORD PTR [edx+548], 0
	mov	eax, DWORD PTR _this$[ebp]
	mov	DWORD PTR [eax+552], 0
	mov	ecx, DWORD PTR _this$[ebp]
	mov	DWORD PTR [ecx+556], 0
	mov	edx, DWORD PTR _this$[ebp]
	mov	DWORD PTR [edx+560], 0
	mov	eax, DWORD PTR _this$[ebp]
	mov	DWORD PTR [eax+564], 0
	mov	ecx, DWORD PTR _this$[ebp]
	mov	DWORD PTR [ecx+568], 0
	mov	edx, DWORD PTR _this$[ebp]
	mov	DWORD PTR [edx+572], 0
	mov	eax, DWORD PTR _this$[ebp]
	mov	DWORD PTR [eax+576], 0
	mov	ecx, DWORD PTR _this$[ebp]
	mov	DWORD PTR [ecx+580], 0
	mov	edx, DWORD PTR _this$[ebp]
	mov	DWORD PTR [edx+584], 0
	mov	eax, DWORD PTR _this$[ebp]
	mov	DWORD PTR [eax+588], 0
	mov	ecx, DWORD PTR _this$[ebp]
	mov	DWORD PTR [ecx+592], 0
	mov	edx, DWORD PTR _this$[ebp]
	mov	DWORD PTR [edx+596], 0
	mov	eax, DWORD PTR _this$[ebp]
	mov	DWORD PTR [eax+600], 0
	mov	ecx, DWORD PTR _this$[ebp]
	mov	DWORD PTR [ecx+604], 0
	mov	edx, DWORD PTR _this$[ebp]
	mov	DWORD PTR [edx+608], 0
	mov	eax, DWORD PTR _this$[ebp]
	mov	DWORD PTR [eax+612], 0
	mov	ecx, DWORD PTR _this$[ebp]
	mov	DWORD PTR [ecx+616], 0
	mov	edx, DWORD PTR _this$[ebp]
	mov	DWORD PTR [edx+620], 0
	mov	eax, DWORD PTR _this$[ebp]
	mov	DWORD PTR [eax+624], 0
	mov	ecx, DWORD PTR _this$[ebp]
	mov	DWORD PTR [ecx+628], 0
	mov	edx, DWORD PTR _this$[ebp]
	mov	DWORD PTR [edx+632], 0
	mov	eax, DWORD PTR _this$[ebp]
	mov	DWORD PTR [eax+636], 0
	mov	ecx, DWORD PTR _this$[ebp]
	mov	DWORD PTR [ecx+640], 0
	mov	edx, DWORD PTR _this$[ebp]
	mov	DWORD PTR [edx+644], 0
	mov	eax, DWORD PTR _this$[ebp]
	mov	DWORD PTR [eax+648], 0
	mov	ecx, DWORD PTR _this$[ebp]
	mov	DWORD PTR [ecx+652], 0
	mov	edx, DWORD PTR _this$[ebp]
	mov	DWORD PTR [edx+656], 0
	mov	eax, DWORD PTR _this$[ebp]
	mov	DWORD PTR [eax+660], 0
	mov	ecx, DWORD PTR _this$[ebp]
	mov	DWORD PTR [ecx+664], 0
	mov	edx, DWORD PTR _this$[ebp]
	mov	DWORD PTR [edx+668], 0
	mov	eax, DWORD PTR _this$[ebp]
	mov	DWORD PTR [eax+672], 0
	mov	ecx, DWORD PTR _this$[ebp]
	mov	BYTE PTR [ecx+676], 0
	mov	edx, DWORD PTR _this$[ebp]
	mov	BYTE PTR [edx+677], 0
	mov	eax, DWORD PTR _this$[ebp]
	mov	DWORD PTR [eax+680], 0
	mov	ecx, DWORD PTR _this$[ebp]
	mov	BYTE PTR [ecx+684], 0
	mov	edx, DWORD PTR _this$[ebp]
	mov	BYTE PTR [edx+685], 0
	mov	eax, DWORD PTR _this$[ebp]
	mov	DWORD PTR [eax+688], 0
	mov	ecx, DWORD PTR _this$[ebp]
	mov	DWORD PTR [ecx+692], 0
	mov	edx, DWORD PTR _this$[ebp]
	mov	DWORD PTR [edx+696], 0
	mov	eax, DWORD PTR _this$[ebp]
	mov	DWORD PTR [eax+700], 0
	mov	ecx, DWORD PTR _this$[ebp]
	mov	DWORD PTR [ecx+704], 0
	mov	edx, DWORD PTR _this$[ebp]
	mov	DWORD PTR [edx+708], 0
	mov	eax, DWORD PTR _this$[ebp]
	mov	DWORD PTR [eax+712], 0
	mov	ecx, DWORD PTR _this$[ebp]
	mov	DWORD PTR [ecx+716], -1
	mov	edx, DWORD PTR _this$[ebp]
	mov	DWORD PTR [edx+720], 0
	mov	eax, DWORD PTR _this$[ebp]
	mov	DWORD PTR [eax+724], 0
	mov	ecx, DWORD PTR _this$[ebp]
	mov	DWORD PTR [ecx+728], 0
	mov	edx, DWORD PTR _this$[ebp]
	mov	DWORD PTR [edx+732], 0
	mov	eax, DWORD PTR _this$[ebp]
	mov	DWORD PTR [eax+736], 0
	mov	ecx, DWORD PTR _this$[ebp]
	mov	DWORD PTR [ecx+740], 0
	mov	edx, DWORD PTR _this$[ebp]
	mov	DWORD PTR [edx+744], 0
	mov	eax, DWORD PTR _this$[ebp]
	mov	DWORD PTR [eax+748], 0
	mov	ecx, DWORD PTR _this$[ebp]
	mov	DWORD PTR [ecx+752], 0
	mov	edx, DWORD PTR _this$[ebp]
	mov	DWORD PTR [edx+756], 0
	mov	eax, DWORD PTR _this$[ebp]
	mov	DWORD PTR [eax+760], 0
	mov	ecx, DWORD PTR _this$[ebp]
	mov	DWORD PTR [ecx+764], 0
	mov	edx, DWORD PTR _this$[ebp]
	mov	DWORD PTR [edx+768], 0
	mov	eax, DWORD PTR _this$[ebp]
	mov	DWORD PTR [eax+772], 0
	mov	ecx, DWORD PTR _this$[ebp]
	mov	DWORD PTR [ecx+776], 0
	mov	edx, DWORD PTR _this$[ebp]
	mov	DWORD PTR [edx+780], 0
	mov	eax, DWORD PTR _this$[ebp]
	mov	DWORD PTR [eax+784], 0
	mov	ecx, DWORD PTR _this$[ebp]
	mov	DWORD PTR [ecx+788], 0
	mov	edx, DWORD PTR _this$[ebp]
	mov	BYTE PTR [edx+792], 0
	mov	eax, DWORD PTR _this$[ebp]
	mov	BYTE PTR [eax+793], 0
	mov	ecx, DWORD PTR _this$[ebp]
	mov	BYTE PTR [ecx+794], 0
	mov	edx, DWORD PTR _this$[ebp]
	mov	BYTE PTR [edx+795], 0
	mov	eax, DWORD PTR _this$[ebp]
	mov	BYTE PTR [eax+796], 0
	mov	ecx, DWORD PTR _this$[ebp]
	mov	BYTE PTR [ecx+797], 0
	mov	edx, DWORD PTR _this$[ebp]
	mov	BYTE PTR [edx+798], 0
	mov	eax, DWORD PTR _this$[ebp]
	mov	BYTE PTR [eax+799], 0
	mov	ecx, DWORD PTR _this$[ebp]
	mov	BYTE PTR [ecx+800], 0
	mov	edx, DWORD PTR _this$[ebp]
	mov	BYTE PTR [edx+801], 0
	mov	eax, DWORD PTR _this$[ebp]
	mov	BYTE PTR [eax+802], 0
	mov	ecx, DWORD PTR _this$[ebp]
	mov	BYTE PTR [ecx+803], 0
	mov	edx, DWORD PTR _this$[ebp]
	mov	BYTE PTR [edx+804], 0
	mov	eax, DWORD PTR _this$[ebp]
	mov	BYTE PTR [eax+805], 0
	mov	ecx, DWORD PTR _this$[ebp]
	mov	BYTE PTR [ecx+806], 0
	mov	edx, DWORD PTR _this$[ebp]
	mov	BYTE PTR [edx+807], 0
	mov	eax, DWORD PTR _this$[ebp]
	mov	BYTE PTR [eax+808], 0
	mov	ecx, DWORD PTR _this$[ebp]
	mov	BYTE PTR [ecx+809], 0
	mov	edx, DWORD PTR _this$[ebp]
	mov	BYTE PTR [edx+810], 0
	mov	eax, DWORD PTR _this$[ebp]
	mov	BYTE PTR [eax+811], 0
	mov	ecx, DWORD PTR _this$[ebp]
	mov	BYTE PTR [ecx+812], 0
	mov	edx, DWORD PTR _this$[ebp]
	mov	BYTE PTR [edx+813], 0
	mov	eax, DWORD PTR _this$[ebp]
	mov	BYTE PTR [eax+814], 0
	mov	ecx, DWORD PTR _this$[ebp]
	mov	BYTE PTR [ecx+815], 0
	mov	edx, DWORD PTR _this$[ebp]
	mov	BYTE PTR [edx+816], 0
	mov	eax, DWORD PTR _this$[ebp]
	mov	BYTE PTR [eax+817], 0
	mov	ecx, DWORD PTR _this$[ebp]
	mov	BYTE PTR [ecx+818], 0
	mov	edx, DWORD PTR _this$[ebp]
	mov	BYTE PTR [edx+819], 0
	mov	eax, DWORD PTR _this$[ebp]
	mov	BYTE PTR [eax+820], 0
	mov	ecx, DWORD PTR _this$[ebp]
	mov	BYTE PTR [ecx+821], 0
	mov	edx, DWORD PTR _this$[ebp]
	mov	BYTE PTR [edx+822], 0
	mov	eax, DWORD PTR _this$[ebp]
	mov	BYTE PTR [eax+823], 0
	mov	ecx, DWORD PTR _this$[ebp]
	mov	BYTE PTR [ecx+824], 0
	mov	edx, DWORD PTR _this$[ebp]
	mov	BYTE PTR [edx+825], 0
	mov	eax, DWORD PTR _this$[ebp]
	mov	BYTE PTR [eax+826], 0
	mov	ecx, DWORD PTR _this$[ebp]
	mov	BYTE PTR [ecx+827], 0
	mov	edx, DWORD PTR _this$[ebp]
	mov	BYTE PTR [edx+828], 0
	mov	eax, DWORD PTR _this$[ebp]
	mov	BYTE PTR [eax+829], 0
	mov	ecx, DWORD PTR _this$[ebp]
	mov	BYTE PTR [ecx+830], 0
	mov	edx, DWORD PTR _this$[ebp]
	mov	BYTE PTR [edx+831], 0
	mov	eax, DWORD PTR _this$[ebp]
	mov	BYTE PTR [eax+832], 0
	mov	ecx, DWORD PTR _this$[ebp]
	mov	BYTE PTR [ecx+833], 0
	mov	edx, DWORD PTR _this$[ebp]
	mov	BYTE PTR [edx+834], 0
	mov	eax, DWORD PTR _this$[ebp]
	mov	BYTE PTR [eax+835], 0
	mov	ecx, DWORD PTR _this$[ebp]
	mov	DWORD PTR [ecx+836], -1
	mov	edx, DWORD PTR _this$[ebp]
	mov	DWORD PTR [edx+840], -1
	mov	eax, DWORD PTR _this$[ebp]
	mov	DWORD PTR [eax+844], -1
	mov	ecx, DWORD PTR _this$[ebp]
	mov	BYTE PTR [ecx+848], 0
	mov	edx, DWORD PTR _this$[ebp]
	mov	DWORD PTR [edx+852], 0
	mov	eax, DWORD PTR _this$[ebp]
	add	eax, 856				; 00000358H
	mov	DWORD PTR $T219293[ebp], eax
	mov	ecx, DWORD PTR $T219293[ebp]
	call	DWORD PTR __imp_??0?$basic_string@DU?$char_traits@D@std@@V?$allocator@D@2@@std@@QAE@XZ
	mov	ecx, DWORD PTR _this$[ebp]
	mov	DWORD PTR [ecx+884], 0
	mov	edx, DWORD PTR _this$[ebp]
	mov	DWORD PTR [edx+888], 0
	mov	eax, DWORD PTR _this$[ebp]
	mov	DWORD PTR [eax+892], 0
	mov	ecx, DWORD PTR _this$[ebp]
	mov	DWORD PTR [ecx+896], 0
	mov	edx, DWORD PTR _this$[ebp]
	mov	DWORD PTR [edx+900], 0
	mov	eax, DWORD PTR _this$[ebp]
	mov	DWORD PTR [eax+904], 0
	mov	ecx, DWORD PTR _this$[ebp]
	mov	DWORD PTR [ecx+908], 0
	mov	edx, DWORD PTR _this$[ebp]
	mov	DWORD PTR [edx+912], 0
	mov	eax, DWORD PTR _this$[ebp]
	mov	DWORD PTR [eax+916], 0
	mov	ecx, DWORD PTR _this$[ebp]
	mov	DWORD PTR [ecx+920], 0
	mov	edx, DWORD PTR _this$[ebp]
	mov	DWORD PTR [edx+924], 0
	mov	eax, DWORD PTR _this$[ebp]
	mov	DWORD PTR [eax+928], 0
	mov	ecx, DWORD PTR _this$[ebp]
	mov	DWORD PTR [ecx+932], 0
	mov	edx, DWORD PTR _this$[ebp]
	mov	DWORD PTR [edx+936], 0
	mov	eax, DWORD PTR _this$[ebp]
	mov	DWORD PTR [eax+940], 0
	mov	ecx, DWORD PTR _this$[ebp]
	mov	DWORD PTR [ecx+944], 0
	mov	edx, DWORD PTR _this$[ebp]
	mov	DWORD PTR [edx+948], 0
	mov	eax, DWORD PTR _this$[ebp]
	mov	DWORD PTR [eax+952], 0

; 183  : }

	mov	DWORD PTR __$EHRec$[ebp+8], -1
	mov	eax, DWORD PTR _this$[ebp]
	mov	ecx, DWORD PTR __$EHRec$[ebp]
	mov	DWORD PTR fs:0, ecx
	pop	ecx
	mov	esp, ebp
	pop	ebp
	ret	0
_TEXT	ENDS
;	COMDAT text$x
text$x	SEGMENT
__unwindfunclet$??0CvPromotionEntry@@QAE@XZ$0:
	mov	ecx, DWORD PTR _this$[ebp]
	jmp	??1CvHotKeyInfo@@QAE@XZ
__ehhandler$??0CvPromotionEntry@@QAE@XZ:
	mov	edx, DWORD PTR [esp+8]
	lea	eax, DWORD PTR [edx+12]
	mov	ecx, DWORD PTR [edx-12]
	xor	ecx, eax
	call	@__security_check_cookie@4
	mov	eax, OFFSET __ehfuncinfo$??0CvPromotionEntry@@QAE@XZ
	jmp	___CxxFrameHandler3
text$x	ENDS
??0CvPromotionEntry@@QAE@XZ ENDP			; CvPromotionEntry::CvPromotionEntry
PUBLIC	??1CvString@@QAE@XZ				; CvString::~CvString
PUBLIC	??1CvBaseInfo@@QAE@XZ				; CvBaseInfo::~CvBaseInfo
EXTRN	__imp_??1?$basic_string@DU?$char_traits@D@std@@V?$allocator@D@2@@std@@QAE@XZ:PROC
;	COMDAT xdata$x
xdata$x	SEGMENT
__ehfuncinfo$??1CvHotKeyInfo@@QAE@XZ DD 019930522H
	DD	06H
	DD	FLAT:__unwindtable$??1CvHotKeyInfo@@QAE@XZ
	DD	2 DUP(00H)
	DD	2 DUP(00H)
	DD	00H
	DD	01H
__unwindtable$??1CvHotKeyInfo@@QAE@XZ DD 0ffffffffH
	DD	FLAT:__unwindfunclet$??1CvHotKeyInfo@@QAE@XZ$0
	DD	00H
	DD	FLAT:__unwindfunclet$??1CvHotKeyInfo@@QAE@XZ$1
	DD	01H
	DD	FLAT:__unwindfunclet$??1CvHotKeyInfo@@QAE@XZ$2
	DD	02H
	DD	FLAT:__unwindfunclet$??1CvHotKeyInfo@@QAE@XZ$3
	DD	03H
	DD	FLAT:__unwindfunclet$??1CvHotKeyInfo@@QAE@XZ$4
	DD	04H
	DD	FLAT:__unwindfunclet$??1CvHotKeyInfo@@QAE@XZ$5
; Function compile flags: /Odtp
xdata$x	ENDS
;	COMDAT ??1CvHotKeyInfo@@QAE@XZ
_TEXT	SEGMENT
_this$ = -76						; size = 4
$T219343 = -36						; size = 4
$T219338 = -32						; size = 4
$T219333 = -28						; size = 4
$T219328 = -24						; size = 4
$T219323 = -20						; size = 4
$T219318 = -16						; size = 4
__$EHRec$ = -12						; size = 12
??1CvHotKeyInfo@@QAE@XZ PROC				; CvHotKeyInfo::~CvHotKeyInfo, COMDAT
; _this$ = ecx
	push	ebp
	mov	ebp, esp
	push	-1
	push	__ehhandler$??1CvHotKeyInfo@@QAE@XZ
	mov	eax, DWORD PTR fs:0
	push	eax
	sub	esp, 64					; 00000040H
	mov	eax, DWORD PTR ___security_cookie
	xor	eax, ebp
	push	eax
	lea	eax, DWORD PTR __$EHRec$[ebp]
	mov	DWORD PTR fs:0, eax
	mov	DWORD PTR _this$[ebp], ecx
	mov	DWORD PTR __$EHRec$[ebp+8], 5
	mov	eax, DWORD PTR _this$[ebp]
	add	eax, 432				; 000001b0H
	mov	DWORD PTR $T219318[ebp], eax
	mov	ecx, DWORD PTR $T219318[ebp]
	call	DWORD PTR __imp_??1?$basic_string@DU?$char_traits@D@std@@V?$allocator@D@2@@std@@QAE@XZ
	mov	BYTE PTR __$EHRec$[ebp+8], 4
	mov	ecx, DWORD PTR _this$[ebp]
	add	ecx, 404				; 00000194H
	mov	DWORD PTR $T219323[ebp], ecx
	mov	ecx, DWORD PTR $T219323[ebp]
	call	DWORD PTR __imp_??1?$basic_string@DU?$char_traits@D@std@@V?$allocator@D@2@@std@@QAE@XZ
	mov	BYTE PTR __$EHRec$[ebp+8], 3
	mov	edx, DWORD PTR _this$[ebp]
	add	edx, 376				; 00000178H
	mov	DWORD PTR $T219328[ebp], edx
	mov	ecx, DWORD PTR $T219328[ebp]
	call	DWORD PTR __imp_??1?$basic_string@DU?$char_traits@D@std@@V?$allocator@D@2@@std@@QAE@XZ
	mov	BYTE PTR __$EHRec$[ebp+8], 2
	mov	eax, DWORD PTR _this$[ebp]
	add	eax, 348				; 0000015cH
	mov	DWORD PTR $T219333[ebp], eax
	mov	ecx, DWORD PTR $T219333[ebp]
	call	DWORD PTR __imp_??1?$basic_string@DU?$char_traits@D@std@@V?$allocator@D@2@@std@@QAE@XZ
	mov	BYTE PTR __$EHRec$[ebp+8], 1
	mov	ecx, DWORD PTR _this$[ebp]
	add	ecx, 320				; 00000140H
	mov	DWORD PTR $T219338[ebp], ecx
	mov	ecx, DWORD PTR $T219338[ebp]
	call	DWORD PTR __imp_??1?$basic_string@DU?$char_traits@D@std@@V?$allocator@D@2@@std@@QAE@XZ
	mov	BYTE PTR __$EHRec$[ebp+8], 0
	mov	edx, DWORD PTR _this$[ebp]
	add	edx, 292				; 00000124H
	mov	DWORD PTR $T219343[ebp], edx
	mov	ecx, DWORD PTR $T219343[ebp]
	call	DWORD PTR __imp_??1?$basic_string@DU?$char_traits@D@std@@V?$allocator@D@2@@std@@QAE@XZ
	mov	DWORD PTR __$EHRec$[ebp+8], -1
	mov	ecx, DWORD PTR _this$[ebp]
	call	??1CvBaseInfo@@QAE@XZ
	mov	ecx, DWORD PTR __$EHRec$[ebp]
	mov	DWORD PTR fs:0, ecx
	pop	ecx
	mov	esp, ebp
	pop	ebp
	ret	0
_TEXT	ENDS
;	COMDAT text$x
text$x	SEGMENT
__unwindfunclet$??1CvHotKeyInfo@@QAE@XZ$0:
	mov	ecx, DWORD PTR _this$[ebp]
	jmp	??1CvBaseInfo@@QAE@XZ
__unwindfunclet$??1CvHotKeyInfo@@QAE@XZ$1:
	mov	ecx, DWORD PTR _this$[ebp]
	add	ecx, 292				; 00000124H
	jmp	??1CvString@@QAE@XZ			; CvString::~CvString
__unwindfunclet$??1CvHotKeyInfo@@QAE@XZ$2:
	mov	ecx, DWORD PTR _this$[ebp]
	add	ecx, 320				; 00000140H
	jmp	??1CvString@@QAE@XZ			; CvString::~CvString
__unwindfunclet$??1CvHotKeyInfo@@QAE@XZ$3:
	mov	ecx, DWORD PTR _this$[ebp]
	add	ecx, 348				; 0000015cH
	jmp	??1CvString@@QAE@XZ			; CvString::~CvString
__unwindfunclet$??1CvHotKeyInfo@@QAE@XZ$4:
	mov	ecx, DWORD PTR _this$[ebp]
	add	ecx, 376				; 00000178H
	jmp	??1CvString@@QAE@XZ			; CvString::~CvString
__unwindfunclet$??1CvHotKeyInfo@@QAE@XZ$5:
	mov	ecx, DWORD PTR _this$[ebp]
	add	ecx, 404				; 00000194H
	jmp	??1CvString@@QAE@XZ			; CvString::~CvString
__ehhandler$??1CvHotKeyInfo@@QAE@XZ:
	mov	edx, DWORD PTR [esp+8]
	lea	eax, DWORD PTR [edx+12]
	mov	ecx, DWORD PTR [edx-68]
	xor	ecx, eax
	call	@__security_check_cookie@4
	mov	eax, OFFSET __ehfuncinfo$??1CvHotKeyInfo@@QAE@XZ
	jmp	___CxxFrameHandler3
text$x	ENDS
??1CvHotKeyInfo@@QAE@XZ ENDP				; CvHotKeyInfo::~CvHotKeyInfo
;	COMDAT xdata$x
xdata$x	SEGMENT
__ehfuncinfo$??1CvBaseInfo@@QAE@XZ DD 019930522H
	DD	08H
	DD	FLAT:__unwindtable$??1CvBaseInfo@@QAE@XZ
	DD	2 DUP(00H)
	DD	2 DUP(00H)
	DD	00H
	DD	01H
__unwindtable$??1CvBaseInfo@@QAE@XZ DD 0ffffffffH
	DD	FLAT:__unwindfunclet$??1CvBaseInfo@@QAE@XZ$0
	DD	00H
	DD	FLAT:__unwindfunclet$??1CvBaseInfo@@QAE@XZ$1
	DD	01H
	DD	FLAT:__unwindfunclet$??1CvBaseInfo@@QAE@XZ$2
	DD	02H
	DD	FLAT:__unwindfunclet$??1CvBaseInfo@@QAE@XZ$3
	DD	03H
	DD	FLAT:__unwindfunclet$??1CvBaseInfo@@QAE@XZ$4
	DD	04H
	DD	FLAT:__unwindfunclet$??1CvBaseInfo@@QAE@XZ$5
	DD	05H
	DD	FLAT:__unwindfunclet$??1CvBaseInfo@@QAE@XZ$6
	DD	06H
	DD	FLAT:__unwindfunclet$??1CvBaseInfo@@QAE@XZ$7
; Function compile flags: /Odtp
xdata$x	ENDS
;	COMDAT ??1CvBaseInfo@@QAE@XZ
_TEXT	SEGMENT
_this$ = -52						; size = 4
$T219460 = -48						; size = 4
$T219455 = -44						; size = 4
$T219450 = -40						; size = 4
$T219445 = -36						; size = 4
$T219440 = -32						; size = 4
$T219435 = -28						; size = 4
$T219430 = -24						; size = 4
$T219425 = -20						; size = 4
$T219420 = -16						; size = 4
__$EHRec$ = -12						; size = 12
??1CvBaseInfo@@QAE@XZ PROC				; CvBaseInfo::~CvBaseInfo, COMDAT
; _this$ = ecx
	push	ebp
	mov	ebp, esp
	push	-1
	push	__ehhandler$??1CvBaseInfo@@QAE@XZ
	mov	eax, DWORD PTR fs:0
	push	eax
	sub	esp, 40					; 00000028H
	mov	eax, DWORD PTR ___security_cookie
	xor	eax, ebp
	push	eax
	lea	eax, DWORD PTR __$EHRec$[ebp]
	mov	DWORD PTR fs:0, eax
	mov	DWORD PTR _this$[ebp], ecx
	mov	DWORD PTR __$EHRec$[ebp+8], 7
	mov	eax, DWORD PTR _this$[ebp]
	add	eax, 232				; 000000e8H
	mov	DWORD PTR $T219420[ebp], eax
	mov	ecx, DWORD PTR $T219420[ebp]
	call	DWORD PTR __imp_??1?$basic_string@DU?$char_traits@D@std@@V?$allocator@D@2@@std@@QAE@XZ
	mov	BYTE PTR __$EHRec$[ebp+8], 6
	mov	ecx, DWORD PTR _this$[ebp]
	add	ecx, 204				; 000000ccH
	mov	DWORD PTR $T219425[ebp], ecx
	mov	ecx, DWORD PTR $T219425[ebp]
	call	DWORD PTR __imp_??1?$basic_string@DU?$char_traits@D@std@@V?$allocator@D@2@@std@@QAE@XZ
	mov	BYTE PTR __$EHRec$[ebp+8], 5
	mov	edx, DWORD PTR _this$[ebp]
	add	edx, 176				; 000000b0H
	mov	DWORD PTR $T219430[ebp], edx
	mov	ecx, DWORD PTR $T219430[ebp]
	call	DWORD PTR __imp_??1?$basic_string@DU?$char_traits@D@std@@V?$allocator@D@2@@std@@QAE@XZ
	mov	BYTE PTR __$EHRec$[ebp+8], 4
	mov	eax, DWORD PTR _this$[ebp]
	add	eax, 148				; 00000094H
	mov	DWORD PTR $T219435[ebp], eax
	mov	ecx, DWORD PTR $T219435[ebp]
	call	DWORD PTR __imp_??1?$basic_string@DU?$char_traits@D@std@@V?$allocator@D@2@@std@@QAE@XZ
	mov	BYTE PTR __$EHRec$[ebp+8], 3
	mov	ecx, DWORD PTR _this$[ebp]
	add	ecx, 120				; 00000078H
	mov	DWORD PTR $T219440[ebp], ecx
	mov	ecx, DWORD PTR $T219440[ebp]
	call	DWORD PTR __imp_??1?$basic_string@DU?$char_traits@D@std@@V?$allocator@D@2@@std@@QAE@XZ
	mov	BYTE PTR __$EHRec$[ebp+8], 2
	mov	edx, DWORD PTR _this$[ebp]
	add	edx, 92					; 0000005cH
	mov	DWORD PTR $T219445[ebp], edx
	mov	ecx, DWORD PTR $T219445[ebp]
	call	DWORD PTR __imp_??1?$basic_string@DU?$char_traits@D@std@@V?$allocator@D@2@@std@@QAE@XZ
	mov	BYTE PTR __$EHRec$[ebp+8], 1
	mov	eax, DWORD PTR _this$[ebp]
	add	eax, 64					; 00000040H
	mov	DWORD PTR $T219450[ebp], eax
	mov	ecx, DWORD PTR $T219450[ebp]
	call	DWORD PTR __imp_??1?$basic_string@DU?$char_traits@D@std@@V?$allocator@D@2@@std@@QAE@XZ
	mov	BYTE PTR __$EHRec$[ebp+8], 0
	mov	ecx, DWORD PTR _this$[ebp]
	add	ecx, 36					; 00000024H
	mov	DWORD PTR $T219455[ebp], ecx
	mov	ecx, DWORD PTR $T219455[ebp]
	call	DWORD PTR __imp_??1?$basic_string@DU?$char_traits@D@std@@V?$allocator@D@2@@std@@QAE@XZ
	mov	DWORD PTR __$EHRec$[ebp+8], -1
	mov	edx, DWORD PTR _this$[ebp]
	add	edx, 8
	mov	DWORD PTR $T219460[ebp], edx
	mov	ecx, DWORD PTR $T219460[ebp]
	call	DWORD PTR __imp_??1?$basic_string@DU?$char_traits@D@std@@V?$allocator@D@2@@std@@QAE@XZ
	mov	ecx, DWORD PTR __$EHRec$[ebp]
	mov	DWORD PTR fs:0, ecx
	pop	ecx
	mov	esp, ebp
	pop	ebp
	ret	0
_TEXT	ENDS
;	COMDAT text$x
text$x	SEGMENT
__unwindfunclet$??1CvBaseInfo@@QAE@XZ$0:
	mov	ecx, DWORD PTR _this$[ebp]
	add	ecx, 8
	jmp	??1CvString@@QAE@XZ			; CvString::~CvString
__unwindfunclet$??1CvBaseInfo@@QAE@XZ$1:
	mov	ecx, DWORD PTR _this$[ebp]
	add	ecx, 36					; 00000024H
	jmp	??1CvString@@QAE@XZ			; CvString::~CvString
__unwindfunclet$??1CvBaseInfo@@QAE@XZ$2:
	mov	ecx, DWORD PTR _this$[ebp]
	add	ecx, 64					; 00000040H
	jmp	??1CvString@@QAE@XZ			; CvString::~CvString
__unwindfunclet$??1CvBaseInfo@@QAE@XZ$3:
	mov	ecx, DWORD PTR _this$[ebp]
	add	ecx, 92					; 0000005cH
	jmp	??1CvString@@QAE@XZ			; CvString::~CvString
__unwindfunclet$??1CvBaseInfo@@QAE@XZ$4:
	mov	ecx, DWORD PTR _this$[ebp]
	add	ecx, 120				; 00000078H
	jmp	??1CvString@@QAE@XZ			; CvString::~CvString
__unwindfunclet$??1CvBaseInfo@@QAE@XZ$5:
	mov	ecx, DWORD PTR _this$[ebp]
	add	ecx, 148				; 00000094H
	jmp	??1CvString@@QAE@XZ			; CvString::~CvString
__unwindfunclet$??1CvBaseInfo@@QAE@XZ$6:
	mov	ecx, DWORD PTR _this$[ebp]
	add	ecx, 176				; 000000b0H
	jmp	??1CvString@@QAE@XZ			; CvString::~CvString
__unwindfunclet$??1CvBaseInfo@@QAE@XZ$7:
	mov	ecx, DWORD PTR _this$[ebp]
	add	ecx, 204				; 000000ccH
	jmp	??1CvString@@QAE@XZ			; CvString::~CvString
__ehhandler$??1CvBaseInfo@@QAE@XZ:
	mov	edx, DWORD PTR [esp+8]
	lea	eax, DWORD PTR [edx+12]
	mov	ecx, DWORD PTR [edx-44]
	xor	ecx, eax
	call	@__security_check_cookie@4
	mov	eax, OFFSET __ehfuncinfo$??1CvBaseInfo@@QAE@XZ
	jmp	___CxxFrameHandler3
text$x	ENDS
??1CvBaseInfo@@QAE@XZ ENDP				; CvBaseInfo::~CvBaseInfo
PUBLIC	??1CvPromotionEntry@@QAE@XZ			; CvPromotionEntry::~CvPromotionEntry
EXTRN	??_V@YAXPAX@Z:PROC				; operator delete[]
;	COMDAT xdata$x
; File d:\sources\lekmod_git\checkout\lekmod_dll\cvgamecoredllutil\include\cvstring.h
xdata$x	SEGMENT
__unwindtable$??1CvPromotionEntry@@QAE@XZ DD 0ffffffffH
	DD	FLAT:__unwindfunclet$??1CvPromotionEntry@@QAE@XZ$0
__ehfuncinfo$??1CvPromotionEntry@@QAE@XZ DD 019930522H
	DD	01H
	DD	FLAT:__unwindtable$??1CvPromotionEntry@@QAE@XZ
	DD	2 DUP(00H)
	DD	2 DUP(00H)
	DD	00H
	DD	01H
; Function compile flags: /Odtp
; File d:\sources\lekmod_git\checkout\lekmod_dll\cvgamecoredll_expansion2\cvpromotionclasses.cpp
xdata$x	ENDS
;	COMDAT ??1CvPromotionEntry@@QAE@XZ
_TEXT	SEGMENT
_this$ = -224						; size = 4
$T219583 = -160						; size = 4
$T219578 = -156						; size = 4
$T219577 = -152						; size = 4
$T219572 = -148						; size = 4
$T219571 = -144						; size = 4
$T219566 = -140						; size = 4
$T219565 = -136						; size = 4
$T219560 = -132						; size = 4
$T219559 = -128						; size = 4
$T219554 = -124						; size = 4
$T219553 = -120						; size = 4
$T219548 = -116						; size = 4
$T219547 = -112						; size = 4
$T219542 = -108						; size = 4
$T219541 = -104						; size = 4
$T219536 = -100						; size = 4
$T219535 = -96						; size = 4
$T219530 = -92						; size = 4
$T219529 = -88						; size = 4
$T219524 = -84						; size = 4
$T219523 = -80						; size = 4
$T219518 = -76						; size = 4
$T219516 = -72						; size = 4
$T219512 = -68						; size = 4
$T219510 = -64						; size = 4
$T219506 = -60						; size = 4
$T219504 = -56						; size = 4
$T219500 = -52						; size = 4
$T219498 = -48						; size = 4
$T219494 = -44						; size = 4
$T219492 = -40						; size = 4
$T219488 = -36						; size = 4
$T219486 = -32						; size = 4
$T219482 = -28						; size = 4
$T219480 = -24						; size = 4
$T219476 = -20						; size = 4
$T219474 = -16						; size = 4
__$EHRec$ = -12						; size = 12
??1CvPromotionEntry@@QAE@XZ PROC			; CvPromotionEntry::~CvPromotionEntry, COMDAT
; _this$ = ecx

; 187  : {

	push	ebp
	mov	ebp, esp
	push	-1
	push	__ehhandler$??1CvPromotionEntry@@QAE@XZ
	mov	eax, DWORD PTR fs:0
	push	eax
	sub	esp, 212				; 000000d4H
	mov	eax, DWORD PTR ___security_cookie
	xor	eax, ebp
	push	eax
	lea	eax, DWORD PTR __$EHRec$[ebp]
	mov	DWORD PTR fs:0, eax
	mov	DWORD PTR _this$[ebp], ecx
	mov	eax, DWORD PTR _this$[ebp]
	mov	DWORD PTR [eax], OFFSET ??_7CvPromotionEntry@@6B@
	mov	DWORD PTR __$EHRec$[ebp+8], 0

; 188  : 	SAFE_DELETE_ARRAY(m_piTerrainAttackPercent);

	mov	ecx, DWORD PTR _this$[ebp]
	add	ecx, 884				; 00000374H
	mov	DWORD PTR $T219476[ebp], ecx
	mov	edx, DWORD PTR $T219476[ebp]
	mov	eax, DWORD PTR [edx]
	mov	DWORD PTR $T219474[ebp], eax
	mov	ecx, DWORD PTR $T219474[ebp]
	push	ecx
	call	??_V@YAXPAX@Z				; operator delete[]
	add	esp, 4
	mov	edx, DWORD PTR $T219476[ebp]
	mov	DWORD PTR [edx], 0

; 189  : 	SAFE_DELETE_ARRAY(m_piTerrainDefensePercent);

	mov	eax, DWORD PTR _this$[ebp]
	add	eax, 888				; 00000378H
	mov	DWORD PTR $T219482[ebp], eax
	mov	ecx, DWORD PTR $T219482[ebp]
	mov	edx, DWORD PTR [ecx]
	mov	DWORD PTR $T219480[ebp], edx
	mov	eax, DWORD PTR $T219480[ebp]
	push	eax
	call	??_V@YAXPAX@Z				; operator delete[]
	add	esp, 4
	mov	ecx, DWORD PTR $T219482[ebp]
	mov	DWORD PTR [ecx], 0

; 190  : 	SAFE_DELETE_ARRAY(m_piFeatureAttackPercent);

	mov	edx, DWORD PTR _this$[ebp]
	add	edx, 892				; 0000037cH
	mov	DWORD PTR $T219488[ebp], edx
	mov	eax, DWORD PTR $T219488[ebp]
	mov	ecx, DWORD PTR [eax]
	mov	DWORD PTR $T219486[ebp], ecx
	mov	edx, DWORD PTR $T219486[ebp]
	push	edx
	call	??_V@YAXPAX@Z				; operator delete[]
	add	esp, 4
	mov	eax, DWORD PTR $T219488[ebp]
	mov	DWORD PTR [eax], 0

; 191  : 	SAFE_DELETE_ARRAY(m_piFeatureDefensePercent);

	mov	ecx, DWORD PTR _this$[ebp]
	add	ecx, 896				; 00000380H
	mov	DWORD PTR $T219494[ebp], ecx
	mov	edx, DWORD PTR $T219494[ebp]
	mov	eax, DWORD PTR [edx]
	mov	DWORD PTR $T219492[ebp], eax
	mov	ecx, DWORD PTR $T219492[ebp]
	push	ecx
	call	??_V@YAXPAX@Z				; operator delete[]
	add	esp, 4
	mov	edx, DWORD PTR $T219494[ebp]
	mov	DWORD PTR [edx], 0

; 192  : 	SAFE_DELETE_ARRAY(m_piUnitCombatModifierPercent);

	mov	eax, DWORD PTR _this$[ebp]
	add	eax, 900				; 00000384H
	mov	DWORD PTR $T219500[ebp], eax
	mov	ecx, DWORD PTR $T219500[ebp]
	mov	edx, DWORD PTR [ecx]
	mov	DWORD PTR $T219498[ebp], edx
	mov	eax, DWORD PTR $T219498[ebp]
	push	eax
	call	??_V@YAXPAX@Z				; operator delete[]
	add	esp, 4
	mov	ecx, DWORD PTR $T219500[ebp]
	mov	DWORD PTR [ecx], 0

; 193  : 	SAFE_DELETE_ARRAY(m_piUnitClassModifierPercent);

	mov	edx, DWORD PTR _this$[ebp]
	add	edx, 904				; 00000388H
	mov	DWORD PTR $T219506[ebp], edx
	mov	eax, DWORD PTR $T219506[ebp]
	mov	ecx, DWORD PTR [eax]
	mov	DWORD PTR $T219504[ebp], ecx
	mov	edx, DWORD PTR $T219504[ebp]
	push	edx
	call	??_V@YAXPAX@Z				; operator delete[]
	add	esp, 4
	mov	eax, DWORD PTR $T219506[ebp]
	mov	DWORD PTR [eax], 0

; 194  : 	SAFE_DELETE_ARRAY(m_piDomainModifierPercent);

	mov	ecx, DWORD PTR _this$[ebp]
	add	ecx, 908				; 0000038cH
	mov	DWORD PTR $T219512[ebp], ecx
	mov	edx, DWORD PTR $T219512[ebp]
	mov	eax, DWORD PTR [edx]
	mov	DWORD PTR $T219510[ebp], eax
	mov	ecx, DWORD PTR $T219510[ebp]
	push	ecx
	call	??_V@YAXPAX@Z				; operator delete[]
	add	esp, 4
	mov	edx, DWORD PTR $T219512[ebp]
	mov	DWORD PTR [edx], 0

; 195  : 	SAFE_DELETE_ARRAY(m_piFeaturePassableTech);

	mov	eax, DWORD PTR _this$[ebp]
	add	eax, 924				; 0000039cH
	mov	DWORD PTR $T219518[ebp], eax
	mov	ecx, DWORD PTR $T219518[ebp]
	mov	edx, DWORD PTR [ecx]
	mov	DWORD PTR $T219516[ebp], edx
	mov	eax, DWORD PTR $T219516[ebp]
	push	eax
	call	??_V@YAXPAX@Z				; operator delete[]
	add	esp, 4
	mov	ecx, DWORD PTR $T219518[ebp]
	mov	DWORD PTR [ecx], 0

; 196  : 	SAFE_DELETE_ARRAY(m_piUnitClassAttackModifier);

	mov	edx, DWORD PTR _this$[ebp]
	add	edx, 912				; 00000390H
	mov	DWORD PTR $T219524[ebp], edx
	mov	eax, DWORD PTR $T219524[ebp]
	mov	ecx, DWORD PTR [eax]
	mov	DWORD PTR $T219523[ebp], ecx
	mov	edx, DWORD PTR $T219523[ebp]
	push	edx
	call	??_V@YAXPAX@Z				; operator delete[]
	add	esp, 4
	mov	eax, DWORD PTR $T219524[ebp]
	mov	DWORD PTR [eax], 0

; 197  : 	SAFE_DELETE_ARRAY(m_piUnitClassDefenseModifier);

	mov	ecx, DWORD PTR _this$[ebp]
	add	ecx, 916				; 00000394H
	mov	DWORD PTR $T219530[ebp], ecx
	mov	edx, DWORD PTR $T219530[ebp]
	mov	eax, DWORD PTR [edx]
	mov	DWORD PTR $T219529[ebp], eax
	mov	ecx, DWORD PTR $T219529[ebp]
	push	ecx
	call	??_V@YAXPAX@Z				; operator delete[]
	add	esp, 4
	mov	edx, DWORD PTR $T219530[ebp]
	mov	DWORD PTR [edx], 0

; 198  : 	SAFE_DELETE_ARRAY(m_pbTerrainDoubleMove);

	mov	eax, DWORD PTR _this$[ebp]
	add	eax, 928				; 000003a0H
	mov	DWORD PTR $T219536[ebp], eax
	mov	ecx, DWORD PTR $T219536[ebp]
	mov	edx, DWORD PTR [ecx]
	mov	DWORD PTR $T219535[ebp], edx
	mov	eax, DWORD PTR $T219535[ebp]
	push	eax
	call	??_V@YAXPAX@Z				; operator delete[]
	add	esp, 4
	mov	ecx, DWORD PTR $T219536[ebp]
	mov	DWORD PTR [ecx], 0

; 199  : 	SAFE_DELETE_ARRAY(m_pbFeatureDoubleMove);

	mov	edx, DWORD PTR _this$[ebp]
	add	edx, 932				; 000003a4H
	mov	DWORD PTR $T219542[ebp], edx
	mov	eax, DWORD PTR $T219542[ebp]
	mov	ecx, DWORD PTR [eax]
	mov	DWORD PTR $T219541[ebp], ecx
	mov	edx, DWORD PTR $T219541[ebp]
	push	edx
	call	??_V@YAXPAX@Z				; operator delete[]
	add	esp, 4
	mov	eax, DWORD PTR $T219542[ebp]
	mov	DWORD PTR [eax], 0

; 200  : 	SAFE_DELETE_ARRAY(m_pbTerrainImpassable);

	mov	ecx, DWORD PTR _this$[ebp]
	add	ecx, 936				; 000003a8H
	mov	DWORD PTR $T219548[ebp], ecx
	mov	edx, DWORD PTR $T219548[ebp]
	mov	eax, DWORD PTR [edx]
	mov	DWORD PTR $T219547[ebp], eax
	mov	ecx, DWORD PTR $T219547[ebp]
	push	ecx
	call	??_V@YAXPAX@Z				; operator delete[]
	add	esp, 4
	mov	edx, DWORD PTR $T219548[ebp]
	mov	DWORD PTR [edx], 0

; 201  : 	SAFE_DELETE_ARRAY(m_piTerrainPassableTech);

	mov	eax, DWORD PTR _this$[ebp]
	add	eax, 920				; 00000398H
	mov	DWORD PTR $T219554[ebp], eax
	mov	ecx, DWORD PTR $T219554[ebp]
	mov	edx, DWORD PTR [ecx]
	mov	DWORD PTR $T219553[ebp], edx
	mov	eax, DWORD PTR $T219553[ebp]
	push	eax
	call	??_V@YAXPAX@Z				; operator delete[]
	add	esp, 4
	mov	ecx, DWORD PTR $T219554[ebp]
	mov	DWORD PTR [ecx], 0

; 202  : 	SAFE_DELETE_ARRAY(m_pbFeatureImpassable);

	mov	edx, DWORD PTR _this$[ebp]
	add	edx, 940				; 000003acH
	mov	DWORD PTR $T219560[ebp], edx
	mov	eax, DWORD PTR $T219560[ebp]
	mov	ecx, DWORD PTR [eax]
	mov	DWORD PTR $T219559[ebp], ecx
	mov	edx, DWORD PTR $T219559[ebp]
	push	edx
	call	??_V@YAXPAX@Z				; operator delete[]
	add	esp, 4
	mov	eax, DWORD PTR $T219560[ebp]
	mov	DWORD PTR [eax], 0

; 203  : 	SAFE_DELETE_ARRAY(m_pbUnitCombat);

	mov	ecx, DWORD PTR _this$[ebp]
	add	ecx, 944				; 000003b0H
	mov	DWORD PTR $T219566[ebp], ecx
	mov	edx, DWORD PTR $T219566[ebp]
	mov	eax, DWORD PTR [edx]
	mov	DWORD PTR $T219565[ebp], eax
	mov	ecx, DWORD PTR $T219565[ebp]
	push	ecx
	call	??_V@YAXPAX@Z				; operator delete[]
	add	esp, 4
	mov	edx, DWORD PTR $T219566[ebp]
	mov	DWORD PTR [edx], 0

; 204  : 	SAFE_DELETE_ARRAY(m_pbCivilianUnitType);

	mov	eax, DWORD PTR _this$[ebp]
	add	eax, 948				; 000003b4H
	mov	DWORD PTR $T219572[ebp], eax
	mov	ecx, DWORD PTR $T219572[ebp]
	mov	edx, DWORD PTR [ecx]
	mov	DWORD PTR $T219571[ebp], edx
	mov	eax, DWORD PTR $T219571[ebp]
	push	eax
	call	??_V@YAXPAX@Z				; operator delete[]
	add	esp, 4
	mov	ecx, DWORD PTR $T219572[ebp]
	mov	DWORD PTR [ecx], 0

; 205  : 	SAFE_DELETE_ARRAY(m_pbPostCombatRandomPromotion);

	mov	edx, DWORD PTR _this$[ebp]
	add	edx, 952				; 000003b8H
	mov	DWORD PTR $T219578[ebp], edx
	mov	eax, DWORD PTR $T219578[ebp]
	mov	ecx, DWORD PTR [eax]
	mov	DWORD PTR $T219577[ebp], ecx
	mov	edx, DWORD PTR $T219577[ebp]
	push	edx
	call	??_V@YAXPAX@Z				; operator delete[]
	add	esp, 4
	mov	eax, DWORD PTR $T219578[ebp]
	mov	DWORD PTR [eax], 0

; 206  : }

	mov	ecx, DWORD PTR _this$[ebp]
	add	ecx, 856				; 00000358H
	mov	DWORD PTR $T219583[ebp], ecx
	mov	ecx, DWORD PTR $T219583[ebp]
	call	DWORD PTR __imp_??1?$basic_string@DU?$char_traits@D@std@@V?$allocator@D@2@@std@@QAE@XZ
	mov	DWORD PTR __$EHRec$[ebp+8], -1
	mov	ecx, DWORD PTR _this$[ebp]
	call	??1CvHotKeyInfo@@QAE@XZ
	mov	ecx, DWORD PTR __$EHRec$[ebp]
	mov	DWORD PTR fs:0, ecx
	pop	ecx
	mov	esp, ebp
	pop	ebp
	ret	0
_TEXT	ENDS
;	COMDAT text$x
text$x	SEGMENT
__unwindfunclet$??1CvPromotionEntry@@QAE@XZ$0:
	mov	ecx, DWORD PTR _this$[ebp]
	jmp	??1CvHotKeyInfo@@QAE@XZ
__ehhandler$??1CvPromotionEntry@@QAE@XZ:
	mov	edx, DWORD PTR [esp+8]
	lea	eax, DWORD PTR [edx+12]
	mov	ecx, DWORD PTR [edx-216]
	xor	ecx, eax
	call	@__security_check_cookie@4
	mov	eax, OFFSET __ehfuncinfo$??1CvPromotionEntry@@QAE@XZ
	jmp	___CxxFrameHandler3
text$x	ENDS
??1CvPromotionEntry@@QAE@XZ ENDP			; CvPromotionEntry::~CvPromotionEntry
PUBLIC	??_C@_0P@GCBJCIAG@UnitPromotions?$AA@		; `string'
PUBLIC	??_C@_0CJ@MBBLMIHA@UnitPromotions_PostCombatRandomP@ ; `string'
PUBLIC	??_C@_0N@FPMIADBK@NewPromotion?$AA@		; `string'
PUBLIC	??_C@_0O@IILJPJBB@PromotionType?$AA@		; `string'
PUBLIC	??_C@_0HH@DEKPGJFI@select?5Units?4ID?5from?5UnitPromoti@ ; `string'
PUBLIC	??_C@_0BF@DBJIKPBO@m_pbCivilianUnitType?$AA@	; `string'
PUBLIC	??_C@_0JG@HINGKGDL@select?5UnitCombatInfos?4ID?5from?5U@ ; `string'
PUBLIC	??_C@_0P@PJIJJEEF@m_pbUnitCombat?$AA@		; `string'
PUBLIC	??_C@_0KE@HFFDPDLJ@select?5UnitCombatInfos?4ID?0?5Modif@ ; `string'
PUBLIC	??_C@_0BO@LDBGFCAB@m_piUnitCombatModifierPercent?$AA@ ; `string'
PUBLIC	??_C@_0IB@HILEMOCB@select?5Domains?4ID?0?5Modifier?5from@ ; `string'
PUBLIC	??_C@_0BK@DBHCJAOK@m_piDomainModifierPercent?$AA@ ; `string'
PUBLIC	??_C@_08GMKLKDKJ@Modifier?$AA@			; `string'
PUBLIC	??_C@_0KE@EBCBLBJP@select?5UnitClasses?4ID?0?5Modifier?0@ ; `string'
PUBLIC	??_C@_0BL@NHCLIOIE@UnitPromotions_UnitClasses?$AA@ ; `string'
PUBLIC	??_C@_09KCBIGEDK@FeatureID?$AA@			; `string'
PUBLIC	??_C@_0BAP@FLBEKAPJ@select?5Features?4ID?5as?5FeatureID?0@ ; `string'
PUBLIC	??_C@_0BI@JEBHFCGC@UnitPromotions_Features?$AA@	; `string'
PUBLIC	??_C@_0P@MBGEMJJD@PassableTechID?$AA@		; `string'
PUBLIC	??_C@_0L@MNIKPMED@Impassable?$AA@		; `string'
PUBLIC	??_C@_0L@GFAABCAK@DoubleMove?$AA@		; `string'
PUBLIC	??_C@_07PEDPFCGC@Defense?$AA@			; `string'
PUBLIC	??_C@_06FDAMAAOH@Attack?$AA@			; `string'
PUBLIC	??_C@_09EINBFHAC@TerrainID?$AA@			; `string'
PUBLIC	??_C@_0BAP@GGCJCBCM@select?5Terrains?4ID?5as?5TerrainID?0@ ; `string'
PUBLIC	??_C@_0BI@IIGDFDOG@UnitPromotions_Terrains?$AA@	; `string'
PUBLIC	__real@00000000
PUBLIC	?InitializeArray@CvDatabaseUtility@@QAEXAAPAHIH@Z ; CvDatabaseUtility::InitializeArray
PUBLIC	??_C@_05CFLIFMAE@Units?$AA@			; `string'
PUBLIC	??_C@_0BA@NHHFHDEL@UnitCombatInfos?$AA@		; `string'
PUBLIC	??_C@_07FKLJOGGC@Domains?$AA@			; `string'
PUBLIC	??_C@_0M@HLHJNCC@UnitClasses?$AA@		; `string'
PUBLIC	??_C@_0BD@IEKKLNBC@PromotionPrereqOr9?$AA@	; `string'
PUBLIC	??_C@_0BD@JNLBIMFD@PromotionPrereqOr8?$AA@	; `string'
PUBLIC	??_C@_0BD@BKCJJAJM@PromotionPrereqOr7?$AA@	; `string'
PUBLIC	??_C@_0BD@DDCKBNN@PromotionPrereqOr6?$AA@	; `string'
PUBLIC	??_C@_0BD@CIBPPCBO@PromotionPrereqOr5?$AA@	; `string'
PUBLIC	??_C@_0BD@DBAEMDFP@PromotionPrereqOr4?$AA@	; `string'
PUBLIC	??_C@_0BD@HOEFFFJI@PromotionPrereqOr3?$AA@	; `string'
PUBLIC	??_C@_0BD@GHFOGENJ@PromotionPrereqOr2?$AA@	; `string'
PUBLIC	??_C@_0BD@EMHDDHBK@PromotionPrereqOr1?$AA@	; `string'
PUBLIC	??_C@_0BA@BEMGADGJ@PromotionPrereq?$AA@		; `string'
PUBLIC	??_C@_0N@IGFKNMKA@SeeInvisible?$AA@		; `string'
PUBLIC	??_C@_09EPJGIIIJ@Invisible?$AA@			; `string'
PUBLIC	??_C@_0L@IANCLNMF@TechPrereq?$AA@		; `string'
PUBLIC	??_C@_0BD@DIOMOCAM@LayerAnimationPath?$AA@	; `string'
PUBLIC	??_C@_0BJ@OGAAKMBL@TradeMissionGoldModifier?$AA@ ; `string'
PUBLIC	??_C@_0BO@JKAGNMLN@TradeMissionInfluenceModifier?$AA@ ; `string'
PUBLIC	??_C@_0CE@BJMPMIKG@ReligiousStrengthLossRivalTerrit@ ; `string'
PUBLIC	??_C@_0BK@HOKBFIJO@CityAttackPlunderModifier?$AA@ ; `string'
PUBLIC	??_C@_0BG@CILHBFIF@CapitalDefenseFalloff?$AA@	; `string'
PUBLIC	??_C@_0BH@CDDLEEIL@CapitalDefenseModifier?$AA@	; `string'
PUBLIC	??_C@_0BG@EGJLLMKH@EmbarkDefenseModifier?$AA@	; `string'
PUBLIC	??_C@_0BG@HGLIOLIM@EmbarkExtraVisibility?$AA@	; `string'
PUBLIC	??_C@_0BA@CNOIBFAJ@ExtraWithdrawal?$AA@		; `string'
PUBLIC	??_C@_0BI@INKCACCN@GoldenAgeValueFromKills?$AA@	; `string'
PUBLIC	??_C@_0BH@OLKNAHBI@HPHealedIfDestroyEnemy?$AA@	; `string'
PUBLIC	??_C@_0BD@GBJFGHJJ@ExtraNavalMovement?$AA@	; `string'
PUBLIC	??_C@_09NLCNIMEK@DropRange?$AA@			; `string'
PUBLIC	??_C@_0L@FONMKPAP@DefenseMod?$AA@		; `string'
PUBLIC	??_C@_09IOHPCIAD@AttackMod?$AA@			; `string'
PUBLIC	??_C@_0M@NABOGIIK@AdjacentMod?$AA@		; `string'
PUBLIC	??_C@_0BC@OHMKPOHD@ExperiencePercent?$AA@	; `string'
PUBLIC	??_C@_0BA@KBDHCJII@UpgradeDiscount?$AA@		; `string'
PUBLIC	??_C@_0CA@NCPBFGAA@CombatStrengthNearFriendlyMinor?$AA@ ; `string'
PUBLIC	??_C@_0BM@JMHDEKOL@GoldenAgeForeignAttackBonus?$AA@ ; `string'
PUBLIC	??_C@_0BN@BDINMCNK@OutsideFriendlyLandsModifier?$AA@ ; `string'
PUBLIC	??_C@_0BM@CAOLBPLI@FriendlyLandsAttackModifier?$AA@ ; `string'
PUBLIC	??_C@_0BG@EAPMDGND@FriendlyLandsModifier?$AA@	; `string'
PUBLIC	??_C@_0BL@HINIPOCF@GreatGeneralCombatModifier?$AA@ ; `string'
PUBLIC	??_C@_0CI@KNAJAFGK@GreatGeneralOnOrAdjacentConfersM@ ; `string'
PUBLIC	??_C@_0BN@IFMFNPAD@EmbarkedUnitReceivesMovement?$AA@ ; `string'
PUBLIC	??_C@_0BN@OFHMHAHA@GreatGeneralReceivesMovement?$AA@ ; `string'
PUBLIC	??_C@_0BF@HNNLOAHE@GreatGeneralModifier?$AA@	; `string'
PUBLIC	??_C@_0N@LBAALIJO@GreatAdmiral?$AA@		; `string'
PUBLIC	??_C@_0N@JCHMCFAC@GreatGeneral?$AA@		; `string'
PUBLIC	??_C@_0N@CFMCPMIE@ExtraAttacks?$AA@		; `string'
PUBLIC	??_C@_0N@PGIMHIMO@RoughDefense?$AA@		; `string'
PUBLIC	??_C@_0M@PFHCKEBE@OpenDefense?$AA@		; `string'
PUBLIC	??_C@_0BH@MBACKDCN@NearbyEnemyCombatRange?$AA@	; `string'
PUBLIC	??_C@_0BF@JDDHJBMK@NearbyEnemyCombatMod?$AA@	; `string'
PUBLIC	??_C@_0BE@EPGDEJAB@FlankAttackModifier?$AA@	; `string'
PUBLIC	??_C@_0BB@POIGNGOI@AttackWoundedMod?$AA@	; `string'
PUBLIC	??_C@_0BD@JECJHOEK@AttackFortifiedMod?$AA@	; `string'
PUBLIC	??_C@_0BF@CBPJCGIL@RoughRangedAttackMod?$AA@	; `string'
PUBLIC	??_C@_0M@INLFKGCE@RoughAttack?$AA@		; `string'
PUBLIC	??_C@_0BE@LCHPCHNH@OpenRangedAttackMod?$AA@	; `string'
PUBLIC	??_C@_0L@MFILHAKG@OpenAttack?$AA@		; `string'
PUBLIC	??_C@_0N@JECHMAMH@HillsDefense?$AA@		; `string'
PUBLIC	??_C@_0M@PLBAHAHI@HillsAttack?$AA@		; `string'
PUBLIC	??_C@_0BB@ILGDNJED@RangedDefenseMod?$AA@	; `string'
PUBLIC	??_C@_0M@CFAONGLF@CityDefense?$AA@		; `string'
PUBLIC	??_C@_0L@NJOPCGED@CityAttack?$AA@		; `string'
PUBLIC	??_C@_0O@GACIIML@CombatPercent?$AA@		; `string'
PUBLIC	??_C@_0O@LPIOADGP@NeutralDamage?$AA@		; `string'
PUBLIC	??_C@_0M@MDHDILHK@EnemyDamage?$AA@		; `string'
PUBLIC	??_C@_0BE@MBHCGJPP@NeutralDamageChance?$AA@	; `string'
PUBLIC	??_C@_0BC@DKBIFOMK@EnemyDamageChance?$AA@	; `string'
PUBLIC	??_C@_0BH@DJKFKEFH@AdjacentTileHealChange?$AA@	; `string'
PUBLIC	??_C@_0BD@NMADFNHG@SameTileHealChange?$AA@	; `string'
PUBLIC	??_C@_0BD@FDKGEBJC@FriendlyHealChange?$AA@	; `string'
PUBLIC	??_C@_0BC@EMMIAEHH@NeutralHealChange?$AA@	; `string'
PUBLIC	??_C@_0BA@DMIIELAF@EnemyHealChange?$AA@		; `string'
PUBLIC	??_C@_0M@CKAFGAOO@CargoChange?$AA@		; `string'
PUBLIC	??_C@_0O@PFMMAFHH@EvasionChange?$AA@		; `string'
PUBLIC	??_C@_0BG@KECHKNBB@NumInterceptionChange?$AA@	; `string'
PUBLIC	??_C@_0BG@DLANFOAL@InterceptChanceChange?$AA@	; `string'
PUBLIC	??_C@_0BH@LHPCCLAF@AirSweepCombatModifier?$AA@	; `string'
PUBLIC	??_C@_0CC@GCFBADFM@InterceptionDefenseDamageModifie@ ; `string'
PUBLIC	??_C@_0BL@FGOMGGGH@InterceptionCombatModifier?$AA@ ; `string'
PUBLIC	??_C@_0BF@OAGDHGKL@RangedAttackModifier?$AA@	; `string'
PUBLIC	??_C@_0M@BBOKLMND@RangeChange?$AA@		; `string'
PUBLIC	??_C@_0BD@CAAMFILH@MoveDiscountChange?$AA@	; `string'
PUBLIC	??_C@_0M@JNELDEGO@MovesChange?$AA@		; `string'
PUBLIC	??_C@_0BB@DGGHCNE@VisibilityChange?$AA@		; `string'
PUBLIC	??_C@_0BE@DFBJNAA@HeavyChargeDownhill?$AA@	; `string'
PUBLIC	??_C@_0M@DMHHALDA@HeavyCharge?$AA@		; `string'
PUBLIC	??_C@_0O@DLMMLOCL@ConvertDomain?$AA@		; `string'
PUBLIC	??_C@_0BC@EJOIAGJF@ConvertDomainUnit?$AA@	; `string'
PUBLIC	??_C@_0L@EKONAALM@GiveDomain?$AA@		; `string'
PUBLIC	??_C@_06HCPOFNLI@Sapper?$AA@			; `string'
PUBLIC	??_C@_0BO@EFNCPIGJ@PostCombatPromotionsExclusive?$AA@ ; `string'
PUBLIC	??_C@_0BI@JDLBMOJI@HasPostCombatPromotions?$AA@	; `string'
PUBLIC	??_C@_09ONFNLEAB@IgnoreZOC?$AA@			; `string'
PUBLIC	??_C@_0BK@NLHKOMPI@IgnoreGreatGeneralBenefit?$AA@ ; `string'
PUBLIC	??_C@_0BF@GKCMIFCN@CaptureDefeatedEnemy?$AA@	; `string'
PUBLIC	??_C@_0P@CNOCPHIB@CityAttackOnly?$AA@		; `string'
PUBLIC	??_C@_0BB@COFEIKJH@EmbarkedAllWater?$AA@	; `string'
PUBLIC	??_C@_0CA@LIOCFLBJ@HealIfDestroyExcludesBarbarians?$AA@ ; `string'
PUBLIC	??_C@_0O@ODCFFJIN@HealOnPillage?$AA@		; `string'
PUBLIC	??_C@_0BB@CEEBKLJG@FreePillageMoves?$AA@	; `string'
PUBLIC	??_C@_0BF@BPDHCLGM@RangeAttackIgnoreLOS?$AA@	; `string'
PUBLIC	??_C@_0BC@NAOACEFI@AllowsEmbarkation?$AA@	; `string'
PUBLIC	??_C@_0BA@EDKILALH@AirSweepCapable?$AA@		; `string'
PUBLIC	??_C@_0BG@HJLIJFLF@CanMoveAfterAttacking?$AA@	; `string'
PUBLIC	??_C@_0BC@PHIBAHKE@CanMoveAllTerrain?$AA@	; `string'
PUBLIC	??_C@_05MPMPJNEE@Recon?$AA@			; `string'
PUBLIC	??_C@_0M@BGMOEIPJ@NoRevealMap?$AA@		; `string'
PUBLIC	??_C@_0O@HNEKEKMA@AlwaysHostile?$AA@		; `string'
PUBLIC	??_C@_0BC@BPFLKNIK@HiddenNationality?$AA@	; `string'
PUBLIC	??_C@_0L@EEGCDFDE@NukeImmune?$AA@		; `string'
PUBLIC	??_C@_0BB@EDEJJMBG@NoDefensiveBonus?$AA@	; `string'
PUBLIC	??_C@_0O@KJLADANN@OnlyDefensive?$AA@		; `string'
PUBLIC	??_C@_09IBGBFEAM@NoCapture?$AA@			; `string'
PUBLIC	??_C@_0BC@DKMBECGO@CanMoveImpassable?$AA@	; `string'
PUBLIC	??_C@_0BB@MENGGKPI@FlatMovementCost?$AA@	; `string'
PUBLIC	??_C@_0N@JEEMILAJ@HoveringUnit?$AA@		; `string'
PUBLIC	??_C@_0BF@BGJPEPFP@RoughTerrainEndsTurn?$AA@	; `string'
PUBLIC	??_C@_0BC@PNMBBNHM@IgnoreTerrainCost?$AA@	; `string'
PUBLIC	??_C@_0BA@OKKIPNCP@HillsDoubleMove?$AA@		; `string'
PUBLIC	??_C@_0BE@MIHNMDGG@HealOutsideFriendly?$AA@	; `string'
PUBLIC	??_C@_0L@NAIGBJGJ@AlwaysHeal?$AA@		; `string'
PUBLIC	??_C@_0BC@FACLBCD@RangedSupportFire?$AA@	; `string'
PUBLIC	??_C@_0BI@PPIELJHB@MustSetUpToRangedAttack?$AA@	; `string'
PUBLIC	??_C@_0P@FHNGKGM@RivalTerritory?$AA@		; `string'
PUBLIC	??_C@_0L@JFBEGNKE@EnemyRoute?$AA@		; `string'
PUBLIC	??_C@_05IGBIAPGD@River?$AA@			; `string'
PUBLIC	??_C@_06CDAIIEGB@Amphib?$AA@			; `string'
PUBLIC	??_C@_05JAGJIGAO@Blitz?$AA@			; `string'
PUBLIC	??_C@_06PKACINHD@Leader?$AA@			; `string'
PUBLIC	??_C@_09PHANMOGE@InstaHeal?$AA@			; `string'
PUBLIC	??_C@_0P@GHEAGCAB@NotWithUpgrade?$AA@		; `string'
PUBLIC	??_C@_0BA@KIANEHLG@LostWithUpgrade?$AA@		; `string'
PUBLIC	??_C@_0P@MFCBGKCG@CannotBeChosen?$AA@		; `string'
PUBLIC	?SetSound@CvPromotionEntry@@QAEXPBD@Z		; CvPromotionEntry::SetSound
PUBLIC	??_C@_05MAHMNMLO@Sound?$AA@			; `string'
PUBLIC	__$ArrayPad$
EXTRN	?PopulateArrayByExistence@CvDatabaseUtility@@QAE_NAAPA_NPBD1111@Z:PROC ; CvDatabaseUtility::PopulateArrayByExistence
EXTRN	__imp_?Reset@Results@Database@@QAE_NXZ:PROC
EXTRN	__imp_?GetInt@Results@Database@@QAEHH@Z:PROC
EXTRN	__imp_?Step@Results@Database@@QAE_NXZ:PROC
EXTRN	__imp_?Bind@Results@Database@@QAE_NHPBD_N@Z:PROC
EXTRN	?PrepareResults@CvDatabaseUtility@@QAEPAVResults@Database@@ABV?$basic_string@DU?$char_traits@D@std@@V?$allocator@D@2@@std@@PBD@Z:PROC ; CvDatabaseUtility::PrepareResults
EXTRN	?GetResults@CvDatabaseUtility@@QAEPAVResults@Database@@ABV?$basic_string@DU?$char_traits@D@std@@V?$allocator@D@2@@std@@@Z:PROC ; CvDatabaseUtility::GetResults
EXTRN	__imp_??0?$basic_string@DU?$char_traits@D@std@@V?$allocator@D@2@@std@@QAE@PBD@Z:PROC
EXTRN	??_U@YAPAXI@Z:PROC				; operator new[]
EXTRN	__imp_?c_str@?$basic_string@DU?$char_traits@D@std@@V?$allocator@D@2@@std@@QBEPBDXZ:PROC
EXTRN	?getNumFeatureInfos@CvGlobals@@QAEHXZ:PROC	; CvGlobals::getNumFeatureInfos
EXTRN	?getNumTerrainInfos@CvGlobals@@QAEHXZ:PROC	; CvGlobals::getNumTerrainInfos
EXTRN	?MaxRows@CvDatabaseUtility@@QAEHPBD@Z:PROC	; CvDatabaseUtility::MaxRows
EXTRN	__imp_?GetInt@Results@Database@@QAEHPBD@Z:PROC
EXTRN	?getInfoTypeForString@CvGlobals@@QBEHPBD_N@Z:PROC ; CvGlobals::getInfoTypeForString
EXTRN	?gGlobals@@3VCvGlobals@@A:BYTE			; gGlobals
EXTRN	__imp_?GetBool@Results@Database@@QAE_NPBD@Z:PROC
EXTRN	__imp_?GetText@Results@Database@@QAEPBDPBD@Z:PROC
EXTRN	?CacheResults@CvHotKeyInfo@@UAE_NAAVResults@Database@@AAVCvDatabaseUtility@@@Z:PROC ; CvHotKeyInfo::CacheResults
EXTRN	__fltused:DWORD
EXTRN	_memset:PROC
;	COMDAT ??_C@_0P@GCBJCIAG@UnitPromotions?$AA@
; File d:\sources\lekmod_git\checkout\lekmod_dll\cvgamecoredll_expansion2\cvdatabaseutility.h
CONST	SEGMENT
??_C@_0P@GCBJCIAG@UnitPromotions?$AA@ DB 'UnitPromotions', 00H ; `string'
CONST	ENDS
;	COMDAT ??_C@_0CJ@MBBLMIHA@UnitPromotions_PostCombatRandomP@
CONST	SEGMENT
??_C@_0CJ@MBBLMIHA@UnitPromotions_PostCombatRandomP@ DB 'UnitPromotions_P'
	DB	'ostCombatRandomPromotion', 00H		; `string'
CONST	ENDS
;	COMDAT ??_C@_0N@FPMIADBK@NewPromotion?$AA@
CONST	SEGMENT
??_C@_0N@FPMIADBK@NewPromotion?$AA@ DB 'NewPromotion', 00H ; `string'
CONST	ENDS
;	COMDAT ??_C@_0O@IILJPJBB@PromotionType?$AA@
CONST	SEGMENT
??_C@_0O@IILJPJBB@PromotionType?$AA@ DB 'PromotionType', 00H ; `string'
CONST	ENDS
;	COMDAT ??_C@_0HH@DEKPGJFI@select?5Units?4ID?5from?5UnitPromoti@
CONST	SEGMENT
??_C@_0HH@DEKPGJFI@select?5Units?4ID?5from?5UnitPromoti@ DB 'select Units'
	DB	'.ID from UnitPromotions_CivilianUnitType inner join Units On '
	DB	'Units.Type = UnitType where PromotionType = ?', 00H ; `string'
CONST	ENDS
;	COMDAT ??_C@_0BF@DBJIKPBO@m_pbCivilianUnitType?$AA@
CONST	SEGMENT
??_C@_0BF@DBJIKPBO@m_pbCivilianUnitType?$AA@ DB 'm_pbCivilianUnitType', 00H ; `string'
CONST	ENDS
;	COMDAT ??_C@_0JG@HINGKGDL@select?5UnitCombatInfos?4ID?5from?5U@
CONST	SEGMENT
??_C@_0JG@HINGKGDL@select?5UnitCombatInfos?4ID?5from?5U@ DB 'select UnitC'
	DB	'ombatInfos.ID from UnitPromotions_UnitCombats inner join Unit'
	DB	'CombatInfos On UnitCombatInfos.Type = UnitCombatType where Pr'
	DB	'omotionType = ?', 00H			; `string'
CONST	ENDS
;	COMDAT ??_C@_0P@PJIJJEEF@m_pbUnitCombat?$AA@
CONST	SEGMENT
??_C@_0P@PJIJJEEF@m_pbUnitCombat?$AA@ DB 'm_pbUnitCombat', 00H ; `string'
CONST	ENDS
;	COMDAT ??_C@_0KE@HFFDPDLJ@select?5UnitCombatInfos?4ID?0?5Modif@
CONST	SEGMENT
??_C@_0KE@HFFDPDLJ@select?5UnitCombatInfos?4ID?0?5Modif@ DB 'select UnitC'
	DB	'ombatInfos.ID, Modifier from UnitPromotions_UnitCombatMods in'
	DB	'ner join UnitCombatInfos on UnitCombatInfos.Type = UnitCombat'
	DB	'Type where PromotionType = ?;', 00H		; `string'
CONST	ENDS
;	COMDAT ??_C@_0BO@LDBGFCAB@m_piUnitCombatModifierPercent?$AA@
CONST	SEGMENT
??_C@_0BO@LDBGFCAB@m_piUnitCombatModifierPercent?$AA@ DB 'm_piUnitCombatM'
	DB	'odifierPercent', 00H			; `string'
CONST	ENDS
;	COMDAT ??_C@_0IB@HILEMOCB@select?5Domains?4ID?0?5Modifier?5from@
CONST	SEGMENT
??_C@_0IB@HILEMOCB@select?5Domains?4ID?0?5Modifier?5from@ DB 'select Doma'
	DB	'ins.ID, Modifier from UnitPromotions_Domains inner join Domai'
	DB	'ns on DomainType = Domains.Type where PromotionType = ?;', 00H ; `string'
CONST	ENDS
;	COMDAT ??_C@_0BK@DBHCJAOK@m_piDomainModifierPercent?$AA@
CONST	SEGMENT
??_C@_0BK@DBHCJAOK@m_piDomainModifierPercent?$AA@ DB 'm_piDomainModifierP'
	DB	'ercent', 00H				; `string'
CONST	ENDS
;	COMDAT ??_C@_08GMKLKDKJ@Modifier?$AA@
CONST	SEGMENT
??_C@_08GMKLKDKJ@Modifier?$AA@ DB 'Modifier', 00H	; `string'
CONST	ENDS
;	COMDAT ??_C@_0KE@EBCBLBJP@select?5UnitClasses?4ID?0?5Modifier?0@
CONST	SEGMENT
??_C@_0KE@EBCBLBJP@select?5UnitClasses?4ID?0?5Modifier?0@ DB 'select Unit'
	DB	'Classes.ID, Modifier, Attack, Defense from UnitPromotions_Uni'
	DB	'tClasses inner join UnitClasses on UnitClassType = UnitClasse'
	DB	's.Type where PromotionType = ?', 00H	; `string'
CONST	ENDS
;	COMDAT ??_C@_0BL@NHCLIOIE@UnitPromotions_UnitClasses?$AA@
CONST	SEGMENT
??_C@_0BL@NHCLIOIE@UnitPromotions_UnitClasses?$AA@ DB 'UnitPromotions_Uni'
	DB	'tClasses', 00H				; `string'
CONST	ENDS
;	COMDAT ??_C@_09KCBIGEDK@FeatureID?$AA@
CONST	SEGMENT
??_C@_09KCBIGEDK@FeatureID?$AA@ DB 'FeatureID', 00H	; `string'
CONST	ENDS
;	COMDAT ??_C@_0BAP@FLBEKAPJ@select?5Features?4ID?5as?5FeatureID?0@
CONST	SEGMENT
??_C@_0BAP@FLBEKAPJ@select?5Features?4ID?5as?5FeatureID?0@ DB 'select Fea'
	DB	'tures.ID as FeatureID, coalesce(Technologies.ID, -1) as Passa'
	DB	'bleTechID, UnitPromotions_Features.* from UnitPromotions_Feat'
	DB	'ures inner join Features on FeatureType = Features.Type left '
	DB	'join Technologies on PassableTech = Technologies.Type where P'
	DB	'romotionType = ?', 00H			; `string'
CONST	ENDS
;	COMDAT ??_C@_0BI@JEBHFCGC@UnitPromotions_Features?$AA@
CONST	SEGMENT
??_C@_0BI@JEBHFCGC@UnitPromotions_Features?$AA@ DB 'UnitPromotions_Featur'
	DB	'es', 00H					; `string'
CONST	ENDS
;	COMDAT ??_C@_0P@MBGEMJJD@PassableTechID?$AA@
CONST	SEGMENT
??_C@_0P@MBGEMJJD@PassableTechID?$AA@ DB 'PassableTechID', 00H ; `string'
CONST	ENDS
;	COMDAT ??_C@_0L@MNIKPMED@Impassable?$AA@
CONST	SEGMENT
??_C@_0L@MNIKPMED@Impassable?$AA@ DB 'Impassable', 00H	; `string'
CONST	ENDS
;	COMDAT ??_C@_0L@GFAABCAK@DoubleMove?$AA@
CONST	SEGMENT
??_C@_0L@GFAABCAK@DoubleMove?$AA@ DB 'DoubleMove', 00H	; `string'
CONST	ENDS
;	COMDAT ??_C@_07PEDPFCGC@Defense?$AA@
CONST	SEGMENT
??_C@_07PEDPFCGC@Defense?$AA@ DB 'Defense', 00H		; `string'
CONST	ENDS
;	COMDAT ??_C@_06FDAMAAOH@Attack?$AA@
CONST	SEGMENT
??_C@_06FDAMAAOH@Attack?$AA@ DB 'Attack', 00H		; `string'
CONST	ENDS
;	COMDAT ??_C@_09EINBFHAC@TerrainID?$AA@
CONST	SEGMENT
??_C@_09EINBFHAC@TerrainID?$AA@ DB 'TerrainID', 00H	; `string'
CONST	ENDS
;	COMDAT ??_C@_0BAP@GGCJCBCM@select?5Terrains?4ID?5as?5TerrainID?0@
CONST	SEGMENT
??_C@_0BAP@GGCJCBCM@select?5Terrains?4ID?5as?5TerrainID?0@ DB 'select Ter'
	DB	'rains.ID as TerrainID, coalesce(Technologies.ID, -1) as Passa'
	DB	'bleTechID, UnitPromotions_Terrains.* from UnitPromotions_Terr'
	DB	'ains inner join Terrains on TerrainType = Terrains.Type left '
	DB	'join Technologies on PassableTech = Technologies.Type where P'
	DB	'romotionType = ?', 00H			; `string'
CONST	ENDS
;	COMDAT ??_C@_0BI@IIGDFDOG@UnitPromotions_Terrains?$AA@
CONST	SEGMENT
??_C@_0BI@IIGDFDOG@UnitPromotions_Terrains?$AA@ DB 'UnitPromotions_Terrai'
	DB	'ns', 00H					; `string'
CONST	ENDS
;	COMDAT __real@00000000
CONST	SEGMENT
__real@00000000 DD 000000000r			; 0
CONST	ENDS
;	COMDAT ??_C@_05CFLIFMAE@Units?$AA@
CONST	SEGMENT
??_C@_05CFLIFMAE@Units?$AA@ DB 'Units', 00H		; `string'
CONST	ENDS
;	COMDAT ??_C@_0BA@NHHFHDEL@UnitCombatInfos?$AA@
CONST	SEGMENT
??_C@_0BA@NHHFHDEL@UnitCombatInfos?$AA@ DB 'UnitCombatInfos', 00H ; `string'
CONST	ENDS
;	COMDAT ??_C@_07FKLJOGGC@Domains?$AA@
CONST	SEGMENT
??_C@_07FKLJOGGC@Domains?$AA@ DB 'Domains', 00H		; `string'
CONST	ENDS
;	COMDAT ??_C@_0M@HLHJNCC@UnitClasses?$AA@
CONST	SEGMENT
??_C@_0M@HLHJNCC@UnitClasses?$AA@ DB 'UnitClasses', 00H	; `string'
CONST	ENDS
;	COMDAT ??_C@_0BD@IEKKLNBC@PromotionPrereqOr9?$AA@
CONST	SEGMENT
??_C@_0BD@IEKKLNBC@PromotionPrereqOr9?$AA@ DB 'PromotionPrereqOr9', 00H ; `string'
CONST	ENDS
;	COMDAT ??_C@_0BD@JNLBIMFD@PromotionPrereqOr8?$AA@
CONST	SEGMENT
??_C@_0BD@JNLBIMFD@PromotionPrereqOr8?$AA@ DB 'PromotionPrereqOr8', 00H ; `string'
CONST	ENDS
;	COMDAT ??_C@_0BD@BKCJJAJM@PromotionPrereqOr7?$AA@
CONST	SEGMENT
??_C@_0BD@BKCJJAJM@PromotionPrereqOr7?$AA@ DB 'PromotionPrereqOr7', 00H ; `string'
CONST	ENDS
;	COMDAT ??_C@_0BD@DDCKBNN@PromotionPrereqOr6?$AA@
CONST	SEGMENT
??_C@_0BD@DDCKBNN@PromotionPrereqOr6?$AA@ DB 'PromotionPrereqOr6', 00H ; `string'
CONST	ENDS
;	COMDAT ??_C@_0BD@CIBPPCBO@PromotionPrereqOr5?$AA@
CONST	SEGMENT
??_C@_0BD@CIBPPCBO@PromotionPrereqOr5?$AA@ DB 'PromotionPrereqOr5', 00H ; `string'
CONST	ENDS
;	COMDAT ??_C@_0BD@DBAEMDFP@PromotionPrereqOr4?$AA@
CONST	SEGMENT
??_C@_0BD@DBAEMDFP@PromotionPrereqOr4?$AA@ DB 'PromotionPrereqOr4', 00H ; `string'
CONST	ENDS
;	COMDAT ??_C@_0BD@HOEFFFJI@PromotionPrereqOr3?$AA@
CONST	SEGMENT
??_C@_0BD@HOEFFFJI@PromotionPrereqOr3?$AA@ DB 'PromotionPrereqOr3', 00H ; `string'
CONST	ENDS
;	COMDAT ??_C@_0BD@GHFOGENJ@PromotionPrereqOr2?$AA@
CONST	SEGMENT
??_C@_0BD@GHFOGENJ@PromotionPrereqOr2?$AA@ DB 'PromotionPrereqOr2', 00H ; `string'
CONST	ENDS
;	COMDAT ??_C@_0BD@EMHDDHBK@PromotionPrereqOr1?$AA@
CONST	SEGMENT
??_C@_0BD@EMHDDHBK@PromotionPrereqOr1?$AA@ DB 'PromotionPrereqOr1', 00H ; `string'
CONST	ENDS
;	COMDAT ??_C@_0BA@BEMGADGJ@PromotionPrereq?$AA@
CONST	SEGMENT
??_C@_0BA@BEMGADGJ@PromotionPrereq?$AA@ DB 'PromotionPrereq', 00H ; `string'
CONST	ENDS
;	COMDAT ??_C@_0N@IGFKNMKA@SeeInvisible?$AA@
CONST	SEGMENT
??_C@_0N@IGFKNMKA@SeeInvisible?$AA@ DB 'SeeInvisible', 00H ; `string'
CONST	ENDS
;	COMDAT ??_C@_09EPJGIIIJ@Invisible?$AA@
CONST	SEGMENT
??_C@_09EPJGIIIJ@Invisible?$AA@ DB 'Invisible', 00H	; `string'
CONST	ENDS
;	COMDAT ??_C@_0L@IANCLNMF@TechPrereq?$AA@
CONST	SEGMENT
??_C@_0L@IANCLNMF@TechPrereq?$AA@ DB 'TechPrereq', 00H	; `string'
CONST	ENDS
;	COMDAT ??_C@_0BD@DIOMOCAM@LayerAnimationPath?$AA@
CONST	SEGMENT
??_C@_0BD@DIOMOCAM@LayerAnimationPath?$AA@ DB 'LayerAnimationPath', 00H ; `string'
CONST	ENDS
;	COMDAT ??_C@_0BJ@OGAAKMBL@TradeMissionGoldModifier?$AA@
CONST	SEGMENT
??_C@_0BJ@OGAAKMBL@TradeMissionGoldModifier?$AA@ DB 'TradeMissionGoldModi'
	DB	'fier', 00H					; `string'
CONST	ENDS
;	COMDAT ??_C@_0BO@JKAGNMLN@TradeMissionInfluenceModifier?$AA@
CONST	SEGMENT
??_C@_0BO@JKAGNMLN@TradeMissionInfluenceModifier?$AA@ DB 'TradeMissionInf'
	DB	'luenceModifier', 00H			; `string'
CONST	ENDS
;	COMDAT ??_C@_0CE@BJMPMIKG@ReligiousStrengthLossRivalTerrit@
CONST	SEGMENT
??_C@_0CE@BJMPMIKG@ReligiousStrengthLossRivalTerrit@ DB 'ReligiousStrengt'
	DB	'hLossRivalTerritory', 00H			; `string'
CONST	ENDS
;	COMDAT ??_C@_0BK@HOKBFIJO@CityAttackPlunderModifier?$AA@
CONST	SEGMENT
??_C@_0BK@HOKBFIJO@CityAttackPlunderModifier?$AA@ DB 'CityAttackPlunderMo'
	DB	'difier', 00H				; `string'
CONST	ENDS
;	COMDAT ??_C@_0BG@CILHBFIF@CapitalDefenseFalloff?$AA@
CONST	SEGMENT
??_C@_0BG@CILHBFIF@CapitalDefenseFalloff?$AA@ DB 'CapitalDefenseFalloff', 00H ; `string'
CONST	ENDS
;	COMDAT ??_C@_0BH@CDDLEEIL@CapitalDefenseModifier?$AA@
CONST	SEGMENT
??_C@_0BH@CDDLEEIL@CapitalDefenseModifier?$AA@ DB 'CapitalDefenseModifier'
	DB	00H						; `string'
CONST	ENDS
;	COMDAT ??_C@_0BG@EGJLLMKH@EmbarkDefenseModifier?$AA@
CONST	SEGMENT
??_C@_0BG@EGJLLMKH@EmbarkDefenseModifier?$AA@ DB 'EmbarkDefenseModifier', 00H ; `string'
CONST	ENDS
;	COMDAT ??_C@_0BG@HGLIOLIM@EmbarkExtraVisibility?$AA@
CONST	SEGMENT
??_C@_0BG@HGLIOLIM@EmbarkExtraVisibility?$AA@ DB 'EmbarkExtraVisibility', 00H ; `string'
CONST	ENDS
;	COMDAT ??_C@_0BA@CNOIBFAJ@ExtraWithdrawal?$AA@
CONST	SEGMENT
??_C@_0BA@CNOIBFAJ@ExtraWithdrawal?$AA@ DB 'ExtraWithdrawal', 00H ; `string'
CONST	ENDS
;	COMDAT ??_C@_0BI@INKCACCN@GoldenAgeValueFromKills?$AA@
CONST	SEGMENT
??_C@_0BI@INKCACCN@GoldenAgeValueFromKills?$AA@ DB 'GoldenAgeValueFromKil'
	DB	'ls', 00H					; `string'
CONST	ENDS
;	COMDAT ??_C@_0BH@OLKNAHBI@HPHealedIfDestroyEnemy?$AA@
CONST	SEGMENT
??_C@_0BH@OLKNAHBI@HPHealedIfDestroyEnemy?$AA@ DB 'HPHealedIfDestroyEnemy'
	DB	00H						; `string'
CONST	ENDS
;	COMDAT ??_C@_0BD@GBJFGHJJ@ExtraNavalMovement?$AA@
CONST	SEGMENT
??_C@_0BD@GBJFGHJJ@ExtraNavalMovement?$AA@ DB 'ExtraNavalMovement', 00H ; `string'
CONST	ENDS
;	COMDAT ??_C@_09NLCNIMEK@DropRange?$AA@
CONST	SEGMENT
??_C@_09NLCNIMEK@DropRange?$AA@ DB 'DropRange', 00H	; `string'
CONST	ENDS
;	COMDAT ??_C@_0L@FONMKPAP@DefenseMod?$AA@
CONST	SEGMENT
??_C@_0L@FONMKPAP@DefenseMod?$AA@ DB 'DefenseMod', 00H	; `string'
CONST	ENDS
;	COMDAT ??_C@_09IOHPCIAD@AttackMod?$AA@
CONST	SEGMENT
??_C@_09IOHPCIAD@AttackMod?$AA@ DB 'AttackMod', 00H	; `string'
CONST	ENDS
;	COMDAT ??_C@_0M@NABOGIIK@AdjacentMod?$AA@
CONST	SEGMENT
??_C@_0M@NABOGIIK@AdjacentMod?$AA@ DB 'AdjacentMod', 00H ; `string'
CONST	ENDS
;	COMDAT ??_C@_0BC@OHMKPOHD@ExperiencePercent?$AA@
CONST	SEGMENT
??_C@_0BC@OHMKPOHD@ExperiencePercent?$AA@ DB 'ExperiencePercent', 00H ; `string'
CONST	ENDS
;	COMDAT ??_C@_0BA@KBDHCJII@UpgradeDiscount?$AA@
CONST	SEGMENT
??_C@_0BA@KBDHCJII@UpgradeDiscount?$AA@ DB 'UpgradeDiscount', 00H ; `string'
CONST	ENDS
;	COMDAT ??_C@_0CA@NCPBFGAA@CombatStrengthNearFriendlyMinor?$AA@
CONST	SEGMENT
??_C@_0CA@NCPBFGAA@CombatStrengthNearFriendlyMinor?$AA@ DB 'CombatStrengt'
	DB	'hNearFriendlyMinor', 00H			; `string'
CONST	ENDS
;	COMDAT ??_C@_0BM@JMHDEKOL@GoldenAgeForeignAttackBonus?$AA@
CONST	SEGMENT
??_C@_0BM@JMHDEKOL@GoldenAgeForeignAttackBonus?$AA@ DB 'GoldenAgeForeignA'
	DB	'ttackBonus', 00H				; `string'
CONST	ENDS
;	COMDAT ??_C@_0BN@BDINMCNK@OutsideFriendlyLandsModifier?$AA@
CONST	SEGMENT
??_C@_0BN@BDINMCNK@OutsideFriendlyLandsModifier?$AA@ DB 'OutsideFriendlyL'
	DB	'andsModifier', 00H				; `string'
CONST	ENDS
;	COMDAT ??_C@_0BM@CAOLBPLI@FriendlyLandsAttackModifier?$AA@
CONST	SEGMENT
??_C@_0BM@CAOLBPLI@FriendlyLandsAttackModifier?$AA@ DB 'FriendlyLandsAtta'
	DB	'ckModifier', 00H				; `string'
CONST	ENDS
;	COMDAT ??_C@_0BG@EAPMDGND@FriendlyLandsModifier?$AA@
CONST	SEGMENT
??_C@_0BG@EAPMDGND@FriendlyLandsModifier?$AA@ DB 'FriendlyLandsModifier', 00H ; `string'
CONST	ENDS
;	COMDAT ??_C@_0BL@HINIPOCF@GreatGeneralCombatModifier?$AA@
CONST	SEGMENT
??_C@_0BL@HINIPOCF@GreatGeneralCombatModifier?$AA@ DB 'GreatGeneralCombat'
	DB	'Modifier', 00H				; `string'
CONST	ENDS
;	COMDAT ??_C@_0CI@KNAJAFGK@GreatGeneralOnOrAdjacentConfersM@
CONST	SEGMENT
??_C@_0CI@KNAJAFGK@GreatGeneralOnOrAdjacentConfersM@ DB 'GreatGeneralOnOr'
	DB	'AdjacentConfersMovement', 00H		; `string'
CONST	ENDS
;	COMDAT ??_C@_0BN@IFMFNPAD@EmbarkedUnitReceivesMovement?$AA@
CONST	SEGMENT
??_C@_0BN@IFMFNPAD@EmbarkedUnitReceivesMovement?$AA@ DB 'EmbarkedUnitRece'
	DB	'ivesMovement', 00H				; `string'
CONST	ENDS
;	COMDAT ??_C@_0BN@OFHMHAHA@GreatGeneralReceivesMovement?$AA@
CONST	SEGMENT
??_C@_0BN@OFHMHAHA@GreatGeneralReceivesMovement?$AA@ DB 'GreatGeneralRece'
	DB	'ivesMovement', 00H				; `string'
CONST	ENDS
;	COMDAT ??_C@_0BF@HNNLOAHE@GreatGeneralModifier?$AA@
CONST	SEGMENT
??_C@_0BF@HNNLOAHE@GreatGeneralModifier?$AA@ DB 'GreatGeneralModifier', 00H ; `string'
CONST	ENDS
;	COMDAT ??_C@_0N@LBAALIJO@GreatAdmiral?$AA@
CONST	SEGMENT
??_C@_0N@LBAALIJO@GreatAdmiral?$AA@ DB 'GreatAdmiral', 00H ; `string'
CONST	ENDS
;	COMDAT ??_C@_0N@JCHMCFAC@GreatGeneral?$AA@
CONST	SEGMENT
??_C@_0N@JCHMCFAC@GreatGeneral?$AA@ DB 'GreatGeneral', 00H ; `string'
CONST	ENDS
;	COMDAT ??_C@_0N@CFMCPMIE@ExtraAttacks?$AA@
CONST	SEGMENT
??_C@_0N@CFMCPMIE@ExtraAttacks?$AA@ DB 'ExtraAttacks', 00H ; `string'
CONST	ENDS
;	COMDAT ??_C@_0N@PGIMHIMO@RoughDefense?$AA@
CONST	SEGMENT
??_C@_0N@PGIMHIMO@RoughDefense?$AA@ DB 'RoughDefense', 00H ; `string'
CONST	ENDS
;	COMDAT ??_C@_0M@PFHCKEBE@OpenDefense?$AA@
CONST	SEGMENT
??_C@_0M@PFHCKEBE@OpenDefense?$AA@ DB 'OpenDefense', 00H ; `string'
CONST	ENDS
;	COMDAT ??_C@_0BH@MBACKDCN@NearbyEnemyCombatRange?$AA@
CONST	SEGMENT
??_C@_0BH@MBACKDCN@NearbyEnemyCombatRange?$AA@ DB 'NearbyEnemyCombatRange'
	DB	00H						; `string'
CONST	ENDS
;	COMDAT ??_C@_0BF@JDDHJBMK@NearbyEnemyCombatMod?$AA@
CONST	SEGMENT
??_C@_0BF@JDDHJBMK@NearbyEnemyCombatMod?$AA@ DB 'NearbyEnemyCombatMod', 00H ; `string'
CONST	ENDS
;	COMDAT ??_C@_0BE@EPGDEJAB@FlankAttackModifier?$AA@
CONST	SEGMENT
??_C@_0BE@EPGDEJAB@FlankAttackModifier?$AA@ DB 'FlankAttackModifier', 00H ; `string'
CONST	ENDS
;	COMDAT ??_C@_0BB@POIGNGOI@AttackWoundedMod?$AA@
CONST	SEGMENT
??_C@_0BB@POIGNGOI@AttackWoundedMod?$AA@ DB 'AttackWoundedMod', 00H ; `string'
CONST	ENDS
;	COMDAT ??_C@_0BD@JECJHOEK@AttackFortifiedMod?$AA@
CONST	SEGMENT
??_C@_0BD@JECJHOEK@AttackFortifiedMod?$AA@ DB 'AttackFortifiedMod', 00H ; `string'
CONST	ENDS
;	COMDAT ??_C@_0BF@CBPJCGIL@RoughRangedAttackMod?$AA@
CONST	SEGMENT
??_C@_0BF@CBPJCGIL@RoughRangedAttackMod?$AA@ DB 'RoughRangedAttackMod', 00H ; `string'
CONST	ENDS
;	COMDAT ??_C@_0M@INLFKGCE@RoughAttack?$AA@
CONST	SEGMENT
??_C@_0M@INLFKGCE@RoughAttack?$AA@ DB 'RoughAttack', 00H ; `string'
CONST	ENDS
;	COMDAT ??_C@_0BE@LCHPCHNH@OpenRangedAttackMod?$AA@
CONST	SEGMENT
??_C@_0BE@LCHPCHNH@OpenRangedAttackMod?$AA@ DB 'OpenRangedAttackMod', 00H ; `string'
CONST	ENDS
;	COMDAT ??_C@_0L@MFILHAKG@OpenAttack?$AA@
CONST	SEGMENT
??_C@_0L@MFILHAKG@OpenAttack?$AA@ DB 'OpenAttack', 00H	; `string'
CONST	ENDS
;	COMDAT ??_C@_0N@JECHMAMH@HillsDefense?$AA@
CONST	SEGMENT
??_C@_0N@JECHMAMH@HillsDefense?$AA@ DB 'HillsDefense', 00H ; `string'
CONST	ENDS
;	COMDAT ??_C@_0M@PLBAHAHI@HillsAttack?$AA@
CONST	SEGMENT
??_C@_0M@PLBAHAHI@HillsAttack?$AA@ DB 'HillsAttack', 00H ; `string'
CONST	ENDS
;	COMDAT ??_C@_0BB@ILGDNJED@RangedDefenseMod?$AA@
CONST	SEGMENT
??_C@_0BB@ILGDNJED@RangedDefenseMod?$AA@ DB 'RangedDefenseMod', 00H ; `string'
CONST	ENDS
;	COMDAT ??_C@_0M@CFAONGLF@CityDefense?$AA@
CONST	SEGMENT
??_C@_0M@CFAONGLF@CityDefense?$AA@ DB 'CityDefense', 00H ; `string'
CONST	ENDS
;	COMDAT ??_C@_0L@NJOPCGED@CityAttack?$AA@
CONST	SEGMENT
??_C@_0L@NJOPCGED@CityAttack?$AA@ DB 'CityAttack', 00H	; `string'
CONST	ENDS
;	COMDAT ??_C@_0O@GACIIML@CombatPercent?$AA@
CONST	SEGMENT
??_C@_0O@GACIIML@CombatPercent?$AA@ DB 'CombatPercent', 00H ; `string'
CONST	ENDS
;	COMDAT ??_C@_0O@LPIOADGP@NeutralDamage?$AA@
CONST	SEGMENT
??_C@_0O@LPIOADGP@NeutralDamage?$AA@ DB 'NeutralDamage', 00H ; `string'
CONST	ENDS
;	COMDAT ??_C@_0M@MDHDILHK@EnemyDamage?$AA@
CONST	SEGMENT
??_C@_0M@MDHDILHK@EnemyDamage?$AA@ DB 'EnemyDamage', 00H ; `string'
CONST	ENDS
;	COMDAT ??_C@_0BE@MBHCGJPP@NeutralDamageChance?$AA@
CONST	SEGMENT
??_C@_0BE@MBHCGJPP@NeutralDamageChance?$AA@ DB 'NeutralDamageChance', 00H ; `string'
CONST	ENDS
;	COMDAT ??_C@_0BC@DKBIFOMK@EnemyDamageChance?$AA@
CONST	SEGMENT
??_C@_0BC@DKBIFOMK@EnemyDamageChance?$AA@ DB 'EnemyDamageChance', 00H ; `string'
CONST	ENDS
;	COMDAT ??_C@_0BH@DJKFKEFH@AdjacentTileHealChange?$AA@
CONST	SEGMENT
??_C@_0BH@DJKFKEFH@AdjacentTileHealChange?$AA@ DB 'AdjacentTileHealChange'
	DB	00H						; `string'
CONST	ENDS
;	COMDAT ??_C@_0BD@NMADFNHG@SameTileHealChange?$AA@
CONST	SEGMENT
??_C@_0BD@NMADFNHG@SameTileHealChange?$AA@ DB 'SameTileHealChange', 00H ; `string'
CONST	ENDS
;	COMDAT ??_C@_0BD@FDKGEBJC@FriendlyHealChange?$AA@
CONST	SEGMENT
??_C@_0BD@FDKGEBJC@FriendlyHealChange?$AA@ DB 'FriendlyHealChange', 00H ; `string'
CONST	ENDS
;	COMDAT ??_C@_0BC@EMMIAEHH@NeutralHealChange?$AA@
CONST	SEGMENT
??_C@_0BC@EMMIAEHH@NeutralHealChange?$AA@ DB 'NeutralHealChange', 00H ; `string'
CONST	ENDS
;	COMDAT ??_C@_0BA@DMIIELAF@EnemyHealChange?$AA@
CONST	SEGMENT
??_C@_0BA@DMIIELAF@EnemyHealChange?$AA@ DB 'EnemyHealChange', 00H ; `string'
CONST	ENDS
;	COMDAT ??_C@_0M@CKAFGAOO@CargoChange?$AA@
CONST	SEGMENT
??_C@_0M@CKAFGAOO@CargoChange?$AA@ DB 'CargoChange', 00H ; `string'
CONST	ENDS
;	COMDAT ??_C@_0O@PFMMAFHH@EvasionChange?$AA@
CONST	SEGMENT
??_C@_0O@PFMMAFHH@EvasionChange?$AA@ DB 'EvasionChange', 00H ; `string'
CONST	ENDS
;	COMDAT ??_C@_0BG@KECHKNBB@NumInterceptionChange?$AA@
CONST	SEGMENT
??_C@_0BG@KECHKNBB@NumInterceptionChange?$AA@ DB 'NumInterceptionChange', 00H ; `string'
CONST	ENDS
;	COMDAT ??_C@_0BG@DLANFOAL@InterceptChanceChange?$AA@
CONST	SEGMENT
??_C@_0BG@DLANFOAL@InterceptChanceChange?$AA@ DB 'InterceptChanceChange', 00H ; `string'
CONST	ENDS
;	COMDAT ??_C@_0BH@LHPCCLAF@AirSweepCombatModifier?$AA@
CONST	SEGMENT
??_C@_0BH@LHPCCLAF@AirSweepCombatModifier?$AA@ DB 'AirSweepCombatModifier'
	DB	00H						; `string'
CONST	ENDS
;	COMDAT ??_C@_0CC@GCFBADFM@InterceptionDefenseDamageModifie@
CONST	SEGMENT
??_C@_0CC@GCFBADFM@InterceptionDefenseDamageModifie@ DB 'InterceptionDefe'
	DB	'nseDamageModifier', 00H			; `string'
CONST	ENDS
;	COMDAT ??_C@_0BL@FGOMGGGH@InterceptionCombatModifier?$AA@
CONST	SEGMENT
??_C@_0BL@FGOMGGGH@InterceptionCombatModifier?$AA@ DB 'InterceptionCombat'
	DB	'Modifier', 00H				; `string'
CONST	ENDS
;	COMDAT ??_C@_0BF@OAGDHGKL@RangedAttackModifier?$AA@
CONST	SEGMENT
??_C@_0BF@OAGDHGKL@RangedAttackModifier?$AA@ DB 'RangedAttackModifier', 00H ; `string'
CONST	ENDS
;	COMDAT ??_C@_0M@BBOKLMND@RangeChange?$AA@
CONST	SEGMENT
??_C@_0M@BBOKLMND@RangeChange?$AA@ DB 'RangeChange', 00H ; `string'
CONST	ENDS
;	COMDAT ??_C@_0BD@CAAMFILH@MoveDiscountChange?$AA@
CONST	SEGMENT
??_C@_0BD@CAAMFILH@MoveDiscountChange?$AA@ DB 'MoveDiscountChange', 00H ; `string'
CONST	ENDS
;	COMDAT ??_C@_0M@JNELDEGO@MovesChange?$AA@
CONST	SEGMENT
??_C@_0M@JNELDEGO@MovesChange?$AA@ DB 'MovesChange', 00H ; `string'
CONST	ENDS
;	COMDAT ??_C@_0BB@DGGHCNE@VisibilityChange?$AA@
CONST	SEGMENT
??_C@_0BB@DGGHCNE@VisibilityChange?$AA@ DB 'VisibilityChange', 00H ; `string'
CONST	ENDS
;	COMDAT ??_C@_0BE@DFBJNAA@HeavyChargeDownhill?$AA@
CONST	SEGMENT
??_C@_0BE@DFBJNAA@HeavyChargeDownhill?$AA@ DB 'HeavyChargeDownhill', 00H ; `string'
CONST	ENDS
;	COMDAT ??_C@_0M@DMHHALDA@HeavyCharge?$AA@
CONST	SEGMENT
??_C@_0M@DMHHALDA@HeavyCharge?$AA@ DB 'HeavyCharge', 00H ; `string'
CONST	ENDS
;	COMDAT ??_C@_0O@DLMMLOCL@ConvertDomain?$AA@
CONST	SEGMENT
??_C@_0O@DLMMLOCL@ConvertDomain?$AA@ DB 'ConvertDomain', 00H ; `string'
CONST	ENDS
;	COMDAT ??_C@_0BC@EJOIAGJF@ConvertDomainUnit?$AA@
CONST	SEGMENT
??_C@_0BC@EJOIAGJF@ConvertDomainUnit?$AA@ DB 'ConvertDomainUnit', 00H ; `string'
CONST	ENDS
;	COMDAT ??_C@_0L@EKONAALM@GiveDomain?$AA@
CONST	SEGMENT
??_C@_0L@EKONAALM@GiveDomain?$AA@ DB 'GiveDomain', 00H	; `string'
CONST	ENDS
;	COMDAT ??_C@_06HCPOFNLI@Sapper?$AA@
CONST	SEGMENT
??_C@_06HCPOFNLI@Sapper?$AA@ DB 'Sapper', 00H		; `string'
CONST	ENDS
;	COMDAT ??_C@_0BO@EFNCPIGJ@PostCombatPromotionsExclusive?$AA@
CONST	SEGMENT
??_C@_0BO@EFNCPIGJ@PostCombatPromotionsExclusive?$AA@ DB 'PostCombatPromo'
	DB	'tionsExclusive', 00H			; `string'
CONST	ENDS
;	COMDAT ??_C@_0BI@JDLBMOJI@HasPostCombatPromotions?$AA@
CONST	SEGMENT
??_C@_0BI@JDLBMOJI@HasPostCombatPromotions?$AA@ DB 'HasPostCombatPromotio'
	DB	'ns', 00H					; `string'
CONST	ENDS
;	COMDAT ??_C@_09ONFNLEAB@IgnoreZOC?$AA@
CONST	SEGMENT
??_C@_09ONFNLEAB@IgnoreZOC?$AA@ DB 'IgnoreZOC', 00H	; `string'
CONST	ENDS
;	COMDAT ??_C@_0BK@NLHKOMPI@IgnoreGreatGeneralBenefit?$AA@
CONST	SEGMENT
??_C@_0BK@NLHKOMPI@IgnoreGreatGeneralBenefit?$AA@ DB 'IgnoreGreatGeneralB'
	DB	'enefit', 00H				; `string'
CONST	ENDS
;	COMDAT ??_C@_0BF@GKCMIFCN@CaptureDefeatedEnemy?$AA@
CONST	SEGMENT
??_C@_0BF@GKCMIFCN@CaptureDefeatedEnemy?$AA@ DB 'CaptureDefeatedEnemy', 00H ; `string'
CONST	ENDS
;	COMDAT ??_C@_0P@CNOCPHIB@CityAttackOnly?$AA@
CONST	SEGMENT
??_C@_0P@CNOCPHIB@CityAttackOnly?$AA@ DB 'CityAttackOnly', 00H ; `string'
CONST	ENDS
;	COMDAT ??_C@_0BB@COFEIKJH@EmbarkedAllWater?$AA@
CONST	SEGMENT
??_C@_0BB@COFEIKJH@EmbarkedAllWater?$AA@ DB 'EmbarkedAllWater', 00H ; `string'
CONST	ENDS
;	COMDAT ??_C@_0CA@LIOCFLBJ@HealIfDestroyExcludesBarbarians?$AA@
CONST	SEGMENT
??_C@_0CA@LIOCFLBJ@HealIfDestroyExcludesBarbarians?$AA@ DB 'HealIfDestroy'
	DB	'ExcludesBarbarians', 00H			; `string'
CONST	ENDS
;	COMDAT ??_C@_0O@ODCFFJIN@HealOnPillage?$AA@
CONST	SEGMENT
??_C@_0O@ODCFFJIN@HealOnPillage?$AA@ DB 'HealOnPillage', 00H ; `string'
CONST	ENDS
;	COMDAT ??_C@_0BB@CEEBKLJG@FreePillageMoves?$AA@
CONST	SEGMENT
??_C@_0BB@CEEBKLJG@FreePillageMoves?$AA@ DB 'FreePillageMoves', 00H ; `string'
CONST	ENDS
;	COMDAT ??_C@_0BF@BPDHCLGM@RangeAttackIgnoreLOS?$AA@
CONST	SEGMENT
??_C@_0BF@BPDHCLGM@RangeAttackIgnoreLOS?$AA@ DB 'RangeAttackIgnoreLOS', 00H ; `string'
CONST	ENDS
;	COMDAT ??_C@_0BC@NAOACEFI@AllowsEmbarkation?$AA@
CONST	SEGMENT
??_C@_0BC@NAOACEFI@AllowsEmbarkation?$AA@ DB 'AllowsEmbarkation', 00H ; `string'
CONST	ENDS
;	COMDAT ??_C@_0BA@EDKILALH@AirSweepCapable?$AA@
CONST	SEGMENT
??_C@_0BA@EDKILALH@AirSweepCapable?$AA@ DB 'AirSweepCapable', 00H ; `string'
CONST	ENDS
;	COMDAT ??_C@_0BG@HJLIJFLF@CanMoveAfterAttacking?$AA@
CONST	SEGMENT
??_C@_0BG@HJLIJFLF@CanMoveAfterAttacking?$AA@ DB 'CanMoveAfterAttacking', 00H ; `string'
CONST	ENDS
;	COMDAT ??_C@_0BC@PHIBAHKE@CanMoveAllTerrain?$AA@
CONST	SEGMENT
??_C@_0BC@PHIBAHKE@CanMoveAllTerrain?$AA@ DB 'CanMoveAllTerrain', 00H ; `string'
CONST	ENDS
;	COMDAT ??_C@_05MPMPJNEE@Recon?$AA@
CONST	SEGMENT
??_C@_05MPMPJNEE@Recon?$AA@ DB 'Recon', 00H		; `string'
CONST	ENDS
;	COMDAT ??_C@_0M@BGMOEIPJ@NoRevealMap?$AA@
CONST	SEGMENT
??_C@_0M@BGMOEIPJ@NoRevealMap?$AA@ DB 'NoRevealMap', 00H ; `string'
CONST	ENDS
;	COMDAT ??_C@_0O@HNEKEKMA@AlwaysHostile?$AA@
CONST	SEGMENT
??_C@_0O@HNEKEKMA@AlwaysHostile?$AA@ DB 'AlwaysHostile', 00H ; `string'
CONST	ENDS
;	COMDAT ??_C@_0BC@BPFLKNIK@HiddenNationality?$AA@
CONST	SEGMENT
??_C@_0BC@BPFLKNIK@HiddenNationality?$AA@ DB 'HiddenNationality', 00H ; `string'
CONST	ENDS
;	COMDAT ??_C@_0L@EEGCDFDE@NukeImmune?$AA@
CONST	SEGMENT
??_C@_0L@EEGCDFDE@NukeImmune?$AA@ DB 'NukeImmune', 00H	; `string'
CONST	ENDS
;	COMDAT ??_C@_0BB@EDEJJMBG@NoDefensiveBonus?$AA@
CONST	SEGMENT
??_C@_0BB@EDEJJMBG@NoDefensiveBonus?$AA@ DB 'NoDefensiveBonus', 00H ; `string'
CONST	ENDS
;	COMDAT ??_C@_0O@KJLADANN@OnlyDefensive?$AA@
CONST	SEGMENT
??_C@_0O@KJLADANN@OnlyDefensive?$AA@ DB 'OnlyDefensive', 00H ; `string'
CONST	ENDS
;	COMDAT ??_C@_09IBGBFEAM@NoCapture?$AA@
CONST	SEGMENT
??_C@_09IBGBFEAM@NoCapture?$AA@ DB 'NoCapture', 00H	; `string'
CONST	ENDS
;	COMDAT ??_C@_0BC@DKMBECGO@CanMoveImpassable?$AA@
CONST	SEGMENT
??_C@_0BC@DKMBECGO@CanMoveImpassable?$AA@ DB 'CanMoveImpassable', 00H ; `string'
CONST	ENDS
;	COMDAT ??_C@_0BB@MENGGKPI@FlatMovementCost?$AA@
CONST	SEGMENT
??_C@_0BB@MENGGKPI@FlatMovementCost?$AA@ DB 'FlatMovementCost', 00H ; `string'
CONST	ENDS
;	COMDAT ??_C@_0N@JEEMILAJ@HoveringUnit?$AA@
CONST	SEGMENT
??_C@_0N@JEEMILAJ@HoveringUnit?$AA@ DB 'HoveringUnit', 00H ; `string'
CONST	ENDS
;	COMDAT ??_C@_0BF@BGJPEPFP@RoughTerrainEndsTurn?$AA@
CONST	SEGMENT
??_C@_0BF@BGJPEPFP@RoughTerrainEndsTurn?$AA@ DB 'RoughTerrainEndsTurn', 00H ; `string'
CONST	ENDS
;	COMDAT ??_C@_0BC@PNMBBNHM@IgnoreTerrainCost?$AA@
CONST	SEGMENT
??_C@_0BC@PNMBBNHM@IgnoreTerrainCost?$AA@ DB 'IgnoreTerrainCost', 00H ; `string'
CONST	ENDS
;	COMDAT ??_C@_0BA@OKKIPNCP@HillsDoubleMove?$AA@
CONST	SEGMENT
??_C@_0BA@OKKIPNCP@HillsDoubleMove?$AA@ DB 'HillsDoubleMove', 00H ; `string'
CONST	ENDS
;	COMDAT ??_C@_0BE@MIHNMDGG@HealOutsideFriendly?$AA@
CONST	SEGMENT
??_C@_0BE@MIHNMDGG@HealOutsideFriendly?$AA@ DB 'HealOutsideFriendly', 00H ; `string'
CONST	ENDS
;	COMDAT ??_C@_0L@NAIGBJGJ@AlwaysHeal?$AA@
CONST	SEGMENT
??_C@_0L@NAIGBJGJ@AlwaysHeal?$AA@ DB 'AlwaysHeal', 00H	; `string'
CONST	ENDS
;	COMDAT ??_C@_0BC@FACLBCD@RangedSupportFire?$AA@
CONST	SEGMENT
??_C@_0BC@FACLBCD@RangedSupportFire?$AA@ DB 'RangedSupportFire', 00H ; `string'
CONST	ENDS
;	COMDAT ??_C@_0BI@PPIELJHB@MustSetUpToRangedAttack?$AA@
CONST	SEGMENT
??_C@_0BI@PPIELJHB@MustSetUpToRangedAttack?$AA@ DB 'MustSetUpToRangedAtta'
	DB	'ck', 00H					; `string'
CONST	ENDS
;	COMDAT ??_C@_0P@FHNGKGM@RivalTerritory?$AA@
CONST	SEGMENT
??_C@_0P@FHNGKGM@RivalTerritory?$AA@ DB 'RivalTerritory', 00H ; `string'
CONST	ENDS
;	COMDAT ??_C@_0L@JFBEGNKE@EnemyRoute?$AA@
CONST	SEGMENT
??_C@_0L@JFBEGNKE@EnemyRoute?$AA@ DB 'EnemyRoute', 00H	; `string'
CONST	ENDS
;	COMDAT ??_C@_05IGBIAPGD@River?$AA@
CONST	SEGMENT
??_C@_05IGBIAPGD@River?$AA@ DB 'River', 00H		; `string'
CONST	ENDS
;	COMDAT ??_C@_06CDAIIEGB@Amphib?$AA@
CONST	SEGMENT
??_C@_06CDAIIEGB@Amphib?$AA@ DB 'Amphib', 00H		; `string'
CONST	ENDS
;	COMDAT ??_C@_05JAGJIGAO@Blitz?$AA@
CONST	SEGMENT
??_C@_05JAGJIGAO@Blitz?$AA@ DB 'Blitz', 00H		; `string'
CONST	ENDS
;	COMDAT ??_C@_06PKACINHD@Leader?$AA@
CONST	SEGMENT
??_C@_06PKACINHD@Leader?$AA@ DB 'Leader', 00H		; `string'
CONST	ENDS
;	COMDAT ??_C@_09PHANMOGE@InstaHeal?$AA@
CONST	SEGMENT
??_C@_09PHANMOGE@InstaHeal?$AA@ DB 'InstaHeal', 00H	; `string'
CONST	ENDS
;	COMDAT ??_C@_0P@GHEAGCAB@NotWithUpgrade?$AA@
CONST	SEGMENT
??_C@_0P@GHEAGCAB@NotWithUpgrade?$AA@ DB 'NotWithUpgrade', 00H ; `string'
CONST	ENDS
;	COMDAT ??_C@_0BA@KIANEHLG@LostWithUpgrade?$AA@
CONST	SEGMENT
??_C@_0BA@KIANEHLG@LostWithUpgrade?$AA@ DB 'LostWithUpgrade', 00H ; `string'
CONST	ENDS
;	COMDAT ??_C@_0P@MFCBGKCG@CannotBeChosen?$AA@
CONST	SEGMENT
??_C@_0P@MFCBGKCG@CannotBeChosen?$AA@ DB 'CannotBeChosen', 00H ; `string'
CONST	ENDS
;	COMDAT ??_C@_05MAHMNMLO@Sound?$AA@
CONST	SEGMENT
??_C@_05MAHMNMLO@Sound?$AA@ DB 'Sound', 00H		; `string'
CONST	ENDS
;	COMDAT xdata$x
xdata$x	SEGMENT
__ehfuncinfo$?CacheResults@CvPromotionEntry@@UAE_NAAVResults@Database@@AAVCvDatabaseUtility@@@Z DD 019930522H
	DD	07H
	DD	FLAT:__unwindtable$?CacheResults@CvPromotionEntry@@UAE_NAAVResults@Database@@AAVCvDatabaseUtility@@@Z
	DD	2 DUP(00H)
	DD	2 DUP(00H)
	DD	00H
	DD	01H
__unwindtable$?CacheResults@CvPromotionEntry@@UAE_NAAVResults@Database@@AAVCvDatabaseUtility@@@Z DD 0ffffffffH
	DD	FLAT:__unwindfunclet$?CacheResults@CvPromotionEntry@@UAE_NAAVResults@Database@@AAVCvDatabaseUtility@@@Z$0
	DD	0ffffffffH
	DD	FLAT:__unwindfunclet$?CacheResults@CvPromotionEntry@@UAE_NAAVResults@Database@@AAVCvDatabaseUtility@@@Z$1
	DD	0ffffffffH
	DD	FLAT:__unwindfunclet$?CacheResults@CvPromotionEntry@@UAE_NAAVResults@Database@@AAVCvDatabaseUtility@@@Z$2
	DD	0ffffffffH
	DD	FLAT:__unwindfunclet$?CacheResults@CvPromotionEntry@@UAE_NAAVResults@Database@@AAVCvDatabaseUtility@@@Z$3
	DD	0ffffffffH
	DD	FLAT:__unwindfunclet$?CacheResults@CvPromotionEntry@@UAE_NAAVResults@Database@@AAVCvDatabaseUtility@@@Z$4
	DD	0ffffffffH
	DD	FLAT:__unwindfunclet$?CacheResults@CvPromotionEntry@@UAE_NAAVResults@Database@@AAVCvDatabaseUtility@@@Z$5
	DD	0ffffffffH
	DD	FLAT:__unwindfunclet$?CacheResults@CvPromotionEntry@@UAE_NAAVResults@Database@@AAVCvDatabaseUtility@@@Z$6
; Function compile flags: /Odtp
; File d:\sources\lekmod_git\checkout\lekmod_dll\cvgamecoredll_expansion2\cvpromotionclasses.cpp
xdata$x	ENDS
;	COMDAT ?CacheResults@CvPromotionEntry@@UAE_NAAVResults@Database@@AAVCvDatabaseUtility@@@Z
_TEXT	SEGMENT
_this$ = -628						; size = 4
$T219796 = -624						; size = 4
$T219795 = -620						; size = 4
_i$219790 = -616					; size = 4
$T219784 = -612						; size = 4
$T219783 = -608						; size = 4
_i$219778 = -604					; size = 4
$T219762 = -560						; size = 4
$T219761 = -556						; size = 4
_i$219756 = -552					; size = 4
$T219750 = -548						; size = 4
$T219749 = -544						; size = 4
_i$219744 = -540					; size = 4
$T219732 = -512						; size = 4
$T219731 = -508						; size = 4
_i$219726 = -504					; size = 4
$T219720 = -500						; size = 4
$T219719 = -496						; size = 4
_i$219714 = -492					; size = 4
$T219692 = -463						; size = 1
$T219691 = -462						; size = 1
$T219690 = -461						; size = 1
$T219689 = -460						; size = 1
$T219688 = -459						; size = 1
$T219687 = -458						; size = 1
$T219686 = -457						; size = 1
_iUnit$217398 = -456					; size = 4
_szSQL$217391 = -452					; size = 4
_pResults$217389 = -448					; size = 4
_sqlKey$217387 = -444					; size = 28
_iUnitCombatInfoID$217386 = -416			; size = 4
_szSQL$217379 = -412					; size = 4
_pResults$217377 = -408					; size = 4
_sqlKey$217375 = -404					; size = 28
_iUnitCombatMod$217374 = -376				; size = 4
_iUnitCombatID$217373 = -372				; size = 4
_szSQL$217366 = -368					; size = 4
_pResults$217364 = -364					; size = 4
_sqlKey$217362 = -360					; size = 28
_iDomainMod$217360 = -332				; size = 4
_iDomainID$217359 = -328				; size = 4
_szSQL$217352 = -324					; size = 4
_pResults$217350 = -320					; size = 4
_sqlKey$217348 = -316					; size = 28
_iAttack$217346 = -288					; size = 4
_iUnitClassID$217343 = -284				; size = 4
_iModifier$217344 = -280				; size = 4
_iDefense$217347 = -276					; size = 4
_szSQL$217336 = -272					; size = 4
_pResults$217334 = -268					; size = 4
_sqlKey$217332 = -264					; size = 28
_iFeatureID$217325 = -236				; size = 4
_bDoubleMove$217329 = -229				; size = 1
_iPassableTech$217331 = -228				; size = 4
_iFeatureAttack$217327 = -224				; size = 4
_iFeatureDefense$217328 = -220				; size = 4
_bImpassable$217330 = -213				; size = 1
_szSQL$217318 = -212					; size = 4
_pResults$217316 = -208					; size = 4
_sqlKey$217314 = -204					; size = 28
_iTerrainAttack$217304 = -176				; size = 4
_iTerrainDefense$217306 = -172				; size = 4
_bDoubleMove$217308 = -165				; size = 1
_iTerrainID$217302 = -164				; size = 4
_iPassableTechID$217312 = -160				; size = 4
_bImpassable$217310 = -153				; size = 1
_szSQL$217295 = -152					; size = 4
_pResults$217293 = -148					; size = 4
_sqlKey$217291 = -144					; size = 28
__$ArrayPad$ = -116					; size = 4
_szTechPrereq$ = -112					; size = 4
_szPromotionPrereq$ = -108				; size = 4
_iNumUnitClasses$ = -104				; size = 4
_szLayerAnimationPath$ = -100				; size = 4
_szPromotionPrereqOr3$ = -96				; size = 4
_szPromotionPrereqOr7$ = -92				; size = 4
_szPromotionPrereqOr10$ = -88				; size = 4
_szPromotionPrereqOr4$ = -84				; size = 4
_szPromotionPrereqOr8$ = -80				; size = 4
_iNumTerrains$ = -76					; size = 4
_iNumDomains$ = -72					; size = 4
_szConvertDomain$ = -68					; size = 4
_iNumFeatures$ = -64					; size = 4
_szPromotionType$ = -60					; size = 4
_szPromotionPrereqOr1$ = -56				; size = 4
_szPromotionPrereqOr5$ = -52				; size = 4
_szPromotionPrereqOr9$ = -48				; size = 4
_iNumUnitCombatClasses$ = -44				; size = 4
_iNumUnitTypes$ = -40					; size = 4
_szGiveDomain$ = -36					; size = 4
_szInvisible$ = -32					; size = 4
_szSeeInvisible$ = -28					; size = 4
_szPromotionPrereqOr2$ = -24				; size = 4
_szPromotionPrereqOr6$ = -20				; size = 4
_szConvertDomainUnit$ = -16				; size = 4
__$EHRec$ = -12						; size = 12
_kResults$ = 8						; size = 4
_kUtility$ = 12						; size = 4
?CacheResults@CvPromotionEntry@@UAE_NAAVResults@Database@@AAVCvDatabaseUtility@@@Z PROC ; CvPromotionEntry::CacheResults, COMDAT
; _this$ = ecx

; 209  : {

	push	ebp
	mov	ebp, esp
	push	-1
	push	__ehhandler$?CacheResults@CvPromotionEntry@@UAE_NAAVResults@Database@@AAVCvDatabaseUtility@@@Z
	mov	eax, DWORD PTR fs:0
	push	eax
	sub	esp, 616				; 00000268H
	mov	eax, DWORD PTR ___security_cookie
	xor	eax, ebp
	mov	DWORD PTR __$ArrayPad$[ebp], eax
	push	eax
	lea	eax, DWORD PTR __$EHRec$[ebp]
	mov	DWORD PTR fs:0, eax
	mov	DWORD PTR _this$[ebp], ecx

; 210  : 	if(!CvHotKeyInfo::CacheResults(kResults, kUtility))

	mov	eax, DWORD PTR _kUtility$[ebp]
	push	eax
	mov	ecx, DWORD PTR _kResults$[ebp]
	push	ecx
	mov	ecx, DWORD PTR _this$[ebp]
	call	?CacheResults@CvHotKeyInfo@@UAE_NAAVResults@Database@@AAVCvDatabaseUtility@@@Z ; CvHotKeyInfo::CacheResults
	movzx	edx, al
	test	edx, edx
	jne	SHORT $LN30@CacheResul

; 211  : 		return false;

	xor	al, al
	jmp	$LN31@CacheResul
$LN30@CacheResul:

; 212  : 
; 213  : 	SetSound(kResults.GetText("Sound"));

	push	OFFSET ??_C@_05MAHMNMLO@Sound?$AA@
	mov	ecx, DWORD PTR _kResults$[ebp]
	call	DWORD PTR __imp_?GetText@Results@Database@@QAEPBDPBD@Z
	push	eax
	mov	ecx, DWORD PTR _this$[ebp]
	call	?SetSound@CvPromotionEntry@@QAEXPBD@Z	; CvPromotionEntry::SetSound

; 214  : 
; 215  : 	//Basic Properties
; 216  : 	m_bCannotBeChosen = kResults.GetBool("CannotBeChosen");

	push	OFFSET ??_C@_0P@MFCBGKCG@CannotBeChosen?$AA@
	mov	ecx, DWORD PTR _kResults$[ebp]
	call	DWORD PTR __imp_?GetBool@Results@Database@@QAE_NPBD@Z
	mov	ecx, DWORD PTR _this$[ebp]
	mov	BYTE PTR [ecx+792], al

; 217  : 	m_bLostWithUpgrade = kResults.GetBool("LostWithUpgrade");

	push	OFFSET ??_C@_0BA@KIANEHLG@LostWithUpgrade?$AA@
	mov	ecx, DWORD PTR _kResults$[ebp]
	call	DWORD PTR __imp_?GetBool@Results@Database@@QAE_NPBD@Z
	mov	edx, DWORD PTR _this$[ebp]
	mov	BYTE PTR [edx+793], al

; 218  : 	m_bNotWithUpgrade = kResults.GetBool("NotWithUpgrade");

	push	OFFSET ??_C@_0P@GHEAGCAB@NotWithUpgrade?$AA@
	mov	ecx, DWORD PTR _kResults$[ebp]
	call	DWORD PTR __imp_?GetBool@Results@Database@@QAE_NPBD@Z
	mov	ecx, DWORD PTR _this$[ebp]
	mov	BYTE PTR [ecx+794], al

; 219  : 	m_bInstaHeal = kResults.GetBool("InstaHeal");

	push	OFFSET ??_C@_09PHANMOGE@InstaHeal?$AA@
	mov	ecx, DWORD PTR _kResults$[ebp]
	call	DWORD PTR __imp_?GetBool@Results@Database@@QAE_NPBD@Z
	mov	edx, DWORD PTR _this$[ebp]
	mov	BYTE PTR [edx+795], al

; 220  : 	m_bLeader = kResults.GetBool("Leader");

	push	OFFSET ??_C@_06PKACINHD@Leader?$AA@
	mov	ecx, DWORD PTR _kResults$[ebp]
	call	DWORD PTR __imp_?GetBool@Results@Database@@QAE_NPBD@Z
	mov	ecx, DWORD PTR _this$[ebp]
	mov	BYTE PTR [ecx+796], al

; 221  : 	m_bBlitz = kResults.GetBool("Blitz");

	push	OFFSET ??_C@_05JAGJIGAO@Blitz?$AA@
	mov	ecx, DWORD PTR _kResults$[ebp]
	call	DWORD PTR __imp_?GetBool@Results@Database@@QAE_NPBD@Z
	mov	edx, DWORD PTR _this$[ebp]
	mov	BYTE PTR [edx+797], al

; 222  : 	m_bAmphib = kResults.GetBool("Amphib");

	push	OFFSET ??_C@_06CDAIIEGB@Amphib?$AA@
	mov	ecx, DWORD PTR _kResults$[ebp]
	call	DWORD PTR __imp_?GetBool@Results@Database@@QAE_NPBD@Z
	mov	ecx, DWORD PTR _this$[ebp]
	mov	BYTE PTR [ecx+798], al

; 223  : 	m_bRiver = kResults.GetBool("River");

	push	OFFSET ??_C@_05IGBIAPGD@River?$AA@
	mov	ecx, DWORD PTR _kResults$[ebp]
	call	DWORD PTR __imp_?GetBool@Results@Database@@QAE_NPBD@Z
	mov	edx, DWORD PTR _this$[ebp]
	mov	BYTE PTR [edx+799], al

; 224  : 	m_bEnemyRoute = kResults.GetBool("EnemyRoute");

	push	OFFSET ??_C@_0L@JFBEGNKE@EnemyRoute?$AA@
	mov	ecx, DWORD PTR _kResults$[ebp]
	call	DWORD PTR __imp_?GetBool@Results@Database@@QAE_NPBD@Z
	mov	ecx, DWORD PTR _this$[ebp]
	mov	BYTE PTR [ecx+800], al

; 225  : 	m_bRivalTerritory = kResults.GetBool("RivalTerritory");

	push	OFFSET ??_C@_0P@FHNGKGM@RivalTerritory?$AA@
	mov	ecx, DWORD PTR _kResults$[ebp]
	call	DWORD PTR __imp_?GetBool@Results@Database@@QAE_NPBD@Z
	mov	edx, DWORD PTR _this$[ebp]
	mov	BYTE PTR [edx+801], al

; 226  : 	m_bMustSetUpToRangedAttack = kResults.GetBool("MustSetUpToRangedAttack");

	push	OFFSET ??_C@_0BI@PPIELJHB@MustSetUpToRangedAttack?$AA@
	mov	ecx, DWORD PTR _kResults$[ebp]
	call	DWORD PTR __imp_?GetBool@Results@Database@@QAE_NPBD@Z
	mov	ecx, DWORD PTR _this$[ebp]
	mov	BYTE PTR [ecx+802], al

; 227  : 	m_bRangedSupportFire= kResults.GetBool("RangedSupportFire");

	push	OFFSET ??_C@_0BC@FACLBCD@RangedSupportFire?$AA@
	mov	ecx, DWORD PTR _kResults$[ebp]
	call	DWORD PTR __imp_?GetBool@Results@Database@@QAE_NPBD@Z
	mov	edx, DWORD PTR _this$[ebp]
	mov	BYTE PTR [edx+803], al

; 228  : 	m_bAlwaysHeal = kResults.GetBool("AlwaysHeal");

	push	OFFSET ??_C@_0L@NAIGBJGJ@AlwaysHeal?$AA@
	mov	ecx, DWORD PTR _kResults$[ebp]
	call	DWORD PTR __imp_?GetBool@Results@Database@@QAE_NPBD@Z
	mov	ecx, DWORD PTR _this$[ebp]
	mov	BYTE PTR [ecx+804], al

; 229  : 	m_bHealOutsideFriendly = kResults.GetBool("HealOutsideFriendly");

	push	OFFSET ??_C@_0BE@MIHNMDGG@HealOutsideFriendly?$AA@
	mov	ecx, DWORD PTR _kResults$[ebp]
	call	DWORD PTR __imp_?GetBool@Results@Database@@QAE_NPBD@Z
	mov	edx, DWORD PTR _this$[ebp]
	mov	BYTE PTR [edx+805], al

; 230  : 	m_bHillsDoubleMove = kResults.GetBool("HillsDoubleMove");

	push	OFFSET ??_C@_0BA@OKKIPNCP@HillsDoubleMove?$AA@
	mov	ecx, DWORD PTR _kResults$[ebp]
	call	DWORD PTR __imp_?GetBool@Results@Database@@QAE_NPBD@Z
	mov	ecx, DWORD PTR _this$[ebp]
	mov	BYTE PTR [ecx+806], al

; 231  : 	m_bIgnoreTerrainCost = kResults.GetBool("IgnoreTerrainCost");

	push	OFFSET ??_C@_0BC@PNMBBNHM@IgnoreTerrainCost?$AA@
	mov	ecx, DWORD PTR _kResults$[ebp]
	call	DWORD PTR __imp_?GetBool@Results@Database@@QAE_NPBD@Z
	mov	edx, DWORD PTR _this$[ebp]
	mov	BYTE PTR [edx+807], al

; 232  : 	m_bRoughTerrainEndsTurn = kResults.GetBool("RoughTerrainEndsTurn");

	push	OFFSET ??_C@_0BF@BGJPEPFP@RoughTerrainEndsTurn?$AA@
	mov	ecx, DWORD PTR _kResults$[ebp]
	call	DWORD PTR __imp_?GetBool@Results@Database@@QAE_NPBD@Z
	mov	ecx, DWORD PTR _this$[ebp]
	mov	BYTE PTR [ecx+808], al

; 233  : 	m_bHoveringUnit = kResults.GetBool("HoveringUnit");

	push	OFFSET ??_C@_0N@JEEMILAJ@HoveringUnit?$AA@
	mov	ecx, DWORD PTR _kResults$[ebp]
	call	DWORD PTR __imp_?GetBool@Results@Database@@QAE_NPBD@Z
	mov	edx, DWORD PTR _this$[ebp]
	mov	BYTE PTR [edx+809], al

; 234  : 	m_bFlatMovementCost = kResults.GetBool("FlatMovementCost");

	push	OFFSET ??_C@_0BB@MENGGKPI@FlatMovementCost?$AA@
	mov	ecx, DWORD PTR _kResults$[ebp]
	call	DWORD PTR __imp_?GetBool@Results@Database@@QAE_NPBD@Z
	mov	ecx, DWORD PTR _this$[ebp]
	mov	BYTE PTR [ecx+810], al

; 235  : 	m_bCanMoveImpassable = kResults.GetBool("CanMoveImpassable");

	push	OFFSET ??_C@_0BC@DKMBECGO@CanMoveImpassable?$AA@
	mov	ecx, DWORD PTR _kResults$[ebp]
	call	DWORD PTR __imp_?GetBool@Results@Database@@QAE_NPBD@Z
	mov	edx, DWORD PTR _this$[ebp]
	mov	BYTE PTR [edx+811], al

; 236  : 	m_bNoCapture = kResults.GetBool("NoCapture");

	push	OFFSET ??_C@_09IBGBFEAM@NoCapture?$AA@
	mov	ecx, DWORD PTR _kResults$[ebp]
	call	DWORD PTR __imp_?GetBool@Results@Database@@QAE_NPBD@Z
	mov	ecx, DWORD PTR _this$[ebp]
	mov	BYTE PTR [ecx+812], al

; 237  : 	m_bOnlyDefensive = kResults.GetBool("OnlyDefensive");

	push	OFFSET ??_C@_0O@KJLADANN@OnlyDefensive?$AA@
	mov	ecx, DWORD PTR _kResults$[ebp]
	call	DWORD PTR __imp_?GetBool@Results@Database@@QAE_NPBD@Z
	mov	edx, DWORD PTR _this$[ebp]
	mov	BYTE PTR [edx+813], al

; 238  : 	m_bNoDefensiveBonus = kResults.GetBool("NoDefensiveBonus");

	push	OFFSET ??_C@_0BB@EDEJJMBG@NoDefensiveBonus?$AA@
	mov	ecx, DWORD PTR _kResults$[ebp]
	call	DWORD PTR __imp_?GetBool@Results@Database@@QAE_NPBD@Z
	mov	ecx, DWORD PTR _this$[ebp]
	mov	BYTE PTR [ecx+814], al

; 239  : 	m_bNukeImmune = kResults.GetBool("NukeImmune");

	push	OFFSET ??_C@_0L@EEGCDFDE@NukeImmune?$AA@
	mov	ecx, DWORD PTR _kResults$[ebp]
	call	DWORD PTR __imp_?GetBool@Results@Database@@QAE_NPBD@Z
	mov	edx, DWORD PTR _this$[ebp]
	mov	BYTE PTR [edx+815], al

; 240  : 	m_bHiddenNationality = kResults.GetBool("HiddenNationality");

	push	OFFSET ??_C@_0BC@BPFLKNIK@HiddenNationality?$AA@
	mov	ecx, DWORD PTR _kResults$[ebp]
	call	DWORD PTR __imp_?GetBool@Results@Database@@QAE_NPBD@Z
	mov	ecx, DWORD PTR _this$[ebp]
	mov	BYTE PTR [ecx+816], al

; 241  : 	m_bAlwaysHostile = kResults.GetBool("AlwaysHostile");

	push	OFFSET ??_C@_0O@HNEKEKMA@AlwaysHostile?$AA@
	mov	ecx, DWORD PTR _kResults$[ebp]
	call	DWORD PTR __imp_?GetBool@Results@Database@@QAE_NPBD@Z
	mov	edx, DWORD PTR _this$[ebp]
	mov	BYTE PTR [edx+817], al

; 242  : 	m_bNoRevealMap = kResults.GetBool("NoRevealMap");

	push	OFFSET ??_C@_0M@BGMOEIPJ@NoRevealMap?$AA@
	mov	ecx, DWORD PTR _kResults$[ebp]
	call	DWORD PTR __imp_?GetBool@Results@Database@@QAE_NPBD@Z
	mov	ecx, DWORD PTR _this$[ebp]
	mov	BYTE PTR [ecx+818], al

; 243  : 	m_bRecon = kResults.GetBool("Recon");

	push	OFFSET ??_C@_05MPMPJNEE@Recon?$AA@
	mov	ecx, DWORD PTR _kResults$[ebp]
	call	DWORD PTR __imp_?GetBool@Results@Database@@QAE_NPBD@Z
	mov	edx, DWORD PTR _this$[ebp]
	mov	BYTE PTR [edx+819], al

; 244  : 	m_bCanMoveAllTerrain = kResults.GetBool("CanMoveAllTerrain");

	push	OFFSET ??_C@_0BC@PHIBAHKE@CanMoveAllTerrain?$AA@
	mov	ecx, DWORD PTR _kResults$[ebp]
	call	DWORD PTR __imp_?GetBool@Results@Database@@QAE_NPBD@Z
	mov	ecx, DWORD PTR _this$[ebp]
	mov	BYTE PTR [ecx+820], al

; 245  : 	m_bCanMoveAfterAttacking = kResults.GetBool("CanMoveAfterAttacking");

	push	OFFSET ??_C@_0BG@HJLIJFLF@CanMoveAfterAttacking?$AA@
	mov	ecx, DWORD PTR _kResults$[ebp]
	call	DWORD PTR __imp_?GetBool@Results@Database@@QAE_NPBD@Z
	mov	edx, DWORD PTR _this$[ebp]
	mov	BYTE PTR [edx+821], al

; 246  : 	m_bAirSweepCapable = kResults.GetBool("AirSweepCapable");

	push	OFFSET ??_C@_0BA@EDKILALH@AirSweepCapable?$AA@
	mov	ecx, DWORD PTR _kResults$[ebp]
	call	DWORD PTR __imp_?GetBool@Results@Database@@QAE_NPBD@Z
	mov	ecx, DWORD PTR _this$[ebp]
	mov	BYTE PTR [ecx+822], al

; 247  : 	m_bAllowsEmbarkation = kResults.GetBool("AllowsEmbarkation");

	push	OFFSET ??_C@_0BC@NAOACEFI@AllowsEmbarkation?$AA@
	mov	ecx, DWORD PTR _kResults$[ebp]
	call	DWORD PTR __imp_?GetBool@Results@Database@@QAE_NPBD@Z
	mov	edx, DWORD PTR _this$[ebp]
	mov	BYTE PTR [edx+823], al

; 248  : 	m_bRangeAttackIgnoreLOS = kResults.GetBool("RangeAttackIgnoreLOS");

	push	OFFSET ??_C@_0BF@BPDHCLGM@RangeAttackIgnoreLOS?$AA@
	mov	ecx, DWORD PTR _kResults$[ebp]
	call	DWORD PTR __imp_?GetBool@Results@Database@@QAE_NPBD@Z
	mov	ecx, DWORD PTR _this$[ebp]
	mov	BYTE PTR [ecx+824], al

; 249  : 	m_bFreePillageMoves = kResults.GetBool("FreePillageMoves");

	push	OFFSET ??_C@_0BB@CEEBKLJG@FreePillageMoves?$AA@
	mov	ecx, DWORD PTR _kResults$[ebp]
	call	DWORD PTR __imp_?GetBool@Results@Database@@QAE_NPBD@Z
	mov	edx, DWORD PTR _this$[ebp]
	mov	BYTE PTR [edx+825], al

; 250  : 	m_bHealOnPillage = kResults.GetBool("HealOnPillage");

	push	OFFSET ??_C@_0O@ODCFFJIN@HealOnPillage?$AA@
	mov	ecx, DWORD PTR _kResults$[ebp]
	call	DWORD PTR __imp_?GetBool@Results@Database@@QAE_NPBD@Z
	mov	ecx, DWORD PTR _this$[ebp]
	mov	BYTE PTR [ecx+826], al

; 251  : 	m_bHealIfDefeatExcludesBarbarians = kResults.GetBool("HealIfDestroyExcludesBarbarians");

	push	OFFSET ??_C@_0CA@LIOCFLBJ@HealIfDestroyExcludesBarbarians?$AA@
	mov	ecx, DWORD PTR _kResults$[ebp]
	call	DWORD PTR __imp_?GetBool@Results@Database@@QAE_NPBD@Z
	mov	edx, DWORD PTR _this$[ebp]
	mov	BYTE PTR [edx+827], al

; 252  : 	m_bEmbarkedAllWater = kResults.GetBool("EmbarkedAllWater");

	push	OFFSET ??_C@_0BB@COFEIKJH@EmbarkedAllWater?$AA@
	mov	ecx, DWORD PTR _kResults$[ebp]
	call	DWORD PTR __imp_?GetBool@Results@Database@@QAE_NPBD@Z
	mov	ecx, DWORD PTR _this$[ebp]
	mov	BYTE PTR [ecx+828], al

; 253  : 	m_bCityAttackOnly = kResults.GetBool("CityAttackOnly");

	push	OFFSET ??_C@_0P@CNOCPHIB@CityAttackOnly?$AA@
	mov	ecx, DWORD PTR _kResults$[ebp]
	call	DWORD PTR __imp_?GetBool@Results@Database@@QAE_NPBD@Z
	mov	edx, DWORD PTR _this$[ebp]
	mov	BYTE PTR [edx+829], al

; 254  : 	m_bCaptureDefeatedEnemy = kResults.GetBool("CaptureDefeatedEnemy");

	push	OFFSET ??_C@_0BF@GKCMIFCN@CaptureDefeatedEnemy?$AA@
	mov	ecx, DWORD PTR _kResults$[ebp]
	call	DWORD PTR __imp_?GetBool@Results@Database@@QAE_NPBD@Z
	mov	ecx, DWORD PTR _this$[ebp]
	mov	BYTE PTR [ecx+830], al

; 255  : 	m_bIgnoreGreatGeneralBenefit = kResults.GetBool("IgnoreGreatGeneralBenefit");

	push	OFFSET ??_C@_0BK@NLHKOMPI@IgnoreGreatGeneralBenefit?$AA@
	mov	ecx, DWORD PTR _kResults$[ebp]
	call	DWORD PTR __imp_?GetBool@Results@Database@@QAE_NPBD@Z
	mov	edx, DWORD PTR _this$[ebp]
	mov	BYTE PTR [edx+831], al

; 256  : 	m_bIgnoreZOC = kResults.GetBool("IgnoreZOC");

	push	OFFSET ??_C@_09ONFNLEAB@IgnoreZOC?$AA@
	mov	ecx, DWORD PTR _kResults$[ebp]
	call	DWORD PTR __imp_?GetBool@Results@Database@@QAE_NPBD@Z
	mov	ecx, DWORD PTR _this$[ebp]
	mov	BYTE PTR [ecx+832], al

; 257  : 	m_bHasPostCombatPromotions = kResults.GetBool("HasPostCombatPromotions");

	push	OFFSET ??_C@_0BI@JDLBMOJI@HasPostCombatPromotions?$AA@
	mov	ecx, DWORD PTR _kResults$[ebp]
	call	DWORD PTR __imp_?GetBool@Results@Database@@QAE_NPBD@Z
	mov	edx, DWORD PTR _this$[ebp]
	mov	BYTE PTR [edx+833], al

; 258  : 	m_bPostCombatPromotionsExclusive = kResults.GetBool("PostCombatPromotionsExclusive");

	push	OFFSET ??_C@_0BO@EFNCPIGJ@PostCombatPromotionsExclusive?$AA@
	mov	ecx, DWORD PTR _kResults$[ebp]
	call	DWORD PTR __imp_?GetBool@Results@Database@@QAE_NPBD@Z
	mov	ecx, DWORD PTR _this$[ebp]
	mov	BYTE PTR [ecx+834], al

; 259  : 	m_bSapper = kResults.GetBool("Sapper");

	push	OFFSET ??_C@_06HCPOFNLI@Sapper?$AA@
	mov	ecx, DWORD PTR _kResults$[ebp]
	call	DWORD PTR __imp_?GetBool@Results@Database@@QAE_NPBD@Z
	mov	edx, DWORD PTR _this$[ebp]
	mov	BYTE PTR [edx+835], al

; 260  : 
; 261  : 	// CMP
; 262  : 	const char* szGiveDomain = kResults.GetText("GiveDomain");

	push	OFFSET ??_C@_0L@EKONAALM@GiveDomain?$AA@
	mov	ecx, DWORD PTR _kResults$[ebp]
	call	DWORD PTR __imp_?GetText@Results@Database@@QAEPBDPBD@Z
	mov	DWORD PTR _szGiveDomain$[ebp], eax

; 263  : 	m_iGiveDomain = (DomainTypes)GC.getInfoTypeForString(szGiveDomain, true);

	push	1
	mov	eax, DWORD PTR _szGiveDomain$[ebp]
	push	eax
	mov	ecx, OFFSET ?gGlobals@@3VCvGlobals@@A	; gGlobals
	call	?getInfoTypeForString@CvGlobals@@QBEHPBD_N@Z ; CvGlobals::getInfoTypeForString
	mov	ecx, DWORD PTR _this$[ebp]
	mov	DWORD PTR [ecx+836], eax

; 264  : 	const char* szConvertDomainUnit = kResults.GetText("ConvertDomainUnit");

	push	OFFSET ??_C@_0BC@EJOIAGJF@ConvertDomainUnit?$AA@
	mov	ecx, DWORD PTR _kResults$[ebp]
	call	DWORD PTR __imp_?GetText@Results@Database@@QAEPBDPBD@Z
	mov	DWORD PTR _szConvertDomainUnit$[ebp], eax

; 265  : 	m_iConvertDomainUnit = (UnitTypes)GC.getInfoTypeForString(szConvertDomainUnit, true);

	push	1
	mov	edx, DWORD PTR _szConvertDomainUnit$[ebp]
	push	edx
	mov	ecx, OFFSET ?gGlobals@@3VCvGlobals@@A	; gGlobals
	call	?getInfoTypeForString@CvGlobals@@QBEHPBD_N@Z ; CvGlobals::getInfoTypeForString
	mov	ecx, DWORD PTR _this$[ebp]
	mov	DWORD PTR [ecx+840], eax

; 266  : 	const char* szConvertDomain = kResults.GetText("ConvertDomain");

	push	OFFSET ??_C@_0O@DLMMLOCL@ConvertDomain?$AA@
	mov	ecx, DWORD PTR _kResults$[ebp]
	call	DWORD PTR __imp_?GetText@Results@Database@@QAEPBDPBD@Z
	mov	DWORD PTR _szConvertDomain$[ebp], eax

; 267  : 	m_iConvertDomain = (DomainTypes)GC.getInfoTypeForString(szConvertDomain, true);

	push	1
	mov	edx, DWORD PTR _szConvertDomain$[ebp]
	push	edx
	mov	ecx, OFFSET ?gGlobals@@3VCvGlobals@@A	; gGlobals
	call	?getInfoTypeForString@CvGlobals@@QBEHPBD_N@Z ; CvGlobals::getInfoTypeForString
	mov	ecx, DWORD PTR _this$[ebp]
	mov	DWORD PTR [ecx+844], eax

; 268  : 	//
; 269  : 
; 270  : 	m_bCanHeavyCharge = kResults.GetBool("HeavyCharge");

	push	OFFSET ??_C@_0M@DMHHALDA@HeavyCharge?$AA@
	mov	ecx, DWORD PTR _kResults$[ebp]
	call	DWORD PTR __imp_?GetBool@Results@Database@@QAE_NPBD@Z
	mov	edx, DWORD PTR _this$[ebp]
	mov	BYTE PTR [edx+848], al

; 271  : #ifdef NQ_HEAVY_CHARGE_DOWNHILL
; 272  : 	m_iHeavyChargeDownhill = kResults.GetInt("HeavyChargeDownhill");

	push	OFFSET ??_C@_0BE@DFBJNAA@HeavyChargeDownhill?$AA@
	mov	ecx, DWORD PTR _kResults$[ebp]
	call	DWORD PTR __imp_?GetInt@Results@Database@@QAEHPBD@Z
	mov	ecx, DWORD PTR _this$[ebp]
	mov	DWORD PTR [ecx+852], eax

; 273  : #endif
; 274  : 
; 275  : 	m_iVisibilityChange = kResults.GetInt("VisibilityChange");

	push	OFFSET ??_C@_0BB@DGGHCNE@VisibilityChange?$AA@
	mov	ecx, DWORD PTR _kResults$[ebp]
	call	DWORD PTR __imp_?GetInt@Results@Database@@QAEHPBD@Z
	mov	edx, DWORD PTR _this$[ebp]
	mov	DWORD PTR [edx+520], eax

; 276  : 	m_iMovesChange = kResults.GetInt("MovesChange");

	push	OFFSET ??_C@_0M@JNELDEGO@MovesChange?$AA@
	mov	ecx, DWORD PTR _kResults$[ebp]
	call	DWORD PTR __imp_?GetInt@Results@Database@@QAEHPBD@Z
	mov	ecx, DWORD PTR _this$[ebp]
	mov	DWORD PTR [ecx+524], eax

; 277  : 	m_iMoveDiscountChange = kResults.GetInt("MoveDiscountChange");

	push	OFFSET ??_C@_0BD@CAAMFILH@MoveDiscountChange?$AA@
	mov	ecx, DWORD PTR _kResults$[ebp]
	call	DWORD PTR __imp_?GetInt@Results@Database@@QAEHPBD@Z
	mov	edx, DWORD PTR _this$[ebp]
	mov	DWORD PTR [edx+528], eax

; 278  : 	m_iRangeChange = kResults.GetInt("RangeChange");

	push	OFFSET ??_C@_0M@BBOKLMND@RangeChange?$AA@
	mov	ecx, DWORD PTR _kResults$[ebp]
	call	DWORD PTR __imp_?GetInt@Results@Database@@QAEHPBD@Z
	mov	ecx, DWORD PTR _this$[ebp]
	mov	DWORD PTR [ecx+532], eax

; 279  : 	m_iRangedAttackModifier = kResults.GetInt("RangedAttackModifier");

	push	OFFSET ??_C@_0BF@OAGDHGKL@RangedAttackModifier?$AA@
	mov	ecx, DWORD PTR _kResults$[ebp]
	call	DWORD PTR __imp_?GetInt@Results@Database@@QAEHPBD@Z
	mov	edx, DWORD PTR _this$[ebp]
	mov	DWORD PTR [edx+536], eax

; 280  : 	m_iInterceptionCombatModifier = kResults.GetInt("InterceptionCombatModifier");

	push	OFFSET ??_C@_0BL@FGOMGGGH@InterceptionCombatModifier?$AA@
	mov	ecx, DWORD PTR _kResults$[ebp]
	call	DWORD PTR __imp_?GetInt@Results@Database@@QAEHPBD@Z
	mov	ecx, DWORD PTR _this$[ebp]
	mov	DWORD PTR [ecx+540], eax

; 281  : 	m_iInterceptionDefenseDamageModifier = kResults.GetInt("InterceptionDefenseDamageModifier");

	push	OFFSET ??_C@_0CC@GCFBADFM@InterceptionDefenseDamageModifie@
	mov	ecx, DWORD PTR _kResults$[ebp]
	call	DWORD PTR __imp_?GetInt@Results@Database@@QAEHPBD@Z
	mov	edx, DWORD PTR _this$[ebp]
	mov	DWORD PTR [edx+544], eax

; 282  : 	m_iAirSweepCombatModifier = kResults.GetInt("AirSweepCombatModifier");

	push	OFFSET ??_C@_0BH@LHPCCLAF@AirSweepCombatModifier?$AA@
	mov	ecx, DWORD PTR _kResults$[ebp]
	call	DWORD PTR __imp_?GetInt@Results@Database@@QAEHPBD@Z
	mov	ecx, DWORD PTR _this$[ebp]
	mov	DWORD PTR [ecx+548], eax

; 283  : 	m_iInterceptChanceChange = kResults.GetInt("InterceptChanceChange");

	push	OFFSET ??_C@_0BG@DLANFOAL@InterceptChanceChange?$AA@
	mov	ecx, DWORD PTR _kResults$[ebp]
	call	DWORD PTR __imp_?GetInt@Results@Database@@QAEHPBD@Z
	mov	edx, DWORD PTR _this$[ebp]
	mov	DWORD PTR [edx+552], eax

; 284  : 	m_iNumInterceptionChange = kResults.GetInt("NumInterceptionChange");

	push	OFFSET ??_C@_0BG@KECHKNBB@NumInterceptionChange?$AA@
	mov	ecx, DWORD PTR _kResults$[ebp]
	call	DWORD PTR __imp_?GetInt@Results@Database@@QAEHPBD@Z
	mov	ecx, DWORD PTR _this$[ebp]
	mov	DWORD PTR [ecx+556], eax

; 285  : 	m_iEvasionChange = kResults.GetInt("EvasionChange");

	push	OFFSET ??_C@_0O@PFMMAFHH@EvasionChange?$AA@
	mov	ecx, DWORD PTR _kResults$[ebp]
	call	DWORD PTR __imp_?GetInt@Results@Database@@QAEHPBD@Z
	mov	edx, DWORD PTR _this$[ebp]
	mov	DWORD PTR [edx+560], eax

; 286  : 	m_iCargoChange = kResults.GetInt("CargoChange");

	push	OFFSET ??_C@_0M@CKAFGAOO@CargoChange?$AA@
	mov	ecx, DWORD PTR _kResults$[ebp]
	call	DWORD PTR __imp_?GetInt@Results@Database@@QAEHPBD@Z
	mov	ecx, DWORD PTR _this$[ebp]
	mov	DWORD PTR [ecx+564], eax

; 287  : 	m_iEnemyHealChange = kResults.GetInt("EnemyHealChange");

	push	OFFSET ??_C@_0BA@DMIIELAF@EnemyHealChange?$AA@
	mov	ecx, DWORD PTR _kResults$[ebp]
	call	DWORD PTR __imp_?GetInt@Results@Database@@QAEHPBD@Z
	mov	edx, DWORD PTR _this$[ebp]
	mov	DWORD PTR [edx+568], eax

; 288  : 	m_iNeutralHealChange = kResults.GetInt("NeutralHealChange");

	push	OFFSET ??_C@_0BC@EMMIAEHH@NeutralHealChange?$AA@
	mov	ecx, DWORD PTR _kResults$[ebp]
	call	DWORD PTR __imp_?GetInt@Results@Database@@QAEHPBD@Z
	mov	ecx, DWORD PTR _this$[ebp]
	mov	DWORD PTR [ecx+572], eax

; 289  : 	m_iFriendlyHealChange = kResults.GetInt("FriendlyHealChange");

	push	OFFSET ??_C@_0BD@FDKGEBJC@FriendlyHealChange?$AA@
	mov	ecx, DWORD PTR _kResults$[ebp]
	call	DWORD PTR __imp_?GetInt@Results@Database@@QAEHPBD@Z
	mov	edx, DWORD PTR _this$[ebp]
	mov	DWORD PTR [edx+576], eax

; 290  : 	m_iSameTileHealChange = kResults.GetInt("SameTileHealChange");

	push	OFFSET ??_C@_0BD@NMADFNHG@SameTileHealChange?$AA@
	mov	ecx, DWORD PTR _kResults$[ebp]
	call	DWORD PTR __imp_?GetInt@Results@Database@@QAEHPBD@Z
	mov	ecx, DWORD PTR _this$[ebp]
	mov	DWORD PTR [ecx+580], eax

; 291  : 	m_iAdjacentTileHealChange = kResults.GetInt("AdjacentTileHealChange");

	push	OFFSET ??_C@_0BH@DJKFKEFH@AdjacentTileHealChange?$AA@
	mov	ecx, DWORD PTR _kResults$[ebp]
	call	DWORD PTR __imp_?GetInt@Results@Database@@QAEHPBD@Z
	mov	edx, DWORD PTR _this$[ebp]
	mov	DWORD PTR [edx+584], eax

; 292  : 	m_iEnemyDamageChance = kResults.GetInt("EnemyDamageChance");

	push	OFFSET ??_C@_0BC@DKBIFOMK@EnemyDamageChance?$AA@
	mov	ecx, DWORD PTR _kResults$[ebp]
	call	DWORD PTR __imp_?GetInt@Results@Database@@QAEHPBD@Z
	mov	ecx, DWORD PTR _this$[ebp]
	mov	DWORD PTR [ecx+588], eax

; 293  : 	m_iNeutralDamageChance = kResults.GetInt("NeutralDamageChance");

	push	OFFSET ??_C@_0BE@MBHCGJPP@NeutralDamageChance?$AA@
	mov	ecx, DWORD PTR _kResults$[ebp]
	call	DWORD PTR __imp_?GetInt@Results@Database@@QAEHPBD@Z
	mov	edx, DWORD PTR _this$[ebp]
	mov	DWORD PTR [edx+592], eax

; 294  : 	m_iEnemyDamage = kResults.GetInt("EnemyDamage");

	push	OFFSET ??_C@_0M@MDHDILHK@EnemyDamage?$AA@
	mov	ecx, DWORD PTR _kResults$[ebp]
	call	DWORD PTR __imp_?GetInt@Results@Database@@QAEHPBD@Z
	mov	ecx, DWORD PTR _this$[ebp]
	mov	DWORD PTR [ecx+596], eax

; 295  : 	m_iNeutralDamage = kResults.GetInt("NeutralDamage");

	push	OFFSET ??_C@_0O@LPIOADGP@NeutralDamage?$AA@
	mov	ecx, DWORD PTR _kResults$[ebp]
	call	DWORD PTR __imp_?GetInt@Results@Database@@QAEHPBD@Z
	mov	edx, DWORD PTR _this$[ebp]
	mov	DWORD PTR [edx+600], eax

; 296  : 	m_iCombatPercent = kResults.GetInt("CombatPercent");

	push	OFFSET ??_C@_0O@GACIIML@CombatPercent?$AA@
	mov	ecx, DWORD PTR _kResults$[ebp]
	call	DWORD PTR __imp_?GetInt@Results@Database@@QAEHPBD@Z
	mov	ecx, DWORD PTR _this$[ebp]
	mov	DWORD PTR [ecx+604], eax

; 297  : 	m_iCityAttackPercent = kResults.GetInt("CityAttack");

	push	OFFSET ??_C@_0L@NJOPCGED@CityAttack?$AA@
	mov	ecx, DWORD PTR _kResults$[ebp]
	call	DWORD PTR __imp_?GetInt@Results@Database@@QAEHPBD@Z
	mov	edx, DWORD PTR _this$[ebp]
	mov	DWORD PTR [edx+608], eax

; 298  : 	m_iCityDefensePercent = kResults.GetInt("CityDefense");

	push	OFFSET ??_C@_0M@CFAONGLF@CityDefense?$AA@
	mov	ecx, DWORD PTR _kResults$[ebp]
	call	DWORD PTR __imp_?GetInt@Results@Database@@QAEHPBD@Z
	mov	ecx, DWORD PTR _this$[ebp]
	mov	DWORD PTR [ecx+612], eax

; 299  : 	m_iRangedDefenseMod = kResults.GetInt("RangedDefenseMod");

	push	OFFSET ??_C@_0BB@ILGDNJED@RangedDefenseMod?$AA@
	mov	ecx, DWORD PTR _kResults$[ebp]
	call	DWORD PTR __imp_?GetInt@Results@Database@@QAEHPBD@Z
	mov	edx, DWORD PTR _this$[ebp]
	mov	DWORD PTR [edx+616], eax

; 300  : 	m_iHillsAttackPercent = kResults.GetInt("HillsAttack");

	push	OFFSET ??_C@_0M@PLBAHAHI@HillsAttack?$AA@
	mov	ecx, DWORD PTR _kResults$[ebp]
	call	DWORD PTR __imp_?GetInt@Results@Database@@QAEHPBD@Z
	mov	ecx, DWORD PTR _this$[ebp]
	mov	DWORD PTR [ecx+620], eax

; 301  : 	m_iHillsDefensePercent = kResults.GetInt("HillsDefense");

	push	OFFSET ??_C@_0N@JECHMAMH@HillsDefense?$AA@
	mov	ecx, DWORD PTR _kResults$[ebp]
	call	DWORD PTR __imp_?GetInt@Results@Database@@QAEHPBD@Z
	mov	edx, DWORD PTR _this$[ebp]
	mov	DWORD PTR [edx+624], eax

; 302  : 	m_iOpenAttackPercent = kResults.GetInt("OpenAttack");

	push	OFFSET ??_C@_0L@MFILHAKG@OpenAttack?$AA@
	mov	ecx, DWORD PTR _kResults$[ebp]
	call	DWORD PTR __imp_?GetInt@Results@Database@@QAEHPBD@Z
	mov	ecx, DWORD PTR _this$[ebp]
	mov	DWORD PTR [ecx+628], eax

; 303  : 	m_iOpenRangedAttackMod = kResults.GetInt("OpenRangedAttackMod");

	push	OFFSET ??_C@_0BE@LCHPCHNH@OpenRangedAttackMod?$AA@
	mov	ecx, DWORD PTR _kResults$[ebp]
	call	DWORD PTR __imp_?GetInt@Results@Database@@QAEHPBD@Z
	mov	edx, DWORD PTR _this$[ebp]
	mov	DWORD PTR [edx+632], eax

; 304  : 	m_iRoughAttackPercent = kResults.GetInt("RoughAttack");

	push	OFFSET ??_C@_0M@INLFKGCE@RoughAttack?$AA@
	mov	ecx, DWORD PTR _kResults$[ebp]
	call	DWORD PTR __imp_?GetInt@Results@Database@@QAEHPBD@Z
	mov	ecx, DWORD PTR _this$[ebp]
	mov	DWORD PTR [ecx+636], eax

; 305  : 	m_iRoughRangedAttackMod = kResults.GetInt("RoughRangedAttackMod");

	push	OFFSET ??_C@_0BF@CBPJCGIL@RoughRangedAttackMod?$AA@
	mov	ecx, DWORD PTR _kResults$[ebp]
	call	DWORD PTR __imp_?GetInt@Results@Database@@QAEHPBD@Z
	mov	edx, DWORD PTR _this$[ebp]
	mov	DWORD PTR [edx+640], eax

; 306  : 	m_iAttackFortifiedMod = kResults.GetInt("AttackFortifiedMod");

	push	OFFSET ??_C@_0BD@JECJHOEK@AttackFortifiedMod?$AA@
	mov	ecx, DWORD PTR _kResults$[ebp]
	call	DWORD PTR __imp_?GetInt@Results@Database@@QAEHPBD@Z
	mov	ecx, DWORD PTR _this$[ebp]
	mov	DWORD PTR [ecx+644], eax

; 307  : 	m_iAttackWoundedMod = kResults.GetInt("AttackWoundedMod");

	push	OFFSET ??_C@_0BB@POIGNGOI@AttackWoundedMod?$AA@
	mov	ecx, DWORD PTR _kResults$[ebp]
	call	DWORD PTR __imp_?GetInt@Results@Database@@QAEHPBD@Z
	mov	edx, DWORD PTR _this$[ebp]
	mov	DWORD PTR [edx+648], eax

; 308  : 	m_iFlankAttackModifier = kResults.GetInt("FlankAttackModifier");

	push	OFFSET ??_C@_0BE@EPGDEJAB@FlankAttackModifier?$AA@
	mov	ecx, DWORD PTR _kResults$[ebp]
	call	DWORD PTR __imp_?GetInt@Results@Database@@QAEHPBD@Z
	mov	ecx, DWORD PTR _this$[ebp]
	mov	DWORD PTR [ecx+652], eax

; 309  : 	m_iNearbyEnemyCombatMod = kResults.GetInt("NearbyEnemyCombatMod");

	push	OFFSET ??_C@_0BF@JDDHJBMK@NearbyEnemyCombatMod?$AA@
	mov	ecx, DWORD PTR _kResults$[ebp]
	call	DWORD PTR __imp_?GetInt@Results@Database@@QAEHPBD@Z
	mov	edx, DWORD PTR _this$[ebp]
	mov	DWORD PTR [edx+656], eax

; 310  : 	m_iNearbyEnemyCombatRange = kResults.GetInt("NearbyEnemyCombatRange");

	push	OFFSET ??_C@_0BH@MBACKDCN@NearbyEnemyCombatRange?$AA@
	mov	ecx, DWORD PTR _kResults$[ebp]
	call	DWORD PTR __imp_?GetInt@Results@Database@@QAEHPBD@Z
	mov	ecx, DWORD PTR _this$[ebp]
	mov	DWORD PTR [ecx+660], eax

; 311  : 	m_iOpenDefensePercent = kResults.GetInt("OpenDefense");

	push	OFFSET ??_C@_0M@PFHCKEBE@OpenDefense?$AA@
	mov	ecx, DWORD PTR _kResults$[ebp]
	call	DWORD PTR __imp_?GetInt@Results@Database@@QAEHPBD@Z
	mov	edx, DWORD PTR _this$[ebp]
	mov	DWORD PTR [edx+664], eax

; 312  : 	m_iRoughDefensePercent = kResults.GetInt("RoughDefense");

	push	OFFSET ??_C@_0N@PGIMHIMO@RoughDefense?$AA@
	mov	ecx, DWORD PTR _kResults$[ebp]
	call	DWORD PTR __imp_?GetInt@Results@Database@@QAEHPBD@Z
	mov	ecx, DWORD PTR _this$[ebp]
	mov	DWORD PTR [ecx+668], eax

; 313  : 	m_iExtraAttacks = kResults.GetInt("ExtraAttacks");

	push	OFFSET ??_C@_0N@CFMCPMIE@ExtraAttacks?$AA@
	mov	ecx, DWORD PTR _kResults$[ebp]
	call	DWORD PTR __imp_?GetInt@Results@Database@@QAEHPBD@Z
	mov	edx, DWORD PTR _this$[ebp]
	mov	DWORD PTR [edx+672], eax

; 314  : 	m_bGreatGeneral = kResults.GetBool("GreatGeneral");

	push	OFFSET ??_C@_0N@JCHMCFAC@GreatGeneral?$AA@
	mov	ecx, DWORD PTR _kResults$[ebp]
	call	DWORD PTR __imp_?GetBool@Results@Database@@QAE_NPBD@Z
	mov	ecx, DWORD PTR _this$[ebp]
	mov	BYTE PTR [ecx+676], al

; 315  : 	m_bGreatAdmiral = kResults.GetBool("GreatAdmiral");

	push	OFFSET ??_C@_0N@LBAALIJO@GreatAdmiral?$AA@
	mov	ecx, DWORD PTR _kResults$[ebp]
	call	DWORD PTR __imp_?GetBool@Results@Database@@QAE_NPBD@Z
	mov	edx, DWORD PTR _this$[ebp]
	mov	BYTE PTR [edx+677], al

; 316  : 	m_iGreatGeneralModifier = kResults.GetInt("GreatGeneralModifier");

	push	OFFSET ??_C@_0BF@HNNLOAHE@GreatGeneralModifier?$AA@
	mov	ecx, DWORD PTR _kResults$[ebp]
	call	DWORD PTR __imp_?GetInt@Results@Database@@QAEHPBD@Z
	mov	ecx, DWORD PTR _this$[ebp]
	mov	DWORD PTR [ecx+680], eax

; 317  : 	m_bGreatGeneralReceivesMovement = kResults.GetBool("GreatGeneralReceivesMovement");

	push	OFFSET ??_C@_0BN@OFHMHAHA@GreatGeneralReceivesMovement?$AA@
	mov	ecx, DWORD PTR _kResults$[ebp]
	call	DWORD PTR __imp_?GetBool@Results@Database@@QAE_NPBD@Z
	mov	edx, DWORD PTR _this$[ebp]
	mov	BYTE PTR [edx+684], al

; 318  : 	m_bEmbarkedUnitReceivesMovement = kResults.GetBool("EmbarkedUnitReceivesMovement"); // NQMP GJS - Danish Longship

	push	OFFSET ??_C@_0BN@IFMFNPAD@EmbarkedUnitReceivesMovement?$AA@
	mov	ecx, DWORD PTR _kResults$[ebp]
	call	DWORD PTR __imp_?GetBool@Results@Database@@QAE_NPBD@Z
	mov	ecx, DWORD PTR _this$[ebp]
	mov	BYTE PTR [ecx+685], al

; 319  : #ifdef NQ_ART_OF_WAR_PROMOTION
; 320  : 	m_iGreatGeneralOnOrAdjacentConfersMovement = kResults.GetInt("GreatGeneralOnOrAdjacentConfersMovement");

	push	OFFSET ??_C@_0CI@KNAJAFGK@GreatGeneralOnOrAdjacentConfersM@
	mov	ecx, DWORD PTR _kResults$[ebp]
	call	DWORD PTR __imp_?GetInt@Results@Database@@QAEHPBD@Z
	mov	edx, DWORD PTR _this$[ebp]
	mov	DWORD PTR [edx+688], eax

; 321  : #endif
; 322  : 	m_iGreatGeneralCombatModifier = kResults.GetInt("GreatGeneralCombatModifier");

	push	OFFSET ??_C@_0BL@HINIPOCF@GreatGeneralCombatModifier?$AA@
	mov	ecx, DWORD PTR _kResults$[ebp]
	call	DWORD PTR __imp_?GetInt@Results@Database@@QAEHPBD@Z
	mov	ecx, DWORD PTR _this$[ebp]
	mov	DWORD PTR [ecx+692], eax

; 323  : 	m_iFriendlyLandsModifier = kResults.GetInt("FriendlyLandsModifier");

	push	OFFSET ??_C@_0BG@EAPMDGND@FriendlyLandsModifier?$AA@
	mov	ecx, DWORD PTR _kResults$[ebp]
	call	DWORD PTR __imp_?GetInt@Results@Database@@QAEHPBD@Z
	mov	edx, DWORD PTR _this$[ebp]
	mov	DWORD PTR [edx+696], eax

; 324  : 	m_iFriendlyLandsAttackModifier = kResults.GetInt("FriendlyLandsAttackModifier");

	push	OFFSET ??_C@_0BM@CAOLBPLI@FriendlyLandsAttackModifier?$AA@
	mov	ecx, DWORD PTR _kResults$[ebp]
	call	DWORD PTR __imp_?GetInt@Results@Database@@QAEHPBD@Z
	mov	ecx, DWORD PTR _this$[ebp]
	mov	DWORD PTR [ecx+700], eax

; 325  : 	m_iOutsideFriendlyLandsModifier = kResults.GetInt("OutsideFriendlyLandsModifier");

	push	OFFSET ??_C@_0BN@BDINMCNK@OutsideFriendlyLandsModifier?$AA@
	mov	ecx, DWORD PTR _kResults$[ebp]
	call	DWORD PTR __imp_?GetInt@Results@Database@@QAEHPBD@Z
	mov	edx, DWORD PTR _this$[ebp]
	mov	DWORD PTR [edx+704], eax

; 326  : #ifdef NQ_GOLDEN_AGE_FOREIGN_ATTACK_BONUS
; 327  : 	m_iGoldenAgeForeignAttackBonus = kResults.GetInt("GoldenAgeForeignAttackBonus");

	push	OFFSET ??_C@_0BM@JMHDEKOL@GoldenAgeForeignAttackBonus?$AA@
	mov	ecx, DWORD PTR _kResults$[ebp]
	call	DWORD PTR __imp_?GetInt@Results@Database@@QAEHPBD@Z
	mov	ecx, DWORD PTR _this$[ebp]
	mov	DWORD PTR [ecx+708], eax

; 328  : #endif
; 329  : #ifdef NQ_COMBAT_STRENGTH_NEAR_FRIENDLY_MINOR
; 330  : 	m_iCombatStrengthNearFriendlyMinor = kResults.GetInt("CombatStrengthNearFriendlyMinor");

	push	OFFSET ??_C@_0CA@NCPBFGAA@CombatStrengthNearFriendlyMinor?$AA@
	mov	ecx, DWORD PTR _kResults$[ebp]
	call	DWORD PTR __imp_?GetInt@Results@Database@@QAEHPBD@Z
	mov	edx, DWORD PTR _this$[ebp]
	mov	DWORD PTR [edx+712], eax

; 331  : #endif
; 332  : 	m_iUpgradeDiscount = kResults.GetInt("UpgradeDiscount");

	push	OFFSET ??_C@_0BA@KBDHCJII@UpgradeDiscount?$AA@
	mov	ecx, DWORD PTR _kResults$[ebp]
	call	DWORD PTR __imp_?GetInt@Results@Database@@QAEHPBD@Z
	mov	ecx, DWORD PTR _this$[ebp]
	mov	DWORD PTR [ecx+720], eax

; 333  : 	m_iExperiencePercent = kResults.GetInt("ExperiencePercent");

	push	OFFSET ??_C@_0BC@OHMKPOHD@ExperiencePercent?$AA@
	mov	ecx, DWORD PTR _kResults$[ebp]
	call	DWORD PTR __imp_?GetInt@Results@Database@@QAEHPBD@Z
	mov	edx, DWORD PTR _this$[ebp]
	mov	DWORD PTR [edx+724], eax

; 334  : 	m_iAdjacentMod = kResults.GetInt("AdjacentMod");

	push	OFFSET ??_C@_0M@NABOGIIK@AdjacentMod?$AA@
	mov	ecx, DWORD PTR _kResults$[ebp]
	call	DWORD PTR __imp_?GetInt@Results@Database@@QAEHPBD@Z
	mov	ecx, DWORD PTR _this$[ebp]
	mov	DWORD PTR [ecx+728], eax

; 335  : 	m_iAttackMod = kResults.GetInt("AttackMod");

	push	OFFSET ??_C@_09IOHPCIAD@AttackMod?$AA@
	mov	ecx, DWORD PTR _kResults$[ebp]
	call	DWORD PTR __imp_?GetInt@Results@Database@@QAEHPBD@Z
	mov	edx, DWORD PTR _this$[ebp]
	mov	DWORD PTR [edx+732], eax

; 336  : 	m_iDefenseMod = kResults.GetInt("DefenseMod");

	push	OFFSET ??_C@_0L@FONMKPAP@DefenseMod?$AA@
	mov	ecx, DWORD PTR _kResults$[ebp]
	call	DWORD PTR __imp_?GetInt@Results@Database@@QAEHPBD@Z
	mov	ecx, DWORD PTR _this$[ebp]
	mov	DWORD PTR [ecx+736], eax

; 337  : 	m_iDropRange = kResults.GetInt("DropRange");

	push	OFFSET ??_C@_09NLCNIMEK@DropRange?$AA@
	mov	ecx, DWORD PTR _kResults$[ebp]
	call	DWORD PTR __imp_?GetInt@Results@Database@@QAEHPBD@Z
	mov	edx, DWORD PTR _this$[ebp]
	mov	DWORD PTR [edx+740], eax

; 338  : 	m_iExtraNavalMoves = kResults.GetInt("ExtraNavalMovement");

	push	OFFSET ??_C@_0BD@GBJFGHJJ@ExtraNavalMovement?$AA@
	mov	ecx, DWORD PTR _kResults$[ebp]
	call	DWORD PTR __imp_?GetInt@Results@Database@@QAEHPBD@Z
	mov	ecx, DWORD PTR _this$[ebp]
	mov	DWORD PTR [ecx+744], eax

; 339  : 	m_iHPHealedIfDefeatEnemy = kResults.GetInt("HPHealedIfDestroyEnemy");

	push	OFFSET ??_C@_0BH@OLKNAHBI@HPHealedIfDestroyEnemy?$AA@
	mov	ecx, DWORD PTR _kResults$[ebp]
	call	DWORD PTR __imp_?GetInt@Results@Database@@QAEHPBD@Z
	mov	edx, DWORD PTR _this$[ebp]
	mov	DWORD PTR [edx+748], eax

; 340  : 	m_iGoldenAgeValueFromKills = kResults.GetInt("GoldenAgeValueFromKills");

	push	OFFSET ??_C@_0BI@INKCACCN@GoldenAgeValueFromKills?$AA@
	mov	ecx, DWORD PTR _kResults$[ebp]
	call	DWORD PTR __imp_?GetInt@Results@Database@@QAEHPBD@Z
	mov	ecx, DWORD PTR _this$[ebp]
	mov	DWORD PTR [ecx+752], eax

; 341  : 	m_iExtraWithdrawal = kResults.GetInt("ExtraWithdrawal");

	push	OFFSET ??_C@_0BA@CNOIBFAJ@ExtraWithdrawal?$AA@
	mov	ecx, DWORD PTR _kResults$[ebp]
	call	DWORD PTR __imp_?GetInt@Results@Database@@QAEHPBD@Z
	mov	edx, DWORD PTR _this$[ebp]
	mov	DWORD PTR [edx+756], eax

; 342  : 	m_iEmbarkExtraVisibility = kResults.GetInt("EmbarkExtraVisibility");

	push	OFFSET ??_C@_0BG@HGLIOLIM@EmbarkExtraVisibility?$AA@
	mov	ecx, DWORD PTR _kResults$[ebp]
	call	DWORD PTR __imp_?GetInt@Results@Database@@QAEHPBD@Z
	mov	ecx, DWORD PTR _this$[ebp]
	mov	DWORD PTR [ecx+760], eax

; 343  : 	m_iEmbarkDefenseModifier = kResults.GetInt("EmbarkDefenseModifier");

	push	OFFSET ??_C@_0BG@EGJLLMKH@EmbarkDefenseModifier?$AA@
	mov	ecx, DWORD PTR _kResults$[ebp]
	call	DWORD PTR __imp_?GetInt@Results@Database@@QAEHPBD@Z
	mov	edx, DWORD PTR _this$[ebp]
	mov	DWORD PTR [edx+764], eax

; 344  : 	m_iCapitalDefenseModifier = kResults.GetInt("CapitalDefenseModifier");

	push	OFFSET ??_C@_0BH@CDDLEEIL@CapitalDefenseModifier?$AA@
	mov	ecx, DWORD PTR _kResults$[ebp]
	call	DWORD PTR __imp_?GetInt@Results@Database@@QAEHPBD@Z
	mov	ecx, DWORD PTR _this$[ebp]
	mov	DWORD PTR [ecx+768], eax

; 345  : 	m_iCapitalDefenseFalloff = kResults.GetInt("CapitalDefenseFalloff");

	push	OFFSET ??_C@_0BG@CILHBFIF@CapitalDefenseFalloff?$AA@
	mov	ecx, DWORD PTR _kResults$[ebp]
	call	DWORD PTR __imp_?GetInt@Results@Database@@QAEHPBD@Z
	mov	edx, DWORD PTR _this$[ebp]
	mov	DWORD PTR [edx+772], eax

; 346  : 	m_iCityAttackPlunderModifier = kResults.GetInt("CityAttackPlunderModifier");

	push	OFFSET ??_C@_0BK@HOKBFIJO@CityAttackPlunderModifier?$AA@
	mov	ecx, DWORD PTR _kResults$[ebp]
	call	DWORD PTR __imp_?GetInt@Results@Database@@QAEHPBD@Z
	mov	ecx, DWORD PTR _this$[ebp]
	mov	DWORD PTR [ecx+776], eax

; 347  : 	m_iReligiousStrengthLossRivalTerritory = kResults.GetInt("ReligiousStrengthLossRivalTerritory");

	push	OFFSET ??_C@_0CE@BJMPMIKG@ReligiousStrengthLossRivalTerrit@
	mov	ecx, DWORD PTR _kResults$[ebp]
	call	DWORD PTR __imp_?GetInt@Results@Database@@QAEHPBD@Z
	mov	edx, DWORD PTR _this$[ebp]
	mov	DWORD PTR [edx+780], eax

; 348  : 	m_iTradeMissionInfluenceModifier = kResults.GetInt("TradeMissionInfluenceModifier");

	push	OFFSET ??_C@_0BO@JKAGNMLN@TradeMissionInfluenceModifier?$AA@
	mov	ecx, DWORD PTR _kResults$[ebp]
	call	DWORD PTR __imp_?GetInt@Results@Database@@QAEHPBD@Z
	mov	ecx, DWORD PTR _this$[ebp]
	mov	DWORD PTR [ecx+784], eax

; 349  : 	m_iTradeMissionGoldModifier = kResults.GetInt("TradeMissionGoldModifier");

	push	OFFSET ??_C@_0BJ@OGAAKMBL@TradeMissionGoldModifier?$AA@
	mov	ecx, DWORD PTR _kResults$[ebp]
	call	DWORD PTR __imp_?GetInt@Results@Database@@QAEHPBD@Z
	mov	edx, DWORD PTR _this$[ebp]
	mov	DWORD PTR [edx+788], eax

; 350  : 
; 351  : 	//References
; 352  : 	const char* szLayerAnimationPath = kResults.GetText("LayerAnimationPath");

	push	OFFSET ??_C@_0BD@DIOMOCAM@LayerAnimationPath?$AA@
	mov	ecx, DWORD PTR _kResults$[ebp]
	call	DWORD PTR __imp_?GetText@Results@Database@@QAEPBDPBD@Z
	mov	DWORD PTR _szLayerAnimationPath$[ebp], eax

; 353  : 	m_iLayerAnimationPath = GC.getInfoTypeForString(szLayerAnimationPath, true);

	push	1
	mov	eax, DWORD PTR _szLayerAnimationPath$[ebp]
	push	eax
	mov	ecx, OFFSET ?gGlobals@@3VCvGlobals@@A	; gGlobals
	call	?getInfoTypeForString@CvGlobals@@QBEHPBD_N@Z ; CvGlobals::getInfoTypeForString
	mov	ecx, DWORD PTR _this$[ebp]
	mov	DWORD PTR [ecx+460], eax

; 354  : 
; 355  : 	const char* szTechPrereq = kResults.GetText("TechPrereq");

	push	OFFSET ??_C@_0L@IANCLNMF@TechPrereq?$AA@
	mov	ecx, DWORD PTR _kResults$[ebp]
	call	DWORD PTR __imp_?GetText@Results@Database@@QAEPBDPBD@Z
	mov	DWORD PTR _szTechPrereq$[ebp], eax

; 356  : 	m_iTechPrereq = GC.getInfoTypeForString(szTechPrereq, true);

	push	1
	mov	edx, DWORD PTR _szTechPrereq$[ebp]
	push	edx
	mov	ecx, OFFSET ?gGlobals@@3VCvGlobals@@A	; gGlobals
	call	?getInfoTypeForString@CvGlobals@@QBEHPBD_N@Z ; CvGlobals::getInfoTypeForString
	mov	ecx, DWORD PTR _this$[ebp]
	mov	DWORD PTR [ecx+508], eax

; 357  : 
; 358  : 	const char* szInvisible = kResults.GetText("Invisible");

	push	OFFSET ??_C@_09EPJGIIIJ@Invisible?$AA@
	mov	ecx, DWORD PTR _kResults$[ebp]
	call	DWORD PTR __imp_?GetText@Results@Database@@QAEPBDPBD@Z
	mov	DWORD PTR _szInvisible$[ebp], eax

; 359  : 	m_iInvisibleType = GC.getInfoTypeForString(szInvisible, true);

	push	1
	mov	edx, DWORD PTR _szInvisible$[ebp]
	push	edx
	mov	ecx, OFFSET ?gGlobals@@3VCvGlobals@@A	; gGlobals
	call	?getInfoTypeForString@CvGlobals@@QBEHPBD_N@Z ; CvGlobals::getInfoTypeForString
	mov	ecx, DWORD PTR _this$[ebp]
	mov	DWORD PTR [ecx+512], eax

; 360  : 
; 361  : 	const char* szSeeInvisible = kResults.GetText("SeeInvisible");

	push	OFFSET ??_C@_0N@IGFKNMKA@SeeInvisible?$AA@
	mov	ecx, DWORD PTR _kResults$[ebp]
	call	DWORD PTR __imp_?GetText@Results@Database@@QAEPBDPBD@Z
	mov	DWORD PTR _szSeeInvisible$[ebp], eax

; 362  : 	m_iSeeInvisibleType = GC.getInfoTypeForString(szSeeInvisible, true);

	push	1
	mov	edx, DWORD PTR _szSeeInvisible$[ebp]
	push	edx
	mov	ecx, OFFSET ?gGlobals@@3VCvGlobals@@A	; gGlobals
	call	?getInfoTypeForString@CvGlobals@@QBEHPBD_N@Z ; CvGlobals::getInfoTypeForString
	mov	ecx, DWORD PTR _this$[ebp]
	mov	DWORD PTR [ecx+516], eax

; 363  : 
; 364  : 	const char* szPromotionPrereq = kResults.GetText("PromotionPrereq");

	push	OFFSET ??_C@_0BA@BEMGADGJ@PromotionPrereq?$AA@
	mov	ecx, DWORD PTR _kResults$[ebp]
	call	DWORD PTR __imp_?GetText@Results@Database@@QAEPBDPBD@Z
	mov	DWORD PTR _szPromotionPrereq$[ebp], eax

; 365  : 	m_iPrereqPromotion = GC.getInfoTypeForString(szPromotionPrereq, true);

	push	1
	mov	edx, DWORD PTR _szPromotionPrereq$[ebp]
	push	edx
	mov	ecx, OFFSET ?gGlobals@@3VCvGlobals@@A	; gGlobals
	call	?getInfoTypeForString@CvGlobals@@QBEHPBD_N@Z ; CvGlobals::getInfoTypeForString
	mov	ecx, DWORD PTR _this$[ebp]
	mov	DWORD PTR [ecx+464], eax

; 366  : 
; 367  : 	const char* szPromotionPrereqOr1 = kResults.GetText("PromotionPrereqOr1");

	push	OFFSET ??_C@_0BD@EMHDDHBK@PromotionPrereqOr1?$AA@
	mov	ecx, DWORD PTR _kResults$[ebp]
	call	DWORD PTR __imp_?GetText@Results@Database@@QAEPBDPBD@Z
	mov	DWORD PTR _szPromotionPrereqOr1$[ebp], eax

; 368  : 	m_iPrereqOrPromotion1 = GC.getInfoTypeForString(szPromotionPrereqOr1, true);

	push	1
	mov	edx, DWORD PTR _szPromotionPrereqOr1$[ebp]
	push	edx
	mov	ecx, OFFSET ?gGlobals@@3VCvGlobals@@A	; gGlobals
	call	?getInfoTypeForString@CvGlobals@@QBEHPBD_N@Z ; CvGlobals::getInfoTypeForString
	mov	ecx, DWORD PTR _this$[ebp]
	mov	DWORD PTR [ecx+468], eax

; 369  : 
; 370  : 	const char* szPromotionPrereqOr2 = kResults.GetText("PromotionPrereqOr2");

	push	OFFSET ??_C@_0BD@GHFOGENJ@PromotionPrereqOr2?$AA@
	mov	ecx, DWORD PTR _kResults$[ebp]
	call	DWORD PTR __imp_?GetText@Results@Database@@QAEPBDPBD@Z
	mov	DWORD PTR _szPromotionPrereqOr2$[ebp], eax

; 371  : 	m_iPrereqOrPromotion2 = GC.getInfoTypeForString(szPromotionPrereqOr2, true);

	push	1
	mov	edx, DWORD PTR _szPromotionPrereqOr2$[ebp]
	push	edx
	mov	ecx, OFFSET ?gGlobals@@3VCvGlobals@@A	; gGlobals
	call	?getInfoTypeForString@CvGlobals@@QBEHPBD_N@Z ; CvGlobals::getInfoTypeForString
	mov	ecx, DWORD PTR _this$[ebp]
	mov	DWORD PTR [ecx+472], eax

; 372  : 
; 373  : 	const char* szPromotionPrereqOr3 = kResults.GetText("PromotionPrereqOr3");

	push	OFFSET ??_C@_0BD@HOEFFFJI@PromotionPrereqOr3?$AA@
	mov	ecx, DWORD PTR _kResults$[ebp]
	call	DWORD PTR __imp_?GetText@Results@Database@@QAEPBDPBD@Z
	mov	DWORD PTR _szPromotionPrereqOr3$[ebp], eax

; 374  : 	m_iPrereqOrPromotion3 = GC.getInfoTypeForString(szPromotionPrereqOr3, true);

	push	1
	mov	edx, DWORD PTR _szPromotionPrereqOr3$[ebp]
	push	edx
	mov	ecx, OFFSET ?gGlobals@@3VCvGlobals@@A	; gGlobals
	call	?getInfoTypeForString@CvGlobals@@QBEHPBD_N@Z ; CvGlobals::getInfoTypeForString
	mov	ecx, DWORD PTR _this$[ebp]
	mov	DWORD PTR [ecx+476], eax

; 375  : 
; 376  : 	const char* szPromotionPrereqOr4 = kResults.GetText("PromotionPrereqOr4");

	push	OFFSET ??_C@_0BD@DBAEMDFP@PromotionPrereqOr4?$AA@
	mov	ecx, DWORD PTR _kResults$[ebp]
	call	DWORD PTR __imp_?GetText@Results@Database@@QAEPBDPBD@Z
	mov	DWORD PTR _szPromotionPrereqOr4$[ebp], eax

; 377  : 	m_iPrereqOrPromotion4 = GC.getInfoTypeForString(szPromotionPrereqOr4, true);

	push	1
	mov	edx, DWORD PTR _szPromotionPrereqOr4$[ebp]
	push	edx
	mov	ecx, OFFSET ?gGlobals@@3VCvGlobals@@A	; gGlobals
	call	?getInfoTypeForString@CvGlobals@@QBEHPBD_N@Z ; CvGlobals::getInfoTypeForString
	mov	ecx, DWORD PTR _this$[ebp]
	mov	DWORD PTR [ecx+480], eax

; 378  : 
; 379  : 	const char* szPromotionPrereqOr5 = kResults.GetText("PromotionPrereqOr5");

	push	OFFSET ??_C@_0BD@CIBPPCBO@PromotionPrereqOr5?$AA@
	mov	ecx, DWORD PTR _kResults$[ebp]
	call	DWORD PTR __imp_?GetText@Results@Database@@QAEPBDPBD@Z
	mov	DWORD PTR _szPromotionPrereqOr5$[ebp], eax

; 380  : 	m_iPrereqOrPromotion5 = GC.getInfoTypeForString(szPromotionPrereqOr5, true);

	push	1
	mov	edx, DWORD PTR _szPromotionPrereqOr5$[ebp]
	push	edx
	mov	ecx, OFFSET ?gGlobals@@3VCvGlobals@@A	; gGlobals
	call	?getInfoTypeForString@CvGlobals@@QBEHPBD_N@Z ; CvGlobals::getInfoTypeForString
	mov	ecx, DWORD PTR _this$[ebp]
	mov	DWORD PTR [ecx+484], eax

; 381  : 
; 382  : 	const char* szPromotionPrereqOr6 = kResults.GetText("PromotionPrereqOr6");

	push	OFFSET ??_C@_0BD@DDCKBNN@PromotionPrereqOr6?$AA@
	mov	ecx, DWORD PTR _kResults$[ebp]
	call	DWORD PTR __imp_?GetText@Results@Database@@QAEPBDPBD@Z
	mov	DWORD PTR _szPromotionPrereqOr6$[ebp], eax

; 383  : 	m_iPrereqOrPromotion6 = GC.getInfoTypeForString(szPromotionPrereqOr6, true);

	push	1
	mov	edx, DWORD PTR _szPromotionPrereqOr6$[ebp]
	push	edx
	mov	ecx, OFFSET ?gGlobals@@3VCvGlobals@@A	; gGlobals
	call	?getInfoTypeForString@CvGlobals@@QBEHPBD_N@Z ; CvGlobals::getInfoTypeForString
	mov	ecx, DWORD PTR _this$[ebp]
	mov	DWORD PTR [ecx+488], eax

; 384  : 
; 385  : 	const char* szPromotionPrereqOr7 = kResults.GetText("PromotionPrereqOr7");

	push	OFFSET ??_C@_0BD@BKCJJAJM@PromotionPrereqOr7?$AA@
	mov	ecx, DWORD PTR _kResults$[ebp]
	call	DWORD PTR __imp_?GetText@Results@Database@@QAEPBDPBD@Z
	mov	DWORD PTR _szPromotionPrereqOr7$[ebp], eax

; 386  : 	m_iPrereqOrPromotion7 = GC.getInfoTypeForString(szPromotionPrereqOr7, true);

	push	1
	mov	edx, DWORD PTR _szPromotionPrereqOr7$[ebp]
	push	edx
	mov	ecx, OFFSET ?gGlobals@@3VCvGlobals@@A	; gGlobals
	call	?getInfoTypeForString@CvGlobals@@QBEHPBD_N@Z ; CvGlobals::getInfoTypeForString
	mov	ecx, DWORD PTR _this$[ebp]
	mov	DWORD PTR [ecx+492], eax

; 387  : 
; 388  : 	const char* szPromotionPrereqOr8 = kResults.GetText("PromotionPrereqOr8");

	push	OFFSET ??_C@_0BD@JNLBIMFD@PromotionPrereqOr8?$AA@
	mov	ecx, DWORD PTR _kResults$[ebp]
	call	DWORD PTR __imp_?GetText@Results@Database@@QAEPBDPBD@Z
	mov	DWORD PTR _szPromotionPrereqOr8$[ebp], eax

; 389  : 	m_iPrereqOrPromotion8 = GC.getInfoTypeForString(szPromotionPrereqOr8, true);

	push	1
	mov	edx, DWORD PTR _szPromotionPrereqOr8$[ebp]
	push	edx
	mov	ecx, OFFSET ?gGlobals@@3VCvGlobals@@A	; gGlobals
	call	?getInfoTypeForString@CvGlobals@@QBEHPBD_N@Z ; CvGlobals::getInfoTypeForString
	mov	ecx, DWORD PTR _this$[ebp]
	mov	DWORD PTR [ecx+496], eax

; 390  : 
; 391  : 	const char* szPromotionPrereqOr9 = kResults.GetText("PromotionPrereqOr9");

	push	OFFSET ??_C@_0BD@IEKKLNBC@PromotionPrereqOr9?$AA@
	mov	ecx, DWORD PTR _kResults$[ebp]
	call	DWORD PTR __imp_?GetText@Results@Database@@QAEPBDPBD@Z
	mov	DWORD PTR _szPromotionPrereqOr9$[ebp], eax

; 392  : 	m_iPrereqOrPromotion9 = GC.getInfoTypeForString(szPromotionPrereqOr9, true);

	push	1
	mov	edx, DWORD PTR _szPromotionPrereqOr9$[ebp]
	push	edx
	mov	ecx, OFFSET ?gGlobals@@3VCvGlobals@@A	; gGlobals
	call	?getInfoTypeForString@CvGlobals@@QBEHPBD_N@Z ; CvGlobals::getInfoTypeForString
	mov	ecx, DWORD PTR _this$[ebp]
	mov	DWORD PTR [ecx+500], eax

; 393  : 
; 394  : 	const char* szPromotionPrereqOr10 = kResults.GetText("PromotionPrereqOr9");

	push	OFFSET ??_C@_0BD@IEKKLNBC@PromotionPrereqOr9?$AA@
	mov	ecx, DWORD PTR _kResults$[ebp]
	call	DWORD PTR __imp_?GetText@Results@Database@@QAEPBDPBD@Z
	mov	DWORD PTR _szPromotionPrereqOr10$[ebp], eax

; 395  : 	m_iPrereqOrPromotion10 = GC.getInfoTypeForString(szPromotionPrereqOr10, true);

	push	1
	mov	edx, DWORD PTR _szPromotionPrereqOr10$[ebp]
	push	edx
	mov	ecx, OFFSET ?gGlobals@@3VCvGlobals@@A	; gGlobals
	call	?getInfoTypeForString@CvGlobals@@QBEHPBD_N@Z ; CvGlobals::getInfoTypeForString
	mov	ecx, DWORD PTR _this$[ebp]
	mov	DWORD PTR [ecx+504], eax

; 396  : 
; 397  : 	//Arrays
; 398  : 	const int iNumUnitClasses = kUtility.MaxRows("UnitClasses");

	push	OFFSET ??_C@_0M@HLHJNCC@UnitClasses?$AA@
	mov	ecx, DWORD PTR _kUtility$[ebp]
	call	?MaxRows@CvDatabaseUtility@@QAEHPBD@Z	; CvDatabaseUtility::MaxRows
	mov	DWORD PTR _iNumUnitClasses$[ebp], eax

; 399  : 	const int iNumTerrains = GC.getNumTerrainInfos();

	mov	ecx, OFFSET ?gGlobals@@3VCvGlobals@@A	; gGlobals
	call	?getNumTerrainInfos@CvGlobals@@QAEHXZ	; CvGlobals::getNumTerrainInfos
	mov	DWORD PTR _iNumTerrains$[ebp], eax

; 400  : 	const int iNumFeatures = GC.getNumFeatureInfos();

	mov	ecx, OFFSET ?gGlobals@@3VCvGlobals@@A	; gGlobals
	call	?getNumFeatureInfos@CvGlobals@@QAEHXZ	; CvGlobals::getNumFeatureInfos
	mov	DWORD PTR _iNumFeatures$[ebp], eax

; 401  : 	const int iNumDomains = kUtility.MaxRows("Domains");

	push	OFFSET ??_C@_07FKLJOGGC@Domains?$AA@
	mov	ecx, DWORD PTR _kUtility$[ebp]
	call	?MaxRows@CvDatabaseUtility@@QAEHPBD@Z	; CvDatabaseUtility::MaxRows
	mov	DWORD PTR _iNumDomains$[ebp], eax

; 402  : 	DEBUG_VARIABLE(iNumDomains);
; 403  : 	const int iNumUnitCombatClasses = kUtility.MaxRows("UnitCombatInfos");

	push	OFFSET ??_C@_0BA@NHHFHDEL@UnitCombatInfos?$AA@
	mov	ecx, DWORD PTR _kUtility$[ebp]
	call	?MaxRows@CvDatabaseUtility@@QAEHPBD@Z	; CvDatabaseUtility::MaxRows
	mov	DWORD PTR _iNumUnitCombatClasses$[ebp], eax

; 404  : 	const int iNumUnitTypes = kUtility.MaxRows("Units");

	push	OFFSET ??_C@_05CFLIFMAE@Units?$AA@
	mov	ecx, DWORD PTR _kUtility$[ebp]
	call	?MaxRows@CvDatabaseUtility@@QAEHPBD@Z	; CvDatabaseUtility::MaxRows
	mov	DWORD PTR _iNumUnitTypes$[ebp], eax

; 405  : 
; 406  : 	const char* szPromotionType = GetType();

	mov	ecx, DWORD PTR _this$[ebp]
	add	ecx, 176				; 000000b0H
	call	DWORD PTR __imp_?c_str@?$basic_string@DU?$char_traits@D@std@@V?$allocator@D@2@@std@@QBEPBDXZ
	mov	DWORD PTR _szPromotionType$[ebp], eax

; 407  : 
; 408  : 	//UnitPromotions_Terrains
; 409  : 	{
; 410  : 		kUtility.InitializeArray(m_piTerrainAttackPercent, iNumTerrains, 0);

	push	0
	mov	edx, DWORD PTR _iNumTerrains$[ebp]
	push	edx
	mov	eax, DWORD PTR _this$[ebp]
	add	eax, 884				; 00000374H
	push	eax
	mov	ecx, DWORD PTR _kUtility$[ebp]
	call	?InitializeArray@CvDatabaseUtility@@QAEXAAPAHIH@Z ; CvDatabaseUtility::InitializeArray

; 411  : 		kUtility.InitializeArray(m_piTerrainDefensePercent, iNumTerrains, 0);

	push	0
	mov	ecx, DWORD PTR _iNumTerrains$[ebp]
	push	ecx
	mov	edx, DWORD PTR _this$[ebp]
	add	edx, 888				; 00000378H
	push	edx
	mov	ecx, DWORD PTR _kUtility$[ebp]
	call	?InitializeArray@CvDatabaseUtility@@QAEXAAPAHIH@Z ; CvDatabaseUtility::InitializeArray

; 412  : 		kUtility.InitializeArray(m_piTerrainPassableTech, iNumTerrains, NO_TECH);

	push	-1
	mov	eax, DWORD PTR _iNumTerrains$[ebp]
	push	eax
	mov	ecx, DWORD PTR _this$[ebp]
	add	ecx, 920				; 00000398H
	push	ecx
	mov	ecx, DWORD PTR _kUtility$[ebp]
	call	?InitializeArray@CvDatabaseUtility@@QAEXAAPAHIH@Z ; CvDatabaseUtility::InitializeArray

; 413  : 		kUtility.InitializeArray(m_pbTerrainDoubleMove, iNumTerrains, false);

	mov	edx, DWORD PTR _this$[ebp]
	add	edx, 928				; 000003a0H
	mov	DWORD PTR $T219720[ebp], edx
	mov	eax, DWORD PTR _iNumTerrains$[ebp]
	push	eax
	call	??_U@YAPAXI@Z				; operator new[]
	add	esp, 4
	mov	DWORD PTR $T219719[ebp], eax
	mov	ecx, DWORD PTR $T219720[ebp]
	mov	edx, DWORD PTR $T219719[ebp]
	mov	DWORD PTR [ecx], edx
	xor	eax, eax
	cvtsi2ss xmm0, eax
	ucomiss	xmm0, DWORD PTR __real@00000000
	lahf
	test	ah, 68					; 00000044H
	jp	SHORT $LN67@CacheResul
	mov	ecx, DWORD PTR _iNumTerrains$[ebp]
	push	ecx
	push	0
	mov	edx, DWORD PTR $T219720[ebp]
	mov	eax, DWORD PTR [edx]
	push	eax
	call	_memset
	add	esp, 12					; 0000000cH
	jmp	SHORT $LN63@CacheResul
$LN67@CacheResul:
	mov	DWORD PTR _i$219714[ebp], 0
	jmp	SHORT $LN65@CacheResul
$LN64@CacheResul:
	mov	ecx, DWORD PTR _i$219714[ebp]
	add	ecx, 1
	mov	DWORD PTR _i$219714[ebp], ecx
$LN65@CacheResul:
	mov	edx, DWORD PTR _i$219714[ebp]
	cmp	edx, DWORD PTR _iNumTerrains$[ebp]
	jae	SHORT $LN63@CacheResul
	mov	eax, DWORD PTR $T219720[ebp]
	mov	ecx, DWORD PTR [eax]
	mov	edx, DWORD PTR _i$219714[ebp]
	mov	BYTE PTR [ecx+edx], 0
	jmp	SHORT $LN64@CacheResul
$LN63@CacheResul:

; 414  : 		kUtility.InitializeArray(m_pbTerrainImpassable, iNumTerrains, false);

	mov	eax, DWORD PTR _this$[ebp]
	add	eax, 936				; 000003a8H
	mov	DWORD PTR $T219732[ebp], eax
	mov	ecx, DWORD PTR _iNumTerrains$[ebp]
	push	ecx
	call	??_U@YAPAXI@Z				; operator new[]
	add	esp, 4
	mov	DWORD PTR $T219731[ebp], eax
	mov	edx, DWORD PTR $T219732[ebp]
	mov	eax, DWORD PTR $T219731[ebp]
	mov	DWORD PTR [edx], eax
	xor	ecx, ecx
	cvtsi2ss xmm0, ecx
	ucomiss	xmm0, DWORD PTR __real@00000000
	lahf
	test	ah, 68					; 00000044H
	jp	SHORT $LN74@CacheResul
	mov	edx, DWORD PTR _iNumTerrains$[ebp]
	push	edx
	push	0
	mov	eax, DWORD PTR $T219732[ebp]
	mov	ecx, DWORD PTR [eax]
	push	ecx
	call	_memset
	add	esp, 12					; 0000000cH
	jmp	SHORT $LN70@CacheResul
$LN74@CacheResul:
	mov	DWORD PTR _i$219726[ebp], 0
	jmp	SHORT $LN72@CacheResul
$LN71@CacheResul:
	mov	edx, DWORD PTR _i$219726[ebp]
	add	edx, 1
	mov	DWORD PTR _i$219726[ebp], edx
$LN72@CacheResul:
	mov	eax, DWORD PTR _i$219726[ebp]
	cmp	eax, DWORD PTR _iNumTerrains$[ebp]
	jae	SHORT $LN70@CacheResul
	mov	ecx, DWORD PTR $T219732[ebp]
	mov	edx, DWORD PTR [ecx]
	mov	eax, DWORD PTR _i$219726[ebp]
	mov	BYTE PTR [edx+eax], 0
	jmp	SHORT $LN71@CacheResul
$LN70@CacheResul:

; 415  : 
; 416  : 		std::string sqlKey = "UnitPromotions_Terrains";

	push	OFFSET ??_C@_0BI@IIGDFDOG@UnitPromotions_Terrains?$AA@
	lea	ecx, DWORD PTR _sqlKey$217291[ebp]
	call	DWORD PTR __imp_??0?$basic_string@DU?$char_traits@D@std@@V?$allocator@D@2@@std@@QAE@PBD@Z
	mov	DWORD PTR __$EHRec$[ebp+8], 0

; 417  : 		Database::Results* pResults = kUtility.GetResults(sqlKey);

	lea	ecx, DWORD PTR _sqlKey$217291[ebp]
	push	ecx
	mov	ecx, DWORD PTR _kUtility$[ebp]
	call	?GetResults@CvDatabaseUtility@@QAEPAVResults@Database@@ABV?$basic_string@DU?$char_traits@D@std@@V?$allocator@D@2@@std@@@Z ; CvDatabaseUtility::GetResults
	mov	DWORD PTR _pResults$217293[ebp], eax

; 418  : 		if(pResults == NULL)

	cmp	DWORD PTR _pResults$217293[ebp], 0
	jne	SHORT $LN29@CacheResul

; 419  : 		{
; 420  : 			const char* szSQL = "select Terrains.ID as TerrainID, coalesce(Technologies.ID, -1) as PassableTechID, UnitPromotions_Terrains.* from UnitPromotions_Terrains inner join Terrains on TerrainType = Terrains.Type left join Technologies on PassableTech = Technologies.Type where PromotionType = ?";

	mov	DWORD PTR _szSQL$217295[ebp], OFFSET ??_C@_0BAP@GGCJCBCM@select?5Terrains?4ID?5as?5TerrainID?0@

; 421  : 			pResults = kUtility.PrepareResults(sqlKey, szSQL);

	mov	edx, DWORD PTR _szSQL$217295[ebp]
	push	edx
	lea	eax, DWORD PTR _sqlKey$217291[ebp]
	push	eax
	mov	ecx, DWORD PTR _kUtility$[ebp]
	call	?PrepareResults@CvDatabaseUtility@@QAEPAVResults@Database@@ABV?$basic_string@DU?$char_traits@D@std@@V?$allocator@D@2@@std@@PBD@Z ; CvDatabaseUtility::PrepareResults
	mov	DWORD PTR _pResults$217293[ebp], eax
$LN29@CacheResul:

; 422  : 		}
; 423  : 
; 424  : 		CvAssert(pResults);
; 425  : 		if(!pResults) return false;

	cmp	DWORD PTR _pResults$217293[ebp], 0
	jne	SHORT $LN28@CacheResul
	mov	BYTE PTR $T219686[ebp], 0
	mov	DWORD PTR __$EHRec$[ebp+8], -1
	lea	ecx, DWORD PTR _sqlKey$217291[ebp]
	call	DWORD PTR __imp_??1?$basic_string@DU?$char_traits@D@std@@V?$allocator@D@2@@std@@QAE@XZ
	mov	al, BYTE PTR $T219686[ebp]
	jmp	$LN31@CacheResul
$LN28@CacheResul:

; 426  : 
; 427  : 		pResults->Bind(1, szPromotionType);

	push	1
	mov	ecx, DWORD PTR _szPromotionType$[ebp]
	push	ecx
	push	1
	mov	ecx, DWORD PTR _pResults$217293[ebp]
	call	DWORD PTR __imp_?Bind@Results@Database@@QAE_NHPBD_N@Z
$LN27@CacheResul:

; 428  : 
; 429  : 		while(pResults->Step())

	mov	ecx, DWORD PTR _pResults$217293[ebp]
	call	DWORD PTR __imp_?Step@Results@Database@@QAE_NXZ
	movzx	edx, al
	test	edx, edx
	je	$LN26@CacheResul

; 430  : 		{
; 431  : 			const int iTerrainID = pResults->GetInt("TerrainID");

	push	OFFSET ??_C@_09EINBFHAC@TerrainID?$AA@
	mov	ecx, DWORD PTR _pResults$217293[ebp]
	call	DWORD PTR __imp_?GetInt@Results@Database@@QAEHPBD@Z
	mov	DWORD PTR _iTerrainID$217302[ebp], eax

; 432  : 			CvAssert(iTerrainID > -1 && iTerrainID < iNumTerrains);
; 433  : 
; 434  : 			const int iTerrainAttack = pResults->GetInt("Attack");

	push	OFFSET ??_C@_06FDAMAAOH@Attack?$AA@
	mov	ecx, DWORD PTR _pResults$217293[ebp]
	call	DWORD PTR __imp_?GetInt@Results@Database@@QAEHPBD@Z
	mov	DWORD PTR _iTerrainAttack$217304[ebp], eax

; 435  : 			m_piTerrainAttackPercent[iTerrainID] = iTerrainAttack;

	mov	eax, DWORD PTR _this$[ebp]
	mov	ecx, DWORD PTR [eax+884]
	mov	edx, DWORD PTR _iTerrainID$217302[ebp]
	mov	eax, DWORD PTR _iTerrainAttack$217304[ebp]
	mov	DWORD PTR [ecx+edx*4], eax

; 436  : 
; 437  : 			const int iTerrainDefense = pResults->GetInt("Defense");

	push	OFFSET ??_C@_07PEDPFCGC@Defense?$AA@
	mov	ecx, DWORD PTR _pResults$217293[ebp]
	call	DWORD PTR __imp_?GetInt@Results@Database@@QAEHPBD@Z
	mov	DWORD PTR _iTerrainDefense$217306[ebp], eax

; 438  : 			m_piTerrainDefensePercent[iTerrainID] = iTerrainDefense;

	mov	ecx, DWORD PTR _this$[ebp]
	mov	edx, DWORD PTR [ecx+888]
	mov	eax, DWORD PTR _iTerrainID$217302[ebp]
	mov	ecx, DWORD PTR _iTerrainDefense$217306[ebp]
	mov	DWORD PTR [edx+eax*4], ecx

; 439  : 
; 440  : 			const bool bDoubleMove = pResults->GetBool("DoubleMove");

	push	OFFSET ??_C@_0L@GFAABCAK@DoubleMove?$AA@
	mov	ecx, DWORD PTR _pResults$217293[ebp]
	call	DWORD PTR __imp_?GetBool@Results@Database@@QAE_NPBD@Z
	mov	BYTE PTR _bDoubleMove$217308[ebp], al

; 441  : 			m_pbTerrainDoubleMove[iTerrainID] = bDoubleMove;

	mov	edx, DWORD PTR _this$[ebp]
	mov	eax, DWORD PTR [edx+928]
	mov	ecx, DWORD PTR _iTerrainID$217302[ebp]
	mov	dl, BYTE PTR _bDoubleMove$217308[ebp]
	mov	BYTE PTR [eax+ecx], dl

; 442  : 
; 443  : 			const bool bImpassable = pResults->GetBool("Impassable");

	push	OFFSET ??_C@_0L@MNIKPMED@Impassable?$AA@
	mov	ecx, DWORD PTR _pResults$217293[ebp]
	call	DWORD PTR __imp_?GetBool@Results@Database@@QAE_NPBD@Z
	mov	BYTE PTR _bImpassable$217310[ebp], al

; 444  : 			m_pbTerrainImpassable[iTerrainID] = bImpassable;

	mov	eax, DWORD PTR _this$[ebp]
	mov	ecx, DWORD PTR [eax+936]
	mov	edx, DWORD PTR _iTerrainID$217302[ebp]
	mov	al, BYTE PTR _bImpassable$217310[ebp]
	mov	BYTE PTR [ecx+edx], al

; 445  : 
; 446  : 			const int iPassableTechID = pResults->GetInt("PassableTechID");

	push	OFFSET ??_C@_0P@MBGEMJJD@PassableTechID?$AA@
	mov	ecx, DWORD PTR _pResults$217293[ebp]
	call	DWORD PTR __imp_?GetInt@Results@Database@@QAEHPBD@Z
	mov	DWORD PTR _iPassableTechID$217312[ebp], eax

; 447  : 			m_piTerrainPassableTech[iTerrainID] = iPassableTechID;

	mov	ecx, DWORD PTR _this$[ebp]
	mov	edx, DWORD PTR [ecx+920]
	mov	eax, DWORD PTR _iTerrainID$217302[ebp]
	mov	ecx, DWORD PTR _iPassableTechID$217312[ebp]
	mov	DWORD PTR [edx+eax*4], ecx

; 448  : 		}

	jmp	$LN27@CacheResul
$LN26@CacheResul:

; 449  : 	}

	mov	DWORD PTR __$EHRec$[ebp+8], -1
	lea	ecx, DWORD PTR _sqlKey$217291[ebp]
	call	DWORD PTR __imp_??1?$basic_string@DU?$char_traits@D@std@@V?$allocator@D@2@@std@@QAE@XZ

; 450  : 
; 451  : 	//UnitPromotions_Features
; 452  : 	{
; 453  : 		kUtility.InitializeArray(m_piFeatureAttackPercent, iNumFeatures, 0);

	push	0
	mov	edx, DWORD PTR _iNumFeatures$[ebp]
	push	edx
	mov	eax, DWORD PTR _this$[ebp]
	add	eax, 892				; 0000037cH
	push	eax
	mov	ecx, DWORD PTR _kUtility$[ebp]
	call	?InitializeArray@CvDatabaseUtility@@QAEXAAPAHIH@Z ; CvDatabaseUtility::InitializeArray

; 454  : 		kUtility.InitializeArray(m_piFeatureDefensePercent, iNumFeatures, 0);

	push	0
	mov	ecx, DWORD PTR _iNumFeatures$[ebp]
	push	ecx
	mov	edx, DWORD PTR _this$[ebp]
	add	edx, 896				; 00000380H
	push	edx
	mov	ecx, DWORD PTR _kUtility$[ebp]
	call	?InitializeArray@CvDatabaseUtility@@QAEXAAPAHIH@Z ; CvDatabaseUtility::InitializeArray

; 455  : 		kUtility.InitializeArray(m_piFeaturePassableTech, iNumFeatures, NO_TECH);

	push	-1
	mov	eax, DWORD PTR _iNumFeatures$[ebp]
	push	eax
	mov	ecx, DWORD PTR _this$[ebp]
	add	ecx, 924				; 0000039cH
	push	ecx
	mov	ecx, DWORD PTR _kUtility$[ebp]
	call	?InitializeArray@CvDatabaseUtility@@QAEXAAPAHIH@Z ; CvDatabaseUtility::InitializeArray

; 456  : 		kUtility.InitializeArray(m_pbFeatureDoubleMove, iNumFeatures, false);

	mov	edx, DWORD PTR _this$[ebp]
	add	edx, 932				; 000003a4H
	mov	DWORD PTR $T219750[ebp], edx
	mov	eax, DWORD PTR _iNumFeatures$[ebp]
	push	eax
	call	??_U@YAPAXI@Z				; operator new[]
	add	esp, 4
	mov	DWORD PTR $T219749[ebp], eax
	mov	ecx, DWORD PTR $T219750[ebp]
	mov	edx, DWORD PTR $T219749[ebp]
	mov	DWORD PTR [ecx], edx
	xor	eax, eax
	cvtsi2ss xmm0, eax
	ucomiss	xmm0, DWORD PTR __real@00000000
	lahf
	test	ah, 68					; 00000044H
	jp	SHORT $LN102@CacheResul
	mov	ecx, DWORD PTR _iNumFeatures$[ebp]
	push	ecx
	push	0
	mov	edx, DWORD PTR $T219750[ebp]
	mov	eax, DWORD PTR [edx]
	push	eax
	call	_memset
	add	esp, 12					; 0000000cH
	jmp	SHORT $LN98@CacheResul
$LN102@CacheResul:
	mov	DWORD PTR _i$219744[ebp], 0
	jmp	SHORT $LN100@CacheResul
$LN99@CacheResul:
	mov	ecx, DWORD PTR _i$219744[ebp]
	add	ecx, 1
	mov	DWORD PTR _i$219744[ebp], ecx
$LN100@CacheResul:
	mov	edx, DWORD PTR _i$219744[ebp]
	cmp	edx, DWORD PTR _iNumFeatures$[ebp]
	jae	SHORT $LN98@CacheResul
	mov	eax, DWORD PTR $T219750[ebp]
	mov	ecx, DWORD PTR [eax]
	mov	edx, DWORD PTR _i$219744[ebp]
	mov	BYTE PTR [ecx+edx], 0
	jmp	SHORT $LN99@CacheResul
$LN98@CacheResul:

; 457  : 		kUtility.InitializeArray(m_pbFeatureImpassable, iNumFeatures, false);

	mov	eax, DWORD PTR _this$[ebp]
	add	eax, 940				; 000003acH
	mov	DWORD PTR $T219762[ebp], eax
	mov	ecx, DWORD PTR _iNumFeatures$[ebp]
	push	ecx
	call	??_U@YAPAXI@Z				; operator new[]
	add	esp, 4
	mov	DWORD PTR $T219761[ebp], eax
	mov	edx, DWORD PTR $T219762[ebp]
	mov	eax, DWORD PTR $T219761[ebp]
	mov	DWORD PTR [edx], eax
	xor	ecx, ecx
	cvtsi2ss xmm0, ecx
	ucomiss	xmm0, DWORD PTR __real@00000000
	lahf
	test	ah, 68					; 00000044H
	jp	SHORT $LN109@CacheResul
	mov	edx, DWORD PTR _iNumFeatures$[ebp]
	push	edx
	push	0
	mov	eax, DWORD PTR $T219762[ebp]
	mov	ecx, DWORD PTR [eax]
	push	ecx
	call	_memset
	add	esp, 12					; 0000000cH
	jmp	SHORT $LN105@CacheResul
$LN109@CacheResul:
	mov	DWORD PTR _i$219756[ebp], 0
	jmp	SHORT $LN107@CacheResul
$LN106@CacheResul:
	mov	edx, DWORD PTR _i$219756[ebp]
	add	edx, 1
	mov	DWORD PTR _i$219756[ebp], edx
$LN107@CacheResul:
	mov	eax, DWORD PTR _i$219756[ebp]
	cmp	eax, DWORD PTR _iNumFeatures$[ebp]
	jae	SHORT $LN105@CacheResul
	mov	ecx, DWORD PTR $T219762[ebp]
	mov	edx, DWORD PTR [ecx]
	mov	eax, DWORD PTR _i$219756[ebp]
	mov	BYTE PTR [edx+eax], 0
	jmp	SHORT $LN106@CacheResul
$LN105@CacheResul:

; 458  : 
; 459  : 		std::string sqlKey = "UnitPromotions_Features";

	push	OFFSET ??_C@_0BI@JEBHFCGC@UnitPromotions_Features?$AA@
	lea	ecx, DWORD PTR _sqlKey$217314[ebp]
	call	DWORD PTR __imp_??0?$basic_string@DU?$char_traits@D@std@@V?$allocator@D@2@@std@@QAE@PBD@Z
	mov	DWORD PTR __$EHRec$[ebp+8], 1

; 460  : 		Database::Results* pResults = kUtility.GetResults(sqlKey);

	lea	ecx, DWORD PTR _sqlKey$217314[ebp]
	push	ecx
	mov	ecx, DWORD PTR _kUtility$[ebp]
	call	?GetResults@CvDatabaseUtility@@QAEPAVResults@Database@@ABV?$basic_string@DU?$char_traits@D@std@@V?$allocator@D@2@@std@@@Z ; CvDatabaseUtility::GetResults
	mov	DWORD PTR _pResults$217316[ebp], eax

; 461  : 		if(pResults == NULL)

	cmp	DWORD PTR _pResults$217316[ebp], 0
	jne	SHORT $LN25@CacheResul

; 462  : 		{
; 463  : 			const char* szSQL = "select Features.ID as FeatureID, coalesce(Technologies.ID, -1) as PassableTechID, UnitPromotions_Features.* from UnitPromotions_Features inner join Features on FeatureType = Features.Type left join Technologies on PassableTech = Technologies.Type where PromotionType = ?";

	mov	DWORD PTR _szSQL$217318[ebp], OFFSET ??_C@_0BAP@FLBEKAPJ@select?5Features?4ID?5as?5FeatureID?0@

; 464  : 			pResults = kUtility.PrepareResults(sqlKey, szSQL);

	mov	edx, DWORD PTR _szSQL$217318[ebp]
	push	edx
	lea	eax, DWORD PTR _sqlKey$217314[ebp]
	push	eax
	mov	ecx, DWORD PTR _kUtility$[ebp]
	call	?PrepareResults@CvDatabaseUtility@@QAEPAVResults@Database@@ABV?$basic_string@DU?$char_traits@D@std@@V?$allocator@D@2@@std@@PBD@Z ; CvDatabaseUtility::PrepareResults
	mov	DWORD PTR _pResults$217316[ebp], eax
$LN25@CacheResul:

; 465  : 		}
; 466  : 
; 467  : 		CvAssert(pResults);
; 468  : 		if(!pResults) return false;

	cmp	DWORD PTR _pResults$217316[ebp], 0
	jne	SHORT $LN24@CacheResul
	mov	BYTE PTR $T219687[ebp], 0
	mov	DWORD PTR __$EHRec$[ebp+8], -1
	lea	ecx, DWORD PTR _sqlKey$217314[ebp]
	call	DWORD PTR __imp_??1?$basic_string@DU?$char_traits@D@std@@V?$allocator@D@2@@std@@QAE@XZ
	mov	al, BYTE PTR $T219687[ebp]
	jmp	$LN31@CacheResul
$LN24@CacheResul:

; 469  : 
; 470  : 		pResults->Bind(1, szPromotionType);

	push	1
	mov	ecx, DWORD PTR _szPromotionType$[ebp]
	push	ecx
	push	1
	mov	ecx, DWORD PTR _pResults$217316[ebp]
	call	DWORD PTR __imp_?Bind@Results@Database@@QAE_NHPBD_N@Z
$LN23@CacheResul:

; 471  : 
; 472  : 		while(pResults->Step())

	mov	ecx, DWORD PTR _pResults$217316[ebp]
	call	DWORD PTR __imp_?Step@Results@Database@@QAE_NXZ
	movzx	edx, al
	test	edx, edx
	je	$LN22@CacheResul

; 473  : 		{
; 474  : 			const int iFeatureID = pResults->GetInt("FeatureID");

	push	OFFSET ??_C@_09KCBIGEDK@FeatureID?$AA@
	mov	ecx, DWORD PTR _pResults$217316[ebp]
	call	DWORD PTR __imp_?GetInt@Results@Database@@QAEHPBD@Z
	mov	DWORD PTR _iFeatureID$217325[ebp], eax

; 475  : 			CvAssert(iFeatureID > -1 && iFeatureID < iNumFeatures);
; 476  : 
; 477  : 			const int iFeatureAttack = pResults->GetInt("Attack");

	push	OFFSET ??_C@_06FDAMAAOH@Attack?$AA@
	mov	ecx, DWORD PTR _pResults$217316[ebp]
	call	DWORD PTR __imp_?GetInt@Results@Database@@QAEHPBD@Z
	mov	DWORD PTR _iFeatureAttack$217327[ebp], eax

; 478  : 			m_piFeatureAttackPercent[iFeatureID] = iFeatureAttack;

	mov	eax, DWORD PTR _this$[ebp]
	mov	ecx, DWORD PTR [eax+892]
	mov	edx, DWORD PTR _iFeatureID$217325[ebp]
	mov	eax, DWORD PTR _iFeatureAttack$217327[ebp]
	mov	DWORD PTR [ecx+edx*4], eax

; 479  : 
; 480  : 			const int iFeatureDefense = pResults->GetInt("Defense");

	push	OFFSET ??_C@_07PEDPFCGC@Defense?$AA@
	mov	ecx, DWORD PTR _pResults$217316[ebp]
	call	DWORD PTR __imp_?GetInt@Results@Database@@QAEHPBD@Z
	mov	DWORD PTR _iFeatureDefense$217328[ebp], eax

; 481  : 			m_piFeatureDefensePercent[iFeatureID] = iFeatureDefense;

	mov	ecx, DWORD PTR _this$[ebp]
	mov	edx, DWORD PTR [ecx+896]
	mov	eax, DWORD PTR _iFeatureID$217325[ebp]
	mov	ecx, DWORD PTR _iFeatureDefense$217328[ebp]
	mov	DWORD PTR [edx+eax*4], ecx

; 482  : 
; 483  : 			const bool bDoubleMove = pResults->GetBool("DoubleMove");

	push	OFFSET ??_C@_0L@GFAABCAK@DoubleMove?$AA@
	mov	ecx, DWORD PTR _pResults$217316[ebp]
	call	DWORD PTR __imp_?GetBool@Results@Database@@QAE_NPBD@Z
	mov	BYTE PTR _bDoubleMove$217329[ebp], al

; 484  : 			m_pbFeatureDoubleMove[iFeatureID] = bDoubleMove;

	mov	edx, DWORD PTR _this$[ebp]
	mov	eax, DWORD PTR [edx+932]
	mov	ecx, DWORD PTR _iFeatureID$217325[ebp]
	mov	dl, BYTE PTR _bDoubleMove$217329[ebp]
	mov	BYTE PTR [eax+ecx], dl

; 485  : 
; 486  : 			const bool bImpassable = pResults->GetBool("Impassable");

	push	OFFSET ??_C@_0L@MNIKPMED@Impassable?$AA@
	mov	ecx, DWORD PTR _pResults$217316[ebp]
	call	DWORD PTR __imp_?GetBool@Results@Database@@QAE_NPBD@Z
	mov	BYTE PTR _bImpassable$217330[ebp], al

; 487  : 			m_pbFeatureImpassable[iFeatureID] = bImpassable;

	mov	eax, DWORD PTR _this$[ebp]
	mov	ecx, DWORD PTR [eax+940]
	mov	edx, DWORD PTR _iFeatureID$217325[ebp]
	mov	al, BYTE PTR _bImpassable$217330[ebp]
	mov	BYTE PTR [ecx+edx], al

; 488  : 
; 489  : 			const int iPassableTech = pResults->GetInt("PassableTechID");

	push	OFFSET ??_C@_0P@MBGEMJJD@PassableTechID?$AA@
	mov	ecx, DWORD PTR _pResults$217316[ebp]
	call	DWORD PTR __imp_?GetInt@Results@Database@@QAEHPBD@Z
	mov	DWORD PTR _iPassableTech$217331[ebp], eax

; 490  : 			m_piFeaturePassableTech[iFeatureID] = iPassableTech;

	mov	ecx, DWORD PTR _this$[ebp]
	mov	edx, DWORD PTR [ecx+924]
	mov	eax, DWORD PTR _iFeatureID$217325[ebp]
	mov	ecx, DWORD PTR _iPassableTech$217331[ebp]
	mov	DWORD PTR [edx+eax*4], ecx

; 491  : 		}

	jmp	$LN23@CacheResul
$LN22@CacheResul:

; 492  : 	}

	mov	DWORD PTR __$EHRec$[ebp+8], -1
	lea	ecx, DWORD PTR _sqlKey$217314[ebp]
	call	DWORD PTR __imp_??1?$basic_string@DU?$char_traits@D@std@@V?$allocator@D@2@@std@@QAE@XZ

; 493  : 
; 494  : 	//UnitPromotions_UnitClasses
; 495  : 	{
; 496  : 		kUtility.InitializeArray(m_piUnitClassModifierPercent, iNumUnitClasses, 0);

	push	0
	mov	edx, DWORD PTR _iNumUnitClasses$[ebp]
	push	edx
	mov	eax, DWORD PTR _this$[ebp]
	add	eax, 904				; 00000388H
	push	eax
	mov	ecx, DWORD PTR _kUtility$[ebp]
	call	?InitializeArray@CvDatabaseUtility@@QAEXAAPAHIH@Z ; CvDatabaseUtility::InitializeArray

; 497  : 		kUtility.InitializeArray(m_piUnitClassAttackModifier, iNumUnitClasses, 0);

	push	0
	mov	ecx, DWORD PTR _iNumUnitClasses$[ebp]
	push	ecx
	mov	edx, DWORD PTR _this$[ebp]
	add	edx, 912				; 00000390H
	push	edx
	mov	ecx, DWORD PTR _kUtility$[ebp]
	call	?InitializeArray@CvDatabaseUtility@@QAEXAAPAHIH@Z ; CvDatabaseUtility::InitializeArray

; 498  : 		kUtility.InitializeArray(m_piUnitClassDefenseModifier, iNumUnitClasses, 0);

	push	0
	mov	eax, DWORD PTR _iNumUnitClasses$[ebp]
	push	eax
	mov	ecx, DWORD PTR _this$[ebp]
	add	ecx, 916				; 00000394H
	push	ecx
	mov	ecx, DWORD PTR _kUtility$[ebp]
	call	?InitializeArray@CvDatabaseUtility@@QAEXAAPAHIH@Z ; CvDatabaseUtility::InitializeArray

; 499  : 
; 500  : 		std::string sqlKey = "UnitPromotions_UnitClasses";

	push	OFFSET ??_C@_0BL@NHCLIOIE@UnitPromotions_UnitClasses?$AA@
	lea	ecx, DWORD PTR _sqlKey$217332[ebp]
	call	DWORD PTR __imp_??0?$basic_string@DU?$char_traits@D@std@@V?$allocator@D@2@@std@@QAE@PBD@Z
	mov	DWORD PTR __$EHRec$[ebp+8], 2

; 501  : 		Database::Results* pResults = kUtility.GetResults(sqlKey);

	lea	edx, DWORD PTR _sqlKey$217332[ebp]
	push	edx
	mov	ecx, DWORD PTR _kUtility$[ebp]
	call	?GetResults@CvDatabaseUtility@@QAEPAVResults@Database@@ABV?$basic_string@DU?$char_traits@D@std@@V?$allocator@D@2@@std@@@Z ; CvDatabaseUtility::GetResults
	mov	DWORD PTR _pResults$217334[ebp], eax

; 502  : 		if(pResults == NULL)

	cmp	DWORD PTR _pResults$217334[ebp], 0
	jne	SHORT $LN21@CacheResul

; 503  : 		{
; 504  : 			const char* szSQL = "select UnitClasses.ID, Modifier, Attack, Defense from UnitPromotions_UnitClasses inner join UnitClasses on UnitClassType = UnitClasses.Type where PromotionType = ?";

	mov	DWORD PTR _szSQL$217336[ebp], OFFSET ??_C@_0KE@EBCBLBJP@select?5UnitClasses?4ID?0?5Modifier?0@

; 505  : 			pResults = kUtility.PrepareResults(sqlKey, szSQL);

	mov	eax, DWORD PTR _szSQL$217336[ebp]
	push	eax
	lea	ecx, DWORD PTR _sqlKey$217332[ebp]
	push	ecx
	mov	ecx, DWORD PTR _kUtility$[ebp]
	call	?PrepareResults@CvDatabaseUtility@@QAEPAVResults@Database@@ABV?$basic_string@DU?$char_traits@D@std@@V?$allocator@D@2@@std@@PBD@Z ; CvDatabaseUtility::PrepareResults
	mov	DWORD PTR _pResults$217334[ebp], eax
$LN21@CacheResul:

; 506  : 		}
; 507  : 
; 508  : 		CvAssert(pResults);
; 509  : 		if(!pResults) return false;

	cmp	DWORD PTR _pResults$217334[ebp], 0
	jne	SHORT $LN20@CacheResul
	mov	BYTE PTR $T219688[ebp], 0
	mov	DWORD PTR __$EHRec$[ebp+8], -1
	lea	ecx, DWORD PTR _sqlKey$217332[ebp]
	call	DWORD PTR __imp_??1?$basic_string@DU?$char_traits@D@std@@V?$allocator@D@2@@std@@QAE@XZ
	mov	al, BYTE PTR $T219688[ebp]
	jmp	$LN31@CacheResul
$LN20@CacheResul:

; 510  : 
; 511  : 		pResults->Bind(1, szPromotionType);

	push	1
	mov	edx, DWORD PTR _szPromotionType$[ebp]
	push	edx
	push	1
	mov	ecx, DWORD PTR _pResults$217334[ebp]
	call	DWORD PTR __imp_?Bind@Results@Database@@QAE_NHPBD_N@Z
$LN19@CacheResul:

; 512  : 
; 513  : 		while(pResults->Step())

	mov	ecx, DWORD PTR _pResults$217334[ebp]
	call	DWORD PTR __imp_?Step@Results@Database@@QAE_NXZ
	movzx	eax, al
	test	eax, eax
	je	$LN18@CacheResul

; 514  : 		{
; 515  : 			const int iUnitClassID = pResults->GetInt(0);

	push	0
	mov	ecx, DWORD PTR _pResults$217334[ebp]
	call	DWORD PTR __imp_?GetInt@Results@Database@@QAEHH@Z
	mov	DWORD PTR _iUnitClassID$217343[ebp], eax

; 516  : 			CvAssert(iUnitClassID > -1 && iUnitClassID  < iNumUnitClasses);
; 517  : 
; 518  : 			const int iModifier = pResults->GetInt("Modifier");

	push	OFFSET ??_C@_08GMKLKDKJ@Modifier?$AA@
	mov	ecx, DWORD PTR _pResults$217334[ebp]
	call	DWORD PTR __imp_?GetInt@Results@Database@@QAEHPBD@Z
	mov	DWORD PTR _iModifier$217344[ebp], eax

; 519  : 			m_piUnitClassModifierPercent[iUnitClassID] = iModifier;

	mov	ecx, DWORD PTR _this$[ebp]
	mov	edx, DWORD PTR [ecx+904]
	mov	eax, DWORD PTR _iUnitClassID$217343[ebp]
	mov	ecx, DWORD PTR _iModifier$217344[ebp]
	mov	DWORD PTR [edx+eax*4], ecx

; 520  : 
; 521  : 			const int iAttack = pResults->GetInt("Attack");

	push	OFFSET ??_C@_06FDAMAAOH@Attack?$AA@
	mov	ecx, DWORD PTR _pResults$217334[ebp]
	call	DWORD PTR __imp_?GetInt@Results@Database@@QAEHPBD@Z
	mov	DWORD PTR _iAttack$217346[ebp], eax

; 522  : 			m_piUnitClassAttackModifier[iUnitClassID] = iAttack;

	mov	edx, DWORD PTR _this$[ebp]
	mov	eax, DWORD PTR [edx+912]
	mov	ecx, DWORD PTR _iUnitClassID$217343[ebp]
	mov	edx, DWORD PTR _iAttack$217346[ebp]
	mov	DWORD PTR [eax+ecx*4], edx

; 523  : 
; 524  : 			const int iDefense = pResults->GetInt("Defense");

	push	OFFSET ??_C@_07PEDPFCGC@Defense?$AA@
	mov	ecx, DWORD PTR _pResults$217334[ebp]
	call	DWORD PTR __imp_?GetInt@Results@Database@@QAEHPBD@Z
	mov	DWORD PTR _iDefense$217347[ebp], eax

; 525  : 			m_piUnitClassDefenseModifier[iUnitClassID] = iDefense;

	mov	eax, DWORD PTR _this$[ebp]
	mov	ecx, DWORD PTR [eax+916]
	mov	edx, DWORD PTR _iUnitClassID$217343[ebp]
	mov	eax, DWORD PTR _iDefense$217347[ebp]
	mov	DWORD PTR [ecx+edx*4], eax

; 526  : 		}

	jmp	$LN19@CacheResul
$LN18@CacheResul:

; 527  : 
; 528  : 		pResults->Reset();

	mov	ecx, DWORD PTR _pResults$217334[ebp]
	call	DWORD PTR __imp_?Reset@Results@Database@@QAE_NXZ

; 529  : 	}

	mov	DWORD PTR __$EHRec$[ebp+8], -1
	lea	ecx, DWORD PTR _sqlKey$217332[ebp]
	call	DWORD PTR __imp_??1?$basic_string@DU?$char_traits@D@std@@V?$allocator@D@2@@std@@QAE@XZ

; 530  : 
; 531  : 	//UnitPromotions_Domains
; 532  : 	{
; 533  : 		kUtility.InitializeArray(m_piDomainModifierPercent, NUM_DOMAIN_TYPES, 0);

	push	0
	push	5
	mov	ecx, DWORD PTR _this$[ebp]
	add	ecx, 908				; 0000038cH
	push	ecx
	mov	ecx, DWORD PTR _kUtility$[ebp]
	call	?InitializeArray@CvDatabaseUtility@@QAEXAAPAHIH@Z ; CvDatabaseUtility::InitializeArray

; 534  : 
; 535  : 		std::string sqlKey = "m_piDomainModifierPercent";

	push	OFFSET ??_C@_0BK@DBHCJAOK@m_piDomainModifierPercent?$AA@
	lea	ecx, DWORD PTR _sqlKey$217348[ebp]
	call	DWORD PTR __imp_??0?$basic_string@DU?$char_traits@D@std@@V?$allocator@D@2@@std@@QAE@PBD@Z
	mov	DWORD PTR __$EHRec$[ebp+8], 3

; 536  : 		Database::Results* pResults = kUtility.GetResults(sqlKey);

	lea	edx, DWORD PTR _sqlKey$217348[ebp]
	push	edx
	mov	ecx, DWORD PTR _kUtility$[ebp]
	call	?GetResults@CvDatabaseUtility@@QAEPAVResults@Database@@ABV?$basic_string@DU?$char_traits@D@std@@V?$allocator@D@2@@std@@@Z ; CvDatabaseUtility::GetResults
	mov	DWORD PTR _pResults$217350[ebp], eax

; 537  : 		if(pResults == NULL)

	cmp	DWORD PTR _pResults$217350[ebp], 0
	jne	SHORT $LN17@CacheResul

; 538  : 		{
; 539  : 			const char* szSQL = "select Domains.ID, Modifier from UnitPromotions_Domains inner join Domains on DomainType = Domains.Type where PromotionType = ?;";

	mov	DWORD PTR _szSQL$217352[ebp], OFFSET ??_C@_0IB@HILEMOCB@select?5Domains?4ID?0?5Modifier?5from@

; 540  : 			pResults = kUtility.PrepareResults(sqlKey, szSQL);

	mov	eax, DWORD PTR _szSQL$217352[ebp]
	push	eax
	lea	ecx, DWORD PTR _sqlKey$217348[ebp]
	push	ecx
	mov	ecx, DWORD PTR _kUtility$[ebp]
	call	?PrepareResults@CvDatabaseUtility@@QAEPAVResults@Database@@ABV?$basic_string@DU?$char_traits@D@std@@V?$allocator@D@2@@std@@PBD@Z ; CvDatabaseUtility::PrepareResults
	mov	DWORD PTR _pResults$217350[ebp], eax
$LN17@CacheResul:

; 541  : 		}
; 542  : 
; 543  : 		CvAssert(pResults);
; 544  : 		if(!pResults) return false;

	cmp	DWORD PTR _pResults$217350[ebp], 0
	jne	SHORT $LN16@CacheResul
	mov	BYTE PTR $T219689[ebp], 0
	mov	DWORD PTR __$EHRec$[ebp+8], -1
	lea	ecx, DWORD PTR _sqlKey$217348[ebp]
	call	DWORD PTR __imp_??1?$basic_string@DU?$char_traits@D@std@@V?$allocator@D@2@@std@@QAE@XZ
	mov	al, BYTE PTR $T219689[ebp]
	jmp	$LN31@CacheResul
$LN16@CacheResul:

; 545  : 
; 546  : 		pResults->Bind(1, szPromotionType);

	push	1
	mov	edx, DWORD PTR _szPromotionType$[ebp]
	push	edx
	push	1
	mov	ecx, DWORD PTR _pResults$217350[ebp]
	call	DWORD PTR __imp_?Bind@Results@Database@@QAE_NHPBD_N@Z
$LN15@CacheResul:

; 547  : 
; 548  : 		while(pResults->Step())

	mov	ecx, DWORD PTR _pResults$217350[ebp]
	call	DWORD PTR __imp_?Step@Results@Database@@QAE_NXZ
	movzx	eax, al
	test	eax, eax
	je	SHORT $LN14@CacheResul

; 549  : 		{
; 550  : 			const int iDomainID = pResults->GetInt(0);

	push	0
	mov	ecx, DWORD PTR _pResults$217350[ebp]
	call	DWORD PTR __imp_?GetInt@Results@Database@@QAEHH@Z
	mov	DWORD PTR _iDomainID$217359[ebp], eax

; 551  : 			CvAssert(iDomainID > -1 && iDomainID < iNumDomains);
; 552  : 
; 553  : 			const int iDomainMod = pResults->GetInt(1);

	push	1
	mov	ecx, DWORD PTR _pResults$217350[ebp]
	call	DWORD PTR __imp_?GetInt@Results@Database@@QAEHH@Z
	mov	DWORD PTR _iDomainMod$217360[ebp], eax

; 554  : 			if (iDomainID > -1 && iDomainID < NUM_DOMAIN_TYPES)

	cmp	DWORD PTR _iDomainID$217359[ebp], -1
	jle	SHORT $LN13@CacheResul
	cmp	DWORD PTR _iDomainID$217359[ebp], 5
	jge	SHORT $LN13@CacheResul

; 555  : 				m_piDomainModifierPercent[iDomainID] = iDomainMod;

	mov	ecx, DWORD PTR _this$[ebp]
	mov	edx, DWORD PTR [ecx+908]
	mov	eax, DWORD PTR _iDomainID$217359[ebp]
	mov	ecx, DWORD PTR _iDomainMod$217360[ebp]
	mov	DWORD PTR [edx+eax*4], ecx
$LN13@CacheResul:

; 556  : 		}

	jmp	SHORT $LN15@CacheResul
$LN14@CacheResul:

; 557  : 
; 558  : 		pResults->Reset();

	mov	ecx, DWORD PTR _pResults$217350[ebp]
	call	DWORD PTR __imp_?Reset@Results@Database@@QAE_NXZ

; 559  : 	}

	mov	DWORD PTR __$EHRec$[ebp+8], -1
	lea	ecx, DWORD PTR _sqlKey$217348[ebp]
	call	DWORD PTR __imp_??1?$basic_string@DU?$char_traits@D@std@@V?$allocator@D@2@@std@@QAE@XZ

; 560  : 
; 561  : 	//UnitPromotions_UnitCombatMods
; 562  : 	{
; 563  : 		kUtility.InitializeArray(m_piUnitCombatModifierPercent, iNumUnitCombatClasses, 0);

	push	0
	mov	edx, DWORD PTR _iNumUnitCombatClasses$[ebp]
	push	edx
	mov	eax, DWORD PTR _this$[ebp]
	add	eax, 900				; 00000384H
	push	eax
	mov	ecx, DWORD PTR _kUtility$[ebp]
	call	?InitializeArray@CvDatabaseUtility@@QAEXAAPAHIH@Z ; CvDatabaseUtility::InitializeArray

; 564  : 
; 565  : 		std::string sqlKey = "m_piUnitCombatModifierPercent";

	push	OFFSET ??_C@_0BO@LDBGFCAB@m_piUnitCombatModifierPercent?$AA@
	lea	ecx, DWORD PTR _sqlKey$217362[ebp]
	call	DWORD PTR __imp_??0?$basic_string@DU?$char_traits@D@std@@V?$allocator@D@2@@std@@QAE@PBD@Z
	mov	DWORD PTR __$EHRec$[ebp+8], 4

; 566  : 		Database::Results* pResults = kUtility.GetResults(sqlKey);

	lea	ecx, DWORD PTR _sqlKey$217362[ebp]
	push	ecx
	mov	ecx, DWORD PTR _kUtility$[ebp]
	call	?GetResults@CvDatabaseUtility@@QAEPAVResults@Database@@ABV?$basic_string@DU?$char_traits@D@std@@V?$allocator@D@2@@std@@@Z ; CvDatabaseUtility::GetResults
	mov	DWORD PTR _pResults$217364[ebp], eax

; 567  : 		if(pResults == NULL)

	cmp	DWORD PTR _pResults$217364[ebp], 0
	jne	SHORT $LN12@CacheResul

; 568  : 		{
; 569  : 			const char* szSQL = "select UnitCombatInfos.ID, Modifier from UnitPromotions_UnitCombatMods inner join UnitCombatInfos on UnitCombatInfos.Type = UnitCombatType where PromotionType = ?;";

	mov	DWORD PTR _szSQL$217366[ebp], OFFSET ??_C@_0KE@HFFDPDLJ@select?5UnitCombatInfos?4ID?0?5Modif@

; 570  : 			pResults = kUtility.PrepareResults(sqlKey, szSQL);

	mov	edx, DWORD PTR _szSQL$217366[ebp]
	push	edx
	lea	eax, DWORD PTR _sqlKey$217362[ebp]
	push	eax
	mov	ecx, DWORD PTR _kUtility$[ebp]
	call	?PrepareResults@CvDatabaseUtility@@QAEPAVResults@Database@@ABV?$basic_string@DU?$char_traits@D@std@@V?$allocator@D@2@@std@@PBD@Z ; CvDatabaseUtility::PrepareResults
	mov	DWORD PTR _pResults$217364[ebp], eax
$LN12@CacheResul:

; 571  : 		}
; 572  : 
; 573  : 		CvAssert(pResults);
; 574  : 		if(!pResults) return false;

	cmp	DWORD PTR _pResults$217364[ebp], 0
	jne	SHORT $LN11@CacheResul
	mov	BYTE PTR $T219690[ebp], 0
	mov	DWORD PTR __$EHRec$[ebp+8], -1
	lea	ecx, DWORD PTR _sqlKey$217362[ebp]
	call	DWORD PTR __imp_??1?$basic_string@DU?$char_traits@D@std@@V?$allocator@D@2@@std@@QAE@XZ
	mov	al, BYTE PTR $T219690[ebp]
	jmp	$LN31@CacheResul
$LN11@CacheResul:

; 575  : 
; 576  : 		pResults->Bind(1, szPromotionType);

	push	1
	mov	ecx, DWORD PTR _szPromotionType$[ebp]
	push	ecx
	push	1
	mov	ecx, DWORD PTR _pResults$217364[ebp]
	call	DWORD PTR __imp_?Bind@Results@Database@@QAE_NHPBD_N@Z
$LN10@CacheResul:

; 577  : 
; 578  : 		while(pResults->Step())

	mov	ecx, DWORD PTR _pResults$217364[ebp]
	call	DWORD PTR __imp_?Step@Results@Database@@QAE_NXZ
	movzx	edx, al
	test	edx, edx
	je	SHORT $LN9@CacheResul

; 579  : 		{
; 580  : 			const int iUnitCombatID = pResults->GetInt(0);

	push	0
	mov	ecx, DWORD PTR _pResults$217364[ebp]
	call	DWORD PTR __imp_?GetInt@Results@Database@@QAEHH@Z
	mov	DWORD PTR _iUnitCombatID$217373[ebp], eax

; 581  : 			CvAssert(iUnitCombatID > -1 && iUnitCombatID < iNumUnitCombatClasses);
; 582  : 
; 583  : 			const int iUnitCombatMod = pResults->GetInt(1);

	push	1
	mov	ecx, DWORD PTR _pResults$217364[ebp]
	call	DWORD PTR __imp_?GetInt@Results@Database@@QAEHH@Z
	mov	DWORD PTR _iUnitCombatMod$217374[ebp], eax

; 584  : 			m_piUnitCombatModifierPercent[iUnitCombatID] = iUnitCombatMod;

	mov	eax, DWORD PTR _this$[ebp]
	mov	ecx, DWORD PTR [eax+900]
	mov	edx, DWORD PTR _iUnitCombatID$217373[ebp]
	mov	eax, DWORD PTR _iUnitCombatMod$217374[ebp]
	mov	DWORD PTR [ecx+edx*4], eax

; 585  : 		}

	jmp	SHORT $LN10@CacheResul
$LN9@CacheResul:

; 586  : 
; 587  : 		pResults->Reset();

	mov	ecx, DWORD PTR _pResults$217364[ebp]
	call	DWORD PTR __imp_?Reset@Results@Database@@QAE_NXZ

; 588  : 	}

	mov	DWORD PTR __$EHRec$[ebp+8], -1
	lea	ecx, DWORD PTR _sqlKey$217362[ebp]
	call	DWORD PTR __imp_??1?$basic_string@DU?$char_traits@D@std@@V?$allocator@D@2@@std@@QAE@XZ

; 589  : 
; 590  : 	//UnitPromotions_UnitCombats
; 591  : 	{
; 592  : 		kUtility.InitializeArray(m_pbUnitCombat, iNumUnitCombatClasses, false);

	mov	ecx, DWORD PTR _this$[ebp]
	add	ecx, 944				; 000003b0H
	mov	DWORD PTR $T219784[ebp], ecx
	mov	edx, DWORD PTR _iNumUnitCombatClasses$[ebp]
	push	edx
	call	??_U@YAPAXI@Z				; operator new[]
	add	esp, 4
	mov	DWORD PTR $T219783[ebp], eax
	mov	eax, DWORD PTR $T219784[ebp]
	mov	ecx, DWORD PTR $T219783[ebp]
	mov	DWORD PTR [eax], ecx
	xor	edx, edx
	cvtsi2ss xmm0, edx
	ucomiss	xmm0, DWORD PTR __real@00000000
	lahf
	test	ah, 68					; 00000044H
	jp	SHORT $LN151@CacheResul
	mov	eax, DWORD PTR _iNumUnitCombatClasses$[ebp]
	push	eax
	push	0
	mov	ecx, DWORD PTR $T219784[ebp]
	mov	edx, DWORD PTR [ecx]
	push	edx
	call	_memset
	add	esp, 12					; 0000000cH
	jmp	SHORT $LN147@CacheResul
$LN151@CacheResul:
	mov	DWORD PTR _i$219778[ebp], 0
	jmp	SHORT $LN149@CacheResul
$LN148@CacheResul:
	mov	eax, DWORD PTR _i$219778[ebp]
	add	eax, 1
	mov	DWORD PTR _i$219778[ebp], eax
$LN149@CacheResul:
	mov	ecx, DWORD PTR _i$219778[ebp]
	cmp	ecx, DWORD PTR _iNumUnitCombatClasses$[ebp]
	jae	SHORT $LN147@CacheResul
	mov	edx, DWORD PTR $T219784[ebp]
	mov	eax, DWORD PTR [edx]
	mov	ecx, DWORD PTR _i$219778[ebp]
	mov	BYTE PTR [eax+ecx], 0
	jmp	SHORT $LN148@CacheResul
$LN147@CacheResul:

; 593  : 
; 594  : 		std::string sqlKey = "m_pbUnitCombat";

	push	OFFSET ??_C@_0P@PJIJJEEF@m_pbUnitCombat?$AA@
	lea	ecx, DWORD PTR _sqlKey$217375[ebp]
	call	DWORD PTR __imp_??0?$basic_string@DU?$char_traits@D@std@@V?$allocator@D@2@@std@@QAE@PBD@Z
	mov	DWORD PTR __$EHRec$[ebp+8], 5

; 595  : 		Database::Results* pResults = kUtility.GetResults(sqlKey);

	lea	edx, DWORD PTR _sqlKey$217375[ebp]
	push	edx
	mov	ecx, DWORD PTR _kUtility$[ebp]
	call	?GetResults@CvDatabaseUtility@@QAEPAVResults@Database@@ABV?$basic_string@DU?$char_traits@D@std@@V?$allocator@D@2@@std@@@Z ; CvDatabaseUtility::GetResults
	mov	DWORD PTR _pResults$217377[ebp], eax

; 596  : 		if(pResults == NULL)

	cmp	DWORD PTR _pResults$217377[ebp], 0
	jne	SHORT $LN8@CacheResul

; 597  : 		{
; 598  : 			const char* szSQL = "select UnitCombatInfos.ID from UnitPromotions_UnitCombats inner join UnitCombatInfos On UnitCombatInfos.Type = UnitCombatType where PromotionType = ?";

	mov	DWORD PTR _szSQL$217379[ebp], OFFSET ??_C@_0JG@HINGKGDL@select?5UnitCombatInfos?4ID?5from?5U@

; 599  : 			pResults = kUtility.PrepareResults(sqlKey, szSQL);

	mov	eax, DWORD PTR _szSQL$217379[ebp]
	push	eax
	lea	ecx, DWORD PTR _sqlKey$217375[ebp]
	push	ecx
	mov	ecx, DWORD PTR _kUtility$[ebp]
	call	?PrepareResults@CvDatabaseUtility@@QAEPAVResults@Database@@ABV?$basic_string@DU?$char_traits@D@std@@V?$allocator@D@2@@std@@PBD@Z ; CvDatabaseUtility::PrepareResults
	mov	DWORD PTR _pResults$217377[ebp], eax
$LN8@CacheResul:

; 600  : 		}
; 601  : 
; 602  : 		CvAssert(pResults);
; 603  : 		if(!pResults) return false;

	cmp	DWORD PTR _pResults$217377[ebp], 0
	jne	SHORT $LN7@CacheResul
	mov	BYTE PTR $T219691[ebp], 0
	mov	DWORD PTR __$EHRec$[ebp+8], -1
	lea	ecx, DWORD PTR _sqlKey$217375[ebp]
	call	DWORD PTR __imp_??1?$basic_string@DU?$char_traits@D@std@@V?$allocator@D@2@@std@@QAE@XZ
	mov	al, BYTE PTR $T219691[ebp]
	jmp	$LN31@CacheResul
$LN7@CacheResul:

; 604  : 
; 605  : 		pResults->Bind(1, szPromotionType);

	push	1
	mov	edx, DWORD PTR _szPromotionType$[ebp]
	push	edx
	push	1
	mov	ecx, DWORD PTR _pResults$217377[ebp]
	call	DWORD PTR __imp_?Bind@Results@Database@@QAE_NHPBD_N@Z
$LN6@CacheResul:

; 606  : 
; 607  : 		while(pResults->Step())

	mov	ecx, DWORD PTR _pResults$217377[ebp]
	call	DWORD PTR __imp_?Step@Results@Database@@QAE_NXZ
	movzx	eax, al
	test	eax, eax
	je	SHORT $LN5@CacheResul

; 608  : 		{
; 609  : 			const int iUnitCombatInfoID = pResults->GetInt(0);

	push	0
	mov	ecx, DWORD PTR _pResults$217377[ebp]
	call	DWORD PTR __imp_?GetInt@Results@Database@@QAEHH@Z
	mov	DWORD PTR _iUnitCombatInfoID$217386[ebp], eax

; 610  : 			CvAssert(iUnitCombatInfoID < iNumUnitCombatClasses);
; 611  : 
; 612  : 			m_pbUnitCombat[iUnitCombatInfoID] = true;

	mov	ecx, DWORD PTR _this$[ebp]
	mov	edx, DWORD PTR [ecx+944]
	mov	eax, DWORD PTR _iUnitCombatInfoID$217386[ebp]
	mov	BYTE PTR [edx+eax], 1

; 613  : 		}

	jmp	SHORT $LN6@CacheResul
$LN5@CacheResul:

; 614  : 
; 615  : 		pResults->Reset();

	mov	ecx, DWORD PTR _pResults$217377[ebp]
	call	DWORD PTR __imp_?Reset@Results@Database@@QAE_NXZ

; 616  : 	}

	mov	DWORD PTR __$EHRec$[ebp+8], -1
	lea	ecx, DWORD PTR _sqlKey$217375[ebp]
	call	DWORD PTR __imp_??1?$basic_string@DU?$char_traits@D@std@@V?$allocator@D@2@@std@@QAE@XZ

; 617  : 
; 618  : 	//UnitPromotions_CivilianUnitType
; 619  : 	{
; 620  : 		kUtility.InitializeArray(m_pbCivilianUnitType, iNumUnitTypes, false);

	mov	ecx, DWORD PTR _this$[ebp]
	add	ecx, 948				; 000003b4H
	mov	DWORD PTR $T219796[ebp], ecx
	mov	edx, DWORD PTR _iNumUnitTypes$[ebp]
	push	edx
	call	??_U@YAPAXI@Z				; operator new[]
	add	esp, 4
	mov	DWORD PTR $T219795[ebp], eax
	mov	eax, DWORD PTR $T219796[ebp]
	mov	ecx, DWORD PTR $T219795[ebp]
	mov	DWORD PTR [eax], ecx
	xor	edx, edx
	cvtsi2ss xmm0, edx
	ucomiss	xmm0, DWORD PTR __real@00000000
	lahf
	test	ah, 68					; 00000044H
	jp	SHORT $LN158@CacheResul
	mov	eax, DWORD PTR _iNumUnitTypes$[ebp]
	push	eax
	push	0
	mov	ecx, DWORD PTR $T219796[ebp]
	mov	edx, DWORD PTR [ecx]
	push	edx
	call	_memset
	add	esp, 12					; 0000000cH
	jmp	SHORT $LN154@CacheResul
$LN158@CacheResul:
	mov	DWORD PTR _i$219790[ebp], 0
	jmp	SHORT $LN156@CacheResul
$LN155@CacheResul:
	mov	eax, DWORD PTR _i$219790[ebp]
	add	eax, 1
	mov	DWORD PTR _i$219790[ebp], eax
$LN156@CacheResul:
	mov	ecx, DWORD PTR _i$219790[ebp]
	cmp	ecx, DWORD PTR _iNumUnitTypes$[ebp]
	jae	SHORT $LN154@CacheResul
	mov	edx, DWORD PTR $T219796[ebp]
	mov	eax, DWORD PTR [edx]
	mov	ecx, DWORD PTR _i$219790[ebp]
	mov	BYTE PTR [eax+ecx], 0
	jmp	SHORT $LN155@CacheResul
$LN154@CacheResul:

; 621  : 
; 622  : 		std::string sqlKey = "m_pbCivilianUnitType";

	push	OFFSET ??_C@_0BF@DBJIKPBO@m_pbCivilianUnitType?$AA@
	lea	ecx, DWORD PTR _sqlKey$217387[ebp]
	call	DWORD PTR __imp_??0?$basic_string@DU?$char_traits@D@std@@V?$allocator@D@2@@std@@QAE@PBD@Z
	mov	DWORD PTR __$EHRec$[ebp+8], 6

; 623  : 		Database::Results* pResults = kUtility.GetResults(sqlKey);

	lea	edx, DWORD PTR _sqlKey$217387[ebp]
	push	edx
	mov	ecx, DWORD PTR _kUtility$[ebp]
	call	?GetResults@CvDatabaseUtility@@QAEPAVResults@Database@@ABV?$basic_string@DU?$char_traits@D@std@@V?$allocator@D@2@@std@@@Z ; CvDatabaseUtility::GetResults
	mov	DWORD PTR _pResults$217389[ebp], eax

; 624  : 		if(pResults == NULL)

	cmp	DWORD PTR _pResults$217389[ebp], 0
	jne	SHORT $LN4@CacheResul

; 625  : 		{
; 626  : 			const char* szSQL = "select Units.ID from UnitPromotions_CivilianUnitType inner join Units On Units.Type = UnitType where PromotionType = ?";

	mov	DWORD PTR _szSQL$217391[ebp], OFFSET ??_C@_0HH@DEKPGJFI@select?5Units?4ID?5from?5UnitPromoti@

; 627  : 			pResults = kUtility.PrepareResults(sqlKey, szSQL);

	mov	eax, DWORD PTR _szSQL$217391[ebp]
	push	eax
	lea	ecx, DWORD PTR _sqlKey$217387[ebp]
	push	ecx
	mov	ecx, DWORD PTR _kUtility$[ebp]
	call	?PrepareResults@CvDatabaseUtility@@QAEPAVResults@Database@@ABV?$basic_string@DU?$char_traits@D@std@@V?$allocator@D@2@@std@@PBD@Z ; CvDatabaseUtility::PrepareResults
	mov	DWORD PTR _pResults$217389[ebp], eax
$LN4@CacheResul:

; 628  : 		}
; 629  : 
; 630  : 		CvAssert(pResults);
; 631  : 		if(!pResults) return false;

	cmp	DWORD PTR _pResults$217389[ebp], 0
	jne	SHORT $LN3@CacheResul
	mov	BYTE PTR $T219692[ebp], 0
	mov	DWORD PTR __$EHRec$[ebp+8], -1
	lea	ecx, DWORD PTR _sqlKey$217387[ebp]
	call	DWORD PTR __imp_??1?$basic_string@DU?$char_traits@D@std@@V?$allocator@D@2@@std@@QAE@XZ
	mov	al, BYTE PTR $T219692[ebp]
	jmp	$LN31@CacheResul
$LN3@CacheResul:

; 632  : 
; 633  : 		pResults->Bind(1, szPromotionType);

	push	1
	mov	edx, DWORD PTR _szPromotionType$[ebp]
	push	edx
	push	1
	mov	ecx, DWORD PTR _pResults$217389[ebp]
	call	DWORD PTR __imp_?Bind@Results@Database@@QAE_NHPBD_N@Z
$LN2@CacheResul:

; 634  : 
; 635  : 		while(pResults->Step())

	mov	ecx, DWORD PTR _pResults$217389[ebp]
	call	DWORD PTR __imp_?Step@Results@Database@@QAE_NXZ
	movzx	eax, al
	test	eax, eax
	je	SHORT $LN1@CacheResul

; 636  : 		{
; 637  : 			const int iUnit = (UnitTypes)pResults->GetInt(0);

	push	0
	mov	ecx, DWORD PTR _pResults$217389[ebp]
	call	DWORD PTR __imp_?GetInt@Results@Database@@QAEHH@Z
	mov	DWORD PTR _iUnit$217398[ebp], eax

; 638  : 			CvAssert(iUnit < iNumUnitTypes);
; 639  : 
; 640  : 			m_pbCivilianUnitType[iUnit] = true;

	mov	ecx, DWORD PTR _this$[ebp]
	mov	edx, DWORD PTR [ecx+948]
	mov	eax, DWORD PTR _iUnit$217398[ebp]
	mov	BYTE PTR [edx+eax], 1

; 641  : 		}

	jmp	SHORT $LN2@CacheResul
$LN1@CacheResul:

; 642  : 
; 643  : 		pResults->Reset();

	mov	ecx, DWORD PTR _pResults$217389[ebp]
	call	DWORD PTR __imp_?Reset@Results@Database@@QAE_NXZ

; 644  : 	}

	mov	DWORD PTR __$EHRec$[ebp+8], -1
	lea	ecx, DWORD PTR _sqlKey$217387[ebp]
	call	DWORD PTR __imp_??1?$basic_string@DU?$char_traits@D@std@@V?$allocator@D@2@@std@@QAE@XZ

; 645  : 
; 646  : 	kUtility.PopulateArrayByExistence(m_pbPostCombatRandomPromotion,
; 647  : 		"UnitPromotions",
; 648  : 		"UnitPromotions_PostCombatRandomPromotion",
; 649  : 		"NewPromotion",
; 650  : 		"PromotionType",
; 651  : 		szPromotionType);

	mov	ecx, DWORD PTR _szPromotionType$[ebp]
	push	ecx
	push	OFFSET ??_C@_0O@IILJPJBB@PromotionType?$AA@
	push	OFFSET ??_C@_0N@FPMIADBK@NewPromotion?$AA@
	push	OFFSET ??_C@_0CJ@MBBLMIHA@UnitPromotions_PostCombatRandomP@
	push	OFFSET ??_C@_0P@GCBJCIAG@UnitPromotions?$AA@
	mov	edx, DWORD PTR _this$[ebp]
	add	edx, 952				; 000003b8H
	push	edx
	mov	ecx, DWORD PTR _kUtility$[ebp]
	call	?PopulateArrayByExistence@CvDatabaseUtility@@QAE_NAAPA_NPBD1111@Z ; CvDatabaseUtility::PopulateArrayByExistence

; 652  : 
; 653  : 	return true;

	mov	al, 1
$LN31@CacheResul:

; 654  : }

	mov	ecx, DWORD PTR __$EHRec$[ebp]
	mov	DWORD PTR fs:0, ecx
	pop	ecx
	mov	ecx, DWORD PTR __$ArrayPad$[ebp]
	xor	ecx, ebp
	call	@__security_check_cookie@4
	mov	esp, ebp
	pop	ebp
	ret	8
_TEXT	ENDS
;	COMDAT text$x
text$x	SEGMENT
__unwindfunclet$?CacheResults@CvPromotionEntry@@UAE_NAAVResults@Database@@AAVCvDatabaseUtility@@@Z$0:
	lea	ecx, DWORD PTR _sqlKey$217291[ebp]
	jmp	DWORD PTR __imp_??1?$basic_string@DU?$char_traits@D@std@@V?$allocator@D@2@@std@@QAE@XZ
__unwindfunclet$?CacheResults@CvPromotionEntry@@UAE_NAAVResults@Database@@AAVCvDatabaseUtility@@@Z$1:
	lea	ecx, DWORD PTR _sqlKey$217314[ebp]
	jmp	DWORD PTR __imp_??1?$basic_string@DU?$char_traits@D@std@@V?$allocator@D@2@@std@@QAE@XZ
__unwindfunclet$?CacheResults@CvPromotionEntry@@UAE_NAAVResults@Database@@AAVCvDatabaseUtility@@@Z$2:
	lea	ecx, DWORD PTR _sqlKey$217332[ebp]
	jmp	DWORD PTR __imp_??1?$basic_string@DU?$char_traits@D@std@@V?$allocator@D@2@@std@@QAE@XZ
__unwindfunclet$?CacheResults@CvPromotionEntry@@UAE_NAAVResults@Database@@AAVCvDatabaseUtility@@@Z$3:
	lea	ecx, DWORD PTR _sqlKey$217348[ebp]
	jmp	DWORD PTR __imp_??1?$basic_string@DU?$char_traits@D@std@@V?$allocator@D@2@@std@@QAE@XZ
__unwindfunclet$?CacheResults@CvPromotionEntry@@UAE_NAAVResults@Database@@AAVCvDatabaseUtility@@@Z$4:
	lea	ecx, DWORD PTR _sqlKey$217362[ebp]
	jmp	DWORD PTR __imp_??1?$basic_string@DU?$char_traits@D@std@@V?$allocator@D@2@@std@@QAE@XZ
__unwindfunclet$?CacheResults@CvPromotionEntry@@UAE_NAAVResults@Database@@AAVCvDatabaseUtility@@@Z$5:
	lea	ecx, DWORD PTR _sqlKey$217375[ebp]
	jmp	DWORD PTR __imp_??1?$basic_string@DU?$char_traits@D@std@@V?$allocator@D@2@@std@@QAE@XZ
__unwindfunclet$?CacheResults@CvPromotionEntry@@UAE_NAAVResults@Database@@AAVCvDatabaseUtility@@@Z$6:
	lea	ecx, DWORD PTR _sqlKey$217387[ebp]
	jmp	DWORD PTR __imp_??1?$basic_string@DU?$char_traits@D@std@@V?$allocator@D@2@@std@@QAE@XZ
__ehhandler$?CacheResults@CvPromotionEntry@@UAE_NAAVResults@Database@@AAVCvDatabaseUtility@@@Z:
	mov	edx, DWORD PTR [esp+8]
	lea	eax, DWORD PTR [edx+12]
	mov	ecx, DWORD PTR [edx-620]
	xor	ecx, eax
	call	@__security_check_cookie@4
	mov	ecx, DWORD PTR [edx-104]
	xor	ecx, eax
	call	@__security_check_cookie@4
	mov	eax, OFFSET __ehfuncinfo$?CacheResults@CvPromotionEntry@@UAE_NAAVResults@Database@@AAVCvDatabaseUtility@@@Z
	jmp	___CxxFrameHandler3
text$x	ENDS
?CacheResults@CvPromotionEntry@@UAE_NAAVResults@Database@@AAVCvDatabaseUtility@@@Z ENDP ; CvPromotionEntry::CacheResults
PUBLIC	?GetLayerAnimationPath@CvPromotionEntry@@QBEHXZ	; CvPromotionEntry::GetLayerAnimationPath
; Function compile flags: /Odtp
;	COMDAT ?GetLayerAnimationPath@CvPromotionEntry@@QBEHXZ
_TEXT	SEGMENT
_this$ = -4						; size = 4
?GetLayerAnimationPath@CvPromotionEntry@@QBEHXZ PROC	; CvPromotionEntry::GetLayerAnimationPath, COMDAT
; _this$ = ecx

; 658  : {

	push	ebp
	mov	ebp, esp
	push	ecx
	mov	DWORD PTR _this$[ebp], ecx

; 659  : 	return m_iLayerAnimationPath;

	mov	eax, DWORD PTR _this$[ebp]
	mov	eax, DWORD PTR [eax+460]

; 660  : }

	mov	esp, ebp
	pop	ebp
	ret	0
?GetLayerAnimationPath@CvPromotionEntry@@QBEHXZ ENDP	; CvPromotionEntry::GetLayerAnimationPath
_TEXT	ENDS
PUBLIC	?GetPrereqPromotion@CvPromotionEntry@@QBEHXZ	; CvPromotionEntry::GetPrereqPromotion
; Function compile flags: /Odtp
;	COMDAT ?GetPrereqPromotion@CvPromotionEntry@@QBEHXZ
_TEXT	SEGMENT
_this$ = -4						; size = 4
?GetPrereqPromotion@CvPromotionEntry@@QBEHXZ PROC	; CvPromotionEntry::GetPrereqPromotion, COMDAT
; _this$ = ecx

; 664  : {

	push	ebp
	mov	ebp, esp
	push	ecx
	mov	DWORD PTR _this$[ebp], ecx

; 665  : 	return m_iPrereqPromotion;

	mov	eax, DWORD PTR _this$[ebp]
	mov	eax, DWORD PTR [eax+464]

; 666  : }

	mov	esp, ebp
	pop	ebp
	ret	0
?GetPrereqPromotion@CvPromotionEntry@@QBEHXZ ENDP	; CvPromotionEntry::GetPrereqPromotion
_TEXT	ENDS
PUBLIC	?SetPrereqPromotion@CvPromotionEntry@@QAEXH@Z	; CvPromotionEntry::SetPrereqPromotion
; Function compile flags: /Odtp
;	COMDAT ?SetPrereqPromotion@CvPromotionEntry@@QAEXH@Z
_TEXT	SEGMENT
_this$ = -4						; size = 4
_i$ = 8							; size = 4
?SetPrereqPromotion@CvPromotionEntry@@QAEXH@Z PROC	; CvPromotionEntry::SetPrereqPromotion, COMDAT
; _this$ = ecx

; 670  : {

	push	ebp
	mov	ebp, esp
	push	ecx
	mov	DWORD PTR _this$[ebp], ecx

; 671  : 	m_iPrereqPromotion = i;

	mov	eax, DWORD PTR _this$[ebp]
	mov	ecx, DWORD PTR _i$[ebp]
	mov	DWORD PTR [eax+464], ecx

; 672  : }

	mov	esp, ebp
	pop	ebp
	ret	4
?SetPrereqPromotion@CvPromotionEntry@@QAEXH@Z ENDP	; CvPromotionEntry::SetPrereqPromotion
_TEXT	ENDS
PUBLIC	?GetPrereqOrPromotion1@CvPromotionEntry@@QBEHXZ	; CvPromotionEntry::GetPrereqOrPromotion1
; Function compile flags: /Odtp
;	COMDAT ?GetPrereqOrPromotion1@CvPromotionEntry@@QBEHXZ
_TEXT	SEGMENT
_this$ = -4						; size = 4
?GetPrereqOrPromotion1@CvPromotionEntry@@QBEHXZ PROC	; CvPromotionEntry::GetPrereqOrPromotion1, COMDAT
; _this$ = ecx

; 676  : {

	push	ebp
	mov	ebp, esp
	push	ecx
	mov	DWORD PTR _this$[ebp], ecx

; 677  : 	return m_iPrereqOrPromotion1;

	mov	eax, DWORD PTR _this$[ebp]
	mov	eax, DWORD PTR [eax+468]

; 678  : }

	mov	esp, ebp
	pop	ebp
	ret	0
?GetPrereqOrPromotion1@CvPromotionEntry@@QBEHXZ ENDP	; CvPromotionEntry::GetPrereqOrPromotion1
_TEXT	ENDS
PUBLIC	?SetPrereqOrPromotion1@CvPromotionEntry@@QAEXH@Z ; CvPromotionEntry::SetPrereqOrPromotion1
; Function compile flags: /Odtp
;	COMDAT ?SetPrereqOrPromotion1@CvPromotionEntry@@QAEXH@Z
_TEXT	SEGMENT
_this$ = -4						; size = 4
_i$ = 8							; size = 4
?SetPrereqOrPromotion1@CvPromotionEntry@@QAEXH@Z PROC	; CvPromotionEntry::SetPrereqOrPromotion1, COMDAT
; _this$ = ecx

; 682  : {

	push	ebp
	mov	ebp, esp
	push	ecx
	mov	DWORD PTR _this$[ebp], ecx

; 683  : 	m_iPrereqOrPromotion1 = i;

	mov	eax, DWORD PTR _this$[ebp]
	mov	ecx, DWORD PTR _i$[ebp]
	mov	DWORD PTR [eax+468], ecx

; 684  : }

	mov	esp, ebp
	pop	ebp
	ret	4
?SetPrereqOrPromotion1@CvPromotionEntry@@QAEXH@Z ENDP	; CvPromotionEntry::SetPrereqOrPromotion1
_TEXT	ENDS
PUBLIC	?GetPrereqOrPromotion2@CvPromotionEntry@@QBEHXZ	; CvPromotionEntry::GetPrereqOrPromotion2
; Function compile flags: /Odtp
;	COMDAT ?GetPrereqOrPromotion2@CvPromotionEntry@@QBEHXZ
_TEXT	SEGMENT
_this$ = -4						; size = 4
?GetPrereqOrPromotion2@CvPromotionEntry@@QBEHXZ PROC	; CvPromotionEntry::GetPrereqOrPromotion2, COMDAT
; _this$ = ecx

; 688  : {

	push	ebp
	mov	ebp, esp
	push	ecx
	mov	DWORD PTR _this$[ebp], ecx

; 689  : 	return m_iPrereqOrPromotion2;

	mov	eax, DWORD PTR _this$[ebp]
	mov	eax, DWORD PTR [eax+472]

; 690  : }

	mov	esp, ebp
	pop	ebp
	ret	0
?GetPrereqOrPromotion2@CvPromotionEntry@@QBEHXZ ENDP	; CvPromotionEntry::GetPrereqOrPromotion2
_TEXT	ENDS
PUBLIC	?SetPrereqOrPromotion2@CvPromotionEntry@@QAEXH@Z ; CvPromotionEntry::SetPrereqOrPromotion2
; Function compile flags: /Odtp
;	COMDAT ?SetPrereqOrPromotion2@CvPromotionEntry@@QAEXH@Z
_TEXT	SEGMENT
_this$ = -4						; size = 4
_i$ = 8							; size = 4
?SetPrereqOrPromotion2@CvPromotionEntry@@QAEXH@Z PROC	; CvPromotionEntry::SetPrereqOrPromotion2, COMDAT
; _this$ = ecx

; 694  : {

	push	ebp
	mov	ebp, esp
	push	ecx
	mov	DWORD PTR _this$[ebp], ecx

; 695  : 	m_iPrereqOrPromotion2 = i;

	mov	eax, DWORD PTR _this$[ebp]
	mov	ecx, DWORD PTR _i$[ebp]
	mov	DWORD PTR [eax+472], ecx

; 696  : }

	mov	esp, ebp
	pop	ebp
	ret	4
?SetPrereqOrPromotion2@CvPromotionEntry@@QAEXH@Z ENDP	; CvPromotionEntry::SetPrereqOrPromotion2
_TEXT	ENDS
PUBLIC	?GetPrereqOrPromotion3@CvPromotionEntry@@QBEHXZ	; CvPromotionEntry::GetPrereqOrPromotion3
; Function compile flags: /Odtp
;	COMDAT ?GetPrereqOrPromotion3@CvPromotionEntry@@QBEHXZ
_TEXT	SEGMENT
_this$ = -4						; size = 4
?GetPrereqOrPromotion3@CvPromotionEntry@@QBEHXZ PROC	; CvPromotionEntry::GetPrereqOrPromotion3, COMDAT
; _this$ = ecx

; 700  : {

	push	ebp
	mov	ebp, esp
	push	ecx
	mov	DWORD PTR _this$[ebp], ecx

; 701  : 	return m_iPrereqOrPromotion3;

	mov	eax, DWORD PTR _this$[ebp]
	mov	eax, DWORD PTR [eax+476]

; 702  : }

	mov	esp, ebp
	pop	ebp
	ret	0
?GetPrereqOrPromotion3@CvPromotionEntry@@QBEHXZ ENDP	; CvPromotionEntry::GetPrereqOrPromotion3
_TEXT	ENDS
PUBLIC	?SetPrereqOrPromotion3@CvPromotionEntry@@QAEXH@Z ; CvPromotionEntry::SetPrereqOrPromotion3
; Function compile flags: /Odtp
;	COMDAT ?SetPrereqOrPromotion3@CvPromotionEntry@@QAEXH@Z
_TEXT	SEGMENT
_this$ = -4						; size = 4
_i$ = 8							; size = 4
?SetPrereqOrPromotion3@CvPromotionEntry@@QAEXH@Z PROC	; CvPromotionEntry::SetPrereqOrPromotion3, COMDAT
; _this$ = ecx

; 706  : {

	push	ebp
	mov	ebp, esp
	push	ecx
	mov	DWORD PTR _this$[ebp], ecx

; 707  : 	m_iPrereqOrPromotion3 = i;

	mov	eax, DWORD PTR _this$[ebp]
	mov	ecx, DWORD PTR _i$[ebp]
	mov	DWORD PTR [eax+476], ecx

; 708  : }

	mov	esp, ebp
	pop	ebp
	ret	4
?SetPrereqOrPromotion3@CvPromotionEntry@@QAEXH@Z ENDP	; CvPromotionEntry::SetPrereqOrPromotion3
_TEXT	ENDS
PUBLIC	?GetPrereqOrPromotion4@CvPromotionEntry@@QBEHXZ	; CvPromotionEntry::GetPrereqOrPromotion4
; Function compile flags: /Odtp
;	COMDAT ?GetPrereqOrPromotion4@CvPromotionEntry@@QBEHXZ
_TEXT	SEGMENT
_this$ = -4						; size = 4
?GetPrereqOrPromotion4@CvPromotionEntry@@QBEHXZ PROC	; CvPromotionEntry::GetPrereqOrPromotion4, COMDAT
; _this$ = ecx

; 712  : {

	push	ebp
	mov	ebp, esp
	push	ecx
	mov	DWORD PTR _this$[ebp], ecx

; 713  : 	return m_iPrereqOrPromotion4;

	mov	eax, DWORD PTR _this$[ebp]
	mov	eax, DWORD PTR [eax+480]

; 714  : }

	mov	esp, ebp
	pop	ebp
	ret	0
?GetPrereqOrPromotion4@CvPromotionEntry@@QBEHXZ ENDP	; CvPromotionEntry::GetPrereqOrPromotion4
_TEXT	ENDS
PUBLIC	?SetPrereqOrPromotion4@CvPromotionEntry@@QAEXH@Z ; CvPromotionEntry::SetPrereqOrPromotion4
; Function compile flags: /Odtp
;	COMDAT ?SetPrereqOrPromotion4@CvPromotionEntry@@QAEXH@Z
_TEXT	SEGMENT
_this$ = -4						; size = 4
_i$ = 8							; size = 4
?SetPrereqOrPromotion4@CvPromotionEntry@@QAEXH@Z PROC	; CvPromotionEntry::SetPrereqOrPromotion4, COMDAT
; _this$ = ecx

; 718  : {

	push	ebp
	mov	ebp, esp
	push	ecx
	mov	DWORD PTR _this$[ebp], ecx

; 719  : 	m_iPrereqOrPromotion4 = i;

	mov	eax, DWORD PTR _this$[ebp]
	mov	ecx, DWORD PTR _i$[ebp]
	mov	DWORD PTR [eax+480], ecx

; 720  : }

	mov	esp, ebp
	pop	ebp
	ret	4
?SetPrereqOrPromotion4@CvPromotionEntry@@QAEXH@Z ENDP	; CvPromotionEntry::SetPrereqOrPromotion4
_TEXT	ENDS
PUBLIC	?GetPrereqOrPromotion5@CvPromotionEntry@@QBEHXZ	; CvPromotionEntry::GetPrereqOrPromotion5
; Function compile flags: /Odtp
;	COMDAT ?GetPrereqOrPromotion5@CvPromotionEntry@@QBEHXZ
_TEXT	SEGMENT
_this$ = -4						; size = 4
?GetPrereqOrPromotion5@CvPromotionEntry@@QBEHXZ PROC	; CvPromotionEntry::GetPrereqOrPromotion5, COMDAT
; _this$ = ecx

; 724  : {

	push	ebp
	mov	ebp, esp
	push	ecx
	mov	DWORD PTR _this$[ebp], ecx

; 725  : 	return m_iPrereqOrPromotion5;

	mov	eax, DWORD PTR _this$[ebp]
	mov	eax, DWORD PTR [eax+484]

; 726  : }

	mov	esp, ebp
	pop	ebp
	ret	0
?GetPrereqOrPromotion5@CvPromotionEntry@@QBEHXZ ENDP	; CvPromotionEntry::GetPrereqOrPromotion5
_TEXT	ENDS
PUBLIC	?SetPrereqOrPromotion5@CvPromotionEntry@@QAEXH@Z ; CvPromotionEntry::SetPrereqOrPromotion5
; Function compile flags: /Odtp
;	COMDAT ?SetPrereqOrPromotion5@CvPromotionEntry@@QAEXH@Z
_TEXT	SEGMENT
_this$ = -4						; size = 4
_i$ = 8							; size = 4
?SetPrereqOrPromotion5@CvPromotionEntry@@QAEXH@Z PROC	; CvPromotionEntry::SetPrereqOrPromotion5, COMDAT
; _this$ = ecx

; 730  : {

	push	ebp
	mov	ebp, esp
	push	ecx
	mov	DWORD PTR _this$[ebp], ecx

; 731  : 	m_iPrereqOrPromotion5 = i;

	mov	eax, DWORD PTR _this$[ebp]
	mov	ecx, DWORD PTR _i$[ebp]
	mov	DWORD PTR [eax+484], ecx

; 732  : }

	mov	esp, ebp
	pop	ebp
	ret	4
?SetPrereqOrPromotion5@CvPromotionEntry@@QAEXH@Z ENDP	; CvPromotionEntry::SetPrereqOrPromotion5
_TEXT	ENDS
PUBLIC	?GetPrereqOrPromotion6@CvPromotionEntry@@QBEHXZ	; CvPromotionEntry::GetPrereqOrPromotion6
; Function compile flags: /Odtp
;	COMDAT ?GetPrereqOrPromotion6@CvPromotionEntry@@QBEHXZ
_TEXT	SEGMENT
_this$ = -4						; size = 4
?GetPrereqOrPromotion6@CvPromotionEntry@@QBEHXZ PROC	; CvPromotionEntry::GetPrereqOrPromotion6, COMDAT
; _this$ = ecx

; 736  : {

	push	ebp
	mov	ebp, esp
	push	ecx
	mov	DWORD PTR _this$[ebp], ecx

; 737  : 	return m_iPrereqOrPromotion6;

	mov	eax, DWORD PTR _this$[ebp]
	mov	eax, DWORD PTR [eax+488]

; 738  : }

	mov	esp, ebp
	pop	ebp
	ret	0
?GetPrereqOrPromotion6@CvPromotionEntry@@QBEHXZ ENDP	; CvPromotionEntry::GetPrereqOrPromotion6
_TEXT	ENDS
PUBLIC	?SetPrereqOrPromotion6@CvPromotionEntry@@QAEXH@Z ; CvPromotionEntry::SetPrereqOrPromotion6
; Function compile flags: /Odtp
;	COMDAT ?SetPrereqOrPromotion6@CvPromotionEntry@@QAEXH@Z
_TEXT	SEGMENT
_this$ = -4						; size = 4
_i$ = 8							; size = 4
?SetPrereqOrPromotion6@CvPromotionEntry@@QAEXH@Z PROC	; CvPromotionEntry::SetPrereqOrPromotion6, COMDAT
; _this$ = ecx

; 742  : {

	push	ebp
	mov	ebp, esp
	push	ecx
	mov	DWORD PTR _this$[ebp], ecx

; 743  : 	m_iPrereqOrPromotion6 = i;

	mov	eax, DWORD PTR _this$[ebp]
	mov	ecx, DWORD PTR _i$[ebp]
	mov	DWORD PTR [eax+488], ecx

; 744  : }

	mov	esp, ebp
	pop	ebp
	ret	4
?SetPrereqOrPromotion6@CvPromotionEntry@@QAEXH@Z ENDP	; CvPromotionEntry::SetPrereqOrPromotion6
_TEXT	ENDS
PUBLIC	?GetPrereqOrPromotion7@CvPromotionEntry@@QBEHXZ	; CvPromotionEntry::GetPrereqOrPromotion7
; Function compile flags: /Odtp
;	COMDAT ?GetPrereqOrPromotion7@CvPromotionEntry@@QBEHXZ
_TEXT	SEGMENT
_this$ = -4						; size = 4
?GetPrereqOrPromotion7@CvPromotionEntry@@QBEHXZ PROC	; CvPromotionEntry::GetPrereqOrPromotion7, COMDAT
; _this$ = ecx

; 748  : {

	push	ebp
	mov	ebp, esp
	push	ecx
	mov	DWORD PTR _this$[ebp], ecx

; 749  : 	return m_iPrereqOrPromotion7;

	mov	eax, DWORD PTR _this$[ebp]
	mov	eax, DWORD PTR [eax+492]

; 750  : }

	mov	esp, ebp
	pop	ebp
	ret	0
?GetPrereqOrPromotion7@CvPromotionEntry@@QBEHXZ ENDP	; CvPromotionEntry::GetPrereqOrPromotion7
_TEXT	ENDS
PUBLIC	?SetPrereqOrPromotion7@CvPromotionEntry@@QAEXH@Z ; CvPromotionEntry::SetPrereqOrPromotion7
; Function compile flags: /Odtp
;	COMDAT ?SetPrereqOrPromotion7@CvPromotionEntry@@QAEXH@Z
_TEXT	SEGMENT
_this$ = -4						; size = 4
_i$ = 8							; size = 4
?SetPrereqOrPromotion7@CvPromotionEntry@@QAEXH@Z PROC	; CvPromotionEntry::SetPrereqOrPromotion7, COMDAT
; _this$ = ecx

; 754  : {

	push	ebp
	mov	ebp, esp
	push	ecx
	mov	DWORD PTR _this$[ebp], ecx

; 755  : 	m_iPrereqOrPromotion7 = i;

	mov	eax, DWORD PTR _this$[ebp]
	mov	ecx, DWORD PTR _i$[ebp]
	mov	DWORD PTR [eax+492], ecx

; 756  : }

	mov	esp, ebp
	pop	ebp
	ret	4
?SetPrereqOrPromotion7@CvPromotionEntry@@QAEXH@Z ENDP	; CvPromotionEntry::SetPrereqOrPromotion7
_TEXT	ENDS
PUBLIC	?GetPrereqOrPromotion8@CvPromotionEntry@@QBEHXZ	; CvPromotionEntry::GetPrereqOrPromotion8
; Function compile flags: /Odtp
;	COMDAT ?GetPrereqOrPromotion8@CvPromotionEntry@@QBEHXZ
_TEXT	SEGMENT
_this$ = -4						; size = 4
?GetPrereqOrPromotion8@CvPromotionEntry@@QBEHXZ PROC	; CvPromotionEntry::GetPrereqOrPromotion8, COMDAT
; _this$ = ecx

; 760  : {

	push	ebp
	mov	ebp, esp
	push	ecx
	mov	DWORD PTR _this$[ebp], ecx

; 761  : 	return m_iPrereqOrPromotion8;

	mov	eax, DWORD PTR _this$[ebp]
	mov	eax, DWORD PTR [eax+496]

; 762  : }

	mov	esp, ebp
	pop	ebp
	ret	0
?GetPrereqOrPromotion8@CvPromotionEntry@@QBEHXZ ENDP	; CvPromotionEntry::GetPrereqOrPromotion8
_TEXT	ENDS
PUBLIC	?SetPrereqOrPromotion8@CvPromotionEntry@@QAEXH@Z ; CvPromotionEntry::SetPrereqOrPromotion8
; Function compile flags: /Odtp
;	COMDAT ?SetPrereqOrPromotion8@CvPromotionEntry@@QAEXH@Z
_TEXT	SEGMENT
_this$ = -4						; size = 4
_i$ = 8							; size = 4
?SetPrereqOrPromotion8@CvPromotionEntry@@QAEXH@Z PROC	; CvPromotionEntry::SetPrereqOrPromotion8, COMDAT
; _this$ = ecx

; 766  : {

	push	ebp
	mov	ebp, esp
	push	ecx
	mov	DWORD PTR _this$[ebp], ecx

; 767  : 	m_iPrereqOrPromotion8 = i;

	mov	eax, DWORD PTR _this$[ebp]
	mov	ecx, DWORD PTR _i$[ebp]
	mov	DWORD PTR [eax+496], ecx

; 768  : }

	mov	esp, ebp
	pop	ebp
	ret	4
?SetPrereqOrPromotion8@CvPromotionEntry@@QAEXH@Z ENDP	; CvPromotionEntry::SetPrereqOrPromotion8
_TEXT	ENDS
PUBLIC	?GetPrereqOrPromotion9@CvPromotionEntry@@QBEHXZ	; CvPromotionEntry::GetPrereqOrPromotion9
; Function compile flags: /Odtp
;	COMDAT ?GetPrereqOrPromotion9@CvPromotionEntry@@QBEHXZ
_TEXT	SEGMENT
_this$ = -4						; size = 4
?GetPrereqOrPromotion9@CvPromotionEntry@@QBEHXZ PROC	; CvPromotionEntry::GetPrereqOrPromotion9, COMDAT
; _this$ = ecx

; 772  : {

	push	ebp
	mov	ebp, esp
	push	ecx
	mov	DWORD PTR _this$[ebp], ecx

; 773  : 	return m_iPrereqOrPromotion9;

	mov	eax, DWORD PTR _this$[ebp]
	mov	eax, DWORD PTR [eax+500]

; 774  : }

	mov	esp, ebp
	pop	ebp
	ret	0
?GetPrereqOrPromotion9@CvPromotionEntry@@QBEHXZ ENDP	; CvPromotionEntry::GetPrereqOrPromotion9
_TEXT	ENDS
PUBLIC	?SetPrereqOrPromotion9@CvPromotionEntry@@QAEXH@Z ; CvPromotionEntry::SetPrereqOrPromotion9
; Function compile flags: /Odtp
;	COMDAT ?SetPrereqOrPromotion9@CvPromotionEntry@@QAEXH@Z
_TEXT	SEGMENT
_this$ = -4						; size = 4
_i$ = 8							; size = 4
?SetPrereqOrPromotion9@CvPromotionEntry@@QAEXH@Z PROC	; CvPromotionEntry::SetPrereqOrPromotion9, COMDAT
; _this$ = ecx

; 778  : {

	push	ebp
	mov	ebp, esp
	push	ecx
	mov	DWORD PTR _this$[ebp], ecx

; 779  : 	m_iPrereqOrPromotion9 = i;

	mov	eax, DWORD PTR _this$[ebp]
	mov	ecx, DWORD PTR _i$[ebp]
	mov	DWORD PTR [eax+500], ecx

; 780  : }

	mov	esp, ebp
	pop	ebp
	ret	4
?SetPrereqOrPromotion9@CvPromotionEntry@@QAEXH@Z ENDP	; CvPromotionEntry::SetPrereqOrPromotion9
_TEXT	ENDS
PUBLIC	?GetPrereqOrPromotion10@CvPromotionEntry@@QBEHXZ ; CvPromotionEntry::GetPrereqOrPromotion10
; Function compile flags: /Odtp
;	COMDAT ?GetPrereqOrPromotion10@CvPromotionEntry@@QBEHXZ
_TEXT	SEGMENT
_this$ = -4						; size = 4
?GetPrereqOrPromotion10@CvPromotionEntry@@QBEHXZ PROC	; CvPromotionEntry::GetPrereqOrPromotion10, COMDAT
; _this$ = ecx

; 786  : {

	push	ebp
	mov	ebp, esp
	push	ecx
	mov	DWORD PTR _this$[ebp], ecx

; 787  : 	return m_iPrereqOrPromotion10;

	mov	eax, DWORD PTR _this$[ebp]
	mov	eax, DWORD PTR [eax+504]

; 788  : }

	mov	esp, ebp
	pop	ebp
	ret	0
?GetPrereqOrPromotion10@CvPromotionEntry@@QBEHXZ ENDP	; CvPromotionEntry::GetPrereqOrPromotion10
_TEXT	ENDS
PUBLIC	?SetPrereqOrPromotion10@CvPromotionEntry@@QAEXH@Z ; CvPromotionEntry::SetPrereqOrPromotion10
; Function compile flags: /Odtp
;	COMDAT ?SetPrereqOrPromotion10@CvPromotionEntry@@QAEXH@Z
_TEXT	SEGMENT
_this$ = -4						; size = 4
_i$ = 8							; size = 4
?SetPrereqOrPromotion10@CvPromotionEntry@@QAEXH@Z PROC	; CvPromotionEntry::SetPrereqOrPromotion10, COMDAT
; _this$ = ecx

; 792  : {

	push	ebp
	mov	ebp, esp
	push	ecx
	mov	DWORD PTR _this$[ebp], ecx

; 793  : 	m_iPrereqOrPromotion10 = i;

	mov	eax, DWORD PTR _this$[ebp]
	mov	ecx, DWORD PTR _i$[ebp]
	mov	DWORD PTR [eax+504], ecx

; 794  : }

	mov	esp, ebp
	pop	ebp
	ret	4
?SetPrereqOrPromotion10@CvPromotionEntry@@QAEXH@Z ENDP	; CvPromotionEntry::SetPrereqOrPromotion10
_TEXT	ENDS
PUBLIC	?GetTechPrereq@CvPromotionEntry@@QBEHXZ		; CvPromotionEntry::GetTechPrereq
; Function compile flags: /Odtp
;	COMDAT ?GetTechPrereq@CvPromotionEntry@@QBEHXZ
_TEXT	SEGMENT
_this$ = -4						; size = 4
?GetTechPrereq@CvPromotionEntry@@QBEHXZ PROC		; CvPromotionEntry::GetTechPrereq, COMDAT
; _this$ = ecx

; 800  : {

	push	ebp
	mov	ebp, esp
	push	ecx
	mov	DWORD PTR _this$[ebp], ecx

; 801  : 	return m_iTechPrereq;

	mov	eax, DWORD PTR _this$[ebp]
	mov	eax, DWORD PTR [eax+508]

; 802  : }

	mov	esp, ebp
	pop	ebp
	ret	0
?GetTechPrereq@CvPromotionEntry@@QBEHXZ ENDP		; CvPromotionEntry::GetTechPrereq
_TEXT	ENDS
PUBLIC	?GetInvisibleType@CvPromotionEntry@@QBEHXZ	; CvPromotionEntry::GetInvisibleType
; Function compile flags: /Odtp
;	COMDAT ?GetInvisibleType@CvPromotionEntry@@QBEHXZ
_TEXT	SEGMENT
_this$ = -4						; size = 4
?GetInvisibleType@CvPromotionEntry@@QBEHXZ PROC		; CvPromotionEntry::GetInvisibleType, COMDAT
; _this$ = ecx

; 806  : {

	push	ebp
	mov	ebp, esp
	push	ecx
	mov	DWORD PTR _this$[ebp], ecx

; 807  : 	return m_iInvisibleType;

	mov	eax, DWORD PTR _this$[ebp]
	mov	eax, DWORD PTR [eax+512]

; 808  : }

	mov	esp, ebp
	pop	ebp
	ret	0
?GetInvisibleType@CvPromotionEntry@@QBEHXZ ENDP		; CvPromotionEntry::GetInvisibleType
_TEXT	ENDS
PUBLIC	?GetSeeInvisibleType@CvPromotionEntry@@QBEHXZ	; CvPromotionEntry::GetSeeInvisibleType
; Function compile flags: /Odtp
;	COMDAT ?GetSeeInvisibleType@CvPromotionEntry@@QBEHXZ
_TEXT	SEGMENT
_this$ = -4						; size = 4
?GetSeeInvisibleType@CvPromotionEntry@@QBEHXZ PROC	; CvPromotionEntry::GetSeeInvisibleType, COMDAT
; _this$ = ecx

; 812  : {

	push	ebp
	mov	ebp, esp
	push	ecx
	mov	DWORD PTR _this$[ebp], ecx

; 813  : 	return m_iSeeInvisibleType;

	mov	eax, DWORD PTR _this$[ebp]
	mov	eax, DWORD PTR [eax+516]

; 814  : }

	mov	esp, ebp
	pop	ebp
	ret	0
?GetSeeInvisibleType@CvPromotionEntry@@QBEHXZ ENDP	; CvPromotionEntry::GetSeeInvisibleType
_TEXT	ENDS
PUBLIC	?GetVisibilityChange@CvPromotionEntry@@QBEHXZ	; CvPromotionEntry::GetVisibilityChange
; Function compile flags: /Odtp
;	COMDAT ?GetVisibilityChange@CvPromotionEntry@@QBEHXZ
_TEXT	SEGMENT
_this$ = -4						; size = 4
?GetVisibilityChange@CvPromotionEntry@@QBEHXZ PROC	; CvPromotionEntry::GetVisibilityChange, COMDAT
; _this$ = ecx

; 818  : {

	push	ebp
	mov	ebp, esp
	push	ecx
	mov	DWORD PTR _this$[ebp], ecx

; 819  : 	return m_iVisibilityChange;

	mov	eax, DWORD PTR _this$[ebp]
	mov	eax, DWORD PTR [eax+520]

; 820  : }

	mov	esp, ebp
	pop	ebp
	ret	0
?GetVisibilityChange@CvPromotionEntry@@QBEHXZ ENDP	; CvPromotionEntry::GetVisibilityChange
_TEXT	ENDS
PUBLIC	?GetMovesChange@CvPromotionEntry@@QBEHXZ	; CvPromotionEntry::GetMovesChange
; Function compile flags: /Odtp
;	COMDAT ?GetMovesChange@CvPromotionEntry@@QBEHXZ
_TEXT	SEGMENT
_this$ = -4						; size = 4
?GetMovesChange@CvPromotionEntry@@QBEHXZ PROC		; CvPromotionEntry::GetMovesChange, COMDAT
; _this$ = ecx

; 824  : {

	push	ebp
	mov	ebp, esp
	push	ecx
	mov	DWORD PTR _this$[ebp], ecx

; 825  : 	return m_iMovesChange;

	mov	eax, DWORD PTR _this$[ebp]
	mov	eax, DWORD PTR [eax+524]

; 826  : }

	mov	esp, ebp
	pop	ebp
	ret	0
?GetMovesChange@CvPromotionEntry@@QBEHXZ ENDP		; CvPromotionEntry::GetMovesChange
_TEXT	ENDS
PUBLIC	?GetMoveDiscountChange@CvPromotionEntry@@QBEHXZ	; CvPromotionEntry::GetMoveDiscountChange
; Function compile flags: /Odtp
;	COMDAT ?GetMoveDiscountChange@CvPromotionEntry@@QBEHXZ
_TEXT	SEGMENT
_this$ = -4						; size = 4
?GetMoveDiscountChange@CvPromotionEntry@@QBEHXZ PROC	; CvPromotionEntry::GetMoveDiscountChange, COMDAT
; _this$ = ecx

; 830  : {

	push	ebp
	mov	ebp, esp
	push	ecx
	mov	DWORD PTR _this$[ebp], ecx

; 831  : 	return m_iMoveDiscountChange;

	mov	eax, DWORD PTR _this$[ebp]
	mov	eax, DWORD PTR [eax+528]

; 832  : }

	mov	esp, ebp
	pop	ebp
	ret	0
?GetMoveDiscountChange@CvPromotionEntry@@QBEHXZ ENDP	; CvPromotionEntry::GetMoveDiscountChange
_TEXT	ENDS
PUBLIC	?GetRangeChange@CvPromotionEntry@@QBEHXZ	; CvPromotionEntry::GetRangeChange
; Function compile flags: /Odtp
;	COMDAT ?GetRangeChange@CvPromotionEntry@@QBEHXZ
_TEXT	SEGMENT
_this$ = -4						; size = 4
?GetRangeChange@CvPromotionEntry@@QBEHXZ PROC		; CvPromotionEntry::GetRangeChange, COMDAT
; _this$ = ecx

; 836  : {

	push	ebp
	mov	ebp, esp
	push	ecx
	mov	DWORD PTR _this$[ebp], ecx

; 837  : 	return m_iRangeChange;

	mov	eax, DWORD PTR _this$[ebp]
	mov	eax, DWORD PTR [eax+532]

; 838  : }

	mov	esp, ebp
	pop	ebp
	ret	0
?GetRangeChange@CvPromotionEntry@@QBEHXZ ENDP		; CvPromotionEntry::GetRangeChange
_TEXT	ENDS
PUBLIC	?GetRangedAttackModifier@CvPromotionEntry@@QBEHXZ ; CvPromotionEntry::GetRangedAttackModifier
; Function compile flags: /Odtp
;	COMDAT ?GetRangedAttackModifier@CvPromotionEntry@@QBEHXZ
_TEXT	SEGMENT
_this$ = -4						; size = 4
?GetRangedAttackModifier@CvPromotionEntry@@QBEHXZ PROC	; CvPromotionEntry::GetRangedAttackModifier, COMDAT
; _this$ = ecx

; 842  : {

	push	ebp
	mov	ebp, esp
	push	ecx
	mov	DWORD PTR _this$[ebp], ecx

; 843  : 	return m_iRangedAttackModifier;

	mov	eax, DWORD PTR _this$[ebp]
	mov	eax, DWORD PTR [eax+536]

; 844  : }

	mov	esp, ebp
	pop	ebp
	ret	0
?GetRangedAttackModifier@CvPromotionEntry@@QBEHXZ ENDP	; CvPromotionEntry::GetRangedAttackModifier
_TEXT	ENDS
PUBLIC	?GetInterceptionCombatModifier@CvPromotionEntry@@QBEHXZ ; CvPromotionEntry::GetInterceptionCombatModifier
; Function compile flags: /Odtp
;	COMDAT ?GetInterceptionCombatModifier@CvPromotionEntry@@QBEHXZ
_TEXT	SEGMENT
_this$ = -4						; size = 4
?GetInterceptionCombatModifier@CvPromotionEntry@@QBEHXZ PROC ; CvPromotionEntry::GetInterceptionCombatModifier, COMDAT
; _this$ = ecx

; 848  : {

	push	ebp
	mov	ebp, esp
	push	ecx
	mov	DWORD PTR _this$[ebp], ecx

; 849  : 	return m_iInterceptionCombatModifier;

	mov	eax, DWORD PTR _this$[ebp]
	mov	eax, DWORD PTR [eax+540]

; 850  : }

	mov	esp, ebp
	pop	ebp
	ret	0
?GetInterceptionCombatModifier@CvPromotionEntry@@QBEHXZ ENDP ; CvPromotionEntry::GetInterceptionCombatModifier
_TEXT	ENDS
PUBLIC	?GetInterceptionDefenseDamageModifier@CvPromotionEntry@@QBEHXZ ; CvPromotionEntry::GetInterceptionDefenseDamageModifier
; Function compile flags: /Odtp
;	COMDAT ?GetInterceptionDefenseDamageModifier@CvPromotionEntry@@QBEHXZ
_TEXT	SEGMENT
_this$ = -4						; size = 4
?GetInterceptionDefenseDamageModifier@CvPromotionEntry@@QBEHXZ PROC ; CvPromotionEntry::GetInterceptionDefenseDamageModifier, COMDAT
; _this$ = ecx

; 854  : {

	push	ebp
	mov	ebp, esp
	push	ecx
	mov	DWORD PTR _this$[ebp], ecx

; 855  : 	return m_iInterceptionDefenseDamageModifier;

	mov	eax, DWORD PTR _this$[ebp]
	mov	eax, DWORD PTR [eax+544]

; 856  : }

	mov	esp, ebp
	pop	ebp
	ret	0
?GetInterceptionDefenseDamageModifier@CvPromotionEntry@@QBEHXZ ENDP ; CvPromotionEntry::GetInterceptionDefenseDamageModifier
_TEXT	ENDS
PUBLIC	?GetAirSweepCombatModifier@CvPromotionEntry@@QBEHXZ ; CvPromotionEntry::GetAirSweepCombatModifier
; Function compile flags: /Odtp
;	COMDAT ?GetAirSweepCombatModifier@CvPromotionEntry@@QBEHXZ
_TEXT	SEGMENT
_this$ = -4						; size = 4
?GetAirSweepCombatModifier@CvPromotionEntry@@QBEHXZ PROC ; CvPromotionEntry::GetAirSweepCombatModifier, COMDAT
; _this$ = ecx

; 860  : {

	push	ebp
	mov	ebp, esp
	push	ecx
	mov	DWORD PTR _this$[ebp], ecx

; 861  : 	return m_iAirSweepCombatModifier;

	mov	eax, DWORD PTR _this$[ebp]
	mov	eax, DWORD PTR [eax+548]

; 862  : }

	mov	esp, ebp
	pop	ebp
	ret	0
?GetAirSweepCombatModifier@CvPromotionEntry@@QBEHXZ ENDP ; CvPromotionEntry::GetAirSweepCombatModifier
_TEXT	ENDS
PUBLIC	?GetInterceptChanceChange@CvPromotionEntry@@QBEHXZ ; CvPromotionEntry::GetInterceptChanceChange
; Function compile flags: /Odtp
;	COMDAT ?GetInterceptChanceChange@CvPromotionEntry@@QBEHXZ
_TEXT	SEGMENT
_this$ = -4						; size = 4
?GetInterceptChanceChange@CvPromotionEntry@@QBEHXZ PROC	; CvPromotionEntry::GetInterceptChanceChange, COMDAT
; _this$ = ecx

; 866  : {

	push	ebp
	mov	ebp, esp
	push	ecx
	mov	DWORD PTR _this$[ebp], ecx

; 867  : 	return m_iInterceptChanceChange;

	mov	eax, DWORD PTR _this$[ebp]
	mov	eax, DWORD PTR [eax+552]

; 868  : }

	mov	esp, ebp
	pop	ebp
	ret	0
?GetInterceptChanceChange@CvPromotionEntry@@QBEHXZ ENDP	; CvPromotionEntry::GetInterceptChanceChange
_TEXT	ENDS
PUBLIC	?GetNumInterceptionChange@CvPromotionEntry@@QBEHXZ ; CvPromotionEntry::GetNumInterceptionChange
; Function compile flags: /Odtp
;	COMDAT ?GetNumInterceptionChange@CvPromotionEntry@@QBEHXZ
_TEXT	SEGMENT
_this$ = -4						; size = 4
?GetNumInterceptionChange@CvPromotionEntry@@QBEHXZ PROC	; CvPromotionEntry::GetNumInterceptionChange, COMDAT
; _this$ = ecx

; 872  : {

	push	ebp
	mov	ebp, esp
	push	ecx
	mov	DWORD PTR _this$[ebp], ecx

; 873  : 	return m_iNumInterceptionChange;

	mov	eax, DWORD PTR _this$[ebp]
	mov	eax, DWORD PTR [eax+556]

; 874  : }

	mov	esp, ebp
	pop	ebp
	ret	0
?GetNumInterceptionChange@CvPromotionEntry@@QBEHXZ ENDP	; CvPromotionEntry::GetNumInterceptionChange
_TEXT	ENDS
PUBLIC	?GetEvasionChange@CvPromotionEntry@@QBEHXZ	; CvPromotionEntry::GetEvasionChange
; Function compile flags: /Odtp
;	COMDAT ?GetEvasionChange@CvPromotionEntry@@QBEHXZ
_TEXT	SEGMENT
_this$ = -4						; size = 4
?GetEvasionChange@CvPromotionEntry@@QBEHXZ PROC		; CvPromotionEntry::GetEvasionChange, COMDAT
; _this$ = ecx

; 878  : {

	push	ebp
	mov	ebp, esp
	push	ecx
	mov	DWORD PTR _this$[ebp], ecx

; 879  : 	return m_iEvasionChange;

	mov	eax, DWORD PTR _this$[ebp]
	mov	eax, DWORD PTR [eax+560]

; 880  : }

	mov	esp, ebp
	pop	ebp
	ret	0
?GetEvasionChange@CvPromotionEntry@@QBEHXZ ENDP		; CvPromotionEntry::GetEvasionChange
_TEXT	ENDS
PUBLIC	?GetCargoChange@CvPromotionEntry@@QBEHXZ	; CvPromotionEntry::GetCargoChange
; Function compile flags: /Odtp
;	COMDAT ?GetCargoChange@CvPromotionEntry@@QBEHXZ
_TEXT	SEGMENT
_this$ = -4						; size = 4
?GetCargoChange@CvPromotionEntry@@QBEHXZ PROC		; CvPromotionEntry::GetCargoChange, COMDAT
; _this$ = ecx

; 884  : {

	push	ebp
	mov	ebp, esp
	push	ecx
	mov	DWORD PTR _this$[ebp], ecx

; 885  : 	return m_iCargoChange;

	mov	eax, DWORD PTR _this$[ebp]
	mov	eax, DWORD PTR [eax+564]

; 886  : }

	mov	esp, ebp
	pop	ebp
	ret	0
?GetCargoChange@CvPromotionEntry@@QBEHXZ ENDP		; CvPromotionEntry::GetCargoChange
_TEXT	ENDS
PUBLIC	?GetEnemyHealChange@CvPromotionEntry@@QBEHXZ	; CvPromotionEntry::GetEnemyHealChange
; Function compile flags: /Odtp
;	COMDAT ?GetEnemyHealChange@CvPromotionEntry@@QBEHXZ
_TEXT	SEGMENT
_this$ = -4						; size = 4
?GetEnemyHealChange@CvPromotionEntry@@QBEHXZ PROC	; CvPromotionEntry::GetEnemyHealChange, COMDAT
; _this$ = ecx

; 890  : {

	push	ebp
	mov	ebp, esp
	push	ecx
	mov	DWORD PTR _this$[ebp], ecx

; 891  : 	return m_iEnemyHealChange;

	mov	eax, DWORD PTR _this$[ebp]
	mov	eax, DWORD PTR [eax+568]

; 892  : }

	mov	esp, ebp
	pop	ebp
	ret	0
?GetEnemyHealChange@CvPromotionEntry@@QBEHXZ ENDP	; CvPromotionEntry::GetEnemyHealChange
_TEXT	ENDS
PUBLIC	?GetNeutralHealChange@CvPromotionEntry@@QBEHXZ	; CvPromotionEntry::GetNeutralHealChange
; Function compile flags: /Odtp
;	COMDAT ?GetNeutralHealChange@CvPromotionEntry@@QBEHXZ
_TEXT	SEGMENT
_this$ = -4						; size = 4
?GetNeutralHealChange@CvPromotionEntry@@QBEHXZ PROC	; CvPromotionEntry::GetNeutralHealChange, COMDAT
; _this$ = ecx

; 896  : {

	push	ebp
	mov	ebp, esp
	push	ecx
	mov	DWORD PTR _this$[ebp], ecx

; 897  : 	return m_iNeutralHealChange;

	mov	eax, DWORD PTR _this$[ebp]
	mov	eax, DWORD PTR [eax+572]

; 898  : }

	mov	esp, ebp
	pop	ebp
	ret	0
?GetNeutralHealChange@CvPromotionEntry@@QBEHXZ ENDP	; CvPromotionEntry::GetNeutralHealChange
_TEXT	ENDS
PUBLIC	?GetFriendlyHealChange@CvPromotionEntry@@QBEHXZ	; CvPromotionEntry::GetFriendlyHealChange
; Function compile flags: /Odtp
;	COMDAT ?GetFriendlyHealChange@CvPromotionEntry@@QBEHXZ
_TEXT	SEGMENT
_this$ = -4						; size = 4
?GetFriendlyHealChange@CvPromotionEntry@@QBEHXZ PROC	; CvPromotionEntry::GetFriendlyHealChange, COMDAT
; _this$ = ecx

; 902  : {

	push	ebp
	mov	ebp, esp
	push	ecx
	mov	DWORD PTR _this$[ebp], ecx

; 903  : 	return m_iFriendlyHealChange;

	mov	eax, DWORD PTR _this$[ebp]
	mov	eax, DWORD PTR [eax+576]

; 904  : }

	mov	esp, ebp
	pop	ebp
	ret	0
?GetFriendlyHealChange@CvPromotionEntry@@QBEHXZ ENDP	; CvPromotionEntry::GetFriendlyHealChange
_TEXT	ENDS
PUBLIC	?GetSameTileHealChange@CvPromotionEntry@@QBEHXZ	; CvPromotionEntry::GetSameTileHealChange
; Function compile flags: /Odtp
;	COMDAT ?GetSameTileHealChange@CvPromotionEntry@@QBEHXZ
_TEXT	SEGMENT
_this$ = -4						; size = 4
?GetSameTileHealChange@CvPromotionEntry@@QBEHXZ PROC	; CvPromotionEntry::GetSameTileHealChange, COMDAT
; _this$ = ecx

; 908  : {

	push	ebp
	mov	ebp, esp
	push	ecx
	mov	DWORD PTR _this$[ebp], ecx

; 909  : 	return m_iSameTileHealChange;

	mov	eax, DWORD PTR _this$[ebp]
	mov	eax, DWORD PTR [eax+580]

; 910  : }

	mov	esp, ebp
	pop	ebp
	ret	0
?GetSameTileHealChange@CvPromotionEntry@@QBEHXZ ENDP	; CvPromotionEntry::GetSameTileHealChange
_TEXT	ENDS
PUBLIC	?GetAdjacentTileHealChange@CvPromotionEntry@@QBEHXZ ; CvPromotionEntry::GetAdjacentTileHealChange
; Function compile flags: /Odtp
;	COMDAT ?GetAdjacentTileHealChange@CvPromotionEntry@@QBEHXZ
_TEXT	SEGMENT
_this$ = -4						; size = 4
?GetAdjacentTileHealChange@CvPromotionEntry@@QBEHXZ PROC ; CvPromotionEntry::GetAdjacentTileHealChange, COMDAT
; _this$ = ecx

; 914  : {

	push	ebp
	mov	ebp, esp
	push	ecx
	mov	DWORD PTR _this$[ebp], ecx

; 915  : 	return m_iAdjacentTileHealChange;

	mov	eax, DWORD PTR _this$[ebp]
	mov	eax, DWORD PTR [eax+584]

; 916  : }

	mov	esp, ebp
	pop	ebp
	ret	0
?GetAdjacentTileHealChange@CvPromotionEntry@@QBEHXZ ENDP ; CvPromotionEntry::GetAdjacentTileHealChange
_TEXT	ENDS
PUBLIC	?GetEnemyDamageChance@CvPromotionEntry@@QBEHXZ	; CvPromotionEntry::GetEnemyDamageChance
; Function compile flags: /Odtp
;	COMDAT ?GetEnemyDamageChance@CvPromotionEntry@@QBEHXZ
_TEXT	SEGMENT
_this$ = -4						; size = 4
?GetEnemyDamageChance@CvPromotionEntry@@QBEHXZ PROC	; CvPromotionEntry::GetEnemyDamageChance, COMDAT
; _this$ = ecx

; 920  : {

	push	ebp
	mov	ebp, esp
	push	ecx
	mov	DWORD PTR _this$[ebp], ecx

; 921  : 	return m_iEnemyDamageChance;

	mov	eax, DWORD PTR _this$[ebp]
	mov	eax, DWORD PTR [eax+588]

; 922  : }

	mov	esp, ebp
	pop	ebp
	ret	0
?GetEnemyDamageChance@CvPromotionEntry@@QBEHXZ ENDP	; CvPromotionEntry::GetEnemyDamageChance
_TEXT	ENDS
PUBLIC	?GetNeutralDamageChance@CvPromotionEntry@@QBEHXZ ; CvPromotionEntry::GetNeutralDamageChance
; Function compile flags: /Odtp
;	COMDAT ?GetNeutralDamageChance@CvPromotionEntry@@QBEHXZ
_TEXT	SEGMENT
_this$ = -4						; size = 4
?GetNeutralDamageChance@CvPromotionEntry@@QBEHXZ PROC	; CvPromotionEntry::GetNeutralDamageChance, COMDAT
; _this$ = ecx

; 926  : {

	push	ebp
	mov	ebp, esp
	push	ecx
	mov	DWORD PTR _this$[ebp], ecx

; 927  : 	return m_iNeutralDamageChance;

	mov	eax, DWORD PTR _this$[ebp]
	mov	eax, DWORD PTR [eax+592]

; 928  : }

	mov	esp, ebp
	pop	ebp
	ret	0
?GetNeutralDamageChance@CvPromotionEntry@@QBEHXZ ENDP	; CvPromotionEntry::GetNeutralDamageChance
_TEXT	ENDS
PUBLIC	?GetEnemyDamage@CvPromotionEntry@@QBEHXZ	; CvPromotionEntry::GetEnemyDamage
; Function compile flags: /Odtp
;	COMDAT ?GetEnemyDamage@CvPromotionEntry@@QBEHXZ
_TEXT	SEGMENT
_this$ = -4						; size = 4
?GetEnemyDamage@CvPromotionEntry@@QBEHXZ PROC		; CvPromotionEntry::GetEnemyDamage, COMDAT
; _this$ = ecx

; 932  : {

	push	ebp
	mov	ebp, esp
	push	ecx
	mov	DWORD PTR _this$[ebp], ecx

; 933  : 	return m_iEnemyDamage;

	mov	eax, DWORD PTR _this$[ebp]
	mov	eax, DWORD PTR [eax+596]

; 934  : }

	mov	esp, ebp
	pop	ebp
	ret	0
?GetEnemyDamage@CvPromotionEntry@@QBEHXZ ENDP		; CvPromotionEntry::GetEnemyDamage
_TEXT	ENDS
PUBLIC	?GetNeutralDamage@CvPromotionEntry@@QBEHXZ	; CvPromotionEntry::GetNeutralDamage
; Function compile flags: /Odtp
;	COMDAT ?GetNeutralDamage@CvPromotionEntry@@QBEHXZ
_TEXT	SEGMENT
_this$ = -4						; size = 4
?GetNeutralDamage@CvPromotionEntry@@QBEHXZ PROC		; CvPromotionEntry::GetNeutralDamage, COMDAT
; _this$ = ecx

; 938  : {

	push	ebp
	mov	ebp, esp
	push	ecx
	mov	DWORD PTR _this$[ebp], ecx

; 939  : 	return m_iNeutralDamage;

	mov	eax, DWORD PTR _this$[ebp]
	mov	eax, DWORD PTR [eax+600]

; 940  : }

	mov	esp, ebp
	pop	ebp
	ret	0
?GetNeutralDamage@CvPromotionEntry@@QBEHXZ ENDP		; CvPromotionEntry::GetNeutralDamage
_TEXT	ENDS
PUBLIC	?GetCombatPercent@CvPromotionEntry@@QBEHXZ	; CvPromotionEntry::GetCombatPercent
; Function compile flags: /Odtp
;	COMDAT ?GetCombatPercent@CvPromotionEntry@@QBEHXZ
_TEXT	SEGMENT
_this$ = -4						; size = 4
?GetCombatPercent@CvPromotionEntry@@QBEHXZ PROC		; CvPromotionEntry::GetCombatPercent, COMDAT
; _this$ = ecx

; 944  : {

	push	ebp
	mov	ebp, esp
	push	ecx
	mov	DWORD PTR _this$[ebp], ecx

; 945  : 	return m_iCombatPercent;

	mov	eax, DWORD PTR _this$[ebp]
	mov	eax, DWORD PTR [eax+604]

; 946  : }

	mov	esp, ebp
	pop	ebp
	ret	0
?GetCombatPercent@CvPromotionEntry@@QBEHXZ ENDP		; CvPromotionEntry::GetCombatPercent
_TEXT	ENDS
PUBLIC	?GetCityAttackPercent@CvPromotionEntry@@QBEHXZ	; CvPromotionEntry::GetCityAttackPercent
; Function compile flags: /Odtp
;	COMDAT ?GetCityAttackPercent@CvPromotionEntry@@QBEHXZ
_TEXT	SEGMENT
_this$ = -4						; size = 4
?GetCityAttackPercent@CvPromotionEntry@@QBEHXZ PROC	; CvPromotionEntry::GetCityAttackPercent, COMDAT
; _this$ = ecx

; 950  : {

	push	ebp
	mov	ebp, esp
	push	ecx
	mov	DWORD PTR _this$[ebp], ecx

; 951  : 	return m_iCityAttackPercent;

	mov	eax, DWORD PTR _this$[ebp]
	mov	eax, DWORD PTR [eax+608]

; 952  : }

	mov	esp, ebp
	pop	ebp
	ret	0
?GetCityAttackPercent@CvPromotionEntry@@QBEHXZ ENDP	; CvPromotionEntry::GetCityAttackPercent
_TEXT	ENDS
PUBLIC	?GetCityDefensePercent@CvPromotionEntry@@QBEHXZ	; CvPromotionEntry::GetCityDefensePercent
; Function compile flags: /Odtp
;	COMDAT ?GetCityDefensePercent@CvPromotionEntry@@QBEHXZ
_TEXT	SEGMENT
_this$ = -4						; size = 4
?GetCityDefensePercent@CvPromotionEntry@@QBEHXZ PROC	; CvPromotionEntry::GetCityDefensePercent, COMDAT
; _this$ = ecx

; 956  : {

	push	ebp
	mov	ebp, esp
	push	ecx
	mov	DWORD PTR _this$[ebp], ecx

; 957  : 	return m_iCityDefensePercent;

	mov	eax, DWORD PTR _this$[ebp]
	mov	eax, DWORD PTR [eax+612]

; 958  : }

	mov	esp, ebp
	pop	ebp
	ret	0
?GetCityDefensePercent@CvPromotionEntry@@QBEHXZ ENDP	; CvPromotionEntry::GetCityDefensePercent
_TEXT	ENDS
PUBLIC	?GetRangedDefenseMod@CvPromotionEntry@@QBEHXZ	; CvPromotionEntry::GetRangedDefenseMod
; Function compile flags: /Odtp
;	COMDAT ?GetRangedDefenseMod@CvPromotionEntry@@QBEHXZ
_TEXT	SEGMENT
_this$ = -4						; size = 4
?GetRangedDefenseMod@CvPromotionEntry@@QBEHXZ PROC	; CvPromotionEntry::GetRangedDefenseMod, COMDAT
; _this$ = ecx

; 962  : {

	push	ebp
	mov	ebp, esp
	push	ecx
	mov	DWORD PTR _this$[ebp], ecx

; 963  : 	return m_iRangedDefenseMod;

	mov	eax, DWORD PTR _this$[ebp]
	mov	eax, DWORD PTR [eax+616]

; 964  : }

	mov	esp, ebp
	pop	ebp
	ret	0
?GetRangedDefenseMod@CvPromotionEntry@@QBEHXZ ENDP	; CvPromotionEntry::GetRangedDefenseMod
_TEXT	ENDS
PUBLIC	?GetHillsAttackPercent@CvPromotionEntry@@QBEHXZ	; CvPromotionEntry::GetHillsAttackPercent
; Function compile flags: /Odtp
;	COMDAT ?GetHillsAttackPercent@CvPromotionEntry@@QBEHXZ
_TEXT	SEGMENT
_this$ = -4						; size = 4
?GetHillsAttackPercent@CvPromotionEntry@@QBEHXZ PROC	; CvPromotionEntry::GetHillsAttackPercent, COMDAT
; _this$ = ecx

; 968  : {

	push	ebp
	mov	ebp, esp
	push	ecx
	mov	DWORD PTR _this$[ebp], ecx

; 969  : 	return m_iHillsAttackPercent;

	mov	eax, DWORD PTR _this$[ebp]
	mov	eax, DWORD PTR [eax+620]

; 970  : }

	mov	esp, ebp
	pop	ebp
	ret	0
?GetHillsAttackPercent@CvPromotionEntry@@QBEHXZ ENDP	; CvPromotionEntry::GetHillsAttackPercent
_TEXT	ENDS
PUBLIC	?GetHillsDefensePercent@CvPromotionEntry@@QBEHXZ ; CvPromotionEntry::GetHillsDefensePercent
; Function compile flags: /Odtp
;	COMDAT ?GetHillsDefensePercent@CvPromotionEntry@@QBEHXZ
_TEXT	SEGMENT
_this$ = -4						; size = 4
?GetHillsDefensePercent@CvPromotionEntry@@QBEHXZ PROC	; CvPromotionEntry::GetHillsDefensePercent, COMDAT
; _this$ = ecx

; 974  : {

	push	ebp
	mov	ebp, esp
	push	ecx
	mov	DWORD PTR _this$[ebp], ecx

; 975  : 	return m_iHillsDefensePercent;

	mov	eax, DWORD PTR _this$[ebp]
	mov	eax, DWORD PTR [eax+624]

; 976  : }

	mov	esp, ebp
	pop	ebp
	ret	0
?GetHillsDefensePercent@CvPromotionEntry@@QBEHXZ ENDP	; CvPromotionEntry::GetHillsDefensePercent
_TEXT	ENDS
PUBLIC	?GetOpenAttackPercent@CvPromotionEntry@@QBEHXZ	; CvPromotionEntry::GetOpenAttackPercent
; Function compile flags: /Odtp
;	COMDAT ?GetOpenAttackPercent@CvPromotionEntry@@QBEHXZ
_TEXT	SEGMENT
_this$ = -4						; size = 4
?GetOpenAttackPercent@CvPromotionEntry@@QBEHXZ PROC	; CvPromotionEntry::GetOpenAttackPercent, COMDAT
; _this$ = ecx

; 980  : {

	push	ebp
	mov	ebp, esp
	push	ecx
	mov	DWORD PTR _this$[ebp], ecx

; 981  : 	return m_iOpenAttackPercent;

	mov	eax, DWORD PTR _this$[ebp]
	mov	eax, DWORD PTR [eax+628]

; 982  : }

	mov	esp, ebp
	pop	ebp
	ret	0
?GetOpenAttackPercent@CvPromotionEntry@@QBEHXZ ENDP	; CvPromotionEntry::GetOpenAttackPercent
_TEXT	ENDS
PUBLIC	?GetOpenRangedAttackMod@CvPromotionEntry@@QBEHXZ ; CvPromotionEntry::GetOpenRangedAttackMod
; Function compile flags: /Odtp
;	COMDAT ?GetOpenRangedAttackMod@CvPromotionEntry@@QBEHXZ
_TEXT	SEGMENT
_this$ = -4						; size = 4
?GetOpenRangedAttackMod@CvPromotionEntry@@QBEHXZ PROC	; CvPromotionEntry::GetOpenRangedAttackMod, COMDAT
; _this$ = ecx

; 986  : {

	push	ebp
	mov	ebp, esp
	push	ecx
	mov	DWORD PTR _this$[ebp], ecx

; 987  : 	return m_iOpenRangedAttackMod;

	mov	eax, DWORD PTR _this$[ebp]
	mov	eax, DWORD PTR [eax+632]

; 988  : }

	mov	esp, ebp
	pop	ebp
	ret	0
?GetOpenRangedAttackMod@CvPromotionEntry@@QBEHXZ ENDP	; CvPromotionEntry::GetOpenRangedAttackMod
_TEXT	ENDS
PUBLIC	?GetRoughAttackPercent@CvPromotionEntry@@QBEHXZ	; CvPromotionEntry::GetRoughAttackPercent
; Function compile flags: /Odtp
;	COMDAT ?GetRoughAttackPercent@CvPromotionEntry@@QBEHXZ
_TEXT	SEGMENT
_this$ = -4						; size = 4
?GetRoughAttackPercent@CvPromotionEntry@@QBEHXZ PROC	; CvPromotionEntry::GetRoughAttackPercent, COMDAT
; _this$ = ecx

; 992  : {

	push	ebp
	mov	ebp, esp
	push	ecx
	mov	DWORD PTR _this$[ebp], ecx

; 993  : 	return m_iRoughAttackPercent;

	mov	eax, DWORD PTR _this$[ebp]
	mov	eax, DWORD PTR [eax+636]

; 994  : }

	mov	esp, ebp
	pop	ebp
	ret	0
?GetRoughAttackPercent@CvPromotionEntry@@QBEHXZ ENDP	; CvPromotionEntry::GetRoughAttackPercent
_TEXT	ENDS
PUBLIC	?GetRoughRangedAttackMod@CvPromotionEntry@@QBEHXZ ; CvPromotionEntry::GetRoughRangedAttackMod
; Function compile flags: /Odtp
;	COMDAT ?GetRoughRangedAttackMod@CvPromotionEntry@@QBEHXZ
_TEXT	SEGMENT
_this$ = -4						; size = 4
?GetRoughRangedAttackMod@CvPromotionEntry@@QBEHXZ PROC	; CvPromotionEntry::GetRoughRangedAttackMod, COMDAT
; _this$ = ecx

; 998  : {

	push	ebp
	mov	ebp, esp
	push	ecx
	mov	DWORD PTR _this$[ebp], ecx

; 999  : 	return m_iRoughRangedAttackMod;

	mov	eax, DWORD PTR _this$[ebp]
	mov	eax, DWORD PTR [eax+640]

; 1000 : }

	mov	esp, ebp
	pop	ebp
	ret	0
?GetRoughRangedAttackMod@CvPromotionEntry@@QBEHXZ ENDP	; CvPromotionEntry::GetRoughRangedAttackMod
_TEXT	ENDS
PUBLIC	?GetAttackFortifiedMod@CvPromotionEntry@@QBEHXZ	; CvPromotionEntry::GetAttackFortifiedMod
; Function compile flags: /Odtp
;	COMDAT ?GetAttackFortifiedMod@CvPromotionEntry@@QBEHXZ
_TEXT	SEGMENT
_this$ = -4						; size = 4
?GetAttackFortifiedMod@CvPromotionEntry@@QBEHXZ PROC	; CvPromotionEntry::GetAttackFortifiedMod, COMDAT
; _this$ = ecx

; 1004 : {

	push	ebp
	mov	ebp, esp
	push	ecx
	mov	DWORD PTR _this$[ebp], ecx

; 1005 : 	return m_iAttackFortifiedMod;

	mov	eax, DWORD PTR _this$[ebp]
	mov	eax, DWORD PTR [eax+644]

; 1006 : }

	mov	esp, ebp
	pop	ebp
	ret	0
?GetAttackFortifiedMod@CvPromotionEntry@@QBEHXZ ENDP	; CvPromotionEntry::GetAttackFortifiedMod
_TEXT	ENDS
PUBLIC	?GetAttackWoundedMod@CvPromotionEntry@@QBEHXZ	; CvPromotionEntry::GetAttackWoundedMod
; Function compile flags: /Odtp
;	COMDAT ?GetAttackWoundedMod@CvPromotionEntry@@QBEHXZ
_TEXT	SEGMENT
_this$ = -4						; size = 4
?GetAttackWoundedMod@CvPromotionEntry@@QBEHXZ PROC	; CvPromotionEntry::GetAttackWoundedMod, COMDAT
; _this$ = ecx

; 1010 : {

	push	ebp
	mov	ebp, esp
	push	ecx
	mov	DWORD PTR _this$[ebp], ecx

; 1011 : 	return m_iAttackWoundedMod;

	mov	eax, DWORD PTR _this$[ebp]
	mov	eax, DWORD PTR [eax+648]

; 1012 : }

	mov	esp, ebp
	pop	ebp
	ret	0
?GetAttackWoundedMod@CvPromotionEntry@@QBEHXZ ENDP	; CvPromotionEntry::GetAttackWoundedMod
_TEXT	ENDS
PUBLIC	?GetFlankAttackModifier@CvPromotionEntry@@QBEHXZ ; CvPromotionEntry::GetFlankAttackModifier
; Function compile flags: /Odtp
;	COMDAT ?GetFlankAttackModifier@CvPromotionEntry@@QBEHXZ
_TEXT	SEGMENT
_this$ = -4						; size = 4
?GetFlankAttackModifier@CvPromotionEntry@@QBEHXZ PROC	; CvPromotionEntry::GetFlankAttackModifier, COMDAT
; _this$ = ecx

; 1016 : {

	push	ebp
	mov	ebp, esp
	push	ecx
	mov	DWORD PTR _this$[ebp], ecx

; 1017 : 	return m_iFlankAttackModifier;

	mov	eax, DWORD PTR _this$[ebp]
	mov	eax, DWORD PTR [eax+652]

; 1018 : }

	mov	esp, ebp
	pop	ebp
	ret	0
?GetFlankAttackModifier@CvPromotionEntry@@QBEHXZ ENDP	; CvPromotionEntry::GetFlankAttackModifier
_TEXT	ENDS
PUBLIC	?GetNearbyEnemyCombatMod@CvPromotionEntry@@QBEHXZ ; CvPromotionEntry::GetNearbyEnemyCombatMod
; Function compile flags: /Odtp
;	COMDAT ?GetNearbyEnemyCombatMod@CvPromotionEntry@@QBEHXZ
_TEXT	SEGMENT
_this$ = -4						; size = 4
?GetNearbyEnemyCombatMod@CvPromotionEntry@@QBEHXZ PROC	; CvPromotionEntry::GetNearbyEnemyCombatMod, COMDAT
; _this$ = ecx

; 1022 : {

	push	ebp
	mov	ebp, esp
	push	ecx
	mov	DWORD PTR _this$[ebp], ecx

; 1023 : 	return m_iNearbyEnemyCombatMod;

	mov	eax, DWORD PTR _this$[ebp]
	mov	eax, DWORD PTR [eax+656]

; 1024 : }

	mov	esp, ebp
	pop	ebp
	ret	0
?GetNearbyEnemyCombatMod@CvPromotionEntry@@QBEHXZ ENDP	; CvPromotionEntry::GetNearbyEnemyCombatMod
_TEXT	ENDS
PUBLIC	?GetNearbyEnemyCombatRange@CvPromotionEntry@@QBEHXZ ; CvPromotionEntry::GetNearbyEnemyCombatRange
; Function compile flags: /Odtp
;	COMDAT ?GetNearbyEnemyCombatRange@CvPromotionEntry@@QBEHXZ
_TEXT	SEGMENT
_this$ = -4						; size = 4
?GetNearbyEnemyCombatRange@CvPromotionEntry@@QBEHXZ PROC ; CvPromotionEntry::GetNearbyEnemyCombatRange, COMDAT
; _this$ = ecx

; 1028 : {

	push	ebp
	mov	ebp, esp
	push	ecx
	mov	DWORD PTR _this$[ebp], ecx

; 1029 : 	return m_iNearbyEnemyCombatRange;

	mov	eax, DWORD PTR _this$[ebp]
	mov	eax, DWORD PTR [eax+660]

; 1030 : }

	mov	esp, ebp
	pop	ebp
	ret	0
?GetNearbyEnemyCombatRange@CvPromotionEntry@@QBEHXZ ENDP ; CvPromotionEntry::GetNearbyEnemyCombatRange
_TEXT	ENDS
PUBLIC	?GetOpenDefensePercent@CvPromotionEntry@@QBEHXZ	; CvPromotionEntry::GetOpenDefensePercent
; Function compile flags: /Odtp
;	COMDAT ?GetOpenDefensePercent@CvPromotionEntry@@QBEHXZ
_TEXT	SEGMENT
_this$ = -4						; size = 4
?GetOpenDefensePercent@CvPromotionEntry@@QBEHXZ PROC	; CvPromotionEntry::GetOpenDefensePercent, COMDAT
; _this$ = ecx

; 1034 : {

	push	ebp
	mov	ebp, esp
	push	ecx
	mov	DWORD PTR _this$[ebp], ecx

; 1035 : 	return m_iOpenDefensePercent;

	mov	eax, DWORD PTR _this$[ebp]
	mov	eax, DWORD PTR [eax+664]

; 1036 : }

	mov	esp, ebp
	pop	ebp
	ret	0
?GetOpenDefensePercent@CvPromotionEntry@@QBEHXZ ENDP	; CvPromotionEntry::GetOpenDefensePercent
_TEXT	ENDS
PUBLIC	?GetRoughDefensePercent@CvPromotionEntry@@QBEHXZ ; CvPromotionEntry::GetRoughDefensePercent
; Function compile flags: /Odtp
;	COMDAT ?GetRoughDefensePercent@CvPromotionEntry@@QBEHXZ
_TEXT	SEGMENT
_this$ = -4						; size = 4
?GetRoughDefensePercent@CvPromotionEntry@@QBEHXZ PROC	; CvPromotionEntry::GetRoughDefensePercent, COMDAT
; _this$ = ecx

; 1040 : {

	push	ebp
	mov	ebp, esp
	push	ecx
	mov	DWORD PTR _this$[ebp], ecx

; 1041 : 	return m_iRoughDefensePercent;

	mov	eax, DWORD PTR _this$[ebp]
	mov	eax, DWORD PTR [eax+668]

; 1042 : }

	mov	esp, ebp
	pop	ebp
	ret	0
?GetRoughDefensePercent@CvPromotionEntry@@QBEHXZ ENDP	; CvPromotionEntry::GetRoughDefensePercent
_TEXT	ENDS
PUBLIC	?GetExtraAttacks@CvPromotionEntry@@QBEHXZ	; CvPromotionEntry::GetExtraAttacks
; Function compile flags: /Odtp
;	COMDAT ?GetExtraAttacks@CvPromotionEntry@@QBEHXZ
_TEXT	SEGMENT
_this$ = -4						; size = 4
?GetExtraAttacks@CvPromotionEntry@@QBEHXZ PROC		; CvPromotionEntry::GetExtraAttacks, COMDAT
; _this$ = ecx

; 1046 : {

	push	ebp
	mov	ebp, esp
	push	ecx
	mov	DWORD PTR _this$[ebp], ecx

; 1047 : 	return m_iExtraAttacks;

	mov	eax, DWORD PTR _this$[ebp]
	mov	eax, DWORD PTR [eax+672]

; 1048 : }

	mov	esp, ebp
	pop	ebp
	ret	0
?GetExtraAttacks@CvPromotionEntry@@QBEHXZ ENDP		; CvPromotionEntry::GetExtraAttacks
_TEXT	ENDS
PUBLIC	?IsGreatGeneral@CvPromotionEntry@@QBE_NXZ	; CvPromotionEntry::IsGreatGeneral
; Function compile flags: /Odtp
;	COMDAT ?IsGreatGeneral@CvPromotionEntry@@QBE_NXZ
_TEXT	SEGMENT
_this$ = -4						; size = 4
?IsGreatGeneral@CvPromotionEntry@@QBE_NXZ PROC		; CvPromotionEntry::IsGreatGeneral, COMDAT
; _this$ = ecx

; 1052 : {

	push	ebp
	mov	ebp, esp
	push	ecx
	mov	DWORD PTR _this$[ebp], ecx

; 1053 : 	return m_bGreatGeneral;

	mov	eax, DWORD PTR _this$[ebp]
	mov	al, BYTE PTR [eax+676]

; 1054 : }

	mov	esp, ebp
	pop	ebp
	ret	0
?IsGreatGeneral@CvPromotionEntry@@QBE_NXZ ENDP		; CvPromotionEntry::IsGreatGeneral
_TEXT	ENDS
PUBLIC	?IsGreatAdmiral@CvPromotionEntry@@QBE_NXZ	; CvPromotionEntry::IsGreatAdmiral
; Function compile flags: /Odtp
;	COMDAT ?IsGreatAdmiral@CvPromotionEntry@@QBE_NXZ
_TEXT	SEGMENT
_this$ = -4						; size = 4
?IsGreatAdmiral@CvPromotionEntry@@QBE_NXZ PROC		; CvPromotionEntry::IsGreatAdmiral, COMDAT
; _this$ = ecx

; 1058 : {

	push	ebp
	mov	ebp, esp
	push	ecx
	mov	DWORD PTR _this$[ebp], ecx

; 1059 : 	return m_bGreatAdmiral;

	mov	eax, DWORD PTR _this$[ebp]
	mov	al, BYTE PTR [eax+677]

; 1060 : }

	mov	esp, ebp
	pop	ebp
	ret	0
?IsGreatAdmiral@CvPromotionEntry@@QBE_NXZ ENDP		; CvPromotionEntry::IsGreatAdmiral
_TEXT	ENDS
PUBLIC	?GetGreatGeneralModifier@CvPromotionEntry@@QBEHXZ ; CvPromotionEntry::GetGreatGeneralModifier
; Function compile flags: /Odtp
;	COMDAT ?GetGreatGeneralModifier@CvPromotionEntry@@QBEHXZ
_TEXT	SEGMENT
_this$ = -4						; size = 4
?GetGreatGeneralModifier@CvPromotionEntry@@QBEHXZ PROC	; CvPromotionEntry::GetGreatGeneralModifier, COMDAT
; _this$ = ecx

; 1064 : {

	push	ebp
	mov	ebp, esp
	push	ecx
	mov	DWORD PTR _this$[ebp], ecx

; 1065 : 	return m_iGreatGeneralModifier;

	mov	eax, DWORD PTR _this$[ebp]
	mov	eax, DWORD PTR [eax+680]

; 1066 : }

	mov	esp, ebp
	pop	ebp
	ret	0
?GetGreatGeneralModifier@CvPromotionEntry@@QBEHXZ ENDP	; CvPromotionEntry::GetGreatGeneralModifier
_TEXT	ENDS
PUBLIC	?IsGreatGeneralReceivesMovement@CvPromotionEntry@@QBE_NXZ ; CvPromotionEntry::IsGreatGeneralReceivesMovement
; Function compile flags: /Odtp
;	COMDAT ?IsGreatGeneralReceivesMovement@CvPromotionEntry@@QBE_NXZ
_TEXT	SEGMENT
_this$ = -4						; size = 4
?IsGreatGeneralReceivesMovement@CvPromotionEntry@@QBE_NXZ PROC ; CvPromotionEntry::IsGreatGeneralReceivesMovement, COMDAT
; _this$ = ecx

; 1070 : {

	push	ebp
	mov	ebp, esp
	push	ecx
	mov	DWORD PTR _this$[ebp], ecx

; 1071 : 	return m_bGreatGeneralReceivesMovement;

	mov	eax, DWORD PTR _this$[ebp]
	mov	al, BYTE PTR [eax+684]

; 1072 : }

	mov	esp, ebp
	pop	ebp
	ret	0
?IsGreatGeneralReceivesMovement@CvPromotionEntry@@QBE_NXZ ENDP ; CvPromotionEntry::IsGreatGeneralReceivesMovement
_TEXT	ENDS
PUBLIC	?IsEmbarkedUnitReceivesMovement@CvPromotionEntry@@QBE_NXZ ; CvPromotionEntry::IsEmbarkedUnitReceivesMovement
; Function compile flags: /Odtp
;	COMDAT ?IsEmbarkedUnitReceivesMovement@CvPromotionEntry@@QBE_NXZ
_TEXT	SEGMENT
_this$ = -4						; size = 4
?IsEmbarkedUnitReceivesMovement@CvPromotionEntry@@QBE_NXZ PROC ; CvPromotionEntry::IsEmbarkedUnitReceivesMovement, COMDAT
; _this$ = ecx

; 1077 : {

	push	ebp
	mov	ebp, esp
	push	ecx
	mov	DWORD PTR _this$[ebp], ecx

; 1078 : 	return m_bEmbarkedUnitReceivesMovement;

	mov	eax, DWORD PTR _this$[ebp]
	mov	al, BYTE PTR [eax+685]

; 1079 : }

	mov	esp, ebp
	pop	ebp
	ret	0
?IsEmbarkedUnitReceivesMovement@CvPromotionEntry@@QBE_NXZ ENDP ; CvPromotionEntry::IsEmbarkedUnitReceivesMovement
_TEXT	ENDS
PUBLIC	?GetGreatGeneralOnOrAdjacentConfersMovement@CvPromotionEntry@@QBEHXZ ; CvPromotionEntry::GetGreatGeneralOnOrAdjacentConfersMovement
; Function compile flags: /Odtp
;	COMDAT ?GetGreatGeneralOnOrAdjacentConfersMovement@CvPromotionEntry@@QBEHXZ
_TEXT	SEGMENT
_this$ = -4						; size = 4
?GetGreatGeneralOnOrAdjacentConfersMovement@CvPromotionEntry@@QBEHXZ PROC ; CvPromotionEntry::GetGreatGeneralOnOrAdjacentConfersMovement, COMDAT
; _this$ = ecx

; 1085 : {

	push	ebp
	mov	ebp, esp
	push	ecx
	mov	DWORD PTR _this$[ebp], ecx

; 1086 : 	return m_iGreatGeneralOnOrAdjacentConfersMovement;

	mov	eax, DWORD PTR _this$[ebp]
	mov	eax, DWORD PTR [eax+688]

; 1087 : }

	mov	esp, ebp
	pop	ebp
	ret	0
?GetGreatGeneralOnOrAdjacentConfersMovement@CvPromotionEntry@@QBEHXZ ENDP ; CvPromotionEntry::GetGreatGeneralOnOrAdjacentConfersMovement
_TEXT	ENDS
PUBLIC	?GetGreatGeneralCombatModifier@CvPromotionEntry@@QBEHXZ ; CvPromotionEntry::GetGreatGeneralCombatModifier
; Function compile flags: /Odtp
;	COMDAT ?GetGreatGeneralCombatModifier@CvPromotionEntry@@QBEHXZ
_TEXT	SEGMENT
_this$ = -4						; size = 4
?GetGreatGeneralCombatModifier@CvPromotionEntry@@QBEHXZ PROC ; CvPromotionEntry::GetGreatGeneralCombatModifier, COMDAT
; _this$ = ecx

; 1093 : {

	push	ebp
	mov	ebp, esp
	push	ecx
	mov	DWORD PTR _this$[ebp], ecx

; 1094 : 	return m_iGreatGeneralCombatModifier;

	mov	eax, DWORD PTR _this$[ebp]
	mov	eax, DWORD PTR [eax+692]

; 1095 : }

	mov	esp, ebp
	pop	ebp
	ret	0
?GetGreatGeneralCombatModifier@CvPromotionEntry@@QBEHXZ ENDP ; CvPromotionEntry::GetGreatGeneralCombatModifier
_TEXT	ENDS
PUBLIC	?GetFriendlyLandsModifier@CvPromotionEntry@@QBEHXZ ; CvPromotionEntry::GetFriendlyLandsModifier
; Function compile flags: /Odtp
;	COMDAT ?GetFriendlyLandsModifier@CvPromotionEntry@@QBEHXZ
_TEXT	SEGMENT
_this$ = -4						; size = 4
?GetFriendlyLandsModifier@CvPromotionEntry@@QBEHXZ PROC	; CvPromotionEntry::GetFriendlyLandsModifier, COMDAT
; _this$ = ecx

; 1099 : {

	push	ebp
	mov	ebp, esp
	push	ecx
	mov	DWORD PTR _this$[ebp], ecx

; 1100 : 	return m_iFriendlyLandsModifier;

	mov	eax, DWORD PTR _this$[ebp]
	mov	eax, DWORD PTR [eax+696]

; 1101 : }

	mov	esp, ebp
	pop	ebp
	ret	0
?GetFriendlyLandsModifier@CvPromotionEntry@@QBEHXZ ENDP	; CvPromotionEntry::GetFriendlyLandsModifier
_TEXT	ENDS
PUBLIC	?GetFriendlyLandsAttackModifier@CvPromotionEntry@@QBEHXZ ; CvPromotionEntry::GetFriendlyLandsAttackModifier
; Function compile flags: /Odtp
;	COMDAT ?GetFriendlyLandsAttackModifier@CvPromotionEntry@@QBEHXZ
_TEXT	SEGMENT
_this$ = -4						; size = 4
?GetFriendlyLandsAttackModifier@CvPromotionEntry@@QBEHXZ PROC ; CvPromotionEntry::GetFriendlyLandsAttackModifier, COMDAT
; _this$ = ecx

; 1105 : {

	push	ebp
	mov	ebp, esp
	push	ecx
	mov	DWORD PTR _this$[ebp], ecx

; 1106 : 	return m_iFriendlyLandsAttackModifier;

	mov	eax, DWORD PTR _this$[ebp]
	mov	eax, DWORD PTR [eax+700]

; 1107 : }

	mov	esp, ebp
	pop	ebp
	ret	0
?GetFriendlyLandsAttackModifier@CvPromotionEntry@@QBEHXZ ENDP ; CvPromotionEntry::GetFriendlyLandsAttackModifier
_TEXT	ENDS
PUBLIC	?GetOutsideFriendlyLandsModifier@CvPromotionEntry@@QBEHXZ ; CvPromotionEntry::GetOutsideFriendlyLandsModifier
; Function compile flags: /Odtp
;	COMDAT ?GetOutsideFriendlyLandsModifier@CvPromotionEntry@@QBEHXZ
_TEXT	SEGMENT
_this$ = -4						; size = 4
?GetOutsideFriendlyLandsModifier@CvPromotionEntry@@QBEHXZ PROC ; CvPromotionEntry::GetOutsideFriendlyLandsModifier, COMDAT
; _this$ = ecx

; 1111 : {

	push	ebp
	mov	ebp, esp
	push	ecx
	mov	DWORD PTR _this$[ebp], ecx

; 1112 : 	return m_iOutsideFriendlyLandsModifier;

	mov	eax, DWORD PTR _this$[ebp]
	mov	eax, DWORD PTR [eax+704]

; 1113 : }

	mov	esp, ebp
	pop	ebp
	ret	0
?GetOutsideFriendlyLandsModifier@CvPromotionEntry@@QBEHXZ ENDP ; CvPromotionEntry::GetOutsideFriendlyLandsModifier
_TEXT	ENDS
PUBLIC	?GetGoldenAgeForeignAttackBonus@CvPromotionEntry@@QBEHXZ ; CvPromotionEntry::GetGoldenAgeForeignAttackBonus
; Function compile flags: /Odtp
;	COMDAT ?GetGoldenAgeForeignAttackBonus@CvPromotionEntry@@QBEHXZ
_TEXT	SEGMENT
_this$ = -4						; size = 4
?GetGoldenAgeForeignAttackBonus@CvPromotionEntry@@QBEHXZ PROC ; CvPromotionEntry::GetGoldenAgeForeignAttackBonus, COMDAT
; _this$ = ecx

; 1118 : {

	push	ebp
	mov	ebp, esp
	push	ecx
	mov	DWORD PTR _this$[ebp], ecx

; 1119 : 	return m_iGoldenAgeForeignAttackBonus;

	mov	eax, DWORD PTR _this$[ebp]
	mov	eax, DWORD PTR [eax+708]

; 1120 : }

	mov	esp, ebp
	pop	ebp
	ret	0
?GetGoldenAgeForeignAttackBonus@CvPromotionEntry@@QBEHXZ ENDP ; CvPromotionEntry::GetGoldenAgeForeignAttackBonus
_TEXT	ENDS
PUBLIC	?GetCombatStrengthNearFriendlyMinor@CvPromotionEntry@@QBEHXZ ; CvPromotionEntry::GetCombatStrengthNearFriendlyMinor
; Function compile flags: /Odtp
;	COMDAT ?GetCombatStrengthNearFriendlyMinor@CvPromotionEntry@@QBEHXZ
_TEXT	SEGMENT
_this$ = -4						; size = 4
?GetCombatStrengthNearFriendlyMinor@CvPromotionEntry@@QBEHXZ PROC ; CvPromotionEntry::GetCombatStrengthNearFriendlyMinor, COMDAT
; _this$ = ecx

; 1126 : {

	push	ebp
	mov	ebp, esp
	push	ecx
	mov	DWORD PTR _this$[ebp], ecx

; 1127 : 	return m_iCombatStrengthNearFriendlyMinor;

	mov	eax, DWORD PTR _this$[ebp]
	mov	eax, DWORD PTR [eax+712]

; 1128 : }

	mov	esp, ebp
	pop	ebp
	ret	0
?GetCombatStrengthNearFriendlyMinor@CvPromotionEntry@@QBEHXZ ENDP ; CvPromotionEntry::GetCombatStrengthNearFriendlyMinor
_TEXT	ENDS
PUBLIC	?GetCommandType@CvPromotionEntry@@QBEHXZ	; CvPromotionEntry::GetCommandType
; Function compile flags: /Odtp
;	COMDAT ?GetCommandType@CvPromotionEntry@@QBEHXZ
_TEXT	SEGMENT
_this$ = -4						; size = 4
?GetCommandType@CvPromotionEntry@@QBEHXZ PROC		; CvPromotionEntry::GetCommandType, COMDAT
; _this$ = ecx

; 1133 : {

	push	ebp
	mov	ebp, esp
	push	ecx
	mov	DWORD PTR _this$[ebp], ecx

; 1134 : 	return m_iCommandType;

	mov	eax, DWORD PTR _this$[ebp]
	mov	eax, DWORD PTR [eax+716]

; 1135 : }

	mov	esp, ebp
	pop	ebp
	ret	0
?GetCommandType@CvPromotionEntry@@QBEHXZ ENDP		; CvPromotionEntry::GetCommandType
_TEXT	ENDS
PUBLIC	?SetCommandType@CvPromotionEntry@@QAEXH@Z	; CvPromotionEntry::SetCommandType
; Function compile flags: /Odtp
;	COMDAT ?SetCommandType@CvPromotionEntry@@QAEXH@Z
_TEXT	SEGMENT
_this$ = -4						; size = 4
_iNewType$ = 8						; size = 4
?SetCommandType@CvPromotionEntry@@QAEXH@Z PROC		; CvPromotionEntry::SetCommandType, COMDAT
; _this$ = ecx

; 1139 : {

	push	ebp
	mov	ebp, esp
	push	ecx
	mov	DWORD PTR _this$[ebp], ecx

; 1140 : 	m_iCommandType = iNewType;

	mov	eax, DWORD PTR _this$[ebp]
	mov	ecx, DWORD PTR _iNewType$[ebp]
	mov	DWORD PTR [eax+716], ecx

; 1141 : }

	mov	esp, ebp
	pop	ebp
	ret	4
?SetCommandType@CvPromotionEntry@@QAEXH@Z ENDP		; CvPromotionEntry::SetCommandType
_TEXT	ENDS
PUBLIC	?GetUpgradeDiscount@CvPromotionEntry@@QBEHXZ	; CvPromotionEntry::GetUpgradeDiscount
; Function compile flags: /Odtp
;	COMDAT ?GetUpgradeDiscount@CvPromotionEntry@@QBEHXZ
_TEXT	SEGMENT
_this$ = -4						; size = 4
?GetUpgradeDiscount@CvPromotionEntry@@QBEHXZ PROC	; CvPromotionEntry::GetUpgradeDiscount, COMDAT
; _this$ = ecx

; 1145 : {

	push	ebp
	mov	ebp, esp
	push	ecx
	mov	DWORD PTR _this$[ebp], ecx

; 1146 : 	return m_iUpgradeDiscount;

	mov	eax, DWORD PTR _this$[ebp]
	mov	eax, DWORD PTR [eax+720]

; 1147 : }

	mov	esp, ebp
	pop	ebp
	ret	0
?GetUpgradeDiscount@CvPromotionEntry@@QBEHXZ ENDP	; CvPromotionEntry::GetUpgradeDiscount
_TEXT	ENDS
PUBLIC	?GetExperiencePercent@CvPromotionEntry@@QBEHXZ	; CvPromotionEntry::GetExperiencePercent
; Function compile flags: /Odtp
;	COMDAT ?GetExperiencePercent@CvPromotionEntry@@QBEHXZ
_TEXT	SEGMENT
_this$ = -4						; size = 4
?GetExperiencePercent@CvPromotionEntry@@QBEHXZ PROC	; CvPromotionEntry::GetExperiencePercent, COMDAT
; _this$ = ecx

; 1151 : {

	push	ebp
	mov	ebp, esp
	push	ecx
	mov	DWORD PTR _this$[ebp], ecx

; 1152 : 	return m_iExperiencePercent;

	mov	eax, DWORD PTR _this$[ebp]
	mov	eax, DWORD PTR [eax+724]

; 1153 : }

	mov	esp, ebp
	pop	ebp
	ret	0
?GetExperiencePercent@CvPromotionEntry@@QBEHXZ ENDP	; CvPromotionEntry::GetExperiencePercent
_TEXT	ENDS
PUBLIC	?GetAdjacentMod@CvPromotionEntry@@QBEHXZ	; CvPromotionEntry::GetAdjacentMod
; Function compile flags: /Odtp
;	COMDAT ?GetAdjacentMod@CvPromotionEntry@@QBEHXZ
_TEXT	SEGMENT
_this$ = -4						; size = 4
?GetAdjacentMod@CvPromotionEntry@@QBEHXZ PROC		; CvPromotionEntry::GetAdjacentMod, COMDAT
; _this$ = ecx

; 1157 : {

	push	ebp
	mov	ebp, esp
	push	ecx
	mov	DWORD PTR _this$[ebp], ecx

; 1158 : 	return m_iAdjacentMod;

	mov	eax, DWORD PTR _this$[ebp]
	mov	eax, DWORD PTR [eax+728]

; 1159 : }

	mov	esp, ebp
	pop	ebp
	ret	0
?GetAdjacentMod@CvPromotionEntry@@QBEHXZ ENDP		; CvPromotionEntry::GetAdjacentMod
_TEXT	ENDS
PUBLIC	?GetAttackMod@CvPromotionEntry@@QBEHXZ		; CvPromotionEntry::GetAttackMod
; Function compile flags: /Odtp
;	COMDAT ?GetAttackMod@CvPromotionEntry@@QBEHXZ
_TEXT	SEGMENT
_this$ = -4						; size = 4
?GetAttackMod@CvPromotionEntry@@QBEHXZ PROC		; CvPromotionEntry::GetAttackMod, COMDAT
; _this$ = ecx

; 1163 : {

	push	ebp
	mov	ebp, esp
	push	ecx
	mov	DWORD PTR _this$[ebp], ecx

; 1164 : 	return m_iAttackMod;

	mov	eax, DWORD PTR _this$[ebp]
	mov	eax, DWORD PTR [eax+732]

; 1165 : }

	mov	esp, ebp
	pop	ebp
	ret	0
?GetAttackMod@CvPromotionEntry@@QBEHXZ ENDP		; CvPromotionEntry::GetAttackMod
_TEXT	ENDS
PUBLIC	?GetDefenseMod@CvPromotionEntry@@QBEHXZ		; CvPromotionEntry::GetDefenseMod
; Function compile flags: /Odtp
;	COMDAT ?GetDefenseMod@CvPromotionEntry@@QBEHXZ
_TEXT	SEGMENT
_this$ = -4						; size = 4
?GetDefenseMod@CvPromotionEntry@@QBEHXZ PROC		; CvPromotionEntry::GetDefenseMod, COMDAT
; _this$ = ecx

; 1169 : {

	push	ebp
	mov	ebp, esp
	push	ecx
	mov	DWORD PTR _this$[ebp], ecx

; 1170 : 	return m_iDefenseMod;

	mov	eax, DWORD PTR _this$[ebp]
	mov	eax, DWORD PTR [eax+736]

; 1171 : }

	mov	esp, ebp
	pop	ebp
	ret	0
?GetDefenseMod@CvPromotionEntry@@QBEHXZ ENDP		; CvPromotionEntry::GetDefenseMod
_TEXT	ENDS
PUBLIC	?GetDropRange@CvPromotionEntry@@QBEHXZ		; CvPromotionEntry::GetDropRange
; Function compile flags: /Odtp
;	COMDAT ?GetDropRange@CvPromotionEntry@@QBEHXZ
_TEXT	SEGMENT
_this$ = -4						; size = 4
?GetDropRange@CvPromotionEntry@@QBEHXZ PROC		; CvPromotionEntry::GetDropRange, COMDAT
; _this$ = ecx

; 1175 : {

	push	ebp
	mov	ebp, esp
	push	ecx
	mov	DWORD PTR _this$[ebp], ecx

; 1176 : 	return m_iDropRange;

	mov	eax, DWORD PTR _this$[ebp]
	mov	eax, DWORD PTR [eax+740]

; 1177 : }

	mov	esp, ebp
	pop	ebp
	ret	0
?GetDropRange@CvPromotionEntry@@QBEHXZ ENDP		; CvPromotionEntry::GetDropRange
_TEXT	ENDS
PUBLIC	?GetExtraNavalMoves@CvPromotionEntry@@QBEHXZ	; CvPromotionEntry::GetExtraNavalMoves
; Function compile flags: /Odtp
;	COMDAT ?GetExtraNavalMoves@CvPromotionEntry@@QBEHXZ
_TEXT	SEGMENT
_this$ = -4						; size = 4
?GetExtraNavalMoves@CvPromotionEntry@@QBEHXZ PROC	; CvPromotionEntry::GetExtraNavalMoves, COMDAT
; _this$ = ecx

; 1181 : {

	push	ebp
	mov	ebp, esp
	push	ecx
	mov	DWORD PTR _this$[ebp], ecx

; 1182 : 	return m_iExtraNavalMoves;

	mov	eax, DWORD PTR _this$[ebp]
	mov	eax, DWORD PTR [eax+744]

; 1183 : }

	mov	esp, ebp
	pop	ebp
	ret	0
?GetExtraNavalMoves@CvPromotionEntry@@QBEHXZ ENDP	; CvPromotionEntry::GetExtraNavalMoves
_TEXT	ENDS
PUBLIC	?GetHPHealedIfDefeatEnemy@CvPromotionEntry@@QBEHXZ ; CvPromotionEntry::GetHPHealedIfDefeatEnemy
; Function compile flags: /Odtp
;	COMDAT ?GetHPHealedIfDefeatEnemy@CvPromotionEntry@@QBEHXZ
_TEXT	SEGMENT
_this$ = -4						; size = 4
?GetHPHealedIfDefeatEnemy@CvPromotionEntry@@QBEHXZ PROC	; CvPromotionEntry::GetHPHealedIfDefeatEnemy, COMDAT
; _this$ = ecx

; 1187 : {

	push	ebp
	mov	ebp, esp
	push	ecx
	mov	DWORD PTR _this$[ebp], ecx

; 1188 : 	return m_iHPHealedIfDefeatEnemy;

	mov	eax, DWORD PTR _this$[ebp]
	mov	eax, DWORD PTR [eax+748]

; 1189 : }

	mov	esp, ebp
	pop	ebp
	ret	0
?GetHPHealedIfDefeatEnemy@CvPromotionEntry@@QBEHXZ ENDP	; CvPromotionEntry::GetHPHealedIfDefeatEnemy
_TEXT	ENDS
PUBLIC	?GetGoldenAgeValueFromKills@CvPromotionEntry@@QBEHXZ ; CvPromotionEntry::GetGoldenAgeValueFromKills
; Function compile flags: /Odtp
;	COMDAT ?GetGoldenAgeValueFromKills@CvPromotionEntry@@QBEHXZ
_TEXT	SEGMENT
_this$ = -4						; size = 4
?GetGoldenAgeValueFromKills@CvPromotionEntry@@QBEHXZ PROC ; CvPromotionEntry::GetGoldenAgeValueFromKills, COMDAT
; _this$ = ecx

; 1193 : {

	push	ebp
	mov	ebp, esp
	push	ecx
	mov	DWORD PTR _this$[ebp], ecx

; 1194 : 	return m_iGoldenAgeValueFromKills;

	mov	eax, DWORD PTR _this$[ebp]
	mov	eax, DWORD PTR [eax+752]

; 1195 : }

	mov	esp, ebp
	pop	ebp
	ret	0
?GetGoldenAgeValueFromKills@CvPromotionEntry@@QBEHXZ ENDP ; CvPromotionEntry::GetGoldenAgeValueFromKills
_TEXT	ENDS
PUBLIC	?GetExtraWithdrawal@CvPromotionEntry@@QBEHXZ	; CvPromotionEntry::GetExtraWithdrawal
; Function compile flags: /Odtp
;	COMDAT ?GetExtraWithdrawal@CvPromotionEntry@@QBEHXZ
_TEXT	SEGMENT
_this$ = -4						; size = 4
?GetExtraWithdrawal@CvPromotionEntry@@QBEHXZ PROC	; CvPromotionEntry::GetExtraWithdrawal, COMDAT
; _this$ = ecx

; 1199 : {

	push	ebp
	mov	ebp, esp
	push	ecx
	mov	DWORD PTR _this$[ebp], ecx

; 1200 : 	return m_iExtraWithdrawal;

	mov	eax, DWORD PTR _this$[ebp]
	mov	eax, DWORD PTR [eax+756]

; 1201 : }

	mov	esp, ebp
	pop	ebp
	ret	0
?GetExtraWithdrawal@CvPromotionEntry@@QBEHXZ ENDP	; CvPromotionEntry::GetExtraWithdrawal
_TEXT	ENDS
PUBLIC	?GetEmbarkExtraVisibility@CvPromotionEntry@@QBEHXZ ; CvPromotionEntry::GetEmbarkExtraVisibility
; Function compile flags: /Odtp
;	COMDAT ?GetEmbarkExtraVisibility@CvPromotionEntry@@QBEHXZ
_TEXT	SEGMENT
_this$ = -4						; size = 4
?GetEmbarkExtraVisibility@CvPromotionEntry@@QBEHXZ PROC	; CvPromotionEntry::GetEmbarkExtraVisibility, COMDAT
; _this$ = ecx

; 1205 : {

	push	ebp
	mov	ebp, esp
	push	ecx
	mov	DWORD PTR _this$[ebp], ecx

; 1206 : 	return m_iEmbarkExtraVisibility;

	mov	eax, DWORD PTR _this$[ebp]
	mov	eax, DWORD PTR [eax+760]

; 1207 : }

	mov	esp, ebp
	pop	ebp
	ret	0
?GetEmbarkExtraVisibility@CvPromotionEntry@@QBEHXZ ENDP	; CvPromotionEntry::GetEmbarkExtraVisibility
_TEXT	ENDS
PUBLIC	?GetEmbarkDefenseModifier@CvPromotionEntry@@QBEHXZ ; CvPromotionEntry::GetEmbarkDefenseModifier
; Function compile flags: /Odtp
;	COMDAT ?GetEmbarkDefenseModifier@CvPromotionEntry@@QBEHXZ
_TEXT	SEGMENT
_this$ = -4						; size = 4
?GetEmbarkDefenseModifier@CvPromotionEntry@@QBEHXZ PROC	; CvPromotionEntry::GetEmbarkDefenseModifier, COMDAT
; _this$ = ecx

; 1211 : {

	push	ebp
	mov	ebp, esp
	push	ecx
	mov	DWORD PTR _this$[ebp], ecx

; 1212 : 	return m_iEmbarkDefenseModifier;

	mov	eax, DWORD PTR _this$[ebp]
	mov	eax, DWORD PTR [eax+764]

; 1213 : }

	mov	esp, ebp
	pop	ebp
	ret	0
?GetEmbarkDefenseModifier@CvPromotionEntry@@QBEHXZ ENDP	; CvPromotionEntry::GetEmbarkDefenseModifier
_TEXT	ENDS
PUBLIC	?GetCapitalDefenseModifier@CvPromotionEntry@@QBEHXZ ; CvPromotionEntry::GetCapitalDefenseModifier
; Function compile flags: /Odtp
;	COMDAT ?GetCapitalDefenseModifier@CvPromotionEntry@@QBEHXZ
_TEXT	SEGMENT
_this$ = -4						; size = 4
?GetCapitalDefenseModifier@CvPromotionEntry@@QBEHXZ PROC ; CvPromotionEntry::GetCapitalDefenseModifier, COMDAT
; _this$ = ecx

; 1217 : {

	push	ebp
	mov	ebp, esp
	push	ecx
	mov	DWORD PTR _this$[ebp], ecx

; 1218 : 	return m_iCapitalDefenseModifier;

	mov	eax, DWORD PTR _this$[ebp]
	mov	eax, DWORD PTR [eax+768]

; 1219 : }

	mov	esp, ebp
	pop	ebp
	ret	0
?GetCapitalDefenseModifier@CvPromotionEntry@@QBEHXZ ENDP ; CvPromotionEntry::GetCapitalDefenseModifier
_TEXT	ENDS
PUBLIC	?GetCapitalDefenseFalloff@CvPromotionEntry@@QBEHXZ ; CvPromotionEntry::GetCapitalDefenseFalloff
; Function compile flags: /Odtp
;	COMDAT ?GetCapitalDefenseFalloff@CvPromotionEntry@@QBEHXZ
_TEXT	SEGMENT
_this$ = -4						; size = 4
?GetCapitalDefenseFalloff@CvPromotionEntry@@QBEHXZ PROC	; CvPromotionEntry::GetCapitalDefenseFalloff, COMDAT
; _this$ = ecx

; 1223 : {

	push	ebp
	mov	ebp, esp
	push	ecx
	mov	DWORD PTR _this$[ebp], ecx

; 1224 : 	return m_iCapitalDefenseFalloff;

	mov	eax, DWORD PTR _this$[ebp]
	mov	eax, DWORD PTR [eax+772]

; 1225 : }

	mov	esp, ebp
	pop	ebp
	ret	0
?GetCapitalDefenseFalloff@CvPromotionEntry@@QBEHXZ ENDP	; CvPromotionEntry::GetCapitalDefenseFalloff
_TEXT	ENDS
PUBLIC	?GetCityAttackPlunderModifier@CvPromotionEntry@@QBEHXZ ; CvPromotionEntry::GetCityAttackPlunderModifier
; Function compile flags: /Odtp
;	COMDAT ?GetCityAttackPlunderModifier@CvPromotionEntry@@QBEHXZ
_TEXT	SEGMENT
_this$ = -4						; size = 4
?GetCityAttackPlunderModifier@CvPromotionEntry@@QBEHXZ PROC ; CvPromotionEntry::GetCityAttackPlunderModifier, COMDAT
; _this$ = ecx

; 1229 : {

	push	ebp
	mov	ebp, esp
	push	ecx
	mov	DWORD PTR _this$[ebp], ecx

; 1230 : 	return m_iCityAttackPlunderModifier;

	mov	eax, DWORD PTR _this$[ebp]
	mov	eax, DWORD PTR [eax+776]

; 1231 : }

	mov	esp, ebp
	pop	ebp
	ret	0
?GetCityAttackPlunderModifier@CvPromotionEntry@@QBEHXZ ENDP ; CvPromotionEntry::GetCityAttackPlunderModifier
_TEXT	ENDS
PUBLIC	?GetReligiousStrengthLossRivalTerritory@CvPromotionEntry@@QBEHXZ ; CvPromotionEntry::GetReligiousStrengthLossRivalTerritory
; Function compile flags: /Odtp
;	COMDAT ?GetReligiousStrengthLossRivalTerritory@CvPromotionEntry@@QBEHXZ
_TEXT	SEGMENT
_this$ = -4						; size = 4
?GetReligiousStrengthLossRivalTerritory@CvPromotionEntry@@QBEHXZ PROC ; CvPromotionEntry::GetReligiousStrengthLossRivalTerritory, COMDAT
; _this$ = ecx

; 1235 : {

	push	ebp
	mov	ebp, esp
	push	ecx
	mov	DWORD PTR _this$[ebp], ecx

; 1236 : 	return m_iReligiousStrengthLossRivalTerritory;

	mov	eax, DWORD PTR _this$[ebp]
	mov	eax, DWORD PTR [eax+780]

; 1237 : }

	mov	esp, ebp
	pop	ebp
	ret	0
?GetReligiousStrengthLossRivalTerritory@CvPromotionEntry@@QBEHXZ ENDP ; CvPromotionEntry::GetReligiousStrengthLossRivalTerritory
_TEXT	ENDS
PUBLIC	?GetTradeMissionInfluenceModifier@CvPromotionEntry@@QBEHXZ ; CvPromotionEntry::GetTradeMissionInfluenceModifier
; Function compile flags: /Odtp
;	COMDAT ?GetTradeMissionInfluenceModifier@CvPromotionEntry@@QBEHXZ
_TEXT	SEGMENT
_this$ = -4						; size = 4
?GetTradeMissionInfluenceModifier@CvPromotionEntry@@QBEHXZ PROC ; CvPromotionEntry::GetTradeMissionInfluenceModifier, COMDAT
; _this$ = ecx

; 1241 : {

	push	ebp
	mov	ebp, esp
	push	ecx
	mov	DWORD PTR _this$[ebp], ecx

; 1242 : 	return m_iTradeMissionInfluenceModifier;

	mov	eax, DWORD PTR _this$[ebp]
	mov	eax, DWORD PTR [eax+784]

; 1243 : }

	mov	esp, ebp
	pop	ebp
	ret	0
?GetTradeMissionInfluenceModifier@CvPromotionEntry@@QBEHXZ ENDP ; CvPromotionEntry::GetTradeMissionInfluenceModifier
_TEXT	ENDS
PUBLIC	?GetTradeMissionGoldModifier@CvPromotionEntry@@QBEHXZ ; CvPromotionEntry::GetTradeMissionGoldModifier
; Function compile flags: /Odtp
;	COMDAT ?GetTradeMissionGoldModifier@CvPromotionEntry@@QBEHXZ
_TEXT	SEGMENT
_this$ = -4						; size = 4
?GetTradeMissionGoldModifier@CvPromotionEntry@@QBEHXZ PROC ; CvPromotionEntry::GetTradeMissionGoldModifier, COMDAT
; _this$ = ecx

; 1247 : {

	push	ebp
	mov	ebp, esp
	push	ecx
	mov	DWORD PTR _this$[ebp], ecx

; 1248 : 	return m_iTradeMissionGoldModifier;

	mov	eax, DWORD PTR _this$[ebp]
	mov	eax, DWORD PTR [eax+788]

; 1249 : }

	mov	esp, ebp
	pop	ebp
	ret	0
?GetTradeMissionGoldModifier@CvPromotionEntry@@QBEHXZ ENDP ; CvPromotionEntry::GetTradeMissionGoldModifier
_TEXT	ENDS
PUBLIC	?IsCannotBeChosen@CvPromotionEntry@@QBE_NXZ	; CvPromotionEntry::IsCannotBeChosen
; Function compile flags: /Odtp
;	COMDAT ?IsCannotBeChosen@CvPromotionEntry@@QBE_NXZ
_TEXT	SEGMENT
_this$ = -4						; size = 4
?IsCannotBeChosen@CvPromotionEntry@@QBE_NXZ PROC	; CvPromotionEntry::IsCannotBeChosen, COMDAT
; _this$ = ecx

; 1253 : {

	push	ebp
	mov	ebp, esp
	push	ecx
	mov	DWORD PTR _this$[ebp], ecx

; 1254 : 	return m_bCannotBeChosen;

	mov	eax, DWORD PTR _this$[ebp]
	mov	al, BYTE PTR [eax+792]

; 1255 : }

	mov	esp, ebp
	pop	ebp
	ret	0
?IsCannotBeChosen@CvPromotionEntry@@QBE_NXZ ENDP	; CvPromotionEntry::IsCannotBeChosen
_TEXT	ENDS
PUBLIC	?IsLostWithUpgrade@CvPromotionEntry@@QBE_NXZ	; CvPromotionEntry::IsLostWithUpgrade
; Function compile flags: /Odtp
;	COMDAT ?IsLostWithUpgrade@CvPromotionEntry@@QBE_NXZ
_TEXT	SEGMENT
_this$ = -4						; size = 4
?IsLostWithUpgrade@CvPromotionEntry@@QBE_NXZ PROC	; CvPromotionEntry::IsLostWithUpgrade, COMDAT
; _this$ = ecx

; 1259 : {

	push	ebp
	mov	ebp, esp
	push	ecx
	mov	DWORD PTR _this$[ebp], ecx

; 1260 : 	return m_bLostWithUpgrade;

	mov	eax, DWORD PTR _this$[ebp]
	mov	al, BYTE PTR [eax+793]

; 1261 : }

	mov	esp, ebp
	pop	ebp
	ret	0
?IsLostWithUpgrade@CvPromotionEntry@@QBE_NXZ ENDP	; CvPromotionEntry::IsLostWithUpgrade
_TEXT	ENDS
PUBLIC	?IsNotWithUpgrade@CvPromotionEntry@@QBE_NXZ	; CvPromotionEntry::IsNotWithUpgrade
; Function compile flags: /Odtp
;	COMDAT ?IsNotWithUpgrade@CvPromotionEntry@@QBE_NXZ
_TEXT	SEGMENT
_this$ = -4						; size = 4
?IsNotWithUpgrade@CvPromotionEntry@@QBE_NXZ PROC	; CvPromotionEntry::IsNotWithUpgrade, COMDAT
; _this$ = ecx

; 1265 : {

	push	ebp
	mov	ebp, esp
	push	ecx
	mov	DWORD PTR _this$[ebp], ecx

; 1266 : 	return m_bNotWithUpgrade;

	mov	eax, DWORD PTR _this$[ebp]
	mov	al, BYTE PTR [eax+794]

; 1267 : }

	mov	esp, ebp
	pop	ebp
	ret	0
?IsNotWithUpgrade@CvPromotionEntry@@QBE_NXZ ENDP	; CvPromotionEntry::IsNotWithUpgrade
_TEXT	ENDS
PUBLIC	?IsInstaHeal@CvPromotionEntry@@QBE_NXZ		; CvPromotionEntry::IsInstaHeal
; Function compile flags: /Odtp
;	COMDAT ?IsInstaHeal@CvPromotionEntry@@QBE_NXZ
_TEXT	SEGMENT
_this$ = -4						; size = 4
?IsInstaHeal@CvPromotionEntry@@QBE_NXZ PROC		; CvPromotionEntry::IsInstaHeal, COMDAT
; _this$ = ecx

; 1271 : {

	push	ebp
	mov	ebp, esp
	push	ecx
	mov	DWORD PTR _this$[ebp], ecx

; 1272 : 	return m_bInstaHeal;

	mov	eax, DWORD PTR _this$[ebp]
	mov	al, BYTE PTR [eax+795]

; 1273 : }

	mov	esp, ebp
	pop	ebp
	ret	0
?IsInstaHeal@CvPromotionEntry@@QBE_NXZ ENDP		; CvPromotionEntry::IsInstaHeal
_TEXT	ENDS
PUBLIC	?IsLeader@CvPromotionEntry@@QBE_NXZ		; CvPromotionEntry::IsLeader
; Function compile flags: /Odtp
;	COMDAT ?IsLeader@CvPromotionEntry@@QBE_NXZ
_TEXT	SEGMENT
_this$ = -4						; size = 4
?IsLeader@CvPromotionEntry@@QBE_NXZ PROC		; CvPromotionEntry::IsLeader, COMDAT
; _this$ = ecx

; 1277 : {

	push	ebp
	mov	ebp, esp
	push	ecx
	mov	DWORD PTR _this$[ebp], ecx

; 1278 : 	return m_bLeader;

	mov	eax, DWORD PTR _this$[ebp]
	mov	al, BYTE PTR [eax+796]

; 1279 : }

	mov	esp, ebp
	pop	ebp
	ret	0
?IsLeader@CvPromotionEntry@@QBE_NXZ ENDP		; CvPromotionEntry::IsLeader
_TEXT	ENDS
PUBLIC	?IsBlitz@CvPromotionEntry@@QBE_NXZ		; CvPromotionEntry::IsBlitz
; Function compile flags: /Odtp
;	COMDAT ?IsBlitz@CvPromotionEntry@@QBE_NXZ
_TEXT	SEGMENT
_this$ = -4						; size = 4
?IsBlitz@CvPromotionEntry@@QBE_NXZ PROC			; CvPromotionEntry::IsBlitz, COMDAT
; _this$ = ecx

; 1283 : {

	push	ebp
	mov	ebp, esp
	push	ecx
	mov	DWORD PTR _this$[ebp], ecx

; 1284 : 	return m_bBlitz;

	mov	eax, DWORD PTR _this$[ebp]
	mov	al, BYTE PTR [eax+797]

; 1285 : }

	mov	esp, ebp
	pop	ebp
	ret	0
?IsBlitz@CvPromotionEntry@@QBE_NXZ ENDP			; CvPromotionEntry::IsBlitz
_TEXT	ENDS
PUBLIC	?IsAmphib@CvPromotionEntry@@QBE_NXZ		; CvPromotionEntry::IsAmphib
; Function compile flags: /Odtp
;	COMDAT ?IsAmphib@CvPromotionEntry@@QBE_NXZ
_TEXT	SEGMENT
_this$ = -4						; size = 4
?IsAmphib@CvPromotionEntry@@QBE_NXZ PROC		; CvPromotionEntry::IsAmphib, COMDAT
; _this$ = ecx

; 1289 : {

	push	ebp
	mov	ebp, esp
	push	ecx
	mov	DWORD PTR _this$[ebp], ecx

; 1290 : 	return m_bAmphib;

	mov	eax, DWORD PTR _this$[ebp]
	mov	al, BYTE PTR [eax+798]

; 1291 : }

	mov	esp, ebp
	pop	ebp
	ret	0
?IsAmphib@CvPromotionEntry@@QBE_NXZ ENDP		; CvPromotionEntry::IsAmphib
_TEXT	ENDS
PUBLIC	?IsRiver@CvPromotionEntry@@QBE_NXZ		; CvPromotionEntry::IsRiver
; Function compile flags: /Odtp
;	COMDAT ?IsRiver@CvPromotionEntry@@QBE_NXZ
_TEXT	SEGMENT
_this$ = -4						; size = 4
?IsRiver@CvPromotionEntry@@QBE_NXZ PROC			; CvPromotionEntry::IsRiver, COMDAT
; _this$ = ecx

; 1295 : {

	push	ebp
	mov	ebp, esp
	push	ecx
	mov	DWORD PTR _this$[ebp], ecx

; 1296 : 	return m_bRiver;

	mov	eax, DWORD PTR _this$[ebp]
	mov	al, BYTE PTR [eax+799]

; 1297 : }

	mov	esp, ebp
	pop	ebp
	ret	0
?IsRiver@CvPromotionEntry@@QBE_NXZ ENDP			; CvPromotionEntry::IsRiver
_TEXT	ENDS
PUBLIC	?IsEnemyRoute@CvPromotionEntry@@QBE_NXZ		; CvPromotionEntry::IsEnemyRoute
; Function compile flags: /Odtp
;	COMDAT ?IsEnemyRoute@CvPromotionEntry@@QBE_NXZ
_TEXT	SEGMENT
_this$ = -4						; size = 4
?IsEnemyRoute@CvPromotionEntry@@QBE_NXZ PROC		; CvPromotionEntry::IsEnemyRoute, COMDAT
; _this$ = ecx

; 1301 : {

	push	ebp
	mov	ebp, esp
	push	ecx
	mov	DWORD PTR _this$[ebp], ecx

; 1302 : 	return m_bEnemyRoute;

	mov	eax, DWORD PTR _this$[ebp]
	mov	al, BYTE PTR [eax+800]

; 1303 : }

	mov	esp, ebp
	pop	ebp
	ret	0
?IsEnemyRoute@CvPromotionEntry@@QBE_NXZ ENDP		; CvPromotionEntry::IsEnemyRoute
_TEXT	ENDS
PUBLIC	?IsRivalTerritory@CvPromotionEntry@@QBE_NXZ	; CvPromotionEntry::IsRivalTerritory
; Function compile flags: /Odtp
;	COMDAT ?IsRivalTerritory@CvPromotionEntry@@QBE_NXZ
_TEXT	SEGMENT
_this$ = -4						; size = 4
?IsRivalTerritory@CvPromotionEntry@@QBE_NXZ PROC	; CvPromotionEntry::IsRivalTerritory, COMDAT
; _this$ = ecx

; 1307 : {

	push	ebp
	mov	ebp, esp
	push	ecx
	mov	DWORD PTR _this$[ebp], ecx

; 1308 : 	return m_bRivalTerritory;

	mov	eax, DWORD PTR _this$[ebp]
	mov	al, BYTE PTR [eax+801]

; 1309 : }

	mov	esp, ebp
	pop	ebp
	ret	0
?IsRivalTerritory@CvPromotionEntry@@QBE_NXZ ENDP	; CvPromotionEntry::IsRivalTerritory
_TEXT	ENDS
PUBLIC	?IsMustSetUpToRangedAttack@CvPromotionEntry@@QBE_NXZ ; CvPromotionEntry::IsMustSetUpToRangedAttack
; Function compile flags: /Odtp
;	COMDAT ?IsMustSetUpToRangedAttack@CvPromotionEntry@@QBE_NXZ
_TEXT	SEGMENT
_this$ = -4						; size = 4
?IsMustSetUpToRangedAttack@CvPromotionEntry@@QBE_NXZ PROC ; CvPromotionEntry::IsMustSetUpToRangedAttack, COMDAT
; _this$ = ecx

; 1313 : {

	push	ebp
	mov	ebp, esp
	push	ecx
	mov	DWORD PTR _this$[ebp], ecx

; 1314 : 	return m_bMustSetUpToRangedAttack;

	mov	eax, DWORD PTR _this$[ebp]
	mov	al, BYTE PTR [eax+802]

; 1315 : }

	mov	esp, ebp
	pop	ebp
	ret	0
?IsMustSetUpToRangedAttack@CvPromotionEntry@@QBE_NXZ ENDP ; CvPromotionEntry::IsMustSetUpToRangedAttack
_TEXT	ENDS
PUBLIC	?IsRangedSupportFire@CvPromotionEntry@@QBE_NXZ	; CvPromotionEntry::IsRangedSupportFire
; Function compile flags: /Odtp
;	COMDAT ?IsRangedSupportFire@CvPromotionEntry@@QBE_NXZ
_TEXT	SEGMENT
_this$ = -4						; size = 4
?IsRangedSupportFire@CvPromotionEntry@@QBE_NXZ PROC	; CvPromotionEntry::IsRangedSupportFire, COMDAT
; _this$ = ecx

; 1319 : {

	push	ebp
	mov	ebp, esp
	push	ecx
	mov	DWORD PTR _this$[ebp], ecx

; 1320 : 	return m_bRangedSupportFire;

	mov	eax, DWORD PTR _this$[ebp]
	mov	al, BYTE PTR [eax+803]

; 1321 : }

	mov	esp, ebp
	pop	ebp
	ret	0
?IsRangedSupportFire@CvPromotionEntry@@QBE_NXZ ENDP	; CvPromotionEntry::IsRangedSupportFire
_TEXT	ENDS
PUBLIC	?IsAlwaysHeal@CvPromotionEntry@@QBE_NXZ		; CvPromotionEntry::IsAlwaysHeal
; Function compile flags: /Odtp
;	COMDAT ?IsAlwaysHeal@CvPromotionEntry@@QBE_NXZ
_TEXT	SEGMENT
_this$ = -4						; size = 4
?IsAlwaysHeal@CvPromotionEntry@@QBE_NXZ PROC		; CvPromotionEntry::IsAlwaysHeal, COMDAT
; _this$ = ecx

; 1325 : {

	push	ebp
	mov	ebp, esp
	push	ecx
	mov	DWORD PTR _this$[ebp], ecx

; 1326 : 	return m_bAlwaysHeal;

	mov	eax, DWORD PTR _this$[ebp]
	mov	al, BYTE PTR [eax+804]

; 1327 : }

	mov	esp, ebp
	pop	ebp
	ret	0
?IsAlwaysHeal@CvPromotionEntry@@QBE_NXZ ENDP		; CvPromotionEntry::IsAlwaysHeal
_TEXT	ENDS
PUBLIC	?IsHealOutsideFriendly@CvPromotionEntry@@QBE_NXZ ; CvPromotionEntry::IsHealOutsideFriendly
; Function compile flags: /Odtp
;	COMDAT ?IsHealOutsideFriendly@CvPromotionEntry@@QBE_NXZ
_TEXT	SEGMENT
_this$ = -4						; size = 4
?IsHealOutsideFriendly@CvPromotionEntry@@QBE_NXZ PROC	; CvPromotionEntry::IsHealOutsideFriendly, COMDAT
; _this$ = ecx

; 1331 : {

	push	ebp
	mov	ebp, esp
	push	ecx
	mov	DWORD PTR _this$[ebp], ecx

; 1332 : 	return m_bHealOutsideFriendly;

	mov	eax, DWORD PTR _this$[ebp]
	mov	al, BYTE PTR [eax+805]

; 1333 : }

	mov	esp, ebp
	pop	ebp
	ret	0
?IsHealOutsideFriendly@CvPromotionEntry@@QBE_NXZ ENDP	; CvPromotionEntry::IsHealOutsideFriendly
_TEXT	ENDS
PUBLIC	?IsHillsDoubleMove@CvPromotionEntry@@QBE_NXZ	; CvPromotionEntry::IsHillsDoubleMove
; Function compile flags: /Odtp
;	COMDAT ?IsHillsDoubleMove@CvPromotionEntry@@QBE_NXZ
_TEXT	SEGMENT
_this$ = -4						; size = 4
?IsHillsDoubleMove@CvPromotionEntry@@QBE_NXZ PROC	; CvPromotionEntry::IsHillsDoubleMove, COMDAT
; _this$ = ecx

; 1337 : {

	push	ebp
	mov	ebp, esp
	push	ecx
	mov	DWORD PTR _this$[ebp], ecx

; 1338 : 	return m_bHillsDoubleMove;

	mov	eax, DWORD PTR _this$[ebp]
	mov	al, BYTE PTR [eax+806]

; 1339 : }

	mov	esp, ebp
	pop	ebp
	ret	0
?IsHillsDoubleMove@CvPromotionEntry@@QBE_NXZ ENDP	; CvPromotionEntry::IsHillsDoubleMove
_TEXT	ENDS
PUBLIC	?IsIgnoreTerrainCost@CvPromotionEntry@@QBE_NXZ	; CvPromotionEntry::IsIgnoreTerrainCost
; Function compile flags: /Odtp
;	COMDAT ?IsIgnoreTerrainCost@CvPromotionEntry@@QBE_NXZ
_TEXT	SEGMENT
_this$ = -4						; size = 4
?IsIgnoreTerrainCost@CvPromotionEntry@@QBE_NXZ PROC	; CvPromotionEntry::IsIgnoreTerrainCost, COMDAT
; _this$ = ecx

; 1343 : {

	push	ebp
	mov	ebp, esp
	push	ecx
	mov	DWORD PTR _this$[ebp], ecx

; 1344 : 	return m_bIgnoreTerrainCost;

	mov	eax, DWORD PTR _this$[ebp]
	mov	al, BYTE PTR [eax+807]

; 1345 : }

	mov	esp, ebp
	pop	ebp
	ret	0
?IsIgnoreTerrainCost@CvPromotionEntry@@QBE_NXZ ENDP	; CvPromotionEntry::IsIgnoreTerrainCost
_TEXT	ENDS
PUBLIC	?IsRoughTerrainEndsTurn@CvPromotionEntry@@QBE_NXZ ; CvPromotionEntry::IsRoughTerrainEndsTurn
; Function compile flags: /Odtp
;	COMDAT ?IsRoughTerrainEndsTurn@CvPromotionEntry@@QBE_NXZ
_TEXT	SEGMENT
_this$ = -4						; size = 4
?IsRoughTerrainEndsTurn@CvPromotionEntry@@QBE_NXZ PROC	; CvPromotionEntry::IsRoughTerrainEndsTurn, COMDAT
; _this$ = ecx

; 1349 : {

	push	ebp
	mov	ebp, esp
	push	ecx
	mov	DWORD PTR _this$[ebp], ecx

; 1350 : 	return m_bRoughTerrainEndsTurn;

	mov	eax, DWORD PTR _this$[ebp]
	mov	al, BYTE PTR [eax+808]

; 1351 : }

	mov	esp, ebp
	pop	ebp
	ret	0
?IsRoughTerrainEndsTurn@CvPromotionEntry@@QBE_NXZ ENDP	; CvPromotionEntry::IsRoughTerrainEndsTurn
_TEXT	ENDS
PUBLIC	?IsHoveringUnit@CvPromotionEntry@@QBE_NXZ	; CvPromotionEntry::IsHoveringUnit
; Function compile flags: /Odtp
;	COMDAT ?IsHoveringUnit@CvPromotionEntry@@QBE_NXZ
_TEXT	SEGMENT
_this$ = -4						; size = 4
?IsHoveringUnit@CvPromotionEntry@@QBE_NXZ PROC		; CvPromotionEntry::IsHoveringUnit, COMDAT
; _this$ = ecx

; 1355 : {

	push	ebp
	mov	ebp, esp
	push	ecx
	mov	DWORD PTR _this$[ebp], ecx

; 1356 : 	return m_bHoveringUnit;

	mov	eax, DWORD PTR _this$[ebp]
	mov	al, BYTE PTR [eax+809]

; 1357 : }

	mov	esp, ebp
	pop	ebp
	ret	0
?IsHoveringUnit@CvPromotionEntry@@QBE_NXZ ENDP		; CvPromotionEntry::IsHoveringUnit
_TEXT	ENDS
PUBLIC	?IsFlatMovementCost@CvPromotionEntry@@QBE_NXZ	; CvPromotionEntry::IsFlatMovementCost
; Function compile flags: /Odtp
;	COMDAT ?IsFlatMovementCost@CvPromotionEntry@@QBE_NXZ
_TEXT	SEGMENT
_this$ = -4						; size = 4
?IsFlatMovementCost@CvPromotionEntry@@QBE_NXZ PROC	; CvPromotionEntry::IsFlatMovementCost, COMDAT
; _this$ = ecx

; 1361 : {

	push	ebp
	mov	ebp, esp
	push	ecx
	mov	DWORD PTR _this$[ebp], ecx

; 1362 : 	return m_bFlatMovementCost;

	mov	eax, DWORD PTR _this$[ebp]
	mov	al, BYTE PTR [eax+810]

; 1363 : }

	mov	esp, ebp
	pop	ebp
	ret	0
?IsFlatMovementCost@CvPromotionEntry@@QBE_NXZ ENDP	; CvPromotionEntry::IsFlatMovementCost
_TEXT	ENDS
PUBLIC	?IsCanMoveImpassable@CvPromotionEntry@@QBE_NXZ	; CvPromotionEntry::IsCanMoveImpassable
; Function compile flags: /Odtp
;	COMDAT ?IsCanMoveImpassable@CvPromotionEntry@@QBE_NXZ
_TEXT	SEGMENT
_this$ = -4						; size = 4
?IsCanMoveImpassable@CvPromotionEntry@@QBE_NXZ PROC	; CvPromotionEntry::IsCanMoveImpassable, COMDAT
; _this$ = ecx

; 1367 : {

	push	ebp
	mov	ebp, esp
	push	ecx
	mov	DWORD PTR _this$[ebp], ecx

; 1368 : 	return m_bCanMoveImpassable;

	mov	eax, DWORD PTR _this$[ebp]
	mov	al, BYTE PTR [eax+811]

; 1369 : }

	mov	esp, ebp
	pop	ebp
	ret	0
?IsCanMoveImpassable@CvPromotionEntry@@QBE_NXZ ENDP	; CvPromotionEntry::IsCanMoveImpassable
_TEXT	ENDS
PUBLIC	?IsNoCapture@CvPromotionEntry@@QBE_NXZ		; CvPromotionEntry::IsNoCapture
; Function compile flags: /Odtp
;	COMDAT ?IsNoCapture@CvPromotionEntry@@QBE_NXZ
_TEXT	SEGMENT
_this$ = -4						; size = 4
?IsNoCapture@CvPromotionEntry@@QBE_NXZ PROC		; CvPromotionEntry::IsNoCapture, COMDAT
; _this$ = ecx

; 1373 : {

	push	ebp
	mov	ebp, esp
	push	ecx
	mov	DWORD PTR _this$[ebp], ecx

; 1374 : 	return m_bNoCapture;

	mov	eax, DWORD PTR _this$[ebp]
	mov	al, BYTE PTR [eax+812]

; 1375 : }

	mov	esp, ebp
	pop	ebp
	ret	0
?IsNoCapture@CvPromotionEntry@@QBE_NXZ ENDP		; CvPromotionEntry::IsNoCapture
_TEXT	ENDS
PUBLIC	?IsOnlyDefensive@CvPromotionEntry@@QBE_NXZ	; CvPromotionEntry::IsOnlyDefensive
; Function compile flags: /Odtp
;	COMDAT ?IsOnlyDefensive@CvPromotionEntry@@QBE_NXZ
_TEXT	SEGMENT
_this$ = -4						; size = 4
?IsOnlyDefensive@CvPromotionEntry@@QBE_NXZ PROC		; CvPromotionEntry::IsOnlyDefensive, COMDAT
