; Listing generated by Microsoft (R) Optimizing Compiler Version 15.00.30729.01 

	TITLE	D:\sources\Lekmod_git\checkout\LEKMOD_DLL\CvGameCoreDLL_Expansion2\CvReplayInfo.cpp
	.686P
	.XMM
	include listing.inc
	.model	flat

INCLUDELIB MSVCRT
INCLUDELIB OLDNAMES

PUBLIC	?REPLAY_VERSION@CvReplayInfo@@1HA		; CvReplayInfo::REPLAY_VERSION
_DATA	SEGMENT
?REPLAY_VERSION@CvReplayInfo@@1HA DD 01H		; CvReplayInfo::REPLAY_VERSION
_DATA	ENDS
PUBLIC	??1?$vector@V?$vector@V?$map@IHU?$less@I@std@@V?$allocator@U?$pair@$$CBIH@std@@@2@@std@@V?$allocator@V?$map@IHU?$less@I@std@@V?$allocator@U?$pair@$$CBIH@std@@@2@@std@@@2@@std@@V?$allocator@V?$vector@V?$map@IHU?$less@I@std@@V?$allocator@U?$pair@$$CBIH@std@@@2@@std@@V?$allocator@V?$map@IHU?$less@I@std@@V?$allocator@U?$pair@$$CBIH@std@@@2@@std@@@2@@std@@@2@@std@@QAE@XZ ; std::vector<std::vector<std::map<unsigned int,int,std::less<unsigned int>,std::allocator<std::pair<unsigned int const ,int> > >,std::allocator<std::map<unsigned int,int,std::less<unsigned int>,std::allocator<std::pair<unsigned int const ,int> > > > >,std::allocator<std::vector<std::map<unsigned int,int,std::less<unsigned int>,std::allocator<std::pair<unsigned int const ,int> > >,std::allocator<std::map<unsigned int,int,std::less<unsigned int>,std::allocator<std::pair<unsigned int const ,int> > > > > > >::~vector<std::vector<std::map<unsigned int,int,std::less<unsigned int>,std::allocator<std::pair<unsigned int const ,int> > >,std::allocator<std::map<unsigned int,int,std::less<unsigned int>,std::allocator<std::pair<unsigned int const ,int> > > > >,std::allocator<std::vector<std::map<unsigned int,int,std::less<unsigned int>,std::allocator<std::pair<unsigned int const ,int> > >,std::allocator<std::map<unsigned int,int,std::less<unsigned int>,std::allocator<std::pair<unsigned int const ,int> > > > > > >
PUBLIC	??1?$vector@V?$basic_string@DU?$char_traits@D@std@@V?$allocator@D@2@@std@@V?$allocator@V?$basic_string@DU?$char_traits@D@std@@V?$allocator@D@2@@std@@@2@@std@@QAE@XZ ; std::vector<std::basic_string<char,std::char_traits<char>,std::allocator<char> >,std::allocator<std::basic_string<char,std::char_traits<char>,std::allocator<char> > > >::~vector<std::basic_string<char,std::char_traits<char>,std::allocator<char> >,std::allocator<std::basic_string<char,std::char_traits<char>,std::allocator<char> > > >
PUBLIC	??1?$vector@VCvReplayMessage@@V?$allocator@VCvReplayMessage@@@std@@@std@@QAE@XZ ; std::vector<CvReplayMessage,std::allocator<CvReplayMessage> >::~vector<CvReplayMessage,std::allocator<CvReplayMessage> >
PUBLIC	??1?$_Vector_val@VCvReplayMessage@@V?$allocator@VCvReplayMessage@@@std@@@std@@QAE@XZ ; std::_Vector_val<CvReplayMessage,std::allocator<CvReplayMessage> >::~_Vector_val<CvReplayMessage,std::allocator<CvReplayMessage> >
PUBLIC	??1?$vector@UPlayerInfo@CvReplayInfo@@V?$allocator@UPlayerInfo@CvReplayInfo@@@std@@@std@@QAE@XZ ; std::vector<CvReplayInfo::PlayerInfo,std::allocator<CvReplayInfo::PlayerInfo> >::~vector<CvReplayInfo::PlayerInfo,std::allocator<CvReplayInfo::PlayerInfo> >
PUBLIC	??1?$_Vector_val@UPlayerInfo@CvReplayInfo@@V?$allocator@UPlayerInfo@CvReplayInfo@@@std@@@std@@QAE@XZ ; std::_Vector_val<CvReplayInfo::PlayerInfo,std::allocator<CvReplayInfo::PlayerInfo> >::~_Vector_val<CvReplayInfo::PlayerInfo,std::allocator<CvReplayInfo::PlayerInfo> >
PUBLIC	??1?$vector@W4VictoryTypes@@V?$allocator@W4VictoryTypes@@@std@@@std@@QAE@XZ ; std::vector<enum VictoryTypes,std::allocator<enum VictoryTypes> >::~vector<enum VictoryTypes,std::allocator<enum VictoryTypes> >
PUBLIC	??1?$_Vector_val@W4VictoryTypes@@V?$allocator@W4VictoryTypes@@@std@@@std@@QAE@XZ ; std::_Vector_val<enum VictoryTypes,std::allocator<enum VictoryTypes> >::~_Vector_val<enum VictoryTypes,std::allocator<enum VictoryTypes> >
PUBLIC	??1?$vector@W4GameOptionTypes@@V?$allocator@W4GameOptionTypes@@@std@@@std@@QAE@XZ ; std::vector<enum GameOptionTypes,std::allocator<enum GameOptionTypes> >::~vector<enum GameOptionTypes,std::allocator<enum GameOptionTypes> >
PUBLIC	??1?$_Vector_val@W4GameOptionTypes@@V?$allocator@W4GameOptionTypes@@@std@@@std@@QAE@XZ ; std::_Vector_val<enum GameOptionTypes,std::allocator<enum GameOptionTypes> >::~_Vector_val<enum GameOptionTypes,std::allocator<enum GameOptionTypes> >
PUBLIC	??1CvString@@QAE@XZ				; CvString::~CvString
PUBLIC	??0?$vector@V?$map@IUPlotState@CvReplayInfo@@U?$less@I@std@@V?$allocator@U?$pair@$$CBIUPlotState@CvReplayInfo@@@std@@@4@@std@@V?$allocator@V?$map@IUPlotState@CvReplayInfo@@U?$less@I@std@@V?$allocator@U?$pair@$$CBIUPlotState@CvReplayInfo@@@std@@@4@@std@@@2@@std@@QAE@XZ ; std::vector<std::map<unsigned int,CvReplayInfo::PlotState,std::less<unsigned int>,std::allocator<std::pair<unsigned int const ,CvReplayInfo::PlotState> > >,std::allocator<std::map<unsigned int,CvReplayInfo::PlotState,std::less<unsigned int>,std::allocator<std::pair<unsigned int const ,CvReplayInfo::PlotState> > > > >::vector<std::map<unsigned int,CvReplayInfo::PlotState,std::less<unsigned int>,std::allocator<std::pair<unsigned int const ,CvReplayInfo::PlotState> > >,std::allocator<std::map<unsigned int,CvReplayInfo::PlotState,std::less<unsigned int>,std::allocator<std::pair<unsigned int const ,CvReplayInfo::PlotState> > > > >
PUBLIC	??0?$vector@V?$vector@V?$map@IHU?$less@I@std@@V?$allocator@U?$pair@$$CBIH@std@@@2@@std@@V?$allocator@V?$map@IHU?$less@I@std@@V?$allocator@U?$pair@$$CBIH@std@@@2@@std@@@2@@std@@V?$allocator@V?$vector@V?$map@IHU?$less@I@std@@V?$allocator@U?$pair@$$CBIH@std@@@2@@std@@V?$allocator@V?$map@IHU?$less@I@std@@V?$allocator@U?$pair@$$CBIH@std@@@2@@std@@@2@@std@@@2@@std@@QAE@XZ ; std::vector<std::vector<std::map<unsigned int,int,std::less<unsigned int>,std::allocator<std::pair<unsigned int const ,int> > >,std::allocator<std::map<unsigned int,int,std::less<unsigned int>,std::allocator<std::pair<unsigned int const ,int> > > > >,std::allocator<std::vector<std::map<unsigned int,int,std::less<unsigned int>,std::allocator<std::pair<unsigned int const ,int> > >,std::allocator<std::map<unsigned int,int,std::less<unsigned int>,std::allocator<std::pair<unsigned int const ,int> > > > > > >::vector<std::vector<std::map<unsigned int,int,std::less<unsigned int>,std::allocator<std::pair<unsigned int const ,int> > >,std::allocator<std::map<unsigned int,int,std::less<unsigned int>,std::allocator<std::pair<unsigned int const ,int> > > > >,std::allocator<std::vector<std::map<unsigned int,int,std::less<unsigned int>,std::allocator<std::pair<unsigned int const ,int> > >,std::allocator<std::map<unsigned int,int,std::less<unsigned int>,std::allocator<std::pair<unsigned int const ,int> > > > > > >
PUBLIC	??0?$vector@V?$basic_string@DU?$char_traits@D@std@@V?$allocator@D@2@@std@@V?$allocator@V?$basic_string@DU?$char_traits@D@std@@V?$allocator@D@2@@std@@@2@@std@@QAE@XZ ; std::vector<std::basic_string<char,std::char_traits<char>,std::allocator<char> >,std::allocator<std::basic_string<char,std::char_traits<char>,std::allocator<char> > > >::vector<std::basic_string<char,std::char_traits<char>,std::allocator<char> >,std::allocator<std::basic_string<char,std::char_traits<char>,std::allocator<char> > > >
PUBLIC	?_Buy@?$vector@VCvReplayMessage@@V?$allocator@VCvReplayMessage@@@std@@@std@@IAE_NI@Z ; std::vector<CvReplayMessage,std::allocator<CvReplayMessage> >::_Buy
PUBLIC	?_Buy@?$vector@UPlayerInfo@CvReplayInfo@@V?$allocator@UPlayerInfo@CvReplayInfo@@@std@@@std@@IAE_NI@Z ; std::vector<CvReplayInfo::PlayerInfo,std::allocator<CvReplayInfo::PlayerInfo> >::_Buy
PUBLIC	?_Buy@?$vector@W4VictoryTypes@@V?$allocator@W4VictoryTypes@@@std@@@std@@IAE_NI@Z ; std::vector<enum VictoryTypes,std::allocator<enum VictoryTypes> >::_Buy
PUBLIC	?_Buy@?$vector@W4GameOptionTypes@@V?$allocator@W4GameOptionTypes@@@std@@@std@@IAE_NI@Z ; std::vector<enum GameOptionTypes,std::allocator<enum GameOptionTypes> >::_Buy
PUBLIC	??_7CvReplayInfo@@6B@				; CvReplayInfo::`vftable'
PUBLIC	??0CvReplayInfo@@QAE@XZ				; CvReplayInfo::CvReplayInfo
EXTRN	__imp_??0?$basic_string@DU?$char_traits@D@std@@V?$allocator@D@2@@std@@QAE@XZ:PROC
EXTRN	___security_cookie:DWORD
EXTRN	___CxxFrameHandler3:PROC
EXTRN	@__security_check_cookie@4:PROC
EXTRN	??_ECvReplayInfo@@UAEPAXI@Z:PROC		; CvReplayInfo::`vector deleting destructor'
;	COMDAT ??_7CvReplayInfo@@6B@
; File c:\program files (x86)\microsoft visual studio 9.0\vc\include\xmemory
CONST	SEGMENT
??_7CvReplayInfo@@6B@ DD FLAT:??_ECvReplayInfo@@UAEPAXI@Z ; CvReplayInfo::`vftable'
CONST	ENDS
;	COMDAT xdata$x
xdata$x	SEGMENT
__ehfuncinfo$??0CvReplayInfo@@QAE@XZ DD 019930522H
	DD	0cH
	DD	FLAT:__unwindtable$??0CvReplayInfo@@QAE@XZ
	DD	2 DUP(00H)
	DD	2 DUP(00H)
	DD	00H
	DD	01H
__unwindtable$??0CvReplayInfo@@QAE@XZ DD 0ffffffffH
	DD	FLAT:__unwindfunclet$??0CvReplayInfo@@QAE@XZ$0
	DD	00H
	DD	FLAT:__unwindfunclet$??0CvReplayInfo@@QAE@XZ$10
	DD	00H
	DD	FLAT:__unwindfunclet$??0CvReplayInfo@@QAE@XZ$1
	DD	02H
	DD	FLAT:__unwindfunclet$??0CvReplayInfo@@QAE@XZ$12
	DD	02H
	DD	FLAT:__unwindfunclet$??0CvReplayInfo@@QAE@XZ$2
	DD	04H
	DD	FLAT:__unwindfunclet$??0CvReplayInfo@@QAE@XZ$3
	DD	05H
	DD	FLAT:__unwindfunclet$??0CvReplayInfo@@QAE@XZ$15
	DD	05H
	DD	FLAT:__unwindfunclet$??0CvReplayInfo@@QAE@XZ$4
	DD	07H
	DD	FLAT:__unwindfunclet$??0CvReplayInfo@@QAE@XZ$17
	DD	07H
	DD	FLAT:__unwindfunclet$??0CvReplayInfo@@QAE@XZ$5
	DD	09H
	DD	FLAT:__unwindfunclet$??0CvReplayInfo@@QAE@XZ$6
	DD	0aH
	DD	FLAT:__unwindfunclet$??0CvReplayInfo@@QAE@XZ$7
; Function compile flags: /Odtp
; File d:\sources\lekmod_git\checkout\lekmod_dll\cvgamecoredll_expansion2\cvreplayinfo.cpp
xdata$x	ENDS
;	COMDAT ??0CvReplayInfo@@QAE@XZ
_TEXT	SEGMENT
tv341 = -176						; size = 4
tv366 = -172						; size = 4
tv300 = -168						; size = 4
tv325 = -164						; size = 4
tv248 = -160						; size = 4
tv273 = -156						; size = 4
tv207 = -152						; size = 4
tv232 = -148						; size = 4
_this$ = -144						; size = 4
$T232135 = -116						; size = 4
$T232120 = -110						; size = 1
$T232107 = -109						; size = 1
$T232103 = -108						; size = 4
$T232096 = -100						; size = 4
$T232089 = -92						; size = 4
$T232074 = -86						; size = 1
$T232061 = -85						; size = 1
$T232057 = -84						; size = 4
$T232050 = -76						; size = 4
$T232043 = -68						; size = 4
$T232038 = -64						; size = 4
$T232023 = -58						; size = 1
$T232010 = -57						; size = 1
$T232006 = -56						; size = 4
$T231999 = -48						; size = 4
$T231992 = -40						; size = 4
$T231977 = -34						; size = 1
$T231964 = -33						; size = 1
$T231960 = -32						; size = 4
$T231953 = -24						; size = 4
$T231946 = -16						; size = 4
__$EHRec$ = -12						; size = 12
??0CvReplayInfo@@QAE@XZ PROC				; CvReplayInfo::CvReplayInfo, COMDAT
; _this$ = ecx

; 56   : {

	push	ebp
	mov	ebp, esp
	push	-1
	push	__ehhandler$??0CvReplayInfo@@QAE@XZ
	mov	eax, DWORD PTR fs:0
	push	eax
	sub	esp, 164				; 000000a4H
	mov	eax, DWORD PTR ___security_cookie
	xor	eax, ebp
	push	eax
	lea	eax, DWORD PTR __$EHRec$[ebp]
	mov	DWORD PTR fs:0, eax
	mov	DWORD PTR _this$[ebp], ecx
	mov	eax, DWORD PTR _this$[ebp]
	mov	DWORD PTR [eax], OFFSET ??_7CvReplayInfo@@6B@
	mov	ecx, DWORD PTR _this$[ebp]
	mov	DWORD PTR [ecx+4], 0
	mov	edx, DWORD PTR _this$[ebp]
	add	edx, 8
	mov	DWORD PTR $T231946[ebp], edx
	mov	ecx, DWORD PTR $T231946[ebp]
	call	DWORD PTR __imp_??0?$basic_string@DU?$char_traits@D@std@@V?$allocator@D@2@@std@@QAE@XZ
	mov	DWORD PTR __$EHRec$[ebp+8], 0
	mov	eax, DWORD PTR _this$[ebp]
	mov	DWORD PTR [eax+36], -1
	mov	ecx, DWORD PTR _this$[ebp]
	mov	DWORD PTR [ecx+40], -1
	mov	edx, DWORD PTR _this$[ebp]
	mov	DWORD PTR [edx+44], -1
	mov	eax, DWORD PTR _this$[ebp]
	mov	DWORD PTR [eax+48], -1
	mov	ecx, DWORD PTR _this$[ebp]
	mov	DWORD PTR [ecx+52], -1
	mov	edx, DWORD PTR _this$[ebp]
	add	edx, 56					; 00000038H
	mov	DWORD PTR $T231992[ebp], edx
	lea	eax, DWORD PTR $T231977[ebp]
	mov	DWORD PTR $T231953[ebp], eax
	lea	ecx, DWORD PTR $T231964[ebp]
	mov	DWORD PTR $T231960[ebp], ecx
	mov	edx, DWORD PTR $T231992[ebp]
	mov	DWORD PTR tv232[ebp], edx
	mov	eax, DWORD PTR $T231992[ebp]
	mov	DWORD PTR tv207[ebp], eax
	mov	BYTE PTR __$EHRec$[ebp+8], 1
	push	0
	mov	ecx, DWORD PTR $T231992[ebp]
	call	?_Buy@?$vector@W4GameOptionTypes@@V?$allocator@W4GameOptionTypes@@@std@@@std@@IAE_NI@Z ; std::vector<enum GameOptionTypes,std::allocator<enum GameOptionTypes> >::_Buy
	mov	BYTE PTR __$EHRec$[ebp+8], 2
	mov	ecx, DWORD PTR _this$[ebp]
	add	ecx, 72					; 00000048H
	mov	DWORD PTR $T232038[ebp], ecx
	lea	edx, DWORD PTR $T232023[ebp]
	mov	DWORD PTR $T231999[ebp], edx
	lea	eax, DWORD PTR $T232010[ebp]
	mov	DWORD PTR $T232006[ebp], eax
	mov	ecx, DWORD PTR $T232038[ebp]
	mov	DWORD PTR tv273[ebp], ecx
	mov	edx, DWORD PTR $T232038[ebp]
	mov	DWORD PTR tv248[ebp], edx
	mov	BYTE PTR __$EHRec$[ebp+8], 3
	push	0
	mov	ecx, DWORD PTR $T232038[ebp]
	call	?_Buy@?$vector@W4VictoryTypes@@V?$allocator@W4VictoryTypes@@@std@@@std@@IAE_NI@Z ; std::vector<enum VictoryTypes,std::allocator<enum VictoryTypes> >::_Buy
	mov	BYTE PTR __$EHRec$[ebp+8], 4
	mov	eax, DWORD PTR _this$[ebp]
	mov	DWORD PTR [eax+88], -1
	mov	ecx, DWORD PTR _this$[ebp]
	mov	DWORD PTR [ecx+96], 0
	mov	edx, DWORD PTR _this$[ebp]
	mov	DWORD PTR [edx+100], 0
	mov	eax, DWORD PTR _this$[ebp]
	mov	DWORD PTR [eax+104], 0
	mov	ecx, DWORD PTR _this$[ebp]
	add	ecx, 108				; 0000006cH
	mov	DWORD PTR $T232043[ebp], ecx
	mov	ecx, DWORD PTR $T232043[ebp]
	call	DWORD PTR __imp_??0?$basic_string@DU?$char_traits@D@std@@V?$allocator@D@2@@std@@QAE@XZ
	mov	BYTE PTR __$EHRec$[ebp+8], 5
	mov	edx, DWORD PTR _this$[ebp]
	mov	DWORD PTR [edx+140], 0
	mov	eax, DWORD PTR _this$[ebp]
	add	eax, 144				; 00000090H
	mov	DWORD PTR $T232089[ebp], eax
	lea	ecx, DWORD PTR $T232074[ebp]
	mov	DWORD PTR $T232050[ebp], ecx
	lea	edx, DWORD PTR $T232061[ebp]
	mov	DWORD PTR $T232057[ebp], edx
	mov	eax, DWORD PTR $T232089[ebp]
	mov	DWORD PTR tv325[ebp], eax
	mov	ecx, DWORD PTR $T232089[ebp]
	mov	DWORD PTR tv300[ebp], ecx
	mov	BYTE PTR __$EHRec$[ebp+8], 6
	push	0
	mov	ecx, DWORD PTR $T232089[ebp]
	call	?_Buy@?$vector@UPlayerInfo@CvReplayInfo@@V?$allocator@UPlayerInfo@CvReplayInfo@@@std@@@std@@IAE_NI@Z ; std::vector<CvReplayInfo::PlayerInfo,std::allocator<CvReplayInfo::PlayerInfo> >::_Buy
	mov	BYTE PTR __$EHRec$[ebp+8], 7
	mov	edx, DWORD PTR _this$[ebp]
	add	edx, 160				; 000000a0H
	mov	DWORD PTR $T232135[ebp], edx
	lea	eax, DWORD PTR $T232120[ebp]
	mov	DWORD PTR $T232096[ebp], eax
	lea	ecx, DWORD PTR $T232107[ebp]
	mov	DWORD PTR $T232103[ebp], ecx
	mov	edx, DWORD PTR $T232135[ebp]
	mov	DWORD PTR tv366[ebp], edx
	mov	eax, DWORD PTR $T232135[ebp]
	mov	DWORD PTR tv341[ebp], eax
	mov	BYTE PTR __$EHRec$[ebp+8], 8
	push	0
	mov	ecx, DWORD PTR $T232135[ebp]
	call	?_Buy@?$vector@VCvReplayMessage@@V?$allocator@VCvReplayMessage@@@std@@@std@@IAE_NI@Z ; std::vector<CvReplayMessage,std::allocator<CvReplayMessage> >::_Buy
	mov	BYTE PTR __$EHRec$[ebp+8], 9
	mov	ecx, DWORD PTR _this$[ebp]
	add	ecx, 176				; 000000b0H
	call	??0?$vector@V?$basic_string@DU?$char_traits@D@std@@V?$allocator@D@2@@std@@V?$allocator@V?$basic_string@DU?$char_traits@D@std@@V?$allocator@D@2@@std@@@2@@std@@QAE@XZ ; std::vector<std::basic_string<char,std::char_traits<char>,std::allocator<char> >,std::allocator<std::basic_string<char,std::char_traits<char>,std::allocator<char> > > >::vector<std::basic_string<char,std::char_traits<char>,std::allocator<char> >,std::allocator<std::basic_string<char,std::char_traits<char>,std::allocator<char> > > >
	mov	BYTE PTR __$EHRec$[ebp+8], 10		; 0000000aH
	mov	ecx, DWORD PTR _this$[ebp]
	add	ecx, 192				; 000000c0H
	call	??0?$vector@V?$vector@V?$map@IHU?$less@I@std@@V?$allocator@U?$pair@$$CBIH@std@@@2@@std@@V?$allocator@V?$map@IHU?$less@I@std@@V?$allocator@U?$pair@$$CBIH@std@@@2@@std@@@2@@std@@V?$allocator@V?$vector@V?$map@IHU?$less@I@std@@V?$allocator@U?$pair@$$CBIH@std@@@2@@std@@V?$allocator@V?$map@IHU?$less@I@std@@V?$allocator@U?$pair@$$CBIH@std@@@2@@std@@@2@@std@@@2@@std@@QAE@XZ ; std::vector<std::vector<std::map<unsigned int,int,std::less<unsigned int>,std::allocator<std::pair<unsigned int const ,int> > >,std::allocator<std::map<unsigned int,int,std::less<unsigned int>,std::allocator<std::pair<unsigned int const ,int> > > > >,std::allocator<std::vector<std::map<unsigned int,int,std::less<unsigned int>,std::allocator<std::pair<unsigned int const ,int> > >,std::allocator<std::map<unsigned int,int,std::less<unsigned int>,std::allocator<std::pair<unsigned int const ,int> > > > > > >::vector<std::vector<std::map<unsigned int,int,std::less<unsigned int>,std::allocator<std::pair<unsigned int const ,int> > >,std::allocator<std::map<unsigned int,int,std::less<unsigned int>,std::allocator<std::pair<unsigned int const ,int> > > > >,std::allocator<std::vector<std::map<unsigned int,int,std::less<unsigned int>,std::allocator<std::pair<unsigned int const ,int> > >,std::allocator<std::map<unsigned int,int,std::less<unsigned int>,std::allocator<std::pair<unsigned int const ,int> > > > > > >
	mov	BYTE PTR __$EHRec$[ebp+8], 11		; 0000000bH
	mov	ecx, DWORD PTR _this$[ebp]
	mov	DWORD PTR [ecx+208], 0
	mov	edx, DWORD PTR _this$[ebp]
	mov	DWORD PTR [edx+212], 0
	mov	ecx, DWORD PTR _this$[ebp]
	add	ecx, 216				; 000000d8H
	call	??0?$vector@V?$map@IUPlotState@CvReplayInfo@@U?$less@I@std@@V?$allocator@U?$pair@$$CBIUPlotState@CvReplayInfo@@@std@@@4@@std@@V?$allocator@V?$map@IUPlotState@CvReplayInfo@@U?$less@I@std@@V?$allocator@U?$pair@$$CBIUPlotState@CvReplayInfo@@@std@@@4@@std@@@2@@std@@QAE@XZ ; std::vector<std::map<unsigned int,CvReplayInfo::PlotState,std::less<unsigned int>,std::allocator<std::pair<unsigned int const ,CvReplayInfo::PlotState> > >,std::allocator<std::map<unsigned int,CvReplayInfo::PlotState,std::less<unsigned int>,std::allocator<std::pair<unsigned int const ,CvReplayInfo::PlotState> > > > >::vector<std::map<unsigned int,CvReplayInfo::PlotState,std::less<unsigned int>,std::allocator<std::pair<unsigned int const ,CvReplayInfo::PlotState> > >,std::allocator<std::map<unsigned int,CvReplayInfo::PlotState,std::less<unsigned int>,std::allocator<std::pair<unsigned int const ,CvReplayInfo::PlotState> > > > >

; 57   : }

	mov	DWORD PTR __$EHRec$[ebp+8], -1
	mov	eax, DWORD PTR _this$[ebp]
	mov	ecx, DWORD PTR __$EHRec$[ebp]
	mov	DWORD PTR fs:0, ecx
	pop	ecx
	mov	esp, ebp
	pop	ebp
	ret	0
_TEXT	ENDS
;	COMDAT text$x
text$x	SEGMENT
__unwindfunclet$??0CvReplayInfo@@QAE@XZ$0:
	mov	ecx, DWORD PTR _this$[ebp]
	add	ecx, 8
	jmp	??1CvString@@QAE@XZ			; CvString::~CvString
__unwindfunclet$??0CvReplayInfo@@QAE@XZ$10:
	mov	ecx, DWORD PTR $T231992[ebp]
	jmp	??1?$_Vector_val@W4GameOptionTypes@@V?$allocator@W4GameOptionTypes@@@std@@@std@@QAE@XZ
__unwindfunclet$??0CvReplayInfo@@QAE@XZ$1:
	mov	ecx, DWORD PTR _this$[ebp]
	add	ecx, 56					; 00000038H
	jmp	??1?$vector@W4GameOptionTypes@@V?$allocator@W4GameOptionTypes@@@std@@@std@@QAE@XZ ; std::vector<enum GameOptionTypes,std::allocator<enum GameOptionTypes> >::~vector<enum GameOptionTypes,std::allocator<enum GameOptionTypes> >
__unwindfunclet$??0CvReplayInfo@@QAE@XZ$12:
	mov	ecx, DWORD PTR $T232038[ebp]
	jmp	??1?$_Vector_val@W4VictoryTypes@@V?$allocator@W4VictoryTypes@@@std@@@std@@QAE@XZ
__unwindfunclet$??0CvReplayInfo@@QAE@XZ$2:
	mov	ecx, DWORD PTR _this$[ebp]
	add	ecx, 72					; 00000048H
	jmp	??1?$vector@W4VictoryTypes@@V?$allocator@W4VictoryTypes@@@std@@@std@@QAE@XZ ; std::vector<enum VictoryTypes,std::allocator<enum VictoryTypes> >::~vector<enum VictoryTypes,std::allocator<enum VictoryTypes> >
__unwindfunclet$??0CvReplayInfo@@QAE@XZ$3:
	mov	ecx, DWORD PTR _this$[ebp]
	add	ecx, 108				; 0000006cH
	jmp	??1CvString@@QAE@XZ			; CvString::~CvString
__unwindfunclet$??0CvReplayInfo@@QAE@XZ$15:
	mov	ecx, DWORD PTR $T232089[ebp]
	jmp	??1?$_Vector_val@UPlayerInfo@CvReplayInfo@@V?$allocator@UPlayerInfo@CvReplayInfo@@@std@@@std@@QAE@XZ
__unwindfunclet$??0CvReplayInfo@@QAE@XZ$4:
	mov	ecx, DWORD PTR _this$[ebp]
	add	ecx, 144				; 00000090H
	jmp	??1?$vector@UPlayerInfo@CvReplayInfo@@V?$allocator@UPlayerInfo@CvReplayInfo@@@std@@@std@@QAE@XZ ; std::vector<CvReplayInfo::PlayerInfo,std::allocator<CvReplayInfo::PlayerInfo> >::~vector<CvReplayInfo::PlayerInfo,std::allocator<CvReplayInfo::PlayerInfo> >
__unwindfunclet$??0CvReplayInfo@@QAE@XZ$17:
	mov	ecx, DWORD PTR $T232135[ebp]
	jmp	??1?$_Vector_val@VCvReplayMessage@@V?$allocator@VCvReplayMessage@@@std@@@std@@QAE@XZ
__unwindfunclet$??0CvReplayInfo@@QAE@XZ$5:
	mov	ecx, DWORD PTR _this$[ebp]
	add	ecx, 160				; 000000a0H
	jmp	??1?$vector@VCvReplayMessage@@V?$allocator@VCvReplayMessage@@@std@@@std@@QAE@XZ ; std::vector<CvReplayMessage,std::allocator<CvReplayMessage> >::~vector<CvReplayMessage,std::allocator<CvReplayMessage> >
__unwindfunclet$??0CvReplayInfo@@QAE@XZ$6:
	mov	ecx, DWORD PTR _this$[ebp]
	add	ecx, 176				; 000000b0H
	jmp	??1?$vector@V?$basic_string@DU?$char_traits@D@std@@V?$allocator@D@2@@std@@V?$allocator@V?$basic_string@DU?$char_traits@D@std@@V?$allocator@D@2@@std@@@2@@std@@QAE@XZ ; std::vector<std::basic_string<char,std::char_traits<char>,std::allocator<char> >,std::allocator<std::basic_string<char,std::char_traits<char>,std::allocator<char> > > >::~vector<std::basic_string<char,std::char_traits<char>,std::allocator<char> >,std::allocator<std::basic_string<char,std::char_traits<char>,std::allocator<char> > > >
__unwindfunclet$??0CvReplayInfo@@QAE@XZ$7:
	mov	ecx, DWORD PTR _this$[ebp]
	add	ecx, 192				; 000000c0H
	jmp	??1?$vector@V?$vector@V?$map@IHU?$less@I@std@@V?$allocator@U?$pair@$$CBIH@std@@@2@@std@@V?$allocator@V?$map@IHU?$less@I@std@@V?$allocator@U?$pair@$$CBIH@std@@@2@@std@@@2@@std@@V?$allocator@V?$vector@V?$map@IHU?$less@I@std@@V?$allocator@U?$pair@$$CBIH@std@@@2@@std@@V?$allocator@V?$map@IHU?$less@I@std@@V?$allocator@U?$pair@$$CBIH@std@@@2@@std@@@2@@std@@@2@@std@@QAE@XZ ; std::vector<std::vector<std::map<unsigned int,int,std::less<unsigned int>,std::allocator<std::pair<unsigned int const ,int> > >,std::allocator<std::map<unsigned int,int,std::less<unsigned int>,std::allocator<std::pair<unsigned int const ,int> > > > >,std::allocator<std::vector<std::map<unsigned int,int,std::less<unsigned int>,std::allocator<std::pair<unsigned int const ,int> > >,std::allocator<std::map<unsigned int,int,std::less<unsigned int>,std::allocator<std::pair<unsigned int const ,int> > > > > > >::~vector<std::vector<std::map<unsigned int,int,std::less<unsigned int>,std::allocator<std::pair<unsigned int const ,int> > >,std::allocator<std::map<unsigned int,int,std::less<unsigned int>,std::allocator<std::pair<unsigned int const ,int> > > > >,std::allocator<std::vector<std::map<unsigned int,int,std::less<unsigned int>,std::allocator<std::pair<unsigned int const ,int> > >,std::allocator<std::map<unsigned int,int,std::less<unsigned int>,std::allocator<std::pair<unsigned int const ,int> > > > > > >
__ehhandler$??0CvReplayInfo@@QAE@XZ:
	mov	edx, DWORD PTR [esp+8]
	lea	eax, DWORD PTR [edx+12]
	mov	ecx, DWORD PTR [edx-168]
	xor	ecx, eax
	call	@__security_check_cookie@4
	mov	eax, OFFSET __ehfuncinfo$??0CvReplayInfo@@QAE@XZ
	jmp	___CxxFrameHandler3
text$x	ENDS
??0CvReplayInfo@@QAE@XZ ENDP				; CvReplayInfo::CvReplayInfo
PUBLIC	??1CvReplayInfo@@UAE@XZ				; CvReplayInfo::~CvReplayInfo
EXTRN	??3@YAXPAX@Z:PROC				; operator delete
; Function compile flags: /Odtp
;	COMDAT ??_GCvReplayInfo@@UAEPAXI@Z
_TEXT	SEGMENT
_this$ = -4						; size = 4
___flags$ = 8						; size = 4
??_GCvReplayInfo@@UAEPAXI@Z PROC			; CvReplayInfo::`scalar deleting destructor', COMDAT
; _this$ = ecx
	push	ebp
	mov	ebp, esp
	push	ecx
	mov	DWORD PTR _this$[ebp], ecx
	mov	ecx, DWORD PTR _this$[ebp]
	call	??1CvReplayInfo@@UAE@XZ			; CvReplayInfo::~CvReplayInfo
	mov	eax, DWORD PTR ___flags$[ebp]
	and	eax, 1
	je	SHORT $LN1@scalar
	mov	ecx, DWORD PTR _this$[ebp]
	push	ecx
	call	??3@YAXPAX@Z				; operator delete
	add	esp, 4
$LN1@scalar:
	mov	eax, DWORD PTR _this$[ebp]
	mov	esp, ebp
	pop	ebp
	ret	4
??_GCvReplayInfo@@UAEPAXI@Z ENDP			; CvReplayInfo::`scalar deleting destructor'
_TEXT	ENDS
PUBLIC	??1?$_Vector_val@V?$basic_string@DU?$char_traits@D@std@@V?$allocator@D@2@@std@@V?$allocator@V?$basic_string@DU?$char_traits@D@std@@V?$allocator@D@2@@std@@@2@@std@@QAE@XZ ; std::_Vector_val<std::basic_string<char,std::char_traits<char>,std::allocator<char> >,std::allocator<std::basic_string<char,std::char_traits<char>,std::allocator<char> > > >::~_Vector_val<std::basic_string<char,std::char_traits<char>,std::allocator<char> >,std::allocator<std::basic_string<char,std::char_traits<char>,std::allocator<char> > > >
PUBLIC	??1?$_Vector_val@V?$vector@V?$map@IHU?$less@I@std@@V?$allocator@U?$pair@$$CBIH@std@@@2@@std@@V?$allocator@V?$map@IHU?$less@I@std@@V?$allocator@U?$pair@$$CBIH@std@@@2@@std@@@2@@std@@V?$allocator@V?$vector@V?$map@IHU?$less@I@std@@V?$allocator@U?$pair@$$CBIH@std@@@2@@std@@V?$allocator@V?$map@IHU?$less@I@std@@V?$allocator@U?$pair@$$CBIH@std@@@2@@std@@@2@@std@@@2@@std@@QAE@XZ ; std::_Vector_val<std::vector<std::map<unsigned int,int,std::less<unsigned int>,std::allocator<std::pair<unsigned int const ,int> > >,std::allocator<std::map<unsigned int,int,std::less<unsigned int>,std::allocator<std::pair<unsigned int const ,int> > > > >,std::allocator<std::vector<std::map<unsigned int,int,std::less<unsigned int>,std::allocator<std::pair<unsigned int const ,int> > >,std::allocator<std::map<unsigned int,int,std::less<unsigned int>,std::allocator<std::pair<unsigned int const ,int> > > > > > >::~_Vector_val<std::vector<std::map<unsigned int,int,std::less<unsigned int>,std::allocator<std::pair<unsigned int const ,int> > >,std::allocator<std::map<unsigned int,int,std::less<unsigned int>,std::allocator<std::pair<unsigned int const ,int> > > > >,std::allocator<std::vector<std::map<unsigned int,int,std::less<unsigned int>,std::allocator<std::pair<unsigned int const ,int> > >,std::allocator<std::map<unsigned int,int,std::less<unsigned int>,std::allocator<std::pair<unsigned int const ,int> > > > > > >
PUBLIC	??1?$_Vector_val@V?$map@IUPlotState@CvReplayInfo@@U?$less@I@std@@V?$allocator@U?$pair@$$CBIUPlotState@CvReplayInfo@@@std@@@4@@std@@V?$allocator@V?$map@IUPlotState@CvReplayInfo@@U?$less@I@std@@V?$allocator@U?$pair@$$CBIUPlotState@CvReplayInfo@@@std@@@4@@std@@@2@@std@@QAE@XZ ; std::_Vector_val<std::map<unsigned int,CvReplayInfo::PlotState,std::less<unsigned int>,std::allocator<std::pair<unsigned int const ,CvReplayInfo::PlotState> > >,std::allocator<std::map<unsigned int,CvReplayInfo::PlotState,std::less<unsigned int>,std::allocator<std::pair<unsigned int const ,CvReplayInfo::PlotState> > > > >::~_Vector_val<std::map<unsigned int,CvReplayInfo::PlotState,std::less<unsigned int>,std::allocator<std::pair<unsigned int const ,CvReplayInfo::PlotState> > >,std::allocator<std::map<unsigned int,CvReplayInfo::PlotState,std::less<unsigned int>,std::allocator<std::pair<unsigned int const ,CvReplayInfo::PlotState> > > > >
PUBLIC	?_Tidy@?$vector@W4GameOptionTypes@@V?$allocator@W4GameOptionTypes@@@std@@@std@@IAEXXZ ; std::vector<enum GameOptionTypes,std::allocator<enum GameOptionTypes> >::_Tidy
PUBLIC	?_Tidy@?$vector@W4VictoryTypes@@V?$allocator@W4VictoryTypes@@@std@@@std@@IAEXXZ ; std::vector<enum VictoryTypes,std::allocator<enum VictoryTypes> >::_Tidy
PUBLIC	?_Tidy@?$vector@UPlayerInfo@CvReplayInfo@@V?$allocator@UPlayerInfo@CvReplayInfo@@@std@@@std@@IAEXXZ ; std::vector<CvReplayInfo::PlayerInfo,std::allocator<CvReplayInfo::PlayerInfo> >::_Tidy
PUBLIC	?_Tidy@?$vector@VCvReplayMessage@@V?$allocator@VCvReplayMessage@@@std@@@std@@IAEXXZ ; std::vector<CvReplayMessage,std::allocator<CvReplayMessage> >::_Tidy
PUBLIC	?_Tidy@?$vector@V?$basic_string@DU?$char_traits@D@std@@V?$allocator@D@2@@std@@V?$allocator@V?$basic_string@DU?$char_traits@D@std@@V?$allocator@D@2@@std@@@2@@std@@IAEXXZ ; std::vector<std::basic_string<char,std::char_traits<char>,std::allocator<char> >,std::allocator<std::basic_string<char,std::char_traits<char>,std::allocator<char> > > >::_Tidy
PUBLIC	?_Tidy@?$vector@V?$vector@V?$map@IHU?$less@I@std@@V?$allocator@U?$pair@$$CBIH@std@@@2@@std@@V?$allocator@V?$map@IHU?$less@I@std@@V?$allocator@U?$pair@$$CBIH@std@@@2@@std@@@2@@std@@V?$allocator@V?$vector@V?$map@IHU?$less@I@std@@V?$allocator@U?$pair@$$CBIH@std@@@2@@std@@V?$allocator@V?$map@IHU?$less@I@std@@V?$allocator@U?$pair@$$CBIH@std@@@2@@std@@@2@@std@@@2@@std@@IAEXXZ ; std::vector<std::vector<std::map<unsigned int,int,std::less<unsigned int>,std::allocator<std::pair<unsigned int const ,int> > >,std::allocator<std::map<unsigned int,int,std::less<unsigned int>,std::allocator<std::pair<unsigned int const ,int> > > > >,std::allocator<std::vector<std::map<unsigned int,int,std::less<unsigned int>,std::allocator<std::pair<unsigned int const ,int> > >,std::allocator<std::map<unsigned int,int,std::less<unsigned int>,std::allocator<std::pair<unsigned int const ,int> > > > > > >::_Tidy
PUBLIC	?_Tidy@?$vector@V?$map@IUPlotState@CvReplayInfo@@U?$less@I@std@@V?$allocator@U?$pair@$$CBIUPlotState@CvReplayInfo@@@std@@@4@@std@@V?$allocator@V?$map@IUPlotState@CvReplayInfo@@U?$less@I@std@@V?$allocator@U?$pair@$$CBIUPlotState@CvReplayInfo@@@std@@@4@@std@@@2@@std@@IAEXXZ ; std::vector<std::map<unsigned int,CvReplayInfo::PlotState,std::less<unsigned int>,std::allocator<std::pair<unsigned int const ,CvReplayInfo::PlotState> > >,std::allocator<std::map<unsigned int,CvReplayInfo::PlotState,std::less<unsigned int>,std::allocator<std::pair<unsigned int const ,CvReplayInfo::PlotState> > > > >::_Tidy
EXTRN	__imp_??1?$basic_string@DU?$char_traits@D@std@@V?$allocator@D@2@@std@@QAE@XZ:PROC
;	COMDAT xdata$x
; File d:\sources\lekmod_git\checkout\lekmod_dll\cvgamecoredllutil\include\cvstring.h
xdata$x	SEGMENT
__ehfuncinfo$??1CvReplayInfo@@UAE@XZ DD 019930522H
	DD	0fH
	DD	FLAT:__unwindtable$??1CvReplayInfo@@UAE@XZ
	DD	2 DUP(00H)
	DD	2 DUP(00H)
	DD	00H
	DD	01H
__unwindtable$??1CvReplayInfo@@UAE@XZ DD 0ffffffffH
	DD	FLAT:__unwindfunclet$??1CvReplayInfo@@UAE@XZ$0
	DD	00H
	DD	FLAT:__unwindfunclet$??1CvReplayInfo@@UAE@XZ$1
	DD	01H
	DD	FLAT:__unwindfunclet$??1CvReplayInfo@@UAE@XZ$2
	DD	02H
	DD	FLAT:__unwindfunclet$??1CvReplayInfo@@UAE@XZ$3
	DD	03H
	DD	FLAT:__unwindfunclet$??1CvReplayInfo@@UAE@XZ$4
	DD	04H
	DD	FLAT:__unwindfunclet$??1CvReplayInfo@@UAE@XZ$5
	DD	05H
	DD	FLAT:__unwindfunclet$??1CvReplayInfo@@UAE@XZ$6
	DD	06H
	DD	FLAT:__unwindfunclet$??1CvReplayInfo@@UAE@XZ$7
	DD	07H
	DD	FLAT:__unwindfunclet$??1CvReplayInfo@@UAE@XZ$9
	DD	06H
	DD	FLAT:__unwindfunclet$??1CvReplayInfo@@UAE@XZ$17
	DD	05H
	DD	FLAT:__unwindfunclet$??1CvReplayInfo@@UAE@XZ$21
	DD	04H
	DD	FLAT:__unwindfunclet$??1CvReplayInfo@@UAE@XZ$23
	DD	03H
	DD	FLAT:__unwindfunclet$??1CvReplayInfo@@UAE@XZ$25
	DD	01H
	DD	FLAT:__unwindfunclet$??1CvReplayInfo@@UAE@XZ$28
	DD	00H
	DD	FLAT:__unwindfunclet$??1CvReplayInfo@@UAE@XZ$30
; Function compile flags: /Odtp
; File d:\sources\lekmod_git\checkout\lekmod_dll\cvgamecoredll_expansion2\cvreplayinfo.cpp
xdata$x	ENDS
;	COMDAT ??1CvReplayInfo@@UAE@XZ
_TEXT	SEGMENT
_this$ = -296						; size = 4
$T233079 = -292						; size = 4
$T233074 = -288						; size = 4
$T232988 = -252						; size = 4
$T232902 = -216						; size = 4
$T232897 = -212						; size = 4
$T232791 = -172						; size = 4
$T232704 = -132						; size = 4
$T232598 = -92						; size = 4
$T232439 = -52						; size = 4
__$EHRec$ = -12						; size = 12
??1CvReplayInfo@@UAE@XZ PROC				; CvReplayInfo::~CvReplayInfo, COMDAT
; _this$ = ecx

; 60   : {

	push	ebp
	mov	ebp, esp
	push	-1
	push	__ehhandler$??1CvReplayInfo@@UAE@XZ
	mov	eax, DWORD PTR fs:0
	push	eax
	sub	esp, 284				; 0000011cH
	mov	eax, DWORD PTR ___security_cookie
	xor	eax, ebp
	push	eax
	lea	eax, DWORD PTR __$EHRec$[ebp]
	mov	DWORD PTR fs:0, eax
	mov	DWORD PTR _this$[ebp], ecx
	mov	eax, DWORD PTR _this$[ebp]
	mov	DWORD PTR [eax], OFFSET ??_7CvReplayInfo@@6B@
	mov	DWORD PTR __$EHRec$[ebp+8], 7

; 61   : };

	mov	ecx, DWORD PTR _this$[ebp]
	add	ecx, 216				; 000000d8H
	mov	DWORD PTR $T232439[ebp], ecx
	mov	BYTE PTR __$EHRec$[ebp+8], 8
	mov	ecx, DWORD PTR $T232439[ebp]
	call	?_Tidy@?$vector@V?$map@IUPlotState@CvReplayInfo@@U?$less@I@std@@V?$allocator@U?$pair@$$CBIUPlotState@CvReplayInfo@@@std@@@4@@std@@V?$allocator@V?$map@IUPlotState@CvReplayInfo@@U?$less@I@std@@V?$allocator@U?$pair@$$CBIUPlotState@CvReplayInfo@@@std@@@4@@std@@@2@@std@@IAEXXZ ; std::vector<std::map<unsigned int,CvReplayInfo::PlotState,std::less<unsigned int>,std::allocator<std::pair<unsigned int const ,CvReplayInfo::PlotState> > >,std::allocator<std::map<unsigned int,CvReplayInfo::PlotState,std::less<unsigned int>,std::allocator<std::pair<unsigned int const ,CvReplayInfo::PlotState> > > > >::_Tidy
	mov	BYTE PTR __$EHRec$[ebp+8], 7
	mov	BYTE PTR __$EHRec$[ebp+8], 6
	mov	edx, DWORD PTR _this$[ebp]
	add	edx, 192				; 000000c0H
	mov	DWORD PTR $T232598[ebp], edx
	mov	BYTE PTR __$EHRec$[ebp+8], 9
	mov	ecx, DWORD PTR $T232598[ebp]
	call	?_Tidy@?$vector@V?$vector@V?$map@IHU?$less@I@std@@V?$allocator@U?$pair@$$CBIH@std@@@2@@std@@V?$allocator@V?$map@IHU?$less@I@std@@V?$allocator@U?$pair@$$CBIH@std@@@2@@std@@@2@@std@@V?$allocator@V?$vector@V?$map@IHU?$less@I@std@@V?$allocator@U?$pair@$$CBIH@std@@@2@@std@@V?$allocator@V?$map@IHU?$less@I@std@@V?$allocator@U?$pair@$$CBIH@std@@@2@@std@@@2@@std@@@2@@std@@IAEXXZ ; std::vector<std::vector<std::map<unsigned int,int,std::less<unsigned int>,std::allocator<std::pair<unsigned int const ,int> > >,std::allocator<std::map<unsigned int,int,std::less<unsigned int>,std::allocator<std::pair<unsigned int const ,int> > > > >,std::allocator<std::vector<std::map<unsigned int,int,std::less<unsigned int>,std::allocator<std::pair<unsigned int const ,int> > >,std::allocator<std::map<unsigned int,int,std::less<unsigned int>,std::allocator<std::pair<unsigned int const ,int> > > > > > >::_Tidy
	mov	BYTE PTR __$EHRec$[ebp+8], 6
	mov	BYTE PTR __$EHRec$[ebp+8], 5
	mov	eax, DWORD PTR _this$[ebp]
	add	eax, 176				; 000000b0H
	mov	DWORD PTR $T232704[ebp], eax
	mov	BYTE PTR __$EHRec$[ebp+8], 10		; 0000000aH
	mov	ecx, DWORD PTR $T232704[ebp]
	call	?_Tidy@?$vector@V?$basic_string@DU?$char_traits@D@std@@V?$allocator@D@2@@std@@V?$allocator@V?$basic_string@DU?$char_traits@D@std@@V?$allocator@D@2@@std@@@2@@std@@IAEXXZ ; std::vector<std::basic_string<char,std::char_traits<char>,std::allocator<char> >,std::allocator<std::basic_string<char,std::char_traits<char>,std::allocator<char> > > >::_Tidy
	mov	BYTE PTR __$EHRec$[ebp+8], 5
	mov	BYTE PTR __$EHRec$[ebp+8], 4
	mov	ecx, DWORD PTR _this$[ebp]
	add	ecx, 160				; 000000a0H
	mov	DWORD PTR $T232791[ebp], ecx
	mov	BYTE PTR __$EHRec$[ebp+8], 11		; 0000000bH
	mov	ecx, DWORD PTR $T232791[ebp]
	call	?_Tidy@?$vector@VCvReplayMessage@@V?$allocator@VCvReplayMessage@@@std@@@std@@IAEXXZ ; std::vector<CvReplayMessage,std::allocator<CvReplayMessage> >::_Tidy
	mov	BYTE PTR __$EHRec$[ebp+8], 4
	mov	BYTE PTR __$EHRec$[ebp+8], 3
	mov	edx, DWORD PTR _this$[ebp]
	add	edx, 144				; 00000090H
	mov	DWORD PTR $T232897[ebp], edx
	mov	BYTE PTR __$EHRec$[ebp+8], 12		; 0000000cH
	mov	ecx, DWORD PTR $T232897[ebp]
	call	?_Tidy@?$vector@UPlayerInfo@CvReplayInfo@@V?$allocator@UPlayerInfo@CvReplayInfo@@@std@@@std@@IAEXXZ ; std::vector<CvReplayInfo::PlayerInfo,std::allocator<CvReplayInfo::PlayerInfo> >::_Tidy
	mov	BYTE PTR __$EHRec$[ebp+8], 3
	mov	BYTE PTR __$EHRec$[ebp+8], 2
	mov	eax, DWORD PTR _this$[ebp]
	add	eax, 108				; 0000006cH
	mov	DWORD PTR $T232902[ebp], eax
	mov	ecx, DWORD PTR $T232902[ebp]
	call	DWORD PTR __imp_??1?$basic_string@DU?$char_traits@D@std@@V?$allocator@D@2@@std@@QAE@XZ
	mov	BYTE PTR __$EHRec$[ebp+8], 1
	mov	ecx, DWORD PTR _this$[ebp]
	add	ecx, 72					; 00000048H
	mov	DWORD PTR $T232988[ebp], ecx
	mov	BYTE PTR __$EHRec$[ebp+8], 13		; 0000000dH
	mov	ecx, DWORD PTR $T232988[ebp]
	call	?_Tidy@?$vector@W4VictoryTypes@@V?$allocator@W4VictoryTypes@@@std@@@std@@IAEXXZ ; std::vector<enum VictoryTypes,std::allocator<enum VictoryTypes> >::_Tidy
	mov	BYTE PTR __$EHRec$[ebp+8], 1
	mov	BYTE PTR __$EHRec$[ebp+8], 0
	mov	edx, DWORD PTR _this$[ebp]
	add	edx, 56					; 00000038H
	mov	DWORD PTR $T233074[ebp], edx
	mov	BYTE PTR __$EHRec$[ebp+8], 14		; 0000000eH
	mov	ecx, DWORD PTR $T233074[ebp]
	call	?_Tidy@?$vector@W4GameOptionTypes@@V?$allocator@W4GameOptionTypes@@@std@@@std@@IAEXXZ ; std::vector<enum GameOptionTypes,std::allocator<enum GameOptionTypes> >::_Tidy
	mov	BYTE PTR __$EHRec$[ebp+8], 0
	mov	DWORD PTR __$EHRec$[ebp+8], -1
	mov	eax, DWORD PTR _this$[ebp]
	add	eax, 8
	mov	DWORD PTR $T233079[ebp], eax
	mov	ecx, DWORD PTR $T233079[ebp]
	call	DWORD PTR __imp_??1?$basic_string@DU?$char_traits@D@std@@V?$allocator@D@2@@std@@QAE@XZ
	mov	ecx, DWORD PTR __$EHRec$[ebp]
	mov	DWORD PTR fs:0, ecx
	pop	ecx
	mov	esp, ebp
	pop	ebp
	ret	0
_TEXT	ENDS
;	COMDAT text$x
text$x	SEGMENT
__unwindfunclet$??1CvReplayInfo@@UAE@XZ$0:
	mov	ecx, DWORD PTR _this$[ebp]
	add	ecx, 8
	jmp	??1CvString@@QAE@XZ			; CvString::~CvString
__unwindfunclet$??1CvReplayInfo@@UAE@XZ$1:
	mov	ecx, DWORD PTR _this$[ebp]
	add	ecx, 56					; 00000038H
	jmp	??1?$vector@W4GameOptionTypes@@V?$allocator@W4GameOptionTypes@@@std@@@std@@QAE@XZ ; std::vector<enum GameOptionTypes,std::allocator<enum GameOptionTypes> >::~vector<enum GameOptionTypes,std::allocator<enum GameOptionTypes> >
__unwindfunclet$??1CvReplayInfo@@UAE@XZ$2:
	mov	ecx, DWORD PTR _this$[ebp]
	add	ecx, 72					; 00000048H
	jmp	??1?$vector@W4VictoryTypes@@V?$allocator@W4VictoryTypes@@@std@@@std@@QAE@XZ ; std::vector<enum VictoryTypes,std::allocator<enum VictoryTypes> >::~vector<enum VictoryTypes,std::allocator<enum VictoryTypes> >
__unwindfunclet$??1CvReplayInfo@@UAE@XZ$3:
	mov	ecx, DWORD PTR _this$[ebp]
	add	ecx, 108				; 0000006cH
	jmp	??1CvString@@QAE@XZ			; CvString::~CvString
__unwindfunclet$??1CvReplayInfo@@UAE@XZ$4:
	mov	ecx, DWORD PTR _this$[ebp]
	add	ecx, 144				; 00000090H
	jmp	??1?$vector@UPlayerInfo@CvReplayInfo@@V?$allocator@UPlayerInfo@CvReplayInfo@@@std@@@std@@QAE@XZ ; std::vector<CvReplayInfo::PlayerInfo,std::allocator<CvReplayInfo::PlayerInfo> >::~vector<CvReplayInfo::PlayerInfo,std::allocator<CvReplayInfo::PlayerInfo> >
__unwindfunclet$??1CvReplayInfo@@UAE@XZ$5:
	mov	ecx, DWORD PTR _this$[ebp]
	add	ecx, 160				; 000000a0H
	jmp	??1?$vector@VCvReplayMessage@@V?$allocator@VCvReplayMessage@@@std@@@std@@QAE@XZ ; std::vector<CvReplayMessage,std::allocator<CvReplayMessage> >::~vector<CvReplayMessage,std::allocator<CvReplayMessage> >
__unwindfunclet$??1CvReplayInfo@@UAE@XZ$6:
	mov	ecx, DWORD PTR _this$[ebp]
	add	ecx, 176				; 000000b0H
	jmp	??1?$vector@V?$basic_string@DU?$char_traits@D@std@@V?$allocator@D@2@@std@@V?$allocator@V?$basic_string@DU?$char_traits@D@std@@V?$allocator@D@2@@std@@@2@@std@@QAE@XZ ; std::vector<std::basic_string<char,std::char_traits<char>,std::allocator<char> >,std::allocator<std::basic_string<char,std::char_traits<char>,std::allocator<char> > > >::~vector<std::basic_string<char,std::char_traits<char>,std::allocator<char> >,std::allocator<std::basic_string<char,std::char_traits<char>,std::allocator<char> > > >
__unwindfunclet$??1CvReplayInfo@@UAE@XZ$7:
	mov	ecx, DWORD PTR _this$[ebp]
	add	ecx, 192				; 000000c0H
	jmp	??1?$vector@V?$vector@V?$map@IHU?$less@I@std@@V?$allocator@U?$pair@$$CBIH@std@@@2@@std@@V?$allocator@V?$map@IHU?$less@I@std@@V?$allocator@U?$pair@$$CBIH@std@@@2@@std@@@2@@std@@V?$allocator@V?$vector@V?$map@IHU?$less@I@std@@V?$allocator@U?$pair@$$CBIH@std@@@2@@std@@V?$allocator@V?$map@IHU?$less@I@std@@V?$allocator@U?$pair@$$CBIH@std@@@2@@std@@@2@@std@@@2@@std@@QAE@XZ ; std::vector<std::vector<std::map<unsigned int,int,std::less<unsigned int>,std::allocator<std::pair<unsigned int const ,int> > >,std::allocator<std::map<unsigned int,int,std::less<unsigned int>,std::allocator<std::pair<unsigned int const ,int> > > > >,std::allocator<std::vector<std::map<unsigned int,int,std::less<unsigned int>,std::allocator<std::pair<unsigned int const ,int> > >,std::allocator<std::map<unsigned int,int,std::less<unsigned int>,std::allocator<std::pair<unsigned int const ,int> > > > > > >::~vector<std::vector<std::map<unsigned int,int,std::less<unsigned int>,std::allocator<std::pair<unsigned int const ,int> > >,std::allocator<std::map<unsigned int,int,std::less<unsigned int>,std::allocator<std::pair<unsigned int const ,int> > > > >,std::allocator<std::vector<std::map<unsigned int,int,std::less<unsigned int>,std::allocator<std::pair<unsigned int const ,int> > >,std::allocator<std::map<unsigned int,int,std::less<unsigned int>,std::allocator<std::pair<unsigned int const ,int> > > > > > >
__unwindfunclet$??1CvReplayInfo@@UAE@XZ$9:
	mov	ecx, DWORD PTR $T232439[ebp]
	jmp	??1?$_Vector_val@V?$map@IUPlotState@CvReplayInfo@@U?$less@I@std@@V?$allocator@U?$pair@$$CBIUPlotState@CvReplayInfo@@@std@@@4@@std@@V?$allocator@V?$map@IUPlotState@CvReplayInfo@@U?$less@I@std@@V?$allocator@U?$pair@$$CBIUPlotState@CvReplayInfo@@@std@@@4@@std@@@2@@std@@QAE@XZ
__unwindfunclet$??1CvReplayInfo@@UAE@XZ$17:
	mov	ecx, DWORD PTR $T232598[ebp]
	jmp	??1?$_Vector_val@V?$vector@V?$map@IHU?$less@I@std@@V?$allocator@U?$pair@$$CBIH@std@@@2@@std@@V?$allocator@V?$map@IHU?$less@I@std@@V?$allocator@U?$pair@$$CBIH@std@@@2@@std@@@2@@std@@V?$allocator@V?$vector@V?$map@IHU?$less@I@std@@V?$allocator@U?$pair@$$CBIH@std@@@2@@std@@V?$allocator@V?$map@IHU?$less@I@std@@V?$allocator@U?$pair@$$CBIH@std@@@2@@std@@@2@@std@@@2@@std@@QAE@XZ
__unwindfunclet$??1CvReplayInfo@@UAE@XZ$21:
	mov	ecx, DWORD PTR $T232704[ebp]
	jmp	??1?$_Vector_val@V?$basic_string@DU?$char_traits@D@std@@V?$allocator@D@2@@std@@V?$allocator@V?$basic_string@DU?$char_traits@D@std@@V?$allocator@D@2@@std@@@2@@std@@QAE@XZ
__unwindfunclet$??1CvReplayInfo@@UAE@XZ$23:
	mov	ecx, DWORD PTR $T232791[ebp]
	jmp	??1?$_Vector_val@VCvReplayMessage@@V?$allocator@VCvReplayMessage@@@std@@@std@@QAE@XZ
__unwindfunclet$??1CvReplayInfo@@UAE@XZ$25:
	mov	ecx, DWORD PTR $T232897[ebp]
	jmp	??1?$_Vector_val@UPlayerInfo@CvReplayInfo@@V?$allocator@UPlayerInfo@CvReplayInfo@@@std@@@std@@QAE@XZ
__unwindfunclet$??1CvReplayInfo@@UAE@XZ$28:
	mov	ecx, DWORD PTR $T232988[ebp]
	jmp	??1?$_Vector_val@W4VictoryTypes@@V?$allocator@W4VictoryTypes@@@std@@@std@@QAE@XZ
__unwindfunclet$??1CvReplayInfo@@UAE@XZ$30:
	mov	ecx, DWORD PTR $T233074[ebp]
	jmp	??1?$_Vector_val@W4GameOptionTypes@@V?$allocator@W4GameOptionTypes@@@std@@@std@@QAE@XZ
__ehhandler$??1CvReplayInfo@@UAE@XZ:
	mov	edx, DWORD PTR [esp+8]
	lea	eax, DWORD PTR [edx+12]
	mov	ecx, DWORD PTR [edx-288]
	xor	ecx, eax
	call	@__security_check_cookie@4
	mov	eax, OFFSET __ehfuncinfo$??1CvReplayInfo@@UAE@XZ
	jmp	___CxxFrameHandler3
text$x	ENDS
??1CvReplayInfo@@UAE@XZ ENDP				; CvReplayInfo::~CvReplayInfo
PUBLIC	??1?$_Tree_val@V?$_Tmap_traits@HHU?$less@H@std@@V?$allocator@U?$pair@$$CBHH@std@@@2@$0A@@std@@@std@@QAE@XZ ; std::_Tree_val<std::_Tmap_traits<int,int,std::less<int>,std::allocator<std::pair<int const ,int> >,0> >::~_Tree_val<std::_Tmap_traits<int,int,std::less<int>,std::allocator<std::pair<int const ,int> >,0> >
PUBLIC	??1?$_Tree_val@V?$_Tmap_traits@IUPlotState@CvReplayInfo@@U?$less@I@std@@V?$allocator@U?$pair@$$CBIUPlotState@CvReplayInfo@@@std@@@4@$0A@@std@@@std@@QAE@XZ ; std::_Tree_val<std::_Tmap_traits<unsigned int,CvReplayInfo::PlotState,std::less<unsigned int>,std::allocator<std::pair<unsigned int const ,CvReplayInfo::PlotState> >,0> >::~_Tree_val<std::_Tmap_traits<unsigned int,CvReplayInfo::PlotState,std::less<unsigned int>,std::allocator<std::pair<unsigned int const ,CvReplayInfo::PlotState> >,0> >
PUBLIC	??1?$map@IUPlotState@CvReplayInfo@@U?$less@I@std@@V?$allocator@U?$pair@$$CBIUPlotState@CvReplayInfo@@@std@@@4@@std@@QAE@XZ ; std::map<unsigned int,CvReplayInfo::PlotState,std::less<unsigned int>,std::allocator<std::pair<unsigned int const ,CvReplayInfo::PlotState> > >::~map<unsigned int,CvReplayInfo::PlotState,std::less<unsigned int>,std::allocator<std::pair<unsigned int const ,CvReplayInfo::PlotState> > >
PUBLIC	??1?$_Vector_val@V?$map@IHU?$less@I@std@@V?$allocator@U?$pair@$$CBIH@std@@@2@@std@@V?$allocator@V?$map@IHU?$less@I@std@@V?$allocator@U?$pair@$$CBIH@std@@@2@@std@@@2@@std@@QAE@XZ ; std::_Vector_val<std::map<unsigned int,int,std::less<unsigned int>,std::allocator<std::pair<unsigned int const ,int> > >,std::allocator<std::map<unsigned int,int,std::less<unsigned int>,std::allocator<std::pair<unsigned int const ,int> > > > >::~_Vector_val<std::map<unsigned int,int,std::less<unsigned int>,std::allocator<std::pair<unsigned int const ,int> > >,std::allocator<std::map<unsigned int,int,std::less<unsigned int>,std::allocator<std::pair<unsigned int const ,int> > > > >
PUBLIC	??1?$_Tree_val@V?$_Tmap_traits@IHU?$less@I@std@@V?$allocator@U?$pair@$$CBIH@std@@@2@$0A@@std@@@std@@QAE@XZ ; std::_Tree_val<std::_Tmap_traits<unsigned int,int,std::less<unsigned int>,std::allocator<std::pair<unsigned int const ,int> >,0> >::~_Tree_val<std::_Tmap_traits<unsigned int,int,std::less<unsigned int>,std::allocator<std::pair<unsigned int const ,int> >,0> >
PUBLIC	??1?$map@IHU?$less@I@std@@V?$allocator@U?$pair@$$CBIH@std@@@2@@std@@QAE@XZ ; std::map<unsigned int,int,std::less<unsigned int>,std::allocator<std::pair<unsigned int const ,int> > >::~map<unsigned int,int,std::less<unsigned int>,std::allocator<std::pair<unsigned int const ,int> > >
PUBLIC	??1?$vector@V?$map@IHU?$less@I@std@@V?$allocator@U?$pair@$$CBIH@std@@@2@@std@@V?$allocator@V?$map@IHU?$less@I@std@@V?$allocator@U?$pair@$$CBIH@std@@@2@@std@@@2@@std@@QAE@XZ ; std::vector<std::map<unsigned int,int,std::less<unsigned int>,std::allocator<std::pair<unsigned int const ,int> > >,std::allocator<std::map<unsigned int,int,std::less<unsigned int>,std::allocator<std::pair<unsigned int const ,int> > > > >::~vector<std::map<unsigned int,int,std::less<unsigned int>,std::allocator<std::pair<unsigned int const ,int> > >,std::allocator<std::map<unsigned int,int,std::less<unsigned int>,std::allocator<std::pair<unsigned int const ,int> > > > >
PUBLIC	??1?$map@HHU?$less@H@std@@V?$allocator@U?$pair@$$CBHH@std@@@2@@std@@QAE@XZ ; std::map<int,int,std::less<int>,std::allocator<std::pair<int const ,int> > >::~map<int,int,std::less<int>,std::allocator<std::pair<int const ,int> > >
PUBLIC	?_Tidy@?$_Tree@V?$_Tmap_traits@HHU?$less@H@std@@V?$allocator@U?$pair@$$CBHH@std@@@2@$0A@@std@@@std@@IAEXXZ ; std::_Tree<std::_Tmap_traits<int,int,std::less<int>,std::allocator<std::pair<int const ,int> >,0> >::_Tidy
PUBLIC	?_Tidy@?$_Tree@V?$_Tmap_traits@IUPlotState@CvReplayInfo@@U?$less@I@std@@V?$allocator@U?$pair@$$CBIUPlotState@CvReplayInfo@@@std@@@4@$0A@@std@@@std@@IAEXXZ ; std::_Tree<std::_Tmap_traits<unsigned int,CvReplayInfo::PlotState,std::less<unsigned int>,std::allocator<std::pair<unsigned int const ,CvReplayInfo::PlotState> >,0> >::_Tidy
PUBLIC	?push_back@?$vector@V?$map@IUPlotState@CvReplayInfo@@U?$less@I@std@@V?$allocator@U?$pair@$$CBIUPlotState@CvReplayInfo@@@std@@@4@@std@@V?$allocator@V?$map@IUPlotState@CvReplayInfo@@U?$less@I@std@@V?$allocator@U?$pair@$$CBIUPlotState@CvReplayInfo@@@std@@@4@@std@@@2@@std@@QAEXABV?$map@IUPlotState@CvReplayInfo@@U?$less@I@std@@V?$allocator@U?$pair@$$CBIUPlotState@CvReplayInfo@@@std@@@4@@2@@Z ; std::vector<std::map<unsigned int,CvReplayInfo::PlotState,std::less<unsigned int>,std::allocator<std::pair<unsigned int const ,CvReplayInfo::PlotState> > >,std::allocator<std::map<unsigned int,CvReplayInfo::PlotState,std::less<unsigned int>,std::allocator<std::pair<unsigned int const ,CvReplayInfo::PlotState> > > > >::push_back
PUBLIC	??A?$map@IUPlotState@CvReplayInfo@@U?$less@I@std@@V?$allocator@U?$pair@$$CBIUPlotState@CvReplayInfo@@@std@@@4@@std@@QAEAAUPlotState@CvReplayInfo@@ABI@Z ; std::map<unsigned int,CvReplayInfo::PlotState,std::less<unsigned int>,std::allocator<std::pair<unsigned int const ,CvReplayInfo::PlotState> > >::operator[]
PUBLIC	??0?$map@IUPlotState@CvReplayInfo@@U?$less@I@std@@V?$allocator@U?$pair@$$CBIUPlotState@CvReplayInfo@@@std@@@4@@std@@QAE@XZ ; std::map<unsigned int,CvReplayInfo::PlotState,std::less<unsigned int>,std::allocator<std::pair<unsigned int const ,CvReplayInfo::PlotState> > >::map<unsigned int,CvReplayInfo::PlotState,std::less<unsigned int>,std::allocator<std::pair<unsigned int const ,CvReplayInfo::PlotState> > >
PUBLIC	?reserve@?$vector@V?$map@IUPlotState@CvReplayInfo@@U?$less@I@std@@V?$allocator@U?$pair@$$CBIUPlotState@CvReplayInfo@@@std@@@4@@std@@V?$allocator@V?$map@IUPlotState@CvReplayInfo@@U?$less@I@std@@V?$allocator@U?$pair@$$CBIUPlotState@CvReplayInfo@@@std@@@4@@std@@@2@@std@@QAEXI@Z ; std::vector<std::map<unsigned int,CvReplayInfo::PlotState,std::less<unsigned int>,std::allocator<std::pair<unsigned int const ,CvReplayInfo::PlotState> > >,std::allocator<std::map<unsigned int,CvReplayInfo::PlotState,std::less<unsigned int>,std::allocator<std::pair<unsigned int const ,CvReplayInfo::PlotState> > > > >::reserve
PUBLIC	?push_back@?$vector@VCvReplayMessage@@V?$allocator@VCvReplayMessage@@@std@@@std@@QAEXABVCvReplayMessage@@@Z ; std::vector<CvReplayMessage,std::allocator<CvReplayMessage> >::push_back
PUBLIC	??0CvReplayMessage@@QAE@ABV0@@Z			; CvReplayMessage::CvReplayMessage
PUBLIC	?reserve@?$vector@VCvReplayMessage@@V?$allocator@VCvReplayMessage@@@std@@@std@@QAEXI@Z ; std::vector<CvReplayMessage,std::allocator<CvReplayMessage> >::reserve
PUBLIC	?erase@?$vector@VCvReplayMessage@@V?$allocator@VCvReplayMessage@@@std@@@std@@QAE?AV?$_Vector_iterator@VCvReplayMessage@@V?$allocator@VCvReplayMessage@@@std@@@2@V?$_Vector_const_iterator@VCvReplayMessage@@V?$allocator@VCvReplayMessage@@@std@@@2@0@Z ; std::vector<CvReplayMessage,std::allocator<CvReplayMessage> >::erase
PUBLIC	??1PlayerInfo@CvReplayInfo@@QAE@XZ		; CvReplayInfo::PlayerInfo::~PlayerInfo
PUBLIC	?_Tidy@?$vector@V?$map@IHU?$less@I@std@@V?$allocator@U?$pair@$$CBIH@std@@@2@@std@@V?$allocator@V?$map@IHU?$less@I@std@@V?$allocator@U?$pair@$$CBIH@std@@@2@@std@@@2@@std@@IAEXXZ ; std::vector<std::map<unsigned int,int,std::less<unsigned int>,std::allocator<std::pair<unsigned int const ,int> > >,std::allocator<std::map<unsigned int,int,std::less<unsigned int>,std::allocator<std::pair<unsigned int const ,int> > > > >::_Tidy
PUBLIC	?push_back@?$vector@UPlayerInfo@CvReplayInfo@@V?$allocator@UPlayerInfo@CvReplayInfo@@@std@@@std@@QAEXABUPlayerInfo@CvReplayInfo@@@Z ; std::vector<CvReplayInfo::PlayerInfo,std::allocator<CvReplayInfo::PlayerInfo> >::push_back
PUBLIC	?push_back@?$vector@V?$vector@V?$map@IHU?$less@I@std@@V?$allocator@U?$pair@$$CBIH@std@@@2@@std@@V?$allocator@V?$map@IHU?$less@I@std@@V?$allocator@U?$pair@$$CBIH@std@@@2@@std@@@2@@std@@V?$allocator@V?$vector@V?$map@IHU?$less@I@std@@V?$allocator@U?$pair@$$CBIH@std@@@2@@std@@V?$allocator@V?$map@IHU?$less@I@std@@V?$allocator@U?$pair@$$CBIH@std@@@2@@std@@@2@@std@@@2@@std@@QAEXABV?$vector@V?$map@IHU?$less@I@std@@V?$allocator@U?$pair@$$CBIH@std@@@2@@std@@V?$allocator@V?$map@IHU?$less@I@std@@V?$allocator@U?$pair@$$CBIH@std@@@2@@std@@@2@@2@@Z ; std::vector<std::vector<std::map<unsigned int,int,std::less<unsigned int>,std::allocator<std::pair<unsigned int const ,int> > >,std::allocator<std::map<unsigned int,int,std::less<unsigned int>,std::allocator<std::pair<unsigned int const ,int> > > > >,std::allocator<std::vector<std::map<unsigned int,int,std::less<unsigned int>,std::allocator<std::pair<unsigned int const ,int> > >,std::allocator<std::map<unsigned int,int,std::less<unsigned int>,std::allocator<std::pair<unsigned int const ,int> > > > > > >::push_back
PUBLIC	??4?$_Tree@V?$_Tmap_traits@IHU?$less@I@std@@V?$allocator@U?$pair@$$CBIH@std@@@2@$0A@@std@@@std@@QAEAAV01@ABV01@@Z ; std::_Tree<std::_Tmap_traits<unsigned int,int,std::less<unsigned int>,std::allocator<std::pair<unsigned int const ,int> >,0> >::operator=
PUBLIC	??A?$map@IHU?$less@I@std@@V?$allocator@U?$pair@$$CBIH@std@@@2@@std@@QAEAAHABI@Z ; std::map<unsigned int,int,std::less<unsigned int>,std::allocator<std::pair<unsigned int const ,int> > >::operator[]
PUBLIC	?_Inc@const_iterator@?$_Tree@V?$_Tmap_traits@IHU?$less@I@std@@V?$allocator@U?$pair@$$CBIH@std@@@2@$0A@@std@@@std@@QAEXXZ ; std::_Tree<std::_Tmap_traits<unsigned int,int,std::less<unsigned int>,std::allocator<std::pair<unsigned int const ,int> >,0> >::const_iterator::_Inc
PUBLIC	?_Tidy@?$_Tree@V?$_Tmap_traits@IHU?$less@I@std@@V?$allocator@U?$pair@$$CBIH@std@@@2@$0A@@std@@@std@@IAEXXZ ; std::_Tree<std::_Tmap_traits<unsigned int,int,std::less<unsigned int>,std::allocator<std::pair<unsigned int const ,int> >,0> >::_Tidy
PUBLIC	?push_back@?$vector@V?$map@IHU?$less@I@std@@V?$allocator@U?$pair@$$CBIH@std@@@2@@std@@V?$allocator@V?$map@IHU?$less@I@std@@V?$allocator@U?$pair@$$CBIH@std@@@2@@std@@@2@@std@@QAEXABV?$map@IHU?$less@I@std@@V?$allocator@U?$pair@$$CBIH@std@@@2@@2@@Z ; std::vector<std::map<unsigned int,int,std::less<unsigned int>,std::allocator<std::pair<unsigned int const ,int> > >,std::allocator<std::map<unsigned int,int,std::less<unsigned int>,std::allocator<std::pair<unsigned int const ,int> > > > >::push_back
PUBLIC	??0?$_Tree@V?$_Tmap_traits@IHU?$less@I@std@@V?$allocator@U?$pair@$$CBIH@std@@@2@$0A@@std@@@std@@QAE@ABU?$less@I@1@ABV?$allocator@U?$pair@$$CBIH@std@@@1@@Z ; std::_Tree<std::_Tmap_traits<unsigned int,int,std::less<unsigned int>,std::allocator<std::pair<unsigned int const ,int> >,0> >::_Tree<std::_Tmap_traits<unsigned int,int,std::less<unsigned int>,std::allocator<std::pair<unsigned int const ,int> >,0> >
PUBLIC	?push_back@?$vector@V?$basic_string@DU?$char_traits@D@std@@V?$allocator@D@2@@std@@V?$allocator@V?$basic_string@DU?$char_traits@D@std@@V?$allocator@D@2@@std@@@2@@std@@QAEXABV?$basic_string@DU?$char_traits@D@std@@V?$allocator@D@2@@2@@Z ; std::vector<std::basic_string<char,std::char_traits<char>,std::allocator<char> >,std::allocator<std::basic_string<char,std::char_traits<char>,std::allocator<char> > > >::push_back
PUBLIC	??0?$vector@V?$map@IHU?$less@I@std@@V?$allocator@U?$pair@$$CBIH@std@@@2@@std@@V?$allocator@V?$map@IHU?$less@I@std@@V?$allocator@U?$pair@$$CBIH@std@@@2@@std@@@2@@std@@QAE@I@Z ; std::vector<std::map<unsigned int,int,std::less<unsigned int>,std::allocator<std::pair<unsigned int const ,int> > >,std::allocator<std::map<unsigned int,int,std::less<unsigned int>,std::allocator<std::pair<unsigned int const ,int> > > > >::vector<std::map<unsigned int,int,std::less<unsigned int>,std::allocator<std::pair<unsigned int const ,int> > >,std::allocator<std::map<unsigned int,int,std::less<unsigned int>,std::allocator<std::pair<unsigned int const ,int> > > > >
PUBLIC	??0PlayerInfo@CvReplayInfo@@QAE@XZ		; CvReplayInfo::PlayerInfo::PlayerInfo
PUBLIC	??A?$map@HHU?$less@H@std@@V?$allocator@U?$pair@$$CBHH@std@@@2@@std@@QAEAAHABH@Z ; std::map<int,int,std::less<int>,std::allocator<std::pair<int const ,int> > >::operator[]
PUBLIC	??0?$_Tree@V?$_Tmap_traits@HHU?$less@H@std@@V?$allocator@U?$pair@$$CBHH@std@@@2@$0A@@std@@@std@@QAE@ABU?$less@H@1@ABV?$allocator@U?$pair@$$CBHH@std@@@1@@Z ; std::_Tree<std::_Tmap_traits<int,int,std::less<int>,std::allocator<std::pair<int const ,int> >,0> >::_Tree<std::_Tmap_traits<int,int,std::less<int>,std::allocator<std::pair<int const ,int> >,0> >
PUBLIC	?erase@?$vector@V?$map@IUPlotState@CvReplayInfo@@U?$less@I@std@@V?$allocator@U?$pair@$$CBIUPlotState@CvReplayInfo@@@std@@@4@@std@@V?$allocator@V?$map@IUPlotState@CvReplayInfo@@U?$less@I@std@@V?$allocator@U?$pair@$$CBIUPlotState@CvReplayInfo@@@std@@@4@@std@@@2@@std@@QAE?AV?$_Vector_iterator@V?$map@IUPlotState@CvReplayInfo@@U?$less@I@std@@V?$allocator@U?$pair@$$CBIUPlotState@CvReplayInfo@@@std@@@4@@std@@V?$allocator@V?$map@IUPlotState@CvReplayInfo@@U?$less@I@std@@V?$allocator@U?$pair@$$CBIUPlotState@CvReplayInfo@@@std@@@4@@std@@@2@@2@V?$_Vector_const_iterator@V?$map@IUPlotState@CvReplayInfo@@U?$less@I@std@@V?$allocator@U?$pair@$$CBIUPlotState@CvReplayInfo@@@std@@@4@@std@@V?$allocator@V?$map@IUPlotState@CvReplayInfo@@U?$less@I@std@@V?$allocator@U?$pair@$$CBIUPlotState@CvReplayInfo@@@std@@@4@@std@@@2@@2@0@Z ; std::vector<std::map<unsigned int,CvReplayInfo::PlotState,std::less<unsigned int>,std::allocator<std::pair<unsigned int const ,CvReplayInfo::PlotState> > >,std::allocator<std::map<unsigned int,CvReplayInfo::PlotState,std::less<unsigned int>,std::allocator<std::pair<unsigned int const ,CvReplayInfo::PlotState> > > > >::erase
PUBLIC	?erase@?$vector@UPlayerInfo@CvReplayInfo@@V?$allocator@UPlayerInfo@CvReplayInfo@@@std@@@std@@QAE?AV?$_Vector_iterator@UPlayerInfo@CvReplayInfo@@V?$allocator@UPlayerInfo@CvReplayInfo@@@std@@@2@V?$_Vector_const_iterator@UPlayerInfo@CvReplayInfo@@V?$allocator@UPlayerInfo@CvReplayInfo@@@std@@@2@0@Z ; std::vector<CvReplayInfo::PlayerInfo,std::allocator<CvReplayInfo::PlayerInfo> >::erase
PUBLIC	?erase@?$vector@V?$vector@V?$map@IHU?$less@I@std@@V?$allocator@U?$pair@$$CBIH@std@@@2@@std@@V?$allocator@V?$map@IHU?$less@I@std@@V?$allocator@U?$pair@$$CBIH@std@@@2@@std@@@2@@std@@V?$allocator@V?$vector@V?$map@IHU?$less@I@std@@V?$allocator@U?$pair@$$CBIH@std@@@2@@std@@V?$allocator@V?$map@IHU?$less@I@std@@V?$allocator@U?$pair@$$CBIH@std@@@2@@std@@@2@@std@@@2@@std@@QAE?AV?$_Vector_iterator@V?$vector@V?$map@IHU?$less@I@std@@V?$allocator@U?$pair@$$CBIH@std@@@2@@std@@V?$allocator@V?$map@IHU?$less@I@std@@V?$allocator@U?$pair@$$CBIH@std@@@2@@std@@@2@@std@@V?$allocator@V?$vector@V?$map@IHU?$less@I@std@@V?$allocator@U?$pair@$$CBIH@std@@@2@@std@@V?$allocator@V?$map@IHU?$less@I@std@@V?$allocator@U?$pair@$$CBIH@std@@@2@@std@@@2@@std@@@2@@2@V?$_Vector_const_iterator@V?$vector@V?$map@IHU?$less@I@std@@V?$allocator@U?$pair@$$CBIH@std@@@2@@std@@V?$allocator@V?$map@IHU?$less@I@std@@V?$allocator@U?$pair@$$CBIH@std@@@2@@std@@@2@@std@@V?$allocator@V?$vector@V?$map@IHU?$less@I@std@@V?$allocator@U?$pair@$$CBIH@std@@@2@@std@@V?$allocator@V?$map@IHU?$less@I@std@@V?$allocator@U?$pair@$$CBIH@std@@@2@@std@@@2@@std@@@2@@2@0@Z ; std::vector<std::vector<std::map<unsigned int,int,std::less<unsigned int>,std::allocator<std::pair<unsigned int const ,int> > >,std::allocator<std::map<unsigned int,int,std::less<unsigned int>,std::allocator<std::pair<unsigned int const ,int> > > > >,std::allocator<std::vector<std::map<unsigned int,int,std::less<unsigned int>,std::allocator<std::pair<unsigned int const ,int> > >,std::allocator<std::map<unsigned int,int,std::less<unsigned int>,std::allocator<std::pair<unsigned int const ,int> > > > > > >::erase
PUBLIC	?erase@?$vector@V?$basic_string@DU?$char_traits@D@std@@V?$allocator@D@2@@std@@V?$allocator@V?$basic_string@DU?$char_traits@D@std@@V?$allocator@D@2@@std@@@2@@std@@QAE?AV?$_Vector_iterator@V?$basic_string@DU?$char_traits@D@std@@V?$allocator@D@2@@std@@V?$allocator@V?$basic_string@DU?$char_traits@D@std@@V?$allocator@D@2@@std@@@2@@2@V?$_Vector_const_iterator@V?$basic_string@DU?$char_traits@D@std@@V?$allocator@D@2@@std@@V?$allocator@V?$basic_string@DU?$char_traits@D@std@@V?$allocator@D@2@@std@@@2@@2@0@Z ; std::vector<std::basic_string<char,std::char_traits<char>,std::allocator<char> >,std::allocator<std::basic_string<char,std::char_traits<char>,std::allocator<char> > > >::erase
PUBLIC	?push_back@?$vector@W4VictoryTypes@@V?$allocator@W4VictoryTypes@@@std@@@std@@QAEXABW4VictoryTypes@@@Z ; std::vector<enum VictoryTypes,std::allocator<enum VictoryTypes> >::push_back
PUBLIC	?erase@?$vector@W4VictoryTypes@@V?$allocator@W4VictoryTypes@@@std@@@std@@QAE?AV?$_Vector_iterator@W4VictoryTypes@@V?$allocator@W4VictoryTypes@@@std@@@2@V?$_Vector_const_iterator@W4VictoryTypes@@V?$allocator@W4VictoryTypes@@@std@@@2@0@Z ; std::vector<enum VictoryTypes,std::allocator<enum VictoryTypes> >::erase
PUBLIC	?push_back@?$vector@W4GameOptionTypes@@V?$allocator@W4GameOptionTypes@@@std@@@std@@QAEXABW4GameOptionTypes@@@Z ; std::vector<enum GameOptionTypes,std::allocator<enum GameOptionTypes> >::push_back
PUBLIC	?erase@?$vector@W4GameOptionTypes@@V?$allocator@W4GameOptionTypes@@@std@@@std@@QAE?AV?$_Vector_iterator@W4GameOptionTypes@@V?$allocator@W4GameOptionTypes@@@std@@@2@V?$_Vector_const_iterator@W4GameOptionTypes@@V?$allocator@W4GameOptionTypes@@@std@@@2@0@Z ; std::vector<enum GameOptionTypes,std::allocator<enum GameOptionTypes> >::erase
PUBLIC	__$ArrayPad$
PUBLIC	?createInfo@CvReplayInfo@@QAEXXZ		; CvReplayInfo::createInfo
EXTRN	?isNWOfRiver@CvPlot@@QBE_NXZ:PROC		; CvPlot::isNWOfRiver
EXTRN	?isWOfRiver@CvPlot@@QBE_NXZ:PROC		; CvPlot::isWOfRiver
EXTRN	?isNEOfRiver@CvPlot@@QBE_NXZ:PROC		; CvPlot::isNEOfRiver
EXTRN	??1CvReplayMessage@@UAE@XZ:PROC			; CvReplayMessage::~CvReplayMessage
EXTRN	?setPlayer@CvReplayMessage@@QAEXW4PlayerTypes@@@Z:PROC ; CvReplayMessage::setPlayer
EXTRN	?getPlayer@CvReplayMessage@@QBE?AW4PlayerTypes@@XZ:PROC ; CvReplayMessage::getPlayer
EXTRN	?getReplayMessage@CvGame@@QBEPBVCvReplayMessage@@I@Z:PROC ; CvGame::getReplayMessage
EXTRN	?getNumReplayMessages@CvGame@@QBEIXZ:PROC	; CvGame::getNumReplayMessages
EXTRN	?getReplayDataHistory@CvPlayer@@QBE?AV?$map@IHU?$less@I@std@@V?$allocator@U?$pair@$$CBIH@std@@@2@@std@@I@Z:PROC ; CvPlayer::getReplayDataHistory
EXTRN	__imp_??$?8DU?$char_traits@D@std@@V?$allocator@D@1@@std@@YA_NABV?$basic_string@DU?$char_traits@D@std@@V?$allocator@D@2@@0@0@Z:PROC
EXTRN	__imp_??0?$basic_string@DU?$char_traits@D@std@@V?$allocator@D@2@@std@@QAE@PBD@Z:PROC
EXTRN	?getReplayDataSetName@CvPlayer@@QBEPBDI@Z:PROC	; CvPlayer::getReplayDataSetName
EXTRN	?getNumReplayDataSets@CvPlayer@@QBEIXZ:PROC	; CvPlayer::getNumReplayDataSets
EXTRN	?getPlayerColor@CvPlayer@@QBE?AW4PlayerColorTypes@@XZ:PROC ; CvPlayer::getPlayerColor
EXTRN	?getCivilizationAdjective@CvPlayer@@QBEPBDXZ:PROC ; CvPlayer::getCivilizationAdjective
EXTRN	?getCivilizationShortDescription@CvPlayer@@QBEPBDXZ:PROC ; CvPlayer::getCivilizationShortDescription
EXTRN	?getCivilizationDescription@CvPlayer@@QBEPBDXZ:PROC ; CvPlayer::getCivilizationDescription
EXTRN	__imp_?clear@?$basic_string@DU?$char_traits@D@std@@V?$allocator@D@2@@std@@QAEXXZ:PROC
EXTRN	__imp_?assign@?$basic_string@DU?$char_traits@D@std@@V?$allocator@D@2@@std@@QAEAAV12@PBD@Z:PROC
EXTRN	?getName@CvPlayer@@QBEPBDXZ:PROC		; CvPlayer::getName
EXTRN	?getHandicapType@CvPlayer@@QBE?AW4HandicapTypes@@XZ:PROC ; CvPlayer::getHandicapType
EXTRN	?getCivilizationType@CvPlayer@@QBE?AW4CivilizationTypes@@XZ:PROC ; CvPlayer::getCivilizationType
EXTRN	?getLeaderType@CvPlayer@@QBE?AW4LeaderHeadTypes@@XZ:PROC ; CvPlayer::getLeaderType
EXTRN	?GatherPerTurnReplayStats@CvPlayer@@QAEXH@Z:PROC ; CvPlayer::GatherPerTurnReplayStats
EXTRN	?setYearStr@CvGameTextMgr@@SAXAAVCvString@@H_NW4CalendarTypes@@HW4GameSpeedTypes@@@Z:PROC ; CvGameTextMgr::setYearStr
EXTRN	?getCalendar@CvGame@@QBE?AW4CalendarTypes@@XZ:PROC ; CvGame::getCalendar
EXTRN	?getGameTurn@CvGame@@QAEHXZ:PROC		; CvGame::getGameTurn
EXTRN	?getStartYear@CvGame@@QBEHXZ:PROC		; CvGame::getStartYear
EXTRN	?getStartTurn@CvGame@@QBEHXZ:PROC		; CvGame::getStartTurn
EXTRN	?GetScore@CvPlayer@@QBEH_N0@Z:PROC		; CvPlayer::GetScore
EXTRN	?getVictory@CvGame@@QBE?AW4VictoryTypes@@XZ:PROC ; CvGame::getVictory
EXTRN	?getWinner@CvGame@@QBE?AW4TeamTypes@@XZ:PROC	; CvGame::getWinner
EXTRN	?m_aPlayers@CvPlayerAI@@1PAV1@A:DWORD		; CvPlayerAI::m_aPlayers
EXTRN	?isVictoryValid@CvGame@@QBE_NW4VictoryTypes@@@Z:PROC ; CvGame::isVictoryValid
EXTRN	?getNumVictoryInfos@CvGlobals@@QAEHXZ:PROC	; CvGlobals::getNumVictoryInfos
EXTRN	?isOption@CvGame@@QBE_NW4GameOptionTypes@@@Z:PROC ; CvGame::isOption
EXTRN	?getGameSpeedType@CvGame@@QBE?AW4GameSpeedTypes@@XZ:PROC ; CvGame::getGameSpeedType
EXTRN	?era@CvPreGame@@YA?AW4EraTypes@@XZ:PROC		; CvPreGame::era
EXTRN	?seaLevel@CvPreGame@@YA?AW4SeaLevelTypes@@XZ:PROC ; CvPreGame::seaLevel
EXTRN	?climate@CvPreGame@@YA?AW4ClimateTypes@@XZ:PROC	; CvPreGame::climate
EXTRN	?worldSize@CvPreGame@@YA?AW4WorldSizeTypes@@XZ:PROC ; CvPreGame::worldSize
EXTRN	__imp_??4?$basic_string@DU?$char_traits@D@std@@V?$allocator@D@2@@std@@QAEAAV01@ABV01@@Z:PROC
EXTRN	?mapScriptName@CvPreGame@@YAABVCvString@@XZ:PROC ; CvPreGame::mapScriptName
EXTRN	?getActivePlayer@CvGame@@QBE?AW4PlayerTypes@@XZ:PROC ; CvGame::getActivePlayer
EXTRN	?gGlobals@@3VCvGlobals@@A:BYTE			; gGlobals
;	COMDAT xdata$x
; File c:\program files (x86)\microsoft visual studio 9.0\vc\include\xutility
xdata$x	SEGMENT
__ehfuncinfo$?createInfo@CvReplayInfo@@QAEXXZ DD 019930522H
	DD	0fH
	DD	FLAT:__unwindtable$?createInfo@CvReplayInfo@@QAEXXZ
	DD	2 DUP(00H)
	DD	2 DUP(00H)
	DD	00H
	DD	01H
__unwindtable$?createInfo@CvReplayInfo@@QAEXXZ DD 0ffffffffH
	DD	FLAT:__unwindfunclet$?createInfo@CvReplayInfo@@QAEXXZ$0
	DD	00H
	DD	FLAT:__unwindfunclet$?createInfo@CvReplayInfo@@QAEXXZ$1
	DD	01H
	DD	FLAT:__unwindfunclet$?createInfo@CvReplayInfo@@QAEXXZ$2
	DD	02H
	DD	FLAT:__unwindfunclet$?createInfo@CvReplayInfo@@QAEXXZ$3
	DD	03H
	DD	FLAT:__unwindfunclet$?createInfo@CvReplayInfo@@QAEXXZ$4
	DD	03H
	DD	FLAT:__unwindfunclet$?createInfo@CvReplayInfo@@QAEXXZ$24
	DD	03H
	DD	FLAT:__unwindfunclet$?createInfo@CvReplayInfo@@QAEXXZ$5
	DD	06H
	DD	FLAT:__unwindfunclet$?createInfo@CvReplayInfo@@QAEXXZ$6
	DD	06H
	DD	FLAT:__unwindfunclet$?createInfo@CvReplayInfo@@QAEXXZ$31
	DD	03H
	DD	FLAT:__unwindfunclet$?createInfo@CvReplayInfo@@QAEXXZ$37
	DD	01H
	DD	FLAT:__unwindfunclet$?createInfo@CvReplayInfo@@QAEXXZ$42
	DD	00H
	DD	FLAT:__unwindfunclet$?createInfo@CvReplayInfo@@QAEXXZ$7
	DD	00H
	DD	FLAT:__unwindfunclet$?createInfo@CvReplayInfo@@QAEXXZ$8
	DD	00H
	DD	FLAT:__unwindfunclet$?createInfo@CvReplayInfo@@QAEXXZ$55
	DD	0ffffffffH
	DD	FLAT:__unwindfunclet$?createInfo@CvReplayInfo@@QAEXXZ$61
; Function compile flags: /Odtp
; File d:\sources\lekmod_git\checkout\lekmod_dll\cvgamecoredll_expansion2\cvreplayinfo.cpp
xdata$x	ENDS
;	COMDAT ?createInfo@CvReplayInfo@@QAEXXZ
_TEXT	SEGMENT
tv469 = -1132						; size = 4
_this$ = -1128						; size = 4
_f$234686 = -1121					; size = 1
$T234668 = -1120					; size = 4
$T234642 = -1116					; size = 4
$T234626 = -1112					; size = 4
$T234654 = -1108					; size = 4
$T234653 = -1104					; size = 4
$T234652 = -1100					; size = 4
$T234651 = -1096					; size = 4
$T234650 = -1092					; size = 4
$T234607 = -1088					; size = 4
$T234603 = -1084					; size = 4
$T234483 = -1020					; size = 4
$T234457 = -1016					; size = 4
$T234441 = -1012					; size = 4
$T234470 = -1008					; size = 4
$T234469 = -1004					; size = 4
$T234468 = -1000					; size = 4
$T234467 = -996						; size = 4
$T234466 = -992						; size = 4
$T234183 = -932						; size = 4
$T234097 = -888						; size = 4
$T234052 = -884						; size = 4
$T234024 = -880						; size = 4
$T234011 = -876						; size = 4
$T234003 = -870						; size = 1
$T234002 = -869						; size = 1
$T233992 = -868						; size = 4
$T233886 = -842						; size = 1
$T233885 = -841						; size = 1
$T233841 = -820						; size = 4
$T233759 = -796						; size = 4
$T233758 = -792						; size = 4
$T233754 = -788						; size = 4
$T233748 = -784						; size = 4
$T233742 = -780						; size = 4
$T233736 = -776						; size = 4
$T233646 = -729						; size = 1
$T233552 = -686						; size = 1
$T233551 = -685						; size = 1
$T233542 = -684						; size = 4
$T233516 = -680						; size = 4
$T233500 = -676						; size = 4
$T233528 = -672						; size = 4
$T233527 = -668						; size = 4
$T233526 = -664						; size = 4
$T233525 = -660						; size = 4
$T233524 = -656						; size = 4
$T233484 = -652						; size = 4
$T233458 = -648						; size = 4
$T233442 = -644						; size = 4
$T233471 = -640						; size = 4
$T233470 = -636						; size = 4
$T233469 = -632						; size = 4
$T233468 = -628						; size = 4
$T233467 = -624						; size = 4
$T233426 = -620						; size = 4
$T233400 = -616						; size = 4
$T233384 = -612						; size = 4
$T233413 = -608						; size = 4
$T233412 = -604						; size = 4
$T233411 = -600						; size = 4
$T233410 = -596						; size = 4
$T233409 = -592						; size = 4
$T233368 = -588						; size = 4
$T233342 = -584						; size = 4
$T233326 = -580						; size = 4
$T233355 = -576						; size = 4
$T233354 = -572						; size = 4
$T233353 = -568						; size = 4
$T233352 = -564						; size = 4
$T233351 = -560						; size = 4
$T233310 = -556						; size = 4
$T233301 = -552						; size = 4
$T233258 = -528						; size = 4
$T233232 = -524						; size = 4
$T233216 = -520						; size = 4
$T233244 = -516						; size = 4
$T233243 = -512						; size = 4
$T233242 = -508						; size = 4
$T233241 = -504						; size = 4
$T233240 = -500						; size = 4
$T233169 = -476						; size = 4
$T233143 = -472						; size = 4
$T233127 = -468						; size = 4
$T233155 = -464						; size = 4
$T233154 = -460						; size = 4
$T233153 = -456						; size = 4
$T233152 = -452						; size = 4
$T233151 = -448						; size = 4
$T233111 = -444						; size = 4
$T233110 = -440						; size = 4
$T233094 = -436						; size = 4
$T233093 = -432						; size = 4
$T233092 = -428						; size = 4
$T233091 = -424						; size = 4
$T233090 = -420						; size = 12
$T233089 = -408						; size = 4
_plotState$219912 = -404				; size = 16
_pkPlot$219913 = -388					; size = 4
_plotStatePerTurn$220497 = -384				; size = 12
_i$219908 = -372					; size = 4
_modifiedMessage$219903 = -368				; size = 60
_pMessage$219901 = -308					; size = 4
_i$219897 = -304					; size = 4
_it$219865 = -300					; size = 4
_dataSetName$219764 = -296				; size = 4
_uiDataSet$219759 = -292				; size = 4
_bFound$219760 = -285					; size = 1
_playerData$219768 = -284				; size = 12
_turnData$219770 = -272					; size = 12
_playerDataSetName$219758 = -260			; size = 28
_uiPlayerDataSet$219754 = -232				; size = 4
_dataSet$219752 = -228					; size = 16
_playerInfo$219751 = -212				; size = 128
__$ArrayPad$ = -84					; size = 4
_uiNumDataSets$219753 = -80				; size = 4
_player$219747 = -76					; size = 4
_iPlayer$219743 = -72					; size = 4
_player$219241 = -68					; size = 4
_eVictory$219237 = -64					; size = 4
_i$219233 = -60						; size = 4
_eOption$219230 = -56					; size = 4
_i$219226 = -52						; size = 4
_kMap$ = -48						; size = 4
_game$ = -44						; size = 4
_eActivePlayer$ = -40					; size = 4
_mapPlayers$ = -36					; size = 12
_iPlayerIndex$ = -24					; size = 4
_nMessages$ = -20					; size = 4
_numPlots$ = -16					; size = 4
__$EHRec$ = -12						; size = 12
?createInfo@CvReplayInfo@@QAEXXZ PROC			; CvReplayInfo::createInfo, COMDAT
; _this$ = ecx

; 64   : {

	push	ebp
	mov	ebp, esp
	push	-1
	push	__ehhandler$?createInfo@CvReplayInfo@@QAEXXZ
	mov	eax, DWORD PTR fs:0
	push	eax
	sub	esp, 1120				; 00000460H
	mov	eax, DWORD PTR ___security_cookie
	xor	eax, ebp
	mov	DWORD PTR __$ArrayPad$[ebp], eax
	push	eax
	lea	eax, DWORD PTR __$EHRec$[ebp]
	mov	DWORD PTR fs:0, eax
	mov	DWORD PTR _this$[ebp], ecx

; 65   : 	CvGame& game = GC.getGame();

	mov	eax, DWORD PTR ?gGlobals@@3VCvGlobals@@A+48
	mov	DWORD PTR _game$[ebp], eax

; 66   : 
; 67   : 	const PlayerTypes eActivePlayer = game.getActivePlayer();

	mov	ecx, DWORD PTR _game$[ebp]
	call	?getActivePlayer@CvGame@@QBE?AW4PlayerTypes@@XZ ; CvGame::getActivePlayer
	mov	DWORD PTR _eActivePlayer$[ebp], eax

; 68   : 
; 69   : 	m_strMapScriptName = CvPreGame::mapScriptName();

	call	?mapScriptName@CvPreGame@@YAABVCvString@@XZ ; CvPreGame::mapScriptName
	mov	DWORD PTR $T233111[ebp], eax
	mov	ecx, DWORD PTR _this$[ebp]
	add	ecx, 8
	mov	DWORD PTR $T233110[ebp], ecx
	mov	edx, DWORD PTR $T233111[ebp]
	push	edx
	mov	ecx, DWORD PTR $T233110[ebp]
	call	DWORD PTR __imp_??4?$basic_string@DU?$char_traits@D@std@@V?$allocator@D@2@@std@@QAEAAV01@ABV01@@Z

; 70   : 	m_eWorldSize = CvPreGame::worldSize();

	call	?worldSize@CvPreGame@@YA?AW4WorldSizeTypes@@XZ ; CvPreGame::worldSize
	mov	ecx, DWORD PTR _this$[ebp]
	mov	DWORD PTR [ecx+36], eax

; 71   : 	m_eClimate = CvPreGame::climate();

	call	?climate@CvPreGame@@YA?AW4ClimateTypes@@XZ ; CvPreGame::climate
	mov	edx, DWORD PTR _this$[ebp]
	mov	DWORD PTR [edx+40], eax

; 72   : 	m_eSeaLevel = CvPreGame::seaLevel();

	call	?seaLevel@CvPreGame@@YA?AW4SeaLevelTypes@@XZ ; CvPreGame::seaLevel
	mov	ecx, DWORD PTR _this$[ebp]
	mov	DWORD PTR [ecx+44], eax

; 73   : 	m_eEra = CvPreGame::era();

	call	?era@CvPreGame@@YA?AW4EraTypes@@XZ	; CvPreGame::era
	mov	edx, DWORD PTR _this$[ebp]
	mov	DWORD PTR [edx+48], eax

; 74   : 	m_eGameSpeed = game.getGameSpeedType();

	mov	ecx, DWORD PTR _game$[ebp]
	call	?getGameSpeedType@CvGame@@QBE?AW4GameSpeedTypes@@XZ ; CvGame::getGameSpeedType
	mov	ecx, DWORD PTR _this$[ebp]
	mov	DWORD PTR [ecx+52], eax

; 75   : 
; 76   : 	m_listGameOptions.clear();

	mov	edx, DWORD PTR _this$[ebp]
	add	edx, 56					; 00000038H
	mov	DWORD PTR $T233169[ebp], edx
	mov	eax, DWORD PTR $T233169[ebp]
	mov	ecx, DWORD PTR [eax+8]
	mov	DWORD PTR $T233127[ebp], ecx
	mov	edx, DWORD PTR $T233127[ebp]
	mov	DWORD PTR $T233152[ebp], edx
	mov	eax, DWORD PTR $T233152[ebp]
	mov	DWORD PTR $T233151[ebp], eax
	mov	ecx, DWORD PTR $T233169[ebp]
	mov	edx, DWORD PTR [ecx+4]
	mov	DWORD PTR $T233143[ebp], edx
	mov	eax, DWORD PTR $T233143[ebp]
	mov	DWORD PTR $T233154[ebp], eax
	mov	ecx, DWORD PTR $T233154[ebp]
	mov	DWORD PTR $T233153[ebp], ecx
	mov	edx, DWORD PTR $T233151[ebp]
	push	edx
	mov	eax, DWORD PTR $T233153[ebp]
	push	eax
	lea	ecx, DWORD PTR $T233155[ebp]
	push	ecx
	mov	ecx, DWORD PTR $T233169[ebp]
	call	?erase@?$vector@W4GameOptionTypes@@V?$allocator@W4GameOptionTypes@@@std@@@std@@QAE?AV?$_Vector_iterator@W4GameOptionTypes@@V?$allocator@W4GameOptionTypes@@@std@@@2@V?$_Vector_const_iterator@W4GameOptionTypes@@V?$allocator@W4GameOptionTypes@@@std@@@2@0@Z ; std::vector<enum GameOptionTypes,std::allocator<enum GameOptionTypes> >::erase

; 77   : 	for(int i = 0; i < NUM_GAMEOPTION_TYPES; i++)

	mov	DWORD PTR _i$219226[ebp], 0
	jmp	SHORT $LN33@createInfo
$LN32@createInfo:
	mov	edx, DWORD PTR _i$219226[ebp]
	add	edx, 1
	mov	DWORD PTR _i$219226[ebp], edx
$LN33@createInfo:
	cmp	DWORD PTR _i$219226[ebp], 22		; 00000016H
	jge	SHORT $LN31@createInfo

; 78   : 	{
; 79   : 		GameOptionTypes eOption = (GameOptionTypes)i;

	mov	eax, DWORD PTR _i$219226[ebp]
	mov	DWORD PTR _eOption$219230[ebp], eax

; 80   : 		if(game.isOption(eOption))

	mov	ecx, DWORD PTR _eOption$219230[ebp]
	push	ecx
	mov	ecx, DWORD PTR _game$[ebp]
	call	?isOption@CvGame@@QBE_NW4GameOptionTypes@@@Z ; CvGame::isOption
	movzx	edx, al
	test	edx, edx
	je	SHORT $LN30@createInfo

; 81   : 		{
; 82   : 			m_listGameOptions.push_back(eOption);

	lea	eax, DWORD PTR _eOption$219230[ebp]
	push	eax
	mov	ecx, DWORD PTR _this$[ebp]
	add	ecx, 56					; 00000038H
	call	?push_back@?$vector@W4GameOptionTypes@@V?$allocator@W4GameOptionTypes@@@std@@@std@@QAEXABW4GameOptionTypes@@@Z ; std::vector<enum GameOptionTypes,std::allocator<enum GameOptionTypes> >::push_back
$LN30@createInfo:

; 83   : 		}
; 84   : 	}

	jmp	SHORT $LN32@createInfo
$LN31@createInfo:

; 85   : 
; 86   : 	m_listVictoryTypes.clear();

	mov	ecx, DWORD PTR _this$[ebp]
	add	ecx, 72					; 00000048H
	mov	DWORD PTR $T233258[ebp], ecx
	mov	edx, DWORD PTR $T233258[ebp]
	mov	eax, DWORD PTR [edx+8]
	mov	DWORD PTR $T233216[ebp], eax
	mov	ecx, DWORD PTR $T233216[ebp]
	mov	DWORD PTR $T233241[ebp], ecx
	mov	edx, DWORD PTR $T233241[ebp]
	mov	DWORD PTR $T233240[ebp], edx
	mov	eax, DWORD PTR $T233258[ebp]
	mov	ecx, DWORD PTR [eax+4]
	mov	DWORD PTR $T233232[ebp], ecx
	mov	edx, DWORD PTR $T233232[ebp]
	mov	DWORD PTR $T233243[ebp], edx
	mov	eax, DWORD PTR $T233243[ebp]
	mov	DWORD PTR $T233242[ebp], eax
	mov	ecx, DWORD PTR $T233240[ebp]
	push	ecx
	mov	edx, DWORD PTR $T233242[ebp]
	push	edx
	lea	eax, DWORD PTR $T233244[ebp]
	push	eax
	mov	ecx, DWORD PTR $T233258[ebp]
	call	?erase@?$vector@W4VictoryTypes@@V?$allocator@W4VictoryTypes@@@std@@@std@@QAE?AV?$_Vector_iterator@W4VictoryTypes@@V?$allocator@W4VictoryTypes@@@std@@@2@V?$_Vector_const_iterator@W4VictoryTypes@@V?$allocator@W4VictoryTypes@@@std@@@2@0@Z ; std::vector<enum VictoryTypes,std::allocator<enum VictoryTypes> >::erase

; 87   : #ifdef AUI_WARNING_FIXES
; 88   : 	for (uint i = 0; i < GC.getNumVictoryInfos(); i++)
; 89   : #else
; 90   : 	for(int i = 0; i < GC.getNumVictoryInfos(); i++)

	mov	DWORD PTR _i$219233[ebp], 0
	jmp	SHORT $LN29@createInfo
$LN28@createInfo:
	mov	ecx, DWORD PTR _i$219233[ebp]
	add	ecx, 1
	mov	DWORD PTR _i$219233[ebp], ecx
$LN29@createInfo:
	mov	ecx, OFFSET ?gGlobals@@3VCvGlobals@@A	; gGlobals
	call	?getNumVictoryInfos@CvGlobals@@QAEHXZ	; CvGlobals::getNumVictoryInfos
	cmp	DWORD PTR _i$219233[ebp], eax
	jge	SHORT $LN27@createInfo

; 91   : #endif
; 92   : 	{
; 93   : 		VictoryTypes eVictory = (VictoryTypes)i;

	mov	edx, DWORD PTR _i$219233[ebp]
	mov	DWORD PTR _eVictory$219237[ebp], edx

; 94   : 		if(game.isVictoryValid(eVictory))

	mov	eax, DWORD PTR _eVictory$219237[ebp]
	push	eax
	mov	ecx, DWORD PTR _game$[ebp]
	call	?isVictoryValid@CvGame@@QBE_NW4VictoryTypes@@@Z ; CvGame::isVictoryValid
	movzx	ecx, al
	test	ecx, ecx
	je	SHORT $LN26@createInfo

; 95   : 		{
; 96   : 			m_listVictoryTypes.push_back(eVictory);

	lea	edx, DWORD PTR _eVictory$219237[ebp]
	push	edx
	mov	ecx, DWORD PTR _this$[ebp]
	add	ecx, 72					; 00000048H
	call	?push_back@?$vector@W4VictoryTypes@@V?$allocator@W4VictoryTypes@@@std@@@std@@QAEXABW4VictoryTypes@@@Z ; std::vector<enum VictoryTypes,std::allocator<enum VictoryTypes> >::push_back
$LN26@createInfo:

; 97   : 		}
; 98   : 	}

	jmp	SHORT $LN28@createInfo
$LN27@createInfo:

; 99   : 
; 100  : 	m_eVictoryType = NO_VICTORY;

	mov	eax, DWORD PTR _this$[ebp]
	mov	DWORD PTR [eax+88], -1

; 101  : 	m_iNormalizedScore = 0;

	mov	ecx, DWORD PTR _this$[ebp]
	mov	DWORD PTR [ecx+140], 0

; 102  : 	if(NO_PLAYER != eActivePlayer)

	cmp	DWORD PTR _eActivePlayer$[ebp], -1
	je	$LN25@createInfo

; 103  : 	{
; 104  : 		CvPlayer& player = GET_PLAYER(eActivePlayer);

	mov	edx, DWORD PTR _eActivePlayer$[ebp]
	imul	edx, 63236				; 0000f704H
	add	edx, DWORD PTR ?m_aPlayers@CvPlayerAI@@1PAV1@A ; CvPlayerAI::m_aPlayers
	mov	DWORD PTR _player$219241[ebp], edx

; 105  : 		if(game.getWinner() == player.getTeam())

	mov	eax, DWORD PTR _player$219241[ebp]
	mov	ecx, DWORD PTR [eax+44]
	push	ecx
	call	?teamType@CvPreGame@@YA?AW4TeamTypes@@W4PlayerTypes@@@Z ; CvPreGame::teamType
	add	esp, 4
	mov	DWORD PTR $T233301[ebp], eax
	mov	ecx, DWORD PTR _game$[ebp]
	call	?getWinner@CvGame@@QBE?AW4TeamTypes@@XZ	; CvGame::getWinner
	cmp	eax, DWORD PTR $T233301[ebp]
	jne	SHORT $LN117@createInfo

; 106  : 		{
; 107  : 			m_eVictoryType = game.getVictory();

	mov	ecx, DWORD PTR _game$[ebp]
	call	?getVictory@CvGame@@QBE?AW4VictoryTypes@@XZ ; CvGame::getVictory
	mov	edx, DWORD PTR _this$[ebp]
	mov	DWORD PTR [edx+88], eax

; 108  : 		}
; 109  : 
; 110  : 		m_iNormalizedScore = player.GetScore(true, player.getTeam() == game.getWinner());

$LN117@createInfo:
	mov	eax, DWORD PTR _player$219241[ebp]
	mov	ecx, DWORD PTR [eax+44]
	push	ecx
	call	?teamType@CvPreGame@@YA?AW4TeamTypes@@W4PlayerTypes@@@Z ; CvPreGame::teamType
	add	esp, 4
	mov	DWORD PTR $T233310[ebp], eax
	mov	ecx, DWORD PTR _game$[ebp]
	call	?getWinner@CvGame@@QBE?AW4TeamTypes@@XZ	; CvGame::getWinner
	cmp	DWORD PTR $T233310[ebp], eax
	sete	dl
	movzx	eax, dl
	push	eax
	push	1
	mov	ecx, DWORD PTR _player$219241[ebp]
	call	?GetScore@CvPlayer@@QBEH_N0@Z		; CvPlayer::GetScore
	mov	ecx, DWORD PTR _this$[ebp]
	mov	DWORD PTR [ecx+140], eax
$LN25@createInfo:

; 111  : 	}
; 112  : 
; 113  : 	//m_eGameType = CvPreGame::getGameType();
; 114  : 
; 115  : 	m_iInitialTurn = game.getStartTurn();

	mov	ecx, DWORD PTR _game$[ebp]
	call	?getStartTurn@CvGame@@QBEHXZ		; CvGame::getStartTurn
	mov	edx, DWORD PTR _this$[ebp]
	mov	DWORD PTR [edx+96], eax

; 116  : 	m_iStartYear = game.getStartYear();

	mov	ecx, DWORD PTR _game$[ebp]
	call	?getStartYear@CvGame@@QBEHXZ		; CvGame::getStartYear
	mov	ecx, DWORD PTR _this$[ebp]
	mov	DWORD PTR [ecx+104], eax

; 117  : 	m_iFinalTurn = game.getGameTurn();

	mov	ecx, DWORD PTR _game$[ebp]
	call	?getGameTurn@CvGame@@QAEHXZ		; CvGame::getGameTurn
	mov	edx, DWORD PTR _this$[ebp]
	mov	DWORD PTR [edx+100], eax

; 118  : 	CvGameTextMgr::setYearStr(m_strFinalDate, m_iFinalTurn, false, game.getCalendar(), game.getStartYear(), game.getGameSpeedType());

	mov	ecx, DWORD PTR _game$[ebp]
	call	?getGameSpeedType@CvGame@@QBE?AW4GameSpeedTypes@@XZ ; CvGame::getGameSpeedType
	push	eax
	mov	ecx, DWORD PTR _game$[ebp]
	call	?getStartYear@CvGame@@QBEHXZ		; CvGame::getStartYear
	push	eax
	mov	ecx, DWORD PTR _game$[ebp]
	call	?getCalendar@CvGame@@QBE?AW4CalendarTypes@@XZ ; CvGame::getCalendar
	push	eax
	push	0
	mov	eax, DWORD PTR _this$[ebp]
	mov	ecx, DWORD PTR [eax+100]
	push	ecx
	mov	edx, DWORD PTR _this$[ebp]
	add	edx, 108				; 0000006cH
	push	edx
	call	?setYearStr@CvGameTextMgr@@SAXAAVCvString@@H_NW4CalendarTypes@@HW4GameSpeedTypes@@@Z ; CvGameTextMgr::setYearStr
	add	esp, 24					; 00000018H

; 119  : 
; 120  : 	m_eCalendar = game.getCalendar();

	mov	ecx, DWORD PTR _game$[ebp]
	call	?getCalendar@CvGame@@QBE?AW4CalendarTypes@@XZ ; CvGame::getCalendar
	mov	ecx, DWORD PTR _this$[ebp]
	mov	DWORD PTR [ecx+136], eax

; 121  : 
; 122  : 	m_dataSetMap.clear();

	mov	edx, DWORD PTR _this$[ebp]
	add	edx, 176				; 000000b0H
	mov	DWORD PTR $T233368[ebp], edx
	mov	eax, DWORD PTR $T233368[ebp]
	mov	ecx, DWORD PTR [eax+8]
	mov	DWORD PTR $T233326[ebp], ecx
	mov	edx, DWORD PTR $T233326[ebp]
	mov	DWORD PTR $T233352[ebp], edx
	mov	eax, DWORD PTR $T233352[ebp]
	mov	DWORD PTR $T233351[ebp], eax
	mov	ecx, DWORD PTR $T233368[ebp]
	mov	edx, DWORD PTR [ecx+4]
	mov	DWORD PTR $T233342[ebp], edx
	mov	eax, DWORD PTR $T233342[ebp]
	mov	DWORD PTR $T233354[ebp], eax
	mov	ecx, DWORD PTR $T233354[ebp]
	mov	DWORD PTR $T233353[ebp], ecx
	mov	edx, DWORD PTR $T233351[ebp]
	push	edx
	mov	eax, DWORD PTR $T233353[ebp]
	push	eax
	lea	ecx, DWORD PTR $T233355[ebp]
	push	ecx
	mov	ecx, DWORD PTR $T233368[ebp]
	call	?erase@?$vector@V?$basic_string@DU?$char_traits@D@std@@V?$allocator@D@2@@std@@V?$allocator@V?$basic_string@DU?$char_traits@D@std@@V?$allocator@D@2@@std@@@2@@std@@QAE?AV?$_Vector_iterator@V?$basic_string@DU?$char_traits@D@std@@V?$allocator@D@2@@std@@V?$allocator@V?$basic_string@DU?$char_traits@D@std@@V?$allocator@D@2@@std@@@2@@2@V?$_Vector_const_iterator@V?$basic_string@DU?$char_traits@D@std@@V?$allocator@D@2@@std@@V?$allocator@V?$basic_string@DU?$char_traits@D@std@@V?$allocator@D@2@@std@@@2@@2@0@Z ; std::vector<std::basic_string<char,std::char_traits<char>,std::allocator<char> >,std::allocator<std::basic_string<char,std::char_traits<char>,std::allocator<char> > > >::erase

; 123  : 	m_listPlayerDataSets.clear();

	mov	edx, DWORD PTR _this$[ebp]
	add	edx, 192				; 000000c0H
	mov	DWORD PTR $T233426[ebp], edx
	mov	eax, DWORD PTR $T233426[ebp]
	mov	ecx, DWORD PTR [eax+8]
	mov	DWORD PTR $T233384[ebp], ecx
	mov	edx, DWORD PTR $T233384[ebp]
	mov	DWORD PTR $T233410[ebp], edx
	mov	eax, DWORD PTR $T233410[ebp]
	mov	DWORD PTR $T233409[ebp], eax
	mov	ecx, DWORD PTR $T233426[ebp]
	mov	edx, DWORD PTR [ecx+4]
	mov	DWORD PTR $T233400[ebp], edx
	mov	eax, DWORD PTR $T233400[ebp]
	mov	DWORD PTR $T233412[ebp], eax
	mov	ecx, DWORD PTR $T233412[ebp]
	mov	DWORD PTR $T233411[ebp], ecx
	mov	edx, DWORD PTR $T233409[ebp]
	push	edx
	mov	eax, DWORD PTR $T233411[ebp]
	push	eax
	lea	ecx, DWORD PTR $T233413[ebp]
	push	ecx
	mov	ecx, DWORD PTR $T233426[ebp]
	call	?erase@?$vector@V?$vector@V?$map@IHU?$less@I@std@@V?$allocator@U?$pair@$$CBIH@std@@@2@@std@@V?$allocator@V?$map@IHU?$less@I@std@@V?$allocator@U?$pair@$$CBIH@std@@@2@@std@@@2@@std@@V?$allocator@V?$vector@V?$map@IHU?$less@I@std@@V?$allocator@U?$pair@$$CBIH@std@@@2@@std@@V?$allocator@V?$map@IHU?$less@I@std@@V?$allocator@U?$pair@$$CBIH@std@@@2@@std@@@2@@std@@@2@@std@@QAE?AV?$_Vector_iterator@V?$vector@V?$map@IHU?$less@I@std@@V?$allocator@U?$pair@$$CBIH@std@@@2@@std@@V?$allocator@V?$map@IHU?$less@I@std@@V?$allocator@U?$pair@$$CBIH@std@@@2@@std@@@2@@std@@V?$allocator@V?$vector@V?$map@IHU?$less@I@std@@V?$allocator@U?$pair@$$CBIH@std@@@2@@std@@V?$allocator@V?$map@IHU?$less@I@std@@V?$allocator@U?$pair@$$CBIH@std@@@2@@std@@@2@@std@@@2@@2@V?$_Vector_const_iterator@V?$vector@V?$map@IHU?$less@I@std@@V?$allocator@U?$pair@$$CBIH@std@@@2@@std@@V?$allocator@V?$map@IHU?$less@I@std@@V?$allocator@U?$pair@$$CBIH@std@@@2@@std@@@2@@std@@V?$allocator@V?$vector@V?$map@IHU?$less@I@std@@V?$allocator@U?$pair@$$CBIH@std@@@2@@std@@V?$allocator@V?$map@IHU?$less@I@std@@V?$allocator@U?$pair@$$CBIH@std@@@2@@std@@@2@@std@@@2@@2@0@Z ; std::vector<std::vector<std::map<unsigned int,int,std::less<unsigned int>,std::allocator<std::pair<unsigned int const ,int> > >,std::allocator<std::map<unsigned int,int,std::less<unsigned int>,std::allocator<std::pair<unsigned int const ,int> > > > >,std::allocator<std::vector<std::map<unsigned int,int,std::less<unsigned int>,std::allocator<std::pair<unsigned int const ,int> > >,std::allocator<std::map<unsigned int,int,std::less<unsigned int>,std::allocator<std::pair<unsigned int const ,int> > > > > > >::erase

; 124  : 	m_listPlayerInfo.clear();

	mov	edx, DWORD PTR _this$[ebp]
	add	edx, 144				; 00000090H
	mov	DWORD PTR $T233484[ebp], edx
	mov	eax, DWORD PTR $T233484[ebp]
	mov	ecx, DWORD PTR [eax+8]
	mov	DWORD PTR $T233442[ebp], ecx
	mov	edx, DWORD PTR $T233442[ebp]
	mov	DWORD PTR $T233468[ebp], edx
	mov	eax, DWORD PTR $T233468[ebp]
	mov	DWORD PTR $T233467[ebp], eax
	mov	ecx, DWORD PTR $T233484[ebp]
	mov	edx, DWORD PTR [ecx+4]
	mov	DWORD PTR $T233458[ebp], edx
	mov	eax, DWORD PTR $T233458[ebp]
	mov	DWORD PTR $T233470[ebp], eax
	mov	ecx, DWORD PTR $T233470[ebp]
	mov	DWORD PTR $T233469[ebp], ecx
	mov	edx, DWORD PTR $T233467[ebp]
	push	edx
	mov	eax, DWORD PTR $T233469[ebp]
	push	eax
	lea	ecx, DWORD PTR $T233471[ebp]
	push	ecx
	mov	ecx, DWORD PTR $T233484[ebp]
	call	?erase@?$vector@UPlayerInfo@CvReplayInfo@@V?$allocator@UPlayerInfo@CvReplayInfo@@@std@@@std@@QAE?AV?$_Vector_iterator@UPlayerInfo@CvReplayInfo@@V?$allocator@UPlayerInfo@CvReplayInfo@@@std@@@2@V?$_Vector_const_iterator@UPlayerInfo@CvReplayInfo@@V?$allocator@UPlayerInfo@CvReplayInfo@@@std@@@2@0@Z ; std::vector<CvReplayInfo::PlayerInfo,std::allocator<CvReplayInfo::PlayerInfo> >::erase

; 125  : #ifndef AUI_WARNING_FIXES
; 126  : 	m_listPlots.clear();

	mov	edx, DWORD PTR _this$[ebp]
	add	edx, 216				; 000000d8H
	mov	DWORD PTR $T233542[ebp], edx
	mov	eax, DWORD PTR $T233542[ebp]
	mov	ecx, DWORD PTR [eax+8]
	mov	DWORD PTR $T233500[ebp], ecx
	mov	edx, DWORD PTR $T233500[ebp]
	mov	DWORD PTR $T233525[ebp], edx
	mov	eax, DWORD PTR $T233525[ebp]
	mov	DWORD PTR $T233524[ebp], eax
	mov	ecx, DWORD PTR $T233542[ebp]
	mov	edx, DWORD PTR [ecx+4]
	mov	DWORD PTR $T233516[ebp], edx
	mov	eax, DWORD PTR $T233516[ebp]
	mov	DWORD PTR $T233527[ebp], eax
	mov	ecx, DWORD PTR $T233527[ebp]
	mov	DWORD PTR $T233526[ebp], ecx
	mov	edx, DWORD PTR $T233524[ebp]
	push	edx
	mov	eax, DWORD PTR $T233526[ebp]
	push	eax
	lea	ecx, DWORD PTR $T233528[ebp]
	push	ecx
	mov	ecx, DWORD PTR $T233542[ebp]
	call	?erase@?$vector@V?$map@IUPlotState@CvReplayInfo@@U?$less@I@std@@V?$allocator@U?$pair@$$CBIUPlotState@CvReplayInfo@@@std@@@4@@std@@V?$allocator@V?$map@IUPlotState@CvReplayInfo@@U?$less@I@std@@V?$allocator@U?$pair@$$CBIUPlotState@CvReplayInfo@@@std@@@4@@std@@@2@@std@@QAE?AV?$_Vector_iterator@V?$map@IUPlotState@CvReplayInfo@@U?$less@I@std@@V?$allocator@U?$pair@$$CBIUPlotState@CvReplayInfo@@@std@@@4@@std@@V?$allocator@V?$map@IUPlotState@CvReplayInfo@@U?$less@I@std@@V?$allocator@U?$pair@$$CBIUPlotState@CvReplayInfo@@@std@@@4@@std@@@2@@2@V?$_Vector_const_iterator@V?$map@IUPlotState@CvReplayInfo@@U?$less@I@std@@V?$allocator@U?$pair@$$CBIUPlotState@CvReplayInfo@@@std@@@4@@std@@V?$allocator@V?$map@IUPlotState@CvReplayInfo@@U?$less@I@std@@V?$allocator@U?$pair@$$CBIUPlotState@CvReplayInfo@@@std@@@4@@std@@@2@@2@0@Z ; std::vector<std::map<unsigned int,CvReplayInfo::PlotState,std::less<unsigned int>,std::allocator<std::pair<unsigned int const ,CvReplayInfo::PlotState> > >,std::allocator<std::map<unsigned int,CvReplayInfo::PlotState,std::less<unsigned int>,std::allocator<std::pair<unsigned int const ,CvReplayInfo::PlotState> > > > >::erase

; 127  : #endif
; 128  : 
; 129  : 	std::map<int, int> mapPlayers;

	lea	edx, DWORD PTR $T233551[ebp]
	push	edx
	lea	eax, DWORD PTR $T233552[ebp]
	push	eax
	lea	ecx, DWORD PTR _mapPlayers$[ebp]
	call	??0?$_Tree@V?$_Tmap_traits@HHU?$less@H@std@@V?$allocator@U?$pair@$$CBHH@std@@@2@$0A@@std@@@std@@QAE@ABU?$less@H@1@ABV?$allocator@U?$pair@$$CBHH@std@@@1@@Z ; std::_Tree<std::_Tmap_traits<int,int,std::less<int>,std::allocator<std::pair<int const ,int> >,0> >::_Tree<std::_Tmap_traits<int,int,std::less<int>,std::allocator<std::pair<int const ,int> >,0> >
	mov	DWORD PTR __$EHRec$[ebp+8], 0

; 130  : 	mapPlayers[-1] = -1;	//account for NO_PLAYER.

	mov	DWORD PTR $T233089[ebp], -1
	lea	ecx, DWORD PTR $T233089[ebp]
	push	ecx
	lea	ecx, DWORD PTR _mapPlayers$[ebp]
	call	??A?$map@HHU?$less@H@std@@V?$allocator@U?$pair@$$CBHH@std@@@2@@std@@QAEAAHABH@Z ; std::map<int,int,std::less<int>,std::allocator<std::pair<int const ,int> > >::operator[]
	mov	DWORD PTR [eax], -1

; 131  : 
; 132  : 	m_iActivePlayer = -1;

	mov	edx, DWORD PTR _this$[ebp]
	mov	DWORD PTR [edx+4], -1

; 133  : 	int iPlayerIndex = 0;

	mov	DWORD PTR _iPlayerIndex$[ebp], 0

; 134  : 	for(int iPlayer = 0; iPlayer < MAX_CIV_PLAYERS; iPlayer++)

	mov	DWORD PTR _iPlayer$219743[ebp], 0
	jmp	SHORT $LN23@createInfo
$LN22@createInfo:
	mov	eax, DWORD PTR _iPlayer$219743[ebp]
	add	eax, 1
	mov	DWORD PTR _iPlayer$219743[ebp], eax
$LN23@createInfo:
	cmp	DWORD PTR _iPlayer$219743[ebp], 63	; 0000003fH
	jge	$LN21@createInfo

; 135  : 	{
; 136  : 		CvPlayer& player = GET_PLAYER((PlayerTypes)iPlayer);

	mov	ecx, DWORD PTR _iPlayer$219743[ebp]
	imul	ecx, 63236				; 0000f704H
	add	ecx, DWORD PTR ?m_aPlayers@CvPlayerAI@@1PAV1@A ; CvPlayerAI::m_aPlayers
	mov	DWORD PTR _player$219747[ebp], ecx

; 137  : 		if(player.isEverAlive())

	mov	edx, DWORD PTR _player$219747[ebp]
	mov	al, BYTE PTR [edx+2268]
	mov	BYTE PTR $T233646[ebp], al
	movzx	ecx, BYTE PTR $T233646[ebp]
	test	ecx, ecx
	je	$LN20@createInfo

; 138  : 		{
; 139  : 			//Ensure that final turn is stored.
; 140  : 			player.GatherPerTurnReplayStats(m_iFinalTurn);

	mov	edx, DWORD PTR _this$[ebp]
	mov	eax, DWORD PTR [edx+100]
	push	eax
	mov	ecx, DWORD PTR _player$219747[ebp]
	call	?GatherPerTurnReplayStats@CvPlayer@@QAEXH@Z ; CvPlayer::GatherPerTurnReplayStats

; 141  : 
; 142  : 			mapPlayers[iPlayer] = iPlayerIndex;

	lea	ecx, DWORD PTR _iPlayer$219743[ebp]
	push	ecx
	lea	ecx, DWORD PTR _mapPlayers$[ebp]
	call	??A?$map@HHU?$less@H@std@@V?$allocator@U?$pair@$$CBHH@std@@@2@@std@@QAEAAHABH@Z ; std::map<int,int,std::less<int>,std::allocator<std::pair<int const ,int> > >::operator[]
	mov	edx, DWORD PTR _iPlayerIndex$[ebp]
	mov	DWORD PTR [eax], edx

; 143  : 			if(iPlayer == game.getActivePlayer())

	mov	ecx, DWORD PTR _game$[ebp]
	call	?getActivePlayer@CvGame@@QBE?AW4PlayerTypes@@XZ ; CvGame::getActivePlayer
	cmp	DWORD PTR _iPlayer$219743[ebp], eax
	jne	SHORT $LN19@createInfo

; 144  : 			{
; 145  : 				m_iActivePlayer = iPlayerIndex;

	mov	eax, DWORD PTR _this$[ebp]
	mov	ecx, DWORD PTR _iPlayerIndex$[ebp]
	mov	DWORD PTR [eax+4], ecx
$LN19@createInfo:

; 146  : 			}
; 147  : 			++iPlayerIndex;

	mov	edx, DWORD PTR _iPlayerIndex$[ebp]
	add	edx, 1
	mov	DWORD PTR _iPlayerIndex$[ebp], edx

; 148  : 
; 149  : 			PlayerInfo playerInfo;

	lea	ecx, DWORD PTR _playerInfo$219751[ebp]
	call	??0PlayerInfo@CvReplayInfo@@QAE@XZ
	mov	BYTE PTR __$EHRec$[ebp+8], 1

; 150  : 			playerInfo.m_eLeader = player.getLeaderType();

	mov	ecx, DWORD PTR _player$219747[ebp]
	call	?getLeaderType@CvPlayer@@QBE?AW4LeaderHeadTypes@@XZ ; CvPlayer::getLeaderType
	mov	DWORD PTR _playerInfo$219751[ebp+4], eax

; 151  : 			playerInfo.m_eCivilization = player.getCivilizationType();

	mov	ecx, DWORD PTR _player$219747[ebp]
	call	?getCivilizationType@CvPlayer@@QBE?AW4CivilizationTypes@@XZ ; CvPlayer::getCivilizationType
	mov	DWORD PTR _playerInfo$219751[ebp], eax

; 152  : 
; 153  : 			playerInfo.m_eDifficulty = player.getHandicapType();

	mov	ecx, DWORD PTR _player$219747[ebp]
	call	?getHandicapType@CvPlayer@@QBE?AW4HandicapTypes@@XZ ; CvPlayer::getHandicapType
	mov	DWORD PTR _playerInfo$219751[ebp+12], eax

; 154  : 			playerInfo.m_strCustomLeaderName = player.getName();

	mov	ecx, DWORD PTR _player$219747[ebp]
	call	?getName@CvPlayer@@QBEPBDXZ		; CvPlayer::getName
	mov	DWORD PTR $T233736[ebp], eax
	cmp	DWORD PTR $T233736[ebp], 0
	je	SHORT $LN265@createInfo
	mov	eax, DWORD PTR $T233736[ebp]
	push	eax
	lea	ecx, DWORD PTR _playerInfo$219751[ebp+16]
	call	DWORD PTR __imp_?assign@?$basic_string@DU?$char_traits@D@std@@V?$allocator@D@2@@std@@QAEAAV12@PBD@Z
	jmp	SHORT $LN266@createInfo
$LN265@createInfo:
	lea	ecx, DWORD PTR _playerInfo$219751[ebp+16]
	call	DWORD PTR __imp_?clear@?$basic_string@DU?$char_traits@D@std@@V?$allocator@D@2@@std@@QAEXXZ
$LN266@createInfo:

; 155  : 			playerInfo.m_strCustomCivilizationName = player.getCivilizationDescription();

	mov	ecx, DWORD PTR _player$219747[ebp]
	call	?getCivilizationDescription@CvPlayer@@QBEPBDXZ ; CvPlayer::getCivilizationDescription
	mov	DWORD PTR $T233742[ebp], eax
	cmp	DWORD PTR $T233742[ebp], 0
	je	SHORT $LN269@createInfo
	mov	ecx, DWORD PTR $T233742[ebp]
	push	ecx
	lea	ecx, DWORD PTR _playerInfo$219751[ebp+44]
	call	DWORD PTR __imp_?assign@?$basic_string@DU?$char_traits@D@std@@V?$allocator@D@2@@std@@QAEAAV12@PBD@Z
	jmp	SHORT $LN270@createInfo
$LN269@createInfo:
	lea	ecx, DWORD PTR _playerInfo$219751[ebp+44]
	call	DWORD PTR __imp_?clear@?$basic_string@DU?$char_traits@D@std@@V?$allocator@D@2@@std@@QAEXXZ
$LN270@createInfo:

; 156  : 			playerInfo.m_strCustomCivilizationShortName = player.getCivilizationShortDescription();

	mov	ecx, DWORD PTR _player$219747[ebp]
	call	?getCivilizationShortDescription@CvPlayer@@QBEPBDXZ ; CvPlayer::getCivilizationShortDescription
	mov	DWORD PTR $T233748[ebp], eax
	cmp	DWORD PTR $T233748[ebp], 0
	je	SHORT $LN273@createInfo
	mov	edx, DWORD PTR $T233748[ebp]
	push	edx
	lea	ecx, DWORD PTR _playerInfo$219751[ebp+72]
	call	DWORD PTR __imp_?assign@?$basic_string@DU?$char_traits@D@std@@V?$allocator@D@2@@std@@QAEAAV12@PBD@Z
	jmp	SHORT $LN274@createInfo
$LN273@createInfo:
	lea	ecx, DWORD PTR _playerInfo$219751[ebp+72]
	call	DWORD PTR __imp_?clear@?$basic_string@DU?$char_traits@D@std@@V?$allocator@D@2@@std@@QAEXXZ
$LN274@createInfo:

; 157  : 			playerInfo.m_strCustomCivilizationAdjective = player.getCivilizationAdjective();

	mov	ecx, DWORD PTR _player$219747[ebp]
	call	?getCivilizationAdjective@CvPlayer@@QBEPBDXZ ; CvPlayer::getCivilizationAdjective
	mov	DWORD PTR $T233754[ebp], eax
	cmp	DWORD PTR $T233754[ebp], 0
	je	SHORT $LN277@createInfo
	mov	eax, DWORD PTR $T233754[ebp]
	push	eax
	lea	ecx, DWORD PTR _playerInfo$219751[ebp+100]
	call	DWORD PTR __imp_?assign@?$basic_string@DU?$char_traits@D@std@@V?$allocator@D@2@@std@@QAEAAV12@PBD@Z
	jmp	SHORT $LN278@createInfo
$LN277@createInfo:
	lea	ecx, DWORD PTR _playerInfo$219751[ebp+100]
	call	DWORD PTR __imp_?clear@?$basic_string@DU?$char_traits@D@std@@V?$allocator@D@2@@std@@QAEXXZ
$LN278@createInfo:

; 158  : 			playerInfo.m_ePlayerColor = player.getPlayerColor();

	mov	ecx, DWORD PTR _player$219747[ebp]
	call	?getPlayerColor@CvPlayer@@QBE?AW4PlayerColorTypes@@XZ ; CvPlayer::getPlayerColor
	mov	DWORD PTR _playerInfo$219751[ebp+8], eax

; 159  : 
; 160  : 
; 161  : 			TurnDataSets dataSet(m_dataSetMap.size());

	mov	ecx, DWORD PTR _this$[ebp]
	add	ecx, 176				; 000000b0H
	mov	DWORD PTR $T233758[ebp], ecx
	mov	edx, DWORD PTR $T233758[ebp]
	mov	eax, DWORD PTR $T233758[ebp]
	mov	ecx, DWORD PTR [edx+8]
	sub	ecx, DWORD PTR [eax+4]
	mov	eax, ecx
	cdq
	mov	ecx, 28					; 0000001cH
	idiv	ecx
	mov	DWORD PTR $T233759[ebp], eax
	mov	edx, DWORD PTR $T233759[ebp]
	push	edx
	lea	ecx, DWORD PTR _dataSet$219752[ebp]
	call	??0?$vector@V?$map@IHU?$less@I@std@@V?$allocator@U?$pair@$$CBIH@std@@@2@@std@@V?$allocator@V?$map@IHU?$less@I@std@@V?$allocator@U?$pair@$$CBIH@std@@@2@@std@@@2@@std@@QAE@I@Z ; std::vector<std::map<unsigned int,int,std::less<unsigned int>,std::allocator<std::pair<unsigned int const ,int> > >,std::allocator<std::map<unsigned int,int,std::less<unsigned int>,std::allocator<std::pair<unsigned int const ,int> > > > >::vector<std::map<unsigned int,int,std::less<unsigned int>,std::allocator<std::pair<unsigned int const ,int> > >,std::allocator<std::map<unsigned int,int,std::less<unsigned int>,std::allocator<std::pair<unsigned int const ,int> > > > >
	mov	BYTE PTR __$EHRec$[ebp+8], 2

; 162  : 
; 163  : 			unsigned int uiNumDataSets = player.getNumReplayDataSets();

	mov	ecx, DWORD PTR _player$219747[ebp]
	call	?getNumReplayDataSets@CvPlayer@@QBEIXZ	; CvPlayer::getNumReplayDataSets
	mov	DWORD PTR _uiNumDataSets$219753[ebp], eax

; 164  : 			for(unsigned int uiPlayerDataSet = 0; uiPlayerDataSet < uiNumDataSets; ++uiPlayerDataSet)

	mov	DWORD PTR _uiPlayerDataSet$219754[ebp], 0
	jmp	SHORT $LN18@createInfo
$LN17@createInfo:
	mov	eax, DWORD PTR _uiPlayerDataSet$219754[ebp]
	add	eax, 1
	mov	DWORD PTR _uiPlayerDataSet$219754[ebp], eax
$LN18@createInfo:
	mov	ecx, DWORD PTR _uiPlayerDataSet$219754[ebp]
	cmp	ecx, DWORD PTR _uiNumDataSets$219753[ebp]
	jae	$LN16@createInfo

; 165  : 			{
; 166  : 				// First, Locate the index of the dataset
; 167  : 				std::string playerDataSetName = player.getReplayDataSetName(uiPlayerDataSet);

	mov	edx, DWORD PTR _uiPlayerDataSet$219754[ebp]
	push	edx
	mov	ecx, DWORD PTR _player$219747[ebp]
	call	?getReplayDataSetName@CvPlayer@@QBEPBDI@Z ; CvPlayer::getReplayDataSetName
	push	eax
	lea	ecx, DWORD PTR _playerDataSetName$219758[ebp]
	call	DWORD PTR __imp_??0?$basic_string@DU?$char_traits@D@std@@V?$allocator@D@2@@std@@QAE@PBD@Z
	mov	BYTE PTR __$EHRec$[ebp+8], 3

; 168  : 				unsigned int uiDataSet = 0;

	mov	DWORD PTR _uiDataSet$219759[ebp], 0

; 169  : 				bool bFound = false;

	mov	BYTE PTR _bFound$219760[ebp], 0

; 170  : 				for(uiDataSet = 0; uiDataSet < m_dataSetMap.size(); ++uiDataSet)

	mov	DWORD PTR _uiDataSet$219759[ebp], 0
	jmp	SHORT $LN15@createInfo
$LN14@createInfo:
	mov	eax, DWORD PTR _uiDataSet$219759[ebp]
	add	eax, 1
	mov	DWORD PTR _uiDataSet$219759[ebp], eax
$LN15@createInfo:
	mov	ecx, DWORD PTR _this$[ebp]
	add	ecx, 176				; 000000b0H
	mov	DWORD PTR $T233841[ebp], ecx
	mov	edx, DWORD PTR $T233841[ebp]
	mov	eax, DWORD PTR $T233841[ebp]
	mov	ecx, DWORD PTR [edx+8]
	sub	ecx, DWORD PTR [eax+4]
	mov	eax, ecx
	cdq
	mov	ecx, 28					; 0000001cH
	idiv	ecx
	cmp	DWORD PTR _uiDataSet$219759[ebp], eax
	jae	SHORT $LN13@createInfo

; 171  : 				{
; 172  : 					const std::string& dataSetName = m_dataSetMap[uiDataSet];

	mov	edx, DWORD PTR _uiDataSet$219759[ebp]
	imul	edx, 28					; 0000001cH
	mov	eax, DWORD PTR _this$[ebp]
	add	edx, DWORD PTR [eax+180]
	mov	DWORD PTR _dataSetName$219764[ebp], edx

; 173  : 					if(dataSetName == playerDataSetName)

	lea	ecx, DWORD PTR _playerDataSetName$219758[ebp]
	push	ecx
	mov	edx, DWORD PTR _dataSetName$219764[ebp]
	push	edx
	call	DWORD PTR __imp_??$?8DU?$char_traits@D@std@@V?$allocator@D@1@@std@@YA_NABV?$basic_string@DU?$char_traits@D@std@@V?$allocator@D@2@@0@0@Z
	add	esp, 8
	movzx	eax, al
	test	eax, eax
	je	SHORT $LN12@createInfo

; 174  : 					{
; 175  : 						bFound = true;

	mov	BYTE PTR _bFound$219760[ebp], 1

; 176  : 						break;

	jmp	SHORT $LN13@createInfo
$LN12@createInfo:

; 177  : 					}
; 178  : 				}

	jmp	$LN14@createInfo
$LN13@createInfo:

; 179  : 
; 180  : 				// Add a new index if one doesn't exist.
; 181  : 				if(!bFound)

	movzx	ecx, BYTE PTR _bFound$219760[ebp]
	test	ecx, ecx
	jne	$LN11@createInfo

; 182  : 				{
; 183  : 					m_dataSetMap.push_back(playerDataSetName);

	lea	edx, DWORD PTR _playerDataSetName$219758[ebp]
	push	edx
	mov	ecx, DWORD PTR _this$[ebp]
	add	ecx, 176				; 000000b0H
	call	?push_back@?$vector@V?$basic_string@DU?$char_traits@D@std@@V?$allocator@D@2@@std@@V?$allocator@V?$basic_string@DU?$char_traits@D@std@@V?$allocator@D@2@@std@@@2@@std@@QAEXABV?$basic_string@DU?$char_traits@D@std@@V?$allocator@D@2@@2@@Z ; std::vector<std::basic_string<char,std::char_traits<char>,std::allocator<char> >,std::allocator<std::basic_string<char,std::char_traits<char>,std::allocator<char> > > >::push_back

; 184  : 					dataSet.push_back(TurnData());

	lea	eax, DWORD PTR $T233885[ebp]
	push	eax
	lea	ecx, DWORD PTR $T233886[ebp]
	push	ecx
	lea	ecx, DWORD PTR $T233090[ebp]
	call	??0?$_Tree@V?$_Tmap_traits@IHU?$less@I@std@@V?$allocator@U?$pair@$$CBIH@std@@@2@$0A@@std@@@std@@QAE@ABU?$less@I@1@ABV?$allocator@U?$pair@$$CBIH@std@@@1@@Z ; std::_Tree<std::_Tmap_traits<unsigned int,int,std::less<unsigned int>,std::allocator<std::pair<unsigned int const ,int> >,0> >::_Tree<std::_Tmap_traits<unsigned int,int,std::less<unsigned int>,std::allocator<std::pair<unsigned int const ,int> >,0> >
	lea	edx, DWORD PTR $T233090[ebp]
	mov	DWORD PTR tv469[ebp], edx
	mov	BYTE PTR __$EHRec$[ebp+8], 4
	mov	eax, DWORD PTR tv469[ebp]
	push	eax
	lea	ecx, DWORD PTR _dataSet$219752[ebp]
	call	?push_back@?$vector@V?$map@IHU?$less@I@std@@V?$allocator@U?$pair@$$CBIH@std@@@2@@std@@V?$allocator@V?$map@IHU?$less@I@std@@V?$allocator@U?$pair@$$CBIH@std@@@2@@std@@@2@@std@@QAEXABV?$map@IHU?$less@I@std@@V?$allocator@U?$pair@$$CBIH@std@@@2@@2@@Z ; std::vector<std::map<unsigned int,int,std::less<unsigned int>,std::allocator<std::pair<unsigned int const ,int> > >,std::allocator<std::map<unsigned int,int,std::less<unsigned int>,std::allocator<std::pair<unsigned int const ,int> > > > >::push_back
	mov	BYTE PTR __$EHRec$[ebp+8], 3
	mov	BYTE PTR __$EHRec$[ebp+8], 5
	lea	ecx, DWORD PTR $T233090[ebp]
	call	?_Tidy@?$_Tree@V?$_Tmap_traits@IHU?$less@I@std@@V?$allocator@U?$pair@$$CBIH@std@@@2@$0A@@std@@@std@@IAEXXZ ; std::_Tree<std::_Tmap_traits<unsigned int,int,std::less<unsigned int>,std::allocator<std::pair<unsigned int const ,int> >,0> >::_Tidy
	mov	BYTE PTR __$EHRec$[ebp+8], 3

; 185  : 					uiDataSet = m_dataSetMap.size() - 1;

	mov	ecx, DWORD PTR _this$[ebp]
	add	ecx, 176				; 000000b0H
	mov	DWORD PTR $T233992[ebp], ecx
	mov	edx, DWORD PTR $T233992[ebp]
	mov	eax, DWORD PTR $T233992[ebp]
	mov	ecx, DWORD PTR [edx+8]
	sub	ecx, DWORD PTR [eax+4]
	mov	eax, ecx
	cdq
	mov	ecx, 28					; 0000001cH
	idiv	ecx
	sub	eax, 1
	mov	DWORD PTR _uiDataSet$219759[ebp], eax
$LN11@createInfo:

; 186  : 				}
; 187  : 
; 188  : 				CvPlayer::TurnData playerData = player.getReplayDataHistory(uiPlayerDataSet);

	mov	edx, DWORD PTR _uiPlayerDataSet$219754[ebp]
	push	edx
	lea	eax, DWORD PTR _playerData$219768[ebp]
	push	eax
	mov	ecx, DWORD PTR _player$219747[ebp]
	call	?getReplayDataHistory@CvPlayer@@QBE?AV?$map@IHU?$less@I@std@@V?$allocator@U?$pair@$$CBIH@std@@@2@@std@@I@Z ; CvPlayer::getReplayDataHistory
	mov	BYTE PTR __$EHRec$[ebp+8], 6

; 189  : 				TurnData turnData;

	lea	ecx, DWORD PTR $T234002[ebp]
	push	ecx
	lea	edx, DWORD PTR $T234003[ebp]
	push	edx
	lea	ecx, DWORD PTR _turnData$219770[ebp]
	call	??0?$_Tree@V?$_Tmap_traits@IHU?$less@I@std@@V?$allocator@U?$pair@$$CBIH@std@@@2@$0A@@std@@@std@@QAE@ABU?$less@I@1@ABV?$allocator@U?$pair@$$CBIH@std@@@1@@Z ; std::_Tree<std::_Tmap_traits<unsigned int,int,std::less<unsigned int>,std::allocator<std::pair<unsigned int const ,int> >,0> >::_Tree<std::_Tmap_traits<unsigned int,int,std::less<unsigned int>,std::allocator<std::pair<unsigned int const ,int> >,0> >
	mov	BYTE PTR __$EHRec$[ebp+8], 7

; 190  : 
; 191  : 				for(CvPlayer::TurnData::iterator it = playerData.begin(); it != playerData.end(); ++it)

	mov	eax, DWORD PTR _playerData$219768[ebp+4]
	mov	DWORD PTR $T234011[ebp], eax
	mov	ecx, DWORD PTR $T234011[ebp]
	mov	edx, DWORD PTR [ecx]
	mov	DWORD PTR $T234024[ebp], edx
	mov	eax, DWORD PTR $T234024[ebp]
	mov	DWORD PTR _it$219865[ebp], eax
	jmp	SHORT $LN10@createInfo
$LN9@createInfo:
	lea	ecx, DWORD PTR _it$219865[ebp]
	call	?_Inc@const_iterator@?$_Tree@V?$_Tmap_traits@IHU?$less@I@std@@V?$allocator@U?$pair@$$CBIH@std@@@2@$0A@@std@@@std@@QAEXXZ ; std::_Tree<std::_Tmap_traits<unsigned int,int,std::less<unsigned int>,std::allocator<std::pair<unsigned int const ,int> >,0> >::const_iterator::_Inc
$LN10@createInfo:
	mov	ecx, DWORD PTR _playerData$219768[ebp+4]
	mov	DWORD PTR $T234052[ebp], ecx
	mov	edx, DWORD PTR $T234052[ebp]
	mov	DWORD PTR $T233091[ebp], edx
	mov	eax, DWORD PTR _it$219865[ebp]
	xor	ecx, ecx
	cmp	eax, DWORD PTR $T233091[ebp]
	sete	cl
	movzx	edx, cl
	neg	edx
	sbb	edx, edx
	add	edx, 1
	movzx	eax, dl
	test	eax, eax
	je	SHORT $LN448@createInfo

; 192  : 				{
; 193  : 					turnData[(*it).first - m_iInitialTurn] = (*it).second;

	mov	ecx, DWORD PTR _it$219865[ebp]
	mov	edx, DWORD PTR _this$[ebp]
	mov	eax, DWORD PTR [ecx+12]
	sub	eax, DWORD PTR [edx+96]
	mov	DWORD PTR $T233092[ebp], eax
	mov	ecx, DWORD PTR _it$219865[ebp]
	add	ecx, 12					; 0000000cH
	mov	DWORD PTR $T234097[ebp], ecx
	lea	edx, DWORD PTR $T233092[ebp]
	push	edx
	lea	ecx, DWORD PTR _turnData$219770[ebp]
	call	??A?$map@IHU?$less@I@std@@V?$allocator@U?$pair@$$CBIH@std@@@2@@std@@QAEAAHABI@Z ; std::map<unsigned int,int,std::less<unsigned int>,std::allocator<std::pair<unsigned int const ,int> > >::operator[]
	mov	ecx, DWORD PTR $T234097[ebp]
	mov	edx, DWORD PTR [ecx+4]
	mov	DWORD PTR [eax], edx

; 194  : 				}

	jmp	$LN9@createInfo

; 195  : 
; 196  : 				dataSet[uiDataSet] = turnData;

$LN448@createInfo:
	mov	eax, DWORD PTR _uiDataSet$219759[ebp]
	imul	eax, 12					; 0000000cH
	add	eax, DWORD PTR _dataSet$219752[ebp+4]
	mov	DWORD PTR $T234183[ebp], eax
	lea	ecx, DWORD PTR _turnData$219770[ebp]
	push	ecx
	mov	ecx, DWORD PTR $T234183[ebp]
	call	??4?$_Tree@V?$_Tmap_traits@IHU?$less@I@std@@V?$allocator@U?$pair@$$CBIH@std@@@2@$0A@@std@@@std@@QAEAAV01@ABV01@@Z ; std::_Tree<std::_Tmap_traits<unsigned int,int,std::less<unsigned int>,std::allocator<std::pair<unsigned int const ,int> >,0> >::operator=

; 197  : 			}

	mov	BYTE PTR __$EHRec$[ebp+8], 6
	mov	BYTE PTR __$EHRec$[ebp+8], 8
	lea	ecx, DWORD PTR _turnData$219770[ebp]
	call	?_Tidy@?$_Tree@V?$_Tmap_traits@IHU?$less@I@std@@V?$allocator@U?$pair@$$CBIH@std@@@2@$0A@@std@@@std@@IAEXXZ ; std::_Tree<std::_Tmap_traits<unsigned int,int,std::less<unsigned int>,std::allocator<std::pair<unsigned int const ,int> >,0> >::_Tidy
	mov	BYTE PTR __$EHRec$[ebp+8], 6
	mov	BYTE PTR __$EHRec$[ebp+8], 3
	mov	BYTE PTR __$EHRec$[ebp+8], 9
	lea	ecx, DWORD PTR _playerData$219768[ebp]
	call	?_Tidy@?$_Tree@V?$_Tmap_traits@IHU?$less@I@std@@V?$allocator@U?$pair@$$CBIH@std@@@2@$0A@@std@@@std@@IAEXXZ ; std::_Tree<std::_Tmap_traits<unsigned int,int,std::less<unsigned int>,std::allocator<std::pair<unsigned int const ,int> >,0> >::_Tidy
	mov	BYTE PTR __$EHRec$[ebp+8], 3
	mov	BYTE PTR __$EHRec$[ebp+8], 2
	lea	ecx, DWORD PTR _playerDataSetName$219758[ebp]
	call	DWORD PTR __imp_??1?$basic_string@DU?$char_traits@D@std@@V?$allocator@D@2@@std@@QAE@XZ
	jmp	$LN17@createInfo
$LN16@createInfo:

; 198  : 
; 199  : 			m_listPlayerDataSets.push_back(dataSet);

	lea	edx, DWORD PTR _dataSet$219752[ebp]
	push	edx
	mov	ecx, DWORD PTR _this$[ebp]
	add	ecx, 192				; 000000c0H
	call	?push_back@?$vector@V?$vector@V?$map@IHU?$less@I@std@@V?$allocator@U?$pair@$$CBIH@std@@@2@@std@@V?$allocator@V?$map@IHU?$less@I@std@@V?$allocator@U?$pair@$$CBIH@std@@@2@@std@@@2@@std@@V?$allocator@V?$vector@V?$map@IHU?$less@I@std@@V?$allocator@U?$pair@$$CBIH@std@@@2@@std@@V?$allocator@V?$map@IHU?$less@I@std@@V?$allocator@U?$pair@$$CBIH@std@@@2@@std@@@2@@std@@@2@@std@@QAEXABV?$vector@V?$map@IHU?$less@I@std@@V?$allocator@U?$pair@$$CBIH@std@@@2@@std@@V?$allocator@V?$map@IHU?$less@I@std@@V?$allocator@U?$pair@$$CBIH@std@@@2@@std@@@2@@2@@Z ; std::vector<std::vector<std::map<unsigned int,int,std::less<unsigned int>,std::allocator<std::pair<unsigned int const ,int> > >,std::allocator<std::map<unsigned int,int,std::less<unsigned int>,std::allocator<std::pair<unsigned int const ,int> > > > >,std::allocator<std::vector<std::map<unsigned int,int,std::less<unsigned int>,std::allocator<std::pair<unsigned int const ,int> > >,std::allocator<std::map<unsigned int,int,std::less<unsigned int>,std::allocator<std::pair<unsigned int const ,int> > > > > > >::push_back

; 200  : 			m_listPlayerInfo.push_back(playerInfo);

	lea	eax, DWORD PTR _playerInfo$219751[ebp]
	push	eax
	mov	ecx, DWORD PTR _this$[ebp]
	add	ecx, 144				; 00000090H
	call	?push_back@?$vector@UPlayerInfo@CvReplayInfo@@V?$allocator@UPlayerInfo@CvReplayInfo@@@std@@@std@@QAEXABUPlayerInfo@CvReplayInfo@@@Z ; std::vector<CvReplayInfo::PlayerInfo,std::allocator<CvReplayInfo::PlayerInfo> >::push_back

; 201  : 		}

	mov	BYTE PTR __$EHRec$[ebp+8], 10		; 0000000aH
	lea	ecx, DWORD PTR _dataSet$219752[ebp]
	call	?_Tidy@?$vector@V?$map@IHU?$less@I@std@@V?$allocator@U?$pair@$$CBIH@std@@@2@@std@@V?$allocator@V?$map@IHU?$less@I@std@@V?$allocator@U?$pair@$$CBIH@std@@@2@@std@@@2@@std@@IAEXXZ ; std::vector<std::map<unsigned int,int,std::less<unsigned int>,std::allocator<std::pair<unsigned int const ,int> > >,std::allocator<std::map<unsigned int,int,std::less<unsigned int>,std::allocator<std::pair<unsigned int const ,int> > > > >::_Tidy
	mov	BYTE PTR __$EHRec$[ebp+8], 1
	mov	BYTE PTR __$EHRec$[ebp+8], 0
	lea	ecx, DWORD PTR _playerInfo$219751[ebp]
	call	??1PlayerInfo@CvReplayInfo@@QAE@XZ
$LN20@createInfo:

; 202  : 	}

	jmp	$LN22@createInfo
$LN21@createInfo:

; 203  : 
; 204  : 	m_listReplayMessages.clear();

	mov	ecx, DWORD PTR _this$[ebp]
	add	ecx, 160				; 000000a0H
	mov	DWORD PTR $T234483[ebp], ecx
	mov	edx, DWORD PTR $T234483[ebp]
	mov	eax, DWORD PTR [edx+8]
	mov	DWORD PTR $T234441[ebp], eax
	mov	ecx, DWORD PTR $T234441[ebp]
	mov	DWORD PTR $T234467[ebp], ecx
	mov	edx, DWORD PTR $T234467[ebp]
	mov	DWORD PTR $T234466[ebp], edx
	mov	eax, DWORD PTR $T234483[ebp]
	mov	ecx, DWORD PTR [eax+4]
	mov	DWORD PTR $T234457[ebp], ecx
	mov	edx, DWORD PTR $T234457[ebp]
	mov	DWORD PTR $T234469[ebp], edx
	mov	eax, DWORD PTR $T234469[ebp]
	mov	DWORD PTR $T234468[ebp], eax
	mov	ecx, DWORD PTR $T234466[ebp]
	push	ecx
	mov	edx, DWORD PTR $T234468[ebp]
	push	edx
	lea	eax, DWORD PTR $T234470[ebp]
	push	eax
	mov	ecx, DWORD PTR $T234483[ebp]
	call	?erase@?$vector@VCvReplayMessage@@V?$allocator@VCvReplayMessage@@@std@@@std@@QAE?AV?$_Vector_iterator@VCvReplayMessage@@V?$allocator@VCvReplayMessage@@@std@@@2@V?$_Vector_const_iterator@VCvReplayMessage@@V?$allocator@VCvReplayMessage@@@std@@@2@0@Z ; std::vector<CvReplayMessage,std::allocator<CvReplayMessage> >::erase

; 205  : 	const uint nMessages = game.getNumReplayMessages();

	mov	ecx, DWORD PTR _game$[ebp]
	call	?getNumReplayMessages@CvGame@@QBEIXZ	; CvGame::getNumReplayMessages
	mov	DWORD PTR _nMessages$[ebp], eax

; 206  : 	m_listReplayMessages.reserve(nMessages);

	mov	ecx, DWORD PTR _nMessages$[ebp]
	push	ecx
	mov	ecx, DWORD PTR _this$[ebp]
	add	ecx, 160				; 000000a0H
	call	?reserve@?$vector@VCvReplayMessage@@V?$allocator@VCvReplayMessage@@@std@@@std@@QAEXI@Z ; std::vector<CvReplayMessage,std::allocator<CvReplayMessage> >::reserve

; 207  : 
; 208  : 	for(uint i = 0; i < nMessages; ++i)

	mov	DWORD PTR _i$219897[ebp], 0
	jmp	SHORT $LN7@createInfo
$LN6@createInfo:
	mov	edx, DWORD PTR _i$219897[ebp]
	add	edx, 1
	mov	DWORD PTR _i$219897[ebp], edx
$LN7@createInfo:
	mov	eax, DWORD PTR _i$219897[ebp]
	cmp	eax, DWORD PTR _nMessages$[ebp]
	jae	$LN5@createInfo

; 209  : 	{
; 210  : 		const CvReplayMessage* pMessage = game.getReplayMessage(i);

	mov	ecx, DWORD PTR _i$219897[ebp]
	push	ecx
	mov	ecx, DWORD PTR _game$[ebp]
	call	?getReplayMessage@CvGame@@QBEPBVCvReplayMessage@@I@Z ; CvGame::getReplayMessage
	mov	DWORD PTR _pMessage$219901[ebp], eax

; 211  : 		if(pMessage)

	cmp	DWORD PTR _pMessage$219901[ebp], 0
	je	SHORT $LN4@createInfo

; 212  : 		{
; 213  : 			CvReplayMessage modifiedMessage = (*pMessage);

	mov	edx, DWORD PTR _pMessage$219901[ebp]
	push	edx
	lea	ecx, DWORD PTR _modifiedMessage$219903[ebp]
	call	??0CvReplayMessage@@QAE@ABV0@@Z
	mov	BYTE PTR __$EHRec$[ebp+8], 11		; 0000000bH

; 214  : 			modifiedMessage.setPlayer((PlayerTypes)mapPlayers[modifiedMessage.getPlayer()]);

	lea	ecx, DWORD PTR _modifiedMessage$219903[ebp]
	call	?getPlayer@CvReplayMessage@@QBE?AW4PlayerTypes@@XZ ; CvReplayMessage::getPlayer
	mov	DWORD PTR $T233093[ebp], eax
	lea	eax, DWORD PTR $T233093[ebp]
	push	eax
	lea	ecx, DWORD PTR _mapPlayers$[ebp]
	call	??A?$map@HHU?$less@H@std@@V?$allocator@U?$pair@$$CBHH@std@@@2@@std@@QAEAAHABH@Z ; std::map<int,int,std::less<int>,std::allocator<std::pair<int const ,int> > >::operator[]
	mov	ecx, DWORD PTR [eax]
	push	ecx
	lea	ecx, DWORD PTR _modifiedMessage$219903[ebp]
	call	?setPlayer@CvReplayMessage@@QAEXW4PlayerTypes@@@Z ; CvReplayMessage::setPlayer

; 215  : 
; 216  : 			m_listReplayMessages.push_back(modifiedMessage);

	lea	edx, DWORD PTR _modifiedMessage$219903[ebp]
	push	edx
	mov	ecx, DWORD PTR _this$[ebp]
	add	ecx, 160				; 000000a0H
	call	?push_back@?$vector@VCvReplayMessage@@V?$allocator@VCvReplayMessage@@@std@@@std@@QAEXABVCvReplayMessage@@@Z ; std::vector<CvReplayMessage,std::allocator<CvReplayMessage> >::push_back

; 217  : 		}

	mov	BYTE PTR __$EHRec$[ebp+8], 0
	lea	ecx, DWORD PTR _modifiedMessage$219903[ebp]
	call	??1CvReplayMessage@@UAE@XZ		; CvReplayMessage::~CvReplayMessage
$LN4@createInfo:

; 218  : 	}

	jmp	$LN6@createInfo
$LN5@createInfo:

; 219  : 
; 220  : 	CvMap& kMap = GC.getMap();

	mov	eax, DWORD PTR ?gGlobals@@3VCvGlobals@@A+52
	mov	DWORD PTR _kMap$[ebp], eax

; 221  : 
; 222  : 	m_iMapWidth = kMap.getGridWidth();

	mov	ecx, DWORD PTR _kMap$[ebp]
	mov	edx, DWORD PTR [ecx+4020]
	mov	DWORD PTR $T234603[ebp], edx
	mov	eax, DWORD PTR _this$[ebp]
	mov	ecx, DWORD PTR $T234603[ebp]
	mov	DWORD PTR [eax+212], ecx

; 223  : 	m_iMapHeight = kMap.getGridHeight();

	mov	edx, DWORD PTR _kMap$[ebp]
	mov	eax, DWORD PTR [edx+4024]
	mov	DWORD PTR $T234607[ebp], eax
	mov	ecx, DWORD PTR _this$[ebp]
	mov	edx, DWORD PTR $T234607[ebp]
	mov	DWORD PTR [ecx+208], edx

; 224  : 
; 225  : 	int numPlots = kMap.numPlots();

	mov	eax, DWORD PTR _kMap$[ebp]
	mov	ecx, DWORD PTR [eax+4028]
	mov	DWORD PTR _numPlots$[ebp], ecx

; 226  : 	m_listPlots.clear();

	mov	edx, DWORD PTR _this$[ebp]
	add	edx, 216				; 000000d8H
	mov	DWORD PTR $T234668[ebp], edx
	mov	eax, DWORD PTR $T234668[ebp]
	mov	ecx, DWORD PTR [eax+8]
	mov	DWORD PTR $T234626[ebp], ecx
	mov	edx, DWORD PTR $T234626[ebp]
	mov	DWORD PTR $T234651[ebp], edx
	mov	eax, DWORD PTR $T234651[ebp]
	mov	DWORD PTR $T234650[ebp], eax
	mov	ecx, DWORD PTR $T234668[ebp]
	mov	edx, DWORD PTR [ecx+4]
	mov	DWORD PTR $T234642[ebp], edx
	mov	eax, DWORD PTR $T234642[ebp]
	mov	DWORD PTR $T234653[ebp], eax
	mov	ecx, DWORD PTR $T234653[ebp]
	mov	DWORD PTR $T234652[ebp], ecx
	mov	edx, DWORD PTR $T234650[ebp]
	push	edx
	mov	eax, DWORD PTR $T234652[ebp]
	push	eax
	lea	ecx, DWORD PTR $T234654[ebp]
	push	ecx
	mov	ecx, DWORD PTR $T234668[ebp]
	call	?erase@?$vector@V?$map@IUPlotState@CvReplayInfo@@U?$less@I@std@@V?$allocator@U?$pair@$$CBIUPlotState@CvReplayInfo@@@std@@@4@@std@@V?$allocator@V?$map@IUPlotState@CvReplayInfo@@U?$less@I@std@@V?$allocator@U?$pair@$$CBIUPlotState@CvReplayInfo@@@std@@@4@@std@@@2@@std@@QAE?AV?$_Vector_iterator@V?$map@IUPlotState@CvReplayInfo@@U?$less@I@std@@V?$allocator@U?$pair@$$CBIUPlotState@CvReplayInfo@@@std@@@4@@std@@V?$allocator@V?$map@IUPlotState@CvReplayInfo@@U?$less@I@std@@V?$allocator@U?$pair@$$CBIUPlotState@CvReplayInfo@@@std@@@4@@std@@@2@@2@V?$_Vector_const_iterator@V?$map@IUPlotState@CvReplayInfo@@U?$less@I@std@@V?$allocator@U?$pair@$$CBIUPlotState@CvReplayInfo@@@std@@@4@@std@@V?$allocator@V?$map@IUPlotState@CvReplayInfo@@U?$less@I@std@@V?$allocator@U?$pair@$$CBIUPlotState@CvReplayInfo@@@std@@@4@@std@@@2@@2@0@Z ; std::vector<std::map<unsigned int,CvReplayInfo::PlotState,std::less<unsigned int>,std::allocator<std::pair<unsigned int const ,CvReplayInfo::PlotState> > >,std::allocator<std::map<unsigned int,CvReplayInfo::PlotState,std::less<unsigned int>,std::allocator<std::pair<unsigned int const ,CvReplayInfo::PlotState> > > > >::erase

; 227  : 	m_listPlots.reserve(numPlots);

	mov	edx, DWORD PTR _numPlots$[ebp]
	push	edx
	mov	ecx, DWORD PTR _this$[ebp]
	add	ecx, 216				; 000000d8H
	call	?reserve@?$vector@V?$map@IUPlotState@CvReplayInfo@@U?$less@I@std@@V?$allocator@U?$pair@$$CBIUPlotState@CvReplayInfo@@@std@@@4@@std@@V?$allocator@V?$map@IUPlotState@CvReplayInfo@@U?$less@I@std@@V?$allocator@U?$pair@$$CBIUPlotState@CvReplayInfo@@@std@@@4@@std@@@2@@std@@QAEXI@Z ; std::vector<std::map<unsigned int,CvReplayInfo::PlotState,std::less<unsigned int>,std::allocator<std::pair<unsigned int const ,CvReplayInfo::PlotState> > >,std::allocator<std::map<unsigned int,CvReplayInfo::PlotState,std::less<unsigned int>,std::allocator<std::pair<unsigned int const ,CvReplayInfo::PlotState> > > > >::reserve

; 228  : 
; 229  : 	for(int i = 0; i < numPlots; i++)

	mov	DWORD PTR _i$219908[ebp], 0
	jmp	SHORT $LN3@createInfo
$LN2@createInfo:
	mov	eax, DWORD PTR _i$219908[ebp]
	add	eax, 1
	mov	DWORD PTR _i$219908[ebp], eax
$LN3@createInfo:
	mov	ecx, DWORD PTR _i$219908[ebp]
	cmp	ecx, DWORD PTR _numPlots$[ebp]
	jge	$LN1@createInfo

; 230  : 	{
; 231  : 		PlotState plotState;
; 232  : 
; 233  : 		CvPlot* pkPlot = kMap.plotByIndexUnchecked(i);

	mov	edx, DWORD PTR _i$219908[ebp]
	imul	edx, 484				; 000001e4H
	mov	eax, DWORD PTR _kMap$[ebp]
	add	edx, DWORD PTR [eax+4068]
	mov	DWORD PTR _pkPlot$219913[ebp], edx

; 234  : 		plotState.m_ePlotType = pkPlot->getPlotType();

	mov	ecx, DWORD PTR _pkPlot$219913[ebp]
	movsx	edx, BYTE PTR [ecx+5]
	mov	DWORD PTR _plotState$219912[ebp], edx

; 235  : 		plotState.m_eTerrain = pkPlot->getTerrainType();

	mov	eax, DWORD PTR _pkPlot$219913[ebp]
	movsx	ecx, BYTE PTR [eax+6]
	mov	DWORD PTR _plotState$219912[ebp+4], ecx

; 236  : 		plotState.m_eFeature = pkPlot->getFeatureType();

	mov	edx, DWORD PTR _pkPlot$219913[ebp]
	mov	al, BYTE PTR [edx+432]
	mov	BYTE PTR _f$234686[ebp], al
	movsx	ecx, BYTE PTR _f$234686[ebp]
	mov	DWORD PTR _plotState$219912[ebp+8], ecx

; 237  : 		plotState.m_bNEOfRiver = pkPlot->isNEOfRiver();

	mov	ecx, DWORD PTR _pkPlot$219913[ebp]
	call	?isNEOfRiver@CvPlot@@QBE_NXZ		; CvPlot::isNEOfRiver
	mov	BYTE PTR _plotState$219912[ebp+12], al

; 238  : 		plotState.m_bWOfRiver = pkPlot->isWOfRiver();

	mov	ecx, DWORD PTR _pkPlot$219913[ebp]
	call	?isWOfRiver@CvPlot@@QBE_NXZ		; CvPlot::isWOfRiver
	mov	BYTE PTR _plotState$219912[ebp+13], al

; 239  : 		plotState.m_bNWOfRiver = pkPlot->isNWOfRiver();

	mov	ecx, DWORD PTR _pkPlot$219913[ebp]
	call	?isNWOfRiver@CvPlot@@QBE_NXZ		; CvPlot::isNWOfRiver
	mov	BYTE PTR _plotState$219912[ebp+14], al

; 240  : 
; 241  : 		PlotStatePerTurn plotStatePerTurn;

	lea	ecx, DWORD PTR _plotStatePerTurn$220497[ebp]
	call	??0?$map@IUPlotState@CvReplayInfo@@U?$less@I@std@@V?$allocator@U?$pair@$$CBIUPlotState@CvReplayInfo@@@std@@@4@@std@@QAE@XZ ; std::map<unsigned int,CvReplayInfo::PlotState,std::less<unsigned int>,std::allocator<std::pair<unsigned int const ,CvReplayInfo::PlotState> > >::map<unsigned int,CvReplayInfo::PlotState,std::less<unsigned int>,std::allocator<std::pair<unsigned int const ,CvReplayInfo::PlotState> > >
	mov	BYTE PTR __$EHRec$[ebp+8], 12		; 0000000cH

; 242  : 		plotStatePerTurn[m_iFinalTurn] = plotState;

	mov	edx, DWORD PTR _this$[ebp]
	mov	eax, DWORD PTR [edx+100]
	mov	DWORD PTR $T233094[ebp], eax
	lea	ecx, DWORD PTR $T233094[ebp]
	push	ecx
	lea	ecx, DWORD PTR _plotStatePerTurn$220497[ebp]
	call	??A?$map@IUPlotState@CvReplayInfo@@U?$less@I@std@@V?$allocator@U?$pair@$$CBIUPlotState@CvReplayInfo@@@std@@@4@@std@@QAEAAUPlotState@CvReplayInfo@@ABI@Z ; std::map<unsigned int,CvReplayInfo::PlotState,std::less<unsigned int>,std::allocator<std::pair<unsigned int const ,CvReplayInfo::PlotState> > >::operator[]
	mov	edx, DWORD PTR _plotState$219912[ebp]
	mov	DWORD PTR [eax], edx
	mov	ecx, DWORD PTR _plotState$219912[ebp+4]
	mov	DWORD PTR [eax+4], ecx
	mov	edx, DWORD PTR _plotState$219912[ebp+8]
	mov	DWORD PTR [eax+8], edx
	mov	ecx, DWORD PTR _plotState$219912[ebp+12]
	mov	DWORD PTR [eax+12], ecx

; 243  : 
; 244  : 		m_listPlots.push_back(plotStatePerTurn);

	lea	edx, DWORD PTR _plotStatePerTurn$220497[ebp]
	push	edx
	mov	ecx, DWORD PTR _this$[ebp]
	add	ecx, 216				; 000000d8H
	call	?push_back@?$vector@V?$map@IUPlotState@CvReplayInfo@@U?$less@I@std@@V?$allocator@U?$pair@$$CBIUPlotState@CvReplayInfo@@@std@@@4@@std@@V?$allocator@V?$map@IUPlotState@CvReplayInfo@@U?$less@I@std@@V?$allocator@U?$pair@$$CBIUPlotState@CvReplayInfo@@@std@@@4@@std@@@2@@std@@QAEXABV?$map@IUPlotState@CvReplayInfo@@U?$less@I@std@@V?$allocator@U?$pair@$$CBIUPlotState@CvReplayInfo@@@std@@@4@@2@@Z ; std::vector<std::map<unsigned int,CvReplayInfo::PlotState,std::less<unsigned int>,std::allocator<std::pair<unsigned int const ,CvReplayInfo::PlotState> > >,std::allocator<std::map<unsigned int,CvReplayInfo::PlotState,std::less<unsigned int>,std::allocator<std::pair<unsigned int const ,CvReplayInfo::PlotState> > > > >::push_back

; 245  : 	}

	mov	BYTE PTR __$EHRec$[ebp+8], 0
	mov	BYTE PTR __$EHRec$[ebp+8], 13		; 0000000dH
	lea	ecx, DWORD PTR _plotStatePerTurn$220497[ebp]
	call	?_Tidy@?$_Tree@V?$_Tmap_traits@IUPlotState@CvReplayInfo@@U?$less@I@std@@V?$allocator@U?$pair@$$CBIUPlotState@CvReplayInfo@@@std@@@4@$0A@@std@@@std@@IAEXXZ ; std::_Tree<std::_Tmap_traits<unsigned int,CvReplayInfo::PlotState,std::less<unsigned int>,std::allocator<std::pair<unsigned int const ,CvReplayInfo::PlotState> >,0> >::_Tidy
	mov	BYTE PTR __$EHRec$[ebp+8], 0
	jmp	$LN2@createInfo
$LN1@createInfo:

; 246  : }

	mov	DWORD PTR __$EHRec$[ebp+8], -1
	mov	DWORD PTR __$EHRec$[ebp+8], 14		; 0000000eH
	lea	ecx, DWORD PTR _mapPlayers$[ebp]
	call	?_Tidy@?$_Tree@V?$_Tmap_traits@HHU?$less@H@std@@V?$allocator@U?$pair@$$CBHH@std@@@2@$0A@@std@@@std@@IAEXXZ ; std::_Tree<std::_Tmap_traits<int,int,std::less<int>,std::allocator<std::pair<int const ,int> >,0> >::_Tidy
	mov	DWORD PTR __$EHRec$[ebp+8], -1
	mov	ecx, DWORD PTR __$EHRec$[ebp]
	mov	DWORD PTR fs:0, ecx
	pop	ecx
	mov	ecx, DWORD PTR __$ArrayPad$[ebp]
	xor	ecx, ebp
	call	@__security_check_cookie@4
	mov	esp, ebp
	pop	ebp
	ret	0
_TEXT	ENDS
;	COMDAT text$x
text$x	SEGMENT
__unwindfunclet$?createInfo@CvReplayInfo@@QAEXXZ$0:
	lea	ecx, DWORD PTR _mapPlayers$[ebp]
	jmp	??1?$map@HHU?$less@H@std@@V?$allocator@U?$pair@$$CBHH@std@@@2@@std@@QAE@XZ
__unwindfunclet$?createInfo@CvReplayInfo@@QAEXXZ$1:
	lea	ecx, DWORD PTR _playerInfo$219751[ebp]
	jmp	??1PlayerInfo@CvReplayInfo@@QAE@XZ
__unwindfunclet$?createInfo@CvReplayInfo@@QAEXXZ$2:
	lea	ecx, DWORD PTR _dataSet$219752[ebp]
	jmp	??1?$vector@V?$map@IHU?$less@I@std@@V?$allocator@U?$pair@$$CBIH@std@@@2@@std@@V?$allocator@V?$map@IHU?$less@I@std@@V?$allocator@U?$pair@$$CBIH@std@@@2@@std@@@2@@std@@QAE@XZ ; std::vector<std::map<unsigned int,int,std::less<unsigned int>,std::allocator<std::pair<unsigned int const ,int> > >,std::allocator<std::map<unsigned int,int,std::less<unsigned int>,std::allocator<std::pair<unsigned int const ,int> > > > >::~vector<std::map<unsigned int,int,std::less<unsigned int>,std::allocator<std::pair<unsigned int const ,int> > >,std::allocator<std::map<unsigned int,int,std::less<unsigned int>,std::allocator<std::pair<unsigned int const ,int> > > > >
__unwindfunclet$?createInfo@CvReplayInfo@@QAEXXZ$3:
	lea	ecx, DWORD PTR _playerDataSetName$219758[ebp]
	jmp	DWORD PTR __imp_??1?$basic_string@DU?$char_traits@D@std@@V?$allocator@D@2@@std@@QAE@XZ
__unwindfunclet$?createInfo@CvReplayInfo@@QAEXXZ$4:
	lea	ecx, DWORD PTR $T233090[ebp]
	jmp	??1?$map@IHU?$less@I@std@@V?$allocator@U?$pair@$$CBIH@std@@@2@@std@@QAE@XZ
__unwindfunclet$?createInfo@CvReplayInfo@@QAEXXZ$24:
	lea	ecx, DWORD PTR $T233090[ebp]
	jmp	??1?$_Tree_val@V?$_Tmap_traits@IHU?$less@I@std@@V?$allocator@U?$pair@$$CBIH@std@@@2@$0A@@std@@@std@@QAE@XZ
__unwindfunclet$?createInfo@CvReplayInfo@@QAEXXZ$5:
	lea	ecx, DWORD PTR _playerData$219768[ebp]
	jmp	??1?$map@IHU?$less@I@std@@V?$allocator@U?$pair@$$CBIH@std@@@2@@std@@QAE@XZ
__unwindfunclet$?createInfo@CvReplayInfo@@QAEXXZ$6:
	lea	ecx, DWORD PTR _turnData$219770[ebp]
	jmp	??1?$map@IHU?$less@I@std@@V?$allocator@U?$pair@$$CBIH@std@@@2@@std@@QAE@XZ
__unwindfunclet$?createInfo@CvReplayInfo@@QAEXXZ$31:
	lea	ecx, DWORD PTR _turnData$219770[ebp]
	jmp	??1?$_Tree_val@V?$_Tmap_traits@IHU?$less@I@std@@V?$allocator@U?$pair@$$CBIH@std@@@2@$0A@@std@@@std@@QAE@XZ
__unwindfunclet$?createInfo@CvReplayInfo@@QAEXXZ$37:
	lea	ecx, DWORD PTR _playerData$219768[ebp]
	jmp	??1?$_Tree_val@V?$_Tmap_traits@IHU?$less@I@std@@V?$allocator@U?$pair@$$CBIH@std@@@2@$0A@@std@@@std@@QAE@XZ
__unwindfunclet$?createInfo@CvReplayInfo@@QAEXXZ$42:
	lea	ecx, DWORD PTR _dataSet$219752[ebp]
	jmp	??1?$_Vector_val@V?$map@IHU?$less@I@std@@V?$allocator@U?$pair@$$CBIH@std@@@2@@std@@V?$allocator@V?$map@IHU?$less@I@std@@V?$allocator@U?$pair@$$CBIH@std@@@2@@std@@@2@@std@@QAE@XZ
__unwindfunclet$?createInfo@CvReplayInfo@@QAEXXZ$7:
	lea	ecx, DWORD PTR _modifiedMessage$219903[ebp]
	jmp	??1CvReplayMessage@@UAE@XZ		; CvReplayMessage::~CvReplayMessage
__unwindfunclet$?createInfo@CvReplayInfo@@QAEXXZ$8:
	lea	ecx, DWORD PTR _plotStatePerTurn$220497[ebp]
	jmp	??1?$map@IUPlotState@CvReplayInfo@@U?$less@I@std@@V?$allocator@U?$pair@$$CBIUPlotState@CvReplayInfo@@@std@@@4@@std@@QAE@XZ
__unwindfunclet$?createInfo@CvReplayInfo@@QAEXXZ$55:
	lea	ecx, DWORD PTR _plotStatePerTurn$220497[ebp]
	jmp	??1?$_Tree_val@V?$_Tmap_traits@IUPlotState@CvReplayInfo@@U?$less@I@std@@V?$allocator@U?$pair@$$CBIUPlotState@CvReplayInfo@@@std@@@4@$0A@@std@@@std@@QAE@XZ
__unwindfunclet$?createInfo@CvReplayInfo@@QAEXXZ$61:
	lea	ecx, DWORD PTR _mapPlayers$[ebp]
	jmp	??1?$_Tree_val@V?$_Tmap_traits@HHU?$less@H@std@@V?$allocator@U?$pair@$$CBHH@std@@@2@$0A@@std@@@std@@QAE@XZ
__ehhandler$?createInfo@CvReplayInfo@@QAEXXZ:
	mov	edx, DWORD PTR [esp+8]
	lea	eax, DWORD PTR [edx+12]
	mov	ecx, DWORD PTR [edx-1124]
	xor	ecx, eax
	call	@__security_check_cookie@4
	mov	ecx, DWORD PTR [edx-72]
	xor	ecx, eax
	call	@__security_check_cookie@4
	mov	eax, OFFSET __ehfuncinfo$?createInfo@CvReplayInfo@@QAEXXZ
	jmp	___CxxFrameHandler3
text$x	ENDS
?createInfo@CvReplayInfo@@QAEXXZ ENDP			; CvReplayInfo::createInfo
;	COMDAT xdata$x
xdata$x	SEGMENT
__unwindtable$??1?$map@HHU?$less@H@std@@V?$allocator@U?$pair@$$CBHH@std@@@2@@std@@QAE@XZ DD 0ffffffffH
	DD	FLAT:__unwindfunclet$??1?$map@HHU?$less@H@std@@V?$allocator@U?$pair@$$CBHH@std@@@2@@std@@QAE@XZ$1
__ehfuncinfo$??1?$map@HHU?$less@H@std@@V?$allocator@U?$pair@$$CBHH@std@@@2@@std@@QAE@XZ DD 019930522H
	DD	01H
	DD	FLAT:__unwindtable$??1?$map@HHU?$less@H@std@@V?$allocator@U?$pair@$$CBHH@std@@@2@@std@@QAE@XZ
	DD	2 DUP(00H)
	DD	2 DUP(00H)
	DD	00H
	DD	01H
; Function compile flags: /Odtp
xdata$x	ENDS
;	COMDAT ??1?$map@HHU?$less@H@std@@V?$allocator@U?$pair@$$CBHH@std@@@2@@std@@QAE@XZ
_TEXT	SEGMENT
_this$ = -100						; size = 4
__$EHRec$ = -12						; size = 12
??1?$map@HHU?$less@H@std@@V?$allocator@U?$pair@$$CBHH@std@@@2@@std@@QAE@XZ PROC ; std::map<int,int,std::less<int>,std::allocator<std::pair<int const ,int> > >::~map<int,int,std::less<int>,std::allocator<std::pair<int const ,int> > >, COMDAT
; _this$ = ecx
	push	ebp
	mov	ebp, esp
	push	-1
	push	__ehhandler$??1?$map@HHU?$less@H@std@@V?$allocator@U?$pair@$$CBHH@std@@@2@@std@@QAE@XZ
	mov	eax, DWORD PTR fs:0
	push	eax
	sub	esp, 88					; 00000058H
	mov	eax, DWORD PTR ___security_cookie
	xor	eax, ebp
	push	eax
	lea	eax, DWORD PTR __$EHRec$[ebp]
	mov	DWORD PTR fs:0, eax
	mov	DWORD PTR _this$[ebp], ecx
	mov	DWORD PTR __$EHRec$[ebp+8], 0
	mov	ecx, DWORD PTR _this$[ebp]
	call	?_Tidy@?$_Tree@V?$_Tmap_traits@HHU?$less@H@std@@V?$allocator@U?$pair@$$CBHH@std@@@2@$0A@@std@@@std@@IAEXXZ ; std::_Tree<std::_Tmap_traits<int,int,std::less<int>,std::allocator<std::pair<int const ,int> >,0> >::_Tidy
	mov	DWORD PTR __$EHRec$[ebp+8], -1
	mov	ecx, DWORD PTR __$EHRec$[ebp]
	mov	DWORD PTR fs:0, ecx
	pop	ecx
	mov	esp, ebp
	pop	ebp
	ret	0
_TEXT	ENDS
;	COMDAT text$x
text$x	SEGMENT
__unwindfunclet$??1?$map@HHU?$less@H@std@@V?$allocator@U?$pair@$$CBHH@std@@@2@@std@@QAE@XZ$1:
	mov	ecx, DWORD PTR _this$[ebp]
	jmp	??1?$_Tree_val@V?$_Tmap_traits@HHU?$less@H@std@@V?$allocator@U?$pair@$$CBHH@std@@@2@$0A@@std@@@std@@QAE@XZ
__ehhandler$??1?$map@HHU?$less@H@std@@V?$allocator@U?$pair@$$CBHH@std@@@2@@std@@QAE@XZ:
	mov	edx, DWORD PTR [esp+8]
	lea	eax, DWORD PTR [edx+12]
	mov	ecx, DWORD PTR [edx-92]
	xor	ecx, eax
	call	@__security_check_cookie@4
	mov	eax, OFFSET __ehfuncinfo$??1?$map@HHU?$less@H@std@@V?$allocator@U?$pair@$$CBHH@std@@@2@@std@@QAE@XZ
	jmp	___CxxFrameHandler3
text$x	ENDS
??1?$map@HHU?$less@H@std@@V?$allocator@U?$pair@$$CBHH@std@@@2@@std@@QAE@XZ ENDP ; std::map<int,int,std::less<int>,std::allocator<std::pair<int const ,int> > >::~map<int,int,std::less<int>,std::allocator<std::pair<int const ,int> > >
;	COMDAT xdata$x
xdata$x	SEGMENT
__unwindtable$??0PlayerInfo@CvReplayInfo@@QAE@XZ DD 0ffffffffH
	DD	FLAT:__unwindfunclet$??0PlayerInfo@CvReplayInfo@@QAE@XZ$0
	DD	00H
	DD	FLAT:__unwindfunclet$??0PlayerInfo@CvReplayInfo@@QAE@XZ$1
	DD	01H
	DD	FLAT:__unwindfunclet$??0PlayerInfo@CvReplayInfo@@QAE@XZ$2
__ehfuncinfo$??0PlayerInfo@CvReplayInfo@@QAE@XZ DD 019930522H
	DD	03H
	DD	FLAT:__unwindtable$??0PlayerInfo@CvReplayInfo@@QAE@XZ
	DD	2 DUP(00H)
	DD	2 DUP(00H)
	DD	00H
	DD	01H
; Function compile flags: /Odtp
xdata$x	ENDS
;	COMDAT ??0PlayerInfo@CvReplayInfo@@QAE@XZ
_TEXT	SEGMENT
_this$ = -32						; size = 4
$T235126 = -28						; size = 4
$T235121 = -24						; size = 4
$T235116 = -20						; size = 4
$T235111 = -16						; size = 4
__$EHRec$ = -12						; size = 12
??0PlayerInfo@CvReplayInfo@@QAE@XZ PROC			; CvReplayInfo::PlayerInfo::PlayerInfo, COMDAT
; _this$ = ecx
	push	ebp
	mov	ebp, esp
	push	-1
	push	__ehhandler$??0PlayerInfo@CvReplayInfo@@QAE@XZ
	mov	eax, DWORD PTR fs:0
	push	eax
	sub	esp, 20					; 00000014H
	mov	eax, DWORD PTR ___security_cookie
	xor	eax, ebp
	push	eax
	lea	eax, DWORD PTR __$EHRec$[ebp]
	mov	DWORD PTR fs:0, eax
	mov	DWORD PTR _this$[ebp], ecx
	mov	eax, DWORD PTR _this$[ebp]
	add	eax, 16					; 00000010H
	mov	DWORD PTR $T235111[ebp], eax
	mov	ecx, DWORD PTR $T235111[ebp]
	call	DWORD PTR __imp_??0?$basic_string@DU?$char_traits@D@std@@V?$allocator@D@2@@std@@QAE@XZ
	mov	DWORD PTR __$EHRec$[ebp+8], 0
	mov	ecx, DWORD PTR _this$[ebp]
	add	ecx, 44					; 0000002cH
	mov	DWORD PTR $T235116[ebp], ecx
	mov	ecx, DWORD PTR $T235116[ebp]
	call	DWORD PTR __imp_??0?$basic_string@DU?$char_traits@D@std@@V?$allocator@D@2@@std@@QAE@XZ
	mov	BYTE PTR __$EHRec$[ebp+8], 1
	mov	edx, DWORD PTR _this$[ebp]
	add	edx, 72					; 00000048H
	mov	DWORD PTR $T235121[ebp], edx
	mov	ecx, DWORD PTR $T235121[ebp]
	call	DWORD PTR __imp_??0?$basic_string@DU?$char_traits@D@std@@V?$allocator@D@2@@std@@QAE@XZ
	mov	BYTE PTR __$EHRec$[ebp+8], 2
	mov	eax, DWORD PTR _this$[ebp]
	add	eax, 100				; 00000064H
	mov	DWORD PTR $T235126[ebp], eax
	mov	ecx, DWORD PTR $T235126[ebp]
	call	DWORD PTR __imp_??0?$basic_string@DU?$char_traits@D@std@@V?$allocator@D@2@@std@@QAE@XZ
	mov	DWORD PTR __$EHRec$[ebp+8], -1
	mov	eax, DWORD PTR _this$[ebp]
	mov	ecx, DWORD PTR __$EHRec$[ebp]
	mov	DWORD PTR fs:0, ecx
	pop	ecx
	mov	esp, ebp
	pop	ebp
	ret	0
_TEXT	ENDS
;	COMDAT text$x
text$x	SEGMENT
__unwindfunclet$??0PlayerInfo@CvReplayInfo@@QAE@XZ$0:
	mov	ecx, DWORD PTR _this$[ebp]
	add	ecx, 16					; 00000010H
	jmp	??1CvString@@QAE@XZ			; CvString::~CvString
__unwindfunclet$??0PlayerInfo@CvReplayInfo@@QAE@XZ$1:
	mov	ecx, DWORD PTR _this$[ebp]
	add	ecx, 44					; 0000002cH
	jmp	??1CvString@@QAE@XZ			; CvString::~CvString
__unwindfunclet$??0PlayerInfo@CvReplayInfo@@QAE@XZ$2:
	mov	ecx, DWORD PTR _this$[ebp]
	add	ecx, 72					; 00000048H
	jmp	??1CvString@@QAE@XZ			; CvString::~CvString
__ehhandler$??0PlayerInfo@CvReplayInfo@@QAE@XZ:
	mov	edx, DWORD PTR [esp+8]
	lea	eax, DWORD PTR [edx+12]
	mov	ecx, DWORD PTR [edx-24]
	xor	ecx, eax
	call	@__security_check_cookie@4
	mov	eax, OFFSET __ehfuncinfo$??0PlayerInfo@CvReplayInfo@@QAE@XZ
	jmp	___CxxFrameHandler3
text$x	ENDS
??0PlayerInfo@CvReplayInfo@@QAE@XZ ENDP			; CvReplayInfo::PlayerInfo::PlayerInfo
;	COMDAT xdata$x
xdata$x	SEGMENT
__unwindtable$??1PlayerInfo@CvReplayInfo@@QAE@XZ DD 0ffffffffH
	DD	FLAT:__unwindfunclet$??1PlayerInfo@CvReplayInfo@@QAE@XZ$0
	DD	00H
	DD	FLAT:__unwindfunclet$??1PlayerInfo@CvReplayInfo@@QAE@XZ$1
	DD	01H
	DD	FLAT:__unwindfunclet$??1PlayerInfo@CvReplayInfo@@QAE@XZ$2
__ehfuncinfo$??1PlayerInfo@CvReplayInfo@@QAE@XZ DD 019930522H
	DD	03H
	DD	FLAT:__unwindtable$??1PlayerInfo@CvReplayInfo@@QAE@XZ
	DD	2 DUP(00H)
	DD	2 DUP(00H)
	DD	00H
	DD	01H
; Function compile flags: /Odtp
xdata$x	ENDS
;	COMDAT ??1PlayerInfo@CvReplayInfo@@QAE@XZ
_TEXT	SEGMENT
_this$ = -32						; size = 4
$T235158 = -28						; size = 4
$T235153 = -24						; size = 4
$T235148 = -20						; size = 4
$T235143 = -16						; size = 4
__$EHRec$ = -12						; size = 12
??1PlayerInfo@CvReplayInfo@@QAE@XZ PROC			; CvReplayInfo::PlayerInfo::~PlayerInfo, COMDAT
; _this$ = ecx
	push	ebp
	mov	ebp, esp
	push	-1
	push	__ehhandler$??1PlayerInfo@CvReplayInfo@@QAE@XZ
	mov	eax, DWORD PTR fs:0
	push	eax
	sub	esp, 20					; 00000014H
	mov	eax, DWORD PTR ___security_cookie
	xor	eax, ebp
	push	eax
	lea	eax, DWORD PTR __$EHRec$[ebp]
	mov	DWORD PTR fs:0, eax
	mov	DWORD PTR _this$[ebp], ecx
	mov	DWORD PTR __$EHRec$[ebp+8], 2
	mov	eax, DWORD PTR _this$[ebp]
	add	eax, 100				; 00000064H
	mov	DWORD PTR $T235143[ebp], eax
	mov	ecx, DWORD PTR $T235143[ebp]
	call	DWORD PTR __imp_??1?$basic_string@DU?$char_traits@D@std@@V?$allocator@D@2@@std@@QAE@XZ
	mov	BYTE PTR __$EHRec$[ebp+8], 1
	mov	ecx, DWORD PTR _this$[ebp]
	add	ecx, 72					; 00000048H
	mov	DWORD PTR $T235148[ebp], ecx
	mov	ecx, DWORD PTR $T235148[ebp]
	call	DWORD PTR __imp_??1?$basic_string@DU?$char_traits@D@std@@V?$allocator@D@2@@std@@QAE@XZ
	mov	BYTE PTR __$EHRec$[ebp+8], 0
	mov	edx, DWORD PTR _this$[ebp]
	add	edx, 44					; 0000002cH
	mov	DWORD PTR $T235153[ebp], edx
	mov	ecx, DWORD PTR $T235153[ebp]
	call	DWORD PTR __imp_??1?$basic_string@DU?$char_traits@D@std@@V?$allocator@D@2@@std@@QAE@XZ
	mov	DWORD PTR __$EHRec$[ebp+8], -1
	mov	eax, DWORD PTR _this$[ebp]
	add	eax, 16					; 00000010H
	mov	DWORD PTR $T235158[ebp], eax
	mov	ecx, DWORD PTR $T235158[ebp]
	call	DWORD PTR __imp_??1?$basic_string@DU?$char_traits@D@std@@V?$allocator@D@2@@std@@QAE@XZ
	mov	ecx, DWORD PTR __$EHRec$[ebp]
	mov	DWORD PTR fs:0, ecx
	pop	ecx
	mov	esp, ebp
	pop	ebp
	ret	0
_TEXT	ENDS
;	COMDAT text$x
text$x	SEGMENT
__unwindfunclet$??1PlayerInfo@CvReplayInfo@@QAE@XZ$0:
	mov	ecx, DWORD PTR _this$[ebp]
	add	ecx, 16					; 00000010H
	jmp	??1CvString@@QAE@XZ			; CvString::~CvString
__unwindfunclet$??1PlayerInfo@CvReplayInfo@@QAE@XZ$1:
	mov	ecx, DWORD PTR _this$[ebp]
	add	ecx, 44					; 0000002cH
	jmp	??1CvString@@QAE@XZ			; CvString::~CvString
__unwindfunclet$??1PlayerInfo@CvReplayInfo@@QAE@XZ$2:
	mov	ecx, DWORD PTR _this$[ebp]
	add	ecx, 72					; 00000048H
	jmp	??1CvString@@QAE@XZ			; CvString::~CvString
__ehhandler$??1PlayerInfo@CvReplayInfo@@QAE@XZ:
	mov	edx, DWORD PTR [esp+8]
	lea	eax, DWORD PTR [edx+12]
	mov	ecx, DWORD PTR [edx-24]
	xor	ecx, eax
	call	@__security_check_cookie@4
	mov	eax, OFFSET __ehfuncinfo$??1PlayerInfo@CvReplayInfo@@QAE@XZ
	jmp	___CxxFrameHandler3
text$x	ENDS
??1PlayerInfo@CvReplayInfo@@QAE@XZ ENDP			; CvReplayInfo::PlayerInfo::~PlayerInfo
;	COMDAT xdata$x
xdata$x	SEGMENT
__unwindtable$??1?$map@IHU?$less@I@std@@V?$allocator@U?$pair@$$CBIH@std@@@2@@std@@QAE@XZ DD 0ffffffffH
	DD	FLAT:__unwindfunclet$??1?$map@IHU?$less@I@std@@V?$allocator@U?$pair@$$CBIH@std@@@2@@std@@QAE@XZ$1
__ehfuncinfo$??1?$map@IHU?$less@I@std@@V?$allocator@U?$pair@$$CBIH@std@@@2@@std@@QAE@XZ DD 019930522H
	DD	01H
	DD	FLAT:__unwindtable$??1?$map@IHU?$less@I@std@@V?$allocator@U?$pair@$$CBIH@std@@@2@@std@@QAE@XZ
	DD	2 DUP(00H)
	DD	2 DUP(00H)
	DD	00H
	DD	01H
; Function compile flags: /Odtp
xdata$x	ENDS
;	COMDAT ??1?$map@IHU?$less@I@std@@V?$allocator@U?$pair@$$CBIH@std@@@2@@std@@QAE@XZ
_TEXT	SEGMENT
_this$ = -100						; size = 4
__$EHRec$ = -12						; size = 12
??1?$map@IHU?$less@I@std@@V?$allocator@U?$pair@$$CBIH@std@@@2@@std@@QAE@XZ PROC ; std::map<unsigned int,int,std::less<unsigned int>,std::allocator<std::pair<unsigned int const ,int> > >::~map<unsigned int,int,std::less<unsigned int>,std::allocator<std::pair<unsigned int const ,int> > >, COMDAT
; _this$ = ecx
	push	ebp
	mov	ebp, esp
	push	-1
	push	__ehhandler$??1?$map@IHU?$less@I@std@@V?$allocator@U?$pair@$$CBIH@std@@@2@@std@@QAE@XZ
	mov	eax, DWORD PTR fs:0
	push	eax
	sub	esp, 88					; 00000058H
	mov	eax, DWORD PTR ___security_cookie
	xor	eax, ebp
	push	eax
	lea	eax, DWORD PTR __$EHRec$[ebp]
	mov	DWORD PTR fs:0, eax
	mov	DWORD PTR _this$[ebp], ecx
	mov	DWORD PTR __$EHRec$[ebp+8], 0
	mov	ecx, DWORD PTR _this$[ebp]
	call	?_Tidy@?$_Tree@V?$_Tmap_traits@IHU?$less@I@std@@V?$allocator@U?$pair@$$CBIH@std@@@2@$0A@@std@@@std@@IAEXXZ ; std::_Tree<std::_Tmap_traits<unsigned int,int,std::less<unsigned int>,std::allocator<std::pair<unsigned int const ,int> >,0> >::_Tidy
	mov	DWORD PTR __$EHRec$[ebp+8], -1
	mov	ecx, DWORD PTR __$EHRec$[ebp]
	mov	DWORD PTR fs:0, ecx
	pop	ecx
	mov	esp, ebp
	pop	ebp
	ret	0
_TEXT	ENDS
;	COMDAT text$x
text$x	SEGMENT
__unwindfunclet$??1?$map@IHU?$less@I@std@@V?$allocator@U?$pair@$$CBIH@std@@@2@@std@@QAE@XZ$1:
	mov	ecx, DWORD PTR _this$[ebp]
	jmp	??1?$_Tree_val@V?$_Tmap_traits@IHU?$less@I@std@@V?$allocator@U?$pair@$$CBIH@std@@@2@$0A@@std@@@std@@QAE@XZ
__ehhandler$??1?$map@IHU?$less@I@std@@V?$allocator@U?$pair@$$CBIH@std@@@2@@std@@QAE@XZ:
	mov	edx, DWORD PTR [esp+8]
	lea	eax, DWORD PTR [edx+12]
	mov	ecx, DWORD PTR [edx-92]
	xor	ecx, eax
	call	@__security_check_cookie@4
	mov	eax, OFFSET __ehfuncinfo$??1?$map@IHU?$less@I@std@@V?$allocator@U?$pair@$$CBIH@std@@@2@@std@@QAE@XZ
	jmp	___CxxFrameHandler3
text$x	ENDS
??1?$map@IHU?$less@I@std@@V?$allocator@U?$pair@$$CBIH@std@@@2@@std@@QAE@XZ ENDP ; std::map<unsigned int,int,std::less<unsigned int>,std::allocator<std::pair<unsigned int const ,int> > >::~map<unsigned int,int,std::less<unsigned int>,std::allocator<std::pair<unsigned int const ,int> > >
PUBLIC	??1?$vector@U?$pair@FF@std@@V?$allocator@U?$pair@FF@std@@@2@@std@@QAE@XZ ; std::vector<std::pair<short,short>,std::allocator<std::pair<short,short> > >::~vector<std::pair<short,short>,std::allocator<std::pair<short,short> > >
PUBLIC	??0?$vector@U?$pair@FF@std@@V?$allocator@U?$pair@FF@std@@@2@@std@@QAE@ABV01@@Z ; std::vector<std::pair<short,short>,std::allocator<std::pair<short,short> > >::vector<std::pair<short,short>,std::allocator<std::pair<short,short> > >
PUBLIC	??_7CvReplayMessage@@6B@			; CvReplayMessage::`vftable'
EXTRN	__imp_??0?$basic_string@DU?$char_traits@D@std@@V?$allocator@D@2@@std@@QAE@ABV01@@Z:PROC
EXTRN	??_ECvReplayMessage@@UAEPAXI@Z:PROC		; CvReplayMessage::`vector deleting destructor'
;	COMDAT ??_7CvReplayMessage@@6B@
CONST	SEGMENT
??_7CvReplayMessage@@6B@ DD FLAT:??_ECvReplayMessage@@UAEPAXI@Z ; CvReplayMessage::`vftable'
CONST	ENDS
;	COMDAT xdata$x
xdata$x	SEGMENT
__unwindtable$??0CvReplayMessage@@QAE@ABV0@@Z DD 0ffffffffH
	DD	FLAT:__unwindfunclet$??0CvReplayMessage@@QAE@ABV0@@Z$0
__ehfuncinfo$??0CvReplayMessage@@QAE@ABV0@@Z DD 019930522H
	DD	01H
	DD	FLAT:__unwindtable$??0CvReplayMessage@@QAE@ABV0@@Z
	DD	2 DUP(00H)
	DD	2 DUP(00H)
	DD	00H
	DD	01H
; Function compile flags: /Odtp
xdata$x	ENDS
;	COMDAT ??0CvReplayMessage@@QAE@ABV0@@Z
_TEXT	SEGMENT
_this$ = -20						; size = 4
$T235443 = -16						; size = 4
__$EHRec$ = -12						; size = 12
___that$ = 8						; size = 4
??0CvReplayMessage@@QAE@ABV0@@Z PROC			; CvReplayMessage::CvReplayMessage, COMDAT
; _this$ = ecx
	push	ebp
	mov	ebp, esp
	push	-1
	push	__ehhandler$??0CvReplayMessage@@QAE@ABV0@@Z
	mov	eax, DWORD PTR fs:0
	push	eax
	sub	esp, 8
	mov	eax, DWORD PTR ___security_cookie
	xor	eax, ebp
	push	eax
	lea	eax, DWORD PTR __$EHRec$[ebp]
	mov	DWORD PTR fs:0, eax
	mov	DWORD PTR _this$[ebp], ecx
	mov	eax, DWORD PTR _this$[ebp]
	mov	DWORD PTR [eax], OFFSET ??_7CvReplayMessage@@6B@
	mov	ecx, DWORD PTR _this$[ebp]
	mov	edx, DWORD PTR ___that$[ebp]
	mov	eax, DWORD PTR [edx+4]
	mov	DWORD PTR [ecx+4], eax
	mov	ecx, DWORD PTR _this$[ebp]
	mov	edx, DWORD PTR ___that$[ebp]
	mov	eax, DWORD PTR [edx+8]
	mov	DWORD PTR [ecx+8], eax
	mov	ecx, DWORD PTR ___that$[ebp]
	add	ecx, 12					; 0000000cH
	push	ecx
	mov	ecx, DWORD PTR _this$[ebp]
	add	ecx, 12					; 0000000cH
	call	??0?$vector@U?$pair@FF@std@@V?$allocator@U?$pair@FF@std@@@2@@std@@QAE@ABV01@@Z ; std::vector<std::pair<short,short>,std::allocator<std::pair<short,short> > >::vector<std::pair<short,short>,std::allocator<std::pair<short,short> > >
	mov	DWORD PTR __$EHRec$[ebp+8], 0
	mov	edx, DWORD PTR _this$[ebp]
	mov	eax, DWORD PTR ___that$[ebp]
	mov	ecx, DWORD PTR [eax+28]
	mov	DWORD PTR [edx+28], ecx
	mov	edx, DWORD PTR _this$[ebp]
	add	edx, 32					; 00000020H
	mov	DWORD PTR $T235443[ebp], edx
	mov	eax, DWORD PTR ___that$[ebp]
	add	eax, 32					; 00000020H
	push	eax
	mov	ecx, DWORD PTR $T235443[ebp]
	call	DWORD PTR __imp_??0?$basic_string@DU?$char_traits@D@std@@V?$allocator@D@2@@std@@QAE@ABV01@@Z
	mov	DWORD PTR __$EHRec$[ebp+8], -1
	mov	eax, DWORD PTR _this$[ebp]
	mov	ecx, DWORD PTR __$EHRec$[ebp]
	mov	DWORD PTR fs:0, ecx
	pop	ecx
	mov	esp, ebp
	pop	ebp
	ret	4
_TEXT	ENDS
;	COMDAT text$x
text$x	SEGMENT
__unwindfunclet$??0CvReplayMessage@@QAE@ABV0@@Z$0:
	mov	ecx, DWORD PTR _this$[ebp]
	add	ecx, 12					; 0000000cH
	jmp	??1?$vector@U?$pair@FF@std@@V?$allocator@U?$pair@FF@std@@@2@@std@@QAE@XZ ; std::vector<std::pair<short,short>,std::allocator<std::pair<short,short> > >::~vector<std::pair<short,short>,std::allocator<std::pair<short,short> > >
__ehhandler$??0CvReplayMessage@@QAE@ABV0@@Z:
	mov	edx, DWORD PTR [esp+8]
	lea	eax, DWORD PTR [edx+12]
	mov	ecx, DWORD PTR [edx-12]
	xor	ecx, eax
	call	@__security_check_cookie@4
	mov	eax, OFFSET __ehfuncinfo$??0CvReplayMessage@@QAE@ABV0@@Z
	jmp	___CxxFrameHandler3
text$x	ENDS
??0CvReplayMessage@@QAE@ABV0@@Z ENDP			; CvReplayMessage::CvReplayMessage
;	COMDAT xdata$x
xdata$x	SEGMENT
__unwindtable$??1?$map@IUPlotState@CvReplayInfo@@U?$less@I@std@@V?$allocator@U?$pair@$$CBIUPlotState@CvReplayInfo@@@std@@@4@@std@@QAE@XZ DD 0ffffffffH
	DD	FLAT:__unwindfunclet$??1?$map@IUPlotState@CvReplayInfo@@U?$less@I@std@@V?$allocator@U?$pair@$$CBIUPlotState@CvReplayInfo@@@std@@@4@@std@@QAE@XZ$1
__ehfuncinfo$??1?$map@IUPlotState@CvReplayInfo@@U?$less@I@std@@V?$allocator@U?$pair@$$CBIUPlotState@CvReplayInfo@@@std@@@4@@std@@QAE@XZ DD 019930522H
	DD	01H
	DD	FLAT:__unwindtable$??1?$map@IUPlotState@CvReplayInfo@@U?$less@I@std@@V?$allocator@U?$pair@$$CBIUPlotState@CvReplayInfo@@@std@@@4@@std@@QAE@XZ
	DD	2 DUP(00H)
	DD	2 DUP(00H)
	DD	00H
	DD	01H
; Function compile flags: /Odtp
xdata$x	ENDS
;	COMDAT ??1?$map@IUPlotState@CvReplayInfo@@U?$less@I@std@@V?$allocator@U?$pair@$$CBIUPlotState@CvReplayInfo@@@std@@@4@@std@@QAE@XZ
_TEXT	SEGMENT
_this$ = -100						; size = 4
__$EHRec$ = -12						; size = 12
??1?$map@IUPlotState@CvReplayInfo@@U?$less@I@std@@V?$allocator@U?$pair@$$CBIUPlotState@CvReplayInfo@@@std@@@4@@std@@QAE@XZ PROC ; std::map<unsigned int,CvReplayInfo::PlotState,std::less<unsigned int>,std::allocator<std::pair<unsigned int const ,CvReplayInfo::PlotState> > >::~map<unsigned int,CvReplayInfo::PlotState,std::less<unsigned int>,std::allocator<std::pair<unsigned int const ,CvReplayInfo::PlotState> > >, COMDAT
; _this$ = ecx
	push	ebp
	mov	ebp, esp
	push	-1
	push	__ehhandler$??1?$map@IUPlotState@CvReplayInfo@@U?$less@I@std@@V?$allocator@U?$pair@$$CBIUPlotState@CvReplayInfo@@@std@@@4@@std@@QAE@XZ
	mov	eax, DWORD PTR fs:0
	push	eax
	sub	esp, 88					; 00000058H
	mov	eax, DWORD PTR ___security_cookie
	xor	eax, ebp
	push	eax
	lea	eax, DWORD PTR __$EHRec$[ebp]
	mov	DWORD PTR fs:0, eax
	mov	DWORD PTR _this$[ebp], ecx
	mov	DWORD PTR __$EHRec$[ebp+8], 0
	mov	ecx, DWORD PTR _this$[ebp]
	call	?_Tidy@?$_Tree@V?$_Tmap_traits@IUPlotState@CvReplayInfo@@U?$less@I@std@@V?$allocator@U?$pair@$$CBIUPlotState@CvReplayInfo@@@std@@@4@$0A@@std@@@std@@IAEXXZ ; std::_Tree<std::_Tmap_traits<unsigned int,CvReplayInfo::PlotState,std::less<unsigned int>,std::allocator<std::pair<unsigned int const ,CvReplayInfo::PlotState> >,0> >::_Tidy
	mov	DWORD PTR __$EHRec$[ebp+8], -1
	mov	ecx, DWORD PTR __$EHRec$[ebp]
	mov	DWORD PTR fs:0, ecx
	pop	ecx
	mov	esp, ebp
	pop	ebp
	ret	0
_TEXT	ENDS
;	COMDAT text$x
text$x	SEGMENT
__unwindfunclet$??1?$map@IUPlotState@CvReplayInfo@@U?$less@I@std@@V?$allocator@U?$pair@$$CBIUPlotState@CvReplayInfo@@@std@@@4@@std@@QAE@XZ$1:
	mov	ecx, DWORD PTR _this$[ebp]
	jmp	??1?$_Tree_val@V?$_Tmap_traits@IUPlotState@CvReplayInfo@@U?$less@I@std@@V?$allocator@U?$pair@$$CBIUPlotState@CvReplayInfo@@@std@@@4@$0A@@std@@@std@@QAE@XZ
__ehhandler$??1?$map@IUPlotState@CvReplayInfo@@U?$less@I@std@@V?$allocator@U?$pair@$$CBIUPlotState@CvReplayInfo@@@std@@@4@@std@@QAE@XZ:
	mov	edx, DWORD PTR [esp+8]
	lea	eax, DWORD PTR [edx+12]
	mov	ecx, DWORD PTR [edx-92]
	xor	ecx, eax
	call	@__security_check_cookie@4
	mov	eax, OFFSET __ehfuncinfo$??1?$map@IUPlotState@CvReplayInfo@@U?$less@I@std@@V?$allocator@U?$pair@$$CBIUPlotState@CvReplayInfo@@@std@@@4@@std@@QAE@XZ
	jmp	___CxxFrameHandler3
text$x	ENDS
??1?$map@IUPlotState@CvReplayInfo@@U?$less@I@std@@V?$allocator@U?$pair@$$CBIUPlotState@CvReplayInfo@@@std@@@4@@std@@QAE@XZ ENDP ; std::map<unsigned int,CvReplayInfo::PlotState,std::less<unsigned int>,std::allocator<std::pair<unsigned int const ,CvReplayInfo::PlotState> > >::~map<unsigned int,CvReplayInfo::PlotState,std::less<unsigned int>,std::allocator<std::pair<unsigned int const ,CvReplayInfo::PlotState> > >
; Function compile flags: /Odtp
;	COMDAT ??_GCvReplayMessage@@UAEPAXI@Z
_TEXT	SEGMENT
_this$ = -4						; size = 4
___flags$ = 8						; size = 4
??_GCvReplayMessage@@UAEPAXI@Z PROC			; CvReplayMessage::`scalar deleting destructor', COMDAT
; _this$ = ecx
	push	ebp
	mov	ebp, esp
	push	ecx
	mov	DWORD PTR _this$[ebp], ecx
	mov	ecx, DWORD PTR _this$[ebp]
	call	??1CvReplayMessage@@UAE@XZ		; CvReplayMessage::~CvReplayMessage
	mov	eax, DWORD PTR ___flags$[ebp]
	and	eax, 1
	je	SHORT $LN1@scalar@2
	mov	ecx, DWORD PTR _this$[ebp]
	push	ecx
	call	??3@YAXPAX@Z				; operator delete
	add	esp, 4
$LN1@scalar@2:
	mov	eax, DWORD PTR _this$[ebp]
	mov	esp, ebp
	pop	ebp
	ret	4
??_GCvReplayMessage@@UAEPAXI@Z ENDP			; CvReplayMessage::`scalar deleting destructor'
_TEXT	ENDS
PUBLIC	?getNumPlayers@CvReplayInfo@@QBEHXZ		; CvReplayInfo::getNumPlayers
; Function compile flags: /Odtp
;	COMDAT ?getNumPlayers@CvReplayInfo@@QBEHXZ
_TEXT	SEGMENT
_this$ = -8						; size = 4
$T235727 = -4						; size = 4
?getNumPlayers@CvReplayInfo@@QBEHXZ PROC		; CvReplayInfo::getNumPlayers, COMDAT
; _this$ = ecx

; 249  : {

	push	ebp
	mov	ebp, esp
	sub	esp, 8
	mov	DWORD PTR _this$[ebp], ecx

; 250  : 	return (int)m_listPlayerInfo.size();

	mov	eax, DWORD PTR _this$[ebp]
	add	eax, 144				; 00000090H
	mov	DWORD PTR $T235727[ebp], eax
	mov	ecx, DWORD PTR $T235727[ebp]
	mov	edx, DWORD PTR $T235727[ebp]
	mov	eax, DWORD PTR [ecx+8]
	sub	eax, DWORD PTR [edx+4]
	sar	eax, 7

; 251  : }

	mov	esp, ebp
	pop	ebp
	ret	0
?getNumPlayers@CvReplayInfo@@QBEHXZ ENDP		; CvReplayInfo::getNumPlayers
_TEXT	ENDS
PUBLIC	?isValidPlayer@CvReplayInfo@@IBE_NH@Z		; CvReplayInfo::isValidPlayer
; Function compile flags: /Odtp
;	COMDAT ?isValidPlayer@CvReplayInfo@@IBE_NH@Z
_TEXT	SEGMENT
tv69 = -12						; size = 4
_this$ = -8						; size = 4
$T235735 = -4						; size = 4
_i$ = 8							; size = 4
?isValidPlayer@CvReplayInfo@@IBE_NH@Z PROC		; CvReplayInfo::isValidPlayer, COMDAT
; _this$ = ecx

; 255  : {

	push	ebp
	mov	ebp, esp
	sub	esp, 12					; 0000000cH
	mov	DWORD PTR _this$[ebp], ecx

; 256  : 	return (i >= 0 && i < (int)m_listPlayerInfo.size());

	cmp	DWORD PTR _i$[ebp], 0
	jl	SHORT $LN3@isValidPla
	mov	eax, DWORD PTR _this$[ebp]
	add	eax, 144				; 00000090H
	mov	DWORD PTR $T235735[ebp], eax
	mov	ecx, DWORD PTR $T235735[ebp]
	mov	edx, DWORD PTR $T235735[ebp]
	mov	eax, DWORD PTR [ecx+8]
	sub	eax, DWORD PTR [edx+4]
	sar	eax, 7
	cmp	DWORD PTR _i$[ebp], eax
	jge	SHORT $LN3@isValidPla
	mov	DWORD PTR tv69[ebp], 1
	jmp	SHORT $LN4@isValidPla
$LN3@isValidPla:
	mov	DWORD PTR tv69[ebp], 0
$LN4@isValidPla:
	mov	al, BYTE PTR tv69[ebp]

; 257  : }

	mov	esp, ebp
	pop	ebp
	ret	4
?isValidPlayer@CvReplayInfo@@IBE_NH@Z ENDP		; CvReplayInfo::isValidPlayer
_TEXT	ENDS
PUBLIC	?isValidTurn@CvReplayInfo@@IBE_NH@Z		; CvReplayInfo::isValidTurn
; Function compile flags: /Odtp
;	COMDAT ?isValidTurn@CvReplayInfo@@IBE_NH@Z
_TEXT	SEGMENT
tv68 = -8						; size = 4
_this$ = -4						; size = 4
_i$ = 8							; size = 4
?isValidTurn@CvReplayInfo@@IBE_NH@Z PROC		; CvReplayInfo::isValidTurn, COMDAT
; _this$ = ecx

; 260  : {

	push	ebp
	mov	ebp, esp
	sub	esp, 8
	mov	DWORD PTR _this$[ebp], ecx

; 261  : 	return (i >= m_iInitialTurn && i <= m_iFinalTurn);

	mov	eax, DWORD PTR _this$[ebp]
	mov	ecx, DWORD PTR _i$[ebp]
	cmp	ecx, DWORD PTR [eax+96]
	jl	SHORT $LN3@isValidTur
	mov	edx, DWORD PTR _this$[ebp]
	mov	eax, DWORD PTR _i$[ebp]
	cmp	eax, DWORD PTR [edx+100]
	jg	SHORT $LN3@isValidTur
	mov	DWORD PTR tv68[ebp], 1
	jmp	SHORT $LN4@isValidTur
$LN3@isValidTur:
	mov	DWORD PTR tv68[ebp], 0
$LN4@isValidTur:
	mov	al, BYTE PTR tv68[ebp]

; 262  : }

	mov	esp, ebp
	pop	ebp
	ret	4
?isValidTurn@CvReplayInfo@@IBE_NH@Z ENDP		; CvReplayInfo::isValidTurn
_TEXT	ENDS
PUBLIC	?getActivePlayer@CvReplayInfo@@QBEHXZ		; CvReplayInfo::getActivePlayer
; Function compile flags: /Odtp
;	COMDAT ?getActivePlayer@CvReplayInfo@@QBEHXZ
_TEXT	SEGMENT
_this$ = -4						; size = 4
?getActivePlayer@CvReplayInfo@@QBEHXZ PROC		; CvReplayInfo::getActivePlayer, COMDAT
; _this$ = ecx

; 265  : {

	push	ebp
	mov	ebp, esp
	push	ecx
	mov	DWORD PTR _this$[ebp], ecx

; 266  : 	return m_iActivePlayer;

	mov	eax, DWORD PTR _this$[ebp]
	mov	eax, DWORD PTR [eax+4]

; 267  : }

	mov	esp, ebp
	pop	ebp
	ret	0
?getActivePlayer@CvReplayInfo@@QBEHXZ ENDP		; CvReplayInfo::getActivePlayer
_TEXT	ENDS
PUBLIC	?getPlayerCivilization@CvReplayInfo@@QBE?AW4CivilizationTypes@@H@Z ; CvReplayInfo::getPlayerCivilization
; Function compile flags: /Odtp
;	COMDAT ?getPlayerCivilization@CvReplayInfo@@QBE?AW4CivilizationTypes@@H@Z
_TEXT	SEGMENT
_this$ = -8						; size = 4
$T235747 = -4						; size = 4
_iPlayer$ = 8						; size = 4
?getPlayerCivilization@CvReplayInfo@@QBE?AW4CivilizationTypes@@H@Z PROC ; CvReplayInfo::getPlayerCivilization, COMDAT
; _this$ = ecx

; 270  : {

	push	ebp
	mov	ebp, esp
	sub	esp, 8
	mov	DWORD PTR _this$[ebp], ecx

; 271  : 	if(iPlayer >= 0 && iPlayer < (int)m_listPlayerInfo.size())

	cmp	DWORD PTR _iPlayer$[ebp], 0
	jl	SHORT $LN1@getPlayerC
	mov	eax, DWORD PTR _this$[ebp]
	add	eax, 144				; 00000090H
	mov	DWORD PTR $T235747[ebp], eax
	mov	ecx, DWORD PTR $T235747[ebp]
	mov	edx, DWORD PTR $T235747[ebp]
	mov	eax, DWORD PTR [ecx+8]
	sub	eax, DWORD PTR [edx+4]
	sar	eax, 7
	cmp	DWORD PTR _iPlayer$[ebp], eax
	jge	SHORT $LN1@getPlayerC

; 272  : 	{
; 273  : 		return m_listPlayerInfo[iPlayer].m_eCivilization;

	mov	ecx, DWORD PTR _iPlayer$[ebp]
	shl	ecx, 7
	mov	edx, DWORD PTR _this$[ebp]
	mov	eax, DWORD PTR [edx+148]
	mov	eax, DWORD PTR [ecx+eax]
	jmp	SHORT $LN2@getPlayerC
$LN1@getPlayerC:

; 274  : 	}
; 275  : 
; 276  : 	return NO_CIVILIZATION;

	or	eax, -1
$LN2@getPlayerC:

; 277  : }

	mov	esp, ebp
	pop	ebp
	ret	4
?getPlayerCivilization@CvReplayInfo@@QBE?AW4CivilizationTypes@@H@Z ENDP ; CvReplayInfo::getPlayerCivilization
_TEXT	ENDS
PUBLIC	?getPlayerLeader@CvReplayInfo@@QBE?AW4LeaderHeadTypes@@H@Z ; CvReplayInfo::getPlayerLeader
; Function compile flags: /Odtp
;	COMDAT ?getPlayerLeader@CvReplayInfo@@QBE?AW4LeaderHeadTypes@@H@Z
_TEXT	SEGMENT
_this$ = -8						; size = 4
$T235756 = -4						; size = 4
_iPlayer$ = 8						; size = 4
?getPlayerLeader@CvReplayInfo@@QBE?AW4LeaderHeadTypes@@H@Z PROC ; CvReplayInfo::getPlayerLeader, COMDAT
; _this$ = ecx

; 280  : {

	push	ebp
	mov	ebp, esp
	sub	esp, 8
	mov	DWORD PTR _this$[ebp], ecx

; 281  : 	if(iPlayer >= 0 && iPlayer < (int)m_listPlayerInfo.size())

	cmp	DWORD PTR _iPlayer$[ebp], 0
	jl	SHORT $LN1@getPlayerL
	mov	eax, DWORD PTR _this$[ebp]
	add	eax, 144				; 00000090H
	mov	DWORD PTR $T235756[ebp], eax
	mov	ecx, DWORD PTR $T235756[ebp]
	mov	edx, DWORD PTR $T235756[ebp]
	mov	eax, DWORD PTR [ecx+8]
	sub	eax, DWORD PTR [edx+4]
	sar	eax, 7
	cmp	DWORD PTR _iPlayer$[ebp], eax
	jge	SHORT $LN1@getPlayerL

; 282  : 	{
; 283  : 		return m_listPlayerInfo[iPlayer].m_eLeader;

	mov	ecx, DWORD PTR _iPlayer$[ebp]
	shl	ecx, 7
	mov	edx, DWORD PTR _this$[ebp]
	mov	eax, DWORD PTR [edx+148]
	mov	eax, DWORD PTR [eax+ecx+4]
	jmp	SHORT $LN2@getPlayerL
$LN1@getPlayerL:

; 284  : 	}
; 285  : 
; 286  : 	return NO_LEADER;

	or	eax, -1
$LN2@getPlayerL:

; 287  : }

	mov	esp, ebp
	pop	ebp
	ret	4
?getPlayerLeader@CvReplayInfo@@QBE?AW4LeaderHeadTypes@@H@Z ENDP ; CvReplayInfo::getPlayerLeader
_TEXT	ENDS
PUBLIC	?getPlayerColor@CvReplayInfo@@QBE?AW4PlayerColorTypes@@H@Z ; CvReplayInfo::getPlayerColor
; Function compile flags: /Odtp
;	COMDAT ?getPlayerColor@CvReplayInfo@@QBE?AW4PlayerColorTypes@@H@Z
_TEXT	SEGMENT
_this$ = -8						; size = 4
$T235765 = -4						; size = 4
_iPlayer$ = 8						; size = 4
?getPlayerColor@CvReplayInfo@@QBE?AW4PlayerColorTypes@@H@Z PROC ; CvReplayInfo::getPlayerColor, COMDAT
; _this$ = ecx

; 290  : {

	push	ebp
	mov	ebp, esp
	sub	esp, 8
	mov	DWORD PTR _this$[ebp], ecx

; 291  : 	if(iPlayer >= 0 && iPlayer < (int)m_listPlayerInfo.size())

	cmp	DWORD PTR _iPlayer$[ebp], 0
	jl	SHORT $LN1@getPlayerC@2
	mov	eax, DWORD PTR _this$[ebp]
	add	eax, 144				; 00000090H
	mov	DWORD PTR $T235765[ebp], eax
	mov	ecx, DWORD PTR $T235765[ebp]
	mov	edx, DWORD PTR $T235765[ebp]
	mov	eax, DWORD PTR [ecx+8]
	sub	eax, DWORD PTR [edx+4]
	sar	eax, 7
	cmp	DWORD PTR _iPlayer$[ebp], eax
	jge	SHORT $LN1@getPlayerC@2

; 292  : 	{
; 293  : 		return m_listPlayerInfo[iPlayer].m_ePlayerColor;

	mov	ecx, DWORD PTR _iPlayer$[ebp]
	shl	ecx, 7
	mov	edx, DWORD PTR _this$[ebp]
	mov	eax, DWORD PTR [edx+148]
	mov	eax, DWORD PTR [eax+ecx+8]
	jmp	SHORT $LN2@getPlayerC@2
$LN1@getPlayerC@2:

; 294  : 	}
; 295  : 
; 296  : 	return NO_PLAYERCOLOR;

	or	eax, -1
$LN2@getPlayerC@2:

; 297  : }

	mov	esp, ebp
	pop	ebp
	ret	4
?getPlayerColor@CvReplayInfo@@QBE?AW4PlayerColorTypes@@H@Z ENDP ; CvReplayInfo::getPlayerColor
_TEXT	ENDS
PUBLIC	?getPlayerDifficulty@CvReplayInfo@@QBE?AW4HandicapTypes@@H@Z ; CvReplayInfo::getPlayerDifficulty
; Function compile flags: /Odtp
;	COMDAT ?getPlayerDifficulty@CvReplayInfo@@QBE?AW4HandicapTypes@@H@Z
_TEXT	SEGMENT
_this$ = -8						; size = 4
$T235774 = -4						; size = 4
_iPlayer$ = 8						; size = 4
?getPlayerDifficulty@CvReplayInfo@@QBE?AW4HandicapTypes@@H@Z PROC ; CvReplayInfo::getPlayerDifficulty, COMDAT
; _this$ = ecx

; 300  : {

	push	ebp
	mov	ebp, esp
	sub	esp, 8
	mov	DWORD PTR _this$[ebp], ecx

; 301  : 	if(iPlayer >= 0 && iPlayer < (int)m_listPlayerInfo.size())

	cmp	DWORD PTR _iPlayer$[ebp], 0
	jl	SHORT $LN1@getPlayerD
	mov	eax, DWORD PTR _this$[ebp]
	add	eax, 144				; 00000090H
	mov	DWORD PTR $T235774[ebp], eax
	mov	ecx, DWORD PTR $T235774[ebp]
	mov	edx, DWORD PTR $T235774[ebp]
	mov	eax, DWORD PTR [ecx+8]
	sub	eax, DWORD PTR [edx+4]
	sar	eax, 7
	cmp	DWORD PTR _iPlayer$[ebp], eax
	jge	SHORT $LN1@getPlayerD

; 302  : 	{
; 303  : 		return m_listPlayerInfo[iPlayer].m_eDifficulty;

	mov	ecx, DWORD PTR _iPlayer$[ebp]
	shl	ecx, 7
	mov	edx, DWORD PTR _this$[ebp]
	mov	eax, DWORD PTR [edx+148]
	mov	eax, DWORD PTR [eax+ecx+12]
	jmp	SHORT $LN2@getPlayerD
$LN1@getPlayerD:

; 304  : 	}
; 305  : 
; 306  : 	return NO_HANDICAP;

	or	eax, -1
$LN2@getPlayerD:

; 307  : }

	mov	esp, ebp
	pop	ebp
	ret	4
?getPlayerDifficulty@CvReplayInfo@@QBE?AW4HandicapTypes@@H@Z ENDP ; CvReplayInfo::getPlayerDifficulty
_TEXT	ENDS
PUBLIC	?getPlayerLeaderName@CvReplayInfo@@QBEPBDH@Z	; CvReplayInfo::getPlayerLeaderName
EXTRN	__imp_?c_str@?$basic_string@DU?$char_traits@D@std@@V?$allocator@D@2@@std@@QBEPBDXZ:PROC
; Function compile flags: /Odtp
;	COMDAT ?getPlayerLeaderName@CvReplayInfo@@QBEPBDH@Z
_TEXT	SEGMENT
_this$ = -12						; size = 4
$T235787 = -8						; size = 4
$T235783 = -4						; size = 4
_iPlayer$ = 8						; size = 4
?getPlayerLeaderName@CvReplayInfo@@QBEPBDH@Z PROC	; CvReplayInfo::getPlayerLeaderName, COMDAT
; _this$ = ecx

; 310  : {

	push	ebp
	mov	ebp, esp
	sub	esp, 12					; 0000000cH
	mov	DWORD PTR _this$[ebp], ecx

; 311  : 	if(iPlayer >= 0 && iPlayer < (int)m_listPlayerInfo.size())

	cmp	DWORD PTR _iPlayer$[ebp], 0
	jl	SHORT $LN1@getPlayerL@2
	mov	eax, DWORD PTR _this$[ebp]
	add	eax, 144				; 00000090H
	mov	DWORD PTR $T235783[ebp], eax
	mov	ecx, DWORD PTR $T235783[ebp]
	mov	edx, DWORD PTR $T235783[ebp]
	mov	eax, DWORD PTR [ecx+8]
	sub	eax, DWORD PTR [edx+4]
	sar	eax, 7
	cmp	DWORD PTR _iPlayer$[ebp], eax
	jge	SHORT $LN1@getPlayerL@2

; 312  : 	{
; 313  : 		return m_listPlayerInfo[iPlayer].m_strCustomLeaderName;

	mov	ecx, DWORD PTR _iPlayer$[ebp]
	shl	ecx, 7
	mov	edx, DWORD PTR _this$[ebp]
	add	ecx, DWORD PTR [edx+148]
	mov	DWORD PTR $T235787[ebp], ecx
	mov	ecx, DWORD PTR $T235787[ebp]
	add	ecx, 16					; 00000010H
	call	DWORD PTR __imp_?c_str@?$basic_string@DU?$char_traits@D@std@@V?$allocator@D@2@@std@@QBEPBDXZ
	jmp	SHORT $LN2@getPlayerL@2
$LN1@getPlayerL@2:

; 314  : 	}
; 315  : 
; 316  : 	return NULL;

	xor	eax, eax
$LN2@getPlayerL@2:

; 317  : }

	mov	esp, ebp
	pop	ebp
	ret	4
?getPlayerLeaderName@CvReplayInfo@@QBEPBDH@Z ENDP	; CvReplayInfo::getPlayerLeaderName
_TEXT	ENDS
PUBLIC	?getPlayerCivDescription@CvReplayInfo@@QBEPBDH@Z ; CvReplayInfo::getPlayerCivDescription
; Function compile flags: /Odtp
;	COMDAT ?getPlayerCivDescription@CvReplayInfo@@QBEPBDH@Z
_TEXT	SEGMENT
_this$ = -12						; size = 4
$T235800 = -8						; size = 4
$T235796 = -4						; size = 4
_iPlayer$ = 8						; size = 4
?getPlayerCivDescription@CvReplayInfo@@QBEPBDH@Z PROC	; CvReplayInfo::getPlayerCivDescription, COMDAT
; _this$ = ecx

; 320  : {

	push	ebp
	mov	ebp, esp
	sub	esp, 12					; 0000000cH
	mov	DWORD PTR _this$[ebp], ecx

; 321  : 	if(iPlayer >= 0 && iPlayer < (int)m_listPlayerInfo.size())

	cmp	DWORD PTR _iPlayer$[ebp], 0
	jl	SHORT $LN1@getPlayerC@3
	mov	eax, DWORD PTR _this$[ebp]
	add	eax, 144				; 00000090H
	mov	DWORD PTR $T235796[ebp], eax
	mov	ecx, DWORD PTR $T235796[ebp]
	mov	edx, DWORD PTR $T235796[ebp]
	mov	eax, DWORD PTR [ecx+8]
	sub	eax, DWORD PTR [edx+4]
	sar	eax, 7
	cmp	DWORD PTR _iPlayer$[ebp], eax
	jge	SHORT $LN1@getPlayerC@3

; 322  : 	{
; 323  : 		return m_listPlayerInfo[iPlayer].m_strCustomCivilizationName;

	mov	ecx, DWORD PTR _iPlayer$[ebp]
	shl	ecx, 7
	mov	edx, DWORD PTR _this$[ebp]
	add	ecx, DWORD PTR [edx+148]
	mov	DWORD PTR $T235800[ebp], ecx
	mov	ecx, DWORD PTR $T235800[ebp]
	add	ecx, 44					; 0000002cH
	call	DWORD PTR __imp_?c_str@?$basic_string@DU?$char_traits@D@std@@V?$allocator@D@2@@std@@QBEPBDXZ
	jmp	SHORT $LN2@getPlayerC@3
$LN1@getPlayerC@3:

; 324  : 	}
; 325  : 
; 326  : 	return NULL;

	xor	eax, eax
$LN2@getPlayerC@3:

; 327  : }

	mov	esp, ebp
	pop	ebp
	ret	4
?getPlayerCivDescription@CvReplayInfo@@QBEPBDH@Z ENDP	; CvReplayInfo::getPlayerCivDescription
_TEXT	ENDS
PUBLIC	?getPlayerShortCivDescription@CvReplayInfo@@QBEPBDH@Z ; CvReplayInfo::getPlayerShortCivDescription
; Function compile flags: /Odtp
;	COMDAT ?getPlayerShortCivDescription@CvReplayInfo@@QBEPBDH@Z
_TEXT	SEGMENT
_this$ = -12						; size = 4
$T235813 = -8						; size = 4
$T235809 = -4						; size = 4
_iPlayer$ = 8						; size = 4
?getPlayerShortCivDescription@CvReplayInfo@@QBEPBDH@Z PROC ; CvReplayInfo::getPlayerShortCivDescription, COMDAT
; _this$ = ecx

; 330  : {

	push	ebp
	mov	ebp, esp
	sub	esp, 12					; 0000000cH
	mov	DWORD PTR _this$[ebp], ecx

; 331  : 	if(iPlayer >= 0 && iPlayer < (int)m_listPlayerInfo.size())

	cmp	DWORD PTR _iPlayer$[ebp], 0
	jl	SHORT $LN1@getPlayerS
	mov	eax, DWORD PTR _this$[ebp]
	add	eax, 144				; 00000090H
	mov	DWORD PTR $T235809[ebp], eax
	mov	ecx, DWORD PTR $T235809[ebp]
	mov	edx, DWORD PTR $T235809[ebp]
	mov	eax, DWORD PTR [ecx+8]
	sub	eax, DWORD PTR [edx+4]
	sar	eax, 7
	cmp	DWORD PTR _iPlayer$[ebp], eax
	jge	SHORT $LN1@getPlayerS

; 332  : 	{
; 333  : 		return m_listPlayerInfo[iPlayer].m_strCustomCivilizationShortName;

	mov	ecx, DWORD PTR _iPlayer$[ebp]
	shl	ecx, 7
	mov	edx, DWORD PTR _this$[ebp]
	add	ecx, DWORD PTR [edx+148]
	mov	DWORD PTR $T235813[ebp], ecx
	mov	ecx, DWORD PTR $T235813[ebp]
	add	ecx, 72					; 00000048H
	call	DWORD PTR __imp_?c_str@?$basic_string@DU?$char_traits@D@std@@V?$allocator@D@2@@std@@QBEPBDXZ
	jmp	SHORT $LN2@getPlayerS
$LN1@getPlayerS:

; 334  : 	}
; 335  : 
; 336  : 	return NULL;

	xor	eax, eax
$LN2@getPlayerS:

; 337  : }

	mov	esp, ebp
	pop	ebp
	ret	4
?getPlayerShortCivDescription@CvReplayInfo@@QBEPBDH@Z ENDP ; CvReplayInfo::getPlayerShortCivDescription
_TEXT	ENDS
PUBLIC	?getPlayerCivAdjective@CvReplayInfo@@QBEPBDH@Z	; CvReplayInfo::getPlayerCivAdjective
; Function compile flags: /Odtp
;	COMDAT ?getPlayerCivAdjective@CvReplayInfo@@QBEPBDH@Z
_TEXT	SEGMENT
_this$ = -12						; size = 4
$T235826 = -8						; size = 4
$T235822 = -4						; size = 4
_iPlayer$ = 8						; size = 4
?getPlayerCivAdjective@CvReplayInfo@@QBEPBDH@Z PROC	; CvReplayInfo::getPlayerCivAdjective, COMDAT
; _this$ = ecx

; 340  : {

	push	ebp
	mov	ebp, esp
	sub	esp, 12					; 0000000cH
	mov	DWORD PTR _this$[ebp], ecx

; 341  : 	if(iPlayer >= 0 && iPlayer < (int)m_listPlayerInfo.size())

	cmp	DWORD PTR _iPlayer$[ebp], 0
	jl	SHORT $LN1@getPlayerC@4
	mov	eax, DWORD PTR _this$[ebp]
	add	eax, 144				; 00000090H
	mov	DWORD PTR $T235822[ebp], eax
	mov	ecx, DWORD PTR $T235822[ebp]
	mov	edx, DWORD PTR $T235822[ebp]
	mov	eax, DWORD PTR [ecx+8]
	sub	eax, DWORD PTR [edx+4]
	sar	eax, 7
	cmp	DWORD PTR _iPlayer$[ebp], eax
	jge	SHORT $LN1@getPlayerC@4

; 342  : 	{
; 343  : 		return m_listPlayerInfo[iPlayer].m_strCustomCivilizationAdjective;

	mov	ecx, DWORD PTR _iPlayer$[ebp]
	shl	ecx, 7
	mov	edx, DWORD PTR _this$[ebp]
	add	ecx, DWORD PTR [edx+148]
	mov	DWORD PTR $T235826[ebp], ecx
	mov	ecx, DWORD PTR $T235826[ebp]
	add	ecx, 100				; 00000064H
	call	DWORD PTR __imp_?c_str@?$basic_string@DU?$char_traits@D@std@@V?$allocator@D@2@@std@@QBEPBDXZ
	jmp	SHORT $LN2@getPlayerC@4
$LN1@getPlayerC@4:

; 344  : 	}
; 345  : 
; 346  : 	return NULL;

	xor	eax, eax
$LN2@getPlayerC@4:

; 347  : }

	mov	esp, ebp
	pop	ebp
	ret	4
?getPlayerCivAdjective@CvReplayInfo@@QBEPBDH@Z ENDP	; CvReplayInfo::getPlayerCivAdjective
_TEXT	ENDS
PUBLIC	?getMapScriptName@CvReplayInfo@@QBEABVCvString@@XZ ; CvReplayInfo::getMapScriptName
; Function compile flags: /Odtp
;	COMDAT ?getMapScriptName@CvReplayInfo@@QBEABVCvString@@XZ
_TEXT	SEGMENT
_this$ = -4						; size = 4
?getMapScriptName@CvReplayInfo@@QBEABVCvString@@XZ PROC	; CvReplayInfo::getMapScriptName, COMDAT
; _this$ = ecx

; 350  : {

	push	ebp
	mov	ebp, esp
	push	ecx
	mov	DWORD PTR _this$[ebp], ecx

; 351  : 	return m_strMapScriptName;

	mov	eax, DWORD PTR _this$[ebp]
	add	eax, 8

; 352  : }

	mov	esp, ebp
	pop	ebp
	ret	0
?getMapScriptName@CvReplayInfo@@QBEABVCvString@@XZ ENDP	; CvReplayInfo::getMapScriptName
_TEXT	ENDS
PUBLIC	?getWorldSize@CvReplayInfo@@QBE?AW4WorldSizeTypes@@XZ ; CvReplayInfo::getWorldSize
; Function compile flags: /Odtp
;	COMDAT ?getWorldSize@CvReplayInfo@@QBE?AW4WorldSizeTypes@@XZ
_TEXT	SEGMENT
_this$ = -4						; size = 4
?getWorldSize@CvReplayInfo@@QBE?AW4WorldSizeTypes@@XZ PROC ; CvReplayInfo::getWorldSize, COMDAT
; _this$ = ecx

; 355  : {

	push	ebp
	mov	ebp, esp
	push	ecx
	mov	DWORD PTR _this$[ebp], ecx

; 356  : 	return m_eWorldSize;

	mov	eax, DWORD PTR _this$[ebp]
	mov	eax, DWORD PTR [eax+36]

; 357  : }

	mov	esp, ebp
	pop	ebp
	ret	0
?getWorldSize@CvReplayInfo@@QBE?AW4WorldSizeTypes@@XZ ENDP ; CvReplayInfo::getWorldSize
_TEXT	ENDS
PUBLIC	?getClimate@CvReplayInfo@@QBE?AW4ClimateTypes@@XZ ; CvReplayInfo::getClimate
; Function compile flags: /Odtp
;	COMDAT ?getClimate@CvReplayInfo@@QBE?AW4ClimateTypes@@XZ
_TEXT	SEGMENT
_this$ = -4						; size = 4
?getClimate@CvReplayInfo@@QBE?AW4ClimateTypes@@XZ PROC	; CvReplayInfo::getClimate, COMDAT
; _this$ = ecx

; 360  : {

	push	ebp
	mov	ebp, esp
	push	ecx
	mov	DWORD PTR _this$[ebp], ecx

; 361  : 	return m_eClimate;

	mov	eax, DWORD PTR _this$[ebp]
	mov	eax, DWORD PTR [eax+40]

; 362  : }

	mov	esp, ebp
	pop	ebp
	ret	0
?getClimate@CvReplayInfo@@QBE?AW4ClimateTypes@@XZ ENDP	; CvReplayInfo::getClimate
_TEXT	ENDS
PUBLIC	?getSeaLevel@CvReplayInfo@@QBE?AW4SeaLevelTypes@@XZ ; CvReplayInfo::getSeaLevel
; Function compile flags: /Odtp
;	COMDAT ?getSeaLevel@CvReplayInfo@@QBE?AW4SeaLevelTypes@@XZ
_TEXT	SEGMENT
_this$ = -4						; size = 4
?getSeaLevel@CvReplayInfo@@QBE?AW4SeaLevelTypes@@XZ PROC ; CvReplayInfo::getSeaLevel, COMDAT
; _this$ = ecx

; 365  : {

	push	ebp
	mov	ebp, esp
	push	ecx
	mov	DWORD PTR _this$[ebp], ecx

; 366  : 	return m_eSeaLevel;

	mov	eax, DWORD PTR _this$[ebp]
	mov	eax, DWORD PTR [eax+44]

; 367  : }

	mov	esp, ebp
	pop	ebp
	ret	0
?getSeaLevel@CvReplayInfo@@QBE?AW4SeaLevelTypes@@XZ ENDP ; CvReplayInfo::getSeaLevel
_TEXT	ENDS
PUBLIC	?getEra@CvReplayInfo@@QBE?AW4EraTypes@@XZ	; CvReplayInfo::getEra
; Function compile flags: /Odtp
;	COMDAT ?getEra@CvReplayInfo@@QBE?AW4EraTypes@@XZ
_TEXT	SEGMENT
_this$ = -4						; size = 4
?getEra@CvReplayInfo@@QBE?AW4EraTypes@@XZ PROC		; CvReplayInfo::getEra, COMDAT
; _this$ = ecx

; 370  : {

	push	ebp
	mov	ebp, esp
	push	ecx
	mov	DWORD PTR _this$[ebp], ecx

; 371  : 	return m_eEra;

	mov	eax, DWORD PTR _this$[ebp]
	mov	eax, DWORD PTR [eax+48]

; 372  : }

	mov	esp, ebp
	pop	ebp
	ret	0
?getEra@CvReplayInfo@@QBE?AW4EraTypes@@XZ ENDP		; CvReplayInfo::getEra
_TEXT	ENDS
PUBLIC	?getGameSpeed@CvReplayInfo@@QBE?AW4GameSpeedTypes@@XZ ; CvReplayInfo::getGameSpeed
; Function compile flags: /Odtp
;	COMDAT ?getGameSpeed@CvReplayInfo@@QBE?AW4GameSpeedTypes@@XZ
_TEXT	SEGMENT
_this$ = -4						; size = 4
?getGameSpeed@CvReplayInfo@@QBE?AW4GameSpeedTypes@@XZ PROC ; CvReplayInfo::getGameSpeed, COMDAT
; _this$ = ecx

; 375  : {

	push	ebp
	mov	ebp, esp
	push	ecx
	mov	DWORD PTR _this$[ebp], ecx

; 376  : 	return m_eGameSpeed;

	mov	eax, DWORD PTR _this$[ebp]
	mov	eax, DWORD PTR [eax+52]

; 377  : }

	mov	esp, ebp
	pop	ebp
	ret	0
?getGameSpeed@CvReplayInfo@@QBE?AW4GameSpeedTypes@@XZ ENDP ; CvReplayInfo::getGameSpeed
_TEXT	ENDS
PUBLIC	?isGameOption@CvReplayInfo@@QBE_NW4GameOptionTypes@@@Z ; CvReplayInfo::isGameOption
; Function compile flags: /Odtp
;	COMDAT ?isGameOption@CvReplayInfo@@QBE_NW4GameOptionTypes@@@Z
_TEXT	SEGMENT
_this$ = -12						; size = 4
$T235847 = -8						; size = 4
_i$220605 = -4						; size = 4
_eOption$ = 8						; size = 4
?isGameOption@CvReplayInfo@@QBE_NW4GameOptionTypes@@@Z PROC ; CvReplayInfo::isGameOption, COMDAT
; _this$ = ecx

; 380  : {

	push	ebp
	mov	ebp, esp
	sub	esp, 12					; 0000000cH
	mov	DWORD PTR _this$[ebp], ecx

; 381  : 	for(uint i = 0; i < m_listGameOptions.size(); i++)

	mov	DWORD PTR _i$220605[ebp], 0
	jmp	SHORT $LN4@isGameOpti
$LN3@isGameOpti:
	mov	eax, DWORD PTR _i$220605[ebp]
	add	eax, 1
	mov	DWORD PTR _i$220605[ebp], eax
$LN4@isGameOpti:
	mov	ecx, DWORD PTR _this$[ebp]
	add	ecx, 56					; 00000038H
	mov	DWORD PTR $T235847[ebp], ecx
	mov	edx, DWORD PTR $T235847[ebp]
	mov	eax, DWORD PTR $T235847[ebp]
	mov	ecx, DWORD PTR [edx+8]
	sub	ecx, DWORD PTR [eax+4]
	sar	ecx, 2
	cmp	DWORD PTR _i$220605[ebp], ecx
	jae	SHORT $LN2@isGameOpti

; 382  : 	{
; 383  : 		if(m_listGameOptions[i] == eOption)

	mov	edx, DWORD PTR _this$[ebp]
	mov	eax, DWORD PTR [edx+60]
	mov	ecx, DWORD PTR _i$220605[ebp]
	mov	edx, DWORD PTR [eax+ecx*4]
	cmp	edx, DWORD PTR _eOption$[ebp]
	jne	SHORT $LN1@isGameOpti

; 384  : 		{
; 385  : 			return true;

	mov	al, 1
	jmp	SHORT $LN5@isGameOpti
$LN1@isGameOpti:

; 386  : 		}
; 387  : 	}

	jmp	SHORT $LN3@isGameOpti
$LN2@isGameOpti:

; 388  : 	return false;

	xor	al, al
$LN5@isGameOpti:

; 389  : }

	mov	esp, ebp
	pop	ebp
	ret	4
?isGameOption@CvReplayInfo@@QBE_NW4GameOptionTypes@@@Z ENDP ; CvReplayInfo::isGameOption
_TEXT	ENDS
PUBLIC	?isVictoryCondition@CvReplayInfo@@QBE_NW4VictoryTypes@@@Z ; CvReplayInfo::isVictoryCondition
; Function compile flags: /Odtp
;	COMDAT ?isVictoryCondition@CvReplayInfo@@QBE_NW4VictoryTypes@@@Z
_TEXT	SEGMENT
_this$ = -12						; size = 4
$T235856 = -8						; size = 4
_i$220614 = -4						; size = 4
_eVictory$ = 8						; size = 4
?isVictoryCondition@CvReplayInfo@@QBE_NW4VictoryTypes@@@Z PROC ; CvReplayInfo::isVictoryCondition, COMDAT
; _this$ = ecx

; 392  : {

	push	ebp
	mov	ebp, esp
	sub	esp, 12					; 0000000cH
	mov	DWORD PTR _this$[ebp], ecx

; 393  : 	for(uint i = 0; i < m_listVictoryTypes.size(); i++)

	mov	DWORD PTR _i$220614[ebp], 0
	jmp	SHORT $LN4@isVictoryC
$LN3@isVictoryC:
	mov	eax, DWORD PTR _i$220614[ebp]
	add	eax, 1
	mov	DWORD PTR _i$220614[ebp], eax
$LN4@isVictoryC:
	mov	ecx, DWORD PTR _this$[ebp]
	add	ecx, 72					; 00000048H
	mov	DWORD PTR $T235856[ebp], ecx
	mov	edx, DWORD PTR $T235856[ebp]
	mov	eax, DWORD PTR $T235856[ebp]
	mov	ecx, DWORD PTR [edx+8]
	sub	ecx, DWORD PTR [eax+4]
	sar	ecx, 2
	cmp	DWORD PTR _i$220614[ebp], ecx
	jae	SHORT $LN2@isVictoryC

; 394  : 	{
; 395  : 		if(m_listVictoryTypes[i] == eVictory)

	mov	edx, DWORD PTR _this$[ebp]
	mov	eax, DWORD PTR [edx+76]
	mov	ecx, DWORD PTR _i$220614[ebp]
	mov	edx, DWORD PTR [eax+ecx*4]
	cmp	edx, DWORD PTR _eVictory$[ebp]
	jne	SHORT $LN1@isVictoryC

; 396  : 		{
; 397  : 			return true;

	mov	al, 1
	jmp	SHORT $LN5@isVictoryC
$LN1@isVictoryC:

; 398  : 		}
; 399  : 	}

	jmp	SHORT $LN3@isVictoryC
$LN2@isVictoryC:

; 400  : 	return false;

	xor	al, al
$LN5@isVictoryC:

; 401  : }

	mov	esp, ebp
	pop	ebp
	ret	4
?isVictoryCondition@CvReplayInfo@@QBE_NW4VictoryTypes@@@Z ENDP ; CvReplayInfo::isVictoryCondition
_TEXT	ENDS
PUBLIC	?getVictoryType@CvReplayInfo@@QBE?AW4VictoryTypes@@XZ ; CvReplayInfo::getVictoryType
; Function compile flags: /Odtp
;	COMDAT ?getVictoryType@CvReplayInfo@@QBE?AW4VictoryTypes@@XZ
_TEXT	SEGMENT
_this$ = -4						; size = 4
?getVictoryType@CvReplayInfo@@QBE?AW4VictoryTypes@@XZ PROC ; CvReplayInfo::getVictoryType, COMDAT
; _this$ = ecx

; 404  : {

	push	ebp
	mov	ebp, esp
	push	ecx
	mov	DWORD PTR _this$[ebp], ecx

; 405  : 	return m_eVictoryType;

	mov	eax, DWORD PTR _this$[ebp]
	mov	eax, DWORD PTR [eax+88]

; 406  : }

	mov	esp, ebp
	pop	ebp
	ret	0
?getVictoryType@CvReplayInfo@@QBE?AW4VictoryTypes@@XZ ENDP ; CvReplayInfo::getVictoryType
_TEXT	ENDS
PUBLIC	?getGameType@CvReplayInfo@@QBE?AW4GameTypes@@XZ	; CvReplayInfo::getGameType
; Function compile flags: /Odtp
;	COMDAT ?getGameType@CvReplayInfo@@QBE?AW4GameTypes@@XZ
_TEXT	SEGMENT
_this$ = -4						; size = 4
?getGameType@CvReplayInfo@@QBE?AW4GameTypes@@XZ PROC	; CvReplayInfo::getGameType, COMDAT
; _this$ = ecx

; 409  : {

	push	ebp
	mov	ebp, esp
	push	ecx
	mov	DWORD PTR _this$[ebp], ecx

; 410  : 	return m_eGameType;

	mov	eax, DWORD PTR _this$[ebp]
	mov	eax, DWORD PTR [eax+92]

; 411  : }

	mov	esp, ebp
	pop	ebp
	ret	0
?getGameType@CvReplayInfo@@QBE?AW4GameTypes@@XZ ENDP	; CvReplayInfo::getGameType
_TEXT	ENDS
PUBLIC	?addReplayMessage@CvReplayInfo@@QAEXABVCvReplayMessage@@@Z ; CvReplayInfo::addReplayMessage
; Function compile flags: /Odtp
;	COMDAT ?addReplayMessage@CvReplayInfo@@QAEXABVCvReplayMessage@@@Z
_TEXT	SEGMENT
_this$ = -60						; size = 4
_pMessage$ = 8						; size = 4
?addReplayMessage@CvReplayInfo@@QAEXABVCvReplayMessage@@@Z PROC ; CvReplayInfo::addReplayMessage, COMDAT
; _this$ = ecx

; 414  : {

	push	ebp
	mov	ebp, esp
	sub	esp, 60					; 0000003cH
	mov	DWORD PTR _this$[ebp], ecx

; 415  : 	m_listReplayMessages.push_back(pMessage);

	mov	eax, DWORD PTR _pMessage$[ebp]
	push	eax
	mov	ecx, DWORD PTR _this$[ebp]
	add	ecx, 160				; 000000a0H
	call	?push_back@?$vector@VCvReplayMessage@@V?$allocator@VCvReplayMessage@@@std@@@std@@QAEXABVCvReplayMessage@@@Z ; std::vector<CvReplayMessage,std::allocator<CvReplayMessage> >::push_back

; 416  : }

	mov	esp, ebp
	pop	ebp
	ret	4
?addReplayMessage@CvReplayInfo@@QAEXABVCvReplayMessage@@@Z ENDP ; CvReplayInfo::addReplayMessage
_TEXT	ENDS
PUBLIC	?clearReplayMessageMap@CvReplayInfo@@QAEXXZ	; CvReplayInfo::clearReplayMessageMap
; Function compile flags: /Odtp
;	COMDAT ?clearReplayMessageMap@CvReplayInfo@@QAEXXZ
_TEXT	SEGMENT
_this$ = -108						; size = 4
$T236188 = -104						; size = 4
$T236015 = -28						; size = 4
$T235999 = -24						; size = 4
$T236175 = -20						; size = 4
$T236174 = -16						; size = 4
$T236173 = -12						; size = 4
$T236172 = -8						; size = 4
$T236171 = -4						; size = 4
?clearReplayMessageMap@CvReplayInfo@@QAEXXZ PROC	; CvReplayInfo::clearReplayMessageMap, COMDAT
; _this$ = ecx

; 419  : {

	push	ebp
	mov	ebp, esp
	sub	esp, 108				; 0000006cH
	mov	DWORD PTR _this$[ebp], ecx

; 420  : 	m_listReplayMessages.clear();

	mov	eax, DWORD PTR _this$[ebp]
	add	eax, 160				; 000000a0H
	mov	DWORD PTR $T236188[ebp], eax
	mov	ecx, DWORD PTR $T236188[ebp]
	mov	edx, DWORD PTR [ecx+8]
	mov	DWORD PTR $T235999[ebp], edx
	mov	eax, DWORD PTR $T235999[ebp]
	mov	DWORD PTR $T236172[ebp], eax
	mov	ecx, DWORD PTR $T236172[ebp]
	mov	DWORD PTR $T236171[ebp], ecx
	mov	edx, DWORD PTR $T236188[ebp]
	mov	eax, DWORD PTR [edx+4]
	mov	DWORD PTR $T236015[ebp], eax
	mov	ecx, DWORD PTR $T236015[ebp]
	mov	DWORD PTR $T236174[ebp], ecx
	mov	edx, DWORD PTR $T236174[ebp]
	mov	DWORD PTR $T236173[ebp], edx
	mov	eax, DWORD PTR $T236171[ebp]
	push	eax
	mov	ecx, DWORD PTR $T236173[ebp]
	push	ecx
	lea	edx, DWORD PTR $T236175[ebp]
	push	edx
	mov	ecx, DWORD PTR $T236188[ebp]
	call	?erase@?$vector@VCvReplayMessage@@V?$allocator@VCvReplayMessage@@@std@@@std@@QAE?AV?$_Vector_iterator@VCvReplayMessage@@V?$allocator@VCvReplayMessage@@@std@@@2@V?$_Vector_const_iterator@VCvReplayMessage@@V?$allocator@VCvReplayMessage@@@std@@@2@0@Z ; std::vector<CvReplayMessage,std::allocator<CvReplayMessage> >::erase

; 421  : }

	mov	esp, ebp
	pop	ebp
	ret	0
?clearReplayMessageMap@CvReplayInfo@@QAEXXZ ENDP	; CvReplayInfo::clearReplayMessageMap
_TEXT	ENDS
PUBLIC	?getNumReplayMessages@CvReplayInfo@@QBEIXZ	; CvReplayInfo::getNumReplayMessages
; Function compile flags: /Odtp
;	COMDAT ?getNumReplayMessages@CvReplayInfo@@QBEIXZ
_TEXT	SEGMENT
_this$ = -8						; size = 4
$T236194 = -4						; size = 4
?getNumReplayMessages@CvReplayInfo@@QBEIXZ PROC		; CvReplayInfo::getNumReplayMessages, COMDAT
; _this$ = ecx

; 424  : {

	push	ebp
	mov	ebp, esp
	sub	esp, 8
	mov	DWORD PTR _this$[ebp], ecx

; 425  : 	return m_listReplayMessages.size();

	mov	eax, DWORD PTR _this$[ebp]
	add	eax, 160				; 000000a0H
	mov	DWORD PTR $T236194[ebp], eax
	mov	ecx, DWORD PTR $T236194[ebp]
	mov	edx, DWORD PTR $T236194[ebp]
	mov	eax, DWORD PTR [ecx+8]
	sub	eax, DWORD PTR [edx+4]
	cdq
	mov	ecx, 60					; 0000003cH
	idiv	ecx

; 426  : }

	mov	esp, ebp
	pop	ebp
	ret	0
?getNumReplayMessages@CvReplayInfo@@QBEIXZ ENDP		; CvReplayInfo::getNumReplayMessages
_TEXT	ENDS
PUBLIC	?getReplayMessage@CvReplayInfo@@QBEPBVCvReplayMessage@@I@Z ; CvReplayInfo::getReplayMessage
; Function compile flags: /Odtp
;	COMDAT ?getReplayMessage@CvReplayInfo@@QBEPBVCvReplayMessage@@I@Z
_TEXT	SEGMENT
_this$ = -8						; size = 4
$T236200 = -4						; size = 4
_i$ = 8							; size = 4
?getReplayMessage@CvReplayInfo@@QBEPBVCvReplayMessage@@I@Z PROC ; CvReplayInfo::getReplayMessage, COMDAT
; _this$ = ecx

; 429  : {

	push	ebp
	mov	ebp, esp
	sub	esp, 8
	mov	DWORD PTR _this$[ebp], ecx

; 430  : 	if(i < m_listReplayMessages.size())

	mov	eax, DWORD PTR _this$[ebp]
	add	eax, 160				; 000000a0H
	mov	DWORD PTR $T236200[ebp], eax
	mov	ecx, DWORD PTR $T236200[ebp]
	mov	edx, DWORD PTR $T236200[ebp]
	mov	eax, DWORD PTR [ecx+8]
	sub	eax, DWORD PTR [edx+4]
	cdq
	mov	ecx, 60					; 0000003cH
	idiv	ecx
	cmp	DWORD PTR _i$[ebp], eax
	jae	SHORT $LN1@getReplayM

; 431  : 	{
; 432  : 		return &(m_listReplayMessages[i]);

	mov	eax, DWORD PTR _i$[ebp]
	imul	eax, 60					; 0000003cH
	mov	edx, DWORD PTR _this$[ebp]
	add	eax, DWORD PTR [edx+164]
	jmp	SHORT $LN2@getReplayM
$LN1@getReplayM:

; 433  : 	}
; 434  : 
; 435  : 	return NULL;

	xor	eax, eax
$LN2@getReplayM:

; 436  : }

	mov	esp, ebp
	pop	ebp
	ret	4
?getReplayMessage@CvReplayInfo@@QBEPBVCvReplayMessage@@I@Z ENDP ; CvReplayInfo::getReplayMessage
_TEXT	ENDS
PUBLIC	?getInitialTurn@CvReplayInfo@@QBEHXZ		; CvReplayInfo::getInitialTurn
; Function compile flags: /Odtp
;	COMDAT ?getInitialTurn@CvReplayInfo@@QBEHXZ
_TEXT	SEGMENT
_this$ = -4						; size = 4
?getInitialTurn@CvReplayInfo@@QBEHXZ PROC		; CvReplayInfo::getInitialTurn, COMDAT
; _this$ = ecx

; 439  : {

	push	ebp
	mov	ebp, esp
	push	ecx
	mov	DWORD PTR _this$[ebp], ecx

; 440  : 	return m_iInitialTurn;

	mov	eax, DWORD PTR _this$[ebp]
	mov	eax, DWORD PTR [eax+96]

; 441  : }

	mov	esp, ebp
	pop	ebp
	ret	0
?getInitialTurn@CvReplayInfo@@QBEHXZ ENDP		; CvReplayInfo::getInitialTurn
_TEXT	ENDS
PUBLIC	?getStartYear@CvReplayInfo@@QBEHXZ		; CvReplayInfo::getStartYear
; Function compile flags: /Odtp
;	COMDAT ?getStartYear@CvReplayInfo@@QBEHXZ
_TEXT	SEGMENT
_this$ = -4						; size = 4
?getStartYear@CvReplayInfo@@QBEHXZ PROC			; CvReplayInfo::getStartYear, COMDAT
; _this$ = ecx

; 444  : {

	push	ebp
	mov	ebp, esp
	push	ecx
	mov	DWORD PTR _this$[ebp], ecx

; 445  : 	return m_iStartYear;

	mov	eax, DWORD PTR _this$[ebp]
	mov	eax, DWORD PTR [eax+104]

; 446  : }

	mov	esp, ebp
	pop	ebp
	ret	0
?getStartYear@CvReplayInfo@@QBEHXZ ENDP			; CvReplayInfo::getStartYear
_TEXT	ENDS
PUBLIC	?getFinalTurn@CvReplayInfo@@QBEHXZ		; CvReplayInfo::getFinalTurn
; Function compile flags: /Odtp
;	COMDAT ?getFinalTurn@CvReplayInfo@@QBEHXZ
_TEXT	SEGMENT
_this$ = -4						; size = 4
?getFinalTurn@CvReplayInfo@@QBEHXZ PROC			; CvReplayInfo::getFinalTurn, COMDAT
; _this$ = ecx

; 449  : {

	push	ebp
	mov	ebp, esp
	push	ecx
	mov	DWORD PTR _this$[ebp], ecx

; 450  : 	return m_iFinalTurn;

	mov	eax, DWORD PTR _this$[ebp]
	mov	eax, DWORD PTR [eax+100]

; 451  : }

	mov	esp, ebp
	pop	ebp
	ret	0
?getFinalTurn@CvReplayInfo@@QBEHXZ ENDP			; CvReplayInfo::getFinalTurn
_TEXT	ENDS
PUBLIC	?getFinalDate@CvReplayInfo@@QBEPBDXZ		; CvReplayInfo::getFinalDate
; Function compile flags: /Odtp
;	COMDAT ?getFinalDate@CvReplayInfo@@QBEPBDXZ
_TEXT	SEGMENT
_this$ = -4						; size = 4
?getFinalDate@CvReplayInfo@@QBEPBDXZ PROC		; CvReplayInfo::getFinalDate, COMDAT
; _this$ = ecx

; 454  : {

	push	ebp
	mov	ebp, esp
	push	ecx
	mov	DWORD PTR _this$[ebp], ecx

; 455  : 	return m_strFinalDate;

	mov	ecx, DWORD PTR _this$[ebp]
	add	ecx, 108				; 0000006cH
	call	DWORD PTR __imp_?c_str@?$basic_string@DU?$char_traits@D@std@@V?$allocator@D@2@@std@@QBEPBDXZ

; 456  : }

	mov	esp, ebp
	pop	ebp
	ret	0
?getFinalDate@CvReplayInfo@@QBEPBDXZ ENDP		; CvReplayInfo::getFinalDate
_TEXT	ENDS
PUBLIC	?getCalendar@CvReplayInfo@@QBE?AW4CalendarTypes@@XZ ; CvReplayInfo::getCalendar
; Function compile flags: /Odtp
;	COMDAT ?getCalendar@CvReplayInfo@@QBE?AW4CalendarTypes@@XZ
_TEXT	SEGMENT
_this$ = -4						; size = 4
?getCalendar@CvReplayInfo@@QBE?AW4CalendarTypes@@XZ PROC ; CvReplayInfo::getCalendar, COMDAT
; _this$ = ecx

; 459  : {

	push	ebp
	mov	ebp, esp
	push	ecx
	mov	DWORD PTR _this$[ebp], ecx

; 460  : 	return m_eCalendar;

	mov	eax, DWORD PTR _this$[ebp]
	mov	eax, DWORD PTR [eax+136]

; 461  : }

	mov	esp, ebp
	pop	ebp
	ret	0
?getCalendar@CvReplayInfo@@QBE?AW4CalendarTypes@@XZ ENDP ; CvReplayInfo::getCalendar
_TEXT	ENDS
PUBLIC	?getNumPlayerDataSets@CvReplayInfo@@QBEIXZ	; CvReplayInfo::getNumPlayerDataSets
; Function compile flags: /Odtp
;	COMDAT ?getNumPlayerDataSets@CvReplayInfo@@QBEIXZ
_TEXT	SEGMENT
_this$ = -8						; size = 4
$T236222 = -4						; size = 4
?getNumPlayerDataSets@CvReplayInfo@@QBEIXZ PROC		; CvReplayInfo::getNumPlayerDataSets, COMDAT
; _this$ = ecx

; 464  : {

	push	ebp
	mov	ebp, esp
	sub	esp, 8
	mov	DWORD PTR _this$[ebp], ecx

; 465  : 	return m_dataSetMap.size();

	mov	eax, DWORD PTR _this$[ebp]
	add	eax, 176				; 000000b0H
	mov	DWORD PTR $T236222[ebp], eax
	mov	ecx, DWORD PTR $T236222[ebp]
	mov	edx, DWORD PTR $T236222[ebp]
	mov	eax, DWORD PTR [ecx+8]
	sub	eax, DWORD PTR [edx+4]
	cdq
	mov	ecx, 28					; 0000001cH
	idiv	ecx

; 466  : }

	mov	esp, ebp
	pop	ebp
	ret	0
?getNumPlayerDataSets@CvReplayInfo@@QBEIXZ ENDP		; CvReplayInfo::getNumPlayerDataSets
_TEXT	ENDS
PUBLIC	?getPlayerDataSetName@CvReplayInfo@@QBEPBDI@Z	; CvReplayInfo::getPlayerDataSetName
; Function compile flags: /Odtp
;	COMDAT ?getPlayerDataSetName@CvReplayInfo@@QBEPBDI@Z
_TEXT	SEGMENT
_this$ = -12						; size = 4
$T236232 = -8						; size = 4
$T236228 = -4						; size = 4
_idx$ = 8						; size = 4
?getPlayerDataSetName@CvReplayInfo@@QBEPBDI@Z PROC	; CvReplayInfo::getPlayerDataSetName, COMDAT
; _this$ = ecx

; 469  : {

	push	ebp
	mov	ebp, esp
	sub	esp, 12					; 0000000cH
	mov	DWORD PTR _this$[ebp], ecx

; 470  : 	if(idx < m_dataSetMap.size())

	mov	eax, DWORD PTR _this$[ebp]
	add	eax, 176				; 000000b0H
	mov	DWORD PTR $T236228[ebp], eax
	mov	ecx, DWORD PTR $T236228[ebp]
	mov	edx, DWORD PTR $T236228[ebp]
	mov	eax, DWORD PTR [ecx+8]
	sub	eax, DWORD PTR [edx+4]
	cdq
	mov	ecx, 28					; 0000001cH
	idiv	ecx
	cmp	DWORD PTR _idx$[ebp], eax
	jae	SHORT $LN1@getPlayerD@2

; 471  : 	{
; 472  : 		return m_dataSetMap[idx].c_str();

	mov	edx, DWORD PTR _idx$[ebp]
	imul	edx, 28					; 0000001cH
	mov	eax, DWORD PTR _this$[ebp]
	add	edx, DWORD PTR [eax+180]
	mov	DWORD PTR $T236232[ebp], edx
	mov	ecx, DWORD PTR $T236232[ebp]
	call	DWORD PTR __imp_?c_str@?$basic_string@DU?$char_traits@D@std@@V?$allocator@D@2@@std@@QBEPBDXZ
	jmp	SHORT $LN2@getPlayerD@2
$LN1@getPlayerD@2:

; 473  : 	}
; 474  : 
; 475  : 	return NULL;

	xor	eax, eax
$LN2@getPlayerD@2:

; 476  : }

	mov	esp, ebp
	pop	ebp
	ret	4
?getPlayerDataSetName@CvReplayInfo@@QBEPBDI@Z ENDP	; CvReplayInfo::getPlayerDataSetName
_TEXT	ENDS
PUBLIC	?find@?$_Tree@V?$_Tmap_traits@IHU?$less@I@std@@V?$allocator@U?$pair@$$CBIH@std@@@2@$0A@@std@@@std@@QBE?AVconst_iterator@12@ABI@Z ; std::_Tree<std::_Tmap_traits<unsigned int,int,std::less<unsigned int>,std::allocator<std::pair<unsigned int const ,int> >,0> >::find
PUBLIC	?getPlayerDataSetValue@CvReplayInfo@@QBE_NIIIAAH@Z ; CvReplayInfo::getPlayerDataSetValue
; Function compile flags: /Odtp
;	COMDAT ?getPlayerDataSetValue@CvReplayInfo@@QBE_NIIIAAH@Z
_TEXT	SEGMENT
_this$ = -68						; size = 4
$T236311 = -64						; size = 4
$T236247 = -28						; size = 4
$T236243 = -24						; size = 4
$T236239 = -20						; size = 4
$T236235 = -16						; size = 4
_data$220672 = -12					; size = 4
_it$220673 = -8						; size = 4
_uiAdjustedTurn$ = -4					; size = 4
_uiPlayer$ = 8						; size = 4
_uiDataSet$ = 12					; size = 4
_iTurn$ = 16						; size = 4
_outValue$ = 20						; size = 4
?getPlayerDataSetValue@CvReplayInfo@@QBE_NIIIAAH@Z PROC	; CvReplayInfo::getPlayerDataSetValue, COMDAT
; _this$ = ecx

; 479  : {

	push	ebp
	mov	ebp, esp
	sub	esp, 68					; 00000044H
	mov	DWORD PTR _this$[ebp], ecx

; 480  : 	const unsigned int uiAdjustedTurn = iTurn - m_iInitialTurn;

	mov	eax, DWORD PTR _this$[ebp]
	mov	ecx, DWORD PTR _iTurn$[ebp]
	sub	ecx, DWORD PTR [eax+96]
	mov	DWORD PTR _uiAdjustedTurn$[ebp], ecx

; 481  : 	if(uiPlayer < m_listPlayerInfo.size() && uiDataSet < m_dataSetMap.size())

	mov	edx, DWORD PTR _this$[ebp]
	add	edx, 144				; 00000090H
	mov	DWORD PTR $T236239[ebp], edx
	mov	eax, DWORD PTR $T236239[ebp]
	mov	ecx, DWORD PTR $T236239[ebp]
	mov	edx, DWORD PTR [eax+8]
	sub	edx, DWORD PTR [ecx+4]
	sar	edx, 7
	cmp	DWORD PTR _uiPlayer$[ebp], edx
	jae	$LN2@getPlayerD@3
	mov	eax, DWORD PTR _this$[ebp]
	add	eax, 176				; 000000b0H
	mov	DWORD PTR $T236243[ebp], eax
	mov	ecx, DWORD PTR $T236243[ebp]
	mov	edx, DWORD PTR $T236243[ebp]
	mov	eax, DWORD PTR [ecx+8]
	sub	eax, DWORD PTR [edx+4]
	cdq
	mov	ecx, 28					; 0000001cH
	idiv	ecx
	cmp	DWORD PTR _uiDataSet$[ebp], eax
	jae	SHORT $LN2@getPlayerD@3

; 482  : 	{
; 483  : 		const TurnData& data = m_listPlayerDataSets[uiPlayer][uiDataSet];

	mov	edx, DWORD PTR _uiPlayer$[ebp]
	shl	edx, 4
	mov	eax, DWORD PTR _this$[ebp]
	add	edx, DWORD PTR [eax+196]
	mov	DWORD PTR $T236247[ebp], edx
	mov	ecx, DWORD PTR _uiDataSet$[ebp]
	imul	ecx, 12					; 0000000cH
	mov	edx, DWORD PTR $T236247[ebp]
	add	ecx, DWORD PTR [edx+4]
	mov	DWORD PTR _data$220672[ebp], ecx

; 484  : 		TurnData::const_iterator it = data.find(uiAdjustedTurn);

	lea	eax, DWORD PTR _uiAdjustedTurn$[ebp]
	push	eax
	lea	ecx, DWORD PTR _it$220673[ebp]
	push	ecx
	mov	ecx, DWORD PTR _data$220672[ebp]
	call	?find@?$_Tree@V?$_Tmap_traits@IHU?$less@I@std@@V?$allocator@U?$pair@$$CBIH@std@@@2@$0A@@std@@@std@@QBE?AVconst_iterator@12@ABI@Z ; std::_Tree<std::_Tmap_traits<unsigned int,int,std::less<unsigned int>,std::allocator<std::pair<unsigned int const ,int> >,0> >::find

; 485  : 		if(it != data.end())

	mov	edx, DWORD PTR _data$220672[ebp]
	mov	eax, DWORD PTR [edx+4]
	mov	DWORD PTR $T236311[ebp], eax
	mov	ecx, DWORD PTR $T236311[ebp]
	mov	DWORD PTR $T236235[ebp], ecx
	mov	edx, DWORD PTR _it$220673[ebp]
	xor	eax, eax
	cmp	edx, DWORD PTR $T236235[ebp]
	sete	al
	movzx	ecx, al
	neg	ecx
	sbb	ecx, ecx
	add	ecx, 1
	movzx	edx, cl
	test	edx, edx
	je	SHORT $LN2@getPlayerD@3

; 486  : 		{
; 487  : 			outValue = (*it).second;

	mov	eax, DWORD PTR _outValue$[ebp]
	mov	ecx, DWORD PTR _it$220673[ebp]
	mov	edx, DWORD PTR [ecx+16]
	mov	DWORD PTR [eax], edx

; 488  : 			return true;

	mov	al, 1
	jmp	SHORT $LN3@getPlayerD@3
$LN2@getPlayerD@3:

; 489  : 		}
; 490  : 	}
; 491  : 
; 492  : 	return false;

	xor	al, al
$LN3@getPlayerD@3:

; 493  : }

	mov	esp, ebp
	pop	ebp
	ret	16					; 00000010H
?getPlayerDataSetValue@CvReplayInfo@@QBE_NIIIAAH@Z ENDP	; CvReplayInfo::getPlayerDataSetValue
_TEXT	ENDS
PUBLIC	?getNormalizedScore@CvReplayInfo@@QBEHXZ	; CvReplayInfo::getNormalizedScore
; Function compile flags: /Odtp
;	COMDAT ?getNormalizedScore@CvReplayInfo@@QBEHXZ
_TEXT	SEGMENT
_this$ = -4						; size = 4
?getNormalizedScore@CvReplayInfo@@QBEHXZ PROC		; CvReplayInfo::getNormalizedScore, COMDAT
; _this$ = ecx

; 496  : {

	push	ebp
	mov	ebp, esp
	push	ecx
	mov	DWORD PTR _this$[ebp], ecx

; 497  : 	return m_iNormalizedScore;

	mov	eax, DWORD PTR _this$[ebp]
	mov	eax, DWORD PTR [eax+140]

; 498  : }

	mov	esp, ebp
	pop	ebp
	ret	0
?getNormalizedScore@CvReplayInfo@@QBEHXZ ENDP		; CvReplayInfo::getNormalizedScore
_TEXT	ENDS
PUBLIC	?getMapHeight@CvReplayInfo@@QBEHXZ		; CvReplayInfo::getMapHeight
; Function compile flags: /Odtp
;	COMDAT ?getMapHeight@CvReplayInfo@@QBEHXZ
_TEXT	SEGMENT
_this$ = -4						; size = 4
?getMapHeight@CvReplayInfo@@QBEHXZ PROC			; CvReplayInfo::getMapHeight, COMDAT
; _this$ = ecx

; 501  : {

	push	ebp
	mov	ebp, esp
	push	ecx
	mov	DWORD PTR _this$[ebp], ecx

; 502  : 	return m_iMapHeight;

	mov	eax, DWORD PTR _this$[ebp]
	mov	eax, DWORD PTR [eax+208]

; 503  : }

	mov	esp, ebp
	pop	ebp
	ret	0
?getMapHeight@CvReplayInfo@@QBEHXZ ENDP			; CvReplayInfo::getMapHeight
_TEXT	ENDS
PUBLIC	?getMapWidth@CvReplayInfo@@QBEHXZ		; CvReplayInfo::getMapWidth
; Function compile flags: /Odtp
;	COMDAT ?getMapWidth@CvReplayInfo@@QBEHXZ
_TEXT	SEGMENT
_this$ = -4						; size = 4
?getMapWidth@CvReplayInfo@@QBEHXZ PROC			; CvReplayInfo::getMapWidth, COMDAT
; _this$ = ecx

; 506  : {

	push	ebp
	mov	ebp, esp
	push	ecx
	mov	DWORD PTR _this$[ebp], ecx

; 507  : 	return m_iMapWidth;

	mov	eax, DWORD PTR _this$[ebp]
	mov	eax, DWORD PTR [eax+212]

; 508  : }

	mov	esp, ebp
	pop	ebp
	ret	0
?getMapWidth@CvReplayInfo@@QBEHXZ ENDP			; CvReplayInfo::getMapWidth
_TEXT	ENDS
PUBLIC	?find@?$_Tree@V?$_Tmap_traits@IUPlotState@CvReplayInfo@@U?$less@I@std@@V?$allocator@U?$pair@$$CBIUPlotState@CvReplayInfo@@@std@@@4@$0A@@std@@@std@@QBE?AVconst_iterator@12@ABI@Z ; std::_Tree<std::_Tmap_traits<unsigned int,CvReplayInfo::PlotState,std::less<unsigned int>,std::allocator<std::pair<unsigned int const ,CvReplayInfo::PlotState> >,0> >::find
PUBLIC	?getPlotState@CvReplayInfo@@QBE_NIIIAAUPlotState@1@@Z ; CvReplayInfo::getPlotState
; Function compile flags: /Odtp
;	COMDAT ?getPlotState@CvReplayInfo@@QBE_NIIIAAUPlotState@1@@Z
_TEXT	SEGMENT
_this$ = -60						; size = 4
$T236408 = -56						; size = 4
$T236344 = -20						; size = 4
$T236340 = -16						; size = 4
_match$220770 = -12					; size = 4
_plotStatePerTurn$220695 = -8				; size = 4
_idx$ = -4						; size = 4
_x$ = 8							; size = 4
_y$ = 12						; size = 4
_uiTurn$ = 16						; size = 4
_plotState$ = 20					; size = 4
?getPlotState@CvReplayInfo@@QBE_NIIIAAUPlotState@1@@Z PROC ; CvReplayInfo::getPlotState, COMDAT
; _this$ = ecx

; 511  : {

	push	ebp
	mov	ebp, esp
	sub	esp, 60					; 0000003cH
	mov	DWORD PTR _this$[ebp], ecx

; 512  : 	size_t idx = x + y * m_iMapWidth;

	mov	eax, DWORD PTR _this$[ebp]
	mov	ecx, DWORD PTR _y$[ebp]
	imul	ecx, DWORD PTR [eax+212]
	add	ecx, DWORD PTR _x$[ebp]
	mov	DWORD PTR _idx$[ebp], ecx

; 513  : 	if(idx < m_listPlots.size())

	mov	edx, DWORD PTR _this$[ebp]
	add	edx, 216				; 000000d8H
	mov	DWORD PTR $T236344[ebp], edx
	mov	eax, DWORD PTR $T236344[ebp]
	mov	ecx, DWORD PTR $T236344[ebp]
	mov	eax, DWORD PTR [eax+8]
	sub	eax, DWORD PTR [ecx+4]
	cdq
	mov	ecx, 12					; 0000000cH
	idiv	ecx
	cmp	DWORD PTR _idx$[ebp], eax
	jae	SHORT $LN2@getPlotSta

; 514  : 	{
; 515  : 		const PlotStatePerTurn& plotStatePerTurn = m_listPlots[idx];

	mov	edx, DWORD PTR _idx$[ebp]
	imul	edx, 12					; 0000000cH
	mov	eax, DWORD PTR _this$[ebp]
	add	edx, DWORD PTR [eax+220]
	mov	DWORD PTR _plotStatePerTurn$220695[ebp], edx

; 516  : 		PlotStatePerTurn::const_iterator match = plotStatePerTurn.find(uiTurn);

	lea	ecx, DWORD PTR _uiTurn$[ebp]
	push	ecx
	lea	edx, DWORD PTR _match$220770[ebp]
	push	edx
	mov	ecx, DWORD PTR _plotStatePerTurn$220695[ebp]
	call	?find@?$_Tree@V?$_Tmap_traits@IUPlotState@CvReplayInfo@@U?$less@I@std@@V?$allocator@U?$pair@$$CBIUPlotState@CvReplayInfo@@@std@@@4@$0A@@std@@@std@@QBE?AVconst_iterator@12@ABI@Z ; std::_Tree<std::_Tmap_traits<unsigned int,CvReplayInfo::PlotState,std::less<unsigned int>,std::allocator<std::pair<unsigned int const ,CvReplayInfo::PlotState> >,0> >::find

; 517  : 		if(match != plotStatePerTurn.end())

	mov	eax, DWORD PTR _plotStatePerTurn$220695[ebp]
	mov	ecx, DWORD PTR [eax+4]
	mov	DWORD PTR $T236408[ebp], ecx
	mov	edx, DWORD PTR $T236408[ebp]
	mov	DWORD PTR $T236340[ebp], edx
	mov	eax, DWORD PTR _match$220770[ebp]
	xor	ecx, ecx
	cmp	eax, DWORD PTR $T236340[ebp]
	sete	cl
	movzx	edx, cl
	neg	edx
	sbb	edx, edx
	add	edx, 1
	movzx	eax, dl
	test	eax, eax
	je	SHORT $LN2@getPlotSta

; 518  : 		{
; 519  : 			plotState = (*match).second;

	mov	ecx, DWORD PTR _match$220770[ebp]
	add	ecx, 16					; 00000010H
	mov	edx, DWORD PTR _plotState$[ebp]
	mov	eax, DWORD PTR [ecx]
	mov	DWORD PTR [edx], eax
	mov	eax, DWORD PTR [ecx+4]
	mov	DWORD PTR [edx+4], eax
	mov	eax, DWORD PTR [ecx+8]
	mov	DWORD PTR [edx+8], eax
	mov	ecx, DWORD PTR [ecx+12]
	mov	DWORD PTR [edx+12], ecx

; 520  : 			return true;

	mov	al, 1
	jmp	SHORT $LN3@getPlotSta
$LN2@getPlotSta:

; 521  : 		}
; 522  : 	}
; 523  : 
; 524  : 	return false;

	xor	al, al
$LN3@getPlotSta:

; 525  : }

	mov	esp, ebp
	pop	ebp
	ret	16					; 00000010H
?getPlotState@CvReplayInfo@@QBE_NIIIAAUPlotState@1@@Z ENDP ; CvReplayInfo::getPlotState
_TEXT	ENDS
PUBLIC	??$?5V?$map@IUPlotState@CvReplayInfo@@U?$less@I@std@@V?$allocator@U?$pair@$$CBIUPlotState@CvReplayInfo@@@std@@@4@@std@@@@YAAAVFDataStream@@AAV0@AAV?$vector@V?$map@IUPlotState@CvReplayInfo@@U?$less@I@std@@V?$allocator@U?$pair@$$CBIUPlotState@CvReplayInfo@@@std@@@4@@std@@V?$allocator@V?$map@IUPlotState@CvReplayInfo@@U?$less@I@std@@V?$allocator@U?$pair@$$CBIUPlotState@CvReplayInfo@@@std@@@4@@std@@@2@@std@@@Z ; operator>><std::map<unsigned int,CvReplayInfo::PlotState,std::less<unsigned int>,std::allocator<std::pair<unsigned int const ,CvReplayInfo::PlotState> > > >
PUBLIC	??$?5V?$vector@V?$map@IHU?$less@I@std@@V?$allocator@U?$pair@$$CBIH@std@@@2@@std@@V?$allocator@V?$map@IHU?$less@I@std@@V?$allocator@U?$pair@$$CBIH@std@@@2@@std@@@2@@std@@@@YAAAVFDataStream@@AAV0@AAV?$vector@V?$vector@V?$map@IHU?$less@I@std@@V?$allocator@U?$pair@$$CBIH@std@@@2@@std@@V?$allocator@V?$map@IHU?$less@I@std@@V?$allocator@U?$pair@$$CBIH@std@@@2@@std@@@2@@std@@V?$allocator@V?$vector@V?$map@IHU?$less@I@std@@V?$allocator@U?$pair@$$CBIH@std@@@2@@std@@V?$allocator@V?$map@IHU?$less@I@std@@V?$allocator@U?$pair@$$CBIH@std@@@2@@std@@@2@@std@@@2@@std@@@Z ; operator>><std::vector<std::map<unsigned int,int,std::less<unsigned int>,std::allocator<std::pair<unsigned int const ,int> > >,std::allocator<std::map<unsigned int,int,std::less<unsigned int>,std::allocator<std::pair<unsigned int const ,int> > > > > >
PUBLIC	??$?5V?$basic_string@DU?$char_traits@D@std@@V?$allocator@D@2@@std@@@@YAAAVFDataStream@@AAV0@AAV?$vector@V?$basic_string@DU?$char_traits@D@std@@V?$allocator@D@2@@std@@V?$allocator@V?$basic_string@DU?$char_traits@D@std@@V?$allocator@D@2@@std@@@2@@std@@@Z ; operator>><std::basic_string<char,std::char_traits<char>,std::allocator<char> > >
PUBLIC	??$?5UPlayerInfo@CvReplayInfo@@@@YAAAVFDataStream@@AAV0@AAV?$vector@UPlayerInfo@CvReplayInfo@@V?$allocator@UPlayerInfo@CvReplayInfo@@@std@@@std@@@Z ; operator>><CvReplayInfo::PlayerInfo>
PUBLIC	??$?5W4VictoryTypes@@@@YAAAVFDataStream@@AAV0@AAV?$vector@W4VictoryTypes@@V?$allocator@W4VictoryTypes@@@std@@@std@@@Z ; operator>><enum VictoryTypes>
PUBLIC	??$?5W4GameOptionTypes@@@@YAAAVFDataStream@@AAV0@AAV?$vector@W4GameOptionTypes@@V?$allocator@W4GameOptionTypes@@@std@@@std@@@Z ; operator>><enum GameOptionTypes>
PUBLIC	__$ArrayPad$
PUBLIC	?read@CvReplayInfo@@QAE_NAAVFDataStream@@@Z	; CvReplayInfo::read
EXTRN	?read@CvReplayMessage@@QAEXAAVFDataStream@@I@Z:PROC ; CvReplayMessage::read
EXTRN	??0CvReplayMessage@@QAE@XZ:PROC			; CvReplayMessage::CvReplayMessage
EXTRN	?Read@FDataStream@@IAEXAAI@Z:PROC		; FDataStream::Read
EXTRN	??5@YAAAVFDataStream@@AAV0@AAW4CalendarTypes@@@Z:PROC ; operator>>
EXTRN	??5@YAAAVFDataStream@@AAV0@AAW4GameTypes@@@Z:PROC ; operator>>
EXTRN	??5@YAAAVFDataStream@@AAV0@AAW4VictoryTypes@@@Z:PROC ; operator>>
EXTRN	??5@YAAAVFDataStream@@AAV0@AAW4GameSpeedTypes@@@Z:PROC ; operator>>
EXTRN	??5@YAAAVFDataStream@@AAV0@AAW4EraTypes@@@Z:PROC ; operator>>
EXTRN	??5@YAAAVFDataStream@@AAV0@AAW4SeaLevelTypes@@@Z:PROC ; operator>>
EXTRN	??5@YAAAVFDataStream@@AAV0@AAW4ClimateTypes@@@Z:PROC ; operator>>
EXTRN	??5@YAAAVFDataStream@@AAV0@AAW4WorldSizeTypes@@@Z:PROC ; operator>>
EXTRN	?Read@FDataStream@@IAEXAAV?$basic_string@DU?$char_traits@D@std@@V?$allocator@D@2@@std@@@Z:PROC ; FDataStream::Read
EXTRN	?Read@FDataStream@@IAEXAAH@Z:PROC		; FDataStream::Read
;	COMDAT xdata$x
; File d:\sources\lekmod_git\checkout\lekmod_dll\fireplace\include\fireworks\fdatastream.h
xdata$x	SEGMENT
__unwindtable$?read@CvReplayInfo@@QAE_NAAVFDataStream@@@Z DD 0ffffffffH
	DD	FLAT:__unwindfunclet$?read@CvReplayInfo@@QAE_NAAVFDataStream@@@Z$0
__ehfuncinfo$?read@CvReplayInfo@@QAE_NAAVFDataStream@@@Z DD 019930522H
	DD	01H
	DD	FLAT:__unwindtable$?read@CvReplayInfo@@QAE_NAAVFDataStream@@@Z
	DD	2 DUP(00H)
	DD	2 DUP(00H)
	DD	00H
	DD	01H
; Function compile flags: /Odtp
; File d:\sources\lekmod_git\checkout\lekmod_dll\cvgamecoredll_expansion2\cvreplayinfo.cpp
xdata$x	ENDS
;	COMDAT ?read@CvReplayInfo@@QAE_NAAVFDataStream@@@Z
_TEXT	SEGMENT
_this$ = -244						; size = 4
$T236647 = -184						; size = 4
$T236494 = -124						; size = 4
$T236478 = -120						; size = 4
$T236634 = -116						; size = 4
$T236633 = -112						; size = 4
$T236632 = -108						; size = 4
$T236631 = -104						; size = 4
$T236630 = -100						; size = 4
_message$220894 = -96					; size = 60
__$ArrayPad$ = -36					; size = 4
_ui$220890 = -32					; size = 4
_uiReplayMessageVersion$ = -28				; size = 4
_iVersion$ = -24					; size = 4
_bSuccess$ = -17					; size = 1
_uiReplayMessageCount$ = -16				; size = 4
__$EHRec$ = -12						; size = 12
_kStream$ = 8						; size = 4
?read@CvReplayInfo@@QAE_NAAVFDataStream@@@Z PROC	; CvReplayInfo::read, COMDAT
; _this$ = ecx

; 528  : {

	push	ebp
	mov	ebp, esp
	push	-1
	push	__ehhandler$?read@CvReplayInfo@@QAE_NAAVFDataStream@@@Z
	mov	eax, DWORD PTR fs:0
	push	eax
	sub	esp, 232				; 000000e8H
	mov	eax, DWORD PTR ___security_cookie
	xor	eax, ebp
	mov	DWORD PTR __$ArrayPad$[ebp], eax
	push	eax
	lea	eax, DWORD PTR __$EHRec$[ebp]
	mov	DWORD PTR fs:0, eax
	mov	DWORD PTR _this$[ebp], ecx

; 529  : 	bool bSuccess = true;

	mov	BYTE PTR _bSuccess$[ebp], 1

; 530  : 
; 531  : 	int iVersion;
; 532  : 	kStream >> iVersion;

	lea	eax, DWORD PTR _iVersion$[ebp]
	push	eax
	mov	ecx, DWORD PTR _kStream$[ebp]
	call	?Read@FDataStream@@IAEXAAH@Z		; FDataStream::Read

; 533  : 
; 534  : 	kStream >> m_iActivePlayer;

	mov	ecx, DWORD PTR _this$[ebp]
	add	ecx, 4
	push	ecx
	mov	ecx, DWORD PTR _kStream$[ebp]
	call	?Read@FDataStream@@IAEXAAH@Z		; FDataStream::Read

; 535  : 	kStream >> m_strMapScriptName;

	mov	edx, DWORD PTR _this$[ebp]
	add	edx, 8
	push	edx
	mov	ecx, DWORD PTR _kStream$[ebp]
	call	?Read@FDataStream@@IAEXAAV?$basic_string@DU?$char_traits@D@std@@V?$allocator@D@2@@std@@@Z ; FDataStream::Read

; 536  : 	kStream >> m_eWorldSize;

	mov	eax, DWORD PTR _this$[ebp]
	add	eax, 36					; 00000024H
	push	eax
	mov	ecx, DWORD PTR _kStream$[ebp]
	push	ecx
	call	??5@YAAAVFDataStream@@AAV0@AAW4WorldSizeTypes@@@Z ; operator>>
	add	esp, 8

; 537  : 	kStream >> m_eClimate;

	mov	edx, DWORD PTR _this$[ebp]
	add	edx, 40					; 00000028H
	push	edx
	mov	eax, DWORD PTR _kStream$[ebp]
	push	eax
	call	??5@YAAAVFDataStream@@AAV0@AAW4ClimateTypes@@@Z ; operator>>
	add	esp, 8

; 538  : 	kStream >> m_eSeaLevel;

	mov	ecx, DWORD PTR _this$[ebp]
	add	ecx, 44					; 0000002cH
	push	ecx
	mov	edx, DWORD PTR _kStream$[ebp]
	push	edx
	call	??5@YAAAVFDataStream@@AAV0@AAW4SeaLevelTypes@@@Z ; operator>>
	add	esp, 8

; 539  : 	kStream >> m_eEra;

	mov	eax, DWORD PTR _this$[ebp]
	add	eax, 48					; 00000030H
	push	eax
	mov	ecx, DWORD PTR _kStream$[ebp]
	push	ecx
	call	??5@YAAAVFDataStream@@AAV0@AAW4EraTypes@@@Z ; operator>>
	add	esp, 8

; 540  : 	kStream >> m_eGameSpeed;

	mov	edx, DWORD PTR _this$[ebp]
	add	edx, 52					; 00000034H
	push	edx
	mov	eax, DWORD PTR _kStream$[ebp]
	push	eax
	call	??5@YAAAVFDataStream@@AAV0@AAW4GameSpeedTypes@@@Z ; operator>>
	add	esp, 8

; 541  : 	kStream >> m_listGameOptions;

	mov	ecx, DWORD PTR _this$[ebp]
	add	ecx, 56					; 00000038H
	push	ecx
	mov	edx, DWORD PTR _kStream$[ebp]
	push	edx
	call	??$?5W4GameOptionTypes@@@@YAAAVFDataStream@@AAV0@AAV?$vector@W4GameOptionTypes@@V?$allocator@W4GameOptionTypes@@@std@@@std@@@Z ; operator>><enum GameOptionTypes>
	add	esp, 8

; 542  : 	kStream >> m_listVictoryTypes;

	mov	eax, DWORD PTR _this$[ebp]
	add	eax, 72					; 00000048H
	push	eax
	mov	ecx, DWORD PTR _kStream$[ebp]
	push	ecx
	call	??$?5W4VictoryTypes@@@@YAAAVFDataStream@@AAV0@AAV?$vector@W4VictoryTypes@@V?$allocator@W4VictoryTypes@@@std@@@std@@@Z ; operator>><enum VictoryTypes>
	add	esp, 8

; 543  : 	kStream >> m_eVictoryType;

	mov	edx, DWORD PTR _this$[ebp]
	add	edx, 88					; 00000058H
	push	edx
	mov	eax, DWORD PTR _kStream$[ebp]
	push	eax
	call	??5@YAAAVFDataStream@@AAV0@AAW4VictoryTypes@@@Z ; operator>>
	add	esp, 8

; 544  : 	kStream >> m_eGameType;

	mov	ecx, DWORD PTR _this$[ebp]
	add	ecx, 92					; 0000005cH
	push	ecx
	mov	edx, DWORD PTR _kStream$[ebp]
	push	edx
	call	??5@YAAAVFDataStream@@AAV0@AAW4GameTypes@@@Z ; operator>>
	add	esp, 8

; 545  : 	kStream >> m_iInitialTurn;

	mov	eax, DWORD PTR _this$[ebp]
	add	eax, 96					; 00000060H
	push	eax
	mov	ecx, DWORD PTR _kStream$[ebp]
	call	?Read@FDataStream@@IAEXAAH@Z		; FDataStream::Read

; 546  : 	kStream >> m_iStartYear;

	mov	ecx, DWORD PTR _this$[ebp]
	add	ecx, 104				; 00000068H
	push	ecx
	mov	ecx, DWORD PTR _kStream$[ebp]
	call	?Read@FDataStream@@IAEXAAH@Z		; FDataStream::Read

; 547  : 	kStream >> m_iFinalTurn;

	mov	edx, DWORD PTR _this$[ebp]
	add	edx, 100				; 00000064H
	push	edx
	mov	ecx, DWORD PTR _kStream$[ebp]
	call	?Read@FDataStream@@IAEXAAH@Z		; FDataStream::Read

; 548  : 	kStream >> m_strFinalDate;

	mov	eax, DWORD PTR _this$[ebp]
	add	eax, 108				; 0000006cH
	push	eax
	mov	ecx, DWORD PTR _kStream$[ebp]
	call	?Read@FDataStream@@IAEXAAV?$basic_string@DU?$char_traits@D@std@@V?$allocator@D@2@@std@@@Z ; FDataStream::Read

; 549  : 	kStream >> m_eCalendar;

	mov	ecx, DWORD PTR _this$[ebp]
	add	ecx, 136				; 00000088H
	push	ecx
	mov	edx, DWORD PTR _kStream$[ebp]
	push	edx
	call	??5@YAAAVFDataStream@@AAV0@AAW4CalendarTypes@@@Z ; operator>>
	add	esp, 8

; 550  : 	kStream >> m_iNormalizedScore;

	mov	eax, DWORD PTR _this$[ebp]
	add	eax, 140				; 0000008cH
	push	eax
	mov	ecx, DWORD PTR _kStream$[ebp]
	call	?Read@FDataStream@@IAEXAAH@Z		; FDataStream::Read

; 551  : 
; 552  : 	kStream >> m_listPlayerInfo;

	mov	ecx, DWORD PTR _this$[ebp]
	add	ecx, 144				; 00000090H
	push	ecx
	mov	edx, DWORD PTR _kStream$[ebp]
	push	edx
	call	??$?5UPlayerInfo@CvReplayInfo@@@@YAAAVFDataStream@@AAV0@AAV?$vector@UPlayerInfo@CvReplayInfo@@V?$allocator@UPlayerInfo@CvReplayInfo@@@std@@@std@@@Z ; operator>><CvReplayInfo::PlayerInfo>
	add	esp, 8

; 553  : 
; 554  : 	kStream >> m_dataSetMap;

	mov	eax, DWORD PTR _this$[ebp]
	add	eax, 176				; 000000b0H
	push	eax
	mov	ecx, DWORD PTR _kStream$[ebp]
	push	ecx
	call	??$?5V?$basic_string@DU?$char_traits@D@std@@V?$allocator@D@2@@std@@@@YAAAVFDataStream@@AAV0@AAV?$vector@V?$basic_string@DU?$char_traits@D@std@@V?$allocator@D@2@@std@@V?$allocator@V?$basic_string@DU?$char_traits@D@std@@V?$allocator@D@2@@std@@@2@@std@@@Z ; operator>><std::basic_string<char,std::char_traits<char>,std::allocator<char> > >
	add	esp, 8

; 555  : 	kStream >> m_listPlayerDataSets;

	mov	edx, DWORD PTR _this$[ebp]
	add	edx, 192				; 000000c0H
	push	edx
	mov	eax, DWORD PTR _kStream$[ebp]
	push	eax
	call	??$?5V?$vector@V?$map@IHU?$less@I@std@@V?$allocator@U?$pair@$$CBIH@std@@@2@@std@@V?$allocator@V?$map@IHU?$less@I@std@@V?$allocator@U?$pair@$$CBIH@std@@@2@@std@@@2@@std@@@@YAAAVFDataStream@@AAV0@AAV?$vector@V?$vector@V?$map@IHU?$less@I@std@@V?$allocator@U?$pair@$$CBIH@std@@@2@@std@@V?$allocator@V?$map@IHU?$less@I@std@@V?$allocator@U?$pair@$$CBIH@std@@@2@@std@@@2@@std@@V?$allocator@V?$vector@V?$map@IHU?$less@I@std@@V?$allocator@U?$pair@$$CBIH@std@@@2@@std@@V?$allocator@V?$map@IHU?$less@I@std@@V?$allocator@U?$pair@$$CBIH@std@@@2@@std@@@2@@std@@@2@@std@@@Z ; operator>><std::vector<std::map<unsigned int,int,std::less<unsigned int>,std::allocator<std::pair<unsigned int const ,int> > >,std::allocator<std::map<unsigned int,int,std::less<unsigned int>,std::allocator<std::pair<unsigned int const ,int> > > > > >
	add	esp, 8

; 556  : 
; 557  : 	unsigned int uiReplayMessageVersion = 2;

	mov	DWORD PTR _uiReplayMessageVersion$[ebp], 2

; 558  : 	kStream >> uiReplayMessageVersion;

	lea	ecx, DWORD PTR _uiReplayMessageVersion$[ebp]
	push	ecx
	mov	ecx, DWORD PTR _kStream$[ebp]
	call	?Read@FDataStream@@IAEXAAI@Z		; FDataStream::Read

; 559  : 
; 560  : 	unsigned int uiReplayMessageCount = 0;

	mov	DWORD PTR _uiReplayMessageCount$[ebp], 0

; 561  : 	kStream >> uiReplayMessageCount;

	lea	edx, DWORD PTR _uiReplayMessageCount$[ebp]
	push	edx
	mov	ecx, DWORD PTR _kStream$[ebp]
	call	?Read@FDataStream@@IAEXAAI@Z		; FDataStream::Read

; 562  : 
; 563  : 	m_listReplayMessages.clear();

	mov	eax, DWORD PTR _this$[ebp]
	add	eax, 160				; 000000a0H
	mov	DWORD PTR $T236647[ebp], eax
	mov	ecx, DWORD PTR $T236647[ebp]
	mov	edx, DWORD PTR [ecx+8]
	mov	DWORD PTR $T236478[ebp], edx
	mov	eax, DWORD PTR $T236478[ebp]
	mov	DWORD PTR $T236631[ebp], eax
	mov	ecx, DWORD PTR $T236631[ebp]
	mov	DWORD PTR $T236630[ebp], ecx
	mov	edx, DWORD PTR $T236647[ebp]
	mov	eax, DWORD PTR [edx+4]
	mov	DWORD PTR $T236494[ebp], eax
	mov	ecx, DWORD PTR $T236494[ebp]
	mov	DWORD PTR $T236633[ebp], ecx
	mov	edx, DWORD PTR $T236633[ebp]
	mov	DWORD PTR $T236632[ebp], edx
	mov	eax, DWORD PTR $T236630[ebp]
	push	eax
	mov	ecx, DWORD PTR $T236632[ebp]
	push	ecx
	lea	edx, DWORD PTR $T236634[ebp]
	push	edx
	mov	ecx, DWORD PTR $T236647[ebp]
	call	?erase@?$vector@VCvReplayMessage@@V?$allocator@VCvReplayMessage@@@std@@@std@@QAE?AV?$_Vector_iterator@VCvReplayMessage@@V?$allocator@VCvReplayMessage@@@std@@@2@V?$_Vector_const_iterator@VCvReplayMessage@@V?$allocator@VCvReplayMessage@@@std@@@2@0@Z ; std::vector<CvReplayMessage,std::allocator<CvReplayMessage> >::erase

; 564  : 	m_listReplayMessages.reserve(uiReplayMessageCount);

	mov	eax, DWORD PTR _uiReplayMessageCount$[ebp]
	push	eax
	mov	ecx, DWORD PTR _this$[ebp]
	add	ecx, 160				; 000000a0H
	call	?reserve@?$vector@VCvReplayMessage@@V?$allocator@VCvReplayMessage@@@std@@@std@@QAEXI@Z ; std::vector<CvReplayMessage,std::allocator<CvReplayMessage> >::reserve

; 565  : 	for(unsigned int ui = 0; ui < uiReplayMessageCount; ++ui)

	mov	DWORD PTR _ui$220890[ebp], 0
	jmp	SHORT $LN3@read
$LN2@read:
	mov	ecx, DWORD PTR _ui$220890[ebp]
	add	ecx, 1
	mov	DWORD PTR _ui$220890[ebp], ecx
$LN3@read:
	mov	edx, DWORD PTR _ui$220890[ebp]
	cmp	edx, DWORD PTR _uiReplayMessageCount$[ebp]
	jae	SHORT $LN1@read

; 566  : 	{
; 567  : 		CvReplayMessage message;

	lea	ecx, DWORD PTR _message$220894[ebp]
	call	??0CvReplayMessage@@QAE@XZ		; CvReplayMessage::CvReplayMessage
	mov	DWORD PTR __$EHRec$[ebp+8], 0

; 568  : 		message.read(kStream, uiReplayMessageVersion);

	mov	eax, DWORD PTR _uiReplayMessageVersion$[ebp]
	push	eax
	mov	ecx, DWORD PTR _kStream$[ebp]
	push	ecx
	lea	ecx, DWORD PTR _message$220894[ebp]
	call	?read@CvReplayMessage@@QAEXAAVFDataStream@@I@Z ; CvReplayMessage::read

; 569  : 		m_listReplayMessages.push_back(message);

	lea	edx, DWORD PTR _message$220894[ebp]
	push	edx
	mov	ecx, DWORD PTR _this$[ebp]
	add	ecx, 160				; 000000a0H
	call	?push_back@?$vector@VCvReplayMessage@@V?$allocator@VCvReplayMessage@@@std@@@std@@QAEXABVCvReplayMessage@@@Z ; std::vector<CvReplayMessage,std::allocator<CvReplayMessage> >::push_back

; 570  : 	}

	mov	DWORD PTR __$EHRec$[ebp+8], -1
	lea	ecx, DWORD PTR _message$220894[ebp]
	call	??1CvReplayMessage@@UAE@XZ		; CvReplayMessage::~CvReplayMessage
	jmp	SHORT $LN2@read
$LN1@read:

; 571  : 
; 572  : 	kStream >> m_iMapWidth;

	mov	eax, DWORD PTR _this$[ebp]
	add	eax, 212				; 000000d4H
	push	eax
	mov	ecx, DWORD PTR _kStream$[ebp]
	call	?Read@FDataStream@@IAEXAAH@Z		; FDataStream::Read

; 573  : 	kStream >> m_iMapHeight;

	mov	ecx, DWORD PTR _this$[ebp]
	add	ecx, 208				; 000000d0H
	push	ecx
	mov	ecx, DWORD PTR _kStream$[ebp]
	call	?Read@FDataStream@@IAEXAAH@Z		; FDataStream::Read

; 574  : 	kStream >> m_listPlots;

	mov	edx, DWORD PTR _this$[ebp]
	add	edx, 216				; 000000d8H
	push	edx
	mov	eax, DWORD PTR _kStream$[ebp]
	push	eax
	call	??$?5V?$map@IUPlotState@CvReplayInfo@@U?$less@I@std@@V?$allocator@U?$pair@$$CBIUPlotState@CvReplayInfo@@@std@@@4@@std@@@@YAAAVFDataStream@@AAV0@AAV?$vector@V?$map@IUPlotState@CvReplayInfo@@U?$less@I@std@@V?$allocator@U?$pair@$$CBIUPlotState@CvReplayInfo@@@std@@@4@@std@@V?$allocator@V?$map@IUPlotState@CvReplayInfo@@U?$less@I@std@@V?$allocator@U?$pair@$$CBIUPlotState@CvReplayInfo@@@std@@@4@@std@@@2@@std@@@Z ; operator>><std::map<unsigned int,CvReplayInfo::PlotState,std::less<unsigned int>,std::allocator<std::pair<unsigned int const ,CvReplayInfo::PlotState> > > >
	add	esp, 8

; 575  : 
; 576  : 	return bSuccess;

	mov	al, BYTE PTR _bSuccess$[ebp]

; 577  : }

	mov	ecx, DWORD PTR __$EHRec$[ebp]
	mov	DWORD PTR fs:0, ecx
	pop	ecx
	mov	ecx, DWORD PTR __$ArrayPad$[ebp]
	xor	ecx, ebp
	call	@__security_check_cookie@4
	mov	esp, ebp
	pop	ebp
	ret	4
_TEXT	ENDS
;	COMDAT text$x
text$x	SEGMENT
__unwindfunclet$?read@CvReplayInfo@@QAE_NAAVFDataStream@@@Z$0:
	lea	ecx, DWORD PTR _message$220894[ebp]
	jmp	??1CvReplayMessage@@UAE@XZ		; CvReplayMessage::~CvReplayMessage
__ehhandler$?read@CvReplayInfo@@QAE_NAAVFDataStream@@@Z:
	mov	edx, DWORD PTR [esp+8]
	lea	eax, DWORD PTR [edx+12]
	mov	ecx, DWORD PTR [edx-236]
	xor	ecx, eax
	call	@__security_check_cookie@4
	mov	ecx, DWORD PTR [edx-24]
	xor	ecx, eax
	call	@__security_check_cookie@4
	mov	eax, OFFSET __ehfuncinfo$?read@CvReplayInfo@@QAE_NAAVFDataStream@@@Z
	jmp	___CxxFrameHandler3
text$x	ENDS
?read@CvReplayInfo@@QAE_NAAVFDataStream@@@Z ENDP	; CvReplayInfo::read
PUBLIC	??$?6V?$map@IUPlotState@CvReplayInfo@@U?$less@I@std@@V?$allocator@U?$pair@$$CBIUPlotState@CvReplayInfo@@@std@@@4@@std@@@@YAAAVFDataStream@@AAV0@ABV?$vector@V?$map@IUPlotState@CvReplayInfo@@U?$less@I@std@@V?$allocator@U?$pair@$$CBIUPlotState@CvReplayInfo@@@std@@@4@@std@@V?$allocator@V?$map@IUPlotState@CvReplayInfo@@U?$less@I@std@@V?$allocator@U?$pair@$$CBIUPlotState@CvReplayInfo@@@std@@@4@@std@@@2@@std@@@Z ; operator<<<std::map<unsigned int,CvReplayInfo::PlotState,std::less<unsigned int>,std::allocator<std::pair<unsigned int const ,CvReplayInfo::PlotState> > > >
PUBLIC	??$?6V?$vector@V?$map@IHU?$less@I@std@@V?$allocator@U?$pair@$$CBIH@std@@@2@@std@@V?$allocator@V?$map@IHU?$less@I@std@@V?$allocator@U?$pair@$$CBIH@std@@@2@@std@@@2@@std@@@@YAAAVFDataStream@@AAV0@ABV?$vector@V?$vector@V?$map@IHU?$less@I@std@@V?$allocator@U?$pair@$$CBIH@std@@@2@@std@@V?$allocator@V?$map@IHU?$less@I@std@@V?$allocator@U?$pair@$$CBIH@std@@@2@@std@@@2@@std@@V?$allocator@V?$vector@V?$map@IHU?$less@I@std@@V?$allocator@U?$pair@$$CBIH@std@@@2@@std@@V?$allocator@V?$map@IHU?$less@I@std@@V?$allocator@U?$pair@$$CBIH@std@@@2@@std@@@2@@std@@@2@@std@@@Z ; operator<<<std::vector<std::map<unsigned int,int,std::less<unsigned int>,std::allocator<std::pair<unsigned int const ,int> > >,std::allocator<std::map<unsigned int,int,std::less<unsigned int>,std::allocator<std::pair<unsigned int const ,int> > > > > >
PUBLIC	??$?6V?$basic_string@DU?$char_traits@D@std@@V?$allocator@D@2@@std@@@@YAAAVFDataStream@@AAV0@ABV?$vector@V?$basic_string@DU?$char_traits@D@std@@V?$allocator@D@2@@std@@V?$allocator@V?$basic_string@DU?$char_traits@D@std@@V?$allocator@D@2@@std@@@2@@std@@@Z ; operator<<<std::basic_string<char,std::char_traits<char>,std::allocator<char> > >
PUBLIC	??$?6UPlayerInfo@CvReplayInfo@@@@YAAAVFDataStream@@AAV0@ABV?$vector@UPlayerInfo@CvReplayInfo@@V?$allocator@UPlayerInfo@CvReplayInfo@@@std@@@std@@@Z ; operator<<<CvReplayInfo::PlayerInfo>
PUBLIC	??$?6W4VictoryTypes@@@@YAAAVFDataStream@@AAV0@ABV?$vector@W4VictoryTypes@@V?$allocator@W4VictoryTypes@@@std@@@std@@@Z ; operator<<<enum VictoryTypes>
PUBLIC	??$?6W4GameOptionTypes@@@@YAAAVFDataStream@@AAV0@ABV?$vector@W4GameOptionTypes@@V?$allocator@W4GameOptionTypes@@@std@@@std@@@Z ; operator<<<enum GameOptionTypes>
PUBLIC	?write@CvReplayInfo@@QBEXAAVFDataStream@@@Z	; CvReplayInfo::write
EXTRN	?write@CvReplayMessage@@QBEXAAVFDataStream@@@Z:PROC ; CvReplayMessage::write
EXTRN	?Write@FDataStream@@IAEXABI@Z:PROC		; FDataStream::Write
EXTRN	?Version@CvReplayMessage@@SAIXZ:PROC		; CvReplayMessage::Version
EXTRN	??6@YAAAVFDataStream@@AAV0@ABW4CalendarTypes@@@Z:PROC ; operator<<
EXTRN	??6@YAAAVFDataStream@@AAV0@ABW4GameTypes@@@Z:PROC ; operator<<
EXTRN	??6@YAAAVFDataStream@@AAV0@ABW4VictoryTypes@@@Z:PROC ; operator<<
EXTRN	??6@YAAAVFDataStream@@AAV0@ABW4GameSpeedTypes@@@Z:PROC ; operator<<
EXTRN	??6@YAAAVFDataStream@@AAV0@ABW4EraTypes@@@Z:PROC ; operator<<
EXTRN	??6@YAAAVFDataStream@@AAV0@ABW4SeaLevelTypes@@@Z:PROC ; operator<<
EXTRN	??6@YAAAVFDataStream@@AAV0@ABW4ClimateTypes@@@Z:PROC ; operator<<
EXTRN	??6@YAAAVFDataStream@@AAV0@ABW4WorldSizeTypes@@@Z:PROC ; operator<<
EXTRN	?Write@FDataStream@@IAEXABV?$basic_string@DU?$char_traits@D@std@@V?$allocator@D@2@@std@@@Z:PROC ; FDataStream::Write
EXTRN	?Write@FDataStream@@IAEXABH@Z:PROC		; FDataStream::Write
; Function compile flags: /Odtp
;	COMDAT ?write@CvReplayInfo@@QBEXAAVFDataStream@@@Z
_TEXT	SEGMENT
_this$ = -32						; size = 4
$T236831 = -28						; size = 4
$T236819 = -24						; size = 4
$T236811 = -20						; size = 4
$T236780 = -16						; size = 4
$T236779 = -12						; size = 4
$T236778 = -8						; size = 4
_it$221166 = -4						; size = 4
_kStream$ = 8						; size = 4
?write@CvReplayInfo@@QBEXAAVFDataStream@@@Z PROC	; CvReplayInfo::write, COMDAT
; _this$ = ecx

; 580  : {

	push	ebp
	mov	ebp, esp
	sub	esp, 32					; 00000020H
	mov	DWORD PTR _this$[ebp], ecx

; 581  : 	kStream << REPLAY_VERSION;

	push	OFFSET ?REPLAY_VERSION@CvReplayInfo@@1HA ; CvReplayInfo::REPLAY_VERSION
	mov	ecx, DWORD PTR _kStream$[ebp]
	call	?Write@FDataStream@@IAEXABH@Z		; FDataStream::Write

; 582  : 	kStream << m_iActivePlayer;

	mov	eax, DWORD PTR _this$[ebp]
	add	eax, 4
	push	eax
	mov	ecx, DWORD PTR _kStream$[ebp]
	call	?Write@FDataStream@@IAEXABH@Z		; FDataStream::Write

; 583  : 	kStream << m_strMapScriptName;

	mov	ecx, DWORD PTR _this$[ebp]
	add	ecx, 8
	push	ecx
	mov	ecx, DWORD PTR _kStream$[ebp]
	call	?Write@FDataStream@@IAEXABV?$basic_string@DU?$char_traits@D@std@@V?$allocator@D@2@@std@@@Z ; FDataStream::Write

; 584  : 	kStream << m_eWorldSize;

	mov	edx, DWORD PTR _this$[ebp]
	add	edx, 36					; 00000024H
	push	edx
	mov	eax, DWORD PTR _kStream$[ebp]
	push	eax
	call	??6@YAAAVFDataStream@@AAV0@ABW4WorldSizeTypes@@@Z ; operator<<
	add	esp, 8

; 585  : 	kStream << m_eClimate;

	mov	ecx, DWORD PTR _this$[ebp]
	add	ecx, 40					; 00000028H
	push	ecx
	mov	edx, DWORD PTR _kStream$[ebp]
	push	edx
	call	??6@YAAAVFDataStream@@AAV0@ABW4ClimateTypes@@@Z ; operator<<
	add	esp, 8

; 586  : 	kStream << m_eSeaLevel;

	mov	eax, DWORD PTR _this$[ebp]
	add	eax, 44					; 0000002cH
	push	eax
	mov	ecx, DWORD PTR _kStream$[ebp]
	push	ecx
	call	??6@YAAAVFDataStream@@AAV0@ABW4SeaLevelTypes@@@Z ; operator<<
	add	esp, 8

; 587  : 	kStream << m_eEra;

	mov	edx, DWORD PTR _this$[ebp]
	add	edx, 48					; 00000030H
	push	edx
	mov	eax, DWORD PTR _kStream$[ebp]
	push	eax
	call	??6@YAAAVFDataStream@@AAV0@ABW4EraTypes@@@Z ; operator<<
	add	esp, 8

; 588  : 	kStream << m_eGameSpeed;

	mov	ecx, DWORD PTR _this$[ebp]
	add	ecx, 52					; 00000034H
	push	ecx
	mov	edx, DWORD PTR _kStream$[ebp]
	push	edx
	call	??6@YAAAVFDataStream@@AAV0@ABW4GameSpeedTypes@@@Z ; operator<<
	add	esp, 8

; 589  : 	kStream << m_listGameOptions;

	mov	eax, DWORD PTR _this$[ebp]
	add	eax, 56					; 00000038H
	push	eax
	mov	ecx, DWORD PTR _kStream$[ebp]
	push	ecx
	call	??$?6W4GameOptionTypes@@@@YAAAVFDataStream@@AAV0@ABV?$vector@W4GameOptionTypes@@V?$allocator@W4GameOptionTypes@@@std@@@std@@@Z ; operator<<<enum GameOptionTypes>
	add	esp, 8

; 590  : 	kStream << m_listVictoryTypes;

	mov	edx, DWORD PTR _this$[ebp]
	add	edx, 72					; 00000048H
	push	edx
	mov	eax, DWORD PTR _kStream$[ebp]
	push	eax
	call	??$?6W4VictoryTypes@@@@YAAAVFDataStream@@AAV0@ABV?$vector@W4VictoryTypes@@V?$allocator@W4VictoryTypes@@@std@@@std@@@Z ; operator<<<enum VictoryTypes>
	add	esp, 8

; 591  : 	kStream << m_eVictoryType;

	mov	ecx, DWORD PTR _this$[ebp]
	add	ecx, 88					; 00000058H
	push	ecx
	mov	edx, DWORD PTR _kStream$[ebp]
	push	edx
	call	??6@YAAAVFDataStream@@AAV0@ABW4VictoryTypes@@@Z ; operator<<
	add	esp, 8

; 592  : 	kStream << m_eGameType;

	mov	eax, DWORD PTR _this$[ebp]
	add	eax, 92					; 0000005cH
	push	eax
	mov	ecx, DWORD PTR _kStream$[ebp]
	push	ecx
	call	??6@YAAAVFDataStream@@AAV0@ABW4GameTypes@@@Z ; operator<<
	add	esp, 8

; 593  : 	kStream << m_iInitialTurn;

	mov	edx, DWORD PTR _this$[ebp]
	add	edx, 96					; 00000060H
	push	edx
	mov	ecx, DWORD PTR _kStream$[ebp]
	call	?Write@FDataStream@@IAEXABH@Z		; FDataStream::Write

; 594  : 	kStream << m_iStartYear;

	mov	eax, DWORD PTR _this$[ebp]
	add	eax, 104				; 00000068H
	push	eax
	mov	ecx, DWORD PTR _kStream$[ebp]
	call	?Write@FDataStream@@IAEXABH@Z		; FDataStream::Write

; 595  : 	kStream << m_iFinalTurn;

	mov	ecx, DWORD PTR _this$[ebp]
	add	ecx, 100				; 00000064H
	push	ecx
	mov	ecx, DWORD PTR _kStream$[ebp]
	call	?Write@FDataStream@@IAEXABH@Z		; FDataStream::Write

; 596  : 	kStream << m_strFinalDate;

	mov	edx, DWORD PTR _this$[ebp]
	add	edx, 108				; 0000006cH
	push	edx
	mov	ecx, DWORD PTR _kStream$[ebp]
	call	?Write@FDataStream@@IAEXABV?$basic_string@DU?$char_traits@D@std@@V?$allocator@D@2@@std@@@Z ; FDataStream::Write

; 597  : 	kStream << m_eCalendar;

	mov	eax, DWORD PTR _this$[ebp]
	add	eax, 136				; 00000088H
	push	eax
	mov	ecx, DWORD PTR _kStream$[ebp]
	push	ecx
	call	??6@YAAAVFDataStream@@AAV0@ABW4CalendarTypes@@@Z ; operator<<
	add	esp, 8

; 598  : 	kStream << m_iNormalizedScore;

	mov	edx, DWORD PTR _this$[ebp]
	add	edx, 140				; 0000008cH
	push	edx
	mov	ecx, DWORD PTR _kStream$[ebp]
	call	?Write@FDataStream@@IAEXABH@Z		; FDataStream::Write

; 599  : 
; 600  : 	kStream << m_listPlayerInfo;

	mov	eax, DWORD PTR _this$[ebp]
	add	eax, 144				; 00000090H
	push	eax
	mov	ecx, DWORD PTR _kStream$[ebp]
	push	ecx
	call	??$?6UPlayerInfo@CvReplayInfo@@@@YAAAVFDataStream@@AAV0@ABV?$vector@UPlayerInfo@CvReplayInfo@@V?$allocator@UPlayerInfo@CvReplayInfo@@@std@@@std@@@Z ; operator<<<CvReplayInfo::PlayerInfo>
	add	esp, 8

; 601  : 	kStream << m_dataSetMap;

	mov	edx, DWORD PTR _this$[ebp]
	add	edx, 176				; 000000b0H
	push	edx
	mov	eax, DWORD PTR _kStream$[ebp]
	push	eax
	call	??$?6V?$basic_string@DU?$char_traits@D@std@@V?$allocator@D@2@@std@@@@YAAAVFDataStream@@AAV0@ABV?$vector@V?$basic_string@DU?$char_traits@D@std@@V?$allocator@D@2@@std@@V?$allocator@V?$basic_string@DU?$char_traits@D@std@@V?$allocator@D@2@@std@@@2@@std@@@Z ; operator<<<std::basic_string<char,std::char_traits<char>,std::allocator<char> > >
	add	esp, 8

; 602  : 	kStream << m_listPlayerDataSets;

	mov	ecx, DWORD PTR _this$[ebp]
	add	ecx, 192				; 000000c0H
	push	ecx
	mov	edx, DWORD PTR _kStream$[ebp]
	push	edx
	call	??$?6V?$vector@V?$map@IHU?$less@I@std@@V?$allocator@U?$pair@$$CBIH@std@@@2@@std@@V?$allocator@V?$map@IHU?$less@I@std@@V?$allocator@U?$pair@$$CBIH@std@@@2@@std@@@2@@std@@@@YAAAVFDataStream@@AAV0@ABV?$vector@V?$vector@V?$map@IHU?$less@I@std@@V?$allocator@U?$pair@$$CBIH@std@@@2@@std@@V?$allocator@V?$map@IHU?$less@I@std@@V?$allocator@U?$pair@$$CBIH@std@@@2@@std@@@2@@std@@V?$allocator@V?$vector@V?$map@IHU?$less@I@std@@V?$allocator@U?$pair@$$CBIH@std@@@2@@std@@V?$allocator@V?$map@IHU?$less@I@std@@V?$allocator@U?$pair@$$CBIH@std@@@2@@std@@@2@@std@@@2@@std@@@Z ; operator<<<std::vector<std::map<unsigned int,int,std::less<unsigned int>,std::allocator<std::pair<unsigned int const ,int> > >,std::allocator<std::map<unsigned int,int,std::less<unsigned int>,std::allocator<std::pair<unsigned int const ,int> > > > > >
	add	esp, 8

; 603  : 
; 604  : 	kStream << CvReplayMessage::Version();

	call	?Version@CvReplayMessage@@SAIXZ		; CvReplayMessage::Version
	mov	DWORD PTR $T236778[ebp], eax
	lea	eax, DWORD PTR $T236778[ebp]
	push	eax
	mov	ecx, DWORD PTR _kStream$[ebp]
	call	?Write@FDataStream@@IAEXABI@Z		; FDataStream::Write

; 605  : 	kStream << m_listReplayMessages.size();

	mov	ecx, DWORD PTR _this$[ebp]
	add	ecx, 160				; 000000a0H
	mov	DWORD PTR $T236811[ebp], ecx
	mov	edx, DWORD PTR $T236811[ebp]
	mov	eax, DWORD PTR $T236811[ebp]
	mov	ecx, DWORD PTR [edx+8]
	sub	ecx, DWORD PTR [eax+4]
	mov	eax, ecx
	cdq
	mov	ecx, 60					; 0000003cH
	idiv	ecx
	mov	DWORD PTR $T236779[ebp], eax
	lea	edx, DWORD PTR $T236779[ebp]
	push	edx
	mov	ecx, DWORD PTR _kStream$[ebp]
	call	?Write@FDataStream@@IAEXABI@Z		; FDataStream::Write

; 606  : 	for(ReplayMessageList::const_iterator it = m_listReplayMessages.begin(); it != m_listReplayMessages.end(); ++it)

	mov	eax, DWORD PTR _this$[ebp]
	mov	ecx, DWORD PTR [eax+164]
	mov	DWORD PTR $T236819[ebp], ecx
	mov	edx, DWORD PTR $T236819[ebp]
	mov	DWORD PTR _it$221166[ebp], edx
	jmp	SHORT $LN3@write
$LN2@write:
	mov	eax, DWORD PTR _it$221166[ebp]
	add	eax, 60					; 0000003cH
	mov	DWORD PTR _it$221166[ebp], eax
$LN3@write:
	mov	ecx, DWORD PTR _this$[ebp]
	mov	edx, DWORD PTR [ecx+168]
	mov	DWORD PTR $T236831[ebp], edx
	mov	eax, DWORD PTR $T236831[ebp]
	mov	DWORD PTR $T236780[ebp], eax
	mov	ecx, DWORD PTR _it$221166[ebp]
	xor	edx, edx
	cmp	ecx, DWORD PTR $T236780[ebp]
	sete	dl
	movzx	eax, dl
	neg	eax
	sbb	eax, eax
	add	eax, 1
	movzx	ecx, al
	test	ecx, ecx
	je	SHORT $LN1@write

; 607  : 	{
; 608  : 		(*it).write(kStream);

	mov	edx, DWORD PTR _kStream$[ebp]
	push	edx
	mov	ecx, DWORD PTR _it$221166[ebp]
	call	?write@CvReplayMessage@@QBEXAAVFDataStream@@@Z ; CvReplayMessage::write

; 609  : 	}

	jmp	SHORT $LN2@write
$LN1@write:

; 610  : 
; 611  : 	kStream << m_iMapWidth;

	mov	eax, DWORD PTR _this$[ebp]
	add	eax, 212				; 000000d4H
	push	eax
	mov	ecx, DWORD PTR _kStream$[ebp]
	call	?Write@FDataStream@@IAEXABH@Z		; FDataStream::Write

; 612  : 	kStream << m_iMapHeight;

	mov	ecx, DWORD PTR _this$[ebp]
	add	ecx, 208				; 000000d0H
	push	ecx
	mov	ecx, DWORD PTR _kStream$[ebp]
	call	?Write@FDataStream@@IAEXABH@Z		; FDataStream::Write

; 613  : 	kStream << m_listPlots;

	mov	edx, DWORD PTR _this$[ebp]
	add	edx, 216				; 000000d8H
	push	edx
	mov	eax, DWORD PTR _kStream$[ebp]
	push	eax
	call	??$?6V?$map@IUPlotState@CvReplayInfo@@U?$less@I@std@@V?$allocator@U?$pair@$$CBIUPlotState@CvReplayInfo@@@std@@@4@@std@@@@YAAAVFDataStream@@AAV0@ABV?$vector@V?$map@IUPlotState@CvReplayInfo@@U?$less@I@std@@V?$allocator@U?$pair@$$CBIUPlotState@CvReplayInfo@@@std@@@4@@std@@V?$allocator@V?$map@IUPlotState@CvReplayInfo@@U?$less@I@std@@V?$allocator@U?$pair@$$CBIUPlotState@CvReplayInfo@@@std@@@4@@std@@@2@@std@@@Z ; operator<<<std::map<unsigned int,CvReplayInfo::PlotState,std::less<unsigned int>,std::allocator<std::pair<unsigned int const ,CvReplayInfo::PlotState> > > >
	add	esp, 8

; 614  : }

	mov	esp, ebp
	pop	ebp
	ret	4
?write@CvReplayInfo@@QBEXAAVFDataStream@@@Z ENDP	; CvReplayInfo::write
_TEXT	ENDS
PUBLIC	??6@YAAAVFDataStream@@AAV0@ABUPlayerInfo@CvReplayInfo@@@Z ; operator<<
EXTRN	??6@YAAAVFDataStream@@AAV0@ABW4HandicapTypes@@@Z:PROC ; operator<<
EXTRN	??6@YAAAVFDataStream@@AAV0@ABW4PlayerColorTypes@@@Z:PROC ; operator<<
EXTRN	??6@YAAAVFDataStream@@AAV0@ABW4LeaderHeadTypes@@@Z:PROC ; operator<<
EXTRN	??6@YAAAVFDataStream@@AAV0@ABW4CivilizationTypes@@@Z:PROC ; operator<<
; Function compile flags: /Odtp
;	COMDAT ??6@YAAAVFDataStream@@AAV0@ABUPlayerInfo@CvReplayInfo@@@Z
_TEXT	SEGMENT
_saveTo$ = 8						; size = 4
_readFrom$ = 12						; size = 4
??6@YAAAVFDataStream@@AAV0@ABUPlayerInfo@CvReplayInfo@@@Z PROC ; operator<<, COMDAT

; 617  : {

	push	ebp
	mov	ebp, esp

; 618  : 	saveTo << readFrom.m_eCivilization;

	mov	eax, DWORD PTR _readFrom$[ebp]
	push	eax
	mov	ecx, DWORD PTR _saveTo$[ebp]
	push	ecx
	call	??6@YAAAVFDataStream@@AAV0@ABW4CivilizationTypes@@@Z ; operator<<
	add	esp, 8

; 619  : 	saveTo << readFrom.m_eLeader;

	mov	edx, DWORD PTR _readFrom$[ebp]
	add	edx, 4
	push	edx
	mov	eax, DWORD PTR _saveTo$[ebp]
	push	eax
	call	??6@YAAAVFDataStream@@AAV0@ABW4LeaderHeadTypes@@@Z ; operator<<
	add	esp, 8

; 620  : 	saveTo << readFrom.m_ePlayerColor;

	mov	ecx, DWORD PTR _readFrom$[ebp]
	add	ecx, 8
	push	ecx
	mov	edx, DWORD PTR _saveTo$[ebp]
	push	edx
	call	??6@YAAAVFDataStream@@AAV0@ABW4PlayerColorTypes@@@Z ; operator<<
	add	esp, 8

; 621  : 	saveTo << readFrom.m_eDifficulty;

	mov	eax, DWORD PTR _readFrom$[ebp]
	add	eax, 12					; 0000000cH
	push	eax
	mov	ecx, DWORD PTR _saveTo$[ebp]
	push	ecx
	call	??6@YAAAVFDataStream@@AAV0@ABW4HandicapTypes@@@Z ; operator<<
	add	esp, 8

; 622  : 	saveTo << readFrom.m_strCustomLeaderName;

	mov	edx, DWORD PTR _readFrom$[ebp]
	add	edx, 16					; 00000010H
	push	edx
	mov	ecx, DWORD PTR _saveTo$[ebp]
	call	?Write@FDataStream@@IAEXABV?$basic_string@DU?$char_traits@D@std@@V?$allocator@D@2@@std@@@Z ; FDataStream::Write

; 623  : 	saveTo << readFrom.m_strCustomCivilizationName;

	mov	eax, DWORD PTR _readFrom$[ebp]
	add	eax, 44					; 0000002cH
	push	eax
	mov	ecx, DWORD PTR _saveTo$[ebp]
	call	?Write@FDataStream@@IAEXABV?$basic_string@DU?$char_traits@D@std@@V?$allocator@D@2@@std@@@Z ; FDataStream::Write

; 624  : 	saveTo << readFrom.m_strCustomCivilizationShortName;

	mov	ecx, DWORD PTR _readFrom$[ebp]
	add	ecx, 72					; 00000048H
	push	ecx
	mov	ecx, DWORD PTR _saveTo$[ebp]
	call	?Write@FDataStream@@IAEXABV?$basic_string@DU?$char_traits@D@std@@V?$allocator@D@2@@std@@@Z ; FDataStream::Write

; 625  : 	saveTo << readFrom.m_strCustomCivilizationAdjective;

	mov	edx, DWORD PTR _readFrom$[ebp]
	add	edx, 100				; 00000064H
	push	edx
	mov	ecx, DWORD PTR _saveTo$[ebp]
	call	?Write@FDataStream@@IAEXABV?$basic_string@DU?$char_traits@D@std@@V?$allocator@D@2@@std@@@Z ; FDataStream::Write

; 626  : 
; 627  : 	return saveTo;

	mov	eax, DWORD PTR _saveTo$[ebp]

; 628  : }

	pop	ebp
	ret	0
??6@YAAAVFDataStream@@AAV0@ABUPlayerInfo@CvReplayInfo@@@Z ENDP ; operator<<
_TEXT	ENDS
PUBLIC	??5@YAAAVFDataStream@@AAV0@AAUPlayerInfo@CvReplayInfo@@@Z ; operator>>
EXTRN	??5@YAAAVFDataStream@@AAV0@AAW4HandicapTypes@@@Z:PROC ; operator>>
EXTRN	??5@YAAAVFDataStream@@AAV0@AAW4PlayerColorTypes@@@Z:PROC ; operator>>
EXTRN	??5@YAAAVFDataStream@@AAV0@AAW4LeaderHeadTypes@@@Z:PROC ; operator>>
EXTRN	??5@YAAAVFDataStream@@AAV0@AAW4CivilizationTypes@@@Z:PROC ; operator>>
; Function compile flags: /Odtp
;	COMDAT ??5@YAAAVFDataStream@@AAV0@AAUPlayerInfo@CvReplayInfo@@@Z
_TEXT	SEGMENT
_loadFrom$ = 8						; size = 4
_writeTo$ = 12						; size = 4
??5@YAAAVFDataStream@@AAV0@AAUPlayerInfo@CvReplayInfo@@@Z PROC ; operator>>, COMDAT

; 631  : {

	push	ebp
	mov	ebp, esp

; 632  : 	loadFrom >> writeTo.m_eCivilization;

	mov	eax, DWORD PTR _writeTo$[ebp]
	push	eax
	mov	ecx, DWORD PTR _loadFrom$[ebp]
	push	ecx
	call	??5@YAAAVFDataStream@@AAV0@AAW4CivilizationTypes@@@Z ; operator>>
	add	esp, 8

; 633  : 	loadFrom >> writeTo.m_eLeader;

	mov	edx, DWORD PTR _writeTo$[ebp]
	add	edx, 4
	push	edx
	mov	eax, DWORD PTR _loadFrom$[ebp]
	push	eax
	call	??5@YAAAVFDataStream@@AAV0@AAW4LeaderHeadTypes@@@Z ; operator>>
	add	esp, 8

; 634  : 	loadFrom >> writeTo.m_ePlayerColor;

	mov	ecx, DWORD PTR _writeTo$[ebp]
	add	ecx, 8
	push	ecx
	mov	edx, DWORD PTR _loadFrom$[ebp]
	push	edx
	call	??5@YAAAVFDataStream@@AAV0@AAW4PlayerColorTypes@@@Z ; operator>>
	add	esp, 8

; 635  : 	loadFrom >> writeTo.m_eDifficulty;

	mov	eax, DWORD PTR _writeTo$[ebp]
	add	eax, 12					; 0000000cH
	push	eax
	mov	ecx, DWORD PTR _loadFrom$[ebp]
	push	ecx
	call	??5@YAAAVFDataStream@@AAV0@AAW4HandicapTypes@@@Z ; operator>>
	add	esp, 8

; 636  : 	loadFrom >> writeTo.m_strCustomLeaderName;

	mov	edx, DWORD PTR _writeTo$[ebp]
	add	edx, 16					; 00000010H
	push	edx
	mov	ecx, DWORD PTR _loadFrom$[ebp]
	call	?Read@FDataStream@@IAEXAAV?$basic_string@DU?$char_traits@D@std@@V?$allocator@D@2@@std@@@Z ; FDataStream::Read

; 637  : 	loadFrom >> writeTo.m_strCustomCivilizationName;

	mov	eax, DWORD PTR _writeTo$[ebp]
	add	eax, 44					; 0000002cH
	push	eax
	mov	ecx, DWORD PTR _loadFrom$[ebp]
	call	?Read@FDataStream@@IAEXAAV?$basic_string@DU?$char_traits@D@std@@V?$allocator@D@2@@std@@@Z ; FDataStream::Read

; 638  : 	loadFrom >> writeTo.m_strCustomCivilizationShortName;

	mov	ecx, DWORD PTR _writeTo$[ebp]
	add	ecx, 72					; 00000048H
	push	ecx
	mov	ecx, DWORD PTR _loadFrom$[ebp]
	call	?Read@FDataStream@@IAEXAAV?$basic_string@DU?$char_traits@D@std@@V?$allocator@D@2@@std@@@Z ; FDataStream::Read

; 639  : 	loadFrom >> writeTo.m_strCustomCivilizationAdjective;

	mov	edx, DWORD PTR _writeTo$[ebp]
	add	edx, 100				; 00000064H
	push	edx
	mov	ecx, DWORD PTR _loadFrom$[ebp]
	call	?Read@FDataStream@@IAEXAAV?$basic_string@DU?$char_traits@D@std@@V?$allocator@D@2@@std@@@Z ; FDataStream::Read

; 640  : 
; 641  : 	return loadFrom;

	mov	eax, DWORD PTR _loadFrom$[ebp]

; 642  : }

	pop	ebp
	ret	0
??5@YAAAVFDataStream@@AAV0@AAUPlayerInfo@CvReplayInfo@@@Z ENDP ; operator>>
_TEXT	ENDS
PUBLIC	??6@YAAAVFDataStream@@AAV0@ABUOldPlotState@CvReplayInfo@@@Z ; operator<<
EXTRN	?Write@FDataStream@@IAEXABE@Z:PROC		; FDataStream::Write
; Function compile flags: /Odtp
;	COMDAT ??6@YAAAVFDataStream@@AAV0@ABUOldPlotState@CvReplayInfo@@@Z
_TEXT	SEGMENT
$T236884 = -3						; size = 1
$T236883 = -2						; size = 1
_uiRiverData$ = -1					; size = 1
_saveTo$ = 8						; size = 4
_readFrom$ = 12						; size = 4
??6@YAAAVFDataStream@@AAV0@ABUOldPlotState@CvReplayInfo@@@Z PROC ; operator<<, COMDAT

; 645  : {

	push	ebp
	mov	ebp, esp
	push	ecx

; 646  : 	saveTo << (unsigned char)readFrom.m_eTerrain;

	mov	eax, DWORD PTR _readFrom$[ebp]
	mov	cl, BYTE PTR [eax]
	mov	BYTE PTR $T236883[ebp], cl
	lea	edx, DWORD PTR $T236883[ebp]
	push	edx
	mov	ecx, DWORD PTR _saveTo$[ebp]
	call	?Write@FDataStream@@IAEXABE@Z		; FDataStream::Write

; 647  : 	saveTo << (unsigned char)readFrom.m_eFeature;

	mov	eax, DWORD PTR _readFrom$[ebp]
	mov	cl, BYTE PTR [eax+4]
	mov	BYTE PTR $T236884[ebp], cl
	lea	edx, DWORD PTR $T236884[ebp]
	push	edx
	mov	ecx, DWORD PTR _saveTo$[ebp]
	call	?Write@FDataStream@@IAEXABE@Z		; FDataStream::Write

; 648  : 
; 649  : 	unsigned char uiRiverData = 0;

	mov	BYTE PTR _uiRiverData$[ebp], 0

; 650  : 	uiRiverData |= (readFrom.m_bNWOfRiver) << 1;

	mov	eax, DWORD PTR _readFrom$[ebp]
	movzx	ecx, BYTE PTR [eax+10]
	shl	ecx, 1
	movzx	edx, BYTE PTR _uiRiverData$[ebp]
	or	edx, ecx
	mov	BYTE PTR _uiRiverData$[ebp], dl

; 651  : 	uiRiverData |= (readFrom.m_bWOfRiver) << 2;

	mov	eax, DWORD PTR _readFrom$[ebp]
	movzx	ecx, BYTE PTR [eax+9]
	shl	ecx, 2
	movzx	edx, BYTE PTR _uiRiverData$[ebp]
	or	edx, ecx
	mov	BYTE PTR _uiRiverData$[ebp], dl

; 652  : 	uiRiverData |= (readFrom.m_bNEOfRiver) << 3;

	mov	eax, DWORD PTR _readFrom$[ebp]
	movzx	ecx, BYTE PTR [eax+8]
	shl	ecx, 3
	movzx	edx, BYTE PTR _uiRiverData$[ebp]
	or	edx, ecx
	mov	BYTE PTR _uiRiverData$[ebp], dl

; 653  : 
; 654  : 	saveTo << uiRiverData;

	lea	eax, DWORD PTR _uiRiverData$[ebp]
	push	eax
	mov	ecx, DWORD PTR _saveTo$[ebp]
	call	?Write@FDataStream@@IAEXABE@Z		; FDataStream::Write

; 655  : 
; 656  : 	return saveTo;

	mov	eax, DWORD PTR _saveTo$[ebp]

; 657  : }

	mov	esp, ebp
	pop	ebp
	ret	0
??6@YAAAVFDataStream@@AAV0@ABUOldPlotState@CvReplayInfo@@@Z ENDP ; operator<<
_TEXT	ENDS
PUBLIC	??5@YAAAVFDataStream@@AAV0@AAUOldPlotState@CvReplayInfo@@@Z ; operator>>
EXTRN	?Read@FDataStream@@IAEXAAE@Z:PROC		; FDataStream::Read
; Function compile flags: /Odtp
;	COMDAT ??5@YAAAVFDataStream@@AAV0@AAUOldPlotState@CvReplayInfo@@@Z
_TEXT	SEGMENT
_ucTempVal$ = -1					; size = 1
_loadFrom$ = 8						; size = 4
_writeTo$ = 12						; size = 4
??5@YAAAVFDataStream@@AAV0@AAUOldPlotState@CvReplayInfo@@@Z PROC ; operator>>, COMDAT

; 660  : {

	push	ebp
	mov	ebp, esp
	push	ecx

; 661  : 	unsigned char ucTempVal;
; 662  : 	loadFrom >> ucTempVal;

	lea	eax, DWORD PTR _ucTempVal$[ebp]
	push	eax
	mov	ecx, DWORD PTR _loadFrom$[ebp]
	call	?Read@FDataStream@@IAEXAAE@Z		; FDataStream::Read

; 663  : 	writeTo.m_eTerrain = (TerrainTypes)ucTempVal;

	movzx	ecx, BYTE PTR _ucTempVal$[ebp]
	mov	edx, DWORD PTR _writeTo$[ebp]
	mov	DWORD PTR [edx], ecx

; 664  : 
; 665  : 	loadFrom >> ucTempVal;

	lea	eax, DWORD PTR _ucTempVal$[ebp]
	push	eax
	mov	ecx, DWORD PTR _loadFrom$[ebp]
	call	?Read@FDataStream@@IAEXAAE@Z		; FDataStream::Read

; 666  : 	writeTo.m_eFeature = (FeatureTypes)ucTempVal;

	movzx	ecx, BYTE PTR _ucTempVal$[ebp]
	mov	edx, DWORD PTR _writeTo$[ebp]
	mov	DWORD PTR [edx+4], ecx

; 667  : 
; 668  : 	loadFrom >> ucTempVal;

	lea	eax, DWORD PTR _ucTempVal$[ebp]
	push	eax
	mov	ecx, DWORD PTR _loadFrom$[ebp]
	call	?Read@FDataStream@@IAEXAAE@Z		; FDataStream::Read

; 669  : 	writeTo.m_bNWOfRiver = (ucTempVal & (1 << 1)) != 0;

	movzx	ecx, BYTE PTR _ucTempVal$[ebp]
	and	ecx, 2
	neg	ecx
	sbb	ecx, ecx
	neg	ecx
	mov	edx, DWORD PTR _writeTo$[ebp]
	mov	BYTE PTR [edx+10], cl

; 670  : 	writeTo.m_bWOfRiver = (ucTempVal & (1 << 2)) != 0;

	movzx	eax, BYTE PTR _ucTempVal$[ebp]
	and	eax, 4
	neg	eax
	sbb	eax, eax
	neg	eax
	mov	ecx, DWORD PTR _writeTo$[ebp]
	mov	BYTE PTR [ecx+9], al

; 671  : 	writeTo.m_bNEOfRiver = (ucTempVal & (1 << 3)) != 0;

	movzx	edx, BYTE PTR _ucTempVal$[ebp]
	and	edx, 8
	neg	edx
	sbb	edx, edx
	neg	edx
	mov	eax, DWORD PTR _writeTo$[ebp]
	mov	BYTE PTR [eax+8], dl

; 672  : 
; 673  : 	return loadFrom;

	mov	eax, DWORD PTR _loadFrom$[ebp]

; 674  : }

	mov	esp, ebp
	pop	ebp
	ret	0
??5@YAAAVFDataStream@@AAV0@AAUOldPlotState@CvReplayInfo@@@Z ENDP ; operator>>
_TEXT	ENDS
PUBLIC	??6@YAAAVFDataStream@@AAV0@ABUPlotState@CvReplayInfo@@@Z ; operator<<
; Function compile flags: /Odtp
;	COMDAT ??6@YAAAVFDataStream@@AAV0@ABUPlotState@CvReplayInfo@@@Z
_TEXT	SEGMENT
$T236909 = -4						; size = 1
$T236908 = -3						; size = 1
$T236907 = -2						; size = 1
_uiRiverData$ = -1					; size = 1
_saveTo$ = 8						; size = 4
_readFrom$ = 12						; size = 4
??6@YAAAVFDataStream@@AAV0@ABUPlotState@CvReplayInfo@@@Z PROC ; operator<<, COMDAT

; 677  : {

	push	ebp
	mov	ebp, esp
	push	ecx

; 678  : 	saveTo << (unsigned char)readFrom.m_ePlotType;

	mov	eax, DWORD PTR _readFrom$[ebp]
	mov	cl, BYTE PTR [eax]
	mov	BYTE PTR $T236907[ebp], cl
	lea	edx, DWORD PTR $T236907[ebp]
	push	edx
	mov	ecx, DWORD PTR _saveTo$[ebp]
	call	?Write@FDataStream@@IAEXABE@Z		; FDataStream::Write

; 679  : 	saveTo << (unsigned char)readFrom.m_eTerrain;

	mov	eax, DWORD PTR _readFrom$[ebp]
	mov	cl, BYTE PTR [eax+4]
	mov	BYTE PTR $T236908[ebp], cl
	lea	edx, DWORD PTR $T236908[ebp]
	push	edx
	mov	ecx, DWORD PTR _saveTo$[ebp]
	call	?Write@FDataStream@@IAEXABE@Z		; FDataStream::Write

; 680  : 	saveTo << (unsigned char)readFrom.m_eFeature;

	mov	eax, DWORD PTR _readFrom$[ebp]
	mov	cl, BYTE PTR [eax+8]
	mov	BYTE PTR $T236909[ebp], cl
	lea	edx, DWORD PTR $T236909[ebp]
	push	edx
	mov	ecx, DWORD PTR _saveTo$[ebp]
	call	?Write@FDataStream@@IAEXABE@Z		; FDataStream::Write

; 681  : 
; 682  : 	unsigned char uiRiverData = 0;

	mov	BYTE PTR _uiRiverData$[ebp], 0

; 683  : 	uiRiverData |= (readFrom.m_bNWOfRiver) << 1;

	mov	eax, DWORD PTR _readFrom$[ebp]
	movzx	ecx, BYTE PTR [eax+14]
	shl	ecx, 1
	movzx	edx, BYTE PTR _uiRiverData$[ebp]
	or	edx, ecx
	mov	BYTE PTR _uiRiverData$[ebp], dl

; 684  : 	uiRiverData |= (readFrom.m_bWOfRiver) << 2;

	mov	eax, DWORD PTR _readFrom$[ebp]
	movzx	ecx, BYTE PTR [eax+13]
	shl	ecx, 2
	movzx	edx, BYTE PTR _uiRiverData$[ebp]
	or	edx, ecx
	mov	BYTE PTR _uiRiverData$[ebp], dl

; 685  : 	uiRiverData |= (readFrom.m_bNEOfRiver) << 3;

	mov	eax, DWORD PTR _readFrom$[ebp]
	movzx	ecx, BYTE PTR [eax+12]
	shl	ecx, 3
	movzx	edx, BYTE PTR _uiRiverData$[ebp]
	or	edx, ecx
	mov	BYTE PTR _uiRiverData$[ebp], dl

; 686  : 
; 687  : 	saveTo << uiRiverData;

	lea	eax, DWORD PTR _uiRiverData$[ebp]
	push	eax
	mov	ecx, DWORD PTR _saveTo$[ebp]
	call	?Write@FDataStream@@IAEXABE@Z		; FDataStream::Write

; 688  : 
; 689  : 	return saveTo;

	mov	eax, DWORD PTR _saveTo$[ebp]

; 690  : }

	mov	esp, ebp
	pop	ebp
	ret	0
??6@YAAAVFDataStream@@AAV0@ABUPlotState@CvReplayInfo@@@Z ENDP ; operator<<
_TEXT	ENDS
PUBLIC	??5@YAAAVFDataStream@@AAV0@AAUPlotState@CvReplayInfo@@@Z ; operator>>
; Function compile flags: /Odtp
;	COMDAT ??5@YAAAVFDataStream@@AAV0@AAUPlotState@CvReplayInfo@@@Z
_TEXT	SEGMENT
_ucTempVal$ = -1					; size = 1
_loadFrom$ = 8						; size = 4
_writeTo$ = 12						; size = 4
??5@YAAAVFDataStream@@AAV0@AAUPlotState@CvReplayInfo@@@Z PROC ; operator>>, COMDAT

; 693  : {

	push	ebp
	mov	ebp, esp
	push	ecx

; 694  : 	unsigned char ucTempVal;
; 695  : 
; 696  : 	loadFrom >> ucTempVal;

	lea	eax, DWORD PTR _ucTempVal$[ebp]
	push	eax
	mov	ecx, DWORD PTR _loadFrom$[ebp]
	call	?Read@FDataStream@@IAEXAAE@Z		; FDataStream::Read

; 697  : 	writeTo.m_ePlotType = (PlotTypes)ucTempVal;

	movzx	ecx, BYTE PTR _ucTempVal$[ebp]
	mov	edx, DWORD PTR _writeTo$[ebp]
	mov	DWORD PTR [edx], ecx

; 698  : 
; 699  : 	loadFrom >> ucTempVal;

	lea	eax, DWORD PTR _ucTempVal$[ebp]
	push	eax
	mov	ecx, DWORD PTR _loadFrom$[ebp]
	call	?Read@FDataStream@@IAEXAAE@Z		; FDataStream::Read

; 700  : 	writeTo.m_eTerrain = (TerrainTypes)ucTempVal;

	movzx	ecx, BYTE PTR _ucTempVal$[ebp]
	mov	edx, DWORD PTR _writeTo$[ebp]
	mov	DWORD PTR [edx+4], ecx

; 701  : 
; 702  : 	loadFrom >> ucTempVal;

	lea	eax, DWORD PTR _ucTempVal$[ebp]
	push	eax
	mov	ecx, DWORD PTR _loadFrom$[ebp]
	call	?Read@FDataStream@@IAEXAAE@Z		; FDataStream::Read

; 703  : 	writeTo.m_eFeature = (FeatureTypes)ucTempVal;

	movzx	ecx, BYTE PTR _ucTempVal$[ebp]
	mov	edx, DWORD PTR _writeTo$[ebp]
	mov	DWORD PTR [edx+8], ecx

; 704  : 
; 705  : 	loadFrom >> ucTempVal;

	lea	eax, DWORD PTR _ucTempVal$[ebp]
	push	eax
	mov	ecx, DWORD PTR _loadFrom$[ebp]
	call	?Read@FDataStream@@IAEXAAE@Z		; FDataStream::Read

; 706  : 	writeTo.m_bNWOfRiver = (ucTempVal & (1 << 1)) != 0;

	movzx	ecx, BYTE PTR _ucTempVal$[ebp]
	and	ecx, 2
	neg	ecx
	sbb	ecx, ecx
	neg	ecx
	mov	edx, DWORD PTR _writeTo$[ebp]
	mov	BYTE PTR [edx+14], cl

; 707  : 	writeTo.m_bWOfRiver = (ucTempVal & (1 << 2)) != 0;

	movzx	eax, BYTE PTR _ucTempVal$[ebp]
	and	eax, 4
	neg	eax
	sbb	eax, eax
	neg	eax
	mov	ecx, DWORD PTR _writeTo$[ebp]
	mov	BYTE PTR [ecx+13], al

; 708  : 	writeTo.m_bNEOfRiver = (ucTempVal & (1 << 3)) != 0;

	movzx	edx, BYTE PTR _ucTempVal$[ebp]
	and	edx, 8
	neg	edx
	sbb	edx, edx
	neg	edx
	mov	eax, DWORD PTR _writeTo$[ebp]
	mov	BYTE PTR [eax+12], dl

; 709  : 
; 710  : 	return loadFrom;

	mov	eax, DWORD PTR _loadFrom$[ebp]

; 711  : }

	mov	esp, ebp
	pop	ebp
	ret	0
??5@YAAAVFDataStream@@AAV0@AAUPlotState@CvReplayInfo@@@Z ENDP ; operator>>
_TEXT	ENDS
PUBLIC	??6@YAAAVFDataStream@@AAV0@ABV?$map@IHU?$less@I@std@@V?$allocator@U?$pair@$$CBIH@std@@@2@@std@@@Z ; operator<<
; Function compile flags: /Odtp
;	COMDAT ??6@YAAAVFDataStream@@AAV0@ABV?$map@IHU?$less@I@std@@V?$allocator@U?$pair@$$CBIH@std@@@2@@std@@@Z
_TEXT	SEGMENT
$T237035 = -48						; size = 4
$T237023 = -44						; size = 4
$T236999 = -40						; size = 4
$T236959 = -24						; size = 4
$T236951 = -20						; size = 4
$T236942 = -16						; size = 4
$T236938 = -12						; size = 4
_it$221281 = -8						; size = 4
_count$ = -4						; size = 4
_saveTo$ = 8						; size = 4
_readFrom$ = 12						; size = 4
??6@YAAAVFDataStream@@AAV0@ABV?$map@IHU?$less@I@std@@V?$allocator@U?$pair@$$CBIH@std@@@2@@std@@@Z PROC ; operator<<, COMDAT

; 715  : {

	push	ebp
	mov	ebp, esp
	sub	esp, 48					; 00000030H

; 716  : 	const size_t count = readFrom.size();

	mov	eax, DWORD PTR _readFrom$[ebp]
	mov	ecx, DWORD PTR [eax+8]
	mov	DWORD PTR $T236942[ebp], ecx
	mov	edx, DWORD PTR $T236942[ebp]
	mov	DWORD PTR _count$[ebp], edx

; 717  : 	saveTo << count;

	lea	eax, DWORD PTR _count$[ebp]
	push	eax
	mov	ecx, DWORD PTR _saveTo$[ebp]
	call	?Write@FDataStream@@IAEXABI@Z		; FDataStream::Write

; 718  : 	for(CvReplayInfo::TurnData::const_iterator it = readFrom.begin(); it != readFrom.end(); ++it)

	mov	ecx, DWORD PTR _readFrom$[ebp]
	mov	edx, DWORD PTR [ecx+4]
	mov	DWORD PTR $T236951[ebp], edx
	mov	eax, DWORD PTR $T236951[ebp]
	mov	ecx, DWORD PTR [eax]
	mov	DWORD PTR $T236959[ebp], ecx
	mov	edx, DWORD PTR $T236959[ebp]
	mov	DWORD PTR _it$221281[ebp], edx
	jmp	SHORT $LN3@operator
$LN2@operator:
	lea	ecx, DWORD PTR _it$221281[ebp]
	call	?_Inc@const_iterator@?$_Tree@V?$_Tmap_traits@IHU?$less@I@std@@V?$allocator@U?$pair@$$CBIH@std@@@2@$0A@@std@@@std@@QAEXXZ ; std::_Tree<std::_Tmap_traits<unsigned int,int,std::less<unsigned int>,std::allocator<std::pair<unsigned int const ,int> >,0> >::const_iterator::_Inc
$LN3@operator:
	mov	eax, DWORD PTR _readFrom$[ebp]
	mov	ecx, DWORD PTR [eax+4]
	mov	DWORD PTR $T236999[ebp], ecx
	mov	edx, DWORD PTR $T236999[ebp]
	mov	DWORD PTR $T236938[ebp], edx
	mov	eax, DWORD PTR _it$221281[ebp]
	xor	ecx, ecx
	cmp	eax, DWORD PTR $T236938[ebp]
	sete	cl
	movzx	edx, cl
	neg	edx
	sbb	edx, edx
	add	edx, 1
	movzx	eax, dl
	test	eax, eax
	je	SHORT $LN1@operator

; 719  : 	{
; 720  : 		saveTo << (*it).first;

	mov	ecx, DWORD PTR _it$221281[ebp]
	add	ecx, 12					; 0000000cH
	mov	DWORD PTR $T237023[ebp], ecx
	mov	edx, DWORD PTR $T237023[ebp]
	push	edx
	mov	ecx, DWORD PTR _saveTo$[ebp]
	call	?Write@FDataStream@@IAEXABI@Z		; FDataStream::Write

; 721  : 		saveTo << (*it).second;

	mov	eax, DWORD PTR _it$221281[ebp]
	add	eax, 16					; 00000010H
	mov	DWORD PTR $T237035[ebp], eax
	mov	ecx, DWORD PTR $T237035[ebp]
	push	ecx
	mov	ecx, DWORD PTR _saveTo$[ebp]
	call	?Write@FDataStream@@IAEXABH@Z		; FDataStream::Write

; 722  : 	}

	jmp	SHORT $LN2@operator
$LN1@operator:

; 723  : 	return saveTo;

	mov	eax, DWORD PTR _saveTo$[ebp]

; 724  : }

	mov	esp, ebp
	pop	ebp
	ret	0
??6@YAAAVFDataStream@@AAV0@ABV?$map@IHU?$less@I@std@@V?$allocator@U?$pair@$$CBIH@std@@@2@@std@@@Z ENDP ; operator<<
_TEXT	ENDS
PUBLIC	??5@YAAAVFDataStream@@AAV0@AAV?$map@IHU?$less@I@std@@V?$allocator@U?$pair@$$CBIH@std@@@2@@std@@@Z ; operator>>
; Function compile flags: /Odtp
;	COMDAT ??5@YAAAVFDataStream@@AAV0@AAV?$map@IHU?$less@I@std@@V?$allocator@U?$pair@$$CBIH@std@@@2@@std@@@Z
_TEXT	SEGMENT
_i$221294 = -16						; size = 4
_uiSize$ = -12						; size = 4
_uiTurn$ = -8						; size = 4
_iValue$ = -4						; size = 4
_loadFrom$ = 8						; size = 4
_writeTo$ = 12						; size = 4
??5@YAAAVFDataStream@@AAV0@AAV?$map@IHU?$less@I@std@@V?$allocator@U?$pair@$$CBIH@std@@@2@@std@@@Z PROC ; operator>>, COMDAT

; 727  : {

	push	ebp
	mov	ebp, esp
	sub	esp, 56					; 00000038H

; 728  : 	size_t uiSize;
; 729  : 	loadFrom >> uiSize;

	lea	eax, DWORD PTR _uiSize$[ebp]
	push	eax
	mov	ecx, DWORD PTR _loadFrom$[ebp]
	call	?Read@FDataStream@@IAEXAAI@Z		; FDataStream::Read

; 730  : 
; 731  : 	unsigned int uiTurn;
; 732  : 	int iValue;
; 733  : 
; 734  : 	for(unsigned int i = 0; i < uiSize; ++i)

	mov	DWORD PTR _i$221294[ebp], 0
	jmp	SHORT $LN3@operator@2
$LN2@operator@2:
	mov	ecx, DWORD PTR _i$221294[ebp]
	add	ecx, 1
	mov	DWORD PTR _i$221294[ebp], ecx
$LN3@operator@2:
	mov	edx, DWORD PTR _i$221294[ebp]
	cmp	edx, DWORD PTR _uiSize$[ebp]
	jae	SHORT $LN1@operator@2

; 735  : 	{
; 736  : 		loadFrom >> uiTurn;

	lea	eax, DWORD PTR _uiTurn$[ebp]
	push	eax
	mov	ecx, DWORD PTR _loadFrom$[ebp]
	call	?Read@FDataStream@@IAEXAAI@Z		; FDataStream::Read

; 737  : 		loadFrom >> iValue;

	lea	ecx, DWORD PTR _iValue$[ebp]
	push	ecx
	mov	ecx, DWORD PTR _loadFrom$[ebp]
	call	?Read@FDataStream@@IAEXAAH@Z		; FDataStream::Read

; 738  : 		writeTo[uiTurn] = iValue;

	lea	edx, DWORD PTR _uiTurn$[ebp]
	push	edx
	mov	ecx, DWORD PTR _writeTo$[ebp]
	call	??A?$map@IHU?$less@I@std@@V?$allocator@U?$pair@$$CBIH@std@@@2@@std@@QAEAAHABI@Z ; std::map<unsigned int,int,std::less<unsigned int>,std::allocator<std::pair<unsigned int const ,int> > >::operator[]
	mov	ecx, DWORD PTR _iValue$[ebp]
	mov	DWORD PTR [eax], ecx

; 739  : 	}

	jmp	SHORT $LN2@operator@2
$LN1@operator@2:

; 740  : 
; 741  : 	return loadFrom;

	mov	eax, DWORD PTR _loadFrom$[ebp]

; 742  : }

	mov	esp, ebp
	pop	ebp
	ret	0
??5@YAAAVFDataStream@@AAV0@AAV?$map@IHU?$less@I@std@@V?$allocator@U?$pair@$$CBIH@std@@@2@@std@@@Z ENDP ; operator>>
_TEXT	ENDS
PUBLIC	?insert@?$_Tree@V?$_Tmap_traits@IHU?$less@I@std@@V?$allocator@U?$pair@$$CBIH@std@@@2@$0A@@std@@@std@@QAE?AViterator@12@Vconst_iterator@12@ABU?$pair@$$CBIH@2@@Z ; std::_Tree<std::_Tmap_traits<unsigned int,int,std::less<unsigned int>,std::allocator<std::pair<unsigned int const ,int> >,0> >::insert
PUBLIC	?_Lbound@?$_Tree@V?$_Tmap_traits@IHU?$less@I@std@@V?$allocator@U?$pair@$$CBIH@std@@@2@$0A@@std@@@std@@IBEPAU_Node@?$_Tree_nod@V?$_Tmap_traits@IHU?$less@I@std@@V?$allocator@U?$pair@$$CBIH@std@@@2@$0A@@std@@@2@ABI@Z ; std::_Tree<std::_Tmap_traits<unsigned int,int,std::less<unsigned int>,std::allocator<std::pair<unsigned int const ,int> >,0> >::_Lbound
; Function compile flags: /Odtp
; File c:\program files (x86)\microsoft visual studio 9.0\vc\include\map
;	COMDAT ??A?$map@IHU?$less@I@std@@V?$allocator@U?$pair@$$CBIH@std@@@2@@std@@QAEAAHABI@Z
_TEXT	SEGMENT
_this$ = -52						; size = 4
$T237205 = -48						; size = 4
$T237192 = -44						; size = 4
$T237176 = -40						; size = 4
$T237132 = -28						; size = 4
$T237131 = -24						; size = 4
$T237130 = -20						; size = 4
$T237129 = -16						; size = 8
$T237128 = -8						; size = 4
__Where$ = -4						; size = 4
__Keyval$ = 8						; size = 4
??A?$map@IHU?$less@I@std@@V?$allocator@U?$pair@$$CBIH@std@@@2@@std@@QAEAAHABI@Z PROC ; std::map<unsigned int,int,std::less<unsigned int>,std::allocator<std::pair<unsigned int const ,int> > >::operator[], COMDAT
; _this$ = ecx

; 168  : 		{	// find element matching _Keyval or insert with default mapped

	push	ebp
	mov	ebp, esp
	sub	esp, 52					; 00000034H
	mov	DWORD PTR _this$[ebp], ecx

; 169  : 		iterator _Where = this->lower_bound(_Keyval);

	mov	eax, DWORD PTR __Keyval$[ebp]
	push	eax
	mov	ecx, DWORD PTR _this$[ebp]
	call	?_Lbound@?$_Tree@V?$_Tmap_traits@IHU?$less@I@std@@V?$allocator@U?$pair@$$CBIH@std@@@2@$0A@@std@@@std@@IBEPAU_Node@?$_Tree_nod@V?$_Tmap_traits@IHU?$less@I@std@@V?$allocator@U?$pair@$$CBIH@std@@@2@$0A@@std@@@2@ABI@Z ; std::_Tree<std::_Tmap_traits<unsigned int,int,std::less<unsigned int>,std::allocator<std::pair<unsigned int const ,int> >,0> >::_Lbound
	mov	DWORD PTR $T237176[ebp], eax
	mov	ecx, DWORD PTR $T237176[ebp]
	mov	DWORD PTR __Where$[ebp], ecx

; 170  : 		if (_Where == this->end()
; 171  : 			|| this->comp(_Keyval, this->_Key(_Where._Mynode())))

	mov	edx, DWORD PTR _this$[ebp]
	mov	eax, DWORD PTR [edx+4]
	mov	DWORD PTR $T237192[ebp], eax
	mov	ecx, DWORD PTR $T237192[ebp]
	mov	DWORD PTR $T237128[ebp], ecx
	mov	edx, DWORD PTR __Where$[ebp]
	xor	eax, eax
	cmp	edx, DWORD PTR $T237128[ebp]
	sete	al
	movzx	ecx, al
	test	ecx, ecx
	jne	SHORT $LN1@operator@3
	mov	edx, DWORD PTR __Where$[ebp]
	mov	DWORD PTR $T237205[ebp], edx
	mov	eax, DWORD PTR __Keyval$[ebp]
	mov	ecx, DWORD PTR $T237205[ebp]
	mov	edx, DWORD PTR [eax]
	cmp	edx, DWORD PTR [ecx+12]
	sbb	eax, eax
	neg	eax
	movzx	ecx, al
	test	ecx, ecx
	je	SHORT $LN55@operator@3
$LN1@operator@3:

; 172  : 			_Where = this->insert(_Where,
; 173  : 				value_type(_Keyval, mapped_type()));

	mov	DWORD PTR $T237130[ebp], 0
	mov	edx, DWORD PTR __Where$[ebp]
	mov	DWORD PTR $T237131[ebp], edx
	mov	eax, DWORD PTR __Keyval$[ebp]
	mov	ecx, DWORD PTR [eax]
	mov	DWORD PTR $T237129[ebp], ecx
	mov	edx, DWORD PTR $T237130[ebp]
	mov	DWORD PTR $T237129[ebp+4], edx
	lea	eax, DWORD PTR $T237129[ebp]
	push	eax
	mov	ecx, DWORD PTR $T237131[ebp]
	push	ecx
	lea	edx, DWORD PTR $T237132[ebp]
	push	edx
	mov	ecx, DWORD PTR _this$[ebp]
	call	?insert@?$_Tree@V?$_Tmap_traits@IHU?$less@I@std@@V?$allocator@U?$pair@$$CBIH@std@@@2@$0A@@std@@@std@@QAE?AViterator@12@Vconst_iterator@12@ABU?$pair@$$CBIH@2@@Z ; std::_Tree<std::_Tmap_traits<unsigned int,int,std::less<unsigned int>,std::allocator<std::pair<unsigned int const ,int> >,0> >::insert
	mov	eax, DWORD PTR [eax]
	mov	DWORD PTR __Where$[ebp], eax

; 174  : 		return ((*_Where).second);

$LN55@operator@3:
	mov	eax, DWORD PTR __Where$[ebp]
	add	eax, 16					; 00000010H

; 175  : 		}

	mov	esp, ebp
	pop	ebp
	ret	4
??A?$map@IHU?$less@I@std@@V?$allocator@U?$pair@$$CBIH@std@@@2@@std@@QAEAAHABI@Z ENDP ; std::map<unsigned int,int,std::less<unsigned int>,std::allocator<std::pair<unsigned int const ,int> > >::operator[]
_TEXT	ENDS
PUBLIC	?_Copy@?$_Tree@V?$_Tmap_traits@IHU?$less@I@std@@V?$allocator@U?$pair@$$CBIH@std@@@2@$0A@@std@@@std@@IAEXABV12@@Z ; std::_Tree<std::_Tmap_traits<unsigned int,int,std::less<unsigned int>,std::allocator<std::pair<unsigned int const ,int> >,0> >::_Copy
PUBLIC	?erase@?$_Tree@V?$_Tmap_traits@IHU?$less@I@std@@V?$allocator@U?$pair@$$CBIH@std@@@2@$0A@@std@@@std@@QAE?AViterator@12@Vconst_iterator@12@0@Z ; std::_Tree<std::_Tmap_traits<unsigned int,int,std::less<unsigned int>,std::allocator<std::pair<unsigned int const ,int> >,0> >::erase
; Function compile flags: /Odtp
; File c:\program files (x86)\microsoft visual studio 9.0\vc\include\xtree
;	COMDAT ??4?$_Tree@V?$_Tmap_traits@IHU?$less@I@std@@V?$allocator@U?$pair@$$CBIH@std@@@2@$0A@@std@@@std@@QAEAAV01@ABV01@@Z
_TEXT	SEGMENT
_this$ = -124						; size = 4
$T237281 = -32						; size = 4
$T237268 = -28						; size = 4
$T237256 = -24						; size = 4
$T237246 = -20						; size = 4
$T237245 = -16						; size = 4
$T237244 = -12						; size = 4
$T237243 = -8						; size = 4
$T237242 = -4						; size = 4
__Right$ = 8						; size = 4
??4?$_Tree@V?$_Tmap_traits@IHU?$less@I@std@@V?$allocator@U?$pair@$$CBIH@std@@@2@$0A@@std@@@std@@QAEAAV01@ABV01@@Z PROC ; std::_Tree<std::_Tmap_traits<unsigned int,int,std::less<unsigned int>,std::allocator<std::pair<unsigned int const ,int> >,0> >::operator=, COMDAT
; _this$ = ecx

; 544  : 		{	// replace contents from _Right

	push	ebp
	mov	ebp, esp
	sub	esp, 124				; 0000007cH
	mov	DWORD PTR _this$[ebp], ecx

; 545  : 		if (this != &_Right)

	mov	eax, DWORD PTR _this$[ebp]
	cmp	eax, DWORD PTR __Right$[ebp]
	je	SHORT $LN1@operator@4

; 546  : 			{	// worth doing
; 547  : 			erase(begin(), end());

	mov	ecx, DWORD PTR _this$[ebp]
	mov	edx, DWORD PTR [ecx+4]
	mov	DWORD PTR $T237256[ebp], edx
	mov	eax, DWORD PTR $T237256[ebp]
	mov	DWORD PTR $T237243[ebp], eax
	mov	ecx, DWORD PTR $T237243[ebp]
	mov	DWORD PTR $T237242[ebp], ecx
	mov	edx, DWORD PTR _this$[ebp]
	mov	eax, DWORD PTR [edx+4]
	mov	DWORD PTR $T237268[ebp], eax
	mov	ecx, DWORD PTR $T237268[ebp]
	mov	edx, DWORD PTR [ecx]
	mov	DWORD PTR $T237281[ebp], edx
	mov	eax, DWORD PTR $T237281[ebp]
	mov	DWORD PTR $T237245[ebp], eax
	mov	ecx, DWORD PTR $T237245[ebp]
	mov	DWORD PTR $T237244[ebp], ecx
	mov	edx, DWORD PTR $T237242[ebp]
	push	edx
	mov	eax, DWORD PTR $T237244[ebp]
	push	eax
	lea	ecx, DWORD PTR $T237246[ebp]
	push	ecx
	mov	ecx, DWORD PTR _this$[ebp]
	call	?erase@?$_Tree@V?$_Tmap_traits@IHU?$less@I@std@@V?$allocator@U?$pair@$$CBIH@std@@@2@$0A@@std@@@std@@QAE?AViterator@12@Vconst_iterator@12@0@Z ; std::_Tree<std::_Tmap_traits<unsigned int,int,std::less<unsigned int>,std::allocator<std::pair<unsigned int const ,int> >,0> >::erase

; 548  : 			this->comp = _Right.comp;
; 549  : 			_Copy(_Right);

	mov	edx, DWORD PTR __Right$[ebp]
	push	edx
	mov	ecx, DWORD PTR _this$[ebp]
	call	?_Copy@?$_Tree@V?$_Tmap_traits@IHU?$less@I@std@@V?$allocator@U?$pair@$$CBIH@std@@@2@$0A@@std@@@std@@IAEXABV12@@Z ; std::_Tree<std::_Tmap_traits<unsigned int,int,std::less<unsigned int>,std::allocator<std::pair<unsigned int const ,int> >,0> >::_Copy
$LN1@operator@4:

; 550  : 			}
; 551  : 		return (*this);

	mov	eax, DWORD PTR _this$[ebp]

; 552  : 		}

	mov	esp, ebp
	pop	ebp
	ret	4
??4?$_Tree@V?$_Tmap_traits@IHU?$less@I@std@@V?$allocator@U?$pair@$$CBIH@std@@@2@$0A@@std@@@std@@QAEAAV01@ABV01@@Z ENDP ; std::_Tree<std::_Tmap_traits<unsigned int,int,std::less<unsigned int>,std::allocator<std::pair<unsigned int const ,int> >,0> >::operator=
; Function compile flags: /Odtp
_TEXT	ENDS
;	COMDAT ?find@?$_Tree@V?$_Tmap_traits@IHU?$less@I@std@@V?$allocator@U?$pair@$$CBIH@std@@@2@$0A@@std@@@std@@QBE?AVconst_iterator@12@ABI@Z
_TEXT	SEGMENT
tv93 = -48						; size = 4
_this$ = -44						; size = 4
$T237660 = -40						; size = 4
$T237639 = -36						; size = 4
$T237628 = -32						; size = 4
$T237619 = -28						; size = 4
$T237579 = -16						; size = 4
$T237577 = -12						; size = 4
$T237576 = -8						; size = 4
__Where$ = -4						; size = 4
___$ReturnUdt$ = 8					; size = 4
__Keyval$ = 12						; size = 4
?find@?$_Tree@V?$_Tmap_traits@IHU?$less@I@std@@V?$allocator@U?$pair@$$CBIH@std@@@2@$0A@@std@@@std@@QBE?AVconst_iterator@12@ABI@Z PROC ; std::_Tree<std::_Tmap_traits<unsigned int,int,std::less<unsigned int>,std::allocator<std::pair<unsigned int const ,int> >,0> >::find, COMDAT
; _this$ = ecx

; 986  : 		{	// find an element in nonmutable sequence that matches _Keyval

	push	ebp
	mov	ebp, esp
	sub	esp, 48					; 00000030H
	mov	DWORD PTR _this$[ebp], ecx

; 987  : 		const_iterator _Where = lower_bound(_Keyval);

	mov	eax, DWORD PTR __Keyval$[ebp]
	push	eax
	mov	ecx, DWORD PTR _this$[ebp]
	call	?_Lbound@?$_Tree@V?$_Tmap_traits@IHU?$less@I@std@@V?$allocator@U?$pair@$$CBIH@std@@@2@$0A@@std@@@std@@IBEPAU_Node@?$_Tree_nod@V?$_Tmap_traits@IHU?$less@I@std@@V?$allocator@U?$pair@$$CBIH@std@@@2@$0A@@std@@@2@ABI@Z ; std::_Tree<std::_Tmap_traits<unsigned int,int,std::less<unsigned int>,std::allocator<std::pair<unsigned int const ,int> >,0> >::_Lbound
	mov	DWORD PTR $T237619[ebp], eax
	mov	ecx, DWORD PTR $T237619[ebp]
	mov	DWORD PTR __Where$[ebp], ecx

; 988  : 		return (_Where == end()
; 989  : 			|| _DEBUG_LT_PRED(this->comp,
; 990  : 				_Keyval, _Key(_Where._Mynode()))
; 991  : 					? end() : _Where);

	mov	edx, DWORD PTR _this$[ebp]
	mov	eax, DWORD PTR [edx+4]
	mov	DWORD PTR $T237628[ebp], eax
	mov	ecx, DWORD PTR $T237628[ebp]
	mov	DWORD PTR $T237577[ebp], ecx
	mov	edx, DWORD PTR __Where$[ebp]
	xor	eax, eax
	cmp	edx, DWORD PTR $T237577[ebp]
	sete	al
	movzx	ecx, al
	test	ecx, ecx
	jne	SHORT $LN3@find
	mov	edx, DWORD PTR __Where$[ebp]
	mov	DWORD PTR $T237639[ebp], edx
	mov	eax, DWORD PTR __Keyval$[ebp]
	mov	ecx, DWORD PTR $T237639[ebp]
	mov	edx, DWORD PTR [eax]
	cmp	edx, DWORD PTR [ecx+12]
	sbb	eax, eax
	neg	eax
	movzx	ecx, al
	test	ecx, ecx
	jne	SHORT $LN3@find
	lea	edx, DWORD PTR __Where$[ebp]
	mov	DWORD PTR tv93[ebp], edx
	jmp	SHORT $LN4@find
$LN3@find:
	mov	eax, DWORD PTR _this$[ebp]
	mov	ecx, DWORD PTR [eax+4]
	mov	DWORD PTR $T237660[ebp], ecx
	mov	edx, DWORD PTR $T237660[ebp]
	mov	DWORD PTR $T237579[ebp], edx
	lea	eax, DWORD PTR $T237579[ebp]
	mov	DWORD PTR tv93[ebp], eax
$LN4@find:
	mov	ecx, DWORD PTR tv93[ebp]
	mov	DWORD PTR $T237576[ebp], ecx
	mov	edx, DWORD PTR $T237576[ebp]
	mov	eax, DWORD PTR [edx]
	mov	ecx, DWORD PTR ___$ReturnUdt$[ebp]
	mov	DWORD PTR [ecx], eax
	mov	eax, DWORD PTR ___$ReturnUdt$[ebp]

; 992  : 		}

	mov	esp, ebp
	pop	ebp
	ret	8
?find@?$_Tree@V?$_Tmap_traits@IHU?$less@I@std@@V?$allocator@U?$pair@$$CBIH@std@@@2@$0A@@std@@@std@@QBE?AVconst_iterator@12@ABI@Z ENDP ; std::_Tree<std::_Tmap_traits<unsigned int,int,std::less<unsigned int>,std::allocator<std::pair<unsigned int const ,int> >,0> >::find
_TEXT	ENDS
