; Listing generated by Microsoft (R) Optimizing Compiler Version 15.00.30729.01 

	TITLE	D:\sources\Lekmod_git\checkout\LEKMOD_DLL\CvGameCoreDLL_Expansion2\CvReligionClasses.cpp
	.686P
	.XMM
	include listing.inc
	.model	flat

INCLUDELIB MSVCRT
INCLUDELIB OLDNAMES

PUBLIC	?NO_QUEST_DATA@CvMinorCivQuest@@2HB		; CvMinorCivQuest::NO_QUEST_DATA
PUBLIC	?NO_TURN@CvMinorCivQuest@@2HB			; CvMinorCivQuest::NO_TURN
;	COMDAT ?NO_TURN@CvMinorCivQuest@@2HB
CONST	SEGMENT
?NO_TURN@CvMinorCivQuest@@2HB DD 0ffffffffH		; CvMinorCivQuest::NO_TURN
CONST	ENDS
;	COMDAT ?NO_QUEST_DATA@CvMinorCivQuest@@2HB
CONST	SEGMENT
?NO_QUEST_DATA@CvMinorCivQuest@@2HB DD 0ffffffffH	; CvMinorCivQuest::NO_QUEST_DATA
CONST	ENDS
PUBLIC	??1CvBaseInfo@@QAE@XZ				; CvBaseInfo::~CvBaseInfo
PUBLIC	??_7CvReligionEntry@@6B@			; CvReligionEntry::`vftable'
PUBLIC	??0CvReligionEntry@@QAE@XZ			; CvReligionEntry::CvReligionEntry
PUBLIC	?CacheResults@CvReligionEntry@@UAE_NAAVResults@Database@@AAVCvDatabaseUtility@@@Z ; CvReligionEntry::CacheResults
EXTRN	__imp_??0?$basic_string@DU?$char_traits@D@std@@V?$allocator@D@2@@std@@QAE@XZ:PROC
EXTRN	??0CvBaseInfo@@QAE@XZ:PROC			; CvBaseInfo::CvBaseInfo
EXTRN	___security_cookie:DWORD
EXTRN	___CxxFrameHandler3:PROC
EXTRN	@__security_check_cookie@4:PROC
EXTRN	??8CvBaseInfo@@UBE_NABV0@@Z:PROC		; CvBaseInfo::operator==
EXTRN	?readFrom@CvBaseInfo@@UAEXAAVFDataStream@@@Z:PROC ; CvBaseInfo::readFrom
EXTRN	?writeTo@CvBaseInfo@@UBEXAAVFDataStream@@@Z:PROC ; CvBaseInfo::writeTo
;	COMDAT ??_7CvReligionEntry@@6B@
; File d:\sources\lekmod_git\checkout\lekmod_dll\cvgamecoredllutil\include\cvstring.h
CONST	SEGMENT
??_7CvReligionEntry@@6B@ DD FLAT:?CacheResults@CvReligionEntry@@UAE_NAAVResults@Database@@AAVCvDatabaseUtility@@@Z ; CvReligionEntry::`vftable'
	DD	FLAT:??8CvBaseInfo@@UBE_NABV0@@Z
	DD	FLAT:?readFrom@CvBaseInfo@@UAEXAAVFDataStream@@@Z
	DD	FLAT:?writeTo@CvBaseInfo@@UBEXAAVFDataStream@@@Z
CONST	ENDS
;	COMDAT xdata$x
xdata$x	SEGMENT
__unwindtable$??0CvReligionEntry@@QAE@XZ DD 0ffffffffH
	DD	FLAT:__unwindfunclet$??0CvReligionEntry@@QAE@XZ$0
__ehfuncinfo$??0CvReligionEntry@@QAE@XZ DD 019930522H
	DD	01H
	DD	FLAT:__unwindtable$??0CvReligionEntry@@QAE@XZ
	DD	2 DUP(00H)
	DD	2 DUP(00H)
	DD	00H
	DD	01H
; Function compile flags: /Odtp
; File d:\sources\lekmod_git\checkout\lekmod_dll\cvgamecoredll_expansion2\cvreligionclasses.cpp
xdata$x	ENDS
;	COMDAT ??0CvReligionEntry@@QAE@XZ
_TEXT	SEGMENT
_this$ = -20						; size = 4
$T230849 = -16						; size = 4
__$EHRec$ = -12						; size = 12
??0CvReligionEntry@@QAE@XZ PROC				; CvReligionEntry::CvReligionEntry, COMDAT
; _this$ = ecx

; 27   : {

	push	ebp
	mov	ebp, esp
	push	-1
	push	__ehhandler$??0CvReligionEntry@@QAE@XZ
	mov	eax, DWORD PTR fs:0
	push	eax
	sub	esp, 8
	mov	eax, DWORD PTR ___security_cookie
	xor	eax, ebp
	push	eax
	lea	eax, DWORD PTR __$EHRec$[ebp]
	mov	DWORD PTR fs:0, eax
	mov	DWORD PTR _this$[ebp], ecx
	mov	ecx, DWORD PTR _this$[ebp]
	call	??0CvBaseInfo@@QAE@XZ			; CvBaseInfo::CvBaseInfo
	mov	DWORD PTR __$EHRec$[ebp+8], 0
	mov	eax, DWORD PTR _this$[ebp]
	mov	DWORD PTR [eax], OFFSET ??_7CvReligionEntry@@6B@
	mov	ecx, DWORD PTR _this$[ebp]
	add	ecx, 260				; 00000104H
	mov	DWORD PTR $T230849[ebp], ecx
	mov	ecx, DWORD PTR $T230849[ebp]
	call	DWORD PTR __imp_??0?$basic_string@DU?$char_traits@D@std@@V?$allocator@D@2@@std@@QAE@XZ

; 28   : }

	mov	DWORD PTR __$EHRec$[ebp+8], -1
	mov	eax, DWORD PTR _this$[ebp]
	mov	ecx, DWORD PTR __$EHRec$[ebp]
	mov	DWORD PTR fs:0, ecx
	pop	ecx
	mov	esp, ebp
	pop	ebp
	ret	0
_TEXT	ENDS
;	COMDAT text$x
text$x	SEGMENT
__unwindfunclet$??0CvReligionEntry@@QAE@XZ$0:
	mov	ecx, DWORD PTR _this$[ebp]
	jmp	??1CvBaseInfo@@QAE@XZ
__ehhandler$??0CvReligionEntry@@QAE@XZ:
	mov	edx, DWORD PTR [esp+8]
	lea	eax, DWORD PTR [edx+12]
	mov	ecx, DWORD PTR [edx-12]
	xor	ecx, eax
	call	@__security_check_cookie@4
	mov	eax, OFFSET __ehfuncinfo$??0CvReligionEntry@@QAE@XZ
	jmp	___CxxFrameHandler3
text$x	ENDS
??0CvReligionEntry@@QAE@XZ ENDP				; CvReligionEntry::CvReligionEntry
PUBLIC	??1CvString@@QAE@XZ				; CvString::~CvString
EXTRN	__imp_??1?$basic_string@DU?$char_traits@D@std@@V?$allocator@D@2@@std@@QAE@XZ:PROC
;	COMDAT xdata$x
xdata$x	SEGMENT
__ehfuncinfo$??1CvBaseInfo@@QAE@XZ DD 019930522H
	DD	08H
	DD	FLAT:__unwindtable$??1CvBaseInfo@@QAE@XZ
	DD	2 DUP(00H)
	DD	2 DUP(00H)
	DD	00H
	DD	01H
__unwindtable$??1CvBaseInfo@@QAE@XZ DD 0ffffffffH
	DD	FLAT:__unwindfunclet$??1CvBaseInfo@@QAE@XZ$0
	DD	00H
	DD	FLAT:__unwindfunclet$??1CvBaseInfo@@QAE@XZ$1
	DD	01H
	DD	FLAT:__unwindfunclet$??1CvBaseInfo@@QAE@XZ$2
	DD	02H
	DD	FLAT:__unwindfunclet$??1CvBaseInfo@@QAE@XZ$3
	DD	03H
	DD	FLAT:__unwindfunclet$??1CvBaseInfo@@QAE@XZ$4
	DD	04H
	DD	FLAT:__unwindfunclet$??1CvBaseInfo@@QAE@XZ$5
	DD	05H
	DD	FLAT:__unwindfunclet$??1CvBaseInfo@@QAE@XZ$6
	DD	06H
	DD	FLAT:__unwindfunclet$??1CvBaseInfo@@QAE@XZ$7
; Function compile flags: /Odtp
xdata$x	ENDS
;	COMDAT ??1CvBaseInfo@@QAE@XZ
_TEXT	SEGMENT
_this$ = -52						; size = 4
$T230916 = -48						; size = 4
$T230911 = -44						; size = 4
$T230906 = -40						; size = 4
$T230901 = -36						; size = 4
$T230896 = -32						; size = 4
$T230891 = -28						; size = 4
$T230886 = -24						; size = 4
$T230881 = -20						; size = 4
$T230876 = -16						; size = 4
__$EHRec$ = -12						; size = 12
??1CvBaseInfo@@QAE@XZ PROC				; CvBaseInfo::~CvBaseInfo, COMDAT
; _this$ = ecx
	push	ebp
	mov	ebp, esp
	push	-1
	push	__ehhandler$??1CvBaseInfo@@QAE@XZ
	mov	eax, DWORD PTR fs:0
	push	eax
	sub	esp, 40					; 00000028H
	mov	eax, DWORD PTR ___security_cookie
	xor	eax, ebp
	push	eax
	lea	eax, DWORD PTR __$EHRec$[ebp]
	mov	DWORD PTR fs:0, eax
	mov	DWORD PTR _this$[ebp], ecx
	mov	DWORD PTR __$EHRec$[ebp+8], 7
	mov	eax, DWORD PTR _this$[ebp]
	add	eax, 232				; 000000e8H
	mov	DWORD PTR $T230876[ebp], eax
	mov	ecx, DWORD PTR $T230876[ebp]
	call	DWORD PTR __imp_??1?$basic_string@DU?$char_traits@D@std@@V?$allocator@D@2@@std@@QAE@XZ
	mov	BYTE PTR __$EHRec$[ebp+8], 6
	mov	ecx, DWORD PTR _this$[ebp]
	add	ecx, 204				; 000000ccH
	mov	DWORD PTR $T230881[ebp], ecx
	mov	ecx, DWORD PTR $T230881[ebp]
	call	DWORD PTR __imp_??1?$basic_string@DU?$char_traits@D@std@@V?$allocator@D@2@@std@@QAE@XZ
	mov	BYTE PTR __$EHRec$[ebp+8], 5
	mov	edx, DWORD PTR _this$[ebp]
	add	edx, 176				; 000000b0H
	mov	DWORD PTR $T230886[ebp], edx
	mov	ecx, DWORD PTR $T230886[ebp]
	call	DWORD PTR __imp_??1?$basic_string@DU?$char_traits@D@std@@V?$allocator@D@2@@std@@QAE@XZ
	mov	BYTE PTR __$EHRec$[ebp+8], 4
	mov	eax, DWORD PTR _this$[ebp]
	add	eax, 148				; 00000094H
	mov	DWORD PTR $T230891[ebp], eax
	mov	ecx, DWORD PTR $T230891[ebp]
	call	DWORD PTR __imp_??1?$basic_string@DU?$char_traits@D@std@@V?$allocator@D@2@@std@@QAE@XZ
	mov	BYTE PTR __$EHRec$[ebp+8], 3
	mov	ecx, DWORD PTR _this$[ebp]
	add	ecx, 120				; 00000078H
	mov	DWORD PTR $T230896[ebp], ecx
	mov	ecx, DWORD PTR $T230896[ebp]
	call	DWORD PTR __imp_??1?$basic_string@DU?$char_traits@D@std@@V?$allocator@D@2@@std@@QAE@XZ
	mov	BYTE PTR __$EHRec$[ebp+8], 2
	mov	edx, DWORD PTR _this$[ebp]
	add	edx, 92					; 0000005cH
	mov	DWORD PTR $T230901[ebp], edx
	mov	ecx, DWORD PTR $T230901[ebp]
	call	DWORD PTR __imp_??1?$basic_string@DU?$char_traits@D@std@@V?$allocator@D@2@@std@@QAE@XZ
	mov	BYTE PTR __$EHRec$[ebp+8], 1
	mov	eax, DWORD PTR _this$[ebp]
	add	eax, 64					; 00000040H
	mov	DWORD PTR $T230906[ebp], eax
	mov	ecx, DWORD PTR $T230906[ebp]
	call	DWORD PTR __imp_??1?$basic_string@DU?$char_traits@D@std@@V?$allocator@D@2@@std@@QAE@XZ
	mov	BYTE PTR __$EHRec$[ebp+8], 0
	mov	ecx, DWORD PTR _this$[ebp]
	add	ecx, 36					; 00000024H
	mov	DWORD PTR $T230911[ebp], ecx
	mov	ecx, DWORD PTR $T230911[ebp]
	call	DWORD PTR __imp_??1?$basic_string@DU?$char_traits@D@std@@V?$allocator@D@2@@std@@QAE@XZ
	mov	DWORD PTR __$EHRec$[ebp+8], -1
	mov	edx, DWORD PTR _this$[ebp]
	add	edx, 8
	mov	DWORD PTR $T230916[ebp], edx
	mov	ecx, DWORD PTR $T230916[ebp]
	call	DWORD PTR __imp_??1?$basic_string@DU?$char_traits@D@std@@V?$allocator@D@2@@std@@QAE@XZ
	mov	ecx, DWORD PTR __$EHRec$[ebp]
	mov	DWORD PTR fs:0, ecx
	pop	ecx
	mov	esp, ebp
	pop	ebp
	ret	0
_TEXT	ENDS
;	COMDAT text$x
text$x	SEGMENT
__unwindfunclet$??1CvBaseInfo@@QAE@XZ$0:
	mov	ecx, DWORD PTR _this$[ebp]
	add	ecx, 8
	jmp	??1CvString@@QAE@XZ			; CvString::~CvString
__unwindfunclet$??1CvBaseInfo@@QAE@XZ$1:
	mov	ecx, DWORD PTR _this$[ebp]
	add	ecx, 36					; 00000024H
	jmp	??1CvString@@QAE@XZ			; CvString::~CvString
__unwindfunclet$??1CvBaseInfo@@QAE@XZ$2:
	mov	ecx, DWORD PTR _this$[ebp]
	add	ecx, 64					; 00000040H
	jmp	??1CvString@@QAE@XZ			; CvString::~CvString
__unwindfunclet$??1CvBaseInfo@@QAE@XZ$3:
	mov	ecx, DWORD PTR _this$[ebp]
	add	ecx, 92					; 0000005cH
	jmp	??1CvString@@QAE@XZ			; CvString::~CvString
__unwindfunclet$??1CvBaseInfo@@QAE@XZ$4:
	mov	ecx, DWORD PTR _this$[ebp]
	add	ecx, 120				; 00000078H
	jmp	??1CvString@@QAE@XZ			; CvString::~CvString
__unwindfunclet$??1CvBaseInfo@@QAE@XZ$5:
	mov	ecx, DWORD PTR _this$[ebp]
	add	ecx, 148				; 00000094H
	jmp	??1CvString@@QAE@XZ			; CvString::~CvString
__unwindfunclet$??1CvBaseInfo@@QAE@XZ$6:
	mov	ecx, DWORD PTR _this$[ebp]
	add	ecx, 176				; 000000b0H
	jmp	??1CvString@@QAE@XZ			; CvString::~CvString
__unwindfunclet$??1CvBaseInfo@@QAE@XZ$7:
	mov	ecx, DWORD PTR _this$[ebp]
	add	ecx, 204				; 000000ccH
	jmp	??1CvString@@QAE@XZ			; CvString::~CvString
__ehhandler$??1CvBaseInfo@@QAE@XZ:
	mov	edx, DWORD PTR [esp+8]
	lea	eax, DWORD PTR [edx+12]
	mov	ecx, DWORD PTR [edx-44]
	xor	ecx, eax
	call	@__security_check_cookie@4
	mov	eax, OFFSET __ehfuncinfo$??1CvBaseInfo@@QAE@XZ
	jmp	___CxxFrameHandler3
text$x	ENDS
??1CvBaseInfo@@QAE@XZ ENDP				; CvBaseInfo::~CvBaseInfo
PUBLIC	??1CvReligionEntry@@QAE@XZ			; CvReligionEntry::~CvReligionEntry
;	COMDAT xdata$x
; File d:\sources\lekmod_git\checkout\lekmod_dll\cvgamecoredllutil\include\cvstring.h
xdata$x	SEGMENT
__unwindtable$??1CvReligionEntry@@QAE@XZ DD 0ffffffffH
	DD	FLAT:__unwindfunclet$??1CvReligionEntry@@QAE@XZ$0
__ehfuncinfo$??1CvReligionEntry@@QAE@XZ DD 019930522H
	DD	01H
	DD	FLAT:__unwindtable$??1CvReligionEntry@@QAE@XZ
	DD	2 DUP(00H)
	DD	2 DUP(00H)
	DD	00H
	DD	01H
; Function compile flags: /Odtp
; File d:\sources\lekmod_git\checkout\lekmod_dll\cvgamecoredll_expansion2\cvreligionclasses.cpp
xdata$x	ENDS
;	COMDAT ??1CvReligionEntry@@QAE@XZ
_TEXT	SEGMENT
_this$ = -56						; size = 4
$T230931 = -16						; size = 4
__$EHRec$ = -12						; size = 12
??1CvReligionEntry@@QAE@XZ PROC				; CvReligionEntry::~CvReligionEntry, COMDAT
; _this$ = ecx

; 32   : {

	push	ebp
	mov	ebp, esp
	push	-1
	push	__ehhandler$??1CvReligionEntry@@QAE@XZ
	mov	eax, DWORD PTR fs:0
	push	eax
	sub	esp, 44					; 0000002cH
	mov	eax, DWORD PTR ___security_cookie
	xor	eax, ebp
	push	eax
	lea	eax, DWORD PTR __$EHRec$[ebp]
	mov	DWORD PTR fs:0, eax
	mov	DWORD PTR _this$[ebp], ecx
	mov	eax, DWORD PTR _this$[ebp]
	mov	DWORD PTR [eax], OFFSET ??_7CvReligionEntry@@6B@
	mov	DWORD PTR __$EHRec$[ebp+8], 0

; 33   : }

	mov	ecx, DWORD PTR _this$[ebp]
	add	ecx, 260				; 00000104H
	mov	DWORD PTR $T230931[ebp], ecx
	mov	ecx, DWORD PTR $T230931[ebp]
	call	DWORD PTR __imp_??1?$basic_string@DU?$char_traits@D@std@@V?$allocator@D@2@@std@@QAE@XZ
	mov	DWORD PTR __$EHRec$[ebp+8], -1
	mov	ecx, DWORD PTR _this$[ebp]
	call	??1CvBaseInfo@@QAE@XZ
	mov	ecx, DWORD PTR __$EHRec$[ebp]
	mov	DWORD PTR fs:0, ecx
	pop	ecx
	mov	esp, ebp
	pop	ebp
	ret	0
_TEXT	ENDS
;	COMDAT text$x
text$x	SEGMENT
__unwindfunclet$??1CvReligionEntry@@QAE@XZ$0:
	mov	ecx, DWORD PTR _this$[ebp]
	jmp	??1CvBaseInfo@@QAE@XZ
__ehhandler$??1CvReligionEntry@@QAE@XZ:
	mov	edx, DWORD PTR [esp+8]
	lea	eax, DWORD PTR [edx+12]
	mov	ecx, DWORD PTR [edx-48]
	xor	ecx, eax
	call	@__security_check_cookie@4
	mov	eax, OFFSET __ehfuncinfo$??1CvReligionEntry@@QAE@XZ
	jmp	___CxxFrameHandler3
text$x	ENDS
??1CvReligionEntry@@QAE@XZ ENDP				; CvReligionEntry::~CvReligionEntry
PUBLIC	??_C@_0L@GKFBIGGH@IconString?$AA@		; `string'
EXTRN	__imp_?clear@?$basic_string@DU?$char_traits@D@std@@V?$allocator@D@2@@std@@QAEXXZ:PROC
EXTRN	__imp_?assign@?$basic_string@DU?$char_traits@D@std@@V?$allocator@D@2@@std@@QAEAAV12@PBD@Z:PROC
EXTRN	__imp_?GetText@Results@Database@@QAEPBDPBD@Z:PROC
EXTRN	?CacheResults@CvBaseInfo@@UAE_NAAVResults@Database@@AAVCvDatabaseUtility@@@Z:PROC ; CvBaseInfo::CacheResults
;	COMDAT ??_C@_0L@GKFBIGGH@IconString?$AA@
; File d:\sources\lekmod_git\checkout\lekmod_dll\cvgamecoredllutil\include\cvstring.h
CONST	SEGMENT
??_C@_0L@GKFBIGGH@IconString?$AA@ DB 'IconString', 00H	; `string'
; Function compile flags: /Odtp
; File d:\sources\lekmod_git\checkout\lekmod_dll\cvgamecoredll_expansion2\cvreligionclasses.cpp
CONST	ENDS
;	COMDAT ?CacheResults@CvReligionEntry@@UAE_NAAVResults@Database@@AAVCvDatabaseUtility@@@Z
_TEXT	SEGMENT
_this$ = -12						; size = 4
$T231001 = -8						; size = 4
$T231000 = -4						; size = 4
_kResults$ = 8						; size = 4
_kUtility$ = 12						; size = 4
?CacheResults@CvReligionEntry@@UAE_NAAVResults@Database@@AAVCvDatabaseUtility@@@Z PROC ; CvReligionEntry::CacheResults, COMDAT
; _this$ = ecx

; 37   : {

	push	ebp
	mov	ebp, esp
	sub	esp, 12					; 0000000cH
	mov	DWORD PTR _this$[ebp], ecx

; 38   : 	if(!CvBaseInfo::CacheResults(kResults, kUtility))

	mov	eax, DWORD PTR _kUtility$[ebp]
	push	eax
	mov	ecx, DWORD PTR _kResults$[ebp]
	push	ecx
	mov	ecx, DWORD PTR _this$[ebp]
	call	?CacheResults@CvBaseInfo@@UAE_NAAVResults@Database@@AAVCvDatabaseUtility@@@Z ; CvBaseInfo::CacheResults
	movzx	edx, al
	test	edx, edx
	jne	SHORT $LN1@CacheResul

; 39   : 		return false;

	xor	al, al
	jmp	SHORT $LN2@CacheResul
$LN1@CacheResul:

; 40   : 
; 41   : 	//Basic Properties
; 42   : 	m_strIconString = kResults.GetText("IconString");

	push	OFFSET ??_C@_0L@GKFBIGGH@IconString?$AA@
	mov	ecx, DWORD PTR _kResults$[ebp]
	call	DWORD PTR __imp_?GetText@Results@Database@@QAEPBDPBD@Z
	mov	DWORD PTR $T231001[ebp], eax
	mov	eax, DWORD PTR _this$[ebp]
	add	eax, 260				; 00000104H
	mov	DWORD PTR $T231000[ebp], eax
	cmp	DWORD PTR $T231001[ebp], 0
	je	SHORT $LN5@CacheResul
	mov	ecx, DWORD PTR $T231001[ebp]
	push	ecx
	mov	ecx, DWORD PTR $T231000[ebp]
	call	DWORD PTR __imp_?assign@?$basic_string@DU?$char_traits@D@std@@V?$allocator@D@2@@std@@QAEAAV12@PBD@Z
	jmp	SHORT $LN6@CacheResul
$LN5@CacheResul:
	mov	ecx, DWORD PTR $T231000[ebp]
	call	DWORD PTR __imp_?clear@?$basic_string@DU?$char_traits@D@std@@V?$allocator@D@2@@std@@QAEXXZ
$LN6@CacheResul:

; 43   : 	 
; 44   : 	return true;

	mov	al, 1
$LN2@CacheResul:

; 45   : }

	mov	esp, ebp
	pop	ebp
	ret	8
?CacheResults@CvReligionEntry@@UAE_NAAVResults@Database@@AAVCvDatabaseUtility@@@Z ENDP ; CvReligionEntry::CacheResults
_TEXT	ENDS
PUBLIC	?GetIconString@CvReligionEntry@@QBE?AVCvString@@XZ ; CvReligionEntry::GetIconString
EXTRN	__imp_??0?$basic_string@DU?$char_traits@D@std@@V?$allocator@D@2@@std@@QAE@ABV01@@Z:PROC
; Function compile flags: /Odtp
;	COMDAT ?GetIconString@CvReligionEntry@@QBE?AVCvString@@XZ
_TEXT	SEGMENT
_this$ = -8						; size = 4
$T231005 = -4						; size = 4
___$ReturnUdt$ = 8					; size = 4
?GetIconString@CvReligionEntry@@QBE?AVCvString@@XZ PROC	; CvReligionEntry::GetIconString, COMDAT
; _this$ = ecx

; 49   : {

	push	ebp
	mov	ebp, esp
	sub	esp, 8
	mov	DWORD PTR _this$[ebp], ecx
	mov	DWORD PTR $T231005[ebp], 0

; 50   : 	return m_strIconString;

	mov	eax, DWORD PTR _this$[ebp]
	add	eax, 260				; 00000104H
	push	eax
	mov	ecx, DWORD PTR ___$ReturnUdt$[ebp]
	call	DWORD PTR __imp_??0?$basic_string@DU?$char_traits@D@std@@V?$allocator@D@2@@std@@QAE@ABV01@@Z
	mov	ecx, DWORD PTR $T231005[ebp]
	or	ecx, 1
	mov	DWORD PTR $T231005[ebp], ecx
	mov	eax, DWORD PTR ___$ReturnUdt$[ebp]

; 51   : }

	mov	esp, ebp
	pop	ebp
	ret	4
?GetIconString@CvReligionEntry@@QBE?AVCvString@@XZ ENDP	; CvReligionEntry::GetIconString
_TEXT	ENDS
PUBLIC	??1?$_Vector_val@PAVCvReligionEntry@@V?$allocator@PAVCvReligionEntry@@@std@@@std@@QAE@XZ ; std::_Vector_val<CvReligionEntry *,std::allocator<CvReligionEntry *> >::~_Vector_val<CvReligionEntry *,std::allocator<CvReligionEntry *> >
PUBLIC	?_Buy@?$vector@PAVCvReligionEntry@@V?$allocator@PAVCvReligionEntry@@@std@@@std@@IAE_NI@Z ; std::vector<CvReligionEntry *,std::allocator<CvReligionEntry *> >::_Buy
PUBLIC	??0CvReligionXMLEntries@@QAE@XZ			; CvReligionXMLEntries::CvReligionXMLEntries
EXTRN	__CxxThrowException@8:PROC
;	COMDAT xdata$x
; File c:\program files (x86)\microsoft visual studio 9.0\vc\include\exception
xdata$x	SEGMENT
__unwindtable$??0CvReligionXMLEntries@@QAE@XZ DD 0ffffffffH
	DD	FLAT:__unwindfunclet$??0CvReligionXMLEntries@@QAE@XZ$1
__ehfuncinfo$??0CvReligionXMLEntries@@QAE@XZ DD 019930522H
	DD	01H
	DD	FLAT:__unwindtable$??0CvReligionXMLEntries@@QAE@XZ
	DD	2 DUP(00H)
	DD	2 DUP(00H)
	DD	00H
	DD	01H
; Function compile flags: /Odtp
; File d:\sources\lekmod_git\checkout\lekmod_dll\cvgamecoredll_expansion2\cvreligionclasses.cpp
xdata$x	ENDS
;	COMDAT ??0CvReligionXMLEntries@@QAE@XZ
_TEXT	SEGMENT
tv92 = -132						; size = 4
tv149 = -128						; size = 4
_this$ = -124						; size = 4
$T231044 = -30						; size = 1
$T231031 = -29						; size = 1
$T231027 = -28						; size = 4
$T231020 = -20						; size = 4
__$EHRec$ = -12						; size = 12
??0CvReligionXMLEntries@@QAE@XZ PROC			; CvReligionXMLEntries::CvReligionXMLEntries, COMDAT
; _this$ = ecx

; 58   : {

	push	ebp
	mov	ebp, esp
	push	-1
	push	__ehhandler$??0CvReligionXMLEntries@@QAE@XZ
	mov	eax, DWORD PTR fs:0
	push	eax
	sub	esp, 120				; 00000078H
	mov	eax, DWORD PTR ___security_cookie
	xor	eax, ebp
	push	eax
	lea	eax, DWORD PTR __$EHRec$[ebp]
	mov	DWORD PTR fs:0, eax
	mov	DWORD PTR _this$[ebp], ecx
	lea	eax, DWORD PTR $T231044[ebp]
	mov	DWORD PTR $T231020[ebp], eax
	lea	ecx, DWORD PTR $T231031[ebp]
	mov	DWORD PTR $T231027[ebp], ecx
	mov	edx, DWORD PTR _this$[ebp]
	mov	DWORD PTR tv149[ebp], edx
	mov	eax, DWORD PTR _this$[ebp]
	mov	DWORD PTR tv92[ebp], eax
	mov	DWORD PTR __$EHRec$[ebp+8], 0
	push	0
	mov	ecx, DWORD PTR _this$[ebp]
	call	?_Buy@?$vector@PAVCvReligionEntry@@V?$allocator@PAVCvReligionEntry@@@std@@@std@@IAE_NI@Z ; std::vector<CvReligionEntry *,std::allocator<CvReligionEntry *> >::_Buy
	mov	DWORD PTR __$EHRec$[ebp+8], -1

; 59   : 
; 60   : }

	mov	eax, DWORD PTR _this$[ebp]
	mov	ecx, DWORD PTR __$EHRec$[ebp]
	mov	DWORD PTR fs:0, ecx
	pop	ecx
	mov	esp, ebp
	pop	ebp
	ret	0
_TEXT	ENDS
;	COMDAT text$x
text$x	SEGMENT
__unwindfunclet$??0CvReligionXMLEntries@@QAE@XZ$1:
	mov	ecx, DWORD PTR _this$[ebp]
	jmp	??1?$_Vector_val@PAVCvReligionEntry@@V?$allocator@PAVCvReligionEntry@@@std@@@std@@QAE@XZ
__ehhandler$??0CvReligionXMLEntries@@QAE@XZ:
	mov	edx, DWORD PTR [esp+8]
	lea	eax, DWORD PTR [edx+12]
	mov	ecx, DWORD PTR [edx-124]
	xor	ecx, eax
	call	@__security_check_cookie@4
	mov	eax, OFFSET __ehfuncinfo$??0CvReligionXMLEntries@@QAE@XZ
	jmp	___CxxFrameHandler3
text$x	ENDS
??0CvReligionXMLEntries@@QAE@XZ ENDP			; CvReligionXMLEntries::CvReligionXMLEntries
PUBLIC	??1?$vector@PAVCvReligionEntry@@V?$allocator@PAVCvReligionEntry@@@std@@@std@@QAE@XZ ; std::vector<CvReligionEntry *,std::allocator<CvReligionEntry *> >::~vector<CvReligionEntry *,std::allocator<CvReligionEntry *> >
PUBLIC	?_Tidy@?$vector@PAVCvReligionEntry@@V?$allocator@PAVCvReligionEntry@@@std@@@std@@IAEXXZ ; std::vector<CvReligionEntry *,std::allocator<CvReligionEntry *> >::_Tidy
PUBLIC	?DeleteArray@CvReligionXMLEntries@@QAEXXZ	; CvReligionXMLEntries::DeleteArray
PUBLIC	??1CvReligionXMLEntries@@QAE@XZ			; CvReligionXMLEntries::~CvReligionXMLEntries
;	COMDAT xdata$x
; File c:\program files (x86)\microsoft visual studio 9.0\vc\include\xutility
xdata$x	SEGMENT
__unwindtable$??1CvReligionXMLEntries@@QAE@XZ DD 0ffffffffH
	DD	FLAT:__unwindfunclet$??1CvReligionXMLEntries@@QAE@XZ$0
	DD	0ffffffffH
	DD	FLAT:__unwindfunclet$??1CvReligionXMLEntries@@QAE@XZ$1
__ehfuncinfo$??1CvReligionXMLEntries@@QAE@XZ DD 019930522H
	DD	02H
	DD	FLAT:__unwindtable$??1CvReligionXMLEntries@@QAE@XZ
	DD	2 DUP(00H)
	DD	2 DUP(00H)
	DD	00H
	DD	01H
; Function compile flags: /Odtp
; File d:\sources\lekmod_git\checkout\lekmod_dll\cvgamecoredll_expansion2\cvreligionclasses.cpp
xdata$x	ENDS
;	COMDAT ??1CvReligionXMLEntries@@QAE@XZ
_TEXT	SEGMENT
_this$ = -44						; size = 4
__$EHRec$ = -12						; size = 12
??1CvReligionXMLEntries@@QAE@XZ PROC			; CvReligionXMLEntries::~CvReligionXMLEntries, COMDAT
; _this$ = ecx

; 64   : {

	push	ebp
	mov	ebp, esp
	push	-1
	push	__ehhandler$??1CvReligionXMLEntries@@QAE@XZ
	mov	eax, DWORD PTR fs:0
	push	eax
	sub	esp, 32					; 00000020H
	mov	eax, DWORD PTR ___security_cookie
	xor	eax, ebp
	push	eax
	lea	eax, DWORD PTR __$EHRec$[ebp]
	mov	DWORD PTR fs:0, eax
	mov	DWORD PTR _this$[ebp], ecx
	mov	DWORD PTR __$EHRec$[ebp+8], 0

; 65   : 	DeleteArray();

	mov	ecx, DWORD PTR _this$[ebp]
	call	?DeleteArray@CvReligionXMLEntries@@QAEXXZ ; CvReligionXMLEntries::DeleteArray

; 66   : }

	mov	DWORD PTR __$EHRec$[ebp+8], 1
	mov	ecx, DWORD PTR _this$[ebp]
	call	?_Tidy@?$vector@PAVCvReligionEntry@@V?$allocator@PAVCvReligionEntry@@@std@@@std@@IAEXXZ ; std::vector<CvReligionEntry *,std::allocator<CvReligionEntry *> >::_Tidy
	mov	DWORD PTR __$EHRec$[ebp+8], -1
	mov	ecx, DWORD PTR __$EHRec$[ebp]
	mov	DWORD PTR fs:0, ecx
	pop	ecx
	mov	esp, ebp
	pop	ebp
	ret	0
_TEXT	ENDS
;	COMDAT text$x
text$x	SEGMENT
__unwindfunclet$??1CvReligionXMLEntries@@QAE@XZ$0:
	mov	ecx, DWORD PTR _this$[ebp]
	jmp	??1?$vector@PAVCvReligionEntry@@V?$allocator@PAVCvReligionEntry@@@std@@@std@@QAE@XZ ; std::vector<CvReligionEntry *,std::allocator<CvReligionEntry *> >::~vector<CvReligionEntry *,std::allocator<CvReligionEntry *> >
__unwindfunclet$??1CvReligionXMLEntries@@QAE@XZ$1:
	mov	ecx, DWORD PTR _this$[ebp]
	jmp	??1?$_Vector_val@PAVCvReligionEntry@@V?$allocator@PAVCvReligionEntry@@@std@@@std@@QAE@XZ
__ehhandler$??1CvReligionXMLEntries@@QAE@XZ:
	mov	edx, DWORD PTR [esp+8]
	lea	eax, DWORD PTR [edx+12]
	mov	ecx, DWORD PTR [edx-36]
	xor	ecx, eax
	call	@__security_check_cookie@4
	mov	eax, OFFSET __ehfuncinfo$??1CvReligionXMLEntries@@QAE@XZ
	jmp	___CxxFrameHandler3
text$x	ENDS
??1CvReligionXMLEntries@@QAE@XZ ENDP			; CvReligionXMLEntries::~CvReligionXMLEntries
PUBLIC	?GetReligionEntries@CvReligionXMLEntries@@QAEAAV?$vector@PAVCvReligionEntry@@V?$allocator@PAVCvReligionEntry@@@std@@@std@@XZ ; CvReligionXMLEntries::GetReligionEntries
; Function compile flags: /Odtp
;	COMDAT ?GetReligionEntries@CvReligionXMLEntries@@QAEAAV?$vector@PAVCvReligionEntry@@V?$allocator@PAVCvReligionEntry@@@std@@@std@@XZ
_TEXT	SEGMENT
_this$ = -4						; size = 4
?GetReligionEntries@CvReligionXMLEntries@@QAEAAV?$vector@PAVCvReligionEntry@@V?$allocator@PAVCvReligionEntry@@@std@@@std@@XZ PROC ; CvReligionXMLEntries::GetReligionEntries, COMDAT
; _this$ = ecx

; 70   : {

	push	ebp
	mov	ebp, esp
	push	ecx
	mov	DWORD PTR _this$[ebp], ecx

; 71   : 	return m_paReligionEntries;

	mov	eax, DWORD PTR _this$[ebp]

; 72   : }

	mov	esp, ebp
	pop	ebp
	ret	0
?GetReligionEntries@CvReligionXMLEntries@@QAEAAV?$vector@PAVCvReligionEntry@@V?$allocator@PAVCvReligionEntry@@@std@@@std@@XZ ENDP ; CvReligionXMLEntries::GetReligionEntries
_TEXT	ENDS
PUBLIC	?GetNumReligions@CvReligionXMLEntries@@QAEHXZ	; CvReligionXMLEntries::GetNumReligions
; Function compile flags: /Odtp
;	COMDAT ?GetNumReligions@CvReligionXMLEntries@@QAEHXZ
_TEXT	SEGMENT
_this$ = -4						; size = 4
?GetNumReligions@CvReligionXMLEntries@@QAEHXZ PROC	; CvReligionXMLEntries::GetNumReligions, COMDAT
; _this$ = ecx

; 76   : {

	push	ebp
	mov	ebp, esp
	push	ecx
	mov	DWORD PTR _this$[ebp], ecx

; 77   : 	return m_paReligionEntries.size();

	mov	eax, DWORD PTR _this$[ebp]
	mov	ecx, DWORD PTR _this$[ebp]
	mov	eax, DWORD PTR [eax+8]
	sub	eax, DWORD PTR [ecx+4]
	sar	eax, 2

; 78   : }

	mov	esp, ebp
	pop	ebp
	ret	0
?GetNumReligions@CvReligionXMLEntries@@QAEHXZ ENDP	; CvReligionXMLEntries::GetNumReligions
_TEXT	ENDS
PUBLIC	?erase@?$vector@PAVCvReligionEntry@@V?$allocator@PAVCvReligionEntry@@@std@@@std@@QAE?AV?$_Vector_iterator@PAVCvReligionEntry@@V?$allocator@PAVCvReligionEntry@@@std@@@2@V?$_Vector_const_iterator@PAVCvReligionEntry@@V?$allocator@PAVCvReligionEntry@@@std@@@2@0@Z ; std::vector<CvReligionEntry *,std::allocator<CvReligionEntry *> >::erase
EXTRN	??3@YAXPAX@Z:PROC				; operator delete
; Function compile flags: /Odtp
;	COMDAT ?DeleteArray@CvReligionXMLEntries@@QAEXXZ
_TEXT	SEGMENT
tv143 = -116						; size = 4
_this$ = -112						; size = 4
$T231287 = -56						; size = 4
$T231271 = -52						; size = 4
$T231392 = -48						; size = 4
$T231391 = -44						; size = 4
$T231390 = -40						; size = 4
$T231389 = -36						; size = 4
$T231388 = -32						; size = 4
$T231255 = -28						; size = 4
$T231249 = -24						; size = 4
$T231248 = -20						; size = 4
$T231214 = -16						; size = 4
$T231190 = -12						; size = 4
$T231180 = -8						; size = 4
_it$223776 = -4						; size = 4
?DeleteArray@CvReligionXMLEntries@@QAEXXZ PROC		; CvReligionXMLEntries::DeleteArray, COMDAT
; _this$ = ecx

; 82   : {

	push	ebp
	mov	ebp, esp
	sub	esp, 116				; 00000074H
	mov	DWORD PTR _this$[ebp], ecx

; 83   : 	for(std::vector<CvReligionEntry*>::iterator it = m_paReligionEntries.begin(); it != m_paReligionEntries.end(); ++it)

	mov	eax, DWORD PTR _this$[ebp]
	mov	ecx, DWORD PTR [eax+4]
	mov	DWORD PTR $T231190[ebp], ecx
	mov	edx, DWORD PTR $T231190[ebp]
	mov	DWORD PTR _it$223776[ebp], edx
	jmp	SHORT $LN3@DeleteArra
$LN2@DeleteArra:
	mov	eax, DWORD PTR _it$223776[ebp]
	add	eax, 4
	mov	DWORD PTR _it$223776[ebp], eax
$LN3@DeleteArra:
	mov	ecx, DWORD PTR _this$[ebp]
	mov	edx, DWORD PTR [ecx+8]
	mov	DWORD PTR $T231214[ebp], edx
	mov	eax, DWORD PTR $T231214[ebp]
	mov	DWORD PTR $T231180[ebp], eax
	mov	ecx, DWORD PTR _it$223776[ebp]
	xor	edx, edx
	cmp	ecx, DWORD PTR $T231180[ebp]
	sete	dl
	movzx	eax, dl
	neg	eax
	sbb	eax, eax
	add	eax, 1
	movzx	ecx, al
	test	ecx, ecx
	je	SHORT $LN1@DeleteArra

; 84   : 	{
; 85   : 		SAFE_DELETE(*it);

	mov	edx, DWORD PTR _it$223776[ebp]
	mov	DWORD PTR $T231255[ebp], edx
	mov	eax, DWORD PTR $T231255[ebp]
	mov	ecx, DWORD PTR [eax]
	mov	DWORD PTR $T231249[ebp], ecx
	mov	edx, DWORD PTR $T231249[ebp]
	mov	DWORD PTR $T231248[ebp], edx
	cmp	DWORD PTR $T231248[ebp], 0
	je	SHORT $LN32@DeleteArra
	mov	ecx, DWORD PTR $T231248[ebp]
	call	??1CvReligionEntry@@QAE@XZ		; CvReligionEntry::~CvReligionEntry
	mov	eax, 1
	and	eax, 1
	je	SHORT $LN35@DeleteArra
	mov	ecx, DWORD PTR $T231248[ebp]
	push	ecx
	call	??3@YAXPAX@Z				; operator delete
	add	esp, 4
$LN35@DeleteArra:
	mov	edx, DWORD PTR $T231248[ebp]
	mov	DWORD PTR tv143[ebp], edx
	jmp	SHORT $LN33@DeleteArra
$LN32@DeleteArra:
	mov	DWORD PTR tv143[ebp], 0
$LN33@DeleteArra:
	mov	eax, DWORD PTR $T231255[ebp]
	mov	DWORD PTR [eax], 0

; 86   : 	}

	jmp	$LN2@DeleteArra
$LN1@DeleteArra:

; 87   : 
; 88   : 	m_paReligionEntries.clear();

	mov	ecx, DWORD PTR _this$[ebp]
	mov	edx, DWORD PTR [ecx+8]
	mov	DWORD PTR $T231271[ebp], edx
	mov	eax, DWORD PTR $T231271[ebp]
	mov	DWORD PTR $T231389[ebp], eax
	mov	ecx, DWORD PTR $T231389[ebp]
	mov	DWORD PTR $T231388[ebp], ecx
	mov	edx, DWORD PTR _this$[ebp]
	mov	eax, DWORD PTR [edx+4]
	mov	DWORD PTR $T231287[ebp], eax
	mov	ecx, DWORD PTR $T231287[ebp]
	mov	DWORD PTR $T231391[ebp], ecx
	mov	edx, DWORD PTR $T231391[ebp]
	mov	DWORD PTR $T231390[ebp], edx
	mov	eax, DWORD PTR $T231388[ebp]
	push	eax
	mov	ecx, DWORD PTR $T231390[ebp]
	push	ecx
	lea	edx, DWORD PTR $T231392[ebp]
	push	edx
	mov	ecx, DWORD PTR _this$[ebp]
	call	?erase@?$vector@PAVCvReligionEntry@@V?$allocator@PAVCvReligionEntry@@@std@@@std@@QAE?AV?$_Vector_iterator@PAVCvReligionEntry@@V?$allocator@PAVCvReligionEntry@@@std@@@2@V?$_Vector_const_iterator@PAVCvReligionEntry@@V?$allocator@PAVCvReligionEntry@@@std@@@2@0@Z ; std::vector<CvReligionEntry *,std::allocator<CvReligionEntry *> >::erase

; 89   : }

	mov	esp, ebp
	pop	ebp
	ret	0
?DeleteArray@CvReligionXMLEntries@@QAEXXZ ENDP		; CvReligionXMLEntries::DeleteArray
_TEXT	ENDS
PUBLIC	?GetEntry@CvReligionXMLEntries@@QAEPAVCvReligionEntry@@H@Z ; CvReligionXMLEntries::GetEntry
; Function compile flags: /Odtp
;	COMDAT ?GetEntry@CvReligionXMLEntries@@QAEPAVCvReligionEntry@@H@Z
_TEXT	SEGMENT
_this$ = -4						; size = 4
_index$ = 8						; size = 4
?GetEntry@CvReligionXMLEntries@@QAEPAVCvReligionEntry@@H@Z PROC ; CvReligionXMLEntries::GetEntry, COMDAT
; _this$ = ecx

; 93   : {

	push	ebp
	mov	ebp, esp
	push	ecx
	mov	DWORD PTR _this$[ebp], ecx

; 94   : 	return m_paReligionEntries[index];

	mov	eax, DWORD PTR _this$[ebp]
	mov	ecx, DWORD PTR [eax+4]
	mov	edx, DWORD PTR _index$[ebp]
	mov	eax, DWORD PTR [ecx+edx*4]

; 95   : }

	mov	esp, ebp
	pop	ebp
	ret	4
?GetEntry@CvReligionXMLEntries@@QAEPAVCvReligionEntry@@H@Z ENDP ; CvReligionXMLEntries::GetEntry
_TEXT	ENDS
PUBLIC	??0CvReligion@@QAE@XZ				; CvReligion::CvReligion
EXTRN	??0CvReligionBeliefs@@QAE@XZ:PROC		; CvReligionBeliefs::CvReligionBeliefs
EXTRN	_memset:PROC
; Function compile flags: /Odtp
;	COMDAT ??0CvReligion@@QAE@XZ
_TEXT	SEGMENT
_this$ = -4						; size = 4
??0CvReligion@@QAE@XZ PROC				; CvReligion::CvReligion, COMDAT
; _this$ = ecx

; 109  : {

	push	ebp
	mov	ebp, esp
	push	ecx
	mov	DWORD PTR _this$[ebp], ecx
	mov	eax, DWORD PTR _this$[ebp]
	mov	DWORD PTR [eax], -1
	mov	ecx, DWORD PTR _this$[ebp]
	mov	DWORD PTR [ecx+4], -1
	mov	edx, DWORD PTR _this$[ebp]
	mov	DWORD PTR [edx+8], -1
	mov	eax, DWORD PTR _this$[ebp]
	mov	DWORD PTR [eax+12], -1
	mov	ecx, DWORD PTR _this$[ebp]
	mov	DWORD PTR [ecx+16], -1
	mov	edx, DWORD PTR _this$[ebp]
	mov	BYTE PTR [edx+20], 0
	mov	eax, DWORD PTR _this$[ebp]
	mov	BYTE PTR [eax+21], 0
	mov	ecx, DWORD PTR _this$[ebp]
	add	ecx, 152				; 00000098H
	call	??0CvReligionBeliefs@@QAE@XZ		; CvReligionBeliefs::CvReligionBeliefs

; 110  : 	ZeroMemory(m_szCustomName, sizeof(m_szCustomName));

	push	128					; 00000080H
	push	0
	mov	ecx, DWORD PTR _this$[ebp]
	add	ecx, 22					; 00000016H
	push	ecx
	call	_memset
	add	esp, 12					; 0000000cH

; 111  : }

	mov	eax, DWORD PTR _this$[ebp]
	mov	esp, ebp
	pop	ebp
	ret	0
??0CvReligion@@QAE@XZ ENDP				; CvReligion::CvReligion
_TEXT	ENDS
PUBLIC	??0CvReligion@@QAE@W4ReligionTypes@@W4PlayerTypes@@PAVCvCity@@_N@Z ; CvReligion::CvReligion
EXTRN	??1CvReligionBeliefs@@QAE@XZ:PROC		; CvReligionBeliefs::~CvReligionBeliefs
EXTRN	?getGameTurn@CvGame@@QAEHXZ:PROC		; CvGame::getGameTurn
EXTRN	?gGlobals@@3VCvGlobals@@A:BYTE			; gGlobals
;	COMDAT xdata$x
; File d:\sources\lekmod_git\checkout\lekmod_dll\cvgamecoredll_expansion2\cvglobals.h
xdata$x	SEGMENT
__unwindtable$??0CvReligion@@QAE@W4ReligionTypes@@W4PlayerTypes@@PAVCvCity@@_N@Z DD 0ffffffffH
	DD	FLAT:__unwindfunclet$??0CvReligion@@QAE@W4ReligionTypes@@W4PlayerTypes@@PAVCvCity@@_N@Z$0
__ehfuncinfo$??0CvReligion@@QAE@W4ReligionTypes@@W4PlayerTypes@@PAVCvCity@@_N@Z DD 019930522H
	DD	01H
	DD	FLAT:__unwindtable$??0CvReligion@@QAE@W4ReligionTypes@@W4PlayerTypes@@PAVCvCity@@_N@Z
	DD	2 DUP(00H)
	DD	2 DUP(00H)
	DD	00H
	DD	01H
; Function compile flags: /Odtp
; File d:\sources\lekmod_git\checkout\lekmod_dll\cvgamecoredll_expansion2\cvreligionclasses.cpp
xdata$x	ENDS
;	COMDAT ??0CvReligion@@QAE@W4ReligionTypes@@W4PlayerTypes@@PAVCvCity@@_N@Z
_TEXT	SEGMENT
_this$ = -28						; size = 4
$T231438 = -24						; size = 4
$T231434 = -20						; size = 4
$T231425 = -16						; size = 4
__$EHRec$ = -12						; size = 12
_eReligion$ = 8						; size = 4
_eFounder$ = 12						; size = 4
_pHolyCity$ = 16					; size = 4
_bPantheon$ = 20					; size = 1
??0CvReligion@@QAE@W4ReligionTypes@@W4PlayerTypes@@PAVCvCity@@_N@Z PROC ; CvReligion::CvReligion, COMDAT
; _this$ = ecx

; 119  : {

	push	ebp
	mov	ebp, esp
	push	-1
	push	__ehhandler$??0CvReligion@@QAE@W4ReligionTypes@@W4PlayerTypes@@PAVCvCity@@_N@Z
	mov	eax, DWORD PTR fs:0
	push	eax
	sub	esp, 16					; 00000010H
	mov	eax, DWORD PTR ___security_cookie
	xor	eax, ebp
	push	eax
	lea	eax, DWORD PTR __$EHRec$[ebp]
	mov	DWORD PTR fs:0, eax
	mov	DWORD PTR _this$[ebp], ecx
	mov	eax, DWORD PTR _this$[ebp]
	mov	ecx, DWORD PTR _eReligion$[ebp]
	mov	DWORD PTR [eax], ecx
	mov	edx, DWORD PTR _this$[ebp]
	mov	eax, DWORD PTR _eFounder$[ebp]
	mov	DWORD PTR [edx+4], eax
	mov	ecx, DWORD PTR _this$[ebp]
	mov	dl, BYTE PTR _bPantheon$[ebp]
	mov	BYTE PTR [ecx+20], dl
	mov	eax, DWORD PTR _this$[ebp]
	mov	BYTE PTR [eax+21], 0
	mov	ecx, DWORD PTR _this$[ebp]
	add	ecx, 152				; 00000098H
	call	??0CvReligionBeliefs@@QAE@XZ		; CvReligionBeliefs::CvReligionBeliefs
	mov	DWORD PTR __$EHRec$[ebp+8], 0

; 120  : 	if(pHolyCity)

	cmp	DWORD PTR _pHolyCity$[ebp], 0
	je	SHORT $LN1@CvReligion

; 121  : 	{
; 122  : 		m_iHolyCityX = pHolyCity->getX();

	mov	ecx, DWORD PTR _pHolyCity$[ebp]
	mov	edx, DWORD PTR [ecx+96]
	mov	DWORD PTR $T231425[ebp], edx
	mov	eax, DWORD PTR _this$[ebp]
	mov	ecx, DWORD PTR $T231425[ebp]
	mov	DWORD PTR [eax+8], ecx

; 123  : 		m_iHolyCityY = pHolyCity->getY();

	mov	edx, DWORD PTR _pHolyCity$[ebp]
	mov	eax, DWORD PTR [edx+108]
	mov	DWORD PTR $T231434[ebp], eax
	mov	ecx, DWORD PTR _this$[ebp]
	mov	edx, DWORD PTR $T231434[ebp]
	mov	DWORD PTR [ecx+12], edx
$LN1@CvReligion:

; 124  : 	}
; 125  : 	m_iTurnFounded = GC.getGame().getGameTurn();

	mov	eax, DWORD PTR ?gGlobals@@3VCvGlobals@@A+48
	mov	DWORD PTR $T231438[ebp], eax
	mov	ecx, DWORD PTR $T231438[ebp]
	call	?getGameTurn@CvGame@@QAEHXZ		; CvGame::getGameTurn
	mov	ecx, DWORD PTR _this$[ebp]
	mov	DWORD PTR [ecx+16], eax

; 126  : 	ZeroMemory(m_szCustomName, sizeof(m_szCustomName));

	push	128					; 00000080H
	push	0
	mov	edx, DWORD PTR _this$[ebp]
	add	edx, 22					; 00000016H
	push	edx
	call	_memset
	add	esp, 12					; 0000000cH

; 127  : }

	mov	DWORD PTR __$EHRec$[ebp+8], -1
	mov	eax, DWORD PTR _this$[ebp]
	mov	ecx, DWORD PTR __$EHRec$[ebp]
	mov	DWORD PTR fs:0, ecx
	pop	ecx
	mov	esp, ebp
	pop	ebp
	ret	16					; 00000010H
_TEXT	ENDS
;	COMDAT text$x
text$x	SEGMENT
__unwindfunclet$??0CvReligion@@QAE@W4ReligionTypes@@W4PlayerTypes@@PAVCvCity@@_N@Z$0:
	mov	ecx, DWORD PTR _this$[ebp]
	add	ecx, 152				; 00000098H
	jmp	??1CvReligionBeliefs@@QAE@XZ		; CvReligionBeliefs::~CvReligionBeliefs
__ehhandler$??0CvReligion@@QAE@W4ReligionTypes@@W4PlayerTypes@@PAVCvCity@@_N@Z:
	mov	edx, DWORD PTR [esp+8]
	lea	eax, DWORD PTR [edx+12]
	mov	ecx, DWORD PTR [edx-20]
	xor	ecx, eax
	call	@__security_check_cookie@4
	mov	eax, OFFSET __ehfuncinfo$??0CvReligion@@QAE@W4ReligionTypes@@W4PlayerTypes@@PAVCvCity@@_N@Z
	jmp	___CxxFrameHandler3
text$x	ENDS
??0CvReligion@@QAE@W4ReligionTypes@@W4PlayerTypes@@PAVCvCity@@_N@Z ENDP ; CvReligion::CvReligion
PUBLIC	??$?5D$0IA@@@YAAAVFDataStream@@AAV0@AAY0IA@D@Z	; operator>><char,128>
PUBLIC	??5@YAAAVFDataStream@@AAV0@AAVCvReligion@@@Z	; operator>>
EXTRN	?Read@CvReligionBeliefs@@QAEXAAVFDataStream@@@Z:PROC ; CvReligionBeliefs::Read
EXTRN	?Read@FDataStream@@IAEXAA_N@Z:PROC		; FDataStream::Read
EXTRN	?Read@FDataStream@@IAEXAAH@Z:PROC		; FDataStream::Read
EXTRN	??5@YAAAVFDataStream@@AAV0@AAW4PlayerTypes@@@Z:PROC ; operator>>
EXTRN	??5@YAAAVFDataStream@@AAV0@AAW4ReligionTypes@@@Z:PROC ; operator>>
EXTRN	?Read@FDataStream@@IAEXAAI@Z:PROC		; FDataStream::Read
; Function compile flags: /Odtp
;	COMDAT ??5@YAAAVFDataStream@@AAV0@AAVCvReligion@@@Z
_TEXT	SEGMENT
_uiVersion$ = -4					; size = 4
_loadFrom$ = 8						; size = 4
_writeTo$ = 12						; size = 4
??5@YAAAVFDataStream@@AAV0@AAVCvReligion@@@Z PROC	; operator>>, COMDAT

; 131  : {

	push	ebp
	mov	ebp, esp
	push	ecx

; 132  : 	uint uiVersion;
; 133  : 	loadFrom >> uiVersion;

	lea	eax, DWORD PTR _uiVersion$[ebp]
	push	eax
	mov	ecx, DWORD PTR _loadFrom$[ebp]
	call	?Read@FDataStream@@IAEXAAI@Z		; FDataStream::Read

; 134  : 
; 135  : 	loadFrom >> writeTo.m_eReligion;

	mov	ecx, DWORD PTR _writeTo$[ebp]
	push	ecx
	mov	edx, DWORD PTR _loadFrom$[ebp]
	push	edx
	call	??5@YAAAVFDataStream@@AAV0@AAW4ReligionTypes@@@Z ; operator>>
	add	esp, 8

; 136  : 	loadFrom >> writeTo.m_eFounder;

	mov	eax, DWORD PTR _writeTo$[ebp]
	add	eax, 4
	push	eax
	mov	ecx, DWORD PTR _loadFrom$[ebp]
	push	ecx
	call	??5@YAAAVFDataStream@@AAV0@AAW4PlayerTypes@@@Z ; operator>>
	add	esp, 8

; 137  : 	loadFrom >> writeTo.m_iHolyCityX;

	mov	edx, DWORD PTR _writeTo$[ebp]
	add	edx, 8
	push	edx
	mov	ecx, DWORD PTR _loadFrom$[ebp]
	call	?Read@FDataStream@@IAEXAAH@Z		; FDataStream::Read

; 138  : 	loadFrom >> writeTo.m_iHolyCityY;

	mov	eax, DWORD PTR _writeTo$[ebp]
	add	eax, 12					; 0000000cH
	push	eax
	mov	ecx, DWORD PTR _loadFrom$[ebp]
	call	?Read@FDataStream@@IAEXAAH@Z		; FDataStream::Read

; 139  : 	loadFrom >> writeTo.m_iTurnFounded;

	mov	ecx, DWORD PTR _writeTo$[ebp]
	add	ecx, 16					; 00000010H
	push	ecx
	mov	ecx, DWORD PTR _loadFrom$[ebp]
	call	?Read@FDataStream@@IAEXAAH@Z		; FDataStream::Read

; 140  : 
; 141  : 	if(uiVersion >= 2)

	cmp	DWORD PTR _uiVersion$[ebp], 2
	jb	SHORT $LN5@operator

; 142  : 	{
; 143  : 		loadFrom >> writeTo.m_bPantheon;

	mov	edx, DWORD PTR _writeTo$[ebp]
	add	edx, 20					; 00000014H
	push	edx
	mov	ecx, DWORD PTR _loadFrom$[ebp]
	call	?Read@FDataStream@@IAEXAA_N@Z		; FDataStream::Read

; 144  : 	}
; 145  : 	else

	jmp	SHORT $LN4@operator
$LN5@operator:

; 146  : 	{
; 147  : 		writeTo.m_bPantheon = false;

	mov	eax, DWORD PTR _writeTo$[ebp]
	mov	BYTE PTR [eax+20], 0
$LN4@operator:

; 148  : 	}
; 149  : 
; 150  : 	if(uiVersion >= 4)

	cmp	DWORD PTR _uiVersion$[ebp], 4
	jb	SHORT $LN3@operator

; 151  : 	{
; 152  : 		loadFrom >> writeTo.m_bEnhanced;

	mov	ecx, DWORD PTR _writeTo$[ebp]
	add	ecx, 21					; 00000015H
	push	ecx
	mov	ecx, DWORD PTR _loadFrom$[ebp]
	call	?Read@FDataStream@@IAEXAA_N@Z		; FDataStream::Read

; 153  : 	}
; 154  : 	else

	jmp	SHORT $LN2@operator
$LN3@operator:

; 155  : 	{
; 156  : 		writeTo.m_bEnhanced = false;

	mov	edx, DWORD PTR _writeTo$[ebp]
	mov	BYTE PTR [edx+21], 0
$LN2@operator:

; 157  : 	}
; 158  : 
; 159  : 	ZeroMemory(writeTo.m_szCustomName, sizeof(writeTo.m_szCustomName));

	push	128					; 00000080H
	push	0
	mov	eax, DWORD PTR _writeTo$[ebp]
	add	eax, 22					; 00000016H
	push	eax
	call	_memset
	add	esp, 12					; 0000000cH

; 160  : 	if(uiVersion >= 3)

	cmp	DWORD PTR _uiVersion$[ebp], 3
	jb	SHORT $LN1@operator

; 161  : 	{
; 162  : 		loadFrom >> writeTo.m_szCustomName;

	mov	ecx, DWORD PTR _writeTo$[ebp]
	add	ecx, 22					; 00000016H
	push	ecx
	mov	edx, DWORD PTR _loadFrom$[ebp]
	push	edx
	call	??$?5D$0IA@@@YAAAVFDataStream@@AAV0@AAY0IA@D@Z ; operator>><char,128>
	add	esp, 8
$LN1@operator:

; 163  : 	}
; 164  : 
; 165  : 	writeTo.m_Beliefs.Read(loadFrom);

	mov	eax, DWORD PTR _loadFrom$[ebp]
	push	eax
	mov	ecx, DWORD PTR _writeTo$[ebp]
	add	ecx, 152				; 00000098H
	call	?Read@CvReligionBeliefs@@QAEXAAVFDataStream@@@Z ; CvReligionBeliefs::Read

; 166  : 
; 167  : 	return loadFrom;

	mov	eax, DWORD PTR _loadFrom$[ebp]

; 168  : }

	mov	esp, ebp
	pop	ebp
	ret	0
??5@YAAAVFDataStream@@AAV0@AAVCvReligion@@@Z ENDP	; operator>>
_TEXT	ENDS
PUBLIC	??$?6D$0IA@@@YAAAVFDataStream@@AAV0@AAY0IA@$$CBD@Z ; operator<<<char,128>
PUBLIC	??6@YAAAVFDataStream@@AAV0@ABVCvReligion@@@Z	; operator<<
EXTRN	?Write@CvReligionBeliefs@@QBEXAAVFDataStream@@@Z:PROC ; CvReligionBeliefs::Write
EXTRN	?Write@FDataStream@@IAEXAB_N@Z:PROC		; FDataStream::Write
EXTRN	?Write@FDataStream@@IAEXABH@Z:PROC		; FDataStream::Write
EXTRN	??6@YAAAVFDataStream@@AAV0@ABW4PlayerTypes@@@Z:PROC ; operator<<
EXTRN	??6@YAAAVFDataStream@@AAV0@ABW4ReligionTypes@@@Z:PROC ; operator<<
EXTRN	?Write@FDataStream@@IAEXABI@Z:PROC		; FDataStream::Write
; Function compile flags: /Odtp
;	COMDAT ??6@YAAAVFDataStream@@AAV0@ABVCvReligion@@@Z
_TEXT	SEGMENT
_uiVersion$ = -4					; size = 4
_saveTo$ = 8						; size = 4
_readFrom$ = 12						; size = 4
??6@YAAAVFDataStream@@AAV0@ABVCvReligion@@@Z PROC	; operator<<, COMDAT

; 172  : {

	push	ebp
	mov	ebp, esp
	push	ecx

; 173  : 	uint uiVersion = 4;

	mov	DWORD PTR _uiVersion$[ebp], 4

; 174  : 	saveTo << uiVersion;

	lea	eax, DWORD PTR _uiVersion$[ebp]
	push	eax
	mov	ecx, DWORD PTR _saveTo$[ebp]
	call	?Write@FDataStream@@IAEXABI@Z		; FDataStream::Write

; 175  : 
; 176  : 	saveTo << readFrom.m_eReligion;

	mov	ecx, DWORD PTR _readFrom$[ebp]
	push	ecx
	mov	edx, DWORD PTR _saveTo$[ebp]
	push	edx
	call	??6@YAAAVFDataStream@@AAV0@ABW4ReligionTypes@@@Z ; operator<<
	add	esp, 8

; 177  : 	saveTo << readFrom.m_eFounder;

	mov	eax, DWORD PTR _readFrom$[ebp]
	add	eax, 4
	push	eax
	mov	ecx, DWORD PTR _saveTo$[ebp]
	push	ecx
	call	??6@YAAAVFDataStream@@AAV0@ABW4PlayerTypes@@@Z ; operator<<
	add	esp, 8

; 178  : 	saveTo << readFrom.m_iHolyCityX;

	mov	edx, DWORD PTR _readFrom$[ebp]
	add	edx, 8
	push	edx
	mov	ecx, DWORD PTR _saveTo$[ebp]
	call	?Write@FDataStream@@IAEXABH@Z		; FDataStream::Write

; 179  : 	saveTo << readFrom.m_iHolyCityY;

	mov	eax, DWORD PTR _readFrom$[ebp]
	add	eax, 12					; 0000000cH
	push	eax
	mov	ecx, DWORD PTR _saveTo$[ebp]
	call	?Write@FDataStream@@IAEXABH@Z		; FDataStream::Write

; 180  : 	saveTo << readFrom.m_iTurnFounded;

	mov	ecx, DWORD PTR _readFrom$[ebp]
	add	ecx, 16					; 00000010H
	push	ecx
	mov	ecx, DWORD PTR _saveTo$[ebp]
	call	?Write@FDataStream@@IAEXABH@Z		; FDataStream::Write

; 181  : 	saveTo << readFrom.m_bPantheon;

	mov	edx, DWORD PTR _readFrom$[ebp]
	add	edx, 20					; 00000014H
	push	edx
	mov	ecx, DWORD PTR _saveTo$[ebp]
	call	?Write@FDataStream@@IAEXAB_N@Z		; FDataStream::Write

; 182  : 	saveTo << readFrom.m_bEnhanced;

	mov	eax, DWORD PTR _readFrom$[ebp]
	add	eax, 21					; 00000015H
	push	eax
	mov	ecx, DWORD PTR _saveTo$[ebp]
	call	?Write@FDataStream@@IAEXAB_N@Z		; FDataStream::Write

; 183  : 	saveTo << readFrom.m_szCustomName;

	mov	ecx, DWORD PTR _readFrom$[ebp]
	add	ecx, 22					; 00000016H
	push	ecx
	mov	edx, DWORD PTR _saveTo$[ebp]
	push	edx
	call	??$?6D$0IA@@@YAAAVFDataStream@@AAV0@AAY0IA@$$CBD@Z ; operator<<<char,128>
	add	esp, 8

; 184  : 
; 185  : 	readFrom.m_Beliefs.Write(saveTo);

	mov	eax, DWORD PTR _saveTo$[ebp]
	push	eax
	mov	ecx, DWORD PTR _readFrom$[ebp]
	add	ecx, 152				; 00000098H
	call	?Write@CvReligionBeliefs@@QBEXAAVFDataStream@@@Z ; CvReligionBeliefs::Write

; 186  : 
; 187  : 	return saveTo;

	mov	eax, DWORD PTR _saveTo$[ebp]

; 188  : }

	mov	esp, ebp
	pop	ebp
	ret	0
??6@YAAAVFDataStream@@AAV0@ABVCvReligion@@@Z ENDP	; operator<<
_TEXT	ENDS
PUBLIC	??_C@_0M@KDICFKJM@No?5Religion?$AA@		; `string'
PUBLIC	??_C@_00CNPNBAHC@?$AA@				; `string'
PUBLIC	__$ArrayPad$
PUBLIC	?GetName@CvReligion@@QBE?AVCvString@@XZ		; CvReligion::GetName
EXTRN	__imp_??0?$basic_string@DU?$char_traits@D@std@@V?$allocator@D@2@@std@@QAE@PBD@Z:PROC
EXTRN	__imp_?c_str@?$basic_string@DU?$char_traits@D@std@@V?$allocator@D@2@@std@@QBEPBDXZ:PROC
EXTRN	?getReligionInfo@CvGlobals@@QAEPAVCvReligionEntry@@W4ReligionTypes@@@Z:PROC ; CvGlobals::getReligionInfo
;	COMDAT ??_C@_0M@KDICFKJM@No?5Religion?$AA@
; File d:\sources\lekmod_git\checkout\lekmod_dll\cvgamecoredllutil\include\cvstring.h
CONST	SEGMENT
??_C@_0M@KDICFKJM@No?5Religion?$AA@ DB 'No Religion', 00H ; `string'
CONST	ENDS
;	COMDAT ??_C@_00CNPNBAHC@?$AA@
CONST	SEGMENT
??_C@_00CNPNBAHC@?$AA@ DB 00H				; `string'
CONST	ENDS
;	COMDAT xdata$x
xdata$x	SEGMENT
__unwindtable$?GetName@CvReligion@@QBE?AVCvString@@XZ DD 0ffffffffH
	DD	FLAT:__unwindfunclet$?GetName@CvReligion@@QBE?AVCvString@@XZ$0
__ehfuncinfo$?GetName@CvReligion@@QBE?AVCvString@@XZ DD 019930522H
	DD	01H
	DD	FLAT:__unwindtable$?GetName@CvReligion@@QBE?AVCvString@@XZ
	DD	2 DUP(00H)
	DD	2 DUP(00H)
	DD	00H
	DD	01H
; Function compile flags: /Odtp
; File d:\sources\lekmod_git\checkout\lekmod_dll\cvgamecoredll_expansion2\cvreligionclasses.cpp
xdata$x	ENDS
;	COMDAT ?GetName@CvReligion@@QBE?AVCvString@@XZ
_TEXT	SEGMENT
tv180 = -88						; size = 4
tv147 = -84						; size = 4
tv75 = -80						; size = 4
tv195 = -73						; size = 1
tv192 = -72						; size = 4
tv189 = -68						; size = 4
_this$ = -64						; size = 4
$T231505 = -60						; size = 4
$T231492 = -56						; size = 4
_szReligionName$223861 = -52				; size = 28
__$ArrayPad$ = -24					; size = 4
_szReligionNameBackup$ = -20				; size = 4
_pEntry$ = -16						; size = 4
__$EHRec$ = -12						; size = 12
___$ReturnUdt$ = 8					; size = 4
?GetName@CvReligion@@QBE?AVCvString@@XZ PROC		; CvReligion::GetName, COMDAT
; _this$ = ecx

; 191  : {

	push	ebp
	mov	ebp, esp
	push	-1
	push	__ehhandler$?GetName@CvReligion@@QBE?AVCvString@@XZ
	mov	eax, DWORD PTR fs:0
	push	eax
	sub	esp, 76					; 0000004cH
	mov	eax, DWORD PTR ___security_cookie
	xor	eax, ebp
	mov	DWORD PTR __$ArrayPad$[ebp], eax
	push	eax
	lea	eax, DWORD PTR __$EHRec$[ebp]
	mov	DWORD PTR fs:0, eax
	mov	DWORD PTR _this$[ebp], ecx
	mov	DWORD PTR $T231492[ebp], 0

; 192  : #ifdef AUI_WARNING_FIXES
; 193  : 	CvString szReligionName = m_szCustomName;
; 194  : 	if (szReligionName.IsEmpty())
; 195  : 	{
; 196  : 		CvReligionEntry* pEntry = GC.getReligionInfo(m_eReligion);
; 197  : 		CvAssertMsg(pEntry, "pEntry for religion not expected to be NULL. Please send Anton or Ed your save file and version.");
; 198  : 		if (pEntry)
; 199  : 			szReligionName = pEntry->GetDescriptionKey();
; 200  : 		else
; 201  : 			szReligionName = "No Religion";
; 202  : 	}
; 203  : 	
; 204  : 	return szReligionName;
; 205  : #else
; 206  : 	CvReligionEntry* pEntry = GC.getReligionInfo(m_eReligion);

	mov	eax, DWORD PTR _this$[ebp]
	mov	ecx, DWORD PTR [eax]
	push	ecx
	mov	ecx, OFFSET ?gGlobals@@3VCvGlobals@@A	; gGlobals
	call	?getReligionInfo@CvGlobals@@QAEPAVCvReligionEntry@@W4ReligionTypes@@@Z ; CvGlobals::getReligionInfo
	mov	DWORD PTR _pEntry$[ebp], eax

; 207  : 	CvAssertMsg(pEntry, "pEntry for religion not expected to be NULL. Please send Anton or Ed your save file and version.");
; 208  : 	if (pEntry)

	cmp	DWORD PTR _pEntry$[ebp], 0
	je	$LN1@GetName

; 209  : 	{
; 210  : 		CvString szReligionName = (m_szCustomName == NULL || strlen(m_szCustomName) == 0) ? pEntry->GetDescriptionKey() : m_szCustomName;

	mov	edx, DWORD PTR _this$[ebp]
	add	edx, 22					; 00000016H
	je	SHORT $LN9@GetName
	mov	eax, DWORD PTR _this$[ebp]
	add	eax, 22					; 00000016H
	mov	DWORD PTR tv189[ebp], eax
	mov	ecx, DWORD PTR tv189[ebp]
	add	ecx, 1
	mov	DWORD PTR tv192[ebp], ecx
$LL27@GetName:
	mov	edx, DWORD PTR tv189[ebp]
	mov	al, BYTE PTR [edx]
	mov	BYTE PTR tv195[ebp], al
	add	DWORD PTR tv189[ebp], 1
	cmp	BYTE PTR tv195[ebp], 0
	jne	SHORT $LL27@GetName
	mov	ecx, DWORD PTR tv189[ebp]
	sub	ecx, DWORD PTR tv192[ebp]
	mov	DWORD PTR tv75[ebp], ecx
	je	SHORT $LN9@GetName
	mov	edx, DWORD PTR _this$[ebp]
	add	edx, 22					; 00000016H
	mov	DWORD PTR $T231505[ebp], edx
	jmp	SHORT $LN5@GetName
$LN9@GetName:
	mov	ecx, DWORD PTR _pEntry$[ebp]
	add	ecx, 64					; 00000040H
	call	DWORD PTR __imp_?c_str@?$basic_string@DU?$char_traits@D@std@@V?$allocator@D@2@@std@@QBEPBDXZ
	mov	DWORD PTR $T231505[ebp], eax
$LN5@GetName:
	cmp	DWORD PTR $T231505[ebp], 0
	je	SHORT $LN13@GetName
	mov	eax, DWORD PTR $T231505[ebp]
	mov	DWORD PTR tv147[ebp], eax
	jmp	SHORT $LN14@GetName
$LN13@GetName:
	mov	DWORD PTR tv147[ebp], OFFSET ??_C@_00CNPNBAHC@?$AA@
$LN14@GetName:
	mov	ecx, DWORD PTR tv147[ebp]
	push	ecx
	lea	ecx, DWORD PTR _szReligionName$223861[ebp]
	call	DWORD PTR __imp_??0?$basic_string@DU?$char_traits@D@std@@V?$allocator@D@2@@std@@QAE@PBD@Z
	mov	DWORD PTR __$EHRec$[ebp+8], 0

; 211  : 		return szReligionName;

	lea	edx, DWORD PTR _szReligionName$223861[ebp]
	push	edx
	mov	ecx, DWORD PTR ___$ReturnUdt$[ebp]
	call	DWORD PTR __imp_??0?$basic_string@DU?$char_traits@D@std@@V?$allocator@D@2@@std@@QAE@ABV01@@Z
	mov	eax, DWORD PTR $T231492[ebp]
	or	eax, 1
	mov	DWORD PTR $T231492[ebp], eax
	mov	DWORD PTR __$EHRec$[ebp+8], -1
	lea	ecx, DWORD PTR _szReligionName$223861[ebp]
	call	DWORD PTR __imp_??1?$basic_string@DU?$char_traits@D@std@@V?$allocator@D@2@@std@@QAE@XZ
	mov	eax, DWORD PTR ___$ReturnUdt$[ebp]
	jmp	SHORT $LN2@GetName
$LN1@GetName:

; 212  : 	}
; 213  : 
; 214  : 	const char* szReligionNameBackup = "No Religion";

	mov	DWORD PTR _szReligionNameBackup$[ebp], OFFSET ??_C@_0M@KDICFKJM@No?5Religion?$AA@

; 215  : 	return szReligionNameBackup;

	cmp	DWORD PTR _szReligionNameBackup$[ebp], 0
	je	SHORT $LN24@GetName
	mov	ecx, DWORD PTR _szReligionNameBackup$[ebp]
	mov	DWORD PTR tv180[ebp], ecx
	jmp	SHORT $LN25@GetName
$LN24@GetName:
	mov	DWORD PTR tv180[ebp], OFFSET ??_C@_00CNPNBAHC@?$AA@
$LN25@GetName:
	mov	edx, DWORD PTR tv180[ebp]
	push	edx
	mov	ecx, DWORD PTR ___$ReturnUdt$[ebp]
	call	DWORD PTR __imp_??0?$basic_string@DU?$char_traits@D@std@@V?$allocator@D@2@@std@@QAE@PBD@Z
	mov	eax, DWORD PTR $T231492[ebp]
	or	eax, 1
	mov	DWORD PTR $T231492[ebp], eax
	mov	eax, DWORD PTR ___$ReturnUdt$[ebp]
$LN2@GetName:

; 216  : #endif
; 217  : }

	mov	ecx, DWORD PTR __$EHRec$[ebp]
	mov	DWORD PTR fs:0, ecx
	pop	ecx
	mov	ecx, DWORD PTR __$ArrayPad$[ebp]
	xor	ecx, ebp
	call	@__security_check_cookie@4
	mov	esp, ebp
	pop	ebp
	ret	4
_TEXT	ENDS
;	COMDAT text$x
text$x	SEGMENT
__unwindfunclet$?GetName@CvReligion@@QBE?AVCvString@@XZ$0:
	lea	ecx, DWORD PTR _szReligionName$223861[ebp]
	jmp	??1CvString@@QAE@XZ			; CvString::~CvString
__ehhandler$?GetName@CvReligion@@QBE?AVCvString@@XZ:
	mov	edx, DWORD PTR [esp+8]
	lea	eax, DWORD PTR [edx+12]
	mov	ecx, DWORD PTR [edx-80]
	xor	ecx, eax
	call	@__security_check_cookie@4
	mov	ecx, DWORD PTR [edx-12]
	xor	ecx, eax
	call	@__security_check_cookie@4
	mov	eax, OFFSET __ehfuncinfo$?GetName@CvReligion@@QBE?AVCvString@@XZ
	jmp	___CxxFrameHandler3
text$x	ENDS
?GetName@CvReligion@@QBE?AVCvString@@XZ ENDP		; CvReligion::GetName
PUBLIC	??0CvReligionInCity@@QAE@XZ			; CvReligionInCity::CvReligionInCity
; Function compile flags: /Odtp
;	COMDAT ??0CvReligionInCity@@QAE@XZ
_TEXT	SEGMENT
_this$ = -4						; size = 4
??0CvReligionInCity@@QAE@XZ PROC			; CvReligionInCity::CvReligionInCity, COMDAT
; _this$ = ecx

; 224  : {

	push	ebp
	mov	ebp, esp
	push	ecx
	mov	DWORD PTR _this$[ebp], ecx

; 225  : 	m_eReligion = NO_RELIGION;

	mov	eax, DWORD PTR _this$[ebp]
	mov	DWORD PTR [eax], -1

; 226  : 	m_bFoundedHere = false;

	mov	ecx, DWORD PTR _this$[ebp]
	mov	BYTE PTR [ecx+4], 0

; 227  : 	m_iFollowers = 0;

	mov	edx, DWORD PTR _this$[ebp]
	mov	DWORD PTR [edx+8], 0

; 228  : 	m_iPressure = 0;

	mov	eax, DWORD PTR _this$[ebp]
	mov	DWORD PTR [eax+12], 0

; 229  : 	m_iNumTradeRoutesApplyingPressure = 0;

	mov	ecx, DWORD PTR _this$[ebp]
	mov	DWORD PTR [ecx+16], 0

; 230  : 	m_iTemp = 0;

	mov	edx, DWORD PTR _this$[ebp]
	mov	DWORD PTR [edx+20], 0

; 231  : }

	mov	eax, DWORD PTR _this$[ebp]
	mov	esp, ebp
	pop	ebp
	ret	0
??0CvReligionInCity@@QAE@XZ ENDP			; CvReligionInCity::CvReligionInCity
_TEXT	ENDS
PUBLIC	??0CvReligionInCity@@QAE@W4ReligionTypes@@_NHH@Z ; CvReligionInCity::CvReligionInCity
; Function compile flags: /Odtp
;	COMDAT ??0CvReligionInCity@@QAE@W4ReligionTypes@@_NHH@Z
_TEXT	SEGMENT
_this$ = -4						; size = 4
_eReligion$ = 8						; size = 4
_bFoundedHere$ = 12					; size = 1
_iFollowers$ = 16					; size = 4
_iPressure$ = 20					; size = 4
??0CvReligionInCity@@QAE@W4ReligionTypes@@_NHH@Z PROC	; CvReligionInCity::CvReligionInCity, COMDAT
; _this$ = ecx

; 241  : {

	push	ebp
	mov	ebp, esp
	push	ecx
	mov	DWORD PTR _this$[ebp], ecx
	mov	eax, DWORD PTR _this$[ebp]
	mov	ecx, DWORD PTR _eReligion$[ebp]
	mov	DWORD PTR [eax], ecx
	mov	edx, DWORD PTR _this$[ebp]
	mov	al, BYTE PTR _bFoundedHere$[ebp]
	mov	BYTE PTR [edx+4], al
	mov	ecx, DWORD PTR _this$[ebp]
	mov	edx, DWORD PTR _iFollowers$[ebp]
	mov	DWORD PTR [ecx+8], edx
	mov	eax, DWORD PTR _this$[ebp]
	mov	ecx, DWORD PTR _iPressure$[ebp]
	mov	DWORD PTR [eax+12], ecx
	mov	edx, DWORD PTR _this$[ebp]
	mov	DWORD PTR [edx+16], 0
	mov	eax, DWORD PTR _this$[ebp]
	mov	DWORD PTR [eax+20], 0

; 242  : }

	mov	eax, DWORD PTR _this$[ebp]
	mov	esp, ebp
	pop	ebp
	ret	16					; 00000010H
??0CvReligionInCity@@QAE@W4ReligionTypes@@_NHH@Z ENDP	; CvReligionInCity::CvReligionInCity
_TEXT	ENDS
PUBLIC	??5@YAAAVFDataStream@@AAV0@AAVCvReligionInCity@@@Z ; operator>>
; Function compile flags: /Odtp
;	COMDAT ??5@YAAAVFDataStream@@AAV0@AAVCvReligionInCity@@@Z
_TEXT	SEGMENT
_uiVersion$ = -4					; size = 4
_loadFrom$ = 8						; size = 4
_writeTo$ = 12						; size = 4
??5@YAAAVFDataStream@@AAV0@AAVCvReligionInCity@@@Z PROC	; operator>>, COMDAT

; 246  : {

	push	ebp
	mov	ebp, esp
	push	ecx

; 247  : 	uint uiVersion;
; 248  : 	loadFrom >> uiVersion;

	lea	eax, DWORD PTR _uiVersion$[ebp]
	push	eax
	mov	ecx, DWORD PTR _loadFrom$[ebp]
	call	?Read@FDataStream@@IAEXAAI@Z		; FDataStream::Read

; 249  : 
; 250  : 	loadFrom >> writeTo.m_eReligion;

	mov	ecx, DWORD PTR _writeTo$[ebp]
	push	ecx
	mov	edx, DWORD PTR _loadFrom$[ebp]
	push	edx
	call	??5@YAAAVFDataStream@@AAV0@AAW4ReligionTypes@@@Z ; operator>>
	add	esp, 8

; 251  : 	loadFrom >> writeTo.m_bFoundedHere;

	mov	eax, DWORD PTR _writeTo$[ebp]
	add	eax, 4
	push	eax
	mov	ecx, DWORD PTR _loadFrom$[ebp]
	call	?Read@FDataStream@@IAEXAA_N@Z		; FDataStream::Read

; 252  : 	loadFrom >> writeTo.m_iFollowers;

	mov	ecx, DWORD PTR _writeTo$[ebp]
	add	ecx, 8
	push	ecx
	mov	ecx, DWORD PTR _loadFrom$[ebp]
	call	?Read@FDataStream@@IAEXAAH@Z		; FDataStream::Read

; 253  : 	loadFrom >> writeTo.m_iPressure;

	mov	edx, DWORD PTR _writeTo$[ebp]
	add	edx, 12					; 0000000cH
	push	edx
	mov	ecx, DWORD PTR _loadFrom$[ebp]
	call	?Read@FDataStream@@IAEXAAH@Z		; FDataStream::Read

; 254  : 
; 255  : 	if (uiVersion == 2)

	cmp	DWORD PTR _uiVersion$[ebp], 2
	jne	SHORT $LN2@operator@2

; 256  : 	{
; 257  : 		loadFrom >> writeTo.m_iNumTradeRoutesApplyingPressure;

	mov	eax, DWORD PTR _writeTo$[ebp]
	add	eax, 16					; 00000010H
	push	eax
	mov	ecx, DWORD PTR _loadFrom$[ebp]
	call	?Read@FDataStream@@IAEXAAH@Z		; FDataStream::Read

; 258  : 	}
; 259  : 	else

	jmp	SHORT $LN1@operator@2
$LN2@operator@2:

; 260  : 	{
; 261  : 		writeTo.m_iNumTradeRoutesApplyingPressure = 0;

	mov	ecx, DWORD PTR _writeTo$[ebp]
	mov	DWORD PTR [ecx+16], 0
$LN1@operator@2:

; 262  : 	}
; 263  : 
; 264  : 	return loadFrom;

	mov	eax, DWORD PTR _loadFrom$[ebp]

; 265  : }

	mov	esp, ebp
	pop	ebp
	ret	0
??5@YAAAVFDataStream@@AAV0@AAVCvReligionInCity@@@Z ENDP	; operator>>
_TEXT	ENDS
PUBLIC	??6@YAAAVFDataStream@@AAV0@ABVCvReligionInCity@@@Z ; operator<<
; Function compile flags: /Odtp
;	COMDAT ??6@YAAAVFDataStream@@AAV0@ABVCvReligionInCity@@@Z
_TEXT	SEGMENT
_uiVersion$ = -4					; size = 4
_saveTo$ = 8						; size = 4
_readFrom$ = 12						; size = 4
??6@YAAAVFDataStream@@AAV0@ABVCvReligionInCity@@@Z PROC	; operator<<, COMDAT

; 269  : {

	push	ebp
	mov	ebp, esp
	push	ecx

; 270  : 	uint uiVersion = 2;

	mov	DWORD PTR _uiVersion$[ebp], 2

; 271  : 	saveTo << uiVersion;

	lea	eax, DWORD PTR _uiVersion$[ebp]
	push	eax
	mov	ecx, DWORD PTR _saveTo$[ebp]
	call	?Write@FDataStream@@IAEXABI@Z		; FDataStream::Write

; 272  : 
; 273  : 	saveTo << readFrom.m_eReligion;

	mov	ecx, DWORD PTR _readFrom$[ebp]
	push	ecx
	mov	edx, DWORD PTR _saveTo$[ebp]
	push	edx
	call	??6@YAAAVFDataStream@@AAV0@ABW4ReligionTypes@@@Z ; operator<<
	add	esp, 8

; 274  : 	saveTo << readFrom.m_bFoundedHere;

	mov	eax, DWORD PTR _readFrom$[ebp]
	add	eax, 4
	push	eax
	mov	ecx, DWORD PTR _saveTo$[ebp]
	call	?Write@FDataStream@@IAEXAB_N@Z		; FDataStream::Write

; 275  : 	saveTo << readFrom.m_iFollowers;

	mov	ecx, DWORD PTR _readFrom$[ebp]
	add	ecx, 8
	push	ecx
	mov	ecx, DWORD PTR _saveTo$[ebp]
	call	?Write@FDataStream@@IAEXABH@Z		; FDataStream::Write

; 276  : 	saveTo << readFrom.m_iPressure;

	mov	edx, DWORD PTR _readFrom$[ebp]
	add	edx, 12					; 0000000cH
	push	edx
	mov	ecx, DWORD PTR _saveTo$[ebp]
	call	?Write@FDataStream@@IAEXABH@Z		; FDataStream::Write

; 277  : 	saveTo << readFrom.m_iNumTradeRoutesApplyingPressure;

	mov	eax, DWORD PTR _readFrom$[ebp]
	add	eax, 16					; 00000010H
	push	eax
	mov	ecx, DWORD PTR _saveTo$[ebp]
	call	?Write@FDataStream@@IAEXABH@Z		; FDataStream::Write

; 278  : 
; 279  : 	return saveTo;

	mov	eax, DWORD PTR _saveTo$[ebp]

; 280  : }

	mov	esp, ebp
	pop	ebp
	ret	0
??6@YAAAVFDataStream@@AAV0@ABVCvReligionInCity@@@Z ENDP	; operator<<
_TEXT	ENDS
PUBLIC	??0?$FStaticVector@VCvReligion@@$0BA@$0A@$0BCJ@$0A@@@QAE@XZ ; FStaticVector<CvReligion,16,0,297,0>::FStaticVector<CvReligion,16,0,297,0>
PUBLIC	??0CvGameReligions@@QAE@XZ			; CvGameReligions::CvGameReligions
; Function compile flags: /Odtp
;	COMDAT ??0CvGameReligions@@QAE@XZ
_TEXT	SEGMENT
_this$ = -12						; size = 4
??0CvGameReligions@@QAE@XZ PROC				; CvGameReligions::CvGameReligions, COMDAT
; _this$ = ecx

; 288  : {

	push	ebp
	mov	ebp, esp
	sub	esp, 12					; 0000000cH
	mov	DWORD PTR _this$[ebp], ecx
	mov	ecx, DWORD PTR _this$[ebp]
	call	??0?$FStaticVector@VCvReligion@@$0BA@$0A@$0BCJ@$0A@@@QAE@XZ ; FStaticVector<CvReligion,16,0,297,0>::FStaticVector<CvReligion,16,0,297,0>
	mov	eax, DWORD PTR _this$[ebp]
	mov	DWORD PTR [eax+5264], 0

; 289  : }

	mov	eax, DWORD PTR _this$[ebp]
	mov	esp, ebp
	pop	ebp
	ret	0
??0CvGameReligions@@QAE@XZ ENDP				; CvGameReligions::CvGameReligions
_TEXT	ENDS
PUBLIC	??1?$BaseVector@VCvReligion@@$0A@@@QAE@XZ	; BaseVector<CvReligion,0>::~BaseVector<CvReligion,0>
PUBLIC	?Free@?$FStaticVector@VCvReligion@@$0BA@$0A@$0BCJ@$0A@@@IAEXPAVCvReligion@@I@Z ; FStaticVector<CvReligion,16,0,297,0>::Free
PUBLIC	??1CvGameReligions@@QAE@XZ			; CvGameReligions::~CvGameReligions
;	COMDAT xdata$x
; File d:\sources\lekmod_git\checkout\lekmod_dll\fireplace\include\fireworks\ffastvector.h
xdata$x	SEGMENT
__unwindtable$??1CvGameReligions@@QAE@XZ DD 0ffffffffH
	DD	FLAT:__unwindfunclet$??1CvGameReligions@@QAE@XZ$1
__ehfuncinfo$??1CvGameReligions@@QAE@XZ DD 019930522H
	DD	01H
	DD	FLAT:__unwindtable$??1CvGameReligions@@QAE@XZ
	DD	2 DUP(00H)
	DD	2 DUP(00H)
	DD	00H
	DD	01H
; Function compile flags: /Odtp
; File d:\sources\lekmod_git\checkout\lekmod_dll\cvgamecoredll_expansion2\cvreligionclasses.cpp
xdata$x	ENDS
;	COMDAT ??1CvGameReligions@@QAE@XZ
_TEXT	SEGMENT
_this$ = -24						; size = 4
__$EHRec$ = -12						; size = 12
??1CvGameReligions@@QAE@XZ PROC				; CvGameReligions::~CvGameReligions, COMDAT
; _this$ = ecx

; 293  : {

	push	ebp
	mov	ebp, esp
	push	-1
	push	__ehhandler$??1CvGameReligions@@QAE@XZ
	mov	eax, DWORD PTR fs:0
	push	eax
	sub	esp, 12					; 0000000cH
	mov	eax, DWORD PTR ___security_cookie
	xor	eax, ebp
	push	eax
	lea	eax, DWORD PTR __$EHRec$[ebp]
	mov	DWORD PTR fs:0, eax
	mov	DWORD PTR _this$[ebp], ecx

; 294  : 
; 295  : }

	mov	DWORD PTR __$EHRec$[ebp+8], 0
	mov	eax, DWORD PTR _this$[ebp]
	mov	ecx, DWORD PTR [eax+4]
	push	ecx
	mov	edx, DWORD PTR _this$[ebp]
	mov	eax, DWORD PTR [edx]
	push	eax
	mov	ecx, DWORD PTR _this$[ebp]
	call	?Free@?$FStaticVector@VCvReligion@@$0BA@$0A@$0BCJ@$0A@@@IAEXPAVCvReligion@@I@Z ; FStaticVector<CvReligion,16,0,297,0>::Free
	mov	DWORD PTR __$EHRec$[ebp+8], -1
	mov	ecx, DWORD PTR __$EHRec$[ebp]
	mov	DWORD PTR fs:0, ecx
	pop	ecx
	mov	esp, ebp
	pop	ebp
	ret	0
_TEXT	ENDS
;	COMDAT text$x
text$x	SEGMENT
__unwindfunclet$??1CvGameReligions@@QAE@XZ$1:
	mov	ecx, DWORD PTR _this$[ebp]
	jmp	??1?$BaseVector@VCvReligion@@$0A@@@QAE@XZ ; BaseVector<CvReligion,0>::~BaseVector<CvReligion,0>
__ehhandler$??1CvGameReligions@@QAE@XZ:
	mov	edx, DWORD PTR [esp+8]
	lea	eax, DWORD PTR [edx+12]
	mov	ecx, DWORD PTR [edx-16]
	xor	ecx, eax
	call	@__security_check_cookie@4
	mov	eax, OFFSET __ehfuncinfo$??1CvGameReligions@@QAE@XZ
	jmp	___CxxFrameHandler3
text$x	ENDS
??1CvGameReligions@@QAE@XZ ENDP				; CvGameReligions::~CvGameReligions
PUBLIC	?Init@CvGameReligions@@QAEXXZ			; CvGameReligions::Init
EXTRN	?getTrainPercent@CvGameSpeedInfo@@QBEHXZ:PROC	; CvGameSpeedInfo::getTrainPercent
EXTRN	?getGameSpeedInfo@CvGame@@QBEAAVCvGameSpeedInfo@@XZ:PROC ; CvGame::getGameSpeedInfo
; Function compile flags: /Odtp
;	COMDAT ?Init@CvGameReligions@@QAEXXZ
_TEXT	SEGMENT
_this$ = -12						; size = 4
$T231634 = -8						; size = 4
$T231630 = -4						; size = 4
?Init@CvGameReligions@@QAEXXZ PROC			; CvGameReligions::Init, COMDAT
; _this$ = ecx

; 299  : {

	push	ebp
	mov	ebp, esp
	sub	esp, 12					; 0000000cH
	mov	DWORD PTR _this$[ebp], ecx

; 300  : 	m_iMinimumFaithForNextPantheon = GC.getRELIGION_MIN_FAITH_FIRST_PANTHEON();

	mov	eax, DWORD PTR ?gGlobals@@3VCvGlobals@@A+7860
	mov	DWORD PTR $T231630[ebp], eax
	mov	ecx, DWORD PTR _this$[ebp]
	mov	edx, DWORD PTR $T231630[ebp]
	mov	DWORD PTR [ecx+5264], edx

; 301  : 	m_iMinimumFaithForNextPantheon *= GC.getGame().getGameSpeedInfo().getTrainPercent();

	mov	eax, DWORD PTR ?gGlobals@@3VCvGlobals@@A+48
	mov	DWORD PTR $T231634[ebp], eax
	mov	ecx, DWORD PTR $T231634[ebp]
	call	?getGameSpeedInfo@CvGame@@QBEAAVCvGameSpeedInfo@@XZ ; CvGame::getGameSpeedInfo
	mov	ecx, eax
	call	?getTrainPercent@CvGameSpeedInfo@@QBEHXZ ; CvGameSpeedInfo::getTrainPercent
	mov	ecx, DWORD PTR _this$[ebp]
	imul	eax, DWORD PTR [ecx+5264]
	mov	edx, DWORD PTR _this$[ebp]
	mov	DWORD PTR [edx+5264], eax

; 302  : 	m_iMinimumFaithForNextPantheon /= 100;

	mov	eax, DWORD PTR _this$[ebp]
	mov	eax, DWORD PTR [eax+5264]
	cdq
	mov	ecx, 100				; 00000064H
	idiv	ecx
	mov	edx, DWORD PTR _this$[ebp]
	mov	DWORD PTR [edx+5264], eax

; 303  : }

	mov	esp, ebp
	pop	ebp
	ret	0
?Init@CvGameReligions@@QAEXXZ ENDP			; CvGameReligions::Init
_TEXT	ENDS
PUBLIC	?SpreadReligion@CvGameReligions@@QAEXXZ		; CvGameReligions::SpreadReligion
PUBLIC	?DoTurn@CvGameReligions@@QAEXXZ			; CvGameReligions::DoTurn
; Function compile flags: /Odtp
;	COMDAT ?DoTurn@CvGameReligions@@QAEXXZ
_TEXT	SEGMENT
_this$ = -4						; size = 4
?DoTurn@CvGameReligions@@QAEXXZ PROC			; CvGameReligions::DoTurn, COMDAT
; _this$ = ecx

; 307  : {

	push	ebp
	mov	ebp, esp
	push	ecx
	mov	DWORD PTR _this$[ebp], ecx

; 308  : 	SpreadReligion();

	mov	ecx, DWORD PTR _this$[ebp]
	call	?SpreadReligion@CvGameReligions@@QAEXXZ	; CvGameReligions::SpreadReligion

; 309  : }

	mov	esp, ebp
	pop	ebp
	ret	0
?DoTurn@CvGameReligions@@QAEXXZ ENDP			; CvGameReligions::DoTurn
_TEXT	ENDS
PUBLIC	?SpreadReligionToOneCity@CvGameReligions@@QAEXPAVCvCity@@@Z ; CvGameReligions::SpreadReligionToOneCity
EXTRN	?nextCity@CvPlayer@@QAEPAVCvCity@@PAH_N@Z:PROC	; CvPlayer::nextCity
EXTRN	?firstCity@CvPlayer@@QAEPAVCvCity@@PAH_N@Z:PROC	; CvPlayer::firstCity
EXTRN	?m_aPlayers@CvPlayerAI@@1PAV1@A:DWORD		; CvPlayerAI::m_aPlayers
; Function compile flags: /Odtp
;	COMDAT ?SpreadReligion@CvGameReligions@@QAEXXZ
_TEXT	SEGMENT
_this$ = -24						; size = 4
$T231650 = -17						; size = 1
_pLoopCity$223913 = -16					; size = 4
_iLoop$223912 = -12					; size = 4
_kPlayer$223909 = -8					; size = 4
_iI$223905 = -4						; size = 4
?SpreadReligion@CvGameReligions@@QAEXXZ PROC		; CvGameReligions::SpreadReligion, COMDAT
; _this$ = ecx

; 313  : {

	push	ebp
	mov	ebp, esp
	sub	esp, 24					; 00000018H
	mov	DWORD PTR _this$[ebp], ecx

; 314  : 	// Loop through all the players
; 315  : 	for(int iI = 0; iI < MAX_PLAYERS; iI++)

	mov	DWORD PTR _iI$223905[ebp], 0
	jmp	SHORT $LN7@SpreadReli
$LN6@SpreadReli:
	mov	eax, DWORD PTR _iI$223905[ebp]
	add	eax, 1
	mov	DWORD PTR _iI$223905[ebp], eax
$LN7@SpreadReli:
	cmp	DWORD PTR _iI$223905[ebp], 64		; 00000040H
	jge	SHORT $LN8@SpreadReli

; 316  : 	{
; 317  : 		CvPlayer& kPlayer = GET_PLAYER((PlayerTypes)iI);

	mov	ecx, DWORD PTR _iI$223905[ebp]
	imul	ecx, 63236				; 0000f704H
	add	ecx, DWORD PTR ?m_aPlayers@CvPlayerAI@@1PAV1@A ; CvPlayerAI::m_aPlayers
	mov	DWORD PTR _kPlayer$223909[ebp], ecx

; 318  : 		if(kPlayer.isAlive())

	mov	edx, DWORD PTR _kPlayer$223909[ebp]
	mov	al, BYTE PTR [edx+2256]
	mov	BYTE PTR $T231650[ebp], al
	movzx	ecx, BYTE PTR $T231650[ebp]
	test	ecx, ecx
	je	SHORT $LN4@SpreadReli

; 319  : 		{
; 320  : 			// Loop through each of their cities
; 321  : 			int iLoop;
; 322  : 			CvCity* pLoopCity;
; 323  : 			for(pLoopCity = kPlayer.firstCity(&iLoop); pLoopCity != NULL; pLoopCity = kPlayer.nextCity(&iLoop))

	push	0
	lea	edx, DWORD PTR _iLoop$223912[ebp]
	push	edx
	mov	ecx, DWORD PTR _kPlayer$223909[ebp]
	call	?firstCity@CvPlayer@@QAEPAVCvCity@@PAH_N@Z ; CvPlayer::firstCity
	mov	DWORD PTR _pLoopCity$223913[ebp], eax
	jmp	SHORT $LN3@SpreadReli
$LN2@SpreadReli:
	push	0
	lea	eax, DWORD PTR _iLoop$223912[ebp]
	push	eax
	mov	ecx, DWORD PTR _kPlayer$223909[ebp]
	call	?nextCity@CvPlayer@@QAEPAVCvCity@@PAH_N@Z ; CvPlayer::nextCity
	mov	DWORD PTR _pLoopCity$223913[ebp], eax
$LN3@SpreadReli:
	cmp	DWORD PTR _pLoopCity$223913[ebp], 0
	je	SHORT $LN4@SpreadReli

; 324  : 			{
; 325  : 				SpreadReligionToOneCity(pLoopCity);

	mov	ecx, DWORD PTR _pLoopCity$223913[ebp]
	push	ecx
	mov	ecx, DWORD PTR _this$[ebp]
	call	?SpreadReligionToOneCity@CvGameReligions@@QAEXPAVCvCity@@@Z ; CvGameReligions::SpreadReligionToOneCity
	jmp	SHORT $LN2@SpreadReli
$LN4@SpreadReli:

; 326  : 			}

	jmp	SHORT $LN6@SpreadReli
$LN8@SpreadReli:

; 327  : 		}
; 328  : 	}
; 329  : }

	mov	esp, ebp
	pop	ebp
	ret	0
?SpreadReligion@CvGameReligions@@QAEXXZ ENDP		; CvGameReligions::SpreadReligion
_TEXT	ENDS
PUBLIC	?IncrementNumTradeRouteConnections@CvCityReligions@@QAEXW4ReligionTypes@@H@Z ; CvCityReligions::IncrementNumTradeRouteConnections
PUBLIC	?AddReligiousPressure@CvCityReligions@@QAEXW4CvReligiousFollowChangeReason@@W4ReligionTypes@@HW4PlayerTypes@@@Z ; CvCityReligions::AddReligiousPressure
PUBLIC	?GetAdjacentCityReligiousPressure@CvGameReligions@@QAEHW4ReligionTypes@@PAVCvCity@@1AAH_N@Z ; CvGameReligions::GetAdjacentCityReligiousPressure
PUBLIC	?GetReligiousMajority@CvCityReligions@@QAE?AW4ReligionTypes@@XZ ; CvCityReligions::GetReligiousMajority
PUBLIC	?AddSpyPressure@CvCityReligions@@QAEXW4ReligionTypes@@H@Z ; CvCityReligions::AddSpyPressure
PUBLIC	?GetReligionCreatedByPlayer@CvPlayerReligions@@QBE?AW4ReligionTypes@@XZ ; CvPlayerReligions::GetReligionCreatedByPlayer
PUBLIC	?GetSpyPressure@CvPlayerReligions@@QBEHXZ	; CvPlayerReligions::GetSpyPressure
PUBLIC	?AddHolyCityPressure@CvCityReligions@@QAEXXZ	; CvCityReligions::AddHolyCityPressure
PUBLIC	?IsHolyCityAnyReligion@CvCityReligions@@QAE_NXZ	; CvCityReligions::IsHolyCityAnyReligion
PUBLIC	?ResetNumTradeRoutePressure@CvCityReligions@@QAEXXZ ; CvCityReligions::ResetNumTradeRoutePressure
EXTRN	?GetSpyIndexInCity@CvPlayerEspionage@@QAEHPAVCvCity@@@Z:PROC ; CvPlayerEspionage::GetSpyIndexInCity
EXTRN	?GetEspionage@CvPlayer@@QBEPAVCvPlayerEspionage@@XZ:PROC ; CvPlayer::GetEspionage
EXTRN	?GetReligions@CvPlayer@@QBEPAVCvPlayerReligions@@XZ:PROC ; CvPlayer::GetReligions
EXTRN	?GetCityReligions@CvCity@@QBEPAVCvCityReligions@@XZ:PROC ; CvCity::GetCityReligions
; Function compile flags: /Odtp
;	COMDAT ?SpreadReligionToOneCity@CvGameReligions@@QAEXPAVCvCity@@@Z
_TEXT	SEGMENT
_this$ = -44						; size = 4
$T231664 = -37						; size = 1
_iPressure$223942 = -36					; size = 4
_eMajorityReligion$223939 = -32				; size = 4
_iNumTradeRoutes$223941 = -28				; size = 4
_eReligionFounded$223932 = -24				; size = 4
_iSpyPressure$223929 = -20				; size = 4
_pLoopCity$223934 = -16					; size = 4
_iLoop$223933 = -12					; size = 4
_kPlayer$223926 = -8					; size = 4
_iI$223922 = -4						; size = 4
_pCity$ = 8						; size = 4
?SpreadReligionToOneCity@CvGameReligions@@QAEXPAVCvCity@@@Z PROC ; CvGameReligions::SpreadReligionToOneCity, COMDAT
; _this$ = ecx

; 333  : {

	push	ebp
	mov	ebp, esp
	sub	esp, 44					; 0000002cH
	mov	DWORD PTR _this$[ebp], ecx

; 334  : #ifdef AUI_WARNING_FIXES
; 335  : 	if (!pCity)
; 336  : 		return;
; 337  : #endif
; 338  : 	// Used to calculate how many trade routes are applying pressure to this city. This resets the value so we get a true count every turn.
; 339  : 	pCity->GetCityReligions()->ResetNumTradeRoutePressure();

	mov	ecx, DWORD PTR _pCity$[ebp]
	call	?GetCityReligions@CvCity@@QBEPAVCvCityReligions@@XZ ; CvCity::GetCityReligions
	mov	ecx, eax
	call	?ResetNumTradeRoutePressure@CvCityReligions@@QAEXXZ ; CvCityReligions::ResetNumTradeRoutePressure

; 340  : 
; 341  : 	// Is this a city where a religion was founded?
; 342  : 	if(pCity->GetCityReligions()->IsHolyCityAnyReligion())

	mov	ecx, DWORD PTR _pCity$[ebp]
	call	?GetCityReligions@CvCity@@QBEPAVCvCityReligions@@XZ ; CvCity::GetCityReligions
	mov	ecx, eax
	call	?IsHolyCityAnyReligion@CvCityReligions@@QAE_NXZ ; CvCityReligions::IsHolyCityAnyReligion
	movzx	eax, al
	test	eax, eax
	je	SHORT $LN14@SpreadReli@2

; 343  : 	{
; 344  : 		pCity->GetCityReligions()->AddHolyCityPressure();

	mov	ecx, DWORD PTR _pCity$[ebp]
	call	?GetCityReligions@CvCity@@QBEPAVCvCityReligions@@XZ ; CvCity::GetCityReligions
	mov	ecx, eax
	call	?AddHolyCityPressure@CvCityReligions@@QAEXXZ ; CvCityReligions::AddHolyCityPressure
$LN14@SpreadReli@2:

; 345  : 	}
; 346  : 
; 347  : 	// Loop through all the players
; 348  : 	for(int iI = 0; iI < MAX_PLAYERS; iI++)

	mov	DWORD PTR _iI$223922[ebp], 0
	jmp	SHORT $LN13@SpreadReli@2
$LN12@SpreadReli@2:
	mov	ecx, DWORD PTR _iI$223922[ebp]
	add	ecx, 1
	mov	DWORD PTR _iI$223922[ebp], ecx
$LN13@SpreadReli@2:
	cmp	DWORD PTR _iI$223922[ebp], 64		; 00000040H
	jge	$LN15@SpreadReli@2

; 349  : 	{
; 350  : 		CvPlayer& kPlayer = GET_PLAYER((PlayerTypes)iI);

	mov	edx, DWORD PTR _iI$223922[ebp]
	imul	edx, 63236				; 0000f704H
	add	edx, DWORD PTR ?m_aPlayers@CvPlayerAI@@1PAV1@A ; CvPlayerAI::m_aPlayers
	mov	DWORD PTR _kPlayer$223926[ebp], edx

; 351  : 		if(kPlayer.isAlive())

	mov	eax, DWORD PTR _kPlayer$223926[ebp]
	mov	cl, BYTE PTR [eax+2256]
	mov	BYTE PTR $T231664[ebp], cl
	movzx	edx, BYTE PTR $T231664[ebp]
	test	edx, edx
	je	$LN10@SpreadReli@2

; 352  : 		{
; 353  : 			int iSpyPressure = kPlayer.GetReligions()->GetSpyPressure();

	mov	ecx, DWORD PTR _kPlayer$223926[ebp]
	call	?GetReligions@CvPlayer@@QBEPAVCvPlayerReligions@@XZ ; CvPlayer::GetReligions
	mov	ecx, eax
	call	?GetSpyPressure@CvPlayerReligions@@QBEHXZ ; CvPlayerReligions::GetSpyPressure
	mov	DWORD PTR _iSpyPressure$223929[ebp], eax

; 354  : 			if (iSpyPressure > 0)

	cmp	DWORD PTR _iSpyPressure$223929[ebp], 0
	jle	SHORT $LN9@SpreadReli@2

; 355  : 			{
; 356  : 				if (kPlayer.GetEspionage()->GetSpyIndexInCity(pCity) != -1)

	mov	eax, DWORD PTR _pCity$[ebp]
	push	eax
	mov	ecx, DWORD PTR _kPlayer$223926[ebp]
	call	?GetEspionage@CvPlayer@@QBEPAVCvPlayerEspionage@@XZ ; CvPlayer::GetEspionage
	mov	ecx, eax
	call	?GetSpyIndexInCity@CvPlayerEspionage@@QAEHPAVCvCity@@@Z ; CvPlayerEspionage::GetSpyIndexInCity
	cmp	eax, -1
	je	SHORT $LN9@SpreadReli@2

; 357  : 				{
; 358  : 					ReligionTypes eReligionFounded = kPlayer.GetReligions()->GetReligionCreatedByPlayer();

	mov	ecx, DWORD PTR _kPlayer$223926[ebp]
	call	?GetReligions@CvPlayer@@QBEPAVCvPlayerReligions@@XZ ; CvPlayer::GetReligions
	mov	ecx, eax
	call	?GetReligionCreatedByPlayer@CvPlayerReligions@@QBE?AW4ReligionTypes@@XZ ; CvPlayerReligions::GetReligionCreatedByPlayer
	mov	DWORD PTR _eReligionFounded$223932[ebp], eax

; 359  : 					pCity->GetCityReligions()->AddSpyPressure(eReligionFounded, iSpyPressure);

	mov	ecx, DWORD PTR _iSpyPressure$223929[ebp]
	push	ecx
	mov	edx, DWORD PTR _eReligionFounded$223932[ebp]
	push	edx
	mov	ecx, DWORD PTR _pCity$[ebp]
	call	?GetCityReligions@CvCity@@QBEPAVCvCityReligions@@XZ ; CvCity::GetCityReligions
	mov	ecx, eax
	call	?AddSpyPressure@CvCityReligions@@QAEXW4ReligionTypes@@H@Z ; CvCityReligions::AddSpyPressure
$LN9@SpreadReli@2:

; 360  : 				}
; 361  : 			}
; 362  : 
; 363  : 			// Loop through each of their cities
; 364  : 			int iLoop;
; 365  : 			CvCity* pLoopCity;
; 366  : 			for(pLoopCity = kPlayer.firstCity(&iLoop); pLoopCity != NULL; pLoopCity = kPlayer.nextCity(&iLoop))

	push	0
	lea	eax, DWORD PTR _iLoop$223933[ebp]
	push	eax
	mov	ecx, DWORD PTR _kPlayer$223926[ebp]
	call	?firstCity@CvPlayer@@QAEPAVCvCity@@PAH_N@Z ; CvPlayer::firstCity
	mov	DWORD PTR _pLoopCity$223934[ebp], eax
	jmp	SHORT $LN7@SpreadReli@2
$LN6@SpreadReli@2:
	push	0
	lea	ecx, DWORD PTR _iLoop$223933[ebp]
	push	ecx
	mov	ecx, DWORD PTR _kPlayer$223926[ebp]
	call	?nextCity@CvPlayer@@QAEPAVCvCity@@PAH_N@Z ; CvPlayer::nextCity
	mov	DWORD PTR _pLoopCity$223934[ebp], eax
$LN7@SpreadReli@2:
	cmp	DWORD PTR _pLoopCity$223934[ebp], 0
	je	$LN10@SpreadReli@2

; 367  : 			{
; 368  : 				// Ignore the same city
; 369  : 				if(pCity == pLoopCity)

	mov	edx, DWORD PTR _pCity$[ebp]
	cmp	edx, DWORD PTR _pLoopCity$223934[ebp]
	jne	SHORT $LN4@SpreadReli@2

; 370  : 				{
; 371  : 					continue;

	jmp	SHORT $LN6@SpreadReli@2
$LN4@SpreadReli@2:

; 372  : 				}
; 373  : 
; 374  : 				// Does this city have a majority religion?
; 375  : 				ReligionTypes eMajorityReligion = pLoopCity->GetCityReligions()->GetReligiousMajority();

	mov	ecx, DWORD PTR _pLoopCity$223934[ebp]
	call	?GetCityReligions@CvCity@@QBEPAVCvCityReligions@@XZ ; CvCity::GetCityReligions
	mov	ecx, eax
	call	?GetReligiousMajority@CvCityReligions@@QAE?AW4ReligionTypes@@XZ ; CvCityReligions::GetReligiousMajority
	mov	DWORD PTR _eMajorityReligion$223939[ebp], eax

; 376  : 				if(eMajorityReligion == NO_RELIGION)

	cmp	DWORD PTR _eMajorityReligion$223939[ebp], -1
	jne	SHORT $LN3@SpreadReli@2

; 377  : 				{
; 378  : 					continue;

	jmp	SHORT $LN6@SpreadReli@2
$LN3@SpreadReli@2:

; 379  : 				}
; 380  : 
; 381  : 				int iNumTradeRoutes = 0;

	mov	DWORD PTR _iNumTradeRoutes$223941[ebp], 0

; 382  : 				int iPressure = GetAdjacentCityReligiousPressure (eMajorityReligion, pLoopCity, pCity, iNumTradeRoutes, false);

	push	0
	lea	eax, DWORD PTR _iNumTradeRoutes$223941[ebp]
	push	eax
	mov	ecx, DWORD PTR _pCity$[ebp]
	push	ecx
	mov	edx, DWORD PTR _pLoopCity$223934[ebp]
	push	edx
	mov	eax, DWORD PTR _eMajorityReligion$223939[ebp]
	push	eax
	mov	ecx, DWORD PTR _this$[ebp]
	call	?GetAdjacentCityReligiousPressure@CvGameReligions@@QAEHW4ReligionTypes@@PAVCvCity@@1AAH_N@Z ; CvGameReligions::GetAdjacentCityReligiousPressure
	mov	DWORD PTR _iPressure$223942[ebp], eax

; 383  : 				if (iPressure > 0)

	cmp	DWORD PTR _iPressure$223942[ebp], 0
	jle	SHORT $LN2@SpreadReli@2

; 384  : 				{
; 385  : 					pCity->GetCityReligions()->AddReligiousPressure(FOLLOWER_CHANGE_ADJACENT_PRESSURE, eMajorityReligion, iPressure);

	push	-1
	mov	ecx, DWORD PTR _iPressure$223942[ebp]
	push	ecx
	mov	edx, DWORD PTR _eMajorityReligion$223939[ebp]
	push	edx
	push	2
	mov	ecx, DWORD PTR _pCity$[ebp]
	call	?GetCityReligions@CvCity@@QBEPAVCvCityReligions@@XZ ; CvCity::GetCityReligions
	mov	ecx, eax
	call	?AddReligiousPressure@CvCityReligions@@QAEXW4CvReligiousFollowChangeReason@@W4ReligionTypes@@HW4PlayerTypes@@@Z ; CvCityReligions::AddReligiousPressure

; 386  : 					if (iNumTradeRoutes != 0)

	cmp	DWORD PTR _iNumTradeRoutes$223941[ebp], 0
	je	SHORT $LN2@SpreadReli@2

; 387  : 					{
; 388  : 						pCity->GetCityReligions()->IncrementNumTradeRouteConnections(eMajorityReligion, iNumTradeRoutes);

	mov	eax, DWORD PTR _iNumTradeRoutes$223941[ebp]
	push	eax
	mov	ecx, DWORD PTR _eMajorityReligion$223939[ebp]
	push	ecx
	mov	ecx, DWORD PTR _pCity$[ebp]
	call	?GetCityReligions@CvCity@@QBEPAVCvCityReligions@@XZ ; CvCity::GetCityReligions
	mov	ecx, eax
	call	?IncrementNumTradeRouteConnections@CvCityReligions@@QAEXW4ReligionTypes@@H@Z ; CvCityReligions::IncrementNumTradeRouteConnections
$LN2@SpreadReli@2:

; 389  : 					}
; 390  : 				}

	jmp	$LN6@SpreadReli@2
$LN10@SpreadReli@2:

; 391  : 			}

	jmp	$LN12@SpreadReli@2
$LN15@SpreadReli@2:

; 392  : 		}
; 393  : 	}
; 394  : }

	mov	esp, ebp
	pop	ebp
	ret	4
?SpreadReligionToOneCity@CvGameReligions@@QAEXPAVCvCity@@@Z ENDP ; CvGameReligions::SpreadReligionToOneCity
_TEXT	ENDS
PUBLIC	??_C@_0EA@CIMBFLIJ@TXT_KEY_NOTIFICATION_SUMMARY_NEE@ ; `string'
PUBLIC	??$GetLocalizedText@VCvString@@@@YA?AVCvString@@PBDV0@@Z ; GetLocalizedText<CvString>
PUBLIC	??_C@_0DI@MOLCLMEP@TXT_KEY_NOTIFICATION_NEED_NEW_AU@ ; `string'
PUBLIC	?GetBestCityFaithBuildingPurchase@CvReligionAIHelpers@@YAPAVCvCity@@AAVCvPlayer@@W4BuildingTypes@@W4ReligionTypes@@@Z ; CvReligionAIHelpers::GetBestCityFaithBuildingPurchase
PUBLIC	??_C@_0DG@BPIOFBCA@TXT_KEY_NOTIFICATION_SUMMARY_AUT@ ; `string'
PUBLIC	??$GetLocalizedText@VCvString@@PBD@@YA?AVCvString@@PBDABV0@ABQBD@Z ; GetLocalizedText<CvString,char const *>
PUBLIC	??_C@_0CO@BNBNHNPD@TXT_KEY_NOTIFICATION_AUTOMATIC_F@ ; `string'
PUBLIC	?GetBestCityFaithUnitPurchase@CvReligionAIHelpers@@YAPAVCvCity@@AAVCvPlayer@@W4UnitTypes@@W4ReligionTypes@@@Z ; CvReligionAIHelpers::GetBestCityFaithUnitPurchase
PUBLIC	??_C@_0BO@OCBLONKE@TXT_KEY_RO_AUTO_FAITH_PROPHET?$AA@ ; `string'
PUBLIC	?GetNumReligionsStillToFound@CvGameReligions@@QBEHXZ ; CvGameReligions::GetNumReligionsStillToFound
PUBLIC	?GetReligionToSpread@CvReligionAI@@QBE?AW4ReligionTypes@@XZ ; CvReligionAI::GetReligionToSpread
PUBLIC	??_C@_0DE@BLLFBHAB@TXT_KEY_NOTIFICATION_SUMMARY_ADD@ ; `string'
PUBLIC	??_C@_0CM@HAHHKCJJ@TXT_KEY_NOTIFICATION_ADD_REFORMA@ ; `string'
PUBLIC	?AddReformationBelief@CvGameReligions@@QAEXW4PlayerTypes@@W4ReligionTypes@@W4BeliefTypes@@@Z ; CvGameReligions::AddReformationBelief
PUBLIC	?ChooseReformationBelief@CvReligionAI@@QAE?AW4BeliefTypes@@XZ ; CvReligionAI::ChooseReformationBelief
PUBLIC	?HasAddedReformationBelief@CvGameReligions@@QBE_NW4PlayerTypes@@@Z ; CvGameReligions::HasAddedReformationBelief
PUBLIC	?GetReligionCreatedByPlayer@CvGameReligions@@QBE?AW4ReligionTypes@@W4PlayerTypes@@@Z ; CvGameReligions::GetReligionCreatedByPlayer
PUBLIC	?CheckSpawnGreatProphet@CvGameReligions@@AAE_NAAVCvPlayer@@@Z ; CvGameReligions::CheckSpawnGreatProphet
PUBLIC	?FoundPantheon@CvGameReligions@@QAEXW4PlayerTypes@@W4BeliefTypes@@@Z ; CvGameReligions::FoundPantheon
PUBLIC	?ChoosePantheonBelief@CvReligionAI@@QAE?AW4BeliefTypes@@XZ ; CvReligionAI::ChoosePantheonBelief
PUBLIC	??_C@_0DH@FOACBNJ@TXT_KEY_NOTIFICATION_SUMMARY_ENO@ ; `string'
PUBLIC	??_C@_0CP@BKDIDBJL@TXT_KEY_NOTIFICATION_ENOUGH_FAIT@ ; `string'
PUBLIC	?CanCreatePantheon@CvGameReligions@@QAE?AW4FOUNDING_RESULT@1@W4PlayerTypes@@_N@Z ; CvGameReligions::CanCreatePantheon
PUBLIC	??_C@_0P@IGHGNBHE@ERA_INDUSTRIAL?$AA@		; `string'
PUBLIC	??_C@_0DJ@FLMCADBI@TXT_KEY_NOTIFICATION_SUMMARY_ENO@ ; `string'
PUBLIC	?GetLocalizedText@@YA?AVCvString@@PBD@Z		; GetLocalizedText
PUBLIC	??_C@_0DB@IEDKCBCD@TXT_KEY_NOTIFICATION_ENOUGH_FAIT@ ; `string'
PUBLIC	?CanAffordFaithPurchase@CvPlayerReligions@@QBE_NXZ ; CvPlayerReligions::CanAffordFaithPurchase
PUBLIC	__$ArrayPad$
PUBLIC	?DoPlayerTurn@CvGameReligions@@QAEXAAVCvPlayer@@@Z ; CvGameReligions::DoPlayerTurn
EXTRN	?getBuildingInfo@CvGlobals@@QAEPAVCvBuildingEntry@@W4BuildingTypes@@@Z:PROC ; CvGlobals::getBuildingInfo
EXTRN	?getNameKey@CvCity@@QBEPBDXZ:PROC		; CvCity::getNameKey
EXTRN	?Purchase@CvCity@@QAEXW4UnitTypes@@W4BuildingTypes@@W4ProjectTypes@@W4YieldTypes@@@Z:PROC ; CvCity::Purchase
EXTRN	?IsCanPurchaseAnyCity@CvPlayer@@QAE_N_N0W4UnitTypes@@W4BuildingTypes@@W4YieldTypes@@@Z:PROC ; CvPlayer::IsCanPurchaseAnyCity
EXTRN	?getUnitInfo@CvGlobals@@QAEPAVCvUnitEntry@@W4UnitTypes@@@Z:PROC ; CvGlobals::getUnitInfo
EXTRN	?GetFaithPurchaseIndex@CvPlayer@@QBEHXZ:PROC	; CvPlayer::GetFaithPurchaseIndex
EXTRN	__imp_??4?$basic_string@DU?$char_traits@D@std@@V?$allocator@D@2@@std@@QAEAAV01@ABV01@@Z:PROC
EXTRN	?HasPolicyGrantingReformationBelief@CvPlayerPolicies@@QBE_NXZ:PROC ; CvPlayerPolicies::HasPolicyGrantingReformationBelief
EXTRN	?GetPlayerPolicies@CvPlayer@@QBEPAVCvPlayerPolicies@@XZ:PROC ; CvPlayer::GetPlayerPolicies
EXTRN	?GetReligionAI@CvPlayer@@QBEPAVCvReligionAI@@XZ:PROC ; CvPlayer::GetReligionAI
EXTRN	?isHuman@CvPlayer@@QBE_NXZ:PROC			; CvPlayer::isHuman
EXTRN	?getInfoTypeForString@CvGlobals@@QBEHPBD_N@Z:PROC ; CvGlobals::getInfoTypeForString
EXTRN	?GetCurrentEra@CvPlayer@@QBE?AW4EraTypes@@XZ:PROC ; CvPlayer::GetCurrentEra
EXTRN	?isMinorCiv@CvPlayer@@QBE_NXZ:PROC		; CvPlayer::isMinorCiv
EXTRN	?GetFaith@CvPlayer@@QBEHXZ:PROC			; CvPlayer::GetFaith
EXTRN	?Add@CvNotifications@@QAEHW4NotificationTypes@@PBD1HHHH@Z:PROC ; CvNotifications::Add
EXTRN	?GetNotifications@CvPlayer@@QBEPAVCvNotifications@@XZ:PROC ; CvPlayer::GetNotifications
EXTRN	?GetFaithPurchaseType@CvPlayer@@QBE?AW4FaithPurchaseTypes@@XZ:PROC ; CvPlayer::GetFaithPurchaseType
EXTRN	?ChangeFaith@CvPlayer@@QAEXH@Z:PROC		; CvPlayer::ChangeFaith
EXTRN	?GetTotalFaithPerTurn@CvPlayer@@QBEHXZ:PROC	; CvPlayer::GetTotalFaithPerTurn
;	COMDAT ??_C@_0EA@CIMBFLIJ@TXT_KEY_NOTIFICATION_SUMMARY_NEE@
; File d:\sources\lekmod_git\checkout\lekmod_dll\cvgamecoredllutil\include\cvstring.h
CONST	SEGMENT
??_C@_0EA@CIMBFLIJ@TXT_KEY_NOTIFICATION_SUMMARY_NEE@ DB 'TXT_KEY_NOTIFICA'
	DB	'TION_SUMMARY_NEED_NEW_AUTOMATIC_FAITH_SELECTION', 00H ; `string'
CONST	ENDS
;	COMDAT ??_C@_0DI@MOLCLMEP@TXT_KEY_NOTIFICATION_NEED_NEW_AU@
CONST	SEGMENT
??_C@_0DI@MOLCLMEP@TXT_KEY_NOTIFICATION_NEED_NEW_AU@ DB 'TXT_KEY_NOTIFICA'
	DB	'TION_NEED_NEW_AUTOMATIC_FAITH_SELECTION', 00H ; `string'
CONST	ENDS
;	COMDAT ??_C@_0DG@BPIOFBCA@TXT_KEY_NOTIFICATION_SUMMARY_AUT@
CONST	SEGMENT
??_C@_0DG@BPIOFBCA@TXT_KEY_NOTIFICATION_SUMMARY_AUT@ DB 'TXT_KEY_NOTIFICA'
	DB	'TION_SUMMARY_AUTOMATIC_FAITH_PURCHASE', 00H	; `string'
CONST	ENDS
;	COMDAT ??_C@_0CO@BNBNHNPD@TXT_KEY_NOTIFICATION_AUTOMATIC_F@
CONST	SEGMENT
??_C@_0CO@BNBNHNPD@TXT_KEY_NOTIFICATION_AUTOMATIC_F@ DB 'TXT_KEY_NOTIFICA'
	DB	'TION_AUTOMATIC_FAITH_PURCHASE', 00H		; `string'
CONST	ENDS
;	COMDAT ??_C@_0BO@OCBLONKE@TXT_KEY_RO_AUTO_FAITH_PROPHET?$AA@
CONST	SEGMENT
??_C@_0BO@OCBLONKE@TXT_KEY_RO_AUTO_FAITH_PROPHET?$AA@ DB 'TXT_KEY_RO_AUTO'
	DB	'_FAITH_PROPHET', 00H			; `string'
CONST	ENDS
;	COMDAT ??_C@_0DE@BLLFBHAB@TXT_KEY_NOTIFICATION_SUMMARY_ADD@
CONST	SEGMENT
??_C@_0DE@BLLFBHAB@TXT_KEY_NOTIFICATION_SUMMARY_ADD@ DB 'TXT_KEY_NOTIFICA'
	DB	'TION_SUMMARY_ADD_REFORMATION_BELIEF', 00H	; `string'
CONST	ENDS
;	COMDAT ??_C@_0CM@HAHHKCJJ@TXT_KEY_NOTIFICATION_ADD_REFORMA@
CONST	SEGMENT
??_C@_0CM@HAHHKCJJ@TXT_KEY_NOTIFICATION_ADD_REFORMA@ DB 'TXT_KEY_NOTIFICA'
	DB	'TION_ADD_REFORMATION_BELIEF', 00H		; `string'
CONST	ENDS
;	COMDAT ??_C@_0DH@FOACBNJ@TXT_KEY_NOTIFICATION_SUMMARY_ENO@
CONST	SEGMENT
??_C@_0DH@FOACBNJ@TXT_KEY_NOTIFICATION_SUMMARY_ENO@ DB 'TXT_KEY_NOTIFICAT'
	DB	'ION_SUMMARY_ENOUGH_FAITH_FOR_PANTHEON', 00H	; `string'
CONST	ENDS
;	COMDAT ??_C@_0CP@BKDIDBJL@TXT_KEY_NOTIFICATION_ENOUGH_FAIT@
CONST	SEGMENT
??_C@_0CP@BKDIDBJL@TXT_KEY_NOTIFICATION_ENOUGH_FAIT@ DB 'TXT_KEY_NOTIFICA'
	DB	'TION_ENOUGH_FAITH_FOR_PANTHEON', 00H	; `string'
CONST	ENDS
;	COMDAT ??_C@_0P@IGHGNBHE@ERA_INDUSTRIAL?$AA@
CONST	SEGMENT
??_C@_0P@IGHGNBHE@ERA_INDUSTRIAL?$AA@ DB 'ERA_INDUSTRIAL', 00H ; `string'
CONST	ENDS
;	COMDAT ??_C@_0DJ@FLMCADBI@TXT_KEY_NOTIFICATION_SUMMARY_ENO@
CONST	SEGMENT
??_C@_0DJ@FLMCADBI@TXT_KEY_NOTIFICATION_SUMMARY_ENO@ DB 'TXT_KEY_NOTIFICA'
	DB	'TION_SUMMARY_ENOUGH_FAITH_FOR_MISSIONARY', 00H ; `string'
CONST	ENDS
;	COMDAT ??_C@_0DB@IEDKCBCD@TXT_KEY_NOTIFICATION_ENOUGH_FAIT@
CONST	SEGMENT
??_C@_0DB@IEDKCBCD@TXT_KEY_NOTIFICATION_ENOUGH_FAIT@ DB 'TXT_KEY_NOTIFICA'
	DB	'TION_ENOUGH_FAITH_FOR_MISSIONARY', 00H	; `string'
CONST	ENDS
;	COMDAT xdata$x
xdata$x	SEGMENT
__ehfuncinfo$?DoPlayerTurn@CvGameReligions@@QAEXAAVCvPlayer@@@Z DD 019930522H
	DD	0fH
	DD	FLAT:__unwindtable$?DoPlayerTurn@CvGameReligions@@QAEXAAVCvPlayer@@@Z
	DD	2 DUP(00H)
	DD	2 DUP(00H)
	DD	00H
	DD	01H
__unwindtable$?DoPlayerTurn@CvGameReligions@@QAEXAAVCvPlayer@@@Z DD 0ffffffffH
	DD	FLAT:__unwindfunclet$?DoPlayerTurn@CvGameReligions@@QAEXAAVCvPlayer@@@Z$0
	DD	00H
	DD	FLAT:__unwindfunclet$?DoPlayerTurn@CvGameReligions@@QAEXAAVCvPlayer@@@Z$1
	DD	0ffffffffH
	DD	FLAT:__unwindfunclet$?DoPlayerTurn@CvGameReligions@@QAEXAAVCvPlayer@@@Z$2
	DD	02H
	DD	FLAT:__unwindfunclet$?DoPlayerTurn@CvGameReligions@@QAEXAAVCvPlayer@@@Z$3
	DD	0ffffffffH
	DD	FLAT:__unwindfunclet$?DoPlayerTurn@CvGameReligions@@QAEXAAVCvPlayer@@@Z$4
	DD	04H
	DD	FLAT:__unwindfunclet$?DoPlayerTurn@CvGameReligions@@QAEXAAVCvPlayer@@@Z$5
	DD	0ffffffffH
	DD	FLAT:__unwindfunclet$?DoPlayerTurn@CvGameReligions@@QAEXAAVCvPlayer@@@Z$6
	DD	06H
	DD	FLAT:__unwindfunclet$?DoPlayerTurn@CvGameReligions@@QAEXAAVCvPlayer@@@Z$7
	DD	06H
	DD	FLAT:__unwindfunclet$?DoPlayerTurn@CvGameReligions@@QAEXAAVCvPlayer@@@Z$8
	DD	06H
	DD	FLAT:__unwindfunclet$?DoPlayerTurn@CvGameReligions@@QAEXAAVCvPlayer@@@Z$9
	DD	09H
	DD	FLAT:__unwindfunclet$?DoPlayerTurn@CvGameReligions@@QAEXAAVCvPlayer@@@Z$10
	DD	06H
	DD	FLAT:__unwindfunclet$?DoPlayerTurn@CvGameReligions@@QAEXAAVCvPlayer@@@Z$11
	DD	0bH
	DD	FLAT:__unwindfunclet$?DoPlayerTurn@CvGameReligions@@QAEXAAVCvPlayer@@@Z$12
	DD	06H
	DD	FLAT:__unwindfunclet$?DoPlayerTurn@CvGameReligions@@QAEXAAVCvPlayer@@@Z$14
	DD	0dH
	DD	FLAT:__unwindfunclet$?DoPlayerTurn@CvGameReligions@@QAEXAAVCvPlayer@@@Z$15
; Function compile flags: /Odtp
; File d:\sources\lekmod_git\checkout\lekmod_dll\cvgamecoredll_expansion2\cvreligionclasses.cpp
xdata$x	ENDS
;	COMDAT ?DoPlayerTurn@CvGameReligions@@QAEXAAVCvPlayer@@@Z
_TEXT	SEGMENT
tv512 = -632						; size = 4
tv537 = -628						; size = 4
tv536 = -624						; size = 4
tv233 = -620						; size = 4
tv237 = -616						; size = 4
tv263 = -612						; size = 4
tv610 = -608						; size = 4
tv198 = -604						; size = 4
_this$ = -600						; size = 4
$T231873 = -596						; size = 4
$T231864 = -592						; size = 4
$T231849 = -588						; size = 4
$T231845 = -584						; size = 4
$T231829 = -580						; size = 4
$T231825 = -576						; size = 4
$T231805 = -572						; size = 4
$T231801 = -568						; size = 4
$T231792 = -564						; size = 4
$T231783 = -560						; size = 4
$T231770 = -556						; size = 4
$T231762 = -552						; size = 4
$T231739 = -548						; size = 4
$T231724 = -544						; size = 4
$T231720 = -540						; size = 4
$T231700 = -536						; size = 4
$T231672 = -532						; size = 4
$T231671 = -528						; size = 4
$T231670 = -524						; size = 4
$T231669 = -520						; size = 28
$T231668 = -492						; size = 28
_strBuffer$224058 = -464				; size = 28
_strSummary$224067 = -436				; size = 28
_pNotifications$224056 = -408				; size = 4
_strBuffer$224049 = -404				; size = 28
_strSummary$224052 = -376				; size = 28
_pNotifications$224047 = -348				; size = 4
_pCity$224045 = -344					; size = 4
_pkBuilding$224040 = -340				; size = 4
_eBuilding$224038 = -336				; size = 4
_strBuffer$224022 = -332				; size = 28
_strSummary$224033 = -304				; size = 28
_pNotifications$224020 = -276				; size = 4
_pCity$224018 = -272					; size = 4
_pkUnit$224013 = -268					; size = 4
_eUnit$224011 = -264					; size = 4
_strBuffer$223990 = -260				; size = 28
_strSummary$223993 = -232				; size = 28
_pNotifications$223988 = -204				; size = 4
_eReformationBelief$223986 = -200			; size = 4
_eBelief$223977 = -196					; size = 4
_strBuffer$223970 = -192				; size = 28
_strSummary$223973 = -164				; size = 28
_pNotifications$223968 = -136				; size = 4
_strBuffer$223958 = -132				; size = 28
_strSummary$223961 = -104				; size = 28
_pNotifications$223956 = -76				; size = 4
_ePlayer$ = -72						; size = 4
_bSelectionStillValid$ = -65				; size = 1
_eReligion$ = -64					; size = 4
_eReligionCreated$ = -60				; size = 4
_bCouldAtStartAffordFaithPurchase$ = -53		; size = 1
_iFaithPerTurn$ = -52					; size = 4
_bCanNowAffordFaithPurchase$ = -45			; size = 1
_szItemName$ = -44					; size = 28
__$ArrayPad$ = -16					; size = 4
__$EHRec$ = -12						; size = 12
_kPlayer$ = 8						; size = 4
?DoPlayerTurn@CvGameReligions@@QAEXAAVCvPlayer@@@Z PROC	; CvGameReligions::DoPlayerTurn, COMDAT
; _this$ = ecx

; 398  : {

	push	ebp
	mov	ebp, esp
	push	-1
	push	__ehhandler$?DoPlayerTurn@CvGameReligions@@QAEXAAVCvPlayer@@@Z
	mov	eax, DWORD PTR fs:0
	push	eax
	sub	esp, 620				; 0000026cH
	mov	eax, DWORD PTR ___security_cookie
	xor	eax, ebp
	mov	DWORD PTR __$ArrayPad$[ebp], eax
	push	esi
	push	eax
	lea	eax, DWORD PTR __$EHRec$[ebp]
	mov	DWORD PTR fs:0, eax
	mov	DWORD PTR _this$[ebp], ecx

; 399  : 	AI_PERF_FORMAT("AI-perf.csv", ("CvGameReligions::DoPlayerTurn, Turn %03d, %s", GC.getGame().getElapsedGameTurns(), kPlayer.getCivilizationShortDescription()) );
; 400  : 	bool bCouldAtStartAffordFaithPurchase = kPlayer.GetReligions()->CanAffordFaithPurchase();

	mov	ecx, DWORD PTR _kPlayer$[ebp]
	call	?GetReligions@CvPlayer@@QBEPAVCvPlayerReligions@@XZ ; CvPlayer::GetReligions
	mov	ecx, eax
	call	?CanAffordFaithPurchase@CvPlayerReligions@@QBE_NXZ ; CvPlayerReligions::CanAffordFaithPurchase
	mov	BYTE PTR _bCouldAtStartAffordFaithPurchase$[ebp], al

; 401  : 	const PlayerTypes ePlayer = kPlayer.GetID();

	mov	eax, DWORD PTR _kPlayer$[ebp]
	mov	ecx, DWORD PTR [eax+44]
	mov	DWORD PTR _ePlayer$[ebp], ecx

; 402  : 
; 403  : #ifndef AUI_YIELDS_APPLIED_AFTER_TURN_NOT_BEFORE
; 404  : 	int iFaithPerTurn = kPlayer.GetTotalFaithPerTurn();

	mov	ecx, DWORD PTR _kPlayer$[ebp]
	call	?GetTotalFaithPerTurn@CvPlayer@@QBEHXZ	; CvPlayer::GetTotalFaithPerTurn
	mov	DWORD PTR _iFaithPerTurn$[ebp], eax

; 405  : 	if(iFaithPerTurn > 0)

	cmp	DWORD PTR _iFaithPerTurn$[ebp], 0
	jle	SHORT $LN39@DoPlayerTu

; 406  : 	{
; 407  : 		kPlayer.ChangeFaith(iFaithPerTurn);

	mov	edx, DWORD PTR _iFaithPerTurn$[ebp]
	push	edx
	mov	ecx, DWORD PTR _kPlayer$[ebp]
	call	?ChangeFaith@CvPlayer@@QAEXH@Z		; CvPlayer::ChangeFaith
$LN39@DoPlayerTu:

; 408  : 	}
; 409  : #endif
; 410  : 
; 411  : 	// If just now can afford missionary, add a notification
; 412  : 	bool bCanNowAffordFaithPurchase = kPlayer.GetReligions()->CanAffordFaithPurchase();

	mov	ecx, DWORD PTR _kPlayer$[ebp]
	call	?GetReligions@CvPlayer@@QBEPAVCvPlayerReligions@@XZ ; CvPlayer::GetReligions
	mov	ecx, eax
	call	?CanAffordFaithPurchase@CvPlayerReligions@@QBE_NXZ ; CvPlayerReligions::CanAffordFaithPurchase
	mov	BYTE PTR _bCanNowAffordFaithPurchase$[ebp], al

; 413  : 	if (kPlayer.GetFaithPurchaseType() == NO_AUTOMATIC_FAITH_PURCHASE && !bCouldAtStartAffordFaithPurchase && bCanNowAffordFaithPurchase)

	mov	ecx, DWORD PTR _kPlayer$[ebp]
	call	?GetFaithPurchaseType@CvPlayer@@QBE?AW4FaithPurchaseTypes@@XZ ; CvPlayer::GetFaithPurchaseType
	test	eax, eax
	jne	$LN38@DoPlayerTu
	movzx	eax, BYTE PTR _bCouldAtStartAffordFaithPurchase$[ebp]
	test	eax, eax
	jne	$LN38@DoPlayerTu
	movzx	ecx, BYTE PTR _bCanNowAffordFaithPurchase$[ebp]
	test	ecx, ecx
	je	$LN38@DoPlayerTu

; 414  : 	{
; 415  : 		CvNotifications* pNotifications = kPlayer.GetNotifications();

	mov	ecx, DWORD PTR _kPlayer$[ebp]
	call	?GetNotifications@CvPlayer@@QBEPAVCvNotifications@@XZ ; CvPlayer::GetNotifications
	mov	DWORD PTR _pNotifications$223956[ebp], eax

; 416  : 		if(pNotifications)

	cmp	DWORD PTR _pNotifications$223956[ebp], 0
	je	$LN38@DoPlayerTu

; 417  : 		{
; 418  : 			CvString strBuffer = GetLocalizedText("TXT_KEY_NOTIFICATION_ENOUGH_FAITH_FOR_MISSIONARY");

	push	OFFSET ??_C@_0DB@IEDKCBCD@TXT_KEY_NOTIFICATION_ENOUGH_FAIT@
	lea	edx, DWORD PTR _strBuffer$223958[ebp]
	push	edx
	call	?GetLocalizedText@@YA?AVCvString@@PBD@Z	; GetLocalizedText
	add	esp, 8
	mov	DWORD PTR __$EHRec$[ebp+8], 0

; 419  : 			CvString strSummary = GetLocalizedText("TXT_KEY_NOTIFICATION_SUMMARY_ENOUGH_FAITH_FOR_MISSIONARY");

	push	OFFSET ??_C@_0DJ@FLMCADBI@TXT_KEY_NOTIFICATION_SUMMARY_ENO@
	lea	eax, DWORD PTR _strSummary$223961[ebp]
	push	eax
	call	?GetLocalizedText@@YA?AVCvString@@PBD@Z	; GetLocalizedText
	add	esp, 8
	mov	BYTE PTR __$EHRec$[ebp+8], 1

; 420  : 			pNotifications->Add(NOTIFICATION_CAN_BUILD_MISSIONARY, strBuffer, strSummary, -1, -1, -1);

	lea	ecx, DWORD PTR _strSummary$223961[ebp]
	call	DWORD PTR __imp_?c_str@?$basic_string@DU?$char_traits@D@std@@V?$allocator@D@2@@std@@QBEPBDXZ
	mov	DWORD PTR $T231700[ebp], eax
	push	-1
	push	-1
	push	-1
	push	-1
	mov	ecx, DWORD PTR $T231700[ebp]
	push	ecx
	lea	ecx, DWORD PTR _strBuffer$223958[ebp]
	call	DWORD PTR __imp_?c_str@?$basic_string@DU?$char_traits@D@std@@V?$allocator@D@2@@std@@QBEPBDXZ
	push	eax
	push	-1487612968				; a754d3d8H
	mov	ecx, DWORD PTR _pNotifications$223956[ebp]
	call	?Add@CvNotifications@@QAEHW4NotificationTypes@@PBD1HHHH@Z ; CvNotifications::Add

; 421  : 		}

	mov	BYTE PTR __$EHRec$[ebp+8], 0
	lea	ecx, DWORD PTR _strSummary$223961[ebp]
	call	DWORD PTR __imp_??1?$basic_string@DU?$char_traits@D@std@@V?$allocator@D@2@@std@@QAE@XZ
	mov	DWORD PTR __$EHRec$[ebp+8], -1
	lea	ecx, DWORD PTR _strBuffer$223958[ebp]
	call	DWORD PTR __imp_??1?$basic_string@DU?$char_traits@D@std@@V?$allocator@D@2@@std@@QAE@XZ
$LN38@DoPlayerTu:

; 422  : 	}
; 423  : 
; 424  : 	// Check for pantheon or great prophet spawning (now restricted so must occur before Industrial era)
; 425  : 	if(kPlayer.GetFaith() > 0 && !kPlayer.isMinorCiv() && kPlayer.GetCurrentEra() < GC.getInfoTypeForString("ERA_INDUSTRIAL"))

	mov	ecx, DWORD PTR _kPlayer$[ebp]
	call	?GetFaith@CvPlayer@@QBEHXZ		; CvPlayer::GetFaith
	test	eax, eax
	jle	$LN36@DoPlayerTu
	mov	ecx, DWORD PTR _kPlayer$[ebp]
	call	?isMinorCiv@CvPlayer@@QBE_NXZ		; CvPlayer::isMinorCiv
	movzx	edx, al
	test	edx, edx
	jne	$LN36@DoPlayerTu
	mov	ecx, DWORD PTR _kPlayer$[ebp]
	call	?GetCurrentEra@CvPlayer@@QBE?AW4EraTypes@@XZ ; CvPlayer::GetCurrentEra
	mov	esi, eax
	push	0
	push	OFFSET ??_C@_0P@IGHGNBHE@ERA_INDUSTRIAL?$AA@
	mov	ecx, OFFSET ?gGlobals@@3VCvGlobals@@A	; gGlobals
	call	?getInfoTypeForString@CvGlobals@@QBEHPBD_N@Z ; CvGlobals::getInfoTypeForString
	cmp	esi, eax
	jge	$LN36@DoPlayerTu

; 426  : 	{
; 427  : 		if(CanCreatePantheon(kPlayer.GetID(), true) == FOUNDING_OK)

	mov	eax, DWORD PTR _kPlayer$[ebp]
	mov	ecx, DWORD PTR [eax+44]
	mov	DWORD PTR $T231720[ebp], ecx
	push	1
	mov	edx, DWORD PTR $T231720[ebp]
	push	edx
	mov	ecx, DWORD PTR _this$[ebp]
	call	?CanCreatePantheon@CvGameReligions@@QAE?AW4FOUNDING_RESULT@1@W4PlayerTypes@@_N@Z ; CvGameReligions::CanCreatePantheon
	test	eax, eax
	jne	$LN35@DoPlayerTu

; 428  : 		{
; 429  : 			// Create the pantheon
; 430  : 			if(kPlayer.isHuman())

	mov	ecx, DWORD PTR _kPlayer$[ebp]
	call	?isHuman@CvPlayer@@QBE_NXZ		; CvPlayer::isHuman
	movzx	eax, al
	test	eax, eax
	je	$LN34@DoPlayerTu

; 431  : 			{
; 432  : 				//If the player is human then a net message will be received which will pick the pantheon.
; 433  : 				CvNotifications* pNotifications = kPlayer.GetNotifications();

	mov	ecx, DWORD PTR _kPlayer$[ebp]
	call	?GetNotifications@CvPlayer@@QBEPAVCvNotifications@@XZ ; CvPlayer::GetNotifications
	mov	DWORD PTR _pNotifications$223968[ebp], eax

; 434  : 				if(pNotifications)

	cmp	DWORD PTR _pNotifications$223968[ebp], 0
	je	$LN33@DoPlayerTu

; 435  : 				{
; 436  : 					CvString strBuffer = GetLocalizedText("TXT_KEY_NOTIFICATION_ENOUGH_FAITH_FOR_PANTHEON");

	push	OFFSET ??_C@_0CP@BKDIDBJL@TXT_KEY_NOTIFICATION_ENOUGH_FAIT@
	lea	ecx, DWORD PTR _strBuffer$223970[ebp]
	push	ecx
	call	?GetLocalizedText@@YA?AVCvString@@PBD@Z	; GetLocalizedText
	add	esp, 8
	mov	DWORD PTR __$EHRec$[ebp+8], 2

; 437  : 
; 438  : 					CvString strSummary = GetLocalizedText("TXT_KEY_NOTIFICATION_SUMMARY_ENOUGH_FAITH_FOR_PANTHEON");

	push	OFFSET ??_C@_0DH@FOACBNJ@TXT_KEY_NOTIFICATION_SUMMARY_ENO@
	lea	edx, DWORD PTR _strSummary$223973[ebp]
	push	edx
	call	?GetLocalizedText@@YA?AVCvString@@PBD@Z	; GetLocalizedText
	add	esp, 8
	mov	BYTE PTR __$EHRec$[ebp+8], 3

; 439  : 					pNotifications->Add(NOTIFICATION_FOUND_PANTHEON, strBuffer, strSummary, -1, -1, -1);

	lea	ecx, DWORD PTR _strSummary$223973[ebp]
	call	DWORD PTR __imp_?c_str@?$basic_string@DU?$char_traits@D@std@@V?$allocator@D@2@@std@@QBEPBDXZ
	mov	DWORD PTR $T231724[ebp], eax
	push	-1
	push	-1
	push	-1
	push	-1
	mov	eax, DWORD PTR $T231724[ebp]
	push	eax
	lea	ecx, DWORD PTR _strBuffer$223970[ebp]
	call	DWORD PTR __imp_?c_str@?$basic_string@DU?$char_traits@D@std@@V?$allocator@D@2@@std@@QBEPBDXZ
	push	eax
	push	1279997337				; 4c4b3599H
	mov	ecx, DWORD PTR _pNotifications$223968[ebp]
	call	?Add@CvNotifications@@QAEHW4NotificationTypes@@PBD1HHHH@Z ; CvNotifications::Add

; 440  : 				}

	mov	BYTE PTR __$EHRec$[ebp+8], 2
	lea	ecx, DWORD PTR _strSummary$223973[ebp]
	call	DWORD PTR __imp_??1?$basic_string@DU?$char_traits@D@std@@V?$allocator@D@2@@std@@QAE@XZ
	mov	DWORD PTR __$EHRec$[ebp+8], -1
	lea	ecx, DWORD PTR _strBuffer$223970[ebp]
	call	DWORD PTR __imp_??1?$basic_string@DU?$char_traits@D@std@@V?$allocator@D@2@@std@@QAE@XZ
$LN33@DoPlayerTu:

; 441  : 			}
; 442  : 			else

	jmp	SHORT $LN35@DoPlayerTu
$LN34@DoPlayerTu:

; 443  : 			{
; 444  : 				const BeliefTypes eBelief = kPlayer.GetReligionAI()->ChoosePantheonBelief();

	mov	ecx, DWORD PTR _kPlayer$[ebp]
	call	?GetReligionAI@CvPlayer@@QBEPAVCvReligionAI@@XZ ; CvPlayer::GetReligionAI
	mov	ecx, eax
	call	?ChoosePantheonBelief@CvReligionAI@@QAE?AW4BeliefTypes@@XZ ; CvReligionAI::ChoosePantheonBelief
	mov	DWORD PTR _eBelief$223977[ebp], eax

; 445  : 
; 446  : 				FoundPantheon(ePlayer, eBelief);

	mov	ecx, DWORD PTR _eBelief$223977[ebp]
	push	ecx
	mov	edx, DWORD PTR _ePlayer$[ebp]
	push	edx
	mov	ecx, DWORD PTR _this$[ebp]
	call	?FoundPantheon@CvGameReligions@@QAEXW4PlayerTypes@@W4BeliefTypes@@@Z ; CvGameReligions::FoundPantheon
$LN35@DoPlayerTu:

; 447  : 			}
; 448  : 		}
; 449  : 
; 450  : 		switch (kPlayer.GetFaithPurchaseType())

	mov	ecx, DWORD PTR _kPlayer$[ebp]
	call	?GetFaithPurchaseType@CvPlayer@@QBE?AW4FaithPurchaseTypes@@XZ ; CvPlayer::GetFaithPurchaseType
	mov	DWORD PTR tv198[ebp], eax
	cmp	DWORD PTR tv198[ebp], 0
	jl	SHORT $LN36@DoPlayerTu
	cmp	DWORD PTR tv198[ebp], 1
	jle	SHORT $LN29@DoPlayerTu
	jmp	SHORT $LN36@DoPlayerTu
$LN29@DoPlayerTu:

; 451  : 		{
; 452  : 		case NO_AUTOMATIC_FAITH_PURCHASE:
; 453  : 		case FAITH_PURCHASE_SAVE_PROPHET:
; 454  : 				CheckSpawnGreatProphet(kPlayer);

	mov	eax, DWORD PTR _kPlayer$[ebp]
	push	eax
	mov	ecx, DWORD PTR _this$[ebp]
	call	?CheckSpawnGreatProphet@CvGameReligions@@AAE_NAAVCvPlayer@@@Z ; CvGameReligions::CheckSpawnGreatProphet
$LN36@DoPlayerTu:

; 455  : 				break;
; 456  : 		}
; 457  : 	}
; 458  : 
; 459  : 	// Pick a Reformation belief?
; 460  : 	ReligionTypes eReligionCreated = GetReligionCreatedByPlayer(ePlayer);

	mov	ecx, DWORD PTR _ePlayer$[ebp]
	push	ecx
	mov	ecx, DWORD PTR _this$[ebp]
	call	?GetReligionCreatedByPlayer@CvGameReligions@@QBE?AW4ReligionTypes@@W4PlayerTypes@@@Z ; CvGameReligions::GetReligionCreatedByPlayer
	mov	DWORD PTR _eReligionCreated$[ebp], eax

; 461  : #ifdef AUI_RELIGION_FIX_NO_BELIEFS_AVAILABLE_CHECK_FOR_NON_PANTHEON_MOVED
; 462  : 	if (eReligionCreated > RELIGION_PANTHEON && CanAddReformationBelief(ePlayer) == FOUNDING_OK)
; 463  : #else
; 464  : 	if (eReligionCreated > RELIGION_PANTHEON && !HasAddedReformationBelief(ePlayer) && kPlayer.GetPlayerPolicies()->HasPolicyGrantingReformationBelief())

	cmp	DWORD PTR _eReligionCreated$[ebp], 0
	jle	$LN28@DoPlayerTu
	mov	edx, DWORD PTR _ePlayer$[ebp]
	push	edx
	mov	ecx, DWORD PTR _this$[ebp]
	call	?HasAddedReformationBelief@CvGameReligions@@QBE_NW4PlayerTypes@@@Z ; CvGameReligions::HasAddedReformationBelief
	movzx	eax, al
	test	eax, eax
	jne	$LN28@DoPlayerTu
	mov	ecx, DWORD PTR _kPlayer$[ebp]
	call	?GetPlayerPolicies@CvPlayer@@QBEPAVCvPlayerPolicies@@XZ ; CvPlayer::GetPlayerPolicies
	mov	ecx, eax
	call	?HasPolicyGrantingReformationBelief@CvPlayerPolicies@@QBE_NXZ ; CvPlayerPolicies::HasPolicyGrantingReformationBelief
	movzx	ecx, al
	test	ecx, ecx
	je	$LN28@DoPlayerTu

; 465  : #endif
; 466  : 	{
; 467  : 		if (!kPlayer.isHuman())

	mov	ecx, DWORD PTR _kPlayer$[ebp]
	call	?isHuman@CvPlayer@@QBE_NXZ		; CvPlayer::isHuman
	movzx	edx, al
	test	edx, edx
	jne	SHORT $LN27@DoPlayerTu

; 468  : 		{
; 469  : 			BeliefTypes eReformationBelief = kPlayer.GetReligionAI()->ChooseReformationBelief();

	mov	ecx, DWORD PTR _kPlayer$[ebp]
	call	?GetReligionAI@CvPlayer@@QBEPAVCvReligionAI@@XZ ; CvPlayer::GetReligionAI
	mov	ecx, eax
	call	?ChooseReformationBelief@CvReligionAI@@QAE?AW4BeliefTypes@@XZ ; CvReligionAI::ChooseReformationBelief
	mov	DWORD PTR _eReformationBelief$223986[ebp], eax

; 470  : 			AddReformationBelief(ePlayer, eReligionCreated, eReformationBelief);

	mov	eax, DWORD PTR _eReformationBelief$223986[ebp]
	push	eax
	mov	ecx, DWORD PTR _eReligionCreated$[ebp]
	push	ecx
	mov	edx, DWORD PTR _ePlayer$[ebp]
	push	edx
	mov	ecx, DWORD PTR _this$[ebp]
	call	?AddReformationBelief@CvGameReligions@@QAEXW4PlayerTypes@@W4ReligionTypes@@W4BeliefTypes@@@Z ; CvGameReligions::AddReformationBelief

; 471  : 		}
; 472  : 		else

	jmp	$LN28@DoPlayerTu
$LN27@DoPlayerTu:

; 473  : 		{
; 474  : 			CvNotifications* pNotifications;
; 475  : 			pNotifications = kPlayer.GetNotifications();

	mov	ecx, DWORD PTR _kPlayer$[ebp]
	call	?GetNotifications@CvPlayer@@QBEPAVCvNotifications@@XZ ; CvPlayer::GetNotifications
	mov	DWORD PTR _pNotifications$223988[ebp], eax

; 476  : 			if(pNotifications)

	cmp	DWORD PTR _pNotifications$223988[ebp], 0
	je	$LN28@DoPlayerTu

; 477  : 			{
; 478  : 				CvString strBuffer = GetLocalizedText("TXT_KEY_NOTIFICATION_ADD_REFORMATION_BELIEF");

	push	OFFSET ??_C@_0CM@HAHHKCJJ@TXT_KEY_NOTIFICATION_ADD_REFORMA@
	lea	eax, DWORD PTR _strBuffer$223990[ebp]
	push	eax
	call	?GetLocalizedText@@YA?AVCvString@@PBD@Z	; GetLocalizedText
	add	esp, 8
	mov	DWORD PTR __$EHRec$[ebp+8], 4

; 479  : 				CvString strSummary = GetLocalizedText("TXT_KEY_NOTIFICATION_SUMMARY_ADD_REFORMATION_BELIEF");

	push	OFFSET ??_C@_0DE@BLLFBHAB@TXT_KEY_NOTIFICATION_SUMMARY_ADD@
	lea	ecx, DWORD PTR _strSummary$223993[ebp]
	push	ecx
	call	?GetLocalizedText@@YA?AVCvString@@PBD@Z	; GetLocalizedText
	add	esp, 8
	mov	BYTE PTR __$EHRec$[ebp+8], 5

; 480  : 				pNotifications->Add(NOTIFICATION_ADD_REFORMATION_BELIEF, strBuffer, strSummary, -1, -1, -1);

	lea	ecx, DWORD PTR _strSummary$223993[ebp]
	call	DWORD PTR __imp_?c_str@?$basic_string@DU?$char_traits@D@std@@V?$allocator@D@2@@std@@QBEPBDXZ
	mov	DWORD PTR $T231739[ebp], eax
	push	-1
	push	-1
	push	-1
	push	-1
	mov	edx, DWORD PTR $T231739[ebp]
	push	edx
	lea	ecx, DWORD PTR _strBuffer$223990[ebp]
	call	DWORD PTR __imp_?c_str@?$basic_string@DU?$char_traits@D@std@@V?$allocator@D@2@@std@@QBEPBDXZ
	push	eax
	push	84632199				; 050b6287H
	mov	ecx, DWORD PTR _pNotifications$223988[ebp]
	call	?Add@CvNotifications@@QAEHW4NotificationTypes@@PBD1HHHH@Z ; CvNotifications::Add

; 481  : 			}

	mov	BYTE PTR __$EHRec$[ebp+8], 4
	lea	ecx, DWORD PTR _strSummary$223993[ebp]
	call	DWORD PTR __imp_??1?$basic_string@DU?$char_traits@D@std@@V?$allocator@D@2@@std@@QAE@XZ
	mov	DWORD PTR __$EHRec$[ebp+8], -1
	lea	ecx, DWORD PTR _strBuffer$223990[ebp]
	call	DWORD PTR __imp_??1?$basic_string@DU?$char_traits@D@std@@V?$allocator@D@2@@std@@QAE@XZ
$LN28@DoPlayerTu:

; 482  : 		}
; 483  : 	}
; 484  : 
; 485  : 	// Automatic faith purchases?
; 486  : 	bool bSelectionStillValid = true;

	mov	BYTE PTR _bSelectionStillValid$[ebp], 1

; 487  : 	CvString szItemName = "";

	mov	eax, OFFSET ??_C@_00CNPNBAHC@?$AA@
	test	eax, eax
	je	SHORT $LN98@DoPlayerTu
	mov	DWORD PTR tv610[ebp], OFFSET ??_C@_00CNPNBAHC@?$AA@
	jmp	SHORT $LN99@DoPlayerTu
$LN98@DoPlayerTu:
	mov	DWORD PTR tv610[ebp], OFFSET ??_C@_00CNPNBAHC@?$AA@
$LN99@DoPlayerTu:
	mov	ecx, DWORD PTR tv610[ebp]
	push	ecx
	lea	ecx, DWORD PTR _szItemName$[ebp]
	call	DWORD PTR __imp_??0?$basic_string@DU?$char_traits@D@std@@V?$allocator@D@2@@std@@QAE@PBD@Z
	mov	DWORD PTR __$EHRec$[ebp+8], 6

; 488  : 	ReligionTypes eReligion = kPlayer.GetReligionAI()->GetReligionToSpread();

	mov	ecx, DWORD PTR _kPlayer$[ebp]
	call	?GetReligionAI@CvPlayer@@QBEPAVCvReligionAI@@XZ ; CvPlayer::GetReligionAI
	mov	ecx, eax
	call	?GetReligionToSpread@CvReligionAI@@QBE?AW4ReligionTypes@@XZ ; CvReligionAI::GetReligionToSpread
	mov	DWORD PTR _eReligion$[ebp], eax

; 489  : 
; 490  : 	switch (kPlayer.GetFaithPurchaseType())

	mov	ecx, DWORD PTR _kPlayer$[ebp]
	call	?GetFaithPurchaseType@CvPlayer@@QBE?AW4FaithPurchaseTypes@@XZ ; CvPlayer::GetFaithPurchaseType
	mov	DWORD PTR tv263[ebp], eax
	cmp	DWORD PTR tv263[ebp], 1
	je	SHORT $LN22@DoPlayerTu
	cmp	DWORD PTR tv263[ebp], 2
	je	$LN10@DoPlayerTu
	cmp	DWORD PTR tv263[ebp], 3
	je	$LN18@DoPlayerTu
	jmp	$LN23@DoPlayerTu
$LN22@DoPlayerTu:

; 491  : 	{
; 492  : 	case FAITH_PURCHASE_SAVE_PROPHET:
; 493  : 		if (eReligion <= RELIGION_PANTHEON && GetNumReligionsStillToFound() <= 0)

	cmp	DWORD PTR _eReligion$[ebp], 0
	jg	SHORT $LN21@DoPlayerTu
	mov	ecx, DWORD PTR _this$[ebp]
	call	?GetNumReligionsStillToFound@CvGameReligions@@QBEHXZ ; CvGameReligions::GetNumReligionsStillToFound
	test	eax, eax
	jg	SHORT $LN21@DoPlayerTu

; 494  : 		{
; 495  : 			szItemName = GetLocalizedText("TXT_KEY_RO_AUTO_FAITH_PROPHET");

	push	OFFSET ??_C@_0BO@OCBLONKE@TXT_KEY_RO_AUTO_FAITH_PROPHET?$AA@
	lea	edx, DWORD PTR $T231668[ebp]
	push	edx
	call	?GetLocalizedText@@YA?AVCvString@@PBD@Z	; GetLocalizedText
	add	esp, 8
	mov	DWORD PTR tv237[ebp], eax
	mov	eax, DWORD PTR tv237[ebp]
	mov	DWORD PTR $T231762[ebp], eax
	mov	BYTE PTR __$EHRec$[ebp+8], 7
	mov	ecx, DWORD PTR $T231762[ebp]
	push	ecx
	lea	ecx, DWORD PTR _szItemName$[ebp]
	call	DWORD PTR __imp_??4?$basic_string@DU?$char_traits@D@std@@V?$allocator@D@2@@std@@QAEAAV01@ABV01@@Z
	mov	BYTE PTR __$EHRec$[ebp+8], 6
	lea	ecx, DWORD PTR $T231668[ebp]
	call	DWORD PTR __imp_??1?$basic_string@DU?$char_traits@D@std@@V?$allocator@D@2@@std@@QAE@XZ

; 496  : 			bSelectionStillValid = false;

	mov	BYTE PTR _bSelectionStillValid$[ebp], 0
	jmp	SHORT $LN20@DoPlayerTu
$LN21@DoPlayerTu:

; 497  : 		}
; 498  : 		else if (kPlayer.GetCurrentEra() >= GC.getInfoTypeForString("ERA_INDUSTRIAL"))

	mov	ecx, DWORD PTR _kPlayer$[ebp]
	call	?GetCurrentEra@CvPlayer@@QBE?AW4EraTypes@@XZ ; CvPlayer::GetCurrentEra
	mov	esi, eax
	push	0
	push	OFFSET ??_C@_0P@IGHGNBHE@ERA_INDUSTRIAL?$AA@
	mov	ecx, OFFSET ?gGlobals@@3VCvGlobals@@A	; gGlobals
	call	?getInfoTypeForString@CvGlobals@@QBEHPBD_N@Z ; CvGlobals::getInfoTypeForString
	cmp	esi, eax
	jl	SHORT $LN20@DoPlayerTu

; 499  : 		{
; 500  : 			szItemName = GetLocalizedText("TXT_KEY_RO_AUTO_FAITH_PROPHET");

	push	OFFSET ??_C@_0BO@OCBLONKE@TXT_KEY_RO_AUTO_FAITH_PROPHET?$AA@
	lea	edx, DWORD PTR $T231669[ebp]
	push	edx
	call	?GetLocalizedText@@YA?AVCvString@@PBD@Z	; GetLocalizedText
	add	esp, 8
	mov	DWORD PTR tv233[ebp], eax
	mov	eax, DWORD PTR tv233[ebp]
	mov	DWORD PTR $T231770[ebp], eax
	mov	BYTE PTR __$EHRec$[ebp+8], 8
	mov	ecx, DWORD PTR $T231770[ebp]
	push	ecx
	lea	ecx, DWORD PTR _szItemName$[ebp]
	call	DWORD PTR __imp_??4?$basic_string@DU?$char_traits@D@std@@V?$allocator@D@2@@std@@QAEAAV01@ABV01@@Z
	mov	BYTE PTR __$EHRec$[ebp+8], 6
	lea	ecx, DWORD PTR $T231669[ebp]
	call	DWORD PTR __imp_??1?$basic_string@DU?$char_traits@D@std@@V?$allocator@D@2@@std@@QAE@XZ

; 501  : 			bSelectionStillValid = false;

	mov	BYTE PTR _bSelectionStillValid$[ebp], 0
$LN20@DoPlayerTu:

; 502  : 		}
; 503  : 		break;

	jmp	$LN23@DoPlayerTu
$LN18@DoPlayerTu:

; 504  : 
; 505  : 	case FAITH_PURCHASE_UNIT:
; 506  : 		{
; 507  : 			UnitTypes eUnit = (UnitTypes)kPlayer.GetFaithPurchaseIndex();

	mov	ecx, DWORD PTR _kPlayer$[ebp]
	call	?GetFaithPurchaseIndex@CvPlayer@@QBEHXZ	; CvPlayer::GetFaithPurchaseIndex
	mov	DWORD PTR _eUnit$224011[ebp], eax

; 508  : 			CvUnitEntry *pkUnit = GC.getUnitInfo(eUnit);

	mov	edx, DWORD PTR _eUnit$224011[ebp]
	push	edx
	mov	ecx, OFFSET ?gGlobals@@3VCvGlobals@@A	; gGlobals
	call	?getUnitInfo@CvGlobals@@QAEPAVCvUnitEntry@@W4UnitTypes@@@Z ; CvGlobals::getUnitInfo
	mov	DWORD PTR _pkUnit$224013[ebp], eax

; 509  : 			if (pkUnit)

	cmp	DWORD PTR _pkUnit$224013[ebp], 0
	je	SHORT $LN17@DoPlayerTu

; 510  : 			{
; 511  : 				szItemName = pkUnit->GetDescriptionKey();

	mov	ecx, DWORD PTR _pkUnit$224013[ebp]
	add	ecx, 64					; 00000040H
	call	DWORD PTR __imp_?c_str@?$basic_string@DU?$char_traits@D@std@@V?$allocator@D@2@@std@@QBEPBDXZ
	mov	DWORD PTR $T231783[ebp], eax
	cmp	DWORD PTR $T231783[ebp], 0
	je	SHORT $LN114@DoPlayerTu
	mov	eax, DWORD PTR $T231783[ebp]
	push	eax
	lea	ecx, DWORD PTR _szItemName$[ebp]
	call	DWORD PTR __imp_?assign@?$basic_string@DU?$char_traits@D@std@@V?$allocator@D@2@@std@@QAEAAV12@PBD@Z
	jmp	SHORT $LN17@DoPlayerTu
$LN114@DoPlayerTu:
	lea	ecx, DWORD PTR _szItemName$[ebp]
	call	DWORD PTR __imp_?clear@?$basic_string@DU?$char_traits@D@std@@V?$allocator@D@2@@std@@QAEXXZ
$LN17@DoPlayerTu:

; 512  : 			}
; 513  : 
; 514  : 			if (!kPlayer.IsCanPurchaseAnyCity(false, false /* Don't worry about faith balance */, eUnit, NO_BUILDING, YIELD_FAITH))

	push	5
	push	-1
	mov	ecx, DWORD PTR _eUnit$224011[ebp]
	push	ecx
	push	0
	push	0
	mov	ecx, DWORD PTR _kPlayer$[ebp]
	call	?IsCanPurchaseAnyCity@CvPlayer@@QAE_N_N0W4UnitTypes@@W4BuildingTypes@@W4YieldTypes@@@Z ; CvPlayer::IsCanPurchaseAnyCity
	movzx	edx, al
	test	edx, edx
	jne	SHORT $LN16@DoPlayerTu

; 515  : 			{
; 516  : 				bSelectionStillValid = false;

	mov	BYTE PTR _bSelectionStillValid$[ebp], 0

; 517  : 			}
; 518  : 			else

	jmp	$LN15@DoPlayerTu
$LN16@DoPlayerTu:

; 519  : 			{
; 520  : 				if (kPlayer.IsCanPurchaseAnyCity(true, true /* Check faith balance */, eUnit, NO_BUILDING, YIELD_FAITH))

	push	5
	push	-1
	mov	eax, DWORD PTR _eUnit$224011[ebp]
	push	eax
	push	1
	push	1
	mov	ecx, DWORD PTR _kPlayer$[ebp]
	call	?IsCanPurchaseAnyCity@CvPlayer@@QAE_N_N0W4UnitTypes@@W4BuildingTypes@@W4YieldTypes@@@Z ; CvPlayer::IsCanPurchaseAnyCity
	movzx	ecx, al
	test	ecx, ecx
	je	$LN15@DoPlayerTu

; 521  : 				{
; 522  : 					CvCity *pCity = CvReligionAIHelpers::GetBestCityFaithUnitPurchase(kPlayer, eUnit, eReligion);

	mov	edx, DWORD PTR _eReligion$[ebp]
	push	edx
	mov	eax, DWORD PTR _eUnit$224011[ebp]
	push	eax
	mov	ecx, DWORD PTR _kPlayer$[ebp]
	push	ecx
	call	?GetBestCityFaithUnitPurchase@CvReligionAIHelpers@@YAPAVCvCity@@AAVCvPlayer@@W4UnitTypes@@W4ReligionTypes@@@Z ; CvReligionAIHelpers::GetBestCityFaithUnitPurchase
	add	esp, 12					; 0000000cH
	mov	DWORD PTR _pCity$224018[ebp], eax

; 523  : 					if (pCity)

	cmp	DWORD PTR _pCity$224018[ebp], 0
	je	$LN13@DoPlayerTu

; 524  : 					{
; 525  : 						pCity->Purchase(eUnit, NO_BUILDING, NO_PROJECT, YIELD_FAITH);

	push	5
	push	-1
	push	-1
	mov	edx, DWORD PTR _eUnit$224011[ebp]
	push	edx
	mov	ecx, DWORD PTR _pCity$224018[ebp]
	call	?Purchase@CvCity@@QAEXW4UnitTypes@@W4BuildingTypes@@W4ProjectTypes@@W4YieldTypes@@@Z ; CvCity::Purchase

; 526  : 
; 527  : 						CvNotifications* pNotifications = kPlayer.GetNotifications();

	mov	ecx, DWORD PTR _kPlayer$[ebp]
	call	?GetNotifications@CvPlayer@@QBEPAVCvNotifications@@XZ ; CvPlayer::GetNotifications
	mov	DWORD PTR _pNotifications$224020[ebp], eax

; 528  : 						if(pNotifications)

	cmp	DWORD PTR _pNotifications$224020[ebp], 0
	je	$LN12@DoPlayerTu

; 529  : 						{
; 530  : 							CvString strBuffer = GetLocalizedText("TXT_KEY_NOTIFICATION_AUTOMATIC_FAITH_PURCHASE", szItemName, pCity->getNameKey());

	mov	ecx, DWORD PTR _pCity$224018[ebp]
	call	?getNameKey@CvCity@@QBEPBDXZ		; CvCity::getNameKey
	mov	DWORD PTR $T231670[ebp], eax
	lea	eax, DWORD PTR $T231670[ebp]
	push	eax
	lea	ecx, DWORD PTR _szItemName$[ebp]
	push	ecx
	push	OFFSET ??_C@_0CO@BNBNHNPD@TXT_KEY_NOTIFICATION_AUTOMATIC_F@
	lea	edx, DWORD PTR _strBuffer$224022[ebp]
	push	edx
	call	??$GetLocalizedText@VCvString@@PBD@@YA?AVCvString@@PBDABV0@ABQBD@Z ; GetLocalizedText<CvString,char const *>
	add	esp, 16					; 00000010H
	mov	BYTE PTR __$EHRec$[ebp+8], 9

; 531  : 							CvString strSummary = GetLocalizedText("TXT_KEY_NOTIFICATION_SUMMARY_AUTOMATIC_FAITH_PURCHASE");

	push	OFFSET ??_C@_0DG@BPIOFBCA@TXT_KEY_NOTIFICATION_SUMMARY_AUT@
	lea	eax, DWORD PTR _strSummary$224033[ebp]
	push	eax
	call	?GetLocalizedText@@YA?AVCvString@@PBD@Z	; GetLocalizedText
	add	esp, 8
	mov	BYTE PTR __$EHRec$[ebp+8], 10		; 0000000aH

; 532  : 							pNotifications->Add(NOTIFICATION_CAN_BUILD_MISSIONARY, strBuffer, strSummary, pCity->getX(), pCity->getY(), -1);

	mov	ecx, DWORD PTR _pCity$224018[ebp]
	mov	edx, DWORD PTR [ecx+108]
	mov	DWORD PTR $T231792[ebp], edx
	mov	eax, DWORD PTR _pCity$224018[ebp]
	mov	ecx, DWORD PTR [eax+96]
	mov	DWORD PTR $T231801[ebp], ecx
	lea	ecx, DWORD PTR _strSummary$224033[ebp]
	call	DWORD PTR __imp_?c_str@?$basic_string@DU?$char_traits@D@std@@V?$allocator@D@2@@std@@QBEPBDXZ
	mov	DWORD PTR $T231805[ebp], eax
	push	-1
	push	-1
	mov	edx, DWORD PTR $T231792[ebp]
	push	edx
	mov	eax, DWORD PTR $T231801[ebp]
	push	eax
	mov	ecx, DWORD PTR $T231805[ebp]
	push	ecx
	lea	ecx, DWORD PTR _strBuffer$224022[ebp]
	call	DWORD PTR __imp_?c_str@?$basic_string@DU?$char_traits@D@std@@V?$allocator@D@2@@std@@QBEPBDXZ
	push	eax
	push	-1487612968				; a754d3d8H
	mov	ecx, DWORD PTR _pNotifications$224020[ebp]
	call	?Add@CvNotifications@@QAEHW4NotificationTypes@@PBD1HHHH@Z ; CvNotifications::Add

; 533  : 						}

	mov	BYTE PTR __$EHRec$[ebp+8], 9
	lea	ecx, DWORD PTR _strSummary$224033[ebp]
	call	DWORD PTR __imp_??1?$basic_string@DU?$char_traits@D@std@@V?$allocator@D@2@@std@@QAE@XZ
	mov	BYTE PTR __$EHRec$[ebp+8], 6
	lea	ecx, DWORD PTR _strBuffer$224022[ebp]
	call	DWORD PTR __imp_??1?$basic_string@DU?$char_traits@D@std@@V?$allocator@D@2@@std@@QAE@XZ
$LN12@DoPlayerTu:

; 534  : 					}
; 535  : 					else

	jmp	SHORT $LN15@DoPlayerTu
$LN13@DoPlayerTu:

; 536  : 					{
; 537  : 						bSelectionStillValid = false;

	mov	BYTE PTR _bSelectionStillValid$[ebp], 0
$LN15@DoPlayerTu:

; 538  : 					}
; 539  : 				}
; 540  : 			}
; 541  : 		}
; 542  : 		break;

	jmp	$LN23@DoPlayerTu
$LN10@DoPlayerTu:

; 543  : 	case FAITH_PURCHASE_BUILDING:
; 544  : 		{
; 545  : 			BuildingTypes eBuilding = (BuildingTypes)kPlayer.GetFaithPurchaseIndex();

	mov	ecx, DWORD PTR _kPlayer$[ebp]
	call	?GetFaithPurchaseIndex@CvPlayer@@QBEHXZ	; CvPlayer::GetFaithPurchaseIndex
	mov	DWORD PTR _eBuilding$224038[ebp], eax

; 546  : 			CvBuildingEntry *pkBuilding = GC.getBuildingInfo(eBuilding);

	mov	edx, DWORD PTR _eBuilding$224038[ebp]
	push	edx
	mov	ecx, OFFSET ?gGlobals@@3VCvGlobals@@A	; gGlobals
	call	?getBuildingInfo@CvGlobals@@QAEPAVCvBuildingEntry@@W4BuildingTypes@@@Z ; CvGlobals::getBuildingInfo
	mov	DWORD PTR _pkBuilding$224040[ebp], eax

; 547  : 			if (pkBuilding)

	cmp	DWORD PTR _pkBuilding$224040[ebp], 0
	je	SHORT $LN9@DoPlayerTu

; 548  : 			{
; 549  : 				szItemName = pkBuilding->GetDescriptionKey();

	mov	ecx, DWORD PTR _pkBuilding$224040[ebp]
	add	ecx, 64					; 00000040H
	call	DWORD PTR __imp_?c_str@?$basic_string@DU?$char_traits@D@std@@V?$allocator@D@2@@std@@QBEPBDXZ
	mov	DWORD PTR $T231825[ebp], eax
	cmp	DWORD PTR $T231825[ebp], 0
	je	SHORT $LN138@DoPlayerTu
	mov	eax, DWORD PTR $T231825[ebp]
	push	eax
	lea	ecx, DWORD PTR _szItemName$[ebp]
	call	DWORD PTR __imp_?assign@?$basic_string@DU?$char_traits@D@std@@V?$allocator@D@2@@std@@QAEAAV12@PBD@Z
	jmp	SHORT $LN9@DoPlayerTu
$LN138@DoPlayerTu:
	lea	ecx, DWORD PTR _szItemName$[ebp]
	call	DWORD PTR __imp_?clear@?$basic_string@DU?$char_traits@D@std@@V?$allocator@D@2@@std@@QAEXXZ
$LN9@DoPlayerTu:

; 550  : 			}
; 551  : 
; 552  : 			if (!kPlayer.IsCanPurchaseAnyCity(false, false, NO_UNIT, eBuilding, YIELD_FAITH))

	push	5
	mov	ecx, DWORD PTR _eBuilding$224038[ebp]
	push	ecx
	push	-1
	push	0
	push	0
	mov	ecx, DWORD PTR _kPlayer$[ebp]
	call	?IsCanPurchaseAnyCity@CvPlayer@@QAE_N_N0W4UnitTypes@@W4BuildingTypes@@W4YieldTypes@@@Z ; CvPlayer::IsCanPurchaseAnyCity
	movzx	edx, al
	test	edx, edx
	jne	SHORT $LN8@DoPlayerTu

; 553  : 			{
; 554  : 				bSelectionStillValid = false;

	mov	BYTE PTR _bSelectionStillValid$[ebp], 0

; 555  : 			}
; 556  : 			else

	jmp	$LN23@DoPlayerTu
$LN8@DoPlayerTu:

; 557  : 			{
; 558  : 				if (kPlayer.IsCanPurchaseAnyCity(true, true /* Check faith balance */, NO_UNIT, eBuilding, YIELD_FAITH))

	push	5
	mov	eax, DWORD PTR _eBuilding$224038[ebp]
	push	eax
	push	-1
	push	1
	push	1
	mov	ecx, DWORD PTR _kPlayer$[ebp]
	call	?IsCanPurchaseAnyCity@CvPlayer@@QAE_N_N0W4UnitTypes@@W4BuildingTypes@@W4YieldTypes@@@Z ; CvPlayer::IsCanPurchaseAnyCity
	movzx	ecx, al
	test	ecx, ecx
	je	$LN23@DoPlayerTu

; 559  : 				{
; 560  : 					CvCity *pCity = CvReligionAIHelpers::GetBestCityFaithBuildingPurchase(kPlayer, eBuilding, eReligion);

	mov	edx, DWORD PTR _eReligion$[ebp]
	push	edx
	mov	eax, DWORD PTR _eBuilding$224038[ebp]
	push	eax
	mov	ecx, DWORD PTR _kPlayer$[ebp]
	push	ecx
	call	?GetBestCityFaithBuildingPurchase@CvReligionAIHelpers@@YAPAVCvCity@@AAVCvPlayer@@W4BuildingTypes@@W4ReligionTypes@@@Z ; CvReligionAIHelpers::GetBestCityFaithBuildingPurchase
	add	esp, 12					; 0000000cH
	mov	DWORD PTR _pCity$224045[ebp], eax

; 561  : 					if (pCity)

	cmp	DWORD PTR _pCity$224045[ebp], 0
	je	$LN5@DoPlayerTu

; 562  : 					{
; 563  : 						pCity->Purchase(NO_UNIT, eBuilding, NO_PROJECT, YIELD_FAITH);

	push	5
	push	-1
	mov	edx, DWORD PTR _eBuilding$224038[ebp]
	push	edx
	push	-1
	mov	ecx, DWORD PTR _pCity$224045[ebp]
	call	?Purchase@CvCity@@QAEXW4UnitTypes@@W4BuildingTypes@@W4ProjectTypes@@W4YieldTypes@@@Z ; CvCity::Purchase

; 564  : 
; 565  : 						CvNotifications* pNotifications = kPlayer.GetNotifications();

	mov	ecx, DWORD PTR _kPlayer$[ebp]
	call	?GetNotifications@CvPlayer@@QBEPAVCvNotifications@@XZ ; CvPlayer::GetNotifications
	mov	DWORD PTR _pNotifications$224047[ebp], eax

; 566  : 						if(pNotifications)

	cmp	DWORD PTR _pNotifications$224047[ebp], 0
	je	$LN4@DoPlayerTu

; 567  : 						{
; 568  : 							CvString strBuffer = GetLocalizedText("TXT_KEY_NOTIFICATION_AUTOMATIC_FAITH_PURCHASE", szItemName, pCity->getNameKey());

	mov	ecx, DWORD PTR _pCity$224045[ebp]
	call	?getNameKey@CvCity@@QBEPBDXZ		; CvCity::getNameKey
	mov	DWORD PTR $T231671[ebp], eax
	lea	eax, DWORD PTR $T231671[ebp]
	push	eax
	lea	ecx, DWORD PTR _szItemName$[ebp]
	push	ecx
	push	OFFSET ??_C@_0CO@BNBNHNPD@TXT_KEY_NOTIFICATION_AUTOMATIC_F@
	lea	edx, DWORD PTR _strBuffer$224049[ebp]
	push	edx
	call	??$GetLocalizedText@VCvString@@PBD@@YA?AVCvString@@PBDABV0@ABQBD@Z ; GetLocalizedText<CvString,char const *>
	add	esp, 16					; 00000010H
	mov	BYTE PTR __$EHRec$[ebp+8], 11		; 0000000bH

; 569  : 							CvString strSummary = GetLocalizedText("TXT_KEY_NOTIFICATION_SUMMARY_AUTOMATIC_FAITH_PURCHASE");

	push	OFFSET ??_C@_0DG@BPIOFBCA@TXT_KEY_NOTIFICATION_SUMMARY_AUT@
	lea	eax, DWORD PTR _strSummary$224052[ebp]
	push	eax
	call	?GetLocalizedText@@YA?AVCvString@@PBD@Z	; GetLocalizedText
	add	esp, 8
	mov	BYTE PTR __$EHRec$[ebp+8], 12		; 0000000cH

; 570  : 							pNotifications->Add(NOTIFICATION_CAN_BUILD_MISSIONARY, strBuffer, strSummary, -1, -1, -1);

	lea	ecx, DWORD PTR _strSummary$224052[ebp]
	call	DWORD PTR __imp_?c_str@?$basic_string@DU?$char_traits@D@std@@V?$allocator@D@2@@std@@QBEPBDXZ
	mov	DWORD PTR $T231829[ebp], eax
	push	-1
	push	-1
	push	-1
	push	-1
	mov	ecx, DWORD PTR $T231829[ebp]
	push	ecx
	lea	ecx, DWORD PTR _strBuffer$224049[ebp]
	call	DWORD PTR __imp_?c_str@?$basic_string@DU?$char_traits@D@std@@V?$allocator@D@2@@std@@QBEPBDXZ
	push	eax
	push	-1487612968				; a754d3d8H
	mov	ecx, DWORD PTR _pNotifications$224047[ebp]
	call	?Add@CvNotifications@@QAEHW4NotificationTypes@@PBD1HHHH@Z ; CvNotifications::Add

; 571  : 						}

	mov	BYTE PTR __$EHRec$[ebp+8], 11		; 0000000bH
	lea	ecx, DWORD PTR _strSummary$224052[ebp]
	call	DWORD PTR __imp_??1?$basic_string@DU?$char_traits@D@std@@V?$allocator@D@2@@std@@QAE@XZ
	mov	BYTE PTR __$EHRec$[ebp+8], 6
	lea	ecx, DWORD PTR _strBuffer$224049[ebp]
	call	DWORD PTR __imp_??1?$basic_string@DU?$char_traits@D@std@@V?$allocator@D@2@@std@@QAE@XZ
$LN4@DoPlayerTu:

; 572  : 					}
; 573  : 					else

	jmp	SHORT $LN23@DoPlayerTu
$LN5@DoPlayerTu:

; 574  : 					{
; 575  : 						bSelectionStillValid = false;

	mov	BYTE PTR _bSelectionStillValid$[ebp], 0
$LN23@DoPlayerTu:

; 576  : 					}
; 577  : 				}
; 578  : 			}
; 579  : 		}
; 580  : 		break;
; 581  : 	}
; 582  : 
; 583  : 	if (!bSelectionStillValid)

	movzx	edx, BYTE PTR _bSelectionStillValid$[ebp]
	test	edx, edx
	jne	$LN2@DoPlayerTu

; 584  : 	{
; 585  : 		CvNotifications* pNotifications = kPlayer.GetNotifications();

	mov	ecx, DWORD PTR _kPlayer$[ebp]
	call	?GetNotifications@CvPlayer@@QBEPAVCvNotifications@@XZ ; CvPlayer::GetNotifications
	mov	DWORD PTR _pNotifications$224056[ebp], eax

; 586  : 		if(pNotifications)

	cmp	DWORD PTR _pNotifications$224056[ebp], 0
	je	$LN1@DoPlayerTu

; 587  : 		{
; 588  : 			CvString strBuffer = GetLocalizedText("TXT_KEY_NOTIFICATION_NEED_NEW_AUTOMATIC_FAITH_SELECTION", szItemName);

	sub	esp, 28					; 0000001cH
	mov	eax, esp
	mov	DWORD PTR $T231672[ebp], esp
	mov	DWORD PTR $T231845[ebp], eax
	lea	ecx, DWORD PTR _szItemName$[ebp]
	push	ecx
	mov	ecx, DWORD PTR $T231845[ebp]
	call	DWORD PTR __imp_??0?$basic_string@DU?$char_traits@D@std@@V?$allocator@D@2@@std@@QAE@ABV01@@Z
	mov	edx, DWORD PTR $T231845[ebp]
	mov	DWORD PTR tv536[ebp], edx
	push	OFFSET ??_C@_0DI@MOLCLMEP@TXT_KEY_NOTIFICATION_NEED_NEW_AU@
	lea	eax, DWORD PTR _strBuffer$224058[ebp]
	push	eax
	call	??$GetLocalizedText@VCvString@@@@YA?AVCvString@@PBDV0@@Z ; GetLocalizedText<CvString>
	add	esp, 36					; 00000024H
	mov	DWORD PTR tv537[ebp], eax
	mov	BYTE PTR __$EHRec$[ebp+8], 13		; 0000000dH

; 589  : 			CvString strSummary = GetLocalizedText("TXT_KEY_NOTIFICATION_SUMMARY_NEED_NEW_AUTOMATIC_FAITH_SELECTION");

	push	OFFSET ??_C@_0EA@CIMBFLIJ@TXT_KEY_NOTIFICATION_SUMMARY_NEE@
	lea	ecx, DWORD PTR _strSummary$224067[ebp]
	push	ecx
	call	?GetLocalizedText@@YA?AVCvString@@PBD@Z	; GetLocalizedText
	add	esp, 8
	mov	BYTE PTR __$EHRec$[ebp+8], 14		; 0000000eH

; 590  : 			pNotifications->Add(NOTIFICATION_AUTOMATIC_FAITH_PURCHASE_STOPPED, strBuffer, strSummary, -1, -1, -1);

	lea	ecx, DWORD PTR _strSummary$224067[ebp]
	call	DWORD PTR __imp_?c_str@?$basic_string@DU?$char_traits@D@std@@V?$allocator@D@2@@std@@QBEPBDXZ
	mov	DWORD PTR $T231849[ebp], eax
	push	-1
	push	-1
	push	-1
	push	-1
	mov	edx, DWORD PTR $T231849[ebp]
	push	edx
	lea	ecx, DWORD PTR _strBuffer$224058[ebp]
	call	DWORD PTR __imp_?c_str@?$basic_string@DU?$char_traits@D@std@@V?$allocator@D@2@@std@@QBEPBDXZ
	push	eax
	push	-2062740077				; 850d1593H
	mov	ecx, DWORD PTR _pNotifications$224056[ebp]
	call	?Add@CvNotifications@@QAEHW4NotificationTypes@@PBD1HHHH@Z ; CvNotifications::Add

; 591  : 		}

	mov	BYTE PTR __$EHRec$[ebp+8], 13		; 0000000dH
	lea	ecx, DWORD PTR _strSummary$224067[ebp]
	call	DWORD PTR __imp_??1?$basic_string@DU?$char_traits@D@std@@V?$allocator@D@2@@std@@QAE@XZ
	mov	BYTE PTR __$EHRec$[ebp+8], 6
	lea	ecx, DWORD PTR _strBuffer$224058[ebp]
	call	DWORD PTR __imp_??1?$basic_string@DU?$char_traits@D@std@@V?$allocator@D@2@@std@@QAE@XZ
$LN1@DoPlayerTu:

; 592  : 
; 593  : 		gDLL->SendFaithPurchase(kPlayer.GetID(), NO_AUTOMATIC_FAITH_PURCHASE, 0);

	mov	eax, DWORD PTR $T231864[ebp]
	mov	DWORD PTR tv512[ebp], eax
	mov	ecx, DWORD PTR ?gGlobals@@3VCvGlobals@@A+8564
	mov	DWORD PTR tv512[ebp], ecx
	mov	edx, DWORD PTR _kPlayer$[ebp]
	mov	eax, DWORD PTR [edx+44]
	mov	DWORD PTR $T231873[ebp], eax
	push	0
	push	0
	mov	ecx, DWORD PTR $T231873[ebp]
	push	ecx
	mov	edx, DWORD PTR tv512[ebp]
	mov	eax, DWORD PTR [edx]
	mov	ecx, DWORD PTR tv512[ebp]
	mov	edx, DWORD PTR [eax+116]
	call	edx
$LN2@DoPlayerTu:

; 594  : 	}
; 595  : }

	mov	DWORD PTR __$EHRec$[ebp+8], -1
	lea	ecx, DWORD PTR _szItemName$[ebp]
	call	DWORD PTR __imp_??1?$basic_string@DU?$char_traits@D@std@@V?$allocator@D@2@@std@@QAE@XZ
	mov	ecx, DWORD PTR __$EHRec$[ebp]
	mov	DWORD PTR fs:0, ecx
	pop	ecx
	pop	esi
	mov	ecx, DWORD PTR __$ArrayPad$[ebp]
	xor	ecx, ebp
	call	@__security_check_cookie@4
	mov	esp, ebp
	pop	ebp
	ret	4
_TEXT	ENDS
;	COMDAT text$x
text$x	SEGMENT
__unwindfunclet$?DoPlayerTurn@CvGameReligions@@QAEXAAVCvPlayer@@@Z$0:
	lea	ecx, DWORD PTR _strBuffer$223958[ebp]
	jmp	??1CvString@@QAE@XZ			; CvString::~CvString
__unwindfunclet$?DoPlayerTurn@CvGameReligions@@QAEXAAVCvPlayer@@@Z$1:
	lea	ecx, DWORD PTR _strSummary$223961[ebp]
	jmp	??1CvString@@QAE@XZ			; CvString::~CvString
__unwindfunclet$?DoPlayerTurn@CvGameReligions@@QAEXAAVCvPlayer@@@Z$2:
	lea	ecx, DWORD PTR _strBuffer$223970[ebp]
	jmp	??1CvString@@QAE@XZ			; CvString::~CvString
__unwindfunclet$?DoPlayerTurn@CvGameReligions@@QAEXAAVCvPlayer@@@Z$3:
	lea	ecx, DWORD PTR _strSummary$223973[ebp]
	jmp	??1CvString@@QAE@XZ			; CvString::~CvString
__unwindfunclet$?DoPlayerTurn@CvGameReligions@@QAEXAAVCvPlayer@@@Z$4:
	lea	ecx, DWORD PTR _strBuffer$223990[ebp]
	jmp	??1CvString@@QAE@XZ			; CvString::~CvString
__unwindfunclet$?DoPlayerTurn@CvGameReligions@@QAEXAAVCvPlayer@@@Z$5:
	lea	ecx, DWORD PTR _strSummary$223993[ebp]
	jmp	??1CvString@@QAE@XZ			; CvString::~CvString
__unwindfunclet$?DoPlayerTurn@CvGameReligions@@QAEXAAVCvPlayer@@@Z$6:
	lea	ecx, DWORD PTR _szItemName$[ebp]
	jmp	??1CvString@@QAE@XZ			; CvString::~CvString
__unwindfunclet$?DoPlayerTurn@CvGameReligions@@QAEXAAVCvPlayer@@@Z$7:
	lea	ecx, DWORD PTR $T231668[ebp]
	jmp	??1CvString@@QAE@XZ			; CvString::~CvString
__unwindfunclet$?DoPlayerTurn@CvGameReligions@@QAEXAAVCvPlayer@@@Z$8:
	lea	ecx, DWORD PTR $T231669[ebp]
	jmp	??1CvString@@QAE@XZ			; CvString::~CvString
__unwindfunclet$?DoPlayerTurn@CvGameReligions@@QAEXAAVCvPlayer@@@Z$9:
	lea	ecx, DWORD PTR _strBuffer$224022[ebp]
	jmp	??1CvString@@QAE@XZ			; CvString::~CvString
__unwindfunclet$?DoPlayerTurn@CvGameReligions@@QAEXAAVCvPlayer@@@Z$10:
	lea	ecx, DWORD PTR _strSummary$224033[ebp]
	jmp	??1CvString@@QAE@XZ			; CvString::~CvString
__unwindfunclet$?DoPlayerTurn@CvGameReligions@@QAEXAAVCvPlayer@@@Z$11:
	lea	ecx, DWORD PTR _strBuffer$224049[ebp]
	jmp	??1CvString@@QAE@XZ			; CvString::~CvString
__unwindfunclet$?DoPlayerTurn@CvGameReligions@@QAEXAAVCvPlayer@@@Z$12:
	lea	ecx, DWORD PTR _strSummary$224052[ebp]
	jmp	??1CvString@@QAE@XZ			; CvString::~CvString
__unwindfunclet$?DoPlayerTurn@CvGameReligions@@QAEXAAVCvPlayer@@@Z$14:
	lea	ecx, DWORD PTR _strBuffer$224058[ebp]
	jmp	??1CvString@@QAE@XZ			; CvString::~CvString
__unwindfunclet$?DoPlayerTurn@CvGameReligions@@QAEXAAVCvPlayer@@@Z$15:
	lea	ecx, DWORD PTR _strSummary$224067[ebp]
	jmp	??1CvString@@QAE@XZ			; CvString::~CvString
__ehhandler$?DoPlayerTurn@CvGameReligions@@QAEXAAVCvPlayer@@@Z:
	mov	edx, DWORD PTR [esp+8]
	lea	eax, DWORD PTR [edx+12]
	mov	ecx, DWORD PTR [edx-628]
	xor	ecx, eax
	call	@__security_check_cookie@4
	mov	ecx, DWORD PTR [edx-4]
	xor	ecx, eax
	call	@__security_check_cookie@4
	mov	eax, OFFSET __ehfuncinfo$?DoPlayerTurn@CvGameReligions@@QAEXAAVCvPlayer@@@Z
	jmp	___CxxFrameHandler3
text$x	ENDS
?DoPlayerTurn@CvGameReligions@@QAEXAAVCvPlayer@@@Z ENDP	; CvGameReligions::DoPlayerTurn
PUBLIC	__$ArrayPad$
EXTRN	__imp_??1String@Localization@@UAE@XZ:PROC
EXTRN	__imp_?assign@?$basic_string@DU?$char_traits@D@std@@V?$allocator@D@2@@std@@QAEAAV12@PBDI@Z:PROC
EXTRN	__imp_?toUTF8@String@Localization@@QAEPBDAAIH@Z:PROC
EXTRN	__imp_?Lookup@Localization@@YA?AVString@1@PBD@Z:PROC
;	COMDAT xdata$x
; File d:\sources\lekmod_git\checkout\lekmod_dll\cvgamecoredllutil\include\cvstring.h
xdata$x	SEGMENT
__unwindtable$?GetLocalizedText@@YA?AVCvString@@PBD@Z DD 0ffffffffH
	DD	FLAT:__unwindfunclet$?GetLocalizedText@@YA?AVCvString@@PBD@Z$2
	DD	00H
	DD	FLAT:__unwindfunclet$?GetLocalizedText@@YA?AVCvString@@PBD@Z$0
	DD	01H
	DD	FLAT:__unwindfunclet$?GetLocalizedText@@YA?AVCvString@@PBD@Z$1
__ehfuncinfo$?GetLocalizedText@@YA?AVCvString@@PBD@Z DD 019930522H
	DD	03H
	DD	FLAT:__unwindtable$?GetLocalizedText@@YA?AVCvString@@PBD@Z
	DD	2 DUP(00H)
	DD	2 DUP(00H)
	DD	00H
	DD	01H
; Function compile flags: /Odtp
; File d:\sources\lekmod_git\checkout\lekmod_dll\cvgamecoredll_expansion2\cvgamecoreutils.h
xdata$x	ENDS
;	COMDAT ?GetLocalizedText@@YA?AVCvString@@PBD@Z
_TEXT	SEGMENT
$T231890 = -140						; size = 4
_str$ = -136						; size = 28
__$ArrayPad$ = -108					; size = 4
_bytes$ = -104						; size = 4
_text$ = -100						; size = 80
_szComposedString$ = -16				; size = 4
__$EHRec$ = -12						; size = 12
___$ReturnUdt$ = 8					; size = 4
_szString$ = 12						; size = 4
?GetLocalizedText@@YA?AVCvString@@PBD@Z PROC		; GetLocalizedText, COMDAT

; 489  : {

	push	ebp
	mov	ebp, esp
	push	-1
	push	__ehhandler$?GetLocalizedText@@YA?AVCvString@@PBD@Z
	mov	eax, DWORD PTR fs:0
	push	eax
	sub	esp, 128				; 00000080H
	mov	eax, DWORD PTR ___security_cookie
	xor	eax, ebp
	mov	DWORD PTR __$ArrayPad$[ebp], eax
	push	eax
	lea	eax, DWORD PTR __$EHRec$[ebp]
	mov	DWORD PTR fs:0, eax
	mov	DWORD PTR $T231890[ebp], 0

; 490  : 	Localization::String text = Localization::Lookup(szString);

	mov	eax, DWORD PTR _szString$[ebp]
	push	eax
	lea	ecx, DWORD PTR _text$[ebp]
	push	ecx
	call	DWORD PTR __imp_?Lookup@Localization@@YA?AVString@1@PBD@Z
	add	esp, 8
	mov	DWORD PTR __$EHRec$[ebp+8], 1

; 491  : 
; 492  : 	size_t bytes = 0;

	mov	DWORD PTR _bytes$[ebp], 0

; 493  : 	const char* szComposedString = text.toUTF8(bytes);

	push	1
	lea	edx, DWORD PTR _bytes$[ebp]
	push	edx
	lea	ecx, DWORD PTR _text$[ebp]
	call	DWORD PTR __imp_?toUTF8@String@Localization@@QAEPBDAAIH@Z
	mov	DWORD PTR _szComposedString$[ebp], eax

; 494  : 	CvString str;

	lea	ecx, DWORD PTR _str$[ebp]
	call	DWORD PTR __imp_??0?$basic_string@DU?$char_traits@D@std@@V?$allocator@D@2@@std@@QAE@XZ
	mov	BYTE PTR __$EHRec$[ebp+8], 2

; 495  : 	str.assign(szComposedString, bytes);

	mov	eax, DWORD PTR _bytes$[ebp]
	push	eax
	mov	ecx, DWORD PTR _szComposedString$[ebp]
	push	ecx
	lea	ecx, DWORD PTR _str$[ebp]
	call	DWORD PTR __imp_?assign@?$basic_string@DU?$char_traits@D@std@@V?$allocator@D@2@@std@@QAEAAV12@PBDI@Z

; 496  : 	return str;

	lea	edx, DWORD PTR _str$[ebp]
	push	edx
	mov	ecx, DWORD PTR ___$ReturnUdt$[ebp]
	call	DWORD PTR __imp_??0?$basic_string@DU?$char_traits@D@std@@V?$allocator@D@2@@std@@QAE@ABV01@@Z
	mov	eax, DWORD PTR $T231890[ebp]
	or	eax, 1
	mov	DWORD PTR $T231890[ebp], eax
	mov	BYTE PTR __$EHRec$[ebp+8], 1
	lea	ecx, DWORD PTR _str$[ebp]
	call	DWORD PTR __imp_??1?$basic_string@DU?$char_traits@D@std@@V?$allocator@D@2@@std@@QAE@XZ
	mov	BYTE PTR __$EHRec$[ebp+8], 0
	lea	ecx, DWORD PTR _text$[ebp]
	call	DWORD PTR __imp_??1String@Localization@@UAE@XZ
	mov	eax, DWORD PTR ___$ReturnUdt$[ebp]

; 497  : }

	mov	ecx, DWORD PTR __$EHRec$[ebp]
	mov	DWORD PTR fs:0, ecx
	pop	ecx
	mov	ecx, DWORD PTR __$ArrayPad$[ebp]
	xor	ecx, ebp
	call	@__security_check_cookie@4
	mov	esp, ebp
	pop	ebp
	ret	0
_TEXT	ENDS
;	COMDAT text$x
text$x	SEGMENT
__unwindfunclet$?GetLocalizedText@@YA?AVCvString@@PBD@Z$0:
	lea	ecx, DWORD PTR _text$[ebp]
	jmp	DWORD PTR __imp_??1String@Localization@@UAE@XZ
__unwindfunclet$?GetLocalizedText@@YA?AVCvString@@PBD@Z$1:
	lea	ecx, DWORD PTR _str$[ebp]
	jmp	??1CvString@@QAE@XZ			; CvString::~CvString
__unwindfunclet$?GetLocalizedText@@YA?AVCvString@@PBD@Z$2:
	mov	eax, DWORD PTR $T231890[ebp]
	and	eax, 1
	je	$LN6@GetLocaliz
	and	DWORD PTR $T231890[ebp], -2		; fffffffeH
	mov	ecx, DWORD PTR ___$ReturnUdt$[ebp]
	jmp	??1CvString@@QAE@XZ			; CvString::~CvString
$LN6@GetLocaliz:
	ret	0
__ehhandler$?GetLocalizedText@@YA?AVCvString@@PBD@Z:
	mov	edx, DWORD PTR [esp+8]
	lea	eax, DWORD PTR [edx+12]
	mov	ecx, DWORD PTR [edx-132]
	xor	ecx, eax
	call	@__security_check_cookie@4
	mov	ecx, DWORD PTR [edx-96]
	xor	ecx, eax
	call	@__security_check_cookie@4
	mov	eax, OFFSET __ehfuncinfo$?GetLocalizedText@@YA?AVCvString@@PBD@Z
	jmp	___CxxFrameHandler3
text$x	ENDS
?GetLocalizedText@@YA?AVCvString@@PBD@Z ENDP		; GetLocalizedText
PUBLIC	??1?$_Vector_val@W4BeliefTypes@@V?$allocator@W4BeliefTypes@@@std@@@std@@QAE@XZ ; std::_Vector_val<enum BeliefTypes,std::allocator<enum BeliefTypes> >::~_Vector_val<enum BeliefTypes,std::allocator<enum BeliefTypes> >
PUBLIC	?_Tidy@?$vector@W4BeliefTypes@@V?$allocator@W4BeliefTypes@@@std@@@std@@IAEXXZ ; std::vector<enum BeliefTypes,std::allocator<enum BeliefTypes> >::_Tidy
PUBLIC	?GetAvailablePantheonBeliefs@CvGameReligions@@QAE?AV?$vector@W4BeliefTypes@@V?$allocator@W4BeliefTypes@@@std@@@std@@XZ ; CvGameReligions::GetAvailablePantheonBeliefs
PUBLIC	??_C@_0BH@IEICLOEM@PlayerCanFoundPantheon?$AA@	; `string'
PUBLIC	?GetNumPantheonsCreated@CvGameReligions@@QBEHXZ	; CvGameReligions::GetNumPantheonsCreated
PUBLIC	?HasCreatedReligion@CvGameReligions@@QBE_NW4PlayerTypes@@@Z ; CvGameReligions::HasCreatedReligion
PUBLIC	?HasCreatedPantheon@CvGameReligions@@QBE_NW4PlayerTypes@@@Z ; CvGameReligions::HasCreatedPantheon
EXTRN	??1CvLuaArgsHandle@@QAE@XZ:PROC			; CvLuaArgsHandle::~CvLuaArgsHandle
EXTRN	?CallTestAll@LuaSupport@@YA_NPAVICvEngineScriptSystem1@@PBDPAVICvEngineScriptSystemArgs1@@AA_N@Z:PROC ; LuaSupport::CallTestAll
EXTRN	??0CvLuaArgsHandle@@QAE@XZ:PROC			; CvLuaArgsHandle::CvLuaArgsHandle
EXTRN	?getMaxActiveReligions@CvWorldInfo@@QBEHXZ:PROC	; CvWorldInfo::getMaxActiveReligions
EXTRN	?getWorldInfo@CvMap@@QBEABVCvWorldInfo@@XZ:PROC	; CvMap::getWorldInfo
;	COMDAT ??_C@_0BH@IEICLOEM@PlayerCanFoundPantheon?$AA@
; File c:\program files (x86)\microsoft visual studio 9.0\vc\include\xutility
CONST	SEGMENT
??_C@_0BH@IEICLOEM@PlayerCanFoundPantheon?$AA@ DB 'PlayerCanFoundPantheon'
	DB	00H						; `string'
CONST	ENDS
;	COMDAT xdata$x
xdata$x	SEGMENT
__unwindtable$?CanCreatePantheon@CvGameReligions@@QAE?AW4FOUNDING_RESULT@1@W4PlayerTypes@@_N@Z DD 0ffffffffH
	DD	FLAT:__unwindfunclet$?CanCreatePantheon@CvGameReligions@@QAE?AW4FOUNDING_RESULT@1@W4PlayerTypes@@_N@Z$0
	DD	0ffffffffH
	DD	FLAT:__unwindfunclet$?CanCreatePantheon@CvGameReligions@@QAE?AW4FOUNDING_RESULT@1@W4PlayerTypes@@_N@Z$2
__ehfuncinfo$?CanCreatePantheon@CvGameReligions@@QAE?AW4FOUNDING_RESULT@1@W4PlayerTypes@@_N@Z DD 019930522H
	DD	02H
	DD	FLAT:__unwindtable$?CanCreatePantheon@CvGameReligions@@QAE?AW4FOUNDING_RESULT@1@W4PlayerTypes@@_N@Z
	DD	2 DUP(00H)
	DD	2 DUP(00H)
	DD	00H
	DD	01H
; Function compile flags: /Odtp
; File d:\sources\lekmod_git\checkout\lekmod_dll\cvgamecoredll_expansion2\cvreligionclasses.cpp
xdata$x	ENDS
;	COMDAT ?CanCreatePantheon@CvGameReligions@@QAE?AW4FOUNDING_RESULT@1@W4PlayerTypes@@_N@Z
_TEXT	SEGMENT
tv168 = -124						; size = 4
tv157 = -120						; size = 4
_this$ = -116						; size = 4
$T231948 = -80						; size = 4
$T231944 = -76						; size = 4
$T231937 = -72						; size = 4
$T231933 = -68						; size = 4
$T231923 = -64						; size = 4
$T231914 = -60						; size = 16
$T231913 = -41						; size = 1
$T231912 = -40						; size = 4
_bResult$224091 = -33					; size = 1
_args$224090 = -32					; size = 4
_iFaith$ = -28						; size = 4
_pkScriptSystem$ = -24					; size = 4
_kPlayer$ = -20						; size = 4
_it$ = -16						; size = 4
__$EHRec$ = -12						; size = 12
_ePlayer$ = 8						; size = 4
_bCheckFaithTotal$ = 12					; size = 1
?CanCreatePantheon@CvGameReligions@@QAE?AW4FOUNDING_RESULT@1@W4PlayerTypes@@_N@Z PROC ; CvGameReligions::CanCreatePantheon, COMDAT
; _this$ = ecx

; 599  : {

	push	ebp
	mov	ebp, esp
	push	-1
	push	__ehhandler$?CanCreatePantheon@CvGameReligions@@QAE?AW4FOUNDING_RESULT@1@W4PlayerTypes@@_N@Z
	mov	eax, DWORD PTR fs:0
	push	eax
	sub	esp, 112				; 00000070H
	push	esi
	mov	eax, DWORD PTR ___security_cookie
	xor	eax, ebp
	push	eax
	lea	eax, DWORD PTR __$EHRec$[ebp]
	mov	DWORD PTR fs:0, eax
	mov	DWORD PTR _this$[ebp], ecx

; 600  : 	if(ePlayer == NO_PLAYER)

	cmp	DWORD PTR _ePlayer$[ebp], -1
	jne	SHORT $LN19@CanCreateP

; 601  : 		return FOUNDING_INVALID_PLAYER;

	mov	eax, 5
	jmp	$LN15@CanCreateP

; 602  : 
; 603  : 	CvPlayer& kPlayer = GET_PLAYER(ePlayer);

$LN19@CanCreateP:
	mov	eax, DWORD PTR _ePlayer$[ebp]
	imul	eax, 63236				; 0000f704H
	add	eax, DWORD PTR ?m_aPlayers@CvPlayerAI@@1PAV1@A ; CvPlayerAI::m_aPlayers
	mov	DWORD PTR _kPlayer$[ebp], eax

; 604  : 	const int iFaith = kPlayer.GetFaith();

	mov	ecx, DWORD PTR _kPlayer$[ebp]
	call	?GetFaith@CvPlayer@@QBEHXZ		; CvPlayer::GetFaith
	mov	DWORD PTR _iFaith$[ebp], eax

; 605  : 
; 606  : 	if(kPlayer.isMinorCiv())

	mov	ecx, DWORD PTR _kPlayer$[ebp]
	call	?isMinorCiv@CvPlayer@@QBE_NXZ		; CvPlayer::isMinorCiv
	movzx	ecx, al
	test	ecx, ecx
	je	SHORT $LN13@CanCreateP

; 607  : 	{
; 608  : 		return FOUNDING_INVALID_PLAYER;

	mov	eax, 5
	jmp	$LN15@CanCreateP
$LN13@CanCreateP:

; 609  : 	}
; 610  : 
; 611  : 	if(HasCreatedPantheon(ePlayer) || HasCreatedReligion(ePlayer))

	mov	edx, DWORD PTR _ePlayer$[ebp]
	push	edx
	mov	ecx, DWORD PTR _this$[ebp]
	call	?HasCreatedPantheon@CvGameReligions@@QBE_NW4PlayerTypes@@@Z ; CvGameReligions::HasCreatedPantheon
	movzx	eax, al
	test	eax, eax
	jne	SHORT $LN11@CanCreateP
	mov	ecx, DWORD PTR _ePlayer$[ebp]
	push	ecx
	mov	ecx, DWORD PTR _this$[ebp]
	call	?HasCreatedReligion@CvGameReligions@@QBE_NW4PlayerTypes@@@Z ; CvGameReligions::HasCreatedReligion
	movzx	edx, al
	test	edx, edx
	je	SHORT $LN12@CanCreateP
$LN11@CanCreateP:

; 612  : 	{
; 613  : 		return FOUNDING_PLAYER_ALREADY_CREATED_PANTHEON;

	mov	eax, 7
	jmp	$LN15@CanCreateP
$LN12@CanCreateP:

; 614  : 	}
; 615  : 
; 616  : 	if(bCheckFaithTotal && iFaith < GetMinimumFaithNextPantheon())

	movzx	eax, BYTE PTR _bCheckFaithTotal$[ebp]
	test	eax, eax
	je	SHORT $LN10@CanCreateP
	mov	ecx, DWORD PTR _this$[ebp]
	mov	edx, DWORD PTR [ecx+5264]
	mov	DWORD PTR $T231923[ebp], edx
	mov	eax, DWORD PTR _iFaith$[ebp]
	cmp	eax, DWORD PTR $T231923[ebp]
	jge	SHORT $LN10@CanCreateP

; 617  : 	{
; 618  : 		return FOUNDING_NOT_ENOUGH_FAITH;

	mov	eax, 3
	jmp	$LN15@CanCreateP
$LN10@CanCreateP:

; 619  : 	}
; 620  : 
; 621  : 	// Has a religion been enhanced yet (and total number of religions/pantheons is equal to number of religions allowed)?
; 622  : #ifdef AUI_ITERATOR_POSTFIX_INCREMENT_OPTIMIZATIONS
; 623  : 	for (ReligionList::const_iterator it = m_CurrentReligions.begin(); it != m_CurrentReligions.end(); ++it)
; 624  : #else
; 625  : 	ReligionList::const_iterator it;
; 626  : 	for(it = m_CurrentReligions.begin(); it != m_CurrentReligions.end(); it++)

	mov	ecx, DWORD PTR _this$[ebp]
	mov	edx, DWORD PTR [ecx]
	mov	DWORD PTR _it$[ebp], edx
	jmp	SHORT $LN25@CanCreateP
$LN8@CanCreateP:
	mov	eax, DWORD PTR _it$[ebp]
	add	eax, 328				; 00000148H
	mov	DWORD PTR _it$[ebp], eax
$LN25@CanCreateP:
	mov	ecx, DWORD PTR _this$[ebp]
	mov	edx, DWORD PTR [ecx+4]
	imul	edx, 328				; 00000148H
	mov	eax, DWORD PTR _this$[ebp]
	add	edx, DWORD PTR [eax]
	cmp	DWORD PTR _it$[ebp], edx
	je	SHORT $LN7@CanCreateP

; 627  : #endif
; 628  : 	{
; 629  : 		if(it->m_bEnhanced)

	mov	ecx, DWORD PTR _it$[ebp]
	movzx	edx, BYTE PTR [ecx+21]
	test	edx, edx
	je	SHORT $LN6@CanCreateP

; 630  : 		{
; 631  : 			if (GetNumPantheonsCreated() >= GC.getMap().getWorldInfo().getMaxActiveReligions())

	mov	eax, DWORD PTR ?gGlobals@@3VCvGlobals@@A+52
	mov	DWORD PTR $T231933[ebp], eax
	mov	ecx, DWORD PTR _this$[ebp]
	call	?GetNumPantheonsCreated@CvGameReligions@@QBEHXZ ; CvGameReligions::GetNumPantheonsCreated
	mov	esi, eax
	mov	ecx, DWORD PTR $T231933[ebp]
	call	?getWorldInfo@CvMap@@QBEABVCvWorldInfo@@XZ ; CvMap::getWorldInfo
	mov	ecx, eax
	call	?getMaxActiveReligions@CvWorldInfo@@QBEHXZ ; CvWorldInfo::getMaxActiveReligions
	cmp	esi, eax
	jl	SHORT $LN6@CanCreateP

; 632  : 			{
; 633  : 				return FOUNDING_RELIGION_ENHANCED;

	mov	eax, 9
	jmp	$LN15@CanCreateP
$LN6@CanCreateP:

; 634  : 			}
; 635  : 		}
; 636  : 	}

	jmp	SHORT $LN8@CanCreateP
$LN7@CanCreateP:

; 637  : 
; 638  : 	ICvEngineScriptSystem1* pkScriptSystem = gDLL->GetScriptSystem();

	mov	ecx, DWORD PTR $T231937[ebp]
	mov	DWORD PTR tv157[ebp], ecx
	mov	edx, DWORD PTR ?gGlobals@@3VCvGlobals@@A+8564
	mov	DWORD PTR tv157[ebp], edx
	mov	eax, DWORD PTR tv157[ebp]
	mov	edx, DWORD PTR [eax]
	mov	ecx, DWORD PTR tv157[ebp]
	mov	eax, DWORD PTR [edx+12]
	call	eax
	mov	DWORD PTR _pkScriptSystem$[ebp], eax

; 639  : 	if(pkScriptSystem) 

	cmp	DWORD PTR _pkScriptSystem$[ebp], 0
	je	$LN4@CanCreateP

; 640  : 	{
; 641  : 		CvLuaArgsHandle args;

	lea	ecx, DWORD PTR _args$224090[ebp]
	call	??0CvLuaArgsHandle@@QAE@XZ		; CvLuaArgsHandle::CvLuaArgsHandle
	mov	DWORD PTR __$EHRec$[ebp+8], 0

; 642  : 		args->Push(ePlayer);

	mov	ecx, DWORD PTR _args$224090[ebp]
	mov	DWORD PTR tv168[ebp], ecx
	mov	edx, DWORD PTR _ePlayer$[ebp]
	push	edx
	mov	eax, DWORD PTR tv168[ebp]
	mov	edx, DWORD PTR [eax]
	mov	ecx, DWORD PTR tv168[ebp]
	mov	eax, DWORD PTR [edx+8]
	call	eax

; 643  : 
; 644  : 		// Attempt to execute the game events.
; 645  : 		// Will return false if there are no registered listeners.
; 646  : 		bool bResult = false;

	mov	BYTE PTR _bResult$224091[ebp], 0

; 647  : 		if (LuaSupport::CallTestAll(pkScriptSystem, "PlayerCanFoundPantheon", args.get(), bResult))

	mov	ecx, DWORD PTR _args$224090[ebp]
	mov	DWORD PTR $T231944[ebp], ecx
	lea	edx, DWORD PTR _bResult$224091[ebp]
	push	edx
	mov	eax, DWORD PTR $T231944[ebp]
	push	eax
	push	OFFSET ??_C@_0BH@IEICLOEM@PlayerCanFoundPantheon?$AA@
	mov	ecx, DWORD PTR _pkScriptSystem$[ebp]
	push	ecx
	call	?CallTestAll@LuaSupport@@YA_NPAVICvEngineScriptSystem1@@PBDPAVICvEngineScriptSystemArgs1@@AA_N@Z ; LuaSupport::CallTestAll
	add	esp, 16					; 00000010H
	movzx	edx, al
	test	edx, edx
	je	SHORT $LN3@CanCreateP

; 648  : 		{
; 649  : 			if (bResult == false) 

	movzx	eax, BYTE PTR _bResult$224091[ebp]
	test	eax, eax
	jne	SHORT $LN3@CanCreateP

; 650  : 			{
; 651  : 				return FOUNDING_INVALID_PLAYER;

	mov	DWORD PTR $T231912[ebp], 5
	mov	DWORD PTR __$EHRec$[ebp+8], -1
	lea	ecx, DWORD PTR _args$224090[ebp]
	call	??1CvLuaArgsHandle@@QAE@XZ		; CvLuaArgsHandle::~CvLuaArgsHandle
	mov	eax, DWORD PTR $T231912[ebp]
	jmp	SHORT $LN15@CanCreateP
$LN3@CanCreateP:

; 652  : 			}
; 653  : 		}
; 654  : 	}

	mov	DWORD PTR __$EHRec$[ebp+8], -1
	lea	ecx, DWORD PTR _args$224090[ebp]
	call	??1CvLuaArgsHandle@@QAE@XZ		; CvLuaArgsHandle::~CvLuaArgsHandle
$LN4@CanCreateP:

; 655  : 
; 656  : #ifdef AUI_RELIGION_FIX_NO_BELIEFS_AVAILABLE_CHECK_FOR_NON_PANTHEON_MOVED
; 657  : 	if (!IsAnyAvailablePantheonBeliefs())
; 658  : #else
; 659  : 	if (GetAvailablePantheonBeliefs().size() == 0)

	lea	ecx, DWORD PTR $T231914[ebp]
	push	ecx
	mov	ecx, DWORD PTR _this$[ebp]
	call	?GetAvailablePantheonBeliefs@CvGameReligions@@QAE?AV?$vector@W4BeliefTypes@@V?$allocator@W4BeliefTypes@@@std@@@std@@XZ ; CvGameReligions::GetAvailablePantheonBeliefs
	mov	DWORD PTR $T231948[ebp], eax
	mov	edx, DWORD PTR $T231948[ebp]
	mov	eax, DWORD PTR $T231948[ebp]
	mov	ecx, DWORD PTR [edx+8]
	sub	ecx, DWORD PTR [eax+4]
	sar	ecx, 2
	neg	ecx
	sbb	ecx, ecx
	add	ecx, 1
	mov	BYTE PTR $T231913[ebp], cl
	mov	DWORD PTR __$EHRec$[ebp+8], 1
	lea	ecx, DWORD PTR $T231914[ebp]
	call	?_Tidy@?$vector@W4BeliefTypes@@V?$allocator@W4BeliefTypes@@@std@@@std@@IAEXXZ ; std::vector<enum BeliefTypes,std::allocator<enum BeliefTypes> >::_Tidy
	mov	DWORD PTR __$EHRec$[ebp+8], -1
	movzx	edx, BYTE PTR $T231913[ebp]
	test	edx, edx
	je	SHORT $LN1@CanCreateP

; 660  : #endif
; 661  : 		return FOUNDING_NO_BELIEFS_AVAILABLE;

	mov	eax, 10					; 0000000aH
	jmp	SHORT $LN15@CanCreateP
$LN1@CanCreateP:

; 662  : 
; 663  : 	return FOUNDING_OK;

	xor	eax, eax
$LN15@CanCreateP:

; 664  : }

	mov	ecx, DWORD PTR __$EHRec$[ebp]
	mov	DWORD PTR fs:0, ecx
	pop	ecx
	pop	esi
	mov	esp, ebp
	pop	ebp
	ret	8
_TEXT	ENDS
;	COMDAT text$x
text$x	SEGMENT
__unwindfunclet$?CanCreatePantheon@CvGameReligions@@QAE?AW4FOUNDING_RESULT@1@W4PlayerTypes@@_N@Z$0:
	lea	ecx, DWORD PTR _args$224090[ebp]
	jmp	??1CvLuaArgsHandle@@QAE@XZ		; CvLuaArgsHandle::~CvLuaArgsHandle
__unwindfunclet$?CanCreatePantheon@CvGameReligions@@QAE?AW4FOUNDING_RESULT@1@W4PlayerTypes@@_N@Z$2:
	lea	ecx, DWORD PTR $T231914[ebp]
	jmp	??1?$_Vector_val@W4BeliefTypes@@V?$allocator@W4BeliefTypes@@@std@@@std@@QAE@XZ
__ehhandler$?CanCreatePantheon@CvGameReligions@@QAE?AW4FOUNDING_RESULT@1@W4PlayerTypes@@_N@Z:
	mov	edx, DWORD PTR [esp+8]
	lea	eax, DWORD PTR [edx+12]
	mov	ecx, DWORD PTR [edx-120]
	xor	ecx, eax
	call	@__security_check_cookie@4
	mov	eax, OFFSET __ehfuncinfo$?CanCreatePantheon@CvGameReligions@@QAE?AW4FOUNDING_RESULT@1@W4PlayerTypes@@_N@Z
	jmp	___CxxFrameHandler3
text$x	ENDS
?CanCreatePantheon@CvGameReligions@@QAE?AW4FOUNDING_RESULT@1@W4PlayerTypes@@_N@Z ENDP ; CvGameReligions::CanCreatePantheon
PUBLIC	?IsPreferredByCivInGame@CvGameReligions@@AAE_NW4ReligionTypes@@@Z ; CvGameReligions::IsPreferredByCivInGame
PUBLIC	??_C@_0BD@JFJEDBCO@GetReligionToFound?$AA@	; `string'
PUBLIC	?HasBeenFounded@CvGameReligions@@AAE_NW4ReligionTypes@@@Z ; CvGameReligions::HasBeenFounded
PUBLIC	?GetReligionToFound@CvGameReligions@@QAE?AW4ReligionTypes@@W4PlayerTypes@@@Z ; CvGameReligions::GetReligionToFound
EXTRN	?getNumReligionInfos@CvGlobals@@QAEHXZ:PROC	; CvGlobals::getNumReligionInfos
EXTRN	?CallAccumulator@LuaSupport@@YA_NPAVICvEngineScriptSystem1@@PBDPAVICvEngineScriptSystemArgs1@@AAH@Z:PROC ; LuaSupport::CallAccumulator
EXTRN	?GetReligion@CvCivilizationInfo@@QBE?AW4ReligionTypes@@XZ:PROC ; CvCivilizationInfo::GetReligion
EXTRN	?getCivilizationInfo@CvPlayer@@QBEAAVCvCivilizationInfo@@XZ:PROC ; CvPlayer::getCivilizationInfo
;	COMDAT ??_C@_0BD@JFJEDBCO@GetReligionToFound?$AA@
; File d:\sources\lekmod_git\checkout\lekmod_dll\cvgamecoredll_expansion2\cvinfos.h
CONST	SEGMENT
??_C@_0BD@JFJEDBCO@GetReligionToFound?$AA@ DB 'GetReligionToFound', 00H ; `string'
CONST	ENDS
;	COMDAT xdata$x
xdata$x	SEGMENT
__unwindtable$?GetReligionToFound@CvGameReligions@@QAE?AW4ReligionTypes@@W4PlayerTypes@@@Z DD 0ffffffffH
	DD	FLAT:__unwindfunclet$?GetReligionToFound@CvGameReligions@@QAE?AW4ReligionTypes@@W4PlayerTypes@@@Z$0
__ehfuncinfo$?GetReligionToFound@CvGameReligions@@QAE?AW4ReligionTypes@@W4PlayerTypes@@@Z DD 019930522H
	DD	01H
	DD	FLAT:__unwindtable$?GetReligionToFound@CvGameReligions@@QAE?AW4ReligionTypes@@W4PlayerTypes@@@Z
	DD	2 DUP(00H)
	DD	2 DUP(00H)
	DD	00H
	DD	01H
; Function compile flags: /Odtp
; File d:\sources\lekmod_git\checkout\lekmod_dll\cvgamecoredll_expansion2\cvreligionclasses.cpp
xdata$x	ENDS
;	COMDAT ?GetReligionToFound@CvGameReligions@@QAE?AW4ReligionTypes@@W4PlayerTypes@@@Z
_TEXT	SEGMENT
tv138 = -104						; size = 4
tv131 = -100						; size = 4
tv92 = -96						; size = 4
tv81 = -92						; size = 4
_this$ = -88						; size = 4
$T232079 = -84						; size = 4
$T232075 = -80						; size = 4
$T232071 = -76						; size = 4
$T232067 = -72						; size = 4
$T232063 = -68						; size = 4
$T232050 = -64						; size = 4
$T232046 = -60						; size = 4
_eReligion$224426 = -56					; size = 4
_pEntry$224428 = -52					; size = 4
_iI$224422 = -48					; size = 4
_eReligion$224414 = -44					; size = 4
_pEntry$224416 = -40					; size = 4
_iI$224410 = -36					; size = 4
_pEntry$224408 = -32					; size = 4
_iValue$224402 = -28					; size = 4
_args$224401 = -24					; size = 4
_pkScriptSystem$ = -20					; size = 4
_eCivReligion$ = -16					; size = 4
__$EHRec$ = -12						; size = 12
_ePlayer$ = 8						; size = 4
?GetReligionToFound@CvGameReligions@@QAE?AW4ReligionTypes@@W4PlayerTypes@@@Z PROC ; CvGameReligions::GetReligionToFound, COMDAT
; _this$ = ecx

; 668  : {

	push	ebp
	mov	ebp, esp
	push	-1
	push	__ehhandler$?GetReligionToFound@CvGameReligions@@QAE?AW4ReligionTypes@@W4PlayerTypes@@@Z
	mov	eax, DWORD PTR fs:0
	push	eax
	sub	esp, 92					; 0000005cH
	mov	eax, DWORD PTR ___security_cookie
	xor	eax, ebp
	push	eax
	lea	eax, DWORD PTR __$EHRec$[ebp]
	mov	DWORD PTR fs:0, eax
	mov	DWORD PTR _this$[ebp], ecx

; 669  : 	ReligionTypes eCivReligion;
; 670  : 	eCivReligion = GET_PLAYER(ePlayer).getCivilizationInfo().GetReligion();

	mov	eax, DWORD PTR _ePlayer$[ebp]
	imul	eax, 63236				; 0000f704H
	add	eax, DWORD PTR ?m_aPlayers@CvPlayerAI@@1PAV1@A ; CvPlayerAI::m_aPlayers
	mov	DWORD PTR $T232046[ebp], eax
	mov	ecx, DWORD PTR $T232046[ebp]
	call	?getCivilizationInfo@CvPlayer@@QBEAAVCvCivilizationInfo@@XZ ; CvPlayer::getCivilizationInfo
	mov	ecx, eax
	call	?GetReligion@CvCivilizationInfo@@QBE?AW4ReligionTypes@@XZ ; CvCivilizationInfo::GetReligion
	mov	DWORD PTR _eCivReligion$[ebp], eax

; 671  : 
; 672  : 	ICvEngineScriptSystem1* pkScriptSystem = gDLL->GetScriptSystem();

	mov	ecx, DWORD PTR $T232050[ebp]
	mov	DWORD PTR tv81[ebp], ecx
	mov	edx, DWORD PTR ?gGlobals@@3VCvGlobals@@A+8564
	mov	DWORD PTR tv81[ebp], edx
	mov	eax, DWORD PTR tv81[ebp]
	mov	edx, DWORD PTR [eax]
	mov	ecx, DWORD PTR tv81[ebp]
	mov	eax, DWORD PTR [edx+12]
	call	eax
	mov	DWORD PTR _pkScriptSystem$[ebp], eax

; 673  : 	if(pkScriptSystem) 

	cmp	DWORD PTR _pkScriptSystem$[ebp], 0
	je	$LN18@GetReligio

; 674  : 	{
; 675  : 		CvLuaArgsHandle args;

	lea	ecx, DWORD PTR _args$224401[ebp]
	call	??0CvLuaArgsHandle@@QAE@XZ		; CvLuaArgsHandle::CvLuaArgsHandle
	mov	DWORD PTR __$EHRec$[ebp+8], 0

; 676  : 		args->Push(ePlayer);

	mov	ecx, DWORD PTR _args$224401[ebp]
	mov	DWORD PTR tv92[ebp], ecx
	mov	edx, DWORD PTR _ePlayer$[ebp]
	push	edx
	mov	eax, DWORD PTR tv92[ebp]
	mov	edx, DWORD PTR [eax]
	mov	ecx, DWORD PTR tv92[ebp]
	mov	eax, DWORD PTR [edx+8]
	call	eax

; 677  : 		args->Push(eCivReligion);

	mov	ecx, DWORD PTR _args$224401[ebp]
	mov	DWORD PTR tv131[ebp], ecx
	mov	edx, DWORD PTR _eCivReligion$[ebp]
	push	edx
	mov	eax, DWORD PTR tv131[ebp]
	mov	edx, DWORD PTR [eax]
	mov	ecx, DWORD PTR tv131[ebp]
	mov	eax, DWORD PTR [edx+8]
	call	eax

; 678  : 		args->Push(HasBeenFounded(eCivReligion));

	mov	ecx, DWORD PTR _args$224401[ebp]
	mov	DWORD PTR tv138[ebp], ecx
	mov	edx, DWORD PTR _eCivReligion$[ebp]
	push	edx
	mov	ecx, DWORD PTR _this$[ebp]
	call	?HasBeenFounded@CvGameReligions@@AAE_NW4ReligionTypes@@@Z ; CvGameReligions::HasBeenFounded
	movzx	eax, al
	push	eax
	mov	ecx, DWORD PTR tv138[ebp]
	mov	edx, DWORD PTR [ecx]
	mov	ecx, DWORD PTR tv138[ebp]
	mov	eax, DWORD PTR [edx+16]
	call	eax

; 679  : 
; 680  : 		int iValue = 0;

	mov	DWORD PTR _iValue$224402[ebp], 0

; 681  : 		if (LuaSupport::CallAccumulator(pkScriptSystem, "GetReligionToFound", args.get(), iValue)) 

	mov	ecx, DWORD PTR _args$224401[ebp]
	mov	DWORD PTR $T232063[ebp], ecx
	lea	edx, DWORD PTR _iValue$224402[ebp]
	push	edx
	mov	eax, DWORD PTR $T232063[ebp]
	push	eax
	push	OFFSET ??_C@_0BD@JFJEDBCO@GetReligionToFound?$AA@
	mov	ecx, DWORD PTR _pkScriptSystem$[ebp]
	push	ecx
	call	?CallAccumulator@LuaSupport@@YA_NPAVICvEngineScriptSystem1@@PBDPAVICvEngineScriptSystemArgs1@@AAH@Z ; LuaSupport::CallAccumulator
	add	esp, 16					; 00000010H
	movzx	edx, al
	test	edx, edx
	je	SHORT $LN17@GetReligio

; 682  : 		{
; 683  : #ifdef AUI_WARNING_FIXES
; 684  : 			if (uint(iValue) < GC.getNumReligionInfos() && iValue != RELIGION_PANTHEON)
; 685  : #else
; 686  : 			if (iValue >= 0 && iValue < GC.getNumReligionInfos() && iValue != RELIGION_PANTHEON)

	cmp	DWORD PTR _iValue$224402[ebp], 0
	jl	SHORT $LN17@GetReligio
	mov	ecx, OFFSET ?gGlobals@@3VCvGlobals@@A	; gGlobals
	call	?getNumReligionInfos@CvGlobals@@QAEHXZ	; CvGlobals::getNumReligionInfos
	cmp	DWORD PTR _iValue$224402[ebp], eax
	jge	SHORT $LN17@GetReligio
	cmp	DWORD PTR _iValue$224402[ebp], 0
	je	SHORT $LN17@GetReligio

; 687  : #endif
; 688  : 			{
; 689  : 				eCivReligion = (ReligionTypes)iValue;

	mov	eax, DWORD PTR _iValue$224402[ebp]
	mov	DWORD PTR _eCivReligion$[ebp], eax
$LN17@GetReligio:

; 690  : 			}
; 691  : 		}
; 692  : 	}

	mov	DWORD PTR __$EHRec$[ebp+8], -1
	lea	ecx, DWORD PTR _args$224401[ebp]
	call	??1CvLuaArgsHandle@@QAE@XZ		; CvLuaArgsHandle::~CvLuaArgsHandle
$LN18@GetReligio:

; 693  : 
; 694  : 	if(!HasBeenFounded(eCivReligion))

	mov	ecx, DWORD PTR _eCivReligion$[ebp]
	push	ecx
	mov	ecx, DWORD PTR _this$[ebp]
	call	?HasBeenFounded@CvGameReligions@@AAE_NW4ReligionTypes@@@Z ; CvGameReligions::HasBeenFounded
	movzx	edx, al
	test	edx, edx
	jne	SHORT $LN15@GetReligio

; 695  : 	{
; 696  : 		CvReligionEntry* pEntry = GC.getReligionInfo(eCivReligion);

	mov	eax, DWORD PTR _eCivReligion$[ebp]
	push	eax
	mov	ecx, OFFSET ?gGlobals@@3VCvGlobals@@A	; gGlobals
	call	?getReligionInfo@CvGlobals@@QAEPAVCvReligionEntry@@W4ReligionTypes@@@Z ; CvGlobals::getReligionInfo
	mov	DWORD PTR _pEntry$224408[ebp], eax

; 697  : 		if(pEntry)

	cmp	DWORD PTR _pEntry$224408[ebp], 0
	je	SHORT $LN15@GetReligio

; 698  : 		{
; 699  : 			return eCivReligion;

	mov	eax, DWORD PTR _eCivReligion$[ebp]
	jmp	$LN19@GetReligio
$LN15@GetReligio:

; 700  : 		}
; 701  : 	}
; 702  : 
; 703  : 	// Need to "borrow" from another civ.  Loop through all religions looking for one that is eligible
; 704  : #ifdef AUI_WARNING_FIXES
; 705  : 	for (uint iI = 0; iI < GC.getNumReligionInfos(); iI++)
; 706  : #else
; 707  : 	for(int iI = 0; iI < GC.getNumReligionInfos(); iI++)

	mov	DWORD PTR _iI$224410[ebp], 0
	jmp	SHORT $LN13@GetReligio
$LN12@GetReligio:
	mov	ecx, DWORD PTR _iI$224410[ebp]
	add	ecx, 1
	mov	DWORD PTR _iI$224410[ebp], ecx
$LN13@GetReligio:
	mov	ecx, OFFSET ?gGlobals@@3VCvGlobals@@A	; gGlobals
	call	?getNumReligionInfos@CvGlobals@@QAEHXZ	; CvGlobals::getNumReligionInfos
	cmp	DWORD PTR _iI$224410[ebp], eax
	jge	SHORT $LN11@GetReligio

; 708  : #endif
; 709  : 	{
; 710  : 		ReligionTypes eReligion = (ReligionTypes)iI;

	mov	edx, DWORD PTR _iI$224410[ebp]
	mov	DWORD PTR _eReligion$224414[ebp], edx

; 711  : 		CvReligionEntry* pEntry = GC.getReligionInfo(eReligion);

	mov	eax, DWORD PTR _eReligion$224414[ebp]
	push	eax
	mov	ecx, OFFSET ?gGlobals@@3VCvGlobals@@A	; gGlobals
	call	?getReligionInfo@CvGlobals@@QAEPAVCvReligionEntry@@W4ReligionTypes@@@Z ; CvGlobals::getReligionInfo
	mov	DWORD PTR _pEntry$224416[ebp], eax

; 712  : 		if(!pEntry)

	cmp	DWORD PTR _pEntry$224416[ebp], 0
	jne	SHORT $LN10@GetReligio

; 713  : 		{
; 714  : 			continue;

	jmp	SHORT $LN12@GetReligio
$LN10@GetReligio:

; 715  : 		}
; 716  : 
; 717  : 		if(pEntry->GetID() == RELIGION_PANTHEON)

	mov	ecx, DWORD PTR _pEntry$224416[ebp]
	mov	edx, DWORD PTR [ecx+4]
	mov	DWORD PTR $T232067[ebp], edx
	cmp	DWORD PTR $T232067[ebp], 0
	jne	SHORT $LN9@GetReligio

; 718  : 		{
; 719  : 			continue;

	jmp	SHORT $LN12@GetReligio
$LN9@GetReligio:

; 720  : 		}
; 721  : 
; 722  : 		if(HasBeenFounded((ReligionTypes)pEntry->GetID()))

	mov	eax, DWORD PTR _pEntry$224416[ebp]
	mov	ecx, DWORD PTR [eax+4]
	mov	DWORD PTR $T232071[ebp], ecx
	mov	edx, DWORD PTR $T232071[ebp]
	push	edx
	mov	ecx, DWORD PTR _this$[ebp]
	call	?HasBeenFounded@CvGameReligions@@AAE_NW4ReligionTypes@@@Z ; CvGameReligions::HasBeenFounded
	movzx	eax, al
	test	eax, eax
	je	SHORT $LN8@GetReligio

; 723  : 		{
; 724  : 			continue;

	jmp	SHORT $LN12@GetReligio
$LN8@GetReligio:

; 725  : 		}
; 726  : 
; 727  : 		if(IsPreferredByCivInGame(eReligion))

	mov	ecx, DWORD PTR _eReligion$224414[ebp]
	push	ecx
	mov	ecx, DWORD PTR _this$[ebp]
	call	?IsPreferredByCivInGame@CvGameReligions@@AAE_NW4ReligionTypes@@@Z ; CvGameReligions::IsPreferredByCivInGame
	movzx	edx, al
	test	edx, edx
	je	SHORT $LN7@GetReligio

; 728  : 		{
; 729  : 			continue;

	jmp	SHORT $LN12@GetReligio
$LN7@GetReligio:

; 730  : 		}
; 731  : 
; 732  : 		return (eReligion);

	mov	eax, DWORD PTR _eReligion$224414[ebp]
	jmp	SHORT $LN19@GetReligio

; 733  : 	}

	jmp	$LN12@GetReligio
$LN11@GetReligio:

; 734  : 
; 735  : 	// Will have to use a religion that someone else prefers
; 736  : #ifdef AUI_WARNING_FIXES
; 737  : 	for (uint iI = 0; iI < GC.getNumReligionInfos(); iI++)
; 738  : #else
; 739  : 	for(int iI = 0; iI < GC.getNumReligionInfos(); iI++)

	mov	DWORD PTR _iI$224422[ebp], 0
	jmp	SHORT $LN6@GetReligio
$LN5@GetReligio:
	mov	eax, DWORD PTR _iI$224422[ebp]
	add	eax, 1
	mov	DWORD PTR _iI$224422[ebp], eax
$LN6@GetReligio:
	mov	ecx, OFFSET ?gGlobals@@3VCvGlobals@@A	; gGlobals
	call	?getNumReligionInfos@CvGlobals@@QAEHXZ	; CvGlobals::getNumReligionInfos
	cmp	DWORD PTR _iI$224422[ebp], eax
	jge	SHORT $LN4@GetReligio

; 740  : #endif
; 741  : 	{
; 742  : 		ReligionTypes eReligion = (ReligionTypes)iI;

	mov	ecx, DWORD PTR _iI$224422[ebp]
	mov	DWORD PTR _eReligion$224426[ebp], ecx

; 743  : 		CvReligionEntry* pEntry = GC.getReligionInfo(eReligion);

	mov	edx, DWORD PTR _eReligion$224426[ebp]
	push	edx
	mov	ecx, OFFSET ?gGlobals@@3VCvGlobals@@A	; gGlobals
	call	?getReligionInfo@CvGlobals@@QAEPAVCvReligionEntry@@W4ReligionTypes@@@Z ; CvGlobals::getReligionInfo
	mov	DWORD PTR _pEntry$224428[ebp], eax

; 744  : 		if(!pEntry)

	cmp	DWORD PTR _pEntry$224428[ebp], 0
	jne	SHORT $LN3@GetReligio

; 745  : 		{
; 746  : 			continue;

	jmp	SHORT $LN5@GetReligio
$LN3@GetReligio:

; 747  : 		}
; 748  : 
; 749  : 		if(pEntry->GetID() == RELIGION_PANTHEON)

	mov	eax, DWORD PTR _pEntry$224428[ebp]
	mov	ecx, DWORD PTR [eax+4]
	mov	DWORD PTR $T232075[ebp], ecx
	cmp	DWORD PTR $T232075[ebp], 0
	jne	SHORT $LN2@GetReligio

; 750  : 		{
; 751  : 			continue;

	jmp	SHORT $LN5@GetReligio
$LN2@GetReligio:

; 752  : 		}
; 753  : 
; 754  : 		if(HasBeenFounded((ReligionTypes)pEntry->GetID()))

	mov	edx, DWORD PTR _pEntry$224428[ebp]
	mov	eax, DWORD PTR [edx+4]
	mov	DWORD PTR $T232079[ebp], eax
	mov	ecx, DWORD PTR $T232079[ebp]
	push	ecx
	mov	ecx, DWORD PTR _this$[ebp]
	call	?HasBeenFounded@CvGameReligions@@AAE_NW4ReligionTypes@@@Z ; CvGameReligions::HasBeenFounded
	movzx	edx, al
	test	edx, edx
	je	SHORT $LN1@GetReligio

; 755  : 		{
; 756  : 			continue;

	jmp	SHORT $LN5@GetReligio
$LN1@GetReligio:

; 757  : 		}
; 758  : 
; 759  : 		return (eReligion);

	mov	eax, DWORD PTR _eReligion$224426[ebp]
	jmp	SHORT $LN19@GetReligio

; 760  : 	}

	jmp	SHORT $LN5@GetReligio
$LN4@GetReligio:

; 761  : 
; 762  : 	return NO_RELIGION;

	or	eax, -1
$LN19@GetReligio:

; 763  : }

	mov	ecx, DWORD PTR __$EHRec$[ebp]
	mov	DWORD PTR fs:0, ecx
	pop	ecx
	mov	esp, ebp
	pop	ebp
	ret	4
_TEXT	ENDS
;	COMDAT text$x
text$x	SEGMENT
__unwindfunclet$?GetReligionToFound@CvGameReligions@@QAE?AW4ReligionTypes@@W4PlayerTypes@@@Z$0:
	lea	ecx, DWORD PTR _args$224401[ebp]
	jmp	??1CvLuaArgsHandle@@QAE@XZ		; CvLuaArgsHandle::~CvLuaArgsHandle
__ehhandler$?GetReligionToFound@CvGameReligions@@QAE?AW4ReligionTypes@@W4PlayerTypes@@@Z:
	mov	edx, DWORD PTR [esp+8]
	lea	eax, DWORD PTR [edx+12]
	mov	ecx, DWORD PTR [edx-96]
	xor	ecx, eax
	call	@__security_check_cookie@4
	mov	eax, OFFSET __ehfuncinfo$?GetReligionToFound@CvGameReligions@@QAE?AW4ReligionTypes@@W4PlayerTypes@@@Z
	jmp	___CxxFrameHandler3
text$x	ENDS
?GetReligionToFound@CvGameReligions@@QAE?AW4ReligionTypes@@W4PlayerTypes@@@Z ENDP ; CvGameReligions::GetReligionToFound
PUBLIC	??1CvReligion@@QAE@XZ				; CvReligion::~CvReligion
PUBLIC	?LogReligionMessage@CvGameReligions@@QAEXAAVCvString@@@Z ; CvGameReligions::LogReligionMessage
PUBLIC	??_C@_0BF@CFACEIDB@?0?5PANTHEON?5FOUNDED?0?5?$AA@ ; `string'
PUBLIC	??_C@_0CO@GFBGMLAH@TXT_KEY_NOTIFICATION_PANTHEON_FO@ ; `string'
PUBLIC	??_C@_0DE@EILCMPBB@TXT_KEY_NOTIFICATION_PANTHEON_FO@ ; `string'
PUBLIC	??$?6PBD@@YAAAVString@Localization@@AAV01@ABQBD@Z ; operator<<<char const *>
PUBLIC	??_C@_0CG@BIKGNGGA@TXT_KEY_NOTIFICATION_PANTHEON_FO@ ; `string'
PUBLIC	??_C@_0CI@PMDLGDPK@TXT_KEY_NOTIFICATION_PANTHEON_FO@ ; `string'
PUBLIC	??_C@_0BA@LCGLGODN@PantheonFounded?$AA@		; `string'
PUBLIC	?push_back@?$FStaticVector@VCvReligion@@$0BA@$0A@$0BCJ@$0A@@@QAEIABVCvReligion@@@Z ; FStaticVector<CvReligion,16,0,297,0>::push_back
PUBLIC	__$ArrayPad$
EXTRN	?getActivePlayer@CvGame@@QBE?AW4PlayerTypes@@XZ:PROC ; CvGame::getActivePlayer
EXTRN	__imp_??Y?$basic_string@DU?$char_traits@D@std@@V?$allocator@D@2@@std@@QAEAAV01@PBD@Z:PROC
EXTRN	?getCivilizationShortDescription@CvPlayer@@QBEPBDXZ:PROC ; CvPlayer::getCivilizationShortDescription
EXTRN	?getLogging@CvGlobals@@QAE_NXZ:PROC		; CvGlobals::getLogging
EXTRN	?isHasMet@CvTeam@@QBE_NW4TeamTypes@@@Z:PROC	; CvTeam::isHasMet
EXTRN	?m_aTeams@CvTeam@@1PAV1@A:DWORD			; CvTeam::m_aTeams
EXTRN	__imp_??0String@Localization@@QAE@PBD@Z:PROC
EXTRN	?addReplayMessage@CvGame@@QAEXW4ReplayMessageTypes@@W4PlayerTypes@@ABVCvString@@HH@Z:PROC ; CvGame::addReplayMessage
EXTRN	__imp_?toUTF8@String@Localization@@QAEPBDXZ:PROC
EXTRN	?getCivilizationShortDescriptionKey@CvPlayer@@QBEPBDXZ:PROC ; CvPlayer::getCivilizationShortDescriptionKey
EXTRN	?getShortDescription@CvBeliefEntry@@QBEPBDXZ:PROC ; CvBeliefEntry::getShortDescription
EXTRN	?getBeliefInfo@CvGlobals@@QAEPAVCvBeliefEntry@@W4BeliefTypes@@@Z:PROC ; CvGlobals::getBeliefInfo
EXTRN	?getPopulation@CvCity@@QBEHXZ:PROC		; CvCity::getPopulation
EXTRN	?CallHook@LuaSupport@@YA_NPAVICvEngineScriptSystem1@@PBDPAVICvEngineScriptSystemArgs1@@AA_N@Z:PROC ; LuaSupport::CallHook
EXTRN	?getCapitalCity@CvPlayer@@QAEPAVCvCity@@XZ:PROC	; CvPlayer::getCapitalCity
EXTRN	?UpdateReligion@CvPlayer@@QAEXXZ:PROC		; CvPlayer::UpdateReligion
EXTRN	?AddBelief@CvReligionBeliefs@@QAEXW4BeliefTypes@@@Z:PROC ; CvReligionBeliefs::AddBelief
;	COMDAT ??_C@_0BF@CFACEIDB@?0?5PANTHEON?5FOUNDED?0?5?$AA@
CONST	SEGMENT
??_C@_0BF@CFACEIDB@?0?5PANTHEON?5FOUNDED?0?5?$AA@ DB ', PANTHEON FOUNDED,'
	DB	' ', 00H					; `string'
CONST	ENDS
;	COMDAT ??_C@_0CO@GFBGMLAH@TXT_KEY_NOTIFICATION_PANTHEON_FO@
CONST	SEGMENT
??_C@_0CO@GFBGMLAH@TXT_KEY_NOTIFICATION_PANTHEON_FO@ DB 'TXT_KEY_NOTIFICA'
	DB	'TION_PANTHEON_FOUNDED_UNKNOWN', 00H		; `string'
CONST	ENDS
;	COMDAT ??_C@_0DE@EILCMPBB@TXT_KEY_NOTIFICATION_PANTHEON_FO@
CONST	SEGMENT
??_C@_0DE@EILCMPBB@TXT_KEY_NOTIFICATION_PANTHEON_FO@ DB 'TXT_KEY_NOTIFICA'
	DB	'TION_PANTHEON_FOUNDED_ACTIVE_PLAYER', 00H	; `string'
CONST	ENDS
;	COMDAT ??_C@_0CG@BIKGNGGA@TXT_KEY_NOTIFICATION_PANTHEON_FO@
CONST	SEGMENT
??_C@_0CG@BIKGNGGA@TXT_KEY_NOTIFICATION_PANTHEON_FO@ DB 'TXT_KEY_NOTIFICA'
	DB	'TION_PANTHEON_FOUNDED', 00H			; `string'
CONST	ENDS
;	COMDAT ??_C@_0CI@PMDLGDPK@TXT_KEY_NOTIFICATION_PANTHEON_FO@
CONST	SEGMENT
??_C@_0CI@PMDLGDPK@TXT_KEY_NOTIFICATION_PANTHEON_FO@ DB 'TXT_KEY_NOTIFICA'
	DB	'TION_PANTHEON_FOUNDED_S', 00H		; `string'
CONST	ENDS
;	COMDAT ??_C@_0BA@LCGLGODN@PantheonFounded?$AA@
CONST	SEGMENT
??_C@_0BA@LCGLGODN@PantheonFounded?$AA@ DB 'PantheonFounded', 00H ; `string'
CONST	ENDS
;	COMDAT xdata$x
xdata$x	SEGMENT
__ehfuncinfo$?FoundPantheon@CvGameReligions@@QAEXW4PlayerTypes@@W4BeliefTypes@@@Z DD 019930522H
	DD	0aH
	DD	FLAT:__unwindtable$?FoundPantheon@CvGameReligions@@QAEXW4PlayerTypes@@W4BeliefTypes@@@Z
	DD	2 DUP(00H)
	DD	2 DUP(00H)
	DD	00H
	DD	01H
__unwindtable$?FoundPantheon@CvGameReligions@@QAEXW4PlayerTypes@@W4BeliefTypes@@@Z DD 0ffffffffH
	DD	FLAT:__unwindfunclet$?FoundPantheon@CvGameReligions@@QAEXW4PlayerTypes@@W4BeliefTypes@@@Z$0
	DD	00H
	DD	FLAT:__unwindfunclet$?FoundPantheon@CvGameReligions@@QAEXW4PlayerTypes@@W4BeliefTypes@@@Z$1
	DD	00H
	DD	FLAT:__unwindfunclet$?FoundPantheon@CvGameReligions@@QAEXW4PlayerTypes@@W4BeliefTypes@@@Z$2
	DD	02H
	DD	FLAT:__unwindfunclet$?FoundPantheon@CvGameReligions@@QAEXW4PlayerTypes@@W4BeliefTypes@@@Z$3
	DD	03H
	DD	FLAT:__unwindfunclet$?FoundPantheon@CvGameReligions@@QAEXW4PlayerTypes@@W4BeliefTypes@@@Z$4
	DD	03H
	DD	FLAT:__unwindfunclet$?FoundPantheon@CvGameReligions@@QAEXW4PlayerTypes@@W4BeliefTypes@@@Z$5
	DD	05H
	DD	FLAT:__unwindfunclet$?FoundPantheon@CvGameReligions@@QAEXW4PlayerTypes@@W4BeliefTypes@@@Z$6
	DD	03H
	DD	FLAT:__unwindfunclet$?FoundPantheon@CvGameReligions@@QAEXW4PlayerTypes@@W4BeliefTypes@@@Z$6
	DD	03H
	DD	FLAT:__unwindfunclet$?FoundPantheon@CvGameReligions@@QAEXW4PlayerTypes@@W4BeliefTypes@@@Z$7
	DD	03H
	DD	FLAT:__unwindfunclet$?FoundPantheon@CvGameReligions@@QAEXW4PlayerTypes@@W4BeliefTypes@@@Z$8
; Function compile flags: /Odtp
xdata$x	ENDS
;	COMDAT ?FoundPantheon@CvGameReligions@@QAEXW4PlayerTypes@@W4BeliefTypes@@@Z
_TEXT	SEGMENT
tv453 = -960						; size = 4
tv442 = -956						; size = 4
tv229 = -952						; size = 4
tv520 = -948						; size = 4
tv185 = -944						; size = 4
tv178 = -940						; size = 4
tv161 = -936						; size = 4
tv154 = -932						; size = 4
tv143 = -928						; size = 4
_this$ = -924						; size = 4
$T232260 = -920						; size = 4
$T232256 = -916						; size = 4
$T232252 = -912						; size = 4
$T232241 = -908						; size = 4
$T232228 = -904						; size = 4
$T232216 = -900						; size = 4
$T232200 = -896						; size = 4
$T232199 = -892						; size = 4
$T232188 = -888						; size = 4
$T232176 = -884						; size = 4
$T232163 = -880						; size = 4
$T232162 = -876						; size = 4
$T232153 = -872						; size = 4
$T232143 = -868						; size = 4
$T232136 = -864						; size = 4
$T232132 = -860						; size = 4
$T232125 = -856						; size = 4
$T232097 = -844						; size = 4
$T232096 = -840						; size = 4
$T232095 = -836						; size = 4
$T232094 = -832						; size = 4
$T232093 = -828						; size = 28
$T232092 = -800						; size = 28
$T232091 = -772						; size = 4
$T232090 = -768						; size = 4
$T232089 = -764						; size = 4
_strLogMsg$224495 = -760				; size = 28
_unknownFoundedText$224489 = -732			; size = 80
_kTeam$224486 = -648					; size = 4
_localizedText$224480 = -644				; size = 80
_pNotifications$224477 = -564				; size = 4
_eNotifyPlayer$224474 = -560				; size = 4
_kCurNotifyPlayer$224476 = -556				; size = 4
_iNotifyLoop$224470 = -552				; size = 4
_strSummary$224455 = -548				; size = 80
_replayText$224458 = -468				; size = 80
_bResult$224445 = -381					; size = 1
_args$224444 = -380					; size = 4
_iIncrement$ = -376					; size = 4
_newReligion$ = -372					; size = 328
__$ArrayPad$ = -44					; size = 4
_kGame$ = -40						; size = 4
_pBelief$ = -36						; size = 4
_pkScriptSystem$ = -32					; size = 4
_pEntry$ = -28						; size = 4
_pLoopCity$ = -24					; size = 4
_kPlayer$ = -20						; size = 4
_iLoop$ = -16						; size = 4
__$EHRec$ = -12						; size = 12
_ePlayer$ = 8						; size = 4
_eBelief$ = 12						; size = 4
?FoundPantheon@CvGameReligions@@QAEXW4PlayerTypes@@W4BeliefTypes@@@Z PROC ; CvGameReligions::FoundPantheon, COMDAT
; _this$ = ecx

; 767  : {

	push	ebp
	mov	ebp, esp
	push	-1
	push	__ehhandler$?FoundPantheon@CvGameReligions@@QAEXW4PlayerTypes@@W4BeliefTypes@@@Z
	mov	eax, DWORD PTR fs:0
	push	eax
	sub	esp, 948				; 000003b4H
	mov	eax, DWORD PTR ___security_cookie
	xor	eax, ebp
	mov	DWORD PTR __$ArrayPad$[ebp], eax
	push	eax
	lea	eax, DWORD PTR __$EHRec$[ebp]
	mov	DWORD PTR fs:0, eax
	mov	DWORD PTR _this$[ebp], ecx

; 768  : 	CvGame& kGame = GC.getGame();

	mov	eax, DWORD PTR ?gGlobals@@3VCvGlobals@@A+48
	mov	DWORD PTR _kGame$[ebp], eax

; 769  : 	CvPlayer& kPlayer = GET_PLAYER(ePlayer);

	mov	ecx, DWORD PTR _ePlayer$[ebp]
	imul	ecx, 63236				; 0000f704H
	add	ecx, DWORD PTR ?m_aPlayers@CvPlayerAI@@1PAV1@A ; CvPlayerAI::m_aPlayers
	mov	DWORD PTR _kPlayer$[ebp], ecx

; 770  : 
; 771  : 	CvReligion newReligion(RELIGION_PANTHEON, ePlayer, NULL, true);

	push	1
	push	0
	mov	edx, DWORD PTR _ePlayer$[ebp]
	push	edx
	push	0
	lea	ecx, DWORD PTR _newReligion$[ebp]
	call	??0CvReligion@@QAE@W4ReligionTypes@@W4PlayerTypes@@PAVCvCity@@_N@Z ; CvReligion::CvReligion
	mov	DWORD PTR __$EHRec$[ebp+8], 0

; 772  : 	newReligion.m_Beliefs.AddBelief(eBelief);

	mov	eax, DWORD PTR _eBelief$[ebp]
	push	eax
	lea	ecx, DWORD PTR _newReligion$[ebp+152]
	call	?AddBelief@CvReligionBeliefs@@QAEXW4BeliefTypes@@@Z ; CvReligionBeliefs::AddBelief

; 773  : 
; 774  : 	// Found it
; 775  : 	m_CurrentReligions.push_back(newReligion);

	lea	ecx, DWORD PTR _newReligion$[ebp]
	push	ecx
	mov	ecx, DWORD PTR _this$[ebp]
	call	?push_back@?$FStaticVector@VCvReligion@@$0BA@$0A@$0BCJ@$0A@@@QAEIABVCvReligion@@@Z ; FStaticVector<CvReligion,16,0,297,0>::push_back

; 776  : 
; 777  : 	// Update game systems
; 778  : 	kPlayer.UpdateReligion();

	mov	ecx, DWORD PTR _kPlayer$[ebp]
	call	?UpdateReligion@CvPlayer@@QAEXXZ	; CvPlayer::UpdateReligion

; 779  : #ifdef AUI_CITIZENS_MID_TURN_ASSIGN_RUNS_SELF_CONSISTENCY
; 780  : 	kPlayer.doSelfConsistencyCheckAllCities();
; 781  : #endif
; 782  : 	kPlayer.ChangeFaith(-GetMinimumFaithNextPantheon());

	mov	edx, DWORD PTR _this$[ebp]
	mov	eax, DWORD PTR [edx+5264]
	mov	DWORD PTR $T232125[ebp], eax
	mov	ecx, DWORD PTR $T232125[ebp]
	neg	ecx
	push	ecx
	mov	ecx, DWORD PTR _kPlayer$[ebp]
	call	?ChangeFaith@CvPlayer@@QAEXH@Z		; CvPlayer::ChangeFaith

; 783  : 
; 784  : 	int iIncrement = GC.getRELIGION_GAME_FAITH_DELTA_NEXT_PANTHEON();

	mov	edx, DWORD PTR ?gGlobals@@3VCvGlobals@@A+7872
	mov	DWORD PTR _iIncrement$[ebp], edx

; 785  : 	iIncrement *= GC.getGame().getGameSpeedInfo().getTrainPercent();

	mov	eax, DWORD PTR ?gGlobals@@3VCvGlobals@@A+48
	mov	DWORD PTR $T232132[ebp], eax
	mov	ecx, DWORD PTR $T232132[ebp]
	call	?getGameSpeedInfo@CvGame@@QBEAAVCvGameSpeedInfo@@XZ ; CvGame::getGameSpeedInfo
	mov	ecx, eax
	call	?getTrainPercent@CvGameSpeedInfo@@QBEHXZ ; CvGameSpeedInfo::getTrainPercent
	imul	eax, DWORD PTR _iIncrement$[ebp]
	mov	DWORD PTR _iIncrement$[ebp], eax

; 786  : 	iIncrement /= 100;

	mov	eax, DWORD PTR _iIncrement$[ebp]
	cdq
	mov	ecx, 100				; 00000064H
	idiv	ecx
	mov	DWORD PTR _iIncrement$[ebp], eax

; 787  : 	SetMinimumFaithNextPantheon(GetMinimumFaithNextPantheon() + iIncrement);

	mov	edx, DWORD PTR _this$[ebp]
	mov	eax, DWORD PTR [edx+5264]
	mov	DWORD PTR $T232136[ebp], eax
	mov	ecx, DWORD PTR $T232136[ebp]
	add	ecx, DWORD PTR _iIncrement$[ebp]
	mov	edx, DWORD PTR _this$[ebp]
	mov	DWORD PTR [edx+5264], ecx

; 788  : 
; 789  : #ifdef AUI_RELIGION_FIX_FOUND_PANTHEON_NULL_POINTER_DEREFERENCE
; 790  : 	CvCity* pCapitol = GET_PLAYER(ePlayer).getCapitalCity();
; 791  : 	if (pCapitol)
; 792  : 	{
; 793  : #endif
; 794  : 	ICvEngineScriptSystem1* pkScriptSystem = gDLL->GetScriptSystem();

	mov	eax, DWORD PTR $T232143[ebp]
	mov	DWORD PTR tv143[ebp], eax
	mov	ecx, DWORD PTR ?gGlobals@@3VCvGlobals@@A+8564
	mov	DWORD PTR tv143[ebp], ecx
	mov	edx, DWORD PTR tv143[ebp]
	mov	eax, DWORD PTR [edx]
	mov	ecx, DWORD PTR tv143[ebp]
	mov	edx, DWORD PTR [eax+12]
	call	edx
	mov	DWORD PTR _pkScriptSystem$[ebp], eax

; 795  : 	if(pkScriptSystem) 

	cmp	DWORD PTR _pkScriptSystem$[ebp], 0
	je	$LN15@FoundPanth

; 796  : 	{
; 797  : 		CvLuaArgsHandle args;

	lea	ecx, DWORD PTR _args$224444[ebp]
	call	??0CvLuaArgsHandle@@QAE@XZ		; CvLuaArgsHandle::CvLuaArgsHandle
	mov	BYTE PTR __$EHRec$[ebp+8], 1

; 798  : 		args->Push(ePlayer);

	mov	eax, DWORD PTR _args$224444[ebp]
	mov	DWORD PTR tv154[ebp], eax
	mov	ecx, DWORD PTR _ePlayer$[ebp]
	push	ecx
	mov	edx, DWORD PTR tv154[ebp]
	mov	eax, DWORD PTR [edx]
	mov	ecx, DWORD PTR tv154[ebp]
	mov	edx, DWORD PTR [eax+8]
	call	edx

; 799  : #ifdef AUI_RELIGION_FIX_FOUND_PANTHEON_NULL_POINTER_DEREFERENCE
; 800  : 		args->Push(pCapitol->GetID());
; 801  : #else
; 802  : 		args->Push(GET_PLAYER(ePlayer).getCapitalCity()->GetID());

	mov	eax, DWORD PTR _args$224444[ebp]
	mov	DWORD PTR tv161[ebp], eax
	mov	ecx, DWORD PTR _ePlayer$[ebp]
	imul	ecx, 63236				; 0000f704H
	add	ecx, DWORD PTR ?m_aPlayers@CvPlayerAI@@1PAV1@A ; CvPlayerAI::m_aPlayers
	mov	DWORD PTR $T232153[ebp], ecx
	mov	ecx, DWORD PTR $T232153[ebp]
	call	?getCapitalCity@CvPlayer@@QAEPAVCvCity@@XZ ; CvPlayer::getCapitalCity
	mov	DWORD PTR $T232162[ebp], eax
	mov	edx, DWORD PTR $T232162[ebp]
	mov	eax, DWORD PTR [edx+120]
	mov	DWORD PTR $T232163[ebp], eax
	mov	ecx, DWORD PTR $T232163[ebp]
	push	ecx
	mov	edx, DWORD PTR tv161[ebp]
	mov	eax, DWORD PTR [edx]
	mov	ecx, DWORD PTR tv161[ebp]
	mov	edx, DWORD PTR [eax+8]
	call	edx

; 803  : #endif
; 804  : 		args->Push(RELIGION_PANTHEON);

	mov	eax, DWORD PTR _args$224444[ebp]
	mov	DWORD PTR tv178[ebp], eax
	push	0
	mov	ecx, DWORD PTR tv178[ebp]
	mov	edx, DWORD PTR [ecx]
	mov	ecx, DWORD PTR tv178[ebp]
	mov	eax, DWORD PTR [edx+8]
	call	eax

; 805  : 		args->Push(eBelief);

	mov	ecx, DWORD PTR _args$224444[ebp]
	mov	DWORD PTR tv185[ebp], ecx
	mov	edx, DWORD PTR _eBelief$[ebp]
	push	edx
	mov	eax, DWORD PTR tv185[ebp]
	mov	edx, DWORD PTR [eax]
	mov	ecx, DWORD PTR tv185[ebp]
	mov	eax, DWORD PTR [edx+8]
	call	eax

; 806  : 
; 807  : 		bool bResult;
; 808  : 		LuaSupport::CallHook(pkScriptSystem, "PantheonFounded", args.get(), bResult);

	lea	ecx, DWORD PTR _bResult$224445[ebp]
	push	ecx
	mov	edx, DWORD PTR _args$224444[ebp]
	push	edx
	push	OFFSET ??_C@_0BA@LCGLGODN@PantheonFounded?$AA@
	mov	eax, DWORD PTR _pkScriptSystem$[ebp]
	push	eax
	call	?CallHook@LuaSupport@@YA_NPAVICvEngineScriptSystem1@@PBDPAVICvEngineScriptSystemArgs1@@AA_N@Z ; LuaSupport::CallHook
	add	esp, 16					; 00000010H

; 809  : 	}

	mov	BYTE PTR __$EHRec$[ebp+8], 0
	lea	ecx, DWORD PTR _args$224444[ebp]
	call	??1CvLuaArgsHandle@@QAE@XZ		; CvLuaArgsHandle::~CvLuaArgsHandle
$LN15@FoundPanth:

; 810  : #ifdef AUI_RELIGION_FIX_FOUND_PANTHEON_NULL_POINTER_DEREFERENCE
; 811  : 	}
; 812  : #endif
; 813  : 
; 814  : 	// Spread the pantheon into each of their cities
; 815  : 	int iLoop;
; 816  : 	CvCity* pLoopCity;
; 817  : 	for(pLoopCity = kPlayer.firstCity(&iLoop); pLoopCity != NULL; pLoopCity = kPlayer.nextCity(&iLoop))

	push	0
	lea	ecx, DWORD PTR _iLoop$[ebp]
	push	ecx
	mov	ecx, DWORD PTR _kPlayer$[ebp]
	call	?firstCity@CvPlayer@@QAEPAVCvCity@@PAH_N@Z ; CvPlayer::firstCity
	mov	DWORD PTR _pLoopCity$[ebp], eax
	jmp	SHORT $LN14@FoundPanth
$LN13@FoundPanth:
	push	0
	lea	edx, DWORD PTR _iLoop$[ebp]
	push	edx
	mov	ecx, DWORD PTR _kPlayer$[ebp]
	call	?nextCity@CvPlayer@@QAEPAVCvCity@@PAH_N@Z ; CvPlayer::nextCity
	mov	DWORD PTR _pLoopCity$[ebp], eax
$LN14@FoundPanth:
	cmp	DWORD PTR _pLoopCity$[ebp], 0
	je	SHORT $LN12@FoundPanth

; 818  : 	{
; 819  : 		// Add enough pressure to make this the likely majority religion
; 820  : 		pLoopCity->GetCityReligions()->AddReligiousPressure(FOLLOWER_CHANGE_PANTHEON_FOUNDED, newReligion.m_eReligion, GC.getRELIGION_ATHEISM_PRESSURE_PER_POP() * pLoopCity->getPopulation() * 2);

	mov	eax, DWORD PTR ?gGlobals@@3VCvGlobals@@A+7888
	mov	DWORD PTR $T232176[ebp], eax
	push	-1
	mov	ecx, DWORD PTR _pLoopCity$[ebp]
	call	?getPopulation@CvCity@@QBEHXZ		; CvCity::getPopulation
	imul	eax, DWORD PTR $T232176[ebp]
	shl	eax, 1
	push	eax
	mov	ecx, DWORD PTR _newReligion$[ebp]
	push	ecx
	push	4
	mov	ecx, DWORD PTR _pLoopCity$[ebp]
	call	?GetCityReligions@CvCity@@QBEPAVCvCityReligions@@XZ ; CvCity::GetCityReligions
	mov	ecx, eax
	call	?AddReligiousPressure@CvCityReligions@@QAEXW4CvReligiousFollowChangeReason@@W4ReligionTypes@@HW4PlayerTypes@@@Z ; CvCityReligions::AddReligiousPressure

; 821  : 	}

	jmp	SHORT $LN13@FoundPanth
$LN12@FoundPanth:

; 822  : 
; 823  : 	// Send out messaging
; 824  : 	CvReligionEntry* pEntry = GC.getReligionInfo(newReligion.m_eReligion);

	mov	edx, DWORD PTR _newReligion$[ebp]
	push	edx
	mov	ecx, OFFSET ?gGlobals@@3VCvGlobals@@A	; gGlobals
	call	?getReligionInfo@CvGlobals@@QAEPAVCvReligionEntry@@W4ReligionTypes@@@Z ; CvGlobals::getReligionInfo
	mov	DWORD PTR _pEntry$[ebp], eax

; 825  : 	CvBeliefEntry* pBelief = GC.getBeliefInfo(eBelief);

	mov	eax, DWORD PTR _eBelief$[ebp]
	push	eax
	mov	ecx, OFFSET ?gGlobals@@3VCvGlobals@@A	; gGlobals
	call	?getBeliefInfo@CvGlobals@@QAEPAVCvBeliefEntry@@W4BeliefTypes@@@Z ; CvGlobals::getBeliefInfo
	mov	DWORD PTR _pBelief$[ebp], eax

; 826  : 	if(pEntry && pBelief)

	cmp	DWORD PTR _pEntry$[ebp], 0
	je	$LN11@FoundPanth
	cmp	DWORD PTR _pBelief$[ebp], 0
	je	$LN11@FoundPanth

; 827  : 	{
; 828  : 		//Add replay message.
; 829  : 		Localization::String strSummary = Localization::Lookup("TXT_KEY_NOTIFICATION_PANTHEON_FOUNDED_S");

	push	OFFSET ??_C@_0CI@PMDLGDPK@TXT_KEY_NOTIFICATION_PANTHEON_FO@
	lea	ecx, DWORD PTR _strSummary$224455[ebp]
	push	ecx
	call	DWORD PTR __imp_?Lookup@Localization@@YA?AVString@1@PBD@Z
	add	esp, 8
	mov	BYTE PTR __$EHRec$[ebp+8], 2

; 830  : 		Localization::String replayText = Localization::Lookup("TXT_KEY_NOTIFICATION_PANTHEON_FOUNDED");

	push	OFFSET ??_C@_0CG@BIKGNGGA@TXT_KEY_NOTIFICATION_PANTHEON_FO@
	lea	edx, DWORD PTR _replayText$224458[ebp]
	push	edx
	call	DWORD PTR __imp_?Lookup@Localization@@YA?AVString@1@PBD@Z
	add	esp, 8
	mov	BYTE PTR __$EHRec$[ebp+8], 3

; 831  : 		replayText << kPlayer.getCivilizationShortDescriptionKey() << pBelief->getShortDescription() << pBelief->GetDescriptionKey();

	mov	ecx, DWORD PTR _pBelief$[ebp]
	add	ecx, 64					; 00000040H
	call	DWORD PTR __imp_?c_str@?$basic_string@DU?$char_traits@D@std@@V?$allocator@D@2@@std@@QBEPBDXZ
	mov	DWORD PTR $T232089[ebp], eax
	mov	ecx, DWORD PTR _pBelief$[ebp]
	call	?getShortDescription@CvBeliefEntry@@QBEPBDXZ ; CvBeliefEntry::getShortDescription
	mov	DWORD PTR $T232090[ebp], eax
	mov	ecx, DWORD PTR _kPlayer$[ebp]
	call	?getCivilizationShortDescriptionKey@CvPlayer@@QBEPBDXZ ; CvPlayer::getCivilizationShortDescriptionKey
	mov	DWORD PTR $T232091[ebp], eax
	lea	eax, DWORD PTR $T232089[ebp]
	push	eax
	lea	ecx, DWORD PTR $T232090[ebp]
	push	ecx
	lea	edx, DWORD PTR $T232091[ebp]
	push	edx
	lea	eax, DWORD PTR _replayText$224458[ebp]
	push	eax
	call	??$?6PBD@@YAAAVString@Localization@@AAV01@ABQBD@Z ; operator<<<char const *>
	add	esp, 8
	push	eax
	call	??$?6PBD@@YAAAVString@Localization@@AAV01@ABQBD@Z ; operator<<<char const *>
	add	esp, 8
	push	eax
	call	??$?6PBD@@YAAAVString@Localization@@AAV01@ABQBD@Z ; operator<<<char const *>
	add	esp, 8

; 832  : 
; 833  : 		kGame.addReplayMessage(REPLAY_MESSAGE_PANTHEON_FOUNDED, newReligion.m_eFounder, replayText.toUTF8());

	lea	ecx, DWORD PTR _replayText$224458[ebp]
	call	DWORD PTR __imp_?toUTF8@String@Localization@@QAEPBDXZ
	mov	DWORD PTR $T232188[ebp], eax
	cmp	DWORD PTR $T232188[ebp], 0
	je	SHORT $LN73@FoundPanth
	mov	ecx, DWORD PTR $T232188[ebp]
	mov	DWORD PTR tv520[ebp], ecx
	jmp	SHORT $LN74@FoundPanth
$LN73@FoundPanth:
	mov	DWORD PTR tv520[ebp], OFFSET ??_C@_00CNPNBAHC@?$AA@
$LN74@FoundPanth:
	mov	edx, DWORD PTR tv520[ebp]
	push	edx
	lea	ecx, DWORD PTR $T232092[ebp]
	call	DWORD PTR __imp_??0?$basic_string@DU?$char_traits@D@std@@V?$allocator@D@2@@std@@QAE@PBD@Z
	mov	BYTE PTR __$EHRec$[ebp+8], 4
	push	-1
	push	-1
	lea	eax, DWORD PTR $T232092[ebp]
	push	eax
	mov	ecx, DWORD PTR _newReligion$[ebp+4]
	push	ecx
	push	6
	mov	ecx, DWORD PTR _kGame$[ebp]
	call	?addReplayMessage@CvGame@@QAEXW4ReplayMessageTypes@@W4PlayerTypes@@ABVCvString@@HH@Z ; CvGame::addReplayMessage
	mov	BYTE PTR __$EHRec$[ebp+8], 3
	lea	ecx, DWORD PTR $T232092[ebp]
	call	DWORD PTR __imp_??1?$basic_string@DU?$char_traits@D@std@@V?$allocator@D@2@@std@@QAE@XZ

; 834  : 
; 835  : 		for(int iNotifyLoop = 0; iNotifyLoop < MAX_MAJOR_CIVS; ++iNotifyLoop){

	mov	DWORD PTR _iNotifyLoop$224470[ebp], 0
	jmp	SHORT $LN10@FoundPanth
$LN9@FoundPanth:
	mov	edx, DWORD PTR _iNotifyLoop$224470[ebp]
	add	edx, 1
	mov	DWORD PTR _iNotifyLoop$224470[ebp], edx
$LN10@FoundPanth:
	cmp	DWORD PTR _iNotifyLoop$224470[ebp], 22	; 00000016H
	jge	$LN8@FoundPanth

; 836  : 			PlayerTypes eNotifyPlayer = (PlayerTypes) iNotifyLoop;

	mov	eax, DWORD PTR _iNotifyLoop$224470[ebp]
	mov	DWORD PTR _eNotifyPlayer$224474[ebp], eax

; 837  : 			CvPlayerAI& kCurNotifyPlayer = GET_PLAYER(eNotifyPlayer);

	mov	ecx, DWORD PTR _eNotifyPlayer$224474[ebp]
	imul	ecx, 63236				; 0000f704H
	add	ecx, DWORD PTR ?m_aPlayers@CvPlayerAI@@1PAV1@A ; CvPlayerAI::m_aPlayers
	mov	DWORD PTR _kCurNotifyPlayer$224476[ebp], ecx

; 838  : 			CvNotifications* pNotifications = kCurNotifyPlayer.GetNotifications();

	mov	ecx, DWORD PTR _kCurNotifyPlayer$224476[ebp]
	call	?GetNotifications@CvPlayer@@QBEPAVCvNotifications@@XZ ; CvPlayer::GetNotifications
	mov	DWORD PTR _pNotifications$224477[ebp], eax

; 839  : 			if(pNotifications){

	cmp	DWORD PTR _pNotifications$224477[ebp], 0
	je	$LN7@FoundPanth

; 840  : 				// Message slightly different for founder player
; 841  : 				if(newReligion.m_eFounder == eNotifyPlayer)

	mov	edx, DWORD PTR _newReligion$[ebp+4]
	cmp	edx, DWORD PTR _eNotifyPlayer$224474[ebp]
	jne	$LN90@FoundPanth

; 842  : 				{
; 843  : 					Localization::String localizedText = GetLocalizedText("TXT_KEY_NOTIFICATION_PANTHEON_FOUNDED_ACTIVE_PLAYER");

	push	OFFSET ??_C@_0DE@EILCMPBB@TXT_KEY_NOTIFICATION_PANTHEON_FO@
	lea	eax, DWORD PTR $T232093[ebp]
	push	eax
	call	?GetLocalizedText@@YA?AVCvString@@PBD@Z	; GetLocalizedText
	add	esp, 8
	mov	DWORD PTR tv229[ebp], eax
	mov	ecx, DWORD PTR tv229[ebp]
	mov	DWORD PTR $T232199[ebp], ecx
	mov	BYTE PTR __$EHRec$[ebp+8], 5
	mov	ecx, DWORD PTR $T232199[ebp]
	call	DWORD PTR __imp_?c_str@?$basic_string@DU?$char_traits@D@std@@V?$allocator@D@2@@std@@QBEPBDXZ
	mov	DWORD PTR $T232200[ebp], eax
	mov	edx, DWORD PTR $T232200[ebp]
	push	edx
	lea	ecx, DWORD PTR _localizedText$224480[ebp]
	call	DWORD PTR __imp_??0String@Localization@@QAE@PBD@Z
	mov	BYTE PTR __$EHRec$[ebp+8], 7
	lea	ecx, DWORD PTR $T232093[ebp]
	call	DWORD PTR __imp_??1?$basic_string@DU?$char_traits@D@std@@V?$allocator@D@2@@std@@QAE@XZ

; 844  : 					localizedText << pBelief->getShortDescription() << pBelief->GetDescriptionKey();

	mov	ecx, DWORD PTR _pBelief$[ebp]
	add	ecx, 64					; 00000040H
	call	DWORD PTR __imp_?c_str@?$basic_string@DU?$char_traits@D@std@@V?$allocator@D@2@@std@@QBEPBDXZ
	mov	DWORD PTR $T232094[ebp], eax
	mov	ecx, DWORD PTR _pBelief$[ebp]
	call	?getShortDescription@CvBeliefEntry@@QBEPBDXZ ; CvBeliefEntry::getShortDescription
	mov	DWORD PTR $T232095[ebp], eax
	lea	eax, DWORD PTR $T232094[ebp]
	push	eax
	lea	ecx, DWORD PTR $T232095[ebp]
	push	ecx
	lea	edx, DWORD PTR _localizedText$224480[ebp]
	push	edx
	call	??$?6PBD@@YAAAVString@Localization@@AAV01@ABQBD@Z ; operator<<<char const *>
	add	esp, 8
	push	eax
	call	??$?6PBD@@YAAAVString@Localization@@AAV01@ABQBD@Z ; operator<<<char const *>
	add	esp, 8

; 845  : 
; 846  : 					pNotifications->Add(NOTIFICATION_PANTHEON_FOUNDED_ACTIVE_PLAYER, localizedText.toUTF8(), strSummary.toUTF8(), -1, -1, -1);

	push	-1
	push	-1
	push	-1
	push	-1
	lea	ecx, DWORD PTR _strSummary$224455[ebp]
	call	DWORD PTR __imp_?toUTF8@String@Localization@@QAEPBDXZ
	push	eax
	lea	ecx, DWORD PTR _localizedText$224480[ebp]
	call	DWORD PTR __imp_?toUTF8@String@Localization@@QAEPBDXZ
	push	eax
	push	-381621422				; e940eb52H
	mov	ecx, DWORD PTR _pNotifications$224477[ebp]
	call	?Add@CvNotifications@@QAEHW4NotificationTypes@@PBD1HHHH@Z ; CvNotifications::Add

; 847  : 				}

	mov	BYTE PTR __$EHRec$[ebp+8], 3
	lea	ecx, DWORD PTR _localizedText$224480[ebp]
	call	DWORD PTR __imp_??1String@Localization@@UAE@XZ

; 848  : 				else

	jmp	$LN7@FoundPanth

; 849  : 				{
; 850  : 					//If the notify player has not met this civ yet, display a more ambiguous notification.
; 851  : 					CvTeam& kTeam = GET_TEAM(kCurNotifyPlayer.getTeam());

$LN90@FoundPanth:
	mov	eax, DWORD PTR _kCurNotifyPlayer$224476[ebp]
	mov	ecx, DWORD PTR [eax+44]
	push	ecx
	call	?teamType@CvPreGame@@YA?AW4TeamTypes@@W4PlayerTypes@@@Z ; CvPreGame::teamType
	add	esp, 4
	mov	DWORD PTR $T232216[ebp], eax
	mov	edx, DWORD PTR $T232216[ebp]
	imul	edx, 2984				; 00000ba8H
	add	edx, DWORD PTR ?m_aTeams@CvTeam@@1PAV1@A ; CvTeam::m_aTeams
	mov	DWORD PTR _kTeam$224486[ebp], edx

; 852  : 					if(kTeam.isHasMet(kPlayer.getTeam()))

	mov	eax, DWORD PTR _kPlayer$[ebp]
	mov	ecx, DWORD PTR [eax+44]
	push	ecx
	call	?teamType@CvPreGame@@YA?AW4TeamTypes@@W4PlayerTypes@@@Z ; CvPreGame::teamType
	add	esp, 4
	mov	DWORD PTR $T232228[ebp], eax
	mov	edx, DWORD PTR $T232228[ebp]
	push	edx
	mov	ecx, DWORD PTR _kTeam$224486[ebp]
	call	?isHasMet@CvTeam@@QBE_NW4TeamTypes@@@Z	; CvTeam::isHasMet
	movzx	eax, al
	test	eax, eax
	je	SHORT $LN4@FoundPanth

; 853  : 					{
; 854  : 						pNotifications->Add(NOTIFICATION_PANTHEON_FOUNDED, replayText.toUTF8(), strSummary.toUTF8(), -1, -1, -1);

	push	-1
	push	-1
	push	-1
	push	-1
	lea	ecx, DWORD PTR _strSummary$224455[ebp]
	call	DWORD PTR __imp_?toUTF8@String@Localization@@QAEPBDXZ
	push	eax
	lea	ecx, DWORD PTR _replayText$224458[ebp]
	call	DWORD PTR __imp_?toUTF8@String@Localization@@QAEPBDXZ
	push	eax
	push	1028207137				; 3d493221H
	mov	ecx, DWORD PTR _pNotifications$224477[ebp]
	call	?Add@CvNotifications@@QAEHW4NotificationTypes@@PBD1HHHH@Z ; CvNotifications::Add

; 855  : 					}
; 856  : 					else

	jmp	$LN7@FoundPanth
$LN4@FoundPanth:

; 857  : 					{
; 858  : 						Localization::String unknownFoundedText = Localization::Lookup("TXT_KEY_NOTIFICATION_PANTHEON_FOUNDED_UNKNOWN");

	push	OFFSET ??_C@_0CO@GFBGMLAH@TXT_KEY_NOTIFICATION_PANTHEON_FO@
	lea	ecx, DWORD PTR _unknownFoundedText$224489[ebp]
	push	ecx
	call	DWORD PTR __imp_?Lookup@Localization@@YA?AVString@1@PBD@Z
	add	esp, 8
	mov	BYTE PTR __$EHRec$[ebp+8], 8

; 859  : 						unknownFoundedText << pBelief->getShortDescription() << pBelief->GetDescriptionKey();

	mov	ecx, DWORD PTR _pBelief$[ebp]
	add	ecx, 64					; 00000040H
	call	DWORD PTR __imp_?c_str@?$basic_string@DU?$char_traits@D@std@@V?$allocator@D@2@@std@@QBEPBDXZ
	mov	DWORD PTR $T232096[ebp], eax
	mov	ecx, DWORD PTR _pBelief$[ebp]
	call	?getShortDescription@CvBeliefEntry@@QBEPBDXZ ; CvBeliefEntry::getShortDescription
	mov	DWORD PTR $T232097[ebp], eax
	lea	edx, DWORD PTR $T232096[ebp]
	push	edx
	lea	eax, DWORD PTR $T232097[ebp]
	push	eax
	lea	ecx, DWORD PTR _unknownFoundedText$224489[ebp]
	push	ecx
	call	??$?6PBD@@YAAAVString@Localization@@AAV01@ABQBD@Z ; operator<<<char const *>
	add	esp, 8
	push	eax
	call	??$?6PBD@@YAAAVString@Localization@@AAV01@ABQBD@Z ; operator<<<char const *>
	add	esp, 8

; 860  : 
; 861  : 						pNotifications->Add(NOTIFICATION_PANTHEON_FOUNDED, unknownFoundedText.toUTF8(), strSummary.toUTF8(), -1, -1, -1);

	push	-1
	push	-1
	push	-1
	push	-1
	lea	ecx, DWORD PTR _strSummary$224455[ebp]
	call	DWORD PTR __imp_?toUTF8@String@Localization@@QAEPBDXZ
	push	eax
	lea	ecx, DWORD PTR _unknownFoundedText$224489[ebp]
	call	DWORD PTR __imp_?toUTF8@String@Localization@@QAEPBDXZ
	push	eax
	push	1028207137				; 3d493221H
	mov	ecx, DWORD PTR _pNotifications$224477[ebp]
	call	?Add@CvNotifications@@QAEHW4NotificationTypes@@PBD1HHHH@Z ; CvNotifications::Add

; 862  : 					}

	mov	BYTE PTR __$EHRec$[ebp+8], 3
	lea	ecx, DWORD PTR _unknownFoundedText$224489[ebp]
	call	DWORD PTR __imp_??1String@Localization@@UAE@XZ
$LN7@FoundPanth:

; 863  : 				}
; 864  : 			}
; 865  : 		}

	jmp	$LN9@FoundPanth
$LN8@FoundPanth:

; 866  : 
; 867  : 		// Logging
; 868  : 		if(GC.getLogging())

	mov	ecx, OFFSET ?gGlobals@@3VCvGlobals@@A	; gGlobals
	call	?getLogging@CvGlobals@@QAE_NXZ		; CvGlobals::getLogging
	movzx	edx, al
	test	edx, edx
	je	$LN2@FoundPanth

; 869  : 		{
; 870  : 			CvString strLogMsg;

	lea	ecx, DWORD PTR _strLogMsg$224495[ebp]
	call	DWORD PTR __imp_??0?$basic_string@DU?$char_traits@D@std@@V?$allocator@D@2@@std@@QAE@XZ
	mov	BYTE PTR __$EHRec$[ebp+8], 9

; 871  : 			strLogMsg = kPlayer.getCivilizationShortDescription();

	mov	ecx, DWORD PTR _kPlayer$[ebp]
	call	?getCivilizationShortDescription@CvPlayer@@QBEPBDXZ ; CvPlayer::getCivilizationShortDescription
	mov	DWORD PTR $T232241[ebp], eax
	cmp	DWORD PTR $T232241[ebp], 0
	je	SHORT $LN104@FoundPanth
	mov	eax, DWORD PTR $T232241[ebp]
	push	eax
	lea	ecx, DWORD PTR _strLogMsg$224495[ebp]
	call	DWORD PTR __imp_?assign@?$basic_string@DU?$char_traits@D@std@@V?$allocator@D@2@@std@@QAEAAV12@PBD@Z
	jmp	SHORT $LN105@FoundPanth
$LN104@FoundPanth:
	lea	ecx, DWORD PTR _strLogMsg$224495[ebp]
	call	DWORD PTR __imp_?clear@?$basic_string@DU?$char_traits@D@std@@V?$allocator@D@2@@std@@QAEXXZ
$LN105@FoundPanth:

; 872  : 			strLogMsg += ", PANTHEON FOUNDED, ";

	push	OFFSET ??_C@_0BF@CFACEIDB@?0?5PANTHEON?5FOUNDED?0?5?$AA@
	lea	ecx, DWORD PTR _strLogMsg$224495[ebp]
	call	DWORD PTR __imp_??Y?$basic_string@DU?$char_traits@D@std@@V?$allocator@D@2@@std@@QAEAAV01@PBD@Z

; 873  : 			strLogMsg += pEntry->GetDescription();

	mov	ecx, DWORD PTR _pEntry$[ebp]
	add	ecx, 36					; 00000024H
	call	DWORD PTR __imp_?c_str@?$basic_string@DU?$char_traits@D@std@@V?$allocator@D@2@@std@@QBEPBDXZ
	push	eax
	lea	ecx, DWORD PTR _strLogMsg$224495[ebp]
	call	DWORD PTR __imp_??Y?$basic_string@DU?$char_traits@D@std@@V?$allocator@D@2@@std@@QAEAAV01@PBD@Z

; 874  : 			LogReligionMessage(strLogMsg);

	lea	ecx, DWORD PTR _strLogMsg$224495[ebp]
	push	ecx
	mov	ecx, DWORD PTR _this$[ebp]
	call	?LogReligionMessage@CvGameReligions@@QAEXAAVCvString@@@Z ; CvGameReligions::LogReligionMessage

; 875  : 		}

	mov	BYTE PTR __$EHRec$[ebp+8], 3
	lea	ecx, DWORD PTR _strLogMsg$224495[ebp]
	call	DWORD PTR __imp_??1?$basic_string@DU?$char_traits@D@std@@V?$allocator@D@2@@std@@QAE@XZ
$LN2@FoundPanth:

; 876  : 
; 877  : 		//Achievements!
; 878  : 		if(ePlayer == GC.getGame().getActivePlayer())

	mov	edx, DWORD PTR ?gGlobals@@3VCvGlobals@@A+48
	mov	DWORD PTR $T232252[ebp], edx
	mov	ecx, DWORD PTR $T232252[ebp]
	call	?getActivePlayer@CvGame@@QBE?AW4PlayerTypes@@XZ ; CvGame::getActivePlayer
	cmp	DWORD PTR _ePlayer$[ebp], eax
	jne	SHORT $LN1@FoundPanth

; 879  : 		{
; 880  : 			gDLL->UnlockAchievement(ACHIEVEMENT_XP1_10);

	mov	eax, DWORD PTR $T232256[ebp]
	mov	DWORD PTR tv442[ebp], eax
	mov	ecx, DWORD PTR ?gGlobals@@3VCvGlobals@@A+8564
	mov	DWORD PTR tv442[ebp], ecx
	push	200					; 000000c8H
	mov	edx, DWORD PTR tv442[ebp]
	mov	eax, DWORD PTR [edx]
	mov	ecx, DWORD PTR tv442[ebp]
	mov	edx, DWORD PTR [eax+828]
	call	edx
$LN1@FoundPanth:

; 881  : 		}
; 882  : 	}

	mov	BYTE PTR __$EHRec$[ebp+8], 2
	lea	ecx, DWORD PTR _replayText$224458[ebp]
	call	DWORD PTR __imp_??1String@Localization@@UAE@XZ
	mov	BYTE PTR __$EHRec$[ebp+8], 0
	lea	ecx, DWORD PTR _strSummary$224455[ebp]
	call	DWORD PTR __imp_??1String@Localization@@UAE@XZ
$LN11@FoundPanth:

; 883  : 
; 884  : 	GC.GetEngineUserInterface()->setDirty(CityInfo_DIRTY_BIT, true);

	mov	eax, DWORD PTR $T232260[ebp]
	mov	DWORD PTR tv453[ebp], eax
	mov	ecx, DWORD PTR ?gGlobals@@3VCvGlobals@@A+8568
	mov	DWORD PTR tv453[ebp], ecx
	push	1
	push	18					; 00000012H
	mov	edx, DWORD PTR tv453[ebp]
	mov	eax, DWORD PTR [edx]
	mov	ecx, DWORD PTR tv453[ebp]
	mov	edx, DWORD PTR [eax+260]
	call	edx

; 885  : }

	mov	DWORD PTR __$EHRec$[ebp+8], -1
	lea	ecx, DWORD PTR _newReligion$[ebp+152]
	call	??1CvReligionBeliefs@@QAE@XZ		; CvReligionBeliefs::~CvReligionBeliefs
	mov	ecx, DWORD PTR __$EHRec$[ebp]
	mov	DWORD PTR fs:0, ecx
	pop	ecx
	mov	ecx, DWORD PTR __$ArrayPad$[ebp]
	xor	ecx, ebp
	call	@__security_check_cookie@4
	mov	esp, ebp
	pop	ebp
	ret	8
_TEXT	ENDS
;	COMDAT text$x
text$x	SEGMENT
__unwindfunclet$?FoundPantheon@CvGameReligions@@QAEXW4PlayerTypes@@W4BeliefTypes@@@Z$0:
	lea	ecx, DWORD PTR _newReligion$[ebp]
	jmp	??1CvReligion@@QAE@XZ
__unwindfunclet$?FoundPantheon@CvGameReligions@@QAEXW4PlayerTypes@@W4BeliefTypes@@@Z$1:
	lea	ecx, DWORD PTR _args$224444[ebp]
	jmp	??1CvLuaArgsHandle@@QAE@XZ		; CvLuaArgsHandle::~CvLuaArgsHandle
__unwindfunclet$?FoundPantheon@CvGameReligions@@QAEXW4PlayerTypes@@W4BeliefTypes@@@Z$2:
	lea	ecx, DWORD PTR _strSummary$224455[ebp]
	jmp	DWORD PTR __imp_??1String@Localization@@UAE@XZ
__unwindfunclet$?FoundPantheon@CvGameReligions@@QAEXW4PlayerTypes@@W4BeliefTypes@@@Z$3:
	lea	ecx, DWORD PTR _replayText$224458[ebp]
	jmp	DWORD PTR __imp_??1String@Localization@@UAE@XZ
__unwindfunclet$?FoundPantheon@CvGameReligions@@QAEXW4PlayerTypes@@W4BeliefTypes@@@Z$4:
	lea	ecx, DWORD PTR $T232092[ebp]
	jmp	??1CvString@@QAE@XZ			; CvString::~CvString
__unwindfunclet$?FoundPantheon@CvGameReligions@@QAEXW4PlayerTypes@@W4BeliefTypes@@@Z$5:
	lea	ecx, DWORD PTR $T232093[ebp]
	jmp	??1CvString@@QAE@XZ			; CvString::~CvString
__unwindfunclet$?FoundPantheon@CvGameReligions@@QAEXW4PlayerTypes@@W4BeliefTypes@@@Z$6:
	lea	ecx, DWORD PTR _localizedText$224480[ebp]
	jmp	DWORD PTR __imp_??1String@Localization@@UAE@XZ
__unwindfunclet$?FoundPantheon@CvGameReligions@@QAEXW4PlayerTypes@@W4BeliefTypes@@@Z$7:
	lea	ecx, DWORD PTR _unknownFoundedText$224489[ebp]
	jmp	DWORD PTR __imp_??1String@Localization@@UAE@XZ
__unwindfunclet$?FoundPantheon@CvGameReligions@@QAEXW4PlayerTypes@@W4BeliefTypes@@@Z$8:
	lea	ecx, DWORD PTR _strLogMsg$224495[ebp]
	jmp	??1CvString@@QAE@XZ			; CvString::~CvString
__ehhandler$?FoundPantheon@CvGameReligions@@QAEXW4PlayerTypes@@W4BeliefTypes@@@Z:
	mov	edx, DWORD PTR [esp+8]
	lea	eax, DWORD PTR [edx+12]
	mov	ecx, DWORD PTR [edx-952]
	xor	ecx, eax
	call	@__security_check_cookie@4
	mov	ecx, DWORD PTR [edx-32]
	xor	ecx, eax
	call	@__security_check_cookie@4
	mov	eax, OFFSET __ehfuncinfo$?FoundPantheon@CvGameReligions@@QAEXW4PlayerTypes@@W4BeliefTypes@@@Z
	jmp	___CxxFrameHandler3
text$x	ENDS
?FoundPantheon@CvGameReligions@@QAEXW4PlayerTypes@@W4BeliefTypes@@@Z ENDP ; CvGameReligions::FoundPantheon
; Function compile flags: /Odtp
;	COMDAT ??1CvReligion@@QAE@XZ
_TEXT	SEGMENT
_this$ = -4						; size = 4
??1CvReligion@@QAE@XZ PROC				; CvReligion::~CvReligion, COMDAT
; _this$ = ecx
	push	ebp
	mov	ebp, esp
	push	ecx
	mov	DWORD PTR _this$[ebp], ecx
	mov	ecx, DWORD PTR _this$[ebp]
	add	ecx, 152				; 00000098H
	call	??1CvReligionBeliefs@@QAE@XZ		; CvReligionBeliefs::~CvReligionBeliefs
	mov	esp, ebp
	pop	ebp
	ret	0
??1CvReligion@@QAE@XZ ENDP				; CvReligion::~CvReligion
_TEXT	ENDS
PUBLIC	??_C@_02KEGNLNML@?0?5?$AA@			; `string'
PUBLIC	??_C@_0BF@BPDCCHHG@?0?5RELIGION?5FOUNDED?0?5?$AA@ ; `string'
PUBLIC	??_C@_0CO@LFPOIJKI@TXT_KEY_NOTIFICATION_RELIGION_FO@ ; `string'
PUBLIC	??_C@_0DE@BMIJDLOE@TXT_KEY_NOTIFICATION_RELIGION_FO@ ; `string'
PUBLIC	??$?6VCvString@@@@YAAAVString@Localization@@AAV01@ABVCvString@@@Z ; operator<<<CvString>
PUBLIC	??_C@_0CG@EDBPGPDC@TXT_KEY_NOTIFICATION_RELIGION_FO@ ; `string'
PUBLIC	??_C@_0CI@MGALAMLN@TXT_KEY_NOTIFICATION_RELIGION_FO@ ; `string'
PUBLIC	??_C@_0BA@NFHMCBIC@ReligionFounded?$AA@		; `string'
PUBLIC	?DoReligionFounded@CvCityReligions@@QAEXW4ReligionTypes@@@Z ; CvCityReligions::DoReligionFounded
PUBLIC	?GetBeliefInPantheon@CvGameReligions@@QBE?AW4BeliefTypes@@W4PlayerTypes@@@Z ; CvGameReligions::GetBeliefInPantheon
PUBLIC	__$ArrayPad$
PUBLIC	?FoundReligion@CvGameReligions@@QAEXW4PlayerTypes@@W4ReligionTypes@@PBDW4BeliefTypes@@333PAVCvCity@@@Z ; CvGameReligions::FoundReligion
EXTRN	__imp_??Y?$basic_string@DU?$char_traits@D@std@@V?$allocator@D@2@@std@@QAEAAV01@ABV01@@Z:PROC
EXTRN	?getName@CvCity@@QBE?BVCvString@@XZ:PROC	; CvCity::getName
EXTRN	?GetReligiousStrength@CvUnitEntry@@QBEHXZ:PROC	; CvUnitEntry::GetReligiousStrength
EXTRN	?GetReligionSpreads@CvUnitEntry@@QBEHXZ:PROC	; CvUnitEntry::GetReligionSpreads
EXTRN	?IsFoundReligion@CvUnitEntry@@QBE_NXZ:PROC	; CvUnitEntry::IsFoundReligion
EXTRN	?getUnitInfo@CvUnit@@QBEAAVCvUnitEntry@@XZ:PROC	; CvUnit::getUnitInfo
EXTRN	?nextUnit@CvPlayer@@QAEPAVCvUnit@@PAH_N@Z:PROC	; CvPlayer::nextUnit
EXTRN	?firstUnit@CvPlayer@@QAEPAVCvUnit@@PAH_N@Z:PROC	; CvPlayer::firstUnit
EXTRN	?DoReligionOneShots@CvPlayer@@QAEXW4ReligionTypes@@@Z:PROC ; CvPlayer::DoReligionOneShots
EXTRN	__imp__strcpy_s:PROC
EXTRN	?GetGameReligions@CvGame@@QAEPAVCvGameReligions@@XZ:PROC ; CvGame::GetGameReligions
;	COMDAT ??_C@_02KEGNLNML@?0?5?$AA@
CONST	SEGMENT
??_C@_02KEGNLNML@?0?5?$AA@ DB ', ', 00H			; `string'
CONST	ENDS
;	COMDAT ??_C@_0BF@BPDCCHHG@?0?5RELIGION?5FOUNDED?0?5?$AA@
CONST	SEGMENT
??_C@_0BF@BPDCCHHG@?0?5RELIGION?5FOUNDED?0?5?$AA@ DB ', RELIGION FOUNDED,'
	DB	' ', 00H					; `string'
CONST	ENDS
;	COMDAT ??_C@_0CO@LFPOIJKI@TXT_KEY_NOTIFICATION_RELIGION_FO@
CONST	SEGMENT
??_C@_0CO@LFPOIJKI@TXT_KEY_NOTIFICATION_RELIGION_FO@ DB 'TXT_KEY_NOTIFICA'
	DB	'TION_RELIGION_FOUNDED_UNKNOWN', 00H		; `string'
CONST	ENDS
;	COMDAT ??_C@_0DE@BMIJDLOE@TXT_KEY_NOTIFICATION_RELIGION_FO@
CONST	SEGMENT
??_C@_0DE@BMIJDLOE@TXT_KEY_NOTIFICATION_RELIGION_FO@ DB 'TXT_KEY_NOTIFICA'
	DB	'TION_RELIGION_FOUNDED_ACTIVE_PLAYER', 00H	; `string'
CONST	ENDS
;	COMDAT ??_C@_0CG@EDBPGPDC@TXT_KEY_NOTIFICATION_RELIGION_FO@
CONST	SEGMENT
??_C@_0CG@EDBPGPDC@TXT_KEY_NOTIFICATION_RELIGION_FO@ DB 'TXT_KEY_NOTIFICA'
	DB	'TION_RELIGION_FOUNDED', 00H			; `string'
CONST	ENDS
;	COMDAT ??_C@_0CI@MGALAMLN@TXT_KEY_NOTIFICATION_RELIGION_FO@
CONST	SEGMENT
??_C@_0CI@MGALAMLN@TXT_KEY_NOTIFICATION_RELIGION_FO@ DB 'TXT_KEY_NOTIFICA'
	DB	'TION_RELIGION_FOUNDED_S', 00H		; `string'
CONST	ENDS
;	COMDAT ??_C@_0BA@NFHMCBIC@ReligionFounded?$AA@
CONST	SEGMENT
??_C@_0BA@NFHMCBIC@ReligionFounded?$AA@ DB 'ReligionFounded', 00H ; `string'
CONST	ENDS
;	COMDAT xdata$x
xdata$x	SEGMENT
__ehfuncinfo$?FoundReligion@CvGameReligions@@QAEXW4PlayerTypes@@W4ReligionTypes@@PBDW4BeliefTypes@@333PAVCvCity@@@Z DD 019930522H
	DD	0aH
	DD	FLAT:__unwindtable$?FoundReligion@CvGameReligions@@QAEXW4PlayerTypes@@W4ReligionTypes@@PBDW4BeliefTypes@@333PAVCvCity@@@Z
	DD	2 DUP(00H)
	DD	2 DUP(00H)
	DD	00H
	DD	01H
__unwindtable$?FoundReligion@CvGameReligions@@QAEXW4PlayerTypes@@W4ReligionTypes@@PBDW4BeliefTypes@@333PAVCvCity@@@Z DD 0ffffffffH
	DD	FLAT:__unwindfunclet$?FoundReligion@CvGameReligions@@QAEXW4PlayerTypes@@W4ReligionTypes@@PBDW4BeliefTypes@@333PAVCvCity@@@Z$0
	DD	00H
	DD	FLAT:__unwindfunclet$?FoundReligion@CvGameReligions@@QAEXW4PlayerTypes@@W4ReligionTypes@@PBDW4BeliefTypes@@333PAVCvCity@@@Z$1
	DD	00H
	DD	FLAT:__unwindfunclet$?FoundReligion@CvGameReligions@@QAEXW4PlayerTypes@@W4ReligionTypes@@PBDW4BeliefTypes@@333PAVCvCity@@@Z$2
	DD	02H
	DD	FLAT:__unwindfunclet$?FoundReligion@CvGameReligions@@QAEXW4PlayerTypes@@W4ReligionTypes@@PBDW4BeliefTypes@@333PAVCvCity@@@Z$3
	DD	03H
	DD	FLAT:__unwindfunclet$?FoundReligion@CvGameReligions@@QAEXW4PlayerTypes@@W4ReligionTypes@@PBDW4BeliefTypes@@333PAVCvCity@@@Z$4
	DD	04H
	DD	FLAT:__unwindfunclet$?FoundReligion@CvGameReligions@@QAEXW4PlayerTypes@@W4ReligionTypes@@PBDW4BeliefTypes@@333PAVCvCity@@@Z$5
	DD	04H
	DD	FLAT:__unwindfunclet$?FoundReligion@CvGameReligions@@QAEXW4PlayerTypes@@W4ReligionTypes@@PBDW4BeliefTypes@@333PAVCvCity@@@Z$6
	DD	04H
	DD	FLAT:__unwindfunclet$?FoundReligion@CvGameReligions@@QAEXW4PlayerTypes@@W4ReligionTypes@@PBDW4BeliefTypes@@333PAVCvCity@@@Z$7
	DD	04H
	DD	FLAT:__unwindfunclet$?FoundReligion@CvGameReligions@@QAEXW4PlayerTypes@@W4ReligionTypes@@PBDW4BeliefTypes@@333PAVCvCity@@@Z$8
	DD	08H
	DD	FLAT:__unwindfunclet$?FoundReligion@CvGameReligions@@QAEXW4PlayerTypes@@W4ReligionTypes@@PBDW4BeliefTypes@@333PAVCvCity@@@Z$9
; Function compile flags: /Odtp
xdata$x	ENDS
;	COMDAT ?FoundReligion@CvGameReligions@@QAEXW4PlayerTypes@@W4ReligionTypes@@PBDW4BeliefTypes@@333PAVCvCity@@@Z
_TEXT	SEGMENT
tv494 = -1008						; size = 4
tv483 = -1004						; size = 4
tv509 = -1000						; size = 4
tv390 = -996						; size = 4
tv215 = -992						; size = 4
tv255 = -988						; size = 4
tv248 = -984						; size = 4
tv241 = -980						; size = 4
tv234 = -976						; size = 4
tv227 = -972						; size = 4
tv220 = -968						; size = 4
tv211 = -964						; size = 4
tv204 = -960						; size = 4
tv193 = -956						; size = 4
tv134 = -952						; size = 4
tv675 = -945						; size = 1
tv672 = -944						; size = 4
tv637 = -940						; size = 4
_this$ = -936						; size = 4
$T232464 = -932						; size = 4
$T232456 = -928						; size = 4
$T232452 = -924						; size = 4
$T232437 = -920						; size = 4
$T232427 = -916						; size = 4
$T232415 = -912						; size = 4
$T232399 = -908						; size = 4
$T232395 = -904						; size = 4
$T232365 = -900						; size = 4
$T232350 = -896						; size = 4
$T232346 = -892						; size = 4
$T232342 = -888						; size = 4
$T232338 = -884						; size = 4
$T232334 = -880						; size = 4
$T232327 = -876						; size = 4
$T232323 = -872						; size = 4
$T232307 = -860						; size = 4
$T232303 = -856						; size = 4
$T232281 = -852						; size = 28
$T232280 = -824						; size = 4
$T232279 = -820						; size = 28
$T232278 = -792						; size = 4
$T232277 = -788						; size = 4
_strLogMsg$224569 = -784				; size = 28
_unknownCivText$224565 = -756				; size = 80
_kNotifyTeam$224562 = -672				; size = 4
_localizedText$224557 = -668				; size = 80
_pNotifications$224554 = -588				; size = 4
_eNotifyPlayer$224551 = -584				; size = 4
_kNotifyPlayer$224553 = -580				; size = 4
_iNotifyLoop$224547 = -576				; size = 4
_strSummary$224538 = -572				; size = 80
_replayText$224541 = -492				; size = 80
_szReligionName$224536 = -408				; size = 28
_bResult$224532 = -377					; size = 1
_args$224531 = -376					; size = 4
_kReligion$ = -372					; size = 328
__$ArrayPad$ = -40					; size = 4
_iLoopUnit$ = -36					; size = 4
_pLoopUnit$ = -32					; size = 4
_eBelief$ = -28						; size = 4
_pkScriptSystem$ = -24					; size = 4
_pEntry$ = -20						; size = 4
_kPlayer$ = -16						; size = 4
__$EHRec$ = -12						; size = 12
_ePlayer$ = 8						; size = 4
_eReligion$ = 12					; size = 4
_szCustomName$ = 16					; size = 4
_eBelief1$ = 20						; size = 4
_eBelief2$ = 24						; size = 4
_eBelief3$ = 28						; size = 4
_eBelief4$ = 32						; size = 4
_pkHolyCity$ = 36					; size = 4
?FoundReligion@CvGameReligions@@QAEXW4PlayerTypes@@W4ReligionTypes@@PBDW4BeliefTypes@@333PAVCvCity@@@Z PROC ; CvGameReligions::FoundReligion, COMDAT
; _this$ = ecx

; 889  : {

	push	ebp
	mov	ebp, esp
	push	-1
	push	__ehhandler$?FoundReligion@CvGameReligions@@QAEXW4PlayerTypes@@W4ReligionTypes@@PBDW4BeliefTypes@@333PAVCvCity@@@Z
	mov	eax, DWORD PTR fs:0
	push	eax
	sub	esp, 996				; 000003e4H
	mov	eax, DWORD PTR ___security_cookie
	xor	eax, ebp
	mov	DWORD PTR __$ArrayPad$[ebp], eax
	push	eax
	lea	eax, DWORD PTR __$EHRec$[ebp]
	mov	DWORD PTR fs:0, eax
	mov	DWORD PTR _this$[ebp], ecx

; 890  : 	CvPlayer& kPlayer = GET_PLAYER(ePlayer);

	mov	eax, DWORD PTR _ePlayer$[ebp]
	imul	eax, 63236				; 0000f704H
	add	eax, DWORD PTR ?m_aPlayers@CvPlayerAI@@1PAV1@A ; CvPlayerAI::m_aPlayers
	mov	DWORD PTR _kPlayer$[ebp], eax

; 891  : 
; 892  : 	CvReligion kReligion(eReligion, ePlayer, pkHolyCity, false);

	push	0
	mov	ecx, DWORD PTR _pkHolyCity$[ebp]
	push	ecx
	mov	edx, DWORD PTR _ePlayer$[ebp]
	push	edx
	mov	eax, DWORD PTR _eReligion$[ebp]
	push	eax
	lea	ecx, DWORD PTR _kReligion$[ebp]
	call	??0CvReligion@@QAE@W4ReligionTypes@@W4PlayerTypes@@PAVCvCity@@_N@Z ; CvReligion::CvReligion
	mov	DWORD PTR __$EHRec$[ebp+8], 0

; 893  : 
; 894  : 	// Copy over belief from your pantheon
; 895  : 	BeliefTypes eBelief = GC.getGame().GetGameReligions()->GetBeliefInPantheon(kPlayer.GetID());

	mov	ecx, DWORD PTR _kPlayer$[ebp]
	mov	edx, DWORD PTR [ecx+44]
	mov	DWORD PTR $T232303[ebp], edx
	mov	eax, DWORD PTR ?gGlobals@@3VCvGlobals@@A+48
	mov	DWORD PTR $T232307[ebp], eax
	mov	ecx, DWORD PTR $T232303[ebp]
	push	ecx
	mov	ecx, DWORD PTR $T232307[ebp]
	call	?GetGameReligions@CvGame@@QAEPAVCvGameReligions@@XZ ; CvGame::GetGameReligions
	mov	ecx, eax
	call	?GetBeliefInPantheon@CvGameReligions@@QBE?AW4BeliefTypes@@W4PlayerTypes@@@Z ; CvGameReligions::GetBeliefInPantheon
	mov	DWORD PTR _eBelief$[ebp], eax

; 896  : 	if(eBelief != NO_BELIEF)

	cmp	DWORD PTR _eBelief$[ebp], -1
	je	SHORT $LN20@FoundRelig

; 897  : 		kReligion.m_Beliefs.AddBelief(eBelief);

	mov	edx, DWORD PTR _eBelief$[ebp]
	push	edx
	lea	ecx, DWORD PTR _kReligion$[ebp+152]
	call	?AddBelief@CvReligionBeliefs@@QAEXW4BeliefTypes@@@Z ; CvReligionBeliefs::AddBelief
$LN20@FoundRelig:

; 898  : 
; 899  : 	kReligion.m_Beliefs.AddBelief(eBelief1);

	mov	eax, DWORD PTR _eBelief1$[ebp]
	push	eax
	lea	ecx, DWORD PTR _kReligion$[ebp+152]
	call	?AddBelief@CvReligionBeliefs@@QAEXW4BeliefTypes@@@Z ; CvReligionBeliefs::AddBelief

; 900  : 	kReligion.m_Beliefs.AddBelief(eBelief2);

	mov	ecx, DWORD PTR _eBelief2$[ebp]
	push	ecx
	lea	ecx, DWORD PTR _kReligion$[ebp+152]
	call	?AddBelief@CvReligionBeliefs@@QAEXW4BeliefTypes@@@Z ; CvReligionBeliefs::AddBelief

; 901  : 
; 902  : 	if(eBelief3 != NO_BELIEF)

	cmp	DWORD PTR _eBelief3$[ebp], -1
	je	SHORT $LN19@FoundRelig

; 903  : 	{
; 904  : 		kReligion.m_Beliefs.AddBelief(eBelief3);

	mov	edx, DWORD PTR _eBelief3$[ebp]
	push	edx
	lea	ecx, DWORD PTR _kReligion$[ebp+152]
	call	?AddBelief@CvReligionBeliefs@@QAEXW4BeliefTypes@@@Z ; CvReligionBeliefs::AddBelief
$LN19@FoundRelig:

; 905  : 	}
; 906  : 
; 907  : 	if(eBelief4 != NO_BELIEF)

	cmp	DWORD PTR _eBelief4$[ebp], -1
	je	SHORT $LN18@FoundRelig

; 908  : 	{
; 909  : 		kReligion.m_Beliefs.AddBelief(eBelief4);

	mov	eax, DWORD PTR _eBelief4$[ebp]
	push	eax
	lea	ecx, DWORD PTR _kReligion$[ebp+152]
	call	?AddBelief@CvReligionBeliefs@@QAEXW4BeliefTypes@@@Z ; CvReligionBeliefs::AddBelief
$LN18@FoundRelig:

; 910  : 	}
; 911  : 
; 912  : 	if(szCustomName != NULL && strlen(szCustomName) <= sizeof(kReligion.m_szCustomName))

	cmp	DWORD PTR _szCustomName$[ebp], 0
	je	SHORT $LN17@FoundRelig
	mov	ecx, DWORD PTR _szCustomName$[ebp]
	mov	DWORD PTR tv637[ebp], ecx
	mov	edx, DWORD PTR tv637[ebp]
	add	edx, 1
	mov	DWORD PTR tv672[ebp], edx
$LL138@FoundRelig:
	mov	eax, DWORD PTR tv637[ebp]
	mov	cl, BYTE PTR [eax]
	mov	BYTE PTR tv675[ebp], cl
	add	DWORD PTR tv637[ebp], 1
	cmp	BYTE PTR tv675[ebp], 0
	jne	SHORT $LL138@FoundRelig
	mov	edx, DWORD PTR tv637[ebp]
	sub	edx, DWORD PTR tv672[ebp]
	mov	DWORD PTR tv134[ebp], edx
	cmp	DWORD PTR tv134[ebp], 128		; 00000080H
	ja	SHORT $LN17@FoundRelig

; 913  : 	{
; 914  : 		strcpy_s(kReligion.m_szCustomName, szCustomName);

	mov	eax, DWORD PTR _szCustomName$[ebp]
	push	eax
	push	128					; 00000080H
	lea	ecx, DWORD PTR _kReligion$[ebp+22]
	push	ecx
	call	DWORD PTR __imp__strcpy_s
	add	esp, 12					; 0000000cH
$LN17@FoundRelig:

; 915  : 	}
; 916  : 
; 917  : 	// Found it
; 918  : 	m_CurrentReligions.push_back(kReligion);

	lea	edx, DWORD PTR _kReligion$[ebp]
	push	edx
	mov	ecx, DWORD PTR _this$[ebp]
	call	?push_back@?$FStaticVector@VCvReligion@@$0BA@$0A@$0BCJ@$0A@@@QAEIABVCvReligion@@@Z ; FStaticVector<CvReligion,16,0,297,0>::push_back

; 919  : 
; 920  : 	// Inform the holy city
; 921  : 	pkHolyCity->GetCityReligions()->DoReligionFounded(kReligion.m_eReligion);

	mov	eax, DWORD PTR _kReligion$[ebp]
	push	eax
	mov	ecx, DWORD PTR _pkHolyCity$[ebp]
	call	?GetCityReligions@CvCity@@QBEPAVCvCityReligions@@XZ ; CvCity::GetCityReligions
	mov	ecx, eax
	call	?DoReligionFounded@CvCityReligions@@QAEXW4ReligionTypes@@@Z ; CvCityReligions::DoReligionFounded

; 922  : 
; 923  : 	// Update game systems
; 924  : 	kPlayer.UpdateReligion();

	mov	ecx, DWORD PTR _kPlayer$[ebp]
	call	?UpdateReligion@CvPlayer@@QAEXXZ	; CvPlayer::UpdateReligion

; 925  : #ifdef AUI_CITIZENS_MID_TURN_ASSIGN_RUNS_SELF_CONSISTENCY
; 926  : 	kPlayer.doSelfConsistencyCheckAllCities();
; 927  : #endif
; 928  : 	kPlayer.GetReligions()->SetFoundingReligion(false);

	mov	ecx, DWORD PTR _kPlayer$[ebp]
	call	?GetReligions@CvPlayer@@QBEPAVCvPlayerReligions@@XZ ; CvPlayer::GetReligions
	mov	DWORD PTR $T232323[ebp], eax
	xor	ecx, ecx
	mov	edx, DWORD PTR $T232323[ebp]
	mov	DWORD PTR [edx+8], ecx

; 929  : 
; 930  : #ifdef NQ_ALLOW_RELIGION_ONE_SHOTS
; 931  : 	kPlayer.DoReligionOneShots(eReligion);

	mov	eax, DWORD PTR _eReligion$[ebp]
	push	eax
	mov	ecx, DWORD PTR _kPlayer$[ebp]
	call	?DoReligionOneShots@CvPlayer@@QAEXW4ReligionTypes@@@Z ; CvPlayer::DoReligionOneShots

; 932  : #endif
; 933  : 
; 934  : 	// In case we have another prophet sitting around, make sure he's set to this religion
; 935  : 	int iLoopUnit;
; 936  : 	CvUnit* pLoopUnit;
; 937  : 	for(pLoopUnit = kPlayer.firstUnit(&iLoopUnit); pLoopUnit != NULL; pLoopUnit = kPlayer.nextUnit(&iLoopUnit))

	push	0
	lea	ecx, DWORD PTR _iLoopUnit$[ebp]
	push	ecx
	mov	ecx, DWORD PTR _kPlayer$[ebp]
	call	?firstUnit@CvPlayer@@QAEPAVCvUnit@@PAH_N@Z ; CvPlayer::firstUnit
	mov	DWORD PTR _pLoopUnit$[ebp], eax
	jmp	SHORT $LN16@FoundRelig
$LN15@FoundRelig:
	push	0
	lea	edx, DWORD PTR _iLoopUnit$[ebp]
	push	edx
	mov	ecx, DWORD PTR _kPlayer$[ebp]
	call	?nextUnit@CvPlayer@@QAEPAVCvUnit@@PAH_N@Z ; CvPlayer::nextUnit
	mov	DWORD PTR _pLoopUnit$[ebp], eax
$LN16@FoundRelig:
	cmp	DWORD PTR _pLoopUnit$[ebp], 0
	je	$LN14@FoundRelig

; 938  : 	{
; 939  : 		if(pLoopUnit->getUnitInfo().IsFoundReligion())

	mov	ecx, DWORD PTR _pLoopUnit$[ebp]
	call	?getUnitInfo@CvUnit@@QBEAAVCvUnitEntry@@XZ ; CvUnit::getUnitInfo
	mov	ecx, eax
	call	?IsFoundReligion@CvUnitEntry@@QBE_NXZ	; CvUnitEntry::IsFoundReligion
	movzx	eax, al
	test	eax, eax
	je	$LN13@FoundRelig

; 940  : 		{
; 941  : 			pLoopUnit->GetReligionData()->SetReligion(eReligion);

	mov	ecx, DWORD PTR _pLoopUnit$[ebp]
	mov	edx, DWORD PTR [ecx+1888]
	mov	DWORD PTR $T232327[ebp], edx
	mov	eax, DWORD PTR $T232327[ebp]
	mov	ecx, DWORD PTR _eReligion$[ebp]
	mov	DWORD PTR [eax], ecx

; 942  : 			pLoopUnit->GetReligionData()->SetSpreadsLeft(pLoopUnit->getUnitInfo().GetReligionSpreads());

	mov	edx, DWORD PTR _pLoopUnit$[ebp]
	mov	eax, DWORD PTR [edx+1888]
	mov	DWORD PTR $T232334[ebp], eax
	mov	ecx, DWORD PTR _pLoopUnit$[ebp]
	call	?getUnitInfo@CvUnit@@QBEAAVCvUnitEntry@@XZ ; CvUnit::getUnitInfo
	mov	ecx, eax
	call	?GetReligionSpreads@CvUnitEntry@@QBEHXZ	; CvUnitEntry::GetReligionSpreads
	mov	DWORD PTR $T232338[ebp], eax
	mov	ecx, DWORD PTR $T232334[ebp]
	mov	edx, DWORD PTR $T232338[ebp]
	mov	DWORD PTR [ecx+8], edx

; 943  : 			pLoopUnit->GetReligionData()->SetReligiousStrength(pLoopUnit->getUnitInfo().GetReligiousStrength());

	mov	eax, DWORD PTR _pLoopUnit$[ebp]
	mov	ecx, DWORD PTR [eax+1888]
	mov	DWORD PTR $T232342[ebp], ecx
	mov	ecx, DWORD PTR _pLoopUnit$[ebp]
	call	?getUnitInfo@CvUnit@@QBEAAVCvUnitEntry@@XZ ; CvUnit::getUnitInfo
	mov	ecx, eax
	call	?GetReligiousStrength@CvUnitEntry@@QBEHXZ ; CvUnitEntry::GetReligiousStrength
	mov	DWORD PTR $T232346[ebp], eax
	mov	edx, DWORD PTR $T232342[ebp]
	mov	eax, DWORD PTR $T232346[ebp]
	mov	DWORD PTR [edx+4], eax
$LN13@FoundRelig:

; 944  : 		}
; 945  : 	}

	jmp	$LN15@FoundRelig
$LN14@FoundRelig:

; 946  : 
; 947  : 	ICvEngineScriptSystem1* pkScriptSystem = gDLL->GetScriptSystem();

	mov	ecx, DWORD PTR $T232350[ebp]
	mov	DWORD PTR tv193[ebp], ecx
	mov	edx, DWORD PTR ?gGlobals@@3VCvGlobals@@A+8564
	mov	DWORD PTR tv193[ebp], edx
	mov	eax, DWORD PTR tv193[ebp]
	mov	edx, DWORD PTR [eax]
	mov	ecx, DWORD PTR tv193[ebp]
	mov	eax, DWORD PTR [edx+12]
	call	eax
	mov	DWORD PTR _pkScriptSystem$[ebp], eax

; 948  : 	if(pkScriptSystem)

	cmp	DWORD PTR _pkScriptSystem$[ebp], 0
	je	$LN12@FoundRelig

; 949  : 	{
; 950  : 		CvLuaArgsHandle args;

	lea	ecx, DWORD PTR _args$224531[ebp]
	call	??0CvLuaArgsHandle@@QAE@XZ		; CvLuaArgsHandle::CvLuaArgsHandle
	mov	BYTE PTR __$EHRec$[ebp+8], 1

; 951  : 		args->Push(ePlayer);

	mov	ecx, DWORD PTR _args$224531[ebp]
	mov	DWORD PTR tv204[ebp], ecx
	mov	edx, DWORD PTR _ePlayer$[ebp]
	push	edx
	mov	eax, DWORD PTR tv204[ebp]
	mov	edx, DWORD PTR [eax]
	mov	ecx, DWORD PTR tv204[ebp]
	mov	eax, DWORD PTR [edx+8]
	call	eax

; 952  : 		args->Push(pkHolyCity->GetID());

	mov	ecx, DWORD PTR _args$224531[ebp]
	mov	DWORD PTR tv211[ebp], ecx
	mov	edx, DWORD PTR _pkHolyCity$[ebp]
	mov	eax, DWORD PTR [edx+120]
	mov	DWORD PTR $T232365[ebp], eax
	mov	ecx, DWORD PTR $T232365[ebp]
	push	ecx
	mov	edx, DWORD PTR tv211[ebp]
	mov	eax, DWORD PTR [edx]
	mov	ecx, DWORD PTR tv211[ebp]
	mov	edx, DWORD PTR [eax+8]
	call	edx

; 953  : 		args->Push(eReligion);

	mov	eax, DWORD PTR _args$224531[ebp]
	mov	DWORD PTR tv220[ebp], eax
	mov	ecx, DWORD PTR _eReligion$[ebp]
	push	ecx
	mov	edx, DWORD PTR tv220[ebp]
	mov	eax, DWORD PTR [edx]
	mov	ecx, DWORD PTR tv220[ebp]
	mov	edx, DWORD PTR [eax+8]
	call	edx

; 954  : 		args->Push(eBelief);

	mov	eax, DWORD PTR _args$224531[ebp]
	mov	DWORD PTR tv227[ebp], eax
	mov	ecx, DWORD PTR _eBelief$[ebp]
	push	ecx
	mov	edx, DWORD PTR tv227[ebp]
	mov	eax, DWORD PTR [edx]
	mov	ecx, DWORD PTR tv227[ebp]
	mov	edx, DWORD PTR [eax+8]
	call	edx

; 955  : 		args->Push(eBelief1);

	mov	eax, DWORD PTR _args$224531[ebp]
	mov	DWORD PTR tv234[ebp], eax
	mov	ecx, DWORD PTR _eBelief1$[ebp]
	push	ecx
	mov	edx, DWORD PTR tv234[ebp]
	mov	eax, DWORD PTR [edx]
	mov	ecx, DWORD PTR tv234[ebp]
	mov	edx, DWORD PTR [eax+8]
	call	edx

; 956  : 		args->Push(eBelief2);

	mov	eax, DWORD PTR _args$224531[ebp]
	mov	DWORD PTR tv241[ebp], eax
	mov	ecx, DWORD PTR _eBelief2$[ebp]
	push	ecx
	mov	edx, DWORD PTR tv241[ebp]
	mov	eax, DWORD PTR [edx]
	mov	ecx, DWORD PTR tv241[ebp]
	mov	edx, DWORD PTR [eax+8]
	call	edx

; 957  : 		args->Push(eBelief3);

	mov	eax, DWORD PTR _args$224531[ebp]
	mov	DWORD PTR tv248[ebp], eax
	mov	ecx, DWORD PTR _eBelief3$[ebp]
	push	ecx
	mov	edx, DWORD PTR tv248[ebp]
	mov	eax, DWORD PTR [edx]
	mov	ecx, DWORD PTR tv248[ebp]
	mov	edx, DWORD PTR [eax+8]
	call	edx

; 958  : 		args->Push(eBelief4);

	mov	eax, DWORD PTR _args$224531[ebp]
	mov	DWORD PTR tv255[ebp], eax
	mov	ecx, DWORD PTR _eBelief4$[ebp]
	push	ecx
	mov	edx, DWORD PTR tv255[ebp]
	mov	eax, DWORD PTR [edx]
	mov	ecx, DWORD PTR tv255[ebp]
	mov	edx, DWORD PTR [eax+8]
	call	edx

; 959  : 
; 960  : 		bool bResult;
; 961  : 		LuaSupport::CallHook(pkScriptSystem, "ReligionFounded", args.get(), bResult);

	lea	eax, DWORD PTR _bResult$224532[ebp]
	push	eax
	mov	ecx, DWORD PTR _args$224531[ebp]
	push	ecx
	push	OFFSET ??_C@_0BA@NFHMCBIC@ReligionFounded?$AA@
	mov	edx, DWORD PTR _pkScriptSystem$[ebp]
	push	edx
	call	?CallHook@LuaSupport@@YA_NPAVICvEngineScriptSystem1@@PBDPAVICvEngineScriptSystemArgs1@@AA_N@Z ; LuaSupport::CallHook
	add	esp, 16					; 00000010H

; 962  : 	}

	mov	BYTE PTR __$EHRec$[ebp+8], 0
	lea	ecx, DWORD PTR _args$224531[ebp]
	call	??1CvLuaArgsHandle@@QAE@XZ		; CvLuaArgsHandle::~CvLuaArgsHandle
$LN12@FoundRelig:

; 963  : 
; 964  : 	// Send out messaging
; 965  : 	CvReligionEntry* pEntry = GC.getReligionInfo(kReligion.m_eReligion);

	mov	eax, DWORD PTR _kReligion$[ebp]
	push	eax
	mov	ecx, OFFSET ?gGlobals@@3VCvGlobals@@A	; gGlobals
	call	?getReligionInfo@CvGlobals@@QAEPAVCvReligionEntry@@W4ReligionTypes@@@Z ; CvGlobals::getReligionInfo
	mov	DWORD PTR _pEntry$[ebp], eax

; 966  : 	if(pEntry)

	cmp	DWORD PTR _pEntry$[ebp], 0
	je	$LN11@FoundRelig

; 967  : 	{
; 968  : 		//Add replay message
; 969  : 		CvString szReligionName = kReligion.GetName();

	lea	ecx, DWORD PTR _szReligionName$224536[ebp]
	push	ecx
	lea	ecx, DWORD PTR _kReligion$[ebp]
	call	?GetName@CvReligion@@QBE?AVCvString@@XZ	; CvReligion::GetName
	mov	BYTE PTR __$EHRec$[ebp+8], 2

; 970  : 		Localization::String strSummary = Localization::Lookup("TXT_KEY_NOTIFICATION_RELIGION_FOUNDED_S");

	push	OFFSET ??_C@_0CI@MGALAMLN@TXT_KEY_NOTIFICATION_RELIGION_FO@
	lea	edx, DWORD PTR _strSummary$224538[ebp]
	push	edx
	call	DWORD PTR __imp_?Lookup@Localization@@YA?AVString@1@PBD@Z
	add	esp, 8
	mov	BYTE PTR __$EHRec$[ebp+8], 3

; 971  : 		Localization::String replayText = Localization::Lookup("TXT_KEY_NOTIFICATION_RELIGION_FOUNDED");

	push	OFFSET ??_C@_0CG@EDBPGPDC@TXT_KEY_NOTIFICATION_RELIGION_FO@
	lea	eax, DWORD PTR _replayText$224541[ebp]
	push	eax
	call	DWORD PTR __imp_?Lookup@Localization@@YA?AVString@1@PBD@Z
	add	esp, 8
	mov	BYTE PTR __$EHRec$[ebp+8], 4

; 972  : 		replayText << kPlayer.getCivilizationShortDescriptionKey() << szReligionName << pkHolyCity->getNameKey();

	mov	ecx, DWORD PTR _pkHolyCity$[ebp]
	call	?getNameKey@CvCity@@QBEPBDXZ		; CvCity::getNameKey
	mov	DWORD PTR $T232277[ebp], eax
	mov	ecx, DWORD PTR _kPlayer$[ebp]
	call	?getCivilizationShortDescriptionKey@CvPlayer@@QBEPBDXZ ; CvPlayer::getCivilizationShortDescriptionKey
	mov	DWORD PTR $T232278[ebp], eax
	lea	ecx, DWORD PTR $T232277[ebp]
	push	ecx
	lea	edx, DWORD PTR _szReligionName$224536[ebp]
	push	edx
	lea	eax, DWORD PTR $T232278[ebp]
	push	eax
	lea	ecx, DWORD PTR _replayText$224541[ebp]
	push	ecx
	call	??$?6PBD@@YAAAVString@Localization@@AAV01@ABQBD@Z ; operator<<<char const *>
	add	esp, 8
	push	eax
	call	??$?6VCvString@@@@YAAAVString@Localization@@AAV01@ABVCvString@@@Z ; operator<<<CvString>
	add	esp, 8
	push	eax
	call	??$?6PBD@@YAAAVString@Localization@@AAV01@ABQBD@Z ; operator<<<char const *>
	add	esp, 8

; 973  : 
; 974  : 		GC.getGame().addReplayMessage(REPLAY_MESSAGE_RELIGION_FOUNDED, kReligion.m_eFounder, replayText.toUTF8(), kReligion.m_iHolyCityX, kReligion.m_iHolyCityY);

	lea	ecx, DWORD PTR _replayText$224541[ebp]
	call	DWORD PTR __imp_?toUTF8@String@Localization@@QAEPBDXZ
	mov	DWORD PTR $T232395[ebp], eax
	cmp	DWORD PTR $T232395[ebp], 0
	je	SHORT $LN91@FoundRelig
	mov	edx, DWORD PTR $T232395[ebp]
	mov	DWORD PTR tv215[ebp], edx
	jmp	SHORT $LN92@FoundRelig
$LN91@FoundRelig:
	mov	DWORD PTR tv215[ebp], OFFSET ??_C@_00CNPNBAHC@?$AA@
$LN92@FoundRelig:
	mov	eax, DWORD PTR tv215[ebp]
	push	eax
	lea	ecx, DWORD PTR $T232279[ebp]
	call	DWORD PTR __imp_??0?$basic_string@DU?$char_traits@D@std@@V?$allocator@D@2@@std@@QAE@PBD@Z
	mov	BYTE PTR __$EHRec$[ebp+8], 5
	mov	ecx, DWORD PTR ?gGlobals@@3VCvGlobals@@A+48
	mov	DWORD PTR $T232399[ebp], ecx
	mov	edx, DWORD PTR _kReligion$[ebp+12]
	push	edx
	mov	eax, DWORD PTR _kReligion$[ebp+8]
	push	eax
	lea	ecx, DWORD PTR $T232279[ebp]
	push	ecx
	mov	edx, DWORD PTR _kReligion$[ebp+4]
	push	edx
	push	5
	mov	ecx, DWORD PTR $T232399[ebp]
	call	?addReplayMessage@CvGame@@QAEXW4ReplayMessageTypes@@W4PlayerTypes@@ABVCvString@@HH@Z ; CvGame::addReplayMessage
	mov	BYTE PTR __$EHRec$[ebp+8], 4
	lea	ecx, DWORD PTR $T232279[ebp]
	call	DWORD PTR __imp_??1?$basic_string@DU?$char_traits@D@std@@V?$allocator@D@2@@std@@QAE@XZ

; 975  : 
; 976  : 		//Notify the masses
; 977  : 		for(int iNotifyLoop = 0; iNotifyLoop < MAX_MAJOR_CIVS; ++iNotifyLoop){

	mov	DWORD PTR _iNotifyLoop$224547[ebp], 0
	jmp	SHORT $LN10@FoundRelig
$LN9@FoundRelig:
	mov	eax, DWORD PTR _iNotifyLoop$224547[ebp]
	add	eax, 1
	mov	DWORD PTR _iNotifyLoop$224547[ebp], eax
$LN10@FoundRelig:
	cmp	DWORD PTR _iNotifyLoop$224547[ebp], 22	; 00000016H
	jge	$LN8@FoundRelig

; 978  : 			PlayerTypes eNotifyPlayer = (PlayerTypes) iNotifyLoop;

	mov	ecx, DWORD PTR _iNotifyLoop$224547[ebp]
	mov	DWORD PTR _eNotifyPlayer$224551[ebp], ecx

; 979  : 			CvPlayerAI& kNotifyPlayer = GET_PLAYER(eNotifyPlayer);

	mov	edx, DWORD PTR _eNotifyPlayer$224551[ebp]
	imul	edx, 63236				; 0000f704H
	add	edx, DWORD PTR ?m_aPlayers@CvPlayerAI@@1PAV1@A ; CvPlayerAI::m_aPlayers
	mov	DWORD PTR _kNotifyPlayer$224553[ebp], edx

; 980  : 			CvNotifications* pNotifications = kNotifyPlayer.GetNotifications();

	mov	ecx, DWORD PTR _kNotifyPlayer$224553[ebp]
	call	?GetNotifications@CvPlayer@@QBEPAVCvNotifications@@XZ ; CvPlayer::GetNotifications
	mov	DWORD PTR _pNotifications$224554[ebp], eax

; 981  : 			if(pNotifications){

	cmp	DWORD PTR _pNotifications$224554[ebp], 0
	je	$LN7@FoundRelig

; 982  : 				// Message slightly different for founder player
; 983  : 				if(kReligion.m_eFounder == eNotifyPlayer)

	mov	eax, DWORD PTR _kReligion$[ebp+4]
	cmp	eax, DWORD PTR _eNotifyPlayer$224551[ebp]
	jne	$LN103@FoundRelig

; 984  : 				{
; 985  : 					Localization::String localizedText = Localization::Lookup("TXT_KEY_NOTIFICATION_RELIGION_FOUNDED_ACTIVE_PLAYER");

	push	OFFSET ??_C@_0DE@BMIJDLOE@TXT_KEY_NOTIFICATION_RELIGION_FO@
	lea	ecx, DWORD PTR _localizedText$224557[ebp]
	push	ecx
	call	DWORD PTR __imp_?Lookup@Localization@@YA?AVString@1@PBD@Z
	add	esp, 8
	mov	BYTE PTR __$EHRec$[ebp+8], 6

; 986  : 					localizedText << szReligionName << pkHolyCity->getNameKey();

	mov	ecx, DWORD PTR _pkHolyCity$[ebp]
	call	?getNameKey@CvCity@@QBEPBDXZ		; CvCity::getNameKey
	mov	DWORD PTR $T232280[ebp], eax
	lea	edx, DWORD PTR $T232280[ebp]
	push	edx
	lea	eax, DWORD PTR _szReligionName$224536[ebp]
	push	eax
	lea	ecx, DWORD PTR _localizedText$224557[ebp]
	push	ecx
	call	??$?6VCvString@@@@YAAAVString@Localization@@AAV01@ABVCvString@@@Z ; operator<<<CvString>
	add	esp, 8
	push	eax
	call	??$?6PBD@@YAAAVString@Localization@@AAV01@ABQBD@Z ; operator<<<char const *>
	add	esp, 8

; 987  : 
; 988  : 					pNotifications->Add(NOTIFICATION_RELIGION_FOUNDED_ACTIVE_PLAYER, localizedText.toUTF8(), strSummary.toUTF8(), -1, -1, -1);

	push	-1
	push	-1
	push	-1
	push	-1
	lea	ecx, DWORD PTR _strSummary$224538[ebp]
	call	DWORD PTR __imp_?toUTF8@String@Localization@@QAEPBDXZ
	push	eax
	lea	ecx, DWORD PTR _localizedText$224557[ebp]
	call	DWORD PTR __imp_?toUTF8@String@Localization@@QAEPBDXZ
	push	eax
	push	216217508				; 0ce337a4H
	mov	ecx, DWORD PTR _pNotifications$224554[ebp]
	call	?Add@CvNotifications@@QAEHW4NotificationTypes@@PBD1HHHH@Z ; CvNotifications::Add

; 989  : 				}

	mov	BYTE PTR __$EHRec$[ebp+8], 4
	lea	ecx, DWORD PTR _localizedText$224557[ebp]
	call	DWORD PTR __imp_??1String@Localization@@UAE@XZ

; 990  : 				else

	jmp	$LN7@FoundRelig

; 991  : 				{
; 992  : 					CvTeam& kNotifyTeam = GET_TEAM(kNotifyPlayer.getTeam());

$LN103@FoundRelig:
	mov	edx, DWORD PTR _kNotifyPlayer$224553[ebp]
	mov	eax, DWORD PTR [edx+44]
	push	eax
	call	?teamType@CvPreGame@@YA?AW4TeamTypes@@W4PlayerTypes@@@Z ; CvPreGame::teamType
	add	esp, 4
	mov	DWORD PTR $T232415[ebp], eax
	mov	ecx, DWORD PTR $T232415[ebp]
	imul	ecx, 2984				; 00000ba8H
	add	ecx, DWORD PTR ?m_aTeams@CvTeam@@1PAV1@A ; CvTeam::m_aTeams
	mov	DWORD PTR _kNotifyTeam$224562[ebp], ecx

; 993  : 
; 994  : 					if(kNotifyTeam.isHasMet(kPlayer.getTeam()))

	mov	edx, DWORD PTR _kPlayer$[ebp]
	mov	eax, DWORD PTR [edx+44]
	push	eax
	call	?teamType@CvPreGame@@YA?AW4TeamTypes@@W4PlayerTypes@@@Z ; CvPreGame::teamType
	add	esp, 4
	mov	DWORD PTR $T232427[ebp], eax
	mov	ecx, DWORD PTR $T232427[ebp]
	push	ecx
	mov	ecx, DWORD PTR _kNotifyTeam$224562[ebp]
	call	?isHasMet@CvTeam@@QBE_NW4TeamTypes@@@Z	; CvTeam::isHasMet
	movzx	edx, al
	test	edx, edx
	je	SHORT $LN4@FoundRelig

; 995  : 					{
; 996  : 						pNotifications->Add(NOTIFICATION_RELIGION_FOUNDED, replayText.toUTF8(), strSummary.toUTF8(), -1, -1, -1);

	push	-1
	push	-1
	push	-1
	push	-1
	lea	ecx, DWORD PTR _strSummary$224538[ebp]
	call	DWORD PTR __imp_?toUTF8@String@Localization@@QAEPBDXZ
	push	eax
	lea	ecx, DWORD PTR _replayText$224541[ebp]
	call	DWORD PTR __imp_?toUTF8@String@Localization@@QAEPBDXZ
	push	eax
	push	1516141982				; 5a5e7d9eH
	mov	ecx, DWORD PTR _pNotifications$224554[ebp]
	call	?Add@CvNotifications@@QAEHW4NotificationTypes@@PBD1HHHH@Z ; CvNotifications::Add

; 997  : 					}
; 998  : 					else

	jmp	SHORT $LN7@FoundRelig
$LN4@FoundRelig:

; 999  : 					{
; 1000 : 						Localization::String unknownCivText = Localization::Lookup("TXT_KEY_NOTIFICATION_RELIGION_FOUNDED_UNKNOWN");

	push	OFFSET ??_C@_0CO@LFPOIJKI@TXT_KEY_NOTIFICATION_RELIGION_FO@
	lea	eax, DWORD PTR _unknownCivText$224565[ebp]
	push	eax
	call	DWORD PTR __imp_?Lookup@Localization@@YA?AVString@1@PBD@Z
	add	esp, 8
	mov	BYTE PTR __$EHRec$[ebp+8], 7

; 1001 : 						unknownCivText << szReligionName;

	lea	ecx, DWORD PTR _szReligionName$224536[ebp]
	push	ecx
	lea	edx, DWORD PTR _unknownCivText$224565[ebp]
	push	edx
	call	??$?6VCvString@@@@YAAAVString@Localization@@AAV01@ABVCvString@@@Z ; operator<<<CvString>
	add	esp, 8

; 1002 : 
; 1003 : 						pNotifications->Add(NOTIFICATION_RELIGION_FOUNDED, unknownCivText.toUTF8(), strSummary.toUTF8(), -1, -1, -1);

	push	-1
	push	-1
	push	-1
	push	-1
	lea	ecx, DWORD PTR _strSummary$224538[ebp]
	call	DWORD PTR __imp_?toUTF8@String@Localization@@QAEPBDXZ
	push	eax
	lea	ecx, DWORD PTR _unknownCivText$224565[ebp]
	call	DWORD PTR __imp_?toUTF8@String@Localization@@QAEPBDXZ
	push	eax
	push	1516141982				; 5a5e7d9eH
	mov	ecx, DWORD PTR _pNotifications$224554[ebp]
	call	?Add@CvNotifications@@QAEHW4NotificationTypes@@PBD1HHHH@Z ; CvNotifications::Add

; 1004 : 					}

	mov	BYTE PTR __$EHRec$[ebp+8], 4
	lea	ecx, DWORD PTR _unknownCivText$224565[ebp]
	call	DWORD PTR __imp_??1String@Localization@@UAE@XZ
$LN7@FoundRelig:

; 1005 : 				}
; 1006 : 			}
; 1007 : 		}

	jmp	$LN9@FoundRelig
$LN8@FoundRelig:

; 1008 : 
; 1009 : 		// Logging
; 1010 : 		if(GC.getLogging())

	mov	ecx, OFFSET ?gGlobals@@3VCvGlobals@@A	; gGlobals
	call	?getLogging@CvGlobals@@QAE_NXZ		; CvGlobals::getLogging
	movzx	eax, al
	test	eax, eax
	je	$LN2@FoundRelig

; 1011 : 		{
; 1012 : 			CvString strLogMsg;

	lea	ecx, DWORD PTR _strLogMsg$224569[ebp]
	call	DWORD PTR __imp_??0?$basic_string@DU?$char_traits@D@std@@V?$allocator@D@2@@std@@QAE@XZ
	mov	BYTE PTR __$EHRec$[ebp+8], 8

; 1013 : 			strLogMsg = kPlayer.getCivilizationShortDescription();

	mov	ecx, DWORD PTR _kPlayer$[ebp]
	call	?getCivilizationShortDescription@CvPlayer@@QBEPBDXZ ; CvPlayer::getCivilizationShortDescription
	mov	DWORD PTR $T232437[ebp], eax
	cmp	DWORD PTR $T232437[ebp], 0
	je	SHORT $LN115@FoundRelig
	mov	ecx, DWORD PTR $T232437[ebp]
	push	ecx
	lea	ecx, DWORD PTR _strLogMsg$224569[ebp]
	call	DWORD PTR __imp_?assign@?$basic_string@DU?$char_traits@D@std@@V?$allocator@D@2@@std@@QAEAAV12@PBD@Z
	jmp	SHORT $LN116@FoundRelig
$LN115@FoundRelig:
	lea	ecx, DWORD PTR _strLogMsg$224569[ebp]
	call	DWORD PTR __imp_?clear@?$basic_string@DU?$char_traits@D@std@@V?$allocator@D@2@@std@@QAEXXZ
$LN116@FoundRelig:

; 1014 : 			strLogMsg += ", RELIGION FOUNDED, ";

	push	OFFSET ??_C@_0BF@BPDCCHHG@?0?5RELIGION?5FOUNDED?0?5?$AA@
	lea	ecx, DWORD PTR _strLogMsg$224569[ebp]
	call	DWORD PTR __imp_??Y?$basic_string@DU?$char_traits@D@std@@V?$allocator@D@2@@std@@QAEAAV01@PBD@Z

; 1015 : 			strLogMsg += pkHolyCity->getName();

	lea	edx, DWORD PTR $T232281[ebp]
	push	edx
	mov	ecx, DWORD PTR _pkHolyCity$[ebp]
	call	?getName@CvCity@@QBE?BVCvString@@XZ	; CvCity::getName
	mov	DWORD PTR tv390[ebp], eax
	mov	eax, DWORD PTR tv390[ebp]
	mov	DWORD PTR tv509[ebp], eax
	mov	BYTE PTR __$EHRec$[ebp+8], 9
	mov	ecx, DWORD PTR tv509[ebp]
	push	ecx
	lea	ecx, DWORD PTR _strLogMsg$224569[ebp]
	call	DWORD PTR __imp_??Y?$basic_string@DU?$char_traits@D@std@@V?$allocator@D@2@@std@@QAEAAV01@ABV01@@Z
	mov	BYTE PTR __$EHRec$[ebp+8], 8
	lea	ecx, DWORD PTR $T232281[ebp]
	call	DWORD PTR __imp_??1?$basic_string@DU?$char_traits@D@std@@V?$allocator@D@2@@std@@QAE@XZ

; 1016 : 			strLogMsg += ", ";

	push	OFFSET ??_C@_02KEGNLNML@?0?5?$AA@
	lea	ecx, DWORD PTR _strLogMsg$224569[ebp]
	call	DWORD PTR __imp_??Y?$basic_string@DU?$char_traits@D@std@@V?$allocator@D@2@@std@@QAEAAV01@PBD@Z

; 1017 : 			strLogMsg += pEntry->GetDescription();

	mov	ecx, DWORD PTR _pEntry$[ebp]
	add	ecx, 36					; 00000024H
	call	DWORD PTR __imp_?c_str@?$basic_string@DU?$char_traits@D@std@@V?$allocator@D@2@@std@@QBEPBDXZ
	push	eax
	lea	ecx, DWORD PTR _strLogMsg$224569[ebp]
	call	DWORD PTR __imp_??Y?$basic_string@DU?$char_traits@D@std@@V?$allocator@D@2@@std@@QAEAAV01@PBD@Z

; 1018 : 			LogReligionMessage(strLogMsg);

	lea	edx, DWORD PTR _strLogMsg$224569[ebp]
	push	edx
	mov	ecx, DWORD PTR _this$[ebp]
	call	?LogReligionMessage@CvGameReligions@@QAEXAAVCvString@@@Z ; CvGameReligions::LogReligionMessage

; 1019 : 		}

	mov	BYTE PTR __$EHRec$[ebp+8], 4
	lea	ecx, DWORD PTR _strLogMsg$224569[ebp]
	call	DWORD PTR __imp_??1?$basic_string@DU?$char_traits@D@std@@V?$allocator@D@2@@std@@QAE@XZ
$LN2@FoundRelig:

; 1020 : 
; 1021 : 		//Achievements!
; 1022 : 		if(ePlayer == GC.getGame().getActivePlayer())

	mov	eax, DWORD PTR ?gGlobals@@3VCvGlobals@@A+48
	mov	DWORD PTR $T232452[ebp], eax
	mov	ecx, DWORD PTR $T232452[ebp]
	call	?getActivePlayer@CvGame@@QBE?AW4PlayerTypes@@XZ ; CvGame::getActivePlayer
	cmp	DWORD PTR _ePlayer$[ebp], eax
	jne	SHORT $LN1@FoundRelig

; 1023 : 		{
; 1024 : 			gDLL->UnlockAchievement(ACHIEVEMENT_XP1_11);

	mov	ecx, DWORD PTR $T232456[ebp]
	mov	DWORD PTR tv483[ebp], ecx
	mov	edx, DWORD PTR ?gGlobals@@3VCvGlobals@@A+8564
	mov	DWORD PTR tv483[ebp], edx
	push	201					; 000000c9H
	mov	eax, DWORD PTR tv483[ebp]
	mov	edx, DWORD PTR [eax]
	mov	ecx, DWORD PTR tv483[ebp]
	mov	eax, DWORD PTR [edx+828]
	call	eax
$LN1@FoundRelig:

; 1025 : 		}
; 1026 : 	}

	mov	BYTE PTR __$EHRec$[ebp+8], 3
	lea	ecx, DWORD PTR _replayText$224541[ebp]
	call	DWORD PTR __imp_??1String@Localization@@UAE@XZ
	mov	BYTE PTR __$EHRec$[ebp+8], 2
	lea	ecx, DWORD PTR _strSummary$224538[ebp]
	call	DWORD PTR __imp_??1String@Localization@@UAE@XZ
	mov	BYTE PTR __$EHRec$[ebp+8], 0
	lea	ecx, DWORD PTR _szReligionName$224536[ebp]
	call	DWORD PTR __imp_??1?$basic_string@DU?$char_traits@D@std@@V?$allocator@D@2@@std@@QAE@XZ
$LN11@FoundRelig:

; 1027 : 	GC.GetEngineUserInterface()->setDirty(CityInfo_DIRTY_BIT, true);

	mov	ecx, DWORD PTR $T232464[ebp]
	mov	DWORD PTR tv494[ebp], ecx
	mov	edx, DWORD PTR ?gGlobals@@3VCvGlobals@@A+8568
	mov	DWORD PTR tv494[ebp], edx
	push	1
	push	18					; 00000012H
	mov	eax, DWORD PTR tv494[ebp]
	mov	edx, DWORD PTR [eax]
	mov	ecx, DWORD PTR tv494[ebp]
	mov	eax, DWORD PTR [edx+260]
	call	eax

; 1028 : }

	mov	DWORD PTR __$EHRec$[ebp+8], -1
	lea	ecx, DWORD PTR _kReligion$[ebp+152]
	call	??1CvReligionBeliefs@@QAE@XZ		; CvReligionBeliefs::~CvReligionBeliefs
	mov	ecx, DWORD PTR __$EHRec$[ebp]
	mov	DWORD PTR fs:0, ecx
	pop	ecx
	mov	ecx, DWORD PTR __$ArrayPad$[ebp]
	xor	ecx, ebp
	call	@__security_check_cookie@4
	mov	esp, ebp
	pop	ebp
	ret	32					; 00000020H
_TEXT	ENDS
;	COMDAT text$x
text$x	SEGMENT
__unwindfunclet$?FoundReligion@CvGameReligions@@QAEXW4PlayerTypes@@W4ReligionTypes@@PBDW4BeliefTypes@@333PAVCvCity@@@Z$0:
	lea	ecx, DWORD PTR _kReligion$[ebp]
	jmp	??1CvReligion@@QAE@XZ
__unwindfunclet$?FoundReligion@CvGameReligions@@QAEXW4PlayerTypes@@W4ReligionTypes@@PBDW4BeliefTypes@@333PAVCvCity@@@Z$1:
	lea	ecx, DWORD PTR _args$224531[ebp]
	jmp	??1CvLuaArgsHandle@@QAE@XZ		; CvLuaArgsHandle::~CvLuaArgsHandle
__unwindfunclet$?FoundReligion@CvGameReligions@@QAEXW4PlayerTypes@@W4ReligionTypes@@PBDW4BeliefTypes@@333PAVCvCity@@@Z$2:
	lea	ecx, DWORD PTR _szReligionName$224536[ebp]
	jmp	??1CvString@@QAE@XZ			; CvString::~CvString
__unwindfunclet$?FoundReligion@CvGameReligions@@QAEXW4PlayerTypes@@W4ReligionTypes@@PBDW4BeliefTypes@@333PAVCvCity@@@Z$3:
	lea	ecx, DWORD PTR _strSummary$224538[ebp]
	jmp	DWORD PTR __imp_??1String@Localization@@UAE@XZ
__unwindfunclet$?FoundReligion@CvGameReligions@@QAEXW4PlayerTypes@@W4ReligionTypes@@PBDW4BeliefTypes@@333PAVCvCity@@@Z$4:
	lea	ecx, DWORD PTR _replayText$224541[ebp]
	jmp	DWORD PTR __imp_??1String@Localization@@UAE@XZ
__unwindfunclet$?FoundReligion@CvGameReligions@@QAEXW4PlayerTypes@@W4ReligionTypes@@PBDW4BeliefTypes@@333PAVCvCity@@@Z$5:
	lea	ecx, DWORD PTR $T232279[ebp]
	jmp	??1CvString@@QAE@XZ			; CvString::~CvString
__unwindfunclet$?FoundReligion@CvGameReligions@@QAEXW4PlayerTypes@@W4ReligionTypes@@PBDW4BeliefTypes@@333PAVCvCity@@@Z$6:
	lea	ecx, DWORD PTR _localizedText$224557[ebp]
	jmp	DWORD PTR __imp_??1String@Localization@@UAE@XZ
__unwindfunclet$?FoundReligion@CvGameReligions@@QAEXW4PlayerTypes@@W4ReligionTypes@@PBDW4BeliefTypes@@333PAVCvCity@@@Z$7:
	lea	ecx, DWORD PTR _unknownCivText$224565[ebp]
	jmp	DWORD PTR __imp_??1String@Localization@@UAE@XZ
__unwindfunclet$?FoundReligion@CvGameReligions@@QAEXW4PlayerTypes@@W4ReligionTypes@@PBDW4BeliefTypes@@333PAVCvCity@@@Z$8:
	lea	ecx, DWORD PTR _strLogMsg$224569[ebp]
	jmp	??1CvString@@QAE@XZ			; CvString::~CvString
__unwindfunclet$?FoundReligion@CvGameReligions@@QAEXW4PlayerTypes@@W4ReligionTypes@@PBDW4BeliefTypes@@333PAVCvCity@@@Z$9:
	lea	ecx, DWORD PTR $T232281[ebp]
	jmp	??1CvString@@QAE@XZ			; CvString::~CvString
__ehhandler$?FoundReligion@CvGameReligions@@QAEXW4PlayerTypes@@W4ReligionTypes@@PBDW4BeliefTypes@@333PAVCvCity@@@Z:
	mov	edx, DWORD PTR [esp+8]
	lea	eax, DWORD PTR [edx+12]
	mov	ecx, DWORD PTR [edx-1000]
	xor	ecx, eax
	call	@__security_check_cookie@4
	mov	ecx, DWORD PTR [edx-28]
	xor	ecx, eax
	call	@__security_check_cookie@4
	mov	eax, OFFSET __ehfuncinfo$?FoundReligion@CvGameReligions@@QAEXW4PlayerTypes@@W4ReligionTypes@@PBDW4BeliefTypes@@333PAVCvCity@@@Z
	jmp	___CxxFrameHandler3
text$x	ENDS
?FoundReligion@CvGameReligions@@QAEXW4PlayerTypes@@W4ReligionTypes@@PBDW4BeliefTypes@@333PAVCvCity@@@Z ENDP ; CvGameReligions::FoundReligion
PUBLIC	__$ArrayPad$
PUBLIC	?CanFoundReligion@CvGameReligions@@QAE?AW4FOUNDING_RESULT@1@W4PlayerTypes@@W4ReligionTypes@@PBDW4BeliefTypes@@333PAVCvCity@@@Z ; CvGameReligions::CanFoundReligion
EXTRN	?GetBelief@CvReligionBeliefs@@QBE?AW4BeliefTypes@@H@Z:PROC ; CvReligionBeliefs::GetBelief
EXTRN	?GetNumBeliefs@CvReligionBeliefs@@QBEHXZ:PROC	; CvReligionBeliefs::GetNumBeliefs
;	COMDAT xdata$x
xdata$x	SEGMENT
__unwindtable$?CanFoundReligion@CvGameReligions@@QAE?AW4FOUNDING_RESULT@1@W4PlayerTypes@@W4ReligionTypes@@PBDW4BeliefTypes@@333PAVCvCity@@@Z DD 0ffffffffH
	DD	FLAT:__unwindfunclet$?CanFoundReligion@CvGameReligions@@QAE?AW4FOUNDING_RESULT@1@W4PlayerTypes@@W4ReligionTypes@@PBDW4BeliefTypes@@333PAVCvCity@@@Z$0
__ehfuncinfo$?CanFoundReligion@CvGameReligions@@QAE?AW4FOUNDING_RESULT@1@W4PlayerTypes@@W4ReligionTypes@@PBDW4BeliefTypes@@333PAVCvCity@@@Z DD 019930522H
	DD	01H
	DD	FLAT:__unwindtable$?CanFoundReligion@CvGameReligions@@QAE?AW4FOUNDING_RESULT@1@W4PlayerTypes@@W4ReligionTypes@@PBDW4BeliefTypes@@333PAVCvCity@@@Z
	DD	2 DUP(00H)
	DD	2 DUP(00H)
	DD	00H
	DD	01H
; Function compile flags: /Odtp
xdata$x	ENDS
;	COMDAT ?CanFoundReligion@CvGameReligions@@QAE?AW4FOUNDING_RESULT@1@W4PlayerTypes@@W4ReligionTypes@@PBDW4BeliefTypes@@333PAVCvCity@@@Z
_TEXT	SEGMENT
tv143 = -416						; size = 4
tv228 = -409						; size = 1
tv225 = -408						; size = 4
tv222 = -404						; size = 4
_this$ = -400						; size = 4
$T232498 = -396						; size = 4
$T232494 = -392						; size = 4
$T232481 = -388						; size = 4
$T232480 = -384						; size = 4
$T232479 = -380						; size = 4
_eDestBelief$224612 = -376				; size = 4
_iDestBelief$224608 = -372				; size = 4
_eSrcBelief$224606 = -368				; size = 4
_iSrcBelief$224602 = -364				; size = 4
_it$224595 = -360					; size = 4
_kReligion$ = -356					; size = 328
__$ArrayPad$ = -24					; size = 4
_eBelief$ = -20						; size = 4
_kPlayer$ = -16						; size = 4
__$EHRec$ = -12						; size = 12
_ePlayer$ = 8						; size = 4
_eReligion$ = 12					; size = 4
_szCustomName$ = 16					; size = 4
_eBelief1$ = 20						; size = 4
_eBelief2$ = 24						; size = 4
_eBelief3$ = 28						; size = 4
_eBelief4$ = 32						; size = 4
_pkHolyCity$ = 36					; size = 4
?CanFoundReligion@CvGameReligions@@QAE?AW4FOUNDING_RESULT@1@W4PlayerTypes@@W4ReligionTypes@@PBDW4BeliefTypes@@333PAVCvCity@@@Z PROC ; CvGameReligions::CanFoundReligion, COMDAT
; _this$ = ecx

; 1032 : {

	push	ebp
	mov	ebp, esp
	push	-1
	push	__ehhandler$?CanFoundReligion@CvGameReligions@@QAE?AW4FOUNDING_RESULT@1@W4PlayerTypes@@W4ReligionTypes@@PBDW4BeliefTypes@@333PAVCvCity@@@Z
	mov	eax, DWORD PTR fs:0
	push	eax
	sub	esp, 404				; 00000194H
	mov	eax, DWORD PTR ___security_cookie
	xor	eax, ebp
	mov	DWORD PTR __$ArrayPad$[ebp], eax
	push	eax
	lea	eax, DWORD PTR __$EHRec$[ebp]
	mov	DWORD PTR fs:0, eax
	mov	DWORD PTR _this$[ebp], ecx

; 1033 : 	if(GetNumReligionsStillToFound() <= 0)

	mov	ecx, DWORD PTR _this$[ebp]
	call	?GetNumReligionsStillToFound@CvGameReligions@@QBEHXZ ; CvGameReligions::GetNumReligionsStillToFound
	test	eax, eax
	jg	SHORT $LN18@CanFoundRe

; 1034 : 		return FOUNDING_NO_RELIGIONS_AVAILABLE;

	mov	eax, 4
	jmp	$LN19@CanFoundRe
$LN18@CanFoundRe:

; 1035 : 
; 1036 : 	if(ePlayer == NO_PLAYER)

	cmp	DWORD PTR _ePlayer$[ebp], -1
	jne	SHORT $LN17@CanFoundRe

; 1037 : 		return FOUNDING_INVALID_PLAYER;

	mov	eax, 5
	jmp	$LN19@CanFoundRe
$LN17@CanFoundRe:

; 1038 : 
; 1039 : 	if(HasCreatedReligion(ePlayer))

	mov	eax, DWORD PTR _ePlayer$[ebp]
	push	eax
	mov	ecx, DWORD PTR _this$[ebp]
	call	?HasCreatedReligion@CvGameReligions@@QBE_NW4PlayerTypes@@@Z ; CvGameReligions::HasCreatedReligion
	movzx	ecx, al
	test	ecx, ecx
	je	SHORT $LN22@CanFoundRe

; 1040 : 		return FOUNDING_PLAYER_ALREADY_CREATED_RELIGION;

	mov	eax, 6
	jmp	$LN19@CanFoundRe

; 1041 : 
; 1042 : 	CvPlayer& kPlayer = GET_PLAYER(ePlayer);

$LN22@CanFoundRe:
	mov	edx, DWORD PTR _ePlayer$[ebp]
	imul	edx, 63236				; 0000f704H
	add	edx, DWORD PTR ?m_aPlayers@CvPlayerAI@@1PAV1@A ; CvPlayerAI::m_aPlayers
	mov	DWORD PTR _kPlayer$[ebp], edx

; 1043 : 
; 1044 : #ifdef AUI_RELIGION_FIX_NO_BELIEFS_AVAILABLE_CHECK_FOR_NON_PANTHEON_MOVED
; 1045 : 	if (!IsAnyAvailableFounderBeliefs() || !IsAnyAvailableFollowerBeliefs())
; 1046 : 	{
; 1047 : 		return FOUNDING_NO_BELIEFS_AVAILABLE;
; 1048 : 	}
; 1049 : 	if (eReligion == NO_RELIGION || pkHolyCity == NULL || eBelief1 == NO_BELIEF || eBelief2 == NO_BELIEF)
; 1050 : 	{
; 1051 : 		if (kPlayer.GetReligions()->IsFoundingReligion())
; 1052 : 		{
; 1053 : 			return FOUNDING_PLAYER_ALREADY_CREATED_RELIGION;
; 1054 : 		}
; 1055 : 		return FOUNDING_OK;
; 1056 : 	}
; 1057 : #endif
; 1058 : 
; 1059 : 	CvReligion kReligion(eReligion, ePlayer, pkHolyCity, false);

	push	0
	mov	eax, DWORD PTR _pkHolyCity$[ebp]
	push	eax
	mov	ecx, DWORD PTR _ePlayer$[ebp]
	push	ecx
	mov	edx, DWORD PTR _eReligion$[ebp]
	push	edx
	lea	ecx, DWORD PTR _kReligion$[ebp]
	call	??0CvReligion@@QAE@W4ReligionTypes@@W4PlayerTypes@@PAVCvCity@@_N@Z ; CvReligion::CvReligion
	mov	DWORD PTR __$EHRec$[ebp+8], 0

; 1060 : 
; 1061 : 	// Copy over belief from your pantheon
; 1062 : 	BeliefTypes eBelief = GC.getGame().GetGameReligions()->GetBeliefInPantheon(kPlayer.GetID());

	mov	eax, DWORD PTR _kPlayer$[ebp]
	mov	ecx, DWORD PTR [eax+44]
	mov	DWORD PTR $T232494[ebp], ecx
	mov	edx, DWORD PTR ?gGlobals@@3VCvGlobals@@A+48
	mov	DWORD PTR $T232498[ebp], edx
	mov	eax, DWORD PTR $T232494[ebp]
	push	eax
	mov	ecx, DWORD PTR $T232498[ebp]
	call	?GetGameReligions@CvGame@@QAEPAVCvGameReligions@@XZ ; CvGame::GetGameReligions
	mov	ecx, eax
	call	?GetBeliefInPantheon@CvGameReligions@@QBE?AW4BeliefTypes@@W4PlayerTypes@@@Z ; CvGameReligions::GetBeliefInPantheon
	mov	DWORD PTR _eBelief$[ebp], eax

; 1063 : 	if(eBelief != NO_BELIEF)

	cmp	DWORD PTR _eBelief$[ebp], -1
	je	SHORT $LN15@CanFoundRe

; 1064 : 		kReligion.m_Beliefs.AddBelief(eBelief);

	mov	ecx, DWORD PTR _eBelief$[ebp]
	push	ecx
	lea	ecx, DWORD PTR _kReligion$[ebp+152]
	call	?AddBelief@CvReligionBeliefs@@QAEXW4BeliefTypes@@@Z ; CvReligionBeliefs::AddBelief
$LN15@CanFoundRe:

; 1065 : 
; 1066 : 	kReligion.m_Beliefs.AddBelief(eBelief1);

	mov	edx, DWORD PTR _eBelief1$[ebp]
	push	edx
	lea	ecx, DWORD PTR _kReligion$[ebp+152]
	call	?AddBelief@CvReligionBeliefs@@QAEXW4BeliefTypes@@@Z ; CvReligionBeliefs::AddBelief

; 1067 : 	kReligion.m_Beliefs.AddBelief(eBelief2);

	mov	eax, DWORD PTR _eBelief2$[ebp]
	push	eax
	lea	ecx, DWORD PTR _kReligion$[ebp+152]
	call	?AddBelief@CvReligionBeliefs@@QAEXW4BeliefTypes@@@Z ; CvReligionBeliefs::AddBelief

; 1068 : 
; 1069 : 	if(eBelief3 != NO_BELIEF)

	cmp	DWORD PTR _eBelief3$[ebp], -1
	je	SHORT $LN14@CanFoundRe

; 1070 : 	{
; 1071 : 		kReligion.m_Beliefs.AddBelief(eBelief3);

	mov	ecx, DWORD PTR _eBelief3$[ebp]
	push	ecx
	lea	ecx, DWORD PTR _kReligion$[ebp+152]
	call	?AddBelief@CvReligionBeliefs@@QAEXW4BeliefTypes@@@Z ; CvReligionBeliefs::AddBelief
$LN14@CanFoundRe:

; 1072 : 	}
; 1073 : 
; 1074 : 	if(eBelief4 != NO_BELIEF)

	cmp	DWORD PTR _eBelief4$[ebp], -1
	je	SHORT $LN13@CanFoundRe

; 1075 : 	{
; 1076 : 		kReligion.m_Beliefs.AddBelief(eBelief4);

	mov	edx, DWORD PTR _eBelief4$[ebp]
	push	edx
	lea	ecx, DWORD PTR _kReligion$[ebp+152]
	call	?AddBelief@CvReligionBeliefs@@QAEXW4BeliefTypes@@@Z ; CvReligionBeliefs::AddBelief
$LN13@CanFoundRe:

; 1077 : 	}
; 1078 : 
; 1079 : 	if(szCustomName != NULL && strlen(szCustomName) <= sizeof(kReligion.m_szCustomName))

	cmp	DWORD PTR _szCustomName$[ebp], 0
	je	SHORT $LN12@CanFoundRe
	mov	eax, DWORD PTR _szCustomName$[ebp]
	mov	DWORD PTR tv222[ebp], eax
	mov	ecx, DWORD PTR tv222[ebp]
	add	ecx, 1
	mov	DWORD PTR tv225[ebp], ecx
$LL45@CanFoundRe:
	mov	edx, DWORD PTR tv222[ebp]
	mov	al, BYTE PTR [edx]
	mov	BYTE PTR tv228[ebp], al
	add	DWORD PTR tv222[ebp], 1
	cmp	BYTE PTR tv228[ebp], 0
	jne	SHORT $LL45@CanFoundRe
	mov	ecx, DWORD PTR tv222[ebp]
	sub	ecx, DWORD PTR tv225[ebp]
	mov	DWORD PTR tv143[ebp], ecx
	cmp	DWORD PTR tv143[ebp], 128		; 00000080H
	ja	SHORT $LN12@CanFoundRe

; 1080 : 	{
; 1081 : 		strcpy_s(kReligion.m_szCustomName, szCustomName);

	mov	edx, DWORD PTR _szCustomName$[ebp]
	push	edx
	push	128					; 00000080H
	lea	eax, DWORD PTR _kReligion$[ebp+22]
	push	eax
	call	DWORD PTR __imp__strcpy_s
	add	esp, 12					; 0000000cH
$LN12@CanFoundRe:

; 1082 : 	}
; 1083 : 
; 1084 : 	// Now see if there are any conflicts.
; 1085 : #ifdef AUI_ITERATOR_POSTFIX_INCREMENT_OPTIMIZATIONS
; 1086 : 	for (ReligionList::const_iterator it = m_CurrentReligions.begin(); it != m_CurrentReligions.end(); ++it)
; 1087 : #else
; 1088 : 	for(ReligionList::const_iterator it = m_CurrentReligions.begin(); it != m_CurrentReligions.end(); it++)

	mov	ecx, DWORD PTR _this$[ebp]
	mov	edx, DWORD PTR [ecx]
	mov	DWORD PTR _it$224595[ebp], edx
	jmp	SHORT $LN34@CanFoundRe
$LN10@CanFoundRe:
	mov	eax, DWORD PTR _it$224595[ebp]
	add	eax, 328				; 00000148H
	mov	DWORD PTR _it$224595[ebp], eax
$LN34@CanFoundRe:
	mov	ecx, DWORD PTR _this$[ebp]
	mov	edx, DWORD PTR [ecx+4]
	imul	edx, 328				; 00000148H
	mov	eax, DWORD PTR _this$[ebp]
	add	edx, DWORD PTR [eax]
	cmp	DWORD PTR _it$224595[ebp], edx
	je	$LN9@CanFoundRe

; 1089 : #endif
; 1090 : 	{
; 1091 : 		if ((*it).m_eFounder != ePlayer)	// Only check other player's religions

	mov	ecx, DWORD PTR _it$224595[ebp]
	mov	edx, DWORD PTR [ecx+4]
	cmp	edx, DWORD PTR _ePlayer$[ebp]
	je	$LN8@CanFoundRe

; 1092 : 		{
; 1093 : 			if(kReligion.m_eReligion == (*it).m_eReligion)

	mov	eax, DWORD PTR _it$224595[ebp]
	mov	ecx, DWORD PTR _kReligion$[ebp]
	cmp	ecx, DWORD PTR [eax]
	jne	SHORT $LN7@CanFoundRe

; 1094 : 				return FOUNDING_RELIGION_IN_USE;

	mov	DWORD PTR $T232479[ebp], 2
	mov	DWORD PTR __$EHRec$[ebp+8], -1
	lea	ecx, DWORD PTR _kReligion$[ebp+152]
	call	??1CvReligionBeliefs@@QAE@XZ		; CvReligionBeliefs::~CvReligionBeliefs
	mov	eax, DWORD PTR $T232479[ebp]
	jmp	$LN19@CanFoundRe
$LN7@CanFoundRe:

; 1095 : 
; 1096 : 			for(int iSrcBelief = (*it).m_Beliefs.GetNumBeliefs(); iSrcBelief--;)

	mov	ecx, DWORD PTR _it$224595[ebp]
	add	ecx, 152				; 00000098H
	call	?GetNumBeliefs@CvReligionBeliefs@@QBEHXZ ; CvReligionBeliefs::GetNumBeliefs
	mov	DWORD PTR _iSrcBelief$224602[ebp], eax
$LN6@CanFoundRe:
	mov	edx, DWORD PTR _iSrcBelief$224602[ebp]
	mov	eax, DWORD PTR _iSrcBelief$224602[ebp]
	sub	eax, 1
	mov	DWORD PTR _iSrcBelief$224602[ebp], eax
	test	edx, edx
	je	$LN8@CanFoundRe

; 1097 : 			{
; 1098 : 				BeliefTypes eSrcBelief = (*it).m_Beliefs.GetBelief(iSrcBelief);

	mov	ecx, DWORD PTR _iSrcBelief$224602[ebp]
	push	ecx
	mov	ecx, DWORD PTR _it$224595[ebp]
	add	ecx, 152				; 00000098H
	call	?GetBelief@CvReligionBeliefs@@QBE?AW4BeliefTypes@@H@Z ; CvReligionBeliefs::GetBelief
	mov	DWORD PTR _eSrcBelief$224606[ebp], eax

; 1099 : 				if(eSrcBelief != NO_BELIEF)

	cmp	DWORD PTR _eSrcBelief$224606[ebp], -1
	je	SHORT $LN4@CanFoundRe

; 1100 : 				{
; 1101 : 					for(int iDestBelief = kReligion.m_Beliefs.GetNumBeliefs(); iDestBelief--;)

	lea	ecx, DWORD PTR _kReligion$[ebp+152]
	call	?GetNumBeliefs@CvReligionBeliefs@@QBEHXZ ; CvReligionBeliefs::GetNumBeliefs
	mov	DWORD PTR _iDestBelief$224608[ebp], eax
$LN3@CanFoundRe:
	mov	edx, DWORD PTR _iDestBelief$224608[ebp]
	mov	eax, DWORD PTR _iDestBelief$224608[ebp]
	sub	eax, 1
	mov	DWORD PTR _iDestBelief$224608[ebp], eax
	test	edx, edx
	je	SHORT $LN4@CanFoundRe

; 1102 : 					{
; 1103 : 						BeliefTypes eDestBelief = kReligion.m_Beliefs.GetBelief(iDestBelief);

	mov	ecx, DWORD PTR _iDestBelief$224608[ebp]
	push	ecx
	lea	ecx, DWORD PTR _kReligion$[ebp+152]
	call	?GetBelief@CvReligionBeliefs@@QBE?AW4BeliefTypes@@H@Z ; CvReligionBeliefs::GetBelief
	mov	DWORD PTR _eDestBelief$224612[ebp], eax

; 1104 : 						if(eDestBelief != NO_BELIEF && eDestBelief == eSrcBelief)

	cmp	DWORD PTR _eDestBelief$224612[ebp], -1
	je	SHORT $LN1@CanFoundRe
	mov	edx, DWORD PTR _eDestBelief$224612[ebp]
	cmp	edx, DWORD PTR _eSrcBelief$224606[ebp]
	jne	SHORT $LN1@CanFoundRe

; 1105 : 							return FOUNDING_BELIEF_IN_USE;

	mov	DWORD PTR $T232480[ebp], 1
	mov	DWORD PTR __$EHRec$[ebp+8], -1
	lea	ecx, DWORD PTR _kReligion$[ebp+152]
	call	??1CvReligionBeliefs@@QAE@XZ		; CvReligionBeliefs::~CvReligionBeliefs
	mov	eax, DWORD PTR $T232480[ebp]
	jmp	SHORT $LN19@CanFoundRe
$LN1@CanFoundRe:

; 1106 : 					}

	jmp	SHORT $LN3@CanFoundRe
$LN4@CanFoundRe:

; 1107 : 				}
; 1108 : 			}

	jmp	$LN6@CanFoundRe
$LN8@CanFoundRe:

; 1109 : 		}
; 1110 : 	}

	jmp	$LN10@CanFoundRe
$LN9@CanFoundRe:

; 1111 : 
; 1112 : 	return FOUNDING_OK;

	mov	DWORD PTR $T232481[ebp], 0
	mov	DWORD PTR __$EHRec$[ebp+8], -1
	lea	ecx, DWORD PTR _kReligion$[ebp+152]
	call	??1CvReligionBeliefs@@QAE@XZ		; CvReligionBeliefs::~CvReligionBeliefs
	mov	eax, DWORD PTR $T232481[ebp]
$LN19@CanFoundRe:

; 1113 : }

	mov	ecx, DWORD PTR __$EHRec$[ebp]
	mov	DWORD PTR fs:0, ecx
	pop	ecx
	mov	ecx, DWORD PTR __$ArrayPad$[ebp]
	xor	ecx, ebp
	call	@__security_check_cookie@4
	mov	esp, ebp
	pop	ebp
	ret	32					; 00000020H
_TEXT	ENDS
;	COMDAT text$x
text$x	SEGMENT
__unwindfunclet$?CanFoundReligion@CvGameReligions@@QAE?AW4FOUNDING_RESULT@1@W4PlayerTypes@@W4ReligionTypes@@PBDW4BeliefTypes@@333PAVCvCity@@@Z$0:
	lea	ecx, DWORD PTR _kReligion$[ebp]
	jmp	??1CvReligion@@QAE@XZ
__ehhandler$?CanFoundReligion@CvGameReligions@@QAE?AW4FOUNDING_RESULT@1@W4PlayerTypes@@W4ReligionTypes@@PBDW4BeliefTypes@@333PAVCvCity@@@Z:
	mov	edx, DWORD PTR [esp+8]
	lea	eax, DWORD PTR [edx+12]
	mov	ecx, DWORD PTR [edx-408]
	xor	ecx, eax
	call	@__security_check_cookie@4
	mov	ecx, DWORD PTR [edx-12]
	xor	ecx, eax
	call	@__security_check_cookie@4
	mov	eax, OFFSET __ehfuncinfo$?CanFoundReligion@CvGameReligions@@QAE?AW4FOUNDING_RESULT@1@W4PlayerTypes@@W4ReligionTypes@@PBDW4BeliefTypes@@333PAVCvCity@@@Z
	jmp	___CxxFrameHandler3
text$x	ENDS
?CanFoundReligion@CvGameReligions@@QAE?AW4FOUNDING_RESULT@1@W4PlayerTypes@@W4ReligionTypes@@PBDW4BeliefTypes@@333PAVCvCity@@@Z ENDP ; CvGameReligions::CanFoundReligion
PUBLIC	??_C@_0BE@BCIPIHHO@?0?5RELIGION?5ENHANCED?$AA@	; `string'
PUBLIC	??_C@_0CP@GDNKJFKJ@TXT_KEY_NOTIFICATION_RELIGION_EN@ ; `string'
PUBLIC	??_C@_0DF@NEJBODCJ@TXT_KEY_NOTIFICATION_RELIGION_EN@ ; `string'
PUBLIC	??_C@_0CH@DAOAJKCE@TXT_KEY_NOTIFICATION_RELIGION_EN@ ; `string'
PUBLIC	??_C@_0CJ@BHEEMMAG@TXT_KEY_NOTIFICATION_RELIGION_EN@ ; `string'
PUBLIC	??_C@_0BB@GOJDGOEE@ReligionEnhanced?$AA@	; `string'
PUBLIC	?UpdateAllCitiesThisReligion@CvGameReligions@@QAEXW4ReligionTypes@@@Z ; CvGameReligions::UpdateAllCitiesThisReligion
PUBLIC	__$ArrayPad$
PUBLIC	?EnhanceReligion@CvGameReligions@@QAEXW4PlayerTypes@@W4ReligionTypes@@W4BeliefTypes@@2@Z ; CvGameReligions::EnhanceReligion
;	COMDAT ??_C@_0BE@BCIPIHHO@?0?5RELIGION?5ENHANCED?$AA@
; File d:\sources\lekmod_git\checkout\lekmod_dll\cvgamecoredll_expansion2\cvglobals.h
CONST	SEGMENT
??_C@_0BE@BCIPIHHO@?0?5RELIGION?5ENHANCED?$AA@ DB ', RELIGION ENHANCED', 00H ; `string'
CONST	ENDS
;	COMDAT ??_C@_0CP@GDNKJFKJ@TXT_KEY_NOTIFICATION_RELIGION_EN@
CONST	SEGMENT
??_C@_0CP@GDNKJFKJ@TXT_KEY_NOTIFICATION_RELIGION_EN@ DB 'TXT_KEY_NOTIFICA'
	DB	'TION_RELIGION_ENHANCED_UNKNOWN', 00H	; `string'
CONST	ENDS
;	COMDAT ??_C@_0DF@NEJBODCJ@TXT_KEY_NOTIFICATION_RELIGION_EN@
CONST	SEGMENT
??_C@_0DF@NEJBODCJ@TXT_KEY_NOTIFICATION_RELIGION_EN@ DB 'TXT_KEY_NOTIFICA'
	DB	'TION_RELIGION_ENHANCED_ACTIVE_PLAYER', 00H	; `string'
CONST	ENDS
;	COMDAT ??_C@_0CH@DAOAJKCE@TXT_KEY_NOTIFICATION_RELIGION_EN@
CONST	SEGMENT
??_C@_0CH@DAOAJKCE@TXT_KEY_NOTIFICATION_RELIGION_EN@ DB 'TXT_KEY_NOTIFICA'
	DB	'TION_RELIGION_ENHANCED', 00H		; `string'
CONST	ENDS
;	COMDAT ??_C@_0CJ@BHEEMMAG@TXT_KEY_NOTIFICATION_RELIGION_EN@
CONST	SEGMENT
??_C@_0CJ@BHEEMMAG@TXT_KEY_NOTIFICATION_RELIGION_EN@ DB 'TXT_KEY_NOTIFICA'
	DB	'TION_RELIGION_ENHANCED_S', 00H		; `string'
CONST	ENDS
;	COMDAT ??_C@_0BB@GOJDGOEE@ReligionEnhanced?$AA@
CONST	SEGMENT
??_C@_0BB@GOJDGOEE@ReligionEnhanced?$AA@ DB 'ReligionEnhanced', 00H ; `string'
CONST	ENDS
;	COMDAT xdata$x
xdata$x	SEGMENT
__ehfuncinfo$?EnhanceReligion@CvGameReligions@@QAEXW4PlayerTypes@@W4ReligionTypes@@W4BeliefTypes@@2@Z DD 019930522H
	DD	09H
	DD	FLAT:__unwindtable$?EnhanceReligion@CvGameReligions@@QAEXW4PlayerTypes@@W4ReligionTypes@@W4BeliefTypes@@2@Z
	DD	2 DUP(00H)
	DD	2 DUP(00H)
	DD	00H
	DD	01H
__unwindtable$?EnhanceReligion@CvGameReligions@@QAEXW4PlayerTypes@@W4ReligionTypes@@W4BeliefTypes@@2@Z DD 0ffffffffH
	DD	FLAT:__unwindfunclet$?EnhanceReligion@CvGameReligions@@QAEXW4PlayerTypes@@W4ReligionTypes@@W4BeliefTypes@@2@Z$0
	DD	0ffffffffH
	DD	FLAT:__unwindfunclet$?EnhanceReligion@CvGameReligions@@QAEXW4PlayerTypes@@W4ReligionTypes@@W4BeliefTypes@@2@Z$1
	DD	01H
	DD	FLAT:__unwindfunclet$?EnhanceReligion@CvGameReligions@@QAEXW4PlayerTypes@@W4ReligionTypes@@W4BeliefTypes@@2@Z$2
	DD	02H
	DD	FLAT:__unwindfunclet$?EnhanceReligion@CvGameReligions@@QAEXW4PlayerTypes@@W4ReligionTypes@@W4BeliefTypes@@2@Z$3
	DD	02H
	DD	FLAT:__unwindfunclet$?EnhanceReligion@CvGameReligions@@QAEXW4PlayerTypes@@W4ReligionTypes@@W4BeliefTypes@@2@Z$4
	DD	04H
	DD	FLAT:__unwindfunclet$?EnhanceReligion@CvGameReligions@@QAEXW4PlayerTypes@@W4ReligionTypes@@W4BeliefTypes@@2@Z$5
	DD	02H
	DD	FLAT:__unwindfunclet$?EnhanceReligion@CvGameReligions@@QAEXW4PlayerTypes@@W4ReligionTypes@@W4BeliefTypes@@2@Z$6
	DD	06H
	DD	FLAT:__unwindfunclet$?EnhanceReligion@CvGameReligions@@QAEXW4PlayerTypes@@W4ReligionTypes@@W4BeliefTypes@@2@Z$7
	DD	0ffffffffH
	DD	FLAT:__unwindfunclet$?EnhanceReligion@CvGameReligions@@QAEXW4PlayerTypes@@W4ReligionTypes@@W4BeliefTypes@@2@Z$8
; Function compile flags: /Odtp
; File d:\sources\lekmod_git\checkout\lekmod_dll\cvgamecoredll_expansion2\cvreligionclasses.cpp
xdata$x	ENDS
;	COMDAT ?EnhanceReligion@CvGameReligions@@QAEXW4PlayerTypes@@W4ReligionTypes@@W4BeliefTypes@@2@Z
_TEXT	SEGMENT
tv311 = -572						; size = 4
tv326 = -568						; size = 4
tv251 = -564						; size = 4
tv323 = -560						; size = 4
tv212 = -556						; size = 4
tv320 = -552						; size = 4
tv195 = -548						; size = 4
tv168 = -544						; size = 4
tv161 = -540						; size = 4
tv154 = -536						; size = 4
tv147 = -532						; size = 4
tv136 = -528						; size = 4
_this$ = -524						; size = 4
$T232624 = -520						; size = 4
$T232616 = -516						; size = 4
$T232602 = -512						; size = 4
$T232590 = -508						; size = 4
$T232555 = -504						; size = 4
$T232533 = -500						; size = 28
$T232532 = -472						; size = 28
$T232531 = -444						; size = 4
$T232530 = -440						; size = 28
_strLogMsg$224667 = -412				; size = 28
__$ArrayPad$ = -384					; size = 4
_unknownText$224662 = -380				; size = 80
_kNotifyTeam$224659 = -296				; size = 4
_localizedText$224654 = -292				; size = 80
_notificationText$224648 = -212				; size = 80
_strSummary$224645 = -132				; size = 80
_pNotifications$224643 = -52				; size = 4
_eNotifyPlayer$224640 = -48				; size = 4
_kNotifyPlayer$224642 = -44				; size = 4
_iNotifyLoop$224636 = -40				; size = 4
_bResult$224634 = -33					; size = 1
_args$224633 = -32					; size = 4
_bFoundIt$ = -25					; size = 1
_pkScriptSystem$ = -24					; size = 4
_kPlayer$ = -20						; size = 4
_it$ = -16						; size = 4
__$EHRec$ = -12						; size = 12
_ePlayer$ = 8						; size = 4
_eReligion$ = 12					; size = 4
_eBelief1$ = 16						; size = 4
_eBelief2$ = 20						; size = 4
?EnhanceReligion@CvGameReligions@@QAEXW4PlayerTypes@@W4ReligionTypes@@W4BeliefTypes@@2@Z PROC ; CvGameReligions::EnhanceReligion, COMDAT
; _this$ = ecx

; 1117 : {

	push	ebp
	mov	ebp, esp
	push	-1
	push	__ehhandler$?EnhanceReligion@CvGameReligions@@QAEXW4PlayerTypes@@W4ReligionTypes@@W4BeliefTypes@@2@Z
	mov	eax, DWORD PTR fs:0
	push	eax
	sub	esp, 560				; 00000230H
	mov	eax, DWORD PTR ___security_cookie
	xor	eax, ebp
	mov	DWORD PTR __$ArrayPad$[ebp], eax
	push	eax
	lea	eax, DWORD PTR __$EHRec$[ebp]
	mov	DWORD PTR fs:0, eax
	mov	DWORD PTR _this$[ebp], ecx

; 1118 : 	bool bFoundIt = false;

	mov	BYTE PTR _bFoundIt$[ebp], 0

; 1119 : 	CvPlayer& kPlayer = GET_PLAYER(ePlayer);

	mov	eax, DWORD PTR _ePlayer$[ebp]
	imul	eax, 63236				; 0000f704H
	add	eax, DWORD PTR ?m_aPlayers@CvPlayerAI@@1PAV1@A ; CvPlayerAI::m_aPlayers
	mov	DWORD PTR _kPlayer$[ebp], eax

; 1120 : 	ReligionList::iterator it;
; 1121 : #ifdef AUI_ITERATOR_POSTFIX_INCREMENT_OPTIMIZATIONS
; 1122 : 	for (it = m_CurrentReligions.begin(); it != m_CurrentReligions.end(); ++it)
; 1123 : #else
; 1124 : 	for(it = m_CurrentReligions.begin(); it != m_CurrentReligions.end(); it++)

	mov	ecx, DWORD PTR _this$[ebp]
	mov	edx, DWORD PTR [ecx]
	mov	DWORD PTR _it$[ebp], edx
	jmp	SHORT $LN31@EnhanceRel
$LN14@EnhanceRel:
	mov	eax, DWORD PTR _it$[ebp]
	add	eax, 328				; 00000148H
	mov	DWORD PTR _it$[ebp], eax
$LN31@EnhanceRel:
	mov	ecx, DWORD PTR _this$[ebp]
	mov	edx, DWORD PTR [ecx+4]
	imul	edx, 328				; 00000148H
	mov	eax, DWORD PTR _this$[ebp]
	add	edx, DWORD PTR [eax]
	cmp	DWORD PTR _it$[ebp], edx
	je	SHORT $LN13@EnhanceRel

; 1125 : #endif
; 1126 : 	{
; 1127 : 		if(it->m_eReligion == eReligion)

	mov	ecx, DWORD PTR _it$[ebp]
	mov	edx, DWORD PTR [ecx]
	cmp	edx, DWORD PTR _eReligion$[ebp]
	jne	SHORT $LN12@EnhanceRel

; 1128 : 		{
; 1129 : 			bFoundIt = true;

	mov	BYTE PTR _bFoundIt$[ebp], 1

; 1130 : 			break;

	jmp	SHORT $LN13@EnhanceRel
$LN12@EnhanceRel:

; 1131 : 		}
; 1132 : 	}

	jmp	SHORT $LN14@EnhanceRel
$LN13@EnhanceRel:

; 1133 : 	if(!bFoundIt)

	movzx	eax, BYTE PTR _bFoundIt$[ebp]
	test	eax, eax
	jne	SHORT $LN11@EnhanceRel

; 1134 : 	{
; 1135 : 		CvAssertMsg(false, "Internal error in religion code.");
; 1136 : 		return;

	jmp	$LN16@EnhanceRel
$LN11@EnhanceRel:

; 1137 : 	}
; 1138 : 
; 1139 : #ifdef AUI_WARNING_FIXES
; 1140 : 	it->m_bEnhanced = true;
; 1141 : #endif
; 1142 : 	it->m_Beliefs.AddBelief(eBelief1);

	mov	ecx, DWORD PTR _eBelief1$[ebp]
	push	ecx
	mov	ecx, DWORD PTR _it$[ebp]
	add	ecx, 152				; 00000098H
	call	?AddBelief@CvReligionBeliefs@@QAEXW4BeliefTypes@@@Z ; CvReligionBeliefs::AddBelief

; 1143 : 	it->m_Beliefs.AddBelief(eBelief2);

	mov	edx, DWORD PTR _eBelief2$[ebp]
	push	edx
	mov	ecx, DWORD PTR _it$[ebp]
	add	ecx, 152				; 00000098H
	call	?AddBelief@CvReligionBeliefs@@QAEXW4BeliefTypes@@@Z ; CvReligionBeliefs::AddBelief

; 1144 : #ifndef AUI_WARNING_FIXES
; 1145 : 	it->m_bEnhanced = true;

	mov	eax, DWORD PTR _it$[ebp]
	mov	BYTE PTR [eax+21], 1

; 1146 : #endif
; 1147 : 
; 1148 : 	// Update game systems
; 1149 : 	UpdateAllCitiesThisReligion(eReligion);

	mov	ecx, DWORD PTR _eReligion$[ebp]
	push	ecx
	mov	ecx, DWORD PTR _this$[ebp]
	call	?UpdateAllCitiesThisReligion@CvGameReligions@@QAEXW4ReligionTypes@@@Z ; CvGameReligions::UpdateAllCitiesThisReligion

; 1150 : 	kPlayer.UpdateReligion();

	mov	ecx, DWORD PTR _kPlayer$[ebp]
	call	?UpdateReligion@CvPlayer@@QAEXXZ	; CvPlayer::UpdateReligion

; 1151 : #ifdef AUI_CITIZENS_MID_TURN_ASSIGN_RUNS_SELF_CONSISTENCY
; 1152 : 	kPlayer.doSelfConsistencyCheckAllCities();
; 1153 : #endif
; 1154 : #ifdef AUI_RELIGION_FIX_SIMULTANEOUS_ENHANCE_OR_FOUND_CAUSING_MULTIPLE
; 1155 : 	kPlayer.GetReligions()->SetFoundingReligion(false);
; 1156 : #endif
; 1157 : 
; 1158 : 	ICvEngineScriptSystem1* pkScriptSystem = gDLL->GetScriptSystem();

	mov	edx, DWORD PTR $T232555[ebp]
	mov	DWORD PTR tv136[ebp], edx
	mov	eax, DWORD PTR ?gGlobals@@3VCvGlobals@@A+8564
	mov	DWORD PTR tv136[ebp], eax
	mov	ecx, DWORD PTR tv136[ebp]
	mov	edx, DWORD PTR [ecx]
	mov	ecx, DWORD PTR tv136[ebp]
	mov	eax, DWORD PTR [edx+12]
	call	eax
	mov	DWORD PTR _pkScriptSystem$[ebp], eax

; 1159 : 	if(pkScriptSystem) 

	cmp	DWORD PTR _pkScriptSystem$[ebp], 0
	je	$LN10@EnhanceRel

; 1160 : 	{
; 1161 : 		CvLuaArgsHandle args;

	lea	ecx, DWORD PTR _args$224633[ebp]
	call	??0CvLuaArgsHandle@@QAE@XZ		; CvLuaArgsHandle::CvLuaArgsHandle
	mov	DWORD PTR __$EHRec$[ebp+8], 0

; 1162 : 		args->Push(ePlayer);

	mov	ecx, DWORD PTR _args$224633[ebp]
	mov	DWORD PTR tv147[ebp], ecx
	mov	edx, DWORD PTR _ePlayer$[ebp]
	push	edx
	mov	eax, DWORD PTR tv147[ebp]
	mov	edx, DWORD PTR [eax]
