; Listing generated by Microsoft (R) Optimizing Compiler Version 15.00.30729.01 

	TITLE	D:\sources\Lekmod_git\checkout\LEKMOD_DLL\CvGameCoreDLL_Expansion2\CvTacticalAnalysisMap.cpp
	.686P
	.XMM
	include listing.inc
	.model	flat

INCLUDELIB MSVCRT
INCLUDELIB OLDNAMES

PUBLIC	?NO_QUEST_DATA@CvMinorCivQuest@@2HB		; CvMinorCivQuest::NO_QUEST_DATA
PUBLIC	?NO_TURN@CvMinorCivQuest@@2HB			; CvMinorCivQuest::NO_TURN
;	COMDAT ?NO_TURN@CvMinorCivQuest@@2HB
CONST	SEGMENT
?NO_TURN@CvMinorCivQuest@@2HB DD 0ffffffffH		; CvMinorCivQuest::NO_TURN
CONST	ENDS
;	COMDAT ?NO_QUEST_DATA@CvMinorCivQuest@@2HB
CONST	SEGMENT
?NO_QUEST_DATA@CvMinorCivQuest@@2HB DD 0ffffffffH	; CvMinorCivQuest::NO_QUEST_DATA
CONST	ENDS
PUBLIC	?Clear@CvTacticalAnalysisCell@@QAEXXZ		; CvTacticalAnalysisCell::Clear
PUBLIC	??0CvTacticalAnalysisCell@@QAE@XZ		; CvTacticalAnalysisCell::CvTacticalAnalysisCell
; Function compile flags: /Odtp
; File d:\sources\lekmod_git\checkout\lekmod_dll\cvgamecoredll_expansion2\cvtacticalanalysismap.cpp
;	COMDAT ??0CvTacticalAnalysisCell@@QAE@XZ
_TEXT	SEGMENT
_this$ = -4						; size = 4
??0CvTacticalAnalysisCell@@QAE@XZ PROC			; CvTacticalAnalysisCell::CvTacticalAnalysisCell, COMDAT
; _this$ = ecx

; 32   : {

	push	ebp
	mov	ebp, esp
	push	ecx
	mov	DWORD PTR _this$[ebp], ecx
	mov	eax, DWORD PTR _this$[ebp]
	mov	DWORD PTR [eax+4], 0
	mov	ecx, DWORD PTR _this$[ebp]
	mov	DWORD PTR [ecx+8], 0
	mov	edx, DWORD PTR _this$[ebp]
	mov	DWORD PTR [edx+12], 0
	mov	eax, DWORD PTR _this$[ebp]
	mov	DWORD PTR [eax+16], 0
	mov	ecx, DWORD PTR _this$[ebp]
	mov	DWORD PTR [ecx+20], 0
	mov	edx, DWORD PTR _this$[ebp]
	mov	DWORD PTR [edx+24], 0
	mov	eax, DWORD PTR _this$[ebp]
	mov	DWORD PTR [eax+28], 0
	mov	ecx, DWORD PTR _this$[ebp]
	mov	DWORD PTR [ecx+32], 0
	mov	edx, DWORD PTR _this$[ebp]
	mov	DWORD PTR [edx+36], 0
	mov	eax, DWORD PTR _this$[ebp]
	mov	DWORD PTR [eax+40], -1

; 33   : 	Clear();

	mov	ecx, DWORD PTR _this$[ebp]
	call	?Clear@CvTacticalAnalysisCell@@QAEXXZ	; CvTacticalAnalysisCell::Clear

; 34   : }

	mov	eax, DWORD PTR _this$[ebp]
	mov	esp, ebp
	pop	ebp
	ret	0
??0CvTacticalAnalysisCell@@QAE@XZ ENDP			; CvTacticalAnalysisCell::CvTacticalAnalysisCell
; Function compile flags: /Odtp
_TEXT	ENDS
;	COMDAT ?Clear@CvTacticalAnalysisCell@@QAEXXZ
_TEXT	SEGMENT
_this$ = -4						; size = 4
?Clear@CvTacticalAnalysisCell@@QAEXXZ PROC		; CvTacticalAnalysisCell::Clear, COMDAT
; _this$ = ecx

; 38   : {

	push	ebp
	mov	ebp, esp
	push	ecx
	mov	DWORD PTR _this$[ebp], ecx

; 39   : 	ClearFlags();

	mov	eax, DWORD PTR _this$[ebp]
	mov	DWORD PTR [eax], 0

; 40   : 	m_pEnemyMilitary = NULL;

	mov	ecx, DWORD PTR _this$[ebp]
	mov	DWORD PTR [ecx+4], 0

; 41   : 	m_pEnemyCivilian = NULL;

	mov	edx, DWORD PTR _this$[ebp]
	mov	DWORD PTR [edx+8], 0

; 42   : 	m_pNeutralMilitary = NULL;

	mov	eax, DWORD PTR _this$[ebp]
	mov	DWORD PTR [eax+12], 0

; 43   : 	m_pNeutralCivilian = NULL;

	mov	ecx, DWORD PTR _this$[ebp]
	mov	DWORD PTR [ecx+16], 0

; 44   : 	m_pFriendlyMilitary = NULL;

	mov	edx, DWORD PTR _this$[ebp]
	mov	DWORD PTR [edx+20], 0

; 45   : 	m_pFriendlyCivilian = NULL;

	mov	eax, DWORD PTR _this$[ebp]
	mov	DWORD PTR [eax+24], 0

; 46   : 	m_iDefenseModifier = 0;

	mov	ecx, DWORD PTR _this$[ebp]
	mov	DWORD PTR [ecx+28], 0

; 47   : 	m_iDeploymentScore = 0;

	mov	edx, DWORD PTR _this$[ebp]
	mov	DWORD PTR [edx+32], 0

; 48   : 	m_eTargetType = AI_TACTICAL_TARGET_NONE;

	mov	eax, DWORD PTR _this$[ebp]
	mov	DWORD PTR [eax+36], 0

; 49   : 	m_iDominanceZoneID = -1;

	mov	ecx, DWORD PTR _this$[ebp]
	mov	DWORD PTR [ecx+40], -1

; 50   : }

	mov	esp, ebp
	pop	ebp
	ret	0
?Clear@CvTacticalAnalysisCell@@QAEXXZ ENDP		; CvTacticalAnalysisCell::Clear
_TEXT	ENDS
PUBLIC	?CanUseForOperationGathering@CvTacticalAnalysisCell@@QAE_NXZ ; CvTacticalAnalysisCell::CanUseForOperationGathering
; Function compile flags: /Odtp
;	COMDAT ?CanUseForOperationGathering@CvTacticalAnalysisCell@@QAE_NXZ
_TEXT	SEGMENT
_this$ = -16						; size = 4
$T223586 = -12						; size = 4
$T223582 = -8						; size = 4
$T223578 = -4						; size = 4
?CanUseForOperationGathering@CvTacticalAnalysisCell@@QAE_NXZ PROC ; CvTacticalAnalysisCell::CanUseForOperationGathering, COMDAT
; _this$ = ecx

; 53   : {

	push	ebp
	mov	ebp, esp
	sub	esp, 16					; 00000010H
	mov	DWORD PTR _this$[ebp], ecx

; 54   : 	if(IsImpassableTerrain() || IsImpassableTerritory() || GetEnemyMilitaryUnit() || GetNeutralMilitaryUnit() || GetNeutralCivilianUnit() || IsFriendlyTurnEndTile() || IsEnemyCity() || IsNeutralCity())

	mov	eax, DWORD PTR _this$[ebp]
	mov	ecx, DWORD PTR [eax]
	and	ecx, 4
	neg	ecx
	sbb	ecx, ecx
	neg	ecx
	movzx	edx, cl
	test	edx, edx
	jne	$LN1@CanUseForO
	mov	eax, DWORD PTR _this$[ebp]
	mov	ecx, DWORD PTR [eax]
	and	ecx, 8
	neg	ecx
	sbb	ecx, ecx
	neg	ecx
	movzx	edx, cl
	test	edx, edx
	jne	SHORT $LN1@CanUseForO
	mov	eax, DWORD PTR _this$[ebp]
	mov	ecx, DWORD PTR [eax+4]
	mov	DWORD PTR $T223578[ebp], ecx
	cmp	DWORD PTR $T223578[ebp], 0
	jne	SHORT $LN1@CanUseForO
	mov	edx, DWORD PTR _this$[ebp]
	mov	eax, DWORD PTR [edx+12]
	mov	DWORD PTR $T223582[ebp], eax
	cmp	DWORD PTR $T223582[ebp], 0
	jne	SHORT $LN1@CanUseForO
	mov	ecx, DWORD PTR _this$[ebp]
	mov	edx, DWORD PTR [ecx+16]
	mov	DWORD PTR $T223586[ebp], edx
	cmp	DWORD PTR $T223586[ebp], 0
	jne	SHORT $LN1@CanUseForO
	mov	eax, DWORD PTR _this$[ebp]
	mov	ecx, DWORD PTR [eax]
	and	ecx, 128				; 00000080H
	neg	ecx
	sbb	ecx, ecx
	neg	ecx
	movzx	edx, cl
	test	edx, edx
	jne	SHORT $LN1@CanUseForO
	mov	eax, DWORD PTR _this$[ebp]
	mov	ecx, DWORD PTR [eax]
	and	ecx, 512				; 00000200H
	neg	ecx
	sbb	ecx, ecx
	neg	ecx
	movzx	edx, cl
	test	edx, edx
	jne	SHORT $LN1@CanUseForO
	mov	eax, DWORD PTR _this$[ebp]
	mov	ecx, DWORD PTR [eax]
	and	ecx, 1024				; 00000400H
	neg	ecx
	sbb	ecx, ecx
	neg	ecx
	movzx	edx, cl
	test	edx, edx
	je	SHORT $LN2@CanUseForO
$LN1@CanUseForO:

; 55   : 	{
; 56   : 		return false;

	xor	al, al
	jmp	SHORT $LN3@CanUseForO
$LN2@CanUseForO:

; 57   : 	}
; 58   : 
; 59   : 	return true;

	mov	al, 1
$LN3@CanUseForO:

; 60   : }

	mov	esp, ebp
	pop	ebp
	ret	0
?CanUseForOperationGathering@CvTacticalAnalysisCell@@QAE_NXZ ENDP ; CvTacticalAnalysisCell::CanUseForOperationGathering
_TEXT	ENDS
PUBLIC	?CanUseForOperationGatheringCheckWater@CvTacticalAnalysisCell@@QAE_N_N@Z ; CvTacticalAnalysisCell::CanUseForOperationGatheringCheckWater
; Function compile flags: /Odtp
;	COMDAT ?CanUseForOperationGatheringCheckWater@CvTacticalAnalysisCell@@QAE_N_N@Z
_TEXT	SEGMENT
_this$ = -16						; size = 4
$T223648 = -12						; size = 4
$T223644 = -8						; size = 4
$T223640 = -4						; size = 4
_bWater$ = 8						; size = 1
?CanUseForOperationGatheringCheckWater@CvTacticalAnalysisCell@@QAE_N_N@Z PROC ; CvTacticalAnalysisCell::CanUseForOperationGatheringCheckWater, COMDAT
; _this$ = ecx

; 63   : {

	push	ebp
	mov	ebp, esp
	sub	esp, 16					; 00000010H
	mov	DWORD PTR _this$[ebp], ecx

; 64   : 	if(bWater != IsWater() || IsImpassableTerrain() || IsImpassableTerritory() || GetEnemyMilitaryUnit() || GetNeutralMilitaryUnit() || GetNeutralCivilianUnit() || IsFriendlyTurnEndTile() || IsEnemyCity() || IsNeutralCity())

	movzx	eax, BYTE PTR _bWater$[ebp]
	mov	ecx, DWORD PTR _this$[ebp]
	mov	edx, DWORD PTR [ecx]
	and	edx, 2048				; 00000800H
	neg	edx
	sbb	edx, edx
	neg	edx
	movzx	ecx, dl
	cmp	eax, ecx
	jne	$LN1@CanUseForO@2
	mov	edx, DWORD PTR _this$[ebp]
	mov	eax, DWORD PTR [edx]
	and	eax, 4
	neg	eax
	sbb	eax, eax
	neg	eax
	movzx	ecx, al
	test	ecx, ecx
	jne	$LN1@CanUseForO@2
	mov	edx, DWORD PTR _this$[ebp]
	mov	eax, DWORD PTR [edx]
	and	eax, 8
	neg	eax
	sbb	eax, eax
	neg	eax
	movzx	ecx, al
	test	ecx, ecx
	jne	SHORT $LN1@CanUseForO@2
	mov	edx, DWORD PTR _this$[ebp]
	mov	eax, DWORD PTR [edx+4]
	mov	DWORD PTR $T223640[ebp], eax
	cmp	DWORD PTR $T223640[ebp], 0
	jne	SHORT $LN1@CanUseForO@2
	mov	ecx, DWORD PTR _this$[ebp]
	mov	edx, DWORD PTR [ecx+12]
	mov	DWORD PTR $T223644[ebp], edx
	cmp	DWORD PTR $T223644[ebp], 0
	jne	SHORT $LN1@CanUseForO@2
	mov	eax, DWORD PTR _this$[ebp]
	mov	ecx, DWORD PTR [eax+16]
	mov	DWORD PTR $T223648[ebp], ecx
	cmp	DWORD PTR $T223648[ebp], 0
	jne	SHORT $LN1@CanUseForO@2
	mov	edx, DWORD PTR _this$[ebp]
	mov	eax, DWORD PTR [edx]
	and	eax, 128				; 00000080H
	neg	eax
	sbb	eax, eax
	neg	eax
	movzx	ecx, al
	test	ecx, ecx
	jne	SHORT $LN1@CanUseForO@2
	mov	edx, DWORD PTR _this$[ebp]
	mov	eax, DWORD PTR [edx]
	and	eax, 512				; 00000200H
	neg	eax
	sbb	eax, eax
	neg	eax
	movzx	ecx, al
	test	ecx, ecx
	jne	SHORT $LN1@CanUseForO@2
	mov	edx, DWORD PTR _this$[ebp]
	mov	eax, DWORD PTR [edx]
	and	eax, 1024				; 00000400H
	neg	eax
	sbb	eax, eax
	neg	eax
	movzx	ecx, al
	test	ecx, ecx
	je	SHORT $LN2@CanUseForO@2
$LN1@CanUseForO@2:

; 65   : 	{
; 66   : 		return false;

	xor	al, al
	jmp	SHORT $LN3@CanUseForO@2
$LN2@CanUseForO@2:

; 67   : 	}
; 68   : 
; 69   : 	return true;

	mov	al, 1
$LN3@CanUseForO@2:

; 70   : }

	mov	esp, ebp
	pop	ebp
	ret	4
?CanUseForOperationGatheringCheckWater@CvTacticalAnalysisCell@@QAE_N_N@Z ENDP ; CvTacticalAnalysisCell::CanUseForOperationGatheringCheckWater
_TEXT	ENDS
PUBLIC	??0CvTacticalDominanceZone@@QAE@XZ		; CvTacticalDominanceZone::CvTacticalDominanceZone
; Function compile flags: /Odtp
;	COMDAT ??0CvTacticalDominanceZone@@QAE@XZ
_TEXT	SEGMENT
_this$ = -4						; size = 4
??0CvTacticalDominanceZone@@QAE@XZ PROC			; CvTacticalDominanceZone::CvTacticalDominanceZone, COMDAT
; _this$ = ecx

; 77   : {

	push	ebp
	mov	ebp, esp
	push	ecx
	mov	DWORD PTR _this$[ebp], ecx

; 78   : 	m_iDominanceZoneID = -1;

	mov	eax, DWORD PTR _this$[ebp]
	mov	DWORD PTR [eax], -1

; 79   : 	m_eTerritoryType = TACTICAL_TERRITORY_NONE;

	mov	ecx, DWORD PTR _this$[ebp]
	mov	DWORD PTR [ecx+4], 0

; 80   : 	m_eDominanceFlag = TACTICAL_DOMINANCE_NO_UNITS_VISIBLE;

	mov	edx, DWORD PTR _this$[ebp]
	mov	DWORD PTR [edx+8], 0

; 81   : 	m_eOwner = NO_PLAYER;

	mov	eax, DWORD PTR _this$[ebp]
	mov	DWORD PTR [eax+12], -1

; 82   : 	m_iCityID = -1;

	mov	ecx, DWORD PTR _this$[ebp]
	mov	DWORD PTR [ecx+16], -1

; 83   : 	m_iAreaID = 0;

	mov	edx, DWORD PTR _this$[ebp]
	mov	DWORD PTR [edx+20], 0

; 84   : 	m_iFriendlyStrength = 0;

	mov	eax, DWORD PTR _this$[ebp]
	mov	DWORD PTR [eax+24], 0

; 85   : 	m_iEnemyStrength = 0;

	mov	ecx, DWORD PTR _this$[ebp]
	mov	DWORD PTR [ecx+28], 0

; 86   : 	m_iFriendlyRangedStrength = 0;

	mov	edx, DWORD PTR _this$[ebp]
	mov	DWORD PTR [edx+32], 0

; 87   : 	m_iEnemyRangedStrength = 0;

	mov	eax, DWORD PTR _this$[ebp]
	mov	DWORD PTR [eax+36], 0

; 88   : 	m_iFriendlyUnitCount = 0;

	mov	ecx, DWORD PTR _this$[ebp]
	mov	DWORD PTR [ecx+40], 0

; 89   : 	m_iEnemyUnitCount = 0;

	mov	edx, DWORD PTR _this$[ebp]
	mov	DWORD PTR [edx+44], 0

; 90   : 	m_iFriendlyRangedUnitCount = 0;

	mov	eax, DWORD PTR _this$[ebp]
	mov	DWORD PTR [eax+48], 0

; 91   : 	m_iEnemyRangedUnitCount = 0;

	mov	ecx, DWORD PTR _this$[ebp]
	mov	DWORD PTR [ecx+52], 0

; 92   : 	m_iEnemyNavalUnitCount = 0;

	mov	edx, DWORD PTR _this$[ebp]
	mov	DWORD PTR [edx+56], 0

; 93   : 	m_iZoneValue = 0;

	mov	eax, DWORD PTR _this$[ebp]
	mov	DWORD PTR [eax+60], 0

; 94   : 	m_iRangeClosestEnemyUnit = MAX_INT;

	mov	ecx, DWORD PTR _this$[ebp]
	mov	DWORD PTR [ecx+64], 2147483647		; 7fffffffH

; 95   : 	m_bIsWater = false;

	mov	edx, DWORD PTR _this$[ebp]
	mov	BYTE PTR [edx+68], 0

; 96   : 	m_bIsNavalInvasion = false;

	mov	eax, DWORD PTR _this$[ebp]
	mov	BYTE PTR [eax+69], 0

; 97   : 	m_pTempZoneCenter = NULL;

	mov	ecx, DWORD PTR _this$[ebp]
	mov	DWORD PTR [ecx+72], 0

; 98   : }

	mov	eax, DWORD PTR _this$[ebp]
	mov	esp, ebp
	pop	ebp
	ret	0
??0CvTacticalDominanceZone@@QAE@XZ ENDP			; CvTacticalDominanceZone::CvTacticalDominanceZone
_TEXT	ENDS
PUBLIC	?GetClosestCity@CvTacticalDominanceZone@@QBEPAVCvCity@@XZ ; CvTacticalDominanceZone::GetClosestCity
EXTRN	?getCity@CvPlayer@@QAEPAVCvCity@@H@Z:PROC	; CvPlayer::getCity
EXTRN	?m_aPlayers@CvPlayerAI@@1PAV1@A:DWORD		; CvPlayerAI::m_aPlayers
; Function compile flags: /Odtp
;	COMDAT ?GetClosestCity@CvTacticalDominanceZone@@QBEPAVCvCity@@XZ
_TEXT	SEGMENT
_this$ = -8						; size = 4
$T223680 = -4						; size = 4
?GetClosestCity@CvTacticalDominanceZone@@QBEPAVCvCity@@XZ PROC ; CvTacticalDominanceZone::GetClosestCity, COMDAT
; _this$ = ecx

; 102  : {

	push	ebp
	mov	ebp, esp
	sub	esp, 8
	mov	DWORD PTR _this$[ebp], ecx

; 103  : 	if(m_eOwner != NO_PLAYER)

	mov	eax, DWORD PTR _this$[ebp]
	cmp	DWORD PTR [eax+12], -1
	je	SHORT $LN1@GetClosest

; 104  : 	{
; 105  : 		return GET_PLAYER(m_eOwner).getCity(m_iCityID);

	mov	ecx, DWORD PTR _this$[ebp]
	mov	edx, DWORD PTR [ecx+12]
	imul	edx, 63236				; 0000f704H
	add	edx, DWORD PTR ?m_aPlayers@CvPlayerAI@@1PAV1@A ; CvPlayerAI::m_aPlayers
	mov	DWORD PTR $T223680[ebp], edx
	mov	eax, DWORD PTR _this$[ebp]
	mov	ecx, DWORD PTR [eax+16]
	push	ecx
	mov	ecx, DWORD PTR $T223680[ebp]
	call	?getCity@CvPlayer@@QAEPAVCvCity@@H@Z	; CvPlayer::getCity
	jmp	SHORT $LN2@GetClosest
$LN1@GetClosest:

; 106  : 	}
; 107  : 
; 108  : 	return NULL;

	xor	eax, eax
$LN2@GetClosest:

; 109  : }

	mov	esp, ebp
	pop	ebp
	ret	0
?GetClosestCity@CvTacticalDominanceZone@@QBEPAVCvCity@@XZ ENDP ; CvTacticalDominanceZone::GetClosestCity
_TEXT	ENDS
PUBLIC	?SetClosestCity@CvTacticalDominanceZone@@QAEXPAVCvCity@@@Z ; CvTacticalDominanceZone::SetClosestCity
; Function compile flags: /Odtp
;	COMDAT ?SetClosestCity@CvTacticalDominanceZone@@QAEXPAVCvCity@@@Z
_TEXT	SEGMENT
_this$ = -8						; size = 4
$T223691 = -4						; size = 4
_pCity$ = 8						; size = 4
?SetClosestCity@CvTacticalDominanceZone@@QAEXPAVCvCity@@@Z PROC ; CvTacticalDominanceZone::SetClosestCity, COMDAT
; _this$ = ecx

; 113  : {

	push	ebp
	mov	ebp, esp
	sub	esp, 8
	mov	DWORD PTR _this$[ebp], ecx

; 114  : 	if(pCity != NULL)

	cmp	DWORD PTR _pCity$[ebp], 0
	je	SHORT $LN2@SetClosest

; 115  : 	{
; 116  : 		m_iCityID = pCity->GetID();

	mov	eax, DWORD PTR _pCity$[ebp]
	mov	ecx, DWORD PTR [eax+120]
	mov	DWORD PTR $T223691[ebp], ecx
	mov	edx, DWORD PTR _this$[ebp]
	mov	eax, DWORD PTR $T223691[ebp]
	mov	DWORD PTR [edx+16], eax

; 117  : 	}
; 118  : 	else

	jmp	SHORT $LN3@SetClosest
$LN2@SetClosest:

; 119  : 	{
; 120  : 		m_iCityID = -1;

	mov	ecx, DWORD PTR _this$[ebp]
	mov	DWORD PTR [ecx+16], -1
$LN3@SetClosest:

; 121  : 	}
; 122  : }

	mov	esp, ebp
	pop	ebp
	ret	4
?SetClosestCity@CvTacticalDominanceZone@@QAEXPAVCvCity@@@Z ENDP ; CvTacticalDominanceZone::SetClosestCity
_TEXT	ENDS
PUBLIC	?GetRangeClosestEnemyUnit@CvTacticalDominanceZone@@QBEHXZ ; CvTacticalDominanceZone::GetRangeClosestEnemyUnit
; Function compile flags: /Odtp
;	COMDAT ?GetRangeClosestEnemyUnit@CvTacticalDominanceZone@@QBEHXZ
_TEXT	SEGMENT
_this$ = -4						; size = 4
?GetRangeClosestEnemyUnit@CvTacticalDominanceZone@@QBEHXZ PROC ; CvTacticalDominanceZone::GetRangeClosestEnemyUnit, COMDAT
; _this$ = ecx

; 126  : {

	push	ebp
	mov	ebp, esp
	push	ecx
	mov	DWORD PTR _this$[ebp], ecx

; 127  : 	return m_iRangeClosestEnemyUnit;

	mov	eax, DWORD PTR _this$[ebp]
	mov	eax, DWORD PTR [eax+64]

; 128  : }

	mov	esp, ebp
	pop	ebp
	ret	0
?GetRangeClosestEnemyUnit@CvTacticalDominanceZone@@QBEHXZ ENDP ; CvTacticalDominanceZone::GetRangeClosestEnemyUnit
_TEXT	ENDS
PUBLIC	?SetRangeClosestEnemyUnit@CvTacticalDominanceZone@@QAEXH@Z ; CvTacticalDominanceZone::SetRangeClosestEnemyUnit
; Function compile flags: /Odtp
;	COMDAT ?SetRangeClosestEnemyUnit@CvTacticalDominanceZone@@QAEXH@Z
_TEXT	SEGMENT
_this$ = -4						; size = 4
_iRange$ = 8						; size = 4
?SetRangeClosestEnemyUnit@CvTacticalDominanceZone@@QAEXH@Z PROC ; CvTacticalDominanceZone::SetRangeClosestEnemyUnit, COMDAT
; _this$ = ecx

; 132  : {

	push	ebp
	mov	ebp, esp
	push	ecx
	mov	DWORD PTR _this$[ebp], ecx

; 133  : 	m_iRangeClosestEnemyUnit = iRange;

	mov	eax, DWORD PTR _this$[ebp]
	mov	ecx, DWORD PTR _iRange$[ebp]
	mov	DWORD PTR [eax+64], ecx

; 134  : }

	mov	esp, ebp
	pop	ebp
	ret	4
?SetRangeClosestEnemyUnit@CvTacticalDominanceZone@@QAEXH@Z ENDP ; CvTacticalDominanceZone::SetRangeClosestEnemyUnit
_TEXT	ENDS
PUBLIC	?GetZoneType@CvTacticalDominanceZone@@QBE?AW4TacticalMoveZoneType@@XZ ; CvTacticalDominanceZone::GetZoneType
; Function compile flags: /Odtp
;	COMDAT ?GetZoneType@CvTacticalDominanceZone@@QBE?AW4TacticalMoveZoneType@@XZ
_TEXT	SEGMENT
_this$ = -4						; size = 4
?GetZoneType@CvTacticalDominanceZone@@QBE?AW4TacticalMoveZoneType@@XZ PROC ; CvTacticalDominanceZone::GetZoneType, COMDAT
; _this$ = ecx

; 138  : {

	push	ebp
	mov	ebp, esp
	push	ecx
	mov	DWORD PTR _this$[ebp], ecx

; 139  : 	if(m_eTerritoryType == TACTICAL_TERRITORY_FRIENDLY)

	mov	eax, DWORD PTR _this$[ebp]
	cmp	DWORD PTR [eax+4], 2
	jne	SHORT $LN12@GetZoneTyp

; 140  : 	{
; 141  : 		if(m_eDominanceFlag == TACTICAL_DOMINANCE_FRIENDLY)

	mov	ecx, DWORD PTR _this$[ebp]
	cmp	DWORD PTR [ecx+8], 1
	jne	SHORT $LN11@GetZoneTyp

; 142  : 		{
; 143  : 			return AI_TACTICAL_MOVE_ZONE_FRIENDLY_WINNING;

	xor	eax, eax
	jmp	SHORT $LN13@GetZoneTyp
	jmp	SHORT $LN10@GetZoneTyp
$LN11@GetZoneTyp:

; 144  : 		}
; 145  : 		else if(m_eDominanceFlag == TACTICAL_DOMINANCE_EVEN)

	mov	edx, DWORD PTR _this$[ebp]
	cmp	DWORD PTR [edx+8], 3
	jne	SHORT $LN9@GetZoneTyp

; 146  : 		{
; 147  : 			return AI_TACTICAL_MOVE_ZONE_FRIENDLY_EVEN;

	mov	eax, 1
	jmp	SHORT $LN13@GetZoneTyp

; 148  : 		}
; 149  : 		else

	jmp	SHORT $LN10@GetZoneTyp
$LN9@GetZoneTyp:

; 150  : 		{
; 151  : 			return AI_TACTICAL_MOVE_ZONE_FRIENDLY_LOSING;

	mov	eax, 2
	jmp	SHORT $LN13@GetZoneTyp
$LN10@GetZoneTyp:

; 152  : 		}

	jmp	SHORT $LN13@GetZoneTyp
$LN12@GetZoneTyp:

; 153  : 	}
; 154  : 
; 155  : 	else if(m_eTerritoryType == TACTICAL_TERRITORY_ENEMY)

	mov	eax, DWORD PTR _this$[ebp]
	cmp	DWORD PTR [eax+4], 3
	jne	SHORT $LN6@GetZoneTyp

; 156  : 	{
; 157  : 		if(m_eDominanceFlag == TACTICAL_DOMINANCE_FRIENDLY)

	mov	ecx, DWORD PTR _this$[ebp]
	cmp	DWORD PTR [ecx+8], 1
	jne	SHORT $LN5@GetZoneTyp

; 158  : 		{
; 159  : 			return AI_TACTICAL_MOVE_ZONE_ENEMY_WINNING;

	mov	eax, 3
	jmp	SHORT $LN13@GetZoneTyp
	jmp	SHORT $LN4@GetZoneTyp
$LN5@GetZoneTyp:

; 160  : 		}
; 161  : 		else if(m_eDominanceFlag == TACTICAL_DOMINANCE_EVEN)

	mov	edx, DWORD PTR _this$[ebp]
	cmp	DWORD PTR [edx+8], 3
	jne	SHORT $LN3@GetZoneTyp

; 162  : 		{
; 163  : 			return AI_TACTICAL_MOVE_ZONE_ENEMY_EVEN;

	mov	eax, 4
	jmp	SHORT $LN13@GetZoneTyp

; 164  : 		}
; 165  : 		else

	jmp	SHORT $LN4@GetZoneTyp
$LN3@GetZoneTyp:

; 166  : 		{
; 167  : 			return AI_TACTICAL_MOVE_ZONE_ENEMY_LOSING;

	mov	eax, 5
	jmp	SHORT $LN13@GetZoneTyp
$LN4@GetZoneTyp:

; 168  : 		}
; 169  : 	}
; 170  : 
; 171  : 	else

	jmp	SHORT $LN13@GetZoneTyp
$LN6@GetZoneTyp:

; 172  : 	{
; 173  : 		return AI_TACTICAL_MOVE_ZONE_UNOWNED;

	mov	eax, 6
$LN13@GetZoneTyp:

; 174  : 	}
; 175  : }

	mov	esp, ebp
	pop	ebp
	ret	0
?GetZoneType@CvTacticalDominanceZone@@QBE?AW4TacticalMoveZoneType@@XZ ENDP ; CvTacticalDominanceZone::GetZoneType
_TEXT	ENDS
PUBLIC	??1?$FStaticVector@VCvTacticalDominanceZone@@$0GO@$00$0BCJ@$0A@@@QAE@XZ ; FStaticVector<CvTacticalDominanceZone,110,1,297,0>::~FStaticVector<CvTacticalDominanceZone,110,1,297,0>
PUBLIC	??0?$FStaticVector@PAVCvUnit@@$0PK@$00$0BCJ@$0A@@@QAE@XZ ; FStaticVector<CvUnit *,250,1,297,0>::FStaticVector<CvUnit *,250,1,297,0>
PUBLIC	??0?$FStaticVector@VCvTacticalDominanceZone@@$0GO@$00$0BCJ@$0A@@@QAE@XZ ; FStaticVector<CvTacticalDominanceZone,110,1,297,0>::FStaticVector<CvTacticalDominanceZone,110,1,297,0>
PUBLIC	??0CvTacticalAnalysisMap@@QAE@XZ		; CvTacticalAnalysisMap::CvTacticalAnalysisMap
EXTRN	___security_cookie:DWORD
EXTRN	___CxxFrameHandler3:PROC
EXTRN	@__security_check_cookie@4:PROC
;	COMDAT xdata$x
; File d:\sources\lekmod_git\checkout\lekmod_dll\fireplace\include\fireworks\ffastvector.h
xdata$x	SEGMENT
__unwindtable$??0CvTacticalAnalysisMap@@QAE@XZ DD 0ffffffffH
	DD	FLAT:__unwindfunclet$??0CvTacticalAnalysisMap@@QAE@XZ$0
__ehfuncinfo$??0CvTacticalAnalysisMap@@QAE@XZ DD 019930522H
	DD	01H
	DD	FLAT:__unwindtable$??0CvTacticalAnalysisMap@@QAE@XZ
	DD	2 DUP(00H)
	DD	2 DUP(00H)
	DD	00H
	DD	01H
; Function compile flags: /Odtp
; File d:\sources\lekmod_git\checkout\lekmod_dll\cvgamecoredll_expansion2\cvtacticalanalysismap.cpp
xdata$x	ENDS
;	COMDAT ??0CvTacticalAnalysisMap@@QAE@XZ
_TEXT	SEGMENT
_this$ = -40						; size = 4
$T223744 = -36						; size = 4
_i$223739 = -32						; size = 4
__$EHRec$ = -12						; size = 12
??0CvTacticalAnalysisMap@@QAE@XZ PROC			; CvTacticalAnalysisMap::CvTacticalAnalysisMap, COMDAT
; _this$ = ecx

; 189  : {

	push	ebp
	mov	ebp, esp
	push	-1
	push	__ehhandler$??0CvTacticalAnalysisMap@@QAE@XZ
	mov	eax, DWORD PTR fs:0
	push	eax
	sub	esp, 28					; 0000001cH
	mov	eax, DWORD PTR ___security_cookie
	xor	eax, ebp
	push	eax
	lea	eax, DWORD PTR __$EHRec$[ebp]
	mov	DWORD PTR fs:0, eax
	mov	DWORD PTR _this$[ebp], ecx
	mov	eax, DWORD PTR _this$[ebp]
	mov	DWORD PTR [eax], 25			; 00000019H
	mov	ecx, DWORD PTR _this$[ebp]
	mov	DWORD PTR [ecx+4], 5
	mov	edx, DWORD PTR _this$[ebp]
	mov	DWORD PTR [edx+8], 8
	mov	eax, DWORD PTR _this$[ebp]
	mov	DWORD PTR [eax+12], 0
	mov	ecx, DWORD PTR _this$[ebp]
	mov	DWORD PTR [ecx+16], 0
	mov	edx, DWORD PTR _this$[ebp]
	mov	DWORD PTR [edx+20], 0
	mov	eax, DWORD PTR _this$[ebp]
	mov	DWORD PTR [eax+28], 0
	mov	ecx, DWORD PTR _this$[ebp]
	mov	BYTE PTR [ecx+32], 0
	mov	ecx, DWORD PTR _this$[ebp]
	add	ecx, 36					; 00000024H
	call	??0CvTacticalDominanceZone@@QAE@XZ	; CvTacticalDominanceZone::CvTacticalDominanceZone
	mov	ecx, DWORD PTR _this$[ebp]
	add	ecx, 112				; 00000070H
	call	??0?$FStaticVector@VCvTacticalDominanceZone@@$0GO@$00$0BCJ@$0A@@@QAE@XZ ; FStaticVector<CvTacticalDominanceZone,110,1,297,0>::FStaticVector<CvTacticalDominanceZone,110,1,297,0>
	mov	DWORD PTR __$EHRec$[ebp+8], 0
	mov	ecx, DWORD PTR _this$[ebp]
	add	ecx, 8488				; 00002128H
	call	??0?$FStaticVector@PAVCvUnit@@$0PK@$00$0BCJ@$0A@@@QAE@XZ ; FStaticVector<CvUnit *,250,1,297,0>::FStaticVector<CvUnit *,250,1,297,0>

; 190  : 	m_bIsBuilt = false;

	mov	edx, DWORD PTR _this$[ebp]
	mov	BYTE PTR [edx+34], 0

; 191  : 	m_iTurnBuilt = -1;

	mov	eax, DWORD PTR _this$[ebp]
	mov	DWORD PTR [eax+24], -1

; 192  : 	m_bAtWar = false;

	mov	ecx, DWORD PTR _this$[ebp]
	mov	BYTE PTR [ecx+33], 0

; 193  : 	m_DominanceZones.clear();

	mov	edx, DWORD PTR _this$[ebp]
	add	edx, 112				; 00000070H
	mov	DWORD PTR $T223744[ebp], edx
	xor	eax, eax
	je	SHORT $LN29@CvTactical
	mov	DWORD PTR _i$223739[ebp], 0
	jmp	SHORT $LN27@CvTactical
$LN26@CvTactical:
	mov	ecx, DWORD PTR _i$223739[ebp]
	add	ecx, 1
	mov	DWORD PTR _i$223739[ebp], ecx
$LN27@CvTactical:
	mov	edx, DWORD PTR $T223744[ebp]
	mov	eax, DWORD PTR _i$223739[ebp]
	cmp	eax, DWORD PTR [edx+4]
	jae	SHORT $LN29@CvTactical
	jmp	SHORT $LN26@CvTactical
$LN29@CvTactical:
	mov	ecx, DWORD PTR $T223744[ebp]
	mov	DWORD PTR [ecx+4], 0

; 194  : }

	mov	DWORD PTR __$EHRec$[ebp+8], -1
	mov	eax, DWORD PTR _this$[ebp]
	mov	ecx, DWORD PTR __$EHRec$[ebp]
	mov	DWORD PTR fs:0, ecx
	pop	ecx
	mov	esp, ebp
	pop	ebp
	ret	0
_TEXT	ENDS
;	COMDAT text$x
text$x	SEGMENT
__unwindfunclet$??0CvTacticalAnalysisMap@@QAE@XZ$0:
	mov	ecx, DWORD PTR _this$[ebp]
	add	ecx, 112				; 00000070H
	jmp	??1?$FStaticVector@VCvTacticalDominanceZone@@$0GO@$00$0BCJ@$0A@@@QAE@XZ ; FStaticVector<CvTacticalDominanceZone,110,1,297,0>::~FStaticVector<CvTacticalDominanceZone,110,1,297,0>
__ehhandler$??0CvTacticalAnalysisMap@@QAE@XZ:
	mov	edx, DWORD PTR [esp+8]
	lea	eax, DWORD PTR [edx+12]
	mov	ecx, DWORD PTR [edx-32]
	xor	ecx, eax
	call	@__security_check_cookie@4
	mov	eax, OFFSET __ehfuncinfo$??0CvTacticalAnalysisMap@@QAE@XZ
	jmp	___CxxFrameHandler3
text$x	ENDS
??0CvTacticalAnalysisMap@@QAE@XZ ENDP			; CvTacticalAnalysisMap::CvTacticalAnalysisMap
PUBLIC	??1?$FStaticVector@PAVCvUnit@@$0PK@$00$0BCJ@$0A@@@QAE@XZ ; FStaticVector<CvUnit *,250,1,297,0>::~FStaticVector<CvUnit *,250,1,297,0>
PUBLIC	??1CvTacticalAnalysisMap@@QAE@XZ		; CvTacticalAnalysisMap::~CvTacticalAnalysisMap
EXTRN	??_V@YAXPAX@Z:PROC				; operator delete[]
;	COMDAT xdata$x
; File d:\sources\lekmod_git\checkout\lekmod_dll\fireplace\include\fireworks\ffastvector.h
xdata$x	SEGMENT
__unwindtable$??1CvTacticalAnalysisMap@@QAE@XZ DD 0ffffffffH
	DD	FLAT:__unwindfunclet$??1CvTacticalAnalysisMap@@QAE@XZ$0
__ehfuncinfo$??1CvTacticalAnalysisMap@@QAE@XZ DD 019930522H
	DD	01H
	DD	FLAT:__unwindtable$??1CvTacticalAnalysisMap@@QAE@XZ
	DD	2 DUP(00H)
	DD	2 DUP(00H)
	DD	00H
	DD	01H
; Function compile flags: /Odtp
; File d:\sources\lekmod_git\checkout\lekmod_dll\cvgamecoredll_expansion2\cvtacticalanalysismap.cpp
xdata$x	ENDS
;	COMDAT ??1CvTacticalAnalysisMap@@QAE@XZ
_TEXT	SEGMENT
_this$ = -48						; size = 4
$T223765 = -20						; size = 4
$T223763 = -16						; size = 4
__$EHRec$ = -12						; size = 12
??1CvTacticalAnalysisMap@@QAE@XZ PROC			; CvTacticalAnalysisMap::~CvTacticalAnalysisMap, COMDAT
; _this$ = ecx

; 198  : {

	push	ebp
	mov	ebp, esp
	push	-1
	push	__ehhandler$??1CvTacticalAnalysisMap@@QAE@XZ
	mov	eax, DWORD PTR fs:0
	push	eax
	sub	esp, 36					; 00000024H
	mov	eax, DWORD PTR ___security_cookie
	xor	eax, ebp
	push	eax
	lea	eax, DWORD PTR __$EHRec$[ebp]
	mov	DWORD PTR fs:0, eax
	mov	DWORD PTR _this$[ebp], ecx
	mov	DWORD PTR __$EHRec$[ebp+8], 0

; 199  : 	SAFE_DELETE_ARRAY(m_pPlots);

	mov	eax, DWORD PTR _this$[ebp]
	add	eax, 12					; 0000000cH
	mov	DWORD PTR $T223765[ebp], eax
	mov	ecx, DWORD PTR $T223765[ebp]
	mov	edx, DWORD PTR [ecx]
	mov	DWORD PTR $T223763[ebp], edx
	mov	eax, DWORD PTR $T223763[ebp]
	push	eax
	call	??_V@YAXPAX@Z				; operator delete[]
	add	esp, 4
	mov	ecx, DWORD PTR $T223765[ebp]
	mov	DWORD PTR [ecx], 0

; 200  : }

	mov	ecx, DWORD PTR _this$[ebp]
	add	ecx, 8488				; 00002128H
	call	??1?$FStaticVector@PAVCvUnit@@$0PK@$00$0BCJ@$0A@@@QAE@XZ ; FStaticVector<CvUnit *,250,1,297,0>::~FStaticVector<CvUnit *,250,1,297,0>
	mov	DWORD PTR __$EHRec$[ebp+8], -1
	mov	ecx, DWORD PTR _this$[ebp]
	add	ecx, 112				; 00000070H
	call	??1?$FStaticVector@VCvTacticalDominanceZone@@$0GO@$00$0BCJ@$0A@@@QAE@XZ ; FStaticVector<CvTacticalDominanceZone,110,1,297,0>::~FStaticVector<CvTacticalDominanceZone,110,1,297,0>
	mov	ecx, DWORD PTR __$EHRec$[ebp]
	mov	DWORD PTR fs:0, ecx
	pop	ecx
	mov	esp, ebp
	pop	ebp
	ret	0
_TEXT	ENDS
;	COMDAT text$x
text$x	SEGMENT
__unwindfunclet$??1CvTacticalAnalysisMap@@QAE@XZ$0:
	mov	ecx, DWORD PTR _this$[ebp]
	add	ecx, 112				; 00000070H
	jmp	??1?$FStaticVector@VCvTacticalDominanceZone@@$0GO@$00$0BCJ@$0A@@@QAE@XZ ; FStaticVector<CvTacticalDominanceZone,110,1,297,0>::~FStaticVector<CvTacticalDominanceZone,110,1,297,0>
__ehhandler$??1CvTacticalAnalysisMap@@QAE@XZ:
	mov	edx, DWORD PTR [esp+8]
	lea	eax, DWORD PTR [edx+12]
	mov	ecx, DWORD PTR [edx-40]
	xor	ecx, eax
	call	@__security_check_cookie@4
	mov	eax, OFFSET __ehfuncinfo$??1CvTacticalAnalysisMap@@QAE@XZ
	jmp	___CxxFrameHandler3
text$x	ENDS
??1CvTacticalAnalysisMap@@QAE@XZ ENDP			; CvTacticalAnalysisMap::~CvTacticalAnalysisMap
PUBLIC	?Init@CvTacticalAnalysisMap@@QAEXH@Z		; CvTacticalAnalysisMap::Init
EXTRN	?gGlobals@@3VCvGlobals@@A:BYTE			; gGlobals
EXTRN	??_U@YAPAXI@Z:PROC				; operator new[]
;	COMDAT xdata$x
; File d:\sources\lekmod_git\checkout\lekmod_dll\cvgamecoredll_expansion2\cvglobals.h
xdata$x	SEGMENT
__unwindtable$?Init@CvTacticalAnalysisMap@@QAEXH@Z DD 0ffffffffH
	DD	FLAT:__unwindfunclet$?Init@CvTacticalAnalysisMap@@QAEXH@Z$0
__ehfuncinfo$?Init@CvTacticalAnalysisMap@@QAEXH@Z DD 019930522H
	DD	01H
	DD	FLAT:__unwindtable$?Init@CvTacticalAnalysisMap@@QAEXH@Z
	DD	2 DUP(00H)
	DD	2 DUP(00H)
	DD	00H
	DD	01H
; Function compile flags: /Odtp
; File d:\sources\lekmod_git\checkout\lekmod_dll\cvgamecoredll_expansion2\cvtacticalanalysismap.cpp
xdata$x	ENDS
;	COMDAT ?Init@CvTacticalAnalysisMap@@QAEXH@Z
_TEXT	SEGMENT
tv83 = -52						; size = 4
_this$ = -48						; size = 4
$T223850 = -44						; size = 4
$T223846 = -40						; size = 4
$T223845 = -36						; size = 4
$T223839 = -32						; size = 4
$T223837 = -28						; size = 4
$T223830 = -24						; size = 4
$T223829 = -20						; size = 4
$T223828 = -16						; size = 4
__$EHRec$ = -12						; size = 12
_iNumPlots$ = 8						; size = 4
?Init@CvTacticalAnalysisMap@@QAEXH@Z PROC		; CvTacticalAnalysisMap::Init, COMDAT
; _this$ = ecx

; 204  : {

	push	ebp
	mov	ebp, esp
	push	-1
	push	__ehhandler$?Init@CvTacticalAnalysisMap@@QAEXH@Z
	mov	eax, DWORD PTR fs:0
	push	eax
	sub	esp, 40					; 00000028H
	mov	eax, DWORD PTR ___security_cookie
	xor	eax, ebp
	push	eax
	lea	eax, DWORD PTR __$EHRec$[ebp]
	mov	DWORD PTR fs:0, eax
	mov	DWORD PTR _this$[ebp], ecx

; 205  : 	// Time building of these maps
; 206  : 	AI_PERF("AI-perf-tact.csv", "CvTacticalAnalysisMap::Init()" );
; 207  : 
; 208  : 	if(m_pPlots)

	mov	eax, DWORD PTR _this$[ebp]
	cmp	DWORD PTR [eax+12], 0
	je	SHORT $LN1@Init

; 209  : 	{
; 210  : 		SAFE_DELETE_ARRAY(m_pPlots);

	mov	ecx, DWORD PTR _this$[ebp]
	add	ecx, 12					; 0000000cH
	mov	DWORD PTR $T223839[ebp], ecx
	mov	edx, DWORD PTR $T223839[ebp]
	mov	eax, DWORD PTR [edx]
	mov	DWORD PTR $T223837[ebp], eax
	mov	ecx, DWORD PTR $T223837[ebp]
	push	ecx
	call	??_V@YAXPAX@Z				; operator delete[]
	add	esp, 4
	mov	edx, DWORD PTR $T223839[ebp]
	mov	DWORD PTR [edx], 0
$LN1@Init:

; 211  : 	}
; 212  : 	m_pPlots = FNEW(CvTacticalAnalysisCell[iNumPlots], c_eCiv5GameplayDLL, 0);

	mov	eax, DWORD PTR _iNumPlots$[ebp]
	mov	DWORD PTR $T223828[ebp], eax
	xor	ecx, ecx
	mov	eax, DWORD PTR $T223828[ebp]
	mov	edx, 44					; 0000002cH
	mul	edx
	seto	cl
	neg	ecx
	or	ecx, eax
	push	ecx
	call	??_U@YAPAXI@Z				; operator new[]
	add	esp, 4
	mov	DWORD PTR $T223830[ebp], eax
	mov	DWORD PTR __$EHRec$[ebp+8], 0
	cmp	DWORD PTR $T223830[ebp], 0
	je	SHORT $LN4@Init
	mov	eax, DWORD PTR $T223828[ebp]
	mov	DWORD PTR $T223846[ebp], eax
	mov	ecx, DWORD PTR $T223830[ebp]
	mov	DWORD PTR $T223845[ebp], ecx
$LN10@Init:
	mov	edx, DWORD PTR $T223846[ebp]
	sub	edx, 1
	mov	DWORD PTR $T223846[ebp], edx
	js	SHORT $LN11@Init
	mov	ecx, DWORD PTR $T223845[ebp]
	call	??0CvTacticalAnalysisCell@@QAE@XZ	; CvTacticalAnalysisCell::CvTacticalAnalysisCell
	mov	eax, DWORD PTR $T223845[ebp]
	add	eax, 44					; 0000002cH
	mov	DWORD PTR $T223845[ebp], eax
	jmp	SHORT $LN10@Init
$LN11@Init:
	mov	ecx, DWORD PTR $T223830[ebp]
	mov	DWORD PTR tv83[ebp], ecx
	jmp	SHORT $LN5@Init
$LN4@Init:
	mov	DWORD PTR tv83[ebp], 0
$LN5@Init:
	mov	edx, DWORD PTR tv83[ebp]
	mov	DWORD PTR $T223829[ebp], edx
	mov	DWORD PTR __$EHRec$[ebp+8], -1
	mov	eax, DWORD PTR _this$[ebp]
	mov	ecx, DWORD PTR $T223829[ebp]
	mov	DWORD PTR [eax+12], ecx

; 213  : 	m_iNumPlots = iNumPlots;

	mov	edx, DWORD PTR _this$[ebp]
	mov	eax, DWORD PTR _iNumPlots$[ebp]
	mov	DWORD PTR [edx+16], eax

; 214  : 
; 215  : 	m_iDominancePercentage = GC.getAI_TACTICAL_MAP_DOMINANCE_PERCENTAGE();

	mov	ecx, DWORD PTR ?gGlobals@@3VCvGlobals@@A+2444
	mov	DWORD PTR $T223850[ebp], ecx
	mov	edx, DWORD PTR _this$[ebp]
	mov	eax, DWORD PTR $T223850[ebp]
	mov	DWORD PTR [edx], eax

; 216  : }

	mov	ecx, DWORD PTR __$EHRec$[ebp]
	mov	DWORD PTR fs:0, ecx
	pop	ecx
	mov	esp, ebp
	pop	ebp
	ret	4
_TEXT	ENDS
;	COMDAT text$x
text$x	SEGMENT
__unwindfunclet$?Init@CvTacticalAnalysisMap@@QAEXH@Z$0:
	mov	eax, DWORD PTR $T223830[ebp]
	push	eax
	call	??_V@YAXPAX@Z				; operator delete[]
	pop	ecx
	ret	0
__ehhandler$?Init@CvTacticalAnalysisMap@@QAEXH@Z:
	mov	edx, DWORD PTR [esp+8]
	lea	eax, DWORD PTR [edx+12]
	mov	ecx, DWORD PTR [edx-44]
	xor	ecx, eax
	call	@__security_check_cookie@4
	mov	eax, OFFSET __ehfuncinfo$?Init@CvTacticalAnalysisMap@@QAEXH@Z
	jmp	___CxxFrameHandler3
text$x	ENDS
?Init@CvTacticalAnalysisMap@@QAEXH@Z ENDP		; CvTacticalAnalysisMap::Init
PUBLIC	??_H@YGXPAXIHP6EPAX0@Z@Z			; `vector constructor iterator'
; Function compile flags: /Odtp
;	COMDAT ??_H@YGXPAXIHP6EPAX0@Z@Z
_TEXT	SEGMENT
___t$ = 8						; size = 4
___s$ = 12						; size = 4
___n$ = 16						; size = 4
___f$ = 20						; size = 4
??_H@YGXPAXIHP6EPAX0@Z@Z PROC				; `vector constructor iterator', COMDAT
	push	ebp
	mov	ebp, esp
$LN2@vector:
	mov	eax, DWORD PTR ___n$[ebp]
	sub	eax, 1
	mov	DWORD PTR ___n$[ebp], eax
	js	SHORT $LN3@vector
	mov	ecx, DWORD PTR ___t$[ebp]
	call	DWORD PTR ___f$[ebp]
	mov	ecx, DWORD PTR ___t$[ebp]
	add	ecx, DWORD PTR ___s$[ebp]
	mov	DWORD PTR ___t$[ebp], ecx
	jmp	SHORT $LN2@vector
$LN3@vector:
	pop	ebp
	ret	16					; 00000010H
??_H@YGXPAXIHP6EPAX0@Z@Z ENDP				; `vector constructor iterator'
_TEXT	ENDS
PUBLIC	?MarkCellsNearEnemy@CvTacticalAnalysisMap@@IAEXXZ ; CvTacticalAnalysisMap::MarkCellsNearEnemy
PUBLIC	?BuildEnemyUnitList@CvTacticalAnalysisMap@@IAEXXZ ; CvTacticalAnalysisMap::BuildEnemyUnitList
PUBLIC	?LogZones@CvTacticalAnalysisMap@@IAEXXZ		; CvTacticalAnalysisMap::LogZones
PUBLIC	?PrioritizeZones@CvTacticalAnalysisMap@@IAEXXZ	; CvTacticalAnalysisMap::PrioritizeZones
PUBLIC	?CalculateMilitaryStrengths@CvTacticalAnalysisMap@@IAEXXZ ; CvTacticalAnalysisMap::CalculateMilitaryStrengths
PUBLIC	?AddToDominanceZones@CvTacticalAnalysisMap@@IAEXHPAVCvTacticalAnalysisCell@@@Z ; CvTacticalAnalysisMap::AddToDominanceZones
PUBLIC	?PopulateCell@CvTacticalAnalysisMap@@IAE_NHPAVCvPlot@@@Z ; CvTacticalAnalysisMap::PopulateCell
PUBLIC	?AddTemporaryZones@CvTacticalAnalysisMap@@IAEXXZ ; CvTacticalAnalysisMap::AddTemporaryZones
PUBLIC	?RefreshDataForNextPlayer@CvTacticalAnalysisMap@@QAEXPAVCvPlayer@@@Z ; CvTacticalAnalysisMap::RefreshDataForNextPlayer
EXTRN	?isBarbarian@CvPlayer@@QBE_NXZ:PROC		; CvPlayer::isBarbarian
EXTRN	?getCurrentEra@CvGame@@QBE?AW4EraTypes@@XZ:PROC	; CvGame::getCurrentEra
EXTRN	?getGameTurn@CvGame@@QAEHXZ:PROC		; CvGame::getGameTurn
; Function compile flags: /Odtp
;	COMDAT ?RefreshDataForNextPlayer@CvTacticalAnalysisMap@@QAEXPAVCvPlayer@@@Z
_TEXT	SEGMENT
_this$ = -52						; size = 4
$T223911 = -48						; size = 4
$T223907 = -44						; size = 4
$T223903 = -40						; size = 4
$T223899 = -36						; size = 4
_i$223894 = -32						; size = 4
$T223880 = -28						; size = 4
$T223876 = -24						; size = 4
$T223872 = -20						; size = 4
$T223868 = -16						; size = 4
$T223864 = -12						; size = 4
_pPlot$221471 = -8					; size = 4
_iI$221467 = -4						; size = 4
_pPlayer$ = 8						; size = 4
?RefreshDataForNextPlayer@CvTacticalAnalysisMap@@QAEXPAVCvPlayer@@@Z PROC ; CvTacticalAnalysisMap::RefreshDataForNextPlayer, COMDAT
; _this$ = ecx

; 220  : {

	push	ebp
	mov	ebp, esp
	sub	esp, 52					; 00000034H
	mov	DWORD PTR _this$[ebp], ecx

; 221  : 	if(m_pPlots)

	mov	eax, DWORD PTR _this$[ebp]
	cmp	DWORD PTR [eax+12], 0
	je	$LN11@RefreshDat

; 222  : 	{
; 223  : 		if(pPlayer != m_pPlayer || m_iTurnBuilt < GC.getGame().getGameTurn())

	mov	ecx, DWORD PTR _this$[ebp]
	mov	edx, DWORD PTR _pPlayer$[ebp]
	cmp	edx, DWORD PTR [ecx+20]
	jne	SHORT $LN8@RefreshDat
	mov	eax, DWORD PTR ?gGlobals@@3VCvGlobals@@A+48
	mov	DWORD PTR $T223864[ebp], eax
	mov	ecx, DWORD PTR $T223864[ebp]
	call	?getGameTurn@CvGame@@QAEHXZ		; CvGame::getGameTurn
	mov	ecx, DWORD PTR _this$[ebp]
	cmp	DWORD PTR [ecx+24], eax
	jge	$LN11@RefreshDat
$LN8@RefreshDat:

; 224  : 		{
; 225  : 			m_pPlayer = pPlayer;

	mov	edx, DWORD PTR _this$[ebp]
	mov	eax, DWORD PTR _pPlayer$[ebp]
	mov	DWORD PTR [edx+20], eax

; 226  : 			m_iTurnBuilt = GC.getGame().getGameTurn();

	mov	ecx, DWORD PTR ?gGlobals@@3VCvGlobals@@A+48
	mov	DWORD PTR $T223868[ebp], ecx
	mov	ecx, DWORD PTR $T223868[ebp]
	call	?getGameTurn@CvGame@@QAEHXZ		; CvGame::getGameTurn
	mov	edx, DWORD PTR _this$[ebp]
	mov	DWORD PTR [edx+24], eax

; 227  : 			m_iTacticalRange = ((GC.getAI_TACTICAL_RECRUIT_RANGE() + GC.getGame().getCurrentEra()) * 2) / 3;  // Have this increase as game goes on

	mov	eax, DWORD PTR ?gGlobals@@3VCvGlobals@@A+2460
	mov	DWORD PTR $T223872[ebp], eax
	mov	ecx, DWORD PTR ?gGlobals@@3VCvGlobals@@A+48
	mov	DWORD PTR $T223876[ebp], ecx
	mov	ecx, DWORD PTR $T223876[ebp]
	call	?getCurrentEra@CvGame@@QBE?AW4EraTypes@@XZ ; CvGame::getCurrentEra
	add	eax, DWORD PTR $T223872[ebp]
	shl	eax, 1
	cdq
	mov	ecx, 3
	idiv	ecx
	mov	edx, DWORD PTR _this$[ebp]
	mov	DWORD PTR [edx+8], eax

; 228  : 			m_iUnitStrengthMultiplier = GC.getAI_TACTICAL_MAP_UNIT_STRENGTH_MULTIPLIER() * m_iTacticalRange;

	mov	eax, DWORD PTR ?gGlobals@@3VCvGlobals@@A+2440
	mov	DWORD PTR $T223880[ebp], eax
	mov	ecx, DWORD PTR _this$[ebp]
	mov	edx, DWORD PTR $T223880[ebp]
	imul	edx, DWORD PTR [ecx+8]
	mov	eax, DWORD PTR _this$[ebp]
	mov	DWORD PTR [eax+4], edx

; 229  : 
; 230  : #ifdef AUI_PERF_LOGGING_FORMATTING_TWEAKS
; 231  : 			AI_PERF_FORMAT("AI-perf.csv", ("Tactical Analysis Map, Turn %03d, %s", GC.getGame().getGameTurn(), m_pPlayer->getCivilizationShortDescription()));
; 232  : #else
; 233  : 			AI_PERF_FORMAT("AI-perf.csv", ("Tactical Analysis Map, Turn %d, %s", GC.getGame().getGameTurn(), m_pPlayer->getCivilizationShortDescription()) );
; 234  : #endif
; 235  : 
; 236  : 			m_bIsBuilt = false;

	mov	ecx, DWORD PTR _this$[ebp]
	mov	BYTE PTR [ecx+34], 0

; 237  : 
; 238  : 			// AI civs build this map every turn
; 239  : 			//if (!m_pPlayer->isHuman() && !m_pPlayer->isBarbarian())
; 240  : 			if(!m_pPlayer->isBarbarian())

	mov	edx, DWORD PTR _this$[ebp]
	mov	ecx, DWORD PTR [edx+20]
	call	?isBarbarian@CvPlayer@@QBE_NXZ		; CvPlayer::isBarbarian
	movzx	eax, al
	test	eax, eax
	jne	$LN11@RefreshDat

; 241  : 			{
; 242  : 				m_DominanceZones.clear();

	mov	ecx, DWORD PTR _this$[ebp]
	add	ecx, 112				; 00000070H
	mov	DWORD PTR $T223899[ebp], ecx
	xor	edx, edx
	je	SHORT $LN29@RefreshDat
	mov	DWORD PTR _i$223894[ebp], 0
	jmp	SHORT $LN27@RefreshDat
$LN26@RefreshDat:
	mov	eax, DWORD PTR _i$223894[ebp]
	add	eax, 1
	mov	DWORD PTR _i$223894[ebp], eax
$LN27@RefreshDat:
	mov	ecx, DWORD PTR $T223899[ebp]
	mov	edx, DWORD PTR _i$223894[ebp]
	cmp	edx, DWORD PTR [ecx+4]
	jae	SHORT $LN29@RefreshDat
	jmp	SHORT $LN26@RefreshDat
$LN29@RefreshDat:
	mov	eax, DWORD PTR $T223899[ebp]
	mov	DWORD PTR [eax+4], 0

; 243  : 
; 244  : 				AddTemporaryZones();

	mov	ecx, DWORD PTR _this$[ebp]
	call	?AddTemporaryZones@CvTacticalAnalysisMap@@IAEXXZ ; CvTacticalAnalysisMap::AddTemporaryZones

; 245  : 
; 246  : #ifdef AUI_WARNING_FIXES
; 247  : 				for (uint iI = 0; iI < GC.getMap().numPlots(); iI++)
; 248  : #else
; 249  : 				for(int iI = 0; iI < GC.getMap().numPlots(); iI++)

	mov	DWORD PTR _iI$221467[ebp], 0
	jmp	SHORT $LN6@RefreshDat
$LN5@RefreshDat:
	mov	ecx, DWORD PTR _iI$221467[ebp]
	add	ecx, 1
	mov	DWORD PTR _iI$221467[ebp], ecx
$LN6@RefreshDat:
	mov	edx, DWORD PTR ?gGlobals@@3VCvGlobals@@A+52
	mov	DWORD PTR $T223903[ebp], edx
	mov	eax, DWORD PTR $T223903[ebp]
	mov	ecx, DWORD PTR [eax+4028]
	mov	DWORD PTR $T223907[ebp], ecx
	mov	edx, DWORD PTR _iI$221467[ebp]
	cmp	edx, DWORD PTR $T223907[ebp]
	jge	SHORT $LN4@RefreshDat

; 250  : #endif
; 251  : 				{
; 252  : 					CvAssertMsg((iI < m_iNumPlots), "Plot to be accessed exceeds allocation!");
; 253  : 
; 254  : 					CvPlot* pPlot = GC.getMap().plotByIndexUnchecked(iI);

	mov	eax, DWORD PTR ?gGlobals@@3VCvGlobals@@A+52
	mov	DWORD PTR $T223911[ebp], eax
	mov	ecx, DWORD PTR _iI$221467[ebp]
	imul	ecx, 484				; 000001e4H
	mov	edx, DWORD PTR $T223911[ebp]
	add	ecx, DWORD PTR [edx+4068]
	mov	DWORD PTR _pPlot$221471[ebp], ecx

; 255  : 					if(pPlot == NULL)

	jne	SHORT $LN3@RefreshDat

; 256  : 					{
; 257  : 						// Erase this cell
; 258  : 						m_pPlots[iI].Clear();

	mov	ecx, DWORD PTR _iI$221467[ebp]
	imul	ecx, 44					; 0000002cH
	mov	eax, DWORD PTR _this$[ebp]
	add	ecx, DWORD PTR [eax+12]
	call	?Clear@CvTacticalAnalysisCell@@QAEXXZ	; CvTacticalAnalysisCell::Clear

; 259  : 					}
; 260  : 					else

	jmp	SHORT $LN2@RefreshDat
$LN3@RefreshDat:

; 261  : 					{
; 262  : 						if(PopulateCell(iI, pPlot))

	mov	ecx, DWORD PTR _pPlot$221471[ebp]
	push	ecx
	mov	edx, DWORD PTR _iI$221467[ebp]
	push	edx
	mov	ecx, DWORD PTR _this$[ebp]
	call	?PopulateCell@CvTacticalAnalysisMap@@IAE_NHPAVCvPlot@@@Z ; CvTacticalAnalysisMap::PopulateCell
	movzx	eax, al
	test	eax, eax
	je	SHORT $LN2@RefreshDat

; 263  : 						{
; 264  : 							AddToDominanceZones(iI, &m_pPlots[iI]);

	mov	ecx, DWORD PTR _iI$221467[ebp]
	imul	ecx, 44					; 0000002cH
	mov	edx, DWORD PTR _this$[ebp]
	add	ecx, DWORD PTR [edx+12]
	push	ecx
	mov	eax, DWORD PTR _iI$221467[ebp]
	push	eax
	mov	ecx, DWORD PTR _this$[ebp]
	call	?AddToDominanceZones@CvTacticalAnalysisMap@@IAEXHPAVCvTacticalAnalysisCell@@@Z ; CvTacticalAnalysisMap::AddToDominanceZones
$LN2@RefreshDat:

; 265  : 						}
; 266  : 					}
; 267  : 				}

	jmp	$LN5@RefreshDat
$LN4@RefreshDat:

; 268  : 
; 269  : 				CalculateMilitaryStrengths();

	mov	ecx, DWORD PTR _this$[ebp]
	call	?CalculateMilitaryStrengths@CvTacticalAnalysisMap@@IAEXXZ ; CvTacticalAnalysisMap::CalculateMilitaryStrengths

; 270  : 				PrioritizeZones();

	mov	ecx, DWORD PTR _this$[ebp]
	call	?PrioritizeZones@CvTacticalAnalysisMap@@IAEXXZ ; CvTacticalAnalysisMap::PrioritizeZones

; 271  : 				LogZones();

	mov	ecx, DWORD PTR _this$[ebp]
	call	?LogZones@CvTacticalAnalysisMap@@IAEXXZ	; CvTacticalAnalysisMap::LogZones

; 272  : 				BuildEnemyUnitList();

	mov	ecx, DWORD PTR _this$[ebp]
	call	?BuildEnemyUnitList@CvTacticalAnalysisMap@@IAEXXZ ; CvTacticalAnalysisMap::BuildEnemyUnitList

; 273  : 				MarkCellsNearEnemy();

	mov	ecx, DWORD PTR _this$[ebp]
	call	?MarkCellsNearEnemy@CvTacticalAnalysisMap@@IAEXXZ ; CvTacticalAnalysisMap::MarkCellsNearEnemy

; 274  : 
; 275  : 				m_bIsBuilt = true;

	mov	ecx, DWORD PTR _this$[ebp]
	mov	BYTE PTR [ecx+34], 1
$LN11@RefreshDat:

; 276  : 			}
; 277  : 		}
; 278  : 	}
; 279  : }

	mov	esp, ebp
	pop	ebp
	ret	4
?RefreshDataForNextPlayer@CvTacticalAnalysisMap@@QAEXPAVCvPlayer@@@Z ENDP ; CvTacticalAnalysisMap::RefreshDataForNextPlayer
_TEXT	ENDS
PUBLIC	?push_back@?$FStaticVector@PAVCvUnit@@$0PK@$00$0BCJ@$0A@@@QAEIABQAVCvUnit@@@Z ; FStaticVector<CvUnit *,250,1,297,0>::push_back
EXTRN	?IsCanAttack@CvUnit@@QBE_NXZ:PROC		; CvUnit::IsCanAttack
EXTRN	?nextUnit@CvPlayer@@QAEPAVCvUnit@@PAH_N@Z:PROC	; CvPlayer::nextUnit
EXTRN	?firstUnit@CvPlayer@@QAEPAVCvUnit@@PAH_N@Z:PROC	; CvPlayer::firstUnit
EXTRN	?isAtWar@CvTeam@@QBE_NW4TeamTypes@@@Z:PROC	; CvTeam::isAtWar
EXTRN	?m_aTeams@CvTeam@@1PAV1@A:DWORD			; CvTeam::m_aTeams
; Function compile flags: /Odtp
;	COMDAT ?BuildEnemyUnitList@CvTacticalAnalysisMap@@IAEXXZ
_TEXT	SEGMENT
_this$ = -96						; size = 4
$T223972 = -52						; size = 4
$T223968 = -48						; size = 4
$T223967 = -44						; size = 4
$T223958 = -37						; size = 1
$T223938 = -36						; size = 4
_i$223933 = -32						; size = 4
_pLoopUnit$221489 = -28					; size = 4
_iLoop$221488 = -24					; size = 4
_ePlayer$221483 = -20					; size = 4
_eTeam$221486 = -16					; size = 4
_kPlayer$221485 = -12					; size = 4
_iPlayer$221479 = -8					; size = 4
_enemy$ = -4						; size = 4
?BuildEnemyUnitList@CvTacticalAnalysisMap@@IAEXXZ PROC	; CvTacticalAnalysisMap::BuildEnemyUnitList, COMDAT
; _this$ = ecx

; 283  : {

	push	ebp
	mov	ebp, esp
	sub	esp, 96					; 00000060H
	mov	DWORD PTR _this$[ebp], ecx

; 284  : 	CvTacticalAnalysisEnemy enemy;

	mov	DWORD PTR _enemy$[ebp], 0

; 285  : 	m_EnemyUnits.clear();

	mov	eax, DWORD PTR _this$[ebp]
	add	eax, 8488				; 00002128H
	mov	DWORD PTR $T223938[ebp], eax
	xor	ecx, ecx
	je	SHORT $LN19@BuildEnemy
	mov	DWORD PTR _i$223933[ebp], 0
	jmp	SHORT $LN17@BuildEnemy
$LN16@BuildEnemy:
	mov	edx, DWORD PTR _i$223933[ebp]
	add	edx, 1
	mov	DWORD PTR _i$223933[ebp], edx
$LN17@BuildEnemy:
	mov	eax, DWORD PTR $T223938[ebp]
	mov	ecx, DWORD PTR _i$223933[ebp]
	cmp	ecx, DWORD PTR [eax+4]
	jae	SHORT $LN19@BuildEnemy
	jmp	SHORT $LN16@BuildEnemy
$LN19@BuildEnemy:
	mov	edx, DWORD PTR $T223938[ebp]
	mov	DWORD PTR [edx+4], 0

; 286  : 
; 287  : 	for(int iPlayer = 0; iPlayer < MAX_PLAYERS; iPlayer++)

	mov	DWORD PTR _iPlayer$221479[ebp], 0
	jmp	SHORT $LN8@BuildEnemy
$LN7@BuildEnemy:
	mov	eax, DWORD PTR _iPlayer$221479[ebp]
	add	eax, 1
	mov	DWORD PTR _iPlayer$221479[ebp], eax
$LN8@BuildEnemy:
	cmp	DWORD PTR _iPlayer$221479[ebp], 64	; 00000040H
	jge	$LN9@BuildEnemy

; 288  : 	{
; 289  : 		const PlayerTypes ePlayer = (PlayerTypes)iPlayer;

	mov	ecx, DWORD PTR _iPlayer$221479[ebp]
	mov	DWORD PTR _ePlayer$221483[ebp], ecx

; 290  : 		CvPlayer& kPlayer = GET_PLAYER(ePlayer);

	mov	edx, DWORD PTR _ePlayer$221483[ebp]
	imul	edx, 63236				; 0000f704H
	add	edx, DWORD PTR ?m_aPlayers@CvPlayerAI@@1PAV1@A ; CvPlayerAI::m_aPlayers
	mov	DWORD PTR _kPlayer$221485[ebp], edx

; 291  : 		const TeamTypes eTeam = kPlayer.getTeam();

	mov	eax, DWORD PTR _kPlayer$221485[ebp]
	mov	ecx, DWORD PTR [eax+44]
	push	ecx
	call	?teamType@CvPreGame@@YA?AW4TeamTypes@@W4PlayerTypes@@@Z ; CvPreGame::teamType
	add	esp, 4
	mov	DWORD PTR _eTeam$221486[ebp], eax

; 292  : 
; 293  : 		// for each opposing civ
; 294  : 		if(kPlayer.isAlive() && GET_TEAM(eTeam).isAtWar(m_pPlayer->getTeam()))

	mov	edx, DWORD PTR _kPlayer$221485[ebp]
	mov	al, BYTE PTR [edx+2256]
	mov	BYTE PTR $T223958[ebp], al
	movzx	ecx, BYTE PTR $T223958[ebp]
	test	ecx, ecx
	je	$LN5@BuildEnemy
	mov	edx, DWORD PTR _this$[ebp]
	mov	eax, DWORD PTR [edx+20]
	mov	DWORD PTR $T223967[ebp], eax
	mov	ecx, DWORD PTR $T223967[ebp]
	mov	edx, DWORD PTR [ecx+44]
	push	edx
	call	?teamType@CvPreGame@@YA?AW4TeamTypes@@W4PlayerTypes@@@Z ; CvPreGame::teamType
	add	esp, 4
	mov	DWORD PTR $T223968[ebp], eax
	mov	eax, DWORD PTR _eTeam$221486[ebp]
	imul	eax, 2984				; 00000ba8H
	add	eax, DWORD PTR ?m_aTeams@CvTeam@@1PAV1@A ; CvTeam::m_aTeams
	mov	DWORD PTR $T223972[ebp], eax
	mov	ecx, DWORD PTR $T223968[ebp]
	push	ecx
	mov	ecx, DWORD PTR $T223972[ebp]
	call	?isAtWar@CvTeam@@QBE_NW4TeamTypes@@@Z	; CvTeam::isAtWar
	movzx	edx, al
	test	edx, edx
	je	SHORT $LN5@BuildEnemy

; 295  : 		{
; 296  : 			int iLoop;
; 297  : 			CvUnit* pLoopUnit = NULL;

	mov	DWORD PTR _pLoopUnit$221489[ebp], 0

; 298  : 			for(pLoopUnit = kPlayer.firstUnit(&iLoop); pLoopUnit != NULL; pLoopUnit = kPlayer.nextUnit(&iLoop))

	push	0
	lea	eax, DWORD PTR _iLoop$221488[ebp]
	push	eax
	mov	ecx, DWORD PTR _kPlayer$221485[ebp]
	call	?firstUnit@CvPlayer@@QAEPAVCvUnit@@PAH_N@Z ; CvPlayer::firstUnit
	mov	DWORD PTR _pLoopUnit$221489[ebp], eax
	jmp	SHORT $LN4@BuildEnemy
$LN3@BuildEnemy:
	push	0
	lea	ecx, DWORD PTR _iLoop$221488[ebp]
	push	ecx
	mov	ecx, DWORD PTR _kPlayer$221485[ebp]
	call	?nextUnit@CvPlayer@@QAEPAVCvUnit@@PAH_N@Z ; CvPlayer::nextUnit
	mov	DWORD PTR _pLoopUnit$221489[ebp], eax
$LN4@BuildEnemy:
	cmp	DWORD PTR _pLoopUnit$221489[ebp], 0
	je	SHORT $LN5@BuildEnemy

; 299  : 			{
; 300  : 				// Make sure this unit can attack
; 301  : 				if(pLoopUnit->IsCanAttack())

	mov	ecx, DWORD PTR _pLoopUnit$221489[ebp]
	call	?IsCanAttack@CvUnit@@QBE_NXZ		; CvUnit::IsCanAttack
	movzx	edx, al
	test	edx, edx
	je	SHORT $LN1@BuildEnemy

; 302  : 				{
; 303  : 					m_EnemyUnits.push_back(pLoopUnit);

	lea	eax, DWORD PTR _pLoopUnit$221489[ebp]
	push	eax
	mov	ecx, DWORD PTR _this$[ebp]
	add	ecx, 8488				; 00002128H
	call	?push_back@?$FStaticVector@PAVCvUnit@@$0PK@$00$0BCJ@$0A@@@QAEIABQAVCvUnit@@@Z ; FStaticVector<CvUnit *,250,1,297,0>::push_back
$LN1@BuildEnemy:

; 304  : 				}

	jmp	SHORT $LN3@BuildEnemy
$LN5@BuildEnemy:

; 305  : 			}

	jmp	$LN7@BuildEnemy
$LN9@BuildEnemy:

; 306  : 		}
; 307  : 	}
; 308  : }

	mov	esp, ebp
	pop	ebp
	ret	0
?BuildEnemyUnitList@CvTacticalAnalysisMap@@IAEXXZ ENDP	; CvTacticalAnalysisMap::BuildEnemyUnitList
_TEXT	ENDS
PUBLIC	?plotDirection@@YAPAVCvPlot@@HHW4DirectionTypes@@@Z ; plotDirection
PUBLIC	?plotDistance@@YAHHHHH@Z			; plotDistance
EXTRN	?GetNearbyEnemyDamage@CvImprovementEntry@@QBEHXZ:PROC ; CvImprovementEntry::GetNearbyEnemyDamage
EXTRN	?getImprovementInfo@CvGlobals@@QAEPAVCvImprovementEntry@@W4ImprovementTypes@@@Z:PROC ; CvGlobals::getImprovementInfo
EXTRN	?getImprovementType@CvPlot@@QBE?AW4ImprovementTypes@@XZ:PROC ; CvPlot::getImprovementType
EXTRN	?atWar@@YA_NW4TeamTypes@@0@Z:PROC		; atWar
EXTRN	?TurnsToReachTarget@@YAHV?$FObjectHandle@VCvUnit@@@@PAVCvPlot@@_N22@Z:PROC ; TurnsToReachTarget
EXTRN	?getDestructionNotification@CvUnit@@QAEAAU?$DestructionNotification@V?$FObjectHandle@VCvUnit@@@@@@XZ:PROC ; CvUnit::getDestructionNotification
EXTRN	?baseMoves@CvUnit@@QBEHW4DomainTypes@@@Z:PROC	; CvUnit::baseMoves
EXTRN	?getArea@CvUnit@@QBEHXZ:PROC			; CvUnit::getArea
EXTRN	?isVisibleToEnemyTeam@CvPlot@@QBE_NW4TeamTypes@@@Z:PROC ; CvPlot::isVisibleToEnemyTeam
; Function compile flags: /Odtp
;	COMDAT ?MarkCellsNearEnemy@CvTacticalAnalysisMap@@IAEXXZ
_TEXT	SEGMENT
tv290 = -272						; size = 4
tv289 = -268						; size = 4
_this$ = -264						; size = 4
$T224437 = -260						; size = 4
$T224424 = -256						; size = 4
$T224423 = -252						; size = 4
$T224414 = -248						; size = 4
$T224405 = -244						; size = 4
$T224401 = -240						; size = 4
$T224241 = -164						; size = 4
$T224237 = -160						; size = 4
$T224225 = -156						; size = 4
$T224212 = -152						; size = 4
$T224199 = -148						; size = 4
$T224189 = -144						; size = 4
$T224176 = -140						; size = 4
$T224126 = -92						; size = 4
$T224117 = -88						; size = 4
$T224108 = -84						; size = 4
$T224104 = -80						; size = 4
$T224100 = -76						; size = 4
$T224093 = -72						; size = 4
$T224089 = -68						; size = 4
$T224076 = -64						; size = 4
$T224075 = -60						; size = 4
$T224031 = -56						; size = 4
$T224027 = -52						; size = 4
$T224023 = -48						; size = 4
$T224018 = -44						; size = 4
_eImprovement$221530 = -40				; size = 4
_jJ$221523 = -36					; size = 4
_pAdjacentPlot$221522 = -32				; size = 4
_iTurnsToReach$221517 = -28				; size = 4
_pUnit$221512 = -24					; size = 4
_iUnitIndex$221508 = -20				; size = 4
_pPlot$221503 = -16					; size = 4
_bMarkedIt$221502 = -9					; size = 1
_iI$221498 = -8						; size = 4
_iDistance$ = -4					; size = 4
?MarkCellsNearEnemy@CvTacticalAnalysisMap@@IAEXXZ PROC	; CvTacticalAnalysisMap::MarkCellsNearEnemy, COMDAT
; _this$ = ecx

; 312  : {

	push	ebp
	mov	ebp, esp
	sub	esp, 272				; 00000110H
	mov	DWORD PTR _this$[ebp], ecx

; 313  : 	int iDistance;
; 314  : 
; 315  : 	// Look at every cell on the map
; 316  : #ifdef AUI_WARNING_FIXES
; 317  : 	for (uint iI = 0; iI < GC.getMap().numPlots(); iI++)
; 318  : #else
; 319  : 	for(int iI = 0; iI < GC.getMap().numPlots(); iI++)

	mov	DWORD PTR _iI$221498[ebp], 0
	jmp	SHORT $LN23@MarkCellsN
$LN22@MarkCellsN:
	mov	eax, DWORD PTR _iI$221498[ebp]
	add	eax, 1
	mov	DWORD PTR _iI$221498[ebp], eax
$LN23@MarkCellsN:
	mov	ecx, DWORD PTR ?gGlobals@@3VCvGlobals@@A+52
	mov	DWORD PTR $T224023[ebp], ecx
	mov	edx, DWORD PTR $T224023[ebp]
	mov	eax, DWORD PTR [edx+4028]
	mov	DWORD PTR $T224027[ebp], eax
	mov	ecx, DWORD PTR _iI$221498[ebp]
	cmp	ecx, DWORD PTR $T224027[ebp]
	jge	$LN24@MarkCellsN

; 320  : #endif
; 321  : 	{
; 322  : 		bool bMarkedIt = false;   // Set true once we've found one that enemy can move past (worst case)

	mov	BYTE PTR _bMarkedIt$221502[ebp], 0

; 323  : 
; 324  : 		CvPlot* pPlot = GC.getMap().plotByIndexUnchecked(iI);

	mov	edx, DWORD PTR ?gGlobals@@3VCvGlobals@@A+52
	mov	DWORD PTR $T224031[ebp], edx
	mov	eax, DWORD PTR _iI$221498[ebp]
	imul	eax, 484				; 000001e4H
	mov	ecx, DWORD PTR $T224031[ebp]
	add	eax, DWORD PTR [ecx+4068]
	mov	DWORD PTR _pPlot$221503[ebp], eax

; 325  : 		if(m_pPlots[iI].IsRevealed() && !m_pPlots[iI].IsImpassableTerrain() && !m_pPlots[iI].IsImpassableTerritory())

	mov	edx, DWORD PTR _iI$221498[ebp]
	imul	edx, 44					; 0000002cH
	mov	eax, DWORD PTR _this$[ebp]
	mov	ecx, DWORD PTR [eax+12]
	mov	edx, DWORD PTR [ecx+edx]
	and	edx, 1
	neg	edx
	sbb	edx, edx
	neg	edx
	movzx	eax, dl
	test	eax, eax
	je	$LN20@MarkCellsN
	mov	ecx, DWORD PTR _iI$221498[ebp]
	imul	ecx, 44					; 0000002cH
	mov	edx, DWORD PTR _this$[ebp]
	mov	eax, DWORD PTR [edx+12]
	mov	ecx, DWORD PTR [eax+ecx]
	and	ecx, 4
	neg	ecx
	sbb	ecx, ecx
	neg	ecx
	movzx	edx, cl
	test	edx, edx
	jne	$LN20@MarkCellsN
	mov	eax, DWORD PTR _iI$221498[ebp]
	imul	eax, 44					; 0000002cH
	mov	ecx, DWORD PTR _this$[ebp]
	mov	edx, DWORD PTR [ecx+12]
	mov	eax, DWORD PTR [edx+eax]
	and	eax, 8
	neg	eax
	sbb	eax, eax
	neg	eax
	movzx	ecx, al
	test	ecx, ecx
	jne	$LN20@MarkCellsN

; 326  : 		{
; 327  : 			// Friendly cities always safe
; 328  : 			if(!m_pPlots[iI].IsFriendlyCity())

	mov	edx, DWORD PTR _iI$221498[ebp]
	imul	edx, 44					; 0000002cH
	mov	eax, DWORD PTR _this$[ebp]
	mov	ecx, DWORD PTR [eax+12]
	mov	edx, DWORD PTR [ecx+edx]
	and	edx, 256				; 00000100H
	neg	edx
	sbb	edx, edx
	neg	edx
	movzx	eax, dl
	test	eax, eax
	jne	$LN20@MarkCellsN

; 329  : 			{
; 330  : 				if(!pPlot->isVisibleToEnemyTeam(m_pPlayer->getTeam()))

	mov	ecx, DWORD PTR _this$[ebp]
	mov	edx, DWORD PTR [ecx+20]
	mov	DWORD PTR $T224075[ebp], edx
	mov	eax, DWORD PTR $T224075[ebp]
	mov	ecx, DWORD PTR [eax+44]
	push	ecx
	call	?teamType@CvPreGame@@YA?AW4TeamTypes@@W4PlayerTypes@@@Z ; CvPreGame::teamType
	add	esp, 4
	mov	DWORD PTR $T224076[ebp], eax
	mov	edx, DWORD PTR $T224076[ebp]
	push	edx
	mov	ecx, DWORD PTR _pPlot$221503[ebp]
	call	?isVisibleToEnemyTeam@CvPlot@@QBE_NW4TeamTypes@@@Z ; CvPlot::isVisibleToEnemyTeam
	movzx	eax, al
	test	eax, eax
	jne	SHORT $LN18@MarkCellsN

; 331  : 				{
; 332  : 					m_pPlots[iI].SetNotVisibleToEnemy(true);

	mov	ecx, DWORD PTR _iI$221498[ebp]
	imul	ecx, 44					; 0000002cH
	mov	edx, DWORD PTR _this$[ebp]
	add	ecx, DWORD PTR [edx+12]
	mov	DWORD PTR $T224089[ebp], ecx
	mov	eax, 1
	test	eax, eax
	je	SHORT $LN58@MarkCellsN
	mov	ecx, DWORD PTR $T224089[ebp]
	mov	edx, DWORD PTR [ecx]
	or	edx, 16					; 00000010H
	mov	eax, DWORD PTR $T224089[ebp]
	mov	DWORD PTR [eax], edx
	jmp	SHORT $LN55@MarkCellsN
$LN58@MarkCellsN:
	mov	ecx, 16					; 00000010H
	not	ecx
	mov	edx, DWORD PTR $T224089[ebp]
	and	ecx, DWORD PTR [edx]
	mov	eax, DWORD PTR $T224089[ebp]
	mov	DWORD PTR [eax], ecx
$LN55@MarkCellsN:

; 333  : 				}
; 334  : 				else

	jmp	$LN20@MarkCellsN
$LN18@MarkCellsN:

; 335  : 				{
; 336  : 					for(unsigned int iUnitIndex = 0;  iUnitIndex < m_EnemyUnits.size() && !bMarkedIt; iUnitIndex++)

	mov	DWORD PTR _iUnitIndex$221508[ebp], 0
	jmp	SHORT $LN16@MarkCellsN
$LN15@MarkCellsN:
	mov	ecx, DWORD PTR _iUnitIndex$221508[ebp]
	add	ecx, 1
	mov	DWORD PTR _iUnitIndex$221508[ebp], ecx
$LN16@MarkCellsN:
	mov	edx, DWORD PTR _this$[ebp]
	mov	eax, DWORD PTR [edx+8492]
	mov	DWORD PTR $T224093[ebp], eax
	mov	ecx, DWORD PTR _iUnitIndex$221508[ebp]
	cmp	ecx, DWORD PTR $T224093[ebp]
	jae	$LN132@MarkCellsN
	movzx	edx, BYTE PTR _bMarkedIt$221502[ebp]
	test	edx, edx
	jne	$LN132@MarkCellsN

; 337  : 					{
; 338  : 						CvUnit* pUnit = m_EnemyUnits[iUnitIndex];

	mov	eax, DWORD PTR _this$[ebp]
	mov	ecx, DWORD PTR [eax+8488]
	mov	edx, DWORD PTR _iUnitIndex$221508[ebp]
	mov	eax, DWORD PTR [ecx+edx*4]
	mov	DWORD PTR _pUnit$221512[ebp], eax

; 339  : 						if(pUnit->getArea() == pPlot->getArea())

	mov	ecx, DWORD PTR _pPlot$221503[ebp]
	mov	edx, DWORD PTR [ecx+356]
	mov	DWORD PTR $T224100[ebp], edx
	mov	ecx, DWORD PTR _pUnit$221512[ebp]
	call	?getArea@CvUnit@@QBEHXZ			; CvUnit::getArea
	cmp	eax, DWORD PTR $T224100[ebp]
	jne	$LN13@MarkCellsN

; 340  : 						{
; 341  : 							// Distance check before hitting pathfinder
; 342  : 							iDistance = plotDistance(pUnit->getX(), pUnit->getY(), pPlot->getX(), pPlot->getY());

	mov	eax, DWORD PTR _pPlot$221503[ebp]
	movsx	ecx, WORD PTR [eax+2]
	mov	DWORD PTR $T224104[ebp], ecx
	mov	edx, DWORD PTR _pPlot$221503[ebp]
	movsx	eax, WORD PTR [edx]
	mov	DWORD PTR $T224108[ebp], eax
	mov	ecx, DWORD PTR _pUnit$221512[ebp]
	mov	edx, DWORD PTR [ecx+88]
	mov	DWORD PTR $T224117[ebp], edx
	mov	eax, DWORD PTR _pUnit$221512[ebp]
	mov	ecx, DWORD PTR [eax+76]
	mov	DWORD PTR $T224126[ebp], ecx
	mov	edx, DWORD PTR $T224104[ebp]
	push	edx
	mov	eax, DWORD PTR $T224108[ebp]
	push	eax
	mov	ecx, DWORD PTR $T224117[ebp]
	push	ecx
	mov	edx, DWORD PTR $T224126[ebp]
	push	edx
	call	?plotDistance@@YAHHHHH@Z		; plotDistance
	add	esp, 16					; 00000010H
	mov	DWORD PTR _iDistance$[ebp], eax

; 343  : 							if(iDistance == 0)

	cmp	DWORD PTR _iDistance$[ebp], 0
	jne	$LN12@MarkCellsN

; 344  : 							{
; 345  : 								m_pPlots[iI].SetSubjectToAttack(true);

	mov	eax, DWORD PTR _iI$221498[ebp]
	imul	eax, 44					; 0000002cH
	mov	ecx, DWORD PTR _this$[ebp]
	add	eax, DWORD PTR [ecx+12]
	mov	DWORD PTR $T224176[ebp], eax
	mov	edx, 1
	test	edx, edx
	je	SHORT $LN106@MarkCellsN
	mov	eax, DWORD PTR $T224176[ebp]
	mov	ecx, DWORD PTR [eax]
	or	ecx, 32					; 00000020H
	mov	edx, DWORD PTR $T224176[ebp]
	mov	DWORD PTR [edx], ecx
	jmp	SHORT $LN103@MarkCellsN
$LN106@MarkCellsN:
	mov	eax, 32					; 00000020H
	not	eax
	mov	ecx, DWORD PTR $T224176[ebp]
	and	eax, DWORD PTR [ecx]
	mov	edx, DWORD PTR $T224176[ebp]
	mov	DWORD PTR [edx], eax
$LN103@MarkCellsN:

; 346  : 								m_pPlots[iI].SetEnemyCanMovePast(true);

	mov	eax, DWORD PTR _iI$221498[ebp]
	imul	eax, 44					; 0000002cH
	mov	ecx, DWORD PTR _this$[ebp]
	add	eax, DWORD PTR [ecx+12]
	mov	DWORD PTR $T224189[ebp], eax
	mov	edx, 1
	test	edx, edx
	je	SHORT $LN112@MarkCellsN
	mov	eax, DWORD PTR $T224189[ebp]
	mov	ecx, DWORD PTR [eax]
	or	ecx, 64					; 00000040H
	mov	edx, DWORD PTR $T224189[ebp]
	mov	DWORD PTR [edx], ecx
	jmp	SHORT $LN109@MarkCellsN
$LN112@MarkCellsN:
	mov	eax, 64					; 00000040H
	not	eax
	mov	ecx, DWORD PTR $T224189[ebp]
	and	eax, DWORD PTR [ecx]
	mov	edx, DWORD PTR $T224189[ebp]
	mov	DWORD PTR [edx], eax
$LN109@MarkCellsN:

; 347  : 								bMarkedIt = true;

	mov	BYTE PTR _bMarkedIt$221502[ebp], 1
	jmp	$LN13@MarkCellsN
$LN12@MarkCellsN:

; 348  : 							}
; 349  : 
; 350  : 							// TEMPORARY OPTIMIZATION: Assumes can't use roads or RR
; 351  : 							else if(iDistance <= pUnit->baseMoves())

	push	-1
	mov	ecx, DWORD PTR _pUnit$221512[ebp]
	call	?baseMoves@CvUnit@@QBEHW4DomainTypes@@@Z ; CvUnit::baseMoves
	cmp	DWORD PTR _iDistance$[ebp], eax
	jg	$LN13@MarkCellsN

; 352  : 							{
; 353  : 								int iTurnsToReach;
; 354  : 								iTurnsToReach = TurnsToReachTarget(pUnit, pPlot, true /*bReusePaths*/, true /*bIgnoreUnits*/);	// Its ok to reuse paths because when ignoring units, we don't use the tactical analysis map (which we are building)

	push	0
	push	1
	push	1
	mov	eax, DWORD PTR _pPlot$221503[ebp]
	push	eax
	sub	esp, 8
	mov	ecx, esp
	mov	DWORD PTR $T224018[ebp], esp
	mov	DWORD PTR $T224199[ebp], ecx
	mov	edx, DWORD PTR $T224199[ebp]
	mov	eax, DWORD PTR _pUnit$221512[ebp]
	mov	DWORD PTR [edx], eax
	mov	ecx, DWORD PTR $T224199[ebp]
	mov	BYTE PTR [ecx+4], 0
	mov	edx, DWORD PTR $T224199[ebp]
	cmp	DWORD PTR [edx], 0
	je	SHORT $LN116@MarkCellsN
	mov	eax, DWORD PTR $T224199[ebp]
	mov	ecx, DWORD PTR [eax]
	call	?getDestructionNotification@CvUnit@@QAEAAU?$DestructionNotification@V?$FObjectHandle@VCvUnit@@@@@@XZ ; CvUnit::getDestructionNotification
$LN116@MarkCellsN:
	mov	ecx, DWORD PTR $T224199[ebp]
	mov	DWORD PTR tv289[ebp], ecx
	call	?TurnsToReachTarget@@YAHV?$FObjectHandle@VCvUnit@@@@PAVCvPlot@@_N22@Z ; TurnsToReachTarget
	add	esp, 24					; 00000018H
	mov	DWORD PTR tv290[ebp], eax
	mov	edx, DWORD PTR tv290[ebp]
	mov	DWORD PTR _iTurnsToReach$221517[ebp], edx

; 355  : 								if(iTurnsToReach <= 1)

	cmp	DWORD PTR _iTurnsToReach$221517[ebp], 1
	jg	SHORT $LN9@MarkCellsN

; 356  : 								{
; 357  : 									m_pPlots[iI].SetSubjectToAttack(true);

	mov	eax, DWORD PTR _iI$221498[ebp]
	imul	eax, 44					; 0000002cH
	mov	ecx, DWORD PTR _this$[ebp]
	add	eax, DWORD PTR [ecx+12]
	mov	DWORD PTR $T224212[ebp], eax
	mov	edx, 1
	test	edx, edx
	je	SHORT $LN123@MarkCellsN
	mov	eax, DWORD PTR $T224212[ebp]
	mov	ecx, DWORD PTR [eax]
	or	ecx, 32					; 00000020H
	mov	edx, DWORD PTR $T224212[ebp]
	mov	DWORD PTR [edx], ecx
	jmp	SHORT $LN9@MarkCellsN
$LN123@MarkCellsN:
	mov	eax, 32					; 00000020H
	not	eax
	mov	ecx, DWORD PTR $T224212[ebp]
	and	eax, DWORD PTR [ecx]
	mov	edx, DWORD PTR $T224212[ebp]
	mov	DWORD PTR [edx], eax
$LN9@MarkCellsN:

; 358  : 								}
; 359  : 								if(iTurnsToReach == 0)

	cmp	DWORD PTR _iTurnsToReach$221517[ebp], 0
	jne	SHORT $LN13@MarkCellsN

; 360  : 								{
; 361  : 									m_pPlots[iI].SetEnemyCanMovePast(true);

	mov	eax, DWORD PTR _iI$221498[ebp]
	imul	eax, 44					; 0000002cH
	mov	ecx, DWORD PTR _this$[ebp]
	add	eax, DWORD PTR [ecx+12]
	mov	DWORD PTR $T224225[ebp], eax
	mov	edx, 1
	test	edx, edx
	je	SHORT $LN129@MarkCellsN
	mov	eax, DWORD PTR $T224225[ebp]
	mov	ecx, DWORD PTR [eax]
	or	ecx, 64					; 00000040H
	mov	edx, DWORD PTR $T224225[ebp]
	mov	DWORD PTR [edx], ecx
	jmp	SHORT $LN126@MarkCellsN
$LN129@MarkCellsN:
	mov	eax, 64					; 00000040H
	not	eax
	mov	ecx, DWORD PTR $T224225[ebp]
	and	eax, DWORD PTR [ecx]
	mov	edx, DWORD PTR $T224225[ebp]
	mov	DWORD PTR [edx], eax
$LN126@MarkCellsN:

; 362  : 									bMarkedIt = true;

	mov	BYTE PTR _bMarkedIt$221502[ebp], 1
$LN13@MarkCellsN:

; 363  : 								}
; 364  : 							}
; 365  : 						}
; 366  : 					}

	jmp	$LN15@MarkCellsN

; 367  : 
; 368  : 					// Check adjacent plots for enemy citadels
; 369  : 					if(!m_pPlots[iI].IsSubjectToAttack())

$LN132@MarkCellsN:
	mov	eax, DWORD PTR _iI$221498[ebp]
	imul	eax, 44					; 0000002cH
	mov	ecx, DWORD PTR _this$[ebp]
	mov	edx, DWORD PTR [ecx+12]
	mov	eax, DWORD PTR [edx+eax]
	and	eax, 32					; 00000020H
	neg	eax
	sbb	eax, eax
	neg	eax
	movzx	ecx, al
	test	ecx, ecx
	jne	$LN20@MarkCellsN

; 370  : 					{
; 371  : 						CvPlot* pAdjacentPlot;
; 372  : 						for(int jJ = 0; jJ < NUM_DIRECTION_TYPES; jJ++)

	mov	DWORD PTR _jJ$221523[ebp], 0
	jmp	SHORT $LN6@MarkCellsN
$LN5@MarkCellsN:
	mov	edx, DWORD PTR _jJ$221523[ebp]
	add	edx, 1
	mov	DWORD PTR _jJ$221523[ebp], edx
$LN6@MarkCellsN:
	cmp	DWORD PTR _jJ$221523[ebp], 6
	jge	$LN20@MarkCellsN

; 373  : 						{
; 374  : 							pAdjacentPlot = plotDirection(pPlot->getX(), pPlot->getY(), ((DirectionTypes)jJ));

	mov	eax, DWORD PTR _pPlot$221503[ebp]
	movsx	ecx, WORD PTR [eax+2]
	mov	DWORD PTR $T224237[ebp], ecx
	mov	edx, DWORD PTR _pPlot$221503[ebp]
	movsx	eax, WORD PTR [edx]
	mov	DWORD PTR $T224241[ebp], eax
	mov	ecx, DWORD PTR _jJ$221523[ebp]
	push	ecx
	mov	edx, DWORD PTR $T224237[ebp]
	push	edx
	mov	eax, DWORD PTR $T224241[ebp]
	push	eax
	call	?plotDirection@@YAPAVCvPlot@@HHW4DirectionTypes@@@Z ; plotDirection
	add	esp, 12					; 0000000cH
	mov	DWORD PTR _pAdjacentPlot$221522[ebp], eax

; 375  : 							if(pAdjacentPlot != NULL && pAdjacentPlot->getOwner() != NO_PLAYER)

	cmp	DWORD PTR _pAdjacentPlot$221522[ebp], 0
	je	$LN3@MarkCellsN
	mov	ecx, DWORD PTR _pAdjacentPlot$221522[ebp]
	movsx	edx, BYTE PTR [ecx+4]
	cmp	edx, -1
	je	$LN3@MarkCellsN

; 376  : 							{
; 377  : 								if(atWar(m_pPlayer->getTeam(), GET_PLAYER(pAdjacentPlot->getOwner()).getTeam()))

	mov	eax, DWORD PTR _pAdjacentPlot$221522[ebp]
	movsx	ecx, BYTE PTR [eax+4]
	mov	DWORD PTR $T224401[ebp], ecx
	mov	edx, DWORD PTR $T224401[ebp]
	imul	edx, 63236				; 0000f704H
	add	edx, DWORD PTR ?m_aPlayers@CvPlayerAI@@1PAV1@A ; CvPlayerAI::m_aPlayers
	mov	DWORD PTR $T224405[ebp], edx
	mov	eax, DWORD PTR $T224405[ebp]
	mov	ecx, DWORD PTR [eax+44]
	push	ecx
	call	?teamType@CvPreGame@@YA?AW4TeamTypes@@W4PlayerTypes@@@Z ; CvPreGame::teamType
	add	esp, 4
	mov	DWORD PTR $T224414[ebp], eax
	mov	edx, DWORD PTR _this$[ebp]
	mov	eax, DWORD PTR [edx+20]
	mov	DWORD PTR $T224423[ebp], eax
	mov	ecx, DWORD PTR $T224423[ebp]
	mov	edx, DWORD PTR [ecx+44]
	push	edx
	call	?teamType@CvPreGame@@YA?AW4TeamTypes@@W4PlayerTypes@@@Z ; CvPreGame::teamType
	add	esp, 4
	mov	DWORD PTR $T224424[ebp], eax
	mov	eax, DWORD PTR $T224414[ebp]
	push	eax
	mov	ecx, DWORD PTR $T224424[ebp]
	push	ecx
	call	?atWar@@YA_NW4TeamTypes@@0@Z		; atWar
	add	esp, 8
	movzx	edx, al
	test	edx, edx
	je	SHORT $LN3@MarkCellsN

; 378  : 								{
; 379  : 									ImprovementTypes eImprovement = pAdjacentPlot->getImprovementType();

	mov	ecx, DWORD PTR _pAdjacentPlot$221522[ebp]
	call	?getImprovementType@CvPlot@@QBE?AW4ImprovementTypes@@XZ ; CvPlot::getImprovementType
	mov	DWORD PTR _eImprovement$221530[ebp], eax

; 380  : 									if(eImprovement != NO_IMPROVEMENT && GC.getImprovementInfo(eImprovement)->GetNearbyEnemyDamage() > 0)

	cmp	DWORD PTR _eImprovement$221530[ebp], -1
	je	SHORT $LN3@MarkCellsN
	mov	eax, DWORD PTR _eImprovement$221530[ebp]
	push	eax
	mov	ecx, OFFSET ?gGlobals@@3VCvGlobals@@A	; gGlobals
	call	?getImprovementInfo@CvGlobals@@QAEPAVCvImprovementEntry@@W4ImprovementTypes@@@Z ; CvGlobals::getImprovementInfo
	mov	ecx, eax
	call	?GetNearbyEnemyDamage@CvImprovementEntry@@QBEHXZ ; CvImprovementEntry::GetNearbyEnemyDamage
	test	eax, eax
	jle	SHORT $LN3@MarkCellsN

; 381  : 									{
; 382  : 										m_pPlots[iI].SetSubjectToAttack(true);

	mov	ecx, DWORD PTR _iI$221498[ebp]
	imul	ecx, 44					; 0000002cH
	mov	edx, DWORD PTR _this$[ebp]
	add	ecx, DWORD PTR [edx+12]
	mov	DWORD PTR $T224437[ebp], ecx
	mov	eax, 1
	test	eax, eax
	je	SHORT $LN225@MarkCellsN
	mov	ecx, DWORD PTR $T224437[ebp]
	mov	edx, DWORD PTR [ecx]
	or	edx, 32					; 00000020H
	mov	eax, DWORD PTR $T224437[ebp]
	mov	DWORD PTR [eax], edx
	jmp	SHORT $LN222@MarkCellsN
$LN225@MarkCellsN:
	mov	ecx, 32					; 00000020H
	not	ecx
	mov	edx, DWORD PTR $T224437[ebp]
	and	ecx, DWORD PTR [edx]
	mov	eax, DWORD PTR $T224437[ebp]
	mov	DWORD PTR [eax], ecx
$LN222@MarkCellsN:

; 383  : 										break;

	jmp	SHORT $LN20@MarkCellsN
$LN3@MarkCellsN:

; 384  : 									}
; 385  : 								}
; 386  : 							}
; 387  : 						}

	jmp	$LN5@MarkCellsN
$LN20@MarkCellsN:

; 388  : 					}
; 389  : 				}
; 390  : 			}
; 391  : 		}

	jmp	$LN22@MarkCellsN
$LN24@MarkCellsN:

; 392  : 	}
; 393  : }

	mov	esp, ebp
	pop	ebp
	ret	0
?MarkCellsNearEnemy@CvTacticalAnalysisMap@@IAEXXZ ENDP	; CvTacticalAnalysisMap::MarkCellsNearEnemy
_TEXT	ENDS
PUBLIC	?dyWrap@@YAHH@Z					; dyWrap
PUBLIC	?dxWrap@@YAHH@Z					; dxWrap
; Function compile flags: /Odtp
; File d:\sources\lekmod_git\checkout\lekmod_dll\cvgamecoredll_expansion2\cvgamecoreutils.h
;	COMDAT ?plotDistance@@YAHHHHH@Z
_TEXT	SEGMENT
tv157 = -92						; size = 4
tv138 = -88						; size = 4
tv135 = -84						; size = 4
$T224520 = -80						; size = 4
$T224494 = -60						; size = 4
_iDY$ = -24						; size = 4
_iDX$ = -20						; size = 4
_iWrappedDX$ = -16					; size = 4
_iHX1$ = -12						; size = 4
_iHX2$ = -8						; size = 4
_iWrappedDY$ = -4					; size = 4
_iX1$ = 8						; size = 4
_iY1$ = 12						; size = 4
_iX2$ = 16						; size = 4
_iY2$ = 20						; size = 4
?plotDistance@@YAHHHHH@Z PROC				; plotDistance, COMDAT

; 144  : {

	push	ebp
	mov	ebp, esp
	sub	esp, 92					; 0000005cH

; 145  : 	int iDX;
; 146  : 	int iWrappedDX = dxWrap(iX2 - iX1);

	mov	eax, DWORD PTR _iX2$[ebp]
	sub	eax, DWORD PTR _iX1$[ebp]
	push	eax
	call	?dxWrap@@YAHH@Z				; dxWrap
	add	esp, 4
	mov	DWORD PTR _iWrappedDX$[ebp], eax

; 147  : 	int iWrappedDY = dyWrap(iY2 - iY1);

	mov	ecx, DWORD PTR _iY2$[ebp]
	sub	ecx, DWORD PTR _iY1$[ebp]
	push	ecx
	call	?dyWrap@@YAHH@Z				; dyWrap
	add	esp, 4
	mov	DWORD PTR _iWrappedDY$[ebp], eax

; 148  : 	int iDY = abs(iWrappedDY);

	mov	eax, DWORD PTR _iWrappedDY$[ebp]
	cdq
	xor	eax, edx
	sub	eax, edx
	mov	DWORD PTR _iDY$[ebp], eax

; 149  : 
; 150  : 	// convert to hex-space coordinates - the coordinate system axes are E and NE (not orthogonal)
; 151  : 	int iHX1 = xToHexspaceX(iX1, iY1);

	cmp	DWORD PTR _iY1$[ebp], 0
	jl	SHORT $LN35@plotDistan
	mov	edx, DWORD PTR _iY1$[ebp]
	sar	edx, 1
	mov	DWORD PTR tv135[ebp], edx
	jmp	SHORT $LN33@plotDistan
$LN35@plotDistan:
	mov	eax, DWORD PTR _iY1$[ebp]
	sub	eax, 1
	cdq
	sub	eax, edx
	sar	eax, 1
	mov	DWORD PTR tv135[ebp], eax
$LN33@plotDistan:
	mov	eax, DWORD PTR _iX1$[ebp]
	sub	eax, DWORD PTR tv135[ebp]
	mov	DWORD PTR _iHX1$[ebp], eax

; 152  : 	int iHX2 = xToHexspaceX(iX1 + iWrappedDX, iY1 + iWrappedDY);

	mov	ecx, DWORD PTR _iY1$[ebp]
	add	ecx, DWORD PTR _iWrappedDY$[ebp]
	mov	DWORD PTR $T224494[ebp], ecx
	js	SHORT $LN39@plotDistan
	mov	edx, DWORD PTR $T224494[ebp]
	sar	edx, 1
	mov	DWORD PTR tv138[ebp], edx
	jmp	SHORT $LN37@plotDistan
$LN39@plotDistan:
	mov	eax, DWORD PTR $T224494[ebp]
	sub	eax, 1
	cdq
	sub	eax, edx
	sar	eax, 1
	mov	DWORD PTR tv138[ebp], eax
$LN37@plotDistan:
	mov	eax, DWORD PTR _iX1$[ebp]
	add	eax, DWORD PTR _iWrappedDX$[ebp]
	sub	eax, DWORD PTR tv138[ebp]
	mov	DWORD PTR _iHX2$[ebp], eax

; 153  : 
; 154  : 	iDX = abs(dxWrap(iHX2 - iHX1));

	mov	ecx, DWORD PTR _iHX2$[ebp]
	sub	ecx, DWORD PTR _iHX1$[ebp]
	push	ecx
	call	?dxWrap@@YAHH@Z				; dxWrap
	add	esp, 4
	cdq
	xor	eax, edx
	sub	eax, edx
	mov	DWORD PTR _iDX$[ebp], eax

; 155  : 
; 156  : #ifdef NQM_GAME_CORE_UTILS_OPTIMIZATIONS
; 157  : 	if (((iHX2 - iHX1) ^ (iWrappedDY)) >= 0)  // the signs match
; 158  : #else
; 159  : 	if((iHX2 - iHX1 >= 0) == (iWrappedDY >= 0))  // the signs match

	mov	edx, DWORD PTR _iHX2$[ebp]
	sub	edx, DWORD PTR _iHX1$[ebp]
	xor	eax, eax
	test	edx, edx
	setge	al
	xor	ecx, ecx
	cmp	DWORD PTR _iWrappedDY$[ebp], 0
	setge	cl
	cmp	eax, ecx
	jne	SHORT $LN2@plotDistan

; 160  : #endif
; 161  : 	{
; 162  : 		return iDX + iDY;

	mov	eax, DWORD PTR _iDX$[ebp]
	add	eax, DWORD PTR _iDY$[ebp]
	jmp	SHORT $LN3@plotDistan

; 163  : 	}
; 164  : 	else

	jmp	SHORT $LN3@plotDistan
$LN2@plotDistan:

; 165  : 	{
; 166  : #ifdef NQM_FAST_COMP
; 167  : 		return (MAX(iDX, iDY));
; 168  : #else
; 169  : 		return (std::max(iDX, iDY));

	mov	edx, DWORD PTR _iDX$[ebp]
	cmp	edx, DWORD PTR _iDY$[ebp]
	jge	SHORT $LN57@plotDistan
	lea	eax, DWORD PTR _iDY$[ebp]
	mov	DWORD PTR tv157[ebp], eax
	jmp	SHORT $LN58@plotDistan
$LN57@plotDistan:
	lea	ecx, DWORD PTR _iDX$[ebp]
	mov	DWORD PTR tv157[ebp], ecx
$LN58@plotDistan:
	mov	edx, DWORD PTR tv157[ebp]
	mov	DWORD PTR $T224520[ebp], edx
	mov	eax, DWORD PTR $T224520[ebp]
	mov	eax, DWORD PTR [eax]
$LN3@plotDistan:

; 170  : #endif
; 171  : 	}
; 172  : }

	mov	esp, ebp
	pop	ebp
	ret	0
?plotDistance@@YAHHHHH@Z ENDP				; plotDistance
; Function compile flags: /Odtp
_TEXT	ENDS
;	COMDAT ?dxWrap@@YAHH@Z
_TEXT	SEGMENT
$T224544 = -16						; size = 4
$T224536 = -12						; size = 4
$T224532 = -5						; size = 1
_kMap$ = -4						; size = 4
_iDX$ = 8						; size = 4
?dxWrap@@YAHH@Z PROC					; dxWrap, COMDAT

; 73   : {

	push	ebp
	mov	ebp, esp
	sub	esp, 16					; 00000010H

; 74   : 	const CvMap& kMap = GC.getMap();

	mov	eax, DWORD PTR ?gGlobals@@3VCvGlobals@@A+52
	mov	DWORD PTR _kMap$[ebp], eax

; 75   : 	return wrapCoordDifference(iDX, kMap.getGridWidth(), kMap.isWrapX());

	mov	ecx, DWORD PTR _kMap$[ebp]
	mov	dl, BYTE PTR [ecx+4056]
	mov	BYTE PTR $T224532[ebp], dl
	mov	eax, DWORD PTR _kMap$[ebp]
	mov	ecx, DWORD PTR [eax+4020]
	mov	DWORD PTR $T224536[ebp], ecx
	movzx	edx, BYTE PTR $T224532[ebp]
	test	edx, edx
	je	SHORT $LN12@dxWrap
	mov	eax, DWORD PTR $T224536[ebp]
	shr	eax, 1
	cmp	DWORD PTR _iDX$[ebp], eax
	jle	SHORT $LN11@dxWrap
	mov	ecx, DWORD PTR _iDX$[ebp]
	sub	ecx, DWORD PTR $T224536[ebp]
	mov	DWORD PTR $T224544[ebp], ecx
	jmp	SHORT $LN13@dxWrap
	jmp	SHORT $LN12@dxWrap
$LN11@dxWrap:
	mov	edx, DWORD PTR $T224536[ebp]
	shr	edx, 1
	neg	edx
	cmp	DWORD PTR _iDX$[ebp], edx
	jge	SHORT $LN12@dxWrap
	mov	eax, DWORD PTR _iDX$[ebp]
	add	eax, DWORD PTR $T224536[ebp]
	mov	DWORD PTR $T224544[ebp], eax
	jmp	SHORT $LN13@dxWrap
$LN12@dxWrap:
	mov	ecx, DWORD PTR _iDX$[ebp]
	mov	DWORD PTR $T224544[ebp], ecx
$LN13@dxWrap:
	mov	eax, DWORD PTR $T224544[ebp]

; 76   : }

	mov	esp, ebp
	pop	ebp
	ret	0
?dxWrap@@YAHH@Z ENDP					; dxWrap
; Function compile flags: /Odtp
_TEXT	ENDS
;	COMDAT ?dyWrap@@YAHH@Z
_TEXT	SEGMENT
$T224565 = -16						; size = 4
$T224557 = -12						; size = 4
$T224553 = -5						; size = 1
_kMap$ = -4						; size = 4
_iDY$ = 8						; size = 4
?dyWrap@@YAHH@Z PROC					; dyWrap, COMDAT

; 79   : {

	push	ebp
	mov	ebp, esp
	sub	esp, 16					; 00000010H

; 80   : 	const CvMap& kMap = GC.getMap();

	mov	eax, DWORD PTR ?gGlobals@@3VCvGlobals@@A+52
	mov	DWORD PTR _kMap$[ebp], eax

; 81   : 	return wrapCoordDifference(iDY, kMap.getGridHeight(), kMap.isWrapY());

	mov	ecx, DWORD PTR _kMap$[ebp]
	mov	dl, BYTE PTR [ecx+4057]
	mov	BYTE PTR $T224553[ebp], dl
	mov	eax, DWORD PTR _kMap$[ebp]
	mov	ecx, DWORD PTR [eax+4024]
	mov	DWORD PTR $T224557[ebp], ecx
	movzx	edx, BYTE PTR $T224553[ebp]
	test	edx, edx
	je	SHORT $LN12@dyWrap
	mov	eax, DWORD PTR $T224557[ebp]
	shr	eax, 1
	cmp	DWORD PTR _iDY$[ebp], eax
	jle	SHORT $LN11@dyWrap
	mov	ecx, DWORD PTR _iDY$[ebp]
	sub	ecx, DWORD PTR $T224557[ebp]
	mov	DWORD PTR $T224565[ebp], ecx
	jmp	SHORT $LN13@dyWrap
	jmp	SHORT $LN12@dyWrap
$LN11@dyWrap:
	mov	edx, DWORD PTR $T224557[ebp]
	shr	edx, 1
	neg	edx
	cmp	DWORD PTR _iDY$[ebp], edx
	jge	SHORT $LN12@dyWrap
	mov	eax, DWORD PTR _iDY$[ebp]
	add	eax, DWORD PTR $T224557[ebp]
	mov	DWORD PTR $T224565[ebp], eax
	jmp	SHORT $LN13@dyWrap
$LN12@dyWrap:
	mov	ecx, DWORD PTR _iDY$[ebp]
	mov	DWORD PTR $T224565[ebp], ecx
$LN13@dyWrap:
	mov	eax, DWORD PTR $T224565[ebp]

; 82   : }

	mov	esp, ebp
	pop	ebp
	ret	0
?dyWrap@@YAHH@Z ENDP					; dyWrap
_TEXT	ENDS
PUBLIC	?isPlot@CvMap@@QBEHHH@Z				; CvMap::isPlot
; Function compile flags: /Odtp
;	COMDAT ?plotDirection@@YAPAVCvPlot@@HHW4DirectionTypes@@@Z
_TEXT	SEGMENT
tv198 = -100						; size = 4
tv213 = -96						; size = 4
tv168 = -92						; size = 4
tv151 = -88						; size = 4
tv155 = -84						; size = 4
$T224772 = -80						; size = 4
$T224727 = -76						; size = 4
$T224714 = -72						; size = 4
$T224710 = -68						; size = 4
$T224696 = -64						; size = 4
$T224692 = -57						; size = 1
$T224681 = -56						; size = 4
$T224677 = -49						; size = 1
_iMapY$224771 = -48					; size = 4
_iMapX$224770 = -44					; size = 4
$T224670 = -40						; size = 4
$T224646 = -36						; size = 4
$T224609 = -32						; size = 4
$T224597 = -28						; size = 4
$T224593 = -21						; size = 1
$T224582 = -20						; size = 4
$T224578 = -13						; size = 1
_iMapY$224645 = -12					; size = 4
_iMapX$224644 = -8					; size = 4
$T224571 = -4						; size = 4
_iX$ = 8						; size = 4
_iY$ = 12						; size = 4
_eDirection$ = 16					; size = 4
?plotDirection@@YAPAVCvPlot@@HHW4DirectionTypes@@@Z PROC ; plotDirection, COMDAT

; 193  : {

	push	ebp
	mov	ebp, esp
	sub	esp, 100				; 00000064H

; 194  : 	if(eDirection == NO_DIRECTION)

	cmp	DWORD PTR _eDirection$[ebp], -1
	jne	$LN2@plotDirect

; 195  : 	{
; 196  : 		return GC.getMap().plot(iX, iY);

	mov	eax, DWORD PTR ?gGlobals@@3VCvGlobals@@A+52
	mov	DWORD PTR $T224571[ebp], eax
	cmp	DWORD PTR _iX$[ebp], -2147483647	; 80000001H
	je	SHORT $LN7@plotDirect
	cmp	DWORD PTR _iY$[ebp], -2147483647	; 80000001H
	jne	SHORT $LN8@plotDirect
$LN7@plotDirect:
	mov	DWORD PTR $T224646[ebp], 0
	jmp	$LN9@plotDirect
$LN8@plotDirect:
	mov	ecx, DWORD PTR $T224571[ebp]
	mov	dl, BYTE PTR [ecx+4056]
	mov	BYTE PTR $T224578[ebp], dl
	mov	eax, DWORD PTR $T224571[ebp]
	mov	ecx, DWORD PTR [eax+4020]
	mov	DWORD PTR $T224582[ebp], ecx
	movzx	edx, BYTE PTR $T224578[ebp]
	test	edx, edx
	je	SHORT $LN20@plotDirect
	cmp	DWORD PTR _iX$[ebp], 0
	jge	SHORT $LN19@plotDirect
	mov	eax, DWORD PTR _iX$[ebp]
	cdq
	idiv	DWORD PTR $T224582[ebp]
	add	edx, DWORD PTR $T224582[ebp]
	mov	DWORD PTR _iMapX$224644[ebp], edx
	jmp	SHORT $LN21@plotDirect
	jmp	SHORT $LN20@plotDirect
$LN19@plotDirect:
	mov	eax, DWORD PTR _iX$[ebp]
	cmp	eax, DWORD PTR $T224582[ebp]
	jl	SHORT $LN20@plotDirect
	mov	eax, DWORD PTR _iX$[ebp]
	cdq
	idiv	DWORD PTR $T224582[ebp]
	mov	DWORD PTR _iMapX$224644[ebp], edx
	jmp	SHORT $LN21@plotDirect
$LN20@plotDirect:
	mov	ecx, DWORD PTR _iX$[ebp]
	mov	DWORD PTR _iMapX$224644[ebp], ecx
$LN21@plotDirect:
	mov	edx, DWORD PTR $T224571[ebp]
	mov	al, BYTE PTR [edx+4057]
	mov	BYTE PTR $T224593[ebp], al
	mov	ecx, DWORD PTR $T224571[ebp]
	mov	edx, DWORD PTR [ecx+4024]
	mov	DWORD PTR $T224597[ebp], edx
	movzx	eax, BYTE PTR $T224593[ebp]
	test	eax, eax
	je	SHORT $LN30@plotDirect
	cmp	DWORD PTR _iY$[ebp], 0
	jge	SHORT $LN29@plotDirect
	mov	eax, DWORD PTR _iY$[ebp]
	cdq
	idiv	DWORD PTR $T224597[ebp]
	add	edx, DWORD PTR $T224597[ebp]
	mov	DWORD PTR _iMapY$224645[ebp], edx
	jmp	SHORT $LN31@plotDirect
	jmp	SHORT $LN30@plotDirect
$LN29@plotDirect:
	mov	ecx, DWORD PTR _iY$[ebp]
	cmp	ecx, DWORD PTR $T224597[ebp]
	jl	SHORT $LN30@plotDirect
	mov	eax, DWORD PTR _iY$[ebp]
	cdq
	idiv	DWORD PTR $T224597[ebp]
	mov	DWORD PTR _iMapY$224645[ebp], edx
	jmp	SHORT $LN31@plotDirect
$LN30@plotDirect:
	mov	edx, DWORD PTR _iY$[ebp]
	mov	DWORD PTR _iMapY$224645[ebp], edx
$LN31@plotDirect:
	mov	eax, DWORD PTR _iMapY$224645[ebp]
	push	eax
	mov	ecx, DWORD PTR _iMapX$224644[ebp]
	push	ecx
	mov	ecx, DWORD PTR $T224571[ebp]
	call	?isPlot@CvMap@@QBEHHH@Z			; CvMap::isPlot
	test	eax, eax
	je	SHORT $LN11@plotDirect
	mov	edx, DWORD PTR $T224571[ebp]
	mov	eax, DWORD PTR [edx+4020]
	mov	DWORD PTR $T224609[ebp], eax
	mov	ecx, DWORD PTR _iMapY$224645[ebp]
	imul	ecx, DWORD PTR $T224609[ebp]
	add	ecx, DWORD PTR _iMapX$224644[ebp]
	imul	ecx, 484				; 000001e4H
	mov	edx, DWORD PTR $T224571[ebp]
	add	ecx, DWORD PTR [edx+4068]
	mov	DWORD PTR tv155[ebp], ecx
	jmp	SHORT $LN12@plotDirect
$LN11@plotDirect:
	mov	DWORD PTR tv155[ebp], 0
$LN12@plotDirect:
	mov	eax, DWORD PTR tv155[ebp]
	mov	DWORD PTR $T224646[ebp], eax
$LN9@plotDirect:
	mov	eax, DWORD PTR $T224646[ebp]
	jmp	$LN3@plotDirect

; 197  : 	}
; 198  : 	else

	jmp	$LN3@plotDirect
$LN2@plotDirect:

; 199  : 	{
; 200  : 		// convert to hex-space coordinates - the coordinate system axes are E and NE (not orthogonal)
; 201  : 		iX = xToHexspaceX(iX , iY);

	cmp	DWORD PTR _iY$[ebp], 0
	jl	SHORT $LN39@plotDirect
	mov	ecx, DWORD PTR _iY$[ebp]
	sar	ecx, 1
	mov	DWORD PTR tv151[ebp], ecx
	jmp	SHORT $LN37@plotDirect
$LN39@plotDirect:
	mov	eax, DWORD PTR _iY$[ebp]
	sub	eax, 1
	cdq
	sub	eax, edx
	sar	eax, 1
	mov	DWORD PTR tv151[ebp], eax
$LN37@plotDirect:
	mov	edx, DWORD PTR _iX$[ebp]
	sub	edx, DWORD PTR tv151[ebp]
	mov	DWORD PTR _iX$[ebp], edx

; 202  : 		iX += GC.getPlotDirectionX()[eDirection];

	mov	eax, DWORD PTR _eDirection$[ebp]
	mov	ecx, DWORD PTR _iX$[ebp]
	add	ecx, DWORD PTR ?gGlobals@@3VCvGlobals@@A[eax*4+112]
	mov	DWORD PTR _iX$[ebp], ecx

; 203  : 		iY += GC.getPlotDirectionY()[eDirection];

	mov	edx, DWORD PTR _eDirection$[ebp]
	mov	eax, DWORD PTR _iY$[ebp]
	add	eax, DWORD PTR ?gGlobals@@3VCvGlobals@@A[edx*4+136]
	mov	DWORD PTR _iY$[ebp], eax

; 204  : 
; 205  : 		// convert from hex-space coordinates to the storage array
; 206  : 		iX = hexspaceXToX(iX, iY);

	js	SHORT $LN47@plotDirect
	mov	ecx, DWORD PTR _iY$[ebp]
	sar	ecx, 1
	mov	DWORD PTR tv168[ebp], ecx
	jmp	SHORT $LN45@plotDirect
$LN47@plotDirect:
	mov	eax, DWORD PTR _iY$[ebp]
	sub	eax, 1
	cdq
	sub	eax, edx
	sar	eax, 1
	mov	DWORD PTR tv168[ebp], eax
$LN45@plotDirect:
	mov	edx, DWORD PTR _iX$[ebp]
	add	edx, DWORD PTR tv168[ebp]
	mov	DWORD PTR _iX$[ebp], edx

; 207  : 
; 208  : 		return GC.getMap().plot(iX, iY);

	mov	eax, DWORD PTR ?gGlobals@@3VCvGlobals@@A+52
	mov	DWORD PTR $T224670[ebp], eax
	cmp	DWORD PTR _iX$[ebp], -2147483647	; 80000001H
	je	SHORT $LN51@plotDirect
	cmp	DWORD PTR _iY$[ebp], -2147483647	; 80000001H
	jne	SHORT $LN52@plotDirect
$LN51@plotDirect:
	mov	DWORD PTR $T224772[ebp], 0
	jmp	$LN53@plotDirect
$LN52@plotDirect:
	mov	ecx, DWORD PTR $T224670[ebp]
	mov	dl, BYTE PTR [ecx+4056]
	mov	BYTE PTR $T224677[ebp], dl
	mov	eax, DWORD PTR $T224670[ebp]
	mov	ecx, DWORD PTR [eax+4020]
	mov	DWORD PTR $T224681[ebp], ecx
	movzx	edx, BYTE PTR $T224677[ebp]
	test	edx, edx
	je	SHORT $LN64@plotDirect
	cmp	DWORD PTR _iX$[ebp], 0
	jge	SHORT $LN63@plotDirect
	mov	eax, DWORD PTR _iX$[ebp]
	cdq
	idiv	DWORD PTR $T224681[ebp]
	add	edx, DWORD PTR $T224681[ebp]
	mov	DWORD PTR _iMapX$224770[ebp], edx
	jmp	SHORT $LN65@plotDirect
	jmp	SHORT $LN64@plotDirect
$LN63@plotDirect:
	mov	eax, DWORD PTR _iX$[ebp]
	cmp	eax, DWORD PTR $T224681[ebp]
	jl	SHORT $LN64@plotDirect
	mov	eax, DWORD PTR _iX$[ebp]
	cdq
	idiv	DWORD PTR $T224681[ebp]
	mov	DWORD PTR _iMapX$224770[ebp], edx
	jmp	SHORT $LN65@plotDirect
$LN64@plotDirect:
	mov	ecx, DWORD PTR _iX$[ebp]
	mov	DWORD PTR _iMapX$224770[ebp], ecx
$LN65@plotDirect:
	mov	edx, DWORD PTR $T224670[ebp]
	mov	al, BYTE PTR [edx+4057]
	mov	BYTE PTR $T224692[ebp], al
	mov	ecx, DWORD PTR $T224670[ebp]
	mov	edx, DWORD PTR [ecx+4024]
	mov	DWORD PTR $T224696[ebp], edx
	movzx	eax, BYTE PTR $T224692[ebp]
	test	eax, eax
	je	SHORT $LN74@plotDirect
	cmp	DWORD PTR _iY$[ebp], 0
	jge	SHORT $LN73@plotDirect
	mov	eax, DWORD PTR _iY$[ebp]
	cdq
	idiv	DWORD PTR $T224696[ebp]
	add	edx, DWORD PTR $T224696[ebp]
	mov	DWORD PTR _iMapY$224771[ebp], edx
	jmp	SHORT $LN75@plotDirect
	jmp	SHORT $LN74@plotDirect
$LN73@plotDirect:
	mov	ecx, DWORD PTR _iY$[ebp]
	cmp	ecx, DWORD PTR $T224696[ebp]
	jl	SHORT $LN74@plotDirect
	mov	eax, DWORD PTR _iY$[ebp]
	cdq
	idiv	DWORD PTR $T224696[ebp]
	mov	DWORD PTR _iMapY$224771[ebp], edx
	jmp	SHORT $LN75@plotDirect
$LN74@plotDirect:
	mov	edx, DWORD PTR _iY$[ebp]
	mov	DWORD PTR _iMapY$224771[ebp], edx
$LN75@plotDirect:
	cmp	DWORD PTR _iMapX$224770[ebp], 0
	jl	SHORT $LN79@plotDirect
	mov	eax, DWORD PTR $T224670[ebp]
	mov	ecx, DWORD PTR [eax+4020]
	mov	DWORD PTR $T224710[ebp], ecx
	mov	edx, DWORD PTR _iMapX$224770[ebp]
	cmp	edx, DWORD PTR $T224710[ebp]
	jge	SHORT $LN79@plotDirect
	cmp	DWORD PTR _iMapY$224771[ebp], 0
	jl	SHORT $LN79@plotDirect
	mov	eax, DWORD PTR $T224670[ebp]
	mov	ecx, DWORD PTR [eax+4024]
	mov	DWORD PTR $T224714[ebp], ecx
	mov	edx, DWORD PTR _iMapY$224771[ebp]
	cmp	edx, DWORD PTR $T224714[ebp]
	jge	SHORT $LN79@plotDirect
	mov	DWORD PTR tv213[ebp], 1
	jmp	SHORT $LN77@plotDirect
$LN79@plotDirect:
	mov	DWORD PTR tv213[ebp], 0
$LN77@plotDirect:
	cmp	DWORD PTR tv213[ebp], 0
	je	SHORT $LN55@plotDirect
	mov	eax, DWORD PTR $T224670[ebp]
	mov	ecx, DWORD PTR [eax+4020]
	mov	DWORD PTR $T224727[ebp], ecx
	mov	edx, DWORD PTR _iMapY$224771[ebp]
	imul	edx, DWORD PTR $T224727[ebp]
	add	edx, DWORD PTR _iMapX$224770[ebp]
	imul	edx, 484				; 000001e4H
	mov	eax, DWORD PTR $T224670[ebp]
	add	edx, DWORD PTR [eax+4068]
	mov	DWORD PTR tv198[ebp], edx
	jmp	SHORT $LN56@plotDirect
$LN55@plotDirect:
	mov	DWORD PTR tv198[ebp], 0
$LN56@plotDirect:
	mov	ecx, DWORD PTR tv198[ebp]
	mov	DWORD PTR $T224772[ebp], ecx
$LN53@plotDirect:
	mov	eax, DWORD PTR $T224772[ebp]
$LN3@plotDirect:

; 209  : 	}
; 210  : }

	mov	esp, ebp
	pop	ebp
	ret	0
?plotDirection@@YAPAVCvPlot@@HHW4DirectionTypes@@@Z ENDP ; plotDirection
_TEXT	ENDS
PUBLIC	?ClearDynamicFlags@CvTacticalAnalysisMap@@QAEXXZ ; CvTacticalAnalysisMap::ClearDynamicFlags
; Function compile flags: /Odtp
; File d:\sources\lekmod_git\checkout\lekmod_dll\cvgamecoredll_expansion2\cvtacticalanalysismap.cpp
;	COMDAT ?ClearDynamicFlags@CvTacticalAnalysisMap@@QAEXXZ
_TEXT	SEGMENT
_this$ = -32						; size = 4
$T224825 = -28						; size = 4
$T224821 = -24						; size = 4
$T224808 = -20						; size = 4
$T224795 = -16						; size = 4
$T224782 = -12						; size = 4
$T224778 = -8						; size = 4
_iI$221535 = -4						; size = 4
?ClearDynamicFlags@CvTacticalAnalysisMap@@QAEXXZ PROC	; CvTacticalAnalysisMap::ClearDynamicFlags, COMDAT
; _this$ = ecx

; 397  : {

	push	ebp
	mov	ebp, esp
	sub	esp, 32					; 00000020H
	mov	DWORD PTR _this$[ebp], ecx

; 398  : #ifdef AUI_WARNING_FIXES
; 399  : 	for (uint iI = 0; iI < GC.getMap().numPlots(); iI++)
; 400  : #else
; 401  : 	for(int iI = 0; iI < GC.getMap().numPlots(); iI++)

	mov	DWORD PTR _iI$221535[ebp], 0
	jmp	SHORT $LN3@ClearDynam
$LN2@ClearDynam:
	mov	eax, DWORD PTR _iI$221535[ebp]
	add	eax, 1
	mov	DWORD PTR _iI$221535[ebp], eax
$LN3@ClearDynam:
	mov	ecx, DWORD PTR ?gGlobals@@3VCvGlobals@@A+52
	mov	DWORD PTR $T224778[ebp], ecx
	mov	edx, DWORD PTR $T224778[ebp]
	mov	eax, DWORD PTR [edx+4028]
	mov	DWORD PTR $T224782[ebp], eax
	mov	ecx, DWORD PTR _iI$221535[ebp]
	cmp	ecx, DWORD PTR $T224782[ebp]
	jge	$LN4@ClearDynam

; 402  : #endif
; 403  : 	{
; 404  : 		// Erase this cell
; 405  : 		m_pPlots[iI].SetWithinRangeOfTarget(false);

	mov	edx, DWORD PTR _iI$221535[ebp]
	imul	edx, 44					; 0000002cH
	mov	eax, DWORD PTR _this$[ebp]
	add	edx, DWORD PTR [eax+12]
	mov	DWORD PTR $T224795[ebp], edx
	xor	ecx, ecx
	je	SHORT $LN13@ClearDynam
	mov	edx, DWORD PTR $T224795[ebp]
	mov	eax, DWORD PTR [edx]
	or	eax, 131072				; 00020000H
	mov	ecx, DWORD PTR $T224795[ebp]
	mov	DWORD PTR [ecx], eax
	jmp	SHORT $LN10@ClearDynam
$LN13@ClearDynam:
	mov	edx, 131072				; 00020000H
	not	edx
	mov	eax, DWORD PTR $T224795[ebp]
	and	edx, DWORD PTR [eax]
	mov	ecx, DWORD PTR $T224795[ebp]
	mov	DWORD PTR [ecx], edx
$LN10@ClearDynam:

; 406  : 		m_pPlots[iI].SetHelpsProvidesFlankBonus(false);

	mov	edx, DWORD PTR _iI$221535[ebp]
	imul	edx, 44					; 0000002cH
	mov	eax, DWORD PTR _this$[ebp]
	add	edx, DWORD PTR [eax+12]
	mov	DWORD PTR $T224808[ebp], edx
	xor	ecx, ecx
	je	SHORT $LN19@ClearDynam
	mov	edx, DWORD PTR $T224808[ebp]
	mov	eax, DWORD PTR [edx]
	or	eax, 262144				; 00040000H
	mov	ecx, DWORD PTR $T224808[ebp]
	mov	DWORD PTR [ecx], eax
	jmp	SHORT $LN16@ClearDynam
$LN19@ClearDynam:
	mov	edx, 262144				; 00040000H
	not	edx
	mov	eax, DWORD PTR $T224808[ebp]
	and	edx, DWORD PTR [eax]
	mov	ecx, DWORD PTR $T224808[ebp]
	mov	DWORD PTR [ecx], edx
$LN16@ClearDynam:

; 407  : 		m_pPlots[iI].SetSafeForDeployment(false);

	mov	edx, DWORD PTR _iI$221535[ebp]
	imul	edx, 44					; 0000002cH
	mov	eax, DWORD PTR _this$[ebp]
	add	edx, DWORD PTR [eax+12]
	mov	DWORD PTR $T224821[ebp], edx
	xor	ecx, ecx
	je	SHORT $LN25@ClearDynam
	mov	edx, DWORD PTR $T224821[ebp]
	mov	eax, DWORD PTR [edx]
	or	eax, 524288				; 00080000H
	mov	ecx, DWORD PTR $T224821[ebp]
	mov	DWORD PTR [ecx], eax
	jmp	SHORT $LN22@ClearDynam
$LN25@ClearDynam:
	mov	edx, 524288				; 00080000H
	not	edx
	mov	eax, DWORD PTR $T224821[ebp]
	and	edx, DWORD PTR [eax]
	mov	ecx, DWORD PTR $T224821[ebp]
	mov	DWORD PTR [ecx], edx
$LN22@ClearDynam:

; 408  : 		m_pPlots[iI].SetDeploymentScore(0);

	mov	edx, DWORD PTR _iI$221535[ebp]
	imul	edx, 44					; 0000002cH
	mov	eax, DWORD PTR _this$[ebp]
	add	edx, DWORD PTR [eax+12]
	mov	DWORD PTR $T224825[ebp], edx
	mov	ecx, DWORD PTR $T224825[ebp]
	mov	DWORD PTR [ecx+32], 0

; 409  : 	}

	jmp	$LN2@ClearDynam
$LN4@ClearDynam:

; 410  : }

	mov	esp, ebp
	pop	ebp
	ret	0
?ClearDynamicFlags@CvTacticalAnalysisMap@@QAEXXZ ENDP	; CvTacticalAnalysisMap::ClearDynamicFlags
_TEXT	ENDS
PUBLIC	?plotXY@@YAPAVCvPlot@@HHHH@Z			; plotXY
PUBLIC	?SetTargetBombardCells@CvTacticalAnalysisMap@@QAEXPAVCvPlot@@H_N@Z ; CvTacticalAnalysisMap::SetTargetBombardCells
EXTRN	?canSeePlot@CvPlot@@QBE_NPBV1@W4TeamTypes@@HW4DirectionTypes@@@Z:PROC ; CvPlot::canSeePlot
; Function compile flags: /Odtp
;	COMDAT ?SetTargetBombardCells@CvTacticalAnalysisMap@@QAEXPAVCvPlot@@H_N@Z
_TEXT	SEGMENT
_this$ = -176						; size = 4
$T225067 = -172						; size = 4
$T225054 = -168						; size = 4
$T225053 = -164						; size = 4
$T225000 = -160						; size = 4
$T224995 = -156						; size = 4
$T224991 = -152						; size = 4
$T224987 = -148						; size = 4
$T224946 = -100						; size = 4
$T224942 = -96						; size = 4
$T224938 = -92						; size = 4
$T224934 = -88						; size = 4
$T224835 = -28						; size = 4
$T224831 = -24						; size = 4
_iDY$ = -20						; size = 4
_iDX$ = -16						; size = 4
_iPlotIndex$ = -12					; size = 4
_iPlotDistance$ = -8					; size = 4
_pLoopPlot$ = -4					; size = 4
_pTarget$ = 8						; size = 4
_iRange$ = 12						; size = 4
_bIgnoreLOS$ = 16					; size = 1
?SetTargetBombardCells@CvTacticalAnalysisMap@@QAEXPAVCvPlot@@H_N@Z PROC ; CvTacticalAnalysisMap::SetTargetBombardCells, COMDAT
; _this$ = ecx

; 414  : {

	push	ebp
	mov	ebp, esp
	sub	esp, 176				; 000000b0H
	mov	DWORD PTR _this$[ebp], ecx

; 415  : 	int iDX, iDY;
; 416  : 	CvPlot* pLoopPlot;
; 417  : 	int iPlotIndex;
; 418  : #ifdef AUI_HEXSPACE_DX_LOOPS
; 419  : 	int iMaxDX;
; 420  : 	for (iDY = -iRange; iDY <= iRange; iDY++)
; 421  : 	{
; 422  : 		iMaxDX = iRange - MAX(0, iDY);
; 423  : 		for (iDX = -iRange - MIN(0, iDY); iDX <= iMaxDX; iDX++) // MIN() and MAX() stuff is to reduce loops (hexspace!)
; 424  : #else
; 425  : 	int iPlotDistance;
; 426  : 
; 427  : 	for(iDX = -(iRange); iDX <= iRange; iDX++)

	mov	eax, DWORD PTR _iRange$[ebp]
	neg	eax
	mov	DWORD PTR _iDX$[ebp], eax
	jmp	SHORT $LN12@SetTargetB
$LN11@SetTargetB:
	mov	ecx, DWORD PTR _iDX$[ebp]
	add	ecx, 1
	mov	DWORD PTR _iDX$[ebp], ecx
$LN12@SetTargetB:
	mov	edx, DWORD PTR _iDX$[ebp]
	cmp	edx, DWORD PTR _iRange$[ebp]
	jg	$LN13@SetTargetB

; 428  : 	{
; 429  : 		for(iDY = -(iRange); iDY <= iRange; iDY++)

	mov	eax, DWORD PTR _iRange$[ebp]
	neg	eax
	mov	DWORD PTR _iDY$[ebp], eax
	jmp	SHORT $LN9@SetTargetB
$LN8@SetTargetB:
	mov	ecx, DWORD PTR _iDY$[ebp]
	add	ecx, 1
	mov	DWORD PTR _iDY$[ebp], ecx
$LN9@SetTargetB:
	mov	edx, DWORD PTR _iDY$[ebp]
	cmp	edx, DWORD PTR _iRange$[ebp]
	jg	$LN7@SetTargetB

; 430  : #endif
; 431  : 		{
; 432  : #ifdef AUI_HEXSPACE_DX_LOOPS
; 433  : 			if (iDX == 0 && iDY == 0)
; 434  : 				continue;
; 435  : #endif
; 436  : 			pLoopPlot = plotXY(pTarget->getX(), pTarget->getY(), iDX, iDY);

	mov	eax, DWORD PTR _pTarget$[ebp]
	movsx	ecx, WORD PTR [eax+2]
	mov	DWORD PTR $T224831[ebp], ecx
	mov	edx, DWORD PTR _pTarget$[ebp]
	movsx	eax, WORD PTR [edx]
	mov	DWORD PTR $T224835[ebp], eax
	mov	ecx, DWORD PTR _iDY$[ebp]
	push	ecx
	mov	edx, DWORD PTR _iDX$[ebp]
	push	edx
	mov	eax, DWORD PTR $T224831[ebp]
	push	eax
	mov	ecx, DWORD PTR $T224835[ebp]
	push	ecx
	call	?plotXY@@YAPAVCvPlot@@HHHH@Z		; plotXY
	add	esp, 16					; 00000010H
	mov	DWORD PTR _pLoopPlot$[ebp], eax

; 437  : 			if(pLoopPlot != NULL)

	cmp	DWORD PTR _pLoopPlot$[ebp], 0
	je	$LN6@SetTargetB

; 438  : 			{
; 439  : #ifndef AUI_HEXSPACE_DX_LOOPS
; 440  : #ifdef AUI_FIX_HEX_DISTANCE_INSTEAD_OF_PLOT_DISTANCE
; 441  : 				iPlotDistance = hexDistance(iDX, iDY);
; 442  : #else
; 443  : 				iPlotDistance = plotDistance(pLoopPlot->getX(), pLoopPlot->getY(), pTarget->getX(), pTarget->getY());

	mov	edx, DWORD PTR _pTarget$[ebp]
	movsx	eax, WORD PTR [edx+2]
	mov	DWORD PTR $T224934[ebp], eax
	mov	ecx, DWORD PTR _pTarget$[ebp]
	movsx	edx, WORD PTR [ecx]
	mov	DWORD PTR $T224938[ebp], edx
	mov	eax, DWORD PTR _pLoopPlot$[ebp]
	movsx	ecx, WORD PTR [eax+2]
	mov	DWORD PTR $T224942[ebp], ecx
	mov	edx, DWORD PTR _pLoopPlot$[ebp]
	movsx	eax, WORD PTR [edx]
	mov	DWORD PTR $T224946[ebp], eax
	mov	ecx, DWORD PTR $T224934[ebp]
	push	ecx
	mov	edx, DWORD PTR $T224938[ebp]
	push	edx
	mov	eax, DWORD PTR $T224942[ebp]
	push	eax
	mov	ecx, DWORD PTR $T224946[ebp]
	push	ecx
	call	?plotDistance@@YAHHHHH@Z		; plotDistance
	add	esp, 16					; 00000010H
	mov	DWORD PTR _iPlotDistance$[ebp], eax

; 444  : #endif
; 445  : 				if(iPlotDistance > 0 && iPlotDistance <= iRange)

	cmp	DWORD PTR _iPlotDistance$[ebp], 0
	jle	$LN6@SetTargetB
	mov	edx, DWORD PTR _iPlotDistance$[ebp]
	cmp	edx, DWORD PTR _iRange$[ebp]
	jg	$LN6@SetTargetB

; 446  : #endif
; 447  : 				{
; 448  : 					iPlotIndex = GC.getMap().plotNum(pLoopPlot->getX(), pLoopPlot->getY());

	mov	eax, DWORD PTR _pLoopPlot$[ebp]
	movsx	ecx, WORD PTR [eax+2]
	mov	DWORD PTR $T224987[ebp], ecx
	mov	edx, DWORD PTR _pLoopPlot$[ebp]
	movsx	eax, WORD PTR [edx]
	mov	DWORD PTR $T224991[ebp], eax
	mov	ecx, DWORD PTR ?gGlobals@@3VCvGlobals@@A+52
	mov	DWORD PTR $T224995[ebp], ecx
	mov	edx, DWORD PTR $T224995[ebp]
	mov	eax, DWORD PTR [edx+4020]
	mov	DWORD PTR $T225000[ebp], eax
	mov	ecx, DWORD PTR $T224987[ebp]
	imul	ecx, DWORD PTR $T225000[ebp]
	add	ecx, DWORD PTR $T224991[ebp]
	mov	DWORD PTR _iPlotIndex$[ebp], ecx

; 449  : 					if(m_pPlots[iPlotIndex].IsRevealed() && !m_pPlots[iPlotIndex].IsImpassableTerrain() && !m_pPlots[iPlotIndex].IsImpassableTerritory())

	mov	edx, DWORD PTR _iPlotIndex$[ebp]
	imul	edx, 44					; 0000002cH
	mov	eax, DWORD PTR _this$[ebp]
	mov	ecx, DWORD PTR [eax+12]
	mov	edx, DWORD PTR [ecx+edx]
	and	edx, 1
	neg	edx
	sbb	edx, edx
	neg	edx
	movzx	eax, dl
	test	eax, eax
	je	$LN6@SetTargetB
	mov	ecx, DWORD PTR _iPlotIndex$[ebp]
	imul	ecx, 44					; 0000002cH
	mov	edx, DWORD PTR _this$[ebp]
	mov	eax, DWORD PTR [edx+12]
	mov	ecx, DWORD PTR [eax+ecx]
	and	ecx, 4
	neg	ecx
	sbb	ecx, ecx
	neg	ecx
	movzx	edx, cl
	test	edx, edx
	jne	$LN6@SetTargetB
	mov	eax, DWORD PTR _iPlotIndex$[ebp]
	imul	eax, 44					; 0000002cH
	mov	ecx, DWORD PTR _this$[ebp]
	mov	edx, DWORD PTR [ecx+12]
	mov	eax, DWORD PTR [edx+eax]
	and	eax, 8
	neg	eax
	sbb	eax, eax
	neg	eax
	movzx	ecx, al
	test	ecx, ecx
	jne	$LN6@SetTargetB

; 450  : 					{
; 451  : 						if(!m_pPlots[iPlotIndex].IsEnemyCity() && !m_pPlots[iPlotIndex].IsNeutralCity())

	mov	edx, DWORD PTR _iPlotIndex$[ebp]
	imul	edx, 44					; 0000002cH
	mov	eax, DWORD PTR _this$[ebp]
	mov	ecx, DWORD PTR [eax+12]
	mov	edx, DWORD PTR [ecx+edx]
	and	edx, 512				; 00000200H
	neg	edx
	sbb	edx, edx
	neg	edx
	movzx	eax, dl
	test	eax, eax
	jne	$LN6@SetTargetB
	mov	ecx, DWORD PTR _iPlotIndex$[ebp]
	imul	ecx, 44					; 0000002cH
	mov	edx, DWORD PTR _this$[ebp]
	mov	eax, DWORD PTR [edx+12]
	mov	ecx, DWORD PTR [eax+ecx]
	and	ecx, 1024				; 00000400H
	neg	ecx
	sbb	ecx, ecx
	neg	ecx
	movzx	edx, cl
	test	edx, edx
	jne	$LN6@SetTargetB

; 452  : 						{
; 453  : 							if(bIgnoreLOS || pLoopPlot->canSeePlot(pTarget, m_pPlayer->getTeam(), iRange, NO_DIRECTION))

	movzx	eax, BYTE PTR _bIgnoreLOS$[ebp]
	test	eax, eax
	jne	SHORT $LN1@SetTargetB
	mov	ecx, DWORD PTR _this$[ebp]
	mov	edx, DWORD PTR [ecx+20]
	mov	DWORD PTR $T225053[ebp], edx
	mov	eax, DWORD PTR $T225053[ebp]
	mov	ecx, DWORD PTR [eax+44]
	push	ecx
	call	?teamType@CvPreGame@@YA?AW4TeamTypes@@W4PlayerTypes@@@Z ; CvPreGame::teamType
	add	esp, 4
	mov	DWORD PTR $T225054[ebp], eax
	push	-1
	mov	edx, DWORD PTR _iRange$[ebp]
	push	edx
	mov	eax, DWORD PTR $T225054[ebp]
	push	eax
	mov	ecx, DWORD PTR _pTarget$[ebp]
	push	ecx
	mov	ecx, DWORD PTR _pLoopPlot$[ebp]
	call	?canSeePlot@CvPlot@@QBE_NPBV1@W4TeamTypes@@HW4DirectionTypes@@@Z ; CvPlot::canSeePlot
	movzx	edx, al
	test	edx, edx
	je	SHORT $LN6@SetTargetB
$LN1@SetTargetB:

; 454  : 							{
; 455  : 								m_pPlots[iPlotIndex].SetWithinRangeOfTarget(true);

	mov	eax, DWORD PTR _iPlotIndex$[ebp]
	imul	eax, 44					; 0000002cH
	mov	ecx, DWORD PTR _this$[ebp]
	add	eax, DWORD PTR [ecx+12]
	mov	DWORD PTR $T225067[ebp], eax
	mov	edx, 1
	test	edx, edx
	je	SHORT $LN126@SetTargetB
	mov	eax, DWORD PTR $T225067[ebp]
	mov	ecx, DWORD PTR [eax]
	or	ecx, 131072				; 00020000H
	mov	edx, DWORD PTR $T225067[ebp]
	mov	DWORD PTR [edx], ecx
	jmp	SHORT $LN6@SetTargetB
$LN126@SetTargetB:
	mov	eax, 131072				; 00020000H
	not	eax
	mov	ecx, DWORD PTR $T225067[ebp]
	and	eax, DWORD PTR [ecx]
	mov	edx, DWORD PTR $T225067[ebp]
	mov	DWORD PTR [edx], eax
$LN6@SetTargetB:

; 456  : 							}
; 457  : 						}
; 458  : 					}
; 459  : 				}
; 460  : 			}
; 461  : 		}

	jmp	$LN8@SetTargetB
$LN7@SetTargetB:

; 462  : 	}

	jmp	$LN11@SetTargetB
$LN13@SetTargetB:

; 463  : }

	mov	esp, ebp
	pop	ebp
	ret	12					; 0000000cH
?SetTargetBombardCells@CvTacticalAnalysisMap@@QAEXPAVCvPlot@@H_N@Z ENDP ; CvTacticalAnalysisMap::SetTargetBombardCells
; Function compile flags: /Odtp
; File d:\sources\lekmod_git\checkout\lekmod_dll\cvgamecoredll_expansion2\cvgamecoreutils.h
_TEXT	ENDS
;	COMDAT ?plotXY@@YAPAVCvPlot@@HHHH@Z
_TEXT	SEGMENT
tv148 = -72						; size = 4
tv163 = -68						; size = 4
tv86 = -64						; size = 4
tv82 = -60						; size = 4
$T225189 = -56						; size = 4
$T225144 = -52						; size = 4
$T225131 = -48						; size = 4
$T225127 = -44						; size = 4
$T225113 = -40						; size = 4
$T225109 = -33						; size = 1
$T225098 = -32						; size = 4
$T225094 = -25						; size = 1
_iMapY$225153 = -24					; size = 4
_iMapX$225152 = -20					; size = 4
$T225087 = -16						; size = 4
_iPlotHexX$ = -12					; size = 4
_iPlotY$ = -8						; size = 4
_iStartHexX$ = -4					; size = 4
_iX$ = 8						; size = 4
_iY$ = 12						; size = 4
_iDX$ = 16						; size = 4
_iDY$ = 20						; size = 4
?plotXY@@YAPAVCvPlot@@HHHH@Z PROC			; plotXY, COMDAT

; 213  : {

	push	ebp
	mov	ebp, esp
	sub	esp, 72					; 00000048H

; 214  : 	// convert the start coord to hex-space coordinates
; 215  : 	int iStartHexX = xToHexspaceX(iX, iY);

	cmp	DWORD PTR _iY$[ebp], 0
	jl	SHORT $LN5@plotXY
	mov	eax, DWORD PTR _iY$[ebp]
	sar	eax, 1
	mov	DWORD PTR tv82[ebp], eax
	jmp	SHORT $LN3@plotXY
$LN5@plotXY:
	mov	eax, DWORD PTR _iY$[ebp]
	sub	eax, 1
	cdq
	sub	eax, edx
	sar	eax, 1
	mov	DWORD PTR tv82[ebp], eax
$LN3@plotXY:
	mov	ecx, DWORD PTR _iX$[ebp]
	sub	ecx, DWORD PTR tv82[ebp]
	mov	DWORD PTR _iStartHexX$[ebp], ecx

; 216  : 
; 217  : 	int iPlotHexX = iStartHexX + iDX;

	mov	edx, DWORD PTR _iStartHexX$[ebp]
	add	edx, DWORD PTR _iDX$[ebp]
	mov	DWORD PTR _iPlotHexX$[ebp], edx

; 218  : 	int iPlotY = iY + iDY; // Y is the same in both coordinate systems

	mov	eax, DWORD PTR _iY$[ebp]
	add	eax, DWORD PTR _iDY$[ebp]
	mov	DWORD PTR _iPlotY$[ebp], eax

; 219  : 
; 220  : 	// convert from hex-space coordinates to the storage array
; 221  : 	iPlotHexX = hexspaceXToX(iPlotHexX, iPlotY);

	js	SHORT $LN9@plotXY
	mov	ecx, DWORD PTR _iPlotY$[ebp]
	sar	ecx, 1
	mov	DWORD PTR tv86[ebp], ecx
	jmp	SHORT $LN7@plotXY
$LN9@plotXY:
	mov	eax, DWORD PTR _iPlotY$[ebp]
	sub	eax, 1
	cdq
	sub	eax, edx
	sar	eax, 1
	mov	DWORD PTR tv86[ebp], eax
$LN7@plotXY:
	mov	edx, DWORD PTR _iPlotHexX$[ebp]
	add	edx, DWORD PTR tv86[ebp]
	mov	DWORD PTR _iPlotHexX$[ebp], edx

; 222  : 
; 223  : 	return GC.getMap().plot(iPlotHexX , iPlotY);

	mov	eax, DWORD PTR ?gGlobals@@3VCvGlobals@@A+52
	mov	DWORD PTR $T225087[ebp], eax
	cmp	DWORD PTR _iPlotHexX$[ebp], -2147483647	; 80000001H
	je	SHORT $LN13@plotXY
	cmp	DWORD PTR _iPlotY$[ebp], -2147483647	; 80000001H
	jne	SHORT $LN14@plotXY
$LN13@plotXY:
	mov	DWORD PTR $T225189[ebp], 0
	jmp	$LN15@plotXY
$LN14@plotXY:
	mov	ecx, DWORD PTR $T225087[ebp]
	mov	dl, BYTE PTR [ecx+4056]
	mov	BYTE PTR $T225094[ebp], dl
	mov	eax, DWORD PTR $T225087[ebp]
	mov	ecx, DWORD PTR [eax+4020]
	mov	DWORD PTR $T225098[ebp], ecx
	movzx	edx, BYTE PTR $T225094[ebp]
	test	edx, edx
	je	SHORT $LN26@plotXY
	cmp	DWORD PTR _iPlotHexX$[ebp], 0
	jge	SHORT $LN25@plotXY
	mov	eax, DWORD PTR _iPlotHexX$[ebp]
	cdq
	idiv	DWORD PTR $T225098[ebp]
	add	edx, DWORD PTR $T225098[ebp]
	mov	DWORD PTR _iMapX$225152[ebp], edx
	jmp	SHORT $LN27@plotXY
	jmp	SHORT $LN26@plotXY
$LN25@plotXY:
	mov	eax, DWORD PTR _iPlotHexX$[ebp]
	cmp	eax, DWORD PTR $T225098[ebp]
	jl	SHORT $LN26@plotXY
	mov	eax, DWORD PTR _iPlotHexX$[ebp]
	cdq
	idiv	DWORD PTR $T225098[ebp]
	mov	DWORD PTR _iMapX$225152[ebp], edx
	jmp	SHORT $LN27@plotXY
$LN26@plotXY:
	mov	ecx, DWORD PTR _iPlotHexX$[ebp]
	mov	DWORD PTR _iMapX$225152[ebp], ecx
$LN27@plotXY:
	mov	edx, DWORD PTR $T225087[ebp]
	mov	al, BYTE PTR [edx+4057]
	mov	BYTE PTR $T225109[ebp], al
	mov	ecx, DWORD PTR $T225087[ebp]
	mov	edx, DWORD PTR [ecx+4024]
	mov	DWORD PTR $T225113[ebp], edx
	movzx	eax, BYTE PTR $T225109[ebp]
	test	eax, eax
	je	SHORT $LN36@plotXY
	cmp	DWORD PTR _iPlotY$[ebp], 0
	jge	SHORT $LN35@plotXY
	mov	eax, DWORD PTR _iPlotY$[ebp]
	cdq
	idiv	DWORD PTR $T225113[ebp]
	add	edx, DWORD PTR $T225113[ebp]
	mov	DWORD PTR _iMapY$225153[ebp], edx
	jmp	SHORT $LN37@plotXY
	jmp	SHORT $LN36@plotXY
$LN35@plotXY:
	mov	ecx, DWORD PTR _iPlotY$[ebp]
	cmp	ecx, DWORD PTR $T225113[ebp]
	jl	SHORT $LN36@plotXY
	mov	eax, DWORD PTR _iPlotY$[ebp]
	cdq
	idiv	DWORD PTR $T225113[ebp]
	mov	DWORD PTR _iMapY$225153[ebp], edx
	jmp	SHORT $LN37@plotXY
$LN36@plotXY:
	mov	edx, DWORD PTR _iPlotY$[ebp]
	mov	DWORD PTR _iMapY$225153[ebp], edx
$LN37@plotXY:
	cmp	DWORD PTR _iMapX$225152[ebp], 0
	jl	SHORT $LN41@plotXY
	mov	eax, DWORD PTR $T225087[ebp]
	mov	ecx, DWORD PTR [eax+4020]
	mov	DWORD PTR $T225127[ebp], ecx
	mov	edx, DWORD PTR _iMapX$225152[ebp]
	cmp	edx, DWORD PTR $T225127[ebp]
	jge	SHORT $LN41@plotXY
	cmp	DWORD PTR _iMapY$225153[ebp], 0
	jl	SHORT $LN41@plotXY
	mov	eax, DWORD PTR $T225087[ebp]
	mov	ecx, DWORD PTR [eax+4024]
	mov	DWORD PTR $T225131[ebp], ecx
	mov	edx, DWORD PTR _iMapY$225153[ebp]
	cmp	edx, DWORD PTR $T225131[ebp]
	jge	SHORT $LN41@plotXY
	mov	DWORD PTR tv163[ebp], 1
	jmp	SHORT $LN39@plotXY
$LN41@plotXY:
	mov	DWORD PTR tv163[ebp], 0
$LN39@plotXY:
	cmp	DWORD PTR tv163[ebp], 0
	je	SHORT $LN17@plotXY
	mov	eax, DWORD PTR $T225087[ebp]
	mov	ecx, DWORD PTR [eax+4020]
	mov	DWORD PTR $T225144[ebp], ecx
	mov	edx, DWORD PTR _iMapY$225153[ebp]
	imul	edx, DWORD PTR $T225144[ebp]
	add	edx, DWORD PTR _iMapX$225152[ebp]
	imul	edx, 484				; 000001e4H
	mov	eax, DWORD PTR $T225087[ebp]
	add	edx, DWORD PTR [eax+4068]
	mov	DWORD PTR tv148[ebp], edx
	jmp	SHORT $LN18@plotXY
$LN17@plotXY:
	mov	DWORD PTR tv148[ebp], 0
$LN18@plotXY:
	mov	ecx, DWORD PTR tv148[ebp]
	mov	DWORD PTR $T225189[ebp], ecx
$LN15@plotXY:
	mov	eax, DWORD PTR $T225189[ebp]

; 224  : }

	mov	esp, ebp
	pop	ebp
	ret	0
?plotXY@@YAPAVCvPlot@@HHHH@Z ENDP			; plotXY
_TEXT	ENDS
PUBLIC	?SetTargetFlankBonusCells@CvTacticalAnalysisMap@@QAEXPAVCvPlot@@@Z ; CvTacticalAnalysisMap::SetTargetFlankBonusCells
; Function compile flags: /Odtp
; File d:\sources\lekmod_git\checkout\lekmod_dll\cvgamecoredll_expansion2\cvtacticalanalysismap.cpp
;	COMDAT ?SetTargetFlankBonusCells@CvTacticalAnalysisMap@@QAEXPAVCvPlot@@@Z
_TEXT	SEGMENT
_this$ = -128						; size = 4
$T225450 = -124						; size = 4
$T225437 = -120						; size = 4
$T225373 = -116						; size = 4
$T225368 = -112						; size = 4
$T225364 = -108						; size = 4
$T225360 = -104						; size = 4
$T225202 = -20						; size = 4
$T225198 = -16						; size = 4
_iI$221569 = -12					; size = 4
_iPlotIndex$ = -8					; size = 4
_pLoopPlot$ = -4					; size = 4
_pTarget$ = 8						; size = 4
?SetTargetFlankBonusCells@CvTacticalAnalysisMap@@QAEXPAVCvPlot@@@Z PROC ; CvTacticalAnalysisMap::SetTargetFlankBonusCells, COMDAT
; _this$ = ecx

; 467  : {

	push	ebp
	mov	ebp, esp
	sub	esp, 128				; 00000080H
	mov	DWORD PTR _this$[ebp], ecx

; 468  : 	CvPlot* pLoopPlot;
; 469  : 	int iPlotIndex;
; 470  : 
; 471  : 	// No flank attacks on units at sea (where all combat is bombards)
; 472  : 	if(pTarget->isWater())

	mov	eax, DWORD PTR _pTarget$[ebp]
	movsx	ecx, BYTE PTR [eax+5]
	xor	edx, edx
	cmp	ecx, 3
	sete	dl
	movzx	eax, dl
	test	eax, eax
	je	SHORT $LN8@SetTargetF

; 473  : 	{
; 474  : 		return;

	jmp	$LN9@SetTargetF
$LN8@SetTargetF:

; 475  : 	}
; 476  : 
; 477  : 	for(int iI = 0; iI < NUM_DIRECTION_TYPES; iI++)

	mov	DWORD PTR _iI$221569[ebp], 0
	jmp	SHORT $LN7@SetTargetF
$LN6@SetTargetF:
	mov	ecx, DWORD PTR _iI$221569[ebp]
	add	ecx, 1
	mov	DWORD PTR _iI$221569[ebp], ecx
$LN7@SetTargetF:
	cmp	DWORD PTR _iI$221569[ebp], 6
	jge	$LN9@SetTargetF

; 478  : 	{
; 479  : 		pLoopPlot = plotDirection(pTarget->getX(), pTarget->getY(), ((DirectionTypes)iI));

	mov	edx, DWORD PTR _pTarget$[ebp]
	movsx	eax, WORD PTR [edx+2]
	mov	DWORD PTR $T225198[ebp], eax
	mov	ecx, DWORD PTR _pTarget$[ebp]
	movsx	edx, WORD PTR [ecx]
	mov	DWORD PTR $T225202[ebp], edx
	mov	eax, DWORD PTR _iI$221569[ebp]
	push	eax
	mov	ecx, DWORD PTR $T225198[ebp]
	push	ecx
	mov	edx, DWORD PTR $T225202[ebp]
	push	edx
	call	?plotDirection@@YAPAVCvPlot@@HHW4DirectionTypes@@@Z ; plotDirection
	add	esp, 12					; 0000000cH
	mov	DWORD PTR _pLoopPlot$[ebp], eax

; 480  : 		if(pLoopPlot != NULL)

	cmp	DWORD PTR _pLoopPlot$[ebp], 0
	je	$LN4@SetTargetF

; 481  : 		{
; 482  : 			iPlotIndex = GC.getMap().plotNum(pLoopPlot->getX(), pLoopPlot->getY());

	mov	eax, DWORD PTR _pLoopPlot$[ebp]
	movsx	ecx, WORD PTR [eax+2]
	mov	DWORD PTR $T225360[ebp], ecx
	mov	edx, DWORD PTR _pLoopPlot$[ebp]
	movsx	eax, WORD PTR [edx]
	mov	DWORD PTR $T225364[ebp], eax
	mov	ecx, DWORD PTR ?gGlobals@@3VCvGlobals@@A+52
	mov	DWORD PTR $T225368[ebp], ecx
	mov	edx, DWORD PTR $T225368[ebp]
	mov	eax, DWORD PTR [edx+4020]
	mov	DWORD PTR $T225373[ebp], eax
	mov	ecx, DWORD PTR $T225360[ebp]
	imul	ecx, DWORD PTR $T225373[ebp]
	add	ecx, DWORD PTR $T225364[ebp]
	mov	DWORD PTR _iPlotIndex$[ebp], ecx

; 483  : 			if(m_pPlots[iPlotIndex].IsRevealed() && !m_pPlots[iPlotIndex].IsImpassableTerrain() && !m_pPlots[iPlotIndex].IsImpassableTerritory())

	mov	edx, DWORD PTR _iPlotIndex$[ebp]
	imul	edx, 44					; 0000002cH
	mov	eax, DWORD PTR _this$[ebp]
	mov	ecx, DWORD PTR [eax+12]
	mov	edx, DWORD PTR [ecx+edx]
	and	edx, 1
	neg	edx
	sbb	edx, edx
	neg	edx
	movzx	eax, dl
	test	eax, eax
	je	$LN4@SetTargetF
	mov	ecx, DWORD PTR _iPlotIndex$[ebp]
	imul	ecx, 44					; 0000002cH
	mov	edx, DWORD PTR _this$[ebp]
	mov	eax, DWORD PTR [edx+12]
	mov	ecx, DWORD PTR [eax+ecx]
	and	ecx, 4
	neg	ecx
	sbb	ecx, ecx
	neg	ecx
	movzx	edx, cl
	test	edx, edx
	jne	$LN4@SetTargetF
	mov	eax, DWORD PTR _iPlotIndex$[ebp]
	imul	eax, 44					; 0000002cH
	mov	ecx, DWORD PTR _this$[ebp]
	mov	edx, DWORD PTR [ecx+12]
	mov	eax, DWORD PTR [edx+eax]
	and	eax, 8
	neg	eax
	sbb	eax, eax
	neg	eax
	movzx	ecx, al
	test	ecx, ecx
	jne	$LN4@SetTargetF

; 484  : 			{
; 485  : 				if(!m_pPlots[iPlotIndex].IsFriendlyCity() && !m_pPlots[iPlotIndex].IsEnemyCity() && !m_pPlots[iPlotIndex].IsNeutralCity())

	mov	edx, DWORD PTR _iPlotIndex$[ebp]
	imul	edx, 44					; 0000002cH
	mov	eax, DWORD PTR _this$[ebp]
	mov	ecx, DWORD PTR [eax+12]
	mov	edx, DWORD PTR [ecx+edx]
	and	edx, 256				; 00000100H
	neg	edx
	sbb	edx, edx
	neg	edx
	movzx	eax, dl
	test	eax, eax
	jne	$LN4@SetTargetF
	mov	ecx, DWORD PTR _iPlotIndex$[ebp]
	imul	ecx, 44					; 0000002cH
	mov	edx, DWORD PTR _this$[ebp]
	mov	eax, DWORD PTR [edx+12]
	mov	ecx, DWORD PTR [eax+ecx]
	and	ecx, 512				; 00000200H
	neg	ecx
	sbb	ecx, ecx
	neg	ecx
	movzx	edx, cl
	test	edx, edx
	jne	$LN4@SetTargetF
	mov	eax, DWORD PTR _iPlotIndex$[ebp]
	imul	eax, 44					; 0000002cH
	mov	ecx, DWORD PTR _this$[ebp]
	mov	edx, DWORD PTR [ecx+12]
	mov	eax, DWORD PTR [edx+eax]
	and	eax, 1024				; 00000400H
	neg	eax
	sbb	eax, eax
	neg	eax
	movzx	ecx, al
	test	ecx, ecx
	jne	SHORT $LN4@SetTargetF

; 486  : 				{
; 487  : 					if(!m_pPlots[iPlotIndex].IsFriendlyTurnEndTile() && m_pPlots[iPlotIndex].GetEnemyMilitaryUnit() == NULL)

	mov	edx, DWORD PTR _iPlotIndex$[ebp]
	imul	edx, 44					; 0000002cH
	mov	eax, DWORD PTR _this$[ebp]
	mov	ecx, DWORD PTR [eax+12]
	mov	edx, DWORD PTR [ecx+edx]
	and	edx, 128				; 00000080H
	neg	edx
	sbb	edx, edx
	neg	edx
	movzx	eax, dl
	test	eax, eax
	jne	SHORT $LN4@SetTargetF
	mov	ecx, DWORD PTR _iPlotIndex$[ebp]
	imul	ecx, 44					; 0000002cH
	mov	edx, DWORD PTR _this$[ebp]
	mov	eax, DWORD PTR [edx+12]
	mov	ecx, DWORD PTR [eax+ecx+4]
	mov	DWORD PTR $T225437[ebp], ecx
	cmp	DWORD PTR $T225437[ebp], 0
	jne	SHORT $LN4@SetTargetF

; 488  : 					{
; 489  : 						m_pPlots[iPlotIndex].SetHelpsProvidesFlankBonus(true);

	mov	edx, DWORD PTR _iPlotIndex$[ebp]
	imul	edx, 44					; 0000002cH
	mov	eax, DWORD PTR _this$[ebp]
	add	edx, DWORD PTR [eax+12]
	mov	DWORD PTR $T225450[ebp], edx
	mov	ecx, 1
	test	ecx, ecx
	je	SHORT $LN124@SetTargetF
	mov	edx, DWORD PTR $T225450[ebp]
	mov	eax, DWORD PTR [edx]
	or	eax, 262144				; 00040000H
	mov	ecx, DWORD PTR $T225450[ebp]
	mov	DWORD PTR [ecx], eax
	jmp	SHORT $LN4@SetTargetF
$LN124@SetTargetF:
	mov	edx, 262144				; 00040000H
	not	edx
	mov	eax, DWORD PTR $T225450[ebp]
	and	edx, DWORD PTR [eax]
	mov	ecx, DWORD PTR $T225450[ebp]
	mov	DWORD PTR [ecx], edx
$LN4@SetTargetF:

; 490  : 					}
; 491  : 				}
; 492  : 			}
; 493  : 		}

	jmp	$LN6@SetTargetF
$LN9@SetTargetF:

; 494  : 	}
; 495  : }

	mov	esp, ebp
	pop	ebp
	ret	4
?SetTargetFlankBonusCells@CvTacticalAnalysisMap@@QAEXPAVCvPlot@@@Z ENDP ; CvTacticalAnalysisMap::SetTargetFlankBonusCells
_TEXT	ENDS
PUBLIC	?push_back@?$FStaticVector@VCvTacticalDominanceZone@@$0GO@$00$0BCJ@$0A@@@QAEIABVCvTacticalDominanceZone@@@Z ; FStaticVector<CvTacticalDominanceZone,110,1,297,0>::push_back
PUBLIC	?coordRange@@YAHHH_N@Z				; coordRange
EXTRN	?GetNextTemporaryZone@CvTacticalAI@@QAEPAVCvTemporaryZone@@XZ:PROC ; CvTacticalAI::GetNextTemporaryZone
EXTRN	?GetFirstTemporaryZone@CvTacticalAI@@QAEPAVCvTemporaryZone@@XZ:PROC ; CvTacticalAI::GetFirstTemporaryZone
EXTRN	?DropObsoleteZones@CvTacticalAI@@QAEXXZ:PROC	; CvTacticalAI::DropObsoleteZones
EXTRN	?GetTacticalAI@CvPlayer@@QBEPAVCvTacticalAI@@XZ:PROC ; CvPlayer::GetTacticalAI
; Function compile flags: /Odtp
;	COMDAT ?AddTemporaryZones@CvTacticalAnalysisMap@@IAEXXZ
_TEXT	SEGMENT
tv180 = -200						; size = 4
_this$ = -196						; size = 4
$T225563 = -150						; size = 1
$T225556 = -149						; size = 1
$T225546 = -148						; size = 4
$T225533 = -144						; size = 4
$T225499 = -140						; size = 4
$T225494 = -136						; size = 4
$T225490 = -129						; size = 1
$T225479 = -128						; size = 4
$T225475 = -121						; size = 1
_iMapY$225529 = -120					; size = 4
_iMapX$225528 = -116					; size = 4
$T225468 = -112						; size = 4
$T225464 = -108						; size = 4
$T225460 = -104						; size = 4
$T225456 = -100						; size = 4
_newZone$221590 = -96					; size = 76
_pPlot$221588 = -12					; size = 4
_pZone$ = -8						; size = 4
_pTacticalAI$ = -4					; size = 4
?AddTemporaryZones@CvTacticalAnalysisMap@@IAEXXZ PROC	; CvTacticalAnalysisMap::AddTemporaryZones, COMDAT
; _this$ = ecx

; 501  : {

	push	ebp
	mov	ebp, esp
	sub	esp, 200				; 000000c8H
	mov	DWORD PTR _this$[ebp], ecx

; 502  : 	CvTemporaryZone* pZone;
; 503  : 	CvTacticalAI* pTacticalAI = m_pPlayer->GetTacticalAI();

	mov	eax, DWORD PTR _this$[ebp]
	mov	ecx, DWORD PTR [eax+20]
	call	?GetTacticalAI@CvPlayer@@QBEPAVCvTacticalAI@@XZ ; CvPlayer::GetTacticalAI
	mov	DWORD PTR _pTacticalAI$[ebp], eax

; 504  : 
; 505  : 	if(pTacticalAI)

	cmp	DWORD PTR _pTacticalAI$[ebp], 0
	je	$LN6@AddTempora

; 506  : 	{
; 507  : 		pTacticalAI->DropObsoleteZones();

	mov	ecx, DWORD PTR _pTacticalAI$[ebp]
	call	?DropObsoleteZones@CvTacticalAI@@QAEXXZ	; CvTacticalAI::DropObsoleteZones

; 508  : 
; 509  : 		pZone = pTacticalAI->GetFirstTemporaryZone();

	mov	ecx, DWORD PTR _pTacticalAI$[ebp]
	call	?GetFirstTemporaryZone@CvTacticalAI@@QAEPAVCvTemporaryZone@@XZ ; CvTacticalAI::GetFirstTemporaryZone
	mov	DWORD PTR _pZone$[ebp], eax
$LN4@AddTempora:

; 510  : 		while(pZone)

	cmp	DWORD PTR _pZone$[ebp], 0
	je	$LN6@AddTempora

; 511  : 		{
; 512  : 			// Can't be a city zone (which is just used to boost priority but not establish a new zone)
; 513  : 			if(pZone->GetTargetType() != AI_TACTICAL_TARGET_CITY)

	mov	ecx, DWORD PTR _pZone$[ebp]
	mov	edx, DWORD PTR [ecx+8]
	mov	DWORD PTR $T225456[ebp], edx
	cmp	DWORD PTR $T225456[ebp], 1
	je	$LN2@AddTempora

; 514  : 			{
; 515  : 				CvPlot* pPlot = GC.getMap().plot(pZone->GetX(), pZone->GetY());

	mov	eax, DWORD PTR _pZone$[ebp]
	mov	ecx, DWORD PTR [eax+4]
	mov	DWORD PTR $T225460[ebp], ecx
	mov	edx, DWORD PTR _pZone$[ebp]
	mov	eax, DWORD PTR [edx]
	mov	DWORD PTR $T225464[ebp], eax
	mov	ecx, DWORD PTR ?gGlobals@@3VCvGlobals@@A+52
	mov	DWORD PTR $T225468[ebp], ecx
	cmp	DWORD PTR $T225464[ebp], -2147483647	; 80000001H
	je	SHORT $LN16@AddTempora
	cmp	DWORD PTR $T225460[ebp], -2147483647	; 80000001H
	jne	SHORT $LN17@AddTempora
$LN16@AddTempora:
	mov	DWORD PTR _pPlot$221588[ebp], 0
	jmp	$LN18@AddTempora
$LN17@AddTempora:
	mov	edx, DWORD PTR $T225468[ebp]
	mov	al, BYTE PTR [edx+4056]
	mov	BYTE PTR $T225475[ebp], al
	mov	ecx, DWORD PTR $T225468[ebp]
	mov	edx, DWORD PTR [ecx+4020]
	mov	DWORD PTR $T225479[ebp], edx
	movzx	eax, BYTE PTR $T225475[ebp]
	test	eax, eax
	je	SHORT $LN29@AddTempora
	cmp	DWORD PTR $T225464[ebp], 0
	jge	SHORT $LN28@AddTempora
	mov	eax, DWORD PTR $T225464[ebp]
	cdq
	idiv	DWORD PTR $T225479[ebp]
	add	edx, DWORD PTR $T225479[ebp]
	mov	DWORD PTR _iMapX$225528[ebp], edx
	jmp	SHORT $LN30@AddTempora
	jmp	SHORT $LN29@AddTempora
$LN28@AddTempora:
	mov	ecx, DWORD PTR $T225464[ebp]
	cmp	ecx, DWORD PTR $T225479[ebp]
	jl	SHORT $LN29@AddTempora
	mov	eax, DWORD PTR $T225464[ebp]
	cdq
	idiv	DWORD PTR $T225479[ebp]
	mov	DWORD PTR _iMapX$225528[ebp], edx
	jmp	SHORT $LN30@AddTempora
$LN29@AddTempora:
	mov	edx, DWORD PTR $T225464[ebp]
	mov	DWORD PTR _iMapX$225528[ebp], edx
$LN30@AddTempora:
	mov	eax, DWORD PTR $T225468[ebp]
	mov	cl, BYTE PTR [eax+4057]
	mov	BYTE PTR $T225490[ebp], cl
	mov	edx, DWORD PTR $T225468[ebp]
	mov	eax, DWORD PTR [edx+4024]
	mov	DWORD PTR $T225494[ebp], eax
	movzx	ecx, BYTE PTR $T225490[ebp]
	push	ecx
	mov	edx, DWORD PTR $T225494[ebp]
	push	edx
	mov	eax, DWORD PTR $T225460[ebp]
	push	eax
	call	?coordRange@@YAHHH_N@Z			; coordRange
	add	esp, 12					; 0000000cH
	mov	DWORD PTR _iMapY$225529[ebp], eax
	mov	ecx, DWORD PTR _iMapY$225529[ebp]
	push	ecx
	mov	edx, DWORD PTR _iMapX$225528[ebp]
	push	edx
	mov	ecx, DWORD PTR $T225468[ebp]
	call	?isPlot@CvMap@@QBEHHH@Z			; CvMap::isPlot
	test	eax, eax
	je	SHORT $LN20@AddTempora
	mov	eax, DWORD PTR $T225468[ebp]
	mov	ecx, DWORD PTR [eax+4020]
	mov	DWORD PTR $T225499[ebp], ecx
	mov	edx, DWORD PTR _iMapY$225529[ebp]
	imul	edx, DWORD PTR $T225499[ebp]
	add	edx, DWORD PTR _iMapX$225528[ebp]
	imul	edx, 484				; 000001e4H
	mov	eax, DWORD PTR $T225468[ebp]
	add	edx, DWORD PTR [eax+4068]
	mov	DWORD PTR tv180[ebp], edx
	jmp	SHORT $LN21@AddTempora
$LN20@AddTempora:
	mov	DWORD PTR tv180[ebp], 0
$LN21@AddTempora:
	mov	ecx, DWORD PTR tv180[ebp]
	mov	DWORD PTR _pPlot$221588[ebp], ecx
$LN18@AddTempora:

; 516  : 				if(pPlot)

	cmp	DWORD PTR _pPlot$221588[ebp], 0
	je	$LN2@AddTempora

; 517  : 				{
; 518  : 					CvTacticalDominanceZone newZone;

	lea	ecx, DWORD PTR _newZone$221590[ebp]
	call	??0CvTacticalDominanceZone@@QAE@XZ	; CvTacticalDominanceZone::CvTacticalDominanceZone

; 519  : 					newZone.SetDominanceZoneID(m_DominanceZones.size());

	mov	edx, DWORD PTR _this$[ebp]
	mov	eax, DWORD PTR [edx+116]
	mov	DWORD PTR $T225533[ebp], eax
	mov	ecx, DWORD PTR $T225533[ebp]
	mov	DWORD PTR _newZone$221590[ebp], ecx

; 520  : 					newZone.SetTerritoryType(TACTICAL_TERRITORY_TEMP_ZONE);

	mov	DWORD PTR _newZone$221590[ebp+4], 5

; 521  : 					newZone.SetOwner(NO_PLAYER);

	mov	DWORD PTR _newZone$221590[ebp+12], -1

; 522  : 					newZone.SetAreaID(pPlot->getArea());

	mov	edx, DWORD PTR _pPlot$221588[ebp]
	mov	eax, DWORD PTR [edx+356]
	mov	DWORD PTR $T225546[ebp], eax
	mov	ecx, DWORD PTR $T225546[ebp]
	mov	DWORD PTR _newZone$221590[ebp+20], ecx

; 523  : 					newZone.SetWater(pPlot->isWater());

	mov	edx, DWORD PTR _pPlot$221588[ebp]
	movsx	eax, BYTE PTR [edx+5]
	xor	ecx, ecx
	cmp	eax, 3
	sete	cl
	mov	BYTE PTR $T225556[ebp], cl
	mov	dl, BYTE PTR $T225556[ebp]
	mov	BYTE PTR _newZone$221590[ebp+68], dl

; 524  : 					newZone.SetTempZoneCenter(pPlot);

	mov	eax, DWORD PTR _pPlot$221588[ebp]
	mov	DWORD PTR _newZone$221590[ebp+72], eax

; 525  : 					newZone.SetNavalInvasion(pZone->IsNavalInvasion());

	mov	ecx, DWORD PTR _pZone$[ebp]
	mov	dl, BYTE PTR [ecx+16]
	mov	BYTE PTR $T225563[ebp], dl
	mov	al, BYTE PTR $T225563[ebp]
	mov	BYTE PTR _newZone$221590[ebp+69], al

; 526  : 					m_DominanceZones.push_back(newZone);

	lea	ecx, DWORD PTR _newZone$221590[ebp]
	push	ecx
	mov	ecx, DWORD PTR _this$[ebp]
	add	ecx, 112				; 00000070H
	call	?push_back@?$FStaticVector@VCvTacticalDominanceZone@@$0GO@$00$0BCJ@$0A@@@QAEIABVCvTacticalDominanceZone@@@Z ; FStaticVector<CvTacticalDominanceZone,110,1,297,0>::push_back
$LN2@AddTempora:

; 527  : 				}
; 528  : 			}
; 529  : 
; 530  : 			pZone = pTacticalAI->GetNextTemporaryZone();

	mov	ecx, DWORD PTR _pTacticalAI$[ebp]
	call	?GetNextTemporaryZone@CvTacticalAI@@QAEPAVCvTemporaryZone@@XZ ; CvTacticalAI::GetNextTemporaryZone
	mov	DWORD PTR _pZone$[ebp], eax

; 531  : 		}

	jmp	$LN4@AddTempora
$LN6@AddTempora:

; 532  : 	}
; 533  : }

	mov	esp, ebp
	pop	ebp
	ret	0
?AddTemporaryZones@CvTacticalAnalysisMap@@IAEXXZ ENDP	; CvTacticalAnalysisMap::AddTemporaryZones
_TEXT	ENDS
PUBLIC	?isCity@CvPlot@@QBE_NXZ				; CvPlot::isCity
PUBLIC	?GetBit@PlotBoolField@CvPlot@@QBE_NI@Z		; CvPlot::PlotBoolField::GetBit
EXTRN	?isEnemy@CvUnit@@QBE_NW4TeamTypes@@PBVCvPlot@@@Z:PROC ; CvUnit::isEnemy
EXTRN	?getUnitByIndex@CvPlot@@QBEPAVCvUnit@@H@Z:PROC	; CvPlot::getUnitByIndex
EXTRN	?getNumUnits@CvPlot@@QBEHXZ:PROC		; CvPlot::getNumUnits
EXTRN	?defenseModifier@CvPlot@@QBEHW4TeamTypes@@_N1@Z:PROC ; CvPlot::defenseModifier
EXTRN	?isFriendlyTerritory@CvTeam@@QBE_NW4TeamTypes@@@Z:PROC ; CvTeam::isFriendlyTerritory
EXTRN	?IsAllowsOpenBordersToTeam@CvTeam@@QBE_NW4TeamTypes@@@Z:PROC ; CvTeam::IsAllowsOpenBordersToTeam
EXTRN	?isOwned@CvPlot@@QBE_NXZ:PROC			; CvPlot::isOwned
EXTRN	?isShallowWater@CvPlot@@QBE_NXZ:PROC		; CvPlot::isShallowWater
; Function compile flags: /Odtp
;	COMDAT ?PopulateCell@CvTacticalAnalysisMap@@IAE_NHPAVCvPlot@@@Z
_TEXT	SEGMENT
_this$ = -120						; size = 4
$T225941 = -116						; size = 4
$T225940 = -112						; size = 4
$T225917 = -108						; size = 4
$T225908 = -104						; size = 4
$T225899 = -100						; size = 4
$T225859 = -96						; size = 4
$T225843 = -92						; size = 4
$T225824 = -88						; size = 4
$T225791 = -84						; size = 4
$T225775 = -80						; size = 4
$T225766 = -76						; size = 4
$T225757 = -68						; size = 4
$T225753 = -64						; size = 4
_playerID$225747 = -60					; size = 4
$T225733 = -56						; size = 4
$T225724 = -52						; size = 1
$T225708 = -51						; size = 1
$T225692 = -50						; size = 1
$T225661 = -49						; size = 1
$T225651 = -48						; size = 4
$T225650 = -44						; size = 4
$T225641 = -37						; size = 1
$T225625 = -36						; size = 4
$T225624 = -32						; size = 4
_eMyTeam$221601 = -28					; size = 4
_ePlotTeam$221602 = -24					; size = 4
_cell$ = -20						; size = 4
_bImpassableTerritory$ = -13				; size = 1
_pLoopUnit$ = -12					; size = 4
_iUnitLoop$ = -8					; size = 4
_bAdd$ = -1						; size = 1
_iIndex$ = 8						; size = 4
_pPlot$ = 12						; size = 4
?PopulateCell@CvTacticalAnalysisMap@@IAE_NHPAVCvPlot@@@Z PROC ; CvTacticalAnalysisMap::PopulateCell, COMDAT
; _this$ = ecx

; 537  : {

	push	ebp
	mov	ebp, esp
	sub	esp, 120				; 00000078H
	mov	DWORD PTR _this$[ebp], ecx

; 538  : 	CvUnit* pLoopUnit;
; 539  : #ifdef AUI_WARNING_FIXES
; 540  : 	uint iUnitLoop;
; 541  : #else
; 542  : 	int iUnitLoop;
; 543  : #endif
; 544  : 	CvTacticalAnalysisCell& cell = m_pPlots[iIndex];

	mov	eax, DWORD PTR _iIndex$[ebp]
	imul	eax, 44					; 0000002cH
	mov	ecx, DWORD PTR _this$[ebp]
	add	eax, DWORD PTR [ecx+12]
	mov	DWORD PTR _cell$[ebp], eax

; 545  : 
; 546  : 	cell.Clear();

	mov	ecx, DWORD PTR _cell$[ebp]
	call	?Clear@CvTacticalAnalysisCell@@QAEXXZ	; CvTacticalAnalysisCell::Clear

; 547  : 
; 548  : 	cell.SetRevealed(pPlot->isRevealed(m_pPlayer->getTeam()));

	mov	edx, DWORD PTR _this$[ebp]
	mov	eax, DWORD PTR [edx+20]
	mov	DWORD PTR $T225624[ebp], eax
	mov	ecx, DWORD PTR $T225624[ebp]
	mov	edx, DWORD PTR [ecx+44]
	push	edx
	call	?teamType@CvPreGame@@YA?AW4TeamTypes@@W4PlayerTypes@@@Z ; CvPreGame::teamType
	add	esp, 4
	mov	DWORD PTR $T225625[ebp], eax
	mov	eax, DWORD PTR $T225625[ebp]
	push	eax
	mov	ecx, DWORD PTR _pPlot$[ebp]
	add	ecx, 8
	call	?GetBit@PlotBoolField@CvPlot@@QBE_NI@Z	; CvPlot::PlotBoolField::GetBit
	mov	BYTE PTR $T225641[ebp], al
	movzx	ecx, BYTE PTR $T225641[ebp]
	test	ecx, ecx
	je	SHORT $LN45@PopulateCe
	mov	edx, DWORD PTR _cell$[ebp]
	mov	eax, DWORD PTR [edx]
	or	eax, 1
	mov	ecx, DWORD PTR _cell$[ebp]
	mov	DWORD PTR [ecx], eax
	jmp	SHORT $LN42@PopulateCe
$LN45@PopulateCe:
	mov	edx, 1
	not	edx
	mov	eax, DWORD PTR _cell$[ebp]
	and	edx, DWORD PTR [eax]
	mov	ecx, DWORD PTR _cell$[ebp]
	mov	DWORD PTR [ecx], edx
$LN42@PopulateCe:

; 549  : 	cell.SetVisible(pPlot->isVisible(m_pPlayer->getTeam()));

	mov	edx, DWORD PTR _this$[ebp]
	mov	eax, DWORD PTR [edx+20]
	mov	DWORD PTR $T225650[ebp], eax
	mov	ecx, DWORD PTR $T225650[ebp]
	mov	edx, DWORD PTR [ecx+44]
	push	edx
	call	?teamType@CvPreGame@@YA?AW4TeamTypes@@W4PlayerTypes@@@Z ; CvPreGame::teamType
	add	esp, 4
	mov	DWORD PTR $T225651[ebp], eax
	cmp	DWORD PTR $T225651[ebp], -1
	jne	SHORT $LN55@PopulateCe
	mov	BYTE PTR $T225661[ebp], 0
	jmp	SHORT $LN53@PopulateCe
$LN55@PopulateCe:
	mov	eax, DWORD PTR _pPlot$[ebp]
	mov	ecx, DWORD PTR [eax+156]
	mov	edx, DWORD PTR $T225651[ebp]
	movsx	eax, WORD PTR [ecx+edx*2]
	xor	ecx, ecx
	test	eax, eax
	setg	cl
	mov	BYTE PTR $T225661[ebp], cl
$LN53@PopulateCe:
	movzx	edx, BYTE PTR $T225661[ebp]
	test	edx, edx
	je	SHORT $LN60@PopulateCe
	mov	eax, DWORD PTR _cell$[ebp]
	mov	ecx, DWORD PTR [eax]
	or	ecx, 2
	mov	edx, DWORD PTR _cell$[ebp]
	mov	DWORD PTR [edx], ecx
	jmp	SHORT $LN63@PopulateCe
$LN60@PopulateCe:
	mov	eax, 2
	not	eax
	mov	ecx, DWORD PTR _cell$[ebp]
	and	eax, DWORD PTR [ecx]
	mov	edx, DWORD PTR _cell$[ebp]
	mov	DWORD PTR [edx], eax

; 550  : 	cell.SetImpassableTerrain(pPlot->isImpassable() || pPlot->isMountain());

$LN63@PopulateCe:
	mov	eax, DWORD PTR _pPlot$[ebp]
	mov	cl, BYTE PTR [eax+462]
	shr	cl, 7
	and	cl, 1
	movzx	edx, cl
	test	edx, edx
	jne	SHORT $LN32@PopulateCe
	mov	eax, DWORD PTR _pPlot$[ebp]
	movsx	ecx, BYTE PTR [eax+5]
	neg	ecx
	sbb	ecx, ecx
	add	ecx, 1
	movzx	edx, cl
	test	edx, edx
	jne	SHORT $LN32@PopulateCe
	mov	BYTE PTR $T225692[ebp], 0
	jmp	SHORT $LN33@PopulateCe
$LN32@PopulateCe:
	mov	BYTE PTR $T225692[ebp], 1
$LN33@PopulateCe:
	movzx	eax, BYTE PTR $T225692[ebp]
	test	eax, eax
	je	SHORT $LN70@PopulateCe
	mov	ecx, DWORD PTR _cell$[ebp]
	mov	edx, DWORD PTR [ecx]
	or	edx, 4
	mov	eax, DWORD PTR _cell$[ebp]
	mov	DWORD PTR [eax], edx
	jmp	SHORT $LN73@PopulateCe
$LN70@PopulateCe:
	mov	ecx, 4
	not	ecx
	mov	edx, DWORD PTR _cell$[ebp]
	and	ecx, DWORD PTR [edx]
	mov	eax, DWORD PTR _cell$[ebp]
	mov	DWORD PTR [eax], ecx

; 551  : 	cell.SetWater(pPlot->isWater());

$LN73@PopulateCe:
	mov	ecx, DWORD PTR _pPlot$[ebp]
	movsx	edx, BYTE PTR [ecx+5]
	xor	eax, eax
	cmp	edx, 3
	sete	al
	mov	BYTE PTR $T225708[ebp], al
	movzx	ecx, BYTE PTR $T225708[ebp]
	test	ecx, ecx
	je	SHORT $LN78@PopulateCe
	mov	edx, DWORD PTR _cell$[ebp]
	mov	eax, DWORD PTR [edx]
	or	eax, 2048				; 00000800H
	mov	ecx, DWORD PTR _cell$[ebp]
	mov	DWORD PTR [ecx], eax
	jmp	SHORT $LN81@PopulateCe
$LN78@PopulateCe:
	mov	edx, 2048				; 00000800H
	not	edx
	mov	eax, DWORD PTR _cell$[ebp]
	and	edx, DWORD PTR [eax]
	mov	ecx, DWORD PTR _cell$[ebp]
	mov	DWORD PTR [ecx], edx

; 552  : 	cell.SetOcean(pPlot->isWater() && !pPlot->isShallowWater());

$LN81@PopulateCe:
	mov	edx, DWORD PTR _pPlot$[ebp]
	movsx	eax, BYTE PTR [edx+5]
	xor	ecx, ecx
	cmp	eax, 3
	sete	cl
	movzx	edx, cl
	test	edx, edx
	je	SHORT $LN34@PopulateCe
	mov	ecx, DWORD PTR _pPlot$[ebp]
	call	?isShallowWater@CvPlot@@QBE_NXZ		; CvPlot::isShallowWater
	movzx	eax, al
	test	eax, eax
	jne	SHORT $LN34@PopulateCe
	mov	BYTE PTR $T225724[ebp], 1
	jmp	SHORT $LN35@PopulateCe
$LN34@PopulateCe:
	mov	BYTE PTR $T225724[ebp], 0
$LN35@PopulateCe:
	movzx	ecx, BYTE PTR $T225724[ebp]
	test	ecx, ecx
	je	SHORT $LN86@PopulateCe
	mov	edx, DWORD PTR _cell$[ebp]
	mov	eax, DWORD PTR [edx]
	or	eax, 4096				; 00001000H
	mov	ecx, DWORD PTR _cell$[ebp]
	mov	DWORD PTR [ecx], eax
	jmp	SHORT $LN83@PopulateCe
$LN86@PopulateCe:
	mov	edx, 4096				; 00001000H
	not	edx
	mov	eax, DWORD PTR _cell$[ebp]
	and	edx, DWORD PTR [eax]
	mov	ecx, DWORD PTR _cell$[ebp]
	mov	DWORD PTR [ecx], edx
$LN83@PopulateCe:

; 553  : 
; 554  : 	bool bImpassableTerritory = false;

	mov	BYTE PTR _bImpassableTerritory$[ebp], 0

; 555  : 	if(pPlot->isOwned())

	mov	ecx, DWORD PTR _pPlot$[ebp]
	call	?isOwned@CvPlot@@QBE_NXZ		; CvPlot::isOwned
	movzx	edx, al
	test	edx, edx
	je	$LN29@PopulateCe

; 556  : 	{
; 557  : 		TeamTypes eMyTeam = m_pPlayer->getTeam();

	mov	eax, DWORD PTR _this$[ebp]
	mov	ecx, DWORD PTR [eax+20]
	mov	DWORD PTR $T225733[ebp], ecx
	mov	edx, DWORD PTR $T225733[ebp]
	mov	eax, DWORD PTR [edx+44]
	push	eax
	call	?teamType@CvPreGame@@YA?AW4TeamTypes@@W4PlayerTypes@@@Z ; CvPreGame::teamType
	add	esp, 4
	mov	DWORD PTR _eMyTeam$221601[ebp], eax

; 558  : 		TeamTypes ePlotTeam = pPlot->getTeam();

	mov	ecx, DWORD PTR _pPlot$[ebp]
	movsx	edx, BYTE PTR [ecx+4]
	mov	DWORD PTR _playerID$225747[ebp], edx
	cmp	DWORD PTR _playerID$225747[ebp], -1
	je	SHORT $LN94@PopulateCe
	mov	eax, DWORD PTR _playerID$225747[ebp]
	push	eax
	call	?teamType@CvPreGame@@YA?AW4TeamTypes@@W4PlayerTypes@@@Z ; CvPreGame::teamType
	add	esp, 4
	mov	DWORD PTR _ePlotTeam$221602[ebp], eax
	jmp	SHORT $LN95@PopulateCe
	jmp	SHORT $LN95@PopulateCe
$LN94@PopulateCe:
	mov	DWORD PTR _ePlotTeam$221602[ebp], -1
$LN95@PopulateCe:

; 559  : 
; 560  : 		if(eMyTeam != ePlotTeam && !GET_TEAM(eMyTeam).isAtWar(ePlotTeam) && !GET_TEAM(ePlotTeam).IsAllowsOpenBordersToTeam(eMyTeam))

	mov	ecx, DWORD PTR _eMyTeam$221601[ebp]
	cmp	ecx, DWORD PTR _ePlotTeam$221602[ebp]
	je	SHORT $LN28@PopulateCe
	mov	edx, DWORD PTR _eMyTeam$221601[ebp]
	imul	edx, 2984				; 00000ba8H
	add	edx, DWORD PTR ?m_aTeams@CvTeam@@1PAV1@A ; CvTeam::m_aTeams
	mov	DWORD PTR $T225753[ebp], edx
	mov	eax, DWORD PTR _ePlotTeam$221602[ebp]
	push	eax
	mov	ecx, DWORD PTR $T225753[ebp]
	call	?isAtWar@CvTeam@@QBE_NW4TeamTypes@@@Z	; CvTeam::isAtWar
	movzx	ecx, al
	test	ecx, ecx
	jne	SHORT $LN28@PopulateCe
	mov	edx, DWORD PTR _ePlotTeam$221602[ebp]
	imul	edx, 2984				; 00000ba8H
	add	edx, DWORD PTR ?m_aTeams@CvTeam@@1PAV1@A ; CvTeam::m_aTeams
	mov	DWORD PTR $T225757[ebp], edx
	mov	eax, DWORD PTR _eMyTeam$221601[ebp]
	push	eax
	mov	ecx, DWORD PTR $T225757[ebp]
	call	?IsAllowsOpenBordersToTeam@CvTeam@@QBE_NW4TeamTypes@@@Z ; CvTeam::IsAllowsOpenBordersToTeam
	movzx	ecx, al
	test	ecx, ecx
	jne	SHORT $LN28@PopulateCe

; 561  : 		{
; 562  : 			bImpassableTerritory = true;

	mov	BYTE PTR _bImpassableTerritory$[ebp], 1
	jmp	$LN138@PopulateCe
$LN28@PopulateCe:

; 563  : 		}
; 564  : 		else if(pPlot->isCity())

	mov	ecx, DWORD PTR _pPlot$[ebp]
	call	?isCity@CvPlot@@QBE_NXZ			; CvPlot::isCity
	movzx	edx, al
	test	edx, edx
	je	$LN138@PopulateCe

; 565  : 		{
; 566  : 			if(pPlot->getOwner() == m_pPlayer->GetID())

	mov	eax, DWORD PTR _pPlot$[ebp]
	movsx	ecx, BYTE PTR [eax+4]
	mov	DWORD PTR $T225766[ebp], ecx
	mov	edx, DWORD PTR _this$[ebp]
	mov	eax, DWORD PTR [edx+20]
	mov	ecx, DWORD PTR [eax+44]
	mov	DWORD PTR $T225775[ebp], ecx
	mov	edx, DWORD PTR $T225766[ebp]
	cmp	edx, DWORD PTR $T225775[ebp]
	jne	SHORT $LN25@PopulateCe

; 567  : 			{
; 568  : 				cell.SetFriendlyCity(true);

	mov	eax, 1
	test	eax, eax
	je	SHORT $LN119@PopulateCe
	mov	ecx, DWORD PTR _cell$[ebp]
	mov	edx, DWORD PTR [ecx]
	or	edx, 256				; 00000100H
	mov	eax, DWORD PTR _cell$[ebp]
	mov	DWORD PTR [eax], edx
	jmp	SHORT $LN116@PopulateCe
$LN119@PopulateCe:
	mov	ecx, 256				; 00000100H
	not	ecx
	mov	edx, DWORD PTR _cell$[ebp]
	and	ecx, DWORD PTR [edx]
	mov	eax, DWORD PTR _cell$[ebp]
	mov	DWORD PTR [eax], ecx
$LN116@PopulateCe:

; 569  : 			}
; 570  : 			else if(GET_TEAM(eMyTeam).isAtWar(ePlotTeam))

	jmp	SHORT $LN138@PopulateCe
$LN25@PopulateCe:
	mov	ecx, DWORD PTR _eMyTeam$221601[ebp]
	imul	ecx, 2984				; 00000ba8H
	add	ecx, DWORD PTR ?m_aTeams@CvTeam@@1PAV1@A ; CvTeam::m_aTeams
	mov	DWORD PTR $T225791[ebp], ecx
	mov	edx, DWORD PTR _ePlotTeam$221602[ebp]
	push	edx
	mov	ecx, DWORD PTR $T225791[ebp]
	call	?isAtWar@CvTeam@@QBE_NW4TeamTypes@@@Z	; CvTeam::isAtWar
	movzx	eax, al
	test	eax, eax
	je	SHORT $LN23@PopulateCe

; 571  : 			{
; 572  : 				cell.SetEnemyCity(true);

	mov	ecx, 1
	test	ecx, ecx
	je	SHORT $LN127@PopulateCe
	mov	edx, DWORD PTR _cell$[ebp]
	mov	eax, DWORD PTR [edx]
	or	eax, 512				; 00000200H
	mov	ecx, DWORD PTR _cell$[ebp]
	mov	DWORD PTR [ecx], eax
	jmp	SHORT $LN124@PopulateCe
$LN127@PopulateCe:
	mov	edx, 512				; 00000200H
	not	edx
	mov	eax, DWORD PTR _cell$[ebp]
	and	edx, DWORD PTR [eax]
	mov	ecx, DWORD PTR _cell$[ebp]
	mov	DWORD PTR [ecx], edx
$LN124@PopulateCe:

; 573  : 			}
; 574  : 			else

	jmp	SHORT $LN138@PopulateCe
$LN23@PopulateCe:

; 575  : 			{
; 576  : 				cell.SetNeutralCity(true);

	mov	edx, 1
	test	edx, edx
	je	SHORT $LN133@PopulateCe
	mov	eax, DWORD PTR _cell$[ebp]
	mov	ecx, DWORD PTR [eax]
	or	ecx, 1024				; 00000400H
	mov	edx, DWORD PTR _cell$[ebp]
	mov	DWORD PTR [edx], ecx
	jmp	SHORT $LN138@PopulateCe
$LN133@PopulateCe:
	mov	eax, 1024				; 00000400H
	not	eax
	mov	ecx, DWORD PTR _cell$[ebp]
	and	eax, DWORD PTR [ecx]
	mov	edx, DWORD PTR _cell$[ebp]
	mov	DWORD PTR [edx], eax

; 577  : 			}
; 578  : 		}
; 579  : 
; 580  : 		if(m_pPlayer->GetID() == pPlot->getOwner())

$LN138@PopulateCe:
	mov	eax, DWORD PTR _this$[ebp]
	mov	ecx, DWORD PTR [eax+20]
	mov	edx, DWORD PTR [ecx+44]
	mov	DWORD PTR $T225824[ebp], edx
	mov	eax, DWORD PTR _pPlot$[ebp]
	movsx	ecx, BYTE PTR [eax+4]
	cmp	DWORD PTR $T225824[ebp], ecx
	jne	SHORT $LN21@PopulateCe

; 581  : 		{
; 582  : 			cell.SetOwnTerritory(true);

	mov	edx, 1
	test	edx, edx
	je	SHORT $LN145@PopulateCe
	mov	eax, DWORD PTR _cell$[ebp]
	mov	ecx, DWORD PTR [eax]
	or	ecx, 8192				; 00002000H
	mov	edx, DWORD PTR _cell$[ebp]
	mov	DWORD PTR [edx], ecx
	jmp	SHORT $LN21@PopulateCe
$LN145@PopulateCe:
	mov	eax, 8192				; 00002000H
	not	eax
	mov	ecx, DWORD PTR _cell$[ebp]
	and	eax, DWORD PTR [ecx]
	mov	edx, DWORD PTR _cell$[ebp]
	mov	DWORD PTR [edx], eax
$LN21@PopulateCe:

; 583  : 		}
; 584  : 
; 585  : 		if(GET_TEAM(eMyTeam).isFriendlyTerritory(ePlotTeam))

	mov	eax, DWORD PTR _eMyTeam$221601[ebp]
	imul	eax, 2984				; 00000ba8H
	add	eax, DWORD PTR ?m_aTeams@CvTeam@@1PAV1@A ; CvTeam::m_aTeams
	mov	DWORD PTR $T225843[ebp], eax
	mov	ecx, DWORD PTR _ePlotTeam$221602[ebp]
	push	ecx
	mov	ecx, DWORD PTR $T225843[ebp]
	call	?isFriendlyTerritory@CvTeam@@QBE_NW4TeamTypes@@@Z ; CvTeam::isFriendlyTerritory
	movzx	edx, al
	test	edx, edx
	je	SHORT $LN20@PopulateCe

; 586  : 		{
; 587  : 			cell.SetFriendlyTerritory(true);

	mov	eax, 1
	test	eax, eax
	je	SHORT $LN153@PopulateCe
	mov	ecx, DWORD PTR _cell$[ebp]
	mov	edx, DWORD PTR [ecx]
	or	edx, 16384				; 00004000H
	mov	eax, DWORD PTR _cell$[ebp]
	mov	DWORD PTR [eax], edx
	jmp	SHORT $LN20@PopulateCe
$LN153@PopulateCe:
	mov	ecx, 16384				; 00004000H
	not	ecx
	mov	edx, DWORD PTR _cell$[ebp]
	and	ecx, DWORD PTR [edx]
	mov	eax, DWORD PTR _cell$[ebp]
	mov	DWORD PTR [eax], ecx
$LN20@PopulateCe:

; 588  : 		}
; 589  : 
; 590  : 		if(GET_TEAM(ePlotTeam).isAtWar(ePlotTeam))

	mov	ecx, DWORD PTR _ePlotTeam$221602[ebp]
	imul	ecx, 2984				; 00000ba8H
	add	ecx, DWORD PTR ?m_aTeams@CvTeam@@1PAV1@A ; CvTeam::m_aTeams
	mov	DWORD PTR $T225859[ebp], ecx
	mov	edx, DWORD PTR _ePlotTeam$221602[ebp]
	push	edx
	mov	ecx, DWORD PTR $T225859[ebp]
	call	?isAtWar@CvTeam@@QBE_NW4TeamTypes@@@Z	; CvTeam::isAtWar
	movzx	eax, al
	test	eax, eax
	je	SHORT $LN19@PopulateCe

; 591  : 		{
; 592  : 			cell.SetEnemyTerritory(true);

	mov	ecx, 1
	test	ecx, ecx
	je	SHORT $LN161@PopulateCe
	mov	edx, DWORD PTR _cell$[ebp]
	mov	eax, DWORD PTR [edx]
	or	eax, 32768				; 00008000H
	mov	ecx, DWORD PTR _cell$[ebp]
	mov	DWORD PTR [ecx], eax
	jmp	SHORT $LN19@PopulateCe
$LN161@PopulateCe:
	mov	edx, 32768				; 00008000H
	not	edx
	mov	eax, DWORD PTR _cell$[ebp]
	and	edx, DWORD PTR [eax]
	mov	ecx, DWORD PTR _cell$[ebp]
	mov	DWORD PTR [ecx], edx
$LN19@PopulateCe:

; 593  : 		}
; 594  : 	}
; 595  : 	else

	jmp	SHORT $LN18@PopulateCe
$LN29@PopulateCe:

; 596  : 	{
; 597  : 		cell.SetUnclaimedTerritory(true);

	mov	edx, 1
	test	edx, edx
	je	SHORT $LN167@PopulateCe
	mov	eax, DWORD PTR _cell$[ebp]
	mov	ecx, DWORD PTR [eax]
	or	ecx, 65536				; 00010000H
	mov	edx, DWORD PTR _cell$[ebp]
	mov	DWORD PTR [edx], ecx
	jmp	SHORT $LN18@PopulateCe
$LN167@PopulateCe:
	mov	eax, 65536				; 00010000H
	not	eax
	mov	ecx, DWORD PTR _cell$[ebp]
	and	eax, DWORD PTR [ecx]
	mov	edx, DWORD PTR _cell$[ebp]
	mov	DWORD PTR [edx], eax
$LN18@PopulateCe:

; 598  : 	}
; 599  : 
; 600  : 	cell.SetImpassableTerritory(bImpassableTerritory);

	movzx	eax, BYTE PTR _bImpassableTerritory$[ebp]
	test	eax, eax
	je	SHORT $LN173@PopulateCe
	mov	ecx, DWORD PTR _cell$[ebp]
	mov	edx, DWORD PTR [ecx]
	or	edx, 8
	mov	eax, DWORD PTR _cell$[ebp]
	mov	DWORD PTR [eax], edx
	jmp	SHORT $LN170@PopulateCe
$LN173@PopulateCe:
	mov	ecx, 8
	not	ecx
	mov	edx, DWORD PTR _cell$[ebp]
	and	ecx, DWORD PTR [edx]
	mov	eax, DWORD PTR _cell$[ebp]
	mov	DWORD PTR [eax], ecx
$LN170@PopulateCe:

; 601  : 	cell.SetDefenseModifier(pPlot->defenseModifier(NO_TEAM, true));

	push	0
	push	1
	push	-1
	mov	ecx, DWORD PTR _pPlot$[ebp]
	call	?defenseModifier@CvPlot@@QBEHW4TeamTypes@@_N1@Z ; CvPlot::defenseModifier
	mov	DWORD PTR $T225899[ebp], eax
	mov	ecx, DWORD PTR _cell$[ebp]
	mov	edx, DWORD PTR $T225899[ebp]
	mov	DWORD PTR [ecx+28], edx

; 602  : 
; 603  : 	if(pPlot->getNumUnits() > 0)

	mov	ecx, DWORD PTR _pPlot$[ebp]
	call	?getNumUnits@CvPlot@@QBEHXZ		; CvPlot::getNumUnits
	test	eax, eax
	jle	$LN17@PopulateCe

; 604  : 	{
; 605  : 		for(iUnitLoop = 0; iUnitLoop < pPlot->getNumUnits(); iUnitLoop++)

	mov	DWORD PTR _iUnitLoop$[ebp], 0
	jmp	SHORT $LN16@PopulateCe
$LN15@PopulateCe:
	mov	eax, DWORD PTR _iUnitLoop$[ebp]
	add	eax, 1
	mov	DWORD PTR _iUnitLoop$[ebp], eax
$LN16@PopulateCe:
	mov	ecx, DWORD PTR _pPlot$[ebp]
	call	?getNumUnits@CvPlot@@QBEHXZ		; CvPlot::getNumUnits
	cmp	DWORD PTR _iUnitLoop$[ebp], eax
	jge	$LN17@PopulateCe

; 606  : 		{
; 607  : 			pLoopUnit = pPlot->getUnitByIndex(iUnitLoop);

	mov	ecx, DWORD PTR _iUnitLoop$[ebp]
	push	ecx
	mov	ecx, DWORD PTR _pPlot$[ebp]
	call	?getUnitByIndex@CvPlot@@QBEPAVCvUnit@@H@Z ; CvPlot::getUnitByIndex
	mov	DWORD PTR _pLoopUnit$[ebp], eax

; 608  : 			if(!pLoopUnit) continue;

	cmp	DWORD PTR _pLoopUnit$[ebp], 0
	jne	SHORT $LN180@PopulateCe
	jmp	SHORT $LN15@PopulateCe

; 609  : 			if(pLoopUnit->getOwner() == m_pPlayer->GetID())

$LN180@PopulateCe:
	mov	edx, DWORD PTR _pLoopUnit$[ebp]
	mov	eax, DWORD PTR [edx+40]
	mov	DWORD PTR $T225908[ebp], eax
	mov	ecx, DWORD PTR _this$[ebp]
	mov	edx, DWORD PTR [ecx+20]
	mov	eax, DWORD PTR [edx+44]
	mov	DWORD PTR $T225917[ebp], eax
	mov	ecx, DWORD PTR $T225908[ebp]
	cmp	ecx, DWORD PTR $T225917[ebp]
	jne	SHORT $LN12@PopulateCe

; 610  : 			{
; 611  : 				if(pLoopUnit->IsCombatUnit())

	mov	edx, DWORD PTR _pLoopUnit$[ebp]
	xor	eax, eax
	cmp	DWORD PTR [edx+1044], 0
	setg	al
	movzx	ecx, al
	test	ecx, ecx
	je	SHORT $LN11@PopulateCe

; 612  : 				{
; 613  : 					// CvAssertMsg(!cell.GetFriendlyMilitaryUnit(), "Two friendly military units in a hex, please show Ed and send save.");
; 614  : 					cell.SetFriendlyMilitaryUnit(pLoopUnit);

	mov	edx, DWORD PTR _cell$[ebp]
	mov	eax, DWORD PTR _pLoopUnit$[ebp]
	mov	DWORD PTR [edx+20], eax

; 615  : 				}
; 616  : 				else

	jmp	SHORT $LN10@PopulateCe
$LN11@PopulateCe:

; 617  : 				{
; 618  : 					// CvAssertMsg(!cell.GetFriendlyCivilianUnit(), "Two friendly civilian units in a hex, please show Ed and send save.");
; 619  : 					cell.SetFriendlyCivilianUnit(pLoopUnit);

	mov	ecx, DWORD PTR _cell$[ebp]
	mov	edx, DWORD PTR _pLoopUnit$[ebp]
	mov	DWORD PTR [ecx+24], edx
$LN10@PopulateCe:

; 620  : 				}

	jmp	$LN9@PopulateCe
$LN12@PopulateCe:

; 621  : 			}
; 622  : 			else if(pLoopUnit->isEnemy(m_pPlayer->getTeam()))

	mov	eax, DWORD PTR _this$[ebp]
	mov	ecx, DWORD PTR [eax+20]
	mov	DWORD PTR $T225940[ebp], ecx
	mov	edx, DWORD PTR $T225940[ebp]
	mov	eax, DWORD PTR [edx+44]
	push	eax
	call	?teamType@CvPreGame@@YA?AW4TeamTypes@@W4PlayerTypes@@@Z ; CvPreGame::teamType
	add	esp, 4
	mov	DWORD PTR $T225941[ebp], eax
	push	0
	mov	ecx, DWORD PTR $T225941[ebp]
	push	ecx
	mov	ecx, DWORD PTR _pLoopUnit$[ebp]
	call	?isEnemy@CvUnit@@QBE_NW4TeamTypes@@PBVCvPlot@@@Z ; CvUnit::isEnemy
	movzx	edx, al
	test	edx, edx
	je	SHORT $LN206@PopulateCe

; 623  : 			{
; 624  : 				if(pLoopUnit->IsCombatUnit())

	mov	eax, DWORD PTR _pLoopUnit$[ebp]
	xor	ecx, ecx
	cmp	DWORD PTR [eax+1044], 0
	setg	cl
	movzx	edx, cl
	test	edx, edx
	je	SHORT $LN7@PopulateCe

; 625  : 				{
; 626  : 					// CvAssertMsg(!cell.GetEnemyMilitaryUnit(), "Two enemy military units in a hex, please show Ed and send save.");
; 627  : 					cell.SetEnemyMilitaryUnit(pLoopUnit);

	mov	eax, DWORD PTR _cell$[ebp]
	mov	ecx, DWORD PTR _pLoopUnit$[ebp]
	mov	DWORD PTR [eax+4], ecx

; 628  : 				}
; 629  : 				else

	jmp	SHORT $LN6@PopulateCe
$LN7@PopulateCe:

; 630  : 				{
; 631  : 					// CvAssertMsg(!cell.GetEnemyCivilianUnit(), "Two enemy civilian units in a hex, please show Ed and send save.");
; 632  : 					cell.SetEnemyCivilianUnit(pLoopUnit);

	mov	edx, DWORD PTR _cell$[ebp]
	mov	eax, DWORD PTR _pLoopUnit$[ebp]
	mov	DWORD PTR [edx+8], eax
$LN6@PopulateCe:

; 633  : 				}
; 634  : 			}
; 635  : 			else

	jmp	SHORT $LN9@PopulateCe

; 636  : 			{
; 637  : 				if(pLoopUnit->IsCombatUnit())

$LN206@PopulateCe:
	mov	ecx, DWORD PTR _pLoopUnit$[ebp]
	xor	edx, edx
	cmp	DWORD PTR [ecx+1044], 0
	setg	dl
	movzx	eax, dl
	test	eax, eax
	je	SHORT $LN4@PopulateCe

; 638  : 				{
; 639  : 					// CvAssertMsg(!cell.GetNeutralMilitaryUnit(), "Two neutral military units in a hex, please show Ed and send save.");
; 640  : 					cell.SetNeutralMilitaryUnit(pLoopUnit);

	mov	ecx, DWORD PTR _cell$[ebp]
	mov	edx, DWORD PTR _pLoopUnit$[ebp]
	mov	DWORD PTR [ecx+12], edx

; 641  : 				}
; 642  : 				else

	jmp	SHORT $LN9@PopulateCe
$LN4@PopulateCe:

; 643  : 				{
; 644  : 					// CvAssertMsg(!cell.GetNeutralCivilianUnit(), "Two neutral civilian units in a hex, please show Ed and send save.");
; 645  : 					cell.SetNeutralCivilianUnit(pLoopUnit);

	mov	eax, DWORD PTR _cell$[ebp]
	mov	ecx, DWORD PTR _pLoopUnit$[ebp]
	mov	DWORD PTR [eax+16], ecx
$LN9@PopulateCe:

; 646  : 				}
; 647  : 			}
; 648  : 		}

	jmp	$LN15@PopulateCe
$LN17@PopulateCe:

; 649  : 	}
; 650  : 
; 651  : 	// Figure out whether or not to add this to a dominance zone
; 652  : 	bool bAdd = true;

	mov	BYTE PTR _bAdd$[ebp], 1

; 653  : 	if(cell.IsImpassableTerrain() || cell.IsImpassableTerritory() || !cell.IsRevealed())

	mov	edx, DWORD PTR _cell$[ebp]
	mov	eax, DWORD PTR [edx]
	and	eax, 4
	neg	eax
	sbb	eax, eax
	neg	eax
	movzx	ecx, al
	test	ecx, ecx
	jne	SHORT $LN1@PopulateCe
	mov	edx, DWORD PTR _cell$[ebp]
	mov	eax, DWORD PTR [edx]
	and	eax, 8
	neg	eax
	sbb	eax, eax
	neg	eax
	movzx	ecx, al
	test	ecx, ecx
	jne	SHORT $LN1@PopulateCe
	mov	edx, DWORD PTR _cell$[ebp]
	mov	eax, DWORD PTR [edx]
	and	eax, 1
	neg	eax
	sbb	eax, eax
	neg	eax
	movzx	ecx, al
	test	ecx, ecx
	jne	SHORT $LN2@PopulateCe
$LN1@PopulateCe:

; 654  : 	{
; 655  : 		bAdd = false;

	mov	BYTE PTR _bAdd$[ebp], 0
$LN2@PopulateCe:

; 656  : 	}
; 657  : 	return bAdd;

	mov	al, BYTE PTR _bAdd$[ebp]

; 658  : }

	mov	esp, ebp
	pop	ebp
	ret	8
?PopulateCell@CvTacticalAnalysisMap@@IAE_NHPAVCvPlot@@@Z ENDP ; CvTacticalAnalysisMap::PopulateCell
_TEXT	ENDS
PUBLIC	?FindExistingZone@CvTacticalAnalysisMap@@IAEPAVCvTacticalDominanceZone@@PAVCvPlot@@@Z ; CvTacticalAnalysisMap::FindExistingZone
EXTRN	?isRanged@CvUnit@@QBE_NXZ:PROC			; CvUnit::isRanged
EXTRN	?IsRangeAttackIgnoreLOS@CvUnit@@QBE_NXZ:PROC	; CvUnit::IsRangeAttackIgnoreLOS
EXTRN	?GetRange@CvUnit@@QBEHXZ:PROC			; CvUnit::GetRange
EXTRN	?GetMaxRangedCombatStrength@CvUnit@@QBEHPBV1@PBVCvCity@@_N2@Z:PROC ; CvUnit::GetMaxRangedCombatStrength
EXTRN	?GetBaseCombatStrength@CvUnit@@QBEH_N@Z:PROC	; CvUnit::GetBaseCombatStrength
EXTRN	?GetBaseCombatStrengthConsideringDamage@CvUnit@@QBEHXZ:PROC ; CvUnit::GetBaseCombatStrengthConsideringDamage
EXTRN	?getDomainType@CvUnit@@QBE?AW4DomainTypes@@XZ:PROC ; CvUnit::getDomainType
EXTRN	?nextCity@CvPlayer@@QAEPAVCvCity@@PAH_N@Z:PROC	; CvPlayer::nextCity
EXTRN	?firstCity@CvPlayer@@QAEPAVCvCity@@PAH_N@Z:PROC	; CvPlayer::firstCity
; Function compile flags: /Odtp
;	COMDAT ?AddToDominanceZones@CvTacticalAnalysisMap@@IAEXHPAVCvTacticalAnalysisCell@@@Z
_TEXT	SEGMENT
tv389 = -248						; size = 4
_this$ = -244						; size = 4
$T226316 = -240						; size = 4
$T226303 = -236						; size = 4
$T226299 = -232						; size = 4
$T226295 = -228						; size = 1
$T226291 = -227						; size = 1
$T226282 = -226						; size = 1
$T226278 = -225						; size = 1
$T226262 = -224						; size = 4
$T226258 = -220						; size = 4
$T226254 = -216						; size = 4
$T226250 = -212						; size = 4
$T226246 = -208						; size = 1
$T226242 = -207						; size = 1
$T226233 = -206						; size = 1
$T226229 = -205						; size = 1
$T226222 = -204						; size = 4
$T226218 = -200						; size = 4
$T226211 = -196						; size = 4
$T226197 = -188						; size = 4
$T226156 = -140						; size = 4
$T226147 = -136						; size = 4
$T226138 = -132						; size = 4
$T226134 = -128						; size = 4
$T226130 = -124						; size = 4
$T226126 = -120						; size = 4
$T226122 = -116						; size = 4
$T226118 = -112						; size = 4
$T226114 = -108						; size = 4
$T226110 = -104						; size = 4
$T226106 = -100						; size = 4
$T226096 = -96						; size = 4
$T226092 = -92						; size = 4
$T226091 = -88						; size = 4
$T226082 = -84						; size = 4
_playerID$226074 = -80					; size = 4
$T226062 = -76						; size = 4
$T226053 = -72						; size = 4
_playerID$226045 = -68					; size = 4
$T226033 = -61						; size = 1
$T226026 = -60						; size = 4
$T226016 = -56						; size = 4
$T226006 = -52						; size = 4
$T225999 = -48						; size = 4
_iStrength$221675 = -44					; size = 4
_iStrength$221665 = -40					; size = 4
_pFriendlyUnit$221660 = -36				; size = 4
_pEnemyUnit$221670 = -32				; size = 4
_iDistance$221653 = -28					; size = 4
_pLoopCity$221649 = -24					; size = 4
_iBestDistance$221647 = -20				; size = 4
_pBestCity$221648 = -16					; size = 4
_iLoop$221646 = -12					; size = 4
_pZone$ = -8						; size = 4
_pPlot$ = -4						; size = 4
_iIndex$ = 8						; size = 4
_pCell$ = 12						; size = 4
?AddToDominanceZones@CvTacticalAnalysisMap@@IAEXHPAVCvTacticalAnalysisCell@@@Z PROC ; CvTacticalAnalysisMap::AddToDominanceZones, COMDAT
; _this$ = ecx

; 662  : {

	push	ebp
	mov	ebp, esp
	sub	esp, 248				; 000000f8H
	mov	DWORD PTR _this$[ebp], ecx

; 663  : 	CvPlot* pPlot = GC.getMap().plotByIndex(iIndex);

	mov	eax, DWORD PTR ?gGlobals@@3VCvGlobals@@A+52
	mov	DWORD PTR $T225999[ebp], eax
	cmp	DWORD PTR _iIndex$[ebp], 0
	jl	SHORT $LN38@AddToDomin
	mov	ecx, DWORD PTR $T225999[ebp]
	mov	edx, DWORD PTR [ecx+4028]
	mov	DWORD PTR $T226006[ebp], edx
	mov	eax, DWORD PTR _iIndex$[ebp]
	cmp	eax, DWORD PTR $T226006[ebp]
	jge	SHORT $LN38@AddToDomin
	mov	ecx, DWORD PTR _iIndex$[ebp]
	imul	ecx, 484				; 000001e4H
	mov	edx, DWORD PTR $T225999[ebp]
	add	ecx, DWORD PTR [edx+4068]
	mov	DWORD PTR tv389[ebp], ecx
	jmp	SHORT $LN36@AddToDomin
$LN38@AddToDomin:
	mov	DWORD PTR tv389[ebp], 0
$LN36@AddToDomin:
	mov	eax, DWORD PTR tv389[ebp]
	mov	DWORD PTR _pPlot$[ebp], eax

; 664  : 
; 665  : 	// Compute zone data for this cell
; 666  : 	m_TempZone.SetAreaID(pPlot->getArea());

	mov	ecx, DWORD PTR _pPlot$[ebp]
	mov	edx, DWORD PTR [ecx+356]
	mov	DWORD PTR $T226016[ebp], edx
	mov	eax, DWORD PTR _this$[ebp]
	mov	ecx, DWORD PTR $T226016[ebp]
	mov	DWORD PTR [eax+56], ecx

; 667  : 	m_TempZone.SetOwner(pPlot->getOwner());

	mov	edx, DWORD PTR _pPlot$[ebp]
	movsx	eax, BYTE PTR [edx+4]
	mov	DWORD PTR $T226026[ebp], eax
	mov	ecx, DWORD PTR _this$[ebp]
	mov	edx, DWORD PTR $T226026[ebp]
	mov	DWORD PTR [ecx+48], edx

; 668  : 	m_TempZone.SetWater(pPlot->isWater());

	mov	eax, DWORD PTR _pPlot$[ebp]
	movsx	ecx, BYTE PTR [eax+5]
	xor	edx, edx
	cmp	ecx, 3
	sete	dl
	mov	BYTE PTR $T226033[ebp], dl
	mov	eax, DWORD PTR _this$[ebp]
	mov	cl, BYTE PTR $T226033[ebp]
	mov	BYTE PTR [eax+104], cl

; 669  : 	if(!pPlot->isOwned())

	mov	ecx, DWORD PTR _pPlot$[ebp]
	call	?isOwned@CvPlot@@QBE_NXZ		; CvPlot::isOwned
	movzx	edx, al
	test	edx, edx
	jne	SHORT $LN60@AddToDomin

; 670  : 	{
; 671  : 		m_TempZone.SetTerritoryType(TACTICAL_TERRITORY_NO_OWNER);

	mov	eax, DWORD PTR _this$[ebp]
	mov	DWORD PTR [eax+40], 1

; 672  : 	}
; 673  : 	else if(pPlot->getTeam() == m_pPlayer->getTeam())

	jmp	$LN30@AddToDomin
$LN60@AddToDomin:
	mov	ecx, DWORD PTR _pPlot$[ebp]
	movsx	edx, BYTE PTR [ecx+4]
	mov	DWORD PTR _playerID$226045[ebp], edx
	cmp	DWORD PTR _playerID$226045[ebp], -1
	je	SHORT $LN57@AddToDomin
	mov	eax, DWORD PTR _playerID$226045[ebp]
	push	eax
	call	?teamType@CvPreGame@@YA?AW4TeamTypes@@W4PlayerTypes@@@Z ; CvPreGame::teamType
	add	esp, 4
	mov	DWORD PTR $T226053[ebp], eax
	jmp	SHORT $LN58@AddToDomin
	jmp	SHORT $LN58@AddToDomin
$LN57@AddToDomin:
	mov	DWORD PTR $T226053[ebp], -1
$LN58@AddToDomin:
	mov	ecx, DWORD PTR _this$[ebp]
	mov	edx, DWORD PTR [ecx+20]
	mov	DWORD PTR $T226062[ebp], edx
	mov	eax, DWORD PTR $T226062[ebp]
	mov	ecx, DWORD PTR [eax+44]
	push	ecx
	call	?teamType@CvPreGame@@YA?AW4TeamTypes@@W4PlayerTypes@@@Z ; CvPreGame::teamType
	add	esp, 4
	cmp	DWORD PTR $T226053[ebp], eax
	jne	SHORT $LN74@AddToDomin

; 674  : 	{
; 675  : 		m_TempZone.SetTerritoryType(TACTICAL_TERRITORY_FRIENDLY);

	mov	edx, DWORD PTR _this$[ebp]
	mov	DWORD PTR [edx+40], 2

; 676  : 	}
; 677  : 	else if(GET_TEAM(m_pPlayer->getTeam()).isAtWar(pPlot->getTeam()))

	jmp	$LN30@AddToDomin
$LN74@AddToDomin:
	mov	eax, DWORD PTR _pPlot$[ebp]
	movsx	ecx, BYTE PTR [eax+4]
	mov	DWORD PTR _playerID$226074[ebp], ecx
	cmp	DWORD PTR _playerID$226074[ebp], -1
	je	SHORT $LN71@AddToDomin
	mov	edx, DWORD PTR _playerID$226074[ebp]
	push	edx
	call	?teamType@CvPreGame@@YA?AW4TeamTypes@@W4PlayerTypes@@@Z ; CvPreGame::teamType
	add	esp, 4
	mov	DWORD PTR $T226082[ebp], eax
	jmp	SHORT $LN72@AddToDomin
	jmp	SHORT $LN72@AddToDomin
$LN71@AddToDomin:
	mov	DWORD PTR $T226082[ebp], -1
$LN72@AddToDomin:
	mov	eax, DWORD PTR _this$[ebp]
	mov	ecx, DWORD PTR [eax+20]
	mov	DWORD PTR $T226091[ebp], ecx
	mov	edx, DWORD PTR $T226091[ebp]
	mov	eax, DWORD PTR [edx+44]
	push	eax
	call	?teamType@CvPreGame@@YA?AW4TeamTypes@@W4PlayerTypes@@@Z ; CvPreGame::teamType
	add	esp, 4
	mov	DWORD PTR $T226092[ebp], eax
	mov	ecx, DWORD PTR $T226092[ebp]
	imul	ecx, 2984				; 00000ba8H
	add	ecx, DWORD PTR ?m_aTeams@CvTeam@@1PAV1@A ; CvTeam::m_aTeams
	mov	DWORD PTR $T226096[ebp], ecx
	mov	edx, DWORD PTR $T226082[ebp]
	push	edx
	mov	ecx, DWORD PTR $T226096[ebp]
	call	?isAtWar@CvTeam@@QBE_NW4TeamTypes@@@Z	; CvTeam::isAtWar
	movzx	eax, al
	test	eax, eax
	je	SHORT $LN27@AddToDomin

; 678  : 	{
; 679  : 		m_TempZone.SetTerritoryType(TACTICAL_TERRITORY_ENEMY);

	mov	ecx, DWORD PTR _this$[ebp]
	mov	DWORD PTR [ecx+40], 3

; 680  : 	}
; 681  : 	else

	jmp	SHORT $LN30@AddToDomin
$LN27@AddToDomin:

; 682  : 	{
; 683  : 		m_TempZone.SetTerritoryType(TACTICAL_TERRITORY_NEUTRAL);

	mov	edx, DWORD PTR _this$[ebp]
	mov	DWORD PTR [edx+40], 4
$LN30@AddToDomin:

; 684  : 	}
; 685  : 	m_TempZone.SetClosestCity(NULL);

	push	0
	mov	ecx, DWORD PTR _this$[ebp]
	add	ecx, 36					; 00000024H
	call	?SetClosestCity@CvTacticalDominanceZone@@QAEXPAVCvCity@@@Z ; CvTacticalDominanceZone::SetClosestCity

; 686  : 	if(m_TempZone.GetTerritoryType() == TACTICAL_TERRITORY_ENEMY ||
; 687  : 	        m_TempZone.GetTerritoryType() == TACTICAL_TERRITORY_NEUTRAL ||
; 688  : 	        m_TempZone.GetTerritoryType() == TACTICAL_TERRITORY_FRIENDLY)

	mov	eax, DWORD PTR _this$[ebp]
	mov	ecx, DWORD PTR [eax+40]
	mov	DWORD PTR $T226106[ebp], ecx
	cmp	DWORD PTR $T226106[ebp], 3
	je	SHORT $LN24@AddToDomin
	mov	edx, DWORD PTR _this$[ebp]
	mov	eax, DWORD PTR [edx+40]
	mov	DWORD PTR $T226110[ebp], eax
	cmp	DWORD PTR $T226110[ebp], 4
	je	SHORT $LN24@AddToDomin
	mov	ecx, DWORD PTR _this$[ebp]
	mov	edx, DWORD PTR [ecx+40]
	mov	DWORD PTR $T226114[ebp], edx
	cmp	DWORD PTR $T226114[ebp], 2
	jne	$LN25@AddToDomin
$LN24@AddToDomin:

; 689  : 	{
; 690  : 		int iLoop;
; 691  : 		int iBestDistance = MAX_INT;

	mov	DWORD PTR _iBestDistance$221647[ebp], 2147483647 ; 7fffffffH

; 692  : 		CvCity* pBestCity = NULL;

	mov	DWORD PTR _pBestCity$221648[ebp], 0

; 693  : 
; 694  : 		for(CvCity* pLoopCity = GET_PLAYER(m_TempZone.GetOwner()).firstCity(&iLoop); pLoopCity != NULL; pLoopCity = GET_PLAYER(m_TempZone.GetOwner()).nextCity(&iLoop))

	mov	eax, DWORD PTR _this$[ebp]
	mov	ecx, DWORD PTR [eax+48]
	mov	DWORD PTR $T226118[ebp], ecx
	mov	edx, DWORD PTR $T226118[ebp]
	imul	edx, 63236				; 0000f704H
	add	edx, DWORD PTR ?m_aPlayers@CvPlayerAI@@1PAV1@A ; CvPlayerAI::m_aPlayers
	mov	DWORD PTR $T226122[ebp], edx
	push	0
	lea	eax, DWORD PTR _iLoop$221646[ebp]
	push	eax
	mov	ecx, DWORD PTR $T226122[ebp]
	call	?firstCity@CvPlayer@@QAEPAVCvCity@@PAH_N@Z ; CvPlayer::firstCity
	mov	DWORD PTR _pLoopCity$221649[ebp], eax
	jmp	SHORT $LN23@AddToDomin
$LN22@AddToDomin:
	mov	ecx, DWORD PTR _this$[ebp]
	mov	edx, DWORD PTR [ecx+48]
	mov	DWORD PTR $T226126[ebp], edx
	mov	eax, DWORD PTR $T226126[ebp]
	imul	eax, 63236				; 0000f704H
	add	eax, DWORD PTR ?m_aPlayers@CvPlayerAI@@1PAV1@A ; CvPlayerAI::m_aPlayers
	mov	DWORD PTR $T226130[ebp], eax
	push	0
	lea	ecx, DWORD PTR _iLoop$221646[ebp]
	push	ecx
	mov	ecx, DWORD PTR $T226130[ebp]
	call	?nextCity@CvPlayer@@QAEPAVCvCity@@PAH_N@Z ; CvPlayer::nextCity
	mov	DWORD PTR _pLoopCity$221649[ebp], eax
$LN23@AddToDomin:
	cmp	DWORD PTR _pLoopCity$221649[ebp], 0
	je	SHORT $LN21@AddToDomin

; 695  : 		{
; 696  : 			int iDistance = plotDistance(pLoopCity->getX(), pLoopCity->getY(), pPlot->getX(), pPlot->getY());

	mov	edx, DWORD PTR _pPlot$[ebp]
	movsx	eax, WORD PTR [edx+2]
	mov	DWORD PTR $T226134[ebp], eax
	mov	ecx, DWORD PTR _pPlot$[ebp]
	movsx	edx, WORD PTR [ecx]
	mov	DWORD PTR $T226138[ebp], edx
	mov	eax, DWORD PTR _pLoopCity$221649[ebp]
	mov	ecx, DWORD PTR [eax+108]
	mov	DWORD PTR $T226147[ebp], ecx
	mov	edx, DWORD PTR _pLoopCity$221649[ebp]
	mov	eax, DWORD PTR [edx+96]
	mov	DWORD PTR $T226156[ebp], eax
	mov	ecx, DWORD PTR $T226134[ebp]
	push	ecx
	mov	edx, DWORD PTR $T226138[ebp]
	push	edx
	mov	eax, DWORD PTR $T226147[ebp]
	push	eax
	mov	ecx, DWORD PTR $T226156[ebp]
	push	ecx
	call	?plotDistance@@YAHHHHH@Z		; plotDistance
	add	esp, 16					; 00000010H
	mov	DWORD PTR _iDistance$221653[ebp], eax

; 697  : 			if(iDistance < iBestDistance)

	mov	edx, DWORD PTR _iDistance$221653[ebp]
	cmp	edx, DWORD PTR _iBestDistance$221647[ebp]
	jge	SHORT $LN20@AddToDomin

; 698  : 			{
; 699  : 				iBestDistance = iDistance;

	mov	eax, DWORD PTR _iDistance$221653[ebp]
	mov	DWORD PTR _iBestDistance$221647[ebp], eax

; 700  : 				pBestCity = pLoopCity;

	mov	ecx, DWORD PTR _pLoopCity$221649[ebp]
	mov	DWORD PTR _pBestCity$221648[ebp], ecx
$LN20@AddToDomin:

; 701  : 			}
; 702  : 		}

	jmp	$LN22@AddToDomin
$LN21@AddToDomin:

; 703  : 
; 704  : 		if(pBestCity != NULL)

	cmp	DWORD PTR _pBestCity$221648[ebp], 0
	je	SHORT $LN25@AddToDomin

; 705  : 		{
; 706  : 			m_TempZone.SetClosestCity(pBestCity);

	mov	edx, DWORD PTR _pBestCity$221648[ebp]
	push	edx
	mov	ecx, DWORD PTR _this$[ebp]
	add	ecx, 36					; 00000024H
	call	?SetClosestCity@CvTacticalDominanceZone@@QAEXPAVCvCity@@@Z ; CvTacticalDominanceZone::SetClosestCity
$LN25@AddToDomin:

; 707  : 		}
; 708  : 	}
; 709  : 
; 710  : 	// Now see if we already have a matching zone
; 711  : 	CvTacticalDominanceZone* pZone = FindExistingZone(pPlot);

	mov	eax, DWORD PTR _pPlot$[ebp]
	push	eax
	mov	ecx, DWORD PTR _this$[ebp]
	call	?FindExistingZone@CvTacticalAnalysisMap@@IAEPAVCvTacticalDominanceZone@@PAVCvPlot@@@Z ; CvTacticalAnalysisMap::FindExistingZone
	mov	DWORD PTR _pZone$[ebp], eax

; 712  : 	if(!pZone)

	cmp	DWORD PTR _pZone$[ebp], 0
	jne	SHORT $LN18@AddToDomin

; 713  : 	{
; 714  : 		// Data populated, now add to vector
; 715  : 		m_TempZone.SetDominanceZoneID(m_DominanceZones.size());

	mov	ecx, DWORD PTR _this$[ebp]
	mov	edx, DWORD PTR [ecx+116]
	mov	DWORD PTR $T226197[ebp], edx
	mov	eax, DWORD PTR _this$[ebp]
	mov	ecx, DWORD PTR $T226197[ebp]
	mov	DWORD PTR [eax+36], ecx

; 716  : 		m_DominanceZones.push_back(m_TempZone);

	mov	edx, DWORD PTR _this$[ebp]
	add	edx, 36					; 00000024H
	push	edx
	mov	ecx, DWORD PTR _this$[ebp]
	add	ecx, 112				; 00000070H
	call	?push_back@?$FStaticVector@VCvTacticalDominanceZone@@$0GO@$00$0BCJ@$0A@@@QAEIABVCvTacticalDominanceZone@@@Z ; FStaticVector<CvTacticalDominanceZone,110,1,297,0>::push_back

; 717  : 		pZone = &m_DominanceZones[m_DominanceZones.size() - 1];

	mov	eax, DWORD PTR _this$[ebp]
	mov	ecx, DWORD PTR [eax+116]
	mov	DWORD PTR $T226211[ebp], ecx
	mov	edx, DWORD PTR $T226211[ebp]
	sub	edx, 1
	imul	edx, 76					; 0000004cH
	mov	eax, DWORD PTR _this$[ebp]
	add	edx, DWORD PTR [eax+112]
	mov	DWORD PTR _pZone$[ebp], edx
$LN18@AddToDomin:

; 718  : 	}
; 719  : 
; 720  : 	// If this isn't owned territory, update zone with military strength info
; 721  : 	if(pZone->GetTerritoryType() == TACTICAL_TERRITORY_NO_OWNER ||
; 722  : 	        pZone->GetTerritoryType() == TACTICAL_TERRITORY_TEMP_ZONE)

	mov	ecx, DWORD PTR _pZone$[ebp]
	mov	edx, DWORD PTR [ecx+4]
	mov	DWORD PTR $T226218[ebp], edx
	cmp	DWORD PTR $T226218[ebp], 1
	je	SHORT $LN16@AddToDomin
	mov	eax, DWORD PTR _pZone$[ebp]
	mov	ecx, DWORD PTR [eax+4]
	mov	DWORD PTR $T226222[ebp], ecx
	cmp	DWORD PTR $T226222[ebp], 5
	jne	$LN17@AddToDomin
$LN16@AddToDomin:

; 723  : 	{
; 724  : 		CvUnit* pFriendlyUnit = pCell->GetFriendlyMilitaryUnit();

	mov	edx, DWORD PTR _pCell$[ebp]
	mov	eax, DWORD PTR [edx+20]
	mov	DWORD PTR _pFriendlyUnit$221660[ebp], eax

; 725  : 		if(pFriendlyUnit)

	cmp	DWORD PTR _pFriendlyUnit$221660[ebp], 0
	je	$LN15@AddToDomin

; 726  : 		{
; 727  : 			if(pFriendlyUnit->getDomainType() == DOMAIN_AIR ||
; 728  : 			        (pFriendlyUnit->getDomainType() == DOMAIN_LAND && !pZone->IsWater()) ||
; 729  : 			        (pFriendlyUnit->getDomainType() == DOMAIN_SEA && pZone->IsWater()))

	mov	ecx, DWORD PTR _pFriendlyUnit$221660[ebp]
	call	?getDomainType@CvUnit@@QBE?AW4DomainTypes@@XZ ; CvUnit::getDomainType
	cmp	eax, 1
	je	SHORT $LN13@AddToDomin
	mov	ecx, DWORD PTR _pFriendlyUnit$221660[ebp]
	call	?getDomainType@CvUnit@@QBE?AW4DomainTypes@@XZ ; CvUnit::getDomainType
	cmp	eax, 2
	jne	SHORT $LN12@AddToDomin
	mov	ecx, DWORD PTR _pZone$[ebp]
	mov	dl, BYTE PTR [ecx+68]
	mov	BYTE PTR $T226229[ebp], dl
	movzx	eax, BYTE PTR $T226229[ebp]
	test	eax, eax
	je	SHORT $LN13@AddToDomin
$LN12@AddToDomin:
	mov	ecx, DWORD PTR _pFriendlyUnit$221660[ebp]
	call	?getDomainType@CvUnit@@QBE?AW4DomainTypes@@XZ ; CvUnit::getDomainType
	test	eax, eax
	jne	$LN15@AddToDomin
	mov	ecx, DWORD PTR _pZone$[ebp]
	mov	dl, BYTE PTR [ecx+68]
	mov	BYTE PTR $T226233[ebp], dl
	movzx	eax, BYTE PTR $T226233[ebp]
	test	eax, eax
	je	$LN15@AddToDomin
$LN13@AddToDomin:

; 730  : 			{
; 731  : 				int iStrength = pFriendlyUnit->GetBaseCombatStrengthConsideringDamage();

	mov	ecx, DWORD PTR _pFriendlyUnit$221660[ebp]
	call	?GetBaseCombatStrengthConsideringDamage@CvUnit@@QBEHXZ ; CvUnit::GetBaseCombatStrengthConsideringDamage
	mov	DWORD PTR _iStrength$221665[ebp], eax

; 732  : 				if(iStrength == 0 && pFriendlyUnit->isEmbarked() && !pZone->IsWater())

	cmp	DWORD PTR _iStrength$221665[ebp], 0
	jne	SHORT $LN11@AddToDomin
	mov	ecx, DWORD PTR _pFriendlyUnit$221660[ebp]
	mov	dl, BYTE PTR [ecx+1652]
	mov	BYTE PTR $T226242[ebp], dl
	movzx	eax, BYTE PTR $T226242[ebp]
	test	eax, eax
	je	SHORT $LN11@AddToDomin
	mov	ecx, DWORD PTR _pZone$[ebp]
	mov	dl, BYTE PTR [ecx+68]
	mov	BYTE PTR $T226246[ebp], dl
	movzx	eax, BYTE PTR $T226246[ebp]
	test	eax, eax
	jne	SHORT $LN11@AddToDomin

; 733  : 				{
; 734  : 					iStrength = pFriendlyUnit->GetBaseCombatStrength(true);

	push	1
	mov	ecx, DWORD PTR _pFriendlyUnit$221660[ebp]
	call	?GetBaseCombatStrength@CvUnit@@QBEH_N@Z	; CvUnit::GetBaseCombatStrength
	mov	DWORD PTR _iStrength$221665[ebp], eax
$LN11@AddToDomin:

; 735  : 				}
; 736  : 				pZone->AddFriendlyStrength(iStrength * m_iUnitStrengthMultiplier);

	mov	ecx, DWORD PTR _this$[ebp]
	mov	edx, DWORD PTR _iStrength$221665[ebp]
	imul	edx, DWORD PTR [ecx+4]
	mov	DWORD PTR $T226250[ebp], edx
	mov	eax, DWORD PTR _pZone$[ebp]
	mov	ecx, DWORD PTR [eax+24]
	add	ecx, DWORD PTR $T226250[ebp]
	mov	edx, DWORD PTR _pZone$[ebp]
	mov	DWORD PTR [edx+24], ecx

; 737  : 				pZone->AddFriendlyRangedStrength(pFriendlyUnit->GetMaxRangedCombatStrength(NULL, /*pCity*/ NULL, true, true));

	push	1
	push	1
	push	0
	push	0
	mov	ecx, DWORD PTR _pFriendlyUnit$221660[ebp]
	call	?GetMaxRangedCombatStrength@CvUnit@@QBEHPBV1@PBVCvCity@@_N2@Z ; CvUnit::GetMaxRangedCombatStrength
	mov	DWORD PTR $T226254[ebp], eax
	mov	eax, DWORD PTR _pZone$[ebp]
	mov	ecx, DWORD PTR [eax+32]
	add	ecx, DWORD PTR $T226254[ebp]
	mov	edx, DWORD PTR _pZone$[ebp]
	mov	DWORD PTR [edx+32], ecx

; 738  : 				if(pFriendlyUnit->GetRange() > GetBestFriendlyRange())

	mov	eax, DWORD PTR _this$[ebp]
	mov	ecx, DWORD PTR [eax+28]
	mov	DWORD PTR $T226258[ebp], ecx
	mov	ecx, DWORD PTR _pFriendlyUnit$221660[ebp]
	call	?GetRange@CvUnit@@QBEHXZ		; CvUnit::GetRange
	cmp	eax, DWORD PTR $T226258[ebp]
	jle	SHORT $LN10@AddToDomin

; 739  : 				{
; 740  : 					SetBestFriendlyRange(pFriendlyUnit->GetRange());

	mov	ecx, DWORD PTR _pFriendlyUnit$221660[ebp]
	call	?GetRange@CvUnit@@QBEHXZ		; CvUnit::GetRange
	mov	DWORD PTR $T226262[ebp], eax
	mov	edx, DWORD PTR _this$[ebp]
	mov	eax, DWORD PTR $T226262[ebp]
	mov	DWORD PTR [edx+28], eax
$LN10@AddToDomin:

; 741  : 				}
; 742  : 				if(pFriendlyUnit->IsRangeAttackIgnoreLOS())

	mov	ecx, DWORD PTR _pFriendlyUnit$221660[ebp]
	call	?IsRangeAttackIgnoreLOS@CvUnit@@QBE_NXZ	; CvUnit::IsRangeAttackIgnoreLOS
	movzx	ecx, al
	test	ecx, ecx
	je	SHORT $LN9@AddToDomin

; 743  : 				{
; 744  : 					SetIgnoreLOS(true);

	mov	edx, DWORD PTR _this$[ebp]
	mov	BYTE PTR [edx+32], 1
$LN9@AddToDomin:

; 745  : 				}
; 746  : 				pZone->AddFriendlyUnitCount(1);

	mov	eax, DWORD PTR _pZone$[ebp]
	mov	ecx, DWORD PTR [eax+40]
	add	ecx, 1
	mov	edx, DWORD PTR _pZone$[ebp]
	mov	DWORD PTR [edx+40], ecx

; 747  : 				if(pFriendlyUnit->isRanged())

	mov	ecx, DWORD PTR _pFriendlyUnit$221660[ebp]
	call	?isRanged@CvUnit@@QBE_NXZ		; CvUnit::isRanged
	movzx	eax, al
	test	eax, eax
	je	SHORT $LN15@AddToDomin

; 748  : 				{
; 749  : 					pZone->AddFriendlyRangedUnitCount(1);

	mov	ecx, DWORD PTR _pZone$[ebp]
	mov	edx, DWORD PTR [ecx+48]
	add	edx, 1
	mov	eax, DWORD PTR _pZone$[ebp]
	mov	DWORD PTR [eax+48], edx
$LN15@AddToDomin:

; 750  : 				}
; 751  : 			}
; 752  : 		}
; 753  : 
; 754  : 		CvUnit* pEnemyUnit = pCell->GetEnemyMilitaryUnit();

	mov	ecx, DWORD PTR _pCell$[ebp]
	mov	edx, DWORD PTR [ecx+4]
	mov	DWORD PTR _pEnemyUnit$221670[ebp], edx

; 755  : 		if(pEnemyUnit)

	cmp	DWORD PTR _pEnemyUnit$221670[ebp], 0
	je	$LN17@AddToDomin

; 756  : 		{
; 757  : 			if(pEnemyUnit->getDomainType() == DOMAIN_AIR ||
; 758  : 			        (pEnemyUnit->getDomainType() == DOMAIN_LAND && !pZone->IsWater()) ||
; 759  : 			        (pEnemyUnit->getDomainType() == DOMAIN_SEA && pZone->IsWater()))

	mov	ecx, DWORD PTR _pEnemyUnit$221670[ebp]
	call	?getDomainType@CvUnit@@QBE?AW4DomainTypes@@XZ ; CvUnit::getDomainType
	cmp	eax, 1
	je	SHORT $LN5@AddToDomin
	mov	ecx, DWORD PTR _pEnemyUnit$221670[ebp]
	call	?getDomainType@CvUnit@@QBE?AW4DomainTypes@@XZ ; CvUnit::getDomainType
	cmp	eax, 2
	jne	SHORT $LN4@AddToDomin
	mov	eax, DWORD PTR _pZone$[ebp]
	mov	cl, BYTE PTR [eax+68]
	mov	BYTE PTR $T226278[ebp], cl
	movzx	edx, BYTE PTR $T226278[ebp]
	test	edx, edx
	je	SHORT $LN5@AddToDomin
$LN4@AddToDomin:
	mov	ecx, DWORD PTR _pEnemyUnit$221670[ebp]
	call	?getDomainType@CvUnit@@QBE?AW4DomainTypes@@XZ ; CvUnit::getDomainType
	test	eax, eax
	jne	$LN17@AddToDomin
	mov	eax, DWORD PTR _pZone$[ebp]
	mov	cl, BYTE PTR [eax+68]
	mov	BYTE PTR $T226282[ebp], cl
	movzx	edx, BYTE PTR $T226282[ebp]
	test	edx, edx
	je	$LN17@AddToDomin
$LN5@AddToDomin:

; 760  : 			{
; 761  : 				int iStrength = pEnemyUnit->GetBaseCombatStrengthConsideringDamage();

	mov	ecx, DWORD PTR _pEnemyUnit$221670[ebp]
	call	?GetBaseCombatStrengthConsideringDamage@CvUnit@@QBEHXZ ; CvUnit::GetBaseCombatStrengthConsideringDamage
	mov	DWORD PTR _iStrength$221675[ebp], eax

; 762  : 				if(iStrength == 0 && pEnemyUnit->isEmbarked() && !pZone->IsWater())

	cmp	DWORD PTR _iStrength$221675[ebp], 0
	jne	SHORT $LN3@AddToDomin
	mov	eax, DWORD PTR _pEnemyUnit$221670[ebp]
	mov	cl, BYTE PTR [eax+1652]
	mov	BYTE PTR $T226291[ebp], cl
	movzx	edx, BYTE PTR $T226291[ebp]
	test	edx, edx
	je	SHORT $LN3@AddToDomin
	mov	eax, DWORD PTR _pZone$[ebp]
	mov	cl, BYTE PTR [eax+68]
	mov	BYTE PTR $T226295[ebp], cl
	movzx	edx, BYTE PTR $T226295[ebp]
	test	edx, edx
	jne	SHORT $LN3@AddToDomin

; 763  : 				{
; 764  : 					iStrength = pEnemyUnit->GetBaseCombatStrength(true);

	push	1
	mov	ecx, DWORD PTR _pEnemyUnit$221670[ebp]
	call	?GetBaseCombatStrength@CvUnit@@QBEH_N@Z	; CvUnit::GetBaseCombatStrength
	mov	DWORD PTR _iStrength$221675[ebp], eax
$LN3@AddToDomin:

; 765  : 				}
; 766  : 				pZone->AddEnemyStrength(iStrength * m_iUnitStrengthMultiplier);

	mov	eax, DWORD PTR _this$[ebp]
	mov	ecx, DWORD PTR _iStrength$221675[ebp]
	imul	ecx, DWORD PTR [eax+4]
	mov	DWORD PTR $T226299[ebp], ecx
	mov	edx, DWORD PTR _pZone$[ebp]
	mov	eax, DWORD PTR [edx+28]
	add	eax, DWORD PTR $T226299[ebp]
	mov	ecx, DWORD PTR _pZone$[ebp]
	mov	DWORD PTR [ecx+28], eax

; 767  : 				pZone->AddEnemyRangedStrength(pEnemyUnit->GetMaxRangedCombatStrength(NULL, /*pCity*/ NULL, true, true));

	push	1
	push	1
	push	0
	push	0
	mov	ecx, DWORD PTR _pEnemyUnit$221670[ebp]
	call	?GetMaxRangedCombatStrength@CvUnit@@QBEHPBV1@PBVCvCity@@_N2@Z ; CvUnit::GetMaxRangedCombatStrength
	mov	DWORD PTR $T226303[ebp], eax
	mov	edx, DWORD PTR _pZone$[ebp]
	mov	eax, DWORD PTR [edx+36]
	add	eax, DWORD PTR $T226303[ebp]
	mov	ecx, DWORD PTR _pZone$[ebp]
	mov	DWORD PTR [ecx+36], eax

; 768  : 				pZone->AddEnemyUnitCount(1);

	mov	edx, DWORD PTR _pZone$[ebp]
	mov	eax, DWORD PTR [edx+44]
	add	eax, 1
	mov	ecx, DWORD PTR _pZone$[ebp]
	mov	DWORD PTR [ecx+44], eax

; 769  : 				if(pEnemyUnit->isRanged())

	mov	ecx, DWORD PTR _pEnemyUnit$221670[ebp]
	call	?isRanged@CvUnit@@QBE_NXZ		; CvUnit::isRanged
	movzx	edx, al
	test	edx, edx
	je	SHORT $LN2@AddToDomin

; 770  : 				{
; 771  : 					pZone->AddEnemyRangedUnitCount(1);

	mov	eax, DWORD PTR _pZone$[ebp]
	mov	ecx, DWORD PTR [eax+52]
	add	ecx, 1
	mov	edx, DWORD PTR _pZone$[ebp]
	mov	DWORD PTR [edx+52], ecx
$LN2@AddToDomin:

; 772  : 				}
; 773  : 				if (pEnemyUnit->getDomainType() == DOMAIN_SEA)

	mov	ecx, DWORD PTR _pEnemyUnit$221670[ebp]
	call	?getDomainType@CvUnit@@QBE?AW4DomainTypes@@XZ ; CvUnit::getDomainType
	test	eax, eax
	jne	SHORT $LN17@AddToDomin

; 774  : 				{
; 775  : 					pZone->AddEnemyNavalUnitCount(1);

	mov	eax, DWORD PTR _pZone$[ebp]
	mov	ecx, DWORD PTR [eax+56]
	add	ecx, 1
	mov	edx, DWORD PTR _pZone$[ebp]
	mov	DWORD PTR [edx+56], ecx
$LN17@AddToDomin:

; 776  : 				}
; 777  : 			}
; 778  : 		}
; 779  : 	}
; 780  : 
; 781  : 	// Set zone for this cell
; 782  : 	pCell->SetDominanceZone(pZone->GetDominanceZoneID());

	mov	eax, DWORD PTR _pZone$[ebp]
	mov	ecx, DWORD PTR [eax]
	mov	DWORD PTR $T226316[ebp], ecx
	mov	edx, DWORD PTR _pCell$[ebp]
	mov	eax, DWORD PTR $T226316[ebp]
	mov	DWORD PTR [edx+40], eax

; 783  : }

	mov	esp, ebp
	pop	ebp
	ret	8
?AddToDominanceZones@CvTacticalAnalysisMap@@IAEXHPAVCvTacticalAnalysisCell@@@Z ENDP ; CvTacticalAnalysisMap::AddToDominanceZones
_TEXT	ENDS
EXTRN	?isAdjacentVisible@CvPlot@@QBE_NW4TeamTypes@@_N@Z:PROC ; CvPlot::isAdjacentVisible
EXTRN	?plot@CvUnit@@QBEPAVCvPlot@@XZ:PROC		; CvUnit::plot
EXTRN	?getStrengthValue@CvCity@@QBEH_N@Z:PROC		; CvCity::getStrengthValue
EXTRN	?getDamage@CvCity@@QBEHXZ:PROC			; CvCity::getDamage
EXTRN	?GetMaxHitPoints@CvCity@@QBEHXZ:PROC		; CvCity::GetMaxHitPoints
; Function compile flags: /Odtp
;	COMDAT ?CalculateMilitaryStrengths@CvTacticalAnalysisMap@@IAEXXZ
_TEXT	SEGMENT
_this$ = -288						; size = 4
$T226646 = -284						; size = 4
$T226642 = -279						; size = 1
$T226638 = -278						; size = 1
$T226629 = -277						; size = 1
$T226558 = -208						; size = 4
$T226549 = -204						; size = 4
$T226540 = -200						; size = 4
$T226531 = -196						; size = 4
$T226522 = -190						; size = 1
$T226518 = -189						; size = 1
$T226506 = -188						; size = 4
$T226502 = -184						; size = 4
$T226481 = -180						; size = 4
$T226477 = -176						; size = 4
$T226473 = -172						; size = 4
$T226469 = -168						; size = 4
$T226465 = -162						; size = 1
$T226461 = -161						; size = 1
$T226415 = -116						; size = 4
$T226406 = -112						; size = 4
$T226397 = -108						; size = 4
$T226388 = -104						; size = 4
$T226379 = -98						; size = 1
$T226375 = -97						; size = 1
$T226363 = -96						; size = 4
$T226356 = -92						; size = 4
$T226349 = -88						; size = 4
$T226345 = -84						; size = 4
$T226341 = -80						; size = 4
$T226334 = -76						; size = 4
$T226330 = -72						; size = 4
_iRangedStrength$221736 = -68				; size = 4
_iUnitStrength$221733 = -64				; size = 4
_bVisible$221729 = -57					; size = 1
_pPlot$221727 = -56					; size = 4
_kPlayer$221717 = -52					; size = 4
_iPlayerLoop$221713 = -48				; size = 4
_iUnitStrength$221708 = -44				; size = 4
_iCityHitPoints$221695 = -40				; size = 4
_iStrength$221696 = -36					; size = 4
_iI$221689 = -32					; size = 4
_iDistance$ = -28					; size = 4
_pZone$ = -24						; size = 4
_pLoopUnit$ = -20					; size = 4
_pClosestCity$ = -16					; size = 4
_eTeam$ = -12						; size = 4
_iMultiplier$ = -8					; size = 4
_iLoop$ = -4						; size = 4
?CalculateMilitaryStrengths@CvTacticalAnalysisMap@@IAEXXZ PROC ; CvTacticalAnalysisMap::CalculateMilitaryStrengths, COMDAT
; _this$ = ecx

; 787  : {

	push	ebp
	mov	ebp, esp
	sub	esp, 288				; 00000120H
	push	esi
	mov	DWORD PTR _this$[ebp], ecx

; 788  : 	// Loop through the dominance zones
; 789  : 	CvTacticalDominanceZone* pZone;
; 790  : 	CvCity* pClosestCity = NULL;

	mov	DWORD PTR _pClosestCity$[ebp], 0

; 791  : 	int iDistance;
; 792  : 	int iMultiplier;
; 793  : 	int iLoop;
; 794  : 	CvUnit* pLoopUnit;
; 795  : 	TeamTypes eTeam;
; 796  : 
; 797  : 	eTeam = m_pPlayer->getTeam();

	mov	eax, DWORD PTR _this$[ebp]
	mov	ecx, DWORD PTR [eax+20]
	mov	DWORD PTR $T226330[ebp], ecx
	mov	edx, DWORD PTR $T226330[ebp]
	mov	eax, DWORD PTR [edx+44]
	push	eax
	call	?teamType@CvPreGame@@YA?AW4TeamTypes@@W4PlayerTypes@@@Z ; CvPreGame::teamType
	add	esp, 4
	mov	DWORD PTR _eTeam$[ebp], eax

; 798  : 
; 799  : 	for(unsigned int iI = 0; iI < m_DominanceZones.size(); iI++)

	mov	DWORD PTR _iI$221689[ebp], 0
	jmp	SHORT $LN42@CalculateM
$LN41@CalculateM:
	mov	ecx, DWORD PTR _iI$221689[ebp]
	add	ecx, 1
	mov	DWORD PTR _iI$221689[ebp], ecx
$LN42@CalculateM:
	mov	edx, DWORD PTR _this$[ebp]
	mov	eax, DWORD PTR [edx+116]
	mov	DWORD PTR $T226334[ebp], eax
	mov	ecx, DWORD PTR _iI$221689[ebp]
	cmp	ecx, DWORD PTR $T226334[ebp]
	jae	$LN43@CalculateM

; 800  : 	{
; 801  : 		pZone = &m_DominanceZones[iI];

	mov	edx, DWORD PTR _iI$221689[ebp]
	imul	edx, 76					; 0000004cH
	mov	eax, DWORD PTR _this$[ebp]
	add	edx, DWORD PTR [eax+112]
	mov	DWORD PTR _pZone$[ebp], edx

; 802  : 
; 803  : 		if(pZone->GetTerritoryType() != TACTICAL_TERRITORY_NO_OWNER)

	mov	ecx, DWORD PTR _pZone$[ebp]
	mov	edx, DWORD PTR [ecx+4]
	mov	DWORD PTR $T226341[ebp], edx
	cmp	DWORD PTR $T226341[ebp], 1
	je	$LN39@CalculateM

; 804  : 		{
; 805  : 			pClosestCity = pZone->GetClosestCity();

	mov	ecx, DWORD PTR _pZone$[ebp]
	call	?GetClosestCity@CvTacticalDominanceZone@@QBEPAVCvCity@@XZ ; CvTacticalDominanceZone::GetClosestCity
	mov	DWORD PTR _pClosestCity$[ebp], eax

; 806  : 			if(pClosestCity)

	cmp	DWORD PTR _pClosestCity$[ebp], 0
	je	$LN39@CalculateM

; 807  : 			{
; 808  : 				// Start with strength of the city itself
; 809  : 				int iCityHitPoints = pClosestCity->GetMaxHitPoints() - pClosestCity->getDamage();

	mov	ecx, DWORD PTR _pClosestCity$[ebp]
	call	?GetMaxHitPoints@CvCity@@QBEHXZ		; CvCity::GetMaxHitPoints
	mov	esi, eax
	mov	ecx, DWORD PTR _pClosestCity$[ebp]
	call	?getDamage@CvCity@@QBEHXZ		; CvCity::getDamage
	sub	esi, eax
	mov	DWORD PTR _iCityHitPoints$221695[ebp], esi

; 810  : 				int iStrength = m_iTacticalRange * pClosestCity->getStrengthValue() * iCityHitPoints / GC.getMAX_CITY_HIT_POINTS();

	mov	eax, DWORD PTR ?gGlobals@@3VCvGlobals@@A+7372
	mov	DWORD PTR $T226345[ebp], eax
	push	0
	mov	ecx, DWORD PTR _pClosestCity$[ebp]
	call	?getStrengthValue@CvCity@@QBEH_N@Z	; CvCity::getStrengthValue
	mov	ecx, DWORD PTR _this$[ebp]
	imul	eax, DWORD PTR [ecx+8]
	imul	eax, DWORD PTR _iCityHitPoints$221695[ebp]
	cdq
	idiv	DWORD PTR $T226345[ebp]
	mov	DWORD PTR _iStrength$221696[ebp], eax

; 811  : 				if(pZone->GetTerritoryType() == TACTICAL_TERRITORY_FRIENDLY)

	mov	edx, DWORD PTR _pZone$[ebp]
	mov	eax, DWORD PTR [edx+4]
	mov	DWORD PTR $T226349[ebp], eax
	cmp	DWORD PTR $T226349[ebp], 2
	jne	SHORT $LN37@CalculateM

; 812  : 				{
; 813  : 					pZone->AddFriendlyStrength(iStrength);

	mov	ecx, DWORD PTR _pZone$[ebp]
	mov	edx, DWORD PTR [ecx+24]
	add	edx, DWORD PTR _iStrength$221696[ebp]
	mov	eax, DWORD PTR _pZone$[ebp]
	mov	DWORD PTR [eax+24], edx

; 814  : 					pZone->AddFriendlyRangedStrength(pClosestCity->getStrengthValue());

	push	0
	mov	ecx, DWORD PTR _pClosestCity$[ebp]
	call	?getStrengthValue@CvCity@@QBEH_N@Z	; CvCity::getStrengthValue
	mov	DWORD PTR $T226356[ebp], eax
	mov	ecx, DWORD PTR _pZone$[ebp]
	mov	edx, DWORD PTR [ecx+32]
	add	edx, DWORD PTR $T226356[ebp]
	mov	eax, DWORD PTR _pZone$[ebp]
	mov	DWORD PTR [eax+32], edx

; 815  : 				}
; 816  : 				else

	jmp	SHORT $LN36@CalculateM
$LN37@CalculateM:

; 817  : 				{
; 818  : 					pZone->AddEnemyStrength(iStrength);

	mov	ecx, DWORD PTR _pZone$[ebp]
	mov	edx, DWORD PTR [ecx+28]
	add	edx, DWORD PTR _iStrength$221696[ebp]
	mov	eax, DWORD PTR _pZone$[ebp]
	mov	DWORD PTR [eax+28], edx

; 819  : 					pZone->AddEnemyRangedStrength(pClosestCity->getStrengthValue());

	push	0
	mov	ecx, DWORD PTR _pClosestCity$[ebp]
	call	?getStrengthValue@CvCity@@QBEH_N@Z	; CvCity::getStrengthValue
	mov	DWORD PTR $T226363[ebp], eax
	mov	ecx, DWORD PTR _pZone$[ebp]
	mov	edx, DWORD PTR [ecx+36]
	add	edx, DWORD PTR $T226363[ebp]
	mov	eax, DWORD PTR _pZone$[ebp]
	mov	DWORD PTR [eax+36], edx
$LN36@CalculateM:

; 820  : 				}
; 821  : 
; 822  : 				// Loop through all of OUR units first
; 823  : 				for(pLoopUnit = m_pPlayer->firstUnit(&iLoop); pLoopUnit != NULL; pLoopUnit = m_pPlayer->nextUnit(&iLoop))

	push	0
	lea	ecx, DWORD PTR _iLoop$[ebp]
	push	ecx
	mov	edx, DWORD PTR _this$[ebp]
	mov	ecx, DWORD PTR [edx+20]
	call	?firstUnit@CvPlayer@@QAEPAVCvUnit@@PAH_N@Z ; CvPlayer::firstUnit
	mov	DWORD PTR _pLoopUnit$[ebp], eax
	jmp	SHORT $LN35@CalculateM
$LN34@CalculateM:
	push	0
	lea	eax, DWORD PTR _iLoop$[ebp]
	push	eax
	mov	ecx, DWORD PTR _this$[ebp]
	mov	ecx, DWORD PTR [ecx+20]
	call	?nextUnit@CvPlayer@@QAEPAVCvUnit@@PAH_N@Z ; CvPlayer::nextUnit
	mov	DWORD PTR _pLoopUnit$[ebp], eax
$LN35@CalculateM:
	cmp	DWORD PTR _pLoopUnit$[ebp], 0
	je	$LN33@CalculateM

; 824  : 				{
; 825  : 					if(pLoopUnit->IsCombatUnit())

	mov	edx, DWORD PTR _pLoopUnit$[ebp]
	xor	eax, eax
	cmp	DWORD PTR [edx+1044], 0
	setg	al
	movzx	ecx, al
	test	ecx, ecx
	je	$LN32@CalculateM

; 826  : 					{
; 827  : 						if(pLoopUnit->getDomainType() == DOMAIN_AIR ||
; 828  : 						        (pLoopUnit->getDomainType() == DOMAIN_LAND && !pZone->IsWater()) ||
; 829  : 						        (pLoopUnit->getDomainType() == DOMAIN_SEA && pZone->IsWater()))

	mov	ecx, DWORD PTR _pLoopUnit$[ebp]
	call	?getDomainType@CvUnit@@QBE?AW4DomainTypes@@XZ ; CvUnit::getDomainType
	cmp	eax, 1
	je	SHORT $LN77@CalculateM
	mov	ecx, DWORD PTR _pLoopUnit$[ebp]
	call	?getDomainType@CvUnit@@QBE?AW4DomainTypes@@XZ ; CvUnit::getDomainType
	cmp	eax, 2
	jne	SHORT $LN29@CalculateM
	mov	edx, DWORD PTR _pZone$[ebp]
	mov	al, BYTE PTR [edx+68]
	mov	BYTE PTR $T226375[ebp], al
	movzx	ecx, BYTE PTR $T226375[ebp]
	test	ecx, ecx
	je	SHORT $LN77@CalculateM
$LN29@CalculateM:
	mov	ecx, DWORD PTR _pLoopUnit$[ebp]
	call	?getDomainType@CvUnit@@QBE?AW4DomainTypes@@XZ ; CvUnit::getDomainType
	test	eax, eax
	jne	$LN32@CalculateM
	mov	edx, DWORD PTR _pZone$[ebp]
	mov	al, BYTE PTR [edx+68]
	mov	BYTE PTR $T226379[ebp], al
	movzx	ecx, BYTE PTR $T226379[ebp]
	test	ecx, ecx
	je	$LN32@CalculateM

; 830  : 						{
; 831  : 							iDistance = plotDistance(pLoopUnit->getX(), pLoopUnit->getY(), pClosestCity->getX(), pClosestCity->getY());

$LN77@CalculateM:
	mov	edx, DWORD PTR _pClosestCity$[ebp]
	mov	eax, DWORD PTR [edx+108]
	mov	DWORD PTR $T226388[ebp], eax
	mov	ecx, DWORD PTR _pClosestCity$[ebp]
	mov	edx, DWORD PTR [ecx+96]
	mov	DWORD PTR $T226397[ebp], edx
	mov	eax, DWORD PTR _pLoopUnit$[ebp]
	mov	ecx, DWORD PTR [eax+88]
	mov	DWORD PTR $T226406[ebp], ecx
	mov	edx, DWORD PTR _pLoopUnit$[ebp]
	mov	eax, DWORD PTR [edx+76]
	mov	DWORD PTR $T226415[ebp], eax
	mov	ecx, DWORD PTR $T226388[ebp]
	push	ecx
	mov	edx, DWORD PTR $T226397[ebp]
	push	edx
	mov	eax, DWORD PTR $T226406[ebp]
	push	eax
	mov	ecx, DWORD PTR $T226415[ebp]
	push	ecx
	call	?plotDistance@@YAHHHHH@Z		; plotDistance
	add	esp, 16					; 00000010H
	mov	DWORD PTR _iDistance$[ebp], eax

; 832  : 							if (iDistance <= m_iTacticalRange)

	mov	edx, DWORD PTR _this$[ebp]
	mov	eax, DWORD PTR _iDistance$[ebp]
	cmp	eax, DWORD PTR [edx+8]
	jg	$LN32@CalculateM

; 833  : 							{
; 834  : 								iMultiplier = (m_iTacticalRange + 4 - iDistance);  // "4" so unit strength isn't totally dominated by proximity to city

	mov	ecx, DWORD PTR _this$[ebp]
	mov	edx, DWORD PTR [ecx+8]
	add	edx, 4
	sub	edx, DWORD PTR _iDistance$[ebp]
	mov	DWORD PTR _iMultiplier$[ebp], edx

; 835  : 								if(iMultiplier > 0)

	cmp	DWORD PTR _iMultiplier$[ebp], 0
	jle	$LN32@CalculateM

; 836  : 								{
; 837  : 									int iUnitStrength = pLoopUnit->GetBaseCombatStrengthConsideringDamage();

	mov	ecx, DWORD PTR _pLoopUnit$[ebp]
	call	?GetBaseCombatStrengthConsideringDamage@CvUnit@@QBEHXZ ; CvUnit::GetBaseCombatStrengthConsideringDamage
	mov	DWORD PTR _iUnitStrength$221708[ebp], eax

; 838  : 									if(iUnitStrength == 0 && pLoopUnit->isEmbarked() && !pZone->IsWater())

	cmp	DWORD PTR _iUnitStrength$221708[ebp], 0
	jne	SHORT $LN26@CalculateM
	mov	eax, DWORD PTR _pLoopUnit$[ebp]
	mov	cl, BYTE PTR [eax+1652]
	mov	BYTE PTR $T226461[ebp], cl
	movzx	edx, BYTE PTR $T226461[ebp]
	test	edx, edx
	je	SHORT $LN26@CalculateM
	mov	eax, DWORD PTR _pZone$[ebp]
	mov	cl, BYTE PTR [eax+68]
	mov	BYTE PTR $T226465[ebp], cl
	movzx	edx, BYTE PTR $T226465[ebp]
	test	edx, edx
	jne	SHORT $LN26@CalculateM

; 839  : 									{
; 840  : 										iUnitStrength = pLoopUnit->GetBaseCombatStrength(true);

	push	1
	mov	ecx, DWORD PTR _pLoopUnit$[ebp]
	call	?GetBaseCombatStrength@CvUnit@@QBEH_N@Z	; CvUnit::GetBaseCombatStrength
	mov	DWORD PTR _iUnitStrength$221708[ebp], eax
$LN26@CalculateM:

; 841  : 									}
; 842  : 									pZone->AddFriendlyStrength(iUnitStrength * iMultiplier * m_iUnitStrengthMultiplier);

	mov	eax, DWORD PTR _iUnitStrength$221708[ebp]
	imul	eax, DWORD PTR _iMultiplier$[ebp]
	mov	ecx, DWORD PTR _this$[ebp]
	imul	eax, DWORD PTR [ecx+4]
	mov	DWORD PTR $T226469[ebp], eax
	mov	edx, DWORD PTR _pZone$[ebp]
	mov	eax, DWORD PTR [edx+24]
	add	eax, DWORD PTR $T226469[ebp]
	mov	ecx, DWORD PTR _pZone$[ebp]
	mov	DWORD PTR [ecx+24], eax

; 843  : 									pZone->AddFriendlyRangedStrength(pLoopUnit->GetMaxRangedCombatStrength(NULL, /*pCity*/ NULL, true, true));

	push	1
	push	1
	push	0
	push	0
	mov	ecx, DWORD PTR _pLoopUnit$[ebp]
	call	?GetMaxRangedCombatStrength@CvUnit@@QBEHPBV1@PBVCvCity@@_N2@Z ; CvUnit::GetMaxRangedCombatStrength
	mov	DWORD PTR $T226473[ebp], eax
	mov	edx, DWORD PTR _pZone$[ebp]
	mov	eax, DWORD PTR [edx+32]
	add	eax, DWORD PTR $T226473[ebp]
	mov	ecx, DWORD PTR _pZone$[ebp]
	mov	DWORD PTR [ecx+32], eax

; 844  : 									if(pLoopUnit->GetRange() > GetBestFriendlyRange())

	mov	edx, DWORD PTR _this$[ebp]
	mov	eax, DWORD PTR [edx+28]
	mov	DWORD PTR $T226477[ebp], eax
	mov	ecx, DWORD PTR _pLoopUnit$[ebp]
	call	?GetRange@CvUnit@@QBEHXZ		; CvUnit::GetRange
	cmp	eax, DWORD PTR $T226477[ebp]
	jle	SHORT $LN25@CalculateM

; 845  : 									{
; 846  : 										SetBestFriendlyRange(pLoopUnit->GetRange());

	mov	ecx, DWORD PTR _pLoopUnit$[ebp]
	call	?GetRange@CvUnit@@QBEHXZ		; CvUnit::GetRange
	mov	DWORD PTR $T226481[ebp], eax
	mov	ecx, DWORD PTR _this$[ebp]
	mov	edx, DWORD PTR $T226481[ebp]
	mov	DWORD PTR [ecx+28], edx
$LN25@CalculateM:

; 847  : 									}
; 848  : 									if(pLoopUnit->IsRangeAttackIgnoreLOS())

	mov	ecx, DWORD PTR _pLoopUnit$[ebp]
	call	?IsRangeAttackIgnoreLOS@CvUnit@@QBE_NXZ	; CvUnit::IsRangeAttackIgnoreLOS
	movzx	eax, al
	test	eax, eax
	je	SHORT $LN24@CalculateM

; 849  : 									{
; 850  : 										SetIgnoreLOS(true);

	mov	ecx, DWORD PTR _this$[ebp]
	mov	BYTE PTR [ecx+32], 1
$LN24@CalculateM:

; 851  : 									}
; 852  : 									pZone->AddFriendlyUnitCount(1);

	mov	edx, DWORD PTR _pZone$[ebp]
	mov	eax, DWORD PTR [edx+40]
	add	eax, 1
	mov	ecx, DWORD PTR _pZone$[ebp]
	mov	DWORD PTR [ecx+40], eax

; 853  : 									if(pLoopUnit->isRanged())

	mov	ecx, DWORD PTR _pLoopUnit$[ebp]
	call	?isRanged@CvUnit@@QBE_NXZ		; CvUnit::isRanged
	movzx	edx, al
	test	edx, edx
	je	SHORT $LN32@CalculateM

; 854  : 									{
; 855  : 										pZone->AddFriendlyRangedUnitCount(1);

	mov	eax, DWORD PTR _pZone$[ebp]
	mov	ecx, DWORD PTR [eax+48]
	add	ecx, 1
	mov	edx, DWORD PTR _pZone$[ebp]
	mov	DWORD PTR [edx+48], ecx
$LN32@CalculateM:

; 856  : 									}
; 857  : 								}
; 858  : 							}
; 859  : 						}
; 860  : 					}
; 861  : 				}

	jmp	$LN34@CalculateM
$LN33@CalculateM:

; 862  : 
; 863  : 				// Repeat for all visible enemy units (or adjacent to visible)
; 864  : 				for(int iPlayerLoop = 0; iPlayerLoop < MAX_CIV_PLAYERS; iPlayerLoop++)

	mov	DWORD PTR _iPlayerLoop$221713[ebp], 0
	jmp	SHORT $LN22@CalculateM
$LN21@CalculateM:
	mov	eax, DWORD PTR _iPlayerLoop$221713[ebp]
	add	eax, 1
	mov	DWORD PTR _iPlayerLoop$221713[ebp], eax
$LN22@CalculateM:
	cmp	DWORD PTR _iPlayerLoop$221713[ebp], 63	; 0000003fH
	jge	$LN39@CalculateM

; 865  : 				{
; 866  : 					CvPlayer& kPlayer = GET_PLAYER((PlayerTypes) iPlayerLoop);

	mov	ecx, DWORD PTR _iPlayerLoop$221713[ebp]
	imul	ecx, 63236				; 0000f704H
	add	ecx, DWORD PTR ?m_aPlayers@CvPlayerAI@@1PAV1@A ; CvPlayerAI::m_aPlayers
	mov	DWORD PTR _kPlayer$221717[ebp], ecx

; 867  : 					if(GET_TEAM(eTeam).isAtWar(kPlayer.getTeam()))

	mov	edx, DWORD PTR _kPlayer$221717[ebp]
	mov	eax, DWORD PTR [edx+44]
	push	eax
	call	?teamType@CvPreGame@@YA?AW4TeamTypes@@W4PlayerTypes@@@Z ; CvPreGame::teamType
	add	esp, 4
	mov	DWORD PTR $T226502[ebp], eax
	mov	ecx, DWORD PTR _eTeam$[ebp]
	imul	ecx, 2984				; 00000ba8H
	add	ecx, DWORD PTR ?m_aTeams@CvTeam@@1PAV1@A ; CvTeam::m_aTeams
	mov	DWORD PTR $T226506[ebp], ecx
	mov	edx, DWORD PTR $T226502[ebp]
	push	edx
	mov	ecx, DWORD PTR $T226506[ebp]
	call	?isAtWar@CvTeam@@QBE_NW4TeamTypes@@@Z	; CvTeam::isAtWar
	movzx	eax, al
	test	eax, eax
	je	$LN19@CalculateM

; 868  : 					{
; 869  : 						for(pLoopUnit = kPlayer.firstUnit(&iLoop); pLoopUnit != NULL; pLoopUnit = kPlayer.nextUnit(&iLoop))

	push	0
	lea	ecx, DWORD PTR _iLoop$[ebp]
	push	ecx
	mov	ecx, DWORD PTR _kPlayer$221717[ebp]
	call	?firstUnit@CvPlayer@@QAEPAVCvUnit@@PAH_N@Z ; CvPlayer::firstUnit
	mov	DWORD PTR _pLoopUnit$[ebp], eax
	jmp	SHORT $LN18@CalculateM
$LN17@CalculateM:
	push	0
	lea	edx, DWORD PTR _iLoop$[ebp]
	push	edx
	mov	ecx, DWORD PTR _kPlayer$221717[ebp]
	call	?nextUnit@CvPlayer@@QAEPAVCvUnit@@PAH_N@Z ; CvPlayer::nextUnit
	mov	DWORD PTR _pLoopUnit$[ebp], eax
$LN18@CalculateM:
	cmp	DWORD PTR _pLoopUnit$[ebp], 0
	je	$LN19@CalculateM

; 870  : 						{
; 871  : 							if(pLoopUnit->IsCombatUnit())

	mov	eax, DWORD PTR _pLoopUnit$[ebp]
	xor	ecx, ecx
	cmp	DWORD PTR [eax+1044], 0
	setg	cl
	movzx	edx, cl
	test	edx, edx
	je	$LN15@CalculateM

; 872  : 							{
; 873  : 								if(pLoopUnit->getDomainType() == DOMAIN_AIR ||
; 874  : 								        (pLoopUnit->getDomainType() == DOMAIN_LAND && !pZone->IsWater()) ||
; 875  : 								        (pLoopUnit->getDomainType() == DOMAIN_SEA && pZone->IsWater()))

	mov	ecx, DWORD PTR _pLoopUnit$[ebp]
	call	?getDomainType@CvUnit@@QBE?AW4DomainTypes@@XZ ; CvUnit::getDomainType
	cmp	eax, 1
	je	SHORT $LN13@CalculateM
	mov	ecx, DWORD PTR _pLoopUnit$[ebp]
	call	?getDomainType@CvUnit@@QBE?AW4DomainTypes@@XZ ; CvUnit::getDomainType
	cmp	eax, 2
	jne	SHORT $LN12@CalculateM
	mov	eax, DWORD PTR _pZone$[ebp]
	mov	cl, BYTE PTR [eax+68]
	mov	BYTE PTR $T226518[ebp], cl
	movzx	edx, BYTE PTR $T226518[ebp]
	test	edx, edx
	je	SHORT $LN13@CalculateM
$LN12@CalculateM:
	mov	ecx, DWORD PTR _pLoopUnit$[ebp]
	call	?getDomainType@CvUnit@@QBE?AW4DomainTypes@@XZ ; CvUnit::getDomainType
	test	eax, eax
	jne	$LN15@CalculateM
	mov	eax, DWORD PTR _pZone$[ebp]
	mov	cl, BYTE PTR [eax+68]
	mov	BYTE PTR $T226522[ebp], cl
	movzx	edx, BYTE PTR $T226522[ebp]
	test	edx, edx
	je	$LN15@CalculateM
$LN13@CalculateM:

; 876  : 								{
; 877  : 									CvPlot* pPlot;
; 878  : 									pPlot = pLoopUnit->plot();

	mov	ecx, DWORD PTR _pLoopUnit$[ebp]
	call	?plot@CvUnit@@QBEPAVCvPlot@@XZ		; CvUnit::plot
	mov	DWORD PTR _pPlot$221727[ebp], eax

; 879  : 									if(pPlot)

	cmp	DWORD PTR _pPlot$221727[ebp], 0
	je	$LN15@CalculateM

; 880  : 									{
; 881  : 										bool bVisible = true;

	mov	BYTE PTR _bVisible$221729[ebp], 1

; 882  : 										iDistance = plotDistance(pLoopUnit->getX(), pLoopUnit->getY(), pClosestCity->getX(), pClosestCity->getY());

	mov	eax, DWORD PTR _pClosestCity$[ebp]
	mov	ecx, DWORD PTR [eax+108]
	mov	DWORD PTR $T226531[ebp], ecx
	mov	edx, DWORD PTR _pClosestCity$[ebp]
	mov	eax, DWORD PTR [edx+96]
	mov	DWORD PTR $T226540[ebp], eax
	mov	ecx, DWORD PTR _pLoopUnit$[ebp]
	mov	edx, DWORD PTR [ecx+88]
	mov	DWORD PTR $T226549[ebp], edx
	mov	eax, DWORD PTR _pLoopUnit$[ebp]
	mov	ecx, DWORD PTR [eax+76]
	mov	DWORD PTR $T226558[ebp], ecx
	mov	edx, DWORD PTR $T226531[ebp]
	push	edx
	mov	eax, DWORD PTR $T226540[ebp]
	push	eax
	mov	ecx, DWORD PTR $T226549[ebp]
	push	ecx
	mov	edx, DWORD PTR $T226558[ebp]
	push	edx
	call	?plotDistance@@YAHHHHH@Z		; plotDistance
	add	esp, 16					; 00000010H
	mov	DWORD PTR _iDistance$[ebp], eax

; 883  : 										if (iDistance <= m_iTacticalRange)

	mov	eax, DWORD PTR _this$[ebp]
	mov	ecx, DWORD PTR _iDistance$[ebp]
	cmp	ecx, DWORD PTR [eax+8]
	jg	$LN15@CalculateM

; 884  : 										{
; 885  : 											iMultiplier = (m_iTacticalRange + 4 - iDistance);  // "4" so unit strength isn't totally dominated by proximity to city

	mov	edx, DWORD PTR _this$[ebp]
	mov	eax, DWORD PTR [edx+8]
	add	eax, 4
	sub	eax, DWORD PTR _iDistance$[ebp]
	mov	DWORD PTR _iMultiplier$[ebp], eax

; 886  : 											if(!pPlot->isVisible(eTeam) && !pPlot->isAdjacentVisible(eTeam, false))

	cmp	DWORD PTR _eTeam$[ebp], -1
	jne	SHORT $LN210@CalculateM
	mov	BYTE PTR $T226629[ebp], 0
	jmp	SHORT $LN208@CalculateM
$LN210@CalculateM:
	mov	ecx, DWORD PTR _pPlot$221727[ebp]
	mov	edx, DWORD PTR [ecx+156]
	mov	eax, DWORD PTR _eTeam$[ebp]
	movsx	ecx, WORD PTR [edx+eax*2]
	xor	edx, edx
	test	ecx, ecx
	setg	dl
	mov	BYTE PTR $T226629[ebp], dl
$LN208@CalculateM:
	movzx	eax, BYTE PTR $T226629[ebp]
	test	eax, eax
	jne	SHORT $LN9@CalculateM
	push	0
	mov	ecx, DWORD PTR _eTeam$[ebp]
	push	ecx
	mov	ecx, DWORD PTR _pPlot$221727[ebp]
	call	?isAdjacentVisible@CvPlot@@QBE_NW4TeamTypes@@_N@Z ; CvPlot::isAdjacentVisible
	movzx	edx, al
	test	edx, edx
	jne	SHORT $LN9@CalculateM

; 887  : 											{
; 888  : 												bVisible = false;

	mov	BYTE PTR _bVisible$221729[ebp], 0
$LN9@CalculateM:

; 889  : 											}
; 890  : 											if(iMultiplier > 0)

	cmp	DWORD PTR _iMultiplier$[ebp], 0
	jle	$LN15@CalculateM

; 891  : 											{
; 892  : 												int iUnitStrength = pLoopUnit->GetBaseCombatStrengthConsideringDamage();

	mov	ecx, DWORD PTR _pLoopUnit$[ebp]
	call	?GetBaseCombatStrengthConsideringDamage@CvUnit@@QBEHXZ ; CvUnit::GetBaseCombatStrengthConsideringDamage
	mov	DWORD PTR _iUnitStrength$221733[ebp], eax

; 893  : 												if(iUnitStrength == 0 && pLoopUnit->isEmbarked() && !pZone->IsWater())

	cmp	DWORD PTR _iUnitStrength$221733[ebp], 0
	jne	SHORT $LN7@CalculateM
	mov	eax, DWORD PTR _pLoopUnit$[ebp]
	mov	cl, BYTE PTR [eax+1652]
	mov	BYTE PTR $T226638[ebp], cl
	movzx	edx, BYTE PTR $T226638[ebp]
	test	edx, edx
	je	SHORT $LN7@CalculateM
	mov	eax, DWORD PTR _pZone$[ebp]
	mov	cl, BYTE PTR [eax+68]
	mov	BYTE PTR $T226642[ebp], cl
	movzx	edx, BYTE PTR $T226642[ebp]
	test	edx, edx
	jne	SHORT $LN7@CalculateM

; 894  : 												{
; 895  : 													iUnitStrength = pLoopUnit->GetBaseCombatStrength(true);

	push	1
	mov	ecx, DWORD PTR _pLoopUnit$[ebp]
	call	?GetBaseCombatStrength@CvUnit@@QBEH_N@Z	; CvUnit::GetBaseCombatStrength
	mov	DWORD PTR _iUnitStrength$221733[ebp], eax
$LN7@CalculateM:

; 896  : 												}
; 897  : 
; 898  : 												if(!bVisible)

	movzx	eax, BYTE PTR _bVisible$221729[ebp]
	test	eax, eax
	jne	SHORT $LN6@CalculateM

; 899  : 												{
; 900  : 													iUnitStrength /= 2;

	mov	eax, DWORD PTR _iUnitStrength$221733[ebp]
	cdq
	sub	eax, edx
	sar	eax, 1
	mov	DWORD PTR _iUnitStrength$221733[ebp], eax
$LN6@CalculateM:

; 901  : 												}
; 902  : 
; 903  : 												pZone->AddEnemyStrength(iUnitStrength * iMultiplier * m_iUnitStrengthMultiplier);

	mov	ecx, DWORD PTR _iUnitStrength$221733[ebp]
	imul	ecx, DWORD PTR _iMultiplier$[ebp]
	mov	edx, DWORD PTR _this$[ebp]
	imul	ecx, DWORD PTR [edx+4]
	mov	DWORD PTR $T226646[ebp], ecx
	mov	eax, DWORD PTR _pZone$[ebp]
	mov	ecx, DWORD PTR [eax+28]
	add	ecx, DWORD PTR $T226646[ebp]
	mov	edx, DWORD PTR _pZone$[ebp]
	mov	DWORD PTR [edx+28], ecx

; 904  : 
; 905  : 												int iRangedStrength = pLoopUnit->GetMaxRangedCombatStrength(NULL, /*pCity*/ NULL, true, true);

	push	1
	push	1
	push	0
	push	0
	mov	ecx, DWORD PTR _pLoopUnit$[ebp]
	call	?GetMaxRangedCombatStrength@CvUnit@@QBEHPBV1@PBVCvCity@@_N2@Z ; CvUnit::GetMaxRangedCombatStrength
	mov	DWORD PTR _iRangedStrength$221736[ebp], eax

; 906  : 												if(!bVisible)

	movzx	eax, BYTE PTR _bVisible$221729[ebp]
	test	eax, eax
	jne	SHORT $LN5@CalculateM

; 907  : 												{
; 908  : 													iRangedStrength /= 2;

	mov	eax, DWORD PTR _iRangedStrength$221736[ebp]
	cdq
	sub	eax, edx
	sar	eax, 1
	mov	DWORD PTR _iRangedStrength$221736[ebp], eax
$LN5@CalculateM:

; 909  : 												}
; 910  : 
; 911  : 												pZone->AddEnemyRangedStrength(iRangedStrength);

	mov	ecx, DWORD PTR _pZone$[ebp]
	mov	edx, DWORD PTR [ecx+36]
	add	edx, DWORD PTR _iRangedStrength$221736[ebp]
	mov	eax, DWORD PTR _pZone$[ebp]
	mov	DWORD PTR [eax+36], edx

; 912  : 
; 913  : 												if(bVisible)

	movzx	ecx, BYTE PTR _bVisible$221729[ebp]
	test	ecx, ecx
	je	SHORT $LN15@CalculateM

; 914  : 												{
; 915  : 													pZone->AddEnemyUnitCount(1);

	mov	edx, DWORD PTR _pZone$[ebp]
	mov	eax, DWORD PTR [edx+44]
	add	eax, 1
	mov	ecx, DWORD PTR _pZone$[ebp]
	mov	DWORD PTR [ecx+44], eax

; 916  : 													if(iDistance < pZone->GetRangeClosestEnemyUnit())

	mov	ecx, DWORD PTR _pZone$[ebp]
	call	?GetRangeClosestEnemyUnit@CvTacticalDominanceZone@@QBEHXZ ; CvTacticalDominanceZone::GetRangeClosestEnemyUnit
	cmp	DWORD PTR _iDistance$[ebp], eax
	jge	SHORT $LN3@CalculateM

; 917  : 													{
; 918  : 														pZone->SetRangeClosestEnemyUnit(iDistance);

	mov	edx, DWORD PTR _iDistance$[ebp]
	push	edx
	mov	ecx, DWORD PTR _pZone$[ebp]
	call	?SetRangeClosestEnemyUnit@CvTacticalDominanceZone@@QAEXH@Z ; CvTacticalDominanceZone::SetRangeClosestEnemyUnit
$LN3@CalculateM:

; 919  : 													}
; 920  : 													if(pLoopUnit->isRanged())

	mov	ecx, DWORD PTR _pLoopUnit$[ebp]
	call	?isRanged@CvUnit@@QBE_NXZ		; CvUnit::isRanged
	movzx	eax, al
	test	eax, eax
	je	SHORT $LN2@CalculateM

; 921  : 													{
; 922  : 														pZone->AddEnemyRangedUnitCount(1);

	mov	ecx, DWORD PTR _pZone$[ebp]
	mov	edx, DWORD PTR [ecx+52]
	add	edx, 1
	mov	eax, DWORD PTR _pZone$[ebp]
	mov	DWORD PTR [eax+52], edx
$LN2@CalculateM:

; 923  : 													}
; 924  : 													if(pLoopUnit->getDomainType() == DOMAIN_SEA)

	mov	ecx, DWORD PTR _pLoopUnit$[ebp]
	call	?getDomainType@CvUnit@@QBE?AW4DomainTypes@@XZ ; CvUnit::getDomainType
	test	eax, eax
	jne	SHORT $LN15@CalculateM

; 925  : 													{
; 926  : 														pZone->AddEnemyNavalUnitCount(1);

	mov	ecx, DWORD PTR _pZone$[ebp]
	mov	edx, DWORD PTR [ecx+56]
	add	edx, 1
	mov	eax, DWORD PTR _pZone$[ebp]
	mov	DWORD PTR [eax+56], edx
$LN15@CalculateM:

; 927  : 													}
; 928  : 												}
; 929  : 											}
; 930  : 										}
; 931  : 									}
; 932  : 								}
; 933  : 							}
; 934  : 						}

	jmp	$LN17@CalculateM
$LN19@CalculateM:

; 935  : 
; 936  : 					}
; 937  : 				}

	jmp	$LN21@CalculateM
$LN39@CalculateM:

; 938  : 			}
; 939  : 		}

	jmp	$LN41@CalculateM
$LN43@CalculateM:

; 940  : 	}
; 941  : }

	pop	esi
	mov	esp, ebp
	pop	ebp
	ret	0
?CalculateMilitaryStrengths@CvTacticalAnalysisMap@@IAEXXZ ENDP ; CvTacticalAnalysisMap::CalculateMilitaryStrengths
_TEXT	ENDS
PUBLIC	??$_Stable_sort@PAVCvTacticalDominanceZone@@HV1@@std@@YAXPAVCvTacticalDominanceZone@@0PAH0@Z ; std::_Stable_sort<CvTacticalDominanceZone *,int,CvTacticalDominanceZone>
PUBLIC	?ComputeDominance@CvTacticalAnalysisMap@@IAE?AW4eTacticalDominanceFlags@@PAVCvTacticalDominanceZone@@@Z ; CvTacticalAnalysisMap::ComputeDominance
EXTRN	?GetStateAllWars@CvDiplomacyAI@@QBE?AW4StateAllWars@@XZ:PROC ; CvDiplomacyAI::GetStateAllWars
EXTRN	?GetDiplomacyAI@CvPlayer@@QBEPAVCvDiplomacyAI@@XZ:PROC ; CvPlayer::GetDiplomacyAI
EXTRN	?isVisible@CvCity@@QBE_NW4TeamTypes@@_N@Z:PROC	; CvCity::isVisible
EXTRN	?IsTemporaryZoneCity@CvTacticalAI@@QAE_NPAVCvCity@@@Z:PROC ; CvTacticalAI::IsTemporaryZoneCity
EXTRN	?isMinorCiv@CvPlayer@@QBE_NXZ:PROC		; CvPlayer::isMinorCiv
EXTRN	?GetPlayer@CvCity@@QAEPAVCvPlayer@@XZ:PROC	; CvCity::GetPlayer
EXTRN	?isCapital@CvCity@@QBE_NXZ:PROC			; CvCity::isCapital
EXTRN	?getPopulation@CvCity@@QBEHXZ:PROC		; CvCity::getPopulation
EXTRN	__fltused:DWORD
; Function compile flags: /Odtp
;	COMDAT ?PrioritizeZones@CvTacticalAnalysisMap@@IAEXXZ
_TEXT	SEGMENT
_this$ = -244						; size = 4
$T226738 = -100						; size = 4
$T226734 = -96						; size = 4
$T226733 = -92						; size = 4
$T226726 = -88						; size = 4
$T226722 = -84						; size = 4
$T226718 = -80						; size = 4
$T226714 = -76						; size = 4
$T226710 = -72						; size = 4
$T226706 = -68						; size = 4
$T226702 = -64						; size = 4
$T226698 = -60						; size = 4
$T226694 = -53						; size = 1
$T226690 = -52						; size = 4
$T226689 = -48						; size = 4
$T226680 = -44						; size = 4
$T226671 = -40						; size = 4
$T226664 = -36						; size = 4
_iDamage$221764 = -32					; size = 4
_iMaxDamageMultiplier$221763 = -28			; size = 4
_eDominance$221753 = -24				; size = 4
_iI$221749 = -20					; size = 4
_pZone$ = -16						; size = 4
_iBaseValue$ = -12					; size = 4
_pClosestCity$ = -8					; size = 4
_iMultiplier$ = -4					; size = 4
?PrioritizeZones@CvTacticalAnalysisMap@@IAEXXZ PROC	; CvTacticalAnalysisMap::PrioritizeZones, COMDAT
; _this$ = ecx

; 945  : {

	push	ebp
	mov	ebp, esp
	sub	esp, 244				; 000000f4H
	push	esi
	mov	DWORD PTR _this$[ebp], ecx

; 946  : 	// Loop through the dominance zones
; 947  : 	CvTacticalDominanceZone* pZone;
; 948  : 	int iBaseValue;
; 949  : 	int iMultiplier;
; 950  : 	CvCity* pClosestCity = NULL;

	mov	DWORD PTR _pClosestCity$[ebp], 0

; 951  : 
; 952  : 	for(unsigned int iI = 0; iI < m_DominanceZones.size(); iI++)

	mov	DWORD PTR _iI$221749[ebp], 0
	jmp	SHORT $LN33@Prioritize
$LN32@Prioritize:
	mov	eax, DWORD PTR _iI$221749[ebp]
	add	eax, 1
	mov	DWORD PTR _iI$221749[ebp], eax
$LN33@Prioritize:
	mov	ecx, DWORD PTR _this$[ebp]
	mov	edx, DWORD PTR [ecx+116]
	mov	DWORD PTR $T226664[ebp], edx
	mov	eax, DWORD PTR _iI$221749[ebp]
	cmp	eax, DWORD PTR $T226664[ebp]
	jae	$LN31@Prioritize

; 953  : 	{
; 954  : 		// Find the zone and compute dominance here
; 955  : 		pZone = &m_DominanceZones[iI];

	mov	ecx, DWORD PTR _iI$221749[ebp]
	imul	ecx, 76					; 0000004cH
	mov	edx, DWORD PTR _this$[ebp]
	add	ecx, DWORD PTR [edx+112]
	mov	DWORD PTR _pZone$[ebp], ecx

; 956  : 		eTacticalDominanceFlags eDominance = ComputeDominance(pZone);

	mov	eax, DWORD PTR _pZone$[ebp]
	push	eax
	mov	ecx, DWORD PTR _this$[ebp]
	call	?ComputeDominance@CvTacticalAnalysisMap@@IAE?AW4eTacticalDominanceFlags@@PAVCvTacticalDominanceZone@@@Z ; CvTacticalAnalysisMap::ComputeDominance
	mov	DWORD PTR _eDominance$221753[ebp], eax

; 957  : 
; 958  : 		// Establish a base value for the region
; 959  : 		iBaseValue = 1;

	mov	DWORD PTR _iBaseValue$[ebp], 1

; 960  : 
; 961  : 		// Temporary zone?
; 962  : 		if(pZone->GetTerritoryType() == TACTICAL_TERRITORY_TEMP_ZONE)

	mov	ecx, DWORD PTR _pZone$[ebp]
	mov	edx, DWORD PTR [ecx+4]
	mov	DWORD PTR $T226671[ebp], edx
	cmp	DWORD PTR $T226671[ebp], 5
	jne	SHORT $LN30@Prioritize

; 963  : 		{
; 964  : 			iMultiplier = 1000;

	mov	DWORD PTR _iMultiplier$[ebp], 1000	; 000003e8H

; 965  : 		}
; 966  : 		else

	jmp	$LN2@Prioritize
$LN30@Prioritize:

; 967  : 		{
; 968  : 			pClosestCity = pZone->GetClosestCity();

	mov	ecx, DWORD PTR _pZone$[ebp]
	call	?GetClosestCity@CvTacticalDominanceZone@@QBEPAVCvCity@@XZ ; CvTacticalDominanceZone::GetClosestCity
	mov	DWORD PTR _pClosestCity$[ebp], eax

; 969  : 
; 970  : 			if(pClosestCity)

	cmp	DWORD PTR _pClosestCity$[ebp], 0
	je	$LN23@Prioritize

; 971  : 			{
; 972  : 				iBaseValue += (1 + (int)sqrt((float)pZone->GetClosestCity()->getPopulation()));

	mov	ecx, DWORD PTR _pZone$[ebp]
	call	?GetClosestCity@CvTacticalDominanceZone@@QBEPAVCvCity@@XZ ; CvTacticalDominanceZone::GetClosestCity
	mov	ecx, eax
	call	?getPopulation@CvCity@@QBEHXZ		; CvCity::getPopulation
	cvtsi2ss xmm0, eax
	movss	DWORD PTR $T226680[ebp], xmm0
	sqrtss	xmm0, DWORD PTR $T226680[ebp]
	cvttss2si eax, xmm0
	mov	ecx, DWORD PTR _iBaseValue$[ebp]
	lea	edx, DWORD PTR [ecx+eax+1]
	mov	DWORD PTR _iBaseValue$[ebp], edx

; 973  : 
; 974  : 				if(pClosestCity->isCapital() && !pClosestCity->GetPlayer()->isMinorCiv())

	mov	ecx, DWORD PTR _pClosestCity$[ebp]
	call	?isCapital@CvCity@@QBE_NXZ		; CvCity::isCapital
	movzx	eax, al
	test	eax, eax
	je	SHORT $LN27@Prioritize
	mov	ecx, DWORD PTR _pClosestCity$[ebp]
	call	?GetPlayer@CvCity@@QAEPAVCvPlayer@@XZ	; CvCity::GetPlayer
	mov	ecx, eax
	call	?isMinorCiv@CvPlayer@@QBE_NXZ		; CvPlayer::isMinorCiv
	movzx	ecx, al
	test	ecx, ecx
	jne	SHORT $LN27@Prioritize

; 975  : 				{
; 976  : 					iBaseValue *= 2;

	mov	edx, DWORD PTR _iBaseValue$[ebp]
	shl	edx, 1
	mov	DWORD PTR _iBaseValue$[ebp], edx
$LN27@Prioritize:

; 977  : 				}
; 978  : 
; 979  : 				if(m_pPlayer->GetTacticalAI()->IsTemporaryZoneCity(pClosestCity))

	mov	eax, DWORD PTR _pClosestCity$[ebp]
	push	eax
	mov	ecx, DWORD PTR _this$[ebp]
	mov	ecx, DWORD PTR [ecx+20]
	call	?GetTacticalAI@CvPlayer@@QBEPAVCvTacticalAI@@XZ ; CvPlayer::GetTacticalAI
	mov	ecx, eax
	call	?IsTemporaryZoneCity@CvTacticalAI@@QAE_NPAVCvCity@@@Z ; CvTacticalAI::IsTemporaryZoneCity
	movzx	edx, al
	test	edx, edx
	je	SHORT $LN26@Prioritize

; 980  : 				{
; 981  : 					iBaseValue *= 20;

	mov	eax, DWORD PTR _iBaseValue$[ebp]
	imul	eax, 20					; 00000014H
	mov	DWORD PTR _iBaseValue$[ebp], eax
	jmp	$LN23@Prioritize
$LN26@Prioritize:

; 982  : 				}
; 983  : 
; 984  : 				else if (pZone->GetClosestCity()->isVisible(m_pPlayer->getTeam(), false))

	mov	ecx, DWORD PTR _this$[ebp]
	mov	edx, DWORD PTR [ecx+20]
	mov	DWORD PTR $T226689[ebp], edx
	mov	eax, DWORD PTR $T226689[ebp]
	mov	ecx, DWORD PTR [eax+44]
	push	ecx
	call	?teamType@CvPreGame@@YA?AW4TeamTypes@@W4PlayerTypes@@@Z ; CvPreGame::teamType
	add	esp, 4
	mov	DWORD PTR $T226690[ebp], eax
	push	0
	mov	edx, DWORD PTR $T226690[ebp]
	push	edx
	mov	ecx, DWORD PTR _pZone$[ebp]
	call	?GetClosestCity@CvTacticalDominanceZone@@QBEPAVCvCity@@XZ ; CvTacticalDominanceZone::GetClosestCity
	mov	ecx, eax
	call	?isVisible@CvCity@@QBE_NW4TeamTypes@@_N@Z ; CvCity::isVisible
	movzx	eax, al
	test	eax, eax
	je	SHORT $LN23@Prioritize

; 985  : 				{
; 986  : 					iBaseValue *= 4;

	mov	ecx, DWORD PTR _iBaseValue$[ebp]
	shl	ecx, 2
	mov	DWORD PTR _iBaseValue$[ebp], ecx

; 987  : 
; 988  : 					// How damaged is this visible city?
; 989  : 					int iMaxDamageMultiplier = 10;

	mov	DWORD PTR _iMaxDamageMultiplier$221763[ebp], 10 ; 0000000aH

; 990  : 					int iDamage = pClosestCity->getDamage();

	mov	ecx, DWORD PTR _pClosestCity$[ebp]
	call	?getDamage@CvCity@@QBEHXZ		; CvCity::getDamage
	mov	DWORD PTR _iDamage$221764[ebp], eax

; 991  : 					if (iDamage > (pClosestCity->GetMaxHitPoints() / iMaxDamageMultiplier))

	mov	ecx, DWORD PTR _pClosestCity$[ebp]
	call	?GetMaxHitPoints@CvCity@@QBEHXZ		; CvCity::GetMaxHitPoints
	cdq
	idiv	DWORD PTR _iMaxDamageMultiplier$221763[ebp]
	cmp	DWORD PTR _iDamage$221764[ebp], eax
	jle	SHORT $LN23@Prioritize

; 992  : 					{
; 993  : 						iBaseValue *= (int)((iDamage + 1) * 10 / pClosestCity->GetMaxHitPoints());

	mov	esi, DWORD PTR _iDamage$221764[ebp]
	add	esi, 1
	imul	esi, 10					; 0000000aH
	mov	ecx, DWORD PTR _pClosestCity$[ebp]
	call	?GetMaxHitPoints@CvCity@@QBEHXZ		; CvCity::GetMaxHitPoints
	mov	ecx, eax
	mov	eax, esi
	cdq
	idiv	ecx
	imul	eax, DWORD PTR _iBaseValue$[ebp]
	mov	DWORD PTR _iBaseValue$[ebp], eax
$LN23@Prioritize:

; 994  : 					}
; 995  : 				}
; 996  : 			}
; 997  : 
; 998  : 			if(!pZone->IsWater())

	mov	edx, DWORD PTR _pZone$[ebp]
	mov	al, BYTE PTR [edx+68]
	mov	BYTE PTR $T226694[ebp], al
	movzx	ecx, BYTE PTR $T226694[ebp]
	test	ecx, ecx
	jne	SHORT $LN22@Prioritize

; 999  : 			{
; 1000 : 				iBaseValue *= 3;

	mov	edx, DWORD PTR _iBaseValue$[ebp]
	imul	edx, 3
	mov	DWORD PTR _iBaseValue$[ebp], edx
$LN22@Prioritize:

; 1001 : 			}
; 1002 : 
; 1003 : 			// Now compute a multiplier based on current conditions here
; 1004 : 			iMultiplier = 1;

	mov	DWORD PTR _iMultiplier$[ebp], 1

; 1005 : 			if(eDominance == TACTICAL_DOMINANCE_ENEMY)

	cmp	DWORD PTR _eDominance$221753[ebp], 2
	jne	SHORT $LN21@Prioritize

; 1006 : 			{
; 1007 : 				if(pZone->GetTerritoryType() == TACTICAL_TERRITORY_ENEMY)

	mov	eax, DWORD PTR _pZone$[ebp]
	mov	ecx, DWORD PTR [eax+4]
	mov	DWORD PTR $T226698[ebp], ecx
	cmp	DWORD PTR $T226698[ebp], 3
	jne	SHORT $LN20@Prioritize

; 1008 : 				{
; 1009 : 					iMultiplier = 2;

	mov	DWORD PTR _iMultiplier$[ebp], 2
	jmp	SHORT $LN18@Prioritize
$LN20@Prioritize:

; 1010 : 				}
; 1011 : 				else if(pZone->GetTerritoryType() == TACTICAL_TERRITORY_FRIENDLY)

	mov	edx, DWORD PTR _pZone$[ebp]
	mov	eax, DWORD PTR [edx+4]
	mov	DWORD PTR $T226702[ebp], eax
	cmp	DWORD PTR $T226702[ebp], 2
	jne	SHORT $LN18@Prioritize

; 1012 : 				{
; 1013 : 					iMultiplier = 6;

	mov	DWORD PTR _iMultiplier$[ebp], 6
$LN18@Prioritize:

; 1014 : 				}
; 1015 : 			}

	jmp	SHORT $LN8@Prioritize
$LN21@Prioritize:

; 1016 : 			else if(eDominance == TACTICAL_DOMINANCE_EVEN)

	cmp	DWORD PTR _eDominance$221753[ebp], 3
	jne	SHORT $LN16@Prioritize

; 1017 : 			{
; 1018 : 				if(pZone->GetTerritoryType() == TACTICAL_TERRITORY_ENEMY)

	mov	ecx, DWORD PTR _pZone$[ebp]
	mov	edx, DWORD PTR [ecx+4]
	mov	DWORD PTR $T226706[ebp], edx
	cmp	DWORD PTR $T226706[ebp], 3
	jne	SHORT $LN15@Prioritize

; 1019 : 				{
; 1020 : 					iMultiplier = 4;

	mov	DWORD PTR _iMultiplier$[ebp], 4
	jmp	SHORT $LN13@Prioritize
$LN15@Prioritize:

; 1021 : 				}
; 1022 : 				else if(pZone->GetTerritoryType() == TACTICAL_TERRITORY_FRIENDLY)

	mov	eax, DWORD PTR _pZone$[ebp]
	mov	ecx, DWORD PTR [eax+4]
	mov	DWORD PTR $T226710[ebp], ecx
	cmp	DWORD PTR $T226710[ebp], 2
	jne	SHORT $LN13@Prioritize

; 1023 : 				{
; 1024 : 					iMultiplier = 4;

	mov	DWORD PTR _iMultiplier$[ebp], 4
$LN13@Prioritize:

; 1025 : 				}
; 1026 : 			}

	jmp	SHORT $LN8@Prioritize
$LN16@Prioritize:

; 1027 : 			else if(eDominance == TACTICAL_DOMINANCE_FRIENDLY)

	cmp	DWORD PTR _eDominance$221753[ebp], 1
	jne	SHORT $LN8@Prioritize

; 1028 : 			{
; 1029 : 				if(pZone->GetTerritoryType() == TACTICAL_TERRITORY_ENEMY)

	mov	edx, DWORD PTR _pZone$[ebp]
	mov	eax, DWORD PTR [edx+4]
	mov	DWORD PTR $T226714[ebp], eax
	cmp	DWORD PTR $T226714[ebp], 3
	jne	SHORT $LN10@Prioritize

; 1030 : 				{
; 1031 : 					iMultiplier = 8;

	mov	DWORD PTR _iMultiplier$[ebp], 8
	jmp	SHORT $LN8@Prioritize
$LN10@Prioritize:

; 1032 : 				}
; 1033 : 				else if(pZone->GetTerritoryType() == TACTICAL_TERRITORY_FRIENDLY)

	mov	ecx, DWORD PTR _pZone$[ebp]
	mov	edx, DWORD PTR [ecx+4]
	mov	DWORD PTR $T226718[ebp], edx
	cmp	DWORD PTR $T226718[ebp], 2
	jne	SHORT $LN8@Prioritize

; 1034 : 				{
; 1035 : 					iMultiplier = 1;

	mov	DWORD PTR _iMultiplier$[ebp], 1
$LN8@Prioritize:

; 1036 : 				}
; 1037 : 			}
; 1038 : 			if(!m_pPlayer->isMinorCiv())

	mov	eax, DWORD PTR _this$[ebp]
	mov	ecx, DWORD PTR [eax+20]
	call	?isMinorCiv@CvPlayer@@QBE_NXZ		; CvPlayer::isMinorCiv
	movzx	ecx, al
	test	ecx, ecx
	jne	SHORT $LN2@Prioritize

; 1039 : 			{
; 1040 : 				if(m_pPlayer->GetDiplomacyAI()->GetStateAllWars() == STATE_ALL_WARS_WINNING)

	mov	edx, DWORD PTR _this$[ebp]
	mov	ecx, DWORD PTR [edx+20]
	call	?GetDiplomacyAI@CvPlayer@@QBEPAVCvDiplomacyAI@@XZ ; CvPlayer::GetDiplomacyAI
	mov	ecx, eax
	call	?GetStateAllWars@CvDiplomacyAI@@QBE?AW4StateAllWars@@XZ ; CvDiplomacyAI::GetStateAllWars
	cmp	eax, 1
	jne	SHORT $LN6@Prioritize

; 1041 : 				{
; 1042 : 					if(pZone->GetTerritoryType() == TACTICAL_TERRITORY_ENEMY)

	mov	eax, DWORD PTR _pZone$[ebp]
	mov	ecx, DWORD PTR [eax+4]
	mov	DWORD PTR $T226722[ebp], ecx
	cmp	DWORD PTR $T226722[ebp], 3
	jne	SHORT $LN5@Prioritize

; 1043 : 					{
; 1044 : 						iMultiplier *= 2;

	mov	edx, DWORD PTR _iMultiplier$[ebp]
	shl	edx, 1
	mov	DWORD PTR _iMultiplier$[ebp], edx
$LN5@Prioritize:

; 1045 : 					}
; 1046 : 				}

	jmp	SHORT $LN2@Prioritize
$LN6@Prioritize:

; 1047 : 				else if(m_pPlayer->GetDiplomacyAI()->GetStateAllWars() == STATE_ALL_WARS_LOSING)

	mov	eax, DWORD PTR _this$[ebp]
	mov	ecx, DWORD PTR [eax+20]
	call	?GetDiplomacyAI@CvPlayer@@QBEPAVCvDiplomacyAI@@XZ ; CvPlayer::GetDiplomacyAI
	mov	ecx, eax
	call	?GetStateAllWars@CvDiplomacyAI@@QBE?AW4StateAllWars@@XZ ; CvDiplomacyAI::GetStateAllWars
	cmp	eax, 2
	jne	SHORT $LN2@Prioritize

; 1048 : 				{
; 1049 : 					if(pZone->GetTerritoryType() == TACTICAL_TERRITORY_FRIENDLY)

	mov	ecx, DWORD PTR _pZone$[ebp]
	mov	edx, DWORD PTR [ecx+4]
	mov	DWORD PTR $T226726[ebp], edx
	cmp	DWORD PTR $T226726[ebp], 2
	jne	SHORT $LN2@Prioritize

; 1050 : 					{
; 1051 : 						iMultiplier *= 4;

	mov	eax, DWORD PTR _iMultiplier$[ebp]
	shl	eax, 2
	mov	DWORD PTR _iMultiplier$[ebp], eax
$LN2@Prioritize:

; 1052 : 					}
; 1053 : 				}
; 1054 : 			}
; 1055 : 		}
; 1056 : 
; 1057 : 		// Save off the value for this zone
; 1058 : 		if((iBaseValue * iMultiplier) <= 0)
; 1059 : 		{
; 1060 : 			FAssertMsg((iBaseValue * iMultiplier) > 0, "Invalid Dominance Zone Value");
; 1061 : 		}
; 1062 : 		pZone->SetDominanceZoneValue(iBaseValue * iMultiplier);

	mov	edx, DWORD PTR _iBaseValue$[ebp]
	imul	edx, DWORD PTR _iMultiplier$[ebp]
	mov	eax, DWORD PTR _pZone$[ebp]
	mov	DWORD PTR [eax+60], edx

; 1063 : 	}

	jmp	$LN32@Prioritize
$LN31@Prioritize:

; 1064 : 
; 1065 : 	std::stable_sort(m_DominanceZones.begin(), m_DominanceZones.end());

	mov	ecx, DWORD PTR _this$[ebp]
	add	ecx, 112				; 00000070H
	mov	DWORD PTR $T226733[ebp], ecx
	mov	edx, DWORD PTR $T226733[ebp]
	mov	eax, DWORD PTR [edx+4]
	imul	eax, 76					; 0000004cH
	mov	ecx, DWORD PTR $T226733[ebp]
	add	eax, DWORD PTR [ecx]
	mov	DWORD PTR $T226734[ebp], eax
	mov	edx, DWORD PTR _this$[ebp]
	mov	eax, DWORD PTR [edx+112]
	mov	DWORD PTR $T226738[ebp], eax
	mov	ecx, DWORD PTR $T226738[ebp]
	cmp	ecx, DWORD PTR $T226734[ebp]
	je	SHORT $LN74@Prioritize
	push	0
	push	0
	mov	edx, DWORD PTR $T226734[ebp]
	push	edx
	mov	eax, DWORD PTR $T226738[ebp]
	push	eax
	call	??$_Stable_sort@PAVCvTacticalDominanceZone@@HV1@@std@@YAXPAVCvTacticalDominanceZone@@0PAH0@Z ; std::_Stable_sort<CvTacticalDominanceZone *,int,CvTacticalDominanceZone>
	add	esp, 16					; 00000010H
$LN74@Prioritize:

; 1066 : }

	pop	esi
	mov	esp, ebp
	pop	ebp
	ret	0
?PrioritizeZones@CvTacticalAnalysisMap@@IAEXXZ ENDP	; CvTacticalAnalysisMap::PrioritizeZones
_TEXT	ENDS
PUBLIC	??1CvString@@QAE@XZ				; CvString::~CvString
PUBLIC	??_C@_07IAMPFPIC@?5?$CITemp?$CJ?$AA@		; `string'
PUBLIC	??_C@_02KEGNLNML@?0?5?$AA@			; `string'
PUBLIC	??_C@_0BB@FKBOJJDN@?0?5Temporary?5Zone?$AA@	; `string'
PUBLIC	??_C@_06DAGDBLPI@?0?5Land?$AA@			; `string'
PUBLIC	??_C@_07PJCICNNF@?0?5Water?$AA@			; `string'
PUBLIC	??_C@_0BD@PCFJBCFG@?0?5No?5Units?5Visible?$AA@	; `string'
PUBLIC	??_C@_06GAHBBME@?0?5Even?$AA@			; `string'
PUBLIC	??_C@_07DACEKBBN@?0?5Enemy?$AA@			; `string'
PUBLIC	??_C@_0L@HPDPHCOP@?0?5Friendly?$AA@		; `string'
PUBLIC	?Format@CvString@@QAAXPBDZZ			; CvString::Format
PUBLIC	??_C@_0IE@KBCDNJJP@Zone?5ID?3?5?$CFd?0?5Area?5ID?3?5?$CFd?0?5Value?3@ ; `string'
PUBLIC	__$ArrayPad$
EXTRN	?LogTacticalMessage@CvTacticalAI@@QAEXAAVCvString@@_N@Z:PROC ; CvTacticalAI::LogTacticalMessage
EXTRN	__imp_??1?$basic_string@DU?$char_traits@D@std@@V?$allocator@D@2@@std@@QAE@XZ:PROC
EXTRN	__imp_??Y?$basic_string@DU?$char_traits@D@std@@V?$allocator@D@2@@std@@QAEAAV01@ABV01@@Z:PROC
EXTRN	__imp_??$?HDU?$char_traits@D@std@@V?$allocator@D@1@@std@@YA?AV?$basic_string@DU?$char_traits@D@std@@V?$allocator@D@2@@0@PBDABV10@@Z:PROC
EXTRN	?getName@CvCity@@QBE?BVCvString@@XZ:PROC	; CvCity::getName
EXTRN	__imp_??Y?$basic_string@DU?$char_traits@D@std@@V?$allocator@D@2@@std@@QAEAAV01@PBD@Z:PROC
EXTRN	__imp_??0?$basic_string@DU?$char_traits@D@std@@V?$allocator@D@2@@std@@QAE@XZ:PROC
EXTRN	?getAILogging@CvGlobals@@QAE_NXZ:PROC		; CvGlobals::getAILogging
EXTRN	?getLogging@CvGlobals@@QAE_NXZ:PROC		; CvGlobals::getLogging
;	COMDAT ??_C@_07IAMPFPIC@?5?$CITemp?$CJ?$AA@
; File d:\sources\lekmod_git\checkout\lekmod_dll\cvgamecoredllutil\include\cvstring.h
CONST	SEGMENT
??_C@_07IAMPFPIC@?5?$CITemp?$CJ?$AA@ DB ' (Temp)', 00H	; `string'
CONST	ENDS
;	COMDAT ??_C@_02KEGNLNML@?0?5?$AA@
CONST	SEGMENT
??_C@_02KEGNLNML@?0?5?$AA@ DB ', ', 00H			; `string'
CONST	ENDS
;	COMDAT ??_C@_0BB@FKBOJJDN@?0?5Temporary?5Zone?$AA@
CONST	SEGMENT
??_C@_0BB@FKBOJJDN@?0?5Temporary?5Zone?$AA@ DB ', Temporary Zone', 00H ; `string'
CONST	ENDS
;	COMDAT ??_C@_06DAGDBLPI@?0?5Land?$AA@
CONST	SEGMENT
??_C@_06DAGDBLPI@?0?5Land?$AA@ DB ', Land', 00H		; `string'
CONST	ENDS
;	COMDAT ??_C@_07PJCICNNF@?0?5Water?$AA@
CONST	SEGMENT
??_C@_07PJCICNNF@?0?5Water?$AA@ DB ', Water', 00H	; `string'
CONST	ENDS
;	COMDAT ??_C@_0BD@PCFJBCFG@?0?5No?5Units?5Visible?$AA@
CONST	SEGMENT
??_C@_0BD@PCFJBCFG@?0?5No?5Units?5Visible?$AA@ DB ', No Units Visible', 00H ; `string'
CONST	ENDS
;	COMDAT ??_C@_06GAHBBME@?0?5Even?$AA@
CONST	SEGMENT
??_C@_06GAHBBME@?0?5Even?$AA@ DB ', Even', 00H		; `string'
CONST	ENDS
;	COMDAT ??_C@_07DACEKBBN@?0?5Enemy?$AA@
CONST	SEGMENT
??_C@_07DACEKBBN@?0?5Enemy?$AA@ DB ', Enemy', 00H	; `string'
CONST	ENDS
;	COMDAT ??_C@_0L@HPDPHCOP@?0?5Friendly?$AA@
CONST	SEGMENT
??_C@_0L@HPDPHCOP@?0?5Friendly?$AA@ DB ', Friendly', 00H ; `string'
CONST	ENDS
;	COMDAT ??_C@_0IE@KBCDNJJP@Zone?5ID?3?5?$CFd?0?5Area?5ID?3?5?$CFd?0?5Value?3@
CONST	SEGMENT
??_C@_0IE@KBCDNJJP@Zone?5ID?3?5?$CFd?0?5Area?5ID?3?5?$CFd?0?5Value?3@ DB 'Z'
	DB	'one ID: %d, Area ID: %d, Value: %d, FRIENDLY Str: %d (%d), Ra'
	DB	'nged: %d (%d), ENEMY Str: %d (%d), Ranged: %d (%d), Closest E'
	DB	'nemy: %d', 00H				; `string'
CONST	ENDS
;	COMDAT xdata$x
xdata$x	SEGMENT
__unwindtable$?LogZones@CvTacticalAnalysisMap@@IAEXXZ DD 0ffffffffH
	DD	FLAT:__unwindfunclet$?LogZones@CvTacticalAnalysisMap@@IAEXXZ$0
	DD	00H
	DD	FLAT:__unwindfunclet$?LogZones@CvTacticalAnalysisMap@@IAEXXZ$1
	DD	01H
	DD	FLAT:__unwindfunclet$?LogZones@CvTacticalAnalysisMap@@IAEXXZ$2
__ehfuncinfo$?LogZones@CvTacticalAnalysisMap@@IAEXXZ DD 019930522H
	DD	03H
	DD	FLAT:__unwindtable$?LogZones@CvTacticalAnalysisMap@@IAEXXZ
	DD	2 DUP(00H)
	DD	2 DUP(00H)
	DD	00H
	DD	01H
; Function compile flags: /Odtp
; File d:\sources\lekmod_git\checkout\lekmod_dll\cvgamecoredll_expansion2\cvtacticalanalysismap.cpp
xdata$x	ENDS
;	COMDAT ?LogZones@CvTacticalAnalysisMap@@IAEXXZ
_TEXT	SEGMENT
tv275 = -200						; size = 4
tv74 = -196						; size = 4
tv273 = -192						; size = 4
tv281 = -188						; size = 4
_this$ = -184						; size = 4
$T227015 = -180						; size = 4
$T227011 = -173						; size = 1
$T227007 = -172						; size = 4
$T227003 = -168						; size = 4
$T226999 = -164						; size = 4
$T226995 = -160						; size = 4
$T226991 = -156						; size = 4
$T226987 = -152						; size = 4
$T226983 = -148						; size = 4
$T226979 = -144						; size = 4
$T226975 = -140						; size = 4
$T226971 = -136						; size = 4
$T226967 = -132						; size = 4
$T226963 = -128						; size = 4
$T226959 = -124						; size = 4
$T226955 = -120						; size = 4
$T226951 = -116						; size = 4
$T226944 = -112						; size = 4
$T226933 = -108						; size = 28
$T226932 = -80						; size = 28
_iI$221800 = -52					; size = 4
_pZone$221799 = -48					; size = 4
_szLogMsg$221798 = -44					; size = 28
__$ArrayPad$ = -16					; size = 4
__$EHRec$ = -12						; size = 12
?LogZones@CvTacticalAnalysisMap@@IAEXXZ PROC		; CvTacticalAnalysisMap::LogZones, COMDAT
; _this$ = ecx

; 1070 : {

	push	ebp
	mov	ebp, esp
	push	-1
	push	__ehhandler$?LogZones@CvTacticalAnalysisMap@@IAEXXZ
	mov	eax, DWORD PTR fs:0
	push	eax
	sub	esp, 188				; 000000bcH
	mov	eax, DWORD PTR ___security_cookie
	xor	eax, ebp
	mov	DWORD PTR __$ArrayPad$[ebp], eax
	push	eax
	lea	eax, DWORD PTR __$EHRec$[ebp]
	mov	DWORD PTR fs:0, eax
	mov	DWORD PTR _this$[ebp], ecx

; 1071 : 	if(GC.getLogging() && GC.getAILogging())

	mov	ecx, OFFSET ?gGlobals@@3VCvGlobals@@A	; gGlobals
	call	?getLogging@CvGlobals@@QAE_NXZ		; CvGlobals::getLogging
	movzx	eax, al
	test	eax, eax
	je	$LN18@LogZones
	mov	ecx, OFFSET ?gGlobals@@3VCvGlobals@@A	; gGlobals
	call	?getAILogging@CvGlobals@@QAE_NXZ	; CvGlobals::getAILogging
	movzx	ecx, al
	test	ecx, ecx
	je	$LN18@LogZones

; 1072 : 	{
; 1073 : 		CvString szLogMsg;

	lea	ecx, DWORD PTR _szLogMsg$221798[ebp]
	call	DWORD PTR __imp_??0?$basic_string@DU?$char_traits@D@std@@V?$allocator@D@2@@std@@QAE@XZ
	mov	DWORD PTR __$EHRec$[ebp+8], 0

; 1074 : 		CvTacticalDominanceZone* pZone;
; 1075 : 
; 1076 : 		for(unsigned int iI = 0; iI < m_DominanceZones.size(); iI++)

	mov	DWORD PTR _iI$221800[ebp], 0
	jmp	SHORT $LN16@LogZones
$LN15@LogZones:
	mov	edx, DWORD PTR _iI$221800[ebp]
	add	edx, 1
	mov	DWORD PTR _iI$221800[ebp], edx
$LN16@LogZones:
	mov	eax, DWORD PTR _this$[ebp]
	mov	ecx, DWORD PTR [eax+116]
	mov	DWORD PTR $T226944[ebp], ecx
	mov	edx, DWORD PTR _iI$221800[ebp]
	cmp	edx, DWORD PTR $T226944[ebp]
	jae	$LN14@LogZones

; 1077 : 		{
; 1078 : 			pZone = &m_DominanceZones[iI];

	mov	eax, DWORD PTR _iI$221800[ebp]
	imul	eax, 76					; 0000004cH
	mov	ecx, DWORD PTR _this$[ebp]
	add	eax, DWORD PTR [ecx+112]
	mov	DWORD PTR _pZone$221799[ebp], eax

; 1079 : 
; 1080 : 			szLogMsg.Format("Zone ID: %d, Area ID: %d, Value: %d, FRIENDLY Str: %d (%d), Ranged: %d (%d), ENEMY Str: %d (%d), Ranged: %d (%d), Closest Enemy: %d",
; 1081 : 			                pZone->GetDominanceZoneID(), pZone->GetAreaID(), pZone->GetDominanceZoneValue(),
; 1082 : 			                pZone->GetFriendlyStrength(), pZone->GetFriendlyUnitCount(), pZone->GetFriendlyRangedStrength(), pZone->GetFriendlyRangedUnitCount(),
; 1083 : 			                pZone->GetEnemyStrength(), pZone->GetEnemyUnitCount(), pZone->GetEnemyRangedStrength(), pZone->GetEnemyRangedUnitCount(), pZone->GetRangeClosestEnemyUnit());

	mov	edx, DWORD PTR _pZone$221799[ebp]
	mov	eax, DWORD PTR [edx+52]
	mov	DWORD PTR $T226951[ebp], eax
	mov	ecx, DWORD PTR _pZone$221799[ebp]
	mov	edx, DWORD PTR [ecx+36]
	mov	DWORD PTR $T226955[ebp], edx
	mov	eax, DWORD PTR _pZone$221799[ebp]
	mov	ecx, DWORD PTR [eax+44]
	mov	DWORD PTR $T226959[ebp], ecx
	mov	edx, DWORD PTR _pZone$221799[ebp]
	mov	eax, DWORD PTR [edx+28]
	mov	DWORD PTR $T226963[ebp], eax
	mov	ecx, DWORD PTR _pZone$221799[ebp]
	mov	edx, DWORD PTR [ecx+48]
	mov	DWORD PTR $T226967[ebp], edx
	mov	eax, DWORD PTR _pZone$221799[ebp]
	mov	ecx, DWORD PTR [eax+32]
	mov	DWORD PTR $T226971[ebp], ecx
	mov	edx, DWORD PTR _pZone$221799[ebp]
	mov	eax, DWORD PTR [edx+40]
	mov	DWORD PTR $T226975[ebp], eax
	mov	ecx, DWORD PTR _pZone$221799[ebp]
	mov	edx, DWORD PTR [ecx+24]
	mov	DWORD PTR $T226979[ebp], edx
	mov	eax, DWORD PTR _pZone$221799[ebp]
	mov	ecx, DWORD PTR [eax+60]
	mov	DWORD PTR $T226983[ebp], ecx
	mov	edx, DWORD PTR _pZone$221799[ebp]
	mov	eax, DWORD PTR [edx+20]
	mov	DWORD PTR $T226987[ebp], eax
	mov	ecx, DWORD PTR _pZone$221799[ebp]
	mov	edx, DWORD PTR [ecx]
	mov	DWORD PTR $T226991[ebp], edx
	mov	ecx, DWORD PTR _pZone$221799[ebp]
	call	?GetRangeClosestEnemyUnit@CvTacticalDominanceZone@@QBEHXZ ; CvTacticalDominanceZone::GetRangeClosestEnemyUnit
	push	eax
	mov	eax, DWORD PTR $T226951[ebp]
	push	eax
	mov	ecx, DWORD PTR $T226955[ebp]
	push	ecx
	mov	edx, DWORD PTR $T226959[ebp]
	push	edx
	mov	eax, DWORD PTR $T226963[ebp]
	push	eax
	mov	ecx, DWORD PTR $T226967[ebp]
	push	ecx
	mov	edx, DWORD PTR $T226971[ebp]
	push	edx
	mov	eax, DWORD PTR $T226975[ebp]
	push	eax
	mov	ecx, DWORD PTR $T226979[ebp]
	push	ecx
	mov	edx, DWORD PTR $T226983[ebp]
	push	edx
	mov	eax, DWORD PTR $T226987[ebp]
	push	eax
	mov	ecx, DWORD PTR $T226991[ebp]
	push	ecx
	push	OFFSET ??_C@_0IE@KBCDNJJP@Zone?5ID?3?5?$CFd?0?5Area?5ID?3?5?$CFd?0?5Value?3@
	lea	edx, DWORD PTR _szLogMsg$221798[ebp]
	push	edx
	call	?Format@CvString@@QAAXPBDZZ		; CvString::Format
	add	esp, 56					; 00000038H

; 1084 : 			if(pZone->GetDominanceFlag() == TACTICAL_DOMINANCE_FRIENDLY)

	mov	eax, DWORD PTR _pZone$221799[ebp]
	mov	ecx, DWORD PTR [eax+8]
	mov	DWORD PTR $T226995[ebp], ecx
	cmp	DWORD PTR $T226995[ebp], 1
	jne	SHORT $LN13@LogZones

; 1085 : 			{
; 1086 : 				szLogMsg += ", Friendly";

	push	OFFSET ??_C@_0L@HPDPHCOP@?0?5Friendly?$AA@
	lea	ecx, DWORD PTR _szLogMsg$221798[ebp]
	call	DWORD PTR __imp_??Y?$basic_string@DU?$char_traits@D@std@@V?$allocator@D@2@@std@@QAEAAV01@PBD@Z
	jmp	SHORT $LN12@LogZones
$LN13@LogZones:

; 1087 : 			}
; 1088 : 			else if(pZone->GetDominanceFlag() == TACTICAL_DOMINANCE_ENEMY)

	mov	edx, DWORD PTR _pZone$221799[ebp]
	mov	eax, DWORD PTR [edx+8]
	mov	DWORD PTR $T226999[ebp], eax
	cmp	DWORD PTR $T226999[ebp], 2
	jne	SHORT $LN11@LogZones

; 1089 : 			{
; 1090 : 				szLogMsg += ", Enemy";

	push	OFFSET ??_C@_07DACEKBBN@?0?5Enemy?$AA@
	lea	ecx, DWORD PTR _szLogMsg$221798[ebp]
	call	DWORD PTR __imp_??Y?$basic_string@DU?$char_traits@D@std@@V?$allocator@D@2@@std@@QAEAAV01@PBD@Z
	jmp	SHORT $LN12@LogZones
$LN11@LogZones:

; 1091 : 			}
; 1092 : 			else if(pZone->GetDominanceFlag() == TACTICAL_DOMINANCE_EVEN)

	mov	ecx, DWORD PTR _pZone$221799[ebp]
	mov	edx, DWORD PTR [ecx+8]
	mov	DWORD PTR $T227003[ebp], edx
	cmp	DWORD PTR $T227003[ebp], 3
	jne	SHORT $LN9@LogZones

; 1093 : 			{
; 1094 : 				szLogMsg += ", Even";

	push	OFFSET ??_C@_06GAHBBME@?0?5Even?$AA@
	lea	ecx, DWORD PTR _szLogMsg$221798[ebp]
	call	DWORD PTR __imp_??Y?$basic_string@DU?$char_traits@D@std@@V?$allocator@D@2@@std@@QAEAAV01@PBD@Z
	jmp	SHORT $LN12@LogZones
$LN9@LogZones:

; 1095 : 			}
; 1096 : 			else if(pZone->GetDominanceFlag() == TACTICAL_DOMINANCE_NO_UNITS_VISIBLE)

	mov	eax, DWORD PTR _pZone$221799[ebp]
	mov	ecx, DWORD PTR [eax+8]
	mov	DWORD PTR $T227007[ebp], ecx
	cmp	DWORD PTR $T227007[ebp], 0
	jne	SHORT $LN12@LogZones

; 1097 : 			{
; 1098 : 				szLogMsg += ", No Units Visible";

	push	OFFSET ??_C@_0BD@PCFJBCFG@?0?5No?5Units?5Visible?$AA@
	lea	ecx, DWORD PTR _szLogMsg$221798[ebp]
	call	DWORD PTR __imp_??Y?$basic_string@DU?$char_traits@D@std@@V?$allocator@D@2@@std@@QAEAAV01@PBD@Z
$LN12@LogZones:

; 1099 : 			}
; 1100 : 
; 1101 : 			if(pZone->IsWater())

	mov	edx, DWORD PTR _pZone$221799[ebp]
	mov	al, BYTE PTR [edx+68]
	mov	BYTE PTR $T227011[ebp], al
	movzx	ecx, BYTE PTR $T227011[ebp]
	test	ecx, ecx
	je	SHORT $LN6@LogZones

; 1102 : 			{
; 1103 : 				szLogMsg += ", Water";

	push	OFFSET ??_C@_07PJCICNNF@?0?5Water?$AA@
	lea	ecx, DWORD PTR _szLogMsg$221798[ebp]
	call	DWORD PTR __imp_??Y?$basic_string@DU?$char_traits@D@std@@V?$allocator@D@2@@std@@QAEAAV01@PBD@Z

; 1104 : 			}
; 1105 : 			else

	jmp	SHORT $LN5@LogZones
$LN6@LogZones:

; 1106 : 			{
; 1107 : 				szLogMsg += ", Land";

	push	OFFSET ??_C@_06DAGDBLPI@?0?5Land?$AA@
	lea	ecx, DWORD PTR _szLogMsg$221798[ebp]
	call	DWORD PTR __imp_??Y?$basic_string@DU?$char_traits@D@std@@V?$allocator@D@2@@std@@QAEAAV01@PBD@Z
$LN5@LogZones:

; 1108 : 			}
; 1109 : 
; 1110 : 			if(pZone->GetTerritoryType() == TACTICAL_TERRITORY_TEMP_ZONE)

	mov	edx, DWORD PTR _pZone$221799[ebp]
	mov	eax, DWORD PTR [edx+4]
	mov	DWORD PTR $T227015[ebp], eax
	cmp	DWORD PTR $T227015[ebp], 5
	jne	SHORT $LN4@LogZones

; 1111 : 			{
; 1112 : 				szLogMsg += ", Temporary Zone";

	push	OFFSET ??_C@_0BB@FKBOJJDN@?0?5Temporary?5Zone?$AA@
	lea	ecx, DWORD PTR _szLogMsg$221798[ebp]
	call	DWORD PTR __imp_??Y?$basic_string@DU?$char_traits@D@std@@V?$allocator@D@2@@std@@QAEAAV01@PBD@Z
	jmp	$LN3@LogZones
$LN4@LogZones:

; 1113 : 			}
; 1114 : 			else if(pZone->GetClosestCity())

	mov	ecx, DWORD PTR _pZone$221799[ebp]
	call	?GetClosestCity@CvTacticalDominanceZone@@QBEPAVCvCity@@XZ ; CvTacticalDominanceZone::GetClosestCity
	test	eax, eax
	je	$LN3@LogZones

; 1115 : 			{
; 1116 : 				szLogMsg += ", " + pZone->GetClosestCity()->getName();

	lea	ecx, DWORD PTR $T226932[ebp]
	push	ecx
	mov	ecx, DWORD PTR _pZone$221799[ebp]
	call	?GetClosestCity@CvTacticalDominanceZone@@QBEPAVCvCity@@XZ ; CvTacticalDominanceZone::GetClosestCity
	mov	ecx, eax
	call	?getName@CvCity@@QBE?BVCvString@@XZ	; CvCity::getName
	mov	DWORD PTR tv281[ebp], eax
	mov	edx, DWORD PTR tv281[ebp]
	mov	DWORD PTR tv273[ebp], edx
	mov	BYTE PTR __$EHRec$[ebp+8], 1
	mov	eax, DWORD PTR tv273[ebp]
	push	eax
	push	OFFSET ??_C@_02KEGNLNML@?0?5?$AA@
	lea	ecx, DWORD PTR $T226933[ebp]
	push	ecx
	call	DWORD PTR __imp_??$?HDU?$char_traits@D@std@@V?$allocator@D@1@@std@@YA?AV?$basic_string@DU?$char_traits@D@std@@V?$allocator@D@2@@0@PBDABV10@@Z
	add	esp, 12					; 0000000cH
	mov	DWORD PTR tv74[ebp], eax
	mov	edx, DWORD PTR tv74[ebp]
	mov	DWORD PTR tv275[ebp], edx
	mov	BYTE PTR __$EHRec$[ebp+8], 2
	mov	eax, DWORD PTR tv275[ebp]
	push	eax
	lea	ecx, DWORD PTR _szLogMsg$221798[ebp]
	call	DWORD PTR __imp_??Y?$basic_string@DU?$char_traits@D@std@@V?$allocator@D@2@@std@@QAEAAV01@ABV01@@Z
	mov	BYTE PTR __$EHRec$[ebp+8], 1
	lea	ecx, DWORD PTR $T226933[ebp]
	call	DWORD PTR __imp_??1?$basic_string@DU?$char_traits@D@std@@V?$allocator@D@2@@std@@QAE@XZ
	mov	BYTE PTR __$EHRec$[ebp+8], 0
	lea	ecx, DWORD PTR $T226932[ebp]
	call	DWORD PTR __imp_??1?$basic_string@DU?$char_traits@D@std@@V?$allocator@D@2@@std@@QAE@XZ

; 1117 : 				if (m_pPlayer->GetTacticalAI()->IsTemporaryZoneCity(pZone->GetClosestCity()))

	mov	ecx, DWORD PTR _pZone$221799[ebp]
	call	?GetClosestCity@CvTacticalDominanceZone@@QBEPAVCvCity@@XZ ; CvTacticalDominanceZone::GetClosestCity
	push	eax
	mov	ecx, DWORD PTR _this$[ebp]
	mov	ecx, DWORD PTR [ecx+20]
	call	?GetTacticalAI@CvPlayer@@QBEPAVCvTacticalAI@@XZ ; CvPlayer::GetTacticalAI
	mov	ecx, eax
	call	?IsTemporaryZoneCity@CvTacticalAI@@QAE_NPAVCvCity@@@Z ; CvTacticalAI::IsTemporaryZoneCity
	movzx	edx, al
	test	edx, edx
	je	SHORT $LN3@LogZones

; 1118 : 				{
; 1119 : 					szLogMsg += " (Temp)";

	push	OFFSET ??_C@_07IAMPFPIC@?5?$CITemp?$CJ?$AA@
	lea	ecx, DWORD PTR _szLogMsg$221798[ebp]
	call	DWORD PTR __imp_??Y?$basic_string@DU?$char_traits@D@std@@V?$allocator@D@2@@std@@QAEAAV01@PBD@Z
$LN3@LogZones:

; 1120 : 				}
; 1121 : 			}
; 1122 : 
; 1123 : 			m_pPlayer->GetTacticalAI()->LogTacticalMessage(szLogMsg, true /*bSkipLogDominanceZone*/);

	push	1
	lea	eax, DWORD PTR _szLogMsg$221798[ebp]
	push	eax
	mov	ecx, DWORD PTR _this$[ebp]
	mov	ecx, DWORD PTR [ecx+20]
	call	?GetTacticalAI@CvPlayer@@QBEPAVCvTacticalAI@@XZ ; CvPlayer::GetTacticalAI
	mov	ecx, eax
	call	?LogTacticalMessage@CvTacticalAI@@QAEXAAVCvString@@_N@Z ; CvTacticalAI::LogTacticalMessage

; 1124 : 		}

	jmp	$LN15@LogZones
$LN14@LogZones:

; 1125 : 	}

	mov	DWORD PTR __$EHRec$[ebp+8], -1
	lea	ecx, DWORD PTR _szLogMsg$221798[ebp]
	call	DWORD PTR __imp_??1?$basic_string@DU?$char_traits@D@std@@V?$allocator@D@2@@std@@QAE@XZ
$LN18@LogZones:

; 1126 : }

	mov	ecx, DWORD PTR __$EHRec$[ebp]
	mov	DWORD PTR fs:0, ecx
	pop	ecx
	mov	ecx, DWORD PTR __$ArrayPad$[ebp]
	xor	ecx, ebp
	call	@__security_check_cookie@4
	mov	esp, ebp
	pop	ebp
	ret	0
_TEXT	ENDS
;	COMDAT text$x
text$x	SEGMENT
__unwindfunclet$?LogZones@CvTacticalAnalysisMap@@IAEXXZ$0:
	lea	ecx, DWORD PTR _szLogMsg$221798[ebp]
	jmp	??1CvString@@QAE@XZ			; CvString::~CvString
__unwindfunclet$?LogZones@CvTacticalAnalysisMap@@IAEXXZ$1:
	lea	ecx, DWORD PTR $T226932[ebp]
	jmp	??1CvString@@QAE@XZ			; CvString::~CvString
__unwindfunclet$?LogZones@CvTacticalAnalysisMap@@IAEXXZ$2:
	lea	ecx, DWORD PTR $T226933[ebp]
	jmp	DWORD PTR __imp_??1?$basic_string@DU?$char_traits@D@std@@V?$allocator@D@2@@std@@QAE@XZ
__ehhandler$?LogZones@CvTacticalAnalysisMap@@IAEXXZ:
	mov	edx, DWORD PTR [esp+8]
	lea	eax, DWORD PTR [edx+12]
	mov	ecx, DWORD PTR [edx-192]
	xor	ecx, eax
	call	@__security_check_cookie@4
	mov	ecx, DWORD PTR [edx-4]
	xor	ecx, eax
	call	@__security_check_cookie@4
	mov	eax, OFFSET __ehfuncinfo$?LogZones@CvTacticalAnalysisMap@@IAEXXZ
	jmp	___CxxFrameHandler3
text$x	ENDS
?LogZones@CvTacticalAnalysisMap@@IAEXXZ ENDP		; CvTacticalAnalysisMap::LogZones
; Function compile flags: /Odtp
;	COMDAT ?FindExistingZone@CvTacticalAnalysisMap@@IAEPAVCvTacticalDominanceZone@@PAVCvPlot@@@Z
_TEXT	SEGMENT
_this$ = -144						; size = 4
$T227159 = -140						; size = 4
$T227155 = -136						; size = 4
$T227151 = -132						; size = 4
$T227147 = -128						; size = 4
$T227143 = -124						; size = 4
$T227139 = -120						; size = 4
$T227135 = -116						; size = 4
$T227131 = -112						; size = 4
$T227127 = -108						; size = 4
$T227123 = -104						; size = 4
$T227119 = -100						; size = 4
$T227115 = -96						; size = 4
$T227074 = -48						; size = 4
$T227070 = -44						; size = 4
$T227066 = -40						; size = 4
$T227062 = -36						; size = 4
$T227058 = -32						; size = 4
$T227054 = -28						; size = 4
$T227050 = -24						; size = 4
$T227046 = -20						; size = 4
$T227042 = -16						; size = 4
$T227035 = -12						; size = 4
_iI$221834 = -8						; size = 4
_pZone$ = -4						; size = 4
_pPlot$ = 8						; size = 4
?FindExistingZone@CvTacticalAnalysisMap@@IAEPAVCvTacticalDominanceZone@@PAVCvPlot@@@Z PROC ; CvTacticalAnalysisMap::FindExistingZone, COMDAT
; _this$ = ecx

; 1130 : {

	push	ebp
	mov	ebp, esp
	sub	esp, 144				; 00000090H
	push	esi
	mov	DWORD PTR _this$[ebp], ecx

; 1131 : 	CvTacticalDominanceZone* pZone;
; 1132 : 
; 1133 : 	for(unsigned int iI = 0; iI < m_DominanceZones.size(); iI++)

	mov	DWORD PTR _iI$221834[ebp], 0
	jmp	SHORT $LN10@FindExisti
$LN9@FindExisti:
	mov	eax, DWORD PTR _iI$221834[ebp]
	add	eax, 1
	mov	DWORD PTR _iI$221834[ebp], eax
$LN10@FindExisti:
	mov	ecx, DWORD PTR _this$[ebp]
	mov	edx, DWORD PTR [ecx+116]
	mov	DWORD PTR $T227035[ebp], edx
	mov	eax, DWORD PTR _iI$221834[ebp]
	cmp	eax, DWORD PTR $T227035[ebp]
	jae	$LN8@FindExisti

; 1134 : 	{
; 1135 : 		pZone = &m_DominanceZones[iI];

	mov	ecx, DWORD PTR _iI$221834[ebp]
	imul	ecx, 76					; 0000004cH
	mov	edx, DWORD PTR _this$[ebp]
	add	ecx, DWORD PTR [edx+112]
	mov	DWORD PTR _pZone$[ebp], ecx

; 1136 : 
; 1137 : 		// If this is a temporary zone, matches if unowned and close enough
; 1138 : 		if((pZone->GetTerritoryType() == TACTICAL_TERRITORY_TEMP_ZONE) &&
; 1139 : 		        (m_TempZone.GetTerritoryType() == TACTICAL_TERRITORY_NO_OWNER || m_TempZone.GetTerritoryType() == TACTICAL_TERRITORY_NEUTRAL) &&
; 1140 : 		        (plotDistance(pPlot->getX(), pPlot->getY(), pZone->GetTempZoneCenter()->getX(), pZone->GetTempZoneCenter()->getY()) <= m_iTacticalRange))

	mov	eax, DWORD PTR _pZone$[ebp]
	mov	ecx, DWORD PTR [eax+4]
	mov	DWORD PTR $T227042[ebp], ecx
	cmp	DWORD PTR $T227042[ebp], 5
	jne	$LN7@FindExisti
	mov	edx, DWORD PTR _this$[ebp]
	mov	eax, DWORD PTR [edx+40]
	mov	DWORD PTR $T227046[ebp], eax
	cmp	DWORD PTR $T227046[ebp], 1
	je	SHORT $LN6@FindExisti
	mov	ecx, DWORD PTR _this$[ebp]
	mov	edx, DWORD PTR [ecx+40]
	mov	DWORD PTR $T227050[ebp], edx
	cmp	DWORD PTR $T227050[ebp], 4
	jne	SHORT $LN7@FindExisti
$LN6@FindExisti:
	mov	eax, DWORD PTR _pZone$[ebp]
	mov	ecx, DWORD PTR [eax+72]
	mov	DWORD PTR $T227054[ebp], ecx
	mov	edx, DWORD PTR $T227054[ebp]
	movsx	eax, WORD PTR [edx+2]
	mov	DWORD PTR $T227058[ebp], eax
	mov	ecx, DWORD PTR _pZone$[ebp]
	mov	edx, DWORD PTR [ecx+72]
	mov	DWORD PTR $T227062[ebp], edx
	mov	eax, DWORD PTR $T227062[ebp]
	movsx	ecx, WORD PTR [eax]
	mov	DWORD PTR $T227066[ebp], ecx
	mov	edx, DWORD PTR _pPlot$[ebp]
	movsx	eax, WORD PTR [edx+2]
	mov	DWORD PTR $T227070[ebp], eax
	mov	ecx, DWORD PTR _pPlot$[ebp]
	movsx	edx, WORD PTR [ecx]
	mov	DWORD PTR $T227074[ebp], edx
	mov	eax, DWORD PTR $T227058[ebp]
	push	eax
	mov	ecx, DWORD PTR $T227066[ebp]
	push	ecx
	mov	edx, DWORD PTR $T227070[ebp]
	push	edx
	mov	eax, DWORD PTR $T227074[ebp]
	push	eax
	call	?plotDistance@@YAHHHHH@Z		; plotDistance
	add	esp, 16					; 00000010H
	mov	ecx, DWORD PTR _this$[ebp]
	cmp	eax, DWORD PTR [ecx+8]
	jg	SHORT $LN7@FindExisti

; 1141 : 		{
; 1142 : 			return pZone;

	mov	eax, DWORD PTR _pZone$[ebp]
	jmp	$LN11@FindExisti
$LN7@FindExisti:

; 1143 : 		}
; 1144 : 
; 1145 : 		// If not friendly or enemy, just 1 zone per area
; 1146 : 		if((pZone->GetTerritoryType() == TACTICAL_TERRITORY_NO_OWNER || pZone->GetTerritoryType() == TACTICAL_TERRITORY_NEUTRAL) &&
; 1147 : 		        (m_TempZone.GetTerritoryType() == TACTICAL_TERRITORY_NO_OWNER || m_TempZone.GetTerritoryType() == TACTICAL_TERRITORY_NEUTRAL))

	mov	edx, DWORD PTR _pZone$[ebp]
	mov	eax, DWORD PTR [edx+4]
	mov	DWORD PTR $T227115[ebp], eax
	cmp	DWORD PTR $T227115[ebp], 1
	je	SHORT $LN4@FindExisti
	mov	ecx, DWORD PTR _pZone$[ebp]
	mov	edx, DWORD PTR [ecx+4]
	mov	DWORD PTR $T227119[ebp], edx
	cmp	DWORD PTR $T227119[ebp], 4
	jne	SHORT $LN5@FindExisti
$LN4@FindExisti:
	mov	eax, DWORD PTR _this$[ebp]
	mov	ecx, DWORD PTR [eax+40]
	mov	DWORD PTR $T227123[ebp], ecx
	cmp	DWORD PTR $T227123[ebp], 1
	je	SHORT $LN3@FindExisti
	mov	edx, DWORD PTR _this$[ebp]
	mov	eax, DWORD PTR [edx+40]
	mov	DWORD PTR $T227127[ebp], eax
	cmp	DWORD PTR $T227127[ebp], 4
	jne	SHORT $LN5@FindExisti
$LN3@FindExisti:

; 1148 : 		{
; 1149 : 			if(pZone->GetAreaID() == m_TempZone.GetAreaID())

	mov	ecx, DWORD PTR _pZone$[ebp]
	mov	edx, DWORD PTR [ecx+20]
	mov	DWORD PTR $T227131[ebp], edx
	mov	eax, DWORD PTR _this$[ebp]
	mov	ecx, DWORD PTR [eax+56]
	mov	DWORD PTR $T227135[ebp], ecx
	mov	edx, DWORD PTR $T227131[ebp]
	cmp	edx, DWORD PTR $T227135[ebp]
	jne	SHORT $LN5@FindExisti

; 1150 : 			{
; 1151 : 				return pZone;

	mov	eax, DWORD PTR _pZone$[ebp]
	jmp	$LN11@FindExisti
$LN5@FindExisti:

; 1152 : 			}
; 1153 : 		}
; 1154 : 
; 1155 : 		// Otherwise everything needs to match
; 1156 : 		if(pZone->GetTerritoryType() == m_TempZone.GetTerritoryType() &&
; 1157 : 		        pZone->GetOwner() == m_TempZone.GetOwner() &&
; 1158 : 		        pZone->GetAreaID() == m_TempZone.GetAreaID() &&
; 1159 : 		        pZone->GetClosestCity() == m_TempZone.GetClosestCity())

	mov	eax, DWORD PTR _pZone$[ebp]
	mov	ecx, DWORD PTR [eax+4]
	mov	DWORD PTR $T227139[ebp], ecx
	mov	edx, DWORD PTR _this$[ebp]
	mov	eax, DWORD PTR [edx+40]
	mov	DWORD PTR $T227143[ebp], eax
	mov	ecx, DWORD PTR $T227139[ebp]
	cmp	ecx, DWORD PTR $T227143[ebp]
	jne	SHORT $LN1@FindExisti
	mov	edx, DWORD PTR _pZone$[ebp]
	mov	eax, DWORD PTR [edx+12]
	mov	DWORD PTR $T227147[ebp], eax
	mov	ecx, DWORD PTR _this$[ebp]
	mov	edx, DWORD PTR [ecx+48]
	mov	DWORD PTR $T227151[ebp], edx
	mov	eax, DWORD PTR $T227147[ebp]
	cmp	eax, DWORD PTR $T227151[ebp]
	jne	SHORT $LN1@FindExisti
	mov	ecx, DWORD PTR _pZone$[ebp]
	mov	edx, DWORD PTR [ecx+20]
	mov	DWORD PTR $T227155[ebp], edx
	mov	eax, DWORD PTR _this$[ebp]
	mov	ecx, DWORD PTR [eax+56]
	mov	DWORD PTR $T227159[ebp], ecx
	mov	edx, DWORD PTR $T227155[ebp]
	cmp	edx, DWORD PTR $T227159[ebp]
	jne	SHORT $LN1@FindExisti
	mov	ecx, DWORD PTR _pZone$[ebp]
	call	?GetClosestCity@CvTacticalDominanceZone@@QBEPAVCvCity@@XZ ; CvTacticalDominanceZone::GetClosestCity
	mov	esi, eax
	mov	ecx, DWORD PTR _this$[ebp]
	add	ecx, 36					; 00000024H
	call	?GetClosestCity@CvTacticalDominanceZone@@QBEPAVCvCity@@XZ ; CvTacticalDominanceZone::GetClosestCity
	cmp	esi, eax
	jne	SHORT $LN1@FindExisti

; 1160 : 		{
; 1161 : 			return pZone;

	mov	eax, DWORD PTR _pZone$[ebp]
	jmp	SHORT $LN11@FindExisti
$LN1@FindExisti:

; 1162 : 		}
; 1163 : 	}

	jmp	$LN9@FindExisti
$LN8@FindExisti:

; 1164 : 
; 1165 : 	return NULL;

	xor	eax, eax
$LN11@FindExisti:

; 1166 : }

	pop	esi
	mov	esp, ebp
	pop	ebp
	ret	4
?FindExistingZone@CvTacticalAnalysisMap@@IAEPAVCvTacticalDominanceZone@@PAVCvPlot@@@Z ENDP ; CvTacticalAnalysisMap::FindExistingZone
_TEXT	ENDS
PUBLIC	?GetZone@CvTacticalAnalysisMap@@QAEPAVCvTacticalDominanceZone@@H@Z ; CvTacticalAnalysisMap::GetZone
; Function compile flags: /Odtp
;	COMDAT ?GetZone@CvTacticalAnalysisMap@@QAEPAVCvTacticalDominanceZone@@H@Z
_TEXT	SEGMENT
_this$ = -8						; size = 4
$T227165 = -4						; size = 4
_iIndex$ = 8						; size = 4
?GetZone@CvTacticalAnalysisMap@@QAEPAVCvTacticalDominanceZone@@H@Z PROC ; CvTacticalAnalysisMap::GetZone, COMDAT
; _this$ = ecx

; 1170 : {

	push	ebp
	mov	ebp, esp
	sub	esp, 8
	mov	DWORD PTR _this$[ebp], ecx

; 1171 : 	if(iIndex < 0 || iIndex >= (int)m_DominanceZones.size())

	cmp	DWORD PTR _iIndex$[ebp], 0
	jl	SHORT $LN1@GetZone
	mov	eax, DWORD PTR _this$[ebp]
	mov	ecx, DWORD PTR [eax+116]
	mov	DWORD PTR $T227165[ebp], ecx
	mov	edx, DWORD PTR _iIndex$[ebp]
	cmp	edx, DWORD PTR $T227165[ebp]
	jl	SHORT $LN7@GetZone
$LN1@GetZone:

; 1172 : 		return 0;

	xor	eax, eax
	jmp	SHORT $LN3@GetZone

; 1173 : 	return &m_DominanceZones[iIndex];

$LN7@GetZone:
	mov	eax, DWORD PTR _iIndex$[ebp]
	imul	eax, 76					; 0000004cH
	mov	ecx, DWORD PTR _this$[ebp]
	add	eax, DWORD PTR [ecx+112]
$LN3@GetZone:

; 1174 : }

	mov	esp, ebp
	pop	ebp
	ret	4
?GetZone@CvTacticalAnalysisMap@@QAEPAVCvTacticalDominanceZone@@H@Z ENDP ; CvTacticalAnalysisMap::GetZone
_TEXT	ENDS
PUBLIC	?GetZoneByCity@CvTacticalAnalysisMap@@QAEPAVCvTacticalDominanceZone@@PAVCvCity@@_N@Z ; CvTacticalAnalysisMap::GetZoneByCity
; Function compile flags: /Odtp
;	COMDAT ?GetZoneByCity@CvTacticalAnalysisMap@@QAEPAVCvTacticalDominanceZone@@PAVCvCity@@_N@Z
_TEXT	SEGMENT
_this$ = -20						; size = 4
$T227183 = -13						; size = 1
$T227175 = -12						; size = 4
_iI$221858 = -8						; size = 4
_pZone$ = -4						; size = 4
_pCity$ = 8						; size = 4
_bWater$ = 12						; size = 1
?GetZoneByCity@CvTacticalAnalysisMap@@QAEPAVCvTacticalDominanceZone@@PAVCvCity@@_N@Z PROC ; CvTacticalAnalysisMap::GetZoneByCity, COMDAT
; _this$ = ecx

; 1178 : {

	push	ebp
	mov	ebp, esp
	sub	esp, 20					; 00000014H
	mov	DWORD PTR _this$[ebp], ecx

; 1179 : 	CvTacticalDominanceZone* pZone;
; 1180 : 	for(int iI = 0; iI < GetNumZones(); iI++)

	mov	DWORD PTR _iI$221858[ebp], 0
	jmp	SHORT $LN4@GetZoneByC
$LN3@GetZoneByC:
	mov	eax, DWORD PTR _iI$221858[ebp]
	add	eax, 1
	mov	DWORD PTR _iI$221858[ebp], eax
$LN4@GetZoneByC:
	mov	ecx, DWORD PTR _this$[ebp]
	mov	edx, DWORD PTR [ecx+116]
	mov	DWORD PTR $T227175[ebp], edx
	mov	eax, DWORD PTR _iI$221858[ebp]
	cmp	eax, DWORD PTR $T227175[ebp]
	jge	SHORT $LN2@GetZoneByC

; 1181 : 	{
; 1182 : 		pZone = GetZone(iI);

	mov	ecx, DWORD PTR _iI$221858[ebp]
	push	ecx
	mov	ecx, DWORD PTR _this$[ebp]
	call	?GetZone@CvTacticalAnalysisMap@@QAEPAVCvTacticalDominanceZone@@H@Z ; CvTacticalAnalysisMap::GetZone
	mov	DWORD PTR _pZone$[ebp], eax

; 1183 : 		if(pZone->GetClosestCity() == pCity && pZone->IsWater() == bWater)

	mov	ecx, DWORD PTR _pZone$[ebp]
	call	?GetClosestCity@CvTacticalDominanceZone@@QBEPAVCvCity@@XZ ; CvTacticalDominanceZone::GetClosestCity
	cmp	eax, DWORD PTR _pCity$[ebp]
	jne	SHORT $LN1@GetZoneByC
	mov	edx, DWORD PTR _pZone$[ebp]
	mov	al, BYTE PTR [edx+68]
	mov	BYTE PTR $T227183[ebp], al
	movzx	ecx, BYTE PTR $T227183[ebp]
	movzx	edx, BYTE PTR _bWater$[ebp]
	cmp	ecx, edx
	jne	SHORT $LN1@GetZoneByC

; 1184 : 		{
; 1185 : 			return pZone;

	mov	eax, DWORD PTR _pZone$[ebp]
	jmp	SHORT $LN5@GetZoneByC
$LN1@GetZoneByC:

; 1186 : 		}
; 1187 : 	}

	jmp	SHORT $LN3@GetZoneByC
$LN2@GetZoneByC:

; 1188 : 
; 1189 : 	return NULL;

	xor	eax, eax
$LN5@GetZoneByC:

; 1190 : }

	mov	esp, ebp
	pop	ebp
	ret	8
?GetZoneByCity@CvTacticalAnalysisMap@@QAEPAVCvTacticalDominanceZone@@PAVCvCity@@_N@Z ENDP ; CvTacticalAnalysisMap::GetZoneByCity
_TEXT	ENDS
PUBLIC	?IsInEnemyDominatedZone@CvTacticalAnalysisMap@@QAE_NPAVCvPlot@@@Z ; CvTacticalAnalysisMap::IsInEnemyDominatedZone
; Function compile flags: /Odtp
;	COMDAT ?IsInEnemyDominatedZone@CvTacticalAnalysisMap@@QAE_NPAVCvPlot@@@Z
_TEXT	SEGMENT
_this$ = -52						; size = 4
$T227230 = -48						; size = 4
$T227226 = -44						; size = 4
$T227222 = -40						; size = 4
$T227214 = -36						; size = 4
$T227202 = -32						; size = 4
$T227197 = -28						; size = 4
$T227193 = -24						; size = 4
$T227189 = -20						; size = 4
_iI$221870 = -16					; size = 4
_iPlotIndex$ = -12					; size = 4
_pZone$ = -8						; size = 4
_pCell$ = -4						; size = 4
_pPlot$ = 8						; size = 4
?IsInEnemyDominatedZone@CvTacticalAnalysisMap@@QAE_NPAVCvPlot@@@Z PROC ; CvTacticalAnalysisMap::IsInEnemyDominatedZone, COMDAT
; _this$ = ecx

; 1194 : {

	push	ebp
	mov	ebp, esp
	sub	esp, 52					; 00000034H
	mov	DWORD PTR _this$[ebp], ecx

; 1195 : 	CvTacticalAnalysisCell* pCell;
; 1196 : 	int iPlotIndex;
; 1197 : 	CvTacticalDominanceZone* pZone;
; 1198 : 
; 1199 : 	iPlotIndex = GC.getMap().plotNum(pPlot->getX(), pPlot->getY());

	mov	eax, DWORD PTR _pPlot$[ebp]
	movsx	ecx, WORD PTR [eax+2]
	mov	DWORD PTR $T227189[ebp], ecx
	mov	edx, DWORD PTR _pPlot$[ebp]
	movsx	eax, WORD PTR [edx]
	mov	DWORD PTR $T227193[ebp], eax
	mov	ecx, DWORD PTR ?gGlobals@@3VCvGlobals@@A+52
	mov	DWORD PTR $T227197[ebp], ecx
	mov	edx, DWORD PTR $T227197[ebp]
	mov	eax, DWORD PTR [edx+4020]
	mov	DWORD PTR $T227202[ebp], eax
	mov	ecx, DWORD PTR $T227189[ebp]
	imul	ecx, DWORD PTR $T227202[ebp]
	add	ecx, DWORD PTR $T227193[ebp]
	mov	DWORD PTR _iPlotIndex$[ebp], ecx

; 1200 : 	pCell = GetCell(iPlotIndex);

	mov	edx, DWORD PTR _iPlotIndex$[ebp]
	imul	edx, 44					; 0000002cH
	mov	eax, DWORD PTR _this$[ebp]
	add	edx, DWORD PTR [eax+12]
	mov	DWORD PTR _pCell$[ebp], edx

; 1201 : 
; 1202 : 	for(int iI = 0; iI < GetNumZones(); iI++)

	mov	DWORD PTR _iI$221870[ebp], 0
	jmp	SHORT $LN4@IsInEnemyD
$LN3@IsInEnemyD:
	mov	ecx, DWORD PTR _iI$221870[ebp]
	add	ecx, 1
	mov	DWORD PTR _iI$221870[ebp], ecx
$LN4@IsInEnemyD:
	mov	edx, DWORD PTR _this$[ebp]
	mov	eax, DWORD PTR [edx+116]
	mov	DWORD PTR $T227214[ebp], eax
	mov	ecx, DWORD PTR _iI$221870[ebp]
	cmp	ecx, DWORD PTR $T227214[ebp]
	jge	SHORT $LN2@IsInEnemyD

; 1203 : 	{
; 1204 : 		pZone = GetZone(iI);

	mov	edx, DWORD PTR _iI$221870[ebp]
	push	edx
	mov	ecx, DWORD PTR _this$[ebp]
	call	?GetZone@CvTacticalAnalysisMap@@QAEPAVCvTacticalDominanceZone@@H@Z ; CvTacticalAnalysisMap::GetZone
	mov	DWORD PTR _pZone$[ebp], eax

; 1205 : 		if(pZone->GetDominanceZoneID() == pCell->GetDominanceZone())

	mov	eax, DWORD PTR _pZone$[ebp]
	mov	ecx, DWORD PTR [eax]
	mov	DWORD PTR $T227222[ebp], ecx
	mov	edx, DWORD PTR _pCell$[ebp]
	mov	eax, DWORD PTR [edx+40]
	mov	DWORD PTR $T227226[ebp], eax
	mov	ecx, DWORD PTR $T227222[ebp]
	cmp	ecx, DWORD PTR $T227226[ebp]
	jne	SHORT $LN1@IsInEnemyD

; 1206 : 		{
; 1207 : 			return (pZone->GetDominanceFlag() == TACTICAL_DOMINANCE_ENEMY);

	mov	edx, DWORD PTR _pZone$[ebp]
	mov	eax, DWORD PTR [edx+8]
	mov	DWORD PTR $T227230[ebp], eax
	xor	eax, eax
	cmp	DWORD PTR $T227230[ebp], 2
	sete	al
	jmp	SHORT $LN5@IsInEnemyD
$LN1@IsInEnemyD:

; 1208 : 		}
; 1209 : 	}

	jmp	SHORT $LN3@IsInEnemyD
$LN2@IsInEnemyD:

; 1210 : 
; 1211 : 	return false;

	xor	al, al
$LN5@IsInEnemyD:

; 1212 : }

	mov	esp, ebp
	pop	ebp
	ret	4
?IsInEnemyDominatedZone@CvTacticalAnalysisMap@@QAE_NPAVCvPlot@@@Z ENDP ; CvTacticalAnalysisMap::IsInEnemyDominatedZone
; Function compile flags: /Odtp
_TEXT	ENDS
;	COMDAT ?ComputeDominance@CvTacticalAnalysisMap@@IAE?AW4eTacticalDominanceFlags@@PAVCvTacticalDominanceZone@@@Z
_TEXT	SEGMENT
_this$ = -32						; size = 4
$T227271 = -28						; size = 4
$T227258 = -24						; size = 4
$T227254 = -20						; size = 4
$T227247 = -16						; size = 4
$T227240 = -12						; size = 4
$T227236 = -8						; size = 4
_iRatio$221883 = -4					; size = 4
_pZone$ = 8						; size = 4
?ComputeDominance@CvTacticalAnalysisMap@@IAE?AW4eTacticalDominanceFlags@@PAVCvTacticalDominanceZone@@@Z PROC ; CvTacticalAnalysisMap::ComputeDominance, COMDAT
; _this$ = ecx

; 1216 : {

	push	ebp
	mov	ebp, esp
	sub	esp, 32					; 00000020H
	mov	DWORD PTR _this$[ebp], ecx

; 1217 : 	// Look at ratio of friendly to enemy strength
; 1218 : 	if(pZone->GetTerritoryType() != TACTICAL_TERRITORY_ENEMY && pZone->GetEnemyUnitCount() <= 0)

	mov	eax, DWORD PTR _pZone$[ebp]
	mov	ecx, DWORD PTR [eax+4]
	mov	DWORD PTR $T227236[ebp], ecx
	cmp	DWORD PTR $T227236[ebp], 3
	je	SHORT $LN8@ComputeDom
	mov	edx, DWORD PTR _pZone$[ebp]
	mov	eax, DWORD PTR [edx+44]
	mov	DWORD PTR $T227240[ebp], eax
	cmp	DWORD PTR $T227240[ebp], 0
	jg	SHORT $LN8@ComputeDom

; 1219 : 	{
; 1220 : 		pZone->SetDominanceFlag(TACTICAL_DOMINANCE_NO_UNITS_VISIBLE);

	mov	ecx, DWORD PTR _pZone$[ebp]
	mov	DWORD PTR [ecx+8], 0

; 1221 : 	}
; 1222 : 
; 1223 : 	else

	jmp	SHORT $LN7@ComputeDom
$LN8@ComputeDom:

; 1224 : 	{
; 1225 : 		// Otherwise compute it by strength
; 1226 : 		if(pZone->GetEnemyStrength() <= 0)

	mov	edx, DWORD PTR _pZone$[ebp]
	mov	eax, DWORD PTR [edx+28]
	mov	DWORD PTR $T227247[ebp], eax
	cmp	DWORD PTR $T227247[ebp], 0
	jg	SHORT $LN6@ComputeDom

; 1227 : 		{
; 1228 : 			pZone->SetDominanceFlag(TACTICAL_DOMINANCE_FRIENDLY);

	mov	ecx, DWORD PTR _pZone$[ebp]
	mov	DWORD PTR [ecx+8], 1

; 1229 : 		}
; 1230 : 		else

	jmp	SHORT $LN7@ComputeDom
$LN6@ComputeDom:

; 1231 : 		{
; 1232 : 			int iRatio = (pZone->GetFriendlyStrength()  * 100) / pZone->GetEnemyStrength();

	mov	edx, DWORD PTR _pZone$[ebp]
	mov	eax, DWORD PTR [edx+24]
	mov	DWORD PTR $T227254[ebp], eax
	mov	ecx, DWORD PTR _pZone$[ebp]
	mov	edx, DWORD PTR [ecx+28]
	mov	DWORD PTR $T227258[ebp], edx
	mov	eax, DWORD PTR $T227254[ebp]
	imul	eax, 100				; 00000064H
	cdq
	idiv	DWORD PTR $T227258[ebp]
	mov	DWORD PTR _iRatio$221883[ebp], eax

; 1233 : 			if(iRatio > 100 + m_iDominancePercentage)

	mov	eax, DWORD PTR _this$[ebp]
	mov	ecx, DWORD PTR [eax]
	add	ecx, 100				; 00000064H
	cmp	DWORD PTR _iRatio$221883[ebp], ecx
	jle	SHORT $LN4@ComputeDom

; 1234 : 			{
; 1235 : 				pZone->SetDominanceFlag(TACTICAL_DOMINANCE_FRIENDLY);

	mov	edx, DWORD PTR _pZone$[ebp]
	mov	DWORD PTR [edx+8], 1

; 1236 : 			}
; 1237 : 			else if(iRatio < 100 - m_iDominancePercentage)

	jmp	SHORT $LN7@ComputeDom
$LN4@ComputeDom:
	mov	eax, DWORD PTR _this$[ebp]
	mov	ecx, 100				; 00000064H
	sub	ecx, DWORD PTR [eax]
	cmp	DWORD PTR _iRatio$221883[ebp], ecx
	jge	SHORT $LN2@ComputeDom

; 1238 : 			{
; 1239 : 				pZone->SetDominanceFlag(TACTICAL_DOMINANCE_ENEMY);

	mov	edx, DWORD PTR _pZone$[ebp]
	mov	DWORD PTR [edx+8], 2

; 1240 : 			}
; 1241 : 			else

	jmp	SHORT $LN7@ComputeDom
$LN2@ComputeDom:

; 1242 : 			{
; 1243 : 				pZone->SetDominanceFlag(TACTICAL_DOMINANCE_EVEN);

	mov	eax, DWORD PTR _pZone$[ebp]
	mov	DWORD PTR [eax+8], 3
$LN7@ComputeDom:

; 1244 : 			}
; 1245 : 		}
; 1246 : 	}
; 1247 : 
; 1248 : 	return pZone->GetDominanceFlag();

	mov	ecx, DWORD PTR _pZone$[ebp]
	mov	edx, DWORD PTR [ecx+8]
	mov	DWORD PTR $T227271[ebp], edx
	mov	eax, DWORD PTR $T227271[ebp]

; 1249 : }

	mov	esp, ebp
	pop	ebp
	ret	4
?ComputeDominance@CvTacticalAnalysisMap@@IAE?AW4eTacticalDominanceFlags@@PAVCvTacticalDominanceZone@@@Z ENDP ; CvTacticalAnalysisMap::ComputeDominance
_TEXT	ENDS
PUBLIC	??1?$BaseVector@VCvTacticalDominanceZone@@$00@@QAE@XZ ; BaseVector<CvTacticalDominanceZone,1>::~BaseVector<CvTacticalDominanceZone,1>
PUBLIC	??_C@_0FE@GLGBBJMA@d?3?2sources?2lekmod_git?2checkout?2l@ ; `string'
EXTRN	?FireMallocAlignedNoTracking@@YAPAXIIPBDH@Z:PROC ; FireMallocAlignedNoTracking
;	COMDAT ??_C@_0FE@GLGBBJMA@d?3?2sources?2lekmod_git?2checkout?2l@
; File d:\sources\lekmod_git\checkout\lekmod_dll\fireplace\include\fireworks\ffastvector.h
CONST	SEGMENT
??_C@_0FE@GLGBBJMA@d?3?2sources?2lekmod_git?2checkout?2l@ DB 'd:\sources\'
	DB	'lekmod_git\checkout\lekmod_dll\fireplace\include\fireworks\FF'
	DB	'astVector.h', 00H				; `string'
CONST	ENDS
;	COMDAT xdata$x
xdata$x	SEGMENT
__unwindtable$??0?$FStaticVector@VCvTacticalDominanceZone@@$0GO@$00$0BCJ@$0A@@@QAE@XZ DD 0ffffffffH
	DD	FLAT:__unwindfunclet$??0?$FStaticVector@VCvTacticalDominanceZone@@$0GO@$00$0BCJ@$0A@@@QAE@XZ$0
__ehfuncinfo$??0?$FStaticVector@VCvTacticalDominanceZone@@$0GO@$00$0BCJ@$0A@@@QAE@XZ DD 019930522H
	DD	01H
	DD	FLAT:__unwindtable$??0?$FStaticVector@VCvTacticalDominanceZone@@$0GO@$00$0BCJ@$0A@@@QAE@XZ
	DD	2 DUP(00H)
	DD	2 DUP(00H)
	DD	00H
	DD	01H
; Function compile flags: /Odtp
xdata$x	ENDS
;	COMDAT ??0?$FStaticVector@VCvTacticalDominanceZone@@$0GO@$00$0BCJ@$0A@@@QAE@XZ
_TEXT	SEGMENT
_this$ = -24						; size = 4
$T227284 = -20						; size = 4
_pRet$227280 = -16					; size = 4
__$EHRec$ = -12						; size = 12
??0?$FStaticVector@VCvTacticalDominanceZone@@$0GO@$00$0BCJ@$0A@@@QAE@XZ PROC ; FStaticVector<CvTacticalDominanceZone,110,1,297,0>::FStaticVector<CvTacticalDominanceZone,110,1,297,0>, COMDAT
; _this$ = ecx

; 601  : 	FStaticVector()

	push	ebp
	mov	ebp, esp
	push	-1
	push	__ehhandler$??0?$FStaticVector@VCvTacticalDominanceZone@@$0GO@$00$0BCJ@$0A@@@QAE@XZ
	mov	eax, DWORD PTR fs:0
	push	eax
	sub	esp, 12					; 0000000cH
	mov	eax, DWORD PTR ___security_cookie
	xor	eax, ebp
	push	eax
	lea	eax, DWORD PTR __$EHRec$[ebp]
	mov	DWORD PTR fs:0, eax
	mov	DWORD PTR _this$[ebp], ecx
	mov	eax, DWORD PTR _this$[ebp]
	mov	DWORD PTR [eax], 0
	mov	ecx, DWORD PTR _this$[ebp]
	mov	DWORD PTR [ecx+4], 0
	mov	edx, DWORD PTR _this$[ebp]
	mov	DWORD PTR [edx+8], 0
	mov	DWORD PTR __$EHRec$[ebp+8], 0

; 602  :     {
; 603  : 		m_uiCurrMaxSize = L;

	mov	eax, DWORD PTR _this$[ebp]
	mov	DWORD PTR [eax+8], 110			; 0000006eH

; 604  : 		m_pData = Alloc(m_uiCurrMaxSize);

	mov	ecx, DWORD PTR _this$[ebp]
	mov	edx, DWORD PTR [ecx+8]
	mov	DWORD PTR $T227284[ebp], edx
	cmp	DWORD PTR $T227284[ebp], 110		; 0000006eH
	jbe	SHORT $LN7@FStaticVec
	push	798					; 0000031eH
	push	OFFSET ??_C@_0FE@GLGBBJMA@d?3?2sources?2lekmod_git?2checkout?2l@
	push	4
	mov	eax, DWORD PTR $T227284[ebp]
	imul	eax, 76					; 0000004cH
	push	eax
	call	?FireMallocAlignedNoTracking@@YAPAXIIPBDH@Z ; FireMallocAlignedNoTracking
	add	esp, 16					; 00000010H
	mov	DWORD PTR _pRet$227280[ebp], eax
	mov	ecx, DWORD PTR _this$[ebp]
	mov	edx, DWORD PTR $T227284[ebp]
	mov	DWORD PTR [ecx+8], edx
	jmp	SHORT $LN8@FStaticVec
$LN7@FStaticVec:
	mov	eax, DWORD PTR _this$[ebp]
	add	eax, 12					; 0000000cH
	mov	DWORD PTR _pRet$227280[ebp], eax
	mov	ecx, DWORD PTR _this$[ebp]
	mov	DWORD PTR [ecx+8], 110			; 0000006eH
$LN8@FStaticVec:
	mov	edx, DWORD PTR _this$[ebp]
	mov	eax, DWORD PTR _pRet$227280[ebp]
	mov	DWORD PTR [edx], eax

; 605  : #ifdef BREAK_ON_STATIC_RESIZE
; 606  : 		m_iNumResized = 0;
; 607  : #endif
; 608  :     };

	mov	DWORD PTR __$EHRec$[ebp+8], -1
	mov	eax, DWORD PTR _this$[ebp]
	mov	ecx, DWORD PTR __$EHRec$[ebp]
	mov	DWORD PTR fs:0, ecx
	pop	ecx
	mov	esp, ebp
	pop	ebp
	ret	0
_TEXT	ENDS
;	COMDAT text$x
text$x	SEGMENT
__unwindfunclet$??0?$FStaticVector@VCvTacticalDominanceZone@@$0GO@$00$0BCJ@$0A@@@QAE@XZ$0:
	mov	ecx, DWORD PTR _this$[ebp]
	jmp	??1?$BaseVector@VCvTacticalDominanceZone@@$00@@QAE@XZ ; BaseVector<CvTacticalDominanceZone,1>::~BaseVector<CvTacticalDominanceZone,1>
__ehhandler$??0?$FStaticVector@VCvTacticalDominanceZone@@$0GO@$00$0BCJ@$0A@@@QAE@XZ:
	mov	edx, DWORD PTR [esp+8]
	lea	eax, DWORD PTR [edx+12]
	mov	ecx, DWORD PTR [edx-16]
	xor	ecx, eax
	call	@__security_check_cookie@4
	mov	eax, OFFSET __ehfuncinfo$??0?$FStaticVector@VCvTacticalDominanceZone@@$0GO@$00$0BCJ@$0A@@@QAE@XZ
	jmp	___CxxFrameHandler3
text$x	ENDS
??0?$FStaticVector@VCvTacticalDominanceZone@@$0GO@$00$0BCJ@$0A@@@QAE@XZ ENDP ; FStaticVector<CvTacticalDominanceZone,110,1,297,0>::FStaticVector<CvTacticalDominanceZone,110,1,297,0>
EXTRN	?FireFreeAlignedNoTracking@@YAXPAX@Z:PROC	; FireFreeAlignedNoTracking
;	COMDAT xdata$x
xdata$x	SEGMENT
__unwindtable$??1?$FStaticVector@VCvTacticalDominanceZone@@$0GO@$00$0BCJ@$0A@@@QAE@XZ DD 0ffffffffH
	DD	FLAT:__unwindfunclet$??1?$FStaticVector@VCvTacticalDominanceZone@@$0GO@$00$0BCJ@$0A@@@QAE@XZ$0
__ehfuncinfo$??1?$FStaticVector@VCvTacticalDominanceZone@@$0GO@$00$0BCJ@$0A@@@QAE@XZ DD 019930522H
	DD	01H
	DD	FLAT:__unwindtable$??1?$FStaticVector@VCvTacticalDominanceZone@@$0GO@$00$0BCJ@$0A@@@QAE@XZ
	DD	2 DUP(00H)
	DD	2 DUP(00H)
	DD	00H
	DD	01H
; Function compile flags: /Odtp
xdata$x	ENDS
;	COMDAT ??1?$FStaticVector@VCvTacticalDominanceZone@@$0GO@$00$0BCJ@$0A@@@QAE@XZ
_TEXT	SEGMENT
_this$ = -28						; size = 4
$T227315 = -24						; size = 4
$T227314 = -20						; size = 4
_i$227309 = -16						; size = 4
__$EHRec$ = -12						; size = 12
??1?$FStaticVector@VCvTacticalDominanceZone@@$0GO@$00$0BCJ@$0A@@@QAE@XZ PROC ; FStaticVector<CvTacticalDominanceZone,110,1,297,0>::~FStaticVector<CvTacticalDominanceZone,110,1,297,0>, COMDAT
; _this$ = ecx

; 617  : 	~FStaticVector(){

	push	ebp
	mov	ebp, esp
	push	-1
	push	__ehhandler$??1?$FStaticVector@VCvTacticalDominanceZone@@$0GO@$00$0BCJ@$0A@@@QAE@XZ
	mov	eax, DWORD PTR fs:0
	push	eax
	sub	esp, 16					; 00000010H
	mov	eax, DWORD PTR ___security_cookie
	xor	eax, ebp
	push	eax
	lea	eax, DWORD PTR __$EHRec$[ebp]
	mov	DWORD PTR fs:0, eax
	mov	DWORD PTR _this$[ebp], ecx
	mov	DWORD PTR __$EHRec$[ebp+8], 0

; 618  : 		Free(m_pData, m_uiCurrSize);

	mov	eax, DWORD PTR _this$[ebp]
	mov	ecx, DWORD PTR [eax+4]
	mov	DWORD PTR $T227315[ebp], ecx
	mov	edx, DWORD PTR _this$[ebp]
	mov	eax, DWORD PTR [edx]
	mov	DWORD PTR $T227314[ebp], eax
	xor	ecx, ecx
	je	SHORT $LN5@FStaticVec@2
	xor	edx, edx
	je	SHORT $LN5@FStaticVec@2
	mov	DWORD PTR _i$227309[ebp], 0
	jmp	SHORT $LN10@FStaticVec@2
$LN9@FStaticVec@2:
	mov	eax, DWORD PTR _i$227309[ebp]
	add	eax, 1
	mov	DWORD PTR _i$227309[ebp], eax
$LN10@FStaticVec@2:
	mov	ecx, DWORD PTR _i$227309[ebp]
	cmp	ecx, DWORD PTR $T227315[ebp]
	jae	SHORT $LN5@FStaticVec@2
	jmp	SHORT $LN9@FStaticVec@2
$LN5@FStaticVec@2:
	mov	edx, DWORD PTR _this$[ebp]
	add	edx, 12					; 0000000cH
	cmp	DWORD PTR $T227314[ebp], edx
	je	SHORT $LN1@FStaticVec@2
	mov	eax, DWORD PTR $T227314[ebp]
	push	eax
	call	?FireFreeAlignedNoTracking@@YAXPAX@Z	; FireFreeAlignedNoTracking
	add	esp, 4
$LN1@FStaticVec@2:

; 619  : 	};

	mov	DWORD PTR __$EHRec$[ebp+8], -1
	mov	ecx, DWORD PTR __$EHRec$[ebp]
	mov	DWORD PTR fs:0, ecx
	pop	ecx
	mov	esp, ebp
	pop	ebp
	ret	0
_TEXT	ENDS
;	COMDAT text$x
text$x	SEGMENT
__unwindfunclet$??1?$FStaticVector@VCvTacticalDominanceZone@@$0GO@$00$0BCJ@$0A@@@QAE@XZ$0:
	mov	ecx, DWORD PTR _this$[ebp]
	jmp	??1?$BaseVector@VCvTacticalDominanceZone@@$00@@QAE@XZ ; BaseVector<CvTacticalDominanceZone,1>::~BaseVector<CvTacticalDominanceZone,1>
__ehhandler$??1?$FStaticVector@VCvTacticalDominanceZone@@$0GO@$00$0BCJ@$0A@@@QAE@XZ:
	mov	edx, DWORD PTR [esp+8]
	lea	eax, DWORD PTR [edx+12]
	mov	ecx, DWORD PTR [edx-20]
	xor	ecx, eax
	call	@__security_check_cookie@4
	mov	eax, OFFSET __ehfuncinfo$??1?$FStaticVector@VCvTacticalDominanceZone@@$0GO@$00$0BCJ@$0A@@@QAE@XZ
	jmp	___CxxFrameHandler3
text$x	ENDS
??1?$FStaticVector@VCvTacticalDominanceZone@@$0GO@$00$0BCJ@$0A@@@QAE@XZ ENDP ; FStaticVector<CvTacticalDominanceZone,110,1,297,0>::~FStaticVector<CvTacticalDominanceZone,110,1,297,0>
PUBLIC	?GrowSize@?$FStaticVector@VCvTacticalDominanceZone@@$0GO@$00$0BCJ@$0A@@@IAEXI@Z ; FStaticVector<CvTacticalDominanceZone,110,1,297,0>::GrowSize
; Function compile flags: /Odtp
;	COMDAT ?push_back@?$FStaticVector@VCvTacticalDominanceZone@@$0GO@$00$0BCJ@$0A@@@QAEIABVCvTacticalDominanceZone@@@Z
_TEXT	SEGMENT
tv141 = -52						; size = 4
tv132 = -48						; size = 4
_this$ = -44						; size = 4
$T227327 = -4						; size = 4
_element$ = 8						; size = 4
?push_back@?$FStaticVector@VCvTacticalDominanceZone@@$0GO@$00$0BCJ@$0A@@@QAEIABVCvTacticalDominanceZone@@@Z PROC ; FStaticVector<CvTacticalDominanceZone,110,1,297,0>::push_back, COMDAT
; _this$ = ecx

; 676  : 	unsigned int push_back(const T& element){

	push	ebp
	mov	ebp, esp
	sub	esp, 52					; 00000034H
	push	esi
	push	edi
	mov	DWORD PTR _this$[ebp], ecx

; 677  : 		m_bIsResized = false;

	mov	eax, DWORD PTR _this$[ebp]
	mov	BYTE PTR [eax+8372], 0

; 678  : 		if( m_uiCurrSize == m_uiCurrMaxSize )

	mov	ecx, DWORD PTR _this$[ebp]
	mov	edx, DWORD PTR _this$[ebp]
	mov	eax, DWORD PTR [ecx+4]
	cmp	eax, DWORD PTR [edx+8]
	jne	SHORT $LN35@push_back

; 679  : 			GrowSize(m_uiCurrMaxSize);

	mov	ecx, DWORD PTR _this$[ebp]
	mov	edx, DWORD PTR [ecx+8]
	push	edx
	mov	ecx, DWORD PTR _this$[ebp]
	call	?GrowSize@?$FStaticVector@VCvTacticalDominanceZone@@$0GO@$00$0BCJ@$0A@@@IAEXI@Z ; FStaticVector<CvTacticalDominanceZone,110,1,297,0>::GrowSize

; 680  : 		new( (void*)&m_pData[m_uiCurrSize] )T(element);

$LN35@push_back:
	mov	eax, DWORD PTR _this$[ebp]
	mov	ecx, DWORD PTR [eax+4]
	imul	ecx, 76					; 0000004cH
	mov	edx, DWORD PTR _this$[ebp]
	add	ecx, DWORD PTR [edx]
	mov	DWORD PTR $T227327[ebp], ecx
	je	SHORT $LN4@push_back
	mov	esi, DWORD PTR _element$[ebp]
	mov	ecx, 19					; 00000013H
	mov	edi, DWORD PTR $T227327[ebp]
	rep movsd
	mov	eax, DWORD PTR $T227327[ebp]
	mov	DWORD PTR tv132[ebp], eax
	jmp	SHORT $LN5@push_back
$LN4@push_back:
	mov	DWORD PTR tv132[ebp], 0
$LN5@push_back:

; 681  : 		return m_uiCurrSize++;

	mov	ecx, DWORD PTR _this$[ebp]
	mov	edx, DWORD PTR [ecx+4]
	mov	DWORD PTR tv141[ebp], edx
	mov	eax, DWORD PTR _this$[ebp]
	mov	ecx, DWORD PTR [eax+4]
	add	ecx, 1
	mov	edx, DWORD PTR _this$[ebp]
	mov	DWORD PTR [edx+4], ecx
	mov	eax, DWORD PTR tv141[ebp]

; 682  : 	};

	pop	edi
	pop	esi
	mov	esp, ebp
	pop	ebp
	ret	4
?push_back@?$FStaticVector@VCvTacticalDominanceZone@@$0GO@$00$0BCJ@$0A@@@QAEIABVCvTacticalDominanceZone@@@Z ENDP ; FStaticVector<CvTacticalDominanceZone,110,1,297,0>::push_back
_TEXT	ENDS
PUBLIC	??1?$BaseVector@PAVCvUnit@@$00@@QAE@XZ		; BaseVector<CvUnit *,1>::~BaseVector<CvUnit *,1>
;	COMDAT xdata$x
xdata$x	SEGMENT
__unwindtable$??0?$FStaticVector@PAVCvUnit@@$0PK@$00$0BCJ@$0A@@@QAE@XZ DD 0ffffffffH
	DD	FLAT:__unwindfunclet$??0?$FStaticVector@PAVCvUnit@@$0PK@$00$0BCJ@$0A@@@QAE@XZ$0
__ehfuncinfo$??0?$FStaticVector@PAVCvUnit@@$0PK@$00$0BCJ@$0A@@@QAE@XZ DD 019930522H
	DD	01H
	DD	FLAT:__unwindtable$??0?$FStaticVector@PAVCvUnit@@$0PK@$00$0BCJ@$0A@@@QAE@XZ
	DD	2 DUP(00H)
	DD	2 DUP(00H)
	DD	00H
	DD	01H
; Function compile flags: /Odtp
xdata$x	ENDS
;	COMDAT ??0?$FStaticVector@PAVCvUnit@@$0PK@$00$0BCJ@$0A@@@QAE@XZ
_TEXT	SEGMENT
_this$ = -24						; size = 4
$T227381 = -20						; size = 4
_pRet$227378 = -16					; size = 4
__$EHRec$ = -12						; size = 12
??0?$FStaticVector@PAVCvUnit@@$0PK@$00$0BCJ@$0A@@@QAE@XZ PROC ; FStaticVector<CvUnit *,250,1,297,0>::FStaticVector<CvUnit *,250,1,297,0>, COMDAT
; _this$ = ecx

; 601  : 	FStaticVector()

	push	ebp
	mov	ebp, esp
	push	-1
	push	__ehhandler$??0?$FStaticVector@PAVCvUnit@@$0PK@$00$0BCJ@$0A@@@QAE@XZ
	mov	eax, DWORD PTR fs:0
	push	eax
	sub	esp, 12					; 0000000cH
	mov	eax, DWORD PTR ___security_cookie
	xor	eax, ebp
	push	eax
	lea	eax, DWORD PTR __$EHRec$[ebp]
	mov	DWORD PTR fs:0, eax
	mov	DWORD PTR _this$[ebp], ecx
	mov	eax, DWORD PTR _this$[ebp]
	mov	DWORD PTR [eax], 0
	mov	ecx, DWORD PTR _this$[ebp]
	mov	DWORD PTR [ecx+4], 0
	mov	edx, DWORD PTR _this$[ebp]
	mov	DWORD PTR [edx+8], 0
	mov	DWORD PTR __$EHRec$[ebp+8], 0

; 602  :     {
; 603  : 		m_uiCurrMaxSize = L;

	mov	eax, DWORD PTR _this$[ebp]
	mov	DWORD PTR [eax+8], 250			; 000000faH

; 604  : 		m_pData = Alloc(m_uiCurrMaxSize);

	mov	ecx, DWORD PTR _this$[ebp]
	mov	edx, DWORD PTR [ecx+8]
	mov	DWORD PTR $T227381[ebp], edx
	cmp	DWORD PTR $T227381[ebp], 250		; 000000faH
	jbe	SHORT $LN7@FStaticVec@3
	push	798					; 0000031eH
	push	OFFSET ??_C@_0FE@GLGBBJMA@d?3?2sources?2lekmod_git?2checkout?2l@
	push	4
	mov	eax, DWORD PTR $T227381[ebp]
	shl	eax, 2
	push	eax
	call	?FireMallocAlignedNoTracking@@YAPAXIIPBDH@Z ; FireMallocAlignedNoTracking
	add	esp, 16					; 00000010H
	mov	DWORD PTR _pRet$227378[ebp], eax
	mov	ecx, DWORD PTR _this$[ebp]
	mov	edx, DWORD PTR $T227381[ebp]
	mov	DWORD PTR [ecx+8], edx
	jmp	SHORT $LN8@FStaticVec@3
$LN7@FStaticVec@3:
	mov	eax, DWORD PTR _this$[ebp]
	add	eax, 12					; 0000000cH
	mov	DWORD PTR _pRet$227378[ebp], eax
	mov	ecx, DWORD PTR _this$[ebp]
	mov	DWORD PTR [ecx+8], 250			; 000000faH
$LN8@FStaticVec@3:
	mov	edx, DWORD PTR _this$[ebp]
	mov	eax, DWORD PTR _pRet$227378[ebp]
	mov	DWORD PTR [edx], eax

; 605  : #ifdef BREAK_ON_STATIC_RESIZE
; 606  : 		m_iNumResized = 0;
; 607  : #endif
; 608  :     };

	mov	DWORD PTR __$EHRec$[ebp+8], -1
	mov	eax, DWORD PTR _this$[ebp]
	mov	ecx, DWORD PTR __$EHRec$[ebp]
	mov	DWORD PTR fs:0, ecx
	pop	ecx
	mov	esp, ebp
	pop	ebp
	ret	0
_TEXT	ENDS
;	COMDAT text$x
text$x	SEGMENT
__unwindfunclet$??0?$FStaticVector@PAVCvUnit@@$0PK@$00$0BCJ@$0A@@@QAE@XZ$0:
	mov	ecx, DWORD PTR _this$[ebp]
	jmp	??1?$BaseVector@PAVCvUnit@@$00@@QAE@XZ	; BaseVector<CvUnit *,1>::~BaseVector<CvUnit *,1>
__ehhandler$??0?$FStaticVector@PAVCvUnit@@$0PK@$00$0BCJ@$0A@@@QAE@XZ:
	mov	edx, DWORD PTR [esp+8]
	lea	eax, DWORD PTR [edx+12]
	mov	ecx, DWORD PTR [edx-16]
	xor	ecx, eax
	call	@__security_check_cookie@4
	mov	eax, OFFSET __ehfuncinfo$??0?$FStaticVector@PAVCvUnit@@$0PK@$00$0BCJ@$0A@@@QAE@XZ
	jmp	___CxxFrameHandler3
text$x	ENDS
??0?$FStaticVector@PAVCvUnit@@$0PK@$00$0BCJ@$0A@@@QAE@XZ ENDP ; FStaticVector<CvUnit *,250,1,297,0>::FStaticVector<CvUnit *,250,1,297,0>
;	COMDAT xdata$x
xdata$x	SEGMENT
__unwindtable$??1?$FStaticVector@PAVCvUnit@@$0PK@$00$0BCJ@$0A@@@QAE@XZ DD 0ffffffffH
	DD	FLAT:__unwindfunclet$??1?$FStaticVector@PAVCvUnit@@$0PK@$00$0BCJ@$0A@@@QAE@XZ$0
__ehfuncinfo$??1?$FStaticVector@PAVCvUnit@@$0PK@$00$0BCJ@$0A@@@QAE@XZ DD 019930522H
	DD	01H
	DD	FLAT:__unwindtable$??1?$FStaticVector@PAVCvUnit@@$0PK@$00$0BCJ@$0A@@@QAE@XZ
	DD	2 DUP(00H)
	DD	2 DUP(00H)
	DD	00H
	DD	01H
; Function compile flags: /Odtp
xdata$x	ENDS
;	COMDAT ??1?$FStaticVector@PAVCvUnit@@$0PK@$00$0BCJ@$0A@@@QAE@XZ
_TEXT	SEGMENT
_this$ = -28						; size = 4
