; Listing generated by Microsoft (R) Optimizing Compiler Version 15.00.30729.01 

	TITLE	D:\sources\Lekmod_git\checkout\LEKMOD_DLL\CvGameCoreDLL_Expansion2\CvTeam.cpp
	.686P
	.XMM
	include listing.inc
	.model	flat

INCLUDELIB MSVCRT
INCLUDELIB OLDNAMES

PUBLIC	?NO_QUEST_DATA@CvMinorCivQuest@@2HB		; CvMinorCivQuest::NO_QUEST_DATA
PUBLIC	?NO_TURN@CvMinorCivQuest@@2HB			; CvMinorCivQuest::NO_TURN
PUBLIC	?m_aTeams@CvTeam@@1PAV1@A			; CvTeam::m_aTeams
_BSS	SEGMENT
?m_aTeams@CvTeam@@1PAV1@A DD 01H DUP (?)		; CvTeam::m_aTeams
_BSS	ENDS
;	COMDAT ?NO_TURN@CvMinorCivQuest@@2HB
CONST	SEGMENT
?NO_TURN@CvMinorCivQuest@@2HB DD 0ffffffffH		; CvMinorCivQuest::NO_TURN
CONST	ENDS
;	COMDAT ?NO_QUEST_DATA@CvMinorCivQuest@@2HB
CONST	SEGMENT
?NO_QUEST_DATA@CvMinorCivQuest@@2HB DD 0ffffffffH	; CvMinorCivQuest::NO_QUEST_DATA
CONST	ENDS
PUBLIC	??0CvTeam@@QAE@XZ				; CvTeam::CvTeam
PUBLIC	??1CvTeam@@QAE@XZ				; CvTeam::~CvTeam
PUBLIC	?initStatics@CvTeam@@SAXXZ			; CvTeam::initStatics
EXTRN	??_V@YAXPAX@Z:PROC				; operator delete[]
EXTRN	??_L@YGXPAXIHP6EX0@Z1@Z:PROC			; `eh vector constructor iterator'
EXTRN	??_U@YAPAXI@Z:PROC				; operator new[]
EXTRN	___security_cookie:DWORD
EXTRN	___CxxFrameHandler3:PROC
EXTRN	@__security_check_cookie@4:PROC
;	COMDAT xdata$x
; File d:\sources\lekmod_git\checkout\lekmod_dll\cvgamecoredll_expansion2\cvteam.cpp
xdata$x	SEGMENT
__unwindtable$?initStatics@CvTeam@@SAXXZ DD 0ffffffffH
	DD	FLAT:__unwindfunclet$?initStatics@CvTeam@@SAXXZ$0
__ehfuncinfo$?initStatics@CvTeam@@SAXXZ DD 019930522H
	DD	01H
	DD	FLAT:__unwindtable$?initStatics@CvTeam@@SAXXZ
	DD	2 DUP(00H)
	DD	2 DUP(00H)
	DD	00H
	DD	01H
; Function compile flags: /Odtp
xdata$x	ENDS
;	COMDAT ?initStatics@CvTeam@@SAXXZ
_TEXT	SEGMENT
tv76 = -28						; size = 4
$T229850 = -24						; size = 4
$T229849 = -20						; size = 4
_i$222285 = -16						; size = 4
__$EHRec$ = -12						; size = 12
?initStatics@CvTeam@@SAXXZ PROC				; CvTeam::initStatics, COMDAT

; 42   : {

	push	ebp
	mov	ebp, esp
	push	-1
	push	__ehhandler$?initStatics@CvTeam@@SAXXZ
	mov	eax, DWORD PTR fs:0
	push	eax
	sub	esp, 16					; 00000010H
	mov	eax, DWORD PTR ___security_cookie
	xor	eax, ebp
	push	eax
	lea	eax, DWORD PTR __$EHRec$[ebp]
	mov	DWORD PTR fs:0, eax

; 43   : 	m_aTeams = FNEW(CvTeam[REALLY_MAX_TEAMS], c_eCiv5GameplayDLL, 0);

	push	238724					; 0003a484H
	call	??_U@YAPAXI@Z				; operator new[]
	add	esp, 4
	mov	DWORD PTR $T229850[ebp], eax
	mov	DWORD PTR __$EHRec$[ebp+8], 0
	cmp	DWORD PTR $T229850[ebp], 0
	je	SHORT $LN6@initStatic
	mov	eax, DWORD PTR $T229850[ebp]
	mov	DWORD PTR [eax], 80			; 00000050H
	push	OFFSET ??1CvTeam@@QAE@XZ		; CvTeam::~CvTeam
	push	OFFSET ??0CvTeam@@QAE@XZ		; CvTeam::CvTeam
	push	80					; 00000050H
	push	2984					; 00000ba8H
	mov	ecx, DWORD PTR $T229850[ebp]
	add	ecx, 4
	push	ecx
	call	??_L@YGXPAXIHP6EX0@Z1@Z
	mov	edx, DWORD PTR $T229850[ebp]
	add	edx, 4
	mov	DWORD PTR tv76[ebp], edx
	jmp	SHORT $LN7@initStatic
$LN6@initStatic:
	mov	DWORD PTR tv76[ebp], 0
$LN7@initStatic:
	mov	eax, DWORD PTR tv76[ebp]
	mov	DWORD PTR $T229849[ebp], eax
	mov	DWORD PTR __$EHRec$[ebp+8], -1
	mov	ecx, DWORD PTR $T229849[ebp]
	mov	DWORD PTR ?m_aTeams@CvTeam@@1PAV1@A, ecx ; CvTeam::m_aTeams

; 44   : 
; 45   : 	for(int i = 0; i < REALLY_MAX_TEAMS; ++i)

	mov	DWORD PTR _i$222285[ebp], 0
	jmp	SHORT $LN3@initStatic
$LN2@initStatic:
	mov	edx, DWORD PTR _i$222285[ebp]
	add	edx, 1
	mov	DWORD PTR _i$222285[ebp], edx
$LN3@initStatic:
	cmp	DWORD PTR _i$222285[ebp], 80		; 00000050H
	jge	SHORT $LN4@initStatic

; 46   : 	{
; 47   : 		m_aTeams[i].m_eID = (TeamTypes)i;

	mov	eax, DWORD PTR _i$222285[ebp]
	imul	eax, 2984				; 00000ba8H
	mov	ecx, DWORD PTR ?m_aTeams@CvTeam@@1PAV1@A ; CvTeam::m_aTeams
	mov	edx, DWORD PTR _i$222285[ebp]
	mov	DWORD PTR [ecx+eax+4], edx
	jmp	SHORT $LN2@initStatic
$LN4@initStatic:

; 48   : 	}
; 49   : }

	mov	ecx, DWORD PTR __$EHRec$[ebp]
	mov	DWORD PTR fs:0, ecx
	pop	ecx
	mov	esp, ebp
	pop	ebp
	ret	0
_TEXT	ENDS
;	COMDAT text$x
text$x	SEGMENT
__unwindfunclet$?initStatics@CvTeam@@SAXXZ$0:
	mov	eax, DWORD PTR $T229850[ebp]
	push	eax
	call	??_V@YAXPAX@Z				; operator delete[]
	pop	ecx
	ret	0
__ehhandler$?initStatics@CvTeam@@SAXXZ:
	mov	edx, DWORD PTR [esp+8]
	lea	eax, DWORD PTR [edx+12]
	mov	ecx, DWORD PTR [edx-20]
	xor	ecx, eax
	call	@__security_check_cookie@4
	mov	eax, OFFSET __ehfuncinfo$?initStatics@CvTeam@@SAXXZ
	jmp	___CxxFrameHandler3
text$x	ENDS
?initStatics@CvTeam@@SAXXZ ENDP				; CvTeam::initStatics
PUBLIC	??_ECvTeam@@QAEPAXI@Z				; CvTeam::`vector deleting destructor'
EXTRN	??3@YAXPAX@Z:PROC				; operator delete
EXTRN	??_M@YGXPAXIHP6EX0@Z@Z:PROC			; `eh vector destructor iterator'
; Function compile flags: /Odtp
;	COMDAT ??_ECvTeam@@QAEPAXI@Z
_TEXT	SEGMENT
_this$ = -4						; size = 4
___flags$ = 8						; size = 4
??_ECvTeam@@QAEPAXI@Z PROC				; CvTeam::`vector deleting destructor', COMDAT
; _this$ = ecx
	push	ebp
	mov	ebp, esp
	push	ecx
	mov	DWORD PTR _this$[ebp], ecx
	mov	eax, DWORD PTR ___flags$[ebp]
	and	eax, 2
	je	SHORT $LN3@vector
	push	OFFSET ??1CvTeam@@QAE@XZ		; CvTeam::~CvTeam
	mov	ecx, DWORD PTR _this$[ebp]
	mov	edx, DWORD PTR [ecx-4]
	push	edx
	push	2984					; 00000ba8H
	mov	eax, DWORD PTR _this$[ebp]
	push	eax
	call	??_M@YGXPAXIHP6EX0@Z@Z
	mov	ecx, DWORD PTR ___flags$[ebp]
	and	ecx, 1
	je	SHORT $LN2@vector
	mov	edx, DWORD PTR _this$[ebp]
	sub	edx, 4
	push	edx
	call	??_V@YAXPAX@Z				; operator delete[]
	add	esp, 4
$LN2@vector:
	mov	eax, DWORD PTR _this$[ebp]
	sub	eax, 4
	jmp	SHORT $LN4@vector
$LN3@vector:
	mov	ecx, DWORD PTR _this$[ebp]
	call	??1CvTeam@@QAE@XZ			; CvTeam::~CvTeam
	mov	eax, DWORD PTR ___flags$[ebp]
	and	eax, 1
	je	SHORT $LN1@vector
	mov	ecx, DWORD PTR _this$[ebp]
	push	ecx
	call	??3@YAXPAX@Z				; operator delete
	add	esp, 4
$LN1@vector:
	mov	eax, DWORD PTR _this$[ebp]
$LN4@vector:
	mov	esp, ebp
	pop	ebp
	ret	4
??_ECvTeam@@QAEPAXI@Z ENDP				; CvTeam::`vector deleting destructor'
_TEXT	ENDS
PUBLIC	?freeStatics@CvTeam@@SAXXZ			; CvTeam::freeStatics
; Function compile flags: /Odtp
;	COMDAT ?freeStatics@CvTeam@@SAXXZ
_TEXT	SEGMENT
tv68 = -12						; size = 4
$T229870 = -8						; size = 4
$T229869 = -4						; size = 4
?freeStatics@CvTeam@@SAXXZ PROC				; CvTeam::freeStatics, COMDAT

; 53   : {

	push	ebp
	mov	ebp, esp
	sub	esp, 12					; 0000000cH

; 54   : 	delete[] m_aTeams;

	mov	eax, DWORD PTR ?m_aTeams@CvTeam@@1PAV1@A ; CvTeam::m_aTeams
	mov	DWORD PTR $T229870[ebp], eax
	mov	ecx, DWORD PTR $T229870[ebp]
	mov	DWORD PTR $T229869[ebp], ecx
	cmp	DWORD PTR $T229869[ebp], 0
	je	SHORT $LN3@freeStatic
	push	3
	mov	ecx, DWORD PTR $T229869[ebp]
	call	??_ECvTeam@@QAEPAXI@Z
	mov	DWORD PTR tv68[ebp], eax
	jmp	SHORT $LN4@freeStatic
$LN3@freeStatic:
	mov	DWORD PTR tv68[ebp], 0
$LN4@freeStatic:

; 55   : 	m_aTeams = NULL;

	mov	DWORD PTR ?m_aTeams@CvTeam@@1PAV1@A, 0	; CvTeam::m_aTeams

; 56   : }

	mov	esp, ebp
	pop	ebp
	ret	0
?freeStatics@CvTeam@@SAXXZ ENDP				; CvTeam::freeStatics
_TEXT	ENDS
PUBLIC	??1?$vector@W4ResourceTypes@@V?$allocator@W4ResourceTypes@@@std@@@std@@QAE@XZ ; std::vector<enum ResourceTypes,std::allocator<enum ResourceTypes> >::~vector<enum ResourceTypes,std::allocator<enum ResourceTypes> >
PUBLIC	??1?$_Vector_val@W4ResourceTypes@@V?$allocator@W4ResourceTypes@@@std@@@std@@QAE@XZ ; std::_Vector_val<enum ResourceTypes,std::allocator<enum ResourceTypes> >::~_Vector_val<enum ResourceTypes,std::allocator<enum ResourceTypes> >
PUBLIC	??1?$FAllocArrayType@HU?$FAllocArrayType@_NU?$FAllocArrayType@_NU?$FAllocArrayType@_NU?$FAllocArrayType@HU?$FAllocArrayType@HU?$FAllocArrayType@HU?$FAllocArrayType@HU?$FAllocArrayType@HU?$FAllocArrayType@HU?$FAllocArrayType@HU?$FAllocArrayType@HU?$FAllocArrayType@HU?$FAllocArrayType@HU?$FAllocArray2DType@HU?$FAllocArray2DType@HU?$FAllocArray2DType@HU?$FAllocBase@$0A@$0A@$0A@@@@@@@@@@@@@@@@@@@@@@@@@@@@@@@@@@@@@QAE@XZ ; FAllocArrayType<int,FAllocArrayType<bool,FAllocArrayType<bool,FAllocArrayType<bool,FAllocArrayType<int,FAllocArrayType<int,FAllocArrayType<int,FAllocArrayType<int,FAllocArrayType<int,FAllocArrayType<int,FAllocArrayType<int,FAllocArrayType<int,FAllocArrayType<int,FAllocArrayType<int,FAllocArray2DType<int,FAllocArray2DType<int,FAllocArray2DType<int,FAllocBase<0,0,0> > > > > > > > > > > > > > > > > >::~FAllocArrayType<int,FAllocArrayType<bool,FAllocArrayType<bool,FAllocArrayType<bool,FAllocArrayType<int,FAllocArrayType<int,FAllocArrayType<int,FAllocArrayType<int,FAllocArrayType<int,FAllocArrayType<int,FAllocArrayType<int,FAllocArrayType<int,FAllocArrayType<int,FAllocArrayType<int,FAllocArray2DType<int,FAllocArray2DType<int,FAllocArray2DType<int,FAllocBase<0,0,0> > > > > > > > > > > > > > > > > >
PUBLIC	?reset@CvTeam@@QAEXW4TeamTypes@@_N@Z		; CvTeam::reset
PUBLIC	?_Buy@?$vector@W4ResourceTypes@@V?$allocator@W4ResourceTypes@@@std@@@std@@IAE_NI@Z ; std::vector<enum ResourceTypes,std::allocator<enum ResourceTypes> >::_Buy
PUBLIC	??0?$FAllocArrayType@HU?$FAllocArrayType@HU?$FAllocArrayType@HU?$FAllocArrayType@HU?$FAllocArray2DType@HU?$FAllocArray2DType@HU?$FAllocArray2DType@HU?$FAllocBase@$0A@$0A@$0A@@@@@@@@@@@@@@@@@QAE@XZ ; FAllocArrayType<int,FAllocArrayType<int,FAllocArrayType<int,FAllocArrayType<int,FAllocArray2DType<int,FAllocArray2DType<int,FAllocArray2DType<int,FAllocBase<0,0,0> > > > > > > >::FAllocArrayType<int,FAllocArrayType<int,FAllocArrayType<int,FAllocArrayType<int,FAllocArray2DType<int,FAllocArray2DType<int,FAllocArray2DType<int,FAllocBase<0,0,0> > > > > > > >
PUBLIC	??_7CvTeam@@6B@					; CvTeam::`vftable'
PUBLIC	?Read@CvTeam@@UAEXAAVFDataStream@@@Z		; CvTeam::Read
PUBLIC	?Write@CvTeam@@UBEXAAVFDataStream@@@Z		; CvTeam::Write
EXTRN	??0CvTeamTechs@@QAE@XZ:PROC			; CvTeamTechs::CvTeamTechs
EXTRN	??2@YAPAXI@Z:PROC				; operator new
EXTRN	__CxxThrowException@8:PROC
;	COMDAT ??_7CvTeam@@6B@
; File c:\program files (x86)\microsoft visual studio 9.0\vc\include\exception
CONST	SEGMENT
??_7CvTeam@@6B@ DD FLAT:?Read@CvTeam@@UAEXAAVFDataStream@@@Z ; CvTeam::`vftable'
	DD	FLAT:?Write@CvTeam@@UBEXAAVFDataStream@@@Z
CONST	ENDS
;	COMDAT xdata$x
xdata$x	SEGMENT
__unwindtable$??0CvTeam@@QAE@XZ DD 0ffffffffH
	DD	FLAT:__unwindfunclet$??0CvTeam@@QAE@XZ$0
	DD	00H
	DD	FLAT:__unwindfunclet$??0CvTeam@@QAE@XZ$13
	DD	00H
	DD	FLAT:__unwindfunclet$??0CvTeam@@QAE@XZ$1
	DD	02H
	DD	FLAT:__unwindfunclet$??0CvTeam@@QAE@XZ$2
__ehfuncinfo$??0CvTeam@@QAE@XZ DD 019930522H
	DD	04H
	DD	FLAT:__unwindtable$??0CvTeam@@QAE@XZ
	DD	2 DUP(00H)
	DD	2 DUP(00H)
	DD	00H
	DD	01H
; Function compile flags: /Odtp
; File d:\sources\lekmod_git\checkout\lekmod_dll\cvgamecoredll_expansion2\cvteam.cpp
xdata$x	ENDS
;	COMDAT ??0CvTeam@@QAE@XZ
_TEXT	SEGMENT
tv129 = -152						; size = 4
tv274 = -148						; size = 4
tv299 = -144						; size = 4
_this$ = -140						; size = 4
$T230094 = -136						; size = 4
$T230044 = -42						; size = 1
$T230031 = -41						; size = 1
$T230027 = -40						; size = 4
$T230020 = -32						; size = 4
$T230013 = -24						; size = 4
$T229877 = -20						; size = 4
$T229876 = -16						; size = 4
__$EHRec$ = -12						; size = 12
??0CvTeam@@QAE@XZ PROC					; CvTeam::CvTeam, COMDAT
; _this$ = ecx

; 61   : {

	push	ebp
	mov	ebp, esp
	push	-1
	push	__ehhandler$??0CvTeam@@QAE@XZ
	mov	eax, DWORD PTR fs:0
	push	eax
	sub	esp, 140				; 0000008cH
	mov	eax, DWORD PTR ___security_cookie
	xor	eax, ebp
	push	eax
	lea	eax, DWORD PTR __$EHRec$[ebp]
	mov	DWORD PTR fs:0, eax
	mov	DWORD PTR _this$[ebp], ecx
	mov	eax, DWORD PTR _this$[ebp]
	mov	DWORD PTR [eax], OFFSET ??_7CvTeam@@6B@
	mov	ecx, DWORD PTR _this$[ebp]
	add	ecx, 2888				; 00000b48H
	mov	DWORD PTR $T230013[ebp], ecx
	mov	ecx, DWORD PTR $T230013[ebp]
	call	??0?$FAllocArrayType@HU?$FAllocArrayType@HU?$FAllocArrayType@HU?$FAllocArrayType@HU?$FAllocArray2DType@HU?$FAllocArray2DType@HU?$FAllocArray2DType@HU?$FAllocBase@$0A@$0A@$0A@@@@@@@@@@@@@@@@@QAE@XZ
	mov	DWORD PTR __$EHRec$[ebp+8], 0
	mov	edx, DWORD PTR _this$[ebp]
	add	edx, 2964				; 00000b94H
	mov	DWORD PTR $T230094[ebp], edx
	lea	eax, DWORD PTR $T230044[ebp]
	mov	DWORD PTR $T230020[ebp], eax
	lea	ecx, DWORD PTR $T230031[ebp]
	mov	DWORD PTR $T230027[ebp], ecx
	mov	edx, DWORD PTR $T230094[ebp]
	mov	DWORD PTR tv299[ebp], edx
	mov	eax, DWORD PTR $T230094[ebp]
	mov	DWORD PTR tv274[ebp], eax
	mov	BYTE PTR __$EHRec$[ebp+8], 1
	push	0
	mov	ecx, DWORD PTR $T230094[ebp]
	call	?_Buy@?$vector@W4ResourceTypes@@V?$allocator@W4ResourceTypes@@@std@@@std@@IAE_NI@Z ; std::vector<enum ResourceTypes,std::allocator<enum ResourceTypes> >::_Buy
	mov	BYTE PTR __$EHRec$[ebp+8], 2

; 62   : 	m_abCanLaunch = NULL;

	mov	ecx, DWORD PTR _this$[ebp]
	mov	DWORD PTR [ecx+2896], 0

; 63   : 	m_abVictoryAchieved = NULL;

	mov	edx, DWORD PTR _this$[ebp]
	mov	DWORD PTR [edx+2900], 0

; 64   : 	m_abSmallAwardAchieved = NULL;

	mov	eax, DWORD PTR _this$[ebp]
	mov	DWORD PTR [eax+2904], 0

; 65   : 
; 66   : 	m_paiRouteChange = NULL;

	mov	ecx, DWORD PTR _this$[ebp]
	mov	DWORD PTR [ecx+2908], 0

; 67   : 	m_paiBuildTimeChange = NULL;

	mov	edx, DWORD PTR _this$[ebp]
	mov	DWORD PTR [edx+2912], 0

; 68   : 	m_paiProjectCount = NULL;

	mov	eax, DWORD PTR _this$[ebp]
	mov	DWORD PTR [eax+2916], 0

; 69   : 	m_paiProjectDefaultArtTypes = NULL;

	mov	ecx, DWORD PTR _this$[ebp]
	mov	DWORD PTR [ecx+2920], 0

; 70   : 	m_pavProjectArtTypes = NULL;

	mov	edx, DWORD PTR _this$[ebp]
	mov	DWORD PTR [edx+2960], 0

; 71   : 	m_paiProjectMaking = NULL;

	mov	eax, DWORD PTR _this$[ebp]
	mov	DWORD PTR [eax+2924], 0

; 72   : 	m_paiUnitClassCount = NULL;

	mov	ecx, DWORD PTR _this$[ebp]
	mov	DWORD PTR [ecx+2928], 0

; 73   : 	m_paiBuildingClassCount = NULL;

	mov	edx, DWORD PTR _this$[ebp]
	mov	DWORD PTR [edx+2932], 0

; 74   : 	m_paiObsoleteBuildingCount = NULL;

	mov	eax, DWORD PTR _this$[ebp]
	mov	DWORD PTR [eax+2936], 0

; 75   : 	m_paiTerrainTradeCount = NULL;

	mov	ecx, DWORD PTR _this$[ebp]
	mov	DWORD PTR [ecx+2940], 0

; 76   : 	m_aiVictoryCountdown = NULL;

	mov	edx, DWORD PTR _this$[ebp]
	mov	DWORD PTR [edx+2944], 0

; 77   : 	m_aiForceTeamVoteEligibilityCount = NULL;

	mov	eax, DWORD PTR _this$[ebp]
	mov	DWORD PTR [eax+2892], 0

; 78   : 
; 79   : 	m_pTeamTechs = FNEW(CvTeamTechs, c_eCiv5GameplayDLL, 0);

	push	28					; 0000001cH
	call	??2@YAPAXI@Z				; operator new
	add	esp, 4
	mov	DWORD PTR $T229877[ebp], eax
	mov	BYTE PTR __$EHRec$[ebp+8], 3
	cmp	DWORD PTR $T229877[ebp], 0
	je	SHORT $LN3@CvTeam
	mov	ecx, DWORD PTR $T229877[ebp]
	call	??0CvTeamTechs@@QAE@XZ			; CvTeamTechs::CvTeamTechs
	mov	DWORD PTR tv129[ebp], eax
	jmp	SHORT $LN4@CvTeam
$LN3@CvTeam:
	mov	DWORD PTR tv129[ebp], 0
$LN4@CvTeam:
	mov	ecx, DWORD PTR tv129[ebp]
	mov	DWORD PTR $T229876[ebp], ecx
	mov	BYTE PTR __$EHRec$[ebp+8], 2
	mov	edx, DWORD PTR _this$[ebp]
	mov	eax, DWORD PTR $T229876[ebp]
	mov	DWORD PTR [edx+2980], eax

; 80   : 
; 81   : 	m_ppaaiImprovementYieldChange = NULL;

	mov	ecx, DWORD PTR _this$[ebp]
	mov	DWORD PTR [ecx+2948], 0

; 82   : 	m_ppaaiImprovementNoFreshWaterYieldChange = NULL;

	mov	edx, DWORD PTR _this$[ebp]
	mov	DWORD PTR [edx+2952], 0

; 83   : 	m_ppaaiImprovementFreshWaterYieldChange = NULL;

	mov	eax, DWORD PTR _this$[ebp]
	mov	DWORD PTR [eax+2956], 0

; 84   : 
; 85   : 	reset((TeamTypes)0, true);

	push	1
	push	0
	mov	ecx, DWORD PTR _this$[ebp]
	call	?reset@CvTeam@@QAEXW4TeamTypes@@_N@Z	; CvTeam::reset

; 86   : }

	mov	DWORD PTR __$EHRec$[ebp+8], -1
	mov	eax, DWORD PTR _this$[ebp]
	mov	ecx, DWORD PTR __$EHRec$[ebp]
	mov	DWORD PTR fs:0, ecx
	pop	ecx
	mov	esp, ebp
	pop	ebp
	ret	0
_TEXT	ENDS
;	COMDAT text$x
text$x	SEGMENT
__unwindfunclet$??0CvTeam@@QAE@XZ$0:
	mov	ecx, DWORD PTR _this$[ebp]
	add	ecx, 2888				; 00000b48H
	jmp	??1?$FAllocArrayType@HU?$FAllocArrayType@_NU?$FAllocArrayType@_NU?$FAllocArrayType@_NU?$FAllocArrayType@HU?$FAllocArrayType@HU?$FAllocArrayType@HU?$FAllocArrayType@HU?$FAllocArrayType@HU?$FAllocArrayType@HU?$FAllocArrayType@HU?$FAllocArrayType@HU?$FAllocArrayType@HU?$FAllocArrayType@HU?$FAllocArray2DType@HU?$FAllocArray2DType@HU?$FAllocArray2DType@HU?$FAllocBase@$0A@$0A@$0A@@@@@@@@@@@@@@@@@@@@@@@@@@@@@@@@@@@@@QAE@XZ
__unwindfunclet$??0CvTeam@@QAE@XZ$13:
	mov	ecx, DWORD PTR $T230094[ebp]
	jmp	??1?$_Vector_val@W4ResourceTypes@@V?$allocator@W4ResourceTypes@@@std@@@std@@QAE@XZ
__unwindfunclet$??0CvTeam@@QAE@XZ$1:
	mov	ecx, DWORD PTR _this$[ebp]
	add	ecx, 2964				; 00000b94H
	jmp	??1?$vector@W4ResourceTypes@@V?$allocator@W4ResourceTypes@@@std@@@std@@QAE@XZ ; std::vector<enum ResourceTypes,std::allocator<enum ResourceTypes> >::~vector<enum ResourceTypes,std::allocator<enum ResourceTypes> >
__unwindfunclet$??0CvTeam@@QAE@XZ$2:
	mov	eax, DWORD PTR $T229877[ebp]
	push	eax
	call	??3@YAXPAX@Z				; operator delete
	pop	ecx
	ret	0
__ehhandler$??0CvTeam@@QAE@XZ:
	mov	edx, DWORD PTR [esp+8]
	lea	eax, DWORD PTR [edx+12]
	mov	ecx, DWORD PTR [edx-144]
	xor	ecx, eax
	call	@__security_check_cookie@4
	mov	eax, OFFSET __ehfuncinfo$??0CvTeam@@QAE@XZ
	jmp	___CxxFrameHandler3
text$x	ENDS
??0CvTeam@@QAE@XZ ENDP					; CvTeam::CvTeam
; Function compile flags: /Odtp
;	COMDAT ??1?$FAllocArrayType@HU?$FAllocArrayType@_NU?$FAllocArrayType@_NU?$FAllocArrayType@_NU?$FAllocArrayType@HU?$FAllocArrayType@HU?$FAllocArrayType@HU?$FAllocArrayType@HU?$FAllocArrayType@HU?$FAllocArrayType@HU?$FAllocArrayType@HU?$FAllocArrayType@HU?$FAllocArrayType@HU?$FAllocArrayType@HU?$FAllocArray2DType@HU?$FAllocArray2DType@HU?$FAllocArray2DType@HU?$FAllocBase@$0A@$0A@$0A@@@@@@@@@@@@@@@@@@@@@@@@@@@@@@@@@@@@@QAE@XZ
_TEXT	SEGMENT
_this$ = -4						; size = 4
??1?$FAllocArrayType@HU?$FAllocArrayType@_NU?$FAllocArrayType@_NU?$FAllocArrayType@_NU?$FAllocArrayType@HU?$FAllocArrayType@HU?$FAllocArrayType@HU?$FAllocArrayType@HU?$FAllocArrayType@HU?$FAllocArrayType@HU?$FAllocArrayType@HU?$FAllocArrayType@HU?$FAllocArrayType@HU?$FAllocArrayType@HU?$FAllocArray2DType@HU?$FAllocArray2DType@HU?$FAllocArray2DType@HU?$FAllocBase@$0A@$0A@$0A@@@@@@@@@@@@@@@@@@@@@@@@@@@@@@@@@@@@@QAE@XZ PROC ; FAllocArrayType<int,FAllocArrayType<bool,FAllocArrayType<bool,FAllocArrayType<bool,FAllocArrayType<int,FAllocArrayType<int,FAllocArrayType<int,FAllocArrayType<int,FAllocArrayType<int,FAllocArrayType<int,FAllocArrayType<int,FAllocArrayType<int,FAllocArrayType<int,FAllocArrayType<int,FAllocArray2DType<int,FAllocArray2DType<int,FAllocArray2DType<int,FAllocBase<0,0,0> > > > > > > > > > > > > > > > > >::~FAllocArrayType<int,FAllocArrayType<bool,FAllocArrayType<bool,FAllocArrayType<bool,FAllocArrayType<int,FAllocArrayType<int,FAllocArrayType<int,FAllocArrayType<int,FAllocArrayType<int,FAllocArrayType<int,FAllocArrayType<int,FAllocArrayType<int,FAllocArrayType<int,FAllocArrayType<int,FAllocArray2DType<int,FAllocArray2DType<int,FAllocArray2DType<int,FAllocBase<0,0,0> > > > > > > > > > > > > > > > > >, COMDAT
; _this$ = ecx
	push	ebp
	mov	ebp, esp
	push	ecx
	mov	DWORD PTR _this$[ebp], ecx
	mov	esp, ebp
	pop	ebp
	ret	0
??1?$FAllocArrayType@HU?$FAllocArrayType@_NU?$FAllocArrayType@_NU?$FAllocArrayType@_NU?$FAllocArrayType@HU?$FAllocArrayType@HU?$FAllocArrayType@HU?$FAllocArrayType@HU?$FAllocArrayType@HU?$FAllocArrayType@HU?$FAllocArrayType@HU?$FAllocArrayType@HU?$FAllocArrayType@HU?$FAllocArrayType@HU?$FAllocArray2DType@HU?$FAllocArray2DType@HU?$FAllocArray2DType@HU?$FAllocBase@$0A@$0A@$0A@@@@@@@@@@@@@@@@@@@@@@@@@@@@@@@@@@@@@QAE@XZ ENDP ; FAllocArrayType<int,FAllocArrayType<bool,FAllocArrayType<bool,FAllocArrayType<bool,FAllocArrayType<int,FAllocArrayType<int,FAllocArrayType<int,FAllocArrayType<int,FAllocArrayType<int,FAllocArrayType<int,FAllocArrayType<int,FAllocArrayType<int,FAllocArrayType<int,FAllocArrayType<int,FAllocArray2DType<int,FAllocArray2DType<int,FAllocArray2DType<int,FAllocBase<0,0,0> > > > > > > > > > > > > > > > > >::~FAllocArrayType<int,FAllocArrayType<bool,FAllocArrayType<bool,FAllocArrayType<bool,FAllocArrayType<int,FAllocArrayType<int,FAllocArrayType<int,FAllocArrayType<int,FAllocArrayType<int,FAllocArrayType<int,FAllocArrayType<int,FAllocArrayType<int,FAllocArrayType<int,FAllocArrayType<int,FAllocArray2DType<int,FAllocArray2DType<int,FAllocArray2DType<int,FAllocBase<0,0,0> > > > > > > > > > > > > > > > > >
; Function compile flags: /Odtp
_TEXT	ENDS
;	COMDAT ??0?$FAllocArrayType@HU?$FAllocArrayType@HU?$FAllocArrayType@HU?$FAllocArrayType@HU?$FAllocArray2DType@HU?$FAllocArray2DType@HU?$FAllocArray2DType@HU?$FAllocBase@$0A@$0A@$0A@@@@@@@@@@@@@@@@@QAE@XZ
_TEXT	SEGMENT
_this$ = -4						; size = 4
??0?$FAllocArrayType@HU?$FAllocArrayType@HU?$FAllocArrayType@HU?$FAllocArrayType@HU?$FAllocArray2DType@HU?$FAllocArray2DType@HU?$FAllocArray2DType@HU?$FAllocBase@$0A@$0A@$0A@@@@@@@@@@@@@@@@@QAE@XZ PROC ; FAllocArrayType<int,FAllocArrayType<int,FAllocArrayType<int,FAllocArrayType<int,FAllocArray2DType<int,FAllocArray2DType<int,FAllocArray2DType<int,FAllocBase<0,0,0> > > > > > > >::FAllocArrayType<int,FAllocArrayType<int,FAllocArrayType<int,FAllocArrayType<int,FAllocArray2DType<int,FAllocArray2DType<int,FAllocArray2DType<int,FAllocBase<0,0,0> > > > > > > >, COMDAT
; _this$ = ecx
	push	ebp
	mov	ebp, esp
	push	ecx
	mov	DWORD PTR _this$[ebp], ecx
	mov	eax, DWORD PTR _this$[ebp]
	mov	DWORD PTR [eax], 0
	mov	eax, DWORD PTR _this$[ebp]
	mov	esp, ebp
	pop	ebp
	ret	0
??0?$FAllocArrayType@HU?$FAllocArrayType@HU?$FAllocArrayType@HU?$FAllocArrayType@HU?$FAllocArray2DType@HU?$FAllocArray2DType@HU?$FAllocArray2DType@HU?$FAllocBase@$0A@$0A@$0A@@@@@@@@@@@@@@@@@QAE@XZ ENDP ; FAllocArrayType<int,FAllocArrayType<int,FAllocArrayType<int,FAllocArrayType<int,FAllocArray2DType<int,FAllocArray2DType<int,FAllocArray2DType<int,FAllocBase<0,0,0> > > > > > > >::FAllocArrayType<int,FAllocArrayType<int,FAllocArrayType<int,FAllocArrayType<int,FAllocArray2DType<int,FAllocArray2DType<int,FAllocArray2DType<int,FAllocBase<0,0,0> > > > > > > >
_TEXT	ENDS
PUBLIC	?_Tidy@?$vector@W4ResourceTypes@@V?$allocator@W4ResourceTypes@@@std@@@std@@IAEXXZ ; std::vector<enum ResourceTypes,std::allocator<enum ResourceTypes> >::_Tidy
PUBLIC	?uninit@CvTeam@@QAEXXZ				; CvTeam::uninit
EXTRN	??1CvTeamTechs@@QAE@XZ:PROC			; CvTeamTechs::~CvTeamTechs
;	COMDAT xdata$x
; File d:\sources\lekmod_git\checkout\lekmod_dll\fireplace\include\fireworks\fbatchallocate.h
xdata$x	SEGMENT
__unwindtable$??1CvTeam@@QAE@XZ DD 0ffffffffH
	DD	FLAT:__unwindfunclet$??1CvTeam@@QAE@XZ$0
	DD	00H
	DD	FLAT:__unwindfunclet$??1CvTeam@@QAE@XZ$1
	DD	00H
	DD	FLAT:__unwindfunclet$??1CvTeam@@QAE@XZ$2
__ehfuncinfo$??1CvTeam@@QAE@XZ DD 019930522H
	DD	03H
	DD	FLAT:__unwindtable$??1CvTeam@@QAE@XZ
	DD	2 DUP(00H)
	DD	2 DUP(00H)
	DD	00H
	DD	01H
; Function compile flags: /Odtp
; File d:\sources\lekmod_git\checkout\lekmod_dll\cvgamecoredll_expansion2\cvteam.cpp
xdata$x	ENDS
;	COMDAT ??1CvTeam@@QAE@XZ
_TEXT	SEGMENT
tv74 = -68						; size = 4
_this$ = -64						; size = 4
$T230990 = -60						; size = 4
$T230612 = -56						; size = 4
$T230518 = -20						; size = 4
$T230517 = -16						; size = 4
__$EHRec$ = -12						; size = 12
??1CvTeam@@QAE@XZ PROC					; CvTeam::~CvTeam, COMDAT
; _this$ = ecx

; 91   : {

	push	ebp
	mov	ebp, esp
	push	-1
	push	__ehhandler$??1CvTeam@@QAE@XZ
	mov	eax, DWORD PTR fs:0
	push	eax
	sub	esp, 56					; 00000038H
	mov	eax, DWORD PTR ___security_cookie
	xor	eax, ebp
	push	eax
	lea	eax, DWORD PTR __$EHRec$[ebp]
	mov	DWORD PTR fs:0, eax
	mov	DWORD PTR _this$[ebp], ecx
	mov	eax, DWORD PTR _this$[ebp]
	mov	DWORD PTR [eax], OFFSET ??_7CvTeam@@6B@
	mov	DWORD PTR __$EHRec$[ebp+8], 1

; 92   : 	uninit();

	mov	ecx, DWORD PTR _this$[ebp]
	call	?uninit@CvTeam@@QAEXXZ			; CvTeam::uninit

; 93   : 
; 94   : 	delete m_pTeamTechs;

	mov	ecx, DWORD PTR _this$[ebp]
	mov	edx, DWORD PTR [ecx+2980]
	mov	DWORD PTR $T230518[ebp], edx
	mov	eax, DWORD PTR $T230518[ebp]
	mov	DWORD PTR $T230517[ebp], eax
	cmp	DWORD PTR $T230517[ebp], 0
	je	SHORT $LN3@CvTeam@2
	mov	ecx, DWORD PTR $T230517[ebp]
	call	??1CvTeamTechs@@QAE@XZ			; CvTeamTechs::~CvTeamTechs
	mov	ecx, 1
	and	ecx, 1
	je	SHORT $LN8@CvTeam@2
	mov	edx, DWORD PTR $T230517[ebp]
	push	edx
	call	??3@YAXPAX@Z				; operator delete
	add	esp, 4
$LN8@CvTeam@2:
	mov	eax, DWORD PTR $T230517[ebp]
	mov	DWORD PTR tv74[ebp], eax
	jmp	SHORT $LN1@CvTeam@2
$LN3@CvTeam@2:
	mov	DWORD PTR tv74[ebp], 0
$LN1@CvTeam@2:

; 95   : }

	mov	BYTE PTR __$EHRec$[ebp+8], 0
	mov	ecx, DWORD PTR _this$[ebp]
	add	ecx, 2964				; 00000b94H
	mov	DWORD PTR $T230612[ebp], ecx
	mov	BYTE PTR __$EHRec$[ebp+8], 2
	mov	ecx, DWORD PTR $T230612[ebp]
	call	?_Tidy@?$vector@W4ResourceTypes@@V?$allocator@W4ResourceTypes@@@std@@@std@@IAEXXZ ; std::vector<enum ResourceTypes,std::allocator<enum ResourceTypes> >::_Tidy
	mov	BYTE PTR __$EHRec$[ebp+8], 0
	mov	DWORD PTR __$EHRec$[ebp+8], -1
	mov	edx, DWORD PTR _this$[ebp]
	add	edx, 2888				; 00000b48H
	mov	DWORD PTR $T230990[ebp], edx
	mov	ecx, DWORD PTR __$EHRec$[ebp]
	mov	DWORD PTR fs:0, ecx
	pop	ecx
	mov	esp, ebp
	pop	ebp
	ret	0
_TEXT	ENDS
;	COMDAT text$x
text$x	SEGMENT
__unwindfunclet$??1CvTeam@@QAE@XZ$0:
	mov	ecx, DWORD PTR _this$[ebp]
	add	ecx, 2888				; 00000b48H
	jmp	??1?$FAllocArrayType@HU?$FAllocArrayType@_NU?$FAllocArrayType@_NU?$FAllocArrayType@_NU?$FAllocArrayType@HU?$FAllocArrayType@HU?$FAllocArrayType@HU?$FAllocArrayType@HU?$FAllocArrayType@HU?$FAllocArrayType@HU?$FAllocArrayType@HU?$FAllocArrayType@HU?$FAllocArrayType@HU?$FAllocArrayType@HU?$FAllocArray2DType@HU?$FAllocArray2DType@HU?$FAllocArray2DType@HU?$FAllocBase@$0A@$0A@$0A@@@@@@@@@@@@@@@@@@@@@@@@@@@@@@@@@@@@@QAE@XZ
__unwindfunclet$??1CvTeam@@QAE@XZ$1:
	mov	ecx, DWORD PTR _this$[ebp]
	add	ecx, 2964				; 00000b94H
	jmp	??1?$vector@W4ResourceTypes@@V?$allocator@W4ResourceTypes@@@std@@@std@@QAE@XZ ; std::vector<enum ResourceTypes,std::allocator<enum ResourceTypes> >::~vector<enum ResourceTypes,std::allocator<enum ResourceTypes> >
__unwindfunclet$??1CvTeam@@QAE@XZ$2:
	mov	ecx, DWORD PTR $T230612[ebp]
	jmp	??1?$_Vector_val@W4ResourceTypes@@V?$allocator@W4ResourceTypes@@@std@@@std@@QAE@XZ
__ehhandler$??1CvTeam@@QAE@XZ:
	mov	edx, DWORD PTR [esp+8]
	lea	eax, DWORD PTR [edx+12]
	mov	ecx, DWORD PTR [edx-60]
	xor	ecx, eax
	call	@__security_check_cookie@4
	mov	eax, OFFSET __ehfuncinfo$??1CvTeam@@QAE@XZ
	jmp	___CxxFrameHandler3
text$x	ENDS
??1CvTeam@@QAE@XZ ENDP					; CvTeam::~CvTeam
PUBLIC	?init@CvTeam@@QAEXW4TeamTypes@@@Z		; CvTeam::init
; Function compile flags: /Odtp
;	COMDAT ?init@CvTeam@@QAEXW4TeamTypes@@@Z
_TEXT	SEGMENT
_this$ = -4						; size = 4
_eID$ = 8						; size = 4
?init@CvTeam@@QAEXW4TeamTypes@@@Z PROC			; CvTeam::init, COMDAT
; _this$ = ecx

; 100  : {

	push	ebp
	mov	ebp, esp
	push	ecx
	mov	DWORD PTR _this$[ebp], ecx

; 101  : 	//--------------------------------
; 102  : 	// Init saved data
; 103  : 	reset(eID);

	push	0
	mov	eax, DWORD PTR _eID$[ebp]
	push	eax
	mov	ecx, DWORD PTR _this$[ebp]
	call	?reset@CvTeam@@QAEXW4TeamTypes@@_N@Z	; CvTeam::reset

; 104  : 
; 105  : 	//--------------------------------
; 106  : 	// Init non-saved data
; 107  : 
; 108  : 	//--------------------------------
; 109  : 	// Init other game data
; 110  : }

	mov	esp, ebp
	pop	ebp
	ret	4
?init@CvTeam@@QAEXW4TeamTypes@@@Z ENDP			; CvTeam::init
_TEXT	ENDS
EXTRN	?Uninit@CvTeamTechs@@QAEXXZ:PROC		; CvTeamTechs::Uninit
; Function compile flags: /Odtp
;	COMDAT ?uninit@CvTeam@@QAEXXZ
_TEXT	SEGMENT
_this$ = -24						; size = 4
$T231272 = -20						; size = 4
$T231270 = -16						; size = 4
_i$222402 = -12						; size = 4
_i$222398 = -8						; size = 4
_i$222394 = -4						; size = 4
?uninit@CvTeam@@QAEXXZ PROC				; CvTeam::uninit, COMDAT
; _this$ = ecx

; 115  : {

	push	ebp
	mov	ebp, esp
	sub	esp, 24					; 00000018H
	mov	DWORD PTR _this$[ebp], ecx

; 116  : 
; 117  : 	//Free the batch-allocated memory
; 118  : 	m_BatchData.Free();

	mov	eax, DWORD PTR _this$[ebp]
	add	eax, 2888				; 00000b48H
	mov	DWORD PTR $T231272[ebp], eax
	mov	ecx, DWORD PTR $T231272[ebp]
	mov	edx, DWORD PTR [ecx]
	mov	DWORD PTR $T231270[ebp], edx
	mov	eax, DWORD PTR $T231270[ebp]
	push	eax
	call	??_V@YAXPAX@Z				; operator delete[]
	add	esp, 4
	mov	ecx, DWORD PTR $T231272[ebp]
	mov	DWORD PTR [ecx], 0

; 119  : 
; 120  : 	//Set the ptrs to null
; 121  : 	m_abCanLaunch = NULL;

	mov	edx, DWORD PTR _this$[ebp]
	mov	DWORD PTR [edx+2896], 0

; 122  : 	m_abVictoryAchieved = NULL;

	mov	eax, DWORD PTR _this$[ebp]
	mov	DWORD PTR [eax+2900], 0

; 123  : 	m_abSmallAwardAchieved = NULL;

	mov	ecx, DWORD PTR _this$[ebp]
	mov	DWORD PTR [ecx+2904], 0

; 124  : 
; 125  : 	m_paiRouteChange = NULL;

	mov	edx, DWORD PTR _this$[ebp]
	mov	DWORD PTR [edx+2908], 0

; 126  : 	m_paiBuildTimeChange = NULL;

	mov	eax, DWORD PTR _this$[ebp]
	mov	DWORD PTR [eax+2912], 0

; 127  : 	m_paiProjectCount = NULL;

	mov	ecx, DWORD PTR _this$[ebp]
	mov	DWORD PTR [ecx+2916], 0

; 128  : 	m_paiProjectDefaultArtTypes = NULL;

	mov	edx, DWORD PTR _this$[ebp]
	mov	DWORD PTR [edx+2920], 0

; 129  : 	m_pavProjectArtTypes = NULL;

	mov	eax, DWORD PTR _this$[ebp]
	mov	DWORD PTR [eax+2960], 0

; 130  : 	m_paiProjectMaking = NULL;

	mov	ecx, DWORD PTR _this$[ebp]
	mov	DWORD PTR [ecx+2924], 0

; 131  : 	m_paiUnitClassCount = NULL;

	mov	edx, DWORD PTR _this$[ebp]
	mov	DWORD PTR [edx+2928], 0

; 132  : 	m_paiBuildingClassCount = NULL;

	mov	eax, DWORD PTR _this$[ebp]
	mov	DWORD PTR [eax+2932], 0

; 133  : 	m_paiObsoleteBuildingCount = NULL;

	mov	ecx, DWORD PTR _this$[ebp]
	mov	DWORD PTR [ecx+2936], 0

; 134  : 	m_paiTerrainTradeCount = NULL;

	mov	edx, DWORD PTR _this$[ebp]
	mov	DWORD PTR [edx+2940], 0

; 135  : 	m_aiVictoryCountdown = NULL;

	mov	eax, DWORD PTR _this$[ebp]
	mov	DWORD PTR [eax+2944], 0

; 136  : 	m_aiForceTeamVoteEligibilityCount = NULL;

	mov	ecx, DWORD PTR _this$[ebp]
	mov	DWORD PTR [ecx+2892], 0

; 137  : 
; 138  : 	m_ppaaiImprovementYieldChange = NULL;

	mov	edx, DWORD PTR _this$[ebp]
	mov	DWORD PTR [edx+2948], 0

; 139  : 	m_ppaaiImprovementNoFreshWaterYieldChange = NULL;

	mov	eax, DWORD PTR _this$[ebp]
	mov	DWORD PTR [eax+2952], 0

; 140  : 	m_ppaaiImprovementFreshWaterYieldChange = NULL;

	mov	ecx, DWORD PTR _this$[ebp]
	mov	DWORD PTR [ecx+2956], 0

; 141  : 
; 142  : 	m_pTeamTechs->Uninit();

	mov	edx, DWORD PTR _this$[ebp]
	mov	ecx, DWORD PTR [edx+2980]
	call	?Uninit@CvTeamTechs@@QAEXXZ		; CvTeamTechs::Uninit

; 143  : 
; 144  : 	m_iNumMembers = 0;

	mov	eax, DWORD PTR _this$[ebp]
	mov	DWORD PTR [eax+8], 0

; 145  : 	m_iAliveCount = 0;

	mov	ecx, DWORD PTR _this$[ebp]
	mov	DWORD PTR [ecx+12], 0

; 146  : 	m_iEverAliveCount = 0;

	mov	edx, DWORD PTR _this$[ebp]
	mov	DWORD PTR [edx+16], 0

; 147  : 	m_iNumCities = 0;

	mov	eax, DWORD PTR _this$[ebp]
	mov	DWORD PTR [eax+20], 0

; 148  : 	m_iTotalPopulation = 0;

	mov	ecx, DWORD PTR _this$[ebp]
	mov	DWORD PTR [ecx+24], 0

; 149  : 	m_iTotalLand = 0;

	mov	edx, DWORD PTR _this$[ebp]
	mov	DWORD PTR [edx+28], 0

; 150  : 	m_iNukeInterception = 0;

	mov	eax, DWORD PTR _this$[ebp]
	mov	DWORD PTR [eax+32], 0

; 151  : 	m_iExtraWaterSeeFromCount = 0;

	mov	ecx, DWORD PTR _this$[ebp]
	mov	DWORD PTR [ecx+36], 0

; 152  : 	m_iMapTradingCount = 0;

	mov	edx, DWORD PTR _this$[ebp]
	mov	DWORD PTR [edx+40], 0

; 153  : 	m_iTechTradingCount = 0;

	mov	eax, DWORD PTR _this$[ebp]
	mov	DWORD PTR [eax+44], 0

; 154  : 	m_iGoldTradingCount = 0;

	mov	ecx, DWORD PTR _this$[ebp]
	mov	DWORD PTR [ecx+48], 0

; 155  : 	m_iAllowEmbassyTradingAllowedCount = 0;

	mov	edx, DWORD PTR _this$[ebp]
	mov	DWORD PTR [edx+52], 0

; 156  : 	m_iOpenBordersTradingAllowedCount = 0;

	mov	eax, DWORD PTR _this$[ebp]
	mov	DWORD PTR [eax+56], 0

; 157  : 	m_iDefensivePactTradingAllowedCount = 0;

	mov	ecx, DWORD PTR _this$[ebp]
	mov	DWORD PTR [ecx+60], 0

; 158  : 	m_iResearchAgreementTradingAllowedCount = 0;

	mov	edx, DWORD PTR _this$[ebp]
	mov	DWORD PTR [edx+64], 0

; 159  : 	m_iTradeAgreementTradingAllowedCount = 0;

	mov	eax, DWORD PTR _this$[ebp]
	mov	DWORD PTR [eax+68], 0

; 160  : 	m_iPermanentAllianceTradingCount = 0;

	mov	ecx, DWORD PTR _this$[ebp]
	mov	DWORD PTR [ecx+72], 0

; 161  : 	m_iBridgeBuildingCount = 0;

	mov	edx, DWORD PTR _this$[ebp]
	mov	DWORD PTR [edx+76], 0

; 162  : 	m_iWaterWorkCount = 0;

	mov	eax, DWORD PTR _this$[ebp]
	mov	DWORD PTR [eax+80], 0

; 163  : 	m_iRiverTradeCount = 0;

	mov	ecx, DWORD PTR _this$[ebp]
	mov	DWORD PTR [ecx+84], 0

; 164  : 	m_iBorderObstacleCount = 0;

	mov	edx, DWORD PTR _this$[ebp]
	mov	DWORD PTR [edx+88], 0

; 165  : 	m_iVictoryPoints = 0;

	mov	eax, DWORD PTR _this$[ebp]
	mov	DWORD PTR [eax+92], 0

; 166  : 	m_iEmbarkedExtraMoves = 0;

	mov	ecx, DWORD PTR _this$[ebp]
	mov	DWORD PTR [ecx+96], 0

; 167  : 	//EAP: Extra embarked visibility on tech
; 168  : 	m_iEmbarkedExtraSight = 0;

	mov	edx, DWORD PTR _this$[ebp]
	mov	DWORD PTR [edx+100], 0

; 169  : 	m_iCanEmbarkCount = 0;

	mov	eax, DWORD PTR _this$[ebp]
	mov	DWORD PTR [eax+104], 0

; 170  : 	m_iDefensiveEmbarkCount = 0;

	mov	ecx, DWORD PTR _this$[ebp]
	mov	DWORD PTR [ecx+108], 0

; 171  : 	m_iEmbarkedAllWaterPassageCount = 0;

	mov	edx, DWORD PTR _this$[ebp]
	mov	DWORD PTR [edx+112], 0

; 172  : 	m_iNumNaturalWondersDiscovered = 0;

	mov	eax, DWORD PTR _this$[ebp]
	mov	DWORD PTR [eax+116], 0

; 173  : 	m_iBestPossibleRoute = NO_ROUTE;

	mov	ecx, DWORD PTR _this$[ebp]
	mov	DWORD PTR [ecx+120], -1

; 174  : 	m_iNumMinorCivsAttacked = 0;

	mov	edx, DWORD PTR _this$[ebp]
	mov	DWORD PTR [edx+124], 0

; 175  : #ifdef AUI_ASTAR_TWEAKED_OPTIMIZED_BUT_CAN_STILL_USE_ROADS
; 176  : 	m_iBestRouteFlatCostMultiplier = 0;
; 177  : 	m_iBestRouteNormalCostMultiplier = 1;
; 178  : 	m_iUseFlatCostIfBelowThis = -1;
; 179  : #endif
; 180  : 
; 181  : 	m_bMapCentering = false;

	mov	eax, DWORD PTR _this$[ebp]
	mov	BYTE PTR [eax+128], 0

; 182  : 	m_bHasBrokenPeaceTreaty = false;

	mov	ecx, DWORD PTR _this$[ebp]
	mov	BYTE PTR [ecx+129], 0

; 183  : 	m_bHomeOfUnitedNations = false;

	mov	edx, DWORD PTR _this$[ebp]
	mov	BYTE PTR [edx+130], 0

; 184  : 	m_bHasTechForWorldCongress = false;

	mov	eax, DWORD PTR _this$[ebp]
	mov	BYTE PTR [eax+131], 0

; 185  : 
; 186  : 	m_bBrokenMilitaryPromise = false;

	mov	ecx, DWORD PTR _this$[ebp]
	mov	BYTE PTR [ecx+132], 0

; 187  : 	m_bBrokenExpansionPromise = false;

	mov	edx, DWORD PTR _this$[ebp]
	mov	BYTE PTR [edx+133], 0

; 188  : 	m_bBrokenBorderPromise = false;

	mov	eax, DWORD PTR _this$[ebp]
	mov	BYTE PTR [eax+134], 0

; 189  : 	m_bBrokenCityStatePromise = false;

	mov	ecx, DWORD PTR _this$[ebp]
	mov	BYTE PTR [ecx+135], 0

; 190  : 
; 191  : 	m_eCurrentEra = ((EraTypes) 0);

	mov	edx, DWORD PTR _this$[ebp]
	mov	DWORD PTR [edx+136], 0

; 192  : 
; 193  : 	m_eLiberatedByTeam = NO_TEAM;

	mov	eax, DWORD PTR _this$[ebp]
	mov	DWORD PTR [eax+140], -1

; 194  : 	m_eKilledByTeam = NO_TEAM;

	mov	ecx, DWORD PTR _this$[ebp]
	mov	DWORD PTR [ecx+144], -1

; 195  : 
; 196  : 	for(int i = 0; i < NUM_DOMAIN_TYPES; i++)

	mov	DWORD PTR _i$222394[ebp], 0
	jmp	SHORT $LN9@uninit
$LN8@uninit:
	mov	edx, DWORD PTR _i$222394[ebp]
	add	edx, 1
	mov	DWORD PTR _i$222394[ebp], edx
$LN9@uninit:
	cmp	DWORD PTR _i$222394[ebp], 5
	jge	SHORT $LN7@uninit

; 197  : 	{
; 198  : 		m_aiExtraMoves[i] = 0;

	mov	eax, DWORD PTR _i$222394[ebp]
	mov	ecx, DWORD PTR _this$[ebp]
	mov	DWORD PTR [ecx+eax*4+1108], 0

; 199  : 	}

	jmp	SHORT $LN8@uninit
$LN7@uninit:

; 200  : 
; 201  : 	for(int i = 0; i < MAX_TEAMS; i++)

	mov	DWORD PTR _i$222398[ebp], 0
	jmp	SHORT $LN6@uninit
$LN5@uninit:
	mov	edx, DWORD PTR _i$222398[ebp]
	add	edx, 1
	mov	DWORD PTR _i$222398[ebp], edx
$LN6@uninit:
	cmp	DWORD PTR _i$222398[ebp], 64		; 00000040H
	jge	$LN4@uninit

; 202  : 	{
; 203  : 		m_aiTechShareCount[i] = 0;

	mov	eax, DWORD PTR _i$222398[ebp]
	mov	ecx, DWORD PTR _this$[ebp]
	mov	DWORD PTR [ecx+eax*4+148], 0

; 204  : 		m_paiTurnMadePeaceTreatyWithTeam[i] = -1;

	mov	edx, DWORD PTR _i$222398[ebp]
	mov	eax, DWORD PTR _this$[ebp]
	mov	DWORD PTR [eax+edx*4+1128], -1

; 205  : 		m_aiIgnoreWarningCount[i] = 0;

	mov	ecx, DWORD PTR _i$222398[ebp]
	mov	edx, DWORD PTR _this$[ebp]
	mov	DWORD PTR [edx+ecx*4+1448], 0

; 206  : 		m_abHasMet[i] = false;

	mov	eax, DWORD PTR _this$[ebp]
	add	eax, DWORD PTR _i$222398[ebp]
	mov	BYTE PTR [eax+1848], 0

; 207  : 		m_abAtWar[i] = false;

	mov	ecx, DWORD PTR _this$[ebp]
	add	ecx, DWORD PTR _i$222398[ebp]
	mov	BYTE PTR [ecx+1928], 0

; 208  : 		m_abPermanentWarPeace[i] = false;

	mov	edx, DWORD PTR _this$[ebp]
	add	edx, DWORD PTR _i$222398[ebp]
	mov	BYTE PTR [edx+2008], 0

; 209  : 		m_abEmbassy[i] = false;

	mov	eax, DWORD PTR _this$[ebp]
	add	eax, DWORD PTR _i$222398[ebp]
	mov	BYTE PTR [eax+2088], 0

; 210  : 		m_abOpenBorders[i] = false;

	mov	ecx, DWORD PTR _this$[ebp]
	add	ecx, DWORD PTR _i$222398[ebp]
	mov	BYTE PTR [ecx+2168], 0

; 211  : 		m_abDefensivePact[i] = false;

	mov	edx, DWORD PTR _this$[ebp]
	add	edx, DWORD PTR _i$222398[ebp]
	mov	BYTE PTR [edx+2248], 0

; 212  : 		m_abResearchAgreement[i] = false;

	mov	eax, DWORD PTR _this$[ebp]
	add	eax, DWORD PTR _i$222398[ebp]
	mov	BYTE PTR [eax+2328], 0

; 213  : 		m_abTradeAgreement[i] = false;

	mov	ecx, DWORD PTR _this$[ebp]
	add	ecx, DWORD PTR _i$222398[ebp]
	mov	BYTE PTR [ecx+2408], 0

; 214  : 		m_abForcePeace[i] = false;

	mov	edx, DWORD PTR _this$[ebp]
	add	edx, DWORD PTR _i$222398[ebp]
	mov	BYTE PTR [edx+2488], 0

; 215  : 	}

	jmp	$LN5@uninit
$LN4@uninit:

; 216  : 
; 217  : 	for(int i = 0; i < MAX_PLAYERS; i++)

	mov	DWORD PTR _i$222402[ebp], 0
	jmp	SHORT $LN3@uninit
$LN2@uninit:
	mov	eax, DWORD PTR _i$222402[ebp]
	add	eax, 1
	mov	DWORD PTR _i$222402[ebp], eax
$LN3@uninit:
	cmp	DWORD PTR _i$222402[ebp], 64		; 00000040H
	jge	SHORT $LN1@uninit

; 218  : 	{
; 219  : 		m_abHasFoundPlayersTerritory[i] = false;

	mov	ecx, DWORD PTR _this$[ebp]
	add	ecx, DWORD PTR _i$222402[ebp]
	mov	BYTE PTR [ecx+1768], 0

; 220  : 	}

	jmp	SHORT $LN2@uninit
$LN1@uninit:

; 221  : 
; 222  : 	m_eID = NO_TEAM;

	mov	edx, DWORD PTR _this$[ebp]
	mov	DWORD PTR [edx+4], -1

; 223  : }

	mov	esp, ebp
	pop	ebp
	ret	0
?uninit@CvTeam@@QAEXXZ ENDP				; CvTeam::uninit
_TEXT	ENDS
PUBLIC	?erase@?$vector@W4ResourceTypes@@V?$allocator@W4ResourceTypes@@@std@@@std@@QAE?AV?$_Vector_iterator@W4ResourceTypes@@V?$allocator@W4ResourceTypes@@@std@@@2@V?$_Vector_const_iterator@W4ResourceTypes@@V?$allocator@W4ResourceTypes@@@std@@@2@0@Z ; std::vector<enum ResourceTypes,std::allocator<enum ResourceTypes> >::erase
PUBLIC	??0?$vector@HV?$allocator@H@std@@@std@@QAE@XZ	; std::vector<int,std::allocator<int> >::vector<int,std::allocator<int> >
PUBLIC	??1?$vector@HV?$allocator@H@std@@@std@@QAE@XZ	; std::vector<int,std::allocator<int> >::~vector<int,std::allocator<int> >
PUBLIC	?Alloc@?$FAllocArrayType@HU?$FAllocArrayType@_NU?$FAllocArrayType@_NU?$FAllocArrayType@_NU?$FAllocArrayType@HU?$FAllocArrayType@HU?$FAllocArrayType@HU?$FAllocArrayType@HU?$FAllocArrayType@HU?$FAllocArrayType@HU?$FAllocArrayType@HU?$FAllocArrayType@HU?$FAllocArrayType@HU?$FAllocArrayType@HU?$FAllocArray2DType@HU?$FAllocArray2DType@HU?$FAllocArray2DType@HU?$FAllocBase@$0A@$0A@$0A@@@@@@@@@@@@@@@@@@@@@@@@@@@@@@@@@@@@@QAEPAXIPAUAllocData@@@Z ; FAllocArrayType<int,FAllocArrayType<bool,FAllocArrayType<bool,FAllocArrayType<bool,FAllocArrayType<int,FAllocArrayType<int,FAllocArrayType<int,FAllocArrayType<int,FAllocArrayType<int,FAllocArrayType<int,FAllocArrayType<int,FAllocArrayType<int,FAllocArrayType<int,FAllocArrayType<int,FAllocArray2DType<int,FAllocArray2DType<int,FAllocArray2DType<int,FAllocBase<0,0,0> > > > > > > > > > > > > > > > > >::Alloc
EXTRN	?Init@CvTeamTechs@@QAEXPAVCvTechXMLEntries@@PAVCvTeam@@@Z:PROC ; CvTeamTechs::Init
EXTRN	?GetGameTechs@CvGlobals@@QBEPAVCvTechXMLEntries@@XZ:PROC ; CvGlobals::GetGameTechs
EXTRN	?getNumImprovementInfos@CvGlobals@@QAEHXZ:PROC	; CvGlobals::getNumImprovementInfos
EXTRN	?getNumTerrainInfos@CvGlobals@@QAEHXZ:PROC	; CvGlobals::getNumTerrainInfos
EXTRN	?getNumBuildingInfos@CvGlobals@@QAEHXZ:PROC	; CvGlobals::getNumBuildingInfos
EXTRN	?getNumBuildingClassInfos@CvGlobals@@QAEHXZ:PROC ; CvGlobals::getNumBuildingClassInfos
EXTRN	?getNumUnitClassInfos@CvGlobals@@QAEHXZ:PROC	; CvGlobals::getNumUnitClassInfos
EXTRN	?getNumProjectInfos@CvGlobals@@QAEHXZ:PROC	; CvGlobals::getNumProjectInfos
EXTRN	?getNumBuildInfos@CvGlobals@@QAEHXZ:PROC	; CvGlobals::getNumBuildInfos
EXTRN	?getNumRouteInfos@CvGlobals@@QAEHXZ:PROC	; CvGlobals::getNumRouteInfos
EXTRN	?getNumSmallAwardInfos@CvGlobals@@QAEHXZ:PROC	; CvGlobals::getNumSmallAwardInfos
EXTRN	?getNumVictoryInfos@CvGlobals@@QAEHXZ:PROC	; CvGlobals::getNumVictoryInfos
EXTRN	?getNumVoteSourceInfos@CvGlobals@@QAEHXZ:PROC	; CvGlobals::getNumVoteSourceInfos
EXTRN	?gGlobals@@3VCvGlobals@@A:BYTE			; gGlobals
;	COMDAT xdata$x
; File c:\program files (x86)\microsoft visual studio 9.0\vc\include\xmemory
xdata$x	SEGMENT
__unwindtable$?reset@CvTeam@@QAEXW4TeamTypes@@_N@Z DD 0ffffffffH
	DD	FLAT:__unwindfunclet$?reset@CvTeam@@QAEXW4TeamTypes@@_N@Z$0
__ehfuncinfo$?reset@CvTeam@@QAEXW4TeamTypes@@_N@Z DD 019930522H
	DD	01H
	DD	FLAT:__unwindtable$?reset@CvTeam@@QAEXW4TeamTypes@@_N@Z
	DD	2 DUP(00H)
	DD	2 DUP(00H)
	DD	00H
	DD	01H
; Function compile flags: /Odtp
; File d:\sources\lekmod_git\checkout\lekmod_dll\cvgamecoredll_expansion2\cvteam.cpp
xdata$x	ENDS
;	COMDAT ?reset@CvTeam@@QAEXW4TeamTypes@@_N@Z
_TEXT	SEGMENT
tv393 = -516						; size = 4
_this$ = -512						; size = 4
$T231538 = -508						; size = 4
$T231371 = -440						; size = 4
$T231355 = -436						; size = 4
$T231525 = -432						; size = 4
$T231524 = -428						; size = 4
$T231523 = -424						; size = 4
$T231522 = -420						; size = 4
$T231521 = -416						; size = 4
$T231319 = -332						; size = 4
$T231318 = -328						; size = 4
$T231317 = -324						; size = 4
_j$222472 = -320					; size = 4
_i$222468 = -316					; size = 4
_i$222464 = -312					; size = 4
_i$222460 = -308					; size = 4
_i$222456 = -304					; size = 4
_i$222452 = -300					; size = 4
_i$222448 = -296					; size = 4
_i$222444 = -292					; size = 4
_i$222440 = -288					; size = 4
_i$222436 = -284					; size = 4
_i$222432 = -280					; size = 4
_i$222428 = -276					; size = 4
_i$222424 = -272					; size = 4
_numUnitClassInfos$222418 = -268			; size = 4
_numVoteSourceInfos$222412 = -264			; size = 4
_numBuildingInfos$222420 = -260				; size = 4
_numTerrainInfos$222421 = -256				; size = 4
_numSmallAwardInfos$222414 = -252			; size = 4
_numImprovementInfos$222422 = -248			; size = 4
_numProjectInfos$222417 = -244				; size = 4
_numBuildingClassInfos$222419 = -240			; size = 4
_aData$222423 = -236					; size = 204
_numRouteInfos$222415 = -24				; size = 4
_numBuildInfos$222416 = -20				; size = 4
_numVictoryInfos$222413 = -16				; size = 4
__$EHRec$ = -12						; size = 12
_eID$ = 8						; size = 4
_bConstructorCall$ = 12					; size = 1
?reset@CvTeam@@QAEXW4TeamTypes@@_N@Z PROC		; CvTeam::reset, COMDAT
; _this$ = ecx

; 230  : {

	push	ebp
	mov	ebp, esp
	push	-1
	push	__ehhandler$?reset@CvTeam@@QAEXW4TeamTypes@@_N@Z
	mov	eax, DWORD PTR fs:0
	push	eax
	sub	esp, 504				; 000001f8H
	mov	eax, DWORD PTR ___security_cookie
	xor	eax, ebp
	push	eax
	lea	eax, DWORD PTR __$EHRec$[ebp]
	mov	DWORD PTR fs:0, eax
	mov	DWORD PTR _this$[ebp], ecx

; 231  : 	//--------------------------------
; 232  : 	// Uninit class
; 233  : 	uninit();

	mov	ecx, DWORD PTR _this$[ebp]
	call	?uninit@CvTeam@@QAEXXZ			; CvTeam::uninit

; 234  : 
; 235  : 	m_eID = eID;

	mov	eax, DWORD PTR _this$[ebp]
	mov	ecx, DWORD PTR _eID$[ebp]
	mov	DWORD PTR [eax+4], ecx

; 236  : 
; 237  : 	if(!bConstructorCall)

	movzx	edx, BYTE PTR _bConstructorCall$[ebp]
	test	edx, edx
	jne	$LN41@reset

; 238  : 	{
; 239  : 		//Collect sizes
; 240  : #ifdef AUI_WARNING_FIXES
; 241  : 		uint numVoteSourceInfos = GC.getNumVoteSourceInfos();
; 242  : 		uint numVictoryInfos = GC.getNumVictoryInfos();
; 243  : 		uint numSmallAwardInfos = GC.getNumSmallAwardInfos();
; 244  : 		uint numRouteInfos = GC.getNumRouteInfos();
; 245  : 		uint numBuildInfos = GC.getNumBuildInfos();
; 246  : 		uint numProjectInfos = GC.getNumProjectInfos();
; 247  : 		uint numUnitClassInfos = GC.getNumUnitClassInfos();
; 248  : 		uint numBuildingClassInfos = GC.getNumBuildingClassInfos();
; 249  : 		uint numBuildingInfos = GC.getNumBuildingInfos();
; 250  : 		uint numTerrainInfos = GC.getNumTerrainInfos();
; 251  : 		uint numImprovementInfos = GC.getNumImprovementInfos();
; 252  : #else
; 253  : 		int numVoteSourceInfos = GC.getNumVoteSourceInfos();

	mov	ecx, OFFSET ?gGlobals@@3VCvGlobals@@A	; gGlobals
	call	?getNumVoteSourceInfos@CvGlobals@@QAEHXZ ; CvGlobals::getNumVoteSourceInfos
	mov	DWORD PTR _numVoteSourceInfos$222412[ebp], eax

; 254  : 		int numVictoryInfos = GC.getNumVictoryInfos();

	mov	ecx, OFFSET ?gGlobals@@3VCvGlobals@@A	; gGlobals
	call	?getNumVictoryInfos@CvGlobals@@QAEHXZ	; CvGlobals::getNumVictoryInfos
	mov	DWORD PTR _numVictoryInfos$222413[ebp], eax

; 255  : 		int numSmallAwardInfos = GC.getNumSmallAwardInfos();

	mov	ecx, OFFSET ?gGlobals@@3VCvGlobals@@A	; gGlobals
	call	?getNumSmallAwardInfos@CvGlobals@@QAEHXZ ; CvGlobals::getNumSmallAwardInfos
	mov	DWORD PTR _numSmallAwardInfos$222414[ebp], eax

; 256  : 		int numRouteInfos = GC.getNumRouteInfos();

	mov	ecx, OFFSET ?gGlobals@@3VCvGlobals@@A	; gGlobals
	call	?getNumRouteInfos@CvGlobals@@QAEHXZ	; CvGlobals::getNumRouteInfos
	mov	DWORD PTR _numRouteInfos$222415[ebp], eax

; 257  : 		int numBuildInfos = GC.getNumBuildInfos();

	mov	ecx, OFFSET ?gGlobals@@3VCvGlobals@@A	; gGlobals
	call	?getNumBuildInfos@CvGlobals@@QAEHXZ	; CvGlobals::getNumBuildInfos
	mov	DWORD PTR _numBuildInfos$222416[ebp], eax

; 258  : 		int numProjectInfos = GC.getNumProjectInfos();

	mov	ecx, OFFSET ?gGlobals@@3VCvGlobals@@A	; gGlobals
	call	?getNumProjectInfos@CvGlobals@@QAEHXZ	; CvGlobals::getNumProjectInfos
	mov	DWORD PTR _numProjectInfos$222417[ebp], eax

; 259  : 		int numUnitClassInfos = GC.getNumUnitClassInfos();

	mov	ecx, OFFSET ?gGlobals@@3VCvGlobals@@A	; gGlobals
	call	?getNumUnitClassInfos@CvGlobals@@QAEHXZ	; CvGlobals::getNumUnitClassInfos
	mov	DWORD PTR _numUnitClassInfos$222418[ebp], eax

; 260  : 		int numBuildingClassInfos = GC.getNumBuildingClassInfos();

	mov	ecx, OFFSET ?gGlobals@@3VCvGlobals@@A	; gGlobals
	call	?getNumBuildingClassInfos@CvGlobals@@QAEHXZ ; CvGlobals::getNumBuildingClassInfos
	mov	DWORD PTR _numBuildingClassInfos$222419[ebp], eax

; 261  : 		int numBuildingInfos = GC.getNumBuildingInfos();

	mov	ecx, OFFSET ?gGlobals@@3VCvGlobals@@A	; gGlobals
	call	?getNumBuildingInfos@CvGlobals@@QAEHXZ	; CvGlobals::getNumBuildingInfos
	mov	DWORD PTR _numBuildingInfos$222420[ebp], eax

; 262  : 		int numTerrainInfos = GC.getNumTerrainInfos();

	mov	ecx, OFFSET ?gGlobals@@3VCvGlobals@@A	; gGlobals
	call	?getNumTerrainInfos@CvGlobals@@QAEHXZ	; CvGlobals::getNumTerrainInfos
	mov	DWORD PTR _numTerrainInfos$222421[ebp], eax

; 263  : 		int numImprovementInfos = GC.getNumImprovementInfos();

	mov	ecx, OFFSET ?gGlobals@@3VCvGlobals@@A	; gGlobals
	call	?getNumImprovementInfos@CvGlobals@@QAEHXZ ; CvGlobals::getNumImprovementInfos
	mov	DWORD PTR _numImprovementInfos$222422[ebp], eax

; 264  : #endif
; 265  : 
; 266  : 		//Perform batch allocation
; 267  : 		AllocData aData[] =
; 268  : 		{
; 269  : 			{&m_aiForceTeamVoteEligibilityCount,	numVoteSourceInfos, 0},

	mov	eax, DWORD PTR _this$[ebp]
	add	eax, 2892				; 00000b4cH
	mov	DWORD PTR _aData$222423[ebp], eax
	mov	ecx, DWORD PTR _numVoteSourceInfos$222412[ebp]
	mov	DWORD PTR _aData$222423[ebp+4], ecx
	mov	DWORD PTR _aData$222423[ebp+8], 0

; 270  : 
; 271  : 			{&m_abCanLaunch,						numVictoryInfos, 0},

	mov	edx, DWORD PTR _this$[ebp]
	add	edx, 2896				; 00000b50H
	mov	DWORD PTR _aData$222423[ebp+12], edx
	mov	eax, DWORD PTR _numVictoryInfos$222413[ebp]
	mov	DWORD PTR _aData$222423[ebp+16], eax
	mov	DWORD PTR _aData$222423[ebp+20], 0

; 272  : 			{&m_abVictoryAchieved,					numVictoryInfos, 0},

	mov	ecx, DWORD PTR _this$[ebp]
	add	ecx, 2900				; 00000b54H
	mov	DWORD PTR _aData$222423[ebp+24], ecx
	mov	edx, DWORD PTR _numVictoryInfos$222413[ebp]
	mov	DWORD PTR _aData$222423[ebp+28], edx
	mov	DWORD PTR _aData$222423[ebp+32], 0

; 273  : 			{&m_abSmallAwardAchieved,				numSmallAwardInfos, 0},

	mov	eax, DWORD PTR _this$[ebp]
	add	eax, 2904				; 00000b58H
	mov	DWORD PTR _aData$222423[ebp+36], eax
	mov	ecx, DWORD PTR _numSmallAwardInfos$222414[ebp]
	mov	DWORD PTR _aData$222423[ebp+40], ecx
	mov	DWORD PTR _aData$222423[ebp+44], 0

; 274  : 
; 275  : 			{&m_paiRouteChange,						numRouteInfos, 0},

	mov	edx, DWORD PTR _this$[ebp]
	add	edx, 2908				; 00000b5cH
	mov	DWORD PTR _aData$222423[ebp+48], edx
	mov	eax, DWORD PTR _numRouteInfos$222415[ebp]
	mov	DWORD PTR _aData$222423[ebp+52], eax
	mov	DWORD PTR _aData$222423[ebp+56], 0

; 276  : 			{&m_paiBuildTimeChange,					numBuildInfos, 0},

	mov	ecx, DWORD PTR _this$[ebp]
	add	ecx, 2912				; 00000b60H
	mov	DWORD PTR _aData$222423[ebp+60], ecx
	mov	edx, DWORD PTR _numBuildInfos$222416[ebp]
	mov	DWORD PTR _aData$222423[ebp+64], edx
	mov	DWORD PTR _aData$222423[ebp+68], 0

; 277  : 
; 278  : 			{&m_paiProjectCount,					numProjectInfos, 0},

	mov	eax, DWORD PTR _this$[ebp]
	add	eax, 2916				; 00000b64H
	mov	DWORD PTR _aData$222423[ebp+72], eax
	mov	ecx, DWORD PTR _numProjectInfos$222417[ebp]
	mov	DWORD PTR _aData$222423[ebp+76], ecx
	mov	DWORD PTR _aData$222423[ebp+80], 0

; 279  : 			{&m_paiProjectDefaultArtTypes,			numProjectInfos, 0},

	mov	edx, DWORD PTR _this$[ebp]
	add	edx, 2920				; 00000b68H
	mov	DWORD PTR _aData$222423[ebp+84], edx
	mov	eax, DWORD PTR _numProjectInfos$222417[ebp]
	mov	DWORD PTR _aData$222423[ebp+88], eax
	mov	DWORD PTR _aData$222423[ebp+92], 0

; 280  : 			{&m_paiProjectMaking,					numProjectInfos, 0},

	mov	ecx, DWORD PTR _this$[ebp]
	add	ecx, 2924				; 00000b6cH
	mov	DWORD PTR _aData$222423[ebp+96], ecx
	mov	edx, DWORD PTR _numProjectInfos$222417[ebp]
	mov	DWORD PTR _aData$222423[ebp+100], edx
	mov	DWORD PTR _aData$222423[ebp+104], 0

; 281  : 
; 282  : 			{&m_paiUnitClassCount,					numUnitClassInfos, 0},

	mov	eax, DWORD PTR _this$[ebp]
	add	eax, 2928				; 00000b70H
	mov	DWORD PTR _aData$222423[ebp+108], eax
	mov	ecx, DWORD PTR _numUnitClassInfos$222418[ebp]
	mov	DWORD PTR _aData$222423[ebp+112], ecx
	mov	DWORD PTR _aData$222423[ebp+116], 0

; 283  : 			{&m_paiBuildingClassCount,				numBuildingClassInfos, 0},

	mov	edx, DWORD PTR _this$[ebp]
	add	edx, 2932				; 00000b74H
	mov	DWORD PTR _aData$222423[ebp+120], edx
	mov	eax, DWORD PTR _numBuildingClassInfos$222419[ebp]
	mov	DWORD PTR _aData$222423[ebp+124], eax
	mov	DWORD PTR _aData$222423[ebp+128], 0

; 284  : 			{&m_paiObsoleteBuildingCount,			numBuildingInfos, 0},

	mov	ecx, DWORD PTR _this$[ebp]
	add	ecx, 2936				; 00000b78H
	mov	DWORD PTR _aData$222423[ebp+132], ecx
	mov	edx, DWORD PTR _numBuildingInfos$222420[ebp]
	mov	DWORD PTR _aData$222423[ebp+136], edx
	mov	DWORD PTR _aData$222423[ebp+140], 0

; 285  : 			{&m_paiTerrainTradeCount,				numTerrainInfos, 0},

	mov	eax, DWORD PTR _this$[ebp]
	add	eax, 2940				; 00000b7cH
	mov	DWORD PTR _aData$222423[ebp+144], eax
	mov	ecx, DWORD PTR _numTerrainInfos$222421[ebp]
	mov	DWORD PTR _aData$222423[ebp+148], ecx
	mov	DWORD PTR _aData$222423[ebp+152], 0

; 286  : 			{&m_aiVictoryCountdown,					numVictoryInfos, 0},

	mov	edx, DWORD PTR _this$[ebp]
	add	edx, 2944				; 00000b80H
	mov	DWORD PTR _aData$222423[ebp+156], edx
	mov	eax, DWORD PTR _numVictoryInfos$222413[ebp]
	mov	DWORD PTR _aData$222423[ebp+160], eax
	mov	DWORD PTR _aData$222423[ebp+164], 0

; 287  : 
; 288  : 			{&m_ppaaiImprovementYieldChange,		numImprovementInfos, NUM_YIELD_TYPES},

	mov	ecx, DWORD PTR _this$[ebp]
	add	ecx, 2948				; 00000b84H
	mov	DWORD PTR _aData$222423[ebp+168], ecx
	mov	edx, DWORD PTR _numImprovementInfos$222422[ebp]
	mov	DWORD PTR _aData$222423[ebp+172], edx
	mov	DWORD PTR _aData$222423[ebp+176], 6

; 289  : 			{&m_ppaaiImprovementNoFreshWaterYieldChange,numImprovementInfos, NUM_YIELD_TYPES},

	mov	eax, DWORD PTR _this$[ebp]
	add	eax, 2952				; 00000b88H
	mov	DWORD PTR _aData$222423[ebp+180], eax
	mov	ecx, DWORD PTR _numImprovementInfos$222422[ebp]
	mov	DWORD PTR _aData$222423[ebp+184], ecx
	mov	DWORD PTR _aData$222423[ebp+188], 6

; 290  : 			{&m_ppaaiImprovementFreshWaterYieldChange,numImprovementInfos, NUM_YIELD_TYPES}

	mov	edx, DWORD PTR _this$[ebp]
	add	edx, 2956				; 00000b8cH
	mov	DWORD PTR _aData$222423[ebp+192], edx
	mov	eax, DWORD PTR _numImprovementInfos$222422[ebp]
	mov	DWORD PTR _aData$222423[ebp+196], eax
	mov	DWORD PTR _aData$222423[ebp+200], 6

; 291  : 		};
; 292  : 		m_BatchData.Alloc(aData);

	lea	ecx, DWORD PTR _aData$222423[ebp]
	push	ecx
	push	0
	mov	ecx, DWORD PTR _this$[ebp]
	add	ecx, 2888				; 00000b48H
	call	?Alloc@?$FAllocArrayType@HU?$FAllocArrayType@_NU?$FAllocArrayType@_NU?$FAllocArrayType@_NU?$FAllocArrayType@HU?$FAllocArrayType@HU?$FAllocArrayType@HU?$FAllocArrayType@HU?$FAllocArrayType@HU?$FAllocArrayType@HU?$FAllocArrayType@HU?$FAllocArrayType@HU?$FAllocArrayType@HU?$FAllocArrayType@HU?$FAllocArray2DType@HU?$FAllocArray2DType@HU?$FAllocArray2DType@HU?$FAllocBase@$0A@$0A@$0A@@@@@@@@@@@@@@@@@@@@@@@@@@@@@@@@@@@@@QAEPAXIPAUAllocData@@@Z ; FAllocArrayType<int,FAllocArrayType<bool,FAllocArrayType<bool,FAllocArrayType<bool,FAllocArrayType<int,FAllocArrayType<int,FAllocArrayType<int,FAllocArrayType<int,FAllocArrayType<int,FAllocArrayType<int,FAllocArrayType<int,FAllocArrayType<int,FAllocArrayType<int,FAllocArrayType<int,FAllocArray2DType<int,FAllocArray2DType<int,FAllocArray2DType<int,FAllocBase<0,0,0> > > > > > > > > > > > > > > > > >::Alloc

; 293  : 
; 294  : 		//Init the data - it is valid now
; 295  : #ifdef AUI_WARNING_FIXES
; 296  : 		for (uint i = 0; i < numVoteSourceInfos; i++)
; 297  : #else
; 298  : 		for(int i = 0; i < numVoteSourceInfos; i++)

	mov	DWORD PTR _i$222424[ebp], 0
	jmp	SHORT $LN39@reset
$LN38@reset:
	mov	edx, DWORD PTR _i$222424[ebp]
	add	edx, 1
	mov	DWORD PTR _i$222424[ebp], edx
$LN39@reset:
	mov	eax, DWORD PTR _i$222424[ebp]
	cmp	eax, DWORD PTR _numVoteSourceInfos$222412[ebp]
	jge	SHORT $LN37@reset

; 299  : #endif
; 300  : 		{
; 301  : 			m_aiForceTeamVoteEligibilityCount[i] = 0;

	mov	ecx, DWORD PTR _this$[ebp]
	mov	edx, DWORD PTR [ecx+2892]
	mov	eax, DWORD PTR _i$222424[ebp]
	mov	DWORD PTR [edx+eax*4], 0

; 302  : 		}

	jmp	SHORT $LN38@reset
$LN37@reset:

; 303  : #ifdef AUI_WARNING_FIXES
; 304  : 		for (uint i = 0; i < numVictoryInfos; i++)
; 305  : #else
; 306  : 		for(int i = 0; i < numVictoryInfos; i++)

	mov	DWORD PTR _i$222428[ebp], 0
	jmp	SHORT $LN36@reset
$LN35@reset:
	mov	ecx, DWORD PTR _i$222428[ebp]
	add	ecx, 1
	mov	DWORD PTR _i$222428[ebp], ecx
$LN36@reset:
	mov	edx, DWORD PTR _i$222428[ebp]
	cmp	edx, DWORD PTR _numVictoryInfos$222413[ebp]
	jge	SHORT $LN34@reset

; 307  : #endif
; 308  : 		{
; 309  : 			m_abCanLaunch[i] = false;

	mov	eax, DWORD PTR _this$[ebp]
	mov	ecx, DWORD PTR [eax+2896]
	mov	edx, DWORD PTR _i$222428[ebp]
	mov	BYTE PTR [ecx+edx], 0

; 310  : 			m_abVictoryAchieved[i] = false;

	mov	eax, DWORD PTR _this$[ebp]
	mov	ecx, DWORD PTR [eax+2900]
	mov	edx, DWORD PTR _i$222428[ebp]
	mov	BYTE PTR [ecx+edx], 0

; 311  : 			m_aiVictoryCountdown[i] = -1;

	mov	eax, DWORD PTR _this$[ebp]
	mov	ecx, DWORD PTR [eax+2944]
	mov	edx, DWORD PTR _i$222428[ebp]
	mov	DWORD PTR [ecx+edx*4], -1

; 312  : 		}

	jmp	SHORT $LN35@reset
$LN34@reset:

; 313  : #ifdef AUI_WARNING_FIXES
; 314  : 		for (uint i = 0; i < numSmallAwardInfos; i++)
; 315  : #else
; 316  : 		for(int i = 0; i < numSmallAwardInfos; i++)

	mov	DWORD PTR _i$222432[ebp], 0
	jmp	SHORT $LN33@reset
$LN32@reset:
	mov	eax, DWORD PTR _i$222432[ebp]
	add	eax, 1
	mov	DWORD PTR _i$222432[ebp], eax
$LN33@reset:
	mov	ecx, DWORD PTR _i$222432[ebp]
	cmp	ecx, DWORD PTR _numSmallAwardInfos$222414[ebp]
	jge	SHORT $LN31@reset

; 317  : #endif
; 318  : 		{
; 319  : 			m_abSmallAwardAchieved[i] = false;

	mov	edx, DWORD PTR _this$[ebp]
	mov	eax, DWORD PTR [edx+2904]
	mov	ecx, DWORD PTR _i$222432[ebp]
	mov	BYTE PTR [eax+ecx], 0

; 320  : 		}

	jmp	SHORT $LN32@reset
$LN31@reset:

; 321  : #ifdef AUI_WARNING_FIXES
; 322  : 		for (uint i = 0; i < numRouteInfos; i++)
; 323  : #else
; 324  : 		for(int i = 0; i < numRouteInfos; i++)

	mov	DWORD PTR _i$222436[ebp], 0
	jmp	SHORT $LN30@reset
$LN29@reset:
	mov	edx, DWORD PTR _i$222436[ebp]
	add	edx, 1
	mov	DWORD PTR _i$222436[ebp], edx
$LN30@reset:
	mov	eax, DWORD PTR _i$222436[ebp]
	cmp	eax, DWORD PTR _numRouteInfos$222415[ebp]
	jge	SHORT $LN28@reset

; 325  : #endif
; 326  : 		{
; 327  : 			m_paiRouteChange[i] = 0;

	mov	ecx, DWORD PTR _this$[ebp]
	mov	edx, DWORD PTR [ecx+2908]
	mov	eax, DWORD PTR _i$222436[ebp]
	mov	DWORD PTR [edx+eax*4], 0

; 328  : 		}

	jmp	SHORT $LN29@reset
$LN28@reset:

; 329  : #ifdef AUI_WARNING_FIXES
; 330  : 		for (uint i = 0; i < numBuildInfos; i++)
; 331  : #else
; 332  : 		for (int i = 0; i < numBuildInfos; i++)

	mov	DWORD PTR _i$222440[ebp], 0
	jmp	SHORT $LN27@reset
$LN26@reset:
	mov	ecx, DWORD PTR _i$222440[ebp]
	add	ecx, 1
	mov	DWORD PTR _i$222440[ebp], ecx
$LN27@reset:
	mov	edx, DWORD PTR _i$222440[ebp]
	cmp	edx, DWORD PTR _numBuildInfos$222416[ebp]
	jge	SHORT $LN25@reset

; 333  : #endif
; 334  : 		{
; 335  : 			m_paiBuildTimeChange[i] = 0;

	mov	eax, DWORD PTR _this$[ebp]
	mov	ecx, DWORD PTR [eax+2912]
	mov	edx, DWORD PTR _i$222440[ebp]
	mov	DWORD PTR [ecx+edx*4], 0

; 336  : 		}

	jmp	SHORT $LN26@reset
$LN25@reset:

; 337  : #ifdef AUI_WARNING_FIXES
; 338  : 		for (uint i = 0; i < numProjectInfos; i++)
; 339  : #else
; 340  : 		for(int i = 0; i < numProjectInfos; i++)

	mov	DWORD PTR _i$222444[ebp], 0
	jmp	SHORT $LN24@reset
$LN23@reset:
	mov	eax, DWORD PTR _i$222444[ebp]
	add	eax, 1
	mov	DWORD PTR _i$222444[ebp], eax
$LN24@reset:
	mov	ecx, DWORD PTR _i$222444[ebp]
	cmp	ecx, DWORD PTR _numProjectInfos$222417[ebp]
	jge	SHORT $LN22@reset

; 341  : #endif
; 342  : 		{
; 343  : 			m_paiProjectCount[i] = 0;

	mov	edx, DWORD PTR _this$[ebp]
	mov	eax, DWORD PTR [edx+2916]
	mov	ecx, DWORD PTR _i$222444[ebp]
	mov	DWORD PTR [eax+ecx*4], 0

; 344  : 			m_paiProjectDefaultArtTypes[i] = 0;

	mov	edx, DWORD PTR _this$[ebp]
	mov	eax, DWORD PTR [edx+2920]
	mov	ecx, DWORD PTR _i$222444[ebp]
	mov	DWORD PTR [eax+ecx*4], 0

; 345  : 			m_paiProjectMaking[i] = 0;

	mov	edx, DWORD PTR _this$[ebp]
	mov	eax, DWORD PTR [edx+2924]
	mov	ecx, DWORD PTR _i$222444[ebp]
	mov	DWORD PTR [eax+ecx*4], 0

; 346  : 		}

	jmp	SHORT $LN23@reset
$LN22@reset:

; 347  : #ifdef AUI_WARNING_FIXES
; 348  : 		for (uint i = 0; i < numUnitClassInfos; i++)
; 349  : #else
; 350  : 		for(int i = 0; i < numUnitClassInfos; i++)

	mov	DWORD PTR _i$222448[ebp], 0
	jmp	SHORT $LN21@reset
$LN20@reset:
	mov	edx, DWORD PTR _i$222448[ebp]
	add	edx, 1
	mov	DWORD PTR _i$222448[ebp], edx
$LN21@reset:
	mov	eax, DWORD PTR _i$222448[ebp]
	cmp	eax, DWORD PTR _numUnitClassInfos$222418[ebp]
	jge	SHORT $LN19@reset

; 351  : #endif
; 352  : 		{
; 353  : 			m_paiUnitClassCount[i] = 0;

	mov	ecx, DWORD PTR _this$[ebp]
	mov	edx, DWORD PTR [ecx+2928]
	mov	eax, DWORD PTR _i$222448[ebp]
	mov	DWORD PTR [edx+eax*4], 0

; 354  : 		}

	jmp	SHORT $LN20@reset
$LN19@reset:

; 355  : #ifdef AUI_WARNING_FIXES
; 356  : 		for (uint i = 0; i < numBuildingClassInfos; i++)
; 357  : #else
; 358  : 		for(int i = 0; i < numBuildingClassInfos; i++)

	mov	DWORD PTR _i$222452[ebp], 0
	jmp	SHORT $LN18@reset
$LN17@reset:
	mov	ecx, DWORD PTR _i$222452[ebp]
	add	ecx, 1
	mov	DWORD PTR _i$222452[ebp], ecx
$LN18@reset:
	mov	edx, DWORD PTR _i$222452[ebp]
	cmp	edx, DWORD PTR _numBuildingClassInfos$222419[ebp]
	jge	SHORT $LN16@reset

; 359  : #endif
; 360  : 		{
; 361  : 			m_paiBuildingClassCount[i] = 0;

	mov	eax, DWORD PTR _this$[ebp]
	mov	ecx, DWORD PTR [eax+2932]
	mov	edx, DWORD PTR _i$222452[ebp]
	mov	DWORD PTR [ecx+edx*4], 0

; 362  : 		}

	jmp	SHORT $LN17@reset
$LN16@reset:

; 363  : #ifdef AUI_WARNING_FIXES
; 364  : 		for (uint i = 0; i < numBuildingInfos; i++)
; 365  : #else
; 366  : 		for(int i = 0; i < numBuildingInfos; i++)

	mov	DWORD PTR _i$222456[ebp], 0
	jmp	SHORT $LN15@reset
$LN14@reset:
	mov	eax, DWORD PTR _i$222456[ebp]
	add	eax, 1
	mov	DWORD PTR _i$222456[ebp], eax
$LN15@reset:
	mov	ecx, DWORD PTR _i$222456[ebp]
	cmp	ecx, DWORD PTR _numBuildingInfos$222420[ebp]
	jge	SHORT $LN13@reset

; 367  : #endif
; 368  : 		{
; 369  : 			m_paiObsoleteBuildingCount[i] = 0;

	mov	edx, DWORD PTR _this$[ebp]
	mov	eax, DWORD PTR [edx+2936]
	mov	ecx, DWORD PTR _i$222456[ebp]
	mov	DWORD PTR [eax+ecx*4], 0

; 370  : 		}

	jmp	SHORT $LN14@reset
$LN13@reset:

; 371  : #ifdef AUI_WARNING_FIXES
; 372  : 		for (uint i = 0; i < numTerrainInfos; i++)
; 373  : #else
; 374  : 		for(int i = 0; i < numTerrainInfos; i++)

	mov	DWORD PTR _i$222460[ebp], 0
	jmp	SHORT $LN12@reset
$LN11@reset:
	mov	edx, DWORD PTR _i$222460[ebp]
	add	edx, 1
	mov	DWORD PTR _i$222460[ebp], edx
$LN12@reset:
	mov	eax, DWORD PTR _i$222460[ebp]
	cmp	eax, DWORD PTR _numTerrainInfos$222421[ebp]
	jge	SHORT $LN10@reset

; 375  : #endif
; 376  : 		{
; 377  : 			m_paiTerrainTradeCount[i] = 0;

	mov	ecx, DWORD PTR _this$[ebp]
	mov	edx, DWORD PTR [ecx+2940]
	mov	eax, DWORD PTR _i$222460[ebp]
	mov	DWORD PTR [edx+eax*4], 0

; 378  : 		}

	jmp	SHORT $LN11@reset
$LN10@reset:

; 379  : 
; 380  : 		for(int i = 0; i < MAX_TEAMS; i++)

	mov	DWORD PTR _i$222464[ebp], 0
	jmp	SHORT $LN9@reset
$LN8@reset:
	mov	ecx, DWORD PTR _i$222464[ebp]
	add	ecx, 1
	mov	DWORD PTR _i$222464[ebp], ecx
$LN9@reset:
	cmp	DWORD PTR _i$222464[ebp], 64		; 00000040H
	jge	SHORT $LN7@reset

; 381  : 		{
; 382  : 			m_aiTurnTeamMet[i] = -1;

	mov	edx, DWORD PTR _i$222464[ebp]
	mov	eax, DWORD PTR _this$[ebp]
	mov	DWORD PTR [eax+edx*4+2568], -1

; 383  : 			m_aiNumTurnsAtWar[i] = 0;

	mov	ecx, DWORD PTR _i$222464[ebp]
	mov	edx, DWORD PTR _this$[ebp]
	mov	DWORD PTR [edx+ecx*4+468], 0

; 384  : 			m_aiNumTurnsLockedIntoWar[i] = 0;

	mov	eax, DWORD PTR _i$222464[ebp]
	mov	ecx, DWORD PTR _this$[ebp]
	mov	DWORD PTR [ecx+eax*4+788], 0

; 385  : 		}

	jmp	SHORT $LN8@reset
$LN7@reset:

; 386  : 
; 387  : #ifdef AUI_WARNING_FIXES
; 388  : 		for (uint i = 0; i < numImprovementInfos; i++)
; 389  : #else
; 390  : 		for(int i = 0; i < numImprovementInfos; i++)

	mov	DWORD PTR _i$222468[ebp], 0
	jmp	SHORT $LN6@reset
$LN5@reset:
	mov	edx, DWORD PTR _i$222468[ebp]
	add	edx, 1
	mov	DWORD PTR _i$222468[ebp], edx
$LN6@reset:
	mov	eax, DWORD PTR _i$222468[ebp]
	cmp	eax, DWORD PTR _numImprovementInfos$222422[ebp]
	jge	$LN4@reset

; 391  : #endif
; 392  : 		{
; 393  : 			for(int j = 0; j < NUM_YIELD_TYPES; j++)

	mov	DWORD PTR _j$222472[ebp], 0
	jmp	SHORT $LN3@reset
$LN2@reset:
	mov	ecx, DWORD PTR _j$222472[ebp]
	add	ecx, 1
	mov	DWORD PTR _j$222472[ebp], ecx
$LN3@reset:
	cmp	DWORD PTR _j$222472[ebp], 6
	jge	SHORT $LN1@reset

; 394  : 			{
; 395  : 				m_ppaaiImprovementYieldChange[i][j] = 0;

	mov	edx, DWORD PTR _this$[ebp]
	mov	eax, DWORD PTR [edx+2948]
	mov	ecx, DWORD PTR _i$222468[ebp]
	mov	edx, DWORD PTR [eax+ecx*4]
	mov	eax, DWORD PTR _j$222472[ebp]
	mov	DWORD PTR [edx+eax*4], 0

; 396  : 				m_ppaaiImprovementNoFreshWaterYieldChange[i][j] = 0;

	mov	ecx, DWORD PTR _this$[ebp]
	mov	edx, DWORD PTR [ecx+2952]
	mov	eax, DWORD PTR _i$222468[ebp]
	mov	ecx, DWORD PTR [edx+eax*4]
	mov	edx, DWORD PTR _j$222472[ebp]
	mov	DWORD PTR [ecx+edx*4], 0

; 397  : 				m_ppaaiImprovementFreshWaterYieldChange[i][j] = 0;

	mov	eax, DWORD PTR _this$[ebp]
	mov	ecx, DWORD PTR [eax+2956]
	mov	edx, DWORD PTR _i$222468[ebp]
	mov	eax, DWORD PTR [ecx+edx*4]
	mov	ecx, DWORD PTR _j$222472[ebp]
	mov	DWORD PTR [eax+ecx*4], 0

; 398  : 			}

	jmp	SHORT $LN2@reset
$LN1@reset:

; 399  : 		}

	jmp	$LN5@reset
$LN4@reset:

; 400  : 
; 401  : 		m_pTeamTechs->Init(GC.GetGameTechs(), this);

	mov	edx, DWORD PTR _this$[ebp]
	push	edx
	mov	ecx, OFFSET ?gGlobals@@3VCvGlobals@@A	; gGlobals
	call	?GetGameTechs@CvGlobals@@QBEPAVCvTechXMLEntries@@XZ ; CvGlobals::GetGameTechs
	push	eax
	mov	eax, DWORD PTR _this$[ebp]
	mov	ecx, DWORD PTR [eax+2980]
	call	?Init@CvTeamTechs@@QAEXPAVCvTechXMLEntries@@PAVCvTeam@@@Z ; CvTeamTechs::Init

; 402  : 		m_pavProjectArtTypes = FNEW(std::vector<int> [GC.getNumProjectInfos()], c_eCiv5GameplayDLL, 0);

	mov	ecx, OFFSET ?gGlobals@@3VCvGlobals@@A	; gGlobals
	call	?getNumProjectInfos@CvGlobals@@QAEHXZ	; CvGlobals::getNumProjectInfos
	mov	DWORD PTR $T231317[ebp], eax
	xor	ecx, ecx
	mov	eax, DWORD PTR $T231317[ebp]
	mov	edx, 16					; 00000010H
	mul	edx
	seto	cl
	neg	ecx
	or	ecx, eax
	xor	eax, eax
	add	ecx, 4
	setb	al
	neg	eax
	or	eax, ecx
	push	eax
	call	??_U@YAPAXI@Z				; operator new[]
	add	esp, 4
	mov	DWORD PTR $T231319[ebp], eax
	mov	DWORD PTR __$EHRec$[ebp+8], 0
	cmp	DWORD PTR $T231319[ebp], 0
	je	SHORT $LN43@reset
	mov	ecx, DWORD PTR $T231319[ebp]
	mov	edx, DWORD PTR $T231317[ebp]
	mov	DWORD PTR [ecx], edx
	push	OFFSET ??1?$vector@HV?$allocator@H@std@@@std@@QAE@XZ ; std::vector<int,std::allocator<int> >::~vector<int,std::allocator<int> >
	push	OFFSET ??0?$vector@HV?$allocator@H@std@@@std@@QAE@XZ ; std::vector<int,std::allocator<int> >::vector<int,std::allocator<int> >
	mov	eax, DWORD PTR $T231317[ebp]
	push	eax
	push	16					; 00000010H
	mov	ecx, DWORD PTR $T231319[ebp]
	add	ecx, 4
	push	ecx
	call	??_L@YGXPAXIHP6EX0@Z1@Z
	mov	edx, DWORD PTR $T231319[ebp]
	add	edx, 4
	mov	DWORD PTR tv393[ebp], edx
	jmp	SHORT $LN44@reset
$LN43@reset:
	mov	DWORD PTR tv393[ebp], 0
$LN44@reset:
	mov	eax, DWORD PTR tv393[ebp]
	mov	DWORD PTR $T231318[ebp], eax
	mov	DWORD PTR __$EHRec$[ebp+8], -1
	mov	ecx, DWORD PTR _this$[ebp]
	mov	edx, DWORD PTR $T231318[ebp]
	mov	DWORD PTR [ecx+2960], edx

; 403  : 		m_aeRevealedResources.clear();

	mov	eax, DWORD PTR _this$[ebp]
	add	eax, 2964				; 00000b94H
	mov	DWORD PTR $T231538[ebp], eax
	mov	ecx, DWORD PTR $T231538[ebp]
	mov	edx, DWORD PTR [ecx+8]
	mov	DWORD PTR $T231355[ebp], edx
	mov	eax, DWORD PTR $T231355[ebp]
	mov	DWORD PTR $T231522[ebp], eax
	mov	ecx, DWORD PTR $T231522[ebp]
	mov	DWORD PTR $T231521[ebp], ecx
	mov	edx, DWORD PTR $T231538[ebp]
	mov	eax, DWORD PTR [edx+4]
	mov	DWORD PTR $T231371[ebp], eax
	mov	ecx, DWORD PTR $T231371[ebp]
	mov	DWORD PTR $T231524[ebp], ecx
	mov	edx, DWORD PTR $T231524[ebp]
	mov	DWORD PTR $T231523[ebp], edx
	mov	eax, DWORD PTR $T231521[ebp]
	push	eax
	mov	ecx, DWORD PTR $T231523[ebp]
	push	ecx
	lea	edx, DWORD PTR $T231525[ebp]
	push	edx
	mov	ecx, DWORD PTR $T231538[ebp]
	call	?erase@?$vector@W4ResourceTypes@@V?$allocator@W4ResourceTypes@@@std@@@std@@QAE?AV?$_Vector_iterator@W4ResourceTypes@@V?$allocator@W4ResourceTypes@@@std@@@2@V?$_Vector_const_iterator@W4ResourceTypes@@V?$allocator@W4ResourceTypes@@@std@@@2@0@Z ; std::vector<enum ResourceTypes,std::allocator<enum ResourceTypes> >::erase
$LN41@reset:

; 404  : 	}
; 405  : }

	mov	ecx, DWORD PTR __$EHRec$[ebp]
	mov	DWORD PTR fs:0, ecx
	pop	ecx
	mov	esp, ebp
	pop	ebp
	ret	8
_TEXT	ENDS
;	COMDAT text$x
text$x	SEGMENT
__unwindfunclet$?reset@CvTeam@@QAEXW4TeamTypes@@_N@Z$0:
	mov	eax, DWORD PTR $T231319[ebp]
	push	eax
	call	??_V@YAXPAX@Z				; operator delete[]
	pop	ecx
	ret	0
__ehhandler$?reset@CvTeam@@QAEXW4TeamTypes@@_N@Z:
	mov	edx, DWORD PTR [esp+8]
	lea	eax, DWORD PTR [edx+12]
	mov	ecx, DWORD PTR [edx-508]
	xor	ecx, eax
	call	@__security_check_cookie@4
	mov	eax, OFFSET __ehfuncinfo$?reset@CvTeam@@QAEXW4TeamTypes@@_N@Z
	jmp	___CxxFrameHandler3
text$x	ENDS
?reset@CvTeam@@QAEXW4TeamTypes@@_N@Z ENDP		; CvTeam::reset
PUBLIC	??1?$_Vector_val@HV?$allocator@H@std@@@std@@QAE@XZ ; std::_Vector_val<int,std::allocator<int> >::~_Vector_val<int,std::allocator<int> >
PUBLIC	?_Tidy@?$vector@HV?$allocator@H@std@@@std@@IAEXXZ ; std::vector<int,std::allocator<int> >::_Tidy
PUBLIC	??_E?$vector@HV?$allocator@H@std@@@std@@QAEPAXI@Z ; std::vector<int,std::allocator<int> >::`vector deleting destructor'
;	COMDAT xdata$x
xdata$x	SEGMENT
__unwindtable$??_E?$vector@HV?$allocator@H@std@@@std@@QAEPAXI@Z DD 0ffffffffH
	DD	FLAT:__unwindfunclet$??_E?$vector@HV?$allocator@H@std@@@std@@QAEPAXI@Z$0
__ehfuncinfo$??_E?$vector@HV?$allocator@H@std@@@std@@QAEPAXI@Z DD 019930522H
	DD	01H
	DD	FLAT:__unwindtable$??_E?$vector@HV?$allocator@H@std@@@std@@QAEPAXI@Z
	DD	2 DUP(00H)
	DD	2 DUP(00H)
	DD	00H
	DD	01H
; Function compile flags: /Odtp
xdata$x	ENDS
;	COMDAT ??_E?$vector@HV?$allocator@H@std@@@std@@QAEPAXI@Z
_TEXT	SEGMENT
_this$ = -44						; size = 4
__$EHRec$ = -12						; size = 12
___flags$ = 8						; size = 4
??_E?$vector@HV?$allocator@H@std@@@std@@QAEPAXI@Z PROC	; std::vector<int,std::allocator<int> >::`vector deleting destructor', COMDAT
; _this$ = ecx
	push	ebp
	mov	ebp, esp
	push	-1
	push	__ehhandler$??_E?$vector@HV?$allocator@H@std@@@std@@QAEPAXI@Z
	mov	eax, DWORD PTR fs:0
	push	eax
	sub	esp, 32					; 00000020H
	mov	eax, DWORD PTR ___security_cookie
	xor	eax, ebp
	push	eax
	lea	eax, DWORD PTR __$EHRec$[ebp]
	mov	DWORD PTR fs:0, eax
	mov	DWORD PTR _this$[ebp], ecx
	mov	eax, DWORD PTR ___flags$[ebp]
	and	eax, 2
	je	SHORT $LN3@vector@2
	push	OFFSET ??1?$vector@HV?$allocator@H@std@@@std@@QAE@XZ ; std::vector<int,std::allocator<int> >::~vector<int,std::allocator<int> >
	mov	ecx, DWORD PTR _this$[ebp]
	mov	edx, DWORD PTR [ecx-4]
	push	edx
	push	16					; 00000010H
	mov	eax, DWORD PTR _this$[ebp]
	push	eax
	call	??_M@YGXPAXIHP6EX0@Z@Z
	mov	ecx, DWORD PTR ___flags$[ebp]
	and	ecx, 1
	je	SHORT $LN2@vector@2
	mov	edx, DWORD PTR _this$[ebp]
	sub	edx, 4
	push	edx
	call	??_V@YAXPAX@Z				; operator delete[]
	add	esp, 4
$LN2@vector@2:
	mov	eax, DWORD PTR _this$[ebp]
	sub	eax, 4
	jmp	SHORT $LN4@vector@2
$LN3@vector@2:
	mov	DWORD PTR __$EHRec$[ebp+8], 0
	mov	ecx, DWORD PTR _this$[ebp]
	call	?_Tidy@?$vector@HV?$allocator@H@std@@@std@@IAEXXZ ; std::vector<int,std::allocator<int> >::_Tidy
	mov	DWORD PTR __$EHRec$[ebp+8], -1
	mov	eax, DWORD PTR ___flags$[ebp]
	and	eax, 1
	je	SHORT $LN1@vector@2
	mov	ecx, DWORD PTR _this$[ebp]
	push	ecx
	call	??3@YAXPAX@Z				; operator delete
	add	esp, 4
$LN1@vector@2:
	mov	eax, DWORD PTR _this$[ebp]
$LN4@vector@2:
	mov	ecx, DWORD PTR __$EHRec$[ebp]
	mov	DWORD PTR fs:0, ecx
	pop	ecx
	mov	esp, ebp
	pop	ebp
	ret	4
_TEXT	ENDS
;	COMDAT text$x
text$x	SEGMENT
__unwindfunclet$??_E?$vector@HV?$allocator@H@std@@@std@@QAEPAXI@Z$0:
	mov	ecx, DWORD PTR _this$[ebp]
	jmp	??1?$_Vector_val@HV?$allocator@H@std@@@std@@QAE@XZ
__ehhandler$??_E?$vector@HV?$allocator@H@std@@@std@@QAEPAXI@Z:
	mov	edx, DWORD PTR [esp+8]
	lea	eax, DWORD PTR [edx+12]
	mov	ecx, DWORD PTR [edx-36]
	xor	ecx, eax
	call	@__security_check_cookie@4
	mov	eax, OFFSET __ehfuncinfo$??_E?$vector@HV?$allocator@H@std@@@std@@QAEPAXI@Z
	jmp	___CxxFrameHandler3
text$x	ENDS
??_E?$vector@HV?$allocator@H@std@@@std@@QAEPAXI@Z ENDP	; std::vector<int,std::allocator<int> >::`vector deleting destructor'
PUBLIC	??1CvString@@QAE@XZ				; CvString::~CvString
PUBLIC	?shareCounters@CvTeam@@QAEXW4TeamTypes@@@Z	; CvTeam::shareCounters
PUBLIC	?setForcePeace@CvTeam@@QAEXW4TeamTypes@@_N@Z	; CvTeam::setForcePeace
PUBLIC	?isForcePeace@CvTeam@@QBE_NW4TeamTypes@@@Z	; CvTeam::isForcePeace
PUBLIC	?SetHasDefensivePact@CvTeam@@QAEXW4TeamTypes@@_N@Z ; CvTeam::SetHasDefensivePact
PUBLIC	?IsHasDefensivePact@CvTeam@@QBE_NW4TeamTypes@@@Z ; CvTeam::IsHasDefensivePact
PUBLIC	?SetAllowsOpenBordersToTeam@CvTeam@@QAEXW4TeamTypes@@_N@Z ; CvTeam::SetAllowsOpenBordersToTeam
PUBLIC	?IsAllowsOpenBordersToTeam@CvTeam@@QBE_NW4TeamTypes@@@Z ; CvTeam::IsAllowsOpenBordersToTeam
PUBLIC	?SetHasEmbassyAtTeam@CvTeam@@QAEXW4TeamTypes@@_N@Z ; CvTeam::SetHasEmbassyAtTeam
PUBLIC	?HasEmbassyAtTeam@CvTeam@@QBE_NW4TeamTypes@@@Z	; CvTeam::HasEmbassyAtTeam
PUBLIC	?setPermanentWarPeace@CvTeam@@QAEXW4TeamTypes@@_N@Z ; CvTeam::setPermanentWarPeace
PUBLIC	?isPermanentWarPeace@CvTeam@@QBE_NW4TeamTypes@@@Z ; CvTeam::isPermanentWarPeace
PUBLIC	?declareWar@CvTeam@@QAEXW4TeamTypes@@_N@Z	; CvTeam::declareWar
PUBLIC	?isAtWar@CvTeam@@QBE_NW4TeamTypes@@@Z		; CvTeam::isAtWar
PUBLIC	?meet@CvTeam@@QAEXW4TeamTypes@@_N@Z		; CvTeam::meet
PUBLIC	?shareItems@CvTeam@@QAEXW4TeamTypes@@@Z		; CvTeam::shareItems
PUBLIC	?getLeaderID@CvTeam@@QBE?AW4PlayerTypes@@XZ	; CvTeam::getLeaderID
PUBLIC	??$GetLocalizedText@PBDPBD@@YA?AVCvString@@PBDABQBD1@Z ; GetLocalizedText<char const *,char const *>
PUBLIC	??_C@_0CH@BFNGIGJO@TXT_KEY_MISC_PLAYER_PERMANENT_AL@ ; `string'
PUBLIC	?getName@CvTeam@@QBE?AVCvString@@XZ		; CvTeam::getName
PUBLIC	?isHasMet@CvTeam@@QBE_NW4TeamTypes@@@Z		; CvTeam::isHasMet
PUBLIC	?GetID@CvTeam@@QBE?AW4TeamTypes@@XZ		; CvTeam::GetID
PUBLIC	__$ArrayPad$
PUBLIC	?addTeam@CvTeam@@QAEXW4TeamTypes@@@Z		; CvTeam::addTeam
EXTRN	?updateScore@CvGame@@QAEX_N@Z:PROC		; CvGame::updateScore
EXTRN	?setRevealed@CvPlot@@QAE_NW4TeamTypes@@_N10@Z:PROC ; CvPlot::setRevealed
EXTRN	?changeInvisibleVisibilityCount@CvPlot@@QAEXW4TeamTypes@@W4InvisibleTypes@@H@Z:PROC ; CvPlot::changeInvisibleVisibilityCount
EXTRN	?getInvisibleVisibilityCount@CvPlot@@QBEHW4TeamTypes@@W4InvisibleTypes@@@Z:PROC ; CvPlot::getInvisibleVisibilityCount
EXTRN	?changeVisibilityCount@CvPlot@@QAE?AW4PlotVisibilityChangeResult@@W4TeamTypes@@HW4InvisibleTypes@@_N2@Z:PROC ; CvPlot::changeVisibilityCount
EXTRN	?setTeam@CvPlayer@@QAEXW4TeamTypes@@@Z:PROC	; CvPlayer::setTeam
EXTRN	?addReplayMessage@CvGame@@QAEXW4ReplayMessageTypes@@W4PlayerTypes@@ABVCvString@@HH@Z:PROC ; CvGame::addReplayMessage
EXTRN	__imp_??1?$basic_string@DU?$char_traits@D@std@@V?$allocator@D@2@@std@@QAE@XZ:PROC
EXTRN	__imp_??4?$basic_string@DU?$char_traits@D@std@@V?$allocator@D@2@@std@@QAEAAV01@ABV01@@Z:PROC
EXTRN	__imp_?c_str@?$basic_string@DU?$char_traits@D@std@@V?$allocator@D@2@@std@@QBEPBDXZ:PROC
EXTRN	?getActivePlayer@CvGame@@QBE?AW4PlayerTypes@@XZ:PROC ; CvGame::getActivePlayer
EXTRN	?m_aPlayers@CvPlayerAI@@1PAV1@A:DWORD		; CvPlayerAI::m_aPlayers
EXTRN	__imp_??0?$basic_string@DU?$char_traits@D@std@@V?$allocator@D@2@@std@@QAE@XZ:PROC
;	COMDAT ??_C@_0CH@BFNGIGJO@TXT_KEY_MISC_PLAYER_PERMANENT_AL@
; File d:\sources\lekmod_git\checkout\lekmod_dll\cvgamecoredllutil\include\cvstring.h
CONST	SEGMENT
??_C@_0CH@BFNGIGJO@TXT_KEY_MISC_PLAYER_PERMANENT_AL@ DB 'TXT_KEY_MISC_PLA'
	DB	'YER_PERMANENT_ALLIANCE', 00H		; `string'
CONST	ENDS
;	COMDAT xdata$x
xdata$x	SEGMENT
__ehfuncinfo$?addTeam@CvTeam@@QAEXW4TeamTypes@@@Z DD 019930522H
	DD	07H
	DD	FLAT:__unwindtable$?addTeam@CvTeam@@QAEXW4TeamTypes@@@Z
	DD	2 DUP(00H)
	DD	2 DUP(00H)
	DD	00H
	DD	01H
__unwindtable$?addTeam@CvTeam@@QAEXW4TeamTypes@@@Z DD 0ffffffffH
	DD	FLAT:__unwindfunclet$?addTeam@CvTeam@@QAEXW4TeamTypes@@@Z$0
	DD	00H
	DD	FLAT:__unwindfunclet$?addTeam@CvTeam@@QAEXW4TeamTypes@@@Z$1
	DD	01H
	DD	FLAT:__unwindfunclet$?addTeam@CvTeam@@QAEXW4TeamTypes@@@Z$2
	DD	02H
	DD	FLAT:__unwindfunclet$?addTeam@CvTeam@@QAEXW4TeamTypes@@@Z$3
	DD	00H
	DD	FLAT:__unwindfunclet$?addTeam@CvTeam@@QAEXW4TeamTypes@@@Z$4
	DD	04H
	DD	FLAT:__unwindfunclet$?addTeam@CvTeam@@QAEXW4TeamTypes@@@Z$5
	DD	05H
	DD	FLAT:__unwindfunclet$?addTeam@CvTeam@@QAEXW4TeamTypes@@@Z$6
; Function compile flags: /Odtp
; File d:\sources\lekmod_git\checkout\lekmod_dll\cvgamecoredll_expansion2\cvteam.cpp
xdata$x	ENDS
;	COMDAT ?addTeam@CvTeam@@QAEXW4TeamTypes@@@Z
_TEXT	SEGMENT
tv864 = -480						; size = 4
tv831 = -476						; size = 4
tv830 = -472						; size = 4
tv200 = -468						; size = 4
tv829 = -464						; size = 4
tv66 = -460						; size = 4
tv620 = -456						; size = 4
_this$ = -452						; size = 4
$T231955 = -448						; size = 4
_uiOffset$231950 = -444					; size = 4
$T231941 = -440						; size = 4
$T231934 = -436						; size = 4
$T231930 = -432						; size = 4
$T231926 = -428						; size = 4
$T231922 = -424						; size = 4
$T231910 = -420						; size = 4
$T231906 = -416						; size = 4
$T231896 = -412						; size = 4
$T231892 = -408						; size = 4
$T231885 = -404						; size = 4
$T231875 = -400						; size = 4
$T231871 = -396						; size = 4
$T231864 = -392						; size = 4
$T231854 = -388						; size = 4
$T231850 = -384						; size = 4
$T231843 = -380						; size = 4
$T231836 = -376						; size = 4
$T231829 = -372						; size = 4
$T231822 = -368						; size = 4
$T231815 = -364						; size = 4
$T231808 = -360						; size = 4
$T231801 = -356						; size = 4
$T231794 = -352						; size = 4
$T231787 = -348						; size = 4
$T231783 = -344						; size = 4
$T231779 = -340						; size = 4
$T231763 = -336						; size = 4
$T231759 = -332						; size = 4
$T231755 = -328						; size = 4
$T231751 = -324						; size = 4
$T231747 = -320						; size = 4
$T231743 = -316						; size = 4
$T231739 = -312						; size = 4
$T231723 = -308						; size = 4
$T231719 = -304						; size = 4
$T231715 = -300						; size = 4
$T231711 = -296						; size = 4
$T231707 = -292						; size = 4
$T231703 = -288						; size = 4
$T231699 = -284						; size = 4
$T231690 = -280						; size = 4
$T231686 = -276						; size = 4
$T231682 = -272						; size = 4
$T231673 = -268						; size = 4
$T231661 = -264						; size = 4
$T231657 = -260						; size = 4
$T231648 = -256						; size = 4
$T231644 = -249						; size = 1
$T231635 = -248						; size = 4
$T231620 = -244						; size = 28
$T231619 = -216						; size = 28
$T231618 = -188						; size = 4
$T231617 = -184						; size = 28
$T231616 = -156						; size = 4
$T231615 = -152						; size = 28
$T231614 = -124						; size = 28
$T231613 = -96						; size = 4
$T231612 = -92						; size = 28
$T231611 = -64						; size = 4
_strBuffer$ = -60					; size = 28
__$ArrayPad$ = -32					; size = 4
_iJ$ = -28						; size = 4
_iNumInvisibleInfos$ = -24				; size = 4
_iI$ = -20						; size = 4
_pLoopPlot$ = -16					; size = 4
__$EHRec$ = -12						; size = 12
_eTeam$ = 8						; size = 4
?addTeam@CvTeam@@QAEXW4TeamTypes@@@Z PROC		; CvTeam::addTeam, COMDAT
; _this$ = ecx

; 410  : {

	push	ebp
	mov	ebp, esp
	push	-1
	push	__ehhandler$?addTeam@CvTeam@@QAEXW4TeamTypes@@@Z
	mov	eax, DWORD PTR fs:0
	push	eax
	sub	esp, 468				; 000001d4H
	mov	eax, DWORD PTR ___security_cookie
	xor	eax, ebp
	mov	DWORD PTR __$ArrayPad$[ebp], eax
	push	eax
	lea	eax, DWORD PTR __$EHRec$[ebp]
	mov	DWORD PTR fs:0, eax
	mov	DWORD PTR _this$[ebp], ecx

; 411  : 	CvPlot* pLoopPlot;
; 412  : 	CvString strBuffer;

	lea	ecx, DWORD PTR _strBuffer$[ebp]
	call	DWORD PTR __imp_??0?$basic_string@DU?$char_traits@D@std@@V?$allocator@D@2@@std@@QAE@XZ
	mov	DWORD PTR __$EHRec$[ebp+8], 0

; 413  : #ifdef AUI_WARNING_FIXES
; 414  : 	int iI;
; 415  : 	uint iJ;
; 416  : #else
; 417  : 	int iI, iJ;
; 418  : #endif
; 419  : 
; 420  : 	CvAssert(eTeam != NO_TEAM);
; 421  : 	CvAssert(eTeam != GetID());
; 422  : 
; 423  : 	for(iI = 0; iI < MAX_PLAYERS; iI++)

	mov	DWORD PTR _iI$[ebp], 0
	jmp	SHORT $LN74@addTeam
$LN73@addTeam:
	mov	eax, DWORD PTR _iI$[ebp]
	add	eax, 1
	mov	DWORD PTR _iI$[ebp], eax
$LN74@addTeam:
	cmp	DWORD PTR _iI$[ebp], 64			; 00000040H
	jge	$LN72@addTeam

; 424  : 	{
; 425  : 		if(GET_PLAYER((PlayerTypes)iI).isAlive())

	mov	ecx, DWORD PTR _iI$[ebp]
	imul	ecx, 63236				; 0000f704H
	add	ecx, DWORD PTR ?m_aPlayers@CvPlayerAI@@1PAV1@A ; CvPlayerAI::m_aPlayers
	mov	DWORD PTR $T231635[ebp], ecx
	mov	edx, DWORD PTR $T231635[ebp]
	mov	al, BYTE PTR [edx+2256]
	mov	BYTE PTR $T231644[ebp], al
	movzx	ecx, BYTE PTR $T231644[ebp]
	test	ecx, ecx
	je	$LN71@addTeam

; 426  : 		{
; 427  : 			if((GET_PLAYER((PlayerTypes)iI).getTeam() != GetID()) && (GET_PLAYER((PlayerTypes)iI).getTeam() != eTeam))

	mov	edx, DWORD PTR _iI$[ebp]
	imul	edx, 63236				; 0000f704H
	add	edx, DWORD PTR ?m_aPlayers@CvPlayerAI@@1PAV1@A ; CvPlayerAI::m_aPlayers
	mov	DWORD PTR $T231648[ebp], edx
	mov	eax, DWORD PTR $T231648[ebp]
	mov	ecx, DWORD PTR [eax+44]
	push	ecx
	call	?teamType@CvPreGame@@YA?AW4TeamTypes@@W4PlayerTypes@@@Z ; CvPreGame::teamType
	add	esp, 4
	mov	DWORD PTR $T231657[ebp], eax
	mov	ecx, DWORD PTR _this$[ebp]
	call	?GetID@CvTeam@@QBE?AW4TeamTypes@@XZ	; CvTeam::GetID
	cmp	DWORD PTR $T231657[ebp], eax
	je	$LN71@addTeam
	mov	edx, DWORD PTR _iI$[ebp]
	imul	edx, 63236				; 0000f704H
	add	edx, DWORD PTR ?m_aPlayers@CvPlayerAI@@1PAV1@A ; CvPlayerAI::m_aPlayers
	mov	DWORD PTR $T231661[ebp], edx
	mov	eax, DWORD PTR $T231661[ebp]
	mov	ecx, DWORD PTR [eax+44]
	push	ecx
	call	?teamType@CvPreGame@@YA?AW4TeamTypes@@W4PlayerTypes@@@Z ; CvPreGame::teamType
	add	esp, 4
	cmp	eax, DWORD PTR _eTeam$[ebp]
	je	$LN71@addTeam

; 428  : 			{
; 429  : 				if(GET_TEAM(GET_PLAYER((PlayerTypes)iI).getTeam()).isHasMet(GetID()) && GET_TEAM(GET_PLAYER((PlayerTypes)iI).getTeam()).isHasMet(eTeam))

	mov	edx, DWORD PTR _iI$[ebp]
	imul	edx, 63236				; 0000f704H
	add	edx, DWORD PTR ?m_aPlayers@CvPlayerAI@@1PAV1@A ; CvPlayerAI::m_aPlayers
	mov	DWORD PTR $T231673[ebp], edx
	mov	eax, DWORD PTR $T231673[ebp]
	mov	ecx, DWORD PTR [eax+44]
	push	ecx
	call	?teamType@CvPreGame@@YA?AW4TeamTypes@@W4PlayerTypes@@@Z ; CvPreGame::teamType
	add	esp, 4
	mov	DWORD PTR $T231682[ebp], eax
	mov	edx, DWORD PTR $T231682[ebp]
	imul	edx, 2984				; 00000ba8H
	add	edx, DWORD PTR ?m_aTeams@CvTeam@@1PAV1@A ; CvTeam::m_aTeams
	mov	DWORD PTR $T231686[ebp], edx
	mov	ecx, DWORD PTR _this$[ebp]
	call	?GetID@CvTeam@@QBE?AW4TeamTypes@@XZ	; CvTeam::GetID
	push	eax
	mov	ecx, DWORD PTR $T231686[ebp]
	call	?isHasMet@CvTeam@@QBE_NW4TeamTypes@@@Z	; CvTeam::isHasMet
	movzx	eax, al
	test	eax, eax
	je	$LN71@addTeam
	mov	ecx, DWORD PTR _iI$[ebp]
	imul	ecx, 63236				; 0000f704H
	add	ecx, DWORD PTR ?m_aPlayers@CvPlayerAI@@1PAV1@A ; CvPlayerAI::m_aPlayers
	mov	DWORD PTR $T231690[ebp], ecx
	mov	edx, DWORD PTR $T231690[ebp]
	mov	eax, DWORD PTR [edx+44]
	push	eax
	call	?teamType@CvPreGame@@YA?AW4TeamTypes@@W4PlayerTypes@@@Z ; CvPreGame::teamType
	add	esp, 4
	mov	DWORD PTR $T231699[ebp], eax
	mov	ecx, DWORD PTR $T231699[ebp]
	imul	ecx, 2984				; 00000ba8H
	add	ecx, DWORD PTR ?m_aTeams@CvTeam@@1PAV1@A ; CvTeam::m_aTeams
	mov	DWORD PTR $T231703[ebp], ecx
	mov	edx, DWORD PTR _eTeam$[ebp]
	push	edx
	mov	ecx, DWORD PTR $T231703[ebp]
	call	?isHasMet@CvTeam@@QBE_NW4TeamTypes@@@Z	; CvTeam::isHasMet
	movzx	eax, al
	test	eax, eax
	je	$LN71@addTeam

; 430  : 				{
; 431  : 					if(iI == GC.getGame().getActivePlayer())

	mov	ecx, DWORD PTR ?gGlobals@@3VCvGlobals@@A+48
	mov	DWORD PTR $T231707[ebp], ecx
	mov	ecx, DWORD PTR $T231707[ebp]
	call	?getActivePlayer@CvGame@@QBE?AW4PlayerTypes@@XZ ; CvGame::getActivePlayer
	cmp	DWORD PTR _iI$[ebp], eax
	jne	$LN71@addTeam

; 432  : 					{
; 433  : 						strBuffer = GetLocalizedText("TXT_KEY_MISC_PLAYER_PERMANENT_ALLIANCE", getName().GetCString(), GET_TEAM(eTeam).getName().GetCString());

	mov	edx, DWORD PTR _eTeam$[ebp]
	imul	edx, 2984				; 00000ba8H
	add	edx, DWORD PTR ?m_aTeams@CvTeam@@1PAV1@A ; CvTeam::m_aTeams
	mov	DWORD PTR $T231711[ebp], edx
	lea	eax, DWORD PTR $T231612[ebp]
	push	eax
	mov	ecx, DWORD PTR $T231711[ebp]
	call	?getName@CvTeam@@QBE?AVCvString@@XZ	; CvTeam::getName
	mov	DWORD PTR tv620[ebp], eax
	mov	ecx, DWORD PTR tv620[ebp]
	mov	DWORD PTR $T231715[ebp], ecx
	mov	BYTE PTR __$EHRec$[ebp+8], 1
	mov	ecx, DWORD PTR $T231715[ebp]
	call	DWORD PTR __imp_?c_str@?$basic_string@DU?$char_traits@D@std@@V?$allocator@D@2@@std@@QBEPBDXZ
	mov	DWORD PTR $T231611[ebp], eax
	lea	edx, DWORD PTR $T231614[ebp]
	push	edx
	mov	ecx, DWORD PTR _this$[ebp]
	call	?getName@CvTeam@@QBE?AVCvString@@XZ	; CvTeam::getName
	mov	DWORD PTR tv66[ebp], eax
	mov	eax, DWORD PTR tv66[ebp]
	mov	DWORD PTR $T231719[ebp], eax
	mov	BYTE PTR __$EHRec$[ebp+8], 2
	mov	ecx, DWORD PTR $T231719[ebp]
	call	DWORD PTR __imp_?c_str@?$basic_string@DU?$char_traits@D@std@@V?$allocator@D@2@@std@@QBEPBDXZ
	mov	DWORD PTR $T231613[ebp], eax
	lea	ecx, DWORD PTR $T231611[ebp]
	push	ecx
	lea	edx, DWORD PTR $T231613[ebp]
	push	edx
	push	OFFSET ??_C@_0CH@BFNGIGJO@TXT_KEY_MISC_PLAYER_PERMANENT_AL@
	lea	eax, DWORD PTR $T231615[ebp]
	push	eax
	call	??$GetLocalizedText@PBDPBD@@YA?AVCvString@@PBDABQBD1@Z ; GetLocalizedText<char const *,char const *>
	add	esp, 16					; 00000010H
	mov	DWORD PTR tv829[ebp], eax
	mov	ecx, DWORD PTR tv829[ebp]
	mov	DWORD PTR $T231723[ebp], ecx
	mov	BYTE PTR __$EHRec$[ebp+8], 3
	mov	edx, DWORD PTR $T231723[ebp]
	push	edx
	lea	ecx, DWORD PTR _strBuffer$[ebp]
	call	DWORD PTR __imp_??4?$basic_string@DU?$char_traits@D@std@@V?$allocator@D@2@@std@@QAEAAV01@ABV01@@Z
	mov	BYTE PTR __$EHRec$[ebp+8], 2
	lea	ecx, DWORD PTR $T231615[ebp]
	call	DWORD PTR __imp_??1?$basic_string@DU?$char_traits@D@std@@V?$allocator@D@2@@std@@QAE@XZ
	mov	BYTE PTR __$EHRec$[ebp+8], 1
	lea	ecx, DWORD PTR $T231614[ebp]
	call	DWORD PTR __imp_??1?$basic_string@DU?$char_traits@D@std@@V?$allocator@D@2@@std@@QAE@XZ
	mov	BYTE PTR __$EHRec$[ebp+8], 0
	lea	ecx, DWORD PTR $T231612[ebp]
	call	DWORD PTR __imp_??1?$basic_string@DU?$char_traits@D@std@@V?$allocator@D@2@@std@@QAE@XZ

; 434  : 						DLLUI->AddMessage(0, ((PlayerTypes)iI), false, GC.getEVENT_MESSAGE_TIME(), strBuffer/*, "AS2D_THEIRALLIANCE", MESSAGE_TYPE_MINOR_EVENT, NULL, (ColorTypes)GC.getInfoTypeForString("COLOR_HIGHLIGHT_TEXT")*/);

	mov	eax, DWORD PTR $T231739[ebp]
	mov	DWORD PTR tv200[ebp], eax
	mov	ecx, DWORD PTR ?gGlobals@@3VCvGlobals@@A+8568
	mov	DWORD PTR tv200[ebp], ecx
	lea	ecx, DWORD PTR _strBuffer$[ebp]
	call	DWORD PTR __imp_?c_str@?$basic_string@DU?$char_traits@D@std@@V?$allocator@D@2@@std@@QBEPBDXZ
	mov	DWORD PTR $T231743[ebp], eax
	mov	edx, DWORD PTR ?gGlobals@@3VCvGlobals@@A+6176
	mov	DWORD PTR $T231747[ebp], edx
	push	0
	push	0
	push	-1
	push	-1
	push	-1
	push	0
	push	0
	push	0
	mov	eax, DWORD PTR $T231743[ebp]
	push	eax
	mov	ecx, DWORD PTR $T231747[ebp]
	push	ecx
	push	0
	mov	edx, DWORD PTR _iI$[ebp]
	push	edx
	push	0
	mov	eax, DWORD PTR tv200[ebp]
	mov	edx, DWORD PTR [eax]
	mov	ecx, DWORD PTR tv200[ebp]
	mov	eax, DWORD PTR [edx+160]
	call	eax
$LN71@addTeam:

; 435  : 					}
; 436  : 				}
; 437  : 			}
; 438  : 		}
; 439  : 	}

	jmp	$LN73@addTeam
$LN72@addTeam:

; 440  : 
; 441  : 	strBuffer = GetLocalizedText("TXT_KEY_MISC_PLAYER_PERMANENT_ALLIANCE", getName().GetCString(), GET_TEAM(eTeam).getName().GetCString());

	mov	ecx, DWORD PTR _eTeam$[ebp]
	imul	ecx, 2984				; 00000ba8H
	add	ecx, DWORD PTR ?m_aTeams@CvTeam@@1PAV1@A ; CvTeam::m_aTeams
	mov	DWORD PTR $T231751[ebp], ecx
	lea	edx, DWORD PTR $T231617[ebp]
	push	edx
	mov	ecx, DWORD PTR $T231751[ebp]
	call	?getName@CvTeam@@QBE?AVCvString@@XZ	; CvTeam::getName
	mov	DWORD PTR tv830[ebp], eax
	mov	eax, DWORD PTR tv830[ebp]
	mov	DWORD PTR $T231755[ebp], eax
	mov	BYTE PTR __$EHRec$[ebp+8], 4
	mov	ecx, DWORD PTR $T231755[ebp]
	call	DWORD PTR __imp_?c_str@?$basic_string@DU?$char_traits@D@std@@V?$allocator@D@2@@std@@QBEPBDXZ
	mov	DWORD PTR $T231616[ebp], eax
	lea	ecx, DWORD PTR $T231619[ebp]
	push	ecx
	mov	ecx, DWORD PTR _this$[ebp]
	call	?getName@CvTeam@@QBE?AVCvString@@XZ	; CvTeam::getName
	mov	DWORD PTR tv831[ebp], eax
	mov	edx, DWORD PTR tv831[ebp]
	mov	DWORD PTR $T231759[ebp], edx
	mov	BYTE PTR __$EHRec$[ebp+8], 5
	mov	ecx, DWORD PTR $T231759[ebp]
	call	DWORD PTR __imp_?c_str@?$basic_string@DU?$char_traits@D@std@@V?$allocator@D@2@@std@@QBEPBDXZ
	mov	DWORD PTR $T231618[ebp], eax
	lea	eax, DWORD PTR $T231616[ebp]
	push	eax
	lea	ecx, DWORD PTR $T231618[ebp]
	push	ecx
	push	OFFSET ??_C@_0CH@BFNGIGJO@TXT_KEY_MISC_PLAYER_PERMANENT_AL@
	lea	edx, DWORD PTR $T231620[ebp]
	push	edx
	call	??$GetLocalizedText@PBDPBD@@YA?AVCvString@@PBDABQBD1@Z ; GetLocalizedText<char const *,char const *>
	add	esp, 16					; 00000010H
	mov	DWORD PTR tv864[ebp], eax
	mov	eax, DWORD PTR tv864[ebp]
	mov	DWORD PTR $T231763[ebp], eax
	mov	BYTE PTR __$EHRec$[ebp+8], 6
	mov	ecx, DWORD PTR $T231763[ebp]
	push	ecx
	lea	ecx, DWORD PTR _strBuffer$[ebp]
	call	DWORD PTR __imp_??4?$basic_string@DU?$char_traits@D@std@@V?$allocator@D@2@@std@@QAEAAV01@ABV01@@Z
	mov	BYTE PTR __$EHRec$[ebp+8], 5
	lea	ecx, DWORD PTR $T231620[ebp]
	call	DWORD PTR __imp_??1?$basic_string@DU?$char_traits@D@std@@V?$allocator@D@2@@std@@QAE@XZ
	mov	BYTE PTR __$EHRec$[ebp+8], 4
	lea	ecx, DWORD PTR $T231619[ebp]
	call	DWORD PTR __imp_??1?$basic_string@DU?$char_traits@D@std@@V?$allocator@D@2@@std@@QAE@XZ
	mov	BYTE PTR __$EHRec$[ebp+8], 0
	lea	ecx, DWORD PTR $T231617[ebp]
	call	DWORD PTR __imp_??1?$basic_string@DU?$char_traits@D@std@@V?$allocator@D@2@@std@@QAE@XZ

; 442  : 	GC.getGame().addReplayMessage(REPLAY_MESSAGE_MAJOR_EVENT, getLeaderID(), strBuffer, -1, -1);

	mov	edx, DWORD PTR ?gGlobals@@3VCvGlobals@@A+48
	mov	DWORD PTR $T231779[ebp], edx
	push	-1
	push	-1
	lea	eax, DWORD PTR _strBuffer$[ebp]
	push	eax
	mov	ecx, DWORD PTR _this$[ebp]
	call	?getLeaderID@CvTeam@@QBE?AW4PlayerTypes@@XZ ; CvTeam::getLeaderID
	push	eax
	push	0
	mov	ecx, DWORD PTR $T231779[ebp]
	call	?addReplayMessage@CvGame@@QAEXW4ReplayMessageTypes@@W4PlayerTypes@@ABVCvString@@HH@Z ; CvGame::addReplayMessage

; 443  : 
; 444  : 	// To be replaced with new diplomatic code
; 445  : 
; 446  : 	shareItems(eTeam);

	mov	ecx, DWORD PTR _eTeam$[ebp]
	push	ecx
	mov	ecx, DWORD PTR _this$[ebp]
	call	?shareItems@CvTeam@@QAEXW4TeamTypes@@@Z	; CvTeam::shareItems

; 447  : 	GET_TEAM(eTeam).shareItems(GetID());

	mov	edx, DWORD PTR _eTeam$[ebp]
	imul	edx, 2984				; 00000ba8H
	add	edx, DWORD PTR ?m_aTeams@CvTeam@@1PAV1@A ; CvTeam::m_aTeams
	mov	DWORD PTR $T231783[ebp], edx
	mov	ecx, DWORD PTR _this$[ebp]
	call	?GetID@CvTeam@@QBE?AW4TeamTypes@@XZ	; CvTeam::GetID
	push	eax
	mov	ecx, DWORD PTR $T231783[ebp]
	call	?shareItems@CvTeam@@QAEXW4TeamTypes@@@Z	; CvTeam::shareItems

; 448  : 
; 449  : 	for(iI = 0; iI < MAX_TEAMS; iI++)

	mov	DWORD PTR _iI$[ebp], 0
	jmp	SHORT $LN67@addTeam
$LN66@addTeam:
	mov	eax, DWORD PTR _iI$[ebp]
	add	eax, 1
	mov	DWORD PTR _iI$[ebp], eax
$LN67@addTeam:
	cmp	DWORD PTR _iI$[ebp], 64			; 00000040H
	jge	$LN65@addTeam

; 450  : 	{
; 451  : 		if((iI != GetID()) && (iI != eTeam))

	mov	ecx, DWORD PTR _this$[ebp]
	call	?GetID@CvTeam@@QBE?AW4TeamTypes@@XZ	; CvTeam::GetID
	cmp	DWORD PTR _iI$[ebp], eax
	je	$LN64@addTeam
	mov	ecx, DWORD PTR _iI$[ebp]
	cmp	ecx, DWORD PTR _eTeam$[ebp]
	je	$LN64@addTeam

; 452  : 		{
; 453  : 			if(GET_TEAM((TeamTypes)iI).isAlive())

	mov	edx, DWORD PTR _iI$[ebp]
	imul	edx, 2984				; 00000ba8H
	add	edx, DWORD PTR ?m_aTeams@CvTeam@@1PAV1@A ; CvTeam::m_aTeams
	mov	DWORD PTR $T231787[ebp], edx
	mov	eax, DWORD PTR $T231787[ebp]
	xor	ecx, ecx
	cmp	DWORD PTR [eax+12], 0
	setg	cl
	movzx	edx, cl
	test	edx, edx
	je	SHORT $LN64@addTeam

; 454  : 			{
; 455  : 				if(GET_TEAM(eTeam).isHasMet((TeamTypes)iI))

	mov	eax, DWORD PTR _eTeam$[ebp]
	imul	eax, 2984				; 00000ba8H
	add	eax, DWORD PTR ?m_aTeams@CvTeam@@1PAV1@A ; CvTeam::m_aTeams
	mov	DWORD PTR $T231794[ebp], eax
	mov	ecx, DWORD PTR _iI$[ebp]
	push	ecx
	mov	ecx, DWORD PTR $T231794[ebp]
	call	?isHasMet@CvTeam@@QBE_NW4TeamTypes@@@Z	; CvTeam::isHasMet
	movzx	edx, al
	test	edx, edx
	je	SHORT $LN62@addTeam

; 456  : 				{
; 457  : 					meet(((TeamTypes)iI), false);

	push	0
	mov	eax, DWORD PTR _iI$[ebp]
	push	eax
	mov	ecx, DWORD PTR _this$[ebp]
	call	?meet@CvTeam@@QAEXW4TeamTypes@@_N@Z	; CvTeam::meet
	jmp	SHORT $LN64@addTeam
$LN62@addTeam:

; 458  : 				}
; 459  : 				else if(isHasMet((TeamTypes)iI))

	mov	ecx, DWORD PTR _iI$[ebp]
	push	ecx
	mov	ecx, DWORD PTR _this$[ebp]
	call	?isHasMet@CvTeam@@QBE_NW4TeamTypes@@@Z	; CvTeam::isHasMet
	movzx	edx, al
	test	edx, edx
	je	SHORT $LN64@addTeam

; 460  : 				{
; 461  : 					GET_TEAM(eTeam).meet((TeamTypes)iI, false);

	push	0
	mov	eax, DWORD PTR _iI$[ebp]
	push	eax
	mov	ecx, DWORD PTR _eTeam$[ebp]
	imul	ecx, 2984				; 00000ba8H
	add	ecx, DWORD PTR ?m_aTeams@CvTeam@@1PAV1@A ; CvTeam::m_aTeams
	call	?meet@CvTeam@@QAEXW4TeamTypes@@_N@Z	; CvTeam::meet
$LN64@addTeam:

; 462  : 				}
; 463  : 			}
; 464  : 		}
; 465  : 	}

	jmp	$LN66@addTeam
$LN65@addTeam:

; 466  : 
; 467  : 	for(iI = 0; iI < MAX_TEAMS; iI++)

	mov	DWORD PTR _iI$[ebp], 0
	jmp	SHORT $LN59@addTeam
$LN58@addTeam:
	mov	ecx, DWORD PTR _iI$[ebp]
	add	ecx, 1
	mov	DWORD PTR _iI$[ebp], ecx
$LN59@addTeam:
	cmp	DWORD PTR _iI$[ebp], 64			; 00000040H
	jge	$LN57@addTeam

; 468  : 	{
; 469  : 		if((iI != GetID()) && (iI != eTeam))

	mov	ecx, DWORD PTR _this$[ebp]
	call	?GetID@CvTeam@@QBE?AW4TeamTypes@@XZ	; CvTeam::GetID
	cmp	DWORD PTR _iI$[ebp], eax
	je	$LN56@addTeam
	mov	edx, DWORD PTR _iI$[ebp]
	cmp	edx, DWORD PTR _eTeam$[ebp]
	je	$LN56@addTeam

; 470  : 		{
; 471  : 			if(GET_TEAM((TeamTypes)iI).isAlive())

	mov	eax, DWORD PTR _iI$[ebp]
	imul	eax, 2984				; 00000ba8H
	add	eax, DWORD PTR ?m_aTeams@CvTeam@@1PAV1@A ; CvTeam::m_aTeams
	mov	DWORD PTR $T231801[ebp], eax
	mov	ecx, DWORD PTR $T231801[ebp]
	xor	edx, edx
	cmp	DWORD PTR [ecx+12], 0
	setg	dl
	movzx	eax, dl
	test	eax, eax
	je	SHORT $LN56@addTeam

; 472  : 			{
; 473  : 				if(GET_TEAM(eTeam).isAtWar((TeamTypes)iI))

	mov	ecx, DWORD PTR _eTeam$[ebp]
	imul	ecx, 2984				; 00000ba8H
	add	ecx, DWORD PTR ?m_aTeams@CvTeam@@1PAV1@A ; CvTeam::m_aTeams
	mov	DWORD PTR $T231808[ebp], ecx
	mov	edx, DWORD PTR _iI$[ebp]
	push	edx
	mov	ecx, DWORD PTR $T231808[ebp]
	call	?isAtWar@CvTeam@@QBE_NW4TeamTypes@@@Z	; CvTeam::isAtWar
	movzx	eax, al
	test	eax, eax
	je	SHORT $LN54@addTeam

; 474  : 				{
; 475  : 					declareWar(((TeamTypes)iI));

	push	0
	mov	ecx, DWORD PTR _iI$[ebp]
	push	ecx
	mov	ecx, DWORD PTR _this$[ebp]
	call	?declareWar@CvTeam@@QAEXW4TeamTypes@@_N@Z ; CvTeam::declareWar
	jmp	SHORT $LN56@addTeam
$LN54@addTeam:

; 476  : 				}
; 477  : 				else if(isAtWar((TeamTypes)iI))

	mov	edx, DWORD PTR _iI$[ebp]
	push	edx
	mov	ecx, DWORD PTR _this$[ebp]
	call	?isAtWar@CvTeam@@QBE_NW4TeamTypes@@@Z	; CvTeam::isAtWar
	movzx	eax, al
	test	eax, eax
	je	SHORT $LN56@addTeam

; 478  : 				{
; 479  : 					GET_TEAM(eTeam).declareWar(((TeamTypes)iI));

	push	0
	mov	ecx, DWORD PTR _iI$[ebp]
	push	ecx
	mov	ecx, DWORD PTR _eTeam$[ebp]
	imul	ecx, 2984				; 00000ba8H
	add	ecx, DWORD PTR ?m_aTeams@CvTeam@@1PAV1@A ; CvTeam::m_aTeams
	call	?declareWar@CvTeam@@QAEXW4TeamTypes@@_N@Z ; CvTeam::declareWar
$LN56@addTeam:

; 480  : 				}
; 481  : 			}
; 482  : 		}
; 483  : 	}

	jmp	$LN58@addTeam
$LN57@addTeam:

; 484  : 
; 485  : 	for(iI = 0; iI < MAX_TEAMS; iI++)

	mov	DWORD PTR _iI$[ebp], 0
	jmp	SHORT $LN51@addTeam
$LN50@addTeam:
	mov	edx, DWORD PTR _iI$[ebp]
	add	edx, 1
	mov	DWORD PTR _iI$[ebp], edx
$LN51@addTeam:
	cmp	DWORD PTR _iI$[ebp], 64			; 00000040H
	jge	$LN49@addTeam

; 486  : 	{
; 487  : 		if((iI != GetID()) && (iI != eTeam))

	mov	ecx, DWORD PTR _this$[ebp]
	call	?GetID@CvTeam@@QBE?AW4TeamTypes@@XZ	; CvTeam::GetID
	cmp	DWORD PTR _iI$[ebp], eax
	je	$LN48@addTeam
	mov	eax, DWORD PTR _iI$[ebp]
	cmp	eax, DWORD PTR _eTeam$[ebp]
	je	$LN48@addTeam

; 488  : 		{
; 489  : 			if(GET_TEAM((TeamTypes)iI).isAlive())

	mov	ecx, DWORD PTR _iI$[ebp]
	imul	ecx, 2984				; 00000ba8H
	add	ecx, DWORD PTR ?m_aTeams@CvTeam@@1PAV1@A ; CvTeam::m_aTeams
	mov	DWORD PTR $T231815[ebp], ecx
	mov	edx, DWORD PTR $T231815[ebp]
	xor	eax, eax
	cmp	DWORD PTR [edx+12], 0
	setg	al
	movzx	ecx, al
	test	ecx, ecx
	je	SHORT $LN48@addTeam

; 490  : 			{
; 491  : 				if(GET_TEAM(eTeam).isPermanentWarPeace((TeamTypes)iI))

	mov	edx, DWORD PTR _eTeam$[ebp]
	imul	edx, 2984				; 00000ba8H
	add	edx, DWORD PTR ?m_aTeams@CvTeam@@1PAV1@A ; CvTeam::m_aTeams
	mov	DWORD PTR $T231822[ebp], edx
	mov	eax, DWORD PTR _iI$[ebp]
	push	eax
	mov	ecx, DWORD PTR $T231822[ebp]
	call	?isPermanentWarPeace@CvTeam@@QBE_NW4TeamTypes@@@Z ; CvTeam::isPermanentWarPeace
	movzx	ecx, al
	test	ecx, ecx
	je	SHORT $LN46@addTeam

; 492  : 				{
; 493  : 					setPermanentWarPeace(((TeamTypes)iI), true);

	push	1
	mov	edx, DWORD PTR _iI$[ebp]
	push	edx
	mov	ecx, DWORD PTR _this$[ebp]
	call	?setPermanentWarPeace@CvTeam@@QAEXW4TeamTypes@@_N@Z ; CvTeam::setPermanentWarPeace
	jmp	SHORT $LN48@addTeam
$LN46@addTeam:

; 494  : 				}
; 495  : 				else if(isPermanentWarPeace((TeamTypes)iI))

	mov	eax, DWORD PTR _iI$[ebp]
	push	eax
	mov	ecx, DWORD PTR _this$[ebp]
	call	?isPermanentWarPeace@CvTeam@@QBE_NW4TeamTypes@@@Z ; CvTeam::isPermanentWarPeace
	movzx	ecx, al
	test	ecx, ecx
	je	SHORT $LN48@addTeam

; 496  : 				{
; 497  : 					GET_TEAM(eTeam).setPermanentWarPeace(((TeamTypes)iI), true);

	push	1
	mov	edx, DWORD PTR _iI$[ebp]
	push	edx
	mov	ecx, DWORD PTR _eTeam$[ebp]
	imul	ecx, 2984				; 00000ba8H
	add	ecx, DWORD PTR ?m_aTeams@CvTeam@@1PAV1@A ; CvTeam::m_aTeams
	call	?setPermanentWarPeace@CvTeam@@QAEXW4TeamTypes@@_N@Z ; CvTeam::setPermanentWarPeace
$LN48@addTeam:

; 498  : 				}
; 499  : 			}
; 500  : 		}
; 501  : 	}

	jmp	$LN50@addTeam
$LN49@addTeam:

; 502  : 
; 503  : 	for(iI = 0; iI < MAX_TEAMS; iI++)

	mov	DWORD PTR _iI$[ebp], 0
	jmp	SHORT $LN43@addTeam
$LN42@addTeam:
	mov	eax, DWORD PTR _iI$[ebp]
	add	eax, 1
	mov	DWORD PTR _iI$[ebp], eax
$LN43@addTeam:
	cmp	DWORD PTR _iI$[ebp], 64			; 00000040H
	jge	$LN41@addTeam

; 504  : 	{
; 505  : 		if((iI != GetID()) && (iI != eTeam))

	mov	ecx, DWORD PTR _this$[ebp]
	call	?GetID@CvTeam@@QBE?AW4TeamTypes@@XZ	; CvTeam::GetID
	cmp	DWORD PTR _iI$[ebp], eax
	je	$LN40@addTeam
	mov	ecx, DWORD PTR _iI$[ebp]
	cmp	ecx, DWORD PTR _eTeam$[ebp]
	je	$LN40@addTeam

; 506  : 		{
; 507  : 			if(GET_TEAM((TeamTypes)iI).isAlive())

	mov	edx, DWORD PTR _iI$[ebp]
	imul	edx, 2984				; 00000ba8H
	add	edx, DWORD PTR ?m_aTeams@CvTeam@@1PAV1@A ; CvTeam::m_aTeams
	mov	DWORD PTR $T231829[ebp], edx
	mov	eax, DWORD PTR $T231829[ebp]
	xor	ecx, ecx
	cmp	DWORD PTR [eax+12], 0
	setg	cl
	movzx	edx, cl
	test	edx, edx
	je	SHORT $LN40@addTeam

; 508  : 			{
; 509  : 				if(GET_TEAM(eTeam).HasEmbassyAtTeam((TeamTypes)iI))

	mov	eax, DWORD PTR _eTeam$[ebp]
	imul	eax, 2984				; 00000ba8H
	add	eax, DWORD PTR ?m_aTeams@CvTeam@@1PAV1@A ; CvTeam::m_aTeams
	mov	DWORD PTR $T231836[ebp], eax
	mov	ecx, DWORD PTR _iI$[ebp]
	push	ecx
	mov	ecx, DWORD PTR $T231836[ebp]
	call	?HasEmbassyAtTeam@CvTeam@@QBE_NW4TeamTypes@@@Z ; CvTeam::HasEmbassyAtTeam
	movzx	edx, al
	test	edx, edx
	je	SHORT $LN38@addTeam

; 510  : 				{
; 511  : 					SetHasEmbassyAtTeam(((TeamTypes)iI), true);

	push	1
	mov	eax, DWORD PTR _iI$[ebp]
	push	eax
	mov	ecx, DWORD PTR _this$[ebp]
	call	?SetHasEmbassyAtTeam@CvTeam@@QAEXW4TeamTypes@@_N@Z ; CvTeam::SetHasEmbassyAtTeam
	jmp	SHORT $LN40@addTeam
$LN38@addTeam:

; 512  : 				}
; 513  : 				else if(HasEmbassyAtTeam((TeamTypes)iI))

	mov	ecx, DWORD PTR _iI$[ebp]
	push	ecx
	mov	ecx, DWORD PTR _this$[ebp]
	call	?HasEmbassyAtTeam@CvTeam@@QBE_NW4TeamTypes@@@Z ; CvTeam::HasEmbassyAtTeam
	movzx	edx, al
	test	edx, edx
	je	SHORT $LN40@addTeam

; 514  : 				{
; 515  : 					GET_TEAM(eTeam).SetHasEmbassyAtTeam(((TeamTypes)iI), true);

	push	1
	mov	eax, DWORD PTR _iI$[ebp]
	push	eax
	mov	ecx, DWORD PTR _eTeam$[ebp]
	imul	ecx, 2984				; 00000ba8H
	add	ecx, DWORD PTR ?m_aTeams@CvTeam@@1PAV1@A ; CvTeam::m_aTeams
	call	?SetHasEmbassyAtTeam@CvTeam@@QAEXW4TeamTypes@@_N@Z ; CvTeam::SetHasEmbassyAtTeam
$LN40@addTeam:

; 516  : 				}
; 517  : 			}
; 518  : 		}
; 519  : 	}

	jmp	$LN42@addTeam
$LN41@addTeam:

; 520  : 
; 521  : 	for(iI = 0; iI < MAX_TEAMS; iI++)

	mov	DWORD PTR _iI$[ebp], 0
	jmp	SHORT $LN35@addTeam
$LN34@addTeam:
	mov	ecx, DWORD PTR _iI$[ebp]
	add	ecx, 1
	mov	DWORD PTR _iI$[ebp], ecx
$LN35@addTeam:
	cmp	DWORD PTR _iI$[ebp], 64			; 00000040H
	jge	$LN33@addTeam

; 522  : 	{
; 523  : 		if((iI != GetID()) && (iI != eTeam))

	mov	ecx, DWORD PTR _this$[ebp]
	call	?GetID@CvTeam@@QBE?AW4TeamTypes@@XZ	; CvTeam::GetID
	cmp	DWORD PTR _iI$[ebp], eax
	je	$LN32@addTeam
	mov	edx, DWORD PTR _iI$[ebp]
	cmp	edx, DWORD PTR _eTeam$[ebp]
	je	$LN32@addTeam

; 524  : 		{
; 525  : 			if(GET_TEAM((TeamTypes)iI).isAlive())

	mov	eax, DWORD PTR _iI$[ebp]
	imul	eax, 2984				; 00000ba8H
	add	eax, DWORD PTR ?m_aTeams@CvTeam@@1PAV1@A ; CvTeam::m_aTeams
	mov	DWORD PTR $T231843[ebp], eax
	mov	ecx, DWORD PTR $T231843[ebp]
	xor	edx, edx
	cmp	DWORD PTR [ecx+12], 0
	setg	dl
	movzx	eax, dl
	test	eax, eax
	je	$LN32@addTeam

; 526  : 			{
; 527  : 				if(GET_TEAM(eTeam).IsAllowsOpenBordersToTeam((TeamTypes)iI))

	mov	ecx, DWORD PTR _eTeam$[ebp]
	imul	ecx, 2984				; 00000ba8H
	add	ecx, DWORD PTR ?m_aTeams@CvTeam@@1PAV1@A ; CvTeam::m_aTeams
	mov	DWORD PTR $T231850[ebp], ecx
	mov	edx, DWORD PTR _iI$[ebp]
	push	edx
	mov	ecx, DWORD PTR $T231850[ebp]
	call	?IsAllowsOpenBordersToTeam@CvTeam@@QBE_NW4TeamTypes@@@Z ; CvTeam::IsAllowsOpenBordersToTeam
	movzx	eax, al
	test	eax, eax
	je	SHORT $LN30@addTeam

; 528  : 				{
; 529  : 					SetAllowsOpenBordersToTeam(((TeamTypes)iI), true);

	push	1
	mov	ecx, DWORD PTR _iI$[ebp]
	push	ecx
	mov	ecx, DWORD PTR _this$[ebp]
	call	?SetAllowsOpenBordersToTeam@CvTeam@@QAEXW4TeamTypes@@_N@Z ; CvTeam::SetAllowsOpenBordersToTeam

; 530  : 					GET_TEAM((TeamTypes)iI).SetAllowsOpenBordersToTeam(GetID(), true);

	mov	edx, DWORD PTR _iI$[ebp]
	imul	edx, 2984				; 00000ba8H
	add	edx, DWORD PTR ?m_aTeams@CvTeam@@1PAV1@A ; CvTeam::m_aTeams
	mov	DWORD PTR $T231854[ebp], edx
	push	1
	mov	ecx, DWORD PTR _this$[ebp]
	call	?GetID@CvTeam@@QBE?AW4TeamTypes@@XZ	; CvTeam::GetID
	push	eax
	mov	ecx, DWORD PTR $T231854[ebp]
	call	?SetAllowsOpenBordersToTeam@CvTeam@@QAEXW4TeamTypes@@_N@Z ; CvTeam::SetAllowsOpenBordersToTeam
	jmp	SHORT $LN32@addTeam
$LN30@addTeam:

; 531  : 				}
; 532  : 				else if(IsAllowsOpenBordersToTeam((TeamTypes)iI))

	mov	eax, DWORD PTR _iI$[ebp]
	push	eax
	mov	ecx, DWORD PTR _this$[ebp]
	call	?IsAllowsOpenBordersToTeam@CvTeam@@QBE_NW4TeamTypes@@@Z ; CvTeam::IsAllowsOpenBordersToTeam
	movzx	ecx, al
	test	ecx, ecx
	je	SHORT $LN32@addTeam

; 533  : 				{
; 534  : 					GET_TEAM(eTeam).SetAllowsOpenBordersToTeam(((TeamTypes)iI), true);

	push	1
	mov	edx, DWORD PTR _iI$[ebp]
	push	edx
	mov	ecx, DWORD PTR _eTeam$[ebp]
	imul	ecx, 2984				; 00000ba8H
	add	ecx, DWORD PTR ?m_aTeams@CvTeam@@1PAV1@A ; CvTeam::m_aTeams
	call	?SetAllowsOpenBordersToTeam@CvTeam@@QAEXW4TeamTypes@@_N@Z ; CvTeam::SetAllowsOpenBordersToTeam

; 535  : 					GET_TEAM((TeamTypes)iI).SetAllowsOpenBordersToTeam(eTeam, true);

	push	1
	mov	eax, DWORD PTR _eTeam$[ebp]
	push	eax
	mov	ecx, DWORD PTR _iI$[ebp]
	imul	ecx, 2984				; 00000ba8H
	add	ecx, DWORD PTR ?m_aTeams@CvTeam@@1PAV1@A ; CvTeam::m_aTeams
	call	?SetAllowsOpenBordersToTeam@CvTeam@@QAEXW4TeamTypes@@_N@Z ; CvTeam::SetAllowsOpenBordersToTeam
$LN32@addTeam:

; 536  : 				}
; 537  : 			}
; 538  : 		}
; 539  : 	}

	jmp	$LN34@addTeam
$LN33@addTeam:

; 540  : 
; 541  : 	for(iI = 0; iI < MAX_TEAMS; iI++)

	mov	DWORD PTR _iI$[ebp], 0
	jmp	SHORT $LN27@addTeam
$LN26@addTeam:
	mov	ecx, DWORD PTR _iI$[ebp]
	add	ecx, 1
	mov	DWORD PTR _iI$[ebp], ecx
$LN27@addTeam:
	cmp	DWORD PTR _iI$[ebp], 64			; 00000040H
	jge	$LN25@addTeam

; 542  : 	{
; 543  : 		if((iI != GetID()) && (iI != eTeam))

	mov	ecx, DWORD PTR _this$[ebp]
	call	?GetID@CvTeam@@QBE?AW4TeamTypes@@XZ	; CvTeam::GetID
	cmp	DWORD PTR _iI$[ebp], eax
	je	$LN24@addTeam
	mov	edx, DWORD PTR _iI$[ebp]
	cmp	edx, DWORD PTR _eTeam$[ebp]
	je	$LN24@addTeam

; 544  : 		{
; 545  : 			if(GET_TEAM((TeamTypes)iI).isAlive())

	mov	eax, DWORD PTR _iI$[ebp]
	imul	eax, 2984				; 00000ba8H
	add	eax, DWORD PTR ?m_aTeams@CvTeam@@1PAV1@A ; CvTeam::m_aTeams
	mov	DWORD PTR $T231864[ebp], eax
	mov	ecx, DWORD PTR $T231864[ebp]
	xor	edx, edx
	cmp	DWORD PTR [ecx+12], 0
	setg	dl
	movzx	eax, dl
	test	eax, eax
	je	$LN24@addTeam

; 546  : 			{
; 547  : 				if(GET_TEAM(eTeam).IsHasDefensivePact((TeamTypes)iI))

	mov	ecx, DWORD PTR _eTeam$[ebp]
	imul	ecx, 2984				; 00000ba8H
	add	ecx, DWORD PTR ?m_aTeams@CvTeam@@1PAV1@A ; CvTeam::m_aTeams
	mov	DWORD PTR $T231871[ebp], ecx
	mov	edx, DWORD PTR _iI$[ebp]
	push	edx
	mov	ecx, DWORD PTR $T231871[ebp]
	call	?IsHasDefensivePact@CvTeam@@QBE_NW4TeamTypes@@@Z ; CvTeam::IsHasDefensivePact
	movzx	eax, al
	test	eax, eax
	je	SHORT $LN22@addTeam

; 548  : 				{
; 549  : 					SetHasDefensivePact(((TeamTypes)iI), true);

	push	1
	mov	ecx, DWORD PTR _iI$[ebp]
	push	ecx
	mov	ecx, DWORD PTR _this$[ebp]
	call	?SetHasDefensivePact@CvTeam@@QAEXW4TeamTypes@@_N@Z ; CvTeam::SetHasDefensivePact

; 550  : 					GET_TEAM((TeamTypes)iI).SetHasDefensivePact(GetID(), true);

	mov	edx, DWORD PTR _iI$[ebp]
	imul	edx, 2984				; 00000ba8H
	add	edx, DWORD PTR ?m_aTeams@CvTeam@@1PAV1@A ; CvTeam::m_aTeams
	mov	DWORD PTR $T231875[ebp], edx
	push	1
	mov	ecx, DWORD PTR _this$[ebp]
	call	?GetID@CvTeam@@QBE?AW4TeamTypes@@XZ	; CvTeam::GetID
	push	eax
	mov	ecx, DWORD PTR $T231875[ebp]
	call	?SetHasDefensivePact@CvTeam@@QAEXW4TeamTypes@@_N@Z ; CvTeam::SetHasDefensivePact
	jmp	SHORT $LN24@addTeam
$LN22@addTeam:

; 551  : 				}
; 552  : 				else if(IsHasDefensivePact((TeamTypes)iI))

	mov	eax, DWORD PTR _iI$[ebp]
	push	eax
	mov	ecx, DWORD PTR _this$[ebp]
	call	?IsHasDefensivePact@CvTeam@@QBE_NW4TeamTypes@@@Z ; CvTeam::IsHasDefensivePact
	movzx	ecx, al
	test	ecx, ecx
	je	SHORT $LN24@addTeam

; 553  : 				{
; 554  : 					GET_TEAM(eTeam).SetHasDefensivePact(((TeamTypes)iI), true);

	push	1
	mov	edx, DWORD PTR _iI$[ebp]
	push	edx
	mov	ecx, DWORD PTR _eTeam$[ebp]
	imul	ecx, 2984				; 00000ba8H
	add	ecx, DWORD PTR ?m_aTeams@CvTeam@@1PAV1@A ; CvTeam::m_aTeams
	call	?SetHasDefensivePact@CvTeam@@QAEXW4TeamTypes@@_N@Z ; CvTeam::SetHasDefensivePact

; 555  : 					GET_TEAM((TeamTypes)iI).SetHasDefensivePact(eTeam, true);

	push	1
	mov	eax, DWORD PTR _eTeam$[ebp]
	push	eax
	mov	ecx, DWORD PTR _iI$[ebp]
	imul	ecx, 2984				; 00000ba8H
	add	ecx, DWORD PTR ?m_aTeams@CvTeam@@1PAV1@A ; CvTeam::m_aTeams
	call	?SetHasDefensivePact@CvTeam@@QAEXW4TeamTypes@@_N@Z ; CvTeam::SetHasDefensivePact
$LN24@addTeam:

; 556  : 				}
; 557  : 			}
; 558  : 		}
; 559  : 	}

	jmp	$LN26@addTeam
$LN25@addTeam:

; 560  : 
; 561  : 	for(iI = 0; iI < MAX_TEAMS; iI++)

	mov	DWORD PTR _iI$[ebp], 0
	jmp	SHORT $LN19@addTeam
$LN18@addTeam:
	mov	ecx, DWORD PTR _iI$[ebp]
	add	ecx, 1
	mov	DWORD PTR _iI$[ebp], ecx
$LN19@addTeam:
	cmp	DWORD PTR _iI$[ebp], 64			; 00000040H
	jge	$LN17@addTeam

; 562  : 	{
; 563  : 		if((iI != GetID()) && (iI != eTeam))

	mov	ecx, DWORD PTR _this$[ebp]
	call	?GetID@CvTeam@@QBE?AW4TeamTypes@@XZ	; CvTeam::GetID
	cmp	DWORD PTR _iI$[ebp], eax
	je	$LN16@addTeam
	mov	edx, DWORD PTR _iI$[ebp]
	cmp	edx, DWORD PTR _eTeam$[ebp]
	je	$LN16@addTeam

; 564  : 		{
; 565  : 			if(GET_TEAM((TeamTypes)iI).isAlive())

	mov	eax, DWORD PTR _iI$[ebp]
	imul	eax, 2984				; 00000ba8H
	add	eax, DWORD PTR ?m_aTeams@CvTeam@@1PAV1@A ; CvTeam::m_aTeams
	mov	DWORD PTR $T231885[ebp], eax
	mov	ecx, DWORD PTR $T231885[ebp]
	xor	edx, edx
	cmp	DWORD PTR [ecx+12], 0
	setg	dl
	movzx	eax, dl
	test	eax, eax
	je	$LN16@addTeam

; 566  : 			{
; 567  : 				if(GET_TEAM(eTeam).isForcePeace((TeamTypes)iI))

	mov	ecx, DWORD PTR _eTeam$[ebp]
	imul	ecx, 2984				; 00000ba8H
	add	ecx, DWORD PTR ?m_aTeams@CvTeam@@1PAV1@A ; CvTeam::m_aTeams
	mov	DWORD PTR $T231892[ebp], ecx
	mov	edx, DWORD PTR _iI$[ebp]
	push	edx
	mov	ecx, DWORD PTR $T231892[ebp]
	call	?isForcePeace@CvTeam@@QBE_NW4TeamTypes@@@Z ; CvTeam::isForcePeace
	movzx	eax, al
	test	eax, eax
	je	SHORT $LN14@addTeam

; 568  : 				{
; 569  : 					setForcePeace(((TeamTypes)iI), true);

	push	1
	mov	ecx, DWORD PTR _iI$[ebp]
	push	ecx
	mov	ecx, DWORD PTR _this$[ebp]
	call	?setForcePeace@CvTeam@@QAEXW4TeamTypes@@_N@Z ; CvTeam::setForcePeace

; 570  : 					GET_TEAM((TeamTypes)iI).setForcePeace(GetID(), true);

	mov	edx, DWORD PTR _iI$[ebp]
	imul	edx, 2984				; 00000ba8H
	add	edx, DWORD PTR ?m_aTeams@CvTeam@@1PAV1@A ; CvTeam::m_aTeams
	mov	DWORD PTR $T231896[ebp], edx
	push	1
	mov	ecx, DWORD PTR _this$[ebp]
	call	?GetID@CvTeam@@QBE?AW4TeamTypes@@XZ	; CvTeam::GetID
	push	eax
	mov	ecx, DWORD PTR $T231896[ebp]
	call	?setForcePeace@CvTeam@@QAEXW4TeamTypes@@_N@Z ; CvTeam::setForcePeace
	jmp	SHORT $LN16@addTeam
$LN14@addTeam:

; 571  : 				}
; 572  : 				else if(isForcePeace((TeamTypes)iI))

	mov	eax, DWORD PTR _iI$[ebp]
	push	eax
	mov	ecx, DWORD PTR _this$[ebp]
	call	?isForcePeace@CvTeam@@QBE_NW4TeamTypes@@@Z ; CvTeam::isForcePeace
	movzx	ecx, al
	test	ecx, ecx
	je	SHORT $LN16@addTeam

; 573  : 				{
; 574  : 					GET_TEAM(eTeam).setForcePeace(((TeamTypes)iI), true);

	push	1
	mov	edx, DWORD PTR _iI$[ebp]
	push	edx
	mov	ecx, DWORD PTR _eTeam$[ebp]
	imul	ecx, 2984				; 00000ba8H
	add	ecx, DWORD PTR ?m_aTeams@CvTeam@@1PAV1@A ; CvTeam::m_aTeams
	call	?setForcePeace@CvTeam@@QAEXW4TeamTypes@@_N@Z ; CvTeam::setForcePeace

; 575  : 					GET_TEAM((TeamTypes)iI).setForcePeace(eTeam, true);

	push	1
	mov	eax, DWORD PTR _eTeam$[ebp]
	push	eax
	mov	ecx, DWORD PTR _iI$[ebp]
	imul	ecx, 2984				; 00000ba8H
	add	ecx, DWORD PTR ?m_aTeams@CvTeam@@1PAV1@A ; CvTeam::m_aTeams
	call	?setForcePeace@CvTeam@@QAEXW4TeamTypes@@_N@Z ; CvTeam::setForcePeace
$LN16@addTeam:

; 576  : 				}
; 577  : 			}
; 578  : 		}
; 579  : 	}

	jmp	$LN18@addTeam
$LN17@addTeam:

; 580  : 
; 581  : 	shareCounters(eTeam);

	mov	ecx, DWORD PTR _eTeam$[ebp]
	push	ecx
	mov	ecx, DWORD PTR _this$[ebp]
	call	?shareCounters@CvTeam@@QAEXW4TeamTypes@@@Z ; CvTeam::shareCounters

; 582  : 	GET_TEAM(eTeam).shareCounters(GetID());

	mov	edx, DWORD PTR _eTeam$[ebp]
	imul	edx, 2984				; 00000ba8H
	add	edx, DWORD PTR ?m_aTeams@CvTeam@@1PAV1@A ; CvTeam::m_aTeams
	mov	DWORD PTR $T231906[ebp], edx
	mov	ecx, DWORD PTR _this$[ebp]
	call	?GetID@CvTeam@@QBE?AW4TeamTypes@@XZ	; CvTeam::GetID
	push	eax
	mov	ecx, DWORD PTR $T231906[ebp]
	call	?shareCounters@CvTeam@@QAEXW4TeamTypes@@@Z ; CvTeam::shareCounters

; 583  : 
; 584  : 	for(iI = 0; iI < MAX_PLAYERS; iI++)

	mov	DWORD PTR _iI$[ebp], 0
	jmp	SHORT $LN11@addTeam
$LN10@addTeam:
	mov	eax, DWORD PTR _iI$[ebp]
	add	eax, 1
	mov	DWORD PTR _iI$[ebp], eax
$LN11@addTeam:
	cmp	DWORD PTR _iI$[ebp], 64			; 00000040H
	jge	SHORT $LN9@addTeam

; 585  : 	{
; 586  : 		if(GET_PLAYER((PlayerTypes)iI).getTeam() == eTeam)

	mov	ecx, DWORD PTR _iI$[ebp]
	imul	ecx, 63236				; 0000f704H
	add	ecx, DWORD PTR ?m_aPlayers@CvPlayerAI@@1PAV1@A ; CvPlayerAI::m_aPlayers
	mov	DWORD PTR $T231910[ebp], ecx
	mov	edx, DWORD PTR $T231910[ebp]
	mov	eax, DWORD PTR [edx+44]
	push	eax
	call	?teamType@CvPreGame@@YA?AW4TeamTypes@@W4PlayerTypes@@@Z ; CvPreGame::teamType
	add	esp, 4
	cmp	eax, DWORD PTR _eTeam$[ebp]
	jne	SHORT $LN8@addTeam

; 587  : 		{
; 588  : 			GET_PLAYER((PlayerTypes)iI).setTeam(GetID());

	mov	ecx, DWORD PTR _iI$[ebp]
	imul	ecx, 63236				; 0000f704H
	add	ecx, DWORD PTR ?m_aPlayers@CvPlayerAI@@1PAV1@A ; CvPlayerAI::m_aPlayers
	mov	DWORD PTR $T231922[ebp], ecx
	mov	ecx, DWORD PTR _this$[ebp]
	call	?GetID@CvTeam@@QBE?AW4TeamTypes@@XZ	; CvTeam::GetID
	push	eax
	mov	ecx, DWORD PTR $T231922[ebp]
	call	?setTeam@CvPlayer@@QAEXW4TeamTypes@@@Z	; CvPlayer::setTeam
$LN8@addTeam:

; 589  : 		}
; 590  : 	}

	jmp	SHORT $LN10@addTeam
$LN9@addTeam:

; 591  : 
; 592  : 	const int iNumInvisibleInfos = NUM_INVISIBLE_TYPES;

	mov	DWORD PTR _iNumInvisibleInfos$[ebp], 1

; 593  : #ifdef AUI_WARNING_FIXES
; 594  : 	for (iJ = 0; iJ < GC.getMap().numPlots(); iJ++)
; 595  : 	{
; 596  : 		pLoopPlot = GC.getMap().plotByIndexUnchecked(iJ);
; 597  : #else
; 598  : 	for(iI = 0; iI < GC.getMap().numPlots(); iI++)

	mov	DWORD PTR _iI$[ebp], 0
	jmp	SHORT $LN7@addTeam
$LN6@addTeam:
	mov	edx, DWORD PTR _iI$[ebp]
	add	edx, 1
	mov	DWORD PTR _iI$[ebp], edx
$LN7@addTeam:
	mov	eax, DWORD PTR ?gGlobals@@3VCvGlobals@@A+52
	mov	DWORD PTR $T231926[ebp], eax
	mov	ecx, DWORD PTR $T231926[ebp]
	mov	edx, DWORD PTR [ecx+4028]
	mov	DWORD PTR $T231930[ebp], edx
	mov	eax, DWORD PTR _iI$[ebp]
	cmp	eax, DWORD PTR $T231930[ebp]
	jge	$LN5@addTeam

; 599  : 	{
; 600  : 		pLoopPlot = GC.getMap().plotByIndexUnchecked(iI);

	mov	ecx, DWORD PTR ?gGlobals@@3VCvGlobals@@A+52
	mov	DWORD PTR $T231934[ebp], ecx
	mov	edx, DWORD PTR _iI$[ebp]
	imul	edx, 484				; 000001e4H
	mov	eax, DWORD PTR $T231934[ebp]
	add	edx, DWORD PTR [eax+4068]
	mov	DWORD PTR _pLoopPlot$[ebp], edx

; 601  : #endif
; 602  : 
; 603  : 		pLoopPlot->changeVisibilityCount(GetID(), pLoopPlot->getVisibilityCount(eTeam), NO_INVISIBLE, true, false);

	mov	ecx, DWORD PTR _pLoopPlot$[ebp]
	mov	edx, DWORD PTR [ecx+156]
	mov	eax, DWORD PTR _eTeam$[ebp]
	movsx	ecx, WORD PTR [edx+eax*2]
	mov	DWORD PTR $T231941[ebp], ecx
	push	0
	push	1
	push	-1
	mov	edx, DWORD PTR $T231941[ebp]
	push	edx
	mov	ecx, DWORD PTR _this$[ebp]
	call	?GetID@CvTeam@@QBE?AW4TeamTypes@@XZ	; CvTeam::GetID
	push	eax
	mov	ecx, DWORD PTR _pLoopPlot$[ebp]
	call	?changeVisibilityCount@CvPlot@@QAE?AW4PlotVisibilityChangeResult@@W4TeamTypes@@HW4InvisibleTypes@@_N2@Z ; CvPlot::changeVisibilityCount

; 604  : 
; 605  : #ifdef AUI_WARNING_FIXES
; 606  : 		for (iI = 0; iI < iNumInvisibleInfos; iI++)
; 607  : 		{
; 608  : 			pLoopPlot->changeInvisibleVisibilityCount(GetID(), ((InvisibleTypes)iI), pLoopPlot->getInvisibleVisibilityCount(eTeam, ((InvisibleTypes)iI)));
; 609  : #else
; 610  : 		for(iJ = 0; iJ < iNumInvisibleInfos; iJ++)

	mov	DWORD PTR _iJ$[ebp], 0
	jmp	SHORT $LN4@addTeam
$LN3@addTeam:
	mov	eax, DWORD PTR _iJ$[ebp]
	add	eax, 1
	mov	DWORD PTR _iJ$[ebp], eax
$LN4@addTeam:
	cmp	DWORD PTR _iJ$[ebp], 1
	jge	SHORT $LN2@addTeam

; 611  : 		{
; 612  : 			pLoopPlot->changeInvisibleVisibilityCount(GetID(), ((InvisibleTypes)iJ), pLoopPlot->getInvisibleVisibilityCount(eTeam, ((InvisibleTypes)iJ)));

	mov	ecx, DWORD PTR _iJ$[ebp]
	push	ecx
	mov	edx, DWORD PTR _eTeam$[ebp]
	push	edx
	mov	ecx, DWORD PTR _pLoopPlot$[ebp]
	call	?getInvisibleVisibilityCount@CvPlot@@QBEHW4TeamTypes@@W4InvisibleTypes@@@Z ; CvPlot::getInvisibleVisibilityCount
	push	eax
	mov	eax, DWORD PTR _iJ$[ebp]
	push	eax
	mov	ecx, DWORD PTR _this$[ebp]
	call	?GetID@CvTeam@@QBE?AW4TeamTypes@@XZ	; CvTeam::GetID
	push	eax
	mov	ecx, DWORD PTR _pLoopPlot$[ebp]
	call	?changeInvisibleVisibilityCount@CvPlot@@QAEXW4TeamTypes@@W4InvisibleTypes@@H@Z ; CvPlot::changeInvisibleVisibilityCount

; 613  : #endif
; 614  : 		}

	jmp	SHORT $LN3@addTeam
$LN2@addTeam:

; 615  : 
; 616  : 		if(pLoopPlot->isRevealed(eTeam))

	mov	ecx, DWORD PTR _eTeam$[ebp]
	shr	ecx, 5
	mov	DWORD PTR _uiOffset$231950[ebp], ecx
	mov	edx, DWORD PTR _uiOffset$231950[ebp]
	shl	edx, 5
	mov	ecx, DWORD PTR _eTeam$[ebp]
	sub	ecx, edx
	mov	eax, 1
	shl	eax, cl
	mov	ecx, DWORD PTR _uiOffset$231950[ebp]
	mov	edx, DWORD PTR _pLoopPlot$[ebp]
	and	eax, DWORD PTR [edx+ecx*4+8]
	setne	al
	movzx	ecx, al
	test	ecx, ecx
	je	SHORT $LN1@addTeam

; 617  : 		{
; 618  : 			pLoopPlot->setRevealed(GetID(), true, false, eTeam);

	mov	edx, DWORD PTR _eTeam$[ebp]
	push	edx
	push	0
	push	1
	mov	ecx, DWORD PTR _this$[ebp]
	call	?GetID@CvTeam@@QBE?AW4TeamTypes@@XZ	; CvTeam::GetID
	push	eax
	mov	ecx, DWORD PTR _pLoopPlot$[ebp]
	call	?setRevealed@CvPlot@@QAE_NW4TeamTypes@@_N10@Z ; CvPlot::setRevealed
$LN1@addTeam:

; 619  : 		}
; 620  : 	}

	jmp	$LN6@addTeam
$LN5@addTeam:

; 621  : 
; 622  : 	GC.getGame().updateScore(true);

	mov	eax, DWORD PTR ?gGlobals@@3VCvGlobals@@A+48
	mov	DWORD PTR $T231955[ebp], eax
	push	1
	mov	ecx, DWORD PTR $T231955[ebp]
	call	?updateScore@CvGame@@QAEX_N@Z		; CvGame::updateScore

; 623  : }

	mov	DWORD PTR __$EHRec$[ebp+8], -1
	lea	ecx, DWORD PTR _strBuffer$[ebp]
	call	DWORD PTR __imp_??1?$basic_string@DU?$char_traits@D@std@@V?$allocator@D@2@@std@@QAE@XZ
	mov	ecx, DWORD PTR __$EHRec$[ebp]
	mov	DWORD PTR fs:0, ecx
	pop	ecx
	mov	ecx, DWORD PTR __$ArrayPad$[ebp]
	xor	ecx, ebp
	call	@__security_check_cookie@4
	mov	esp, ebp
	pop	ebp
	ret	4
_TEXT	ENDS
;	COMDAT text$x
text$x	SEGMENT
__unwindfunclet$?addTeam@CvTeam@@QAEXW4TeamTypes@@@Z$0:
	lea	ecx, DWORD PTR _strBuffer$[ebp]
	jmp	??1CvString@@QAE@XZ			; CvString::~CvString
__unwindfunclet$?addTeam@CvTeam@@QAEXW4TeamTypes@@@Z$1:
	lea	ecx, DWORD PTR $T231612[ebp]
	jmp	??1CvString@@QAE@XZ			; CvString::~CvString
__unwindfunclet$?addTeam@CvTeam@@QAEXW4TeamTypes@@@Z$2:
	lea	ecx, DWORD PTR $T231614[ebp]
	jmp	??1CvString@@QAE@XZ			; CvString::~CvString
__unwindfunclet$?addTeam@CvTeam@@QAEXW4TeamTypes@@@Z$3:
	lea	ecx, DWORD PTR $T231615[ebp]
	jmp	??1CvString@@QAE@XZ			; CvString::~CvString
__unwindfunclet$?addTeam@CvTeam@@QAEXW4TeamTypes@@@Z$4:
	lea	ecx, DWORD PTR $T231617[ebp]
	jmp	??1CvString@@QAE@XZ			; CvString::~CvString
__unwindfunclet$?addTeam@CvTeam@@QAEXW4TeamTypes@@@Z$5:
	lea	ecx, DWORD PTR $T231619[ebp]
	jmp	??1CvString@@QAE@XZ			; CvString::~CvString
__unwindfunclet$?addTeam@CvTeam@@QAEXW4TeamTypes@@@Z$6:
	lea	ecx, DWORD PTR $T231620[ebp]
	jmp	??1CvString@@QAE@XZ			; CvString::~CvString
__ehhandler$?addTeam@CvTeam@@QAEXW4TeamTypes@@@Z:
	mov	edx, DWORD PTR [esp+8]
	lea	eax, DWORD PTR [edx+12]
	mov	ecx, DWORD PTR [edx-472]
	xor	ecx, eax
	call	@__security_check_cookie@4
	mov	ecx, DWORD PTR [edx-20]
	xor	ecx, eax
	call	@__security_check_cookie@4
	mov	eax, OFFSET __ehfuncinfo$?addTeam@CvTeam@@QAEXW4TeamTypes@@@Z
	jmp	___CxxFrameHandler3
text$x	ENDS
?addTeam@CvTeam@@QAEXW4TeamTypes@@@Z ENDP		; CvTeam::addTeam
PUBLIC	?processBuilding@CvTeam@@QAEXW4BuildingTypes@@H_N@Z ; CvTeam::processBuilding
PUBLIC	?isObsoleteBuilding@CvTeam@@QBE_NW4BuildingTypes@@@Z ; CvTeam::isObsoleteBuilding
PUBLIC	?setForceRevealedResource@CvTeam@@QAEXW4ResourceTypes@@_N@Z ; CvTeam::setForceRevealedResource
PUBLIC	?isForceRevealedResource@CvTeam@@QBE_NW4ResourceTypes@@@Z ; CvTeam::isForceRevealedResource
PUBLIC	?setHasTech@CvTeam@@QAEXW4TechTypes@@_NW4PlayerTypes@@11@Z ; CvTeam::setHasTech
PUBLIC	?GetTeamTechs@CvTeam@@QBEPAVCvTeamTechs@@XZ	; CvTeam::GetTeamTechs
EXTRN	?processBuilding@CvPlayer@@QAEXW4BuildingTypes@@H_NPAVCvArea@@@Z:PROC ; CvPlayer::processBuilding
EXTRN	?area@CvCity@@QBEPAVCvArea@@XZ:PROC		; CvCity::area
EXTRN	?IsTeamShare@CvBuildingEntry@@QBE_NXZ:PROC	; CvBuildingEntry::IsTeamShare
EXTRN	?GetNumBuilding@CvCityBuildings@@QBEHW4BuildingTypes@@@Z:PROC ; CvCityBuildings::GetNumBuilding
EXTRN	?GetCityBuildings@CvCity@@QBEPAVCvCityBuildings@@XZ:PROC ; CvCity::GetCityBuildings
EXTRN	?getBuildingInfo@CvGlobals@@QAEPAVCvBuildingEntry@@W4BuildingTypes@@@Z:PROC ; CvGlobals::getBuildingInfo
EXTRN	?nextCity@CvPlayer@@QAEPAVCvCity@@PAH_N@Z:PROC	; CvPlayer::nextCity
EXTRN	?firstCity@CvPlayer@@QAEPAVCvCity@@PAH_N@Z:PROC	; CvPlayer::firstCity
EXTRN	?getNumResourceInfos@CvGlobals@@QAEHXZ:PROC	; CvGlobals::getNumResourceInfos
EXTRN	?HasTech@CvTeamTechs@@QBE_NW4TechTypes@@@Z:PROC	; CvTeamTechs::HasTech
EXTRN	?getNumTechInfos@CvGlobals@@QAEHXZ:PROC		; CvGlobals::getNumTechInfos
; Function compile flags: /Odtp
;	COMDAT ?shareItems@CvTeam@@QAEXW4TeamTypes@@@Z
_TEXT	SEGMENT
_this$ = -52						; size = 4
$T232011 = -48						; size = 4
$T232002 = -42						; size = 1
$T231982 = -41						; size = 1
_kOtherPlayer$222691 = -40				; size = 4
_eBuilding$222681 = -36					; size = 4
_pkBuildingInfo$222683 = -32				; size = 4
_kPlayer$222671 = -28					; size = 4
_iJ$ = -24						; size = 4
_kTeam$ = -20						; size = 4
_iK$ = -16						; size = 4
_iI$ = -12						; size = 4
_pLoopCity$ = -8					; size = 4
_iLoop$ = -4						; size = 4
_eTeam$ = 8						; size = 4
?shareItems@CvTeam@@QAEXW4TeamTypes@@@Z PROC		; CvTeam::shareItems, COMDAT
; _this$ = ecx

; 628  : {

	push	ebp
	mov	ebp, esp
	sub	esp, 52					; 00000034H
	mov	DWORD PTR _this$[ebp], ecx

; 629  : 	CvCity* pLoopCity;
; 630  : 	int iLoop;
; 631  : #ifdef AUI_WARNING_FIXES
; 632  : 	uint iI, iJ;
; 633  : 	int iK;
; 634  : #else
; 635  : 	int iI, iJ, iK;
; 636  : #endif
; 637  : 
; 638  : 	CvAssert(eTeam != NO_TEAM);
; 639  : 	CvAssert(eTeam != GetID());
; 640  : 
; 641  : 	CvTeam& kTeam = GET_TEAM(eTeam);

	mov	eax, DWORD PTR _eTeam$[ebp]
	imul	eax, 2984				; 00000ba8H
	add	eax, DWORD PTR ?m_aTeams@CvTeam@@1PAV1@A ; CvTeam::m_aTeams
	mov	DWORD PTR _kTeam$[ebp], eax

; 642  : 
; 643  : 	for(iI = 0; iI < GC.getNumTechInfos(); iI++)

	mov	DWORD PTR _iI$[ebp], 0
	jmp	SHORT $LN27@shareItems
$LN26@shareItems:
	mov	ecx, DWORD PTR _iI$[ebp]
	add	ecx, 1
	mov	DWORD PTR _iI$[ebp], ecx
$LN27@shareItems:
	mov	ecx, OFFSET ?gGlobals@@3VCvGlobals@@A	; gGlobals
	call	?getNumTechInfos@CvGlobals@@QAEHXZ	; CvGlobals::getNumTechInfos
	cmp	DWORD PTR _iI$[ebp], eax
	jge	SHORT $LN25@shareItems

; 644  : 	{
; 645  : 		if(kTeam.GetTeamTechs()->HasTech((TechTypes)iI))

	mov	edx, DWORD PTR _iI$[ebp]
	push	edx
	mov	ecx, DWORD PTR _kTeam$[ebp]
	call	?GetTeamTechs@CvTeam@@QBEPAVCvTeamTechs@@XZ ; CvTeam::GetTeamTechs
	mov	ecx, eax
	call	?HasTech@CvTeamTechs@@QBE_NW4TechTypes@@@Z ; CvTeamTechs::HasTech
	movzx	eax, al
	test	eax, eax
	je	SHORT $LN24@shareItems

; 646  : 		{
; 647  : 			setHasTech(((TechTypes)iI), true, NO_PLAYER, true, false);

	push	0
	push	1
	push	-1
	push	1
	mov	ecx, DWORD PTR _iI$[ebp]
	push	ecx
	mov	ecx, DWORD PTR _this$[ebp]
	call	?setHasTech@CvTeam@@QAEXW4TechTypes@@_NW4PlayerTypes@@11@Z ; CvTeam::setHasTech
$LN24@shareItems:

; 648  : 		}
; 649  : 	}

	jmp	SHORT $LN26@shareItems
$LN25@shareItems:

; 650  : 
; 651  : 	for(iI = 0; iI < GC.getNumResourceInfos(); ++iI)

	mov	DWORD PTR _iI$[ebp], 0
	jmp	SHORT $LN23@shareItems
$LN22@shareItems:
	mov	edx, DWORD PTR _iI$[ebp]
	add	edx, 1
	mov	DWORD PTR _iI$[ebp], edx
$LN23@shareItems:
	mov	ecx, OFFSET ?gGlobals@@3VCvGlobals@@A	; gGlobals
	call	?getNumResourceInfos@CvGlobals@@QAEHXZ	; CvGlobals::getNumResourceInfos
	cmp	DWORD PTR _iI$[ebp], eax
	jge	SHORT $LN21@shareItems

; 652  : 	{
; 653  : 		if(kTeam.isForceRevealedResource((ResourceTypes)iI))

	mov	eax, DWORD PTR _iI$[ebp]
	push	eax
	mov	ecx, DWORD PTR _kTeam$[ebp]
	call	?isForceRevealedResource@CvTeam@@QBE_NW4ResourceTypes@@@Z ; CvTeam::isForceRevealedResource
	movzx	ecx, al
	test	ecx, ecx
	je	SHORT $LN20@shareItems

; 654  : 		{
; 655  : 			setForceRevealedResource((ResourceTypes)iI, true);

	push	1
	mov	edx, DWORD PTR _iI$[ebp]
	push	edx
	mov	ecx, DWORD PTR _this$[ebp]
	call	?setForceRevealedResource@CvTeam@@QAEXW4ResourceTypes@@_N@Z ; CvTeam::setForceRevealedResource
$LN20@shareItems:

; 656  : 		}
; 657  : 	}

	jmp	SHORT $LN22@shareItems
$LN21@shareItems:

; 658  : 
; 659  : 	for(iI = 0; iI < MAX_PLAYERS; iI++)

	mov	DWORD PTR _iI$[ebp], 0
	jmp	SHORT $LN19@shareItems
$LN18@shareItems:
	mov	eax, DWORD PTR _iI$[ebp]
	add	eax, 1
	mov	DWORD PTR _iI$[ebp], eax
$LN19@shareItems:
	cmp	DWORD PTR _iI$[ebp], 64			; 00000040H
	jge	$LN28@shareItems

; 660  : 	{
; 661  : 		CvPlayerAI& kPlayer = GET_PLAYER(static_cast<PlayerTypes>(iI));

	mov	ecx, DWORD PTR _iI$[ebp]
	imul	ecx, 63236				; 0000f704H
	add	ecx, DWORD PTR ?m_aPlayers@CvPlayerAI@@1PAV1@A ; CvPlayerAI::m_aPlayers
	mov	DWORD PTR _kPlayer$222671[ebp], ecx

; 662  : 		if(kPlayer.isAlive())

	mov	edx, DWORD PTR _kPlayer$222671[ebp]
	mov	al, BYTE PTR [edx+2256]
	mov	BYTE PTR $T231982[ebp], al
	movzx	ecx, BYTE PTR $T231982[ebp]
	test	ecx, ecx
	je	$LN16@shareItems

; 663  : 		{
; 664  : 			if(kPlayer.getTeam() == eTeam)

	mov	edx, DWORD PTR _kPlayer$222671[ebp]
	mov	eax, DWORD PTR [edx+44]
	push	eax
	call	?teamType@CvPreGame@@YA?AW4TeamTypes@@W4PlayerTypes@@@Z ; CvPreGame::teamType
	add	esp, 4
	cmp	eax, DWORD PTR _eTeam$[ebp]
	jne	$LN16@shareItems

; 665  : 			{
; 666  : 				for(pLoopCity = kPlayer.firstCity(&iLoop); pLoopCity != NULL; pLoopCity = kPlayer.nextCity(&iLoop))

	push	0
	lea	ecx, DWORD PTR _iLoop$[ebp]
	push	ecx
	mov	ecx, DWORD PTR _kPlayer$222671[ebp]
	call	?firstCity@CvPlayer@@QAEPAVCvCity@@PAH_N@Z ; CvPlayer::firstCity
	mov	DWORD PTR _pLoopCity$[ebp], eax
	jmp	SHORT $LN14@shareItems
$LN13@shareItems:
	push	0
	lea	edx, DWORD PTR _iLoop$[ebp]
	push	edx
	mov	ecx, DWORD PTR _kPlayer$222671[ebp]
	call	?nextCity@CvPlayer@@QAEPAVCvCity@@PAH_N@Z ; CvPlayer::nextCity
	mov	DWORD PTR _pLoopCity$[ebp], eax
$LN14@shareItems:
	cmp	DWORD PTR _pLoopCity$[ebp], 0
	je	$LN16@shareItems

; 667  : 				{
; 668  : 					for(iJ = 0; iJ < GC.getNumBuildingInfos(); iJ++)

	mov	DWORD PTR _iJ$[ebp], 0
	jmp	SHORT $LN11@shareItems
$LN10@shareItems:
	mov	eax, DWORD PTR _iJ$[ebp]
	add	eax, 1
	mov	DWORD PTR _iJ$[ebp], eax
$LN11@shareItems:
	mov	ecx, OFFSET ?gGlobals@@3VCvGlobals@@A	; gGlobals
	call	?getNumBuildingInfos@CvGlobals@@QAEHXZ	; CvGlobals::getNumBuildingInfos
	cmp	DWORD PTR _iJ$[ebp], eax
	jge	$LN9@shareItems

; 669  : 					{
; 670  : 						const BuildingTypes eBuilding = static_cast<BuildingTypes>(iJ);

	mov	ecx, DWORD PTR _iJ$[ebp]
	mov	DWORD PTR _eBuilding$222681[ebp], ecx

; 671  : 						CvBuildingEntry* pkBuildingInfo = GC.getBuildingInfo(eBuilding);

	mov	edx, DWORD PTR _eBuilding$222681[ebp]
	push	edx
	mov	ecx, OFFSET ?gGlobals@@3VCvGlobals@@A	; gGlobals
	call	?getBuildingInfo@CvGlobals@@QAEPAVCvBuildingEntry@@W4BuildingTypes@@@Z ; CvGlobals::getBuildingInfo
	mov	DWORD PTR _pkBuildingInfo$222683[ebp], eax

; 672  : 						if(pkBuildingInfo)

	cmp	DWORD PTR _pkBuildingInfo$222683[ebp], 0
	je	$LN8@shareItems

; 673  : 						{
; 674  : 							if(pLoopCity->GetCityBuildings()->GetNumBuilding(eBuilding) > 0)

	mov	eax, DWORD PTR _eBuilding$222681[ebp]
	push	eax
	mov	ecx, DWORD PTR _pLoopCity$[ebp]
	call	?GetCityBuildings@CvCity@@QBEPAVCvCityBuildings@@XZ ; CvCity::GetCityBuildings
	mov	ecx, eax
	call	?GetNumBuilding@CvCityBuildings@@QBEHW4BuildingTypes@@@Z ; CvCityBuildings::GetNumBuilding
	test	eax, eax
	jle	$LN8@shareItems

; 675  : 							{
; 676  : 								if(!isObsoleteBuilding(eBuilding))

	mov	ecx, DWORD PTR _eBuilding$222681[ebp]
	push	ecx
	mov	ecx, DWORD PTR _this$[ebp]
	call	?isObsoleteBuilding@CvTeam@@QBE_NW4BuildingTypes@@@Z ; CvTeam::isObsoleteBuilding
	movzx	edx, al
	test	edx, edx
	jne	$LN8@shareItems

; 677  : 								{
; 678  : 									if(pkBuildingInfo->IsTeamShare())

	mov	ecx, DWORD PTR _pkBuildingInfo$222683[ebp]
	call	?IsTeamShare@CvBuildingEntry@@QBE_NXZ	; CvBuildingEntry::IsTeamShare
	movzx	eax, al
	test	eax, eax
	je	$LN5@shareItems

; 679  : 									{
; 680  : 										for(iK = 0; iK < MAX_PLAYERS; iK++)

	mov	DWORD PTR _iK$[ebp], 0
	jmp	SHORT $LN4@shareItems
$LN3@shareItems:
	mov	ecx, DWORD PTR _iK$[ebp]
	add	ecx, 1
	mov	DWORD PTR _iK$[ebp], ecx
$LN4@shareItems:
	cmp	DWORD PTR _iK$[ebp], 64			; 00000040H
	jge	SHORT $LN5@shareItems

; 681  : 										{
; 682  : 											CvPlayerAI& kOtherPlayer = GET_PLAYER(static_cast<PlayerTypes>(iK));

	mov	edx, DWORD PTR _iK$[ebp]
	imul	edx, 63236				; 0000f704H
	add	edx, DWORD PTR ?m_aPlayers@CvPlayerAI@@1PAV1@A ; CvPlayerAI::m_aPlayers
	mov	DWORD PTR _kOtherPlayer$222691[ebp], edx

; 683  : 											if(kOtherPlayer.isAlive() && kOtherPlayer.getTeam() == m_eID)

	mov	eax, DWORD PTR _kOtherPlayer$222691[ebp]
	mov	cl, BYTE PTR [eax+2256]
	mov	BYTE PTR $T232002[ebp], cl
	movzx	edx, BYTE PTR $T232002[ebp]
	test	edx, edx
	je	SHORT $LN1@shareItems
	mov	eax, DWORD PTR _kOtherPlayer$222691[ebp]
	mov	ecx, DWORD PTR [eax+44]
	push	ecx
	call	?teamType@CvPreGame@@YA?AW4TeamTypes@@W4PlayerTypes@@@Z ; CvPreGame::teamType
	add	esp, 4
	mov	DWORD PTR $T232011[ebp], eax
	mov	edx, DWORD PTR _this$[ebp]
	mov	eax, DWORD PTR $T232011[ebp]
	cmp	eax, DWORD PTR [edx+4]
	jne	SHORT $LN1@shareItems

; 684  : 											{
; 685  : 												kOtherPlayer.processBuilding(eBuilding, pLoopCity->GetCityBuildings()->GetNumBuilding(eBuilding), /*bFirst*/ false, pLoopCity->area());

	mov	ecx, DWORD PTR _pLoopCity$[ebp]
	call	?area@CvCity@@QBEPAVCvArea@@XZ		; CvCity::area
	push	eax
	push	0
	mov	ecx, DWORD PTR _eBuilding$222681[ebp]
	push	ecx
	mov	ecx, DWORD PTR _pLoopCity$[ebp]
	call	?GetCityBuildings@CvCity@@QBEPAVCvCityBuildings@@XZ ; CvCity::GetCityBuildings
	mov	ecx, eax
	call	?GetNumBuilding@CvCityBuildings@@QBEHW4BuildingTypes@@@Z ; CvCityBuildings::GetNumBuilding
	push	eax
	mov	edx, DWORD PTR _eBuilding$222681[ebp]
	push	edx
	mov	ecx, DWORD PTR _kOtherPlayer$222691[ebp]
	call	?processBuilding@CvPlayer@@QAEXW4BuildingTypes@@H_NPAVCvArea@@@Z ; CvPlayer::processBuilding
$LN1@shareItems:

; 686  : 											}
; 687  : 										}

	jmp	SHORT $LN3@shareItems
$LN5@shareItems:

; 688  : 									}
; 689  : 
; 690  : 									processBuilding(eBuilding, pLoopCity->GetCityBuildings()->GetNumBuilding(eBuilding), /*bFirst*/ false);

	push	0
	mov	eax, DWORD PTR _eBuilding$222681[ebp]
	push	eax
	mov	ecx, DWORD PTR _pLoopCity$[ebp]
	call	?GetCityBuildings@CvCity@@QBEPAVCvCityBuildings@@XZ ; CvCity::GetCityBuildings
	mov	ecx, eax
	call	?GetNumBuilding@CvCityBuildings@@QBEHW4BuildingTypes@@@Z ; CvCityBuildings::GetNumBuilding
	push	eax
	mov	ecx, DWORD PTR _eBuilding$222681[ebp]
	push	ecx
	mov	ecx, DWORD PTR _this$[ebp]
	call	?processBuilding@CvTeam@@QAEXW4BuildingTypes@@H_N@Z ; CvTeam::processBuilding
$LN8@shareItems:

; 691  : 								}
; 692  : 							}
; 693  : 						}
; 694  : 					}

	jmp	$LN10@shareItems
$LN9@shareItems:

; 695  : 				}

	jmp	$LN13@shareItems
$LN16@shareItems:

; 696  : 			}
; 697  : 		}

	jmp	$LN18@shareItems
$LN28@shareItems:

; 698  : 	}
; 699  : 
; 700  : }

	mov	esp, ebp
	pop	ebp
	ret	4
?shareItems@CvTeam@@QAEXW4TeamTypes@@@Z ENDP		; CvTeam::shareItems
_TEXT	ENDS
PUBLIC	?changeBuildingClassCount@CvTeam@@QAEXW4BuildingClassTypes@@H@Z ; CvTeam::changeBuildingClassCount
PUBLIC	?getBuildingClassCount@CvTeam@@QBEHW4BuildingClassTypes@@@Z ; CvTeam::getBuildingClassCount
PUBLIC	?changeUnitClassCount@CvTeam@@QAEXW4UnitClassTypes@@H@Z ; CvTeam::changeUnitClassCount
PUBLIC	?getUnitClassCount@CvTeam@@QBEHW4UnitClassTypes@@@Z ; CvTeam::getUnitClassCount
PUBLIC	?changeProjectMaking@CvTeam@@QAEXW4ProjectTypes@@H@Z ; CvTeam::changeProjectMaking
PUBLIC	?getProjectMaking@CvTeam@@QBEHW4ProjectTypes@@@Z ; CvTeam::getProjectMaking
PUBLIC	?changeProjectCount@CvTeam@@QAEXW4ProjectTypes@@H@Z ; CvTeam::changeProjectCount
PUBLIC	?getProjectCount@CvTeam@@QBEHW4ProjectTypes@@@Z	; CvTeam::getProjectCount
EXTRN	?SetNoTradeTech@CvTeamTechs@@QAEXW4TechTypes@@_N@Z:PROC ; CvTeamTechs::SetNoTradeTech
EXTRN	?IsNoTradeTech@CvTeamTechs@@QBE_NW4TechTypes@@@Z:PROC ; CvTeamTechs::IsNoTradeTech
EXTRN	?SetResearchProgress@CvTeamTechs@@QAEXW4TechTypes@@HW4PlayerTypes@@@Z:PROC ; CvTeamTechs::SetResearchProgress
EXTRN	?GetResearchProgress@CvTeamTechs@@QBEHW4TechTypes@@@Z:PROC ; CvTeamTechs::GetResearchProgress
EXTRN	?getBuildingClassInfo@CvGlobals@@QAEPAVCvBuildingClassInfo@@W4BuildingClassTypes@@@Z:PROC ; CvGlobals::getBuildingClassInfo
EXTRN	?getUnitClassInfo@CvGlobals@@QAEPAVCvUnitClassInfo@@W4UnitClassTypes@@@Z:PROC ; CvGlobals::getUnitClassInfo
EXTRN	?incrementProjectCreatedCount@CvGame@@QAEXW4ProjectTypes@@H@Z:PROC ; CvGame::incrementProjectCreatedCount
; Function compile flags: /Odtp
;	COMDAT ?shareCounters@CvTeam@@QAEXW4TeamTypes@@@Z
_TEXT	SEGMENT
_this$ = -52						; size = 4
$T232045 = -48						; size = 4
$T232041 = -44						; size = 4
$T232037 = -40						; size = 4
$T232033 = -36						; size = 4
$T232029 = -32						; size = 4
$T232025 = -28						; size = 4
$T232021 = -24						; size = 4
$T232017 = -20						; size = 4
_pkBuildingClassInfo$222721 = -16			; size = 4
_pkUnitClassInfo$222713 = -12				; size = 4
_iExtraProjects$222702 = -8				; size = 4
_iI$ = -4						; size = 4
_eTeam$ = 8						; size = 4
?shareCounters@CvTeam@@QAEXW4TeamTypes@@@Z PROC		; CvTeam::shareCounters, COMDAT
; _this$ = ecx

; 705  : {

	push	ebp
	mov	ebp, esp
	sub	esp, 52					; 00000034H
	push	esi
	mov	DWORD PTR _this$[ebp], ecx

; 706  : #ifdef AUI_WARNING_FIXES
; 707  : 	uint iI;
; 708  : #else
; 709  : 	int iI;
; 710  : #endif
; 711  : 
; 712  : 	for(iI = 0; iI < GC.getNumProjectInfos(); iI++)

	mov	DWORD PTR _iI$[ebp], 0
	jmp	SHORT $LN17@shareCount
$LN16@shareCount:
	mov	eax, DWORD PTR _iI$[ebp]
	add	eax, 1
	mov	DWORD PTR _iI$[ebp], eax
$LN17@shareCount:
	mov	ecx, OFFSET ?gGlobals@@3VCvGlobals@@A	; gGlobals
	call	?getNumProjectInfos@CvGlobals@@QAEHXZ	; CvGlobals::getNumProjectInfos
	cmp	DWORD PTR _iI$[ebp], eax
	jge	$LN15@shareCount

; 713  : 	{
; 714  : 		int iExtraProjects = GET_TEAM(eTeam).getProjectCount((ProjectTypes)iI) - getProjectCount((ProjectTypes)iI);

	mov	ecx, DWORD PTR _eTeam$[ebp]
	imul	ecx, 2984				; 00000ba8H
	add	ecx, DWORD PTR ?m_aTeams@CvTeam@@1PAV1@A ; CvTeam::m_aTeams
	mov	DWORD PTR $T232017[ebp], ecx
	mov	edx, DWORD PTR _iI$[ebp]
	push	edx
	mov	ecx, DWORD PTR $T232017[ebp]
	call	?getProjectCount@CvTeam@@QBEHW4ProjectTypes@@@Z ; CvTeam::getProjectCount
	mov	esi, eax
	mov	eax, DWORD PTR _iI$[ebp]
	push	eax
	mov	ecx, DWORD PTR _this$[ebp]
	call	?getProjectCount@CvTeam@@QBEHW4ProjectTypes@@@Z ; CvTeam::getProjectCount
	sub	esi, eax
	mov	DWORD PTR _iExtraProjects$222702[ebp], esi

; 715  : 		if(iExtraProjects > 0)

	cmp	DWORD PTR _iExtraProjects$222702[ebp], 0
	jle	SHORT $LN14@shareCount

; 716  : 		{
; 717  : 			changeProjectCount((ProjectTypes)iI, iExtraProjects);

	mov	ecx, DWORD PTR _iExtraProjects$222702[ebp]
	push	ecx
	mov	edx, DWORD PTR _iI$[ebp]
	push	edx
	mov	ecx, DWORD PTR _this$[ebp]
	call	?changeProjectCount@CvTeam@@QAEXW4ProjectTypes@@H@Z ; CvTeam::changeProjectCount

; 718  : 			GC.getGame().incrementProjectCreatedCount((ProjectTypes)iI, -iExtraProjects);

	mov	eax, DWORD PTR ?gGlobals@@3VCvGlobals@@A+48
	mov	DWORD PTR $T232021[ebp], eax
	mov	ecx, DWORD PTR _iExtraProjects$222702[ebp]
	neg	ecx
	push	ecx
	mov	edx, DWORD PTR _iI$[ebp]
	push	edx
	mov	ecx, DWORD PTR $T232021[ebp]
	call	?incrementProjectCreatedCount@CvGame@@QAEXW4ProjectTypes@@H@Z ; CvGame::incrementProjectCreatedCount
$LN14@shareCount:

; 719  : 		}
; 720  : 
; 721  : 		changeProjectMaking(((ProjectTypes)iI), GET_TEAM(eTeam).getProjectMaking((ProjectTypes)iI));

	mov	eax, DWORD PTR _eTeam$[ebp]
	imul	eax, 2984				; 00000ba8H
	add	eax, DWORD PTR ?m_aTeams@CvTeam@@1PAV1@A ; CvTeam::m_aTeams
	mov	DWORD PTR $T232025[ebp], eax
	mov	ecx, DWORD PTR _iI$[ebp]
	push	ecx
	mov	ecx, DWORD PTR $T232025[ebp]
	call	?getProjectMaking@CvTeam@@QBEHW4ProjectTypes@@@Z ; CvTeam::getProjectMaking
	push	eax
	mov	edx, DWORD PTR _iI$[ebp]
	push	edx
	mov	ecx, DWORD PTR _this$[ebp]
	call	?changeProjectMaking@CvTeam@@QAEXW4ProjectTypes@@H@Z ; CvTeam::changeProjectMaking

; 722  : 	}

	jmp	$LN16@shareCount
$LN15@shareCount:

; 723  : 
; 724  : 	for(iI = 0; iI < GC.getNumUnitClassInfos(); iI++)

	mov	DWORD PTR _iI$[ebp], 0
	jmp	SHORT $LN13@shareCount
$LN12@shareCount:
	mov	eax, DWORD PTR _iI$[ebp]
	add	eax, 1
	mov	DWORD PTR _iI$[ebp], eax
$LN13@shareCount:
	mov	ecx, OFFSET ?gGlobals@@3VCvGlobals@@A	; gGlobals
	call	?getNumUnitClassInfos@CvGlobals@@QAEHXZ	; CvGlobals::getNumUnitClassInfos
	cmp	DWORD PTR _iI$[ebp], eax
	jge	SHORT $LN11@shareCount

; 725  : 	{
; 726  : 		CvUnitClassInfo* pkUnitClassInfo = GC.getUnitClassInfo((UnitClassTypes)iI);

	mov	ecx, DWORD PTR _iI$[ebp]
	push	ecx
	mov	ecx, OFFSET ?gGlobals@@3VCvGlobals@@A	; gGlobals
	call	?getUnitClassInfo@CvGlobals@@QAEPAVCvUnitClassInfo@@W4UnitClassTypes@@@Z ; CvGlobals::getUnitClassInfo
	mov	DWORD PTR _pkUnitClassInfo$222713[ebp], eax

; 727  : 		if(!pkUnitClassInfo)

	cmp	DWORD PTR _pkUnitClassInfo$222713[ebp], 0
	jne	SHORT $LN10@shareCount

; 728  : 		{
; 729  : 			continue;

	jmp	SHORT $LN12@shareCount
$LN10@shareCount:

; 730  : 		}
; 731  : 
; 732  : 		changeUnitClassCount(((UnitClassTypes)iI), GET_TEAM(eTeam).getUnitClassCount((UnitClassTypes)iI));

	mov	edx, DWORD PTR _eTeam$[ebp]
	imul	edx, 2984				; 00000ba8H
	add	edx, DWORD PTR ?m_aTeams@CvTeam@@1PAV1@A ; CvTeam::m_aTeams
	mov	DWORD PTR $T232029[ebp], edx
	mov	eax, DWORD PTR _iI$[ebp]
	push	eax
	mov	ecx, DWORD PTR $T232029[ebp]
	call	?getUnitClassCount@CvTeam@@QBEHW4UnitClassTypes@@@Z ; CvTeam::getUnitClassCount
	push	eax
	mov	ecx, DWORD PTR _iI$[ebp]
	push	ecx
	mov	ecx, DWORD PTR _this$[ebp]
	call	?changeUnitClassCount@CvTeam@@QAEXW4UnitClassTypes@@H@Z ; CvTeam::changeUnitClassCount

; 733  : 	}

	jmp	SHORT $LN12@shareCount
$LN11@shareCount:

; 734  : 
; 735  : 	for(iI = 0; iI < GC.getNumBuildingClassInfos(); iI++)

	mov	DWORD PTR _iI$[ebp], 0
	jmp	SHORT $LN9@shareCount
$LN8@shareCount:
	mov	edx, DWORD PTR _iI$[ebp]
	add	edx, 1
	mov	DWORD PTR _iI$[ebp], edx
$LN9@shareCount:
	mov	ecx, OFFSET ?gGlobals@@3VCvGlobals@@A	; gGlobals
	call	?getNumBuildingClassInfos@CvGlobals@@QAEHXZ ; CvGlobals::getNumBuildingClassInfos
	cmp	DWORD PTR _iI$[ebp], eax
	jge	SHORT $LN7@shareCount

; 736  : 	{
; 737  : 		CvBuildingClassInfo* pkBuildingClassInfo = GC.getBuildingClassInfo((BuildingClassTypes)iI);

	mov	eax, DWORD PTR _iI$[ebp]
	push	eax
	mov	ecx, OFFSET ?gGlobals@@3VCvGlobals@@A	; gGlobals
	call	?getBuildingClassInfo@CvGlobals@@QAEPAVCvBuildingClassInfo@@W4BuildingClassTypes@@@Z ; CvGlobals::getBuildingClassInfo
	mov	DWORD PTR _pkBuildingClassInfo$222721[ebp], eax

; 738  : 		if(!pkBuildingClassInfo)

	cmp	DWORD PTR _pkBuildingClassInfo$222721[ebp], 0
	jne	SHORT $LN6@shareCount

; 739  : 		{
; 740  : 			continue;

	jmp	SHORT $LN8@shareCount
$LN6@shareCount:

; 741  : 		}
; 742  : 
; 743  : 		changeBuildingClassCount(((BuildingClassTypes)iI), GET_TEAM(eTeam).getBuildingClassCount((BuildingClassTypes)iI));

	mov	ecx, DWORD PTR _eTeam$[ebp]
	imul	ecx, 2984				; 00000ba8H
	add	ecx, DWORD PTR ?m_aTeams@CvTeam@@1PAV1@A ; CvTeam::m_aTeams
	mov	DWORD PTR $T232033[ebp], ecx
	mov	edx, DWORD PTR _iI$[ebp]
	push	edx
	mov	ecx, DWORD PTR $T232033[ebp]
	call	?getBuildingClassCount@CvTeam@@QBEHW4BuildingClassTypes@@@Z ; CvTeam::getBuildingClassCount
	push	eax
	mov	eax, DWORD PTR _iI$[ebp]
	push	eax
	mov	ecx, DWORD PTR _this$[ebp]
	call	?changeBuildingClassCount@CvTeam@@QAEXW4BuildingClassTypes@@H@Z ; CvTeam::changeBuildingClassCount

; 744  : 	}

	jmp	SHORT $LN8@shareCount
$LN7@shareCount:

; 745  : 
; 746  : 	for(iI = 0; iI < GC.getNumTechInfos(); iI++)

	mov	DWORD PTR _iI$[ebp], 0
	jmp	SHORT $LN5@shareCount
$LN4@shareCount:
	mov	ecx, DWORD PTR _iI$[ebp]
	add	ecx, 1
	mov	DWORD PTR _iI$[ebp], ecx
$LN5@shareCount:
	mov	ecx, OFFSET ?gGlobals@@3VCvGlobals@@A	; gGlobals
	call	?getNumTechInfos@CvGlobals@@QAEHXZ	; CvGlobals::getNumTechInfos
	cmp	DWORD PTR _iI$[ebp], eax
	jge	$LN18@shareCount

; 747  : 	{
; 748  : 		if(GET_TEAM(eTeam).GetTeamTechs()->GetResearchProgress((TechTypes)iI) > GetTeamTechs()->GetResearchProgress((TechTypes)iI))

	mov	edx, DWORD PTR _eTeam$[ebp]
	imul	edx, 2984				; 00000ba8H
	add	edx, DWORD PTR ?m_aTeams@CvTeam@@1PAV1@A ; CvTeam::m_aTeams
	mov	DWORD PTR $T232037[ebp], edx
	mov	eax, DWORD PTR _iI$[ebp]
	push	eax
	mov	ecx, DWORD PTR $T232037[ebp]
	call	?GetTeamTechs@CvTeam@@QBEPAVCvTeamTechs@@XZ ; CvTeam::GetTeamTechs
	mov	ecx, eax
	call	?GetResearchProgress@CvTeamTechs@@QBEHW4TechTypes@@@Z ; CvTeamTechs::GetResearchProgress
	mov	esi, eax
	mov	ecx, DWORD PTR _iI$[ebp]
	push	ecx
	mov	ecx, DWORD PTR _this$[ebp]
	call	?GetTeamTechs@CvTeam@@QBEPAVCvTeamTechs@@XZ ; CvTeam::GetTeamTechs
	mov	ecx, eax
	call	?GetResearchProgress@CvTeamTechs@@QBEHW4TechTypes@@@Z ; CvTeamTechs::GetResearchProgress
	cmp	esi, eax
	jle	SHORT $LN2@shareCount

; 749  : 		{
; 750  : 			GetTeamTechs()->SetResearchProgress(((TechTypes)iI), GET_TEAM(eTeam).GetTeamTechs()->GetResearchProgress((TechTypes)iI), getLeaderID());

	mov	edx, DWORD PTR _eTeam$[ebp]
	imul	edx, 2984				; 00000ba8H
	add	edx, DWORD PTR ?m_aTeams@CvTeam@@1PAV1@A ; CvTeam::m_aTeams
	mov	DWORD PTR $T232041[ebp], edx
	mov	ecx, DWORD PTR _this$[ebp]
	call	?getLeaderID@CvTeam@@QBE?AW4PlayerTypes@@XZ ; CvTeam::getLeaderID
	push	eax
	mov	eax, DWORD PTR _iI$[ebp]
	push	eax
	mov	ecx, DWORD PTR $T232041[ebp]
	call	?GetTeamTechs@CvTeam@@QBEPAVCvTeamTechs@@XZ ; CvTeam::GetTeamTechs
	mov	ecx, eax
	call	?GetResearchProgress@CvTeamTechs@@QBEHW4TechTypes@@@Z ; CvTeamTechs::GetResearchProgress
	push	eax
	mov	ecx, DWORD PTR _iI$[ebp]
	push	ecx
	mov	ecx, DWORD PTR _this$[ebp]
	call	?GetTeamTechs@CvTeam@@QBEPAVCvTeamTechs@@XZ ; CvTeam::GetTeamTechs
	mov	ecx, eax
	call	?SetResearchProgress@CvTeamTechs@@QAEXW4TechTypes@@HW4PlayerTypes@@@Z ; CvTeamTechs::SetResearchProgress
$LN2@shareCount:

; 751  : 		}
; 752  : 
; 753  : 		if(GET_TEAM(eTeam).GetTeamTechs()->IsNoTradeTech((TechTypes)iI))

	mov	edx, DWORD PTR _eTeam$[ebp]
	imul	edx, 2984				; 00000ba8H
	add	edx, DWORD PTR ?m_aTeams@CvTeam@@1PAV1@A ; CvTeam::m_aTeams
	mov	DWORD PTR $T232045[ebp], edx
	mov	eax, DWORD PTR _iI$[ebp]
	push	eax
	mov	ecx, DWORD PTR $T232045[ebp]
	call	?GetTeamTechs@CvTeam@@QBEPAVCvTeamTechs@@XZ ; CvTeam::GetTeamTechs
	mov	ecx, eax
	call	?IsNoTradeTech@CvTeamTechs@@QBE_NW4TechTypes@@@Z ; CvTeamTechs::IsNoTradeTech
	movzx	ecx, al
	test	ecx, ecx
	je	SHORT $LN1@shareCount

; 754  : 		{
; 755  : 			GetTeamTechs()->SetNoTradeTech((TechTypes)iI, true);

	push	1
	mov	edx, DWORD PTR _iI$[ebp]
	push	edx
	mov	ecx, DWORD PTR _this$[ebp]
	call	?GetTeamTechs@CvTeam@@QBEPAVCvTeamTechs@@XZ ; CvTeam::GetTeamTechs
	mov	ecx, eax
	call	?SetNoTradeTech@CvTeamTechs@@QAEXW4TechTypes@@_N@Z ; CvTeamTechs::SetNoTradeTech
$LN1@shareCount:

; 756  : 		}

	jmp	$LN4@shareCount
$LN18@shareCount:

; 757  : 	}
; 758  : }

	pop	esi
	mov	esp, ebp
	pop	ebp
	ret	4
?shareCounters@CvTeam@@QAEXW4TeamTypes@@@Z ENDP		; CvTeam::shareCounters
_TEXT	ENDS
PUBLIC	?setMapCentering@CvTeam@@QAEX_N@Z		; CvTeam::setMapCentering
PUBLIC	?changeBorderObstacleCount@CvTeam@@QAEXH@Z	; CvTeam::changeBorderObstacleCount
PUBLIC	?changeTechShareCount@CvTeam@@QAEXHH@Z		; CvTeam::changeTechShareCount
PUBLIC	?changeVictoryPoints@CvTeam@@QAEXH@Z		; CvTeam::changeVictoryPoints
PUBLIC	?SetHomeOfUnitedNations@CvTeam@@QAEX_N@Z	; CvTeam::SetHomeOfUnitedNations
EXTRN	?ChangeBuildingDefenseMod@CvCityBuildings@@QAEXH@Z:PROC ; CvCityBuildings::ChangeBuildingDefenseMod
EXTRN	?GetGlobalDefenseModifier@CvBuildingEntry@@QBEHXZ:PROC ; CvBuildingEntry::GetGlobalDefenseModifier
EXTRN	?IsMapCentering@CvBuildingEntry@@QBE_NXZ:PROC	; CvBuildingEntry::IsMapCentering
EXTRN	?IsBorderObstacle@CvBuildingEntry@@QBE_NXZ:PROC	; CvBuildingEntry::IsBorderObstacle
EXTRN	?GetTechShare@CvBuildingEntry@@QBEHXZ:PROC	; CvBuildingEntry::GetTechShare
EXTRN	?GetVictoryPoints@CvBuildingEntry@@QBEHXZ:PROC	; CvBuildingEntry::GetVictoryPoints
EXTRN	?DoUnitedNationsBuilt@CvGameLeagues@@QAEXW4PlayerTypes@@@Z:PROC ; CvGameLeagues::DoUnitedNationsBuilt
EXTRN	?GetGameLeagues@CvGame@@QAEPAVCvGameLeagues@@XZ:PROC ; CvGame::GetGameLeagues
EXTRN	?IsDiplomaticVoting@CvBuildingEntry@@QBE_NXZ:PROC ; CvBuildingEntry::IsDiplomaticVoting
; Function compile flags: /Odtp
;	COMDAT ?processBuilding@CvTeam@@QAEXW4BuildingTypes@@H_N@Z
_TEXT	SEGMENT
_this$ = -36						; size = 4
$T232072 = -29						; size = 1
$T232063 = -28						; size = 4
$T232051 = -24						; size = 4
_pLoopCity$222758 = -20					; size = 4
_iLoop$222759 = -16					; size = 4
_kPlayer$222755 = -12					; size = 4
_iPlayerLoop$222751 = -8				; size = 4
_pBuildingInfo$ = -4					; size = 4
_eBuilding$ = 8						; size = 4
_iChange$ = 12						; size = 4
_bFirst$ = 16						; size = 1
?processBuilding@CvTeam@@QAEXW4BuildingTypes@@H_N@Z PROC ; CvTeam::processBuilding, COMDAT
; _this$ = ecx

; 763  : {

	push	ebp
	mov	ebp, esp
	sub	esp, 36					; 00000024H
	mov	DWORD PTR _this$[ebp], ecx

; 764  : 	CvBuildingEntry* pBuildingInfo = GC.getBuildingInfo(eBuilding);

	mov	eax, DWORD PTR _eBuilding$[ebp]
	push	eax
	mov	ecx, OFFSET ?gGlobals@@3VCvGlobals@@A	; gGlobals
	call	?getBuildingInfo@CvGlobals@@QAEPAVCvBuildingEntry@@W4BuildingTypes@@@Z ; CvGlobals::getBuildingInfo
	mov	DWORD PTR _pBuildingInfo$[ebp], eax

; 765  : 	if(pBuildingInfo == NULL)

	cmp	DWORD PTR _pBuildingInfo$[ebp], 0
	jne	SHORT $LN14@processBui

; 766  : 		return;

	jmp	$LN15@processBui
$LN14@processBui:

; 767  : 
; 768  : 	// One-shot items
; 769  : 	if(bFirst && iChange > 0)

	movzx	ecx, BYTE PTR _bFirst$[ebp]
	test	ecx, ecx
	je	SHORT $LN13@processBui
	cmp	DWORD PTR _iChange$[ebp], 0
	jle	SHORT $LN13@processBui

; 770  : 	{
; 771  : 		// Diplo victory
; 772  : 		if(pBuildingInfo->IsDiplomaticVoting())

	mov	ecx, DWORD PTR _pBuildingInfo$[ebp]
	call	?IsDiplomaticVoting@CvBuildingEntry@@QBE_NXZ ; CvBuildingEntry::IsDiplomaticVoting
	movzx	edx, al
	test	edx, edx
	je	SHORT $LN13@processBui

; 773  : 		{
; 774  : 			SetHomeOfUnitedNations(true);

	push	1
	mov	ecx, DWORD PTR _this$[ebp]
	call	?SetHomeOfUnitedNations@CvTeam@@QAEX_N@Z ; CvTeam::SetHomeOfUnitedNations

; 775  : 			GC.getGame().GetGameLeagues()->DoUnitedNationsBuilt(getLeaderID());

	mov	eax, DWORD PTR ?gGlobals@@3VCvGlobals@@A+48
	mov	DWORD PTR $T232051[ebp], eax
	mov	ecx, DWORD PTR _this$[ebp]
	call	?getLeaderID@CvTeam@@QBE?AW4PlayerTypes@@XZ ; CvTeam::getLeaderID
	push	eax
	mov	ecx, DWORD PTR $T232051[ebp]
	call	?GetGameLeagues@CvGame@@QAEPAVCvGameLeagues@@XZ ; CvGame::GetGameLeagues
	mov	ecx, eax
	call	?DoUnitedNationsBuilt@CvGameLeagues@@QAEXW4PlayerTypes@@@Z ; CvGameLeagues::DoUnitedNationsBuilt
$LN13@processBui:

; 776  : 		}
; 777  : 	}
; 778  : 
; 779  : 	changeVictoryPoints((pBuildingInfo->GetVictoryPoints()) * iChange);

	mov	ecx, DWORD PTR _pBuildingInfo$[ebp]
	call	?GetVictoryPoints@CvBuildingEntry@@QBEHXZ ; CvBuildingEntry::GetVictoryPoints
	imul	eax, DWORD PTR _iChange$[ebp]
	push	eax
	mov	ecx, DWORD PTR _this$[ebp]
	call	?changeVictoryPoints@CvTeam@@QAEXH@Z	; CvTeam::changeVictoryPoints

; 780  : 
; 781  : 	if((pBuildingInfo->GetTechShare() > 0) && (pBuildingInfo->GetTechShare() <= MAX_TEAMS))

	mov	ecx, DWORD PTR _pBuildingInfo$[ebp]
	call	?GetTechShare@CvBuildingEntry@@QBEHXZ	; CvBuildingEntry::GetTechShare
	test	eax, eax
	jle	SHORT $LN11@processBui
	mov	ecx, DWORD PTR _pBuildingInfo$[ebp]
	call	?GetTechShare@CvBuildingEntry@@QBEHXZ	; CvBuildingEntry::GetTechShare
	cmp	eax, 64					; 00000040H
	jg	SHORT $LN11@processBui

; 782  : 	{
; 783  : 		changeTechShareCount((pBuildingInfo->GetTechShare() - 1), iChange);

	mov	ecx, DWORD PTR _iChange$[ebp]
	push	ecx
	mov	ecx, DWORD PTR _pBuildingInfo$[ebp]
	call	?GetTechShare@CvBuildingEntry@@QBEHXZ	; CvBuildingEntry::GetTechShare
	sub	eax, 1
	push	eax
	mov	ecx, DWORD PTR _this$[ebp]
	call	?changeTechShareCount@CvTeam@@QAEXHH@Z	; CvTeam::changeTechShareCount
$LN11@processBui:

; 784  : 	}
; 785  : 
; 786  : 	if(pBuildingInfo->IsBorderObstacle())

	mov	ecx, DWORD PTR _pBuildingInfo$[ebp]
	call	?IsBorderObstacle@CvBuildingEntry@@QBE_NXZ ; CvBuildingEntry::IsBorderObstacle
	movzx	edx, al
	test	edx, edx
	je	SHORT $LN10@processBui

; 787  : 	{
; 788  : 		changeBorderObstacleCount(pBuildingInfo->IsBorderObstacle() * iChange);

	mov	ecx, DWORD PTR _pBuildingInfo$[ebp]
	call	?IsBorderObstacle@CvBuildingEntry@@QBE_NXZ ; CvBuildingEntry::IsBorderObstacle
	movzx	eax, al
	imul	eax, DWORD PTR _iChange$[ebp]
	push	eax
	mov	ecx, DWORD PTR _this$[ebp]
	call	?changeBorderObstacleCount@CvTeam@@QAEXH@Z ; CvTeam::changeBorderObstacleCount
$LN10@processBui:

; 789  : 	}
; 790  : 
; 791  : 	if(pBuildingInfo->IsMapCentering())

	mov	ecx, DWORD PTR _pBuildingInfo$[ebp]
	call	?IsMapCentering@CvBuildingEntry@@QBE_NXZ ; CvBuildingEntry::IsMapCentering
	movzx	ecx, al
	test	ecx, ecx
	je	SHORT $LN9@processBui

; 792  : 	{
; 793  : 		if(iChange > 0)

	cmp	DWORD PTR _iChange$[ebp], 0
	jle	SHORT $LN9@processBui

; 794  : 		{
; 795  : 			setMapCentering(true);

	push	1
	mov	ecx, DWORD PTR _this$[ebp]
	call	?setMapCentering@CvTeam@@QAEX_N@Z	; CvTeam::setMapCentering
$LN9@processBui:

; 796  : 		}
; 797  : 	}
; 798  : 
; 799  : 	// Effects in every City on this Team
; 800  : 	for(int iPlayerLoop = 0; iPlayerLoop < MAX_CIV_PLAYERS; iPlayerLoop++)

	mov	DWORD PTR _iPlayerLoop$222751[ebp], 0
	jmp	SHORT $LN7@processBui
$LN6@processBui:
	mov	edx, DWORD PTR _iPlayerLoop$222751[ebp]
	add	edx, 1
	mov	DWORD PTR _iPlayerLoop$222751[ebp], edx
$LN7@processBui:
	cmp	DWORD PTR _iPlayerLoop$222751[ebp], 63	; 0000003fH
	jge	$LN15@processBui

; 801  : 	{
; 802  : 		CvPlayerAI& kPlayer = GET_PLAYER((PlayerTypes) iPlayerLoop);

	mov	eax, DWORD PTR _iPlayerLoop$222751[ebp]
	imul	eax, 63236				; 0000f704H
	add	eax, DWORD PTR ?m_aPlayers@CvPlayerAI@@1PAV1@A ; CvPlayerAI::m_aPlayers
	mov	DWORD PTR _kPlayer$222755[ebp], eax

; 803  : 		if(kPlayer.getTeam() == m_eID && kPlayer.isAlive())

	mov	ecx, DWORD PTR _kPlayer$222755[ebp]
	mov	edx, DWORD PTR [ecx+44]
	push	edx
	call	?teamType@CvPreGame@@YA?AW4TeamTypes@@W4PlayerTypes@@@Z ; CvPreGame::teamType
	add	esp, 4
	mov	DWORD PTR $T232063[ebp], eax
	mov	eax, DWORD PTR _this$[ebp]
	mov	ecx, DWORD PTR $T232063[ebp]
	cmp	ecx, DWORD PTR [eax+4]
	jne	SHORT $LN4@processBui
	mov	edx, DWORD PTR _kPlayer$222755[ebp]
	mov	al, BYTE PTR [edx+2256]
	mov	BYTE PTR $T232072[ebp], al
	movzx	ecx, BYTE PTR $T232072[ebp]
	test	ecx, ecx
	je	SHORT $LN4@processBui

; 804  : 		{
; 805  : 			CvCity* pLoopCity;
; 806  : 			int iLoop;
; 807  : 
; 808  : 			for(pLoopCity = kPlayer.firstCity(&iLoop); pLoopCity != NULL; pLoopCity = kPlayer.nextCity(&iLoop))

	push	0
	lea	edx, DWORD PTR _iLoop$222759[ebp]
	push	edx
	mov	ecx, DWORD PTR _kPlayer$222755[ebp]
	call	?firstCity@CvPlayer@@QAEPAVCvCity@@PAH_N@Z ; CvPlayer::firstCity
	mov	DWORD PTR _pLoopCity$222758[ebp], eax
	jmp	SHORT $LN3@processBui
$LN2@processBui:
	push	0
	lea	eax, DWORD PTR _iLoop$222759[ebp]
	push	eax
	mov	ecx, DWORD PTR _kPlayer$222755[ebp]
	call	?nextCity@CvPlayer@@QAEPAVCvCity@@PAH_N@Z ; CvPlayer::nextCity
	mov	DWORD PTR _pLoopCity$222758[ebp], eax
$LN3@processBui:
	cmp	DWORD PTR _pLoopCity$222758[ebp], 0
	je	SHORT $LN4@processBui

; 809  : 			{
; 810  : 				pLoopCity->GetCityBuildings()->ChangeBuildingDefenseMod(pBuildingInfo->GetGlobalDefenseModifier() * iChange);

	mov	ecx, DWORD PTR _pBuildingInfo$[ebp]
	call	?GetGlobalDefenseModifier@CvBuildingEntry@@QBEHXZ ; CvBuildingEntry::GetGlobalDefenseModifier
	imul	eax, DWORD PTR _iChange$[ebp]
	push	eax
	mov	ecx, DWORD PTR _pLoopCity$222758[ebp]
	call	?GetCityBuildings@CvCity@@QBEPAVCvCityBuildings@@XZ ; CvCity::GetCityBuildings
	mov	ecx, eax
	call	?ChangeBuildingDefenseMod@CvCityBuildings@@QAEXH@Z ; CvCityBuildings::ChangeBuildingDefenseMod
	jmp	SHORT $LN2@processBui
$LN4@processBui:

; 811  : 			}

	jmp	$LN6@processBui
$LN15@processBui:

; 812  : 		}
; 813  : 	}
; 814  : }

	mov	esp, ebp
	pop	ebp
	ret	12					; 0000000cH
?processBuilding@CvTeam@@QAEXW4BuildingTypes@@H_N@Z ENDP ; CvTeam::processBuilding
_TEXT	ENDS
PUBLIC	?testCircumnavigated@CvTeam@@IAEXXZ		; CvTeam::testCircumnavigated
PUBLIC	?DoTestSmallAwards@CvTeam@@QAEXXZ		; CvTeam::DoTestSmallAwards
PUBLIC	?DoMinorCivTech@CvTeam@@QAEXXZ			; CvTeam::DoMinorCivTech
PUBLIC	?isMinorCiv@CvTeam@@QBE_NXZ			; CvTeam::isMinorCiv
PUBLIC	?ChangeNumTurnsLockedIntoWar@CvTeam@@QAEXW4TeamTypes@@H@Z ; CvTeam::ChangeNumTurnsLockedIntoWar
PUBLIC	?GetNumTurnsLockedIntoWar@CvTeam@@QBEHW4TeamTypes@@@Z ; CvTeam::GetNumTurnsLockedIntoWar
PUBLIC	?SetNumTurnsAtWar@CvTeam@@QAEXW4TeamTypes@@H@Z	; CvTeam::SetNumTurnsAtWar
PUBLIC	?ChangeNumTurnsAtWar@CvTeam@@QAEXW4TeamTypes@@H@Z ; CvTeam::ChangeNumTurnsAtWar
PUBLIC	?DoBarbarianTech@CvTeam@@QAEXXZ			; CvTeam::DoBarbarianTech
PUBLIC	?isBarbarian@CvTeam@@QBE_NXZ			; CvTeam::isBarbarian
PUBLIC	?doTurn@CvTeam@@QAEXXZ				; CvTeam::doTurn
; Function compile flags: /Odtp
;	COMDAT ?doTurn@CvTeam@@QAEXXZ
_TEXT	SEGMENT
_this$ = -20						; size = 4
$T232078 = -16						; size = 4
_iTeamLoop$222770 = -12					; size = 4
_eTeam$222769 = -8					; size = 4
_iI$ = -4						; size = 4
?doTurn@CvTeam@@QAEXXZ PROC				; CvTeam::doTurn, COMDAT
; _this$ = ecx

; 819  : {

	push	ebp
	mov	ebp, esp
	sub	esp, 20					; 00000014H
	mov	DWORD PTR _this$[ebp], ecx

; 820  : #ifdef AUI_WARNING_FIXES
; 821  : 	uint iI;
; 822  : #else
; 823  : 	int iI;
; 824  : #endif
; 825  : 
; 826  : 	CvAssertMsg(isAlive(), "isAlive is expected to be true");
; 827  : 
; 828  : 	// Barbarians get all Techs that 3/4 of alive players get
; 829  : 	if(isBarbarian())

	mov	ecx, DWORD PTR _this$[ebp]
	call	?isBarbarian@CvTeam@@QBE_NXZ		; CvTeam::isBarbarian
	movzx	eax, al
	test	eax, eax
	je	SHORT $LN13@doTurn

; 830  : 	{
; 831  : 		DoBarbarianTech();

	mov	ecx, DWORD PTR _this$[ebp]
	call	?DoBarbarianTech@CvTeam@@QAEXXZ		; CvTeam::DoBarbarianTech

; 832  : 	}
; 833  : 	// NOT barbs
; 834  : 	else

	jmp	$LN12@doTurn
$LN13@doTurn:

; 835  : 	{
; 836  : 		// War counter
; 837  : 		TeamTypes eTeam;
; 838  : 		int iTeamLoop;
; 839  : 		for(iTeamLoop = 0; iTeamLoop < MAX_CIV_TEAMS; iTeamLoop++)

	mov	DWORD PTR _iTeamLoop$222770[ebp], 0
	jmp	SHORT $LN11@doTurn
$LN10@doTurn:
	mov	ecx, DWORD PTR _iTeamLoop$222770[ebp]
	add	ecx, 1
	mov	DWORD PTR _iTeamLoop$222770[ebp], ecx
$LN11@doTurn:
	cmp	DWORD PTR _iTeamLoop$222770[ebp], 63	; 0000003fH
	jge	SHORT $LN12@doTurn

; 840  : 		{
; 841  : 			eTeam = (TeamTypes) iTeamLoop;

	mov	edx, DWORD PTR _iTeamLoop$222770[ebp]
	mov	DWORD PTR _eTeam$222769[ebp], edx

; 842  : 
; 843  : 			if(!GET_TEAM(eTeam).isBarbarian())

	mov	eax, DWORD PTR _eTeam$222769[ebp]
	imul	eax, 2984				; 00000ba8H
	add	eax, DWORD PTR ?m_aTeams@CvTeam@@1PAV1@A ; CvTeam::m_aTeams
	mov	DWORD PTR $T232078[ebp], eax
	mov	ecx, DWORD PTR $T232078[ebp]
	call	?isBarbarian@CvTeam@@QBE_NXZ		; CvTeam::isBarbarian
	movzx	ecx, al
	test	ecx, ecx
	jne	SHORT $LN8@doTurn

; 844  : 			{
; 845  : 				if(isAtWar(eTeam))

	mov	edx, DWORD PTR _eTeam$222769[ebp]
	push	edx
	mov	ecx, DWORD PTR _this$[ebp]
	call	?isAtWar@CvTeam@@QBE_NW4TeamTypes@@@Z	; CvTeam::isAtWar
	movzx	eax, al
	test	eax, eax
	je	SHORT $LN7@doTurn

; 846  : 					ChangeNumTurnsAtWar(eTeam, 1);

	push	1
	mov	ecx, DWORD PTR _eTeam$222769[ebp]
	push	ecx
	mov	ecx, DWORD PTR _this$[ebp]
	call	?ChangeNumTurnsAtWar@CvTeam@@QAEXW4TeamTypes@@H@Z ; CvTeam::ChangeNumTurnsAtWar

; 847  : 				else

	jmp	SHORT $LN8@doTurn
$LN7@doTurn:

; 848  : 					SetNumTurnsAtWar(eTeam, 0);

	push	0
	mov	edx, DWORD PTR _eTeam$222769[ebp]
	push	edx
	mov	ecx, DWORD PTR _this$[ebp]
	call	?SetNumTurnsAtWar@CvTeam@@QAEXW4TeamTypes@@H@Z ; CvTeam::SetNumTurnsAtWar
$LN8@doTurn:

; 849  : 			}
; 850  : 
; 851  : 			if(GetNumTurnsLockedIntoWar(eTeam) > 0)

	mov	eax, DWORD PTR _eTeam$222769[ebp]
	push	eax
	mov	ecx, DWORD PTR _this$[ebp]
	call	?GetNumTurnsLockedIntoWar@CvTeam@@QBEHW4TeamTypes@@@Z ; CvTeam::GetNumTurnsLockedIntoWar
	test	eax, eax
	jle	SHORT $LN5@doTurn

; 852  : 				ChangeNumTurnsLockedIntoWar(eTeam, -1);

	push	-1
	mov	ecx, DWORD PTR _eTeam$222769[ebp]
	push	ecx
	mov	ecx, DWORD PTR _this$[ebp]
	call	?ChangeNumTurnsLockedIntoWar@CvTeam@@QAEXW4TeamTypes@@H@Z ; CvTeam::ChangeNumTurnsLockedIntoWar
$LN5@doTurn:

; 853  : 		}

	jmp	$LN10@doTurn
$LN12@doTurn:

; 854  : 	}
; 855  : 
; 856  : 	// City States also get all Techs that 3/4 of alive players get
; 857  : 	if(isMinorCiv())

	mov	ecx, DWORD PTR _this$[ebp]
	call	?isMinorCiv@CvTeam@@QBE_NXZ		; CvTeam::isMinorCiv
	movzx	edx, al
	test	edx, edx
	je	SHORT $LN4@doTurn

; 858  : 	{
; 859  : 		DoMinorCivTech();

	mov	ecx, DWORD PTR _this$[ebp]
	call	?DoMinorCivTech@CvTeam@@QAEXXZ		; CvTeam::DoMinorCivTech
$LN4@doTurn:

; 860  : 	}
; 861  : 
; 862  : 	for(iI = 0; iI < GC.getNumTechInfos(); iI++)

	mov	DWORD PTR _iI$[ebp], 0
	jmp	SHORT $LN3@doTurn
$LN2@doTurn:
	mov	eax, DWORD PTR _iI$[ebp]
	add	eax, 1
	mov	DWORD PTR _iI$[ebp], eax
$LN3@doTurn:
	mov	ecx, OFFSET ?gGlobals@@3VCvGlobals@@A	; gGlobals
	call	?getNumTechInfos@CvGlobals@@QAEHXZ	; CvGlobals::getNumTechInfos
	cmp	DWORD PTR _iI$[ebp], eax
	jge	SHORT $LN1@doTurn

; 863  : 	{
; 864  : 		GetTeamTechs()->SetNoTradeTech(((TechTypes)iI), false);

	push	0
	mov	ecx, DWORD PTR _iI$[ebp]
	push	ecx
	mov	ecx, DWORD PTR _this$[ebp]
	call	?GetTeamTechs@CvTeam@@QBEPAVCvTeamTechs@@XZ ; CvTeam::GetTeamTechs
	mov	ecx, eax
	call	?SetNoTradeTech@CvTeamTechs@@QAEXW4TechTypes@@_N@Z ; CvTeamTechs::SetNoTradeTech

; 865  : 	}

	jmp	SHORT $LN2@doTurn
$LN1@doTurn:

; 866  : 
; 867  : 	DoTestSmallAwards();

	mov	ecx, DWORD PTR _this$[ebp]
	call	?DoTestSmallAwards@CvTeam@@QAEXXZ	; CvTeam::DoTestSmallAwards

; 868  : 
; 869  : 	testCircumnavigated();

	mov	ecx, DWORD PTR _this$[ebp]
	call	?testCircumnavigated@CvTeam@@IAEXXZ	; CvTeam::testCircumnavigated

; 870  : 
; 871  : #ifndef FINAL_RELEASE
; 872  : 	for(int iMinorLoop = MAX_MAJOR_CIVS; iMinorLoop < MAX_CIV_PLAYERS; iMinorLoop++)
; 873  : 	{
; 874  : 		if(!isAtWar(GET_PLAYER((PlayerTypes) iMinorLoop).getTeam()))
; 875  : 			continue;
; 876  : 
; 877  : 		CvAssertMsg(GET_PLAYER((PlayerTypes) iMinorLoop).GetMinorCivAI()->GetAlly() != getLeaderID(), "Major civ is now at war with a minor it is allied with! This is dumb and bad. Please send Jon this along with your last 5 autosaves and a changelist #.");
; 878  : 	}
; 879  : #endif
; 880  : }

	mov	esp, ebp
	pop	ebp
	ret	0
?doTurn@CvTeam@@QAEXXZ ENDP				; CvTeam::doTurn
; Function compile flags: /Odtp
_TEXT	ENDS
;	COMDAT ?DoBarbarianTech@CvTeam@@QAEXXZ
_TEXT	SEGMENT
tv79 = -72						; size = 4
_this$ = -68						; size = 4
$T232120 = -64						; size = 4
$T232116 = -60						; size = 4
$T232109 = -56						; size = 4
$T232103 = -52						; size = 4
$T232093 = -48						; size = 4
$T232086 = -44						; size = 4
$T232082 = -40						; size = 4
$T232081 = -36						; size = 4
_iTechLoop$222802 = -32					; size = 4
_iCount$ = -28						; size = 4
_iTeamLoop$ = -24					; size = 4
_iPossibleCount$ = -20					; size = 4
_eTech$ = -16						; size = 4
_iTeamsNeeded$ = -12					; size = 4
_eTeam$ = -8						; size = 4
_iTechPercent$ = -4					; size = 4
?DoBarbarianTech@CvTeam@@QAEXXZ PROC			; CvTeam::DoBarbarianTech, COMDAT
; _this$ = ecx

; 885  : {

	push	ebp
	mov	ebp, esp
	sub	esp, 72					; 00000048H
	mov	DWORD PTR _this$[ebp], ecx

; 886  : 	int iCount;
; 887  : 
; 888  : 	TechTypes eTech;
; 889  : 	TeamTypes eTeam;
; 890  : 
; 891  : 	int iPossibleCount = 0;

	mov	DWORD PTR _iPossibleCount$[ebp], 0

; 892  : 
; 893  : 	// See how many majors are still around
; 894  : 	int iTeamLoop;
; 895  : 	for(iTeamLoop = 0; iTeamLoop < MAX_CIV_TEAMS; iTeamLoop++)

	mov	DWORD PTR _iTeamLoop$[ebp], 0
	jmp	SHORT $LN16@DoBarbaria
$LN15@DoBarbaria:
	mov	eax, DWORD PTR _iTeamLoop$[ebp]
	add	eax, 1
	mov	DWORD PTR _iTeamLoop$[ebp], eax
$LN16@DoBarbaria:
	cmp	DWORD PTR _iTeamLoop$[ebp], 63		; 0000003fH
	jge	SHORT $LN14@DoBarbaria

; 896  : 	{
; 897  : 		eTeam = (TeamTypes) iTeamLoop;

	mov	ecx, DWORD PTR _iTeamLoop$[ebp]
	mov	DWORD PTR _eTeam$[ebp], ecx

; 898  : 
; 899  : 		if(GET_TEAM(eTeam).isAlive())

	mov	edx, DWORD PTR _eTeam$[ebp]
	imul	edx, 2984				; 00000ba8H
	add	edx, DWORD PTR ?m_aTeams@CvTeam@@1PAV1@A ; CvTeam::m_aTeams
	mov	DWORD PTR $T232086[ebp], edx
	mov	eax, DWORD PTR $T232086[ebp]
	xor	ecx, ecx
	cmp	DWORD PTR [eax+12], 0
	setg	cl
	movzx	edx, cl
	test	edx, edx
	je	SHORT $LN13@DoBarbaria

; 900  : 		{
; 901  : 			if(!GET_TEAM(eTeam).isMinorCiv())

	mov	eax, DWORD PTR _eTeam$[ebp]
	imul	eax, 2984				; 00000ba8H
	add	eax, DWORD PTR ?m_aTeams@CvTeam@@1PAV1@A ; CvTeam::m_aTeams
	mov	DWORD PTR $T232093[ebp], eax
	mov	ecx, DWORD PTR $T232093[ebp]
	call	?isMinorCiv@CvTeam@@QBE_NXZ		; CvTeam::isMinorCiv
	movzx	ecx, al
	test	ecx, ecx
	jne	SHORT $LN13@DoBarbaria

; 902  : 			{
; 903  : 				iPossibleCount++;

	mov	edx, DWORD PTR _iPossibleCount$[ebp]
	add	edx, 1
	mov	DWORD PTR _iPossibleCount$[ebp], edx
$LN13@DoBarbaria:

; 904  : 			}
; 905  : 		}
; 906  : 	}

	jmp	SHORT $LN15@DoBarbaria
$LN14@DoBarbaria:

; 907  : 
; 908  : 	CvAssertMsg(iPossibleCount > 0, "Zero possible players? Uhhh...");
; 909  : 
; 910  : 	// 75% of majors (rounded down) need the tech for the Barbs to get it
; 911  : 	int iTechPercent = /*75*/ GC.getBARBARIAN_TECH_PERCENT();

	mov	eax, DWORD PTR ?gGlobals@@3VCvGlobals@@A+7092
	mov	DWORD PTR _iTechPercent$[ebp], eax

; 912  : 	int iTeamsNeeded = max(1, iPossibleCount * iTechPercent / 100);

	mov	eax, DWORD PTR _iPossibleCount$[ebp]
	imul	eax, DWORD PTR _iTechPercent$[ebp]
	cdq
	mov	ecx, 100				; 00000064H
	idiv	ecx
	mov	DWORD PTR $T232081[ebp], eax
	mov	DWORD PTR $T232082[ebp], 1
	mov	edx, DWORD PTR $T232082[ebp]
	cmp	edx, DWORD PTR $T232081[ebp]
	jge	SHORT $LN29@DoBarbaria
	lea	eax, DWORD PTR $T232081[ebp]
	mov	DWORD PTR tv79[ebp], eax
	jmp	SHORT $LN30@DoBarbaria
$LN29@DoBarbaria:
	lea	ecx, DWORD PTR $T232082[ebp]
	mov	DWORD PTR tv79[ebp], ecx
$LN30@DoBarbaria:
	mov	edx, DWORD PTR tv79[ebp]
	mov	DWORD PTR $T232103[ebp], edx
	mov	eax, DWORD PTR $T232103[ebp]
	mov	ecx, DWORD PTR [eax]
	mov	DWORD PTR _iTeamsNeeded$[ebp], ecx

; 913  : 
; 914  : #ifdef AUI_WARNING_FIXES
; 915  : 	for (uint iTechLoop = 0; iTechLoop < GC.getNumTechInfos(); iTechLoop++)
; 916  : #else
; 917  : 	for(int iTechLoop = 0; iTechLoop < GC.getNumTechInfos(); iTechLoop++)

	mov	DWORD PTR _iTechLoop$222802[ebp], 0
	jmp	SHORT $LN11@DoBarbaria
$LN10@DoBarbaria:
	mov	edx, DWORD PTR _iTechLoop$222802[ebp]
	add	edx, 1
	mov	DWORD PTR _iTechLoop$222802[ebp], edx
$LN11@DoBarbaria:
	mov	ecx, OFFSET ?gGlobals@@3VCvGlobals@@A	; gGlobals
	call	?getNumTechInfos@CvGlobals@@QAEHXZ	; CvGlobals::getNumTechInfos
	cmp	DWORD PTR _iTechLoop$222802[ebp], eax
	jge	$LN17@DoBarbaria

; 918  : #endif
; 919  : 	{
; 920  : 		eTech = (TechTypes) iTechLoop;

	mov	eax, DWORD PTR _iTechLoop$222802[ebp]
	mov	DWORD PTR _eTech$[ebp], eax

; 921  : 
; 922  : 		if(!GetTeamTechs()->HasTech(eTech))

	mov	ecx, DWORD PTR _eTech$[ebp]
	push	ecx
	mov	ecx, DWORD PTR _this$[ebp]
	call	?GetTeamTechs@CvTeam@@QBEPAVCvTeamTechs@@XZ ; CvTeam::GetTeamTechs
	mov	ecx, eax
	call	?HasTech@CvTeamTechs@@QBE_NW4TechTypes@@@Z ; CvTeamTechs::HasTech
	movzx	edx, al
	test	edx, edx
	jne	$LN8@DoBarbaria

; 923  : 		{
; 924  : 			iCount = 0;

	mov	DWORD PTR _iCount$[ebp], 0

; 925  : 
; 926  : 			for(iTeamLoop = 0; iTeamLoop < MAX_CIV_TEAMS; iTeamLoop++)

	mov	DWORD PTR _iTeamLoop$[ebp], 0
	jmp	SHORT $LN7@DoBarbaria
$LN6@DoBarbaria:
	mov	eax, DWORD PTR _iTeamLoop$[ebp]
	add	eax, 1
	mov	DWORD PTR _iTeamLoop$[ebp], eax
$LN7@DoBarbaria:
	cmp	DWORD PTR _iTeamLoop$[ebp], 63		; 0000003fH
	jge	$LN5@DoBarbaria

; 927  : 			{
; 928  : 				eTeam = (TeamTypes) iTeamLoop;

	mov	ecx, DWORD PTR _iTeamLoop$[ebp]
	mov	DWORD PTR _eTeam$[ebp], ecx

; 929  : 
; 930  : 				if(GET_TEAM(eTeam).isAlive())

	mov	edx, DWORD PTR _eTeam$[ebp]
	imul	edx, 2984				; 00000ba8H
	add	edx, DWORD PTR ?m_aTeams@CvTeam@@1PAV1@A ; CvTeam::m_aTeams
	mov	DWORD PTR $T232109[ebp], edx
	mov	eax, DWORD PTR $T232109[ebp]
	xor	ecx, ecx
	cmp	DWORD PTR [eax+12], 0
	setg	cl
	movzx	edx, cl
	test	edx, edx
	je	SHORT $LN4@DoBarbaria

; 931  : 				{
; 932  : 					// Only look at Majors, as the City States will lag behind
; 933  : 					if(!GET_TEAM(eTeam).isMinorCiv())

	mov	eax, DWORD PTR _eTeam$[ebp]
	imul	eax, 2984				; 00000ba8H
	add	eax, DWORD PTR ?m_aTeams@CvTeam@@1PAV1@A ; CvTeam::m_aTeams
	mov	DWORD PTR $T232116[ebp], eax
	mov	ecx, DWORD PTR $T232116[ebp]
	call	?isMinorCiv@CvTeam@@QBE_NXZ		; CvTeam::isMinorCiv
	movzx	ecx, al
	test	ecx, ecx
	jne	SHORT $LN4@DoBarbaria

; 934  : 					{
; 935  : 						if(GET_TEAM(eTeam).GetTeamTechs()->HasTech(eTech))

	mov	edx, DWORD PTR _eTeam$[ebp]
	imul	edx, 2984				; 00000ba8H
	add	edx, DWORD PTR ?m_aTeams@CvTeam@@1PAV1@A ; CvTeam::m_aTeams
	mov	DWORD PTR $T232120[ebp], edx
	mov	eax, DWORD PTR _eTech$[ebp]
	push	eax
	mov	ecx, DWORD PTR $T232120[ebp]
	call	?GetTeamTechs@CvTeam@@QBEPAVCvTeamTechs@@XZ ; CvTeam::GetTeamTechs
	mov	ecx, eax
	call	?HasTech@CvTeamTechs@@QBE_NW4TechTypes@@@Z ; CvTeamTechs::HasTech
	movzx	ecx, al
	test	ecx, ecx
	je	SHORT $LN4@DoBarbaria

; 936  : 						{
; 937  : 							iCount++;

	mov	edx, DWORD PTR _iCount$[ebp]
	add	edx, 1
	mov	DWORD PTR _iCount$[ebp], edx
$LN4@DoBarbaria:

; 938  : 						}
; 939  : 					}
; 940  : 				}
; 941  : 			}

	jmp	$LN6@DoBarbaria
$LN5@DoBarbaria:

; 942  : 
; 943  : 			// Do enough majors have this tech?
; 944  : 			if(iCount >= iTeamsNeeded)

	mov	eax, DWORD PTR _iCount$[ebp]
	cmp	eax, DWORD PTR _iTeamsNeeded$[ebp]
	jl	SHORT $LN8@DoBarbaria

; 945  : 			{
; 946  : 				setHasTech(eTech, true, getLeaderID(), false, false);

	push	0
	push	0
	mov	ecx, DWORD PTR _this$[ebp]
	call	?getLeaderID@CvTeam@@QBE?AW4PlayerTypes@@XZ ; CvTeam::getLeaderID
	push	eax
	push	1
	mov	ecx, DWORD PTR _eTech$[ebp]
	push	ecx
	mov	ecx, DWORD PTR _this$[ebp]
	call	?setHasTech@CvTeam@@QAEXW4TechTypes@@_NW4PlayerTypes@@11@Z ; CvTeam::setHasTech
$LN8@DoBarbaria:

; 947  : 			}
; 948  : 		}

	jmp	$LN10@DoBarbaria
$LN17@DoBarbaria:

; 949  : 	}
; 950  : }

	mov	esp, ebp
	pop	ebp
	ret	0
?DoBarbarianTech@CvTeam@@QAEXXZ ENDP			; CvTeam::DoBarbarianTech
; Function compile flags: /Odtp
_TEXT	ENDS
;	COMDAT ?DoMinorCivTech@CvTeam@@QAEXXZ
_TEXT	SEGMENT
tv79 = -72						; size = 4
_this$ = -68						; size = 4
$T232162 = -64						; size = 4
$T232158 = -60						; size = 4
$T232151 = -56						; size = 4
$T232145 = -52						; size = 4
$T232135 = -48						; size = 4
$T232128 = -44						; size = 4
$T232124 = -40						; size = 4
$T232123 = -36						; size = 4
_iTechLoop$222834 = -32					; size = 4
_iCount$ = -28						; size = 4
_iTeamLoop$ = -24					; size = 4
_iPossibleCount$ = -20					; size = 4
_eTech$ = -16						; size = 4
_iTeamsNeeded$ = -12					; size = 4
_eTeam$ = -8						; size = 4
_iTechPercent$ = -4					; size = 4
?DoMinorCivTech@CvTeam@@QAEXXZ PROC			; CvTeam::DoMinorCivTech, COMDAT
; _this$ = ecx

; 955  : {

	push	ebp
	mov	ebp, esp
	sub	esp, 72					; 00000048H
	mov	DWORD PTR _this$[ebp], ecx

; 956  : 	int iCount;
; 957  : 
; 958  : 	TechTypes eTech;
; 959  : 	TeamTypes eTeam;
; 960  : 
; 961  : 	int iPossibleCount = 0;

	mov	DWORD PTR _iPossibleCount$[ebp], 0

; 962  : 
; 963  : 	// See how many majors are still around
; 964  : 	int iTeamLoop;
; 965  : 	for(iTeamLoop = 0; iTeamLoop < MAX_CIV_TEAMS; iTeamLoop++)

	mov	DWORD PTR _iTeamLoop$[ebp], 0
	jmp	SHORT $LN16@DoMinorCiv
$LN15@DoMinorCiv:
	mov	eax, DWORD PTR _iTeamLoop$[ebp]
	add	eax, 1
	mov	DWORD PTR _iTeamLoop$[ebp], eax
$LN16@DoMinorCiv:
	cmp	DWORD PTR _iTeamLoop$[ebp], 63		; 0000003fH
	jge	SHORT $LN14@DoMinorCiv

; 966  : 	{
; 967  : 		eTeam = (TeamTypes) iTeamLoop;

	mov	ecx, DWORD PTR _iTeamLoop$[ebp]
	mov	DWORD PTR _eTeam$[ebp], ecx

; 968  : 
; 969  : 		if(GET_TEAM(eTeam).isAlive())

	mov	edx, DWORD PTR _eTeam$[ebp]
	imul	edx, 2984				; 00000ba8H
	add	edx, DWORD PTR ?m_aTeams@CvTeam@@1PAV1@A ; CvTeam::m_aTeams
	mov	DWORD PTR $T232128[ebp], edx
	mov	eax, DWORD PTR $T232128[ebp]
	xor	ecx, ecx
	cmp	DWORD PTR [eax+12], 0
	setg	cl
	movzx	edx, cl
	test	edx, edx
	je	SHORT $LN13@DoMinorCiv

; 970  : 		{
; 971  : 			if(!GET_TEAM(eTeam).isMinorCiv())

	mov	eax, DWORD PTR _eTeam$[ebp]
	imul	eax, 2984				; 00000ba8H
	add	eax, DWORD PTR ?m_aTeams@CvTeam@@1PAV1@A ; CvTeam::m_aTeams
	mov	DWORD PTR $T232135[ebp], eax
	mov	ecx, DWORD PTR $T232135[ebp]
	call	?isMinorCiv@CvTeam@@QBE_NXZ		; CvTeam::isMinorCiv
	movzx	ecx, al
	test	ecx, ecx
	jne	SHORT $LN13@DoMinorCiv

; 972  : 			{
; 973  : 				iPossibleCount++;

	mov	edx, DWORD PTR _iPossibleCount$[ebp]
	add	edx, 1
	mov	DWORD PTR _iPossibleCount$[ebp], edx
$LN13@DoMinorCiv:

; 974  : 			}
; 975  : 		}
; 976  : 	}

	jmp	SHORT $LN15@DoMinorCiv
$LN14@DoMinorCiv:

; 977  : 
; 978  : 	CvAssertMsg(iPossibleCount > 0, "Zero possible players? Uhhh...");
; 979  : 
; 980  : 	// 40% of majors (rounded down) need the tech for the Minors to get it
; 981  : 	int iTechPercent = /*40*/ GC.getMINOR_CIV_TECH_PERCENT();

	mov	eax, DWORD PTR ?gGlobals@@3VCvGlobals@@A+7300
	mov	DWORD PTR _iTechPercent$[ebp], eax

; 982  : 	int iTeamsNeeded = max(1, iPossibleCount * iTechPercent / 100);

	mov	eax, DWORD PTR _iPossibleCount$[ebp]
	imul	eax, DWORD PTR _iTechPercent$[ebp]
	cdq
	mov	ecx, 100				; 00000064H
	idiv	ecx
	mov	DWORD PTR $T232123[ebp], eax
	mov	DWORD PTR $T232124[ebp], 1
	mov	edx, DWORD PTR $T232124[ebp]
	cmp	edx, DWORD PTR $T232123[ebp]
	jge	SHORT $LN29@DoMinorCiv
	lea	eax, DWORD PTR $T232123[ebp]
	mov	DWORD PTR tv79[ebp], eax
	jmp	SHORT $LN30@DoMinorCiv
$LN29@DoMinorCiv:
	lea	ecx, DWORD PTR $T232124[ebp]
	mov	DWORD PTR tv79[ebp], ecx
$LN30@DoMinorCiv:
	mov	edx, DWORD PTR tv79[ebp]
	mov	DWORD PTR $T232145[ebp], edx
	mov	eax, DWORD PTR $T232145[ebp]
	mov	ecx, DWORD PTR [eax]
	mov	DWORD PTR _iTeamsNeeded$[ebp], ecx

; 983  : 
; 984  : #ifdef AUI_WARNING_FIXES
; 985  : 	for (uint iTechLoop = 0; iTechLoop < GC.getNumTechInfos(); iTechLoop++)
; 986  : #else
; 987  : 	for(int iTechLoop = 0; iTechLoop < GC.getNumTechInfos(); iTechLoop++)

	mov	DWORD PTR _iTechLoop$222834[ebp], 0
	jmp	SHORT $LN11@DoMinorCiv
$LN10@DoMinorCiv:
	mov	edx, DWORD PTR _iTechLoop$222834[ebp]
	add	edx, 1
	mov	DWORD PTR _iTechLoop$222834[ebp], edx
$LN11@DoMinorCiv:
	mov	ecx, OFFSET ?gGlobals@@3VCvGlobals@@A	; gGlobals
	call	?getNumTechInfos@CvGlobals@@QAEHXZ	; CvGlobals::getNumTechInfos
	cmp	DWORD PTR _iTechLoop$222834[ebp], eax
	jge	$LN17@DoMinorCiv

; 988  : #endif
; 989  : 	{
; 990  : 		eTech = (TechTypes) iTechLoop;

	mov	eax, DWORD PTR _iTechLoop$222834[ebp]
	mov	DWORD PTR _eTech$[ebp], eax

; 991  : 
; 992  : 		if(!GetTeamTechs()->HasTech(eTech))

	mov	ecx, DWORD PTR _eTech$[ebp]
	push	ecx
	mov	ecx, DWORD PTR _this$[ebp]
	call	?GetTeamTechs@CvTeam@@QBEPAVCvTeamTechs@@XZ ; CvTeam::GetTeamTechs
	mov	ecx, eax
	call	?HasTech@CvTeamTechs@@QBE_NW4TechTypes@@@Z ; CvTeamTechs::HasTech
	movzx	edx, al
	test	edx, edx
	jne	$LN8@DoMinorCiv

; 993  : 		{
; 994  : 			iCount = 0;

	mov	DWORD PTR _iCount$[ebp], 0

; 995  : 
; 996  : 			for(iTeamLoop = 0; iTeamLoop < MAX_CIV_TEAMS; iTeamLoop++)

	mov	DWORD PTR _iTeamLoop$[ebp], 0
	jmp	SHORT $LN7@DoMinorCiv
$LN6@DoMinorCiv:
	mov	eax, DWORD PTR _iTeamLoop$[ebp]
	add	eax, 1
	mov	DWORD PTR _iTeamLoop$[ebp], eax
$LN7@DoMinorCiv:
	cmp	DWORD PTR _iTeamLoop$[ebp], 63		; 0000003fH
	jge	$LN5@DoMinorCiv

; 997  : 			{
; 998  : 				eTeam = (TeamTypes) iTeamLoop;

	mov	ecx, DWORD PTR _iTeamLoop$[ebp]
	mov	DWORD PTR _eTeam$[ebp], ecx

; 999  : 
; 1000 : 				if(GET_TEAM(eTeam).isAlive())

	mov	edx, DWORD PTR _eTeam$[ebp]
	imul	edx, 2984				; 00000ba8H
	add	edx, DWORD PTR ?m_aTeams@CvTeam@@1PAV1@A ; CvTeam::m_aTeams
	mov	DWORD PTR $T232151[ebp], edx
	mov	eax, DWORD PTR $T232151[ebp]
	xor	ecx, ecx
	cmp	DWORD PTR [eax+12], 0
	setg	cl
	movzx	edx, cl
	test	edx, edx
	je	SHORT $LN4@DoMinorCiv

; 1001 : 				{
; 1002 : 					// Only look at Majors
; 1003 : 					if(!GET_TEAM(eTeam).isMinorCiv())

	mov	eax, DWORD PTR _eTeam$[ebp]
	imul	eax, 2984				; 00000ba8H
	add	eax, DWORD PTR ?m_aTeams@CvTeam@@1PAV1@A ; CvTeam::m_aTeams
	mov	DWORD PTR $T232158[ebp], eax
	mov	ecx, DWORD PTR $T232158[ebp]
	call	?isMinorCiv@CvTeam@@QBE_NXZ		; CvTeam::isMinorCiv
	movzx	ecx, al
	test	ecx, ecx
	jne	SHORT $LN4@DoMinorCiv

; 1004 : 					{
; 1005 : 						if(GET_TEAM(eTeam).GetTeamTechs()->HasTech(eTech))

	mov	edx, DWORD PTR _eTeam$[ebp]
	imul	edx, 2984				; 00000ba8H
	add	edx, DWORD PTR ?m_aTeams@CvTeam@@1PAV1@A ; CvTeam::m_aTeams
	mov	DWORD PTR $T232162[ebp], edx
	mov	eax, DWORD PTR _eTech$[ebp]
	push	eax
	mov	ecx, DWORD PTR $T232162[ebp]
	call	?GetTeamTechs@CvTeam@@QBEPAVCvTeamTechs@@XZ ; CvTeam::GetTeamTechs
	mov	ecx, eax
	call	?HasTech@CvTeamTechs@@QBE_NW4TechTypes@@@Z ; CvTeamTechs::HasTech
	movzx	ecx, al
	test	ecx, ecx
	je	SHORT $LN4@DoMinorCiv

; 1006 : 						{
; 1007 : 							iCount++;

	mov	edx, DWORD PTR _iCount$[ebp]
	add	edx, 1
	mov	DWORD PTR _iCount$[ebp], edx
$LN4@DoMinorCiv:

; 1008 : 						}
; 1009 : 					}
; 1010 : 				}
; 1011 : 			}

	jmp	$LN6@DoMinorCiv
$LN5@DoMinorCiv:

; 1012 : 
; 1013 : 			// Do enough majors have this tech?
; 1014 : 			if(iCount >= iTeamsNeeded)

	mov	eax, DWORD PTR _iCount$[ebp]
	cmp	eax, DWORD PTR _iTeamsNeeded$[ebp]
	jl	SHORT $LN8@DoMinorCiv

; 1015 : 			{
; 1016 : 				setHasTech(eTech, true, getLeaderID(), false, false);

	push	0
	push	0
	mov	ecx, DWORD PTR _this$[ebp]
	call	?getLeaderID@CvTeam@@QBE?AW4PlayerTypes@@XZ ; CvTeam::getLeaderID
	push	eax
	push	1
	mov	ecx, DWORD PTR _eTech$[ebp]
	push	ecx
	mov	ecx, DWORD PTR _this$[ebp]
	call	?setHasTech@CvTeam@@QAEXW4TechTypes@@_NW4PlayerTypes@@11@Z ; CvTeam::setHasTech
$LN8@DoMinorCiv:

; 1017 : 			}
; 1018 : 		}

	jmp	$LN10@DoMinorCiv
$LN17@DoMinorCiv:

; 1019 : 	}
; 1020 : }

	mov	esp, ebp
	pop	ebp
	ret	0
?DoMinorCivTech@CvTeam@@QAEXXZ ENDP			; CvTeam::DoMinorCivTech
_TEXT	ENDS
PUBLIC	?updateYield@CvTeam@@QAEXXZ			; CvTeam::updateYield
EXTRN	?updateYield@CvPlayer@@QAEXXZ:PROC		; CvPlayer::updateYield
; Function compile flags: /Odtp
;	COMDAT ?updateYield@CvTeam@@QAEXXZ
_TEXT	SEGMENT
_this$ = -24						; size = 4
$T232190 = -20						; size = 4
$T232181 = -16						; size = 4
$T232177 = -9						; size = 1
$T232168 = -8						; size = 4
_iI$ = -4						; size = 4
?updateYield@CvTeam@@QAEXXZ PROC			; CvTeam::updateYield, COMDAT
; _this$ = ecx

; 1024 : {

	push	ebp
	mov	ebp, esp
	sub	esp, 24					; 00000018H
	mov	DWORD PTR _this$[ebp], ecx

; 1025 : 	int iI;
; 1026 : 
; 1027 : 	for(iI = 0; iI < MAX_PLAYERS; iI++)

	mov	DWORD PTR _iI$[ebp], 0
	jmp	SHORT $LN5@updateYiel
$LN4@updateYiel:
	mov	eax, DWORD PTR _iI$[ebp]
	add	eax, 1
	mov	DWORD PTR _iI$[ebp], eax
$LN5@updateYiel:
	cmp	DWORD PTR _iI$[ebp], 64			; 00000040H
	jge	SHORT $LN6@updateYiel

; 1028 : 	{
; 1029 : 		if(GET_PLAYER((PlayerTypes)iI).isAlive())

	mov	ecx, DWORD PTR _iI$[ebp]
	imul	ecx, 63236				; 0000f704H
	add	ecx, DWORD PTR ?m_aPlayers@CvPlayerAI@@1PAV1@A ; CvPlayerAI::m_aPlayers
	mov	DWORD PTR $T232168[ebp], ecx
	mov	edx, DWORD PTR $T232168[ebp]
	mov	al, BYTE PTR [edx+2256]
	mov	BYTE PTR $T232177[ebp], al
	movzx	ecx, BYTE PTR $T232177[ebp]
	test	ecx, ecx
	je	SHORT $LN2@updateYiel

; 1030 : 		{
; 1031 : 			if(GET_PLAYER((PlayerTypes)iI).getTeam() == GetID())

	mov	edx, DWORD PTR _iI$[ebp]
	imul	edx, 63236				; 0000f704H
	add	edx, DWORD PTR ?m_aPlayers@CvPlayerAI@@1PAV1@A ; CvPlayerAI::m_aPlayers
	mov	DWORD PTR $T232181[ebp], edx
	mov	eax, DWORD PTR $T232181[ebp]
	mov	ecx, DWORD PTR [eax+44]
	push	ecx
	call	?teamType@CvPreGame@@YA?AW4TeamTypes@@W4PlayerTypes@@@Z ; CvPreGame::teamType
	add	esp, 4
	mov	DWORD PTR $T232190[ebp], eax
	mov	ecx, DWORD PTR _this$[ebp]
	call	?GetID@CvTeam@@QBE?AW4TeamTypes@@XZ	; CvTeam::GetID
	cmp	DWORD PTR $T232190[ebp], eax
	jne	SHORT $LN2@updateYiel

; 1032 : 			{
; 1033 : 				GET_PLAYER((PlayerTypes)iI).updateYield();

	mov	ecx, DWORD PTR _iI$[ebp]
	imul	ecx, 63236				; 0000f704H
	add	ecx, DWORD PTR ?m_aPlayers@CvPlayerAI@@1PAV1@A ; CvPlayerAI::m_aPlayers
	call	?updateYield@CvPlayer@@QAEXXZ		; CvPlayer::updateYield
$LN2@updateYiel:

; 1034 : 			}
; 1035 : 		}

	jmp	SHORT $LN4@updateYiel
$LN6@updateYiel:

; 1036 : 	}
; 1037 : }

	mov	esp, ebp
	pop	ebp
	ret	0
?updateYield@CvTeam@@QAEXXZ ENDP			; CvTeam::updateYield
_TEXT	ENDS
PUBLIC	?canChangeWarPeace@CvTeam@@QBE_NW4TeamTypes@@@Z	; CvTeam::canChangeWarPeace
EXTRN	?isOption@CvGame@@QBE_NW4GameOptionTypes@@@Z:PROC ; CvGame::isOption
; Function compile flags: /Odtp
;	COMDAT ?canChangeWarPeace@CvTeam@@QBE_NW4TeamTypes@@@Z
_TEXT	SEGMENT
_this$ = -20						; size = 4
$T232211 = -16						; size = 4
$T232207 = -12						; size = 4
$T232203 = -8						; size = 4
$T232199 = -4						; size = 4
_eTeam$ = 8						; size = 4
?canChangeWarPeace@CvTeam@@QBE_NW4TeamTypes@@@Z PROC	; CvTeam::canChangeWarPeace, COMDAT
; _this$ = ecx

; 1041 : {

	push	ebp
	mov	ebp, esp
	sub	esp, 20					; 00000014H
	mov	DWORD PTR _this$[ebp], ecx

; 1042 : 	if(eTeam == NO_TEAM) return false;

	cmp	DWORD PTR _eTeam$[ebp], -1
	jne	SHORT $LN7@canChangeW
	xor	al, al
	jmp	$LN8@canChangeW
$LN7@canChangeW:

; 1043 : 
; 1044 : 	if(GC.getGame().isOption(GAMEOPTION_NO_CHANGING_WAR_PEACE))

	mov	eax, DWORD PTR ?gGlobals@@3VCvGlobals@@A+48
	mov	DWORD PTR $T232199[ebp], eax
	push	6
	mov	ecx, DWORD PTR $T232199[ebp]
	call	?isOption@CvGame@@QBE_NW4GameOptionTypes@@@Z ; CvGame::isOption
	movzx	ecx, al
	test	ecx, ecx
	je	SHORT $LN6@canChangeW

; 1045 : 	{
; 1046 : 		return false;

	xor	al, al
	jmp	$LN8@canChangeW
$LN6@canChangeW:

; 1047 : 	}
; 1048 : 
; 1049 : 	if(GC.getGame().isOption(GAMEOPTION_ALWAYS_PEACE))

	mov	edx, DWORD PTR ?gGlobals@@3VCvGlobals@@A+48
	mov	DWORD PTR $T232203[ebp], edx
	push	4
	mov	ecx, DWORD PTR $T232203[ebp]
	call	?isOption@CvGame@@QBE_NW4GameOptionTypes@@@Z ; CvGame::isOption
	movzx	eax, al
	test	eax, eax
	je	SHORT $LN5@canChangeW

; 1050 : 	{
; 1051 : 		return false;

	xor	al, al
	jmp	SHORT $LN8@canChangeW
$LN5@canChangeW:

; 1052 : 	}
; 1053 : 
; 1054 : 	if(GC.getGame().isOption(GAMEOPTION_ALWAYS_WAR))

	mov	ecx, DWORD PTR ?gGlobals@@3VCvGlobals@@A+48
	mov	DWORD PTR $T232207[ebp], ecx
	push	3
	mov	ecx, DWORD PTR $T232207[ebp]
	call	?isOption@CvGame@@QBE_NW4GameOptionTypes@@@Z ; CvGame::isOption
	movzx	edx, al
	test	edx, edx
	je	SHORT $LN4@canChangeW

; 1055 : 	{
; 1056 : 		return false;

	xor	al, al
	jmp	SHORT $LN8@canChangeW
$LN4@canChangeW:

; 1057 : 	}
; 1058 : 
; 1059 : 	if(eTeam == GetID())

	mov	ecx, DWORD PTR _this$[ebp]
	call	?GetID@CvTeam@@QBE?AW4TeamTypes@@XZ	; CvTeam::GetID
	cmp	DWORD PTR _eTeam$[ebp], eax
	jne	SHORT $LN3@canChangeW

; 1060 : 	{
; 1061 : 		return false;

	xor	al, al
	jmp	SHORT $LN8@canChangeW
$LN3@canChangeW:

; 1062 : 	}
; 1063 : 
; 1064 : 	if(isPermanentWarPeace(eTeam) || GET_TEAM(eTeam).isPermanentWarPeace(GetID()))

	mov	eax, DWORD PTR _eTeam$[ebp]
	push	eax
	mov	ecx, DWORD PTR _this$[ebp]
	call	?isPermanentWarPeace@CvTeam@@QBE_NW4TeamTypes@@@Z ; CvTeam::isPermanentWarPeace
	movzx	ecx, al
	test	ecx, ecx
	jne	SHORT $LN1@canChangeW
	mov	edx, DWORD PTR _eTeam$[ebp]
	imul	edx, 2984				; 00000ba8H
	add	edx, DWORD PTR ?m_aTeams@CvTeam@@1PAV1@A ; CvTeam::m_aTeams
	mov	DWORD PTR $T232211[ebp], edx
	mov	ecx, DWORD PTR _this$[ebp]
	call	?GetID@CvTeam@@QBE?AW4TeamTypes@@XZ	; CvTeam::GetID
	push	eax
	mov	ecx, DWORD PTR $T232211[ebp]
	call	?isPermanentWarPeace@CvTeam@@QBE_NW4TeamTypes@@@Z ; CvTeam::isPermanentWarPeace
	movzx	eax, al
	test	eax, eax
	je	SHORT $LN2@canChangeW
$LN1@canChangeW:

; 1065 : 	{
; 1066 : 		return false;

	xor	al, al
	jmp	SHORT $LN8@canChangeW
$LN2@canChangeW:

; 1067 : 	}
; 1068 : 
; 1069 : 	return true;

	mov	al, 1
$LN8@canChangeW:

; 1070 : }

	mov	esp, ebp
	pop	ebp
	ret	4
?canChangeWarPeace@CvTeam@@QBE_NW4TeamTypes@@@Z ENDP	; CvTeam::canChangeWarPeace
_TEXT	ENDS
PUBLIC	??_C@_0O@IKFANLMN@CanDeclareWar?$AA@		; `string'
PUBLIC	?isHuman@CvTeam@@QBE_NXZ			; CvTeam::isHuman
PUBLIC	??_C@_0BF@FAPEFALO@GAMEOPTION_AI_TWEAKS?$AA@	; `string'
PUBLIC	?canDeclareWar@CvTeam@@QBE_NW4TeamTypes@@@Z	; CvTeam::canDeclareWar
EXTRN	??1CvLuaArgsHandle@@QAE@XZ:PROC			; CvLuaArgsHandle::~CvLuaArgsHandle
EXTRN	?CallTestAll@LuaSupport@@YA_NPAVICvEngineScriptSystem1@@PBDPAVICvEngineScriptSystemArgs1@@AA_N@Z:PROC ; LuaSupport::CallTestAll
EXTRN	??0CvLuaArgsHandle@@QAE@I@Z:PROC		; CvLuaArgsHandle::CvLuaArgsHandle
EXTRN	?isOption@CvGame@@QBE_NPBD@Z:PROC		; CvGame::isOption
;	COMDAT ??_C@_0O@IKFANLMN@CanDeclareWar?$AA@
; File d:\sources\lekmod_git\checkout\lekmod_dll\cvgamecoredll_expansion2\lua\cvluaargshandle.h
CONST	SEGMENT
??_C@_0O@IKFANLMN@CanDeclareWar?$AA@ DB 'CanDeclareWar', 00H ; `string'
CONST	ENDS
;	COMDAT ??_C@_0BF@FAPEFALO@GAMEOPTION_AI_TWEAKS?$AA@
CONST	SEGMENT
??_C@_0BF@FAPEFALO@GAMEOPTION_AI_TWEAKS?$AA@ DB 'GAMEOPTION_AI_TWEAKS', 00H ; `string'
CONST	ENDS
;	COMDAT xdata$x
xdata$x	SEGMENT
__unwindtable$?canDeclareWar@CvTeam@@QBE_NW4TeamTypes@@@Z DD 0ffffffffH
	DD	FLAT:__unwindfunclet$?canDeclareWar@CvTeam@@QBE_NW4TeamTypes@@@Z$0
__ehfuncinfo$?canDeclareWar@CvTeam@@QBE_NW4TeamTypes@@@Z DD 019930522H
	DD	01H
	DD	FLAT:__unwindtable$?canDeclareWar@CvTeam@@QBE_NW4TeamTypes@@@Z
	DD	2 DUP(00H)
	DD	2 DUP(00H)
	DD	00H
	DD	01H
; Function compile flags: /Odtp
; File d:\sources\lekmod_git\checkout\lekmod_dll\cvgamecoredll_expansion2\cvteam.cpp
xdata$x	ENDS
;	COMDAT ?canDeclareWar@CvTeam@@QBE_NW4TeamTypes@@@Z
_TEXT	SEGMENT
tv184 = -64						; size = 4
tv175 = -60						; size = 4
tv163 = -56						; size = 4
_this$ = -52						; size = 4
$T232251 = -48						; size = 4
$T232241 = -44						; size = 4
$T232237 = -40						; size = 4
$T232233 = -36						; size = 4
$T232226 = -32						; size = 4
$T232219 = -28						; size = 4
$T232214 = -22						; size = 1
_bResult$222890 = -21					; size = 1
_args$222889 = -20					; size = 4
_pkScriptSystem$ = -16					; size = 4
__$EHRec$ = -12						; size = 12
_eTeam$ = 8						; size = 4
?canDeclareWar@CvTeam@@QBE_NW4TeamTypes@@@Z PROC	; CvTeam::canDeclareWar, COMDAT
; _this$ = ecx

; 1074 : {

	push	ebp
	mov	ebp, esp
	push	-1
	push	__ehhandler$?canDeclareWar@CvTeam@@QBE_NW4TeamTypes@@@Z
	mov	eax, DWORD PTR fs:0
	push	eax
	sub	esp, 52					; 00000034H
	mov	eax, DWORD PTR ___security_cookie
	xor	eax, ebp
	push	eax
	lea	eax, DWORD PTR __$EHRec$[ebp]
	mov	DWORD PTR fs:0, eax
	mov	DWORD PTR _this$[ebp], ecx

; 1075 : 	if(eTeam == GetID())

	mov	ecx, DWORD PTR _this$[ebp]
	call	?GetID@CvTeam@@QBE?AW4TeamTypes@@XZ	; CvTeam::GetID
	cmp	DWORD PTR _eTeam$[ebp], eax
	jne	SHORT $LN14@canDeclare

; 1076 : 	{
; 1077 : 		return false;

	xor	al, al
	jmp	$LN15@canDeclare
$LN14@canDeclare:

; 1078 : 	}
; 1079 : #ifdef AI_CANT_DECLARE_WAR
; 1080 : 	if(GC.getGame().isOption("GAMEOPTION_AI_TWEAKS"))

	mov	eax, DWORD PTR ?gGlobals@@3VCvGlobals@@A+48
	mov	DWORD PTR $T232219[ebp], eax
	push	OFFSET ??_C@_0BF@FAPEFALO@GAMEOPTION_AI_TWEAKS?$AA@
	mov	ecx, DWORD PTR $T232219[ebp]
	call	?isOption@CvGame@@QBE_NPBD@Z		; CvGame::isOption
	movzx	ecx, al
	test	ecx, ecx
	je	SHORT $LN20@canDeclare

; 1081 : 	{
; 1082 : 		if(!isHuman())

	mov	ecx, DWORD PTR _this$[ebp]
	call	?isHuman@CvTeam@@QBE_NXZ		; CvTeam::isHuman
	movzx	edx, al
	test	edx, edx
	jne	SHORT $LN20@canDeclare

; 1083 : 		{
; 1084 : 			return false;

	xor	al, al
	jmp	$LN15@canDeclare

; 1085 : 		}
; 1086 : 	}
; 1087 : #endif
; 1088 : 
; 1089 : 	if(!(isAlive()) || !(GET_TEAM(eTeam).isAlive()))

$LN20@canDeclare:
	mov	eax, DWORD PTR _this$[ebp]
	xor	ecx, ecx
	cmp	DWORD PTR [eax+12], 0
	setg	cl
	movzx	edx, cl
	test	edx, edx
	je	SHORT $LN10@canDeclare
	mov	eax, DWORD PTR _eTeam$[ebp]
	imul	eax, 2984				; 00000ba8H
	add	eax, DWORD PTR ?m_aTeams@CvTeam@@1PAV1@A ; CvTeam::m_aTeams
	mov	DWORD PTR $T232226[ebp], eax
	mov	ecx, DWORD PTR $T232226[ebp]
	xor	edx, edx
	cmp	DWORD PTR [ecx+12], 0
	setg	dl
	movzx	eax, dl
	test	eax, eax
	jne	SHORT $LN11@canDeclare
$LN10@canDeclare:

; 1090 : 	{
; 1091 : 		return false;

	xor	al, al
	jmp	$LN15@canDeclare
$LN11@canDeclare:

; 1092 : 	}
; 1093 : 
; 1094 : 	if(isAtWar(eTeam))

	mov	ecx, DWORD PTR _eTeam$[ebp]
	push	ecx
	mov	ecx, DWORD PTR _this$[ebp]
	call	?isAtWar@CvTeam@@QBE_NW4TeamTypes@@@Z	; CvTeam::isAtWar
	movzx	edx, al
	test	edx, edx
	je	SHORT $LN9@canDeclare

; 1095 : 	{
; 1096 : 		return false;

	xor	al, al
	jmp	$LN15@canDeclare
$LN9@canDeclare:

; 1097 : 	}
; 1098 : 
; 1099 : 	if(!isHasMet(eTeam))

	mov	eax, DWORD PTR _eTeam$[ebp]
	push	eax
	mov	ecx, DWORD PTR _this$[ebp]
	call	?isHasMet@CvTeam@@QBE_NW4TeamTypes@@@Z	; CvTeam::isHasMet
	movzx	ecx, al
	test	ecx, ecx
	jne	SHORT $LN8@canDeclare

; 1100 : 	{
; 1101 : 		return false;

	xor	al, al
	jmp	$LN15@canDeclare
$LN8@canDeclare:

; 1102 : 	}
; 1103 : 
; 1104 : 	if(isForcePeace(eTeam))

	mov	edx, DWORD PTR _eTeam$[ebp]
	push	edx
	mov	ecx, DWORD PTR _this$[ebp]
	call	?isForcePeace@CvTeam@@QBE_NW4TeamTypes@@@Z ; CvTeam::isForcePeace
	movzx	eax, al
	test	eax, eax
	je	SHORT $LN7@canDeclare

; 1105 : 	{
; 1106 : 		return false;

	xor	al, al
	jmp	$LN15@canDeclare
$LN7@canDeclare:

; 1107 : 	}
; 1108 : 
; 1109 : 	if(!canChangeWarPeace(eTeam))

	mov	ecx, DWORD PTR _eTeam$[ebp]
	push	ecx
	mov	ecx, DWORD PTR _this$[ebp]
	call	?canChangeWarPeace@CvTeam@@QBE_NW4TeamTypes@@@Z ; CvTeam::canChangeWarPeace
	movzx	edx, al
	test	edx, edx
	jne	SHORT $LN6@canDeclare

; 1110 : 	{
; 1111 : 		return false;

	xor	al, al
	jmp	$LN15@canDeclare
$LN6@canDeclare:

; 1112 : 	}
; 1113 : 
; 1114 : 	if(GC.getGame().isOption(GAMEOPTION_ALWAYS_PEACE))

	mov	eax, DWORD PTR ?gGlobals@@3VCvGlobals@@A+48
	mov	DWORD PTR $T232233[ebp], eax
	push	4
	mov	ecx, DWORD PTR $T232233[ebp]
	call	?isOption@CvGame@@QBE_NW4GameOptionTypes@@@Z ; CvGame::isOption
	movzx	ecx, al
	test	ecx, ecx
	je	SHORT $LN5@canDeclare

; 1115 : 	{
; 1116 : 		return false;

	xor	al, al
	jmp	$LN15@canDeclare
$LN5@canDeclare:

; 1117 : 	}
; 1118 : 
; 1119 : #ifdef NEW_DEFENSIVE_PACT
; 1120 : 	if(GET_TEAM(eTeam).IsHasDefensivePact(GetID()))

	mov	edx, DWORD PTR _eTeam$[ebp]
	imul	edx, 2984				; 00000ba8H
	add	edx, DWORD PTR ?m_aTeams@CvTeam@@1PAV1@A ; CvTeam::m_aTeams
	mov	DWORD PTR $T232237[ebp], edx
	mov	ecx, DWORD PTR _this$[ebp]
	call	?GetID@CvTeam@@QBE?AW4TeamTypes@@XZ	; CvTeam::GetID
	push	eax
	mov	ecx, DWORD PTR $T232237[ebp]
	call	?IsHasDefensivePact@CvTeam@@QBE_NW4TeamTypes@@@Z ; CvTeam::IsHasDefensivePact
	movzx	eax, al
	test	eax, eax
	je	SHORT $LN4@canDeclare

; 1121 : 	{
; 1122 : 		return false;

	xor	al, al
	jmp	$LN15@canDeclare
$LN4@canDeclare:

; 1123 : 	}
; 1124 : #endif
; 1125 : 
; 1126 : 	// First, obtain the Lua script system.
; 1127 : 	ICvEngineScriptSystem1* pkScriptSystem = gDLL->GetScriptSystem();

	mov	ecx, DWORD PTR $T232241[ebp]
	mov	DWORD PTR tv163[ebp], ecx
	mov	edx, DWORD PTR ?gGlobals@@3VCvGlobals@@A+8564
	mov	DWORD PTR tv163[ebp], edx
	mov	eax, DWORD PTR tv163[ebp]
	mov	edx, DWORD PTR [eax]
	mov	ecx, DWORD PTR tv163[ebp]
	mov	eax, DWORD PTR [edx+12]
	call	eax
	mov	DWORD PTR _pkScriptSystem$[ebp], eax

; 1128 : 	if(pkScriptSystem)

	cmp	DWORD PTR _pkScriptSystem$[ebp], 0
	je	$LN3@canDeclare

; 1129 : 	{
; 1130 : 		// Construct and push in some event arguments.
; 1131 : 		CvLuaArgsHandle args(2);

	push	2
	lea	ecx, DWORD PTR _args$222889[ebp]
	call	??0CvLuaArgsHandle@@QAE@I@Z		; CvLuaArgsHandle::CvLuaArgsHandle
	mov	DWORD PTR __$EHRec$[ebp+8], 0

; 1132 : 		args->Push(GetID());

	mov	ecx, DWORD PTR _args$222889[ebp]
	mov	DWORD PTR tv175[ebp], ecx
	mov	ecx, DWORD PTR _this$[ebp]
	call	?GetID@CvTeam@@QBE?AW4TeamTypes@@XZ	; CvTeam::GetID
	push	eax
	mov	edx, DWORD PTR tv175[ebp]
	mov	eax, DWORD PTR [edx]
	mov	ecx, DWORD PTR tv175[ebp]
	mov	edx, DWORD PTR [eax+8]
	call	edx

; 1133 : 		args->Push(eTeam);

	mov	eax, DWORD PTR _args$222889[ebp]
	mov	DWORD PTR tv184[ebp], eax
	mov	ecx, DWORD PTR _eTeam$[ebp]
	push	ecx
	mov	edx, DWORD PTR tv184[ebp]
	mov	eax, DWORD PTR [edx]
	mov	ecx, DWORD PTR tv184[ebp]
	mov	edx, DWORD PTR [eax+8]
	call	edx

; 1134 : 
; 1135 : 		// Attempt to execute the game events.
; 1136 : 		// Will return false if there are no registered listeners.
; 1137 : 		bool bResult = false;

	mov	BYTE PTR _bResult$222890[ebp], 0

; 1138 : 		if(LuaSupport::CallTestAll(pkScriptSystem, "CanDeclareWar", args.get(), bResult))

	mov	eax, DWORD PTR _args$222889[ebp]
	mov	DWORD PTR $T232251[ebp], eax
	lea	ecx, DWORD PTR _bResult$222890[ebp]
	push	ecx
	mov	edx, DWORD PTR $T232251[ebp]
	push	edx
	push	OFFSET ??_C@_0O@IKFANLMN@CanDeclareWar?$AA@
	mov	eax, DWORD PTR _pkScriptSystem$[ebp]
	push	eax
	call	?CallTestAll@LuaSupport@@YA_NPAVICvEngineScriptSystem1@@PBDPAVICvEngineScriptSystemArgs1@@AA_N@Z ; LuaSupport::CallTestAll
	add	esp, 16					; 00000010H
	movzx	ecx, al
	test	ecx, ecx
	je	SHORT $LN2@canDeclare

; 1139 : 		{
; 1140 : 			// Check the result.
; 1141 : 			if(bResult == false)

	movzx	edx, BYTE PTR _bResult$222890[ebp]
	test	edx, edx
	jne	SHORT $LN2@canDeclare

; 1142 : 			{
; 1143 : 				return false;

	mov	BYTE PTR $T232214[ebp], 0
	mov	DWORD PTR __$EHRec$[ebp+8], -1
	lea	ecx, DWORD PTR _args$222889[ebp]
	call	??1CvLuaArgsHandle@@QAE@XZ		; CvLuaArgsHandle::~CvLuaArgsHandle
	mov	al, BYTE PTR $T232214[ebp]
	jmp	SHORT $LN15@canDeclare
$LN2@canDeclare:

; 1144 : 			}
; 1145 : 		}
; 1146 : 	}

	mov	DWORD PTR __$EHRec$[ebp+8], -1
	lea	ecx, DWORD PTR _args$222889[ebp]
	call	??1CvLuaArgsHandle@@QAE@XZ		; CvLuaArgsHandle::~CvLuaArgsHandle
$LN3@canDeclare:

; 1147 : 
; 1148 : 	return true;

	mov	al, 1
$LN15@canDeclare:

; 1149 : }

	mov	ecx, DWORD PTR __$EHRec$[ebp]
	mov	DWORD PTR fs:0, ecx
	pop	ecx
	mov	esp, ebp
	pop	ebp
	ret	4
_TEXT	ENDS
;	COMDAT text$x
text$x	SEGMENT
__unwindfunclet$?canDeclareWar@CvTeam@@QBE_NW4TeamTypes@@@Z$0:
	lea	ecx, DWORD PTR _args$222889[ebp]
	jmp	??1CvLuaArgsHandle@@QAE@XZ		; CvLuaArgsHandle::~CvLuaArgsHandle
__ehhandler$?canDeclareWar@CvTeam@@QBE_NW4TeamTypes@@@Z:
	mov	edx, DWORD PTR [esp+8]
	lea	eax, DWORD PTR [edx+12]
	mov	ecx, DWORD PTR [edx-56]
	xor	ecx, eax
	call	@__security_check_cookie@4
	mov	eax, OFFSET __ehfuncinfo$?canDeclareWar@CvTeam@@QBE_NW4TeamTypes@@@Z
	jmp	___CxxFrameHandler3
text$x	ENDS
?canDeclareWar@CvTeam@@QBE_NW4TeamTypes@@@Z ENDP	; CvTeam::canDeclareWar
PUBLIC	?DoDeclareWar@CvTeam@@IAEXW4TeamTypes@@_N1@Z	; CvTeam::DoDeclareWar
EXTRN	?RefreshDangerPlots@CvPlayerManager@@SAXXZ:PROC	; CvPlayerManager::RefreshDangerPlots
; Function compile flags: /Odtp
;	COMDAT ?declareWar@CvTeam@@QAEXW4TeamTypes@@_N@Z
_TEXT	SEGMENT
_this$ = -4						; size = 4
_eTeam$ = 8						; size = 4
_bDefensivePact$ = 12					; size = 1
?declareWar@CvTeam@@QAEXW4TeamTypes@@_N@Z PROC		; CvTeam::declareWar, COMDAT
; _this$ = ecx

; 1153 : {

	push	ebp
	mov	ebp, esp
	push	ecx
	mov	DWORD PTR _this$[ebp], ecx

; 1154 : 	DoDeclareWar(eTeam, bDefensivePact);

	push	0
	movzx	eax, BYTE PTR _bDefensivePact$[ebp]
	push	eax
	mov	ecx, DWORD PTR _eTeam$[ebp]
	push	ecx
	mov	ecx, DWORD PTR _this$[ebp]
	call	?DoDeclareWar@CvTeam@@IAEXW4TeamTypes@@_N1@Z ; CvTeam::DoDeclareWar

; 1155 : 
; 1156 : 	CvPlayerManager::RefreshDangerPlots();

	call	?RefreshDangerPlots@CvPlayerManager@@SAXXZ ; CvPlayerManager::RefreshDangerPlots

; 1157 : }

	mov	esp, ebp
	pop	ebp
	ret	8
?declareWar@CvTeam@@QAEXW4TeamTypes@@_N@Z ENDP		; CvTeam::declareWar
_TEXT	ENDS
PUBLIC	?ChangeNumMinorCivsAttacked@CvTeam@@QAEXH@Z	; CvTeam::ChangeNumMinorCivsAttacked
PUBLIC	??_C@_00CNPNBAHC@?$AA@				; `string'
PUBLIC	??_C@_0CC@LCPDBBFO@TXT_KEY_MISC_SOMEONE_DECLARES_WA@ ; `string'
PUBLIC	??_C@_0CC@KMCACDHN@TXT_KEY_MISC_SOMEONE_DECLARED_WA@ ; `string'
PUBLIC	??_C@_0CB@IPLANLDM@TXT_KEY_MISC_DECLARED_WAR_ON_YOU@ ; `string'
PUBLIC	??$?6PBD@@YAAAVString@Localization@@AAV01@ABQBD@Z ; operator<<<char const *>
PUBLIC	??_C@_0CB@FEDIKDJG@TXT_KEY_MISC_YOU_DECLARED_WAR_ON@ ; `string'
PUBLIC	?SetHasBrokenPeaceTreaty@CvTeam@@QAEX_N@Z	; CvTeam::SetHasBrokenPeaceTreaty
PUBLIC	?GetTurnMadePeaceTreatyWithTeam@CvTeam@@QBEHW4TeamTypes@@@Z ; CvTeam::GetTurnMadePeaceTreatyWithTeam
PUBLIC	?DoNowAtWarOrPeace@CvTeam@@IAEXW4TeamTypes@@_N@Z ; CvTeam::DoNowAtWarOrPeace
PUBLIC	??_C@_0L@BPLCHNAB@DeclareWar?$AA@		; `string'
PUBLIC	?setAtWar@CvTeam@@QAEXW4TeamTypes@@_N@Z		; CvTeam::setAtWar
PUBLIC	?EvacuateDiplomatsAtTeam@CvTeam@@QAEXW4TeamTypes@@@Z ; CvTeam::EvacuateDiplomatsAtTeam
PUBLIC	?CancelResearchAgreement@CvTeam@@QAEXW4TeamTypes@@@Z ; CvTeam::CancelResearchAgreement
PUBLIC	?CloseEmbassyAtTeam@CvTeam@@QAEXW4TeamTypes@@@Z	; CvTeam::CloseEmbassyAtTeam
EXTRN	?DoTeamDeclaredWarOnMe@CvMinorCivAI@@QAEXW4TeamTypes@@@Z:PROC ; CvMinorCivAI::DoTeamDeclaredWarOnMe
EXTRN	?GetMinorCivAI@CvPlayer@@QBEPAVCvMinorCivAI@@XZ:PROC ; CvPlayer::GetMinorCivAI
EXTRN	?ChangeOtherPlayerNumMajorsAttacked@CvDiplomacyAI@@QAEXW4PlayerTypes@@HW4TeamTypes@@@Z:PROC ; CvDiplomacyAI::ChangeOtherPlayerNumMajorsAttacked
EXTRN	?ChangeOtherPlayerNumMinorsAttacked@CvDiplomacyAI@@QAEXW4PlayerTypes@@H@Z:PROC ; CvDiplomacyAI::ChangeOtherPlayerNumMinorsAttacked
EXTRN	?DoPlayerDeclaredWarOnSomeone@CvDiplomacyAI@@QAEXW4PlayerTypes@@W4TeamTypes@@@Z:PROC ; CvDiplomacyAI::DoPlayerDeclaredWarOnSomeone
EXTRN	__imp_??0?$basic_string@DU?$char_traits@D@std@@V?$allocator@D@2@@std@@QAE@PBD@Z:PROC
EXTRN	?Add@CvNotifications@@QAEHW4NotificationTypes@@PBD1HHHH@Z:PROC ; CvNotifications::Add
EXTRN	__imp_?toUTF8@String@Localization@@QAEPBDXZ:PROC
EXTRN	__imp_??4String@Localization@@QAEAAV01@ABV01@@Z:PROC
EXTRN	__imp_?Lookup@Localization@@YA?AVString@1@PBD@Z:PROC
EXTRN	?GetNotifications@CvPlayer@@QBEPAVCvNotifications@@XZ:PROC ; CvPlayer::GetNotifications
EXTRN	?isFinalInitialized@CvGame@@QBE_NXZ:PROC	; CvGame::isFinalInitialized
EXTRN	?getActiveTeam@CvGame@@QAE?AW4TeamTypes@@XZ:PROC ; CvGame::getActiveTeam
EXTRN	?getElapsedGameTurns@CvGame@@QBEHXZ:PROC	; CvGame::getElapsedGameTurns
EXTRN	?DoSomeoneDeclaredWarOnMe@CvDiplomacyAI@@QAEXW4TeamTypes@@@Z:PROC ; CvDiplomacyAI::DoSomeoneDeclaredWarOnMe
EXTRN	?CallHook@LuaSupport@@YA_NPAVICvEngineScriptSystem1@@PBDPAVICvEngineScriptSystemArgs1@@AA_N@Z:PROC ; LuaSupport::CallHook
EXTRN	??0CvLuaArgsHandle@@QAE@XZ:PROC			; CvLuaArgsHandle::CvLuaArgsHandle
EXTRN	?verifyUnitValidPlot@CvMap@@QAEXXZ:PROC		; CvMap::verifyUnitValidPlot
EXTRN	?DoCancelDealsBetweenTeams@CvGameDeals@@QAEXW4TeamTypes@@0@Z:PROC ; CvGameDeals::DoCancelDealsBetweenTeams
EXTRN	?GetGameDeals@CvGame@@QAEPAVCvGameDeals@@XZ:PROC ; CvGame::GetGameDeals
EXTRN	?ChangeNumCitiesLiberated@CvDiplomacyAI@@QAEXW4PlayerTypes@@H@Z:PROC ; CvDiplomacyAI::ChangeNumCitiesLiberated
EXTRN	?GetNumCitiesLiberated@CvDiplomacyAI@@QAEHW4PlayerTypes@@@Z:PROC ; CvDiplomacyAI::GetNumCitiesLiberated
EXTRN	?GetDiplomacyAI@CvPlayer@@QBEPAVCvDiplomacyAI@@XZ:PROC ; CvPlayer::GetDiplomacyAI
EXTRN	?InvalidateTradeBetweenTeams@CvGameTrade@@QAEXW4TeamTypes@@0@Z:PROC ; CvGameTrade::InvalidateTradeBetweenTeams
EXTRN	?CancelTradeBetweenTeams@CvGameTrade@@QAEXW4TeamTypes@@0_N@Z:PROC ; CvGameTrade::CancelTradeBetweenTeams
EXTRN	?DoAutoWarPlundering@CvGameTrade@@QAEXW4TeamTypes@@0@Z:PROC ; CvGameTrade::DoAutoWarPlundering
EXTRN	?GetGameTrade@CvGame@@QAEPAVCvGameTrade@@XZ:PROC ; CvGame::GetGameTrade
EXTRN	__imp_??1String@Localization@@UAE@XZ:PROC
EXTRN	__imp_??0String@Localization@@QAE@XZ:PROC
;	COMDAT ??_C@_00CNPNBAHC@?$AA@
; File d:\sources\lekmod_git\checkout\lekmod_dll\cvgamecoredll_expansion2\cvplayerai.h
CONST	SEGMENT
??_C@_00CNPNBAHC@?$AA@ DB 00H				; `string'
CONST	ENDS
;	COMDAT ??_C@_0CC@LCPDBBFO@TXT_KEY_MISC_SOMEONE_DECLARES_WA@
CONST	SEGMENT
??_C@_0CC@LCPDBBFO@TXT_KEY_MISC_SOMEONE_DECLARES_WA@ DB 'TXT_KEY_MISC_SOM'
	DB	'EONE_DECLARES_WAR', 00H			; `string'
CONST	ENDS
;	COMDAT ??_C@_0CC@KMCACDHN@TXT_KEY_MISC_SOMEONE_DECLARED_WA@
CONST	SEGMENT
??_C@_0CC@KMCACDHN@TXT_KEY_MISC_SOMEONE_DECLARED_WA@ DB 'TXT_KEY_MISC_SOM'
	DB	'EONE_DECLARED_WAR', 00H			; `string'
CONST	ENDS
;	COMDAT ??_C@_0CB@IPLANLDM@TXT_KEY_MISC_DECLARED_WAR_ON_YOU@
CONST	SEGMENT
??_C@_0CB@IPLANLDM@TXT_KEY_MISC_DECLARED_WAR_ON_YOU@ DB 'TXT_KEY_MISC_DEC'
	DB	'LARED_WAR_ON_YOU', 00H			; `string'
CONST	ENDS
;	COMDAT ??_C@_0CB@FEDIKDJG@TXT_KEY_MISC_YOU_DECLARED_WAR_ON@
CONST	SEGMENT
??_C@_0CB@FEDIKDJG@TXT_KEY_MISC_YOU_DECLARED_WAR_ON@ DB 'TXT_KEY_MISC_YOU'
	DB	'_DECLARED_WAR_ON', 00H			; `string'
CONST	ENDS
;	COMDAT ??_C@_0L@BPLCHNAB@DeclareWar?$AA@
CONST	SEGMENT
??_C@_0L@BPLCHNAB@DeclareWar?$AA@ DB 'DeclareWar', 00H	; `string'
CONST	ENDS
;	COMDAT xdata$x
xdata$x	SEGMENT
__ehfuncinfo$?DoDeclareWar@CvTeam@@IAEXW4TeamTypes@@_N1@Z DD 019930522H
	DD	0dH
	DD	FLAT:__unwindtable$?DoDeclareWar@CvTeam@@IAEXW4TeamTypes@@_N1@Z
	DD	2 DUP(00H)
	DD	2 DUP(00H)
	DD	00H
	DD	01H
__unwindtable$?DoDeclareWar@CvTeam@@IAEXW4TeamTypes@@_N1@Z DD 0ffffffffH
	DD	FLAT:__unwindfunclet$?DoDeclareWar@CvTeam@@IAEXW4TeamTypes@@_N1@Z$0
	DD	00H
	DD	FLAT:__unwindfunclet$?DoDeclareWar@CvTeam@@IAEXW4TeamTypes@@_N1@Z$1
	DD	00H
	DD	FLAT:__unwindfunclet$?DoDeclareWar@CvTeam@@IAEXW4TeamTypes@@_N1@Z$2
	DD	00H
	DD	FLAT:__unwindfunclet$?DoDeclareWar@CvTeam@@IAEXW4TeamTypes@@_N1@Z$3
	DD	00H
	DD	FLAT:__unwindfunclet$?DoDeclareWar@CvTeam@@IAEXW4TeamTypes@@_N1@Z$4
	DD	00H
	DD	FLAT:__unwindfunclet$?DoDeclareWar@CvTeam@@IAEXW4TeamTypes@@_N1@Z$5
	DD	00H
	DD	FLAT:__unwindfunclet$?DoDeclareWar@CvTeam@@IAEXW4TeamTypes@@_N1@Z$6
	DD	00H
	DD	FLAT:__unwindfunclet$?DoDeclareWar@CvTeam@@IAEXW4TeamTypes@@_N1@Z$7
	DD	07H
	DD	FLAT:__unwindfunclet$?DoDeclareWar@CvTeam@@IAEXW4TeamTypes@@_N1@Z$8
	DD	00H
	DD	FLAT:__unwindfunclet$?DoDeclareWar@CvTeam@@IAEXW4TeamTypes@@_N1@Z$9
	DD	00H
	DD	FLAT:__unwindfunclet$?DoDeclareWar@CvTeam@@IAEXW4TeamTypes@@_N1@Z$10
	DD	0aH
	DD	FLAT:__unwindfunclet$?DoDeclareWar@CvTeam@@IAEXW4TeamTypes@@_N1@Z$11
	DD	00H
	DD	FLAT:__unwindfunclet$?DoDeclareWar@CvTeam@@IAEXW4TeamTypes@@_N1@Z$12
; Function compile flags: /Odtp
; File d:\sources\lekmod_git\checkout\lekmod_dll\cvgamecoredll_expansion2\cvteam.cpp
xdata$x	ENDS
;	COMDAT ?DoDeclareWar@CvTeam@@IAEXW4TeamTypes@@_N1@Z
_TEXT	SEGMENT
tv1005 = -1064						; size = 4
tv1054 = -1060						; size = 4
tv1053 = -1056						; size = 4
tv848 = -1052						; size = 4
tv1052 = -1048						; size = 4
tv1051 = -1044						; size = 4
tv1050 = -1040						; size = 4
tv842 = -1036						; size = 4
tv1049 = -1032						; size = 4
tv822 = -1028						; size = 4
tv838 = -1024						; size = 4
tv1003 = -1020						; size = 4
tv469 = -1016						; size = 4
tv65 = -1012						; size = 4
tv834 = -1008						; size = 4
tv263 = -1004						; size = 4
tv384 = -1000						; size = 4
tv372 = -996						; size = 4
tv277 = -992						; size = 4
tv268 = -988						; size = 4
tv257 = -984						; size = 4
_this$ = -980						; size = 4
$T232716 = -976						; size = 4
$T232712 = -969						; size = 1
$T232703 = -968						; size = 4
$T232691 = -964						; size = 4
$T232687 = -960						; size = 4
$T232683 = -956						; size = 4
$T232679 = -952						; size = 4
$T232675 = -948						; size = 4
$T232671 = -944						; size = 4
$T232667 = -940						; size = 4
$T232658 = -936						; size = 4
$T232654 = -932						; size = 4
$T232645 = -928						; size = 4
$T232641 = -921						; size = 1
$T232632 = -920						; size = 4
$T232628 = -916						; size = 4
$T232619 = -912						; size = 4
$T232611 = -908						; size = 4
$T232607 = -904						; size = 4
$T232590 = -900						; size = 4
$T232586 = -896						; size = 4
$T232582 = -892						; size = 4
$T232578 = -888						; size = 4
$T232566 = -884						; size = 4
$T232562 = -880						; size = 4
$T232558 = -876						; size = 4
$T232554 = -872						; size = 4
$T232550 = -868						; size = 4
$T232541 = -864						; size = 4
$T232537 = -860						; size = 4
$T232533 = -856						; size = 4
$T232524 = -852						; size = 4
$T232520 = -848						; size = 4
$T232512 = -844						; size = 4
$T232500 = -840						; size = 4
$T232496 = -836						; size = 4
$T232492 = -832						; size = 4
$T232484 = -828						; size = 4
$T232480 = -824						; size = 4
$T232476 = -820						; size = 4
$T232472 = -816						; size = 4
$T232463 = -812						; size = 4
$T232459 = -808						; size = 4
$T232455 = -801						; size = 1
$T232446 = -800						; size = 4
$T232442 = -796						; size = 4
$T232438 = -792						; size = 4
$T232434 = -788						; size = 4
$T232430 = -784						; size = 4
$T232426 = -780						; size = 4
$T232422 = -776						; size = 4
$T232418 = -772						; size = 4
$T232414 = -768						; size = 4
$T232410 = -764						; size = 4
$T232398 = -757						; size = 1
$T232386 = -756						; size = 4
$T232373 = -752						; size = 4
$T232369 = -748						; size = 4
$T232365 = -744						; size = 4
$T232352 = -740						; size = 4
$T232340 = -733						; size = 1
$T232328 = -732						; size = 4
$T232319 = -725						; size = 1
$T232307 = -724						; size = 4
$T232303 = -720						; size = 4
$T232299 = -716						; size = 4
$T232295 = -712						; size = 4
$T232278 = -708						; size = 28
$T232277 = -680						; size = 28
$T232276 = -652						; size = 4
$T232275 = -648						; size = 28
$T232274 = -620						; size = 4
$T232273 = -616						; size = 80
$T232272 = -536						; size = 28
$T232271 = -508						; size = 4
$T232270 = -504						; size = 28
$T232269 = -476						; size = 4
$T232268 = -472						; size = 80
$T232267 = -392						; size = 28
$T232266 = -364						; size = 4
$T232265 = -360						; size = 80
$T232264 = -280						; size = 28
$T232263 = -252						; size = 4
$T232262 = -248						; size = 80
_iMajorCivLoop2$222994 = -168				; size = 4
_ePlayer$222951 = -164					; size = 4
_iTurnsSincePeace$222945 = -160				; size = 4
_iPeaceTreatyTurn$222943 = -156				; size = 4
_kPlayer$222939 = -152					; size = 4
_bResult$222933 = -145					; size = 1
_args$222932 = -144					; size = 4
_iNumCitiesLiberated$222928 = -140			; size = 4
_eDefendingPlayer$222924 = -136				; size = 4
_kDefendingPlayer$222926 = -132				; size = 4
_iDefendingPlayer$222920 = -128				; size = 4
_kAttackingPlayer$222918 = -124				; size = 4
_eAttackingPlayer$222916 = -120				; size = 4
_iAttackingPlayer$222912 = -116				; size = 4
_iMinorCivLoop$ = -112					; size = 4
_locString$ = -108					; size = 80
_iI$ = -24						; size = 4
_pkScriptSystem$ = -20					; size = 4
_iMajorCivLoop$ = -16					; size = 4
__$EHRec$ = -12						; size = 12
_eTeam$ = 8						; size = 4
_bDefensivePact$ = 12					; size = 1
_bMinorAllyPact$ = 16					; size = 1
?DoDeclareWar@CvTeam@@IAEXW4TeamTypes@@_N1@Z PROC	; CvTeam::DoDeclareWar, COMDAT
; _this$ = ecx

; 1161 : {

	push	ebp
	mov	ebp, esp
	push	-1
	push	__ehhandler$?DoDeclareWar@CvTeam@@IAEXW4TeamTypes@@_N1@Z
	mov	eax, DWORD PTR fs:0
	push	eax
	sub	esp, 1052				; 0000041cH
	push	esi
	mov	eax, DWORD PTR ___security_cookie
	xor	eax, ebp
	push	eax
	lea	eax, DWORD PTR __$EHRec$[ebp]
	mov	DWORD PTR fs:0, eax
	mov	DWORD PTR _this$[ebp], ecx

; 1162 : 	Localization::String locString;

	lea	ecx, DWORD PTR _locString$[ebp]
	call	DWORD PTR __imp_??0String@Localization@@QAE@XZ
	mov	DWORD PTR __$EHRec$[ebp+8], 0

; 1163 : 	int iI;
; 1164 : 
; 1165 : 	CvAssertMsg(eTeam != NO_TEAM, "eTeam is not assigned a valid value");
; 1166 : 	CvAssertMsg(eTeam != GetID(), "eTeam is not expected to be equal with GetID()");
; 1167 : 
; 1168 : 	if (isAtWar(eTeam))

	mov	eax, DWORD PTR _eTeam$[ebp]
	push	eax
	mov	ecx, DWORD PTR _this$[ebp]
	call	?isAtWar@CvTeam@@QBE_NW4TeamTypes@@@Z	; CvTeam::isAtWar
	movzx	ecx, al
	test	ecx, ecx
	je	SHORT $LN58@DoDeclareW

; 1169 : 	{
; 1170 : 		return;

	mov	DWORD PTR __$EHRec$[ebp+8], -1
	lea	ecx, DWORD PTR _locString$[ebp]
	call	DWORD PTR __imp_??1String@Localization@@UAE@XZ
	jmp	$LN59@DoDeclareW
$LN58@DoDeclareW:

; 1171 : 	}
; 1172 : 
; 1173 : 	CvAssertMsg(eTeam != GetID(), "eTeam is not expected to be equal with GetID()");
; 1174 : 	if (!isBarbarian())

	mov	ecx, DWORD PTR _this$[ebp]
	call	?isBarbarian@CvTeam@@QBE_NXZ		; CvTeam::isBarbarian
	movzx	edx, al
	test	edx, edx
	jne	$LN57@DoDeclareW

; 1175 : 	{
; 1176 : 		// Since we declared war, all of OUR Defensive Pacts are nullified
; 1177 : 
; 1178 : 		
; 1179 : #ifndef NEW_DEFENSIVE_PACT //EAP: DP is now a peace treaty
; 1180 : 		cancelDefensivePacts();
; 1181 : #endif
; 1182 : 		GC.getGame().GetGameTrade()->DoAutoWarPlundering(m_eID, eTeam);

	mov	eax, DWORD PTR ?gGlobals@@3VCvGlobals@@A+48
	mov	DWORD PTR $T232295[ebp], eax
	mov	ecx, DWORD PTR _eTeam$[ebp]
	push	ecx
	mov	edx, DWORD PTR _this$[ebp]
	mov	eax, DWORD PTR [edx+4]
	push	eax
	mov	ecx, DWORD PTR $T232295[ebp]
	call	?GetGameTrade@CvGame@@QAEPAVCvGameTrade@@XZ ; CvGame::GetGameTrade
	mov	ecx, eax
	call	?DoAutoWarPlundering@CvGameTrade@@QAEXW4TeamTypes@@0@Z ; CvGameTrade::DoAutoWarPlundering

; 1183 : #ifdef NQM_TEAM_TRADE_ROUTES_CANCELLED_NOT_DESTROYED_FOR_WAR_DEFENDER_ON_DOW
; 1184 : 		if (bDefensivePact)

	movzx	ecx, BYTE PTR _bDefensivePact$[ebp]
	test	ecx, ecx
	je	SHORT $LN56@DoDeclareW

; 1185 : 		{
; 1186 : 			GC.getGame().GetGameTrade()->CancelTradeBetweenTeams(m_eID, eTeam, true);

	mov	edx, DWORD PTR ?gGlobals@@3VCvGlobals@@A+48
	mov	DWORD PTR $T232299[ebp], edx
	push	1
	mov	eax, DWORD PTR _eTeam$[ebp]
	push	eax
	mov	ecx, DWORD PTR _this$[ebp]
	mov	edx, DWORD PTR [ecx+4]
	push	edx
	mov	ecx, DWORD PTR $T232299[ebp]
	call	?GetGameTrade@CvGame@@QAEPAVCvGameTrade@@XZ ; CvGame::GetGameTrade
	mov	ecx, eax
	call	?CancelTradeBetweenTeams@CvGameTrade@@QAEXW4TeamTypes@@0_N@Z ; CvGameTrade::CancelTradeBetweenTeams

; 1187 : 		}
; 1188 : 		else

	jmp	$LN57@DoDeclareW
$LN56@DoDeclareW:

; 1189 : 		{
; 1190 : 			// Returns units for cancelled trade routes to the defender
; 1191 : 			GC.getGame().GetGameTrade()->InvalidateTradeBetweenTeams(eTeam, m_eID);

	mov	eax, DWORD PTR ?gGlobals@@3VCvGlobals@@A+48
	mov	DWORD PTR $T232303[ebp], eax
	mov	ecx, DWORD PTR _this$[ebp]
	mov	edx, DWORD PTR [ecx+4]
	push	edx
	mov	eax, DWORD PTR _eTeam$[ebp]
	push	eax
	mov	ecx, DWORD PTR $T232303[ebp]
	call	?GetGameTrade@CvGame@@QAEPAVCvGameTrade@@XZ ; CvGame::GetGameTrade
	mov	ecx, eax
	call	?InvalidateTradeBetweenTeams@CvGameTrade@@QAEXW4TeamTypes@@0@Z ; CvGameTrade::InvalidateTradeBetweenTeams

; 1192 : 			// Destroys attackers' units for cancelled trade routes
; 1193 : 			GC.getGame().GetGameTrade()->CancelTradeBetweenTeams(m_eID, eTeam);

	mov	ecx, DWORD PTR ?gGlobals@@3VCvGlobals@@A+48
	mov	DWORD PTR $T232307[ebp], ecx
	push	0
	mov	edx, DWORD PTR _eTeam$[ebp]
	push	edx
	mov	eax, DWORD PTR _this$[ebp]
	mov	ecx, DWORD PTR [eax+4]
	push	ecx
	mov	ecx, DWORD PTR $T232307[ebp]
	call	?GetGameTrade@CvGame@@QAEPAVCvGameTrade@@XZ ; CvGame::GetGameTrade
	mov	ecx, eax
	call	?CancelTradeBetweenTeams@CvGameTrade@@QAEXW4TeamTypes@@0_N@Z ; CvGameTrade::CancelTradeBetweenTeams

; 1194 : #else
; 1195 : 		GC.getGame().GetGameTrade()->CancelTradeBetweenTeams(m_eID, eTeam);
; 1196 : 
; 1197 : 		if (!bDefensivePact)
; 1198 : 		{
; 1199 : #endif
; 1200 : 			for (int iAttackingPlayer = 0; iAttackingPlayer < MAX_MAJOR_CIVS; iAttackingPlayer++)

	mov	DWORD PTR _iAttackingPlayer$222912[ebp], 0
	jmp	SHORT $LN54@DoDeclareW
$LN53@DoDeclareW:
	mov	edx, DWORD PTR _iAttackingPlayer$222912[ebp]
	add	edx, 1
	mov	DWORD PTR _iAttackingPlayer$222912[ebp], edx
$LN54@DoDeclareW:
	cmp	DWORD PTR _iAttackingPlayer$222912[ebp], 22 ; 00000016H
	jge	$LN57@DoDeclareW

; 1201 : 			{
; 1202 : 				PlayerTypes eAttackingPlayer = (PlayerTypes)iAttackingPlayer;

	mov	eax, DWORD PTR _iAttackingPlayer$222912[ebp]
	mov	DWORD PTR _eAttackingPlayer$222916[ebp], eax

; 1203 : 				CvPlayerAI& kAttackingPlayer = GET_PLAYER(eAttackingPlayer);

	mov	ecx, DWORD PTR _eAttackingPlayer$222916[ebp]
	imul	ecx, 63236				; 0000f704H
	add	ecx, DWORD PTR ?m_aPlayers@CvPlayerAI@@1PAV1@A ; CvPlayerAI::m_aPlayers
	mov	DWORD PTR _kAttackingPlayer$222918[ebp], ecx

; 1204 : 				if (kAttackingPlayer.isAlive() && kAttackingPlayer.getTeam() == GetID())

	mov	edx, DWORD PTR _kAttackingPlayer$222918[ebp]
	mov	al, BYTE PTR [edx+2256]
	mov	BYTE PTR $T232319[ebp], al
	movzx	ecx, BYTE PTR $T232319[ebp]
	test	ecx, ecx
	je	$LN51@DoDeclareW
	mov	edx, DWORD PTR _kAttackingPlayer$222918[ebp]
	mov	eax, DWORD PTR [edx+44]
	push	eax
	call	?teamType@CvPreGame@@YA?AW4TeamTypes@@W4PlayerTypes@@@Z ; CvPreGame::teamType
	add	esp, 4
	mov	DWORD PTR $T232328[ebp], eax
	mov	ecx, DWORD PTR _this$[ebp]
	call	?GetID@CvTeam@@QBE?AW4TeamTypes@@XZ	; CvTeam::GetID
	cmp	DWORD PTR $T232328[ebp], eax
	jne	$LN51@DoDeclareW

; 1205 : 				{
; 1206 : 					for (int iDefendingPlayer = 0; iDefendingPlayer < MAX_MAJOR_CIVS; iDefendingPlayer++)

	mov	DWORD PTR _iDefendingPlayer$222920[ebp], 0
	jmp	SHORT $LN50@DoDeclareW
$LN49@DoDeclareW:
	mov	ecx, DWORD PTR _iDefendingPlayer$222920[ebp]
	add	ecx, 1
	mov	DWORD PTR _iDefendingPlayer$222920[ebp], ecx
$LN50@DoDeclareW:
	cmp	DWORD PTR _iDefendingPlayer$222920[ebp], 22 ; 00000016H
	jge	$LN51@DoDeclareW

; 1207 : 					{
; 1208 : 						PlayerTypes eDefendingPlayer = (PlayerTypes)iDefendingPlayer;

	mov	edx, DWORD PTR _iDefendingPlayer$222920[ebp]
	mov	DWORD PTR _eDefendingPlayer$222924[ebp], edx

; 1209 : 						CvPlayerAI& kDefendingPlayer = GET_PLAYER(eDefendingPlayer);

	mov	eax, DWORD PTR _eDefendingPlayer$222924[ebp]
	imul	eax, 63236				; 0000f704H
	add	eax, DWORD PTR ?m_aPlayers@CvPlayerAI@@1PAV1@A ; CvPlayerAI::m_aPlayers
	mov	DWORD PTR _kDefendingPlayer$222926[ebp], eax

; 1210 : 						if (kDefendingPlayer.isAlive() && kDefendingPlayer.getTeam() == eTeam)

	mov	ecx, DWORD PTR _kDefendingPlayer$222926[ebp]
	mov	dl, BYTE PTR [ecx+2256]
	mov	BYTE PTR $T232340[ebp], dl
	movzx	eax, BYTE PTR $T232340[ebp]
	test	eax, eax
	je	SHORT $LN47@DoDeclareW
	mov	ecx, DWORD PTR _kDefendingPlayer$222926[ebp]
	mov	edx, DWORD PTR [ecx+44]
	push	edx
	call	?teamType@CvPreGame@@YA?AW4TeamTypes@@W4PlayerTypes@@@Z ; CvPreGame::teamType
	add	esp, 4
	cmp	eax, DWORD PTR _eTeam$[ebp]
	jne	SHORT $LN47@DoDeclareW

; 1211 : 						{
; 1212 : 							// Forget any of that liberation crud!
; 1213 : 							int iNumCitiesLiberated = kDefendingPlayer.GetDiplomacyAI()->GetNumCitiesLiberated(eAttackingPlayer);

	mov	eax, DWORD PTR _eAttackingPlayer$222916[ebp]
	push	eax
	mov	ecx, DWORD PTR _kDefendingPlayer$222926[ebp]
	call	?GetDiplomacyAI@CvPlayer@@QBEPAVCvDiplomacyAI@@XZ ; CvPlayer::GetDiplomacyAI
	mov	ecx, eax
	call	?GetNumCitiesLiberated@CvDiplomacyAI@@QAEHW4PlayerTypes@@@Z ; CvDiplomacyAI::GetNumCitiesLiberated
	mov	DWORD PTR _iNumCitiesLiberated$222928[ebp], eax

; 1214 : 							kDefendingPlayer.GetDiplomacyAI()->ChangeNumCitiesLiberated(eAttackingPlayer, -iNumCitiesLiberated);

	mov	ecx, DWORD PTR _iNumCitiesLiberated$222928[ebp]
	neg	ecx
	push	ecx
	mov	edx, DWORD PTR _eAttackingPlayer$222916[ebp]
	push	edx
	mov	ecx, DWORD PTR _kDefendingPlayer$222926[ebp]
	call	?GetDiplomacyAI@CvPlayer@@QBEPAVCvDiplomacyAI@@XZ ; CvPlayer::GetDiplomacyAI
	mov	ecx, eax
	call	?ChangeNumCitiesLiberated@CvDiplomacyAI@@QAEXW4PlayerTypes@@H@Z ; CvDiplomacyAI::ChangeNumCitiesLiberated
$LN47@DoDeclareW:

; 1215 : 						}
; 1216 : 					}

	jmp	$LN49@DoDeclareW
$LN51@DoDeclareW:

; 1217 : 				}
; 1218 : 			}

	jmp	$LN53@DoDeclareW
$LN57@DoDeclareW:

; 1219 : 		}
; 1220 : 
; 1221 : #ifndef NEW_DEFENSIVE_PACT // EAP: Defensive Pact is now a peace treaty
; 1222 : 		// Auto War for Defensive Pacts
; 1223 : 		for (iI = 0; iI < MAX_TEAMS; iI++)
; 1224 : 		{
; 1225 : 			if (GET_TEAM((TeamTypes)iI).isAlive())
; 1226 : 			{
; 1227 : 				if (GET_TEAM((TeamTypes)iI).IsHasDefensivePact(eTeam))
; 1228 : 				{
; 1229 : 					GET_TEAM((TeamTypes)iI).DoDeclareWar(GetID(), /*bDefensivePact*/ true);
; 1230 : 				}
; 1231 : 			}
; 1232 : 		}
; 1233 : #endif
; 1234 : 	}
; 1235 : 
; 1236 : 	// Cancel Trade Deals, RAs, diplomats
; 1237 : 	if (!isBarbarian())

	mov	ecx, DWORD PTR _this$[ebp]
	call	?isBarbarian@CvTeam@@QBE_NXZ		; CvTeam::isBarbarian
	movzx	eax, al
	test	eax, eax
	jne	$LN46@DoDeclareW

; 1238 : 	{
; 1239 : #ifdef AUI_YIELDS_APPLIED_AFTER_TURN_NOT_BEFORE
; 1240 : 		// Because second team is the "to" team, so cancel all of their deals to this team first
; 1241 : 		GC.getGame().GetGameDeals()->DoCancelDealsBetweenTeams(eTeam, GetID());
; 1242 : #else
; 1243 : 		GC.getGame().GetGameDeals()->DoCancelDealsBetweenTeams(GetID(), eTeam);

	mov	ecx, DWORD PTR ?gGlobals@@3VCvGlobals@@A+48
	mov	DWORD PTR $T232352[ebp], ecx
	mov	edx, DWORD PTR _eTeam$[ebp]
	push	edx
	mov	ecx, DWORD PTR _this$[ebp]
	call	?GetID@CvTeam@@QBE?AW4TeamTypes@@XZ	; CvTeam::GetID
	push	eax
	mov	ecx, DWORD PTR $T232352[ebp]
	call	?GetGameDeals@CvGame@@QAEPAVCvGameDeals@@XZ ; CvGame::GetGameDeals
	mov	ecx, eax
	call	?DoCancelDealsBetweenTeams@CvGameDeals@@QAEXW4TeamTypes@@0@Z ; CvGameDeals::DoCancelDealsBetweenTeams

; 1244 : #endif
; 1245 : 		CloseEmbassyAtTeam(eTeam);

	mov	eax, DWORD PTR _eTeam$[ebp]
	push	eax
	mov	ecx, DWORD PTR _this$[ebp]
	call	?CloseEmbassyAtTeam@CvTeam@@QAEXW4TeamTypes@@@Z ; CvTeam::CloseEmbassyAtTeam

; 1246 : 		GET_TEAM(eTeam).CloseEmbassyAtTeam(m_eID);

	mov	ecx, DWORD PTR _this$[ebp]
	mov	edx, DWORD PTR [ecx+4]
	push	edx
	mov	ecx, DWORD PTR _eTeam$[ebp]
	imul	ecx, 2984				; 00000ba8H
	add	ecx, DWORD PTR ?m_aTeams@CvTeam@@1PAV1@A ; CvTeam::m_aTeams
	call	?CloseEmbassyAtTeam@CvTeam@@QAEXW4TeamTypes@@@Z ; CvTeam::CloseEmbassyAtTeam

; 1247 : 		CancelResearchAgreement(eTeam);

	mov	eax, DWORD PTR _eTeam$[ebp]
	push	eax
	mov	ecx, DWORD PTR _this$[ebp]
	call	?CancelResearchAgreement@CvTeam@@QAEXW4TeamTypes@@@Z ; CvTeam::CancelResearchAgreement

; 1248 : 		GET_TEAM(eTeam).CancelResearchAgreement(m_eID);

	mov	ecx, DWORD PTR _this$[ebp]
	mov	edx, DWORD PTR [ecx+4]
	push	edx
	mov	ecx, DWORD PTR _eTeam$[ebp]
	imul	ecx, 2984				; 00000ba8H
	add	ecx, DWORD PTR ?m_aTeams@CvTeam@@1PAV1@A ; CvTeam::m_aTeams
	call	?CancelResearchAgreement@CvTeam@@QAEXW4TeamTypes@@@Z ; CvTeam::CancelResearchAgreement

; 1249 : 		EvacuateDiplomatsAtTeam(eTeam);

	mov	eax, DWORD PTR _eTeam$[ebp]
	push	eax
	mov	ecx, DWORD PTR _this$[ebp]
	call	?EvacuateDiplomatsAtTeam@CvTeam@@QAEXW4TeamTypes@@@Z ; CvTeam::EvacuateDiplomatsAtTeam

; 1250 : 		GET_TEAM(eTeam).EvacuateDiplomatsAtTeam(m_eID);

	mov	ecx, DWORD PTR _this$[ebp]
	mov	edx, DWORD PTR [ecx+4]
	push	edx
	mov	ecx, DWORD PTR _eTeam$[ebp]
	imul	ecx, 2984				; 00000ba8H
	add	ecx, DWORD PTR ?m_aTeams@CvTeam@@1PAV1@A ; CvTeam::m_aTeams
	call	?EvacuateDiplomatsAtTeam@CvTeam@@QAEXW4TeamTypes@@@Z ; CvTeam::EvacuateDiplomatsAtTeam
$LN46@DoDeclareW:

; 1251 : 	}
; 1252 : 
; 1253 : 	// Bump Units out of places they shouldn't be
; 1254 : 	GC.getMap().verifyUnitValidPlot();

	mov	eax, DWORD PTR ?gGlobals@@3VCvGlobals@@A+52
	mov	DWORD PTR $T232365[ebp], eax
	mov	ecx, DWORD PTR $T232365[ebp]
	call	?verifyUnitValidPlot@CvMap@@QAEXXZ	; CvMap::verifyUnitValidPlot

; 1255 : 
; 1256 : 	setAtWar(eTeam, true);

	push	1
	mov	ecx, DWORD PTR _eTeam$[ebp]
	push	ecx
	mov	ecx, DWORD PTR _this$[ebp]
	call	?setAtWar@CvTeam@@QAEXW4TeamTypes@@_N@Z	; CvTeam::setAtWar

; 1257 : 	GET_TEAM(eTeam).setAtWar(GetID(), true);

	mov	edx, DWORD PTR _eTeam$[ebp]
	imul	edx, 2984				; 00000ba8H
	add	edx, DWORD PTR ?m_aTeams@CvTeam@@1PAV1@A ; CvTeam::m_aTeams
	mov	DWORD PTR $T232369[ebp], edx
	push	1
	mov	ecx, DWORD PTR _this$[ebp]
	call	?GetID@CvTeam@@QBE?AW4TeamTypes@@XZ	; CvTeam::GetID
	push	eax
	mov	ecx, DWORD PTR $T232369[ebp]
	call	?setAtWar@CvTeam@@QAEXW4TeamTypes@@_N@Z	; CvTeam::setAtWar

; 1258 : 
; 1259 : 	ICvEngineScriptSystem1* pkScriptSystem = gDLL->GetScriptSystem();

	mov	eax, DWORD PTR $T232373[ebp]
	mov	DWORD PTR tv257[ebp], eax
	mov	ecx, DWORD PTR ?gGlobals@@3VCvGlobals@@A+8564
	mov	DWORD PTR tv257[ebp], ecx
	mov	edx, DWORD PTR tv257[ebp]
	mov	eax, DWORD PTR [edx]
	mov	ecx, DWORD PTR tv257[ebp]
	mov	edx, DWORD PTR [eax+12]
	call	edx
	mov	DWORD PTR _pkScriptSystem$[ebp], eax

; 1260 : 	if (pkScriptSystem)

	cmp	DWORD PTR _pkScriptSystem$[ebp], 0
	je	$LN45@DoDeclareW

; 1261 : 	{
; 1262 : 		CvLuaArgsHandle args;

	lea	ecx, DWORD PTR _args$222932[ebp]
	call	??0CvLuaArgsHandle@@QAE@XZ		; CvLuaArgsHandle::CvLuaArgsHandle
	mov	BYTE PTR __$EHRec$[ebp+8], 1

; 1263 : 		args->Push(GetID());

	mov	eax, DWORD PTR _args$222932[ebp]
	mov	DWORD PTR tv268[ebp], eax
	mov	ecx, DWORD PTR _this$[ebp]
	call	?GetID@CvTeam@@QBE?AW4TeamTypes@@XZ	; CvTeam::GetID
	push	eax
	mov	ecx, DWORD PTR tv268[ebp]
	mov	edx, DWORD PTR [ecx]
	mov	ecx, DWORD PTR tv268[ebp]
	mov	eax, DWORD PTR [edx+8]
	call	eax

; 1264 : 		args->Push(eTeam);

	mov	ecx, DWORD PTR _args$222932[ebp]
	mov	DWORD PTR tv277[ebp], ecx
	mov	edx, DWORD PTR _eTeam$[ebp]
	push	edx
	mov	eax, DWORD PTR tv277[ebp]
	mov	edx, DWORD PTR [eax]
	mov	ecx, DWORD PTR tv277[ebp]
	mov	eax, DWORD PTR [edx+8]
	call	eax

; 1265 : 
; 1266 : 		bool bResult;
; 1267 : 		LuaSupport::CallHook(pkScriptSystem, "DeclareWar", args.get(), bResult);

	lea	ecx, DWORD PTR _bResult$222933[ebp]
	push	ecx
	mov	edx, DWORD PTR _args$222932[ebp]
	push	edx
	push	OFFSET ??_C@_0L@BPLCHNAB@DeclareWar?$AA@
	mov	eax, DWORD PTR _pkScriptSystem$[ebp]
	push	eax
	call	?CallHook@LuaSupport@@YA_NPAVICvEngineScriptSystem1@@PBDPAVICvEngineScriptSystemArgs1@@AA_N@Z ; LuaSupport::CallHook
	add	esp, 16					; 00000010H

; 1268 : 	}

	mov	BYTE PTR __$EHRec$[ebp+8], 0
	lea	ecx, DWORD PTR _args$222932[ebp]
	call	??1CvLuaArgsHandle@@QAE@XZ		; CvLuaArgsHandle::~CvLuaArgsHandle
$LN45@DoDeclareW:

; 1269 : 
; 1270 : 	// One shot things
; 1271 : 	DoNowAtWarOrPeace(eTeam, true);

	push	1
	mov	ecx, DWORD PTR _eTeam$[ebp]
	push	ecx
	mov	ecx, DWORD PTR _this$[ebp]
	call	?DoNowAtWarOrPeace@CvTeam@@IAEXW4TeamTypes@@_N@Z ; CvTeam::DoNowAtWarOrPeace

; 1272 : 	GET_TEAM(eTeam).DoNowAtWarOrPeace(GetID(), true);

	mov	edx, DWORD PTR _eTeam$[ebp]
	imul	edx, 2984				; 00000ba8H
	add	edx, DWORD PTR ?m_aTeams@CvTeam@@1PAV1@A ; CvTeam::m_aTeams
	mov	DWORD PTR $T232386[ebp], edx
	push	1
	mov	ecx, DWORD PTR _this$[ebp]
	call	?GetID@CvTeam@@QBE?AW4TeamTypes@@XZ	; CvTeam::GetID
	push	eax
	mov	ecx, DWORD PTR $T232386[ebp]
	call	?DoNowAtWarOrPeace@CvTeam@@IAEXW4TeamTypes@@_N@Z ; CvTeam::DoNowAtWarOrPeace

; 1273 : 
; 1274 : 	// Meet the team if we haven't already
; 1275 : 	meet(eTeam, false);

	push	0
	mov	eax, DWORD PTR _eTeam$[ebp]
	push	eax
	mov	ecx, DWORD PTR _this$[ebp]
	call	?meet@CvTeam@@QAEXW4TeamTypes@@_N@Z	; CvTeam::meet

; 1276 : 
; 1277 : 	// Update the ATTACKED players' Diplo AI
; 1278 : 	if (!isBarbarian())

	mov	ecx, DWORD PTR _this$[ebp]
	call	?isBarbarian@CvTeam@@QBE_NXZ		; CvTeam::isBarbarian
	movzx	ecx, al
	test	ecx, ecx
	jne	$LN44@DoDeclareW

; 1279 : 	{
; 1280 : 		for (iI = 0; iI < MAX_CIV_PLAYERS; iI++)

	mov	DWORD PTR _iI$[ebp], 0
	jmp	SHORT $LN43@DoDeclareW
$LN42@DoDeclareW:
	mov	edx, DWORD PTR _iI$[ebp]
	add	edx, 1
	mov	DWORD PTR _iI$[ebp], edx
$LN43@DoDeclareW:
	cmp	DWORD PTR _iI$[ebp], 63			; 0000003fH
	jge	SHORT $LN41@DoDeclareW

; 1281 : 		{
; 1282 : 			CvPlayerAI& kPlayer = GET_PLAYER((PlayerTypes)iI);

	mov	eax, DWORD PTR _iI$[ebp]
	imul	eax, 63236				; 0000f704H
	add	eax, DWORD PTR ?m_aPlayers@CvPlayerAI@@1PAV1@A ; CvPlayerAI::m_aPlayers
	mov	DWORD PTR _kPlayer$222939[ebp], eax

; 1283 : 			if (kPlayer.isAlive() && kPlayer.getTeam() == eTeam)

	mov	ecx, DWORD PTR _kPlayer$222939[ebp]
	mov	dl, BYTE PTR [ecx+2256]
	mov	BYTE PTR $T232398[ebp], dl
	movzx	eax, BYTE PTR $T232398[ebp]
	test	eax, eax
	je	SHORT $LN40@DoDeclareW
	mov	ecx, DWORD PTR _kPlayer$222939[ebp]
	mov	edx, DWORD PTR [ecx+44]
	push	edx
	call	?teamType@CvPreGame@@YA?AW4TeamTypes@@W4PlayerTypes@@@Z ; CvPreGame::teamType
	add	esp, 4
	cmp	eax, DWORD PTR _eTeam$[ebp]
	jne	SHORT $LN40@DoDeclareW

; 1284 : 				kPlayer.GetDiplomacyAI()->DoSomeoneDeclaredWarOnMe(GetID());

	mov	ecx, DWORD PTR _this$[ebp]
	call	?GetID@CvTeam@@QBE?AW4TeamTypes@@XZ	; CvTeam::GetID
	push	eax
	mov	ecx, DWORD PTR _kPlayer$222939[ebp]
	call	?GetDiplomacyAI@CvPlayer@@QBEPAVCvDiplomacyAI@@XZ ; CvPlayer::GetDiplomacyAI
	mov	ecx, eax
	call	?DoSomeoneDeclaredWarOnMe@CvDiplomacyAI@@QAEXW4TeamTypes@@@Z ; CvDiplomacyAI::DoSomeoneDeclaredWarOnMe
$LN40@DoDeclareW:

; 1285 : 		}

	jmp	SHORT $LN42@DoDeclareW
$LN41@DoDeclareW:

; 1286 : 
; 1287 : 		// If we've made a peace treaty before, this is bad news (no minors though)
; 1288 : 		if (!GET_TEAM(eTeam).isMinorCiv())

	mov	eax, DWORD PTR _eTeam$[ebp]
	imul	eax, 2984				; 00000ba8H
	add	eax, DWORD PTR ?m_aTeams@CvTeam@@1PAV1@A ; CvTeam::m_aTeams
	mov	DWORD PTR $T232410[ebp], eax
	mov	ecx, DWORD PTR $T232410[ebp]
	call	?isMinorCiv@CvTeam@@QBE_NXZ		; CvTeam::isMinorCiv
	movzx	ecx, al
	test	ecx, ecx
	jne	SHORT $LN44@DoDeclareW

; 1289 : 		{
; 1290 : 			int iPeaceTreatyTurn = GetTurnMadePeaceTreatyWithTeam(eTeam);

	mov	edx, DWORD PTR _eTeam$[ebp]
	push	edx
	mov	ecx, DWORD PTR _this$[ebp]
	call	?GetTurnMadePeaceTreatyWithTeam@CvTeam@@QBEHW4TeamTypes@@@Z ; CvTeam::GetTurnMadePeaceTreatyWithTeam
	mov	DWORD PTR _iPeaceTreatyTurn$222943[ebp], eax

; 1291 : 			if (iPeaceTreatyTurn != -1)

	cmp	DWORD PTR _iPeaceTreatyTurn$222943[ebp], -1
	je	SHORT $LN44@DoDeclareW

; 1292 : 			{
; 1293 : 				int iTurnsSincePeace = GC.getGame().getElapsedGameTurns() - iPeaceTreatyTurn;

	mov	eax, DWORD PTR ?gGlobals@@3VCvGlobals@@A+48
	mov	DWORD PTR $T232414[ebp], eax
	mov	ecx, DWORD PTR $T232414[ebp]
	call	?getElapsedGameTurns@CvGame@@QBEHXZ	; CvGame::getElapsedGameTurns
	sub	eax, DWORD PTR _iPeaceTreatyTurn$222943[ebp]
	mov	DWORD PTR _iTurnsSincePeace$222945[ebp], eax

; 1294 : 				if (iTurnsSincePeace < GC.getPEACE_TREATY_LENGTH())

	mov	ecx, DWORD PTR ?gGlobals@@3VCvGlobals@@A+6688
	mov	DWORD PTR $T232418[ebp], ecx
	mov	edx, DWORD PTR _iTurnsSincePeace$222945[ebp]
	cmp	edx, DWORD PTR $T232418[ebp]
	jge	SHORT $LN44@DoDeclareW

; 1295 : 				{
; 1296 : 					SetHasBrokenPeaceTreaty(true);

	push	1
	mov	ecx, DWORD PTR _this$[ebp]
	call	?SetHasBrokenPeaceTreaty@CvTeam@@QAEX_N@Z ; CvTeam::SetHasBrokenPeaceTreaty
$LN44@DoDeclareW:

; 1297 : 				}
; 1298 : 			}
; 1299 : 		}
; 1300 : 	}
; 1301 : 
; 1302 : 	// Update interface stuff
; 1303 : 	if ((GetID() == GC.getGame().getActiveTeam()) || (eTeam == GC.getGame().getActiveTeam()))

	mov	eax, DWORD PTR ?gGlobals@@3VCvGlobals@@A+48
	mov	DWORD PTR $T232422[ebp], eax
	mov	ecx, DWORD PTR _this$[ebp]
	call	?GetID@CvTeam@@QBE?AW4TeamTypes@@XZ	; CvTeam::GetID
	mov	esi, eax
	mov	ecx, DWORD PTR $T232422[ebp]
	call	?getActiveTeam@CvGame@@QAE?AW4TeamTypes@@XZ ; CvGame::getActiveTeam
	cmp	esi, eax
	je	SHORT $LN35@DoDeclareW
	mov	ecx, DWORD PTR ?gGlobals@@3VCvGlobals@@A+48
	mov	DWORD PTR $T232426[ebp], ecx
	mov	ecx, DWORD PTR $T232426[ebp]
	call	?getActiveTeam@CvGame@@QAE?AW4TeamTypes@@XZ ; CvGame::getActiveTeam
	cmp	DWORD PTR _eTeam$[ebp], eax
	jne	SHORT $LN36@DoDeclareW
$LN35@DoDeclareW:

; 1304 : 	{
; 1305 : 		DLLUI->setDirty(Score_DIRTY_BIT, true);

	mov	edx, DWORD PTR $T232430[ebp]
	mov	DWORD PTR tv372[ebp], edx
	mov	eax, DWORD PTR ?gGlobals@@3VCvGlobals@@A+8568
	mov	DWORD PTR tv372[ebp], eax
	push	1
	push	12					; 0000000cH
	mov	ecx, DWORD PTR tv372[ebp]
	mov	edx, DWORD PTR [ecx]
	mov	ecx, DWORD PTR tv372[ebp]
	mov	eax, DWORD PTR [edx+260]
	call	eax

; 1306 : 		DLLUI->setDirty(CityInfo_DIRTY_BIT, true);

	mov	ecx, DWORD PTR $T232434[ebp]
	mov	DWORD PTR tv384[ebp], ecx
	mov	edx, DWORD PTR ?gGlobals@@3VCvGlobals@@A+8568
	mov	DWORD PTR tv384[ebp], edx
	push	1
	push	18					; 00000012H
	mov	eax, DWORD PTR tv384[ebp]
	mov	edx, DWORD PTR [eax]
	mov	ecx, DWORD PTR tv384[ebp]
	mov	eax, DWORD PTR [edx+260]
	call	eax
$LN36@DoDeclareW:

; 1307 : 	}
; 1308 : 
; 1309 : 	if (GC.getGame().isFinalInitialized())

	mov	ecx, DWORD PTR ?gGlobals@@3VCvGlobals@@A+48
	mov	DWORD PTR $T232438[ebp], ecx
	mov	ecx, DWORD PTR $T232438[ebp]
	call	?isFinalInitialized@CvGame@@QBE_NXZ	; CvGame::isFinalInitialized
	movzx	edx, al
	test	edx, edx
	je	$LN34@DoDeclareW

; 1310 : 	{
; 1311 : 		// Message everyone about what happened
; 1312 : 		if (!isBarbarian() && !(GET_TEAM(eTeam).isBarbarian()))

	mov	ecx, DWORD PTR _this$[ebp]
	call	?isBarbarian@CvTeam@@QBE_NXZ		; CvTeam::isBarbarian
	movzx	eax, al
	test	eax, eax
	jne	$LN34@DoDeclareW
	mov	ecx, DWORD PTR _eTeam$[ebp]
	imul	ecx, 2984				; 00000ba8H
	add	ecx, DWORD PTR ?m_aTeams@CvTeam@@1PAV1@A ; CvTeam::m_aTeams
	mov	DWORD PTR $T232442[ebp], ecx
	mov	ecx, DWORD PTR $T232442[ebp]
	call	?isBarbarian@CvTeam@@QBE_NXZ		; CvTeam::isBarbarian
	movzx	edx, al
	test	edx, edx
	jne	$LN34@DoDeclareW

; 1313 : 		{
; 1314 : 			{
; 1315 : 				PlayerTypes ePlayer;
; 1316 : 				for (iI = 0; iI < MAX_PLAYERS; iI++)

	mov	DWORD PTR _iI$[ebp], 0
	jmp	SHORT $LN32@DoDeclareW
$LN31@DoDeclareW:
	mov	eax, DWORD PTR _iI$[ebp]
	add	eax, 1
	mov	DWORD PTR _iI$[ebp], eax
$LN32@DoDeclareW:
	cmp	DWORD PTR _iI$[ebp], 64			; 00000040H
	jge	$LN30@DoDeclareW

; 1317 : 				{
; 1318 : 					ePlayer = (PlayerTypes)iI;

	mov	ecx, DWORD PTR _iI$[ebp]
	mov	DWORD PTR _ePlayer$222951[ebp], ecx

; 1319 : 
; 1320 : 					if (GET_PLAYER(ePlayer).isAlive() && GET_PLAYER(ePlayer).GetNotifications())

	mov	edx, DWORD PTR _ePlayer$222951[ebp]
	imul	edx, 63236				; 0000f704H
	add	edx, DWORD PTR ?m_aPlayers@CvPlayerAI@@1PAV1@A ; CvPlayerAI::m_aPlayers
	mov	DWORD PTR $T232446[ebp], edx
	mov	eax, DWORD PTR $T232446[ebp]
	mov	cl, BYTE PTR [eax+2256]
	mov	BYTE PTR $T232455[ebp], cl
	movzx	edx, BYTE PTR $T232455[ebp]
	test	edx, edx
	je	$LN29@DoDeclareW
	mov	eax, DWORD PTR _ePlayer$222951[ebp]
	imul	eax, 63236				; 0000f704H
	add	eax, DWORD PTR ?m_aPlayers@CvPlayerAI@@1PAV1@A ; CvPlayerAI::m_aPlayers
	mov	DWORD PTR $T232459[ebp], eax
	mov	ecx, DWORD PTR $T232459[ebp]
	call	?GetNotifications@CvPlayer@@QBEPAVCvNotifications@@XZ ; CvPlayer::GetNotifications
	test	eax, eax
	je	$LN29@DoDeclareW

; 1321 : 					{
; 1322 : 						// If this declaration is a minor following a major's declaration, don't send out these individual notifications
; 1323 : 						if (!bMinorAllyPact)

	movzx	ecx, BYTE PTR _bMinorAllyPact$[ebp]
	test	ecx, ecx
	jne	$LN29@DoDeclareW

; 1324 : 						{
; 1325 : 							// Players on team that declared
; 1326 : 							if (GET_PLAYER(ePlayer).getTeam() == GetID())

	mov	edx, DWORD PTR _ePlayer$222951[ebp]
	imul	edx, 63236				; 0000f704H
	add	edx, DWORD PTR ?m_aPlayers@CvPlayerAI@@1PAV1@A ; CvPlayerAI::m_aPlayers
	mov	DWORD PTR $T232463[ebp], edx
	mov	eax, DWORD PTR $T232463[ebp]
	mov	ecx, DWORD PTR [eax+44]
	push	ecx
	call	?teamType@CvPreGame@@YA?AW4TeamTypes@@W4PlayerTypes@@@Z ; CvPreGame::teamType
	add	esp, 4
	mov	DWORD PTR $T232472[ebp], eax
	mov	ecx, DWORD PTR _this$[ebp]
	call	?GetID@CvTeam@@QBE?AW4TeamTypes@@XZ	; CvTeam::GetID
	cmp	DWORD PTR $T232472[ebp], eax
	jne	$LN27@DoDeclareW

; 1327 : 							{
; 1328 : 								if (ePlayer == GC.getGame().getActivePlayer())

	mov	edx, DWORD PTR ?gGlobals@@3VCvGlobals@@A+48
	mov	DWORD PTR $T232476[ebp], edx
	mov	ecx, DWORD PTR $T232476[ebp]
	call	?getActivePlayer@CvGame@@QBE?AW4PlayerTypes@@XZ ; CvGame::getActivePlayer
	cmp	DWORD PTR _ePlayer$222951[ebp], eax
	jne	$LN26@DoDeclareW

; 1329 : 								{
; 1330 : 									locString = Localization::Lookup("TXT_KEY_MISC_YOU_DECLARED_WAR_ON");

	push	OFFSET ??_C@_0CB@FEDIKDJG@TXT_KEY_MISC_YOU_DECLARED_WAR_ON@
	lea	eax, DWORD PTR $T232262[ebp]
	push	eax
	call	DWORD PTR __imp_?Lookup@Localization@@YA?AVString@1@PBD@Z
	add	esp, 8
	mov	DWORD PTR tv263[ebp], eax
	mov	ecx, DWORD PTR tv263[ebp]
	mov	DWORD PTR tv834[ebp], ecx
	mov	BYTE PTR __$EHRec$[ebp+8], 2
	mov	edx, DWORD PTR tv834[ebp]
	push	edx
	lea	ecx, DWORD PTR _locString$[ebp]
	call	DWORD PTR __imp_??4String@Localization@@QAEAAV01@ABV01@@Z
	mov	BYTE PTR __$EHRec$[ebp+8], 0
	lea	ecx, DWORD PTR $T232262[ebp]
	call	DWORD PTR __imp_??1String@Localization@@UAE@XZ

; 1331 : 									locString << GET_TEAM(eTeam).getName().GetCString();

	mov	eax, DWORD PTR _eTeam$[ebp]
	imul	eax, 2984				; 00000ba8H
	add	eax, DWORD PTR ?m_aTeams@CvTeam@@1PAV1@A ; CvTeam::m_aTeams
	mov	DWORD PTR $T232480[ebp], eax
	lea	ecx, DWORD PTR $T232264[ebp]
	push	ecx
	mov	ecx, DWORD PTR $T232480[ebp]
	call	?getName@CvTeam@@QBE?AVCvString@@XZ	; CvTeam::getName
	mov	DWORD PTR tv65[ebp], eax
	mov	edx, DWORD PTR tv65[ebp]
	mov	DWORD PTR $T232484[ebp], edx
	mov	BYTE PTR __$EHRec$[ebp+8], 3
	mov	ecx, DWORD PTR $T232484[ebp]
	call	DWORD PTR __imp_?c_str@?$basic_string@DU?$char_traits@D@std@@V?$allocator@D@2@@std@@QBEPBDXZ
	mov	DWORD PTR $T232263[ebp], eax
	lea	eax, DWORD PTR $T232263[ebp]
	push	eax
	lea	ecx, DWORD PTR _locString$[ebp]
	push	ecx
	call	??$?6PBD@@YAAAVString@Localization@@AAV01@ABQBD@Z ; operator<<<char const *>
	add	esp, 8
	mov	BYTE PTR __$EHRec$[ebp+8], 0
	lea	ecx, DWORD PTR $T232264[ebp]
	call	DWORD PTR __imp_??1?$basic_string@DU?$char_traits@D@std@@V?$allocator@D@2@@std@@QAE@XZ

; 1332 : 									DLLUI->AddMessage(0, (ePlayer), true, GC.getEVENT_MESSAGE_TIME(), locString.toUTF8()/*, "AS2D_DECLAREWAR", MESSAGE_TYPE_MAJOR_EVENT, NULL, (ColorTypes)GC.getInfoTypeForString("COLOR_WARNING_TEXT")*/);

	mov	edx, DWORD PTR $T232492[ebp]
	mov	DWORD PTR tv469[ebp], edx
	mov	eax, DWORD PTR ?gGlobals@@3VCvGlobals@@A+8568
	mov	DWORD PTR tv469[ebp], eax
	mov	ecx, DWORD PTR ?gGlobals@@3VCvGlobals@@A+6176
	mov	DWORD PTR $T232496[ebp], ecx
	push	0
	push	0
	push	-1
	push	-1
	push	-1
	push	0
	push	0
	push	0
	lea	ecx, DWORD PTR _locString$[ebp]
	call	DWORD PTR __imp_?toUTF8@String@Localization@@QAEPBDXZ
	push	eax
	mov	edx, DWORD PTR $T232496[ebp]
	push	edx
	push	1
	mov	eax, DWORD PTR _ePlayer$222951[ebp]
	push	eax
	push	0
	mov	ecx, DWORD PTR tv469[ebp]
	mov	edx, DWORD PTR [ecx]
	mov	ecx, DWORD PTR tv469[ebp]
	mov	eax, DWORD PTR [edx+160]
	call	eax
$LN26@DoDeclareW:

; 1333 : 								}
; 1334 : 							}

	jmp	$LN29@DoDeclareW
$LN27@DoDeclareW:

; 1335 : 							// Players on team that got declared on
; 1336 : 							else if (GET_PLAYER(ePlayer).getTeam() == eTeam)

	mov	ecx, DWORD PTR _ePlayer$222951[ebp]
	imul	ecx, 63236				; 0000f704H
	add	ecx, DWORD PTR ?m_aPlayers@CvPlayerAI@@1PAV1@A ; CvPlayerAI::m_aPlayers
	mov	DWORD PTR $T232500[ebp], ecx
	mov	edx, DWORD PTR $T232500[ebp]
	mov	eax, DWORD PTR [edx+44]
	push	eax
	call	?teamType@CvPreGame@@YA?AW4TeamTypes@@W4PlayerTypes@@@Z ; CvPreGame::teamType
	add	esp, 4
	cmp	eax, DWORD PTR _eTeam$[ebp]
	jne	$LN24@DoDeclareW

; 1337 : 							{
; 1338 : 								locString = Localization::Lookup("TXT_KEY_MISC_DECLARED_WAR_ON_YOU");

	push	OFFSET ??_C@_0CB@IPLANLDM@TXT_KEY_MISC_DECLARED_WAR_ON_YOU@
	lea	ecx, DWORD PTR $T232265[ebp]
	push	ecx
	call	DWORD PTR __imp_?Lookup@Localization@@YA?AVString@1@PBD@Z
	add	esp, 8
	mov	DWORD PTR tv1003[ebp], eax
	mov	edx, DWORD PTR tv1003[ebp]
	mov	DWORD PTR tv838[ebp], edx
	mov	BYTE PTR __$EHRec$[ebp+8], 4
	mov	eax, DWORD PTR tv838[ebp]
	push	eax
	lea	ecx, DWORD PTR _locString$[ebp]
	call	DWORD PTR __imp_??4String@Localization@@QAEAAV01@ABV01@@Z
	mov	BYTE PTR __$EHRec$[ebp+8], 0
	lea	ecx, DWORD PTR $T232265[ebp]
	call	DWORD PTR __imp_??1String@Localization@@UAE@XZ

; 1339 : 								locString << getName().GetCString();

	lea	ecx, DWORD PTR $T232267[ebp]
	push	ecx
	mov	ecx, DWORD PTR _this$[ebp]
	call	?getName@CvTeam@@QBE?AVCvString@@XZ	; CvTeam::getName
	mov	DWORD PTR tv822[ebp], eax
	mov	edx, DWORD PTR tv822[ebp]
	mov	DWORD PTR $T232512[ebp], edx
	mov	BYTE PTR __$EHRec$[ebp+8], 5
	mov	ecx, DWORD PTR $T232512[ebp]
	call	DWORD PTR __imp_?c_str@?$basic_string@DU?$char_traits@D@std@@V?$allocator@D@2@@std@@QBEPBDXZ
	mov	DWORD PTR $T232266[ebp], eax
	lea	eax, DWORD PTR $T232266[ebp]
	push	eax
	lea	ecx, DWORD PTR _locString$[ebp]
	push	ecx
	call	??$?6PBD@@YAAAVString@Localization@@AAV01@ABQBD@Z ; operator<<<char const *>
	add	esp, 8
	mov	BYTE PTR __$EHRec$[ebp+8], 0
	lea	ecx, DWORD PTR $T232267[ebp]
	call	DWORD PTR __imp_??1?$basic_string@DU?$char_traits@D@std@@V?$allocator@D@2@@std@@QAE@XZ

; 1340 : 								GET_PLAYER(ePlayer).GetNotifications()->Add(NOTIFICATION_WAR_ACTIVE_PLAYER, locString.toUTF8(), locString.toUTF8(), -1, -1, this->getLeaderID());

	mov	edx, DWORD PTR _ePlayer$222951[ebp]
	imul	edx, 63236				; 0000f704H
	add	edx, DWORD PTR ?m_aPlayers@CvPlayerAI@@1PAV1@A ; CvPlayerAI::m_aPlayers
	mov	DWORD PTR $T232520[ebp], edx
	push	-1
	mov	ecx, DWORD PTR _this$[ebp]
	call	?getLeaderID@CvTeam@@QBE?AW4PlayerTypes@@XZ ; CvTeam::getLeaderID
	push	eax
	push	-1
	push	-1
	lea	ecx, DWORD PTR _locString$[ebp]
	call	DWORD PTR __imp_?toUTF8@String@Localization@@QAEPBDXZ
	push	eax
	lea	ecx, DWORD PTR _locString$[ebp]
	call	DWORD PTR __imp_?toUTF8@String@Localization@@QAEPBDXZ
	push	eax
	push	-190211195				; f4a99b85H
	mov	ecx, DWORD PTR $T232520[ebp]
	call	?GetNotifications@CvPlayer@@QBEPAVCvNotifications@@XZ ; CvPlayer::GetNotifications
	mov	ecx, eax
	call	?Add@CvNotifications@@QAEHW4NotificationTypes@@PBD1HHHH@Z ; CvNotifications::Add
	jmp	$LN29@DoDeclareW
$LN24@DoDeclareW:

; 1341 : 							}
; 1342 : 							// Players that are on neither team, but know both parties
; 1343 : 							else if (GET_TEAM(GET_PLAYER(ePlayer).getTeam()).isHasMet(GetID()) && GET_TEAM(GET_PLAYER(ePlayer).getTeam()).isHasMet(eTeam))

	mov	eax, DWORD PTR _ePlayer$222951[ebp]
	imul	eax, 63236				; 0000f704H
	add	eax, DWORD PTR ?m_aPlayers@CvPlayerAI@@1PAV1@A ; CvPlayerAI::m_aPlayers
	mov	DWORD PTR $T232524[ebp], eax
	mov	ecx, DWORD PTR $T232524[ebp]
	mov	edx, DWORD PTR [ecx+44]
	push	edx
	call	?teamType@CvPreGame@@YA?AW4TeamTypes@@W4PlayerTypes@@@Z ; CvPreGame::teamType
	add	esp, 4
	mov	DWORD PTR $T232533[ebp], eax
	mov	eax, DWORD PTR $T232533[ebp]
	imul	eax, 2984				; 00000ba8H
	add	eax, DWORD PTR ?m_aTeams@CvTeam@@1PAV1@A ; CvTeam::m_aTeams
	mov	DWORD PTR $T232537[ebp], eax
	mov	ecx, DWORD PTR _this$[ebp]
	call	?GetID@CvTeam@@QBE?AW4TeamTypes@@XZ	; CvTeam::GetID
	push	eax
	mov	ecx, DWORD PTR $T232537[ebp]
	call	?isHasMet@CvTeam@@QBE_NW4TeamTypes@@@Z	; CvTeam::isHasMet
	movzx	ecx, al
	test	ecx, ecx
	je	$LN29@DoDeclareW
	mov	edx, DWORD PTR _ePlayer$222951[ebp]
	imul	edx, 63236				; 0000f704H
	add	edx, DWORD PTR ?m_aPlayers@CvPlayerAI@@1PAV1@A ; CvPlayerAI::m_aPlayers
	mov	DWORD PTR $T232541[ebp], edx
	mov	eax, DWORD PTR $T232541[ebp]
	mov	ecx, DWORD PTR [eax+44]
	push	ecx
	call	?teamType@CvPreGame@@YA?AW4TeamTypes@@W4PlayerTypes@@@Z ; CvPreGame::teamType
	add	esp, 4
	mov	DWORD PTR $T232550[ebp], eax
	mov	edx, DWORD PTR $T232550[ebp]
	imul	edx, 2984				; 00000ba8H
	add	edx, DWORD PTR ?m_aTeams@CvTeam@@1PAV1@A ; CvTeam::m_aTeams
	mov	DWORD PTR $T232554[ebp], edx
	mov	eax, DWORD PTR _eTeam$[ebp]
	push	eax
	mov	ecx, DWORD PTR $T232554[ebp]
	call	?isHasMet@CvTeam@@QBE_NW4TeamTypes@@@Z	; CvTeam::isHasMet
	movzx	ecx, al
	test	ecx, ecx
	je	$LN29@DoDeclareW

; 1344 : 							{
; 1345 : 								locString = Localization::Lookup("TXT_KEY_MISC_SOMEONE_DECLARED_WAR");

	push	OFFSET ??_C@_0CC@KMCACDHN@TXT_KEY_MISC_SOMEONE_DECLARED_WA@
	lea	edx, DWORD PTR $T232268[ebp]
	push	edx
	call	DWORD PTR __imp_?Lookup@Localization@@YA?AVString@1@PBD@Z
	add	esp, 8
	mov	DWORD PTR tv1049[ebp], eax
	mov	eax, DWORD PTR tv1049[ebp]
	mov	DWORD PTR tv842[ebp], eax
	mov	BYTE PTR __$EHRec$[ebp+8], 6
	mov	ecx, DWORD PTR tv842[ebp]
	push	ecx
	lea	ecx, DWORD PTR _locString$[ebp]
	call	DWORD PTR __imp_??4String@Localization@@QAEAAV01@ABV01@@Z
	mov	BYTE PTR __$EHRec$[ebp+8], 0
	lea	ecx, DWORD PTR $T232268[ebp]
	call	DWORD PTR __imp_??1String@Localization@@UAE@XZ

; 1346 : 								locString << getName().GetCString() << GET_TEAM(eTeam).getName().GetCString();

	mov	edx, DWORD PTR _eTeam$[ebp]
	imul	edx, 2984				; 00000ba8H
	add	edx, DWORD PTR ?m_aTeams@CvTeam@@1PAV1@A ; CvTeam::m_aTeams
	mov	DWORD PTR $T232558[ebp], edx
	lea	eax, DWORD PTR $T232270[ebp]
	push	eax
	mov	ecx, DWORD PTR $T232558[ebp]
	call	?getName@CvTeam@@QBE?AVCvString@@XZ	; CvTeam::getName
	mov	DWORD PTR tv1050[ebp], eax
	mov	ecx, DWORD PTR tv1050[ebp]
	mov	DWORD PTR $T232562[ebp], ecx
	mov	BYTE PTR __$EHRec$[ebp+8], 7
	mov	ecx, DWORD PTR $T232562[ebp]
	call	DWORD PTR __imp_?c_str@?$basic_string@DU?$char_traits@D@std@@V?$allocator@D@2@@std@@QBEPBDXZ
	mov	DWORD PTR $T232269[ebp], eax
	lea	edx, DWORD PTR $T232272[ebp]
	push	edx
	mov	ecx, DWORD PTR _this$[ebp]
	call	?getName@CvTeam@@QBE?AVCvString@@XZ	; CvTeam::getName
	mov	DWORD PTR tv1051[ebp], eax
	mov	eax, DWORD PTR tv1051[ebp]
	mov	DWORD PTR $T232566[ebp], eax
	mov	BYTE PTR __$EHRec$[ebp+8], 8
	mov	ecx, DWORD PTR $T232566[ebp]
	call	DWORD PTR __imp_?c_str@?$basic_string@DU?$char_traits@D@std@@V?$allocator@D@2@@std@@QBEPBDXZ
	mov	DWORD PTR $T232271[ebp], eax
	lea	ecx, DWORD PTR $T232269[ebp]
	push	ecx
	lea	edx, DWORD PTR $T232271[ebp]
	push	edx
	lea	eax, DWORD PTR _locString$[ebp]
	push	eax
	call	??$?6PBD@@YAAAVString@Localization@@AAV01@ABQBD@Z ; operator<<<char const *>
	add	esp, 8
	push	eax
	call	??$?6PBD@@YAAAVString@Localization@@AAV01@ABQBD@Z ; operator<<<char const *>
	add	esp, 8
	mov	BYTE PTR __$EHRec$[ebp+8], 7
	lea	ecx, DWORD PTR $T232272[ebp]
	call	DWORD PTR __imp_??1?$basic_string@DU?$char_traits@D@std@@V?$allocator@D@2@@std@@QAE@XZ
	mov	BYTE PTR __$EHRec$[ebp+8], 0
	lea	ecx, DWORD PTR $T232270[ebp]
	call	DWORD PTR __imp_??1?$basic_string@DU?$char_traits@D@std@@V?$allocator@D@2@@std@@QAE@XZ

; 1347 : 								GET_PLAYER(ePlayer).GetNotifications()->Add(NOTIFICATION_WAR, locString.toUTF8(), locString.toUTF8(), -1, -1, this->getLeaderID(), eTeam);

	mov	ecx, DWORD PTR _ePlayer$222951[ebp]
	imul	ecx, 63236				; 0000f704H
	add	ecx, DWORD PTR ?m_aPlayers@CvPlayerAI@@1PAV1@A ; CvPlayerAI::m_aPlayers
	mov	DWORD PTR $T232578[ebp], ecx
	mov	edx, DWORD PTR _eTeam$[ebp]
	push	edx
	mov	ecx, DWORD PTR _this$[ebp]
	call	?getLeaderID@CvTeam@@QBE?AW4PlayerTypes@@XZ ; CvTeam::getLeaderID
	push	eax
	push	-1
	push	-1
	lea	ecx, DWORD PTR _locString$[ebp]
	call	DWORD PTR __imp_?toUTF8@String@Localization@@QAEPBDXZ
	push	eax
	lea	ecx, DWORD PTR _locString$[ebp]
	call	DWORD PTR __imp_?toUTF8@String@Localization@@QAEPBDXZ
	push	eax
	push	-958154983				; c6e3b719H
	mov	ecx, DWORD PTR $T232578[ebp]
	call	?GetNotifications@CvPlayer@@QBEPAVCvNotifications@@XZ ; CvPlayer::GetNotifications
	mov	ecx, eax
	call	?Add@CvNotifications@@QAEHW4NotificationTypes@@PBD1HHHH@Z ; CvNotifications::Add
$LN29@DoDeclareW:

; 1348 : 							}
; 1349 : 						}
; 1350 : 					}
; 1351 : 				}

	jmp	$LN31@DoDeclareW
$LN30@DoDeclareW:

; 1352 : 			}
; 1353 : 
; 1354 : 			locString = Localization::Lookup("TXT_KEY_MISC_SOMEONE_DECLARES_WAR");

	push	OFFSET ??_C@_0CC@LCPDBBFO@TXT_KEY_MISC_SOMEONE_DECLARES_WA@
	lea	eax, DWORD PTR $T232273[ebp]
	push	eax
	call	DWORD PTR __imp_?Lookup@Localization@@YA?AVString@1@PBD@Z
	add	esp, 8
	mov	DWORD PTR tv1052[ebp], eax
	mov	ecx, DWORD PTR tv1052[ebp]
	mov	DWORD PTR tv848[ebp], ecx
	mov	BYTE PTR __$EHRec$[ebp+8], 9
	mov	edx, DWORD PTR tv848[ebp]
	push	edx
	lea	ecx, DWORD PTR _locString$[ebp]
	call	DWORD PTR __imp_??4String@Localization@@QAEAAV01@ABV01@@Z
	mov	BYTE PTR __$EHRec$[ebp+8], 0
	lea	ecx, DWORD PTR $T232273[ebp]
	call	DWORD PTR __imp_??1String@Localization@@UAE@XZ

; 1355 : 			locString << getName().GetCString() << GET_TEAM(eTeam).getName().GetCString();

	mov	eax, DWORD PTR _eTeam$[ebp]
	imul	eax, 2984				; 00000ba8H
	add	eax, DWORD PTR ?m_aTeams@CvTeam@@1PAV1@A ; CvTeam::m_aTeams
	mov	DWORD PTR $T232582[ebp], eax
	lea	ecx, DWORD PTR $T232275[ebp]
	push	ecx
	mov	ecx, DWORD PTR $T232582[ebp]
	call	?getName@CvTeam@@QBE?AVCvString@@XZ	; CvTeam::getName
	mov	DWORD PTR tv1053[ebp], eax
	mov	edx, DWORD PTR tv1053[ebp]
	mov	DWORD PTR $T232586[ebp], edx
	mov	BYTE PTR __$EHRec$[ebp+8], 10		; 0000000aH
	mov	ecx, DWORD PTR $T232586[ebp]
	call	DWORD PTR __imp_?c_str@?$basic_string@DU?$char_traits@D@std@@V?$allocator@D@2@@std@@QBEPBDXZ
	mov	DWORD PTR $T232274[ebp], eax
	lea	eax, DWORD PTR $T232277[ebp]
	push	eax
	mov	ecx, DWORD PTR _this$[ebp]
	call	?getName@CvTeam@@QBE?AVCvString@@XZ	; CvTeam::getName
	mov	DWORD PTR tv1054[ebp], eax
	mov	ecx, DWORD PTR tv1054[ebp]
	mov	DWORD PTR $T232590[ebp], ecx
	mov	BYTE PTR __$EHRec$[ebp+8], 11		; 0000000bH
	mov	ecx, DWORD PTR $T232590[ebp]
	call	DWORD PTR __imp_?c_str@?$basic_string@DU?$char_traits@D@std@@V?$allocator@D@2@@std@@QBEPBDXZ
	mov	DWORD PTR $T232276[ebp], eax
	lea	edx, DWORD PTR $T232274[ebp]
	push	edx
	lea	eax, DWORD PTR $T232276[ebp]
	push	eax
	lea	ecx, DWORD PTR _locString$[ebp]
	push	ecx
	call	??$?6PBD@@YAAAVString@Localization@@AAV01@ABQBD@Z ; operator<<<char const *>
	add	esp, 8
	push	eax
	call	??$?6PBD@@YAAAVString@Localization@@AAV01@ABQBD@Z ; operator<<<char const *>
	add	esp, 8
	mov	BYTE PTR __$EHRec$[ebp+8], 10		; 0000000aH
	lea	ecx, DWORD PTR $T232277[ebp]
	call	DWORD PTR __imp_??1?$basic_string@DU?$char_traits@D@std@@V?$allocator@D@2@@std@@QAE@XZ
	mov	BYTE PTR __$EHRec$[ebp+8], 0
	lea	ecx, DWORD PTR $T232275[ebp]
	call	DWORD PTR __imp_??1?$basic_string@DU?$char_traits@D@std@@V?$allocator@D@2@@std@@QAE@XZ

; 1356 : 			GC.getGame().addReplayMessage(REPLAY_MESSAGE_MAJOR_EVENT, getLeaderID(), locString.toUTF8(), -1, -1);

	lea	ecx, DWORD PTR _locString$[ebp]
	call	DWORD PTR __imp_?toUTF8@String@Localization@@QAEPBDXZ
	mov	DWORD PTR $T232607[ebp], eax
	cmp	DWORD PTR $T232607[ebp], 0
	je	SHORT $LN236@DoDeclareW
	mov	edx, DWORD PTR $T232607[ebp]
	mov	DWORD PTR tv1005[ebp], edx
	jmp	SHORT $LN237@DoDeclareW
$LN236@DoDeclareW:
	mov	DWORD PTR tv1005[ebp], OFFSET ??_C@_00CNPNBAHC@?$AA@
$LN237@DoDeclareW:
	mov	eax, DWORD PTR tv1005[ebp]
	push	eax
	lea	ecx, DWORD PTR $T232278[ebp]
	call	DWORD PTR __imp_??0?$basic_string@DU?$char_traits@D@std@@V?$allocator@D@2@@std@@QAE@PBD@Z
	mov	BYTE PTR __$EHRec$[ebp+8], 12		; 0000000cH
	mov	ecx, DWORD PTR ?gGlobals@@3VCvGlobals@@A+48
	mov	DWORD PTR $T232611[ebp], ecx
	push	-1
	push	-1
	lea	edx, DWORD PTR $T232278[ebp]
	push	edx
	mov	ecx, DWORD PTR _this$[ebp]
	call	?getLeaderID@CvTeam@@QBE?AW4PlayerTypes@@XZ ; CvTeam::getLeaderID
	push	eax
	push	0
	mov	ecx, DWORD PTR $T232611[ebp]
	call	?addReplayMessage@CvGame@@QAEXW4ReplayMessageTypes@@W4PlayerTypes@@ABVCvString@@HH@Z ; CvGame::addReplayMessage
	mov	BYTE PTR __$EHRec$[ebp+8], 0
	lea	ecx, DWORD PTR $T232278[ebp]
	call	DWORD PTR __imp_??1?$basic_string@DU?$char_traits@D@std@@V?$allocator@D@2@@std@@QAE@XZ
$LN34@DoDeclareW:

; 1357 : 		}
; 1358 : 	}
; 1359 : 
; 1360 : #ifdef NQM_GAME_EXTEND_TURN_TIMER_ON_LAST_MINUTE_WAR_DECLARATION_IF_SIMULTANEOUS
; 1361 : 	if (isHuman() && GET_TEAM(eTeam).isHuman())
; 1362 : 	{
; 1363 : #ifdef AUI_GAME_BETTER_HYBRID_MODE
; 1364 : 		if (getTurnOrder() == GET_TEAM(eTeam).getTurnOrder())
; 1365 : #else
; 1366 : 		if (isSimultaneousTurns() || GET_TEAM(eTeam).isSimultaneousTurns())
; 1367 : #endif
; 1368 : 		{
; 1369 : 			CvGame& kGame = GC.getGame();
; 1370 : 			if (kGame.isOption(GAMEOPTION_END_TURN_TIMER_ENABLED) && kGame.getElapsedGameTurns() > 0 && 
; 1371 : #ifdef AUI_GAME_RELATIVE_TURN_TIMERS
; 1372 : 				(kGame.getPitbossTurnTime() == 0 || kGame.isOption("GAMEOPTION_RELATIVE_TURN_TIMER")))
; 1373 : #else
; 1374 : 				kGame.getPitbossTurnTime() == 0)
; 1375 : #endif
; 1376 : 			{
; 1377 : 				const CvTurnTimerInfo& kTurnTimer = CvPreGame::turnTimerInfo();
; 1378 : 				float fBaseTurnTime = static_cast<float>(kTurnTimer.getBaseTime());
; 1379 : 
; 1380 : #ifdef AUI_GAME_PLAYER_BASED_TURN_LENGTH
; 1381 : 				FFastVector<int, true, c_eCiv5GameplayDLL>::const_iterator piCurMaxTurnLength = kGame.m_aiMaxTurnLengths.begin();
; 1382 : 				piCurMaxTurnLength += GET_PLAYER(kGame.getActivePlayer()).getTurnOrder();
; 1383 : 
; 1384 : 				float fGameTurnEnd = static_cast<float>(*piCurMaxTurnLength);
; 1385 : #else
; 1386 : 				float fGameTurnEnd = static_cast<float>(kGame.getMaxTurnLen());
; 1387 : 
; 1388 : 				//NOTE:  These times exclude the time used for AI processing.
; 1389 : 				//Time since the current player's turn started.  Used for measuring time for players in sequential turn mode.
; 1390 : 				float fTimeSinceCurrentTurnStart = kGame.m_curTurnTimer.Peek() + kGame.m_fCurrentTurnTimerPauseDelta;
; 1391 : #ifndef AUI_GAME_BETTER_HYBRID_MODE
; 1392 : 				//Time since the game (year) turn started.  Used for measuring time for players in simultaneous turn mode.
; 1393 : 				float fTimeSinceGameTurnStart = kGame.m_timeSinceGameTurnStart.Peek() + kGame.m_fCurrentTurnTimerPauseDelta;
; 1394 : #endif
; 1395 : #endif
; 1396 : #ifdef AUI_GAME_PLAYER_BASED_TURN_LENGTH
; 1397 : 				float fTimeElapsed = kGame.m_curTurnTimer.Peek() + kGame.m_fCurrentTurnTimerPauseDelta;
; 1398 : #elif defined(AUI_GAME_BETTER_HYBRID_MODE)
; 1399 : 				float fTimeElapsed = timeSinceCurrentTurnStart;
; 1400 : #else
; 1401 : 				float fTimeElapsed = (GET_PLAYER(kGame.getActivePlayer()).isSimultaneousTurns() ? fTimeSinceGameTurnStart : fTimeSinceCurrentTurnStart);
; 1402 : #endif
; 1403 : 				float fTimeToAdd = MAX(0.0f, fTimeElapsed - fGameTurnEnd + fBaseTurnTime);
; 1404 : 				if (fTimeToAdd > 0)
; 1405 : 				{
; 1406 : 					kGame.m_curTurnTimer.m_qStart += (__int64)(fTimeToAdd/ kGame.m_curTurnTimer.m_fFreq);
; 1407 : 					kGame.m_timeSinceGameTurnStart.m_qStart += (__int64)(fTimeToAdd / kGame.m_timeSinceGameTurnStart.m_fFreq);
; 1408 : 				}
; 1409 : 			}
; 1410 : 		}
; 1411 : 	}
; 1412 : #endif
; 1413 : 
; 1414 : 	int iMinorCivLoop;
; 1415 : 	int iMajorCivLoop;
; 1416 : 
; 1417 : 	// Minor Civs declaring war
; 1418 : 	if(isMinorCiv())

	mov	ecx, DWORD PTR _this$[ebp]
	call	?isMinorCiv@CvTeam@@QBE_NXZ		; CvTeam::isMinorCiv
	movzx	eax, al
	test	eax, eax
	je	SHORT $LN21@DoDeclareW

; 1419 : 	{
; 1420 : 
; 1421 : 	}
; 1422 : 	// Major is declaring War
; 1423 : 	else

	jmp	$LN20@DoDeclareW
$LN21@DoDeclareW:

; 1424 : 	{
; 1425 : 		int iMajorCivLoop2;
; 1426 : 
; 1427 : 		// Update what every Major Civ sees
; 1428 : 		for(iMajorCivLoop = 0; iMajorCivLoop < MAX_MAJOR_CIVS; iMajorCivLoop++)

	mov	DWORD PTR _iMajorCivLoop$[ebp], 0
	jmp	SHORT $LN19@DoDeclareW
$LN18@DoDeclareW:
	mov	ecx, DWORD PTR _iMajorCivLoop$[ebp]
	add	ecx, 1
	mov	DWORD PTR _iMajorCivLoop$[ebp], ecx
$LN19@DoDeclareW:
	cmp	DWORD PTR _iMajorCivLoop$[ebp], 22	; 00000016H
	jge	$LN20@DoDeclareW

; 1429 : 		{
; 1430 : 			if(GET_PLAYER((PlayerTypes) iMajorCivLoop).getTeam() == GetID())

	mov	edx, DWORD PTR _iMajorCivLoop$[ebp]
	imul	edx, 63236				; 0000f704H
	add	edx, DWORD PTR ?m_aPlayers@CvPlayerAI@@1PAV1@A ; CvPlayerAI::m_aPlayers
	mov	DWORD PTR $T232619[ebp], edx
	mov	eax, DWORD PTR $T232619[ebp]
	mov	ecx, DWORD PTR [eax+44]
	push	ecx
	call	?teamType@CvPreGame@@YA?AW4TeamTypes@@W4PlayerTypes@@@Z ; CvPreGame::teamType
	add	esp, 4
	mov	DWORD PTR $T232628[ebp], eax
	mov	ecx, DWORD PTR _this$[ebp]
	call	?GetID@CvTeam@@QBE?AW4TeamTypes@@XZ	; CvTeam::GetID
	cmp	DWORD PTR $T232628[ebp], eax
	jne	$LN16@DoDeclareW

; 1431 : 			{
; 1432 : 				if(GET_PLAYER((PlayerTypes) iMajorCivLoop).isAlive())

	mov	edx, DWORD PTR _iMajorCivLoop$[ebp]
	imul	edx, 63236				; 0000f704H
	add	edx, DWORD PTR ?m_aPlayers@CvPlayerAI@@1PAV1@A ; CvPlayerAI::m_aPlayers
	mov	DWORD PTR $T232632[ebp], edx
	mov	eax, DWORD PTR $T232632[ebp]
	mov	cl, BYTE PTR [eax+2256]
	mov	BYTE PTR $T232641[ebp], cl
	movzx	edx, BYTE PTR $T232641[ebp]
	test	edx, edx
	je	$LN16@DoDeclareW

; 1433 : 				{
; 1434 : 					// Alter Grand Strategy stats for all Majors in the game whove met this declaring war Major
; 1435 : 					for(iMajorCivLoop2 = 0; iMajorCivLoop2 < MAX_MAJOR_CIVS; iMajorCivLoop2++)

	mov	DWORD PTR _iMajorCivLoop2$222994[ebp], 0
	jmp	SHORT $LN14@DoDeclareW
$LN13@DoDeclareW:
	mov	eax, DWORD PTR _iMajorCivLoop2$222994[ebp]
	add	eax, 1
	mov	DWORD PTR _iMajorCivLoop2$222994[ebp], eax
$LN14@DoDeclareW:
	cmp	DWORD PTR _iMajorCivLoop2$222994[ebp], 22 ; 00000016H
	jge	$LN12@DoDeclareW

; 1436 : 					{
; 1437 : 						// I don't care if it's me
; 1438 : 						if(iMajorCivLoop != iMajorCivLoop2)

	mov	ecx, DWORD PTR _iMajorCivLoop$[ebp]
	cmp	ecx, DWORD PTR _iMajorCivLoop2$222994[ebp]
	je	$LN11@DoDeclareW

; 1439 : 						{
; 1440 : 							// Have I actually met this player declaring war?
; 1441 : 							if(GET_TEAM(GET_PLAYER((PlayerTypes) iMajorCivLoop2).getTeam()).isHasMet(GET_PLAYER((PlayerTypes) iMajorCivLoop).getTeam()))

	mov	edx, DWORD PTR _iMajorCivLoop$[ebp]
	imul	edx, 63236				; 0000f704H
	add	edx, DWORD PTR ?m_aPlayers@CvPlayerAI@@1PAV1@A ; CvPlayerAI::m_aPlayers
	mov	DWORD PTR $T232645[ebp], edx
	mov	eax, DWORD PTR $T232645[ebp]
	mov	ecx, DWORD PTR [eax+44]
	push	ecx
	call	?teamType@CvPreGame@@YA?AW4TeamTypes@@W4PlayerTypes@@@Z ; CvPreGame::teamType
	add	esp, 4
	mov	DWORD PTR $T232654[ebp], eax
	mov	edx, DWORD PTR _iMajorCivLoop2$222994[ebp]
	imul	edx, 63236				; 0000f704H
	add	edx, DWORD PTR ?m_aPlayers@CvPlayerAI@@1PAV1@A ; CvPlayerAI::m_aPlayers
	mov	DWORD PTR $T232658[ebp], edx
	mov	eax, DWORD PTR $T232658[ebp]
	mov	ecx, DWORD PTR [eax+44]
	push	ecx
	call	?teamType@CvPreGame@@YA?AW4TeamTypes@@W4PlayerTypes@@@Z ; CvPreGame::teamType
	add	esp, 4
	mov	DWORD PTR $T232667[ebp], eax
	mov	edx, DWORD PTR $T232667[ebp]
	imul	edx, 2984				; 00000ba8H
	add	edx, DWORD PTR ?m_aTeams@CvTeam@@1PAV1@A ; CvTeam::m_aTeams
	mov	DWORD PTR $T232671[ebp], edx
	mov	eax, DWORD PTR $T232654[ebp]
	push	eax
	mov	ecx, DWORD PTR $T232671[ebp]
	call	?isHasMet@CvTeam@@QBE_NW4TeamTypes@@@Z	; CvTeam::isHasMet
	movzx	ecx, al
	test	ecx, ecx
	je	$LN11@DoDeclareW

; 1442 : 							{
; 1443 : 								GET_PLAYER((PlayerTypes) iMajorCivLoop2).GetDiplomacyAI()->DoPlayerDeclaredWarOnSomeone((PlayerTypes) iMajorCivLoop, eTeam);

	mov	edx, DWORD PTR _iMajorCivLoop2$222994[ebp]
	imul	edx, 63236				; 0000f704H
	add	edx, DWORD PTR ?m_aPlayers@CvPlayerAI@@1PAV1@A ; CvPlayerAI::m_aPlayers
	mov	DWORD PTR $T232675[ebp], edx
	mov	eax, DWORD PTR _eTeam$[ebp]
	push	eax
	mov	ecx, DWORD PTR _iMajorCivLoop$[ebp]
	push	ecx
	mov	ecx, DWORD PTR $T232675[ebp]
	call	?GetDiplomacyAI@CvPlayer@@QBEPAVCvDiplomacyAI@@XZ ; CvPlayer::GetDiplomacyAI
	mov	ecx, eax
	call	?DoPlayerDeclaredWarOnSomeone@CvDiplomacyAI@@QAEXW4PlayerTypes@@W4TeamTypes@@@Z ; CvDiplomacyAI::DoPlayerDeclaredWarOnSomeone

; 1444 : 
; 1445 : 								if(!bDefensivePact)

	movzx	edx, BYTE PTR _bDefensivePact$[ebp]
	test	edx, edx
	jne	$LN11@DoDeclareW

; 1446 : 								{
; 1447 : 									// Major declaring war on Minor
; 1448 : 									if(GET_TEAM(eTeam).isMinorCiv())

	mov	eax, DWORD PTR _eTeam$[ebp]
	imul	eax, 2984				; 00000ba8H
	add	eax, DWORD PTR ?m_aTeams@CvTeam@@1PAV1@A ; CvTeam::m_aTeams
	mov	DWORD PTR $T232679[ebp], eax
	mov	ecx, DWORD PTR $T232679[ebp]
	call	?isMinorCiv@CvTeam@@QBE_NXZ		; CvTeam::isMinorCiv
	movzx	ecx, al
	test	ecx, ecx
	je	SHORT $LN8@DoDeclareW

; 1449 : 									{
; 1450 : 										GET_PLAYER((PlayerTypes) iMajorCivLoop2).GetDiplomacyAI()->ChangeOtherPlayerNumMinorsAttacked((PlayerTypes) iMajorCivLoop, 1);

	mov	edx, DWORD PTR _iMajorCivLoop2$222994[ebp]
	imul	edx, 63236				; 0000f704H
	add	edx, DWORD PTR ?m_aPlayers@CvPlayerAI@@1PAV1@A ; CvPlayerAI::m_aPlayers
	mov	DWORD PTR $T232683[ebp], edx
	push	1
	mov	eax, DWORD PTR _iMajorCivLoop$[ebp]
	push	eax
	mov	ecx, DWORD PTR $T232683[ebp]
	call	?GetDiplomacyAI@CvPlayer@@QBEPAVCvDiplomacyAI@@XZ ; CvPlayer::GetDiplomacyAI
	mov	ecx, eax
	call	?ChangeOtherPlayerNumMinorsAttacked@CvDiplomacyAI@@QAEXW4PlayerTypes@@H@Z ; CvDiplomacyAI::ChangeOtherPlayerNumMinorsAttacked

; 1451 : 									}
; 1452 : 									// Major declaring war on Major
; 1453 : 									else

	jmp	SHORT $LN11@DoDeclareW
$LN8@DoDeclareW:

; 1454 : 									{
; 1455 : 										GET_PLAYER((PlayerTypes) iMajorCivLoop2).GetDiplomacyAI()->ChangeOtherPlayerNumMajorsAttacked((PlayerTypes) iMajorCivLoop, 1, eTeam);

	mov	ecx, DWORD PTR _iMajorCivLoop2$222994[ebp]
	imul	ecx, 63236				; 0000f704H
	add	ecx, DWORD PTR ?m_aPlayers@CvPlayerAI@@1PAV1@A ; CvPlayerAI::m_aPlayers
	mov	DWORD PTR $T232687[ebp], ecx
	mov	edx, DWORD PTR _eTeam$[ebp]
	push	edx
	push	1
	mov	eax, DWORD PTR _iMajorCivLoop$[ebp]
	push	eax
	mov	ecx, DWORD PTR $T232687[ebp]
	call	?GetDiplomacyAI@CvPlayer@@QBEPAVCvDiplomacyAI@@XZ ; CvPlayer::GetDiplomacyAI
	mov	ecx, eax
	call	?ChangeOtherPlayerNumMajorsAttacked@CvDiplomacyAI@@QAEXW4PlayerTypes@@HW4TeamTypes@@@Z ; CvDiplomacyAI::ChangeOtherPlayerNumMajorsAttacked
$LN11@DoDeclareW:

; 1456 : 									}
; 1457 : 								}
; 1458 : 							}
; 1459 : 						}
; 1460 : 					}

	jmp	$LN13@DoDeclareW
$LN12@DoDeclareW:

; 1461 : 
; 1462 : 					// Declaring war on Minor
; 1463 : 					for(iMinorCivLoop = MAX_MAJOR_CIVS; iMinorCivLoop < MAX_CIV_PLAYERS; iMinorCivLoop++)

	mov	DWORD PTR _iMinorCivLoop$[ebp], 22	; 00000016H
	jmp	SHORT $LN6@DoDeclareW
$LN5@DoDeclareW:
	mov	ecx, DWORD PTR _iMinorCivLoop$[ebp]
	add	ecx, 1
	mov	DWORD PTR _iMinorCivLoop$[ebp], ecx
$LN6@DoDeclareW:
	cmp	DWORD PTR _iMinorCivLoop$[ebp], 63	; 0000003fH
	jge	$LN16@DoDeclareW

; 1464 : 					{
; 1465 : 						// Now loop through all players on this team to nullify Quests for them
; 1466 : 						if(GET_PLAYER((PlayerTypes) iMinorCivLoop).getTeam() == eTeam)

	mov	edx, DWORD PTR _iMinorCivLoop$[ebp]
	imul	edx, 63236				; 0000f704H
	add	edx, DWORD PTR ?m_aPlayers@CvPlayerAI@@1PAV1@A ; CvPlayerAI::m_aPlayers
	mov	DWORD PTR $T232691[ebp], edx
	mov	eax, DWORD PTR $T232691[ebp]
	mov	ecx, DWORD PTR [eax+44]
	push	ecx
	call	?teamType@CvPreGame@@YA?AW4TeamTypes@@W4PlayerTypes@@@Z ; CvPreGame::teamType
	add	esp, 4
	cmp	eax, DWORD PTR _eTeam$[ebp]
	jne	$LN3@DoDeclareW

; 1467 : 						{
; 1468 : 							if(GET_PLAYER((PlayerTypes) iMinorCivLoop).isAlive())

	mov	edx, DWORD PTR _iMinorCivLoop$[ebp]
	imul	edx, 63236				; 0000f704H
	add	edx, DWORD PTR ?m_aPlayers@CvPlayerAI@@1PAV1@A ; CvPlayerAI::m_aPlayers
	mov	DWORD PTR $T232703[ebp], edx
	mov	eax, DWORD PTR $T232703[ebp]
	mov	cl, BYTE PTR [eax+2256]
	mov	BYTE PTR $T232712[ebp], cl
	movzx	edx, BYTE PTR $T232712[ebp]
	test	edx, edx
	je	SHORT $LN3@DoDeclareW

; 1469 : 							{
; 1470 : 								// Increment # of Minors this player has attacked - note that this will be called EACH time a team declares war on a Minor,
; 1471 : 								// even the same Minor multiple times.  The current design assumes that once a player is at war with a Minor it's forever, so this is fine
; 1472 : 								//antonjs: consider: this statement is no longer valid, since current design allows peace to be made; update the implementation
; 1473 : 								if(!isMinorCiv() && !bDefensivePact)

	mov	ecx, DWORD PTR _this$[ebp]
	call	?isMinorCiv@CvTeam@@QBE_NXZ		; CvTeam::isMinorCiv
	movzx	eax, al
	test	eax, eax
	jne	SHORT $LN3@DoDeclareW
	movzx	ecx, BYTE PTR _bDefensivePact$[ebp]
	test	ecx, ecx
	jne	SHORT $LN3@DoDeclareW

; 1474 : 								{
; 1475 : 									ChangeNumMinorCivsAttacked(1);

	push	1
	mov	ecx, DWORD PTR _this$[ebp]
	call	?ChangeNumMinorCivsAttacked@CvTeam@@QAEXH@Z ; CvTeam::ChangeNumMinorCivsAttacked

; 1476 : 
; 1477 : 									GET_PLAYER((PlayerTypes) iMinorCivLoop).GetMinorCivAI()->DoTeamDeclaredWarOnMe(GetID());

	mov	edx, DWORD PTR _iMinorCivLoop$[ebp]
	imul	edx, 63236				; 0000f704H
	add	edx, DWORD PTR ?m_aPlayers@CvPlayerAI@@1PAV1@A ; CvPlayerAI::m_aPlayers
	mov	DWORD PTR $T232716[ebp], edx
	mov	ecx, DWORD PTR _this$[ebp]
	call	?GetID@CvTeam@@QBE?AW4TeamTypes@@XZ	; CvTeam::GetID
	push	eax
	mov	ecx, DWORD PTR $T232716[ebp]
	call	?GetMinorCivAI@CvPlayer@@QBEPAVCvMinorCivAI@@XZ ; CvPlayer::GetMinorCivAI
	mov	ecx, eax
	call	?DoTeamDeclaredWarOnMe@CvMinorCivAI@@QAEXW4TeamTypes@@@Z ; CvMinorCivAI::DoTeamDeclaredWarOnMe
$LN3@DoDeclareW:

; 1478 : 								}
; 1479 : 							}
; 1480 : 						}
; 1481 : 					}

	jmp	$LN5@DoDeclareW
$LN16@DoDeclareW:

; 1482 : 				}
; 1483 : 			}
; 1484 : 		}

	jmp	$LN18@DoDeclareW
$LN20@DoDeclareW:

; 1485 : 	}
; 1486 : }

	mov	DWORD PTR __$EHRec$[ebp+8], -1
	lea	ecx, DWORD PTR _locString$[ebp]
	call	DWORD PTR __imp_??1String@Localization@@UAE@XZ
$LN59@DoDeclareW:
	mov	ecx, DWORD PTR __$EHRec$[ebp]
	mov	DWORD PTR fs:0, ecx
	pop	ecx
	pop	esi
	mov	esp, ebp
	pop	ebp
	ret	12					; 0000000cH
_TEXT	ENDS
;	COMDAT text$x
text$x	SEGMENT
__unwindfunclet$?DoDeclareWar@CvTeam@@IAEXW4TeamTypes@@_N1@Z$0:
	lea	ecx, DWORD PTR _locString$[ebp]
	jmp	DWORD PTR __imp_??1String@Localization@@UAE@XZ
__unwindfunclet$?DoDeclareWar@CvTeam@@IAEXW4TeamTypes@@_N1@Z$1:
	lea	ecx, DWORD PTR _args$222932[ebp]
	jmp	??1CvLuaArgsHandle@@QAE@XZ		; CvLuaArgsHandle::~CvLuaArgsHandle
__unwindfunclet$?DoDeclareWar@CvTeam@@IAEXW4TeamTypes@@_N1@Z$2:
	lea	ecx, DWORD PTR $T232262[ebp]
	jmp	DWORD PTR __imp_??1String@Localization@@UAE@XZ
__unwindfunclet$?DoDeclareWar@CvTeam@@IAEXW4TeamTypes@@_N1@Z$3:
	lea	ecx, DWORD PTR $T232264[ebp]
	jmp	??1CvString@@QAE@XZ			; CvString::~CvString
