; Listing generated by Microsoft (R) Optimizing Compiler Version 15.00.30729.01 

	TITLE	D:\sources\Lekmod_git\checkout\LEKMOD_DLL\CvGameCoreDLL_Expansion2\CvTechClasses.cpp
	.686P
	.XMM
	include listing.inc
	.model	flat

INCLUDELIB MSVCRT
INCLUDELIB OLDNAMES

PUBLIC	??_C@_0BB@FFPEIGMF@TECH_FUTURE_TECH?$AA@	; `string'
PUBLIC	??_C@_0BE@PFFFIOCE@TECH_NUCLEAR_FUSION?$AA@	; `string'
PUBLIC	??_C@_0BE@EMEGLPJH@TECH_NANOTECHNOLOGY?$AA@	; `string'
PUBLIC	??_C@_0BG@HIHFFJIG@TECH_PARTICLE_PHYSICS?$AA@	; `string'
PUBLIC	??_C@_0BJ@IOAIODDB@TECH_ADVANCED_BALLISTICS?$AA@ ; `string'
PUBLIC	??_C@_0M@OKPBDOAB@TECH_LASERS?$AA@		; `string'
PUBLIC	??_C@_0BE@JPGFFPKB@TECH_MOBILE_TACTICS?$AA@	; `string'
PUBLIC	??_C@_0N@EKLGOFCE@TECH_STEALTH?$AA@		; `string'
PUBLIC	??_C@_0BA@LBHEJNAN@TECH_SATELLITES?$AA@		; `string'
PUBLIC	??_C@_0O@JKGOIGID@TECH_ROBOTICS?$AA@		; `string'
PUBLIC	??_C@_0BD@IIIMIMMC@TECH_GLOBALIZATION?$AA@	; `string'
PUBLIC	??_C@_0BF@PMILJPKG@TECH_NUCLEAR_FISSION?$AA@	; `string'
PUBLIC	??_C@_0O@LPHANPJM@TECH_ROCKETRY?$AA@		; `string'
PUBLIC	??_C@_0N@GGDCCEMN@TECH_TELECOM?$AA@		; `string'
PUBLIC	??_C@_0P@BCOCBDKL@TECH_COMPUTERS?$AA@		; `string'
PUBLIC	??_C@_0N@FEBMAJMI@TECH_ECOLOGY?$AA@		; `string'
PUBLIC	??_C@_0BD@GFKOIOEC@TECH_ATOMIC_THEORY?$AA@	; `string'
PUBLIC	??_C@_0BD@HHJCHIND@TECH_COMBINED_ARMS?$AA@	; `string'
PUBLIC	??_C@_0L@CFAAJMNL@TECH_RADAR?$AA@		; `string'
PUBLIC	??_C@_0BB@EOBHCNAL@TECH_ELECTRONICS?$AA@	; `string'
PUBLIC	??_C@_0P@OIHEKAJC@TECH_PENICILIN?$AA@		; `string'
PUBLIC	??_C@_0N@HDBOCAAC@TECH_PLASTIC?$AA@		; `string'
PUBLIC	??_C@_0BA@MDNDMIKO@TECH_COMBUSTION?$AA@		; `string'
PUBLIC	??_C@_0BA@EIGNECGO@TECH_BALLISTICS?$AA@		; `string'
PUBLIC	??_C@_0M@CMLGIFFI@TECH_FLIGHT?$AA@		; `string'
PUBLIC	??_C@_0L@NEHPKBHP@TECH_RADIO?$AA@		; `string'
PUBLIC	??_C@_0BE@FFEPPPHF@TECH_HYDROELECTRICS?$AA@	; `string'
PUBLIC	??_C@_0BD@CLJFKPHA@TECH_REFRIGERATION?$AA@	; `string'
PUBLIC	??_C@_0O@KHFLEIGB@TECH_RAILROAD?$AA@		; `string'
PUBLIC	??_C@_0BH@MKPELENP@TECH_REPLACEABLE_PARTS?$AA@	; `string'
PUBLIC	??_C@_0BB@IDFIFHNI@TECH_ELECTRICITY?$AA@	; `string'
PUBLIC	??_C@_0O@GKMLHLAB@TECH_DYNAMITE?$AA@		; `string'
PUBLIC	??_C@_0BB@PHGCNHHO@TECH_STEAM_POWER?$AA@	; `string'
PUBLIC	??_C@_0N@PKKJFPJP@TECH_BIOLOGY?$AA@		; `string'
PUBLIC	??_C@_0BA@PMJHEBE@TECH_FERTILIZER?$AA@		; `string'
PUBLIC	??_C@_0N@FPOGGEPA@TECH_RIFLING?$AA@		; `string'
PUBLIC	??_C@_0BG@EJGDFPPF@TECH_MILITARY_SCIENCE?$AA@	; `string'
PUBLIC	??_C@_0BH@MGMKHAML@TECH_INDUSTRIALIZATION?$AA@	; `string'
PUBLIC	??_C@_0BH@PCFMKOBM@TECH_SCIENTIFIC_THEORY?$AA@	; `string'
PUBLIC	??_C@_0BB@KLFMGMG@TECH_ARCHAEOLOGY?$AA@		; `string'
PUBLIC	??_C@_0P@HHBBFOFJ@TECH_CHEMISTRY?$AA@		; `string'
PUBLIC	??_C@_0BA@LJEFMFPL@TECH_METALLURGY?$AA@		; `string'
PUBLIC	??_C@_0P@BEIDNCOH@TECH_ECONOMICS?$AA@		; `string'
PUBLIC	??_C@_0BC@EAJJMBFD@TECH_ARCHITECTURE?$AA@	; `string'
PUBLIC	??_C@_0BA@NLCOFLJH@TECH_NAVIGATION?$AA@		; `string'
PUBLIC	??_C@_0P@PBELMECB@TECH_GUNPOWDER?$AA@		; `string'
PUBLIC	??_C@_0BE@EJIFHDMN@TECH_PRINTING_PRESS?$AA@	; `string'
PUBLIC	??_C@_0N@EOMBEFMB@TECH_BANKING?$AA@		; `string'
PUBLIC	??_C@_0P@GBFFINLK@TECH_ACOUSTICS?$AA@		; `string'
PUBLIC	??_C@_0P@KCLNALKH@TECH_ASTRONOMY?$AA@		; `string'
PUBLIC	??_C@_0L@CNKIKHOK@TECH_STEEL?$AA@		; `string'
PUBLIC	??_C@_0N@INPCJMCC@TECH_PHYSICS?$AA@		; `string'
PUBLIC	??_C@_0P@CBPJJNFI@TECH_MACHINERY?$AA@		; `string'
PUBLIC	??_C@_0O@HFBLBHAM@TECH_CHIVALRY?$AA@		; `string'
PUBLIC	??_C@_0P@FNMCPCPG@TECH_EDUCATION?$AA@		; `string'
PUBLIC	??_C@_0N@LMBECFKG@TECH_COMPASS?$AA@		; `string'
PUBLIC	??_C@_0BD@DDPCCAFE@TECH_METAL_CASTING?$AA@	; `string'
PUBLIC	??_C@_0M@DPECDFBN@TECH_GUILDS?$AA@		; `string'
PUBLIC	??_C@_0BD@DHKNNHNJ@TECH_CIVIL_SERVICE?$AA@	; `string'
PUBLIC	??_C@_0O@KOALALFH@TECH_THEOLOGY?$AA@		; `string'
PUBLIC	??_C@_0BC@PPEEJCDE@TECH_IRON_WORKING?$AA@	; `string'
PUBLIC	??_C@_0BB@OKFPFMCJ@TECH_ENGINEERING?$AA@	; `string'
PUBLIC	??_C@_0O@COIABONI@TECH_CURRENCY?$AA@		; `string'
PUBLIC	??_C@_0L@IIOENIML@TECH_DRAMA?$AA@		; `string'
PUBLIC	??_C@_0BA@KHDONNDG@TECH_PHILOSOPHY?$AA@		; `string'
PUBLIC	??_C@_0BC@LHFDJOLC@TECH_CONSTRUCTION?$AA@	; `string'
PUBLIC	??_C@_0BB@PIGLFBDI@TECH_MATHEMATICS?$AA@	; `string'
PUBLIC	??_C@_0BG@BHCMNEIE@TECH_HORSEBACK_RIDING?$AA@	; `string'
PUBLIC	??_C@_0M@PGIBFPEN@TECH_OPTICS?$AA@		; `string'
PUBLIC	??_C@_0BE@LNKOLOKH@TECH_BRONZE_WORKING?$AA@	; `string'
PUBLIC	??_C@_0N@IBIDLNJK@TECH_MASONRY?$AA@		; `string'
PUBLIC	??_C@_0P@KKLHOPEM@TECH_THE_WHEEL?$AA@		; `string'
PUBLIC	??_C@_0O@BOFEJDOG@TECH_TRAPPING?$AA@		; `string'
PUBLIC	??_C@_0N@NDBJMMDG@TECH_WRITING?$AA@		; `string'
PUBLIC	??_C@_0O@HFOCIGJ@TECH_CALENDAR?$AA@		; `string'
PUBLIC	??_C@_0N@FBPFJINM@TECH_SAILING?$AA@		; `string'
PUBLIC	??_C@_0M@EJOBNGBC@TECH_MINING?$AA@		; `string'
PUBLIC	??_C@_0N@OGONHHAM@TECH_ARCHERY?$AA@		; `string'
PUBLIC	??_C@_0BG@DCCALJP@TECH_ANIMAL_HUSBANDRY?$AA@	; `string'
PUBLIC	??_C@_0N@OLDGPDBH@TECH_POTTERY?$AA@		; `string'
PUBLIC	??_C@_0BB@DKMCOOLJ@TECH_AGRICULTURE?$AA@	; `string'
PUBLIC	?NO_QUEST_DATA@CvMinorCivQuest@@2HB		; CvMinorCivQuest::NO_QUEST_DATA
PUBLIC	?NO_TURN@CvMinorCivQuest@@2HB			; CvMinorCivQuest::NO_TURN
PUBLIC	?ms_V0ExpansionTechTags@@3PAPBDA		; ms_V0ExpansionTechTags
_DATA	SEGMENT
?ms_V0ExpansionTechTags@@3PAPBDA DD FLAT:??_C@_0BB@DKMCOOLJ@TECH_AGRICULTURE?$AA@ ; ms_V0ExpansionTechTags
	DD	FLAT:??_C@_0N@OLDGPDBH@TECH_POTTERY?$AA@
	DD	FLAT:??_C@_0BG@DCCALJP@TECH_ANIMAL_HUSBANDRY?$AA@
	DD	FLAT:??_C@_0N@OGONHHAM@TECH_ARCHERY?$AA@
	DD	FLAT:??_C@_0M@EJOBNGBC@TECH_MINING?$AA@
	DD	FLAT:??_C@_0N@FBPFJINM@TECH_SAILING?$AA@
	DD	FLAT:??_C@_0O@HFOCIGJ@TECH_CALENDAR?$AA@
	DD	FLAT:??_C@_0N@NDBJMMDG@TECH_WRITING?$AA@
	DD	FLAT:??_C@_0O@BOFEJDOG@TECH_TRAPPING?$AA@
	DD	FLAT:??_C@_0P@KKLHOPEM@TECH_THE_WHEEL?$AA@
	DD	FLAT:??_C@_0N@IBIDLNJK@TECH_MASONRY?$AA@
	DD	FLAT:??_C@_0BE@LNKOLOKH@TECH_BRONZE_WORKING?$AA@
	DD	FLAT:??_C@_0M@PGIBFPEN@TECH_OPTICS?$AA@
	DD	FLAT:??_C@_0BG@BHCMNEIE@TECH_HORSEBACK_RIDING?$AA@
	DD	FLAT:??_C@_0BB@PIGLFBDI@TECH_MATHEMATICS?$AA@
	DD	FLAT:??_C@_0BC@LHFDJOLC@TECH_CONSTRUCTION?$AA@
	DD	FLAT:??_C@_0BA@KHDONNDG@TECH_PHILOSOPHY?$AA@
	DD	FLAT:??_C@_0L@IIOENIML@TECH_DRAMA?$AA@
	DD	FLAT:??_C@_0O@COIABONI@TECH_CURRENCY?$AA@
	DD	FLAT:??_C@_0BB@OKFPFMCJ@TECH_ENGINEERING?$AA@
	DD	FLAT:??_C@_0BC@PPEEJCDE@TECH_IRON_WORKING?$AA@
	DD	FLAT:??_C@_0O@KOALALFH@TECH_THEOLOGY?$AA@
	DD	FLAT:??_C@_0BD@DHKNNHNJ@TECH_CIVIL_SERVICE?$AA@
	DD	FLAT:??_C@_0M@DPECDFBN@TECH_GUILDS?$AA@
	DD	FLAT:??_C@_0BD@DDPCCAFE@TECH_METAL_CASTING?$AA@
	DD	FLAT:??_C@_0N@LMBECFKG@TECH_COMPASS?$AA@
	DD	FLAT:??_C@_0P@FNMCPCPG@TECH_EDUCATION?$AA@
	DD	FLAT:??_C@_0O@HFBLBHAM@TECH_CHIVALRY?$AA@
	DD	FLAT:??_C@_0P@CBPJJNFI@TECH_MACHINERY?$AA@
	DD	FLAT:??_C@_0N@INPCJMCC@TECH_PHYSICS?$AA@
	DD	FLAT:??_C@_0L@CNKIKHOK@TECH_STEEL?$AA@
	DD	FLAT:??_C@_0P@KCLNALKH@TECH_ASTRONOMY?$AA@
	DD	FLAT:??_C@_0P@GBFFINLK@TECH_ACOUSTICS?$AA@
	DD	FLAT:??_C@_0N@EOMBEFMB@TECH_BANKING?$AA@
	DD	FLAT:??_C@_0BE@EJIFHDMN@TECH_PRINTING_PRESS?$AA@
	DD	FLAT:??_C@_0P@PBELMECB@TECH_GUNPOWDER?$AA@
	DD	FLAT:??_C@_0BA@NLCOFLJH@TECH_NAVIGATION?$AA@
	DD	FLAT:??_C@_0BC@EAJJMBFD@TECH_ARCHITECTURE?$AA@
	DD	FLAT:??_C@_0P@BEIDNCOH@TECH_ECONOMICS?$AA@
	DD	FLAT:??_C@_0BA@LJEFMFPL@TECH_METALLURGY?$AA@
	DD	FLAT:??_C@_0P@HHBBFOFJ@TECH_CHEMISTRY?$AA@
	DD	FLAT:??_C@_0BB@KLFMGMG@TECH_ARCHAEOLOGY?$AA@
	DD	FLAT:??_C@_0BH@PCFMKOBM@TECH_SCIENTIFIC_THEORY?$AA@
	DD	FLAT:??_C@_0BH@MGMKHAML@TECH_INDUSTRIALIZATION?$AA@
	DD	FLAT:??_C@_0BG@EJGDFPPF@TECH_MILITARY_SCIENCE?$AA@
	DD	FLAT:??_C@_0N@FPOGGEPA@TECH_RIFLING?$AA@
	DD	FLAT:??_C@_0BA@PMJHEBE@TECH_FERTILIZER?$AA@
	DD	FLAT:??_C@_0N@PKKJFPJP@TECH_BIOLOGY?$AA@
	DD	FLAT:??_C@_0BB@PHGCNHHO@TECH_STEAM_POWER?$AA@
	DD	FLAT:??_C@_0O@GKMLHLAB@TECH_DYNAMITE?$AA@
	DD	FLAT:??_C@_0BB@IDFIFHNI@TECH_ELECTRICITY?$AA@
	DD	FLAT:??_C@_0BH@MKPELENP@TECH_REPLACEABLE_PARTS?$AA@
	DD	FLAT:??_C@_0O@KHFLEIGB@TECH_RAILROAD?$AA@
	DD	FLAT:??_C@_0BD@CLJFKPHA@TECH_REFRIGERATION?$AA@
	DD	FLAT:??_C@_0BE@FFEPPPHF@TECH_HYDROELECTRICS?$AA@
	DD	FLAT:??_C@_0L@NEHPKBHP@TECH_RADIO?$AA@
	DD	FLAT:??_C@_0M@CMLGIFFI@TECH_FLIGHT?$AA@
	DD	FLAT:??_C@_0BA@EIGNECGO@TECH_BALLISTICS?$AA@
	DD	FLAT:??_C@_0BA@MDNDMIKO@TECH_COMBUSTION?$AA@
	DD	FLAT:??_C@_0N@HDBOCAAC@TECH_PLASTIC?$AA@
	DD	FLAT:??_C@_0P@OIHEKAJC@TECH_PENICILIN?$AA@
	DD	FLAT:??_C@_0BB@EOBHCNAL@TECH_ELECTRONICS?$AA@
	DD	FLAT:??_C@_0L@CFAAJMNL@TECH_RADAR?$AA@
	DD	FLAT:??_C@_0BD@HHJCHIND@TECH_COMBINED_ARMS?$AA@
	DD	FLAT:??_C@_0BD@GFKOIOEC@TECH_ATOMIC_THEORY?$AA@
	DD	FLAT:??_C@_0N@FEBMAJMI@TECH_ECOLOGY?$AA@
	DD	FLAT:??_C@_0P@BCOCBDKL@TECH_COMPUTERS?$AA@
	DD	FLAT:??_C@_0N@GGDCCEMN@TECH_TELECOM?$AA@
	DD	FLAT:??_C@_0O@LPHANPJM@TECH_ROCKETRY?$AA@
	DD	FLAT:??_C@_0BF@PMILJPKG@TECH_NUCLEAR_FISSION?$AA@
	DD	FLAT:??_C@_0BD@IIIMIMMC@TECH_GLOBALIZATION?$AA@
	DD	FLAT:??_C@_0O@JKGOIGID@TECH_ROBOTICS?$AA@
	DD	FLAT:??_C@_0BA@LBHEJNAN@TECH_SATELLITES?$AA@
	DD	FLAT:??_C@_0N@EKLGOFCE@TECH_STEALTH?$AA@
	DD	FLAT:??_C@_0BE@JPGFFPKB@TECH_MOBILE_TACTICS?$AA@
	DD	FLAT:??_C@_0M@OKPBDOAB@TECH_LASERS?$AA@
	DD	FLAT:??_C@_0BJ@IOAIODDB@TECH_ADVANCED_BALLISTICS?$AA@
	DD	FLAT:??_C@_0BG@HIHFFJIG@TECH_PARTICLE_PHYSICS?$AA@
	DD	FLAT:??_C@_0BE@EMEGLPJH@TECH_NANOTECHNOLOGY?$AA@
	DD	FLAT:??_C@_0BE@PFFFIOCE@TECH_NUCLEAR_FUSION?$AA@
	DD	FLAT:??_C@_0BB@FFPEIGMF@TECH_FUTURE_TECH?$AA@
_DATA	ENDS
;	COMDAT ??_C@_0BB@FFPEIGMF@TECH_FUTURE_TECH?$AA@
CONST	SEGMENT
??_C@_0BB@FFPEIGMF@TECH_FUTURE_TECH?$AA@ DB 'TECH_FUTURE_TECH', 00H ; `string'
CONST	ENDS
;	COMDAT ??_C@_0BE@PFFFIOCE@TECH_NUCLEAR_FUSION?$AA@
CONST	SEGMENT
??_C@_0BE@PFFFIOCE@TECH_NUCLEAR_FUSION?$AA@ DB 'TECH_NUCLEAR_FUSION', 00H ; `string'
CONST	ENDS
;	COMDAT ??_C@_0BE@EMEGLPJH@TECH_NANOTECHNOLOGY?$AA@
CONST	SEGMENT
??_C@_0BE@EMEGLPJH@TECH_NANOTECHNOLOGY?$AA@ DB 'TECH_NANOTECHNOLOGY', 00H ; `string'
CONST	ENDS
;	COMDAT ??_C@_0BG@HIHFFJIG@TECH_PARTICLE_PHYSICS?$AA@
CONST	SEGMENT
??_C@_0BG@HIHFFJIG@TECH_PARTICLE_PHYSICS?$AA@ DB 'TECH_PARTICLE_PHYSICS', 00H ; `string'
CONST	ENDS
;	COMDAT ??_C@_0BJ@IOAIODDB@TECH_ADVANCED_BALLISTICS?$AA@
CONST	SEGMENT
??_C@_0BJ@IOAIODDB@TECH_ADVANCED_BALLISTICS?$AA@ DB 'TECH_ADVANCED_BALLIS'
	DB	'TICS', 00H					; `string'
CONST	ENDS
;	COMDAT ??_C@_0M@OKPBDOAB@TECH_LASERS?$AA@
CONST	SEGMENT
??_C@_0M@OKPBDOAB@TECH_LASERS?$AA@ DB 'TECH_LASERS', 00H ; `string'
CONST	ENDS
;	COMDAT ??_C@_0BE@JPGFFPKB@TECH_MOBILE_TACTICS?$AA@
CONST	SEGMENT
??_C@_0BE@JPGFFPKB@TECH_MOBILE_TACTICS?$AA@ DB 'TECH_MOBILE_TACTICS', 00H ; `string'
CONST	ENDS
;	COMDAT ??_C@_0N@EKLGOFCE@TECH_STEALTH?$AA@
CONST	SEGMENT
??_C@_0N@EKLGOFCE@TECH_STEALTH?$AA@ DB 'TECH_STEALTH', 00H ; `string'
CONST	ENDS
;	COMDAT ??_C@_0BA@LBHEJNAN@TECH_SATELLITES?$AA@
CONST	SEGMENT
??_C@_0BA@LBHEJNAN@TECH_SATELLITES?$AA@ DB 'TECH_SATELLITES', 00H ; `string'
CONST	ENDS
;	COMDAT ??_C@_0O@JKGOIGID@TECH_ROBOTICS?$AA@
CONST	SEGMENT
??_C@_0O@JKGOIGID@TECH_ROBOTICS?$AA@ DB 'TECH_ROBOTICS', 00H ; `string'
CONST	ENDS
;	COMDAT ??_C@_0BD@IIIMIMMC@TECH_GLOBALIZATION?$AA@
CONST	SEGMENT
??_C@_0BD@IIIMIMMC@TECH_GLOBALIZATION?$AA@ DB 'TECH_GLOBALIZATION', 00H ; `string'
CONST	ENDS
;	COMDAT ??_C@_0BF@PMILJPKG@TECH_NUCLEAR_FISSION?$AA@
CONST	SEGMENT
??_C@_0BF@PMILJPKG@TECH_NUCLEAR_FISSION?$AA@ DB 'TECH_NUCLEAR_FISSION', 00H ; `string'
CONST	ENDS
;	COMDAT ??_C@_0O@LPHANPJM@TECH_ROCKETRY?$AA@
CONST	SEGMENT
??_C@_0O@LPHANPJM@TECH_ROCKETRY?$AA@ DB 'TECH_ROCKETRY', 00H ; `string'
CONST	ENDS
;	COMDAT ??_C@_0N@GGDCCEMN@TECH_TELECOM?$AA@
CONST	SEGMENT
??_C@_0N@GGDCCEMN@TECH_TELECOM?$AA@ DB 'TECH_TELECOM', 00H ; `string'
CONST	ENDS
;	COMDAT ??_C@_0P@BCOCBDKL@TECH_COMPUTERS?$AA@
CONST	SEGMENT
??_C@_0P@BCOCBDKL@TECH_COMPUTERS?$AA@ DB 'TECH_COMPUTERS', 00H ; `string'
CONST	ENDS
;	COMDAT ??_C@_0N@FEBMAJMI@TECH_ECOLOGY?$AA@
CONST	SEGMENT
??_C@_0N@FEBMAJMI@TECH_ECOLOGY?$AA@ DB 'TECH_ECOLOGY', 00H ; `string'
CONST	ENDS
;	COMDAT ??_C@_0BD@GFKOIOEC@TECH_ATOMIC_THEORY?$AA@
CONST	SEGMENT
??_C@_0BD@GFKOIOEC@TECH_ATOMIC_THEORY?$AA@ DB 'TECH_ATOMIC_THEORY', 00H ; `string'
CONST	ENDS
;	COMDAT ??_C@_0BD@HHJCHIND@TECH_COMBINED_ARMS?$AA@
CONST	SEGMENT
??_C@_0BD@HHJCHIND@TECH_COMBINED_ARMS?$AA@ DB 'TECH_COMBINED_ARMS', 00H ; `string'
CONST	ENDS
;	COMDAT ??_C@_0L@CFAAJMNL@TECH_RADAR?$AA@
CONST	SEGMENT
??_C@_0L@CFAAJMNL@TECH_RADAR?$AA@ DB 'TECH_RADAR', 00H	; `string'
CONST	ENDS
;	COMDAT ??_C@_0BB@EOBHCNAL@TECH_ELECTRONICS?$AA@
CONST	SEGMENT
??_C@_0BB@EOBHCNAL@TECH_ELECTRONICS?$AA@ DB 'TECH_ELECTRONICS', 00H ; `string'
CONST	ENDS
;	COMDAT ??_C@_0P@OIHEKAJC@TECH_PENICILIN?$AA@
CONST	SEGMENT
??_C@_0P@OIHEKAJC@TECH_PENICILIN?$AA@ DB 'TECH_PENICILIN', 00H ; `string'
CONST	ENDS
;	COMDAT ??_C@_0N@HDBOCAAC@TECH_PLASTIC?$AA@
CONST	SEGMENT
??_C@_0N@HDBOCAAC@TECH_PLASTIC?$AA@ DB 'TECH_PLASTIC', 00H ; `string'
CONST	ENDS
;	COMDAT ??_C@_0BA@MDNDMIKO@TECH_COMBUSTION?$AA@
CONST	SEGMENT
??_C@_0BA@MDNDMIKO@TECH_COMBUSTION?$AA@ DB 'TECH_COMBUSTION', 00H ; `string'
CONST	ENDS
;	COMDAT ??_C@_0BA@EIGNECGO@TECH_BALLISTICS?$AA@
CONST	SEGMENT
??_C@_0BA@EIGNECGO@TECH_BALLISTICS?$AA@ DB 'TECH_BALLISTICS', 00H ; `string'
CONST	ENDS
;	COMDAT ??_C@_0M@CMLGIFFI@TECH_FLIGHT?$AA@
CONST	SEGMENT
??_C@_0M@CMLGIFFI@TECH_FLIGHT?$AA@ DB 'TECH_FLIGHT', 00H ; `string'
CONST	ENDS
;	COMDAT ??_C@_0L@NEHPKBHP@TECH_RADIO?$AA@
CONST	SEGMENT
??_C@_0L@NEHPKBHP@TECH_RADIO?$AA@ DB 'TECH_RADIO', 00H	; `string'
CONST	ENDS
;	COMDAT ??_C@_0BE@FFEPPPHF@TECH_HYDROELECTRICS?$AA@
CONST	SEGMENT
??_C@_0BE@FFEPPPHF@TECH_HYDROELECTRICS?$AA@ DB 'TECH_HYDROELECTRICS', 00H ; `string'
CONST	ENDS
;	COMDAT ??_C@_0BD@CLJFKPHA@TECH_REFRIGERATION?$AA@
CONST	SEGMENT
??_C@_0BD@CLJFKPHA@TECH_REFRIGERATION?$AA@ DB 'TECH_REFRIGERATION', 00H ; `string'
CONST	ENDS
;	COMDAT ??_C@_0O@KHFLEIGB@TECH_RAILROAD?$AA@
CONST	SEGMENT
??_C@_0O@KHFLEIGB@TECH_RAILROAD?$AA@ DB 'TECH_RAILROAD', 00H ; `string'
CONST	ENDS
;	COMDAT ??_C@_0BH@MKPELENP@TECH_REPLACEABLE_PARTS?$AA@
CONST	SEGMENT
??_C@_0BH@MKPELENP@TECH_REPLACEABLE_PARTS?$AA@ DB 'TECH_REPLACEABLE_PARTS'
	DB	00H						; `string'
CONST	ENDS
;	COMDAT ??_C@_0BB@IDFIFHNI@TECH_ELECTRICITY?$AA@
CONST	SEGMENT
??_C@_0BB@IDFIFHNI@TECH_ELECTRICITY?$AA@ DB 'TECH_ELECTRICITY', 00H ; `string'
CONST	ENDS
;	COMDAT ??_C@_0O@GKMLHLAB@TECH_DYNAMITE?$AA@
CONST	SEGMENT
??_C@_0O@GKMLHLAB@TECH_DYNAMITE?$AA@ DB 'TECH_DYNAMITE', 00H ; `string'
CONST	ENDS
;	COMDAT ??_C@_0BB@PHGCNHHO@TECH_STEAM_POWER?$AA@
CONST	SEGMENT
??_C@_0BB@PHGCNHHO@TECH_STEAM_POWER?$AA@ DB 'TECH_STEAM_POWER', 00H ; `string'
CONST	ENDS
;	COMDAT ??_C@_0N@PKKJFPJP@TECH_BIOLOGY?$AA@
CONST	SEGMENT
??_C@_0N@PKKJFPJP@TECH_BIOLOGY?$AA@ DB 'TECH_BIOLOGY', 00H ; `string'
CONST	ENDS
;	COMDAT ??_C@_0BA@PMJHEBE@TECH_FERTILIZER?$AA@
CONST	SEGMENT
??_C@_0BA@PMJHEBE@TECH_FERTILIZER?$AA@ DB 'TECH_FERTILIZER', 00H ; `string'
CONST	ENDS
;	COMDAT ??_C@_0N@FPOGGEPA@TECH_RIFLING?$AA@
CONST	SEGMENT
??_C@_0N@FPOGGEPA@TECH_RIFLING?$AA@ DB 'TECH_RIFLING', 00H ; `string'
CONST	ENDS
;	COMDAT ??_C@_0BG@EJGDFPPF@TECH_MILITARY_SCIENCE?$AA@
CONST	SEGMENT
??_C@_0BG@EJGDFPPF@TECH_MILITARY_SCIENCE?$AA@ DB 'TECH_MILITARY_SCIENCE', 00H ; `string'
CONST	ENDS
;	COMDAT ??_C@_0BH@MGMKHAML@TECH_INDUSTRIALIZATION?$AA@
CONST	SEGMENT
??_C@_0BH@MGMKHAML@TECH_INDUSTRIALIZATION?$AA@ DB 'TECH_INDUSTRIALIZATION'
	DB	00H						; `string'
CONST	ENDS
;	COMDAT ??_C@_0BH@PCFMKOBM@TECH_SCIENTIFIC_THEORY?$AA@
CONST	SEGMENT
??_C@_0BH@PCFMKOBM@TECH_SCIENTIFIC_THEORY?$AA@ DB 'TECH_SCIENTIFIC_THEORY'
	DB	00H						; `string'
CONST	ENDS
;	COMDAT ??_C@_0BB@KLFMGMG@TECH_ARCHAEOLOGY?$AA@
CONST	SEGMENT
??_C@_0BB@KLFMGMG@TECH_ARCHAEOLOGY?$AA@ DB 'TECH_ARCHAEOLOGY', 00H ; `string'
CONST	ENDS
;	COMDAT ??_C@_0P@HHBBFOFJ@TECH_CHEMISTRY?$AA@
CONST	SEGMENT
??_C@_0P@HHBBFOFJ@TECH_CHEMISTRY?$AA@ DB 'TECH_CHEMISTRY', 00H ; `string'
CONST	ENDS
;	COMDAT ??_C@_0BA@LJEFMFPL@TECH_METALLURGY?$AA@
CONST	SEGMENT
??_C@_0BA@LJEFMFPL@TECH_METALLURGY?$AA@ DB 'TECH_METALLURGY', 00H ; `string'
CONST	ENDS
;	COMDAT ??_C@_0P@BEIDNCOH@TECH_ECONOMICS?$AA@
CONST	SEGMENT
??_C@_0P@BEIDNCOH@TECH_ECONOMICS?$AA@ DB 'TECH_ECONOMICS', 00H ; `string'
CONST	ENDS
;	COMDAT ??_C@_0BC@EAJJMBFD@TECH_ARCHITECTURE?$AA@
CONST	SEGMENT
??_C@_0BC@EAJJMBFD@TECH_ARCHITECTURE?$AA@ DB 'TECH_ARCHITECTURE', 00H ; `string'
CONST	ENDS
;	COMDAT ??_C@_0BA@NLCOFLJH@TECH_NAVIGATION?$AA@
CONST	SEGMENT
??_C@_0BA@NLCOFLJH@TECH_NAVIGATION?$AA@ DB 'TECH_NAVIGATION', 00H ; `string'
CONST	ENDS
;	COMDAT ??_C@_0P@PBELMECB@TECH_GUNPOWDER?$AA@
CONST	SEGMENT
??_C@_0P@PBELMECB@TECH_GUNPOWDER?$AA@ DB 'TECH_GUNPOWDER', 00H ; `string'
CONST	ENDS
;	COMDAT ??_C@_0BE@EJIFHDMN@TECH_PRINTING_PRESS?$AA@
CONST	SEGMENT
??_C@_0BE@EJIFHDMN@TECH_PRINTING_PRESS?$AA@ DB 'TECH_PRINTING_PRESS', 00H ; `string'
CONST	ENDS
;	COMDAT ??_C@_0N@EOMBEFMB@TECH_BANKING?$AA@
CONST	SEGMENT
??_C@_0N@EOMBEFMB@TECH_BANKING?$AA@ DB 'TECH_BANKING', 00H ; `string'
CONST	ENDS
;	COMDAT ??_C@_0P@GBFFINLK@TECH_ACOUSTICS?$AA@
CONST	SEGMENT
??_C@_0P@GBFFINLK@TECH_ACOUSTICS?$AA@ DB 'TECH_ACOUSTICS', 00H ; `string'
CONST	ENDS
;	COMDAT ??_C@_0P@KCLNALKH@TECH_ASTRONOMY?$AA@
CONST	SEGMENT
??_C@_0P@KCLNALKH@TECH_ASTRONOMY?$AA@ DB 'TECH_ASTRONOMY', 00H ; `string'
CONST	ENDS
;	COMDAT ??_C@_0L@CNKIKHOK@TECH_STEEL?$AA@
CONST	SEGMENT
??_C@_0L@CNKIKHOK@TECH_STEEL?$AA@ DB 'TECH_STEEL', 00H	; `string'
CONST	ENDS
;	COMDAT ??_C@_0N@INPCJMCC@TECH_PHYSICS?$AA@
CONST	SEGMENT
??_C@_0N@INPCJMCC@TECH_PHYSICS?$AA@ DB 'TECH_PHYSICS', 00H ; `string'
CONST	ENDS
;	COMDAT ??_C@_0P@CBPJJNFI@TECH_MACHINERY?$AA@
CONST	SEGMENT
??_C@_0P@CBPJJNFI@TECH_MACHINERY?$AA@ DB 'TECH_MACHINERY', 00H ; `string'
CONST	ENDS
;	COMDAT ??_C@_0O@HFBLBHAM@TECH_CHIVALRY?$AA@
CONST	SEGMENT
??_C@_0O@HFBLBHAM@TECH_CHIVALRY?$AA@ DB 'TECH_CHIVALRY', 00H ; `string'
CONST	ENDS
;	COMDAT ??_C@_0P@FNMCPCPG@TECH_EDUCATION?$AA@
CONST	SEGMENT
??_C@_0P@FNMCPCPG@TECH_EDUCATION?$AA@ DB 'TECH_EDUCATION', 00H ; `string'
CONST	ENDS
;	COMDAT ??_C@_0N@LMBECFKG@TECH_COMPASS?$AA@
CONST	SEGMENT
??_C@_0N@LMBECFKG@TECH_COMPASS?$AA@ DB 'TECH_COMPASS', 00H ; `string'
CONST	ENDS
;	COMDAT ??_C@_0BD@DDPCCAFE@TECH_METAL_CASTING?$AA@
CONST	SEGMENT
??_C@_0BD@DDPCCAFE@TECH_METAL_CASTING?$AA@ DB 'TECH_METAL_CASTING', 00H ; `string'
CONST	ENDS
;	COMDAT ??_C@_0M@DPECDFBN@TECH_GUILDS?$AA@
CONST	SEGMENT
??_C@_0M@DPECDFBN@TECH_GUILDS?$AA@ DB 'TECH_GUILDS', 00H ; `string'
CONST	ENDS
;	COMDAT ??_C@_0BD@DHKNNHNJ@TECH_CIVIL_SERVICE?$AA@
CONST	SEGMENT
??_C@_0BD@DHKNNHNJ@TECH_CIVIL_SERVICE?$AA@ DB 'TECH_CIVIL_SERVICE', 00H ; `string'
CONST	ENDS
;	COMDAT ??_C@_0O@KOALALFH@TECH_THEOLOGY?$AA@
CONST	SEGMENT
??_C@_0O@KOALALFH@TECH_THEOLOGY?$AA@ DB 'TECH_THEOLOGY', 00H ; `string'
CONST	ENDS
;	COMDAT ??_C@_0BC@PPEEJCDE@TECH_IRON_WORKING?$AA@
CONST	SEGMENT
??_C@_0BC@PPEEJCDE@TECH_IRON_WORKING?$AA@ DB 'TECH_IRON_WORKING', 00H ; `string'
CONST	ENDS
;	COMDAT ??_C@_0BB@OKFPFMCJ@TECH_ENGINEERING?$AA@
CONST	SEGMENT
??_C@_0BB@OKFPFMCJ@TECH_ENGINEERING?$AA@ DB 'TECH_ENGINEERING', 00H ; `string'
CONST	ENDS
;	COMDAT ??_C@_0O@COIABONI@TECH_CURRENCY?$AA@
CONST	SEGMENT
??_C@_0O@COIABONI@TECH_CURRENCY?$AA@ DB 'TECH_CURRENCY', 00H ; `string'
CONST	ENDS
;	COMDAT ??_C@_0L@IIOENIML@TECH_DRAMA?$AA@
CONST	SEGMENT
??_C@_0L@IIOENIML@TECH_DRAMA?$AA@ DB 'TECH_DRAMA', 00H	; `string'
CONST	ENDS
;	COMDAT ??_C@_0BA@KHDONNDG@TECH_PHILOSOPHY?$AA@
CONST	SEGMENT
??_C@_0BA@KHDONNDG@TECH_PHILOSOPHY?$AA@ DB 'TECH_PHILOSOPHY', 00H ; `string'
CONST	ENDS
;	COMDAT ??_C@_0BC@LHFDJOLC@TECH_CONSTRUCTION?$AA@
CONST	SEGMENT
??_C@_0BC@LHFDJOLC@TECH_CONSTRUCTION?$AA@ DB 'TECH_CONSTRUCTION', 00H ; `string'
CONST	ENDS
;	COMDAT ??_C@_0BB@PIGLFBDI@TECH_MATHEMATICS?$AA@
CONST	SEGMENT
??_C@_0BB@PIGLFBDI@TECH_MATHEMATICS?$AA@ DB 'TECH_MATHEMATICS', 00H ; `string'
CONST	ENDS
;	COMDAT ??_C@_0BG@BHCMNEIE@TECH_HORSEBACK_RIDING?$AA@
CONST	SEGMENT
??_C@_0BG@BHCMNEIE@TECH_HORSEBACK_RIDING?$AA@ DB 'TECH_HORSEBACK_RIDING', 00H ; `string'
CONST	ENDS
;	COMDAT ??_C@_0M@PGIBFPEN@TECH_OPTICS?$AA@
CONST	SEGMENT
??_C@_0M@PGIBFPEN@TECH_OPTICS?$AA@ DB 'TECH_OPTICS', 00H ; `string'
CONST	ENDS
;	COMDAT ??_C@_0BE@LNKOLOKH@TECH_BRONZE_WORKING?$AA@
CONST	SEGMENT
??_C@_0BE@LNKOLOKH@TECH_BRONZE_WORKING?$AA@ DB 'TECH_BRONZE_WORKING', 00H ; `string'
CONST	ENDS
;	COMDAT ??_C@_0N@IBIDLNJK@TECH_MASONRY?$AA@
CONST	SEGMENT
??_C@_0N@IBIDLNJK@TECH_MASONRY?$AA@ DB 'TECH_MASONRY', 00H ; `string'
CONST	ENDS
;	COMDAT ??_C@_0P@KKLHOPEM@TECH_THE_WHEEL?$AA@
CONST	SEGMENT
??_C@_0P@KKLHOPEM@TECH_THE_WHEEL?$AA@ DB 'TECH_THE_WHEEL', 00H ; `string'
CONST	ENDS
;	COMDAT ??_C@_0O@BOFEJDOG@TECH_TRAPPING?$AA@
CONST	SEGMENT
??_C@_0O@BOFEJDOG@TECH_TRAPPING?$AA@ DB 'TECH_TRAPPING', 00H ; `string'
CONST	ENDS
;	COMDAT ??_C@_0N@NDBJMMDG@TECH_WRITING?$AA@
CONST	SEGMENT
??_C@_0N@NDBJMMDG@TECH_WRITING?$AA@ DB 'TECH_WRITING', 00H ; `string'
CONST	ENDS
;	COMDAT ??_C@_0O@HFOCIGJ@TECH_CALENDAR?$AA@
CONST	SEGMENT
??_C@_0O@HFOCIGJ@TECH_CALENDAR?$AA@ DB 'TECH_CALENDAR', 00H ; `string'
CONST	ENDS
;	COMDAT ??_C@_0N@FBPFJINM@TECH_SAILING?$AA@
CONST	SEGMENT
??_C@_0N@FBPFJINM@TECH_SAILING?$AA@ DB 'TECH_SAILING', 00H ; `string'
CONST	ENDS
;	COMDAT ??_C@_0M@EJOBNGBC@TECH_MINING?$AA@
CONST	SEGMENT
??_C@_0M@EJOBNGBC@TECH_MINING?$AA@ DB 'TECH_MINING', 00H ; `string'
CONST	ENDS
;	COMDAT ??_C@_0N@OGONHHAM@TECH_ARCHERY?$AA@
CONST	SEGMENT
??_C@_0N@OGONHHAM@TECH_ARCHERY?$AA@ DB 'TECH_ARCHERY', 00H ; `string'
CONST	ENDS
;	COMDAT ??_C@_0BG@DCCALJP@TECH_ANIMAL_HUSBANDRY?$AA@
CONST	SEGMENT
??_C@_0BG@DCCALJP@TECH_ANIMAL_HUSBANDRY?$AA@ DB 'TECH_ANIMAL_HUSBANDRY', 00H ; `string'
CONST	ENDS
;	COMDAT ??_C@_0N@OLDGPDBH@TECH_POTTERY?$AA@
CONST	SEGMENT
??_C@_0N@OLDGPDBH@TECH_POTTERY?$AA@ DB 'TECH_POTTERY', 00H ; `string'
CONST	ENDS
;	COMDAT ??_C@_0BB@DKMCOOLJ@TECH_AGRICULTURE?$AA@
CONST	SEGMENT
??_C@_0BB@DKMCOOLJ@TECH_AGRICULTURE?$AA@ DB 'TECH_AGRICULTURE', 00H ; `string'
CONST	ENDS
;	COMDAT ?NO_TURN@CvMinorCivQuest@@2HB
CONST	SEGMENT
?NO_TURN@CvMinorCivQuest@@2HB DD 0ffffffffH		; CvMinorCivQuest::NO_TURN
CONST	ENDS
;	COMDAT ?NO_QUEST_DATA@CvMinorCivQuest@@2HB
CONST	SEGMENT
?NO_QUEST_DATA@CvMinorCivQuest@@2HB DD 0ffffffffH	; CvMinorCivQuest::NO_QUEST_DATA
CONST	ENDS
PUBLIC	??1CvString@@QAE@XZ				; CvString::~CvString
PUBLIC	??1CvBaseInfo@@QAE@XZ				; CvBaseInfo::~CvBaseInfo
PUBLIC	??_7CvTechEntry@@6B@				; CvTechEntry::`vftable'
PUBLIC	??0CvTechEntry@@QAE@XZ				; CvTechEntry::CvTechEntry
PUBLIC	?CacheResults@CvTechEntry@@UAE_NAAVResults@Database@@AAVCvDatabaseUtility@@@Z ; CvTechEntry::CacheResults
EXTRN	__imp_??0?$basic_string@DU?$char_traits@D@std@@V?$allocator@D@2@@std@@QAE@XZ:PROC
EXTRN	??0CvBaseInfo@@QAE@XZ:PROC			; CvBaseInfo::CvBaseInfo
EXTRN	___security_cookie:DWORD
EXTRN	___CxxFrameHandler3:PROC
EXTRN	@__security_check_cookie@4:PROC
EXTRN	??8CvBaseInfo@@UBE_NABV0@@Z:PROC		; CvBaseInfo::operator==
EXTRN	?readFrom@CvBaseInfo@@UAEXAAVFDataStream@@@Z:PROC ; CvBaseInfo::readFrom
EXTRN	?writeTo@CvBaseInfo@@UBEXAAVFDataStream@@@Z:PROC ; CvBaseInfo::writeTo
;	COMDAT ??_7CvTechEntry@@6B@
; File d:\sources\lekmod_git\checkout\lekmod_dll\cvgamecoredllutil\include\cvstring.h
CONST	SEGMENT
??_7CvTechEntry@@6B@ DD FLAT:?CacheResults@CvTechEntry@@UAE_NAAVResults@Database@@AAVCvDatabaseUtility@@@Z ; CvTechEntry::`vftable'
	DD	FLAT:??8CvBaseInfo@@UBE_NABV0@@Z
	DD	FLAT:?readFrom@CvBaseInfo@@UAEXAAVFDataStream@@@Z
	DD	FLAT:?writeTo@CvBaseInfo@@UBEXAAVFDataStream@@@Z
CONST	ENDS
;	COMDAT xdata$x
xdata$x	SEGMENT
__unwindtable$??0CvTechEntry@@QAE@XZ DD 0ffffffffH
	DD	FLAT:__unwindfunclet$??0CvTechEntry@@QAE@XZ$0
	DD	00H
	DD	FLAT:__unwindfunclet$??0CvTechEntry@@QAE@XZ$1
	DD	01H
	DD	FLAT:__unwindfunclet$??0CvTechEntry@@QAE@XZ$2
	DD	02H
	DD	FLAT:__unwindfunclet$??0CvTechEntry@@QAE@XZ$3
__ehfuncinfo$??0CvTechEntry@@QAE@XZ DD 019930522H
	DD	04H
	DD	FLAT:__unwindtable$??0CvTechEntry@@QAE@XZ
	DD	2 DUP(00H)
	DD	2 DUP(00H)
	DD	00H
	DD	01H
; Function compile flags: /Odtp
; File d:\sources\lekmod_git\checkout\lekmod_dll\cvgamecoredll_expansion2\cvtechclasses.cpp
xdata$x	ENDS
;	COMDAT ??0CvTechEntry@@QAE@XZ
_TEXT	SEGMENT
_this$ = -32						; size = 4
$T226102 = -28						; size = 4
$T226097 = -24						; size = 4
$T226092 = -20						; size = 4
$T226087 = -16						; size = 4
__$EHRec$ = -12						; size = 12
??0CvTechEntry@@QAE@XZ PROC				; CvTechEntry::CvTechEntry, COMDAT
; _this$ = ecx

; 78   : {

	push	ebp
	mov	ebp, esp
	push	-1
	push	__ehhandler$??0CvTechEntry@@QAE@XZ
	mov	eax, DWORD PTR fs:0
	push	eax
	sub	esp, 20					; 00000014H
	mov	eax, DWORD PTR ___security_cookie
	xor	eax, ebp
	push	eax
	lea	eax, DWORD PTR __$EHRec$[ebp]
	mov	DWORD PTR fs:0, eax
	mov	DWORD PTR _this$[ebp], ecx
	mov	ecx, DWORD PTR _this$[ebp]
	call	??0CvBaseInfo@@QAE@XZ			; CvBaseInfo::CvBaseInfo
	mov	DWORD PTR __$EHRec$[ebp+8], 0
	mov	eax, DWORD PTR _this$[ebp]
	mov	DWORD PTR [eax], OFFSET ??_7CvTechEntry@@6B@
	mov	ecx, DWORD PTR _this$[ebp]
	mov	DWORD PTR [ecx+260], 0
	mov	edx, DWORD PTR _this$[ebp]
	mov	DWORD PTR [edx+264], 0
	mov	eax, DWORD PTR _this$[ebp]
	mov	DWORD PTR [eax+268], 0
	mov	ecx, DWORD PTR _this$[ebp]
	mov	DWORD PTR [ecx+272], 0
	mov	edx, DWORD PTR _this$[ebp]
	mov	DWORD PTR [edx+276], -1
	mov	eax, DWORD PTR _this$[ebp]
	mov	DWORD PTR [eax+280], 0
	mov	ecx, DWORD PTR _this$[ebp]
	mov	DWORD PTR [ecx+284], 0
	mov	edx, DWORD PTR _this$[ebp]
	mov	DWORD PTR [edx+288], 0
	mov	eax, DWORD PTR _this$[ebp]
	mov	DWORD PTR [eax+292], 0
	mov	ecx, DWORD PTR _this$[ebp]
	mov	DWORD PTR [ecx+296], -1
	mov	edx, DWORD PTR _this$[ebp]
	mov	DWORD PTR [edx+300], 0
	mov	eax, DWORD PTR _this$[ebp]
	mov	DWORD PTR [eax+304], 0
	mov	ecx, DWORD PTR _this$[ebp]
	mov	DWORD PTR [ecx+308], 0
	mov	edx, DWORD PTR _this$[ebp]
	mov	DWORD PTR [edx+312], 0
	mov	eax, DWORD PTR _this$[ebp]
	mov	DWORD PTR [eax+316], 0
	mov	ecx, DWORD PTR _this$[ebp]
	mov	DWORD PTR [ecx+320], 0
	mov	edx, DWORD PTR _this$[ebp]
	mov	DWORD PTR [edx+324], 0
	mov	eax, DWORD PTR _this$[ebp]
	mov	DWORD PTR [eax+328], 0
	mov	ecx, DWORD PTR _this$[ebp]
	mov	BYTE PTR [ecx+332], 0
	mov	edx, DWORD PTR _this$[ebp]
	mov	BYTE PTR [edx+333], 0
	mov	eax, DWORD PTR _this$[ebp]
	mov	BYTE PTR [eax+334], 0
	mov	ecx, DWORD PTR _this$[ebp]
	mov	BYTE PTR [ecx+335], 0
	mov	edx, DWORD PTR _this$[ebp]
	mov	BYTE PTR [edx+336], 0
	mov	eax, DWORD PTR _this$[ebp]
	mov	BYTE PTR [eax+337], 0
	mov	ecx, DWORD PTR _this$[ebp]
	mov	BYTE PTR [ecx+338], 0
	mov	edx, DWORD PTR _this$[ebp]
	mov	BYTE PTR [edx+339], 0
	mov	eax, DWORD PTR _this$[ebp]
	mov	BYTE PTR [eax+340], 0
	mov	ecx, DWORD PTR _this$[ebp]
	mov	BYTE PTR [ecx+341], 0
	mov	edx, DWORD PTR _this$[ebp]
	mov	BYTE PTR [edx+342], 0
	mov	eax, DWORD PTR _this$[ebp]
	mov	BYTE PTR [eax+343], 0
	mov	ecx, DWORD PTR _this$[ebp]
	mov	BYTE PTR [ecx+344], 0
	mov	edx, DWORD PTR _this$[ebp]
	mov	BYTE PTR [edx+345], 0
	mov	eax, DWORD PTR _this$[ebp]
	mov	BYTE PTR [eax+346], 0
	mov	ecx, DWORD PTR _this$[ebp]
	mov	BYTE PTR [ecx+347], 0
	mov	edx, DWORD PTR _this$[ebp]
	mov	BYTE PTR [edx+348], 0
	mov	eax, DWORD PTR _this$[ebp]
	mov	BYTE PTR [eax+349], 0
	mov	ecx, DWORD PTR _this$[ebp]
	mov	BYTE PTR [ecx+350], 0
	mov	edx, DWORD PTR _this$[ebp]
	mov	BYTE PTR [edx+351], 0
	mov	eax, DWORD PTR _this$[ebp]
	mov	BYTE PTR [eax+352], 0
	mov	ecx, DWORD PTR _this$[ebp]
	mov	BYTE PTR [ecx+353], 0
	mov	edx, DWORD PTR _this$[ebp]
	mov	BYTE PTR [edx+354], 0
	mov	eax, DWORD PTR _this$[ebp]
	mov	BYTE PTR [eax+355], 0
	mov	ecx, DWORD PTR _this$[ebp]
	mov	BYTE PTR [ecx+356], 0
	mov	edx, DWORD PTR _this$[ebp]
	mov	BYTE PTR [edx+357], 0
	mov	eax, DWORD PTR _this$[ebp]
	mov	BYTE PTR [eax+358], 0
	mov	ecx, DWORD PTR _this$[ebp]
	add	ecx, 360				; 00000168H
	mov	DWORD PTR $T226087[ebp], ecx
	mov	ecx, DWORD PTR $T226087[ebp]
	call	DWORD PTR __imp_??0?$basic_string@DU?$char_traits@D@std@@V?$allocator@D@2@@std@@QAE@XZ
	mov	BYTE PTR __$EHRec$[ebp+8], 1
	mov	edx, DWORD PTR _this$[ebp]
	add	edx, 388				; 00000184H
	mov	DWORD PTR $T226092[ebp], edx
	mov	ecx, DWORD PTR $T226092[ebp]
	call	DWORD PTR __imp_??0?$basic_string@DU?$char_traits@D@std@@V?$allocator@D@2@@std@@QAE@XZ
	mov	BYTE PTR __$EHRec$[ebp+8], 2
	mov	eax, DWORD PTR _this$[ebp]
	add	eax, 416				; 000001a0H
	mov	DWORD PTR $T226097[ebp], eax
	mov	ecx, DWORD PTR $T226097[ebp]
	call	DWORD PTR __imp_??0?$basic_string@DU?$char_traits@D@std@@V?$allocator@D@2@@std@@QAE@XZ
	mov	BYTE PTR __$EHRec$[ebp+8], 3
	mov	ecx, DWORD PTR _this$[ebp]
	add	ecx, 444				; 000001bcH
	mov	DWORD PTR $T226102[ebp], ecx
	mov	ecx, DWORD PTR $T226102[ebp]
	call	DWORD PTR __imp_??0?$basic_string@DU?$char_traits@D@std@@V?$allocator@D@2@@std@@QAE@XZ
	mov	edx, DWORD PTR _this$[ebp]
	mov	DWORD PTR [edx+472], 0
	mov	eax, DWORD PTR _this$[ebp]
	mov	DWORD PTR [eax+476], 0
	mov	ecx, DWORD PTR _this$[ebp]
	mov	DWORD PTR [ecx+480], 0
	mov	edx, DWORD PTR _this$[ebp]
	mov	DWORD PTR [edx+484], 0
	mov	eax, DWORD PTR _this$[ebp]
	mov	DWORD PTR [eax+488], 0
	mov	ecx, DWORD PTR _this$[ebp]
	mov	DWORD PTR [ecx+492], 0

; 79   : }

	mov	DWORD PTR __$EHRec$[ebp+8], -1
	mov	eax, DWORD PTR _this$[ebp]
	mov	ecx, DWORD PTR __$EHRec$[ebp]
	mov	DWORD PTR fs:0, ecx
	pop	ecx
	mov	esp, ebp
	pop	ebp
	ret	0
_TEXT	ENDS
;	COMDAT text$x
text$x	SEGMENT
__unwindfunclet$??0CvTechEntry@@QAE@XZ$0:
	mov	ecx, DWORD PTR _this$[ebp]
	jmp	??1CvBaseInfo@@QAE@XZ
__unwindfunclet$??0CvTechEntry@@QAE@XZ$1:
	mov	ecx, DWORD PTR _this$[ebp]
	add	ecx, 360				; 00000168H
	jmp	??1CvString@@QAE@XZ			; CvString::~CvString
__unwindfunclet$??0CvTechEntry@@QAE@XZ$2:
	mov	ecx, DWORD PTR _this$[ebp]
	add	ecx, 388				; 00000184H
	jmp	??1CvString@@QAE@XZ			; CvString::~CvString
__unwindfunclet$??0CvTechEntry@@QAE@XZ$3:
	mov	ecx, DWORD PTR _this$[ebp]
	add	ecx, 416				; 000001a0H
	jmp	??1CvString@@QAE@XZ			; CvString::~CvString
__ehhandler$??0CvTechEntry@@QAE@XZ:
	mov	edx, DWORD PTR [esp+8]
	lea	eax, DWORD PTR [edx+12]
	mov	ecx, DWORD PTR [edx-24]
	xor	ecx, eax
	call	@__security_check_cookie@4
	mov	eax, OFFSET __ehfuncinfo$??0CvTechEntry@@QAE@XZ
	jmp	___CxxFrameHandler3
text$x	ENDS
??0CvTechEntry@@QAE@XZ ENDP				; CvTechEntry::CvTechEntry
EXTRN	__imp_??1?$basic_string@DU?$char_traits@D@std@@V?$allocator@D@2@@std@@QAE@XZ:PROC
;	COMDAT xdata$x
xdata$x	SEGMENT
__ehfuncinfo$??1CvBaseInfo@@QAE@XZ DD 019930522H
	DD	08H
	DD	FLAT:__unwindtable$??1CvBaseInfo@@QAE@XZ
	DD	2 DUP(00H)
	DD	2 DUP(00H)
	DD	00H
	DD	01H
__unwindtable$??1CvBaseInfo@@QAE@XZ DD 0ffffffffH
	DD	FLAT:__unwindfunclet$??1CvBaseInfo@@QAE@XZ$0
	DD	00H
	DD	FLAT:__unwindfunclet$??1CvBaseInfo@@QAE@XZ$1
	DD	01H
	DD	FLAT:__unwindfunclet$??1CvBaseInfo@@QAE@XZ$2
	DD	02H
	DD	FLAT:__unwindfunclet$??1CvBaseInfo@@QAE@XZ$3
	DD	03H
	DD	FLAT:__unwindfunclet$??1CvBaseInfo@@QAE@XZ$4
	DD	04H
	DD	FLAT:__unwindfunclet$??1CvBaseInfo@@QAE@XZ$5
	DD	05H
	DD	FLAT:__unwindfunclet$??1CvBaseInfo@@QAE@XZ$6
	DD	06H
	DD	FLAT:__unwindfunclet$??1CvBaseInfo@@QAE@XZ$7
; Function compile flags: /Odtp
xdata$x	ENDS
;	COMDAT ??1CvBaseInfo@@QAE@XZ
_TEXT	SEGMENT
_this$ = -52						; size = 4
$T226169 = -48						; size = 4
$T226164 = -44						; size = 4
$T226159 = -40						; size = 4
$T226154 = -36						; size = 4
$T226149 = -32						; size = 4
$T226144 = -28						; size = 4
$T226139 = -24						; size = 4
$T226134 = -20						; size = 4
$T226129 = -16						; size = 4
__$EHRec$ = -12						; size = 12
??1CvBaseInfo@@QAE@XZ PROC				; CvBaseInfo::~CvBaseInfo, COMDAT
; _this$ = ecx
	push	ebp
	mov	ebp, esp
	push	-1
	push	__ehhandler$??1CvBaseInfo@@QAE@XZ
	mov	eax, DWORD PTR fs:0
	push	eax
	sub	esp, 40					; 00000028H
	mov	eax, DWORD PTR ___security_cookie
	xor	eax, ebp
	push	eax
	lea	eax, DWORD PTR __$EHRec$[ebp]
	mov	DWORD PTR fs:0, eax
	mov	DWORD PTR _this$[ebp], ecx
	mov	DWORD PTR __$EHRec$[ebp+8], 7
	mov	eax, DWORD PTR _this$[ebp]
	add	eax, 232				; 000000e8H
	mov	DWORD PTR $T226129[ebp], eax
	mov	ecx, DWORD PTR $T226129[ebp]
	call	DWORD PTR __imp_??1?$basic_string@DU?$char_traits@D@std@@V?$allocator@D@2@@std@@QAE@XZ
	mov	BYTE PTR __$EHRec$[ebp+8], 6
	mov	ecx, DWORD PTR _this$[ebp]
	add	ecx, 204				; 000000ccH
	mov	DWORD PTR $T226134[ebp], ecx
	mov	ecx, DWORD PTR $T226134[ebp]
	call	DWORD PTR __imp_??1?$basic_string@DU?$char_traits@D@std@@V?$allocator@D@2@@std@@QAE@XZ
	mov	BYTE PTR __$EHRec$[ebp+8], 5
	mov	edx, DWORD PTR _this$[ebp]
	add	edx, 176				; 000000b0H
	mov	DWORD PTR $T226139[ebp], edx
	mov	ecx, DWORD PTR $T226139[ebp]
	call	DWORD PTR __imp_??1?$basic_string@DU?$char_traits@D@std@@V?$allocator@D@2@@std@@QAE@XZ
	mov	BYTE PTR __$EHRec$[ebp+8], 4
	mov	eax, DWORD PTR _this$[ebp]
	add	eax, 148				; 00000094H
	mov	DWORD PTR $T226144[ebp], eax
	mov	ecx, DWORD PTR $T226144[ebp]
	call	DWORD PTR __imp_??1?$basic_string@DU?$char_traits@D@std@@V?$allocator@D@2@@std@@QAE@XZ
	mov	BYTE PTR __$EHRec$[ebp+8], 3
	mov	ecx, DWORD PTR _this$[ebp]
	add	ecx, 120				; 00000078H
	mov	DWORD PTR $T226149[ebp], ecx
	mov	ecx, DWORD PTR $T226149[ebp]
	call	DWORD PTR __imp_??1?$basic_string@DU?$char_traits@D@std@@V?$allocator@D@2@@std@@QAE@XZ
	mov	BYTE PTR __$EHRec$[ebp+8], 2
	mov	edx, DWORD PTR _this$[ebp]
	add	edx, 92					; 0000005cH
	mov	DWORD PTR $T226154[ebp], edx
	mov	ecx, DWORD PTR $T226154[ebp]
	call	DWORD PTR __imp_??1?$basic_string@DU?$char_traits@D@std@@V?$allocator@D@2@@std@@QAE@XZ
	mov	BYTE PTR __$EHRec$[ebp+8], 1
	mov	eax, DWORD PTR _this$[ebp]
	add	eax, 64					; 00000040H
	mov	DWORD PTR $T226159[ebp], eax
	mov	ecx, DWORD PTR $T226159[ebp]
	call	DWORD PTR __imp_??1?$basic_string@DU?$char_traits@D@std@@V?$allocator@D@2@@std@@QAE@XZ
	mov	BYTE PTR __$EHRec$[ebp+8], 0
	mov	ecx, DWORD PTR _this$[ebp]
	add	ecx, 36					; 00000024H
	mov	DWORD PTR $T226164[ebp], ecx
	mov	ecx, DWORD PTR $T226164[ebp]
	call	DWORD PTR __imp_??1?$basic_string@DU?$char_traits@D@std@@V?$allocator@D@2@@std@@QAE@XZ
	mov	DWORD PTR __$EHRec$[ebp+8], -1
	mov	edx, DWORD PTR _this$[ebp]
	add	edx, 8
	mov	DWORD PTR $T226169[ebp], edx
	mov	ecx, DWORD PTR $T226169[ebp]
	call	DWORD PTR __imp_??1?$basic_string@DU?$char_traits@D@std@@V?$allocator@D@2@@std@@QAE@XZ
	mov	ecx, DWORD PTR __$EHRec$[ebp]
	mov	DWORD PTR fs:0, ecx
	pop	ecx
	mov	esp, ebp
	pop	ebp
	ret	0
_TEXT	ENDS
;	COMDAT text$x
text$x	SEGMENT
__unwindfunclet$??1CvBaseInfo@@QAE@XZ$0:
	mov	ecx, DWORD PTR _this$[ebp]
	add	ecx, 8
	jmp	??1CvString@@QAE@XZ			; CvString::~CvString
__unwindfunclet$??1CvBaseInfo@@QAE@XZ$1:
	mov	ecx, DWORD PTR _this$[ebp]
	add	ecx, 36					; 00000024H
	jmp	??1CvString@@QAE@XZ			; CvString::~CvString
__unwindfunclet$??1CvBaseInfo@@QAE@XZ$2:
	mov	ecx, DWORD PTR _this$[ebp]
	add	ecx, 64					; 00000040H
	jmp	??1CvString@@QAE@XZ			; CvString::~CvString
__unwindfunclet$??1CvBaseInfo@@QAE@XZ$3:
	mov	ecx, DWORD PTR _this$[ebp]
	add	ecx, 92					; 0000005cH
	jmp	??1CvString@@QAE@XZ			; CvString::~CvString
__unwindfunclet$??1CvBaseInfo@@QAE@XZ$4:
	mov	ecx, DWORD PTR _this$[ebp]
	add	ecx, 120				; 00000078H
	jmp	??1CvString@@QAE@XZ			; CvString::~CvString
__unwindfunclet$??1CvBaseInfo@@QAE@XZ$5:
	mov	ecx, DWORD PTR _this$[ebp]
	add	ecx, 148				; 00000094H
	jmp	??1CvString@@QAE@XZ			; CvString::~CvString
__unwindfunclet$??1CvBaseInfo@@QAE@XZ$6:
	mov	ecx, DWORD PTR _this$[ebp]
	add	ecx, 176				; 000000b0H
	jmp	??1CvString@@QAE@XZ			; CvString::~CvString
__unwindfunclet$??1CvBaseInfo@@QAE@XZ$7:
	mov	ecx, DWORD PTR _this$[ebp]
	add	ecx, 204				; 000000ccH
	jmp	??1CvString@@QAE@XZ			; CvString::~CvString
__ehhandler$??1CvBaseInfo@@QAE@XZ:
	mov	edx, DWORD PTR [esp+8]
	lea	eax, DWORD PTR [edx+12]
	mov	ecx, DWORD PTR [edx-44]
	xor	ecx, eax
	call	@__security_check_cookie@4
	mov	eax, OFFSET __ehfuncinfo$??1CvBaseInfo@@QAE@XZ
	jmp	___CxxFrameHandler3
text$x	ENDS
??1CvBaseInfo@@QAE@XZ ENDP				; CvBaseInfo::~CvBaseInfo
PUBLIC	??1CvTechEntry@@QAE@XZ				; CvTechEntry::~CvTechEntry
EXTRN	??_V@YAXPAX@Z:PROC				; operator delete[]
;	COMDAT xdata$x
; File d:\sources\lekmod_git\checkout\lekmod_dll\cvgamecoredllutil\include\cvstring.h
xdata$x	SEGMENT
__unwindtable$??1CvTechEntry@@QAE@XZ DD 0ffffffffH
	DD	FLAT:__unwindfunclet$??1CvTechEntry@@QAE@XZ$0
	DD	00H
	DD	FLAT:__unwindfunclet$??1CvTechEntry@@QAE@XZ$1
	DD	01H
	DD	FLAT:__unwindfunclet$??1CvTechEntry@@QAE@XZ$2
	DD	02H
	DD	FLAT:__unwindfunclet$??1CvTechEntry@@QAE@XZ$3
__ehfuncinfo$??1CvTechEntry@@QAE@XZ DD 019930522H
	DD	04H
	DD	FLAT:__unwindtable$??1CvTechEntry@@QAE@XZ
	DD	2 DUP(00H)
	DD	2 DUP(00H)
	DD	00H
	DD	01H
; Function compile flags: /Odtp
; File d:\sources\lekmod_git\checkout\lekmod_dll\cvgamecoredll_expansion2\cvtechclasses.cpp
xdata$x	ENDS
;	COMDAT ??1CvTechEntry@@QAE@XZ
_TEXT	SEGMENT
_this$ = -116						; size = 4
$T226238 = -76						; size = 4
$T226233 = -72						; size = 4
$T226228 = -68						; size = 4
$T226223 = -64						; size = 4
$T226218 = -60						; size = 4
$T226217 = -56						; size = 4
$T226212 = -52						; size = 4
$T226211 = -48						; size = 4
$T226206 = -44						; size = 4
$T226205 = -40						; size = 4
$T226200 = -36						; size = 4
$T226199 = -32						; size = 4
$T226194 = -28						; size = 4
$T226193 = -24						; size = 4
$T226188 = -20						; size = 4
$T226187 = -16						; size = 4
__$EHRec$ = -12						; size = 12
??1CvTechEntry@@QAE@XZ PROC				; CvTechEntry::~CvTechEntry, COMDAT
; _this$ = ecx

; 83   : {

	push	ebp
	mov	ebp, esp
	push	-1
	push	__ehhandler$??1CvTechEntry@@QAE@XZ
	mov	eax, DWORD PTR fs:0
	push	eax
	sub	esp, 104				; 00000068H
	mov	eax, DWORD PTR ___security_cookie
	xor	eax, ebp
	push	eax
	lea	eax, DWORD PTR __$EHRec$[ebp]
	mov	DWORD PTR fs:0, eax
	mov	DWORD PTR _this$[ebp], ecx
	mov	eax, DWORD PTR _this$[ebp]
	mov	DWORD PTR [eax], OFFSET ??_7CvTechEntry@@6B@
	mov	DWORD PTR __$EHRec$[ebp+8], 3

; 84   : 	SAFE_DELETE_ARRAY(m_piDomainExtraMoves);

	mov	ecx, DWORD PTR _this$[ebp]
	add	ecx, 472				; 000001d8H
	mov	DWORD PTR $T226188[ebp], ecx
	mov	edx, DWORD PTR $T226188[ebp]
	mov	eax, DWORD PTR [edx]
	mov	DWORD PTR $T226187[ebp], eax
	mov	ecx, DWORD PTR $T226187[ebp]
	push	ecx
	call	??_V@YAXPAX@Z				; operator delete[]
	add	esp, 4
	mov	edx, DWORD PTR $T226188[ebp]
	mov	DWORD PTR [edx], 0

; 85   : 	SAFE_DELETE_ARRAY(m_piTradeRouteDomainExtraRange);

	mov	eax, DWORD PTR _this$[ebp]
	add	eax, 476				; 000001dcH
	mov	DWORD PTR $T226194[ebp], eax
	mov	ecx, DWORD PTR $T226194[ebp]
	mov	edx, DWORD PTR [ecx]
	mov	DWORD PTR $T226193[ebp], edx
	mov	eax, DWORD PTR $T226193[ebp]
	push	eax
	call	??_V@YAXPAX@Z				; operator delete[]
	add	esp, 4
	mov	ecx, DWORD PTR $T226194[ebp]
	mov	DWORD PTR [ecx], 0

; 86   : 	SAFE_DELETE_ARRAY(m_piFlavorValue);

	mov	edx, DWORD PTR _this$[ebp]
	add	edx, 480				; 000001e0H
	mov	DWORD PTR $T226200[ebp], edx
	mov	eax, DWORD PTR $T226200[ebp]
	mov	ecx, DWORD PTR [eax]
	mov	DWORD PTR $T226199[ebp], ecx
	mov	edx, DWORD PTR $T226199[ebp]
	push	edx
	call	??_V@YAXPAX@Z				; operator delete[]
	add	esp, 4
	mov	eax, DWORD PTR $T226200[ebp]
	mov	DWORD PTR [eax], 0

; 87   : 	SAFE_DELETE_ARRAY(m_piPrereqOrTechs);

	mov	ecx, DWORD PTR _this$[ebp]
	add	ecx, 484				; 000001e4H
	mov	DWORD PTR $T226206[ebp], ecx
	mov	edx, DWORD PTR $T226206[ebp]
	mov	eax, DWORD PTR [edx]
	mov	DWORD PTR $T226205[ebp], eax
	mov	ecx, DWORD PTR $T226205[ebp]
	push	ecx
	call	??_V@YAXPAX@Z				; operator delete[]
	add	esp, 4
	mov	edx, DWORD PTR $T226206[ebp]
	mov	DWORD PTR [edx], 0

; 88   : 	SAFE_DELETE_ARRAY(m_piPrereqAndTechs);

	mov	eax, DWORD PTR _this$[ebp]
	add	eax, 488				; 000001e8H
	mov	DWORD PTR $T226212[ebp], eax
	mov	ecx, DWORD PTR $T226212[ebp]
	mov	edx, DWORD PTR [ecx]
	mov	DWORD PTR $T226211[ebp], edx
	mov	eax, DWORD PTR $T226211[ebp]
	push	eax
	call	??_V@YAXPAX@Z				; operator delete[]
	add	esp, 4
	mov	ecx, DWORD PTR $T226212[ebp]
	mov	DWORD PTR [ecx], 0

; 89   : 	SAFE_DELETE_ARRAY(m_pabFreePromotion);

	mov	edx, DWORD PTR _this$[ebp]
	add	edx, 492				; 000001ecH
	mov	DWORD PTR $T226218[ebp], edx
	mov	eax, DWORD PTR $T226218[ebp]
	mov	ecx, DWORD PTR [eax]
	mov	DWORD PTR $T226217[ebp], ecx
	mov	edx, DWORD PTR $T226217[ebp]
	push	edx
	call	??_V@YAXPAX@Z				; operator delete[]
	add	esp, 4
	mov	eax, DWORD PTR $T226218[ebp]
	mov	DWORD PTR [eax], 0

; 90   : }

	mov	ecx, DWORD PTR _this$[ebp]
	add	ecx, 444				; 000001bcH
	mov	DWORD PTR $T226223[ebp], ecx
	mov	ecx, DWORD PTR $T226223[ebp]
	call	DWORD PTR __imp_??1?$basic_string@DU?$char_traits@D@std@@V?$allocator@D@2@@std@@QAE@XZ
	mov	BYTE PTR __$EHRec$[ebp+8], 2
	mov	edx, DWORD PTR _this$[ebp]
	add	edx, 416				; 000001a0H
	mov	DWORD PTR $T226228[ebp], edx
	mov	ecx, DWORD PTR $T226228[ebp]
	call	DWORD PTR __imp_??1?$basic_string@DU?$char_traits@D@std@@V?$allocator@D@2@@std@@QAE@XZ
	mov	BYTE PTR __$EHRec$[ebp+8], 1
	mov	eax, DWORD PTR _this$[ebp]
	add	eax, 388				; 00000184H
	mov	DWORD PTR $T226233[ebp], eax
	mov	ecx, DWORD PTR $T226233[ebp]
	call	DWORD PTR __imp_??1?$basic_string@DU?$char_traits@D@std@@V?$allocator@D@2@@std@@QAE@XZ
	mov	BYTE PTR __$EHRec$[ebp+8], 0
	mov	ecx, DWORD PTR _this$[ebp]
	add	ecx, 360				; 00000168H
	mov	DWORD PTR $T226238[ebp], ecx
	mov	ecx, DWORD PTR $T226238[ebp]
	call	DWORD PTR __imp_??1?$basic_string@DU?$char_traits@D@std@@V?$allocator@D@2@@std@@QAE@XZ
	mov	DWORD PTR __$EHRec$[ebp+8], -1
	mov	ecx, DWORD PTR _this$[ebp]
	call	??1CvBaseInfo@@QAE@XZ
	mov	ecx, DWORD PTR __$EHRec$[ebp]
	mov	DWORD PTR fs:0, ecx
	pop	ecx
	mov	esp, ebp
	pop	ebp
	ret	0
_TEXT	ENDS
;	COMDAT text$x
text$x	SEGMENT
__unwindfunclet$??1CvTechEntry@@QAE@XZ$0:
	mov	ecx, DWORD PTR _this$[ebp]
	jmp	??1CvBaseInfo@@QAE@XZ
__unwindfunclet$??1CvTechEntry@@QAE@XZ$1:
	mov	ecx, DWORD PTR _this$[ebp]
	add	ecx, 360				; 00000168H
	jmp	??1CvString@@QAE@XZ			; CvString::~CvString
__unwindfunclet$??1CvTechEntry@@QAE@XZ$2:
	mov	ecx, DWORD PTR _this$[ebp]
	add	ecx, 388				; 00000184H
	jmp	??1CvString@@QAE@XZ			; CvString::~CvString
__unwindfunclet$??1CvTechEntry@@QAE@XZ$3:
	mov	ecx, DWORD PTR _this$[ebp]
	add	ecx, 416				; 000001a0H
	jmp	??1CvString@@QAE@XZ			; CvString::~CvString
__ehhandler$??1CvTechEntry@@QAE@XZ:
	mov	edx, DWORD PTR [esp+8]
	lea	eax, DWORD PTR [edx+12]
	mov	ecx, DWORD PTR [edx-108]
	xor	ecx, eax
	call	@__security_check_cookie@4
	mov	eax, OFFSET __ehfuncinfo$??1CvTechEntry@@QAE@XZ
	jmp	___CxxFrameHandler3
text$x	ENDS
??1CvTechEntry@@QAE@XZ ENDP				; CvTechEntry::~CvTechEntry
PUBLIC	??_C@_0IB@LKAKDCEK@select?5Technologies?4ID?5from?5Tech@ ; `string'
PUBLIC	??_C@_0CG@IGEMGBE@Technologies?5?9?5Technology_Prereq@ ; `string'
PUBLIC	??_C@_0ID@JDHEGGPJ@select?5Technologies?4ID?5from?5Tech@ ; `string'
PUBLIC	??_C@_0CI@EDCAPJKC@Technologies?5?9?5Technology_ORPrer@ ; `string'
PUBLIC	?InitializeArray@CvDatabaseUtility@@QAEXAAPAHIH@Z ; CvDatabaseUtility::InitializeArray
PUBLIC	??_C@_0N@INKDAICK@Technologies?$AA@		; `string'
PUBLIC	??_C@_0BD@LIOGFLEL@Technology_Flavors?$AA@	; `string'
PUBLIC	??_C@_0P@GCBJCIAG@UnitPromotions?$AA@		; `string'
PUBLIC	??_C@_0BK@KPPIEHLD@Technology_FreePromotions?$AA@ ; `string'
PUBLIC	??_C@_0O@IILJPJBB@PromotionType?$AA@		; `string'
PUBLIC	??_C@_0CG@INDDLKBJ@Technology_TradeRouteDomainExtra@ ; `string'
PUBLIC	??_C@_05CFMCGLCK@Range?$AA@			; `string'
PUBLIC	??_C@_07FKLJOGGC@Domains?$AA@			; `string'
PUBLIC	??_C@_0BM@DHKPDGGE@Technology_DomainExtraMoves?$AA@ ; `string'
PUBLIC	??_C@_0L@NIGHKLOG@DomainType?$AA@		; `string'
PUBLIC	??_C@_08GHGFPPBE@TechType?$AA@			; `string'
PUBLIC	??_C@_05OCMDHLMM@Moves?$AA@			; `string'
PUBLIC	?SetSoundMP@CvTechEntry@@QAEXPBD@Z		; CvTechEntry::SetSoundMP
PUBLIC	??_C@_0BB@GBAPFEGA@AudioIntroHeader?$AA@	; `string'
PUBLIC	?SetSound@CvTechEntry@@QAEXPBD@Z		; CvTechEntry::SetSound
PUBLIC	??_C@_0L@HPBDPPMB@AudioIntro?$AA@		; `string'
PUBLIC	?SetQuoteKey@CvTechEntry@@QAEXPBD@Z		; CvTechEntry::SetQuoteKey
PUBLIC	??_C@_05JAOKFCIK@Quote?$AA@			; `string'
PUBLIC	??_C@_0BD@MKGCGFCK@FirstFreeUnitClass?$AA@	; `string'
PUBLIC	??_C@_03FJOCGODE@Era?$AA@			; `string'
PUBLIC	??_C@_05LNPLOKEP@GridY?$AA@			; `string'
PUBLIC	??_C@_05KEOANLAO@GridX?$AA@			; `string'
PUBLIC	??_C@_09IDNBDFGB@WaterWork?$AA@			; `string'
PUBLIC	??_C@_0P@JKOGIKHO@BridgeBuilding?$AA@		; `string'
PUBLIC	??_C@_0CA@ICKMEKKP@PermanentAllianceTradingAllowed?$AA@ ; `string'
PUBLIC	??_C@_0BN@JEMNLGEL@TradeAgreementTradingAllowed?$AA@ ; `string'
PUBLIC	??_C@_0CA@ELGCCMJG@ResearchAgreementTradingAllowed?$AA@ ; `string'
PUBLIC	??_C@_0BM@PKIJKDME@DefensivePactTradingAllowed?$AA@ ; `string'
PUBLIC	??_C@_0BK@MGOPDIKK@OpenBordersTradingAllowed?$AA@ ; `string'
PUBLIC	??_C@_0BL@NAGAJAEL@AllowEmbassyTradingAllowed?$AA@ ; `string'
PUBLIC	??_C@_0M@OCPDKDMI@GoldTrading?$AA@		; `string'
PUBLIC	??_C@_0M@GMOFGMNJ@TechTrading?$AA@		; `string'
PUBLIC	??_C@_0L@GMHICEOP@MapTrading?$AA@		; `string'
PUBLIC	??_C@_0L@BLLJLNGK@MapVisible?$AA@		; `string'
PUBLIC	??_C@_0N@MDAIKEA@MapCentering?$AA@		; `string'
PUBLIC	??_C@_0BC@EPEFBLPL@ExtraWaterSeeFrom?$AA@	; `string'
PUBLIC	??_C@_0BE@IMAOEHME@AllowsWorldCongress?$AA@	; `string'
PUBLIC	??_C@_0BM@KKEFMJNG@TriggersArchaeologicalSites?$AA@ ; `string'
PUBLIC	??_C@_09JPAILJCB@GoodyTech?$AA@			; `string'
PUBLIC	??_C@_0BB@NCDIJMJE@DisableTechSteal?$AA@	; `string'
PUBLIC	??_C@_07MIKIFGAL@Disable?$AA@			; `string'
PUBLIC	??_C@_05IOPOMLGK@Trade?$AA@			; `string'
PUBLIC	??_C@_06HJIMLMON@Repeat?$AA@			; `string'
PUBLIC	??_C@_0BF@LFIJHIKN@AllowsBarbarianBoats?$AA@	; `string'
PUBLIC	??_C@_0BI@IFJBENMM@EmbarkedAllWaterPassage?$AA@	; `string'
PUBLIC	??_C@_0BJ@FFHNBGHA@AllowsDefensiveEmbarking?$AA@ ; `string'
PUBLIC	??_C@_0BI@LNDCKLIC@AllowsEmbarkingCivilian?$AA@	; `string'
PUBLIC	??_C@_0BA@MAEDHBPF@AllowsEmbarking?$AA@		; `string'
PUBLIC	??_C@_08ILBBNLKH@EndsGame?$AA@			; `string'
PUBLIC	??_C@_0BG@GHKCHOKE@ExtraVotesPerDiplomat?$AA@	; `string'
PUBLIC	??_C@_0BI@KIICGMNH@InfluenceSpreadModifier?$AA@	; `string'
PUBLIC	??_C@_0BP@JOBLBGFG@InternationalTradeRoutesChange?$AA@ ; `string'
PUBLIC	??_C@_0BE@IBIAPIMK@EmbarkedSightChange?$AA@	; `string'
PUBLIC	??_C@_0BD@LKCNALGJ@EmbarkedMoveChange?$AA@	; `string'
PUBLIC	??_C@_0P@IENNJDPB@FirstFreeTechs?$AA@		; `string'
PUBLIC	??_C@_0BE@NGOPBNAB@WorkerSpeedModifier?$AA@	; `string'
PUBLIC	??_C@_0BF@LEIBBJAN@UnitBaseHealModifier?$AA@	; `string'
PUBLIC	??_C@_0BK@OKJALLID@UnitFortificationModifier?$AA@ ; `string'
PUBLIC	??_C@_0BK@HAELONIG@FeatureProductionModifier?$AA@ ; `string'
PUBLIC	??_C@_0BC@HHPMHOMK@AdvancedStartCost?$AA@	; `string'
PUBLIC	??_C@_04FICPKHNF@Cost?$AA@			; `string'
PUBLIC	??_C@_0BA@NKLNHAIL@AITradeModifier?$AA@		; `string'
PUBLIC	??_C@_08GHMCJAOP@AIWeight?$AA@			; `string'
PUBLIC	__$ArrayPad$
EXTRN	__imp_?Reset@Results@Database@@QAE_NXZ:PROC
EXTRN	__imp_?GetInt@Results@Database@@QAEHH@Z:PROC
EXTRN	__imp_?Step@Results@Database@@QAE_NXZ:PROC
EXTRN	__imp_?Bind@Results@Database@@QAE_NHPBDH_N@Z:PROC
EXTRN	?PrepareResults@CvDatabaseUtility@@QAEPAVResults@Database@@ABV?$basic_string@DU?$char_traits@D@std@@V?$allocator@D@2@@std@@PBD@Z:PROC ; CvDatabaseUtility::PrepareResults
EXTRN	?GetResults@CvDatabaseUtility@@QAEPAVResults@Database@@ABV?$basic_string@DU?$char_traits@D@std@@V?$allocator@D@2@@std@@@Z:PROC ; CvDatabaseUtility::GetResults
EXTRN	__imp_??0?$basic_string@DU?$char_traits@D@std@@V?$allocator@D@2@@std@@QAE@PBD@Z:PROC
EXTRN	?MaxRows@CvDatabaseUtility@@QAEHPBD@Z:PROC	; CvDatabaseUtility::MaxRows
EXTRN	?SetFlavors@CvDatabaseUtility@@QAE_NAAPAHPBD11H@Z:PROC ; CvDatabaseUtility::SetFlavors
EXTRN	?PopulateArrayByExistence@CvDatabaseUtility@@QAE_NAAPA_NPBD1111@Z:PROC ; CvDatabaseUtility::PopulateArrayByExistence
EXTRN	?PopulateArrayByValue@CvDatabaseUtility@@QAE_NAAPAHPBD11111HH@Z:PROC ; CvDatabaseUtility::PopulateArrayByValue
EXTRN	__imp_?c_str@?$basic_string@DU?$char_traits@D@std@@V?$allocator@D@2@@std@@QBEPBDXZ:PROC
EXTRN	?getInfoTypeForString@CvGlobals@@QBEHPBD_N@Z:PROC ; CvGlobals::getInfoTypeForString
EXTRN	?gGlobals@@3VCvGlobals@@A:BYTE			; gGlobals
EXTRN	__imp_?GetText@Results@Database@@QAEPBDPBD@Z:PROC
EXTRN	__imp_?GetBool@Results@Database@@QAE_NPBD@Z:PROC
EXTRN	__imp_?GetInt@Results@Database@@QAEHPBD@Z:PROC
EXTRN	?CacheResults@CvBaseInfo@@UAE_NAAVResults@Database@@AAVCvDatabaseUtility@@@Z:PROC ; CvBaseInfo::CacheResults
;	COMDAT ??_C@_0IB@LKAKDCEK@select?5Technologies?4ID?5from?5Tech@
; File d:\sources\lekmod_git\checkout\lekmod_dll\cvgamecoredll_expansion2\cvdatabaseutility.h
CONST	SEGMENT
??_C@_0IB@LKAKDCEK@select?5Technologies?4ID?5from?5Tech@ DB 'select Techn'
	DB	'ologies.ID from Technology_PrereqTechs inner join Technologie'
	DB	's on Technologies.Type = PrereqTech where TechType = ?;', 00H ; `string'
CONST	ENDS
;	COMDAT ??_C@_0CG@IGEMGBE@Technologies?5?9?5Technology_Prereq@
CONST	SEGMENT
??_C@_0CG@IGEMGBE@Technologies?5?9?5Technology_Prereq@ DB 'Technologies -'
	DB	' Technology_PrereqTechs', 00H		; `string'
CONST	ENDS
;	COMDAT ??_C@_0ID@JDHEGGPJ@select?5Technologies?4ID?5from?5Tech@
CONST	SEGMENT
??_C@_0ID@JDHEGGPJ@select?5Technologies?4ID?5from?5Tech@ DB 'select Techn'
	DB	'ologies.ID from Technology_ORPrereqTechs inner join Technolog'
	DB	'ies on Technologies.Type = PrereqTech where TechType = ?;', 00H ; `string'
CONST	ENDS
;	COMDAT ??_C@_0CI@EDCAPJKC@Technologies?5?9?5Technology_ORPrer@
CONST	SEGMENT
??_C@_0CI@EDCAPJKC@Technologies?5?9?5Technology_ORPrer@ DB 'Technologies '
	DB	'- Technology_ORPrereqTechs', 00H		; `string'
CONST	ENDS
;	COMDAT ??_C@_0N@INKDAICK@Technologies?$AA@
CONST	SEGMENT
??_C@_0N@INKDAICK@Technologies?$AA@ DB 'Technologies', 00H ; `string'
CONST	ENDS
;	COMDAT ??_C@_0BD@LIOGFLEL@Technology_Flavors?$AA@
CONST	SEGMENT
??_C@_0BD@LIOGFLEL@Technology_Flavors?$AA@ DB 'Technology_Flavors', 00H ; `string'
CONST	ENDS
;	COMDAT ??_C@_0P@GCBJCIAG@UnitPromotions?$AA@
CONST	SEGMENT
??_C@_0P@GCBJCIAG@UnitPromotions?$AA@ DB 'UnitPromotions', 00H ; `string'
CONST	ENDS
;	COMDAT ??_C@_0BK@KPPIEHLD@Technology_FreePromotions?$AA@
CONST	SEGMENT
??_C@_0BK@KPPIEHLD@Technology_FreePromotions?$AA@ DB 'Technology_FreeProm'
	DB	'otions', 00H				; `string'
CONST	ENDS
;	COMDAT ??_C@_0O@IILJPJBB@PromotionType?$AA@
CONST	SEGMENT
??_C@_0O@IILJPJBB@PromotionType?$AA@ DB 'PromotionType', 00H ; `string'
CONST	ENDS
;	COMDAT ??_C@_0CG@INDDLKBJ@Technology_TradeRouteDomainExtra@
CONST	SEGMENT
??_C@_0CG@INDDLKBJ@Technology_TradeRouteDomainExtra@ DB 'Technology_Trade'
	DB	'RouteDomainExtraRange', 00H			; `string'
CONST	ENDS
;	COMDAT ??_C@_05CFMCGLCK@Range?$AA@
CONST	SEGMENT
??_C@_05CFMCGLCK@Range?$AA@ DB 'Range', 00H		; `string'
CONST	ENDS
;	COMDAT ??_C@_07FKLJOGGC@Domains?$AA@
CONST	SEGMENT
??_C@_07FKLJOGGC@Domains?$AA@ DB 'Domains', 00H		; `string'
CONST	ENDS
;	COMDAT ??_C@_0BM@DHKPDGGE@Technology_DomainExtraMoves?$AA@
CONST	SEGMENT
??_C@_0BM@DHKPDGGE@Technology_DomainExtraMoves?$AA@ DB 'Technology_Domain'
	DB	'ExtraMoves', 00H				; `string'
CONST	ENDS
;	COMDAT ??_C@_0L@NIGHKLOG@DomainType?$AA@
CONST	SEGMENT
??_C@_0L@NIGHKLOG@DomainType?$AA@ DB 'DomainType', 00H	; `string'
CONST	ENDS
;	COMDAT ??_C@_08GHGFPPBE@TechType?$AA@
CONST	SEGMENT
??_C@_08GHGFPPBE@TechType?$AA@ DB 'TechType', 00H	; `string'
CONST	ENDS
;	COMDAT ??_C@_05OCMDHLMM@Moves?$AA@
CONST	SEGMENT
??_C@_05OCMDHLMM@Moves?$AA@ DB 'Moves', 00H		; `string'
CONST	ENDS
;	COMDAT ??_C@_0BB@GBAPFEGA@AudioIntroHeader?$AA@
CONST	SEGMENT
??_C@_0BB@GBAPFEGA@AudioIntroHeader?$AA@ DB 'AudioIntroHeader', 00H ; `string'
CONST	ENDS
;	COMDAT ??_C@_0L@HPBDPPMB@AudioIntro?$AA@
CONST	SEGMENT
??_C@_0L@HPBDPPMB@AudioIntro?$AA@ DB 'AudioIntro', 00H	; `string'
CONST	ENDS
;	COMDAT ??_C@_05JAOKFCIK@Quote?$AA@
CONST	SEGMENT
??_C@_05JAOKFCIK@Quote?$AA@ DB 'Quote', 00H		; `string'
CONST	ENDS
;	COMDAT ??_C@_0BD@MKGCGFCK@FirstFreeUnitClass?$AA@
CONST	SEGMENT
??_C@_0BD@MKGCGFCK@FirstFreeUnitClass?$AA@ DB 'FirstFreeUnitClass', 00H ; `string'
CONST	ENDS
;	COMDAT ??_C@_03FJOCGODE@Era?$AA@
CONST	SEGMENT
??_C@_03FJOCGODE@Era?$AA@ DB 'Era', 00H			; `string'
CONST	ENDS
;	COMDAT ??_C@_05LNPLOKEP@GridY?$AA@
CONST	SEGMENT
??_C@_05LNPLOKEP@GridY?$AA@ DB 'GridY', 00H		; `string'
CONST	ENDS
;	COMDAT ??_C@_05KEOANLAO@GridX?$AA@
CONST	SEGMENT
??_C@_05KEOANLAO@GridX?$AA@ DB 'GridX', 00H		; `string'
CONST	ENDS
;	COMDAT ??_C@_09IDNBDFGB@WaterWork?$AA@
CONST	SEGMENT
??_C@_09IDNBDFGB@WaterWork?$AA@ DB 'WaterWork', 00H	; `string'
CONST	ENDS
;	COMDAT ??_C@_0P@JKOGIKHO@BridgeBuilding?$AA@
CONST	SEGMENT
??_C@_0P@JKOGIKHO@BridgeBuilding?$AA@ DB 'BridgeBuilding', 00H ; `string'
CONST	ENDS
;	COMDAT ??_C@_0CA@ICKMEKKP@PermanentAllianceTradingAllowed?$AA@
CONST	SEGMENT
??_C@_0CA@ICKMEKKP@PermanentAllianceTradingAllowed?$AA@ DB 'PermanentAlli'
	DB	'anceTradingAllowed', 00H			; `string'
CONST	ENDS
;	COMDAT ??_C@_0BN@JEMNLGEL@TradeAgreementTradingAllowed?$AA@
CONST	SEGMENT
??_C@_0BN@JEMNLGEL@TradeAgreementTradingAllowed?$AA@ DB 'TradeAgreementTr'
	DB	'adingAllowed', 00H				; `string'
CONST	ENDS
;	COMDAT ??_C@_0CA@ELGCCMJG@ResearchAgreementTradingAllowed?$AA@
CONST	SEGMENT
??_C@_0CA@ELGCCMJG@ResearchAgreementTradingAllowed?$AA@ DB 'ResearchAgree'
	DB	'mentTradingAllowed', 00H			; `string'
CONST	ENDS
;	COMDAT ??_C@_0BM@PKIJKDME@DefensivePactTradingAllowed?$AA@
CONST	SEGMENT
??_C@_0BM@PKIJKDME@DefensivePactTradingAllowed?$AA@ DB 'DefensivePactTrad'
	DB	'ingAllowed', 00H				; `string'
CONST	ENDS
;	COMDAT ??_C@_0BK@MGOPDIKK@OpenBordersTradingAllowed?$AA@
CONST	SEGMENT
??_C@_0BK@MGOPDIKK@OpenBordersTradingAllowed?$AA@ DB 'OpenBordersTradingA'
	DB	'llowed', 00H				; `string'
CONST	ENDS
;	COMDAT ??_C@_0BL@NAGAJAEL@AllowEmbassyTradingAllowed?$AA@
CONST	SEGMENT
??_C@_0BL@NAGAJAEL@AllowEmbassyTradingAllowed?$AA@ DB 'AllowEmbassyTradin'
	DB	'gAllowed', 00H				; `string'
CONST	ENDS
;	COMDAT ??_C@_0M@OCPDKDMI@GoldTrading?$AA@
CONST	SEGMENT
??_C@_0M@OCPDKDMI@GoldTrading?$AA@ DB 'GoldTrading', 00H ; `string'
CONST	ENDS
;	COMDAT ??_C@_0M@GMOFGMNJ@TechTrading?$AA@
CONST	SEGMENT
??_C@_0M@GMOFGMNJ@TechTrading?$AA@ DB 'TechTrading', 00H ; `string'
CONST	ENDS
;	COMDAT ??_C@_0L@GMHICEOP@MapTrading?$AA@
CONST	SEGMENT
??_C@_0L@GMHICEOP@MapTrading?$AA@ DB 'MapTrading', 00H	; `string'
CONST	ENDS
;	COMDAT ??_C@_0L@BLLJLNGK@MapVisible?$AA@
CONST	SEGMENT
??_C@_0L@BLLJLNGK@MapVisible?$AA@ DB 'MapVisible', 00H	; `string'
CONST	ENDS
;	COMDAT ??_C@_0N@MDAIKEA@MapCentering?$AA@
CONST	SEGMENT
??_C@_0N@MDAIKEA@MapCentering?$AA@ DB 'MapCentering', 00H ; `string'
CONST	ENDS
;	COMDAT ??_C@_0BC@EPEFBLPL@ExtraWaterSeeFrom?$AA@
CONST	SEGMENT
??_C@_0BC@EPEFBLPL@ExtraWaterSeeFrom?$AA@ DB 'ExtraWaterSeeFrom', 00H ; `string'
CONST	ENDS
;	COMDAT ??_C@_0BE@IMAOEHME@AllowsWorldCongress?$AA@
CONST	SEGMENT
??_C@_0BE@IMAOEHME@AllowsWorldCongress?$AA@ DB 'AllowsWorldCongress', 00H ; `string'
CONST	ENDS
;	COMDAT ??_C@_0BM@KKEFMJNG@TriggersArchaeologicalSites?$AA@
CONST	SEGMENT
??_C@_0BM@KKEFMJNG@TriggersArchaeologicalSites?$AA@ DB 'TriggersArchaeolo'
	DB	'gicalSites', 00H				; `string'
CONST	ENDS
;	COMDAT ??_C@_09JPAILJCB@GoodyTech?$AA@
CONST	SEGMENT
??_C@_09JPAILJCB@GoodyTech?$AA@ DB 'GoodyTech', 00H	; `string'
CONST	ENDS
;	COMDAT ??_C@_0BB@NCDIJMJE@DisableTechSteal?$AA@
CONST	SEGMENT
??_C@_0BB@NCDIJMJE@DisableTechSteal?$AA@ DB 'DisableTechSteal', 00H ; `string'
CONST	ENDS
;	COMDAT ??_C@_07MIKIFGAL@Disable?$AA@
CONST	SEGMENT
??_C@_07MIKIFGAL@Disable?$AA@ DB 'Disable', 00H		; `string'
CONST	ENDS
;	COMDAT ??_C@_05IOPOMLGK@Trade?$AA@
CONST	SEGMENT
??_C@_05IOPOMLGK@Trade?$AA@ DB 'Trade', 00H		; `string'
CONST	ENDS
;	COMDAT ??_C@_06HJIMLMON@Repeat?$AA@
CONST	SEGMENT
??_C@_06HJIMLMON@Repeat?$AA@ DB 'Repeat', 00H		; `string'
CONST	ENDS
;	COMDAT ??_C@_0BF@LFIJHIKN@AllowsBarbarianBoats?$AA@
CONST	SEGMENT
??_C@_0BF@LFIJHIKN@AllowsBarbarianBoats?$AA@ DB 'AllowsBarbarianBoats', 00H ; `string'
CONST	ENDS
;	COMDAT ??_C@_0BI@IFJBENMM@EmbarkedAllWaterPassage?$AA@
CONST	SEGMENT
??_C@_0BI@IFJBENMM@EmbarkedAllWaterPassage?$AA@ DB 'EmbarkedAllWaterPassa'
	DB	'ge', 00H					; `string'
CONST	ENDS
;	COMDAT ??_C@_0BJ@FFHNBGHA@AllowsDefensiveEmbarking?$AA@
CONST	SEGMENT
??_C@_0BJ@FFHNBGHA@AllowsDefensiveEmbarking?$AA@ DB 'AllowsDefensiveEmbar'
	DB	'king', 00H					; `string'
CONST	ENDS
;	COMDAT ??_C@_0BI@LNDCKLIC@AllowsEmbarkingCivilian?$AA@
CONST	SEGMENT
??_C@_0BI@LNDCKLIC@AllowsEmbarkingCivilian?$AA@ DB 'AllowsEmbarkingCivili'
	DB	'an', 00H					; `string'
CONST	ENDS
;	COMDAT ??_C@_0BA@MAEDHBPF@AllowsEmbarking?$AA@
CONST	SEGMENT
??_C@_0BA@MAEDHBPF@AllowsEmbarking?$AA@ DB 'AllowsEmbarking', 00H ; `string'
CONST	ENDS
;	COMDAT ??_C@_08ILBBNLKH@EndsGame?$AA@
CONST	SEGMENT
??_C@_08ILBBNLKH@EndsGame?$AA@ DB 'EndsGame', 00H	; `string'
CONST	ENDS
;	COMDAT ??_C@_0BG@GHKCHOKE@ExtraVotesPerDiplomat?$AA@
CONST	SEGMENT
??_C@_0BG@GHKCHOKE@ExtraVotesPerDiplomat?$AA@ DB 'ExtraVotesPerDiplomat', 00H ; `string'
CONST	ENDS
;	COMDAT ??_C@_0BI@KIICGMNH@InfluenceSpreadModifier?$AA@
CONST	SEGMENT
??_C@_0BI@KIICGMNH@InfluenceSpreadModifier?$AA@ DB 'InfluenceSpreadModifi'
	DB	'er', 00H					; `string'
CONST	ENDS
;	COMDAT ??_C@_0BP@JOBLBGFG@InternationalTradeRoutesChange?$AA@
CONST	SEGMENT
??_C@_0BP@JOBLBGFG@InternationalTradeRoutesChange?$AA@ DB 'InternationalT'
	DB	'radeRoutesChange', 00H			; `string'
CONST	ENDS
;	COMDAT ??_C@_0BE@IBIAPIMK@EmbarkedSightChange?$AA@
CONST	SEGMENT
??_C@_0BE@IBIAPIMK@EmbarkedSightChange?$AA@ DB 'EmbarkedSightChange', 00H ; `string'
CONST	ENDS
;	COMDAT ??_C@_0BD@LKCNALGJ@EmbarkedMoveChange?$AA@
CONST	SEGMENT
??_C@_0BD@LKCNALGJ@EmbarkedMoveChange?$AA@ DB 'EmbarkedMoveChange', 00H ; `string'
CONST	ENDS
;	COMDAT ??_C@_0P@IENNJDPB@FirstFreeTechs?$AA@
CONST	SEGMENT
??_C@_0P@IENNJDPB@FirstFreeTechs?$AA@ DB 'FirstFreeTechs', 00H ; `string'
CONST	ENDS
;	COMDAT ??_C@_0BE@NGOPBNAB@WorkerSpeedModifier?$AA@
CONST	SEGMENT
??_C@_0BE@NGOPBNAB@WorkerSpeedModifier?$AA@ DB 'WorkerSpeedModifier', 00H ; `string'
CONST	ENDS
;	COMDAT ??_C@_0BF@LEIBBJAN@UnitBaseHealModifier?$AA@
CONST	SEGMENT
??_C@_0BF@LEIBBJAN@UnitBaseHealModifier?$AA@ DB 'UnitBaseHealModifier', 00H ; `string'
CONST	ENDS
;	COMDAT ??_C@_0BK@OKJALLID@UnitFortificationModifier?$AA@
CONST	SEGMENT
??_C@_0BK@OKJALLID@UnitFortificationModifier?$AA@ DB 'UnitFortificationMo'
	DB	'difier', 00H				; `string'
CONST	ENDS
;	COMDAT ??_C@_0BK@HAELONIG@FeatureProductionModifier?$AA@
CONST	SEGMENT
??_C@_0BK@HAELONIG@FeatureProductionModifier?$AA@ DB 'FeatureProductionMo'
	DB	'difier', 00H				; `string'
CONST	ENDS
;	COMDAT ??_C@_0BC@HHPMHOMK@AdvancedStartCost?$AA@
CONST	SEGMENT
??_C@_0BC@HHPMHOMK@AdvancedStartCost?$AA@ DB 'AdvancedStartCost', 00H ; `string'
CONST	ENDS
;	COMDAT ??_C@_04FICPKHNF@Cost?$AA@
CONST	SEGMENT
??_C@_04FICPKHNF@Cost?$AA@ DB 'Cost', 00H		; `string'
CONST	ENDS
;	COMDAT ??_C@_0BA@NKLNHAIL@AITradeModifier?$AA@
CONST	SEGMENT
??_C@_0BA@NKLNHAIL@AITradeModifier?$AA@ DB 'AITradeModifier', 00H ; `string'
CONST	ENDS
;	COMDAT ??_C@_08GHMCJAOP@AIWeight?$AA@
CONST	SEGMENT
??_C@_08GHMCJAOP@AIWeight?$AA@ DB 'AIWeight', 00H	; `string'
CONST	ENDS
;	COMDAT xdata$x
xdata$x	SEGMENT
__unwindtable$?CacheResults@CvTechEntry@@UAE_NAAVResults@Database@@AAVCvDatabaseUtility@@@Z DD 0ffffffffH
	DD	FLAT:__unwindfunclet$?CacheResults@CvTechEntry@@UAE_NAAVResults@Database@@AAVCvDatabaseUtility@@@Z$0
	DD	0ffffffffH
	DD	FLAT:__unwindfunclet$?CacheResults@CvTechEntry@@UAE_NAAVResults@Database@@AAVCvDatabaseUtility@@@Z$1
__ehfuncinfo$?CacheResults@CvTechEntry@@UAE_NAAVResults@Database@@AAVCvDatabaseUtility@@@Z DD 019930522H
	DD	02H
	DD	FLAT:__unwindtable$?CacheResults@CvTechEntry@@UAE_NAAVResults@Database@@AAVCvDatabaseUtility@@@Z
	DD	2 DUP(00H)
	DD	2 DUP(00H)
	DD	00H
	DD	01H
; Function compile flags: /Odtp
; File d:\sources\lekmod_git\checkout\lekmod_dll\cvgamecoredll_expansion2\cvtechclasses.cpp
xdata$x	ENDS
;	COMDAT ?CacheResults@CvTechEntry@@UAE_NAAVResults@Database@@AAVCvDatabaseUtility@@@Z
_TEXT	SEGMENT
_this$ = -120						; size = 4
_pResults$222988 = -100					; size = 4
_strKey$222986 = -96					; size = 28
_i$222991 = -68						; size = 4
_pResults$222979 = -64					; size = 4
_strKey$222977 = -60					; size = 28
__$ArrayPad$ = -32					; size = 4
_i$222982 = -28						; size = 4
_szTechType$ = -24					; size = 4
_szTextVal$ = -20					; size = 4
_TechnologiesCount$ = -16				; size = 4
__$EHRec$ = -12						; size = 12
_kResults$ = 8						; size = 4
_kUtility$ = 12						; size = 4
?CacheResults@CvTechEntry@@UAE_NAAVResults@Database@@AAVCvDatabaseUtility@@@Z PROC ; CvTechEntry::CacheResults, COMDAT
; _this$ = ecx

; 93   : {

	push	ebp
	mov	ebp, esp
	push	-1
	push	__ehhandler$?CacheResults@CvTechEntry@@UAE_NAAVResults@Database@@AAVCvDatabaseUtility@@@Z
	mov	eax, DWORD PTR fs:0
	push	eax
	sub	esp, 108				; 0000006cH
	mov	eax, DWORD PTR ___security_cookie
	xor	eax, ebp
	mov	DWORD PTR __$ArrayPad$[ebp], eax
	push	eax
	lea	eax, DWORD PTR __$EHRec$[ebp]
	mov	DWORD PTR fs:0, eax
	mov	DWORD PTR _this$[ebp], ecx

; 94   : 	if(!CvBaseInfo::CacheResults(kResults, kUtility))

	mov	eax, DWORD PTR _kUtility$[ebp]
	push	eax
	mov	ecx, DWORD PTR _kResults$[ebp]
	push	ecx
	mov	ecx, DWORD PTR _this$[ebp]
	call	?CacheResults@CvBaseInfo@@UAE_NAAVResults@Database@@AAVCvDatabaseUtility@@@Z ; CvBaseInfo::CacheResults
	movzx	edx, al
	test	edx, edx
	jne	SHORT $LN7@CacheResul

; 95   : 		return false;

	xor	al, al
	jmp	$LN8@CacheResul
$LN7@CacheResul:

; 96   : 
; 97   : 	//Basic Properties
; 98   : 	m_iAIWeight = kResults.GetInt("AIWeight");

	push	OFFSET ??_C@_08GHMCJAOP@AIWeight?$AA@
	mov	ecx, DWORD PTR _kResults$[ebp]
	call	DWORD PTR __imp_?GetInt@Results@Database@@QAEHPBD@Z
	mov	ecx, DWORD PTR _this$[ebp]
	mov	DWORD PTR [ecx+260], eax

; 99   : 	m_iAITradeModifier = kResults.GetInt("AITradeModifier");

	push	OFFSET ??_C@_0BA@NKLNHAIL@AITradeModifier?$AA@
	mov	ecx, DWORD PTR _kResults$[ebp]
	call	DWORD PTR __imp_?GetInt@Results@Database@@QAEHPBD@Z
	mov	edx, DWORD PTR _this$[ebp]
	mov	DWORD PTR [edx+264], eax

; 100  : 	m_iResearchCost = kResults.GetInt("Cost");

	push	OFFSET ??_C@_04FICPKHNF@Cost?$AA@
	mov	ecx, DWORD PTR _kResults$[ebp]
	call	DWORD PTR __imp_?GetInt@Results@Database@@QAEHPBD@Z
	mov	ecx, DWORD PTR _this$[ebp]
	mov	DWORD PTR [ecx+268], eax

; 101  : 	m_iAdvancedStartCost = kResults.GetInt("AdvancedStartCost");

	push	OFFSET ??_C@_0BC@HHPMHOMK@AdvancedStartCost?$AA@
	mov	ecx, DWORD PTR _kResults$[ebp]
	call	DWORD PTR __imp_?GetInt@Results@Database@@QAEHPBD@Z
	mov	edx, DWORD PTR _this$[ebp]
	mov	DWORD PTR [edx+272], eax

; 102  : 	m_iFeatureProductionModifier = kResults.GetInt("FeatureProductionModifier");

	push	OFFSET ??_C@_0BK@HAELONIG@FeatureProductionModifier?$AA@
	mov	ecx, DWORD PTR _kResults$[ebp]
	call	DWORD PTR __imp_?GetInt@Results@Database@@QAEHPBD@Z
	mov	ecx, DWORD PTR _this$[ebp]
	mov	DWORD PTR [ecx+280], eax

; 103  : 	m_iUnitFortificationModifier = kResults.GetInt("UnitFortificationModifier");

	push	OFFSET ??_C@_0BK@OKJALLID@UnitFortificationModifier?$AA@
	mov	ecx, DWORD PTR _kResults$[ebp]
	call	DWORD PTR __imp_?GetInt@Results@Database@@QAEHPBD@Z
	mov	edx, DWORD PTR _this$[ebp]
	mov	DWORD PTR [edx+284], eax

; 104  : 	m_iUnitBaseHealModifier = kResults.GetInt("UnitBaseHealModifier");

	push	OFFSET ??_C@_0BF@LEIBBJAN@UnitBaseHealModifier?$AA@
	mov	ecx, DWORD PTR _kResults$[ebp]
	call	DWORD PTR __imp_?GetInt@Results@Database@@QAEHPBD@Z
	mov	ecx, DWORD PTR _this$[ebp]
	mov	DWORD PTR [ecx+288], eax

; 105  : 	m_iWorkerSpeedModifier = kResults.GetInt("WorkerSpeedModifier");

	push	OFFSET ??_C@_0BE@NGOPBNAB@WorkerSpeedModifier?$AA@
	mov	ecx, DWORD PTR _kResults$[ebp]
	call	DWORD PTR __imp_?GetInt@Results@Database@@QAEHPBD@Z
	mov	edx, DWORD PTR _this$[ebp]
	mov	DWORD PTR [edx+292], eax

; 106  : 	m_iFirstFreeTechs = kResults.GetInt("FirstFreeTechs");

	push	OFFSET ??_C@_0P@IENNJDPB@FirstFreeTechs?$AA@
	mov	ecx, DWORD PTR _kResults$[ebp]
	call	DWORD PTR __imp_?GetInt@Results@Database@@QAEHPBD@Z
	mov	ecx, DWORD PTR _this$[ebp]
	mov	DWORD PTR [ecx+300], eax

; 107  : 	m_iEmbarkedMoveChange = kResults.GetInt("EmbarkedMoveChange");

	push	OFFSET ??_C@_0BD@LKCNALGJ@EmbarkedMoveChange?$AA@
	mov	ecx, DWORD PTR _kResults$[ebp]
	call	DWORD PTR __imp_?GetInt@Results@Database@@QAEHPBD@Z
	mov	edx, DWORD PTR _this$[ebp]
	mov	DWORD PTR [edx+304], eax

; 108  : 	//EAP: Extra sight for embarked units on tech
; 109  : 	m_iEmbarkedSightChange = kResults.GetInt("EmbarkedSightChange");

	push	OFFSET ??_C@_0BE@IBIAPIMK@EmbarkedSightChange?$AA@
	mov	ecx, DWORD PTR _kResults$[ebp]
	call	DWORD PTR __imp_?GetInt@Results@Database@@QAEHPBD@Z
	mov	ecx, DWORD PTR _this$[ebp]
	mov	DWORD PTR [ecx+308], eax

; 110  : 
; 111  : 	m_iInternationalTradeRoutesChange = kResults.GetInt("InternationalTradeRoutesChange");

	push	OFFSET ??_C@_0BP@JOBLBGFG@InternationalTradeRoutesChange?$AA@
	mov	ecx, DWORD PTR _kResults$[ebp]
	call	DWORD PTR __imp_?GetInt@Results@Database@@QAEHPBD@Z
	mov	edx, DWORD PTR _this$[ebp]
	mov	DWORD PTR [edx+312], eax

; 112  : 	m_iInfluenceSpreadModifier = kResults.GetInt("InfluenceSpreadModifier");

	push	OFFSET ??_C@_0BI@KIICGMNH@InfluenceSpreadModifier?$AA@
	mov	ecx, DWORD PTR _kResults$[ebp]
	call	DWORD PTR __imp_?GetInt@Results@Database@@QAEHPBD@Z
	mov	ecx, DWORD PTR _this$[ebp]
	mov	DWORD PTR [ecx+316], eax

; 113  : 	m_iExtraVotesPerDiplomat = kResults.GetInt("ExtraVotesPerDiplomat");

	push	OFFSET ??_C@_0BG@GHKCHOKE@ExtraVotesPerDiplomat?$AA@
	mov	ecx, DWORD PTR _kResults$[ebp]
	call	DWORD PTR __imp_?GetInt@Results@Database@@QAEHPBD@Z
	mov	edx, DWORD PTR _this$[ebp]
	mov	DWORD PTR [edx+320], eax

; 114  : 	m_bEndsGame = kResults.GetBool("EndsGame");

	push	OFFSET ??_C@_08ILBBNLKH@EndsGame?$AA@
	mov	ecx, DWORD PTR _kResults$[ebp]
	call	DWORD PTR __imp_?GetBool@Results@Database@@QAE_NPBD@Z
	mov	ecx, DWORD PTR _this$[ebp]
	mov	BYTE PTR [ecx+332], al

; 115  : 	m_bAllowsEmbarking = kResults.GetBool("AllowsEmbarking");

	push	OFFSET ??_C@_0BA@MAEDHBPF@AllowsEmbarking?$AA@
	mov	ecx, DWORD PTR _kResults$[ebp]
	call	DWORD PTR __imp_?GetBool@Results@Database@@QAE_NPBD@Z
	mov	edx, DWORD PTR _this$[ebp]
	mov	BYTE PTR [edx+333], al

; 116  : 
; 117  : 	//EAP: Civilian Embark
; 118  : 	m_bAllowsEmbarkingCivilian = kResults.GetBool("AllowsEmbarkingCivilian");

	push	OFFSET ??_C@_0BI@LNDCKLIC@AllowsEmbarkingCivilian?$AA@
	mov	ecx, DWORD PTR _kResults$[ebp]
	call	DWORD PTR __imp_?GetBool@Results@Database@@QAE_NPBD@Z
	mov	ecx, DWORD PTR _this$[ebp]
	mov	BYTE PTR [ecx+334], al

; 119  : 
; 120  : 	m_bAllowsDefensiveEmbarking = kResults.GetBool("AllowsDefensiveEmbarking");

	push	OFFSET ??_C@_0BJ@FFHNBGHA@AllowsDefensiveEmbarking?$AA@
	mov	ecx, DWORD PTR _kResults$[ebp]
	call	DWORD PTR __imp_?GetBool@Results@Database@@QAE_NPBD@Z
	mov	edx, DWORD PTR _this$[ebp]
	mov	BYTE PTR [edx+335], al

; 121  : 	m_bEmbarkedAllWaterPassage = kResults.GetBool("EmbarkedAllWaterPassage");

	push	OFFSET ??_C@_0BI@IFJBENMM@EmbarkedAllWaterPassage?$AA@
	mov	ecx, DWORD PTR _kResults$[ebp]
	call	DWORD PTR __imp_?GetBool@Results@Database@@QAE_NPBD@Z
	mov	ecx, DWORD PTR _this$[ebp]
	mov	BYTE PTR [ecx+336], al

; 122  : 	m_bAllowsBarbarianBoats = kResults.GetBool("AllowsBarbarianBoats");

	push	OFFSET ??_C@_0BF@LFIJHIKN@AllowsBarbarianBoats?$AA@
	mov	ecx, DWORD PTR _kResults$[ebp]
	call	DWORD PTR __imp_?GetBool@Results@Database@@QAE_NPBD@Z
	mov	edx, DWORD PTR _this$[ebp]
	mov	BYTE PTR [edx+337], al

; 123  : 	m_bRepeat = kResults.GetBool("Repeat");

	push	OFFSET ??_C@_06HJIMLMON@Repeat?$AA@
	mov	ecx, DWORD PTR _kResults$[ebp]
	call	DWORD PTR __imp_?GetBool@Results@Database@@QAE_NPBD@Z
	mov	ecx, DWORD PTR _this$[ebp]
	mov	BYTE PTR [ecx+338], al

; 124  : 	m_bTrade = kResults.GetBool("Trade");

	push	OFFSET ??_C@_05IOPOMLGK@Trade?$AA@
	mov	ecx, DWORD PTR _kResults$[ebp]
	call	DWORD PTR __imp_?GetBool@Results@Database@@QAE_NPBD@Z
	mov	edx, DWORD PTR _this$[ebp]
	mov	BYTE PTR [edx+339], al

; 125  : 	m_bDisable = kResults.GetBool("Disable");

	push	OFFSET ??_C@_07MIKIFGAL@Disable?$AA@
	mov	ecx, DWORD PTR _kResults$[ebp]
	call	DWORD PTR __imp_?GetBool@Results@Database@@QAE_NPBD@Z
	mov	ecx, DWORD PTR _this$[ebp]
	mov	BYTE PTR [ecx+340], al

; 126  : 	m_bDisableTechSteal = kResults.GetBool("DisableTechSteal");

	push	OFFSET ??_C@_0BB@NCDIJMJE@DisableTechSteal?$AA@
	mov	ecx, DWORD PTR _kResults$[ebp]
	call	DWORD PTR __imp_?GetBool@Results@Database@@QAE_NPBD@Z
	mov	edx, DWORD PTR _this$[ebp]
	mov	BYTE PTR [edx+341], al

; 127  : 	m_bGoodyTech = kResults.GetBool("GoodyTech");

	push	OFFSET ??_C@_09JPAILJCB@GoodyTech?$AA@
	mov	ecx, DWORD PTR _kResults$[ebp]
	call	DWORD PTR __imp_?GetBool@Results@Database@@QAE_NPBD@Z
	mov	ecx, DWORD PTR _this$[ebp]
	mov	BYTE PTR [ecx+342], al

; 128  : 	m_bTriggersArchaeologicalSites = kResults.GetBool("TriggersArchaeologicalSites");

	push	OFFSET ??_C@_0BM@KKEFMJNG@TriggersArchaeologicalSites?$AA@
	mov	ecx, DWORD PTR _kResults$[ebp]
	call	DWORD PTR __imp_?GetBool@Results@Database@@QAE_NPBD@Z
	mov	edx, DWORD PTR _this$[ebp]
	mov	BYTE PTR [edx+357], al

; 129  : 	m_bAllowsWorldCongress = kResults.GetBool("AllowsWorldCongress");

	push	OFFSET ??_C@_0BE@IMAOEHME@AllowsWorldCongress?$AA@
	mov	ecx, DWORD PTR _kResults$[ebp]
	call	DWORD PTR __imp_?GetBool@Results@Database@@QAE_NPBD@Z
	mov	ecx, DWORD PTR _this$[ebp]
	mov	BYTE PTR [ecx+358], al

; 130  : 	m_bExtraWaterSeeFrom = kResults.GetBool("ExtraWaterSeeFrom");

	push	OFFSET ??_C@_0BC@EPEFBLPL@ExtraWaterSeeFrom?$AA@
	mov	ecx, DWORD PTR _kResults$[ebp]
	call	DWORD PTR __imp_?GetBool@Results@Database@@QAE_NPBD@Z
	mov	edx, DWORD PTR _this$[ebp]
	mov	BYTE PTR [edx+343], al

; 131  : 	m_bMapCentering = kResults.GetBool("MapCentering");

	push	OFFSET ??_C@_0N@MDAIKEA@MapCentering?$AA@
	mov	ecx, DWORD PTR _kResults$[ebp]
	call	DWORD PTR __imp_?GetBool@Results@Database@@QAE_NPBD@Z
	mov	ecx, DWORD PTR _this$[ebp]
	mov	BYTE PTR [ecx+344], al

; 132  : 	m_bMapVisible = kResults.GetBool("MapVisible");

	push	OFFSET ??_C@_0L@BLLJLNGK@MapVisible?$AA@
	mov	ecx, DWORD PTR _kResults$[ebp]
	call	DWORD PTR __imp_?GetBool@Results@Database@@QAE_NPBD@Z
	mov	edx, DWORD PTR _this$[ebp]
	mov	BYTE PTR [edx+345], al

; 133  : 	m_bMapTrading = kResults.GetBool("MapTrading");

	push	OFFSET ??_C@_0L@GMHICEOP@MapTrading?$AA@
	mov	ecx, DWORD PTR _kResults$[ebp]
	call	DWORD PTR __imp_?GetBool@Results@Database@@QAE_NPBD@Z
	mov	ecx, DWORD PTR _this$[ebp]
	mov	BYTE PTR [ecx+346], al

; 134  : 	m_bTechTrading = kResults.GetBool("TechTrading");

	push	OFFSET ??_C@_0M@GMOFGMNJ@TechTrading?$AA@
	mov	ecx, DWORD PTR _kResults$[ebp]
	call	DWORD PTR __imp_?GetBool@Results@Database@@QAE_NPBD@Z
	mov	edx, DWORD PTR _this$[ebp]
	mov	BYTE PTR [edx+347], al

; 135  : 	m_bGoldTrading = kResults.GetBool("GoldTrading");

	push	OFFSET ??_C@_0M@OCPDKDMI@GoldTrading?$AA@
	mov	ecx, DWORD PTR _kResults$[ebp]
	call	DWORD PTR __imp_?GetBool@Results@Database@@QAE_NPBD@Z
	mov	ecx, DWORD PTR _this$[ebp]
	mov	BYTE PTR [ecx+348], al

; 136  : 	m_bAllowEmbassyTradingAllowed = kResults.GetBool("AllowEmbassyTradingAllowed");

	push	OFFSET ??_C@_0BL@NAGAJAEL@AllowEmbassyTradingAllowed?$AA@
	mov	ecx, DWORD PTR _kResults$[ebp]
	call	DWORD PTR __imp_?GetBool@Results@Database@@QAE_NPBD@Z
	mov	edx, DWORD PTR _this$[ebp]
	mov	BYTE PTR [edx+349], al

; 137  : 	m_bOpenBordersTradingAllowed = kResults.GetBool("OpenBordersTradingAllowed");

	push	OFFSET ??_C@_0BK@MGOPDIKK@OpenBordersTradingAllowed?$AA@
	mov	ecx, DWORD PTR _kResults$[ebp]
	call	DWORD PTR __imp_?GetBool@Results@Database@@QAE_NPBD@Z
	mov	ecx, DWORD PTR _this$[ebp]
	mov	BYTE PTR [ecx+350], al

; 138  : 	m_bDefensivePactTradingAllowed = kResults.GetBool("DefensivePactTradingAllowed");

	push	OFFSET ??_C@_0BM@PKIJKDME@DefensivePactTradingAllowed?$AA@
	mov	ecx, DWORD PTR _kResults$[ebp]
	call	DWORD PTR __imp_?GetBool@Results@Database@@QAE_NPBD@Z
	mov	edx, DWORD PTR _this$[ebp]
	mov	BYTE PTR [edx+351], al

; 139  : 	m_bResearchAgreementTradingAllowed = kResults.GetBool("ResearchAgreementTradingAllowed");

	push	OFFSET ??_C@_0CA@ELGCCMJG@ResearchAgreementTradingAllowed?$AA@
	mov	ecx, DWORD PTR _kResults$[ebp]
	call	DWORD PTR __imp_?GetBool@Results@Database@@QAE_NPBD@Z
	mov	ecx, DWORD PTR _this$[ebp]
	mov	BYTE PTR [ecx+352], al

; 140  : 	m_bTradeAgreementTradingAllowed = kResults.GetBool("TradeAgreementTradingAllowed");

	push	OFFSET ??_C@_0BN@JEMNLGEL@TradeAgreementTradingAllowed?$AA@
	mov	ecx, DWORD PTR _kResults$[ebp]
	call	DWORD PTR __imp_?GetBool@Results@Database@@QAE_NPBD@Z
	mov	edx, DWORD PTR _this$[ebp]
	mov	BYTE PTR [edx+353], al

; 141  : 	m_bPermanentAllianceTrading = kResults.GetBool("PermanentAllianceTradingAllowed");

	push	OFFSET ??_C@_0CA@ICKMEKKP@PermanentAllianceTradingAllowed?$AA@
	mov	ecx, DWORD PTR _kResults$[ebp]
	call	DWORD PTR __imp_?GetBool@Results@Database@@QAE_NPBD@Z
	mov	ecx, DWORD PTR _this$[ebp]
	mov	BYTE PTR [ecx+354], al

; 142  : 	m_bBridgeBuilding = kResults.GetBool("BridgeBuilding");

	push	OFFSET ??_C@_0P@JKOGIKHO@BridgeBuilding?$AA@
	mov	ecx, DWORD PTR _kResults$[ebp]
	call	DWORD PTR __imp_?GetBool@Results@Database@@QAE_NPBD@Z
	mov	edx, DWORD PTR _this$[ebp]
	mov	BYTE PTR [edx+355], al

; 143  : 	m_bWaterWork = kResults.GetBool("WaterWork");

	push	OFFSET ??_C@_09IDNBDFGB@WaterWork?$AA@
	mov	ecx, DWORD PTR _kResults$[ebp]
	call	DWORD PTR __imp_?GetBool@Results@Database@@QAE_NPBD@Z
	mov	ecx, DWORD PTR _this$[ebp]
	mov	BYTE PTR [ecx+356], al

; 144  : 	m_iGridX = kResults.GetInt("GridX");

	push	OFFSET ??_C@_05KEOANLAO@GridX?$AA@
	mov	ecx, DWORD PTR _kResults$[ebp]
	call	DWORD PTR __imp_?GetInt@Results@Database@@QAEHPBD@Z
	mov	edx, DWORD PTR _this$[ebp]
	mov	DWORD PTR [edx+324], eax

; 145  : 	m_iGridY = kResults.GetInt("GridY");

	push	OFFSET ??_C@_05LNPLOKEP@GridY?$AA@
	mov	ecx, DWORD PTR _kResults$[ebp]
	call	DWORD PTR __imp_?GetInt@Results@Database@@QAEHPBD@Z
	mov	ecx, DWORD PTR _this$[ebp]
	mov	DWORD PTR [ecx+328], eax

; 146  : 
; 147  : 	//References
; 148  : 	const char* szTextVal = NULL;

	mov	DWORD PTR _szTextVal$[ebp], 0

; 149  : 	szTextVal = kResults.GetText("Era");

	push	OFFSET ??_C@_03FJOCGODE@Era?$AA@
	mov	ecx, DWORD PTR _kResults$[ebp]
	call	DWORD PTR __imp_?GetText@Results@Database@@QAEPBDPBD@Z
	mov	DWORD PTR _szTextVal$[ebp], eax

; 150  : 	m_iEra = GC.getInfoTypeForString(szTextVal, true);

	push	1
	mov	edx, DWORD PTR _szTextVal$[ebp]
	push	edx
	mov	ecx, OFFSET ?gGlobals@@3VCvGlobals@@A	; gGlobals
	call	?getInfoTypeForString@CvGlobals@@QBEHPBD_N@Z ; CvGlobals::getInfoTypeForString
	mov	ecx, DWORD PTR _this$[ebp]
	mov	DWORD PTR [ecx+276], eax

; 151  : 
; 152  : 	szTextVal = kResults.GetText("FirstFreeUnitClass");

	push	OFFSET ??_C@_0BD@MKGCGFCK@FirstFreeUnitClass?$AA@
	mov	ecx, DWORD PTR _kResults$[ebp]
	call	DWORD PTR __imp_?GetText@Results@Database@@QAEPBDPBD@Z
	mov	DWORD PTR _szTextVal$[ebp], eax

; 153  : 	m_iFirstFreeUnitClass = GC.getInfoTypeForString(szTextVal, true);

	push	1
	mov	edx, DWORD PTR _szTextVal$[ebp]
	push	edx
	mov	ecx, OFFSET ?gGlobals@@3VCvGlobals@@A	; gGlobals
	call	?getInfoTypeForString@CvGlobals@@QBEHPBD_N@Z ; CvGlobals::getInfoTypeForString
	mov	ecx, DWORD PTR _this$[ebp]
	mov	DWORD PTR [ecx+296], eax

; 154  : 
; 155  : 	szTextVal = kResults.GetText("Quote");

	push	OFFSET ??_C@_05JAOKFCIK@Quote?$AA@
	mov	ecx, DWORD PTR _kResults$[ebp]
	call	DWORD PTR __imp_?GetText@Results@Database@@QAEPBDPBD@Z
	mov	DWORD PTR _szTextVal$[ebp], eax

; 156  : 	SetQuoteKey(szTextVal);

	mov	edx, DWORD PTR _szTextVal$[ebp]
	push	edx
	mov	ecx, DWORD PTR _this$[ebp]
	call	?SetQuoteKey@CvTechEntry@@QAEXPBD@Z	; CvTechEntry::SetQuoteKey

; 157  : 
; 158  : 	szTextVal = kResults.GetText("AudioIntro");

	push	OFFSET ??_C@_0L@HPBDPPMB@AudioIntro?$AA@
	mov	ecx, DWORD PTR _kResults$[ebp]
	call	DWORD PTR __imp_?GetText@Results@Database@@QAEPBDPBD@Z
	mov	DWORD PTR _szTextVal$[ebp], eax

; 159  : 	SetSound(szTextVal);

	mov	eax, DWORD PTR _szTextVal$[ebp]
	push	eax
	mov	ecx, DWORD PTR _this$[ebp]
	call	?SetSound@CvTechEntry@@QAEXPBD@Z	; CvTechEntry::SetSound

; 160  : 
; 161  : 	szTextVal = kResults.GetText("AudioIntroHeader");

	push	OFFSET ??_C@_0BB@GBAPFEGA@AudioIntroHeader?$AA@
	mov	ecx, DWORD PTR _kResults$[ebp]
	call	DWORD PTR __imp_?GetText@Results@Database@@QAEPBDPBD@Z
	mov	DWORD PTR _szTextVal$[ebp], eax

; 162  : 	SetSoundMP(szTextVal);

	mov	ecx, DWORD PTR _szTextVal$[ebp]
	push	ecx
	mov	ecx, DWORD PTR _this$[ebp]
	call	?SetSoundMP@CvTechEntry@@QAEXPBD@Z	; CvTechEntry::SetSoundMP

; 163  : 
; 164  : 	//Arrays
; 165  : 	const char* szTechType = GetType();

	mov	ecx, DWORD PTR _this$[ebp]
	add	ecx, 176				; 000000b0H
	call	DWORD PTR __imp_?c_str@?$basic_string@DU?$char_traits@D@std@@V?$allocator@D@2@@std@@QBEPBDXZ
	mov	DWORD PTR _szTechType$[ebp], eax

; 166  : 	kUtility.PopulateArrayByValue(m_piDomainExtraMoves, "Domains", "Technology_DomainExtraMoves", "DomainType", "TechType", szTechType, "Moves", 0, NUM_DOMAIN_TYPES);

	push	5
	push	0
	push	OFFSET ??_C@_05OCMDHLMM@Moves?$AA@
	mov	edx, DWORD PTR _szTechType$[ebp]
	push	edx
	push	OFFSET ??_C@_08GHGFPPBE@TechType?$AA@
	push	OFFSET ??_C@_0L@NIGHKLOG@DomainType?$AA@
	push	OFFSET ??_C@_0BM@DHKPDGGE@Technology_DomainExtraMoves?$AA@
	push	OFFSET ??_C@_07FKLJOGGC@Domains?$AA@
	mov	eax, DWORD PTR _this$[ebp]
	add	eax, 472				; 000001d8H
	push	eax
	mov	ecx, DWORD PTR _kUtility$[ebp]
	call	?PopulateArrayByValue@CvDatabaseUtility@@QAE_NAAPAHPBD11111HH@Z ; CvDatabaseUtility::PopulateArrayByValue

; 167  : 	kUtility.PopulateArrayByValue(m_piTradeRouteDomainExtraRange, "Domains", "Technology_TradeRouteDomainExtraRange", "DomainType", "TechType", szTechType, "Range", 0, NUM_DOMAIN_TYPES);

	push	5
	push	0
	push	OFFSET ??_C@_05CFMCGLCK@Range?$AA@
	mov	ecx, DWORD PTR _szTechType$[ebp]
	push	ecx
	push	OFFSET ??_C@_08GHGFPPBE@TechType?$AA@
	push	OFFSET ??_C@_0L@NIGHKLOG@DomainType?$AA@
	push	OFFSET ??_C@_0CG@INDDLKBJ@Technology_TradeRouteDomainExtra@
	push	OFFSET ??_C@_07FKLJOGGC@Domains?$AA@
	mov	edx, DWORD PTR _this$[ebp]
	add	edx, 476				; 000001dcH
	push	edx
	mov	ecx, DWORD PTR _kUtility$[ebp]
	call	?PopulateArrayByValue@CvDatabaseUtility@@QAE_NAAPAHPBD11111HH@Z ; CvDatabaseUtility::PopulateArrayByValue

; 168  : 	kUtility.PopulateArrayByExistence(m_pabFreePromotion, "UnitPromotions", "Technology_FreePromotions", "PromotionType", "TechType", szTechType);

	mov	eax, DWORD PTR _szTechType$[ebp]
	push	eax
	push	OFFSET ??_C@_08GHGFPPBE@TechType?$AA@
	push	OFFSET ??_C@_0O@IILJPJBB@PromotionType?$AA@
	push	OFFSET ??_C@_0BK@KPPIEHLD@Technology_FreePromotions?$AA@
	push	OFFSET ??_C@_0P@GCBJCIAG@UnitPromotions?$AA@
	mov	ecx, DWORD PTR _this$[ebp]
	add	ecx, 492				; 000001ecH
	push	ecx
	mov	ecx, DWORD PTR _kUtility$[ebp]
	call	?PopulateArrayByExistence@CvDatabaseUtility@@QAE_NAAPA_NPBD1111@Z ; CvDatabaseUtility::PopulateArrayByExistence

; 169  : 	kUtility.SetFlavors(m_piFlavorValue, "Technology_Flavors", "TechType", szTechType);

	push	0
	mov	edx, DWORD PTR _szTechType$[ebp]
	push	edx
	push	OFFSET ??_C@_08GHGFPPBE@TechType?$AA@
	push	OFFSET ??_C@_0BD@LIOGFLEL@Technology_Flavors?$AA@
	mov	eax, DWORD PTR _this$[ebp]
	add	eax, 480				; 000001e0H
	push	eax
	mov	ecx, DWORD PTR _kUtility$[ebp]
	call	?SetFlavors@CvDatabaseUtility@@QAE_NAAPAHPBD11H@Z ; CvDatabaseUtility::SetFlavors

; 170  : 
; 171  : 	const size_t TechnologiesCount = kUtility.MaxRows("Technologies");

	push	OFFSET ??_C@_0N@INKDAICK@Technologies?$AA@
	mov	ecx, DWORD PTR _kUtility$[ebp]
	call	?MaxRows@CvDatabaseUtility@@QAEHPBD@Z	; CvDatabaseUtility::MaxRows
	mov	DWORD PTR _TechnologiesCount$[ebp], eax

; 172  : 
; 173  : 	//ORPrereqTechs
; 174  : 	{
; 175  : 		//PrereqTech array must be initialized to NO_TECH.
; 176  : 
; 177  : 		kUtility.InitializeArray(m_piPrereqOrTechs, TechnologiesCount, NO_TECH);

	push	-1
	mov	ecx, DWORD PTR _TechnologiesCount$[ebp]
	push	ecx
	mov	edx, DWORD PTR _this$[ebp]
	add	edx, 484				; 000001e4H
	push	edx
	mov	ecx, DWORD PTR _kUtility$[ebp]
	call	?InitializeArray@CvDatabaseUtility@@QAEXAAPAHIH@Z ; CvDatabaseUtility::InitializeArray

; 178  : 
; 179  : 		std::string strKey = "Technologies - Technology_ORPrereqTechs";

	push	OFFSET ??_C@_0CI@EDCAPJKC@Technologies?5?9?5Technology_ORPrer@
	lea	ecx, DWORD PTR _strKey$222977[ebp]
	call	DWORD PTR __imp_??0?$basic_string@DU?$char_traits@D@std@@V?$allocator@D@2@@std@@QAE@PBD@Z
	mov	DWORD PTR __$EHRec$[ebp+8], 0

; 180  : 		Database::Results* pResults = kUtility.GetResults(strKey);

	lea	eax, DWORD PTR _strKey$222977[ebp]
	push	eax
	mov	ecx, DWORD PTR _kUtility$[ebp]
	call	?GetResults@CvDatabaseUtility@@QAEPAVResults@Database@@ABV?$basic_string@DU?$char_traits@D@std@@V?$allocator@D@2@@std@@@Z ; CvDatabaseUtility::GetResults
	mov	DWORD PTR _pResults$222979[ebp], eax

; 181  : 		if(pResults == NULL)

	cmp	DWORD PTR _pResults$222979[ebp], 0
	jne	SHORT $LN6@CacheResul

; 182  : 		{
; 183  : 			pResults = kUtility.PrepareResults(strKey, "select Technologies.ID from Technology_ORPrereqTechs inner join Technologies on Technologies.Type = PrereqTech where TechType = ?;");

	push	OFFSET ??_C@_0ID@JDHEGGPJ@select?5Technologies?4ID?5from?5Tech@
	lea	ecx, DWORD PTR _strKey$222977[ebp]
	push	ecx
	mov	ecx, DWORD PTR _kUtility$[ebp]
	call	?PrepareResults@CvDatabaseUtility@@QAEPAVResults@Database@@ABV?$basic_string@DU?$char_traits@D@std@@V?$allocator@D@2@@std@@PBD@Z ; CvDatabaseUtility::PrepareResults
	mov	DWORD PTR _pResults$222979[ebp], eax
$LN6@CacheResul:

; 184  : 		}
; 185  : 
; 186  : 		pResults->Bind(1, szTechType, -1, false);

	push	0
	push	-1
	mov	edx, DWORD PTR _szTechType$[ebp]
	push	edx
	push	1
	mov	ecx, DWORD PTR _pResults$222979[ebp]
	call	DWORD PTR __imp_?Bind@Results@Database@@QAE_NHPBDH_N@Z

; 187  : 
; 188  : 		int i = 0;

	mov	DWORD PTR _i$222982[ebp], 0
$LN5@CacheResul:

; 189  : 		while(pResults->Step())

	mov	ecx, DWORD PTR _pResults$222979[ebp]
	call	DWORD PTR __imp_?Step@Results@Database@@QAE_NXZ
	movzx	eax, al
	test	eax, eax
	je	SHORT $LN4@CacheResul

; 190  : 		{
; 191  : 			m_piPrereqOrTechs[i++] = pResults->GetInt(0);

	push	0
	mov	ecx, DWORD PTR _pResults$222979[ebp]
	call	DWORD PTR __imp_?GetInt@Results@Database@@QAEHH@Z
	mov	ecx, DWORD PTR _this$[ebp]
	mov	edx, DWORD PTR [ecx+484]
	mov	ecx, DWORD PTR _i$222982[ebp]
	mov	DWORD PTR [edx+ecx*4], eax
	mov	edx, DWORD PTR _i$222982[ebp]
	add	edx, 1
	mov	DWORD PTR _i$222982[ebp], edx

; 192  : 		}

	jmp	SHORT $LN5@CacheResul
$LN4@CacheResul:

; 193  : 
; 194  : 		pResults->Reset();

	mov	ecx, DWORD PTR _pResults$222979[ebp]
	call	DWORD PTR __imp_?Reset@Results@Database@@QAE_NXZ

; 195  : 	}

	mov	DWORD PTR __$EHRec$[ebp+8], -1
	lea	ecx, DWORD PTR _strKey$222977[ebp]
	call	DWORD PTR __imp_??1?$basic_string@DU?$char_traits@D@std@@V?$allocator@D@2@@std@@QAE@XZ

; 196  : 
; 197  : 	//PrereqTechs
; 198  : 	{
; 199  : 		//PrereqTech array must be initialized to NO_TECH.
; 200  : 		kUtility.InitializeArray(m_piPrereqAndTechs, TechnologiesCount, NO_TECH);

	push	-1
	mov	eax, DWORD PTR _TechnologiesCount$[ebp]
	push	eax
	mov	ecx, DWORD PTR _this$[ebp]
	add	ecx, 488				; 000001e8H
	push	ecx
	mov	ecx, DWORD PTR _kUtility$[ebp]
	call	?InitializeArray@CvDatabaseUtility@@QAEXAAPAHIH@Z ; CvDatabaseUtility::InitializeArray

; 201  : 
; 202  : 		std::string strKey = "Technologies - Technology_PrereqTechs";

	push	OFFSET ??_C@_0CG@IGEMGBE@Technologies?5?9?5Technology_Prereq@
	lea	ecx, DWORD PTR _strKey$222986[ebp]
	call	DWORD PTR __imp_??0?$basic_string@DU?$char_traits@D@std@@V?$allocator@D@2@@std@@QAE@PBD@Z
	mov	DWORD PTR __$EHRec$[ebp+8], 1

; 203  : 		Database::Results* pResults = kUtility.GetResults(strKey);

	lea	edx, DWORD PTR _strKey$222986[ebp]
	push	edx
	mov	ecx, DWORD PTR _kUtility$[ebp]
	call	?GetResults@CvDatabaseUtility@@QAEPAVResults@Database@@ABV?$basic_string@DU?$char_traits@D@std@@V?$allocator@D@2@@std@@@Z ; CvDatabaseUtility::GetResults
	mov	DWORD PTR _pResults$222988[ebp], eax

; 204  : 		if(pResults == NULL)

	cmp	DWORD PTR _pResults$222988[ebp], 0
	jne	SHORT $LN3@CacheResul

; 205  : 		{
; 206  : 			pResults = kUtility.PrepareResults(strKey, "select Technologies.ID from Technology_PrereqTechs inner join Technologies on Technologies.Type = PrereqTech where TechType = ?;");

	push	OFFSET ??_C@_0IB@LKAKDCEK@select?5Technologies?4ID?5from?5Tech@
	lea	eax, DWORD PTR _strKey$222986[ebp]
	push	eax
	mov	ecx, DWORD PTR _kUtility$[ebp]
	call	?PrepareResults@CvDatabaseUtility@@QAEPAVResults@Database@@ABV?$basic_string@DU?$char_traits@D@std@@V?$allocator@D@2@@std@@PBD@Z ; CvDatabaseUtility::PrepareResults
	mov	DWORD PTR _pResults$222988[ebp], eax
$LN3@CacheResul:

; 207  : 		}
; 208  : 
; 209  : 		pResults->Bind(1, szTechType, -1, false);

	push	0
	push	-1
	mov	ecx, DWORD PTR _szTechType$[ebp]
	push	ecx
	push	1
	mov	ecx, DWORD PTR _pResults$222988[ebp]
	call	DWORD PTR __imp_?Bind@Results@Database@@QAE_NHPBDH_N@Z

; 210  : 
; 211  : 		int i = 0;

	mov	DWORD PTR _i$222991[ebp], 0
$LN2@CacheResul:

; 212  : 		while(pResults->Step())

	mov	ecx, DWORD PTR _pResults$222988[ebp]
	call	DWORD PTR __imp_?Step@Results@Database@@QAE_NXZ
	movzx	edx, al
	test	edx, edx
	je	SHORT $LN1@CacheResul

; 213  : 		{
; 214  : 			m_piPrereqAndTechs[i++] = pResults->GetInt(0);

	push	0
	mov	ecx, DWORD PTR _pResults$222988[ebp]
	call	DWORD PTR __imp_?GetInt@Results@Database@@QAEHH@Z
	mov	ecx, DWORD PTR _this$[ebp]
	mov	edx, DWORD PTR [ecx+488]
	mov	ecx, DWORD PTR _i$222991[ebp]
	mov	DWORD PTR [edx+ecx*4], eax
	mov	edx, DWORD PTR _i$222991[ebp]
	add	edx, 1
	mov	DWORD PTR _i$222991[ebp], edx

; 215  : 		}

	jmp	SHORT $LN2@CacheResul
$LN1@CacheResul:

; 216  : 
; 217  : 		pResults->Reset();

	mov	ecx, DWORD PTR _pResults$222988[ebp]
	call	DWORD PTR __imp_?Reset@Results@Database@@QAE_NXZ

; 218  : 	}

	mov	DWORD PTR __$EHRec$[ebp+8], -1
	lea	ecx, DWORD PTR _strKey$222986[ebp]
	call	DWORD PTR __imp_??1?$basic_string@DU?$char_traits@D@std@@V?$allocator@D@2@@std@@QAE@XZ

; 219  : 
; 220  : 	return true;

	mov	al, 1
$LN8@CacheResul:

; 221  : }

	mov	ecx, DWORD PTR __$EHRec$[ebp]
	mov	DWORD PTR fs:0, ecx
	pop	ecx
	mov	ecx, DWORD PTR __$ArrayPad$[ebp]
	xor	ecx, ebp
	call	@__security_check_cookie@4
	mov	esp, ebp
	pop	ebp
	ret	8
_TEXT	ENDS
;	COMDAT text$x
text$x	SEGMENT
__unwindfunclet$?CacheResults@CvTechEntry@@UAE_NAAVResults@Database@@AAVCvDatabaseUtility@@@Z$0:
	lea	ecx, DWORD PTR _strKey$222977[ebp]
	jmp	DWORD PTR __imp_??1?$basic_string@DU?$char_traits@D@std@@V?$allocator@D@2@@std@@QAE@XZ
__unwindfunclet$?CacheResults@CvTechEntry@@UAE_NAAVResults@Database@@AAVCvDatabaseUtility@@@Z$1:
	lea	ecx, DWORD PTR _strKey$222986[ebp]
	jmp	DWORD PTR __imp_??1?$basic_string@DU?$char_traits@D@std@@V?$allocator@D@2@@std@@QAE@XZ
__ehhandler$?CacheResults@CvTechEntry@@UAE_NAAVResults@Database@@AAVCvDatabaseUtility@@@Z:
	mov	edx, DWORD PTR [esp+8]
	lea	eax, DWORD PTR [edx+12]
	mov	ecx, DWORD PTR [edx-112]
	xor	ecx, eax
	call	@__security_check_cookie@4
	mov	ecx, DWORD PTR [edx-20]
	xor	ecx, eax
	call	@__security_check_cookie@4
	mov	eax, OFFSET __ehfuncinfo$?CacheResults@CvTechEntry@@UAE_NAAVResults@Database@@AAVCvDatabaseUtility@@@Z
	jmp	___CxxFrameHandler3
text$x	ENDS
?CacheResults@CvTechEntry@@UAE_NAAVResults@Database@@AAVCvDatabaseUtility@@@Z ENDP ; CvTechEntry::CacheResults
PUBLIC	?GetAIWeight@CvTechEntry@@QBEHXZ		; CvTechEntry::GetAIWeight
; Function compile flags: /Odtp
;	COMDAT ?GetAIWeight@CvTechEntry@@QBEHXZ
_TEXT	SEGMENT
_this$ = -4						; size = 4
?GetAIWeight@CvTechEntry@@QBEHXZ PROC			; CvTechEntry::GetAIWeight, COMDAT
; _this$ = ecx

; 225  : {

	push	ebp
	mov	ebp, esp
	push	ecx
	mov	DWORD PTR _this$[ebp], ecx

; 226  : 	return m_iAIWeight;

	mov	eax, DWORD PTR _this$[ebp]
	mov	eax, DWORD PTR [eax+260]

; 227  : }

	mov	esp, ebp
	pop	ebp
	ret	0
?GetAIWeight@CvTechEntry@@QBEHXZ ENDP			; CvTechEntry::GetAIWeight
_TEXT	ENDS
PUBLIC	?GetAITradeModifier@CvTechEntry@@QBEHXZ		; CvTechEntry::GetAITradeModifier
; Function compile flags: /Odtp
;	COMDAT ?GetAITradeModifier@CvTechEntry@@QBEHXZ
_TEXT	SEGMENT
_this$ = -4						; size = 4
?GetAITradeModifier@CvTechEntry@@QBEHXZ PROC		; CvTechEntry::GetAITradeModifier, COMDAT
; _this$ = ecx

; 231  : {

	push	ebp
	mov	ebp, esp
	push	ecx
	mov	DWORD PTR _this$[ebp], ecx

; 232  : 	return m_iAITradeModifier;

	mov	eax, DWORD PTR _this$[ebp]
	mov	eax, DWORD PTR [eax+264]

; 233  : }

	mov	esp, ebp
	pop	ebp
	ret	0
?GetAITradeModifier@CvTechEntry@@QBEHXZ ENDP		; CvTechEntry::GetAITradeModifier
_TEXT	ENDS
PUBLIC	?GetResearchCost@CvTechEntry@@QBEHXZ		; CvTechEntry::GetResearchCost
; Function compile flags: /Odtp
;	COMDAT ?GetResearchCost@CvTechEntry@@QBEHXZ
_TEXT	SEGMENT
_this$ = -4						; size = 4
?GetResearchCost@CvTechEntry@@QBEHXZ PROC		; CvTechEntry::GetResearchCost, COMDAT
; _this$ = ecx

; 237  : {

	push	ebp
	mov	ebp, esp
	push	ecx
	mov	DWORD PTR _this$[ebp], ecx

; 238  : 	return m_iResearchCost;

	mov	eax, DWORD PTR _this$[ebp]
	mov	eax, DWORD PTR [eax+268]

; 239  : }

	mov	esp, ebp
	pop	ebp
	ret	0
?GetResearchCost@CvTechEntry@@QBEHXZ ENDP		; CvTechEntry::GetResearchCost
_TEXT	ENDS
PUBLIC	?GetAdvancedStartCost@CvTechEntry@@QBEHXZ	; CvTechEntry::GetAdvancedStartCost
; Function compile flags: /Odtp
;	COMDAT ?GetAdvancedStartCost@CvTechEntry@@QBEHXZ
_TEXT	SEGMENT
_this$ = -4						; size = 4
?GetAdvancedStartCost@CvTechEntry@@QBEHXZ PROC		; CvTechEntry::GetAdvancedStartCost, COMDAT
; _this$ = ecx

; 243  : {

	push	ebp
	mov	ebp, esp
	push	ecx
	mov	DWORD PTR _this$[ebp], ecx

; 244  : 	return m_iAdvancedStartCost;

	mov	eax, DWORD PTR _this$[ebp]
	mov	eax, DWORD PTR [eax+272]

; 245  : }

	mov	esp, ebp
	pop	ebp
	ret	0
?GetAdvancedStartCost@CvTechEntry@@QBEHXZ ENDP		; CvTechEntry::GetAdvancedStartCost
_TEXT	ENDS
PUBLIC	?GetEra@CvTechEntry@@QBEHXZ			; CvTechEntry::GetEra
; Function compile flags: /Odtp
;	COMDAT ?GetEra@CvTechEntry@@QBEHXZ
_TEXT	SEGMENT
_this$ = -4						; size = 4
?GetEra@CvTechEntry@@QBEHXZ PROC			; CvTechEntry::GetEra, COMDAT
; _this$ = ecx

; 249  : {

	push	ebp
	mov	ebp, esp
	push	ecx
	mov	DWORD PTR _this$[ebp], ecx

; 250  : 	return m_iEra;

	mov	eax, DWORD PTR _this$[ebp]
	mov	eax, DWORD PTR [eax+276]

; 251  : }

	mov	esp, ebp
	pop	ebp
	ret	0
?GetEra@CvTechEntry@@QBEHXZ ENDP			; CvTechEntry::GetEra
_TEXT	ENDS
PUBLIC	?GetFeatureProductionModifier@CvTechEntry@@QBEHXZ ; CvTechEntry::GetFeatureProductionModifier
; Function compile flags: /Odtp
;	COMDAT ?GetFeatureProductionModifier@CvTechEntry@@QBEHXZ
_TEXT	SEGMENT
_this$ = -4						; size = 4
?GetFeatureProductionModifier@CvTechEntry@@QBEHXZ PROC	; CvTechEntry::GetFeatureProductionModifier, COMDAT
; _this$ = ecx

; 255  : {

	push	ebp
	mov	ebp, esp
	push	ecx
	mov	DWORD PTR _this$[ebp], ecx

; 256  : 	return m_iFeatureProductionModifier;

	mov	eax, DWORD PTR _this$[ebp]
	mov	eax, DWORD PTR [eax+280]

; 257  : }

	mov	esp, ebp
	pop	ebp
	ret	0
?GetFeatureProductionModifier@CvTechEntry@@QBEHXZ ENDP	; CvTechEntry::GetFeatureProductionModifier
_TEXT	ENDS
PUBLIC	?GetUnitFortificationModifier@CvTechEntry@@QBEHXZ ; CvTechEntry::GetUnitFortificationModifier
; Function compile flags: /Odtp
;	COMDAT ?GetUnitFortificationModifier@CvTechEntry@@QBEHXZ
_TEXT	SEGMENT
_this$ = -4						; size = 4
?GetUnitFortificationModifier@CvTechEntry@@QBEHXZ PROC	; CvTechEntry::GetUnitFortificationModifier, COMDAT
; _this$ = ecx

; 261  : {

	push	ebp
	mov	ebp, esp
	push	ecx
	mov	DWORD PTR _this$[ebp], ecx

; 262  : 	return m_iUnitFortificationModifier;

	mov	eax, DWORD PTR _this$[ebp]
	mov	eax, DWORD PTR [eax+284]

; 263  : }

	mov	esp, ebp
	pop	ebp
	ret	0
?GetUnitFortificationModifier@CvTechEntry@@QBEHXZ ENDP	; CvTechEntry::GetUnitFortificationModifier
_TEXT	ENDS
PUBLIC	?GetUnitBaseHealModifier@CvTechEntry@@QBEHXZ	; CvTechEntry::GetUnitBaseHealModifier
; Function compile flags: /Odtp
;	COMDAT ?GetUnitBaseHealModifier@CvTechEntry@@QBEHXZ
_TEXT	SEGMENT
_this$ = -4						; size = 4
?GetUnitBaseHealModifier@CvTechEntry@@QBEHXZ PROC	; CvTechEntry::GetUnitBaseHealModifier, COMDAT
; _this$ = ecx

; 267  : {

	push	ebp
	mov	ebp, esp
	push	ecx
	mov	DWORD PTR _this$[ebp], ecx

; 268  : 	return m_iUnitBaseHealModifier;

	mov	eax, DWORD PTR _this$[ebp]
	mov	eax, DWORD PTR [eax+288]

; 269  : }

	mov	esp, ebp
	pop	ebp
	ret	0
?GetUnitBaseHealModifier@CvTechEntry@@QBEHXZ ENDP	; CvTechEntry::GetUnitBaseHealModifier
_TEXT	ENDS
PUBLIC	?GetWorkerSpeedModifier@CvTechEntry@@QBEHXZ	; CvTechEntry::GetWorkerSpeedModifier
; Function compile flags: /Odtp
;	COMDAT ?GetWorkerSpeedModifier@CvTechEntry@@QBEHXZ
_TEXT	SEGMENT
_this$ = -4						; size = 4
?GetWorkerSpeedModifier@CvTechEntry@@QBEHXZ PROC	; CvTechEntry::GetWorkerSpeedModifier, COMDAT
; _this$ = ecx

; 273  : {

	push	ebp
	mov	ebp, esp
	push	ecx
	mov	DWORD PTR _this$[ebp], ecx

; 274  : 	return m_iWorkerSpeedModifier;

	mov	eax, DWORD PTR _this$[ebp]
	mov	eax, DWORD PTR [eax+292]

; 275  : }

	mov	esp, ebp
	pop	ebp
	ret	0
?GetWorkerSpeedModifier@CvTechEntry@@QBEHXZ ENDP	; CvTechEntry::GetWorkerSpeedModifier
_TEXT	ENDS
PUBLIC	?GetFirstFreeUnitClass@CvTechEntry@@QBEHXZ	; CvTechEntry::GetFirstFreeUnitClass
; Function compile flags: /Odtp
;	COMDAT ?GetFirstFreeUnitClass@CvTechEntry@@QBEHXZ
_TEXT	SEGMENT
_this$ = -4						; size = 4
?GetFirstFreeUnitClass@CvTechEntry@@QBEHXZ PROC		; CvTechEntry::GetFirstFreeUnitClass, COMDAT
; _this$ = ecx

; 279  : {

	push	ebp
	mov	ebp, esp
	push	ecx
	mov	DWORD PTR _this$[ebp], ecx

; 280  : 	return m_iFirstFreeUnitClass;

	mov	eax, DWORD PTR _this$[ebp]
	mov	eax, DWORD PTR [eax+296]

; 281  : }

	mov	esp, ebp
	pop	ebp
	ret	0
?GetFirstFreeUnitClass@CvTechEntry@@QBEHXZ ENDP		; CvTechEntry::GetFirstFreeUnitClass
_TEXT	ENDS
PUBLIC	?GetFirstFreeTechs@CvTechEntry@@QBEHXZ		; CvTechEntry::GetFirstFreeTechs
; Function compile flags: /Odtp
;	COMDAT ?GetFirstFreeTechs@CvTechEntry@@QBEHXZ
_TEXT	SEGMENT
_this$ = -4						; size = 4
?GetFirstFreeTechs@CvTechEntry@@QBEHXZ PROC		; CvTechEntry::GetFirstFreeTechs, COMDAT
; _this$ = ecx

; 285  : {

	push	ebp
	mov	ebp, esp
	push	ecx
	mov	DWORD PTR _this$[ebp], ecx

; 286  : 	return m_iFirstFreeTechs;

	mov	eax, DWORD PTR _this$[ebp]
	mov	eax, DWORD PTR [eax+300]

; 287  : }

	mov	esp, ebp
	pop	ebp
	ret	0
?GetFirstFreeTechs@CvTechEntry@@QBEHXZ ENDP		; CvTechEntry::GetFirstFreeTechs
_TEXT	ENDS
PUBLIC	?GetEmbarkedMoveChange@CvTechEntry@@QBEHXZ	; CvTechEntry::GetEmbarkedMoveChange
; Function compile flags: /Odtp
;	COMDAT ?GetEmbarkedMoveChange@CvTechEntry@@QBEHXZ
_TEXT	SEGMENT
_this$ = -4						; size = 4
?GetEmbarkedMoveChange@CvTechEntry@@QBEHXZ PROC		; CvTechEntry::GetEmbarkedMoveChange, COMDAT
; _this$ = ecx

; 291  : {

	push	ebp
	mov	ebp, esp
	push	ecx
	mov	DWORD PTR _this$[ebp], ecx

; 292  : 	return m_iEmbarkedMoveChange;

	mov	eax, DWORD PTR _this$[ebp]
	mov	eax, DWORD PTR [eax+304]

; 293  : }

	mov	esp, ebp
	pop	ebp
	ret	0
?GetEmbarkedMoveChange@CvTechEntry@@QBEHXZ ENDP		; CvTechEntry::GetEmbarkedMoveChange
_TEXT	ENDS
PUBLIC	?GetEmbarkedSightChange@CvTechEntry@@QBEHXZ	; CvTechEntry::GetEmbarkedSightChange
; Function compile flags: /Odtp
;	COMDAT ?GetEmbarkedSightChange@CvTechEntry@@QBEHXZ
_TEXT	SEGMENT
_this$ = -4						; size = 4
?GetEmbarkedSightChange@CvTechEntry@@QBEHXZ PROC	; CvTechEntry::GetEmbarkedSightChange, COMDAT
; _this$ = ecx

; 297  : {

	push	ebp
	mov	ebp, esp
	push	ecx
	mov	DWORD PTR _this$[ebp], ecx

; 298  : 	return m_iEmbarkedSightChange;

	mov	eax, DWORD PTR _this$[ebp]
	mov	eax, DWORD PTR [eax+308]

; 299  : }

	mov	esp, ebp
	pop	ebp
	ret	0
?GetEmbarkedSightChange@CvTechEntry@@QBEHXZ ENDP	; CvTechEntry::GetEmbarkedSightChange
_TEXT	ENDS
PUBLIC	?GetNumInternationalTradeRoutesChange@CvTechEntry@@QBEHXZ ; CvTechEntry::GetNumInternationalTradeRoutesChange
; Function compile flags: /Odtp
;	COMDAT ?GetNumInternationalTradeRoutesChange@CvTechEntry@@QBEHXZ
_TEXT	SEGMENT
_this$ = -4						; size = 4
?GetNumInternationalTradeRoutesChange@CvTechEntry@@QBEHXZ PROC ; CvTechEntry::GetNumInternationalTradeRoutesChange, COMDAT
; _this$ = ecx

; 303  : {

	push	ebp
	mov	ebp, esp
	push	ecx
	mov	DWORD PTR _this$[ebp], ecx

; 304  : 	return m_iInternationalTradeRoutesChange;

	mov	eax, DWORD PTR _this$[ebp]
	mov	eax, DWORD PTR [eax+312]

; 305  : }

	mov	esp, ebp
	pop	ebp
	ret	0
?GetNumInternationalTradeRoutesChange@CvTechEntry@@QBEHXZ ENDP ; CvTechEntry::GetNumInternationalTradeRoutesChange
_TEXT	ENDS
PUBLIC	?GetInfluenceSpreadModifier@CvTechEntry@@QBEHXZ	; CvTechEntry::GetInfluenceSpreadModifier
; Function compile flags: /Odtp
;	COMDAT ?GetInfluenceSpreadModifier@CvTechEntry@@QBEHXZ
_TEXT	SEGMENT
_this$ = -4						; size = 4
?GetInfluenceSpreadModifier@CvTechEntry@@QBEHXZ PROC	; CvTechEntry::GetInfluenceSpreadModifier, COMDAT
; _this$ = ecx

; 309  : {

	push	ebp
	mov	ebp, esp
	push	ecx
	mov	DWORD PTR _this$[ebp], ecx

; 310  : 	return m_iInfluenceSpreadModifier;

	mov	eax, DWORD PTR _this$[ebp]
	mov	eax, DWORD PTR [eax+316]

; 311  : }

	mov	esp, ebp
	pop	ebp
	ret	0
?GetInfluenceSpreadModifier@CvTechEntry@@QBEHXZ ENDP	; CvTechEntry::GetInfluenceSpreadModifier
_TEXT	ENDS
PUBLIC	?GetExtraVotesPerDiplomat@CvTechEntry@@QBEHXZ	; CvTechEntry::GetExtraVotesPerDiplomat
; Function compile flags: /Odtp
;	COMDAT ?GetExtraVotesPerDiplomat@CvTechEntry@@QBEHXZ
_TEXT	SEGMENT
_this$ = -4						; size = 4
?GetExtraVotesPerDiplomat@CvTechEntry@@QBEHXZ PROC	; CvTechEntry::GetExtraVotesPerDiplomat, COMDAT
; _this$ = ecx

; 315  : {

	push	ebp
	mov	ebp, esp
	push	ecx
	mov	DWORD PTR _this$[ebp], ecx

; 316  : 	return m_iExtraVotesPerDiplomat;

	mov	eax, DWORD PTR _this$[ebp]
	mov	eax, DWORD PTR [eax+320]

; 317  : }

	mov	esp, ebp
	pop	ebp
	ret	0
?GetExtraVotesPerDiplomat@CvTechEntry@@QBEHXZ ENDP	; CvTechEntry::GetExtraVotesPerDiplomat
_TEXT	ENDS
PUBLIC	?GetGridX@CvTechEntry@@QBEHXZ			; CvTechEntry::GetGridX
; Function compile flags: /Odtp
;	COMDAT ?GetGridX@CvTechEntry@@QBEHXZ
_TEXT	SEGMENT
_this$ = -4						; size = 4
?GetGridX@CvTechEntry@@QBEHXZ PROC			; CvTechEntry::GetGridX, COMDAT
; _this$ = ecx

; 321  : {

	push	ebp
	mov	ebp, esp
	push	ecx
	mov	DWORD PTR _this$[ebp], ecx

; 322  : 	return m_iGridX;

	mov	eax, DWORD PTR _this$[ebp]
	mov	eax, DWORD PTR [eax+324]

; 323  : }

	mov	esp, ebp
	pop	ebp
	ret	0
?GetGridX@CvTechEntry@@QBEHXZ ENDP			; CvTechEntry::GetGridX
_TEXT	ENDS
PUBLIC	?GetGridY@CvTechEntry@@QBEHXZ			; CvTechEntry::GetGridY
; Function compile flags: /Odtp
;	COMDAT ?GetGridY@CvTechEntry@@QBEHXZ
_TEXT	SEGMENT
_this$ = -4						; size = 4
?GetGridY@CvTechEntry@@QBEHXZ PROC			; CvTechEntry::GetGridY, COMDAT
; _this$ = ecx

; 327  : {

	push	ebp
	mov	ebp, esp
	push	ecx
	mov	DWORD PTR _this$[ebp], ecx

; 328  : 	return m_iGridY;

	mov	eax, DWORD PTR _this$[ebp]
	mov	eax, DWORD PTR [eax+328]

; 329  : }

	mov	esp, ebp
	pop	ebp
	ret	0
?GetGridY@CvTechEntry@@QBEHXZ ENDP			; CvTechEntry::GetGridY
_TEXT	ENDS
PUBLIC	?IsEndsGame@CvTechEntry@@QBE_NXZ		; CvTechEntry::IsEndsGame
; Function compile flags: /Odtp
;	COMDAT ?IsEndsGame@CvTechEntry@@QBE_NXZ
_TEXT	SEGMENT
_this$ = -4						; size = 4
?IsEndsGame@CvTechEntry@@QBE_NXZ PROC			; CvTechEntry::IsEndsGame, COMDAT
; _this$ = ecx

; 333  : {

	push	ebp
	mov	ebp, esp
	push	ecx
	mov	DWORD PTR _this$[ebp], ecx

; 334  : 	return m_bEndsGame;

	mov	eax, DWORD PTR _this$[ebp]
	mov	al, BYTE PTR [eax+332]

; 335  : }

	mov	esp, ebp
	pop	ebp
	ret	0
?IsEndsGame@CvTechEntry@@QBE_NXZ ENDP			; CvTechEntry::IsEndsGame
_TEXT	ENDS
PUBLIC	?IsAllowsEmbarking@CvTechEntry@@QBE_NXZ		; CvTechEntry::IsAllowsEmbarking
; Function compile flags: /Odtp
;	COMDAT ?IsAllowsEmbarking@CvTechEntry@@QBE_NXZ
_TEXT	SEGMENT
_this$ = -4						; size = 4
?IsAllowsEmbarking@CvTechEntry@@QBE_NXZ PROC		; CvTechEntry::IsAllowsEmbarking, COMDAT
; _this$ = ecx

; 339  : {

	push	ebp
	mov	ebp, esp
	push	ecx
	mov	DWORD PTR _this$[ebp], ecx

; 340  : 	return m_bAllowsEmbarking;

	mov	eax, DWORD PTR _this$[ebp]
	mov	al, BYTE PTR [eax+333]

; 341  : }

	mov	esp, ebp
	pop	ebp
	ret	0
?IsAllowsEmbarking@CvTechEntry@@QBE_NXZ ENDP		; CvTechEntry::IsAllowsEmbarking
_TEXT	ENDS
PUBLIC	?IsAllowsEmbarkingCivilian@CvTechEntry@@QBE_NXZ	; CvTechEntry::IsAllowsEmbarkingCivilian
; Function compile flags: /Odtp
;	COMDAT ?IsAllowsEmbarkingCivilian@CvTechEntry@@QBE_NXZ
_TEXT	SEGMENT
_this$ = -4						; size = 4
?IsAllowsEmbarkingCivilian@CvTechEntry@@QBE_NXZ PROC	; CvTechEntry::IsAllowsEmbarkingCivilian, COMDAT
; _this$ = ecx

; 345  : {

	push	ebp
	mov	ebp, esp
	push	ecx
	mov	DWORD PTR _this$[ebp], ecx

; 346  : 	return m_bAllowsEmbarkingCivilian;

	mov	eax, DWORD PTR _this$[ebp]
	mov	al, BYTE PTR [eax+334]

; 347  : }

	mov	esp, ebp
	pop	ebp
	ret	0
?IsAllowsEmbarkingCivilian@CvTechEntry@@QBE_NXZ ENDP	; CvTechEntry::IsAllowsEmbarkingCivilian
_TEXT	ENDS
PUBLIC	?IsAllowsDefensiveEmbarking@CvTechEntry@@QBE_NXZ ; CvTechEntry::IsAllowsDefensiveEmbarking
; Function compile flags: /Odtp
;	COMDAT ?IsAllowsDefensiveEmbarking@CvTechEntry@@QBE_NXZ
_TEXT	SEGMENT
_this$ = -4						; size = 4
?IsAllowsDefensiveEmbarking@CvTechEntry@@QBE_NXZ PROC	; CvTechEntry::IsAllowsDefensiveEmbarking, COMDAT
; _this$ = ecx

; 351  : {

	push	ebp
	mov	ebp, esp
	push	ecx
	mov	DWORD PTR _this$[ebp], ecx

; 352  : 	return m_bAllowsDefensiveEmbarking;

	mov	eax, DWORD PTR _this$[ebp]
	mov	al, BYTE PTR [eax+335]

; 353  : }

	mov	esp, ebp
	pop	ebp
	ret	0
?IsAllowsDefensiveEmbarking@CvTechEntry@@QBE_NXZ ENDP	; CvTechEntry::IsAllowsDefensiveEmbarking
_TEXT	ENDS
PUBLIC	?IsEmbarkedAllWaterPassage@CvTechEntry@@QBE_NXZ	; CvTechEntry::IsEmbarkedAllWaterPassage
; Function compile flags: /Odtp
;	COMDAT ?IsEmbarkedAllWaterPassage@CvTechEntry@@QBE_NXZ
_TEXT	SEGMENT
_this$ = -4						; size = 4
?IsEmbarkedAllWaterPassage@CvTechEntry@@QBE_NXZ PROC	; CvTechEntry::IsEmbarkedAllWaterPassage, COMDAT
; _this$ = ecx

; 357  : {

	push	ebp
	mov	ebp, esp
	push	ecx
	mov	DWORD PTR _this$[ebp], ecx

; 358  : 	return m_bEmbarkedAllWaterPassage;

	mov	eax, DWORD PTR _this$[ebp]
	mov	al, BYTE PTR [eax+336]

; 359  : }

	mov	esp, ebp
	pop	ebp
	ret	0
?IsEmbarkedAllWaterPassage@CvTechEntry@@QBE_NXZ ENDP	; CvTechEntry::IsEmbarkedAllWaterPassage
_TEXT	ENDS
PUBLIC	?IsAllowsBarbarianBoats@CvTechEntry@@QBE_NXZ	; CvTechEntry::IsAllowsBarbarianBoats
; Function compile flags: /Odtp
;	COMDAT ?IsAllowsBarbarianBoats@CvTechEntry@@QBE_NXZ
_TEXT	SEGMENT
_this$ = -4						; size = 4
?IsAllowsBarbarianBoats@CvTechEntry@@QBE_NXZ PROC	; CvTechEntry::IsAllowsBarbarianBoats, COMDAT
; _this$ = ecx

; 363  : {

	push	ebp
	mov	ebp, esp
	push	ecx
	mov	DWORD PTR _this$[ebp], ecx

; 364  : 	return m_bAllowsBarbarianBoats;

	mov	eax, DWORD PTR _this$[ebp]
	mov	al, BYTE PTR [eax+337]

; 365  : }

	mov	esp, ebp
	pop	ebp
	ret	0
?IsAllowsBarbarianBoats@CvTechEntry@@QBE_NXZ ENDP	; CvTechEntry::IsAllowsBarbarianBoats
_TEXT	ENDS
PUBLIC	?IsRepeat@CvTechEntry@@QBE_NXZ			; CvTechEntry::IsRepeat
; Function compile flags: /Odtp
;	COMDAT ?IsRepeat@CvTechEntry@@QBE_NXZ
_TEXT	SEGMENT
_this$ = -4						; size = 4
?IsRepeat@CvTechEntry@@QBE_NXZ PROC			; CvTechEntry::IsRepeat, COMDAT
; _this$ = ecx

; 369  : {

	push	ebp
	mov	ebp, esp
	push	ecx
	mov	DWORD PTR _this$[ebp], ecx

; 370  : 	return m_bRepeat;

	mov	eax, DWORD PTR _this$[ebp]
	mov	al, BYTE PTR [eax+338]

; 371  : }

	mov	esp, ebp
	pop	ebp
	ret	0
?IsRepeat@CvTechEntry@@QBE_NXZ ENDP			; CvTechEntry::IsRepeat
_TEXT	ENDS
PUBLIC	?IsTrade@CvTechEntry@@QBE_NXZ			; CvTechEntry::IsTrade
; Function compile flags: /Odtp
;	COMDAT ?IsTrade@CvTechEntry@@QBE_NXZ
_TEXT	SEGMENT
_this$ = -4						; size = 4
?IsTrade@CvTechEntry@@QBE_NXZ PROC			; CvTechEntry::IsTrade, COMDAT
; _this$ = ecx

; 375  : {

	push	ebp
	mov	ebp, esp
	push	ecx
	mov	DWORD PTR _this$[ebp], ecx

; 376  : 	return m_bTrade;

	mov	eax, DWORD PTR _this$[ebp]
	mov	al, BYTE PTR [eax+339]

; 377  : }

	mov	esp, ebp
	pop	ebp
	ret	0
?IsTrade@CvTechEntry@@QBE_NXZ ENDP			; CvTechEntry::IsTrade
_TEXT	ENDS
PUBLIC	?IsDisable@CvTechEntry@@QBE_NXZ			; CvTechEntry::IsDisable
; Function compile flags: /Odtp
;	COMDAT ?IsDisable@CvTechEntry@@QBE_NXZ
_TEXT	SEGMENT
_this$ = -4						; size = 4
?IsDisable@CvTechEntry@@QBE_NXZ PROC			; CvTechEntry::IsDisable, COMDAT
; _this$ = ecx

; 381  : {

	push	ebp
	mov	ebp, esp
	push	ecx
	mov	DWORD PTR _this$[ebp], ecx

; 382  : 	return m_bDisable;

	mov	eax, DWORD PTR _this$[ebp]
	mov	al, BYTE PTR [eax+340]

; 383  : }

	mov	esp, ebp
	pop	ebp
	ret	0
?IsDisable@CvTechEntry@@QBE_NXZ ENDP			; CvTechEntry::IsDisable
_TEXT	ENDS
PUBLIC	?IsGoodyTech@CvTechEntry@@QBE_NXZ		; CvTechEntry::IsGoodyTech
; Function compile flags: /Odtp
;	COMDAT ?IsGoodyTech@CvTechEntry@@QBE_NXZ
_TEXT	SEGMENT
_this$ = -4						; size = 4
?IsGoodyTech@CvTechEntry@@QBE_NXZ PROC			; CvTechEntry::IsGoodyTech, COMDAT
; _this$ = ecx

; 388  : {

	push	ebp
	mov	ebp, esp
	push	ecx
	mov	DWORD PTR _this$[ebp], ecx

; 389  : 	return m_bGoodyTech;

	mov	eax, DWORD PTR _this$[ebp]
	mov	al, BYTE PTR [eax+342]

; 390  : }

	mov	esp, ebp
	pop	ebp
	ret	0
?IsGoodyTech@CvTechEntry@@QBE_NXZ ENDP			; CvTechEntry::IsGoodyTech
_TEXT	ENDS
PUBLIC	?IsTriggersArchaeologicalSites@CvTechEntry@@QBE_NXZ ; CvTechEntry::IsTriggersArchaeologicalSites
; Function compile flags: /Odtp
;	COMDAT ?IsTriggersArchaeologicalSites@CvTechEntry@@QBE_NXZ
_TEXT	SEGMENT
_this$ = -4						; size = 4
?IsTriggersArchaeologicalSites@CvTechEntry@@QBE_NXZ PROC ; CvTechEntry::IsTriggersArchaeologicalSites, COMDAT
; _this$ = ecx

; 394  : {

	push	ebp
	mov	ebp, esp
	push	ecx
	mov	DWORD PTR _this$[ebp], ecx

; 395  : 	return m_bTriggersArchaeologicalSites;

	mov	eax, DWORD PTR _this$[ebp]
	mov	al, BYTE PTR [eax+357]

; 396  : }

	mov	esp, ebp
	pop	ebp
	ret	0
?IsTriggersArchaeologicalSites@CvTechEntry@@QBE_NXZ ENDP ; CvTechEntry::IsTriggersArchaeologicalSites
_TEXT	ENDS
PUBLIC	?IsAllowsWorldCongress@CvTechEntry@@QBE_NXZ	; CvTechEntry::IsAllowsWorldCongress
; Function compile flags: /Odtp
;	COMDAT ?IsAllowsWorldCongress@CvTechEntry@@QBE_NXZ
_TEXT	SEGMENT
_this$ = -4						; size = 4
?IsAllowsWorldCongress@CvTechEntry@@QBE_NXZ PROC	; CvTechEntry::IsAllowsWorldCongress, COMDAT
; _this$ = ecx

; 400  : {

	push	ebp
	mov	ebp, esp
	push	ecx
	mov	DWORD PTR _this$[ebp], ecx

; 401  : 	return m_bAllowsWorldCongress;

	mov	eax, DWORD PTR _this$[ebp]
	mov	al, BYTE PTR [eax+358]

; 402  : }

	mov	esp, ebp
	pop	ebp
	ret	0
?IsAllowsWorldCongress@CvTechEntry@@QBE_NXZ ENDP	; CvTechEntry::IsAllowsWorldCongress
_TEXT	ENDS
PUBLIC	?IsExtraWaterSeeFrom@CvTechEntry@@QBE_NXZ	; CvTechEntry::IsExtraWaterSeeFrom
; Function compile flags: /Odtp
;	COMDAT ?IsExtraWaterSeeFrom@CvTechEntry@@QBE_NXZ
_TEXT	SEGMENT
_this$ = -4						; size = 4
?IsExtraWaterSeeFrom@CvTechEntry@@QBE_NXZ PROC		; CvTechEntry::IsExtraWaterSeeFrom, COMDAT
; _this$ = ecx

; 406  : {

	push	ebp
	mov	ebp, esp
	push	ecx
	mov	DWORD PTR _this$[ebp], ecx

; 407  : 	return m_bExtraWaterSeeFrom;

	mov	eax, DWORD PTR _this$[ebp]
	mov	al, BYTE PTR [eax+343]

; 408  : }

	mov	esp, ebp
	pop	ebp
	ret	0
?IsExtraWaterSeeFrom@CvTechEntry@@QBE_NXZ ENDP		; CvTechEntry::IsExtraWaterSeeFrom
_TEXT	ENDS
PUBLIC	?IsMapCentering@CvTechEntry@@QBE_NXZ		; CvTechEntry::IsMapCentering
; Function compile flags: /Odtp
;	COMDAT ?IsMapCentering@CvTechEntry@@QBE_NXZ
_TEXT	SEGMENT
_this$ = -4						; size = 4
?IsMapCentering@CvTechEntry@@QBE_NXZ PROC		; CvTechEntry::IsMapCentering, COMDAT
; _this$ = ecx

; 412  : {

	push	ebp
	mov	ebp, esp
	push	ecx
	mov	DWORD PTR _this$[ebp], ecx

; 413  : 	return m_bMapCentering;

	mov	eax, DWORD PTR _this$[ebp]
	mov	al, BYTE PTR [eax+344]

; 414  : }

	mov	esp, ebp
	pop	ebp
	ret	0
?IsMapCentering@CvTechEntry@@QBE_NXZ ENDP		; CvTechEntry::IsMapCentering
_TEXT	ENDS
PUBLIC	?IsMapVisible@CvTechEntry@@QBE_NXZ		; CvTechEntry::IsMapVisible
; Function compile flags: /Odtp
;	COMDAT ?IsMapVisible@CvTechEntry@@QBE_NXZ
_TEXT	SEGMENT
_this$ = -4						; size = 4
?IsMapVisible@CvTechEntry@@QBE_NXZ PROC			; CvTechEntry::IsMapVisible, COMDAT
; _this$ = ecx

; 418  : {

	push	ebp
	mov	ebp, esp
	push	ecx
	mov	DWORD PTR _this$[ebp], ecx

; 419  : 	return m_bMapVisible;

	mov	eax, DWORD PTR _this$[ebp]
	mov	al, BYTE PTR [eax+345]

; 420  : }

	mov	esp, ebp
	pop	ebp
	ret	0
?IsMapVisible@CvTechEntry@@QBE_NXZ ENDP			; CvTechEntry::IsMapVisible
_TEXT	ENDS
PUBLIC	?IsMapTrading@CvTechEntry@@QBE_NXZ		; CvTechEntry::IsMapTrading
; Function compile flags: /Odtp
;	COMDAT ?IsMapTrading@CvTechEntry@@QBE_NXZ
_TEXT	SEGMENT
_this$ = -4						; size = 4
?IsMapTrading@CvTechEntry@@QBE_NXZ PROC			; CvTechEntry::IsMapTrading, COMDAT
; _this$ = ecx

; 424  : {

	push	ebp
	mov	ebp, esp
	push	ecx
	mov	DWORD PTR _this$[ebp], ecx

; 425  : 	return m_bMapTrading;

	mov	eax, DWORD PTR _this$[ebp]
	mov	al, BYTE PTR [eax+346]

; 426  : }

	mov	esp, ebp
	pop	ebp
	ret	0
?IsMapTrading@CvTechEntry@@QBE_NXZ ENDP			; CvTechEntry::IsMapTrading
_TEXT	ENDS
PUBLIC	?IsTechTrading@CvTechEntry@@QBE_NXZ		; CvTechEntry::IsTechTrading
; Function compile flags: /Odtp
;	COMDAT ?IsTechTrading@CvTechEntry@@QBE_NXZ
_TEXT	SEGMENT
_this$ = -4						; size = 4
?IsTechTrading@CvTechEntry@@QBE_NXZ PROC		; CvTechEntry::IsTechTrading, COMDAT
; _this$ = ecx

; 430  : {

	push	ebp
	mov	ebp, esp
	push	ecx
	mov	DWORD PTR _this$[ebp], ecx

; 431  : 	return m_bTechTrading;

	mov	eax, DWORD PTR _this$[ebp]
	mov	al, BYTE PTR [eax+347]

; 432  : }

	mov	esp, ebp
	pop	ebp
	ret	0
?IsTechTrading@CvTechEntry@@QBE_NXZ ENDP		; CvTechEntry::IsTechTrading
_TEXT	ENDS
PUBLIC	?IsGoldTrading@CvTechEntry@@QBE_NXZ		; CvTechEntry::IsGoldTrading
; Function compile flags: /Odtp
;	COMDAT ?IsGoldTrading@CvTechEntry@@QBE_NXZ
_TEXT	SEGMENT
_this$ = -4						; size = 4
?IsGoldTrading@CvTechEntry@@QBE_NXZ PROC		; CvTechEntry::IsGoldTrading, COMDAT
; _this$ = ecx

; 436  : {

	push	ebp
	mov	ebp, esp
	push	ecx
	mov	DWORD PTR _this$[ebp], ecx

; 437  : 	return m_bGoldTrading;

	mov	eax, DWORD PTR _this$[ebp]
	mov	al, BYTE PTR [eax+348]

; 438  : }

	mov	esp, ebp
	pop	ebp
	ret	0
?IsGoldTrading@CvTechEntry@@QBE_NXZ ENDP		; CvTechEntry::IsGoldTrading
_TEXT	ENDS
PUBLIC	?IsAllowEmbassyTradingAllowed@CvTechEntry@@QBE_NXZ ; CvTechEntry::IsAllowEmbassyTradingAllowed
; Function compile flags: /Odtp
;	COMDAT ?IsAllowEmbassyTradingAllowed@CvTechEntry@@QBE_NXZ
_TEXT	SEGMENT
_this$ = -4						; size = 4
?IsAllowEmbassyTradingAllowed@CvTechEntry@@QBE_NXZ PROC	; CvTechEntry::IsAllowEmbassyTradingAllowed, COMDAT
; _this$ = ecx

; 442  : {

	push	ebp
	mov	ebp, esp
	push	ecx
	mov	DWORD PTR _this$[ebp], ecx

; 443  : 	return m_bAllowEmbassyTradingAllowed;

	mov	eax, DWORD PTR _this$[ebp]
	mov	al, BYTE PTR [eax+349]

; 444  : }

	mov	esp, ebp
	pop	ebp
	ret	0
?IsAllowEmbassyTradingAllowed@CvTechEntry@@QBE_NXZ ENDP	; CvTechEntry::IsAllowEmbassyTradingAllowed
_TEXT	ENDS
PUBLIC	?IsOpenBordersTradingAllowed@CvTechEntry@@QBE_NXZ ; CvTechEntry::IsOpenBordersTradingAllowed
; Function compile flags: /Odtp
;	COMDAT ?IsOpenBordersTradingAllowed@CvTechEntry@@QBE_NXZ
_TEXT	SEGMENT
_this$ = -4						; size = 4
?IsOpenBordersTradingAllowed@CvTechEntry@@QBE_NXZ PROC	; CvTechEntry::IsOpenBordersTradingAllowed, COMDAT
; _this$ = ecx

; 448  : {

	push	ebp
	mov	ebp, esp
	push	ecx
	mov	DWORD PTR _this$[ebp], ecx

; 449  : 	return m_bOpenBordersTradingAllowed;

	mov	eax, DWORD PTR _this$[ebp]
	mov	al, BYTE PTR [eax+350]

; 450  : }

	mov	esp, ebp
	pop	ebp
	ret	0
?IsOpenBordersTradingAllowed@CvTechEntry@@QBE_NXZ ENDP	; CvTechEntry::IsOpenBordersTradingAllowed
_TEXT	ENDS
PUBLIC	?IsDefensivePactTradingAllowed@CvTechEntry@@QBE_NXZ ; CvTechEntry::IsDefensivePactTradingAllowed
; Function compile flags: /Odtp
;	COMDAT ?IsDefensivePactTradingAllowed@CvTechEntry@@QBE_NXZ
_TEXT	SEGMENT
_this$ = -4						; size = 4
?IsDefensivePactTradingAllowed@CvTechEntry@@QBE_NXZ PROC ; CvTechEntry::IsDefensivePactTradingAllowed, COMDAT
; _this$ = ecx

; 454  : {

	push	ebp
	mov	ebp, esp
	push	ecx
	mov	DWORD PTR _this$[ebp], ecx

; 455  : 	return m_bDefensivePactTradingAllowed;

	mov	eax, DWORD PTR _this$[ebp]
	mov	al, BYTE PTR [eax+351]

; 456  : }

	mov	esp, ebp
	pop	ebp
	ret	0
?IsDefensivePactTradingAllowed@CvTechEntry@@QBE_NXZ ENDP ; CvTechEntry::IsDefensivePactTradingAllowed
_TEXT	ENDS
PUBLIC	?IsResearchAgreementTradingAllowed@CvTechEntry@@QBE_NXZ ; CvTechEntry::IsResearchAgreementTradingAllowed
; Function compile flags: /Odtp
;	COMDAT ?IsResearchAgreementTradingAllowed@CvTechEntry@@QBE_NXZ
_TEXT	SEGMENT
_this$ = -4						; size = 4
?IsResearchAgreementTradingAllowed@CvTechEntry@@QBE_NXZ PROC ; CvTechEntry::IsResearchAgreementTradingAllowed, COMDAT
; _this$ = ecx

; 460  : {

	push	ebp
	mov	ebp, esp
	push	ecx
	mov	DWORD PTR _this$[ebp], ecx

; 461  : 	return m_bResearchAgreementTradingAllowed;

	mov	eax, DWORD PTR _this$[ebp]
	mov	al, BYTE PTR [eax+352]

; 462  : }

	mov	esp, ebp
	pop	ebp
	ret	0
?IsResearchAgreementTradingAllowed@CvTechEntry@@QBE_NXZ ENDP ; CvTechEntry::IsResearchAgreementTradingAllowed
_TEXT	ENDS
PUBLIC	?IsTradeAgreementTradingAllowed@CvTechEntry@@QBE_NXZ ; CvTechEntry::IsTradeAgreementTradingAllowed
; Function compile flags: /Odtp
;	COMDAT ?IsTradeAgreementTradingAllowed@CvTechEntry@@QBE_NXZ
_TEXT	SEGMENT
_this$ = -4						; size = 4
?IsTradeAgreementTradingAllowed@CvTechEntry@@QBE_NXZ PROC ; CvTechEntry::IsTradeAgreementTradingAllowed, COMDAT
; _this$ = ecx

; 466  : {

	push	ebp
	mov	ebp, esp
	push	ecx
	mov	DWORD PTR _this$[ebp], ecx

; 467  : 	return m_bTradeAgreementTradingAllowed;

	mov	eax, DWORD PTR _this$[ebp]
	mov	al, BYTE PTR [eax+353]

; 468  : }

	mov	esp, ebp
	pop	ebp
	ret	0
?IsTradeAgreementTradingAllowed@CvTechEntry@@QBE_NXZ ENDP ; CvTechEntry::IsTradeAgreementTradingAllowed
_TEXT	ENDS
PUBLIC	?IsPermanentAllianceTrading@CvTechEntry@@QBE_NXZ ; CvTechEntry::IsPermanentAllianceTrading
; Function compile flags: /Odtp
;	COMDAT ?IsPermanentAllianceTrading@CvTechEntry@@QBE_NXZ
_TEXT	SEGMENT
_this$ = -4						; size = 4
?IsPermanentAllianceTrading@CvTechEntry@@QBE_NXZ PROC	; CvTechEntry::IsPermanentAllianceTrading, COMDAT
; _this$ = ecx

; 472  : {

	push	ebp
	mov	ebp, esp
	push	ecx
	mov	DWORD PTR _this$[ebp], ecx

; 473  : 	return m_bPermanentAllianceTrading;

	mov	eax, DWORD PTR _this$[ebp]
	mov	al, BYTE PTR [eax+354]

; 474  : }

	mov	esp, ebp
	pop	ebp
	ret	0
?IsPermanentAllianceTrading@CvTechEntry@@QBE_NXZ ENDP	; CvTechEntry::IsPermanentAllianceTrading
_TEXT	ENDS
PUBLIC	?IsBridgeBuilding@CvTechEntry@@QBE_NXZ		; CvTechEntry::IsBridgeBuilding
; Function compile flags: /Odtp
;	COMDAT ?IsBridgeBuilding@CvTechEntry@@QBE_NXZ
_TEXT	SEGMENT
_this$ = -4						; size = 4
?IsBridgeBuilding@CvTechEntry@@QBE_NXZ PROC		; CvTechEntry::IsBridgeBuilding, COMDAT
; _this$ = ecx

; 478  : {

	push	ebp
	mov	ebp, esp
	push	ecx
	mov	DWORD PTR _this$[ebp], ecx

; 479  : 	return m_bBridgeBuilding;

	mov	eax, DWORD PTR _this$[ebp]
	mov	al, BYTE PTR [eax+355]

; 480  : }

	mov	esp, ebp
	pop	ebp
	ret	0
?IsBridgeBuilding@CvTechEntry@@QBE_NXZ ENDP		; CvTechEntry::IsBridgeBuilding
_TEXT	ENDS
PUBLIC	?IsWaterWork@CvTechEntry@@QBE_NXZ		; CvTechEntry::IsWaterWork
; Function compile flags: /Odtp
;	COMDAT ?IsWaterWork@CvTechEntry@@QBE_NXZ
_TEXT	SEGMENT
_this$ = -4						; size = 4
?IsWaterWork@CvTechEntry@@QBE_NXZ PROC			; CvTechEntry::IsWaterWork, COMDAT
; _this$ = ecx

; 484  : {

	push	ebp
	mov	ebp, esp
	push	ecx
	mov	DWORD PTR _this$[ebp], ecx

; 485  : 	return m_bWaterWork;

	mov	eax, DWORD PTR _this$[ebp]
	mov	al, BYTE PTR [eax+356]

; 486  : }

	mov	esp, ebp
	pop	ebp
	ret	0
?IsWaterWork@CvTechEntry@@QBE_NXZ ENDP			; CvTechEntry::IsWaterWork
_TEXT	ENDS
PUBLIC	?IsFreePromotion@CvTechEntry@@QBEHH@Z		; CvTechEntry::IsFreePromotion
; Function compile flags: /Odtp
;	COMDAT ?IsFreePromotion@CvTechEntry@@QBEHH@Z
_TEXT	SEGMENT
tv69 = -8						; size = 4
_this$ = -4						; size = 4
_i$ = 8							; size = 4
?IsFreePromotion@CvTechEntry@@QBEHH@Z PROC		; CvTechEntry::IsFreePromotion, COMDAT
; _this$ = ecx

; 490  : {

	push	ebp
	mov	ebp, esp
	sub	esp, 8
	mov	DWORD PTR _this$[ebp], ecx

; 491  : 	return m_pabFreePromotion ? m_pabFreePromotion[i] : -1;

	mov	eax, DWORD PTR _this$[ebp]
	cmp	DWORD PTR [eax+492], 0
	je	SHORT $LN3@IsFreeProm
	mov	ecx, DWORD PTR _this$[ebp]
	mov	edx, DWORD PTR [ecx+492]
	mov	eax, DWORD PTR _i$[ebp]
	movzx	ecx, BYTE PTR [edx+eax]
	mov	DWORD PTR tv69[ebp], ecx
	jmp	SHORT $LN4@IsFreeProm
$LN3@IsFreeProm:
	mov	DWORD PTR tv69[ebp], -1
$LN4@IsFreeProm:
	mov	eax, DWORD PTR tv69[ebp]

; 492  : }

	mov	esp, ebp
	pop	ebp
	ret	4
?IsFreePromotion@CvTechEntry@@QBEHH@Z ENDP		; CvTechEntry::IsFreePromotion
_TEXT	ENDS
PUBLIC	?GetQuote@CvTechEntry@@QAEPBDXZ			; CvTechEntry::GetQuote
; Function compile flags: /Odtp
;	COMDAT ?GetQuote@CvTechEntry@@QAEPBDXZ
_TEXT	SEGMENT
_this$ = -4						; size = 4
?GetQuote@CvTechEntry@@QAEPBDXZ PROC			; CvTechEntry::GetQuote, COMDAT
; _this$ = ecx

; 496  : {

	push	ebp
	mov	ebp, esp
	push	ecx
	mov	DWORD PTR _this$[ebp], ecx

; 497  : 	return m_wstrQuote.c_str();

	mov	ecx, DWORD PTR _this$[ebp]
	add	ecx, 388				; 00000184H
	call	DWORD PTR __imp_?c_str@?$basic_string@DU?$char_traits@D@std@@V?$allocator@D@2@@std@@QBEPBDXZ

; 498  : }

	mov	esp, ebp
	pop	ebp
	ret	0
?GetQuote@CvTechEntry@@QAEPBDXZ ENDP			; CvTechEntry::GetQuote
_TEXT	ENDS
PUBLIC	?GetLocalizedText@@YA?AVCvString@@PBD@Z		; GetLocalizedText
EXTRN	__imp_??4?$basic_string@DU?$char_traits@D@std@@V?$allocator@D@2@@std@@QAEAAV01@ABV01@@Z:PROC
EXTRN	__imp_?clear@?$basic_string@DU?$char_traits@D@std@@V?$allocator@D@2@@std@@QAEXXZ:PROC
EXTRN	__imp_?assign@?$basic_string@DU?$char_traits@D@std@@V?$allocator@D@2@@std@@QAEAAV12@PBD@Z:PROC
;	COMDAT xdata$x
; File d:\sources\lekmod_git\checkout\lekmod_dll\cvgamecoredllutil\include\cvstring.h
xdata$x	SEGMENT
__unwindtable$?SetQuoteKey@CvTechEntry@@QAEXPBD@Z DD 0ffffffffH
	DD	FLAT:__unwindfunclet$?SetQuoteKey@CvTechEntry@@QAEXPBD@Z$0
__ehfuncinfo$?SetQuoteKey@CvTechEntry@@QAEXPBD@Z DD 019930522H
	DD	01H
	DD	FLAT:__unwindtable$?SetQuoteKey@CvTechEntry@@QAEXPBD@Z
	DD	2 DUP(00H)
	DD	2 DUP(00H)
	DD	00H
	DD	01H
; Function compile flags: /Odtp
; File d:\sources\lekmod_git\checkout\lekmod_dll\cvgamecoredll_expansion2\cvtechclasses.cpp
xdata$x	ENDS
;	COMDAT ?SetQuoteKey@CvTechEntry@@QAEXPBD@Z
_TEXT	SEGMENT
tv76 = -64						; size = 4
_this$ = -60						; size = 4
$T226430 = -56						; size = 4
$T226429 = -52						; size = 4
$T226425 = -48						; size = 4
$T226421 = -44						; size = 4
$T226414 = -40						; size = 28
__$EHRec$ = -12						; size = 12
_szVal$ = 8						; size = 4
?SetQuoteKey@CvTechEntry@@QAEXPBD@Z PROC		; CvTechEntry::SetQuoteKey, COMDAT
; _this$ = ecx

; 502  : {

	push	ebp
	mov	ebp, esp
	push	-1
	push	__ehhandler$?SetQuoteKey@CvTechEntry@@QAEXPBD@Z
	mov	eax, DWORD PTR fs:0
	push	eax
	sub	esp, 52					; 00000034H
	mov	eax, DWORD PTR ___security_cookie
	xor	eax, ebp
	push	eax
	lea	eax, DWORD PTR __$EHRec$[ebp]
	mov	DWORD PTR fs:0, eax
	mov	DWORD PTR _this$[ebp], ecx

; 503  : 	m_strQuoteKey = szVal;

	mov	eax, DWORD PTR _this$[ebp]
	add	eax, 360				; 00000168H
	mov	DWORD PTR $T226421[ebp], eax
	cmp	DWORD PTR _szVal$[ebp], 0
	je	SHORT $LN5@SetQuoteKe
	mov	ecx, DWORD PTR _szVal$[ebp]
	push	ecx
	mov	ecx, DWORD PTR $T226421[ebp]
	call	DWORD PTR __imp_?assign@?$basic_string@DU?$char_traits@D@std@@V?$allocator@D@2@@std@@QAEAAV12@PBD@Z
	jmp	SHORT $LN6@SetQuoteKe
$LN5@SetQuoteKe:
	mov	ecx, DWORD PTR $T226421[ebp]
	call	DWORD PTR __imp_?clear@?$basic_string@DU?$char_traits@D@std@@V?$allocator@D@2@@std@@QAEXXZ
$LN6@SetQuoteKe:

; 504  : 	m_wstrQuote = GetLocalizedText(m_strQuoteKey);

	mov	ecx, DWORD PTR _this$[ebp]
	add	ecx, 360				; 00000168H
	call	DWORD PTR __imp_?c_str@?$basic_string@DU?$char_traits@D@std@@V?$allocator@D@2@@std@@QBEPBDXZ
	mov	DWORD PTR $T226425[ebp], eax
	mov	edx, DWORD PTR $T226425[ebp]
	push	edx
	lea	eax, DWORD PTR $T226414[ebp]
	push	eax
	call	?GetLocalizedText@@YA?AVCvString@@PBD@Z	; GetLocalizedText
	add	esp, 8
	mov	DWORD PTR tv76[ebp], eax
	mov	ecx, DWORD PTR tv76[ebp]
	mov	DWORD PTR $T226430[ebp], ecx
	mov	DWORD PTR __$EHRec$[ebp+8], 0
	mov	edx, DWORD PTR _this$[ebp]
	add	edx, 388				; 00000184H
	mov	DWORD PTR $T226429[ebp], edx
	mov	eax, DWORD PTR $T226430[ebp]
	push	eax
	mov	ecx, DWORD PTR $T226429[ebp]
	call	DWORD PTR __imp_??4?$basic_string@DU?$char_traits@D@std@@V?$allocator@D@2@@std@@QAEAAV01@ABV01@@Z
	mov	DWORD PTR __$EHRec$[ebp+8], -1
	lea	ecx, DWORD PTR $T226414[ebp]
	call	DWORD PTR __imp_??1?$basic_string@DU?$char_traits@D@std@@V?$allocator@D@2@@std@@QAE@XZ

; 505  : }

	mov	ecx, DWORD PTR __$EHRec$[ebp]
	mov	DWORD PTR fs:0, ecx
	pop	ecx
	mov	esp, ebp
	pop	ebp
	ret	4
_TEXT	ENDS
;	COMDAT text$x
text$x	SEGMENT
__unwindfunclet$?SetQuoteKey@CvTechEntry@@QAEXPBD@Z$0:
	lea	ecx, DWORD PTR $T226414[ebp]
	jmp	??1CvString@@QAE@XZ			; CvString::~CvString
__ehhandler$?SetQuoteKey@CvTechEntry@@QAEXPBD@Z:
	mov	edx, DWORD PTR [esp+8]
	lea	eax, DWORD PTR [edx+12]
	mov	ecx, DWORD PTR [edx-56]
	xor	ecx, eax
	call	@__security_check_cookie@4
	mov	eax, OFFSET __ehfuncinfo$?SetQuoteKey@CvTechEntry@@QAEXPBD@Z
	jmp	___CxxFrameHandler3
text$x	ENDS
?SetQuoteKey@CvTechEntry@@QAEXPBD@Z ENDP		; CvTechEntry::SetQuoteKey
PUBLIC	__$ArrayPad$
EXTRN	__imp_??1String@Localization@@UAE@XZ:PROC
EXTRN	__imp_??0?$basic_string@DU?$char_traits@D@std@@V?$allocator@D@2@@std@@QAE@ABV01@@Z:PROC
EXTRN	__imp_?assign@?$basic_string@DU?$char_traits@D@std@@V?$allocator@D@2@@std@@QAEAAV12@PBDI@Z:PROC
EXTRN	__imp_?toUTF8@String@Localization@@QAEPBDAAIH@Z:PROC
EXTRN	__imp_?Lookup@Localization@@YA?AVString@1@PBD@Z:PROC
;	COMDAT xdata$x
; File d:\sources\lekmod_git\checkout\lekmod_dll\cvgamecoredllutil\include\cvstring.h
xdata$x	SEGMENT
__unwindtable$?GetLocalizedText@@YA?AVCvString@@PBD@Z DD 0ffffffffH
	DD	FLAT:__unwindfunclet$?GetLocalizedText@@YA?AVCvString@@PBD@Z$2
	DD	00H
	DD	FLAT:__unwindfunclet$?GetLocalizedText@@YA?AVCvString@@PBD@Z$0
	DD	01H
	DD	FLAT:__unwindfunclet$?GetLocalizedText@@YA?AVCvString@@PBD@Z$1
__ehfuncinfo$?GetLocalizedText@@YA?AVCvString@@PBD@Z DD 019930522H
	DD	03H
	DD	FLAT:__unwindtable$?GetLocalizedText@@YA?AVCvString@@PBD@Z
	DD	2 DUP(00H)
	DD	2 DUP(00H)
	DD	00H
	DD	01H
; Function compile flags: /Odtp
; File d:\sources\lekmod_git\checkout\lekmod_dll\cvgamecoredll_expansion2\cvgamecoreutils.h
xdata$x	ENDS
;	COMDAT ?GetLocalizedText@@YA?AVCvString@@PBD@Z
_TEXT	SEGMENT
$T226447 = -140						; size = 4
_str$ = -136						; size = 28
__$ArrayPad$ = -108					; size = 4
_bytes$ = -104						; size = 4
_text$ = -100						; size = 80
_szComposedString$ = -16				; size = 4
__$EHRec$ = -12						; size = 12
___$ReturnUdt$ = 8					; size = 4
_szString$ = 12						; size = 4
?GetLocalizedText@@YA?AVCvString@@PBD@Z PROC		; GetLocalizedText, COMDAT

; 489  : {

	push	ebp
	mov	ebp, esp
	push	-1
	push	__ehhandler$?GetLocalizedText@@YA?AVCvString@@PBD@Z
	mov	eax, DWORD PTR fs:0
	push	eax
	sub	esp, 128				; 00000080H
	mov	eax, DWORD PTR ___security_cookie
	xor	eax, ebp
	mov	DWORD PTR __$ArrayPad$[ebp], eax
	push	eax
	lea	eax, DWORD PTR __$EHRec$[ebp]
	mov	DWORD PTR fs:0, eax
	mov	DWORD PTR $T226447[ebp], 0

; 490  : 	Localization::String text = Localization::Lookup(szString);

	mov	eax, DWORD PTR _szString$[ebp]
	push	eax
	lea	ecx, DWORD PTR _text$[ebp]
	push	ecx
	call	DWORD PTR __imp_?Lookup@Localization@@YA?AVString@1@PBD@Z
	add	esp, 8
	mov	DWORD PTR __$EHRec$[ebp+8], 1

; 491  : 
; 492  : 	size_t bytes = 0;

	mov	DWORD PTR _bytes$[ebp], 0

; 493  : 	const char* szComposedString = text.toUTF8(bytes);

	push	1
	lea	edx, DWORD PTR _bytes$[ebp]
	push	edx
	lea	ecx, DWORD PTR _text$[ebp]
	call	DWORD PTR __imp_?toUTF8@String@Localization@@QAEPBDAAIH@Z
	mov	DWORD PTR _szComposedString$[ebp], eax

; 494  : 	CvString str;

	lea	ecx, DWORD PTR _str$[ebp]
	call	DWORD PTR __imp_??0?$basic_string@DU?$char_traits@D@std@@V?$allocator@D@2@@std@@QAE@XZ
	mov	BYTE PTR __$EHRec$[ebp+8], 2

; 495  : 	str.assign(szComposedString, bytes);

	mov	eax, DWORD PTR _bytes$[ebp]
	push	eax
	mov	ecx, DWORD PTR _szComposedString$[ebp]
	push	ecx
	lea	ecx, DWORD PTR _str$[ebp]
	call	DWORD PTR __imp_?assign@?$basic_string@DU?$char_traits@D@std@@V?$allocator@D@2@@std@@QAEAAV12@PBDI@Z

; 496  : 	return str;

	lea	edx, DWORD PTR _str$[ebp]
	push	edx
	mov	ecx, DWORD PTR ___$ReturnUdt$[ebp]
	call	DWORD PTR __imp_??0?$basic_string@DU?$char_traits@D@std@@V?$allocator@D@2@@std@@QAE@ABV01@@Z
	mov	eax, DWORD PTR $T226447[ebp]
	or	eax, 1
	mov	DWORD PTR $T226447[ebp], eax
	mov	BYTE PTR __$EHRec$[ebp+8], 1
	lea	ecx, DWORD PTR _str$[ebp]
	call	DWORD PTR __imp_??1?$basic_string@DU?$char_traits@D@std@@V?$allocator@D@2@@std@@QAE@XZ
	mov	BYTE PTR __$EHRec$[ebp+8], 0
	lea	ecx, DWORD PTR _text$[ebp]
	call	DWORD PTR __imp_??1String@Localization@@UAE@XZ
	mov	eax, DWORD PTR ___$ReturnUdt$[ebp]

; 497  : }

	mov	ecx, DWORD PTR __$EHRec$[ebp]
	mov	DWORD PTR fs:0, ecx
	pop	ecx
	mov	ecx, DWORD PTR __$ArrayPad$[ebp]
	xor	ecx, ebp
	call	@__security_check_cookie@4
	mov	esp, ebp
	pop	ebp
	ret	0
_TEXT	ENDS
;	COMDAT text$x
text$x	SEGMENT
__unwindfunclet$?GetLocalizedText@@YA?AVCvString@@PBD@Z$0:
	lea	ecx, DWORD PTR _text$[ebp]
	jmp	DWORD PTR __imp_??1String@Localization@@UAE@XZ
__unwindfunclet$?GetLocalizedText@@YA?AVCvString@@PBD@Z$1:
	lea	ecx, DWORD PTR _str$[ebp]
	jmp	??1CvString@@QAE@XZ			; CvString::~CvString
__unwindfunclet$?GetLocalizedText@@YA?AVCvString@@PBD@Z$2:
	mov	eax, DWORD PTR $T226447[ebp]
	and	eax, 1
	je	$LN6@GetLocaliz
	and	DWORD PTR $T226447[ebp], -2		; fffffffeH
	mov	ecx, DWORD PTR ___$ReturnUdt$[ebp]
	jmp	??1CvString@@QAE@XZ			; CvString::~CvString
$LN6@GetLocaliz:
	ret	0
__ehhandler$?GetLocalizedText@@YA?AVCvString@@PBD@Z:
	mov	edx, DWORD PTR [esp+8]
	lea	eax, DWORD PTR [edx+12]
	mov	ecx, DWORD PTR [edx-132]
	xor	ecx, eax
	call	@__security_check_cookie@4
	mov	ecx, DWORD PTR [edx-96]
	xor	ecx, eax
	call	@__security_check_cookie@4
	mov	eax, OFFSET __ehfuncinfo$?GetLocalizedText@@YA?AVCvString@@PBD@Z
	jmp	___CxxFrameHandler3
text$x	ENDS
?GetLocalizedText@@YA?AVCvString@@PBD@Z ENDP		; GetLocalizedText
PUBLIC	?GetSound@CvTechEntry@@QBEPBDXZ			; CvTechEntry::GetSound
; Function compile flags: /Odtp
; File d:\sources\lekmod_git\checkout\lekmod_dll\cvgamecoredll_expansion2\cvtechclasses.cpp
;	COMDAT ?GetSound@CvTechEntry@@QBEPBDXZ
_TEXT	SEGMENT
_this$ = -4						; size = 4
?GetSound@CvTechEntry@@QBEPBDXZ PROC			; CvTechEntry::GetSound, COMDAT
; _this$ = ecx

; 509  : {

	push	ebp
	mov	ebp, esp
	push	ecx
	mov	DWORD PTR _this$[ebp], ecx

; 510  : 	return m_strSound;

	mov	ecx, DWORD PTR _this$[ebp]
	add	ecx, 416				; 000001a0H
	call	DWORD PTR __imp_?c_str@?$basic_string@DU?$char_traits@D@std@@V?$allocator@D@2@@std@@QBEPBDXZ

; 511  : }

	mov	esp, ebp
	pop	ebp
	ret	0
?GetSound@CvTechEntry@@QBEPBDXZ ENDP			; CvTechEntry::GetSound
; Function compile flags: /Odtp
_TEXT	ENDS
;	COMDAT ?SetSound@CvTechEntry@@QAEXPBD@Z
_TEXT	SEGMENT
_this$ = -8						; size = 4
$T226479 = -4						; size = 4
_szVal$ = 8						; size = 4
?SetSound@CvTechEntry@@QAEXPBD@Z PROC			; CvTechEntry::SetSound, COMDAT
; _this$ = ecx

; 515  : {

	push	ebp
	mov	ebp, esp
	sub	esp, 8
	mov	DWORD PTR _this$[ebp], ecx

; 516  : 	m_strSound = szVal;

	mov	eax, DWORD PTR _this$[ebp]
	add	eax, 416				; 000001a0H
	mov	DWORD PTR $T226479[ebp], eax
	cmp	DWORD PTR _szVal$[ebp], 0
	je	SHORT $LN4@SetSound
	mov	ecx, DWORD PTR _szVal$[ebp]
	push	ecx
	mov	ecx, DWORD PTR $T226479[ebp]
	call	DWORD PTR __imp_?assign@?$basic_string@DU?$char_traits@D@std@@V?$allocator@D@2@@std@@QAEAAV12@PBD@Z
	jmp	SHORT $LN1@SetSound
$LN4@SetSound:
	mov	ecx, DWORD PTR $T226479[ebp]
	call	DWORD PTR __imp_?clear@?$basic_string@DU?$char_traits@D@std@@V?$allocator@D@2@@std@@QAEXXZ
$LN1@SetSound:

; 517  : }

	mov	esp, ebp
	pop	ebp
	ret	4
?SetSound@CvTechEntry@@QAEXPBD@Z ENDP			; CvTechEntry::SetSound
_TEXT	ENDS
PUBLIC	?GetSoundMP@CvTechEntry@@QBEPBDXZ		; CvTechEntry::GetSoundMP
; Function compile flags: /Odtp
;	COMDAT ?GetSoundMP@CvTechEntry@@QBEPBDXZ
_TEXT	SEGMENT
_this$ = -4						; size = 4
?GetSoundMP@CvTechEntry@@QBEPBDXZ PROC			; CvTechEntry::GetSoundMP, COMDAT
; _this$ = ecx

; 521  : {

	push	ebp
	mov	ebp, esp
	push	ecx
	mov	DWORD PTR _this$[ebp], ecx

; 522  : 	return m_strSoundMP;

	mov	ecx, DWORD PTR _this$[ebp]
	add	ecx, 444				; 000001bcH
	call	DWORD PTR __imp_?c_str@?$basic_string@DU?$char_traits@D@std@@V?$allocator@D@2@@std@@QBEPBDXZ

; 523  : }

	mov	esp, ebp
	pop	ebp
	ret	0
?GetSoundMP@CvTechEntry@@QBEPBDXZ ENDP			; CvTechEntry::GetSoundMP
; Function compile flags: /Odtp
_TEXT	ENDS
;	COMDAT ?SetSoundMP@CvTechEntry@@QAEXPBD@Z
_TEXT	SEGMENT
_this$ = -8						; size = 4
$T226492 = -4						; size = 4
_szVal$ = 8						; size = 4
?SetSoundMP@CvTechEntry@@QAEXPBD@Z PROC			; CvTechEntry::SetSoundMP, COMDAT
; _this$ = ecx

; 527  : {

	push	ebp
	mov	ebp, esp
	sub	esp, 8
	mov	DWORD PTR _this$[ebp], ecx

; 528  : 	m_strSoundMP = szVal;

	mov	eax, DWORD PTR _this$[ebp]
	add	eax, 444				; 000001bcH
	mov	DWORD PTR $T226492[ebp], eax
	cmp	DWORD PTR _szVal$[ebp], 0
	je	SHORT $LN4@SetSoundMP
	mov	ecx, DWORD PTR _szVal$[ebp]
	push	ecx
	mov	ecx, DWORD PTR $T226492[ebp]
	call	DWORD PTR __imp_?assign@?$basic_string@DU?$char_traits@D@std@@V?$allocator@D@2@@std@@QAEAAV12@PBD@Z
	jmp	SHORT $LN1@SetSoundMP
$LN4@SetSoundMP:
	mov	ecx, DWORD PTR $T226492[ebp]
	call	DWORD PTR __imp_?clear@?$basic_string@DU?$char_traits@D@std@@V?$allocator@D@2@@std@@QAEXXZ
$LN1@SetSoundMP:

; 529  : }

	mov	esp, ebp
	pop	ebp
	ret	4
?SetSoundMP@CvTechEntry@@QAEXPBD@Z ENDP			; CvTechEntry::SetSoundMP
_TEXT	ENDS
PUBLIC	?GetDomainExtraMoves@CvTechEntry@@QBEHH@Z	; CvTechEntry::GetDomainExtraMoves
; Function compile flags: /Odtp
;	COMDAT ?GetDomainExtraMoves@CvTechEntry@@QBEHH@Z
_TEXT	SEGMENT
tv69 = -8						; size = 4
_this$ = -4						; size = 4
_i$ = 8							; size = 4
?GetDomainExtraMoves@CvTechEntry@@QBEHH@Z PROC		; CvTechEntry::GetDomainExtraMoves, COMDAT
; _this$ = ecx

; 535  : {

	push	ebp
	mov	ebp, esp
	sub	esp, 8
	mov	DWORD PTR _this$[ebp], ecx

; 536  : 	return m_piDomainExtraMoves ? m_piDomainExtraMoves[i] : -1;

	mov	eax, DWORD PTR _this$[ebp]
	cmp	DWORD PTR [eax+472], 0
	je	SHORT $LN3@GetDomainE
	mov	ecx, DWORD PTR _this$[ebp]
	mov	edx, DWORD PTR [ecx+472]
	mov	eax, DWORD PTR _i$[ebp]
	mov	ecx, DWORD PTR [edx+eax*4]
	mov	DWORD PTR tv69[ebp], ecx
	jmp	SHORT $LN4@GetDomainE
$LN3@GetDomainE:
	mov	DWORD PTR tv69[ebp], -1
$LN4@GetDomainE:
	mov	eax, DWORD PTR tv69[ebp]

; 537  : }

	mov	esp, ebp
	pop	ebp
	ret	4
?GetDomainExtraMoves@CvTechEntry@@QBEHH@Z ENDP		; CvTechEntry::GetDomainExtraMoves
_TEXT	ENDS
PUBLIC	?GetTradeRouteDomainExtraRange@CvTechEntry@@QBEHH@Z ; CvTechEntry::GetTradeRouteDomainExtraRange
; Function compile flags: /Odtp
;	COMDAT ?GetTradeRouteDomainExtraRange@CvTechEntry@@QBEHH@Z
_TEXT	SEGMENT
tv69 = -8						; size = 4
_this$ = -4						; size = 4
_i$ = 8							; size = 4
?GetTradeRouteDomainExtraRange@CvTechEntry@@QBEHH@Z PROC ; CvTechEntry::GetTradeRouteDomainExtraRange, COMDAT
; _this$ = ecx

; 541  : {

	push	ebp
	mov	ebp, esp
	sub	esp, 8
	mov	DWORD PTR _this$[ebp], ecx

; 542  : 	return m_piTradeRouteDomainExtraRange ? m_piTradeRouteDomainExtraRange[i] : -1;

	mov	eax, DWORD PTR _this$[ebp]
	cmp	DWORD PTR [eax+476], 0
	je	SHORT $LN3@GetTradeRo
	mov	ecx, DWORD PTR _this$[ebp]
	mov	edx, DWORD PTR [ecx+476]
	mov	eax, DWORD PTR _i$[ebp]
	mov	ecx, DWORD PTR [edx+eax*4]
	mov	DWORD PTR tv69[ebp], ecx
	jmp	SHORT $LN4@GetTradeRo
$LN3@GetTradeRo:
	mov	DWORD PTR tv69[ebp], -1
$LN4@GetTradeRo:
	mov	eax, DWORD PTR tv69[ebp]

; 543  : }

	mov	esp, ebp
	pop	ebp
	ret	4
?GetTradeRouteDomainExtraRange@CvTechEntry@@QBEHH@Z ENDP ; CvTechEntry::GetTradeRouteDomainExtraRange
_TEXT	ENDS
PUBLIC	?GetFlavorValue@CvTechEntry@@QBEHH@Z		; CvTechEntry::GetFlavorValue
; Function compile flags: /Odtp
;	COMDAT ?GetFlavorValue@CvTechEntry@@QBEHH@Z
_TEXT	SEGMENT
tv69 = -8						; size = 4
_this$ = -4						; size = 4
_i$ = 8							; size = 4
?GetFlavorValue@CvTechEntry@@QBEHH@Z PROC		; CvTechEntry::GetFlavorValue, COMDAT
; _this$ = ecx

; 548  : {

	push	ebp
	mov	ebp, esp
	sub	esp, 8
	mov	DWORD PTR _this$[ebp], ecx

; 549  : 	CvAssertMsg(i < GC.getNumFlavorTypes(), "Index out of bounds");
; 550  : 	CvAssertMsg(i > -1, "Index out of bounds");
; 551  : 	return m_piFlavorValue ? m_piFlavorValue[i] : -1;

	mov	eax, DWORD PTR _this$[ebp]
	cmp	DWORD PTR [eax+480], 0
	je	SHORT $LN3@GetFlavorV
	mov	ecx, DWORD PTR _this$[ebp]
	mov	edx, DWORD PTR [ecx+480]
	mov	eax, DWORD PTR _i$[ebp]
	mov	ecx, DWORD PTR [edx+eax*4]
	mov	DWORD PTR tv69[ebp], ecx
	jmp	SHORT $LN4@GetFlavorV
$LN3@GetFlavorV:
	mov	DWORD PTR tv69[ebp], -1
$LN4@GetFlavorV:
	mov	eax, DWORD PTR tv69[ebp]

; 552  : }

	mov	esp, ebp
	pop	ebp
	ret	4
?GetFlavorValue@CvTechEntry@@QBEHH@Z ENDP		; CvTechEntry::GetFlavorValue
_TEXT	ENDS
PUBLIC	?GetPrereqOrTechs@CvTechEntry@@QBEHH@Z		; CvTechEntry::GetPrereqOrTechs
; Function compile flags: /Odtp
;	COMDAT ?GetPrereqOrTechs@CvTechEntry@@QBEHH@Z
_TEXT	SEGMENT
tv69 = -8						; size = 4
_this$ = -4						; size = 4
_i$ = 8							; size = 4
?GetPrereqOrTechs@CvTechEntry@@QBEHH@Z PROC		; CvTechEntry::GetPrereqOrTechs, COMDAT
; _this$ = ecx

; 556  : {

	push	ebp
	mov	ebp, esp
	sub	esp, 8
	mov	DWORD PTR _this$[ebp], ecx

; 557  : 	return m_piPrereqOrTechs ? m_piPrereqOrTechs[i] : -1;

	mov	eax, DWORD PTR _this$[ebp]
	cmp	DWORD PTR [eax+484], 0
	je	SHORT $LN3@GetPrereqO
	mov	ecx, DWORD PTR _this$[ebp]
	mov	edx, DWORD PTR [ecx+484]
	mov	eax, DWORD PTR _i$[ebp]
	mov	ecx, DWORD PTR [edx+eax*4]
	mov	DWORD PTR tv69[ebp], ecx
	jmp	SHORT $LN4@GetPrereqO
$LN3@GetPrereqO:
	mov	DWORD PTR tv69[ebp], -1
$LN4@GetPrereqO:
	mov	eax, DWORD PTR tv69[ebp]

; 558  : }

	mov	esp, ebp
	pop	ebp
	ret	4
?GetPrereqOrTechs@CvTechEntry@@QBEHH@Z ENDP		; CvTechEntry::GetPrereqOrTechs
_TEXT	ENDS
PUBLIC	?GetPrereqAndTechs@CvTechEntry@@QBEHH@Z		; CvTechEntry::GetPrereqAndTechs
; Function compile flags: /Odtp
;	COMDAT ?GetPrereqAndTechs@CvTechEntry@@QBEHH@Z
_TEXT	SEGMENT
tv69 = -8						; size = 4
_this$ = -4						; size = 4
_i$ = 8							; size = 4
?GetPrereqAndTechs@CvTechEntry@@QBEHH@Z PROC		; CvTechEntry::GetPrereqAndTechs, COMDAT
; _this$ = ecx

; 562  : {

	push	ebp
	mov	ebp, esp
	sub	esp, 8
	mov	DWORD PTR _this$[ebp], ecx

; 563  : 	return m_piPrereqAndTechs ? m_piPrereqAndTechs[i] : -1;

	mov	eax, DWORD PTR _this$[ebp]
	cmp	DWORD PTR [eax+488], 0
	je	SHORT $LN3@GetPrereqA
	mov	ecx, DWORD PTR _this$[ebp]
	mov	edx, DWORD PTR [ecx+488]
	mov	eax, DWORD PTR _i$[ebp]
	mov	ecx, DWORD PTR [edx+eax*4]
	mov	DWORD PTR tv69[ebp], ecx
	jmp	SHORT $LN4@GetPrereqA
$LN3@GetPrereqA:
	mov	DWORD PTR tv69[ebp], -1
$LN4@GetPrereqA:
	mov	eax, DWORD PTR tv69[ebp]

; 564  : }

	mov	esp, ebp
	pop	ebp
	ret	4
?GetPrereqAndTechs@CvTechEntry@@QBEHH@Z ENDP		; CvTechEntry::GetPrereqAndTechs
_TEXT	ENDS
PUBLIC	??1?$_Vector_val@PAVCvTechEntry@@V?$allocator@PAVCvTechEntry@@@std@@@std@@QAE@XZ ; std::_Vector_val<CvTechEntry *,std::allocator<CvTechEntry *> >::~_Vector_val<CvTechEntry *,std::allocator<CvTechEntry *> >
PUBLIC	?_Buy@?$vector@PAVCvTechEntry@@V?$allocator@PAVCvTechEntry@@@std@@@std@@IAE_NI@Z ; std::vector<CvTechEntry *,std::allocator<CvTechEntry *> >::_Buy
PUBLIC	??0CvTechXMLEntries@@QAE@XZ			; CvTechXMLEntries::CvTechXMLEntries
EXTRN	__CxxThrowException@8:PROC
;	COMDAT xdata$x
; File c:\program files (x86)\microsoft visual studio 9.0\vc\include\exception
xdata$x	SEGMENT
__unwindtable$??0CvTechXMLEntries@@QAE@XZ DD 0ffffffffH
	DD	FLAT:__unwindfunclet$??0CvTechXMLEntries@@QAE@XZ$1
__ehfuncinfo$??0CvTechXMLEntries@@QAE@XZ DD 019930522H
	DD	01H
	DD	FLAT:__unwindtable$??0CvTechXMLEntries@@QAE@XZ
	DD	2 DUP(00H)
	DD	2 DUP(00H)
	DD	00H
	DD	01H
; Function compile flags: /Odtp
; File d:\sources\lekmod_git\checkout\lekmod_dll\cvgamecoredll_expansion2\cvtechclasses.cpp
xdata$x	ENDS
;	COMDAT ??0CvTechXMLEntries@@QAE@XZ
_TEXT	SEGMENT
tv92 = -132						; size = 4
tv149 = -128						; size = 4
_this$ = -124						; size = 4
$T226546 = -30						; size = 1
$T226533 = -29						; size = 1
$T226529 = -28						; size = 4
$T226522 = -20						; size = 4
__$EHRec$ = -12						; size = 12
??0CvTechXMLEntries@@QAE@XZ PROC			; CvTechXMLEntries::CvTechXMLEntries, COMDAT
; _this$ = ecx

; 571  : {

	push	ebp
	mov	ebp, esp
	push	-1
	push	__ehhandler$??0CvTechXMLEntries@@QAE@XZ
	mov	eax, DWORD PTR fs:0
	push	eax
	sub	esp, 120				; 00000078H
	mov	eax, DWORD PTR ___security_cookie
	xor	eax, ebp
	push	eax
	lea	eax, DWORD PTR __$EHRec$[ebp]
	mov	DWORD PTR fs:0, eax
	mov	DWORD PTR _this$[ebp], ecx
	lea	eax, DWORD PTR $T226546[ebp]
	mov	DWORD PTR $T226522[ebp], eax
	lea	ecx, DWORD PTR $T226533[ebp]
	mov	DWORD PTR $T226529[ebp], ecx
	mov	edx, DWORD PTR _this$[ebp]
	mov	DWORD PTR tv149[ebp], edx
	mov	eax, DWORD PTR _this$[ebp]
	mov	DWORD PTR tv92[ebp], eax
	mov	DWORD PTR __$EHRec$[ebp+8], 0
	push	0
	mov	ecx, DWORD PTR _this$[ebp]
	call	?_Buy@?$vector@PAVCvTechEntry@@V?$allocator@PAVCvTechEntry@@@std@@@std@@IAE_NI@Z ; std::vector<CvTechEntry *,std::allocator<CvTechEntry *> >::_Buy
	mov	DWORD PTR __$EHRec$[ebp+8], -1

; 572  : 
; 573  : }

	mov	eax, DWORD PTR _this$[ebp]
	mov	ecx, DWORD PTR __$EHRec$[ebp]
	mov	DWORD PTR fs:0, ecx
	pop	ecx
	mov	esp, ebp
	pop	ebp
	ret	0
_TEXT	ENDS
;	COMDAT text$x
text$x	SEGMENT
__unwindfunclet$??0CvTechXMLEntries@@QAE@XZ$1:
	mov	ecx, DWORD PTR _this$[ebp]
	jmp	??1?$_Vector_val@PAVCvTechEntry@@V?$allocator@PAVCvTechEntry@@@std@@@std@@QAE@XZ
__ehhandler$??0CvTechXMLEntries@@QAE@XZ:
	mov	edx, DWORD PTR [esp+8]
	lea	eax, DWORD PTR [edx+12]
	mov	ecx, DWORD PTR [edx-124]
	xor	ecx, eax
	call	@__security_check_cookie@4
	mov	eax, OFFSET __ehfuncinfo$??0CvTechXMLEntries@@QAE@XZ
	jmp	___CxxFrameHandler3
text$x	ENDS
??0CvTechXMLEntries@@QAE@XZ ENDP			; CvTechXMLEntries::CvTechXMLEntries
PUBLIC	??1?$vector@PAVCvTechEntry@@V?$allocator@PAVCvTechEntry@@@std@@@std@@QAE@XZ ; std::vector<CvTechEntry *,std::allocator<CvTechEntry *> >::~vector<CvTechEntry *,std::allocator<CvTechEntry *> >
PUBLIC	?_Tidy@?$vector@PAVCvTechEntry@@V?$allocator@PAVCvTechEntry@@@std@@@std@@IAEXXZ ; std::vector<CvTechEntry *,std::allocator<CvTechEntry *> >::_Tidy
PUBLIC	?DeleteArray@CvTechXMLEntries@@QAEXXZ		; CvTechXMLEntries::DeleteArray
PUBLIC	??1CvTechXMLEntries@@QAE@XZ			; CvTechXMLEntries::~CvTechXMLEntries
;	COMDAT xdata$x
; File c:\program files (x86)\microsoft visual studio 9.0\vc\include\xutility
xdata$x	SEGMENT
__unwindtable$??1CvTechXMLEntries@@QAE@XZ DD 0ffffffffH
	DD	FLAT:__unwindfunclet$??1CvTechXMLEntries@@QAE@XZ$0
	DD	0ffffffffH
	DD	FLAT:__unwindfunclet$??1CvTechXMLEntries@@QAE@XZ$1
__ehfuncinfo$??1CvTechXMLEntries@@QAE@XZ DD 019930522H
	DD	02H
	DD	FLAT:__unwindtable$??1CvTechXMLEntries@@QAE@XZ
	DD	2 DUP(00H)
	DD	2 DUP(00H)
	DD	00H
	DD	01H
; Function compile flags: /Odtp
; File d:\sources\lekmod_git\checkout\lekmod_dll\cvgamecoredll_expansion2\cvtechclasses.cpp
xdata$x	ENDS
;	COMDAT ??1CvTechXMLEntries@@QAE@XZ
_TEXT	SEGMENT
_this$ = -44						; size = 4
__$EHRec$ = -12						; size = 12
??1CvTechXMLEntries@@QAE@XZ PROC			; CvTechXMLEntries::~CvTechXMLEntries, COMDAT
; _this$ = ecx

; 577  : {

	push	ebp
	mov	ebp, esp
	push	-1
	push	__ehhandler$??1CvTechXMLEntries@@QAE@XZ
	mov	eax, DWORD PTR fs:0
	push	eax
	sub	esp, 32					; 00000020H
	mov	eax, DWORD PTR ___security_cookie
	xor	eax, ebp
	push	eax
	lea	eax, DWORD PTR __$EHRec$[ebp]
	mov	DWORD PTR fs:0, eax
	mov	DWORD PTR _this$[ebp], ecx
	mov	DWORD PTR __$EHRec$[ebp+8], 0

; 578  : 	DeleteArray();

	mov	ecx, DWORD PTR _this$[ebp]
	call	?DeleteArray@CvTechXMLEntries@@QAEXXZ	; CvTechXMLEntries::DeleteArray

; 579  : }

	mov	DWORD PTR __$EHRec$[ebp+8], 1
	mov	ecx, DWORD PTR _this$[ebp]
	call	?_Tidy@?$vector@PAVCvTechEntry@@V?$allocator@PAVCvTechEntry@@@std@@@std@@IAEXXZ ; std::vector<CvTechEntry *,std::allocator<CvTechEntry *> >::_Tidy
	mov	DWORD PTR __$EHRec$[ebp+8], -1
	mov	ecx, DWORD PTR __$EHRec$[ebp]
	mov	DWORD PTR fs:0, ecx
	pop	ecx
	mov	esp, ebp
	pop	ebp
	ret	0
_TEXT	ENDS
;	COMDAT text$x
text$x	SEGMENT
__unwindfunclet$??1CvTechXMLEntries@@QAE@XZ$0:
	mov	ecx, DWORD PTR _this$[ebp]
	jmp	??1?$vector@PAVCvTechEntry@@V?$allocator@PAVCvTechEntry@@@std@@@std@@QAE@XZ ; std::vector<CvTechEntry *,std::allocator<CvTechEntry *> >::~vector<CvTechEntry *,std::allocator<CvTechEntry *> >
__unwindfunclet$??1CvTechXMLEntries@@QAE@XZ$1:
	mov	ecx, DWORD PTR _this$[ebp]
	jmp	??1?$_Vector_val@PAVCvTechEntry@@V?$allocator@PAVCvTechEntry@@@std@@@std@@QAE@XZ
__ehhandler$??1CvTechXMLEntries@@QAE@XZ:
	mov	edx, DWORD PTR [esp+8]
	lea	eax, DWORD PTR [edx+12]
	mov	ecx, DWORD PTR [edx-36]
	xor	ecx, eax
	call	@__security_check_cookie@4
	mov	eax, OFFSET __ehfuncinfo$??1CvTechXMLEntries@@QAE@XZ
	jmp	___CxxFrameHandler3
text$x	ENDS
??1CvTechXMLEntries@@QAE@XZ ENDP			; CvTechXMLEntries::~CvTechXMLEntries
PUBLIC	?GetTechEntries@CvTechXMLEntries@@QAEAAV?$vector@PAVCvTechEntry@@V?$allocator@PAVCvTechEntry@@@std@@@std@@XZ ; CvTechXMLEntries::GetTechEntries
; Function compile flags: /Odtp
;	COMDAT ?GetTechEntries@CvTechXMLEntries@@QAEAAV?$vector@PAVCvTechEntry@@V?$allocator@PAVCvTechEntry@@@std@@@std@@XZ
_TEXT	SEGMENT
_this$ = -4						; size = 4
?GetTechEntries@CvTechXMLEntries@@QAEAAV?$vector@PAVCvTechEntry@@V?$allocator@PAVCvTechEntry@@@std@@@std@@XZ PROC ; CvTechXMLEntries::GetTechEntries, COMDAT
; _this$ = ecx

; 583  : {

	push	ebp
	mov	ebp, esp
	push	ecx
	mov	DWORD PTR _this$[ebp], ecx

; 584  : 	return m_paTechEntries;

	mov	eax, DWORD PTR _this$[ebp]

; 585  : }

	mov	esp, ebp
	pop	ebp
	ret	0
?GetTechEntries@CvTechXMLEntries@@QAEAAV?$vector@PAVCvTechEntry@@V?$allocator@PAVCvTechEntry@@@std@@@std@@XZ ENDP ; CvTechXMLEntries::GetTechEntries
_TEXT	ENDS
PUBLIC	?GetNumTechs@CvTechXMLEntries@@QAEHXZ		; CvTechXMLEntries::GetNumTechs
; Function compile flags: /Odtp
;	COMDAT ?GetNumTechs@CvTechXMLEntries@@QAEHXZ
_TEXT	SEGMENT
_this$ = -4						; size = 4
?GetNumTechs@CvTechXMLEntries@@QAEHXZ PROC		; CvTechXMLEntries::GetNumTechs, COMDAT
; _this$ = ecx

; 593  : {

	push	ebp
	mov	ebp, esp
	push	ecx
	mov	DWORD PTR _this$[ebp], ecx

; 594  : 	return m_paTechEntries.size();

	mov	eax, DWORD PTR _this$[ebp]
	mov	ecx, DWORD PTR _this$[ebp]
	mov	eax, DWORD PTR [eax+8]
	sub	eax, DWORD PTR [ecx+4]
	sar	eax, 2

; 595  : }

	mov	esp, ebp
	pop	ebp
	ret	0
?GetNumTechs@CvTechXMLEntries@@QAEHXZ ENDP		; CvTechXMLEntries::GetNumTechs
_TEXT	ENDS
PUBLIC	?erase@?$vector@PAVCvTechEntry@@V?$allocator@PAVCvTechEntry@@@std@@@std@@QAE?AV?$_Vector_iterator@PAVCvTechEntry@@V?$allocator@PAVCvTechEntry@@@std@@@2@V?$_Vector_const_iterator@PAVCvTechEntry@@V?$allocator@PAVCvTechEntry@@@std@@@2@0@Z ; std::vector<CvTechEntry *,std::allocator<CvTechEntry *> >::erase
EXTRN	??3@YAXPAX@Z:PROC				; operator delete
; Function compile flags: /Odtp
;	COMDAT ?DeleteArray@CvTechXMLEntries@@QAEXXZ
_TEXT	SEGMENT
tv143 = -116						; size = 4
_this$ = -112						; size = 4
$T226789 = -56						; size = 4
$T226773 = -52						; size = 4
$T226894 = -48						; size = 4
$T226893 = -44						; size = 4
$T226892 = -40						; size = 4
$T226891 = -36						; size = 4
$T226890 = -32						; size = 4
$T226757 = -28						; size = 4
$T226751 = -24						; size = 4
$T226750 = -20						; size = 4
$T226716 = -16						; size = 4
$T226692 = -12						; size = 4
$T226682 = -8						; size = 4
_it$223346 = -4						; size = 4
?DeleteArray@CvTechXMLEntries@@QAEXXZ PROC		; CvTechXMLEntries::DeleteArray, COMDAT
; _this$ = ecx

; 599  : {

	push	ebp
	mov	ebp, esp
	sub	esp, 116				; 00000074H
	mov	DWORD PTR _this$[ebp], ecx

; 600  : 	for(std::vector<CvTechEntry*>::iterator it = m_paTechEntries.begin(); it != m_paTechEntries.end(); ++it)

	mov	eax, DWORD PTR _this$[ebp]
	mov	ecx, DWORD PTR [eax+4]
	mov	DWORD PTR $T226692[ebp], ecx
	mov	edx, DWORD PTR $T226692[ebp]
	mov	DWORD PTR _it$223346[ebp], edx
	jmp	SHORT $LN3@DeleteArra
$LN2@DeleteArra:
	mov	eax, DWORD PTR _it$223346[ebp]
	add	eax, 4
	mov	DWORD PTR _it$223346[ebp], eax
$LN3@DeleteArra:
	mov	ecx, DWORD PTR _this$[ebp]
	mov	edx, DWORD PTR [ecx+8]
	mov	DWORD PTR $T226716[ebp], edx
	mov	eax, DWORD PTR $T226716[ebp]
	mov	DWORD PTR $T226682[ebp], eax
	mov	ecx, DWORD PTR _it$223346[ebp]
	xor	edx, edx
	cmp	ecx, DWORD PTR $T226682[ebp]
	sete	dl
	movzx	eax, dl
	neg	eax
	sbb	eax, eax
	add	eax, 1
	movzx	ecx, al
	test	ecx, ecx
	je	SHORT $LN1@DeleteArra

; 601  : 	{
; 602  : 		SAFE_DELETE(*it);

	mov	edx, DWORD PTR _it$223346[ebp]
	mov	DWORD PTR $T226757[ebp], edx
	mov	eax, DWORD PTR $T226757[ebp]
	mov	ecx, DWORD PTR [eax]
	mov	DWORD PTR $T226751[ebp], ecx
	mov	edx, DWORD PTR $T226751[ebp]
	mov	DWORD PTR $T226750[ebp], edx
	cmp	DWORD PTR $T226750[ebp], 0
	je	SHORT $LN32@DeleteArra
	mov	ecx, DWORD PTR $T226750[ebp]
	call	??1CvTechEntry@@QAE@XZ			; CvTechEntry::~CvTechEntry
	mov	eax, 1
	and	eax, 1
	je	SHORT $LN35@DeleteArra
	mov	ecx, DWORD PTR $T226750[ebp]
	push	ecx
	call	??3@YAXPAX@Z				; operator delete
	add	esp, 4
$LN35@DeleteArra:
	mov	edx, DWORD PTR $T226750[ebp]
	mov	DWORD PTR tv143[ebp], edx
	jmp	SHORT $LN33@DeleteArra
$LN32@DeleteArra:
	mov	DWORD PTR tv143[ebp], 0
$LN33@DeleteArra:
	mov	eax, DWORD PTR $T226757[ebp]
	mov	DWORD PTR [eax], 0

; 603  : 	}

	jmp	$LN2@DeleteArra
$LN1@DeleteArra:

; 604  : 
; 605  : 	m_paTechEntries.clear();

	mov	ecx, DWORD PTR _this$[ebp]
	mov	edx, DWORD PTR [ecx+8]
	mov	DWORD PTR $T226773[ebp], edx
	mov	eax, DWORD PTR $T226773[ebp]
	mov	DWORD PTR $T226891[ebp], eax
	mov	ecx, DWORD PTR $T226891[ebp]
	mov	DWORD PTR $T226890[ebp], ecx
	mov	edx, DWORD PTR _this$[ebp]
	mov	eax, DWORD PTR [edx+4]
	mov	DWORD PTR $T226789[ebp], eax
	mov	ecx, DWORD PTR $T226789[ebp]
	mov	DWORD PTR $T226893[ebp], ecx
	mov	edx, DWORD PTR $T226893[ebp]
	mov	DWORD PTR $T226892[ebp], edx
	mov	eax, DWORD PTR $T226890[ebp]
	push	eax
	mov	ecx, DWORD PTR $T226892[ebp]
	push	ecx
	lea	edx, DWORD PTR $T226894[ebp]
	push	edx
	mov	ecx, DWORD PTR _this$[ebp]
	call	?erase@?$vector@PAVCvTechEntry@@V?$allocator@PAVCvTechEntry@@@std@@@std@@QAE?AV?$_Vector_iterator@PAVCvTechEntry@@V?$allocator@PAVCvTechEntry@@@std@@@2@V?$_Vector_const_iterator@PAVCvTechEntry@@V?$allocator@PAVCvTechEntry@@@std@@@2@0@Z ; std::vector<CvTechEntry *,std::allocator<CvTechEntry *> >::erase

; 606  : }

	mov	esp, ebp
	pop	ebp
	ret	0
?DeleteArray@CvTechXMLEntries@@QAEXXZ ENDP		; CvTechXMLEntries::DeleteArray
_TEXT	ENDS
PUBLIC	?GetEntry@CvTechXMLEntries@@QAEPAVCvTechEntry@@H@Z ; CvTechXMLEntries::GetEntry
; Function compile flags: /Odtp
;	COMDAT ?GetEntry@CvTechXMLEntries@@QAEPAVCvTechEntry@@H@Z
_TEXT	SEGMENT
_this$ = -4						; size = 4
_index$ = 8						; size = 4
?GetEntry@CvTechXMLEntries@@QAEPAVCvTechEntry@@H@Z PROC	; CvTechXMLEntries::GetEntry, COMDAT
; _this$ = ecx

; 614  : {

	push	ebp
	mov	ebp, esp
	push	ecx
	mov	DWORD PTR _this$[ebp], ecx

; 615  : 	return m_paTechEntries[index];

	mov	eax, DWORD PTR _this$[ebp]
	mov	ecx, DWORD PTR [eax+4]
	mov	edx, DWORD PTR _index$[ebp]
	mov	eax, DWORD PTR [ecx+edx*4]

; 616  : }

	mov	esp, ebp
	pop	ebp
	ret	4
?GetEntry@CvTechXMLEntries@@QAEPAVCvTechEntry@@H@Z ENDP	; CvTechXMLEntries::GetEntry
_TEXT	ENDS
PUBLIC	??_7CvPlayerTechs@@6B@				; CvPlayerTechs::`vftable'
PUBLIC	??0CvPlayerTechs@@QAE@XZ			; CvPlayerTechs::CvPlayerTechs
PUBLIC	?Uninit@CvPlayerTechs@@UAEXXZ			; CvPlayerTechs::Uninit
PUBLIC	?FlavorUpdate@CvPlayerTechs@@UAEXXZ		; CvPlayerTechs::FlavorUpdate
PUBLIC	?LogFlavors@CvPlayerTechs@@EAEXW4FlavorTypes@@@Z ; CvPlayerTechs::LogFlavors
EXTRN	??0CvFlavorRecipient@@QAE@XZ:PROC		; CvFlavorRecipient::CvFlavorRecipient
EXTRN	?Init@CvFlavorRecipient@@UAEXXZ:PROC		; CvFlavorRecipient::Init
;	COMDAT ??_7CvPlayerTechs@@6B@
CONST	SEGMENT
??_7CvPlayerTechs@@6B@ DD FLAT:?Init@CvFlavorRecipient@@UAEXXZ ; CvPlayerTechs::`vftable'
	DD	FLAT:?Uninit@CvPlayerTechs@@UAEXXZ
	DD	FLAT:?FlavorUpdate@CvPlayerTechs@@UAEXXZ
	DD	FLAT:?LogFlavors@CvPlayerTechs@@EAEXW4FlavorTypes@@@Z
; Function compile flags: /Odtp
CONST	ENDS
;	COMDAT ??0CvPlayerTechs@@QAE@XZ
_TEXT	SEGMENT
_this$ = -4						; size = 4
??0CvPlayerTechs@@QAE@XZ PROC				; CvPlayerTechs::CvPlayerTechs, COMDAT
; _this$ = ecx

; 634  : {

	push	ebp
	mov	ebp, esp
	push	ecx
	mov	DWORD PTR _this$[ebp], ecx
	mov	ecx, DWORD PTR _this$[ebp]
	call	??0CvFlavorRecipient@@QAE@XZ		; CvFlavorRecipient::CvFlavorRecipient
	mov	eax, DWORD PTR _this$[ebp]
	mov	DWORD PTR [eax], OFFSET ??_7CvPlayerTechs@@6B@
	mov	ecx, DWORD PTR _this$[ebp]
	mov	DWORD PTR [ecx+12], 0
	mov	edx, DWORD PTR _this$[ebp]
	mov	DWORD PTR [edx+16], 0
	mov	eax, DWORD PTR _this$[ebp]
	mov	DWORD PTR [eax+20], 0
	mov	ecx, DWORD PTR _this$[ebp]
	mov	DWORD PTR [ecx+24], 0
	mov	edx, DWORD PTR _this$[ebp]
	mov	DWORD PTR [edx+28], 0
	mov	eax, DWORD PTR _this$[ebp]
	mov	DWORD PTR [eax+32], 0
	mov	ecx, DWORD PTR _this$[ebp]
	mov	DWORD PTR [ecx+36], 0
	mov	edx, DWORD PTR _this$[ebp]
	mov	DWORD PTR [edx+40], 0
	mov	eax, DWORD PTR _this$[ebp]
	mov	DWORD PTR [eax+44], 0
	mov	ecx, DWORD PTR _this$[ebp]
	mov	DWORD PTR [ecx+48], 0

; 635  : }

	mov	eax, DWORD PTR _this$[ebp]
	mov	esp, ebp
	pop	ebp
	ret	0
??0CvPlayerTechs@@QAE@XZ ENDP				; CvPlayerTechs::CvPlayerTechs
_TEXT	ENDS
PUBLIC	??1CvPlayerTechs@@QAE@XZ			; CvPlayerTechs::~CvPlayerTechs
EXTRN	??1CvFlavorRecipient@@QAE@XZ:PROC		; CvFlavorRecipient::~CvFlavorRecipient
; Function compile flags: /Odtp
;	COMDAT ??1CvPlayerTechs@@QAE@XZ
_TEXT	SEGMENT
_this$ = -4						; size = 4
??1CvPlayerTechs@@QAE@XZ PROC				; CvPlayerTechs::~CvPlayerTechs, COMDAT
; _this$ = ecx

; 639  : {

	push	ebp
	mov	ebp, esp
	push	ecx
	mov	DWORD PTR _this$[ebp], ecx
	mov	eax, DWORD PTR _this$[ebp]
	mov	DWORD PTR [eax], OFFSET ??_7CvPlayerTechs@@6B@

; 640  : }

	mov	ecx, DWORD PTR _this$[ebp]
	call	??1CvFlavorRecipient@@QAE@XZ		; CvFlavorRecipient::~CvFlavorRecipient
	mov	esp, ebp
	pop	ebp
	ret	0
??1CvPlayerTechs@@QAE@XZ ENDP				; CvPlayerTechs::~CvPlayerTechs
_TEXT	ENDS
PUBLIC	?Reset@CvPlayerTechs@@QAEXXZ			; CvPlayerTechs::Reset
PUBLIC	?Init@CvPlayerTechs@@QAEXPAVCvTechXMLEntries@@PAVCvPlayer@@_N@Z ; CvPlayerTechs::Init
EXTRN	??0CvTechAI@@QAE@PAVCvPlayerTechs@@@Z:PROC	; CvTechAI::CvTechAI
EXTRN	??2@YAPAXI@Z:PROC				; operator new
EXTRN	??_U@YAPAXI@Z:PROC				; operator new[]
;	COMDAT xdata$x
xdata$x	SEGMENT
__unwindtable$?Init@CvPlayerTechs@@QAEXPAVCvTechXMLEntries@@PAVCvPlayer@@_N@Z DD 0ffffffffH
	DD	FLAT:__unwindfunclet$?Init@CvPlayerTechs@@QAEXPAVCvTechXMLEntries@@PAVCvPlayer@@_N@Z$0
__ehfuncinfo$?Init@CvPlayerTechs@@QAEXPAVCvTechXMLEntries@@PAVCvPlayer@@_N@Z DD 019930522H
	DD	01H
	DD	FLAT:__unwindtable$?Init@CvPlayerTechs@@QAEXPAVCvTechXMLEntries@@PAVCvPlayer@@_N@Z
	DD	2 DUP(00H)
	DD	2 DUP(00H)
	DD	00H
	DD	01H
; Function compile flags: /Odtp
xdata$x	ENDS
;	COMDAT ?Init@CvPlayerTechs@@QAEXPAVCvTechXMLEntries@@PAVCvPlayer@@_N@Z
_TEXT	SEGMENT
tv171 = -60						; size = 4
_this$ = -56						; size = 4
$T226928 = -52						; size = 4
$T226927 = -48						; size = 4
$T226926 = -44						; size = 4
$T226925 = -40						; size = 4
$T226924 = -36						; size = 4
$T226923 = -32						; size = 4
$T226922 = -28						; size = 4
$T226921 = -24						; size = 4
$T226920 = -20						; size = 4
_iNumTechs$ = -16					; size = 4
__$EHRec$ = -12						; size = 12
_pTechs$ = 8						; size = 4
_pPlayer$ = 12						; size = 4
_bIsCity$ = 16						; size = 1
?Init@CvPlayerTechs@@QAEXPAVCvTechXMLEntries@@PAVCvPlayer@@_N@Z PROC ; CvPlayerTechs::Init, COMDAT
; _this$ = ecx

; 644  : {

	push	ebp
	mov	ebp, esp
	push	-1
	push	__ehhandler$?Init@CvPlayerTechs@@QAEXPAVCvTechXMLEntries@@PAVCvPlayer@@_N@Z
	mov	eax, DWORD PTR fs:0
	push	eax
	sub	esp, 48					; 00000030H
	mov	eax, DWORD PTR ___security_cookie
	xor	eax, ebp
	push	eax
	lea	eax, DWORD PTR __$EHRec$[ebp]
	mov	DWORD PTR fs:0, eax
	mov	DWORD PTR _this$[ebp], ecx

; 645  : 	// Init base class
; 646  : 	CvFlavorRecipient::Init();

	mov	ecx, DWORD PTR _this$[ebp]
	call	?Init@CvFlavorRecipient@@UAEXXZ		; CvFlavorRecipient::Init

; 647  : 
; 648  : 	// Store off the pointers to objects we'll need later
; 649  : 	m_bIsCity = bIsCity;

	mov	eax, DWORD PTR _this$[ebp]
	mov	cl, BYTE PTR _bIsCity$[ebp]
	mov	BYTE PTR [eax+4], cl

; 650  : 	m_pTechs = pTechs;

	mov	edx, DWORD PTR _this$[ebp]
	mov	eax, DWORD PTR _pTechs$[ebp]
	mov	DWORD PTR [edx+40], eax

; 651  : 	m_pPlayer = pPlayer;

	mov	ecx, DWORD PTR _this$[ebp]
	mov	edx, DWORD PTR _pPlayer$[ebp]
	mov	DWORD PTR [ecx+44], edx

; 652  : 
; 653  : 	// Initialize arrays
; 654  : 	const int iNumTechs = m_pTechs->GetNumTechs();

	mov	eax, DWORD PTR _this$[ebp]
	mov	ecx, DWORD PTR [eax+40]
	call	?GetNumTechs@CvTechXMLEntries@@QAEHXZ	; CvTechXMLEntries::GetNumTechs
	mov	DWORD PTR _iNumTechs$[ebp], eax

; 655  : 
; 656  : 	CvAssertMsg(m_pabResearchingTech==NULL, "about to leak memory, CvPlayerTechs::m_pabResearchingTech");
; 657  : 	m_pabResearchingTech = FNEW(bool[iNumTechs], c_eCiv5GameplayDLL, 0);

	mov	ecx, DWORD PTR _iNumTechs$[ebp]
	push	ecx
	call	??_U@YAPAXI@Z				; operator new[]
	add	esp, 4
	mov	DWORD PTR $T226920[ebp], eax
	mov	edx, DWORD PTR _this$[ebp]
	mov	eax, DWORD PTR $T226920[ebp]
	mov	DWORD PTR [edx+12], eax

; 658  : 	CvAssertMsg(m_piCivTechPriority==NULL, "about to leak memory, CvPlayerTechs::m_piCivTechPriority");
; 659  : 	m_piCivTechPriority = FNEW(int[iNumTechs], c_eCiv5GameplayDLL, 0);

	xor	ecx, ecx
	mov	eax, DWORD PTR _iNumTechs$[ebp]
	mov	edx, 4
	mul	edx
	seto	cl
	neg	ecx
	or	ecx, eax
	push	ecx
	call	??_U@YAPAXI@Z				; operator new[]
	add	esp, 4
	mov	DWORD PTR $T226921[ebp], eax
	mov	eax, DWORD PTR _this$[ebp]
	mov	ecx, DWORD PTR $T226921[ebp]
	mov	DWORD PTR [eax+16], ecx

; 660  : 	CvAssertMsg(m_piLocaleTechPriority==NULL, "about to leak memory, CvPlayerTechs::m_piLocaleTechPriority");
; 661  : 	m_piLocaleTechPriority = FNEW(int[iNumTechs], c_eCiv5GameplayDLL, 0);

	xor	ecx, ecx
	mov	eax, DWORD PTR _iNumTechs$[ebp]
	mov	edx, 4
	mul	edx
	seto	cl
	neg	ecx
	or	ecx, eax
	push	ecx
	call	??_U@YAPAXI@Z				; operator new[]
	add	esp, 4
	mov	DWORD PTR $T226922[ebp], eax
	mov	eax, DWORD PTR _this$[ebp]
	mov	ecx, DWORD PTR $T226922[ebp]
	mov	DWORD PTR [eax+20], ecx

; 662  : 	CvAssertMsg(m_peLocaleTechResources==NULL, "about to leak memory, CvPlayerTechs::m_peLocaleTechResources");
; 663  : 	m_peLocaleTechResources = FNEW(ResourceTypes[iNumTechs], c_eCiv5GameplayDLL, 0);

	xor	ecx, ecx
	mov	eax, DWORD PTR _iNumTechs$[ebp]
	mov	edx, 4
	mul	edx
	seto	cl
	neg	ecx
	or	ecx, eax
	push	ecx
	call	??_U@YAPAXI@Z				; operator new[]
	add	esp, 4
	mov	DWORD PTR $T226923[ebp], eax
	mov	eax, DWORD PTR _this$[ebp]
	mov	ecx, DWORD PTR $T226923[ebp]
	mov	DWORD PTR [eax+24], ecx

; 664  : 	CvAssertMsg(m_peCivTechUniqueUnits==NULL, "about to leak memory, CvPlayerTechs::m_peCivTechUniqueUnits");
; 665  : 	m_peCivTechUniqueUnits = FNEW(UnitTypes[iNumTechs], c_eCiv5GameplayDLL, 0);

	xor	ecx, ecx
	mov	eax, DWORD PTR _iNumTechs$[ebp]
	mov	edx, 4
	mul	edx
	seto	cl
	neg	ecx
	or	ecx, eax
	push	ecx
	call	??_U@YAPAXI@Z				; operator new[]
	add	esp, 4
	mov	DWORD PTR $T226924[ebp], eax
	mov	eax, DWORD PTR _this$[ebp]
	mov	ecx, DWORD PTR $T226924[ebp]
	mov	DWORD PTR [eax+28], ecx

; 666  : 	CvAssertMsg(m_peCivTechUniqueBuildings==NULL, "about to leak memory, CvPlayerTechs::m_peCivTechUniqueBuildings");
; 667  : 	m_peCivTechUniqueBuildings = FNEW(BuildingTypes[iNumTechs], c_eCiv5GameplayDLL, 0);

	xor	ecx, ecx
	mov	eax, DWORD PTR _iNumTechs$[ebp]
	mov	edx, 4
	mul	edx
	seto	cl
	neg	ecx
	or	ecx, eax
	push	ecx
	call	??_U@YAPAXI@Z				; operator new[]
	add	esp, 4
	mov	DWORD PTR $T226925[ebp], eax
	mov	eax, DWORD PTR _this$[ebp]
	mov	ecx, DWORD PTR $T226925[ebp]
	mov	DWORD PTR [eax+32], ecx

; 668  : 	CvAssertMsg(m_peCivTechUniqueImprovements==NULL, "about to leak memory, CvPlayerTechs::m_peCivTechUniqueImprovements");
; 669  : 	m_peCivTechUniqueImprovements = FNEW(ImprovementTypes[iNumTechs], c_eCiv5GameplayDLL, 0);

	xor	ecx, ecx
	mov	eax, DWORD PTR _iNumTechs$[ebp]
	mov	edx, 4
	mul	edx
	seto	cl
	neg	ecx
	or	ecx, eax
	push	ecx
	call	??_U@YAPAXI@Z				; operator new[]
	add	esp, 4
	mov	DWORD PTR $T226926[ebp], eax
	mov	eax, DWORD PTR _this$[ebp]
	mov	ecx, DWORD PTR $T226926[ebp]
	mov	DWORD PTR [eax+36], ecx

; 670  : 
; 671  : 	// Create AI object
; 672  : 	m_pTechAI = FNEW(CvTechAI(this), c_eCiv5GameplayDLL, 0);

	push	1316					; 00000524H
	call	??2@YAPAXI@Z				; operator new
	add	esp, 4
	mov	DWORD PTR $T226928[ebp], eax
	mov	DWORD PTR __$EHRec$[ebp+8], 0
	cmp	DWORD PTR $T226928[ebp], 0
	je	SHORT $LN3@Init
	mov	edx, DWORD PTR _this$[ebp]
	push	edx
	mov	ecx, DWORD PTR $T226928[ebp]
	call	??0CvTechAI@@QAE@PAVCvPlayerTechs@@@Z	; CvTechAI::CvTechAI
	mov	DWORD PTR tv171[ebp], eax
	jmp	SHORT $LN4@Init
$LN3@Init:
	mov	DWORD PTR tv171[ebp], 0
$LN4@Init:
	mov	eax, DWORD PTR tv171[ebp]
	mov	DWORD PTR $T226927[ebp], eax
	mov	DWORD PTR __$EHRec$[ebp+8], -1
	mov	ecx, DWORD PTR _this$[ebp]
	mov	edx, DWORD PTR $T226927[ebp]
	mov	DWORD PTR [ecx+48], edx

; 673  : 
; 674  : 	Reset();

	mov	ecx, DWORD PTR _this$[ebp]
	call	?Reset@CvPlayerTechs@@QAEXXZ		; CvPlayerTechs::Reset

; 675  : }

	mov	ecx, DWORD PTR __$EHRec$[ebp]
	mov	DWORD PTR fs:0, ecx
	pop	ecx
	mov	esp, ebp
	pop	ebp
	ret	12					; 0000000cH
_TEXT	ENDS
;	COMDAT text$x
text$x	SEGMENT
__unwindfunclet$?Init@CvPlayerTechs@@QAEXPAVCvTechXMLEntries@@PAVCvPlayer@@_N@Z$0:
	mov	eax, DWORD PTR $T226928[ebp]
	push	eax
	call	??3@YAXPAX@Z				; operator delete
	pop	ecx
	ret	0
__ehhandler$?Init@CvPlayerTechs@@QAEXPAVCvTechXMLEntries@@PAVCvPlayer@@_N@Z:
	mov	edx, DWORD PTR [esp+8]
	lea	eax, DWORD PTR [edx+12]
	mov	ecx, DWORD PTR [edx-52]
	xor	ecx, eax
	call	@__security_check_cookie@4
	mov	eax, OFFSET __ehfuncinfo$?Init@CvPlayerTechs@@QAEXPAVCvTechXMLEntries@@PAVCvPlayer@@_N@Z
	jmp	___CxxFrameHandler3
text$x	ENDS
?Init@CvPlayerTechs@@QAEXPAVCvTechXMLEntries@@PAVCvPlayer@@_N@Z ENDP ; CvPlayerTechs::Init
EXTRN	??1CvTechAI@@QAE@XZ:PROC			; CvTechAI::~CvTechAI
EXTRN	?Uninit@CvFlavorRecipient@@UAEXXZ:PROC		; CvFlavorRecipient::Uninit
; Function compile flags: /Odtp
;	COMDAT ?Uninit@CvPlayerTechs@@UAEXXZ
_TEXT	SEGMENT
tv89 = -76						; size = 4
_this$ = -72						; size = 4
$T227000 = -68						; size = 4
$T226994 = -64						; size = 4
$T226993 = -60						; size = 4
$T226981 = -56						; size = 4
$T226980 = -52						; size = 4
$T226975 = -48						; size = 4
$T226974 = -44						; size = 4
$T226969 = -40						; size = 4
$T226968 = -36						; size = 4
$T226963 = -32						; size = 4
$T226962 = -28						; size = 4
$T226957 = -24						; size = 4
$T226956 = -20						; size = 4
$T226951 = -16						; size = 4
$T226950 = -12						; size = 4
$T226945 = -8						; size = 4
$T226944 = -4						; size = 4
?Uninit@CvPlayerTechs@@UAEXXZ PROC			; CvPlayerTechs::Uninit, COMDAT
; _this$ = ecx

; 679  : {

	push	ebp
	mov	ebp, esp
	sub	esp, 76					; 0000004cH
	mov	DWORD PTR _this$[ebp], ecx

; 680  : 	// Uninit base class
; 681  : 	CvFlavorRecipient::Uninit();

	mov	ecx, DWORD PTR _this$[ebp]
	call	?Uninit@CvFlavorRecipient@@UAEXXZ	; CvFlavorRecipient::Uninit

; 682  : 
; 683  : 	SAFE_DELETE_ARRAY(m_pabResearchingTech);

	mov	eax, DWORD PTR _this$[ebp]
	add	eax, 12					; 0000000cH
	mov	DWORD PTR $T226945[ebp], eax
	mov	ecx, DWORD PTR $T226945[ebp]
	mov	edx, DWORD PTR [ecx]
	mov	DWORD PTR $T226944[ebp], edx
	mov	eax, DWORD PTR $T226944[ebp]
	push	eax
	call	??_V@YAXPAX@Z				; operator delete[]
	add	esp, 4
	mov	ecx, DWORD PTR $T226945[ebp]
	mov	DWORD PTR [ecx], 0

; 684  : 	SAFE_DELETE_ARRAY(m_piCivTechPriority);

	mov	edx, DWORD PTR _this$[ebp]
	add	edx, 16					; 00000010H
	mov	DWORD PTR $T226951[ebp], edx
	mov	eax, DWORD PTR $T226951[ebp]
	mov	ecx, DWORD PTR [eax]
	mov	DWORD PTR $T226950[ebp], ecx
	mov	edx, DWORD PTR $T226950[ebp]
	push	edx
	call	??_V@YAXPAX@Z				; operator delete[]
	add	esp, 4
	mov	eax, DWORD PTR $T226951[ebp]
	mov	DWORD PTR [eax], 0

; 685  : 	SAFE_DELETE_ARRAY(m_piLocaleTechPriority);

	mov	ecx, DWORD PTR _this$[ebp]
	add	ecx, 20					; 00000014H
	mov	DWORD PTR $T226957[ebp], ecx
	mov	edx, DWORD PTR $T226957[ebp]
	mov	eax, DWORD PTR [edx]
	mov	DWORD PTR $T226956[ebp], eax
	mov	ecx, DWORD PTR $T226956[ebp]
	push	ecx
	call	??_V@YAXPAX@Z				; operator delete[]
	add	esp, 4
	mov	edx, DWORD PTR $T226957[ebp]
	mov	DWORD PTR [edx], 0

; 686  : 	SAFE_DELETE_ARRAY(m_peLocaleTechResources);

	mov	eax, DWORD PTR _this$[ebp]
	add	eax, 24					; 00000018H
	mov	DWORD PTR $T226963[ebp], eax
	mov	ecx, DWORD PTR $T226963[ebp]
	mov	edx, DWORD PTR [ecx]
	mov	DWORD PTR $T226962[ebp], edx
	mov	eax, DWORD PTR $T226962[ebp]
	push	eax
	call	??_V@YAXPAX@Z				; operator delete[]
	add	esp, 4
	mov	ecx, DWORD PTR $T226963[ebp]
	mov	DWORD PTR [ecx], 0

; 687  : 	SAFE_DELETE_ARRAY(m_peCivTechUniqueBuildings);

	mov	edx, DWORD PTR _this$[ebp]
	add	edx, 32					; 00000020H
	mov	DWORD PTR $T226969[ebp], edx
	mov	eax, DWORD PTR $T226969[ebp]
	mov	ecx, DWORD PTR [eax]
	mov	DWORD PTR $T226968[ebp], ecx
	mov	edx, DWORD PTR $T226968[ebp]
	push	edx
	call	??_V@YAXPAX@Z				; operator delete[]
	add	esp, 4
	mov	eax, DWORD PTR $T226969[ebp]
	mov	DWORD PTR [eax], 0

; 688  : 	SAFE_DELETE_ARRAY(m_peCivTechUniqueUnits);

	mov	ecx, DWORD PTR _this$[ebp]
	add	ecx, 28					; 0000001cH
	mov	DWORD PTR $T226975[ebp], ecx
	mov	edx, DWORD PTR $T226975[ebp]
	mov	eax, DWORD PTR [edx]
	mov	DWORD PTR $T226974[ebp], eax
	mov	ecx, DWORD PTR $T226974[ebp]
	push	ecx
	call	??_V@YAXPAX@Z				; operator delete[]
	add	esp, 4
	mov	edx, DWORD PTR $T226975[ebp]
	mov	DWORD PTR [edx], 0

; 689  : 	SAFE_DELETE_ARRAY(m_peCivTechUniqueImprovements);

	mov	eax, DWORD PTR _this$[ebp]
	add	eax, 36					; 00000024H
	mov	DWORD PTR $T226981[ebp], eax
	mov	ecx, DWORD PTR $T226981[ebp]
	mov	edx, DWORD PTR [ecx]
	mov	DWORD PTR $T226980[ebp], edx
	mov	eax, DWORD PTR $T226980[ebp]
	push	eax
	call	??_V@YAXPAX@Z				; operator delete[]
	add	esp, 4
	mov	ecx, DWORD PTR $T226981[ebp]
	mov	DWORD PTR [ecx], 0

; 690  : 	SAFE_DELETE(m_pTechAI);

	mov	edx, DWORD PTR _this$[ebp]
	add	edx, 48					; 00000030H
	mov	DWORD PTR $T227000[ebp], edx
	mov	eax, DWORD PTR $T227000[ebp]
	mov	ecx, DWORD PTR [eax]
	mov	DWORD PTR $T226994[ebp], ecx
	mov	edx, DWORD PTR $T226994[ebp]
	mov	DWORD PTR $T226993[ebp], edx
	cmp	DWORD PTR $T226993[ebp], 0
	je	SHORT $LN19@Uninit
	mov	ecx, DWORD PTR $T226993[ebp]
	call	??1CvTechAI@@QAE@XZ			; CvTechAI::~CvTechAI
	mov	eax, 1
	and	eax, 1
	je	SHORT $LN22@Uninit
	mov	ecx, DWORD PTR $T226993[ebp]
	push	ecx
	call	??3@YAXPAX@Z				; operator delete
	add	esp, 4
$LN22@Uninit:
	mov	edx, DWORD PTR $T226993[ebp]
	mov	DWORD PTR tv89[ebp], edx
	jmp	SHORT $LN20@Uninit
$LN19@Uninit:
	mov	DWORD PTR tv89[ebp], 0
$LN20@Uninit:
	mov	eax, DWORD PTR $T227000[ebp]
	mov	DWORD PTR [eax], 0

; 691  : }

	mov	esp, ebp
	pop	ebp
	ret	0
?Uninit@CvPlayerTechs@@UAEXXZ ENDP			; CvPlayerTechs::Uninit
_TEXT	ENDS
EXTRN	?Reset@CvTechAI@@QAEXXZ:PROC			; CvTechAI::Reset
EXTRN	?GetFreeBuildingPrereqTech@CvTraitEntry@@QBE?AW4TechTypes@@XZ:PROC ; CvTraitEntry::GetFreeBuildingPrereqTech
EXTRN	?GetCapitalFreeBuildingPrereqTech@CvTraitEntry@@QBE?AW4TechTypes@@XZ:PROC ; CvTraitEntry::GetCapitalFreeBuildingPrereqTech
EXTRN	?GetFreeUnitPrereqTech@CvTraitEntry@@QBE?AW4TechTypes@@XZ:PROC ; CvTraitEntry::GetFreeUnitPrereqTech
EXTRN	?GetPrereqTech@CvTraitEntry@@QBEHXZ:PROC	; CvTraitEntry::GetPrereqTech
EXTRN	?IsMayaCalendarBonuses@CvTraitEntry@@QBE_NXZ:PROC ; CvTraitEntry::IsMayaCalendarBonuses
EXTRN	?getTraitInfo@CvGlobals@@QAEPAVCvTraitEntry@@W4TraitTypes@@@Z:PROC ; CvGlobals::getTraitInfo
EXTRN	?hasTrait@CvLeaderHeadInfo@@QBE_NH@Z:PROC	; CvLeaderHeadInfo::hasTrait
EXTRN	?getLeaderInfo@CvPlayer@@QBEAAVCvLeaderHeadInfo@@XZ:PROC ; CvPlayer::getLeaderInfo
EXTRN	?getNumTraitInfos@CvGlobals@@QAEHXZ:PROC	; CvGlobals::getNumTraitInfos
EXTRN	?getTechPrereq@CvBuildInfo@@QBEHXZ:PROC		; CvBuildInfo::getTechPrereq
EXTRN	?getImprovement@CvBuildInfo@@QBEHXZ:PROC	; CvBuildInfo::getImprovement
EXTRN	?getBuildInfo@CvGlobals@@QAEPAVCvBuildInfo@@W4BuildTypes@@@Z:PROC ; CvGlobals::getBuildInfo
EXTRN	?getNumBuildInfos@CvGlobals@@QAEHXZ:PROC	; CvGlobals::getNumBuildInfos
EXTRN	?GetRequiredCivilization@CvImprovementEntry@@QBE?AW4CivilizationTypes@@XZ:PROC ; CvImprovementEntry::GetRequiredCivilization
EXTRN	?IsSpecificCivRequired@CvImprovementEntry@@QBE_NXZ:PROC ; CvImprovementEntry::IsSpecificCivRequired
EXTRN	?getImprovementInfo@CvGlobals@@QAEPAVCvImprovementEntry@@W4ImprovementTypes@@@Z:PROC ; CvGlobals::getImprovementInfo
EXTRN	?getNumImprovementInfos@CvGlobals@@QAEHXZ:PROC	; CvGlobals::getNumImprovementInfos
EXTRN	?GetPrereqAndTech@CvUnitEntry@@QBEHXZ:PROC	; CvUnitEntry::GetPrereqAndTech
EXTRN	?getUnitInfo@CvGlobals@@QAEPAVCvUnitEntry@@W4UnitTypes@@@Z:PROC ; CvGlobals::getUnitInfo
EXTRN	?getCivilizationUnits@CvCivilizationInfo@@QBEHH@Z:PROC ; CvCivilizationInfo::getCivilizationUnits
EXTRN	?isCivilizationUnitOverridden@CvCivilizationInfo@@QBE_NH@Z:PROC ; CvCivilizationInfo::isCivilizationUnitOverridden
EXTRN	?getNumUnitClassInfos@CvGlobals@@QAEHXZ:PROC	; CvGlobals::getNumUnitClassInfos
EXTRN	?GetPrereqAndTech@CvBuildingEntry@@QBEHXZ:PROC	; CvBuildingEntry::GetPrereqAndTech
EXTRN	?isCivilizationBuildingOverridden@CvCivilizationInfo@@QBE_NH@Z:PROC ; CvCivilizationInfo::isCivilizationBuildingOverridden
EXTRN	?GetEntry@CvBuildingXMLEntries@@QAEPAVCvBuildingEntry@@H@Z:PROC ; CvBuildingXMLEntries::GetEntry
EXTRN	?getCivilizationBuildings@CvCivilizationInfo@@QBEHH@Z:PROC ; CvCivilizationInfo::getCivilizationBuildings
EXTRN	?getNumBuildingClassInfos@CvGlobals@@QAEHXZ:PROC ; CvGlobals::getNumBuildingClassInfos
EXTRN	?getCivilizationInfo@CvGlobals@@QAEPAVCvCivilizationInfo@@W4CivilizationTypes@@@Z:PROC ; CvGlobals::getCivilizationInfo
EXTRN	?getCivilizationType@CvPlayer@@QBE?AW4CivilizationTypes@@XZ:PROC ; CvPlayer::getCivilizationType
EXTRN	?isBarbarian@CvPlayer@@QBE_NXZ:PROC		; CvPlayer::isBarbarian
EXTRN	?isMinorCiv@CvPlayer@@QBE_NXZ:PROC		; CvPlayer::isMinorCiv
EXTRN	?GetGameBuildings@CvGlobals@@QBEPAVCvBuildingXMLEntries@@XZ:PROC ; CvGlobals::GetGameBuildings
; Function compile flags: /Odtp
;	COMDAT ?Reset@CvPlayerTechs@@QAEXXZ
_TEXT	SEGMENT
_this$ = -112						; size = 4
$T227030 = -108						; size = 4
$T227026 = -104						; size = 4
$T227022 = -100						; size = 4
$T227018 = -96						; size = 4
$T227014 = -92						; size = 4
$T227010 = -88						; size = 4
$T227006 = -84						; size = 4
_iPrereqTech$223479 = -80				; size = 4
_iPrereqTech$223481 = -76				; size = 4
_pkTraitInfo$223476 = -72				; size = 4
_pkLeaderInfo$223473 = -68				; size = 4
_eTraitLoop$223471 = -64				; size = 4
_iTraitLoop$223467 = -60				; size = 4
_iTech$223463 = -56					; size = 4
_pkBuildEntry$223460 = -52				; size = 4
_jJ$223456 = -48					; size = 4
_pkImprovementEntry$223452 = -44			; size = 4
_iTech$223446 = -40					; size = 4
_pkUnitEntry$223444 = -36				; size = 4
_eCivilizationUnit$223441 = -32				; size = 4
_iTech$223435 = -28					; size = 4
_eBuilding$223429 = -24					; size = 4
_pkBuildingInfo$223431 = -20				; size = 4
_pkInfo$223424 = -16					; size = 4
_iNumTraits$223466 = -12				; size = 4
_iI$ = -8						; size = 4
_pkGameBuildings$ = -4					; size = 4
?Reset@CvPlayerTechs@@QAEXXZ PROC			; CvPlayerTechs::Reset, COMDAT
; _this$ = ecx

; 695  : {

	push	ebp
	mov	ebp, esp
	sub	esp, 112				; 00000070H
	push	esi
	mov	DWORD PTR _this$[ebp], ecx

; 696  : #ifdef AUI_WARNING_FIXES
; 697  : 	uint iI;
; 698  : #else
; 699  : 	int iI;
; 700  : #endif
; 701  : 	CvBuildingXMLEntries* pkGameBuildings = GC.GetGameBuildings();

	mov	ecx, OFFSET ?gGlobals@@3VCvGlobals@@A	; gGlobals
	call	?GetGameBuildings@CvGlobals@@QBEPAVCvBuildingXMLEntries@@XZ ; CvGlobals::GetGameBuildings
	mov	DWORD PTR _pkGameBuildings$[ebp], eax

; 702  : 
; 703  : 	for(iI = 0; iI < m_pTechs->GetNumTechs(); iI++)

	mov	DWORD PTR _iI$[ebp], 0
	jmp	SHORT $LN40@Reset
$LN39@Reset:
	mov	eax, DWORD PTR _iI$[ebp]
	add	eax, 1
	mov	DWORD PTR _iI$[ebp], eax
$LN40@Reset:
	mov	ecx, DWORD PTR _this$[ebp]
	mov	ecx, DWORD PTR [ecx+40]
	call	?GetNumTechs@CvTechXMLEntries@@QAEHXZ	; CvTechXMLEntries::GetNumTechs
	cmp	DWORD PTR _iI$[ebp], eax
	jge	SHORT $LN38@Reset

; 704  : 	{
; 705  : 		m_pabResearchingTech[iI] = false;

	mov	edx, DWORD PTR _this$[ebp]
	mov	eax, DWORD PTR [edx+12]
	mov	ecx, DWORD PTR _iI$[ebp]
	mov	BYTE PTR [eax+ecx], 0

; 706  : 		m_piCivTechPriority[iI] = 1;

	mov	edx, DWORD PTR _this$[ebp]
	mov	eax, DWORD PTR [edx+16]
	mov	ecx, DWORD PTR _iI$[ebp]
	mov	DWORD PTR [eax+ecx*4], 1

; 707  : 		m_piLocaleTechPriority[iI] = 1;

	mov	edx, DWORD PTR _this$[ebp]
	mov	eax, DWORD PTR [edx+20]
	mov	ecx, DWORD PTR _iI$[ebp]
	mov	DWORD PTR [eax+ecx*4], 1

; 708  : 		m_peLocaleTechResources[iI] = NO_RESOURCE;

	mov	edx, DWORD PTR _this$[ebp]
	mov	eax, DWORD PTR [edx+24]
	mov	ecx, DWORD PTR _iI$[ebp]
	mov	DWORD PTR [eax+ecx*4], -1

; 709  : 		m_peCivTechUniqueUnits[iI] = NO_UNIT;

	mov	edx, DWORD PTR _this$[ebp]
	mov	eax, DWORD PTR [edx+28]
	mov	ecx, DWORD PTR _iI$[ebp]
	mov	DWORD PTR [eax+ecx*4], -1

; 710  : 		m_peCivTechUniqueBuildings[iI] = NO_BUILDING;

	mov	edx, DWORD PTR _this$[ebp]
	mov	eax, DWORD PTR [edx+32]
	mov	ecx, DWORD PTR _iI$[ebp]
	mov	DWORD PTR [eax+ecx*4], -1

; 711  : 		m_peCivTechUniqueImprovements[iI] = NO_IMPROVEMENT;

	mov	edx, DWORD PTR _this$[ebp]
	mov	eax, DWORD PTR [edx+36]
	mov	ecx, DWORD PTR _iI$[ebp]
	mov	DWORD PTR [eax+ecx*4], -1

; 712  : 	}

	jmp	$LN39@Reset
$LN38@Reset:

; 713  : 
; 714  : 	// Tweak tech priorities to recognize unique properties of this civ
; 715  : 	if(!m_pPlayer->isMinorCiv() && !m_pPlayer->isBarbarian() && m_pPlayer->getCivilizationType() != NO_CIVILIZATION)

	mov	edx, DWORD PTR _this$[ebp]
	mov	ecx, DWORD PTR [edx+44]
	call	?isMinorCiv@CvPlayer@@QBE_NXZ		; CvPlayer::isMinorCiv
	movzx	eax, al
	test	eax, eax
	jne	$LN37@Reset
	mov	ecx, DWORD PTR _this$[ebp]
	mov	ecx, DWORD PTR [ecx+44]
	call	?isBarbarian@CvPlayer@@QBE_NXZ		; CvPlayer::isBarbarian
	movzx	edx, al
	test	edx, edx
	jne	$LN37@Reset
	mov	eax, DWORD PTR _this$[ebp]
	mov	ecx, DWORD PTR [eax+44]
	call	?getCivilizationType@CvPlayer@@QBE?AW4CivilizationTypes@@XZ ; CvPlayer::getCivilizationType
	cmp	eax, -1
	je	$LN37@Reset

; 716  : 	{
; 717  : 		CvCivilizationInfo* pkInfo = GC.getCivilizationInfo(m_pPlayer->getCivilizationType());

	mov	ecx, DWORD PTR _this$[ebp]
	mov	ecx, DWORD PTR [ecx+44]
	call	?getCivilizationType@CvPlayer@@QBE?AW4CivilizationTypes@@XZ ; CvPlayer::getCivilizationType
	push	eax
	mov	ecx, OFFSET ?gGlobals@@3VCvGlobals@@A	; gGlobals
	call	?getCivilizationInfo@CvGlobals@@QAEPAVCvCivilizationInfo@@W4CivilizationTypes@@@Z ; CvGlobals::getCivilizationInfo
	mov	DWORD PTR _pkInfo$223424[ebp], eax

; 718  : 		if(pkInfo)

	cmp	DWORD PTR _pkInfo$223424[ebp], 0
	je	$LN36@Reset

; 719  : 		{
; 720  : 			// Loop through all building classes
; 721  : 			for(iI = 0; iI < GC.getNumBuildingClassInfos(); iI++)

	mov	DWORD PTR _iI$[ebp], 0
	jmp	SHORT $LN35@Reset
$LN34@Reset:
	mov	edx, DWORD PTR _iI$[ebp]
	add	edx, 1
	mov	DWORD PTR _iI$[ebp], edx
$LN35@Reset:
	mov	ecx, OFFSET ?gGlobals@@3VCvGlobals@@A	; gGlobals
	call	?getNumBuildingClassInfos@CvGlobals@@QAEHXZ ; CvGlobals::getNumBuildingClassInfos
	cmp	DWORD PTR _iI$[ebp], eax
	jge	$LN33@Reset

; 722  : 			{
; 723  : 				const BuildingTypes eBuilding = static_cast<BuildingTypes>(pkInfo->getCivilizationBuildings(iI));

	mov	eax, DWORD PTR _iI$[ebp]
	push	eax
	mov	ecx, DWORD PTR _pkInfo$223424[ebp]
	call	?getCivilizationBuildings@CvCivilizationInfo@@QBEHH@Z ; CvCivilizationInfo::getCivilizationBuildings
	mov	DWORD PTR _eBuilding$223429[ebp], eax

; 724  : 				CvBuildingEntry* pkBuildingInfo = NULL;

	mov	DWORD PTR _pkBuildingInfo$223431[ebp], 0

; 725  : 
; 726  : 				if(eBuilding != -1)

	cmp	DWORD PTR _eBuilding$223429[ebp], -1
	je	SHORT $LN32@Reset

; 727  : 					pkBuildingInfo = pkGameBuildings->GetEntry(eBuilding);

	mov	ecx, DWORD PTR _eBuilding$223429[ebp]
	push	ecx
	mov	ecx, DWORD PTR _pkGameBuildings$[ebp]
	call	?GetEntry@CvBuildingXMLEntries@@QAEPAVCvBuildingEntry@@H@Z ; CvBuildingXMLEntries::GetEntry
	mov	DWORD PTR _pkBuildingInfo$223431[ebp], eax
$LN32@Reset:

; 728  : 
; 729  : 				if(pkBuildingInfo)

	cmp	DWORD PTR _pkBuildingInfo$223431[ebp], 0
	je	SHORT $LN31@Reset

; 730  : 				{
; 731  : 					// Is this one overridden for our civ?
; 732  : 					if(pkInfo->isCivilizationBuildingOverridden(iI))

	mov	edx, DWORD PTR _iI$[ebp]
	push	edx
	mov	ecx, DWORD PTR _pkInfo$223424[ebp]
	call	?isCivilizationBuildingOverridden@CvCivilizationInfo@@QBE_NH@Z ; CvCivilizationInfo::isCivilizationBuildingOverridden
	movzx	eax, al
	test	eax, eax
	je	SHORT $LN31@Reset

; 733  : 					{
; 734  : 						int iTech = pkBuildingInfo->GetPrereqAndTech();

	mov	ecx, DWORD PTR _pkBuildingInfo$223431[ebp]
	call	?GetPrereqAndTech@CvBuildingEntry@@QBEHXZ ; CvBuildingEntry::GetPrereqAndTech
	mov	DWORD PTR _iTech$223435[ebp], eax

; 735  : 						if(iTech != NO_TECH)

	cmp	DWORD PTR _iTech$223435[ebp], -1
	je	SHORT $LN31@Reset

; 736  : 						{
; 737  : 							m_piCivTechPriority[iTech] *= GC.getTECH_PRIORITY_UNIQUE_ITEM();

	mov	ecx, DWORD PTR ?gGlobals@@3VCvGlobals@@A+1844
	mov	DWORD PTR $T227006[ebp], ecx
	mov	edx, DWORD PTR _this$[ebp]
	mov	eax, DWORD PTR [edx+16]
	mov	ecx, DWORD PTR _iTech$223435[ebp]
	mov	edx, DWORD PTR [eax+ecx*4]
	imul	edx, DWORD PTR $T227006[ebp]
	mov	eax, DWORD PTR _this$[ebp]
	mov	ecx, DWORD PTR [eax+16]
	mov	eax, DWORD PTR _iTech$223435[ebp]
	mov	DWORD PTR [ecx+eax*4], edx

; 738  : 							m_peCivTechUniqueBuildings[iTech] = eBuilding;

	mov	ecx, DWORD PTR _this$[ebp]
	mov	edx, DWORD PTR [ecx+32]
	mov	eax, DWORD PTR _iTech$223435[ebp]
	mov	ecx, DWORD PTR _eBuilding$223429[ebp]
	mov	DWORD PTR [edx+eax*4], ecx
$LN31@Reset:

; 739  : 						}
; 740  : 					}
; 741  : 				}
; 742  : 			}

	jmp	$LN34@Reset
$LN33@Reset:

; 743  : 
; 744  : 			// Loop through all units
; 745  : 			for(iI = 0; iI < GC.getNumUnitClassInfos(); iI++)

	mov	DWORD PTR _iI$[ebp], 0
	jmp	SHORT $LN28@Reset
$LN27@Reset:
	mov	edx, DWORD PTR _iI$[ebp]
	add	edx, 1
	mov	DWORD PTR _iI$[ebp], edx
$LN28@Reset:
	mov	ecx, OFFSET ?gGlobals@@3VCvGlobals@@A	; gGlobals
	call	?getNumUnitClassInfos@CvGlobals@@QAEHXZ	; CvGlobals::getNumUnitClassInfos
	cmp	DWORD PTR _iI$[ebp], eax
	jge	$LN26@Reset

; 746  : 			{
; 747  : 				// Is this one overridden for our civ?
; 748  : 				if(pkInfo->isCivilizationUnitOverridden(iI))

	mov	eax, DWORD PTR _iI$[ebp]
	push	eax
	mov	ecx, DWORD PTR _pkInfo$223424[ebp]
	call	?isCivilizationUnitOverridden@CvCivilizationInfo@@QBE_NH@Z ; CvCivilizationInfo::isCivilizationUnitOverridden
	movzx	ecx, al
	test	ecx, ecx
	je	SHORT $LN25@Reset

; 749  : 				{
; 750  : 					UnitTypes eCivilizationUnit = static_cast<UnitTypes>(pkInfo->getCivilizationUnits(iI));

	mov	edx, DWORD PTR _iI$[ebp]
	push	edx
	mov	ecx, DWORD PTR _pkInfo$223424[ebp]
	call	?getCivilizationUnits@CvCivilizationInfo@@QBEHH@Z ; CvCivilizationInfo::getCivilizationUnits
	mov	DWORD PTR _eCivilizationUnit$223441[ebp], eax

; 751  : 					if(eCivilizationUnit != NO_UNIT)

	cmp	DWORD PTR _eCivilizationUnit$223441[ebp], -1
	je	SHORT $LN25@Reset

; 752  : 					{
; 753  : 						CvUnitEntry* pkUnitEntry = GC.getUnitInfo(eCivilizationUnit);

	mov	eax, DWORD PTR _eCivilizationUnit$223441[ebp]
	push	eax
	mov	ecx, OFFSET ?gGlobals@@3VCvGlobals@@A	; gGlobals
	call	?getUnitInfo@CvGlobals@@QAEPAVCvUnitEntry@@W4UnitTypes@@@Z ; CvGlobals::getUnitInfo
	mov	DWORD PTR _pkUnitEntry$223444[ebp], eax

; 754  : 						if(pkUnitEntry)

	cmp	DWORD PTR _pkUnitEntry$223444[ebp], 0
	je	SHORT $LN25@Reset

; 755  : 						{
; 756  : 							int iTech = pkUnitEntry->GetPrereqAndTech();

	mov	ecx, DWORD PTR _pkUnitEntry$223444[ebp]
	call	?GetPrereqAndTech@CvUnitEntry@@QBEHXZ	; CvUnitEntry::GetPrereqAndTech
	mov	DWORD PTR _iTech$223446[ebp], eax

; 757  : 							if(iTech != NO_TECH)

	cmp	DWORD PTR _iTech$223446[ebp], -1
	je	SHORT $LN25@Reset

; 758  : 							{
; 759  : 								m_piCivTechPriority[iTech] *= GC.getTECH_PRIORITY_UNIQUE_ITEM();

	mov	ecx, DWORD PTR ?gGlobals@@3VCvGlobals@@A+1844
	mov	DWORD PTR $T227010[ebp], ecx
	mov	edx, DWORD PTR _this$[ebp]
	mov	eax, DWORD PTR [edx+16]
	mov	ecx, DWORD PTR _iTech$223446[ebp]
	mov	edx, DWORD PTR [eax+ecx*4]
	imul	edx, DWORD PTR $T227010[ebp]
	mov	eax, DWORD PTR _this$[ebp]
	mov	ecx, DWORD PTR [eax+16]
	mov	eax, DWORD PTR _iTech$223446[ebp]
	mov	DWORD PTR [ecx+eax*4], edx

; 760  : 								m_peCivTechUniqueUnits[iTech] = (UnitTypes)pkInfo->getCivilizationUnits(iI);

	mov	ecx, DWORD PTR _iI$[ebp]
	push	ecx
	mov	ecx, DWORD PTR _pkInfo$223424[ebp]
	call	?getCivilizationUnits@CvCivilizationInfo@@QBEHH@Z ; CvCivilizationInfo::getCivilizationUnits
	mov	edx, DWORD PTR _this$[ebp]
	mov	ecx, DWORD PTR [edx+28]
	mov	edx, DWORD PTR _iTech$223446[ebp]
	mov	DWORD PTR [ecx+edx*4], eax
$LN25@Reset:

; 761  : 							}
; 762  : 						}
; 763  : 					}
; 764  : 				}
; 765  : 			}

	jmp	$LN27@Reset
$LN26@Reset:

; 766  : 
; 767  : 			// Loop through all improvements
; 768  : 			for(iI = 0; iI < GC.getNumImprovementInfos(); iI++)

	mov	DWORD PTR _iI$[ebp], 0
	jmp	SHORT $LN21@Reset
$LN20@Reset:
	mov	eax, DWORD PTR _iI$[ebp]
	add	eax, 1
	mov	DWORD PTR _iI$[ebp], eax
$LN21@Reset:
	mov	ecx, OFFSET ?gGlobals@@3VCvGlobals@@A	; gGlobals
	call	?getNumImprovementInfos@CvGlobals@@QAEHXZ ; CvGlobals::getNumImprovementInfos
	cmp	DWORD PTR _iI$[ebp], eax
	jge	$LN36@Reset

; 769  : 			{
; 770  : 				CvImprovementEntry* pkImprovementEntry = GC.getImprovementInfo((ImprovementTypes)iI);

	mov	ecx, DWORD PTR _iI$[ebp]
	push	ecx
	mov	ecx, OFFSET ?gGlobals@@3VCvGlobals@@A	; gGlobals
	call	?getImprovementInfo@CvGlobals@@QAEPAVCvImprovementEntry@@W4ImprovementTypes@@@Z ; CvGlobals::getImprovementInfo
	mov	DWORD PTR _pkImprovementEntry$223452[ebp], eax

; 771  : 				if(pkImprovementEntry)

	cmp	DWORD PTR _pkImprovementEntry$223452[ebp], 0
	je	$LN18@Reset

; 772  : 				{
; 773  : 					if(pkImprovementEntry->IsSpecificCivRequired() && pkImprovementEntry->GetRequiredCivilization() == m_pPlayer->getCivilizationType())

	mov	ecx, DWORD PTR _pkImprovementEntry$223452[ebp]
	call	?IsSpecificCivRequired@CvImprovementEntry@@QBE_NXZ ; CvImprovementEntry::IsSpecificCivRequired
	movzx	edx, al
	test	edx, edx
	je	$LN18@Reset
	mov	ecx, DWORD PTR _pkImprovementEntry$223452[ebp]
	call	?GetRequiredCivilization@CvImprovementEntry@@QBE?AW4CivilizationTypes@@XZ ; CvImprovementEntry::GetRequiredCivilization
	mov	esi, eax
	mov	eax, DWORD PTR _this$[ebp]
	mov	ecx, DWORD PTR [eax+44]
	call	?getCivilizationType@CvPlayer@@QBE?AW4CivilizationTypes@@XZ ; CvPlayer::getCivilizationType
	cmp	esi, eax
	jne	$LN18@Reset

; 774  : 					{
; 775  : 						// Find corresponding build
; 776  : #ifdef AUI_WARNING_FIXES
; 777  : 						for (uint jJ = 0; jJ < GC.getNumBuildInfos(); jJ++)
; 778  : #else
; 779  : 						for(int jJ = 0; jJ < GC.getNumBuildInfos(); jJ++)

	mov	DWORD PTR _jJ$223456[ebp], 0
	jmp	SHORT $LN16@Reset
$LN15@Reset:
	mov	ecx, DWORD PTR _jJ$223456[ebp]
	add	ecx, 1
	mov	DWORD PTR _jJ$223456[ebp], ecx
$LN16@Reset:
	mov	ecx, OFFSET ?gGlobals@@3VCvGlobals@@A	; gGlobals
	call	?getNumBuildInfos@CvGlobals@@QAEHXZ	; CvGlobals::getNumBuildInfos
	cmp	DWORD PTR _jJ$223456[ebp], eax
	jge	SHORT $LN18@Reset

; 780  : #endif
; 781  : 						{
; 782  : 							CvBuildInfo* pkBuildEntry = GC.getBuildInfo((BuildTypes)jJ);

	mov	edx, DWORD PTR _jJ$223456[ebp]
	push	edx
	mov	ecx, OFFSET ?gGlobals@@3VCvGlobals@@A	; gGlobals
	call	?getBuildInfo@CvGlobals@@QAEPAVCvBuildInfo@@W4BuildTypes@@@Z ; CvGlobals::getBuildInfo
	mov	DWORD PTR _pkBuildEntry$223460[ebp], eax

; 783  : #ifdef AUI_WARNING_FIXES
; 784  : 							if (pkBuildEntry && (uint)pkBuildEntry->getImprovement() == iI)
; 785  : #else
; 786  : 							if(pkBuildEntry && pkBuildEntry->getImprovement() == iI)

	cmp	DWORD PTR _pkBuildEntry$223460[ebp], 0
	je	SHORT $LN13@Reset
	mov	ecx, DWORD PTR _pkBuildEntry$223460[ebp]
	call	?getImprovement@CvBuildInfo@@QBEHXZ	; CvBuildInfo::getImprovement
	cmp	eax, DWORD PTR _iI$[ebp]
	jne	SHORT $LN13@Reset

; 787  : #endif
; 788  : 							{
; 789  : 								int iTech = pkBuildEntry->getTechPrereq();

	mov	ecx, DWORD PTR _pkBuildEntry$223460[ebp]
	call	?getTechPrereq@CvBuildInfo@@QBEHXZ	; CvBuildInfo::getTechPrereq
	mov	DWORD PTR _iTech$223463[ebp], eax

; 790  : 								if(iTech != NO_TECH)

	cmp	DWORD PTR _iTech$223463[ebp], -1
	je	SHORT $LN13@Reset

; 791  : 								{
; 792  : 									m_piCivTechPriority[iTech] *= GC.getTECH_PRIORITY_UNIQUE_ITEM();

	mov	eax, DWORD PTR ?gGlobals@@3VCvGlobals@@A+1844
	mov	DWORD PTR $T227014[ebp], eax
	mov	ecx, DWORD PTR _this$[ebp]
	mov	edx, DWORD PTR [ecx+16]
	mov	eax, DWORD PTR _iTech$223463[ebp]
	mov	ecx, DWORD PTR [edx+eax*4]
	imul	ecx, DWORD PTR $T227014[ebp]
	mov	edx, DWORD PTR _this$[ebp]
	mov	eax, DWORD PTR [edx+16]
	mov	edx, DWORD PTR _iTech$223463[ebp]
	mov	DWORD PTR [eax+edx*4], ecx

; 793  : 									m_peCivTechUniqueImprovements[iTech] = static_cast<ImprovementTypes>(iI);

	mov	eax, DWORD PTR _this$[ebp]
	mov	ecx, DWORD PTR [eax+36]
	mov	edx, DWORD PTR _iTech$223463[ebp]
	mov	eax, DWORD PTR _iI$[ebp]
	mov	DWORD PTR [ecx+edx*4], eax
$LN13@Reset:

; 794  : 								}
; 795  : 							}
; 796  : 						}

	jmp	$LN15@Reset
$LN18@Reset:

; 797  : 					}
; 798  : 				}
; 799  : 			}

	jmp	$LN20@Reset
$LN36@Reset:

; 800  : 		}
; 801  : 
; 802  : 		// Player Traits
; 803  : #ifdef AUI_WARNING_FIXES
; 804  : 		for (uint iTraitLoop = 0; iTraitLoop < GC.getNumTraitInfos(); iTraitLoop++)
; 805  : #else
; 806  : 		int iNumTraits = GC.getNumTraitInfos();

	mov	ecx, OFFSET ?gGlobals@@3VCvGlobals@@A	; gGlobals
	call	?getNumTraitInfos@CvGlobals@@QAEHXZ	; CvGlobals::getNumTraitInfos
	mov	DWORD PTR _iNumTraits$223466[ebp], eax

; 807  : 		for(int iTraitLoop = 0; iTraitLoop < iNumTraits; iTraitLoop++)

	mov	DWORD PTR _iTraitLoop$223467[ebp], 0
	jmp	SHORT $LN11@Reset
$LN10@Reset:
	mov	ecx, DWORD PTR _iTraitLoop$223467[ebp]
	add	ecx, 1
	mov	DWORD PTR _iTraitLoop$223467[ebp], ecx
$LN11@Reset:
	mov	edx, DWORD PTR _iTraitLoop$223467[ebp]
	cmp	edx, DWORD PTR _iNumTraits$223466[ebp]
	jge	$LN37@Reset

; 808  : #endif
; 809  : 		{
; 810  : 			TraitTypes eTraitLoop = (TraitTypes) iTraitLoop;

	mov	eax, DWORD PTR _iTraitLoop$223467[ebp]
	mov	DWORD PTR _eTraitLoop$223471[ebp], eax

; 811  : 			// Do we have this trait?
; 812  : 			CvLeaderHeadInfo* pkLeaderInfo = &m_pPlayer->getLeaderInfo();

	mov	ecx, DWORD PTR _this$[ebp]
	mov	ecx, DWORD PTR [ecx+44]
	call	?getLeaderInfo@CvPlayer@@QBEAAVCvLeaderHeadInfo@@XZ ; CvPlayer::getLeaderInfo
	mov	DWORD PTR _pkLeaderInfo$223473[ebp], eax

; 813  : 			if(pkLeaderInfo)

	cmp	DWORD PTR _pkLeaderInfo$223473[ebp], 0
	je	$LN8@Reset

; 814  : 			{
; 815  : 				if(!pkLeaderInfo->hasTrait(iTraitLoop))  // This trait check disregards tech prereqs and obsoletes

	mov	edx, DWORD PTR _iTraitLoop$223467[ebp]
	push	edx
	mov	ecx, DWORD PTR _pkLeaderInfo$223473[ebp]
	call	?hasTrait@CvLeaderHeadInfo@@QBE_NH@Z	; CvLeaderHeadInfo::hasTrait
	movzx	eax, al
	test	eax, eax
	jne	SHORT $LN7@Reset

; 816  : 					continue;

	jmp	SHORT $LN10@Reset
$LN7@Reset:

; 817  : 
; 818  : 				CvTraitEntry* pkTraitInfo = GC.getTraitInfo(eTraitLoop);

	mov	ecx, DWORD PTR _eTraitLoop$223471[ebp]
	push	ecx
	mov	ecx, OFFSET ?gGlobals@@3VCvGlobals@@A	; gGlobals
	call	?getTraitInfo@CvGlobals@@QAEPAVCvTraitEntry@@W4TraitTypes@@@Z ; CvGlobals::getTraitInfo
	mov	DWORD PTR _pkTraitInfo$223476[ebp], eax

; 819  : 				if(pkTraitInfo)

	cmp	DWORD PTR _pkTraitInfo$223476[ebp], 0
	je	$LN8@Reset

; 820  : 				{
; 821  : 					// Maya Calendar trait - We want to heavily weight the unlock tech
; 822  : 					if(pkTraitInfo->IsMayaCalendarBonuses())

	mov	ecx, DWORD PTR _pkTraitInfo$223476[ebp]
	call	?IsMayaCalendarBonuses@CvTraitEntry@@QBE_NXZ ; CvTraitEntry::IsMayaCalendarBonuses
	movzx	edx, al
	test	edx, edx
	je	SHORT $LN5@Reset

; 823  : 					{
; 824  : 						int iPrereqTech = pkTraitInfo->GetPrereqTech();

	mov	ecx, DWORD PTR _pkTraitInfo$223476[ebp]
	call	?GetPrereqTech@CvTraitEntry@@QBEHXZ	; CvTraitEntry::GetPrereqTech
	mov	DWORD PTR _iPrereqTech$223479[ebp], eax

; 825  : 						if(iPrereqTech != NO_TECH)

	cmp	DWORD PTR _iPrereqTech$223479[ebp], -1
	je	SHORT $LN5@Reset

; 826  : 						{
; 827  : 							m_piCivTechPriority[iPrereqTech] *= GC.getTECH_PRIORITY_MAYA_CALENDAR_BONUS();

	mov	eax, DWORD PTR ?gGlobals@@3VCvGlobals@@A+1848
	mov	DWORD PTR $T227018[ebp], eax
	mov	ecx, DWORD PTR _this$[ebp]
	mov	edx, DWORD PTR [ecx+16]
	mov	eax, DWORD PTR _iPrereqTech$223479[ebp]
	mov	ecx, DWORD PTR [edx+eax*4]
	imul	ecx, DWORD PTR $T227018[ebp]
	mov	edx, DWORD PTR _this$[ebp]
	mov	eax, DWORD PTR [edx+16]
	mov	edx, DWORD PTR _iPrereqTech$223479[ebp]
	mov	DWORD PTR [eax+edx*4], ecx
$LN5@Reset:

; 828  : 						}
; 829  : 					}
; 830  : 
; 831  : 					// Other traits that unlock by tech? -- Yep. ~EAP
; 832  : 					int iPrereqTech = pkTraitInfo->GetFreeUnitPrereqTech();

	mov	ecx, DWORD PTR _pkTraitInfo$223476[ebp]
	call	?GetFreeUnitPrereqTech@CvTraitEntry@@QBE?AW4TechTypes@@XZ ; CvTraitEntry::GetFreeUnitPrereqTech
	mov	DWORD PTR _iPrereqTech$223481[ebp], eax

; 833  : 					if (iPrereqTech != NO_TECH)

	cmp	DWORD PTR _iPrereqTech$223481[ebp], -1
	je	SHORT $LN3@Reset

; 834  : 					{
; 835  : 						m_piCivTechPriority[iPrereqTech] += GC.getTECH_PRIORITY_MAYA_CALENDAR_BONUS();

	mov	eax, DWORD PTR ?gGlobals@@3VCvGlobals@@A+1848
	mov	DWORD PTR $T227022[ebp], eax
	mov	ecx, DWORD PTR _this$[ebp]
	mov	edx, DWORD PTR [ecx+16]
	mov	eax, DWORD PTR _iPrereqTech$223481[ebp]
	mov	ecx, DWORD PTR [edx+eax*4]
	add	ecx, DWORD PTR $T227022[ebp]
	mov	edx, DWORD PTR _this$[ebp]
	mov	eax, DWORD PTR [edx+16]
	mov	edx, DWORD PTR _iPrereqTech$223481[ebp]
	mov	DWORD PTR [eax+edx*4], ecx
$LN3@Reset:

; 836  : 					}
; 837  : 
; 838  : 					iPrereqTech = pkTraitInfo->GetCapitalFreeBuildingPrereqTech();

	mov	ecx, DWORD PTR _pkTraitInfo$223476[ebp]
	call	?GetCapitalFreeBuildingPrereqTech@CvTraitEntry@@QBE?AW4TechTypes@@XZ ; CvTraitEntry::GetCapitalFreeBuildingPrereqTech
	mov	DWORD PTR _iPrereqTech$223481[ebp], eax

; 839  : 					if (iPrereqTech != NO_TECH)

	cmp	DWORD PTR _iPrereqTech$223481[ebp], -1
	je	SHORT $LN2@Reset

; 840  : 					{
; 841  : 						m_piCivTechPriority[iPrereqTech] += GC.getTECH_PRIORITY_MAYA_CALENDAR_BONUS();

	mov	eax, DWORD PTR ?gGlobals@@3VCvGlobals@@A+1848
	mov	DWORD PTR $T227026[ebp], eax
	mov	ecx, DWORD PTR _this$[ebp]
	mov	edx, DWORD PTR [ecx+16]
	mov	eax, DWORD PTR _iPrereqTech$223481[ebp]
	mov	ecx, DWORD PTR [edx+eax*4]
	add	ecx, DWORD PTR $T227026[ebp]
	mov	edx, DWORD PTR _this$[ebp]
	mov	eax, DWORD PTR [edx+16]
	mov	edx, DWORD PTR _iPrereqTech$223481[ebp]
	mov	DWORD PTR [eax+edx*4], ecx
$LN2@Reset:

; 842  : 					}
; 843  : 
; 844  : 
; 845  : 					iPrereqTech = pkTraitInfo->GetFreeBuildingPrereqTech();

	mov	ecx, DWORD PTR _pkTraitInfo$223476[ebp]
	call	?GetFreeBuildingPrereqTech@CvTraitEntry@@QBE?AW4TechTypes@@XZ ; CvTraitEntry::GetFreeBuildingPrereqTech
	mov	DWORD PTR _iPrereqTech$223481[ebp], eax

; 846  : 					if (iPrereqTech != NO_TECH)

	cmp	DWORD PTR _iPrereqTech$223481[ebp], -1
	je	SHORT $LN8@Reset

; 847  : 					{
; 848  : 						m_piCivTechPriority[iPrereqTech] += GC.getTECH_PRIORITY_MAYA_CALENDAR_BONUS();

	mov	eax, DWORD PTR ?gGlobals@@3VCvGlobals@@A+1848
	mov	DWORD PTR $T227030[ebp], eax
	mov	ecx, DWORD PTR _this$[ebp]
	mov	edx, DWORD PTR [ecx+16]
	mov	eax, DWORD PTR _iPrereqTech$223481[ebp]
	mov	ecx, DWORD PTR [edx+eax*4]
	add	ecx, DWORD PTR $T227030[ebp]
	mov	edx, DWORD PTR _this$[ebp]
	mov	eax, DWORD PTR [edx+16]
	mov	edx, DWORD PTR _iPrereqTech$223481[ebp]
	mov	DWORD PTR [eax+edx*4], ecx
$LN8@Reset:

; 849  : 					}
; 850  : 				}
; 851  : 			}
; 852  : 		}

	jmp	$LN10@Reset
$LN37@Reset:

; 853  : 	}
; 854  : 
; 855  : 	// Reset AI too
; 856  : 	m_pTechAI->Reset();

	mov	eax, DWORD PTR _this$[ebp]
	mov	ecx, DWORD PTR [eax+48]
	call	?Reset@CvTechAI@@QAEXXZ			; CvTechAI::Reset

; 857  : }

	pop	esi
	mov	esp, ebp
	pop	ebp
	ret	0
?Reset@CvPlayerTechs@@QAEXXZ ENDP			; CvPlayerTechs::Reset
_TEXT	ENDS
PUBLIC	??$?5H@@YAAAVFDataStream@@AAV0@AAV?$ArrayWrapper@H@@@Z ; operator>><int>
PUBLIC	??$ReadHashedDataArray@W4ImprovementTypes@@@CvInfosSerializationHelper@@YAXAAVFDataStream@@PAW4ImprovementTypes@@H@Z ; CvInfosSerializationHelper::ReadHashedDataArray<enum ImprovementTypes>
PUBLIC	??$ReadHashedDataArray@W4BuildingTypes@@@CvInfosSerializationHelper@@YAXAAVFDataStream@@PAW4BuildingTypes@@H@Z ; CvInfosSerializationHelper::ReadHashedDataArray<enum BuildingTypes>
PUBLIC	??$ReadHashedDataArray@W4UnitTypes@@@CvInfosSerializationHelper@@YAXAAVFDataStream@@PAW4UnitTypes@@H@Z ; CvInfosSerializationHelper::ReadHashedDataArray<enum UnitTypes>
PUBLIC	??$ReadHashedDataArray@W4ResourceTypes@@@CvInfosSerializationHelper@@YAXAAVFDataStream@@PAW4ResourceTypes@@H@Z ; CvInfosSerializationHelper::ReadHashedDataArray<enum ResourceTypes>
PUBLIC	??$ReadHashedDataArray@H@CvInfosSerializationHelper@@YAXAAVFDataStream@@PAHH@Z ; CvInfosSerializationHelper::ReadHashedDataArray<int>
PUBLIC	??$ReadHashedDataArray@_N@CvInfosSerializationHelper@@YAXAAVFDataStream@@PA_NH@Z ; CvInfosSerializationHelper::ReadHashedDataArray<bool>
PUBLIC	?Read@CvPlayerTechs@@QAEXAAVFDataStream@@@Z	; CvPlayerTechs::Read
EXTRN	?Read@FDataStream@@IAEXAAH@Z:PROC		; FDataStream::Read
EXTRN	?Read@CvTechAI@@QAEXAAVFDataStream@@@Z:PROC	; CvTechAI::Read
EXTRN	?Read@FDataStream@@IAEXAAI@Z:PROC		; FDataStream::Read
; Function compile flags: /Odtp
;	COMDAT ?Read@CvPlayerTechs@@QAEXAAVFDataStream@@@Z
_TEXT	SEGMENT
_this$ = -32						; size = 4
$T227043 = -28						; size = 4
$T227042 = -24						; size = 4
_iNumTechs$223491 = -20					; size = 4
_uiVersion$ = -16					; size = 4
_kLatestFlavorWrapper$ = -12				; size = 8
_iNumFlavors$ = -4					; size = 4
_kStream$ = 8						; size = 4
?Read@CvPlayerTechs@@QAEXAAVFDataStream@@@Z PROC	; CvPlayerTechs::Read, COMDAT
; _this$ = ecx

; 861  : {

	push	ebp
	mov	ebp, esp
	sub	esp, 32					; 00000020H
	mov	DWORD PTR _this$[ebp], ecx

; 862  : 	// Version number to maintain backwards compatibility
; 863  : 	uint uiVersion;
; 864  : 	kStream >> uiVersion;

	lea	eax, DWORD PTR _uiVersion$[ebp]
	push	eax
	mov	ecx, DWORD PTR _kStream$[ebp]
	call	?Read@FDataStream@@IAEXAAI@Z		; FDataStream::Read

; 865  : 
; 866  : 	// TODO: If m_pTechs is NULL then the stream will not be advanced causing errors to occur.
; 867  : 	CvAssertMsg(m_pTechs != NULL && m_pTechs->GetNumTechs() > 0, "Number of techs to serialize is expected to greater than 0");
; 868  : 	if(m_pTechs != NULL)

	mov	ecx, DWORD PTR _this$[ebp]
	cmp	DWORD PTR [ecx+40], 0
	je	$LN1@Read

; 869  : 	{
; 870  : 		const int iNumTechs = m_pTechs->GetNumTechs();

	mov	edx, DWORD PTR _this$[ebp]
	mov	ecx, DWORD PTR [edx+40]
	call	?GetNumTechs@CvTechXMLEntries@@QAEHXZ	; CvTechXMLEntries::GetNumTechs
	mov	DWORD PTR _iNumTechs$223491[ebp], eax

; 871  : 
; 872  : 		CvInfosSerializationHelper::ReadHashedDataArray(kStream, m_pabResearchingTech, iNumTechs);

	mov	eax, DWORD PTR _iNumTechs$223491[ebp]
	push	eax
	mov	ecx, DWORD PTR _this$[ebp]
	mov	edx, DWORD PTR [ecx+12]
	push	edx
	mov	eax, DWORD PTR _kStream$[ebp]
	push	eax
	call	??$ReadHashedDataArray@_N@CvInfosSerializationHelper@@YAXAAVFDataStream@@PA_NH@Z ; CvInfosSerializationHelper::ReadHashedDataArray<bool>
	add	esp, 12					; 0000000cH

; 873  : 		CvInfosSerializationHelper::ReadHashedDataArray(kStream, m_piCivTechPriority, iNumTechs);

	mov	ecx, DWORD PTR _iNumTechs$223491[ebp]
	push	ecx
	mov	edx, DWORD PTR _this$[ebp]
	mov	eax, DWORD PTR [edx+16]
	push	eax
	mov	ecx, DWORD PTR _kStream$[ebp]
	push	ecx
	call	??$ReadHashedDataArray@H@CvInfosSerializationHelper@@YAXAAVFDataStream@@PAHH@Z ; CvInfosSerializationHelper::ReadHashedDataArray<int>
	add	esp, 12					; 0000000cH

; 874  : 		CvInfosSerializationHelper::ReadHashedDataArray(kStream, m_piLocaleTechPriority, iNumTechs);

	mov	edx, DWORD PTR _iNumTechs$223491[ebp]
	push	edx
	mov	eax, DWORD PTR _this$[ebp]
	mov	ecx, DWORD PTR [eax+20]
	push	ecx
	mov	edx, DWORD PTR _kStream$[ebp]
	push	edx
	call	??$ReadHashedDataArray@H@CvInfosSerializationHelper@@YAXAAVFDataStream@@PAHH@Z ; CvInfosSerializationHelper::ReadHashedDataArray<int>
	add	esp, 12					; 0000000cH

; 875  : 		CvInfosSerializationHelper::ReadHashedDataArray(kStream, m_peLocaleTechResources, iNumTechs);

	mov	eax, DWORD PTR _iNumTechs$223491[ebp]
	push	eax
	mov	ecx, DWORD PTR _this$[ebp]
	mov	edx, DWORD PTR [ecx+24]
	push	edx
	mov	eax, DWORD PTR _kStream$[ebp]
	push	eax
	call	??$ReadHashedDataArray@W4ResourceTypes@@@CvInfosSerializationHelper@@YAXAAVFDataStream@@PAW4ResourceTypes@@H@Z ; CvInfosSerializationHelper::ReadHashedDataArray<enum ResourceTypes>
	add	esp, 12					; 0000000cH

; 876  : 		CvInfosSerializationHelper::ReadHashedDataArray(kStream, m_peCivTechUniqueUnits, iNumTechs);

	mov	ecx, DWORD PTR _iNumTechs$223491[ebp]
	push	ecx
	mov	edx, DWORD PTR _this$[ebp]
	mov	eax, DWORD PTR [edx+28]
	push	eax
	mov	ecx, DWORD PTR _kStream$[ebp]
	push	ecx
	call	??$ReadHashedDataArray@W4UnitTypes@@@CvInfosSerializationHelper@@YAXAAVFDataStream@@PAW4UnitTypes@@H@Z ; CvInfosSerializationHelper::ReadHashedDataArray<enum UnitTypes>
	add	esp, 12					; 0000000cH

; 877  : 		CvInfosSerializationHelper::ReadHashedDataArray(kStream, m_peCivTechUniqueBuildings, iNumTechs);

	mov	edx, DWORD PTR _iNumTechs$223491[ebp]
	push	edx
	mov	eax, DWORD PTR _this$[ebp]
	mov	ecx, DWORD PTR [eax+32]
	push	ecx
	mov	edx, DWORD PTR _kStream$[ebp]
	push	edx
	call	??$ReadHashedDataArray@W4BuildingTypes@@@CvInfosSerializationHelper@@YAXAAVFDataStream@@PAW4BuildingTypes@@H@Z ; CvInfosSerializationHelper::ReadHashedDataArray<enum BuildingTypes>
	add	esp, 12					; 0000000cH

; 878  : 		CvInfosSerializationHelper::ReadHashedDataArray(kStream, m_peCivTechUniqueImprovements, iNumTechs);

	mov	eax, DWORD PTR _iNumTechs$223491[ebp]
	push	eax
	mov	ecx, DWORD PTR _this$[ebp]
	mov	edx, DWORD PTR [ecx+36]
	push	edx
	mov	eax, DWORD PTR _kStream$[ebp]
	push	eax
	call	??$ReadHashedDataArray@W4ImprovementTypes@@@CvInfosSerializationHelper@@YAXAAVFDataStream@@PAW4ImprovementTypes@@H@Z ; CvInfosSerializationHelper::ReadHashedDataArray<enum ImprovementTypes>
	add	esp, 12					; 0000000cH
$LN1@Read:

; 879  : 	}
; 880  : 
; 881  : 	// Now for AI
; 882  : 	m_pTechAI->Read(kStream);

	mov	ecx, DWORD PTR _kStream$[ebp]
	push	ecx
	mov	edx, DWORD PTR _this$[ebp]
	mov	ecx, DWORD PTR [edx+48]
	call	?Read@CvTechAI@@QAEXAAVFDataStream@@@Z	; CvTechAI::Read

; 883  : 
; 884  : 	CvAssertMsg(m_piLatestFlavorValues != NULL && GC.getNumFlavorTypes() > 0, "Number of flavor values to serialize is expected to greater than 0");
; 885  : 
; 886  : 	int iNumFlavors;
; 887  : 	kStream >> iNumFlavors;

	lea	eax, DWORD PTR _iNumFlavors$[ebp]
	push	eax
	mov	ecx, DWORD PTR _kStream$[ebp]
	call	?Read@FDataStream@@IAEXAAH@Z		; FDataStream::Read

; 888  : 
; 889  : 	ArrayWrapper<int> kLatestFlavorWrapper(iNumFlavors, m_piLatestFlavorValues);

	mov	ecx, DWORD PTR _this$[ebp]
	mov	edx, DWORD PTR [ecx+8]
	mov	DWORD PTR $T227043[ebp], edx
	mov	eax, DWORD PTR _iNumFlavors$[ebp]
	mov	DWORD PTR $T227042[ebp], eax
	mov	ecx, DWORD PTR $T227043[ebp]
	mov	DWORD PTR _kLatestFlavorWrapper$[ebp], ecx
	mov	edx, DWORD PTR $T227042[ebp]
	mov	DWORD PTR _kLatestFlavorWrapper$[ebp+4], edx

; 890  : 	kStream >> kLatestFlavorWrapper;

	lea	eax, DWORD PTR _kLatestFlavorWrapper$[ebp]
	push	eax
	mov	ecx, DWORD PTR _kStream$[ebp]
	push	ecx
	call	??$?5H@@YAAAVFDataStream@@AAV0@AAV?$ArrayWrapper@H@@@Z ; operator>><int>
	add	esp, 8

; 891  : }

	mov	esp, ebp
	pop	ebp
	ret	4
?Read@CvPlayerTechs@@QAEXAAVFDataStream@@@Z ENDP	; CvPlayerTechs::Read
_TEXT	ENDS
PUBLIC	??$?6H@@YAAAVFDataStream@@AAV0@ABV?$ArrayWrapper@H@@@Z ; operator<<<int>
PUBLIC	??$WriteHashedDataArray@W4TechTypes@@W4ImprovementTypes@@@CvInfosSerializationHelper@@YAXAAVFDataStream@@PAW4ImprovementTypes@@I@Z ; CvInfosSerializationHelper::WriteHashedDataArray<enum TechTypes,enum ImprovementTypes>
PUBLIC	??$WriteHashedDataArray@W4TechTypes@@W4BuildingTypes@@@CvInfosSerializationHelper@@YAXAAVFDataStream@@PAW4BuildingTypes@@I@Z ; CvInfosSerializationHelper::WriteHashedDataArray<enum TechTypes,enum BuildingTypes>
PUBLIC	??$WriteHashedDataArray@W4TechTypes@@W4UnitTypes@@@CvInfosSerializationHelper@@YAXAAVFDataStream@@PAW4UnitTypes@@I@Z ; CvInfosSerializationHelper::WriteHashedDataArray<enum TechTypes,enum UnitTypes>
PUBLIC	??$WriteHashedDataArray@W4TechTypes@@W4ResourceTypes@@@CvInfosSerializationHelper@@YAXAAVFDataStream@@PAW4ResourceTypes@@I@Z ; CvInfosSerializationHelper::WriteHashedDataArray<enum TechTypes,enum ResourceTypes>
PUBLIC	??$WriteHashedDataArray@W4TechTypes@@H@CvInfosSerializationHelper@@YAXAAVFDataStream@@PAHI@Z ; CvInfosSerializationHelper::WriteHashedDataArray<enum TechTypes,int>
PUBLIC	??$WriteHashedDataArray@W4TechTypes@@_N@CvInfosSerializationHelper@@YAXAAVFDataStream@@PA_NI@Z ; CvInfosSerializationHelper::WriteHashedDataArray<enum TechTypes,bool>
PUBLIC	?Write@CvPlayerTechs@@QAEXAAVFDataStream@@@Z	; CvPlayerTechs::Write
EXTRN	?Write@FDataStream@@IAEXABH@Z:PROC		; FDataStream::Write
EXTRN	?Write@CvTechAI@@QBEXAAVFDataStream@@@Z:PROC	; CvTechAI::Write
EXTRN	?Write@FDataStream@@IAEXABI@Z:PROC		; FDataStream::Write
; Function compile flags: /Odtp
;	COMDAT ?Write@CvPlayerTechs@@QAEXAAVFDataStream@@@Z
_TEXT	SEGMENT
_this$ = -36						; size = 4
$T227065 = -32						; size = 4
$T227061 = -28						; size = 4
$T227054 = -24						; size = 4
$T227047 = -20						; size = 8
$T227046 = -12						; size = 4
_iNumTechs$223568 = -8					; size = 4
_uiVersion$ = -4					; size = 4
_kStream$ = 8						; size = 4
?Write@CvPlayerTechs@@QAEXAAVFDataStream@@@Z PROC	; CvPlayerTechs::Write, COMDAT
; _this$ = ecx

; 895  : {

	push	ebp
	mov	ebp, esp
	sub	esp, 36					; 00000024H
	mov	DWORD PTR _this$[ebp], ecx

; 896  : 	// Current version number
; 897  : 	uint uiVersion = 1;

	mov	DWORD PTR _uiVersion$[ebp], 1

; 898  : 	kStream << uiVersion;

	lea	eax, DWORD PTR _uiVersion$[ebp]
	push	eax
	mov	ecx, DWORD PTR _kStream$[ebp]
	call	?Write@FDataStream@@IAEXABI@Z		; FDataStream::Write

; 899  : 
; 900  : 	// TODO: If m_pTechs is NULL then the stream will not advance
; 901  : 	CvAssertMsg(m_pTechs != NULL && m_pTechs->GetNumTechs() > 0, "Number of techs to serialize is expected to greater than 0");
; 902  : 	if(m_pTechs != NULL)

	mov	ecx, DWORD PTR _this$[ebp]
	cmp	DWORD PTR [ecx+40], 0
	je	$LN1@Write

; 903  : 	{
; 904  : 		const int iNumTechs = m_pTechs->GetNumTechs();

	mov	edx, DWORD PTR _this$[ebp]
	mov	ecx, DWORD PTR [edx+40]
	call	?GetNumTechs@CvTechXMLEntries@@QAEHXZ	; CvTechXMLEntries::GetNumTechs
	mov	DWORD PTR _iNumTechs$223568[ebp], eax

; 905  : 
; 906  : 		CvInfosSerializationHelper::WriteHashedDataArray<TechTypes, bool>(kStream, m_pabResearchingTech, iNumTechs);

	mov	eax, DWORD PTR _iNumTechs$223568[ebp]
	push	eax
	mov	ecx, DWORD PTR _this$[ebp]
	mov	edx, DWORD PTR [ecx+12]
	push	edx
	mov	eax, DWORD PTR _kStream$[ebp]
	push	eax
	call	??$WriteHashedDataArray@W4TechTypes@@_N@CvInfosSerializationHelper@@YAXAAVFDataStream@@PA_NI@Z ; CvInfosSerializationHelper::WriteHashedDataArray<enum TechTypes,bool>
	add	esp, 12					; 0000000cH

; 907  : 		CvInfosSerializationHelper::WriteHashedDataArray<TechTypes, int>(kStream, m_piCivTechPriority, iNumTechs);

	mov	ecx, DWORD PTR _iNumTechs$223568[ebp]
	push	ecx
	mov	edx, DWORD PTR _this$[ebp]
	mov	eax, DWORD PTR [edx+16]
	push	eax
	mov	ecx, DWORD PTR _kStream$[ebp]
	push	ecx
	call	??$WriteHashedDataArray@W4TechTypes@@H@CvInfosSerializationHelper@@YAXAAVFDataStream@@PAHI@Z ; CvInfosSerializationHelper::WriteHashedDataArray<enum TechTypes,int>
	add	esp, 12					; 0000000cH

; 908  : 		CvInfosSerializationHelper::WriteHashedDataArray<TechTypes, int>(kStream, m_piLocaleTechPriority, iNumTechs);

	mov	edx, DWORD PTR _iNumTechs$223568[ebp]
	push	edx
	mov	eax, DWORD PTR _this$[ebp]
	mov	ecx, DWORD PTR [eax+20]
	push	ecx
	mov	edx, DWORD PTR _kStream$[ebp]
	push	edx
	call	??$WriteHashedDataArray@W4TechTypes@@H@CvInfosSerializationHelper@@YAXAAVFDataStream@@PAHI@Z ; CvInfosSerializationHelper::WriteHashedDataArray<enum TechTypes,int>
	add	esp, 12					; 0000000cH

; 909  : 		CvInfosSerializationHelper::WriteHashedDataArray<TechTypes, ResourceTypes>(kStream, m_peLocaleTechResources, iNumTechs);

	mov	eax, DWORD PTR _iNumTechs$223568[ebp]
	push	eax
	mov	ecx, DWORD PTR _this$[ebp]
	mov	edx, DWORD PTR [ecx+24]
	push	edx
	mov	eax, DWORD PTR _kStream$[ebp]
	push	eax
	call	??$WriteHashedDataArray@W4TechTypes@@W4ResourceTypes@@@CvInfosSerializationHelper@@YAXAAVFDataStream@@PAW4ResourceTypes@@I@Z ; CvInfosSerializationHelper::WriteHashedDataArray<enum TechTypes,enum ResourceTypes>
	add	esp, 12					; 0000000cH

; 910  : 		CvInfosSerializationHelper::WriteHashedDataArray<TechTypes, UnitTypes>(kStream, m_peCivTechUniqueUnits, iNumTechs);

	mov	ecx, DWORD PTR _iNumTechs$223568[ebp]
	push	ecx
	mov	edx, DWORD PTR _this$[ebp]
	mov	eax, DWORD PTR [edx+28]
	push	eax
	mov	ecx, DWORD PTR _kStream$[ebp]
	push	ecx
	call	??$WriteHashedDataArray@W4TechTypes@@W4UnitTypes@@@CvInfosSerializationHelper@@YAXAAVFDataStream@@PAW4UnitTypes@@I@Z ; CvInfosSerializationHelper::WriteHashedDataArray<enum TechTypes,enum UnitTypes>
	add	esp, 12					; 0000000cH

; 911  : 		CvInfosSerializationHelper::WriteHashedDataArray<TechTypes, BuildingTypes>(kStream, m_peCivTechUniqueBuildings, iNumTechs);

	mov	edx, DWORD PTR _iNumTechs$223568[ebp]
	push	edx
	mov	eax, DWORD PTR _this$[ebp]
	mov	ecx, DWORD PTR [eax+32]
	push	ecx
	mov	edx, DWORD PTR _kStream$[ebp]
	push	edx
	call	??$WriteHashedDataArray@W4TechTypes@@W4BuildingTypes@@@CvInfosSerializationHelper@@YAXAAVFDataStream@@PAW4BuildingTypes@@I@Z ; CvInfosSerializationHelper::WriteHashedDataArray<enum TechTypes,enum BuildingTypes>
	add	esp, 12					; 0000000cH

; 912  : 		CvInfosSerializationHelper::WriteHashedDataArray<TechTypes, ImprovementTypes>(kStream, m_peCivTechUniqueImprovements, iNumTechs);

	mov	eax, DWORD PTR _iNumTechs$223568[ebp]
	push	eax
	mov	ecx, DWORD PTR _this$[ebp]
	mov	edx, DWORD PTR [ecx+36]
	push	edx
	mov	eax, DWORD PTR _kStream$[ebp]
	push	eax
	call	??$WriteHashedDataArray@W4TechTypes@@W4ImprovementTypes@@@CvInfosSerializationHelper@@YAXAAVFDataStream@@PAW4ImprovementTypes@@I@Z ; CvInfosSerializationHelper::WriteHashedDataArray<enum TechTypes,enum ImprovementTypes>
	add	esp, 12					; 0000000cH
$LN1@Write:

; 913  : 	}
; 914  : 
; 915  : 	// Now for AI
; 916  : 	m_pTechAI->Write(kStream);

	mov	ecx, DWORD PTR _kStream$[ebp]
	push	ecx
	mov	edx, DWORD PTR _this$[ebp]
	mov	ecx, DWORD PTR [edx+48]
	call	?Write@CvTechAI@@QBEXAAVFDataStream@@@Z	; CvTechAI::Write

; 917  : 
; 918  : 	CvAssertMsg(m_piLatestFlavorValues != NULL && GC.getNumFlavorTypes() > 0, "Number of flavor values to serialize is expected to greater than 0");
; 919  : 	kStream << GC.getNumFlavorTypes();

	mov	eax, DWORD PTR ?gGlobals@@3VCvGlobals@@A+1764
	mov	DWORD PTR $T227054[ebp], eax
	mov	ecx, DWORD PTR $T227054[ebp]
	mov	DWORD PTR $T227046[ebp], ecx
	lea	edx, DWORD PTR $T227046[ebp]
	push	edx
	mov	ecx, DWORD PTR _kStream$[ebp]
	call	?Write@FDataStream@@IAEXABH@Z		; FDataStream::Write

; 920  : 	kStream << ArrayWrapper<int>(GC.getNumFlavorTypes(), m_piLatestFlavorValues);

	mov	eax, DWORD PTR ?gGlobals@@3VCvGlobals@@A+1764
	mov	DWORD PTR $T227061[ebp], eax
	mov	ecx, DWORD PTR _this$[ebp]
	mov	edx, DWORD PTR [ecx+8]
	mov	DWORD PTR $T227065[ebp], edx
	mov	eax, DWORD PTR $T227065[ebp]
	mov	DWORD PTR $T227047[ebp], eax
	mov	ecx, DWORD PTR $T227061[ebp]
	mov	DWORD PTR $T227047[ebp+4], ecx
	lea	edx, DWORD PTR $T227047[ebp]
	push	edx
	mov	eax, DWORD PTR _kStream$[ebp]
	push	eax
	call	??$?6H@@YAAAVFDataStream@@AAV0@ABV?$ArrayWrapper@H@@@Z ; operator<<<int>
	add	esp, 8

; 921  : }

	mov	esp, ebp
	pop	ebp
	ret	4
?Write@CvPlayerTechs@@QAEXAAVFDataStream@@@Z ENDP	; CvPlayerTechs::Write
_TEXT	ENDS
PUBLIC	?AddFlavorAsStrategies@CvPlayerTechs@@AAEXH@Z	; CvPlayerTechs::AddFlavorAsStrategies
PUBLIC	?SetLocalePriorities@CvPlayerTechs@@QAEXXZ	; CvPlayerTechs::SetLocalePriorities
; Function compile flags: /Odtp
;	COMDAT ?FlavorUpdate@CvPlayerTechs@@UAEXXZ
_TEXT	SEGMENT
_this$ = -8						; size = 4
$T227071 = -4						; size = 4
?FlavorUpdate@CvPlayerTechs@@UAEXXZ PROC		; CvPlayerTechs::FlavorUpdate, COMDAT
; _this$ = ecx

; 925  : {

	push	ebp
	mov	ebp, esp
	sub	esp, 8
	mov	DWORD PTR _this$[ebp], ecx

; 926  : 	SetLocalePriorities();

	mov	ecx, DWORD PTR _this$[ebp]
	call	?SetLocalePriorities@CvPlayerTechs@@QAEXXZ ; CvPlayerTechs::SetLocalePriorities

; 927  : 	AddFlavorAsStrategies(GC.getTECH_WEIGHT_PROPAGATION_PERCENT());

	mov	eax, DWORD PTR ?gGlobals@@3VCvGlobals@@A+1836
	mov	DWORD PTR $T227071[ebp], eax
	mov	ecx, DWORD PTR $T227071[ebp]
	push	ecx
	mov	ecx, DWORD PTR _this$[ebp]
	call	?AddFlavorAsStrategies@CvPlayerTechs@@AAEXH@Z ; CvPlayerTechs::AddFlavorAsStrategies

; 928  : }

	mov	esp, ebp
	pop	ebp
	ret	0
?FlavorUpdate@CvPlayerTechs@@UAEXXZ ENDP		; CvPlayerTechs::FlavorUpdate
_TEXT	ENDS
PUBLIC	?GetPlayer@CvPlayerTechs@@QAEPAVCvPlayer@@XZ	; CvPlayerTechs::GetPlayer
; Function compile flags: /Odtp
;	COMDAT ?GetPlayer@CvPlayerTechs@@QAEPAVCvPlayer@@XZ
_TEXT	SEGMENT
_this$ = -4						; size = 4
?GetPlayer@CvPlayerTechs@@QAEPAVCvPlayer@@XZ PROC	; CvPlayerTechs::GetPlayer, COMDAT
; _this$ = ecx

; 932  : {

	push	ebp
	mov	ebp, esp
	push	ecx
	mov	DWORD PTR _this$[ebp], ecx

; 933  : 	return m_pPlayer;

	mov	eax, DWORD PTR _this$[ebp]
	mov	eax, DWORD PTR [eax+44]

; 934  : }

	mov	esp, ebp
	pop	ebp
	ret	0
?GetPlayer@CvPlayerTechs@@QAEPAVCvPlayer@@XZ ENDP	; CvPlayerTechs::GetPlayer
_TEXT	ENDS
PUBLIC	?GetTechAI@CvPlayerTechs@@QAEPAVCvTechAI@@XZ	; CvPlayerTechs::GetTechAI
; Function compile flags: /Odtp
;	COMDAT ?GetTechAI@CvPlayerTechs@@QAEPAVCvTechAI@@XZ
_TEXT	SEGMENT
_this$ = -4						; size = 4
?GetTechAI@CvPlayerTechs@@QAEPAVCvTechAI@@XZ PROC	; CvPlayerTechs::GetTechAI, COMDAT
; _this$ = ecx

; 938  : {

	push	ebp
	mov	ebp, esp
	push	ecx
	mov	DWORD PTR _this$[ebp], ecx

; 939  : 	return m_pTechAI;

	mov	eax, DWORD PTR _this$[ebp]
	mov	eax, DWORD PTR [eax+48]

; 940  : }

	mov	esp, ebp
	pop	ebp
	ret	0
?GetTechAI@CvPlayerTechs@@QAEPAVCvTechAI@@XZ ENDP	; CvPlayerTechs::GetTechAI
_TEXT	ENDS
PUBLIC	?IsResearchingTech@CvPlayerTechs@@QBE_NW4TechTypes@@@Z ; CvPlayerTechs::IsResearchingTech
; Function compile flags: /Odtp
;	COMDAT ?IsResearchingTech@CvPlayerTechs@@QBE_NW4TechTypes@@@Z
_TEXT	SEGMENT
_this$ = -4						; size = 4
_eIndex$ = 8						; size = 4
?IsResearchingTech@CvPlayerTechs@@QBE_NW4TechTypes@@@Z PROC ; CvPlayerTechs::IsResearchingTech, COMDAT
; _this$ = ecx

; 944  : {

	push	ebp
	mov	ebp, esp
	push	ecx
	mov	DWORD PTR _this$[ebp], ecx

; 945  : 	CvAssertMsg(eIndex >= 0, "eIndex is expected to be non-negative (invalid Index)");
; 946  : 	CvAssertMsg(eIndex < GC.getNumTechInfos(), "eIndex is expected to be within maximum bounds (invalid Index)");
; 947  : 	return m_pabResearchingTech[eIndex];

	mov	eax, DWORD PTR _this$[ebp]
	mov	ecx, DWORD PTR [eax+12]
	mov	edx, DWORD PTR _eIndex$[ebp]
	mov	al, BYTE PTR [ecx+edx]

; 948  : }

	mov	esp, ebp
	pop	ebp
	ret	4
?IsResearchingTech@CvPlayerTechs@@QBE_NW4TechTypes@@@Z ENDP ; CvPlayerTechs::IsResearchingTech
_TEXT	ENDS
PUBLIC	?SetResearchingTech@CvPlayerTechs@@QAEXW4TechTypes@@_N@Z ; CvPlayerTechs::SetResearchingTech
; Function compile flags: /Odtp
;	COMDAT ?SetResearchingTech@CvPlayerTechs@@QAEXW4TechTypes@@_N@Z
_TEXT	SEGMENT
_this$ = -4						; size = 4
_eIndex$ = 8						; size = 4
_bNewValue$ = 12					; size = 1
?SetResearchingTech@CvPlayerTechs@@QAEXW4TechTypes@@_N@Z PROC ; CvPlayerTechs::SetResearchingTech, COMDAT
; _this$ = ecx

; 952  : {

	push	ebp
	mov	ebp, esp
	push	ecx
	mov	DWORD PTR _this$[ebp], ecx

; 953  : 	CvAssertMsg(eIndex >= 0, "eIndex is expected to be non-negative (invalid Index)");
; 954  : 	CvAssertMsg(eIndex < GC.getNumTechInfos(), "eIndex is expected to be within maximum bounds (invalid Index)");
; 955  : 
; 956  : 	if(m_pabResearchingTech[eIndex] != bNewValue)

	mov	eax, DWORD PTR _this$[ebp]
	mov	ecx, DWORD PTR [eax+12]
	mov	edx, DWORD PTR _eIndex$[ebp]
	movzx	eax, BYTE PTR [ecx+edx]
	movzx	ecx, BYTE PTR _bNewValue$[ebp]
	cmp	eax, ecx
	je	SHORT $LN2@SetResearc

; 957  : 	{
; 958  : 		m_pabResearchingTech[eIndex] = bNewValue;

	mov	edx, DWORD PTR _this$[ebp]
	mov	eax, DWORD PTR [edx+12]
	mov	ecx, DWORD PTR _eIndex$[ebp]
	mov	dl, BYTE PTR _bNewValue$[ebp]
	mov	BYTE PTR [eax+ecx], dl
$LN2@SetResearc:

; 959  : 	}
; 960  : }

	mov	esp, ebp
	pop	ebp
	ret	8
?SetResearchingTech@CvPlayerTechs@@QAEXW4TechTypes@@_N@Z ENDP ; CvPlayerTechs::SetResearchingTech
_TEXT	ENDS
PUBLIC	?SetCivTechPriority@CvPlayerTechs@@QAEXW4TechTypes@@H@Z ; CvPlayerTechs::SetCivTechPriority
; Function compile flags: /Odtp
;	COMDAT ?SetCivTechPriority@CvPlayerTechs@@QAEXW4TechTypes@@H@Z
_TEXT	SEGMENT
_this$ = -4						; size = 4
_eIndex$ = 8						; size = 4
_iNewValue$ = 12					; size = 4
?SetCivTechPriority@CvPlayerTechs@@QAEXW4TechTypes@@H@Z PROC ; CvPlayerTechs::SetCivTechPriority, COMDAT
; _this$ = ecx

; 964  : {

	push	ebp
	mov	ebp, esp
	push	ecx
	mov	DWORD PTR _this$[ebp], ecx

; 965  : 	CvAssertMsg(eIndex >= 0, "eIndex is expected to be non-negative (invalid Index)");
; 966  : 	CvAssertMsg(eIndex < GC.getNumTechInfos(), "eIndex is expected to be within maximum bounds (invalid Index)");
; 967  : 
; 968  : 	m_piCivTechPriority[eIndex] = iNewValue;

	mov	eax, DWORD PTR _this$[ebp]
	mov	ecx, DWORD PTR [eax+16]
	mov	edx, DWORD PTR _eIndex$[ebp]
	mov	eax, DWORD PTR _iNewValue$[ebp]
	mov	DWORD PTR [ecx+edx*4], eax

; 969  : }

	mov	esp, ebp
	pop	ebp
	ret	8
?SetCivTechPriority@CvPlayerTechs@@QAEXW4TechTypes@@H@Z ENDP ; CvPlayerTechs::SetCivTechPriority
_TEXT	ENDS
PUBLIC	?GetCivTechPriority@CvPlayerTechs@@QBEHW4TechTypes@@@Z ; CvPlayerTechs::GetCivTechPriority
; Function compile flags: /Odtp
;	COMDAT ?GetCivTechPriority@CvPlayerTechs@@QBEHW4TechTypes@@@Z
_TEXT	SEGMENT
_this$ = -4						; size = 4
_eIndex$ = 8						; size = 4
?GetCivTechPriority@CvPlayerTechs@@QBEHW4TechTypes@@@Z PROC ; CvPlayerTechs::GetCivTechPriority, COMDAT
; _this$ = ecx

; 973  : {

	push	ebp
	mov	ebp, esp
	push	ecx
	mov	DWORD PTR _this$[ebp], ecx

; 974  : 	CvAssertMsg(eIndex >= 0, "eIndex is expected to be non-negative (invalid Index)");
; 975  : 	CvAssertMsg(eIndex < GC.getNumTechInfos(), "eIndex is expected to be within maximum bounds (invalid Index)");
; 976  : 	return m_piCivTechPriority[eIndex];

	mov	eax, DWORD PTR _this$[ebp]
	mov	ecx, DWORD PTR [eax+16]
	mov	edx, DWORD PTR _eIndex$[ebp]
	mov	eax, DWORD PTR [ecx+edx*4]

; 977  : }

	mov	esp, ebp
	pop	ebp
	ret	4
?GetCivTechPriority@CvPlayerTechs@@QBEHW4TechTypes@@@Z ENDP ; CvPlayerTechs::GetCivTechPriority
_TEXT	ENDS
PUBLIC	?SetLocaleTechPriority@CvPlayerTechs@@QAEXW4TechTypes@@H@Z ; CvPlayerTechs::SetLocaleTechPriority
; Function compile flags: /Odtp
;	COMDAT ?SetLocaleTechPriority@CvPlayerTechs@@QAEXW4TechTypes@@H@Z
_TEXT	SEGMENT
_this$ = -4						; size = 4
_eIndex$ = 8						; size = 4
_iNewValue$ = 12					; size = 4
?SetLocaleTechPriority@CvPlayerTechs@@QAEXW4TechTypes@@H@Z PROC ; CvPlayerTechs::SetLocaleTechPriority, COMDAT
; _this$ = ecx

; 981  : {

	push	ebp
	mov	ebp, esp
	push	ecx
	mov	DWORD PTR _this$[ebp], ecx

; 982  : 	CvAssertMsg(eIndex >= 0, "eIndex is expected to be non-negative (invalid Index)");
; 983  : 	CvAssertMsg(eIndex < GC.getNumTechInfos(), "eIndex is expected to be within maximum bounds (invalid Index)");
; 984  : 
; 985  : 	m_piLocaleTechPriority[eIndex] = iNewValue;

	mov	eax, DWORD PTR _this$[ebp]
	mov	ecx, DWORD PTR [eax+20]
	mov	edx, DWORD PTR _eIndex$[ebp]
	mov	eax, DWORD PTR _iNewValue$[ebp]
	mov	DWORD PTR [ecx+edx*4], eax

; 986  : }

	mov	esp, ebp
	pop	ebp
	ret	8
?SetLocaleTechPriority@CvPlayerTechs@@QAEXW4TechTypes@@H@Z ENDP ; CvPlayerTechs::SetLocaleTechPriority
_TEXT	ENDS
PUBLIC	?GetLocaleTechPriority@CvPlayerTechs@@QBEHW4TechTypes@@@Z ; CvPlayerTechs::GetLocaleTechPriority
; Function compile flags: /Odtp
;	COMDAT ?GetLocaleTechPriority@CvPlayerTechs@@QBEHW4TechTypes@@@Z
_TEXT	SEGMENT
_this$ = -4						; size = 4
_eIndex$ = 8						; size = 4
?GetLocaleTechPriority@CvPlayerTechs@@QBEHW4TechTypes@@@Z PROC ; CvPlayerTechs::GetLocaleTechPriority, COMDAT
; _this$ = ecx

; 990  : {

	push	ebp
	mov	ebp, esp
	push	ecx
	mov	DWORD PTR _this$[ebp], ecx

; 991  : 	CvAssertMsg(eIndex >= 0, "eIndex is expected to be non-negative (invalid Index)");
; 992  : 	CvAssertMsg(eIndex < GC.getNumTechInfos(), "eIndex is expected to be within maximum bounds (invalid Index)");
; 993  : 	return m_piLocaleTechPriority[eIndex];

	mov	eax, DWORD PTR _this$[ebp]
	mov	ecx, DWORD PTR [eax+20]
	mov	edx, DWORD PTR _eIndex$[ebp]
	mov	eax, DWORD PTR [ecx+edx*4]

; 994  : }

	mov	esp, ebp
	pop	ebp
	ret	4
?GetLocaleTechPriority@CvPlayerTechs@@QBEHW4TechTypes@@@Z ENDP ; CvPlayerTechs::GetLocaleTechPriority
_TEXT	ENDS
PUBLIC	?GetLocaleTechResource@CvPlayerTechs@@QBE?AW4ResourceTypes@@W4TechTypes@@@Z ; CvPlayerTechs::GetLocaleTechResource
; Function compile flags: /Odtp
;	COMDAT ?GetLocaleTechResource@CvPlayerTechs@@QBE?AW4ResourceTypes@@W4TechTypes@@@Z
_TEXT	SEGMENT
_this$ = -4						; size = 4
_eIndex$ = 8						; size = 4
?GetLocaleTechResource@CvPlayerTechs@@QBE?AW4ResourceTypes@@W4TechTypes@@@Z PROC ; CvPlayerTechs::GetLocaleTechResource, COMDAT
; _this$ = ecx

; 997  : {

	push	ebp
	mov	ebp, esp
	push	ecx
	mov	DWORD PTR _this$[ebp], ecx

; 998  : 	CvAssertMsg(eIndex >= 0, "eIndex is expected to be non-negative (invalid Index)");
; 999  : 	CvAssertMsg(eIndex < GC.getNumTechInfos(), "eIndex is expected to be within maximum bounds (invalid Index)");
; 1000 : 
; 1001 : 	return m_peLocaleTechResources[eIndex];

	mov	eax, DWORD PTR _this$[ebp]
	mov	ecx, DWORD PTR [eax+24]
	mov	edx, DWORD PTR _eIndex$[ebp]
	mov	eax, DWORD PTR [ecx+edx*4]

; 1002 : }

	mov	esp, ebp
	pop	ebp
	ret	4
?GetLocaleTechResource@CvPlayerTechs@@QBE?AW4ResourceTypes@@W4TechTypes@@@Z ENDP ; CvPlayerTechs::GetLocaleTechResource
_TEXT	ENDS
PUBLIC	?GetCivTechUniqueUnit@CvPlayerTechs@@QBE?AW4UnitTypes@@W4TechTypes@@@Z ; CvPlayerTechs::GetCivTechUniqueUnit
; Function compile flags: /Odtp
;	COMDAT ?GetCivTechUniqueUnit@CvPlayerTechs@@QBE?AW4UnitTypes@@W4TechTypes@@@Z
_TEXT	SEGMENT
_this$ = -4						; size = 4
_eIndex$ = 8						; size = 4
?GetCivTechUniqueUnit@CvPlayerTechs@@QBE?AW4UnitTypes@@W4TechTypes@@@Z PROC ; CvPlayerTechs::GetCivTechUniqueUnit, COMDAT
; _this$ = ecx

; 1005 : {

	push	ebp
	mov	ebp, esp
	push	ecx
	mov	DWORD PTR _this$[ebp], ecx

; 1006 : 	CvAssertMsg(eIndex >= 0, "eIndex is expected to be non-negative (invalid Index)");
; 1007 : 	CvAssertMsg(eIndex < GC.getNumTechInfos(), "eIndex is expected to be within maximum bounds (invalid Index)");
; 1008 : 
; 1009 : 	return m_peCivTechUniqueUnits[eIndex];

	mov	eax, DWORD PTR _this$[ebp]
	mov	ecx, DWORD PTR [eax+28]
	mov	edx, DWORD PTR _eIndex$[ebp]
	mov	eax, DWORD PTR [ecx+edx*4]

; 1010 : }

	mov	esp, ebp
	pop	ebp
	ret	4
?GetCivTechUniqueUnit@CvPlayerTechs@@QBE?AW4UnitTypes@@W4TechTypes@@@Z ENDP ; CvPlayerTechs::GetCivTechUniqueUnit
_TEXT	ENDS
PUBLIC	?GetCivTechUniqueBuilding@CvPlayerTechs@@QBE?AW4BuildingTypes@@W4TechTypes@@@Z ; CvPlayerTechs::GetCivTechUniqueBuilding
; Function compile flags: /Odtp
;	COMDAT ?GetCivTechUniqueBuilding@CvPlayerTechs@@QBE?AW4BuildingTypes@@W4TechTypes@@@Z
_TEXT	SEGMENT
_this$ = -4						; size = 4
_eIndex$ = 8						; size = 4
?GetCivTechUniqueBuilding@CvPlayerTechs@@QBE?AW4BuildingTypes@@W4TechTypes@@@Z PROC ; CvPlayerTechs::GetCivTechUniqueBuilding, COMDAT
; _this$ = ecx

; 1013 : {

	push	ebp
	mov	ebp, esp
	push	ecx
	mov	DWORD PTR _this$[ebp], ecx

; 1014 : 	CvAssertMsg(eIndex >= 0, "eIndex is expected to be non-negative (invalid Index)");
; 1015 : 	CvAssertMsg(eIndex < GC.getNumTechInfos(), "eIndex is expected to be within maximum bounds (invalid Index)");
; 1016 : 
; 1017 : 	return m_peCivTechUniqueBuildings[eIndex];

	mov	eax, DWORD PTR _this$[ebp]
	mov	ecx, DWORD PTR [eax+32]
	mov	edx, DWORD PTR _eIndex$[ebp]
	mov	eax, DWORD PTR [ecx+edx*4]

; 1018 : }

	mov	esp, ebp
	pop	ebp
	ret	4
?GetCivTechUniqueBuilding@CvPlayerTechs@@QBE?AW4BuildingTypes@@W4TechTypes@@@Z ENDP ; CvPlayerTechs::GetCivTechUniqueBuilding
_TEXT	ENDS
PUBLIC	?GetCivTechUniqueImprovement@CvPlayerTechs@@QBE?AW4ImprovementTypes@@W4TechTypes@@@Z ; CvPlayerTechs::GetCivTechUniqueImprovement
; Function compile flags: /Odtp
;	COMDAT ?GetCivTechUniqueImprovement@CvPlayerTechs@@QBE?AW4ImprovementTypes@@W4TechTypes@@@Z
_TEXT	SEGMENT
_this$ = -4						; size = 4
_eIndex$ = 8						; size = 4
?GetCivTechUniqueImprovement@CvPlayerTechs@@QBE?AW4ImprovementTypes@@W4TechTypes@@@Z PROC ; CvPlayerTechs::GetCivTechUniqueImprovement, COMDAT
; _this$ = ecx

; 1021 : {

	push	ebp
	mov	ebp, esp
	push	ecx
	mov	DWORD PTR _this$[ebp], ecx

; 1022 : 	CvAssertMsg(eIndex >= 0, "eIndex is expected to be non-negative (invalid Index)");
; 1023 : 	CvAssertMsg(eIndex < GC.getNumTechInfos(), "eIndex is expected to be within maximum bounds (invalid Index)");
; 1024 : 
; 1025 : 	return m_peCivTechUniqueImprovements[eIndex];

	mov	eax, DWORD PTR _this$[ebp]
	mov	ecx, DWORD PTR [eax+36]
	mov	edx, DWORD PTR _eIndex$[ebp]
	mov	eax, DWORD PTR [ecx+edx*4]

; 1026 : }

	mov	esp, ebp
	pop	ebp
	ret	4
?GetCivTechUniqueImprovement@CvPlayerTechs@@QBE?AW4ImprovementTypes@@W4TechTypes@@@Z ENDP ; CvPlayerTechs::GetCivTechUniqueImprovement
_TEXT	ENDS
PUBLIC	?plotDistance@@YAHHHHH@Z			; plotDistance
EXTRN	?canBuild@CvPlayer@@QBE_NPBVCvPlot@@W4BuildTypes@@_N222@Z:PROC ; CvPlayer::canBuild
EXTRN	?IsImprovementResourceTrade@CvImprovementEntry@@QBE_NH@Z:PROC ; CvImprovementEntry::IsImprovementResourceTrade
EXTRN	?getResourceType@CvPlot@@QBE?AW4ResourceTypes@@W4TeamTypes@@@Z:PROC ; CvPlot::getResourceType
EXTRN	?plotCity@@YAPAVCvPlot@@HHH@Z:PROC		; plotCity
EXTRN	?nextCity@CvPlayer@@QAEPAVCvCity@@PAH_N@Z:PROC	; CvPlayer::nextCity
EXTRN	?firstCity@CvPlayer@@QAEPAVCvCity@@PAH_N@Z:PROC	; CvPlayer::firstCity
; Function compile flags: /Odtp
;	COMDAT ?SetLocalePriorities@CvPlayerTechs@@QAEXXZ
_TEXT	SEGMENT
_this$ = -172						; size = 4
$T227231 = -168						; size = 4
$T227230 = -164						; size = 4
$T227215 = -160						; size = 4
$T227206 = -156						; size = 4
$T227141 = -84						; size = 4
$T227137 = -80						; size = 4
$T227133 = -76						; size = 4
$T227124 = -72						; size = 4
$T227115 = -68						; size = 4
$T227106 = -64						; size = 4
_iTech$223738 = -60					; size = 4
_pkImprovementInfo$223733 = -56				; size = 4
_eImprovement$223730 = -52				; size = 4
_eBuild$223726 = -48					; size = 4
_pkBuildInfo$223728 = -44				; size = 4
_eCorrectImprovement$223720 = -40			; size = 4
_eCorrectBuild$223721 = -36				; size = 4
_eResource$223718 = -32					; size = 4
_iBuildIndex$223722 = -28				; size = 4
_iDistance$223714 = -24					; size = 4
_pLoopPlot$223712 = -20					; size = 4
_iPlotLoop$223708 = -16					; size = 4
_pCity$ = -12						; size = 4
_iI$ = -8						; size = 4
_iLoop$ = -4						; size = 4
?SetLocalePriorities@CvPlayerTechs@@QAEXXZ PROC		; CvPlayerTechs::SetLocalePriorities, COMDAT
; _this$ = ecx

; 1030 : {

	push	ebp
	mov	ebp, esp
	sub	esp, 172				; 000000acH
	mov	DWORD PTR _this$[ebp], ecx

; 1031 : 	int iLoop;
; 1032 : 	CvCity* pCity;
; 1033 : #ifdef AUI_WARNING_FIXES
; 1034 : 	uint iI;
; 1035 : #else
; 1036 : 	int iI;
; 1037 : #endif
; 1038 : 
; 1039 : 	for(iI = 0; iI < m_pTechs->GetNumTechs(); iI++)

	mov	DWORD PTR _iI$[ebp], 0
	jmp	SHORT $LN24@SetLocaleP
$LN23@SetLocaleP:
	mov	eax, DWORD PTR _iI$[ebp]
	add	eax, 1
	mov	DWORD PTR _iI$[ebp], eax
$LN24@SetLocaleP:
	mov	ecx, DWORD PTR _this$[ebp]
	mov	ecx, DWORD PTR [ecx+40]
	call	?GetNumTechs@CvTechXMLEntries@@QAEHXZ	; CvTechXMLEntries::GetNumTechs
	cmp	DWORD PTR _iI$[ebp], eax
	jge	SHORT $LN22@SetLocaleP

; 1040 : 	{
; 1041 : 		m_piLocaleTechPriority[iI] = 1;

	mov	edx, DWORD PTR _this$[ebp]
	mov	eax, DWORD PTR [edx+20]
	mov	ecx, DWORD PTR _iI$[ebp]
	mov	DWORD PTR [eax+ecx*4], 1

; 1042 : 		m_peLocaleTechResources[iI] = NO_RESOURCE;

	mov	edx, DWORD PTR _this$[ebp]
	mov	eax, DWORD PTR [edx+24]
	mov	ecx, DWORD PTR _iI$[ebp]
	mov	DWORD PTR [eax+ecx*4], -1

; 1043 : 	}

	jmp	SHORT $LN23@SetLocaleP
$LN22@SetLocaleP:

; 1044 : 
; 1045 : 	// Loop through all our cities
; 1046 : 	for(pCity = m_pPlayer->firstCity(&iLoop); pCity != NULL; pCity = m_pPlayer->nextCity(&iLoop))

	push	0
	lea	edx, DWORD PTR _iLoop$[ebp]
	push	edx
	mov	eax, DWORD PTR _this$[ebp]
	mov	ecx, DWORD PTR [eax+44]
	call	?firstCity@CvPlayer@@QAEPAVCvCity@@PAH_N@Z ; CvPlayer::firstCity
	mov	DWORD PTR _pCity$[ebp], eax
	jmp	SHORT $LN21@SetLocaleP
$LN20@SetLocaleP:
	push	0
	lea	ecx, DWORD PTR _iLoop$[ebp]
	push	ecx
	mov	edx, DWORD PTR _this$[ebp]
	mov	ecx, DWORD PTR [edx+44]
	call	?nextCity@CvPlayer@@QAEPAVCvCity@@PAH_N@Z ; CvPlayer::nextCity
	mov	DWORD PTR _pCity$[ebp], eax
$LN21@SetLocaleP:
	cmp	DWORD PTR _pCity$[ebp], 0
	je	$LN25@SetLocaleP

; 1047 : 	{
; 1048 : 		// Look at all Tiles this City could potentially work to see if there are any non-water resources that could be improved
; 1049 : 		for(int iPlotLoop = 0; iPlotLoop < NUM_CITY_PLOTS; iPlotLoop++)

	mov	DWORD PTR _iPlotLoop$223708[ebp], 0
	jmp	SHORT $LN18@SetLocaleP
$LN17@SetLocaleP:
	mov	eax, DWORD PTR _iPlotLoop$223708[ebp]
	add	eax, 1
	mov	DWORD PTR _iPlotLoop$223708[ebp], eax
$LN18@SetLocaleP:
	cmp	DWORD PTR _iPlotLoop$223708[ebp], 37	; 00000025H
	jge	$LN16@SetLocaleP

; 1050 : 		{
; 1051 : 			CvPlot* pLoopPlot = plotCity(pCity->getX(), pCity->getY(), iPlotLoop);

	mov	ecx, DWORD PTR _pCity$[ebp]
	mov	edx, DWORD PTR [ecx+108]
	mov	DWORD PTR $T227106[ebp], edx
	mov	eax, DWORD PTR _pCity$[ebp]
	mov	ecx, DWORD PTR [eax+96]
	mov	DWORD PTR $T227115[ebp], ecx
	mov	edx, DWORD PTR _iPlotLoop$223708[ebp]
	push	edx
	mov	eax, DWORD PTR $T227106[ebp]
	push	eax
	mov	ecx, DWORD PTR $T227115[ebp]
	push	ecx
	call	?plotCity@@YAPAVCvPlot@@HHH@Z		; plotCity
	add	esp, 12					; 0000000cH
	mov	DWORD PTR _pLoopPlot$223712[ebp], eax

; 1052 : 
; 1053 : 			if(pLoopPlot != NULL)

	cmp	DWORD PTR _pLoopPlot$223712[ebp], 0
	je	$LN15@SetLocaleP

; 1054 : 			{
; 1055 : 				int iDistance = plotDistance(pLoopPlot->getX(), pLoopPlot->getY(), pCity->getX(), pCity->getY());

	mov	edx, DWORD PTR _pCity$[ebp]
	mov	eax, DWORD PTR [edx+108]
	mov	DWORD PTR $T227124[ebp], eax
	mov	ecx, DWORD PTR _pCity$[ebp]
	mov	edx, DWORD PTR [ecx+96]
	mov	DWORD PTR $T227133[ebp], edx
	mov	eax, DWORD PTR _pLoopPlot$223712[ebp]
	movsx	ecx, WORD PTR [eax+2]
	mov	DWORD PTR $T227137[ebp], ecx
	mov	edx, DWORD PTR _pLoopPlot$223712[ebp]
	movsx	eax, WORD PTR [edx]
	mov	DWORD PTR $T227141[ebp], eax
	mov	ecx, DWORD PTR $T227124[ebp]
	push	ecx
	mov	edx, DWORD PTR $T227133[ebp]
	push	edx
	mov	eax, DWORD PTR $T227137[ebp]
	push	eax
	mov	ecx, DWORD PTR $T227141[ebp]
	push	ecx
	call	?plotDistance@@YAHHHHH@Z		; plotDistance
	add	esp, 16					; 00000010H
	mov	DWORD PTR _iDistance$223714[ebp], eax

; 1056 : 
; 1057 : 				if(pLoopPlot->getOwner() == pCity->getOwner() || (iDistance <= 2 && pLoopPlot->getOwner() == NO_PLAYER))

	mov	edx, DWORD PTR _pLoopPlot$223712[ebp]
	movsx	eax, BYTE PTR [edx+4]
	mov	DWORD PTR $T227206[ebp], eax
	mov	ecx, DWORD PTR _pCity$[ebp]
	mov	edx, DWORD PTR [ecx+84]
	mov	DWORD PTR $T227215[ebp], edx
	mov	eax, DWORD PTR $T227206[ebp]
	cmp	eax, DWORD PTR $T227215[ebp]
	je	SHORT $LN95@SetLocaleP
	cmp	DWORD PTR _iDistance$223714[ebp], 2
	jg	$LN15@SetLocaleP
	mov	ecx, DWORD PTR _pLoopPlot$223712[ebp]
	movsx	edx, BYTE PTR [ecx+4]
	cmp	edx, -1
	jne	$LN15@SetLocaleP

; 1058 : 				{
; 1059 : 					if(!pLoopPlot->isWater())

$LN95@SetLocaleP:
	mov	eax, DWORD PTR _pLoopPlot$223712[ebp]
	movsx	ecx, BYTE PTR [eax+5]
	xor	edx, edx
	cmp	ecx, 3
	sete	dl
	movzx	eax, dl
	test	eax, eax
	jne	$LN15@SetLocaleP

; 1060 : 					{
; 1061 : 						ResourceTypes eResource = pLoopPlot->getResourceType(m_pPlayer->getTeam());

	mov	ecx, DWORD PTR _this$[ebp]
	mov	edx, DWORD PTR [ecx+44]
	mov	DWORD PTR $T227230[ebp], edx
	mov	eax, DWORD PTR $T227230[ebp]
	mov	ecx, DWORD PTR [eax+44]
	push	ecx
	call	?teamType@CvPreGame@@YA?AW4TeamTypes@@W4PlayerTypes@@@Z ; CvPreGame::teamType
	add	esp, 4
	mov	DWORD PTR $T227231[ebp], eax
	mov	edx, DWORD PTR $T227231[ebp]
	push	edx
	mov	ecx, DWORD PTR _pLoopPlot$223712[ebp]
	call	?getResourceType@CvPlot@@QBE?AW4ResourceTypes@@W4TeamTypes@@@Z ; CvPlot::getResourceType
	mov	DWORD PTR _eResource$223718[ebp], eax

; 1062 : 						if(eResource == NO_RESOURCE)

	cmp	DWORD PTR _eResource$223718[ebp], -1
	jne	SHORT $LN11@SetLocaleP

; 1063 : 						{
; 1064 : 							continue;

	jmp	$LN17@SetLocaleP
$LN11@SetLocaleP:

; 1065 : 						}
; 1066 : 
; 1067 : 						// Loop through the build types to find one that we can use
; 1068 : 						ImprovementTypes eCorrectImprovement = NO_IMPROVEMENT;

	mov	DWORD PTR _eCorrectImprovement$223720[ebp], -1

; 1069 : 						BuildTypes eCorrectBuild = NO_BUILD;

	mov	DWORD PTR _eCorrectBuild$223721[ebp], -1

; 1070 : #ifdef AUI_WARNING_FIXES
; 1071 : 						uint iBuildIndex;
; 1072 : #else
; 1073 : 						int iBuildIndex;
; 1074 : #endif
; 1075 : 						for(iBuildIndex = 0; iBuildIndex < GC.getNumBuildInfos(); iBuildIndex++)

	mov	DWORD PTR _iBuildIndex$223722[ebp], 0
	jmp	SHORT $LN10@SetLocaleP
$LN9@SetLocaleP:
	mov	eax, DWORD PTR _iBuildIndex$223722[ebp]
	add	eax, 1
	mov	DWORD PTR _iBuildIndex$223722[ebp], eax
$LN10@SetLocaleP:
	mov	ecx, OFFSET ?gGlobals@@3VCvGlobals@@A	; gGlobals
	call	?getNumBuildInfos@CvGlobals@@QAEHXZ	; CvGlobals::getNumBuildInfos
	cmp	DWORD PTR _iBuildIndex$223722[ebp], eax
	jge	SHORT $LN8@SetLocaleP

; 1076 : 						{
; 1077 : 							const BuildTypes eBuild = static_cast<BuildTypes>(iBuildIndex);

	mov	ecx, DWORD PTR _iBuildIndex$223722[ebp]
	mov	DWORD PTR _eBuild$223726[ebp], ecx

; 1078 : 							CvBuildInfo* pkBuildInfo = GC.getBuildInfo(eBuild);

	mov	edx, DWORD PTR _eBuild$223726[ebp]
	push	edx
	mov	ecx, OFFSET ?gGlobals@@3VCvGlobals@@A	; gGlobals
	call	?getBuildInfo@CvGlobals@@QAEPAVCvBuildInfo@@W4BuildTypes@@@Z ; CvGlobals::getBuildInfo
	mov	DWORD PTR _pkBuildInfo$223728[ebp], eax

; 1079 : 							if(pkBuildInfo)

	cmp	DWORD PTR _pkBuildInfo$223728[ebp], 0
	je	SHORT $LN7@SetLocaleP

; 1080 : 							{
; 1081 : 								// If this is the improvement we're looking for
; 1082 : 								const ImprovementTypes eImprovement = (ImprovementTypes)pkBuildInfo->getImprovement();

	mov	ecx, DWORD PTR _pkBuildInfo$223728[ebp]
	call	?getImprovement@CvBuildInfo@@QBEHXZ	; CvBuildInfo::getImprovement
	mov	DWORD PTR _eImprovement$223730[ebp], eax

; 1083 : 								if(eImprovement != NO_IMPROVEMENT)

	cmp	DWORD PTR _eImprovement$223730[ebp], -1
	je	SHORT $LN7@SetLocaleP

; 1084 : 								{
; 1085 : 									CvImprovementEntry* pkImprovementInfo = GC.getImprovementInfo(eImprovement);

	mov	eax, DWORD PTR _eImprovement$223730[ebp]
	push	eax
	mov	ecx, OFFSET ?gGlobals@@3VCvGlobals@@A	; gGlobals
	call	?getImprovementInfo@CvGlobals@@QAEPAVCvImprovementEntry@@W4ImprovementTypes@@@Z ; CvGlobals::getImprovementInfo
	mov	DWORD PTR _pkImprovementInfo$223733[ebp], eax

; 1086 : 									if(pkImprovementInfo && pkImprovementInfo->IsImprovementResourceTrade(eResource))

	cmp	DWORD PTR _pkImprovementInfo$223733[ebp], 0
	je	SHORT $LN7@SetLocaleP
	mov	ecx, DWORD PTR _eResource$223718[ebp]
	push	ecx
	mov	ecx, DWORD PTR _pkImprovementInfo$223733[ebp]
	call	?IsImprovementResourceTrade@CvImprovementEntry@@QBE_NH@Z ; CvImprovementEntry::IsImprovementResourceTrade
	movzx	edx, al
	test	edx, edx
	je	SHORT $LN7@SetLocaleP

; 1087 : 									{
; 1088 : 										eCorrectBuild = eBuild;

	mov	eax, DWORD PTR _eBuild$223726[ebp]
	mov	DWORD PTR _eCorrectBuild$223721[ebp], eax

; 1089 : 										eCorrectImprovement = eImprovement;

	mov	ecx, DWORD PTR _eImprovement$223730[ebp]
	mov	DWORD PTR _eCorrectImprovement$223720[ebp], ecx

; 1090 : 										break;

	jmp	SHORT $LN8@SetLocaleP
$LN7@SetLocaleP:

; 1091 : 									}
; 1092 : 								}
; 1093 : 							}
; 1094 : 						}

	jmp	SHORT $LN9@SetLocaleP
$LN8@SetLocaleP:

; 1095 : 
; 1096 : 						// No valid build found
; 1097 : 						if(eCorrectBuild == NO_BUILD || eCorrectImprovement == NO_IMPROVEMENT)

	cmp	DWORD PTR _eCorrectBuild$223721[ebp], -1
	je	SHORT $LN3@SetLocaleP
	cmp	DWORD PTR _eCorrectImprovement$223720[ebp], -1
	jne	SHORT $LN4@SetLocaleP
$LN3@SetLocaleP:

; 1098 : 						{
; 1099 : 							continue;

	jmp	$LN17@SetLocaleP
$LN4@SetLocaleP:

; 1100 : 						}
; 1101 : 
; 1102 : 
; 1103 : 						// Looking for cases where we can't build the improvement for the resource
; 1104 : 						if(!m_pPlayer->canBuild(pLoopPlot, eCorrectBuild, false, false))

	push	1
	push	1
	push	0
	push	0
	mov	edx, DWORD PTR _eCorrectBuild$223721[ebp]
	push	edx
	mov	eax, DWORD PTR _pLoopPlot$223712[ebp]
	push	eax
	mov	ecx, DWORD PTR _this$[ebp]
	mov	ecx, DWORD PTR [ecx+44]
	call	?canBuild@CvPlayer@@QBE_NPBVCvPlot@@W4BuildTypes@@_N222@Z ; CvPlayer::canBuild
	movzx	edx, al
	test	edx, edx
	jne	SHORT $LN15@SetLocaleP

; 1105 : 						{
; 1106 : 							// Find the tech associated with this build and increment its multiplier
; 1107 : #ifdef AUI_WARNING_FIXES
; 1108 : 							uint iTech = (uint)GC.getBuildInfo(eCorrectBuild)->getTechPrereq();
; 1109 : 							CvAssert(iTech < m_pTechs->GetNumTechs());		// Just assert on a value off the top end, a -1 is ok to just skip silently
; 1110 : 							if (iTech < m_pTechs->GetNumTechs())
; 1111 : #else
; 1112 : 							int iTech = GC.getBuildInfo(eCorrectBuild)->getTechPrereq();

	mov	eax, DWORD PTR _eCorrectBuild$223721[ebp]
	push	eax
	mov	ecx, OFFSET ?gGlobals@@3VCvGlobals@@A	; gGlobals
	call	?getBuildInfo@CvGlobals@@QAEPAVCvBuildInfo@@W4BuildTypes@@@Z ; CvGlobals::getBuildInfo
	mov	ecx, eax
	call	?getTechPrereq@CvBuildInfo@@QBEHXZ	; CvBuildInfo::getTechPrereq
	mov	DWORD PTR _iTech$223738[ebp], eax

; 1113 : 							CvAssert(iTech < m_pTechs->GetNumTechs());		// Just assert on a value off the top end, a -1 is ok to just skip silently
; 1114 : 							if (iTech >= 0 && iTech < m_pTechs->GetNumTechs())

	cmp	DWORD PTR _iTech$223738[ebp], 0
	jl	SHORT $LN15@SetLocaleP
	mov	ecx, DWORD PTR _this$[ebp]
	mov	ecx, DWORD PTR [ecx+40]
	call	?GetNumTechs@CvTechXMLEntries@@QAEHXZ	; CvTechXMLEntries::GetNumTechs
	cmp	DWORD PTR _iTech$223738[ebp], eax
	jge	SHORT $LN15@SetLocaleP

; 1115 : #endif
; 1116 : 							{
; 1117 : 								m_piLocaleTechPriority[iTech]++;

	mov	edx, DWORD PTR _this$[ebp]
	mov	eax, DWORD PTR [edx+20]
	mov	ecx, DWORD PTR _iTech$223738[ebp]
	mov	edx, DWORD PTR [eax+ecx*4]
	add	edx, 1
	mov	eax, DWORD PTR _this$[ebp]
	mov	ecx, DWORD PTR [eax+20]
	mov	eax, DWORD PTR _iTech$223738[ebp]
	mov	DWORD PTR [ecx+eax*4], edx

; 1118 : 								m_peLocaleTechResources[iTech] = eResource;

	mov	ecx, DWORD PTR _this$[ebp]
	mov	edx, DWORD PTR [ecx+24]
	mov	eax, DWORD PTR _iTech$223738[ebp]
	mov	ecx, DWORD PTR _eResource$223718[ebp]
	mov	DWORD PTR [edx+eax*4], ecx
$LN15@SetLocaleP:

; 1119 : 							}
; 1120 : 						}
; 1121 : 					}
; 1122 : 				}
; 1123 : 			}
; 1124 : 		}

	jmp	$LN17@SetLocaleP
$LN16@SetLocaleP:

; 1125 : 	}

	jmp	$LN20@SetLocaleP
$LN25@SetLocaleP:

; 1126 : }

	mov	esp, ebp
	pop	ebp
	ret	0
?SetLocalePriorities@CvPlayerTechs@@QAEXXZ ENDP		; CvPlayerTechs::SetLocalePriorities
_TEXT	ENDS
PUBLIC	?dyWrap@@YAHH@Z					; dyWrap
PUBLIC	?dxWrap@@YAHH@Z					; dxWrap
; Function compile flags: /Odtp
; File d:\sources\lekmod_git\checkout\lekmod_dll\cvgamecoredll_expansion2\cvgamecoreutils.h
;	COMDAT ?plotDistance@@YAHHHHH@Z
_TEXT	SEGMENT
tv157 = -92						; size = 4
tv138 = -88						; size = 4
tv135 = -84						; size = 4
$T227315 = -80						; size = 4
$T227288 = -60						; size = 4
_iDY$ = -24						; size = 4
_iDX$ = -20						; size = 4
_iWrappedDX$ = -16					; size = 4
_iHX1$ = -12						; size = 4
_iHX2$ = -8						; size = 4
_iWrappedDY$ = -4					; size = 4
_iX1$ = 8						; size = 4
_iY1$ = 12						; size = 4
_iX2$ = 16						; size = 4
_iY2$ = 20						; size = 4
?plotDistance@@YAHHHHH@Z PROC				; plotDistance, COMDAT

; 144  : {

	push	ebp
	mov	ebp, esp
	sub	esp, 92					; 0000005cH

; 145  : 	int iDX;
; 146  : 	int iWrappedDX = dxWrap(iX2 - iX1);

	mov	eax, DWORD PTR _iX2$[ebp]
	sub	eax, DWORD PTR _iX1$[ebp]
	push	eax
	call	?dxWrap@@YAHH@Z				; dxWrap
	add	esp, 4
	mov	DWORD PTR _iWrappedDX$[ebp], eax

; 147  : 	int iWrappedDY = dyWrap(iY2 - iY1);

	mov	ecx, DWORD PTR _iY2$[ebp]
	sub	ecx, DWORD PTR _iY1$[ebp]
	push	ecx
	call	?dyWrap@@YAHH@Z				; dyWrap
	add	esp, 4
	mov	DWORD PTR _iWrappedDY$[ebp], eax

; 148  : 	int iDY = abs(iWrappedDY);

	mov	eax, DWORD PTR _iWrappedDY$[ebp]
	cdq
	xor	eax, edx
	sub	eax, edx
	mov	DWORD PTR _iDY$[ebp], eax

; 149  : 
; 150  : 	// convert to hex-space coordinates - the coordinate system axes are E and NE (not orthogonal)
; 151  : 	int iHX1 = xToHexspaceX(iX1, iY1);

	cmp	DWORD PTR _iY1$[ebp], 0
	jl	SHORT $LN35@plotDistan
	mov	edx, DWORD PTR _iY1$[ebp]
	sar	edx, 1
	mov	DWORD PTR tv135[ebp], edx
	jmp	SHORT $LN33@plotDistan
$LN35@plotDistan:
	mov	eax, DWORD PTR _iY1$[ebp]
	sub	eax, 1
	cdq
	sub	eax, edx
	sar	eax, 1
	mov	DWORD PTR tv135[ebp], eax
$LN33@plotDistan:
	mov	eax, DWORD PTR _iX1$[ebp]
	sub	eax, DWORD PTR tv135[ebp]
	mov	DWORD PTR _iHX1$[ebp], eax

; 152  : 	int iHX2 = xToHexspaceX(iX1 + iWrappedDX, iY1 + iWrappedDY);

	mov	ecx, DWORD PTR _iY1$[ebp]
	add	ecx, DWORD PTR _iWrappedDY$[ebp]
	mov	DWORD PTR $T227288[ebp], ecx
	js	SHORT $LN39@plotDistan
	mov	edx, DWORD PTR $T227288[ebp]
	sar	edx, 1
	mov	DWORD PTR tv138[ebp], edx
	jmp	SHORT $LN37@plotDistan
$LN39@plotDistan:
	mov	eax, DWORD PTR $T227288[ebp]
	sub	eax, 1
	cdq
	sub	eax, edx
	sar	eax, 1
	mov	DWORD PTR tv138[ebp], eax
$LN37@plotDistan:
	mov	eax, DWORD PTR _iX1$[ebp]
	add	eax, DWORD PTR _iWrappedDX$[ebp]
	sub	eax, DWORD PTR tv138[ebp]
	mov	DWORD PTR _iHX2$[ebp], eax

; 153  : 
; 154  : 	iDX = abs(dxWrap(iHX2 - iHX1));

	mov	ecx, DWORD PTR _iHX2$[ebp]
	sub	ecx, DWORD PTR _iHX1$[ebp]
	push	ecx
	call	?dxWrap@@YAHH@Z				; dxWrap
	add	esp, 4
	cdq
	xor	eax, edx
	sub	eax, edx
	mov	DWORD PTR _iDX$[ebp], eax

; 155  : 
; 156  : #ifdef NQM_GAME_CORE_UTILS_OPTIMIZATIONS
; 157  : 	if (((iHX2 - iHX1) ^ (iWrappedDY)) >= 0)  // the signs match
; 158  : #else
; 159  : 	if((iHX2 - iHX1 >= 0) == (iWrappedDY >= 0))  // the signs match

	mov	edx, DWORD PTR _iHX2$[ebp]
	sub	edx, DWORD PTR _iHX1$[ebp]
	xor	eax, eax
	test	edx, edx
	setge	al
	xor	ecx, ecx
	cmp	DWORD PTR _iWrappedDY$[ebp], 0
	setge	cl
	cmp	eax, ecx
	jne	SHORT $LN2@plotDistan

; 160  : #endif
; 161  : 	{
; 162  : 		return iDX + iDY;

	mov	eax, DWORD PTR _iDX$[ebp]
	add	eax, DWORD PTR _iDY$[ebp]
	jmp	SHORT $LN3@plotDistan

; 163  : 	}
; 164  : 	else

	jmp	SHORT $LN3@plotDistan
$LN2@plotDistan:

; 165  : 	{
; 166  : #ifdef NQM_FAST_COMP
; 167  : 		return (MAX(iDX, iDY));
; 168  : #else
; 169  : 		return (std::max(iDX, iDY));

	mov	edx, DWORD PTR _iDX$[ebp]
	cmp	edx, DWORD PTR _iDY$[ebp]
	jge	SHORT $LN57@plotDistan
	lea	eax, DWORD PTR _iDY$[ebp]
	mov	DWORD PTR tv157[ebp], eax
	jmp	SHORT $LN58@plotDistan
$LN57@plotDistan:
	lea	ecx, DWORD PTR _iDX$[ebp]
	mov	DWORD PTR tv157[ebp], ecx
$LN58@plotDistan:
	mov	edx, DWORD PTR tv157[ebp]
	mov	DWORD PTR $T227315[ebp], edx
	mov	eax, DWORD PTR $T227315[ebp]
	mov	eax, DWORD PTR [eax]
$LN3@plotDistan:

; 170  : #endif
; 171  : 	}
; 172  : }

	mov	esp, ebp
	pop	ebp
	ret	0
?plotDistance@@YAHHHHH@Z ENDP				; plotDistance
; Function compile flags: /Odtp
_TEXT	ENDS
;	COMDAT ?dxWrap@@YAHH@Z
_TEXT	SEGMENT
$T227338 = -16						; size = 4
$T227330 = -12						; size = 4
$T227326 = -5						; size = 1
_kMap$ = -4						; size = 4
_iDX$ = 8						; size = 4
?dxWrap@@YAHH@Z PROC					; dxWrap, COMDAT

; 73   : {

	push	ebp
	mov	ebp, esp
	sub	esp, 16					; 00000010H

; 74   : 	const CvMap& kMap = GC.getMap();

	mov	eax, DWORD PTR ?gGlobals@@3VCvGlobals@@A+52
	mov	DWORD PTR _kMap$[ebp], eax

; 75   : 	return wrapCoordDifference(iDX, kMap.getGridWidth(), kMap.isWrapX());

	mov	ecx, DWORD PTR _kMap$[ebp]
	mov	dl, BYTE PTR [ecx+4056]
	mov	BYTE PTR $T227326[ebp], dl
	mov	eax, DWORD PTR _kMap$[ebp]
	mov	ecx, DWORD PTR [eax+4020]
	mov	DWORD PTR $T227330[ebp], ecx
	movzx	edx, BYTE PTR $T227326[ebp]
	test	edx, edx
	je	SHORT $LN12@dxWrap
	mov	eax, DWORD PTR $T227330[ebp]
	shr	eax, 1
	cmp	DWORD PTR _iDX$[ebp], eax
	jle	SHORT $LN11@dxWrap
	mov	ecx, DWORD PTR _iDX$[ebp]
	sub	ecx, DWORD PTR $T227330[ebp]
	mov	DWORD PTR $T227338[ebp], ecx
	jmp	SHORT $LN13@dxWrap
	jmp	SHORT $LN12@dxWrap
$LN11@dxWrap:
	mov	edx, DWORD PTR $T227330[ebp]
	shr	edx, 1
	neg	edx
	cmp	DWORD PTR _iDX$[ebp], edx
	jge	SHORT $LN12@dxWrap
	mov	eax, DWORD PTR _iDX$[ebp]
	add	eax, DWORD PTR $T227330[ebp]
	mov	DWORD PTR $T227338[ebp], eax
	jmp	SHORT $LN13@dxWrap
$LN12@dxWrap:
	mov	ecx, DWORD PTR _iDX$[ebp]
	mov	DWORD PTR $T227338[ebp], ecx
$LN13@dxWrap:
	mov	eax, DWORD PTR $T227338[ebp]

; 76   : }

	mov	esp, ebp
	pop	ebp
	ret	0
?dxWrap@@YAHH@Z ENDP					; dxWrap
; Function compile flags: /Odtp
_TEXT	ENDS
;	COMDAT ?dyWrap@@YAHH@Z
_TEXT	SEGMENT
$T227359 = -16						; size = 4
$T227351 = -12						; size = 4
$T227347 = -5						; size = 1
_kMap$ = -4						; size = 4
_iDY$ = 8						; size = 4
?dyWrap@@YAHH@Z PROC					; dyWrap, COMDAT

; 79   : {

	push	ebp
	mov	ebp, esp
	sub	esp, 16					; 00000010H

; 80   : 	const CvMap& kMap = GC.getMap();

	mov	eax, DWORD PTR ?gGlobals@@3VCvGlobals@@A+52
	mov	DWORD PTR _kMap$[ebp], eax

; 81   : 	return wrapCoordDifference(iDY, kMap.getGridHeight(), kMap.isWrapY());

	mov	ecx, DWORD PTR _kMap$[ebp]
	mov	dl, BYTE PTR [ecx+4057]
	mov	BYTE PTR $T227347[ebp], dl
	mov	eax, DWORD PTR _kMap$[ebp]
	mov	ecx, DWORD PTR [eax+4024]
	mov	DWORD PTR $T227351[ebp], ecx
	movzx	edx, BYTE PTR $T227347[ebp]
	test	edx, edx
	je	SHORT $LN12@dyWrap
	mov	eax, DWORD PTR $T227351[ebp]
	shr	eax, 1
	cmp	DWORD PTR _iDY$[ebp], eax
	jle	SHORT $LN11@dyWrap
	mov	ecx, DWORD PTR _iDY$[ebp]
	sub	ecx, DWORD PTR $T227351[ebp]
	mov	DWORD PTR $T227359[ebp], ecx
	jmp	SHORT $LN13@dyWrap
	jmp	SHORT $LN12@dyWrap
$LN11@dyWrap:
	mov	edx, DWORD PTR $T227351[ebp]
	shr	edx, 1
	neg	edx
	cmp	DWORD PTR _iDY$[ebp], edx
	jge	SHORT $LN12@dyWrap
	mov	eax, DWORD PTR _iDY$[ebp]
	add	eax, DWORD PTR $T227351[ebp]
	mov	DWORD PTR $T227359[ebp], eax
	jmp	SHORT $LN13@dyWrap
$LN12@dyWrap:
	mov	ecx, DWORD PTR _iDY$[ebp]
	mov	DWORD PTR $T227359[ebp], ecx
$LN13@dyWrap:
	mov	eax, DWORD PTR $T227359[ebp]

; 82   : }

	mov	esp, ebp
	pop	ebp
	ret	0
?dyWrap@@YAHH@Z ENDP					; dyWrap
_TEXT	ENDS
PUBLIC	?IsResearch@CvPlayerTechs@@QBE_NXZ		; CvPlayerTechs::IsResearch
EXTRN	?isFoundedFirstCity@CvPlayer@@QBE_NXZ:PROC	; CvPlayer::isFoundedFirstCity
; Function compile flags: /Odtp
; File d:\sources\lekmod_git\checkout\lekmod_dll\cvgamecoredll_expansion2\cvtechclasses.cpp
;	COMDAT ?IsResearch@CvPlayerTechs@@QBE_NXZ
_TEXT	SEGMENT
_this$ = -4						; size = 4
?IsResearch@CvPlayerTechs@@QBE_NXZ PROC			; CvPlayerTechs::IsResearch, COMDAT
; _this$ = ecx

; 1132 : {

	push	ebp
	mov	ebp, esp
	push	ecx
	mov	DWORD PTR _this$[ebp], ecx

; 1133 : #ifdef AUI_PLAYERTECH_FIX_CAN_RESEARCH_WITH_NO_FOUNDED_CITY
; 1134 : 	return (m_pPlayer->getNumCities() > 0);
; 1135 : #else
; 1136 : 	// Have we founded a city?
; 1137 : 	if(!m_pPlayer->isFoundedFirstCity())

	mov	eax, DWORD PTR _this$[ebp]
	mov	ecx, DWORD PTR [eax+44]
	call	?isFoundedFirstCity@CvPlayer@@QBE_NXZ	; CvPlayer::isFoundedFirstCity
	movzx	ecx, al
	test	ecx, ecx
	jne	SHORT $LN1@IsResearch

; 1138 : 	{
; 1139 : 		return false;

	xor	al, al
	jmp	SHORT $LN2@IsResearch
$LN1@IsResearch:

; 1140 : 	}
; 1141 : 
; 1142 : 	return true;

	mov	al, 1
$LN2@IsResearch:

; 1143 : #endif
; 1144 : }

	mov	esp, ebp
	pop	ebp
	ret	0
?IsResearch@CvPlayerTechs@@QBE_NXZ ENDP			; CvPlayerTechs::IsResearch
_TEXT	ENDS
PUBLIC	??_C@_0BG@PPACBMFL@PlayerCanEverResearch?$AA@	; `string'
PUBLIC	?CanEverResearch@CvPlayerTechs@@QBE_NW4TechTypes@@@Z ; CvPlayerTechs::CanEverResearch
EXTRN	??1CvLuaArgsHandle@@QAE@XZ:PROC			; CvLuaArgsHandle::~CvLuaArgsHandle
EXTRN	?CallTestAll@LuaSupport@@YA_NPAVICvEngineScriptSystem1@@PBDPAVICvEngineScriptSystemArgs1@@AA_N@Z:PROC ; LuaSupport::CallTestAll
EXTRN	??0CvLuaArgsHandle@@QAE@XZ:PROC			; CvLuaArgsHandle::CvLuaArgsHandle
EXTRN	?isCivilizationDisableTechs@CvCivilizationInfo@@QBE_NH@Z:PROC ; CvCivilizationInfo::isCivilizationDisableTechs
EXTRN	?getCivilizationInfo@CvPlayer@@QBEAAVCvCivilizationInfo@@XZ:PROC ; CvPlayer::getCivilizationInfo
EXTRN	?getTechInfo@CvGlobals@@QAEPAVCvTechEntry@@W4TechTypes@@@Z:PROC ; CvGlobals::getTechInfo
;	COMDAT ??_C@_0BG@PPACBMFL@PlayerCanEverResearch?$AA@
; File d:\sources\lekmod_git\checkout\lekmod_dll\cvgamecoredll_expansion2\lua\cvluaargshandle.h
CONST	SEGMENT
??_C@_0BG@PPACBMFL@PlayerCanEverResearch?$AA@ DB 'PlayerCanEverResearch', 00H ; `string'
CONST	ENDS
;	COMDAT xdata$x
xdata$x	SEGMENT
__unwindtable$?CanEverResearch@CvPlayerTechs@@QBE_NW4TechTypes@@@Z DD 0ffffffffH
	DD	FLAT:__unwindfunclet$?CanEverResearch@CvPlayerTechs@@QBE_NW4TechTypes@@@Z$0
__ehfuncinfo$?CanEverResearch@CvPlayerTechs@@QBE_NW4TechTypes@@@Z DD 019930522H
	DD	01H
	DD	FLAT:__unwindtable$?CanEverResearch@CvPlayerTechs@@QBE_NW4TechTypes@@@Z
	DD	2 DUP(00H)
	DD	2 DUP(00H)
	DD	00H
	DD	01H
; Function compile flags: /Odtp
; File d:\sources\lekmod_git\checkout\lekmod_dll\cvgamecoredll_expansion2\cvtechclasses.cpp
xdata$x	ENDS
;	COMDAT ?CanEverResearch@CvPlayerTechs@@QBE_NW4TechTypes@@@Z
_TEXT	SEGMENT
tv140 = -56						; size = 4
tv130 = -52						; size = 4
tv87 = -48						; size = 4
_this$ = -44						; size = 4
$T227388 = -40						; size = 4
$T227381 = -36						; size = 4
$T227369 = -32						; size = 4
$T227364 = -26						; size = 1
_bResult$223755 = -25					; size = 1
_args$223754 = -24					; size = 4
_pkTechInfo$ = -20					; size = 4
_pkScriptSystem$ = -16					; size = 4
__$EHRec$ = -12						; size = 12
_eTech$ = 8						; size = 4
?CanEverResearch@CvPlayerTechs@@QBE_NW4TechTypes@@@Z PROC ; CvPlayerTechs::CanEverResearch, COMDAT
; _this$ = ecx

; 1148 : {

	push	ebp
	mov	ebp, esp
	push	-1
	push	__ehhandler$?CanEverResearch@CvPlayerTechs@@QBE_NW4TechTypes@@@Z
	mov	eax, DWORD PTR fs:0
	push	eax
	sub	esp, 44					; 0000002cH
	mov	eax, DWORD PTR ___security_cookie
	xor	eax, ebp
	push	eax
	lea	eax, DWORD PTR __$EHRec$[ebp]
	mov	DWORD PTR fs:0, eax
	mov	DWORD PTR _this$[ebp], ecx

; 1149 : 	CvTechEntry* pkTechInfo = GC.getTechInfo(eTech);

	mov	eax, DWORD PTR _eTech$[ebp]
	push	eax
	mov	ecx, OFFSET ?gGlobals@@3VCvGlobals@@A	; gGlobals
	call	?getTechInfo@CvGlobals@@QAEPAVCvTechEntry@@W4TechTypes@@@Z ; CvGlobals::getTechInfo
	mov	DWORD PTR _pkTechInfo$[ebp], eax

; 1150 : 	if(pkTechInfo == NULL)

	cmp	DWORD PTR _pkTechInfo$[ebp], 0
	jne	SHORT $LN6@CanEverRes

; 1151 : 	{
; 1152 : 		return false;

	xor	al, al
	jmp	$LN7@CanEverRes
$LN6@CanEverRes:

; 1153 : 	}
; 1154 : 
; 1155 : 	if(pkTechInfo->IsDisable())

	mov	ecx, DWORD PTR _pkTechInfo$[ebp]
	call	?IsDisable@CvTechEntry@@QBE_NXZ		; CvTechEntry::IsDisable
	movzx	ecx, al
	test	ecx, ecx
	je	SHORT $LN5@CanEverRes

; 1156 : 	{
; 1157 : 		return false;

	xor	al, al
	jmp	$LN7@CanEverRes
$LN5@CanEverRes:

; 1158 : 	}
; 1159 : 
; 1160 : 	if(m_pPlayer->getCivilizationInfo().isCivilizationDisableTechs(eTech))

	mov	edx, DWORD PTR _eTech$[ebp]
	push	edx
	mov	eax, DWORD PTR _this$[ebp]
	mov	ecx, DWORD PTR [eax+44]
	call	?getCivilizationInfo@CvPlayer@@QBEAAVCvCivilizationInfo@@XZ ; CvPlayer::getCivilizationInfo
	mov	ecx, eax
	call	?isCivilizationDisableTechs@CvCivilizationInfo@@QBE_NH@Z ; CvCivilizationInfo::isCivilizationDisableTechs
	movzx	ecx, al
	test	ecx, ecx
	je	SHORT $LN4@CanEverRes

; 1161 : 	{
; 1162 : 		return false;

	xor	al, al
	jmp	$LN7@CanEverRes
$LN4@CanEverRes:

; 1163 : 	}
; 1164 : 
; 1165 : 	ICvEngineScriptSystem1* pkScriptSystem = gDLL->GetScriptSystem();

	mov	edx, DWORD PTR $T227369[ebp]
	mov	DWORD PTR tv87[ebp], edx
	mov	eax, DWORD PTR ?gGlobals@@3VCvGlobals@@A+8564
	mov	DWORD PTR tv87[ebp], eax
	mov	ecx, DWORD PTR tv87[ebp]
	mov	edx, DWORD PTR [ecx]
	mov	ecx, DWORD PTR tv87[ebp]
	mov	eax, DWORD PTR [edx+12]
	call	eax
	mov	DWORD PTR _pkScriptSystem$[ebp], eax

; 1166 : 	if(pkScriptSystem)

	cmp	DWORD PTR _pkScriptSystem$[ebp], 0
	je	$LN3@CanEverRes

; 1167 : 	{
; 1168 : 		CvLuaArgsHandle args;

	lea	ecx, DWORD PTR _args$223754[ebp]
	call	??0CvLuaArgsHandle@@QAE@XZ		; CvLuaArgsHandle::CvLuaArgsHandle
	mov	DWORD PTR __$EHRec$[ebp+8], 0

; 1169 : 		args->Push(m_pPlayer->GetID());

	mov	ecx, DWORD PTR _args$223754[ebp]
	mov	DWORD PTR tv130[ebp], ecx
	mov	edx, DWORD PTR _this$[ebp]
	mov	eax, DWORD PTR [edx+44]
	mov	ecx, DWORD PTR [eax+44]
	mov	DWORD PTR $T227381[ebp], ecx
	mov	edx, DWORD PTR $T227381[ebp]
	push	edx
	mov	eax, DWORD PTR tv130[ebp]
	mov	edx, DWORD PTR [eax]
	mov	ecx, DWORD PTR tv130[ebp]
	mov	eax, DWORD PTR [edx+8]
	call	eax

; 1170 : 		args->Push(eTech);

	mov	ecx, DWORD PTR _args$223754[ebp]
	mov	DWORD PTR tv140[ebp], ecx
	mov	edx, DWORD PTR _eTech$[ebp]
	push	edx
	mov	eax, DWORD PTR tv140[ebp]
	mov	edx, DWORD PTR [eax]
	mov	ecx, DWORD PTR tv140[ebp]
	mov	eax, DWORD PTR [edx+8]
	call	eax

; 1171 : 
; 1172 : 		// Attempt to execute the game events.
; 1173 : 		// Will return false if there are no registered listeners.
; 1174 : 		bool bResult = false;

	mov	BYTE PTR _bResult$223755[ebp], 0

; 1175 : 		if(LuaSupport::CallTestAll(pkScriptSystem, "PlayerCanEverResearch", args.get(), bResult))

	mov	ecx, DWORD PTR _args$223754[ebp]
	mov	DWORD PTR $T227388[ebp], ecx
	lea	edx, DWORD PTR _bResult$223755[ebp]
	push	edx
	mov	eax, DWORD PTR $T227388[ebp]
	push	eax
	push	OFFSET ??_C@_0BG@PPACBMFL@PlayerCanEverResearch?$AA@
	mov	ecx, DWORD PTR _pkScriptSystem$[ebp]
	push	ecx
	call	?CallTestAll@LuaSupport@@YA_NPAVICvEngineScriptSystem1@@PBDPAVICvEngineScriptSystemArgs1@@AA_N@Z ; LuaSupport::CallTestAll
	add	esp, 16					; 00000010H
	movzx	edx, al
	test	edx, edx
	je	SHORT $LN2@CanEverRes

; 1176 : 		{
; 1177 : 			// Check the result.
; 1178 : 			if(bResult == false)

	movzx	eax, BYTE PTR _bResult$223755[ebp]
	test	eax, eax
	jne	SHORT $LN2@CanEverRes

; 1179 : 			{
; 1180 : 				return false;

	mov	BYTE PTR $T227364[ebp], 0
	mov	DWORD PTR __$EHRec$[ebp+8], -1
	lea	ecx, DWORD PTR _args$223754[ebp]
	call	??1CvLuaArgsHandle@@QAE@XZ		; CvLuaArgsHandle::~CvLuaArgsHandle
	mov	al, BYTE PTR $T227364[ebp]
	jmp	SHORT $LN7@CanEverRes
$LN2@CanEverRes:

; 1181 : 			}
; 1182 : 		}
; 1183 : 	}

	mov	DWORD PTR __$EHRec$[ebp+8], -1
	lea	ecx, DWORD PTR _args$223754[ebp]
	call	??1CvLuaArgsHandle@@QAE@XZ		; CvLuaArgsHandle::~CvLuaArgsHandle
$LN3@CanEverRes:

; 1184 : 
; 1185 : 
; 1186 : 	return true;

	mov	al, 1
$LN7@CanEverRes:

; 1187 : }

	mov	ecx, DWORD PTR __$EHRec$[ebp]
	mov	DWORD PTR fs:0, ecx
	pop	ecx
	mov	esp, ebp
	pop	ebp
	ret	4
_TEXT	ENDS
;	COMDAT text$x
text$x	SEGMENT
__unwindfunclet$?CanEverResearch@CvPlayerTechs@@QBE_NW4TechTypes@@@Z$0:
	lea	ecx, DWORD PTR _args$223754[ebp]
	jmp	??1CvLuaArgsHandle@@QAE@XZ		; CvLuaArgsHandle::~CvLuaArgsHandle
__ehhandler$?CanEverResearch@CvPlayerTechs@@QBE_NW4TechTypes@@@Z:
	mov	edx, DWORD PTR [esp+8]
	lea	eax, DWORD PTR [edx+12]
	mov	ecx, DWORD PTR [edx-48]
	xor	ecx, eax
	call	@__security_check_cookie@4
	mov	eax, OFFSET __ehfuncinfo$?CanEverResearch@CvPlayerTechs@@QBE_NW4TechTypes@@@Z
	jmp	___CxxFrameHandler3
text$x	ENDS
?CanEverResearch@CvPlayerTechs@@QBE_NW4TechTypes@@@Z ENDP ; CvPlayerTechs::CanEverResearch
PUBLIC	??_C@_0BC@FKIPDLM@PlayerCanResearch?$AA@	; `string'
PUBLIC	?IsNoTradeTech@CvTeamTechs@@QBE_NW4TechTypes@@@Z ; CvTeamTechs::IsNoTradeTech
PUBLIC	?HasTech@CvTeamTechs@@QBE_NW4TechTypes@@@Z	; CvTeamTechs::HasTech
PUBLIC	?CanResearch@CvPlayerTechs@@QBE_NW4TechTypes@@_N@Z ; CvPlayerTechs::CanResearch
EXTRN	?GetTeamTechs@CvTeam@@QBEPAVCvTeamTechs@@XZ:PROC ; CvTeam::GetTeamTechs
EXTRN	?m_aTeams@CvTeam@@1PAV1@A:DWORD			; CvTeam::m_aTeams
EXTRN	?getAdvancedStartPoints@CvPlayer@@QBEHXZ:PROC	; CvPlayer::getAdvancedStartPoints
;	COMDAT ??_C@_0BC@FKIPDLM@PlayerCanResearch?$AA@
; File d:\sources\lekmod_git\checkout\lekmod_dll\cvgamecoredll_expansion2\lua\cvluaargshandle.h
CONST	SEGMENT
??_C@_0BC@FKIPDLM@PlayerCanResearch?$AA@ DB 'PlayerCanResearch', 00H ; `string'
CONST	ENDS
;	COMDAT xdata$x
xdata$x	SEGMENT
__unwindtable$?CanResearch@CvPlayerTechs@@QBE_NW4TechTypes@@_N@Z DD 0ffffffffH
	DD	FLAT:__unwindfunclet$?CanResearch@CvPlayerTechs@@QBE_NW4TechTypes@@_N@Z$0
__ehfuncinfo$?CanResearch@CvPlayerTechs@@QBE_NW4TechTypes@@_N@Z DD 019930522H
	DD	01H
	DD	FLAT:__unwindtable$?CanResearch@CvPlayerTechs@@QBE_NW4TechTypes@@_N@Z
	DD	2 DUP(00H)
	DD	2 DUP(00H)
	DD	00H
	DD	01H
; Function compile flags: /Odtp
; File d:\sources\lekmod_git\checkout\lekmod_dll\cvgamecoredll_expansion2\cvtechclasses.cpp
xdata$x	ENDS
;	COMDAT ?CanResearch@CvPlayerTechs@@QBE_NW4TechTypes@@_N@Z
_TEXT	SEGMENT
tv225 = -144						; size = 4
tv215 = -140						; size = 4
tv204 = -136						; size = 4
_this$ = -132						; size = 4
$T227499 = -128						; size = 4
$T227492 = -124						; size = 4
$T227480 = -120						; size = 4
$T227476 = -116						; size = 4
$T227472 = -112						; size = 4
$T227471 = -108						; size = 4
$T227462 = -104						; size = 4
$T227458 = -100						; size = 4
$T227457 = -96						; size = 4
$T227448 = -92						; size = 4
$T227444 = -88						; size = 4
$T227440 = -84						; size = 4
$T227439 = -80						; size = 4
$T227430 = -76						; size = 4
$T227426 = -72						; size = 4
$T227425 = -68						; size = 4
$T227416 = -64						; size = 4
$T227412 = -60						; size = 4
$T227408 = -56						; size = 4
$T227407 = -52						; size = 4
$T227397 = -46						; size = 1
_bResult$223794 = -45					; size = 1
_args$223793 = -44					; size = 4
_ePrereq$223785 = -40					; size = 4
_ePrereq$223775 = -36					; size = 4
_bFoundValid$ = -29					; size = 1
_iI$ = -28						; size = 4
_bFoundPossible$ = -21					; size = 1
_pkScriptSystem$ = -20					; size = 4
_pkTechEntry$ = -16					; size = 4
__$EHRec$ = -12						; size = 12
_eTech$ = 8						; size = 4
_bTrade$ = 12						; size = 1
?CanResearch@CvPlayerTechs@@QBE_NW4TechTypes@@_N@Z PROC	; CvPlayerTechs::CanResearch, COMDAT
; _this$ = ecx

; 1191 : {

	push	ebp
	mov	ebp, esp
	push	-1
	push	__ehhandler$?CanResearch@CvPlayerTechs@@QBE_NW4TechTypes@@_N@Z
	mov	eax, DWORD PTR fs:0
	push	eax
	sub	esp, 132				; 00000084H
	mov	eax, DWORD PTR ___security_cookie
	xor	eax, ebp
	push	eax
	lea	eax, DWORD PTR __$EHRec$[ebp]
	mov	DWORD PTR fs:0, eax
	mov	DWORD PTR _this$[ebp], ecx

; 1192 : 	bool bFoundPossible;
; 1193 : 	bool bFoundValid;
; 1194 : 	int iI;
; 1195 : 
; 1196 : 	CvTechEntry* pkTechEntry = GC.getTechInfo(eTech);

	mov	eax, DWORD PTR _eTech$[ebp]
	push	eax
	mov	ecx, OFFSET ?gGlobals@@3VCvGlobals@@A	; gGlobals
	call	?getTechInfo@CvGlobals@@QAEPAVCvTechEntry@@W4TechTypes@@@Z ; CvGlobals::getTechInfo
	mov	DWORD PTR _pkTechEntry$[ebp], eax

; 1197 : 	if(pkTechEntry == NULL)

	cmp	DWORD PTR _pkTechEntry$[ebp], 0
	jne	SHORT $LN21@CanResearc

; 1198 : 		return false;

	xor	al, al
	jmp	$LN22@CanResearc
$LN21@CanResearc:

; 1199 : 
; 1200 : 	if(!IsResearch() && m_pPlayer->getAdvancedStartPoints() < 0)

	mov	ecx, DWORD PTR _this$[ebp]
	call	?IsResearch@CvPlayerTechs@@QBE_NXZ	; CvPlayerTechs::IsResearch
	movzx	ecx, al
	test	ecx, ecx
	jne	SHORT $LN20@CanResearc
	mov	edx, DWORD PTR _this$[ebp]
	mov	ecx, DWORD PTR [edx+44]
	call	?getAdvancedStartPoints@CvPlayer@@QBEHXZ ; CvPlayer::getAdvancedStartPoints
	test	eax, eax
	jge	SHORT $LN20@CanResearc

; 1201 : 	{
; 1202 : 		return false;

	xor	al, al
	jmp	$LN22@CanResearc
$LN20@CanResearc:

; 1203 : 	}
; 1204 : 
; 1205 : 	// Do we already have this tech?
; 1206 : 	if(GET_TEAM(m_pPlayer->getTeam()).GetTeamTechs()->HasTech(eTech))

	mov	eax, DWORD PTR _this$[ebp]
	mov	ecx, DWORD PTR [eax+44]
	mov	DWORD PTR $T227407[ebp], ecx
	mov	edx, DWORD PTR $T227407[ebp]
	mov	eax, DWORD PTR [edx+44]
	push	eax
	call	?teamType@CvPreGame@@YA?AW4TeamTypes@@W4PlayerTypes@@@Z ; CvPreGame::teamType
	add	esp, 4
	mov	DWORD PTR $T227408[ebp], eax
	mov	ecx, DWORD PTR $T227408[ebp]
	imul	ecx, 2984				; 00000ba8H
	add	ecx, DWORD PTR ?m_aTeams@CvTeam@@1PAV1@A ; CvTeam::m_aTeams
	mov	DWORD PTR $T227412[ebp], ecx
	mov	edx, DWORD PTR _eTech$[ebp]
	push	edx
	mov	ecx, DWORD PTR $T227412[ebp]
	call	?GetTeamTechs@CvTeam@@QBEPAVCvTeamTechs@@XZ ; CvTeam::GetTeamTechs
	mov	ecx, eax
	call	?HasTech@CvTeamTechs@@QBE_NW4TechTypes@@@Z ; CvTeamTechs::HasTech
	movzx	eax, al
	test	eax, eax
	je	SHORT $LN19@CanResearc

; 1207 : 	{
; 1208 : 		return false;

	xor	al, al
	jmp	$LN22@CanResearc
$LN19@CanResearc:

; 1209 : 	}
; 1210 : 
; 1211 : 	bFoundPossible = false;

	mov	BYTE PTR _bFoundPossible$[ebp], 0

; 1212 : 	bFoundValid = false;

	mov	BYTE PTR _bFoundValid$[ebp], 0

; 1213 : 
; 1214 : 	// See if it is possible based on OR prereqs
; 1215 : 	for(iI = 0; iI < GC.getNUM_OR_TECH_PREREQS(); iI++)

	mov	DWORD PTR _iI$[ebp], 0
	jmp	SHORT $LN18@CanResearc
$LN17@CanResearc:
	mov	ecx, DWORD PTR _iI$[ebp]
	add	ecx, 1
	mov	DWORD PTR _iI$[ebp], ecx
$LN18@CanResearc:
	mov	edx, DWORD PTR ?gGlobals@@3VCvGlobals@@A+6268
	mov	DWORD PTR $T227416[ebp], edx
	mov	eax, DWORD PTR _iI$[ebp]
	cmp	eax, DWORD PTR $T227416[ebp]
	jge	$LN16@CanResearc

; 1216 : 	{
; 1217 : 		TechTypes ePrereq = (TechTypes)pkTechEntry->GetPrereqOrTechs(iI);

	mov	ecx, DWORD PTR _iI$[ebp]
	push	ecx
	mov	ecx, DWORD PTR _pkTechEntry$[ebp]
	call	?GetPrereqOrTechs@CvTechEntry@@QBEHH@Z	; CvTechEntry::GetPrereqOrTechs
	mov	DWORD PTR _ePrereq$223775[ebp], eax

; 1218 : 		if(ePrereq != NO_TECH)

	cmp	DWORD PTR _ePrereq$223775[ebp], -1
	je	$LN15@CanResearc

; 1219 : 		{
; 1220 : 			bFoundPossible = true;

	mov	BYTE PTR _bFoundPossible$[ebp], 1

; 1221 : 
; 1222 : 			if(GET_TEAM(m_pPlayer->getTeam()).GetTeamTechs()->HasTech(ePrereq))

	mov	edx, DWORD PTR _this$[ebp]
	mov	eax, DWORD PTR [edx+44]
	mov	DWORD PTR $T227425[ebp], eax
	mov	ecx, DWORD PTR $T227425[ebp]
	mov	edx, DWORD PTR [ecx+44]
	push	edx
	call	?teamType@CvPreGame@@YA?AW4TeamTypes@@W4PlayerTypes@@@Z ; CvPreGame::teamType
	add	esp, 4
