; Listing generated by Microsoft (R) Optimizing Compiler Version 15.00.30729.01 

	TITLE	D:\sources\Lekmod_git\checkout\LEKMOD_DLL\CvGameCoreDLL_Expansion2\CvTechAI.cpp
	.686P
	.XMM
	include listing.inc
	.model	flat

INCLUDELIB MSVCRT
INCLUDELIB OLDNAMES

PUBLIC	??1?$CvWeightedVector@H$0FA@$00@@QAE@XZ		; CvWeightedVector<int,80,1>::~CvWeightedVector<int,80,1>
PUBLIC	??0?$FStaticVector@UWeightedElement@?$CvWeightedVector@H$0FA@$00@@$0FA@$00$0A@$0A@@@QAE@XZ ; FStaticVector<CvWeightedVector<int,80,1>::WeightedElement,80,1,0,0>::FStaticVector<CvWeightedVector<int,80,1>::WeightedElement,80,1,0,0>
PUBLIC	??0CvTechAI@@QAE@PAVCvPlayerTechs@@@Z		; CvTechAI::CvTechAI
EXTRN	___security_cookie:DWORD
EXTRN	___CxxFrameHandler3:PROC
EXTRN	@__security_check_cookie@4:PROC
;	COMDAT xdata$x
; File d:\sources\lekmod_git\checkout\lekmod_dll\fireplace\include\fireworks\ffastvector.h
xdata$x	SEGMENT
__unwindtable$??0CvTechAI@@QAE@PAVCvPlayerTechs@@@Z DD 0ffffffffH
	DD	FLAT:__unwindfunclet$??0CvTechAI@@QAE@PAVCvPlayerTechs@@@Z$0
__ehfuncinfo$??0CvTechAI@@QAE@PAVCvPlayerTechs@@@Z DD 019930522H
	DD	01H
	DD	FLAT:__unwindtable$??0CvTechAI@@QAE@PAVCvPlayerTechs@@@Z
	DD	2 DUP(00H)
	DD	2 DUP(00H)
	DD	00H
	DD	01H
; Function compile flags: /Odtp
; File d:\sources\lekmod_git\checkout\lekmod_dll\cvgamecoredll_expansion2\cvtechai.cpp
xdata$x	ENDS
;	COMDAT ??0CvTechAI@@QAE@PAVCvPlayerTechs@@@Z
_TEXT	SEGMENT
_this$ = -40						; size = 4
$T221413 = -36						; size = 4
$T221396 = -24						; size = 4
__$EHRec$ = -12						; size = 12
_currentTechs$ = 8					; size = 4
??0CvTechAI@@QAE@PAVCvPlayerTechs@@@Z PROC		; CvTechAI::CvTechAI, COMDAT
; _this$ = ecx

; 19   : {

	push	ebp
	mov	ebp, esp
	push	-1
	push	__ehhandler$??0CvTechAI@@QAE@PAVCvPlayerTechs@@@Z
	mov	eax, DWORD PTR fs:0
	push	eax
	sub	esp, 28					; 0000001cH
	mov	eax, DWORD PTR ___security_cookie
	xor	eax, ebp
	push	eax
	lea	eax, DWORD PTR __$EHRec$[ebp]
	mov	DWORD PTR fs:0, eax
	mov	DWORD PTR _this$[ebp], ecx
	mov	eax, DWORD PTR _this$[ebp]
	mov	ecx, DWORD PTR _currentTechs$[ebp]
	mov	DWORD PTR [eax], ecx
	mov	edx, DWORD PTR _this$[ebp]
	add	edx, 4
	mov	DWORD PTR $T221396[ebp], edx
	mov	ecx, DWORD PTR $T221396[ebp]
	call	??0?$FStaticVector@UWeightedElement@?$CvWeightedVector@H$0FA@$00@@$0FA@$00$0A@$0A@@@QAE@XZ ; FStaticVector<CvWeightedVector<int,80,1>::WeightedElement,80,1,0,0>::FStaticVector<CvWeightedVector<int,80,1>::WeightedElement,80,1,0,0>
	mov	DWORD PTR __$EHRec$[ebp+8], 0
	mov	eax, DWORD PTR _this$[ebp]
	add	eax, 660				; 00000294H
	mov	DWORD PTR $T221413[ebp], eax
	mov	ecx, DWORD PTR $T221413[ebp]
	call	??0?$FStaticVector@UWeightedElement@?$CvWeightedVector@H$0FA@$00@@$0FA@$00$0A@$0A@@@QAE@XZ ; FStaticVector<CvWeightedVector<int,80,1>::WeightedElement,80,1,0,0>::FStaticVector<CvWeightedVector<int,80,1>::WeightedElement,80,1,0,0>

; 20   : }

	mov	DWORD PTR __$EHRec$[ebp+8], -1
	mov	eax, DWORD PTR _this$[ebp]
	mov	ecx, DWORD PTR __$EHRec$[ebp]
	mov	DWORD PTR fs:0, ecx
	pop	ecx
	mov	esp, ebp
	pop	ebp
	ret	4
_TEXT	ENDS
;	COMDAT text$x
text$x	SEGMENT
__unwindfunclet$??0CvTechAI@@QAE@PAVCvPlayerTechs@@@Z$0:
	mov	ecx, DWORD PTR _this$[ebp]
	add	ecx, 4
	jmp	??1?$CvWeightedVector@H$0FA@$00@@QAE@XZ	; CvWeightedVector<int,80,1>::~CvWeightedVector<int,80,1>
__ehhandler$??0CvTechAI@@QAE@PAVCvPlayerTechs@@@Z:
	mov	edx, DWORD PTR [esp+8]
	lea	eax, DWORD PTR [edx+12]
	mov	ecx, DWORD PTR [edx-32]
	xor	ecx, eax
	call	@__security_check_cookie@4
	mov	eax, OFFSET __ehfuncinfo$??0CvTechAI@@QAE@PAVCvPlayerTechs@@@Z
	jmp	___CxxFrameHandler3
text$x	ENDS
??0CvTechAI@@QAE@PAVCvPlayerTechs@@@Z ENDP		; CvTechAI::CvTechAI
PUBLIC	??1?$FStaticVector@UWeightedElement@?$CvWeightedVector@H$0FA@$00@@$0FA@$00$0A@$0A@@@QAE@XZ ; FStaticVector<CvWeightedVector<int,80,1>::WeightedElement,80,1,0,0>::~FStaticVector<CvWeightedVector<int,80,1>::WeightedElement,80,1,0,0>
PUBLIC	??1CvTechAI@@QAE@XZ				; CvTechAI::~CvTechAI
;	COMDAT xdata$x
; File d:\sources\lekmod_git\checkout\lekmod_dll\fireplace\include\fireworks\ffastvector.h
xdata$x	SEGMENT
__unwindtable$??1CvTechAI@@QAE@XZ DD 0ffffffffH
	DD	FLAT:__unwindfunclet$??1CvTechAI@@QAE@XZ$0
__ehfuncinfo$??1CvTechAI@@QAE@XZ DD 019930522H
	DD	01H
	DD	FLAT:__unwindtable$??1CvTechAI@@QAE@XZ
	DD	2 DUP(00H)
	DD	2 DUP(00H)
	DD	00H
	DD	01H
; Function compile flags: /Odtp
; File d:\sources\lekmod_git\checkout\lekmod_dll\cvgamecoredll_expansion2\cvtechai.cpp
xdata$x	ENDS
;	COMDAT ??1CvTechAI@@QAE@XZ
_TEXT	SEGMENT
_this$ = -48						; size = 4
$T221492 = -44						; size = 4
$T221460 = -28						; size = 4
__$EHRec$ = -12						; size = 12
??1CvTechAI@@QAE@XZ PROC				; CvTechAI::~CvTechAI, COMDAT
; _this$ = ecx

; 24   : {

	push	ebp
	mov	ebp, esp
	push	-1
	push	__ehhandler$??1CvTechAI@@QAE@XZ
	mov	eax, DWORD PTR fs:0
	push	eax
	sub	esp, 36					; 00000024H
	mov	eax, DWORD PTR ___security_cookie
	xor	eax, ebp
	push	eax
	lea	eax, DWORD PTR __$EHRec$[ebp]
	mov	DWORD PTR fs:0, eax
	mov	DWORD PTR _this$[ebp], ecx
	mov	DWORD PTR __$EHRec$[ebp+8], 0

; 25   : }

	mov	eax, DWORD PTR _this$[ebp]
	add	eax, 660				; 00000294H
	mov	DWORD PTR $T221460[ebp], eax
	mov	ecx, DWORD PTR $T221460[ebp]
	call	??1?$FStaticVector@UWeightedElement@?$CvWeightedVector@H$0FA@$00@@$0FA@$00$0A@$0A@@@QAE@XZ ; FStaticVector<CvWeightedVector<int,80,1>::WeightedElement,80,1,0,0>::~FStaticVector<CvWeightedVector<int,80,1>::WeightedElement,80,1,0,0>
	mov	DWORD PTR __$EHRec$[ebp+8], -1
	mov	ecx, DWORD PTR _this$[ebp]
	add	ecx, 4
	mov	DWORD PTR $T221492[ebp], ecx
	mov	ecx, DWORD PTR $T221492[ebp]
	call	??1?$FStaticVector@UWeightedElement@?$CvWeightedVector@H$0FA@$00@@$0FA@$00$0A@$0A@@@QAE@XZ ; FStaticVector<CvWeightedVector<int,80,1>::WeightedElement,80,1,0,0>::~FStaticVector<CvWeightedVector<int,80,1>::WeightedElement,80,1,0,0>
	mov	ecx, DWORD PTR __$EHRec$[ebp]
	mov	DWORD PTR fs:0, ecx
	pop	ecx
	mov	esp, ebp
	pop	ebp
	ret	0
_TEXT	ENDS
;	COMDAT text$x
text$x	SEGMENT
__unwindfunclet$??1CvTechAI@@QAE@XZ$0:
	mov	ecx, DWORD PTR _this$[ebp]
	add	ecx, 4
	jmp	??1?$CvWeightedVector@H$0FA@$00@@QAE@XZ	; CvWeightedVector<int,80,1>::~CvWeightedVector<int,80,1>
__ehhandler$??1CvTechAI@@QAE@XZ:
	mov	edx, DWORD PTR [esp+8]
	lea	eax, DWORD PTR [edx+12]
	mov	ecx, DWORD PTR [edx-40]
	xor	ecx, eax
	call	@__security_check_cookie@4
	mov	eax, OFFSET __ehfuncinfo$??1CvTechAI@@QAE@XZ
	jmp	___CxxFrameHandler3
text$x	ENDS
??1CvTechAI@@QAE@XZ ENDP				; CvTechAI::~CvTechAI
PUBLIC	?push_back@?$FStaticVector@UWeightedElement@?$CvWeightedVector@H$0FA@$00@@$0FA@$00$0A@$0A@@@QAEIABUWeightedElement@?$CvWeightedVector@H$0FA@$00@@@Z ; FStaticVector<CvWeightedVector<int,80,1>::WeightedElement,80,1,0,0>::push_back
PUBLIC	?Reset@CvTechAI@@QAEXXZ				; CvTechAI::Reset
EXTRN	?GetNumTechs@CvTechXMLEntries@@QAEHXZ:PROC	; CvTechXMLEntries::GetNumTechs
EXTRN	?GetTechs@CvPlayerTechs@@QBEPAVCvTechXMLEntries@@XZ:PROC ; CvPlayerTechs::GetTechs
; Function compile flags: /Odtp
;	COMDAT ?Reset@CvTechAI@@QAEXXZ
_TEXT	SEGMENT
_this$ = -64						; size = 4
_weightedElem$221569 = -20				; size = 8
$T221531 = -12						; size = 4
_i$221526 = -8						; size = 4
_i$217558 = -4						; size = 4
?Reset@CvTechAI@@QAEXXZ PROC				; CvTechAI::Reset, COMDAT
; _this$ = ecx

; 29   : {

	push	ebp
	mov	ebp, esp
	sub	esp, 64					; 00000040H
	mov	DWORD PTR _this$[ebp], ecx

; 30   : 	CvAssertMsg(m_pCurrentTechs != NULL, "Tech AI init failure: player tech data is NULL");
; 31   : 	if(m_pCurrentTechs != NULL)

	mov	eax, DWORD PTR _this$[ebp]
	cmp	DWORD PTR [eax], 0
	je	$LN5@Reset

; 32   : 	{
; 33   : 		CvAssertMsg(m_pCurrentTechs->GetTechs() != NULL, "Tech AI init failure: no tech data");
; 34   : 
; 35   : 		m_TechAIWeights.clear();

	mov	ecx, DWORD PTR _this$[ebp]
	add	ecx, 4
	mov	DWORD PTR $T221531[ebp], ecx
	xor	edx, edx
	je	SHORT $LN15@Reset
	mov	DWORD PTR _i$221526[ebp], 0
	jmp	SHORT $LN13@Reset
$LN12@Reset:
	mov	eax, DWORD PTR _i$221526[ebp]
	add	eax, 1
	mov	DWORD PTR _i$221526[ebp], eax
$LN13@Reset:
	mov	ecx, DWORD PTR $T221531[ebp]
	mov	edx, DWORD PTR _i$221526[ebp]
	cmp	edx, DWORD PTR [ecx+4]
	jae	SHORT $LN15@Reset
	jmp	SHORT $LN12@Reset
$LN15@Reset:
	mov	eax, DWORD PTR $T221531[ebp]
	mov	DWORD PTR [eax+4], 0

; 36   : 
; 37   : 		// Loop through reading each one and add an entry with 0 weight to our vector
; 38   : #ifdef AUI_WARNING_FIXES
; 39   : 		for (uint i = 0; i < m_pCurrentTechs->GetTechs()->GetNumTechs(); i++)
; 40   : #else
; 41   : 		for(int i = 0; i < m_pCurrentTechs->GetTechs()->GetNumTechs(); i++)

	mov	DWORD PTR _i$217558[ebp], 0
	jmp	SHORT $LN3@Reset
$LN2@Reset:
	mov	ecx, DWORD PTR _i$217558[ebp]
	add	ecx, 1
	mov	DWORD PTR _i$217558[ebp], ecx
$LN3@Reset:
	mov	edx, DWORD PTR _this$[ebp]
	mov	ecx, DWORD PTR [edx]
	call	?GetTechs@CvPlayerTechs@@QBEPAVCvTechXMLEntries@@XZ ; CvPlayerTechs::GetTechs
	mov	ecx, eax
	call	?GetNumTechs@CvTechXMLEntries@@QAEHXZ	; CvTechXMLEntries::GetNumTechs
	cmp	DWORD PTR _i$217558[ebp], eax
	jge	SHORT $LN5@Reset

; 42   : #endif
; 43   : 		{
; 44   : 			m_TechAIWeights.push_back(i, 0);

	mov	DWORD PTR _weightedElem$221569[ebp], 0
	mov	DWORD PTR _weightedElem$221569[ebp+4], 0
	mov	eax, DWORD PTR _i$217558[ebp]
	mov	DWORD PTR _weightedElem$221569[ebp], eax
	mov	DWORD PTR _weightedElem$221569[ebp+4], 0
	lea	ecx, DWORD PTR _weightedElem$221569[ebp]
	push	ecx
	mov	ecx, DWORD PTR _this$[ebp]
	add	ecx, 4
	call	?push_back@?$FStaticVector@UWeightedElement@?$CvWeightedVector@H$0FA@$00@@$0FA@$00$0A@$0A@@@QAEIABUWeightedElement@?$CvWeightedVector@H$0FA@$00@@@Z ; FStaticVector<CvWeightedVector<int,80,1>::WeightedElement,80,1,0,0>::push_back

; 45   : 		}

	jmp	SHORT $LN2@Reset
$LN5@Reset:

; 46   : 	}
; 47   : }

	mov	esp, ebp
	pop	ebp
	ret	0
?Reset@CvTechAI@@QAEXXZ ENDP				; CvTechAI::Reset
_TEXT	ENDS
PUBLIC	?GrowSize@?$FStaticVector@UWeightedElement@?$CvWeightedVector@H$0FA@$00@@$0FA@$00$0A@$0A@@@IAEXI@Z ; FStaticVector<CvWeightedVector<int,80,1>::WeightedElement,80,1,0,0>::GrowSize
PUBLIC	?Read@CvTechAI@@QAEXAAVFDataStream@@@Z		; CvTechAI::Read
EXTRN	?ReadHashed@CvInfosSerializationHelper@@YAHAAVFDataStream@@PA_N@Z:PROC ; CvInfosSerializationHelper::ReadHashed
EXTRN	?Read@FDataStream@@IAEXAAH@Z:PROC		; FDataStream::Read
EXTRN	?Read@FDataStream@@IAEXAAI@Z:PROC		; FDataStream::Read
; Function compile flags: /Odtp
;	COMDAT ?Read@CvTechAI@@QAEXAAVFDataStream@@@Z
_TEXT	SEGMENT
_this$ = -48						; size = 4
$T221642 = -44						; size = 4
$T221619 = -40						; size = 4
$T221608 = -36						; size = 4
_i$221603 = -32						; size = 4
_iIndex$217579 = -28					; size = 4
_i$217575 = -24						; size = 4
_i$217570 = -20						; size = 4
_iCount$ = -16						; size = 4
_uiVersion$ = -12					; size = 4
_iWeight$ = -8						; size = 4
_iTechCount$ = -4					; size = 4
_kStream$ = 8						; size = 4
?Read@CvTechAI@@QAEXAAVFDataStream@@@Z PROC		; CvTechAI::Read, COMDAT
; _this$ = ecx

; 52   : {

	push	ebp
	mov	ebp, esp
	sub	esp, 48					; 00000030H
	mov	DWORD PTR _this$[ebp], ecx

; 53   : 	// Version number to maintain backwards compatibility
; 54   : 	uint uiVersion;
; 55   : 	kStream >> uiVersion;

	lea	eax, DWORD PTR _uiVersion$[ebp]
	push	eax
	mov	ecx, DWORD PTR _kStream$[ebp]
	call	?Read@FDataStream@@IAEXAAI@Z		; FDataStream::Read

; 56   : 
; 57   : 	int iWeight;
; 58   : 
; 59   : 	CvAssertMsg(m_pCurrentTechs->GetTechs() != NULL, "Tech AI serialization failure: no tech data");
; 60   : 	CvAssertMsg(m_pCurrentTechs->GetTechs()->GetNumTechs() > 0, "Tech AI serialization failure: number of techs not greater than 0");
; 61   : 
; 62   : 	// Reset vector
; 63   : 	m_TechAIWeights.clear();

	mov	ecx, DWORD PTR _this$[ebp]
	add	ecx, 4
	mov	DWORD PTR $T221608[ebp], ecx
	xor	edx, edx
	je	SHORT $LN20@Read
	mov	DWORD PTR _i$221603[ebp], 0
	jmp	SHORT $LN18@Read
$LN17@Read:
	mov	eax, DWORD PTR _i$221603[ebp]
	add	eax, 1
	mov	DWORD PTR _i$221603[ebp], eax
$LN18@Read:
	mov	ecx, DWORD PTR $T221608[ebp]
	mov	edx, DWORD PTR _i$221603[ebp]
	cmp	edx, DWORD PTR [ecx+4]
	jae	SHORT $LN20@Read
	jmp	SHORT $LN17@Read
$LN20@Read:
	mov	eax, DWORD PTR $T221608[ebp]
	mov	DWORD PTR [eax+4], 0

; 64   : 	int iTechCount = m_pCurrentTechs->GetTechs()->GetNumTechs();

	mov	ecx, DWORD PTR _this$[ebp]
	mov	ecx, DWORD PTR [ecx]
	call	?GetTechs@CvPlayerTechs@@QBEPAVCvTechXMLEntries@@XZ ; CvPlayerTechs::GetTechs
	mov	ecx, eax
	call	?GetNumTechs@CvTechXMLEntries@@QAEHXZ	; CvTechXMLEntries::GetNumTechs
	mov	DWORD PTR _iTechCount$[ebp], eax

; 65   : 	m_TechAIWeights.resize(iTechCount);

	mov	edx, DWORD PTR _this$[ebp]
	add	edx, 4
	mov	DWORD PTR $T221619[ebp], edx
	mov	eax, DWORD PTR $T221619[ebp]
	mov	ecx, DWORD PTR [eax+8]
	cmp	ecx, DWORD PTR _iTechCount$[ebp]
	jae	SHORT $LN24@Read
	mov	edx, DWORD PTR _iTechCount$[ebp]
	push	edx
	mov	ecx, DWORD PTR $T221619[ebp]
	call	?GrowSize@?$FStaticVector@UWeightedElement@?$CvWeightedVector@H$0FA@$00@@$0FA@$00$0A@$0A@@@IAEXI@Z ; FStaticVector<CvWeightedVector<int,80,1>::WeightedElement,80,1,0,0>::GrowSize
$LN24@Read:
	mov	eax, DWORD PTR $T221619[ebp]
	mov	ecx, DWORD PTR _iTechCount$[ebp]
	mov	DWORD PTR [eax+4], ecx

; 66   : 	for(int i = 0; i < iTechCount; ++i)

	mov	DWORD PTR _i$217570[ebp], 0
	jmp	SHORT $LN7@Read
$LN6@Read:
	mov	edx, DWORD PTR _i$217570[ebp]
	add	edx, 1
	mov	DWORD PTR _i$217570[ebp], edx
$LN7@Read:
	mov	eax, DWORD PTR _i$217570[ebp]
	cmp	eax, DWORD PTR _iTechCount$[ebp]
	jge	SHORT $LN5@Read

; 67   : 		m_TechAIWeights.SetWeight(i, 0);

	mov	ecx, DWORD PTR _this$[ebp]
	mov	edx, DWORD PTR [ecx+4]
	mov	eax, DWORD PTR _i$217570[ebp]
	mov	DWORD PTR [edx+eax*8+4], 0
	jmp	SHORT $LN6@Read
$LN5@Read:

; 68   : 
; 69   : 	int iCount;
; 70   : 	kStream >> iCount;

	lea	ecx, DWORD PTR _iCount$[ebp]
	push	ecx
	mov	ecx, DWORD PTR _kStream$[ebp]
	call	?Read@FDataStream@@IAEXAAH@Z		; FDataStream::Read

; 71   : 
; 72   : 	for(int i = 0; i < iCount; i++)

	mov	DWORD PTR _i$217575[ebp], 0
	jmp	SHORT $LN4@Read
$LN3@Read:
	mov	edx, DWORD PTR _i$217575[ebp]
	add	edx, 1
	mov	DWORD PTR _i$217575[ebp], edx
$LN4@Read:
	mov	eax, DWORD PTR _i$217575[ebp]
	cmp	eax, DWORD PTR _iCount$[ebp]
	jge	SHORT $LN8@Read

; 73   : 	{
; 74   : 		int iIndex = CvInfosSerializationHelper::ReadHashed(kStream);

	push	0
	mov	ecx, DWORD PTR _kStream$[ebp]
	push	ecx
	call	?ReadHashed@CvInfosSerializationHelper@@YAHAAVFDataStream@@PA_N@Z ; CvInfosSerializationHelper::ReadHashed
	add	esp, 8
	mov	DWORD PTR _iIndex$217579[ebp], eax

; 75   : 		kStream >> iWeight;

	lea	edx, DWORD PTR _iWeight$[ebp]
	push	edx
	mov	ecx, DWORD PTR _kStream$[ebp]
	call	?Read@FDataStream@@IAEXAAH@Z		; FDataStream::Read

; 76   : 		if(iIndex >= 0 && iIndex < iCount)

	cmp	DWORD PTR _iIndex$217579[ebp], 0
	jl	SHORT $LN1@Read
	mov	eax, DWORD PTR _iIndex$217579[ebp]
	cmp	eax, DWORD PTR _iCount$[ebp]
	jge	SHORT $LN1@Read

; 77   : 			m_TechAIWeights.SetWeight(iIndex, iWeight);

	mov	ecx, DWORD PTR _iWeight$[ebp]
	mov	DWORD PTR $T221642[ebp], ecx
	mov	edx, DWORD PTR _this$[ebp]
	mov	eax, DWORD PTR [edx+4]
	mov	ecx, DWORD PTR _iIndex$217579[ebp]
	mov	edx, DWORD PTR $T221642[ebp]
	mov	DWORD PTR [eax+ecx*8+4], edx
$LN1@Read:
	jmp	SHORT $LN3@Read
$LN8@Read:

; 78   : 	}
; 79   : }

	mov	esp, ebp
	pop	ebp
	ret	4
?Read@CvTechAI@@QAEXAAVFDataStream@@@Z ENDP		; CvTechAI::Read
_TEXT	ENDS
PUBLIC	?Write@CvTechAI@@QBEXAAVFDataStream@@@Z		; CvTechAI::Write
EXTRN	?Write@FDataStream@@IAEXABH@Z:PROC		; FDataStream::Write
EXTRN	?WriteHashed@CvInfosSerializationHelper@@YA_NAAVFDataStream@@W4TechTypes@@@Z:PROC ; CvInfosSerializationHelper::WriteHashed
EXTRN	?Write@FDataStream@@IAEXABI@Z:PROC		; FDataStream::Write
; Function compile flags: /Odtp
;	COMDAT ?Write@CvTechAI@@QBEXAAVFDataStream@@@Z
_TEXT	SEGMENT
_this$ = -28						; size = 4
_elem$221660 = -24					; size = 8
$T221645 = -16						; size = 4
_i$217587 = -12						; size = 4
_uiCount$ = -8						; size = 4
_uiVersion$ = -4					; size = 4
_kStream$ = 8						; size = 4
?Write@CvTechAI@@QBEXAAVFDataStream@@@Z PROC		; CvTechAI::Write, COMDAT
; _this$ = ecx

; 83   : {

	push	ebp
	mov	ebp, esp
	sub	esp, 28					; 0000001cH
	mov	DWORD PTR _this$[ebp], ecx

; 84   : 	// Current version number
; 85   : 	uint uiVersion = 1;

	mov	DWORD PTR _uiVersion$[ebp], 1

; 86   : 	kStream << uiVersion;

	lea	eax, DWORD PTR _uiVersion$[ebp]
	push	eax
	mov	ecx, DWORD PTR _kStream$[ebp]
	call	?Write@FDataStream@@IAEXABI@Z		; FDataStream::Write

; 87   : 
; 88   : 	CvAssertMsg(m_pCurrentTechs->GetTechs() != NULL, "Tech AI serialization failure: no tech data");
; 89   : 	CvAssertMsg(m_pCurrentTechs->GetTechs()->GetNumTechs() > 0, "Tech AI serialization failure: number of techs not greater than 0");
; 90   : 
; 91   : 	uint uiCount = m_pCurrentTechs->GetTechs()->GetNumTechs();

	mov	ecx, DWORD PTR _this$[ebp]
	mov	ecx, DWORD PTR [ecx]
	call	?GetTechs@CvPlayerTechs@@QBEPAVCvTechXMLEntries@@XZ ; CvPlayerTechs::GetTechs
	mov	ecx, eax
	call	?GetNumTechs@CvTechXMLEntries@@QAEHXZ	; CvTechXMLEntries::GetNumTechs
	mov	DWORD PTR _uiCount$[ebp], eax

; 92   : 	kStream << uiCount;

	lea	edx, DWORD PTR _uiCount$[ebp]
	push	edx
	mov	ecx, DWORD PTR _kStream$[ebp]
	call	?Write@FDataStream@@IAEXABI@Z		; FDataStream::Write

; 93   : 
; 94   : 	// Loop through writing each entry
; 95   : 	for(uint i = 0; i < uiCount; i++)

	mov	DWORD PTR _i$217587[ebp], 0
	jmp	SHORT $LN3@Write
$LN2@Write:
	mov	eax, DWORD PTR _i$217587[ebp]
	add	eax, 1
	mov	DWORD PTR _i$217587[ebp], eax
$LN3@Write:
	mov	ecx, DWORD PTR _i$217587[ebp]
	cmp	ecx, DWORD PTR _uiCount$[ebp]
	jae	SHORT $LN4@Write

; 96   : 	{
; 97   : 		CvInfosSerializationHelper::WriteHashed(kStream, (TechTypes)i);	// Write out the hash ID first

	mov	edx, DWORD PTR _i$217587[ebp]
	push	edx
	mov	eax, DWORD PTR _kStream$[ebp]
	push	eax
	call	?WriteHashed@CvInfosSerializationHelper@@YA_NAAVFDataStream@@W4TechTypes@@@Z ; CvInfosSerializationHelper::WriteHashed
	add	esp, 8

; 98   : 		kStream << m_TechAIWeights.GetWeight(i);

	mov	DWORD PTR _elem$221660[ebp], 0
	mov	DWORD PTR _elem$221660[ebp+4], 0
	mov	ecx, DWORD PTR _this$[ebp]
	mov	edx, DWORD PTR [ecx+4]
	mov	eax, DWORD PTR _i$217587[ebp]
	mov	ecx, DWORD PTR [edx+eax*8]
	mov	edx, DWORD PTR [edx+eax*8+4]
	mov	DWORD PTR _elem$221660[ebp], ecx
	mov	DWORD PTR _elem$221660[ebp+4], edx
	mov	eax, DWORD PTR _elem$221660[ebp+4]
	mov	DWORD PTR $T221645[ebp], eax
	lea	ecx, DWORD PTR $T221645[ebp]
	push	ecx
	mov	ecx, DWORD PTR _kStream$[ebp]
	call	?Write@FDataStream@@IAEXABH@Z		; FDataStream::Write

; 99   : 	}

	jmp	SHORT $LN2@Write
$LN4@Write:

; 100  : }

	mov	esp, ebp
	pop	ebp
	ret	4
?Write@CvTechAI@@QBEXAAVFDataStream@@@Z ENDP		; CvTechAI::Write
_TEXT	ENDS
PUBLIC	?WeightPrereqs@CvTechAI@@AAEXPAHH@Z		; CvTechAI::WeightPrereqs
PUBLIC	__$ArrayPad$
PUBLIC	?AddFlavorWeights@CvTechAI@@QAEXW4FlavorTypes@@HH@Z ; CvTechAI::AddFlavorWeights
EXTRN	?GetLocaleTechPriority@CvPlayerTechs@@QBEHW4TechTypes@@@Z:PROC ; CvPlayerTechs::GetLocaleTechPriority
EXTRN	?GetCivTechPriority@CvPlayerTechs@@QBEHW4TechTypes@@@Z:PROC ; CvPlayerTechs::GetCivTechPriority
EXTRN	?GetPlayerTechs@CvPlayer@@QBEPAVCvPlayerTechs@@XZ:PROC ; CvPlayer::GetPlayerTechs
EXTRN	?GetPlayer@CvPlayerTechs@@QAEPAVCvPlayer@@XZ:PROC ; CvPlayerTechs::GetPlayer
EXTRN	?GetFlavorValue@CvTechEntry@@QBEHH@Z:PROC	; CvTechEntry::GetFlavorValue
EXTRN	?GetEntry@CvTechXMLEntries@@QAEPAVCvTechEntry@@H@Z:PROC ; CvTechXMLEntries::GetEntry
EXTRN	__alloca_probe_16:PROC
; Function compile flags: /Odtp
;	COMDAT ?AddFlavorWeights@CvTechAI@@QAEXW4FlavorTypes@@HH@Z
_TEXT	SEGMENT
tv175 = -44						; size = 4
tv71 = -40						; size = 4
_this$ = -36						; size = 4
$T221680 = -32						; size = 4
__$ArrayPad$ = -28					; size = 4
_entry$217614 = -24					; size = 4
_iTech$217610 = -20					; size = 4
_entry$217608 = -16					; size = 4
_eTech$217606 = -12					; size = 4
_iTech$217602 = -8					; size = 4
_paiTempWeights$ = -4					; size = 4
_eFlavor$ = 8						; size = 4
_iWeight$ = 12						; size = 4
_iPropagationPercent$ = 16				; size = 4
?AddFlavorWeights@CvTechAI@@QAEXW4FlavorTypes@@HH@Z PROC ; CvTechAI::AddFlavorWeights, COMDAT
; _this$ = ecx

; 104  : {

	push	ebp
	mov	ebp, esp
	sub	esp, 44					; 0000002cH
	mov	eax, DWORD PTR ___security_cookie
	xor	eax, ebp
	mov	DWORD PTR __$ArrayPad$[ebp], eax
	mov	DWORD PTR _this$[ebp], ecx

; 105  : #ifdef AUI_WARNING_FIXES
; 106  : 	FFastVector<int, true> paiTempWeights;
; 107  : 	paiTempWeights.reserve(m_pCurrentTechs->GetTechs()->GetNumTechs());
; 108  : #else
; 109  : 	int* paiTempWeights;
; 110  : 
; 111  : 	// Create a temporary array of weights
; 112  : 	paiTempWeights = (int*)_alloca(sizeof(int) * m_pCurrentTechs->GetTechs()->GetNumTechs());

	mov	eax, DWORD PTR _this$[ebp]
	mov	ecx, DWORD PTR [eax]
	call	?GetTechs@CvPlayerTechs@@QBEPAVCvTechXMLEntries@@XZ ; CvPlayerTechs::GetTechs
	mov	ecx, eax
	call	?GetNumTechs@CvTechXMLEntries@@QAEHXZ	; CvTechXMLEntries::GetNumTechs
	shl	eax, 2
	call	__alloca_probe_16
	mov	DWORD PTR tv71[ebp], esp
	mov	ecx, DWORD PTR tv71[ebp]
	mov	DWORD PTR _paiTempWeights$[ebp], ecx

; 113  : #endif
; 114  : 
; 115  : 	// Loop through all our techs
; 116  : #ifdef AUI_WARNING_FIXES
; 117  : 	for (uint iTech = 0; iTech < m_pCurrentTechs->GetTechs()->GetNumTechs(); iTech++)
; 118  : #else
; 119  : 	for(int iTech = 0; iTech < m_pCurrentTechs->GetTechs()->GetNumTechs(); iTech++)

	mov	DWORD PTR _iTech$217602[ebp], 0
	jmp	SHORT $LN8@AddFlavorW
$LN7@AddFlavorW:
	mov	edx, DWORD PTR _iTech$217602[ebp]
	add	edx, 1
	mov	DWORD PTR _iTech$217602[ebp], edx
$LN8@AddFlavorW:
	mov	eax, DWORD PTR _this$[ebp]
	mov	ecx, DWORD PTR [eax]
	call	?GetTechs@CvPlayerTechs@@QBEPAVCvTechXMLEntries@@XZ ; CvPlayerTechs::GetTechs
	mov	ecx, eax
	call	?GetNumTechs@CvTechXMLEntries@@QAEHXZ	; CvTechXMLEntries::GetNumTechs
	cmp	DWORD PTR _iTech$217602[ebp], eax
	jge	$LN6@AddFlavorW

; 120  : #endif
; 121  : 	{
; 122  : 		const TechTypes eTech = static_cast<TechTypes>(iTech);

	mov	ecx, DWORD PTR _iTech$217602[ebp]
	mov	DWORD PTR _eTech$217606[ebp], ecx

; 123  : 		CvTechEntry* entry = m_pCurrentTechs->GetTechs()->GetEntry(iTech);

	mov	edx, DWORD PTR _iTech$217602[ebp]
	push	edx
	mov	eax, DWORD PTR _this$[ebp]
	mov	ecx, DWORD PTR [eax]
	call	?GetTechs@CvPlayerTechs@@QBEPAVCvTechXMLEntries@@XZ ; CvPlayerTechs::GetTechs
	mov	ecx, eax
	call	?GetEntry@CvTechXMLEntries@@QAEPAVCvTechEntry@@H@Z ; CvTechXMLEntries::GetEntry
	mov	DWORD PTR _entry$217608[ebp], eax

; 124  : 		if (entry)

	cmp	DWORD PTR _entry$217608[ebp], 0
	je	SHORT $LN5@AddFlavorW

; 125  : 		{
; 126  : #ifdef AUI_WARNING_FIXES
; 127  : 			// Set its weight by looking at tech's weight for this flavor and using iWeight multiplier passed in
; 128  : 			int iLoopWeight = entry->GetFlavorValue(eFlavor) * iWeight;
; 129  : 
; 130  : 			// Multiply the weight by any special player-specific weighting (i.e. to prioritize civ unique bonuses)
; 131  : 			iLoopWeight *= m_pCurrentTechs->GetPlayer()->GetPlayerTechs()->GetCivTechPriority(eTech);
; 132  : 
; 133  : 			// Multiply the weight by any locale-specific weighting (i.e. to prioritize unlocking resources)
; 134  : 			iLoopWeight *= m_pCurrentTechs->GetPlayer()->GetPlayerTechs()->GetLocaleTechPriority(eTech);
; 135  : 
; 136  : 			paiTempWeights.push_back(iLoopWeight);
; 137  : 		}
; 138  : 		else
; 139  : 			paiTempWeights.push_back(0);
; 140  : #else
; 141  : 			// Set its weight by looking at tech's weight for this flavor and using iWeight multiplier passed in
; 142  : 			paiTempWeights[iTech] = entry->GetFlavorValue(eFlavor) * iWeight;

	mov	ecx, DWORD PTR _eFlavor$[ebp]
	push	ecx
	mov	ecx, DWORD PTR _entry$217608[ebp]
	call	?GetFlavorValue@CvTechEntry@@QBEHH@Z	; CvTechEntry::GetFlavorValue
	imul	eax, DWORD PTR _iWeight$[ebp]
	mov	edx, DWORD PTR _iTech$217602[ebp]
	mov	ecx, DWORD PTR _paiTempWeights$[ebp]
	mov	DWORD PTR [ecx+edx*4], eax

; 143  : 
; 144  : 			// Multiply the weight by any special player-specific weighting (i.e. to prioritize civ unique bonuses)
; 145  : 			paiTempWeights[iTech] *= m_pCurrentTechs->GetPlayer()->GetPlayerTechs()->GetCivTechPriority(eTech);

	mov	edx, DWORD PTR _eTech$217606[ebp]
	push	edx
	mov	eax, DWORD PTR _this$[ebp]
	mov	ecx, DWORD PTR [eax]
	call	?GetPlayer@CvPlayerTechs@@QAEPAVCvPlayer@@XZ ; CvPlayerTechs::GetPlayer
	mov	ecx, eax
	call	?GetPlayerTechs@CvPlayer@@QBEPAVCvPlayerTechs@@XZ ; CvPlayer::GetPlayerTechs
	mov	ecx, eax
	call	?GetCivTechPriority@CvPlayerTechs@@QBEHW4TechTypes@@@Z ; CvPlayerTechs::GetCivTechPriority
	mov	ecx, DWORD PTR _iTech$217602[ebp]
	mov	edx, DWORD PTR _paiTempWeights$[ebp]
	imul	eax, DWORD PTR [edx+ecx*4]
	mov	ecx, DWORD PTR _iTech$217602[ebp]
	mov	edx, DWORD PTR _paiTempWeights$[ebp]
	mov	DWORD PTR [edx+ecx*4], eax

; 146  : 
; 147  : 			// Multiply the weight by any locale-specific weighting (i.e. to prioritize unlocking resources)
; 148  : 			paiTempWeights[iTech] *= m_pCurrentTechs->GetPlayer()->GetPlayerTechs()->GetLocaleTechPriority(eTech);

	mov	eax, DWORD PTR _eTech$217606[ebp]
	push	eax
	mov	ecx, DWORD PTR _this$[ebp]
	mov	ecx, DWORD PTR [ecx]
	call	?GetPlayer@CvPlayerTechs@@QAEPAVCvPlayer@@XZ ; CvPlayerTechs::GetPlayer
	mov	ecx, eax
	call	?GetPlayerTechs@CvPlayer@@QBEPAVCvPlayerTechs@@XZ ; CvPlayer::GetPlayerTechs
	mov	ecx, eax
	call	?GetLocaleTechPriority@CvPlayerTechs@@QBEHW4TechTypes@@@Z ; CvPlayerTechs::GetLocaleTechPriority
	mov	edx, DWORD PTR _iTech$217602[ebp]
	mov	ecx, DWORD PTR _paiTempWeights$[ebp]
	imul	eax, DWORD PTR [ecx+edx*4]
	mov	edx, DWORD PTR _iTech$217602[ebp]
	mov	ecx, DWORD PTR _paiTempWeights$[ebp]
	mov	DWORD PTR [ecx+edx*4], eax
$LN5@AddFlavorW:

; 149  : 		}
; 150  : #endif
; 151  : 	}

	jmp	$LN7@AddFlavorW
$LN6@AddFlavorW:

; 152  : 
; 153  : 	// Propagate these values left in the tree so prereqs get bought
; 154  : 	WeightPrereqs(paiTempWeights, iPropagationPercent);

	mov	edx, DWORD PTR _iPropagationPercent$[ebp]
	push	edx
	mov	eax, DWORD PTR _paiTempWeights$[ebp]
	push	eax
	mov	ecx, DWORD PTR _this$[ebp]
	call	?WeightPrereqs@CvTechAI@@AAEXPAHH@Z	; CvTechAI::WeightPrereqs

; 155  : 
; 156  : 	// Add these weights over previous ones
; 157  : #ifdef AUI_WARNING_FIXES
; 158  : 	for (uint iTech = 0; iTech < m_pCurrentTechs->GetTechs()->GetNumTechs(); iTech++)
; 159  : #else
; 160  : 	for(int iTech = 0; iTech < m_pCurrentTechs->GetTechs()->GetNumTechs(); iTech++)

	mov	DWORD PTR _iTech$217610[ebp], 0
	jmp	SHORT $LN4@AddFlavorW
$LN3@AddFlavorW:
	mov	ecx, DWORD PTR _iTech$217610[ebp]
	add	ecx, 1
	mov	DWORD PTR _iTech$217610[ebp], ecx
$LN4@AddFlavorW:
	mov	edx, DWORD PTR _this$[ebp]
	mov	ecx, DWORD PTR [edx]
	call	?GetTechs@CvPlayerTechs@@QBEPAVCvTechXMLEntries@@XZ ; CvPlayerTechs::GetTechs
	mov	ecx, eax
	call	?GetNumTechs@CvTechXMLEntries@@QAEHXZ	; CvTechXMLEntries::GetNumTechs
	cmp	DWORD PTR _iTech$217610[ebp], eax
	jge	SHORT $LN9@AddFlavorW

; 161  : #endif
; 162  : 	{
; 163  : 		CvTechEntry* entry = m_pCurrentTechs->GetTechs()->GetEntry(iTech);

	mov	eax, DWORD PTR _iTech$217610[ebp]
	push	eax
	mov	ecx, DWORD PTR _this$[ebp]
	mov	ecx, DWORD PTR [ecx]
	call	?GetTechs@CvPlayerTechs@@QBEPAVCvTechXMLEntries@@XZ ; CvPlayerTechs::GetTechs
	mov	ecx, eax
	call	?GetEntry@CvTechXMLEntries@@QAEPAVCvTechEntry@@H@Z ; CvTechXMLEntries::GetEntry
	mov	DWORD PTR _entry$217614[ebp], eax

; 164  : 		if(entry)

	cmp	DWORD PTR _entry$217614[ebp], 0
	je	SHORT $LN1@AddFlavorW

; 165  : 		{
; 166  : 			m_TechAIWeights.IncreaseWeight(iTech, paiTempWeights[iTech]);

	mov	edx, DWORD PTR _iTech$217610[ebp]
	mov	eax, DWORD PTR _paiTempWeights$[ebp]
	mov	ecx, DWORD PTR [eax+edx*4]
	mov	DWORD PTR $T221680[ebp], ecx
	mov	edx, DWORD PTR _this$[ebp]
	mov	eax, DWORD PTR [edx+4]
	mov	ecx, DWORD PTR _iTech$217610[ebp]
	lea	edx, DWORD PTR [eax+ecx*8+4]
	mov	DWORD PTR tv175[ebp], edx
	mov	eax, DWORD PTR tv175[ebp]
	mov	ecx, DWORD PTR [eax]
	add	ecx, DWORD PTR $T221680[ebp]
	mov	edx, DWORD PTR tv175[ebp]
	mov	DWORD PTR [edx], ecx
$LN1@AddFlavorW:

; 167  : 		}

	jmp	SHORT $LN3@AddFlavorW
$LN9@AddFlavorW:

; 168  : 	}
; 169  : }

	lea	esp, DWORD PTR [ebp-44]
	mov	ecx, DWORD PTR __$ArrayPad$[ebp]
	xor	ecx, ebp
	call	@__security_check_cookie@4
	mov	esp, ebp
	pop	ebp
	ret	12					; 0000000cH
?AddFlavorWeights@CvTechAI@@QAEXW4FlavorTypes@@HH@Z ENDP ; CvTechAI::AddFlavorWeights
_TEXT	ENDS
PUBLIC	?LogResearchChoice@CvTechAI@@AAEXW4TechTypes@@@Z ; CvTechAI::LogResearchChoice
PUBLIC	?ChooseFromTopChoices@?$CvWeightedVector@H$0FA@$00@@QAEHHPAV?$FastDelegate2@HPBDH@fastdelegate@@PBD@Z ; CvWeightedVector<int,80,1>::ChooseFromTopChoices
PUBLIC	??_C@_0BP@CFJNLAOG@Choosing?5tech?5from?5Top?5Choices?$AA@ ; `string'
PUBLIC	?GetTotalWeight@?$CvWeightedVector@H$0FA@$00@@QAEHXZ ; CvWeightedVector<int,80,1>::GetTotalWeight
PUBLIC	?LogPossibleResearch@CvTechAI@@AAEXXZ		; CvTechAI::LogPossibleResearch
PUBLIC	??$_Sort@PAUWeightedElement@?$CvWeightedVector@H$0FA@$00@@H@std@@YAXPAUWeightedElement@?$CvWeightedVector@H$0FA@$00@@0H@Z ; std::_Sort<CvWeightedVector<int,80,1>::WeightedElement *,int>
PUBLIC	?ReweightByCost@CvTechAI@@AAEXPAVCvPlayer@@@Z	; CvTechAI::ReweightByCost
PUBLIC	??$MakeDelegate@VCvGame@@V1@HPBDH@fastdelegate@@YA?AV?$FastDelegate2@HPBDH@0@PAVCvGame@@P82@AEHHPBD@Z@Z ; fastdelegate::MakeDelegate<CvGame,CvGame,int,char const *,int>
PUBLIC	?ChooseNextTech@CvTechAI@@QAE?AW4TechTypes@@PAVCvPlayer@@_N@Z ; CvTechAI::ChooseNextTech
EXTRN	?GetTechNumOptions@CvHandicapInfo@@QBEHXZ:PROC	; CvHandicapInfo::GetTechNumOptions
EXTRN	?getHandicapInfo@CvGame@@QBEAAVCvHandicapInfo@@XZ:PROC ; CvGame::getHandicapInfo
EXTRN	?CanResearchForFree@CvPlayerTechs@@QBE_NW4TechTypes@@@Z:PROC ; CvPlayerTechs::CanResearchForFree
EXTRN	?CanResearch@CvPlayerTechs@@QBE_NW4TechTypes@@_N@Z:PROC ; CvPlayerTechs::CanResearch
EXTRN	?getJonRandNum@CvGame@@QAEHHPBD@Z:PROC		; CvGame::getJonRandNum
EXTRN	?gGlobals@@3VCvGlobals@@A:BYTE			; gGlobals
;	COMDAT ??_C@_0BP@CFJNLAOG@Choosing?5tech?5from?5Top?5Choices?$AA@
; File d:\sources\lekmod_git\checkout\lekmod_dll\fireplace\include\fireworks\ffastvector.h
CONST	SEGMENT
??_C@_0BP@CFJNLAOG@Choosing?5tech?5from?5Top?5Choices?$AA@ DB 'Choosing t'
	DB	'ech from Top Choices', 00H			; `string'
; Function compile flags: /Odtp
; File d:\sources\lekmod_git\checkout\lekmod_dll\cvgamecoredll_expansion2\cvtechai.cpp
CONST	ENDS
;	COMDAT ?ChooseNextTech@CvTechAI@@QAE?AW4TechTypes@@PAVCvPlayer@@_N@Z
_TEXT	SEGMENT
_this$ = -172						; size = 4
$T221849 = -132						; size = 4
$T221833 = -104						; size = 4
$T221821 = -100						; size = 4
$T221817 = -96						; size = 4
$T221812 = -92						; size = 4
_weightedElem$221808 = -88				; size = 8
$T221802 = -80						; size = 4
_elem$221796 = -76					; size = 8
$T221787 = -68						; size = 4
_weightedElem$221783 = -64				; size = 8
$T221777 = -56						; size = 4
_elem$221771 = -52					; size = 8
$T221762 = -44						; size = 4
_i$221757 = -40						; size = 4
$T221731 = -36						; size = 4
$T221715 = -32						; size = 4
$T221684 = -28						; size = 8
_iNumChoices$217787 = -20				; size = 4
_fcn$ = -16						; size = 8
_rtnValue$ = -8						; size = 4
_iTechLoop$ = -4					; size = 4
_pPlayer$ = 8						; size = 4
_bFreeTech$ = 12					; size = 1
?ChooseNextTech@CvTechAI@@QAE?AW4TechTypes@@PAVCvPlayer@@_N@Z PROC ; CvTechAI::ChooseNextTech, COMDAT
; _this$ = ecx

; 174  : {

	push	ebp
	mov	ebp, esp
	sub	esp, 172				; 000000acH
	mov	DWORD PTR _this$[ebp], ecx

; 175  : 	RandomNumberDelegate fcn;

	mov	DWORD PTR _fcn$[ebp], 0
	mov	DWORD PTR _fcn$[ebp+4], 0
	mov	DWORD PTR _fcn$[ebp], 0
	mov	DWORD PTR _fcn$[ebp+4], 0

; 176  : 	TechTypes rtnValue = NO_TECH;

	mov	DWORD PTR _rtnValue$[ebp], -1

; 177  : #ifdef AUI_WARNING_FIXES
; 178  : 	uint iTechLoop;
; 179  : #else
; 180  : 	int iTechLoop;
; 181  : #endif
; 182  : 
; 183  : 	// Use the synchronous random number generate
; 184  : 	// Asynchronous one would be:
; 185  : 	//	fcn = MakeDelegate (&GC.getGame(), &CvGame::getAsyncRandNum);
; 186  : 	fcn = MakeDelegate(&GC.getGame(), &CvGame::getJonRandNum);

	mov	eax, DWORD PTR ?gGlobals@@3VCvGlobals@@A+48
	mov	DWORD PTR $T221715[ebp], eax
	push	OFFSET ?getJonRandNum@CvGame@@QAEHHPBD@Z ; CvGame::getJonRandNum
	mov	ecx, DWORD PTR $T221715[ebp]
	push	ecx
	lea	edx, DWORD PTR $T221684[ebp]
	push	edx
	call	??$MakeDelegate@VCvGame@@V1@HPBDH@fastdelegate@@YA?AV?$FastDelegate2@HPBDH@0@PAVCvGame@@P82@AEHHPBD@Z@Z ; fastdelegate::MakeDelegate<CvGame,CvGame,int,char const *,int>
	add	esp, 12					; 0000000cH
	mov	DWORD PTR $T221731[ebp], eax
	mov	eax, DWORD PTR $T221731[ebp]
	mov	ecx, DWORD PTR [eax+4]
	mov	DWORD PTR _fcn$[ebp+4], ecx
	mov	edx, DWORD PTR $T221731[ebp]
	mov	eax, DWORD PTR [edx]
	mov	DWORD PTR _fcn$[ebp], eax

; 187  : 
; 188  : 	// Create a new vector holding only techs we can currently research
; 189  : 	m_ResearchableTechs.clear();

	mov	ecx, DWORD PTR _this$[ebp]
	add	ecx, 660				; 00000294H
	mov	DWORD PTR $T221762[ebp], ecx
	xor	edx, edx
	je	SHORT $LN38@ChooseNext
	mov	DWORD PTR _i$221757[ebp], 0
	jmp	SHORT $LN36@ChooseNext
$LN35@ChooseNext:
	mov	eax, DWORD PTR _i$221757[ebp]
	add	eax, 1
	mov	DWORD PTR _i$221757[ebp], eax
$LN36@ChooseNext:
	mov	ecx, DWORD PTR $T221762[ebp]
	mov	edx, DWORD PTR _i$221757[ebp]
	cmp	edx, DWORD PTR [ecx+4]
	jae	SHORT $LN38@ChooseNext
	jmp	SHORT $LN35@ChooseNext
$LN38@ChooseNext:
	mov	eax, DWORD PTR $T221762[ebp]
	mov	DWORD PTR [eax+4], 0

; 190  : 
; 191  : 	// Loop through adding the researchable techs
; 192  : 	for(iTechLoop = 0; iTechLoop < m_pCurrentTechs->GetTechs()->GetNumTechs(); iTechLoop++)

	mov	DWORD PTR _iTechLoop$[ebp], 0
	jmp	SHORT $LN9@ChooseNext
$LN8@ChooseNext:
	mov	ecx, DWORD PTR _iTechLoop$[ebp]
	add	ecx, 1
	mov	DWORD PTR _iTechLoop$[ebp], ecx
$LN9@ChooseNext:
	mov	edx, DWORD PTR _this$[ebp]
	mov	ecx, DWORD PTR [edx]
	call	?GetTechs@CvPlayerTechs@@QBEPAVCvTechXMLEntries@@XZ ; CvPlayerTechs::GetTechs
	mov	ecx, eax
	call	?GetNumTechs@CvTechXMLEntries@@QAEHXZ	; CvTechXMLEntries::GetNumTechs
	cmp	DWORD PTR _iTechLoop$[ebp], eax
	jge	$LN7@ChooseNext

; 193  : 	{
; 194  : 		if(m_pCurrentTechs->CanResearch((TechTypes)iTechLoop))

	push	0
	mov	eax, DWORD PTR _iTechLoop$[ebp]
	push	eax
	mov	ecx, DWORD PTR _this$[ebp]
	mov	ecx, DWORD PTR [ecx]
	call	?CanResearch@CvPlayerTechs@@QBE_NW4TechTypes@@_N@Z ; CvPlayerTechs::CanResearch
	movzx	edx, al
	test	edx, edx
	je	$LN6@ChooseNext

; 195  : 		{
; 196  : 			// For free techs, need an additional check
; 197  : 			if(bFreeTech)

	movzx	eax, BYTE PTR _bFreeTech$[ebp]
	test	eax, eax
	je	SHORT $LN5@ChooseNext

; 198  : 			{
; 199  : 				if(m_pCurrentTechs->CanResearchForFree((TechTypes)iTechLoop))

	mov	ecx, DWORD PTR _iTechLoop$[ebp]
	push	ecx
	mov	edx, DWORD PTR _this$[ebp]
	mov	ecx, DWORD PTR [edx]
	call	?CanResearchForFree@CvPlayerTechs@@QBE_NW4TechTypes@@@Z ; CvPlayerTechs::CanResearchForFree
	movzx	eax, al
	test	eax, eax
	je	SHORT $LN4@ChooseNext

; 200  : 				{
; 201  : 					m_ResearchableTechs.push_back(iTechLoop, m_TechAIWeights.GetWeight(iTechLoop));

	mov	ecx, DWORD PTR _iTechLoop$[ebp]
	mov	DWORD PTR $T221777[ebp], ecx
	mov	DWORD PTR _elem$221771[ebp], 0
	mov	DWORD PTR _elem$221771[ebp+4], 0
	mov	edx, DWORD PTR _this$[ebp]
	mov	eax, DWORD PTR [edx+4]
	mov	ecx, DWORD PTR $T221777[ebp]
	mov	edx, DWORD PTR [eax+ecx*8]
	mov	eax, DWORD PTR [eax+ecx*8+4]
	mov	DWORD PTR _elem$221771[ebp], edx
	mov	DWORD PTR _elem$221771[ebp+4], eax
	mov	ecx, DWORD PTR _elem$221771[ebp+4]
	mov	DWORD PTR $T221787[ebp], ecx
	mov	DWORD PTR _weightedElem$221783[ebp], 0
	mov	DWORD PTR _weightedElem$221783[ebp+4], 0
	mov	edx, DWORD PTR _iTechLoop$[ebp]
	mov	DWORD PTR _weightedElem$221783[ebp], edx
	mov	eax, DWORD PTR $T221787[ebp]
	mov	DWORD PTR _weightedElem$221783[ebp+4], eax
	lea	ecx, DWORD PTR _weightedElem$221783[ebp]
	push	ecx
	mov	ecx, DWORD PTR _this$[ebp]
	add	ecx, 660				; 00000294H
	call	?push_back@?$FStaticVector@UWeightedElement@?$CvWeightedVector@H$0FA@$00@@$0FA@$00$0A@$0A@@@QAEIABUWeightedElement@?$CvWeightedVector@H$0FA@$00@@@Z ; FStaticVector<CvWeightedVector<int,80,1>::WeightedElement,80,1,0,0>::push_back
$LN4@ChooseNext:

; 202  : 				}
; 203  : 			}
; 204  : 			else

	jmp	SHORT $LN6@ChooseNext
$LN5@ChooseNext:

; 205  : 			{
; 206  : 				m_ResearchableTechs.push_back(iTechLoop, m_TechAIWeights.GetWeight(iTechLoop));

	mov	edx, DWORD PTR _iTechLoop$[ebp]
	mov	DWORD PTR $T221802[ebp], edx
	mov	DWORD PTR _elem$221796[ebp], 0
	mov	DWORD PTR _elem$221796[ebp+4], 0
	mov	eax, DWORD PTR _this$[ebp]
	mov	ecx, DWORD PTR [eax+4]
	mov	edx, DWORD PTR $T221802[ebp]
	mov	eax, DWORD PTR [ecx+edx*8]
	mov	ecx, DWORD PTR [ecx+edx*8+4]
	mov	DWORD PTR _elem$221796[ebp], eax
	mov	DWORD PTR _elem$221796[ebp+4], ecx
	mov	edx, DWORD PTR _elem$221796[ebp+4]
	mov	DWORD PTR $T221812[ebp], edx
	mov	DWORD PTR _weightedElem$221808[ebp], 0
	mov	DWORD PTR _weightedElem$221808[ebp+4], 0
	mov	eax, DWORD PTR _iTechLoop$[ebp]
	mov	DWORD PTR _weightedElem$221808[ebp], eax
	mov	ecx, DWORD PTR $T221812[ebp]
	mov	DWORD PTR _weightedElem$221808[ebp+4], ecx
	lea	edx, DWORD PTR _weightedElem$221808[ebp]
	push	edx
	mov	ecx, DWORD PTR _this$[ebp]
	add	ecx, 660				; 00000294H
	call	?push_back@?$FStaticVector@UWeightedElement@?$CvWeightedVector@H$0FA@$00@@$0FA@$00$0A@$0A@@@QAEIABUWeightedElement@?$CvWeightedVector@H$0FA@$00@@@Z ; FStaticVector<CvWeightedVector<int,80,1>::WeightedElement,80,1,0,0>::push_back
$LN6@ChooseNext:

; 207  : 			}
; 208  : 		}
; 209  : 	}

	jmp	$LN8@ChooseNext
$LN7@ChooseNext:

; 210  : 
; 211  : 	// Reweight our possible choices by their cost, but only if cost is actually a factor!
; 212  : 	if(!bFreeTech)

	movzx	eax, BYTE PTR _bFreeTech$[ebp]
	test	eax, eax
	jne	SHORT $LN2@ChooseNext

; 213  : 		ReweightByCost(pPlayer);

	mov	ecx, DWORD PTR _pPlayer$[ebp]
	push	ecx
	mov	ecx, DWORD PTR _this$[ebp]
	call	?ReweightByCost@CvTechAI@@AAEXPAVCvPlayer@@@Z ; CvTechAI::ReweightByCost
$LN2@ChooseNext:

; 214  : 
; 215  : 	m_ResearchableTechs.SortItems();

	mov	edx, DWORD PTR _this$[ebp]
	add	edx, 660				; 00000294H
	mov	DWORD PTR $T221833[ebp], edx
	mov	eax, DWORD PTR $T221833[ebp]
	mov	ecx, DWORD PTR [eax+4]
	mov	edx, DWORD PTR $T221833[ebp]
	mov	eax, DWORD PTR [edx]
	lea	ecx, DWORD PTR [eax+ecx*8]
	mov	DWORD PTR $T221817[ebp], ecx
	mov	edx, DWORD PTR $T221833[ebp]
	mov	eax, DWORD PTR [edx]
	mov	DWORD PTR $T221821[ebp], eax
	mov	ecx, DWORD PTR $T221817[ebp]
	sub	ecx, DWORD PTR $T221821[ebp]
	sar	ecx, 3
	push	ecx
	mov	edx, DWORD PTR $T221817[ebp]
	push	edx
	mov	eax, DWORD PTR $T221821[ebp]
	push	eax
	call	??$_Sort@PAUWeightedElement@?$CvWeightedVector@H$0FA@$00@@H@std@@YAXPAUWeightedElement@?$CvWeightedVector@H$0FA@$00@@0H@Z ; std::_Sort<CvWeightedVector<int,80,1>::WeightedElement *,int>
	add	esp, 12					; 0000000cH

; 216  : 	LogPossibleResearch();

	mov	ecx, DWORD PTR _this$[ebp]
	call	?LogPossibleResearch@CvTechAI@@AAEXXZ	; CvTechAI::LogPossibleResearch

; 217  : 
; 218  : 	// If total weight is above 0, choose one above a threshold
; 219  : 	if(m_ResearchableTechs.GetTotalWeight() > 0)

	mov	ecx, DWORD PTR _this$[ebp]
	add	ecx, 660				; 00000294H
	call	?GetTotalWeight@?$CvWeightedVector@H$0FA@$00@@QAEHXZ ; CvWeightedVector<int,80,1>::GetTotalWeight
	test	eax, eax
	jle	SHORT $LN1@ChooseNext

; 220  : 	{
; 221  : 		int iNumChoices =GC.getGame().getHandicapInfo().GetTechNumOptions();

	mov	ecx, DWORD PTR ?gGlobals@@3VCvGlobals@@A+48
	mov	DWORD PTR $T221849[ebp], ecx
	mov	ecx, DWORD PTR $T221849[ebp]
	call	?getHandicapInfo@CvGame@@QBEAAVCvHandicapInfo@@XZ ; CvGame::getHandicapInfo
	mov	ecx, eax
	call	?GetTechNumOptions@CvHandicapInfo@@QBEHXZ ; CvHandicapInfo::GetTechNumOptions
	mov	DWORD PTR _iNumChoices$217787[ebp], eax

; 222  : 		rtnValue = (TechTypes) m_ResearchableTechs.ChooseFromTopChoices(iNumChoices, &fcn, "Choosing tech from Top Choices");

	push	OFFSET ??_C@_0BP@CFJNLAOG@Choosing?5tech?5from?5Top?5Choices?$AA@
	lea	edx, DWORD PTR _fcn$[ebp]
	push	edx
	mov	eax, DWORD PTR _iNumChoices$217787[ebp]
	push	eax
	mov	ecx, DWORD PTR _this$[ebp]
	add	ecx, 660				; 00000294H
	call	?ChooseFromTopChoices@?$CvWeightedVector@H$0FA@$00@@QAEHHPAV?$FastDelegate2@HPBDH@fastdelegate@@PBD@Z ; CvWeightedVector<int,80,1>::ChooseFromTopChoices
	mov	DWORD PTR _rtnValue$[ebp], eax

; 223  : 		LogResearchChoice(rtnValue);

	mov	ecx, DWORD PTR _rtnValue$[ebp]
	push	ecx
	mov	ecx, DWORD PTR _this$[ebp]
	call	?LogResearchChoice@CvTechAI@@AAEXW4TechTypes@@@Z ; CvTechAI::LogResearchChoice
$LN1@ChooseNext:

; 224  : 	}
; 225  : 
; 226  : 	return rtnValue;

	mov	eax, DWORD PTR _rtnValue$[ebp]

; 227  : }

	mov	esp, ebp
	pop	ebp
	ret	8
?ChooseNextTech@CvTechAI@@QAE?AW4TechTypes@@PAVCvPlayer@@_N@Z ENDP ; CvTechAI::ChooseNextTech
_TEXT	ENDS
PUBLIC	?RecommendNextTech@CvTechAI@@QAE?AW4TechTypes@@PAVCvPlayer@@W42@@Z ; CvTechAI::RecommendNextTech
; Function compile flags: /Odtp
;	COMDAT ?RecommendNextTech@CvTechAI@@QAE?AW4TechTypes@@PAVCvPlayer@@W42@@Z
_TEXT	SEGMENT
_this$ = -100						; size = 4
$T221985 = -72						; size = 4
$T221961 = -56						; size = 4
$T221957 = -52						; size = 4
$T221952 = -48						; size = 4
_weightedElem$221948 = -36				; size = 8
$T221930 = -28						; size = 4
_elem$221924 = -24					; size = 8
$T221915 = -16						; size = 4
_i$221910 = -12						; size = 4
_rtnValue$ = -8						; size = 4
_iTechLoop$ = -4					; size = 4
_pPlayer$ = 8						; size = 4
_eIgnoreTech$ = 12					; size = 4
?RecommendNextTech@CvTechAI@@QAE?AW4TechTypes@@PAVCvPlayer@@W42@@Z PROC ; CvTechAI::RecommendNextTech, COMDAT
; _this$ = ecx

; 231  : {

	push	ebp
	mov	ebp, esp
	sub	esp, 100				; 00000064H
	mov	DWORD PTR _this$[ebp], ecx

; 232  : 	TechTypes rtnValue = NO_TECH;

	mov	DWORD PTR _rtnValue$[ebp], -1

; 233  : #ifdef AUI_WARNING_FIXES
; 234  : 	uint iTechLoop;
; 235  : #else
; 236  : 	int iTechLoop;
; 237  : #endif
; 238  : 
; 239  : 	// Create a new vector holding only techs we can currently research
; 240  : 	m_ResearchableTechs.clear();

	mov	eax, DWORD PTR _this$[ebp]
	add	eax, 660				; 00000294H
	mov	DWORD PTR $T221915[ebp], eax
	xor	ecx, ecx
	je	SHORT $LN16@RecommendN
	mov	DWORD PTR _i$221910[ebp], 0
	jmp	SHORT $LN14@RecommendN
$LN13@RecommendN:
	mov	edx, DWORD PTR _i$221910[ebp]
	add	edx, 1
	mov	DWORD PTR _i$221910[ebp], edx
$LN14@RecommendN:
	mov	eax, DWORD PTR $T221915[ebp]
	mov	ecx, DWORD PTR _i$221910[ebp]
	cmp	ecx, DWORD PTR [eax+4]
	jae	SHORT $LN16@RecommendN
	jmp	SHORT $LN13@RecommendN
$LN16@RecommendN:
	mov	edx, DWORD PTR $T221915[ebp]
	mov	DWORD PTR [edx+4], 0

; 241  : 
; 242  : 	// Loop through adding the researchable techs
; 243  : 	for(iTechLoop = 0; iTechLoop < m_pCurrentTechs->GetTechs()->GetNumTechs(); iTechLoop++)

	mov	DWORD PTR _iTechLoop$[ebp], 0
	jmp	SHORT $LN5@RecommendN
$LN4@RecommendN:
	mov	eax, DWORD PTR _iTechLoop$[ebp]
	add	eax, 1
	mov	DWORD PTR _iTechLoop$[ebp], eax
$LN5@RecommendN:
	mov	ecx, DWORD PTR _this$[ebp]
	mov	ecx, DWORD PTR [ecx]
	call	?GetTechs@CvPlayerTechs@@QBEPAVCvTechXMLEntries@@XZ ; CvPlayerTechs::GetTechs
	mov	ecx, eax
	call	?GetNumTechs@CvTechXMLEntries@@QAEHXZ	; CvTechXMLEntries::GetNumTechs
	cmp	DWORD PTR _iTechLoop$[ebp], eax
	jge	$LN3@RecommendN

; 244  : 	{
; 245  : 		//if (m_pCurrentTechs->CanResearch((TechTypes) iTechLoop) &&
; 246  : 		//	iTechLoop != eIgnoreTech &&
; 247  : 		//	m_pCurrentTechs->GetTechs()->GetEntry(iTechLoop)->GetAdvisorType() != eIgnoreAdvisor)
; 248  : #ifdef AUI_WARNING_FIXES
; 249  : 		if (m_pCurrentTechs->CanResearch((TechTypes)iTechLoop) && (TechTypes)iTechLoop != eIgnoreTech)
; 250  : #else
; 251  : 		if(m_pCurrentTechs->CanResearch((TechTypes) iTechLoop) && iTechLoop != eIgnoreTech)

	push	0
	mov	edx, DWORD PTR _iTechLoop$[ebp]
	push	edx
	mov	eax, DWORD PTR _this$[ebp]
	mov	ecx, DWORD PTR [eax]
	call	?CanResearch@CvPlayerTechs@@QBE_NW4TechTypes@@_N@Z ; CvPlayerTechs::CanResearch
	movzx	ecx, al
	test	ecx, ecx
	je	SHORT $LN2@RecommendN
	mov	edx, DWORD PTR _iTechLoop$[ebp]
	cmp	edx, DWORD PTR _eIgnoreTech$[ebp]
	je	SHORT $LN2@RecommendN

; 252  : #endif
; 253  : 		{
; 254  : 			m_ResearchableTechs.push_back(iTechLoop, m_TechAIWeights.GetWeight(iTechLoop));

	mov	eax, DWORD PTR _iTechLoop$[ebp]
	mov	DWORD PTR $T221930[ebp], eax
	mov	DWORD PTR _elem$221924[ebp], 0
	mov	DWORD PTR _elem$221924[ebp+4], 0
	mov	ecx, DWORD PTR _this$[ebp]
	mov	edx, DWORD PTR [ecx+4]
	mov	eax, DWORD PTR $T221930[ebp]
	mov	ecx, DWORD PTR [edx+eax*8]
	mov	edx, DWORD PTR [edx+eax*8+4]
	mov	DWORD PTR _elem$221924[ebp], ecx
	mov	DWORD PTR _elem$221924[ebp+4], edx
	mov	eax, DWORD PTR _elem$221924[ebp+4]
	mov	DWORD PTR $T221952[ebp], eax
	mov	DWORD PTR _weightedElem$221948[ebp], 0
	mov	DWORD PTR _weightedElem$221948[ebp+4], 0
	mov	ecx, DWORD PTR _iTechLoop$[ebp]
	mov	DWORD PTR _weightedElem$221948[ebp], ecx
	mov	edx, DWORD PTR $T221952[ebp]
	mov	DWORD PTR _weightedElem$221948[ebp+4], edx
	lea	eax, DWORD PTR _weightedElem$221948[ebp]
	push	eax
	mov	ecx, DWORD PTR _this$[ebp]
	add	ecx, 660				; 00000294H
	call	?push_back@?$FStaticVector@UWeightedElement@?$CvWeightedVector@H$0FA@$00@@$0FA@$00$0A@$0A@@@QAEIABUWeightedElement@?$CvWeightedVector@H$0FA@$00@@@Z ; FStaticVector<CvWeightedVector<int,80,1>::WeightedElement,80,1,0,0>::push_back
$LN2@RecommendN:

; 255  : 		}
; 256  : 	}

	jmp	$LN4@RecommendN
$LN3@RecommendN:

; 257  : 
; 258  : 	ReweightByCost(pPlayer);

	mov	ecx, DWORD PTR _pPlayer$[ebp]
	push	ecx
	mov	ecx, DWORD PTR _this$[ebp]
	call	?ReweightByCost@CvTechAI@@AAEXPAVCvPlayer@@@Z ; CvTechAI::ReweightByCost

; 259  : 	m_ResearchableTechs.SortItems();

	mov	edx, DWORD PTR _this$[ebp]
	add	edx, 660				; 00000294H
	mov	DWORD PTR $T221985[ebp], edx
	mov	eax, DWORD PTR $T221985[ebp]
	mov	ecx, DWORD PTR [eax+4]
	mov	edx, DWORD PTR $T221985[ebp]
	mov	eax, DWORD PTR [edx]
	lea	ecx, DWORD PTR [eax+ecx*8]
	mov	DWORD PTR $T221957[ebp], ecx
	mov	edx, DWORD PTR $T221985[ebp]
	mov	eax, DWORD PTR [edx]
	mov	DWORD PTR $T221961[ebp], eax
	mov	ecx, DWORD PTR $T221957[ebp]
	sub	ecx, DWORD PTR $T221961[ebp]
	sar	ecx, 3
	push	ecx
	mov	edx, DWORD PTR $T221957[ebp]
	push	edx
	mov	eax, DWORD PTR $T221961[ebp]
	push	eax
	call	??$_Sort@PAUWeightedElement@?$CvWeightedVector@H$0FA@$00@@H@std@@YAXPAUWeightedElement@?$CvWeightedVector@H$0FA@$00@@0H@Z ; std::_Sort<CvWeightedVector<int,80,1>::WeightedElement *,int>
	add	esp, 12					; 0000000cH

; 260  : 	LogPossibleResearch();

	mov	ecx, DWORD PTR _this$[ebp]
	call	?LogPossibleResearch@CvTechAI@@AAEXXZ	; CvTechAI::LogPossibleResearch

; 261  : 
; 262  : 	// If total weight is above 0, choose top choice as recommendation
; 263  : 	if(m_ResearchableTechs.GetTotalWeight() > 0)

	mov	ecx, DWORD PTR _this$[ebp]
	add	ecx, 660				; 00000294H
	call	?GetTotalWeight@?$CvWeightedVector@H$0FA@$00@@QAEHXZ ; CvWeightedVector<int,80,1>::GetTotalWeight
	test	eax, eax
	jle	SHORT $LN1@RecommendN

; 264  : 	{
; 265  : 
; 266  : 		rtnValue = (TechTypes) m_ResearchableTechs.GetElement(0);

	xor	ecx, ecx
	shl	ecx, 3
	mov	edx, DWORD PTR _this$[ebp]
	mov	eax, DWORD PTR [edx+660]
	mov	ecx, DWORD PTR [ecx+eax]
	mov	DWORD PTR _rtnValue$[ebp], ecx

; 267  : 		LogResearchChoice(rtnValue);

	mov	edx, DWORD PTR _rtnValue$[ebp]
	push	edx
	mov	ecx, DWORD PTR _this$[ebp]
	call	?LogResearchChoice@CvTechAI@@AAEXW4TechTypes@@@Z ; CvTechAI::LogResearchChoice
$LN1@RecommendN:

; 268  : 	}
; 269  : 
; 270  : 	return rtnValue;

	mov	eax, DWORD PTR _rtnValue$[ebp]

; 271  : }

	mov	esp, ebp
	pop	ebp
	ret	8
?RecommendNextTech@CvTechAI@@QAE?AW4TechTypes@@PAVCvPlayer@@W42@@Z ENDP ; CvTechAI::RecommendNextTech
_TEXT	ENDS
PUBLIC	?GetWeight@CvTechAI@@QAEHW4TechTypes@@@Z	; CvTechAI::GetWeight
; Function compile flags: /Odtp
;	COMDAT ?GetWeight@CvTechAI@@QAEHW4TechTypes@@@Z
_TEXT	SEGMENT
_this$ = -12						; size = 4
_elem$222016 = -8					; size = 8
_eTech$ = 8						; size = 4
?GetWeight@CvTechAI@@QAEHW4TechTypes@@@Z PROC		; CvTechAI::GetWeight, COMDAT
; _this$ = ecx

; 275  : {

	push	ebp
	mov	ebp, esp
	sub	esp, 12					; 0000000cH
	mov	DWORD PTR _this$[ebp], ecx

; 276  : 	return m_TechAIWeights.GetWeight(eTech);

	mov	DWORD PTR _elem$222016[ebp], 0
	mov	DWORD PTR _elem$222016[ebp+4], 0
	mov	eax, DWORD PTR _this$[ebp]
	mov	ecx, DWORD PTR [eax+4]
	mov	edx, DWORD PTR _eTech$[ebp]
	mov	eax, DWORD PTR [ecx+edx*8]
	mov	ecx, DWORD PTR [ecx+edx*8+4]
	mov	DWORD PTR _elem$222016[ebp], eax
	mov	DWORD PTR _elem$222016[ebp+4], ecx
	mov	eax, DWORD PTR _elem$222016[ebp+4]

; 277  : }

	mov	esp, ebp
	pop	ebp
	ret	4
?GetWeight@CvTechAI@@QAEHW4TechTypes@@@Z ENDP		; CvTechAI::GetWeight
_TEXT	ENDS
PUBLIC	??1?$_Vector_val@ULeaderWithNumTechs@@V?$allocator@ULeaderWithNumTechs@@@std@@@std@@QAE@XZ ; std::_Vector_val<LeaderWithNumTechs,std::allocator<LeaderWithNumTechs> >::~_Vector_val<LeaderWithNumTechs,std::allocator<LeaderWithNumTechs> >
PUBLIC	??1?$vector@ULeaderWithNumTechs@@V?$allocator@ULeaderWithNumTechs@@@std@@@std@@QAE@XZ ; std::vector<LeaderWithNumTechs,std::allocator<LeaderWithNumTechs> >::~vector<LeaderWithNumTechs,std::allocator<LeaderWithNumTechs> >
PUBLIC	?_Tidy@?$vector@ULeaderWithNumTechs@@V?$allocator@ULeaderWithNumTechs@@@std@@@std@@IAEXXZ ; std::vector<LeaderWithNumTechs,std::allocator<LeaderWithNumTechs> >::_Tidy
PUBLIC	__real@00000000
PUBLIC	??$stable_sort@V?$_Vector_iterator@ULeaderWithNumTechs@@V?$allocator@ULeaderWithNumTechs@@@std@@@std@@ULeaderWithNumTechsEval@@@std@@YAXV?$_Vector_iterator@ULeaderWithNumTechs@@V?$allocator@ULeaderWithNumTechs@@@std@@@0@0ULeaderWithNumTechsEval@@@Z ; std::stable_sort<std::_Vector_iterator<LeaderWithNumTechs,std::allocator<LeaderWithNumTechs> >,LeaderWithNumTechsEval>
PUBLIC	?push_back@?$vector@ULeaderWithNumTechs@@V?$allocator@ULeaderWithNumTechs@@@std@@@std@@QAEXABULeaderWithNumTechs@@@Z ; std::vector<LeaderWithNumTechs,std::allocator<LeaderWithNumTechs> >::push_back
PUBLIC	??0?$vector@ULeaderWithNumTechs@@V?$allocator@ULeaderWithNumTechs@@@std@@@std@@QAE@XZ ; std::vector<LeaderWithNumTechs,std::allocator<LeaderWithNumTechs> >::vector<LeaderWithNumTechs,std::allocator<LeaderWithNumTechs> >
PUBLIC	?GetTechRatio@CvTechAI@@QAEMXZ			; CvTechAI::GetTechRatio
EXTRN	?GetNumTechsKnown@CvTeamTechs@@QBEHXZ:PROC	; CvTeamTechs::GetNumTechsKnown
EXTRN	?GetTeamTechs@CvTeam@@QBEPAVCvTeamTechs@@XZ:PROC ; CvTeam::GetTeamTechs
EXTRN	?m_aTeams@CvTeam@@1PAV1@A:DWORD			; CvTeam::m_aTeams
EXTRN	?m_aPlayers@CvPlayerAI@@1PAV1@A:DWORD		; CvPlayerAI::m_aPlayers
EXTRN	__fltused:DWORD
;	COMDAT __real@00000000
; File c:\program files (x86)\microsoft visual studio 9.0\vc\include\xutility
CONST	SEGMENT
__real@00000000 DD 000000000r			; 0
CONST	ENDS
;	COMDAT xdata$x
xdata$x	SEGMENT
__unwindtable$?GetTechRatio@CvTechAI@@QAEMXZ DD 0ffffffffH
	DD	FLAT:__unwindfunclet$?GetTechRatio@CvTechAI@@QAEMXZ$0
	DD	0ffffffffH
	DD	FLAT:__unwindfunclet$?GetTechRatio@CvTechAI@@QAEMXZ$3
__ehfuncinfo$?GetTechRatio@CvTechAI@@QAEMXZ DD 019930522H
	DD	02H
	DD	FLAT:__unwindtable$?GetTechRatio@CvTechAI@@QAEMXZ
	DD	2 DUP(00H)
	DD	2 DUP(00H)
	DD	00H
	DD	01H
; Function compile flags: /Odtp
; File d:\sources\lekmod_git\checkout\lekmod_dll\cvgamecoredll_expansion2\cvtechai.cpp
xdata$x	ENDS
;	COMDAT ?GetTechRatio@CvTechAI@@QAEMXZ
_TEXT	SEGMENT
_this$ = -236						; size = 4
$T222220 = -200						; size = 4
$T222219 = -196						; size = 4
$T222210 = -192						; size = 4
$T222126 = -140						; size = 4
$T222110 = -136						; size = 4
$T222065 = -108						; size = 4
$T222061 = -104						; size = 4
$T222052 = -100						; size = 4
$T222048 = -93						; size = 1
$T222039 = -92						; size = 4
$T222027 = -80						; size = 4
$T222026 = -76						; size = 4
$T222025 = -72						; size = 4
$T222024 = -65						; size = 1
_iDenominator$218308 = -64				; size = 4
_iNumerator$218307 = -60				; size = 4
_ui$218300 = -56					; size = 4
_ePlayer$218138 = -52					; size = 4
_kEvalChunk$218141 = -48				; size = 8
_ui$218134 = -40					; size = 4
_fTechPositionRatio$ = -36				; size = 4
_iPlayerIndexInList$ = -32				; size = 4
_aLeaderWithNumTechs$ = -28				; size = 16
__$EHRec$ = -12						; size = 12
?GetTechRatio@CvTechAI@@QAEMXZ PROC			; CvTechAI::GetTechRatio, COMDAT
; _this$ = ecx

; 294  : {

	push	ebp
	mov	ebp, esp
	push	-1
	push	__ehhandler$?GetTechRatio@CvTechAI@@QAEMXZ
	mov	eax, DWORD PTR fs:0
	push	eax
	sub	esp, 224				; 000000e0H
	mov	eax, DWORD PTR ___security_cookie
	xor	eax, ebp
	push	eax
	lea	eax, DWORD PTR __$EHRec$[ebp]
	mov	DWORD PTR fs:0, eax
	mov	DWORD PTR _this$[ebp], ecx

; 295  : 	// create list of all civs with the number of techs they control
; 296  : 	std::vector<LeaderWithNumTechs> aLeaderWithNumTechs;

	lea	ecx, DWORD PTR _aLeaderWithNumTechs$[ebp]
	call	??0?$vector@ULeaderWithNumTechs@@V?$allocator@ULeaderWithNumTechs@@@std@@@std@@QAE@XZ ; std::vector<LeaderWithNumTechs,std::allocator<LeaderWithNumTechs> >::vector<LeaderWithNumTechs,std::allocator<LeaderWithNumTechs> >
	mov	DWORD PTR __$EHRec$[ebp+8], 0

; 297  : 	for(uint ui = 0; ui < MAX_MAJOR_CIVS; ui++)

	mov	DWORD PTR _ui$218134[ebp], 0
	jmp	SHORT $LN9@GetTechRat
$LN8@GetTechRat:
	mov	eax, DWORD PTR _ui$218134[ebp]
	add	eax, 1
	mov	DWORD PTR _ui$218134[ebp], eax
$LN9@GetTechRat:
	cmp	DWORD PTR _ui$218134[ebp], 22		; 00000016H
	jae	$LN7@GetTechRat

; 298  : 	{
; 299  : 		PlayerTypes ePlayer = (PlayerTypes)ui;

	mov	ecx, DWORD PTR _ui$218134[ebp]
	mov	DWORD PTR _ePlayer$218138[ebp], ecx

; 300  : 		if(!GET_PLAYER(ePlayer).isAlive())

	mov	edx, DWORD PTR _ePlayer$218138[ebp]
	imul	edx, 63236				; 0000f704H
	add	edx, DWORD PTR ?m_aPlayers@CvPlayerAI@@1PAV1@A ; CvPlayerAI::m_aPlayers
	mov	DWORD PTR $T222039[ebp], edx
	mov	eax, DWORD PTR $T222039[ebp]
	mov	cl, BYTE PTR [eax+2256]
	mov	BYTE PTR $T222048[ebp], cl
	movzx	edx, BYTE PTR $T222048[ebp]
	test	edx, edx
	jne	SHORT $LN6@GetTechRat

; 301  : 		{
; 302  : 			continue;

	jmp	SHORT $LN8@GetTechRat
$LN6@GetTechRat:

; 303  : 		}
; 304  : 
; 305  : 		LeaderWithNumTechs kEvalChunk;
; 306  : 		kEvalChunk.m_iLeader = ui;

	mov	eax, DWORD PTR _ui$218134[ebp]
	mov	DWORD PTR _kEvalChunk$218141[ebp], eax

; 307  : 		kEvalChunk.m_iNumTechs = GET_TEAM(GET_PLAYER(ePlayer).getTeam()).GetTeamTechs()->GetNumTechsKnown();

	mov	ecx, DWORD PTR _ePlayer$218138[ebp]
	imul	ecx, 63236				; 0000f704H
	add	ecx, DWORD PTR ?m_aPlayers@CvPlayerAI@@1PAV1@A ; CvPlayerAI::m_aPlayers
	mov	DWORD PTR $T222052[ebp], ecx
	mov	edx, DWORD PTR $T222052[ebp]
	mov	eax, DWORD PTR [edx+44]
	push	eax
	call	?teamType@CvPreGame@@YA?AW4TeamTypes@@W4PlayerTypes@@@Z ; CvPreGame::teamType
	add	esp, 4
	mov	DWORD PTR $T222061[ebp], eax
	mov	ecx, DWORD PTR $T222061[ebp]
	imul	ecx, 2984				; 00000ba8H
	add	ecx, DWORD PTR ?m_aTeams@CvTeam@@1PAV1@A ; CvTeam::m_aTeams
	mov	DWORD PTR $T222065[ebp], ecx
	mov	ecx, DWORD PTR $T222065[ebp]
	call	?GetTeamTechs@CvTeam@@QBEPAVCvTeamTechs@@XZ ; CvTeam::GetTeamTechs
	mov	ecx, eax
	call	?GetNumTechsKnown@CvTeamTechs@@QBEHXZ	; CvTeamTechs::GetNumTechsKnown
	mov	DWORD PTR _kEvalChunk$218141[ebp+4], eax

; 308  : 		aLeaderWithNumTechs.push_back(kEvalChunk);

	lea	edx, DWORD PTR _kEvalChunk$218141[ebp]
	push	edx
	lea	ecx, DWORD PTR _aLeaderWithNumTechs$[ebp]
	call	?push_back@?$vector@ULeaderWithNumTechs@@V?$allocator@ULeaderWithNumTechs@@@std@@@std@@QAEXABULeaderWithNumTechs@@@Z ; std::vector<LeaderWithNumTechs,std::allocator<LeaderWithNumTechs> >::push_back

; 309  : 	}

	jmp	$LN8@GetTechRat
$LN7@GetTechRat:

; 310  : 
; 311  : 	std::stable_sort(aLeaderWithNumTechs.begin(), aLeaderWithNumTechs.end(), LeaderWithNumTechsEval());

	xor	eax, eax
	mov	BYTE PTR $T222024[ebp], al
	mov	ecx, DWORD PTR _aLeaderWithNumTechs$[ebp+8]
	mov	DWORD PTR $T222110[ebp], ecx
	mov	edx, DWORD PTR $T222110[ebp]
	mov	DWORD PTR $T222025[ebp], edx
	mov	eax, DWORD PTR _aLeaderWithNumTechs$[ebp+4]
	mov	DWORD PTR $T222126[ebp], eax
	mov	ecx, DWORD PTR $T222126[ebp]
	mov	DWORD PTR $T222026[ebp], ecx
	movzx	edx, BYTE PTR $T222024[ebp]
	push	edx
	mov	eax, DWORD PTR $T222025[ebp]
	push	eax
	mov	ecx, DWORD PTR $T222026[ebp]
	push	ecx
	call	??$stable_sort@V?$_Vector_iterator@ULeaderWithNumTechs@@V?$allocator@ULeaderWithNumTechs@@@std@@@std@@ULeaderWithNumTechsEval@@@std@@YAXV?$_Vector_iterator@ULeaderWithNumTechs@@V?$allocator@ULeaderWithNumTechs@@@std@@@0@0ULeaderWithNumTechsEval@@@Z ; std::stable_sort<std::_Vector_iterator<LeaderWithNumTechs,std::allocator<LeaderWithNumTechs> >,LeaderWithNumTechsEval>
	add	esp, 12					; 0000000cH

; 312  : 
; 313  : 	int iPlayerIndexInList = -1;

	mov	DWORD PTR _iPlayerIndexInList$[ebp], -1

; 314  : 	for(uint ui = 0; ui < aLeaderWithNumTechs.size(); ui++)

	mov	DWORD PTR _ui$218300[ebp], 0
	jmp	SHORT $LN5@GetTechRat
$LN4@GetTechRat:
	mov	edx, DWORD PTR _ui$218300[ebp]
	add	edx, 1
	mov	DWORD PTR _ui$218300[ebp], edx
$LN5@GetTechRat:
	mov	eax, DWORD PTR _aLeaderWithNumTechs$[ebp+8]
	sub	eax, DWORD PTR _aLeaderWithNumTechs$[ebp+4]
	sar	eax, 3
	cmp	DWORD PTR _ui$218300[ebp], eax
	jae	SHORT $LN3@GetTechRat

; 315  : 	{
; 316  : 		if(aLeaderWithNumTechs[ui].m_iLeader == m_pCurrentTechs->GetPlayer()->GetID())

	mov	ecx, DWORD PTR _aLeaderWithNumTechs$[ebp+4]
	mov	edx, DWORD PTR _ui$218300[ebp]
	lea	eax, DWORD PTR [ecx+edx*8]
	mov	DWORD PTR $T222210[ebp], eax
	mov	ecx, DWORD PTR _this$[ebp]
	mov	ecx, DWORD PTR [ecx]
	call	?GetPlayer@CvPlayerTechs@@QAEPAVCvPlayer@@XZ ; CvPlayerTechs::GetPlayer
	mov	DWORD PTR $T222219[ebp], eax
	mov	edx, DWORD PTR $T222219[ebp]
	mov	eax, DWORD PTR [edx+44]
	mov	DWORD PTR $T222220[ebp], eax
	mov	ecx, DWORD PTR $T222210[ebp]
	mov	edx, DWORD PTR [ecx]
	cmp	edx, DWORD PTR $T222220[ebp]
	jne	SHORT $LN2@GetTechRat

; 317  : 		{
; 318  : 			iPlayerIndexInList = ui;

	mov	eax, DWORD PTR _ui$218300[ebp]
	mov	DWORD PTR _iPlayerIndexInList$[ebp], eax

; 319  : 			break;

	jmp	SHORT $LN3@GetTechRat
$LN2@GetTechRat:

; 320  : 		}
; 321  : 	}

	jmp	SHORT $LN4@GetTechRat
$LN3@GetTechRat:

; 322  : 
; 323  : 	CvAssertMsg(iPlayerIndexInList != -1, "Could not find player in list");
; 324  : 	CvAssertMsg(aLeaderWithNumTechs.size() >= 2, "Only one player in the game? Huh?");
; 325  : 	float fTechPositionRatio = 0.0f;

	movss	xmm0, DWORD PTR __real@00000000
	movss	DWORD PTR _fTechPositionRatio$[ebp], xmm0

; 326  : 	if(aLeaderWithNumTechs.size() >= 2)

	mov	ecx, DWORD PTR _aLeaderWithNumTechs$[ebp+8]
	sub	ecx, DWORD PTR _aLeaderWithNumTechs$[ebp+4]
	sar	ecx, 3
	cmp	ecx, 2
	jb	SHORT $LN1@GetTechRat

; 327  : 	{
; 328  : 		int iNumerator = iPlayerIndexInList;

	mov	edx, DWORD PTR _iPlayerIndexInList$[ebp]
	mov	DWORD PTR _iNumerator$218307[ebp], edx

; 329  : 		int iDenominator = aLeaderWithNumTechs.size() - 1;

	mov	eax, DWORD PTR _aLeaderWithNumTechs$[ebp+8]
	sub	eax, DWORD PTR _aLeaderWithNumTechs$[ebp+4]
	sar	eax, 3
	sub	eax, 1
	mov	DWORD PTR _iDenominator$218308[ebp], eax

; 330  : 		fTechPositionRatio = iNumerator / (float)iDenominator;

	cvtsi2ss xmm0, DWORD PTR _iNumerator$218307[ebp]
	cvtsi2ss xmm1, DWORD PTR _iDenominator$218308[ebp]
	divss	xmm0, xmm1
	movss	DWORD PTR _fTechPositionRatio$[ebp], xmm0
$LN1@GetTechRat:

; 331  : 	}
; 332  : 
; 333  : 	return fTechPositionRatio;

	movss	xmm0, DWORD PTR _fTechPositionRatio$[ebp]
	movss	DWORD PTR $T222027[ebp], xmm0
	mov	DWORD PTR __$EHRec$[ebp+8], 1
	lea	ecx, DWORD PTR _aLeaderWithNumTechs$[ebp]
	call	?_Tidy@?$vector@ULeaderWithNumTechs@@V?$allocator@ULeaderWithNumTechs@@@std@@@std@@IAEXXZ ; std::vector<LeaderWithNumTechs,std::allocator<LeaderWithNumTechs> >::_Tidy
	mov	DWORD PTR __$EHRec$[ebp+8], -1
	fld	DWORD PTR $T222027[ebp]

; 334  : }

	mov	ecx, DWORD PTR __$EHRec$[ebp]
	mov	DWORD PTR fs:0, ecx
	pop	ecx
	mov	esp, ebp
	pop	ebp
	ret	0
_TEXT	ENDS
;	COMDAT text$x
text$x	SEGMENT
__unwindfunclet$?GetTechRatio@CvTechAI@@QAEMXZ$0:
	lea	ecx, DWORD PTR _aLeaderWithNumTechs$[ebp]
	jmp	??1?$vector@ULeaderWithNumTechs@@V?$allocator@ULeaderWithNumTechs@@@std@@@std@@QAE@XZ ; std::vector<LeaderWithNumTechs,std::allocator<LeaderWithNumTechs> >::~vector<LeaderWithNumTechs,std::allocator<LeaderWithNumTechs> >
__unwindfunclet$?GetTechRatio@CvTechAI@@QAEMXZ$3:
	lea	ecx, DWORD PTR _aLeaderWithNumTechs$[ebp]
	jmp	??1?$_Vector_val@ULeaderWithNumTechs@@V?$allocator@ULeaderWithNumTechs@@@std@@@std@@QAE@XZ
__ehhandler$?GetTechRatio@CvTechAI@@QAEMXZ:
	mov	edx, DWORD PTR [esp+8]
	lea	eax, DWORD PTR [edx+12]
	mov	ecx, DWORD PTR [edx-228]
	xor	ecx, eax
	call	@__security_check_cookie@4
	mov	eax, OFFSET __ehfuncinfo$?GetTechRatio@CvTechAI@@QAEMXZ
	jmp	___CxxFrameHandler3
text$x	ENDS
?GetTechRatio@CvTechAI@@QAEMXZ ENDP			; CvTechAI::GetTechRatio
PUBLIC	?PropagateWeights@CvTechAI@@AAEXHHHH@Z		; CvTechAI::PropagateWeights
; Function compile flags: /Odtp
;	COMDAT ?WeightPrereqs@CvTechAI@@AAEXPAHH@Z
_TEXT	SEGMENT
_this$ = -8						; size = 4
_iTechLoop$ = -4					; size = 4
_paiTempWeights$ = 8					; size = 4
_iPropagationPercent$ = 12				; size = 4
?WeightPrereqs@CvTechAI@@AAEXPAHH@Z PROC		; CvTechAI::WeightPrereqs, COMDAT
; _this$ = ecx

; 346  : {

	push	ebp
	mov	ebp, esp
	sub	esp, 8
	mov	DWORD PTR _this$[ebp], ecx

; 347  : 	int iTechLoop;
; 348  : #endif
; 349  : 
; 350  : 	// Loop through techs looking for ones that are just getting some new weight
; 351  : 	for(iTechLoop = 0; iTechLoop < m_pCurrentTechs->GetTechs()->GetNumTechs(); iTechLoop++)

	mov	DWORD PTR _iTechLoop$[ebp], 0
	jmp	SHORT $LN4@WeightPrer
$LN3@WeightPrer:
	mov	eax, DWORD PTR _iTechLoop$[ebp]
	add	eax, 1
	mov	DWORD PTR _iTechLoop$[ebp], eax
$LN4@WeightPrer:
	mov	ecx, DWORD PTR _this$[ebp]
	mov	ecx, DWORD PTR [ecx]
	call	?GetTechs@CvPlayerTechs@@QBEPAVCvTechXMLEntries@@XZ ; CvPlayerTechs::GetTechs
	mov	ecx, eax
	call	?GetNumTechs@CvTechXMLEntries@@QAEHXZ	; CvTechXMLEntries::GetNumTechs
	cmp	DWORD PTR _iTechLoop$[ebp], eax
	jge	SHORT $LN5@WeightPrer

; 352  : 	{
; 353  : 		// If found one, call our recursive routine to weight everything to the left in the tree
; 354  : 		if(paiTempWeights[iTechLoop] > 0)

	mov	edx, DWORD PTR _iTechLoop$[ebp]
	mov	eax, DWORD PTR _paiTempWeights$[ebp]
	cmp	DWORD PTR [eax+edx*4], 0
	jle	SHORT $LN1@WeightPrer

; 355  : 		{
; 356  : 			PropagateWeights(iTechLoop, paiTempWeights[iTechLoop], iPropagationPercent, 0);

	push	0
	mov	ecx, DWORD PTR _iPropagationPercent$[ebp]
	push	ecx
	mov	edx, DWORD PTR _iTechLoop$[ebp]
	mov	eax, DWORD PTR _paiTempWeights$[ebp]
	mov	ecx, DWORD PTR [eax+edx*4]
	push	ecx
	mov	edx, DWORD PTR _iTechLoop$[ebp]
	push	edx
	mov	ecx, DWORD PTR _this$[ebp]
	call	?PropagateWeights@CvTechAI@@AAEXHHHH@Z	; CvTechAI::PropagateWeights
$LN1@WeightPrer:

; 357  : 		}

	jmp	SHORT $LN3@WeightPrer
$LN5@WeightPrer:

; 358  : 	}
; 359  : }

	mov	esp, ebp
	pop	ebp
	ret	8
?WeightPrereqs@CvTechAI@@AAEXPAHH@Z ENDP		; CvTechAI::WeightPrereqs
_TEXT	ENDS
EXTRN	?GetPrereqAndTechs@CvTechEntry@@QBEHH@Z:PROC	; CvTechEntry::GetPrereqAndTechs
; Function compile flags: /Odtp
;	COMDAT ?PropagateWeights@CvTechAI@@AAEXHHHH@Z
_TEXT	SEGMENT
tv90 = -36						; size = 4
tv135 = -32						; size = 4
_this$ = -28						; size = 4
$T222332 = -24						; size = 4
$T222328 = -20						; size = 4
_iPrereq$218336 = -16					; size = 4
_iI$218332 = -12					; size = 4
_iPropagatedWeight$218331 = -8				; size = 4
_pkTechInfo$ = -4					; size = 4
_iTech$ = 8						; size = 4
_iWeight$ = 12						; size = 4
_iPropagationPercent$ = 16				; size = 4
_iPropagationLevel$ = 20				; size = 4
?PropagateWeights@CvTechAI@@AAEXHHHH@Z PROC		; CvTechAI::PropagateWeights, COMDAT
; _this$ = ecx

; 363  : {

	push	ebp
	mov	ebp, esp
	sub	esp, 36					; 00000024H
	mov	DWORD PTR _this$[ebp], ecx

; 364  : 	CvTechEntry* pkTechInfo = m_pCurrentTechs->GetTechs()->GetEntry(iTech);

	mov	eax, DWORD PTR _iTech$[ebp]
	push	eax
	mov	ecx, DWORD PTR _this$[ebp]
	mov	ecx, DWORD PTR [ecx]
	call	?GetTechs@CvPlayerTechs@@QBEPAVCvTechXMLEntries@@XZ ; CvPlayerTechs::GetTechs
	mov	ecx, eax
	call	?GetEntry@CvTechXMLEntries@@QAEPAVCvTechEntry@@H@Z ; CvTechXMLEntries::GetEntry
	mov	DWORD PTR _pkTechInfo$[ebp], eax

; 365  : 	if(pkTechInfo)

	cmp	DWORD PTR _pkTechInfo$[ebp], 0
	je	$LN9@PropagateW

; 366  : 	{
; 367  : 		if(iPropagationLevel < GC.getTECH_WEIGHT_PROPAGATION_LEVELS())

	mov	edx, DWORD PTR ?gGlobals@@3VCvGlobals@@A+1840
	mov	DWORD PTR $T222328[ebp], edx
	mov	eax, DWORD PTR _iPropagationLevel$[ebp]
	cmp	eax, DWORD PTR $T222328[ebp]
	jge	$LN9@PropagateW

; 368  : 		{
; 369  : 			int iPropagatedWeight = iWeight * iPropagationPercent / 100;

	mov	eax, DWORD PTR _iWeight$[ebp]
	imul	eax, DWORD PTR _iPropagationPercent$[ebp]
	cdq
	mov	ecx, 100				; 00000064H
	idiv	ecx
	mov	DWORD PTR _iPropagatedWeight$218331[ebp], eax

; 370  : 
; 371  : 			// Loop through all prerequisites
; 372  : 			for(int iI = 0; iI < GC.getNUM_OR_TECH_PREREQS(); iI++)

	mov	DWORD PTR _iI$218332[ebp], 0
	jmp	SHORT $LN6@PropagateW
$LN5@PropagateW:
	mov	edx, DWORD PTR _iI$218332[ebp]
	add	edx, 1
	mov	DWORD PTR _iI$218332[ebp], edx
$LN6@PropagateW:
	mov	eax, DWORD PTR ?gGlobals@@3VCvGlobals@@A+6268
	mov	DWORD PTR $T222332[ebp], eax
	mov	ecx, DWORD PTR _iI$218332[ebp]
	cmp	ecx, DWORD PTR $T222332[ebp]
	jge	SHORT $LN9@PropagateW

; 373  : 			{
; 374  : 				// Did we find a prereq?
; 375  : 				int iPrereq = pkTechInfo->GetPrereqAndTechs(iI);

	mov	edx, DWORD PTR _iI$218332[ebp]
	push	edx
	mov	ecx, DWORD PTR _pkTechInfo$[ebp]
	call	?GetPrereqAndTechs@CvTechEntry@@QBEHH@Z	; CvTechEntry::GetPrereqAndTechs
	mov	DWORD PTR _iPrereq$218336[ebp], eax

; 376  : 				if(iPrereq != NO_TECH)

	cmp	DWORD PTR _iPrereq$218336[ebp], -1
	je	SHORT $LN3@PropagateW

; 377  : 				{
; 378  : 					// Apply reduced weight here.  Note that we apply these to the master weight array, not
; 379  : 					// the temporary one.  The temporary one is just used to hold the newly weighted techs
; 380  : 					// (from which this weight propagation must originate).
; 381  : 					m_TechAIWeights.IncreaseWeight(iPrereq, iPropagatedWeight);

	mov	eax, DWORD PTR _this$[ebp]
	mov	ecx, DWORD PTR [eax+4]
	mov	edx, DWORD PTR _iPrereq$218336[ebp]
	lea	eax, DWORD PTR [ecx+edx*8+4]
	mov	DWORD PTR tv135[ebp], eax
	mov	ecx, DWORD PTR tv135[ebp]
	mov	edx, DWORD PTR [ecx]
	add	edx, DWORD PTR _iPropagatedWeight$218331[ebp]
	mov	eax, DWORD PTR tv135[ebp]
	mov	DWORD PTR [eax], edx

; 382  : 
; 383  : 					// Recurse to its prereqs (assuming we have any weight left)
; 384  : 					if(iPropagatedWeight > 0)

	cmp	DWORD PTR _iPropagatedWeight$218331[ebp], 0
	jle	SHORT $LN2@PropagateW

; 385  : 					{
; 386  : 						PropagateWeights(iPrereq, iPropagatedWeight, iPropagationPercent, iPropagationLevel++);

	mov	ecx, DWORD PTR _iPropagationLevel$[ebp]
	mov	DWORD PTR tv90[ebp], ecx
	mov	edx, DWORD PTR tv90[ebp]
	push	edx
	mov	eax, DWORD PTR _iPropagationPercent$[ebp]
	push	eax
	mov	ecx, DWORD PTR _iPropagatedWeight$218331[ebp]
	push	ecx
	mov	edx, DWORD PTR _iPrereq$218336[ebp]
	push	edx
	mov	ecx, DWORD PTR _this$[ebp]
	call	?PropagateWeights@CvTechAI@@AAEXHHHH@Z	; CvTechAI::PropagateWeights
	mov	eax, DWORD PTR _iPropagationLevel$[ebp]
	add	eax, 1
	mov	DWORD PTR _iPropagationLevel$[ebp], eax
$LN2@PropagateW:

; 387  : 					}
; 388  : 				}
; 389  : 				else

	jmp	SHORT $LN1@PropagateW
$LN3@PropagateW:

; 390  : 				{
; 391  : 					break;

	jmp	SHORT $LN9@PropagateW
$LN1@PropagateW:

; 392  : 				}
; 393  : 
; 394  : 			}

	jmp	SHORT $LN5@PropagateW
$LN9@PropagateW:

; 395  : 		}
; 396  : 	}
; 397  : }

	mov	esp, ebp
	pop	ebp
	ret	16					; 00000010H
?PropagateWeights@CvTechAI@@AAEXHHHH@Z ENDP		; CvTechAI::PropagateWeights
_TEXT	ENDS
EXTRN	?GetResearchTurnsLeft@CvPlayerTechs@@QBEHW4TechTypes@@_N@Z:PROC ; CvPlayerTechs::GetResearchTurnsLeft
EXTRN	?GetScienceTimes100@CvPlayer@@QBEHXZ:PROC	; CvPlayer::GetScienceTimes100
EXTRN	?getOverflowResearchTimes100@CvPlayer@@QBEHXZ:PROC ; CvPlayer::getOverflowResearchTimes100
EXTRN	___libm_sse2_pow:PROC
; Function compile flags: /Odtp
;	COMDAT ?ReweightByCost@CvTechAI@@AAEXPAVCvPlayer@@@Z
_TEXT	SEGMENT
_this$ = -80						; size = 4
_elem$222395 = -76					; size = 8
_elem$222381 = -68					; size = 8
$T222367 = -60						; size = 4
$T222363 = -56						; size = 4
$T222347 = -52						; size = 4
_fAdditionalTurnCostFactor$218353 = -48			; size = 8
_iTurnsLeft$218351 = -40				; size = 4
_iNewWeight$218356 = -36				; size = 4
_fWeightDivisor$218352 = -32				; size = 8
_fTotalCostFactor$218354 = -24				; size = 8
_iI$218346 = -12					; size = 4
_eTech$ = -8						; size = 4
_bNeedExpensiveTechs$ = -1				; size = 1
_pPlayer$ = 8						; size = 4
?ReweightByCost@CvTechAI@@AAEXPAVCvPlayer@@@Z PROC	; CvTechAI::ReweightByCost, COMDAT
; _this$ = ecx

; 401  : {

	push	ebp
	mov	ebp, esp
	sub	esp, 80					; 00000050H
	push	esi
	mov	DWORD PTR _this$[ebp], ecx

; 402  : 	TechTypes eTech;
; 403  : 
; 404  : 	// April 2014 Balance Patch: if lots of science overflow, want to pick an expensive tech
; 405  : 	bool bNeedExpensiveTechs = pPlayer->getOverflowResearchTimes100() > (pPlayer->GetScienceTimes100() * 2);

	mov	ecx, DWORD PTR _pPlayer$[ebp]
	call	?getOverflowResearchTimes100@CvPlayer@@QBEHXZ ; CvPlayer::getOverflowResearchTimes100
	mov	esi, eax
	mov	ecx, DWORD PTR _pPlayer$[ebp]
	call	?GetScienceTimes100@CvPlayer@@QBEHXZ	; CvPlayer::GetScienceTimes100
	shl	eax, 1
	xor	ecx, ecx
	cmp	esi, eax
	setg	cl
	mov	BYTE PTR _bNeedExpensiveTechs$[ebp], cl

; 406  : 
; 407  : 	for(int iI = 0; iI < m_ResearchableTechs.size(); iI++)

	mov	DWORD PTR _iI$218346[ebp], 0
	jmp	SHORT $LN5@ReweightBy
$LN4@ReweightBy:
	mov	edx, DWORD PTR _iI$218346[ebp]
	add	edx, 1
	mov	DWORD PTR _iI$218346[ebp], edx
$LN5@ReweightBy:
	mov	eax, DWORD PTR _this$[ebp]
	mov	ecx, DWORD PTR [eax+664]
	mov	DWORD PTR $T222347[ebp], ecx
	mov	edx, DWORD PTR _iI$218346[ebp]
	cmp	edx, DWORD PTR $T222347[ebp]
	jge	$LN3@ReweightBy

; 408  : 	{
; 409  : 		eTech = (TechTypes) m_ResearchableTechs.GetElement(iI);

	mov	eax, DWORD PTR _this$[ebp]
	mov	ecx, DWORD PTR [eax+660]
	mov	edx, DWORD PTR _iI$218346[ebp]
	mov	eax, DWORD PTR [ecx+edx*8]
	mov	DWORD PTR _eTech$[ebp], eax

; 410  : 		int iTurnsLeft = 0;

	mov	DWORD PTR _iTurnsLeft$218351[ebp], 0

; 411  : 
; 412  : 		iTurnsLeft = m_pCurrentTechs->GetResearchTurnsLeft(eTech, true);

	push	1
	mov	ecx, DWORD PTR _eTech$[ebp]
	push	ecx
	mov	edx, DWORD PTR _this$[ebp]
	mov	ecx, DWORD PTR [edx]
	call	?GetResearchTurnsLeft@CvPlayerTechs@@QBEHW4TechTypes@@_N@Z ; CvPlayerTechs::GetResearchTurnsLeft
	mov	DWORD PTR _iTurnsLeft$218351[ebp], eax

; 413  : 
; 414  : 		double fWeightDivisor;
; 415  : 
; 416  : 		// 10 turns will add 0.02; 80 turns will add 0.16
; 417  : 		double fAdditionalTurnCostFactor = GC.getAI_RESEARCH_WEIGHT_MOD_PER_TURN_LEFT() * iTurnsLeft;	// 0.015

	movss	xmm0, DWORD PTR ?gGlobals@@3VCvGlobals@@A+8008
	movss	DWORD PTR $T222363[ebp], xmm0
	cvtsi2ss xmm0, DWORD PTR _iTurnsLeft$218351[ebp]
	mulss	xmm0, DWORD PTR $T222363[ebp]
	cvtss2sd xmm0, xmm0
	movsd	QWORD PTR _fAdditionalTurnCostFactor$218353[ebp], xmm0

; 418  : 		double fTotalCostFactor = GC.getAI_RESEARCH_WEIGHT_BASE_MOD() + fAdditionalTurnCostFactor;	// 0.15

	movss	xmm0, DWORD PTR ?gGlobals@@3VCvGlobals@@A+8012
	movss	DWORD PTR $T222367[ebp], xmm0
	cvtss2sd xmm0, DWORD PTR $T222367[ebp]
	addsd	xmm0, QWORD PTR _fAdditionalTurnCostFactor$218353[ebp]
	movsd	QWORD PTR _fTotalCostFactor$218354[ebp], xmm0

; 419  : 
; 420  : 		fWeightDivisor = pow((double) iTurnsLeft, fTotalCostFactor);

	cvtsi2sd xmm0, DWORD PTR _iTurnsLeft$218351[ebp]
	movsd	xmm1, QWORD PTR _fTotalCostFactor$218354[ebp]
	call	___libm_sse2_pow
	movsd	QWORD PTR _fWeightDivisor$218352[ebp], xmm0

; 421  : 
; 422  : 		int iNewWeight;
; 423  : 		if (bNeedExpensiveTechs)

	movzx	eax, BYTE PTR _bNeedExpensiveTechs$[ebp]
	test	eax, eax
	je	SHORT $LN2@ReweightBy

; 424  : 		{
; 425  : 			iNewWeight = int(double(m_ResearchableTechs.GetWeight(iI)) * fWeightDivisor);

	mov	DWORD PTR _elem$222381[ebp], 0
	mov	DWORD PTR _elem$222381[ebp+4], 0
	mov	ecx, DWORD PTR _this$[ebp]
	mov	edx, DWORD PTR [ecx+660]
	mov	eax, DWORD PTR _iI$218346[ebp]
	mov	ecx, DWORD PTR [edx+eax*8]
	mov	edx, DWORD PTR [edx+eax*8+4]
	mov	DWORD PTR _elem$222381[ebp], ecx
	mov	DWORD PTR _elem$222381[ebp+4], edx
	cvtsi2sd xmm0, DWORD PTR _elem$222381[ebp+4]
	mulsd	xmm0, QWORD PTR _fWeightDivisor$218352[ebp]
	cvttsd2si eax, xmm0
	mov	DWORD PTR _iNewWeight$218356[ebp], eax

; 426  : 		}
; 427  : 		else

	jmp	SHORT $LN1@ReweightBy
$LN2@ReweightBy:

; 428  : 		{
; 429  : 			iNewWeight = int(double(m_ResearchableTechs.GetWeight(iI)) / fWeightDivisor);

	mov	DWORD PTR _elem$222395[ebp], 0
	mov	DWORD PTR _elem$222395[ebp+4], 0
	mov	ecx, DWORD PTR _this$[ebp]
	mov	edx, DWORD PTR [ecx+660]
	mov	eax, DWORD PTR _iI$218346[ebp]
	mov	ecx, DWORD PTR [edx+eax*8]
	mov	edx, DWORD PTR [edx+eax*8+4]
	mov	DWORD PTR _elem$222395[ebp], ecx
	mov	DWORD PTR _elem$222395[ebp+4], edx
	cvtsi2sd xmm0, DWORD PTR _elem$222395[ebp+4]
	divsd	xmm0, QWORD PTR _fWeightDivisor$218352[ebp]
	cvttsd2si eax, xmm0
	mov	DWORD PTR _iNewWeight$218356[ebp], eax
$LN1@ReweightBy:

; 430  : 		}
; 431  : 
; 432  : 		// Now actually change the weight
; 433  : 		m_ResearchableTechs.SetWeight(iI, iNewWeight);

	mov	ecx, DWORD PTR _this$[ebp]
	mov	edx, DWORD PTR [ecx+660]
	mov	eax, DWORD PTR _iI$218346[ebp]
	mov	ecx, DWORD PTR _iNewWeight$218356[ebp]
	mov	DWORD PTR [edx+eax*8+4], ecx

; 434  : 	}

	jmp	$LN4@ReweightBy
$LN3@ReweightBy:

; 435  : }

	pop	esi
	mov	esp, ebp
	pop	ebp
	ret	4
?ReweightByCost@CvTechAI@@AAEXPAVCvPlayer@@@Z ENDP	; CvTechAI::ReweightByCost
_TEXT	ENDS
PUBLIC	??1CvString@@QAE@XZ				; CvString::~CvString
PUBLIC	??_C@_06OJLEAOEG@?$CFs?0?5?$CFd?$AA@		; `string'
PUBLIC	??_C@_0N@EGCCLJCI@Unknown?5Tech?$AA@		; `string'
PUBLIC	??_C@_02KEGNLNML@?0?5?$AA@			; `string'
PUBLIC	?Format@CvString@@QAAXPBDZZ			; CvString::Format
PUBLIC	??_C@_06NHKAIDD@?$CF03d?0?5?$AA@		; `string'
PUBLIC	?GetLogFileName@CvTechAI@@ABE?AVCvString@@AAV2@@Z ; CvTechAI::GetLogFileName
PUBLIC	__$ArrayPad$
EXTRN	__imp_??$?HDU?$char_traits@D@std@@V?$allocator@D@1@@std@@YA?AV?$basic_string@DU?$char_traits@D@std@@V?$allocator@D@2@@0@ABV10@0@Z:PROC
EXTRN	?getTechInfo@CvGlobals@@QAEPAVCvTechEntry@@W4TechTypes@@@Z:PROC ; CvGlobals::getTechInfo
EXTRN	__imp_??Y?$basic_string@DU?$char_traits@D@std@@V?$allocator@D@2@@std@@QAEAAV01@ABV01@@Z:PROC
EXTRN	__imp_??$?HDU?$char_traits@D@std@@V?$allocator@D@1@@std@@YA?AV?$basic_string@DU?$char_traits@D@std@@V?$allocator@D@2@@0@ABV10@PBD@Z:PROC
EXTRN	?getElapsedGameTurns@CvGame@@QBEHXZ:PROC	; CvGame::getElapsedGameTurns
EXTRN	__imp_??1?$basic_string@DU?$char_traits@D@std@@V?$allocator@D@2@@std@@QAE@XZ:PROC
EXTRN	__imp_?c_str@?$basic_string@DU?$char_traits@D@std@@V?$allocator@D@2@@std@@QBEPBDXZ:PROC
EXTRN	?GetInstance@FILogFileMgr@@SAAAV1@XZ:PROC	; FILogFileMgr::GetInstance
EXTRN	__imp_?clear@?$basic_string@DU?$char_traits@D@std@@V?$allocator@D@2@@std@@QAEXXZ:PROC
EXTRN	__imp_?assign@?$basic_string@DU?$char_traits@D@std@@V?$allocator@D@2@@std@@QAEAAV12@PBD@Z:PROC
EXTRN	?getCivilizationShortDescription@CvPlayer@@QBEPBDXZ:PROC ; CvPlayer::getCivilizationShortDescription
EXTRN	__imp_??0?$basic_string@DU?$char_traits@D@std@@V?$allocator@D@2@@std@@QAE@XZ:PROC
EXTRN	?getAILogging@CvGlobals@@QAE_NXZ:PROC		; CvGlobals::getAILogging
EXTRN	?getLogging@CvGlobals@@QAE_NXZ:PROC		; CvGlobals::getLogging
;	COMDAT ??_C@_06OJLEAOEG@?$CFs?0?5?$CFd?$AA@
; File d:\sources\lekmod_git\checkout\lekmod_dll\cvgamecoredllutil\include\cvstring.h
CONST	SEGMENT
??_C@_06OJLEAOEG@?$CFs?0?5?$CFd?$AA@ DB '%s, %d', 00H	; `string'
CONST	ENDS
;	COMDAT ??_C@_0N@EGCCLJCI@Unknown?5Tech?$AA@
CONST	SEGMENT
??_C@_0N@EGCCLJCI@Unknown?5Tech?$AA@ DB 'Unknown Tech', 00H ; `string'
CONST	ENDS
;	COMDAT ??_C@_02KEGNLNML@?0?5?$AA@
CONST	SEGMENT
??_C@_02KEGNLNML@?0?5?$AA@ DB ', ', 00H			; `string'
CONST	ENDS
;	COMDAT ??_C@_06NHKAIDD@?$CF03d?0?5?$AA@
CONST	SEGMENT
??_C@_06NHKAIDD@?$CF03d?0?5?$AA@ DB '%03d, ', 00H	; `string'
CONST	ENDS
;	COMDAT xdata$x
xdata$x	SEGMENT
__ehfuncinfo$?LogPossibleResearch@CvTechAI@@AAEXXZ DD 019930522H
	DD	08H
	DD	FLAT:__unwindtable$?LogPossibleResearch@CvTechAI@@AAEXXZ
	DD	2 DUP(00H)
	DD	2 DUP(00H)
	DD	00H
	DD	01H
__unwindtable$?LogPossibleResearch@CvTechAI@@AAEXXZ DD 0ffffffffH
	DD	FLAT:__unwindfunclet$?LogPossibleResearch@CvTechAI@@AAEXXZ$0
	DD	00H
	DD	FLAT:__unwindfunclet$?LogPossibleResearch@CvTechAI@@AAEXXZ$1
	DD	01H
	DD	FLAT:__unwindfunclet$?LogPossibleResearch@CvTechAI@@AAEXXZ$2
	DD	02H
	DD	FLAT:__unwindfunclet$?LogPossibleResearch@CvTechAI@@AAEXXZ$3
	DD	03H
	DD	FLAT:__unwindfunclet$?LogPossibleResearch@CvTechAI@@AAEXXZ$4
	DD	04H
	DD	FLAT:__unwindfunclet$?LogPossibleResearch@CvTechAI@@AAEXXZ$5
	DD	04H
	DD	FLAT:__unwindfunclet$?LogPossibleResearch@CvTechAI@@AAEXXZ$6
	DD	04H
	DD	FLAT:__unwindfunclet$?LogPossibleResearch@CvTechAI@@AAEXXZ$7
; Function compile flags: /Odtp
; File d:\sources\lekmod_git\checkout\lekmod_dll\cvgamecoredll_expansion2\cvtechai.cpp
xdata$x	ENDS
;	COMDAT ?LogPossibleResearch@CvTechAI@@AAEXXZ
_TEXT	SEGMENT
tv253 = -328						; size = 4
tv188 = -324						; size = 4
tv223 = -320						; size = 4
tv264 = -316						; size = 4
tv275 = -312						; size = 4
tv95 = -308						; size = 4
_this$ = -304						; size = 4
$T222501 = -300						; size = 4
$T222497 = -296						; size = 4
_elem$222490 = -292					; size = 8
$T222464 = -284						; size = 4
$T222459 = -280						; size = 4
$T222451 = -276						; size = 4
$T222450 = -272						; size = 4
$T222446 = -268						; size = 4
$T222412 = -264						; size = 28
$T222409 = -236						; size = 28
$T222408 = -208						; size = 28
_pTechEntry$218380 = -180				; size = 4
_szTechType$218381 = -176				; size = 4
_iWeight$218379 = -172					; size = 4
_eTech$218377 = -168					; size = 4
_iI$218373 = -164					; size = 4
_strOutBuf$218363 = -160				; size = 28
_playerName$218366 = -132				; size = 28
_strDesc$218367 = -104					; size = 28
_pLog$218368 = -76					; size = 4
_strTemp$218365 = -72					; size = 28
_strBaseString$218364 = -44				; size = 28
__$ArrayPad$ = -16					; size = 4
__$EHRec$ = -12						; size = 12
?LogPossibleResearch@CvTechAI@@AAEXXZ PROC		; CvTechAI::LogPossibleResearch, COMDAT
; _this$ = ecx

; 439  : {

	push	ebp
	mov	ebp, esp
	push	-1
	push	__ehhandler$?LogPossibleResearch@CvTechAI@@AAEXXZ
	mov	eax, DWORD PTR fs:0
	push	eax
	sub	esp, 316				; 0000013cH
	mov	eax, DWORD PTR ___security_cookie
	xor	eax, ebp
	mov	DWORD PTR __$ArrayPad$[ebp], eax
	push	eax
	lea	eax, DWORD PTR __$EHRec$[ebp]
	mov	DWORD PTR fs:0, eax
	mov	DWORD PTR _this$[ebp], ecx

; 440  : 	if(GC.getLogging() && GC.getAILogging())

	mov	ecx, OFFSET ?gGlobals@@3VCvGlobals@@A	; gGlobals
	call	?getLogging@CvGlobals@@QAE_NXZ		; CvGlobals::getLogging
	movzx	eax, al
	test	eax, eax
	je	$LN5@LogPossibl
	mov	ecx, OFFSET ?gGlobals@@3VCvGlobals@@A	; gGlobals
	call	?getAILogging@CvGlobals@@QAE_NXZ	; CvGlobals::getAILogging
	movzx	ecx, al
	test	ecx, ecx
	je	$LN5@LogPossibl

; 441  : 	{
; 442  : 		CvString strOutBuf;

	lea	ecx, DWORD PTR _strOutBuf$218363[ebp]
	call	DWORD PTR __imp_??0?$basic_string@DU?$char_traits@D@std@@V?$allocator@D@2@@std@@QAE@XZ
	mov	DWORD PTR __$EHRec$[ebp+8], 0

; 443  : 		CvString strBaseString;

	lea	ecx, DWORD PTR _strBaseString$218364[ebp]
	call	DWORD PTR __imp_??0?$basic_string@DU?$char_traits@D@std@@V?$allocator@D@2@@std@@QAE@XZ
	mov	BYTE PTR __$EHRec$[ebp+8], 1

; 444  : 		CvString strTemp;

	lea	ecx, DWORD PTR _strTemp$218365[ebp]
	call	DWORD PTR __imp_??0?$basic_string@DU?$char_traits@D@std@@V?$allocator@D@2@@std@@QAE@XZ
	mov	BYTE PTR __$EHRec$[ebp+8], 2

; 445  : 		CvString playerName;

	lea	ecx, DWORD PTR _playerName$218366[ebp]
	call	DWORD PTR __imp_??0?$basic_string@DU?$char_traits@D@std@@V?$allocator@D@2@@std@@QAE@XZ
	mov	BYTE PTR __$EHRec$[ebp+8], 3

; 446  : 		CvString strDesc;

	lea	ecx, DWORD PTR _strDesc$218367[ebp]
	call	DWORD PTR __imp_??0?$basic_string@DU?$char_traits@D@std@@V?$allocator@D@2@@std@@QAE@XZ
	mov	BYTE PTR __$EHRec$[ebp+8], 4

; 447  : 
; 448  : 		// Find the name of this civ
; 449  : 		playerName = m_pCurrentTechs->GetPlayer()->getCivilizationShortDescription();

	mov	edx, DWORD PTR _this$[ebp]
	mov	ecx, DWORD PTR [edx]
	call	?GetPlayer@CvPlayerTechs@@QAEPAVCvPlayer@@XZ ; CvPlayerTechs::GetPlayer
	mov	ecx, eax
	call	?getCivilizationShortDescription@CvPlayer@@QBEPBDXZ ; CvPlayer::getCivilizationShortDescription
	mov	DWORD PTR $T222446[ebp], eax
	cmp	DWORD PTR $T222446[ebp], 0
	je	SHORT $LN33@LogPossibl
	mov	eax, DWORD PTR $T222446[ebp]
	push	eax
	lea	ecx, DWORD PTR _playerName$218366[ebp]
	call	DWORD PTR __imp_?assign@?$basic_string@DU?$char_traits@D@std@@V?$allocator@D@2@@std@@QAEAAV12@PBD@Z
	jmp	SHORT $LN34@LogPossibl
$LN33@LogPossibl:
	lea	ecx, DWORD PTR _playerName$218366[ebp]
	call	DWORD PTR __imp_?clear@?$basic_string@DU?$char_traits@D@std@@V?$allocator@D@2@@std@@QAEXXZ
$LN34@LogPossibl:

; 450  : 
; 451  : 		FILogFile* pLog = LOGFILEMGR.GetLog(GetLogFileName(playerName), FILogFile::kDontTimeStamp);

	call	?GetInstance@FILogFileMgr@@SAAAV1@XZ	; FILogFileMgr::GetInstance
	mov	DWORD PTR tv95[ebp], eax
	lea	ecx, DWORD PTR _playerName$218366[ebp]
	push	ecx
	lea	edx, DWORD PTR $T222408[ebp]
	push	edx
	mov	ecx, DWORD PTR _this$[ebp]
	call	?GetLogFileName@CvTechAI@@ABE?AVCvString@@AAV2@@Z ; CvTechAI::GetLogFileName
	mov	DWORD PTR tv275[ebp], eax
	mov	eax, DWORD PTR tv275[ebp]
	mov	DWORD PTR $T222450[ebp], eax
	mov	BYTE PTR __$EHRec$[ebp+8], 5
	mov	ecx, DWORD PTR $T222450[ebp]
	call	DWORD PTR __imp_?c_str@?$basic_string@DU?$char_traits@D@std@@V?$allocator@D@2@@std@@QBEPBDXZ
	mov	DWORD PTR $T222451[ebp], eax
	push	0
	push	1
	mov	ecx, DWORD PTR $T222451[ebp]
	push	ecx
	mov	edx, DWORD PTR tv95[ebp]
	mov	eax, DWORD PTR [edx]
	mov	ecx, DWORD PTR tv95[ebp]
	mov	edx, DWORD PTR [eax+12]
	call	edx
	mov	DWORD PTR _pLog$218368[ebp], eax
	mov	BYTE PTR __$EHRec$[ebp+8], 4
	lea	ecx, DWORD PTR $T222408[ebp]
	call	DWORD PTR __imp_??1?$basic_string@DU?$char_traits@D@std@@V?$allocator@D@2@@std@@QAE@XZ

; 452  : 
; 453  : 		// Get the leading info for this line
; 454  : 		strBaseString.Format("%03d, ", GC.getGame().getElapsedGameTurns());

	mov	eax, DWORD PTR ?gGlobals@@3VCvGlobals@@A+48
	mov	DWORD PTR $T222459[ebp], eax
	mov	ecx, DWORD PTR $T222459[ebp]
	call	?getElapsedGameTurns@CvGame@@QBEHXZ	; CvGame::getElapsedGameTurns
	push	eax
	push	OFFSET ??_C@_06NHKAIDD@?$CF03d?0?5?$AA@
	lea	ecx, DWORD PTR _strBaseString$218364[ebp]
	push	ecx
	call	?Format@CvString@@QAAXPBDZZ		; CvString::Format
	add	esp, 12					; 0000000cH

; 455  : 		strBaseString += playerName + ", ";

	push	OFFSET ??_C@_02KEGNLNML@?0?5?$AA@
	lea	edx, DWORD PTR _playerName$218366[ebp]
	push	edx
	lea	eax, DWORD PTR $T222409[ebp]
	push	eax
	call	DWORD PTR __imp_??$?HDU?$char_traits@D@std@@V?$allocator@D@1@@std@@YA?AV?$basic_string@DU?$char_traits@D@std@@V?$allocator@D@2@@0@ABV10@PBD@Z
	add	esp, 12					; 0000000cH
	mov	DWORD PTR tv264[ebp], eax
	mov	ecx, DWORD PTR tv264[ebp]
	mov	DWORD PTR tv223[ebp], ecx
	mov	BYTE PTR __$EHRec$[ebp+8], 6
	mov	edx, DWORD PTR tv223[ebp]
	push	edx
	lea	ecx, DWORD PTR _strBaseString$218364[ebp]
	call	DWORD PTR __imp_??Y?$basic_string@DU?$char_traits@D@std@@V?$allocator@D@2@@std@@QAEAAV01@ABV01@@Z
	mov	BYTE PTR __$EHRec$[ebp+8], 4
	lea	ecx, DWORD PTR $T222409[ebp]
	call	DWORD PTR __imp_??1?$basic_string@DU?$char_traits@D@std@@V?$allocator@D@2@@std@@QAE@XZ

; 456  : 
; 457  : 		// Dump out the weight of each Researchable Tech
; 458  : 		for(int iI = 0; iI < m_ResearchableTechs.size(); iI++)

	mov	DWORD PTR _iI$218373[ebp], 0
	jmp	SHORT $LN3@LogPossibl
$LN2@LogPossibl:
	mov	eax, DWORD PTR _iI$218373[ebp]
	add	eax, 1
	mov	DWORD PTR _iI$218373[ebp], eax
$LN3@LogPossibl:
	mov	ecx, DWORD PTR _this$[ebp]
	mov	edx, DWORD PTR [ecx+664]
	mov	DWORD PTR $T222464[ebp], edx
	mov	eax, DWORD PTR _iI$218373[ebp]
	cmp	eax, DWORD PTR $T222464[ebp]
	jge	$LN1@LogPossibl

; 459  : 		{
; 460  : 			TechTypes eTech = (TechTypes) m_ResearchableTechs.GetElement(iI);

	mov	ecx, DWORD PTR _this$[ebp]
	mov	edx, DWORD PTR [ecx+660]
	mov	eax, DWORD PTR _iI$218373[ebp]
	mov	ecx, DWORD PTR [edx+eax*8]
	mov	DWORD PTR _eTech$218377[ebp], ecx

; 461  : 			int iWeight = m_ResearchableTechs.GetWeight(iI);

	mov	DWORD PTR _elem$222490[ebp], 0
	mov	DWORD PTR _elem$222490[ebp+4], 0
	mov	edx, DWORD PTR _this$[ebp]
	mov	eax, DWORD PTR [edx+660]
	mov	ecx, DWORD PTR _iI$218373[ebp]
	mov	edx, DWORD PTR [eax+ecx*8]
	mov	eax, DWORD PTR [eax+ecx*8+4]
	mov	DWORD PTR _elem$222490[ebp], edx
	mov	DWORD PTR _elem$222490[ebp+4], eax
	mov	ecx, DWORD PTR _elem$222490[ebp+4]
	mov	DWORD PTR _iWeight$218379[ebp], ecx

; 462  : 
; 463  : 			CvTechEntry* pTechEntry = GC.getTechInfo(eTech);

	mov	edx, DWORD PTR _eTech$218377[ebp]
	push	edx
	mov	ecx, OFFSET ?gGlobals@@3VCvGlobals@@A	; gGlobals
	call	?getTechInfo@CvGlobals@@QAEPAVCvTechEntry@@W4TechTypes@@@Z ; CvGlobals::getTechInfo
	mov	DWORD PTR _pTechEntry$218380[ebp], eax

; 464  : 			const char* szTechType = (pTechEntry != NULL)? pTechEntry->GetType() : "Unknown Tech";

	cmp	DWORD PTR _pTechEntry$218380[ebp], 0
	je	SHORT $LN7@LogPossibl
	mov	ecx, DWORD PTR _pTechEntry$218380[ebp]
	add	ecx, 176				; 000000b0H
	call	DWORD PTR __imp_?c_str@?$basic_string@DU?$char_traits@D@std@@V?$allocator@D@2@@std@@QBEPBDXZ
	mov	DWORD PTR tv188[ebp], eax
	jmp	SHORT $LN8@LogPossibl
$LN7@LogPossibl:
	mov	DWORD PTR tv188[ebp], OFFSET ??_C@_0N@EGCCLJCI@Unknown?5Tech?$AA@
$LN8@LogPossibl:
	mov	eax, DWORD PTR tv188[ebp]
	mov	DWORD PTR _szTechType$218381[ebp], eax

; 465  : 
; 466  : 			strTemp.Format("%s, %d", szTechType, iWeight);

	mov	ecx, DWORD PTR _iWeight$218379[ebp]
	push	ecx
	mov	edx, DWORD PTR _szTechType$218381[ebp]
	push	edx
	push	OFFSET ??_C@_06OJLEAOEG@?$CFs?0?5?$CFd?$AA@
	lea	eax, DWORD PTR _strTemp$218365[ebp]
	push	eax
	call	?Format@CvString@@QAAXPBDZZ		; CvString::Format
	add	esp, 16					; 00000010H

; 467  : 
; 468  : 			strOutBuf = strBaseString + strTemp;

	lea	ecx, DWORD PTR _strTemp$218365[ebp]
	push	ecx
	lea	edx, DWORD PTR _strBaseString$218364[ebp]
	push	edx
	lea	eax, DWORD PTR $T222412[ebp]
	push	eax
	call	DWORD PTR __imp_??$?HDU?$char_traits@D@std@@V?$allocator@D@1@@std@@YA?AV?$basic_string@DU?$char_traits@D@std@@V?$allocator@D@2@@0@ABV10@0@Z
	add	esp, 12					; 0000000cH
	mov	DWORD PTR tv253[ebp], eax
	mov	ecx, DWORD PTR tv253[ebp]
	mov	DWORD PTR $T222497[ebp], ecx
	mov	BYTE PTR __$EHRec$[ebp+8], 7
	mov	ecx, DWORD PTR $T222497[ebp]
	call	DWORD PTR __imp_?c_str@?$basic_string@DU?$char_traits@D@std@@V?$allocator@D@2@@std@@QBEPBDXZ
	push	eax
	lea	ecx, DWORD PTR _strOutBuf$218363[ebp]
	call	DWORD PTR __imp_?assign@?$basic_string@DU?$char_traits@D@std@@V?$allocator@D@2@@std@@QAEAAV12@PBD@Z
	mov	BYTE PTR __$EHRec$[ebp+8], 4
	lea	ecx, DWORD PTR $T222412[ebp]
	call	DWORD PTR __imp_??1?$basic_string@DU?$char_traits@D@std@@V?$allocator@D@2@@std@@QAE@XZ

; 469  : 			pLog->Msg(strOutBuf);

	lea	ecx, DWORD PTR _strOutBuf$218363[ebp]
	call	DWORD PTR __imp_?c_str@?$basic_string@DU?$char_traits@D@std@@V?$allocator@D@2@@std@@QBEPBDXZ
	mov	DWORD PTR $T222501[ebp], eax
	mov	edx, DWORD PTR $T222501[ebp]
	push	edx
	mov	eax, DWORD PTR _pLog$218368[ebp]
	mov	ecx, DWORD PTR [eax]
	mov	edx, DWORD PTR _pLog$218368[ebp]
	push	edx
	mov	eax, DWORD PTR [ecx]
	call	eax
	add	esp, 8

; 470  : 		}

	jmp	$LN2@LogPossibl
$LN1@LogPossibl:

; 471  : 	}

	mov	BYTE PTR __$EHRec$[ebp+8], 3
	lea	ecx, DWORD PTR _strDesc$218367[ebp]
	call	DWORD PTR __imp_??1?$basic_string@DU?$char_traits@D@std@@V?$allocator@D@2@@std@@QAE@XZ
	mov	BYTE PTR __$EHRec$[ebp+8], 2
	lea	ecx, DWORD PTR _playerName$218366[ebp]
	call	DWORD PTR __imp_??1?$basic_string@DU?$char_traits@D@std@@V?$allocator@D@2@@std@@QAE@XZ
	mov	BYTE PTR __$EHRec$[ebp+8], 1
	lea	ecx, DWORD PTR _strTemp$218365[ebp]
	call	DWORD PTR __imp_??1?$basic_string@DU?$char_traits@D@std@@V?$allocator@D@2@@std@@QAE@XZ
	mov	BYTE PTR __$EHRec$[ebp+8], 0
	lea	ecx, DWORD PTR _strBaseString$218364[ebp]
	call	DWORD PTR __imp_??1?$basic_string@DU?$char_traits@D@std@@V?$allocator@D@2@@std@@QAE@XZ
	mov	DWORD PTR __$EHRec$[ebp+8], -1
	lea	ecx, DWORD PTR _strOutBuf$218363[ebp]
	call	DWORD PTR __imp_??1?$basic_string@DU?$char_traits@D@std@@V?$allocator@D@2@@std@@QAE@XZ
$LN5@LogPossibl:

; 472  : }

	mov	ecx, DWORD PTR __$EHRec$[ebp]
	mov	DWORD PTR fs:0, ecx
	pop	ecx
	mov	ecx, DWORD PTR __$ArrayPad$[ebp]
	xor	ecx, ebp
	call	@__security_check_cookie@4
	mov	esp, ebp
	pop	ebp
	ret	0
_TEXT	ENDS
;	COMDAT text$x
text$x	SEGMENT
__unwindfunclet$?LogPossibleResearch@CvTechAI@@AAEXXZ$0:
	lea	ecx, DWORD PTR _strOutBuf$218363[ebp]
	jmp	??1CvString@@QAE@XZ			; CvString::~CvString
__unwindfunclet$?LogPossibleResearch@CvTechAI@@AAEXXZ$1:
	lea	ecx, DWORD PTR _strBaseString$218364[ebp]
	jmp	??1CvString@@QAE@XZ			; CvString::~CvString
__unwindfunclet$?LogPossibleResearch@CvTechAI@@AAEXXZ$2:
	lea	ecx, DWORD PTR _strTemp$218365[ebp]
	jmp	??1CvString@@QAE@XZ			; CvString::~CvString
__unwindfunclet$?LogPossibleResearch@CvTechAI@@AAEXXZ$3:
	lea	ecx, DWORD PTR _playerName$218366[ebp]
	jmp	??1CvString@@QAE@XZ			; CvString::~CvString
__unwindfunclet$?LogPossibleResearch@CvTechAI@@AAEXXZ$4:
	lea	ecx, DWORD PTR _strDesc$218367[ebp]
	jmp	??1CvString@@QAE@XZ			; CvString::~CvString
__unwindfunclet$?LogPossibleResearch@CvTechAI@@AAEXXZ$5:
	lea	ecx, DWORD PTR $T222408[ebp]
	jmp	??1CvString@@QAE@XZ			; CvString::~CvString
__unwindfunclet$?LogPossibleResearch@CvTechAI@@AAEXXZ$6:
	lea	ecx, DWORD PTR $T222409[ebp]
	jmp	DWORD PTR __imp_??1?$basic_string@DU?$char_traits@D@std@@V?$allocator@D@2@@std@@QAE@XZ
__unwindfunclet$?LogPossibleResearch@CvTechAI@@AAEXXZ$7:
	lea	ecx, DWORD PTR $T222412[ebp]
	jmp	DWORD PTR __imp_??1?$basic_string@DU?$char_traits@D@std@@V?$allocator@D@2@@std@@QAE@XZ
__ehhandler$?LogPossibleResearch@CvTechAI@@AAEXXZ:
	mov	edx, DWORD PTR [esp+8]
	lea	eax, DWORD PTR [edx+12]
	mov	ecx, DWORD PTR [edx-320]
	xor	ecx, eax
	call	@__security_check_cookie@4
	mov	ecx, DWORD PTR [edx-4]
	xor	ecx, eax
	call	@__security_check_cookie@4
	mov	eax, OFFSET __ehfuncinfo$?LogPossibleResearch@CvTechAI@@AAEXXZ
	jmp	___CxxFrameHandler3
text$x	ENDS
?LogPossibleResearch@CvTechAI@@AAEXXZ ENDP		; CvTechAI::LogPossibleResearch
PUBLIC	??_C@_0L@DBMLLMJN@CHOSEN?0?5?$CFs?$AA@		; `string'
PUBLIC	__$ArrayPad$
;	COMDAT ??_C@_0L@DBMLLMJN@CHOSEN?0?5?$CFs?$AA@
; File d:\sources\lekmod_git\checkout\lekmod_dll\cvgamecoredllutil\include\cvstring.h
CONST	SEGMENT
??_C@_0L@DBMLLMJN@CHOSEN?0?5?$CFs?$AA@ DB 'CHOSEN, %s', 00H ; `string'
CONST	ENDS
;	COMDAT xdata$x
xdata$x	SEGMENT
__ehfuncinfo$?LogResearchChoice@CvTechAI@@AAEXW4TechTypes@@@Z DD 019930522H
	DD	08H
	DD	FLAT:__unwindtable$?LogResearchChoice@CvTechAI@@AAEXW4TechTypes@@@Z
	DD	2 DUP(00H)
	DD	2 DUP(00H)
	DD	00H
	DD	01H
__unwindtable$?LogResearchChoice@CvTechAI@@AAEXW4TechTypes@@@Z DD 0ffffffffH
	DD	FLAT:__unwindfunclet$?LogResearchChoice@CvTechAI@@AAEXW4TechTypes@@@Z$0
	DD	00H
	DD	FLAT:__unwindfunclet$?LogResearchChoice@CvTechAI@@AAEXW4TechTypes@@@Z$1
	DD	01H
	DD	FLAT:__unwindfunclet$?LogResearchChoice@CvTechAI@@AAEXW4TechTypes@@@Z$2
	DD	02H
	DD	FLAT:__unwindfunclet$?LogResearchChoice@CvTechAI@@AAEXW4TechTypes@@@Z$3
	DD	03H
	DD	FLAT:__unwindfunclet$?LogResearchChoice@CvTechAI@@AAEXW4TechTypes@@@Z$4
	DD	04H
	DD	FLAT:__unwindfunclet$?LogResearchChoice@CvTechAI@@AAEXW4TechTypes@@@Z$5
	DD	04H
	DD	FLAT:__unwindfunclet$?LogResearchChoice@CvTechAI@@AAEXW4TechTypes@@@Z$6
	DD	04H
	DD	FLAT:__unwindfunclet$?LogResearchChoice@CvTechAI@@AAEXW4TechTypes@@@Z$7
; Function compile flags: /Odtp
; File d:\sources\lekmod_git\checkout\lekmod_dll\cvgamecoredll_expansion2\cvtechai.cpp
xdata$x	ENDS
;	COMDAT ?LogResearchChoice@CvTechAI@@AAEXW4TechTypes@@@Z
_TEXT	SEGMENT
tv239 = -304						; size = 4
tv175 = -300						; size = 4
tv209 = -296						; size = 4
tv250 = -292						; size = 4
tv261 = -288						; size = 4
tv95 = -284						; size = 4
_this$ = -280						; size = 4
$T222593 = -276						; size = 4
$T222589 = -272						; size = 4
$T222582 = -268						; size = 4
$T222574 = -264						; size = 4
$T222573 = -260						; size = 4
$T222569 = -256						; size = 4
$T222535 = -252						; size = 28
$T222532 = -224						; size = 28
$T222531 = -196						; size = 28
_playerName$218390 = -168				; size = 28
_strOutBuf$218391 = -140				; size = 28
_pTechEntry$218398 = -112				; size = 4
_szTechType$218399 = -108				; size = 4
_strDesc$218394 = -104					; size = 28
_pLog$218395 = -76					; size = 4
_strTemp$218393 = -72					; size = 28
_strBaseString$218392 = -44				; size = 28
__$ArrayPad$ = -16					; size = 4
__$EHRec$ = -12						; size = 12
_eTech$ = 8						; size = 4
?LogResearchChoice@CvTechAI@@AAEXW4TechTypes@@@Z PROC	; CvTechAI::LogResearchChoice, COMDAT
; _this$ = ecx

; 476  : {

	push	ebp
	mov	ebp, esp
	push	-1
	push	__ehhandler$?LogResearchChoice@CvTechAI@@AAEXW4TechTypes@@@Z
	mov	eax, DWORD PTR fs:0
	push	eax
	sub	esp, 292				; 00000124H
	mov	eax, DWORD PTR ___security_cookie
	xor	eax, ebp
	mov	DWORD PTR __$ArrayPad$[ebp], eax
	push	eax
	lea	eax, DWORD PTR __$EHRec$[ebp]
	mov	DWORD PTR fs:0, eax
	mov	DWORD PTR _this$[ebp], ecx

; 477  : 	if(GC.getLogging() && GC.getAILogging())

	mov	ecx, OFFSET ?gGlobals@@3VCvGlobals@@A	; gGlobals
	call	?getLogging@CvGlobals@@QAE_NXZ		; CvGlobals::getLogging
	movzx	eax, al
	test	eax, eax
	je	$LN2@LogResearc
	mov	ecx, OFFSET ?gGlobals@@3VCvGlobals@@A	; gGlobals
	call	?getAILogging@CvGlobals@@QAE_NXZ	; CvGlobals::getAILogging
	movzx	ecx, al
	test	ecx, ecx
	je	$LN2@LogResearc

; 478  : 	{
; 479  : 		CvString playerName;

	lea	ecx, DWORD PTR _playerName$218390[ebp]
	call	DWORD PTR __imp_??0?$basic_string@DU?$char_traits@D@std@@V?$allocator@D@2@@std@@QAE@XZ
	mov	DWORD PTR __$EHRec$[ebp+8], 0

; 480  : 		CvString strOutBuf;

	lea	ecx, DWORD PTR _strOutBuf$218391[ebp]
	call	DWORD PTR __imp_??0?$basic_string@DU?$char_traits@D@std@@V?$allocator@D@2@@std@@QAE@XZ
	mov	BYTE PTR __$EHRec$[ebp+8], 1

; 481  : 		CvString strBaseString;

	lea	ecx, DWORD PTR _strBaseString$218392[ebp]
	call	DWORD PTR __imp_??0?$basic_string@DU?$char_traits@D@std@@V?$allocator@D@2@@std@@QAE@XZ
	mov	BYTE PTR __$EHRec$[ebp+8], 2

; 482  : 		CvString strTemp;

	lea	ecx, DWORD PTR _strTemp$218393[ebp]
	call	DWORD PTR __imp_??0?$basic_string@DU?$char_traits@D@std@@V?$allocator@D@2@@std@@QAE@XZ
	mov	BYTE PTR __$EHRec$[ebp+8], 3

; 483  : 		CvString strDesc;

	lea	ecx, DWORD PTR _strDesc$218394[ebp]
	call	DWORD PTR __imp_??0?$basic_string@DU?$char_traits@D@std@@V?$allocator@D@2@@std@@QAE@XZ
	mov	BYTE PTR __$EHRec$[ebp+8], 4

; 484  : 
; 485  : 		// Find the name of this civ
; 486  : 		playerName = m_pCurrentTechs->GetPlayer()->getCivilizationShortDescription();

	mov	edx, DWORD PTR _this$[ebp]
	mov	ecx, DWORD PTR [edx]
	call	?GetPlayer@CvPlayerTechs@@QAEPAVCvPlayer@@XZ ; CvPlayerTechs::GetPlayer
	mov	ecx, eax
	call	?getCivilizationShortDescription@CvPlayer@@QBEPBDXZ ; CvPlayer::getCivilizationShortDescription
	mov	DWORD PTR $T222569[ebp], eax
	cmp	DWORD PTR $T222569[ebp], 0
	je	SHORT $LN30@LogResearc
	mov	eax, DWORD PTR $T222569[ebp]
	push	eax
	lea	ecx, DWORD PTR _playerName$218390[ebp]
	call	DWORD PTR __imp_?assign@?$basic_string@DU?$char_traits@D@std@@V?$allocator@D@2@@std@@QAEAAV12@PBD@Z
	jmp	SHORT $LN31@LogResearc
$LN30@LogResearc:
	lea	ecx, DWORD PTR _playerName$218390[ebp]
	call	DWORD PTR __imp_?clear@?$basic_string@DU?$char_traits@D@std@@V?$allocator@D@2@@std@@QAEXXZ
$LN31@LogResearc:

; 487  : 
; 488  : 		FILogFile* pLog;
; 489  : 		pLog = LOGFILEMGR.GetLog(GetLogFileName(playerName), FILogFile::kDontTimeStamp);

	call	?GetInstance@FILogFileMgr@@SAAAV1@XZ	; FILogFileMgr::GetInstance
	mov	DWORD PTR tv95[ebp], eax
	lea	ecx, DWORD PTR _playerName$218390[ebp]
	push	ecx
	lea	edx, DWORD PTR $T222531[ebp]
	push	edx
	mov	ecx, DWORD PTR _this$[ebp]
	call	?GetLogFileName@CvTechAI@@ABE?AVCvString@@AAV2@@Z ; CvTechAI::GetLogFileName
	mov	DWORD PTR tv261[ebp], eax
	mov	eax, DWORD PTR tv261[ebp]
	mov	DWORD PTR $T222573[ebp], eax
	mov	BYTE PTR __$EHRec$[ebp+8], 5
	mov	ecx, DWORD PTR $T222573[ebp]
	call	DWORD PTR __imp_?c_str@?$basic_string@DU?$char_traits@D@std@@V?$allocator@D@2@@std@@QBEPBDXZ
	mov	DWORD PTR $T222574[ebp], eax
	push	0
	push	1
	mov	ecx, DWORD PTR $T222574[ebp]
	push	ecx
	mov	edx, DWORD PTR tv95[ebp]
	mov	eax, DWORD PTR [edx]
	mov	ecx, DWORD PTR tv95[ebp]
	mov	edx, DWORD PTR [eax+12]
	call	edx
	mov	DWORD PTR _pLog$218395[ebp], eax
	mov	BYTE PTR __$EHRec$[ebp+8], 4
	lea	ecx, DWORD PTR $T222531[ebp]
	call	DWORD PTR __imp_??1?$basic_string@DU?$char_traits@D@std@@V?$allocator@D@2@@std@@QAE@XZ

; 490  : 
; 491  : 		// Get the leading info for this line
; 492  : 		strBaseString.Format("%03d, ", GC.getGame().getElapsedGameTurns());

	mov	eax, DWORD PTR ?gGlobals@@3VCvGlobals@@A+48
	mov	DWORD PTR $T222582[ebp], eax
	mov	ecx, DWORD PTR $T222582[ebp]
	call	?getElapsedGameTurns@CvGame@@QBEHXZ	; CvGame::getElapsedGameTurns
	push	eax
	push	OFFSET ??_C@_06NHKAIDD@?$CF03d?0?5?$AA@
	lea	ecx, DWORD PTR _strBaseString$218392[ebp]
	push	ecx
	call	?Format@CvString@@QAAXPBDZZ		; CvString::Format
	add	esp, 12					; 0000000cH

; 493  : 		strBaseString += playerName + ", ";

	push	OFFSET ??_C@_02KEGNLNML@?0?5?$AA@
	lea	edx, DWORD PTR _playerName$218390[ebp]
	push	edx
	lea	eax, DWORD PTR $T222532[ebp]
	push	eax
	call	DWORD PTR __imp_??$?HDU?$char_traits@D@std@@V?$allocator@D@1@@std@@YA?AV?$basic_string@DU?$char_traits@D@std@@V?$allocator@D@2@@0@ABV10@PBD@Z
	add	esp, 12					; 0000000cH
	mov	DWORD PTR tv250[ebp], eax
	mov	ecx, DWORD PTR tv250[ebp]
	mov	DWORD PTR tv209[ebp], ecx
	mov	BYTE PTR __$EHRec$[ebp+8], 6
	mov	edx, DWORD PTR tv209[ebp]
	push	edx
	lea	ecx, DWORD PTR _strBaseString$218392[ebp]
	call	DWORD PTR __imp_??Y?$basic_string@DU?$char_traits@D@std@@V?$allocator@D@2@@std@@QAEAAV01@ABV01@@Z
	mov	BYTE PTR __$EHRec$[ebp+8], 4
	lea	ecx, DWORD PTR $T222532[ebp]
	call	DWORD PTR __imp_??1?$basic_string@DU?$char_traits@D@std@@V?$allocator@D@2@@std@@QAE@XZ

; 494  : 
; 495  : 		CvTechEntry* pTechEntry = GC.getTechInfo(eTech);

	mov	eax, DWORD PTR _eTech$[ebp]
	push	eax
	mov	ecx, OFFSET ?gGlobals@@3VCvGlobals@@A	; gGlobals
	call	?getTechInfo@CvGlobals@@QAEPAVCvTechEntry@@W4TechTypes@@@Z ; CvGlobals::getTechInfo
	mov	DWORD PTR _pTechEntry$218398[ebp], eax

; 496  : 		const char* szTechType = (pTechEntry != NULL)? pTechEntry->GetType() : "Unknown Tech";

	cmp	DWORD PTR _pTechEntry$218398[ebp], 0
	je	SHORT $LN4@LogResearc
	mov	ecx, DWORD PTR _pTechEntry$218398[ebp]
	add	ecx, 176				; 000000b0H
	call	DWORD PTR __imp_?c_str@?$basic_string@DU?$char_traits@D@std@@V?$allocator@D@2@@std@@QBEPBDXZ
	mov	DWORD PTR tv175[ebp], eax
	jmp	SHORT $LN5@LogResearc
$LN4@LogResearc:
	mov	DWORD PTR tv175[ebp], OFFSET ??_C@_0N@EGCCLJCI@Unknown?5Tech?$AA@
$LN5@LogResearc:
	mov	ecx, DWORD PTR tv175[ebp]
	mov	DWORD PTR _szTechType$218399[ebp], ecx

; 497  : 
; 498  : 		strTemp.Format("CHOSEN, %s", szTechType);

	mov	edx, DWORD PTR _szTechType$218399[ebp]
	push	edx
	push	OFFSET ??_C@_0L@DBMLLMJN@CHOSEN?0?5?$CFs?$AA@
	lea	eax, DWORD PTR _strTemp$218393[ebp]
	push	eax
	call	?Format@CvString@@QAAXPBDZZ		; CvString::Format
	add	esp, 12					; 0000000cH

; 499  : 
; 500  : 		strOutBuf = strBaseString + strTemp;

	lea	ecx, DWORD PTR _strTemp$218393[ebp]
	push	ecx
	lea	edx, DWORD PTR _strBaseString$218392[ebp]
	push	edx
	lea	eax, DWORD PTR $T222535[ebp]
	push	eax
	call	DWORD PTR __imp_??$?HDU?$char_traits@D@std@@V?$allocator@D@1@@std@@YA?AV?$basic_string@DU?$char_traits@D@std@@V?$allocator@D@2@@0@ABV10@0@Z
	add	esp, 12					; 0000000cH
	mov	DWORD PTR tv239[ebp], eax
	mov	ecx, DWORD PTR tv239[ebp]
	mov	DWORD PTR $T222589[ebp], ecx
	mov	BYTE PTR __$EHRec$[ebp+8], 7
	mov	ecx, DWORD PTR $T222589[ebp]
	call	DWORD PTR __imp_?c_str@?$basic_string@DU?$char_traits@D@std@@V?$allocator@D@2@@std@@QBEPBDXZ
	push	eax
	lea	ecx, DWORD PTR _strOutBuf$218391[ebp]
	call	DWORD PTR __imp_?assign@?$basic_string@DU?$char_traits@D@std@@V?$allocator@D@2@@std@@QAEAAV12@PBD@Z
	mov	BYTE PTR __$EHRec$[ebp+8], 4
	lea	ecx, DWORD PTR $T222535[ebp]
	call	DWORD PTR __imp_??1?$basic_string@DU?$char_traits@D@std@@V?$allocator@D@2@@std@@QAE@XZ

; 501  : 		pLog->Msg(strOutBuf);

	lea	ecx, DWORD PTR _strOutBuf$218391[ebp]
	call	DWORD PTR __imp_?c_str@?$basic_string@DU?$char_traits@D@std@@V?$allocator@D@2@@std@@QBEPBDXZ
	mov	DWORD PTR $T222593[ebp], eax
	mov	edx, DWORD PTR $T222593[ebp]
	push	edx
	mov	eax, DWORD PTR _pLog$218395[ebp]
	mov	ecx, DWORD PTR [eax]
	mov	edx, DWORD PTR _pLog$218395[ebp]
	push	edx
	mov	eax, DWORD PTR [ecx]
	call	eax
	add	esp, 8

; 502  : 	}

	mov	BYTE PTR __$EHRec$[ebp+8], 3
	lea	ecx, DWORD PTR _strDesc$218394[ebp]
	call	DWORD PTR __imp_??1?$basic_string@DU?$char_traits@D@std@@V?$allocator@D@2@@std@@QAE@XZ
	mov	BYTE PTR __$EHRec$[ebp+8], 2
	lea	ecx, DWORD PTR _strTemp$218393[ebp]
	call	DWORD PTR __imp_??1?$basic_string@DU?$char_traits@D@std@@V?$allocator@D@2@@std@@QAE@XZ
	mov	BYTE PTR __$EHRec$[ebp+8], 1
	lea	ecx, DWORD PTR _strBaseString$218392[ebp]
	call	DWORD PTR __imp_??1?$basic_string@DU?$char_traits@D@std@@V?$allocator@D@2@@std@@QAE@XZ
	mov	BYTE PTR __$EHRec$[ebp+8], 0
	lea	ecx, DWORD PTR _strOutBuf$218391[ebp]
	call	DWORD PTR __imp_??1?$basic_string@DU?$char_traits@D@std@@V?$allocator@D@2@@std@@QAE@XZ
	mov	DWORD PTR __$EHRec$[ebp+8], -1
	lea	ecx, DWORD PTR _playerName$218390[ebp]
	call	DWORD PTR __imp_??1?$basic_string@DU?$char_traits@D@std@@V?$allocator@D@2@@std@@QAE@XZ
$LN2@LogResearc:

; 503  : }

	mov	ecx, DWORD PTR __$EHRec$[ebp]
	mov	DWORD PTR fs:0, ecx
	pop	ecx
	mov	ecx, DWORD PTR __$ArrayPad$[ebp]
	xor	ecx, ebp
	call	@__security_check_cookie@4
	mov	esp, ebp
	pop	ebp
	ret	4
_TEXT	ENDS
;	COMDAT text$x
text$x	SEGMENT
__unwindfunclet$?LogResearchChoice@CvTechAI@@AAEXW4TechTypes@@@Z$0:
	lea	ecx, DWORD PTR _playerName$218390[ebp]
	jmp	??1CvString@@QAE@XZ			; CvString::~CvString
__unwindfunclet$?LogResearchChoice@CvTechAI@@AAEXW4TechTypes@@@Z$1:
	lea	ecx, DWORD PTR _strOutBuf$218391[ebp]
	jmp	??1CvString@@QAE@XZ			; CvString::~CvString
__unwindfunclet$?LogResearchChoice@CvTechAI@@AAEXW4TechTypes@@@Z$2:
	lea	ecx, DWORD PTR _strBaseString$218392[ebp]
	jmp	??1CvString@@QAE@XZ			; CvString::~CvString
__unwindfunclet$?LogResearchChoice@CvTechAI@@AAEXW4TechTypes@@@Z$3:
	lea	ecx, DWORD PTR _strTemp$218393[ebp]
	jmp	??1CvString@@QAE@XZ			; CvString::~CvString
__unwindfunclet$?LogResearchChoice@CvTechAI@@AAEXW4TechTypes@@@Z$4:
	lea	ecx, DWORD PTR _strDesc$218394[ebp]
	jmp	??1CvString@@QAE@XZ			; CvString::~CvString
__unwindfunclet$?LogResearchChoice@CvTechAI@@AAEXW4TechTypes@@@Z$5:
	lea	ecx, DWORD PTR $T222531[ebp]
	jmp	??1CvString@@QAE@XZ			; CvString::~CvString
__unwindfunclet$?LogResearchChoice@CvTechAI@@AAEXW4TechTypes@@@Z$6:
	lea	ecx, DWORD PTR $T222532[ebp]
	jmp	DWORD PTR __imp_??1?$basic_string@DU?$char_traits@D@std@@V?$allocator@D@2@@std@@QAE@XZ
__unwindfunclet$?LogResearchChoice@CvTechAI@@AAEXW4TechTypes@@@Z$7:
	lea	ecx, DWORD PTR $T222535[ebp]
	jmp	DWORD PTR __imp_??1?$basic_string@DU?$char_traits@D@std@@V?$allocator@D@2@@std@@QAE@XZ
__ehhandler$?LogResearchChoice@CvTechAI@@AAEXW4TechTypes@@@Z:
	mov	edx, DWORD PTR [esp+8]
	lea	eax, DWORD PTR [edx+12]
	mov	ecx, DWORD PTR [edx-296]
	xor	ecx, eax
	call	@__security_check_cookie@4
	mov	ecx, DWORD PTR [edx-4]
	xor	ecx, eax
	call	@__security_check_cookie@4
	mov	eax, OFFSET __ehfuncinfo$?LogResearchChoice@CvTechAI@@AAEXW4TechTypes@@@Z
	jmp	___CxxFrameHandler3
text$x	ENDS
?LogResearchChoice@CvTechAI@@AAEXW4TechTypes@@@Z ENDP	; CvTechAI::LogResearchChoice
PUBLIC	??_C@_0O@NLCAKOAJ@TechAILog?4csv?$AA@		; `string'
PUBLIC	??_C@_04EBGNMJBD@?4csv?$AA@			; `string'
PUBLIC	??_C@_0L@EJOHMCKE@TechAILog_?$AA@		; `string'
PUBLIC	__$ArrayPad$
EXTRN	__imp_??0?$basic_string@DU?$char_traits@D@std@@V?$allocator@D@2@@std@@QAE@ABV01@@Z:PROC
EXTRN	__imp_??$?HDU?$char_traits@D@std@@V?$allocator@D@1@@std@@YA?AV?$basic_string@DU?$char_traits@D@std@@V?$allocator@D@2@@0@PBDABV10@@Z:PROC
EXTRN	?getPlayerAndCityAILogSplit@CvGlobals@@QAE_NXZ:PROC ; CvGlobals::getPlayerAndCityAILogSplit
;	COMDAT ??_C@_0O@NLCAKOAJ@TechAILog?4csv?$AA@
; File d:\sources\lekmod_git\checkout\lekmod_dll\cvgamecoredllutil\include\cvstring.h
CONST	SEGMENT
??_C@_0O@NLCAKOAJ@TechAILog?4csv?$AA@ DB 'TechAILog.csv', 00H ; `string'
CONST	ENDS
;	COMDAT ??_C@_04EBGNMJBD@?4csv?$AA@
CONST	SEGMENT
??_C@_04EBGNMJBD@?4csv?$AA@ DB '.csv', 00H		; `string'
CONST	ENDS
;	COMDAT ??_C@_0L@EJOHMCKE@TechAILog_?$AA@
CONST	SEGMENT
??_C@_0L@EJOHMCKE@TechAILog_?$AA@ DB 'TechAILog_', 00H	; `string'
CONST	ENDS
;	COMDAT xdata$x
xdata$x	SEGMENT
__unwindtable$?GetLogFileName@CvTechAI@@ABE?AVCvString@@AAV2@@Z DD 0ffffffffH
	DD	FLAT:__unwindfunclet$?GetLogFileName@CvTechAI@@ABE?AVCvString@@AAV2@@Z$3
	DD	00H
	DD	FLAT:__unwindfunclet$?GetLogFileName@CvTechAI@@ABE?AVCvString@@AAV2@@Z$0
	DD	01H
	DD	FLAT:__unwindfunclet$?GetLogFileName@CvTechAI@@ABE?AVCvString@@AAV2@@Z$1
	DD	02H
	DD	FLAT:__unwindfunclet$?GetLogFileName@CvTechAI@@ABE?AVCvString@@AAV2@@Z$2
__ehfuncinfo$?GetLogFileName@CvTechAI@@ABE?AVCvString@@AAV2@@Z DD 019930522H
	DD	04H
	DD	FLAT:__unwindtable$?GetLogFileName@CvTechAI@@ABE?AVCvString@@AAV2@@Z
	DD	2 DUP(00H)
	DD	2 DUP(00H)
	DD	00H
	DD	01H
; Function compile flags: /Odtp
; File d:\sources\lekmod_git\checkout\lekmod_dll\cvgamecoredll_expansion2\cvtechai.cpp
xdata$x	ENDS
;	COMDAT ?GetLogFileName@CvTechAI@@ABE?AVCvString@@AAV2@@Z
_TEXT	SEGMENT
tv142 = -124						; size = 4
tv129 = -120						; size = 4
tv169 = -116						; size = 4
_this$ = -112						; size = 4
$T222638 = -108						; size = 4
$T222629 = -104						; size = 4
$T222624 = -100						; size = 28
$T222623 = -72						; size = 28
_strLogName$ = -44					; size = 28
__$ArrayPad$ = -16					; size = 4
__$EHRec$ = -12						; size = 12
___$ReturnUdt$ = 8					; size = 4
_playerName$ = 12					; size = 4
?GetLogFileName@CvTechAI@@ABE?AVCvString@@AAV2@@Z PROC	; CvTechAI::GetLogFileName, COMDAT
; _this$ = ecx

; 507  : {

	push	ebp
	mov	ebp, esp
	push	-1
	push	__ehhandler$?GetLogFileName@CvTechAI@@ABE?AVCvString@@AAV2@@Z
	mov	eax, DWORD PTR fs:0
	push	eax
	sub	esp, 112				; 00000070H
	mov	eax, DWORD PTR ___security_cookie
	xor	eax, ebp
	mov	DWORD PTR __$ArrayPad$[ebp], eax
	push	eax
	lea	eax, DWORD PTR __$EHRec$[ebp]
	mov	DWORD PTR fs:0, eax
	mov	DWORD PTR _this$[ebp], ecx
	mov	DWORD PTR $T222629[ebp], 0

; 508  : 	CvString strLogName;

	lea	ecx, DWORD PTR _strLogName$[ebp]
	call	DWORD PTR __imp_??0?$basic_string@DU?$char_traits@D@std@@V?$allocator@D@2@@std@@QAE@XZ
	mov	DWORD PTR __$EHRec$[ebp+8], 1

; 509  : 
; 510  : 	// Open the log file
; 511  : 	if(GC.getPlayerAndCityAILogSplit())

	mov	ecx, OFFSET ?gGlobals@@3VCvGlobals@@A	; gGlobals
	call	?getPlayerAndCityAILogSplit@CvGlobals@@QAE_NXZ ; CvGlobals::getPlayerAndCityAILogSplit
	movzx	eax, al
	test	eax, eax
	je	SHORT $LN2@GetLogFile

; 512  : 	{
; 513  : 		strLogName = "TechAILog_" + playerName + ".csv";

	mov	ecx, DWORD PTR _playerName$[ebp]
	push	ecx
	push	OFFSET ??_C@_0L@EJOHMCKE@TechAILog_?$AA@
	lea	edx, DWORD PTR $T222623[ebp]
	push	edx
	call	DWORD PTR __imp_??$?HDU?$char_traits@D@std@@V?$allocator@D@1@@std@@YA?AV?$basic_string@DU?$char_traits@D@std@@V?$allocator@D@2@@0@PBDABV10@@Z
	add	esp, 12					; 0000000cH
	mov	DWORD PTR tv169[ebp], eax
	mov	eax, DWORD PTR tv169[ebp]
	mov	DWORD PTR tv129[ebp], eax
	mov	BYTE PTR __$EHRec$[ebp+8], 2
	push	OFFSET ??_C@_04EBGNMJBD@?4csv?$AA@
	mov	ecx, DWORD PTR tv129[ebp]
	push	ecx
	lea	edx, DWORD PTR $T222624[ebp]
	push	edx
	call	DWORD PTR __imp_??$?HDU?$char_traits@D@std@@V?$allocator@D@1@@std@@YA?AV?$basic_string@DU?$char_traits@D@std@@V?$allocator@D@2@@0@ABV10@PBD@Z
	add	esp, 12					; 0000000cH
	mov	DWORD PTR tv142[ebp], eax
	mov	eax, DWORD PTR tv142[ebp]
	mov	DWORD PTR $T222638[ebp], eax
	mov	BYTE PTR __$EHRec$[ebp+8], 3
	mov	ecx, DWORD PTR $T222638[ebp]
	call	DWORD PTR __imp_?c_str@?$basic_string@DU?$char_traits@D@std@@V?$allocator@D@2@@std@@QBEPBDXZ
	push	eax
	lea	ecx, DWORD PTR _strLogName$[ebp]
	call	DWORD PTR __imp_?assign@?$basic_string@DU?$char_traits@D@std@@V?$allocator@D@2@@std@@QAEAAV12@PBD@Z
	mov	BYTE PTR __$EHRec$[ebp+8], 2
	lea	ecx, DWORD PTR $T222624[ebp]
	call	DWORD PTR __imp_??1?$basic_string@DU?$char_traits@D@std@@V?$allocator@D@2@@std@@QAE@XZ
	mov	BYTE PTR __$EHRec$[ebp+8], 1
	lea	ecx, DWORD PTR $T222623[ebp]
	call	DWORD PTR __imp_??1?$basic_string@DU?$char_traits@D@std@@V?$allocator@D@2@@std@@QAE@XZ

; 514  : 	}
; 515  : 	else

	jmp	SHORT $LN1@GetLogFile
$LN2@GetLogFile:

; 516  : 	{
; 517  : 		strLogName = "TechAILog.csv";

	mov	ecx, OFFSET ??_C@_0O@NLCAKOAJ@TechAILog?4csv?$AA@
	test	ecx, ecx
	je	SHORT $LN16@GetLogFile
	push	OFFSET ??_C@_0O@NLCAKOAJ@TechAILog?4csv?$AA@
	lea	ecx, DWORD PTR _strLogName$[ebp]
	call	DWORD PTR __imp_?assign@?$basic_string@DU?$char_traits@D@std@@V?$allocator@D@2@@std@@QAEAAV12@PBD@Z
	jmp	SHORT $LN1@GetLogFile
$LN16@GetLogFile:
	lea	ecx, DWORD PTR _strLogName$[ebp]
	call	DWORD PTR __imp_?clear@?$basic_string@DU?$char_traits@D@std@@V?$allocator@D@2@@std@@QAEXXZ
$LN1@GetLogFile:

; 518  : 	}
; 519  : 
; 520  : 	return strLogName;

	lea	edx, DWORD PTR _strLogName$[ebp]
	push	edx
	mov	ecx, DWORD PTR ___$ReturnUdt$[ebp]
	call	DWORD PTR __imp_??0?$basic_string@DU?$char_traits@D@std@@V?$allocator@D@2@@std@@QAE@ABV01@@Z
	mov	eax, DWORD PTR $T222629[ebp]
	or	eax, 1
	mov	DWORD PTR $T222629[ebp], eax
	mov	BYTE PTR __$EHRec$[ebp+8], 0
	lea	ecx, DWORD PTR _strLogName$[ebp]
	call	DWORD PTR __imp_??1?$basic_string@DU?$char_traits@D@std@@V?$allocator@D@2@@std@@QAE@XZ
	mov	eax, DWORD PTR ___$ReturnUdt$[ebp]

; 521  : }

	mov	ecx, DWORD PTR __$EHRec$[ebp]
	mov	DWORD PTR fs:0, ecx
	pop	ecx
	mov	ecx, DWORD PTR __$ArrayPad$[ebp]
	xor	ecx, ebp
	call	@__security_check_cookie@4
	mov	esp, ebp
	pop	ebp
	ret	8
_TEXT	ENDS
;	COMDAT text$x
text$x	SEGMENT
__unwindfunclet$?GetLogFileName@CvTechAI@@ABE?AVCvString@@AAV2@@Z$0:
	lea	ecx, DWORD PTR _strLogName$[ebp]
	jmp	??1CvString@@QAE@XZ			; CvString::~CvString
__unwindfunclet$?GetLogFileName@CvTechAI@@ABE?AVCvString@@AAV2@@Z$1:
	lea	ecx, DWORD PTR $T222623[ebp]
	jmp	DWORD PTR __imp_??1?$basic_string@DU?$char_traits@D@std@@V?$allocator@D@2@@std@@QAE@XZ
__unwindfunclet$?GetLogFileName@CvTechAI@@ABE?AVCvString@@AAV2@@Z$2:
	lea	ecx, DWORD PTR $T222624[ebp]
	jmp	DWORD PTR __imp_??1?$basic_string@DU?$char_traits@D@std@@V?$allocator@D@2@@std@@QAE@XZ
__unwindfunclet$?GetLogFileName@CvTechAI@@ABE?AVCvString@@AAV2@@Z$3:
	mov	eax, DWORD PTR $T222629[ebp]
	and	eax, 1
	je	$LN9@GetLogFile
	and	DWORD PTR $T222629[ebp], -2		; fffffffeH
	mov	ecx, DWORD PTR ___$ReturnUdt$[ebp]
	jmp	??1CvString@@QAE@XZ			; CvString::~CvString
$LN9@GetLogFile:
	ret	0
__ehhandler$?GetLogFileName@CvTechAI@@ABE?AVCvString@@AAV2@@Z:
	mov	edx, DWORD PTR [esp+8]
	lea	eax, DWORD PTR [edx+12]
	mov	ecx, DWORD PTR [edx-116]
	xor	ecx, eax
	call	@__security_check_cookie@4
	mov	ecx, DWORD PTR [edx-4]
	xor	ecx, eax
	call	@__security_check_cookie@4
	mov	eax, OFFSET __ehfuncinfo$?GetLogFileName@CvTechAI@@ABE?AVCvString@@AAV2@@Z
	jmp	___CxxFrameHandler3
text$x	ENDS
?GetLogFileName@CvTechAI@@ABE?AVCvString@@AAV2@@Z ENDP	; CvTechAI::GetLogFileName
; Function compile flags: /Odtp
; File d:\sources\lekmod_git\checkout\lekmod_dll\cvgamecoredllutil\include\cvweightedvector.h
;	COMDAT ??1?$CvWeightedVector@H$0FA@$00@@QAE@XZ
_TEXT	SEGMENT
_this$ = -16						; size = 4
??1?$CvWeightedVector@H$0FA@$00@@QAE@XZ PROC		; CvWeightedVector<int,80,1>::~CvWeightedVector<int,80,1>, COMDAT
; _this$ = ecx

; 58   : 	{

	push	ebp
	mov	ebp, esp
	sub	esp, 16					; 00000010H
	mov	DWORD PTR _this$[ebp], ecx

; 59   : 	};

	mov	ecx, DWORD PTR _this$[ebp]
	call	??1?$FStaticVector@UWeightedElement@?$CvWeightedVector@H$0FA@$00@@$0FA@$00$0A@$0A@@@QAE@XZ ; FStaticVector<CvWeightedVector<int,80,1>::WeightedElement,80,1,0,0>::~FStaticVector<CvWeightedVector<int,80,1>::WeightedElement,80,1,0,0>
	mov	esp, ebp
	pop	ebp
	ret	0
??1?$CvWeightedVector@H$0FA@$00@@QAE@XZ ENDP		; CvWeightedVector<int,80,1>::~CvWeightedVector<int,80,1>
; Function compile flags: /Odtp
_TEXT	ENDS
;	COMDAT ?GetTotalWeight@?$CvWeightedVector@H$0FA@$00@@QAEHXZ
_TEXT	SEGMENT
_this$ = -28						; size = 4
$T222700 = -24						; size = 4
$T222693 = -20						; size = 4
_elem$218437 = -16					; size = 8
_i$218433 = -8						; size = 4
_rtnValue$ = -4						; size = 4
?GetTotalWeight@?$CvWeightedVector@H$0FA@$00@@QAEHXZ PROC ; CvWeightedVector<int,80,1>::GetTotalWeight, COMDAT
; _this$ = ecx

; 89   : 	{

	push	ebp
	mov	ebp, esp
	sub	esp, 28					; 0000001cH
	mov	DWORD PTR _this$[ebp], ecx

; 90   : 		int rtnValue = 0;

	mov	DWORD PTR _rtnValue$[ebp], 0

; 91   : 
; 92   : 		for (unsigned int i = 0; i < m_pItems.size(); i++)

	mov	DWORD PTR _i$218433[ebp], 0
	jmp	SHORT $LN3@GetTotalWe
$LN2@GetTotalWe:
	mov	eax, DWORD PTR _i$218433[ebp]
	add	eax, 1
	mov	DWORD PTR _i$218433[ebp], eax
$LN3@GetTotalWe:
	mov	ecx, DWORD PTR _this$[ebp]
	mov	edx, DWORD PTR [ecx+4]
	mov	DWORD PTR $T222693[ebp], edx
	mov	eax, DWORD PTR _i$218433[ebp]
	cmp	eax, DWORD PTR $T222693[ebp]
	jae	SHORT $LN1@GetTotalWe

; 93   : 		{
; 94   : 			WeightedElement elem = m_pItems[i];

	mov	ecx, DWORD PTR _this$[ebp]
	mov	edx, DWORD PTR [ecx]
	mov	eax, DWORD PTR _i$218433[ebp]
	lea	ecx, DWORD PTR [edx+eax*8]
	mov	DWORD PTR $T222700[ebp], ecx
	mov	edx, DWORD PTR $T222700[ebp]
	mov	eax, DWORD PTR [edx]
	mov	DWORD PTR _elem$218437[ebp], eax
	mov	ecx, DWORD PTR $T222700[ebp]
	mov	edx, DWORD PTR [ecx+4]
	mov	DWORD PTR _elem$218437[ebp+4], edx

; 95   : 			rtnValue += elem.m_iWeight;

	mov	eax, DWORD PTR _rtnValue$[ebp]
	add	eax, DWORD PTR _elem$218437[ebp+4]
	mov	DWORD PTR _rtnValue$[ebp], eax

; 96   : 		}

	jmp	SHORT $LN2@GetTotalWe
$LN1@GetTotalWe:

; 97   : 
; 98   : 		return rtnValue;

	mov	eax, DWORD PTR _rtnValue$[ebp]

; 99   : 	};

	mov	esp, ebp
	pop	ebp
	ret	0
?GetTotalWeight@?$CvWeightedVector@H$0FA@$00@@QAEHXZ ENDP ; CvWeightedVector<int,80,1>::GetTotalWeight
; Function compile flags: /Odtp
_TEXT	ENDS
;	COMDAT ?ChooseFromTopChoices@?$CvWeightedVector@H$0FA@$00@@QAEHHPAV?$FastDelegate2@HPBDH@fastdelegate@@PBD@Z
_TEXT	SEGMENT
_this$ = -40						; size = 4
$T222725 = -36						; size = 4
$T222721 = -32						; size = 4
$T222710 = -28						; size = 4
$T222706 = -24						; size = 4
_iTotalTopChoicesWeight$ = -20				; size = 4
_iChoice$ = -16						; size = 4
_i$ = -12						; size = 4
_elem$ = -8						; size = 8
_iNumChoices$ = 8					; size = 4
_rndFcn$ = 12						; size = 4
_szRollName$ = 16					; size = 4
?ChooseFromTopChoices@?$CvWeightedVector@H$0FA@$00@@QAEHHPAV?$FastDelegate2@HPBDH@fastdelegate@@PBD@Z PROC ; CvWeightedVector<int,80,1>::ChooseFromTopChoices, COMDAT
; _this$ = ecx

; 223  : 	{

	push	ebp
	mov	ebp, esp
	sub	esp, 40					; 00000028H
	mov	DWORD PTR _this$[ebp], ecx

; 224  : 		// Loop through the top choices, or the total vector size, whichever is smaller
; 225  : 		if (iNumChoices > (int) m_pItems.size())

	mov	eax, DWORD PTR _this$[ebp]
	mov	ecx, DWORD PTR [eax+4]
	mov	DWORD PTR $T222706[ebp], ecx
	mov	edx, DWORD PTR _iNumChoices$[ebp]
	cmp	edx, DWORD PTR $T222706[ebp]
	jle	SHORT $LN8@ChooseFrom

; 226  : 		{
; 227  : 			iNumChoices = (int) m_pItems.size();

	mov	eax, DWORD PTR _this$[ebp]
	mov	ecx, DWORD PTR [eax+4]
	mov	DWORD PTR $T222710[ebp], ecx
	mov	edx, DWORD PTR $T222710[ebp]
	mov	DWORD PTR _iNumChoices$[ebp], edx
$LN8@ChooseFrom:

; 228  : 		}
; 229  : 
; 230  : 		WeightedElement elem;

	mov	DWORD PTR _elem$[ebp], 0
	mov	DWORD PTR _elem$[ebp+4], 0

; 231  : 		int i;
; 232  : 		int iChoice;
; 233  : 		int iTotalTopChoicesWeight = 0;

	mov	DWORD PTR _iTotalTopChoicesWeight$[ebp], 0

; 234  : 
; 235  : 		// Get the total weight
; 236  : 		for (i = 0; i < iNumChoices; i++)

	mov	DWORD PTR _i$[ebp], 0
	jmp	SHORT $LN7@ChooseFrom
$LN6@ChooseFrom:
	mov	eax, DWORD PTR _i$[ebp]
	add	eax, 1
	mov	DWORD PTR _i$[ebp], eax
$LN7@ChooseFrom:
	mov	ecx, DWORD PTR _i$[ebp]
	cmp	ecx, DWORD PTR _iNumChoices$[ebp]
	jge	SHORT $LN5@ChooseFrom

; 237  : 		{
; 238  : 			elem = m_pItems[i];

	mov	edx, DWORD PTR _this$[ebp]
	mov	eax, DWORD PTR [edx]
	mov	ecx, DWORD PTR _i$[ebp]
	mov	edx, DWORD PTR [eax+ecx*8]
	mov	eax, DWORD PTR [eax+ecx*8+4]
	mov	DWORD PTR _elem$[ebp], edx
	mov	DWORD PTR _elem$[ebp+4], eax

; 239  : 			iTotalTopChoicesWeight += elem.m_iWeight;

	mov	ecx, DWORD PTR _iTotalTopChoicesWeight$[ebp]
	add	ecx, DWORD PTR _elem$[ebp+4]
	mov	DWORD PTR _iTotalTopChoicesWeight$[ebp], ecx

; 240  : 		}

	jmp	SHORT $LN6@ChooseFrom
$LN5@ChooseFrom:

; 241  : 
; 242  : 		// Random roll up to total weight
; 243  : 		iChoice = (*rndFcn)(iTotalTopChoicesWeight, szRollName);

	mov	edx, DWORD PTR _rndFcn$[ebp]
	mov	eax, DWORD PTR [edx+4]
	mov	DWORD PTR $T222721[ebp], eax
	mov	ecx, DWORD PTR _rndFcn$[ebp]
	mov	edx, DWORD PTR [ecx]
	mov	DWORD PTR $T222725[ebp], edx
	mov	eax, DWORD PTR _szRollName$[ebp]
	push	eax
	mov	ecx, DWORD PTR _iTotalTopChoicesWeight$[ebp]
	push	ecx
	mov	ecx, DWORD PTR $T222725[ebp]
	call	DWORD PTR $T222721[ebp]
	mov	DWORD PTR _iChoice$[ebp], eax

; 244  : 
; 245  : 		// Find out which element was chosen
; 246  : 		for (i = 0; i < iNumChoices; i++)

	mov	DWORD PTR _i$[ebp], 0
	jmp	SHORT $LN4@ChooseFrom
$LN3@ChooseFrom:
	mov	edx, DWORD PTR _i$[ebp]
	add	edx, 1
	mov	DWORD PTR _i$[ebp], edx
$LN4@ChooseFrom:
	mov	eax, DWORD PTR _i$[ebp]
	cmp	eax, DWORD PTR _iNumChoices$[ebp]
	jge	SHORT $LN2@ChooseFrom

; 247  : 		{
; 248  : 			elem = m_pItems[i];

	mov	ecx, DWORD PTR _this$[ebp]
	mov	edx, DWORD PTR [ecx]
	mov	eax, DWORD PTR _i$[ebp]
	mov	ecx, DWORD PTR [edx+eax*8]
	mov	edx, DWORD PTR [edx+eax*8+4]
	mov	DWORD PTR _elem$[ebp], ecx
	mov	DWORD PTR _elem$[ebp+4], edx

; 249  : 			iChoice -= elem.m_iWeight;

	mov	eax, DWORD PTR _iChoice$[ebp]
	sub	eax, DWORD PTR _elem$[ebp+4]
	mov	DWORD PTR _iChoice$[ebp], eax

; 250  : 			if (iChoice < 0)

	jns	SHORT $LN1@ChooseFrom

; 251  : 			{
; 252  : 				return elem.m_Element;

	mov	eax, DWORD PTR _elem$[ebp]
	jmp	SHORT $LN9@ChooseFrom
$LN1@ChooseFrom:

; 253  : 			}
; 254  : 		}

	jmp	SHORT $LN3@ChooseFrom
$LN2@ChooseFrom:

; 255  : 
; 256  : 		// We should have found something, so reaching here is an error
; 257  : 		//    Just return last thing accessed
; 258  : 		CvAssertMsg (false, "Internal error in CvWeightedVector.");
; 259  : 		return elem.m_Element;

	mov	eax, DWORD PTR _elem$[ebp]
$LN9@ChooseFrom:

; 260  : 	};

	mov	esp, ebp
	pop	ebp
	ret	12					; 0000000cH
?ChooseFromTopChoices@?$CvWeightedVector@H$0FA@$00@@QAEHHPAV?$FastDelegate2@HPBDH@fastdelegate@@PBD@Z ENDP ; CvWeightedVector<int,80,1>::ChooseFromTopChoices
_TEXT	ENDS
PUBLIC	?_Buy@?$vector@ULeaderWithNumTechs@@V?$allocator@ULeaderWithNumTechs@@@std@@@std@@IAE_NI@Z ; std::vector<LeaderWithNumTechs,std::allocator<LeaderWithNumTechs> >::_Buy
EXTRN	__CxxThrowException@8:PROC
;	COMDAT xdata$x
; File c:\program files (x86)\microsoft visual studio 9.0\vc\include\exception
xdata$x	SEGMENT
__unwindtable$??0?$vector@ULeaderWithNumTechs@@V?$allocator@ULeaderWithNumTechs@@@std@@@std@@QAE@XZ DD 0ffffffffH
	DD	FLAT:__unwindfunclet$??0?$vector@ULeaderWithNumTechs@@V?$allocator@ULeaderWithNumTechs@@@std@@@std@@QAE@XZ$0
__ehfuncinfo$??0?$vector@ULeaderWithNumTechs@@V?$allocator@ULeaderWithNumTechs@@@std@@@std@@QAE@XZ DD 019930522H
	DD	01H
	DD	FLAT:__unwindtable$??0?$vector@ULeaderWithNumTechs@@V?$allocator@ULeaderWithNumTechs@@@std@@@std@@QAE@XZ
	DD	2 DUP(00H)
	DD	2 DUP(00H)
	DD	00H
	DD	01H
; Function compile flags: /Odtp
; File c:\program files (x86)\microsoft visual studio 9.0\vc\include\vector
xdata$x	ENDS
;	COMDAT ??0?$vector@ULeaderWithNumTechs@@V?$allocator@ULeaderWithNumTechs@@@std@@@std@@QAE@XZ
_TEXT	SEGMENT
tv88 = -132						; size = 4
tv145 = -128						; size = 4
_this$ = -124						; size = 4
$T222766 = -30						; size = 1
$T222753 = -29						; size = 1
$T222749 = -28						; size = 4
$T222742 = -20						; size = 4
__$EHRec$ = -12						; size = 12
??0?$vector@ULeaderWithNumTechs@@V?$allocator@ULeaderWithNumTechs@@@std@@@std@@QAE@XZ PROC ; std::vector<LeaderWithNumTechs,std::allocator<LeaderWithNumTechs> >::vector<LeaderWithNumTechs,std::allocator<LeaderWithNumTechs> >, COMDAT
; _this$ = ecx

; 470  : 		{	// construct empty vector

	push	ebp
	mov	ebp, esp
	push	-1
	push	__ehhandler$??0?$vector@ULeaderWithNumTechs@@V?$allocator@ULeaderWithNumTechs@@@std@@@std@@QAE@XZ
	mov	eax, DWORD PTR fs:0
	push	eax
	sub	esp, 120				; 00000078H
	mov	eax, DWORD PTR ___security_cookie
	xor	eax, ebp
	push	eax
	lea	eax, DWORD PTR __$EHRec$[ebp]
	mov	DWORD PTR fs:0, eax
	mov	DWORD PTR _this$[ebp], ecx
	lea	eax, DWORD PTR $T222766[ebp]
	mov	DWORD PTR $T222742[ebp], eax
	lea	ecx, DWORD PTR $T222753[ebp]
	mov	DWORD PTR $T222749[ebp], ecx
	mov	edx, DWORD PTR _this$[ebp]
	mov	DWORD PTR tv145[ebp], edx
	mov	eax, DWORD PTR _this$[ebp]
	mov	DWORD PTR tv88[ebp], eax
	mov	DWORD PTR __$EHRec$[ebp+8], 0

; 471  : 		_Buy(0);

	push	0
	mov	ecx, DWORD PTR _this$[ebp]
	call	?_Buy@?$vector@ULeaderWithNumTechs@@V?$allocator@ULeaderWithNumTechs@@@std@@@std@@IAE_NI@Z ; std::vector<LeaderWithNumTechs,std::allocator<LeaderWithNumTechs> >::_Buy

; 472  : 		}

	mov	DWORD PTR __$EHRec$[ebp+8], -1
	mov	eax, DWORD PTR _this$[ebp]
	mov	ecx, DWORD PTR __$EHRec$[ebp]
	mov	DWORD PTR fs:0, ecx
	pop	ecx
	mov	esp, ebp
	pop	ebp
	ret	0
_TEXT	ENDS
;	COMDAT text$x
text$x	SEGMENT
__unwindfunclet$??0?$vector@ULeaderWithNumTechs@@V?$allocator@ULeaderWithNumTechs@@@std@@@std@@QAE@XZ$0:
	mov	ecx, DWORD PTR _this$[ebp]
	jmp	??1?$_Vector_val@ULeaderWithNumTechs@@V?$allocator@ULeaderWithNumTechs@@@std@@@std@@QAE@XZ
__ehhandler$??0?$vector@ULeaderWithNumTechs@@V?$allocator@ULeaderWithNumTechs@@@std@@@std@@QAE@XZ:
	mov	edx, DWORD PTR [esp+8]
	lea	eax, DWORD PTR [edx+12]
	mov	ecx, DWORD PTR [edx-124]
	xor	ecx, eax
	call	@__security_check_cookie@4
	mov	eax, OFFSET __ehfuncinfo$??0?$vector@ULeaderWithNumTechs@@V?$allocator@ULeaderWithNumTechs@@@std@@@std@@QAE@XZ
	jmp	___CxxFrameHandler3
text$x	ENDS
??0?$vector@ULeaderWithNumTechs@@V?$allocator@ULeaderWithNumTechs@@@std@@@std@@QAE@XZ ENDP ; std::vector<LeaderWithNumTechs,std::allocator<LeaderWithNumTechs> >::vector<LeaderWithNumTechs,std::allocator<LeaderWithNumTechs> >
;	COMDAT xdata$x
; File c:\program files (x86)\microsoft visual studio 9.0\vc\include\xutility
xdata$x	SEGMENT
__unwindtable$??1?$vector@ULeaderWithNumTechs@@V?$allocator@ULeaderWithNumTechs@@@std@@@std@@QAE@XZ DD 0ffffffffH
	DD	FLAT:__unwindfunclet$??1?$vector@ULeaderWithNumTechs@@V?$allocator@ULeaderWithNumTechs@@@std@@@std@@QAE@XZ$0
__ehfuncinfo$??1?$vector@ULeaderWithNumTechs@@V?$allocator@ULeaderWithNumTechs@@@std@@@std@@QAE@XZ DD 019930522H
	DD	01H
	DD	FLAT:__unwindtable$??1?$vector@ULeaderWithNumTechs@@V?$allocator@ULeaderWithNumTechs@@@std@@@std@@QAE@XZ
	DD	2 DUP(00H)
	DD	2 DUP(00H)
	DD	00H
	DD	01H
; Function compile flags: /Odtp
; File c:\program files (x86)\microsoft visual studio 9.0\vc\include\vector
xdata$x	ENDS
;	COMDAT ??1?$vector@ULeaderWithNumTechs@@V?$allocator@ULeaderWithNumTechs@@@std@@@std@@QAE@XZ
_TEXT	SEGMENT
_this$ = -48						; size = 4
__$EHRec$ = -12						; size = 12
??1?$vector@ULeaderWithNumTechs@@V?$allocator@ULeaderWithNumTechs@@@std@@@std@@QAE@XZ PROC ; std::vector<LeaderWithNumTechs,std::allocator<LeaderWithNumTechs> >::~vector<LeaderWithNumTechs,std::allocator<LeaderWithNumTechs> >, COMDAT
; _this$ = ecx

; 558  : 		{	// destroy the object

	push	ebp
	mov	ebp, esp
	push	-1
	push	__ehhandler$??1?$vector@ULeaderWithNumTechs@@V?$allocator@ULeaderWithNumTechs@@@std@@@std@@QAE@XZ
	mov	eax, DWORD PTR fs:0
	push	eax
	sub	esp, 36					; 00000024H
	mov	eax, DWORD PTR ___security_cookie
	xor	eax, ebp
	push	eax
	lea	eax, DWORD PTR __$EHRec$[ebp]
	mov	DWORD PTR fs:0, eax
	mov	DWORD PTR _this$[ebp], ecx
	mov	DWORD PTR __$EHRec$[ebp+8], 0

; 559  : 		_Tidy();

	mov	ecx, DWORD PTR _this$[ebp]
	call	?_Tidy@?$vector@ULeaderWithNumTechs@@V?$allocator@ULeaderWithNumTechs@@@std@@@std@@IAEXXZ ; std::vector<LeaderWithNumTechs,std::allocator<LeaderWithNumTechs> >::_Tidy

; 560  : 		}

	mov	DWORD PTR __$EHRec$[ebp+8], -1
	mov	ecx, DWORD PTR __$EHRec$[ebp]
	mov	DWORD PTR fs:0, ecx
	pop	ecx
	mov	esp, ebp
	pop	ebp
	ret	0
_TEXT	ENDS
;	COMDAT text$x
text$x	SEGMENT
__unwindfunclet$??1?$vector@ULeaderWithNumTechs@@V?$allocator@ULeaderWithNumTechs@@@std@@@std@@QAE@XZ$0:
	mov	ecx, DWORD PTR _this$[ebp]
	jmp	??1?$_Vector_val@ULeaderWithNumTechs@@V?$allocator@ULeaderWithNumTechs@@@std@@@std@@QAE@XZ
__ehhandler$??1?$vector@ULeaderWithNumTechs@@V?$allocator@ULeaderWithNumTechs@@@std@@@std@@QAE@XZ:
	mov	edx, DWORD PTR [esp+8]
	lea	eax, DWORD PTR [edx+12]
	mov	ecx, DWORD PTR [edx-40]
	xor	ecx, eax
	call	@__security_check_cookie@4
	mov	eax, OFFSET __ehfuncinfo$??1?$vector@ULeaderWithNumTechs@@V?$allocator@ULeaderWithNumTechs@@@std@@@std@@QAE@XZ
	jmp	___CxxFrameHandler3
text$x	ENDS
??1?$vector@ULeaderWithNumTechs@@V?$allocator@ULeaderWithNumTechs@@@std@@@std@@QAE@XZ ENDP ; std::vector<LeaderWithNumTechs,std::allocator<LeaderWithNumTechs> >::~vector<LeaderWithNumTechs,std::allocator<LeaderWithNumTechs> >
PUBLIC	?insert@?$vector@ULeaderWithNumTechs@@V?$allocator@ULeaderWithNumTechs@@@std@@@std@@QAE?AV?$_Vector_iterator@ULeaderWithNumTechs@@V?$allocator@ULeaderWithNumTechs@@@std@@@2@V?$_Vector_const_iterator@ULeaderWithNumTechs@@V?$allocator@ULeaderWithNumTechs@@@std@@@2@ABULeaderWithNumTechs@@@Z ; std::vector<LeaderWithNumTechs,std::allocator<LeaderWithNumTechs> >::insert
PUBLIC	??$_Uninit_fill_n@PAULeaderWithNumTechs@@IU1@V?$allocator@ULeaderWithNumTechs@@@std@@@std@@YAXPAULeaderWithNumTechs@@IABU1@AAV?$allocator@ULeaderWithNumTechs@@@0@U_Nonscalar_ptr_iterator_tag@0@U_Range_checked_iterator_tag@0@@Z ; std::_Uninit_fill_n<LeaderWithNumTechs *,unsigned int,LeaderWithNumTechs,std::allocator<LeaderWithNumTechs> >
; Function compile flags: /Odtp
;	COMDAT ?push_back@?$vector@ULeaderWithNumTechs@@V?$allocator@ULeaderWithNumTechs@@@std@@@std@@QAEXABULeaderWithNumTechs@@@Z
_TEXT	SEGMENT
tv129 = -64						; size = 4
_this$ = -60						; size = 4
$T222952 = -32						; size = 4
$T222942 = -28						; size = 4
$T222932 = -24						; size = 4
__Cat$222940 = -19					; size = 1
$T222938 = -18						; size = 1
$T222937 = -17						; size = 1
$T222909 = -16						; size = 4
$T222905 = -12						; size = 4
$T222904 = -8						; size = 4
$T222903 = -4						; size = 4
__Val$ = 8						; size = 4
?push_back@?$vector@ULeaderWithNumTechs@@V?$allocator@ULeaderWithNumTechs@@@std@@@std@@QAEXABULeaderWithNumTechs@@@Z PROC ; std::vector<LeaderWithNumTechs,std::allocator<LeaderWithNumTechs> >::push_back, COMDAT
; _this$ = ecx

; 809  : 		{	// insert element at end

	push	ebp
	mov	ebp, esp
	sub	esp, 64					; 00000040H
	mov	DWORD PTR _this$[ebp], ecx

; 810  : 		if (size() < capacity())

	mov	eax, DWORD PTR _this$[ebp]
	mov	ecx, DWORD PTR _this$[ebp]
	mov	edx, DWORD PTR [eax+8]
	sub	edx, DWORD PTR [ecx+4]
	sar	edx, 3
	mov	DWORD PTR $T222909[ebp], edx
	mov	eax, DWORD PTR _this$[ebp]
	cmp	DWORD PTR [eax+4], 0
	jne	SHORT $LN9@push_back
	mov	DWORD PTR tv129[ebp], 0
	jmp	SHORT $LN7@push_back
$LN9@push_back:
	mov	ecx, DWORD PTR _this$[ebp]
	mov	edx, DWORD PTR _this$[ebp]
	mov	eax, DWORD PTR [ecx+12]
	sub	eax, DWORD PTR [edx+4]
	sar	eax, 3
	mov	DWORD PTR tv129[ebp], eax
$LN7@push_back:
	mov	ecx, DWORD PTR $T222909[ebp]
	cmp	ecx, DWORD PTR tv129[ebp]
	jae	SHORT $LN2@push_back

; 811  : 
; 812  :  #if _HAS_ITERATOR_DEBUGGING
; 813  : 			{ // room at end, construct it there
; 814  : 			_Orphan_range(_Mylast, _Mylast);
; 815  : 			_Mylast = _Ufill(_Mylast, 1, _Val);
; 816  : 			}
; 817  : 
; 818  :  #else /* _HAS_ITERATOR_DEBUGGING */
; 819  : 			_Mylast = _Ufill(_Mylast, 1, _Val);

	mov	edx, DWORD PTR _this$[ebp]
	mov	eax, DWORD PTR [edx+8]
	mov	DWORD PTR $T222942[ebp], eax
	mov	ecx, DWORD PTR $T222942[ebp]
	mov	DWORD PTR $T222932[ebp], ecx
	xor	edx, edx
	mov	BYTE PTR $T222937[ebp], dl
	mov	al, BYTE PTR __Cat$222940[ebp]
	mov	BYTE PTR $T222938[ebp], al
	movzx	ecx, BYTE PTR $T222937[ebp]
	push	ecx
	movzx	edx, BYTE PTR $T222938[ebp]
	push	edx
	mov	eax, DWORD PTR _this$[ebp]
	push	eax
	mov	ecx, DWORD PTR __Val$[ebp]
	push	ecx
	push	1
	mov	edx, DWORD PTR $T222932[ebp]
	push	edx
	call	??$_Uninit_fill_n@PAULeaderWithNumTechs@@IU1@V?$allocator@ULeaderWithNumTechs@@@std@@@std@@YAXPAULeaderWithNumTechs@@IABU1@AAV?$allocator@ULeaderWithNumTechs@@@0@U_Nonscalar_ptr_iterator_tag@0@U_Range_checked_iterator_tag@0@@Z ; std::_Uninit_fill_n<LeaderWithNumTechs *,unsigned int,LeaderWithNumTechs,std::allocator<LeaderWithNumTechs> >
	add	esp, 24					; 00000018H
	mov	eax, 1
	shl	eax, 3
	add	eax, DWORD PTR $T222942[ebp]
	mov	ecx, DWORD PTR _this$[ebp]
	mov	DWORD PTR [ecx+8], eax

; 820  :  #endif /* _HAS_ITERATOR_DEBUGGING */
; 821  : 
; 822  : 		else

	jmp	SHORT $LN3@push_back
$LN2@push_back:

; 823  : 			insert(end(), _Val);

	mov	edx, DWORD PTR _this$[ebp]
	mov	eax, DWORD PTR [edx+8]
	mov	DWORD PTR $T222952[ebp], eax
	mov	ecx, DWORD PTR $T222952[ebp]
	mov	DWORD PTR $T222904[ebp], ecx
	mov	edx, DWORD PTR $T222904[ebp]
	mov	DWORD PTR $T222903[ebp], edx
	mov	eax, DWORD PTR __Val$[ebp]
	push	eax
	mov	ecx, DWORD PTR $T222903[ebp]
	push	ecx
	lea	edx, DWORD PTR $T222905[ebp]
	push	edx
	mov	ecx, DWORD PTR _this$[ebp]
	call	?insert@?$vector@ULeaderWithNumTechs@@V?$allocator@ULeaderWithNumTechs@@@std@@@std@@QAE?AV?$_Vector_iterator@ULeaderWithNumTechs@@V?$allocator@ULeaderWithNumTechs@@@std@@@2@V?$_Vector_const_iterator@ULeaderWithNumTechs@@V?$allocator@ULeaderWithNumTechs@@@std@@@2@ABULeaderWithNumTechs@@@Z ; std::vector<LeaderWithNumTechs,std::allocator<LeaderWithNumTechs> >::insert
$LN3@push_back:

; 824  : 		}

	mov	esp, ebp
	pop	ebp
	ret	4
?push_back@?$vector@ULeaderWithNumTechs@@V?$allocator@ULeaderWithNumTechs@@@std@@@std@@QAEXABULeaderWithNumTechs@@@Z ENDP ; std::vector<LeaderWithNumTechs,std::allocator<LeaderWithNumTechs> >::push_back
; Function compile flags: /Odtp
_TEXT	ENDS
;	COMDAT ??1?$_Vector_val@ULeaderWithNumTechs@@V?$allocator@ULeaderWithNumTechs@@@std@@@std@@QAE@XZ
_TEXT	SEGMENT
_this$ = -4						; size = 4
??1?$_Vector_val@ULeaderWithNumTechs@@V?$allocator@ULeaderWithNumTechs@@@std@@@std@@QAE@XZ PROC ; std::_Vector_val<LeaderWithNumTechs,std::allocator<LeaderWithNumTechs> >::~_Vector_val<LeaderWithNumTechs,std::allocator<LeaderWithNumTechs> >, COMDAT
; _this$ = ecx
	push	ebp
	mov	ebp, esp
	push	ecx
	mov	DWORD PTR _this$[ebp], ecx
	mov	esp, ebp
	pop	ebp
	ret	0
??1?$_Vector_val@ULeaderWithNumTechs@@V?$allocator@ULeaderWithNumTechs@@@std@@@std@@QAE@XZ ENDP ; std::_Vector_val<LeaderWithNumTechs,std::allocator<LeaderWithNumTechs> >::~_Vector_val<LeaderWithNumTechs,std::allocator<LeaderWithNumTechs> >
_TEXT	ENDS
PUBLIC	??1?$BaseVector@UWeightedElement@?$CvWeightedVector@H$0FA@$00@@$00@@QAE@XZ ; BaseVector<CvWeightedVector<int,80,1>::WeightedElement,1>::~BaseVector<CvWeightedVector<int,80,1>::WeightedElement,1>
PUBLIC	??_C@_0FE@GLGBBJMA@d?3?2sources?2lekmod_git?2checkout?2l@ ; `string'
EXTRN	?FireMallocAlignedNoTracking@@YAPAXIIPBDH@Z:PROC ; FireMallocAlignedNoTracking
;	COMDAT ??_C@_0FE@GLGBBJMA@d?3?2sources?2lekmod_git?2checkout?2l@
; File d:\sources\lekmod_git\checkout\lekmod_dll\fireplace\include\fireworks\ffastvector.h
CONST	SEGMENT
??_C@_0FE@GLGBBJMA@d?3?2sources?2lekmod_git?2checkout?2l@ DB 'd:\sources\'
	DB	'lekmod_git\checkout\lekmod_dll\fireplace\include\fireworks\FF'
	DB	'astVector.h', 00H				; `string'
CONST	ENDS
;	COMDAT xdata$x
xdata$x	SEGMENT
__unwindtable$??0?$FStaticVector@UWeightedElement@?$CvWeightedVector@H$0FA@$00@@$0FA@$00$0A@$0A@@@QAE@XZ DD 0ffffffffH
	DD	FLAT:__unwindfunclet$??0?$FStaticVector@UWeightedElement@?$CvWeightedVector@H$0FA@$00@@$0FA@$00$0A@$0A@@@QAE@XZ$0
__ehfuncinfo$??0?$FStaticVector@UWeightedElement@?$CvWeightedVector@H$0FA@$00@@$0FA@$00$0A@$0A@@@QAE@XZ DD 019930522H
	DD	01H
	DD	FLAT:__unwindtable$??0?$FStaticVector@UWeightedElement@?$CvWeightedVector@H$0FA@$00@@$0FA@$00$0A@$0A@@@QAE@XZ
	DD	2 DUP(00H)
	DD	2 DUP(00H)
	DD	00H
	DD	01H
; Function compile flags: /Odtp
xdata$x	ENDS
;	COMDAT ??0?$FStaticVector@UWeightedElement@?$CvWeightedVector@H$0FA@$00@@$0FA@$00$0A@$0A@@@QAE@XZ
_TEXT	SEGMENT
_this$ = -24						; size = 4
$T223036 = -20						; size = 4
_pRet$223032 = -16					; size = 4
__$EHRec$ = -12						; size = 12
??0?$FStaticVector@UWeightedElement@?$CvWeightedVector@H$0FA@$00@@$0FA@$00$0A@$0A@@@QAE@XZ PROC ; FStaticVector<CvWeightedVector<int,80,1>::WeightedElement,80,1,0,0>::FStaticVector<CvWeightedVector<int,80,1>::WeightedElement,80,1,0,0>, COMDAT
; _this$ = ecx

; 601  : 	FStaticVector()

	push	ebp
	mov	ebp, esp
	push	-1
	push	__ehhandler$??0?$FStaticVector@UWeightedElement@?$CvWeightedVector@H$0FA@$00@@$0FA@$00$0A@$0A@@@QAE@XZ
	mov	eax, DWORD PTR fs:0
	push	eax
	sub	esp, 12					; 0000000cH
	mov	eax, DWORD PTR ___security_cookie
	xor	eax, ebp
	push	eax
	lea	eax, DWORD PTR __$EHRec$[ebp]
	mov	DWORD PTR fs:0, eax
	mov	DWORD PTR _this$[ebp], ecx
	mov	eax, DWORD PTR _this$[ebp]
	mov	DWORD PTR [eax], 0
	mov	ecx, DWORD PTR _this$[ebp]
	mov	DWORD PTR [ecx+4], 0
	mov	edx, DWORD PTR _this$[ebp]
	mov	DWORD PTR [edx+8], 0
	mov	DWORD PTR __$EHRec$[ebp+8], 0

; 602  :     {
; 603  : 		m_uiCurrMaxSize = L;

	mov	eax, DWORD PTR _this$[ebp]
	mov	DWORD PTR [eax+8], 80			; 00000050H

; 604  : 		m_pData = Alloc(m_uiCurrMaxSize);

	mov	ecx, DWORD PTR _this$[ebp]
	mov	edx, DWORD PTR [ecx+8]
	mov	DWORD PTR $T223036[ebp], edx
	cmp	DWORD PTR $T223036[ebp], 80		; 00000050H
	jbe	SHORT $LN7@FStaticVec
	push	798					; 0000031eH
	push	OFFSET ??_C@_0FE@GLGBBJMA@d?3?2sources?2lekmod_git?2checkout?2l@
	push	4
	mov	eax, DWORD PTR $T223036[ebp]
	shl	eax, 3
	push	eax
	call	?FireMallocAlignedNoTracking@@YAPAXIIPBDH@Z ; FireMallocAlignedNoTracking
	add	esp, 16					; 00000010H
	mov	DWORD PTR _pRet$223032[ebp], eax
	mov	ecx, DWORD PTR _this$[ebp]
	mov	edx, DWORD PTR $T223036[ebp]
	mov	DWORD PTR [ecx+8], edx
	jmp	SHORT $LN8@FStaticVec
$LN7@FStaticVec:
	mov	eax, DWORD PTR _this$[ebp]
	add	eax, 12					; 0000000cH
	mov	DWORD PTR _pRet$223032[ebp], eax
	mov	ecx, DWORD PTR _this$[ebp]
	mov	DWORD PTR [ecx+8], 80			; 00000050H
$LN8@FStaticVec:
	mov	edx, DWORD PTR _this$[ebp]
	mov	eax, DWORD PTR _pRet$223032[ebp]
	mov	DWORD PTR [edx], eax

; 605  : #ifdef BREAK_ON_STATIC_RESIZE
; 606  : 		m_iNumResized = 0;
; 607  : #endif
; 608  :     };

	mov	DWORD PTR __$EHRec$[ebp+8], -1
	mov	eax, DWORD PTR _this$[ebp]
	mov	ecx, DWORD PTR __$EHRec$[ebp]
	mov	DWORD PTR fs:0, ecx
	pop	ecx
	mov	esp, ebp
	pop	ebp
	ret	0
_TEXT	ENDS
;	COMDAT text$x
text$x	SEGMENT
__unwindfunclet$??0?$FStaticVector@UWeightedElement@?$CvWeightedVector@H$0FA@$00@@$0FA@$00$0A@$0A@@@QAE@XZ$0:
	mov	ecx, DWORD PTR _this$[ebp]
	jmp	??1?$BaseVector@UWeightedElement@?$CvWeightedVector@H$0FA@$00@@$00@@QAE@XZ ; BaseVector<CvWeightedVector<int,80,1>::WeightedElement,1>::~BaseVector<CvWeightedVector<int,80,1>::WeightedElement,1>
__ehhandler$??0?$FStaticVector@UWeightedElement@?$CvWeightedVector@H$0FA@$00@@$0FA@$00$0A@$0A@@@QAE@XZ:
	mov	edx, DWORD PTR [esp+8]
	lea	eax, DWORD PTR [edx+12]
	mov	ecx, DWORD PTR [edx-16]
	xor	ecx, eax
	call	@__security_check_cookie@4
	mov	eax, OFFSET __ehfuncinfo$??0?$FStaticVector@UWeightedElement@?$CvWeightedVector@H$0FA@$00@@$0FA@$00$0A@$0A@@@QAE@XZ
	jmp	___CxxFrameHandler3
text$x	ENDS
??0?$FStaticVector@UWeightedElement@?$CvWeightedVector@H$0FA@$00@@$0FA@$00$0A@$0A@@@QAE@XZ ENDP ; FStaticVector<CvWeightedVector<int,80,1>::WeightedElement,80,1,0,0>::FStaticVector<CvWeightedVector<int,80,1>::WeightedElement,80,1,0,0>
EXTRN	?FireFreeAlignedNoTracking@@YAXPAX@Z:PROC	; FireFreeAlignedNoTracking
;	COMDAT xdata$x
xdata$x	SEGMENT
__unwindtable$??1?$FStaticVector@UWeightedElement@?$CvWeightedVector@H$0FA@$00@@$0FA@$00$0A@$0A@@@QAE@XZ DD 0ffffffffH
	DD	FLAT:__unwindfunclet$??1?$FStaticVector@UWeightedElement@?$CvWeightedVector@H$0FA@$00@@$0FA@$00$0A@$0A@@@QAE@XZ$0
__ehfuncinfo$??1?$FStaticVector@UWeightedElement@?$CvWeightedVector@H$0FA@$00@@$0FA@$00$0A@$0A@@@QAE@XZ DD 019930522H
	DD	01H
	DD	FLAT:__unwindtable$??1?$FStaticVector@UWeightedElement@?$CvWeightedVector@H$0FA@$00@@$0FA@$00$0A@$0A@@@QAE@XZ
	DD	2 DUP(00H)
	DD	2 DUP(00H)
	DD	00H
	DD	01H
; Function compile flags: /Odtp
xdata$x	ENDS
;	COMDAT ??1?$FStaticVector@UWeightedElement@?$CvWeightedVector@H$0FA@$00@@$0FA@$00$0A@$0A@@@QAE@XZ
_TEXT	SEGMENT
_this$ = -28						; size = 4
$T223067 = -24						; size = 4
$T223066 = -20						; size = 4
_i$223061 = -16						; size = 4
__$EHRec$ = -12						; size = 12
??1?$FStaticVector@UWeightedElement@?$CvWeightedVector@H$0FA@$00@@$0FA@$00$0A@$0A@@@QAE@XZ PROC ; FStaticVector<CvWeightedVector<int,80,1>::WeightedElement,80,1,0,0>::~FStaticVector<CvWeightedVector<int,80,1>::WeightedElement,80,1,0,0>, COMDAT
; _this$ = ecx

; 617  : 	~FStaticVector(){

	push	ebp
	mov	ebp, esp
	push	-1
	push	__ehhandler$??1?$FStaticVector@UWeightedElement@?$CvWeightedVector@H$0FA@$00@@$0FA@$00$0A@$0A@@@QAE@XZ
	mov	eax, DWORD PTR fs:0
	push	eax
	sub	esp, 16					; 00000010H
	mov	eax, DWORD PTR ___security_cookie
	xor	eax, ebp
	push	eax
	lea	eax, DWORD PTR __$EHRec$[ebp]
	mov	DWORD PTR fs:0, eax
	mov	DWORD PTR _this$[ebp], ecx
	mov	DWORD PTR __$EHRec$[ebp+8], 0

; 618  : 		Free(m_pData, m_uiCurrSize);

	mov	eax, DWORD PTR _this$[ebp]
	mov	ecx, DWORD PTR [eax+4]
	mov	DWORD PTR $T223067[ebp], ecx
	mov	edx, DWORD PTR _this$[ebp]
	mov	eax, DWORD PTR [edx]
	mov	DWORD PTR $T223066[ebp], eax
	xor	ecx, ecx
	je	SHORT $LN5@FStaticVec@2
	xor	edx, edx
	je	SHORT $LN5@FStaticVec@2
	mov	DWORD PTR _i$223061[ebp], 0
	jmp	SHORT $LN10@FStaticVec@2
$LN9@FStaticVec@2:
	mov	eax, DWORD PTR _i$223061[ebp]
	add	eax, 1
	mov	DWORD PTR _i$223061[ebp], eax
$LN10@FStaticVec@2:
	mov	ecx, DWORD PTR _i$223061[ebp]
	cmp	ecx, DWORD PTR $T223067[ebp]
	jae	SHORT $LN5@FStaticVec@2
	jmp	SHORT $LN9@FStaticVec@2
$LN5@FStaticVec@2:
	mov	edx, DWORD PTR _this$[ebp]
	add	edx, 12					; 0000000cH
	cmp	DWORD PTR $T223066[ebp], edx
	je	SHORT $LN1@FStaticVec@2
	mov	eax, DWORD PTR $T223066[ebp]
	push	eax
	call	?FireFreeAlignedNoTracking@@YAXPAX@Z	; FireFreeAlignedNoTracking
	add	esp, 4
$LN1@FStaticVec@2:

; 619  : 	};

	mov	DWORD PTR __$EHRec$[ebp+8], -1
	mov	ecx, DWORD PTR __$EHRec$[ebp]
	mov	DWORD PTR fs:0, ecx
	pop	ecx
	mov	esp, ebp
	pop	ebp
	ret	0
_TEXT	ENDS
;	COMDAT text$x
text$x	SEGMENT
__unwindfunclet$??1?$FStaticVector@UWeightedElement@?$CvWeightedVector@H$0FA@$00@@$0FA@$00$0A@$0A@@@QAE@XZ$0:
	mov	ecx, DWORD PTR _this$[ebp]
	jmp	??1?$BaseVector@UWeightedElement@?$CvWeightedVector@H$0FA@$00@@$00@@QAE@XZ ; BaseVector<CvWeightedVector<int,80,1>::WeightedElement,1>::~BaseVector<CvWeightedVector<int,80,1>::WeightedElement,1>
__ehhandler$??1?$FStaticVector@UWeightedElement@?$CvWeightedVector@H$0FA@$00@@$0FA@$00$0A@$0A@@@QAE@XZ:
	mov	edx, DWORD PTR [esp+8]
	lea	eax, DWORD PTR [edx+12]
	mov	ecx, DWORD PTR [edx-20]
	xor	ecx, eax
	call	@__security_check_cookie@4
	mov	eax, OFFSET __ehfuncinfo$??1?$FStaticVector@UWeightedElement@?$CvWeightedVector@H$0FA@$00@@$0FA@$00$0A@$0A@@@QAE@XZ
	jmp	___CxxFrameHandler3
text$x	ENDS
??1?$FStaticVector@UWeightedElement@?$CvWeightedVector@H$0FA@$00@@$0FA@$00$0A@$0A@@@QAE@XZ ENDP ; FStaticVector<CvWeightedVector<int,80,1>::WeightedElement,80,1,0,0>::~FStaticVector<CvWeightedVector<int,80,1>::WeightedElement,80,1,0,0>
; Function compile flags: /Odtp
;	COMDAT ?push_back@?$FStaticVector@UWeightedElement@?$CvWeightedVector@H$0FA@$00@@$0FA@$00$0A@$0A@@@QAEIABUWeightedElement@?$CvWeightedVector@H$0FA@$00@@@Z
_TEXT	SEGMENT
tv157 = -64						; size = 4
tv149 = -60						; size = 4
_this$ = -56						; size = 4
$T223080 = -8						; size = 4
$T223079 = -4						; size = 4
_element$ = 8						; size = 4
?push_back@?$FStaticVector@UWeightedElement@?$CvWeightedVector@H$0FA@$00@@$0FA@$00$0A@$0A@@@QAEIABUWeightedElement@?$CvWeightedVector@H$0FA@$00@@@Z PROC ; FStaticVector<CvWeightedVector<int,80,1>::WeightedElement,80,1,0,0>::push_back, COMDAT
; _this$ = ecx

; 676  : 	unsigned int push_back(const T& element){

	push	ebp
	mov	ebp, esp
	sub	esp, 64					; 00000040H
	mov	DWORD PTR _this$[ebp], ecx

; 677  : 		m_bIsResized = false;

	mov	eax, DWORD PTR _this$[ebp]
	mov	BYTE PTR [eax+652], 0

; 678  : 		if( m_uiCurrSize == m_uiCurrMaxSize )

	mov	ecx, DWORD PTR _this$[ebp]
	mov	edx, DWORD PTR _this$[ebp]
	mov	eax, DWORD PTR [ecx+4]
	cmp	eax, DWORD PTR [edx+8]
	jne	SHORT $LN39@push_back@2

; 679  : 			GrowSize(m_uiCurrMaxSize);

	mov	ecx, DWORD PTR _this$[ebp]
	mov	edx, DWORD PTR [ecx+8]
	push	edx
	mov	ecx, DWORD PTR _this$[ebp]
	call	?GrowSize@?$FStaticVector@UWeightedElement@?$CvWeightedVector@H$0FA@$00@@$0FA@$00$0A@$0A@@@IAEXI@Z ; FStaticVector<CvWeightedVector<int,80,1>::WeightedElement,80,1,0,0>::GrowSize

; 680  : 		new( (void*)&m_pData[m_uiCurrSize] )T(element);

$LN39@push_back@2:
	mov	eax, DWORD PTR _this$[ebp]
	mov	ecx, DWORD PTR [eax+4]
	mov	edx, DWORD PTR _this$[ebp]
	mov	eax, DWORD PTR [edx]
	lea	ecx, DWORD PTR [eax+ecx*8]
	mov	DWORD PTR $T223080[ebp], ecx
	cmp	DWORD PTR $T223080[ebp], 0
	je	SHORT $LN4@push_back@2
	mov	edx, DWORD PTR $T223080[ebp]
	mov	eax, DWORD PTR _element$[ebp]
	mov	ecx, DWORD PTR [eax]
	mov	DWORD PTR [edx], ecx
	mov	edx, DWORD PTR $T223080[ebp]
	mov	eax, DWORD PTR _element$[ebp]
	mov	ecx, DWORD PTR [eax+4]
	mov	DWORD PTR [edx+4], ecx
	mov	edx, DWORD PTR $T223080[ebp]
	mov	DWORD PTR tv149[ebp], edx
	jmp	SHORT $LN5@push_back@2
$LN4@push_back@2:
	mov	DWORD PTR tv149[ebp], 0
$LN5@push_back@2:
	mov	eax, DWORD PTR tv149[ebp]
	mov	DWORD PTR $T223079[ebp], eax

; 681  : 		return m_uiCurrSize++;

	mov	ecx, DWORD PTR _this$[ebp]
	mov	edx, DWORD PTR [ecx+4]
	mov	DWORD PTR tv157[ebp], edx
	mov	eax, DWORD PTR _this$[ebp]
	mov	ecx, DWORD PTR [eax+4]
	add	ecx, 1
	mov	edx, DWORD PTR _this$[ebp]
	mov	DWORD PTR [edx+4], ecx
	mov	eax, DWORD PTR tv157[ebp]

; 682  : 	};

	mov	esp, ebp
	pop	ebp
	ret	4
?push_back@?$FStaticVector@UWeightedElement@?$CvWeightedVector@H$0FA@$00@@$0FA@$00$0A@$0A@@@QAEIABUWeightedElement@?$CvWeightedVector@H$0FA@$00@@@Z ENDP ; FStaticVector<CvWeightedVector<int,80,1>::WeightedElement,80,1,0,0>::push_back
_TEXT	ENDS
PUBLIC	?_Insert_n@?$vector@ULeaderWithNumTechs@@V?$allocator@ULeaderWithNumTechs@@@std@@@std@@IAEXV?$_Vector_const_iterator@ULeaderWithNumTechs@@V?$allocator@ULeaderWithNumTechs@@@std@@@2@IABULeaderWithNumTechs@@@Z ; std::vector<LeaderWithNumTechs,std::allocator<LeaderWithNumTechs> >::_Insert_n
; Function compile flags: /Odtp
; File c:\program files (x86)\microsoft visual studio 9.0\vc\include\vector
;	COMDAT ?insert@?$vector@ULeaderWithNumTechs@@V?$allocator@ULeaderWithNumTechs@@@std@@@std@@QAE?AV?$_Vector_iterator@ULeaderWithNumTechs@@V?$allocator@ULeaderWithNumTechs@@@std@@@2@V?$_Vector_const_iterator@ULeaderWithNumTechs@@V?$allocator@ULeaderWithNumTechs@@@std@@@2@ABULeaderWithNumTechs@@@Z
_TEXT	SEGMENT
tv77 = -32						; size = 4
_this$ = -28						; size = 4
__Tmp$223186 = -24					; size = 4
$T223169 = -20						; size = 4
$T223150 = -16						; size = 4
$T223137 = -12						; size = 4
$T223134 = -8						; size = 4
__Off$ = -4						; size = 4
___$ReturnUdt$ = 8					; size = 4
__Where$ = 12						; size = 4
__Val$ = 16						; size = 4
?insert@?$vector@ULeaderWithNumTechs@@V?$allocator@ULeaderWithNumTechs@@@std@@@std@@QAE?AV?$_Vector_iterator@ULeaderWithNumTechs@@V?$allocator@ULeaderWithNumTechs@@@std@@@2@V?$_Vector_const_iterator@ULeaderWithNumTechs@@V?$allocator@ULeaderWithNumTechs@@@std@@@2@ABULeaderWithNumTechs@@@Z PROC ; std::vector<LeaderWithNumTechs,std::allocator<LeaderWithNumTechs> >::insert, COMDAT
; _this$ = ecx

; 875  : 		{	// insert _Val at _Where

	push	ebp
	mov	ebp, esp
	sub	esp, 32					; 00000020H
	mov	DWORD PTR _this$[ebp], ecx

; 876  : 		size_type _Off = size() == 0 ? 0 : _Where - begin();

	mov	eax, DWORD PTR _this$[ebp]
	mov	ecx, DWORD PTR _this$[ebp]
	mov	edx, DWORD PTR [eax+8]
	sub	edx, DWORD PTR [ecx+4]
	sar	edx, 3
	test	edx, edx
	jne	SHORT $LN3@insert
	mov	DWORD PTR tv77[ebp], 0
	jmp	SHORT $LN4@insert
$LN3@insert:
	mov	eax, DWORD PTR _this$[ebp]
	mov	ecx, DWORD PTR [eax+4]
	mov	DWORD PTR $T223150[ebp], ecx
	mov	edx, DWORD PTR $T223150[ebp]
	mov	DWORD PTR $T223134[ebp], edx
	mov	eax, DWORD PTR __Where$[ebp]
	sub	eax, DWORD PTR $T223134[ebp]
	sar	eax, 3
	mov	DWORD PTR tv77[ebp], eax
$LN4@insert:
	mov	ecx, DWORD PTR tv77[ebp]
	mov	DWORD PTR __Off$[ebp], ecx

; 877  : 		_Insert_n(_Where, (size_type)1, _Val);

	mov	edx, DWORD PTR __Val$[ebp]
	push	edx
	push	1
	mov	eax, DWORD PTR __Where$[ebp]
	push	eax
	mov	ecx, DWORD PTR _this$[ebp]
	call	?_Insert_n@?$vector@ULeaderWithNumTechs@@V?$allocator@ULeaderWithNumTechs@@@std@@@std@@IAEXV?$_Vector_const_iterator@ULeaderWithNumTechs@@V?$allocator@ULeaderWithNumTechs@@@std@@@2@IABULeaderWithNumTechs@@@Z ; std::vector<LeaderWithNumTechs,std::allocator<LeaderWithNumTechs> >::_Insert_n

; 878  : 		return (begin() + _Off);

	mov	ecx, DWORD PTR _this$[ebp]
	mov	edx, DWORD PTR [ecx+4]
	mov	DWORD PTR $T223169[ebp], edx
	mov	eax, DWORD PTR $T223169[ebp]
	mov	DWORD PTR $T223137[ebp], eax
	mov	ecx, DWORD PTR $T223137[ebp]
	mov	DWORD PTR __Tmp$223186[ebp], ecx
	mov	edx, DWORD PTR __Off$[ebp]
	mov	eax, DWORD PTR __Tmp$223186[ebp]
	lea	ecx, DWORD PTR [eax+edx*8]
	mov	DWORD PTR __Tmp$223186[ebp], ecx
	mov	edx, DWORD PTR __Tmp$223186[ebp]
	mov	eax, DWORD PTR ___$ReturnUdt$[ebp]
	mov	DWORD PTR [eax], edx
	mov	eax, DWORD PTR ___$ReturnUdt$[ebp]

; 879  : 		}

	mov	esp, ebp
	pop	ebp
	ret	12					; 0000000cH
?insert@?$vector@ULeaderWithNumTechs@@V?$allocator@ULeaderWithNumTechs@@@std@@@std@@QAE?AV?$_Vector_iterator@ULeaderWithNumTechs@@V?$allocator@ULeaderWithNumTechs@@@std@@@2@V?$_Vector_const_iterator@ULeaderWithNumTechs@@V?$allocator@ULeaderWithNumTechs@@@std@@@2@ABULeaderWithNumTechs@@@Z ENDP ; std::vector<LeaderWithNumTechs,std::allocator<LeaderWithNumTechs> >::insert
_TEXT	ENDS
PUBLIC	??$_Allocate@ULeaderWithNumTechs@@@std@@YAPAULeaderWithNumTechs@@IPAU1@@Z ; std::_Allocate<LeaderWithNumTechs>
PUBLIC	?_Xlen@?$vector@ULeaderWithNumTechs@@V?$allocator@ULeaderWithNumTechs@@@std@@@std@@KAXXZ ; std::vector<LeaderWithNumTechs,std::allocator<LeaderWithNumTechs> >::_Xlen
; Function compile flags: /Odtp
;	COMDAT ?_Buy@?$vector@ULeaderWithNumTechs@@V?$allocator@ULeaderWithNumTechs@@@std@@@std@@IAE_NI@Z
_TEXT	SEGMENT
tv94 = -96						; size = 4
_this$ = -92						; size = 4
__Count$223206 = -4					; size = 4
__Capacity$ = 8						; size = 4
?_Buy@?$vector@ULeaderWithNumTechs@@V?$allocator@ULeaderWithNumTechs@@@std@@@std@@IAE_NI@Z PROC ; std::vector<LeaderWithNumTechs,std::allocator<LeaderWithNumTechs> >::_Buy, COMDAT
; _this$ = ecx

; 1102 : 		{	// allocate array with _Capacity elements

	push	ebp
	mov	ebp, esp
	sub	esp, 96					; 00000060H
	mov	DWORD PTR _this$[ebp], ecx

; 1103 : 		_Myfirst = 0, _Mylast = 0, _Myend = 0;

	mov	eax, DWORD PTR _this$[ebp]
	mov	DWORD PTR [eax+4], 0
	mov	ecx, DWORD PTR _this$[ebp]
	mov	DWORD PTR [ecx+8], 0
	mov	edx, DWORD PTR _this$[ebp]
	mov	DWORD PTR [edx+12], 0

; 1104 : 		if (_Capacity == 0)

	cmp	DWORD PTR __Capacity$[ebp], 0
	jne	SHORT $LN4@Buy

; 1105 : 			return (false);

	xor	al, al
	jmp	SHORT $LN5@Buy
	jmp	SHORT $LN3@Buy
$LN4@Buy:

; 1106 : 		else if (max_size() < _Capacity)

	mov	DWORD PTR __Count$223206[ebp], 536870911 ; 1fffffffH
	cmp	DWORD PTR __Count$223206[ebp], 0
	jbe	SHORT $LN11@Buy
	mov	eax, DWORD PTR __Count$223206[ebp]
	mov	DWORD PTR tv94[ebp], eax
	jmp	SHORT $LN7@Buy
$LN11@Buy:
	mov	DWORD PTR tv94[ebp], 1
$LN7@Buy:
	mov	ecx, DWORD PTR tv94[ebp]
	cmp	ecx, DWORD PTR __Capacity$[ebp]
	jae	SHORT $LN23@Buy

; 1107 : 			_Xlen();	// result too long

	call	?_Xlen@?$vector@ULeaderWithNumTechs@@V?$allocator@ULeaderWithNumTechs@@@std@@@std@@KAXXZ ; std::vector<LeaderWithNumTechs,std::allocator<LeaderWithNumTechs> >::_Xlen

; 1108 : 		else

	jmp	SHORT $LN3@Buy

; 1109 : 			{	// nonempty array, allocate storage
; 1110 : 			_Myfirst = this->_Alval.allocate(_Capacity);

$LN23@Buy:
	push	0
	mov	edx, DWORD PTR __Capacity$[ebp]
	push	edx
	call	??$_Allocate@ULeaderWithNumTechs@@@std@@YAPAULeaderWithNumTechs@@IPAU1@@Z ; std::_Allocate<LeaderWithNumTechs>
	add	esp, 8
	mov	ecx, DWORD PTR _this$[ebp]
	mov	DWORD PTR [ecx+4], eax

; 1111 : 			_Mylast = _Myfirst;

	mov	edx, DWORD PTR _this$[ebp]
	mov	eax, DWORD PTR _this$[ebp]
	mov	ecx, DWORD PTR [eax+4]
	mov	DWORD PTR [edx+8], ecx

; 1112 : 			_Myend = _Myfirst + _Capacity;

	mov	edx, DWORD PTR _this$[ebp]
	mov	eax, DWORD PTR [edx+4]
	mov	ecx, DWORD PTR __Capacity$[ebp]
	lea	edx, DWORD PTR [eax+ecx*8]
	mov	eax, DWORD PTR _this$[ebp]
	mov	DWORD PTR [eax+12], edx
$LN3@Buy:

; 1113 : 			}
; 1114 : 		return (true);

	mov	al, 1
$LN5@Buy:

; 1115 : 		}

	mov	esp, ebp
	pop	ebp
	ret	4
?_Buy@?$vector@ULeaderWithNumTechs@@V?$allocator@ULeaderWithNumTechs@@@std@@@std@@IAE_NI@Z ENDP ; std::vector<LeaderWithNumTechs,std::allocator<LeaderWithNumTechs> >::_Buy
_TEXT	ENDS
EXTRN	??3@YAXPAX@Z:PROC				; operator delete
; Function compile flags: /Odtp
;	COMDAT ?_Tidy@?$vector@ULeaderWithNumTechs@@V?$allocator@ULeaderWithNumTechs@@@std@@@std@@IAEXXZ
_TEXT	SEGMENT
_this$ = -36						; size = 4
$T223302 = -32						; size = 4
$T223301 = -28						; size = 4
$T223297 = -24						; size = 4
$T223296 = -20						; size = 4
$T223278 = -16						; size = 4
$T223277 = -12						; size = 4
$T223261 = -8						; size = 4
__Cat$223284 = -2					; size = 1
$T223281 = -1						; size = 1
?_Tidy@?$vector@ULeaderWithNumTechs@@V?$allocator@ULeaderWithNumTechs@@@std@@@std@@IAEXXZ PROC ; std::vector<LeaderWithNumTechs,std::allocator<LeaderWithNumTechs> >::_Tidy, COMDAT
; _this$ = ecx

; 1123 : 		{	// free all storage

	push	ebp
	mov	ebp, esp
	sub	esp, 36					; 00000024H
	mov	DWORD PTR _this$[ebp], ecx

; 1124 : 		if (_Myfirst != 0)

	mov	eax, DWORD PTR _this$[ebp]
	cmp	DWORD PTR [eax+4], 0
	je	SHORT $LN1@Tidy

; 1125 : 			{	// something to free, destroy and deallocate it
; 1126 : 
; 1127 :  #if _HAS_ITERATOR_DEBUGGING
; 1128 : 			this->_Orphan_all();
; 1129 :  #endif /* _HAS_ITERATOR_DEBUGGING */
; 1130 : 
; 1131 : 			_Destroy(_Myfirst, _Mylast);

	mov	ecx, DWORD PTR _this$[ebp]
	mov	edx, DWORD PTR [ecx+8]
	mov	DWORD PTR $T223297[ebp], edx
	mov	eax, DWORD PTR _this$[ebp]
	mov	ecx, DWORD PTR [eax+4]
	mov	DWORD PTR $T223296[ebp], ecx
	mov	edx, DWORD PTR $T223297[ebp]
	mov	DWORD PTR $T223278[ebp], edx
	mov	eax, DWORD PTR $T223296[ebp]
	mov	DWORD PTR $T223277[ebp], eax
	mov	cl, BYTE PTR __Cat$223284[ebp]
	mov	BYTE PTR $T223281[ebp], cl
	mov	edx, DWORD PTR $T223277[ebp]
	mov	DWORD PTR $T223261[ebp], edx
	jmp	SHORT $LN12@Tidy
$LN11@Tidy:
	mov	eax, DWORD PTR $T223261[ebp]
	add	eax, 8
	mov	DWORD PTR $T223261[ebp], eax
$LN12@Tidy:
	mov	ecx, DWORD PTR $T223261[ebp]
	cmp	ecx, DWORD PTR $T223278[ebp]
	je	SHORT $LN4@Tidy
	jmp	SHORT $LN11@Tidy
$LN4@Tidy:

; 1132 : 			this->_Alval.deallocate(_Myfirst, _Myend - _Myfirst);

	mov	edx, DWORD PTR _this$[ebp]
	mov	eax, DWORD PTR _this$[ebp]
	mov	ecx, DWORD PTR [edx+12]
	sub	ecx, DWORD PTR [eax+4]
	sar	ecx, 3
	mov	DWORD PTR $T223302[ebp], ecx
	mov	edx, DWORD PTR _this$[ebp]
	mov	eax, DWORD PTR [edx+4]
	mov	DWORD PTR $T223301[ebp], eax
	mov	ecx, DWORD PTR $T223301[ebp]
	push	ecx
	call	??3@YAXPAX@Z				; operator delete
	add	esp, 4
$LN1@Tidy:

; 1133 : 			}
; 1134 : 		_Myfirst = 0, _Mylast = 0, _Myend = 0;

	mov	edx, DWORD PTR _this$[ebp]
	mov	DWORD PTR [edx+4], 0
	mov	eax, DWORD PTR _this$[ebp]
	mov	DWORD PTR [eax+8], 0
	mov	ecx, DWORD PTR _this$[ebp]
	mov	DWORD PTR [ecx+12], 0

; 1135 : 		}

	mov	esp, ebp
	pop	ebp
	ret	0
?_Tidy@?$vector@ULeaderWithNumTechs@@V?$allocator@ULeaderWithNumTechs@@@std@@@std@@IAEXXZ ENDP ; std::vector<LeaderWithNumTechs,std::allocator<LeaderWithNumTechs> >::_Tidy
_TEXT	ENDS
EXTRN	_memcpy:PROC
; Function compile flags: /Odtp
; File d:\sources\lekmod_git\checkout\lekmod_dll\fireplace\include\fireworks\ffastvector.h
;	COMDAT ?GrowSize@?$FStaticVector@UWeightedElement@?$CvWeightedVector@H$0FA@$00@@$0FA@$00$0A@$0A@@@IAEXI@Z
_TEXT	SEGMENT
tv186 = -52						; size = 4
_this$ = -48						; size = 4
$T223345 = -44						; size = 4
$T223344 = -40						; size = 4
_i$223337 = -36						; size = 4
$T223323 = -32						; size = 4
$T223316 = -28						; size = 4
_pRet$223313 = -24					; size = 4
$T223306 = -20						; size = 4
$T223305 = -16						; size = 4
_i$218604 = -12						; size = 4
_uiNewSize$218596 = -8					; size = 4
_pTemp$ = -4						; size = 4
_uiFit$ = 8						; size = 4
?GrowSize@?$FStaticVector@UWeightedElement@?$CvWeightedVector@H$0FA@$00@@$0FA@$00$0A@$0A@@@IAEXI@Z PROC ; FStaticVector<CvWeightedVector<int,80,1>::WeightedElement,80,1,0,0>::GrowSize, COMDAT
; _this$ = ecx

; 744  : 	{

	push	ebp
	mov	ebp, esp
	sub	esp, 52					; 00000034H
	mov	DWORD PTR _this$[ebp], ecx

; 745  : 		if( m_uiCurrMaxSize == 0 ) m_uiCurrMaxSize = 1;

	mov	eax, DWORD PTR _this$[ebp]
	cmp	DWORD PTR [eax+8], 0
	jne	SHORT $LN8@GrowSize
	mov	ecx, DWORD PTR _this$[ebp]
	mov	DWORD PTR [ecx+8], 1
$LN8@GrowSize:

; 746  : 		while( uiFit >= m_uiCurrMaxSize ){

	mov	edx, DWORD PTR _this$[ebp]
	mov	eax, DWORD PTR _uiFit$[ebp]
	cmp	eax, DWORD PTR [edx+8]
	jb	SHORT $LN7@GrowSize

; 747  : 
; 748  : 			//Try to double size...
; 749  : 			UINT uiNewSize = m_uiCurrMaxSize<<1;

	mov	ecx, DWORD PTR _this$[ebp]
	mov	edx, DWORD PTR [ecx+8]
	shl	edx, 1
	mov	DWORD PTR _uiNewSize$218596[ebp], edx

; 750  : 
; 751  : 			//...on overflow bail and set to exact size
; 752  : 			if( uiNewSize < m_uiCurrMaxSize ){

	mov	eax, DWORD PTR _this$[ebp]
	mov	ecx, DWORD PTR _uiNewSize$218596[ebp]
	cmp	ecx, DWORD PTR [eax+8]
	jae	SHORT $LN6@GrowSize

; 753  : 				m_uiCurrMaxSize = uiFit;

	mov	edx, DWORD PTR _this$[ebp]
	mov	eax, DWORD PTR _uiFit$[ebp]
	mov	DWORD PTR [edx+8], eax

; 754  : 				break;

	jmp	SHORT $LN7@GrowSize
$LN6@GrowSize:

; 755  : 			}
; 756  : 
; 757  : 			//...otherwise use the doubled size
; 758  : 			m_uiCurrMaxSize = uiNewSize;

	mov	ecx, DWORD PTR _this$[ebp]
	mov	edx, DWORD PTR _uiNewSize$218596[ebp]
	mov	DWORD PTR [ecx+8], edx

; 759  : 		}

	jmp	SHORT $LN8@GrowSize
$LN7@GrowSize:

; 760  : 
; 761  : 		T* pTemp = Alloc(m_uiCurrMaxSize);

	mov	eax, DWORD PTR _this$[ebp]
	mov	ecx, DWORD PTR [eax+8]
	mov	DWORD PTR $T223316[ebp], ecx
	cmp	DWORD PTR $T223316[ebp], 80		; 00000050H
	jbe	SHORT $LN16@GrowSize
	push	798					; 0000031eH
	push	OFFSET ??_C@_0FE@GLGBBJMA@d?3?2sources?2lekmod_git?2checkout?2l@
	push	4
	mov	edx, DWORD PTR $T223316[ebp]
	shl	edx, 3
	push	edx
	call	?FireMallocAlignedNoTracking@@YAPAXIIPBDH@Z ; FireMallocAlignedNoTracking
	add	esp, 16					; 00000010H
	mov	DWORD PTR _pRet$223313[ebp], eax
	mov	eax, DWORD PTR _this$[ebp]
	mov	ecx, DWORD PTR $T223316[ebp]
	mov	DWORD PTR [eax+8], ecx
	jmp	SHORT $LN17@GrowSize
$LN16@GrowSize:
	mov	edx, DWORD PTR _this$[ebp]
	add	edx, 12					; 0000000cH
	mov	DWORD PTR _pRet$223313[ebp], edx
	mov	eax, DWORD PTR _this$[ebp]
	mov	DWORD PTR [eax+8], 80			; 00000050H
$LN17@GrowSize:
	mov	ecx, DWORD PTR _pRet$223313[ebp]
	mov	DWORD PTR _pTemp$[ebp], ecx

; 762  : 		if( bPODType ){

	mov	edx, 1
	test	edx, edx
	je	SHORT $LN5@GrowSize

; 763  : 			memcpy( (void*)pTemp, (void*)m_pData, sizeof(T)*m_uiCurrSize);

	mov	eax, DWORD PTR _this$[ebp]
	mov	ecx, DWORD PTR [eax+4]
	shl	ecx, 3
	push	ecx
	mov	edx, DWORD PTR _this$[ebp]
	mov	eax, DWORD PTR [edx]
	push	eax
	mov	ecx, DWORD PTR _pTemp$[ebp]
	push	ecx
	call	_memcpy
	add	esp, 12					; 0000000cH

; 764  : 		}else{

	jmp	SHORT $LN4@GrowSize
$LN5@GrowSize:

; 765  : 			for(unsigned int i = 0; i < m_uiCurrSize; ++i)

	mov	DWORD PTR _i$218604[ebp], 0
	jmp	SHORT $LN3@GrowSize
$LN2@GrowSize:
	mov	edx, DWORD PTR _i$218604[ebp]
	add	edx, 1
	mov	DWORD PTR _i$218604[ebp], edx
$LN3@GrowSize:
	mov	eax, DWORD PTR _this$[ebp]
	mov	ecx, DWORD PTR _i$218604[ebp]
	cmp	ecx, DWORD PTR [eax+4]
	jae	SHORT $LN4@GrowSize

; 766  : 				new( (void*)&(pTemp[i]) )T( m_pData[i]);

	mov	edx, DWORD PTR _i$218604[ebp]
	mov	eax, DWORD PTR _pTemp$[ebp]
	lea	ecx, DWORD PTR [eax+edx*8]
	mov	DWORD PTR $T223306[ebp], ecx
	cmp	DWORD PTR $T223306[ebp], 0
	je	SHORT $LN12@GrowSize
	mov	edx, DWORD PTR _this$[ebp]
	mov	eax, DWORD PTR [edx]
	mov	ecx, DWORD PTR _i$218604[ebp]
	lea	edx, DWORD PTR [eax+ecx*8]
	mov	DWORD PTR $T223323[ebp], edx
	mov	eax, DWORD PTR $T223306[ebp]
	mov	ecx, DWORD PTR $T223323[ebp]
	mov	edx, DWORD PTR [ecx]
	mov	DWORD PTR [eax], edx
	mov	eax, DWORD PTR $T223306[ebp]
	mov	ecx, DWORD PTR $T223323[ebp]
	mov	edx, DWORD PTR [ecx+4]
	mov	DWORD PTR [eax+4], edx
	mov	eax, DWORD PTR $T223306[ebp]
	mov	DWORD PTR tv186[ebp], eax
	jmp	SHORT $LN13@GrowSize
$LN12@GrowSize:
	mov	DWORD PTR tv186[ebp], 0
$LN13@GrowSize:
	mov	ecx, DWORD PTR tv186[ebp]
	mov	DWORD PTR $T223305[ebp], ecx
	jmp	SHORT $LN2@GrowSize
$LN4@GrowSize:

; 767  : 		}
; 768  : 		Free(m_pData, m_uiCurrSize);

	mov	edx, DWORD PTR _this$[ebp]
	mov	eax, DWORD PTR [edx+4]
	mov	DWORD PTR $T223345[ebp], eax
	mov	ecx, DWORD PTR _this$[ebp]
	mov	edx, DWORD PTR [ecx]
	mov	DWORD PTR $T223344[ebp], edx
	xor	eax, eax
	je	SHORT $LN24@GrowSize
	xor	ecx, ecx
	je	SHORT $LN24@GrowSize
	mov	DWORD PTR _i$223337[ebp], 0
	jmp	SHORT $LN29@GrowSize
$LN28@GrowSize:
	mov	edx, DWORD PTR _i$223337[ebp]
	add	edx, 1
	mov	DWORD PTR _i$223337[ebp], edx
$LN29@GrowSize:
	mov	eax, DWORD PTR _i$223337[ebp]
	cmp	eax, DWORD PTR $T223345[ebp]
	jae	SHORT $LN24@GrowSize
	jmp	SHORT $LN28@GrowSize
$LN24@GrowSize:
	mov	ecx, DWORD PTR _this$[ebp]
	add	ecx, 12					; 0000000cH
	cmp	DWORD PTR $T223344[ebp], ecx
	je	SHORT $LN25@GrowSize
	mov	edx, DWORD PTR $T223344[ebp]
	push	edx
	call	?FireFreeAlignedNoTracking@@YAXPAX@Z	; FireFreeAlignedNoTracking
	add	esp, 4
$LN25@GrowSize:

; 769  : 		m_pData = pTemp;

	mov	eax, DWORD PTR _this$[ebp]
	mov	ecx, DWORD PTR _pTemp$[ebp]
	mov	DWORD PTR [eax], ecx

; 770  : 
; 771  : 		m_bIsResized = true;

	mov	edx, DWORD PTR _this$[ebp]
	mov	BYTE PTR [edx+652], 1

; 772  : 	};

	mov	esp, ebp
	pop	ebp
	ret	4
?GrowSize@?$FStaticVector@UWeightedElement@?$CvWeightedVector@H$0FA@$00@@$0FA@$00$0A@$0A@@@IAEXI@Z ENDP ; FStaticVector<CvWeightedVector<int,80,1>::WeightedElement,80,1,0,0>::GrowSize
; Function compile flags: /Odtp
_TEXT	ENDS
;	COMDAT ??1?$BaseVector@UWeightedElement@?$CvWeightedVector@H$0FA@$00@@$00@@QAE@XZ
_TEXT	SEGMENT
_this$ = -4						; size = 4
??1?$BaseVector@UWeightedElement@?$CvWeightedVector@H$0FA@$00@@$00@@QAE@XZ PROC ; BaseVector<CvWeightedVector<int,80,1>::WeightedElement,1>::~BaseVector<CvWeightedVector<int,80,1>::WeightedElement,1>, COMDAT
; _this$ = ecx

; 111  : 	~BaseVector(){};

	push	ebp
	mov	ebp, esp
	push	ecx
	mov	DWORD PTR _this$[ebp], ecx
	mov	esp, ebp
	pop	ebp
	ret	0
??1?$BaseVector@UWeightedElement@?$CvWeightedVector@H$0FA@$00@@$00@@QAE@XZ ENDP ; BaseVector<CvWeightedVector<int,80,1>::WeightedElement,1>::~BaseVector<CvWeightedVector<int,80,1>::WeightedElement,1>
_TEXT	ENDS
PUBLIC	??$_Uninit_copy@PAULeaderWithNumTechs@@PAU1@V?$allocator@ULeaderWithNumTechs@@@std@@@std@@YAPAULeaderWithNumTechs@@PAU1@00AAV?$allocator@ULeaderWithNumTechs@@@0@U_Nonscalar_ptr_iterator_tag@0@U_Range_checked_iterator_tag@0@@Z ; std::_Uninit_copy<LeaderWithNumTechs *,LeaderWithNumTechs *,std::allocator<LeaderWithNumTechs> >
PUBLIC	??$unchecked_uninitialized_copy@PAULeaderWithNumTechs@@PAU1@V?$allocator@ULeaderWithNumTechs@@@std@@@stdext@@YAPAULeaderWithNumTechs@@PAU1@00AAV?$allocator@ULeaderWithNumTechs@@@std@@@Z ; stdext::unchecked_uninitialized_copy<LeaderWithNumTechs *,LeaderWithNumTechs *,std::allocator<LeaderWithNumTechs> >
;	COMDAT xdata$x
; File c:\program files (x86)\microsoft visual studio 9.0\vc\include\xutility
xdata$x	SEGMENT
__catchsym$?_Insert_n@?$vector@ULeaderWithNumTechs@@V?$allocator@ULeaderWithNumTechs@@@std@@@std@@IAEXV?$_Vector_const_iterator@ULeaderWithNumTechs@@V?$allocator@ULeaderWithNumTechs@@@std@@@2@IABULeaderWithNumTechs@@@Z$6 DD 040H
	DD	00H
	DD	00H
	DD	FLAT:__catch$?_Insert_n@?$vector@ULeaderWithNumTechs@@V?$allocator@ULeaderWithNumTechs@@@std@@@std@@IAEXV?$_Vector_const_iterator@ULeaderWithNumTechs@@V?$allocator@ULeaderWithNumTechs@@@std@@@2@IABULeaderWithNumTechs@@@Z$2
__catchsym$?_Insert_n@?$vector@ULeaderWithNumTechs@@V?$allocator@ULeaderWithNumTechs@@@std@@@std@@IAEXV?$_Vector_const_iterator@ULeaderWithNumTechs@@V?$allocator@ULeaderWithNumTechs@@@std@@@2@IABULeaderWithNumTechs@@@Z$5 DD 040H
	DD	00H
	DD	00H
	DD	FLAT:__catch$?_Insert_n@?$vector@ULeaderWithNumTechs@@V?$allocator@ULeaderWithNumTechs@@@std@@@std@@IAEXV?$_Vector_const_iterator@ULeaderWithNumTechs@@V?$allocator@ULeaderWithNumTechs@@@std@@@2@IABULeaderWithNumTechs@@@Z$0
__unwindtable$?_Insert_n@?$vector@ULeaderWithNumTechs@@V?$allocator@ULeaderWithNumTechs@@@std@@@std@@IAEXV?$_Vector_const_iterator@ULeaderWithNumTechs@@V?$allocator@ULeaderWithNumTechs@@@std@@@2@IABULeaderWithNumTechs@@@Z DD 0ffffffffH
	DD	00H
	DD	0ffffffffH
	DD	00H
	DD	0ffffffffH
	DD	00H
	DD	0ffffffffH
	DD	00H
__ehfuncinfo$?_Insert_n@?$vector@ULeaderWithNumTechs@@V?$allocator@ULeaderWithNumTechs@@@std@@@std@@IAEXV?$_Vector_const_iterator@ULeaderWithNumTechs@@V?$allocator@ULeaderWithNumTechs@@@std@@@2@IABULeaderWithNumTechs@@@Z DD 019930522H
	DD	04H
	DD	FLAT:__unwindtable$?_Insert_n@?$vector@ULeaderWithNumTechs@@V?$allocator@ULeaderWithNumTechs@@@std@@@std@@IAEXV?$_Vector_const_iterator@ULeaderWithNumTechs@@V?$allocator@ULeaderWithNumTechs@@@std@@@2@IABULeaderWithNumTechs@@@Z
	DD	02H
	DD	FLAT:__tryblocktable$?_Insert_n@?$vector@ULeaderWithNumTechs@@V?$allocator@ULeaderWithNumTechs@@@std@@@std@@IAEXV?$_Vector_const_iterator@ULeaderWithNumTechs@@V?$allocator@ULeaderWithNumTechs@@@std@@@2@IABULeaderWithNumTechs@@@Z
	DD	2 DUP(00H)
	DD	00H
	DD	01H
__tryblocktable$?_Insert_n@?$vector@ULeaderWithNumTechs@@V?$allocator@ULeaderWithNumTechs@@@std@@@std@@IAEXV?$_Vector_const_iterator@ULeaderWithNumTechs@@V?$allocator@ULeaderWithNumTechs@@@std@@@2@IABULeaderWithNumTechs@@@Z DD 00H
	DD	00H
	DD	01H
	DD	01H
	DD	FLAT:__catchsym$?_Insert_n@?$vector@ULeaderWithNumTechs@@V?$allocator@ULeaderWithNumTechs@@@std@@@std@@IAEXV?$_Vector_const_iterator@ULeaderWithNumTechs@@V?$allocator@ULeaderWithNumTechs@@@std@@@2@IABULeaderWithNumTechs@@@Z$5
	DD	02H
	DD	02H
	DD	03H
	DD	01H
	DD	FLAT:__catchsym$?_Insert_n@?$vector@ULeaderWithNumTechs@@V?$allocator@ULeaderWithNumTechs@@@std@@@std@@IAEXV?$_Vector_const_iterator@ULeaderWithNumTechs@@V?$allocator@ULeaderWithNumTechs@@@std@@@2@IABULeaderWithNumTechs@@@Z$6
; Function compile flags: /Odtp
; File c:\program files (x86)\microsoft visual studio 9.0\vc\include\vector
xdata$x	ENDS
;	COMDAT ?_Insert_n@?$vector@ULeaderWithNumTechs@@V?$allocator@ULeaderWithNumTechs@@@std@@@std@@IAEXV?$_Vector_const_iterator@ULeaderWithNumTechs@@V?$allocator@ULeaderWithNumTechs@@@std@@@2@IABULeaderWithNumTechs@@@Z
_TEXT	SEGMENT
tv84 = -432						; size = 4
tv304 = -428						; size = 4
tv290 = -424						; size = 4
tv282 = -420						; size = 4
_this$ = -416						; size = 4
$T224032 = -412						; size = 4
$T224024 = -408						; size = 4
$T224023 = -404						; size = 4
$T224000 = -398						; size = 1
$T223999 = -397						; size = 1
$T223998 = -396						; size = 4
$T223997 = -392						; size = 4
$T223985 = -385						; size = 1
$T223984 = -384						; size = 4
$T223983 = -380						; size = 4
$T223982 = -376						; size = 4
__Cat$224016 = -372					; size = 1
$T224014 = -371						; size = 1
$T224013 = -370						; size = 1
__Cat$224006 = -368					; size = 1
$T224004 = -367						; size = 1
$T224003 = -366						; size = 1
$T224002 = -365						; size = 1
$T223957 = -364						; size = 4
$T223938 = -360						; size = 4
$T223921 = -353						; size = 1
$T223920 = -352						; size = 4
$T223910 = -348						; size = 4
$T223909 = -344						; size = 4
__Cat$223954 = -338					; size = 1
$T223952 = -337						; size = 1
$T223951 = -336						; size = 1
__Cat$223945 = -335					; size = 1
$T223943 = -334						; size = 1
$T223942 = -333						; size = 1
$T223885 = -332						; size = 4
$T223877 = -328						; size = 4
$T223869 = -324						; size = 4
$T223851 = -320						; size = 4
$T223850 = -316						; size = 4
$T223834 = -312						; size = 4
__Cat$223857 = -306					; size = 1
$T223855 = -305						; size = 1
$T223808 = -304						; size = 4
$T223807 = -300						; size = 4
$T223797 = -296						; size = 4
__Cat$223804 = -291					; size = 1
$T223802 = -290						; size = 1
$T223801 = -289						; size = 1
$T223781 = -288						; size = 4
$T223762 = -284						; size = 4
$T223745 = -277						; size = 1
$T223744 = -276						; size = 4
$T223734 = -272						; size = 4
$T223733 = -268						; size = 4
__Cat$223777 = -262					; size = 1
$T223775 = -261						; size = 1
$T223774 = -260						; size = 1
__Cat$223769 = -259					; size = 1
$T223767 = -258						; size = 1
$T223766 = -257						; size = 1
$T223709 = -256						; size = 4
$T223708 = -252						; size = 4
$T223704 = -248						; size = 4
$T223703 = -244						; size = 4
$T223685 = -240						; size = 4
$T223684 = -236						; size = 4
$T223668 = -232						; size = 4
__Cat$223690 = -226					; size = 1
$T223688 = -225						; size = 1
$T223619 = -224						; size = 4
$T223618 = -220						; size = 4
$T223602 = -216						; size = 4
__Cat$223624 = -210					; size = 1
$T223622 = -209						; size = 1
$T223559 = -208						; size = 4
$T223558 = -204						; size = 4
$T223542 = -200						; size = 4
__Cat$223564 = -194					; size = 1
$T223562 = -193						; size = 1
$T223516 = -192						; size = 4
$T223504 = -188						; size = 4
$T223494 = -181						; size = 1
$T223493 = -180						; size = 4
__Cat$223511 = -175					; size = 1
$T223509 = -174						; size = 1
$T223508 = -173						; size = 1
$T223481 = -172						; size = 4
$T223469 = -168						; size = 4
$T223459 = -161						; size = 1
$T223458 = -160						; size = 4
__Cat$223476 = -155					; size = 1
$T223474 = -154						; size = 1
$T223473 = -153						; size = 1
$T223446 = -152						; size = 4
$T223436 = -148						; size = 4
__Cat$223442 = -143					; size = 1
$T223440 = -142						; size = 1
$T223439 = -141						; size = 1
__Count$223408 = -128					; size = 4
__Count$223382 = -56					; size = 4
__Tmp$218689 = -52					; size = 8
__Oldend$218690 = -44					; size = 4
__Tmp$218679 = -40					; size = 8
__Ncopied$218666 = -32					; size = 4
__Newvec$218664 = -28					; size = 4
__Whereoff$218665 = -24					; size = 4
__Capacity$ = -20					; size = 4
__$EHRec$ = -16						; size = 16
__Where$ = 8						; size = 4
__Count$ = 12						; size = 4
__Val$ = 16						; size = 4
?_Insert_n@?$vector@ULeaderWithNumTechs@@V?$allocator@ULeaderWithNumTechs@@@std@@@std@@IAEXV?$_Vector_const_iterator@ULeaderWithNumTechs@@V?$allocator@ULeaderWithNumTechs@@@std@@@2@IABULeaderWithNumTechs@@@Z PROC ; std::vector<LeaderWithNumTechs,std::allocator<LeaderWithNumTechs> >::_Insert_n, COMDAT
; _this$ = ecx

; 1153 : 		{	// insert _Count * _Val at _Where

	push	ebp
	mov	ebp, esp
	push	-1
	push	__ehhandler$?_Insert_n@?$vector@ULeaderWithNumTechs@@V?$allocator@ULeaderWithNumTechs@@@std@@@std@@IAEXV?$_Vector_const_iterator@ULeaderWithNumTechs@@V?$allocator@ULeaderWithNumTechs@@@std@@@2@IABULeaderWithNumTechs@@@Z
	mov	eax, DWORD PTR fs:0
	push	eax
	push	ecx
	sub	esp, 416				; 000001a0H
	push	ebx
	push	esi
	push	edi
	mov	eax, DWORD PTR ___security_cookie
	xor	eax, ebp
	push	eax
	lea	eax, DWORD PTR __$EHRec$[ebp+4]
	mov	DWORD PTR fs:0, eax
	mov	DWORD PTR __$EHRec$[ebp], esp
	mov	DWORD PTR _this$[ebp], ecx

; 1154 : 
; 1155 :  #if _HAS_ITERATOR_DEBUGGING
; 1156 : 		if (_Where._Mycont != this
; 1157 : 			|| _Where._Myptr < _Myfirst || _Mylast < _Where._Myptr)
; 1158 : 			_DEBUG_ERROR("vector insert iterator outside range");
; 1159 :  #endif /* _HAS_ITERATOR_DEBUGGING */
; 1160 : 
; 1161 : 		size_type _Capacity = capacity();

	mov	eax, DWORD PTR _this$[ebp]
	cmp	DWORD PTR [eax+4], 0
	jne	SHORT $LN29@Insert_n
	mov	DWORD PTR tv282[ebp], 0
	jmp	SHORT $LN27@Insert_n
$LN29@Insert_n:
	mov	ecx, DWORD PTR _this$[ebp]
	mov	edx, DWORD PTR _this$[ebp]
	mov	eax, DWORD PTR [ecx+12]
	sub	eax, DWORD PTR [edx+4]
	sar	eax, 3
	mov	DWORD PTR tv282[ebp], eax
$LN27@Insert_n:
	mov	ecx, DWORD PTR tv282[ebp]
	mov	DWORD PTR __Capacity$[ebp], ecx

; 1162 : 
; 1163 : 		if (_Count == 0)

	cmp	DWORD PTR __Count$[ebp], 0
	jne	SHORT $LN14@Insert_n
	jmp	$LN16@Insert_n
$LN14@Insert_n:

; 1164 : 			;
; 1165 : 		else if (max_size() - size() < _Count)

	mov	DWORD PTR __Count$223382[ebp], 536870911 ; 1fffffffH
	cmp	DWORD PTR __Count$223382[ebp], 0
	jbe	SHORT $LN35@Insert_n
	mov	edx, DWORD PTR __Count$223382[ebp]
	mov	DWORD PTR tv290[ebp], edx
	jmp	SHORT $LN37@Insert_n
$LN35@Insert_n:
	mov	DWORD PTR tv290[ebp], 1
$LN37@Insert_n:
	mov	eax, DWORD PTR _this$[ebp]
	mov	ecx, DWORD PTR _this$[ebp]
	mov	edx, DWORD PTR [eax+8]
	sub	edx, DWORD PTR [ecx+4]
	sar	edx, 3
	mov	eax, DWORD PTR tv290[ebp]
	sub	eax, edx
	cmp	eax, DWORD PTR __Count$[ebp]
	jae	SHORT $LN42@Insert_n

; 1166 : 			_Xlen();	// result too long

	call	?_Xlen@?$vector@ULeaderWithNumTechs@@V?$allocator@ULeaderWithNumTechs@@@std@@@std@@KAXXZ ; std::vector<LeaderWithNumTechs,std::allocator<LeaderWithNumTechs> >::_Xlen
	jmp	$LN16@Insert_n

; 1167 : 		else if (_Capacity < size() + _Count)

$LN42@Insert_n:
	mov	ecx, DWORD PTR _this$[ebp]
	mov	edx, DWORD PTR _this$[ebp]
	mov	eax, DWORD PTR [ecx+8]
	sub	eax, DWORD PTR [edx+4]
	sar	eax, 3
	add	eax, DWORD PTR __Count$[ebp]
	cmp	DWORD PTR __Capacity$[ebp], eax
	jae	$LN10@Insert_n

; 1168 : 			{	// not enough room, reallocate
; 1169 : 			_Capacity = max_size() - _Capacity / 2 < _Capacity
; 1170 : 				? 0 : _Capacity + _Capacity / 2;	// try to grow by 50%

	mov	DWORD PTR __Count$223408[ebp], 536870911 ; 1fffffffH
	cmp	DWORD PTR __Count$223408[ebp], 0
	jbe	SHORT $LN48@Insert_n
	mov	ecx, DWORD PTR __Count$223408[ebp]
	mov	DWORD PTR tv304[ebp], ecx
	jmp	SHORT $LN44@Insert_n
$LN48@Insert_n:
	mov	DWORD PTR tv304[ebp], 1
$LN44@Insert_n:
	mov	edx, DWORD PTR __Capacity$[ebp]
	shr	edx, 1
	mov	eax, DWORD PTR tv304[ebp]
	sub	eax, edx
	cmp	eax, DWORD PTR __Capacity$[ebp]
	jae	SHORT $LN17@Insert_n
	mov	DWORD PTR tv84[ebp], 0
	jmp	SHORT $LN18@Insert_n
$LN17@Insert_n:
	mov	ecx, DWORD PTR __Capacity$[ebp]
	shr	ecx, 1
	add	ecx, DWORD PTR __Capacity$[ebp]
	mov	DWORD PTR tv84[ebp], ecx
$LN18@Insert_n:
	mov	edx, DWORD PTR tv84[ebp]
	mov	DWORD PTR __Capacity$[ebp], edx

; 1171 : 			if (_Capacity < size() + _Count)

	mov	eax, DWORD PTR _this$[ebp]
	mov	ecx, DWORD PTR _this$[ebp]
	mov	edx, DWORD PTR [eax+8]
	sub	edx, DWORD PTR [ecx+4]
	sar	edx, 3
	add	edx, DWORD PTR __Count$[ebp]
	cmp	DWORD PTR __Capacity$[ebp], edx
	jae	SHORT $LN54@Insert_n

; 1172 : 				_Capacity = size() + _Count;

	mov	eax, DWORD PTR _this$[ebp]
	mov	ecx, DWORD PTR _this$[ebp]
	mov	edx, DWORD PTR [eax+8]
	sub	edx, DWORD PTR [ecx+4]
	sar	edx, 3
	add	edx, DWORD PTR __Count$[ebp]
	mov	DWORD PTR __Capacity$[ebp], edx

; 1173 : 			pointer _Newvec = this->_Alval.allocate(_Capacity);

$LN54@Insert_n:
	push	0
	mov	eax, DWORD PTR __Capacity$[ebp]
	push	eax
	call	??$_Allocate@ULeaderWithNumTechs@@@std@@YAPAULeaderWithNumTechs@@IPAU1@@Z ; std::_Allocate<LeaderWithNumTechs>
	add	esp, 8
	mov	DWORD PTR __Newvec$218664[ebp], eax

; 1174 : 			size_type _Whereoff = _VEC_ITER_BASE(_Where) - _Myfirst;

	mov	ecx, DWORD PTR _this$[ebp]
	mov	edx, DWORD PTR __Where$[ebp]
	sub	edx, DWORD PTR [ecx+4]
	sar	edx, 3
	mov	DWORD PTR __Whereoff$218665[ebp], edx

; 1175 : 			int _Ncopied = 0;

	mov	DWORD PTR __Ncopied$218666[ebp], 0

; 1176 : 
; 1177 : 			_TRY_BEGIN

	mov	DWORD PTR __$EHRec$[ebp+12], 0

; 1178 : 			_Ufill(_Newvec + _Whereoff, _Count, _Val);	// add new stuff

	mov	eax, DWORD PTR __Whereoff$218665[ebp]
	mov	ecx, DWORD PTR __Newvec$218664[ebp]
	lea	edx, DWORD PTR [ecx+eax*8]
	mov	DWORD PTR $T223446[ebp], edx
	mov	eax, DWORD PTR $T223446[ebp]
	mov	DWORD PTR $T223436[ebp], eax
	xor	ecx, ecx
	mov	BYTE PTR $T223439[ebp], cl
	mov	dl, BYTE PTR __Cat$223442[ebp]
	mov	BYTE PTR $T223440[ebp], dl
	movzx	eax, BYTE PTR $T223439[ebp]
	push	eax
	movzx	ecx, BYTE PTR $T223440[ebp]
	push	ecx
	mov	edx, DWORD PTR _this$[ebp]
	push	edx
	mov	eax, DWORD PTR __Val$[ebp]
	push	eax
	mov	ecx, DWORD PTR __Count$[ebp]
	push	ecx
	mov	edx, DWORD PTR $T223436[ebp]
	push	edx
	call	??$_Uninit_fill_n@PAULeaderWithNumTechs@@IU1@V?$allocator@ULeaderWithNumTechs@@@std@@@std@@YAXPAULeaderWithNumTechs@@IABU1@AAV?$allocator@ULeaderWithNumTechs@@@0@U_Nonscalar_ptr_iterator_tag@0@U_Range_checked_iterator_tag@0@@Z ; std::_Uninit_fill_n<LeaderWithNumTechs *,unsigned int,LeaderWithNumTechs,std::allocator<LeaderWithNumTechs> >
	add	esp, 24					; 00000018H

; 1179 : 			++_Ncopied;

	mov	eax, DWORD PTR __Ncopied$218666[ebp]
	add	eax, 1
	mov	DWORD PTR __Ncopied$218666[ebp], eax

; 1180 : 			_Umove(this->_Myfirst, _VEC_ITER_BASE(_Where),
; 1181 : 				_Newvec);	// move prefix

	mov	ecx, DWORD PTR _this$[ebp]
	mov	edx, DWORD PTR [ecx+4]
	mov	DWORD PTR $T223481[ebp], edx
	mov	eax, DWORD PTR __Newvec$218664[ebp]
	mov	DWORD PTR $T223469[ebp], eax
	xor	ecx, ecx
	mov	BYTE PTR $T223473[ebp], cl
	mov	dl, BYTE PTR __Cat$223476[ebp]
	mov	BYTE PTR $T223474[ebp], dl
	mov	al, BYTE PTR $T223473[ebp]
	mov	BYTE PTR $T223459[ebp], al
	mov	ecx, DWORD PTR $T223469[ebp]
	mov	DWORD PTR $T223458[ebp], ecx
	mov	edx, DWORD PTR _this$[ebp]
	push	edx
	mov	eax, DWORD PTR $T223458[ebp]
	push	eax
	mov	ecx, DWORD PTR __Where$[ebp]
	push	ecx
	mov	edx, DWORD PTR $T223481[ebp]
	push	edx
	call	??$unchecked_uninitialized_copy@PAULeaderWithNumTechs@@PAU1@V?$allocator@ULeaderWithNumTechs@@@std@@@stdext@@YAPAULeaderWithNumTechs@@PAU1@00AAV?$allocator@ULeaderWithNumTechs@@@std@@@Z ; stdext::unchecked_uninitialized_copy<LeaderWithNumTechs *,LeaderWithNumTechs *,std::allocator<LeaderWithNumTechs> >
	add	esp, 16					; 00000010H

; 1182 : 			++_Ncopied;

	mov	eax, DWORD PTR __Ncopied$218666[ebp]
	add	eax, 1
	mov	DWORD PTR __Ncopied$218666[ebp], eax

; 1183 : 			_Umove(_VEC_ITER_BASE(_Where), this->_Mylast,
; 1184 : 				_Newvec + (_Whereoff + _Count));	// move suffix

	mov	ecx, DWORD PTR _this$[ebp]
	mov	edx, DWORD PTR [ecx+8]
	mov	DWORD PTR $T223516[ebp], edx
	mov	eax, DWORD PTR __Whereoff$218665[ebp]
	add	eax, DWORD PTR __Count$[ebp]
	mov	ecx, DWORD PTR __Newvec$218664[ebp]
	lea	edx, DWORD PTR [ecx+eax*8]
	mov	DWORD PTR $T223504[ebp], edx
	xor	eax, eax
	mov	BYTE PTR $T223508[ebp], al
	mov	cl, BYTE PTR __Cat$223511[ebp]
	mov	BYTE PTR $T223509[ebp], cl
	mov	dl, BYTE PTR $T223508[ebp]
	mov	BYTE PTR $T223494[ebp], dl
	mov	eax, DWORD PTR $T223504[ebp]
	mov	DWORD PTR $T223493[ebp], eax
	mov	ecx, DWORD PTR _this$[ebp]
	push	ecx
	mov	edx, DWORD PTR $T223493[ebp]
	push	edx
	mov	eax, DWORD PTR $T223516[ebp]
	push	eax
	mov	ecx, DWORD PTR __Where$[ebp]
	push	ecx
	call	??$unchecked_uninitialized_copy@PAULeaderWithNumTechs@@PAU1@V?$allocator@ULeaderWithNumTechs@@@std@@@stdext@@YAPAULeaderWithNumTechs@@PAU1@00AAV?$allocator@ULeaderWithNumTechs@@@std@@@Z ; stdext::unchecked_uninitialized_copy<LeaderWithNumTechs *,LeaderWithNumTechs *,std::allocator<LeaderWithNumTechs> >
	add	esp, 16					; 00000010H
	jmp	$LN19@Insert_n
__catch$?_Insert_n@?$vector@ULeaderWithNumTechs@@V?$allocator@ULeaderWithNumTechs@@@std@@@std@@IAEXV?$_Vector_const_iterator@ULeaderWithNumTechs@@V?$allocator@ULeaderWithNumTechs@@@std@@@2@IABULeaderWithNumTechs@@@Z$0:

; 1185 : 			_CATCH_ALL
; 1186 : 			if (1 < _Ncopied)

	cmp	DWORD PTR __Ncopied$218666[ebp], 1
	jle	SHORT $LN7@Insert_n

; 1187 : 				_Destroy(_Newvec, _Newvec + _Whereoff);

	mov	edx, DWORD PTR __Whereoff$218665[ebp]
	mov	eax, DWORD PTR __Newvec$218664[ebp]
	lea	ecx, DWORD PTR [eax+edx*8]
	mov	DWORD PTR $T223559[ebp], ecx
	mov	edx, DWORD PTR __Newvec$218664[ebp]
	mov	DWORD PTR $T223558[ebp], edx
	mov	al, BYTE PTR __Cat$223564[ebp]
	mov	BYTE PTR $T223562[ebp], al
	mov	ecx, DWORD PTR $T223558[ebp]
	mov	DWORD PTR $T223542[ebp], ecx
	jmp	SHORT $LN91@Insert_n
$LN90@Insert_n:
	mov	edx, DWORD PTR $T223542[ebp]
	add	edx, 8
	mov	DWORD PTR $T223542[ebp], edx
$LN91@Insert_n:
	mov	eax, DWORD PTR $T223542[ebp]
	cmp	eax, DWORD PTR $T223559[ebp]
	je	SHORT $LN7@Insert_n
	jmp	SHORT $LN90@Insert_n
$LN7@Insert_n:

; 1188 : 			if (0 < _Ncopied)

	cmp	DWORD PTR __Ncopied$218666[ebp], 0
	jle	SHORT $LN6@Insert_n

; 1189 : 				_Destroy(_Newvec + _Whereoff, _Newvec + _Whereoff + _Count);

	mov	ecx, DWORD PTR __Whereoff$218665[ebp]
	mov	edx, DWORD PTR __Newvec$218664[ebp]
	lea	eax, DWORD PTR [edx+ecx*8]
	mov	ecx, DWORD PTR __Count$[ebp]
	lea	edx, DWORD PTR [eax+ecx*8]
	mov	DWORD PTR $T223619[ebp], edx
	mov	eax, DWORD PTR __Whereoff$218665[ebp]
	mov	ecx, DWORD PTR __Newvec$218664[ebp]
	lea	edx, DWORD PTR [ecx+eax*8]
	mov	DWORD PTR $T223618[ebp], edx
	mov	al, BYTE PTR __Cat$223624[ebp]
	mov	BYTE PTR $T223622[ebp], al
	mov	ecx, DWORD PTR $T223618[ebp]
	mov	DWORD PTR $T223602[ebp], ecx
	jmp	SHORT $LN106@Insert_n
$LN105@Insert_n:
	mov	edx, DWORD PTR $T223602[ebp]
	add	edx, 8
	mov	DWORD PTR $T223602[ebp], edx
$LN106@Insert_n:
	mov	eax, DWORD PTR $T223602[ebp]
	cmp	eax, DWORD PTR $T223619[ebp]
	je	SHORT $LN6@Insert_n
	jmp	SHORT $LN105@Insert_n
$LN6@Insert_n:

; 1190 : 			this->_Alval.deallocate(_Newvec, _Capacity);

	mov	ecx, DWORD PTR __Newvec$218664[ebp]
	push	ecx
	call	??3@YAXPAX@Z				; operator delete
	add	esp, 4

; 1191 : 			_RERAISE;

	push	0
	push	0
	call	__CxxThrowException@8

; 1192 : 			_CATCH_END

	mov	DWORD PTR __$EHRec$[ebp+12], -1
	mov	eax, $LN115@Insert_n
	ret	0
$LN19@Insert_n:
	mov	DWORD PTR __$EHRec$[ebp+12], -1

; 1193 : 
; 1194 : 			_Count += size();

$LN115@Insert_n:
	mov	edx, DWORD PTR _this$[ebp]
	mov	eax, DWORD PTR _this$[ebp]
	mov	ecx, DWORD PTR [edx+8]
	sub	ecx, DWORD PTR [eax+4]
	sar	ecx, 3
	add	ecx, DWORD PTR __Count$[ebp]
	mov	DWORD PTR __Count$[ebp], ecx

; 1195 : 			if (_Myfirst != 0)

	mov	edx, DWORD PTR _this$[ebp]
	cmp	DWORD PTR [edx+4], 0
	je	$LN5@Insert_n

; 1196 : 				{	// destroy and deallocate old array
; 1197 : 				_Destroy(_Myfirst, _Mylast);

	mov	eax, DWORD PTR _this$[ebp]
	mov	ecx, DWORD PTR [eax+8]
	mov	DWORD PTR $T223704[ebp], ecx
	mov	edx, DWORD PTR _this$[ebp]
	mov	eax, DWORD PTR [edx+4]
	mov	DWORD PTR $T223703[ebp], eax
	mov	ecx, DWORD PTR $T223704[ebp]
	mov	DWORD PTR $T223685[ebp], ecx
	mov	edx, DWORD PTR $T223703[ebp]
	mov	DWORD PTR $T223684[ebp], edx
	mov	al, BYTE PTR __Cat$223690[ebp]
	mov	BYTE PTR $T223688[ebp], al
	mov	ecx, DWORD PTR $T223684[ebp]
	mov	DWORD PTR $T223668[ebp], ecx
	jmp	SHORT $LN125@Insert_n
$LN124@Insert_n:
	mov	edx, DWORD PTR $T223668[ebp]
	add	edx, 8
	mov	DWORD PTR $T223668[ebp], edx
$LN125@Insert_n:
	mov	eax, DWORD PTR $T223668[ebp]
	cmp	eax, DWORD PTR $T223685[ebp]
	je	SHORT $LN117@Insert_n
	jmp	SHORT $LN124@Insert_n
$LN117@Insert_n:

; 1198 : 				this->_Alval.deallocate(_Myfirst, _Myend - _Myfirst);

	mov	ecx, DWORD PTR _this$[ebp]
	mov	edx, DWORD PTR _this$[ebp]
	mov	eax, DWORD PTR [ecx+12]
	sub	eax, DWORD PTR [edx+4]
	sar	eax, 3
	mov	DWORD PTR $T223709[ebp], eax
	mov	ecx, DWORD PTR _this$[ebp]
	mov	edx, DWORD PTR [ecx+4]
	mov	DWORD PTR $T223708[ebp], edx
	mov	eax, DWORD PTR $T223708[ebp]
	push	eax
	call	??3@YAXPAX@Z				; operator delete
	add	esp, 4
$LN5@Insert_n:

; 1199 : 				}
; 1200 : 
; 1201 :  #if _HAS_ITERATOR_DEBUGGING
; 1202 : 			this->_Orphan_all();
; 1203 :  #endif /* _HAS_ITERATOR_DEBUGGING */
; 1204 : 
; 1205 : 			_Myend = _Newvec + _Capacity;

	mov	ecx, DWORD PTR __Capacity$[ebp]
	mov	edx, DWORD PTR __Newvec$218664[ebp]
	lea	eax, DWORD PTR [edx+ecx*8]
	mov	ecx, DWORD PTR _this$[ebp]
	mov	DWORD PTR [ecx+12], eax

; 1206 : 			_Mylast = _Newvec + _Count;

	mov	edx, DWORD PTR __Count$[ebp]
	mov	eax, DWORD PTR __Newvec$218664[ebp]
	lea	ecx, DWORD PTR [eax+edx*8]
	mov	edx, DWORD PTR _this$[ebp]
	mov	DWORD PTR [edx+8], ecx

; 1207 : 			_Myfirst = _Newvec;

	mov	eax, DWORD PTR _this$[ebp]
	mov	ecx, DWORD PTR __Newvec$218664[ebp]
	mov	DWORD PTR [eax+4], ecx
	jmp	$LN16@Insert_n
$LN10@Insert_n:

; 1208 : 			}
; 1209 : 		else if ((size_type)(_Mylast - _VEC_ITER_BASE(_Where)) < _Count)

	mov	edx, DWORD PTR _this$[ebp]
	mov	eax, DWORD PTR [edx+8]
	sub	eax, DWORD PTR __Where$[ebp]
	sar	eax, 3
	cmp	eax, DWORD PTR __Count$[ebp]
	jae	$LN3@Insert_n

; 1210 : 			{	// new stuff spills off end
; 1211 : 			_Ty _Tmp = _Val;	// in case _Val is in sequence

	mov	ecx, DWORD PTR __Val$[ebp]
	mov	edx, DWORD PTR [ecx]
	mov	eax, DWORD PTR [ecx+4]
	mov	DWORD PTR __Tmp$218679[ebp], edx
	mov	DWORD PTR __Tmp$218679[ebp+4], eax

; 1212 : 
; 1213 : 			_Umove(_VEC_ITER_BASE(_Where), _Mylast,
; 1214 : 				_VEC_ITER_BASE(_Where) + _Count);	// copy suffix

	mov	ecx, DWORD PTR _this$[ebp]
	mov	edx, DWORD PTR [ecx+8]
	mov	DWORD PTR $T223781[ebp], edx
	mov	eax, DWORD PTR __Count$[ebp]
	mov	ecx, DWORD PTR __Where$[ebp]
	lea	edx, DWORD PTR [ecx+eax*8]
	mov	DWORD PTR $T223762[ebp], edx
	xor	eax, eax
	mov	BYTE PTR $T223766[ebp], al
	mov	cl, BYTE PTR __Cat$223769[ebp]
	mov	BYTE PTR $T223767[ebp], cl
	mov	dl, BYTE PTR $T223766[ebp]
	mov	BYTE PTR $T223745[ebp], dl
	mov	eax, DWORD PTR $T223762[ebp]
	mov	DWORD PTR $T223744[ebp], eax
	mov	ecx, DWORD PTR $T223744[ebp]
	mov	DWORD PTR $T223734[ebp], ecx
	mov	edx, DWORD PTR __Where$[ebp]
	mov	DWORD PTR $T223733[ebp], edx
	xor	eax, eax
	mov	BYTE PTR $T223774[ebp], al
	mov	cl, BYTE PTR __Cat$223777[ebp]
	mov	BYTE PTR $T223775[ebp], cl
	movzx	edx, BYTE PTR $T223774[ebp]
	push	edx
	movzx	eax, BYTE PTR $T223775[ebp]
	push	eax
	mov	ecx, DWORD PTR _this$[ebp]
	push	ecx
	mov	edx, DWORD PTR $T223734[ebp]
	push	edx
	mov	eax, DWORD PTR $T223781[ebp]
	push	eax
	mov	ecx, DWORD PTR $T223733[ebp]
	push	ecx
	call	??$_Uninit_copy@PAULeaderWithNumTechs@@PAU1@V?$allocator@ULeaderWithNumTechs@@@std@@@std@@YAPAULeaderWithNumTechs@@PAU1@00AAV?$allocator@ULeaderWithNumTechs@@@0@U_Nonscalar_ptr_iterator_tag@0@U_Range_checked_iterator_tag@0@@Z ; std::_Uninit_copy<LeaderWithNumTechs *,LeaderWithNumTechs *,std::allocator<LeaderWithNumTechs> >
	add	esp, 24					; 00000018H

; 1215 : 
; 1216 : 			_TRY_BEGIN

	mov	DWORD PTR __$EHRec$[ebp+12], 2

; 1217 : 			_Ufill(_Mylast, _Count - (_Mylast - _VEC_ITER_BASE(_Where)),
; 1218 : 				_Tmp);	// insert new stuff off end

	mov	edx, DWORD PTR _this$[ebp]
	mov	eax, DWORD PTR [edx+8]
	sub	eax, DWORD PTR __Where$[ebp]
	sar	eax, 3
	mov	ecx, DWORD PTR __Count$[ebp]
	sub	ecx, eax
	mov	DWORD PTR $T223808[ebp], ecx
	mov	edx, DWORD PTR _this$[ebp]
	mov	eax, DWORD PTR [edx+8]
	mov	DWORD PTR $T223807[ebp], eax
	mov	ecx, DWORD PTR $T223807[ebp]
	mov	DWORD PTR $T223797[ebp], ecx
	xor	edx, edx
	mov	BYTE PTR $T223801[ebp], dl
	mov	al, BYTE PTR __Cat$223804[ebp]
	mov	BYTE PTR $T223802[ebp], al
	movzx	ecx, BYTE PTR $T223801[ebp]
	push	ecx
	movzx	edx, BYTE PTR $T223802[ebp]
	push	edx
	mov	eax, DWORD PTR _this$[ebp]
	push	eax
	lea	ecx, DWORD PTR __Tmp$218679[ebp]
	push	ecx
	mov	edx, DWORD PTR $T223808[ebp]
	push	edx
	mov	eax, DWORD PTR $T223797[ebp]
	push	eax
	call	??$_Uninit_fill_n@PAULeaderWithNumTechs@@IU1@V?$allocator@ULeaderWithNumTechs@@@std@@@std@@YAXPAULeaderWithNumTechs@@IABU1@AAV?$allocator@ULeaderWithNumTechs@@@0@U_Nonscalar_ptr_iterator_tag@0@U_Range_checked_iterator_tag@0@@Z ; std::_Uninit_fill_n<LeaderWithNumTechs *,unsigned int,LeaderWithNumTechs,std::allocator<LeaderWithNumTechs> >
	add	esp, 24					; 00000018H
	jmp	SHORT $LN21@Insert_n
__catch$?_Insert_n@?$vector@ULeaderWithNumTechs@@V?$allocator@ULeaderWithNumTechs@@@std@@@std@@IAEXV?$_Vector_const_iterator@ULeaderWithNumTechs@@V?$allocator@ULeaderWithNumTechs@@@std@@@2@IABULeaderWithNumTechs@@@Z$2:

; 1219 : 			_CATCH_ALL
; 1220 : 			_Destroy(_VEC_ITER_BASE(_Where) + _Count, _Mylast + _Count);

	mov	ecx, DWORD PTR _this$[ebp]
	mov	edx, DWORD PTR [ecx+8]
	mov	eax, DWORD PTR __Count$[ebp]
	lea	ecx, DWORD PTR [edx+eax*8]
	mov	DWORD PTR $T223869[ebp], ecx
	mov	edx, DWORD PTR $T223869[ebp]
	mov	DWORD PTR $T223851[ebp], edx
	mov	eax, DWORD PTR __Count$[ebp]
	mov	ecx, DWORD PTR __Where$[ebp]
	lea	edx, DWORD PTR [ecx+eax*8]
	mov	DWORD PTR $T223850[ebp], edx
	mov	al, BYTE PTR __Cat$223857[ebp]
	mov	BYTE PTR $T223855[ebp], al
	mov	ecx, DWORD PTR $T223850[ebp]
	mov	DWORD PTR $T223834[ebp], ecx
	jmp	SHORT $LN160@Insert_n
$LN159@Insert_n:
	mov	edx, DWORD PTR $T223834[ebp]
	add	edx, 8
	mov	DWORD PTR $T223834[ebp], edx
$LN160@Insert_n:
	mov	eax, DWORD PTR $T223834[ebp]
	cmp	eax, DWORD PTR $T223851[ebp]
	je	SHORT $LN152@Insert_n
	jmp	SHORT $LN159@Insert_n
$LN152@Insert_n:

; 1221 : 			_RERAISE;

	push	0
	push	0
	call	__CxxThrowException@8

; 1222 : 			_CATCH_END

	mov	DWORD PTR __$EHRec$[ebp+12], -1
	mov	eax, __tryend$?_Insert_n@?$vector@ULeaderWithNumTechs@@V?$allocator@ULeaderWithNumTechs@@@std@@@std@@IAEXV?$_Vector_const_iterator@ULeaderWithNumTechs@@V?$allocator@ULeaderWithNumTechs@@@std@@@2@IABULeaderWithNumTechs@@@Z$3
	ret	0
$LN21@Insert_n:
	mov	DWORD PTR __$EHRec$[ebp+12], -1
__tryend$?_Insert_n@?$vector@ULeaderWithNumTechs@@V?$allocator@ULeaderWithNumTechs@@@std@@@std@@IAEXV?$_Vector_const_iterator@ULeaderWithNumTechs@@V?$allocator@ULeaderWithNumTechs@@@std@@@2@IABULeaderWithNumTechs@@@Z$3:

; 1223 : 
; 1224 : 			_Mylast += _Count;

	mov	ecx, DWORD PTR _this$[ebp]
	mov	edx, DWORD PTR [ecx+8]
	mov	eax, DWORD PTR __Count$[ebp]
	lea	ecx, DWORD PTR [edx+eax*8]
	mov	edx, DWORD PTR _this$[ebp]
	mov	DWORD PTR [edx+8], ecx

; 1225 : 
; 1226 :  #if _HAS_ITERATOR_DEBUGGING
; 1227 : 			_Orphan_range(_Where._Myptr, _Mylast);
; 1228 :  #endif /* _HAS_ITERATOR_DEBUGGING */
; 1229 : 
; 1230 : 			std::fill(_VEC_ITER_BASE(_Where), _Mylast - _Count,
; 1231 : 				_Tmp);	// insert up to old end

	mov	eax, DWORD PTR __Count$[ebp]
	shl	eax, 3
	mov	ecx, DWORD PTR _this$[ebp]
	mov	edx, DWORD PTR [ecx+8]
	sub	edx, eax
	mov	DWORD PTR $T223885[ebp], edx
	mov	eax, DWORD PTR __Where$[ebp]
	mov	DWORD PTR $T223877[ebp], eax
	jmp	SHORT $LN171@Insert_n
$LN170@Insert_n:
	mov	ecx, DWORD PTR $T223877[ebp]
	add	ecx, 8
	mov	DWORD PTR $T223877[ebp], ecx
$LN171@Insert_n:
	mov	edx, DWORD PTR $T223877[ebp]
	cmp	edx, DWORD PTR $T223885[ebp]
	je	SHORT $LN167@Insert_n
	mov	eax, DWORD PTR __Tmp$218679[ebp]
	mov	ecx, DWORD PTR __Tmp$218679[ebp+4]
	mov	edx, DWORD PTR $T223877[ebp]
	mov	DWORD PTR [edx], eax
	mov	DWORD PTR [edx+4], ecx
	jmp	SHORT $LN170@Insert_n
$LN167@Insert_n:

; 1232 : 			}
; 1233 : 		else

	jmp	$LN16@Insert_n
$LN3@Insert_n:

; 1234 : 			{	// new stuff can all be assigned
; 1235 : 			_Ty _Tmp = _Val;	// in case _Val is in sequence

	mov	eax, DWORD PTR __Val$[ebp]
	mov	ecx, DWORD PTR [eax]
	mov	edx, DWORD PTR [eax+4]
	mov	DWORD PTR __Tmp$218689[ebp], ecx
	mov	DWORD PTR __Tmp$218689[ebp+4], edx

; 1236 : 
; 1237 : 			pointer _Oldend = _Mylast;

	mov	eax, DWORD PTR _this$[ebp]
	mov	ecx, DWORD PTR [eax+8]
	mov	DWORD PTR __Oldend$218690[ebp], ecx

; 1238 : 			_Mylast = _Umove(_Oldend - _Count, _Oldend,
; 1239 : 				_Mylast);	// copy suffix

	mov	edx, DWORD PTR _this$[ebp]
	mov	eax, DWORD PTR [edx+8]
	mov	DWORD PTR $T223957[ebp], eax
	mov	ecx, DWORD PTR $T223957[ebp]
	mov	DWORD PTR $T223938[ebp], ecx
	xor	edx, edx
	mov	BYTE PTR $T223942[ebp], dl
	mov	al, BYTE PTR __Cat$223945[ebp]
	mov	BYTE PTR $T223943[ebp], al
	mov	cl, BYTE PTR $T223942[ebp]
	mov	BYTE PTR $T223921[ebp], cl
	mov	edx, DWORD PTR $T223938[ebp]
	mov	DWORD PTR $T223920[ebp], edx
	mov	eax, DWORD PTR $T223920[ebp]
	mov	DWORD PTR $T223910[ebp], eax
	mov	ecx, DWORD PTR __Count$[ebp]
	shl	ecx, 3
	mov	edx, DWORD PTR __Oldend$218690[ebp]
	sub	edx, ecx
	mov	DWORD PTR $T223909[ebp], edx
	xor	eax, eax
	mov	BYTE PTR $T223951[ebp], al
	mov	cl, BYTE PTR __Cat$223954[ebp]
	mov	BYTE PTR $T223952[ebp], cl
	movzx	edx, BYTE PTR $T223951[ebp]
	push	edx
	movzx	eax, BYTE PTR $T223952[ebp]
	push	eax
	mov	ecx, DWORD PTR _this$[ebp]
	push	ecx
	mov	edx, DWORD PTR $T223910[ebp]
	push	edx
	mov	eax, DWORD PTR __Oldend$218690[ebp]
	push	eax
	mov	ecx, DWORD PTR $T223909[ebp]
	push	ecx
	call	??$_Uninit_copy@PAULeaderWithNumTechs@@PAU1@V?$allocator@ULeaderWithNumTechs@@@std@@@std@@YAPAULeaderWithNumTechs@@PAU1@00AAV?$allocator@ULeaderWithNumTechs@@@0@U_Nonscalar_ptr_iterator_tag@0@U_Range_checked_iterator_tag@0@@Z ; std::_Uninit_copy<LeaderWithNumTechs *,LeaderWithNumTechs *,std::allocator<LeaderWithNumTechs> >
	add	esp, 24					; 00000018H
	mov	edx, DWORD PTR _this$[ebp]
	mov	DWORD PTR [edx+8], eax

; 1240 : 
; 1241 :  #if _HAS_ITERATOR_DEBUGGING
; 1242 : 			_Orphan_range(_Where._Myptr, _Mylast);
; 1243 :  #endif /* _HAS_ITERATOR_DEBUGGING */
; 1244 : 
; 1245 : 			_STDEXT _Unchecked_move_backward(_VEC_ITER_BASE(_Where), _Oldend - _Count,
; 1246 : 				_Oldend);	// copy hole

	mov	eax, DWORD PTR __Oldend$218690[ebp]
	mov	DWORD PTR $T224024[ebp], eax
	mov	ecx, DWORD PTR __Where$[ebp]
	mov	DWORD PTR $T224023[ebp], ecx
	xor	edx, edx
	mov	BYTE PTR $T224002[ebp], dl
	mov	al, BYTE PTR __Cat$224006[ebp]
	mov	BYTE PTR $T224003[ebp], al
	mov	cl, BYTE PTR $T224002[ebp]
	mov	BYTE PTR $T224000[ebp], cl
	mov	dl, BYTE PTR $T224004[ebp]
	mov	BYTE PTR $T223999[ebp], dl
	mov	eax, DWORD PTR $T224024[ebp]
	mov	DWORD PTR $T223998[ebp], eax
	mov	ecx, DWORD PTR $T224023[ebp]
	mov	DWORD PTR $T223997[ebp], ecx
	xor	edx, edx
	mov	BYTE PTR $T224013[ebp], dl
	mov	al, BYTE PTR __Cat$224016[ebp]
	mov	BYTE PTR $T224014[ebp], al
	mov	cl, BYTE PTR $T224013[ebp]
	mov	BYTE PTR $T223985[ebp], cl
	mov	edx, DWORD PTR $T223998[ebp]
	mov	DWORD PTR $T223984[ebp], edx
	mov	eax, DWORD PTR __Count$[ebp]
	shl	eax, 3
	mov	ecx, DWORD PTR __Oldend$218690[ebp]
	sub	ecx, eax
	mov	DWORD PTR $T223983[ebp], ecx
	mov	edx, DWORD PTR $T223997[ebp]
	mov	DWORD PTR $T223982[ebp], edx
$LN197@Insert_n:
	mov	eax, DWORD PTR $T223982[ebp]
	cmp	eax, DWORD PTR $T223983[ebp]
	je	SHORT $LN186@Insert_n
	mov	ecx, DWORD PTR $T223983[ebp]
	sub	ecx, 8
	mov	DWORD PTR $T223983[ebp], ecx
	mov	edx, DWORD PTR $T223984[ebp]
	sub	edx, 8
	mov	DWORD PTR $T223984[ebp], edx
	mov	eax, DWORD PTR $T223983[ebp]
	mov	ecx, DWORD PTR [eax]
	mov	edx, DWORD PTR [eax+4]
	mov	eax, DWORD PTR $T223984[ebp]
	mov	DWORD PTR [eax], ecx
	mov	DWORD PTR [eax+4], edx
	jmp	SHORT $LN197@Insert_n
$LN186@Insert_n:

; 1247 : 			std::fill(_VEC_ITER_BASE(_Where), _VEC_ITER_BASE(_Where) + _Count,
; 1248 : 				_Tmp);	// insert into hole

	mov	ecx, DWORD PTR __Where$[ebp]
	mov	DWORD PTR $T224032[ebp], ecx
	jmp	SHORT $LN204@Insert_n
$LN203@Insert_n:
	mov	edx, DWORD PTR $T224032[ebp]
	add	edx, 8
	mov	DWORD PTR $T224032[ebp], edx
$LN204@Insert_n:
	mov	eax, DWORD PTR __Count$[ebp]
	mov	ecx, DWORD PTR __Where$[ebp]
	lea	edx, DWORD PTR [ecx+eax*8]
	cmp	DWORD PTR $T224032[ebp], edx
	je	SHORT $LN16@Insert_n
	mov	eax, DWORD PTR __Tmp$218689[ebp]
	mov	ecx, DWORD PTR __Tmp$218689[ebp+4]
	mov	edx, DWORD PTR $T224032[ebp]
	mov	DWORD PTR [edx], eax
	mov	DWORD PTR [edx+4], ecx
	jmp	SHORT $LN203@Insert_n
$LN16@Insert_n:

; 1249 : 			}
; 1250 : 		}

	mov	ecx, DWORD PTR __$EHRec$[ebp+4]
	mov	DWORD PTR fs:0, ecx
	pop	ecx
	pop	edi
	pop	esi
	pop	ebx
	mov	esp, ebp
	pop	ebp
	ret	12					; 0000000cH
_TEXT	ENDS
;	COMDAT text$x
text$x	SEGMENT
__ehhandler$?_Insert_n@?$vector@ULeaderWithNumTechs@@V?$allocator@ULeaderWithNumTechs@@@std@@@std@@IAEXV?$_Vector_const_iterator@ULeaderWithNumTechs@@V?$allocator@ULeaderWithNumTechs@@@std@@@2@IABULeaderWithNumTechs@@@Z:
	mov	edx, DWORD PTR [esp+8]
	lea	eax, DWORD PTR [edx+12]
	mov	ecx, DWORD PTR [edx-436]
	xor	ecx, eax
	call	@__security_check_cookie@4
	mov	eax, OFFSET __ehfuncinfo$?_Insert_n@?$vector@ULeaderWithNumTechs@@V?$allocator@ULeaderWithNumTechs@@@std@@@std@@IAEXV?$_Vector_const_iterator@ULeaderWithNumTechs@@V?$allocator@ULeaderWithNumTechs@@@std@@@2@IABULeaderWithNumTechs@@@Z
	jmp	___CxxFrameHandler3
text$x	ENDS
?_Insert_n@?$vector@ULeaderWithNumTechs@@V?$allocator@ULeaderWithNumTechs@@@std@@@std@@IAEXV?$_Vector_const_iterator@ULeaderWithNumTechs@@V?$allocator@ULeaderWithNumTechs@@@std@@@2@IABULeaderWithNumTechs@@@Z ENDP ; std::vector<LeaderWithNumTechs,std::allocator<LeaderWithNumTechs> >::_Insert_n
PUBLIC	__TI3?AVlength_error@std@@
PUBLIC	??_7length_error@std@@6B@			; std::length_error::`vftable'
PUBLIC	??_7logic_error@std@@6B@			; std::logic_error::`vftable'
PUBLIC	??_C@_0BD@OLBABOEK@vector?$DMT?$DO?5too?5long?$AA@ ; `string'
PUBLIC	?what@logic_error@std@@UBEPBDXZ			; std::logic_error::what
PUBLIC	??1length_error@std@@UAE@XZ			; std::length_error::~length_error
PUBLIC	__CTA3?AVlength_error@std@@
PUBLIC	__CT??_R0?AVlength_error@std@@@8??0length_error@std@@QAE@ABV01@@Z40
PUBLIC	??_R0?AVlength_error@std@@@8			; std::length_error `RTTI Type Descriptor'
PUBLIC	??0length_error@std@@QAE@ABV01@@Z		; std::length_error::length_error
PUBLIC	__CT??_R0?AVlogic_error@std@@@8??0logic_error@std@@QAE@ABV01@@Z40
PUBLIC	??_R0?AVlogic_error@std@@@8			; std::logic_error `RTTI Type Descriptor'
PUBLIC	??0logic_error@std@@QAE@ABV01@@Z		; std::logic_error::logic_error
PUBLIC	__CT??_R0?AVexception@std@@@8??0exception@std@@QAE@ABV01@@Z12
PUBLIC	??_R0?AVexception@std@@@8			; std::exception `RTTI Type Descriptor'
EXTRN	__imp_??1exception@std@@UAE@XZ:PROC
EXTRN	__imp_??0exception@std@@QAE@XZ:PROC
EXTRN	__imp_??0?$basic_string@DU?$char_traits@D@std@@V?$allocator@D@2@@std@@QAE@PBD@Z:PROC
EXTRN	??_Elogic_error@std@@UAEPAXI@Z:PROC		; std::logic_error::`vector deleting destructor'
EXTRN	??_Elength_error@std@@UAEPAXI@Z:PROC		; std::length_error::`vector deleting destructor'
EXTRN	??_7type_info@@6B@:DWORD			; type_info::`vftable'
EXTRN	??0exception@std@@QAE@ABV01@@Z:PROC		; std::exception::exception
;	COMDAT ??_R0?AVexception@std@@@8
; File c:\program files (x86)\microsoft visual studio 9.0\vc\include\stdexcept
_DATA	SEGMENT
??_R0?AVexception@std@@@8 DD FLAT:??_7type_info@@6B@	; std::exception `RTTI Type Descriptor'
	DD	00H
	DB	'.?AVexception@std@@', 00H
_DATA	ENDS
;	COMDAT __CT??_R0?AVexception@std@@@8??0exception@std@@QAE@ABV01@@Z12
xdata$x	SEGMENT
__CT??_R0?AVexception@std@@@8??0exception@std@@QAE@ABV01@@Z12 DD 00H
	DD	FLAT:??_R0?AVexception@std@@@8
	DD	00H
	DD	0ffffffffH
	ORG $+4
	DD	0cH
	DD	FLAT:??0exception@std@@QAE@ABV01@@Z
xdata$x	ENDS
;	COMDAT ??_R0?AVlogic_error@std@@@8
_DATA	SEGMENT
??_R0?AVlogic_error@std@@@8 DD FLAT:??_7type_info@@6B@	; std::logic_error `RTTI Type Descriptor'
	DD	00H
	DB	'.?AVlogic_error@std@@', 00H
_DATA	ENDS
;	COMDAT __CT??_R0?AVlogic_error@std@@@8??0logic_error@std@@QAE@ABV01@@Z40
xdata$x	SEGMENT
__CT??_R0?AVlogic_error@std@@@8??0logic_error@std@@QAE@ABV01@@Z40 DD 00H
	DD	FLAT:??_R0?AVlogic_error@std@@@8
	DD	00H
	DD	0ffffffffH
	ORG $+4
	DD	028H
	DD	FLAT:??0logic_error@std@@QAE@ABV01@@Z
xdata$x	ENDS
;	COMDAT ??_R0?AVlength_error@std@@@8
_DATA	SEGMENT
??_R0?AVlength_error@std@@@8 DD FLAT:??_7type_info@@6B@	; std::length_error `RTTI Type Descriptor'
	DD	00H
	DB	'.?AVlength_error@std@@', 00H
_DATA	ENDS
;	COMDAT __CT??_R0?AVlength_error@std@@@8??0length_error@std@@QAE@ABV01@@Z40
xdata$x	SEGMENT
__CT??_R0?AVlength_error@std@@@8??0length_error@std@@QAE@ABV01@@Z40 DD 00H
	DD	FLAT:??_R0?AVlength_error@std@@@8
	DD	00H
	DD	0ffffffffH
	ORG $+4
	DD	028H
	DD	FLAT:??0length_error@std@@QAE@ABV01@@Z
xdata$x	ENDS
;	COMDAT __CTA3?AVlength_error@std@@
xdata$x	SEGMENT
__CTA3?AVlength_error@std@@ DD 03H
	DD	FLAT:__CT??_R0?AVlength_error@std@@@8??0length_error@std@@QAE@ABV01@@Z40
	DD	FLAT:__CT??_R0?AVlogic_error@std@@@8??0logic_error@std@@QAE@ABV01@@Z40
	DD	FLAT:__CT??_R0?AVexception@std@@@8??0exception@std@@QAE@ABV01@@Z12
xdata$x	ENDS
;	COMDAT __TI3?AVlength_error@std@@
xdata$x	SEGMENT
__TI3?AVlength_error@std@@ DD 00H
	DD	FLAT:??1length_error@std@@UAE@XZ
	DD	00H
	DD	FLAT:__CTA3?AVlength_error@std@@
xdata$x	ENDS
;	COMDAT ??_7length_error@std@@6B@
CONST	SEGMENT
??_7length_error@std@@6B@ DD FLAT:??_Elength_error@std@@UAEPAXI@Z ; std::length_error::`vftable'
	DD	FLAT:?what@logic_error@std@@UBEPBDXZ
CONST	ENDS
;	COMDAT ??_7logic_error@std@@6B@
CONST	SEGMENT
??_7logic_error@std@@6B@ DD FLAT:??_Elogic_error@std@@UAEPAXI@Z ; std::logic_error::`vftable'
	DD	FLAT:?what@logic_error@std@@UBEPBDXZ
CONST	ENDS
;	COMDAT ??_C@_0BD@OLBABOEK@vector?$DMT?$DO?5too?5long?$AA@
CONST	SEGMENT
??_C@_0BD@OLBABOEK@vector?$DMT?$DO?5too?5long?$AA@ DB 'vector<T> too long'
	DB	00H						; `string'
CONST	ENDS
;	COMDAT xdata$x
xdata$x	SEGMENT
__unwindtable$?_Xlen@?$vector@ULeaderWithNumTechs@@V?$allocator@ULeaderWithNumTechs@@@std@@@std@@KAXXZ DD 0ffffffffH
	DD	FLAT:__unwindfunclet$?_Xlen@?$vector@ULeaderWithNumTechs@@V?$allocator@ULeaderWithNumTechs@@@std@@@std@@KAXXZ$0
	DD	00H
	DD	FLAT:__unwindfunclet$?_Xlen@?$vector@ULeaderWithNumTechs@@V?$allocator@ULeaderWithNumTechs@@@std@@@std@@KAXXZ$2
__ehfuncinfo$?_Xlen@?$vector@ULeaderWithNumTechs@@V?$allocator@ULeaderWithNumTechs@@@std@@@std@@KAXXZ DD 019930522H
	DD	02H
	DD	FLAT:__unwindtable$?_Xlen@?$vector@ULeaderWithNumTechs@@V?$allocator@ULeaderWithNumTechs@@@std@@@std@@KAXXZ
	DD	2 DUP(00H)
	DD	2 DUP(00H)
	DD	00H
	DD	01H
; Function compile flags: /Odtp
; File c:\program files (x86)\microsoft visual studio 9.0\vc\include\vector
xdata$x	ENDS
;	COMDAT ?_Xlen@?$vector@ULeaderWithNumTechs@@V?$allocator@ULeaderWithNumTechs@@@std@@@std@@KAXXZ
_TEXT	SEGMENT
$T224054 = -80						; size = 28
$T224053 = -52						; size = 40
__$EHRec$ = -12						; size = 12
?_Xlen@?$vector@ULeaderWithNumTechs@@V?$allocator@ULeaderWithNumTechs@@@std@@@std@@KAXXZ PROC ; std::vector<LeaderWithNumTechs,std::allocator<LeaderWithNumTechs> >::_Xlen, COMDAT

; 1259 : 		{	// report a length_error

	push	ebp
	mov	ebp, esp
	push	-1
	push	__ehhandler$?_Xlen@?$vector@ULeaderWithNumTechs@@V?$allocator@ULeaderWithNumTechs@@@std@@@std@@KAXXZ
	mov	eax, DWORD PTR fs:0
	push	eax
	sub	esp, 68					; 00000044H
	mov	eax, DWORD PTR ___security_cookie
	xor	eax, ebp
	push	eax
	lea	eax, DWORD PTR __$EHRec$[ebp]
	mov	DWORD PTR fs:0, eax

; 1260 : 		_THROW(length_error, "vector<T> too long");

	push	OFFSET ??_C@_0BD@OLBABOEK@vector?$DMT?$DO?5too?5long?$AA@
	lea	ecx, DWORD PTR $T224054[ebp]
	call	DWORD PTR __imp_??0?$basic_string@DU?$char_traits@D@std@@V?$allocator@D@2@@std@@QAE@PBD@Z
	mov	DWORD PTR __$EHRec$[ebp+8], 0
	lea	ecx, DWORD PTR $T224053[ebp]
	call	DWORD PTR __imp_??0exception@std@@QAE@XZ
	mov	BYTE PTR __$EHRec$[ebp+8], 1
	mov	DWORD PTR $T224053[ebp], OFFSET ??_7logic_error@std@@6B@
	lea	eax, DWORD PTR $T224054[ebp]
	push	eax
	lea	ecx, DWORD PTR $T224053[ebp+12]
	call	DWORD PTR __imp_??0?$basic_string@DU?$char_traits@D@std@@V?$allocator@D@2@@std@@QAE@ABV01@@Z
	mov	BYTE PTR __$EHRec$[ebp+8], 0
	mov	DWORD PTR $T224053[ebp], OFFSET ??_7length_error@std@@6B@
	push	OFFSET __TI3?AVlength_error@std@@
	lea	ecx, DWORD PTR $T224053[ebp]
	push	ecx
	call	__CxxThrowException@8
	mov	DWORD PTR __$EHRec$[ebp+8], -1
	lea	ecx, DWORD PTR $T224054[ebp]
	call	DWORD PTR __imp_??1?$basic_string@DU?$char_traits@D@std@@V?$allocator@D@2@@std@@QAE@XZ
$LN2@Xlen:

; 1261 : 		}

	mov	ecx, DWORD PTR __$EHRec$[ebp]
	mov	DWORD PTR fs:0, ecx
	pop	ecx
	mov	esp, ebp
	pop	ebp
	ret	0
_TEXT	ENDS
;	COMDAT text$x
text$x	SEGMENT
__unwindfunclet$?_Xlen@?$vector@ULeaderWithNumTechs@@V?$allocator@ULeaderWithNumTechs@@@std@@@std@@KAXXZ$0:
	lea	ecx, DWORD PTR $T224054[ebp]
	jmp	DWORD PTR __imp_??1?$basic_string@DU?$char_traits@D@std@@V?$allocator@D@2@@std@@QAE@XZ
__unwindfunclet$?_Xlen@?$vector@ULeaderWithNumTechs@@V?$allocator@ULeaderWithNumTechs@@@std@@@std@@KAXXZ$2:
	lea	ecx, DWORD PTR $T224053[ebp]
	jmp	DWORD PTR __imp_??1exception@std@@UAE@XZ
__ehhandler$?_Xlen@?$vector@ULeaderWithNumTechs@@V?$allocator@ULeaderWithNumTechs@@@std@@@std@@KAXXZ:
	mov	edx, DWORD PTR [esp+8]
	lea	eax, DWORD PTR [edx+12]
	mov	ecx, DWORD PTR [edx-72]
	xor	ecx, eax
	call	@__security_check_cookie@4
	mov	eax, OFFSET __ehfuncinfo$?_Xlen@?$vector@ULeaderWithNumTechs@@V?$allocator@ULeaderWithNumTechs@@@std@@@std@@KAXXZ
	jmp	___CxxFrameHandler3
text$x	ENDS
?_Xlen@?$vector@ULeaderWithNumTechs@@V?$allocator@ULeaderWithNumTechs@@@std@@@std@@KAXXZ ENDP ; std::vector<LeaderWithNumTechs,std::allocator<LeaderWithNumTechs> >::_Xlen
; Function compile flags: /Odtp
; File c:\program files (x86)\microsoft visual studio 9.0\vc\include\stdexcept
;	COMDAT ?what@logic_error@std@@UBEPBDXZ
_TEXT	SEGMENT
_this$ = -4						; size = 4
?what@logic_error@std@@UBEPBDXZ PROC			; std::logic_error::what, COMDAT
; _this$ = ecx

; 34   : 		{	// return pointer to message string

	push	ebp
	mov	ebp, esp
	push	ecx
	mov	DWORD PTR _this$[ebp], ecx

; 35   : 		return (_Str.c_str());

	mov	ecx, DWORD PTR _this$[ebp]
	add	ecx, 12					; 0000000cH
	call	DWORD PTR __imp_?c_str@?$basic_string@DU?$char_traits@D@std@@V?$allocator@D@2@@std@@QBEPBDXZ

; 36   : 		}

	mov	esp, ebp
	pop	ebp
	ret	0
?what@logic_error@std@@UBEPBDXZ ENDP			; std::logic_error::what
; Function compile flags: /Odtp
_TEXT	ENDS
;	COMDAT ??_Glogic_error@std@@UAEPAXI@Z
_TEXT	SEGMENT
_this$ = -4						; size = 4
___flags$ = 8						; size = 4
??_Glogic_error@std@@UAEPAXI@Z PROC			; std::logic_error::`scalar deleting destructor', COMDAT
; _this$ = ecx
	push	ebp
	mov	ebp, esp
	push	ecx
	mov	DWORD PTR _this$[ebp], ecx
	mov	eax, DWORD PTR _this$[ebp]
	mov	DWORD PTR [eax], OFFSET ??_7logic_error@std@@6B@
	mov	ecx, DWORD PTR _this$[ebp]
	add	ecx, 12					; 0000000cH
	call	DWORD PTR __imp_??1?$basic_string@DU?$char_traits@D@std@@V?$allocator@D@2@@std@@QAE@XZ
	mov	ecx, DWORD PTR _this$[ebp]
	call	DWORD PTR __imp_??1exception@std@@UAE@XZ
	mov	ecx, DWORD PTR ___flags$[ebp]
	and	ecx, 1
	je	SHORT $LN1@scalar
	mov	edx, DWORD PTR _this$[ebp]
	push	edx
	call	??3@YAXPAX@Z				; operator delete
	add	esp, 4
$LN1@scalar:
	mov	eax, DWORD PTR _this$[ebp]
	mov	esp, ebp
	pop	ebp
	ret	4
??_Glogic_error@std@@UAEPAXI@Z ENDP			; std::logic_error::`scalar deleting destructor'
; Function compile flags: /Odtp
_TEXT	ENDS
;	COMDAT ??1length_error@std@@UAE@XZ
_TEXT	SEGMENT
_this$ = -4						; size = 4
??1length_error@std@@UAE@XZ PROC			; std::length_error::~length_error, COMDAT
; _this$ = ecx

; 109  : 		{	// destroy the object

	push	ebp
	mov	ebp, esp
	push	ecx
	mov	DWORD PTR _this$[ebp], ecx
	mov	eax, DWORD PTR _this$[ebp]
	mov	DWORD PTR [eax], OFFSET ??_7length_error@std@@6B@

; 110  : 		}

	mov	ecx, DWORD PTR _this$[ebp]
	mov	DWORD PTR [ecx], OFFSET ??_7logic_error@std@@6B@
	mov	ecx, DWORD PTR _this$[ebp]
	add	ecx, 12					; 0000000cH
	call	DWORD PTR __imp_??1?$basic_string@DU?$char_traits@D@std@@V?$allocator@D@2@@std@@QAE@XZ
	mov	ecx, DWORD PTR _this$[ebp]
	call	DWORD PTR __imp_??1exception@std@@UAE@XZ
	mov	esp, ebp
	pop	ebp
	ret	0
??1length_error@std@@UAE@XZ ENDP			; std::length_error::~length_error
; Function compile flags: /Odtp
_TEXT	ENDS
;	COMDAT ??_Glength_error@std@@UAEPAXI@Z
_TEXT	SEGMENT
_this$ = -4						; size = 4
___flags$ = 8						; size = 4
??_Glength_error@std@@UAEPAXI@Z PROC			; std::length_error::`scalar deleting destructor', COMDAT
; _this$ = ecx
	push	ebp
	mov	ebp, esp
	push	ecx
	mov	DWORD PTR _this$[ebp], ecx
	mov	eax, DWORD PTR _this$[ebp]
	mov	DWORD PTR [eax], OFFSET ??_7length_error@std@@6B@
	mov	ecx, DWORD PTR _this$[ebp]
	mov	DWORD PTR [ecx], OFFSET ??_7logic_error@std@@6B@
	mov	ecx, DWORD PTR _this$[ebp]
	add	ecx, 12					; 0000000cH
	call	DWORD PTR __imp_??1?$basic_string@DU?$char_traits@D@std@@V?$allocator@D@2@@std@@QAE@XZ
	mov	ecx, DWORD PTR _this$[ebp]
	call	DWORD PTR __imp_??1exception@std@@UAE@XZ
	mov	edx, DWORD PTR ___flags$[ebp]
	and	edx, 1
	je	SHORT $LN1@scalar@2
	mov	eax, DWORD PTR _this$[ebp]
	push	eax
	call	??3@YAXPAX@Z				; operator delete
	add	esp, 4
$LN1@scalar@2:
	mov	eax, DWORD PTR _this$[ebp]
	mov	esp, ebp
	pop	ebp
	ret	4
??_Glength_error@std@@UAEPAXI@Z ENDP			; std::length_error::`scalar deleting destructor'
; Function compile flags: /Odtp
; File d:\sources\lekmod_git\checkout\lekmod_dll\fireplace\include\fireworks\eventsystem\fastdelegate.h
_TEXT	ENDS
;	COMDAT ??$MakeDelegate@VCvGame@@V1@HPBDH@fastdelegate@@YA?AV?$FastDelegate2@HPBDH@0@PAVCvGame@@P82@AEHHPBD@Z@Z
_TEXT	SEGMENT
___$ReturnUdt$ = 8					; size = 4
_x$ = 12						; size = 4
_func$ = 16						; size = 4
??$MakeDelegate@VCvGame@@V1@HPBDH@fastdelegate@@YA?AV?$FastDelegate2@HPBDH@0@PAVCvGame@@P82@AEHHPBD@Z@Z PROC ; fastdelegate::MakeDelegate<CvGame,CvGame,int,char const *,int>, COMDAT

; 2030 : FastDelegate2<Param1, Param2, FASTDLGT_RETTYPE> MakeDelegate(Y* x, RetType (X::*func)(Param1 p1, Param2 p2)) { 

	push	ebp
	mov	ebp, esp

; 2031 : 	return FastDelegate2<Param1, Param2, FASTDLGT_RETTYPE>(x, func);

	mov	eax, DWORD PTR ___$ReturnUdt$[ebp]
	mov	DWORD PTR [eax], 0
	mov	ecx, DWORD PTR ___$ReturnUdt$[ebp]
	mov	DWORD PTR [ecx+4], 0
	mov	edx, DWORD PTR ___$ReturnUdt$[ebp]
	mov	eax, DWORD PTR _func$[ebp]
	mov	DWORD PTR [edx+4], eax
	mov	ecx, DWORD PTR ___$ReturnUdt$[ebp]
	mov	edx, DWORD PTR _x$[ebp]
	mov	DWORD PTR [ecx], edx
	mov	eax, DWORD PTR ___$ReturnUdt$[ebp]

; 2032 : }

	pop	ebp
	ret	0
??$MakeDelegate@VCvGame@@V1@HPBDH@fastdelegate@@YA?AV?$FastDelegate2@HPBDH@0@PAVCvGame@@P82@AEHHPBD@Z@Z ENDP ; fastdelegate::MakeDelegate<CvGame,CvGame,int,char const *,int>
_TEXT	ENDS
PUBLIC	??$_Stable_sort@V?$_Vector_iterator@ULeaderWithNumTechs@@V?$allocator@ULeaderWithNumTechs@@@std@@@std@@HULeaderWithNumTechs@@ULeaderWithNumTechsEval@@@std@@YAXV?$_Vector_iterator@ULeaderWithNumTechs@@V?$allocator@ULeaderWithNumTechs@@@std@@@0@0PAHPAULeaderWithNumTechs@@ULeaderWithNumTechsEval@@@Z ; std::_Stable_sort<std::_Vector_iterator<LeaderWithNumTechs,std::allocator<LeaderWithNumTechs> >,int,LeaderWithNumTechs,LeaderWithNumTechsEval>
; Function compile flags: /Odtp
; File c:\program files (x86)\microsoft visual studio 9.0\vc\include\algorithm
;	COMDAT ??$stable_sort@V?$_Vector_iterator@ULeaderWithNumTechs@@V?$allocator@ULeaderWithNumTechs@@@std@@@std@@ULeaderWithNumTechsEval@@@std@@YAXV?$_Vector_iterator@ULeaderWithNumTechs@@V?$allocator@ULeaderWithNumTechs@@@std@@@0@0ULeaderWithNumTechsEval@@@Z
_TEXT	SEGMENT
__First$ = 8						; size = 4
__Last$ = 12						; size = 4
__Pred$ = 16						; size = 1
??$stable_sort@V?$_Vector_iterator@ULeaderWithNumTechs@@V?$allocator@ULeaderWithNumTechs@@@std@@@std@@ULeaderWithNumTechsEval@@@std@@YAXV?$_Vector_iterator@ULeaderWithNumTechs@@V?$allocator@ULeaderWithNumTechs@@@std@@@0@0ULeaderWithNumTechsEval@@@Z PROC ; std::stable_sort<std::_Vector_iterator<LeaderWithNumTechs,std::allocator<LeaderWithNumTechs> >,LeaderWithNumTechsEval>, COMDAT

; 3570 : 	{	// sort preserving order of equivalents, using _Pred

	push	ebp
	mov	ebp, esp
	sub	esp, 108				; 0000006cH

; 3571 : 	_DEBUG_RANGE(_First, _Last);
; 3572 : 	_DEBUG_POINTER(_Pred);
; 3573 : 	if (_First != _Last)

	mov	eax, DWORD PTR __First$[ebp]
	xor	ecx, ecx
	cmp	eax, DWORD PTR __Last$[ebp]
	sete	cl
	movzx	edx, cl
	neg	edx
	sbb	edx, edx
	add	edx, 1
	movzx	eax, dl
	test	eax, eax
	je	SHORT $LN2@stable_sor

; 3574 : 		{
; 3575 : 		_Stable_sort(_CHECKED_BASE(_First), _CHECKED_BASE(_Last),
; 3576 : 			_Dist_type(_First), _Val_type(_First), _Pred);

	movzx	ecx, BYTE PTR __Pred$[ebp]
	push	ecx
	push	0
	push	0
	mov	edx, DWORD PTR __Last$[ebp]
	push	edx
	mov	eax, DWORD PTR __First$[ebp]
	push	eax
	call	??$_Stable_sort@V?$_Vector_iterator@ULeaderWithNumTechs@@V?$allocator@ULeaderWithNumTechs@@@std@@@std@@HULeaderWithNumTechs@@ULeaderWithNumTechsEval@@@std@@YAXV?$_Vector_iterator@ULeaderWithNumTechs@@V?$allocator@ULeaderWithNumTechs@@@std@@@0@0PAHPAULeaderWithNumTechs@@ULeaderWithNumTechsEval@@@Z ; std::_Stable_sort<std::_Vector_iterator<LeaderWithNumTechs,std::allocator<LeaderWithNumTechs> >,int,LeaderWithNumTechs,LeaderWithNumTechsEval>
	add	esp, 20					; 00000014H
$LN2@stable_sor:

; 3577 : 		}
; 3578 : 	}

	mov	esp, ebp
	pop	ebp
	ret	0
??$stable_sort@V?$_Vector_iterator@ULeaderWithNumTechs@@V?$allocator@ULeaderWithNumTechs@@@std@@@std@@ULeaderWithNumTechsEval@@@std@@YAXV?$_Vector_iterator@ULeaderWithNumTechs@@V?$allocator@ULeaderWithNumTechs@@@std@@@0@0ULeaderWithNumTechsEval@@@Z ENDP ; std::stable_sort<std::_Vector_iterator<LeaderWithNumTechs,std::allocator<LeaderWithNumTechs> >,LeaderWithNumTechsEval>
_TEXT	ENDS
PUBLIC	__TI2?AVbad_alloc@std@@
PUBLIC	??_7bad_alloc@std@@6B@				; std::bad_alloc::`vftable'
PUBLIC	??1bad_alloc@std@@UAE@XZ			; std::bad_alloc::~bad_alloc
PUBLIC	__CTA2?AVbad_alloc@std@@
PUBLIC	__CT??_R0?AVbad_alloc@std@@@8??0bad_alloc@std@@QAE@ABV01@@Z12
PUBLIC	??_R0?AVbad_alloc@std@@@8			; std::bad_alloc `RTTI Type Descriptor'
PUBLIC	??0bad_alloc@std@@QAE@ABV01@@Z			; std::bad_alloc::bad_alloc
EXTRN	??2@YAPAXI@Z:PROC				; operator new
EXTRN	__imp_??0exception@std@@QAE@ABQBD@Z:PROC
EXTRN	??_Ebad_alloc@std@@UAEPAXI@Z:PROC		; std::bad_alloc::`vector deleting destructor'
EXTRN	?what@exception@std@@UBEPBDXZ:PROC		; std::exception::what
;	COMDAT ??_R0?AVbad_alloc@std@@@8
; File c:\program files (x86)\microsoft visual studio 9.0\vc\include\exception
_DATA	SEGMENT
??_R0?AVbad_alloc@std@@@8 DD FLAT:??_7type_info@@6B@	; std::bad_alloc `RTTI Type Descriptor'
	DD	00H
	DB	'.?AVbad_alloc@std@@', 00H
_DATA	ENDS
;	COMDAT __CT??_R0?AVbad_alloc@std@@@8??0bad_alloc@std@@QAE@ABV01@@Z12
xdata$x	SEGMENT
__CT??_R0?AVbad_alloc@std@@@8??0bad_alloc@std@@QAE@ABV01@@Z12 DD 00H
	DD	FLAT:??_R0?AVbad_alloc@std@@@8
	DD	00H
	DD	0ffffffffH
	ORG $+4
	DD	0cH
	DD	FLAT:??0bad_alloc@std@@QAE@ABV01@@Z
xdata$x	ENDS
;	COMDAT __CTA2?AVbad_alloc@std@@
xdata$x	SEGMENT
__CTA2?AVbad_alloc@std@@ DD 02H
	DD	FLAT:__CT??_R0?AVbad_alloc@std@@@8??0bad_alloc@std@@QAE@ABV01@@Z12
	DD	FLAT:__CT??_R0?AVexception@std@@@8??0exception@std@@QAE@ABV01@@Z12
xdata$x	ENDS
;	COMDAT __TI2?AVbad_alloc@std@@
xdata$x	SEGMENT
__TI2?AVbad_alloc@std@@ DD 00H
	DD	FLAT:??1bad_alloc@std@@UAE@XZ
	DD	00H
	DD	FLAT:__CTA2?AVbad_alloc@std@@
xdata$x	ENDS
;	COMDAT ??_7bad_alloc@std@@6B@
CONST	SEGMENT
??_7bad_alloc@std@@6B@ DD FLAT:??_Ebad_alloc@std@@UAEPAXI@Z ; std::bad_alloc::`vftable'
	DD	FLAT:?what@exception@std@@UBEPBDXZ
; Function compile flags: /Odtp
; File c:\program files (x86)\microsoft visual studio 9.0\vc\include\xmemory
CONST	ENDS
;	COMDAT ??$_Allocate@ULeaderWithNumTechs@@@std@@YAPAULeaderWithNumTechs@@IPAU1@@Z
_TEXT	SEGMENT
$T224319 = -16						; size = 4
$T224315 = -12						; size = 12
__Count$ = 8						; size = 4
___formal$ = 12						; size = 4
??$_Allocate@ULeaderWithNumTechs@@@std@@YAPAULeaderWithNumTechs@@IPAU1@@Z PROC ; std::_Allocate<LeaderWithNumTechs>, COMDAT

; 36   : 	{	// check for integer overflow

	push	ebp
	mov	ebp, esp
	sub	esp, 16					; 00000010H

; 37   : 	if (_Count <= 0)

	cmp	DWORD PTR __Count$[ebp], 0
	ja	SHORT $LN3@Allocate

; 38   : 		_Count = 0;

	mov	DWORD PTR __Count$[ebp], 0
	jmp	SHORT $LN2@Allocate
$LN3@Allocate:

; 39   : 	else if (((_SIZT)(-1) / _Count) < sizeof (_Ty))

	or	eax, -1
	xor	edx, edx
	div	DWORD PTR __Count$[ebp]
	cmp	eax, 8
	jae	SHORT $LN2@Allocate

; 40   : 		_THROW_NCEE(std::bad_alloc, NULL);

	mov	DWORD PTR $T224319[ebp], 0
	lea	eax, DWORD PTR $T224319[ebp]
	push	eax
	lea	ecx, DWORD PTR $T224315[ebp]
	call	DWORD PTR __imp_??0exception@std@@QAE@ABQBD@Z
	mov	DWORD PTR $T224315[ebp], OFFSET ??_7bad_alloc@std@@6B@
	push	OFFSET __TI2?AVbad_alloc@std@@
	lea	ecx, DWORD PTR $T224315[ebp]
	push	ecx
	call	__CxxThrowException@8
$LN2@Allocate:

; 41   : 
; 42   : 		// allocate storage for _Count elements of type _Ty
; 43   : 	return ((_Ty _FARQ *)::operator new(_Count * sizeof (_Ty)));

	mov	edx, DWORD PTR __Count$[ebp]
	shl	edx, 3
	push	edx
	call	??2@YAPAXI@Z				; operator new
	add	esp, 4
$LN5@Allocate:

; 44   : 	}

	mov	esp, ebp
	pop	ebp
	ret	0
??$_Allocate@ULeaderWithNumTechs@@@std@@YAPAULeaderWithNumTechs@@IPAU1@@Z ENDP ; std::_Allocate<LeaderWithNumTechs>
; Function compile flags: /Odtp
; File c:\program files (x86)\microsoft visual studio 9.0\vc\include\exception
_TEXT	ENDS
;	COMDAT ??1bad_alloc@std@@UAE@XZ
_TEXT	SEGMENT
_this$ = -4						; size = 4
??1bad_alloc@std@@UAE@XZ PROC				; std::bad_alloc::~bad_alloc, COMDAT
; _this$ = ecx

; 380  : 		{	// destroy the object

	push	ebp
	mov	ebp, esp
	push	ecx
	mov	DWORD PTR _this$[ebp], ecx
	mov	eax, DWORD PTR _this$[ebp]
	mov	DWORD PTR [eax], OFFSET ??_7bad_alloc@std@@6B@

; 381  : 		}

	mov	ecx, DWORD PTR _this$[ebp]
	call	DWORD PTR __imp_??1exception@std@@UAE@XZ
	mov	esp, ebp
	pop	ebp
	ret	0
??1bad_alloc@std@@UAE@XZ ENDP				; std::bad_alloc::~bad_alloc
; Function compile flags: /Odtp
_TEXT	ENDS
;	COMDAT ??_Gbad_alloc@std@@UAEPAXI@Z
_TEXT	SEGMENT
_this$ = -4						; size = 4
___flags$ = 8						; size = 4
??_Gbad_alloc@std@@UAEPAXI@Z PROC			; std::bad_alloc::`scalar deleting destructor', COMDAT
; _this$ = ecx
	push	ebp
	mov	ebp, esp
	push	ecx
	mov	DWORD PTR _this$[ebp], ecx
	mov	eax, DWORD PTR _this$[ebp]
	mov	DWORD PTR [eax], OFFSET ??_7bad_alloc@std@@6B@
	mov	ecx, DWORD PTR _this$[ebp]
	call	DWORD PTR __imp_??1exception@std@@UAE@XZ
	mov	ecx, DWORD PTR ___flags$[ebp]
	and	ecx, 1
	je	SHORT $LN1@scalar@3
	mov	edx, DWORD PTR _this$[ebp]
	push	edx
	call	??3@YAXPAX@Z				; operator delete
	add	esp, 4
$LN1@scalar@3:
	mov	eax, DWORD PTR _this$[ebp]
	mov	esp, ebp
	pop	ebp
	ret	4
??_Gbad_alloc@std@@UAEPAXI@Z ENDP			; std::bad_alloc::`scalar deleting destructor'
_TEXT	ENDS
PUBLIC	??1?$_Temp_iterator@ULeaderWithNumTechs@@@std@@QAE@XZ ; std::_Temp_iterator<LeaderWithNumTechs>::~_Temp_iterator<LeaderWithNumTechs>
PUBLIC	??$_Stable_sort@V?$_Vector_iterator@ULeaderWithNumTechs@@V?$allocator@ULeaderWithNumTechs@@@std@@@std@@HULeaderWithNumTechs@@ULeaderWithNumTechsEval@@@std@@YAXV?$_Vector_iterator@ULeaderWithNumTechs@@V?$allocator@ULeaderWithNumTechs@@@std@@@0@0HAAV?$_Temp_iterator@ULeaderWithNumTechs@@@0@ULeaderWithNumTechsEval@@@Z ; std::_Stable_sort<std::_Vector_iterator<LeaderWithNumTechs,std::allocator<LeaderWithNumTechs> >,int,LeaderWithNumTechs,LeaderWithNumTechsEval>
;	COMDAT xdata$x
; File c:\program files (x86)\microsoft visual studio 9.0\vc\include\memory
xdata$x	SEGMENT
__unwindtable$??$_Stable_sort@V?$_Vector_iterator@ULeaderWithNumTechs@@V?$allocator@ULeaderWithNumTechs@@@std@@@std@@HULeaderWithNumTechs@@ULeaderWithNumTechsEval@@@std@@YAXV?$_Vector_iterator@ULeaderWithNumTechs@@V?$allocator@ULeaderWithNumTechs@@@std@@@0@0PAHPAULeaderWithNumTechs@@ULeaderWithNumTechsEval@@@Z DD 0ffffffffH
	DD	FLAT:__unwindfunclet$??$_Stable_sort@V?$_Vector_iterator@ULeaderWithNumTechs@@V?$allocator@ULeaderWithNumTechs@@@std@@@std@@HULeaderWithNumTechs@@ULeaderWithNumTechsEval@@@std@@YAXV?$_Vector_iterator@ULeaderWithNumTechs@@V?$allocator@ULeaderWithNumTechs@@@std@@@0@0PAHPAULeaderWithNumTechs@@ULeaderWithNumTechsEval@@@Z$0
__ehfuncinfo$??$_Stable_sort@V?$_Vector_iterator@ULeaderWithNumTechs@@V?$allocator@ULeaderWithNumTechs@@@std@@@std@@HULeaderWithNumTechs@@ULeaderWithNumTechsEval@@@std@@YAXV?$_Vector_iterator@ULeaderWithNumTechs@@V?$allocator@ULeaderWithNumTechs@@@std@@@0@0PAHPAULeaderWithNumTechs@@ULeaderWithNumTechsEval@@@Z DD 019930522H
	DD	01H
	DD	FLAT:__unwindtable$??$_Stable_sort@V?$_Vector_iterator@ULeaderWithNumTechs@@V?$allocator@ULeaderWithNumTechs@@@std@@@std@@HULeaderWithNumTechs@@ULeaderWithNumTechsEval@@@std@@YAXV?$_Vector_iterator@ULeaderWithNumTechs@@V?$allocator@ULeaderWithNumTechs@@@std@@@0@0PAHPAULeaderWithNumTechs@@ULeaderWithNumTechsEval@@@Z
	DD	2 DUP(00H)
	DD	2 DUP(00H)
	DD	00H
	DD	01H
; Function compile flags: /Odtp
; File c:\program files (x86)\microsoft visual studio 9.0\vc\include\algorithm
xdata$x	ENDS
;	COMDAT ??$_Stable_sort@V?$_Vector_iterator@ULeaderWithNumTechs@@V?$allocator@ULeaderWithNumTechs@@@std@@@std@@HULeaderWithNumTechs@@ULeaderWithNumTechsEval@@@std@@YAXV?$_Vector_iterator@ULeaderWithNumTechs@@V?$allocator@ULeaderWithNumTechs@@@std@@@0@0PAHPAULeaderWithNumTechs@@ULeaderWithNumTechsEval@@@Z
_TEXT	SEGMENT
$T224484 = -120						; size = 4
__Next$224487 = -116					; size = 4
$T224369 = -56						; size = 4
$T224365 = -52						; size = 4
$T224352 = -48						; size = 4
$T224351 = -44						; size = 4
__Tempbuf$ = -36					; size = 20
__Count$ = -16						; size = 4
__$EHRec$ = -12						; size = 12
__First$ = 8						; size = 4
__Last$ = 12						; size = 4
___formal$ = 16						; size = 4
___formal$ = 20						; size = 4
__Pred$ = 24						; size = 1
??$_Stable_sort@V?$_Vector_iterator@ULeaderWithNumTechs@@V?$allocator@ULeaderWithNumTechs@@@std@@@std@@HULeaderWithNumTechs@@ULeaderWithNumTechsEval@@@std@@YAXV?$_Vector_iterator@ULeaderWithNumTechs@@V?$allocator@ULeaderWithNumTechs@@@std@@@0@0PAHPAULeaderWithNumTechs@@ULeaderWithNumTechsEval@@@Z PROC ; std::_Stable_sort<std::_Vector_iterator<LeaderWithNumTechs,std::allocator<LeaderWithNumTechs> >,int,LeaderWithNumTechs,LeaderWithNumTechsEval>, COMDAT

; 3560 : 	{	// sort preserving order of equivalents, using _Pred

	push	ebp
	mov	ebp, esp
	push	-1
	push	__ehhandler$??$_Stable_sort@V?$_Vector_iterator@ULeaderWithNumTechs@@V?$allocator@ULeaderWithNumTechs@@@std@@@std@@HULeaderWithNumTechs@@ULeaderWithNumTechsEval@@@std@@YAXV?$_Vector_iterator@ULeaderWithNumTechs@@V?$allocator@ULeaderWithNumTechs@@@std@@@0@0PAHPAULeaderWithNumTechs@@ULeaderWithNumTechsEval@@@Z
	mov	eax, DWORD PTR fs:0
	push	eax
	sub	esp, 108				; 0000006cH
	mov	eax, DWORD PTR ___security_cookie
	xor	eax, ebp
	push	eax
	lea	eax, DWORD PTR __$EHRec$[ebp]
	mov	DWORD PTR fs:0, eax

; 3561 : 	_Diff _Count = 0;

	mov	DWORD PTR __Count$[ebp], 0

; 3562 : 	_Distance(_First, _Last, _Count);

	mov	eax, DWORD PTR __First$[ebp]
	mov	DWORD PTR $T224365[ebp], eax
	mov	ecx, DWORD PTR __Last$[ebp]
	mov	DWORD PTR $T224352[ebp], ecx
	mov	edx, DWORD PTR $T224365[ebp]
	mov	DWORD PTR $T224351[ebp], edx
	mov	eax, DWORD PTR $T224352[ebp]
	sub	eax, DWORD PTR $T224351[ebp]
	sar	eax, 3
	add	eax, DWORD PTR __Count$[ebp]
	mov	DWORD PTR __Count$[ebp], eax

; 3563 : 	_Temp_iterator<_Ty> _Tempbuf((_Count + 1) / 2);

	mov	eax, DWORD PTR __Count$[ebp]
	add	eax, 1
	cdq
	sub	eax, edx
	sar	eax, 1
	mov	DWORD PTR $T224369[ebp], eax
	mov	DWORD PTR __Tempbuf$[ebp], 0
	mov	DWORD PTR __Tempbuf$[ebp+4], 0
	mov	DWORD PTR __Tempbuf$[ebp+8], 0
	mov	ecx, DWORD PTR $T224369[ebp]
	mov	DWORD PTR __Tempbuf$[ebp+12], ecx
	lea	edx, DWORD PTR __Tempbuf$[ebp]
	mov	DWORD PTR __Tempbuf$[ebp+16], edx
	mov	DWORD PTR __$EHRec$[ebp+8], 0

; 3564 : 	_Stable_sort(_First, _Last, _Count, _Tempbuf, _Pred);

	movzx	eax, BYTE PTR __Pred$[ebp]
	push	eax
	lea	ecx, DWORD PTR __Tempbuf$[ebp]
	push	ecx
	mov	edx, DWORD PTR __Count$[ebp]
	push	edx
	mov	eax, DWORD PTR __Last$[ebp]
	push	eax
	mov	ecx, DWORD PTR __First$[ebp]
	push	ecx
	call	??$_Stable_sort@V?$_Vector_iterator@ULeaderWithNumTechs@@V?$allocator@ULeaderWithNumTechs@@@std@@@std@@HULeaderWithNumTechs@@ULeaderWithNumTechsEval@@@std@@YAXV?$_Vector_iterator@ULeaderWithNumTechs@@V?$allocator@ULeaderWithNumTechs@@@std@@@0@0HAAV?$_Temp_iterator@ULeaderWithNumTechs@@@0@ULeaderWithNumTechsEval@@@Z ; std::_Stable_sort<std::_Vector_iterator<LeaderWithNumTechs,std::allocator<LeaderWithNumTechs> >,int,LeaderWithNumTechs,LeaderWithNumTechsEval>
	add	esp, 20					; 00000014H

; 3565 : 	}

	mov	DWORD PTR __$EHRec$[ebp+8], -1
	cmp	DWORD PTR __Tempbuf$[ebp], 0
	je	SHORT $LN1@Stable_sor
	mov	edx, DWORD PTR __Tempbuf$[ebp]
	mov	DWORD PTR __Next$224487[ebp], edx
	jmp	SHORT $LN74@Stable_sor
$LN73@Stable_sor:
	mov	eax, DWORD PTR __Next$224487[ebp]
	add	eax, 8
	mov	DWORD PTR __Next$224487[ebp], eax
$LN74@Stable_sor:
	mov	ecx, DWORD PTR __Next$224487[ebp]
	cmp	ecx, DWORD PTR __Tempbuf$[ebp+8]
	je	SHORT $LN72@Stable_sor
	jmp	SHORT $LN73@Stable_sor
$LN72@Stable_sor:
	mov	edx, DWORD PTR __Tempbuf$[ebp]
	mov	DWORD PTR $T224484[ebp], edx
	mov	eax, DWORD PTR $T224484[ebp]
	push	eax
	call	??3@YAXPAX@Z				; operator delete
	add	esp, 4
$LN1@Stable_sor:
	mov	ecx, DWORD PTR __$EHRec$[ebp]
	mov	DWORD PTR fs:0, ecx
	pop	ecx
	mov	esp, ebp
	pop	ebp
	ret	0
_TEXT	ENDS
;	COMDAT text$x
text$x	SEGMENT
__unwindfunclet$??$_Stable_sort@V?$_Vector_iterator@ULeaderWithNumTechs@@V?$allocator@ULeaderWithNumTechs@@@std@@@std@@HULeaderWithNumTechs@@ULeaderWithNumTechsEval@@@std@@YAXV?$_Vector_iterator@ULeaderWithNumTechs@@V?$allocator@ULeaderWithNumTechs@@@std@@@0@0PAHPAULeaderWithNumTechs@@ULeaderWithNumTechsEval@@@Z$0:
	lea	ecx, DWORD PTR __Tempbuf$[ebp]
	jmp	??1?$_Temp_iterator@ULeaderWithNumTechs@@@std@@QAE@XZ ; std::_Temp_iterator<LeaderWithNumTechs>::~_Temp_iterator<LeaderWithNumTechs>
__ehhandler$??$_Stable_sort@V?$_Vector_iterator@ULeaderWithNumTechs@@V?$allocator@ULeaderWithNumTechs@@@std@@@std@@HULeaderWithNumTechs@@ULeaderWithNumTechsEval@@@std@@YAXV?$_Vector_iterator@ULeaderWithNumTechs@@V?$allocator@ULeaderWithNumTechs@@@std@@@0@0PAHPAULeaderWithNumTechs@@ULeaderWithNumTechsEval@@@Z:
	mov	edx, DWORD PTR [esp+8]
	lea	eax, DWORD PTR [edx+12]
	mov	ecx, DWORD PTR [edx-112]
	xor	ecx, eax
	call	@__security_check_cookie@4
	mov	eax, OFFSET __ehfuncinfo$??$_Stable_sort@V?$_Vector_iterator@ULeaderWithNumTechs@@V?$allocator@ULeaderWithNumTechs@@@std@@@std@@HULeaderWithNumTechs@@ULeaderWithNumTechsEval@@@std@@YAXV?$_Vector_iterator@ULeaderWithNumTechs@@V?$allocator@ULeaderWithNumTechs@@@std@@@0@0PAHPAULeaderWithNumTechs@@ULeaderWithNumTechsEval@@@Z
	jmp	___CxxFrameHandler3
text$x	ENDS
??$_Stable_sort@V?$_Vector_iterator@ULeaderWithNumTechs@@V?$allocator@ULeaderWithNumTechs@@@std@@@std@@HULeaderWithNumTechs@@ULeaderWithNumTechsEval@@@std@@YAXV?$_Vector_iterator@ULeaderWithNumTechs@@V?$allocator@ULeaderWithNumTechs@@@std@@@0@0PAHPAULeaderWithNumTechs@@ULeaderWithNumTechsEval@@@Z ENDP ; std::_Stable_sort<std::_Vector_iterator<LeaderWithNumTechs,std::allocator<LeaderWithNumTechs> >,int,LeaderWithNumTechs,LeaderWithNumTechsEval>
PUBLIC	??$_Insertion_sort1@PAUWeightedElement@?$CvWeightedVector@H$0FA@$00@@U12@@std@@YAXPAUWeightedElement@?$CvWeightedVector@H$0FA@$00@@00@Z ; std::_Insertion_sort1<CvWeightedVector<int,80,1>::WeightedElement *,CvWeightedVector<int,80,1>::WeightedElement>
PUBLIC	??$_Pop_heap_0@PAUWeightedElement@?$CvWeightedVector@H$0FA@$00@@U12@@std@@YAXPAUWeightedElement@?$CvWeightedVector@H$0FA@$00@@00@Z ; std::_Pop_heap_0<CvWeightedVector<int,80,1>::WeightedElement *,CvWeightedVector<int,80,1>::WeightedElement>
PUBLIC	??$_Make_heap@PAUWeightedElement@?$CvWeightedVector@H$0FA@$00@@HU12@@std@@YAXPAUWeightedElement@?$CvWeightedVector@H$0FA@$00@@0PAH0@Z ; std::_Make_heap<CvWeightedVector<int,80,1>::WeightedElement *,int,CvWeightedVector<int,80,1>::WeightedElement>
PUBLIC	??$_Unguarded_partition@PAUWeightedElement@?$CvWeightedVector@H$0FA@$00@@@std@@YA?AU?$pair@PAUWeightedElement@?$CvWeightedVector@H$0FA@$00@@PAU12@@0@PAUWeightedElement@?$CvWeightedVector@H$0FA@$00@@0@Z ; std::_Unguarded_partition<CvWeightedVector<int,80,1>::WeightedElement *>
; Function compile flags: /Odtp
;	COMDAT ??$_Sort@PAUWeightedElement@?$CvWeightedVector@H$0FA@$00@@H@std@@YAXPAUWeightedElement@?$CvWeightedVector@H$0FA@$00@@0H@Z
_TEXT	SEGMENT
$T224628 = -128						; size = 4
__Mid$219122 = -12					; size = 8
__Count$ = -4						; size = 4
__First$ = 8						; size = 4
__Last$ = 12						; size = 4
__Ideal$ = 16						; size = 4
??$_Sort@PAUWeightedElement@?$CvWeightedVector@H$0FA@$00@@H@std@@YAXPAUWeightedElement@?$CvWeightedVector@H$0FA@$00@@0H@Z PROC ; std::_Sort<CvWeightedVector<int,80,1>::WeightedElement *,int>, COMDAT

; 3082 : 	{	// order [_First, _Last), using operator<

	push	ebp
	mov	ebp, esp
	sub	esp, 180				; 000000b4H
$LN7@Sort:

; 3083 : 	_Diff _Count;
; 3084 : 	for (; _ISORT_MAX < (_Count = _Last - _First) && 0 < _Ideal; )

	mov	eax, DWORD PTR __Last$[ebp]
	sub	eax, DWORD PTR __First$[ebp]
	sar	eax, 3
	mov	DWORD PTR __Count$[ebp], eax
	cmp	DWORD PTR __Count$[ebp], 32		; 00000020H
	jle	$LN6@Sort
	cmp	DWORD PTR __Ideal$[ebp], 0
	jle	SHORT $LN6@Sort

; 3085 : 		{	// divide and conquer by quicksort
; 3086 : 		pair<_RanIt, _RanIt> _Mid =
; 3087 : 			std::_Unguarded_partition(_First, _Last);

	mov	ecx, DWORD PTR __Last$[ebp]
	push	ecx
	mov	edx, DWORD PTR __First$[ebp]
	push	edx
	lea	eax, DWORD PTR __Mid$219122[ebp]
	push	eax
	call	??$_Unguarded_partition@PAUWeightedElement@?$CvWeightedVector@H$0FA@$00@@@std@@YA?AU?$pair@PAUWeightedElement@?$CvWeightedVector@H$0FA@$00@@PAU12@@0@PAUWeightedElement@?$CvWeightedVector@H$0FA@$00@@0@Z ; std::_Unguarded_partition<CvWeightedVector<int,80,1>::WeightedElement *>
	add	esp, 12					; 0000000cH

; 3088 : 		_Ideal /= 2, _Ideal += _Ideal / 2;	// allow 1.5 log2(N) divisions

	mov	eax, DWORD PTR __Ideal$[ebp]
	cdq
	sub	eax, edx
	sar	eax, 1
	mov	DWORD PTR __Ideal$[ebp], eax
	mov	eax, DWORD PTR __Ideal$[ebp]
	cdq
	sub	eax, edx
	sar	eax, 1
	add	eax, DWORD PTR __Ideal$[ebp]
	mov	DWORD PTR __Ideal$[ebp], eax

; 3089 : 
; 3090 : 		if (_Mid.first - _First < _Last - _Mid.second)

	mov	ecx, DWORD PTR __Mid$219122[ebp]
	sub	ecx, DWORD PTR __First$[ebp]
	sar	ecx, 3
	mov	edx, DWORD PTR __Last$[ebp]
	sub	edx, DWORD PTR __Mid$219122[ebp+4]
	sar	edx, 3
	cmp	ecx, edx
	jge	SHORT $LN5@Sort

; 3091 : 			{	// loop on second half
; 3092 : 			std::_Sort(_First, _Mid.first, _Ideal);

	mov	eax, DWORD PTR __Ideal$[ebp]
	push	eax
	mov	ecx, DWORD PTR __Mid$219122[ebp]
	push	ecx
	mov	edx, DWORD PTR __First$[ebp]
	push	edx
	call	??$_Sort@PAUWeightedElement@?$CvWeightedVector@H$0FA@$00@@H@std@@YAXPAUWeightedElement@?$CvWeightedVector@H$0FA@$00@@0H@Z ; std::_Sort<CvWeightedVector<int,80,1>::WeightedElement *,int>
	add	esp, 12					; 0000000cH

; 3093 : 			_First = _Mid.second;

	mov	eax, DWORD PTR __Mid$219122[ebp+4]
	mov	DWORD PTR __First$[ebp], eax

; 3094 : 			}
; 3095 : 		else

	jmp	SHORT $LN4@Sort
$LN5@Sort:

; 3096 : 			{	// loop on first half
; 3097 : 			std::_Sort(_Mid.second, _Last, _Ideal);

	mov	ecx, DWORD PTR __Ideal$[ebp]
	push	ecx
	mov	edx, DWORD PTR __Last$[ebp]
	push	edx
	mov	eax, DWORD PTR __Mid$219122[ebp+4]
	push	eax
	call	??$_Sort@PAUWeightedElement@?$CvWeightedVector@H$0FA@$00@@H@std@@YAXPAUWeightedElement@?$CvWeightedVector@H$0FA@$00@@0H@Z ; std::_Sort<CvWeightedVector<int,80,1>::WeightedElement *,int>
	add	esp, 12					; 0000000cH

; 3098 : 			_Last = _Mid.first;

	mov	ecx, DWORD PTR __Mid$219122[ebp]
	mov	DWORD PTR __Last$[ebp], ecx
$LN4@Sort:

; 3099 : 			}
; 3100 : 		}

	jmp	$LN7@Sort
$LN6@Sort:

; 3101 : 
; 3102 : 	if (_ISORT_MAX < _Count)

	cmp	DWORD PTR __Count$[ebp], 32		; 00000020H
	jle	SHORT $LN3@Sort

; 3103 : 		{	// heap sort if too many divisions
; 3104 : 		std::make_heap(_First, _Last);

	mov	edx, DWORD PTR __Last$[ebp]
	sub	edx, DWORD PTR __First$[ebp]
	sar	edx, 3
	cmp	edx, 1
	jle	SHORT $LN76@Sort
	push	0
	push	0
	mov	eax, DWORD PTR __Last$[ebp]
	push	eax
	mov	ecx, DWORD PTR __First$[ebp]
	push	ecx
	call	??$_Make_heap@PAUWeightedElement@?$CvWeightedVector@H$0FA@$00@@HU12@@std@@YAXPAUWeightedElement@?$CvWeightedVector@H$0FA@$00@@0PAH0@Z ; std::_Make_heap<CvWeightedVector<int,80,1>::WeightedElement *,int,CvWeightedVector<int,80,1>::WeightedElement>
	add	esp, 16					; 00000010H
$LN76@Sort:

; 3105 : 		std::sort_heap(_First, _Last);

	mov	edx, DWORD PTR __Last$[ebp]
	mov	DWORD PTR $T224628[ebp], edx
	jmp	SHORT $LN92@Sort
$LN91@Sort:
	mov	eax, DWORD PTR $T224628[ebp]
	sub	eax, 8
	mov	DWORD PTR $T224628[ebp], eax
$LN92@Sort:
	mov	ecx, DWORD PTR $T224628[ebp]
	sub	ecx, DWORD PTR __First$[ebp]
	sar	ecx, 3
	cmp	ecx, 1
	jle	SHORT $LN88@Sort
	mov	edx, DWORD PTR $T224628[ebp]
	sub	edx, DWORD PTR __First$[ebp]
	sar	edx, 3
	cmp	edx, 1
	jle	SHORT $LN96@Sort
	push	0
	mov	eax, DWORD PTR $T224628[ebp]
	push	eax
	mov	ecx, DWORD PTR __First$[ebp]
	push	ecx
	call	??$_Pop_heap_0@PAUWeightedElement@?$CvWeightedVector@H$0FA@$00@@U12@@std@@YAXPAUWeightedElement@?$CvWeightedVector@H$0FA@$00@@00@Z ; std::_Pop_heap_0<CvWeightedVector<int,80,1>::WeightedElement *,CvWeightedVector<int,80,1>::WeightedElement>
	add	esp, 12					; 0000000cH
$LN96@Sort:
	jmp	SHORT $LN91@Sort
$LN88@Sort:

; 3106 : 		}
; 3107 : 	else if (1 < _Count)

	jmp	SHORT $LN8@Sort
$LN3@Sort:
	cmp	DWORD PTR __Count$[ebp], 1
	jle	SHORT $LN8@Sort

; 3108 : 		std::_Insertion_sort(_First, _Last);	// small

	push	0
	mov	edx, DWORD PTR __Last$[ebp]
	push	edx
	mov	eax, DWORD PTR __First$[ebp]
	push	eax
	call	??$_Insertion_sort1@PAUWeightedElement@?$CvWeightedVector@H$0FA@$00@@U12@@std@@YAXPAUWeightedElement@?$CvWeightedVector@H$0FA@$00@@00@Z ; std::_Insertion_sort1<CvWeightedVector<int,80,1>::WeightedElement *,CvWeightedVector<int,80,1>::WeightedElement>
	add	esp, 12					; 0000000cH
$LN8@Sort:

; 3109 : 	}

	mov	esp, ebp
	pop	ebp
	ret	0
??$_Sort@PAUWeightedElement@?$CvWeightedVector@H$0FA@$00@@H@std@@YAXPAUWeightedElement@?$CvWeightedVector@H$0FA@$00@@0H@Z ENDP ; std::_Sort<CvWeightedVector<int,80,1>::WeightedElement *,int>
_TEXT	ENDS
;	COMDAT xdata$x
; File c:\program files (x86)\microsoft visual studio 9.0\vc\include\xmemory
xdata$x	SEGMENT
__catchsym$??$_Uninit_fill_n@PAULeaderWithNumTechs@@IU1@V?$allocator@ULeaderWithNumTechs@@@std@@@std@@YAXPAULeaderWithNumTechs@@IABU1@AAV?$allocator@ULeaderWithNumTechs@@@0@U_Nonscalar_ptr_iterator_tag@0@U_Range_checked_iterator_tag@0@@Z$2 DD 040H
	DD	00H
	DD	00H
	DD	FLAT:__catch$??$_Uninit_fill_n@PAULeaderWithNumTechs@@IU1@V?$allocator@ULeaderWithNumTechs@@@std@@@std@@YAXPAULeaderWithNumTechs@@IABU1@AAV?$allocator@ULeaderWithNumTechs@@@0@U_Nonscalar_ptr_iterator_tag@0@U_Range_checked_iterator_tag@0@@Z$0
__unwindtable$??$_Uninit_fill_n@PAULeaderWithNumTechs@@IU1@V?$allocator@ULeaderWithNumTechs@@@std@@@std@@YAXPAULeaderWithNumTechs@@IABU1@AAV?$allocator@ULeaderWithNumTechs@@@0@U_Nonscalar_ptr_iterator_tag@0@U_Range_checked_iterator_tag@0@@Z DD 0ffffffffH
	DD	00H
	DD	0ffffffffH
	DD	00H
__tryblocktable$??$_Uninit_fill_n@PAULeaderWithNumTechs@@IU1@V?$allocator@ULeaderWithNumTechs@@@std@@@std@@YAXPAULeaderWithNumTechs@@IABU1@AAV?$allocator@ULeaderWithNumTechs@@@0@U_Nonscalar_ptr_iterator_tag@0@U_Range_checked_iterator_tag@0@@Z DD 00H
	DD	00H
	DD	01H
	DD	01H
	DD	FLAT:__catchsym$??$_Uninit_fill_n@PAULeaderWithNumTechs@@IU1@V?$allocator@ULeaderWithNumTechs@@@std@@@std@@YAXPAULeaderWithNumTechs@@IABU1@AAV?$allocator@ULeaderWithNumTechs@@@0@U_Nonscalar_ptr_iterator_tag@0@U_Range_checked_iterator_tag@0@@Z$2
__ehfuncinfo$??$_Uninit_fill_n@PAULeaderWithNumTechs@@IU1@V?$allocator@ULeaderWithNumTechs@@@std@@@std@@YAXPAULeaderWithNumTechs@@IABU1@AAV?$allocator@ULeaderWithNumTechs@@@0@U_Nonscalar_ptr_iterator_tag@0@U_Range_checked_iterator_tag@0@@Z DD 019930522H
	DD	02H
	DD	FLAT:__unwindtable$??$_Uninit_fill_n@PAULeaderWithNumTechs@@IU1@V?$allocator@ULeaderWithNumTechs@@@std@@@std@@YAXPAULeaderWithNumTechs@@IABU1@AAV?$allocator@ULeaderWithNumTechs@@@0@U_Nonscalar_ptr_iterator_tag@0@U_Range_checked_iterator_tag@0@@Z
	DD	01H
	DD	FLAT:__tryblocktable$??$_Uninit_fill_n@PAULeaderWithNumTechs@@IU1@V?$allocator@ULeaderWithNumTechs@@@std@@@std@@YAXPAULeaderWithNumTechs@@IABU1@AAV?$allocator@ULeaderWithNumTechs@@@0@U_Nonscalar_ptr_iterator_tag@0@U_Range_checked_iterator_tag@0@@Z
	DD	2 DUP(00H)
	DD	00H
	DD	01H
; Function compile flags: /Odtp
; File c:\program files (x86)\microsoft visual studio 9.0\vc\include\memory
xdata$x	ENDS
;	COMDAT ??$_Uninit_fill_n@PAULeaderWithNumTechs@@IU1@V?$allocator@ULeaderWithNumTechs@@@std@@@std@@YAXPAULeaderWithNumTechs@@IABU1@AAV?$allocator@ULeaderWithNumTechs@@@0@U_Nonscalar_ptr_iterator_tag@0@U_Range_checked_iterator_tag@0@@Z
_TEXT	SEGMENT
tv84 = -32						; size = 4
$T224725 = -28						; size = 4
__Vptr$224723 = -24					; size = 4
__Next$ = -20						; size = 4
__$EHRec$ = -16						; size = 16
__First$ = 8						; size = 4
__Count$ = 12						; size = 4
__Val$ = 16						; size = 4
__Al$ = 20						; size = 4
___formal$ = 24						; size = 1
___formal$ = 28						; size = 1
??$_Uninit_fill_n@PAULeaderWithNumTechs@@IU1@V?$allocator@ULeaderWithNumTechs@@@std@@@std@@YAXPAULeaderWithNumTechs@@IABU1@AAV?$allocator@ULeaderWithNumTechs@@@0@U_Nonscalar_ptr_iterator_tag@0@U_Range_checked_iterator_tag@0@@Z PROC ; std::_Uninit_fill_n<LeaderWithNumTechs *,unsigned int,LeaderWithNumTechs,std::allocator<LeaderWithNumTechs> >, COMDAT

; 393  : 	{	// copy _Count *_Val to raw _First, using _Al, arbitrary type

	push	ebp
	mov	ebp, esp
	push	-1
	push	__ehhandler$??$_Uninit_fill_n@PAULeaderWithNumTechs@@IU1@V?$allocator@ULeaderWithNumTechs@@@std@@@std@@YAXPAULeaderWithNumTechs@@IABU1@AAV?$allocator@ULeaderWithNumTechs@@@0@U_Nonscalar_ptr_iterator_tag@0@U_Range_checked_iterator_tag@0@@Z
	mov	eax, DWORD PTR fs:0
	push	eax
	push	ecx
	sub	esp, 16					; 00000010H
	push	ebx
	push	esi
	push	edi
	mov	eax, DWORD PTR ___security_cookie
	xor	eax, ebp
	push	eax
	lea	eax, DWORD PTR __$EHRec$[ebp+4]
	mov	DWORD PTR fs:0, eax
	mov	DWORD PTR __$EHRec$[ebp], esp

; 394  : 
; 395  :  #if _HAS_ITERATOR_DEBUGGING
; 396  : //	if (_Count < 0)
; 397  : //		_DEBUG_ERROR("negative count in uninitialized fill");
; 398  :  #endif /* _HAS_ITERATOR_DEBUGGING */
; 399  : 
; 400  : 	_FwdIt _Next = _First;

	mov	eax, DWORD PTR __First$[ebp]
	mov	DWORD PTR __Next$[ebp], eax

; 401  : 
; 402  : 	_TRY_BEGIN

	mov	DWORD PTR __$EHRec$[ebp+12], 0

; 403  : 	for (; 0 < _Count; --_Count, ++_First)

	jmp	SHORT $LN6@Uninit_fil
$LN5@Uninit_fil:
	mov	ecx, DWORD PTR __Count$[ebp]
	sub	ecx, 1
	mov	DWORD PTR __Count$[ebp], ecx
	mov	edx, DWORD PTR __First$[ebp]
	add	edx, 8
	mov	DWORD PTR __First$[ebp], edx
$LN6@Uninit_fil:
	cmp	DWORD PTR __Count$[ebp], 0
	jbe	SHORT $LN4@Uninit_fil

; 404  : 		_Al.construct(_First, _Val);

	mov	eax, DWORD PTR __First$[ebp]
	mov	DWORD PTR __Vptr$224723[ebp], eax
	mov	ecx, DWORD PTR __Vptr$224723[ebp]
	mov	DWORD PTR $T224725[ebp], ecx
	cmp	DWORD PTR $T224725[ebp], 0
	je	SHORT $LN18@Uninit_fil
	mov	edx, DWORD PTR __Val$[ebp]
	mov	eax, DWORD PTR [edx]
	mov	ecx, DWORD PTR [edx+4]
	mov	edx, DWORD PTR $T224725[ebp]
	mov	DWORD PTR [edx], eax
	mov	DWORD PTR [edx+4], ecx
	mov	eax, DWORD PTR $T224725[ebp]
	mov	DWORD PTR tv84[ebp], eax
	jmp	SHORT $LN14@Uninit_fil
$LN18@Uninit_fil:
	mov	DWORD PTR tv84[ebp], 0
$LN14@Uninit_fil:
	jmp	SHORT $LN5@Uninit_fil
$LN4@Uninit_fil:
	jmp	SHORT $LN10@Uninit_fil
__catch$??$_Uninit_fill_n@PAULeaderWithNumTechs@@IU1@V?$allocator@ULeaderWithNumTechs@@@std@@@std@@YAXPAULeaderWithNumTechs@@IABU1@AAV?$allocator@ULeaderWithNumTechs@@@0@U_Nonscalar_ptr_iterator_tag@0@U_Range_checked_iterator_tag@0@@Z$0:

; 405  : 	_CATCH_ALL
; 406  : 	for (; _Next != _First; ++_Next)

	jmp	SHORT $LN3@Uninit_fil
$LN2@Uninit_fil:
	mov	ecx, DWORD PTR __Next$[ebp]
	add	ecx, 8
	mov	DWORD PTR __Next$[ebp], ecx
$LN3@Uninit_fil:
	mov	edx, DWORD PTR __Next$[ebp]
	cmp	edx, DWORD PTR __First$[ebp]
	je	SHORT $LN1@Uninit_fil

; 407  : 		_Al.destroy(_Next);

	jmp	SHORT $LN2@Uninit_fil
$LN1@Uninit_fil:

; 408  : 	_RERAISE;

	push	0
	push	0
	call	__CxxThrowException@8

; 409  : 	_CATCH_END

	mov	DWORD PTR __$EHRec$[ebp+12], -1
	mov	eax, $LN9@Uninit_fil
	ret	0
$LN10@Uninit_fil:
	mov	DWORD PTR __$EHRec$[ebp+12], -1
$LN9@Uninit_fil:

; 410  : 	}

	mov	ecx, DWORD PTR __$EHRec$[ebp+4]
	mov	DWORD PTR fs:0, ecx
	pop	ecx
	pop	edi
	pop	esi
	pop	ebx
	mov	esp, ebp
	pop	ebp
	ret	0
_TEXT	ENDS
;	COMDAT text$x
text$x	SEGMENT
__ehhandler$??$_Uninit_fill_n@PAULeaderWithNumTechs@@IU1@V?$allocator@ULeaderWithNumTechs@@@std@@@std@@YAXPAULeaderWithNumTechs@@IABU1@AAV?$allocator@ULeaderWithNumTechs@@@0@U_Nonscalar_ptr_iterator_tag@0@U_Range_checked_iterator_tag@0@@Z:
	mov	edx, DWORD PTR [esp+8]
	lea	eax, DWORD PTR [edx+12]
	mov	ecx, DWORD PTR [edx-36]
	xor	ecx, eax
	call	@__security_check_cookie@4
	mov	eax, OFFSET __ehfuncinfo$??$_Uninit_fill_n@PAULeaderWithNumTechs@@IU1@V?$allocator@ULeaderWithNumTechs@@@std@@@std@@YAXPAULeaderWithNumTechs@@IABU1@AAV?$allocator@ULeaderWithNumTechs@@@0@U_Nonscalar_ptr_iterator_tag@0@U_Range_checked_iterator_tag@0@@Z
	jmp	___CxxFrameHandler3
text$x	ENDS
??$_Uninit_fill_n@PAULeaderWithNumTechs@@IU1@V?$allocator@ULeaderWithNumTechs@@@std@@@std@@YAXPAULeaderWithNumTechs@@IABU1@AAV?$allocator@ULeaderWithNumTechs@@@0@U_Nonscalar_ptr_iterator_tag@0@U_Range_checked_iterator_tag@0@@Z ENDP ; std::_Uninit_fill_n<LeaderWithNumTechs *,unsigned int,LeaderWithNumTechs,std::allocator<LeaderWithNumTechs> >
; Function compile flags: /Odtp
;	COMDAT ??1?$_Temp_iterator@ULeaderWithNumTechs@@@std@@QAE@XZ
_TEXT	SEGMENT
_this$ = -12						; size = 4
$T224755 = -8						; size = 4
__Next$219261 = -4					; size = 4
??1?$_Temp_iterator@ULeaderWithNumTechs@@@std@@QAE@XZ PROC ; std::_Temp_iterator<LeaderWithNumTechs>::~_Temp_iterator<LeaderWithNumTechs>, COMDAT
; _this$ = ecx

; 545  : 		{	// destroy the object

	push	ebp
	mov	ebp, esp
	sub	esp, 12					; 0000000cH
	mov	DWORD PTR _this$[ebp], ecx

; 546  : 		if (_Buf._Begin != 0)

	mov	eax, DWORD PTR _this$[ebp]
	cmp	DWORD PTR [eax], 0
	je	SHORT $LN5@Temp_itera

; 547  : 			{	// destroy any constructed elements in buffer
; 548  : 			for (_Pty _Next = _Buf._Begin;

	mov	ecx, DWORD PTR _this$[ebp]
	mov	edx, DWORD PTR [ecx]
	mov	DWORD PTR __Next$219261[ebp], edx

; 549  : 				_Next != _Buf._Hiwater; ++_Next)

	jmp	SHORT $LN3@Temp_itera
$LN2@Temp_itera:
	mov	eax, DWORD PTR __Next$219261[ebp]
	add	eax, 8
	mov	DWORD PTR __Next$219261[ebp], eax
$LN3@Temp_itera:
	mov	ecx, DWORD PTR _this$[ebp]
	mov	edx, DWORD PTR __Next$219261[ebp]
	cmp	edx, DWORD PTR [ecx+8]
	je	SHORT $LN1@Temp_itera

; 550  : 				_Destroy(&*_Next);

	jmp	SHORT $LN2@Temp_itera
$LN1@Temp_itera:

; 551  : 			std::return_temporary_buffer(_Buf._Begin);

	mov	eax, DWORD PTR _this$[ebp]
	mov	ecx, DWORD PTR [eax]
	mov	DWORD PTR $T224755[ebp], ecx
	mov	edx, DWORD PTR $T224755[ebp]
	push	edx
	call	??3@YAXPAX@Z				; operator delete
	add	esp, 4
$LN5@Temp_itera:

; 552  : 			}
; 553  : 		}

	mov	esp, ebp
	pop	ebp
	ret	0
??1?$_Temp_iterator@ULeaderWithNumTechs@@@std@@QAE@XZ ENDP ; std::_Temp_iterator<LeaderWithNumTechs>::~_Temp_iterator<LeaderWithNumTechs>
_TEXT	ENDS
PUBLIC	??$_Buffered_merge@V?$_Vector_iterator@ULeaderWithNumTechs@@V?$allocator@ULeaderWithNumTechs@@@std@@@std@@HULeaderWithNumTechs@@ULeaderWithNumTechsEval@@@std@@YAXV?$_Vector_iterator@ULeaderWithNumTechs@@V?$allocator@ULeaderWithNumTechs@@@std@@@0@00HHAAV?$_Temp_iterator@ULeaderWithNumTechs@@@0@ULeaderWithNumTechsEval@@@Z ; std::_Buffered_merge<std::_Vector_iterator<LeaderWithNumTechs,std::allocator<LeaderWithNumTechs> >,int,LeaderWithNumTechs,LeaderWithNumTechsEval>
PUBLIC	??$_Buffered_merge_sort@V?$_Vector_iterator@ULeaderWithNumTechs@@V?$allocator@ULeaderWithNumTechs@@@std@@@std@@HULeaderWithNumTechs@@ULeaderWithNumTechsEval@@@std@@YAXV?$_Vector_iterator@ULeaderWithNumTechs@@V?$allocator@ULeaderWithNumTechs@@@std@@@0@0HAAV?$_Temp_iterator@ULeaderWithNumTechs@@@0@ULeaderWithNumTechsEval@@@Z ; std::_Buffered_merge_sort<std::_Vector_iterator<LeaderWithNumTechs,std::allocator<LeaderWithNumTechs> >,int,LeaderWithNumTechs,LeaderWithNumTechsEval>
PUBLIC	?_Maxlen@?$_Temp_iterator@ULeaderWithNumTechs@@@std@@QAEHXZ ; std::_Temp_iterator<LeaderWithNumTechs>::_Maxlen
PUBLIC	??$_Insertion_sort1@V?$_Vector_iterator@ULeaderWithNumTechs@@V?$allocator@ULeaderWithNumTechs@@@std@@@std@@ULeaderWithNumTechsEval@@ULeaderWithNumTechs@@@std@@YAXV?$_Vector_iterator@ULeaderWithNumTechs@@V?$allocator@ULeaderWithNumTechs@@@std@@@0@0ULeaderWithNumTechsEval@@PAULeaderWithNumTechs@@@Z ; std::_Insertion_sort1<std::_Vector_iterator<LeaderWithNumTechs,std::allocator<LeaderWithNumTechs> >,LeaderWithNumTechsEval,LeaderWithNumTechs>
; Function compile flags: /Odtp
; File c:\program files (x86)\microsoft visual studio 9.0\vc\include\algorithm
;	COMDAT ??$_Stable_sort@V?$_Vector_iterator@ULeaderWithNumTechs@@V?$allocator@ULeaderWithNumTechs@@@std@@@std@@HULeaderWithNumTechs@@ULeaderWithNumTechsEval@@@std@@YAXV?$_Vector_iterator@ULeaderWithNumTechs@@V?$allocator@ULeaderWithNumTechs@@@std@@@0@0HAAV?$_Temp_iterator@ULeaderWithNumTechs@@@0@ULeaderWithNumTechsEval@@@Z
_TEXT	SEGMENT
__Count2$219328 = -8					; size = 4
__Mid$219329 = -4					; size = 4
__First$ = 8						; size = 4
__Last$ = 12						; size = 4
__Count$ = 16						; size = 4
__Tempbuf$ = 20						; size = 4
__Pred$ = 24						; size = 1
??$_Stable_sort@V?$_Vector_iterator@ULeaderWithNumTechs@@V?$allocator@ULeaderWithNumTechs@@@std@@@std@@HULeaderWithNumTechs@@ULeaderWithNumTechsEval@@@std@@YAXV?$_Vector_iterator@ULeaderWithNumTechs@@V?$allocator@ULeaderWithNumTechs@@@std@@@0@0HAAV?$_Temp_iterator@ULeaderWithNumTechs@@@0@ULeaderWithNumTechsEval@@@Z PROC ; std::_Stable_sort<std::_Vector_iterator<LeaderWithNumTechs,std::allocator<LeaderWithNumTechs> >,int,LeaderWithNumTechs,LeaderWithNumTechsEval>, COMDAT

; 3529 : 	{	// sort preserving order of equivalents, using _Pred

	push	ebp
	mov	ebp, esp
	sub	esp, 364				; 0000016cH

; 3530 : 	if (_Count <= _ISORT_MAX)

	cmp	DWORD PTR __Count$[ebp], 32		; 00000020H
	jg	SHORT $LN4@Stable_sor@2

; 3531 : 		std::_Insertion_sort(_First, _Last, _Pred);	// small

	push	0
	movzx	eax, BYTE PTR __Pred$[ebp]
	push	eax
	mov	ecx, DWORD PTR __Last$[ebp]
	push	ecx
	mov	edx, DWORD PTR __First$[ebp]
	push	edx
	call	??$_Insertion_sort1@V?$_Vector_iterator@ULeaderWithNumTechs@@V?$allocator@ULeaderWithNumTechs@@@std@@@std@@ULeaderWithNumTechsEval@@ULeaderWithNumTechs@@@std@@YAXV?$_Vector_iterator@ULeaderWithNumTechs@@V?$allocator@ULeaderWithNumTechs@@@std@@@0@0ULeaderWithNumTechsEval@@PAULeaderWithNumTechs@@@Z ; std::_Insertion_sort1<std::_Vector_iterator<LeaderWithNumTechs,std::allocator<LeaderWithNumTechs> >,LeaderWithNumTechsEval,LeaderWithNumTechs>
	add	esp, 16					; 00000010H

; 3532 : 	else

	jmp	$LN5@Stable_sor@2
$LN4@Stable_sor@2:

; 3533 : 		{	// sort halves and merge
; 3534 : 		_Diff _Count2 = (_Count + 1) / 2;

	mov	eax, DWORD PTR __Count$[ebp]
	add	eax, 1
	cdq
	sub	eax, edx
	sar	eax, 1
	mov	DWORD PTR __Count2$219328[ebp], eax

; 3535 : 		_BidIt _Mid = _First;

	mov	eax, DWORD PTR __First$[ebp]
	mov	DWORD PTR __Mid$219329[ebp], eax

; 3536 : 		std::advance(_Mid, _Count2);

	mov	ecx, DWORD PTR __Count2$219328[ebp]
	mov	edx, DWORD PTR __Mid$219329[ebp]
	lea	eax, DWORD PTR [edx+ecx*8]
	mov	DWORD PTR __Mid$219329[ebp], eax

; 3537 : 
; 3538 : 		if (_Count2 <= _Tempbuf._Maxlen())

	mov	ecx, DWORD PTR __Tempbuf$[ebp]
	call	?_Maxlen@?$_Temp_iterator@ULeaderWithNumTechs@@@std@@QAEHXZ ; std::_Temp_iterator<LeaderWithNumTechs>::_Maxlen
	cmp	DWORD PTR __Count2$219328[ebp], eax
	jg	SHORT $LN2@Stable_sor@2

; 3539 : 			{	// temp buffer big enough, sort each half using buffer
; 3540 : 			_Buffered_merge_sort(_First, _Mid, _Count2, _Tempbuf, _Pred);

	movzx	ecx, BYTE PTR __Pred$[ebp]
	push	ecx
	mov	edx, DWORD PTR __Tempbuf$[ebp]
	push	edx
	mov	eax, DWORD PTR __Count2$219328[ebp]
	push	eax
	mov	ecx, DWORD PTR __Mid$219329[ebp]
	push	ecx
	mov	edx, DWORD PTR __First$[ebp]
	push	edx
	call	??$_Buffered_merge_sort@V?$_Vector_iterator@ULeaderWithNumTechs@@V?$allocator@ULeaderWithNumTechs@@@std@@@std@@HULeaderWithNumTechs@@ULeaderWithNumTechsEval@@@std@@YAXV?$_Vector_iterator@ULeaderWithNumTechs@@V?$allocator@ULeaderWithNumTechs@@@std@@@0@0HAAV?$_Temp_iterator@ULeaderWithNumTechs@@@0@ULeaderWithNumTechsEval@@@Z ; std::_Buffered_merge_sort<std::_Vector_iterator<LeaderWithNumTechs,std::allocator<LeaderWithNumTechs> >,int,LeaderWithNumTechs,LeaderWithNumTechsEval>
	add	esp, 20					; 00000014H

; 3541 : 			_Buffered_merge_sort(_Mid, _Last, _Count - _Count2,
; 3542 : 				_Tempbuf, _Pred);

	movzx	eax, BYTE PTR __Pred$[ebp]
	push	eax
	mov	ecx, DWORD PTR __Tempbuf$[ebp]
	push	ecx
	mov	edx, DWORD PTR __Count$[ebp]
	sub	edx, DWORD PTR __Count2$219328[ebp]
	push	edx
	mov	eax, DWORD PTR __Last$[ebp]
	push	eax
	mov	ecx, DWORD PTR __Mid$219329[ebp]
	push	ecx
	call	??$_Buffered_merge_sort@V?$_Vector_iterator@ULeaderWithNumTechs@@V?$allocator@ULeaderWithNumTechs@@@std@@@std@@HULeaderWithNumTechs@@ULeaderWithNumTechsEval@@@std@@YAXV?$_Vector_iterator@ULeaderWithNumTechs@@V?$allocator@ULeaderWithNumTechs@@@std@@@0@0HAAV?$_Temp_iterator@ULeaderWithNumTechs@@@0@ULeaderWithNumTechsEval@@@Z ; std::_Buffered_merge_sort<std::_Vector_iterator<LeaderWithNumTechs,std::allocator<LeaderWithNumTechs> >,int,LeaderWithNumTechs,LeaderWithNumTechsEval>
	add	esp, 20					; 00000014H

; 3543 : 			}
; 3544 : 		else

	jmp	SHORT $LN1@Stable_sor@2
$LN2@Stable_sor@2:

; 3545 : 			{	// temp buffer not big enough, divide and conquer
; 3546 : 			_Stable_sort(_First, _Mid, _Count2, _Tempbuf, _Pred);

	movzx	edx, BYTE PTR __Pred$[ebp]
	push	edx
	mov	eax, DWORD PTR __Tempbuf$[ebp]
	push	eax
	mov	ecx, DWORD PTR __Count2$219328[ebp]
	push	ecx
	mov	edx, DWORD PTR __Mid$219329[ebp]
	push	edx
	mov	eax, DWORD PTR __First$[ebp]
	push	eax
	call	??$_Stable_sort@V?$_Vector_iterator@ULeaderWithNumTechs@@V?$allocator@ULeaderWithNumTechs@@@std@@@std@@HULeaderWithNumTechs@@ULeaderWithNumTechsEval@@@std@@YAXV?$_Vector_iterator@ULeaderWithNumTechs@@V?$allocator@ULeaderWithNumTechs@@@std@@@0@0HAAV?$_Temp_iterator@ULeaderWithNumTechs@@@0@ULeaderWithNumTechsEval@@@Z ; std::_Stable_sort<std::_Vector_iterator<LeaderWithNumTechs,std::allocator<LeaderWithNumTechs> >,int,LeaderWithNumTechs,LeaderWithNumTechsEval>
	add	esp, 20					; 00000014H

; 3547 : 			_Stable_sort(_Mid, _Last, _Count - _Count2, _Tempbuf, _Pred);

	movzx	ecx, BYTE PTR __Pred$[ebp]
	push	ecx
	mov	edx, DWORD PTR __Tempbuf$[ebp]
	push	edx
	mov	eax, DWORD PTR __Count$[ebp]
	sub	eax, DWORD PTR __Count2$219328[ebp]
	push	eax
	mov	ecx, DWORD PTR __Last$[ebp]
	push	ecx
	mov	edx, DWORD PTR __Mid$219329[ebp]
	push	edx
	call	??$_Stable_sort@V?$_Vector_iterator@ULeaderWithNumTechs@@V?$allocator@ULeaderWithNumTechs@@@std@@@std@@HULeaderWithNumTechs@@ULeaderWithNumTechsEval@@@std@@YAXV?$_Vector_iterator@ULeaderWithNumTechs@@V?$allocator@ULeaderWithNumTechs@@@std@@@0@0HAAV?$_Temp_iterator@ULeaderWithNumTechs@@@0@ULeaderWithNumTechsEval@@@Z ; std::_Stable_sort<std::_Vector_iterator<LeaderWithNumTechs,std::allocator<LeaderWithNumTechs> >,int,LeaderWithNumTechs,LeaderWithNumTechsEval>
	add	esp, 20					; 00000014H
$LN1@Stable_sor@2:

; 3548 : 			}
; 3549 : 
; 3550 : 		_Buffered_merge(_First, _Mid, _Last,
; 3551 : 			_Count2, _Count - _Count2, _Tempbuf, _Pred);	// merge halves

	movzx	eax, BYTE PTR __Pred$[ebp]
	push	eax
	mov	ecx, DWORD PTR __Tempbuf$[ebp]
	push	ecx
	mov	edx, DWORD PTR __Count$[ebp]
	sub	edx, DWORD PTR __Count2$219328[ebp]
	push	edx
	mov	eax, DWORD PTR __Count2$219328[ebp]
	push	eax
	mov	ecx, DWORD PTR __Last$[ebp]
	push	ecx
	mov	edx, DWORD PTR __Mid$219329[ebp]
	push	edx
	mov	eax, DWORD PTR __First$[ebp]
	push	eax
	call	??$_Buffered_merge@V?$_Vector_iterator@ULeaderWithNumTechs@@V?$allocator@ULeaderWithNumTechs@@@std@@@std@@HULeaderWithNumTechs@@ULeaderWithNumTechsEval@@@std@@YAXV?$_Vector_iterator@ULeaderWithNumTechs@@V?$allocator@ULeaderWithNumTechs@@@std@@@0@00HHAAV?$_Temp_iterator@ULeaderWithNumTechs@@@0@ULeaderWithNumTechsEval@@@Z ; std::_Buffered_merge<std::_Vector_iterator<LeaderWithNumTechs,std::allocator<LeaderWithNumTechs> >,int,LeaderWithNumTechs,LeaderWithNumTechsEval>
	add	esp, 28					; 0000001cH
$LN5@Stable_sor@2:

; 3552 : 		}
; 3553 : 	}

	mov	esp, ebp
	pop	ebp
	ret	0
??$_Stable_sort@V?$_Vector_iterator@ULeaderWithNumTechs@@V?$allocator@ULeaderWithNumTechs@@@std@@@std@@HULeaderWithNumTechs@@ULeaderWithNumTechsEval@@@std@@YAXV?$_Vector_iterator@ULeaderWithNumTechs@@V?$allocator@ULeaderWithNumTechs@@@std@@@0@0HAAV?$_Temp_iterator@ULeaderWithNumTechs@@@0@ULeaderWithNumTechsEval@@@Z ENDP ; std::_Stable_sort<std::_Vector_iterator<LeaderWithNumTechs,std::allocator<LeaderWithNumTechs> >,int,LeaderWithNumTechs,LeaderWithNumTechsEval>
_TEXT	ENDS
PUBLIC	??$_Median@PAUWeightedElement@?$CvWeightedVector@H$0FA@$00@@@std@@YAXPAUWeightedElement@?$CvWeightedVector@H$0FA@$00@@00@Z ; std::_Median<CvWeightedVector<int,80,1>::WeightedElement *>
; Function compile flags: /Odtp
;	COMDAT ??$_Unguarded_partition@PAUWeightedElement@?$CvWeightedVector@H$0FA@$00@@@std@@YA?AU?$pair@PAUWeightedElement@?$CvWeightedVector@H$0FA@$00@@PAU12@@0@PAUWeightedElement@?$CvWeightedVector@H$0FA@$00@@0@Z
_TEXT	SEGMENT
$T225426 = -124						; size = 4
__Tmp$225421 = -120					; size = 8
$T225406 = -112						; size = 4
$T225405 = -108						; size = 4
__Tmp$225400 = -104					; size = 8
$T225385 = -96						; size = 4
__Tmp$225380 = -92					; size = 8
$T225365 = -84						; size = 4
$T225364 = -80						; size = 4
__Tmp$225359 = -76					; size = 8
$T225344 = -68						; size = 4
$T225343 = -64						; size = 4
__Tmp$225338 = -60					; size = 8
$T225320 = -52						; size = 4
$T225319 = -48						; size = 4
__Tmp$225314 = -44					; size = 8
$T225293 = -36						; size = 4
__Tmp$225286 = -32					; size = 8
__Plast$ = -20						; size = 4
__Glast$ = -16						; size = 4
__Pfirst$ = -12						; size = 4
__Gfirst$ = -8						; size = 4
__Mid$ = -4						; size = 4
___$ReturnUdt$ = 8					; size = 4
__First$ = 12						; size = 4
__Last$ = 16						; size = 4
??$_Unguarded_partition@PAUWeightedElement@?$CvWeightedVector@H$0FA@$00@@@std@@YA?AU?$pair@PAUWeightedElement@?$CvWeightedVector@H$0FA@$00@@PAU12@@0@PAUWeightedElement@?$CvWeightedVector@H$0FA@$00@@0@Z PROC ; std::_Unguarded_partition<CvWeightedVector<int,80,1>::WeightedElement *>, COMDAT

; 3024 : 	{	// partition [_First, _Last), using operator<

	push	ebp
	mov	ebp, esp
	sub	esp, 124				; 0000007cH

; 3025 : 	_RanIt _Mid = _First + (_Last - _First) / 2;	// sort median to _Mid

	mov	eax, DWORD PTR __Last$[ebp]
	sub	eax, DWORD PTR __First$[ebp]
	sar	eax, 3
	cdq
	sub	eax, edx
	sar	eax, 1
	mov	ecx, DWORD PTR __First$[ebp]
	lea	edx, DWORD PTR [ecx+eax*8]
	mov	DWORD PTR __Mid$[ebp], edx

; 3026 : 	std::_Median(_First, _Mid, _Last - 1);

	mov	eax, DWORD PTR __Last$[ebp]
	sub	eax, 8
	push	eax
	mov	ecx, DWORD PTR __Mid$[ebp]
	push	ecx
	mov	edx, DWORD PTR __First$[ebp]
	push	edx
	call	??$_Median@PAUWeightedElement@?$CvWeightedVector@H$0FA@$00@@@std@@YAXPAUWeightedElement@?$CvWeightedVector@H$0FA@$00@@00@Z ; std::_Median<CvWeightedVector<int,80,1>::WeightedElement *>
	add	esp, 12					; 0000000cH

; 3027 : 	_RanIt _Pfirst = _Mid;

	mov	eax, DWORD PTR __Mid$[ebp]
	mov	DWORD PTR __Pfirst$[ebp], eax

; 3028 : 	_RanIt _Plast = _Pfirst + 1;

	mov	ecx, DWORD PTR __Pfirst$[ebp]
	add	ecx, 8
	mov	DWORD PTR __Plast$[ebp], ecx
$LN27@Unguarded_:

; 3029 : 
; 3030 : 	while (_First < _Pfirst
; 3031 : 		&& !_DEBUG_LT(*(_Pfirst - 1), *_Pfirst)
; 3032 : 		&& !(*_Pfirst < *(_Pfirst - 1)))

	mov	edx, DWORD PTR __First$[ebp]
	cmp	edx, DWORD PTR __Pfirst$[ebp]
	jae	SHORT $LN25@Unguarded_
	mov	eax, DWORD PTR __Pfirst$[ebp]
	mov	ecx, DWORD PTR __Pfirst$[ebp]
	mov	edx, DWORD PTR [eax-4]
	xor	eax, eax
	cmp	edx, DWORD PTR [ecx+4]
	setg	al
	movzx	ecx, al
	test	ecx, ecx
	jne	SHORT $LN25@Unguarded_
	mov	edx, DWORD PTR __Pfirst$[ebp]
	mov	eax, DWORD PTR __Pfirst$[ebp]
	mov	ecx, DWORD PTR [edx+4]
	xor	edx, edx
	cmp	ecx, DWORD PTR [eax-4]
	setg	dl
	movzx	eax, dl
	test	eax, eax
	jne	SHORT $LN25@Unguarded_

; 3033 : 		--_Pfirst;

	mov	ecx, DWORD PTR __Pfirst$[ebp]
	sub	ecx, 8
	mov	DWORD PTR __Pfirst$[ebp], ecx
	jmp	SHORT $LN27@Unguarded_
$LN25@Unguarded_:

; 3034 : 	while (_Plast < _Last
; 3035 : 		&& !_DEBUG_LT(*_Plast, *_Pfirst)
; 3036 : 		&& !(*_Pfirst < *_Plast))

	mov	edx, DWORD PTR __Plast$[ebp]
	cmp	edx, DWORD PTR __Last$[ebp]
	jae	SHORT $LN24@Unguarded_
	mov	eax, DWORD PTR __Plast$[ebp]
	mov	ecx, DWORD PTR __Pfirst$[ebp]
	mov	edx, DWORD PTR [eax+4]
	xor	eax, eax
	cmp	edx, DWORD PTR [ecx+4]
	setg	al
	movzx	ecx, al
	test	ecx, ecx
	jne	SHORT $LN24@Unguarded_
	mov	edx, DWORD PTR __Pfirst$[ebp]
	mov	eax, DWORD PTR __Plast$[ebp]
	mov	ecx, DWORD PTR [edx+4]
	xor	edx, edx
	cmp	ecx, DWORD PTR [eax+4]
	setg	dl
	movzx	eax, dl
	test	eax, eax
	jne	SHORT $LN24@Unguarded_

; 3037 : 		++_Plast;

	mov	ecx, DWORD PTR __Plast$[ebp]
	add	ecx, 8
	mov	DWORD PTR __Plast$[ebp], ecx
	jmp	SHORT $LN25@Unguarded_
$LN24@Unguarded_:

; 3038 : 
; 3039 : 	_RanIt _Gfirst = _Plast;

	mov	edx, DWORD PTR __Plast$[ebp]
	mov	DWORD PTR __Gfirst$[ebp], edx

; 3040 : 	_RanIt _Glast = _Pfirst;

	mov	eax, DWORD PTR __Pfirst$[ebp]
	mov	DWORD PTR __Glast$[ebp], eax
$LN23@Unguarded_:

; 3041 : 
; 3042 : 	for (; ; )
; 3043 : 		{	// partition
; 3044 : 		for (; _Gfirst < _Last; ++_Gfirst)

	jmp	SHORT $LN21@Unguarded_
$LN20@Unguarded_:
	mov	ecx, DWORD PTR __Gfirst$[ebp]
	add	ecx, 8
	mov	DWORD PTR __Gfirst$[ebp], ecx
$LN21@Unguarded_:
	mov	edx, DWORD PTR __Gfirst$[ebp]
	cmp	edx, DWORD PTR __Last$[ebp]
	jae	$LN19@Unguarded_

; 3045 : 			if (_DEBUG_LT(*_Pfirst, *_Gfirst))

	mov	eax, DWORD PTR __Pfirst$[ebp]
	mov	ecx, DWORD PTR __Gfirst$[ebp]
	mov	edx, DWORD PTR [eax+4]
	xor	eax, eax
	cmp	edx, DWORD PTR [ecx+4]
	setg	al
	movzx	ecx, al
	test	ecx, ecx
	je	SHORT $LN44@Unguarded_
	jmp	SHORT $LN17@Unguarded_

; 3046 : 				;
; 3047 : 			else if (*_Gfirst < *_Pfirst)

$LN44@Unguarded_:
	mov	edx, DWORD PTR __Gfirst$[ebp]
	mov	eax, DWORD PTR __Pfirst$[ebp]
	mov	ecx, DWORD PTR [edx+4]
	xor	edx, edx
	cmp	ecx, DWORD PTR [eax+4]
	setg	dl
	movzx	eax, dl
	test	eax, eax
	je	SHORT $LN16@Unguarded_

; 3048 : 				break;

	jmp	SHORT $LN19@Unguarded_

; 3049 : 			else

	jmp	SHORT $LN17@Unguarded_
$LN16@Unguarded_:

; 3050 : 				std::iter_swap(_Plast++, _Gfirst);

	mov	ecx, DWORD PTR __Plast$[ebp]
	mov	DWORD PTR $T225293[ebp], ecx
	mov	edx, DWORD PTR __Plast$[ebp]
	add	edx, 8
	mov	DWORD PTR __Plast$[ebp], edx
	mov	eax, DWORD PTR $T225293[ebp]
	cmp	eax, DWORD PTR __Gfirst$[ebp]
	je	SHORT $LN17@Unguarded_
	mov	ecx, DWORD PTR $T225293[ebp]
	mov	edx, DWORD PTR [ecx]
	mov	DWORD PTR __Tmp$225286[ebp], edx
	mov	eax, DWORD PTR $T225293[ebp]
	mov	ecx, DWORD PTR [eax+4]
	mov	DWORD PTR __Tmp$225286[ebp+4], ecx
	mov	edx, DWORD PTR __Gfirst$[ebp]
	mov	eax, DWORD PTR [edx]
	mov	ecx, DWORD PTR [edx+4]
	mov	edx, DWORD PTR $T225293[ebp]
	mov	DWORD PTR [edx], eax
	mov	DWORD PTR [edx+4], ecx
	mov	eax, DWORD PTR __Gfirst$[ebp]
	mov	ecx, DWORD PTR __Tmp$225286[ebp]
	mov	DWORD PTR [eax], ecx
	mov	edx, DWORD PTR __Tmp$225286[ebp+4]
	mov	DWORD PTR [eax+4], edx
$LN17@Unguarded_:
	jmp	$LN20@Unguarded_
$LN19@Unguarded_:

; 3051 : 		for (; _First < _Glast; --_Glast)

	jmp	SHORT $LN14@Unguarded_
$LN13@Unguarded_:
	mov	eax, DWORD PTR __Glast$[ebp]
	sub	eax, 8
	mov	DWORD PTR __Glast$[ebp], eax
$LN14@Unguarded_:
