; Listing generated by Microsoft (R) Optimizing Compiler Version 15.00.30729.01 

	TITLE	D:\sources\Lekmod_git\checkout\LEKMOD_DLL\CvGameCoreDLL_Expansion2\CvTraitClasses.cpp
	.686P
	.XMM
	include listing.inc
	.model	flat

INCLUDELIB MSVCRT
INCLUDELIB OLDNAMES

PUBLIC	?NO_QUEST_DATA@CvMinorCivQuest@@2HB		; CvMinorCivQuest::NO_QUEST_DATA
PUBLIC	?NO_TURN@CvMinorCivQuest@@2HB			; CvMinorCivQuest::NO_TURN
CONST	SEGMENT
_CALENDAR_START DD 0c542865br			; -3112.4
_DAYS_IN_BAKTUN DD 0480ca000r			; 144000
_DAYS_IN_KATUN DD 045e10000r			; 7200
_DAYS_IN_TUN DD	043b40000r			; 360
_DAYS_IN_WINAL DD 041a00000r			; 20
_DAYS_IN_YEAR DD 043b69f00r			; 365.242
CONST	ENDS
;	COMDAT ?NO_TURN@CvMinorCivQuest@@2HB
CONST	SEGMENT
?NO_TURN@CvMinorCivQuest@@2HB DD 0ffffffffH		; CvMinorCivQuest::NO_TURN
CONST	ENDS
;	COMDAT ?NO_QUEST_DATA@CvMinorCivQuest@@2HB
CONST	SEGMENT
?NO_QUEST_DATA@CvMinorCivQuest@@2HB DD 0ffffffffH	; CvMinorCivQuest::NO_QUEST_DATA
CONST	ENDS
PUBLIC	??1?$vector@_NV?$allocator@_N@std@@@std@@QAE@XZ	; std::vector<bool,std::allocator<bool> >::~vector<bool,std::allocator<bool> >
PUBLIC	??1?$vector@UFreeResourceXCities@@V?$allocator@UFreeResourceXCities@@@std@@@std@@QAE@XZ ; std::vector<FreeResourceXCities,std::allocator<FreeResourceXCities> >::~vector<FreeResourceXCities,std::allocator<FreeResourceXCities> >
PUBLIC	??1?$_Vector_val@UFreeResourceXCities@@V?$allocator@UFreeResourceXCities@@@std@@@std@@QAE@XZ ; std::_Vector_val<FreeResourceXCities,std::allocator<FreeResourceXCities> >::~_Vector_val<FreeResourceXCities,std::allocator<FreeResourceXCities> >
PUBLIC	??1?$multimap@HHU?$less@H@std@@V?$allocator@U?$pair@$$CBHH@std@@@2@@std@@QAE@XZ ; std::multimap<int,int,std::less<int>,std::allocator<std::pair<int const ,int> > >::~multimap<int,int,std::less<int>,std::allocator<std::pair<int const ,int> > >
PUBLIC	??1CvString@@QAE@XZ				; CvString::~CvString
PUBLIC	??1CvBaseInfo@@QAE@XZ				; CvBaseInfo::~CvBaseInfo
PUBLIC	??0?$vector@_NV?$allocator@_N@std@@@std@@QAE@XZ	; std::vector<bool,std::allocator<bool> >::vector<bool,std::allocator<bool> >
PUBLIC	?_Buy@?$vector@UFreeResourceXCities@@V?$allocator@UFreeResourceXCities@@@std@@@std@@IAE_NI@Z ; std::vector<FreeResourceXCities,std::allocator<FreeResourceXCities> >::_Buy
PUBLIC	??0?$_Tree@V?$_Tmap_traits@HHU?$less@H@std@@V?$allocator@U?$pair@$$CBHH@std@@@2@$00@std@@@std@@QAE@ABU?$less@H@1@ABV?$allocator@U?$pair@$$CBHH@std@@@1@@Z ; std::_Tree<std::_Tmap_traits<int,int,std::less<int>,std::allocator<std::pair<int const ,int> >,1> >::_Tree<std::_Tmap_traits<int,int,std::less<int>,std::allocator<std::pair<int const ,int> >,1> >
PUBLIC	??_7CvTraitEntry@@6B@				; CvTraitEntry::`vftable'
PUBLIC	??0CvTraitEntry@@QAE@XZ				; CvTraitEntry::CvTraitEntry
PUBLIC	?CacheResults@CvTraitEntry@@UAE_NAAVResults@Database@@AAVCvDatabaseUtility@@@Z ; CvTraitEntry::CacheResults
EXTRN	__imp_??0?$basic_string@DU?$char_traits@D@std@@V?$allocator@D@2@@std@@QAE@XZ:PROC
EXTRN	??0CvBaseInfo@@QAE@XZ:PROC			; CvBaseInfo::CvBaseInfo
EXTRN	___security_cookie:DWORD
EXTRN	___CxxFrameHandler3:PROC
EXTRN	@__security_check_cookie@4:PROC
EXTRN	__CxxThrowException@8:PROC
EXTRN	??8CvBaseInfo@@UBE_NABV0@@Z:PROC		; CvBaseInfo::operator==
EXTRN	?readFrom@CvBaseInfo@@UAEXAAVFDataStream@@@Z:PROC ; CvBaseInfo::readFrom
EXTRN	?writeTo@CvBaseInfo@@UBEXAAVFDataStream@@@Z:PROC ; CvBaseInfo::writeTo
;	COMDAT ??_7CvTraitEntry@@6B@
; File c:\program files (x86)\microsoft visual studio 9.0\vc\include\exception
CONST	SEGMENT
??_7CvTraitEntry@@6B@ DD FLAT:?CacheResults@CvTraitEntry@@UAE_NAAVResults@Database@@AAVCvDatabaseUtility@@@Z ; CvTraitEntry::`vftable'
	DD	FLAT:??8CvBaseInfo@@UBE_NABV0@@Z
	DD	FLAT:?readFrom@CvBaseInfo@@UAEXAAVFDataStream@@@Z
	DD	FLAT:?writeTo@CvBaseInfo@@UBEXAAVFDataStream@@@Z
CONST	ENDS
;	COMDAT xdata$x
xdata$x	SEGMENT
__ehfuncinfo$??0CvTraitEntry@@QAE@XZ DD 019930522H
	DD	06H
	DD	FLAT:__unwindtable$??0CvTraitEntry@@QAE@XZ
	DD	2 DUP(00H)
	DD	2 DUP(00H)
	DD	00H
	DD	01H
__unwindtable$??0CvTraitEntry@@QAE@XZ DD 0ffffffffH
	DD	FLAT:__unwindfunclet$??0CvTraitEntry@@QAE@XZ$0
	DD	00H
	DD	FLAT:__unwindfunclet$??0CvTraitEntry@@QAE@XZ$1
	DD	01H
	DD	FLAT:__unwindfunclet$??0CvTraitEntry@@QAE@XZ$2
	DD	02H
	DD	FLAT:__unwindfunclet$??0CvTraitEntry@@QAE@XZ$11
	DD	02H
	DD	FLAT:__unwindfunclet$??0CvTraitEntry@@QAE@XZ$3
	DD	04H
	DD	FLAT:__unwindfunclet$??0CvTraitEntry@@QAE@XZ$4
; Function compile flags: /Odtp
; File d:\sources\lekmod_git\checkout\lekmod_dll\cvgamecoredll_expansion2\cvtraitclasses.cpp
xdata$x	ENDS
;	COMDAT ??0CvTraitEntry@@QAE@XZ
_TEXT	SEGMENT
tv312 = -428						; size = 4
tv388 = -424						; size = 4
_this$ = -420						; size = 4
$T227924 = -168						; size = 4
$T227874 = -74						; size = 1
$T227861 = -73						; size = 1
$T227857 = -72						; size = 4
$T227850 = -64						; size = 4
$T227843 = -56						; size = 4
$T227839 = -18						; size = 1
$T227838 = -17						; size = 1
$T227750 = -16						; size = 4
__$EHRec$ = -12						; size = 12
??0CvTraitEntry@@QAE@XZ PROC				; CvTraitEntry::CvTraitEntry, COMDAT
; _this$ = ecx

; 173  : {

	push	ebp
	mov	ebp, esp
	push	-1
	push	__ehhandler$??0CvTraitEntry@@QAE@XZ
	mov	eax, DWORD PTR fs:0
	push	eax
	sub	esp, 416				; 000001a0H
	mov	eax, DWORD PTR ___security_cookie
	xor	eax, ebp
	push	eax
	lea	eax, DWORD PTR __$EHRec$[ebp]
	mov	DWORD PTR fs:0, eax
	mov	DWORD PTR _this$[ebp], ecx
	mov	ecx, DWORD PTR _this$[ebp]
	call	??0CvBaseInfo@@QAE@XZ			; CvBaseInfo::CvBaseInfo
	mov	DWORD PTR __$EHRec$[ebp+8], 0
	mov	eax, DWORD PTR _this$[ebp]
	mov	DWORD PTR [eax], OFFSET ??_7CvTraitEntry@@6B@
	mov	ecx, DWORD PTR _this$[ebp]
	mov	DWORD PTR [ecx+260], 0
	mov	edx, DWORD PTR _this$[ebp]
	mov	DWORD PTR [edx+264], 0
	mov	eax, DWORD PTR _this$[ebp]
	mov	DWORD PTR [eax+268], 0
	mov	ecx, DWORD PTR _this$[ebp]
	mov	DWORD PTR [ecx+272], 0
	mov	edx, DWORD PTR _this$[ebp]
	mov	DWORD PTR [edx+276], 0
	mov	eax, DWORD PTR _this$[ebp]
	mov	DWORD PTR [eax+280], 0
	mov	ecx, DWORD PTR _this$[ebp]
	mov	DWORD PTR [ecx+284], 0
	mov	edx, DWORD PTR _this$[ebp]
	mov	DWORD PTR [edx+288], 0
	mov	eax, DWORD PTR _this$[ebp]
	mov	DWORD PTR [eax+292], 0
	mov	ecx, DWORD PTR _this$[ebp]
	mov	DWORD PTR [ecx+296], 0
	mov	edx, DWORD PTR _this$[ebp]
	mov	DWORD PTR [edx+300], 0
	mov	eax, DWORD PTR _this$[ebp]
	mov	DWORD PTR [eax+304], 0
	mov	ecx, DWORD PTR _this$[ebp]
	mov	DWORD PTR [ecx+308], 0
	mov	edx, DWORD PTR _this$[ebp]
	mov	DWORD PTR [edx+312], 0
	mov	eax, DWORD PTR _this$[ebp]
	mov	DWORD PTR [eax+316], 0
	mov	ecx, DWORD PTR _this$[ebp]
	mov	DWORD PTR [ecx+320], 0
	mov	edx, DWORD PTR _this$[ebp]
	mov	DWORD PTR [edx+324], 0
	mov	eax, DWORD PTR _this$[ebp]
	mov	DWORD PTR [eax+328], 0
	mov	ecx, DWORD PTR _this$[ebp]
	mov	DWORD PTR [ecx+332], 0
	mov	edx, DWORD PTR _this$[ebp]
	mov	DWORD PTR [edx+336], 0
	mov	eax, DWORD PTR _this$[ebp]
	mov	DWORD PTR [eax+340], 0
	mov	ecx, DWORD PTR _this$[ebp]
	mov	DWORD PTR [ecx+344], 0
	mov	edx, DWORD PTR _this$[ebp]
	mov	DWORD PTR [edx+348], 0
	mov	eax, DWORD PTR _this$[ebp]
	mov	DWORD PTR [eax+352], 0
	mov	ecx, DWORD PTR _this$[ebp]
	mov	DWORD PTR [ecx+356], 0
	mov	edx, DWORD PTR _this$[ebp]
	mov	DWORD PTR [edx+360], 0
	mov	eax, DWORD PTR _this$[ebp]
	mov	DWORD PTR [eax+364], 0
	mov	ecx, DWORD PTR _this$[ebp]
	mov	DWORD PTR [ecx+368], 0
	mov	edx, DWORD PTR _this$[ebp]
	mov	DWORD PTR [edx+372], 0
	mov	eax, DWORD PTR _this$[ebp]
	mov	DWORD PTR [eax+376], 0
	mov	ecx, DWORD PTR _this$[ebp]
	mov	DWORD PTR [ecx+380], 0
	mov	edx, DWORD PTR _this$[ebp]
	mov	DWORD PTR [edx+384], 0
	mov	eax, DWORD PTR _this$[ebp]
	mov	DWORD PTR [eax+388], 0
	mov	ecx, DWORD PTR _this$[ebp]
	mov	DWORD PTR [ecx+392], 0
	mov	edx, DWORD PTR _this$[ebp]
	mov	DWORD PTR [edx+396], 0
	mov	eax, DWORD PTR _this$[ebp]
	mov	DWORD PTR [eax+400], 0
	mov	ecx, DWORD PTR _this$[ebp]
	mov	DWORD PTR [ecx+404], 0
	mov	edx, DWORD PTR _this$[ebp]
	mov	DWORD PTR [edx+408], 0
	mov	eax, DWORD PTR _this$[ebp]
	mov	DWORD PTR [eax+412], 0
	mov	ecx, DWORD PTR _this$[ebp]
	mov	DWORD PTR [ecx+416], -1
	mov	edx, DWORD PTR _this$[ebp]
	mov	DWORD PTR [edx+420], -1
	mov	eax, DWORD PTR _this$[ebp]
	mov	DWORD PTR [eax+424], 0
	mov	ecx, DWORD PTR _this$[ebp]
	mov	DWORD PTR [ecx+428], -1
	mov	edx, DWORD PTR _this$[ebp]
	mov	DWORD PTR [edx+432], 0
	mov	eax, DWORD PTR _this$[ebp]
	mov	DWORD PTR [eax+436], 0
	mov	ecx, DWORD PTR _this$[ebp]
	mov	DWORD PTR [ecx+440], 0
	mov	edx, DWORD PTR _this$[ebp]
	mov	DWORD PTR [edx+444], 0
	mov	eax, DWORD PTR _this$[ebp]
	mov	DWORD PTR [eax+448], 0
	mov	ecx, DWORD PTR _this$[ebp]
	mov	DWORD PTR [ecx+452], 0
	mov	edx, DWORD PTR _this$[ebp]
	mov	DWORD PTR [edx+456], 0
	mov	eax, DWORD PTR _this$[ebp]
	mov	DWORD PTR [eax+460], 0
	mov	ecx, DWORD PTR _this$[ebp]
	mov	DWORD PTR [ecx+464], 0
	mov	edx, DWORD PTR _this$[ebp]
	mov	DWORD PTR [edx+468], 0
	mov	eax, DWORD PTR _this$[ebp]
	mov	DWORD PTR [eax+472], 0
	mov	ecx, DWORD PTR _this$[ebp]
	mov	DWORD PTR [ecx+476], 0
	mov	edx, DWORD PTR _this$[ebp]
	mov	DWORD PTR [edx+480], 0
	mov	eax, DWORD PTR _this$[ebp]
	mov	DWORD PTR [eax+484], 0
	mov	ecx, DWORD PTR _this$[ebp]
	mov	DWORD PTR [ecx+488], 0
	mov	edx, DWORD PTR _this$[ebp]
	mov	DWORD PTR [edx+492], 0
	mov	eax, DWORD PTR _this$[ebp]
	mov	DWORD PTR [eax+496], 0
	mov	ecx, DWORD PTR _this$[ebp]
	mov	DWORD PTR [ecx+500], 0
	mov	edx, DWORD PTR _this$[ebp]
	mov	DWORD PTR [edx+504], 0
	mov	eax, DWORD PTR _this$[ebp]
	mov	DWORD PTR [eax+508], 0
	mov	ecx, DWORD PTR _this$[ebp]
	mov	DWORD PTR [ecx+512], 0
	mov	edx, DWORD PTR _this$[ebp]
	mov	DWORD PTR [edx+516], 0
	mov	eax, DWORD PTR _this$[ebp]
	mov	DWORD PTR [eax+520], 0
	mov	ecx, DWORD PTR _this$[ebp]
	mov	DWORD PTR [ecx+524], 0
	mov	edx, DWORD PTR _this$[ebp]
	mov	DWORD PTR [edx+528], 0
	mov	eax, DWORD PTR _this$[ebp]
	mov	DWORD PTR [eax+532], 0
	mov	ecx, DWORD PTR _this$[ebp]
	mov	DWORD PTR [ecx+556], -1
	mov	edx, DWORD PTR _this$[ebp]
	mov	DWORD PTR [edx+564], -1
	mov	eax, DWORD PTR _this$[ebp]
	mov	DWORD PTR [eax+568], -1
	mov	ecx, DWORD PTR _this$[ebp]
	mov	DWORD PTR [ecx+572], -1
	mov	edx, DWORD PTR _this$[ebp]
	mov	DWORD PTR [edx+576], -1
	mov	eax, DWORD PTR _this$[ebp]
	mov	DWORD PTR [eax+580], -1
	mov	ecx, DWORD PTR _this$[ebp]
	mov	BYTE PTR [ecx+584], 0
	mov	edx, DWORD PTR _this$[ebp]
	mov	BYTE PTR [edx+585], 0
	mov	eax, DWORD PTR _this$[ebp]
	mov	BYTE PTR [eax+586], 0
	mov	ecx, DWORD PTR _this$[ebp]
	mov	BYTE PTR [ecx+587], 0
	mov	edx, DWORD PTR _this$[ebp]
	mov	BYTE PTR [edx+588], 0
	mov	eax, DWORD PTR _this$[ebp]
	mov	BYTE PTR [eax+589], 0
	mov	ecx, DWORD PTR _this$[ebp]
	mov	BYTE PTR [ecx+590], 0
	mov	edx, DWORD PTR _this$[ebp]
	mov	BYTE PTR [edx+591], 0
	mov	eax, DWORD PTR _this$[ebp]
	mov	BYTE PTR [eax+592], 0
	mov	ecx, DWORD PTR _this$[ebp]
	mov	BYTE PTR [ecx+593], 0
	mov	edx, DWORD PTR _this$[ebp]
	mov	BYTE PTR [edx+594], 0
	mov	eax, DWORD PTR _this$[ebp]
	mov	BYTE PTR [eax+595], 0
	mov	ecx, DWORD PTR _this$[ebp]
	mov	BYTE PTR [ecx+596], 0
	mov	edx, DWORD PTR _this$[ebp]
	mov	BYTE PTR [edx+597], 0
	mov	eax, DWORD PTR _this$[ebp]
	mov	BYTE PTR [eax+598], 0
	mov	ecx, DWORD PTR _this$[ebp]
	mov	BYTE PTR [ecx+599], 0
	mov	edx, DWORD PTR _this$[ebp]
	mov	BYTE PTR [edx+600], 0
	mov	eax, DWORD PTR _this$[ebp]
	mov	BYTE PTR [eax+601], 0
	mov	ecx, DWORD PTR _this$[ebp]
	mov	BYTE PTR [ecx+602], 0
	mov	edx, DWORD PTR _this$[ebp]
	mov	BYTE PTR [edx+603], 0
	mov	eax, DWORD PTR _this$[ebp]
	mov	BYTE PTR [eax+604], 0
	mov	ecx, DWORD PTR _this$[ebp]
	mov	BYTE PTR [ecx+605], 0
	mov	edx, DWORD PTR _this$[ebp]
	add	edx, 608				; 00000260H
	mov	DWORD PTR $T227750[ebp], edx
	mov	ecx, DWORD PTR $T227750[ebp]
	call	DWORD PTR __imp_??0?$basic_string@DU?$char_traits@D@std@@V?$allocator@D@2@@std@@QAE@XZ
	mov	BYTE PTR __$EHRec$[ebp+8], 1
	mov	eax, DWORD PTR _this$[ebp]
	mov	DWORD PTR [eax+636], 0
	mov	ecx, DWORD PTR _this$[ebp]
	mov	DWORD PTR [ecx+640], 0
	mov	edx, DWORD PTR _this$[ebp]
	mov	DWORD PTR [edx+644], 0
	mov	eax, DWORD PTR _this$[ebp]
	mov	DWORD PTR [eax+648], 0
	mov	ecx, DWORD PTR _this$[ebp]
	mov	DWORD PTR [ecx+652], 0
	mov	edx, DWORD PTR _this$[ebp]
	mov	DWORD PTR [edx+656], 0
	mov	eax, DWORD PTR _this$[ebp]
	mov	DWORD PTR [eax+660], 0
	mov	ecx, DWORD PTR _this$[ebp]
	mov	DWORD PTR [ecx+664], 0
	mov	edx, DWORD PTR _this$[ebp]
	mov	DWORD PTR [edx+668], 0
	mov	eax, DWORD PTR _this$[ebp]
	mov	DWORD PTR [eax+672], 0
	mov	ecx, DWORD PTR _this$[ebp]
	mov	DWORD PTR [ecx+684], 0
	mov	edx, DWORD PTR _this$[ebp]
	mov	DWORD PTR [edx+688], 0
	mov	eax, DWORD PTR _this$[ebp]
	mov	DWORD PTR [eax+692], 0
	mov	ecx, DWORD PTR _this$[ebp]
	add	ecx, 696				; 000002b8H
	mov	DWORD PTR $T227843[ebp], ecx
	lea	edx, DWORD PTR $T227838[ebp]
	push	edx
	lea	eax, DWORD PTR $T227839[ebp]
	push	eax
	mov	ecx, DWORD PTR $T227843[ebp]
	call	??0?$_Tree@V?$_Tmap_traits@HHU?$less@H@std@@V?$allocator@U?$pair@$$CBHH@std@@@2@$00@std@@@std@@QAE@ABU?$less@H@1@ABV?$allocator@U?$pair@$$CBHH@std@@@1@@Z ; std::_Tree<std::_Tmap_traits<int,int,std::less<int>,std::allocator<std::pair<int const ,int> >,1> >::_Tree<std::_Tmap_traits<int,int,std::less<int>,std::allocator<std::pair<int const ,int> >,1> >
	mov	BYTE PTR __$EHRec$[ebp+8], 2
	mov	ecx, DWORD PTR _this$[ebp]
	add	ecx, 708				; 000002c4H
	mov	DWORD PTR $T227924[ebp], ecx
	lea	edx, DWORD PTR $T227874[ebp]
	mov	DWORD PTR $T227850[ebp], edx
	lea	eax, DWORD PTR $T227861[ebp]
	mov	DWORD PTR $T227857[ebp], eax
	mov	ecx, DWORD PTR $T227924[ebp]
	mov	DWORD PTR tv388[ebp], ecx
	mov	edx, DWORD PTR $T227924[ebp]
	mov	DWORD PTR tv312[ebp], edx
	mov	BYTE PTR __$EHRec$[ebp+8], 3
	push	0
	mov	ecx, DWORD PTR $T227924[ebp]
	call	?_Buy@?$vector@UFreeResourceXCities@@V?$allocator@UFreeResourceXCities@@@std@@@std@@IAE_NI@Z ; std::vector<FreeResourceXCities,std::allocator<FreeResourceXCities> >::_Buy
	mov	BYTE PTR __$EHRec$[ebp+8], 4
	mov	ecx, DWORD PTR _this$[ebp]
	add	ecx, 724				; 000002d4H
	call	??0?$vector@_NV?$allocator@_N@std@@@std@@QAE@XZ ; std::vector<bool,std::allocator<bool> >::vector<bool,std::allocator<bool> >
	mov	BYTE PTR __$EHRec$[ebp+8], 5
	mov	ecx, DWORD PTR _this$[ebp]
	add	ecx, 744				; 000002e8H
	call	??0?$vector@_NV?$allocator@_N@std@@@std@@QAE@XZ ; std::vector<bool,std::allocator<bool> >::vector<bool,std::allocator<bool> >

; 174  : }

	mov	DWORD PTR __$EHRec$[ebp+8], -1
	mov	eax, DWORD PTR _this$[ebp]
	mov	ecx, DWORD PTR __$EHRec$[ebp]
	mov	DWORD PTR fs:0, ecx
	pop	ecx
	mov	esp, ebp
	pop	ebp
	ret	0
_TEXT	ENDS
;	COMDAT text$x
text$x	SEGMENT
__unwindfunclet$??0CvTraitEntry@@QAE@XZ$0:
	mov	ecx, DWORD PTR _this$[ebp]
	jmp	??1CvBaseInfo@@QAE@XZ
__unwindfunclet$??0CvTraitEntry@@QAE@XZ$1:
	mov	ecx, DWORD PTR _this$[ebp]
	add	ecx, 608				; 00000260H
	jmp	??1CvString@@QAE@XZ			; CvString::~CvString
__unwindfunclet$??0CvTraitEntry@@QAE@XZ$2:
	mov	ecx, DWORD PTR _this$[ebp]
	add	ecx, 696				; 000002b8H
	jmp	??1?$multimap@HHU?$less@H@std@@V?$allocator@U?$pair@$$CBHH@std@@@2@@std@@QAE@XZ
__unwindfunclet$??0CvTraitEntry@@QAE@XZ$11:
	mov	ecx, DWORD PTR $T227924[ebp]
	jmp	??1?$_Vector_val@UFreeResourceXCities@@V?$allocator@UFreeResourceXCities@@@std@@@std@@QAE@XZ
__unwindfunclet$??0CvTraitEntry@@QAE@XZ$3:
	mov	ecx, DWORD PTR _this$[ebp]
	add	ecx, 708				; 000002c4H
	jmp	??1?$vector@UFreeResourceXCities@@V?$allocator@UFreeResourceXCities@@@std@@@std@@QAE@XZ ; std::vector<FreeResourceXCities,std::allocator<FreeResourceXCities> >::~vector<FreeResourceXCities,std::allocator<FreeResourceXCities> >
__unwindfunclet$??0CvTraitEntry@@QAE@XZ$4:
	mov	ecx, DWORD PTR _this$[ebp]
	add	ecx, 724				; 000002d4H
	jmp	??1?$vector@_NV?$allocator@_N@std@@@std@@QAE@XZ ; std::vector<bool,std::allocator<bool> >::~vector<bool,std::allocator<bool> >
__ehhandler$??0CvTraitEntry@@QAE@XZ:
	mov	edx, DWORD PTR [esp+8]
	lea	eax, DWORD PTR [edx+12]
	mov	ecx, DWORD PTR [edx-420]
	xor	ecx, eax
	call	@__security_check_cookie@4
	mov	eax, OFFSET __ehfuncinfo$??0CvTraitEntry@@QAE@XZ
	jmp	___CxxFrameHandler3
text$x	ENDS
??0CvTraitEntry@@QAE@XZ ENDP				; CvTraitEntry::CvTraitEntry
EXTRN	__imp_??1?$basic_string@DU?$char_traits@D@std@@V?$allocator@D@2@@std@@QAE@XZ:PROC
;	COMDAT xdata$x
xdata$x	SEGMENT
__ehfuncinfo$??1CvBaseInfo@@QAE@XZ DD 019930522H
	DD	08H
	DD	FLAT:__unwindtable$??1CvBaseInfo@@QAE@XZ
	DD	2 DUP(00H)
	DD	2 DUP(00H)
	DD	00H
	DD	01H
__unwindtable$??1CvBaseInfo@@QAE@XZ DD 0ffffffffH
	DD	FLAT:__unwindfunclet$??1CvBaseInfo@@QAE@XZ$0
	DD	00H
	DD	FLAT:__unwindfunclet$??1CvBaseInfo@@QAE@XZ$1
	DD	01H
	DD	FLAT:__unwindfunclet$??1CvBaseInfo@@QAE@XZ$2
	DD	02H
	DD	FLAT:__unwindfunclet$??1CvBaseInfo@@QAE@XZ$3
	DD	03H
	DD	FLAT:__unwindfunclet$??1CvBaseInfo@@QAE@XZ$4
	DD	04H
	DD	FLAT:__unwindfunclet$??1CvBaseInfo@@QAE@XZ$5
	DD	05H
	DD	FLAT:__unwindfunclet$??1CvBaseInfo@@QAE@XZ$6
	DD	06H
	DD	FLAT:__unwindfunclet$??1CvBaseInfo@@QAE@XZ$7
; Function compile flags: /Odtp
xdata$x	ENDS
;	COMDAT ??1CvBaseInfo@@QAE@XZ
_TEXT	SEGMENT
_this$ = -52						; size = 4
$T228182 = -48						; size = 4
$T228177 = -44						; size = 4
$T228172 = -40						; size = 4
$T228167 = -36						; size = 4
$T228162 = -32						; size = 4
$T228157 = -28						; size = 4
$T228152 = -24						; size = 4
$T228147 = -20						; size = 4
$T228142 = -16						; size = 4
__$EHRec$ = -12						; size = 12
??1CvBaseInfo@@QAE@XZ PROC				; CvBaseInfo::~CvBaseInfo, COMDAT
; _this$ = ecx
	push	ebp
	mov	ebp, esp
	push	-1
	push	__ehhandler$??1CvBaseInfo@@QAE@XZ
	mov	eax, DWORD PTR fs:0
	push	eax
	sub	esp, 40					; 00000028H
	mov	eax, DWORD PTR ___security_cookie
	xor	eax, ebp
	push	eax
	lea	eax, DWORD PTR __$EHRec$[ebp]
	mov	DWORD PTR fs:0, eax
	mov	DWORD PTR _this$[ebp], ecx
	mov	DWORD PTR __$EHRec$[ebp+8], 7
	mov	eax, DWORD PTR _this$[ebp]
	add	eax, 232				; 000000e8H
	mov	DWORD PTR $T228142[ebp], eax
	mov	ecx, DWORD PTR $T228142[ebp]
	call	DWORD PTR __imp_??1?$basic_string@DU?$char_traits@D@std@@V?$allocator@D@2@@std@@QAE@XZ
	mov	BYTE PTR __$EHRec$[ebp+8], 6
	mov	ecx, DWORD PTR _this$[ebp]
	add	ecx, 204				; 000000ccH
	mov	DWORD PTR $T228147[ebp], ecx
	mov	ecx, DWORD PTR $T228147[ebp]
	call	DWORD PTR __imp_??1?$basic_string@DU?$char_traits@D@std@@V?$allocator@D@2@@std@@QAE@XZ
	mov	BYTE PTR __$EHRec$[ebp+8], 5
	mov	edx, DWORD PTR _this$[ebp]
	add	edx, 176				; 000000b0H
	mov	DWORD PTR $T228152[ebp], edx
	mov	ecx, DWORD PTR $T228152[ebp]
	call	DWORD PTR __imp_??1?$basic_string@DU?$char_traits@D@std@@V?$allocator@D@2@@std@@QAE@XZ
	mov	BYTE PTR __$EHRec$[ebp+8], 4
	mov	eax, DWORD PTR _this$[ebp]
	add	eax, 148				; 00000094H
	mov	DWORD PTR $T228157[ebp], eax
	mov	ecx, DWORD PTR $T228157[ebp]
	call	DWORD PTR __imp_??1?$basic_string@DU?$char_traits@D@std@@V?$allocator@D@2@@std@@QAE@XZ
	mov	BYTE PTR __$EHRec$[ebp+8], 3
	mov	ecx, DWORD PTR _this$[ebp]
	add	ecx, 120				; 00000078H
	mov	DWORD PTR $T228162[ebp], ecx
	mov	ecx, DWORD PTR $T228162[ebp]
	call	DWORD PTR __imp_??1?$basic_string@DU?$char_traits@D@std@@V?$allocator@D@2@@std@@QAE@XZ
	mov	BYTE PTR __$EHRec$[ebp+8], 2
	mov	edx, DWORD PTR _this$[ebp]
	add	edx, 92					; 0000005cH
	mov	DWORD PTR $T228167[ebp], edx
	mov	ecx, DWORD PTR $T228167[ebp]
	call	DWORD PTR __imp_??1?$basic_string@DU?$char_traits@D@std@@V?$allocator@D@2@@std@@QAE@XZ
	mov	BYTE PTR __$EHRec$[ebp+8], 1
	mov	eax, DWORD PTR _this$[ebp]
	add	eax, 64					; 00000040H
	mov	DWORD PTR $T228172[ebp], eax
	mov	ecx, DWORD PTR $T228172[ebp]
	call	DWORD PTR __imp_??1?$basic_string@DU?$char_traits@D@std@@V?$allocator@D@2@@std@@QAE@XZ
	mov	BYTE PTR __$EHRec$[ebp+8], 0
	mov	ecx, DWORD PTR _this$[ebp]
	add	ecx, 36					; 00000024H
	mov	DWORD PTR $T228177[ebp], ecx
	mov	ecx, DWORD PTR $T228177[ebp]
	call	DWORD PTR __imp_??1?$basic_string@DU?$char_traits@D@std@@V?$allocator@D@2@@std@@QAE@XZ
	mov	DWORD PTR __$EHRec$[ebp+8], -1
	mov	edx, DWORD PTR _this$[ebp]
	add	edx, 8
	mov	DWORD PTR $T228182[ebp], edx
	mov	ecx, DWORD PTR $T228182[ebp]
	call	DWORD PTR __imp_??1?$basic_string@DU?$char_traits@D@std@@V?$allocator@D@2@@std@@QAE@XZ
	mov	ecx, DWORD PTR __$EHRec$[ebp]
	mov	DWORD PTR fs:0, ecx
	pop	ecx
	mov	esp, ebp
	pop	ebp
	ret	0
_TEXT	ENDS
;	COMDAT text$x
text$x	SEGMENT
__unwindfunclet$??1CvBaseInfo@@QAE@XZ$0:
	mov	ecx, DWORD PTR _this$[ebp]
	add	ecx, 8
	jmp	??1CvString@@QAE@XZ			; CvString::~CvString
__unwindfunclet$??1CvBaseInfo@@QAE@XZ$1:
	mov	ecx, DWORD PTR _this$[ebp]
	add	ecx, 36					; 00000024H
	jmp	??1CvString@@QAE@XZ			; CvString::~CvString
__unwindfunclet$??1CvBaseInfo@@QAE@XZ$2:
	mov	ecx, DWORD PTR _this$[ebp]
	add	ecx, 64					; 00000040H
	jmp	??1CvString@@QAE@XZ			; CvString::~CvString
__unwindfunclet$??1CvBaseInfo@@QAE@XZ$3:
	mov	ecx, DWORD PTR _this$[ebp]
	add	ecx, 92					; 0000005cH
	jmp	??1CvString@@QAE@XZ			; CvString::~CvString
__unwindfunclet$??1CvBaseInfo@@QAE@XZ$4:
	mov	ecx, DWORD PTR _this$[ebp]
	add	ecx, 120				; 00000078H
	jmp	??1CvString@@QAE@XZ			; CvString::~CvString
__unwindfunclet$??1CvBaseInfo@@QAE@XZ$5:
	mov	ecx, DWORD PTR _this$[ebp]
	add	ecx, 148				; 00000094H
	jmp	??1CvString@@QAE@XZ			; CvString::~CvString
__unwindfunclet$??1CvBaseInfo@@QAE@XZ$6:
	mov	ecx, DWORD PTR _this$[ebp]
	add	ecx, 176				; 000000b0H
	jmp	??1CvString@@QAE@XZ			; CvString::~CvString
__unwindfunclet$??1CvBaseInfo@@QAE@XZ$7:
	mov	ecx, DWORD PTR _this$[ebp]
	add	ecx, 204				; 000000ccH
	jmp	??1CvString@@QAE@XZ			; CvString::~CvString
__ehhandler$??1CvBaseInfo@@QAE@XZ:
	mov	edx, DWORD PTR [esp+8]
	lea	eax, DWORD PTR [edx+12]
	mov	ecx, DWORD PTR [edx-44]
	xor	ecx, eax
	call	@__security_check_cookie@4
	mov	eax, OFFSET __ehfuncinfo$??1CvBaseInfo@@QAE@XZ
	jmp	___CxxFrameHandler3
text$x	ENDS
??1CvBaseInfo@@QAE@XZ ENDP				; CvBaseInfo::~CvBaseInfo
PUBLIC	??1?$_Tree_val@V?$_Tmap_traits@HHU?$less@H@std@@V?$allocator@U?$pair@$$CBHH@std@@@2@$00@std@@@std@@QAE@XZ ; std::_Tree_val<std::_Tmap_traits<int,int,std::less<int>,std::allocator<std::pair<int const ,int> >,1> >::~_Tree_val<std::_Tmap_traits<int,int,std::less<int>,std::allocator<std::pair<int const ,int> >,1> >
PUBLIC	?_Tidy@?$_Tree@V?$_Tmap_traits@HHU?$less@H@std@@V?$allocator@U?$pair@$$CBHH@std@@@2@$00@std@@@std@@IAEXXZ ; std::_Tree<std::_Tmap_traits<int,int,std::less<int>,std::allocator<std::pair<int const ,int> >,1> >::_Tidy
;	COMDAT xdata$x
xdata$x	SEGMENT
__unwindtable$??1?$multimap@HHU?$less@H@std@@V?$allocator@U?$pair@$$CBHH@std@@@2@@std@@QAE@XZ DD 0ffffffffH
	DD	FLAT:__unwindfunclet$??1?$multimap@HHU?$less@H@std@@V?$allocator@U?$pair@$$CBHH@std@@@2@@std@@QAE@XZ$1
__ehfuncinfo$??1?$multimap@HHU?$less@H@std@@V?$allocator@U?$pair@$$CBHH@std@@@2@@std@@QAE@XZ DD 019930522H
	DD	01H
	DD	FLAT:__unwindtable$??1?$multimap@HHU?$less@H@std@@V?$allocator@U?$pair@$$CBHH@std@@@2@@std@@QAE@XZ
	DD	2 DUP(00H)
	DD	2 DUP(00H)
	DD	00H
	DD	01H
; Function compile flags: /Odtp
xdata$x	ENDS
;	COMDAT ??1?$multimap@HHU?$less@H@std@@V?$allocator@U?$pair@$$CBHH@std@@@2@@std@@QAE@XZ
_TEXT	SEGMENT
_this$ = -100						; size = 4
__$EHRec$ = -12						; size = 12
??1?$multimap@HHU?$less@H@std@@V?$allocator@U?$pair@$$CBHH@std@@@2@@std@@QAE@XZ PROC ; std::multimap<int,int,std::less<int>,std::allocator<std::pair<int const ,int> > >::~multimap<int,int,std::less<int>,std::allocator<std::pair<int const ,int> > >, COMDAT
; _this$ = ecx
	push	ebp
	mov	ebp, esp
	push	-1
	push	__ehhandler$??1?$multimap@HHU?$less@H@std@@V?$allocator@U?$pair@$$CBHH@std@@@2@@std@@QAE@XZ
	mov	eax, DWORD PTR fs:0
	push	eax
	sub	esp, 88					; 00000058H
	mov	eax, DWORD PTR ___security_cookie
	xor	eax, ebp
	push	eax
	lea	eax, DWORD PTR __$EHRec$[ebp]
	mov	DWORD PTR fs:0, eax
	mov	DWORD PTR _this$[ebp], ecx
	mov	DWORD PTR __$EHRec$[ebp+8], 0
	mov	ecx, DWORD PTR _this$[ebp]
	call	?_Tidy@?$_Tree@V?$_Tmap_traits@HHU?$less@H@std@@V?$allocator@U?$pair@$$CBHH@std@@@2@$00@std@@@std@@IAEXXZ ; std::_Tree<std::_Tmap_traits<int,int,std::less<int>,std::allocator<std::pair<int const ,int> >,1> >::_Tidy
	mov	DWORD PTR __$EHRec$[ebp+8], -1
	mov	ecx, DWORD PTR __$EHRec$[ebp]
	mov	DWORD PTR fs:0, ecx
	pop	ecx
	mov	esp, ebp
	pop	ebp
	ret	0
_TEXT	ENDS
;	COMDAT text$x
text$x	SEGMENT
__unwindfunclet$??1?$multimap@HHU?$less@H@std@@V?$allocator@U?$pair@$$CBHH@std@@@2@@std@@QAE@XZ$1:
	mov	ecx, DWORD PTR _this$[ebp]
	jmp	??1?$_Tree_val@V?$_Tmap_traits@HHU?$less@H@std@@V?$allocator@U?$pair@$$CBHH@std@@@2@$00@std@@@std@@QAE@XZ
__ehhandler$??1?$multimap@HHU?$less@H@std@@V?$allocator@U?$pair@$$CBHH@std@@@2@@std@@QAE@XZ:
	mov	edx, DWORD PTR [esp+8]
	lea	eax, DWORD PTR [edx+12]
	mov	ecx, DWORD PTR [edx-92]
	xor	ecx, eax
	call	@__security_check_cookie@4
	mov	eax, OFFSET __ehfuncinfo$??1?$multimap@HHU?$less@H@std@@V?$allocator@U?$pair@$$CBHH@std@@@2@@std@@QAE@XZ
	jmp	___CxxFrameHandler3
text$x	ENDS
??1?$multimap@HHU?$less@H@std@@V?$allocator@U?$pair@$$CBHH@std@@@2@@std@@QAE@XZ ENDP ; std::multimap<int,int,std::less<int>,std::allocator<std::pair<int const ,int> > >::~multimap<int,int,std::less<int>,std::allocator<std::pair<int const ,int> > >
PUBLIC	??1?$_Vector_val@IV?$allocator@I@std@@@std@@QAE@XZ ; std::_Vector_val<unsigned int,std::allocator<unsigned int> >::~_Vector_val<unsigned int,std::allocator<unsigned int> >
PUBLIC	??1?$_Container_base_aux_alloc_empty@V?$allocator@_N@std@@@std@@IAE@XZ ; std::_Container_base_aux_alloc_empty<std::allocator<bool> >::~_Container_base_aux_alloc_empty<std::allocator<bool> >
PUBLIC	?_Tidy@?$vector@UFreeResourceXCities@@V?$allocator@UFreeResourceXCities@@@std@@@std@@IAEXXZ ; std::vector<FreeResourceXCities,std::allocator<FreeResourceXCities> >::_Tidy
PUBLIC	?_Tidy@?$vector@IV?$allocator@I@std@@@std@@IAEXXZ ; std::vector<unsigned int,std::allocator<unsigned int> >::_Tidy
PUBLIC	??1CvTraitEntry@@QAE@XZ				; CvTraitEntry::~CvTraitEntry
EXTRN	?SafeDelete2DArray@CvDatabaseUtility@@SAXAAPAPAH@Z:PROC ; CvDatabaseUtility::SafeDelete2DArray
;	COMDAT xdata$x
; File d:\sources\lekmod_git\checkout\lekmod_dll\cvgamecoredllutil\include\cvstring.h
xdata$x	SEGMENT
__ehfuncinfo$??1CvTraitEntry@@QAE@XZ DD 019930522H
	DD	0cH
	DD	FLAT:__unwindtable$??1CvTraitEntry@@QAE@XZ
	DD	2 DUP(00H)
	DD	2 DUP(00H)
	DD	00H
	DD	01H
__unwindtable$??1CvTraitEntry@@QAE@XZ DD 0ffffffffH
	DD	FLAT:__unwindfunclet$??1CvTraitEntry@@QAE@XZ$0
	DD	00H
	DD	FLAT:__unwindfunclet$??1CvTraitEntry@@QAE@XZ$1
	DD	01H
	DD	FLAT:__unwindfunclet$??1CvTraitEntry@@QAE@XZ$2
	DD	02H
	DD	FLAT:__unwindfunclet$??1CvTraitEntry@@QAE@XZ$3
	DD	03H
	DD	FLAT:__unwindfunclet$??1CvTraitEntry@@QAE@XZ$4
	DD	04H
	DD	FLAT:__unwindfunclet$??1CvTraitEntry@@QAE@XZ$5
	DD	04H
	DD	FLAT:__unwindfunclet$??1CvTraitEntry@@QAE@XZ$6
	DD	06H
	DD	FLAT:__unwindfunclet$??1CvTraitEntry@@QAE@XZ$8
	DD	03H
	DD	FLAT:__unwindfunclet$??1CvTraitEntry@@QAE@XZ$10
	DD	08H
	DD	FLAT:__unwindfunclet$??1CvTraitEntry@@QAE@XZ$12
	DD	02H
	DD	FLAT:__unwindfunclet$??1CvTraitEntry@@QAE@XZ$14
	DD	01H
	DD	FLAT:__unwindfunclet$??1CvTraitEntry@@QAE@XZ$17
; Function compile flags: /Odtp
; File d:\sources\lekmod_git\checkout\lekmod_dll\cvgamecoredll_expansion2\cvtraitclasses.cpp
xdata$x	ENDS
;	COMDAT ??1CvTraitEntry@@QAE@XZ
_TEXT	SEGMENT
_this$ = -152						; size = 4
$T228786 = -112						; size = 4
$T228781 = -108						; size = 4
$T228622 = -64						; size = 4
$T228536 = -28						; size = 4
$T228522 = -24						; size = 4
$T228501 = -20						; size = 4
$T228487 = -16						; size = 4
__$EHRec$ = -12						; size = 12
??1CvTraitEntry@@QAE@XZ PROC				; CvTraitEntry::~CvTraitEntry, COMDAT
; _this$ = ecx

; 178  : {

	push	ebp
	mov	ebp, esp
	push	-1
	push	__ehhandler$??1CvTraitEntry@@QAE@XZ
	mov	eax, DWORD PTR fs:0
	push	eax
	sub	esp, 140				; 0000008cH
	mov	eax, DWORD PTR ___security_cookie
	xor	eax, ebp
	push	eax
	lea	eax, DWORD PTR __$EHRec$[ebp]
	mov	DWORD PTR fs:0, eax
	mov	DWORD PTR _this$[ebp], ecx
	mov	eax, DWORD PTR _this$[ebp]
	mov	DWORD PTR [eax], OFFSET ??_7CvTraitEntry@@6B@
	mov	DWORD PTR __$EHRec$[ebp+8], 5

; 179  : #ifdef AUI_DATABASE_UTILITY_PROPER_2D_ALLOCATION_AND_DESTRUCTION
; 180  : 	CvDatabaseUtility::SafeDelete2DArray(m_ppiImprovementYieldChanges.first, m_ppiImprovementYieldChanges.second);
; 181  : 	CvDatabaseUtility::SafeDelete2DArray(m_ppiSpecialistYieldChanges.first, m_ppiSpecialistYieldChanges.second);
; 182  : 	CvDatabaseUtility::SafeDelete2DArray(m_ppiUnimprovedFeatureYieldChanges.first, m_ppiUnimprovedFeatureYieldChanges.second);
; 183  : #else
; 184  : 	CvDatabaseUtility::SafeDelete2DArray(m_ppiImprovementYieldChanges);

	mov	ecx, DWORD PTR _this$[ebp]
	add	ecx, 684				; 000002acH
	push	ecx
	call	?SafeDelete2DArray@CvDatabaseUtility@@SAXAAPAPAH@Z ; CvDatabaseUtility::SafeDelete2DArray
	add	esp, 4

; 185  : 	CvDatabaseUtility::SafeDelete2DArray(m_ppiSpecialistYieldChanges);

	mov	edx, DWORD PTR _this$[ebp]
	add	edx, 688				; 000002b0H
	push	edx
	call	?SafeDelete2DArray@CvDatabaseUtility@@SAXAAPAPAH@Z ; CvDatabaseUtility::SafeDelete2DArray
	add	esp, 4

; 186  : #ifdef LEK_TRAIT_SPECIALIST_YIELD_MAX_ONE
; 187  : 	CvDatabaseUtility::SafeDelete2DArray(m_ppiAnySpecificSpecialistYieldChanges);
; 188  : #endif
; 189  : 	CvDatabaseUtility::SafeDelete2DArray(m_ppiUnimprovedFeatureYieldChanges);

	mov	eax, DWORD PTR _this$[ebp]
	add	eax, 692				; 000002b4H
	push	eax
	call	?SafeDelete2DArray@CvDatabaseUtility@@SAXAAPAPAH@Z ; CvDatabaseUtility::SafeDelete2DArray
	add	esp, 4

; 190  : #endif
; 191  : #ifdef AUI_WARNING_FIXES
; 192  : 	SAFE_DELETE_ARRAY(m_paiExtraYieldThreshold);
; 193  : 	SAFE_DELETE_ARRAY(m_paiYieldChange);
; 194  : 	SAFE_DELETE_ARRAY(m_paiYieldChangeStrategicResources);
; 195  : 	SAFE_DELETE_ARRAY(m_paiYieldChangeLuxuryResources); // NQMP GJS - New Netherlands UA
; 196  : 	SAFE_DELETE_ARRAY(m_paiYieldChangeNaturalWonder);
; 197  : 	SAFE_DELETE_ARRAY(m_paiYieldChangePerTradePartner);
; 198  : 	SAFE_DELETE_ARRAY(m_paiYieldChangeIncomingTradeRoute);
; 199  : 	SAFE_DELETE_ARRAY(m_paiYieldModifier);
; 200  : 	SAFE_DELETE_ARRAY(m_piStrategicResourceQuantityModifier);
; 201  : 	SAFE_DELETE_ARRAY(m_piResourceQuantityModifiers);
; 202  : 	SAFE_DELETE_ARRAY(m_piMovesChangeUnitCombats);
; 203  : 	SAFE_DELETE_ARRAY(m_piMaintenanceModifierUnitCombats);
; 204  : #endif
; 205  : }

	mov	BYTE PTR __$EHRec$[ebp+8], 4
	mov	ecx, DWORD PTR _this$[ebp]
	add	ecx, 744				; 000002e8H
	mov	DWORD PTR $T228501[ebp], ecx
	mov	BYTE PTR __$EHRec$[ebp+8], 6
	mov	edx, DWORD PTR $T228501[ebp]
	mov	DWORD PTR [edx], 0
	mov	eax, DWORD PTR $T228501[ebp]
	add	eax, 4
	mov	DWORD PTR $T228487[ebp], eax
	mov	BYTE PTR __$EHRec$[ebp+8], 7
	mov	ecx, DWORD PTR $T228487[ebp]
	call	?_Tidy@?$vector@IV?$allocator@I@std@@@std@@IAEXXZ ; std::vector<unsigned int,std::allocator<unsigned int> >::_Tidy
	mov	BYTE PTR __$EHRec$[ebp+8], 6
	mov	BYTE PTR __$EHRec$[ebp+8], 4
	mov	BYTE PTR __$EHRec$[ebp+8], 3
	mov	ecx, DWORD PTR _this$[ebp]
	add	ecx, 724				; 000002d4H
	mov	DWORD PTR $T228536[ebp], ecx
	mov	BYTE PTR __$EHRec$[ebp+8], 8
	mov	edx, DWORD PTR $T228536[ebp]
	mov	DWORD PTR [edx], 0
	mov	eax, DWORD PTR $T228536[ebp]
	add	eax, 4
	mov	DWORD PTR $T228522[ebp], eax
	mov	BYTE PTR __$EHRec$[ebp+8], 9
	mov	ecx, DWORD PTR $T228522[ebp]
	call	?_Tidy@?$vector@IV?$allocator@I@std@@@std@@IAEXXZ ; std::vector<unsigned int,std::allocator<unsigned int> >::_Tidy
	mov	BYTE PTR __$EHRec$[ebp+8], 8
	mov	BYTE PTR __$EHRec$[ebp+8], 3
	mov	BYTE PTR __$EHRec$[ebp+8], 2
	mov	ecx, DWORD PTR _this$[ebp]
	add	ecx, 708				; 000002c4H
	mov	DWORD PTR $T228622[ebp], ecx
	mov	BYTE PTR __$EHRec$[ebp+8], 10		; 0000000aH
	mov	ecx, DWORD PTR $T228622[ebp]
	call	?_Tidy@?$vector@UFreeResourceXCities@@V?$allocator@UFreeResourceXCities@@@std@@@std@@IAEXXZ ; std::vector<FreeResourceXCities,std::allocator<FreeResourceXCities> >::_Tidy
	mov	BYTE PTR __$EHRec$[ebp+8], 2
	mov	BYTE PTR __$EHRec$[ebp+8], 1
	mov	edx, DWORD PTR _this$[ebp]
	add	edx, 696				; 000002b8H
	mov	DWORD PTR $T228781[ebp], edx
	mov	BYTE PTR __$EHRec$[ebp+8], 11		; 0000000bH
	mov	ecx, DWORD PTR $T228781[ebp]
	call	?_Tidy@?$_Tree@V?$_Tmap_traits@HHU?$less@H@std@@V?$allocator@U?$pair@$$CBHH@std@@@2@$00@std@@@std@@IAEXXZ ; std::_Tree<std::_Tmap_traits<int,int,std::less<int>,std::allocator<std::pair<int const ,int> >,1> >::_Tidy
	mov	BYTE PTR __$EHRec$[ebp+8], 1
	mov	BYTE PTR __$EHRec$[ebp+8], 0
	mov	eax, DWORD PTR _this$[ebp]
	add	eax, 608				; 00000260H
	mov	DWORD PTR $T228786[ebp], eax
	mov	ecx, DWORD PTR $T228786[ebp]
	call	DWORD PTR __imp_??1?$basic_string@DU?$char_traits@D@std@@V?$allocator@D@2@@std@@QAE@XZ
	mov	DWORD PTR __$EHRec$[ebp+8], -1
	mov	ecx, DWORD PTR _this$[ebp]
	call	??1CvBaseInfo@@QAE@XZ
	mov	ecx, DWORD PTR __$EHRec$[ebp]
	mov	DWORD PTR fs:0, ecx
	pop	ecx
	mov	esp, ebp
	pop	ebp
	ret	0
_TEXT	ENDS
;	COMDAT text$x
text$x	SEGMENT
__unwindfunclet$??1CvTraitEntry@@QAE@XZ$0:
	mov	ecx, DWORD PTR _this$[ebp]
	jmp	??1CvBaseInfo@@QAE@XZ
__unwindfunclet$??1CvTraitEntry@@QAE@XZ$1:
	mov	ecx, DWORD PTR _this$[ebp]
	add	ecx, 608				; 00000260H
	jmp	??1CvString@@QAE@XZ			; CvString::~CvString
__unwindfunclet$??1CvTraitEntry@@QAE@XZ$2:
	mov	ecx, DWORD PTR _this$[ebp]
	add	ecx, 696				; 000002b8H
	jmp	??1?$multimap@HHU?$less@H@std@@V?$allocator@U?$pair@$$CBHH@std@@@2@@std@@QAE@XZ
__unwindfunclet$??1CvTraitEntry@@QAE@XZ$3:
	mov	ecx, DWORD PTR _this$[ebp]
	add	ecx, 708				; 000002c4H
	jmp	??1?$vector@UFreeResourceXCities@@V?$allocator@UFreeResourceXCities@@@std@@@std@@QAE@XZ ; std::vector<FreeResourceXCities,std::allocator<FreeResourceXCities> >::~vector<FreeResourceXCities,std::allocator<FreeResourceXCities> >
__unwindfunclet$??1CvTraitEntry@@QAE@XZ$4:
	mov	ecx, DWORD PTR _this$[ebp]
	add	ecx, 724				; 000002d4H
	jmp	??1?$vector@_NV?$allocator@_N@std@@@std@@QAE@XZ ; std::vector<bool,std::allocator<bool> >::~vector<bool,std::allocator<bool> >
__unwindfunclet$??1CvTraitEntry@@QAE@XZ$5:
	mov	ecx, DWORD PTR _this$[ebp]
	add	ecx, 744				; 000002e8H
	jmp	??1?$vector@_NV?$allocator@_N@std@@@std@@QAE@XZ ; std::vector<bool,std::allocator<bool> >::~vector<bool,std::allocator<bool> >
__unwindfunclet$??1CvTraitEntry@@QAE@XZ$6:
	mov	ecx, DWORD PTR $T228501[ebp]
	jmp	??1?$_Container_base_aux_alloc_empty@V?$allocator@_N@std@@@std@@IAE@XZ ; std::_Container_base_aux_alloc_empty<std::allocator<bool> >::~_Container_base_aux_alloc_empty<std::allocator<bool> >
__unwindfunclet$??1CvTraitEntry@@QAE@XZ$8:
	mov	ecx, DWORD PTR $T228487[ebp]
	jmp	??1?$_Vector_val@IV?$allocator@I@std@@@std@@QAE@XZ
__unwindfunclet$??1CvTraitEntry@@QAE@XZ$10:
	mov	ecx, DWORD PTR $T228536[ebp]
	jmp	??1?$_Container_base_aux_alloc_empty@V?$allocator@_N@std@@@std@@IAE@XZ ; std::_Container_base_aux_alloc_empty<std::allocator<bool> >::~_Container_base_aux_alloc_empty<std::allocator<bool> >
__unwindfunclet$??1CvTraitEntry@@QAE@XZ$12:
	mov	ecx, DWORD PTR $T228522[ebp]
	jmp	??1?$_Vector_val@IV?$allocator@I@std@@@std@@QAE@XZ
__unwindfunclet$??1CvTraitEntry@@QAE@XZ$14:
	mov	ecx, DWORD PTR $T228622[ebp]
	jmp	??1?$_Vector_val@UFreeResourceXCities@@V?$allocator@UFreeResourceXCities@@@std@@@std@@QAE@XZ
__unwindfunclet$??1CvTraitEntry@@QAE@XZ$17:
	mov	ecx, DWORD PTR $T228781[ebp]
	jmp	??1?$_Tree_val@V?$_Tmap_traits@HHU?$less@H@std@@V?$allocator@U?$pair@$$CBHH@std@@@2@$00@std@@@std@@QAE@XZ
__ehhandler$??1CvTraitEntry@@QAE@XZ:
	mov	edx, DWORD PTR [esp+8]
	lea	eax, DWORD PTR [edx+12]
	mov	ecx, DWORD PTR [edx-144]
	xor	ecx, eax
	call	@__security_check_cookie@4
	mov	eax, OFFSET __ehfuncinfo$??1CvTraitEntry@@QAE@XZ
	jmp	___CxxFrameHandler3
text$x	ENDS
??1CvTraitEntry@@QAE@XZ ENDP				; CvTraitEntry::~CvTraitEntry
PUBLIC	?GetLevelExperienceModifier@CvTraitEntry@@QBEHXZ ; CvTraitEntry::GetLevelExperienceModifier
; Function compile flags: /Odtp
;	COMDAT ?GetLevelExperienceModifier@CvTraitEntry@@QBEHXZ
_TEXT	SEGMENT
_this$ = -4						; size = 4
?GetLevelExperienceModifier@CvTraitEntry@@QBEHXZ PROC	; CvTraitEntry::GetLevelExperienceModifier, COMDAT
; _this$ = ecx

; 209  : {

	push	ebp
	mov	ebp, esp
	push	ecx
	mov	DWORD PTR _this$[ebp], ecx

; 210  : 	return m_iLevelExperienceModifier;

	mov	eax, DWORD PTR _this$[ebp]
	mov	eax, DWORD PTR [eax+260]

; 211  : }

	mov	esp, ebp
	pop	ebp
	ret	0
?GetLevelExperienceModifier@CvTraitEntry@@QBEHXZ ENDP	; CvTraitEntry::GetLevelExperienceModifier
_TEXT	ENDS
PUBLIC	?GetGreatPeopleRateModifier@CvTraitEntry@@QBEHXZ ; CvTraitEntry::GetGreatPeopleRateModifier
; Function compile flags: /Odtp
;	COMDAT ?GetGreatPeopleRateModifier@CvTraitEntry@@QBEHXZ
_TEXT	SEGMENT
_this$ = -4						; size = 4
?GetGreatPeopleRateModifier@CvTraitEntry@@QBEHXZ PROC	; CvTraitEntry::GetGreatPeopleRateModifier, COMDAT
; _this$ = ecx

; 215  : {

	push	ebp
	mov	ebp, esp
	push	ecx
	mov	DWORD PTR _this$[ebp], ecx

; 216  : 	return m_iGreatPeopleRateModifier;

	mov	eax, DWORD PTR _this$[ebp]
	mov	eax, DWORD PTR [eax+264]

; 217  : }

	mov	esp, ebp
	pop	ebp
	ret	0
?GetGreatPeopleRateModifier@CvTraitEntry@@QBEHXZ ENDP	; CvTraitEntry::GetGreatPeopleRateModifier
_TEXT	ENDS
PUBLIC	?GetGreatScientistRateModifier@CvTraitEntry@@QBEHXZ ; CvTraitEntry::GetGreatScientistRateModifier
; Function compile flags: /Odtp
;	COMDAT ?GetGreatScientistRateModifier@CvTraitEntry@@QBEHXZ
_TEXT	SEGMENT
_this$ = -4						; size = 4
?GetGreatScientistRateModifier@CvTraitEntry@@QBEHXZ PROC ; CvTraitEntry::GetGreatScientistRateModifier, COMDAT
; _this$ = ecx

; 221  : {

	push	ebp
	mov	ebp, esp
	push	ecx
	mov	DWORD PTR _this$[ebp], ecx

; 222  : 	return m_iGreatScientistRateModifier;

	mov	eax, DWORD PTR _this$[ebp]
	mov	eax, DWORD PTR [eax+268]

; 223  : }

	mov	esp, ebp
	pop	ebp
	ret	0
?GetGreatScientistRateModifier@CvTraitEntry@@QBEHXZ ENDP ; CvTraitEntry::GetGreatScientistRateModifier
_TEXT	ENDS
PUBLIC	?GetGreatGeneralRateModifier@CvTraitEntry@@QBEHXZ ; CvTraitEntry::GetGreatGeneralRateModifier
; Function compile flags: /Odtp
;	COMDAT ?GetGreatGeneralRateModifier@CvTraitEntry@@QBEHXZ
_TEXT	SEGMENT
_this$ = -4						; size = 4
?GetGreatGeneralRateModifier@CvTraitEntry@@QBEHXZ PROC	; CvTraitEntry::GetGreatGeneralRateModifier, COMDAT
; _this$ = ecx

; 227  : {

	push	ebp
	mov	ebp, esp
	push	ecx
	mov	DWORD PTR _this$[ebp], ecx

; 228  : 	return m_iGreatGeneralRateModifier;

	mov	eax, DWORD PTR _this$[ebp]
	mov	eax, DWORD PTR [eax+272]

; 229  : }

	mov	esp, ebp
	pop	ebp
	ret	0
?GetGreatGeneralRateModifier@CvTraitEntry@@QBEHXZ ENDP	; CvTraitEntry::GetGreatGeneralRateModifier
_TEXT	ENDS
PUBLIC	?GetGreatGeneralExtraBonus@CvTraitEntry@@QBEHXZ	; CvTraitEntry::GetGreatGeneralExtraBonus
; Function compile flags: /Odtp
;	COMDAT ?GetGreatGeneralExtraBonus@CvTraitEntry@@QBEHXZ
_TEXT	SEGMENT
_this$ = -4						; size = 4
?GetGreatGeneralExtraBonus@CvTraitEntry@@QBEHXZ PROC	; CvTraitEntry::GetGreatGeneralExtraBonus, COMDAT
; _this$ = ecx

; 233  : {

	push	ebp
	mov	ebp, esp
	push	ecx
	mov	DWORD PTR _this$[ebp], ecx

; 234  : 	return m_iGreatGeneralExtraBonus;

	mov	eax, DWORD PTR _this$[ebp]
	mov	eax, DWORD PTR [eax+276]

; 235  : }

	mov	esp, ebp
	pop	ebp
	ret	0
?GetGreatGeneralExtraBonus@CvTraitEntry@@QBEHXZ ENDP	; CvTraitEntry::GetGreatGeneralExtraBonus
_TEXT	ENDS
PUBLIC	?GetGreatPersonGiftInfluence@CvTraitEntry@@QBEHXZ ; CvTraitEntry::GetGreatPersonGiftInfluence
; Function compile flags: /Odtp
;	COMDAT ?GetGreatPersonGiftInfluence@CvTraitEntry@@QBEHXZ
_TEXT	SEGMENT
_this$ = -4						; size = 4
?GetGreatPersonGiftInfluence@CvTraitEntry@@QBEHXZ PROC	; CvTraitEntry::GetGreatPersonGiftInfluence, COMDAT
; _this$ = ecx

; 239  : {

	push	ebp
	mov	ebp, esp
	push	ecx
	mov	DWORD PTR _this$[ebp], ecx

; 240  : 	return m_iGreatPersonGiftInfluence;

	mov	eax, DWORD PTR _this$[ebp]
	mov	eax, DWORD PTR [eax+280]

; 241  : }

	mov	esp, ebp
	pop	ebp
	ret	0
?GetGreatPersonGiftInfluence@CvTraitEntry@@QBEHXZ ENDP	; CvTraitEntry::GetGreatPersonGiftInfluence
_TEXT	ENDS
PUBLIC	?GetMaxGlobalBuildingProductionModifier@CvTraitEntry@@QBEHXZ ; CvTraitEntry::GetMaxGlobalBuildingProductionModifier
; Function compile flags: /Odtp
;	COMDAT ?GetMaxGlobalBuildingProductionModifier@CvTraitEntry@@QBEHXZ
_TEXT	SEGMENT
_this$ = -4						; size = 4
?GetMaxGlobalBuildingProductionModifier@CvTraitEntry@@QBEHXZ PROC ; CvTraitEntry::GetMaxGlobalBuildingProductionModifier, COMDAT
; _this$ = ecx

; 245  : {

	push	ebp
	mov	ebp, esp
	push	ecx
	mov	DWORD PTR _this$[ebp], ecx

; 246  : 	return m_iMaxGlobalBuildingProductionModifier;

	mov	eax, DWORD PTR _this$[ebp]
	mov	eax, DWORD PTR [eax+284]

; 247  : }

	mov	esp, ebp
	pop	ebp
	ret	0
?GetMaxGlobalBuildingProductionModifier@CvTraitEntry@@QBEHXZ ENDP ; CvTraitEntry::GetMaxGlobalBuildingProductionModifier
_TEXT	ENDS
PUBLIC	?GetMaxTeamBuildingProductionModifier@CvTraitEntry@@QBEHXZ ; CvTraitEntry::GetMaxTeamBuildingProductionModifier
; Function compile flags: /Odtp
;	COMDAT ?GetMaxTeamBuildingProductionModifier@CvTraitEntry@@QBEHXZ
_TEXT	SEGMENT
_this$ = -4						; size = 4
?GetMaxTeamBuildingProductionModifier@CvTraitEntry@@QBEHXZ PROC ; CvTraitEntry::GetMaxTeamBuildingProductionModifier, COMDAT
; _this$ = ecx

; 251  : {

	push	ebp
	mov	ebp, esp
	push	ecx
	mov	DWORD PTR _this$[ebp], ecx

; 252  : 	return m_iMaxTeamBuildingProductionModifier;

	mov	eax, DWORD PTR _this$[ebp]
	mov	eax, DWORD PTR [eax+288]

; 253  : }

	mov	esp, ebp
	pop	ebp
	ret	0
?GetMaxTeamBuildingProductionModifier@CvTraitEntry@@QBEHXZ ENDP ; CvTraitEntry::GetMaxTeamBuildingProductionModifier
_TEXT	ENDS
PUBLIC	?GetMaxPlayerBuildingProductionModifier@CvTraitEntry@@QBEHXZ ; CvTraitEntry::GetMaxPlayerBuildingProductionModifier
; Function compile flags: /Odtp
;	COMDAT ?GetMaxPlayerBuildingProductionModifier@CvTraitEntry@@QBEHXZ
_TEXT	SEGMENT
_this$ = -4						; size = 4
?GetMaxPlayerBuildingProductionModifier@CvTraitEntry@@QBEHXZ PROC ; CvTraitEntry::GetMaxPlayerBuildingProductionModifier, COMDAT
; _this$ = ecx

; 257  : {

	push	ebp
	mov	ebp, esp
	push	ecx
	mov	DWORD PTR _this$[ebp], ecx

; 258  : 	return m_iMaxPlayerBuildingProductionModifier;

	mov	eax, DWORD PTR _this$[ebp]
	mov	eax, DWORD PTR [eax+292]

; 259  : }

	mov	esp, ebp
	pop	ebp
	ret	0
?GetMaxPlayerBuildingProductionModifier@CvTraitEntry@@QBEHXZ ENDP ; CvTraitEntry::GetMaxPlayerBuildingProductionModifier
_TEXT	ENDS
PUBLIC	?GetCityUnhappinessModifier@CvTraitEntry@@QBEHXZ ; CvTraitEntry::GetCityUnhappinessModifier
; Function compile flags: /Odtp
;	COMDAT ?GetCityUnhappinessModifier@CvTraitEntry@@QBEHXZ
_TEXT	SEGMENT
_this$ = -4						; size = 4
?GetCityUnhappinessModifier@CvTraitEntry@@QBEHXZ PROC	; CvTraitEntry::GetCityUnhappinessModifier, COMDAT
; _this$ = ecx

; 263  : {

	push	ebp
	mov	ebp, esp
	push	ecx
	mov	DWORD PTR _this$[ebp], ecx

; 264  : 	return m_iCityUnhappinessModifier;

	mov	eax, DWORD PTR _this$[ebp]
	mov	eax, DWORD PTR [eax+296]

; 265  : }

	mov	esp, ebp
	pop	ebp
	ret	0
?GetCityUnhappinessModifier@CvTraitEntry@@QBEHXZ ENDP	; CvTraitEntry::GetCityUnhappinessModifier
_TEXT	ENDS
PUBLIC	?GetPopulationUnhappinessModifier@CvTraitEntry@@QBEHXZ ; CvTraitEntry::GetPopulationUnhappinessModifier
; Function compile flags: /Odtp
;	COMDAT ?GetPopulationUnhappinessModifier@CvTraitEntry@@QBEHXZ
_TEXT	SEGMENT
_this$ = -4						; size = 4
?GetPopulationUnhappinessModifier@CvTraitEntry@@QBEHXZ PROC ; CvTraitEntry::GetPopulationUnhappinessModifier, COMDAT
; _this$ = ecx

; 269  : {

	push	ebp
	mov	ebp, esp
	push	ecx
	mov	DWORD PTR _this$[ebp], ecx

; 270  : 	return m_iPopulationUnhappinessModifier;

	mov	eax, DWORD PTR _this$[ebp]
	mov	eax, DWORD PTR [eax+300]

; 271  : }

	mov	esp, ebp
	pop	ebp
	ret	0
?GetPopulationUnhappinessModifier@CvTraitEntry@@QBEHXZ ENDP ; CvTraitEntry::GetPopulationUnhappinessModifier
_TEXT	ENDS
PUBLIC	?GetCityStateBonusModifier@CvTraitEntry@@QBEHXZ	; CvTraitEntry::GetCityStateBonusModifier
; Function compile flags: /Odtp
;	COMDAT ?GetCityStateBonusModifier@CvTraitEntry@@QBEHXZ
_TEXT	SEGMENT
_this$ = -4						; size = 4
?GetCityStateBonusModifier@CvTraitEntry@@QBEHXZ PROC	; CvTraitEntry::GetCityStateBonusModifier, COMDAT
; _this$ = ecx

; 275  : {

	push	ebp
	mov	ebp, esp
	push	ecx
	mov	DWORD PTR _this$[ebp], ecx

; 276  : 	return m_iCityStateBonusModifier;

	mov	eax, DWORD PTR _this$[ebp]
	mov	eax, DWORD PTR [eax+304]

; 277  : }

	mov	esp, ebp
	pop	ebp
	ret	0
?GetCityStateBonusModifier@CvTraitEntry@@QBEHXZ ENDP	; CvTraitEntry::GetCityStateBonusModifier
_TEXT	ENDS
PUBLIC	?GetCityStateFriendshipModifier@CvTraitEntry@@QBEHXZ ; CvTraitEntry::GetCityStateFriendshipModifier
; Function compile flags: /Odtp
;	COMDAT ?GetCityStateFriendshipModifier@CvTraitEntry@@QBEHXZ
_TEXT	SEGMENT
_this$ = -4						; size = 4
?GetCityStateFriendshipModifier@CvTraitEntry@@QBEHXZ PROC ; CvTraitEntry::GetCityStateFriendshipModifier, COMDAT
; _this$ = ecx

; 281  : {

	push	ebp
	mov	ebp, esp
	push	ecx
	mov	DWORD PTR _this$[ebp], ecx

; 282  : 	return m_iCityStateFriendshipModifier;

	mov	eax, DWORD PTR _this$[ebp]
	mov	eax, DWORD PTR [eax+308]

; 283  : }

	mov	esp, ebp
	pop	ebp
	ret	0
?GetCityStateFriendshipModifier@CvTraitEntry@@QBEHXZ ENDP ; CvTraitEntry::GetCityStateFriendshipModifier
_TEXT	ENDS
PUBLIC	?GetCityStateCombatModifier@CvTraitEntry@@QBEHXZ ; CvTraitEntry::GetCityStateCombatModifier
; Function compile flags: /Odtp
;	COMDAT ?GetCityStateCombatModifier@CvTraitEntry@@QBEHXZ
_TEXT	SEGMENT
_this$ = -4						; size = 4
?GetCityStateCombatModifier@CvTraitEntry@@QBEHXZ PROC	; CvTraitEntry::GetCityStateCombatModifier, COMDAT
; _this$ = ecx

; 287  : {

	push	ebp
	mov	ebp, esp
	push	ecx
	mov	DWORD PTR _this$[ebp], ecx

; 288  : 	return m_iCityStateCombatModifier;

	mov	eax, DWORD PTR _this$[ebp]
	mov	eax, DWORD PTR [eax+312]

; 289  : }

	mov	esp, ebp
	pop	ebp
	ret	0
?GetCityStateCombatModifier@CvTraitEntry@@QBEHXZ ENDP	; CvTraitEntry::GetCityStateCombatModifier
_TEXT	ENDS
PUBLIC	?GetLandBarbarianConversionPercent@CvTraitEntry@@QBEHXZ ; CvTraitEntry::GetLandBarbarianConversionPercent
; Function compile flags: /Odtp
;	COMDAT ?GetLandBarbarianConversionPercent@CvTraitEntry@@QBEHXZ
_TEXT	SEGMENT
_this$ = -4						; size = 4
?GetLandBarbarianConversionPercent@CvTraitEntry@@QBEHXZ PROC ; CvTraitEntry::GetLandBarbarianConversionPercent, COMDAT
; _this$ = ecx

; 293  : {

	push	ebp
	mov	ebp, esp
	push	ecx
	mov	DWORD PTR _this$[ebp], ecx

; 294  : 	return m_iLandBarbarianConversionPercent;

	mov	eax, DWORD PTR _this$[ebp]
	mov	eax, DWORD PTR [eax+316]

; 295  : }

	mov	esp, ebp
	pop	ebp
	ret	0
?GetLandBarbarianConversionPercent@CvTraitEntry@@QBEHXZ ENDP ; CvTraitEntry::GetLandBarbarianConversionPercent
_TEXT	ENDS
PUBLIC	?GetLandBarbarianConversionExtraUnits@CvTraitEntry@@QBEHXZ ; CvTraitEntry::GetLandBarbarianConversionExtraUnits
; Function compile flags: /Odtp
;	COMDAT ?GetLandBarbarianConversionExtraUnits@CvTraitEntry@@QBEHXZ
_TEXT	SEGMENT
_this$ = -4						; size = 4
?GetLandBarbarianConversionExtraUnits@CvTraitEntry@@QBEHXZ PROC ; CvTraitEntry::GetLandBarbarianConversionExtraUnits, COMDAT
; _this$ = ecx

; 299  : {

	push	ebp
	mov	ebp, esp
	push	ecx
	mov	DWORD PTR _this$[ebp], ecx

; 300  : 	return m_iLandBarbarianConversionExtraUnits;

	mov	eax, DWORD PTR _this$[ebp]
	mov	eax, DWORD PTR [eax+320]

; 301  : }

	mov	esp, ebp
	pop	ebp
	ret	0
?GetLandBarbarianConversionExtraUnits@CvTraitEntry@@QBEHXZ ENDP ; CvTraitEntry::GetLandBarbarianConversionExtraUnits
_TEXT	ENDS
PUBLIC	?GetSeaBarbarianConversionPercent@CvTraitEntry@@QBEHXZ ; CvTraitEntry::GetSeaBarbarianConversionPercent
; Function compile flags: /Odtp
;	COMDAT ?GetSeaBarbarianConversionPercent@CvTraitEntry@@QBEHXZ
_TEXT	SEGMENT
_this$ = -4						; size = 4
?GetSeaBarbarianConversionPercent@CvTraitEntry@@QBEHXZ PROC ; CvTraitEntry::GetSeaBarbarianConversionPercent, COMDAT
; _this$ = ecx

; 305  : {

	push	ebp
	mov	ebp, esp
	push	ecx
	mov	DWORD PTR _this$[ebp], ecx

; 306  : 	return m_iSeaBarbarianConversionPercent;

	mov	eax, DWORD PTR _this$[ebp]
	mov	eax, DWORD PTR [eax+324]

; 307  : }

	mov	esp, ebp
	pop	ebp
	ret	0
?GetSeaBarbarianConversionPercent@CvTraitEntry@@QBEHXZ ENDP ; CvTraitEntry::GetSeaBarbarianConversionPercent
_TEXT	ENDS
PUBLIC	?GetCapitalBuildingModifier@CvTraitEntry@@QBEHXZ ; CvTraitEntry::GetCapitalBuildingModifier
; Function compile flags: /Odtp
;	COMDAT ?GetCapitalBuildingModifier@CvTraitEntry@@QBEHXZ
_TEXT	SEGMENT
_this$ = -4						; size = 4
?GetCapitalBuildingModifier@CvTraitEntry@@QBEHXZ PROC	; CvTraitEntry::GetCapitalBuildingModifier, COMDAT
; _this$ = ecx

; 311  : {

	push	ebp
	mov	ebp, esp
	push	ecx
	mov	DWORD PTR _this$[ebp], ecx

; 312  : 	return m_iCapitalBuildingModifier;

	mov	eax, DWORD PTR _this$[ebp]
	mov	eax, DWORD PTR [eax+328]

; 313  : }

	mov	esp, ebp
	pop	ebp
	ret	0
?GetCapitalBuildingModifier@CvTraitEntry@@QBEHXZ ENDP	; CvTraitEntry::GetCapitalBuildingModifier
_TEXT	ENDS
PUBLIC	?GetPlotBuyCostModifier@CvTraitEntry@@QBEHXZ	; CvTraitEntry::GetPlotBuyCostModifier
; Function compile flags: /Odtp
;	COMDAT ?GetPlotBuyCostModifier@CvTraitEntry@@QBEHXZ
_TEXT	SEGMENT
_this$ = -4						; size = 4
?GetPlotBuyCostModifier@CvTraitEntry@@QBEHXZ PROC	; CvTraitEntry::GetPlotBuyCostModifier, COMDAT
; _this$ = ecx

; 317  : {

	push	ebp
	mov	ebp, esp
	push	ecx
	mov	DWORD PTR _this$[ebp], ecx

; 318  : 	return m_iPlotBuyCostModifier;

	mov	eax, DWORD PTR _this$[ebp]
	mov	eax, DWORD PTR [eax+332]

; 319  : }

	mov	esp, ebp
	pop	ebp
	ret	0
?GetPlotBuyCostModifier@CvTraitEntry@@QBEHXZ ENDP	; CvTraitEntry::GetPlotBuyCostModifier
_TEXT	ENDS
PUBLIC	?GetPlotCultureCostModifier@CvTraitEntry@@QBEHXZ ; CvTraitEntry::GetPlotCultureCostModifier
; Function compile flags: /Odtp
;	COMDAT ?GetPlotCultureCostModifier@CvTraitEntry@@QBEHXZ
_TEXT	SEGMENT
_this$ = -4						; size = 4
?GetPlotCultureCostModifier@CvTraitEntry@@QBEHXZ PROC	; CvTraitEntry::GetPlotCultureCostModifier, COMDAT
; _this$ = ecx

; 323  : {

	push	ebp
	mov	ebp, esp
	push	ecx
	mov	DWORD PTR _this$[ebp], ecx

; 324  : 	return m_iPlotCultureCostModifier;

	mov	eax, DWORD PTR _this$[ebp]
	mov	eax, DWORD PTR [eax+336]

; 325  : }

	mov	esp, ebp
	pop	ebp
	ret	0
?GetPlotCultureCostModifier@CvTraitEntry@@QBEHXZ ENDP	; CvTraitEntry::GetPlotCultureCostModifier
_TEXT	ENDS
PUBLIC	?GetSciencePerGreatPersonBorn@CvTraitEntry@@QBEHXZ ; CvTraitEntry::GetSciencePerGreatPersonBorn
; Function compile flags: /Odtp
;	COMDAT ?GetSciencePerGreatPersonBorn@CvTraitEntry@@QBEHXZ
_TEXT	SEGMENT
_this$ = -4						; size = 4
?GetSciencePerGreatPersonBorn@CvTraitEntry@@QBEHXZ PROC	; CvTraitEntry::GetSciencePerGreatPersonBorn, COMDAT
; _this$ = ecx

; 330  : {

	push	ebp
	mov	ebp, esp
	push	ecx
	mov	DWORD PTR _this$[ebp], ecx

; 331  : 	return m_iSciencePerGreatPersonBorn;

	mov	eax, DWORD PTR _this$[ebp]
	mov	eax, DWORD PTR [eax+340]

; 332  : }

	mov	esp, ebp
	pop	ebp
	ret	0
?GetSciencePerGreatPersonBorn@CvTraitEntry@@QBEHXZ ENDP	; CvTraitEntry::GetSciencePerGreatPersonBorn
_TEXT	ENDS
PUBLIC	?GetNumTurnsBeforeMinorAlliesRefuseBribes@CvTraitEntry@@QBEHXZ ; CvTraitEntry::GetNumTurnsBeforeMinorAlliesRefuseBribes
; Function compile flags: /Odtp
;	COMDAT ?GetNumTurnsBeforeMinorAlliesRefuseBribes@CvTraitEntry@@QBEHXZ
_TEXT	SEGMENT
_this$ = -4						; size = 4
?GetNumTurnsBeforeMinorAlliesRefuseBribes@CvTraitEntry@@QBEHXZ PROC ; CvTraitEntry::GetNumTurnsBeforeMinorAlliesRefuseBribes, COMDAT
; _this$ = ecx

; 338  : {

	push	ebp
	mov	ebp, esp
	push	ecx
	mov	DWORD PTR _this$[ebp], ecx

; 339  : 	return m_iNumTurnsBeforeMinorAlliesRefuseBribes;

	mov	eax, DWORD PTR _this$[ebp]
	mov	eax, DWORD PTR [eax+344]

; 340  : }

	mov	esp, ebp
	pop	ebp
	ret	0
?GetNumTurnsBeforeMinorAlliesRefuseBribes@CvTraitEntry@@QBEHXZ ENDP ; CvTraitEntry::GetNumTurnsBeforeMinorAlliesRefuseBribes
_TEXT	ENDS
PUBLIC	?GetGoldenAgeTileBonusFaith@CvTraitEntry@@QBEHXZ ; CvTraitEntry::GetGoldenAgeTileBonusFaith
; Function compile flags: /Odtp
;	COMDAT ?GetGoldenAgeTileBonusFaith@CvTraitEntry@@QBEHXZ
_TEXT	SEGMENT
_this$ = -4						; size = 4
?GetGoldenAgeTileBonusFaith@CvTraitEntry@@QBEHXZ PROC	; CvTraitEntry::GetGoldenAgeTileBonusFaith, COMDAT
; _this$ = ecx

; 346  : {

	push	ebp
	mov	ebp, esp
	push	ecx
	mov	DWORD PTR _this$[ebp], ecx

; 347  : 	return m_iGoldenAgeTileBonusFaith;

	mov	eax, DWORD PTR _this$[ebp]
	mov	eax, DWORD PTR [eax+348]

; 348  : }

	mov	esp, ebp
	pop	ebp
	ret	0
?GetGoldenAgeTileBonusFaith@CvTraitEntry@@QBEHXZ ENDP	; CvTraitEntry::GetGoldenAgeTileBonusFaith
_TEXT	ENDS
PUBLIC	?GetCultureFromKills@CvTraitEntry@@QBEHXZ	; CvTraitEntry::GetCultureFromKills
; Function compile flags: /Odtp
;	COMDAT ?GetCultureFromKills@CvTraitEntry@@QBEHXZ
_TEXT	SEGMENT
_this$ = -4						; size = 4
?GetCultureFromKills@CvTraitEntry@@QBEHXZ PROC		; CvTraitEntry::GetCultureFromKills, COMDAT
; _this$ = ecx

; 354  : {

	push	ebp
	mov	ebp, esp
	push	ecx
	mov	DWORD PTR _this$[ebp], ecx

; 355  : 	return m_iCultureFromKills;

	mov	eax, DWORD PTR _this$[ebp]
	mov	eax, DWORD PTR [eax+352]

; 356  : }

	mov	esp, ebp
	pop	ebp
	ret	0
?GetCultureFromKills@CvTraitEntry@@QBEHXZ ENDP		; CvTraitEntry::GetCultureFromKills
_TEXT	ENDS
PUBLIC	?GetFaithFromKills@CvTraitEntry@@QBEHXZ		; CvTraitEntry::GetFaithFromKills
; Function compile flags: /Odtp
;	COMDAT ?GetFaithFromKills@CvTraitEntry@@QBEHXZ
_TEXT	SEGMENT
_this$ = -4						; size = 4
?GetFaithFromKills@CvTraitEntry@@QBEHXZ PROC		; CvTraitEntry::GetFaithFromKills, COMDAT
; _this$ = ecx

; 360  : {

	push	ebp
	mov	ebp, esp
	push	ecx
	mov	DWORD PTR _this$[ebp], ecx

; 361  : 	return m_iFaithFromKills;

	mov	eax, DWORD PTR _this$[ebp]
	mov	eax, DWORD PTR [eax+356]

; 362  : }

	mov	esp, ebp
	pop	ebp
	ret	0
?GetFaithFromKills@CvTraitEntry@@QBEHXZ ENDP		; CvTraitEntry::GetFaithFromKills
_TEXT	ENDS
PUBLIC	?GetCityCultureBonus@CvTraitEntry@@QBEHXZ	; CvTraitEntry::GetCityCultureBonus
; Function compile flags: /Odtp
;	COMDAT ?GetCityCultureBonus@CvTraitEntry@@QBEHXZ
_TEXT	SEGMENT
_this$ = -4						; size = 4
?GetCityCultureBonus@CvTraitEntry@@QBEHXZ PROC		; CvTraitEntry::GetCityCultureBonus, COMDAT
; _this$ = ecx

; 366  : {

	push	ebp
	mov	ebp, esp
	push	ecx
	mov	DWORD PTR _this$[ebp], ecx

; 367  : 	return m_iCityCultureBonus;

	mov	eax, DWORD PTR _this$[ebp]
	mov	eax, DWORD PTR [eax+360]

; 368  : }

	mov	esp, ebp
	pop	ebp
	ret	0
?GetCityCultureBonus@CvTraitEntry@@QBEHXZ ENDP		; CvTraitEntry::GetCityCultureBonus
_TEXT	ENDS
PUBLIC	?GetCapitalThemingBonusModifier@CvTraitEntry@@QBEHXZ ; CvTraitEntry::GetCapitalThemingBonusModifier
; Function compile flags: /Odtp
;	COMDAT ?GetCapitalThemingBonusModifier@CvTraitEntry@@QBEHXZ
_TEXT	SEGMENT
_this$ = -4						; size = 4
?GetCapitalThemingBonusModifier@CvTraitEntry@@QBEHXZ PROC ; CvTraitEntry::GetCapitalThemingBonusModifier, COMDAT
; _this$ = ecx

; 372  : {

	push	ebp
	mov	ebp, esp
	push	ecx
	mov	DWORD PTR _this$[ebp], ecx

; 373  : 	return m_iCapitalThemingBonusModifier;

	mov	eax, DWORD PTR _this$[ebp]
	mov	eax, DWORD PTR [eax+364]

; 374  : }

	mov	esp, ebp
	pop	ebp
	ret	0
?GetCapitalThemingBonusModifier@CvTraitEntry@@QBEHXZ ENDP ; CvTraitEntry::GetCapitalThemingBonusModifier
_TEXT	ENDS
PUBLIC	?GetPolicyCostModifier@CvTraitEntry@@QBEHXZ	; CvTraitEntry::GetPolicyCostModifier
; Function compile flags: /Odtp
;	COMDAT ?GetPolicyCostModifier@CvTraitEntry@@QBEHXZ
_TEXT	SEGMENT
_this$ = -4						; size = 4
?GetPolicyCostModifier@CvTraitEntry@@QBEHXZ PROC	; CvTraitEntry::GetPolicyCostModifier, COMDAT
; _this$ = ecx

; 378  : {

	push	ebp
	mov	ebp, esp
	push	ecx
	mov	DWORD PTR _this$[ebp], ecx

; 379  : 	return m_iPolicyCostModifier;

	mov	eax, DWORD PTR _this$[ebp]
	mov	eax, DWORD PTR [eax+368]

; 380  : }

	mov	esp, ebp
	pop	ebp
	ret	0
?GetPolicyCostModifier@CvTraitEntry@@QBEHXZ ENDP	; CvTraitEntry::GetPolicyCostModifier
_TEXT	ENDS
PUBLIC	?GetCityConnectionTradeRouteChange@CvTraitEntry@@QBEHXZ ; CvTraitEntry::GetCityConnectionTradeRouteChange
; Function compile flags: /Odtp
;	COMDAT ?GetCityConnectionTradeRouteChange@CvTraitEntry@@QBEHXZ
_TEXT	SEGMENT
_this$ = -4						; size = 4
?GetCityConnectionTradeRouteChange@CvTraitEntry@@QBEHXZ PROC ; CvTraitEntry::GetCityConnectionTradeRouteChange, COMDAT
; _this$ = ecx

; 384  : {

	push	ebp
	mov	ebp, esp
	push	ecx
	mov	DWORD PTR _this$[ebp], ecx

; 385  : 	return m_iCityConnectionTradeRouteChange;

	mov	eax, DWORD PTR _this$[ebp]
	mov	eax, DWORD PTR [eax+372]

; 386  : }

	mov	esp, ebp
	pop	ebp
	ret	0
?GetCityConnectionTradeRouteChange@CvTraitEntry@@QBEHXZ ENDP ; CvTraitEntry::GetCityConnectionTradeRouteChange
_TEXT	ENDS
PUBLIC	?GetWonderProductionModifier@CvTraitEntry@@QBEHXZ ; CvTraitEntry::GetWonderProductionModifier
; Function compile flags: /Odtp
;	COMDAT ?GetWonderProductionModifier@CvTraitEntry@@QBEHXZ
_TEXT	SEGMENT
_this$ = -4						; size = 4
?GetWonderProductionModifier@CvTraitEntry@@QBEHXZ PROC	; CvTraitEntry::GetWonderProductionModifier, COMDAT
; _this$ = ecx

; 390  : {

	push	ebp
	mov	ebp, esp
	push	ecx
	mov	DWORD PTR _this$[ebp], ecx

; 391  : 	return m_iWonderProductionModifier;

	mov	eax, DWORD PTR _this$[ebp]
	mov	eax, DWORD PTR [eax+376]

; 392  : }

	mov	esp, ebp
	pop	ebp
	ret	0
?GetWonderProductionModifier@CvTraitEntry@@QBEHXZ ENDP	; CvTraitEntry::GetWonderProductionModifier
_TEXT	ENDS
PUBLIC	?GetPlunderModifier@CvTraitEntry@@QBEHXZ	; CvTraitEntry::GetPlunderModifier
; Function compile flags: /Odtp
;	COMDAT ?GetPlunderModifier@CvTraitEntry@@QBEHXZ
_TEXT	SEGMENT
_this$ = -4						; size = 4
?GetPlunderModifier@CvTraitEntry@@QBEHXZ PROC		; CvTraitEntry::GetPlunderModifier, COMDAT
; _this$ = ecx

; 396  : {

	push	ebp
	mov	ebp, esp
	push	ecx
	mov	DWORD PTR _this$[ebp], ecx

; 397  : 	return m_iPlunderModifier;

	mov	eax, DWORD PTR _this$[ebp]
	mov	eax, DWORD PTR [eax+380]

; 398  : }

	mov	esp, ebp
	pop	ebp
	ret	0
?GetPlunderModifier@CvTraitEntry@@QBEHXZ ENDP		; CvTraitEntry::GetPlunderModifier
_TEXT	ENDS
PUBLIC	?GetImprovementMaintenanceModifier@CvTraitEntry@@QBEHXZ ; CvTraitEntry::GetImprovementMaintenanceModifier
; Function compile flags: /Odtp
;	COMDAT ?GetImprovementMaintenanceModifier@CvTraitEntry@@QBEHXZ
_TEXT	SEGMENT
_this$ = -4						; size = 4
?GetImprovementMaintenanceModifier@CvTraitEntry@@QBEHXZ PROC ; CvTraitEntry::GetImprovementMaintenanceModifier, COMDAT
; _this$ = ecx

; 402  : {

	push	ebp
	mov	ebp, esp
	push	ecx
	mov	DWORD PTR _this$[ebp], ecx

; 403  : 	return m_iImprovementMaintenanceModifier;

	mov	eax, DWORD PTR _this$[ebp]
	mov	eax, DWORD PTR [eax+384]

; 404  : }

	mov	esp, ebp
	pop	ebp
	ret	0
?GetImprovementMaintenanceModifier@CvTraitEntry@@QBEHXZ ENDP ; CvTraitEntry::GetImprovementMaintenanceModifier
_TEXT	ENDS
PUBLIC	?GetGoldenAgeDurationModifier@CvTraitEntry@@QBEHXZ ; CvTraitEntry::GetGoldenAgeDurationModifier
; Function compile flags: /Odtp
;	COMDAT ?GetGoldenAgeDurationModifier@CvTraitEntry@@QBEHXZ
_TEXT	SEGMENT
_this$ = -4						; size = 4
?GetGoldenAgeDurationModifier@CvTraitEntry@@QBEHXZ PROC	; CvTraitEntry::GetGoldenAgeDurationModifier, COMDAT
; _this$ = ecx

; 408  : {

	push	ebp
	mov	ebp, esp
	push	ecx
	mov	DWORD PTR _this$[ebp], ecx

; 409  : 	return m_iGoldenAgeDurationModifier;

	mov	eax, DWORD PTR _this$[ebp]
	mov	eax, DWORD PTR [eax+388]

; 410  : }

	mov	esp, ebp
	pop	ebp
	ret	0
?GetGoldenAgeDurationModifier@CvTraitEntry@@QBEHXZ ENDP	; CvTraitEntry::GetGoldenAgeDurationModifier
_TEXT	ENDS
PUBLIC	?GetGoldenAgeMoveChange@CvTraitEntry@@QBEHXZ	; CvTraitEntry::GetGoldenAgeMoveChange
; Function compile flags: /Odtp
;	COMDAT ?GetGoldenAgeMoveChange@CvTraitEntry@@QBEHXZ
_TEXT	SEGMENT
_this$ = -4						; size = 4
?GetGoldenAgeMoveChange@CvTraitEntry@@QBEHXZ PROC	; CvTraitEntry::GetGoldenAgeMoveChange, COMDAT
; _this$ = ecx

; 414  : {

	push	ebp
	mov	ebp, esp
	push	ecx
	mov	DWORD PTR _this$[ebp], ecx

; 415  : 	return m_iGoldenAgeMoveChange;

	mov	eax, DWORD PTR _this$[ebp]
	mov	eax, DWORD PTR [eax+392]

; 416  : }

	mov	esp, ebp
	pop	ebp
	ret	0
?GetGoldenAgeMoveChange@CvTraitEntry@@QBEHXZ ENDP	; CvTraitEntry::GetGoldenAgeMoveChange
_TEXT	ENDS
PUBLIC	?GetGoldenAgeCombatModifier@CvTraitEntry@@QBEHXZ ; CvTraitEntry::GetGoldenAgeCombatModifier
; Function compile flags: /Odtp
;	COMDAT ?GetGoldenAgeCombatModifier@CvTraitEntry@@QBEHXZ
_TEXT	SEGMENT
_this$ = -4						; size = 4
?GetGoldenAgeCombatModifier@CvTraitEntry@@QBEHXZ PROC	; CvTraitEntry::GetGoldenAgeCombatModifier, COMDAT
; _this$ = ecx

; 420  : {

	push	ebp
	mov	ebp, esp
	push	ecx
	mov	DWORD PTR _this$[ebp], ecx

; 421  : 	return m_iGoldenAgeCombatModifier;

	mov	eax, DWORD PTR _this$[ebp]
	mov	eax, DWORD PTR [eax+396]

; 422  : }

	mov	esp, ebp
	pop	ebp
	ret	0
?GetGoldenAgeCombatModifier@CvTraitEntry@@QBEHXZ ENDP	; CvTraitEntry::GetGoldenAgeCombatModifier
_TEXT	ENDS
PUBLIC	?GetGoldenAgeTourismModifier@CvTraitEntry@@QBEHXZ ; CvTraitEntry::GetGoldenAgeTourismModifier
; Function compile flags: /Odtp
;	COMDAT ?GetGoldenAgeTourismModifier@CvTraitEntry@@QBEHXZ
_TEXT	SEGMENT
_this$ = -4						; size = 4
?GetGoldenAgeTourismModifier@CvTraitEntry@@QBEHXZ PROC	; CvTraitEntry::GetGoldenAgeTourismModifier, COMDAT
; _this$ = ecx

; 426  : {

	push	ebp
	mov	ebp, esp
	push	ecx
	mov	DWORD PTR _this$[ebp], ecx

; 427  : 	return m_iGoldenAgeTourismModifier;

	mov	eax, DWORD PTR _this$[ebp]
	mov	eax, DWORD PTR [eax+400]

; 428  : }

	mov	esp, ebp
	pop	ebp
	ret	0
?GetGoldenAgeTourismModifier@CvTraitEntry@@QBEHXZ ENDP	; CvTraitEntry::GetGoldenAgeTourismModifier
_TEXT	ENDS
PUBLIC	?GetGoldenAgeGreatArtistRateModifier@CvTraitEntry@@QBEHXZ ; CvTraitEntry::GetGoldenAgeGreatArtistRateModifier
; Function compile flags: /Odtp
;	COMDAT ?GetGoldenAgeGreatArtistRateModifier@CvTraitEntry@@QBEHXZ
_TEXT	SEGMENT
_this$ = -4						; size = 4
?GetGoldenAgeGreatArtistRateModifier@CvTraitEntry@@QBEHXZ PROC ; CvTraitEntry::GetGoldenAgeGreatArtistRateModifier, COMDAT
; _this$ = ecx

; 432  : {

	push	ebp
	mov	ebp, esp
	push	ecx
	mov	DWORD PTR _this$[ebp], ecx

; 433  : 	return m_iGoldenAgeGreatArtistRateModifier;

	mov	eax, DWORD PTR _this$[ebp]
	mov	eax, DWORD PTR [eax+404]

; 434  : }

	mov	esp, ebp
	pop	ebp
	ret	0
?GetGoldenAgeGreatArtistRateModifier@CvTraitEntry@@QBEHXZ ENDP ; CvTraitEntry::GetGoldenAgeGreatArtistRateModifier
_TEXT	ENDS
PUBLIC	?GetGoldenAgeGreatMusicianRateModifier@CvTraitEntry@@QBEHXZ ; CvTraitEntry::GetGoldenAgeGreatMusicianRateModifier
; Function compile flags: /Odtp
;	COMDAT ?GetGoldenAgeGreatMusicianRateModifier@CvTraitEntry@@QBEHXZ
_TEXT	SEGMENT
_this$ = -4						; size = 4
?GetGoldenAgeGreatMusicianRateModifier@CvTraitEntry@@QBEHXZ PROC ; CvTraitEntry::GetGoldenAgeGreatMusicianRateModifier, COMDAT
; _this$ = ecx

; 438  : {

	push	ebp
	mov	ebp, esp
	push	ecx
	mov	DWORD PTR _this$[ebp], ecx

; 439  : 	return m_iGoldenAgeGreatMusicianRateModifier;

	mov	eax, DWORD PTR _this$[ebp]
	mov	eax, DWORD PTR [eax+408]

; 440  : }

	mov	esp, ebp
	pop	ebp
	ret	0
?GetGoldenAgeGreatMusicianRateModifier@CvTraitEntry@@QBEHXZ ENDP ; CvTraitEntry::GetGoldenAgeGreatMusicianRateModifier
_TEXT	ENDS
PUBLIC	?GetGoldenAgeGreatWriterRateModifier@CvTraitEntry@@QBEHXZ ; CvTraitEntry::GetGoldenAgeGreatWriterRateModifier
; Function compile flags: /Odtp
;	COMDAT ?GetGoldenAgeGreatWriterRateModifier@CvTraitEntry@@QBEHXZ
_TEXT	SEGMENT
_this$ = -4						; size = 4
?GetGoldenAgeGreatWriterRateModifier@CvTraitEntry@@QBEHXZ PROC ; CvTraitEntry::GetGoldenAgeGreatWriterRateModifier, COMDAT
; _this$ = ecx

; 444  : {

	push	ebp
	mov	ebp, esp
	push	ecx
	mov	DWORD PTR _this$[ebp], ecx

; 445  : 	return m_iGoldenAgeGreatWriterRateModifier;

	mov	eax, DWORD PTR _this$[ebp]
	mov	eax, DWORD PTR [eax+412]

; 446  : }

	mov	esp, ebp
	pop	ebp
	ret	0
?GetGoldenAgeGreatWriterRateModifier@CvTraitEntry@@QBEHXZ ENDP ; CvTraitEntry::GetGoldenAgeGreatWriterRateModifier
_TEXT	ENDS
PUBLIC	?GetExtraEmbarkMoves@CvTraitEntry@@QBEHXZ	; CvTraitEntry::GetExtraEmbarkMoves
; Function compile flags: /Odtp
;	COMDAT ?GetExtraEmbarkMoves@CvTraitEntry@@QBEHXZ
_TEXT	SEGMENT
_this$ = -4						; size = 4
?GetExtraEmbarkMoves@CvTraitEntry@@QBEHXZ PROC		; CvTraitEntry::GetExtraEmbarkMoves, COMDAT
; _this$ = ecx

; 450  : {

	push	ebp
	mov	ebp, esp
	push	ecx
	mov	DWORD PTR _this$[ebp], ecx

; 451  : 	return m_iExtraEmbarkMoves;

	mov	eax, DWORD PTR _this$[ebp]
	mov	eax, DWORD PTR [eax+424]

; 452  : }

	mov	esp, ebp
	pop	ebp
	ret	0
?GetExtraEmbarkMoves@CvTraitEntry@@QBEHXZ ENDP		; CvTraitEntry::GetExtraEmbarkMoves
_TEXT	ENDS
PUBLIC	?GetFreeUnitClassType@CvTraitEntry@@QBEHXZ	; CvTraitEntry::GetFreeUnitClassType
; Function compile flags: /Odtp
;	COMDAT ?GetFreeUnitClassType@CvTraitEntry@@QBEHXZ
_TEXT	SEGMENT
_this$ = -4						; size = 4
?GetFreeUnitClassType@CvTraitEntry@@QBEHXZ PROC		; CvTraitEntry::GetFreeUnitClassType, COMDAT
; _this$ = ecx

; 456  : {

	push	ebp
	mov	ebp, esp
	push	ecx
	mov	DWORD PTR _this$[ebp], ecx

; 457  : 	return m_iFreeUnitClassType;

	mov	eax, DWORD PTR _this$[ebp]
	mov	eax, DWORD PTR [eax+428]

; 458  : }

	mov	esp, ebp
	pop	ebp
	ret	0
?GetFreeUnitClassType@CvTraitEntry@@QBEHXZ ENDP		; CvTraitEntry::GetFreeUnitClassType
_TEXT	ENDS
PUBLIC	?GetNaturalWonderFirstFinderGold@CvTraitEntry@@QBEHXZ ; CvTraitEntry::GetNaturalWonderFirstFinderGold
; Function compile flags: /Odtp
;	COMDAT ?GetNaturalWonderFirstFinderGold@CvTraitEntry@@QBEHXZ
_TEXT	SEGMENT
_this$ = -4						; size = 4
?GetNaturalWonderFirstFinderGold@CvTraitEntry@@QBEHXZ PROC ; CvTraitEntry::GetNaturalWonderFirstFinderGold, COMDAT
; _this$ = ecx

; 462  : {

	push	ebp
	mov	ebp, esp
	push	ecx
	mov	DWORD PTR _this$[ebp], ecx

; 463  : 	return m_iNaturalWonderFirstFinderGold;

	mov	eax, DWORD PTR _this$[ebp]
	mov	eax, DWORD PTR [eax+432]

; 464  : }

	mov	esp, ebp
	pop	ebp
	ret	0
?GetNaturalWonderFirstFinderGold@CvTraitEntry@@QBEHXZ ENDP ; CvTraitEntry::GetNaturalWonderFirstFinderGold
_TEXT	ENDS
PUBLIC	?GetNaturalWonderSubsequentFinderGold@CvTraitEntry@@QBEHXZ ; CvTraitEntry::GetNaturalWonderSubsequentFinderGold
; Function compile flags: /Odtp
;	COMDAT ?GetNaturalWonderSubsequentFinderGold@CvTraitEntry@@QBEHXZ
_TEXT	SEGMENT
_this$ = -4						; size = 4
?GetNaturalWonderSubsequentFinderGold@CvTraitEntry@@QBEHXZ PROC ; CvTraitEntry::GetNaturalWonderSubsequentFinderGold, COMDAT
; _this$ = ecx

; 468  : {

	push	ebp
	mov	ebp, esp
	push	ecx
	mov	DWORD PTR _this$[ebp], ecx

; 469  : 	return m_iNaturalWonderSubsequentFinderGold;

	mov	eax, DWORD PTR _this$[ebp]
	mov	eax, DWORD PTR [eax+436]

; 470  : }

	mov	esp, ebp
	pop	ebp
	ret	0
?GetNaturalWonderSubsequentFinderGold@CvTraitEntry@@QBEHXZ ENDP ; CvTraitEntry::GetNaturalWonderSubsequentFinderGold
_TEXT	ENDS
PUBLIC	?GetNaturalWonderFirstFinderFaith@CvTraitEntry@@QBEHXZ ; CvTraitEntry::GetNaturalWonderFirstFinderFaith
; Function compile flags: /Odtp
;	COMDAT ?GetNaturalWonderFirstFinderFaith@CvTraitEntry@@QBEHXZ
_TEXT	SEGMENT
_this$ = -4						; size = 4
?GetNaturalWonderFirstFinderFaith@CvTraitEntry@@QBEHXZ PROC ; CvTraitEntry::GetNaturalWonderFirstFinderFaith, COMDAT
; _this$ = ecx

; 476  : {

	push	ebp
	mov	ebp, esp
	push	ecx
	mov	DWORD PTR _this$[ebp], ecx

; 477  : 	return m_iNaturalWonderFirstFinderFaith;

	mov	eax, DWORD PTR _this$[ebp]
	mov	eax, DWORD PTR [eax+440]

; 478  : }

	mov	esp, ebp
	pop	ebp
	ret	0
?GetNaturalWonderFirstFinderFaith@CvTraitEntry@@QBEHXZ ENDP ; CvTraitEntry::GetNaturalWonderFirstFinderFaith
_TEXT	ENDS
PUBLIC	?GetNaturalWonderSubsequentFinderFaith@CvTraitEntry@@QBEHXZ ; CvTraitEntry::GetNaturalWonderSubsequentFinderFaith
; Function compile flags: /Odtp
;	COMDAT ?GetNaturalWonderSubsequentFinderFaith@CvTraitEntry@@QBEHXZ
_TEXT	SEGMENT
_this$ = -4						; size = 4
?GetNaturalWonderSubsequentFinderFaith@CvTraitEntry@@QBEHXZ PROC ; CvTraitEntry::GetNaturalWonderSubsequentFinderFaith, COMDAT
; _this$ = ecx

; 482  : {

	push	ebp
	mov	ebp, esp
	push	ecx
	mov	DWORD PTR _this$[ebp], ecx

; 483  : 	return m_iNaturalWonderSubsequentFinderFaith;

	mov	eax, DWORD PTR _this$[ebp]
	mov	eax, DWORD PTR [eax+444]

; 484  : }

	mov	esp, ebp
	pop	ebp
	ret	0
?GetNaturalWonderSubsequentFinderFaith@CvTraitEntry@@QBEHXZ ENDP ; CvTraitEntry::GetNaturalWonderSubsequentFinderFaith
_TEXT	ENDS
PUBLIC	?GetNaturalWonderYieldModifier@CvTraitEntry@@QBEHXZ ; CvTraitEntry::GetNaturalWonderYieldModifier
; Function compile flags: /Odtp
;	COMDAT ?GetNaturalWonderYieldModifier@CvTraitEntry@@QBEHXZ
_TEXT	SEGMENT
_this$ = -4						; size = 4
?GetNaturalWonderYieldModifier@CvTraitEntry@@QBEHXZ PROC ; CvTraitEntry::GetNaturalWonderYieldModifier, COMDAT
; _this$ = ecx

; 490  : {

	push	ebp
	mov	ebp, esp
	push	ecx
	mov	DWORD PTR _this$[ebp], ecx

; 491  : 	return m_iNaturalWonderYieldModifier;

	mov	eax, DWORD PTR _this$[ebp]
	mov	eax, DWORD PTR [eax+448]

; 492  : }

	mov	esp, ebp
	pop	ebp
	ret	0
?GetNaturalWonderYieldModifier@CvTraitEntry@@QBEHXZ ENDP ; CvTraitEntry::GetNaturalWonderYieldModifier
_TEXT	ENDS
PUBLIC	?GetNaturalWonderHappinessModifier@CvTraitEntry@@QBEHXZ ; CvTraitEntry::GetNaturalWonderHappinessModifier
; Function compile flags: /Odtp
;	COMDAT ?GetNaturalWonderHappinessModifier@CvTraitEntry@@QBEHXZ
_TEXT	SEGMENT
_this$ = -4						; size = 4
?GetNaturalWonderHappinessModifier@CvTraitEntry@@QBEHXZ PROC ; CvTraitEntry::GetNaturalWonderHappinessModifier, COMDAT
; _this$ = ecx

; 496  : {

	push	ebp
	mov	ebp, esp
	push	ecx
	mov	DWORD PTR _this$[ebp], ecx

; 497  : 	return m_iNaturalWonderHappinessModifier;

	mov	eax, DWORD PTR _this$[ebp]
	mov	eax, DWORD PTR [eax+452]

; 498  : }

	mov	esp, ebp
	pop	ebp
	ret	0
?GetNaturalWonderHappinessModifier@CvTraitEntry@@QBEHXZ ENDP ; CvTraitEntry::GetNaturalWonderHappinessModifier
_TEXT	ENDS
PUBLIC	?GetNearbyImprovementCombatBonus@CvTraitEntry@@QBEHXZ ; CvTraitEntry::GetNearbyImprovementCombatBonus
; Function compile flags: /Odtp
;	COMDAT ?GetNearbyImprovementCombatBonus@CvTraitEntry@@QBEHXZ
_TEXT	SEGMENT
_this$ = -4						; size = 4
?GetNearbyImprovementCombatBonus@CvTraitEntry@@QBEHXZ PROC ; CvTraitEntry::GetNearbyImprovementCombatBonus, COMDAT
; _this$ = ecx

; 502  : {

	push	ebp
	mov	ebp, esp
	push	ecx
	mov	DWORD PTR _this$[ebp], ecx

; 503  : 	return m_iNearbyImprovementCombatBonus;

	mov	eax, DWORD PTR _this$[ebp]
	mov	eax, DWORD PTR [eax+456]

; 504  : }

	mov	esp, ebp
	pop	ebp
	ret	0
?GetNearbyImprovementCombatBonus@CvTraitEntry@@QBEHXZ ENDP ; CvTraitEntry::GetNearbyImprovementCombatBonus
_TEXT	ENDS
PUBLIC	?GetNearbyImprovementBonusRange@CvTraitEntry@@QBEHXZ ; CvTraitEntry::GetNearbyImprovementBonusRange
; Function compile flags: /Odtp
;	COMDAT ?GetNearbyImprovementBonusRange@CvTraitEntry@@QBEHXZ
_TEXT	SEGMENT
_this$ = -4						; size = 4
?GetNearbyImprovementBonusRange@CvTraitEntry@@QBEHXZ PROC ; CvTraitEntry::GetNearbyImprovementBonusRange, COMDAT
; _this$ = ecx

; 508  : {

	push	ebp
	mov	ebp, esp
	push	ecx
	mov	DWORD PTR _this$[ebp], ecx

; 509  : 	return m_iNearbyImprovementBonusRange;

	mov	eax, DWORD PTR _this$[ebp]
	mov	eax, DWORD PTR [eax+460]

; 510  : }

	mov	esp, ebp
	pop	ebp
	ret	0
?GetNearbyImprovementBonusRange@CvTraitEntry@@QBEHXZ ENDP ; CvTraitEntry::GetNearbyImprovementBonusRange
_TEXT	ENDS
PUBLIC	?GetCultureBuildingYieldChange@CvTraitEntry@@QBEHXZ ; CvTraitEntry::GetCultureBuildingYieldChange
; Function compile flags: /Odtp
;	COMDAT ?GetCultureBuildingYieldChange@CvTraitEntry@@QBEHXZ
_TEXT	SEGMENT
_this$ = -4						; size = 4
?GetCultureBuildingYieldChange@CvTraitEntry@@QBEHXZ PROC ; CvTraitEntry::GetCultureBuildingYieldChange, COMDAT
; _this$ = ecx

; 514  : {

	push	ebp
	mov	ebp, esp
	push	ecx
	mov	DWORD PTR _this$[ebp], ecx

; 515  : 	return m_iCultureBuildingYieldChange;

	mov	eax, DWORD PTR _this$[ebp]
	mov	eax, DWORD PTR [eax+464]

; 516  : }

	mov	esp, ebp
	pop	ebp
	ret	0
?GetCultureBuildingYieldChange@CvTraitEntry@@QBEHXZ ENDP ; CvTraitEntry::GetCultureBuildingYieldChange
_TEXT	ENDS
PUBLIC	?GetCombatBonusVsHigherTech@CvTraitEntry@@QBEHXZ ; CvTraitEntry::GetCombatBonusVsHigherTech
; Function compile flags: /Odtp
;	COMDAT ?GetCombatBonusVsHigherTech@CvTraitEntry@@QBEHXZ
_TEXT	SEGMENT
_this$ = -4						; size = 4
?GetCombatBonusVsHigherTech@CvTraitEntry@@QBEHXZ PROC	; CvTraitEntry::GetCombatBonusVsHigherTech, COMDAT
; _this$ = ecx

; 520  : {

	push	ebp
	mov	ebp, esp
	push	ecx
	mov	DWORD PTR _this$[ebp], ecx

; 521  : 	return m_iCombatBonusVsHigherTech;

	mov	eax, DWORD PTR _this$[ebp]
	mov	eax, DWORD PTR [eax+468]

; 522  : }

	mov	esp, ebp
	pop	ebp
	ret	0
?GetCombatBonusVsHigherTech@CvTraitEntry@@QBEHXZ ENDP	; CvTraitEntry::GetCombatBonusVsHigherTech
_TEXT	ENDS
PUBLIC	?GetCombatBonusVsLargerCiv@CvTraitEntry@@QBEHXZ	; CvTraitEntry::GetCombatBonusVsLargerCiv
; Function compile flags: /Odtp
;	COMDAT ?GetCombatBonusVsLargerCiv@CvTraitEntry@@QBEHXZ
_TEXT	SEGMENT
_this$ = -4						; size = 4
?GetCombatBonusVsLargerCiv@CvTraitEntry@@QBEHXZ PROC	; CvTraitEntry::GetCombatBonusVsLargerCiv, COMDAT
; _this$ = ecx

; 526  : {

	push	ebp
	mov	ebp, esp
	push	ecx
	mov	DWORD PTR _this$[ebp], ecx

; 527  : 	return m_iCombatBonusVsLargerCiv;

	mov	eax, DWORD PTR _this$[ebp]
	mov	eax, DWORD PTR [eax+472]

; 528  : }

	mov	esp, ebp
	pop	ebp
	ret	0
?GetCombatBonusVsLargerCiv@CvTraitEntry@@QBEHXZ ENDP	; CvTraitEntry::GetCombatBonusVsLargerCiv
_TEXT	ENDS
PUBLIC	?GetRazeSpeedModifier@CvTraitEntry@@QBEHXZ	; CvTraitEntry::GetRazeSpeedModifier
; Function compile flags: /Odtp
;	COMDAT ?GetRazeSpeedModifier@CvTraitEntry@@QBEHXZ
_TEXT	SEGMENT
_this$ = -4						; size = 4
?GetRazeSpeedModifier@CvTraitEntry@@QBEHXZ PROC		; CvTraitEntry::GetRazeSpeedModifier, COMDAT
; _this$ = ecx

; 532  : {

	push	ebp
	mov	ebp, esp
	push	ecx
	mov	DWORD PTR _this$[ebp], ecx

; 533  : 	return m_iRazeSpeedModifier;

	mov	eax, DWORD PTR _this$[ebp]
	mov	eax, DWORD PTR [eax+484]

; 534  : }

	mov	esp, ebp
	pop	ebp
	ret	0
?GetRazeSpeedModifier@CvTraitEntry@@QBEHXZ ENDP		; CvTraitEntry::GetRazeSpeedModifier
_TEXT	ENDS
PUBLIC	?GetDOFGreatPersonModifier@CvTraitEntry@@QBEHXZ	; CvTraitEntry::GetDOFGreatPersonModifier
; Function compile flags: /Odtp
;	COMDAT ?GetDOFGreatPersonModifier@CvTraitEntry@@QBEHXZ
_TEXT	SEGMENT
_this$ = -4						; size = 4
?GetDOFGreatPersonModifier@CvTraitEntry@@QBEHXZ PROC	; CvTraitEntry::GetDOFGreatPersonModifier, COMDAT
; _this$ = ecx

; 538  : {

	push	ebp
	mov	ebp, esp
	push	ecx
	mov	DWORD PTR _this$[ebp], ecx

; 539  : 	return m_iDOFGreatPersonModifier;

	mov	eax, DWORD PTR _this$[ebp]
	mov	eax, DWORD PTR [eax+488]

; 540  : }

	mov	esp, ebp
	pop	ebp
	ret	0
?GetDOFGreatPersonModifier@CvTraitEntry@@QBEHXZ ENDP	; CvTraitEntry::GetDOFGreatPersonModifier
_TEXT	ENDS
PUBLIC	?GetLandUnitMaintenanceModifier@CvTraitEntry@@QBEHXZ ; CvTraitEntry::GetLandUnitMaintenanceModifier
; Function compile flags: /Odtp
;	COMDAT ?GetLandUnitMaintenanceModifier@CvTraitEntry@@QBEHXZ
_TEXT	SEGMENT
_this$ = -4						; size = 4
?GetLandUnitMaintenanceModifier@CvTraitEntry@@QBEHXZ PROC ; CvTraitEntry::GetLandUnitMaintenanceModifier, COMDAT
; _this$ = ecx

; 544  : {

	push	ebp
	mov	ebp, esp
	push	ecx
	mov	DWORD PTR _this$[ebp], ecx

; 545  : 	return m_iLandUnitMaintenanceModifier;

	mov	eax, DWORD PTR _this$[ebp]
	mov	eax, DWORD PTR [eax+476]

; 546  : }

	mov	esp, ebp
	pop	ebp
	ret	0
?GetLandUnitMaintenanceModifier@CvTraitEntry@@QBEHXZ ENDP ; CvTraitEntry::GetLandUnitMaintenanceModifier
_TEXT	ENDS
PUBLIC	?GetNavalUnitMaintenanceModifier@CvTraitEntry@@QBEHXZ ; CvTraitEntry::GetNavalUnitMaintenanceModifier
; Function compile flags: /Odtp
;	COMDAT ?GetNavalUnitMaintenanceModifier@CvTraitEntry@@QBEHXZ
_TEXT	SEGMENT
_this$ = -4						; size = 4
?GetNavalUnitMaintenanceModifier@CvTraitEntry@@QBEHXZ PROC ; CvTraitEntry::GetNavalUnitMaintenanceModifier, COMDAT
; _this$ = ecx

; 550  : {

	push	ebp
	mov	ebp, esp
	push	ecx
	mov	DWORD PTR _this$[ebp], ecx

; 551  : 	return m_iNavalUnitMaintenanceModifier;

	mov	eax, DWORD PTR _this$[ebp]
	mov	eax, DWORD PTR [eax+480]

; 552  : }

	mov	esp, ebp
	pop	ebp
	ret	0
?GetNavalUnitMaintenanceModifier@CvTraitEntry@@QBEHXZ ENDP ; CvTraitEntry::GetNavalUnitMaintenanceModifier
_TEXT	ENDS
PUBLIC	?GetLuxuryHappinessRetention@CvTraitEntry@@QBEHXZ ; CvTraitEntry::GetLuxuryHappinessRetention
; Function compile flags: /Odtp
;	COMDAT ?GetLuxuryHappinessRetention@CvTraitEntry@@QBEHXZ
_TEXT	SEGMENT
_this$ = -4						; size = 4
?GetLuxuryHappinessRetention@CvTraitEntry@@QBEHXZ PROC	; CvTraitEntry::GetLuxuryHappinessRetention, COMDAT
; _this$ = ecx

; 556  : {

	push	ebp
	mov	ebp, esp
	push	ecx
	mov	DWORD PTR _this$[ebp], ecx

; 557  : 	return m_iLuxuryHappinessRetention;

	mov	eax, DWORD PTR _this$[ebp]
	mov	eax, DWORD PTR [eax+492]

; 558  : }

	mov	esp, ebp
	pop	ebp
	ret	0
?GetLuxuryHappinessRetention@CvTraitEntry@@QBEHXZ ENDP	; CvTraitEntry::GetLuxuryHappinessRetention
_TEXT	ENDS
PUBLIC	?GetExtraHappinessPerLuxury@CvTraitEntry@@QBEHXZ ; CvTraitEntry::GetExtraHappinessPerLuxury
; Function compile flags: /Odtp
;	COMDAT ?GetExtraHappinessPerLuxury@CvTraitEntry@@QBEHXZ
_TEXT	SEGMENT
_this$ = -4						; size = 4
?GetExtraHappinessPerLuxury@CvTraitEntry@@QBEHXZ PROC	; CvTraitEntry::GetExtraHappinessPerLuxury, COMDAT
; _this$ = ecx

; 563  : {

	push	ebp
	mov	ebp, esp
	push	ecx
	mov	DWORD PTR _this$[ebp], ecx

; 564  : 	return m_iExtraHappinessPerLuxury;

	mov	eax, DWORD PTR _this$[ebp]
	mov	eax, DWORD PTR [eax+496]

; 565  : }

	mov	esp, ebp
	pop	ebp
	ret	0
?GetExtraHappinessPerLuxury@CvTraitEntry@@QBEHXZ ENDP	; CvTraitEntry::GetExtraHappinessPerLuxury
_TEXT	ENDS
PUBLIC	?GetExtraSpies@CvTraitEntry@@QBEHXZ		; CvTraitEntry::GetExtraSpies
; Function compile flags: /Odtp
;	COMDAT ?GetExtraSpies@CvTraitEntry@@QBEHXZ
_TEXT	SEGMENT
_this$ = -4						; size = 4
?GetExtraSpies@CvTraitEntry@@QBEHXZ PROC		; CvTraitEntry::GetExtraSpies, COMDAT
; _this$ = ecx

; 571  : {

	push	ebp
	mov	ebp, esp
	push	ecx
	mov	DWORD PTR _this$[ebp], ecx

; 572  : 	return m_iExtraSpies;

	mov	eax, DWORD PTR _this$[ebp]
	mov	eax, DWORD PTR [eax+500]

; 573  : }

	mov	esp, ebp
	pop	ebp
	ret	0
?GetExtraSpies@CvTraitEntry@@QBEHXZ ENDP		; CvTraitEntry::GetExtraSpies
_TEXT	ENDS
PUBLIC	?GetHappinessPerReligion@CvTraitEntry@@QBEHXZ	; CvTraitEntry::GetHappinessPerReligion
; Function compile flags: /Odtp
;	COMDAT ?GetHappinessPerReligion@CvTraitEntry@@QBEHXZ
_TEXT	SEGMENT
_this$ = -4						; size = 4
?GetHappinessPerReligion@CvTraitEntry@@QBEHXZ PROC	; CvTraitEntry::GetHappinessPerReligion, COMDAT
; _this$ = ecx

; 578  : {

	push	ebp
	mov	ebp, esp
	push	ecx
	mov	DWORD PTR _this$[ebp], ecx

; 579  : 	return m_iHappinessPerReligion;

	mov	eax, DWORD PTR _this$[ebp]
	mov	eax, DWORD PTR [eax+504]

; 580  : }

	mov	esp, ebp
	pop	ebp
	ret	0
?GetHappinessPerReligion@CvTraitEntry@@QBEHXZ ENDP	; CvTraitEntry::GetHappinessPerReligion
_TEXT	ENDS
PUBLIC	?GetUnresearchedTechBonusFromKills@CvTraitEntry@@QBEHXZ ; CvTraitEntry::GetUnresearchedTechBonusFromKills
; Function compile flags: /Odtp
;	COMDAT ?GetUnresearchedTechBonusFromKills@CvTraitEntry@@QBEHXZ
_TEXT	SEGMENT
_this$ = -4						; size = 4
?GetUnresearchedTechBonusFromKills@CvTraitEntry@@QBEHXZ PROC ; CvTraitEntry::GetUnresearchedTechBonusFromKills, COMDAT
; _this$ = ecx

; 585  : {

	push	ebp
	mov	ebp, esp
	push	ecx
	mov	DWORD PTR _this$[ebp], ecx

; 586  : 	return m_iUnresearchedTechBonusFromKills;

	mov	eax, DWORD PTR _this$[ebp]
	mov	eax, DWORD PTR [eax+508]

; 587  : }

	mov	esp, ebp
	pop	ebp
	ret	0
?GetUnresearchedTechBonusFromKills@CvTraitEntry@@QBEHXZ ENDP ; CvTraitEntry::GetUnresearchedTechBonusFromKills
_TEXT	ENDS
PUBLIC	?GetExtraFoundedCityTerritoryClaimRange@CvTraitEntry@@QBEHXZ ; CvTraitEntry::GetExtraFoundedCityTerritoryClaimRange
; Function compile flags: /Odtp
;	COMDAT ?GetExtraFoundedCityTerritoryClaimRange@CvTraitEntry@@QBEHXZ
_TEXT	SEGMENT
_this$ = -4						; size = 4
?GetExtraFoundedCityTerritoryClaimRange@CvTraitEntry@@QBEHXZ PROC ; CvTraitEntry::GetExtraFoundedCityTerritoryClaimRange, COMDAT
; _this$ = ecx

; 590  : {

	push	ebp
	mov	ebp, esp
	push	ecx
	mov	DWORD PTR _this$[ebp], ecx

; 591  : 	return m_iExtraFoundedCityTerritoryClaimRange;

	mov	eax, DWORD PTR _this$[ebp]
	mov	eax, DWORD PTR [eax+512]

; 592  : }

	mov	esp, ebp
	pop	ebp
	ret	0
?GetExtraFoundedCityTerritoryClaimRange@CvTraitEntry@@QBEHXZ ENDP ; CvTraitEntry::GetExtraFoundedCityTerritoryClaimRange
_TEXT	ENDS
PUBLIC	?GetFreeSocialPoliciesPerEra@CvTraitEntry@@QBEHXZ ; CvTraitEntry::GetFreeSocialPoliciesPerEra
; Function compile flags: /Odtp
;	COMDAT ?GetFreeSocialPoliciesPerEra@CvTraitEntry@@QBEHXZ
_TEXT	SEGMENT
_this$ = -4						; size = 4
?GetFreeSocialPoliciesPerEra@CvTraitEntry@@QBEHXZ PROC	; CvTraitEntry::GetFreeSocialPoliciesPerEra, COMDAT
; _this$ = ecx

; 596  : {

	push	ebp
	mov	ebp, esp
	push	ecx
	mov	DWORD PTR _this$[ebp], ecx

; 597  : 	return m_iFreeSocialPoliciesPerEra;

	mov	eax, DWORD PTR _this$[ebp]
	mov	eax, DWORD PTR [eax+516]

; 598  : }

	mov	esp, ebp
	pop	ebp
	ret	0
?GetFreeSocialPoliciesPerEra@CvTraitEntry@@QBEHXZ ENDP	; CvTraitEntry::GetFreeSocialPoliciesPerEra
_TEXT	ENDS
PUBLIC	?GetNumTradeRoutesModifier@CvTraitEntry@@QBEHXZ	; CvTraitEntry::GetNumTradeRoutesModifier
; Function compile flags: /Odtp
;	COMDAT ?GetNumTradeRoutesModifier@CvTraitEntry@@QBEHXZ
_TEXT	SEGMENT
_this$ = -4						; size = 4
?GetNumTradeRoutesModifier@CvTraitEntry@@QBEHXZ PROC	; CvTraitEntry::GetNumTradeRoutesModifier, COMDAT
; _this$ = ecx

; 601  : {

	push	ebp
	mov	ebp, esp
	push	ecx
	mov	DWORD PTR _this$[ebp], ecx

; 602  : 	return m_iNumTradeRoutesModifier;

	mov	eax, DWORD PTR _this$[ebp]
	mov	eax, DWORD PTR [eax+520]

; 603  : }

	mov	esp, ebp
	pop	ebp
	ret	0
?GetNumTradeRoutesModifier@CvTraitEntry@@QBEHXZ ENDP	; CvTraitEntry::GetNumTradeRoutesModifier
_TEXT	ENDS
PUBLIC	?GetTradeRouteResourceModifier@CvTraitEntry@@QBEHXZ ; CvTraitEntry::GetTradeRouteResourceModifier
; Function compile flags: /Odtp
;	COMDAT ?GetTradeRouteResourceModifier@CvTraitEntry@@QBEHXZ
_TEXT	SEGMENT
_this$ = -4						; size = 4
?GetTradeRouteResourceModifier@CvTraitEntry@@QBEHXZ PROC ; CvTraitEntry::GetTradeRouteResourceModifier, COMDAT
; _this$ = ecx

; 606  : {

	push	ebp
	mov	ebp, esp
	push	ecx
	mov	DWORD PTR _this$[ebp], ecx

; 607  : 	return m_iTradeRouteResourceModifier;

	mov	eax, DWORD PTR _this$[ebp]
	mov	eax, DWORD PTR [eax+524]

; 608  : }

	mov	esp, ebp
	pop	ebp
	ret	0
?GetTradeRouteResourceModifier@CvTraitEntry@@QBEHXZ ENDP ; CvTraitEntry::GetTradeRouteResourceModifier
_TEXT	ENDS
PUBLIC	?GetUniqueLuxuryCities@CvTraitEntry@@QBEHXZ	; CvTraitEntry::GetUniqueLuxuryCities
; Function compile flags: /Odtp
;	COMDAT ?GetUniqueLuxuryCities@CvTraitEntry@@QBEHXZ
_TEXT	SEGMENT
_this$ = -4						; size = 4
?GetUniqueLuxuryCities@CvTraitEntry@@QBEHXZ PROC	; CvTraitEntry::GetUniqueLuxuryCities, COMDAT
; _this$ = ecx

; 611  : {

	push	ebp
	mov	ebp, esp
	push	ecx
	mov	DWORD PTR _this$[ebp], ecx

; 612  : 	return m_iUniqueLuxuryCities;

	mov	eax, DWORD PTR _this$[ebp]
	mov	eax, DWORD PTR [eax+528]

; 613  : }

	mov	esp, ebp
	pop	ebp
	ret	0
?GetUniqueLuxuryCities@CvTraitEntry@@QBEHXZ ENDP	; CvTraitEntry::GetUniqueLuxuryCities
_TEXT	ENDS
PUBLIC	?GetUniqueLuxuryQuantity@CvTraitEntry@@QBEHXZ	; CvTraitEntry::GetUniqueLuxuryQuantity
; Function compile flags: /Odtp
;	COMDAT ?GetUniqueLuxuryQuantity@CvTraitEntry@@QBEHXZ
_TEXT	SEGMENT
_this$ = -4						; size = 4
?GetUniqueLuxuryQuantity@CvTraitEntry@@QBEHXZ PROC	; CvTraitEntry::GetUniqueLuxuryQuantity, COMDAT
; _this$ = ecx

; 616  : {

	push	ebp
	mov	ebp, esp
	push	ecx
	mov	DWORD PTR _this$[ebp], ecx

; 617  : 	return m_iUniqueLuxuryQuantity;

	mov	eax, DWORD PTR _this$[ebp]
	mov	eax, DWORD PTR [eax+532]

; 618  : }

	mov	esp, ebp
	pop	ebp
	ret	0
?GetUniqueLuxuryQuantity@CvTraitEntry@@QBEHXZ ENDP	; CvTraitEntry::GetUniqueLuxuryQuantity
_TEXT	ENDS
PUBLIC	?GetWorkerSpeedModifier@CvTraitEntry@@QBEHXZ	; CvTraitEntry::GetWorkerSpeedModifier
; Function compile flags: /Odtp
;	COMDAT ?GetWorkerSpeedModifier@CvTraitEntry@@QBEHXZ
_TEXT	SEGMENT
_this$ = -4						; size = 4
?GetWorkerSpeedModifier@CvTraitEntry@@QBEHXZ PROC	; CvTraitEntry::GetWorkerSpeedModifier, COMDAT
; _this$ = ecx

; 621  : {

	push	ebp
	mov	ebp, esp
	push	ecx
	mov	DWORD PTR _this$[ebp], ecx

; 622  : 	return m_iWorkerSpeedModifier;

	mov	eax, DWORD PTR _this$[ebp]
	mov	eax, DWORD PTR [eax+536]

; 623  : }

	mov	esp, ebp
	pop	ebp
	ret	0
?GetWorkerSpeedModifier@CvTraitEntry@@QBEHXZ ENDP	; CvTraitEntry::GetWorkerSpeedModifier
_TEXT	ENDS
PUBLIC	?GetAfraidMinorPerTurnInfluence@CvTraitEntry@@QBEHXZ ; CvTraitEntry::GetAfraidMinorPerTurnInfluence
; Function compile flags: /Odtp
;	COMDAT ?GetAfraidMinorPerTurnInfluence@CvTraitEntry@@QBEHXZ
_TEXT	SEGMENT
_this$ = -4						; size = 4
?GetAfraidMinorPerTurnInfluence@CvTraitEntry@@QBEHXZ PROC ; CvTraitEntry::GetAfraidMinorPerTurnInfluence, COMDAT
; _this$ = ecx

; 626  : {

	push	ebp
	mov	ebp, esp
	push	ecx
	mov	DWORD PTR _this$[ebp], ecx

; 627  : 	return m_iAfraidMinorPerTurnInfluence;

	mov	eax, DWORD PTR _this$[ebp]
	mov	eax, DWORD PTR [eax+540]

; 628  : }

	mov	esp, ebp
	pop	ebp
	ret	0
?GetAfraidMinorPerTurnInfluence@CvTraitEntry@@QBEHXZ ENDP ; CvTraitEntry::GetAfraidMinorPerTurnInfluence
_TEXT	ENDS
PUBLIC	?GetLandTradeRouteRangeBonus@CvTraitEntry@@QBEHXZ ; CvTraitEntry::GetLandTradeRouteRangeBonus
; Function compile flags: /Odtp
;	COMDAT ?GetLandTradeRouteRangeBonus@CvTraitEntry@@QBEHXZ
_TEXT	SEGMENT
_this$ = -4						; size = 4
?GetLandTradeRouteRangeBonus@CvTraitEntry@@QBEHXZ PROC	; CvTraitEntry::GetLandTradeRouteRangeBonus, COMDAT
; _this$ = ecx

; 631  : {

	push	ebp
	mov	ebp, esp
	push	ecx
	mov	DWORD PTR _this$[ebp], ecx

; 632  : 	return m_iLandTradeRouteRangeBonus;

	mov	eax, DWORD PTR _this$[ebp]
	mov	eax, DWORD PTR [eax+544]

; 633  : }

	mov	esp, ebp
	pop	ebp
	ret	0
?GetLandTradeRouteRangeBonus@CvTraitEntry@@QBEHXZ ENDP	; CvTraitEntry::GetLandTradeRouteRangeBonus
_TEXT	ENDS
PUBLIC	?GetTradeReligionModifier@CvTraitEntry@@QBEHXZ	; CvTraitEntry::GetTradeReligionModifier
; Function compile flags: /Odtp
;	COMDAT ?GetTradeReligionModifier@CvTraitEntry@@QBEHXZ
_TEXT	SEGMENT
_this$ = -4						; size = 4
?GetTradeReligionModifier@CvTraitEntry@@QBEHXZ PROC	; CvTraitEntry::GetTradeReligionModifier, COMDAT
; _this$ = ecx

; 636  : {

	push	ebp
	mov	ebp, esp
	push	ecx
	mov	DWORD PTR _this$[ebp], ecx

; 637  : 	return m_iTradeReligionModifier;

	mov	eax, DWORD PTR _this$[ebp]
	mov	eax, DWORD PTR [eax+548]

; 638  : }

	mov	esp, ebp
	pop	ebp
	ret	0
?GetTradeReligionModifier@CvTraitEntry@@QBEHXZ ENDP	; CvTraitEntry::GetTradeReligionModifier
_TEXT	ENDS
PUBLIC	?GetTradeBuildingModifier@CvTraitEntry@@QBEHXZ	; CvTraitEntry::GetTradeBuildingModifier
; Function compile flags: /Odtp
;	COMDAT ?GetTradeBuildingModifier@CvTraitEntry@@QBEHXZ
_TEXT	SEGMENT
_this$ = -4						; size = 4
?GetTradeBuildingModifier@CvTraitEntry@@QBEHXZ PROC	; CvTraitEntry::GetTradeBuildingModifier, COMDAT
; _this$ = ecx

; 641  : {

	push	ebp
	mov	ebp, esp
	push	ecx
	mov	DWORD PTR _this$[ebp], ecx

; 642  : 	return m_iTradeBuildingModifier;

	mov	eax, DWORD PTR _this$[ebp]
	mov	eax, DWORD PTR [eax+552]

; 643  : }

	mov	esp, ebp
	pop	ebp
	ret	0
?GetTradeBuildingModifier@CvTraitEntry@@QBEHXZ ENDP	; CvTraitEntry::GetTradeBuildingModifier
_TEXT	ENDS
PUBLIC	?GetFreeBuildingPrereqTech@CvTraitEntry@@QBE?AW4TechTypes@@XZ ; CvTraitEntry::GetFreeBuildingPrereqTech
; Function compile flags: /Odtp
;	COMDAT ?GetFreeBuildingPrereqTech@CvTraitEntry@@QBE?AW4TechTypes@@XZ
_TEXT	SEGMENT
_this$ = -4						; size = 4
?GetFreeBuildingPrereqTech@CvTraitEntry@@QBE?AW4TechTypes@@XZ PROC ; CvTraitEntry::GetFreeBuildingPrereqTech, COMDAT
; _this$ = ecx

; 648  : {

	push	ebp
	mov	ebp, esp
	push	ecx
	mov	DWORD PTR _this$[ebp], ecx

; 649  : 	return m_eFreeBuildingPrereqTech;

	mov	eax, DWORD PTR _this$[ebp]
	mov	eax, DWORD PTR [eax+572]

; 650  : }

	mov	esp, ebp
	pop	ebp
	ret	0
?GetFreeBuildingPrereqTech@CvTraitEntry@@QBE?AW4TechTypes@@XZ ENDP ; CvTraitEntry::GetFreeBuildingPrereqTech
_TEXT	ENDS
PUBLIC	?GetCapitalFreeBuildingPrereqTech@CvTraitEntry@@QBE?AW4TechTypes@@XZ ; CvTraitEntry::GetCapitalFreeBuildingPrereqTech
; Function compile flags: /Odtp
;	COMDAT ?GetCapitalFreeBuildingPrereqTech@CvTraitEntry@@QBE?AW4TechTypes@@XZ
_TEXT	SEGMENT
_this$ = -4						; size = 4
?GetCapitalFreeBuildingPrereqTech@CvTraitEntry@@QBE?AW4TechTypes@@XZ PROC ; CvTraitEntry::GetCapitalFreeBuildingPrereqTech, COMDAT
; _this$ = ecx

; 652  : {

	push	ebp
	mov	ebp, esp
	push	ecx
	mov	DWORD PTR _this$[ebp], ecx

; 653  : 	return m_eCapitalFreeBuildingPrereqTech;

	mov	eax, DWORD PTR _this$[ebp]
	mov	eax, DWORD PTR [eax+576]

; 654  : }

	mov	esp, ebp
	pop	ebp
	ret	0
?GetCapitalFreeBuildingPrereqTech@CvTraitEntry@@QBE?AW4TechTypes@@XZ ENDP ; CvTraitEntry::GetCapitalFreeBuildingPrereqTech
_TEXT	ENDS
PUBLIC	?GetFreeUnitPrereqTech@CvTraitEntry@@QBE?AW4TechTypes@@XZ ; CvTraitEntry::GetFreeUnitPrereqTech
; Function compile flags: /Odtp
;	COMDAT ?GetFreeUnitPrereqTech@CvTraitEntry@@QBE?AW4TechTypes@@XZ
_TEXT	SEGMENT
_this$ = -4						; size = 4
?GetFreeUnitPrereqTech@CvTraitEntry@@QBE?AW4TechTypes@@XZ PROC ; CvTraitEntry::GetFreeUnitPrereqTech, COMDAT
; _this$ = ecx

; 658  : {

	push	ebp
	mov	ebp, esp
	push	ecx
	mov	DWORD PTR _this$[ebp], ecx

; 659  : 	return m_eFreeUnitPrereqTech;

	mov	eax, DWORD PTR _this$[ebp]
	mov	eax, DWORD PTR [eax+556]

; 660  : }

	mov	esp, ebp
	pop	ebp
	ret	0
?GetFreeUnitPrereqTech@CvTraitEntry@@QBE?AW4TechTypes@@XZ ENDP ; CvTraitEntry::GetFreeUnitPrereqTech
_TEXT	ENDS
PUBLIC	?GetCombatBonusImprovement@CvTraitEntry@@QBE?AW4ImprovementTypes@@XZ ; CvTraitEntry::GetCombatBonusImprovement
; Function compile flags: /Odtp
;	COMDAT ?GetCombatBonusImprovement@CvTraitEntry@@QBE?AW4ImprovementTypes@@XZ
_TEXT	SEGMENT
_this$ = -4						; size = 4
?GetCombatBonusImprovement@CvTraitEntry@@QBE?AW4ImprovementTypes@@XZ PROC ; CvTraitEntry::GetCombatBonusImprovement, COMDAT
; _this$ = ecx

; 664  : {

	push	ebp
	mov	ebp, esp
	push	ecx
	mov	DWORD PTR _this$[ebp], ecx

; 665  : 	return m_eCombatBonusImprovement;

	mov	eax, DWORD PTR _this$[ebp]
	mov	eax, DWORD PTR [eax+560]

; 666  : }

	mov	esp, ebp
	pop	ebp
	ret	0
?GetCombatBonusImprovement@CvTraitEntry@@QBE?AW4ImprovementTypes@@XZ ENDP ; CvTraitEntry::GetCombatBonusImprovement
_TEXT	ENDS
PUBLIC	?GetFreeBuilding@CvTraitEntry@@QBE?AW4BuildingTypes@@XZ ; CvTraitEntry::GetFreeBuilding
; Function compile flags: /Odtp
;	COMDAT ?GetFreeBuilding@CvTraitEntry@@QBE?AW4BuildingTypes@@XZ
_TEXT	SEGMENT
_this$ = -4						; size = 4
?GetFreeBuilding@CvTraitEntry@@QBE?AW4BuildingTypes@@XZ PROC ; CvTraitEntry::GetFreeBuilding, COMDAT
; _this$ = ecx

; 670  : {

	push	ebp
	mov	ebp, esp
	push	ecx
	mov	DWORD PTR _this$[ebp], ecx

; 671  : 	return m_eFreeBuilding;

	mov	eax, DWORD PTR _this$[ebp]
	mov	eax, DWORD PTR [eax+564]

; 672  : }

	mov	esp, ebp
	pop	ebp
	ret	0
?GetFreeBuilding@CvTraitEntry@@QBE?AW4BuildingTypes@@XZ ENDP ; CvTraitEntry::GetFreeBuilding
_TEXT	ENDS
PUBLIC	?GetFreeCapitalBuilding@CvTraitEntry@@QBE?AW4BuildingTypes@@XZ ; CvTraitEntry::GetFreeCapitalBuilding
; Function compile flags: /Odtp
;	COMDAT ?GetFreeCapitalBuilding@CvTraitEntry@@QBE?AW4BuildingTypes@@XZ
_TEXT	SEGMENT
_this$ = -4						; size = 4
?GetFreeCapitalBuilding@CvTraitEntry@@QBE?AW4BuildingTypes@@XZ PROC ; CvTraitEntry::GetFreeCapitalBuilding, COMDAT
; _this$ = ecx

; 676  : {

	push	ebp
	mov	ebp, esp
	push	ecx
	mov	DWORD PTR _this$[ebp], ecx

; 677  : 	return m_eFreeCapitalBuilding;

	mov	eax, DWORD PTR _this$[ebp]
	mov	eax, DWORD PTR [eax+568]

; 678  : }

	mov	esp, ebp
	pop	ebp
	ret	0
?GetFreeCapitalBuilding@CvTraitEntry@@QBE?AW4BuildingTypes@@XZ ENDP ; CvTraitEntry::GetFreeCapitalBuilding
_TEXT	ENDS
PUBLIC	?GetFreeBuildingOnConquest@CvTraitEntry@@QBE?AW4BuildingTypes@@XZ ; CvTraitEntry::GetFreeBuildingOnConquest
; Function compile flags: /Odtp
;	COMDAT ?GetFreeBuildingOnConquest@CvTraitEntry@@QBE?AW4BuildingTypes@@XZ
_TEXT	SEGMENT
_this$ = -4						; size = 4
?GetFreeBuildingOnConquest@CvTraitEntry@@QBE?AW4BuildingTypes@@XZ PROC ; CvTraitEntry::GetFreeBuildingOnConquest, COMDAT
; _this$ = ecx

; 682  : {

	push	ebp
	mov	ebp, esp
	push	ecx
	mov	DWORD PTR _this$[ebp], ecx

; 683  : 	return m_eFreeBuildingOnConquest;

	mov	eax, DWORD PTR _this$[ebp]
	mov	eax, DWORD PTR [eax+580]

; 684  : }

	mov	esp, ebp
	pop	ebp
	ret	0
?GetFreeBuildingOnConquest@CvTraitEntry@@QBE?AW4BuildingTypes@@XZ ENDP ; CvTraitEntry::GetFreeBuildingOnConquest
_TEXT	ENDS
PUBLIC	?IsFightWellDamaged@CvTraitEntry@@QBE_NXZ	; CvTraitEntry::IsFightWellDamaged
; Function compile flags: /Odtp
;	COMDAT ?IsFightWellDamaged@CvTraitEntry@@QBE_NXZ
_TEXT	SEGMENT
_this$ = -4						; size = 4
?IsFightWellDamaged@CvTraitEntry@@QBE_NXZ PROC		; CvTraitEntry::IsFightWellDamaged, COMDAT
; _this$ = ecx

; 688  : {

	push	ebp
	mov	ebp, esp
	push	ecx
	mov	DWORD PTR _this$[ebp], ecx

; 689  : 	return m_bFightWellDamaged;

	mov	eax, DWORD PTR _this$[ebp]
	mov	al, BYTE PTR [eax+584]

; 690  : }

	mov	esp, ebp
	pop	ebp
	ret	0
?IsFightWellDamaged@CvTraitEntry@@QBE_NXZ ENDP		; CvTraitEntry::IsFightWellDamaged
_TEXT	ENDS
PUBLIC	?IsMoveFriendlyWoodsAsRoad@CvTraitEntry@@QBE_NXZ ; CvTraitEntry::IsMoveFriendlyWoodsAsRoad
; Function compile flags: /Odtp
;	COMDAT ?IsMoveFriendlyWoodsAsRoad@CvTraitEntry@@QBE_NXZ
_TEXT	SEGMENT
_this$ = -4						; size = 4
?IsMoveFriendlyWoodsAsRoad@CvTraitEntry@@QBE_NXZ PROC	; CvTraitEntry::IsMoveFriendlyWoodsAsRoad, COMDAT
; _this$ = ecx

; 694  : {

	push	ebp
	mov	ebp, esp
	push	ecx
	mov	DWORD PTR _this$[ebp], ecx

; 695  : 	return m_bMoveFriendlyWoodsAsRoad;

	mov	eax, DWORD PTR _this$[ebp]
	mov	al, BYTE PTR [eax+585]

; 696  : }

	mov	esp, ebp
	pop	ebp
	ret	0
?IsMoveFriendlyWoodsAsRoad@CvTraitEntry@@QBE_NXZ ENDP	; CvTraitEntry::IsMoveFriendlyWoodsAsRoad
_TEXT	ENDS
PUBLIC	?IsFasterAlongRiver@CvTraitEntry@@QBE_NXZ	; CvTraitEntry::IsFasterAlongRiver
; Function compile flags: /Odtp
;	COMDAT ?IsFasterAlongRiver@CvTraitEntry@@QBE_NXZ
_TEXT	SEGMENT
_this$ = -4						; size = 4
?IsFasterAlongRiver@CvTraitEntry@@QBE_NXZ PROC		; CvTraitEntry::IsFasterAlongRiver, COMDAT
; _this$ = ecx

; 700  : {

	push	ebp
	mov	ebp, esp
	push	ecx
	mov	DWORD PTR _this$[ebp], ecx

; 701  : 	return m_bFasterAlongRiver;

	mov	eax, DWORD PTR _this$[ebp]
	mov	al, BYTE PTR [eax+586]

; 702  : }

	mov	esp, ebp
	pop	ebp
	ret	0
?IsFasterAlongRiver@CvTraitEntry@@QBE_NXZ ENDP		; CvTraitEntry::IsFasterAlongRiver
_TEXT	ENDS
PUBLIC	?IsFasterInHills@CvTraitEntry@@QBE_NXZ		; CvTraitEntry::IsFasterInHills
; Function compile flags: /Odtp
;	COMDAT ?IsFasterInHills@CvTraitEntry@@QBE_NXZ
_TEXT	SEGMENT
_this$ = -4						; size = 4
?IsFasterInHills@CvTraitEntry@@QBE_NXZ PROC		; CvTraitEntry::IsFasterInHills, COMDAT
; _this$ = ecx

; 706  : {

	push	ebp
	mov	ebp, esp
	push	ecx
	mov	DWORD PTR _this$[ebp], ecx

; 707  : 	return m_bFasterInHills;

	mov	eax, DWORD PTR _this$[ebp]
	mov	al, BYTE PTR [eax+587]

; 708  : }

	mov	esp, ebp
	pop	ebp
	ret	0
?IsFasterInHills@CvTraitEntry@@QBE_NXZ ENDP		; CvTraitEntry::IsFasterInHills
_TEXT	ENDS
PUBLIC	?IsEmbarkedAllWater@CvTraitEntry@@QBE_NXZ	; CvTraitEntry::IsEmbarkedAllWater
; Function compile flags: /Odtp
;	COMDAT ?IsEmbarkedAllWater@CvTraitEntry@@QBE_NXZ
_TEXT	SEGMENT
_this$ = -4						; size = 4
?IsEmbarkedAllWater@CvTraitEntry@@QBE_NXZ PROC		; CvTraitEntry::IsEmbarkedAllWater, COMDAT
; _this$ = ecx

; 712  : {

	push	ebp
	mov	ebp, esp
	push	ecx
	mov	DWORD PTR _this$[ebp], ecx

; 713  : 	return m_bEmbarkedAllWater;

	mov	eax, DWORD PTR _this$[ebp]
	mov	al, BYTE PTR [eax+588]

; 714  : }

	mov	esp, ebp
	pop	ebp
	ret	0
?IsEmbarkedAllWater@CvTraitEntry@@QBE_NXZ ENDP		; CvTraitEntry::IsEmbarkedAllWater
_TEXT	ENDS
PUBLIC	?IsEmbarkedToLandFlatCost@CvTraitEntry@@QBE_NXZ	; CvTraitEntry::IsEmbarkedToLandFlatCost
; Function compile flags: /Odtp
;	COMDAT ?IsEmbarkedToLandFlatCost@CvTraitEntry@@QBE_NXZ
_TEXT	SEGMENT
_this$ = -4						; size = 4
?IsEmbarkedToLandFlatCost@CvTraitEntry@@QBE_NXZ PROC	; CvTraitEntry::IsEmbarkedToLandFlatCost, COMDAT
; _this$ = ecx

; 718  : {

	push	ebp
	mov	ebp, esp
	push	ecx
	mov	DWORD PTR _this$[ebp], ecx

; 719  : 	return m_bEmbarkedToLandFlatCost;

	mov	eax, DWORD PTR _this$[ebp]
	mov	al, BYTE PTR [eax+589]

; 720  : }

	mov	esp, ebp
	pop	ebp
	ret	0
?IsEmbarkedToLandFlatCost@CvTraitEntry@@QBE_NXZ ENDP	; CvTraitEntry::IsEmbarkedToLandFlatCost
_TEXT	ENDS
PUBLIC	?IsNoHillsImprovementMaintenance@CvTraitEntry@@QBE_NXZ ; CvTraitEntry::IsNoHillsImprovementMaintenance
; Function compile flags: /Odtp
;	COMDAT ?IsNoHillsImprovementMaintenance@CvTraitEntry@@QBE_NXZ
_TEXT	SEGMENT
_this$ = -4						; size = 4
?IsNoHillsImprovementMaintenance@CvTraitEntry@@QBE_NXZ PROC ; CvTraitEntry::IsNoHillsImprovementMaintenance, COMDAT
; _this$ = ecx

; 724  : {

	push	ebp
	mov	ebp, esp
	push	ecx
	mov	DWORD PTR _this$[ebp], ecx

; 725  : 	return m_bNoHillsImprovementMaintenance;

	mov	eax, DWORD PTR _this$[ebp]
	mov	al, BYTE PTR [eax+590]

; 726  : }

	mov	esp, ebp
	pop	ebp
	ret	0
?IsNoHillsImprovementMaintenance@CvTraitEntry@@QBE_NXZ ENDP ; CvTraitEntry::IsNoHillsImprovementMaintenance
_TEXT	ENDS
PUBLIC	?IsTechBoostFromCapitalScienceBuildings@CvTraitEntry@@QBE_NXZ ; CvTraitEntry::IsTechBoostFromCapitalScienceBuildings
; Function compile flags: /Odtp
;	COMDAT ?IsTechBoostFromCapitalScienceBuildings@CvTraitEntry@@QBE_NXZ
_TEXT	SEGMENT
_this$ = -4						; size = 4
?IsTechBoostFromCapitalScienceBuildings@CvTraitEntry@@QBE_NXZ PROC ; CvTraitEntry::IsTechBoostFromCapitalScienceBuildings, COMDAT
; _this$ = ecx

; 730  : {

	push	ebp
	mov	ebp, esp
	push	ecx
	mov	DWORD PTR _this$[ebp], ecx

; 731  : 	return m_bTechBoostFromCapitalScienceBuildings;

	mov	eax, DWORD PTR _this$[ebp]
	mov	al, BYTE PTR [eax+591]

; 732  : }

	mov	esp, ebp
	pop	ebp
	ret	0
?IsTechBoostFromCapitalScienceBuildings@CvTraitEntry@@QBE_NXZ ENDP ; CvTraitEntry::IsTechBoostFromCapitalScienceBuildings
_TEXT	ENDS
PUBLIC	?IsStaysAliveZeroCities@CvTraitEntry@@QBE_NXZ	; CvTraitEntry::IsStaysAliveZeroCities
; Function compile flags: /Odtp
;	COMDAT ?IsStaysAliveZeroCities@CvTraitEntry@@QBE_NXZ
_TEXT	SEGMENT
_this$ = -4						; size = 4
?IsStaysAliveZeroCities@CvTraitEntry@@QBE_NXZ PROC	; CvTraitEntry::IsStaysAliveZeroCities, COMDAT
; _this$ = ecx

; 736  : {

	push	ebp
	mov	ebp, esp
	push	ecx
	mov	DWORD PTR _this$[ebp], ecx

; 737  : 	return m_bStaysAliveZeroCities;

	mov	eax, DWORD PTR _this$[ebp]
	mov	al, BYTE PTR [eax+592]

; 738  : }

	mov	esp, ebp
	pop	ebp
	ret	0
?IsStaysAliveZeroCities@CvTraitEntry@@QBE_NXZ ENDP	; CvTraitEntry::IsStaysAliveZeroCities
_TEXT	ENDS
PUBLIC	?IsFaithFromUnimprovedForest@CvTraitEntry@@QBE_NXZ ; CvTraitEntry::IsFaithFromUnimprovedForest
; Function compile flags: /Odtp
;	COMDAT ?IsFaithFromUnimprovedForest@CvTraitEntry@@QBE_NXZ
_TEXT	SEGMENT
_this$ = -4						; size = 4
?IsFaithFromUnimprovedForest@CvTraitEntry@@QBE_NXZ PROC	; CvTraitEntry::IsFaithFromUnimprovedForest, COMDAT
; _this$ = ecx

; 742  : {

	push	ebp
	mov	ebp, esp
	push	ecx
	mov	DWORD PTR _this$[ebp], ecx

; 743  : 	return m_bFaithFromUnimprovedForest;

	mov	eax, DWORD PTR _this$[ebp]
	mov	al, BYTE PTR [eax+593]

; 744  : }

	mov	esp, ebp
	pop	ebp
	ret	0
?IsFaithFromUnimprovedForest@CvTraitEntry@@QBE_NXZ ENDP	; CvTraitEntry::IsFaithFromUnimprovedForest
_TEXT	ENDS
PUBLIC	?IsSeaTradeRoutesArePlunderImmune@CvTraitEntry@@QBE_NXZ ; CvTraitEntry::IsSeaTradeRoutesArePlunderImmune
; Function compile flags: /Odtp
;	COMDAT ?IsSeaTradeRoutesArePlunderImmune@CvTraitEntry@@QBE_NXZ
_TEXT	SEGMENT
_this$ = -4						; size = 4
?IsSeaTradeRoutesArePlunderImmune@CvTraitEntry@@QBE_NXZ PROC ; CvTraitEntry::IsSeaTradeRoutesArePlunderImmune, COMDAT
; _this$ = ecx

; 749  : {

	push	ebp
	mov	ebp, esp
	push	ecx
	mov	DWORD PTR _this$[ebp], ecx

; 750  : 	return m_bSeaTradeRoutesArePlunderImmune;

	mov	eax, DWORD PTR _this$[ebp]
	mov	al, BYTE PTR [eax+594]

; 751  : }

	mov	esp, ebp
	pop	ebp
	ret	0
?IsSeaTradeRoutesArePlunderImmune@CvTraitEntry@@QBE_NXZ ENDP ; CvTraitEntry::IsSeaTradeRoutesArePlunderImmune
_TEXT	ENDS
PUBLIC	?IsEarnsGreatPersonOnSlotOrGuild@CvTraitEntry@@QBE_NXZ ; CvTraitEntry::IsEarnsGreatPersonOnSlotOrGuild
; Function compile flags: /Odtp
;	COMDAT ?IsEarnsGreatPersonOnSlotOrGuild@CvTraitEntry@@QBE_NXZ
_TEXT	SEGMENT
_this$ = -4						; size = 4
?IsEarnsGreatPersonOnSlotOrGuild@CvTraitEntry@@QBE_NXZ PROC ; CvTraitEntry::IsEarnsGreatPersonOnSlotOrGuild, COMDAT
; _this$ = ecx

; 757  : {

	push	ebp
	mov	ebp, esp
	push	ecx
	mov	DWORD PTR _this$[ebp], ecx

; 758  : 	return m_bEarnsGreatPersonOnSlotOrGuild;

	mov	eax, DWORD PTR _this$[ebp]
	mov	al, BYTE PTR [eax+595]

; 759  : }

	mov	esp, ebp
	pop	ebp
	ret	0
?IsEarnsGreatPersonOnSlotOrGuild@CvTraitEntry@@QBE_NXZ ENDP ; CvTraitEntry::IsEarnsGreatPersonOnSlotOrGuild
_TEXT	ENDS
PUBLIC	?IsHasBuiltWritersGuild@CvTraitEntry@@QBE_NXZ	; CvTraitEntry::IsHasBuiltWritersGuild
; Function compile flags: /Odtp
;	COMDAT ?IsHasBuiltWritersGuild@CvTraitEntry@@QBE_NXZ
_TEXT	SEGMENT
_this$ = -4						; size = 4
?IsHasBuiltWritersGuild@CvTraitEntry@@QBE_NXZ PROC	; CvTraitEntry::IsHasBuiltWritersGuild, COMDAT
; _this$ = ecx

; 762  : {

	push	ebp
	mov	ebp, esp
	push	ecx
	mov	DWORD PTR _this$[ebp], ecx

; 763  : 	return m_bHasBuiltWritersGuild;

	mov	eax, DWORD PTR _this$[ebp]
	mov	al, BYTE PTR [eax+596]

; 764  : };

	mov	esp, ebp
	pop	ebp
	ret	0
?IsHasBuiltWritersGuild@CvTraitEntry@@QBE_NXZ ENDP	; CvTraitEntry::IsHasBuiltWritersGuild
_TEXT	ENDS
PUBLIC	?SetHasBuiltWritersGuild@CvTraitEntry@@QAEX_N@Z	; CvTraitEntry::SetHasBuiltWritersGuild
; Function compile flags: /Odtp
;	COMDAT ?SetHasBuiltWritersGuild@CvTraitEntry@@QAEX_N@Z
_TEXT	SEGMENT
_this$ = -4						; size = 4
_hasBuilt$ = 8						; size = 1
?SetHasBuiltWritersGuild@CvTraitEntry@@QAEX_N@Z PROC	; CvTraitEntry::SetHasBuiltWritersGuild, COMDAT
; _this$ = ecx

; 767  : {

	push	ebp
	mov	ebp, esp
	push	ecx
	mov	DWORD PTR _this$[ebp], ecx

; 768  : 	m_bHasBuiltWritersGuild = hasBuilt;

	mov	eax, DWORD PTR _this$[ebp]
	mov	cl, BYTE PTR _hasBuilt$[ebp]
	mov	BYTE PTR [eax+596], cl

; 769  : };

	mov	esp, ebp
	pop	ebp
	ret	4
?SetHasBuiltWritersGuild@CvTraitEntry@@QAEX_N@Z ENDP	; CvTraitEntry::SetHasBuiltWritersGuild
_TEXT	ENDS
PUBLIC	?IsHasBuiltArtistsGuild@CvTraitEntry@@QBE_NXZ	; CvTraitEntry::IsHasBuiltArtistsGuild
; Function compile flags: /Odtp
;	COMDAT ?IsHasBuiltArtistsGuild@CvTraitEntry@@QBE_NXZ
_TEXT	SEGMENT
_this$ = -4						; size = 4
?IsHasBuiltArtistsGuild@CvTraitEntry@@QBE_NXZ PROC	; CvTraitEntry::IsHasBuiltArtistsGuild, COMDAT
; _this$ = ecx

; 772  : {

	push	ebp
	mov	ebp, esp
	push	ecx
	mov	DWORD PTR _this$[ebp], ecx

; 773  : 	return m_bHasBuiltArtistsGuild;

	mov	eax, DWORD PTR _this$[ebp]
	mov	al, BYTE PTR [eax+597]

; 774  : };

	mov	esp, ebp
	pop	ebp
	ret	0
?IsHasBuiltArtistsGuild@CvTraitEntry@@QBE_NXZ ENDP	; CvTraitEntry::IsHasBuiltArtistsGuild
_TEXT	ENDS
PUBLIC	?SetHasBuiltArtistsGuild@CvTraitEntry@@QAEX_N@Z	; CvTraitEntry::SetHasBuiltArtistsGuild
; Function compile flags: /Odtp
;	COMDAT ?SetHasBuiltArtistsGuild@CvTraitEntry@@QAEX_N@Z
_TEXT	SEGMENT
_this$ = -4						; size = 4
_hasBuilt$ = 8						; size = 1
?SetHasBuiltArtistsGuild@CvTraitEntry@@QAEX_N@Z PROC	; CvTraitEntry::SetHasBuiltArtistsGuild, COMDAT
; _this$ = ecx

; 777  : {

	push	ebp
	mov	ebp, esp
	push	ecx
	mov	DWORD PTR _this$[ebp], ecx

; 778  : 	m_bHasBuiltArtistsGuild = hasBuilt;

	mov	eax, DWORD PTR _this$[ebp]
	mov	cl, BYTE PTR _hasBuilt$[ebp]
	mov	BYTE PTR [eax+597], cl

; 779  : };

	mov	esp, ebp
	pop	ebp
	ret	4
?SetHasBuiltArtistsGuild@CvTraitEntry@@QAEX_N@Z ENDP	; CvTraitEntry::SetHasBuiltArtistsGuild
_TEXT	ENDS
PUBLIC	?IsHasBuiltMusiciansGuild@CvTraitEntry@@QBE_NXZ	; CvTraitEntry::IsHasBuiltMusiciansGuild
; Function compile flags: /Odtp
;	COMDAT ?IsHasBuiltMusiciansGuild@CvTraitEntry@@QBE_NXZ
_TEXT	SEGMENT
_this$ = -4						; size = 4
?IsHasBuiltMusiciansGuild@CvTraitEntry@@QBE_NXZ PROC	; CvTraitEntry::IsHasBuiltMusiciansGuild, COMDAT
; _this$ = ecx

; 782  : {

	push	ebp
	mov	ebp, esp
	push	ecx
	mov	DWORD PTR _this$[ebp], ecx

; 783  : 	return m_bHasBuiltMusiciansGuild;

	mov	eax, DWORD PTR _this$[ebp]
	mov	al, BYTE PTR [eax+598]

; 784  : };

	mov	esp, ebp
	pop	ebp
	ret	0
?IsHasBuiltMusiciansGuild@CvTraitEntry@@QBE_NXZ ENDP	; CvTraitEntry::IsHasBuiltMusiciansGuild
_TEXT	ENDS
PUBLIC	?SetHasBuiltMusiciansGuild@CvTraitEntry@@QAEX_N@Z ; CvTraitEntry::SetHasBuiltMusiciansGuild
; Function compile flags: /Odtp
;	COMDAT ?SetHasBuiltMusiciansGuild@CvTraitEntry@@QAEX_N@Z
_TEXT	SEGMENT
_this$ = -4						; size = 4
_hasBuilt$ = 8						; size = 1
?SetHasBuiltMusiciansGuild@CvTraitEntry@@QAEX_N@Z PROC	; CvTraitEntry::SetHasBuiltMusiciansGuild, COMDAT
; _this$ = ecx

; 787  : {

	push	ebp
	mov	ebp, esp
	push	ecx
	mov	DWORD PTR _this$[ebp], ecx

; 788  : 	m_bHasBuiltMusiciansGuild = hasBuilt;

	mov	eax, DWORD PTR _this$[ebp]
	mov	cl, BYTE PTR _hasBuilt$[ebp]
	mov	BYTE PTR [eax+598], cl

; 789  : };

	mov	esp, ebp
	pop	ebp
	ret	4
?SetHasBuiltMusiciansGuild@CvTraitEntry@@QAEX_N@Z ENDP	; CvTraitEntry::SetHasBuiltMusiciansGuild
_TEXT	ENDS
PUBLIC	?IsBonusReligiousBelief@CvTraitEntry@@QBE_NXZ	; CvTraitEntry::IsBonusReligiousBelief
; Function compile flags: /Odtp
;	COMDAT ?IsBonusReligiousBelief@CvTraitEntry@@QBE_NXZ
_TEXT	SEGMENT
_this$ = -4						; size = 4
?IsBonusReligiousBelief@CvTraitEntry@@QBE_NXZ PROC	; CvTraitEntry::IsBonusReligiousBelief, COMDAT
; _this$ = ecx

; 794  : {

	push	ebp
	mov	ebp, esp
	push	ecx
	mov	DWORD PTR _this$[ebp], ecx

; 795  : 	return m_bBonusReligiousBelief;

	mov	eax, DWORD PTR _this$[ebp]
	mov	al, BYTE PTR [eax+599]

; 796  : }

	mov	esp, ebp
	pop	ebp
	ret	0
?IsBonusReligiousBelief@CvTraitEntry@@QBE_NXZ ENDP	; CvTraitEntry::IsBonusReligiousBelief
_TEXT	ENDS
PUBLIC	?IsAbleToAnnexCityStates@CvTraitEntry@@QBE_NXZ	; CvTraitEntry::IsAbleToAnnexCityStates
; Function compile flags: /Odtp
;	COMDAT ?IsAbleToAnnexCityStates@CvTraitEntry@@QBE_NXZ
_TEXT	SEGMENT
_this$ = -4						; size = 4
?IsAbleToAnnexCityStates@CvTraitEntry@@QBE_NXZ PROC	; CvTraitEntry::IsAbleToAnnexCityStates, COMDAT
; _this$ = ecx

; 800  : {

	push	ebp
	mov	ebp, esp
	push	ecx
	mov	DWORD PTR _this$[ebp], ecx

; 801  : 	return m_bAbleToAnnexCityStates;

	mov	eax, DWORD PTR _this$[ebp]
	mov	al, BYTE PTR [eax+600]

; 802  : }

	mov	esp, ebp
	pop	ebp
	ret	0
?IsAbleToAnnexCityStates@CvTraitEntry@@QBE_NXZ ENDP	; CvTraitEntry::IsAbleToAnnexCityStates
_TEXT	ENDS
PUBLIC	?IsCrossesMountainsAfterGreatGeneral@CvTraitEntry@@QBE_NXZ ; CvTraitEntry::IsCrossesMountainsAfterGreatGeneral
; Function compile flags: /Odtp
;	COMDAT ?IsCrossesMountainsAfterGreatGeneral@CvTraitEntry@@QBE_NXZ
_TEXT	SEGMENT
_this$ = -4						; size = 4
?IsCrossesMountainsAfterGreatGeneral@CvTraitEntry@@QBE_NXZ PROC ; CvTraitEntry::IsCrossesMountainsAfterGreatGeneral, COMDAT
; _this$ = ecx

; 806  : {

	push	ebp
	mov	ebp, esp
	push	ecx
	mov	DWORD PTR _this$[ebp], ecx

; 807  : 	return m_bCrossesMountainsAfterGreatGeneral;

	mov	eax, DWORD PTR _this$[ebp]
	mov	al, BYTE PTR [eax+601]

; 808  : }

	mov	esp, ebp
	pop	ebp
	ret	0
?IsCrossesMountainsAfterGreatGeneral@CvTraitEntry@@QBE_NXZ ENDP ; CvTraitEntry::IsCrossesMountainsAfterGreatGeneral
_TEXT	ENDS
PUBLIC	?IsMayaCalendarBonuses@CvTraitEntry@@QBE_NXZ	; CvTraitEntry::IsMayaCalendarBonuses
; Function compile flags: /Odtp
;	COMDAT ?IsMayaCalendarBonuses@CvTraitEntry@@QBE_NXZ
_TEXT	SEGMENT
_this$ = -4						; size = 4
?IsMayaCalendarBonuses@CvTraitEntry@@QBE_NXZ PROC	; CvTraitEntry::IsMayaCalendarBonuses, COMDAT
; _this$ = ecx

; 812  : {

	push	ebp
	mov	ebp, esp
	push	ecx
	mov	DWORD PTR _this$[ebp], ecx

; 813  : 	return m_bMayaCalendarBonuses;

	mov	eax, DWORD PTR _this$[ebp]
	mov	al, BYTE PTR [eax+602]

; 814  : }

	mov	esp, ebp
	pop	ebp
	ret	0
?IsMayaCalendarBonuses@CvTraitEntry@@QBE_NXZ ENDP	; CvTraitEntry::IsMayaCalendarBonuses
_TEXT	ENDS
PUBLIC	?IsNoAnnexing@CvTraitEntry@@QBE_NXZ		; CvTraitEntry::IsNoAnnexing
; Function compile flags: /Odtp
;	COMDAT ?IsNoAnnexing@CvTraitEntry@@QBE_NXZ
_TEXT	SEGMENT
_this$ = -4						; size = 4
?IsNoAnnexing@CvTraitEntry@@QBE_NXZ PROC		; CvTraitEntry::IsNoAnnexing, COMDAT
; _this$ = ecx

; 818  : {

	push	ebp
	mov	ebp, esp
	push	ecx
	mov	DWORD PTR _this$[ebp], ecx

; 819  : 	return m_bNoAnnexing;

	mov	eax, DWORD PTR _this$[ebp]
	mov	al, BYTE PTR [eax+603]

; 820  : }

	mov	esp, ebp
	pop	ebp
	ret	0
?IsNoAnnexing@CvTraitEntry@@QBE_NXZ ENDP		; CvTraitEntry::IsNoAnnexing
_TEXT	ENDS
PUBLIC	?IsTechFromCityConquer@CvTraitEntry@@QBE_NXZ	; CvTraitEntry::IsTechFromCityConquer
; Function compile flags: /Odtp
;	COMDAT ?IsTechFromCityConquer@CvTraitEntry@@QBE_NXZ
_TEXT	SEGMENT
_this$ = -4						; size = 4
?IsTechFromCityConquer@CvTraitEntry@@QBE_NXZ PROC	; CvTraitEntry::IsTechFromCityConquer, COMDAT
; _this$ = ecx

; 824  : {

	push	ebp
	mov	ebp, esp
	push	ecx
	mov	DWORD PTR _this$[ebp], ecx

; 825  : 	return m_bTechFromCityConquer;

	mov	eax, DWORD PTR _this$[ebp]
	mov	al, BYTE PTR [eax+604]

; 826  : }

	mov	esp, ebp
	pop	ebp
	ret	0
?IsTechFromCityConquer@CvTraitEntry@@QBE_NXZ ENDP	; CvTraitEntry::IsTechFromCityConquer
_TEXT	ENDS
PUBLIC	?IsUniqueLuxuryRequiresNewArea@CvTraitEntry@@QBE_NXZ ; CvTraitEntry::IsUniqueLuxuryRequiresNewArea
; Function compile flags: /Odtp
;	COMDAT ?IsUniqueLuxuryRequiresNewArea@CvTraitEntry@@QBE_NXZ
_TEXT	SEGMENT
_this$ = -4						; size = 4
?IsUniqueLuxuryRequiresNewArea@CvTraitEntry@@QBE_NXZ PROC ; CvTraitEntry::IsUniqueLuxuryRequiresNewArea, COMDAT
; _this$ = ecx

; 830  : {

	push	ebp
	mov	ebp, esp
	push	ecx
	mov	DWORD PTR _this$[ebp], ecx

; 831  : 	return m_bUniqueLuxuryRequiresNewArea;

	mov	eax, DWORD PTR _this$[ebp]
	mov	al, BYTE PTR [eax+605]

; 832  : }

	mov	esp, ebp
	pop	ebp
	ret	0
?IsUniqueLuxuryRequiresNewArea@CvTraitEntry@@QBE_NXZ ENDP ; CvTraitEntry::IsUniqueLuxuryRequiresNewArea
_TEXT	ENDS
PUBLIC	?IsRiverTradeRoad@CvTraitEntry@@QBE_NXZ		; CvTraitEntry::IsRiverTradeRoad
; Function compile flags: /Odtp
;	COMDAT ?IsRiverTradeRoad@CvTraitEntry@@QBE_NXZ
_TEXT	SEGMENT
_this$ = -4						; size = 4
?IsRiverTradeRoad@CvTraitEntry@@QBE_NXZ PROC		; CvTraitEntry::IsRiverTradeRoad, COMDAT
; _this$ = ecx

; 836  : {

	push	ebp
	mov	ebp, esp
	push	ecx
	mov	DWORD PTR _this$[ebp], ecx

; 837  : 	return m_bRiverTradeRoad;

	mov	eax, DWORD PTR _this$[ebp]
	mov	al, BYTE PTR [eax+606]

; 838  : }

	mov	esp, ebp
	pop	ebp
	ret	0
?IsRiverTradeRoad@CvTraitEntry@@QBE_NXZ ENDP		; CvTraitEntry::IsRiverTradeRoad
_TEXT	ENDS
PUBLIC	?IsAngerFreeIntrusionOfCityStates@CvTraitEntry@@QBE_NXZ ; CvTraitEntry::IsAngerFreeIntrusionOfCityStates
; Function compile flags: /Odtp
;	COMDAT ?IsAngerFreeIntrusionOfCityStates@CvTraitEntry@@QBE_NXZ
_TEXT	SEGMENT
_this$ = -4						; size = 4
?IsAngerFreeIntrusionOfCityStates@CvTraitEntry@@QBE_NXZ PROC ; CvTraitEntry::IsAngerFreeIntrusionOfCityStates, COMDAT
; _this$ = ecx

; 842  : {

	push	ebp
	mov	ebp, esp
	push	ecx
	mov	DWORD PTR _this$[ebp], ecx

; 843  : 	return m_bAngerFreeIntrusionOfCityStates;

	mov	eax, DWORD PTR _this$[ebp]
	mov	al, BYTE PTR [eax+607]

; 844  : }

	mov	esp, ebp
	pop	ebp
	ret	0
?IsAngerFreeIntrusionOfCityStates@CvTraitEntry@@QBE_NXZ ENDP ; CvTraitEntry::IsAngerFreeIntrusionOfCityStates
_TEXT	ENDS
PUBLIC	?getShortDescription@CvTraitEntry@@QBEPBDXZ	; CvTraitEntry::getShortDescription
EXTRN	__imp_?c_str@?$basic_string@DU?$char_traits@D@std@@V?$allocator@D@2@@std@@QBEPBDXZ:PROC
; Function compile flags: /Odtp
;	COMDAT ?getShortDescription@CvTraitEntry@@QBEPBDXZ
_TEXT	SEGMENT
_this$ = -4						; size = 4
?getShortDescription@CvTraitEntry@@QBEPBDXZ PROC	; CvTraitEntry::getShortDescription, COMDAT
; _this$ = ecx

; 848  : {

	push	ebp
	mov	ebp, esp
	push	ecx
	mov	DWORD PTR _this$[ebp], ecx

; 849  : 	return m_strShortDescription;

	mov	ecx, DWORD PTR _this$[ebp]
	add	ecx, 608				; 00000260H
	call	DWORD PTR __imp_?c_str@?$basic_string@DU?$char_traits@D@std@@V?$allocator@D@2@@std@@QBEPBDXZ

; 850  : }

	mov	esp, ebp
	pop	ebp
	ret	0
?getShortDescription@CvTraitEntry@@QBEPBDXZ ENDP	; CvTraitEntry::getShortDescription
_TEXT	ENDS
PUBLIC	?setShortDescription@CvTraitEntry@@QAEXPBD@Z	; CvTraitEntry::setShortDescription
EXTRN	__imp_?clear@?$basic_string@DU?$char_traits@D@std@@V?$allocator@D@2@@std@@QAEXXZ:PROC
EXTRN	__imp_?assign@?$basic_string@DU?$char_traits@D@std@@V?$allocator@D@2@@std@@QAEAAV12@PBD@Z:PROC
; Function compile flags: /Odtp
;	COMDAT ?setShortDescription@CvTraitEntry@@QAEXPBD@Z
_TEXT	SEGMENT
_this$ = -8						; size = 4
$T229072 = -4						; size = 4
_szVal$ = 8						; size = 4
?setShortDescription@CvTraitEntry@@QAEXPBD@Z PROC	; CvTraitEntry::setShortDescription, COMDAT
; _this$ = ecx

; 854  : {

	push	ebp
	mov	ebp, esp
	sub	esp, 8
	mov	DWORD PTR _this$[ebp], ecx

; 855  : 	m_strShortDescription = szVal;

	mov	eax, DWORD PTR _this$[ebp]
	add	eax, 608				; 00000260H
	mov	DWORD PTR $T229072[ebp], eax
	cmp	DWORD PTR _szVal$[ebp], 0
	je	SHORT $LN4@setShortDe
	mov	ecx, DWORD PTR _szVal$[ebp]
	push	ecx
	mov	ecx, DWORD PTR $T229072[ebp]
	call	DWORD PTR __imp_?assign@?$basic_string@DU?$char_traits@D@std@@V?$allocator@D@2@@std@@QAEAAV12@PBD@Z
	jmp	SHORT $LN1@setShortDe
$LN4@setShortDe:
	mov	ecx, DWORD PTR $T229072[ebp]
	call	DWORD PTR __imp_?clear@?$basic_string@DU?$char_traits@D@std@@V?$allocator@D@2@@std@@QAEXXZ
$LN1@setShortDe:

; 856  : }

	mov	esp, ebp
	pop	ebp
	ret	4
?setShortDescription@CvTraitEntry@@QAEXPBD@Z ENDP	; CvTraitEntry::setShortDescription
_TEXT	ENDS
PUBLIC	?GetExtraYieldThreshold@CvTraitEntry@@QBEHH@Z	; CvTraitEntry::GetExtraYieldThreshold
; Function compile flags: /Odtp
;	COMDAT ?GetExtraYieldThreshold@CvTraitEntry@@QBEHH@Z
_TEXT	SEGMENT
tv69 = -8						; size = 4
_this$ = -4						; size = 4
_i$ = 8							; size = 4
?GetExtraYieldThreshold@CvTraitEntry@@QBEHH@Z PROC	; CvTraitEntry::GetExtraYieldThreshold, COMDAT
; _this$ = ecx

; 860  : {

	push	ebp
	mov	ebp, esp
	sub	esp, 8
	mov	DWORD PTR _this$[ebp], ecx

; 861  : 	return m_paiExtraYieldThreshold ? m_paiExtraYieldThreshold[i] : -1;

	mov	eax, DWORD PTR _this$[ebp]
	cmp	DWORD PTR [eax+636], 0
	je	SHORT $LN3@GetExtraYi
	mov	ecx, DWORD PTR _this$[ebp]
	mov	edx, DWORD PTR [ecx+636]
	mov	eax, DWORD PTR _i$[ebp]
	mov	ecx, DWORD PTR [edx+eax*4]
	mov	DWORD PTR tv69[ebp], ecx
	jmp	SHORT $LN4@GetExtraYi
$LN3@GetExtraYi:
	mov	DWORD PTR tv69[ebp], -1
$LN4@GetExtraYi:
	mov	eax, DWORD PTR tv69[ebp]

; 862  : }

	mov	esp, ebp
	pop	ebp
	ret	4
?GetExtraYieldThreshold@CvTraitEntry@@QBEHH@Z ENDP	; CvTraitEntry::GetExtraYieldThreshold
_TEXT	ENDS
PUBLIC	?GetYieldChange@CvTraitEntry@@QBEHH@Z		; CvTraitEntry::GetYieldChange
; Function compile flags: /Odtp
;	COMDAT ?GetYieldChange@CvTraitEntry@@QBEHH@Z
_TEXT	SEGMENT
tv69 = -8						; size = 4
_this$ = -4						; size = 4
_i$ = 8							; size = 4
?GetYieldChange@CvTraitEntry@@QBEHH@Z PROC		; CvTraitEntry::GetYieldChange, COMDAT
; _this$ = ecx

; 866  : {

	push	ebp
	mov	ebp, esp
	sub	esp, 8
	mov	DWORD PTR _this$[ebp], ecx

; 867  : 	return m_paiYieldChange ? m_paiYieldChange[i] : -1;

	mov	eax, DWORD PTR _this$[ebp]
	cmp	DWORD PTR [eax+640], 0
	je	SHORT $LN3@GetYieldCh
	mov	ecx, DWORD PTR _this$[ebp]
	mov	edx, DWORD PTR [ecx+640]
	mov	eax, DWORD PTR _i$[ebp]
	mov	ecx, DWORD PTR [edx+eax*4]
	mov	DWORD PTR tv69[ebp], ecx
	jmp	SHORT $LN4@GetYieldCh
$LN3@GetYieldCh:
	mov	DWORD PTR tv69[ebp], -1
$LN4@GetYieldCh:
	mov	eax, DWORD PTR tv69[ebp]

; 868  : }

	mov	esp, ebp
	pop	ebp
	ret	4
?GetYieldChange@CvTraitEntry@@QBEHH@Z ENDP		; CvTraitEntry::GetYieldChange
_TEXT	ENDS
PUBLIC	?GetYieldChangeStrategicResources@CvTraitEntry@@QBEHH@Z ; CvTraitEntry::GetYieldChangeStrategicResources
; Function compile flags: /Odtp
;	COMDAT ?GetYieldChangeStrategicResources@CvTraitEntry@@QBEHH@Z
_TEXT	SEGMENT
tv69 = -8						; size = 4
_this$ = -4						; size = 4
_i$ = 8							; size = 4
?GetYieldChangeStrategicResources@CvTraitEntry@@QBEHH@Z PROC ; CvTraitEntry::GetYieldChangeStrategicResources, COMDAT
; _this$ = ecx

; 872  : {

	push	ebp
	mov	ebp, esp
	sub	esp, 8
	mov	DWORD PTR _this$[ebp], ecx

; 873  : 	return m_paiYieldChangeStrategicResources ? m_paiYieldChangeStrategicResources[i] : -1;

	mov	eax, DWORD PTR _this$[ebp]
	cmp	DWORD PTR [eax+644], 0
	je	SHORT $LN3@GetYieldCh@2
	mov	ecx, DWORD PTR _this$[ebp]
	mov	edx, DWORD PTR [ecx+644]
	mov	eax, DWORD PTR _i$[ebp]
	mov	ecx, DWORD PTR [edx+eax*4]
	mov	DWORD PTR tv69[ebp], ecx
	jmp	SHORT $LN4@GetYieldCh@2
$LN3@GetYieldCh@2:
	mov	DWORD PTR tv69[ebp], -1
$LN4@GetYieldCh@2:
	mov	eax, DWORD PTR tv69[ebp]

; 874  : }

	mov	esp, ebp
	pop	ebp
	ret	4
?GetYieldChangeStrategicResources@CvTraitEntry@@QBEHH@Z ENDP ; CvTraitEntry::GetYieldChangeStrategicResources
_TEXT	ENDS
PUBLIC	?GetYieldChangeLuxuryResources@CvTraitEntry@@QBEHH@Z ; CvTraitEntry::GetYieldChangeLuxuryResources
; Function compile flags: /Odtp
;	COMDAT ?GetYieldChangeLuxuryResources@CvTraitEntry@@QBEHH@Z
_TEXT	SEGMENT
tv69 = -8						; size = 4
_this$ = -4						; size = 4
_i$ = 8							; size = 4
?GetYieldChangeLuxuryResources@CvTraitEntry@@QBEHH@Z PROC ; CvTraitEntry::GetYieldChangeLuxuryResources, COMDAT
; _this$ = ecx

; 879  : {

	push	ebp
	mov	ebp, esp
	sub	esp, 8
	mov	DWORD PTR _this$[ebp], ecx

; 880  : 	return m_paiYieldChangeLuxuryResources ? m_paiYieldChangeLuxuryResources[i] : -1;

	mov	eax, DWORD PTR _this$[ebp]
	cmp	DWORD PTR [eax+648], 0
	je	SHORT $LN3@GetYieldCh@3
	mov	ecx, DWORD PTR _this$[ebp]
	mov	edx, DWORD PTR [ecx+648]
	mov	eax, DWORD PTR _i$[ebp]
	mov	ecx, DWORD PTR [edx+eax*4]
	mov	DWORD PTR tv69[ebp], ecx
	jmp	SHORT $LN4@GetYieldCh@3
$LN3@GetYieldCh@3:
	mov	DWORD PTR tv69[ebp], -1
$LN4@GetYieldCh@3:
	mov	eax, DWORD PTR tv69[ebp]

; 881  : }

	mov	esp, ebp
	pop	ebp
	ret	4
?GetYieldChangeLuxuryResources@CvTraitEntry@@QBEHH@Z ENDP ; CvTraitEntry::GetYieldChangeLuxuryResources
_TEXT	ENDS
PUBLIC	?GetYieldChangeNaturalWonder@CvTraitEntry@@QBEHH@Z ; CvTraitEntry::GetYieldChangeNaturalWonder
; Function compile flags: /Odtp
;	COMDAT ?GetYieldChangeNaturalWonder@CvTraitEntry@@QBEHH@Z
_TEXT	SEGMENT
tv69 = -8						; size = 4
_this$ = -4						; size = 4
_i$ = 8							; size = 4
?GetYieldChangeNaturalWonder@CvTraitEntry@@QBEHH@Z PROC	; CvTraitEntry::GetYieldChangeNaturalWonder, COMDAT
; _this$ = ecx

; 886  : {

	push	ebp
	mov	ebp, esp
	sub	esp, 8
	mov	DWORD PTR _this$[ebp], ecx

; 887  : 	return m_paiYieldChangeNaturalWonder ? m_paiYieldChangeNaturalWonder[i] : -1;

	mov	eax, DWORD PTR _this$[ebp]
	cmp	DWORD PTR [eax+652], 0
	je	SHORT $LN3@GetYieldCh@4
	mov	ecx, DWORD PTR _this$[ebp]
	mov	edx, DWORD PTR [ecx+652]
	mov	eax, DWORD PTR _i$[ebp]
	mov	ecx, DWORD PTR [edx+eax*4]
	mov	DWORD PTR tv69[ebp], ecx
	jmp	SHORT $LN4@GetYieldCh@4
$LN3@GetYieldCh@4:
	mov	DWORD PTR tv69[ebp], -1
$LN4@GetYieldCh@4:
	mov	eax, DWORD PTR tv69[ebp]

; 888  : }

	mov	esp, ebp
	pop	ebp
	ret	4
?GetYieldChangeNaturalWonder@CvTraitEntry@@QBEHH@Z ENDP	; CvTraitEntry::GetYieldChangeNaturalWonder
_TEXT	ENDS
PUBLIC	?GetYieldChangePerTradePartner@CvTraitEntry@@QBEHH@Z ; CvTraitEntry::GetYieldChangePerTradePartner
; Function compile flags: /Odtp
;	COMDAT ?GetYieldChangePerTradePartner@CvTraitEntry@@QBEHH@Z
_TEXT	SEGMENT
tv69 = -8						; size = 4
_this$ = -4						; size = 4
_i$ = 8							; size = 4
?GetYieldChangePerTradePartner@CvTraitEntry@@QBEHH@Z PROC ; CvTraitEntry::GetYieldChangePerTradePartner, COMDAT
; _this$ = ecx

; 892  : {

	push	ebp
	mov	ebp, esp
	sub	esp, 8
	mov	DWORD PTR _this$[ebp], ecx

; 893  : 	return m_paiYieldChangePerTradePartner ? m_paiYieldChangePerTradePartner[i] : -1;

	mov	eax, DWORD PTR _this$[ebp]
	cmp	DWORD PTR [eax+656], 0
	je	SHORT $LN3@GetYieldCh@5
	mov	ecx, DWORD PTR _this$[ebp]
	mov	edx, DWORD PTR [ecx+656]
	mov	eax, DWORD PTR _i$[ebp]
	mov	ecx, DWORD PTR [edx+eax*4]
	mov	DWORD PTR tv69[ebp], ecx
	jmp	SHORT $LN4@GetYieldCh@5
$LN3@GetYieldCh@5:
	mov	DWORD PTR tv69[ebp], -1
$LN4@GetYieldCh@5:
	mov	eax, DWORD PTR tv69[ebp]

; 894  : }

	mov	esp, ebp
	pop	ebp
	ret	4
?GetYieldChangePerTradePartner@CvTraitEntry@@QBEHH@Z ENDP ; CvTraitEntry::GetYieldChangePerTradePartner
_TEXT	ENDS
PUBLIC	?GetYieldChangeIncomingTradeRoute@CvTraitEntry@@QBEHH@Z ; CvTraitEntry::GetYieldChangeIncomingTradeRoute
; Function compile flags: /Odtp
;	COMDAT ?GetYieldChangeIncomingTradeRoute@CvTraitEntry@@QBEHH@Z
_TEXT	SEGMENT
tv69 = -8						; size = 4
_this$ = -4						; size = 4
_i$ = 8							; size = 4
?GetYieldChangeIncomingTradeRoute@CvTraitEntry@@QBEHH@Z PROC ; CvTraitEntry::GetYieldChangeIncomingTradeRoute, COMDAT
; _this$ = ecx

; 898  : {

	push	ebp
	mov	ebp, esp
	sub	esp, 8
	mov	DWORD PTR _this$[ebp], ecx

; 899  : 	return m_paiYieldChangeIncomingTradeRoute ? m_paiYieldChangeIncomingTradeRoute[i] : -1;

	mov	eax, DWORD PTR _this$[ebp]
	cmp	DWORD PTR [eax+660], 0
	je	SHORT $LN3@GetYieldCh@6
	mov	ecx, DWORD PTR _this$[ebp]
	mov	edx, DWORD PTR [ecx+660]
	mov	eax, DWORD PTR _i$[ebp]
	mov	ecx, DWORD PTR [edx+eax*4]
	mov	DWORD PTR tv69[ebp], ecx
	jmp	SHORT $LN4@GetYieldCh@6
$LN3@GetYieldCh@6:
	mov	DWORD PTR tv69[ebp], -1
$LN4@GetYieldCh@6:
	mov	eax, DWORD PTR tv69[ebp]

; 900  : }

	mov	esp, ebp
	pop	ebp
	ret	4
?GetYieldChangeIncomingTradeRoute@CvTraitEntry@@QBEHH@Z ENDP ; CvTraitEntry::GetYieldChangeIncomingTradeRoute
_TEXT	ENDS
PUBLIC	?GetYieldModifier@CvTraitEntry@@QBEHH@Z		; CvTraitEntry::GetYieldModifier
; Function compile flags: /Odtp
;	COMDAT ?GetYieldModifier@CvTraitEntry@@QBEHH@Z
_TEXT	SEGMENT
tv69 = -8						; size = 4
_this$ = -4						; size = 4
_i$ = 8							; size = 4
?GetYieldModifier@CvTraitEntry@@QBEHH@Z PROC		; CvTraitEntry::GetYieldModifier, COMDAT
; _this$ = ecx

; 904  : {

	push	ebp
	mov	ebp, esp
	sub	esp, 8
	mov	DWORD PTR _this$[ebp], ecx

; 905  : 	return m_paiYieldModifier ? m_paiYieldModifier[i] : -1;

	mov	eax, DWORD PTR _this$[ebp]
	cmp	DWORD PTR [eax+664], 0
	je	SHORT $LN3@GetYieldMo
	mov	ecx, DWORD PTR _this$[ebp]
	mov	edx, DWORD PTR [ecx+664]
	mov	eax, DWORD PTR _i$[ebp]
	mov	ecx, DWORD PTR [edx+eax*4]
	mov	DWORD PTR tv69[ebp], ecx
	jmp	SHORT $LN4@GetYieldMo
$LN3@GetYieldMo:
	mov	DWORD PTR tv69[ebp], -1
$LN4@GetYieldMo:
	mov	eax, DWORD PTR tv69[ebp]

; 906  : }

	mov	esp, ebp
	pop	ebp
	ret	4
?GetYieldModifier@CvTraitEntry@@QBEHH@Z ENDP		; CvTraitEntry::GetYieldModifier
_TEXT	ENDS
PUBLIC	?GetStrategicResourceQuantityModifier@CvTraitEntry@@QBEHH@Z ; CvTraitEntry::GetStrategicResourceQuantityModifier
; Function compile flags: /Odtp
;	COMDAT ?GetStrategicResourceQuantityModifier@CvTraitEntry@@QBEHH@Z
_TEXT	SEGMENT
tv69 = -8						; size = 4
_this$ = -4						; size = 4
_i$ = 8							; size = 4
?GetStrategicResourceQuantityModifier@CvTraitEntry@@QBEHH@Z PROC ; CvTraitEntry::GetStrategicResourceQuantityModifier, COMDAT
; _this$ = ecx

; 910  : {

	push	ebp
	mov	ebp, esp
	sub	esp, 8
	mov	DWORD PTR _this$[ebp], ecx

; 911  : 	return m_piStrategicResourceQuantityModifier ? m_piStrategicResourceQuantityModifier[i] : -1;

	mov	eax, DWORD PTR _this$[ebp]
	cmp	DWORD PTR [eax+668], 0
	je	SHORT $LN3@GetStrateg
	mov	ecx, DWORD PTR _this$[ebp]
	mov	edx, DWORD PTR [ecx+668]
	mov	eax, DWORD PTR _i$[ebp]
	mov	ecx, DWORD PTR [edx+eax*4]
	mov	DWORD PTR tv69[ebp], ecx
	jmp	SHORT $LN4@GetStrateg
$LN3@GetStrateg:
	mov	DWORD PTR tv69[ebp], -1
$LN4@GetStrateg:
	mov	eax, DWORD PTR tv69[ebp]

; 912  : }

	mov	esp, ebp
	pop	ebp
	ret	4
?GetStrategicResourceQuantityModifier@CvTraitEntry@@QBEHH@Z ENDP ; CvTraitEntry::GetStrategicResourceQuantityModifier
_TEXT	ENDS
PUBLIC	?GetResourceQuantityModifier@CvTraitEntry@@QBEHH@Z ; CvTraitEntry::GetResourceQuantityModifier
; Function compile flags: /Odtp
;	COMDAT ?GetResourceQuantityModifier@CvTraitEntry@@QBEHH@Z
_TEXT	SEGMENT
tv69 = -8						; size = 4
_this$ = -4						; size = 4
_i$ = 8							; size = 4
?GetResourceQuantityModifier@CvTraitEntry@@QBEHH@Z PROC	; CvTraitEntry::GetResourceQuantityModifier, COMDAT
; _this$ = ecx

; 916  : {

	push	ebp
	mov	ebp, esp
	sub	esp, 8
	mov	DWORD PTR _this$[ebp], ecx

; 917  : 	CvAssertMsg(i < GC.getNumResourceInfos(), "Index out of bounds");
; 918  : 	CvAssertMsg(i > -1, "Index out of bounds");
; 919  : 	return m_piResourceQuantityModifiers ? m_piResourceQuantityModifiers[i] : -1;

	mov	eax, DWORD PTR _this$[ebp]
	cmp	DWORD PTR [eax+672], 0
	je	SHORT $LN3@GetResourc
	mov	ecx, DWORD PTR _this$[ebp]
	mov	edx, DWORD PTR [ecx+672]
	mov	eax, DWORD PTR _i$[ebp]
	mov	ecx, DWORD PTR [edx+eax*4]
	mov	DWORD PTR tv69[ebp], ecx
	jmp	SHORT $LN4@GetResourc
$LN3@GetResourc:
	mov	DWORD PTR tv69[ebp], -1
$LN4@GetResourc:
	mov	eax, DWORD PTR tv69[ebp]

; 920  : }

	mov	esp, ebp
	pop	ebp
	ret	4
?GetResourceQuantityModifier@CvTraitEntry@@QBEHH@Z ENDP	; CvTraitEntry::GetResourceQuantityModifier
_TEXT	ENDS
PUBLIC	?GetImprovementYieldChanges@CvTraitEntry@@QBEHW4ImprovementTypes@@W4YieldTypes@@@Z ; CvTraitEntry::GetImprovementYieldChanges
; Function compile flags: /Odtp
;	COMDAT ?GetImprovementYieldChanges@CvTraitEntry@@QBEHW4ImprovementTypes@@W4YieldTypes@@@Z
_TEXT	SEGMENT
tv71 = -8						; size = 4
_this$ = -4						; size = 4
_eIndex1$ = 8						; size = 4
_eIndex2$ = 12						; size = 4
?GetImprovementYieldChanges@CvTraitEntry@@QBEHW4ImprovementTypes@@W4YieldTypes@@@Z PROC ; CvTraitEntry::GetImprovementYieldChanges, COMDAT
; _this$ = ecx

; 924  : {

	push	ebp
	mov	ebp, esp
	sub	esp, 8
	mov	DWORD PTR _this$[ebp], ecx

; 925  : 	CvAssertMsg(eIndex1 < GC.getNumImprovementInfos(), "Index out of bounds");
; 926  : 	CvAssertMsg(eIndex1 > -1, "Index out of bounds");
; 927  : 	CvAssertMsg(eIndex2 < NUM_YIELD_TYPES, "Index out of bounds");
; 928  : 	CvAssertMsg(eIndex2 > -1, "Index out of bounds");
; 929  : #ifdef AUI_DATABASE_UTILITY_PROPER_2D_ALLOCATION_AND_DESTRUCTION
; 930  : 	return m_ppiImprovementYieldChanges.first ? m_ppiImprovementYieldChanges.first[eIndex1][eIndex2] : 0;
; 931  : #else
; 932  : 	return m_ppiImprovementYieldChanges ? m_ppiImprovementYieldChanges[eIndex1][eIndex2] : 0;

	mov	eax, DWORD PTR _this$[ebp]
	cmp	DWORD PTR [eax+684], 0
	je	SHORT $LN3@GetImprove
	mov	ecx, DWORD PTR _this$[ebp]
	mov	edx, DWORD PTR [ecx+684]
	mov	eax, DWORD PTR _eIndex1$[ebp]
	mov	ecx, DWORD PTR [edx+eax*4]
	mov	edx, DWORD PTR _eIndex2$[ebp]
	mov	eax, DWORD PTR [ecx+edx*4]
	mov	DWORD PTR tv71[ebp], eax
	jmp	SHORT $LN4@GetImprove
$LN3@GetImprove:
	mov	DWORD PTR tv71[ebp], 0
$LN4@GetImprove:
	mov	eax, DWORD PTR tv71[ebp]

; 933  : #endif
; 934  : }

	mov	esp, ebp
	pop	ebp
	ret	8
?GetImprovementYieldChanges@CvTraitEntry@@QBEHW4ImprovementTypes@@W4YieldTypes@@@Z ENDP ; CvTraitEntry::GetImprovementYieldChanges
_TEXT	ENDS
PUBLIC	?GetSpecialistYieldChanges@CvTraitEntry@@QBEHW4SpecialistTypes@@W4YieldTypes@@@Z ; CvTraitEntry::GetSpecialistYieldChanges
; Function compile flags: /Odtp
;	COMDAT ?GetSpecialistYieldChanges@CvTraitEntry@@QBEHW4SpecialistTypes@@W4YieldTypes@@@Z
_TEXT	SEGMENT
tv71 = -8						; size = 4
_this$ = -4						; size = 4
_eIndex1$ = 8						; size = 4
_eIndex2$ = 12						; size = 4
?GetSpecialistYieldChanges@CvTraitEntry@@QBEHW4SpecialistTypes@@W4YieldTypes@@@Z PROC ; CvTraitEntry::GetSpecialistYieldChanges, COMDAT
; _this$ = ecx

; 938  : {

	push	ebp
	mov	ebp, esp
	sub	esp, 8
	mov	DWORD PTR _this$[ebp], ecx

; 939  : 	CvAssertMsg(eIndex1 < GC.getNumSpecialistInfos(), "Index out of bounds");
; 940  : 	CvAssertMsg(eIndex1 > -1, "Index out of bounds");
; 941  : 	CvAssertMsg(eIndex2 < NUM_YIELD_TYPES, "Index out of bounds");
; 942  : 	CvAssertMsg(eIndex2 > -1, "Index out of bounds");
; 943  : #ifdef AUI_DATABASE_UTILITY_PROPER_2D_ALLOCATION_AND_DESTRUCTION
; 944  : 	return m_ppiSpecialistYieldChanges.first ? m_ppiSpecialistYieldChanges.first[eIndex1][eIndex2] : 0;
; 945  : #else
; 946  : 	return m_ppiSpecialistYieldChanges ? m_ppiSpecialistYieldChanges[eIndex1][eIndex2] : 0;

	mov	eax, DWORD PTR _this$[ebp]
	cmp	DWORD PTR [eax+688], 0
	je	SHORT $LN3@GetSpecial
	mov	ecx, DWORD PTR _this$[ebp]
	mov	edx, DWORD PTR [ecx+688]
	mov	eax, DWORD PTR _eIndex1$[ebp]
	mov	ecx, DWORD PTR [edx+eax*4]
	mov	edx, DWORD PTR _eIndex2$[ebp]
	mov	eax, DWORD PTR [ecx+edx*4]
	mov	DWORD PTR tv71[ebp], eax
	jmp	SHORT $LN4@GetSpecial
$LN3@GetSpecial:
	mov	DWORD PTR tv71[ebp], 0
$LN4@GetSpecial:
	mov	eax, DWORD PTR tv71[ebp]

; 947  : #endif
; 948  : }

	mov	esp, ebp
	pop	ebp
	ret	8
?GetSpecialistYieldChanges@CvTraitEntry@@QBEHW4SpecialistTypes@@W4YieldTypes@@@Z ENDP ; CvTraitEntry::GetSpecialistYieldChanges
_TEXT	ENDS
PUBLIC	?GetUnimprovedFeatureYieldChanges@CvTraitEntry@@QBEHW4FeatureTypes@@W4YieldTypes@@@Z ; CvTraitEntry::GetUnimprovedFeatureYieldChanges
; Function compile flags: /Odtp
;	COMDAT ?GetUnimprovedFeatureYieldChanges@CvTraitEntry@@QBEHW4FeatureTypes@@W4YieldTypes@@@Z
_TEXT	SEGMENT
tv71 = -8						; size = 4
_this$ = -4						; size = 4
_eIndex1$ = 8						; size = 4
_eIndex2$ = 12						; size = 4
?GetUnimprovedFeatureYieldChanges@CvTraitEntry@@QBEHW4FeatureTypes@@W4YieldTypes@@@Z PROC ; CvTraitEntry::GetUnimprovedFeatureYieldChanges, COMDAT
; _this$ = ecx

; 966  : {

	push	ebp
	mov	ebp, esp
	sub	esp, 8
	mov	DWORD PTR _this$[ebp], ecx

; 967  : 	CvAssertMsg(eIndex1 < GC.getNumFeatureInfos(), "Index out of bounds");
; 968  : 	CvAssertMsg(eIndex1 > -1, "Index out of bounds");
; 969  : 	CvAssertMsg(eIndex2 < NUM_YIELD_TYPES, "Index out of bounds");
; 970  : 	CvAssertMsg(eIndex2 > -1, "Index out of bounds");
; 971  : #ifdef AUI_DATABASE_UTILITY_PROPER_2D_ALLOCATION_AND_DESTRUCTION
; 972  : 	return m_ppiUnimprovedFeatureYieldChanges.first ? m_ppiUnimprovedFeatureYieldChanges.first[eIndex1][eIndex2] : 0;
; 973  : #else
; 974  : 	return m_ppiUnimprovedFeatureYieldChanges ? m_ppiUnimprovedFeatureYieldChanges[eIndex1][eIndex2] : 0;

	mov	eax, DWORD PTR _this$[ebp]
	cmp	DWORD PTR [eax+692], 0
	je	SHORT $LN3@GetUnimpro
	mov	ecx, DWORD PTR _this$[ebp]
	mov	edx, DWORD PTR [ecx+692]
	mov	eax, DWORD PTR _eIndex1$[ebp]
	mov	ecx, DWORD PTR [edx+eax*4]
	mov	edx, DWORD PTR _eIndex2$[ebp]
	mov	eax, DWORD PTR [ecx+edx*4]
	mov	DWORD PTR tv71[ebp], eax
	jmp	SHORT $LN4@GetUnimpro
$LN3@GetUnimpro:
	mov	DWORD PTR tv71[ebp], 0
$LN4@GetUnimpro:
	mov	eax, DWORD PTR tv71[ebp]

; 975  : #endif
; 976  : }

	mov	esp, ebp
	pop	ebp
	ret	8
?GetUnimprovedFeatureYieldChanges@CvTraitEntry@@QBEHW4FeatureTypes@@W4YieldTypes@@@Z ENDP ; CvTraitEntry::GetUnimprovedFeatureYieldChanges
_TEXT	ENDS
PUBLIC	?GetMovesChangeUnitCombat@CvTraitEntry@@QBEHH@Z	; CvTraitEntry::GetMovesChangeUnitCombat
; Function compile flags: /Odtp
;	COMDAT ?GetMovesChangeUnitCombat@CvTraitEntry@@QBEHH@Z
_TEXT	SEGMENT
_this$ = -4						; size = 4
_unitCombatID$ = 8					; size = 4
?GetMovesChangeUnitCombat@CvTraitEntry@@QBEHH@Z PROC	; CvTraitEntry::GetMovesChangeUnitCombat, COMDAT
; _this$ = ecx

; 980  : {

	push	ebp
	mov	ebp, esp
	push	ecx
	mov	DWORD PTR _this$[ebp], ecx

; 981  : 	CvAssertMsg((unitCombatID >= 0), "unitCombatID is less than zero");
; 982  : 	CvAssertMsg((unitCombatID < GC.getNumUnitCombatClassInfos()), "unitCombatID exceeds number of combat classes");
; 983  : 
; 984  : 	return m_piMovesChangeUnitCombats[unitCombatID];

	mov	eax, DWORD PTR _this$[ebp]
	mov	ecx, DWORD PTR [eax+676]
	mov	edx, DWORD PTR _unitCombatID$[ebp]
	mov	eax, DWORD PTR [ecx+edx*4]

; 985  : }

	mov	esp, ebp
	pop	ebp
	ret	4
?GetMovesChangeUnitCombat@CvTraitEntry@@QBEHH@Z ENDP	; CvTraitEntry::GetMovesChangeUnitCombat
_TEXT	ENDS
PUBLIC	?GetMaintenanceModifierUnitCombat@CvTraitEntry@@QBEHH@Z ; CvTraitEntry::GetMaintenanceModifierUnitCombat
; Function compile flags: /Odtp
;	COMDAT ?GetMaintenanceModifierUnitCombat@CvTraitEntry@@QBEHH@Z
_TEXT	SEGMENT
_this$ = -4						; size = 4
_unitCombatID$ = 8					; size = 4
?GetMaintenanceModifierUnitCombat@CvTraitEntry@@QBEHH@Z PROC ; CvTraitEntry::GetMaintenanceModifierUnitCombat, COMDAT
; _this$ = ecx

; 989  : {

	push	ebp
	mov	ebp, esp
	push	ecx
	mov	DWORD PTR _this$[ebp], ecx

; 990  : 	CvAssertMsg((unitCombatID >= 0), "unitCombatID is less than zero");
; 991  : 	CvAssertMsg((unitCombatID < GC.getNumUnitCombatClassInfos()), "unitCombatID exceeds number of combat classes");
; 992  : 
; 993  : 	return m_piMaintenanceModifierUnitCombats[unitCombatID];

	mov	eax, DWORD PTR _this$[ebp]
	mov	ecx, DWORD PTR [eax+680]
	mov	edx, DWORD PTR _unitCombatID$[ebp]
	mov	eax, DWORD PTR [ecx+edx*4]

; 994  : }

	mov	esp, ebp
	pop	ebp
	ret	4
?GetMaintenanceModifierUnitCombat@CvTraitEntry@@QBEHH@Z ENDP ; CvTraitEntry::GetMaintenanceModifierUnitCombat
_TEXT	ENDS
PUBLIC	?GetFreeResourceXCities@CvTraitEntry@@QBE?AUFreeResourceXCities@@W4ResourceTypes@@@Z ; CvTraitEntry::GetFreeResourceXCities
; Function compile flags: /Odtp
;	COMDAT ?GetFreeResourceXCities@CvTraitEntry@@QBE?AUFreeResourceXCities@@W4ResourceTypes@@@Z
_TEXT	SEGMENT
_this$ = -4						; size = 4
___$ReturnUdt$ = 8					; size = 4
_eResource$ = 12					; size = 4
?GetFreeResourceXCities@CvTraitEntry@@QBE?AUFreeResourceXCities@@W4ResourceTypes@@@Z PROC ; CvTraitEntry::GetFreeResourceXCities, COMDAT
; _this$ = ecx

; 998  : {

	push	ebp
	mov	ebp, esp
	push	ecx
	mov	DWORD PTR _this$[ebp], ecx

; 999  : 	return m_aFreeResourceXCities[(int)eResource];

	mov	eax, DWORD PTR _this$[ebp]
	mov	ecx, DWORD PTR [eax+712]
	mov	edx, DWORD PTR _eResource$[ebp]
	mov	eax, DWORD PTR [ecx+edx*8]
	mov	ecx, DWORD PTR [ecx+edx*8+4]
	mov	edx, DWORD PTR ___$ReturnUdt$[ebp]
	mov	DWORD PTR [edx], eax
	mov	DWORD PTR [edx+4], ecx
	mov	eax, DWORD PTR ___$ReturnUdt$[ebp]

; 1000 : }

	mov	esp, ebp
	pop	ebp
	ret	8
?GetFreeResourceXCities@CvTraitEntry@@QBE?AUFreeResourceXCities@@W4ResourceTypes@@@Z ENDP ; CvTraitEntry::GetFreeResourceXCities
_TEXT	ENDS
PUBLIC	?GetObsoleteTech@CvTraitEntry@@QBEHXZ		; CvTraitEntry::GetObsoleteTech
; Function compile flags: /Odtp
;	COMDAT ?GetObsoleteTech@CvTraitEntry@@QBEHXZ
_TEXT	SEGMENT
_this$ = -4						; size = 4
?GetObsoleteTech@CvTraitEntry@@QBEHXZ PROC		; CvTraitEntry::GetObsoleteTech, COMDAT
; _this$ = ecx

; 1004 : {

	push	ebp
	mov	ebp, esp
	push	ecx
	mov	DWORD PTR _this$[ebp], ecx

; 1005 : 	return m_iObsoleteTech;

	mov	eax, DWORD PTR _this$[ebp]
	mov	eax, DWORD PTR [eax+416]

; 1006 : }

	mov	esp, ebp
	pop	ebp
	ret	0
?GetObsoleteTech@CvTraitEntry@@QBEHXZ ENDP		; CvTraitEntry::GetObsoleteTech
_TEXT	ENDS
PUBLIC	?GetPrereqTech@CvTraitEntry@@QBEHXZ		; CvTraitEntry::GetPrereqTech
; Function compile flags: /Odtp
;	COMDAT ?GetPrereqTech@CvTraitEntry@@QBEHXZ
_TEXT	SEGMENT
_this$ = -4						; size = 4
?GetPrereqTech@CvTraitEntry@@QBEHXZ PROC		; CvTraitEntry::GetPrereqTech, COMDAT
; _this$ = ecx

; 1010 : {

	push	ebp
	mov	ebp, esp
	push	ecx
	mov	DWORD PTR _this$[ebp], ecx

; 1011 : 	return m_iPrereqTech;

	mov	eax, DWORD PTR _this$[ebp]
	mov	eax, DWORD PTR [eax+420]

; 1012 : }

	mov	esp, ebp
	pop	ebp
	ret	0
?GetPrereqTech@CvTraitEntry@@QBEHXZ ENDP		; CvTraitEntry::GetPrereqTech
_TEXT	ENDS
PUBLIC	?_Inc@const_iterator@?$_Tree@V?$_Tmap_traits@HHU?$less@H@std@@V?$allocator@U?$pair@$$CBHH@std@@@2@$00@std@@@std@@QAEXXZ ; std::_Tree<std::_Tmap_traits<int,int,std::less<int>,std::allocator<std::pair<int const ,int> >,1> >::const_iterator::_Inc
PUBLIC	?_Ubound@?$_Tree@V?$_Tmap_traits@HHU?$less@H@std@@V?$allocator@U?$pair@$$CBHH@std@@@2@$00@std@@@std@@IBEPAU_Node@?$_Tree_nod@V?$_Tmap_traits@HHU?$less@H@std@@V?$allocator@U?$pair@$$CBHH@std@@@2@$00@std@@@2@ABH@Z ; std::_Tree<std::_Tmap_traits<int,int,std::less<int>,std::allocator<std::pair<int const ,int> >,1> >::_Ubound
PUBLIC	?find@?$_Tree@V?$_Tmap_traits@HHU?$less@H@std@@V?$allocator@U?$pair@$$CBHH@std@@@2@$00@std@@@std@@QBE?AVconst_iterator@12@ABH@Z ; std::_Tree<std::_Tmap_traits<int,int,std::less<int>,std::allocator<std::pair<int const ,int> >,1> >::find
PUBLIC	?IsFreePromotionUnitCombat@CvTraitEntry@@QBE_NHH@Z ; CvTraitEntry::IsFreePromotionUnitCombat
; Function compile flags: /Odtp
;	COMDAT ?IsFreePromotionUnitCombat@CvTraitEntry@@QBE_NHH@Z
_TEXT	SEGMENT
_this$ = -80						; size = 4
$T229252 = -60						; size = 4
$T229201 = -48						; size = 4
$T229140 = -12						; size = 4
_lastElement$221948 = -8				; size = 4
_it$ = -4						; size = 4
_promotionID$ = 8					; size = 4
_unitCombatID$ = 12					; size = 4
?IsFreePromotionUnitCombat@CvTraitEntry@@QBE_NHH@Z PROC	; CvTraitEntry::IsFreePromotionUnitCombat, COMDAT
; _this$ = ecx

; 1016 : {

	push	ebp
	mov	ebp, esp
	sub	esp, 80					; 00000050H
	mov	DWORD PTR _this$[ebp], ecx

; 1017 : 	std::multimap<int, int>::const_iterator it = m_FreePromotionUnitCombats.find(promotionID);

	lea	eax, DWORD PTR _promotionID$[ebp]
	push	eax
	lea	ecx, DWORD PTR _it$[ebp]
	push	ecx
	mov	ecx, DWORD PTR _this$[ebp]
	add	ecx, 696				; 000002b8H
	call	?find@?$_Tree@V?$_Tmap_traits@HHU?$less@H@std@@V?$allocator@U?$pair@$$CBHH@std@@@2@$00@std@@@std@@QBE?AVconst_iterator@12@ABH@Z ; std::_Tree<std::_Tmap_traits<int,int,std::less<int>,std::allocator<std::pair<int const ,int> >,1> >::find

; 1018 : 	if(it != m_FreePromotionUnitCombats.end())

	mov	edx, DWORD PTR _this$[ebp]
	mov	eax, DWORD PTR [edx+700]
	mov	DWORD PTR $T229201[ebp], eax
	mov	ecx, DWORD PTR $T229201[ebp]
	mov	DWORD PTR $T229140[ebp], ecx
	mov	edx, DWORD PTR _it$[ebp]
	xor	eax, eax
	cmp	edx, DWORD PTR $T229140[ebp]
	sete	al
	movzx	ecx, al
	neg	ecx
	sbb	ecx, ecx
	add	ecx, 1
	movzx	edx, cl
	test	edx, edx
	je	SHORT $LN5@IsFreeProm

; 1019 : 	{
; 1020 : 		// get an iterator to the element that is one past the last element associated with key
; 1021 : 		std::multimap<int, int>::const_iterator lastElement = m_FreePromotionUnitCombats.upper_bound(promotionID);

	lea	eax, DWORD PTR _promotionID$[ebp]
	push	eax
	mov	ecx, DWORD PTR _this$[ebp]
	add	ecx, 696				; 000002b8H
	call	?_Ubound@?$_Tree@V?$_Tmap_traits@HHU?$less@H@std@@V?$allocator@U?$pair@$$CBHH@std@@@2@$00@std@@@std@@IBEPAU_Node@?$_Tree_nod@V?$_Tmap_traits@HHU?$less@H@std@@V?$allocator@U?$pair@$$CBHH@std@@@2@$00@std@@@2@ABH@Z ; std::_Tree<std::_Tmap_traits<int,int,std::less<int>,std::allocator<std::pair<int const ,int> >,1> >::_Ubound
	mov	DWORD PTR $T229252[ebp], eax
	mov	ecx, DWORD PTR $T229252[ebp]
	mov	DWORD PTR _lastElement$221948[ebp], ecx

; 1022 : 
; 1023 : 		// for each element in the sequence [itr, lastElement)
; 1024 : 		for(; it != lastElement; ++it)

	jmp	SHORT $LN106@IsFreeProm
$LN3@IsFreeProm:
	lea	ecx, DWORD PTR _it$[ebp]
	call	?_Inc@const_iterator@?$_Tree@V?$_Tmap_traits@HHU?$less@H@std@@V?$allocator@U?$pair@$$CBHH@std@@@2@$00@std@@@std@@QAEXXZ ; std::_Tree<std::_Tmap_traits<int,int,std::less<int>,std::allocator<std::pair<int const ,int> >,1> >::const_iterator::_Inc
$LN106@IsFreeProm:
	mov	edx, DWORD PTR _it$[ebp]
	xor	eax, eax
	cmp	edx, DWORD PTR _lastElement$221948[ebp]
	sete	al
	movzx	ecx, al
	neg	ecx
	sbb	ecx, ecx
	add	ecx, 1
	movzx	edx, cl
	test	edx, edx
	je	SHORT $LN5@IsFreeProm

; 1025 : 		{
; 1026 : 			if(it->second == unitCombatID)

	mov	eax, DWORD PTR _it$[ebp]
	mov	ecx, DWORD PTR [eax+16]
	cmp	ecx, DWORD PTR _unitCombatID$[ebp]
	jne	SHORT $LN1@IsFreeProm

; 1027 : 			{
; 1028 : 				return true;

	mov	al, 1
	jmp	SHORT $LN6@IsFreeProm
$LN1@IsFreeProm:

; 1029 : 			}
; 1030 : 		}

	jmp	SHORT $LN3@IsFreeProm
$LN5@IsFreeProm:

; 1031 : 	}
; 1032 : 
; 1033 : 	return false;

	xor	al, al
$LN6@IsFreeProm:

; 1034 : }

	mov	esp, ebp
	pop	ebp
	ret	8
?IsFreePromotionUnitCombat@CvTraitEntry@@QBE_NHH@Z ENDP	; CvTraitEntry::IsFreePromotionUnitCombat
_TEXT	ENDS
PUBLIC	?IsObsoleteByTech@CvTraitEntry@@QAE_NW4TeamTypes@@@Z ; CvTraitEntry::IsObsoleteByTech
EXTRN	?HasTech@CvTeamTechs@@QBE_NW4TechTypes@@@Z:PROC	; CvTeamTechs::HasTech
EXTRN	?GetTeamTechs@CvTeam@@QBEPAVCvTeamTechs@@XZ:PROC ; CvTeam::GetTeamTechs
EXTRN	?m_aTeams@CvTeam@@1PAV1@A:DWORD			; CvTeam::m_aTeams
; Function compile flags: /Odtp
;	COMDAT ?IsObsoleteByTech@CvTraitEntry@@QAE_NW4TeamTypes@@@Z
_TEXT	SEGMENT
_this$ = -8						; size = 4
$T229333 = -4						; size = 4
_eTeam$ = 8						; size = 4
?IsObsoleteByTech@CvTraitEntry@@QAE_NW4TeamTypes@@@Z PROC ; CvTraitEntry::IsObsoleteByTech, COMDAT
; _this$ = ecx

; 1038 : {

	push	ebp
	mov	ebp, esp
	sub	esp, 8
	mov	DWORD PTR _this$[ebp], ecx

; 1039 : 	if(m_iObsoleteTech != NO_TECH)

	mov	eax, DWORD PTR _this$[ebp]
	cmp	DWORD PTR [eax+416], -1
	je	SHORT $LN2@IsObsolete

; 1040 : 	{
; 1041 : 		if(GET_TEAM(eTeam).GetTeamTechs()->HasTech((TechTypes)m_iObsoleteTech))

	mov	ecx, DWORD PTR _eTeam$[ebp]
	imul	ecx, 2984				; 00000ba8H
	add	ecx, DWORD PTR ?m_aTeams@CvTeam@@1PAV1@A ; CvTeam::m_aTeams
	mov	DWORD PTR $T229333[ebp], ecx
	mov	edx, DWORD PTR _this$[ebp]
	mov	eax, DWORD PTR [edx+416]
	push	eax
	mov	ecx, DWORD PTR $T229333[ebp]
	call	?GetTeamTechs@CvTeam@@QBEPAVCvTeamTechs@@XZ ; CvTeam::GetTeamTechs
	mov	ecx, eax
	call	?HasTech@CvTeamTechs@@QBE_NW4TechTypes@@@Z ; CvTeamTechs::HasTech
	movzx	ecx, al
	test	ecx, ecx
	je	SHORT $LN2@IsObsolete

; 1042 : 		{
; 1043 : 			return true;

	mov	al, 1
	jmp	SHORT $LN3@IsObsolete
$LN2@IsObsolete:

; 1044 : 		}
; 1045 : 	}
; 1046 : 	return false;

	xor	al, al
$LN3@IsObsolete:

; 1047 : }

	mov	esp, ebp
	pop	ebp
	ret	4
?IsObsoleteByTech@CvTraitEntry@@QAE_NW4TeamTypes@@@Z ENDP ; CvTraitEntry::IsObsoleteByTech
_TEXT	ENDS
PUBLIC	?IsEnabledByTech@CvTraitEntry@@QAE_NW4TeamTypes@@@Z ; CvTraitEntry::IsEnabledByTech
; Function compile flags: /Odtp
;	COMDAT ?IsEnabledByTech@CvTraitEntry@@QAE_NW4TeamTypes@@@Z
_TEXT	SEGMENT
_this$ = -8						; size = 4
$T229339 = -4						; size = 4
_eTeam$ = 8						; size = 4
?IsEnabledByTech@CvTraitEntry@@QAE_NW4TeamTypes@@@Z PROC ; CvTraitEntry::IsEnabledByTech, COMDAT
; _this$ = ecx

; 1051 : {

	push	ebp
	mov	ebp, esp
	sub	esp, 8
	mov	DWORD PTR _this$[ebp], ecx

; 1052 : 	if(m_iPrereqTech != NO_TECH)

	mov	eax, DWORD PTR _this$[ebp]
	cmp	DWORD PTR [eax+420], -1
	je	SHORT $LN3@IsEnabledB

; 1053 : 	{
; 1054 : 		if(GET_TEAM(eTeam).GetTeamTechs()->HasTech((TechTypes)m_iPrereqTech))

	mov	ecx, DWORD PTR _eTeam$[ebp]
	imul	ecx, 2984				; 00000ba8H
	add	ecx, DWORD PTR ?m_aTeams@CvTeam@@1PAV1@A ; CvTeam::m_aTeams
	mov	DWORD PTR $T229339[ebp], ecx
	mov	edx, DWORD PTR _this$[ebp]
	mov	eax, DWORD PTR [edx+420]
	push	eax
	mov	ecx, DWORD PTR $T229339[ebp]
	call	?GetTeamTechs@CvTeam@@QBEPAVCvTeamTechs@@XZ ; CvTeam::GetTeamTechs
	mov	ecx, eax
	call	?HasTech@CvTeamTechs@@QBE_NW4TechTypes@@@Z ; CvTeamTechs::HasTech
	movzx	ecx, al
	test	ecx, ecx
	je	SHORT $LN2@IsEnabledB

; 1055 : 		{
; 1056 : 			return true;

	mov	al, 1
	jmp	SHORT $LN4@IsEnabledB

; 1057 : 		}
; 1058 : 		else

	jmp	SHORT $LN3@IsEnabledB
$LN2@IsEnabledB:

; 1059 : 		{
; 1060 : 			return false;

	xor	al, al
	jmp	SHORT $LN4@IsEnabledB
$LN3@IsEnabledB:

; 1061 : 		}
; 1062 : 	}
; 1063 : 	return true;

	mov	al, 1
$LN4@IsEnabledB:

; 1064 : }

	mov	esp, ebp
	pop	ebp
	ret	4
?IsEnabledByTech@CvTraitEntry@@QAE_NW4TeamTypes@@@Z ENDP ; CvTraitEntry::IsEnabledByTech
_TEXT	ENDS
PUBLIC	??A?$vector@_NV?$allocator@_N@std@@@std@@QAE?AV?$_Vb_reference@IHV?$vector@_NV?$allocator@_N@std@@@std@@@1@I@Z ; std::vector<bool,std::allocator<bool> >::operator[]
PUBLIC	?NoTrain@CvTraitEntry@@QAE_NW4UnitClassTypes@@@Z ; CvTraitEntry::NoTrain
; Function compile flags: /Odtp
;	COMDAT ?NoTrain@CvTraitEntry@@QAE_NW4UnitClassTypes@@@Z
_TEXT	SEGMENT
_this$ = -64						; size = 4
$T229436 = -60						; size = 4
$T229426 = -56						; size = 4
$T229342 = -8						; size = 8
_eUnitClass$ = 8					; size = 4
?NoTrain@CvTraitEntry@@QAE_NW4UnitClassTypes@@@Z PROC	; CvTraitEntry::NoTrain, COMDAT
; _this$ = ecx

; 1067 : {

	push	ebp
	mov	ebp, esp
	sub	esp, 64					; 00000040H
	mov	DWORD PTR _this$[ebp], ecx

; 1068 : 	if (eUnitClass != NO_UNITCLASS)

	cmp	DWORD PTR _eUnitClass$[ebp], -1
	je	SHORT $LN2@NoTrain

; 1069 : 	{
; 1070 : 		return m_abNoTrainUnitClass[eUnitClass];

	mov	eax, DWORD PTR _eUnitClass$[ebp]
	push	eax
	lea	ecx, DWORD PTR $T229342[ebp]
	push	ecx
	mov	ecx, DWORD PTR _this$[ebp]
	add	ecx, 724				; 000002d4H
	call	??A?$vector@_NV?$allocator@_N@std@@@std@@QAE?AV?$_Vb_reference@IHV?$vector@_NV?$allocator@_N@std@@@std@@@1@I@Z ; std::vector<bool,std::allocator<bool> >::operator[]
	mov	DWORD PTR $T229436[ebp], eax
	mov	edx, DWORD PTR $T229436[ebp]
	mov	eax, DWORD PTR [edx]
	mov	DWORD PTR $T229426[ebp], eax
	mov	ecx, DWORD PTR $T229436[ebp]
	mov	eax, 1
	mov	ecx, DWORD PTR [ecx+4]
	shl	eax, cl
	mov	edx, DWORD PTR $T229426[ebp]
	and	eax, DWORD PTR [edx]
	neg	eax
	sbb	eax, eax
	neg	eax
	jmp	SHORT $LN3@NoTrain

; 1071 : 	}
; 1072 : 	else

	jmp	SHORT $LN3@NoTrain
$LN2@NoTrain:

; 1073 : 	{
; 1074 : 		return false;

	xor	al, al
$LN3@NoTrain:

; 1075 : 	}
; 1076 : }

	mov	esp, ebp
	pop	ebp
	ret	4
?NoTrain@CvTraitEntry@@QAE_NW4UnitClassTypes@@@Z ENDP	; CvTraitEntry::NoTrain
_TEXT	ENDS
PUBLIC	?NoBuild@CvTraitEntry@@QAE_NW4ImprovementTypes@@@Z ; CvTraitEntry::NoBuild
; Function compile flags: /Odtp
;	COMDAT ?NoBuild@CvTraitEntry@@QAE_NW4ImprovementTypes@@@Z
_TEXT	SEGMENT
_this$ = -64						; size = 4
$T229533 = -60						; size = 4
$T229523 = -56						; size = 4
$T229439 = -8						; size = 8
_eImprovementType$ = 8					; size = 4
?NoBuild@CvTraitEntry@@QAE_NW4ImprovementTypes@@@Z PROC	; CvTraitEntry::NoBuild, COMDAT
; _this$ = ecx

; 1081 : {

	push	ebp
	mov	ebp, esp
	sub	esp, 64					; 00000040H
	mov	DWORD PTR _this$[ebp], ecx

; 1082 : 	if (eImprovementType != NO_IMPROVEMENT)

	cmp	DWORD PTR _eImprovementType$[ebp], -1
	je	SHORT $LN2@NoBuild

; 1083 : 	{
; 1084 : 		return m_abNoBuildImprovement[eImprovementType];

	mov	eax, DWORD PTR _eImprovementType$[ebp]
	push	eax
	lea	ecx, DWORD PTR $T229439[ebp]
	push	ecx
	mov	ecx, DWORD PTR _this$[ebp]
	add	ecx, 744				; 000002e8H
	call	??A?$vector@_NV?$allocator@_N@std@@@std@@QAE?AV?$_Vb_reference@IHV?$vector@_NV?$allocator@_N@std@@@std@@@1@I@Z ; std::vector<bool,std::allocator<bool> >::operator[]
	mov	DWORD PTR $T229533[ebp], eax
	mov	edx, DWORD PTR $T229533[ebp]
	mov	eax, DWORD PTR [edx]
	mov	DWORD PTR $T229523[ebp], eax
	mov	ecx, DWORD PTR $T229533[ebp]
	mov	eax, 1
	mov	ecx, DWORD PTR [ecx+4]
	shl	eax, cl
	mov	edx, DWORD PTR $T229523[ebp]
	and	eax, DWORD PTR [edx]
	neg	eax
	sbb	eax, eax
	neg	eax
	jmp	SHORT $LN3@NoBuild

; 1085 : 	}
; 1086 : 	else

	jmp	SHORT $LN3@NoBuild
$LN2@NoBuild:

; 1087 : 	{
; 1088 : 		return false;

	xor	al, al
$LN3@NoBuild:

; 1089 : 	}
; 1090 : }

	mov	esp, ebp
	pop	ebp
	ret	4
?NoBuild@CvTraitEntry@@QAE_NW4ImprovementTypes@@@Z ENDP	; CvTraitEntry::NoBuild
_TEXT	ENDS
PUBLIC	??_C@_0KN@EDAJGKBH@select?5Resources?4ID?5as?5ResourceI@ ; `string'
PUBLIC	??_C@_0BP@LEJJCALA@Trait_FreeResourceFirstXCities?$AA@ ; `string'
PUBLIC	?push_back@?$vector@UFreeResourceXCities@@V?$allocator@UFreeResourceXCities@@@std@@@std@@QAEXABUFreeResourceXCities@@@Z ; std::vector<FreeResourceXCities,std::allocator<FreeResourceXCities> >::push_back
PUBLIC	??_C@_0NB@LGAABOM@SELECT?5Traits?4ID?0?5Improvements?4I@ ; `string'
PUBLIC	??_C@_0O@DEFFCEIL@Trait_NoBuild?$AA@		; `string'
PUBLIC	??_C@_0MM@LPKCCPOE@SELECT?5Traits?4ID?0?5UnitClasses?4ID@ ; `string'
PUBLIC	??_C@_0O@GKGKBLJD@Trait_NoTrain?$AA@		; `string'
PUBLIC	?insert@?$vector@_NV?$allocator@_N@std@@@std@@QAE?AV?$_Vb_iterator@IHV?$vector@_NV?$allocator@_N@std@@@std@@@2@V?$_Vb_const_iterator@IHV?$vector@_NV?$allocator@_N@std@@@std@@@2@_N@Z ; std::vector<bool,std::allocator<bool> >::insert
PUBLIC	?end@?$vector@_NV?$allocator@_N@std@@@std@@QAE?AV?$_Vb_iterator@IHV?$vector@_NV?$allocator@_N@std@@@std@@@2@XZ ; std::vector<bool,std::allocator<bool> >::end
PUBLIC	??_C@_0NK@BJHMDDLL@select?5Features?4ID?5as?5FeatureID?0@ ; `string'
PUBLIC	??_C@_0CE@ICBKMLMI@Trait_UnimprovedFeatureYieldChan@ ; `string'
PUBLIC	??_C@_08CLANBDND@Features?$AA@			; `string'
PUBLIC	??_C@_0OC@HBPDFFH@select?5Specialists?4ID?5as?5Special@ ; `string'
PUBLIC	??_C@_0CA@HPDLFOI@Building_SpecialistYieldChanges?$AA@ ; `string'
PUBLIC	??_C@_0M@EENMFCNN@Specialists?$AA@		; `string'
PUBLIC	??_C@_0OI@DKABCEMC@select?5Improvements?4ID?5as?5Improv@ ; `string'
PUBLIC	??_C@_0BO@GHGAFJAB@Trait_ImprovementYieldChanges?$AA@ ; `string'
PUBLIC	??_C@_0N@CJDAHDJO@Improvements?$AA@		; `string'
PUBLIC	??_C@_06JAMLCLDI@Yields?$AA@			; `string'
PUBLIC	??_C@_0LC@MLJIIHHK@select?5UnitCombatInfos?4ID?0?5Maint@ ; `string'
PUBLIC	??_C@_0CF@FJLAILPM@Trait_MaintenanceModifierUnitCom@ ; `string'
PUBLIC	??_C@_0KC@CPPIJLAI@select?5UnitCombatInfos?4ID?0?5Moves@ ; `string'
PUBLIC	??_C@_0BN@PCNKEGGO@Trait_MovesChangeUnitCombats?$AA@ ; `string'
PUBLIC	??_C@_0BA@NHHFHDEL@UnitCombatInfos?$AA@		; `string'
PUBLIC	??_C@_09FDCBPLKG@Resources?$AA@			; `string'
PUBLIC	??_C@_0CA@KDHCGIKB@Trait_ResourceQuantityModifiers?$AA@ ; `string'
PUBLIC	??_C@_0N@EPHJOCBJ@ResourceType?$AA@		; `string'
PUBLIC	??_C@_0BJ@PKPOGINB@ResourceQuantityModifier?$AA@ ; `string'
PUBLIC	?swap@?$_Tree@V?$_Tmap_traits@HHU?$less@H@std@@V?$allocator@U?$pair@$$CBHH@std@@@2@$00@std@@@std@@QAEXAAV12@@Z ; std::_Tree<std::_Tmap_traits<int,int,std::less<int>,std::allocator<std::pair<int const ,int> >,1> >::swap
PUBLIC	??0?$_Tree@V?$_Tmap_traits@HHU?$less@H@std@@V?$allocator@U?$pair@$$CBHH@std@@@2@$00@std@@@std@@QAE@ABV01@@Z ; std::_Tree<std::_Tmap_traits<int,int,std::less<int>,std::allocator<std::pair<int const ,int> >,1> >::_Tree<std::_Tmap_traits<int,int,std::less<int>,std::allocator<std::pair<int const ,int> >,1> >
PUBLIC	?insert@?$_Tree@V?$_Tmap_traits@HHU?$less@H@std@@V?$allocator@U?$pair@$$CBHH@std@@@2@$00@std@@@std@@QAE?AU?$pair@Viterator@?$_Tree@V?$_Tmap_traits@HHU?$less@H@std@@V?$allocator@U?$pair@$$CBHH@std@@@2@$00@std@@@std@@_N@2@ABU?$pair@$$CBHH@2@@Z ; std::_Tree<std::_Tmap_traits<int,int,std::less<int>,std::allocator<std::pair<int const ,int> >,1> >::insert
PUBLIC	??_C@_0NI@DOOOMALO@select?5UnitPromotions?4ID?0?5UnitCo@ ; `string'
PUBLIC	??_C@_0BJ@HAFNGCNE@FreePromotionUnitCombats?$AA@ ; `string'
PUBLIC	??_C@_0CC@ODCDLGED@StrategicResourceQuantityModifie@ ; `string'
PUBLIC	??_C@_09EINBFHAC@TerrainID?$AA@			; `string'
PUBLIC	??_C@_0KD@DPKDKHBJ@select?5TraitType?0?5Terrains?4ID?5as@ ; `string'
PUBLIC	??_C@_0P@GJDNFKFB@Trait_Terrains?$AA@		; `string'
PUBLIC	?InitializeArray@CvDatabaseUtility@@QAEXAAPAHIH@Z ; CvDatabaseUtility::InitializeArray
PUBLIC	??_C@_0BF@FHEKODEE@Trait_YieldModifiers?$AA@	; `string'
PUBLIC	??_C@_0CF@CONFBLMP@Trait_YieldChangesIncomingTradeR@ ; `string'
PUBLIC	??_C@_0CC@KLPGMKPB@Trait_YieldChangesPerTradePartne@ ; `string'
PUBLIC	??_C@_0CA@BIAKPHGH@Trait_YieldChangesNaturalWonder?$AA@ ; `string'
PUBLIC	??_C@_0CC@DNGEBFJO@Trait_YieldChangesLuxuryResource@ ; `string'
PUBLIC	??_C@_0CF@INKJLPBJ@Trait_YieldChangesStrategicResou@ ; `string'
PUBLIC	??_C@_0BD@HFICJHBM@Trait_YieldChanges?$AA@	; `string'
PUBLIC	??_C@_0BL@FAHDJKGN@Trait_ExtraYieldThresholds?$AA@ ; `string'
PUBLIC	??_C@_09HHNMMNID@TraitType?$AA@			; `string'
PUBLIC	??_C@_0BP@IHDNKOKH@AngerFreeIntrusionOfCityStates?$AA@ ; `string'
PUBLIC	??_C@_0P@BMCPGFLA@RiverTradeRoad?$AA@		; `string'
PUBLIC	??_C@_0BM@IDFEDMKD@UniqueLuxuryRequiresNewArea?$AA@ ; `string'
PUBLIC	??_C@_0BE@KHGGKHH@TechFromCityConquer?$AA@	; `string'
PUBLIC	??_C@_0L@FIOLCHFG@NoAnnexing?$AA@		; `string'
PUBLIC	??_C@_0BE@KEFCGJDL@MayaCalendarBonuses?$AA@	; `string'
PUBLIC	??_C@_0CC@FJPEFFBL@CrossesMountainsAfterGreatGenera@ ; `string'
PUBLIC	??_C@_0BG@CDIIOFIJ@AbleToAnnexCityStates?$AA@	; `string'
PUBLIC	??_C@_0BF@CKKILNFD@BonusReligiousBelief?$AA@	; `string'
PUBLIC	??_C@_0BO@JDKBCLKK@EarnsGreatPersonOnSlotOrGuild?$AA@ ; `string'
PUBLIC	??_C@_0BP@OLGOEANA@SeaTradeRoutesArePlunderImmune?$AA@ ; `string'
PUBLIC	??_C@_0BK@KEEAFDIB@FaithFromUnimprovedForest?$AA@ ; `string'
PUBLIC	??_C@_0BF@GOHJOIEH@StaysAliveZeroCities?$AA@	; `string'
PUBLIC	??_C@_0CF@EHDKIJNN@TechBoostFromCapitalScienceBuild@ ; `string'
PUBLIC	??_C@_0BO@BADJGMNH@NoHillsImprovementMaintenance?$AA@ ; `string'
PUBLIC	??_C@_0BH@HEPMOODJ@EmbarkedToLandFlatCost?$AA@	; `string'
PUBLIC	??_C@_0BB@COFEIKJH@EmbarkedAllWater?$AA@	; `string'
PUBLIC	??_C@_0O@BOLDEMDP@FasterInHills?$AA@		; `string'
PUBLIC	??_C@_0BB@HIJGMHHM@FasterAlongRiver?$AA@	; `string'
PUBLIC	??_C@_0BI@KHHPPHAJ@MoveFriendlyWoodsAsRoad?$AA@	; `string'
PUBLIC	??_C@_0BB@FFBACMEJ@FightWellDamaged?$AA@	; `string'
PUBLIC	??_C@_0BH@MPDGGDMG@FreeBuildingOnConquest?$AA@	; `string'
PUBLIC	??_C@_0BE@BMODEEBC@FreeCapitalBuilding?$AA@	; `string'
PUBLIC	??_C@_0N@EHKBNAC@FreeBuilding?$AA@		; `string'
PUBLIC	??_C@_0L@NJNFNDFO@PrereqTech?$AA@		; `string'
PUBLIC	??_C@_0N@KNKPCICJ@ObsoleteTech?$AA@		; `string'
PUBLIC	??_C@_0BH@GMFFPLCG@CombatBonusImprovement?$AA@	; `string'
PUBLIC	??_C@_0BO@MEABIPHA@CapitalFreeBuildingPrereqTech?$AA@ ; `string'
PUBLIC	??_C@_0BH@NNAIEBBN@FreeBuildingPrereqTech?$AA@	; `string'
PUBLIC	??_C@_0BD@OEBDLCBD@FreeUnitPrereqTech?$AA@	; `string'
PUBLIC	??_C@_08PMODHGEM@FreeUnit?$AA@			; `string'
PUBLIC	??_C@_0BG@OOCFOBDJ@TradeBuildingModifier?$AA@	; `string'
PUBLIC	??_C@_0BG@CICGAOPI@TradeReligionModifier?$AA@	; `string'
PUBLIC	??_C@_0BJ@IPEHHBM@LandTradeRouteRangeBonus?$AA@	; `string'
PUBLIC	??_C@_0BM@IPHHLIAB@AfraidMinorPerTurnInfluence?$AA@ ; `string'
PUBLIC	??_C@_0BE@NGOPBNAB@WorkerSpeedModifier?$AA@	; `string'
PUBLIC	??_C@_0BF@JCMHACMD@UniqueLuxuryQuantity?$AA@	; `string'
PUBLIC	??_C@_0BD@BNFGGMNB@UniqueLuxuryCities?$AA@	; `string'
PUBLIC	??_C@_0BL@OPNOFJAB@TradeRouteResourceModifier?$AA@ ; `string'
PUBLIC	??_C@_0BH@OHBFFHBN@NumTradeRoutesModifier?$AA@	; `string'
PUBLIC	??_C@_0BJ@NNFMBHPN@FreeSocialPoliciesPerEra?$AA@ ; `string'
PUBLIC	??_C@_0CE@BMKGAGFH@ExtraFoundedCityTerritoryClaimRa@ ; `string'
PUBLIC	??_C@_0BP@DEELJCPA@UnresearchedTechBonusFromKills?$AA@ ; `string'
PUBLIC	??_C@_0BF@OCPLAGIK@HappinessPerReligion?$AA@	; `string'
PUBLIC	??_C@_0L@MHOKHMFG@ExtraSpies?$AA@		; `string'
PUBLIC	??_C@_0BI@KDPCJKIO@ExtraHappinessPerLuxury?$AA@	; `string'
PUBLIC	??_C@_0BJ@FBADGCLK@LuxuryHappinessRetention?$AA@ ; `string'
PUBLIC	??_C@_0BH@MOOGPKPG@DOFGreatPersonModifier?$AA@	; `string'
PUBLIC	??_C@_0BC@HKIMEGAL@RazeSpeedModifier?$AA@	; `string'
PUBLIC	??_C@_0BN@FAJBHPKK@NavalUnitMaintenanceModifier?$AA@ ; `string'
PUBLIC	??_C@_0BM@IDILIMFG@LandUnitMaintenanceModifier?$AA@ ; `string'
PUBLIC	??_C@_0BH@HPFMENFC@CombatBonusVsLargerCiv?$AA@	; `string'
PUBLIC	??_C@_0BI@DGLMDOGP@CombatBonusVsHigherTech?$AA@	; `string'
PUBLIC	??_C@_0BL@DJIJFOPM@CultureBuildingYieldChange?$AA@ ; `string'
PUBLIC	??_C@_0BM@IFKLCMB@NearbyImprovementBonusRange?$AA@ ; `string'
PUBLIC	??_C@_0BN@BPMPNCFH@NearbyImprovementCombatBonus?$AA@ ; `string'
PUBLIC	??_C@_0BP@NGJNFACF@NaturalWonderHappinessModifier?$AA@ ; `string'
PUBLIC	??_C@_0BL@NAOBBDJO@NaturalWonderYieldModifier?$AA@ ; `string'
PUBLIC	??_C@_0CD@EBAKNJFP@NaturalWonderSubsequentFinderFai@ ; `string'
PUBLIC	??_C@_0BO@EBGIMHIP@NaturalWonderFirstFinderFaith?$AA@ ; `string'
PUBLIC	??_C@_0CC@NMHMFIPI@NaturalWonderSubsequentFinderGol@ ; `string'
PUBLIC	??_C@_0BN@LOGCIIPI@NaturalWonderFirstFinderGold?$AA@ ; `string'
PUBLIC	??_C@_0BB@BHJJBIH@ExtraEmbarkMoves?$AA@		; `string'
PUBLIC	??_C@_0CB@KEODKJBJ@GoldenAgeGreatWriterRateModifier@ ; `string'
PUBLIC	??_C@_0CD@MENCBKJL@GoldenAgeGreatMusicianRateModifi@ ; `string'
PUBLIC	??_C@_0CB@FOKFNPKD@GoldenAgeGreatArtistRateModifier@ ; `string'
PUBLIC	??_C@_0BJ@LPJPLOKH@GoldenAgeTourismModifier?$AA@ ; `string'
PUBLIC	??_C@_0BI@MFCFAJNI@GoldenAgeCombatModifier?$AA@	; `string'
PUBLIC	??_C@_0BE@JJLHBCMM@GoldenAgeMoveChange?$AA@	; `string'
PUBLIC	??_C@_0BK@IIBCIDDC@GoldenAgeDurationModifier?$AA@ ; `string'
PUBLIC	??_C@_0BP@HHMKJBJK@ImprovementMaintenanceModifier?$AA@ ; `string'
PUBLIC	??_C@_0BA@MLDJOLFP@PlunderModifier?$AA@		; `string'
PUBLIC	??_C@_0BJ@KGAAGHKI@WonderProductionModifier?$AA@ ; `string'
PUBLIC	??_C@_0BP@CGFEGMEN@CityConnectionTradeRouteChange?$AA@ ; `string'
PUBLIC	??_C@_0BD@MIAKAFOH@PolicyCostModifier?$AA@	; `string'
PUBLIC	??_C@_0BM@NFLFOOON@CapitalThemingBonusModifier?$AA@ ; `string'
PUBLIC	??_C@_0BB@FEMBFCEN@CityCultureBonus?$AA@	; `string'
PUBLIC	??_C@_0P@POALJMFH@FaithFromKills?$AA@		; `string'
PUBLIC	??_C@_0BB@EMBLNIDN@CultureFromKills?$AA@	; `string'
PUBLIC	??_C@_0BI@JGNHBIFC@GoldenAgeTileBonusFaith?$AA@	; `string'
PUBLIC	??_C@_0CG@DEMNCJFF@NumTurnsBeforeMinorAlliesRefuseB@ ; `string'
PUBLIC	??_C@_0BK@NKEMBBH@SciencePerGreatPersonBorn?$AA@ ; `string'
PUBLIC	??_C@_0BI@CCICLKEE@PlotCultureCostModifier?$AA@	; `string'
PUBLIC	??_C@_0BE@MHNLMMNB@PlotBuyCostModifier?$AA@	; `string'
PUBLIC	??_C@_0BI@MLKAEAMP@CapitalBuildingModifier?$AA@	; `string'
PUBLIC	??_C@_0BO@OOIEDACI@SeaBarbarianConversionPercent?$AA@ ; `string'
PUBLIC	??_C@_0CC@GPFEONPB@LandBarbarianConversionExtraUnit@ ; `string'
PUBLIC	??_C@_0BP@CBHCFKJC@LandBarbarianConversionPercent?$AA@ ; `string'
PUBLIC	??_C@_0BI@LLKLCJEP@CityStateCombatModifier?$AA@	; `string'
PUBLIC	??_C@_0BM@CJCOCPNL@CityStateFriendshipModifier?$AA@ ; `string'
PUBLIC	??_C@_0BH@BJAEBEN@CityStateBonusModifier?$AA@	; `string'
PUBLIC	??_C@_0BO@DHGOHAIB@PopulationUnhappinessModifier?$AA@ ; `string'
PUBLIC	??_C@_0BI@COFBHJFM@CityUnhappinessModifier?$AA@	; `string'
PUBLIC	??_C@_0CE@NPEABLDP@MaxPlayerBuildingProductionModif@ ; `string'
PUBLIC	??_C@_0CC@LNEKPAPM@MaxTeamBuildingProductionModifie@ ; `string'
PUBLIC	??_C@_0CE@JPCAIMIG@MaxGlobalBuildingProductionModif@ ; `string'
PUBLIC	??_C@_0BJ@IGFDIHCA@GreatPersonGiftInfluence?$AA@ ; `string'
PUBLIC	??_C@_0BH@LHGCIMPK@GreatGeneralExtraBonus?$AA@	; `string'
PUBLIC	??_C@_0BJ@MFKPLGEE@GreatGeneralRateModifier?$AA@ ; `string'
PUBLIC	??_C@_0BL@JEHMMHCB@GreatScientistRateModifier?$AA@ ; `string'
PUBLIC	??_C@_0BI@DKDDAFPG@GreatPeopleRateModifier?$AA@	; `string'
PUBLIC	??_C@_0BI@IJFKMPJF@LevelExperienceModifier?$AA@	; `string'
PUBLIC	??_C@_0BB@GBLDMPKE@ShortDescription?$AA@	; `string'
PUBLIC	__$ArrayPad$
EXTRN	?getNumResourceInfos@CvGlobals@@QAEHXZ:PROC	; CvGlobals::getNumResourceInfos
EXTRN	?getNumImprovementInfos@CvGlobals@@QAEHXZ:PROC	; CvGlobals::getNumImprovementInfos
EXTRN	?getNumUnitClassInfos@CvGlobals@@QAEHXZ:PROC	; CvGlobals::getNumUnitClassInfos
EXTRN	?Initialize2DArray@CvDatabaseUtility@@QAE_NAAPAPAHPBD1H@Z:PROC ; CvDatabaseUtility::Initialize2DArray
EXTRN	?MaxRows@CvDatabaseUtility@@QAEHPBD@Z:PROC	; CvDatabaseUtility::MaxRows
EXTRN	?PopulateArrayByValue@CvDatabaseUtility@@QAE_NAAPAHPBD11111HH@Z:PROC ; CvDatabaseUtility::PopulateArrayByValue
EXTRN	__imp_?Reset@Results@Database@@QAE_NXZ:PROC
EXTRN	__imp_?GetInt@Results@Database@@QAEHH@Z:PROC
EXTRN	__imp_?Step@Results@Database@@QAE_NXZ:PROC
EXTRN	__imp_?Bind@Results@Database@@QAE_NHPBD_N@Z:PROC
EXTRN	?PrepareResults@CvDatabaseUtility@@QAEPAVResults@Database@@ABV?$basic_string@DU?$char_traits@D@std@@V?$allocator@D@2@@std@@PBD@Z:PROC ; CvDatabaseUtility::PrepareResults
EXTRN	?GetResults@CvDatabaseUtility@@QAEPAVResults@Database@@ABV?$basic_string@DU?$char_traits@D@std@@V?$allocator@D@2@@std@@@Z:PROC ; CvDatabaseUtility::GetResults
EXTRN	__imp_??0?$basic_string@DU?$char_traits@D@std@@V?$allocator@D@2@@std@@QAE@PBD@Z:PROC
EXTRN	?getNumTerrainInfos@CvGlobals@@QAEHXZ:PROC	; CvGlobals::getNumTerrainInfos
EXTRN	?SetYields@CvDatabaseUtility@@QAE_NAAPAHPBD11@Z:PROC ; CvDatabaseUtility::SetYields
EXTRN	__imp_?GetBool@Results@Database@@QAE_NPBD@Z:PROC
EXTRN	?getInfoTypeForString@CvGlobals@@QBEHPBD_N@Z:PROC ; CvGlobals::getInfoTypeForString
EXTRN	?gGlobals@@3VCvGlobals@@A:BYTE			; gGlobals
EXTRN	__imp_?GetInt@Results@Database@@QAEHPBD@Z:PROC
EXTRN	__imp_?GetText@Results@Database@@QAEPBDPBD@Z:PROC
EXTRN	?CacheResults@CvBaseInfo@@UAE_NAAVResults@Database@@AAVCvDatabaseUtility@@@Z:PROC ; CvBaseInfo::CacheResults
;	COMDAT ??_C@_0KN@EDAJGKBH@select?5Resources?4ID?5as?5ResourceI@
; File c:\program files (x86)\microsoft visual studio 9.0\vc\include\vector
CONST	SEGMENT
??_C@_0KN@EDAJGKBH@select?5Resources?4ID?5as?5ResourceI@ DB 'select Resou'
	DB	'rces.ID as ResourceID, ResourceQuantity, NumCities from Trait'
	DB	'_FreeResourceFirstXCities inner join Resources on Resources.T'
	DB	'ype = ResourceType where TraitType = ?', 00H ; `string'
CONST	ENDS
;	COMDAT ??_C@_0BP@LEJJCALA@Trait_FreeResourceFirstXCities?$AA@
CONST	SEGMENT
??_C@_0BP@LEJJCALA@Trait_FreeResourceFirstXCities?$AA@ DB 'Trait_FreeReso'
	DB	'urceFirstXCities', 00H			; `string'
CONST	ENDS
;	COMDAT ??_C@_0NB@LGAABOM@SELECT?5Traits?4ID?0?5Improvements?4I@
CONST	SEGMENT
??_C@_0NB@LGAABOM@SELECT?5Traits?4ID?0?5Improvements?4I@ DB 'SELECT Trait'
	DB	's.ID, Improvements.ID FROM Trait_NoBuild inner join Traits on'
	DB	' Trait_NoBuild.TraitType = Traits.Type inner join Improvement'
	DB	's on Trait_NoBuild.ImprovementType = Improvements.Type where '
	DB	'TraitType = ?', 00H				; `string'
CONST	ENDS
;	COMDAT ??_C@_0O@DEFFCEIL@Trait_NoBuild?$AA@
CONST	SEGMENT
??_C@_0O@DEFFCEIL@Trait_NoBuild?$AA@ DB 'Trait_NoBuild', 00H ; `string'
CONST	ENDS
;	COMDAT ??_C@_0MM@LPKCCPOE@SELECT?5Traits?4ID?0?5UnitClasses?4ID@
CONST	SEGMENT
??_C@_0MM@LPKCCPOE@SELECT?5Traits?4ID?0?5UnitClasses?4ID@ DB 'SELECT Trai'
	DB	'ts.ID, UnitClasses.ID FROM Trait_NoTrain inner join Traits on'
	DB	' Trait_NoTrain.TraitType = Traits.Type inner join UnitClasses'
	DB	' on Trait_NoTrain.UnitClassType = UnitClasses.Type where Trai'
	DB	'tType = ?', 00H				; `string'
CONST	ENDS
;	COMDAT ??_C@_0O@GKGKBLJD@Trait_NoTrain?$AA@
CONST	SEGMENT
??_C@_0O@GKGKBLJD@Trait_NoTrain?$AA@ DB 'Trait_NoTrain', 00H ; `string'
CONST	ENDS
;	COMDAT ??_C@_0NK@BJHMDDLL@select?5Features?4ID?5as?5FeatureID?0@
CONST	SEGMENT
??_C@_0NK@BJHMDDLL@select?5Features?4ID?5as?5FeatureID?0@ DB 'select Feat'
	DB	'ures.ID as FeatureID, Yields.ID as YieldID, Yield from Trait_'
	DB	'UnimprovedFeatureYieldChanges inner join Features on Features'
	DB	'.Type = FeatureType inner join Yields on Yields.Type = YieldT'
	DB	'ype where TraitType = ?', 00H		; `string'
CONST	ENDS
;	COMDAT ??_C@_0CE@ICBKMLMI@Trait_UnimprovedFeatureYieldChan@
CONST	SEGMENT
??_C@_0CE@ICBKMLMI@Trait_UnimprovedFeatureYieldChan@ DB 'Trait_Unimproved'
	DB	'FeatureYieldChanges', 00H			; `string'
CONST	ENDS
;	COMDAT ??_C@_08CLANBDND@Features?$AA@
CONST	SEGMENT
??_C@_08CLANBDND@Features?$AA@ DB 'Features', 00H	; `string'
CONST	ENDS
;	COMDAT ??_C@_0OC@HBPDFFH@select?5Specialists?4ID?5as?5Special@
CONST	SEGMENT
??_C@_0OC@HBPDFFH@select?5Specialists?4ID?5as?5Special@ DB 'select Specia'
	DB	'lists.ID as SpecialistID, Yields.ID as YieldID, Yield from Tr'
	DB	'ait_SpecialistYieldChanges inner join Specialists on Speciali'
	DB	'sts.Type = SpecialistType inner join Yields on Yields.Type = '
	DB	'YieldType where TraitType = ?', 00H		; `string'
CONST	ENDS
;	COMDAT ??_C@_0CA@HPDLFOI@Building_SpecialistYieldChanges?$AA@
CONST	SEGMENT
??_C@_0CA@HPDLFOI@Building_SpecialistYieldChanges?$AA@ DB 'Building_Speci'
	DB	'alistYieldChanges', 00H			; `string'
CONST	ENDS
;	COMDAT ??_C@_0M@EENMFCNN@Specialists?$AA@
CONST	SEGMENT
??_C@_0M@EENMFCNN@Specialists?$AA@ DB 'Specialists', 00H ; `string'
CONST	ENDS
;	COMDAT ??_C@_0OI@DKABCEMC@select?5Improvements?4ID?5as?5Improv@
CONST	SEGMENT
??_C@_0OI@DKABCEMC@select?5Improvements?4ID?5as?5Improv@ DB 'select Impro'
	DB	'vements.ID as ImprovementID, Yields.ID as YieldID, Yield from'
	DB	' Trait_ImprovementYieldChanges inner join Improvements on Imp'
	DB	'rovements.Type = ImprovementType inner join Yields on Yields.'
	DB	'Type = YieldType where TraitType = ?', 00H	; `string'
CONST	ENDS
;	COMDAT ??_C@_0BO@GHGAFJAB@Trait_ImprovementYieldChanges?$AA@
CONST	SEGMENT
??_C@_0BO@GHGAFJAB@Trait_ImprovementYieldChanges?$AA@ DB 'Trait_Improveme'
	DB	'ntYieldChanges', 00H			; `string'
CONST	ENDS
;	COMDAT ??_C@_0N@CJDAHDJO@Improvements?$AA@
CONST	SEGMENT
??_C@_0N@CJDAHDJO@Improvements?$AA@ DB 'Improvements', 00H ; `string'
CONST	ENDS
;	COMDAT ??_C@_06JAMLCLDI@Yields?$AA@
CONST	SEGMENT
??_C@_06JAMLCLDI@Yields?$AA@ DB 'Yields', 00H		; `string'
CONST	ENDS
;	COMDAT ??_C@_0LC@MLJIIHHK@select?5UnitCombatInfos?4ID?0?5Maint@
CONST	SEGMENT
??_C@_0LC@MLJIIHHK@select?5UnitCombatInfos?4ID?0?5Maint@ DB 'select UnitC'
	DB	'ombatInfos.ID, MaintenanceModifier from Trait_MaintenanceModi'
	DB	'fierUnitCombats inner join UnitCombatInfos on UnitCombatInfos'
	DB	'.Type = UnitCombatType where TraitType = ?;', 00H ; `string'
CONST	ENDS
;	COMDAT ??_C@_0CF@FJLAILPM@Trait_MaintenanceModifierUnitCom@
CONST	SEGMENT
??_C@_0CF@FJLAILPM@Trait_MaintenanceModifierUnitCom@ DB 'Trait_Maintenanc'
	DB	'eModifierUnitCombats', 00H			; `string'
CONST	ENDS
;	COMDAT ??_C@_0KC@CPPIJLAI@select?5UnitCombatInfos?4ID?0?5Moves@
CONST	SEGMENT
??_C@_0KC@CPPIJLAI@select?5UnitCombatInfos?4ID?0?5Moves@ DB 'select UnitC'
	DB	'ombatInfos.ID, MovesChange from Trait_MovesChangeUnitCombats '
	DB	'inner join UnitCombatInfos on UnitCombatInfos.Type = UnitComb'
	DB	'atType where TraitType = ?;', 00H		; `string'
CONST	ENDS
;	COMDAT ??_C@_0BN@PCNKEGGO@Trait_MovesChangeUnitCombats?$AA@
CONST	SEGMENT
??_C@_0BN@PCNKEGGO@Trait_MovesChangeUnitCombats?$AA@ DB 'Trait_MovesChang'
	DB	'eUnitCombats', 00H				; `string'
CONST	ENDS
;	COMDAT ??_C@_0BA@NHHFHDEL@UnitCombatInfos?$AA@
CONST	SEGMENT
??_C@_0BA@NHHFHDEL@UnitCombatInfos?$AA@ DB 'UnitCombatInfos', 00H ; `string'
CONST	ENDS
;	COMDAT ??_C@_09FDCBPLKG@Resources?$AA@
CONST	SEGMENT
??_C@_09FDCBPLKG@Resources?$AA@ DB 'Resources', 00H	; `string'
CONST	ENDS
;	COMDAT ??_C@_0CA@KDHCGIKB@Trait_ResourceQuantityModifiers?$AA@
CONST	SEGMENT
??_C@_0CA@KDHCGIKB@Trait_ResourceQuantityModifiers?$AA@ DB 'Trait_Resourc'
	DB	'eQuantityModifiers', 00H			; `string'
CONST	ENDS
;	COMDAT ??_C@_0N@EPHJOCBJ@ResourceType?$AA@
CONST	SEGMENT
??_C@_0N@EPHJOCBJ@ResourceType?$AA@ DB 'ResourceType', 00H ; `string'
CONST	ENDS
;	COMDAT ??_C@_0BJ@PKPOGINB@ResourceQuantityModifier?$AA@
CONST	SEGMENT
??_C@_0BJ@PKPOGINB@ResourceQuantityModifier?$AA@ DB 'ResourceQuantityModi'
	DB	'fier', 00H					; `string'
CONST	ENDS
;	COMDAT ??_C@_0NI@DOOOMALO@select?5UnitPromotions?4ID?0?5UnitCo@
CONST	SEGMENT
??_C@_0NI@DOOOMALO@select?5UnitPromotions?4ID?0?5UnitCo@ DB 'select UnitP'
	DB	'romotions.ID, UnitCombatInfos.ID from Trait_FreePromotionUnit'
	DB	'Combats, UnitPromotions, UnitCombatInfos where TraitType = ? '
	DB	'and PromotionType = UnitPromotions.Type and UnitCombatType = '
	DB	'UnitCombatInfos.Type', 00H			; `string'
CONST	ENDS
;	COMDAT ??_C@_0BJ@HAFNGCNE@FreePromotionUnitCombats?$AA@
CONST	SEGMENT
??_C@_0BJ@HAFNGCNE@FreePromotionUnitCombats?$AA@ DB 'FreePromotionUnitCom'
	DB	'bats', 00H					; `string'
CONST	ENDS
;	COMDAT ??_C@_0CC@ODCDLGED@StrategicResourceQuantityModifie@
CONST	SEGMENT
??_C@_0CC@ODCDLGED@StrategicResourceQuantityModifie@ DB 'StrategicResourc'
	DB	'eQuantityModifier', 00H			; `string'
CONST	ENDS
;	COMDAT ??_C@_09EINBFHAC@TerrainID?$AA@
CONST	SEGMENT
??_C@_09EINBFHAC@TerrainID?$AA@ DB 'TerrainID', 00H	; `string'
CONST	ENDS
;	COMDAT ??_C@_0KD@DPKDKHBJ@select?5TraitType?0?5Terrains?4ID?5as@
CONST	SEGMENT
??_C@_0KD@DPKDKHBJ@select?5TraitType?0?5Terrains?4ID?5as@ DB 'select Trai'
	DB	'tType, Terrains.ID as TerrainID, StrategicResourceQuantityMod'
	DB	'ifier from Trait_Terrains join Terrains on Terrains.Type = Te'
	DB	'rrainType where TraitType = ?', 00H		; `string'
CONST	ENDS
;	COMDAT ??_C@_0P@GJDNFKFB@Trait_Terrains?$AA@
CONST	SEGMENT
??_C@_0P@GJDNFKFB@Trait_Terrains?$AA@ DB 'Trait_Terrains', 00H ; `string'
CONST	ENDS
;	COMDAT ??_C@_0BF@FHEKODEE@Trait_YieldModifiers?$AA@
CONST	SEGMENT
??_C@_0BF@FHEKODEE@Trait_YieldModifiers?$AA@ DB 'Trait_YieldModifiers', 00H ; `string'
CONST	ENDS
;	COMDAT ??_C@_0CF@CONFBLMP@Trait_YieldChangesIncomingTradeR@
CONST	SEGMENT
??_C@_0CF@CONFBLMP@Trait_YieldChangesIncomingTradeR@ DB 'Trait_YieldChang'
	DB	'esIncomingTradeRoute', 00H			; `string'
CONST	ENDS
;	COMDAT ??_C@_0CC@KLPGMKPB@Trait_YieldChangesPerTradePartne@
CONST	SEGMENT
??_C@_0CC@KLPGMKPB@Trait_YieldChangesPerTradePartne@ DB 'Trait_YieldChang'
	DB	'esPerTradePartner', 00H			; `string'
CONST	ENDS
;	COMDAT ??_C@_0CA@BIAKPHGH@Trait_YieldChangesNaturalWonder?$AA@
CONST	SEGMENT
??_C@_0CA@BIAKPHGH@Trait_YieldChangesNaturalWonder?$AA@ DB 'Trait_YieldCh'
	DB	'angesNaturalWonder', 00H			; `string'
CONST	ENDS
;	COMDAT ??_C@_0CC@DNGEBFJO@Trait_YieldChangesLuxuryResource@
CONST	SEGMENT
??_C@_0CC@DNGEBFJO@Trait_YieldChangesLuxuryResource@ DB 'Trait_YieldChang'
	DB	'esLuxuryResources', 00H			; `string'
CONST	ENDS
;	COMDAT ??_C@_0CF@INKJLPBJ@Trait_YieldChangesStrategicResou@
CONST	SEGMENT
??_C@_0CF@INKJLPBJ@Trait_YieldChangesStrategicResou@ DB 'Trait_YieldChang'
	DB	'esStrategicResources', 00H			; `string'
CONST	ENDS
;	COMDAT ??_C@_0BD@HFICJHBM@Trait_YieldChanges?$AA@
CONST	SEGMENT
??_C@_0BD@HFICJHBM@Trait_YieldChanges?$AA@ DB 'Trait_YieldChanges', 00H ; `string'
CONST	ENDS
;	COMDAT ??_C@_0BL@FAHDJKGN@Trait_ExtraYieldThresholds?$AA@
CONST	SEGMENT
??_C@_0BL@FAHDJKGN@Trait_ExtraYieldThresholds?$AA@ DB 'Trait_ExtraYieldTh'
	DB	'resholds', 00H				; `string'
CONST	ENDS
;	COMDAT ??_C@_09HHNMMNID@TraitType?$AA@
CONST	SEGMENT
??_C@_09HHNMMNID@TraitType?$AA@ DB 'TraitType', 00H	; `string'
CONST	ENDS
;	COMDAT ??_C@_0BP@IHDNKOKH@AngerFreeIntrusionOfCityStates?$AA@
CONST	SEGMENT
??_C@_0BP@IHDNKOKH@AngerFreeIntrusionOfCityStates?$AA@ DB 'AngerFreeIntru'
	DB	'sionOfCityStates', 00H			; `string'
CONST	ENDS
;	COMDAT ??_C@_0P@BMCPGFLA@RiverTradeRoad?$AA@
CONST	SEGMENT
??_C@_0P@BMCPGFLA@RiverTradeRoad?$AA@ DB 'RiverTradeRoad', 00H ; `string'
CONST	ENDS
;	COMDAT ??_C@_0BM@IDFEDMKD@UniqueLuxuryRequiresNewArea?$AA@
CONST	SEGMENT
??_C@_0BM@IDFEDMKD@UniqueLuxuryRequiresNewArea?$AA@ DB 'UniqueLuxuryRequi'
	DB	'resNewArea', 00H				; `string'
CONST	ENDS
;	COMDAT ??_C@_0BE@KHGGKHH@TechFromCityConquer?$AA@
CONST	SEGMENT
??_C@_0BE@KHGGKHH@TechFromCityConquer?$AA@ DB 'TechFromCityConquer', 00H ; `string'
CONST	ENDS
;	COMDAT ??_C@_0L@FIOLCHFG@NoAnnexing?$AA@
CONST	SEGMENT
??_C@_0L@FIOLCHFG@NoAnnexing?$AA@ DB 'NoAnnexing', 00H	; `string'
CONST	ENDS
;	COMDAT ??_C@_0BE@KEFCGJDL@MayaCalendarBonuses?$AA@
CONST	SEGMENT
??_C@_0BE@KEFCGJDL@MayaCalendarBonuses?$AA@ DB 'MayaCalendarBonuses', 00H ; `string'
CONST	ENDS
;	COMDAT ??_C@_0CC@FJPEFFBL@CrossesMountainsAfterGreatGenera@
CONST	SEGMENT
??_C@_0CC@FJPEFFBL@CrossesMountainsAfterGreatGenera@ DB 'CrossesMountains'
	DB	'AfterGreatGeneral', 00H			; `string'
CONST	ENDS
;	COMDAT ??_C@_0BG@CDIIOFIJ@AbleToAnnexCityStates?$AA@
CONST	SEGMENT
??_C@_0BG@CDIIOFIJ@AbleToAnnexCityStates?$AA@ DB 'AbleToAnnexCityStates', 00H ; `string'
CONST	ENDS
;	COMDAT ??_C@_0BF@CKKILNFD@BonusReligiousBelief?$AA@
CONST	SEGMENT
??_C@_0BF@CKKILNFD@BonusReligiousBelief?$AA@ DB 'BonusReligiousBelief', 00H ; `string'
CONST	ENDS
;	COMDAT ??_C@_0BO@JDKBCLKK@EarnsGreatPersonOnSlotOrGuild?$AA@
CONST	SEGMENT
??_C@_0BO@JDKBCLKK@EarnsGreatPersonOnSlotOrGuild?$AA@ DB 'EarnsGreatPerso'
	DB	'nOnSlotOrGuild', 00H			; `string'
CONST	ENDS
;	COMDAT ??_C@_0BP@OLGOEANA@SeaTradeRoutesArePlunderImmune?$AA@
CONST	SEGMENT
??_C@_0BP@OLGOEANA@SeaTradeRoutesArePlunderImmune?$AA@ DB 'SeaTradeRoutes'
	DB	'ArePlunderImmune', 00H			; `string'
CONST	ENDS
;	COMDAT ??_C@_0BK@KEEAFDIB@FaithFromUnimprovedForest?$AA@
CONST	SEGMENT
??_C@_0BK@KEEAFDIB@FaithFromUnimprovedForest?$AA@ DB 'FaithFromUnimproved'
	DB	'Forest', 00H				; `string'
CONST	ENDS
;	COMDAT ??_C@_0BF@GOHJOIEH@StaysAliveZeroCities?$AA@
CONST	SEGMENT
??_C@_0BF@GOHJOIEH@StaysAliveZeroCities?$AA@ DB 'StaysAliveZeroCities', 00H ; `string'
CONST	ENDS
;	COMDAT ??_C@_0CF@EHDKIJNN@TechBoostFromCapitalScienceBuild@
CONST	SEGMENT
??_C@_0CF@EHDKIJNN@TechBoostFromCapitalScienceBuild@ DB 'TechBoostFromCap'
	DB	'italScienceBuildings', 00H			; `string'
CONST	ENDS
;	COMDAT ??_C@_0BO@BADJGMNH@NoHillsImprovementMaintenance?$AA@
CONST	SEGMENT
??_C@_0BO@BADJGMNH@NoHillsImprovementMaintenance?$AA@ DB 'NoHillsImprovem'
	DB	'entMaintenance', 00H			; `string'
CONST	ENDS
;	COMDAT ??_C@_0BH@HEPMOODJ@EmbarkedToLandFlatCost?$AA@
CONST	SEGMENT
??_C@_0BH@HEPMOODJ@EmbarkedToLandFlatCost?$AA@ DB 'EmbarkedToLandFlatCost'
	DB	00H						; `string'
CONST	ENDS
;	COMDAT ??_C@_0BB@COFEIKJH@EmbarkedAllWater?$AA@
CONST	SEGMENT
??_C@_0BB@COFEIKJH@EmbarkedAllWater?$AA@ DB 'EmbarkedAllWater', 00H ; `string'
CONST	ENDS
;	COMDAT ??_C@_0O@BOLDEMDP@FasterInHills?$AA@
CONST	SEGMENT
??_C@_0O@BOLDEMDP@FasterInHills?$AA@ DB 'FasterInHills', 00H ; `string'
CONST	ENDS
;	COMDAT ??_C@_0BB@HIJGMHHM@FasterAlongRiver?$AA@
CONST	SEGMENT
??_C@_0BB@HIJGMHHM@FasterAlongRiver?$AA@ DB 'FasterAlongRiver', 00H ; `string'
CONST	ENDS
;	COMDAT ??_C@_0BI@KHHPPHAJ@MoveFriendlyWoodsAsRoad?$AA@
CONST	SEGMENT
??_C@_0BI@KHHPPHAJ@MoveFriendlyWoodsAsRoad?$AA@ DB 'MoveFriendlyWoodsAsRo'
	DB	'ad', 00H					; `string'
CONST	ENDS
;	COMDAT ??_C@_0BB@FFBACMEJ@FightWellDamaged?$AA@
CONST	SEGMENT
??_C@_0BB@FFBACMEJ@FightWellDamaged?$AA@ DB 'FightWellDamaged', 00H ; `string'
CONST	ENDS
;	COMDAT ??_C@_0BH@MPDGGDMG@FreeBuildingOnConquest?$AA@
CONST	SEGMENT
??_C@_0BH@MPDGGDMG@FreeBuildingOnConquest?$AA@ DB 'FreeBuildingOnConquest'
	DB	00H						; `string'
CONST	ENDS
;	COMDAT ??_C@_0BE@BMODEEBC@FreeCapitalBuilding?$AA@
CONST	SEGMENT
??_C@_0BE@BMODEEBC@FreeCapitalBuilding?$AA@ DB 'FreeCapitalBuilding', 00H ; `string'
CONST	ENDS
;	COMDAT ??_C@_0N@EHKBNAC@FreeBuilding?$AA@
CONST	SEGMENT
??_C@_0N@EHKBNAC@FreeBuilding?$AA@ DB 'FreeBuilding', 00H ; `string'
CONST	ENDS
;	COMDAT ??_C@_0L@NJNFNDFO@PrereqTech?$AA@
CONST	SEGMENT
??_C@_0L@NJNFNDFO@PrereqTech?$AA@ DB 'PrereqTech', 00H	; `string'
CONST	ENDS
;	COMDAT ??_C@_0N@KNKPCICJ@ObsoleteTech?$AA@
CONST	SEGMENT
??_C@_0N@KNKPCICJ@ObsoleteTech?$AA@ DB 'ObsoleteTech', 00H ; `string'
CONST	ENDS
;	COMDAT ??_C@_0BH@GMFFPLCG@CombatBonusImprovement?$AA@
CONST	SEGMENT
??_C@_0BH@GMFFPLCG@CombatBonusImprovement?$AA@ DB 'CombatBonusImprovement'
	DB	00H						; `string'
CONST	ENDS
;	COMDAT ??_C@_0BO@MEABIPHA@CapitalFreeBuildingPrereqTech?$AA@
CONST	SEGMENT
??_C@_0BO@MEABIPHA@CapitalFreeBuildingPrereqTech?$AA@ DB 'CapitalFreeBuil'
	DB	'dingPrereqTech', 00H			; `string'
CONST	ENDS
;	COMDAT ??_C@_0BH@NNAIEBBN@FreeBuildingPrereqTech?$AA@
CONST	SEGMENT
??_C@_0BH@NNAIEBBN@FreeBuildingPrereqTech?$AA@ DB 'FreeBuildingPrereqTech'
	DB	00H						; `string'
CONST	ENDS
;	COMDAT ??_C@_0BD@OEBDLCBD@FreeUnitPrereqTech?$AA@
CONST	SEGMENT
??_C@_0BD@OEBDLCBD@FreeUnitPrereqTech?$AA@ DB 'FreeUnitPrereqTech', 00H ; `string'
CONST	ENDS
;	COMDAT ??_C@_08PMODHGEM@FreeUnit?$AA@
CONST	SEGMENT
??_C@_08PMODHGEM@FreeUnit?$AA@ DB 'FreeUnit', 00H	; `string'
CONST	ENDS
;	COMDAT ??_C@_0BG@OOCFOBDJ@TradeBuildingModifier?$AA@
CONST	SEGMENT
??_C@_0BG@OOCFOBDJ@TradeBuildingModifier?$AA@ DB 'TradeBuildingModifier', 00H ; `string'
CONST	ENDS
;	COMDAT ??_C@_0BG@CICGAOPI@TradeReligionModifier?$AA@
CONST	SEGMENT
??_C@_0BG@CICGAOPI@TradeReligionModifier?$AA@ DB 'TradeReligionModifier', 00H ; `string'
CONST	ENDS
;	COMDAT ??_C@_0BJ@IPEHHBM@LandTradeRouteRangeBonus?$AA@
CONST	SEGMENT
??_C@_0BJ@IPEHHBM@LandTradeRouteRangeBonus?$AA@ DB 'LandTradeRouteRangeBo'
	DB	'nus', 00H					; `string'
CONST	ENDS
;	COMDAT ??_C@_0BM@IPHHLIAB@AfraidMinorPerTurnInfluence?$AA@
CONST	SEGMENT
??_C@_0BM@IPHHLIAB@AfraidMinorPerTurnInfluence?$AA@ DB 'AfraidMinorPerTur'
	DB	'nInfluence', 00H				; `string'
CONST	ENDS
;	COMDAT ??_C@_0BE@NGOPBNAB@WorkerSpeedModifier?$AA@
CONST	SEGMENT
??_C@_0BE@NGOPBNAB@WorkerSpeedModifier?$AA@ DB 'WorkerSpeedModifier', 00H ; `string'
CONST	ENDS
;	COMDAT ??_C@_0BF@JCMHACMD@UniqueLuxuryQuantity?$AA@
CONST	SEGMENT
??_C@_0BF@JCMHACMD@UniqueLuxuryQuantity?$AA@ DB 'UniqueLuxuryQuantity', 00H ; `string'
CONST	ENDS
;	COMDAT ??_C@_0BD@BNFGGMNB@UniqueLuxuryCities?$AA@
CONST	SEGMENT
??_C@_0BD@BNFGGMNB@UniqueLuxuryCities?$AA@ DB 'UniqueLuxuryCities', 00H ; `string'
CONST	ENDS
;	COMDAT ??_C@_0BL@OPNOFJAB@TradeRouteResourceModifier?$AA@
CONST	SEGMENT
??_C@_0BL@OPNOFJAB@TradeRouteResourceModifier?$AA@ DB 'TradeRouteResource'
	DB	'Modifier', 00H				; `string'
CONST	ENDS
;	COMDAT ??_C@_0BH@OHBFFHBN@NumTradeRoutesModifier?$AA@
CONST	SEGMENT
??_C@_0BH@OHBFFHBN@NumTradeRoutesModifier?$AA@ DB 'NumTradeRoutesModifier'
	DB	00H						; `string'
CONST	ENDS
;	COMDAT ??_C@_0BJ@NNFMBHPN@FreeSocialPoliciesPerEra?$AA@
CONST	SEGMENT
??_C@_0BJ@NNFMBHPN@FreeSocialPoliciesPerEra?$AA@ DB 'FreeSocialPoliciesPe'
	DB	'rEra', 00H					; `string'
CONST	ENDS
;	COMDAT ??_C@_0CE@BMKGAGFH@ExtraFoundedCityTerritoryClaimRa@
CONST	SEGMENT
??_C@_0CE@BMKGAGFH@ExtraFoundedCityTerritoryClaimRa@ DB 'ExtraFoundedCity'
	DB	'TerritoryClaimRange', 00H			; `string'
CONST	ENDS
;	COMDAT ??_C@_0BP@DEELJCPA@UnresearchedTechBonusFromKills?$AA@
CONST	SEGMENT
??_C@_0BP@DEELJCPA@UnresearchedTechBonusFromKills?$AA@ DB 'UnresearchedTe'
	DB	'chBonusFromKills', 00H			; `string'
CONST	ENDS
;	COMDAT ??_C@_0BF@OCPLAGIK@HappinessPerReligion?$AA@
CONST	SEGMENT
??_C@_0BF@OCPLAGIK@HappinessPerReligion?$AA@ DB 'HappinessPerReligion', 00H ; `string'
CONST	ENDS
;	COMDAT ??_C@_0L@MHOKHMFG@ExtraSpies?$AA@
CONST	SEGMENT
??_C@_0L@MHOKHMFG@ExtraSpies?$AA@ DB 'ExtraSpies', 00H	; `string'
CONST	ENDS
;	COMDAT ??_C@_0BI@KDPCJKIO@ExtraHappinessPerLuxury?$AA@
CONST	SEGMENT
??_C@_0BI@KDPCJKIO@ExtraHappinessPerLuxury?$AA@ DB 'ExtraHappinessPerLuxu'
	DB	'ry', 00H					; `string'
CONST	ENDS
;	COMDAT ??_C@_0BJ@FBADGCLK@LuxuryHappinessRetention?$AA@
CONST	SEGMENT
??_C@_0BJ@FBADGCLK@LuxuryHappinessRetention?$AA@ DB 'LuxuryHappinessReten'
	DB	'tion', 00H					; `string'
CONST	ENDS
;	COMDAT ??_C@_0BH@MOOGPKPG@DOFGreatPersonModifier?$AA@
CONST	SEGMENT
??_C@_0BH@MOOGPKPG@DOFGreatPersonModifier?$AA@ DB 'DOFGreatPersonModifier'
	DB	00H						; `string'
CONST	ENDS
;	COMDAT ??_C@_0BC@HKIMEGAL@RazeSpeedModifier?$AA@
CONST	SEGMENT
??_C@_0BC@HKIMEGAL@RazeSpeedModifier?$AA@ DB 'RazeSpeedModifier', 00H ; `string'
CONST	ENDS
;	COMDAT ??_C@_0BN@FAJBHPKK@NavalUnitMaintenanceModifier?$AA@
CONST	SEGMENT
??_C@_0BN@FAJBHPKK@NavalUnitMaintenanceModifier?$AA@ DB 'NavalUnitMainten'
	DB	'anceModifier', 00H				; `string'
CONST	ENDS
;	COMDAT ??_C@_0BM@IDILIMFG@LandUnitMaintenanceModifier?$AA@
CONST	SEGMENT
??_C@_0BM@IDILIMFG@LandUnitMaintenanceModifier?$AA@ DB 'LandUnitMaintenan'
	DB	'ceModifier', 00H				; `string'
CONST	ENDS
;	COMDAT ??_C@_0BH@HPFMENFC@CombatBonusVsLargerCiv?$AA@
CONST	SEGMENT
??_C@_0BH@HPFMENFC@CombatBonusVsLargerCiv?$AA@ DB 'CombatBonusVsLargerCiv'
	DB	00H						; `string'
CONST	ENDS
;	COMDAT ??_C@_0BI@DGLMDOGP@CombatBonusVsHigherTech?$AA@
CONST	SEGMENT
??_C@_0BI@DGLMDOGP@CombatBonusVsHigherTech?$AA@ DB 'CombatBonusVsHigherTe'
	DB	'ch', 00H					; `string'
CONST	ENDS
;	COMDAT ??_C@_0BL@DJIJFOPM@CultureBuildingYieldChange?$AA@
CONST	SEGMENT
??_C@_0BL@DJIJFOPM@CultureBuildingYieldChange?$AA@ DB 'CultureBuildingYie'
	DB	'ldChange', 00H				; `string'
CONST	ENDS
;	COMDAT ??_C@_0BM@IFKLCMB@NearbyImprovementBonusRange?$AA@
CONST	SEGMENT
??_C@_0BM@IFKLCMB@NearbyImprovementBonusRange?$AA@ DB 'NearbyImprovementB'
	DB	'onusRange', 00H				; `string'
CONST	ENDS
;	COMDAT ??_C@_0BN@BPMPNCFH@NearbyImprovementCombatBonus?$AA@
CONST	SEGMENT
??_C@_0BN@BPMPNCFH@NearbyImprovementCombatBonus?$AA@ DB 'NearbyImprovemen'
	DB	'tCombatBonus', 00H				; `string'
CONST	ENDS
;	COMDAT ??_C@_0BP@NGJNFACF@NaturalWonderHappinessModifier?$AA@
CONST	SEGMENT
??_C@_0BP@NGJNFACF@NaturalWonderHappinessModifier?$AA@ DB 'NaturalWonderH'
	DB	'appinessModifier', 00H			; `string'
CONST	ENDS
;	COMDAT ??_C@_0BL@NAOBBDJO@NaturalWonderYieldModifier?$AA@
CONST	SEGMENT
??_C@_0BL@NAOBBDJO@NaturalWonderYieldModifier?$AA@ DB 'NaturalWonderYield'
	DB	'Modifier', 00H				; `string'
CONST	ENDS
;	COMDAT ??_C@_0CD@EBAKNJFP@NaturalWonderSubsequentFinderFai@
CONST	SEGMENT
??_C@_0CD@EBAKNJFP@NaturalWonderSubsequentFinderFai@ DB 'NaturalWonderSub'
	DB	'sequentFinderFaith', 00H			; `string'
CONST	ENDS
;	COMDAT ??_C@_0BO@EBGIMHIP@NaturalWonderFirstFinderFaith?$AA@
CONST	SEGMENT
??_C@_0BO@EBGIMHIP@NaturalWonderFirstFinderFaith?$AA@ DB 'NaturalWonderFi'
	DB	'rstFinderFaith', 00H			; `string'
CONST	ENDS
;	COMDAT ??_C@_0CC@NMHMFIPI@NaturalWonderSubsequentFinderGol@
CONST	SEGMENT
??_C@_0CC@NMHMFIPI@NaturalWonderSubsequentFinderGol@ DB 'NaturalWonderSub'
	DB	'sequentFinderGold', 00H			; `string'
CONST	ENDS
;	COMDAT ??_C@_0BN@LOGCIIPI@NaturalWonderFirstFinderGold?$AA@
CONST	SEGMENT
??_C@_0BN@LOGCIIPI@NaturalWonderFirstFinderGold?$AA@ DB 'NaturalWonderFir'
	DB	'stFinderGold', 00H				; `string'
CONST	ENDS
;	COMDAT ??_C@_0BB@BHJJBIH@ExtraEmbarkMoves?$AA@
CONST	SEGMENT
??_C@_0BB@BHJJBIH@ExtraEmbarkMoves?$AA@ DB 'ExtraEmbarkMoves', 00H ; `string'
CONST	ENDS
;	COMDAT ??_C@_0CB@KEODKJBJ@GoldenAgeGreatWriterRateModifier@
CONST	SEGMENT
??_C@_0CB@KEODKJBJ@GoldenAgeGreatWriterRateModifier@ DB 'GoldenAgeGreatWr'
	DB	'iterRateModifier', 00H			; `string'
CONST	ENDS
;	COMDAT ??_C@_0CD@MENCBKJL@GoldenAgeGreatMusicianRateModifi@
CONST	SEGMENT
??_C@_0CD@MENCBKJL@GoldenAgeGreatMusicianRateModifi@ DB 'GoldenAgeGreatMu'
	DB	'sicianRateModifier', 00H			; `string'
CONST	ENDS
;	COMDAT ??_C@_0CB@FOKFNPKD@GoldenAgeGreatArtistRateModifier@
CONST	SEGMENT
??_C@_0CB@FOKFNPKD@GoldenAgeGreatArtistRateModifier@ DB 'GoldenAgeGreatAr'
	DB	'tistRateModifier', 00H			; `string'
CONST	ENDS
;	COMDAT ??_C@_0BJ@LPJPLOKH@GoldenAgeTourismModifier?$AA@
CONST	SEGMENT
??_C@_0BJ@LPJPLOKH@GoldenAgeTourismModifier?$AA@ DB 'GoldenAgeTourismModi'
	DB	'fier', 00H					; `string'
CONST	ENDS
;	COMDAT ??_C@_0BI@MFCFAJNI@GoldenAgeCombatModifier?$AA@
CONST	SEGMENT
??_C@_0BI@MFCFAJNI@GoldenAgeCombatModifier?$AA@ DB 'GoldenAgeCombatModifi'
	DB	'er', 00H					; `string'
CONST	ENDS
;	COMDAT ??_C@_0BE@JJLHBCMM@GoldenAgeMoveChange?$AA@
CONST	SEGMENT
??_C@_0BE@JJLHBCMM@GoldenAgeMoveChange?$AA@ DB 'GoldenAgeMoveChange', 00H ; `string'
CONST	ENDS
;	COMDAT ??_C@_0BK@IIBCIDDC@GoldenAgeDurationModifier?$AA@
CONST	SEGMENT
??_C@_0BK@IIBCIDDC@GoldenAgeDurationModifier?$AA@ DB 'GoldenAgeDurationMo'
	DB	'difier', 00H				; `string'
CONST	ENDS
;	COMDAT ??_C@_0BP@HHMKJBJK@ImprovementMaintenanceModifier?$AA@
CONST	SEGMENT
??_C@_0BP@HHMKJBJK@ImprovementMaintenanceModifier?$AA@ DB 'ImprovementMai'
	DB	'ntenanceModifier', 00H			; `string'
CONST	ENDS
;	COMDAT ??_C@_0BA@MLDJOLFP@PlunderModifier?$AA@
CONST	SEGMENT
??_C@_0BA@MLDJOLFP@PlunderModifier?$AA@ DB 'PlunderModifier', 00H ; `string'
CONST	ENDS
;	COMDAT ??_C@_0BJ@KGAAGHKI@WonderProductionModifier?$AA@
CONST	SEGMENT
??_C@_0BJ@KGAAGHKI@WonderProductionModifier?$AA@ DB 'WonderProductionModi'
	DB	'fier', 00H					; `string'
CONST	ENDS
;	COMDAT ??_C@_0BP@CGFEGMEN@CityConnectionTradeRouteChange?$AA@
CONST	SEGMENT
??_C@_0BP@CGFEGMEN@CityConnectionTradeRouteChange?$AA@ DB 'CityConnection'
	DB	'TradeRouteChange', 00H			; `string'
CONST	ENDS
;	COMDAT ??_C@_0BD@MIAKAFOH@PolicyCostModifier?$AA@
CONST	SEGMENT
??_C@_0BD@MIAKAFOH@PolicyCostModifier?$AA@ DB 'PolicyCostModifier', 00H ; `string'
CONST	ENDS
;	COMDAT ??_C@_0BM@NFLFOOON@CapitalThemingBonusModifier?$AA@
CONST	SEGMENT
??_C@_0BM@NFLFOOON@CapitalThemingBonusModifier?$AA@ DB 'CapitalThemingBon'
	DB	'usModifier', 00H				; `string'
CONST	ENDS
;	COMDAT ??_C@_0BB@FEMBFCEN@CityCultureBonus?$AA@
CONST	SEGMENT
??_C@_0BB@FEMBFCEN@CityCultureBonus?$AA@ DB 'CityCultureBonus', 00H ; `string'
CONST	ENDS
;	COMDAT ??_C@_0P@POALJMFH@FaithFromKills?$AA@
CONST	SEGMENT
??_C@_0P@POALJMFH@FaithFromKills?$AA@ DB 'FaithFromKills', 00H ; `string'
CONST	ENDS
;	COMDAT ??_C@_0BB@EMBLNIDN@CultureFromKills?$AA@
CONST	SEGMENT
??_C@_0BB@EMBLNIDN@CultureFromKills?$AA@ DB 'CultureFromKills', 00H ; `string'
CONST	ENDS
;	COMDAT ??_C@_0BI@JGNHBIFC@GoldenAgeTileBonusFaith?$AA@
CONST	SEGMENT
??_C@_0BI@JGNHBIFC@GoldenAgeTileBonusFaith?$AA@ DB 'GoldenAgeTileBonusFai'
	DB	'th', 00H					; `string'
CONST	ENDS
;	COMDAT ??_C@_0CG@DEMNCJFF@NumTurnsBeforeMinorAlliesRefuseB@
CONST	SEGMENT
??_C@_0CG@DEMNCJFF@NumTurnsBeforeMinorAlliesRefuseB@ DB 'NumTurnsBeforeMi'
	DB	'norAlliesRefuseBribes', 00H			; `string'
CONST	ENDS
;	COMDAT ??_C@_0BK@NKEMBBH@SciencePerGreatPersonBorn?$AA@
CONST	SEGMENT
??_C@_0BK@NKEMBBH@SciencePerGreatPersonBorn?$AA@ DB 'SciencePerGreatPerso'
	DB	'nBorn', 00H					; `string'
CONST	ENDS
;	COMDAT ??_C@_0BI@CCICLKEE@PlotCultureCostModifier?$AA@
CONST	SEGMENT
??_C@_0BI@CCICLKEE@PlotCultureCostModifier?$AA@ DB 'PlotCultureCostModifi'
	DB	'er', 00H					; `string'
CONST	ENDS
;	COMDAT ??_C@_0BE@MHNLMMNB@PlotBuyCostModifier?$AA@
CONST	SEGMENT
??_C@_0BE@MHNLMMNB@PlotBuyCostModifier?$AA@ DB 'PlotBuyCostModifier', 00H ; `string'
CONST	ENDS
;	COMDAT ??_C@_0BI@MLKAEAMP@CapitalBuildingModifier?$AA@
CONST	SEGMENT
??_C@_0BI@MLKAEAMP@CapitalBuildingModifier?$AA@ DB 'CapitalBuildingModifi'
	DB	'er', 00H					; `string'
CONST	ENDS
;	COMDAT ??_C@_0BO@OOIEDACI@SeaBarbarianConversionPercent?$AA@
CONST	SEGMENT
??_C@_0BO@OOIEDACI@SeaBarbarianConversionPercent?$AA@ DB 'SeaBarbarianCon'
	DB	'versionPercent', 00H			; `string'
CONST	ENDS
;	COMDAT ??_C@_0CC@GPFEONPB@LandBarbarianConversionExtraUnit@
CONST	SEGMENT
??_C@_0CC@GPFEONPB@LandBarbarianConversionExtraUnit@ DB 'LandBarbarianCon'
	DB	'versionExtraUnits', 00H			; `string'
CONST	ENDS
;	COMDAT ??_C@_0BP@CBHCFKJC@LandBarbarianConversionPercent?$AA@
CONST	SEGMENT
??_C@_0BP@CBHCFKJC@LandBarbarianConversionPercent?$AA@ DB 'LandBarbarianC'
	DB	'onversionPercent', 00H			; `string'
CONST	ENDS
;	COMDAT ??_C@_0BI@LLKLCJEP@CityStateCombatModifier?$AA@
CONST	SEGMENT
??_C@_0BI@LLKLCJEP@CityStateCombatModifier?$AA@ DB 'CityStateCombatModifi'
	DB	'er', 00H					; `string'
CONST	ENDS
;	COMDAT ??_C@_0BM@CJCOCPNL@CityStateFriendshipModifier?$AA@
CONST	SEGMENT
??_C@_0BM@CJCOCPNL@CityStateFriendshipModifier?$AA@ DB 'CityStateFriendsh'
	DB	'ipModifier', 00H				; `string'
CONST	ENDS
;	COMDAT ??_C@_0BH@BJAEBEN@CityStateBonusModifier?$AA@
CONST	SEGMENT
??_C@_0BH@BJAEBEN@CityStateBonusModifier?$AA@ DB 'CityStateBonusModifier', 00H ; `string'
CONST	ENDS
;	COMDAT ??_C@_0BO@DHGOHAIB@PopulationUnhappinessModifier?$AA@
CONST	SEGMENT
??_C@_0BO@DHGOHAIB@PopulationUnhappinessModifier?$AA@ DB 'PopulationUnhap'
	DB	'pinessModifier', 00H			; `string'
CONST	ENDS
;	COMDAT ??_C@_0BI@COFBHJFM@CityUnhappinessModifier?$AA@
CONST	SEGMENT
??_C@_0BI@COFBHJFM@CityUnhappinessModifier?$AA@ DB 'CityUnhappinessModifi'
	DB	'er', 00H					; `string'
CONST	ENDS
;	COMDAT ??_C@_0CE@NPEABLDP@MaxPlayerBuildingProductionModif@
CONST	SEGMENT
??_C@_0CE@NPEABLDP@MaxPlayerBuildingProductionModif@ DB 'MaxPlayerBuildin'
	DB	'gProductionModifier', 00H			; `string'
CONST	ENDS
;	COMDAT ??_C@_0CC@LNEKPAPM@MaxTeamBuildingProductionModifie@
CONST	SEGMENT
??_C@_0CC@LNEKPAPM@MaxTeamBuildingProductionModifie@ DB 'MaxTeamBuildingP'
	DB	'roductionModifier', 00H			; `string'
CONST	ENDS
;	COMDAT ??_C@_0CE@JPCAIMIG@MaxGlobalBuildingProductionModif@
CONST	SEGMENT
??_C@_0CE@JPCAIMIG@MaxGlobalBuildingProductionModif@ DB 'MaxGlobalBuildin'
	DB	'gProductionModifier', 00H			; `string'
CONST	ENDS
;	COMDAT ??_C@_0BJ@IGFDIHCA@GreatPersonGiftInfluence?$AA@
CONST	SEGMENT
??_C@_0BJ@IGFDIHCA@GreatPersonGiftInfluence?$AA@ DB 'GreatPersonGiftInflu'
	DB	'ence', 00H					; `string'
CONST	ENDS
;	COMDAT ??_C@_0BH@LHGCIMPK@GreatGeneralExtraBonus?$AA@
CONST	SEGMENT
??_C@_0BH@LHGCIMPK@GreatGeneralExtraBonus?$AA@ DB 'GreatGeneralExtraBonus'
	DB	00H						; `string'
CONST	ENDS
;	COMDAT ??_C@_0BJ@MFKPLGEE@GreatGeneralRateModifier?$AA@
CONST	SEGMENT
??_C@_0BJ@MFKPLGEE@GreatGeneralRateModifier?$AA@ DB 'GreatGeneralRateModi'
	DB	'fier', 00H					; `string'
CONST	ENDS
;	COMDAT ??_C@_0BL@JEHMMHCB@GreatScientistRateModifier?$AA@
CONST	SEGMENT
??_C@_0BL@JEHMMHCB@GreatScientistRateModifier?$AA@ DB 'GreatScientistRate'
	DB	'Modifier', 00H				; `string'
CONST	ENDS
;	COMDAT ??_C@_0BI@DKDDAFPG@GreatPeopleRateModifier?$AA@
CONST	SEGMENT
??_C@_0BI@DKDDAFPG@GreatPeopleRateModifier?$AA@ DB 'GreatPeopleRateModifi'
	DB	'er', 00H					; `string'
CONST	ENDS
;	COMDAT ??_C@_0BI@IJFKMPJF@LevelExperienceModifier?$AA@
CONST	SEGMENT
??_C@_0BI@IJFKMPJF@LevelExperienceModifier?$AA@ DB 'LevelExperienceModifi'
	DB	'er', 00H					; `string'
CONST	ENDS
;	COMDAT ??_C@_0BB@GBLDMPKE@ShortDescription?$AA@
CONST	SEGMENT
??_C@_0BB@GBLDMPKE@ShortDescription?$AA@ DB 'ShortDescription', 00H ; `string'
CONST	ENDS
;	COMDAT xdata$x
xdata$x	SEGMENT
__ehfuncinfo$?CacheResults@CvTraitEntry@@UAE_NAAVResults@Database@@AAVCvDatabaseUtility@@@Z DD 019930522H
	DD	0cH
	DD	FLAT:__unwindtable$?CacheResults@CvTraitEntry@@UAE_NAAVResults@Database@@AAVCvDatabaseUtility@@@Z
	DD	2 DUP(00H)
	DD	2 DUP(00H)
	DD	00H
	DD	01H
__unwindtable$?CacheResults@CvTraitEntry@@UAE_NAAVResults@Database@@AAVCvDatabaseUtility@@@Z DD 0ffffffffH
	DD	FLAT:__unwindfunclet$?CacheResults@CvTraitEntry@@UAE_NAAVResults@Database@@AAVCvDatabaseUtility@@@Z$0
	DD	0ffffffffH
	DD	FLAT:__unwindfunclet$?CacheResults@CvTraitEntry@@UAE_NAAVResults@Database@@AAVCvDatabaseUtility@@@Z$1
	DD	01H
	DD	FLAT:__unwindfunclet$?CacheResults@CvTraitEntry@@UAE_NAAVResults@Database@@AAVCvDatabaseUtility@@@Z$2
	DD	01H
	DD	FLAT:__unwindfunclet$?CacheResults@CvTraitEntry@@UAE_NAAVResults@Database@@AAVCvDatabaseUtility@@@Z$19
	DD	0ffffffffH
	DD	FLAT:__unwindfunclet$?CacheResults@CvTraitEntry@@UAE_NAAVResults@Database@@AAVCvDatabaseUtility@@@Z$3
	DD	0ffffffffH
	DD	FLAT:__unwindfunclet$?CacheResults@CvTraitEntry@@UAE_NAAVResults@Database@@AAVCvDatabaseUtility@@@Z$4
	DD	0ffffffffH
	DD	FLAT:__unwindfunclet$?CacheResults@CvTraitEntry@@UAE_NAAVResults@Database@@AAVCvDatabaseUtility@@@Z$5
	DD	0ffffffffH
	DD	FLAT:__unwindfunclet$?CacheResults@CvTraitEntry@@UAE_NAAVResults@Database@@AAVCvDatabaseUtility@@@Z$6
	DD	0ffffffffH
	DD	FLAT:__unwindfunclet$?CacheResults@CvTraitEntry@@UAE_NAAVResults@Database@@AAVCvDatabaseUtility@@@Z$7
	DD	0ffffffffH
	DD	FLAT:__unwindfunclet$?CacheResults@CvTraitEntry@@UAE_NAAVResults@Database@@AAVCvDatabaseUtility@@@Z$8
	DD	0ffffffffH
	DD	FLAT:__unwindfunclet$?CacheResults@CvTraitEntry@@UAE_NAAVResults@Database@@AAVCvDatabaseUtility@@@Z$9
	DD	0ffffffffH
	DD	FLAT:__unwindfunclet$?CacheResults@CvTraitEntry@@UAE_NAAVResults@Database@@AAVCvDatabaseUtility@@@Z$10
; Function compile flags: /Odtp
; File d:\sources\lekmod_git\checkout\lekmod_dll\cvgamecoredll_expansion2\cvtraitclasses.cpp
xdata$x	ENDS
;	COMDAT ?CacheResults@CvTraitEntry@@UAE_NAAVResults@Database@@AAVCvDatabaseUtility@@@Z
_TEXT	SEGMENT
tv1860 = -1228						; size = 4
tv1810 = -1224						; size = 4
tv1600 = -1220						; size = 4
tv1565 = -1216						; size = 4
tv1231 = -1212						; size = 4
_this$ = -1208						; size = 4
$T230512 = -1148					; size = 4
$T230496 = -1144					; size = 4
$T230489 = -1140					; size = 4
$T230405 = -1092					; size = 4
$T230404 = -928						; size = 8
$T230403 = -920						; size = 8
$T230402 = -912						; size = 8
$T230150 = -904						; size = 4
$T230134 = -900						; size = 4
$T230127 = -896						; size = 4
$T230044 = -848						; size = 4
$T230042 = -700						; size = 8
$T230041 = -692						; size = 8
$T230040 = -684						; size = 8
$T229568 = -548						; size = 8
$T229542 = -532						; size = 8
$T229541 = -524						; size = 8
$T229540 = -516						; size = 12
$T229539 = -504						; size = 4
$T229538 = -500						; size = 8
$T229537 = -492						; size = 8
_temp$222356 = -484					; size = 8
_iResource$222357 = -476				; size = 4
_temp$222347 = -472					; size = 8
_iResourceLoop$222343 = -464				; size = 4
_pResults$222350 = -460					; size = 4
_strKey$222348 = -456					; size = 28
_iImprovementID$222341 = -428				; size = 4
_iImprovementLoop$222329 = -424				; size = 4
_pResults$222335 = -420					; size = 4
_strKey$222333 = -416					; size = 28
_iUnitClass$222326 = -384				; size = 4
_iUnitClassLoop$222314 = -380				; size = 4
_pResults$222320 = -376					; size = 4
_strKey$222318 = -372					; size = 28
_FeatureID$222311 = -344				; size = 4
_yield$222313 = -340					; size = 4
_YieldID$222312 = -336					; size = 4
_pResults$222305 = -332					; size = 4
_strKey$222303 = -328					; size = 28
_yield$222301 = -300					; size = 4
_SpecialistID$222299 = -296				; size = 4
_YieldID$222300 = -292					; size = 4
_pResults$222293 = -288					; size = 4
_strKey$222291 = -284					; size = 28
_yield$222289 = -256					; size = 4
_ImprovementID$222287 = -252				; size = 4
_YieldID$222288 = -248					; size = 4
_pResults$222281 = -244					; size = 4
_strKey$222279 = -240					; size = 28
_iMaintenanceModifier$222276 = -212			; size = 4
_iUnitCombatID$222275 = -208				; size = 4
_szSQL$222270 = -204					; size = 4
_pResults$222268 = -200					; size = 4
_iNumUnitCombatClasses$222265 = -196			; size = 4
_sqlKey$222266 = -192					; size = 28
_iMovesChange$222264 = -164				; size = 4
_iUnitCombatID$222263 = -160				; size = 4
_szSQL$222258 = -156					; size = 4
_pResults$222256 = -152					; size = 4
_iNumUnitCombatClasses$222252 = -148			; size = 4
_sqlKey$222254 = -144					; size = 28
_unitPromotionID$222172 = -116				; size = 4
_unitCombatInfoID$222173 = -112				; size = 4
_szSQL$222167 = -108					; size = 4
_pResults$222165 = -104					; size = 4
_sqlKey$222163 = -100					; size = 28
_iTerrainID$222159 = -72				; size = 4
_iStrategicResourceQuantityModifier$222161 = -68	; size = 4
_szSQL$222154 = -64					; size = 4
_pResults$222152 = -60					; size = 4
_sqlKey$222150 = -56					; size = 28
__$ArrayPad$ = -28					; size = 4
_iNumTerrains$ = -24					; size = 4
_szTextVal$ = -20					; size = 4
_szTraitType$ = -16					; size = 4
__$EHRec$ = -12						; size = 12
_kResults$ = 8						; size = 4
_kUtility$ = 12						; size = 4
?CacheResults@CvTraitEntry@@UAE_NAAVResults@Database@@AAVCvDatabaseUtility@@@Z PROC ; CvTraitEntry::CacheResults, COMDAT
; _this$ = ecx

; 1094 : {

	push	ebp
	mov	ebp, esp
	push	-1
	push	__ehhandler$?CacheResults@CvTraitEntry@@UAE_NAAVResults@Database@@AAVCvDatabaseUtility@@@Z
	mov	eax, DWORD PTR fs:0
	push	eax
	sub	esp, 1216				; 000004c0H
	mov	eax, DWORD PTR ___security_cookie
	xor	eax, ebp
	mov	DWORD PTR __$ArrayPad$[ebp], eax
	push	eax
	lea	eax, DWORD PTR __$EHRec$[ebp]
	mov	DWORD PTR fs:0, eax
	mov	DWORD PTR _this$[ebp], ecx

; 1095 : 	if(!CvBaseInfo::CacheResults(kResults, kUtility))

	mov	eax, DWORD PTR _kUtility$[ebp]
	push	eax
	mov	ecx, DWORD PTR _kResults$[ebp]
	push	ecx
	mov	ecx, DWORD PTR _this$[ebp]
	call	?CacheResults@CvBaseInfo@@UAE_NAAVResults@Database@@AAVCvDatabaseUtility@@@Z ; CvBaseInfo::CacheResults
	movzx	edx, al
	test	edx, edx
	jne	SHORT $LN50@CacheResul

; 1096 : 		return false;

	xor	al, al
	jmp	$LN51@CacheResul
$LN50@CacheResul:

; 1097 : 
; 1098 : 	//Basic Properties
; 1099 : 	setShortDescription(kResults.GetText("ShortDescription"));

	push	OFFSET ??_C@_0BB@GBLDMPKE@ShortDescription?$AA@
	mov	ecx, DWORD PTR _kResults$[ebp]
	call	DWORD PTR __imp_?GetText@Results@Database@@QAEPBDPBD@Z
	push	eax
	mov	ecx, DWORD PTR _this$[ebp]
	call	?setShortDescription@CvTraitEntry@@QAEXPBD@Z ; CvTraitEntry::setShortDescription

; 1100 : 
; 1101 : 	m_iLevelExperienceModifier				= kResults.GetInt("LevelExperienceModifier");

	push	OFFSET ??_C@_0BI@IJFKMPJF@LevelExperienceModifier?$AA@
	mov	ecx, DWORD PTR _kResults$[ebp]
	call	DWORD PTR __imp_?GetInt@Results@Database@@QAEHPBD@Z
	mov	ecx, DWORD PTR _this$[ebp]
	mov	DWORD PTR [ecx+260], eax

; 1102 : 	m_iGreatPeopleRateModifier				= kResults.GetInt("GreatPeopleRateModifier");

	push	OFFSET ??_C@_0BI@DKDDAFPG@GreatPeopleRateModifier?$AA@
	mov	ecx, DWORD PTR _kResults$[ebp]
	call	DWORD PTR __imp_?GetInt@Results@Database@@QAEHPBD@Z
	mov	edx, DWORD PTR _this$[ebp]
	mov	DWORD PTR [edx+264], eax

; 1103 : 	m_iGreatScientistRateModifier			= kResults.GetInt("GreatScientistRateModifier");

	push	OFFSET ??_C@_0BL@JEHMMHCB@GreatScientistRateModifier?$AA@
	mov	ecx, DWORD PTR _kResults$[ebp]
	call	DWORD PTR __imp_?GetInt@Results@Database@@QAEHPBD@Z
	mov	ecx, DWORD PTR _this$[ebp]
	mov	DWORD PTR [ecx+268], eax

; 1104 : 	m_iGreatGeneralRateModifier				= kResults.GetInt("GreatGeneralRateModifier");

	push	OFFSET ??_C@_0BJ@MFKPLGEE@GreatGeneralRateModifier?$AA@
	mov	ecx, DWORD PTR _kResults$[ebp]
	call	DWORD PTR __imp_?GetInt@Results@Database@@QAEHPBD@Z
	mov	edx, DWORD PTR _this$[ebp]
	mov	DWORD PTR [edx+272], eax

; 1105 : 	m_iGreatGeneralExtraBonus				= kResults.GetInt("GreatGeneralExtraBonus");

	push	OFFSET ??_C@_0BH@LHGCIMPK@GreatGeneralExtraBonus?$AA@
	mov	ecx, DWORD PTR _kResults$[ebp]
	call	DWORD PTR __imp_?GetInt@Results@Database@@QAEHPBD@Z
	mov	ecx, DWORD PTR _this$[ebp]
	mov	DWORD PTR [ecx+276], eax

; 1106 : 	m_iGreatPersonGiftInfluence				= kResults.GetInt("GreatPersonGiftInfluence");

	push	OFFSET ??_C@_0BJ@IGFDIHCA@GreatPersonGiftInfluence?$AA@
	mov	ecx, DWORD PTR _kResults$[ebp]
	call	DWORD PTR __imp_?GetInt@Results@Database@@QAEHPBD@Z
	mov	edx, DWORD PTR _this$[ebp]
	mov	DWORD PTR [edx+280], eax

; 1107 : 	m_iMaxGlobalBuildingProductionModifier	= kResults.GetInt("MaxGlobalBuildingProductionModifier");

	push	OFFSET ??_C@_0CE@JPCAIMIG@MaxGlobalBuildingProductionModif@
	mov	ecx, DWORD PTR _kResults$[ebp]
	call	DWORD PTR __imp_?GetInt@Results@Database@@QAEHPBD@Z
	mov	ecx, DWORD PTR _this$[ebp]
	mov	DWORD PTR [ecx+284], eax

; 1108 : 	m_iMaxTeamBuildingProductionModifier	= kResults.GetInt("MaxTeamBuildingProductionModifier");

	push	OFFSET ??_C@_0CC@LNEKPAPM@MaxTeamBuildingProductionModifie@
	mov	ecx, DWORD PTR _kResults$[ebp]
	call	DWORD PTR __imp_?GetInt@Results@Database@@QAEHPBD@Z
	mov	edx, DWORD PTR _this$[ebp]
	mov	DWORD PTR [edx+288], eax

; 1109 : 	m_iMaxPlayerBuildingProductionModifier	= kResults.GetInt("MaxPlayerBuildingProductionModifier");

	push	OFFSET ??_C@_0CE@NPEABLDP@MaxPlayerBuildingProductionModif@
	mov	ecx, DWORD PTR _kResults$[ebp]
	call	DWORD PTR __imp_?GetInt@Results@Database@@QAEHPBD@Z
	mov	ecx, DWORD PTR _this$[ebp]
	mov	DWORD PTR [ecx+292], eax

; 1110 : 	m_iCityUnhappinessModifier           	= kResults.GetInt("CityUnhappinessModifier");

	push	OFFSET ??_C@_0BI@COFBHJFM@CityUnhappinessModifier?$AA@
	mov	ecx, DWORD PTR _kResults$[ebp]
	call	DWORD PTR __imp_?GetInt@Results@Database@@QAEHPBD@Z
	mov	edx, DWORD PTR _this$[ebp]
	mov	DWORD PTR [edx+296], eax

; 1111 : 	m_iPopulationUnhappinessModifier    	= kResults.GetInt("PopulationUnhappinessModifier");

	push	OFFSET ??_C@_0BO@DHGOHAIB@PopulationUnhappinessModifier?$AA@
	mov	ecx, DWORD PTR _kResults$[ebp]
	call	DWORD PTR __imp_?GetInt@Results@Database@@QAEHPBD@Z
	mov	ecx, DWORD PTR _this$[ebp]
	mov	DWORD PTR [ecx+300], eax

; 1112 : 	m_iCityStateBonusModifier               = kResults.GetInt("CityStateBonusModifier");

	push	OFFSET ??_C@_0BH@BJAEBEN@CityStateBonusModifier?$AA@
	mov	ecx, DWORD PTR _kResults$[ebp]
	call	DWORD PTR __imp_?GetInt@Results@Database@@QAEHPBD@Z
	mov	edx, DWORD PTR _this$[ebp]
	mov	DWORD PTR [edx+304], eax

; 1113 : 	m_iCityStateFriendshipModifier          = kResults.GetInt("CityStateFriendshipModifier");

	push	OFFSET ??_C@_0BM@CJCOCPNL@CityStateFriendshipModifier?$AA@
	mov	ecx, DWORD PTR _kResults$[ebp]
	call	DWORD PTR __imp_?GetInt@Results@Database@@QAEHPBD@Z
	mov	ecx, DWORD PTR _this$[ebp]
	mov	DWORD PTR [ecx+308], eax

; 1114 : 	m_iCityStateCombatModifier				= kResults.GetInt("CityStateCombatModifier");

	push	OFFSET ??_C@_0BI@LLKLCJEP@CityStateCombatModifier?$AA@
	mov	ecx, DWORD PTR _kResults$[ebp]
	call	DWORD PTR __imp_?GetInt@Results@Database@@QAEHPBD@Z
	mov	edx, DWORD PTR _this$[ebp]
	mov	DWORD PTR [edx+312], eax

; 1115 : 	m_iLandBarbarianConversionPercent       = kResults.GetInt("LandBarbarianConversionPercent");

	push	OFFSET ??_C@_0BP@CBHCFKJC@LandBarbarianConversionPercent?$AA@
	mov	ecx, DWORD PTR _kResults$[ebp]
	call	DWORD PTR __imp_?GetInt@Results@Database@@QAEHPBD@Z
	mov	ecx, DWORD PTR _this$[ebp]
	mov	DWORD PTR [ecx+316], eax

; 1116 : 	m_iLandBarbarianConversionExtraUnits    = kResults.GetInt("LandBarbarianConversionExtraUnits");

	push	OFFSET ??_C@_0CC@GPFEONPB@LandBarbarianConversionExtraUnit@
	mov	ecx, DWORD PTR _kResults$[ebp]
	call	DWORD PTR __imp_?GetInt@Results@Database@@QAEHPBD@Z
	mov	edx, DWORD PTR _this$[ebp]
	mov	DWORD PTR [edx+320], eax

; 1117 : 	m_iSeaBarbarianConversionPercent        = kResults.GetInt("SeaBarbarianConversionPercent");

	push	OFFSET ??_C@_0BO@OOIEDACI@SeaBarbarianConversionPercent?$AA@
	mov	ecx, DWORD PTR _kResults$[ebp]
	call	DWORD PTR __imp_?GetInt@Results@Database@@QAEHPBD@Z
	mov	ecx, DWORD PTR _this$[ebp]
	mov	DWORD PTR [ecx+324], eax

; 1118 : 	m_iCapitalBuildingModifier				= kResults.GetInt("CapitalBuildingModifier");

	push	OFFSET ??_C@_0BI@MLKAEAMP@CapitalBuildingModifier?$AA@
	mov	ecx, DWORD PTR _kResults$[ebp]
	call	DWORD PTR __imp_?GetInt@Results@Database@@QAEHPBD@Z
	mov	edx, DWORD PTR _this$[ebp]
	mov	DWORD PTR [edx+328], eax

; 1119 : 	m_iPlotBuyCostModifier					= kResults.GetInt("PlotBuyCostModifier");

	push	OFFSET ??_C@_0BE@MHNLMMNB@PlotBuyCostModifier?$AA@
	mov	ecx, DWORD PTR _kResults$[ebp]
	call	DWORD PTR __imp_?GetInt@Results@Database@@QAEHPBD@Z
	mov	ecx, DWORD PTR _this$[ebp]
	mov	DWORD PTR [ecx+332], eax

; 1120 : 	m_iPlotCultureCostModifier              = kResults.GetInt("PlotCultureCostModifier");

	push	OFFSET ??_C@_0BI@CCICLKEE@PlotCultureCostModifier?$AA@
	mov	ecx, DWORD PTR _kResults$[ebp]
	call	DWORD PTR __imp_?GetInt@Results@Database@@QAEHPBD@Z
	mov	edx, DWORD PTR _this$[ebp]
	mov	DWORD PTR [edx+336], eax

; 1121 : #ifdef NQ_SCIENCE_PER_GREAT_PERSON_BORN
; 1122 : 	m_iSciencePerGreatPersonBorn			= kResults.GetInt("SciencePerGreatPersonBorn");

	push	OFFSET ??_C@_0BK@NKEMBBH@SciencePerGreatPersonBorn?$AA@
	mov	ecx, DWORD PTR _kResults$[ebp]
	call	DWORD PTR __imp_?GetInt@Results@Database@@QAEHPBD@Z
	mov	ecx, DWORD PTR _this$[ebp]
	mov	DWORD PTR [ecx+340], eax

; 1123 : #endif
; 1124 : #ifdef NQ_NUM_TURNS_BEFORE_MINOR_ALLIES_REFUSE_BRIBES_FROM_TRAIT
; 1125 : 	m_iNumTurnsBeforeMinorAlliesRefuseBribes = kResults.GetInt("NumTurnsBeforeMinorAlliesRefuseBribes");

	push	OFFSET ??_C@_0CG@DEMNCJFF@NumTurnsBeforeMinorAlliesRefuseB@
	mov	ecx, DWORD PTR _kResults$[ebp]
	call	DWORD PTR __imp_?GetInt@Results@Database@@QAEHPBD@Z
	mov	edx, DWORD PTR _this$[ebp]
	mov	DWORD PTR [edx+344], eax

; 1126 : #endif
; 1127 : #ifdef NQ_GOLDEN_PILGRIMAGE
; 1128 : 	m_iGoldenAgeTileBonusFaith              = kResults.GetInt("GoldenAgeTileBonusFaith");

	push	OFFSET ??_C@_0BI@JGNHBIFC@GoldenAgeTileBonusFaith?$AA@
	mov	ecx, DWORD PTR _kResults$[ebp]
	call	DWORD PTR __imp_?GetInt@Results@Database@@QAEHPBD@Z
	mov	ecx, DWORD PTR _this$[ebp]
	mov	DWORD PTR [ecx+348], eax

; 1129 : #endif
; 1130 : 	m_iCultureFromKills						= kResults.GetInt("CultureFromKills");

	push	OFFSET ??_C@_0BB@EMBLNIDN@CultureFromKills?$AA@
	mov	ecx, DWORD PTR _kResults$[ebp]
	call	DWORD PTR __imp_?GetInt@Results@Database@@QAEHPBD@Z
	mov	edx, DWORD PTR _this$[ebp]
	mov	DWORD PTR [edx+352], eax

; 1131 : 	m_iFaithFromKills						= kResults.GetInt("FaithFromKills");

	push	OFFSET ??_C@_0P@POALJMFH@FaithFromKills?$AA@
	mov	ecx, DWORD PTR _kResults$[ebp]
	call	DWORD PTR __imp_?GetInt@Results@Database@@QAEHPBD@Z
	mov	ecx, DWORD PTR _this$[ebp]
	mov	DWORD PTR [ecx+356], eax

; 1132 : 	m_iCityCultureBonus						= kResults.GetInt("CityCultureBonus");

	push	OFFSET ??_C@_0BB@FEMBFCEN@CityCultureBonus?$AA@
	mov	ecx, DWORD PTR _kResults$[ebp]
	call	DWORD PTR __imp_?GetInt@Results@Database@@QAEHPBD@Z
	mov	edx, DWORD PTR _this$[ebp]
	mov	DWORD PTR [edx+360], eax

; 1133 : 	m_iCapitalThemingBonusModifier          = kResults.GetInt("CapitalThemingBonusModifier");

	push	OFFSET ??_C@_0BM@NFLFOOON@CapitalThemingBonusModifier?$AA@
	mov	ecx, DWORD PTR _kResults$[ebp]
	call	DWORD PTR __imp_?GetInt@Results@Database@@QAEHPBD@Z
	mov	ecx, DWORD PTR _this$[ebp]
	mov	DWORD PTR [ecx+364], eax

; 1134 : 	m_iPolicyCostModifier					= kResults.GetInt("PolicyCostModifier");

	push	OFFSET ??_C@_0BD@MIAKAFOH@PolicyCostModifier?$AA@
	mov	ecx, DWORD PTR _kResults$[ebp]
	call	DWORD PTR __imp_?GetInt@Results@Database@@QAEHPBD@Z
	mov	edx, DWORD PTR _this$[ebp]
	mov	DWORD PTR [edx+368], eax

; 1135 : 	m_iCityConnectionTradeRouteChange		= kResults.GetInt("CityConnectionTradeRouteChange");

	push	OFFSET ??_C@_0BP@CGFEGMEN@CityConnectionTradeRouteChange?$AA@
	mov	ecx, DWORD PTR _kResults$[ebp]
	call	DWORD PTR __imp_?GetInt@Results@Database@@QAEHPBD@Z
	mov	ecx, DWORD PTR _this$[ebp]
	mov	DWORD PTR [ecx+372], eax

; 1136 : 	m_iWonderProductionModifier				= kResults.GetInt("WonderProductionModifier");

	push	OFFSET ??_C@_0BJ@KGAAGHKI@WonderProductionModifier?$AA@
	mov	ecx, DWORD PTR _kResults$[ebp]
	call	DWORD PTR __imp_?GetInt@Results@Database@@QAEHPBD@Z
	mov	edx, DWORD PTR _this$[ebp]
	mov	DWORD PTR [edx+376], eax

; 1137 : 	m_iPlunderModifier						= kResults.GetInt("PlunderModifier");

	push	OFFSET ??_C@_0BA@MLDJOLFP@PlunderModifier?$AA@
	mov	ecx, DWORD PTR _kResults$[ebp]
	call	DWORD PTR __imp_?GetInt@Results@Database@@QAEHPBD@Z
	mov	ecx, DWORD PTR _this$[ebp]
	mov	DWORD PTR [ecx+380], eax

; 1138 : 	m_iImprovementMaintenanceModifier       = kResults.GetInt("ImprovementMaintenanceModifier");

	push	OFFSET ??_C@_0BP@HHMKJBJK@ImprovementMaintenanceModifier?$AA@
	mov	ecx, DWORD PTR _kResults$[ebp]
	call	DWORD PTR __imp_?GetInt@Results@Database@@QAEHPBD@Z
	mov	edx, DWORD PTR _this$[ebp]
	mov	DWORD PTR [edx+384], eax

; 1139 : 	m_iGoldenAgeDurationModifier			= kResults.GetInt("GoldenAgeDurationModifier");

	push	OFFSET ??_C@_0BK@IIBCIDDC@GoldenAgeDurationModifier?$AA@
	mov	ecx, DWORD PTR _kResults$[ebp]
	call	DWORD PTR __imp_?GetInt@Results@Database@@QAEHPBD@Z
	mov	ecx, DWORD PTR _this$[ebp]
	mov	DWORD PTR [ecx+388], eax

; 1140 : 	m_iGoldenAgeMoveChange				    = kResults.GetInt("GoldenAgeMoveChange");

	push	OFFSET ??_C@_0BE@JJLHBCMM@GoldenAgeMoveChange?$AA@
	mov	ecx, DWORD PTR _kResults$[ebp]
	call	DWORD PTR __imp_?GetInt@Results@Database@@QAEHPBD@Z
	mov	edx, DWORD PTR _this$[ebp]
	mov	DWORD PTR [edx+392], eax

; 1141 : 	m_iGoldenAgeCombatModifier				= kResults.GetInt("GoldenAgeCombatModifier");

	push	OFFSET ??_C@_0BI@MFCFAJNI@GoldenAgeCombatModifier?$AA@
	mov	ecx, DWORD PTR _kResults$[ebp]
	call	DWORD PTR __imp_?GetInt@Results@Database@@QAEHPBD@Z
	mov	ecx, DWORD PTR _this$[ebp]
	mov	DWORD PTR [ecx+396], eax

; 1142 : 	m_iGoldenAgeTourismModifier				= kResults.GetInt("GoldenAgeTourismModifier");

	push	OFFSET ??_C@_0BJ@LPJPLOKH@GoldenAgeTourismModifier?$AA@
	mov	ecx, DWORD PTR _kResults$[ebp]
	call	DWORD PTR __imp_?GetInt@Results@Database@@QAEHPBD@Z
	mov	edx, DWORD PTR _this$[ebp]
	mov	DWORD PTR [edx+400], eax

; 1143 : 	m_iGoldenAgeGreatArtistRateModifier		= kResults.GetInt("GoldenAgeGreatArtistRateModifier");

	push	OFFSET ??_C@_0CB@FOKFNPKD@GoldenAgeGreatArtistRateModifier@
	mov	ecx, DWORD PTR _kResults$[ebp]
	call	DWORD PTR __imp_?GetInt@Results@Database@@QAEHPBD@Z
	mov	ecx, DWORD PTR _this$[ebp]
	mov	DWORD PTR [ecx+404], eax

; 1144 : 	m_iGoldenAgeGreatMusicianRateModifier	= kResults.GetInt("GoldenAgeGreatMusicianRateModifier");

	push	OFFSET ??_C@_0CD@MENCBKJL@GoldenAgeGreatMusicianRateModifi@
	mov	ecx, DWORD PTR _kResults$[ebp]
	call	DWORD PTR __imp_?GetInt@Results@Database@@QAEHPBD@Z
	mov	edx, DWORD PTR _this$[ebp]
	mov	DWORD PTR [edx+408], eax

; 1145 : 	m_iGoldenAgeGreatWriterRateModifier		= kResults.GetInt("GoldenAgeGreatWriterRateModifier");

	push	OFFSET ??_C@_0CB@KEODKJBJ@GoldenAgeGreatWriterRateModifier@
	mov	ecx, DWORD PTR _kResults$[ebp]
	call	DWORD PTR __imp_?GetInt@Results@Database@@QAEHPBD@Z
	mov	ecx, DWORD PTR _this$[ebp]
	mov	DWORD PTR [ecx+412], eax

; 1146 : 	m_iExtraEmbarkMoves						= kResults.GetInt("ExtraEmbarkMoves");

	push	OFFSET ??_C@_0BB@BHJJBIH@ExtraEmbarkMoves?$AA@
	mov	ecx, DWORD PTR _kResults$[ebp]
	call	DWORD PTR __imp_?GetInt@Results@Database@@QAEHPBD@Z
	mov	edx, DWORD PTR _this$[ebp]
	mov	DWORD PTR [edx+424], eax

; 1147 : 	m_iNaturalWonderFirstFinderGold         = kResults.GetInt("NaturalWonderFirstFinderGold");

	push	OFFSET ??_C@_0BN@LOGCIIPI@NaturalWonderFirstFinderGold?$AA@
	mov	ecx, DWORD PTR _kResults$[ebp]
	call	DWORD PTR __imp_?GetInt@Results@Database@@QAEHPBD@Z
	mov	ecx, DWORD PTR _this$[ebp]
	mov	DWORD PTR [ecx+432], eax

; 1148 : 	m_iNaturalWonderSubsequentFinderGold    = kResults.GetInt("NaturalWonderSubsequentFinderGold");

	push	OFFSET ??_C@_0CC@NMHMFIPI@NaturalWonderSubsequentFinderGol@
	mov	ecx, DWORD PTR _kResults$[ebp]
	call	DWORD PTR __imp_?GetInt@Results@Database@@QAEHPBD@Z
	mov	edx, DWORD PTR _this$[ebp]
	mov	DWORD PTR [edx+436], eax

; 1149 : 
; 1150 : 	//EAP: Faith for the Natural wonder findor
; 1151 : 	m_iNaturalWonderFirstFinderFaith         = kResults.GetInt("NaturalWonderFirstFinderFaith");

	push	OFFSET ??_C@_0BO@EBGIMHIP@NaturalWonderFirstFinderFaith?$AA@
	mov	ecx, DWORD PTR _kResults$[ebp]
	call	DWORD PTR __imp_?GetInt@Results@Database@@QAEHPBD@Z
	mov	ecx, DWORD PTR _this$[ebp]
	mov	DWORD PTR [ecx+440], eax

; 1152 : 	m_iNaturalWonderSubsequentFinderFaith    = kResults.GetInt("NaturalWonderSubsequentFinderFaith");

	push	OFFSET ??_C@_0CD@EBAKNJFP@NaturalWonderSubsequentFinderFai@
	mov	ecx, DWORD PTR _kResults$[ebp]
	call	DWORD PTR __imp_?GetInt@Results@Database@@QAEHPBD@Z
	mov	edx, DWORD PTR _this$[ebp]
	mov	DWORD PTR [edx+444], eax

; 1153 : 
; 1154 : 	m_iNaturalWonderYieldModifier           = kResults.GetInt("NaturalWonderYieldModifier");

	push	OFFSET ??_C@_0BL@NAOBBDJO@NaturalWonderYieldModifier?$AA@
	mov	ecx, DWORD PTR _kResults$[ebp]
	call	DWORD PTR __imp_?GetInt@Results@Database@@QAEHPBD@Z
	mov	ecx, DWORD PTR _this$[ebp]
	mov	DWORD PTR [ecx+448], eax

; 1155 : 	m_iNaturalWonderHappinessModifier       = kResults.GetInt("NaturalWonderHappinessModifier");

	push	OFFSET ??_C@_0BP@NGJNFACF@NaturalWonderHappinessModifier?$AA@
	mov	ecx, DWORD PTR _kResults$[ebp]
	call	DWORD PTR __imp_?GetInt@Results@Database@@QAEHPBD@Z
	mov	edx, DWORD PTR _this$[ebp]
	mov	DWORD PTR [edx+452], eax

; 1156 : 	m_iNearbyImprovementCombatBonus			= kResults.GetInt("NearbyImprovementCombatBonus");

	push	OFFSET ??_C@_0BN@BPMPNCFH@NearbyImprovementCombatBonus?$AA@
	mov	ecx, DWORD PTR _kResults$[ebp]
	call	DWORD PTR __imp_?GetInt@Results@Database@@QAEHPBD@Z
	mov	ecx, DWORD PTR _this$[ebp]
	mov	DWORD PTR [ecx+456], eax

; 1157 : 	m_iNearbyImprovementBonusRange			= kResults.GetInt("NearbyImprovementBonusRange");

	push	OFFSET ??_C@_0BM@IFKLCMB@NearbyImprovementBonusRange?$AA@
	mov	ecx, DWORD PTR _kResults$[ebp]
	call	DWORD PTR __imp_?GetInt@Results@Database@@QAEHPBD@Z
	mov	edx, DWORD PTR _this$[ebp]
	mov	DWORD PTR [edx+460], eax

; 1158 : 	m_iCultureBuildingYieldChange			= kResults.GetInt("CultureBuildingYieldChange");

	push	OFFSET ??_C@_0BL@DJIJFOPM@CultureBuildingYieldChange?$AA@
	mov	ecx, DWORD PTR _kResults$[ebp]
	call	DWORD PTR __imp_?GetInt@Results@Database@@QAEHPBD@Z
	mov	ecx, DWORD PTR _this$[ebp]
	mov	DWORD PTR [ecx+464], eax

; 1159 : 	m_iCombatBonusVsHigherTech				= kResults.GetInt("CombatBonusVsHigherTech");

	push	OFFSET ??_C@_0BI@DGLMDOGP@CombatBonusVsHigherTech?$AA@
	mov	ecx, DWORD PTR _kResults$[ebp]
	call	DWORD PTR __imp_?GetInt@Results@Database@@QAEHPBD@Z
	mov	edx, DWORD PTR _this$[ebp]
	mov	DWORD PTR [edx+468], eax

; 1160 : 	m_iCombatBonusVsLargerCiv				= kResults.GetInt("CombatBonusVsLargerCiv");

	push	OFFSET ??_C@_0BH@HPFMENFC@CombatBonusVsLargerCiv?$AA@
	mov	ecx, DWORD PTR _kResults$[ebp]
	call	DWORD PTR __imp_?GetInt@Results@Database@@QAEHPBD@Z
	mov	ecx, DWORD PTR _this$[ebp]
	mov	DWORD PTR [ecx+472], eax

; 1161 : 	m_iLandUnitMaintenanceModifier          = kResults.GetInt("LandUnitMaintenanceModifier");

	push	OFFSET ??_C@_0BM@IDILIMFG@LandUnitMaintenanceModifier?$AA@
	mov	ecx, DWORD PTR _kResults$[ebp]
	call	DWORD PTR __imp_?GetInt@Results@Database@@QAEHPBD@Z
	mov	edx, DWORD PTR _this$[ebp]
	mov	DWORD PTR [edx+476], eax

; 1162 : 	m_iNavalUnitMaintenanceModifier         = kResults.GetInt("NavalUnitMaintenanceModifier");

	push	OFFSET ??_C@_0BN@FAJBHPKK@NavalUnitMaintenanceModifier?$AA@
	mov	ecx, DWORD PTR _kResults$[ebp]
	call	DWORD PTR __imp_?GetInt@Results@Database@@QAEHPBD@Z
	mov	ecx, DWORD PTR _this$[ebp]
	mov	DWORD PTR [ecx+480], eax

; 1163 : 	m_iRazeSpeedModifier					= kResults.GetInt("RazeSpeedModifier");

	push	OFFSET ??_C@_0BC@HKIMEGAL@RazeSpeedModifier?$AA@
	mov	ecx, DWORD PTR _kResults$[ebp]
	call	DWORD PTR __imp_?GetInt@Results@Database@@QAEHPBD@Z
	mov	edx, DWORD PTR _this$[ebp]
	mov	DWORD PTR [edx+484], eax

; 1164 : 	m_iDOFGreatPersonModifier				= kResults.GetInt("DOFGreatPersonModifier");

	push	OFFSET ??_C@_0BH@MOOGPKPG@DOFGreatPersonModifier?$AA@
	mov	ecx, DWORD PTR _kResults$[ebp]
	call	DWORD PTR __imp_?GetInt@Results@Database@@QAEHPBD@Z
	mov	ecx, DWORD PTR _this$[ebp]
	mov	DWORD PTR [ecx+488], eax

; 1165 : 	m_iLuxuryHappinessRetention				= kResults.GetInt("LuxuryHappinessRetention");

	push	OFFSET ??_C@_0BJ@FBADGCLK@LuxuryHappinessRetention?$AA@
	mov	ecx, DWORD PTR _kResults$[ebp]
	call	DWORD PTR __imp_?GetInt@Results@Database@@QAEHPBD@Z
	mov	edx, DWORD PTR _this$[ebp]
	mov	DWORD PTR [edx+492], eax

; 1166 : 	m_iExtraHappinessPerLuxury				= kResults.GetInt("ExtraHappinessPerLuxury"); // NQMP GJS - New Netherlands UA

	push	OFFSET ??_C@_0BI@KDPCJKIO@ExtraHappinessPerLuxury?$AA@
	mov	ecx, DWORD PTR _kResults$[ebp]
	call	DWORD PTR __imp_?GetInt@Results@Database@@QAEHPBD@Z
	mov	ecx, DWORD PTR _this$[ebp]
	mov	DWORD PTR [ecx+496], eax

; 1167 : 	m_iExtraSpies							= kResults.GetInt("ExtraSpies");

	push	OFFSET ??_C@_0L@MHOKHMFG@ExtraSpies?$AA@
	mov	ecx, DWORD PTR _kResults$[ebp]
	call	DWORD PTR __imp_?GetInt@Results@Database@@QAEHPBD@Z
	mov	edx, DWORD PTR _this$[ebp]
	mov	DWORD PTR [edx+500], eax

; 1168 : 	m_iHappinessPerReligion					= kResults.GetInt("HappinessPerReligion"); // NQMP GJS - New Ottoman UA

	push	OFFSET ??_C@_0BF@OCPLAGIK@HappinessPerReligion?$AA@
	mov	ecx, DWORD PTR _kResults$[ebp]
	call	DWORD PTR __imp_?GetInt@Results@Database@@QAEHPBD@Z
	mov	ecx, DWORD PTR _this$[ebp]
	mov	DWORD PTR [ecx+504], eax

; 1169 : 	m_iUnresearchedTechBonusFromKills		= kResults.GetInt("UnresearchedTechBonusFromKills");

	push	OFFSET ??_C@_0BP@DEELJCPA@UnresearchedTechBonusFromKills?$AA@
	mov	ecx, DWORD PTR _kResults$[ebp]
	call	DWORD PTR __imp_?GetInt@Results@Database@@QAEHPBD@Z
	mov	edx, DWORD PTR _this$[ebp]
	mov	DWORD PTR [edx+508], eax

; 1170 : 	m_iExtraFoundedCityTerritoryClaimRange  = kResults.GetInt("ExtraFoundedCityTerritoryClaimRange");

	push	OFFSET ??_C@_0CE@BMKGAGFH@ExtraFoundedCityTerritoryClaimRa@
	mov	ecx, DWORD PTR _kResults$[ebp]
	call	DWORD PTR __imp_?GetInt@Results@Database@@QAEHPBD@Z
	mov	ecx, DWORD PTR _this$[ebp]
	mov	DWORD PTR [ecx+512], eax

; 1171 : 	m_iFreeSocialPoliciesPerEra				= kResults.GetInt("FreeSocialPoliciesPerEra");

	push	OFFSET ??_C@_0BJ@NNFMBHPN@FreeSocialPoliciesPerEra?$AA@
	mov	ecx, DWORD PTR _kResults$[ebp]
	call	DWORD PTR __imp_?GetInt@Results@Database@@QAEHPBD@Z
	mov	edx, DWORD PTR _this$[ebp]
	mov	DWORD PTR [edx+516], eax

; 1172 : 	m_iNumTradeRoutesModifier				= kResults.GetInt("NumTradeRoutesModifier");

	push	OFFSET ??_C@_0BH@OHBFFHBN@NumTradeRoutesModifier?$AA@
	mov	ecx, DWORD PTR _kResults$[ebp]
	call	DWORD PTR __imp_?GetInt@Results@Database@@QAEHPBD@Z
	mov	ecx, DWORD PTR _this$[ebp]
	mov	DWORD PTR [ecx+520], eax

; 1173 : 	m_iTradeRouteResourceModifier			= kResults.GetInt("TradeRouteResourceModifier");

	push	OFFSET ??_C@_0BL@OPNOFJAB@TradeRouteResourceModifier?$AA@
	mov	ecx, DWORD PTR _kResults$[ebp]
	call	DWORD PTR __imp_?GetInt@Results@Database@@QAEHPBD@Z
	mov	edx, DWORD PTR _this$[ebp]
	mov	DWORD PTR [edx+524], eax

; 1174 : 	m_iUniqueLuxuryCities					= kResults.GetInt("UniqueLuxuryCities");

	push	OFFSET ??_C@_0BD@BNFGGMNB@UniqueLuxuryCities?$AA@
	mov	ecx, DWORD PTR _kResults$[ebp]
	call	DWORD PTR __imp_?GetInt@Results@Database@@QAEHPBD@Z
	mov	ecx, DWORD PTR _this$[ebp]
	mov	DWORD PTR [ecx+528], eax

; 1175 : 	m_iUniqueLuxuryQuantity					= kResults.GetInt("UniqueLuxuryQuantity");

	push	OFFSET ??_C@_0BF@JCMHACMD@UniqueLuxuryQuantity?$AA@
	mov	ecx, DWORD PTR _kResults$[ebp]
	call	DWORD PTR __imp_?GetInt@Results@Database@@QAEHPBD@Z
	mov	edx, DWORD PTR _this$[ebp]
	mov	DWORD PTR [edx+532], eax

; 1176 : 	m_iWorkerSpeedModifier					= kResults.GetInt("WorkerSpeedModifier");

	push	OFFSET ??_C@_0BE@NGOPBNAB@WorkerSpeedModifier?$AA@
	mov	ecx, DWORD PTR _kResults$[ebp]
	call	DWORD PTR __imp_?GetInt@Results@Database@@QAEHPBD@Z
	mov	ecx, DWORD PTR _this$[ebp]
	mov	DWORD PTR [ecx+536], eax

; 1177 : 	m_iAfraidMinorPerTurnInfluence			= kResults.GetInt("AfraidMinorPerTurnInfluence");

	push	OFFSET ??_C@_0BM@IPHHLIAB@AfraidMinorPerTurnInfluence?$AA@
	mov	ecx, DWORD PTR _kResults$[ebp]
	call	DWORD PTR __imp_?GetInt@Results@Database@@QAEHPBD@Z
	mov	edx, DWORD PTR _this$[ebp]
	mov	DWORD PTR [edx+540], eax

; 1178 : 	m_iLandTradeRouteRangeBonus				= kResults.GetInt("LandTradeRouteRangeBonus");

	push	OFFSET ??_C@_0BJ@IPEHHBM@LandTradeRouteRangeBonus?$AA@
	mov	ecx, DWORD PTR _kResults$[ebp]
	call	DWORD PTR __imp_?GetInt@Results@Database@@QAEHPBD@Z
	mov	ecx, DWORD PTR _this$[ebp]
	mov	DWORD PTR [ecx+544], eax

; 1179 : 	m_iTradeReligionModifier				= kResults.GetInt("TradeReligionModifier");

	push	OFFSET ??_C@_0BG@CICGAOPI@TradeReligionModifier?$AA@
	mov	ecx, DWORD PTR _kResults$[ebp]
	call	DWORD PTR __imp_?GetInt@Results@Database@@QAEHPBD@Z
	mov	edx, DWORD PTR _this$[ebp]
	mov	DWORD PTR [edx+548], eax

; 1180 : 	m_iTradeBuildingModifier				= kResults.GetInt("TradeBuildingModifier");

	push	OFFSET ??_C@_0BG@OOCFOBDJ@TradeBuildingModifier?$AA@
	mov	ecx, DWORD PTR _kResults$[ebp]
	call	DWORD PTR __imp_?GetInt@Results@Database@@QAEHPBD@Z
	mov	ecx, DWORD PTR _this$[ebp]
	mov	DWORD PTR [ecx+552], eax

; 1181 : 
; 1182 : 	const char* szTextVal = NULL;

	mov	DWORD PTR _szTextVal$[ebp], 0

; 1183 : 	szTextVal = kResults.GetText("FreeUnit");

	push	OFFSET ??_C@_08PMODHGEM@FreeUnit?$AA@
	mov	ecx, DWORD PTR _kResults$[ebp]
	call	DWORD PTR __imp_?GetText@Results@Database@@QAEPBDPBD@Z
	mov	DWORD PTR _szTextVal$[ebp], eax

; 1184 : 	if(szTextVal)

	cmp	DWORD PTR _szTextVal$[ebp], 0
	je	SHORT $LN49@CacheResul

; 1185 : 	{
; 1186 : 		m_iFreeUnitClassType = GC.getInfoTypeForString(szTextVal, true);

	push	1
	mov	edx, DWORD PTR _szTextVal$[ebp]
	push	edx
	mov	ecx, OFFSET ?gGlobals@@3VCvGlobals@@A	; gGlobals
	call	?getInfoTypeForString@CvGlobals@@QBEHPBD_N@Z ; CvGlobals::getInfoTypeForString
	mov	ecx, DWORD PTR _this$[ebp]
	mov	DWORD PTR [ecx+428], eax
$LN49@CacheResul:

; 1187 : 	}
; 1188 : 
; 1189 : 	szTextVal = kResults.GetText("FreeUnitPrereqTech");

	push	OFFSET ??_C@_0BD@OEBDLCBD@FreeUnitPrereqTech?$AA@
	mov	ecx, DWORD PTR _kResults$[ebp]
	call	DWORD PTR __imp_?GetText@Results@Database@@QAEPBDPBD@Z
	mov	DWORD PTR _szTextVal$[ebp], eax

; 1190 : 	if(szTextVal)

	cmp	DWORD PTR _szTextVal$[ebp], 0
	je	SHORT $LN48@CacheResul

; 1191 : 	{
; 1192 : 		m_eFreeUnitPrereqTech = (TechTypes)GC.getInfoTypeForString(szTextVal, true);

	push	1
	mov	edx, DWORD PTR _szTextVal$[ebp]
	push	edx
	mov	ecx, OFFSET ?gGlobals@@3VCvGlobals@@A	; gGlobals
	call	?getInfoTypeForString@CvGlobals@@QBEHPBD_N@Z ; CvGlobals::getInfoTypeForString
	mov	ecx, DWORD PTR _this$[ebp]
	mov	DWORD PTR [ecx+556], eax
$LN48@CacheResul:

; 1193 : 	}
; 1194 : 
; 1195 : 	//// CMP DLL THING
; 1196 : 
; 1197 : 	szTextVal = kResults.GetText("FreeBuildingPrereqTech");

	push	OFFSET ??_C@_0BH@NNAIEBBN@FreeBuildingPrereqTech?$AA@
	mov	ecx, DWORD PTR _kResults$[ebp]
	call	DWORD PTR __imp_?GetText@Results@Database@@QAEPBDPBD@Z
	mov	DWORD PTR _szTextVal$[ebp], eax

; 1198 : 	if(szTextVal)

	cmp	DWORD PTR _szTextVal$[ebp], 0
	je	SHORT $LN47@CacheResul

; 1199 : 	{
; 1200 : 		m_eFreeBuildingPrereqTech = (TechTypes)GC.getInfoTypeForString(szTextVal, true);

	push	1
	mov	edx, DWORD PTR _szTextVal$[ebp]
	push	edx
	mov	ecx, OFFSET ?gGlobals@@3VCvGlobals@@A	; gGlobals
	call	?getInfoTypeForString@CvGlobals@@QBEHPBD_N@Z ; CvGlobals::getInfoTypeForString
	mov	ecx, DWORD PTR _this$[ebp]
	mov	DWORD PTR [ecx+572], eax
$LN47@CacheResul:

; 1201 : 	}
; 1202 : 	szTextVal = kResults.GetText("CapitalFreeBuildingPrereqTech");

	push	OFFSET ??_C@_0BO@MEABIPHA@CapitalFreeBuildingPrereqTech?$AA@
	mov	ecx, DWORD PTR _kResults$[ebp]
	call	DWORD PTR __imp_?GetText@Results@Database@@QAEPBDPBD@Z
	mov	DWORD PTR _szTextVal$[ebp], eax

; 1203 : 	if(szTextVal)

	cmp	DWORD PTR _szTextVal$[ebp], 0
	je	SHORT $LN46@CacheResul

; 1204 : 	{
; 1205 : 		m_eCapitalFreeBuildingPrereqTech = (TechTypes)GC.getInfoTypeForString(szTextVal, true);

	push	1
	mov	edx, DWORD PTR _szTextVal$[ebp]
	push	edx
	mov	ecx, OFFSET ?gGlobals@@3VCvGlobals@@A	; gGlobals
	call	?getInfoTypeForString@CvGlobals@@QBEHPBD_N@Z ; CvGlobals::getInfoTypeForString
	mov	ecx, DWORD PTR _this$[ebp]
	mov	DWORD PTR [ecx+576], eax
$LN46@CacheResul:

; 1206 : 	}
; 1207 : 
; 1208 : 	///
; 1209 : 
; 1210 : 
; 1211 : 	szTextVal = kResults.GetText("CombatBonusImprovement");

	push	OFFSET ??_C@_0BH@GMFFPLCG@CombatBonusImprovement?$AA@
	mov	ecx, DWORD PTR _kResults$[ebp]
	call	DWORD PTR __imp_?GetText@Results@Database@@QAEPBDPBD@Z
	mov	DWORD PTR _szTextVal$[ebp], eax

; 1212 : 	if(szTextVal)

	cmp	DWORD PTR _szTextVal$[ebp], 0
	je	SHORT $LN45@CacheResul

; 1213 : 	{
; 1214 : 		m_eCombatBonusImprovement = (ImprovementTypes)GC.getInfoTypeForString(szTextVal, true);

	push	1
	mov	edx, DWORD PTR _szTextVal$[ebp]
	push	edx
	mov	ecx, OFFSET ?gGlobals@@3VCvGlobals@@A	; gGlobals
	call	?getInfoTypeForString@CvGlobals@@QBEHPBD_N@Z ; CvGlobals::getInfoTypeForString
	mov	ecx, DWORD PTR _this$[ebp]
	mov	DWORD PTR [ecx+560], eax
$LN45@CacheResul:

; 1215 : 	}
; 1216 : 
; 1217 : 	szTextVal = kResults.GetText("ObsoleteTech");

	push	OFFSET ??_C@_0N@KNKPCICJ@ObsoleteTech?$AA@
	mov	ecx, DWORD PTR _kResults$[ebp]
	call	DWORD PTR __imp_?GetText@Results@Database@@QAEPBDPBD@Z
	mov	DWORD PTR _szTextVal$[ebp], eax

; 1218 : 	if(szTextVal)

	cmp	DWORD PTR _szTextVal$[ebp], 0
	je	SHORT $LN44@CacheResul

; 1219 : 	{
; 1220 : 		m_iObsoleteTech = GC.getInfoTypeForString(szTextVal, true);

	push	1
	mov	edx, DWORD PTR _szTextVal$[ebp]
	push	edx
	mov	ecx, OFFSET ?gGlobals@@3VCvGlobals@@A	; gGlobals
	call	?getInfoTypeForString@CvGlobals@@QBEHPBD_N@Z ; CvGlobals::getInfoTypeForString
	mov	ecx, DWORD PTR _this$[ebp]
	mov	DWORD PTR [ecx+416], eax
$LN44@CacheResul:

; 1221 : 	}
; 1222 : 
; 1223 : 	szTextVal = kResults.GetText("PrereqTech");

	push	OFFSET ??_C@_0L@NJNFNDFO@PrereqTech?$AA@
	mov	ecx, DWORD PTR _kResults$[ebp]
	call	DWORD PTR __imp_?GetText@Results@Database@@QAEPBDPBD@Z
	mov	DWORD PTR _szTextVal$[ebp], eax

; 1224 : 	if(szTextVal)

	cmp	DWORD PTR _szTextVal$[ebp], 0
	je	SHORT $LN43@CacheResul

; 1225 : 	{
; 1226 : 		m_iPrereqTech = GC.getInfoTypeForString(szTextVal, true);

	push	1
	mov	edx, DWORD PTR _szTextVal$[ebp]
	push	edx
	mov	ecx, OFFSET ?gGlobals@@3VCvGlobals@@A	; gGlobals
	call	?getInfoTypeForString@CvGlobals@@QBEHPBD_N@Z ; CvGlobals::getInfoTypeForString
	mov	ecx, DWORD PTR _this$[ebp]
	mov	DWORD PTR [ecx+420], eax
$LN43@CacheResul:

; 1227 : 	}
; 1228 : 
; 1229 : 	szTextVal = kResults.GetText("FreeBuilding");

	push	OFFSET ??_C@_0N@EHKBNAC@FreeBuilding?$AA@
	mov	ecx, DWORD PTR _kResults$[ebp]
	call	DWORD PTR __imp_?GetText@Results@Database@@QAEPBDPBD@Z
	mov	DWORD PTR _szTextVal$[ebp], eax

; 1230 : 	if(szTextVal)

	cmp	DWORD PTR _szTextVal$[ebp], 0
	je	SHORT $LN42@CacheResul

; 1231 : 	{
; 1232 : 		m_eFreeBuilding = (BuildingTypes)GC.getInfoTypeForString(szTextVal, true);

	push	1
	mov	edx, DWORD PTR _szTextVal$[ebp]
	push	edx
	mov	ecx, OFFSET ?gGlobals@@3VCvGlobals@@A	; gGlobals
	call	?getInfoTypeForString@CvGlobals@@QBEHPBD_N@Z ; CvGlobals::getInfoTypeForString
	mov	ecx, DWORD PTR _this$[ebp]
	mov	DWORD PTR [ecx+564], eax
$LN42@CacheResul:

; 1233 : 	}
; 1234 : 
; 1235 : 	szTextVal = kResults.GetText("FreeCapitalBuilding");

	push	OFFSET ??_C@_0BE@BMODEEBC@FreeCapitalBuilding?$AA@
	mov	ecx, DWORD PTR _kResults$[ebp]
	call	DWORD PTR __imp_?GetText@Results@Database@@QAEPBDPBD@Z
	mov	DWORD PTR _szTextVal$[ebp], eax

; 1236 : 	if(szTextVal)

	cmp	DWORD PTR _szTextVal$[ebp], 0
	je	SHORT $LN41@CacheResul

; 1237 : 	{
; 1238 : 		m_eFreeCapitalBuilding = (BuildingTypes)GC.getInfoTypeForString(szTextVal, true);

	push	1
	mov	edx, DWORD PTR _szTextVal$[ebp]
	push	edx
	mov	ecx, OFFSET ?gGlobals@@3VCvGlobals@@A	; gGlobals
	call	?getInfoTypeForString@CvGlobals@@QBEHPBD_N@Z ; CvGlobals::getInfoTypeForString
	mov	ecx, DWORD PTR _this$[ebp]
	mov	DWORD PTR [ecx+568], eax
$LN41@CacheResul:

; 1239 : 	}
; 1240 : 
; 1241 : 	szTextVal = kResults.GetText("FreeBuildingOnConquest");

	push	OFFSET ??_C@_0BH@MPDGGDMG@FreeBuildingOnConquest?$AA@
	mov	ecx, DWORD PTR _kResults$[ebp]
	call	DWORD PTR __imp_?GetText@Results@Database@@QAEPBDPBD@Z
	mov	DWORD PTR _szTextVal$[ebp], eax

; 1242 : 	if(szTextVal)

	cmp	DWORD PTR _szTextVal$[ebp], 0
	je	SHORT $LN40@CacheResul

; 1243 : 	{
; 1244 : 		m_eFreeBuildingOnConquest = (BuildingTypes)GC.getInfoTypeForString(szTextVal, true);

	push	1
	mov	edx, DWORD PTR _szTextVal$[ebp]
	push	edx
	mov	ecx, OFFSET ?gGlobals@@3VCvGlobals@@A	; gGlobals
	call	?getInfoTypeForString@CvGlobals@@QBEHPBD_N@Z ; CvGlobals::getInfoTypeForString
	mov	ecx, DWORD PTR _this$[ebp]
	mov	DWORD PTR [ecx+580], eax
$LN40@CacheResul:

; 1245 : 	}
; 1246 : 
; 1247 : 	m_bFightWellDamaged = kResults.GetBool("FightWellDamaged");

	push	OFFSET ??_C@_0BB@FFBACMEJ@FightWellDamaged?$AA@
	mov	ecx, DWORD PTR _kResults$[ebp]
	call	DWORD PTR __imp_?GetBool@Results@Database@@QAE_NPBD@Z
	mov	edx, DWORD PTR _this$[ebp]
	mov	BYTE PTR [edx+584], al

; 1248 : 	m_bMoveFriendlyWoodsAsRoad = kResults.GetBool("MoveFriendlyWoodsAsRoad");

	push	OFFSET ??_C@_0BI@KHHPPHAJ@MoveFriendlyWoodsAsRoad?$AA@
	mov	ecx, DWORD PTR _kResults$[ebp]
	call	DWORD PTR __imp_?GetBool@Results@Database@@QAE_NPBD@Z
	mov	ecx, DWORD PTR _this$[ebp]
	mov	BYTE PTR [ecx+585], al

; 1249 : 	m_bFasterAlongRiver = kResults.GetBool("FasterAlongRiver");

	push	OFFSET ??_C@_0BB@HIJGMHHM@FasterAlongRiver?$AA@
	mov	ecx, DWORD PTR _kResults$[ebp]
	call	DWORD PTR __imp_?GetBool@Results@Database@@QAE_NPBD@Z
	mov	edx, DWORD PTR _this$[ebp]
	mov	BYTE PTR [edx+586], al

; 1250 : 	m_bFasterInHills = kResults.GetBool("FasterInHills");

	push	OFFSET ??_C@_0O@BOLDEMDP@FasterInHills?$AA@
	mov	ecx, DWORD PTR _kResults$[ebp]
	call	DWORD PTR __imp_?GetBool@Results@Database@@QAE_NPBD@Z
	mov	ecx, DWORD PTR _this$[ebp]
	mov	BYTE PTR [ecx+587], al

; 1251 : 	m_bEmbarkedAllWater = kResults.GetBool("EmbarkedAllWater");

	push	OFFSET ??_C@_0BB@COFEIKJH@EmbarkedAllWater?$AA@
	mov	ecx, DWORD PTR _kResults$[ebp]
	call	DWORD PTR __imp_?GetBool@Results@Database@@QAE_NPBD@Z
	mov	edx, DWORD PTR _this$[ebp]
	mov	BYTE PTR [edx+588], al

; 1252 : 	m_bEmbarkedToLandFlatCost = kResults.GetBool("EmbarkedToLandFlatCost");

	push	OFFSET ??_C@_0BH@HEPMOODJ@EmbarkedToLandFlatCost?$AA@
	mov	ecx, DWORD PTR _kResults$[ebp]
	call	DWORD PTR __imp_?GetBool@Results@Database@@QAE_NPBD@Z
	mov	ecx, DWORD PTR _this$[ebp]
	mov	BYTE PTR [ecx+589], al

; 1253 : 	m_bNoHillsImprovementMaintenance = kResults.GetBool("NoHillsImprovementMaintenance");

	push	OFFSET ??_C@_0BO@BADJGMNH@NoHillsImprovementMaintenance?$AA@
	mov	ecx, DWORD PTR _kResults$[ebp]
	call	DWORD PTR __imp_?GetBool@Results@Database@@QAE_NPBD@Z
	mov	edx, DWORD PTR _this$[ebp]
	mov	BYTE PTR [edx+590], al

; 1254 : 	m_bTechBoostFromCapitalScienceBuildings = kResults.GetBool("TechBoostFromCapitalScienceBuildings");

	push	OFFSET ??_C@_0CF@EHDKIJNN@TechBoostFromCapitalScienceBuild@
	mov	ecx, DWORD PTR _kResults$[ebp]
	call	DWORD PTR __imp_?GetBool@Results@Database@@QAE_NPBD@Z
	mov	ecx, DWORD PTR _this$[ebp]
	mov	BYTE PTR [ecx+591], al

; 1255 : 	m_bStaysAliveZeroCities = kResults.GetBool("StaysAliveZeroCities");

	push	OFFSET ??_C@_0BF@GOHJOIEH@StaysAliveZeroCities?$AA@
	mov	ecx, DWORD PTR _kResults$[ebp]
	call	DWORD PTR __imp_?GetBool@Results@Database@@QAE_NPBD@Z
	mov	edx, DWORD PTR _this$[ebp]
	mov	BYTE PTR [edx+592], al

; 1256 : 	m_bFaithFromUnimprovedForest = kResults.GetBool("FaithFromUnimprovedForest");

	push	OFFSET ??_C@_0BK@KEEAFDIB@FaithFromUnimprovedForest?$AA@
	mov	ecx, DWORD PTR _kResults$[ebp]
	call	DWORD PTR __imp_?GetBool@Results@Database@@QAE_NPBD@Z
	mov	ecx, DWORD PTR _this$[ebp]
	mov	BYTE PTR [ecx+593], al

; 1257 : #ifdef NQ_UNIT_IMMUNE_TO_PLUNDER_FROM_TRAIT
; 1258 : 	m_bSeaTradeRoutesArePlunderImmune = kResults.GetBool("SeaTradeRoutesArePlunderImmune");

	push	OFFSET ??_C@_0BP@OLGOEANA@SeaTradeRoutesArePlunderImmune?$AA@
	mov	ecx, DWORD PTR _kResults$[ebp]
	call	DWORD PTR __imp_?GetBool@Results@Database@@QAE_NPBD@Z
	mov	edx, DWORD PTR _this$[ebp]
	mov	BYTE PTR [edx+594], al

; 1259 : #endif
; 1260 : 	m_bEarnsGreatPersonOnSlotOrGuild = kResults.GetBool("EarnsGreatPersonOnSlotOrGuild"); // NQMP GJS - New France UA

	push	OFFSET ??_C@_0BO@JDKBCLKK@EarnsGreatPersonOnSlotOrGuild?$AA@
	mov	ecx, DWORD PTR _kResults$[ebp]
	call	DWORD PTR __imp_?GetBool@Results@Database@@QAE_NPBD@Z
	mov	ecx, DWORD PTR _this$[ebp]
	mov	BYTE PTR [ecx+595], al

; 1261 : 	m_bBonusReligiousBelief = kResults.GetBool("BonusReligiousBelief");

	push	OFFSET ??_C@_0BF@CKKILNFD@BonusReligiousBelief?$AA@
	mov	ecx, DWORD PTR _kResults$[ebp]
	call	DWORD PTR __imp_?GetBool@Results@Database@@QAE_NPBD@Z
	mov	edx, DWORD PTR _this$[ebp]
	mov	BYTE PTR [edx+599], al

; 1262 : 	m_bAbleToAnnexCityStates = kResults.GetBool("AbleToAnnexCityStates");

	push	OFFSET ??_C@_0BG@CDIIOFIJ@AbleToAnnexCityStates?$AA@
	mov	ecx, DWORD PTR _kResults$[ebp]
	call	DWORD PTR __imp_?GetBool@Results@Database@@QAE_NPBD@Z
	mov	ecx, DWORD PTR _this$[ebp]
	mov	BYTE PTR [ecx+600], al

; 1263 : 	m_bCrossesMountainsAfterGreatGeneral = kResults.GetBool("CrossesMountainsAfterGreatGeneral");

	push	OFFSET ??_C@_0CC@FJPEFFBL@CrossesMountainsAfterGreatGenera@
	mov	ecx, DWORD PTR _kResults$[ebp]
	call	DWORD PTR __imp_?GetBool@Results@Database@@QAE_NPBD@Z
	mov	edx, DWORD PTR _this$[ebp]
	mov	BYTE PTR [edx+601], al

; 1264 : 	m_bMayaCalendarBonuses = kResults.GetBool("MayaCalendarBonuses");

	push	OFFSET ??_C@_0BE@KEFCGJDL@MayaCalendarBonuses?$AA@
	mov	ecx, DWORD PTR _kResults$[ebp]
	call	DWORD PTR __imp_?GetBool@Results@Database@@QAE_NPBD@Z
	mov	ecx, DWORD PTR _this$[ebp]
	mov	BYTE PTR [ecx+602], al

; 1265 : 	m_bNoAnnexing = kResults.GetBool("NoAnnexing");

	push	OFFSET ??_C@_0L@FIOLCHFG@NoAnnexing?$AA@
	mov	ecx, DWORD PTR _kResults$[ebp]
	call	DWORD PTR __imp_?GetBool@Results@Database@@QAE_NPBD@Z
	mov	edx, DWORD PTR _this$[ebp]
	mov	BYTE PTR [edx+603], al

; 1266 : 	m_bTechFromCityConquer = kResults.GetBool("TechFromCityConquer");

	push	OFFSET ??_C@_0BE@KHGGKHH@TechFromCityConquer?$AA@
	mov	ecx, DWORD PTR _kResults$[ebp]
	call	DWORD PTR __imp_?GetBool@Results@Database@@QAE_NPBD@Z
	mov	ecx, DWORD PTR _this$[ebp]
	mov	BYTE PTR [ecx+604], al

; 1267 : 	m_bUniqueLuxuryRequiresNewArea = kResults.GetBool("UniqueLuxuryRequiresNewArea");

	push	OFFSET ??_C@_0BM@IDFEDMKD@UniqueLuxuryRequiresNewArea?$AA@
	mov	ecx, DWORD PTR _kResults$[ebp]
	call	DWORD PTR __imp_?GetBool@Results@Database@@QAE_NPBD@Z
	mov	edx, DWORD PTR _this$[ebp]
	mov	BYTE PTR [edx+605], al

; 1268 : 	m_bRiverTradeRoad = kResults.GetBool("RiverTradeRoad");

	push	OFFSET ??_C@_0P@BMCPGFLA@RiverTradeRoad?$AA@
	mov	ecx, DWORD PTR _kResults$[ebp]
	call	DWORD PTR __imp_?GetBool@Results@Database@@QAE_NPBD@Z
	mov	ecx, DWORD PTR _this$[ebp]
	mov	BYTE PTR [ecx+606], al

; 1269 : 	m_bAngerFreeIntrusionOfCityStates = kResults.GetBool("AngerFreeIntrusionOfCityStates");

	push	OFFSET ??_C@_0BP@IHDNKOKH@AngerFreeIntrusionOfCityStates?$AA@
	mov	ecx, DWORD PTR _kResults$[ebp]
	call	DWORD PTR __imp_?GetBool@Results@Database@@QAE_NPBD@Z
	mov	edx, DWORD PTR _this$[ebp]
	mov	BYTE PTR [edx+607], al

; 1270 : 
; 1271 : 	//Arrays
; 1272 : 	const char* szTraitType = GetType();

	mov	ecx, DWORD PTR _this$[ebp]
	add	ecx, 176				; 000000b0H
	call	DWORD PTR __imp_?c_str@?$basic_string@DU?$char_traits@D@std@@V?$allocator@D@2@@std@@QBEPBDXZ
	mov	DWORD PTR _szTraitType$[ebp], eax

; 1273 : 	kUtility.SetYields(m_paiExtraYieldThreshold, "Trait_ExtraYieldThresholds", "TraitType", szTraitType);

	mov	eax, DWORD PTR _szTraitType$[ebp]
	push	eax
	push	OFFSET ??_C@_09HHNMMNID@TraitType?$AA@
	push	OFFSET ??_C@_0BL@FAHDJKGN@Trait_ExtraYieldThresholds?$AA@
	mov	ecx, DWORD PTR _this$[ebp]
	add	ecx, 636				; 0000027cH
	push	ecx
	mov	ecx, DWORD PTR _kUtility$[ebp]
	call	?SetYields@CvDatabaseUtility@@QAE_NAAPAHPBD11@Z ; CvDatabaseUtility::SetYields

; 1274 : 
; 1275 : 	kUtility.SetYields(m_paiYieldChange, "Trait_YieldChanges", "TraitType", szTraitType);

	mov	edx, DWORD PTR _szTraitType$[ebp]
	push	edx
	push	OFFSET ??_C@_09HHNMMNID@TraitType?$AA@
	push	OFFSET ??_C@_0BD@HFICJHBM@Trait_YieldChanges?$AA@
	mov	eax, DWORD PTR _this$[ebp]
	add	eax, 640				; 00000280H
	push	eax
	mov	ecx, DWORD PTR _kUtility$[ebp]
	call	?SetYields@CvDatabaseUtility@@QAE_NAAPAHPBD11@Z ; CvDatabaseUtility::SetYields

; 1276 : 	kUtility.SetYields(m_paiYieldChangeStrategicResources, "Trait_YieldChangesStrategicResources", "TraitType", szTraitType);

	mov	ecx, DWORD PTR _szTraitType$[ebp]
	push	ecx
	push	OFFSET ??_C@_09HHNMMNID@TraitType?$AA@
	push	OFFSET ??_C@_0CF@INKJLPBJ@Trait_YieldChangesStrategicResou@
	mov	edx, DWORD PTR _this$[ebp]
	add	edx, 644				; 00000284H
	push	edx
	mov	ecx, DWORD PTR _kUtility$[ebp]
	call	?SetYields@CvDatabaseUtility@@QAE_NAAPAHPBD11@Z ; CvDatabaseUtility::SetYields

; 1277 : 	kUtility.SetYields(m_paiYieldChangeLuxuryResources, "Trait_YieldChangesLuxuryResources", "TraitType", szTraitType); // NQMP GJS - New Netherlands UA

	mov	eax, DWORD PTR _szTraitType$[ebp]
	push	eax
	push	OFFSET ??_C@_09HHNMMNID@TraitType?$AA@
	push	OFFSET ??_C@_0CC@DNGEBFJO@Trait_YieldChangesLuxuryResource@
	mov	ecx, DWORD PTR _this$[ebp]
	add	ecx, 648				; 00000288H
	push	ecx
	mov	ecx, DWORD PTR _kUtility$[ebp]
	call	?SetYields@CvDatabaseUtility@@QAE_NAAPAHPBD11@Z ; CvDatabaseUtility::SetYields

; 1278 : 	kUtility.SetYields(m_paiYieldChangeNaturalWonder, "Trait_YieldChangesNaturalWonder", "TraitType", szTraitType);

	mov	edx, DWORD PTR _szTraitType$[ebp]
	push	edx
	push	OFFSET ??_C@_09HHNMMNID@TraitType?$AA@
	push	OFFSET ??_C@_0CA@BIAKPHGH@Trait_YieldChangesNaturalWonder?$AA@
	mov	eax, DWORD PTR _this$[ebp]
	add	eax, 652				; 0000028cH
	push	eax
	mov	ecx, DWORD PTR _kUtility$[ebp]
	call	?SetYields@CvDatabaseUtility@@QAE_NAAPAHPBD11@Z ; CvDatabaseUtility::SetYields

; 1279 : 	kUtility.SetYields(m_paiYieldChangePerTradePartner, "Trait_YieldChangesPerTradePartner", "TraitType", szTraitType);

	mov	ecx, DWORD PTR _szTraitType$[ebp]
	push	ecx
	push	OFFSET ??_C@_09HHNMMNID@TraitType?$AA@
	push	OFFSET ??_C@_0CC@KLPGMKPB@Trait_YieldChangesPerTradePartne@
	mov	edx, DWORD PTR _this$[ebp]
	add	edx, 656				; 00000290H
	push	edx
	mov	ecx, DWORD PTR _kUtility$[ebp]
	call	?SetYields@CvDatabaseUtility@@QAE_NAAPAHPBD11@Z ; CvDatabaseUtility::SetYields

; 1280 : 	kUtility.SetYields(m_paiYieldChangeIncomingTradeRoute, "Trait_YieldChangesIncomingTradeRoute", "TraitType", szTraitType);

	mov	eax, DWORD PTR _szTraitType$[ebp]
	push	eax
	push	OFFSET ??_C@_09HHNMMNID@TraitType?$AA@
	push	OFFSET ??_C@_0CF@CONFBLMP@Trait_YieldChangesIncomingTradeR@
	mov	ecx, DWORD PTR _this$[ebp]
	add	ecx, 660				; 00000294H
	push	ecx
	mov	ecx, DWORD PTR _kUtility$[ebp]
	call	?SetYields@CvDatabaseUtility@@QAE_NAAPAHPBD11@Z ; CvDatabaseUtility::SetYields

; 1281 : 	kUtility.SetYields(m_paiYieldModifier, "Trait_YieldModifiers", "TraitType", szTraitType);

	mov	edx, DWORD PTR _szTraitType$[ebp]
	push	edx
	push	OFFSET ??_C@_09HHNMMNID@TraitType?$AA@
	push	OFFSET ??_C@_0BF@FHEKODEE@Trait_YieldModifiers?$AA@
	mov	eax, DWORD PTR _this$[ebp]
	add	eax, 664				; 00000298H
	push	eax
	mov	ecx, DWORD PTR _kUtility$[ebp]
	call	?SetYields@CvDatabaseUtility@@QAE_NAAPAHPBD11@Z ; CvDatabaseUtility::SetYields

; 1282 : 
; 1283 : 	const int iNumTerrains = GC.getNumTerrainInfos();

	mov	ecx, OFFSET ?gGlobals@@3VCvGlobals@@A	; gGlobals
	call	?getNumTerrainInfos@CvGlobals@@QAEHXZ	; CvGlobals::getNumTerrainInfos
	mov	DWORD PTR _iNumTerrains$[ebp], eax

; 1284 : 
; 1285 : 	//Trait_Terrains
; 1286 : 	{
; 1287 : 		kUtility.InitializeArray(m_piStrategicResourceQuantityModifier, iNumTerrains, 0);

	push	0
	mov	ecx, DWORD PTR _iNumTerrains$[ebp]
	push	ecx
	mov	edx, DWORD PTR _this$[ebp]
	add	edx, 668				; 0000029cH
	push	edx
	mov	ecx, DWORD PTR _kUtility$[ebp]
	call	?InitializeArray@CvDatabaseUtility@@QAEXAAPAHIH@Z ; CvDatabaseUtility::InitializeArray

; 1288 : 
; 1289 : 		std::string sqlKey = "Trait_Terrains";

	push	OFFSET ??_C@_0P@GJDNFKFB@Trait_Terrains?$AA@
	lea	ecx, DWORD PTR _sqlKey$222150[ebp]
	call	DWORD PTR __imp_??0?$basic_string@DU?$char_traits@D@std@@V?$allocator@D@2@@std@@QAE@PBD@Z
	mov	DWORD PTR __$EHRec$[ebp+8], 0

; 1290 : 		Database::Results* pResults = kUtility.GetResults(sqlKey);

	lea	eax, DWORD PTR _sqlKey$222150[ebp]
	push	eax
	mov	ecx, DWORD PTR _kUtility$[ebp]
	call	?GetResults@CvDatabaseUtility@@QAEPAVResults@Database@@ABV?$basic_string@DU?$char_traits@D@std@@V?$allocator@D@2@@std@@@Z ; CvDatabaseUtility::GetResults
	mov	DWORD PTR _pResults$222152[ebp], eax

; 1291 : 		if(pResults == NULL)

	cmp	DWORD PTR _pResults$222152[ebp], 0
	jne	SHORT $LN39@CacheResul

; 1292 : 		{
; 1293 : 			const char* szSQL = "select TraitType, Terrains.ID as TerrainID, StrategicResourceQuantityModifier from Trait_Terrains join Terrains on Terrains.Type = TerrainType where TraitType = ?";

	mov	DWORD PTR _szSQL$222154[ebp], OFFSET ??_C@_0KD@DPKDKHBJ@select?5TraitType?0?5Terrains?4ID?5as@

; 1294 : 			pResults = kUtility.PrepareResults(sqlKey, szSQL);

	mov	ecx, DWORD PTR _szSQL$222154[ebp]
	push	ecx
	lea	edx, DWORD PTR _sqlKey$222150[ebp]
	push	edx
	mov	ecx, DWORD PTR _kUtility$[ebp]
	call	?PrepareResults@CvDatabaseUtility@@QAEPAVResults@Database@@ABV?$basic_string@DU?$char_traits@D@std@@V?$allocator@D@2@@std@@PBD@Z ; CvDatabaseUtility::PrepareResults
	mov	DWORD PTR _pResults$222152[ebp], eax
$LN39@CacheResul:

; 1295 : 		}
; 1296 : 
; 1297 : 		pResults->Bind(1, szTraitType);

	push	1
	mov	eax, DWORD PTR _szTraitType$[ebp]
	push	eax
	push	1
	mov	ecx, DWORD PTR _pResults$222152[ebp]
	call	DWORD PTR __imp_?Bind@Results@Database@@QAE_NHPBD_N@Z
$LN38@CacheResul:

; 1298 : 
; 1299 : 		while(pResults->Step())

	mov	ecx, DWORD PTR _pResults$222152[ebp]
	call	DWORD PTR __imp_?Step@Results@Database@@QAE_NXZ
	movzx	ecx, al
	test	ecx, ecx
	je	SHORT $LN37@CacheResul

; 1300 : 		{
; 1301 : 			const int iTerrainID = pResults->GetInt("TerrainID");

	push	OFFSET ??_C@_09EINBFHAC@TerrainID?$AA@
	mov	ecx, DWORD PTR _pResults$222152[ebp]
	call	DWORD PTR __imp_?GetInt@Results@Database@@QAEHPBD@Z
	mov	DWORD PTR _iTerrainID$222159[ebp], eax

; 1302 : 			CvAssert(iTerrainID > -1 && iTerrainID < iNumTerrains);
; 1303 : 
; 1304 : 			const int iStrategicResourceQuantityModifier = pResults->GetInt("StrategicResourceQuantityModifier");

	push	OFFSET ??_C@_0CC@ODCDLGED@StrategicResourceQuantityModifie@
	mov	ecx, DWORD PTR _pResults$222152[ebp]
	call	DWORD PTR __imp_?GetInt@Results@Database@@QAEHPBD@Z
	mov	DWORD PTR _iStrategicResourceQuantityModifier$222161[ebp], eax

; 1305 : 			m_piStrategicResourceQuantityModifier[iTerrainID] = iStrategicResourceQuantityModifier;

	mov	edx, DWORD PTR _this$[ebp]
	mov	eax, DWORD PTR [edx+668]
	mov	ecx, DWORD PTR _iTerrainID$222159[ebp]
	mov	edx, DWORD PTR _iStrategicResourceQuantityModifier$222161[ebp]
	mov	DWORD PTR [eax+ecx*4], edx

; 1306 : 		}

	jmp	SHORT $LN38@CacheResul
$LN37@CacheResul:

; 1307 : 	}

	mov	DWORD PTR __$EHRec$[ebp+8], -1
	lea	ecx, DWORD PTR _sqlKey$222150[ebp]
	call	DWORD PTR __imp_??1?$basic_string@DU?$char_traits@D@std@@V?$allocator@D@2@@std@@QAE@XZ

; 1308 : 
; 1309 : 	//Populate m_FreePromotionUnitCombats
; 1310 : 	{
; 1311 : 		std::string sqlKey = "FreePromotionUnitCombats";

	push	OFFSET ??_C@_0BJ@HAFNGCNE@FreePromotionUnitCombats?$AA@
	lea	ecx, DWORD PTR _sqlKey$222163[ebp]
	call	DWORD PTR __imp_??0?$basic_string@DU?$char_traits@D@std@@V?$allocator@D@2@@std@@QAE@PBD@Z
	mov	DWORD PTR __$EHRec$[ebp+8], 1

; 1312 : 		Database::Results* pResults = kUtility.GetResults(sqlKey);

	lea	eax, DWORD PTR _sqlKey$222163[ebp]
	push	eax
	mov	ecx, DWORD PTR _kUtility$[ebp]
	call	?GetResults@CvDatabaseUtility@@QAEPAVResults@Database@@ABV?$basic_string@DU?$char_traits@D@std@@V?$allocator@D@2@@std@@@Z ; CvDatabaseUtility::GetResults
	mov	DWORD PTR _pResults$222165[ebp], eax

; 1313 : 		if(pResults == NULL)

	cmp	DWORD PTR _pResults$222165[ebp], 0
	jne	SHORT $LN36@CacheResul

; 1314 : 		{
; 1315 : 			const char* szSQL = "select UnitPromotions.ID, UnitCombatInfos.ID from Trait_FreePromotionUnitCombats, UnitPromotions, UnitCombatInfos where TraitType = ? and PromotionType = UnitPromotions.Type and UnitCombatType = UnitCombatInfos.Type";

	mov	DWORD PTR _szSQL$222167[ebp], OFFSET ??_C@_0NI@DOOOMALO@select?5UnitPromotions?4ID?0?5UnitCo@

; 1316 : 			pResults = kUtility.PrepareResults(sqlKey, szSQL);

	mov	ecx, DWORD PTR _szSQL$222167[ebp]
	push	ecx
	lea	edx, DWORD PTR _sqlKey$222163[ebp]
	push	edx
	mov	ecx, DWORD PTR _kUtility$[ebp]
	call	?PrepareResults@CvDatabaseUtility@@QAEPAVResults@Database@@ABV?$basic_string@DU?$char_traits@D@std@@V?$allocator@D@2@@std@@PBD@Z ; CvDatabaseUtility::PrepareResults
	mov	DWORD PTR _pResults$222165[ebp], eax
$LN36@CacheResul:

; 1317 : 		}
; 1318 : 
; 1319 : 		pResults->Bind(1, szTraitType);

	push	1
	mov	eax, DWORD PTR _szTraitType$[ebp]
	push	eax
	push	1
	mov	ecx, DWORD PTR _pResults$222165[ebp]
	call	DWORD PTR __imp_?Bind@Results@Database@@QAE_NHPBD_N@Z
$LN35@CacheResul:

; 1320 : 
; 1321 : 		while(pResults->Step())

	mov	ecx, DWORD PTR _pResults$222165[ebp]
	call	DWORD PTR __imp_?Step@Results@Database@@QAE_NXZ
	movzx	ecx, al
	test	ecx, ecx
	je	SHORT $LN34@CacheResul

; 1322 : 		{
; 1323 : 			const int unitPromotionID = pResults->GetInt(0);

	push	0
	mov	ecx, DWORD PTR _pResults$222165[ebp]
	call	DWORD PTR __imp_?GetInt@Results@Database@@QAEHH@Z
	mov	DWORD PTR _unitPromotionID$222172[ebp], eax

; 1324 : 			const int unitCombatInfoID = pResults->GetInt(1);

	push	1
	mov	ecx, DWORD PTR _pResults$222165[ebp]
	call	DWORD PTR __imp_?GetInt@Results@Database@@QAEHH@Z
	mov	DWORD PTR _unitCombatInfoID$222173[ebp], eax

; 1325 : 
; 1326 : 			m_FreePromotionUnitCombats.insert(std::pair<int, int>(unitPromotionID, unitCombatInfoID));

	mov	edx, DWORD PTR _unitPromotionID$222172[ebp]
	mov	DWORD PTR $T229538[ebp], edx
	mov	eax, DWORD PTR _unitCombatInfoID$222173[ebp]
	mov	DWORD PTR $T229538[ebp+4], eax
	mov	ecx, DWORD PTR $T229538[ebp]
	mov	DWORD PTR $T229537[ebp], ecx
	mov	edx, DWORD PTR $T229538[ebp+4]
	mov	DWORD PTR $T229537[ebp+4], edx
	lea	eax, DWORD PTR $T229537[ebp]
	push	eax
	lea	ecx, DWORD PTR $T229568[ebp]
	push	ecx
	mov	ecx, DWORD PTR _this$[ebp]
	add	ecx, 696				; 000002b8H
	call	?insert@?$_Tree@V?$_Tmap_traits@HHU?$less@H@std@@V?$allocator@U?$pair@$$CBHH@std@@@2@$00@std@@@std@@QAE?AU?$pair@Viterator@?$_Tree@V?$_Tmap_traits@HHU?$less@H@std@@V?$allocator@U?$pair@$$CBHH@std@@@2@$00@std@@@std@@_N@2@ABU?$pair@$$CBHH@2@@Z ; std::_Tree<std::_Tmap_traits<int,int,std::less<int>,std::allocator<std::pair<int const ,int> >,1> >::insert
	mov	edx, DWORD PTR [eax]
	mov	DWORD PTR $T229539[ebp], edx

; 1327 : 		}

	jmp	SHORT $LN35@CacheResul
$LN34@CacheResul:

; 1328 : 
; 1329 : 		pResults->Reset();

	mov	ecx, DWORD PTR _pResults$222165[ebp]
	call	DWORD PTR __imp_?Reset@Results@Database@@QAE_NXZ

; 1330 : 
; 1331 : 		//Trim extra memory off container since this is mostly read-only.
; 1332 : 		std::multimap<int,int>(m_FreePromotionUnitCombats).swap(m_FreePromotionUnitCombats);

	mov	eax, DWORD PTR _this$[ebp]
	add	eax, 696				; 000002b8H
	push	eax
	lea	ecx, DWORD PTR $T229540[ebp]
	call	??0?$_Tree@V?$_Tmap_traits@HHU?$less@H@std@@V?$allocator@U?$pair@$$CBHH@std@@@2@$00@std@@@std@@QAE@ABV01@@Z ; std::_Tree<std::_Tmap_traits<int,int,std::less<int>,std::allocator<std::pair<int const ,int> >,1> >::_Tree<std::_Tmap_traits<int,int,std::less<int>,std::allocator<std::pair<int const ,int> >,1> >
	lea	ecx, DWORD PTR $T229540[ebp]
	mov	DWORD PTR tv1231[ebp], ecx
	mov	BYTE PTR __$EHRec$[ebp+8], 2
	mov	edx, DWORD PTR _this$[ebp]
	add	edx, 696				; 000002b8H
	push	edx
	mov	ecx, DWORD PTR tv1231[ebp]
	call	?swap@?$_Tree@V?$_Tmap_traits@HHU?$less@H@std@@V?$allocator@U?$pair@$$CBHH@std@@@2@$00@std@@@std@@QAEXAAV12@@Z ; std::_Tree<std::_Tmap_traits<int,int,std::less<int>,std::allocator<std::pair<int const ,int> >,1> >::swap
	mov	BYTE PTR __$EHRec$[ebp+8], 1
	mov	BYTE PTR __$EHRec$[ebp+8], 3
	lea	ecx, DWORD PTR $T229540[ebp]
	call	?_Tidy@?$_Tree@V?$_Tmap_traits@HHU?$less@H@std@@V?$allocator@U?$pair@$$CBHH@std@@@2@$00@std@@@std@@IAEXXZ ; std::_Tree<std::_Tmap_traits<int,int,std::less<int>,std::allocator<std::pair<int const ,int> >,1> >::_Tidy
	mov	BYTE PTR __$EHRec$[ebp+8], 1

; 1333 : 
; 1334 : 		kUtility.PopulateArrayByValue(m_piResourceQuantityModifiers, "Resources", "Trait_ResourceQuantityModifiers", "ResourceType", "TraitType", szTraitType, "ResourceQuantityModifier");

	push	0
	push	0
	push	OFFSET ??_C@_0BJ@PKPOGINB@ResourceQuantityModifier?$AA@
	mov	eax, DWORD PTR _szTraitType$[ebp]
	push	eax
	push	OFFSET ??_C@_09HHNMMNID@TraitType?$AA@
	push	OFFSET ??_C@_0N@EPHJOCBJ@ResourceType?$AA@
	push	OFFSET ??_C@_0CA@KDHCGIKB@Trait_ResourceQuantityModifiers?$AA@
	push	OFFSET ??_C@_09FDCBPLKG@Resources?$AA@
	mov	ecx, DWORD PTR _this$[ebp]
	add	ecx, 672				; 000002a0H
	push	ecx
	mov	ecx, DWORD PTR _kUtility$[ebp]
	call	?PopulateArrayByValue@CvDatabaseUtility@@QAE_NAAPAHPBD11111HH@Z ; CvDatabaseUtility::PopulateArrayByValue

; 1335 : 	}

	mov	DWORD PTR __$EHRec$[ebp+8], -1
	lea	ecx, DWORD PTR _sqlKey$222163[ebp]
	call	DWORD PTR __imp_??1?$basic_string@DU?$char_traits@D@std@@V?$allocator@D@2@@std@@QAE@XZ

; 1336 : 
; 1337 : 	//Populate m_MovesChangeUnitCombats
; 1338 : 	{
; 1339 : 		const int iNumUnitCombatClasses = kUtility.MaxRows("UnitCombatInfos");

	push	OFFSET ??_C@_0BA@NHHFHDEL@UnitCombatInfos?$AA@
	mov	ecx, DWORD PTR _kUtility$[ebp]
	call	?MaxRows@CvDatabaseUtility@@QAEHPBD@Z	; CvDatabaseUtility::MaxRows
	mov	DWORD PTR _iNumUnitCombatClasses$222252[ebp], eax

; 1340 : 		kUtility.InitializeArray(m_piMovesChangeUnitCombats, iNumUnitCombatClasses, 0);

	push	0
	mov	edx, DWORD PTR _iNumUnitCombatClasses$222252[ebp]
	push	edx
	mov	eax, DWORD PTR _this$[ebp]
	add	eax, 676				; 000002a4H
	push	eax
	mov	ecx, DWORD PTR _kUtility$[ebp]
	call	?InitializeArray@CvDatabaseUtility@@QAEXAAPAHIH@Z ; CvDatabaseUtility::InitializeArray

; 1341 : 
; 1342 : 		std::string sqlKey = "Trait_MovesChangeUnitCombats";

	push	OFFSET ??_C@_0BN@PCNKEGGO@Trait_MovesChangeUnitCombats?$AA@
	lea	ecx, DWORD PTR _sqlKey$222254[ebp]
	call	DWORD PTR __imp_??0?$basic_string@DU?$char_traits@D@std@@V?$allocator@D@2@@std@@QAE@PBD@Z
	mov	DWORD PTR __$EHRec$[ebp+8], 4

; 1343 : 		Database::Results* pResults = kUtility.GetResults(sqlKey);

	lea	ecx, DWORD PTR _sqlKey$222254[ebp]
	push	ecx
	mov	ecx, DWORD PTR _kUtility$[ebp]
	call	?GetResults@CvDatabaseUtility@@QAEPAVResults@Database@@ABV?$basic_string@DU?$char_traits@D@std@@V?$allocator@D@2@@std@@@Z ; CvDatabaseUtility::GetResults
	mov	DWORD PTR _pResults$222256[ebp], eax

; 1344 : 		if(pResults == NULL)

	cmp	DWORD PTR _pResults$222256[ebp], 0
	jne	SHORT $LN33@CacheResul

; 1345 : 		{
; 1346 : 			const char* szSQL = "select UnitCombatInfos.ID, MovesChange from Trait_MovesChangeUnitCombats inner join UnitCombatInfos on UnitCombatInfos.Type = UnitCombatType where TraitType = ?;";

	mov	DWORD PTR _szSQL$222258[ebp], OFFSET ??_C@_0KC@CPPIJLAI@select?5UnitCombatInfos?4ID?0?5Moves@

; 1347 : 			pResults = kUtility.PrepareResults(sqlKey, szSQL);

	mov	edx, DWORD PTR _szSQL$222258[ebp]
	push	edx
	lea	eax, DWORD PTR _sqlKey$222254[ebp]
	push	eax
	mov	ecx, DWORD PTR _kUtility$[ebp]
	call	?PrepareResults@CvDatabaseUtility@@QAEPAVResults@Database@@ABV?$basic_string@DU?$char_traits@D@std@@V?$allocator@D@2@@std@@PBD@Z ; CvDatabaseUtility::PrepareResults
	mov	DWORD PTR _pResults$222256[ebp], eax
$LN33@CacheResul:

; 1348 : 		}
; 1349 : 
; 1350 : 		pResults->Bind(1, szTraitType);

	push	1
	mov	ecx, DWORD PTR _szTraitType$[ebp]
	push	ecx
	push	1
	mov	ecx, DWORD PTR _pResults$222256[ebp]
	call	DWORD PTR __imp_?Bind@Results@Database@@QAE_NHPBD_N@Z
$LN32@CacheResul:

; 1351 : 
; 1352 : 		while(pResults->Step())

	mov	ecx, DWORD PTR _pResults$222256[ebp]
	call	DWORD PTR __imp_?Step@Results@Database@@QAE_NXZ
	movzx	edx, al
	test	edx, edx
	je	SHORT $LN31@CacheResul

; 1353 : 		{
; 1354 : 			const int iUnitCombatID = pResults->GetInt(0);

	push	0
	mov	ecx, DWORD PTR _pResults$222256[ebp]
	call	DWORD PTR __imp_?GetInt@Results@Database@@QAEHH@Z
	mov	DWORD PTR _iUnitCombatID$222263[ebp], eax

; 1355 : 			CvAssert(iUnitCombatID > -1 && iUnitCombatID < iNumUnitCombatClasses);
; 1356 : 
; 1357 : 			const int iMovesChange = pResults->GetInt(1);

	push	1
	mov	ecx, DWORD PTR _pResults$222256[ebp]
	call	DWORD PTR __imp_?GetInt@Results@Database@@QAEHH@Z
	mov	DWORD PTR _iMovesChange$222264[ebp], eax

; 1358 : 			m_piMovesChangeUnitCombats[iUnitCombatID] = iMovesChange;

	mov	eax, DWORD PTR _this$[ebp]
	mov	ecx, DWORD PTR [eax+676]
	mov	edx, DWORD PTR _iUnitCombatID$222263[ebp]
	mov	eax, DWORD PTR _iMovesChange$222264[ebp]
	mov	DWORD PTR [ecx+edx*4], eax

; 1359 : 		}

	jmp	SHORT $LN32@CacheResul
$LN31@CacheResul:

; 1360 : 
; 1361 : 		pResults->Reset();

	mov	ecx, DWORD PTR _pResults$222256[ebp]
	call	DWORD PTR __imp_?Reset@Results@Database@@QAE_NXZ

; 1362 : 	}

	mov	DWORD PTR __$EHRec$[ebp+8], -1
	lea	ecx, DWORD PTR _sqlKey$222254[ebp]
	call	DWORD PTR __imp_??1?$basic_string@DU?$char_traits@D@std@@V?$allocator@D@2@@std@@QAE@XZ

; 1363 : 
; 1364 : 	//Populate m_MaintenanceModifierUnitCombats
; 1365 : 	{
; 1366 : 		const int iNumUnitCombatClasses = kUtility.MaxRows("UnitCombatInfos");

	push	OFFSET ??_C@_0BA@NHHFHDEL@UnitCombatInfos?$AA@
	mov	ecx, DWORD PTR _kUtility$[ebp]
	call	?MaxRows@CvDatabaseUtility@@QAEHPBD@Z	; CvDatabaseUtility::MaxRows
	mov	DWORD PTR _iNumUnitCombatClasses$222265[ebp], eax

; 1367 : 		kUtility.InitializeArray(m_piMaintenanceModifierUnitCombats, iNumUnitCombatClasses, 0);

	push	0
	mov	ecx, DWORD PTR _iNumUnitCombatClasses$222265[ebp]
	push	ecx
	mov	edx, DWORD PTR _this$[ebp]
	add	edx, 680				; 000002a8H
	push	edx
	mov	ecx, DWORD PTR _kUtility$[ebp]
	call	?InitializeArray@CvDatabaseUtility@@QAEXAAPAHIH@Z ; CvDatabaseUtility::InitializeArray

; 1368 : 
; 1369 : 		std::string sqlKey = "Trait_MaintenanceModifierUnitCombats";

	push	OFFSET ??_C@_0CF@FJLAILPM@Trait_MaintenanceModifierUnitCom@
	lea	ecx, DWORD PTR _sqlKey$222266[ebp]
	call	DWORD PTR __imp_??0?$basic_string@DU?$char_traits@D@std@@V?$allocator@D@2@@std@@QAE@PBD@Z
	mov	DWORD PTR __$EHRec$[ebp+8], 5

; 1370 : 		Database::Results* pResults = kUtility.GetResults(sqlKey);

	lea	eax, DWORD PTR _sqlKey$222266[ebp]
	push	eax
	mov	ecx, DWORD PTR _kUtility$[ebp]
	call	?GetResults@CvDatabaseUtility@@QAEPAVResults@Database@@ABV?$basic_string@DU?$char_traits@D@std@@V?$allocator@D@2@@std@@@Z ; CvDatabaseUtility::GetResults
	mov	DWORD PTR _pResults$222268[ebp], eax

; 1371 : 		if(pResults == NULL)

	cmp	DWORD PTR _pResults$222268[ebp], 0
	jne	SHORT $LN30@CacheResul

; 1372 : 		{
; 1373 : 			const char* szSQL = "select UnitCombatInfos.ID, MaintenanceModifier from Trait_MaintenanceModifierUnitCombats inner join UnitCombatInfos on UnitCombatInfos.Type = UnitCombatType where TraitType = ?;";

	mov	DWORD PTR _szSQL$222270[ebp], OFFSET ??_C@_0LC@MLJIIHHK@select?5UnitCombatInfos?4ID?0?5Maint@

; 1374 : 			pResults = kUtility.PrepareResults(sqlKey, szSQL);

	mov	ecx, DWORD PTR _szSQL$222270[ebp]
	push	ecx
	lea	edx, DWORD PTR _sqlKey$222266[ebp]
	push	edx
	mov	ecx, DWORD PTR _kUtility$[ebp]
	call	?PrepareResults@CvDatabaseUtility@@QAEPAVResults@Database@@ABV?$basic_string@DU?$char_traits@D@std@@V?$allocator@D@2@@std@@PBD@Z ; CvDatabaseUtility::PrepareResults
	mov	DWORD PTR _pResults$222268[ebp], eax
$LN30@CacheResul:

; 1375 : 		}
; 1376 : 
; 1377 : 		pResults->Bind(1, szTraitType);

	push	1
	mov	eax, DWORD PTR _szTraitType$[ebp]
	push	eax
	push	1
	mov	ecx, DWORD PTR _pResults$222268[ebp]
	call	DWORD PTR __imp_?Bind@Results@Database@@QAE_NHPBD_N@Z
$LN29@CacheResul:

; 1378 : 
; 1379 : 		while(pResults->Step())

	mov	ecx, DWORD PTR _pResults$222268[ebp]
	call	DWORD PTR __imp_?Step@Results@Database@@QAE_NXZ
	movzx	ecx, al
	test	ecx, ecx
	je	SHORT $LN28@CacheResul

; 1380 : 		{
; 1381 : 			const int iUnitCombatID = pResults->GetInt(0);

	push	0
	mov	ecx, DWORD PTR _pResults$222268[ebp]
	call	DWORD PTR __imp_?GetInt@Results@Database@@QAEHH@Z
	mov	DWORD PTR _iUnitCombatID$222275[ebp], eax

; 1382 : 			CvAssert(iUnitCombatID > -1 && iUnitCombatID < iNumUnitCombatClasses);
; 1383 : 
; 1384 : 			const int iMaintenanceModifier = pResults->GetInt(1);

	push	1
	mov	ecx, DWORD PTR _pResults$222268[ebp]
	call	DWORD PTR __imp_?GetInt@Results@Database@@QAEHH@Z
	mov	DWORD PTR _iMaintenanceModifier$222276[ebp], eax

; 1385 : 			m_piMaintenanceModifierUnitCombats[iUnitCombatID] = iMaintenanceModifier;

	mov	edx, DWORD PTR _this$[ebp]
	mov	eax, DWORD PTR [edx+680]
	mov	ecx, DWORD PTR _iUnitCombatID$222275[ebp]
	mov	edx, DWORD PTR _iMaintenanceModifier$222276[ebp]
	mov	DWORD PTR [eax+ecx*4], edx

; 1386 : 		}

	jmp	SHORT $LN29@CacheResul
$LN28@CacheResul:

; 1387 : 
; 1388 : 		pResults->Reset();

	mov	ecx, DWORD PTR _pResults$222268[ebp]
	call	DWORD PTR __imp_?Reset@Results@Database@@QAE_NXZ

; 1389 : 	}

	mov	DWORD PTR __$EHRec$[ebp+8], -1
	lea	ecx, DWORD PTR _sqlKey$222266[ebp]
	call	DWORD PTR __imp_??1?$basic_string@DU?$char_traits@D@std@@V?$allocator@D@2@@std@@QAE@XZ

; 1390 : 
; 1391 : 	//ImprovementYieldChanges
; 1392 : 	{
; 1393 : #ifdef AUI_DATABASE_UTILITY_PROPER_2D_ALLOCATION_AND_DESTRUCTION
; 1394 : 		kUtility.Initialize2DArray(m_ppiImprovementYieldChanges.first, "Improvements", "Yields");
; 1395 : 		m_ppiImprovementYieldChanges.second = kUtility.MaxRows("Improvements");
; 1396 : #else
; 1397 : 		kUtility.Initialize2DArray(m_ppiImprovementYieldChanges, "Improvements", "Yields");

	push	0
	push	OFFSET ??_C@_06JAMLCLDI@Yields?$AA@
	push	OFFSET ??_C@_0N@CJDAHDJO@Improvements?$AA@
	mov	eax, DWORD PTR _this$[ebp]
	add	eax, 684				; 000002acH
	push	eax
	mov	ecx, DWORD PTR _kUtility$[ebp]
	call	?Initialize2DArray@CvDatabaseUtility@@QAE_NAAPAPAHPBD1H@Z ; CvDatabaseUtility::Initialize2DArray

; 1398 : #endif
; 1399 : 
