; Listing generated by Microsoft (R) Optimizing Compiler Version 15.00.30729.01 

	TITLE	D:\sources\Lekmod_git\checkout\LEKMOD_DLL\CvGameCoreDLL_Expansion2\CvTypes.cpp
	.686P
	.XMM
	include listing.inc
	.model	flat

INCLUDELIB MSVCRT
INCLUDELIB OLDNAMES

PUBLIC	?s_eARTIFACT_ANCIENT_RUIN@@3W4GreatWorkArtifactClass@@A ; s_eARTIFACT_ANCIENT_RUIN
PUBLIC	?s_eARTIFACT_BARBARIAN_CAMP@@3W4GreatWorkArtifactClass@@A ; s_eARTIFACT_BARBARIAN_CAMP
PUBLIC	?s_eARTIFACT_BATTLE_RANGED@@3W4GreatWorkArtifactClass@@A ; s_eARTIFACT_BATTLE_RANGED
PUBLIC	?s_eARTIFACT_BATTLE_MELEE@@3W4GreatWorkArtifactClass@@A ; s_eARTIFACT_BATTLE_MELEE
PUBLIC	?s_eARTIFACT_RAZED_CITY@@3W4GreatWorkArtifactClass@@A ; s_eARTIFACT_RAZED_CITY
PUBLIC	?s_eARTIFACT_WRITING@@3W4GreatWorkArtifactClass@@A ; s_eARTIFACT_WRITING
PUBLIC	?s_eGREAT_WORK_SLOT_ART_ARTIFACT@@3W4GreatWorkSlotType@@A ; s_eGREAT_WORK_SLOT_ART_ARTIFACT
PUBLIC	?s_eGREAT_WORK_SLOT_LITERATURE@@3W4GreatWorkSlotType@@A ; s_eGREAT_WORK_SLOT_LITERATURE
PUBLIC	?s_eGREAT_WORK_SLOT_MUSIC@@3W4GreatWorkSlotType@@A ; s_eGREAT_WORK_SLOT_MUSIC
PUBLIC	?s_eMISSION_MOVE_TO@@3W4MissionTypes@@A		; s_eMISSION_MOVE_TO
PUBLIC	?s_eMISSION_ROUTE_TO@@3W4MissionTypes@@A	; s_eMISSION_ROUTE_TO
PUBLIC	?s_eMISSION_MOVE_TO_UNIT@@3W4MissionTypes@@A	; s_eMISSION_MOVE_TO_UNIT
PUBLIC	?s_eMISSION_SWAP_UNITS@@3W4MissionTypes@@A	; s_eMISSION_SWAP_UNITS
PUBLIC	?s_eMISSION_SKIP@@3W4MissionTypes@@A		; s_eMISSION_SKIP
PUBLIC	?s_eMISSION_SLEEP@@3W4MissionTypes@@A		; s_eMISSION_SLEEP
PUBLIC	?s_eMISSION_ALERT@@3W4MissionTypes@@A		; s_eMISSION_ALERT
PUBLIC	?s_eMISSION_FORTIFY@@3W4MissionTypes@@A		; s_eMISSION_FORTIFY
PUBLIC	?s_eMISSION_GARRISON@@3W4MissionTypes@@A	; s_eMISSION_GARRISON
PUBLIC	?s_eMISSION_SET_UP_FOR_RANGED_ATTACK@@3W4MissionTypes@@A ; s_eMISSION_SET_UP_FOR_RANGED_ATTACK
PUBLIC	?s_eMISSION_EMBARK@@3W4MissionTypes@@A		; s_eMISSION_EMBARK
PUBLIC	?s_eMISSION_DISEMBARK@@3W4MissionTypes@@A	; s_eMISSION_DISEMBARK
PUBLIC	?s_eMISSION_AIRPATROL@@3W4MissionTypes@@A	; s_eMISSION_AIRPATROL
PUBLIC	?s_eMISSION_HEAL@@3W4MissionTypes@@A		; s_eMISSION_HEAL
PUBLIC	?s_eMISSION_AIRLIFT@@3W4MissionTypes@@A		; s_eMISSION_AIRLIFT
PUBLIC	?s_eMISSION_NUKE@@3W4MissionTypes@@A		; s_eMISSION_NUKE
PUBLIC	?s_eMISSION_PARADROP@@3W4MissionTypes@@A	; s_eMISSION_PARADROP
PUBLIC	?s_eMISSION_AIR_SWEEP@@3W4MissionTypes@@A	; s_eMISSION_AIR_SWEEP
PUBLIC	?s_eMISSION_REBASE@@3W4MissionTypes@@A		; s_eMISSION_REBASE
PUBLIC	?s_eMISSION_RANGE_ATTACK@@3W4MissionTypes@@A	; s_eMISSION_RANGE_ATTACK
PUBLIC	?s_eMISSION_PILLAGE@@3W4MissionTypes@@A		; s_eMISSION_PILLAGE
PUBLIC	?s_eMISSION_FOUND@@3W4MissionTypes@@A		; s_eMISSION_FOUND
PUBLIC	?s_eMISSION_JOIN@@3W4MissionTypes@@A		; s_eMISSION_JOIN
PUBLIC	?s_eMISSION_CONSTRUCT@@3W4MissionTypes@@A	; s_eMISSION_CONSTRUCT
PUBLIC	?s_eMISSION_DISCOVER@@3W4MissionTypes@@A	; s_eMISSION_DISCOVER
PUBLIC	?s_eMISSION_HURRY@@3W4MissionTypes@@A		; s_eMISSION_HURRY
PUBLIC	?s_eMISSION_TRADE@@3W4MissionTypes@@A		; s_eMISSION_TRADE
PUBLIC	?s_eMISSION_BUY_CITY_STATE@@3W4MissionTypes@@A	; s_eMISSION_BUY_CITY_STATE
PUBLIC	?s_eMISSION_REPAIR_FLEET@@3W4MissionTypes@@A	; s_eMISSION_REPAIR_FLEET
PUBLIC	?s_eMISSION_SPACESHIP@@3W4MissionTypes@@A	; s_eMISSION_SPACESHIP
PUBLIC	?s_eMISSION_CULTURE_BOMB@@3W4MissionTypes@@A	; s_eMISSION_CULTURE_BOMB
PUBLIC	?s_eMISSION_FOUND_RELIGION@@3W4MissionTypes@@A	; s_eMISSION_FOUND_RELIGION
PUBLIC	?s_eMISSION_GOLDEN_AGE@@3W4MissionTypes@@A	; s_eMISSION_GOLDEN_AGE
PUBLIC	?s_eMISSION_BUILD@@3W4MissionTypes@@A		; s_eMISSION_BUILD
PUBLIC	?s_eMISSION_LEAD@@3W4MissionTypes@@A		; s_eMISSION_LEAD
PUBLIC	?s_eMISSION_DIE_ANIMATION@@3W4MissionTypes@@A	; s_eMISSION_DIE_ANIMATION
PUBLIC	?s_eMISSION_BEGIN_COMBAT@@3W4MissionTypes@@A	; s_eMISSION_BEGIN_COMBAT
PUBLIC	?s_eMISSION_END_COMBAT@@3W4MissionTypes@@A	; s_eMISSION_END_COMBAT
PUBLIC	?s_eMISSION_AIRSTRIKE@@3W4MissionTypes@@A	; s_eMISSION_AIRSTRIKE
PUBLIC	?s_eMISSION_SURRENDER@@3W4MissionTypes@@A	; s_eMISSION_SURRENDER
PUBLIC	?s_eMISSION_CAPTURED@@3W4MissionTypes@@A	; s_eMISSION_CAPTURED
PUBLIC	?s_eMISSION_IDLE@@3W4MissionTypes@@A		; s_eMISSION_IDLE
PUBLIC	?s_eMISSION_DIE@@3W4MissionTypes@@A		; s_eMISSION_DIE
PUBLIC	?s_eMISSION_DAMAGE@@3W4MissionTypes@@A		; s_eMISSION_DAMAGE
PUBLIC	?s_eMISSION_MULTI_SELECT@@3W4MissionTypes@@A	; s_eMISSION_MULTI_SELECT
PUBLIC	?s_eMISSION_MULTI_DESELECT@@3W4MissionTypes@@A	; s_eMISSION_MULTI_DESELECT
PUBLIC	?s_eMISSION_WAIT_FOR@@3W4MissionTypes@@A	; s_eMISSION_WAIT_FOR
PUBLIC	?s_eMISSION_SPREAD_RELIGION@@3W4MissionTypes@@A	; s_eMISSION_SPREAD_RELIGION
PUBLIC	?s_eMISSION_ENHANCE_RELIGION@@3W4MissionTypes@@A ; s_eMISSION_ENHANCE_RELIGION
PUBLIC	?s_eMISSION_REMOVE_HERESY@@3W4MissionTypes@@A	; s_eMISSION_REMOVE_HERESY
PUBLIC	?s_eMISSION_ESTABLISH_TRADE_ROUTE@@3W4MissionTypes@@A ; s_eMISSION_ESTABLISH_TRADE_ROUTE
PUBLIC	?s_eMISSION_PLUNDER_TRADE_ROUTE@@3W4MissionTypes@@A ; s_eMISSION_PLUNDER_TRADE_ROUTE
PUBLIC	?s_eMISSION_GREAT_WORK@@3W4MissionTypes@@A	; s_eMISSION_GREAT_WORK
PUBLIC	?s_eMISSION_CHANGE_TRADE_UNIT_HOME_CITY@@3W4MissionTypes@@A ; s_eMISSION_CHANGE_TRADE_UNIT_HOME_CITY
PUBLIC	?s_eMISSION_SELL_EXOTIC_GOODS@@3W4MissionTypes@@A ; s_eMISSION_SELL_EXOTIC_GOODS
PUBLIC	?s_eMISSION_GIVE_POLICIES@@3W4MissionTypes@@A	; s_eMISSION_GIVE_POLICIES
PUBLIC	?s_eMISSION_ONE_SHOT_TOURISM@@3W4MissionTypes@@A ; s_eMISSION_ONE_SHOT_TOURISM
PUBLIC	?s_eMISSION_CHANGE_ADMIRAL_PORT@@3W4MissionTypes@@A ; s_eMISSION_CHANGE_ADMIRAL_PORT
PUBLIC	?s_uiNUM_MISSION_TYPES@@3IA			; s_uiNUM_MISSION_TYPES
_BSS	SEGMENT
?s_eARTIFACT_ANCIENT_RUIN@@3W4GreatWorkArtifactClass@@A DD 01H DUP (?) ; s_eARTIFACT_ANCIENT_RUIN
?s_eARTIFACT_BARBARIAN_CAMP@@3W4GreatWorkArtifactClass@@A DD 01H DUP (?) ; s_eARTIFACT_BARBARIAN_CAMP
?s_eARTIFACT_BATTLE_RANGED@@3W4GreatWorkArtifactClass@@A DD 01H DUP (?) ; s_eARTIFACT_BATTLE_RANGED
?s_eARTIFACT_BATTLE_MELEE@@3W4GreatWorkArtifactClass@@A DD 01H DUP (?) ; s_eARTIFACT_BATTLE_MELEE
?s_eARTIFACT_RAZED_CITY@@3W4GreatWorkArtifactClass@@A DD 01H DUP (?) ; s_eARTIFACT_RAZED_CITY
?s_eARTIFACT_WRITING@@3W4GreatWorkArtifactClass@@A DD 01H DUP (?) ; s_eARTIFACT_WRITING
?s_uiNUM_MISSION_TYPES@@3IA DD 01H DUP (?)		; s_uiNUM_MISSION_TYPES
_BSS	ENDS
_DATA	SEGMENT
?s_eGREAT_WORK_SLOT_ART_ARTIFACT@@3W4GreatWorkSlotType@@A DD 0ffffffffH ; s_eGREAT_WORK_SLOT_ART_ARTIFACT
?s_eGREAT_WORK_SLOT_LITERATURE@@3W4GreatWorkSlotType@@A DD 0ffffffffH ; s_eGREAT_WORK_SLOT_LITERATURE
?s_eGREAT_WORK_SLOT_MUSIC@@3W4GreatWorkSlotType@@A DD 0ffffffffH ; s_eGREAT_WORK_SLOT_MUSIC
?s_eMISSION_MOVE_TO@@3W4MissionTypes@@A DD 0ffffffffH	; s_eMISSION_MOVE_TO
?s_eMISSION_ROUTE_TO@@3W4MissionTypes@@A DD 0ffffffffH	; s_eMISSION_ROUTE_TO
?s_eMISSION_MOVE_TO_UNIT@@3W4MissionTypes@@A DD 0ffffffffH ; s_eMISSION_MOVE_TO_UNIT
?s_eMISSION_SWAP_UNITS@@3W4MissionTypes@@A DD 0ffffffffH ; s_eMISSION_SWAP_UNITS
?s_eMISSION_SKIP@@3W4MissionTypes@@A DD 0ffffffffH	; s_eMISSION_SKIP
?s_eMISSION_SLEEP@@3W4MissionTypes@@A DD 0ffffffffH	; s_eMISSION_SLEEP
?s_eMISSION_ALERT@@3W4MissionTypes@@A DD 0ffffffffH	; s_eMISSION_ALERT
?s_eMISSION_FORTIFY@@3W4MissionTypes@@A DD 0ffffffffH	; s_eMISSION_FORTIFY
?s_eMISSION_GARRISON@@3W4MissionTypes@@A DD 0ffffffffH	; s_eMISSION_GARRISON
?s_eMISSION_SET_UP_FOR_RANGED_ATTACK@@3W4MissionTypes@@A DD 0ffffffffH ; s_eMISSION_SET_UP_FOR_RANGED_ATTACK
?s_eMISSION_EMBARK@@3W4MissionTypes@@A DD 0ffffffffH	; s_eMISSION_EMBARK
?s_eMISSION_DISEMBARK@@3W4MissionTypes@@A DD 0ffffffffH	; s_eMISSION_DISEMBARK
?s_eMISSION_AIRPATROL@@3W4MissionTypes@@A DD 0ffffffffH	; s_eMISSION_AIRPATROL
?s_eMISSION_HEAL@@3W4MissionTypes@@A DD 0ffffffffH	; s_eMISSION_HEAL
?s_eMISSION_AIRLIFT@@3W4MissionTypes@@A DD 0ffffffffH	; s_eMISSION_AIRLIFT
?s_eMISSION_NUKE@@3W4MissionTypes@@A DD 0ffffffffH	; s_eMISSION_NUKE
?s_eMISSION_PARADROP@@3W4MissionTypes@@A DD 0ffffffffH	; s_eMISSION_PARADROP
?s_eMISSION_AIR_SWEEP@@3W4MissionTypes@@A DD 0ffffffffH	; s_eMISSION_AIR_SWEEP
?s_eMISSION_REBASE@@3W4MissionTypes@@A DD 0ffffffffH	; s_eMISSION_REBASE
?s_eMISSION_RANGE_ATTACK@@3W4MissionTypes@@A DD 0ffffffffH ; s_eMISSION_RANGE_ATTACK
?s_eMISSION_PILLAGE@@3W4MissionTypes@@A DD 0ffffffffH	; s_eMISSION_PILLAGE
?s_eMISSION_FOUND@@3W4MissionTypes@@A DD 0ffffffffH	; s_eMISSION_FOUND
?s_eMISSION_JOIN@@3W4MissionTypes@@A DD 0ffffffffH	; s_eMISSION_JOIN
?s_eMISSION_CONSTRUCT@@3W4MissionTypes@@A DD 0ffffffffH	; s_eMISSION_CONSTRUCT
?s_eMISSION_DISCOVER@@3W4MissionTypes@@A DD 0ffffffffH	; s_eMISSION_DISCOVER
?s_eMISSION_HURRY@@3W4MissionTypes@@A DD 0ffffffffH	; s_eMISSION_HURRY
?s_eMISSION_TRADE@@3W4MissionTypes@@A DD 0ffffffffH	; s_eMISSION_TRADE
?s_eMISSION_BUY_CITY_STATE@@3W4MissionTypes@@A DD 0ffffffffH ; s_eMISSION_BUY_CITY_STATE
?s_eMISSION_REPAIR_FLEET@@3W4MissionTypes@@A DD 0ffffffffH ; s_eMISSION_REPAIR_FLEET
?s_eMISSION_SPACESHIP@@3W4MissionTypes@@A DD 0ffffffffH	; s_eMISSION_SPACESHIP
?s_eMISSION_CULTURE_BOMB@@3W4MissionTypes@@A DD 0ffffffffH ; s_eMISSION_CULTURE_BOMB
?s_eMISSION_FOUND_RELIGION@@3W4MissionTypes@@A DD 0ffffffffH ; s_eMISSION_FOUND_RELIGION
?s_eMISSION_GOLDEN_AGE@@3W4MissionTypes@@A DD 0ffffffffH ; s_eMISSION_GOLDEN_AGE
?s_eMISSION_BUILD@@3W4MissionTypes@@A DD 0ffffffffH	; s_eMISSION_BUILD
?s_eMISSION_LEAD@@3W4MissionTypes@@A DD 0ffffffffH	; s_eMISSION_LEAD
?s_eMISSION_DIE_ANIMATION@@3W4MissionTypes@@A DD 0ffffffffH ; s_eMISSION_DIE_ANIMATION
?s_eMISSION_BEGIN_COMBAT@@3W4MissionTypes@@A DD 0ffffffffH ; s_eMISSION_BEGIN_COMBAT
?s_eMISSION_END_COMBAT@@3W4MissionTypes@@A DD 0ffffffffH ; s_eMISSION_END_COMBAT
?s_eMISSION_AIRSTRIKE@@3W4MissionTypes@@A DD 0ffffffffH	; s_eMISSION_AIRSTRIKE
?s_eMISSION_SURRENDER@@3W4MissionTypes@@A DD 0ffffffffH	; s_eMISSION_SURRENDER
?s_eMISSION_CAPTURED@@3W4MissionTypes@@A DD 0ffffffffH	; s_eMISSION_CAPTURED
?s_eMISSION_IDLE@@3W4MissionTypes@@A DD 0ffffffffH	; s_eMISSION_IDLE
?s_eMISSION_DIE@@3W4MissionTypes@@A DD 0ffffffffH	; s_eMISSION_DIE
?s_eMISSION_DAMAGE@@3W4MissionTypes@@A DD 0ffffffffH	; s_eMISSION_DAMAGE
?s_eMISSION_MULTI_SELECT@@3W4MissionTypes@@A DD 0ffffffffH ; s_eMISSION_MULTI_SELECT
?s_eMISSION_MULTI_DESELECT@@3W4MissionTypes@@A DD 0ffffffffH ; s_eMISSION_MULTI_DESELECT
?s_eMISSION_WAIT_FOR@@3W4MissionTypes@@A DD 0ffffffffH	; s_eMISSION_WAIT_FOR
?s_eMISSION_SPREAD_RELIGION@@3W4MissionTypes@@A DD 0ffffffffH ; s_eMISSION_SPREAD_RELIGION
?s_eMISSION_ENHANCE_RELIGION@@3W4MissionTypes@@A DD 0ffffffffH ; s_eMISSION_ENHANCE_RELIGION
?s_eMISSION_REMOVE_HERESY@@3W4MissionTypes@@A DD 0ffffffffH ; s_eMISSION_REMOVE_HERESY
?s_eMISSION_ESTABLISH_TRADE_ROUTE@@3W4MissionTypes@@A DD 0ffffffffH ; s_eMISSION_ESTABLISH_TRADE_ROUTE
?s_eMISSION_PLUNDER_TRADE_ROUTE@@3W4MissionTypes@@A DD 0ffffffffH ; s_eMISSION_PLUNDER_TRADE_ROUTE
?s_eMISSION_GREAT_WORK@@3W4MissionTypes@@A DD 0ffffffffH ; s_eMISSION_GREAT_WORK
?s_eMISSION_CHANGE_TRADE_UNIT_HOME_CITY@@3W4MissionTypes@@A DD 0ffffffffH ; s_eMISSION_CHANGE_TRADE_UNIT_HOME_CITY
?s_eMISSION_SELL_EXOTIC_GOODS@@3W4MissionTypes@@A DD 0ffffffffH ; s_eMISSION_SELL_EXOTIC_GOODS
?s_eMISSION_GIVE_POLICIES@@3W4MissionTypes@@A DD 0ffffffffH ; s_eMISSION_GIVE_POLICIES
?s_eMISSION_ONE_SHOT_TOURISM@@3W4MissionTypes@@A DD 0ffffffffH ; s_eMISSION_ONE_SHOT_TOURISM
?s_eMISSION_CHANGE_ADMIRAL_PORT@@3W4MissionTypes@@A DD 0ffffffffH ; s_eMISSION_CHANGE_ADMIRAL_PORT
_DATA	ENDS
PUBLIC	??1?$pair@$$CBV?$basic_string@DU?$char_traits@D@std@@V?$allocator@D@2@@std@@PAW4MissionTypes@@@std@@QAE@XZ ; std::pair<std::basic_string<char,std::char_traits<char>,std::allocator<char> > const ,enum MissionTypes *>::~pair<std::basic_string<char,std::char_traits<char>,std::allocator<char> > const ,enum MissionTypes *>
PUBLIC	??1?$pair@V?$basic_string@DU?$char_traits@D@std@@V?$allocator@D@2@@std@@PAW4MissionTypes@@@std@@QAE@XZ ; std::pair<std::basic_string<char,std::char_traits<char>,std::allocator<char> >,enum MissionTypes *>::~pair<std::basic_string<char,std::char_traits<char>,std::allocator<char> >,enum MissionTypes *>
PUBLIC	??1?$unordered_map@V?$basic_string@DU?$char_traits@D@std@@V?$allocator@D@2@@std@@PAW4MissionTypes@@V?$hash@V?$basic_string@DU?$char_traits@D@std@@V?$allocator@D@2@@std@@@tr1@2@U?$equal_to@V?$basic_string@DU?$char_traits@D@std@@V?$allocator@D@2@@std@@@2@V?$allocator@U?$pair@$$CBV?$basic_string@DU?$char_traits@D@std@@V?$allocator@D@2@@std@@PAW4MissionTypes@@@std@@@2@@tr1@std@@QAE@XZ ; std::tr1::unordered_map<std::basic_string<char,std::char_traits<char>,std::allocator<char> >,enum MissionTypes *,std::tr1::hash<std::basic_string<char,std::char_traits<char>,std::allocator<char> > >,std::equal_to<std::basic_string<char,std::char_traits<char>,std::allocator<char> > >,std::allocator<std::pair<std::basic_string<char,std::char_traits<char>,std::allocator<char> > const ,enum MissionTypes *> > >::~unordered_map<std::basic_string<char,std::char_traits<char>,std::allocator<char> >,enum MissionTypes *,std::tr1::hash<std::basic_string<char,std::char_traits<char>,std::allocator<char> > >,std::equal_to<std::basic_string<char,std::char_traits<char>,std::allocator<char> > >,std::allocator<std::pair<std::basic_string<char,std::char_traits<char>,std::allocator<char> > const ,enum MissionTypes *> > >
PUBLIC	??1?$_List_val@U?$pair@$$CBV?$basic_string@DU?$char_traits@D@std@@V?$allocator@D@2@@std@@PAW4GreatWorkSlotType@@@std@@V?$allocator@U?$pair@$$CBV?$basic_string@DU?$char_traits@D@std@@V?$allocator@D@2@@std@@PAW4GreatWorkSlotType@@@std@@@2@@std@@QAE@XZ ; std::_List_val<std::pair<std::basic_string<char,std::char_traits<char>,std::allocator<char> > const ,enum GreatWorkSlotType *>,std::allocator<std::pair<std::basic_string<char,std::char_traits<char>,std::allocator<char> > const ,enum GreatWorkSlotType *> > >::~_List_val<std::pair<std::basic_string<char,std::char_traits<char>,std::allocator<char> > const ,enum GreatWorkSlotType *>,std::allocator<std::pair<std::basic_string<char,std::char_traits<char>,std::allocator<char> > const ,enum GreatWorkSlotType *> > >
PUBLIC	??1?$_Vector_val@V?$_Iterator@$0A@@?$list@U?$pair@$$CBV?$basic_string@DU?$char_traits@D@std@@V?$allocator@D@2@@std@@PAW4GreatWorkSlotType@@@std@@V?$allocator@U?$pair@$$CBV?$basic_string@DU?$char_traits@D@std@@V?$allocator@D@2@@std@@PAW4GreatWorkSlotType@@@std@@@2@@std@@V?$allocator@V?$_Iterator@$0A@@?$list@U?$pair@$$CBV?$basic_string@DU?$char_traits@D@std@@V?$allocator@D@2@@std@@PAW4GreatWorkSlotType@@@std@@V?$allocator@U?$pair@$$CBV?$basic_string@DU?$char_traits@D@std@@V?$allocator@D@2@@std@@PAW4GreatWorkSlotType@@@std@@@2@@std@@@3@@std@@QAE@XZ ; std::_Vector_val<std::list<std::pair<std::basic_string<char,std::char_traits<char>,std::allocator<char> > const ,enum GreatWorkSlotType *>,std::allocator<std::pair<std::basic_string<char,std::char_traits<char>,std::allocator<char> > const ,enum GreatWorkSlotType *> > >::_Iterator<0>,std::allocator<std::list<std::pair<std::basic_string<char,std::char_traits<char>,std::allocator<char> > const ,enum GreatWorkSlotType *>,std::allocator<std::pair<std::basic_string<char,std::char_traits<char>,std::allocator<char> > const ,enum GreatWorkSlotType *> > >::_Iterator<0> > >::~_Vector_val<std::list<std::pair<std::basic_string<char,std::char_traits<char>,std::allocator<char> > const ,enum GreatWorkSlotType *>,std::allocator<std::pair<std::basic_string<char,std::char_traits<char>,std::allocator<char> > const ,enum GreatWorkSlotType *> > >::_Iterator<0>,std::allocator<std::list<std::pair<std::basic_string<char,std::char_traits<char>,std::allocator<char> > const ,enum GreatWorkSlotType *>,std::allocator<std::pair<std::basic_string<char,std::char_traits<char>,std::allocator<char> > const ,enum GreatWorkSlotType *> > >::_Iterator<0> > >
PUBLIC	??1?$list@U?$pair@$$CBV?$basic_string@DU?$char_traits@D@std@@V?$allocator@D@2@@std@@PAW4GreatWorkSlotType@@@std@@V?$allocator@U?$pair@$$CBV?$basic_string@DU?$char_traits@D@std@@V?$allocator@D@2@@std@@PAW4GreatWorkSlotType@@@std@@@2@@std@@QAE@XZ ; std::list<std::pair<std::basic_string<char,std::char_traits<char>,std::allocator<char> > const ,enum GreatWorkSlotType *>,std::allocator<std::pair<std::basic_string<char,std::char_traits<char>,std::allocator<char> > const ,enum GreatWorkSlotType *> > >::~list<std::pair<std::basic_string<char,std::char_traits<char>,std::allocator<char> > const ,enum GreatWorkSlotType *>,std::allocator<std::pair<std::basic_string<char,std::char_traits<char>,std::allocator<char> > const ,enum GreatWorkSlotType *> > >
PUBLIC	??1?$pair@$$CBV?$basic_string@DU?$char_traits@D@std@@V?$allocator@D@2@@std@@PAW4GreatWorkSlotType@@@std@@QAE@XZ ; std::pair<std::basic_string<char,std::char_traits<char>,std::allocator<char> > const ,enum GreatWorkSlotType *>::~pair<std::basic_string<char,std::char_traits<char>,std::allocator<char> > const ,enum GreatWorkSlotType *>
PUBLIC	??1?$pair@V?$basic_string@DU?$char_traits@D@std@@V?$allocator@D@2@@std@@PAW4GreatWorkSlotType@@@std@@QAE@XZ ; std::pair<std::basic_string<char,std::char_traits<char>,std::allocator<char> >,enum GreatWorkSlotType *>::~pair<std::basic_string<char,std::char_traits<char>,std::allocator<char> >,enum GreatWorkSlotType *>
PUBLIC	??1?$unordered_map@V?$basic_string@DU?$char_traits@D@std@@V?$allocator@D@2@@std@@PAW4GreatWorkSlotType@@V?$hash@V?$basic_string@DU?$char_traits@D@std@@V?$allocator@D@2@@std@@@tr1@2@U?$equal_to@V?$basic_string@DU?$char_traits@D@std@@V?$allocator@D@2@@std@@@2@V?$allocator@U?$pair@$$CBV?$basic_string@DU?$char_traits@D@std@@V?$allocator@D@2@@std@@PAW4GreatWorkSlotType@@@std@@@2@@tr1@std@@QAE@XZ ; std::tr1::unordered_map<std::basic_string<char,std::char_traits<char>,std::allocator<char> >,enum GreatWorkSlotType *,std::tr1::hash<std::basic_string<char,std::char_traits<char>,std::allocator<char> > >,std::equal_to<std::basic_string<char,std::char_traits<char>,std::allocator<char> > >,std::allocator<std::pair<std::basic_string<char,std::char_traits<char>,std::allocator<char> > const ,enum GreatWorkSlotType *> > >::~unordered_map<std::basic_string<char,std::char_traits<char>,std::allocator<char> >,enum GreatWorkSlotType *,std::tr1::hash<std::basic_string<char,std::char_traits<char>,std::allocator<char> > >,std::equal_to<std::basic_string<char,std::char_traits<char>,std::allocator<char> > >,std::allocator<std::pair<std::basic_string<char,std::char_traits<char>,std::allocator<char> > const ,enum GreatWorkSlotType *> > >
PUBLIC	??1?$_List_val@U?$pair@$$CBV?$basic_string@DU?$char_traits@D@std@@V?$allocator@D@2@@std@@PAW4GreatWorkArtifactClass@@@std@@V?$allocator@U?$pair@$$CBV?$basic_string@DU?$char_traits@D@std@@V?$allocator@D@2@@std@@PAW4GreatWorkArtifactClass@@@std@@@2@@std@@QAE@XZ ; std::_List_val<std::pair<std::basic_string<char,std::char_traits<char>,std::allocator<char> > const ,enum GreatWorkArtifactClass *>,std::allocator<std::pair<std::basic_string<char,std::char_traits<char>,std::allocator<char> > const ,enum GreatWorkArtifactClass *> > >::~_List_val<std::pair<std::basic_string<char,std::char_traits<char>,std::allocator<char> > const ,enum GreatWorkArtifactClass *>,std::allocator<std::pair<std::basic_string<char,std::char_traits<char>,std::allocator<char> > const ,enum GreatWorkArtifactClass *> > >
PUBLIC	??1?$_Vector_val@V?$_Iterator@$0A@@?$list@U?$pair@$$CBV?$basic_string@DU?$char_traits@D@std@@V?$allocator@D@2@@std@@PAW4GreatWorkArtifactClass@@@std@@V?$allocator@U?$pair@$$CBV?$basic_string@DU?$char_traits@D@std@@V?$allocator@D@2@@std@@PAW4GreatWorkArtifactClass@@@std@@@2@@std@@V?$allocator@V?$_Iterator@$0A@@?$list@U?$pair@$$CBV?$basic_string@DU?$char_traits@D@std@@V?$allocator@D@2@@std@@PAW4GreatWorkArtifactClass@@@std@@V?$allocator@U?$pair@$$CBV?$basic_string@DU?$char_traits@D@std@@V?$allocator@D@2@@std@@PAW4GreatWorkArtifactClass@@@std@@@2@@std@@@3@@std@@QAE@XZ ; std::_Vector_val<std::list<std::pair<std::basic_string<char,std::char_traits<char>,std::allocator<char> > const ,enum GreatWorkArtifactClass *>,std::allocator<std::pair<std::basic_string<char,std::char_traits<char>,std::allocator<char> > const ,enum GreatWorkArtifactClass *> > >::_Iterator<0>,std::allocator<std::list<std::pair<std::basic_string<char,std::char_traits<char>,std::allocator<char> > const ,enum GreatWorkArtifactClass *>,std::allocator<std::pair<std::basic_string<char,std::char_traits<char>,std::allocator<char> > const ,enum GreatWorkArtifactClass *> > >::_Iterator<0> > >::~_Vector_val<std::list<std::pair<std::basic_string<char,std::char_traits<char>,std::allocator<char> > const ,enum GreatWorkArtifactClass *>,std::allocator<std::pair<std::basic_string<char,std::char_traits<char>,std::allocator<char> > const ,enum GreatWorkArtifactClass *> > >::_Iterator<0>,std::allocator<std::list<std::pair<std::basic_string<char,std::char_traits<char>,std::allocator<char> > const ,enum GreatWorkArtifactClass *>,std::allocator<std::pair<std::basic_string<char,std::char_traits<char>,std::allocator<char> > const ,enum GreatWorkArtifactClass *> > >::_Iterator<0> > >
PUBLIC	??1?$list@U?$pair@$$CBV?$basic_string@DU?$char_traits@D@std@@V?$allocator@D@2@@std@@PAW4GreatWorkArtifactClass@@@std@@V?$allocator@U?$pair@$$CBV?$basic_string@DU?$char_traits@D@std@@V?$allocator@D@2@@std@@PAW4GreatWorkArtifactClass@@@std@@@2@@std@@QAE@XZ ; std::list<std::pair<std::basic_string<char,std::char_traits<char>,std::allocator<char> > const ,enum GreatWorkArtifactClass *>,std::allocator<std::pair<std::basic_string<char,std::char_traits<char>,std::allocator<char> > const ,enum GreatWorkArtifactClass *> > >::~list<std::pair<std::basic_string<char,std::char_traits<char>,std::allocator<char> > const ,enum GreatWorkArtifactClass *>,std::allocator<std::pair<std::basic_string<char,std::char_traits<char>,std::allocator<char> > const ,enum GreatWorkArtifactClass *> > >
PUBLIC	??1?$pair@$$CBV?$basic_string@DU?$char_traits@D@std@@V?$allocator@D@2@@std@@PAW4GreatWorkArtifactClass@@@std@@QAE@XZ ; std::pair<std::basic_string<char,std::char_traits<char>,std::allocator<char> > const ,enum GreatWorkArtifactClass *>::~pair<std::basic_string<char,std::char_traits<char>,std::allocator<char> > const ,enum GreatWorkArtifactClass *>
PUBLIC	??1?$pair@V?$basic_string@DU?$char_traits@D@std@@V?$allocator@D@2@@std@@PAW4GreatWorkArtifactClass@@@std@@QAE@XZ ; std::pair<std::basic_string<char,std::char_traits<char>,std::allocator<char> >,enum GreatWorkArtifactClass *>::~pair<std::basic_string<char,std::char_traits<char>,std::allocator<char> >,enum GreatWorkArtifactClass *>
PUBLIC	??1?$unordered_map@V?$basic_string@DU?$char_traits@D@std@@V?$allocator@D@2@@std@@PAW4GreatWorkArtifactClass@@V?$hash@V?$basic_string@DU?$char_traits@D@std@@V?$allocator@D@2@@std@@@tr1@2@U?$equal_to@V?$basic_string@DU?$char_traits@D@std@@V?$allocator@D@2@@std@@@2@V?$allocator@U?$pair@$$CBV?$basic_string@DU?$char_traits@D@std@@V?$allocator@D@2@@std@@PAW4GreatWorkArtifactClass@@@std@@@2@@tr1@std@@QAE@XZ ; std::tr1::unordered_map<std::basic_string<char,std::char_traits<char>,std::allocator<char> >,enum GreatWorkArtifactClass *,std::tr1::hash<std::basic_string<char,std::char_traits<char>,std::allocator<char> > >,std::equal_to<std::basic_string<char,std::char_traits<char>,std::allocator<char> > >,std::allocator<std::pair<std::basic_string<char,std::char_traits<char>,std::allocator<char> > const ,enum GreatWorkArtifactClass *> > >::~unordered_map<std::basic_string<char,std::char_traits<char>,std::allocator<char> >,enum GreatWorkArtifactClass *,std::tr1::hash<std::basic_string<char,std::char_traits<char>,std::allocator<char> > >,std::equal_to<std::basic_string<char,std::char_traits<char>,std::allocator<char> > >,std::allocator<std::pair<std::basic_string<char,std::char_traits<char>,std::allocator<char> > const ,enum GreatWorkArtifactClass *> > >
PUBLIC	??1?$_Hash@V?$_Umap_traits@V?$basic_string@DU?$char_traits@D@std@@V?$allocator@D@2@@std@@PAW4MissionTypes@@V?$_Hash_compare@V?$basic_string@DU?$char_traits@D@std@@V?$allocator@D@2@@std@@V?$hash@V?$basic_string@DU?$char_traits@D@std@@V?$allocator@D@2@@std@@@tr1@2@U?$equal_to@V?$basic_string@DU?$char_traits@D@std@@V?$allocator@D@2@@std@@@2@@stdext@@V?$allocator@U?$pair@$$CBV?$basic_string@DU?$char_traits@D@std@@V?$allocator@D@2@@std@@PAW4MissionTypes@@@std@@@2@$0A@@tr1@std@@@stdext@@QAE@XZ ; stdext::_Hash<std::tr1::_Umap_traits<std::basic_string<char,std::char_traits<char>,std::allocator<char> >,enum MissionTypes *,stdext::_Hash_compare<std::basic_string<char,std::char_traits<char>,std::allocator<char> >,std::tr1::hash<std::basic_string<char,std::char_traits<char>,std::allocator<char> > >,std::equal_to<std::basic_string<char,std::char_traits<char>,std::allocator<char> > > >,std::allocator<std::pair<std::basic_string<char,std::char_traits<char>,std::allocator<char> > const ,enum MissionTypes *> >,0> >::~_Hash<std::tr1::_Umap_traits<std::basic_string<char,std::char_traits<char>,std::allocator<char> >,enum MissionTypes *,stdext::_Hash_compare<std::basic_string<char,std::char_traits<char>,std::allocator<char> >,std::tr1::hash<std::basic_string<char,std::char_traits<char>,std::allocator<char> > >,std::equal_to<std::basic_string<char,std::char_traits<char>,std::allocator<char> > > >,std::allocator<std::pair<std::basic_string<char,std::char_traits<char>,std::allocator<char> > const ,enum MissionTypes *> >,0> >
PUBLIC	??_C@_0EI@GBBLEJGE@MissionType?5?9?5?$CFs?5is?5used?5in?5the?5@ ; `string'
PUBLIC	??_C@_08BIIFDPDO@Missions?$AA@			; `string'
PUBLIC	?lower_bound@?$_Hash@V?$_Umap_traits@V?$basic_string@DU?$char_traits@D@std@@V?$allocator@D@2@@std@@PAW4MissionTypes@@V?$_Hash_compare@V?$basic_string@DU?$char_traits@D@std@@V?$allocator@D@2@@std@@V?$hash@V?$basic_string@DU?$char_traits@D@std@@V?$allocator@D@2@@std@@@tr1@2@U?$equal_to@V?$basic_string@DU?$char_traits@D@std@@V?$allocator@D@2@@std@@@2@@stdext@@V?$allocator@U?$pair@$$CBV?$basic_string@DU?$char_traits@D@std@@V?$allocator@D@2@@std@@PAW4MissionTypes@@@std@@@2@$0A@@tr1@std@@@stdext@@QAE?AV?$_Iterator@$0A@@?$list@U?$pair@$$CBV?$basic_string@DU?$char_traits@D@std@@V?$allocator@D@2@@std@@PAW4MissionTypes@@@std@@V?$allocator@U?$pair@$$CBV?$basic_string@DU?$char_traits@D@std@@V?$allocator@D@2@@std@@PAW4MissionTypes@@@std@@@2@@std@@ABV?$basic_string@DU?$char_traits@D@std@@V?$allocator@D@2@@5@@Z ; stdext::_Hash<std::tr1::_Umap_traits<std::basic_string<char,std::char_traits<char>,std::allocator<char> >,enum MissionTypes *,stdext::_Hash_compare<std::basic_string<char,std::char_traits<char>,std::allocator<char> >,std::tr1::hash<std::basic_string<char,std::char_traits<char>,std::allocator<char> > >,std::equal_to<std::basic_string<char,std::char_traits<char>,std::allocator<char> > > >,std::allocator<std::pair<std::basic_string<char,std::char_traits<char>,std::allocator<char> > const ,enum MissionTypes *> >,0> >::lower_bound
PUBLIC	??_C@_0BO@BDJODNLG@SELECT?5Type?0?5ID?5from?5Missions?$AA@ ; `string'
PUBLIC	??_C@_0BM@MFANNJKP@MISSION_CHANGE_ADMIRAL_PORT?$AA@ ; `string'
PUBLIC	??_C@_0BJ@EJBMPPFF@MISSION_ONE_SHOT_TOURISM?$AA@ ; `string'
PUBLIC	??_C@_0BG@LOAGIFNL@MISSION_GIVE_POLICIES?$AA@	; `string'
PUBLIC	??_C@_0BK@ICBBGKKM@MISSION_SELL_EXOTIC_GOODS?$AA@ ; `string'
PUBLIC	??_C@_0CE@EABDKEKH@MISSION_CHANGE_TRADE_UNIT_HOME_C@ ; `string'
PUBLIC	??_C@_0BK@LFMKFHIN@MISSION_CREATE_GREAT_WORK?$AA@ ; `string'
PUBLIC	??_C@_0BM@IPGLACPM@MISSION_PLUNDER_TRADE_ROUTE?$AA@ ; `string'
PUBLIC	??_C@_0BO@FAGJDEEL@MISSION_ESTABLISH_TRADE_ROUTE?$AA@ ; `string'
PUBLIC	??_C@_0BG@EJOOLACC@MISSION_REMOVE_HERESY?$AA@	; `string'
PUBLIC	??_C@_0BJ@CAFCOFIP@MISSION_ENHANCE_RELIGION?$AA@ ; `string'
PUBLIC	??_C@_0BI@KPKBBILE@MISSION_SPREAD_RELIGION?$AA@	; `string'
PUBLIC	??_C@_0BB@LIFCDCDE@MISSION_WAIT_FOR?$AA@	; `string'
PUBLIC	??_C@_0BH@BGKGPINP@MISSION_MULTI_DESELECT?$AA@	; `string'
PUBLIC	??_C@_0BF@HKMBIDLB@MISSION_MULTI_SELECT?$AA@	; `string'
PUBLIC	??_C@_0P@FJCBGHCF@MISSION_DAMAGE?$AA@		; `string'
PUBLIC	??_C@_0M@HDKMMFCJ@MISSION_DIE?$AA@		; `string'
PUBLIC	??_C@_0N@MKOEKIAK@MISSION_IDLE?$AA@		; `string'
PUBLIC	??_C@_0BB@DPPMBADM@MISSION_CAPTURED?$AA@	; `string'
PUBLIC	??_C@_0BC@EPBCGKNJ@MISSION_SURRENDER?$AA@	; `string'
PUBLIC	??_C@_0BC@BACHFLCB@MISSION_AIRSTRIKE?$AA@	; `string'
PUBLIC	??_C@_0BD@NKGOBLIJ@MISSION_END_COMBAT?$AA@	; `string'
PUBLIC	??_C@_0BF@KBMPCBGC@MISSION_BEGIN_COMBAT?$AA@	; `string'
PUBLIC	??_C@_0BG@EKNAJPN@MISSION_DIE_ANIMATION?$AA@	; `string'
PUBLIC	??_C@_0N@KLHLOCAN@MISSION_LEAD?$AA@		; `string'
PUBLIC	??_C@_0O@HLECACPL@MISSION_BUILD?$AA@		; `string'
PUBLIC	??_C@_0BD@IEJECC@MISSION_GOLDEN_AGE?$AA@	; `string'
PUBLIC	??_C@_0BH@NPEBMGMP@MISSION_FOUND_RELIGION?$AA@	; `string'
PUBLIC	??_C@_0BF@DBBOGFGE@MISSION_CULTURE_BOMB?$AA@	; `string'
PUBLIC	??_C@_0BC@NPJCPJEJ@MISSION_SPACESHIP?$AA@	; `string'
PUBLIC	??_C@_0BF@FOHJHALL@MISSION_REPAIR_FLEET?$AA@	; `string'
PUBLIC	??_C@_0BH@FCDCBDLI@MISSION_BUY_CITY_STATE?$AA@	; `string'
PUBLIC	??_C@_0O@MOFBHHHL@MISSION_TRADE?$AA@		; `string'
PUBLIC	??_C@_0O@LEBFBDGF@MISSION_HURRY?$AA@		; `string'
PUBLIC	??_C@_0BB@BOOJODFN@MISSION_DISCOVER?$AA@	; `string'
PUBLIC	??_C@_0BC@LNJEMHN@MISSION_CONSTRUCT?$AA@	; `string'
PUBLIC	??_C@_0N@LPHKEOPL@MISSION_JOIN?$AA@		; `string'
PUBLIC	??_C@_0O@NDMIPDIH@MISSION_FOUND?$AA@		; `string'
PUBLIC	??_C@_0BA@BIGOKDHA@MISSION_PILLAGE?$AA@		; `string'
PUBLIC	??_C@_0BF@LOAKEPLA@MISSION_RANGE_ATTACK?$AA@	; `string'
PUBLIC	??_C@_0P@FPMBBALK@MISSION_REBASE?$AA@		; `string'
PUBLIC	??_C@_0BC@HFJPPKDL@MISSION_AIR_SWEEP?$AA@	; `string'
PUBLIC	??_C@_0BB@BAIMAADI@MISSION_PARADROP?$AA@	; `string'
PUBLIC	??_C@_0N@JFCOFCGF@MISSION_NUKE?$AA@		; `string'
PUBLIC	??_C@_0BA@GAMJAOG@MISSION_AIRLIFT?$AA@		; `string'
PUBLIC	??_C@_0N@JGCCMOMF@MISSION_HEAL?$AA@		; `string'
PUBLIC	??_C@_0BC@KMEHOEDP@MISSION_AIRPATROL?$AA@	; `string'
PUBLIC	??_C@_0BC@DCFDGAEA@MISSION_DISEMBARK?$AA@	; `string'
PUBLIC	??_C@_0P@IOKKHHCO@MISSION_EMBARK?$AA@		; `string'
PUBLIC	??_C@_0CB@GCBCFJNP@MISSION_SET_UP_FOR_RANGED_ATTACK@ ; `string'
PUBLIC	??_C@_0BB@MJACMDLO@MISSION_GARRISON?$AA@	; `string'
PUBLIC	??_C@_0BA@IKCHAOML@MISSION_FORTIFY?$AA@		; `string'
PUBLIC	??_C@_0O@IGIKKGDF@MISSION_ALERT?$AA@		; `string'
PUBLIC	??_C@_0O@LFJBHFFE@MISSION_SLEEP?$AA@		; `string'
PUBLIC	??_C@_0N@IJKJBDIA@MISSION_SKIP?$AA@		; `string'
PUBLIC	??_C@_0BD@BDBPDFAK@MISSION_SWAP_UNITS?$AA@	; `string'
PUBLIC	??_C@_0BF@CPDOPHHL@MISSION_MOVE_TO_UNIT?$AA@	; `string'
PUBLIC	??_C@_0BB@KPGPCEEI@MISSION_ROUTE_TO?$AA@	; `string'
PUBLIC	?_Insert@?$_Hash@V?$_Umap_traits@V?$basic_string@DU?$char_traits@D@std@@V?$allocator@D@2@@std@@PAW4MissionTypes@@V?$_Hash_compare@V?$basic_string@DU?$char_traits@D@std@@V?$allocator@D@2@@std@@V?$hash@V?$basic_string@DU?$char_traits@D@std@@V?$allocator@D@2@@std@@@tr1@2@U?$equal_to@V?$basic_string@DU?$char_traits@D@std@@V?$allocator@D@2@@std@@@2@@stdext@@V?$allocator@U?$pair@$$CBV?$basic_string@DU?$char_traits@D@std@@V?$allocator@D@2@@std@@PAW4MissionTypes@@@std@@@2@$0A@@tr1@std@@@stdext@@IAE?AU?$pair@V?$_Iterator@$0A@@?$list@U?$pair@$$CBV?$basic_string@DU?$char_traits@D@std@@V?$allocator@D@2@@std@@PAW4MissionTypes@@@std@@V?$allocator@U?$pair@$$CBV?$basic_string@DU?$char_traits@D@std@@V?$allocator@D@2@@std@@PAW4MissionTypes@@@std@@@2@@std@@_N@std@@ABU?$pair@$$CBV?$basic_string@DU?$char_traits@D@std@@V?$allocator@D@2@@std@@PAW4MissionTypes@@@4@V?$_Iterator@$0A@@?$list@U?$pair@$$CBV?$basic_string@DU?$char_traits@D@std@@V?$allocator@D@2@@std@@PAW4MissionTypes@@@std@@V?$allocator@U?$pair@$$CBV?$basic_string@DU?$char_traits@D@std@@V?$allocator@D@2@@std@@PAW4MissionTypes@@@std@@@2@@4@@Z ; stdext::_Hash<std::tr1::_Umap_traits<std::basic_string<char,std::char_traits<char>,std::allocator<char> >,enum MissionTypes *,stdext::_Hash_compare<std::basic_string<char,std::char_traits<char>,std::allocator<char> >,std::tr1::hash<std::basic_string<char,std::char_traits<char>,std::allocator<char> > >,std::equal_to<std::basic_string<char,std::char_traits<char>,std::allocator<char> > > >,std::allocator<std::pair<std::basic_string<char,std::char_traits<char>,std::allocator<char> > const ,enum MissionTypes *> >,0> >::_Insert
PUBLIC	??$make_pair@V?$basic_string@DU?$char_traits@D@std@@V?$allocator@D@2@@std@@PAW4MissionTypes@@@std@@YA?AU?$pair@V?$basic_string@DU?$char_traits@D@std@@V?$allocator@D@2@@std@@PAW4MissionTypes@@@0@V?$basic_string@DU?$char_traits@D@std@@V?$allocator@D@2@@0@PAW4MissionTypes@@@Z ; std::make_pair<std::basic_string<char,std::char_traits<char>,std::allocator<char> >,enum MissionTypes *>
PUBLIC	??_C@_0BA@GHBECEDD@MISSION_MOVE_TO?$AA@		; `string'
PUBLIC	??0?$_Hash@V?$_Umap_traits@V?$basic_string@DU?$char_traits@D@std@@V?$allocator@D@2@@std@@PAW4MissionTypes@@V?$_Hash_compare@V?$basic_string@DU?$char_traits@D@std@@V?$allocator@D@2@@std@@V?$hash@V?$basic_string@DU?$char_traits@D@std@@V?$allocator@D@2@@std@@@tr1@2@U?$equal_to@V?$basic_string@DU?$char_traits@D@std@@V?$allocator@D@2@@std@@@2@@stdext@@V?$allocator@U?$pair@$$CBV?$basic_string@DU?$char_traits@D@std@@V?$allocator@D@2@@std@@PAW4MissionTypes@@@std@@@2@$0A@@tr1@std@@@stdext@@QAE@ABV?$_Hash_compare@V?$basic_string@DU?$char_traits@D@std@@V?$allocator@D@2@@std@@V?$hash@V?$basic_string@DU?$char_traits@D@std@@V?$allocator@D@2@@std@@@tr1@2@U?$equal_to@V?$basic_string@DU?$char_traits@D@std@@V?$allocator@D@2@@std@@@2@@1@ABV?$allocator@U?$pair@$$CBV?$basic_string@DU?$char_traits@D@std@@V?$allocator@D@2@@std@@PAW4MissionTypes@@@std@@@std@@@Z ; stdext::_Hash<std::tr1::_Umap_traits<std::basic_string<char,std::char_traits<char>,std::allocator<char> >,enum MissionTypes *,stdext::_Hash_compare<std::basic_string<char,std::char_traits<char>,std::allocator<char> >,std::tr1::hash<std::basic_string<char,std::char_traits<char>,std::allocator<char> > >,std::equal_to<std::basic_string<char,std::char_traits<char>,std::allocator<char> > > >,std::allocator<std::pair<std::basic_string<char,std::char_traits<char>,std::allocator<char> > const ,enum MissionTypes *> >,0> >::_Hash<std::tr1::_Umap_traits<std::basic_string<char,std::char_traits<char>,std::allocator<char> >,enum MissionTypes *,stdext::_Hash_compare<std::basic_string<char,std::char_traits<char>,std::allocator<char> >,std::tr1::hash<std::basic_string<char,std::char_traits<char>,std::allocator<char> > >,std::equal_to<std::basic_string<char,std::char_traits<char>,std::allocator<char> > > >,std::allocator<std::pair<std::basic_string<char,std::char_traits<char>,std::allocator<char> > const ,enum MissionTypes *> >,0> >
PUBLIC	?_Tidy@?$list@U?$pair@$$CBV?$basic_string@DU?$char_traits@D@std@@V?$allocator@D@2@@std@@PAW4GreatWorkSlotType@@@std@@V?$allocator@U?$pair@$$CBV?$basic_string@DU?$char_traits@D@std@@V?$allocator@D@2@@std@@PAW4GreatWorkSlotType@@@std@@@2@@std@@IAEXXZ ; std::list<std::pair<std::basic_string<char,std::char_traits<char>,std::allocator<char> > const ,enum GreatWorkSlotType *>,std::allocator<std::pair<std::basic_string<char,std::char_traits<char>,std::allocator<char> > const ,enum GreatWorkSlotType *> > >::_Tidy
PUBLIC	?_Tidy@?$vector@V?$_Iterator@$0A@@?$list@U?$pair@$$CBV?$basic_string@DU?$char_traits@D@std@@V?$allocator@D@2@@std@@PAW4GreatWorkSlotType@@@std@@V?$allocator@U?$pair@$$CBV?$basic_string@DU?$char_traits@D@std@@V?$allocator@D@2@@std@@PAW4GreatWorkSlotType@@@std@@@2@@std@@V?$allocator@V?$_Iterator@$0A@@?$list@U?$pair@$$CBV?$basic_string@DU?$char_traits@D@std@@V?$allocator@D@2@@std@@PAW4GreatWorkSlotType@@@std@@V?$allocator@U?$pair@$$CBV?$basic_string@DU?$char_traits@D@std@@V?$allocator@D@2@@std@@PAW4GreatWorkSlotType@@@std@@@2@@std@@@3@@std@@IAEXXZ ; std::vector<std::list<std::pair<std::basic_string<char,std::char_traits<char>,std::allocator<char> > const ,enum GreatWorkSlotType *>,std::allocator<std::pair<std::basic_string<char,std::char_traits<char>,std::allocator<char> > const ,enum GreatWorkSlotType *> > >::_Iterator<0>,std::allocator<std::list<std::pair<std::basic_string<char,std::char_traits<char>,std::allocator<char> > const ,enum GreatWorkSlotType *>,std::allocator<std::pair<std::basic_string<char,std::char_traits<char>,std::allocator<char> > const ,enum GreatWorkSlotType *> > >::_Iterator<0> > >::_Tidy
PUBLIC	??_C@_0EO@LHBFGGEG@GreatWorkSlotType?5?9?5?$CFs?5is?5used?5i@ ; `string'
PUBLIC	?lower_bound@?$_Hash@V?$_Umap_traits@V?$basic_string@DU?$char_traits@D@std@@V?$allocator@D@2@@std@@PAW4GreatWorkSlotType@@V?$_Hash_compare@V?$basic_string@DU?$char_traits@D@std@@V?$allocator@D@2@@std@@V?$hash@V?$basic_string@DU?$char_traits@D@std@@V?$allocator@D@2@@std@@@tr1@2@U?$equal_to@V?$basic_string@DU?$char_traits@D@std@@V?$allocator@D@2@@std@@@2@@stdext@@V?$allocator@U?$pair@$$CBV?$basic_string@DU?$char_traits@D@std@@V?$allocator@D@2@@std@@PAW4GreatWorkSlotType@@@std@@@2@$0A@@tr1@std@@@stdext@@QAE?AV?$_Iterator@$0A@@?$list@U?$pair@$$CBV?$basic_string@DU?$char_traits@D@std@@V?$allocator@D@2@@std@@PAW4GreatWorkSlotType@@@std@@V?$allocator@U?$pair@$$CBV?$basic_string@DU?$char_traits@D@std@@V?$allocator@D@2@@std@@PAW4GreatWorkSlotType@@@std@@@2@@std@@ABV?$basic_string@DU?$char_traits@D@std@@V?$allocator@D@2@@5@@Z ; stdext::_Hash<std::tr1::_Umap_traits<std::basic_string<char,std::char_traits<char>,std::allocator<char> >,enum GreatWorkSlotType *,stdext::_Hash_compare<std::basic_string<char,std::char_traits<char>,std::allocator<char> >,std::tr1::hash<std::basic_string<char,std::char_traits<char>,std::allocator<char> > >,std::equal_to<std::basic_string<char,std::char_traits<char>,std::allocator<char> > > >,std::allocator<std::pair<std::basic_string<char,std::char_traits<char>,std::allocator<char> > const ,enum GreatWorkSlotType *> >,0> >::lower_bound
PUBLIC	??_C@_0CE@MCMINNCJ@SELECT?5Type?0?5ID?5from?5GreatWorkSl@ ; `string'
PUBLIC	??_C@_0BG@BDIEOOGE@GREAT_WORK_SLOT_MUSIC?$AA@	; `string'
PUBLIC	??_C@_0BL@MEMIEKNO@GREAT_WORK_SLOT_LITERATURE?$AA@ ; `string'
PUBLIC	?_Insert@?$_Hash@V?$_Umap_traits@V?$basic_string@DU?$char_traits@D@std@@V?$allocator@D@2@@std@@PAW4GreatWorkSlotType@@V?$_Hash_compare@V?$basic_string@DU?$char_traits@D@std@@V?$allocator@D@2@@std@@V?$hash@V?$basic_string@DU?$char_traits@D@std@@V?$allocator@D@2@@std@@@tr1@2@U?$equal_to@V?$basic_string@DU?$char_traits@D@std@@V?$allocator@D@2@@std@@@2@@stdext@@V?$allocator@U?$pair@$$CBV?$basic_string@DU?$char_traits@D@std@@V?$allocator@D@2@@std@@PAW4GreatWorkSlotType@@@std@@@2@$0A@@tr1@std@@@stdext@@IAE?AU?$pair@V?$_Iterator@$0A@@?$list@U?$pair@$$CBV?$basic_string@DU?$char_traits@D@std@@V?$allocator@D@2@@std@@PAW4GreatWorkSlotType@@@std@@V?$allocator@U?$pair@$$CBV?$basic_string@DU?$char_traits@D@std@@V?$allocator@D@2@@std@@PAW4GreatWorkSlotType@@@std@@@2@@std@@_N@std@@ABU?$pair@$$CBV?$basic_string@DU?$char_traits@D@std@@V?$allocator@D@2@@std@@PAW4GreatWorkSlotType@@@4@V?$_Iterator@$0A@@?$list@U?$pair@$$CBV?$basic_string@DU?$char_traits@D@std@@V?$allocator@D@2@@std@@PAW4GreatWorkSlotType@@@std@@V?$allocator@U?$pair@$$CBV?$basic_string@DU?$char_traits@D@std@@V?$allocator@D@2@@std@@PAW4GreatWorkSlotType@@@std@@@2@@4@@Z ; stdext::_Hash<std::tr1::_Umap_traits<std::basic_string<char,std::char_traits<char>,std::allocator<char> >,enum GreatWorkSlotType *,stdext::_Hash_compare<std::basic_string<char,std::char_traits<char>,std::allocator<char> >,std::tr1::hash<std::basic_string<char,std::char_traits<char>,std::allocator<char> > >,std::equal_to<std::basic_string<char,std::char_traits<char>,std::allocator<char> > > >,std::allocator<std::pair<std::basic_string<char,std::char_traits<char>,std::allocator<char> > const ,enum GreatWorkSlotType *> >,0> >::_Insert
PUBLIC	??$make_pair@V?$basic_string@DU?$char_traits@D@std@@V?$allocator@D@2@@std@@PAW4GreatWorkSlotType@@@std@@YA?AU?$pair@V?$basic_string@DU?$char_traits@D@std@@V?$allocator@D@2@@std@@PAW4GreatWorkSlotType@@@0@V?$basic_string@DU?$char_traits@D@std@@V?$allocator@D@2@@0@PAW4GreatWorkSlotType@@@Z ; std::make_pair<std::basic_string<char,std::char_traits<char>,std::allocator<char> >,enum GreatWorkSlotType *>
PUBLIC	??_C@_0BN@CGPMDLDK@GREAT_WORK_SLOT_ART_ARTIFACT?$AA@ ; `string'
PUBLIC	??0?$_Hash@V?$_Umap_traits@V?$basic_string@DU?$char_traits@D@std@@V?$allocator@D@2@@std@@PAW4GreatWorkSlotType@@V?$_Hash_compare@V?$basic_string@DU?$char_traits@D@std@@V?$allocator@D@2@@std@@V?$hash@V?$basic_string@DU?$char_traits@D@std@@V?$allocator@D@2@@std@@@tr1@2@U?$equal_to@V?$basic_string@DU?$char_traits@D@std@@V?$allocator@D@2@@std@@@2@@stdext@@V?$allocator@U?$pair@$$CBV?$basic_string@DU?$char_traits@D@std@@V?$allocator@D@2@@std@@PAW4GreatWorkSlotType@@@std@@@2@$0A@@tr1@std@@@stdext@@QAE@ABV?$_Hash_compare@V?$basic_string@DU?$char_traits@D@std@@V?$allocator@D@2@@std@@V?$hash@V?$basic_string@DU?$char_traits@D@std@@V?$allocator@D@2@@std@@@tr1@2@U?$equal_to@V?$basic_string@DU?$char_traits@D@std@@V?$allocator@D@2@@std@@@2@@1@ABV?$allocator@U?$pair@$$CBV?$basic_string@DU?$char_traits@D@std@@V?$allocator@D@2@@std@@PAW4GreatWorkSlotType@@@std@@@std@@@Z ; stdext::_Hash<std::tr1::_Umap_traits<std::basic_string<char,std::char_traits<char>,std::allocator<char> >,enum GreatWorkSlotType *,stdext::_Hash_compare<std::basic_string<char,std::char_traits<char>,std::allocator<char> >,std::tr1::hash<std::basic_string<char,std::char_traits<char>,std::allocator<char> > >,std::equal_to<std::basic_string<char,std::char_traits<char>,std::allocator<char> > > >,std::allocator<std::pair<std::basic_string<char,std::char_traits<char>,std::allocator<char> > const ,enum GreatWorkSlotType *> >,0> >::_Hash<std::tr1::_Umap_traits<std::basic_string<char,std::char_traits<char>,std::allocator<char> >,enum GreatWorkSlotType *,stdext::_Hash_compare<std::basic_string<char,std::char_traits<char>,std::allocator<char> >,std::tr1::hash<std::basic_string<char,std::char_traits<char>,std::allocator<char> > >,std::equal_to<std::basic_string<char,std::char_traits<char>,std::allocator<char> > > >,std::allocator<std::pair<std::basic_string<char,std::char_traits<char>,std::allocator<char> > const ,enum GreatWorkSlotType *> >,0> >
PUBLIC	?_Tidy@?$list@U?$pair@$$CBV?$basic_string@DU?$char_traits@D@std@@V?$allocator@D@2@@std@@PAW4GreatWorkArtifactClass@@@std@@V?$allocator@U?$pair@$$CBV?$basic_string@DU?$char_traits@D@std@@V?$allocator@D@2@@std@@PAW4GreatWorkArtifactClass@@@std@@@2@@std@@IAEXXZ ; std::list<std::pair<std::basic_string<char,std::char_traits<char>,std::allocator<char> > const ,enum GreatWorkArtifactClass *>,std::allocator<std::pair<std::basic_string<char,std::char_traits<char>,std::allocator<char> > const ,enum GreatWorkArtifactClass *> > >::_Tidy
PUBLIC	?_Tidy@?$vector@V?$_Iterator@$0A@@?$list@U?$pair@$$CBV?$basic_string@DU?$char_traits@D@std@@V?$allocator@D@2@@std@@PAW4GreatWorkArtifactClass@@@std@@V?$allocator@U?$pair@$$CBV?$basic_string@DU?$char_traits@D@std@@V?$allocator@D@2@@std@@PAW4GreatWorkArtifactClass@@@std@@@2@@std@@V?$allocator@V?$_Iterator@$0A@@?$list@U?$pair@$$CBV?$basic_string@DU?$char_traits@D@std@@V?$allocator@D@2@@std@@PAW4GreatWorkArtifactClass@@@std@@V?$allocator@U?$pair@$$CBV?$basic_string@DU?$char_traits@D@std@@V?$allocator@D@2@@std@@PAW4GreatWorkArtifactClass@@@std@@@2@@std@@@3@@std@@IAEXXZ ; std::vector<std::list<std::pair<std::basic_string<char,std::char_traits<char>,std::allocator<char> > const ,enum GreatWorkArtifactClass *>,std::allocator<std::pair<std::basic_string<char,std::char_traits<char>,std::allocator<char> > const ,enum GreatWorkArtifactClass *> > >::_Iterator<0>,std::allocator<std::list<std::pair<std::basic_string<char,std::char_traits<char>,std::allocator<char> > const ,enum GreatWorkArtifactClass *>,std::allocator<std::pair<std::basic_string<char,std::char_traits<char>,std::allocator<char> > const ,enum GreatWorkArtifactClass *> > >::_Iterator<0> > >::_Tidy
PUBLIC	??_C@_0N@GNBOCNM@Gamecore?4log?$AA@		; `string'
PUBLIC	??$sprintf_s@$0BAA@@@YAHAAY0BAA@DPBDZZ		; sprintf_s<256>
PUBLIC	??_C@_0EJ@DFFLCDJG@ArtifactType?5?9?5?$CFs?5is?5used?5in?5the@ ; `string'
PUBLIC	?lower_bound@?$_Hash@V?$_Umap_traits@V?$basic_string@DU?$char_traits@D@std@@V?$allocator@D@2@@std@@PAW4GreatWorkArtifactClass@@V?$_Hash_compare@V?$basic_string@DU?$char_traits@D@std@@V?$allocator@D@2@@std@@V?$hash@V?$basic_string@DU?$char_traits@D@std@@V?$allocator@D@2@@std@@@tr1@2@U?$equal_to@V?$basic_string@DU?$char_traits@D@std@@V?$allocator@D@2@@std@@@2@@stdext@@V?$allocator@U?$pair@$$CBV?$basic_string@DU?$char_traits@D@std@@V?$allocator@D@2@@std@@PAW4GreatWorkArtifactClass@@@std@@@2@$0A@@tr1@std@@@stdext@@QAE?AV?$_Iterator@$0A@@?$list@U?$pair@$$CBV?$basic_string@DU?$char_traits@D@std@@V?$allocator@D@2@@std@@PAW4GreatWorkArtifactClass@@@std@@V?$allocator@U?$pair@$$CBV?$basic_string@DU?$char_traits@D@std@@V?$allocator@D@2@@std@@PAW4GreatWorkArtifactClass@@@std@@@2@@std@@ABV?$basic_string@DU?$char_traits@D@std@@V?$allocator@D@2@@5@@Z ; stdext::_Hash<std::tr1::_Umap_traits<std::basic_string<char,std::char_traits<char>,std::allocator<char> >,enum GreatWorkArtifactClass *,stdext::_Hash_compare<std::basic_string<char,std::char_traits<char>,std::allocator<char> >,std::tr1::hash<std::basic_string<char,std::char_traits<char>,std::allocator<char> > >,std::equal_to<std::basic_string<char,std::char_traits<char>,std::allocator<char> > > >,std::allocator<std::pair<std::basic_string<char,std::char_traits<char>,std::allocator<char> > const ,enum GreatWorkArtifactClass *> >,0> >::lower_bound
PUBLIC	??_C@_0CO@IBNCHGPL@SELECT?5Type?0?5ID?5from?5GreatWorkAr@ ; `string'
PUBLIC	??_C@_0BB@IBFOPINB@ARTIFACT_WRITING?$AA@	; `string'
PUBLIC	??_C@_0BE@POGCPAJA@ARTIFACT_RAZED_CITY?$AA@	; `string'
PUBLIC	??_C@_0BG@EOLFDHMN@ARTIFACT_BATTLE_MELEE?$AA@	; `string'
PUBLIC	??_C@_0BH@KLEALEOB@ARTIFACT_BATTLE_RANGED?$AA@	; `string'
PUBLIC	??_C@_0BI@EGCECJKF@ARTIFACT_BARBARIAN_CAMP?$AA@	; `string'
PUBLIC	?_Insert@?$_Hash@V?$_Umap_traits@V?$basic_string@DU?$char_traits@D@std@@V?$allocator@D@2@@std@@PAW4GreatWorkArtifactClass@@V?$_Hash_compare@V?$basic_string@DU?$char_traits@D@std@@V?$allocator@D@2@@std@@V?$hash@V?$basic_string@DU?$char_traits@D@std@@V?$allocator@D@2@@std@@@tr1@2@U?$equal_to@V?$basic_string@DU?$char_traits@D@std@@V?$allocator@D@2@@std@@@2@@stdext@@V?$allocator@U?$pair@$$CBV?$basic_string@DU?$char_traits@D@std@@V?$allocator@D@2@@std@@PAW4GreatWorkArtifactClass@@@std@@@2@$0A@@tr1@std@@@stdext@@IAE?AU?$pair@V?$_Iterator@$0A@@?$list@U?$pair@$$CBV?$basic_string@DU?$char_traits@D@std@@V?$allocator@D@2@@std@@PAW4GreatWorkArtifactClass@@@std@@V?$allocator@U?$pair@$$CBV?$basic_string@DU?$char_traits@D@std@@V?$allocator@D@2@@std@@PAW4GreatWorkArtifactClass@@@std@@@2@@std@@_N@std@@ABU?$pair@$$CBV?$basic_string@DU?$char_traits@D@std@@V?$allocator@D@2@@std@@PAW4GreatWorkArtifactClass@@@4@V?$_Iterator@$0A@@?$list@U?$pair@$$CBV?$basic_string@DU?$char_traits@D@std@@V?$allocator@D@2@@std@@PAW4GreatWorkArtifactClass@@@std@@V?$allocator@U?$pair@$$CBV?$basic_string@DU?$char_traits@D@std@@V?$allocator@D@2@@std@@PAW4GreatWorkArtifactClass@@@std@@@2@@4@@Z ; stdext::_Hash<std::tr1::_Umap_traits<std::basic_string<char,std::char_traits<char>,std::allocator<char> >,enum GreatWorkArtifactClass *,stdext::_Hash_compare<std::basic_string<char,std::char_traits<char>,std::allocator<char> >,std::tr1::hash<std::basic_string<char,std::char_traits<char>,std::allocator<char> > >,std::equal_to<std::basic_string<char,std::char_traits<char>,std::allocator<char> > > >,std::allocator<std::pair<std::basic_string<char,std::char_traits<char>,std::allocator<char> > const ,enum GreatWorkArtifactClass *> >,0> >::_Insert
PUBLIC	??$make_pair@V?$basic_string@DU?$char_traits@D@std@@V?$allocator@D@2@@std@@PAW4GreatWorkArtifactClass@@@std@@YA?AU?$pair@V?$basic_string@DU?$char_traits@D@std@@V?$allocator@D@2@@std@@PAW4GreatWorkArtifactClass@@@0@V?$basic_string@DU?$char_traits@D@std@@V?$allocator@D@2@@0@PAW4GreatWorkArtifactClass@@@Z ; std::make_pair<std::basic_string<char,std::char_traits<char>,std::allocator<char> >,enum GreatWorkArtifactClass *>
PUBLIC	??_C@_0BG@HMJJDBCN@ARTIFACT_ANCIENT_RUIN?$AA@	; `string'
PUBLIC	??0?$_Hash@V?$_Umap_traits@V?$basic_string@DU?$char_traits@D@std@@V?$allocator@D@2@@std@@PAW4GreatWorkArtifactClass@@V?$_Hash_compare@V?$basic_string@DU?$char_traits@D@std@@V?$allocator@D@2@@std@@V?$hash@V?$basic_string@DU?$char_traits@D@std@@V?$allocator@D@2@@std@@@tr1@2@U?$equal_to@V?$basic_string@DU?$char_traits@D@std@@V?$allocator@D@2@@std@@@2@@stdext@@V?$allocator@U?$pair@$$CBV?$basic_string@DU?$char_traits@D@std@@V?$allocator@D@2@@std@@PAW4GreatWorkArtifactClass@@@std@@@2@$0A@@tr1@std@@@stdext@@QAE@ABV?$_Hash_compare@V?$basic_string@DU?$char_traits@D@std@@V?$allocator@D@2@@std@@V?$hash@V?$basic_string@DU?$char_traits@D@std@@V?$allocator@D@2@@std@@@tr1@2@U?$equal_to@V?$basic_string@DU?$char_traits@D@std@@V?$allocator@D@2@@std@@@2@@1@ABV?$allocator@U?$pair@$$CBV?$basic_string@DU?$char_traits@D@std@@V?$allocator@D@2@@std@@PAW4GreatWorkArtifactClass@@@std@@@std@@@Z ; stdext::_Hash<std::tr1::_Umap_traits<std::basic_string<char,std::char_traits<char>,std::allocator<char> >,enum GreatWorkArtifactClass *,stdext::_Hash_compare<std::basic_string<char,std::char_traits<char>,std::allocator<char> >,std::tr1::hash<std::basic_string<char,std::char_traits<char>,std::allocator<char> > >,std::equal_to<std::basic_string<char,std::char_traits<char>,std::allocator<char> > > >,std::allocator<std::pair<std::basic_string<char,std::char_traits<char>,std::allocator<char> > const ,enum GreatWorkArtifactClass *> >,0> >::_Hash<std::tr1::_Umap_traits<std::basic_string<char,std::char_traits<char>,std::allocator<char> >,enum GreatWorkArtifactClass *,stdext::_Hash_compare<std::basic_string<char,std::char_traits<char>,std::allocator<char> >,std::tr1::hash<std::basic_string<char,std::char_traits<char>,std::allocator<char> > >,std::equal_to<std::basic_string<char,std::char_traits<char>,std::allocator<char> > > >,std::allocator<std::pair<std::basic_string<char,std::char_traits<char>,std::allocator<char> > const ,enum GreatWorkArtifactClass *> >,0> >
PUBLIC	__$ArrayPad$
PUBLIC	?AcquireTypes@CvTypes@@YAXAAVConnection@Database@@@Z ; CvTypes::AcquireTypes
EXTRN	__imp_?Count@Connection@Database@@QAEHPBD_N@Z:PROC
EXTRN	__imp_??1Results@Database@@UAE@XZ:PROC
EXTRN	?GetInstance@FILogFileMgr@@SAAAV1@XZ:PROC	; FILogFileMgr::GetInstance
EXTRN	__imp_?c_str@?$basic_string@DU?$char_traits@D@std@@V?$allocator@D@2@@std@@QBEPBDXZ:PROC
EXTRN	__imp_?GetInt@Results@Database@@QAEHH@Z:PROC
EXTRN	__imp_?GetText@Results@Database@@QAEPBDH@Z:PROC
EXTRN	__imp_?Step@Results@Database@@QAE_NXZ:PROC
EXTRN	__imp_?Execute@Connection@Database@@QBE_NAAVResults@2@PBDH@Z:PROC
EXTRN	__imp_??0Results@Database@@QAE@PBD@Z:PROC
EXTRN	__imp_??1?$basic_string@DU?$char_traits@D@std@@V?$allocator@D@2@@std@@QAE@XZ:PROC
EXTRN	__imp_??0?$basic_string@DU?$char_traits@D@std@@V?$allocator@D@2@@std@@QAE@ABV01@@Z:PROC
EXTRN	__imp_??0?$basic_string@DU?$char_traits@D@std@@V?$allocator@D@2@@std@@QAE@PBD@Z:PROC
EXTRN	___security_cookie:DWORD
EXTRN	___CxxFrameHandler3:PROC
EXTRN	__fltused:DWORD
EXTRN	@__security_check_cookie@4:PROC
EXTRN	__chkstk:PROC
EXTRN	_memset:PROC
;	COMDAT ??_C@_0EI@GBBLEJGE@MissionType?5?9?5?$CFs?5is?5used?5in?5the?5@
; File c:\program files (x86)\microsoft visual studio 9.0\vc\include\xutility
CONST	SEGMENT
??_C@_0EI@GBBLEJGE@MissionType?5?9?5?$CFs?5is?5used?5in?5the?5@ DB 'Missi'
	DB	'onType - %s is used in the DLL but does not exist in the data'
	DB	'base.', 00H					; `string'
CONST	ENDS
;	COMDAT ??_C@_08BIIFDPDO@Missions?$AA@
CONST	SEGMENT
??_C@_08BIIFDPDO@Missions?$AA@ DB 'Missions', 00H	; `string'
CONST	ENDS
;	COMDAT ??_C@_0BO@BDJODNLG@SELECT?5Type?0?5ID?5from?5Missions?$AA@
CONST	SEGMENT
??_C@_0BO@BDJODNLG@SELECT?5Type?0?5ID?5from?5Missions?$AA@ DB 'SELECT Typ'
	DB	'e, ID from Missions', 00H			; `string'
CONST	ENDS
;	COMDAT ??_C@_0BM@MFANNJKP@MISSION_CHANGE_ADMIRAL_PORT?$AA@
CONST	SEGMENT
??_C@_0BM@MFANNJKP@MISSION_CHANGE_ADMIRAL_PORT?$AA@ DB 'MISSION_CHANGE_AD'
	DB	'MIRAL_PORT', 00H				; `string'
CONST	ENDS
;	COMDAT ??_C@_0BJ@EJBMPPFF@MISSION_ONE_SHOT_TOURISM?$AA@
CONST	SEGMENT
??_C@_0BJ@EJBMPPFF@MISSION_ONE_SHOT_TOURISM?$AA@ DB 'MISSION_ONE_SHOT_TOU'
	DB	'RISM', 00H					; `string'
CONST	ENDS
;	COMDAT ??_C@_0BG@LOAGIFNL@MISSION_GIVE_POLICIES?$AA@
CONST	SEGMENT
??_C@_0BG@LOAGIFNL@MISSION_GIVE_POLICIES?$AA@ DB 'MISSION_GIVE_POLICIES', 00H ; `string'
CONST	ENDS
;	COMDAT ??_C@_0BK@ICBBGKKM@MISSION_SELL_EXOTIC_GOODS?$AA@
CONST	SEGMENT
??_C@_0BK@ICBBGKKM@MISSION_SELL_EXOTIC_GOODS?$AA@ DB 'MISSION_SELL_EXOTIC'
	DB	'_GOODS', 00H				; `string'
CONST	ENDS
;	COMDAT ??_C@_0CE@EABDKEKH@MISSION_CHANGE_TRADE_UNIT_HOME_C@
CONST	SEGMENT
??_C@_0CE@EABDKEKH@MISSION_CHANGE_TRADE_UNIT_HOME_C@ DB 'MISSION_CHANGE_T'
	DB	'RADE_UNIT_HOME_CITY', 00H			; `string'
CONST	ENDS
;	COMDAT ??_C@_0BK@LFMKFHIN@MISSION_CREATE_GREAT_WORK?$AA@
CONST	SEGMENT
??_C@_0BK@LFMKFHIN@MISSION_CREATE_GREAT_WORK?$AA@ DB 'MISSION_CREATE_GREA'
	DB	'T_WORK', 00H				; `string'
CONST	ENDS
;	COMDAT ??_C@_0BM@IPGLACPM@MISSION_PLUNDER_TRADE_ROUTE?$AA@
CONST	SEGMENT
??_C@_0BM@IPGLACPM@MISSION_PLUNDER_TRADE_ROUTE?$AA@ DB 'MISSION_PLUNDER_T'
	DB	'RADE_ROUTE', 00H				; `string'
CONST	ENDS
;	COMDAT ??_C@_0BO@FAGJDEEL@MISSION_ESTABLISH_TRADE_ROUTE?$AA@
CONST	SEGMENT
??_C@_0BO@FAGJDEEL@MISSION_ESTABLISH_TRADE_ROUTE?$AA@ DB 'MISSION_ESTABLI'
	DB	'SH_TRADE_ROUTE', 00H			; `string'
CONST	ENDS
;	COMDAT ??_C@_0BG@EJOOLACC@MISSION_REMOVE_HERESY?$AA@
CONST	SEGMENT
??_C@_0BG@EJOOLACC@MISSION_REMOVE_HERESY?$AA@ DB 'MISSION_REMOVE_HERESY', 00H ; `string'
CONST	ENDS
;	COMDAT ??_C@_0BJ@CAFCOFIP@MISSION_ENHANCE_RELIGION?$AA@
CONST	SEGMENT
??_C@_0BJ@CAFCOFIP@MISSION_ENHANCE_RELIGION?$AA@ DB 'MISSION_ENHANCE_RELI'
	DB	'GION', 00H					; `string'
CONST	ENDS
;	COMDAT ??_C@_0BI@KPKBBILE@MISSION_SPREAD_RELIGION?$AA@
CONST	SEGMENT
??_C@_0BI@KPKBBILE@MISSION_SPREAD_RELIGION?$AA@ DB 'MISSION_SPREAD_RELIGI'
	DB	'ON', 00H					; `string'
CONST	ENDS
;	COMDAT ??_C@_0BB@LIFCDCDE@MISSION_WAIT_FOR?$AA@
CONST	SEGMENT
??_C@_0BB@LIFCDCDE@MISSION_WAIT_FOR?$AA@ DB 'MISSION_WAIT_FOR', 00H ; `string'
CONST	ENDS
;	COMDAT ??_C@_0BH@BGKGPINP@MISSION_MULTI_DESELECT?$AA@
CONST	SEGMENT
??_C@_0BH@BGKGPINP@MISSION_MULTI_DESELECT?$AA@ DB 'MISSION_MULTI_DESELECT'
	DB	00H						; `string'
CONST	ENDS
;	COMDAT ??_C@_0BF@HKMBIDLB@MISSION_MULTI_SELECT?$AA@
CONST	SEGMENT
??_C@_0BF@HKMBIDLB@MISSION_MULTI_SELECT?$AA@ DB 'MISSION_MULTI_SELECT', 00H ; `string'
CONST	ENDS
;	COMDAT ??_C@_0P@FJCBGHCF@MISSION_DAMAGE?$AA@
CONST	SEGMENT
??_C@_0P@FJCBGHCF@MISSION_DAMAGE?$AA@ DB 'MISSION_DAMAGE', 00H ; `string'
CONST	ENDS
;	COMDAT ??_C@_0M@HDKMMFCJ@MISSION_DIE?$AA@
CONST	SEGMENT
??_C@_0M@HDKMMFCJ@MISSION_DIE?$AA@ DB 'MISSION_DIE', 00H ; `string'
CONST	ENDS
;	COMDAT ??_C@_0N@MKOEKIAK@MISSION_IDLE?$AA@
CONST	SEGMENT
??_C@_0N@MKOEKIAK@MISSION_IDLE?$AA@ DB 'MISSION_IDLE', 00H ; `string'
CONST	ENDS
;	COMDAT ??_C@_0BB@DPPMBADM@MISSION_CAPTURED?$AA@
CONST	SEGMENT
??_C@_0BB@DPPMBADM@MISSION_CAPTURED?$AA@ DB 'MISSION_CAPTURED', 00H ; `string'
CONST	ENDS
;	COMDAT ??_C@_0BC@EPBCGKNJ@MISSION_SURRENDER?$AA@
CONST	SEGMENT
??_C@_0BC@EPBCGKNJ@MISSION_SURRENDER?$AA@ DB 'MISSION_SURRENDER', 00H ; `string'
CONST	ENDS
;	COMDAT ??_C@_0BC@BACHFLCB@MISSION_AIRSTRIKE?$AA@
CONST	SEGMENT
??_C@_0BC@BACHFLCB@MISSION_AIRSTRIKE?$AA@ DB 'MISSION_AIRSTRIKE', 00H ; `string'
CONST	ENDS
;	COMDAT ??_C@_0BD@NKGOBLIJ@MISSION_END_COMBAT?$AA@
CONST	SEGMENT
??_C@_0BD@NKGOBLIJ@MISSION_END_COMBAT?$AA@ DB 'MISSION_END_COMBAT', 00H ; `string'
CONST	ENDS
;	COMDAT ??_C@_0BF@KBMPCBGC@MISSION_BEGIN_COMBAT?$AA@
CONST	SEGMENT
??_C@_0BF@KBMPCBGC@MISSION_BEGIN_COMBAT?$AA@ DB 'MISSION_BEGIN_COMBAT', 00H ; `string'
CONST	ENDS
;	COMDAT ??_C@_0BG@EKNAJPN@MISSION_DIE_ANIMATION?$AA@
CONST	SEGMENT
??_C@_0BG@EKNAJPN@MISSION_DIE_ANIMATION?$AA@ DB 'MISSION_DIE_ANIMATION', 00H ; `string'
CONST	ENDS
;	COMDAT ??_C@_0N@KLHLOCAN@MISSION_LEAD?$AA@
CONST	SEGMENT
??_C@_0N@KLHLOCAN@MISSION_LEAD?$AA@ DB 'MISSION_LEAD', 00H ; `string'
CONST	ENDS
;	COMDAT ??_C@_0O@HLECACPL@MISSION_BUILD?$AA@
CONST	SEGMENT
??_C@_0O@HLECACPL@MISSION_BUILD?$AA@ DB 'MISSION_BUILD', 00H ; `string'
CONST	ENDS
;	COMDAT ??_C@_0BD@IEJECC@MISSION_GOLDEN_AGE?$AA@
CONST	SEGMENT
??_C@_0BD@IEJECC@MISSION_GOLDEN_AGE?$AA@ DB 'MISSION_GOLDEN_AGE', 00H ; `string'
CONST	ENDS
;	COMDAT ??_C@_0BH@NPEBMGMP@MISSION_FOUND_RELIGION?$AA@
CONST	SEGMENT
??_C@_0BH@NPEBMGMP@MISSION_FOUND_RELIGION?$AA@ DB 'MISSION_FOUND_RELIGION'
	DB	00H						; `string'
CONST	ENDS
;	COMDAT ??_C@_0BF@DBBOGFGE@MISSION_CULTURE_BOMB?$AA@
CONST	SEGMENT
??_C@_0BF@DBBOGFGE@MISSION_CULTURE_BOMB?$AA@ DB 'MISSION_CULTURE_BOMB', 00H ; `string'
CONST	ENDS
;	COMDAT ??_C@_0BC@NPJCPJEJ@MISSION_SPACESHIP?$AA@
CONST	SEGMENT
??_C@_0BC@NPJCPJEJ@MISSION_SPACESHIP?$AA@ DB 'MISSION_SPACESHIP', 00H ; `string'
CONST	ENDS
;	COMDAT ??_C@_0BF@FOHJHALL@MISSION_REPAIR_FLEET?$AA@
CONST	SEGMENT
??_C@_0BF@FOHJHALL@MISSION_REPAIR_FLEET?$AA@ DB 'MISSION_REPAIR_FLEET', 00H ; `string'
CONST	ENDS
;	COMDAT ??_C@_0BH@FCDCBDLI@MISSION_BUY_CITY_STATE?$AA@
CONST	SEGMENT
??_C@_0BH@FCDCBDLI@MISSION_BUY_CITY_STATE?$AA@ DB 'MISSION_BUY_CITY_STATE'
	DB	00H						; `string'
CONST	ENDS
;	COMDAT ??_C@_0O@MOFBHHHL@MISSION_TRADE?$AA@
CONST	SEGMENT
??_C@_0O@MOFBHHHL@MISSION_TRADE?$AA@ DB 'MISSION_TRADE', 00H ; `string'
CONST	ENDS
;	COMDAT ??_C@_0O@LEBFBDGF@MISSION_HURRY?$AA@
CONST	SEGMENT
??_C@_0O@LEBFBDGF@MISSION_HURRY?$AA@ DB 'MISSION_HURRY', 00H ; `string'
CONST	ENDS
;	COMDAT ??_C@_0BB@BOOJODFN@MISSION_DISCOVER?$AA@
CONST	SEGMENT
??_C@_0BB@BOOJODFN@MISSION_DISCOVER?$AA@ DB 'MISSION_DISCOVER', 00H ; `string'
CONST	ENDS
;	COMDAT ??_C@_0BC@LNJEMHN@MISSION_CONSTRUCT?$AA@
CONST	SEGMENT
??_C@_0BC@LNJEMHN@MISSION_CONSTRUCT?$AA@ DB 'MISSION_CONSTRUCT', 00H ; `string'
CONST	ENDS
;	COMDAT ??_C@_0N@LPHKEOPL@MISSION_JOIN?$AA@
CONST	SEGMENT
??_C@_0N@LPHKEOPL@MISSION_JOIN?$AA@ DB 'MISSION_JOIN', 00H ; `string'
CONST	ENDS
;	COMDAT ??_C@_0O@NDMIPDIH@MISSION_FOUND?$AA@
CONST	SEGMENT
??_C@_0O@NDMIPDIH@MISSION_FOUND?$AA@ DB 'MISSION_FOUND', 00H ; `string'
CONST	ENDS
;	COMDAT ??_C@_0BA@BIGOKDHA@MISSION_PILLAGE?$AA@
CONST	SEGMENT
??_C@_0BA@BIGOKDHA@MISSION_PILLAGE?$AA@ DB 'MISSION_PILLAGE', 00H ; `string'
CONST	ENDS
;	COMDAT ??_C@_0BF@LOAKEPLA@MISSION_RANGE_ATTACK?$AA@
CONST	SEGMENT
??_C@_0BF@LOAKEPLA@MISSION_RANGE_ATTACK?$AA@ DB 'MISSION_RANGE_ATTACK', 00H ; `string'
CONST	ENDS
;	COMDAT ??_C@_0P@FPMBBALK@MISSION_REBASE?$AA@
CONST	SEGMENT
??_C@_0P@FPMBBALK@MISSION_REBASE?$AA@ DB 'MISSION_REBASE', 00H ; `string'
CONST	ENDS
;	COMDAT ??_C@_0BC@HFJPPKDL@MISSION_AIR_SWEEP?$AA@
CONST	SEGMENT
??_C@_0BC@HFJPPKDL@MISSION_AIR_SWEEP?$AA@ DB 'MISSION_AIR_SWEEP', 00H ; `string'
CONST	ENDS
;	COMDAT ??_C@_0BB@BAIMAADI@MISSION_PARADROP?$AA@
CONST	SEGMENT
??_C@_0BB@BAIMAADI@MISSION_PARADROP?$AA@ DB 'MISSION_PARADROP', 00H ; `string'
CONST	ENDS
;	COMDAT ??_C@_0N@JFCOFCGF@MISSION_NUKE?$AA@
CONST	SEGMENT
??_C@_0N@JFCOFCGF@MISSION_NUKE?$AA@ DB 'MISSION_NUKE', 00H ; `string'
CONST	ENDS
;	COMDAT ??_C@_0BA@GAMJAOG@MISSION_AIRLIFT?$AA@
CONST	SEGMENT
??_C@_0BA@GAMJAOG@MISSION_AIRLIFT?$AA@ DB 'MISSION_AIRLIFT', 00H ; `string'
CONST	ENDS
;	COMDAT ??_C@_0N@JGCCMOMF@MISSION_HEAL?$AA@
CONST	SEGMENT
??_C@_0N@JGCCMOMF@MISSION_HEAL?$AA@ DB 'MISSION_HEAL', 00H ; `string'
CONST	ENDS
;	COMDAT ??_C@_0BC@KMEHOEDP@MISSION_AIRPATROL?$AA@
CONST	SEGMENT
??_C@_0BC@KMEHOEDP@MISSION_AIRPATROL?$AA@ DB 'MISSION_AIRPATROL', 00H ; `string'
CONST	ENDS
;	COMDAT ??_C@_0BC@DCFDGAEA@MISSION_DISEMBARK?$AA@
CONST	SEGMENT
??_C@_0BC@DCFDGAEA@MISSION_DISEMBARK?$AA@ DB 'MISSION_DISEMBARK', 00H ; `string'
CONST	ENDS
;	COMDAT ??_C@_0P@IOKKHHCO@MISSION_EMBARK?$AA@
CONST	SEGMENT
??_C@_0P@IOKKHHCO@MISSION_EMBARK?$AA@ DB 'MISSION_EMBARK', 00H ; `string'
CONST	ENDS
;	COMDAT ??_C@_0CB@GCBCFJNP@MISSION_SET_UP_FOR_RANGED_ATTACK@
CONST	SEGMENT
??_C@_0CB@GCBCFJNP@MISSION_SET_UP_FOR_RANGED_ATTACK@ DB 'MISSION_SET_UP_F'
	DB	'OR_RANGED_ATTACK', 00H			; `string'
CONST	ENDS
;	COMDAT ??_C@_0BB@MJACMDLO@MISSION_GARRISON?$AA@
CONST	SEGMENT
??_C@_0BB@MJACMDLO@MISSION_GARRISON?$AA@ DB 'MISSION_GARRISON', 00H ; `string'
CONST	ENDS
;	COMDAT ??_C@_0BA@IKCHAOML@MISSION_FORTIFY?$AA@
CONST	SEGMENT
??_C@_0BA@IKCHAOML@MISSION_FORTIFY?$AA@ DB 'MISSION_FORTIFY', 00H ; `string'
CONST	ENDS
;	COMDAT ??_C@_0O@IGIKKGDF@MISSION_ALERT?$AA@
CONST	SEGMENT
??_C@_0O@IGIKKGDF@MISSION_ALERT?$AA@ DB 'MISSION_ALERT', 00H ; `string'
CONST	ENDS
;	COMDAT ??_C@_0O@LFJBHFFE@MISSION_SLEEP?$AA@
CONST	SEGMENT
??_C@_0O@LFJBHFFE@MISSION_SLEEP?$AA@ DB 'MISSION_SLEEP', 00H ; `string'
CONST	ENDS
;	COMDAT ??_C@_0N@IJKJBDIA@MISSION_SKIP?$AA@
CONST	SEGMENT
??_C@_0N@IJKJBDIA@MISSION_SKIP?$AA@ DB 'MISSION_SKIP', 00H ; `string'
CONST	ENDS
;	COMDAT ??_C@_0BD@BDBPDFAK@MISSION_SWAP_UNITS?$AA@
CONST	SEGMENT
??_C@_0BD@BDBPDFAK@MISSION_SWAP_UNITS?$AA@ DB 'MISSION_SWAP_UNITS', 00H ; `string'
CONST	ENDS
;	COMDAT ??_C@_0BF@CPDOPHHL@MISSION_MOVE_TO_UNIT?$AA@
CONST	SEGMENT
??_C@_0BF@CPDOPHHL@MISSION_MOVE_TO_UNIT?$AA@ DB 'MISSION_MOVE_TO_UNIT', 00H ; `string'
CONST	ENDS
;	COMDAT ??_C@_0BB@KPGPCEEI@MISSION_ROUTE_TO?$AA@
CONST	SEGMENT
??_C@_0BB@KPGPCEEI@MISSION_ROUTE_TO?$AA@ DB 'MISSION_ROUTE_TO', 00H ; `string'
CONST	ENDS
;	COMDAT ??_C@_0BA@GHBECEDD@MISSION_MOVE_TO?$AA@
CONST	SEGMENT
??_C@_0BA@GHBECEDD@MISSION_MOVE_TO?$AA@ DB 'MISSION_MOVE_TO', 00H ; `string'
CONST	ENDS
;	COMDAT ??_C@_0EO@LHBFGGEG@GreatWorkSlotType?5?9?5?$CFs?5is?5used?5i@
CONST	SEGMENT
??_C@_0EO@LHBFGGEG@GreatWorkSlotType?5?9?5?$CFs?5is?5used?5i@ DB 'GreatWo'
	DB	'rkSlotType - %s is used in the DLL but does not exist in the '
	DB	'database.', 00H				; `string'
CONST	ENDS
;	COMDAT ??_C@_0CE@MCMINNCJ@SELECT?5Type?0?5ID?5from?5GreatWorkSl@
CONST	SEGMENT
??_C@_0CE@MCMINNCJ@SELECT?5Type?0?5ID?5from?5GreatWorkSl@ DB 'SELECT Type'
	DB	', ID from GreatWorkSlots', 00H		; `string'
CONST	ENDS
;	COMDAT ??_C@_0BG@BDIEOOGE@GREAT_WORK_SLOT_MUSIC?$AA@
CONST	SEGMENT
??_C@_0BG@BDIEOOGE@GREAT_WORK_SLOT_MUSIC?$AA@ DB 'GREAT_WORK_SLOT_MUSIC', 00H ; `string'
CONST	ENDS
;	COMDAT ??_C@_0BL@MEMIEKNO@GREAT_WORK_SLOT_LITERATURE?$AA@
CONST	SEGMENT
??_C@_0BL@MEMIEKNO@GREAT_WORK_SLOT_LITERATURE?$AA@ DB 'GREAT_WORK_SLOT_LI'
	DB	'TERATURE', 00H				; `string'
CONST	ENDS
;	COMDAT ??_C@_0BN@CGPMDLDK@GREAT_WORK_SLOT_ART_ARTIFACT?$AA@
CONST	SEGMENT
??_C@_0BN@CGPMDLDK@GREAT_WORK_SLOT_ART_ARTIFACT?$AA@ DB 'GREAT_WORK_SLOT_'
	DB	'ART_ARTIFACT', 00H				; `string'
CONST	ENDS
;	COMDAT ??_C@_0N@GNBOCNM@Gamecore?4log?$AA@
CONST	SEGMENT
??_C@_0N@GNBOCNM@Gamecore?4log?$AA@ DB 'Gamecore.log', 00H ; `string'
CONST	ENDS
;	COMDAT ??_C@_0EJ@DFFLCDJG@ArtifactType?5?9?5?$CFs?5is?5used?5in?5the@
CONST	SEGMENT
??_C@_0EJ@DFFLCDJG@ArtifactType?5?9?5?$CFs?5is?5used?5in?5the@ DB 'Artifa'
	DB	'ctType - %s is used in the DLL but does not exist in the data'
	DB	'base.', 00H					; `string'
CONST	ENDS
;	COMDAT ??_C@_0CO@IBNCHGPL@SELECT?5Type?0?5ID?5from?5GreatWorkAr@
CONST	SEGMENT
??_C@_0CO@IBNCHGPL@SELECT?5Type?0?5ID?5from?5GreatWorkAr@ DB 'SELECT Type'
	DB	', ID from GreatWorkArtifactClasses', 00H	; `string'
CONST	ENDS
;	COMDAT ??_C@_0BB@IBFOPINB@ARTIFACT_WRITING?$AA@
CONST	SEGMENT
??_C@_0BB@IBFOPINB@ARTIFACT_WRITING?$AA@ DB 'ARTIFACT_WRITING', 00H ; `string'
CONST	ENDS
;	COMDAT ??_C@_0BE@POGCPAJA@ARTIFACT_RAZED_CITY?$AA@
CONST	SEGMENT
??_C@_0BE@POGCPAJA@ARTIFACT_RAZED_CITY?$AA@ DB 'ARTIFACT_RAZED_CITY', 00H ; `string'
CONST	ENDS
;	COMDAT ??_C@_0BG@EOLFDHMN@ARTIFACT_BATTLE_MELEE?$AA@
CONST	SEGMENT
??_C@_0BG@EOLFDHMN@ARTIFACT_BATTLE_MELEE?$AA@ DB 'ARTIFACT_BATTLE_MELEE', 00H ; `string'
CONST	ENDS
;	COMDAT ??_C@_0BH@KLEALEOB@ARTIFACT_BATTLE_RANGED?$AA@
CONST	SEGMENT
??_C@_0BH@KLEALEOB@ARTIFACT_BATTLE_RANGED?$AA@ DB 'ARTIFACT_BATTLE_RANGED'
	DB	00H						; `string'
CONST	ENDS
;	COMDAT ??_C@_0BI@EGCECJKF@ARTIFACT_BARBARIAN_CAMP?$AA@
CONST	SEGMENT
??_C@_0BI@EGCECJKF@ARTIFACT_BARBARIAN_CAMP?$AA@ DB 'ARTIFACT_BARBARIAN_CA'
	DB	'MP', 00H					; `string'
CONST	ENDS
;	COMDAT ??_C@_0BG@HMJJDBCN@ARTIFACT_ANCIENT_RUIN?$AA@
CONST	SEGMENT
??_C@_0BG@HMJJDBCN@ARTIFACT_ANCIENT_RUIN?$AA@ DB 'ARTIFACT_ANCIENT_RUIN', 00H ; `string'
CONST	ENDS
;	COMDAT xdata$x
xdata$x	SEGMENT
__ehfuncinfo$?AcquireTypes@CvTypes@@YAXAAVConnection@Database@@@Z DD 019930522H
	DD	095H
	DD	FLAT:__unwindtable$?AcquireTypes@CvTypes@@YAXAAVConnection@Database@@@Z
	DD	2 DUP(00H)
	DD	2 DUP(00H)
	DD	00H
	DD	01H
__unwindtable$?AcquireTypes@CvTypes@@YAXAAVConnection@Database@@@Z DD 0ffffffffH
	DD	FLAT:__unwindfunclet$?AcquireTypes@CvTypes@@YAXAAVConnection@Database@@@Z$0
	DD	00H
	DD	FLAT:__unwindfunclet$?AcquireTypes@CvTypes@@YAXAAVConnection@Database@@@Z$2
	DD	01H
	DD	FLAT:__unwindfunclet$?AcquireTypes@CvTypes@@YAXAAVConnection@Database@@@Z$3
	DD	00H
	DD	FLAT:__unwindfunclet$?AcquireTypes@CvTypes@@YAXAAVConnection@Database@@@Z$5
	DD	03H
	DD	FLAT:__unwindfunclet$?AcquireTypes@CvTypes@@YAXAAVConnection@Database@@@Z$6
	DD	00H
	DD	FLAT:__unwindfunclet$?AcquireTypes@CvTypes@@YAXAAVConnection@Database@@@Z$8
	DD	05H
	DD	FLAT:__unwindfunclet$?AcquireTypes@CvTypes@@YAXAAVConnection@Database@@@Z$9
	DD	00H
	DD	FLAT:__unwindfunclet$?AcquireTypes@CvTypes@@YAXAAVConnection@Database@@@Z$11
	DD	07H
	DD	FLAT:__unwindfunclet$?AcquireTypes@CvTypes@@YAXAAVConnection@Database@@@Z$12
	DD	00H
	DD	FLAT:__unwindfunclet$?AcquireTypes@CvTypes@@YAXAAVConnection@Database@@@Z$14
	DD	09H
	DD	FLAT:__unwindfunclet$?AcquireTypes@CvTypes@@YAXAAVConnection@Database@@@Z$15
	DD	00H
	DD	FLAT:__unwindfunclet$?AcquireTypes@CvTypes@@YAXAAVConnection@Database@@@Z$17
	DD	0bH
	DD	FLAT:__unwindfunclet$?AcquireTypes@CvTypes@@YAXAAVConnection@Database@@@Z$18
	DD	00H
	DD	FLAT:__unwindfunclet$?AcquireTypes@CvTypes@@YAXAAVConnection@Database@@@Z$19
	DD	0dH
	DD	FLAT:__unwindfunclet$?AcquireTypes@CvTypes@@YAXAAVConnection@Database@@@Z$20
	DD	0ffffffffH
	DD	FLAT:__unwindfunclet$?AcquireTypes@CvTypes@@YAXAAVConnection@Database@@@Z$230
	DD	0fH
	DD	FLAT:__unwindfunclet$?AcquireTypes@CvTypes@@YAXAAVConnection@Database@@@Z$232
	DD	0ffffffffH
	DD	FLAT:__unwindfunclet$?AcquireTypes@CvTypes@@YAXAAVConnection@Database@@@Z$234
	DD	0ffffffffH
	DD	FLAT:__unwindfunclet$?AcquireTypes@CvTypes@@YAXAAVConnection@Database@@@Z$21
	DD	012H
	DD	FLAT:__unwindfunclet$?AcquireTypes@CvTypes@@YAXAAVConnection@Database@@@Z$23
	DD	013H
	DD	FLAT:__unwindfunclet$?AcquireTypes@CvTypes@@YAXAAVConnection@Database@@@Z$24
	DD	012H
	DD	FLAT:__unwindfunclet$?AcquireTypes@CvTypes@@YAXAAVConnection@Database@@@Z$26
	DD	015H
	DD	FLAT:__unwindfunclet$?AcquireTypes@CvTypes@@YAXAAVConnection@Database@@@Z$27
	DD	012H
	DD	FLAT:__unwindfunclet$?AcquireTypes@CvTypes@@YAXAAVConnection@Database@@@Z$29
	DD	017H
	DD	FLAT:__unwindfunclet$?AcquireTypes@CvTypes@@YAXAAVConnection@Database@@@Z$30
	DD	012H
	DD	FLAT:__unwindfunclet$?AcquireTypes@CvTypes@@YAXAAVConnection@Database@@@Z$31
	DD	019H
	DD	FLAT:__unwindfunclet$?AcquireTypes@CvTypes@@YAXAAVConnection@Database@@@Z$32
	DD	0ffffffffH
	DD	FLAT:__unwindfunclet$?AcquireTypes@CvTypes@@YAXAAVConnection@Database@@@Z$249
	DD	01bH
	DD	FLAT:__unwindfunclet$?AcquireTypes@CvTypes@@YAXAAVConnection@Database@@@Z$251
	DD	0ffffffffH
	DD	FLAT:__unwindfunclet$?AcquireTypes@CvTypes@@YAXAAVConnection@Database@@@Z$253
	DD	0ffffffffH
	DD	FLAT:__unwindfunclet$?AcquireTypes@CvTypes@@YAXAAVConnection@Database@@@Z$33
	DD	01eH
	DD	FLAT:__unwindfunclet$?AcquireTypes@CvTypes@@YAXAAVConnection@Database@@@Z$35
	DD	01fH
	DD	FLAT:__unwindfunclet$?AcquireTypes@CvTypes@@YAXAAVConnection@Database@@@Z$36
	DD	01eH
	DD	FLAT:__unwindfunclet$?AcquireTypes@CvTypes@@YAXAAVConnection@Database@@@Z$38
	DD	021H
	DD	FLAT:__unwindfunclet$?AcquireTypes@CvTypes@@YAXAAVConnection@Database@@@Z$39
	DD	01eH
	DD	FLAT:__unwindfunclet$?AcquireTypes@CvTypes@@YAXAAVConnection@Database@@@Z$41
	DD	023H
	DD	FLAT:__unwindfunclet$?AcquireTypes@CvTypes@@YAXAAVConnection@Database@@@Z$42
	DD	01eH
	DD	FLAT:__unwindfunclet$?AcquireTypes@CvTypes@@YAXAAVConnection@Database@@@Z$44
	DD	025H
	DD	FLAT:__unwindfunclet$?AcquireTypes@CvTypes@@YAXAAVConnection@Database@@@Z$45
	DD	01eH
	DD	FLAT:__unwindfunclet$?AcquireTypes@CvTypes@@YAXAAVConnection@Database@@@Z$47
	DD	027H
	DD	FLAT:__unwindfunclet$?AcquireTypes@CvTypes@@YAXAAVConnection@Database@@@Z$48
	DD	01eH
	DD	FLAT:__unwindfunclet$?AcquireTypes@CvTypes@@YAXAAVConnection@Database@@@Z$50
	DD	029H
	DD	FLAT:__unwindfunclet$?AcquireTypes@CvTypes@@YAXAAVConnection@Database@@@Z$51
	DD	01eH
	DD	FLAT:__unwindfunclet$?AcquireTypes@CvTypes@@YAXAAVConnection@Database@@@Z$53
	DD	02bH
	DD	FLAT:__unwindfunclet$?AcquireTypes@CvTypes@@YAXAAVConnection@Database@@@Z$54
	DD	01eH
	DD	FLAT:__unwindfunclet$?AcquireTypes@CvTypes@@YAXAAVConnection@Database@@@Z$56
	DD	02dH
	DD	FLAT:__unwindfunclet$?AcquireTypes@CvTypes@@YAXAAVConnection@Database@@@Z$57
	DD	01eH
	DD	FLAT:__unwindfunclet$?AcquireTypes@CvTypes@@YAXAAVConnection@Database@@@Z$59
	DD	02fH
	DD	FLAT:__unwindfunclet$?AcquireTypes@CvTypes@@YAXAAVConnection@Database@@@Z$60
	DD	01eH
	DD	FLAT:__unwindfunclet$?AcquireTypes@CvTypes@@YAXAAVConnection@Database@@@Z$62
	DD	031H
	DD	FLAT:__unwindfunclet$?AcquireTypes@CvTypes@@YAXAAVConnection@Database@@@Z$63
	DD	01eH
	DD	FLAT:__unwindfunclet$?AcquireTypes@CvTypes@@YAXAAVConnection@Database@@@Z$65
	DD	033H
	DD	FLAT:__unwindfunclet$?AcquireTypes@CvTypes@@YAXAAVConnection@Database@@@Z$66
	DD	01eH
	DD	FLAT:__unwindfunclet$?AcquireTypes@CvTypes@@YAXAAVConnection@Database@@@Z$68
	DD	035H
	DD	FLAT:__unwindfunclet$?AcquireTypes@CvTypes@@YAXAAVConnection@Database@@@Z$69
	DD	01eH
	DD	FLAT:__unwindfunclet$?AcquireTypes@CvTypes@@YAXAAVConnection@Database@@@Z$71
	DD	037H
	DD	FLAT:__unwindfunclet$?AcquireTypes@CvTypes@@YAXAAVConnection@Database@@@Z$72
	DD	01eH
	DD	FLAT:__unwindfunclet$?AcquireTypes@CvTypes@@YAXAAVConnection@Database@@@Z$74
	DD	039H
	DD	FLAT:__unwindfunclet$?AcquireTypes@CvTypes@@YAXAAVConnection@Database@@@Z$75
	DD	01eH
	DD	FLAT:__unwindfunclet$?AcquireTypes@CvTypes@@YAXAAVConnection@Database@@@Z$77
	DD	03bH
	DD	FLAT:__unwindfunclet$?AcquireTypes@CvTypes@@YAXAAVConnection@Database@@@Z$78
	DD	01eH
	DD	FLAT:__unwindfunclet$?AcquireTypes@CvTypes@@YAXAAVConnection@Database@@@Z$80
	DD	03dH
	DD	FLAT:__unwindfunclet$?AcquireTypes@CvTypes@@YAXAAVConnection@Database@@@Z$81
	DD	01eH
	DD	FLAT:__unwindfunclet$?AcquireTypes@CvTypes@@YAXAAVConnection@Database@@@Z$83
	DD	03fH
	DD	FLAT:__unwindfunclet$?AcquireTypes@CvTypes@@YAXAAVConnection@Database@@@Z$84
	DD	01eH
	DD	FLAT:__unwindfunclet$?AcquireTypes@CvTypes@@YAXAAVConnection@Database@@@Z$86
	DD	041H
	DD	FLAT:__unwindfunclet$?AcquireTypes@CvTypes@@YAXAAVConnection@Database@@@Z$87
	DD	01eH
	DD	FLAT:__unwindfunclet$?AcquireTypes@CvTypes@@YAXAAVConnection@Database@@@Z$89
	DD	043H
	DD	FLAT:__unwindfunclet$?AcquireTypes@CvTypes@@YAXAAVConnection@Database@@@Z$90
	DD	01eH
	DD	FLAT:__unwindfunclet$?AcquireTypes@CvTypes@@YAXAAVConnection@Database@@@Z$92
	DD	045H
	DD	FLAT:__unwindfunclet$?AcquireTypes@CvTypes@@YAXAAVConnection@Database@@@Z$93
	DD	01eH
	DD	FLAT:__unwindfunclet$?AcquireTypes@CvTypes@@YAXAAVConnection@Database@@@Z$95
	DD	047H
	DD	FLAT:__unwindfunclet$?AcquireTypes@CvTypes@@YAXAAVConnection@Database@@@Z$96
	DD	01eH
	DD	FLAT:__unwindfunclet$?AcquireTypes@CvTypes@@YAXAAVConnection@Database@@@Z$98
	DD	049H
	DD	FLAT:__unwindfunclet$?AcquireTypes@CvTypes@@YAXAAVConnection@Database@@@Z$99
	DD	01eH
	DD	FLAT:__unwindfunclet$?AcquireTypes@CvTypes@@YAXAAVConnection@Database@@@Z$101
	DD	04bH
	DD	FLAT:__unwindfunclet$?AcquireTypes@CvTypes@@YAXAAVConnection@Database@@@Z$102
	DD	01eH
	DD	FLAT:__unwindfunclet$?AcquireTypes@CvTypes@@YAXAAVConnection@Database@@@Z$104
	DD	04dH
	DD	FLAT:__unwindfunclet$?AcquireTypes@CvTypes@@YAXAAVConnection@Database@@@Z$105
	DD	01eH
	DD	FLAT:__unwindfunclet$?AcquireTypes@CvTypes@@YAXAAVConnection@Database@@@Z$107
	DD	04fH
	DD	FLAT:__unwindfunclet$?AcquireTypes@CvTypes@@YAXAAVConnection@Database@@@Z$108
	DD	01eH
	DD	FLAT:__unwindfunclet$?AcquireTypes@CvTypes@@YAXAAVConnection@Database@@@Z$110
	DD	051H
	DD	FLAT:__unwindfunclet$?AcquireTypes@CvTypes@@YAXAAVConnection@Database@@@Z$111
	DD	01eH
	DD	FLAT:__unwindfunclet$?AcquireTypes@CvTypes@@YAXAAVConnection@Database@@@Z$113
	DD	053H
	DD	FLAT:__unwindfunclet$?AcquireTypes@CvTypes@@YAXAAVConnection@Database@@@Z$114
	DD	01eH
	DD	FLAT:__unwindfunclet$?AcquireTypes@CvTypes@@YAXAAVConnection@Database@@@Z$116
	DD	055H
	DD	FLAT:__unwindfunclet$?AcquireTypes@CvTypes@@YAXAAVConnection@Database@@@Z$117
	DD	01eH
	DD	FLAT:__unwindfunclet$?AcquireTypes@CvTypes@@YAXAAVConnection@Database@@@Z$119
	DD	057H
	DD	FLAT:__unwindfunclet$?AcquireTypes@CvTypes@@YAXAAVConnection@Database@@@Z$120
	DD	01eH
	DD	FLAT:__unwindfunclet$?AcquireTypes@CvTypes@@YAXAAVConnection@Database@@@Z$122
	DD	059H
	DD	FLAT:__unwindfunclet$?AcquireTypes@CvTypes@@YAXAAVConnection@Database@@@Z$123
	DD	01eH
	DD	FLAT:__unwindfunclet$?AcquireTypes@CvTypes@@YAXAAVConnection@Database@@@Z$125
	DD	05bH
	DD	FLAT:__unwindfunclet$?AcquireTypes@CvTypes@@YAXAAVConnection@Database@@@Z$126
	DD	01eH
	DD	FLAT:__unwindfunclet$?AcquireTypes@CvTypes@@YAXAAVConnection@Database@@@Z$128
	DD	05dH
	DD	FLAT:__unwindfunclet$?AcquireTypes@CvTypes@@YAXAAVConnection@Database@@@Z$129
	DD	01eH
	DD	FLAT:__unwindfunclet$?AcquireTypes@CvTypes@@YAXAAVConnection@Database@@@Z$131
	DD	05fH
	DD	FLAT:__unwindfunclet$?AcquireTypes@CvTypes@@YAXAAVConnection@Database@@@Z$132
	DD	01eH
	DD	FLAT:__unwindfunclet$?AcquireTypes@CvTypes@@YAXAAVConnection@Database@@@Z$134
	DD	061H
	DD	FLAT:__unwindfunclet$?AcquireTypes@CvTypes@@YAXAAVConnection@Database@@@Z$135
	DD	01eH
	DD	FLAT:__unwindfunclet$?AcquireTypes@CvTypes@@YAXAAVConnection@Database@@@Z$137
	DD	063H
	DD	FLAT:__unwindfunclet$?AcquireTypes@CvTypes@@YAXAAVConnection@Database@@@Z$138
	DD	01eH
	DD	FLAT:__unwindfunclet$?AcquireTypes@CvTypes@@YAXAAVConnection@Database@@@Z$140
	DD	065H
	DD	FLAT:__unwindfunclet$?AcquireTypes@CvTypes@@YAXAAVConnection@Database@@@Z$141
	DD	01eH
	DD	FLAT:__unwindfunclet$?AcquireTypes@CvTypes@@YAXAAVConnection@Database@@@Z$143
	DD	067H
	DD	FLAT:__unwindfunclet$?AcquireTypes@CvTypes@@YAXAAVConnection@Database@@@Z$144
	DD	01eH
	DD	FLAT:__unwindfunclet$?AcquireTypes@CvTypes@@YAXAAVConnection@Database@@@Z$146
	DD	069H
	DD	FLAT:__unwindfunclet$?AcquireTypes@CvTypes@@YAXAAVConnection@Database@@@Z$147
	DD	01eH
	DD	FLAT:__unwindfunclet$?AcquireTypes@CvTypes@@YAXAAVConnection@Database@@@Z$149
	DD	06bH
	DD	FLAT:__unwindfunclet$?AcquireTypes@CvTypes@@YAXAAVConnection@Database@@@Z$150
	DD	01eH
	DD	FLAT:__unwindfunclet$?AcquireTypes@CvTypes@@YAXAAVConnection@Database@@@Z$152
	DD	06dH
	DD	FLAT:__unwindfunclet$?AcquireTypes@CvTypes@@YAXAAVConnection@Database@@@Z$153
	DD	01eH
	DD	FLAT:__unwindfunclet$?AcquireTypes@CvTypes@@YAXAAVConnection@Database@@@Z$155
	DD	06fH
	DD	FLAT:__unwindfunclet$?AcquireTypes@CvTypes@@YAXAAVConnection@Database@@@Z$156
	DD	01eH
	DD	FLAT:__unwindfunclet$?AcquireTypes@CvTypes@@YAXAAVConnection@Database@@@Z$158
	DD	071H
	DD	FLAT:__unwindfunclet$?AcquireTypes@CvTypes@@YAXAAVConnection@Database@@@Z$159
	DD	01eH
	DD	FLAT:__unwindfunclet$?AcquireTypes@CvTypes@@YAXAAVConnection@Database@@@Z$161
	DD	073H
	DD	FLAT:__unwindfunclet$?AcquireTypes@CvTypes@@YAXAAVConnection@Database@@@Z$162
	DD	01eH
	DD	FLAT:__unwindfunclet$?AcquireTypes@CvTypes@@YAXAAVConnection@Database@@@Z$164
	DD	075H
	DD	FLAT:__unwindfunclet$?AcquireTypes@CvTypes@@YAXAAVConnection@Database@@@Z$165
	DD	01eH
	DD	FLAT:__unwindfunclet$?AcquireTypes@CvTypes@@YAXAAVConnection@Database@@@Z$167
	DD	077H
	DD	FLAT:__unwindfunclet$?AcquireTypes@CvTypes@@YAXAAVConnection@Database@@@Z$168
	DD	01eH
	DD	FLAT:__unwindfunclet$?AcquireTypes@CvTypes@@YAXAAVConnection@Database@@@Z$170
	DD	079H
	DD	FLAT:__unwindfunclet$?AcquireTypes@CvTypes@@YAXAAVConnection@Database@@@Z$171
	DD	01eH
	DD	FLAT:__unwindfunclet$?AcquireTypes@CvTypes@@YAXAAVConnection@Database@@@Z$173
	DD	07bH
	DD	FLAT:__unwindfunclet$?AcquireTypes@CvTypes@@YAXAAVConnection@Database@@@Z$174
	DD	01eH
	DD	FLAT:__unwindfunclet$?AcquireTypes@CvTypes@@YAXAAVConnection@Database@@@Z$176
	DD	07dH
	DD	FLAT:__unwindfunclet$?AcquireTypes@CvTypes@@YAXAAVConnection@Database@@@Z$177
	DD	01eH
	DD	FLAT:__unwindfunclet$?AcquireTypes@CvTypes@@YAXAAVConnection@Database@@@Z$179
	DD	07fH
	DD	FLAT:__unwindfunclet$?AcquireTypes@CvTypes@@YAXAAVConnection@Database@@@Z$180
	DD	01eH
	DD	FLAT:__unwindfunclet$?AcquireTypes@CvTypes@@YAXAAVConnection@Database@@@Z$182
	DD	081H
	DD	FLAT:__unwindfunclet$?AcquireTypes@CvTypes@@YAXAAVConnection@Database@@@Z$183
	DD	01eH
	DD	FLAT:__unwindfunclet$?AcquireTypes@CvTypes@@YAXAAVConnection@Database@@@Z$185
	DD	083H
	DD	FLAT:__unwindfunclet$?AcquireTypes@CvTypes@@YAXAAVConnection@Database@@@Z$186
	DD	01eH
	DD	FLAT:__unwindfunclet$?AcquireTypes@CvTypes@@YAXAAVConnection@Database@@@Z$188
	DD	085H
	DD	FLAT:__unwindfunclet$?AcquireTypes@CvTypes@@YAXAAVConnection@Database@@@Z$189
	DD	01eH
	DD	FLAT:__unwindfunclet$?AcquireTypes@CvTypes@@YAXAAVConnection@Database@@@Z$191
	DD	087H
	DD	FLAT:__unwindfunclet$?AcquireTypes@CvTypes@@YAXAAVConnection@Database@@@Z$192
	DD	01eH
	DD	FLAT:__unwindfunclet$?AcquireTypes@CvTypes@@YAXAAVConnection@Database@@@Z$194
	DD	089H
	DD	FLAT:__unwindfunclet$?AcquireTypes@CvTypes@@YAXAAVConnection@Database@@@Z$195
	DD	01eH
	DD	FLAT:__unwindfunclet$?AcquireTypes@CvTypes@@YAXAAVConnection@Database@@@Z$197
	DD	08bH
	DD	FLAT:__unwindfunclet$?AcquireTypes@CvTypes@@YAXAAVConnection@Database@@@Z$198
	DD	01eH
	DD	FLAT:__unwindfunclet$?AcquireTypes@CvTypes@@YAXAAVConnection@Database@@@Z$200
	DD	08dH
	DD	FLAT:__unwindfunclet$?AcquireTypes@CvTypes@@YAXAAVConnection@Database@@@Z$201
	DD	01eH
	DD	FLAT:__unwindfunclet$?AcquireTypes@CvTypes@@YAXAAVConnection@Database@@@Z$203
	DD	08fH
	DD	FLAT:__unwindfunclet$?AcquireTypes@CvTypes@@YAXAAVConnection@Database@@@Z$204
	DD	01eH
	DD	FLAT:__unwindfunclet$?AcquireTypes@CvTypes@@YAXAAVConnection@Database@@@Z$206
	DD	091H
	DD	FLAT:__unwindfunclet$?AcquireTypes@CvTypes@@YAXAAVConnection@Database@@@Z$207
	DD	01eH
	DD	FLAT:__unwindfunclet$?AcquireTypes@CvTypes@@YAXAAVConnection@Database@@@Z$208
	DD	093H
	DD	FLAT:__unwindfunclet$?AcquireTypes@CvTypes@@YAXAAVConnection@Database@@@Z$209
; Function compile flags: /Odtp
; File d:\sources\lekmod_git\checkout\lekmod_dll\cvgamecoredll_expansion2\cvtypes.cpp
xdata$x	ENDS
;	COMDAT ?AcquireTypes@CvTypes@@YAXAAVConnection@Database@@@Z
_TEXT	SEGMENT
tv2858 = -8052						; size = 4
tv3341 = -8048						; size = 4
tv3340 = -8044						; size = 4
tv3334 = -8040						; size = 4
tv3333 = -8036						; size = 4
tv3327 = -8032						; size = 4
tv3326 = -8028						; size = 4
tv3320 = -8024						; size = 4
tv3319 = -8020						; size = 4
tv3313 = -8016						; size = 4
tv3312 = -8012						; size = 4
tv3306 = -8008						; size = 4
tv3305 = -8004						; size = 4
tv3299 = -8000						; size = 4
tv3298 = -7996						; size = 4
tv3292 = -7992						; size = 4
tv3291 = -7988						; size = 4
tv3285 = -7984						; size = 4
tv3284 = -7980						; size = 4
tv3278 = -7976						; size = 4
tv3277 = -7972						; size = 4
tv3271 = -7968						; size = 4
tv3270 = -7964						; size = 4
tv3264 = -7960						; size = 4
tv3263 = -7956						; size = 4
tv3257 = -7952						; size = 4
tv3256 = -7948						; size = 4
tv3250 = -7944						; size = 4
tv3249 = -7940						; size = 4
tv3243 = -7936						; size = 4
tv3242 = -7932						; size = 4
tv3236 = -7928						; size = 4
tv3235 = -7924						; size = 4
tv3229 = -7920						; size = 4
tv3228 = -7916						; size = 4
tv3222 = -7912						; size = 4
tv3221 = -7908						; size = 4
tv3215 = -7904						; size = 4
tv3214 = -7900						; size = 4
tv3208 = -7896						; size = 4
tv3207 = -7892						; size = 4
tv3201 = -7888						; size = 4
tv3200 = -7884						; size = 4
tv3194 = -7880						; size = 4
tv3193 = -7876						; size = 4
tv3187 = -7872						; size = 4
tv3186 = -7868						; size = 4
tv3180 = -7864						; size = 4
tv3179 = -7860						; size = 4
tv3173 = -7856						; size = 4
tv3172 = -7852						; size = 4
tv3166 = -7848						; size = 4
tv3165 = -7844						; size = 4
tv3159 = -7840						; size = 4
tv3158 = -7836						; size = 4
tv3152 = -7832						; size = 4
tv3151 = -7828						; size = 4
tv3145 = -7824						; size = 4
tv3144 = -7820						; size = 4
tv3138 = -7816						; size = 4
tv3137 = -7812						; size = 4
tv3131 = -7808						; size = 4
tv3130 = -7804						; size = 4
tv3124 = -7800						; size = 4
tv3123 = -7796						; size = 4
tv3117 = -7792						; size = 4
tv3116 = -7788						; size = 4
tv3110 = -7784						; size = 4
tv3109 = -7780						; size = 4
tv3103 = -7776						; size = 4
tv3102 = -7772						; size = 4
tv3096 = -7768						; size = 4
tv3095 = -7764						; size = 4
tv3089 = -7760						; size = 4
tv3088 = -7756						; size = 4
tv3082 = -7752						; size = 4
tv3081 = -7748						; size = 4
tv3075 = -7744						; size = 4
tv3074 = -7740						; size = 4
tv3068 = -7736						; size = 4
tv3067 = -7732						; size = 4
tv3061 = -7728						; size = 4
tv3060 = -7724						; size = 4
tv3054 = -7720						; size = 4
tv3053 = -7716						; size = 4
tv3047 = -7712						; size = 4
tv3046 = -7708						; size = 4
tv3040 = -7704						; size = 4
tv3039 = -7700						; size = 4
tv3033 = -7696						; size = 4
tv3032 = -7692						; size = 4
tv3026 = -7688						; size = 4
tv3025 = -7684						; size = 4
tv3019 = -7680						; size = 4
tv3018 = -7676						; size = 4
tv3012 = -7672						; size = 4
tv3011 = -7668						; size = 4
tv3005 = -7664						; size = 4
tv3004 = -7660						; size = 4
tv2998 = -7656						; size = 4
tv2997 = -7652						; size = 4
tv2991 = -7648						; size = 4
tv2990 = -7644						; size = 4
tv2984 = -7640						; size = 4
tv2983 = -7636						; size = 4
tv2977 = -7632						; size = 4
tv2976 = -7628						; size = 4
tv2970 = -7624						; size = 4
tv2969 = -7620						; size = 4
tv2963 = -7616						; size = 4
tv2962 = -7612						; size = 4
tv2956 = -7608						; size = 4
tv2955 = -7604						; size = 4
tv2949 = -7600						; size = 4
tv2948 = -7596						; size = 4
tv2942 = -7592						; size = 4
tv2941 = -7588						; size = 4
tv615 = -7584						; size = 4
tv2932 = -7580						; size = 4
tv2931 = -7576						; size = 4
tv2925 = -7572						; size = 4
tv2924 = -7568						; size = 4
tv2918 = -7564						; size = 4
tv2917 = -7560						; size = 4
tv411 = -7556						; size = 4
tv2908 = -7552						; size = 4
tv2907 = -7548						; size = 4
tv2901 = -7544						; size = 4
tv2900 = -7540						; size = 4
tv2894 = -7536						; size = 4
tv2893 = -7532						; size = 4
tv2887 = -7528						; size = 4
tv2886 = -7524						; size = 4
tv2880 = -7520						; size = 4
tv2879 = -7516						; size = 4
tv2873 = -7512						; size = 4
tv2872 = -7508						; size = 4
$T230799 = -7436					; size = 4
$T230728 = -7432					; size = 4
$T230684 = -7428					; size = 4
$T230675 = -7424					; size = 4
$T230669 = -7420					; size = 4
$T230622 = -7416					; size = 4
$T230155 = -7240					; size = 4
$T230435 = -7236					; size = 4
$T230142 = -7232					; size = 4
$T230104 = -7228					; size = 4
$T230121 = -7224					; size = 4
$T230091 = -7220					; size = 4
$T230053 = -7216					; size = 4
$T230070 = -7212					; size = 4
$T230040 = -7208					; size = 4
$T230002 = -7204					; size = 4
$T230019 = -7200					; size = 4
$T229989 = -7196					; size = 4
$T229951 = -7192					; size = 4
$T229968 = -7188					; size = 4
$T229938 = -7184					; size = 4
$T229900 = -7180					; size = 4
$T229917 = -7176					; size = 4
$T229887 = -7172					; size = 4
$T229849 = -7168					; size = 4
$T229866 = -7164					; size = 4
$T229836 = -7160					; size = 4
$T229798 = -7156					; size = 4
$T229815 = -7152					; size = 4
$T229785 = -7148					; size = 4
$T229747 = -7144					; size = 4
$T229764 = -7140					; size = 4
$T229734 = -7136					; size = 4
$T229696 = -7132					; size = 4
$T229713 = -7128					; size = 4
$T229683 = -7124					; size = 4
$T229645 = -7120					; size = 4
$T229661 = -7116					; size = 4
$T229632 = -7112					; size = 4
$T229594 = -7108					; size = 4
$T229610 = -7104					; size = 4
$T229581 = -7100					; size = 4
$T229543 = -7096					; size = 4
$T229559 = -7092					; size = 4
$T229530 = -7088					; size = 4
$T229492 = -7084					; size = 4
$T229508 = -7080					; size = 4
$T229479 = -7076					; size = 4
$T229441 = -7072					; size = 4
$T229457 = -7068					; size = 4
$T229428 = -7064					; size = 4
$T229390 = -7060					; size = 4
$T229406 = -7056					; size = 4
$T229377 = -7052					; size = 4
$T229339 = -7048					; size = 4
$T229356 = -7044					; size = 4
$T229326 = -7040					; size = 4
$T229288 = -7036					; size = 4
$T229305 = -7032					; size = 4
$T229275 = -7028					; size = 4
$T229237 = -7024					; size = 4
$T229254 = -7020					; size = 4
$T229224 = -7016					; size = 4
$T229186 = -7012					; size = 4
$T229203 = -7008					; size = 4
$T229173 = -7004					; size = 4
$T229135 = -7000					; size = 4
$T229152 = -6996					; size = 4
$T229122 = -6992					; size = 4
$T229084 = -6988					; size = 4
$T229101 = -6984					; size = 4
$T229071 = -6980					; size = 4
$T229033 = -6976					; size = 4
$T229050 = -6972					; size = 4
$T229020 = -6968					; size = 4
$T228982 = -6964					; size = 4
$T228999 = -6960					; size = 4
$T228969 = -6956					; size = 4
$T228931 = -6952					; size = 4
$T228948 = -6948					; size = 4
$T228918 = -6944					; size = 4
$T228880 = -6940					; size = 4
$T228897 = -6936					; size = 4
$T228867 = -6932					; size = 4
$T228829 = -6928					; size = 4
$T228846 = -6924					; size = 4
$T228816 = -6920					; size = 4
$T228778 = -6916					; size = 4
$T228795 = -6912					; size = 4
$T228765 = -6908					; size = 4
$T228727 = -6904					; size = 4
$T228744 = -6900					; size = 4
$T228714 = -6896					; size = 4
$T228676 = -6892					; size = 4
$T228693 = -6888					; size = 4
$T228663 = -6884					; size = 4
$T228625 = -6880					; size = 4
$T228641 = -6876					; size = 4
$T228612 = -6872					; size = 4
$T228574 = -6868					; size = 4
$T228590 = -6864					; size = 4
$T228561 = -6860					; size = 4
$T228523 = -6856					; size = 4
$T228539 = -6852					; size = 4
$T228510 = -6848					; size = 4
$T228472 = -6844					; size = 4
$T228488 = -6840					; size = 4
$T228459 = -6836					; size = 4
$T228421 = -6832					; size = 4
$T228437 = -6828					; size = 4
$T228408 = -6824					; size = 4
$T228370 = -6820					; size = 4
$T228386 = -6816					; size = 4
$T228357 = -6812					; size = 4
$T228319 = -6808					; size = 4
$T228336 = -6804					; size = 4
$T228306 = -6800					; size = 4
$T228268 = -6796					; size = 4
$T228285 = -6792					; size = 4
$T228255 = -6788					; size = 4
$T228217 = -6784					; size = 4
$T228234 = -6780					; size = 4
$T228204 = -6776					; size = 4
$T228166 = -6772					; size = 4
$T228183 = -6768					; size = 4
$T228153 = -6764					; size = 4
$T228115 = -6760					; size = 4
$T228132 = -6756					; size = 4
$T228102 = -6752					; size = 4
$T228064 = -6748					; size = 4
$T228081 = -6744					; size = 4
$T228051 = -6740					; size = 4
$T228013 = -6736					; size = 4
$T228030 = -6732					; size = 4
$T228000 = -6728					; size = 4
$T227962 = -6724					; size = 4
$T227979 = -6720					; size = 4
$T227949 = -6716					; size = 4
$T227911 = -6712					; size = 4
$T227928 = -6708					; size = 4
$T227898 = -6704					; size = 4
$T227860 = -6700					; size = 4
$T227877 = -6696					; size = 4
$T227847 = -6692					; size = 4
$T227809 = -6688					; size = 4
$T227826 = -6684					; size = 4
$T227796 = -6680					; size = 4
$T227758 = -6676					; size = 4
$T227775 = -6672					; size = 4
$T227745 = -6668					; size = 4
$T227707 = -6664					; size = 4
$T227724 = -6660					; size = 4
$T227694 = -6656					; size = 4
$T227656 = -6652					; size = 4
$T227673 = -6648					; size = 4
$T227643 = -6644					; size = 4
$T227605 = -6640					; size = 4
$T227621 = -6636					; size = 4
$T227592 = -6632					; size = 4
$T227554 = -6628					; size = 4
$T227570 = -6624					; size = 4
$T227541 = -6620					; size = 4
$T227503 = -6616					; size = 4
$T227519 = -6612					; size = 4
$T227490 = -6608					; size = 4
$T227452 = -6604					; size = 4
$T227468 = -6600					; size = 4
$T227439 = -6596					; size = 4
$T227401 = -6592					; size = 4
$T227417 = -6588					; size = 4
$T227388 = -6584					; size = 4
$T227350 = -6580					; size = 4
$T227366 = -6576					; size = 4
$T227337 = -6572					; size = 4
$T227299 = -6568					; size = 4
$T227316 = -6564					; size = 4
$T227286 = -6560					; size = 4
$T227248 = -6556					; size = 4
$T227265 = -6552					; size = 4
$T227235 = -6548					; size = 4
$T227226 = -6543					; size = 2
$T227225 = -6541					; size = 1
$T227174 = -6540					; size = 4
$T227134 = -6536					; size = 4
$T227111 = -6532					; size = 4
$T227040 = -6528					; size = 4
$T226996 = -6524					; size = 4
$T226987 = -6520					; size = 4
$T226981 = -6516					; size = 4
$T226934 = -6512					; size = 4
$T226887 = -6508					; size = 4
$T226904 = -6504					; size = 4
$T226874 = -6500					; size = 4
$T226836 = -6496					; size = 4
$T226853 = -6492					; size = 4
$T226823 = -6488					; size = 4
$T226785 = -6484					; size = 4
$T226802 = -6480					; size = 4
$T226772 = -6476					; size = 4
$T226763 = -6471					; size = 2
$T226762 = -6469					; size = 1
$T226711 = -6468					; size = 4
$T226671 = -6464					; size = 4
$T226648 = -6460					; size = 4
$T226577 = -6456					; size = 4
$T226533 = -6452					; size = 4
$T226524 = -6448					; size = 4
$T226518 = -6444					; size = 4
$T226471 = -6440					; size = 4
$T226424 = -6436					; size = 4
$T226440 = -6432					; size = 4
$T226411 = -6428					; size = 4
$T226373 = -6424					; size = 4
$T226389 = -6420					; size = 4
$T226360 = -6416					; size = 4
$T226322 = -6412					; size = 4
$T226338 = -6408					; size = 4
$T226309 = -6404					; size = 4
$T226271 = -6400					; size = 4
$T226288 = -6396					; size = 4
$T226258 = -6392					; size = 4
$T226220 = -6388					; size = 4
$T226237 = -6384					; size = 4
$T226207 = -6380					; size = 4
$T226169 = -6376					; size = 4
$T226186 = -6372					; size = 4
$T226156 = -6368					; size = 4
$T226147 = -6363					; size = 2
$T226146 = -6361					; size = 1
$T225923 = -6360					; size = 4
$T225922 = -6356					; size = 4
$T225921 = -6352					; size = 8
$T225920 = -6344					; size = 32
$T225919 = -6312					; size = 4
$T225918 = -6308					; size = 32
$T225917 = -6276					; size = 8
$T225916 = -6268					; size = 32
$T225915 = -6236					; size = 4
$T225914 = -6232					; size = 32
$T225913 = -6200					; size = 8
$T225912 = -6192					; size = 32
$T225911 = -6160					; size = 4
$T225910 = -6156					; size = 32
$T225909 = -6124					; size = 8
$T225908 = -6116					; size = 32
$T225907 = -6084					; size = 4
$T225906 = -6080					; size = 32
$T225905 = -6048					; size = 8
$T225904 = -6040					; size = 32
$T225903 = -6008					; size = 4
$T225902 = -6004					; size = 32
$T225901 = -5972					; size = 8
$T225900 = -5964					; size = 32
$T225899 = -5932					; size = 4
$T225898 = -5928					; size = 32
$T225897 = -5896					; size = 8
$T225896 = -5888					; size = 32
$T225895 = -5856					; size = 4
$T225894 = -5852					; size = 32
$T225893 = -5820					; size = 8
$T225892 = -5812					; size = 32
$T225891 = -5780					; size = 4
$T225890 = -5776					; size = 32
$T225889 = -5744					; size = 8
$T225888 = -5736					; size = 32
$T225887 = -5704					; size = 4
$T225886 = -5700					; size = 32
$T225885 = -5668					; size = 8
$T225884 = -5660					; size = 32
$T225883 = -5628					; size = 4
$T225882 = -5624					; size = 32
$T225881 = -5592					; size = 8
$T225880 = -5584					; size = 32
$T225879 = -5552					; size = 4
$T225878 = -5548					; size = 32
$T225877 = -5516					; size = 8
$T225876 = -5508					; size = 32
$T225875 = -5476					; size = 4
$T225874 = -5472					; size = 32
$T225873 = -5440					; size = 8
$T225872 = -5432					; size = 32
$T225871 = -5400					; size = 4
$T225870 = -5396					; size = 32
$T225869 = -5364					; size = 8
$T225868 = -5356					; size = 32
$T225867 = -5324					; size = 4
$T225866 = -5320					; size = 32
$T225865 = -5288					; size = 8
$T225864 = -5280					; size = 32
$T225863 = -5248					; size = 4
$T225862 = -5244					; size = 32
$T225861 = -5212					; size = 8
$T225860 = -5204					; size = 32
$T225859 = -5172					; size = 4
$T225858 = -5168					; size = 32
$T225857 = -5136					; size = 8
$T225856 = -5128					; size = 32
$T225855 = -5096					; size = 4
$T225854 = -5092					; size = 32
$T225853 = -5060					; size = 8
$T225852 = -5052					; size = 32
$T225851 = -5020					; size = 4
$T225850 = -5016					; size = 32
$T225849 = -4984					; size = 8
$T225848 = -4976					; size = 32
$T225847 = -4944					; size = 4
$T225846 = -4940					; size = 32
$T225845 = -4908					; size = 8
$T225844 = -4900					; size = 32
$T225843 = -4868					; size = 4
$T225842 = -4864					; size = 32
$T225841 = -4832					; size = 8
$T225840 = -4824					; size = 32
$T225839 = -4792					; size = 4
$T225838 = -4788					; size = 32
$T225837 = -4756					; size = 8
$T225836 = -4748					; size = 32
$T225835 = -4716					; size = 4
$T225834 = -4712					; size = 32
$T225833 = -4680					; size = 8
$T225832 = -4672					; size = 32
$T225831 = -4640					; size = 4
$T225830 = -4636					; size = 32
$T225829 = -4604					; size = 8
$T225828 = -4596					; size = 32
$T225827 = -4564					; size = 4
$T225826 = -4560					; size = 32
$T225825 = -4528					; size = 8
$T225824 = -4520					; size = 32
$T225823 = -4488					; size = 4
$T225822 = -4484					; size = 32
$T225821 = -4452					; size = 8
$T225820 = -4444					; size = 32
$T225819 = -4412					; size = 4
$T225818 = -4408					; size = 32
$T225817 = -4376					; size = 8
$T225816 = -4368					; size = 32
$T225815 = -4336					; size = 4
$T225814 = -4332					; size = 32
$T225813 = -4300					; size = 8
$T225812 = -4292					; size = 32
$T225811 = -4260					; size = 4
$T225810 = -4256					; size = 32
$T225809 = -4224					; size = 8
$T225808 = -4216					; size = 32
$T225807 = -4184					; size = 4
$T225806 = -4180					; size = 32
$T225805 = -4148					; size = 8
$T225804 = -4140					; size = 32
$T225803 = -4108					; size = 4
$T225802 = -4104					; size = 32
$T225801 = -4072					; size = 8
$T225800 = -4064					; size = 32
$T225799 = -4032					; size = 4
$T225798 = -4028					; size = 32
$T225797 = -3996					; size = 8
$T225796 = -3988					; size = 32
$T225795 = -3956					; size = 4
$T225794 = -3952					; size = 32
$T225793 = -3920					; size = 8
$T225792 = -3912					; size = 32
$T225791 = -3880					; size = 4
$T225790 = -3876					; size = 32
$T225789 = -3844					; size = 8
$T225788 = -3836					; size = 32
$T225787 = -3804					; size = 4
$T225786 = -3800					; size = 32
$T225785 = -3768					; size = 8
$T225784 = -3760					; size = 32
$T225783 = -3728					; size = 4
$T225782 = -3724					; size = 32
$T225781 = -3692					; size = 8
$T225780 = -3684					; size = 32
$T225779 = -3652					; size = 4
$T225778 = -3648					; size = 32
$T225777 = -3616					; size = 8
$T225776 = -3608					; size = 32
$T225775 = -3576					; size = 4
$T225774 = -3572					; size = 32
$T225773 = -3540					; size = 8
$T225772 = -3532					; size = 32
$T225771 = -3500					; size = 4
$T225770 = -3496					; size = 32
$T225769 = -3464					; size = 8
$T225768 = -3456					; size = 32
$T225767 = -3424					; size = 4
$T225766 = -3420					; size = 32
$T225765 = -3388					; size = 8
$T225764 = -3380					; size = 32
$T225763 = -3348					; size = 4
$T225762 = -3344					; size = 32
$T225761 = -3312					; size = 8
$T225760 = -3304					; size = 32
$T225759 = -3272					; size = 4
$T225758 = -3268					; size = 32
$T225757 = -3236					; size = 8
$T225756 = -3228					; size = 32
$T225755 = -3196					; size = 4
$T225754 = -3192					; size = 32
$T225753 = -3160					; size = 8
$T225752 = -3152					; size = 32
$T225751 = -3120					; size = 4
$T225750 = -3116					; size = 32
$T225749 = -3084					; size = 8
$T225748 = -3076					; size = 32
$T225747 = -3044					; size = 4
$T225746 = -3040					; size = 32
$T225745 = -3008					; size = 8
$T225744 = -3000					; size = 32
$T225743 = -2968					; size = 4
$T225742 = -2964					; size = 32
$T225741 = -2932					; size = 8
$T225740 = -2924					; size = 32
$T225739 = -2892					; size = 4
$T225738 = -2888					; size = 32
$T225737 = -2856					; size = 8
$T225736 = -2848					; size = 32
$T225735 = -2816					; size = 4
$T225734 = -2812					; size = 32
$T225733 = -2780					; size = 8
$T225732 = -2772					; size = 32
$T225731 = -2740					; size = 4
$T225730 = -2736					; size = 32
$T225729 = -2704					; size = 8
$T225728 = -2696					; size = 32
$T225727 = -2664					; size = 4
$T225726 = -2660					; size = 32
$T225725 = -2628					; size = 8
$T225724 = -2620					; size = 32
$T225723 = -2588					; size = 4
$T225722 = -2584					; size = 32
$T225721 = -2552					; size = 8
$T225720 = -2544					; size = 32
$T225719 = -2512					; size = 4
$T225718 = -2508					; size = 32
$T225717 = -2476					; size = 8
$T225716 = -2468					; size = 32
$T225715 = -2436					; size = 4
$T225714 = -2432					; size = 32
$T225713 = -2400					; size = 8
$T225712 = -2392					; size = 32
$T225711 = -2360					; size = 4
$T225710 = -2356					; size = 32
$T225709 = -2324					; size = 8
$T225708 = -2316					; size = 32
$T225707 = -2284					; size = 4
$T225706 = -2280					; size = 32
$T225705 = -2248					; size = 8
$T225704 = -2240					; size = 32
$T225703 = -2208					; size = 4
$T225702 = -2204					; size = 32
$T225701 = -2172					; size = 8
$T225700 = -2164					; size = 32
$T225699 = -2132					; size = 4
$T225698 = -2128					; size = 32
$T225697 = -2096					; size = 8
$T225696 = -2088					; size = 32
$T225695 = -2056					; size = 4
$T225694 = -2052					; size = 32
$T225693 = -2020					; size = 8
$T225692 = -2012					; size = 32
$T225691 = -1980					; size = 4
$T225690 = -1976					; size = 32
$T225689 = -1944					; size = 4
$T225688 = -1940					; size = 4
$T225687 = -1936					; size = 8
$T225686 = -1928					; size = 32
$T225685 = -1896					; size = 4
$T225684 = -1892					; size = 32
$T225683 = -1860					; size = 8
$T225682 = -1852					; size = 32
$T225681 = -1820					; size = 4
$T225680 = -1816					; size = 32
$T225679 = -1784					; size = 8
$T225678 = -1776					; size = 32
$T225677 = -1744					; size = 4
$T225676 = -1740					; size = 32
$T225675 = -1708					; size = 4
$T225674 = -1704					; size = 4
$T225673 = -1700					; size = 8
$T225672 = -1692					; size = 32
$T225671 = -1660					; size = 4
$T225670 = -1656					; size = 32
$T225669 = -1624					; size = 8
$T225668 = -1616					; size = 32
$T225667 = -1584					; size = 4
$T225666 = -1580					; size = 32
$T225665 = -1548					; size = 8
$T225664 = -1540					; size = 32
$T225663 = -1508					; size = 4
$T225662 = -1504					; size = 32
$T225661 = -1472					; size = 8
$T225660 = -1464					; size = 32
$T225659 = -1432					; size = 4
$T225658 = -1428					; size = 32
$T225657 = -1396					; size = 8
$T225656 = -1388					; size = 32
$T225655 = -1356					; size = 4
$T225654 = -1352					; size = 32
$T225653 = -1320					; size = 8
$T225652 = -1312					; size = 32
$T225651 = -1280					; size = 4
$T225650 = -1276					; size = 32
_msg$221205 = -1244					; size = 256
_pLog$221207 = -988					; size = 4
_it$221198 = -984					; size = 4
_strMissionType$221188 = -980				; size = 28
_it$221189 = -952					; size = 4
_iNumTypes$221194 = -948				; size = 4
_kMissionTypesLookupTable$220632 = -944			; size = 44
_kResults$221182 = -900					; size = 64
_msg$219520 = -836					; size = 256
_pLog$219522 = -576					; size = 4
_it$219513 = -572					; size = 4
_strType$219507 = -568					; size = 28
_it$219508 = -540					; size = 4
_kTypeLookupTable$219281 = -536				; size = 44
_kResults$219501 = -492					; size = 64
_msg$218163 = -428					; size = 256
_pLog$218170 = -168					; size = 4
_it$218156 = -164					; size = 4
_strArtifactType$218150 = -160				; size = 28
__$ArrayPad$ = -132					; size = 4
_it$218151 = -128					; size = 4
_kResults$218144 = -124					; size = 64
_kArtifactTypeLookupTable$217906 = -56			; size = 44
__$EHRec$ = -12						; size = 12
_db$ = 8						; size = 4
?AcquireTypes@CvTypes@@YAXAAVConnection@Database@@@Z PROC ; CvTypes::AcquireTypes, COMDAT

; 88   : {

	push	ebp
	mov	ebp, esp
	push	-1
	push	__ehhandler$?AcquireTypes@CvTypes@@YAXAAVConnection@Database@@@Z
	mov	eax, DWORD PTR fs:0
	push	eax
	mov	eax, 8040				; 00001f68H
	call	__chkstk
	mov	eax, DWORD PTR ___security_cookie
	xor	eax, ebp
	mov	DWORD PTR __$ArrayPad$[ebp], eax
	push	eax
	lea	eax, DWORD PTR __$EHRec$[ebp]
	mov	DWORD PTR fs:0, eax

; 89   : 
; 90   : 	//ArtifactType
; 91   : 	{
; 92   : 		typedef std::tr1::unordered_map<std::string, GreatWorkArtifactClass*> LookupTable;
; 93   : 		LookupTable kArtifactTypeLookupTable;

	lea	eax, DWORD PTR $T226146[ebp]
	push	eax
	lea	ecx, DWORD PTR $T226147[ebp]
	push	ecx
	lea	ecx, DWORD PTR _kArtifactTypeLookupTable$217906[ebp]
	call	??0?$_Hash@V?$_Umap_traits@V?$basic_string@DU?$char_traits@D@std@@V?$allocator@D@2@@std@@PAW4GreatWorkArtifactClass@@V?$_Hash_compare@V?$basic_string@DU?$char_traits@D@std@@V?$allocator@D@2@@std@@V?$hash@V?$basic_string@DU?$char_traits@D@std@@V?$allocator@D@2@@std@@@tr1@2@U?$equal_to@V?$basic_string@DU?$char_traits@D@std@@V?$allocator@D@2@@std@@@2@@stdext@@V?$allocator@U?$pair@$$CBV?$basic_string@DU?$char_traits@D@std@@V?$allocator@D@2@@std@@PAW4GreatWorkArtifactClass@@@std@@@2@$0A@@tr1@std@@@stdext@@QAE@ABV?$_Hash_compare@V?$basic_string@DU?$char_traits@D@std@@V?$allocator@D@2@@std@@V?$hash@V?$basic_string@DU?$char_traits@D@std@@V?$allocator@D@2@@std@@@tr1@2@U?$equal_to@V?$basic_string@DU?$char_traits@D@std@@V?$allocator@D@2@@std@@@2@@1@ABV?$allocator@U?$pair@$$CBV?$basic_string@DU?$char_traits@D@std@@V?$allocator@D@2@@std@@PAW4GreatWorkArtifactClass@@@std@@@std@@@Z ; stdext::_Hash<std::tr1::_Umap_traits<std::basic_string<char,std::char_traits<char>,std::allocator<char> >,enum GreatWorkArtifactClass *,stdext::_Hash_compare<std::basic_string<char,std::char_traits<char>,std::allocator<char> >,std::tr1::hash<std::basic_string<char,std::char_traits<char>,std::allocator<char> > >,std::equal_to<std::basic_string<char,std::char_traits<char>,std::allocator<char> > > >,std::allocator<std::pair<std::basic_string<char,std::char_traits<char>,std::allocator<char> > const ,enum GreatWorkArtifactClass *> >,0> >::_Hash<std::tr1::_Umap_traits<std::basic_string<char,std::char_traits<char>,std::allocator<char> >,enum GreatWorkArtifactClass *,stdext::_Hash_compare<std::basic_string<char,std::char_traits<char>,std::allocator<char> >,std::tr1::hash<std::basic_string<char,std::char_traits<char>,std::allocator<char> > >,std::equal_to<std::basic_string<char,std::char_traits<char>,std::allocator<char> > > >,std::allocator<std::pair<std::basic_string<char,std::char_traits<char>,std::allocator<char> > const ,enum GreatWorkArtifactClass *> >,0> >
	mov	DWORD PTR __$EHRec$[ebp+8], 0

; 94   : 		kArtifactTypeLookupTable.insert(make_pair(std::string("ARTIFACT_ANCIENT_RUIN"), &s_eARTIFACT_ANCIENT_RUIN));

	push	OFFSET ?s_eARTIFACT_ANCIENT_RUIN@@3W4GreatWorkArtifactClass@@A ; s_eARTIFACT_ANCIENT_RUIN
	sub	esp, 28					; 0000001cH
	mov	ecx, esp
	mov	DWORD PTR $T225651[ebp], esp
	push	OFFSET ??_C@_0BG@HMJJDBCN@ARTIFACT_ANCIENT_RUIN?$AA@
	call	DWORD PTR __imp_??0?$basic_string@DU?$char_traits@D@std@@V?$allocator@D@2@@std@@QAE@PBD@Z
	mov	DWORD PTR tv2872[ebp], eax
	lea	edx, DWORD PTR $T225652[ebp]
	push	edx
	call	??$make_pair@V?$basic_string@DU?$char_traits@D@std@@V?$allocator@D@2@@std@@PAW4GreatWorkArtifactClass@@@std@@YA?AU?$pair@V?$basic_string@DU?$char_traits@D@std@@V?$allocator@D@2@@std@@PAW4GreatWorkArtifactClass@@@0@V?$basic_string@DU?$char_traits@D@std@@V?$allocator@D@2@@0@PAW4GreatWorkArtifactClass@@@Z ; std::make_pair<std::basic_string<char,std::char_traits<char>,std::allocator<char> >,enum GreatWorkArtifactClass *>
	add	esp, 36					; 00000024H
	mov	DWORD PTR tv2873[ebp], eax
	mov	eax, DWORD PTR tv2873[ebp]
	mov	DWORD PTR $T226156[ebp], eax
	mov	BYTE PTR __$EHRec$[ebp+8], 1
	mov	ecx, DWORD PTR $T226156[ebp]
	push	ecx
	lea	ecx, DWORD PTR $T225650[ebp]
	call	DWORD PTR __imp_??0?$basic_string@DU?$char_traits@D@std@@V?$allocator@D@2@@std@@QAE@ABV01@@Z
	mov	edx, DWORD PTR $T226156[ebp]
	mov	eax, DWORD PTR [edx+28]
	mov	DWORD PTR $T225650[ebp+28], eax
	mov	BYTE PTR __$EHRec$[ebp+8], 2
	mov	ecx, DWORD PTR _kArtifactTypeLookupTable$217906[ebp+8]
	mov	DWORD PTR $T226169[ebp], ecx
	mov	edx, DWORD PTR $T226169[ebp]
	mov	DWORD PTR $T226186[ebp], edx
	mov	eax, DWORD PTR $T226186[ebp]
	push	eax
	lea	ecx, DWORD PTR $T225650[ebp]
	push	ecx
	lea	edx, DWORD PTR $T225653[ebp]
	push	edx
	lea	ecx, DWORD PTR _kArtifactTypeLookupTable$217906[ebp]
	call	?_Insert@?$_Hash@V?$_Umap_traits@V?$basic_string@DU?$char_traits@D@std@@V?$allocator@D@2@@std@@PAW4GreatWorkArtifactClass@@V?$_Hash_compare@V?$basic_string@DU?$char_traits@D@std@@V?$allocator@D@2@@std@@V?$hash@V?$basic_string@DU?$char_traits@D@std@@V?$allocator@D@2@@std@@@tr1@2@U?$equal_to@V?$basic_string@DU?$char_traits@D@std@@V?$allocator@D@2@@std@@@2@@stdext@@V?$allocator@U?$pair@$$CBV?$basic_string@DU?$char_traits@D@std@@V?$allocator@D@2@@std@@PAW4GreatWorkArtifactClass@@@std@@@2@$0A@@tr1@std@@@stdext@@IAE?AU?$pair@V?$_Iterator@$0A@@?$list@U?$pair@$$CBV?$basic_string@DU?$char_traits@D@std@@V?$allocator@D@2@@std@@PAW4GreatWorkArtifactClass@@@std@@V?$allocator@U?$pair@$$CBV?$basic_string@DU?$char_traits@D@std@@V?$allocator@D@2@@std@@PAW4GreatWorkArtifactClass@@@std@@@2@@std@@_N@std@@ABU?$pair@$$CBV?$basic_string@DU?$char_traits@D@std@@V?$allocator@D@2@@std@@PAW4GreatWorkArtifactClass@@@4@V?$_Iterator@$0A@@?$list@U?$pair@$$CBV?$basic_string@DU?$char_traits@D@std@@V?$allocator@D@2@@std@@PAW4GreatWorkArtifactClass@@@std@@V?$allocator@U?$pair@$$CBV?$basic_string@DU?$char_traits@D@std@@V?$allocator@D@2@@std@@PAW4GreatWorkArtifactClass@@@std@@@2@@4@@Z ; stdext::_Hash<std::tr1::_Umap_traits<std::basic_string<char,std::char_traits<char>,std::allocator<char> >,enum GreatWorkArtifactClass *,stdext::_Hash_compare<std::basic_string<char,std::char_traits<char>,std::allocator<char> >,std::tr1::hash<std::basic_string<char,std::char_traits<char>,std::allocator<char> > >,std::equal_to<std::basic_string<char,std::char_traits<char>,std::allocator<char> > > >,std::allocator<std::pair<std::basic_string<char,std::char_traits<char>,std::allocator<char> > const ,enum GreatWorkArtifactClass *> >,0> >::_Insert
	mov	BYTE PTR __$EHRec$[ebp+8], 1
	lea	ecx, DWORD PTR $T225650[ebp]
	call	DWORD PTR __imp_??1?$basic_string@DU?$char_traits@D@std@@V?$allocator@D@2@@std@@QAE@XZ
	mov	BYTE PTR __$EHRec$[ebp+8], 0
	lea	ecx, DWORD PTR $T225652[ebp]
	call	DWORD PTR __imp_??1?$basic_string@DU?$char_traits@D@std@@V?$allocator@D@2@@std@@QAE@XZ

; 95   : 		kArtifactTypeLookupTable.insert(make_pair(std::string("ARTIFACT_BARBARIAN_CAMP"), &s_eARTIFACT_BARBARIAN_CAMP));

	push	OFFSET ?s_eARTIFACT_BARBARIAN_CAMP@@3W4GreatWorkArtifactClass@@A ; s_eARTIFACT_BARBARIAN_CAMP
	sub	esp, 28					; 0000001cH
	mov	ecx, esp
	mov	DWORD PTR $T225655[ebp], esp
	push	OFFSET ??_C@_0BI@EGCECJKF@ARTIFACT_BARBARIAN_CAMP?$AA@
	call	DWORD PTR __imp_??0?$basic_string@DU?$char_traits@D@std@@V?$allocator@D@2@@std@@QAE@PBD@Z
	mov	DWORD PTR tv2879[ebp], eax
	lea	eax, DWORD PTR $T225656[ebp]
	push	eax
	call	??$make_pair@V?$basic_string@DU?$char_traits@D@std@@V?$allocator@D@2@@std@@PAW4GreatWorkArtifactClass@@@std@@YA?AU?$pair@V?$basic_string@DU?$char_traits@D@std@@V?$allocator@D@2@@std@@PAW4GreatWorkArtifactClass@@@0@V?$basic_string@DU?$char_traits@D@std@@V?$allocator@D@2@@0@PAW4GreatWorkArtifactClass@@@Z ; std::make_pair<std::basic_string<char,std::char_traits<char>,std::allocator<char> >,enum GreatWorkArtifactClass *>
	add	esp, 36					; 00000024H
	mov	DWORD PTR tv2880[ebp], eax
	mov	ecx, DWORD PTR tv2880[ebp]
	mov	DWORD PTR $T226207[ebp], ecx
	mov	BYTE PTR __$EHRec$[ebp+8], 3
	mov	edx, DWORD PTR $T226207[ebp]
	push	edx
	lea	ecx, DWORD PTR $T225654[ebp]
	call	DWORD PTR __imp_??0?$basic_string@DU?$char_traits@D@std@@V?$allocator@D@2@@std@@QAE@ABV01@@Z
	mov	eax, DWORD PTR $T226207[ebp]
	mov	ecx, DWORD PTR [eax+28]
	mov	DWORD PTR $T225654[ebp+28], ecx
	mov	BYTE PTR __$EHRec$[ebp+8], 4
	mov	edx, DWORD PTR _kArtifactTypeLookupTable$217906[ebp+8]
	mov	DWORD PTR $T226220[ebp], edx
	mov	eax, DWORD PTR $T226220[ebp]
	mov	DWORD PTR $T226237[ebp], eax
	mov	ecx, DWORD PTR $T226237[ebp]
	push	ecx
	lea	edx, DWORD PTR $T225654[ebp]
	push	edx
	lea	eax, DWORD PTR $T225657[ebp]
	push	eax
	lea	ecx, DWORD PTR _kArtifactTypeLookupTable$217906[ebp]
	call	?_Insert@?$_Hash@V?$_Umap_traits@V?$basic_string@DU?$char_traits@D@std@@V?$allocator@D@2@@std@@PAW4GreatWorkArtifactClass@@V?$_Hash_compare@V?$basic_string@DU?$char_traits@D@std@@V?$allocator@D@2@@std@@V?$hash@V?$basic_string@DU?$char_traits@D@std@@V?$allocator@D@2@@std@@@tr1@2@U?$equal_to@V?$basic_string@DU?$char_traits@D@std@@V?$allocator@D@2@@std@@@2@@stdext@@V?$allocator@U?$pair@$$CBV?$basic_string@DU?$char_traits@D@std@@V?$allocator@D@2@@std@@PAW4GreatWorkArtifactClass@@@std@@@2@$0A@@tr1@std@@@stdext@@IAE?AU?$pair@V?$_Iterator@$0A@@?$list@U?$pair@$$CBV?$basic_string@DU?$char_traits@D@std@@V?$allocator@D@2@@std@@PAW4GreatWorkArtifactClass@@@std@@V?$allocator@U?$pair@$$CBV?$basic_string@DU?$char_traits@D@std@@V?$allocator@D@2@@std@@PAW4GreatWorkArtifactClass@@@std@@@2@@std@@_N@std@@ABU?$pair@$$CBV?$basic_string@DU?$char_traits@D@std@@V?$allocator@D@2@@std@@PAW4GreatWorkArtifactClass@@@4@V?$_Iterator@$0A@@?$list@U?$pair@$$CBV?$basic_string@DU?$char_traits@D@std@@V?$allocator@D@2@@std@@PAW4GreatWorkArtifactClass@@@std@@V?$allocator@U?$pair@$$CBV?$basic_string@DU?$char_traits@D@std@@V?$allocator@D@2@@std@@PAW4GreatWorkArtifactClass@@@std@@@2@@4@@Z ; stdext::_Hash<std::tr1::_Umap_traits<std::basic_string<char,std::char_traits<char>,std::allocator<char> >,enum GreatWorkArtifactClass *,stdext::_Hash_compare<std::basic_string<char,std::char_traits<char>,std::allocator<char> >,std::tr1::hash<std::basic_string<char,std::char_traits<char>,std::allocator<char> > >,std::equal_to<std::basic_string<char,std::char_traits<char>,std::allocator<char> > > >,std::allocator<std::pair<std::basic_string<char,std::char_traits<char>,std::allocator<char> > const ,enum GreatWorkArtifactClass *> >,0> >::_Insert
	mov	BYTE PTR __$EHRec$[ebp+8], 3
	lea	ecx, DWORD PTR $T225654[ebp]
	call	DWORD PTR __imp_??1?$basic_string@DU?$char_traits@D@std@@V?$allocator@D@2@@std@@QAE@XZ
	mov	BYTE PTR __$EHRec$[ebp+8], 0
	lea	ecx, DWORD PTR $T225656[ebp]
	call	DWORD PTR __imp_??1?$basic_string@DU?$char_traits@D@std@@V?$allocator@D@2@@std@@QAE@XZ

; 96   : 		kArtifactTypeLookupTable.insert(make_pair(std::string("ARTIFACT_BATTLE_RANGED"), &s_eARTIFACT_BATTLE_RANGED));

	push	OFFSET ?s_eARTIFACT_BATTLE_RANGED@@3W4GreatWorkArtifactClass@@A ; s_eARTIFACT_BATTLE_RANGED
	sub	esp, 28					; 0000001cH
	mov	ecx, esp
	mov	DWORD PTR $T225659[ebp], esp
	push	OFFSET ??_C@_0BH@KLEALEOB@ARTIFACT_BATTLE_RANGED?$AA@
	call	DWORD PTR __imp_??0?$basic_string@DU?$char_traits@D@std@@V?$allocator@D@2@@std@@QAE@PBD@Z
	mov	DWORD PTR tv2886[ebp], eax
	lea	ecx, DWORD PTR $T225660[ebp]
	push	ecx
	call	??$make_pair@V?$basic_string@DU?$char_traits@D@std@@V?$allocator@D@2@@std@@PAW4GreatWorkArtifactClass@@@std@@YA?AU?$pair@V?$basic_string@DU?$char_traits@D@std@@V?$allocator@D@2@@std@@PAW4GreatWorkArtifactClass@@@0@V?$basic_string@DU?$char_traits@D@std@@V?$allocator@D@2@@0@PAW4GreatWorkArtifactClass@@@Z ; std::make_pair<std::basic_string<char,std::char_traits<char>,std::allocator<char> >,enum GreatWorkArtifactClass *>
	add	esp, 36					; 00000024H
	mov	DWORD PTR tv2887[ebp], eax
	mov	edx, DWORD PTR tv2887[ebp]
	mov	DWORD PTR $T226258[ebp], edx
	mov	BYTE PTR __$EHRec$[ebp+8], 5
	mov	eax, DWORD PTR $T226258[ebp]
	push	eax
	lea	ecx, DWORD PTR $T225658[ebp]
	call	DWORD PTR __imp_??0?$basic_string@DU?$char_traits@D@std@@V?$allocator@D@2@@std@@QAE@ABV01@@Z
	mov	ecx, DWORD PTR $T226258[ebp]
	mov	edx, DWORD PTR [ecx+28]
	mov	DWORD PTR $T225658[ebp+28], edx
	mov	BYTE PTR __$EHRec$[ebp+8], 6
	mov	eax, DWORD PTR _kArtifactTypeLookupTable$217906[ebp+8]
	mov	DWORD PTR $T226271[ebp], eax
	mov	ecx, DWORD PTR $T226271[ebp]
	mov	DWORD PTR $T226288[ebp], ecx
	mov	edx, DWORD PTR $T226288[ebp]
	push	edx
	lea	eax, DWORD PTR $T225658[ebp]
	push	eax
	lea	ecx, DWORD PTR $T225661[ebp]
	push	ecx
	lea	ecx, DWORD PTR _kArtifactTypeLookupTable$217906[ebp]
	call	?_Insert@?$_Hash@V?$_Umap_traits@V?$basic_string@DU?$char_traits@D@std@@V?$allocator@D@2@@std@@PAW4GreatWorkArtifactClass@@V?$_Hash_compare@V?$basic_string@DU?$char_traits@D@std@@V?$allocator@D@2@@std@@V?$hash@V?$basic_string@DU?$char_traits@D@std@@V?$allocator@D@2@@std@@@tr1@2@U?$equal_to@V?$basic_string@DU?$char_traits@D@std@@V?$allocator@D@2@@std@@@2@@stdext@@V?$allocator@U?$pair@$$CBV?$basic_string@DU?$char_traits@D@std@@V?$allocator@D@2@@std@@PAW4GreatWorkArtifactClass@@@std@@@2@$0A@@tr1@std@@@stdext@@IAE?AU?$pair@V?$_Iterator@$0A@@?$list@U?$pair@$$CBV?$basic_string@DU?$char_traits@D@std@@V?$allocator@D@2@@std@@PAW4GreatWorkArtifactClass@@@std@@V?$allocator@U?$pair@$$CBV?$basic_string@DU?$char_traits@D@std@@V?$allocator@D@2@@std@@PAW4GreatWorkArtifactClass@@@std@@@2@@std@@_N@std@@ABU?$pair@$$CBV?$basic_string@DU?$char_traits@D@std@@V?$allocator@D@2@@std@@PAW4GreatWorkArtifactClass@@@4@V?$_Iterator@$0A@@?$list@U?$pair@$$CBV?$basic_string@DU?$char_traits@D@std@@V?$allocator@D@2@@std@@PAW4GreatWorkArtifactClass@@@std@@V?$allocator@U?$pair@$$CBV?$basic_string@DU?$char_traits@D@std@@V?$allocator@D@2@@std@@PAW4GreatWorkArtifactClass@@@std@@@2@@4@@Z ; stdext::_Hash<std::tr1::_Umap_traits<std::basic_string<char,std::char_traits<char>,std::allocator<char> >,enum GreatWorkArtifactClass *,stdext::_Hash_compare<std::basic_string<char,std::char_traits<char>,std::allocator<char> >,std::tr1::hash<std::basic_string<char,std::char_traits<char>,std::allocator<char> > >,std::equal_to<std::basic_string<char,std::char_traits<char>,std::allocator<char> > > >,std::allocator<std::pair<std::basic_string<char,std::char_traits<char>,std::allocator<char> > const ,enum GreatWorkArtifactClass *> >,0> >::_Insert
	mov	BYTE PTR __$EHRec$[ebp+8], 5
	lea	ecx, DWORD PTR $T225658[ebp]
	call	DWORD PTR __imp_??1?$basic_string@DU?$char_traits@D@std@@V?$allocator@D@2@@std@@QAE@XZ
	mov	BYTE PTR __$EHRec$[ebp+8], 0
	lea	ecx, DWORD PTR $T225660[ebp]
	call	DWORD PTR __imp_??1?$basic_string@DU?$char_traits@D@std@@V?$allocator@D@2@@std@@QAE@XZ

; 97   : 		kArtifactTypeLookupTable.insert(make_pair(std::string("ARTIFACT_BATTLE_MELEE"), &s_eARTIFACT_BATTLE_MELEE));

	push	OFFSET ?s_eARTIFACT_BATTLE_MELEE@@3W4GreatWorkArtifactClass@@A ; s_eARTIFACT_BATTLE_MELEE
	sub	esp, 28					; 0000001cH
	mov	ecx, esp
	mov	DWORD PTR $T225663[ebp], esp
	push	OFFSET ??_C@_0BG@EOLFDHMN@ARTIFACT_BATTLE_MELEE?$AA@
	call	DWORD PTR __imp_??0?$basic_string@DU?$char_traits@D@std@@V?$allocator@D@2@@std@@QAE@PBD@Z
	mov	DWORD PTR tv2893[ebp], eax
	lea	edx, DWORD PTR $T225664[ebp]
	push	edx
	call	??$make_pair@V?$basic_string@DU?$char_traits@D@std@@V?$allocator@D@2@@std@@PAW4GreatWorkArtifactClass@@@std@@YA?AU?$pair@V?$basic_string@DU?$char_traits@D@std@@V?$allocator@D@2@@std@@PAW4GreatWorkArtifactClass@@@0@V?$basic_string@DU?$char_traits@D@std@@V?$allocator@D@2@@0@PAW4GreatWorkArtifactClass@@@Z ; std::make_pair<std::basic_string<char,std::char_traits<char>,std::allocator<char> >,enum GreatWorkArtifactClass *>
	add	esp, 36					; 00000024H
	mov	DWORD PTR tv2894[ebp], eax
	mov	eax, DWORD PTR tv2894[ebp]
	mov	DWORD PTR $T226309[ebp], eax
	mov	BYTE PTR __$EHRec$[ebp+8], 7
	mov	ecx, DWORD PTR $T226309[ebp]
	push	ecx
	lea	ecx, DWORD PTR $T225662[ebp]
	call	DWORD PTR __imp_??0?$basic_string@DU?$char_traits@D@std@@V?$allocator@D@2@@std@@QAE@ABV01@@Z
	mov	edx, DWORD PTR $T226309[ebp]
	mov	eax, DWORD PTR [edx+28]
	mov	DWORD PTR $T225662[ebp+28], eax
	mov	BYTE PTR __$EHRec$[ebp+8], 8
	mov	ecx, DWORD PTR _kArtifactTypeLookupTable$217906[ebp+8]
	mov	DWORD PTR $T226322[ebp], ecx
	mov	edx, DWORD PTR $T226322[ebp]
	mov	DWORD PTR $T226338[ebp], edx
	mov	eax, DWORD PTR $T226338[ebp]
	push	eax
	lea	ecx, DWORD PTR $T225662[ebp]
	push	ecx
	lea	edx, DWORD PTR $T225665[ebp]
	push	edx
	lea	ecx, DWORD PTR _kArtifactTypeLookupTable$217906[ebp]
	call	?_Insert@?$_Hash@V?$_Umap_traits@V?$basic_string@DU?$char_traits@D@std@@V?$allocator@D@2@@std@@PAW4GreatWorkArtifactClass@@V?$_Hash_compare@V?$basic_string@DU?$char_traits@D@std@@V?$allocator@D@2@@std@@V?$hash@V?$basic_string@DU?$char_traits@D@std@@V?$allocator@D@2@@std@@@tr1@2@U?$equal_to@V?$basic_string@DU?$char_traits@D@std@@V?$allocator@D@2@@std@@@2@@stdext@@V?$allocator@U?$pair@$$CBV?$basic_string@DU?$char_traits@D@std@@V?$allocator@D@2@@std@@PAW4GreatWorkArtifactClass@@@std@@@2@$0A@@tr1@std@@@stdext@@IAE?AU?$pair@V?$_Iterator@$0A@@?$list@U?$pair@$$CBV?$basic_string@DU?$char_traits@D@std@@V?$allocator@D@2@@std@@PAW4GreatWorkArtifactClass@@@std@@V?$allocator@U?$pair@$$CBV?$basic_string@DU?$char_traits@D@std@@V?$allocator@D@2@@std@@PAW4GreatWorkArtifactClass@@@std@@@2@@std@@_N@std@@ABU?$pair@$$CBV?$basic_string@DU?$char_traits@D@std@@V?$allocator@D@2@@std@@PAW4GreatWorkArtifactClass@@@4@V?$_Iterator@$0A@@?$list@U?$pair@$$CBV?$basic_string@DU?$char_traits@D@std@@V?$allocator@D@2@@std@@PAW4GreatWorkArtifactClass@@@std@@V?$allocator@U?$pair@$$CBV?$basic_string@DU?$char_traits@D@std@@V?$allocator@D@2@@std@@PAW4GreatWorkArtifactClass@@@std@@@2@@4@@Z ; stdext::_Hash<std::tr1::_Umap_traits<std::basic_string<char,std::char_traits<char>,std::allocator<char> >,enum GreatWorkArtifactClass *,stdext::_Hash_compare<std::basic_string<char,std::char_traits<char>,std::allocator<char> >,std::tr1::hash<std::basic_string<char,std::char_traits<char>,std::allocator<char> > >,std::equal_to<std::basic_string<char,std::char_traits<char>,std::allocator<char> > > >,std::allocator<std::pair<std::basic_string<char,std::char_traits<char>,std::allocator<char> > const ,enum GreatWorkArtifactClass *> >,0> >::_Insert
	mov	BYTE PTR __$EHRec$[ebp+8], 7
	lea	ecx, DWORD PTR $T225662[ebp]
	call	DWORD PTR __imp_??1?$basic_string@DU?$char_traits@D@std@@V?$allocator@D@2@@std@@QAE@XZ
	mov	BYTE PTR __$EHRec$[ebp+8], 0
	lea	ecx, DWORD PTR $T225664[ebp]
	call	DWORD PTR __imp_??1?$basic_string@DU?$char_traits@D@std@@V?$allocator@D@2@@std@@QAE@XZ

; 98   : 		kArtifactTypeLookupTable.insert(make_pair(std::string("ARTIFACT_RAZED_CITY"), &s_eARTIFACT_RAZED_CITY));

	push	OFFSET ?s_eARTIFACT_RAZED_CITY@@3W4GreatWorkArtifactClass@@A ; s_eARTIFACT_RAZED_CITY
	sub	esp, 28					; 0000001cH
	mov	ecx, esp
	mov	DWORD PTR $T225667[ebp], esp
	push	OFFSET ??_C@_0BE@POGCPAJA@ARTIFACT_RAZED_CITY?$AA@
	call	DWORD PTR __imp_??0?$basic_string@DU?$char_traits@D@std@@V?$allocator@D@2@@std@@QAE@PBD@Z
	mov	DWORD PTR tv2900[ebp], eax
	lea	eax, DWORD PTR $T225668[ebp]
	push	eax
	call	??$make_pair@V?$basic_string@DU?$char_traits@D@std@@V?$allocator@D@2@@std@@PAW4GreatWorkArtifactClass@@@std@@YA?AU?$pair@V?$basic_string@DU?$char_traits@D@std@@V?$allocator@D@2@@std@@PAW4GreatWorkArtifactClass@@@0@V?$basic_string@DU?$char_traits@D@std@@V?$allocator@D@2@@0@PAW4GreatWorkArtifactClass@@@Z ; std::make_pair<std::basic_string<char,std::char_traits<char>,std::allocator<char> >,enum GreatWorkArtifactClass *>
	add	esp, 36					; 00000024H
	mov	DWORD PTR tv2901[ebp], eax
	mov	ecx, DWORD PTR tv2901[ebp]
	mov	DWORD PTR $T226360[ebp], ecx
	mov	BYTE PTR __$EHRec$[ebp+8], 9
	mov	edx, DWORD PTR $T226360[ebp]
	push	edx
	lea	ecx, DWORD PTR $T225666[ebp]
	call	DWORD PTR __imp_??0?$basic_string@DU?$char_traits@D@std@@V?$allocator@D@2@@std@@QAE@ABV01@@Z
	mov	eax, DWORD PTR $T226360[ebp]
	mov	ecx, DWORD PTR [eax+28]
	mov	DWORD PTR $T225666[ebp+28], ecx
	mov	BYTE PTR __$EHRec$[ebp+8], 10		; 0000000aH
	mov	edx, DWORD PTR _kArtifactTypeLookupTable$217906[ebp+8]
	mov	DWORD PTR $T226373[ebp], edx
	mov	eax, DWORD PTR $T226373[ebp]
	mov	DWORD PTR $T226389[ebp], eax
	mov	ecx, DWORD PTR $T226389[ebp]
	push	ecx
	lea	edx, DWORD PTR $T225666[ebp]
	push	edx
	lea	eax, DWORD PTR $T225669[ebp]
	push	eax
	lea	ecx, DWORD PTR _kArtifactTypeLookupTable$217906[ebp]
	call	?_Insert@?$_Hash@V?$_Umap_traits@V?$basic_string@DU?$char_traits@D@std@@V?$allocator@D@2@@std@@PAW4GreatWorkArtifactClass@@V?$_Hash_compare@V?$basic_string@DU?$char_traits@D@std@@V?$allocator@D@2@@std@@V?$hash@V?$basic_string@DU?$char_traits@D@std@@V?$allocator@D@2@@std@@@tr1@2@U?$equal_to@V?$basic_string@DU?$char_traits@D@std@@V?$allocator@D@2@@std@@@2@@stdext@@V?$allocator@U?$pair@$$CBV?$basic_string@DU?$char_traits@D@std@@V?$allocator@D@2@@std@@PAW4GreatWorkArtifactClass@@@std@@@2@$0A@@tr1@std@@@stdext@@IAE?AU?$pair@V?$_Iterator@$0A@@?$list@U?$pair@$$CBV?$basic_string@DU?$char_traits@D@std@@V?$allocator@D@2@@std@@PAW4GreatWorkArtifactClass@@@std@@V?$allocator@U?$pair@$$CBV?$basic_string@DU?$char_traits@D@std@@V?$allocator@D@2@@std@@PAW4GreatWorkArtifactClass@@@std@@@2@@std@@_N@std@@ABU?$pair@$$CBV?$basic_string@DU?$char_traits@D@std@@V?$allocator@D@2@@std@@PAW4GreatWorkArtifactClass@@@4@V?$_Iterator@$0A@@?$list@U?$pair@$$CBV?$basic_string@DU?$char_traits@D@std@@V?$allocator@D@2@@std@@PAW4GreatWorkArtifactClass@@@std@@V?$allocator@U?$pair@$$CBV?$basic_string@DU?$char_traits@D@std@@V?$allocator@D@2@@std@@PAW4GreatWorkArtifactClass@@@std@@@2@@4@@Z ; stdext::_Hash<std::tr1::_Umap_traits<std::basic_string<char,std::char_traits<char>,std::allocator<char> >,enum GreatWorkArtifactClass *,stdext::_Hash_compare<std::basic_string<char,std::char_traits<char>,std::allocator<char> >,std::tr1::hash<std::basic_string<char,std::char_traits<char>,std::allocator<char> > >,std::equal_to<std::basic_string<char,std::char_traits<char>,std::allocator<char> > > >,std::allocator<std::pair<std::basic_string<char,std::char_traits<char>,std::allocator<char> > const ,enum GreatWorkArtifactClass *> >,0> >::_Insert
	mov	BYTE PTR __$EHRec$[ebp+8], 9
	lea	ecx, DWORD PTR $T225666[ebp]
	call	DWORD PTR __imp_??1?$basic_string@DU?$char_traits@D@std@@V?$allocator@D@2@@std@@QAE@XZ
	mov	BYTE PTR __$EHRec$[ebp+8], 0
	lea	ecx, DWORD PTR $T225668[ebp]
	call	DWORD PTR __imp_??1?$basic_string@DU?$char_traits@D@std@@V?$allocator@D@2@@std@@QAE@XZ

; 99   : 		kArtifactTypeLookupTable.insert(make_pair(std::string("ARTIFACT_WRITING"), &s_eARTIFACT_WRITING));

	push	OFFSET ?s_eARTIFACT_WRITING@@3W4GreatWorkArtifactClass@@A ; s_eARTIFACT_WRITING
	sub	esp, 28					; 0000001cH
	mov	ecx, esp
	mov	DWORD PTR $T225671[ebp], esp
	push	OFFSET ??_C@_0BB@IBFOPINB@ARTIFACT_WRITING?$AA@
	call	DWORD PTR __imp_??0?$basic_string@DU?$char_traits@D@std@@V?$allocator@D@2@@std@@QAE@PBD@Z
	mov	DWORD PTR tv2907[ebp], eax
	lea	ecx, DWORD PTR $T225672[ebp]
	push	ecx
	call	??$make_pair@V?$basic_string@DU?$char_traits@D@std@@V?$allocator@D@2@@std@@PAW4GreatWorkArtifactClass@@@std@@YA?AU?$pair@V?$basic_string@DU?$char_traits@D@std@@V?$allocator@D@2@@std@@PAW4GreatWorkArtifactClass@@@0@V?$basic_string@DU?$char_traits@D@std@@V?$allocator@D@2@@0@PAW4GreatWorkArtifactClass@@@Z ; std::make_pair<std::basic_string<char,std::char_traits<char>,std::allocator<char> >,enum GreatWorkArtifactClass *>
	add	esp, 36					; 00000024H
	mov	DWORD PTR tv2908[ebp], eax
	mov	edx, DWORD PTR tv2908[ebp]
	mov	DWORD PTR $T226411[ebp], edx
	mov	BYTE PTR __$EHRec$[ebp+8], 11		; 0000000bH
	mov	eax, DWORD PTR $T226411[ebp]
	push	eax
	lea	ecx, DWORD PTR $T225670[ebp]
	call	DWORD PTR __imp_??0?$basic_string@DU?$char_traits@D@std@@V?$allocator@D@2@@std@@QAE@ABV01@@Z
	mov	ecx, DWORD PTR $T226411[ebp]
	mov	edx, DWORD PTR [ecx+28]
	mov	DWORD PTR $T225670[ebp+28], edx
	mov	BYTE PTR __$EHRec$[ebp+8], 12		; 0000000cH
	mov	eax, DWORD PTR _kArtifactTypeLookupTable$217906[ebp+8]
	mov	DWORD PTR $T226424[ebp], eax
	mov	ecx, DWORD PTR $T226424[ebp]
	mov	DWORD PTR $T226440[ebp], ecx
	mov	edx, DWORD PTR $T226440[ebp]
	push	edx
	lea	eax, DWORD PTR $T225670[ebp]
	push	eax
	lea	ecx, DWORD PTR $T225673[ebp]
	push	ecx
	lea	ecx, DWORD PTR _kArtifactTypeLookupTable$217906[ebp]
	call	?_Insert@?$_Hash@V?$_Umap_traits@V?$basic_string@DU?$char_traits@D@std@@V?$allocator@D@2@@std@@PAW4GreatWorkArtifactClass@@V?$_Hash_compare@V?$basic_string@DU?$char_traits@D@std@@V?$allocator@D@2@@std@@V?$hash@V?$basic_string@DU?$char_traits@D@std@@V?$allocator@D@2@@std@@@tr1@2@U?$equal_to@V?$basic_string@DU?$char_traits@D@std@@V?$allocator@D@2@@std@@@2@@stdext@@V?$allocator@U?$pair@$$CBV?$basic_string@DU?$char_traits@D@std@@V?$allocator@D@2@@std@@PAW4GreatWorkArtifactClass@@@std@@@2@$0A@@tr1@std@@@stdext@@IAE?AU?$pair@V?$_Iterator@$0A@@?$list@U?$pair@$$CBV?$basic_string@DU?$char_traits@D@std@@V?$allocator@D@2@@std@@PAW4GreatWorkArtifactClass@@@std@@V?$allocator@U?$pair@$$CBV?$basic_string@DU?$char_traits@D@std@@V?$allocator@D@2@@std@@PAW4GreatWorkArtifactClass@@@std@@@2@@std@@_N@std@@ABU?$pair@$$CBV?$basic_string@DU?$char_traits@D@std@@V?$allocator@D@2@@std@@PAW4GreatWorkArtifactClass@@@4@V?$_Iterator@$0A@@?$list@U?$pair@$$CBV?$basic_string@DU?$char_traits@D@std@@V?$allocator@D@2@@std@@PAW4GreatWorkArtifactClass@@@std@@V?$allocator@U?$pair@$$CBV?$basic_string@DU?$char_traits@D@std@@V?$allocator@D@2@@std@@PAW4GreatWorkArtifactClass@@@std@@@2@@4@@Z ; stdext::_Hash<std::tr1::_Umap_traits<std::basic_string<char,std::char_traits<char>,std::allocator<char> >,enum GreatWorkArtifactClass *,stdext::_Hash_compare<std::basic_string<char,std::char_traits<char>,std::allocator<char> >,std::tr1::hash<std::basic_string<char,std::char_traits<char>,std::allocator<char> > >,std::equal_to<std::basic_string<char,std::char_traits<char>,std::allocator<char> > > >,std::allocator<std::pair<std::basic_string<char,std::char_traits<char>,std::allocator<char> > const ,enum GreatWorkArtifactClass *> >,0> >::_Insert
	mov	BYTE PTR __$EHRec$[ebp+8], 11		; 0000000bH
	lea	ecx, DWORD PTR $T225670[ebp]
	call	DWORD PTR __imp_??1?$basic_string@DU?$char_traits@D@std@@V?$allocator@D@2@@std@@QAE@XZ
	mov	BYTE PTR __$EHRec$[ebp+8], 0
	lea	ecx, DWORD PTR $T225672[ebp]
	call	DWORD PTR __imp_??1?$basic_string@DU?$char_traits@D@std@@V?$allocator@D@2@@std@@QAE@XZ

; 100  : 
; 101  : 		Database::Results kResults;

	push	0
	lea	ecx, DWORD PTR _kResults$218144[ebp]
	call	DWORD PTR __imp_??0Results@Database@@QAE@PBD@Z
	mov	BYTE PTR __$EHRec$[ebp+8], 13		; 0000000dH

; 102  : 		if(db.Execute(kResults, "SELECT Type, ID from GreatWorkArtifactClasses"))

	push	-1
	push	OFFSET ??_C@_0CO@IBNCHGPL@SELECT?5Type?0?5ID?5from?5GreatWorkAr@
	lea	edx, DWORD PTR _kResults$218144[ebp]
	push	edx
	mov	ecx, DWORD PTR _db$[ebp]
	call	DWORD PTR __imp_?Execute@Connection@Database@@QBE_NAAVResults@2@PBDH@Z
	movzx	eax, al
	test	eax, eax
	je	$LN25@AcquireTyp
$LN24@AcquireTyp:

; 103  : 		{
; 104  : 			while(kResults.Step())

	lea	ecx, DWORD PTR _kResults$218144[ebp]
	call	DWORD PTR __imp_?Step@Results@Database@@QAE_NXZ
	movzx	ecx, al
	test	ecx, ecx
	je	$LN25@AcquireTyp

; 105  : 			{
; 106  : 				std::string strArtifactType = kResults.GetText(0);

	push	0
	lea	ecx, DWORD PTR _kResults$218144[ebp]
	call	DWORD PTR __imp_?GetText@Results@Database@@QAEPBDH@Z
	push	eax
	lea	ecx, DWORD PTR _strArtifactType$218150[ebp]
	call	DWORD PTR __imp_??0?$basic_string@DU?$char_traits@D@std@@V?$allocator@D@2@@std@@QAE@PBD@Z
	mov	BYTE PTR __$EHRec$[ebp+8], 14		; 0000000eH

; 107  : 				LookupTable::iterator it = kArtifactTypeLookupTable.find(strArtifactType);

	lea	edx, DWORD PTR _strArtifactType$218150[ebp]
	push	edx
	lea	eax, DWORD PTR _it$218151[ebp]
	push	eax
	lea	ecx, DWORD PTR _kArtifactTypeLookupTable$217906[ebp]
	call	?lower_bound@?$_Hash@V?$_Umap_traits@V?$basic_string@DU?$char_traits@D@std@@V?$allocator@D@2@@std@@PAW4GreatWorkArtifactClass@@V?$_Hash_compare@V?$basic_string@DU?$char_traits@D@std@@V?$allocator@D@2@@std@@V?$hash@V?$basic_string@DU?$char_traits@D@std@@V?$allocator@D@2@@std@@@tr1@2@U?$equal_to@V?$basic_string@DU?$char_traits@D@std@@V?$allocator@D@2@@std@@@2@@stdext@@V?$allocator@U?$pair@$$CBV?$basic_string@DU?$char_traits@D@std@@V?$allocator@D@2@@std@@PAW4GreatWorkArtifactClass@@@std@@@2@$0A@@tr1@std@@@stdext@@QAE?AV?$_Iterator@$0A@@?$list@U?$pair@$$CBV?$basic_string@DU?$char_traits@D@std@@V?$allocator@D@2@@std@@PAW4GreatWorkArtifactClass@@@std@@V?$allocator@U?$pair@$$CBV?$basic_string@DU?$char_traits@D@std@@V?$allocator@D@2@@std@@PAW4GreatWorkArtifactClass@@@std@@@2@@std@@ABV?$basic_string@DU?$char_traits@D@std@@V?$allocator@D@2@@5@@Z ; stdext::_Hash<std::tr1::_Umap_traits<std::basic_string<char,std::char_traits<char>,std::allocator<char> >,enum GreatWorkArtifactClass *,stdext::_Hash_compare<std::basic_string<char,std::char_traits<char>,std::allocator<char> >,std::tr1::hash<std::basic_string<char,std::char_traits<char>,std::allocator<char> > >,std::equal_to<std::basic_string<char,std::char_traits<char>,std::allocator<char> > > >,std::allocator<std::pair<std::basic_string<char,std::char_traits<char>,std::allocator<char> > const ,enum GreatWorkArtifactClass *> >,0> >::lower_bound

; 108  : 				if(it != kArtifactTypeLookupTable.end())

	mov	ecx, DWORD PTR _kArtifactTypeLookupTable$217906[ebp+8]
	mov	DWORD PTR $T226471[ebp], ecx
	mov	edx, DWORD PTR $T226471[ebp]
	mov	DWORD PTR $T225674[ebp], edx
	mov	eax, DWORD PTR _it$218151[ebp]
	xor	ecx, ecx
	cmp	eax, DWORD PTR $T225674[ebp]
	sete	cl
	movzx	edx, cl
	neg	edx
	sbb	edx, edx
	add	edx, 1
	movzx	eax, dl
	test	eax, eax
	je	SHORT $LN22@AcquireTyp

; 109  : 				{
; 110  : 					(*it->second) = static_cast<GreatWorkArtifactClass>(kResults.GetInt(1));

	mov	ecx, DWORD PTR _it$218151[ebp]
	add	ecx, 8
	mov	DWORD PTR $T226518[ebp], ecx
	push	1
	lea	ecx, DWORD PTR _kResults$218144[ebp]
	call	DWORD PTR __imp_?GetInt@Results@Database@@QAEHH@Z
	mov	edx, DWORD PTR $T226518[ebp]
	mov	ecx, DWORD PTR [edx+28]
	mov	DWORD PTR [ecx], eax
$LN22@AcquireTyp:

; 111  : 				}
; 112  : 			}

	mov	BYTE PTR __$EHRec$[ebp+8], 13		; 0000000dH
	lea	ecx, DWORD PTR _strArtifactType$218150[ebp]
	call	DWORD PTR __imp_??1?$basic_string@DU?$char_traits@D@std@@V?$allocator@D@2@@std@@QAE@XZ
	jmp	$LN24@AcquireTyp
$LN25@AcquireTyp:

; 113  : 		}
; 114  : 
; 115  : 		for(LookupTable::iterator it = kArtifactTypeLookupTable.begin(); it != kArtifactTypeLookupTable.end(); ++it)

	mov	edx, DWORD PTR _kArtifactTypeLookupTable$217906[ebp+8]
	mov	DWORD PTR $T226524[ebp], edx
	mov	eax, DWORD PTR $T226524[ebp]
	mov	ecx, DWORD PTR [eax]
	mov	DWORD PTR $T226533[ebp], ecx
	mov	edx, DWORD PTR $T226533[ebp]
	mov	DWORD PTR _it$218156[ebp], edx
	jmp	SHORT $LN21@AcquireTyp
$LN395@AcquireTyp:
	mov	eax, DWORD PTR _it$218156[ebp]
	mov	ecx, DWORD PTR [eax]
	mov	DWORD PTR _it$218156[ebp], ecx
$LN21@AcquireTyp:
	mov	edx, DWORD PTR _kArtifactTypeLookupTable$217906[ebp+8]
	mov	DWORD PTR $T226577[ebp], edx
	mov	eax, DWORD PTR $T226577[ebp]
	mov	DWORD PTR $T225675[ebp], eax
	mov	ecx, DWORD PTR _it$218156[ebp]
	xor	edx, edx
	cmp	ecx, DWORD PTR $T225675[ebp]
	sete	dl
	movzx	eax, dl
	neg	eax
	sbb	eax, eax
	add	eax, 1
	movzx	ecx, al
	test	ecx, ecx
	je	$LN19@AcquireTyp

; 116  : 		{
; 117  : 			if((*it->second) == NO_GREAT_WORK_ARTIFACT_CLASS)

	mov	edx, DWORD PTR _it$218156[ebp]
	mov	eax, DWORD PTR [edx+36]
	cmp	DWORD PTR [eax], 0
	jne	$LN18@AcquireTyp

; 118  : 			{
; 119  : 				char msg[256] = {0};

	mov	BYTE PTR _msg$218163[ebp], 0
	push	255					; 000000ffH
	push	0
	lea	ecx, DWORD PTR _msg$218163[ebp+1]
	push	ecx
	call	_memset
	add	esp, 12					; 0000000cH

; 120  : 				sprintf_s(msg, "ArtifactType - %s is used in the DLL but does not exist in the database.", it->first.c_str());

	mov	edx, DWORD PTR _it$218156[ebp]
	add	edx, 8
	mov	DWORD PTR $T226648[ebp], edx
	mov	ecx, DWORD PTR $T226648[ebp]
	call	DWORD PTR __imp_?c_str@?$basic_string@DU?$char_traits@D@std@@V?$allocator@D@2@@std@@QBEPBDXZ
	push	eax
	push	OFFSET ??_C@_0EJ@DFFLCDJG@ArtifactType?5?9?5?$CFs?5is?5used?5in?5the@
	lea	eax, DWORD PTR _msg$218163[ebp]
	push	eax
	call	??$sprintf_s@$0BAA@@@YAHAAY0BAA@DPBDZZ	; sprintf_s<256>
	add	esp, 12					; 0000000cH

; 121  : 				FILogFile* pLog = LOGFILEMGR.GetLog("Gamecore.log", FILogFile::kDontTimeStamp);

	call	?GetInstance@FILogFileMgr@@SAAAV1@XZ	; FILogFileMgr::GetInstance
	mov	DWORD PTR tv411[ebp], eax
	push	0
	push	1
	push	OFFSET ??_C@_0N@GNBOCNM@Gamecore?4log?$AA@
	mov	ecx, DWORD PTR tv411[ebp]
	mov	edx, DWORD PTR [ecx]
	mov	ecx, DWORD PTR tv411[ebp]
	mov	eax, DWORD PTR [edx+12]
	call	eax
	mov	DWORD PTR _pLog$218170[ebp], eax

; 122  : 				pLog->WarningMsg(msg);

	lea	ecx, DWORD PTR _msg$218163[ebp]
	push	ecx
	mov	edx, DWORD PTR _pLog$218170[ebp]
	mov	eax, DWORD PTR [edx]
	mov	ecx, DWORD PTR _pLog$218170[ebp]
	push	ecx
	mov	edx, DWORD PTR [eax+8]
	call	edx
	add	esp, 8
$LN18@AcquireTyp:

; 123  : 				CvAssertMsg(false, msg);
; 124  : 			}
; 125  : 		}

	jmp	$LN395@AcquireTyp
$LN19@AcquireTyp:

; 126  : 	}

	mov	BYTE PTR __$EHRec$[ebp+8], 0
	lea	ecx, DWORD PTR _kResults$218144[ebp]
	call	DWORD PTR __imp_??1Results@Database@@UAE@XZ
	mov	DWORD PTR __$EHRec$[ebp+8], -1
	mov	DWORD PTR __$EHRec$[ebp+8], 15		; 0000000fH
	lea	eax, DWORD PTR _kArtifactTypeLookupTable$217906[ebp+16]
	mov	DWORD PTR $T226671[ebp], eax
	mov	BYTE PTR __$EHRec$[ebp+8], 16		; 00000010H
	mov	ecx, DWORD PTR $T226671[ebp]
	call	?_Tidy@?$vector@V?$_Iterator@$0A@@?$list@U?$pair@$$CBV?$basic_string@DU?$char_traits@D@std@@V?$allocator@D@2@@std@@PAW4GreatWorkArtifactClass@@@std@@V?$allocator@U?$pair@$$CBV?$basic_string@DU?$char_traits@D@std@@V?$allocator@D@2@@std@@PAW4GreatWorkArtifactClass@@@std@@@2@@std@@V?$allocator@V?$_Iterator@$0A@@?$list@U?$pair@$$CBV?$basic_string@DU?$char_traits@D@std@@V?$allocator@D@2@@std@@PAW4GreatWorkArtifactClass@@@std@@V?$allocator@U?$pair@$$CBV?$basic_string@DU?$char_traits@D@std@@V?$allocator@D@2@@std@@PAW4GreatWorkArtifactClass@@@std@@@2@@std@@@3@@std@@IAEXXZ ; std::vector<std::list<std::pair<std::basic_string<char,std::char_traits<char>,std::allocator<char> > const ,enum GreatWorkArtifactClass *>,std::allocator<std::pair<std::basic_string<char,std::char_traits<char>,std::allocator<char> > const ,enum GreatWorkArtifactClass *> > >::_Iterator<0>,std::allocator<std::list<std::pair<std::basic_string<char,std::char_traits<char>,std::allocator<char> > const ,enum GreatWorkArtifactClass *>,std::allocator<std::pair<std::basic_string<char,std::char_traits<char>,std::allocator<char> > const ,enum GreatWorkArtifactClass *> > >::_Iterator<0> > >::_Tidy
	mov	BYTE PTR __$EHRec$[ebp+8], 15		; 0000000fH
	mov	DWORD PTR __$EHRec$[ebp+8], -1
	lea	ecx, DWORD PTR _kArtifactTypeLookupTable$217906[ebp+4]
	mov	DWORD PTR $T226711[ebp], ecx
	mov	DWORD PTR __$EHRec$[ebp+8], 17		; 00000011H
	mov	ecx, DWORD PTR $T226711[ebp]
	call	?_Tidy@?$list@U?$pair@$$CBV?$basic_string@DU?$char_traits@D@std@@V?$allocator@D@2@@std@@PAW4GreatWorkArtifactClass@@@std@@V?$allocator@U?$pair@$$CBV?$basic_string@DU?$char_traits@D@std@@V?$allocator@D@2@@std@@PAW4GreatWorkArtifactClass@@@std@@@2@@std@@IAEXXZ ; std::list<std::pair<std::basic_string<char,std::char_traits<char>,std::allocator<char> > const ,enum GreatWorkArtifactClass *>,std::allocator<std::pair<std::basic_string<char,std::char_traits<char>,std::allocator<char> > const ,enum GreatWorkArtifactClass *> > >::_Tidy
	mov	DWORD PTR __$EHRec$[ebp+8], -1

; 127  : 
; 128  : 	//GreatWorkSlots
; 129  : 	{
; 130  : 		typedef std::tr1::unordered_map<std::string, GreatWorkSlotType*> LookupTable;
; 131  : 		LookupTable kTypeLookupTable;

	lea	edx, DWORD PTR $T226762[ebp]
	push	edx
	lea	eax, DWORD PTR $T226763[ebp]
	push	eax
	lea	ecx, DWORD PTR _kTypeLookupTable$219281[ebp]
	call	??0?$_Hash@V?$_Umap_traits@V?$basic_string@DU?$char_traits@D@std@@V?$allocator@D@2@@std@@PAW4GreatWorkSlotType@@V?$_Hash_compare@V?$basic_string@DU?$char_traits@D@std@@V?$allocator@D@2@@std@@V?$hash@V?$basic_string@DU?$char_traits@D@std@@V?$allocator@D@2@@std@@@tr1@2@U?$equal_to@V?$basic_string@DU?$char_traits@D@std@@V?$allocator@D@2@@std@@@2@@stdext@@V?$allocator@U?$pair@$$CBV?$basic_string@DU?$char_traits@D@std@@V?$allocator@D@2@@std@@PAW4GreatWorkSlotType@@@std@@@2@$0A@@tr1@std@@@stdext@@QAE@ABV?$_Hash_compare@V?$basic_string@DU?$char_traits@D@std@@V?$allocator@D@2@@std@@V?$hash@V?$basic_string@DU?$char_traits@D@std@@V?$allocator@D@2@@std@@@tr1@2@U?$equal_to@V?$basic_string@DU?$char_traits@D@std@@V?$allocator@D@2@@std@@@2@@1@ABV?$allocator@U?$pair@$$CBV?$basic_string@DU?$char_traits@D@std@@V?$allocator@D@2@@std@@PAW4GreatWorkSlotType@@@std@@@std@@@Z ; stdext::_Hash<std::tr1::_Umap_traits<std::basic_string<char,std::char_traits<char>,std::allocator<char> >,enum GreatWorkSlotType *,stdext::_Hash_compare<std::basic_string<char,std::char_traits<char>,std::allocator<char> >,std::tr1::hash<std::basic_string<char,std::char_traits<char>,std::allocator<char> > >,std::equal_to<std::basic_string<char,std::char_traits<char>,std::allocator<char> > > >,std::allocator<std::pair<std::basic_string<char,std::char_traits<char>,std::allocator<char> > const ,enum GreatWorkSlotType *> >,0> >::_Hash<std::tr1::_Umap_traits<std::basic_string<char,std::char_traits<char>,std::allocator<char> >,enum GreatWorkSlotType *,stdext::_Hash_compare<std::basic_string<char,std::char_traits<char>,std::allocator<char> >,std::tr1::hash<std::basic_string<char,std::char_traits<char>,std::allocator<char> > >,std::equal_to<std::basic_string<char,std::char_traits<char>,std::allocator<char> > > >,std::allocator<std::pair<std::basic_string<char,std::char_traits<char>,std::allocator<char> > const ,enum GreatWorkSlotType *> >,0> >
	mov	DWORD PTR __$EHRec$[ebp+8], 18		; 00000012H

; 132  : 		kTypeLookupTable.insert(make_pair(std::string("GREAT_WORK_SLOT_ART_ARTIFACT"), &s_eGREAT_WORK_SLOT_ART_ARTIFACT));

	push	OFFSET ?s_eGREAT_WORK_SLOT_ART_ARTIFACT@@3W4GreatWorkSlotType@@A ; s_eGREAT_WORK_SLOT_ART_ARTIFACT
	sub	esp, 28					; 0000001cH
	mov	ecx, esp
	mov	DWORD PTR $T225677[ebp], esp
	push	OFFSET ??_C@_0BN@CGPMDLDK@GREAT_WORK_SLOT_ART_ARTIFACT?$AA@
	call	DWORD PTR __imp_??0?$basic_string@DU?$char_traits@D@std@@V?$allocator@D@2@@std@@QAE@PBD@Z
	mov	DWORD PTR tv2917[ebp], eax
	lea	ecx, DWORD PTR $T225678[ebp]
	push	ecx
	call	??$make_pair@V?$basic_string@DU?$char_traits@D@std@@V?$allocator@D@2@@std@@PAW4GreatWorkSlotType@@@std@@YA?AU?$pair@V?$basic_string@DU?$char_traits@D@std@@V?$allocator@D@2@@std@@PAW4GreatWorkSlotType@@@0@V?$basic_string@DU?$char_traits@D@std@@V?$allocator@D@2@@0@PAW4GreatWorkSlotType@@@Z ; std::make_pair<std::basic_string<char,std::char_traits<char>,std::allocator<char> >,enum GreatWorkSlotType *>
	add	esp, 36					; 00000024H
	mov	DWORD PTR tv2918[ebp], eax
	mov	edx, DWORD PTR tv2918[ebp]
	mov	DWORD PTR $T226772[ebp], edx
	mov	BYTE PTR __$EHRec$[ebp+8], 19		; 00000013H
	mov	eax, DWORD PTR $T226772[ebp]
	push	eax
	lea	ecx, DWORD PTR $T225676[ebp]
	call	DWORD PTR __imp_??0?$basic_string@DU?$char_traits@D@std@@V?$allocator@D@2@@std@@QAE@ABV01@@Z
	mov	ecx, DWORD PTR $T226772[ebp]
	mov	edx, DWORD PTR [ecx+28]
	mov	DWORD PTR $T225676[ebp+28], edx
	mov	BYTE PTR __$EHRec$[ebp+8], 20		; 00000014H
	mov	eax, DWORD PTR _kTypeLookupTable$219281[ebp+8]
	mov	DWORD PTR $T226785[ebp], eax
	mov	ecx, DWORD PTR $T226785[ebp]
	mov	DWORD PTR $T226802[ebp], ecx
	mov	edx, DWORD PTR $T226802[ebp]
	push	edx
	lea	eax, DWORD PTR $T225676[ebp]
	push	eax
	lea	ecx, DWORD PTR $T225679[ebp]
	push	ecx
	lea	ecx, DWORD PTR _kTypeLookupTable$219281[ebp]
	call	?_Insert@?$_Hash@V?$_Umap_traits@V?$basic_string@DU?$char_traits@D@std@@V?$allocator@D@2@@std@@PAW4GreatWorkSlotType@@V?$_Hash_compare@V?$basic_string@DU?$char_traits@D@std@@V?$allocator@D@2@@std@@V?$hash@V?$basic_string@DU?$char_traits@D@std@@V?$allocator@D@2@@std@@@tr1@2@U?$equal_to@V?$basic_string@DU?$char_traits@D@std@@V?$allocator@D@2@@std@@@2@@stdext@@V?$allocator@U?$pair@$$CBV?$basic_string@DU?$char_traits@D@std@@V?$allocator@D@2@@std@@PAW4GreatWorkSlotType@@@std@@@2@$0A@@tr1@std@@@stdext@@IAE?AU?$pair@V?$_Iterator@$0A@@?$list@U?$pair@$$CBV?$basic_string@DU?$char_traits@D@std@@V?$allocator@D@2@@std@@PAW4GreatWorkSlotType@@@std@@V?$allocator@U?$pair@$$CBV?$basic_string@DU?$char_traits@D@std@@V?$allocator@D@2@@std@@PAW4GreatWorkSlotType@@@std@@@2@@std@@_N@std@@ABU?$pair@$$CBV?$basic_string@DU?$char_traits@D@std@@V?$allocator@D@2@@std@@PAW4GreatWorkSlotType@@@4@V?$_Iterator@$0A@@?$list@U?$pair@$$CBV?$basic_string@DU?$char_traits@D@std@@V?$allocator@D@2@@std@@PAW4GreatWorkSlotType@@@std@@V?$allocator@U?$pair@$$CBV?$basic_string@DU?$char_traits@D@std@@V?$allocator@D@2@@std@@PAW4GreatWorkSlotType@@@std@@@2@@4@@Z ; stdext::_Hash<std::tr1::_Umap_traits<std::basic_string<char,std::char_traits<char>,std::allocator<char> >,enum GreatWorkSlotType *,stdext::_Hash_compare<std::basic_string<char,std::char_traits<char>,std::allocator<char> >,std::tr1::hash<std::basic_string<char,std::char_traits<char>,std::allocator<char> > >,std::equal_to<std::basic_string<char,std::char_traits<char>,std::allocator<char> > > >,std::allocator<std::pair<std::basic_string<char,std::char_traits<char>,std::allocator<char> > const ,enum GreatWorkSlotType *> >,0> >::_Insert
	mov	BYTE PTR __$EHRec$[ebp+8], 19		; 00000013H
	lea	ecx, DWORD PTR $T225676[ebp]
	call	DWORD PTR __imp_??1?$basic_string@DU?$char_traits@D@std@@V?$allocator@D@2@@std@@QAE@XZ
	mov	BYTE PTR __$EHRec$[ebp+8], 18		; 00000012H
	lea	ecx, DWORD PTR $T225678[ebp]
	call	DWORD PTR __imp_??1?$basic_string@DU?$char_traits@D@std@@V?$allocator@D@2@@std@@QAE@XZ

; 133  : 		kTypeLookupTable.insert(make_pair(std::string("GREAT_WORK_SLOT_LITERATURE"), &s_eGREAT_WORK_SLOT_LITERATURE));

	push	OFFSET ?s_eGREAT_WORK_SLOT_LITERATURE@@3W4GreatWorkSlotType@@A ; s_eGREAT_WORK_SLOT_LITERATURE
	sub	esp, 28					; 0000001cH
	mov	ecx, esp
	mov	DWORD PTR $T225681[ebp], esp
	push	OFFSET ??_C@_0BL@MEMIEKNO@GREAT_WORK_SLOT_LITERATURE?$AA@
	call	DWORD PTR __imp_??0?$basic_string@DU?$char_traits@D@std@@V?$allocator@D@2@@std@@QAE@PBD@Z
	mov	DWORD PTR tv2924[ebp], eax
	lea	edx, DWORD PTR $T225682[ebp]
	push	edx
	call	??$make_pair@V?$basic_string@DU?$char_traits@D@std@@V?$allocator@D@2@@std@@PAW4GreatWorkSlotType@@@std@@YA?AU?$pair@V?$basic_string@DU?$char_traits@D@std@@V?$allocator@D@2@@std@@PAW4GreatWorkSlotType@@@0@V?$basic_string@DU?$char_traits@D@std@@V?$allocator@D@2@@0@PAW4GreatWorkSlotType@@@Z ; std::make_pair<std::basic_string<char,std::char_traits<char>,std::allocator<char> >,enum GreatWorkSlotType *>
	add	esp, 36					; 00000024H
	mov	DWORD PTR tv2925[ebp], eax
	mov	eax, DWORD PTR tv2925[ebp]
	mov	DWORD PTR $T226823[ebp], eax
	mov	BYTE PTR __$EHRec$[ebp+8], 21		; 00000015H
	mov	ecx, DWORD PTR $T226823[ebp]
	push	ecx
	lea	ecx, DWORD PTR $T225680[ebp]
	call	DWORD PTR __imp_??0?$basic_string@DU?$char_traits@D@std@@V?$allocator@D@2@@std@@QAE@ABV01@@Z
	mov	edx, DWORD PTR $T226823[ebp]
	mov	eax, DWORD PTR [edx+28]
	mov	DWORD PTR $T225680[ebp+28], eax
	mov	BYTE PTR __$EHRec$[ebp+8], 22		; 00000016H
	mov	ecx, DWORD PTR _kTypeLookupTable$219281[ebp+8]
	mov	DWORD PTR $T226836[ebp], ecx
	mov	edx, DWORD PTR $T226836[ebp]
	mov	DWORD PTR $T226853[ebp], edx
	mov	eax, DWORD PTR $T226853[ebp]
	push	eax
	lea	ecx, DWORD PTR $T225680[ebp]
	push	ecx
	lea	edx, DWORD PTR $T225683[ebp]
	push	edx
	lea	ecx, DWORD PTR _kTypeLookupTable$219281[ebp]
	call	?_Insert@?$_Hash@V?$_Umap_traits@V?$basic_string@DU?$char_traits@D@std@@V?$allocator@D@2@@std@@PAW4GreatWorkSlotType@@V?$_Hash_compare@V?$basic_string@DU?$char_traits@D@std@@V?$allocator@D@2@@std@@V?$hash@V?$basic_string@DU?$char_traits@D@std@@V?$allocator@D@2@@std@@@tr1@2@U?$equal_to@V?$basic_string@DU?$char_traits@D@std@@V?$allocator@D@2@@std@@@2@@stdext@@V?$allocator@U?$pair@$$CBV?$basic_string@DU?$char_traits@D@std@@V?$allocator@D@2@@std@@PAW4GreatWorkSlotType@@@std@@@2@$0A@@tr1@std@@@stdext@@IAE?AU?$pair@V?$_Iterator@$0A@@?$list@U?$pair@$$CBV?$basic_string@DU?$char_traits@D@std@@V?$allocator@D@2@@std@@PAW4GreatWorkSlotType@@@std@@V?$allocator@U?$pair@$$CBV?$basic_string@DU?$char_traits@D@std@@V?$allocator@D@2@@std@@PAW4GreatWorkSlotType@@@std@@@2@@std@@_N@std@@ABU?$pair@$$CBV?$basic_string@DU?$char_traits@D@std@@V?$allocator@D@2@@std@@PAW4GreatWorkSlotType@@@4@V?$_Iterator@$0A@@?$list@U?$pair@$$CBV?$basic_string@DU?$char_traits@D@std@@V?$allocator@D@2@@std@@PAW4GreatWorkSlotType@@@std@@V?$allocator@U?$pair@$$CBV?$basic_string@DU?$char_traits@D@std@@V?$allocator@D@2@@std@@PAW4GreatWorkSlotType@@@std@@@2@@4@@Z ; stdext::_Hash<std::tr1::_Umap_traits<std::basic_string<char,std::char_traits<char>,std::allocator<char> >,enum GreatWorkSlotType *,stdext::_Hash_compare<std::basic_string<char,std::char_traits<char>,std::allocator<char> >,std::tr1::hash<std::basic_string<char,std::char_traits<char>,std::allocator<char> > >,std::equal_to<std::basic_string<char,std::char_traits<char>,std::allocator<char> > > >,std::allocator<std::pair<std::basic_string<char,std::char_traits<char>,std::allocator<char> > const ,enum GreatWorkSlotType *> >,0> >::_Insert
	mov	BYTE PTR __$EHRec$[ebp+8], 21		; 00000015H
	lea	ecx, DWORD PTR $T225680[ebp]
	call	DWORD PTR __imp_??1?$basic_string@DU?$char_traits@D@std@@V?$allocator@D@2@@std@@QAE@XZ
	mov	BYTE PTR __$EHRec$[ebp+8], 18		; 00000012H
	lea	ecx, DWORD PTR $T225682[ebp]
	call	DWORD PTR __imp_??1?$basic_string@DU?$char_traits@D@std@@V?$allocator@D@2@@std@@QAE@XZ

; 134  : 		kTypeLookupTable.insert(make_pair(std::string("GREAT_WORK_SLOT_MUSIC"), &s_eGREAT_WORK_SLOT_MUSIC));

	push	OFFSET ?s_eGREAT_WORK_SLOT_MUSIC@@3W4GreatWorkSlotType@@A ; s_eGREAT_WORK_SLOT_MUSIC
	sub	esp, 28					; 0000001cH
	mov	ecx, esp
	mov	DWORD PTR $T225685[ebp], esp
	push	OFFSET ??_C@_0BG@BDIEOOGE@GREAT_WORK_SLOT_MUSIC?$AA@
	call	DWORD PTR __imp_??0?$basic_string@DU?$char_traits@D@std@@V?$allocator@D@2@@std@@QAE@PBD@Z
	mov	DWORD PTR tv2931[ebp], eax
	lea	eax, DWORD PTR $T225686[ebp]
	push	eax
	call	??$make_pair@V?$basic_string@DU?$char_traits@D@std@@V?$allocator@D@2@@std@@PAW4GreatWorkSlotType@@@std@@YA?AU?$pair@V?$basic_string@DU?$char_traits@D@std@@V?$allocator@D@2@@std@@PAW4GreatWorkSlotType@@@0@V?$basic_string@DU?$char_traits@D@std@@V?$allocator@D@2@@0@PAW4GreatWorkSlotType@@@Z ; std::make_pair<std::basic_string<char,std::char_traits<char>,std::allocator<char> >,enum GreatWorkSlotType *>
	add	esp, 36					; 00000024H
	mov	DWORD PTR tv2932[ebp], eax
	mov	ecx, DWORD PTR tv2932[ebp]
	mov	DWORD PTR $T226874[ebp], ecx
	mov	BYTE PTR __$EHRec$[ebp+8], 23		; 00000017H
	mov	edx, DWORD PTR $T226874[ebp]
	push	edx
	lea	ecx, DWORD PTR $T225684[ebp]
	call	DWORD PTR __imp_??0?$basic_string@DU?$char_traits@D@std@@V?$allocator@D@2@@std@@QAE@ABV01@@Z
	mov	eax, DWORD PTR $T226874[ebp]
	mov	ecx, DWORD PTR [eax+28]
	mov	DWORD PTR $T225684[ebp+28], ecx
	mov	BYTE PTR __$EHRec$[ebp+8], 24		; 00000018H
	mov	edx, DWORD PTR _kTypeLookupTable$219281[ebp+8]
	mov	DWORD PTR $T226887[ebp], edx
	mov	eax, DWORD PTR $T226887[ebp]
	mov	DWORD PTR $T226904[ebp], eax
	mov	ecx, DWORD PTR $T226904[ebp]
	push	ecx
	lea	edx, DWORD PTR $T225684[ebp]
	push	edx
	lea	eax, DWORD PTR $T225687[ebp]
	push	eax
	lea	ecx, DWORD PTR _kTypeLookupTable$219281[ebp]
	call	?_Insert@?$_Hash@V?$_Umap_traits@V?$basic_string@DU?$char_traits@D@std@@V?$allocator@D@2@@std@@PAW4GreatWorkSlotType@@V?$_Hash_compare@V?$basic_string@DU?$char_traits@D@std@@V?$allocator@D@2@@std@@V?$hash@V?$basic_string@DU?$char_traits@D@std@@V?$allocator@D@2@@std@@@tr1@2@U?$equal_to@V?$basic_string@DU?$char_traits@D@std@@V?$allocator@D@2@@std@@@2@@stdext@@V?$allocator@U?$pair@$$CBV?$basic_string@DU?$char_traits@D@std@@V?$allocator@D@2@@std@@PAW4GreatWorkSlotType@@@std@@@2@$0A@@tr1@std@@@stdext@@IAE?AU?$pair@V?$_Iterator@$0A@@?$list@U?$pair@$$CBV?$basic_string@DU?$char_traits@D@std@@V?$allocator@D@2@@std@@PAW4GreatWorkSlotType@@@std@@V?$allocator@U?$pair@$$CBV?$basic_string@DU?$char_traits@D@std@@V?$allocator@D@2@@std@@PAW4GreatWorkSlotType@@@std@@@2@@std@@_N@std@@ABU?$pair@$$CBV?$basic_string@DU?$char_traits@D@std@@V?$allocator@D@2@@std@@PAW4GreatWorkSlotType@@@4@V?$_Iterator@$0A@@?$list@U?$pair@$$CBV?$basic_string@DU?$char_traits@D@std@@V?$allocator@D@2@@std@@PAW4GreatWorkSlotType@@@std@@V?$allocator@U?$pair@$$CBV?$basic_string@DU?$char_traits@D@std@@V?$allocator@D@2@@std@@PAW4GreatWorkSlotType@@@std@@@2@@4@@Z ; stdext::_Hash<std::tr1::_Umap_traits<std::basic_string<char,std::char_traits<char>,std::allocator<char> >,enum GreatWorkSlotType *,stdext::_Hash_compare<std::basic_string<char,std::char_traits<char>,std::allocator<char> >,std::tr1::hash<std::basic_string<char,std::char_traits<char>,std::allocator<char> > >,std::equal_to<std::basic_string<char,std::char_traits<char>,std::allocator<char> > > >,std::allocator<std::pair<std::basic_string<char,std::char_traits<char>,std::allocator<char> > const ,enum GreatWorkSlotType *> >,0> >::_Insert
	mov	BYTE PTR __$EHRec$[ebp+8], 23		; 00000017H
	lea	ecx, DWORD PTR $T225684[ebp]
	call	DWORD PTR __imp_??1?$basic_string@DU?$char_traits@D@std@@V?$allocator@D@2@@std@@QAE@XZ
	mov	BYTE PTR __$EHRec$[ebp+8], 18		; 00000012H
	lea	ecx, DWORD PTR $T225686[ebp]
	call	DWORD PTR __imp_??1?$basic_string@DU?$char_traits@D@std@@V?$allocator@D@2@@std@@QAE@XZ

; 135  : 
; 136  : 		Database::Results kResults;

	push	0
	lea	ecx, DWORD PTR _kResults$219501[ebp]
	call	DWORD PTR __imp_??0Results@Database@@QAE@PBD@Z
	mov	BYTE PTR __$EHRec$[ebp+8], 25		; 00000019H

; 137  : 		if(db.Execute(kResults, "SELECT Type, ID from GreatWorkSlots"))

	push	-1
	push	OFFSET ??_C@_0CE@MCMINNCJ@SELECT?5Type?0?5ID?5from?5GreatWorkSl@
	lea	ecx, DWORD PTR _kResults$219501[ebp]
	push	ecx
	mov	ecx, DWORD PTR _db$[ebp]
	call	DWORD PTR __imp_?Execute@Connection@Database@@QBE_NAAVResults@2@PBDH@Z
	movzx	edx, al
	test	edx, edx
	je	$LN17@AcquireTyp
$LN16@AcquireTyp:

; 138  : 		{
; 139  : 			while(kResults.Step())

	lea	ecx, DWORD PTR _kResults$219501[ebp]
	call	DWORD PTR __imp_?Step@Results@Database@@QAE_NXZ
	movzx	eax, al
	test	eax, eax
	je	$LN17@AcquireTyp

; 140  : 			{
; 141  : 				std::string strType = kResults.GetText(0);

	push	0
	lea	ecx, DWORD PTR _kResults$219501[ebp]
	call	DWORD PTR __imp_?GetText@Results@Database@@QAEPBDH@Z
	push	eax
	lea	ecx, DWORD PTR _strType$219507[ebp]
	call	DWORD PTR __imp_??0?$basic_string@DU?$char_traits@D@std@@V?$allocator@D@2@@std@@QAE@PBD@Z
	mov	BYTE PTR __$EHRec$[ebp+8], 26		; 0000001aH

; 142  : 				LookupTable::iterator it = kTypeLookupTable.find(strType);

	lea	ecx, DWORD PTR _strType$219507[ebp]
	push	ecx
	lea	edx, DWORD PTR _it$219508[ebp]
	push	edx
	lea	ecx, DWORD PTR _kTypeLookupTable$219281[ebp]
	call	?lower_bound@?$_Hash@V?$_Umap_traits@V?$basic_string@DU?$char_traits@D@std@@V?$allocator@D@2@@std@@PAW4GreatWorkSlotType@@V?$_Hash_compare@V?$basic_string@DU?$char_traits@D@std@@V?$allocator@D@2@@std@@V?$hash@V?$basic_string@DU?$char_traits@D@std@@V?$allocator@D@2@@std@@@tr1@2@U?$equal_to@V?$basic_string@DU?$char_traits@D@std@@V?$allocator@D@2@@std@@@2@@stdext@@V?$allocator@U?$pair@$$CBV?$basic_string@DU?$char_traits@D@std@@V?$allocator@D@2@@std@@PAW4GreatWorkSlotType@@@std@@@2@$0A@@tr1@std@@@stdext@@QAE?AV?$_Iterator@$0A@@?$list@U?$pair@$$CBV?$basic_string@DU?$char_traits@D@std@@V?$allocator@D@2@@std@@PAW4GreatWorkSlotType@@@std@@V?$allocator@U?$pair@$$CBV?$basic_string@DU?$char_traits@D@std@@V?$allocator@D@2@@std@@PAW4GreatWorkSlotType@@@std@@@2@@std@@ABV?$basic_string@DU?$char_traits@D@std@@V?$allocator@D@2@@5@@Z ; stdext::_Hash<std::tr1::_Umap_traits<std::basic_string<char,std::char_traits<char>,std::allocator<char> >,enum GreatWorkSlotType *,stdext::_Hash_compare<std::basic_string<char,std::char_traits<char>,std::allocator<char> >,std::tr1::hash<std::basic_string<char,std::char_traits<char>,std::allocator<char> > >,std::equal_to<std::basic_string<char,std::char_traits<char>,std::allocator<char> > > >,std::allocator<std::pair<std::basic_string<char,std::char_traits<char>,std::allocator<char> > const ,enum GreatWorkSlotType *> >,0> >::lower_bound

; 143  : 				if(it != kTypeLookupTable.end())

	mov	eax, DWORD PTR _kTypeLookupTable$219281[ebp+8]
	mov	DWORD PTR $T226934[ebp], eax
	mov	ecx, DWORD PTR $T226934[ebp]
	mov	DWORD PTR $T225688[ebp], ecx
	mov	edx, DWORD PTR _it$219508[ebp]
	xor	eax, eax
	cmp	edx, DWORD PTR $T225688[ebp]
	sete	al
	movzx	ecx, al
	neg	ecx
	sbb	ecx, ecx
	add	ecx, 1
	movzx	edx, cl
	test	edx, edx
	je	SHORT $LN14@AcquireTyp

; 144  : 				{
; 145  : 					(*it->second) = static_cast<GreatWorkSlotType>(kResults.GetInt(1));

	mov	eax, DWORD PTR _it$219508[ebp]
	add	eax, 8
	mov	DWORD PTR $T226981[ebp], eax
	push	1
	lea	ecx, DWORD PTR _kResults$219501[ebp]
	call	DWORD PTR __imp_?GetInt@Results@Database@@QAEHH@Z
	mov	ecx, DWORD PTR $T226981[ebp]
	mov	edx, DWORD PTR [ecx+28]
	mov	DWORD PTR [edx], eax
$LN14@AcquireTyp:

; 146  : 				}
; 147  : 			}

	mov	BYTE PTR __$EHRec$[ebp+8], 25		; 00000019H
	lea	ecx, DWORD PTR _strType$219507[ebp]
	call	DWORD PTR __imp_??1?$basic_string@DU?$char_traits@D@std@@V?$allocator@D@2@@std@@QAE@XZ
	jmp	$LN16@AcquireTyp
$LN17@AcquireTyp:

; 148  : 		}
; 149  : 
; 150  : 		for(LookupTable::iterator it = kTypeLookupTable.begin(); it != kTypeLookupTable.end(); ++it)

	mov	eax, DWORD PTR _kTypeLookupTable$219281[ebp+8]
	mov	DWORD PTR $T226987[ebp], eax
	mov	ecx, DWORD PTR $T226987[ebp]
	mov	edx, DWORD PTR [ecx]
	mov	DWORD PTR $T226996[ebp], edx
	mov	eax, DWORD PTR $T226996[ebp]
	mov	DWORD PTR _it$219513[ebp], eax
	jmp	SHORT $LN13@AcquireTyp
$LN554@AcquireTyp:
	mov	ecx, DWORD PTR _it$219513[ebp]
	mov	edx, DWORD PTR [ecx]
	mov	DWORD PTR _it$219513[ebp], edx
$LN13@AcquireTyp:
	mov	eax, DWORD PTR _kTypeLookupTable$219281[ebp+8]
	mov	DWORD PTR $T227040[ebp], eax
	mov	ecx, DWORD PTR $T227040[ebp]
	mov	DWORD PTR $T225689[ebp], ecx
	mov	edx, DWORD PTR _it$219513[ebp]
	xor	eax, eax
	cmp	edx, DWORD PTR $T225689[ebp]
	sete	al
	movzx	ecx, al
	neg	ecx
	sbb	ecx, ecx
	add	ecx, 1
	movzx	edx, cl
	test	edx, edx
	je	$LN11@AcquireTyp

; 151  : 		{
; 152  : 			if((*it->second) == NO_GREAT_WORK_SLOT)

	mov	eax, DWORD PTR _it$219513[ebp]
	mov	ecx, DWORD PTR [eax+36]
	cmp	DWORD PTR [ecx], -1
	jne	$LN10@AcquireTyp

; 153  : 			{
; 154  : 				char msg[256] = {0};

	mov	BYTE PTR _msg$219520[ebp], 0
	push	255					; 000000ffH
	push	0
	lea	edx, DWORD PTR _msg$219520[ebp+1]
	push	edx
	call	_memset
	add	esp, 12					; 0000000cH

; 155  : 				sprintf_s(msg, "GreatWorkSlotType - %s is used in the DLL but does not exist in the database.", it->first.c_str());

	mov	eax, DWORD PTR _it$219513[ebp]
	add	eax, 8
	mov	DWORD PTR $T227111[ebp], eax
	mov	ecx, DWORD PTR $T227111[ebp]
	call	DWORD PTR __imp_?c_str@?$basic_string@DU?$char_traits@D@std@@V?$allocator@D@2@@std@@QBEPBDXZ
	push	eax
	push	OFFSET ??_C@_0EO@LHBFGGEG@GreatWorkSlotType?5?9?5?$CFs?5is?5used?5i@
	lea	ecx, DWORD PTR _msg$219520[ebp]
	push	ecx
	call	??$sprintf_s@$0BAA@@@YAHAAY0BAA@DPBDZZ	; sprintf_s<256>
	add	esp, 12					; 0000000cH

; 156  : 				FILogFile* pLog = LOGFILEMGR.GetLog("Gamecore.log", FILogFile::kDontTimeStamp);

	call	?GetInstance@FILogFileMgr@@SAAAV1@XZ	; FILogFileMgr::GetInstance
	mov	DWORD PTR tv615[ebp], eax
	push	0
	push	1
	push	OFFSET ??_C@_0N@GNBOCNM@Gamecore?4log?$AA@
	mov	edx, DWORD PTR tv615[ebp]
	mov	eax, DWORD PTR [edx]
	mov	ecx, DWORD PTR tv615[ebp]
	mov	edx, DWORD PTR [eax+12]
	call	edx
	mov	DWORD PTR _pLog$219522[ebp], eax

; 157  : 				pLog->WarningMsg(msg);

	lea	eax, DWORD PTR _msg$219520[ebp]
	push	eax
	mov	ecx, DWORD PTR _pLog$219522[ebp]
	mov	edx, DWORD PTR [ecx]
	mov	eax, DWORD PTR _pLog$219522[ebp]
	push	eax
	mov	ecx, DWORD PTR [edx+8]
	call	ecx
	add	esp, 8
$LN10@AcquireTyp:

; 158  : 				CvAssertMsg(false, msg);
; 159  : 			}
; 160  : 		}

	jmp	$LN554@AcquireTyp
$LN11@AcquireTyp:

; 161  : 	}

	mov	BYTE PTR __$EHRec$[ebp+8], 18		; 00000012H
	lea	ecx, DWORD PTR _kResults$219501[ebp]
	call	DWORD PTR __imp_??1Results@Database@@UAE@XZ
	mov	DWORD PTR __$EHRec$[ebp+8], -1
	mov	DWORD PTR __$EHRec$[ebp+8], 27		; 0000001bH
	lea	edx, DWORD PTR _kTypeLookupTable$219281[ebp+16]
	mov	DWORD PTR $T227134[ebp], edx
	mov	BYTE PTR __$EHRec$[ebp+8], 28		; 0000001cH
	mov	ecx, DWORD PTR $T227134[ebp]
	call	?_Tidy@?$vector@V?$_Iterator@$0A@@?$list@U?$pair@$$CBV?$basic_string@DU?$char_traits@D@std@@V?$allocator@D@2@@std@@PAW4GreatWorkSlotType@@@std@@V?$allocator@U?$pair@$$CBV?$basic_string@DU?$char_traits@D@std@@V?$allocator@D@2@@std@@PAW4GreatWorkSlotType@@@std@@@2@@std@@V?$allocator@V?$_Iterator@$0A@@?$list@U?$pair@$$CBV?$basic_string@DU?$char_traits@D@std@@V?$allocator@D@2@@std@@PAW4GreatWorkSlotType@@@std@@V?$allocator@U?$pair@$$CBV?$basic_string@DU?$char_traits@D@std@@V?$allocator@D@2@@std@@PAW4GreatWorkSlotType@@@std@@@2@@std@@@3@@std@@IAEXXZ ; std::vector<std::list<std::pair<std::basic_string<char,std::char_traits<char>,std::allocator<char> > const ,enum GreatWorkSlotType *>,std::allocator<std::pair<std::basic_string<char,std::char_traits<char>,std::allocator<char> > const ,enum GreatWorkSlotType *> > >::_Iterator<0>,std::allocator<std::list<std::pair<std::basic_string<char,std::char_traits<char>,std::allocator<char> > const ,enum GreatWorkSlotType *>,std::allocator<std::pair<std::basic_string<char,std::char_traits<char>,std::allocator<char> > const ,enum GreatWorkSlotType *> > >::_Iterator<0> > >::_Tidy
	mov	BYTE PTR __$EHRec$[ebp+8], 27		; 0000001bH
	mov	DWORD PTR __$EHRec$[ebp+8], -1
	lea	eax, DWORD PTR _kTypeLookupTable$219281[ebp+4]
	mov	DWORD PTR $T227174[ebp], eax
	mov	DWORD PTR __$EHRec$[ebp+8], 29		; 0000001dH
	mov	ecx, DWORD PTR $T227174[ebp]
	call	?_Tidy@?$list@U?$pair@$$CBV?$basic_string@DU?$char_traits@D@std@@V?$allocator@D@2@@std@@PAW4GreatWorkSlotType@@@std@@V?$allocator@U?$pair@$$CBV?$basic_string@DU?$char_traits@D@std@@V?$allocator@D@2@@std@@PAW4GreatWorkSlotType@@@std@@@2@@std@@IAEXXZ ; std::list<std::pair<std::basic_string<char,std::char_traits<char>,std::allocator<char> > const ,enum GreatWorkSlotType *>,std::allocator<std::pair<std::basic_string<char,std::char_traits<char>,std::allocator<char> > const ,enum GreatWorkSlotType *> > >::_Tidy
	mov	DWORD PTR __$EHRec$[ebp+8], -1

; 162  : 
; 163  : 	//MissionTypes
; 164  : 	{
; 165  : 		typedef std::tr1::unordered_map<std::string, MissionTypes*> LookupTable;
; 166  : 		LookupTable kMissionTypesLookupTable;

	lea	ecx, DWORD PTR $T227225[ebp]
	push	ecx
	lea	edx, DWORD PTR $T227226[ebp]
	push	edx
	lea	ecx, DWORD PTR _kMissionTypesLookupTable$220632[ebp]
	call	??0?$_Hash@V?$_Umap_traits@V?$basic_string@DU?$char_traits@D@std@@V?$allocator@D@2@@std@@PAW4MissionTypes@@V?$_Hash_compare@V?$basic_string@DU?$char_traits@D@std@@V?$allocator@D@2@@std@@V?$hash@V?$basic_string@DU?$char_traits@D@std@@V?$allocator@D@2@@std@@@tr1@2@U?$equal_to@V?$basic_string@DU?$char_traits@D@std@@V?$allocator@D@2@@std@@@2@@stdext@@V?$allocator@U?$pair@$$CBV?$basic_string@DU?$char_traits@D@std@@V?$allocator@D@2@@std@@PAW4MissionTypes@@@std@@@2@$0A@@tr1@std@@@stdext@@QAE@ABV?$_Hash_compare@V?$basic_string@DU?$char_traits@D@std@@V?$allocator@D@2@@std@@V?$hash@V?$basic_string@DU?$char_traits@D@std@@V?$allocator@D@2@@std@@@tr1@2@U?$equal_to@V?$basic_string@DU?$char_traits@D@std@@V?$allocator@D@2@@std@@@2@@1@ABV?$allocator@U?$pair@$$CBV?$basic_string@DU?$char_traits@D@std@@V?$allocator@D@2@@std@@PAW4MissionTypes@@@std@@@std@@@Z ; stdext::_Hash<std::tr1::_Umap_traits<std::basic_string<char,std::char_traits<char>,std::allocator<char> >,enum MissionTypes *,stdext::_Hash_compare<std::basic_string<char,std::char_traits<char>,std::allocator<char> >,std::tr1::hash<std::basic_string<char,std::char_traits<char>,std::allocator<char> > >,std::equal_to<std::basic_string<char,std::char_traits<char>,std::allocator<char> > > >,std::allocator<std::pair<std::basic_string<char,std::char_traits<char>,std::allocator<char> > const ,enum MissionTypes *> >,0> >::_Hash<std::tr1::_Umap_traits<std::basic_string<char,std::char_traits<char>,std::allocator<char> >,enum MissionTypes *,stdext::_Hash_compare<std::basic_string<char,std::char_traits<char>,std::allocator<char> >,std::tr1::hash<std::basic_string<char,std::char_traits<char>,std::allocator<char> > >,std::equal_to<std::basic_string<char,std::char_traits<char>,std::allocator<char> > > >,std::allocator<std::pair<std::basic_string<char,std::char_traits<char>,std::allocator<char> > const ,enum MissionTypes *> >,0> >
	mov	DWORD PTR __$EHRec$[ebp+8], 30		; 0000001eH

; 167  : 		kMissionTypesLookupTable.insert(make_pair(std::string("MISSION_MOVE_TO"), &s_eMISSION_MOVE_TO));

	push	OFFSET ?s_eMISSION_MOVE_TO@@3W4MissionTypes@@A ; s_eMISSION_MOVE_TO
	sub	esp, 28					; 0000001cH
	mov	ecx, esp
	mov	DWORD PTR $T225691[ebp], esp
	push	OFFSET ??_C@_0BA@GHBECEDD@MISSION_MOVE_TO?$AA@
	call	DWORD PTR __imp_??0?$basic_string@DU?$char_traits@D@std@@V?$allocator@D@2@@std@@QAE@PBD@Z
	mov	DWORD PTR tv2941[ebp], eax
	lea	eax, DWORD PTR $T225692[ebp]
	push	eax
	call	??$make_pair@V?$basic_string@DU?$char_traits@D@std@@V?$allocator@D@2@@std@@PAW4MissionTypes@@@std@@YA?AU?$pair@V?$basic_string@DU?$char_traits@D@std@@V?$allocator@D@2@@std@@PAW4MissionTypes@@@0@V?$basic_string@DU?$char_traits@D@std@@V?$allocator@D@2@@0@PAW4MissionTypes@@@Z ; std::make_pair<std::basic_string<char,std::char_traits<char>,std::allocator<char> >,enum MissionTypes *>
	add	esp, 36					; 00000024H
	mov	DWORD PTR tv2942[ebp], eax
	mov	ecx, DWORD PTR tv2942[ebp]
	mov	DWORD PTR $T227235[ebp], ecx
	mov	BYTE PTR __$EHRec$[ebp+8], 31		; 0000001fH
	mov	edx, DWORD PTR $T227235[ebp]
	push	edx
	lea	ecx, DWORD PTR $T225690[ebp]
	call	DWORD PTR __imp_??0?$basic_string@DU?$char_traits@D@std@@V?$allocator@D@2@@std@@QAE@ABV01@@Z
	mov	eax, DWORD PTR $T227235[ebp]
	mov	ecx, DWORD PTR [eax+28]
	mov	DWORD PTR $T225690[ebp+28], ecx
	mov	BYTE PTR __$EHRec$[ebp+8], 32		; 00000020H
	mov	edx, DWORD PTR _kMissionTypesLookupTable$220632[ebp+8]
	mov	DWORD PTR $T227248[ebp], edx
	mov	eax, DWORD PTR $T227248[ebp]
	mov	DWORD PTR $T227265[ebp], eax
	mov	ecx, DWORD PTR $T227265[ebp]
	push	ecx
	lea	edx, DWORD PTR $T225690[ebp]
	push	edx
	lea	eax, DWORD PTR $T225693[ebp]
	push	eax
	lea	ecx, DWORD PTR _kMissionTypesLookupTable$220632[ebp]
	call	?_Insert@?$_Hash@V?$_Umap_traits@V?$basic_string@DU?$char_traits@D@std@@V?$allocator@D@2@@std@@PAW4MissionTypes@@V?$_Hash_compare@V?$basic_string@DU?$char_traits@D@std@@V?$allocator@D@2@@std@@V?$hash@V?$basic_string@DU?$char_traits@D@std@@V?$allocator@D@2@@std@@@tr1@2@U?$equal_to@V?$basic_string@DU?$char_traits@D@std@@V?$allocator@D@2@@std@@@2@@stdext@@V?$allocator@U?$pair@$$CBV?$basic_string@DU?$char_traits@D@std@@V?$allocator@D@2@@std@@PAW4MissionTypes@@@std@@@2@$0A@@tr1@std@@@stdext@@IAE?AU?$pair@V?$_Iterator@$0A@@?$list@U?$pair@$$CBV?$basic_string@DU?$char_traits@D@std@@V?$allocator@D@2@@std@@PAW4MissionTypes@@@std@@V?$allocator@U?$pair@$$CBV?$basic_string@DU?$char_traits@D@std@@V?$allocator@D@2@@std@@PAW4MissionTypes@@@std@@@2@@std@@_N@std@@ABU?$pair@$$CBV?$basic_string@DU?$char_traits@D@std@@V?$allocator@D@2@@std@@PAW4MissionTypes@@@4@V?$_Iterator@$0A@@?$list@U?$pair@$$CBV?$basic_string@DU?$char_traits@D@std@@V?$allocator@D@2@@std@@PAW4MissionTypes@@@std@@V?$allocator@U?$pair@$$CBV?$basic_string@DU?$char_traits@D@std@@V?$allocator@D@2@@std@@PAW4MissionTypes@@@std@@@2@@4@@Z ; stdext::_Hash<std::tr1::_Umap_traits<std::basic_string<char,std::char_traits<char>,std::allocator<char> >,enum MissionTypes *,stdext::_Hash_compare<std::basic_string<char,std::char_traits<char>,std::allocator<char> >,std::tr1::hash<std::basic_string<char,std::char_traits<char>,std::allocator<char> > >,std::equal_to<std::basic_string<char,std::char_traits<char>,std::allocator<char> > > >,std::allocator<std::pair<std::basic_string<char,std::char_traits<char>,std::allocator<char> > const ,enum MissionTypes *> >,0> >::_Insert
	mov	BYTE PTR __$EHRec$[ebp+8], 31		; 0000001fH
	lea	ecx, DWORD PTR $T225690[ebp]
	call	DWORD PTR __imp_??1?$basic_string@DU?$char_traits@D@std@@V?$allocator@D@2@@std@@QAE@XZ
	mov	BYTE PTR __$EHRec$[ebp+8], 30		; 0000001eH
	lea	ecx, DWORD PTR $T225692[ebp]
	call	DWORD PTR __imp_??1?$basic_string@DU?$char_traits@D@std@@V?$allocator@D@2@@std@@QAE@XZ

; 168  : 		kMissionTypesLookupTable.insert(make_pair(std::string("MISSION_ROUTE_TO"), &s_eMISSION_ROUTE_TO));

	push	OFFSET ?s_eMISSION_ROUTE_TO@@3W4MissionTypes@@A ; s_eMISSION_ROUTE_TO
	sub	esp, 28					; 0000001cH
	mov	ecx, esp
	mov	DWORD PTR $T225695[ebp], esp
	push	OFFSET ??_C@_0BB@KPGPCEEI@MISSION_ROUTE_TO?$AA@
	call	DWORD PTR __imp_??0?$basic_string@DU?$char_traits@D@std@@V?$allocator@D@2@@std@@QAE@PBD@Z
	mov	DWORD PTR tv2948[ebp], eax
	lea	ecx, DWORD PTR $T225696[ebp]
	push	ecx
	call	??$make_pair@V?$basic_string@DU?$char_traits@D@std@@V?$allocator@D@2@@std@@PAW4MissionTypes@@@std@@YA?AU?$pair@V?$basic_string@DU?$char_traits@D@std@@V?$allocator@D@2@@std@@PAW4MissionTypes@@@0@V?$basic_string@DU?$char_traits@D@std@@V?$allocator@D@2@@0@PAW4MissionTypes@@@Z ; std::make_pair<std::basic_string<char,std::char_traits<char>,std::allocator<char> >,enum MissionTypes *>
	add	esp, 36					; 00000024H
	mov	DWORD PTR tv2949[ebp], eax
	mov	edx, DWORD PTR tv2949[ebp]
	mov	DWORD PTR $T227286[ebp], edx
	mov	BYTE PTR __$EHRec$[ebp+8], 33		; 00000021H
	mov	eax, DWORD PTR $T227286[ebp]
	push	eax
	lea	ecx, DWORD PTR $T225694[ebp]
	call	DWORD PTR __imp_??0?$basic_string@DU?$char_traits@D@std@@V?$allocator@D@2@@std@@QAE@ABV01@@Z
	mov	ecx, DWORD PTR $T227286[ebp]
	mov	edx, DWORD PTR [ecx+28]
	mov	DWORD PTR $T225694[ebp+28], edx
	mov	BYTE PTR __$EHRec$[ebp+8], 34		; 00000022H
	mov	eax, DWORD PTR _kMissionTypesLookupTable$220632[ebp+8]
	mov	DWORD PTR $T227299[ebp], eax
	mov	ecx, DWORD PTR $T227299[ebp]
	mov	DWORD PTR $T227316[ebp], ecx
	mov	edx, DWORD PTR $T227316[ebp]
	push	edx
	lea	eax, DWORD PTR $T225694[ebp]
	push	eax
	lea	ecx, DWORD PTR $T225697[ebp]
	push	ecx
	lea	ecx, DWORD PTR _kMissionTypesLookupTable$220632[ebp]
	call	?_Insert@?$_Hash@V?$_Umap_traits@V?$basic_string@DU?$char_traits@D@std@@V?$allocator@D@2@@std@@PAW4MissionTypes@@V?$_Hash_compare@V?$basic_string@DU?$char_traits@D@std@@V?$allocator@D@2@@std@@V?$hash@V?$basic_string@DU?$char_traits@D@std@@V?$allocator@D@2@@std@@@tr1@2@U?$equal_to@V?$basic_string@DU?$char_traits@D@std@@V?$allocator@D@2@@std@@@2@@stdext@@V?$allocator@U?$pair@$$CBV?$basic_string@DU?$char_traits@D@std@@V?$allocator@D@2@@std@@PAW4MissionTypes@@@std@@@2@$0A@@tr1@std@@@stdext@@IAE?AU?$pair@V?$_Iterator@$0A@@?$list@U?$pair@$$CBV?$basic_string@DU?$char_traits@D@std@@V?$allocator@D@2@@std@@PAW4MissionTypes@@@std@@V?$allocator@U?$pair@$$CBV?$basic_string@DU?$char_traits@D@std@@V?$allocator@D@2@@std@@PAW4MissionTypes@@@std@@@2@@std@@_N@std@@ABU?$pair@$$CBV?$basic_string@DU?$char_traits@D@std@@V?$allocator@D@2@@std@@PAW4MissionTypes@@@4@V?$_Iterator@$0A@@?$list@U?$pair@$$CBV?$basic_string@DU?$char_traits@D@std@@V?$allocator@D@2@@std@@PAW4MissionTypes@@@std@@V?$allocator@U?$pair@$$CBV?$basic_string@DU?$char_traits@D@std@@V?$allocator@D@2@@std@@PAW4MissionTypes@@@std@@@2@@4@@Z ; stdext::_Hash<std::tr1::_Umap_traits<std::basic_string<char,std::char_traits<char>,std::allocator<char> >,enum MissionTypes *,stdext::_Hash_compare<std::basic_string<char,std::char_traits<char>,std::allocator<char> >,std::tr1::hash<std::basic_string<char,std::char_traits<char>,std::allocator<char> > >,std::equal_to<std::basic_string<char,std::char_traits<char>,std::allocator<char> > > >,std::allocator<std::pair<std::basic_string<char,std::char_traits<char>,std::allocator<char> > const ,enum MissionTypes *> >,0> >::_Insert
	mov	BYTE PTR __$EHRec$[ebp+8], 33		; 00000021H
	lea	ecx, DWORD PTR $T225694[ebp]
	call	DWORD PTR __imp_??1?$basic_string@DU?$char_traits@D@std@@V?$allocator@D@2@@std@@QAE@XZ
	mov	BYTE PTR __$EHRec$[ebp+8], 30		; 0000001eH
	lea	ecx, DWORD PTR $T225696[ebp]
	call	DWORD PTR __imp_??1?$basic_string@DU?$char_traits@D@std@@V?$allocator@D@2@@std@@QAE@XZ

; 169  : 		kMissionTypesLookupTable.insert(make_pair(std::string("MISSION_MOVE_TO_UNIT"), &s_eMISSION_MOVE_TO_UNIT));

	push	OFFSET ?s_eMISSION_MOVE_TO_UNIT@@3W4MissionTypes@@A ; s_eMISSION_MOVE_TO_UNIT
	sub	esp, 28					; 0000001cH
	mov	ecx, esp
	mov	DWORD PTR $T225699[ebp], esp
	push	OFFSET ??_C@_0BF@CPDOPHHL@MISSION_MOVE_TO_UNIT?$AA@
	call	DWORD PTR __imp_??0?$basic_string@DU?$char_traits@D@std@@V?$allocator@D@2@@std@@QAE@PBD@Z
	mov	DWORD PTR tv2955[ebp], eax
	lea	edx, DWORD PTR $T225700[ebp]
	push	edx
	call	??$make_pair@V?$basic_string@DU?$char_traits@D@std@@V?$allocator@D@2@@std@@PAW4MissionTypes@@@std@@YA?AU?$pair@V?$basic_string@DU?$char_traits@D@std@@V?$allocator@D@2@@std@@PAW4MissionTypes@@@0@V?$basic_string@DU?$char_traits@D@std@@V?$allocator@D@2@@0@PAW4MissionTypes@@@Z ; std::make_pair<std::basic_string<char,std::char_traits<char>,std::allocator<char> >,enum MissionTypes *>
	add	esp, 36					; 00000024H
	mov	DWORD PTR tv2956[ebp], eax
	mov	eax, DWORD PTR tv2956[ebp]
	mov	DWORD PTR $T227337[ebp], eax
	mov	BYTE PTR __$EHRec$[ebp+8], 35		; 00000023H
	mov	ecx, DWORD PTR $T227337[ebp]
	push	ecx
	lea	ecx, DWORD PTR $T225698[ebp]
	call	DWORD PTR __imp_??0?$basic_string@DU?$char_traits@D@std@@V?$allocator@D@2@@std@@QAE@ABV01@@Z
	mov	edx, DWORD PTR $T227337[ebp]
	mov	eax, DWORD PTR [edx+28]
	mov	DWORD PTR $T225698[ebp+28], eax
	mov	BYTE PTR __$EHRec$[ebp+8], 36		; 00000024H
	mov	ecx, DWORD PTR _kMissionTypesLookupTable$220632[ebp+8]
	mov	DWORD PTR $T227350[ebp], ecx
	mov	edx, DWORD PTR $T227350[ebp]
	mov	DWORD PTR $T227366[ebp], edx
	mov	eax, DWORD PTR $T227366[ebp]
	push	eax
	lea	ecx, DWORD PTR $T225698[ebp]
	push	ecx
	lea	edx, DWORD PTR $T225701[ebp]
	push	edx
	lea	ecx, DWORD PTR _kMissionTypesLookupTable$220632[ebp]
	call	?_Insert@?$_Hash@V?$_Umap_traits@V?$basic_string@DU?$char_traits@D@std@@V?$allocator@D@2@@std@@PAW4MissionTypes@@V?$_Hash_compare@V?$basic_string@DU?$char_traits@D@std@@V?$allocator@D@2@@std@@V?$hash@V?$basic_string@DU?$char_traits@D@std@@V?$allocator@D@2@@std@@@tr1@2@U?$equal_to@V?$basic_string@DU?$char_traits@D@std@@V?$allocator@D@2@@std@@@2@@stdext@@V?$allocator@U?$pair@$$CBV?$basic_string@DU?$char_traits@D@std@@V?$allocator@D@2@@std@@PAW4MissionTypes@@@std@@@2@$0A@@tr1@std@@@stdext@@IAE?AU?$pair@V?$_Iterator@$0A@@?$list@U?$pair@$$CBV?$basic_string@DU?$char_traits@D@std@@V?$allocator@D@2@@std@@PAW4MissionTypes@@@std@@V?$allocator@U?$pair@$$CBV?$basic_string@DU?$char_traits@D@std@@V?$allocator@D@2@@std@@PAW4MissionTypes@@@std@@@2@@std@@_N@std@@ABU?$pair@$$CBV?$basic_string@DU?$char_traits@D@std@@V?$allocator@D@2@@std@@PAW4MissionTypes@@@4@V?$_Iterator@$0A@@?$list@U?$pair@$$CBV?$basic_string@DU?$char_traits@D@std@@V?$allocator@D@2@@std@@PAW4MissionTypes@@@std@@V?$allocator@U?$pair@$$CBV?$basic_string@DU?$char_traits@D@std@@V?$allocator@D@2@@std@@PAW4MissionTypes@@@std@@@2@@4@@Z ; stdext::_Hash<std::tr1::_Umap_traits<std::basic_string<char,std::char_traits<char>,std::allocator<char> >,enum MissionTypes *,stdext::_Hash_compare<std::basic_string<char,std::char_traits<char>,std::allocator<char> >,std::tr1::hash<std::basic_string<char,std::char_traits<char>,std::allocator<char> > >,std::equal_to<std::basic_string<char,std::char_traits<char>,std::allocator<char> > > >,std::allocator<std::pair<std::basic_string<char,std::char_traits<char>,std::allocator<char> > const ,enum MissionTypes *> >,0> >::_Insert
	mov	BYTE PTR __$EHRec$[ebp+8], 35		; 00000023H
	lea	ecx, DWORD PTR $T225698[ebp]
	call	DWORD PTR __imp_??1?$basic_string@DU?$char_traits@D@std@@V?$allocator@D@2@@std@@QAE@XZ
	mov	BYTE PTR __$EHRec$[ebp+8], 30		; 0000001eH
	lea	ecx, DWORD PTR $T225700[ebp]
	call	DWORD PTR __imp_??1?$basic_string@DU?$char_traits@D@std@@V?$allocator@D@2@@std@@QAE@XZ

; 170  : 		kMissionTypesLookupTable.insert(make_pair(std::string("MISSION_SWAP_UNITS"), &s_eMISSION_SWAP_UNITS));

	push	OFFSET ?s_eMISSION_SWAP_UNITS@@3W4MissionTypes@@A ; s_eMISSION_SWAP_UNITS
	sub	esp, 28					; 0000001cH
	mov	ecx, esp
	mov	DWORD PTR $T225703[ebp], esp
	push	OFFSET ??_C@_0BD@BDBPDFAK@MISSION_SWAP_UNITS?$AA@
	call	DWORD PTR __imp_??0?$basic_string@DU?$char_traits@D@std@@V?$allocator@D@2@@std@@QAE@PBD@Z
	mov	DWORD PTR tv2962[ebp], eax
	lea	eax, DWORD PTR $T225704[ebp]
	push	eax
	call	??$make_pair@V?$basic_string@DU?$char_traits@D@std@@V?$allocator@D@2@@std@@PAW4MissionTypes@@@std@@YA?AU?$pair@V?$basic_string@DU?$char_traits@D@std@@V?$allocator@D@2@@std@@PAW4MissionTypes@@@0@V?$basic_string@DU?$char_traits@D@std@@V?$allocator@D@2@@0@PAW4MissionTypes@@@Z ; std::make_pair<std::basic_string<char,std::char_traits<char>,std::allocator<char> >,enum MissionTypes *>
	add	esp, 36					; 00000024H
	mov	DWORD PTR tv2963[ebp], eax
	mov	ecx, DWORD PTR tv2963[ebp]
	mov	DWORD PTR $T227388[ebp], ecx
	mov	BYTE PTR __$EHRec$[ebp+8], 37		; 00000025H
	mov	edx, DWORD PTR $T227388[ebp]
	push	edx
	lea	ecx, DWORD PTR $T225702[ebp]
	call	DWORD PTR __imp_??0?$basic_string@DU?$char_traits@D@std@@V?$allocator@D@2@@std@@QAE@ABV01@@Z
	mov	eax, DWORD PTR $T227388[ebp]
	mov	ecx, DWORD PTR [eax+28]
	mov	DWORD PTR $T225702[ebp+28], ecx
	mov	BYTE PTR __$EHRec$[ebp+8], 38		; 00000026H
	mov	edx, DWORD PTR _kMissionTypesLookupTable$220632[ebp+8]
	mov	DWORD PTR $T227401[ebp], edx
	mov	eax, DWORD PTR $T227401[ebp]
	mov	DWORD PTR $T227417[ebp], eax
	mov	ecx, DWORD PTR $T227417[ebp]
	push	ecx
	lea	edx, DWORD PTR $T225702[ebp]
	push	edx
	lea	eax, DWORD PTR $T225705[ebp]
	push	eax
	lea	ecx, DWORD PTR _kMissionTypesLookupTable$220632[ebp]
	call	?_Insert@?$_Hash@V?$_Umap_traits@V?$basic_string@DU?$char_traits@D@std@@V?$allocator@D@2@@std@@PAW4MissionTypes@@V?$_Hash_compare@V?$basic_string@DU?$char_traits@D@std@@V?$allocator@D@2@@std@@V?$hash@V?$basic_string@DU?$char_traits@D@std@@V?$allocator@D@2@@std@@@tr1@2@U?$equal_to@V?$basic_string@DU?$char_traits@D@std@@V?$allocator@D@2@@std@@@2@@stdext@@V?$allocator@U?$pair@$$CBV?$basic_string@DU?$char_traits@D@std@@V?$allocator@D@2@@std@@PAW4MissionTypes@@@std@@@2@$0A@@tr1@std@@@stdext@@IAE?AU?$pair@V?$_Iterator@$0A@@?$list@U?$pair@$$CBV?$basic_string@DU?$char_traits@D@std@@V?$allocator@D@2@@std@@PAW4MissionTypes@@@std@@V?$allocator@U?$pair@$$CBV?$basic_string@DU?$char_traits@D@std@@V?$allocator@D@2@@std@@PAW4MissionTypes@@@std@@@2@@std@@_N@std@@ABU?$pair@$$CBV?$basic_string@DU?$char_traits@D@std@@V?$allocator@D@2@@std@@PAW4MissionTypes@@@4@V?$_Iterator@$0A@@?$list@U?$pair@$$CBV?$basic_string@DU?$char_traits@D@std@@V?$allocator@D@2@@std@@PAW4MissionTypes@@@std@@V?$allocator@U?$pair@$$CBV?$basic_string@DU?$char_traits@D@std@@V?$allocator@D@2@@std@@PAW4MissionTypes@@@std@@@2@@4@@Z ; stdext::_Hash<std::tr1::_Umap_traits<std::basic_string<char,std::char_traits<char>,std::allocator<char> >,enum MissionTypes *,stdext::_Hash_compare<std::basic_string<char,std::char_traits<char>,std::allocator<char> >,std::tr1::hash<std::basic_string<char,std::char_traits<char>,std::allocator<char> > >,std::equal_to<std::basic_string<char,std::char_traits<char>,std::allocator<char> > > >,std::allocator<std::pair<std::basic_string<char,std::char_traits<char>,std::allocator<char> > const ,enum MissionTypes *> >,0> >::_Insert
	mov	BYTE PTR __$EHRec$[ebp+8], 37		; 00000025H
	lea	ecx, DWORD PTR $T225702[ebp]
	call	DWORD PTR __imp_??1?$basic_string@DU?$char_traits@D@std@@V?$allocator@D@2@@std@@QAE@XZ
	mov	BYTE PTR __$EHRec$[ebp+8], 30		; 0000001eH
	lea	ecx, DWORD PTR $T225704[ebp]
	call	DWORD PTR __imp_??1?$basic_string@DU?$char_traits@D@std@@V?$allocator@D@2@@std@@QAE@XZ

; 171  : 		kMissionTypesLookupTable.insert(make_pair(std::string("MISSION_SKIP"), &s_eMISSION_SKIP));

	push	OFFSET ?s_eMISSION_SKIP@@3W4MissionTypes@@A ; s_eMISSION_SKIP
	sub	esp, 28					; 0000001cH
	mov	ecx, esp
	mov	DWORD PTR $T225707[ebp], esp
	push	OFFSET ??_C@_0N@IJKJBDIA@MISSION_SKIP?$AA@
	call	DWORD PTR __imp_??0?$basic_string@DU?$char_traits@D@std@@V?$allocator@D@2@@std@@QAE@PBD@Z
	mov	DWORD PTR tv2969[ebp], eax
	lea	ecx, DWORD PTR $T225708[ebp]
	push	ecx
	call	??$make_pair@V?$basic_string@DU?$char_traits@D@std@@V?$allocator@D@2@@std@@PAW4MissionTypes@@@std@@YA?AU?$pair@V?$basic_string@DU?$char_traits@D@std@@V?$allocator@D@2@@std@@PAW4MissionTypes@@@0@V?$basic_string@DU?$char_traits@D@std@@V?$allocator@D@2@@0@PAW4MissionTypes@@@Z ; std::make_pair<std::basic_string<char,std::char_traits<char>,std::allocator<char> >,enum MissionTypes *>
	add	esp, 36					; 00000024H
	mov	DWORD PTR tv2970[ebp], eax
	mov	edx, DWORD PTR tv2970[ebp]
	mov	DWORD PTR $T227439[ebp], edx
	mov	BYTE PTR __$EHRec$[ebp+8], 39		; 00000027H
	mov	eax, DWORD PTR $T227439[ebp]
	push	eax
	lea	ecx, DWORD PTR $T225706[ebp]
	call	DWORD PTR __imp_??0?$basic_string@DU?$char_traits@D@std@@V?$allocator@D@2@@std@@QAE@ABV01@@Z
	mov	ecx, DWORD PTR $T227439[ebp]
	mov	edx, DWORD PTR [ecx+28]
	mov	DWORD PTR $T225706[ebp+28], edx
	mov	BYTE PTR __$EHRec$[ebp+8], 40		; 00000028H
	mov	eax, DWORD PTR _kMissionTypesLookupTable$220632[ebp+8]
	mov	DWORD PTR $T227452[ebp], eax
	mov	ecx, DWORD PTR $T227452[ebp]
	mov	DWORD PTR $T227468[ebp], ecx
	mov	edx, DWORD PTR $T227468[ebp]
	push	edx
	lea	eax, DWORD PTR $T225706[ebp]
	push	eax
	lea	ecx, DWORD PTR $T225709[ebp]
	push	ecx
	lea	ecx, DWORD PTR _kMissionTypesLookupTable$220632[ebp]
	call	?_Insert@?$_Hash@V?$_Umap_traits@V?$basic_string@DU?$char_traits@D@std@@V?$allocator@D@2@@std@@PAW4MissionTypes@@V?$_Hash_compare@V?$basic_string@DU?$char_traits@D@std@@V?$allocator@D@2@@std@@V?$hash@V?$basic_string@DU?$char_traits@D@std@@V?$allocator@D@2@@std@@@tr1@2@U?$equal_to@V?$basic_string@DU?$char_traits@D@std@@V?$allocator@D@2@@std@@@2@@stdext@@V?$allocator@U?$pair@$$CBV?$basic_string@DU?$char_traits@D@std@@V?$allocator@D@2@@std@@PAW4MissionTypes@@@std@@@2@$0A@@tr1@std@@@stdext@@IAE?AU?$pair@V?$_Iterator@$0A@@?$list@U?$pair@$$CBV?$basic_string@DU?$char_traits@D@std@@V?$allocator@D@2@@std@@PAW4MissionTypes@@@std@@V?$allocator@U?$pair@$$CBV?$basic_string@DU?$char_traits@D@std@@V?$allocator@D@2@@std@@PAW4MissionTypes@@@std@@@2@@std@@_N@std@@ABU?$pair@$$CBV?$basic_string@DU?$char_traits@D@std@@V?$allocator@D@2@@std@@PAW4MissionTypes@@@4@V?$_Iterator@$0A@@?$list@U?$pair@$$CBV?$basic_string@DU?$char_traits@D@std@@V?$allocator@D@2@@std@@PAW4MissionTypes@@@std@@V?$allocator@U?$pair@$$CBV?$basic_string@DU?$char_traits@D@std@@V?$allocator@D@2@@std@@PAW4MissionTypes@@@std@@@2@@4@@Z ; stdext::_Hash<std::tr1::_Umap_traits<std::basic_string<char,std::char_traits<char>,std::allocator<char> >,enum MissionTypes *,stdext::_Hash_compare<std::basic_string<char,std::char_traits<char>,std::allocator<char> >,std::tr1::hash<std::basic_string<char,std::char_traits<char>,std::allocator<char> > >,std::equal_to<std::basic_string<char,std::char_traits<char>,std::allocator<char> > > >,std::allocator<std::pair<std::basic_string<char,std::char_traits<char>,std::allocator<char> > const ,enum MissionTypes *> >,0> >::_Insert
	mov	BYTE PTR __$EHRec$[ebp+8], 39		; 00000027H
	lea	ecx, DWORD PTR $T225706[ebp]
	call	DWORD PTR __imp_??1?$basic_string@DU?$char_traits@D@std@@V?$allocator@D@2@@std@@QAE@XZ
	mov	BYTE PTR __$EHRec$[ebp+8], 30		; 0000001eH
	lea	ecx, DWORD PTR $T225708[ebp]
	call	DWORD PTR __imp_??1?$basic_string@DU?$char_traits@D@std@@V?$allocator@D@2@@std@@QAE@XZ

; 172  : 		kMissionTypesLookupTable.insert(make_pair(std::string("MISSION_SLEEP"), &s_eMISSION_SLEEP));

	push	OFFSET ?s_eMISSION_SLEEP@@3W4MissionTypes@@A ; s_eMISSION_SLEEP
	sub	esp, 28					; 0000001cH
	mov	ecx, esp
	mov	DWORD PTR $T225711[ebp], esp
	push	OFFSET ??_C@_0O@LFJBHFFE@MISSION_SLEEP?$AA@
	call	DWORD PTR __imp_??0?$basic_string@DU?$char_traits@D@std@@V?$allocator@D@2@@std@@QAE@PBD@Z
	mov	DWORD PTR tv2976[ebp], eax
	lea	edx, DWORD PTR $T225712[ebp]
	push	edx
	call	??$make_pair@V?$basic_string@DU?$char_traits@D@std@@V?$allocator@D@2@@std@@PAW4MissionTypes@@@std@@YA?AU?$pair@V?$basic_string@DU?$char_traits@D@std@@V?$allocator@D@2@@std@@PAW4MissionTypes@@@0@V?$basic_string@DU?$char_traits@D@std@@V?$allocator@D@2@@0@PAW4MissionTypes@@@Z ; std::make_pair<std::basic_string<char,std::char_traits<char>,std::allocator<char> >,enum MissionTypes *>
	add	esp, 36					; 00000024H
	mov	DWORD PTR tv2977[ebp], eax
	mov	eax, DWORD PTR tv2977[ebp]
	mov	DWORD PTR $T227490[ebp], eax
	mov	BYTE PTR __$EHRec$[ebp+8], 41		; 00000029H
	mov	ecx, DWORD PTR $T227490[ebp]
	push	ecx
	lea	ecx, DWORD PTR $T225710[ebp]
	call	DWORD PTR __imp_??0?$basic_string@DU?$char_traits@D@std@@V?$allocator@D@2@@std@@QAE@ABV01@@Z
	mov	edx, DWORD PTR $T227490[ebp]
	mov	eax, DWORD PTR [edx+28]
	mov	DWORD PTR $T225710[ebp+28], eax
	mov	BYTE PTR __$EHRec$[ebp+8], 42		; 0000002aH
	mov	ecx, DWORD PTR _kMissionTypesLookupTable$220632[ebp+8]
	mov	DWORD PTR $T227503[ebp], ecx
	mov	edx, DWORD PTR $T227503[ebp]
	mov	DWORD PTR $T227519[ebp], edx
	mov	eax, DWORD PTR $T227519[ebp]
	push	eax
	lea	ecx, DWORD PTR $T225710[ebp]
	push	ecx
	lea	edx, DWORD PTR $T225713[ebp]
	push	edx
	lea	ecx, DWORD PTR _kMissionTypesLookupTable$220632[ebp]
	call	?_Insert@?$_Hash@V?$_Umap_traits@V?$basic_string@DU?$char_traits@D@std@@V?$allocator@D@2@@std@@PAW4MissionTypes@@V?$_Hash_compare@V?$basic_string@DU?$char_traits@D@std@@V?$allocator@D@2@@std@@V?$hash@V?$basic_string@DU?$char_traits@D@std@@V?$allocator@D@2@@std@@@tr1@2@U?$equal_to@V?$basic_string@DU?$char_traits@D@std@@V?$allocator@D@2@@std@@@2@@stdext@@V?$allocator@U?$pair@$$CBV?$basic_string@DU?$char_traits@D@std@@V?$allocator@D@2@@std@@PAW4MissionTypes@@@std@@@2@$0A@@tr1@std@@@stdext@@IAE?AU?$pair@V?$_Iterator@$0A@@?$list@U?$pair@$$CBV?$basic_string@DU?$char_traits@D@std@@V?$allocator@D@2@@std@@PAW4MissionTypes@@@std@@V?$allocator@U?$pair@$$CBV?$basic_string@DU?$char_traits@D@std@@V?$allocator@D@2@@std@@PAW4MissionTypes@@@std@@@2@@std@@_N@std@@ABU?$pair@$$CBV?$basic_string@DU?$char_traits@D@std@@V?$allocator@D@2@@std@@PAW4MissionTypes@@@4@V?$_Iterator@$0A@@?$list@U?$pair@$$CBV?$basic_string@DU?$char_traits@D@std@@V?$allocator@D@2@@std@@PAW4MissionTypes@@@std@@V?$allocator@U?$pair@$$CBV?$basic_string@DU?$char_traits@D@std@@V?$allocator@D@2@@std@@PAW4MissionTypes@@@std@@@2@@4@@Z ; stdext::_Hash<std::tr1::_Umap_traits<std::basic_string<char,std::char_traits<char>,std::allocator<char> >,enum MissionTypes *,stdext::_Hash_compare<std::basic_string<char,std::char_traits<char>,std::allocator<char> >,std::tr1::hash<std::basic_string<char,std::char_traits<char>,std::allocator<char> > >,std::equal_to<std::basic_string<char,std::char_traits<char>,std::allocator<char> > > >,std::allocator<std::pair<std::basic_string<char,std::char_traits<char>,std::allocator<char> > const ,enum MissionTypes *> >,0> >::_Insert
	mov	BYTE PTR __$EHRec$[ebp+8], 41		; 00000029H
	lea	ecx, DWORD PTR $T225710[ebp]
	call	DWORD PTR __imp_??1?$basic_string@DU?$char_traits@D@std@@V?$allocator@D@2@@std@@QAE@XZ
	mov	BYTE PTR __$EHRec$[ebp+8], 30		; 0000001eH
	lea	ecx, DWORD PTR $T225712[ebp]
	call	DWORD PTR __imp_??1?$basic_string@DU?$char_traits@D@std@@V?$allocator@D@2@@std@@QAE@XZ

; 173  : 		kMissionTypesLookupTable.insert(make_pair(std::string("MISSION_ALERT"), &s_eMISSION_ALERT));

	push	OFFSET ?s_eMISSION_ALERT@@3W4MissionTypes@@A ; s_eMISSION_ALERT
	sub	esp, 28					; 0000001cH
	mov	ecx, esp
	mov	DWORD PTR $T225715[ebp], esp
	push	OFFSET ??_C@_0O@IGIKKGDF@MISSION_ALERT?$AA@
	call	DWORD PTR __imp_??0?$basic_string@DU?$char_traits@D@std@@V?$allocator@D@2@@std@@QAE@PBD@Z
	mov	DWORD PTR tv2983[ebp], eax
	lea	eax, DWORD PTR $T225716[ebp]
	push	eax
	call	??$make_pair@V?$basic_string@DU?$char_traits@D@std@@V?$allocator@D@2@@std@@PAW4MissionTypes@@@std@@YA?AU?$pair@V?$basic_string@DU?$char_traits@D@std@@V?$allocator@D@2@@std@@PAW4MissionTypes@@@0@V?$basic_string@DU?$char_traits@D@std@@V?$allocator@D@2@@0@PAW4MissionTypes@@@Z ; std::make_pair<std::basic_string<char,std::char_traits<char>,std::allocator<char> >,enum MissionTypes *>
	add	esp, 36					; 00000024H
	mov	DWORD PTR tv2984[ebp], eax
	mov	ecx, DWORD PTR tv2984[ebp]
	mov	DWORD PTR $T227541[ebp], ecx
	mov	BYTE PTR __$EHRec$[ebp+8], 43		; 0000002bH
	mov	edx, DWORD PTR $T227541[ebp]
	push	edx
	lea	ecx, DWORD PTR $T225714[ebp]
	call	DWORD PTR __imp_??0?$basic_string@DU?$char_traits@D@std@@V?$allocator@D@2@@std@@QAE@ABV01@@Z
	mov	eax, DWORD PTR $T227541[ebp]
	mov	ecx, DWORD PTR [eax+28]
	mov	DWORD PTR $T225714[ebp+28], ecx
	mov	BYTE PTR __$EHRec$[ebp+8], 44		; 0000002cH
	mov	edx, DWORD PTR _kMissionTypesLookupTable$220632[ebp+8]
	mov	DWORD PTR $T227554[ebp], edx
	mov	eax, DWORD PTR $T227554[ebp]
	mov	DWORD PTR $T227570[ebp], eax
	mov	ecx, DWORD PTR $T227570[ebp]
	push	ecx
	lea	edx, DWORD PTR $T225714[ebp]
	push	edx
	lea	eax, DWORD PTR $T225717[ebp]
	push	eax
	lea	ecx, DWORD PTR _kMissionTypesLookupTable$220632[ebp]
	call	?_Insert@?$_Hash@V?$_Umap_traits@V?$basic_string@DU?$char_traits@D@std@@V?$allocator@D@2@@std@@PAW4MissionTypes@@V?$_Hash_compare@V?$basic_string@DU?$char_traits@D@std@@V?$allocator@D@2@@std@@V?$hash@V?$basic_string@DU?$char_traits@D@std@@V?$allocator@D@2@@std@@@tr1@2@U?$equal_to@V?$basic_string@DU?$char_traits@D@std@@V?$allocator@D@2@@std@@@2@@stdext@@V?$allocator@U?$pair@$$CBV?$basic_string@DU?$char_traits@D@std@@V?$allocator@D@2@@std@@PAW4MissionTypes@@@std@@@2@$0A@@tr1@std@@@stdext@@IAE?AU?$pair@V?$_Iterator@$0A@@?$list@U?$pair@$$CBV?$basic_string@DU?$char_traits@D@std@@V?$allocator@D@2@@std@@PAW4MissionTypes@@@std@@V?$allocator@U?$pair@$$CBV?$basic_string@DU?$char_traits@D@std@@V?$allocator@D@2@@std@@PAW4MissionTypes@@@std@@@2@@std@@_N@std@@ABU?$pair@$$CBV?$basic_string@DU?$char_traits@D@std@@V?$allocator@D@2@@std@@PAW4MissionTypes@@@4@V?$_Iterator@$0A@@?$list@U?$pair@$$CBV?$basic_string@DU?$char_traits@D@std@@V?$allocator@D@2@@std@@PAW4MissionTypes@@@std@@V?$allocator@U?$pair@$$CBV?$basic_string@DU?$char_traits@D@std@@V?$allocator@D@2@@std@@PAW4MissionTypes@@@std@@@2@@4@@Z ; stdext::_Hash<std::tr1::_Umap_traits<std::basic_string<char,std::char_traits<char>,std::allocator<char> >,enum MissionTypes *,stdext::_Hash_compare<std::basic_string<char,std::char_traits<char>,std::allocator<char> >,std::tr1::hash<std::basic_string<char,std::char_traits<char>,std::allocator<char> > >,std::equal_to<std::basic_string<char,std::char_traits<char>,std::allocator<char> > > >,std::allocator<std::pair<std::basic_string<char,std::char_traits<char>,std::allocator<char> > const ,enum MissionTypes *> >,0> >::_Insert
	mov	BYTE PTR __$EHRec$[ebp+8], 43		; 0000002bH
	lea	ecx, DWORD PTR $T225714[ebp]
	call	DWORD PTR __imp_??1?$basic_string@DU?$char_traits@D@std@@V?$allocator@D@2@@std@@QAE@XZ
	mov	BYTE PTR __$EHRec$[ebp+8], 30		; 0000001eH
	lea	ecx, DWORD PTR $T225716[ebp]
	call	DWORD PTR __imp_??1?$basic_string@DU?$char_traits@D@std@@V?$allocator@D@2@@std@@QAE@XZ

; 174  : 		kMissionTypesLookupTable.insert(make_pair(std::string("MISSION_FORTIFY"), &s_eMISSION_FORTIFY));

	push	OFFSET ?s_eMISSION_FORTIFY@@3W4MissionTypes@@A ; s_eMISSION_FORTIFY
	sub	esp, 28					; 0000001cH
	mov	ecx, esp
	mov	DWORD PTR $T225719[ebp], esp
	push	OFFSET ??_C@_0BA@IKCHAOML@MISSION_FORTIFY?$AA@
	call	DWORD PTR __imp_??0?$basic_string@DU?$char_traits@D@std@@V?$allocator@D@2@@std@@QAE@PBD@Z
	mov	DWORD PTR tv2990[ebp], eax
	lea	ecx, DWORD PTR $T225720[ebp]
	push	ecx
	call	??$make_pair@V?$basic_string@DU?$char_traits@D@std@@V?$allocator@D@2@@std@@PAW4MissionTypes@@@std@@YA?AU?$pair@V?$basic_string@DU?$char_traits@D@std@@V?$allocator@D@2@@std@@PAW4MissionTypes@@@0@V?$basic_string@DU?$char_traits@D@std@@V?$allocator@D@2@@0@PAW4MissionTypes@@@Z ; std::make_pair<std::basic_string<char,std::char_traits<char>,std::allocator<char> >,enum MissionTypes *>
	add	esp, 36					; 00000024H
	mov	DWORD PTR tv2991[ebp], eax
	mov	edx, DWORD PTR tv2991[ebp]
	mov	DWORD PTR $T227592[ebp], edx
	mov	BYTE PTR __$EHRec$[ebp+8], 45		; 0000002dH
	mov	eax, DWORD PTR $T227592[ebp]
	push	eax
	lea	ecx, DWORD PTR $T225718[ebp]
	call	DWORD PTR __imp_??0?$basic_string@DU?$char_traits@D@std@@V?$allocator@D@2@@std@@QAE@ABV01@@Z
	mov	ecx, DWORD PTR $T227592[ebp]
	mov	edx, DWORD PTR [ecx+28]
	mov	DWORD PTR $T225718[ebp+28], edx
	mov	BYTE PTR __$EHRec$[ebp+8], 46		; 0000002eH
	mov	eax, DWORD PTR _kMissionTypesLookupTable$220632[ebp+8]
	mov	DWORD PTR $T227605[ebp], eax
	mov	ecx, DWORD PTR $T227605[ebp]
	mov	DWORD PTR $T227621[ebp], ecx
	mov	edx, DWORD PTR $T227621[ebp]
	push	edx
	lea	eax, DWORD PTR $T225718[ebp]
	push	eax
	lea	ecx, DWORD PTR $T225721[ebp]
	push	ecx
	lea	ecx, DWORD PTR _kMissionTypesLookupTable$220632[ebp]
	call	?_Insert@?$_Hash@V?$_Umap_traits@V?$basic_string@DU?$char_traits@D@std@@V?$allocator@D@2@@std@@PAW4MissionTypes@@V?$_Hash_compare@V?$basic_string@DU?$char_traits@D@std@@V?$allocator@D@2@@std@@V?$hash@V?$basic_string@DU?$char_traits@D@std@@V?$allocator@D@2@@std@@@tr1@2@U?$equal_to@V?$basic_string@DU?$char_traits@D@std@@V?$allocator@D@2@@std@@@2@@stdext@@V?$allocator@U?$pair@$$CBV?$basic_string@DU?$char_traits@D@std@@V?$allocator@D@2@@std@@PAW4MissionTypes@@@std@@@2@$0A@@tr1@std@@@stdext@@IAE?AU?$pair@V?$_Iterator@$0A@@?$list@U?$pair@$$CBV?$basic_string@DU?$char_traits@D@std@@V?$allocator@D@2@@std@@PAW4MissionTypes@@@std@@V?$allocator@U?$pair@$$CBV?$basic_string@DU?$char_traits@D@std@@V?$allocator@D@2@@std@@PAW4MissionTypes@@@std@@@2@@std@@_N@std@@ABU?$pair@$$CBV?$basic_string@DU?$char_traits@D@std@@V?$allocator@D@2@@std@@PAW4MissionTypes@@@4@V?$_Iterator@$0A@@?$list@U?$pair@$$CBV?$basic_string@DU?$char_traits@D@std@@V?$allocator@D@2@@std@@PAW4MissionTypes@@@std@@V?$allocator@U?$pair@$$CBV?$basic_string@DU?$char_traits@D@std@@V?$allocator@D@2@@std@@PAW4MissionTypes@@@std@@@2@@4@@Z ; stdext::_Hash<std::tr1::_Umap_traits<std::basic_string<char,std::char_traits<char>,std::allocator<char> >,enum MissionTypes *,stdext::_Hash_compare<std::basic_string<char,std::char_traits<char>,std::allocator<char> >,std::tr1::hash<std::basic_string<char,std::char_traits<char>,std::allocator<char> > >,std::equal_to<std::basic_string<char,std::char_traits<char>,std::allocator<char> > > >,std::allocator<std::pair<std::basic_string<char,std::char_traits<char>,std::allocator<char> > const ,enum MissionTypes *> >,0> >::_Insert
	mov	BYTE PTR __$EHRec$[ebp+8], 45		; 0000002dH
	lea	ecx, DWORD PTR $T225718[ebp]
	call	DWORD PTR __imp_??1?$basic_string@DU?$char_traits@D@std@@V?$allocator@D@2@@std@@QAE@XZ
	mov	BYTE PTR __$EHRec$[ebp+8], 30		; 0000001eH
	lea	ecx, DWORD PTR $T225720[ebp]
	call	DWORD PTR __imp_??1?$basic_string@DU?$char_traits@D@std@@V?$allocator@D@2@@std@@QAE@XZ

; 175  : 		kMissionTypesLookupTable.insert(make_pair(std::string("MISSION_GARRISON"), &s_eMISSION_GARRISON));

	push	OFFSET ?s_eMISSION_GARRISON@@3W4MissionTypes@@A ; s_eMISSION_GARRISON
	sub	esp, 28					; 0000001cH
	mov	ecx, esp
	mov	DWORD PTR $T225723[ebp], esp
	push	OFFSET ??_C@_0BB@MJACMDLO@MISSION_GARRISON?$AA@
	call	DWORD PTR __imp_??0?$basic_string@DU?$char_traits@D@std@@V?$allocator@D@2@@std@@QAE@PBD@Z
	mov	DWORD PTR tv2997[ebp], eax
	lea	edx, DWORD PTR $T225724[ebp]
	push	edx
	call	??$make_pair@V?$basic_string@DU?$char_traits@D@std@@V?$allocator@D@2@@std@@PAW4MissionTypes@@@std@@YA?AU?$pair@V?$basic_string@DU?$char_traits@D@std@@V?$allocator@D@2@@std@@PAW4MissionTypes@@@0@V?$basic_string@DU?$char_traits@D@std@@V?$allocator@D@2@@0@PAW4MissionTypes@@@Z ; std::make_pair<std::basic_string<char,std::char_traits<char>,std::allocator<char> >,enum MissionTypes *>
	add	esp, 36					; 00000024H
	mov	DWORD PTR tv2998[ebp], eax
	mov	eax, DWORD PTR tv2998[ebp]
	mov	DWORD PTR $T227643[ebp], eax
	mov	BYTE PTR __$EHRec$[ebp+8], 47		; 0000002fH
	mov	ecx, DWORD PTR $T227643[ebp]
	push	ecx
	lea	ecx, DWORD PTR $T225722[ebp]
	call	DWORD PTR __imp_??0?$basic_string@DU?$char_traits@D@std@@V?$allocator@D@2@@std@@QAE@ABV01@@Z
	mov	edx, DWORD PTR $T227643[ebp]
	mov	eax, DWORD PTR [edx+28]
	mov	DWORD PTR $T225722[ebp+28], eax
	mov	BYTE PTR __$EHRec$[ebp+8], 48		; 00000030H
	mov	ecx, DWORD PTR _kMissionTypesLookupTable$220632[ebp+8]
	mov	DWORD PTR $T227656[ebp], ecx
	mov	edx, DWORD PTR $T227656[ebp]
	mov	DWORD PTR $T227673[ebp], edx
	mov	eax, DWORD PTR $T227673[ebp]
	push	eax
	lea	ecx, DWORD PTR $T225722[ebp]
	push	ecx
	lea	edx, DWORD PTR $T225725[ebp]
	push	edx
	lea	ecx, DWORD PTR _kMissionTypesLookupTable$220632[ebp]
	call	?_Insert@?$_Hash@V?$_Umap_traits@V?$basic_string@DU?$char_traits@D@std@@V?$allocator@D@2@@std@@PAW4MissionTypes@@V?$_Hash_compare@V?$basic_string@DU?$char_traits@D@std@@V?$allocator@D@2@@std@@V?$hash@V?$basic_string@DU?$char_traits@D@std@@V?$allocator@D@2@@std@@@tr1@2@U?$equal_to@V?$basic_string@DU?$char_traits@D@std@@V?$allocator@D@2@@std@@@2@@stdext@@V?$allocator@U?$pair@$$CBV?$basic_string@DU?$char_traits@D@std@@V?$allocator@D@2@@std@@PAW4MissionTypes@@@std@@@2@$0A@@tr1@std@@@stdext@@IAE?AU?$pair@V?$_Iterator@$0A@@?$list@U?$pair@$$CBV?$basic_string@DU?$char_traits@D@std@@V?$allocator@D@2@@std@@PAW4MissionTypes@@@std@@V?$allocator@U?$pair@$$CBV?$basic_string@DU?$char_traits@D@std@@V?$allocator@D@2@@std@@PAW4MissionTypes@@@std@@@2@@std@@_N@std@@ABU?$pair@$$CBV?$basic_string@DU?$char_traits@D@std@@V?$allocator@D@2@@std@@PAW4MissionTypes@@@4@V?$_Iterator@$0A@@?$list@U?$pair@$$CBV?$basic_string@DU?$char_traits@D@std@@V?$allocator@D@2@@std@@PAW4MissionTypes@@@std@@V?$allocator@U?$pair@$$CBV?$basic_string@DU?$char_traits@D@std@@V?$allocator@D@2@@std@@PAW4MissionTypes@@@std@@@2@@4@@Z ; stdext::_Hash<std::tr1::_Umap_traits<std::basic_string<char,std::char_traits<char>,std::allocator<char> >,enum MissionTypes *,stdext::_Hash_compare<std::basic_string<char,std::char_traits<char>,std::allocator<char> >,std::tr1::hash<std::basic_string<char,std::char_traits<char>,std::allocator<char> > >,std::equal_to<std::basic_string<char,std::char_traits<char>,std::allocator<char> > > >,std::allocator<std::pair<std::basic_string<char,std::char_traits<char>,std::allocator<char> > const ,enum MissionTypes *> >,0> >::_Insert
	mov	BYTE PTR __$EHRec$[ebp+8], 47		; 0000002fH
	lea	ecx, DWORD PTR $T225722[ebp]
	call	DWORD PTR __imp_??1?$basic_string@DU?$char_traits@D@std@@V?$allocator@D@2@@std@@QAE@XZ
	mov	BYTE PTR __$EHRec$[ebp+8], 30		; 0000001eH
	lea	ecx, DWORD PTR $T225724[ebp]
	call	DWORD PTR __imp_??1?$basic_string@DU?$char_traits@D@std@@V?$allocator@D@2@@std@@QAE@XZ

; 176  : 		kMissionTypesLookupTable.insert(make_pair(std::string("MISSION_SET_UP_FOR_RANGED_ATTACK"), &s_eMISSION_SET_UP_FOR_RANGED_ATTACK));

	push	OFFSET ?s_eMISSION_SET_UP_FOR_RANGED_ATTACK@@3W4MissionTypes@@A ; s_eMISSION_SET_UP_FOR_RANGED_ATTACK
	sub	esp, 28					; 0000001cH
	mov	ecx, esp
	mov	DWORD PTR $T225727[ebp], esp
	push	OFFSET ??_C@_0CB@GCBCFJNP@MISSION_SET_UP_FOR_RANGED_ATTACK@
	call	DWORD PTR __imp_??0?$basic_string@DU?$char_traits@D@std@@V?$allocator@D@2@@std@@QAE@PBD@Z
	mov	DWORD PTR tv3004[ebp], eax
	lea	eax, DWORD PTR $T225728[ebp]
	push	eax
	call	??$make_pair@V?$basic_string@DU?$char_traits@D@std@@V?$allocator@D@2@@std@@PAW4MissionTypes@@@std@@YA?AU?$pair@V?$basic_string@DU?$char_traits@D@std@@V?$allocator@D@2@@std@@PAW4MissionTypes@@@0@V?$basic_string@DU?$char_traits@D@std@@V?$allocator@D@2@@0@PAW4MissionTypes@@@Z ; std::make_pair<std::basic_string<char,std::char_traits<char>,std::allocator<char> >,enum MissionTypes *>
	add	esp, 36					; 00000024H
	mov	DWORD PTR tv3005[ebp], eax
	mov	ecx, DWORD PTR tv3005[ebp]
	mov	DWORD PTR $T227694[ebp], ecx
	mov	BYTE PTR __$EHRec$[ebp+8], 49		; 00000031H
	mov	edx, DWORD PTR $T227694[ebp]
	push	edx
	lea	ecx, DWORD PTR $T225726[ebp]
	call	DWORD PTR __imp_??0?$basic_string@DU?$char_traits@D@std@@V?$allocator@D@2@@std@@QAE@ABV01@@Z
	mov	eax, DWORD PTR $T227694[ebp]
	mov	ecx, DWORD PTR [eax+28]
	mov	DWORD PTR $T225726[ebp+28], ecx
	mov	BYTE PTR __$EHRec$[ebp+8], 50		; 00000032H
	mov	edx, DWORD PTR _kMissionTypesLookupTable$220632[ebp+8]
	mov	DWORD PTR $T227707[ebp], edx
	mov	eax, DWORD PTR $T227707[ebp]
	mov	DWORD PTR $T227724[ebp], eax
	mov	ecx, DWORD PTR $T227724[ebp]
	push	ecx
	lea	edx, DWORD PTR $T225726[ebp]
	push	edx
	lea	eax, DWORD PTR $T225729[ebp]
	push	eax
	lea	ecx, DWORD PTR _kMissionTypesLookupTable$220632[ebp]
	call	?_Insert@?$_Hash@V?$_Umap_traits@V?$basic_string@DU?$char_traits@D@std@@V?$allocator@D@2@@std@@PAW4MissionTypes@@V?$_Hash_compare@V?$basic_string@DU?$char_traits@D@std@@V?$allocator@D@2@@std@@V?$hash@V?$basic_string@DU?$char_traits@D@std@@V?$allocator@D@2@@std@@@tr1@2@U?$equal_to@V?$basic_string@DU?$char_traits@D@std@@V?$allocator@D@2@@std@@@2@@stdext@@V?$allocator@U?$pair@$$CBV?$basic_string@DU?$char_traits@D@std@@V?$allocator@D@2@@std@@PAW4MissionTypes@@@std@@@2@$0A@@tr1@std@@@stdext@@IAE?AU?$pair@V?$_Iterator@$0A@@?$list@U?$pair@$$CBV?$basic_string@DU?$char_traits@D@std@@V?$allocator@D@2@@std@@PAW4MissionTypes@@@std@@V?$allocator@U?$pair@$$CBV?$basic_string@DU?$char_traits@D@std@@V?$allocator@D@2@@std@@PAW4MissionTypes@@@std@@@2@@std@@_N@std@@ABU?$pair@$$CBV?$basic_string@DU?$char_traits@D@std@@V?$allocator@D@2@@std@@PAW4MissionTypes@@@4@V?$_Iterator@$0A@@?$list@U?$pair@$$CBV?$basic_string@DU?$char_traits@D@std@@V?$allocator@D@2@@std@@PAW4MissionTypes@@@std@@V?$allocator@U?$pair@$$CBV?$basic_string@DU?$char_traits@D@std@@V?$allocator@D@2@@std@@PAW4MissionTypes@@@std@@@2@@4@@Z ; stdext::_Hash<std::tr1::_Umap_traits<std::basic_string<char,std::char_traits<char>,std::allocator<char> >,enum MissionTypes *,stdext::_Hash_compare<std::basic_string<char,std::char_traits<char>,std::allocator<char> >,std::tr1::hash<std::basic_string<char,std::char_traits<char>,std::allocator<char> > >,std::equal_to<std::basic_string<char,std::char_traits<char>,std::allocator<char> > > >,std::allocator<std::pair<std::basic_string<char,std::char_traits<char>,std::allocator<char> > const ,enum MissionTypes *> >,0> >::_Insert
	mov	BYTE PTR __$EHRec$[ebp+8], 49		; 00000031H
	lea	ecx, DWORD PTR $T225726[ebp]
	call	DWORD PTR __imp_??1?$basic_string@DU?$char_traits@D@std@@V?$allocator@D@2@@std@@QAE@XZ
	mov	BYTE PTR __$EHRec$[ebp+8], 30		; 0000001eH
	lea	ecx, DWORD PTR $T225728[ebp]
	call	DWORD PTR __imp_??1?$basic_string@DU?$char_traits@D@std@@V?$allocator@D@2@@std@@QAE@XZ

; 177  : 		kMissionTypesLookupTable.insert(make_pair(std::string("MISSION_EMBARK"), &s_eMISSION_EMBARK));

	push	OFFSET ?s_eMISSION_EMBARK@@3W4MissionTypes@@A ; s_eMISSION_EMBARK
	sub	esp, 28					; 0000001cH
	mov	ecx, esp
	mov	DWORD PTR $T225731[ebp], esp
	push	OFFSET ??_C@_0P@IOKKHHCO@MISSION_EMBARK?$AA@
	call	DWORD PTR __imp_??0?$basic_string@DU?$char_traits@D@std@@V?$allocator@D@2@@std@@QAE@PBD@Z
	mov	DWORD PTR tv3011[ebp], eax
	lea	ecx, DWORD PTR $T225732[ebp]
	push	ecx
	call	??$make_pair@V?$basic_string@DU?$char_traits@D@std@@V?$allocator@D@2@@std@@PAW4MissionTypes@@@std@@YA?AU?$pair@V?$basic_string@DU?$char_traits@D@std@@V?$allocator@D@2@@std@@PAW4MissionTypes@@@0@V?$basic_string@DU?$char_traits@D@std@@V?$allocator@D@2@@0@PAW4MissionTypes@@@Z ; std::make_pair<std::basic_string<char,std::char_traits<char>,std::allocator<char> >,enum MissionTypes *>
	add	esp, 36					; 00000024H
	mov	DWORD PTR tv3012[ebp], eax
	mov	edx, DWORD PTR tv3012[ebp]
	mov	DWORD PTR $T227745[ebp], edx
	mov	BYTE PTR __$EHRec$[ebp+8], 51		; 00000033H
	mov	eax, DWORD PTR $T227745[ebp]
	push	eax
	lea	ecx, DWORD PTR $T225730[ebp]
	call	DWORD PTR __imp_??0?$basic_string@DU?$char_traits@D@std@@V?$allocator@D@2@@std@@QAE@ABV01@@Z
	mov	ecx, DWORD PTR $T227745[ebp]
	mov	edx, DWORD PTR [ecx+28]
	mov	DWORD PTR $T225730[ebp+28], edx
	mov	BYTE PTR __$EHRec$[ebp+8], 52		; 00000034H
	mov	eax, DWORD PTR _kMissionTypesLookupTable$220632[ebp+8]
	mov	DWORD PTR $T227758[ebp], eax
	mov	ecx, DWORD PTR $T227758[ebp]
	mov	DWORD PTR $T227775[ebp], ecx
	mov	edx, DWORD PTR $T227775[ebp]
	push	edx
	lea	eax, DWORD PTR $T225730[ebp]
	push	eax
	lea	ecx, DWORD PTR $T225733[ebp]
	push	ecx
	lea	ecx, DWORD PTR _kMissionTypesLookupTable$220632[ebp]
	call	?_Insert@?$_Hash@V?$_Umap_traits@V?$basic_string@DU?$char_traits@D@std@@V?$allocator@D@2@@std@@PAW4MissionTypes@@V?$_Hash_compare@V?$basic_string@DU?$char_traits@D@std@@V?$allocator@D@2@@std@@V?$hash@V?$basic_string@DU?$char_traits@D@std@@V?$allocator@D@2@@std@@@tr1@2@U?$equal_to@V?$basic_string@DU?$char_traits@D@std@@V?$allocator@D@2@@std@@@2@@stdext@@V?$allocator@U?$pair@$$CBV?$basic_string@DU?$char_traits@D@std@@V?$allocator@D@2@@std@@PAW4MissionTypes@@@std@@@2@$0A@@tr1@std@@@stdext@@IAE?AU?$pair@V?$_Iterator@$0A@@?$list@U?$pair@$$CBV?$basic_string@DU?$char_traits@D@std@@V?$allocator@D@2@@std@@PAW4MissionTypes@@@std@@V?$allocator@U?$pair@$$CBV?$basic_string@DU?$char_traits@D@std@@V?$allocator@D@2@@std@@PAW4MissionTypes@@@std@@@2@@std@@_N@std@@ABU?$pair@$$CBV?$basic_string@DU?$char_traits@D@std@@V?$allocator@D@2@@std@@PAW4MissionTypes@@@4@V?$_Iterator@$0A@@?$list@U?$pair@$$CBV?$basic_string@DU?$char_traits@D@std@@V?$allocator@D@2@@std@@PAW4MissionTypes@@@std@@V?$allocator@U?$pair@$$CBV?$basic_string@DU?$char_traits@D@std@@V?$allocator@D@2@@std@@PAW4MissionTypes@@@std@@@2@@4@@Z ; stdext::_Hash<std::tr1::_Umap_traits<std::basic_string<char,std::char_traits<char>,std::allocator<char> >,enum MissionTypes *,stdext::_Hash_compare<std::basic_string<char,std::char_traits<char>,std::allocator<char> >,std::tr1::hash<std::basic_string<char,std::char_traits<char>,std::allocator<char> > >,std::equal_to<std::basic_string<char,std::char_traits<char>,std::allocator<char> > > >,std::allocator<std::pair<std::basic_string<char,std::char_traits<char>,std::allocator<char> > const ,enum MissionTypes *> >,0> >::_Insert
	mov	BYTE PTR __$EHRec$[ebp+8], 51		; 00000033H
	lea	ecx, DWORD PTR $T225730[ebp]
	call	DWORD PTR __imp_??1?$basic_string@DU?$char_traits@D@std@@V?$allocator@D@2@@std@@QAE@XZ
	mov	BYTE PTR __$EHRec$[ebp+8], 30		; 0000001eH
	lea	ecx, DWORD PTR $T225732[ebp]
	call	DWORD PTR __imp_??1?$basic_string@DU?$char_traits@D@std@@V?$allocator@D@2@@std@@QAE@XZ

; 178  : 		kMissionTypesLookupTable.insert(make_pair(std::string("MISSION_DISEMBARK"), &s_eMISSION_DISEMBARK));

	push	OFFSET ?s_eMISSION_DISEMBARK@@3W4MissionTypes@@A ; s_eMISSION_DISEMBARK
	sub	esp, 28					; 0000001cH
	mov	ecx, esp
	mov	DWORD PTR $T225735[ebp], esp
	push	OFFSET ??_C@_0BC@DCFDGAEA@MISSION_DISEMBARK?$AA@
	call	DWORD PTR __imp_??0?$basic_string@DU?$char_traits@D@std@@V?$allocator@D@2@@std@@QAE@PBD@Z
	mov	DWORD PTR tv3018[ebp], eax
	lea	edx, DWORD PTR $T225736[ebp]
	push	edx
	call	??$make_pair@V?$basic_string@DU?$char_traits@D@std@@V?$allocator@D@2@@std@@PAW4MissionTypes@@@std@@YA?AU?$pair@V?$basic_string@DU?$char_traits@D@std@@V?$allocator@D@2@@std@@PAW4MissionTypes@@@0@V?$basic_string@DU?$char_traits@D@std@@V?$allocator@D@2@@0@PAW4MissionTypes@@@Z ; std::make_pair<std::basic_string<char,std::char_traits<char>,std::allocator<char> >,enum MissionTypes *>
	add	esp, 36					; 00000024H
	mov	DWORD PTR tv3019[ebp], eax
	mov	eax, DWORD PTR tv3019[ebp]
	mov	DWORD PTR $T227796[ebp], eax
	mov	BYTE PTR __$EHRec$[ebp+8], 53		; 00000035H
	mov	ecx, DWORD PTR $T227796[ebp]
	push	ecx
	lea	ecx, DWORD PTR $T225734[ebp]
	call	DWORD PTR __imp_??0?$basic_string@DU?$char_traits@D@std@@V?$allocator@D@2@@std@@QAE@ABV01@@Z
	mov	edx, DWORD PTR $T227796[ebp]
	mov	eax, DWORD PTR [edx+28]
	mov	DWORD PTR $T225734[ebp+28], eax
	mov	BYTE PTR __$EHRec$[ebp+8], 54		; 00000036H
	mov	ecx, DWORD PTR _kMissionTypesLookupTable$220632[ebp+8]
	mov	DWORD PTR $T227809[ebp], ecx
	mov	edx, DWORD PTR $T227809[ebp]
	mov	DWORD PTR $T227826[ebp], edx
	mov	eax, DWORD PTR $T227826[ebp]
	push	eax
	lea	ecx, DWORD PTR $T225734[ebp]
	push	ecx
	lea	edx, DWORD PTR $T225737[ebp]
	push	edx
	lea	ecx, DWORD PTR _kMissionTypesLookupTable$220632[ebp]
	call	?_Insert@?$_Hash@V?$_Umap_traits@V?$basic_string@DU?$char_traits@D@std@@V?$allocator@D@2@@std@@PAW4MissionTypes@@V?$_Hash_compare@V?$basic_string@DU?$char_traits@D@std@@V?$allocator@D@2@@std@@V?$hash@V?$basic_string@DU?$char_traits@D@std@@V?$allocator@D@2@@std@@@tr1@2@U?$equal_to@V?$basic_string@DU?$char_traits@D@std@@V?$allocator@D@2@@std@@@2@@stdext@@V?$allocator@U?$pair@$$CBV?$basic_string@DU?$char_traits@D@std@@V?$allocator@D@2@@std@@PAW4MissionTypes@@@std@@@2@$0A@@tr1@std@@@stdext@@IAE?AU?$pair@V?$_Iterator@$0A@@?$list@U?$pair@$$CBV?$basic_string@DU?$char_traits@D@std@@V?$allocator@D@2@@std@@PAW4MissionTypes@@@std@@V?$allocator@U?$pair@$$CBV?$basic_string@DU?$char_traits@D@std@@V?$allocator@D@2@@std@@PAW4MissionTypes@@@std@@@2@@std@@_N@std@@ABU?$pair@$$CBV?$basic_string@DU?$char_traits@D@std@@V?$allocator@D@2@@std@@PAW4MissionTypes@@@4@V?$_Iterator@$0A@@?$list@U?$pair@$$CBV?$basic_string@DU?$char_traits@D@std@@V?$allocator@D@2@@std@@PAW4MissionTypes@@@std@@V?$allocator@U?$pair@$$CBV?$basic_string@DU?$char_traits@D@std@@V?$allocator@D@2@@std@@PAW4MissionTypes@@@std@@@2@@4@@Z ; stdext::_Hash<std::tr1::_Umap_traits<std::basic_string<char,std::char_traits<char>,std::allocator<char> >,enum MissionTypes *,stdext::_Hash_compare<std::basic_string<char,std::char_traits<char>,std::allocator<char> >,std::tr1::hash<std::basic_string<char,std::char_traits<char>,std::allocator<char> > >,std::equal_to<std::basic_string<char,std::char_traits<char>,std::allocator<char> > > >,std::allocator<std::pair<std::basic_string<char,std::char_traits<char>,std::allocator<char> > const ,enum MissionTypes *> >,0> >::_Insert
	mov	BYTE PTR __$EHRec$[ebp+8], 53		; 00000035H
	lea	ecx, DWORD PTR $T225734[ebp]
	call	DWORD PTR __imp_??1?$basic_string@DU?$char_traits@D@std@@V?$allocator@D@2@@std@@QAE@XZ
	mov	BYTE PTR __$EHRec$[ebp+8], 30		; 0000001eH
	lea	ecx, DWORD PTR $T225736[ebp]
	call	DWORD PTR __imp_??1?$basic_string@DU?$char_traits@D@std@@V?$allocator@D@2@@std@@QAE@XZ

; 179  : 		kMissionTypesLookupTable.insert(make_pair(std::string("MISSION_AIRPATROL"), &s_eMISSION_AIRPATROL));

	push	OFFSET ?s_eMISSION_AIRPATROL@@3W4MissionTypes@@A ; s_eMISSION_AIRPATROL
	sub	esp, 28					; 0000001cH
	mov	ecx, esp
	mov	DWORD PTR $T225739[ebp], esp
	push	OFFSET ??_C@_0BC@KMEHOEDP@MISSION_AIRPATROL?$AA@
	call	DWORD PTR __imp_??0?$basic_string@DU?$char_traits@D@std@@V?$allocator@D@2@@std@@QAE@PBD@Z
	mov	DWORD PTR tv3025[ebp], eax
	lea	eax, DWORD PTR $T225740[ebp]
	push	eax
	call	??$make_pair@V?$basic_string@DU?$char_traits@D@std@@V?$allocator@D@2@@std@@PAW4MissionTypes@@@std@@YA?AU?$pair@V?$basic_string@DU?$char_traits@D@std@@V?$allocator@D@2@@std@@PAW4MissionTypes@@@0@V?$basic_string@DU?$char_traits@D@std@@V?$allocator@D@2@@0@PAW4MissionTypes@@@Z ; std::make_pair<std::basic_string<char,std::char_traits<char>,std::allocator<char> >,enum MissionTypes *>
	add	esp, 36					; 00000024H
	mov	DWORD PTR tv3026[ebp], eax
	mov	ecx, DWORD PTR tv3026[ebp]
	mov	DWORD PTR $T227847[ebp], ecx
	mov	BYTE PTR __$EHRec$[ebp+8], 55		; 00000037H
	mov	edx, DWORD PTR $T227847[ebp]
	push	edx
	lea	ecx, DWORD PTR $T225738[ebp]
	call	DWORD PTR __imp_??0?$basic_string@DU?$char_traits@D@std@@V?$allocator@D@2@@std@@QAE@ABV01@@Z
	mov	eax, DWORD PTR $T227847[ebp]
	mov	ecx, DWORD PTR [eax+28]
	mov	DWORD PTR $T225738[ebp+28], ecx
	mov	BYTE PTR __$EHRec$[ebp+8], 56		; 00000038H
	mov	edx, DWORD PTR _kMissionTypesLookupTable$220632[ebp+8]
	mov	DWORD PTR $T227860[ebp], edx
	mov	eax, DWORD PTR $T227860[ebp]
	mov	DWORD PTR $T227877[ebp], eax
	mov	ecx, DWORD PTR $T227877[ebp]
	push	ecx
	lea	edx, DWORD PTR $T225738[ebp]
	push	edx
	lea	eax, DWORD PTR $T225741[ebp]
	push	eax
	lea	ecx, DWORD PTR _kMissionTypesLookupTable$220632[ebp]
	call	?_Insert@?$_Hash@V?$_Umap_traits@V?$basic_string@DU?$char_traits@D@std@@V?$allocator@D@2@@std@@PAW4MissionTypes@@V?$_Hash_compare@V?$basic_string@DU?$char_traits@D@std@@V?$allocator@D@2@@std@@V?$hash@V?$basic_string@DU?$char_traits@D@std@@V?$allocator@D@2@@std@@@tr1@2@U?$equal_to@V?$basic_string@DU?$char_traits@D@std@@V?$allocator@D@2@@std@@@2@@stdext@@V?$allocator@U?$pair@$$CBV?$basic_string@DU?$char_traits@D@std@@V?$allocator@D@2@@std@@PAW4MissionTypes@@@std@@@2@$0A@@tr1@std@@@stdext@@IAE?AU?$pair@V?$_Iterator@$0A@@?$list@U?$pair@$$CBV?$basic_string@DU?$char_traits@D@std@@V?$allocator@D@2@@std@@PAW4MissionTypes@@@std@@V?$allocator@U?$pair@$$CBV?$basic_string@DU?$char_traits@D@std@@V?$allocator@D@2@@std@@PAW4MissionTypes@@@std@@@2@@std@@_N@std@@ABU?$pair@$$CBV?$basic_string@DU?$char_traits@D@std@@V?$allocator@D@2@@std@@PAW4MissionTypes@@@4@V?$_Iterator@$0A@@?$list@U?$pair@$$CBV?$basic_string@DU?$char_traits@D@std@@V?$allocator@D@2@@std@@PAW4MissionTypes@@@std@@V?$allocator@U?$pair@$$CBV?$basic_string@DU?$char_traits@D@std@@V?$allocator@D@2@@std@@PAW4MissionTypes@@@std@@@2@@4@@Z ; stdext::_Hash<std::tr1::_Umap_traits<std::basic_string<char,std::char_traits<char>,std::allocator<char> >,enum MissionTypes *,stdext::_Hash_compare<std::basic_string<char,std::char_traits<char>,std::allocator<char> >,std::tr1::hash<std::basic_string<char,std::char_traits<char>,std::allocator<char> > >,std::equal_to<std::basic_string<char,std::char_traits<char>,std::allocator<char> > > >,std::allocator<std::pair<std::basic_string<char,std::char_traits<char>,std::allocator<char> > const ,enum MissionTypes *> >,0> >::_Insert
	mov	BYTE PTR __$EHRec$[ebp+8], 55		; 00000037H
	lea	ecx, DWORD PTR $T225738[ebp]
	call	DWORD PTR __imp_??1?$basic_string@DU?$char_traits@D@std@@V?$allocator@D@2@@std@@QAE@XZ
	mov	BYTE PTR __$EHRec$[ebp+8], 30		; 0000001eH
	lea	ecx, DWORD PTR $T225740[ebp]
	call	DWORD PTR __imp_??1?$basic_string@DU?$char_traits@D@std@@V?$allocator@D@2@@std@@QAE@XZ

; 180  : 		kMissionTypesLookupTable.insert(make_pair(std::string("MISSION_HEAL"), &s_eMISSION_HEAL));

	push	OFFSET ?s_eMISSION_HEAL@@3W4MissionTypes@@A ; s_eMISSION_HEAL
	sub	esp, 28					; 0000001cH
	mov	ecx, esp
	mov	DWORD PTR $T225743[ebp], esp
	push	OFFSET ??_C@_0N@JGCCMOMF@MISSION_HEAL?$AA@
	call	DWORD PTR __imp_??0?$basic_string@DU?$char_traits@D@std@@V?$allocator@D@2@@std@@QAE@PBD@Z
	mov	DWORD PTR tv3032[ebp], eax
	lea	ecx, DWORD PTR $T225744[ebp]
	push	ecx
	call	??$make_pair@V?$basic_string@DU?$char_traits@D@std@@V?$allocator@D@2@@std@@PAW4MissionTypes@@@std@@YA?AU?$pair@V?$basic_string@DU?$char_traits@D@std@@V?$allocator@D@2@@std@@PAW4MissionTypes@@@0@V?$basic_string@DU?$char_traits@D@std@@V?$allocator@D@2@@0@PAW4MissionTypes@@@Z ; std::make_pair<std::basic_string<char,std::char_traits<char>,std::allocator<char> >,enum MissionTypes *>
	add	esp, 36					; 00000024H
	mov	DWORD PTR tv3033[ebp], eax
	mov	edx, DWORD PTR tv3033[ebp]
	mov	DWORD PTR $T227898[ebp], edx
	mov	BYTE PTR __$EHRec$[ebp+8], 57		; 00000039H
	mov	eax, DWORD PTR $T227898[ebp]
	push	eax
	lea	ecx, DWORD PTR $T225742[ebp]
	call	DWORD PTR __imp_??0?$basic_string@DU?$char_traits@D@std@@V?$allocator@D@2@@std@@QAE@ABV01@@Z
	mov	ecx, DWORD PTR $T227898[ebp]
	mov	edx, DWORD PTR [ecx+28]
	mov	DWORD PTR $T225742[ebp+28], edx
	mov	BYTE PTR __$EHRec$[ebp+8], 58		; 0000003aH
	mov	eax, DWORD PTR _kMissionTypesLookupTable$220632[ebp+8]
	mov	DWORD PTR $T227911[ebp], eax
	mov	ecx, DWORD PTR $T227911[ebp]
	mov	DWORD PTR $T227928[ebp], ecx
	mov	edx, DWORD PTR $T227928[ebp]
	push	edx
	lea	eax, DWORD PTR $T225742[ebp]
	push	eax
	lea	ecx, DWORD PTR $T225745[ebp]
	push	ecx
	lea	ecx, DWORD PTR _kMissionTypesLookupTable$220632[ebp]
	call	?_Insert@?$_Hash@V?$_Umap_traits@V?$basic_string@DU?$char_traits@D@std@@V?$allocator@D@2@@std@@PAW4MissionTypes@@V?$_Hash_compare@V?$basic_string@DU?$char_traits@D@std@@V?$allocator@D@2@@std@@V?$hash@V?$basic_string@DU?$char_traits@D@std@@V?$allocator@D@2@@std@@@tr1@2@U?$equal_to@V?$basic_string@DU?$char_traits@D@std@@V?$allocator@D@2@@std@@@2@@stdext@@V?$allocator@U?$pair@$$CBV?$basic_string@DU?$char_traits@D@std@@V?$allocator@D@2@@std@@PAW4MissionTypes@@@std@@@2@$0A@@tr1@std@@@stdext@@IAE?AU?$pair@V?$_Iterator@$0A@@?$list@U?$pair@$$CBV?$basic_string@DU?$char_traits@D@std@@V?$allocator@D@2@@std@@PAW4MissionTypes@@@std@@V?$allocator@U?$pair@$$CBV?$basic_string@DU?$char_traits@D@std@@V?$allocator@D@2@@std@@PAW4MissionTypes@@@std@@@2@@std@@_N@std@@ABU?$pair@$$CBV?$basic_string@DU?$char_traits@D@std@@V?$allocator@D@2@@std@@PAW4MissionTypes@@@4@V?$_Iterator@$0A@@?$list@U?$pair@$$CBV?$basic_string@DU?$char_traits@D@std@@V?$allocator@D@2@@std@@PAW4MissionTypes@@@std@@V?$allocator@U?$pair@$$CBV?$basic_string@DU?$char_traits@D@std@@V?$allocator@D@2@@std@@PAW4MissionTypes@@@std@@@2@@4@@Z ; stdext::_Hash<std::tr1::_Umap_traits<std::basic_string<char,std::char_traits<char>,std::allocator<char> >,enum MissionTypes *,stdext::_Hash_compare<std::basic_string<char,std::char_traits<char>,std::allocator<char> >,std::tr1::hash<std::basic_string<char,std::char_traits<char>,std::allocator<char> > >,std::equal_to<std::basic_string<char,std::char_traits<char>,std::allocator<char> > > >,std::allocator<std::pair<std::basic_string<char,std::char_traits<char>,std::allocator<char> > const ,enum MissionTypes *> >,0> >::_Insert
	mov	BYTE PTR __$EHRec$[ebp+8], 57		; 00000039H
	lea	ecx, DWORD PTR $T225742[ebp]
	call	DWORD PTR __imp_??1?$basic_string@DU?$char_traits@D@std@@V?$allocator@D@2@@std@@QAE@XZ
	mov	BYTE PTR __$EHRec$[ebp+8], 30		; 0000001eH
	lea	ecx, DWORD PTR $T225744[ebp]
	call	DWORD PTR __imp_??1?$basic_string@DU?$char_traits@D@std@@V?$allocator@D@2@@std@@QAE@XZ

; 181  : 		kMissionTypesLookupTable.insert(make_pair(std::string("MISSION_AIRLIFT"), &s_eMISSION_AIRLIFT));

	push	OFFSET ?s_eMISSION_AIRLIFT@@3W4MissionTypes@@A ; s_eMISSION_AIRLIFT
	sub	esp, 28					; 0000001cH
	mov	ecx, esp
	mov	DWORD PTR $T225747[ebp], esp
	push	OFFSET ??_C@_0BA@GAMJAOG@MISSION_AIRLIFT?$AA@
	call	DWORD PTR __imp_??0?$basic_string@DU?$char_traits@D@std@@V?$allocator@D@2@@std@@QAE@PBD@Z
	mov	DWORD PTR tv3039[ebp], eax
	lea	edx, DWORD PTR $T225748[ebp]
	push	edx
	call	??$make_pair@V?$basic_string@DU?$char_traits@D@std@@V?$allocator@D@2@@std@@PAW4MissionTypes@@@std@@YA?AU?$pair@V?$basic_string@DU?$char_traits@D@std@@V?$allocator@D@2@@std@@PAW4MissionTypes@@@0@V?$basic_string@DU?$char_traits@D@std@@V?$allocator@D@2@@0@PAW4MissionTypes@@@Z ; std::make_pair<std::basic_string<char,std::char_traits<char>,std::allocator<char> >,enum MissionTypes *>
	add	esp, 36					; 00000024H
	mov	DWORD PTR tv3040[ebp], eax
	mov	eax, DWORD PTR tv3040[ebp]
	mov	DWORD PTR $T227949[ebp], eax
	mov	BYTE PTR __$EHRec$[ebp+8], 59		; 0000003bH
	mov	ecx, DWORD PTR $T227949[ebp]
	push	ecx
	lea	ecx, DWORD PTR $T225746[ebp]
	call	DWORD PTR __imp_??0?$basic_string@DU?$char_traits@D@std@@V?$allocator@D@2@@std@@QAE@ABV01@@Z
	mov	edx, DWORD PTR $T227949[ebp]
	mov	eax, DWORD PTR [edx+28]
	mov	DWORD PTR $T225746[ebp+28], eax
	mov	BYTE PTR __$EHRec$[ebp+8], 60		; 0000003cH
	mov	ecx, DWORD PTR _kMissionTypesLookupTable$220632[ebp+8]
	mov	DWORD PTR $T227962[ebp], ecx
	mov	edx, DWORD PTR $T227962[ebp]
	mov	DWORD PTR $T227979[ebp], edx
	mov	eax, DWORD PTR $T227979[ebp]
	push	eax
	lea	ecx, DWORD PTR $T225746[ebp]
	push	ecx
	lea	edx, DWORD PTR $T225749[ebp]
	push	edx
	lea	ecx, DWORD PTR _kMissionTypesLookupTable$220632[ebp]
	call	?_Insert@?$_Hash@V?$_Umap_traits@V?$basic_string@DU?$char_traits@D@std@@V?$allocator@D@2@@std@@PAW4MissionTypes@@V?$_Hash_compare@V?$basic_string@DU?$char_traits@D@std@@V?$allocator@D@2@@std@@V?$hash@V?$basic_string@DU?$char_traits@D@std@@V?$allocator@D@2@@std@@@tr1@2@U?$equal_to@V?$basic_string@DU?$char_traits@D@std@@V?$allocator@D@2@@std@@@2@@stdext@@V?$allocator@U?$pair@$$CBV?$basic_string@DU?$char_traits@D@std@@V?$allocator@D@2@@std@@PAW4MissionTypes@@@std@@@2@$0A@@tr1@std@@@stdext@@IAE?AU?$pair@V?$_Iterator@$0A@@?$list@U?$pair@$$CBV?$basic_string@DU?$char_traits@D@std@@V?$allocator@D@2@@std@@PAW4MissionTypes@@@std@@V?$allocator@U?$pair@$$CBV?$basic_string@DU?$char_traits@D@std@@V?$allocator@D@2@@std@@PAW4MissionTypes@@@std@@@2@@std@@_N@std@@ABU?$pair@$$CBV?$basic_string@DU?$char_traits@D@std@@V?$allocator@D@2@@std@@PAW4MissionTypes@@@4@V?$_Iterator@$0A@@?$list@U?$pair@$$CBV?$basic_string@DU?$char_traits@D@std@@V?$allocator@D@2@@std@@PAW4MissionTypes@@@std@@V?$allocator@U?$pair@$$CBV?$basic_string@DU?$char_traits@D@std@@V?$allocator@D@2@@std@@PAW4MissionTypes@@@std@@@2@@4@@Z ; stdext::_Hash<std::tr1::_Umap_traits<std::basic_string<char,std::char_traits<char>,std::allocator<char> >,enum MissionTypes *,stdext::_Hash_compare<std::basic_string<char,std::char_traits<char>,std::allocator<char> >,std::tr1::hash<std::basic_string<char,std::char_traits<char>,std::allocator<char> > >,std::equal_to<std::basic_string<char,std::char_traits<char>,std::allocator<char> > > >,std::allocator<std::pair<std::basic_string<char,std::char_traits<char>,std::allocator<char> > const ,enum MissionTypes *> >,0> >::_Insert
	mov	BYTE PTR __$EHRec$[ebp+8], 59		; 0000003bH
	lea	ecx, DWORD PTR $T225746[ebp]
	call	DWORD PTR __imp_??1?$basic_string@DU?$char_traits@D@std@@V?$allocator@D@2@@std@@QAE@XZ
	mov	BYTE PTR __$EHRec$[ebp+8], 30		; 0000001eH
	lea	ecx, DWORD PTR $T225748[ebp]
	call	DWORD PTR __imp_??1?$basic_string@DU?$char_traits@D@std@@V?$allocator@D@2@@std@@QAE@XZ

; 182  : 		kMissionTypesLookupTable.insert(make_pair(std::string("MISSION_NUKE"), &s_eMISSION_NUKE));

	push	OFFSET ?s_eMISSION_NUKE@@3W4MissionTypes@@A ; s_eMISSION_NUKE
	sub	esp, 28					; 0000001cH
	mov	ecx, esp
	mov	DWORD PTR $T225751[ebp], esp
	push	OFFSET ??_C@_0N@JFCOFCGF@MISSION_NUKE?$AA@
	call	DWORD PTR __imp_??0?$basic_string@DU?$char_traits@D@std@@V?$allocator@D@2@@std@@QAE@PBD@Z
	mov	DWORD PTR tv3046[ebp], eax
	lea	eax, DWORD PTR $T225752[ebp]
	push	eax
	call	??$make_pair@V?$basic_string@DU?$char_traits@D@std@@V?$allocator@D@2@@std@@PAW4MissionTypes@@@std@@YA?AU?$pair@V?$basic_string@DU?$char_traits@D@std@@V?$allocator@D@2@@std@@PAW4MissionTypes@@@0@V?$basic_string@DU?$char_traits@D@std@@V?$allocator@D@2@@0@PAW4MissionTypes@@@Z ; std::make_pair<std::basic_string<char,std::char_traits<char>,std::allocator<char> >,enum MissionTypes *>
	add	esp, 36					; 00000024H
	mov	DWORD PTR tv3047[ebp], eax
	mov	ecx, DWORD PTR tv3047[ebp]
	mov	DWORD PTR $T228000[ebp], ecx
	mov	BYTE PTR __$EHRec$[ebp+8], 61		; 0000003dH
	mov	edx, DWORD PTR $T228000[ebp]
	push	edx
	lea	ecx, DWORD PTR $T225750[ebp]
	call	DWORD PTR __imp_??0?$basic_string@DU?$char_traits@D@std@@V?$allocator@D@2@@std@@QAE@ABV01@@Z
	mov	eax, DWORD PTR $T228000[ebp]
	mov	ecx, DWORD PTR [eax+28]
	mov	DWORD PTR $T225750[ebp+28], ecx
	mov	BYTE PTR __$EHRec$[ebp+8], 62		; 0000003eH
	mov	edx, DWORD PTR _kMissionTypesLookupTable$220632[ebp+8]
	mov	DWORD PTR $T228013[ebp], edx
	mov	eax, DWORD PTR $T228013[ebp]
	mov	DWORD PTR $T228030[ebp], eax
	mov	ecx, DWORD PTR $T228030[ebp]
	push	ecx
	lea	edx, DWORD PTR $T225750[ebp]
	push	edx
	lea	eax, DWORD PTR $T225753[ebp]
	push	eax
	lea	ecx, DWORD PTR _kMissionTypesLookupTable$220632[ebp]
	call	?_Insert@?$_Hash@V?$_Umap_traits@V?$basic_string@DU?$char_traits@D@std@@V?$allocator@D@2@@std@@PAW4MissionTypes@@V?$_Hash_compare@V?$basic_string@DU?$char_traits@D@std@@V?$allocator@D@2@@std@@V?$hash@V?$basic_string@DU?$char_traits@D@std@@V?$allocator@D@2@@std@@@tr1@2@U?$equal_to@V?$basic_string@DU?$char_traits@D@std@@V?$allocator@D@2@@std@@@2@@stdext@@V?$allocator@U?$pair@$$CBV?$basic_string@DU?$char_traits@D@std@@V?$allocator@D@2@@std@@PAW4MissionTypes@@@std@@@2@$0A@@tr1@std@@@stdext@@IAE?AU?$pair@V?$_Iterator@$0A@@?$list@U?$pair@$$CBV?$basic_string@DU?$char_traits@D@std@@V?$allocator@D@2@@std@@PAW4MissionTypes@@@std@@V?$allocator@U?$pair@$$CBV?$basic_string@DU?$char_traits@D@std@@V?$allocator@D@2@@std@@PAW4MissionTypes@@@std@@@2@@std@@_N@std@@ABU?$pair@$$CBV?$basic_string@DU?$char_traits@D@std@@V?$allocator@D@2@@std@@PAW4MissionTypes@@@4@V?$_Iterator@$0A@@?$list@U?$pair@$$CBV?$basic_string@DU?$char_traits@D@std@@V?$allocator@D@2@@std@@PAW4MissionTypes@@@std@@V?$allocator@U?$pair@$$CBV?$basic_string@DU?$char_traits@D@std@@V?$allocator@D@2@@std@@PAW4MissionTypes@@@std@@@2@@4@@Z ; stdext::_Hash<std::tr1::_Umap_traits<std::basic_string<char,std::char_traits<char>,std::allocator<char> >,enum MissionTypes *,stdext::_Hash_compare<std::basic_string<char,std::char_traits<char>,std::allocator<char> >,std::tr1::hash<std::basic_string<char,std::char_traits<char>,std::allocator<char> > >,std::equal_to<std::basic_string<char,std::char_traits<char>,std::allocator<char> > > >,std::allocator<std::pair<std::basic_string<char,std::char_traits<char>,std::allocator<char> > const ,enum MissionTypes *> >,0> >::_Insert
	mov	BYTE PTR __$EHRec$[ebp+8], 61		; 0000003dH
	lea	ecx, DWORD PTR $T225750[ebp]
	call	DWORD PTR __imp_??1?$basic_string@DU?$char_traits@D@std@@V?$allocator@D@2@@std@@QAE@XZ
	mov	BYTE PTR __$EHRec$[ebp+8], 30		; 0000001eH
	lea	ecx, DWORD PTR $T225752[ebp]
	call	DWORD PTR __imp_??1?$basic_string@DU?$char_traits@D@std@@V?$allocator@D@2@@std@@QAE@XZ

; 183  : 		kMissionTypesLookupTable.insert(make_pair(std::string("MISSION_PARADROP"), &s_eMISSION_PARADROP));

	push	OFFSET ?s_eMISSION_PARADROP@@3W4MissionTypes@@A ; s_eMISSION_PARADROP
	sub	esp, 28					; 0000001cH
	mov	ecx, esp
	mov	DWORD PTR $T225755[ebp], esp
	push	OFFSET ??_C@_0BB@BAIMAADI@MISSION_PARADROP?$AA@
	call	DWORD PTR __imp_??0?$basic_string@DU?$char_traits@D@std@@V?$allocator@D@2@@std@@QAE@PBD@Z
	mov	DWORD PTR tv3053[ebp], eax
	lea	ecx, DWORD PTR $T225756[ebp]
	push	ecx
	call	??$make_pair@V?$basic_string@DU?$char_traits@D@std@@V?$allocator@D@2@@std@@PAW4MissionTypes@@@std@@YA?AU?$pair@V?$basic_string@DU?$char_traits@D@std@@V?$allocator@D@2@@std@@PAW4MissionTypes@@@0@V?$basic_string@DU?$char_traits@D@std@@V?$allocator@D@2@@0@PAW4MissionTypes@@@Z ; std::make_pair<std::basic_string<char,std::char_traits<char>,std::allocator<char> >,enum MissionTypes *>
	add	esp, 36					; 00000024H
	mov	DWORD PTR tv3054[ebp], eax
	mov	edx, DWORD PTR tv3054[ebp]
	mov	DWORD PTR $T228051[ebp], edx
	mov	BYTE PTR __$EHRec$[ebp+8], 63		; 0000003fH
	mov	eax, DWORD PTR $T228051[ebp]
	push	eax
	lea	ecx, DWORD PTR $T225754[ebp]
	call	DWORD PTR __imp_??0?$basic_string@DU?$char_traits@D@std@@V?$allocator@D@2@@std@@QAE@ABV01@@Z
	mov	ecx, DWORD PTR $T228051[ebp]
	mov	edx, DWORD PTR [ecx+28]
	mov	DWORD PTR $T225754[ebp+28], edx
	mov	BYTE PTR __$EHRec$[ebp+8], 64		; 00000040H
	mov	eax, DWORD PTR _kMissionTypesLookupTable$220632[ebp+8]
	mov	DWORD PTR $T228064[ebp], eax
	mov	ecx, DWORD PTR $T228064[ebp]
	mov	DWORD PTR $T228081[ebp], ecx
	mov	edx, DWORD PTR $T228081[ebp]
	push	edx
	lea	eax, DWORD PTR $T225754[ebp]
	push	eax
	lea	ecx, DWORD PTR $T225757[ebp]
	push	ecx
	lea	ecx, DWORD PTR _kMissionTypesLookupTable$220632[ebp]
	call	?_Insert@?$_Hash@V?$_Umap_traits@V?$basic_string@DU?$char_traits@D@std@@V?$allocator@D@2@@std@@PAW4MissionTypes@@V?$_Hash_compare@V?$basic_string@DU?$char_traits@D@std@@V?$allocator@D@2@@std@@V?$hash@V?$basic_string@DU?$char_traits@D@std@@V?$allocator@D@2@@std@@@tr1@2@U?$equal_to@V?$basic_string@DU?$char_traits@D@std@@V?$allocator@D@2@@std@@@2@@stdext@@V?$allocator@U?$pair@$$CBV?$basic_string@DU?$char_traits@D@std@@V?$allocator@D@2@@std@@PAW4MissionTypes@@@std@@@2@$0A@@tr1@std@@@stdext@@IAE?AU?$pair@V?$_Iterator@$0A@@?$list@U?$pair@$$CBV?$basic_string@DU?$char_traits@D@std@@V?$allocator@D@2@@std@@PAW4MissionTypes@@@std@@V?$allocator@U?$pair@$$CBV?$basic_string@DU?$char_traits@D@std@@V?$allocator@D@2@@std@@PAW4MissionTypes@@@std@@@2@@std@@_N@std@@ABU?$pair@$$CBV?$basic_string@DU?$char_traits@D@std@@V?$allocator@D@2@@std@@PAW4MissionTypes@@@4@V?$_Iterator@$0A@@?$list@U?$pair@$$CBV?$basic_string@DU?$char_traits@D@std@@V?$allocator@D@2@@std@@PAW4MissionTypes@@@std@@V?$allocator@U?$pair@$$CBV?$basic_string@DU?$char_traits@D@std@@V?$allocator@D@2@@std@@PAW4MissionTypes@@@std@@@2@@4@@Z ; stdext::_Hash<std::tr1::_Umap_traits<std::basic_string<char,std::char_traits<char>,std::allocator<char> >,enum MissionTypes *,stdext::_Hash_compare<std::basic_string<char,std::char_traits<char>,std::allocator<char> >,std::tr1::hash<std::basic_string<char,std::char_traits<char>,std::allocator<char> > >,std::equal_to<std::basic_string<char,std::char_traits<char>,std::allocator<char> > > >,std::allocator<std::pair<std::basic_string<char,std::char_traits<char>,std::allocator<char> > const ,enum MissionTypes *> >,0> >::_Insert
	mov	BYTE PTR __$EHRec$[ebp+8], 63		; 0000003fH
	lea	ecx, DWORD PTR $T225754[ebp]
	call	DWORD PTR __imp_??1?$basic_string@DU?$char_traits@D@std@@V?$allocator@D@2@@std@@QAE@XZ
	mov	BYTE PTR __$EHRec$[ebp+8], 30		; 0000001eH
	lea	ecx, DWORD PTR $T225756[ebp]
	call	DWORD PTR __imp_??1?$basic_string@DU?$char_traits@D@std@@V?$allocator@D@2@@std@@QAE@XZ

; 184  : 		kMissionTypesLookupTable.insert(make_pair(std::string("MISSION_AIR_SWEEP"), &s_eMISSION_AIR_SWEEP));

	push	OFFSET ?s_eMISSION_AIR_SWEEP@@3W4MissionTypes@@A ; s_eMISSION_AIR_SWEEP
	sub	esp, 28					; 0000001cH
	mov	ecx, esp
	mov	DWORD PTR $T225759[ebp], esp
	push	OFFSET ??_C@_0BC@HFJPPKDL@MISSION_AIR_SWEEP?$AA@
	call	DWORD PTR __imp_??0?$basic_string@DU?$char_traits@D@std@@V?$allocator@D@2@@std@@QAE@PBD@Z
	mov	DWORD PTR tv3060[ebp], eax
	lea	edx, DWORD PTR $T225760[ebp]
	push	edx
	call	??$make_pair@V?$basic_string@DU?$char_traits@D@std@@V?$allocator@D@2@@std@@PAW4MissionTypes@@@std@@YA?AU?$pair@V?$basic_string@DU?$char_traits@D@std@@V?$allocator@D@2@@std@@PAW4MissionTypes@@@0@V?$basic_string@DU?$char_traits@D@std@@V?$allocator@D@2@@0@PAW4MissionTypes@@@Z ; std::make_pair<std::basic_string<char,std::char_traits<char>,std::allocator<char> >,enum MissionTypes *>
	add	esp, 36					; 00000024H
	mov	DWORD PTR tv3061[ebp], eax
	mov	eax, DWORD PTR tv3061[ebp]
	mov	DWORD PTR $T228102[ebp], eax
	mov	BYTE PTR __$EHRec$[ebp+8], 65		; 00000041H
	mov	ecx, DWORD PTR $T228102[ebp]
	push	ecx
	lea	ecx, DWORD PTR $T225758[ebp]
	call	DWORD PTR __imp_??0?$basic_string@DU?$char_traits@D@std@@V?$allocator@D@2@@std@@QAE@ABV01@@Z
	mov	edx, DWORD PTR $T228102[ebp]
	mov	eax, DWORD PTR [edx+28]
	mov	DWORD PTR $T225758[ebp+28], eax
	mov	BYTE PTR __$EHRec$[ebp+8], 66		; 00000042H
	mov	ecx, DWORD PTR _kMissionTypesLookupTable$220632[ebp+8]
	mov	DWORD PTR $T228115[ebp], ecx
	mov	edx, DWORD PTR $T228115[ebp]
	mov	DWORD PTR $T228132[ebp], edx
	mov	eax, DWORD PTR $T228132[ebp]
	push	eax
	lea	ecx, DWORD PTR $T225758[ebp]
	push	ecx
	lea	edx, DWORD PTR $T225761[ebp]
	push	edx
	lea	ecx, DWORD PTR _kMissionTypesLookupTable$220632[ebp]
	call	?_Insert@?$_Hash@V?$_Umap_traits@V?$basic_string@DU?$char_traits@D@std@@V?$allocator@D@2@@std@@PAW4MissionTypes@@V?$_Hash_compare@V?$basic_string@DU?$char_traits@D@std@@V?$allocator@D@2@@std@@V?$hash@V?$basic_string@DU?$char_traits@D@std@@V?$allocator@D@2@@std@@@tr1@2@U?$equal_to@V?$basic_string@DU?$char_traits@D@std@@V?$allocator@D@2@@std@@@2@@stdext@@V?$allocator@U?$pair@$$CBV?$basic_string@DU?$char_traits@D@std@@V?$allocator@D@2@@std@@PAW4MissionTypes@@@std@@@2@$0A@@tr1@std@@@stdext@@IAE?AU?$pair@V?$_Iterator@$0A@@?$list@U?$pair@$$CBV?$basic_string@DU?$char_traits@D@std@@V?$allocator@D@2@@std@@PAW4MissionTypes@@@std@@V?$allocator@U?$pair@$$CBV?$basic_string@DU?$char_traits@D@std@@V?$allocator@D@2@@std@@PAW4MissionTypes@@@std@@@2@@std@@_N@std@@ABU?$pair@$$CBV?$basic_string@DU?$char_traits@D@std@@V?$allocator@D@2@@std@@PAW4MissionTypes@@@4@V?$_Iterator@$0A@@?$list@U?$pair@$$CBV?$basic_string@DU?$char_traits@D@std@@V?$allocator@D@2@@std@@PAW4MissionTypes@@@std@@V?$allocator@U?$pair@$$CBV?$basic_string@DU?$char_traits@D@std@@V?$allocator@D@2@@std@@PAW4MissionTypes@@@std@@@2@@4@@Z ; stdext::_Hash<std::tr1::_Umap_traits<std::basic_string<char,std::char_traits<char>,std::allocator<char> >,enum MissionTypes *,stdext::_Hash_compare<std::basic_string<char,std::char_traits<char>,std::allocator<char> >,std::tr1::hash<std::basic_string<char,std::char_traits<char>,std::allocator<char> > >,std::equal_to<std::basic_string<char,std::char_traits<char>,std::allocator<char> > > >,std::allocator<std::pair<std::basic_string<char,std::char_traits<char>,std::allocator<char> > const ,enum MissionTypes *> >,0> >::_Insert
	mov	BYTE PTR __$EHRec$[ebp+8], 65		; 00000041H
	lea	ecx, DWORD PTR $T225758[ebp]
	call	DWORD PTR __imp_??1?$basic_string@DU?$char_traits@D@std@@V?$allocator@D@2@@std@@QAE@XZ
	mov	BYTE PTR __$EHRec$[ebp+8], 30		; 0000001eH
	lea	ecx, DWORD PTR $T225760[ebp]
	call	DWORD PTR __imp_??1?$basic_string@DU?$char_traits@D@std@@V?$allocator@D@2@@std@@QAE@XZ

; 185  : 		kMissionTypesLookupTable.insert(make_pair(std::string("MISSION_REBASE"), &s_eMISSION_REBASE));

	push	OFFSET ?s_eMISSION_REBASE@@3W4MissionTypes@@A ; s_eMISSION_REBASE
	sub	esp, 28					; 0000001cH
	mov	ecx, esp
	mov	DWORD PTR $T225763[ebp], esp
	push	OFFSET ??_C@_0P@FPMBBALK@MISSION_REBASE?$AA@
	call	DWORD PTR __imp_??0?$basic_string@DU?$char_traits@D@std@@V?$allocator@D@2@@std@@QAE@PBD@Z
	mov	DWORD PTR tv3067[ebp], eax
	lea	eax, DWORD PTR $T225764[ebp]
	push	eax
	call	??$make_pair@V?$basic_string@DU?$char_traits@D@std@@V?$allocator@D@2@@std@@PAW4MissionTypes@@@std@@YA?AU?$pair@V?$basic_string@DU?$char_traits@D@std@@V?$allocator@D@2@@std@@PAW4MissionTypes@@@0@V?$basic_string@DU?$char_traits@D@std@@V?$allocator@D@2@@0@PAW4MissionTypes@@@Z ; std::make_pair<std::basic_string<char,std::char_traits<char>,std::allocator<char> >,enum MissionTypes *>
	add	esp, 36					; 00000024H
	mov	DWORD PTR tv3068[ebp], eax
	mov	ecx, DWORD PTR tv3068[ebp]
	mov	DWORD PTR $T228153[ebp], ecx
	mov	BYTE PTR __$EHRec$[ebp+8], 67		; 00000043H
	mov	edx, DWORD PTR $T228153[ebp]
	push	edx
	lea	ecx, DWORD PTR $T225762[ebp]
	call	DWORD PTR __imp_??0?$basic_string@DU?$char_traits@D@std@@V?$allocator@D@2@@std@@QAE@ABV01@@Z
	mov	eax, DWORD PTR $T228153[ebp]
	mov	ecx, DWORD PTR [eax+28]
	mov	DWORD PTR $T225762[ebp+28], ecx
	mov	BYTE PTR __$EHRec$[ebp+8], 68		; 00000044H
	mov	edx, DWORD PTR _kMissionTypesLookupTable$220632[ebp+8]
	mov	DWORD PTR $T228166[ebp], edx
	mov	eax, DWORD PTR $T228166[ebp]
	mov	DWORD PTR $T228183[ebp], eax
	mov	ecx, DWORD PTR $T228183[ebp]
	push	ecx
	lea	edx, DWORD PTR $T225762[ebp]
	push	edx
	lea	eax, DWORD PTR $T225765[ebp]
	push	eax
	lea	ecx, DWORD PTR _kMissionTypesLookupTable$220632[ebp]
	call	?_Insert@?$_Hash@V?$_Umap_traits@V?$basic_string@DU?$char_traits@D@std@@V?$allocator@D@2@@std@@PAW4MissionTypes@@V?$_Hash_compare@V?$basic_string@DU?$char_traits@D@std@@V?$allocator@D@2@@std@@V?$hash@V?$basic_string@DU?$char_traits@D@std@@V?$allocator@D@2@@std@@@tr1@2@U?$equal_to@V?$basic_string@DU?$char_traits@D@std@@V?$allocator@D@2@@std@@@2@@stdext@@V?$allocator@U?$pair@$$CBV?$basic_string@DU?$char_traits@D@std@@V?$allocator@D@2@@std@@PAW4MissionTypes@@@std@@@2@$0A@@tr1@std@@@stdext@@IAE?AU?$pair@V?$_Iterator@$0A@@?$list@U?$pair@$$CBV?$basic_string@DU?$char_traits@D@std@@V?$allocator@D@2@@std@@PAW4MissionTypes@@@std@@V?$allocator@U?$pair@$$CBV?$basic_string@DU?$char_traits@D@std@@V?$allocator@D@2@@std@@PAW4MissionTypes@@@std@@@2@@std@@_N@std@@ABU?$pair@$$CBV?$basic_string@DU?$char_traits@D@std@@V?$allocator@D@2@@std@@PAW4MissionTypes@@@4@V?$_Iterator@$0A@@?$list@U?$pair@$$CBV?$basic_string@DU?$char_traits@D@std@@V?$allocator@D@2@@std@@PAW4MissionTypes@@@std@@V?$allocator@U?$pair@$$CBV?$basic_string@DU?$char_traits@D@std@@V?$allocator@D@2@@std@@PAW4MissionTypes@@@std@@@2@@4@@Z ; stdext::_Hash<std::tr1::_Umap_traits<std::basic_string<char,std::char_traits<char>,std::allocator<char> >,enum MissionTypes *,stdext::_Hash_compare<std::basic_string<char,std::char_traits<char>,std::allocator<char> >,std::tr1::hash<std::basic_string<char,std::char_traits<char>,std::allocator<char> > >,std::equal_to<std::basic_string<char,std::char_traits<char>,std::allocator<char> > > >,std::allocator<std::pair<std::basic_string<char,std::char_traits<char>,std::allocator<char> > const ,enum MissionTypes *> >,0> >::_Insert
	mov	BYTE PTR __$EHRec$[ebp+8], 67		; 00000043H
	lea	ecx, DWORD PTR $T225762[ebp]
	call	DWORD PTR __imp_??1?$basic_string@DU?$char_traits@D@std@@V?$allocator@D@2@@std@@QAE@XZ
	mov	BYTE PTR __$EHRec$[ebp+8], 30		; 0000001eH
	lea	ecx, DWORD PTR $T225764[ebp]
	call	DWORD PTR __imp_??1?$basic_string@DU?$char_traits@D@std@@V?$allocator@D@2@@std@@QAE@XZ

; 186  : 		kMissionTypesLookupTable.insert(make_pair(std::string("MISSION_RANGE_ATTACK"), &s_eMISSION_RANGE_ATTACK));

	push	OFFSET ?s_eMISSION_RANGE_ATTACK@@3W4MissionTypes@@A ; s_eMISSION_RANGE_ATTACK
	sub	esp, 28					; 0000001cH
	mov	ecx, esp
	mov	DWORD PTR $T225767[ebp], esp
	push	OFFSET ??_C@_0BF@LOAKEPLA@MISSION_RANGE_ATTACK?$AA@
	call	DWORD PTR __imp_??0?$basic_string@DU?$char_traits@D@std@@V?$allocator@D@2@@std@@QAE@PBD@Z
	mov	DWORD PTR tv3074[ebp], eax
	lea	ecx, DWORD PTR $T225768[ebp]
	push	ecx
	call	??$make_pair@V?$basic_string@DU?$char_traits@D@std@@V?$allocator@D@2@@std@@PAW4MissionTypes@@@std@@YA?AU?$pair@V?$basic_string@DU?$char_traits@D@std@@V?$allocator@D@2@@std@@PAW4MissionTypes@@@0@V?$basic_string@DU?$char_traits@D@std@@V?$allocator@D@2@@0@PAW4MissionTypes@@@Z ; std::make_pair<std::basic_string<char,std::char_traits<char>,std::allocator<char> >,enum MissionTypes *>
	add	esp, 36					; 00000024H
	mov	DWORD PTR tv3075[ebp], eax
	mov	edx, DWORD PTR tv3075[ebp]
	mov	DWORD PTR $T228204[ebp], edx
	mov	BYTE PTR __$EHRec$[ebp+8], 69		; 00000045H
	mov	eax, DWORD PTR $T228204[ebp]
	push	eax
	lea	ecx, DWORD PTR $T225766[ebp]
	call	DWORD PTR __imp_??0?$basic_string@DU?$char_traits@D@std@@V?$allocator@D@2@@std@@QAE@ABV01@@Z
	mov	ecx, DWORD PTR $T228204[ebp]
	mov	edx, DWORD PTR [ecx+28]
	mov	DWORD PTR $T225766[ebp+28], edx
	mov	BYTE PTR __$EHRec$[ebp+8], 70		; 00000046H
	mov	eax, DWORD PTR _kMissionTypesLookupTable$220632[ebp+8]
	mov	DWORD PTR $T228217[ebp], eax
	mov	ecx, DWORD PTR $T228217[ebp]
	mov	DWORD PTR $T228234[ebp], ecx
	mov	edx, DWORD PTR $T228234[ebp]
	push	edx
	lea	eax, DWORD PTR $T225766[ebp]
	push	eax
	lea	ecx, DWORD PTR $T225769[ebp]
	push	ecx
	lea	ecx, DWORD PTR _kMissionTypesLookupTable$220632[ebp]
	call	?_Insert@?$_Hash@V?$_Umap_traits@V?$basic_string@DU?$char_traits@D@std@@V?$allocator@D@2@@std@@PAW4MissionTypes@@V?$_Hash_compare@V?$basic_string@DU?$char_traits@D@std@@V?$allocator@D@2@@std@@V?$hash@V?$basic_string@DU?$char_traits@D@std@@V?$allocator@D@2@@std@@@tr1@2@U?$equal_to@V?$basic_string@DU?$char_traits@D@std@@V?$allocator@D@2@@std@@@2@@stdext@@V?$allocator@U?$pair@$$CBV?$basic_string@DU?$char_traits@D@std@@V?$allocator@D@2@@std@@PAW4MissionTypes@@@std@@@2@$0A@@tr1@std@@@stdext@@IAE?AU?$pair@V?$_Iterator@$0A@@?$list@U?$pair@$$CBV?$basic_string@DU?$char_traits@D@std@@V?$allocator@D@2@@std@@PAW4MissionTypes@@@std@@V?$allocator@U?$pair@$$CBV?$basic_string@DU?$char_traits@D@std@@V?$allocator@D@2@@std@@PAW4MissionTypes@@@std@@@2@@std@@_N@std@@ABU?$pair@$$CBV?$basic_string@DU?$char_traits@D@std@@V?$allocator@D@2@@std@@PAW4MissionTypes@@@4@V?$_Iterator@$0A@@?$list@U?$pair@$$CBV?$basic_string@DU?$char_traits@D@std@@V?$allocator@D@2@@std@@PAW4MissionTypes@@@std@@V?$allocator@U?$pair@$$CBV?$basic_string@DU?$char_traits@D@std@@V?$allocator@D@2@@std@@PAW4MissionTypes@@@std@@@2@@4@@Z ; stdext::_Hash<std::tr1::_Umap_traits<std::basic_string<char,std::char_traits<char>,std::allocator<char> >,enum MissionTypes *,stdext::_Hash_compare<std::basic_string<char,std::char_traits<char>,std::allocator<char> >,std::tr1::hash<std::basic_string<char,std::char_traits<char>,std::allocator<char> > >,std::equal_to<std::basic_string<char,std::char_traits<char>,std::allocator<char> > > >,std::allocator<std::pair<std::basic_string<char,std::char_traits<char>,std::allocator<char> > const ,enum MissionTypes *> >,0> >::_Insert
	mov	BYTE PTR __$EHRec$[ebp+8], 69		; 00000045H
	lea	ecx, DWORD PTR $T225766[ebp]
	call	DWORD PTR __imp_??1?$basic_string@DU?$char_traits@D@std@@V?$allocator@D@2@@std@@QAE@XZ
	mov	BYTE PTR __$EHRec$[ebp+8], 30		; 0000001eH
	lea	ecx, DWORD PTR $T225768[ebp]
	call	DWORD PTR __imp_??1?$basic_string@DU?$char_traits@D@std@@V?$allocator@D@2@@std@@QAE@XZ

; 187  : 		kMissionTypesLookupTable.insert(make_pair(std::string("MISSION_PILLAGE"), &s_eMISSION_PILLAGE));

	push	OFFSET ?s_eMISSION_PILLAGE@@3W4MissionTypes@@A ; s_eMISSION_PILLAGE
	sub	esp, 28					; 0000001cH
	mov	ecx, esp
	mov	DWORD PTR $T225771[ebp], esp
	push	OFFSET ??_C@_0BA@BIGOKDHA@MISSION_PILLAGE?$AA@
	call	DWORD PTR __imp_??0?$basic_string@DU?$char_traits@D@std@@V?$allocator@D@2@@std@@QAE@PBD@Z
	mov	DWORD PTR tv3081[ebp], eax
	lea	edx, DWORD PTR $T225772[ebp]
	push	edx
	call	??$make_pair@V?$basic_string@DU?$char_traits@D@std@@V?$allocator@D@2@@std@@PAW4MissionTypes@@@std@@YA?AU?$pair@V?$basic_string@DU?$char_traits@D@std@@V?$allocator@D@2@@std@@PAW4MissionTypes@@@0@V?$basic_string@DU?$char_traits@D@std@@V?$allocator@D@2@@0@PAW4MissionTypes@@@Z ; std::make_pair<std::basic_string<char,std::char_traits<char>,std::allocator<char> >,enum MissionTypes *>
	add	esp, 36					; 00000024H
	mov	DWORD PTR tv3082[ebp], eax
	mov	eax, DWORD PTR tv3082[ebp]
	mov	DWORD PTR $T228255[ebp], eax
	mov	BYTE PTR __$EHRec$[ebp+8], 71		; 00000047H
	mov	ecx, DWORD PTR $T228255[ebp]
	push	ecx
	lea	ecx, DWORD PTR $T225770[ebp]
	call	DWORD PTR __imp_??0?$basic_string@DU?$char_traits@D@std@@V?$allocator@D@2@@std@@QAE@ABV01@@Z
	mov	edx, DWORD PTR $T228255[ebp]
	mov	eax, DWORD PTR [edx+28]
	mov	DWORD PTR $T225770[ebp+28], eax
	mov	BYTE PTR __$EHRec$[ebp+8], 72		; 00000048H
	mov	ecx, DWORD PTR _kMissionTypesLookupTable$220632[ebp+8]
	mov	DWORD PTR $T228268[ebp], ecx
	mov	edx, DWORD PTR $T228268[ebp]
	mov	DWORD PTR $T228285[ebp], edx
	mov	eax, DWORD PTR $T228285[ebp]
	push	eax
	lea	ecx, DWORD PTR $T225770[ebp]
	push	ecx
	lea	edx, DWORD PTR $T225773[ebp]
	push	edx
	lea	ecx, DWORD PTR _kMissionTypesLookupTable$220632[ebp]
	call	?_Insert@?$_Hash@V?$_Umap_traits@V?$basic_string@DU?$char_traits@D@std@@V?$allocator@D@2@@std@@PAW4MissionTypes@@V?$_Hash_compare@V?$basic_string@DU?$char_traits@D@std@@V?$allocator@D@2@@std@@V?$hash@V?$basic_string@DU?$char_traits@D@std@@V?$allocator@D@2@@std@@@tr1@2@U?$equal_to@V?$basic_string@DU?$char_traits@D@std@@V?$allocator@D@2@@std@@@2@@stdext@@V?$allocator@U?$pair@$$CBV?$basic_string@DU?$char_traits@D@std@@V?$allocator@D@2@@std@@PAW4MissionTypes@@@std@@@2@$0A@@tr1@std@@@stdext@@IAE?AU?$pair@V?$_Iterator@$0A@@?$list@U?$pair@$$CBV?$basic_string@DU?$char_traits@D@std@@V?$allocator@D@2@@std@@PAW4MissionTypes@@@std@@V?$allocator@U?$pair@$$CBV?$basic_string@DU?$char_traits@D@std@@V?$allocator@D@2@@std@@PAW4MissionTypes@@@std@@@2@@std@@_N@std@@ABU?$pair@$$CBV?$basic_string@DU?$char_traits@D@std@@V?$allocator@D@2@@std@@PAW4MissionTypes@@@4@V?$_Iterator@$0A@@?$list@U?$pair@$$CBV?$basic_string@DU?$char_traits@D@std@@V?$allocator@D@2@@std@@PAW4MissionTypes@@@std@@V?$allocator@U?$pair@$$CBV?$basic_string@DU?$char_traits@D@std@@V?$allocator@D@2@@std@@PAW4MissionTypes@@@std@@@2@@4@@Z ; stdext::_Hash<std::tr1::_Umap_traits<std::basic_string<char,std::char_traits<char>,std::allocator<char> >,enum MissionTypes *,stdext::_Hash_compare<std::basic_string<char,std::char_traits<char>,std::allocator<char> >,std::tr1::hash<std::basic_string<char,std::char_traits<char>,std::allocator<char> > >,std::equal_to<std::basic_string<char,std::char_traits<char>,std::allocator<char> > > >,std::allocator<std::pair<std::basic_string<char,std::char_traits<char>,std::allocator<char> > const ,enum MissionTypes *> >,0> >::_Insert
	mov	BYTE PTR __$EHRec$[ebp+8], 71		; 00000047H
	lea	ecx, DWORD PTR $T225770[ebp]
	call	DWORD PTR __imp_??1?$basic_string@DU?$char_traits@D@std@@V?$allocator@D@2@@std@@QAE@XZ
	mov	BYTE PTR __$EHRec$[ebp+8], 30		; 0000001eH
	lea	ecx, DWORD PTR $T225772[ebp]
	call	DWORD PTR __imp_??1?$basic_string@DU?$char_traits@D@std@@V?$allocator@D@2@@std@@QAE@XZ

; 188  : 		kMissionTypesLookupTable.insert(make_pair(std::string("MISSION_FOUND"), &s_eMISSION_FOUND));

	push	OFFSET ?s_eMISSION_FOUND@@3W4MissionTypes@@A ; s_eMISSION_FOUND
	sub	esp, 28					; 0000001cH
	mov	ecx, esp
	mov	DWORD PTR $T225775[ebp], esp
	push	OFFSET ??_C@_0O@NDMIPDIH@MISSION_FOUND?$AA@
	call	DWORD PTR __imp_??0?$basic_string@DU?$char_traits@D@std@@V?$allocator@D@2@@std@@QAE@PBD@Z
	mov	DWORD PTR tv3088[ebp], eax
	lea	eax, DWORD PTR $T225776[ebp]
	push	eax
	call	??$make_pair@V?$basic_string@DU?$char_traits@D@std@@V?$allocator@D@2@@std@@PAW4MissionTypes@@@std@@YA?AU?$pair@V?$basic_string@DU?$char_traits@D@std@@V?$allocator@D@2@@std@@PAW4MissionTypes@@@0@V?$basic_string@DU?$char_traits@D@std@@V?$allocator@D@2@@0@PAW4MissionTypes@@@Z ; std::make_pair<std::basic_string<char,std::char_traits<char>,std::allocator<char> >,enum MissionTypes *>
	add	esp, 36					; 00000024H
	mov	DWORD PTR tv3089[ebp], eax
	mov	ecx, DWORD PTR tv3089[ebp]
	mov	DWORD PTR $T228306[ebp], ecx
	mov	BYTE PTR __$EHRec$[ebp+8], 73		; 00000049H
	mov	edx, DWORD PTR $T228306[ebp]
	push	edx
	lea	ecx, DWORD PTR $T225774[ebp]
	call	DWORD PTR __imp_??0?$basic_string@DU?$char_traits@D@std@@V?$allocator@D@2@@std@@QAE@ABV01@@Z
	mov	eax, DWORD PTR $T228306[ebp]
	mov	ecx, DWORD PTR [eax+28]
	mov	DWORD PTR $T225774[ebp+28], ecx
	mov	BYTE PTR __$EHRec$[ebp+8], 74		; 0000004aH
	mov	edx, DWORD PTR _kMissionTypesLookupTable$220632[ebp+8]
	mov	DWORD PTR $T228319[ebp], edx
	mov	eax, DWORD PTR $T228319[ebp]
	mov	DWORD PTR $T228336[ebp], eax
	mov	ecx, DWORD PTR $T228336[ebp]
	push	ecx
	lea	edx, DWORD PTR $T225774[ebp]
	push	edx
	lea	eax, DWORD PTR $T225777[ebp]
	push	eax
	lea	ecx, DWORD PTR _kMissionTypesLookupTable$220632[ebp]
	call	?_Insert@?$_Hash@V?$_Umap_traits@V?$basic_string@DU?$char_traits@D@std@@V?$allocator@D@2@@std@@PAW4MissionTypes@@V?$_Hash_compare@V?$basic_string@DU?$char_traits@D@std@@V?$allocator@D@2@@std@@V?$hash@V?$basic_string@DU?$char_traits@D@std@@V?$allocator@D@2@@std@@@tr1@2@U?$equal_to@V?$basic_string@DU?$char_traits@D@std@@V?$allocator@D@2@@std@@@2@@stdext@@V?$allocator@U?$pair@$$CBV?$basic_string@DU?$char_traits@D@std@@V?$allocator@D@2@@std@@PAW4MissionTypes@@@std@@@2@$0A@@tr1@std@@@stdext@@IAE?AU?$pair@V?$_Iterator@$0A@@?$list@U?$pair@$$CBV?$basic_string@DU?$char_traits@D@std@@V?$allocator@D@2@@std@@PAW4MissionTypes@@@std@@V?$allocator@U?$pair@$$CBV?$basic_string@DU?$char_traits@D@std@@V?$allocator@D@2@@std@@PAW4MissionTypes@@@std@@@2@@std@@_N@std@@ABU?$pair@$$CBV?$basic_string@DU?$char_traits@D@std@@V?$allocator@D@2@@std@@PAW4MissionTypes@@@4@V?$_Iterator@$0A@@?$list@U?$pair@$$CBV?$basic_string@DU?$char_traits@D@std@@V?$allocator@D@2@@std@@PAW4MissionTypes@@@std@@V?$allocator@U?$pair@$$CBV?$basic_string@DU?$char_traits@D@std@@V?$allocator@D@2@@std@@PAW4MissionTypes@@@std@@@2@@4@@Z ; stdext::_Hash<std::tr1::_Umap_traits<std::basic_string<char,std::char_traits<char>,std::allocator<char> >,enum MissionTypes *,stdext::_Hash_compare<std::basic_string<char,std::char_traits<char>,std::allocator<char> >,std::tr1::hash<std::basic_string<char,std::char_traits<char>,std::allocator<char> > >,std::equal_to<std::basic_string<char,std::char_traits<char>,std::allocator<char> > > >,std::allocator<std::pair<std::basic_string<char,std::char_traits<char>,std::allocator<char> > const ,enum MissionTypes *> >,0> >::_Insert
	mov	BYTE PTR __$EHRec$[ebp+8], 73		; 00000049H
	lea	ecx, DWORD PTR $T225774[ebp]
	call	DWORD PTR __imp_??1?$basic_string@DU?$char_traits@D@std@@V?$allocator@D@2@@std@@QAE@XZ
	mov	BYTE PTR __$EHRec$[ebp+8], 30		; 0000001eH
	lea	ecx, DWORD PTR $T225776[ebp]
	call	DWORD PTR __imp_??1?$basic_string@DU?$char_traits@D@std@@V?$allocator@D@2@@std@@QAE@XZ

; 189  : 		kMissionTypesLookupTable.insert(make_pair(std::string("MISSION_JOIN"), &s_eMISSION_JOIN));

	push	OFFSET ?s_eMISSION_JOIN@@3W4MissionTypes@@A ; s_eMISSION_JOIN
	sub	esp, 28					; 0000001cH
	mov	ecx, esp
	mov	DWORD PTR $T225779[ebp], esp
	push	OFFSET ??_C@_0N@LPHKEOPL@MISSION_JOIN?$AA@
	call	DWORD PTR __imp_??0?$basic_string@DU?$char_traits@D@std@@V?$allocator@D@2@@std@@QAE@PBD@Z
	mov	DWORD PTR tv3095[ebp], eax
	lea	ecx, DWORD PTR $T225780[ebp]
	push	ecx
	call	??$make_pair@V?$basic_string@DU?$char_traits@D@std@@V?$allocator@D@2@@std@@PAW4MissionTypes@@@std@@YA?AU?$pair@V?$basic_string@DU?$char_traits@D@std@@V?$allocator@D@2@@std@@PAW4MissionTypes@@@0@V?$basic_string@DU?$char_traits@D@std@@V?$allocator@D@2@@0@PAW4MissionTypes@@@Z ; std::make_pair<std::basic_string<char,std::char_traits<char>,std::allocator<char> >,enum MissionTypes *>
	add	esp, 36					; 00000024H
	mov	DWORD PTR tv3096[ebp], eax
	mov	edx, DWORD PTR tv3096[ebp]
	mov	DWORD PTR $T228357[ebp], edx
	mov	BYTE PTR __$EHRec$[ebp+8], 75		; 0000004bH
	mov	eax, DWORD PTR $T228357[ebp]
	push	eax
	lea	ecx, DWORD PTR $T225778[ebp]
	call	DWORD PTR __imp_??0?$basic_string@DU?$char_traits@D@std@@V?$allocator@D@2@@std@@QAE@ABV01@@Z
	mov	ecx, DWORD PTR $T228357[ebp]
	mov	edx, DWORD PTR [ecx+28]
	mov	DWORD PTR $T225778[ebp+28], edx
	mov	BYTE PTR __$EHRec$[ebp+8], 76		; 0000004cH
	mov	eax, DWORD PTR _kMissionTypesLookupTable$220632[ebp+8]
	mov	DWORD PTR $T228370[ebp], eax
	mov	ecx, DWORD PTR $T228370[ebp]
	mov	DWORD PTR $T228386[ebp], ecx
	mov	edx, DWORD PTR $T228386[ebp]
	push	edx
	lea	eax, DWORD PTR $T225778[ebp]
	push	eax
	lea	ecx, DWORD PTR $T225781[ebp]
	push	ecx
	lea	ecx, DWORD PTR _kMissionTypesLookupTable$220632[ebp]
	call	?_Insert@?$_Hash@V?$_Umap_traits@V?$basic_string@DU?$char_traits@D@std@@V?$allocator@D@2@@std@@PAW4MissionTypes@@V?$_Hash_compare@V?$basic_string@DU?$char_traits@D@std@@V?$allocator@D@2@@std@@V?$hash@V?$basic_string@DU?$char_traits@D@std@@V?$allocator@D@2@@std@@@tr1@2@U?$equal_to@V?$basic_string@DU?$char_traits@D@std@@V?$allocator@D@2@@std@@@2@@stdext@@V?$allocator@U?$pair@$$CBV?$basic_string@DU?$char_traits@D@std@@V?$allocator@D@2@@std@@PAW4MissionTypes@@@std@@@2@$0A@@tr1@std@@@stdext@@IAE?AU?$pair@V?$_Iterator@$0A@@?$list@U?$pair@$$CBV?$basic_string@DU?$char_traits@D@std@@V?$allocator@D@2@@std@@PAW4MissionTypes@@@std@@V?$allocator@U?$pair@$$CBV?$basic_string@DU?$char_traits@D@std@@V?$allocator@D@2@@std@@PAW4MissionTypes@@@std@@@2@@std@@_N@std@@ABU?$pair@$$CBV?$basic_string@DU?$char_traits@D@std@@V?$allocator@D@2@@std@@PAW4MissionTypes@@@4@V?$_Iterator@$0A@@?$list@U?$pair@$$CBV?$basic_string@DU?$char_traits@D@std@@V?$allocator@D@2@@std@@PAW4MissionTypes@@@std@@V?$allocator@U?$pair@$$CBV?$basic_string@DU?$char_traits@D@std@@V?$allocator@D@2@@std@@PAW4MissionTypes@@@std@@@2@@4@@Z ; stdext::_Hash<std::tr1::_Umap_traits<std::basic_string<char,std::char_traits<char>,std::allocator<char> >,enum MissionTypes *,stdext::_Hash_compare<std::basic_string<char,std::char_traits<char>,std::allocator<char> >,std::tr1::hash<std::basic_string<char,std::char_traits<char>,std::allocator<char> > >,std::equal_to<std::basic_string<char,std::char_traits<char>,std::allocator<char> > > >,std::allocator<std::pair<std::basic_string<char,std::char_traits<char>,std::allocator<char> > const ,enum MissionTypes *> >,0> >::_Insert
	mov	BYTE PTR __$EHRec$[ebp+8], 75		; 0000004bH
	lea	ecx, DWORD PTR $T225778[ebp]
	call	DWORD PTR __imp_??1?$basic_string@DU?$char_traits@D@std@@V?$allocator@D@2@@std@@QAE@XZ
	mov	BYTE PTR __$EHRec$[ebp+8], 30		; 0000001eH
	lea	ecx, DWORD PTR $T225780[ebp]
	call	DWORD PTR __imp_??1?$basic_string@DU?$char_traits@D@std@@V?$allocator@D@2@@std@@QAE@XZ

; 190  : 		kMissionTypesLookupTable.insert(make_pair(std::string("MISSION_CONSTRUCT"), &s_eMISSION_CONSTRUCT));

	push	OFFSET ?s_eMISSION_CONSTRUCT@@3W4MissionTypes@@A ; s_eMISSION_CONSTRUCT
	sub	esp, 28					; 0000001cH
	mov	ecx, esp
	mov	DWORD PTR $T225783[ebp], esp
	push	OFFSET ??_C@_0BC@LNJEMHN@MISSION_CONSTRUCT?$AA@
	call	DWORD PTR __imp_??0?$basic_string@DU?$char_traits@D@std@@V?$allocator@D@2@@std@@QAE@PBD@Z
	mov	DWORD PTR tv3102[ebp], eax
	lea	edx, DWORD PTR $T225784[ebp]
	push	edx
	call	??$make_pair@V?$basic_string@DU?$char_traits@D@std@@V?$allocator@D@2@@std@@PAW4MissionTypes@@@std@@YA?AU?$pair@V?$basic_string@DU?$char_traits@D@std@@V?$allocator@D@2@@std@@PAW4MissionTypes@@@0@V?$basic_string@DU?$char_traits@D@std@@V?$allocator@D@2@@0@PAW4MissionTypes@@@Z ; std::make_pair<std::basic_string<char,std::char_traits<char>,std::allocator<char> >,enum MissionTypes *>
	add	esp, 36					; 00000024H
	mov	DWORD PTR tv3103[ebp], eax
	mov	eax, DWORD PTR tv3103[ebp]
	mov	DWORD PTR $T228408[ebp], eax
	mov	BYTE PTR __$EHRec$[ebp+8], 77		; 0000004dH
	mov	ecx, DWORD PTR $T228408[ebp]
	push	ecx
	lea	ecx, DWORD PTR $T225782[ebp]
	call	DWORD PTR __imp_??0?$basic_string@DU?$char_traits@D@std@@V?$allocator@D@2@@std@@QAE@ABV01@@Z
	mov	edx, DWORD PTR $T228408[ebp]
	mov	eax, DWORD PTR [edx+28]
	mov	DWORD PTR $T225782[ebp+28], eax
	mov	BYTE PTR __$EHRec$[ebp+8], 78		; 0000004eH
	mov	ecx, DWORD PTR _kMissionTypesLookupTable$220632[ebp+8]
	mov	DWORD PTR $T228421[ebp], ecx
	mov	edx, DWORD PTR $T228421[ebp]
	mov	DWORD PTR $T228437[ebp], edx
	mov	eax, DWORD PTR $T228437[ebp]
	push	eax
	lea	ecx, DWORD PTR $T225782[ebp]
	push	ecx
	lea	edx, DWORD PTR $T225785[ebp]
	push	edx
	lea	ecx, DWORD PTR _kMissionTypesLookupTable$220632[ebp]
	call	?_Insert@?$_Hash@V?$_Umap_traits@V?$basic_string@DU?$char_traits@D@std@@V?$allocator@D@2@@std@@PAW4MissionTypes@@V?$_Hash_compare@V?$basic_string@DU?$char_traits@D@std@@V?$allocator@D@2@@std@@V?$hash@V?$basic_string@DU?$char_traits@D@std@@V?$allocator@D@2@@std@@@tr1@2@U?$equal_to@V?$basic_string@DU?$char_traits@D@std@@V?$allocator@D@2@@std@@@2@@stdext@@V?$allocator@U?$pair@$$CBV?$basic_string@DU?$char_traits@D@std@@V?$allocator@D@2@@std@@PAW4MissionTypes@@@std@@@2@$0A@@tr1@std@@@stdext@@IAE?AU?$pair@V?$_Iterator@$0A@@?$list@U?$pair@$$CBV?$basic_string@DU?$char_traits@D@std@@V?$allocator@D@2@@std@@PAW4MissionTypes@@@std@@V?$allocator@U?$pair@$$CBV?$basic_string@DU?$char_traits@D@std@@V?$allocator@D@2@@std@@PAW4MissionTypes@@@std@@@2@@std@@_N@std@@ABU?$pair@$$CBV?$basic_string@DU?$char_traits@D@std@@V?$allocator@D@2@@std@@PAW4MissionTypes@@@4@V?$_Iterator@$0A@@?$list@U?$pair@$$CBV?$basic_string@DU?$char_traits@D@std@@V?$allocator@D@2@@std@@PAW4MissionTypes@@@std@@V?$allocator@U?$pair@$$CBV?$basic_string@DU?$char_traits@D@std@@V?$allocator@D@2@@std@@PAW4MissionTypes@@@std@@@2@@4@@Z ; stdext::_Hash<std::tr1::_Umap_traits<std::basic_string<char,std::char_traits<char>,std::allocator<char> >,enum MissionTypes *,stdext::_Hash_compare<std::basic_string<char,std::char_traits<char>,std::allocator<char> >,std::tr1::hash<std::basic_string<char,std::char_traits<char>,std::allocator<char> > >,std::equal_to<std::basic_string<char,std::char_traits<char>,std::allocator<char> > > >,std::allocator<std::pair<std::basic_string<char,std::char_traits<char>,std::allocator<char> > const ,enum MissionTypes *> >,0> >::_Insert
	mov	BYTE PTR __$EHRec$[ebp+8], 77		; 0000004dH
	lea	ecx, DWORD PTR $T225782[ebp]
	call	DWORD PTR __imp_??1?$basic_string@DU?$char_traits@D@std@@V?$allocator@D@2@@std@@QAE@XZ
	mov	BYTE PTR __$EHRec$[ebp+8], 30		; 0000001eH
	lea	ecx, DWORD PTR $T225784[ebp]
	call	DWORD PTR __imp_??1?$basic_string@DU?$char_traits@D@std@@V?$allocator@D@2@@std@@QAE@XZ

; 191  : 		kMissionTypesLookupTable.insert(make_pair(std::string("MISSION_DISCOVER"), &s_eMISSION_DISCOVER));

	push	OFFSET ?s_eMISSION_DISCOVER@@3W4MissionTypes@@A ; s_eMISSION_DISCOVER
	sub	esp, 28					; 0000001cH
	mov	ecx, esp
	mov	DWORD PTR $T225787[ebp], esp
	push	OFFSET ??_C@_0BB@BOOJODFN@MISSION_DISCOVER?$AA@
	call	DWORD PTR __imp_??0?$basic_string@DU?$char_traits@D@std@@V?$allocator@D@2@@std@@QAE@PBD@Z
	mov	DWORD PTR tv3109[ebp], eax
	lea	eax, DWORD PTR $T225788[ebp]
	push	eax
	call	??$make_pair@V?$basic_string@DU?$char_traits@D@std@@V?$allocator@D@2@@std@@PAW4MissionTypes@@@std@@YA?AU?$pair@V?$basic_string@DU?$char_traits@D@std@@V?$allocator@D@2@@std@@PAW4MissionTypes@@@0@V?$basic_string@DU?$char_traits@D@std@@V?$allocator@D@2@@0@PAW4MissionTypes@@@Z ; std::make_pair<std::basic_string<char,std::char_traits<char>,std::allocator<char> >,enum MissionTypes *>
	add	esp, 36					; 00000024H
	mov	DWORD PTR tv3110[ebp], eax
	mov	ecx, DWORD PTR tv3110[ebp]
	mov	DWORD PTR $T228459[ebp], ecx
	mov	BYTE PTR __$EHRec$[ebp+8], 79		; 0000004fH
	mov	edx, DWORD PTR $T228459[ebp]
	push	edx
	lea	ecx, DWORD PTR $T225786[ebp]
	call	DWORD PTR __imp_??0?$basic_string@DU?$char_traits@D@std@@V?$allocator@D@2@@std@@QAE@ABV01@@Z
	mov	eax, DWORD PTR $T228459[ebp]
	mov	ecx, DWORD PTR [eax+28]
	mov	DWORD PTR $T225786[ebp+28], ecx
	mov	BYTE PTR __$EHRec$[ebp+8], 80		; 00000050H
	mov	edx, DWORD PTR _kMissionTypesLookupTable$220632[ebp+8]
	mov	DWORD PTR $T228472[ebp], edx
	mov	eax, DWORD PTR $T228472[ebp]
	mov	DWORD PTR $T228488[ebp], eax
	mov	ecx, DWORD PTR $T228488[ebp]
	push	ecx
	lea	edx, DWORD PTR $T225786[ebp]
	push	edx
	lea	eax, DWORD PTR $T225789[ebp]
	push	eax
	lea	ecx, DWORD PTR _kMissionTypesLookupTable$220632[ebp]
