; Listing generated by Microsoft (R) Optimizing Compiler Version 15.00.30729.01 

	TITLE	D:\sources\Lekmod_git\checkout\LEKMOD_DLL\CvGameCoreDLL_Expansion2\CvUnitMission.cpp
	.686P
	.XMM
	include listing.inc
	.model	flat

INCLUDELIB MSVCRT
INCLUDELIB OLDNAMES

PUBLIC	??1?$FObjectHandle@VCvUnit@@@@QAE@XZ		; FObjectHandle<CvUnit>::~FObjectHandle<CvUnit>
PUBLIC	?StartMission@CvUnitMission@@SAXV?$FObjectHandle@VCvUnit@@@@@Z ; CvUnitMission::StartMission
PUBLIC	?ContinueMission@CvUnitMission@@SAXV?$FObjectHandle@VCvUnit@@@@HH@Z ; CvUnitMission::ContinueMission
PUBLIC	?HeadMissionQueueNode@CvUnitMission@@CAPAUMissionData@@AAV?$FFastSmallFixedList@UMissionData@@$0M@$00$0BCJ@$0A@@@@Z ; CvUnitMission::HeadMissionQueueNode
PUBLIC	?AutoMission@CvUnitMission@@SAXV?$FObjectHandle@VCvUnit@@@@@Z ; CvUnitMission::AutoMission
EXTRN	?doDelayedDeath@CvUnit@@QAE_NXZ:PROC		; CvUnit::doDelayedDeath
EXTRN	?getDestructionNotification@CvUnit@@QAEAAU?$DestructionNotification@V?$FObjectHandle@VCvUnit@@@@@@XZ:PROC ; CvUnit::getDestructionNotification
EXTRN	?GetActivityType@CvUnit@@QBE?AW4ActivityTypes@@XZ:PROC ; CvUnit::GetActivityType
EXTRN	?SetIgnoreDangerWakeup@CvUnit@@QAEX_N@Z:PROC	; CvUnit::SetIgnoreDangerWakeup
EXTRN	?ClearMissionQueue@CvUnit@@QAEXH@Z:PROC		; CvUnit::ClearMissionQueue
EXTRN	?IsPlotUnderImmediateThreat@CvPlayer@@QBE_NAAVCvPlot@@@Z:PROC ; CvPlayer::IsPlotUnderImmediateThreat
EXTRN	?m_aPlayers@CvPlayerAI@@1PAV1@A:DWORD		; CvPlayerAI::m_aPlayers
EXTRN	?IsIgnoringDangerWakeup@CvUnit@@QBE_NXZ:PROC	; CvUnit::IsIgnoringDangerWakeup
EXTRN	?getNumDefenders@CvPlot@@QBEHW4PlayerTypes@@@Z:PROC ; CvPlot::getNumDefenders
EXTRN	?plot@CvUnit@@QBEPAVCvPlot@@XZ:PROC		; CvUnit::plot
EXTRN	?getMISSION_BUILD@CvTypes@@YA?BW4MissionTypes@@XZ:PROC ; CvTypes::getMISSION_BUILD
EXTRN	?isDelayedDeath@CvUnit@@QBE_NXZ:PROC		; CvUnit::isDelayedDeath
EXTRN	?IsBusy@CvUnit@@QBE_NXZ:PROC			; CvUnit::IsBusy
EXTRN	___security_cookie:DWORD
EXTRN	___CxxFrameHandler3:PROC
EXTRN	@__security_check_cookie@4:PROC
;	COMDAT xdata$x
; File d:\sources\lekmod_git\checkout\lekmod_dll\fireplace\include\fireworks\fobjecthandle.h
xdata$x	SEGMENT
__unwindtable$?AutoMission@CvUnitMission@@SAXV?$FObjectHandle@VCvUnit@@@@@Z DD 0ffffffffH
	DD	FLAT:__unwindfunclet$?AutoMission@CvUnitMission@@SAXV?$FObjectHandle@VCvUnit@@@@@Z$0
__ehfuncinfo$?AutoMission@CvUnitMission@@SAXV?$FObjectHandle@VCvUnit@@@@@Z DD 019930522H
	DD	01H
	DD	FLAT:__unwindtable$?AutoMission@CvUnitMission@@SAXV?$FObjectHandle@VCvUnit@@@@@Z
	DD	2 DUP(00H)
	DD	2 DUP(00H)
	DD	00H
	DD	01H
; Function compile flags: /Odtp
; File d:\sources\lekmod_git\checkout\lekmod_dll\cvgamecoredll_expansion2\cvunitmission.cpp
xdata$x	ENDS
;	COMDAT ?AutoMission@CvUnitMission@@SAXV?$FObjectHandle@VCvUnit@@@@@Z
_TEXT	SEGMENT
tv216 = -96						; size = 4
tv214 = -92						; size = 4
$T219052 = -88						; size = 4
$T219042 = -84						; size = 4
$T219032 = -80						; size = 4
$T219022 = -76						; size = 4
$T219018 = -72						; size = 4
$T219009 = -68						; size = 4
$T219005 = -64						; size = 4
$T218993 = -60						; size = 4
$T218989 = -56						; size = 4
$T218985 = -52						; size = 4
$T218981 = -48						; size = 4
$T218972 = -44						; size = 4
$T218968 = -40						; size = 4
$T218964 = -36						; size = 4
$T218960 = -32						; size = 4
$T218953 = -28						; size = 4
$T218952 = -24						; size = 4
_bEscortedBuilder$217474 = -17				; size = 1
_pkMissionNode$ = -16					; size = 4
__$EHRec$ = -12						; size = 12
_hUnit$ = 8						; size = 8
?AutoMission@CvUnitMission@@SAXV?$FObjectHandle@VCvUnit@@@@@Z PROC ; CvUnitMission::AutoMission, COMDAT

; 38   : {

	push	ebp
	mov	ebp, esp
	push	-1
	push	__ehhandler$?AutoMission@CvUnitMission@@SAXV?$FObjectHandle@VCvUnit@@@@@Z
	mov	eax, DWORD PTR fs:0
	push	eax
	sub	esp, 84					; 00000054H
	mov	eax, DWORD PTR ___security_cookie
	xor	eax, ebp
	push	eax
	lea	eax, DWORD PTR __$EHRec$[ebp]
	mov	DWORD PTR fs:0, eax
	mov	DWORD PTR __$EHRec$[ebp+8], 0

; 39   : 	CvAssert(hUnit->getOwner() != NO_PLAYER);
; 40   : 
; 41   : 	const MissionQueueNode* pkMissionNode = HeadMissionQueueNode(hUnit->m_missionQueue);

	mov	eax, DWORD PTR _hUnit$[ebp]
	mov	DWORD PTR $T218960[ebp], eax
	mov	ecx, DWORD PTR $T218960[ebp]
	add	ecx, 2600				; 00000a28H
	push	ecx
	call	?HeadMissionQueueNode@CvUnitMission@@CAPAUMissionData@@AAV?$FFastSmallFixedList@UMissionData@@$0M@$00$0BCJ@$0A@@@@Z ; CvUnitMission::HeadMissionQueueNode
	add	esp, 4
	mov	DWORD PTR _pkMissionNode$[ebp], eax

; 42   : 	if(pkMissionNode != NULL)

	cmp	DWORD PTR _pkMissionNode$[ebp], 0
	je	$LN8@AutoMissio

; 43   : 	{
; 44   : 		if(!hUnit->IsBusy() && !hUnit->isDelayedDeath())

	mov	edx, DWORD PTR _hUnit$[ebp]
	mov	DWORD PTR $T218964[ebp], edx
	mov	ecx, DWORD PTR $T218964[ebp]
	call	?IsBusy@CvUnit@@QBE_NXZ			; CvUnit::IsBusy
	movzx	eax, al
	test	eax, eax
	jne	$LN8@AutoMissio
	mov	ecx, DWORD PTR _hUnit$[ebp]
	mov	DWORD PTR $T218968[ebp], ecx
	mov	ecx, DWORD PTR $T218968[ebp]
	call	?isDelayedDeath@CvUnit@@QBE_NXZ		; CvUnit::isDelayedDeath
	movzx	edx, al
	test	edx, edx
	jne	$LN8@AutoMissio

; 45   : 		{
; 46   : 			// Builders which are being escorted shouldn't wake up every turn... this is annoying!
; 47   : 			bool bEscortedBuilder = false;

	mov	BYTE PTR _bEscortedBuilder$217474[ebp], 0

; 48   : 			if(pkMissionNode->eMissionType == CvTypes::getMISSION_BUILD())

	call	?getMISSION_BUILD@CvTypes@@YA?BW4MissionTypes@@XZ ; CvTypes::getMISSION_BUILD
	mov	ecx, DWORD PTR _pkMissionNode$[ebp]
	cmp	DWORD PTR [ecx], eax
	jne	SHORT $LN6@AutoMissio

; 49   : 			{
; 50   : 				if(hUnit->plot()->getNumDefenders(hUnit->getOwner()) > 0)

	mov	edx, DWORD PTR _hUnit$[ebp]
	mov	DWORD PTR $T218972[ebp], edx
	mov	eax, DWORD PTR $T218972[ebp]
	mov	ecx, DWORD PTR [eax+40]
	mov	DWORD PTR $T218981[ebp], ecx
	mov	edx, DWORD PTR _hUnit$[ebp]
	mov	DWORD PTR $T218985[ebp], edx
	mov	eax, DWORD PTR $T218981[ebp]
	push	eax
	mov	ecx, DWORD PTR $T218985[ebp]
	call	?plot@CvUnit@@QBEPAVCvPlot@@XZ		; CvUnit::plot
	mov	ecx, eax
	call	?getNumDefenders@CvPlot@@QBEHW4PlayerTypes@@@Z ; CvPlot::getNumDefenders
	test	eax, eax
	jle	SHORT $LN6@AutoMissio

; 51   : 				{
; 52   : 					bEscortedBuilder = true;

	mov	BYTE PTR _bEscortedBuilder$217474[ebp], 1
$LN6@AutoMissio:

; 53   : 				}
; 54   : 			}
; 55   : 
; 56   : 			if(!bEscortedBuilder && !hUnit->IsIgnoringDangerWakeup() && !hUnit->IsCombatUnit() && GET_PLAYER(hUnit->getOwner()).IsPlotUnderImmediateThreat(*(hUnit->plot())))

	movzx	ecx, BYTE PTR _bEscortedBuilder$217474[ebp]
	test	ecx, ecx
	jne	$LN4@AutoMissio
	mov	edx, DWORD PTR _hUnit$[ebp]
	mov	DWORD PTR $T218989[ebp], edx
	mov	ecx, DWORD PTR $T218989[ebp]
	call	?IsIgnoringDangerWakeup@CvUnit@@QBE_NXZ	; CvUnit::IsIgnoringDangerWakeup
	movzx	eax, al
	test	eax, eax
	jne	SHORT $LN4@AutoMissio
	mov	ecx, DWORD PTR _hUnit$[ebp]
	mov	DWORD PTR $T218993[ebp], ecx
	mov	edx, DWORD PTR $T218993[ebp]
	xor	eax, eax
	cmp	DWORD PTR [edx+1044], 0
	setg	al
	movzx	ecx, al
	test	ecx, ecx
	jne	SHORT $LN4@AutoMissio
	mov	edx, DWORD PTR _hUnit$[ebp]
	mov	DWORD PTR $T219005[ebp], edx
	mov	eax, DWORD PTR _hUnit$[ebp]
	mov	DWORD PTR $T219009[ebp], eax
	mov	ecx, DWORD PTR $T219009[ebp]
	mov	edx, DWORD PTR [ecx+40]
	mov	DWORD PTR $T219018[ebp], edx
	mov	eax, DWORD PTR $T219018[ebp]
	imul	eax, 63236				; 0000f704H
	add	eax, DWORD PTR ?m_aPlayers@CvPlayerAI@@1PAV1@A ; CvPlayerAI::m_aPlayers
	mov	DWORD PTR $T219022[ebp], eax
	mov	ecx, DWORD PTR $T219005[ebp]
	call	?plot@CvUnit@@QBEPAVCvPlot@@XZ		; CvUnit::plot
	push	eax
	mov	ecx, DWORD PTR $T219022[ebp]
	call	?IsPlotUnderImmediateThreat@CvPlayer@@QBE_NAAVCvPlot@@@Z ; CvPlayer::IsPlotUnderImmediateThreat
	movzx	ecx, al
	test	ecx, ecx
	je	SHORT $LN4@AutoMissio

; 57   : 			{
; 58   : 				hUnit->ClearMissionQueue();

	push	1
	mov	ecx, DWORD PTR _hUnit$[ebp]
	call	?ClearMissionQueue@CvUnit@@QAEXH@Z	; CvUnit::ClearMissionQueue

; 59   : 				hUnit->SetIgnoreDangerWakeup(true);

	push	1
	mov	ecx, DWORD PTR _hUnit$[ebp]
	call	?SetIgnoreDangerWakeup@CvUnit@@QAEX_N@Z	; CvUnit::SetIgnoreDangerWakeup

; 60   : 			}
; 61   : 			else

	jmp	$LN8@AutoMissio
$LN4@AutoMissio:

; 62   : 			{
; 63   : 				if(hUnit->GetActivityType() == ACTIVITY_MISSION)

	mov	edx, DWORD PTR _hUnit$[ebp]
	mov	DWORD PTR $T219032[ebp], edx
	mov	ecx, DWORD PTR $T219032[ebp]
	call	?GetActivityType@CvUnit@@QBE?AW4ActivityTypes@@XZ ; CvUnit::GetActivityType
	cmp	eax, 6
	jne	SHORT $LN2@AutoMissio

; 64   : 				{
; 65   : 					ContinueMission(hUnit);

	push	-1
	push	0
	sub	esp, 8
	mov	eax, esp
	mov	DWORD PTR $T218952[ebp], esp
	mov	DWORD PTR $T219042[ebp], eax
	mov	ecx, DWORD PTR $T219042[ebp]
	mov	edx, DWORD PTR _hUnit$[ebp]
	mov	DWORD PTR [ecx], edx
	mov	eax, DWORD PTR $T219042[ebp]
	mov	cl, BYTE PTR _hUnit$[ebp+4]
	mov	BYTE PTR [eax+4], cl
	mov	edx, DWORD PTR $T219042[ebp]
	cmp	DWORD PTR [edx], 0
	je	SHORT $LN53@AutoMissio
	mov	eax, DWORD PTR $T219042[ebp]
	mov	ecx, DWORD PTR [eax]
	call	?getDestructionNotification@CvUnit@@QAEAAU?$DestructionNotification@V?$FObjectHandle@VCvUnit@@@@@@XZ ; CvUnit::getDestructionNotification
$LN53@AutoMissio:
	mov	ecx, DWORD PTR $T219042[ebp]
	mov	DWORD PTR tv214[ebp], ecx
	call	?ContinueMission@CvUnitMission@@SAXV?$FObjectHandle@VCvUnit@@@@HH@Z ; CvUnitMission::ContinueMission
	add	esp, 16					; 00000010H

; 66   : 				}
; 67   : 				else

	jmp	SHORT $LN8@AutoMissio
$LN2@AutoMissio:

; 68   : 				{
; 69   : 					StartMission(hUnit);

	sub	esp, 8
	mov	edx, esp
	mov	DWORD PTR $T218953[ebp], esp
	mov	DWORD PTR $T219052[ebp], edx
	mov	eax, DWORD PTR $T219052[ebp]
	mov	ecx, DWORD PTR _hUnit$[ebp]
	mov	DWORD PTR [eax], ecx
	mov	edx, DWORD PTR $T219052[ebp]
	mov	al, BYTE PTR _hUnit$[ebp+4]
	mov	BYTE PTR [edx+4], al
	mov	ecx, DWORD PTR $T219052[ebp]
	cmp	DWORD PTR [ecx], 0
	je	SHORT $LN58@AutoMissio
	mov	edx, DWORD PTR $T219052[ebp]
	mov	ecx, DWORD PTR [edx]
	call	?getDestructionNotification@CvUnit@@QAEAAU?$DestructionNotification@V?$FObjectHandle@VCvUnit@@@@@@XZ ; CvUnit::getDestructionNotification
$LN58@AutoMissio:
	mov	eax, DWORD PTR $T219052[ebp]
	mov	DWORD PTR tv216[ebp], eax
	call	?StartMission@CvUnitMission@@SAXV?$FObjectHandle@VCvUnit@@@@@Z ; CvUnitMission::StartMission
	add	esp, 8
$LN8@AutoMissio:

; 70   : 				}
; 71   : 			}
; 72   : 		}
; 73   : 	}
; 74   : 
; 75   : 	hUnit.ignoreDestruction(true);

	mov	BYTE PTR _hUnit$[ebp+4], 1

; 76   : 	hUnit->doDelayedDeath();

	mov	ecx, DWORD PTR _hUnit$[ebp]
	call	?doDelayedDeath@CvUnit@@QAE_NXZ		; CvUnit::doDelayedDeath

; 77   : }

	mov	DWORD PTR __$EHRec$[ebp+8], -1
	cmp	DWORD PTR _hUnit$[ebp], 0
	je	SHORT $LN9@AutoMissio
	mov	ecx, DWORD PTR _hUnit$[ebp]
	call	?getDestructionNotification@CvUnit@@QAEAAU?$DestructionNotification@V?$FObjectHandle@VCvUnit@@@@@@XZ ; CvUnit::getDestructionNotification
$LN9@AutoMissio:
	mov	ecx, DWORD PTR __$EHRec$[ebp]
	mov	DWORD PTR fs:0, ecx
	pop	ecx
	mov	esp, ebp
	pop	ebp
	ret	0
_TEXT	ENDS
;	COMDAT text$x
text$x	SEGMENT
__unwindfunclet$?AutoMission@CvUnitMission@@SAXV?$FObjectHandle@VCvUnit@@@@@Z$0:
	lea	ecx, DWORD PTR _hUnit$[ebp]
	jmp	??1?$FObjectHandle@VCvUnit@@@@QAE@XZ	; FObjectHandle<CvUnit>::~FObjectHandle<CvUnit>
__ehhandler$?AutoMission@CvUnitMission@@SAXV?$FObjectHandle@VCvUnit@@@@@Z:
	mov	edx, DWORD PTR [esp+8]
	lea	eax, DWORD PTR [edx+12]
	mov	ecx, DWORD PTR [edx-88]
	xor	ecx, eax
	call	@__security_check_cookie@4
	mov	eax, OFFSET __ehfuncinfo$?AutoMission@CvUnitMission@@SAXV?$FObjectHandle@VCvUnit@@@@@Z
	jmp	___CxxFrameHandler3
text$x	ENDS
?AutoMission@CvUnitMission@@SAXV?$FObjectHandle@VCvUnit@@@@@Z ENDP ; CvUnitMission::AutoMission
PUBLIC	??_C@_0BA@EMOAFIAA@FEATURE_FALLOUT?$AA@		; `string'
PUBLIC	??_C@_0O@CEOMGFD@FEATURE_MARSH?$AA@		; `string'
PUBLIC	??_C@_0P@FPOMJJFM@FEATURE_JUNGLE?$AA@		; `string'
PUBLIC	?InsertAtEndMissionQueue@CvUnitMission@@CAXV?$FObjectHandle@VCvUnit@@@@UMissionData@@_N@Z ; CvUnitMission::InsertAtEndMissionQueue
PUBLIC	??_C@_0P@HBLLKHIA@FEATURE_FOREST?$AA@		; `string'
PUBLIC	??_C@_0GJ@FFAHDLIK@?$CK?$CK?$CK?5PROTOCOL?5ERROR?5?$CK?$CK?$CK?5?3?5PushMis@ ; `string'
PUBLIC	?PushMission@CvUnitMission@@SAXV?$FObjectHandle@VCvUnit@@@@W4MissionTypes@@HHH_N2W4MissionAITypes@@PAVCvPlot@@PAVCvUnit@@@Z ; CvUnitMission::PushMission
EXTRN	?PlayActionSound@CvUnit@@QAEXXZ:PROC		; CvUnit::PlayActionSound
EXTRN	?isSound@CvMissionInfo@@QBE_NXZ:PROC		; CvMissionInfo::isSound
EXTRN	?getMissionInfo@CvGlobals@@QAEPAVCvMissionInfo@@W4MissionTypes@@@Z:PROC ; CvGlobals::getMissionInfo
EXTRN	?getActivePlayer@CvGame@@QBE?AW4PlayerTypes@@XZ:PROC ; CvGame::getActivePlayer
EXTRN	?changeNumResourceUsed@CvPlayer@@QAEXW4ResourceTypes@@H@Z:PROC ; CvPlayer::changeNumResourceUsed
EXTRN	?getResourceQuantityRequirement@CvRouteInfo@@QBEHH@Z:PROC ; CvRouteInfo::getResourceQuantityRequirement
EXTRN	?getRouteInfo@CvGlobals@@QAEPAVCvRouteInfo@@W4RouteTypes@@@Z:PROC ; CvGlobals::getRouteInfo
EXTRN	?GetResourceQuantityRequirement@CvImprovementEntry@@QBEHH@Z:PROC ; CvImprovementEntry::GetResourceQuantityRequirement
EXTRN	?getImprovementInfo@CvGlobals@@QAEPAVCvImprovementEntry@@W4ImprovementTypes@@@Z:PROC ; CvGlobals::getImprovementInfo
EXTRN	?getNumResourceInfos@CvGlobals@@QAEHXZ:PROC	; CvGlobals::getNumResourceInfos
EXTRN	?getRoute@CvBuildInfo@@QBEHXZ:PROC		; CvBuildInfo::getRoute
EXTRN	?getImprovement@CvBuildInfo@@QBEHXZ:PROC	; CvBuildInfo::getImprovement
EXTRN	?SetMissionAI@CvUnit@@QAEXW4MissionAITypes@@PAVCvPlot@@PAV1@@Z:PROC ; CvUnit::SetMissionAI
EXTRN	?getGameTurn@CvGame@@QAEHXZ:PROC		; CvGame::getGameTurn
EXTRN	__imp_?c_str@?$basic_string@DU?$char_traits@D@std@@V?$allocator@D@2@@std@@QBEPBDXZ:PROC
EXTRN	?getFeatureInfo@CvGlobals@@QAEPAVCvFeatureInfo@@W4FeatureTypes@@@Z:PROC ; CvGlobals::getFeatureInfo
EXTRN	?getFeatureTime@CvBuildInfo@@QBEHH@Z:PROC	; CvBuildInfo::getFeatureTime
EXTRN	?isFeatureRemove@CvBuildInfo@@QBE_NH@Z:PROC	; CvBuildInfo::isFeatureRemove
EXTRN	?getBuildInfo@CvGlobals@@QAEPAVCvBuildInfo@@W4BuildTypes@@@Z:PROC ; CvGlobals::getBuildInfo
EXTRN	?SetAutomateType@CvUnit@@QAEXW4AutomateTypes@@@Z:PROC ; CvUnit::SetAutomateType
EXTRN	__imp_??1?$basic_string@DU?$char_traits@D@std@@V?$allocator@D@2@@std@@QAE@XZ:PROC
EXTRN	?gGlobals@@3VCvGlobals@@A:BYTE			; gGlobals
EXTRN	__imp_??0?$basic_string@DU?$char_traits@D@std@@V?$allocator@D@2@@std@@QAE@PBD@Z:PROC
EXTRN	?dispatchingNetMessage@CvUnit@@SA_NXZ:PROC	; CvUnit::dispatchingNetMessage
EXTRN	?isHuman@CvPreGame@@YA_NW4PlayerTypes@@@Z:PROC	; CvPreGame::isHuman
;	COMDAT ??_C@_0BA@EMOAFIAA@FEATURE_FALLOUT?$AA@
; File d:\sources\lekmod_git\checkout\lekmod_dll\fireplace\include\fireworks\fobjecthandle.h
CONST	SEGMENT
??_C@_0BA@EMOAFIAA@FEATURE_FALLOUT?$AA@ DB 'FEATURE_FALLOUT', 00H ; `string'
CONST	ENDS
;	COMDAT ??_C@_0O@CEOMGFD@FEATURE_MARSH?$AA@
CONST	SEGMENT
??_C@_0O@CEOMGFD@FEATURE_MARSH?$AA@ DB 'FEATURE_MARSH', 00H ; `string'
CONST	ENDS
;	COMDAT ??_C@_0P@FPOMJJFM@FEATURE_JUNGLE?$AA@
CONST	SEGMENT
??_C@_0P@FPOMJJFM@FEATURE_JUNGLE?$AA@ DB 'FEATURE_JUNGLE', 00H ; `string'
CONST	ENDS
;	COMDAT ??_C@_0P@HBLLKHIA@FEATURE_FOREST?$AA@
CONST	SEGMENT
??_C@_0P@HBLLKHIA@FEATURE_FOREST?$AA@ DB 'FEATURE_FOREST', 00H ; `string'
CONST	ENDS
;	COMDAT ??_C@_0GJ@FFAHDLIK@?$CK?$CK?$CK?5PROTOCOL?5ERROR?5?$CK?$CK?$CK?5?3?5PushMis@
CONST	SEGMENT
??_C@_0GJ@FFAHDLIK@?$CK?$CK?$CK?5PROTOCOL?5ERROR?5?$CK?$CK?$CK?5?3?5PushMis@ DB '*'
	DB	'** PROTOCOL ERROR *** : PushMission invoked for a human contr'
	DB	'olled player outside of a network message!', 00H ; `string'
CONST	ENDS
;	COMDAT xdata$x
xdata$x	SEGMENT
__unwindtable$?PushMission@CvUnitMission@@SAXV?$FObjectHandle@VCvUnit@@@@W4MissionTypes@@HHH_N2W4MissionAITypes@@PAVCvPlot@@PAVCvUnit@@@Z DD 0ffffffffH
	DD	FLAT:__unwindfunclet$?PushMission@CvUnitMission@@SAXV?$FObjectHandle@VCvUnit@@@@W4MissionTypes@@HHH_N2W4MissionAITypes@@PAVCvPlot@@PAVCvUnit@@@Z$0
	DD	00H
	DD	FLAT:__unwindfunclet$?PushMission@CvUnitMission@@SAXV?$FObjectHandle@VCvUnit@@@@W4MissionTypes@@HHH_N2W4MissionAITypes@@PAVCvPlot@@PAVCvUnit@@@Z$1
__ehfuncinfo$?PushMission@CvUnitMission@@SAXV?$FObjectHandle@VCvUnit@@@@W4MissionTypes@@HHH_N2W4MissionAITypes@@PAVCvPlot@@PAVCvUnit@@@Z DD 019930522H
	DD	02H
	DD	FLAT:__unwindtable$?PushMission@CvUnitMission@@SAXV?$FObjectHandle@VCvUnit@@@@W4MissionTypes@@HHH_N2W4MissionAITypes@@PAVCvPlot@@PAVCvUnit@@@Z
	DD	2 DUP(00H)
	DD	2 DUP(00H)
	DD	00H
	DD	01H
; Function compile flags: /Odtp
; File d:\sources\lekmod_git\checkout\lekmod_dll\cvgamecoredll_expansion2\cvunitmission.cpp
xdata$x	ENDS
;	COMDAT ?PushMission@CvUnitMission@@SAXV?$FObjectHandle@VCvUnit@@@@W4MissionTypes@@HHH_N2W4MissionAITypes@@PAVCvPlot@@PAVCvUnit@@@Z
_TEXT	SEGMENT
tv501 = -372						; size = 4
tv531 = -368						; size = 4
tv527 = -364						; size = 4
tv331 = -360						; size = 4
tv817 = -356						; size = 4
tv812 = -350						; size = 1
tv805 = -349						; size = 1
tv801 = -348						; size = 4
tv802 = -344						; size = 4
tv523 = -340						; size = 4
tv290 = -336						; size = 4
tv764 = -332						; size = 4
tv759 = -326						; size = 1
tv752 = -325						; size = 1
tv748 = -324						; size = 4
tv749 = -320						; size = 4
tv519 = -316						; size = 4
tv249 = -312						; size = 4
tv711 = -308						; size = 4
tv706 = -302						; size = 1
tv699 = -301						; size = 1
tv695 = -300						; size = 4
tv696 = -296						; size = 4
tv515 = -292						; size = 4
tv208 = -288						; size = 4
tv658 = -284						; size = 4
tv653 = -278						; size = 1
tv646 = -277						; size = 1
tv642 = -276						; size = 4
tv643 = -272						; size = 4
tv83 = -268						; size = 4
$T219318 = -264						; size = 4
$T219311 = -260						; size = 4
$T219307 = -256						; size = 4
$T219303 = -252						; size = 4
$T219294 = -248						; size = 4
$T219290 = -244						; size = 4
$T219277 = -240						; size = 4
$T219270 = -236						; size = 4
$T219261 = -232						; size = 4
$T219257 = -228						; size = 4
$T219244 = -224						; size = 4
$T219237 = -220						; size = 4
$T219224 = -216						; size = 4
$T219217 = -212						; size = 4
$T219204 = -208						; size = 4
$T219197 = -204						; size = 4
$T219184 = -200						; size = 4
$T219174 = -196						; size = 4
_f$219173 = -189					; size = 1
$T219164 = -188						; size = 4
$T219157 = -184						; size = 4
$T219153 = -180						; size = 4
$T219144 = -176						; size = 4
$T219140 = -172						; size = 4
$T219136 = -168						; size = 4
$T219127 = -164						; size = 4
$T219123 = -160						; size = 4
$T219110 = -156						; size = 4
$T219106 = -152						; size = 4
$T219097 = -148						; size = 4
$T219086 = -144						; size = 4
$T219085 = -140						; size = 4
$T219084 = -136						; size = 4
$T219083 = -132						; size = 4
$T219082 = -128						; size = 4
$T219081 = -124						; size = 28
_pMissionInfo$217552 = -96				; size = 4
_pkRouteInfo$217545 = -92				; size = 4
_pkImprovementInfo$217541 = -88				; size = 4
_iResourceLoop$217536 = -84				; size = 4
_removeMission$217513 = -80				; size = 20
_feature$217512 = -60					; size = 4
_eFeature$217510 = -56					; size = 4
_eImprovement$217529 = -52				; size = 4
_eRoute$217530 = -48					; size = 4
_iNumResource$217535 = -44				; size = 4
_pkBuildInfo$217506 = -40				; size = 4
_eBuild$217503 = -36					; size = 4
_mission$ = -32						; size = 20
__$EHRec$ = -12						; size = 12
_hUnit$ = 8						; size = 8
_eMission$ = 16						; size = 4
_iData1$ = 20						; size = 4
_iData2$ = 24						; size = 4
_iFlags$ = 28						; size = 4
_bAppend$ = 32						; size = 1
_bManual$ = 36						; size = 1
_eMissionAI$ = 40					; size = 4
_pMissionAIPlot$ = 44					; size = 4
_pMissionAIUnit$ = 48					; size = 4
?PushMission@CvUnitMission@@SAXV?$FObjectHandle@VCvUnit@@@@W4MissionTypes@@HHH_N2W4MissionAITypes@@PAVCvPlot@@PAVCvUnit@@@Z PROC ; CvUnitMission::PushMission, COMDAT

; 82   : {

	push	ebp
	mov	ebp, esp
	push	-1
	push	__ehhandler$?PushMission@CvUnitMission@@SAXV?$FObjectHandle@VCvUnit@@@@W4MissionTypes@@HHH_N2W4MissionAITypes@@PAVCvPlot@@PAVCvUnit@@@Z
	mov	eax, DWORD PTR fs:0
	push	eax
	sub	esp, 360				; 00000168H
	mov	eax, DWORD PTR ___security_cookie
	xor	eax, ebp
	push	eax
	lea	eax, DWORD PTR __$EHRec$[ebp]
	mov	DWORD PTR fs:0, eax
	mov	DWORD PTR __$EHRec$[ebp+8], 0

; 83   : 	if(CvPreGame::isHuman(hUnit->getOwner()))

	mov	eax, DWORD PTR _hUnit$[ebp]
	mov	DWORD PTR $T219097[ebp], eax
	mov	ecx, DWORD PTR $T219097[ebp]
	mov	edx, DWORD PTR [ecx+40]
	mov	DWORD PTR $T219106[ebp], edx
	mov	eax, DWORD PTR $T219106[ebp]
	push	eax
	call	?isHuman@CvPreGame@@YA_NW4PlayerTypes@@@Z ; CvPreGame::isHuman
	add	esp, 4
	movzx	ecx, al
	test	ecx, ecx
	je	SHORT $LN31@PushMissio

; 84   : 	{
; 85   : 		CvAssertMsg(CvUnit::dispatchingNetMessage(), "Multiplayer Error! CvUnit::PushMission invoked for a human player outside of a network message!");
; 86   : 		if(!CvUnit::dispatchingNetMessage())

	call	?dispatchingNetMessage@CvUnit@@SA_NXZ	; CvUnit::dispatchingNetMessage
	movzx	edx, al
	test	edx, edx
	jne	SHORT $LN31@PushMissio

; 87   : 			gDLL->netMessageDebugLog("*** PROTOCOL ERROR *** : PushMission invoked for a human controlled player outside of a network message!");

	push	OFFSET ??_C@_0GJ@FFAHDLIK@?$CK?$CK?$CK?5PROTOCOL?5ERROR?5?$CK?$CK?$CK?5?3?5PushMis@
	lea	ecx, DWORD PTR $T219081[ebp]
	call	DWORD PTR __imp_??0?$basic_string@DU?$char_traits@D@std@@V?$allocator@D@2@@std@@QAE@PBD@Z
	mov	BYTE PTR __$EHRec$[ebp+8], 1
	mov	eax, DWORD PTR $T219110[ebp]
	mov	DWORD PTR tv83[ebp], eax
	mov	ecx, DWORD PTR ?gGlobals@@3VCvGlobals@@A+8564
	mov	DWORD PTR tv83[ebp], ecx
	lea	edx, DWORD PTR $T219081[ebp]
	push	edx
	mov	eax, DWORD PTR tv83[ebp]
	mov	edx, DWORD PTR [eax]
	mov	ecx, DWORD PTR tv83[ebp]
	mov	eax, DWORD PTR [edx+76]
	call	eax
	mov	BYTE PTR __$EHRec$[ebp+8], 0
	lea	ecx, DWORD PTR $T219081[ebp]
	call	DWORD PTR __imp_??1?$basic_string@DU?$char_traits@D@std@@V?$allocator@D@2@@std@@QAE@XZ
$LN31@PushMissio:

; 88   : 	}
; 89   : 
; 90   : 	MissionData mission;

	mov	DWORD PTR _mission$[ebp], -1
	mov	DWORD PTR _mission$[ebp+4], 0
	mov	DWORD PTR _mission$[ebp+8], 0
	mov	DWORD PTR _mission$[ebp+12], 0
	mov	DWORD PTR _mission$[ebp+16], 0

; 91   : 
; 92   : 	CvAssert(hUnit->getOwner() != NO_PLAYER);
; 93   : 
; 94   : 	if(!bAppend)

	movzx	ecx, BYTE PTR _bAppend$[ebp]
	test	ecx, ecx
	jne	SHORT $LN29@PushMissio

; 95   : 	{
; 96   : 		hUnit->ClearMissionQueue();

	push	1
	mov	ecx, DWORD PTR _hUnit$[ebp]
	call	?ClearMissionQueue@CvUnit@@QAEXH@Z	; CvUnit::ClearMissionQueue
$LN29@PushMissio:

; 97   : 	}
; 98   : 
; 99   : 	if(bManual)

	movzx	edx, BYTE PTR _bManual$[ebp]
	test	edx, edx
	je	SHORT $LN28@PushMissio

; 100  : 	{
; 101  : 		hUnit->SetAutomateType(NO_AUTOMATE);

	push	-1
	mov	ecx, DWORD PTR _hUnit$[ebp]
	call	?SetAutomateType@CvUnit@@QAEXW4AutomateTypes@@@Z ; CvUnit::SetAutomateType
$LN28@PushMissio:

; 102  : 	}
; 103  : 
; 104  : 	// Update Builder Resource info
; 105  : 	if(eMission == CvTypes::getMISSION_BUILD())

	call	?getMISSION_BUILD@CvTypes@@YA?BW4MissionTypes@@XZ ; CvTypes::getMISSION_BUILD
	cmp	DWORD PTR _eMission$[ebp], eax
	jne	$LN27@PushMissio

; 106  : 	{
; 107  : 		const BuildTypes eBuild = (BuildTypes) iData1;

	mov	eax, DWORD PTR _iData1$[ebp]
	mov	DWORD PTR _eBuild$217503[ebp], eax

; 108  : 		if(eBuild != NO_BUILD)

	cmp	DWORD PTR _eBuild$217503[ebp], -1
	je	$LN27@PushMissio

; 109  : 		{
; 110  : 			CvBuildInfo* pkBuildInfo = GC.getBuildInfo(eBuild);

	mov	ecx, DWORD PTR _eBuild$217503[ebp]
	push	ecx
	mov	ecx, OFFSET ?gGlobals@@3VCvGlobals@@A	; gGlobals
	call	?getBuildInfo@CvGlobals@@QAEPAVCvBuildInfo@@W4BuildTypes@@@Z ; CvGlobals::getBuildInfo
	mov	DWORD PTR _pkBuildInfo$217506[ebp], eax

; 111  : 			if(pkBuildInfo)

	cmp	DWORD PTR _pkBuildInfo$217506[ebp], 0
	je	$LN27@PushMissio

; 112  : 			{
; 113  : 				if (GET_PLAYER(hUnit->getOwner()).IsPlotUnderImmediateThreat(*(hUnit->plot())))

	mov	edx, DWORD PTR _hUnit$[ebp]
	mov	DWORD PTR $T219123[ebp], edx
	mov	eax, DWORD PTR _hUnit$[ebp]
	mov	DWORD PTR $T219127[ebp], eax
	mov	ecx, DWORD PTR $T219127[ebp]
	mov	edx, DWORD PTR [ecx+40]
	mov	DWORD PTR $T219136[ebp], edx
	mov	eax, DWORD PTR $T219136[ebp]
	imul	eax, 63236				; 0000f704H
	add	eax, DWORD PTR ?m_aPlayers@CvPlayerAI@@1PAV1@A ; CvPlayerAI::m_aPlayers
	mov	DWORD PTR $T219140[ebp], eax
	mov	ecx, DWORD PTR $T219123[ebp]
	call	?plot@CvUnit@@QBEPAVCvPlot@@XZ		; CvUnit::plot
	push	eax
	mov	ecx, DWORD PTR $T219140[ebp]
	call	?IsPlotUnderImmediateThreat@CvPlayer@@QBE_NAAVCvPlot@@@Z ; CvPlayer::IsPlotUnderImmediateThreat
	movzx	ecx, al
	test	ecx, ecx
	je	SHORT $LN24@PushMissio

; 114  : 				{
; 115  : 					if(hUnit->plot()->getNumDefenders(hUnit->getOwner()) <= 0)

	mov	edx, DWORD PTR _hUnit$[ebp]
	mov	DWORD PTR $T219144[ebp], edx
	mov	eax, DWORD PTR $T219144[ebp]
	mov	ecx, DWORD PTR [eax+40]
	mov	DWORD PTR $T219153[ebp], ecx
	mov	edx, DWORD PTR _hUnit$[ebp]
	mov	DWORD PTR $T219157[ebp], edx
	mov	eax, DWORD PTR $T219153[ebp]
	push	eax
	mov	ecx, DWORD PTR $T219157[ebp]
	call	?plot@CvUnit@@QBEPAVCvPlot@@XZ		; CvUnit::plot
	mov	ecx, eax
	call	?getNumDefenders@CvPlot@@QBEHW4PlayerTypes@@@Z ; CvPlot::getNumDefenders
	test	eax, eax
	jg	SHORT $LN24@PushMissio

; 116  : 					{
; 117  : 						hUnit->SetIgnoreDangerWakeup(true);

	push	1
	mov	ecx, DWORD PTR _hUnit$[ebp]
	call	?SetIgnoreDangerWakeup@CvUnit@@QAEX_N@Z	; CvUnit::SetIgnoreDangerWakeup
$LN24@PushMissio:

; 118  : 					}
; 119  : 				}
; 120  : 
; 121  : 				//if (hUnit->isHuman())
; 122  : 				{
; 123  : 					FeatureTypes eFeature = hUnit->plot()->getFeatureType();

	mov	ecx, DWORD PTR _hUnit$[ebp]
	mov	DWORD PTR $T219164[ebp], ecx
	mov	ecx, DWORD PTR $T219164[ebp]
	call	?plot@CvUnit@@QBEPAVCvPlot@@XZ		; CvUnit::plot
	mov	DWORD PTR $T219174[ebp], eax
	mov	edx, DWORD PTR $T219174[ebp]
	mov	al, BYTE PTR [edx+432]
	mov	BYTE PTR _f$219173[ebp], al
	movsx	ecx, BYTE PTR _f$219173[ebp]
	mov	DWORD PTR _eFeature$217510[ebp], ecx

; 124  : 					if(eFeature != NO_FEATURE && pkBuildInfo->isFeatureRemove(eFeature) && pkBuildInfo->getFeatureTime(eFeature) > 0)

	cmp	DWORD PTR _eFeature$217510[ebp], -1
	je	$LN22@PushMissio
	mov	edx, DWORD PTR _eFeature$217510[ebp]
	push	edx
	mov	ecx, DWORD PTR _pkBuildInfo$217506[ebp]
	call	?isFeatureRemove@CvBuildInfo@@QBE_NH@Z	; CvBuildInfo::isFeatureRemove
	movzx	eax, al
	test	eax, eax
	je	$LN22@PushMissio
	mov	ecx, DWORD PTR _eFeature$217510[ebp]
	push	ecx
	mov	ecx, DWORD PTR _pkBuildInfo$217506[ebp]
	call	?getFeatureTime@CvBuildInfo@@QBEHH@Z	; CvBuildInfo::getFeatureTime
	test	eax, eax
	jle	$LN22@PushMissio

; 125  : 					{
; 126  : 						CvFeatureInfo* feature = GC.getFeatureInfo(eFeature);

	mov	edx, DWORD PTR _eFeature$217510[ebp]
	push	edx
	mov	ecx, OFFSET ?gGlobals@@3VCvGlobals@@A	; gGlobals
	call	?getFeatureInfo@CvGlobals@@QAEPAVCvFeatureInfo@@W4FeatureTypes@@@Z ; CvGlobals::getFeatureInfo
	mov	DWORD PTR _feature$217512[ebp], eax

; 127  : 						MissionData removeMission;

	mov	DWORD PTR _removeMission$217513[ebp], -1
	mov	DWORD PTR _removeMission$217513[ebp+4], 0
	mov	DWORD PTR _removeMission$217513[ebp+8], 0
	mov	DWORD PTR _removeMission$217513[ebp+12], 0
	mov	DWORD PTR _removeMission$217513[ebp+16], 0

; 128  : 						removeMission.eMissionType = eMission;

	mov	eax, DWORD PTR _eMission$[ebp]
	mov	DWORD PTR _removeMission$217513[ebp], eax

; 129  : 						if(iData1 != 15 && strcmp(feature->GetType(), "FEATURE_FOREST") == 0)

	cmp	DWORD PTR _iData1$[ebp], 15		; 0000000fH
	je	$LN21@PushMissio
	mov	DWORD PTR tv643[ebp], OFFSET ??_C@_0P@HBLLKHIA@FEATURE_FOREST?$AA@
	mov	ecx, DWORD PTR _feature$217512[ebp]
	add	ecx, 176				; 000000b0H
	call	DWORD PTR __imp_?c_str@?$basic_string@DU?$char_traits@D@std@@V?$allocator@D@2@@std@@QBEPBDXZ
	mov	DWORD PTR tv642[ebp], eax
$LL167@PushMissio:
	mov	ecx, DWORD PTR tv642[ebp]
	mov	dl, BYTE PTR [ecx]
	mov	BYTE PTR tv646[ebp], dl
	mov	eax, DWORD PTR tv643[ebp]
	cmp	dl, BYTE PTR [eax]
	jne	SHORT $LN168@PushMissio
	cmp	BYTE PTR tv646[ebp], 0
	je	SHORT $LN169@PushMissio
	mov	ecx, DWORD PTR tv642[ebp]
	mov	dl, BYTE PTR [ecx+1]
	mov	BYTE PTR tv653[ebp], dl
	mov	eax, DWORD PTR tv643[ebp]
	cmp	dl, BYTE PTR [eax+1]
	jne	SHORT $LN168@PushMissio
	add	DWORD PTR tv642[ebp], 2
	add	DWORD PTR tv643[ebp], 2
	cmp	BYTE PTR tv653[ebp], 0
	jne	SHORT $LL167@PushMissio
$LN169@PushMissio:
	mov	DWORD PTR tv658[ebp], 0
	jmp	SHORT $LN170@PushMissio
$LN168@PushMissio:
	sbb	ecx, ecx
	sbb	ecx, -1
	mov	DWORD PTR tv658[ebp], ecx
$LN170@PushMissio:
	mov	edx, DWORD PTR tv658[ebp]
	mov	DWORD PTR tv208[ebp], edx
	cmp	DWORD PTR tv208[ebp], 0
	jne	$LN21@PushMissio

; 130  : 						{
; 131  : 							removeMission.iData1 = 15; // todo: future proof this

	mov	DWORD PTR _removeMission$217513[ebp+4], 15 ; 0000000fH

; 132  : 							removeMission.iData2 = iData2;

	mov	eax, DWORD PTR _iData2$[ebp]
	mov	DWORD PTR _removeMission$217513[ebp+8], eax

; 133  : 							removeMission.iFlags = iFlags;

	mov	ecx, DWORD PTR _iFlags$[ebp]
	mov	DWORD PTR _removeMission$217513[ebp+12], ecx

; 134  : 							removeMission.iPushTurn = GC.getGame().getGameTurn();

	mov	edx, DWORD PTR ?gGlobals@@3VCvGlobals@@A+48
	mov	DWORD PTR $T219184[ebp], edx
	mov	ecx, DWORD PTR $T219184[ebp]
	call	?getGameTurn@CvGame@@QAEHXZ		; CvGame::getGameTurn
	mov	DWORD PTR _removeMission$217513[ebp+16], eax

; 135  : 							hUnit->SetMissionAI(eMissionAI, pMissionAIPlot, pMissionAIUnit);

	mov	eax, DWORD PTR _pMissionAIUnit$[ebp]
	push	eax
	mov	ecx, DWORD PTR _pMissionAIPlot$[ebp]
	push	ecx
	mov	edx, DWORD PTR _eMissionAI$[ebp]
	push	edx
	mov	ecx, DWORD PTR _hUnit$[ebp]
	call	?SetMissionAI@CvUnit@@QAEXW4MissionAITypes@@PAVCvPlot@@PAV1@@Z ; CvUnit::SetMissionAI

; 136  : 							InsertAtEndMissionQueue(hUnit, removeMission, !bAppend);

	movzx	eax, BYTE PTR _bAppend$[ebp]
	test	eax, eax
	sete	cl
	movzx	edx, cl
	push	edx
	sub	esp, 20					; 00000014H
	mov	eax, esp
	mov	ecx, DWORD PTR _removeMission$217513[ebp]
	mov	DWORD PTR [eax], ecx
	mov	edx, DWORD PTR _removeMission$217513[ebp+4]
	mov	DWORD PTR [eax+4], edx
	mov	ecx, DWORD PTR _removeMission$217513[ebp+8]
	mov	DWORD PTR [eax+8], ecx
	mov	edx, DWORD PTR _removeMission$217513[ebp+12]
	mov	DWORD PTR [eax+12], edx
	mov	ecx, DWORD PTR _removeMission$217513[ebp+16]
	mov	DWORD PTR [eax+16], ecx
	sub	esp, 8
	mov	edx, esp
	mov	DWORD PTR $T219082[ebp], esp
	mov	DWORD PTR $T219197[ebp], edx
	mov	eax, DWORD PTR $T219197[ebp]
	mov	ecx, DWORD PTR _hUnit$[ebp]
	mov	DWORD PTR [eax], ecx
	mov	edx, DWORD PTR $T219197[ebp]
	mov	al, BYTE PTR _hUnit$[ebp+4]
	mov	BYTE PTR [edx+4], al
	mov	ecx, DWORD PTR $T219197[ebp]
	cmp	DWORD PTR [ecx], 0
	je	SHORT $LN90@PushMissio
	mov	edx, DWORD PTR $T219197[ebp]
	mov	ecx, DWORD PTR [edx]
	call	?getDestructionNotification@CvUnit@@QAEAAU?$DestructionNotification@V?$FObjectHandle@VCvUnit@@@@@@XZ ; CvUnit::getDestructionNotification
$LN90@PushMissio:
	mov	eax, DWORD PTR $T219197[ebp]
	mov	DWORD PTR tv515[ebp], eax
	call	?InsertAtEndMissionQueue@CvUnitMission@@CAXV?$FObjectHandle@VCvUnit@@@@UMissionData@@_N@Z ; CvUnitMission::InsertAtEndMissionQueue
	add	esp, 32					; 00000020H

; 137  : 							bAppend = true;

	mov	BYTE PTR _bAppend$[ebp], 1
	jmp	$LN22@PushMissio
$LN21@PushMissio:

; 138  : 						}
; 139  : 						else if(iData1 != 14 && strcmp(feature->GetType(), "FEATURE_JUNGLE") == 0)

	cmp	DWORD PTR _iData1$[ebp], 14		; 0000000eH
	je	$LN19@PushMissio
	mov	DWORD PTR tv696[ebp], OFFSET ??_C@_0P@FPOMJJFM@FEATURE_JUNGLE?$AA@
	mov	ecx, DWORD PTR _feature$217512[ebp]
	add	ecx, 176				; 000000b0H
	call	DWORD PTR __imp_?c_str@?$basic_string@DU?$char_traits@D@std@@V?$allocator@D@2@@std@@QBEPBDXZ
	mov	DWORD PTR tv695[ebp], eax
$LL171@PushMissio:
	mov	ecx, DWORD PTR tv695[ebp]
	mov	dl, BYTE PTR [ecx]
	mov	BYTE PTR tv699[ebp], dl
	mov	eax, DWORD PTR tv696[ebp]
	cmp	dl, BYTE PTR [eax]
	jne	SHORT $LN172@PushMissio
	cmp	BYTE PTR tv699[ebp], 0
	je	SHORT $LN173@PushMissio
	mov	ecx, DWORD PTR tv695[ebp]
	mov	dl, BYTE PTR [ecx+1]
	mov	BYTE PTR tv706[ebp], dl
	mov	eax, DWORD PTR tv696[ebp]
	cmp	dl, BYTE PTR [eax+1]
	jne	SHORT $LN172@PushMissio
	add	DWORD PTR tv695[ebp], 2
	add	DWORD PTR tv696[ebp], 2
	cmp	BYTE PTR tv706[ebp], 0
	jne	SHORT $LL171@PushMissio
$LN173@PushMissio:
	mov	DWORD PTR tv711[ebp], 0
	jmp	SHORT $LN174@PushMissio
$LN172@PushMissio:
	sbb	ecx, ecx
	sbb	ecx, -1
	mov	DWORD PTR tv711[ebp], ecx
$LN174@PushMissio:
	mov	edx, DWORD PTR tv711[ebp]
	mov	DWORD PTR tv249[ebp], edx
	cmp	DWORD PTR tv249[ebp], 0
	jne	$LN19@PushMissio

; 140  : 						{
; 141  : 							removeMission.iData1 = 14; // todo: future proof this

	mov	DWORD PTR _removeMission$217513[ebp+4], 14 ; 0000000eH

; 142  : 							removeMission.iData2 = iData2;

	mov	eax, DWORD PTR _iData2$[ebp]
	mov	DWORD PTR _removeMission$217513[ebp+8], eax

; 143  : 							removeMission.iFlags = iFlags;

	mov	ecx, DWORD PTR _iFlags$[ebp]
	mov	DWORD PTR _removeMission$217513[ebp+12], ecx

; 144  : 							removeMission.iPushTurn = GC.getGame().getGameTurn();

	mov	edx, DWORD PTR ?gGlobals@@3VCvGlobals@@A+48
	mov	DWORD PTR $T219204[ebp], edx
	mov	ecx, DWORD PTR $T219204[ebp]
	call	?getGameTurn@CvGame@@QAEHXZ		; CvGame::getGameTurn
	mov	DWORD PTR _removeMission$217513[ebp+16], eax

; 145  : 							hUnit->SetMissionAI(eMissionAI, pMissionAIPlot, pMissionAIUnit);

	mov	eax, DWORD PTR _pMissionAIUnit$[ebp]
	push	eax
	mov	ecx, DWORD PTR _pMissionAIPlot$[ebp]
	push	ecx
	mov	edx, DWORD PTR _eMissionAI$[ebp]
	push	edx
	mov	ecx, DWORD PTR _hUnit$[ebp]
	call	?SetMissionAI@CvUnit@@QAEXW4MissionAITypes@@PAVCvPlot@@PAV1@@Z ; CvUnit::SetMissionAI

; 146  : 							InsertAtEndMissionQueue(hUnit, removeMission, !bAppend);

	movzx	eax, BYTE PTR _bAppend$[ebp]
	test	eax, eax
	sete	cl
	movzx	edx, cl
	push	edx
	sub	esp, 20					; 00000014H
	mov	eax, esp
	mov	ecx, DWORD PTR _removeMission$217513[ebp]
	mov	DWORD PTR [eax], ecx
	mov	edx, DWORD PTR _removeMission$217513[ebp+4]
	mov	DWORD PTR [eax+4], edx
	mov	ecx, DWORD PTR _removeMission$217513[ebp+8]
	mov	DWORD PTR [eax+8], ecx
	mov	edx, DWORD PTR _removeMission$217513[ebp+12]
	mov	DWORD PTR [eax+12], edx
	mov	ecx, DWORD PTR _removeMission$217513[ebp+16]
	mov	DWORD PTR [eax+16], ecx
	sub	esp, 8
	mov	edx, esp
	mov	DWORD PTR $T219083[ebp], esp
	mov	DWORD PTR $T219217[ebp], edx
	mov	eax, DWORD PTR $T219217[ebp]
	mov	ecx, DWORD PTR _hUnit$[ebp]
	mov	DWORD PTR [eax], ecx
	mov	edx, DWORD PTR $T219217[ebp]
	mov	al, BYTE PTR _hUnit$[ebp+4]
	mov	BYTE PTR [edx+4], al
	mov	ecx, DWORD PTR $T219217[ebp]
	cmp	DWORD PTR [ecx], 0
	je	SHORT $LN101@PushMissio
	mov	edx, DWORD PTR $T219217[ebp]
	mov	ecx, DWORD PTR [edx]
	call	?getDestructionNotification@CvUnit@@QAEAAU?$DestructionNotification@V?$FObjectHandle@VCvUnit@@@@@@XZ ; CvUnit::getDestructionNotification
$LN101@PushMissio:
	mov	eax, DWORD PTR $T219217[ebp]
	mov	DWORD PTR tv519[ebp], eax
	call	?InsertAtEndMissionQueue@CvUnitMission@@CAXV?$FObjectHandle@VCvUnit@@@@UMissionData@@_N@Z ; CvUnitMission::InsertAtEndMissionQueue
	add	esp, 32					; 00000020H

; 147  : 							bAppend = true;

	mov	BYTE PTR _bAppend$[ebp], 1
	jmp	$LN22@PushMissio
$LN19@PushMissio:

; 148  : 						}
; 149  : 						else if(iData1 != 16 && strcmp(feature->GetType(), "FEATURE_MARSH") == 0)

	cmp	DWORD PTR _iData1$[ebp], 16		; 00000010H
	je	$LN17@PushMissio
	mov	DWORD PTR tv749[ebp], OFFSET ??_C@_0O@CEOMGFD@FEATURE_MARSH?$AA@
	mov	ecx, DWORD PTR _feature$217512[ebp]
	add	ecx, 176				; 000000b0H
	call	DWORD PTR __imp_?c_str@?$basic_string@DU?$char_traits@D@std@@V?$allocator@D@2@@std@@QBEPBDXZ
	mov	DWORD PTR tv748[ebp], eax
$LL175@PushMissio:
	mov	ecx, DWORD PTR tv748[ebp]
	mov	dl, BYTE PTR [ecx]
	mov	BYTE PTR tv752[ebp], dl
	mov	eax, DWORD PTR tv749[ebp]
	cmp	dl, BYTE PTR [eax]
	jne	SHORT $LN176@PushMissio
	cmp	BYTE PTR tv752[ebp], 0
	je	SHORT $LN177@PushMissio
	mov	ecx, DWORD PTR tv748[ebp]
	mov	dl, BYTE PTR [ecx+1]
	mov	BYTE PTR tv759[ebp], dl
	mov	eax, DWORD PTR tv749[ebp]
	cmp	dl, BYTE PTR [eax+1]
	jne	SHORT $LN176@PushMissio
	add	DWORD PTR tv748[ebp], 2
	add	DWORD PTR tv749[ebp], 2
	cmp	BYTE PTR tv759[ebp], 0
	jne	SHORT $LL175@PushMissio
$LN177@PushMissio:
	mov	DWORD PTR tv764[ebp], 0
	jmp	SHORT $LN178@PushMissio
$LN176@PushMissio:
	sbb	ecx, ecx
	sbb	ecx, -1
	mov	DWORD PTR tv764[ebp], ecx
$LN178@PushMissio:
	mov	edx, DWORD PTR tv764[ebp]
	mov	DWORD PTR tv290[ebp], edx
	cmp	DWORD PTR tv290[ebp], 0
	jne	$LN17@PushMissio

; 150  : 						{
; 151  : 							removeMission.iData1 = 16; // todo: future proof this

	mov	DWORD PTR _removeMission$217513[ebp+4], 16 ; 00000010H

; 152  : 							removeMission.iData2 = iData2;

	mov	eax, DWORD PTR _iData2$[ebp]
	mov	DWORD PTR _removeMission$217513[ebp+8], eax

; 153  : 							removeMission.iFlags = iFlags;

	mov	ecx, DWORD PTR _iFlags$[ebp]
	mov	DWORD PTR _removeMission$217513[ebp+12], ecx

; 154  : 							removeMission.iPushTurn = GC.getGame().getGameTurn();

	mov	edx, DWORD PTR ?gGlobals@@3VCvGlobals@@A+48
	mov	DWORD PTR $T219224[ebp], edx
	mov	ecx, DWORD PTR $T219224[ebp]
	call	?getGameTurn@CvGame@@QAEHXZ		; CvGame::getGameTurn
	mov	DWORD PTR _removeMission$217513[ebp+16], eax

; 155  : 							hUnit->SetMissionAI(eMissionAI, pMissionAIPlot, pMissionAIUnit);

	mov	eax, DWORD PTR _pMissionAIUnit$[ebp]
	push	eax
	mov	ecx, DWORD PTR _pMissionAIPlot$[ebp]
	push	ecx
	mov	edx, DWORD PTR _eMissionAI$[ebp]
	push	edx
	mov	ecx, DWORD PTR _hUnit$[ebp]
	call	?SetMissionAI@CvUnit@@QAEXW4MissionAITypes@@PAVCvPlot@@PAV1@@Z ; CvUnit::SetMissionAI

; 156  : 							InsertAtEndMissionQueue(hUnit, removeMission, !bAppend);

	movzx	eax, BYTE PTR _bAppend$[ebp]
	test	eax, eax
	sete	cl
	movzx	edx, cl
	push	edx
	sub	esp, 20					; 00000014H
	mov	eax, esp
	mov	ecx, DWORD PTR _removeMission$217513[ebp]
	mov	DWORD PTR [eax], ecx
	mov	edx, DWORD PTR _removeMission$217513[ebp+4]
	mov	DWORD PTR [eax+4], edx
	mov	ecx, DWORD PTR _removeMission$217513[ebp+8]
	mov	DWORD PTR [eax+8], ecx
	mov	edx, DWORD PTR _removeMission$217513[ebp+12]
	mov	DWORD PTR [eax+12], edx
	mov	ecx, DWORD PTR _removeMission$217513[ebp+16]
	mov	DWORD PTR [eax+16], ecx
	sub	esp, 8
	mov	edx, esp
	mov	DWORD PTR $T219084[ebp], esp
	mov	DWORD PTR $T219237[ebp], edx
	mov	eax, DWORD PTR $T219237[ebp]
	mov	ecx, DWORD PTR _hUnit$[ebp]
	mov	DWORD PTR [eax], ecx
	mov	edx, DWORD PTR $T219237[ebp]
	mov	al, BYTE PTR _hUnit$[ebp+4]
	mov	BYTE PTR [edx+4], al
	mov	ecx, DWORD PTR $T219237[ebp]
	cmp	DWORD PTR [ecx], 0
	je	SHORT $LN112@PushMissio
	mov	edx, DWORD PTR $T219237[ebp]
	mov	ecx, DWORD PTR [edx]
	call	?getDestructionNotification@CvUnit@@QAEAAU?$DestructionNotification@V?$FObjectHandle@VCvUnit@@@@@@XZ ; CvUnit::getDestructionNotification
$LN112@PushMissio:
	mov	eax, DWORD PTR $T219237[ebp]
	mov	DWORD PTR tv523[ebp], eax
	call	?InsertAtEndMissionQueue@CvUnitMission@@CAXV?$FObjectHandle@VCvUnit@@@@UMissionData@@_N@Z ; CvUnitMission::InsertAtEndMissionQueue
	add	esp, 32					; 00000020H

; 157  : 							bAppend = true;

	mov	BYTE PTR _bAppend$[ebp], 1
	jmp	$LN22@PushMissio
$LN17@PushMissio:

; 158  : 						}
; 159  : 						else if(iData1 != 17 && strcmp(feature->GetType(), "FEATURE_FALLOUT") == 0)

	cmp	DWORD PTR _iData1$[ebp], 17		; 00000011H
	je	$LN22@PushMissio
	mov	DWORD PTR tv802[ebp], OFFSET ??_C@_0BA@EMOAFIAA@FEATURE_FALLOUT?$AA@
	mov	ecx, DWORD PTR _feature$217512[ebp]
	add	ecx, 176				; 000000b0H
	call	DWORD PTR __imp_?c_str@?$basic_string@DU?$char_traits@D@std@@V?$allocator@D@2@@std@@QBEPBDXZ
	mov	DWORD PTR tv801[ebp], eax
$LL179@PushMissio:
	mov	ecx, DWORD PTR tv801[ebp]
	mov	dl, BYTE PTR [ecx]
	mov	BYTE PTR tv805[ebp], dl
	mov	eax, DWORD PTR tv802[ebp]
	cmp	dl, BYTE PTR [eax]
	jne	SHORT $LN180@PushMissio
	cmp	BYTE PTR tv805[ebp], 0
	je	SHORT $LN181@PushMissio
	mov	ecx, DWORD PTR tv801[ebp]
	mov	dl, BYTE PTR [ecx+1]
	mov	BYTE PTR tv812[ebp], dl
	mov	eax, DWORD PTR tv802[ebp]
	cmp	dl, BYTE PTR [eax+1]
	jne	SHORT $LN180@PushMissio
	add	DWORD PTR tv801[ebp], 2
	add	DWORD PTR tv802[ebp], 2
	cmp	BYTE PTR tv812[ebp], 0
	jne	SHORT $LL179@PushMissio
$LN181@PushMissio:
	mov	DWORD PTR tv817[ebp], 0
	jmp	SHORT $LN182@PushMissio
$LN180@PushMissio:
	sbb	ecx, ecx
	sbb	ecx, -1
	mov	DWORD PTR tv817[ebp], ecx
$LN182@PushMissio:
	mov	edx, DWORD PTR tv817[ebp]
	mov	DWORD PTR tv331[ebp], edx
	cmp	DWORD PTR tv331[ebp], 0
	jne	$LN22@PushMissio

; 160  : 						{
; 161  : 							removeMission.iData1 = 17; // todo: future proof this

	mov	DWORD PTR _removeMission$217513[ebp+4], 17 ; 00000011H

; 162  : 							removeMission.iData2 = iData2;

	mov	eax, DWORD PTR _iData2$[ebp]
	mov	DWORD PTR _removeMission$217513[ebp+8], eax

; 163  : 							removeMission.iFlags = iFlags;

	mov	ecx, DWORD PTR _iFlags$[ebp]
	mov	DWORD PTR _removeMission$217513[ebp+12], ecx

; 164  : 							removeMission.iPushTurn = GC.getGame().getGameTurn();

	mov	edx, DWORD PTR ?gGlobals@@3VCvGlobals@@A+48
	mov	DWORD PTR $T219244[ebp], edx
	mov	ecx, DWORD PTR $T219244[ebp]
	call	?getGameTurn@CvGame@@QAEHXZ		; CvGame::getGameTurn
	mov	DWORD PTR _removeMission$217513[ebp+16], eax

; 165  : 							hUnit->SetMissionAI(eMissionAI, pMissionAIPlot, pMissionAIUnit);

	mov	eax, DWORD PTR _pMissionAIUnit$[ebp]
	push	eax
	mov	ecx, DWORD PTR _pMissionAIPlot$[ebp]
	push	ecx
	mov	edx, DWORD PTR _eMissionAI$[ebp]
	push	edx
	mov	ecx, DWORD PTR _hUnit$[ebp]
	call	?SetMissionAI@CvUnit@@QAEXW4MissionAITypes@@PAVCvPlot@@PAV1@@Z ; CvUnit::SetMissionAI

; 166  : 							InsertAtEndMissionQueue(hUnit, removeMission, !bAppend);

	movzx	eax, BYTE PTR _bAppend$[ebp]
	test	eax, eax
	sete	cl
	movzx	edx, cl
	push	edx
	sub	esp, 20					; 00000014H
	mov	eax, esp
	mov	ecx, DWORD PTR _removeMission$217513[ebp]
	mov	DWORD PTR [eax], ecx
	mov	edx, DWORD PTR _removeMission$217513[ebp+4]
	mov	DWORD PTR [eax+4], edx
	mov	ecx, DWORD PTR _removeMission$217513[ebp+8]
	mov	DWORD PTR [eax+8], ecx
	mov	edx, DWORD PTR _removeMission$217513[ebp+12]
	mov	DWORD PTR [eax+12], edx
	mov	ecx, DWORD PTR _removeMission$217513[ebp+16]
	mov	DWORD PTR [eax+16], ecx
	sub	esp, 8
	mov	edx, esp
	mov	DWORD PTR $T219085[ebp], esp
	mov	DWORD PTR $T219257[ebp], edx
	mov	eax, DWORD PTR $T219257[ebp]
	mov	ecx, DWORD PTR _hUnit$[ebp]
	mov	DWORD PTR [eax], ecx
	mov	edx, DWORD PTR $T219257[ebp]
	mov	al, BYTE PTR _hUnit$[ebp+4]
	mov	BYTE PTR [edx+4], al
	mov	ecx, DWORD PTR $T219257[ebp]
	cmp	DWORD PTR [ecx], 0
	je	SHORT $LN123@PushMissio
	mov	edx, DWORD PTR $T219257[ebp]
	mov	ecx, DWORD PTR [edx]
	call	?getDestructionNotification@CvUnit@@QAEAAU?$DestructionNotification@V?$FObjectHandle@VCvUnit@@@@@@XZ ; CvUnit::getDestructionNotification
$LN123@PushMissio:
	mov	eax, DWORD PTR $T219257[ebp]
	mov	DWORD PTR tv527[ebp], eax
	call	?InsertAtEndMissionQueue@CvUnitMission@@CAXV?$FObjectHandle@VCvUnit@@@@UMissionData@@_N@Z ; CvUnitMission::InsertAtEndMissionQueue
	add	esp, 32					; 00000020H

; 167  : 							bAppend = true;

	mov	BYTE PTR _bAppend$[ebp], 1
$LN22@PushMissio:

; 168  : 						}
; 169  : 					}
; 170  : 				}
; 171  : 
; 172  : 
; 173  : 				ImprovementTypes eImprovement = NO_IMPROVEMENT;

	mov	DWORD PTR _eImprovement$217529[ebp], -1

; 174  : 				RouteTypes eRoute = NO_ROUTE;

	mov	DWORD PTR _eRoute$217530[ebp], -1

; 175  : 
; 176  : 				if(pkBuildInfo->getImprovement() != NO_IMPROVEMENT)

	mov	ecx, DWORD PTR _pkBuildInfo$217506[ebp]
	call	?getImprovement@CvBuildInfo@@QBEHXZ	; CvBuildInfo::getImprovement
	cmp	eax, -1
	je	SHORT $LN14@PushMissio

; 177  : 				{
; 178  : 					eImprovement = (ImprovementTypes) pkBuildInfo->getImprovement();

	mov	ecx, DWORD PTR _pkBuildInfo$217506[ebp]
	call	?getImprovement@CvBuildInfo@@QBEHXZ	; CvBuildInfo::getImprovement
	mov	DWORD PTR _eImprovement$217529[ebp], eax

; 179  : 				}
; 180  : 				else

	jmp	SHORT $LN13@PushMissio
$LN14@PushMissio:

; 181  : 				{
; 182  : 					eRoute = (RouteTypes) pkBuildInfo->getRoute();

	mov	ecx, DWORD PTR _pkBuildInfo$217506[ebp]
	call	?getRoute@CvBuildInfo@@QBEHXZ		; CvBuildInfo::getRoute
	mov	DWORD PTR _eRoute$217530[ebp], eax
$LN13@PushMissio:

; 183  : 				}
; 184  : 
; 185  : 				int iNumResource = 0;

	mov	DWORD PTR _iNumResource$217535[ebp], 0

; 186  : 
; 187  : 				// Update the amount of a Resource used up by popped Build
; 188  : #ifdef AUI_WARNING_FIXES
; 189  : 				for (uint iResourceLoop = 0; iResourceLoop < GC.getNumResourceInfos(); iResourceLoop++)
; 190  : #else
; 191  : 				for(int iResourceLoop = 0; iResourceLoop < GC.getNumResourceInfos(); iResourceLoop++)

	mov	DWORD PTR _iResourceLoop$217536[ebp], 0
	jmp	SHORT $LN12@PushMissio
$LN11@PushMissio:
	mov	ecx, DWORD PTR _iResourceLoop$217536[ebp]
	add	ecx, 1
	mov	DWORD PTR _iResourceLoop$217536[ebp], ecx
$LN12@PushMissio:
	mov	ecx, OFFSET ?gGlobals@@3VCvGlobals@@A	; gGlobals
	call	?getNumResourceInfos@CvGlobals@@QAEHXZ	; CvGlobals::getNumResourceInfos
	cmp	DWORD PTR _iResourceLoop$217536[ebp], eax
	jge	$LN27@PushMissio

; 192  : #endif
; 193  : 				{
; 194  : 					iNumResource = 0;

	mov	DWORD PTR _iNumResource$217535[ebp], 0

; 195  : 
; 196  : 					if(eImprovement != NO_IMPROVEMENT)

	cmp	DWORD PTR _eImprovement$217529[ebp], -1
	je	SHORT $LN9@PushMissio

; 197  : 					{
; 198  : 						CvImprovementEntry* pkImprovementInfo = GC.getImprovementInfo(eImprovement);

	mov	edx, DWORD PTR _eImprovement$217529[ebp]
	push	edx
	mov	ecx, OFFSET ?gGlobals@@3VCvGlobals@@A	; gGlobals
	call	?getImprovementInfo@CvGlobals@@QAEPAVCvImprovementEntry@@W4ImprovementTypes@@@Z ; CvGlobals::getImprovementInfo
	mov	DWORD PTR _pkImprovementInfo$217541[ebp], eax

; 199  : 						CvAssert(pkImprovementInfo);
; 200  : 						if(pkImprovementInfo)

	cmp	DWORD PTR _pkImprovementInfo$217541[ebp], 0
	je	SHORT $LN8@PushMissio

; 201  : 						{
; 202  : 							iNumResource += pkImprovementInfo->GetResourceQuantityRequirement(iResourceLoop);

	mov	eax, DWORD PTR _iResourceLoop$217536[ebp]
	push	eax
	mov	ecx, DWORD PTR _pkImprovementInfo$217541[ebp]
	call	?GetResourceQuantityRequirement@CvImprovementEntry@@QBEHH@Z ; CvImprovementEntry::GetResourceQuantityRequirement
	add	eax, DWORD PTR _iNumResource$217535[ebp]
	mov	DWORD PTR _iNumResource$217535[ebp], eax
$LN8@PushMissio:

; 203  : 						}
; 204  : 					}

	jmp	SHORT $LN7@PushMissio
$LN9@PushMissio:

; 205  : 					else if(eRoute != NO_ROUTE)

	cmp	DWORD PTR _eRoute$217530[ebp], -1
	je	SHORT $LN7@PushMissio

; 206  : 					{
; 207  : 						CvRouteInfo* pkRouteInfo = GC.getRouteInfo(eRoute);

	mov	ecx, DWORD PTR _eRoute$217530[ebp]
	push	ecx
	mov	ecx, OFFSET ?gGlobals@@3VCvGlobals@@A	; gGlobals
	call	?getRouteInfo@CvGlobals@@QAEPAVCvRouteInfo@@W4RouteTypes@@@Z ; CvGlobals::getRouteInfo
	mov	DWORD PTR _pkRouteInfo$217545[ebp], eax

; 208  : 						CvAssert(pkRouteInfo);
; 209  : 						if(pkRouteInfo)

	cmp	DWORD PTR _pkRouteInfo$217545[ebp], 0
	je	SHORT $LN7@PushMissio

; 210  : 						{
; 211  : 							iNumResource += pkRouteInfo->getResourceQuantityRequirement(iResourceLoop);

	mov	edx, DWORD PTR _iResourceLoop$217536[ebp]
	push	edx
	mov	ecx, DWORD PTR _pkRouteInfo$217545[ebp]
	call	?getResourceQuantityRequirement@CvRouteInfo@@QBEHH@Z ; CvRouteInfo::getResourceQuantityRequirement
	add	eax, DWORD PTR _iNumResource$217535[ebp]
	mov	DWORD PTR _iNumResource$217535[ebp], eax
$LN7@PushMissio:

; 212  : 						}
; 213  : 					}
; 214  : 
; 215  : 					if(iNumResource > 0)

	cmp	DWORD PTR _iNumResource$217535[ebp], 0
	jle	SHORT $LN4@PushMissio

; 216  : 					{
; 217  : 						GET_PLAYER(hUnit->getOwner()).changeNumResourceUsed((ResourceTypes) iResourceLoop, iNumResource);

	mov	eax, DWORD PTR _hUnit$[ebp]
	mov	DWORD PTR $T219261[ebp], eax
	mov	ecx, DWORD PTR $T219261[ebp]
	mov	edx, DWORD PTR [ecx+40]
	mov	DWORD PTR $T219270[ebp], edx
	mov	eax, DWORD PTR _iNumResource$217535[ebp]
	push	eax
	mov	ecx, DWORD PTR _iResourceLoop$217536[ebp]
	push	ecx
	mov	ecx, DWORD PTR $T219270[ebp]
	imul	ecx, 63236				; 0000f704H
	add	ecx, DWORD PTR ?m_aPlayers@CvPlayerAI@@1PAV1@A ; CvPlayerAI::m_aPlayers
	call	?changeNumResourceUsed@CvPlayer@@QAEXW4ResourceTypes@@H@Z ; CvPlayer::changeNumResourceUsed
$LN4@PushMissio:

; 218  : 					}
; 219  : 				}

	jmp	$LN11@PushMissio
$LN27@PushMissio:

; 220  : 			}
; 221  : 		}
; 222  : 	}
; 223  : 
; 224  : 	mission.eMissionType = eMission;

	mov	edx, DWORD PTR _eMission$[ebp]
	mov	DWORD PTR _mission$[ebp], edx

; 225  : 	mission.iData1 = iData1;

	mov	eax, DWORD PTR _iData1$[ebp]
	mov	DWORD PTR _mission$[ebp+4], eax

; 226  : 	mission.iData2 = iData2;

	mov	ecx, DWORD PTR _iData2$[ebp]
	mov	DWORD PTR _mission$[ebp+8], ecx

; 227  : 	mission.iFlags = iFlags;

	mov	edx, DWORD PTR _iFlags$[ebp]
	mov	DWORD PTR _mission$[ebp+12], edx

; 228  : 	mission.iPushTurn = GC.getGame().getGameTurn();

	mov	eax, DWORD PTR ?gGlobals@@3VCvGlobals@@A+48
	mov	DWORD PTR $T219277[ebp], eax
	mov	ecx, DWORD PTR $T219277[ebp]
	call	?getGameTurn@CvGame@@QAEHXZ		; CvGame::getGameTurn
	mov	DWORD PTR _mission$[ebp+16], eax

; 229  : 
; 230  : 	hUnit->SetMissionAI(eMissionAI, pMissionAIPlot, pMissionAIUnit);

	mov	ecx, DWORD PTR _pMissionAIUnit$[ebp]
	push	ecx
	mov	edx, DWORD PTR _pMissionAIPlot$[ebp]
	push	edx
	mov	eax, DWORD PTR _eMissionAI$[ebp]
	push	eax
	mov	ecx, DWORD PTR _hUnit$[ebp]
	call	?SetMissionAI@CvUnit@@QAEXW4MissionAITypes@@PAVCvPlot@@PAV1@@Z ; CvUnit::SetMissionAI

; 231  : 
; 232  : 	InsertAtEndMissionQueue(hUnit, mission, !bAppend);

	movzx	ecx, BYTE PTR _bAppend$[ebp]
	test	ecx, ecx
	sete	dl
	movzx	eax, dl
	push	eax
	sub	esp, 20					; 00000014H
	mov	ecx, esp
	mov	edx, DWORD PTR _mission$[ebp]
	mov	DWORD PTR [ecx], edx
	mov	eax, DWORD PTR _mission$[ebp+4]
	mov	DWORD PTR [ecx+4], eax
	mov	edx, DWORD PTR _mission$[ebp+8]
	mov	DWORD PTR [ecx+8], edx
	mov	eax, DWORD PTR _mission$[ebp+12]
	mov	DWORD PTR [ecx+12], eax
	mov	edx, DWORD PTR _mission$[ebp+16]
	mov	DWORD PTR [ecx+16], edx
	sub	esp, 8
	mov	eax, esp
	mov	DWORD PTR $T219086[ebp], esp
	mov	DWORD PTR $T219290[ebp], eax
	mov	ecx, DWORD PTR $T219290[ebp]
	mov	edx, DWORD PTR _hUnit$[ebp]
	mov	DWORD PTR [ecx], edx
	mov	eax, DWORD PTR $T219290[ebp]
	mov	cl, BYTE PTR _hUnit$[ebp+4]
	mov	BYTE PTR [eax+4], cl
	mov	edx, DWORD PTR $T219290[ebp]
	cmp	DWORD PTR [edx], 0
	je	SHORT $LN140@PushMissio
	mov	eax, DWORD PTR $T219290[ebp]
	mov	ecx, DWORD PTR [eax]
	call	?getDestructionNotification@CvUnit@@QAEAAU?$DestructionNotification@V?$FObjectHandle@VCvUnit@@@@@@XZ ; CvUnit::getDestructionNotification
$LN140@PushMissio:
	mov	ecx, DWORD PTR $T219290[ebp]
	mov	DWORD PTR tv531[ebp], ecx
	call	?InsertAtEndMissionQueue@CvUnitMission@@CAXV?$FObjectHandle@VCvUnit@@@@UMissionData@@_N@Z ; CvUnitMission::InsertAtEndMissionQueue
	add	esp, 32					; 00000020H

; 233  : 
; 234  : 	if(bManual)

	movzx	edx, BYTE PTR _bManual$[ebp]
	test	edx, edx
	je	$LN3@PushMissio

; 235  : 	{
; 236  : 		if(hUnit->getOwner() == GC.getGame().getActivePlayer())

	mov	eax, DWORD PTR _hUnit$[ebp]
	mov	DWORD PTR $T219294[ebp], eax
	mov	ecx, DWORD PTR $T219294[ebp]
	mov	edx, DWORD PTR [ecx+40]
	mov	DWORD PTR $T219303[ebp], edx
	mov	eax, DWORD PTR ?gGlobals@@3VCvGlobals@@A+48
	mov	DWORD PTR $T219307[ebp], eax
	mov	ecx, DWORD PTR $T219307[ebp]
	call	?getActivePlayer@CvGame@@QBE?AW4PlayerTypes@@XZ ; CvGame::getActivePlayer
	cmp	DWORD PTR $T219303[ebp], eax
	jne	SHORT $LN2@PushMissio

; 237  : 		{
; 238  : 			CvMissionInfo* pMissionInfo = GC.getMissionInfo(eMission);

	mov	ecx, DWORD PTR _eMission$[ebp]
	push	ecx
	mov	ecx, OFFSET ?gGlobals@@3VCvGlobals@@A	; gGlobals
	call	?getMissionInfo@CvGlobals@@QAEPAVCvMissionInfo@@W4MissionTypes@@@Z ; CvGlobals::getMissionInfo
	mov	DWORD PTR _pMissionInfo$217552[ebp], eax

; 239  : 
; 240  : 			if(hUnit->IsBusy() && pMissionInfo != NULL && pMissionInfo->isSound())

	mov	edx, DWORD PTR _hUnit$[ebp]
	mov	DWORD PTR $T219311[ebp], edx
	mov	ecx, DWORD PTR $T219311[ebp]
	call	?IsBusy@CvUnit@@QBE_NXZ			; CvUnit::IsBusy
	movzx	eax, al
	test	eax, eax
	je	SHORT $LN1@PushMissio
	cmp	DWORD PTR _pMissionInfo$217552[ebp], 0
	je	SHORT $LN1@PushMissio
	mov	ecx, DWORD PTR _pMissionInfo$217552[ebp]
	call	?isSound@CvMissionInfo@@QBE_NXZ		; CvMissionInfo::isSound
	movzx	ecx, al
	test	ecx, ecx
	je	SHORT $LN1@PushMissio

; 241  : 			{
; 242  : 				hUnit->PlayActionSound();

	mov	ecx, DWORD PTR _hUnit$[ebp]
	call	?PlayActionSound@CvUnit@@QAEXXZ		; CvUnit::PlayActionSound
$LN1@PushMissio:

; 243  : 			}
; 244  : 
; 245  : 			GC.GetEngineUserInterface()->setHasMovedUnit(true);

	mov	edx, DWORD PTR $T219318[ebp]
	mov	DWORD PTR tv501[ebp], edx
	mov	eax, DWORD PTR ?gGlobals@@3VCvGlobals@@A+8568
	mov	DWORD PTR tv501[ebp], eax
	push	1
	mov	ecx, DWORD PTR tv501[ebp]
	mov	edx, DWORD PTR [ecx]
	mov	ecx, DWORD PTR tv501[ebp]
	mov	eax, DWORD PTR [edx+380]
	call	eax
$LN2@PushMissio:

; 246  : 		}
; 247  : 
; 248  : 		////gDLL->getEventReporterIFace()->selectionGroupPushMission(this, eMission);
; 249  : 		hUnit.ignoreDestruction(true);

	mov	BYTE PTR _hUnit$[ebp+4], 1

; 250  : 		hUnit->doDelayedDeath();

	mov	ecx, DWORD PTR _hUnit$[ebp]
	call	?doDelayedDeath@CvUnit@@QAE_NXZ		; CvUnit::doDelayedDeath
$LN3@PushMissio:

; 251  : 	}
; 252  : }

	mov	DWORD PTR __$EHRec$[ebp+8], -1
	cmp	DWORD PTR _hUnit$[ebp], 0
	je	SHORT $LN32@PushMissio
	mov	ecx, DWORD PTR _hUnit$[ebp]
	call	?getDestructionNotification@CvUnit@@QAEAAU?$DestructionNotification@V?$FObjectHandle@VCvUnit@@@@@@XZ ; CvUnit::getDestructionNotification
$LN32@PushMissio:
	mov	ecx, DWORD PTR __$EHRec$[ebp]
	mov	DWORD PTR fs:0, ecx
	pop	ecx
	mov	esp, ebp
	pop	ebp
	ret	0
_TEXT	ENDS
;	COMDAT text$x
text$x	SEGMENT
__unwindfunclet$?PushMission@CvUnitMission@@SAXV?$FObjectHandle@VCvUnit@@@@W4MissionTypes@@HHH_N2W4MissionAITypes@@PAVCvPlot@@PAVCvUnit@@@Z$0:
	lea	ecx, DWORD PTR _hUnit$[ebp]
	jmp	??1?$FObjectHandle@VCvUnit@@@@QAE@XZ	; FObjectHandle<CvUnit>::~FObjectHandle<CvUnit>
__unwindfunclet$?PushMission@CvUnitMission@@SAXV?$FObjectHandle@VCvUnit@@@@W4MissionTypes@@HHH_N2W4MissionAITypes@@PAVCvPlot@@PAVCvUnit@@@Z$1:
	lea	ecx, DWORD PTR $T219081[ebp]
	jmp	DWORD PTR __imp_??1?$basic_string@DU?$char_traits@D@std@@V?$allocator@D@2@@std@@QAE@XZ
__ehhandler$?PushMission@CvUnitMission@@SAXV?$FObjectHandle@VCvUnit@@@@W4MissionTypes@@HHH_N2W4MissionAITypes@@PAVCvPlot@@PAVCvUnit@@@Z:
	mov	edx, DWORD PTR [esp+8]
	lea	eax, DWORD PTR [edx+12]
	mov	ecx, DWORD PTR [edx-364]
	xor	ecx, eax
	call	@__security_check_cookie@4
	mov	eax, OFFSET __ehfuncinfo$?PushMission@CvUnitMission@@SAXV?$FObjectHandle@VCvUnit@@@@W4MissionTypes@@HHH_N2W4MissionAITypes@@PAVCvPlot@@PAVCvUnit@@@Z
	jmp	___CxxFrameHandler3
text$x	ENDS
?PushMission@CvUnitMission@@SAXV?$FObjectHandle@VCvUnit@@@@W4MissionTypes@@HHH_N2W4MissionAITypes@@PAVCvPlot@@PAVCvUnit@@@Z ENDP ; CvUnitMission::PushMission
PUBLIC	??1?$auto_ptr@VICvUnit1@@@std@@QAE@XZ		; std::auto_ptr<ICvUnit1>::~auto_ptr<ICvUnit1>
PUBLIC	?DeleteMissionQueueNode@CvUnitMission@@CAPAUMissionData@@V?$FObjectHandle@VCvUnit@@@@PAU2@@Z ; CvUnitMission::DeleteMissionQueueNode
PUBLIC	?TailMissionQueueNode@CvUnitMission@@CAPAUMissionData@@AAV?$FFastSmallFixedList@UMissionData@@$0M@$00$0BCJ@$0A@@@@Z ; CvUnitMission::TailMissionQueueNode
PUBLIC	?PopMission@CvUnitMission@@SAXV?$FObjectHandle@VCvUnit@@@@@Z ; CvUnitMission::PopMission
EXTRN	??3CvDllUnit@@SAXPAX@Z:PROC			; CvDllUnit::operator delete
EXTRN	??0CvDllUnit@@QAE@PAVCvUnit@@@Z:PROC		; CvDllUnit::CvDllUnit
EXTRN	??2CvDllUnit@@SAPAXI@Z:PROC			; CvDllUnit::operator new
EXTRN	?getBuildType@CvUnit@@QBE?AW4BuildTypes@@XZ:PROC ; CvUnit::getBuildType
;	COMDAT xdata$x
; File d:\sources\lekmod_git\checkout\lekmod_dll\fireplace\include\fireworks\fobjecthandle.h
xdata$x	SEGMENT
__unwindtable$?PopMission@CvUnitMission@@SAXV?$FObjectHandle@VCvUnit@@@@@Z DD 0ffffffffH
	DD	FLAT:__unwindfunclet$?PopMission@CvUnitMission@@SAXV?$FObjectHandle@VCvUnit@@@@@Z$0
	DD	00H
	DD	FLAT:__unwindfunclet$?PopMission@CvUnitMission@@SAXV?$FObjectHandle@VCvUnit@@@@@Z$1
	DD	00H
	DD	FLAT:__unwindfunclet$?PopMission@CvUnitMission@@SAXV?$FObjectHandle@VCvUnit@@@@@Z$2
__ehfuncinfo$?PopMission@CvUnitMission@@SAXV?$FObjectHandle@VCvUnit@@@@@Z DD 019930522H
	DD	03H
	DD	FLAT:__unwindtable$?PopMission@CvUnitMission@@SAXV?$FObjectHandle@VCvUnit@@@@@Z
	DD	2 DUP(00H)
	DD	2 DUP(00H)
	DD	00H
	DD	01H
; Function compile flags: /Odtp
; File d:\sources\lekmod_git\checkout\lekmod_dll\cvgamecoredll_expansion2\cvunitmission.cpp
xdata$x	ENDS
;	COMDAT ?PopMission@CvUnitMission@@SAXV?$FObjectHandle@VCvUnit@@@@@Z
_TEXT	SEGMENT
tv215 = -112						; size = 4
tv182 = -108						; size = 4
tv172 = -104						; size = 4
$T219432 = -100						; size = 4
$T219422 = -96						; size = 4
_inst$219417 = -92					; size = 4
$T219413 = -88						; size = 4
$T219401 = -84						; size = 4
$T219394 = -80						; size = 4
$T219387 = -76						; size = 4
$T219378 = -72						; size = 4
$T219374 = -68						; size = 4
$T219370 = -64						; size = 4
$T219362 = -60						; size = 4
$T219359 = -56						; size = 4
$T219358 = -52						; size = 4
_pkRouteInfo$217577 = -48				; size = 4
_pkImprovementInfo$217573 = -44				; size = 4
_iResourceLoop$217568 = -40				; size = 4
_eImprovement$217558 = -36				; size = 4
_eRoute$217559 = -32					; size = 4
_iNumResource$217567 = -28				; size = 4
_pDllUnit$217632 = -24					; size = 4
_pkBuildInfo$217560 = -20				; size = 4
_pTailNode$ = -16					; size = 4
__$EHRec$ = -12						; size = 12
_hUnit$ = 8						; size = 8
?PopMission@CvUnitMission@@SAXV?$FObjectHandle@VCvUnit@@@@@Z PROC ; CvUnitMission::PopMission, COMDAT

; 257  : {

	push	ebp
	mov	ebp, esp
	push	-1
	push	__ehhandler$?PopMission@CvUnitMission@@SAXV?$FObjectHandle@VCvUnit@@@@@Z
	mov	eax, DWORD PTR fs:0
	push	eax
	sub	esp, 100				; 00000064H
	mov	eax, DWORD PTR ___security_cookie
	xor	eax, ebp
	push	eax
	lea	eax, DWORD PTR __$EHRec$[ebp]
	mov	DWORD PTR fs:0, eax
	mov	DWORD PTR __$EHRec$[ebp+8], 0

; 258  : 	CvAssert(hUnit->getOwner() != NO_PLAYER);
; 259  : 
; 260  : 	// Update Resource info
; 261  : 	if(hUnit->getBuildType() != NO_BUILD)

	mov	eax, DWORD PTR _hUnit$[ebp]
	mov	DWORD PTR $T219370[ebp], eax
	mov	ecx, DWORD PTR $T219370[ebp]
	call	?getBuildType@CvUnit@@QBE?AW4BuildTypes@@XZ ; CvUnit::getBuildType
	cmp	eax, -1
	je	$LN15@PopMission

; 262  : 	{
; 263  : 		ImprovementTypes eImprovement = NO_IMPROVEMENT;

	mov	DWORD PTR _eImprovement$217558[ebp], -1

; 264  : 		RouteTypes eRoute = NO_ROUTE;

	mov	DWORD PTR _eRoute$217559[ebp], -1

; 265  : 
; 266  : 		CvBuildInfo* pkBuildInfo = GC.getBuildInfo(hUnit->getBuildType());

	mov	ecx, DWORD PTR _hUnit$[ebp]
	mov	DWORD PTR $T219374[ebp], ecx
	mov	ecx, DWORD PTR $T219374[ebp]
	call	?getBuildType@CvUnit@@QBE?AW4BuildTypes@@XZ ; CvUnit::getBuildType
	push	eax
	mov	ecx, OFFSET ?gGlobals@@3VCvGlobals@@A	; gGlobals
	call	?getBuildInfo@CvGlobals@@QAEPAVCvBuildInfo@@W4BuildTypes@@@Z ; CvGlobals::getBuildInfo
	mov	DWORD PTR _pkBuildInfo$217560[ebp], eax

; 267  : 		if(pkBuildInfo)

	cmp	DWORD PTR _pkBuildInfo$217560[ebp], 0
	je	SHORT $LN14@PopMission

; 268  : 		{
; 269  : 			if(pkBuildInfo->getImprovement() != NO_IMPROVEMENT)

	mov	ecx, DWORD PTR _pkBuildInfo$217560[ebp]
	call	?getImprovement@CvBuildInfo@@QBEHXZ	; CvBuildInfo::getImprovement
	cmp	eax, -1
	je	SHORT $LN13@PopMission

; 270  : 			{
; 271  : 				eImprovement = (ImprovementTypes) pkBuildInfo->getImprovement();

	mov	ecx, DWORD PTR _pkBuildInfo$217560[ebp]
	call	?getImprovement@CvBuildInfo@@QBEHXZ	; CvBuildInfo::getImprovement
	mov	DWORD PTR _eImprovement$217558[ebp], eax
	jmp	SHORT $LN14@PopMission
$LN13@PopMission:

; 272  : 			}
; 273  : 			else if(pkBuildInfo->getRoute() != NO_ROUTE)

	mov	ecx, DWORD PTR _pkBuildInfo$217560[ebp]
	call	?getRoute@CvBuildInfo@@QBEHXZ		; CvBuildInfo::getRoute
	cmp	eax, -1
	je	SHORT $LN14@PopMission

; 274  : 			{
; 275  : 				eRoute = (RouteTypes) pkBuildInfo->getRoute();

	mov	ecx, DWORD PTR _pkBuildInfo$217560[ebp]
	call	?getRoute@CvBuildInfo@@QBEHXZ		; CvBuildInfo::getRoute
	mov	DWORD PTR _eRoute$217559[ebp], eax
$LN14@PopMission:

; 276  : 			}
; 277  : 		}
; 278  : 
; 279  : 		int iNumResource;
; 280  : 
; 281  : 		// Update the amount of a Resource used up by popped Build
; 282  : #ifdef AUI_WARNING_FIXES
; 283  : 		for (uint iResourceLoop = 0; iResourceLoop < GC.getNumResourceInfos(); iResourceLoop++)
; 284  : #else
; 285  : 		for(int iResourceLoop = 0; iResourceLoop < GC.getNumResourceInfos(); iResourceLoop++)

	mov	DWORD PTR _iResourceLoop$217568[ebp], 0
	jmp	SHORT $LN10@PopMission
$LN9@PopMission:
	mov	edx, DWORD PTR _iResourceLoop$217568[ebp]
	add	edx, 1
	mov	DWORD PTR _iResourceLoop$217568[ebp], edx
$LN10@PopMission:
	mov	ecx, OFFSET ?gGlobals@@3VCvGlobals@@A	; gGlobals
	call	?getNumResourceInfos@CvGlobals@@QAEHXZ	; CvGlobals::getNumResourceInfos
	cmp	DWORD PTR _iResourceLoop$217568[ebp], eax
	jge	$LN8@PopMission

; 286  : #endif
; 287  : 		{
; 288  : 			iNumResource = 0;

	mov	DWORD PTR _iNumResource$217567[ebp], 0

; 289  : 
; 290  : 			if(eImprovement != NO_IMPROVEMENT)

	cmp	DWORD PTR _eImprovement$217558[ebp], -1
	je	SHORT $LN7@PopMission

; 291  : 			{
; 292  : 				CvImprovementEntry* pkImprovementInfo = GC.getImprovementInfo(eImprovement);

	mov	eax, DWORD PTR _eImprovement$217558[ebp]
	push	eax
	mov	ecx, OFFSET ?gGlobals@@3VCvGlobals@@A	; gGlobals
	call	?getImprovementInfo@CvGlobals@@QAEPAVCvImprovementEntry@@W4ImprovementTypes@@@Z ; CvGlobals::getImprovementInfo
	mov	DWORD PTR _pkImprovementInfo$217573[ebp], eax

; 293  : 				if(pkImprovementInfo)

	cmp	DWORD PTR _pkImprovementInfo$217573[ebp], 0
	je	SHORT $LN6@PopMission

; 294  : 				{
; 295  : 					iNumResource += pkImprovementInfo->GetResourceQuantityRequirement(iResourceLoop);

	mov	ecx, DWORD PTR _iResourceLoop$217568[ebp]
	push	ecx
	mov	ecx, DWORD PTR _pkImprovementInfo$217573[ebp]
	call	?GetResourceQuantityRequirement@CvImprovementEntry@@QBEHH@Z ; CvImprovementEntry::GetResourceQuantityRequirement
	add	eax, DWORD PTR _iNumResource$217567[ebp]
	mov	DWORD PTR _iNumResource$217567[ebp], eax
$LN6@PopMission:

; 296  : 				}
; 297  : 			}

	jmp	SHORT $LN5@PopMission
$LN7@PopMission:

; 298  : 			else if(eRoute != NO_ROUTE)

	cmp	DWORD PTR _eRoute$217559[ebp], -1
	je	SHORT $LN5@PopMission

; 299  : 			{
; 300  : 				CvRouteInfo* pkRouteInfo = GC.getRouteInfo(eRoute);

	mov	edx, DWORD PTR _eRoute$217559[ebp]
	push	edx
	mov	ecx, OFFSET ?gGlobals@@3VCvGlobals@@A	; gGlobals
	call	?getRouteInfo@CvGlobals@@QAEPAVCvRouteInfo@@W4RouteTypes@@@Z ; CvGlobals::getRouteInfo
	mov	DWORD PTR _pkRouteInfo$217577[ebp], eax

; 301  : 				if(pkRouteInfo)

	cmp	DWORD PTR _pkRouteInfo$217577[ebp], 0
	je	SHORT $LN5@PopMission

; 302  : 				{
; 303  : 					iNumResource += pkRouteInfo->getResourceQuantityRequirement(iResourceLoop);

	mov	eax, DWORD PTR _iResourceLoop$217568[ebp]
	push	eax
	mov	ecx, DWORD PTR _pkRouteInfo$217577[ebp]
	call	?getResourceQuantityRequirement@CvRouteInfo@@QBEHH@Z ; CvRouteInfo::getResourceQuantityRequirement
	add	eax, DWORD PTR _iNumResource$217567[ebp]
	mov	DWORD PTR _iNumResource$217567[ebp], eax
$LN5@PopMission:

; 304  : 				}
; 305  : 			}
; 306  : 
; 307  : 			if(iNumResource > 0)

	cmp	DWORD PTR _iNumResource$217567[ebp], 0
	jle	SHORT $LN2@PopMission

; 308  : 			{
; 309  : 				GET_PLAYER(hUnit->getOwner()).changeNumResourceUsed((ResourceTypes) iResourceLoop, -iNumResource);

	mov	ecx, DWORD PTR _hUnit$[ebp]
	mov	DWORD PTR $T219378[ebp], ecx
	mov	edx, DWORD PTR $T219378[ebp]
	mov	eax, DWORD PTR [edx+40]
	mov	DWORD PTR $T219387[ebp], eax
	mov	ecx, DWORD PTR _iNumResource$217567[ebp]
	neg	ecx
	push	ecx
	mov	edx, DWORD PTR _iResourceLoop$217568[ebp]
	push	edx
	mov	ecx, DWORD PTR $T219387[ebp]
	imul	ecx, 63236				; 0000f704H
	add	ecx, DWORD PTR ?m_aPlayers@CvPlayerAI@@1PAV1@A ; CvPlayerAI::m_aPlayers
	call	?changeNumResourceUsed@CvPlayer@@QAEXW4ResourceTypes@@H@Z ; CvPlayer::changeNumResourceUsed
$LN2@PopMission:

; 310  : 			}
; 311  : 		}

	jmp	$LN9@PopMission
$LN8@PopMission:

; 312  : 
; 313  : 		auto_ptr<ICvUnit1> pDllUnit(new CvDllUnit(hUnit.pointer()));

	push	12					; 0000000cH
	call	??2CvDllUnit@@SAPAXI@Z			; CvDllUnit::operator new
	add	esp, 4
	mov	DWORD PTR $T219359[ebp], eax
	mov	BYTE PTR __$EHRec$[ebp+8], 1
	cmp	DWORD PTR $T219359[ebp], 0
	je	SHORT $LN18@PopMission
	mov	eax, DWORD PTR _hUnit$[ebp]
	mov	DWORD PTR $T219394[ebp], eax
	mov	ecx, DWORD PTR $T219394[ebp]
	push	ecx
	mov	ecx, DWORD PTR $T219359[ebp]
	call	??0CvDllUnit@@QAE@PAVCvUnit@@@Z		; CvDllUnit::CvDllUnit
	mov	DWORD PTR tv172[ebp], eax
	jmp	SHORT $LN19@PopMission
$LN18@PopMission:
	mov	DWORD PTR tv172[ebp], 0
$LN19@PopMission:
	mov	edx, DWORD PTR tv172[ebp]
	mov	DWORD PTR $T219358[ebp], edx
	mov	BYTE PTR __$EHRec$[ebp+8], 0
	mov	eax, DWORD PTR $T219358[ebp]
	mov	DWORD PTR _pDllUnit$217632[ebp], eax
	mov	BYTE PTR __$EHRec$[ebp+8], 2

; 314  : 		gDLL->GameplayUnitWork(pDllUnit.get(), -1);

	mov	ecx, DWORD PTR $T219401[ebp]
	mov	DWORD PTR tv182[ebp], ecx
	mov	edx, DWORD PTR ?gGlobals@@3VCvGlobals@@A+8564
	mov	DWORD PTR tv182[ebp], edx
	push	-1
	mov	eax, DWORD PTR _pDllUnit$217632[ebp]
	push	eax
	mov	ecx, DWORD PTR tv182[ebp]
	mov	edx, DWORD PTR [ecx]
	mov	ecx, DWORD PTR tv182[ebp]
	mov	eax, DWORD PTR [edx+612]
	call	eax

; 315  : 	}

	mov	BYTE PTR __$EHRec$[ebp+8], 0
	mov	ecx, DWORD PTR _pDllUnit$217632[ebp]
	mov	DWORD PTR $T219413[ebp], ecx
	cmp	DWORD PTR $T219413[ebp], 0
	je	SHORT $LN15@PopMission
	mov	edx, DWORD PTR $T219413[ebp]
	mov	DWORD PTR _inst$219417[ebp], edx
	mov	eax, DWORD PTR _inst$219417[ebp]
	mov	ecx, DWORD PTR [eax]
	mov	edx, DWORD PTR _inst$219417[ebp]
	push	edx
	mov	eax, DWORD PTR [ecx+4]
	call	eax
$LN15@PopMission:

; 316  : 
; 317  : 	MissionQueueNode* pTailNode = TailMissionQueueNode(hUnit->m_missionQueue);

	mov	ecx, DWORD PTR _hUnit$[ebp]
	mov	DWORD PTR $T219422[ebp], ecx
	mov	edx, DWORD PTR $T219422[ebp]
	add	edx, 2600				; 00000a28H
	push	edx
	call	?TailMissionQueueNode@CvUnitMission@@CAPAUMissionData@@AAV?$FFastSmallFixedList@UMissionData@@$0M@$00$0BCJ@$0A@@@@Z ; CvUnitMission::TailMissionQueueNode
	add	esp, 4
	mov	DWORD PTR _pTailNode$[ebp], eax

; 318  : 
; 319  : 	if(pTailNode != NULL)

	cmp	DWORD PTR _pTailNode$[ebp], 0
	je	SHORT $LN1@PopMission

; 320  : 	{
; 321  : 		DeleteMissionQueueNode(hUnit, pTailNode);

	mov	eax, DWORD PTR _pTailNode$[ebp]
	push	eax
	sub	esp, 8
	mov	ecx, esp
	mov	DWORD PTR $T219362[ebp], esp
	mov	DWORD PTR $T219432[ebp], ecx
	mov	edx, DWORD PTR $T219432[ebp]
	mov	eax, DWORD PTR _hUnit$[ebp]
	mov	DWORD PTR [edx], eax
	mov	ecx, DWORD PTR $T219432[ebp]
	mov	dl, BYTE PTR _hUnit$[ebp+4]
	mov	BYTE PTR [ecx+4], dl
	mov	eax, DWORD PTR $T219432[ebp]
	cmp	DWORD PTR [eax], 0
	je	SHORT $LN52@PopMission
	mov	ecx, DWORD PTR $T219432[ebp]
	mov	ecx, DWORD PTR [ecx]
	call	?getDestructionNotification@CvUnit@@QAEAAU?$DestructionNotification@V?$FObjectHandle@VCvUnit@@@@@@XZ ; CvUnit::getDestructionNotification
$LN52@PopMission:
	mov	edx, DWORD PTR $T219432[ebp]
	mov	DWORD PTR tv215[ebp], edx
	call	?DeleteMissionQueueNode@CvUnitMission@@CAPAUMissionData@@V?$FObjectHandle@VCvUnit@@@@PAU2@@Z ; CvUnitMission::DeleteMissionQueueNode
	add	esp, 12					; 0000000cH
$LN1@PopMission:

; 322  : 	}
; 323  : }

	mov	DWORD PTR __$EHRec$[ebp+8], -1
	cmp	DWORD PTR _hUnit$[ebp], 0
	je	SHORT $LN16@PopMission
	mov	ecx, DWORD PTR _hUnit$[ebp]
	call	?getDestructionNotification@CvUnit@@QAEAAU?$DestructionNotification@V?$FObjectHandle@VCvUnit@@@@@@XZ ; CvUnit::getDestructionNotification
$LN16@PopMission:
	mov	ecx, DWORD PTR __$EHRec$[ebp]
	mov	DWORD PTR fs:0, ecx
	pop	ecx
	mov	esp, ebp
	pop	ebp
	ret	0
_TEXT	ENDS
;	COMDAT text$x
text$x	SEGMENT
__unwindfunclet$?PopMission@CvUnitMission@@SAXV?$FObjectHandle@VCvUnit@@@@@Z$0:
	lea	ecx, DWORD PTR _hUnit$[ebp]
	jmp	??1?$FObjectHandle@VCvUnit@@@@QAE@XZ	; FObjectHandle<CvUnit>::~FObjectHandle<CvUnit>
__unwindfunclet$?PopMission@CvUnitMission@@SAXV?$FObjectHandle@VCvUnit@@@@@Z$1:
	mov	eax, DWORD PTR $T219359[ebp]
	push	eax
	call	??3CvDllUnit@@SAXPAX@Z			; CvDllUnit::operator delete
	pop	ecx
	ret	0
__unwindfunclet$?PopMission@CvUnitMission@@SAXV?$FObjectHandle@VCvUnit@@@@@Z$2:
	lea	ecx, DWORD PTR _pDllUnit$217632[ebp]
	jmp	??1?$auto_ptr@VICvUnit1@@@std@@QAE@XZ	; std::auto_ptr<ICvUnit1>::~auto_ptr<ICvUnit1>
__ehhandler$?PopMission@CvUnitMission@@SAXV?$FObjectHandle@VCvUnit@@@@@Z:
	mov	edx, DWORD PTR [esp+8]
	lea	eax, DWORD PTR [edx+12]
	mov	ecx, DWORD PTR [edx-104]
	xor	ecx, eax
	call	@__security_check_cookie@4
	mov	eax, OFFSET __ehfuncinfo$?PopMission@CvUnitMission@@SAXV?$FObjectHandle@VCvUnit@@@@@Z
	jmp	___CxxFrameHandler3
text$x	ENDS
?PopMission@CvUnitMission@@SAXV?$FObjectHandle@VCvUnit@@@@@Z ENDP ; CvUnitMission::PopMission
PUBLIC	?GrowSize@?$FStaticVector@UMissionData@@$0M@$00$0BCJ@$0A@@@IAEXI@Z ; FStaticVector<MissionData,12,1,297,0>::GrowSize
PUBLIC	?WaitFor@CvUnitMission@@SAXV?$FObjectHandle@VCvUnit@@@@0@Z ; CvUnitMission::WaitFor
EXTRN	?IsSelected@CvUnit@@QBE_NXZ:PROC		; CvUnit::IsSelected
EXTRN	?getMISSION_WAIT_FOR@CvTypes@@YA?BW4MissionTypes@@XZ:PROC ; CvTypes::getMISSION_WAIT_FOR
;	COMDAT xdata$x
; File d:\sources\lekmod_git\checkout\lekmod_dll\fireplace\include\fireworks\fobjecthandle.h
xdata$x	SEGMENT
__unwindtable$?WaitFor@CvUnitMission@@SAXV?$FObjectHandle@VCvUnit@@@@0@Z DD 0ffffffffH
	DD	FLAT:__unwindfunclet$?WaitFor@CvUnitMission@@SAXV?$FObjectHandle@VCvUnit@@@@0@Z$0
	DD	00H
	DD	FLAT:__unwindfunclet$?WaitFor@CvUnitMission@@SAXV?$FObjectHandle@VCvUnit@@@@0@Z$1
	DD	01H
	DD	FLAT:__unwindfunclet$?WaitFor@CvUnitMission@@SAXV?$FObjectHandle@VCvUnit@@@@0@Z$2
__ehfuncinfo$?WaitFor@CvUnitMission@@SAXV?$FObjectHandle@VCvUnit@@@@0@Z DD 019930522H
	DD	03H
	DD	FLAT:__unwindtable$?WaitFor@CvUnitMission@@SAXV?$FObjectHandle@VCvUnit@@@@0@Z
	DD	2 DUP(00H)
	DD	2 DUP(00H)
	DD	00H
	DD	01H
; Function compile flags: /Odtp
; File d:\sources\lekmod_git\checkout\lekmod_dll\cvgamecoredll_expansion2\cvunitmission.cpp
xdata$x	ENDS
;	COMDAT ?WaitFor@CvUnitMission@@SAXV?$FObjectHandle@VCvUnit@@@@0@Z
_TEXT	SEGMENT
tv189 = -156						; size = 4
tv177 = -152						; size = 4
tv165 = -148						; size = 4
tv84 = -144						; size = 4
$T219576 = -140						; size = 4
$T219572 = -136						; size = 4
$T219568 = -132						; size = 4
$T219564 = -128						; size = 4
$T219560 = -124						; size = 4
$T219556 = -120						; size = 4
$T219547 = -116						; size = 4
$T219519 = -112						; size = 4
$T219515 = -108						; size = 4
_iIdx$219540 = -104					; size = 4
_uSize$219539 = -100					; size = 4
$T219503 = -96						; size = 4
$T219499 = -92						; size = 4
$T219490 = -88						; size = 4
$T219486 = -84						; size = 4
$T219477 = -80						; size = 4
$T219470 = -76						; size = 4
$T219466 = -72						; size = 4
$T219457 = -68						; size = 4
$T219450 = -64						; size = 28
_mission$ = -36						; size = 20
_kQueue$ = -16						; size = 4
__$EHRec$ = -12						; size = 12
_hUnit$ = 8						; size = 8
_hWaitForUnit$ = 16					; size = 8
?WaitFor@CvUnitMission@@SAXV?$FObjectHandle@VCvUnit@@@@0@Z PROC ; CvUnitMission::WaitFor, COMDAT

; 328  : {

	push	ebp
	mov	ebp, esp
	push	-1
	push	__ehhandler$?WaitFor@CvUnitMission@@SAXV?$FObjectHandle@VCvUnit@@@@0@Z
	mov	eax, DWORD PTR fs:0
	push	eax
	sub	esp, 144				; 00000090H
	mov	eax, DWORD PTR ___security_cookie
	xor	eax, ebp
	push	eax
	lea	eax, DWORD PTR __$EHRec$[ebp]
	mov	DWORD PTR fs:0, eax
	mov	DWORD PTR __$EHRec$[ebp+8], 1

; 329  : 	if(CvPreGame::isHuman(hUnit->getOwner()))

	mov	eax, DWORD PTR _hUnit$[ebp]
	mov	DWORD PTR $T219457[ebp], eax
	mov	ecx, DWORD PTR $T219457[ebp]
	mov	edx, DWORD PTR [ecx+40]
	mov	DWORD PTR $T219466[ebp], edx
	mov	eax, DWORD PTR $T219466[ebp]
	push	eax
	call	?isHuman@CvPreGame@@YA_NW4PlayerTypes@@@Z ; CvPreGame::isHuman
	add	esp, 4
	movzx	ecx, al
	test	ecx, ecx
	je	SHORT $LN3@WaitFor

; 330  : 	{
; 331  : 		CvAssertMsg(CvUnit::dispatchingNetMessage(), "Multiplayer Error! CvUnit::PushMission invoked for a human player outside of a network message!");
; 332  : 		if(!CvUnit::dispatchingNetMessage())

	call	?dispatchingNetMessage@CvUnit@@SA_NXZ	; CvUnit::dispatchingNetMessage
	movzx	edx, al
	test	edx, edx
	jne	SHORT $LN3@WaitFor

; 333  : 			gDLL->netMessageDebugLog("*** PROTOCOL ERROR *** : PushMission invoked for a human controlled player outside of a network message!");

	push	OFFSET ??_C@_0GJ@FFAHDLIK@?$CK?$CK?$CK?5PROTOCOL?5ERROR?5?$CK?$CK?$CK?5?3?5PushMis@
	lea	ecx, DWORD PTR $T219450[ebp]
	call	DWORD PTR __imp_??0?$basic_string@DU?$char_traits@D@std@@V?$allocator@D@2@@std@@QAE@PBD@Z
	mov	BYTE PTR __$EHRec$[ebp+8], 2
	mov	eax, DWORD PTR $T219470[ebp]
	mov	DWORD PTR tv84[ebp], eax
	mov	ecx, DWORD PTR ?gGlobals@@3VCvGlobals@@A+8564
	mov	DWORD PTR tv84[ebp], ecx
	lea	edx, DWORD PTR $T219450[ebp]
	push	edx
	mov	eax, DWORD PTR tv84[ebp]
	mov	edx, DWORD PTR [eax]
	mov	ecx, DWORD PTR tv84[ebp]
	mov	eax, DWORD PTR [edx+76]
	call	eax
	mov	BYTE PTR __$EHRec$[ebp+8], 1
	lea	ecx, DWORD PTR $T219450[ebp]
	call	DWORD PTR __imp_??1?$basic_string@DU?$char_traits@D@std@@V?$allocator@D@2@@std@@QAE@XZ
$LN3@WaitFor:

; 334  : 	}
; 335  : 
; 336  : 	CvAssert(hUnit->getOwner() != NO_PLAYER);
; 337  : 
; 338  : 	MissionData mission;

	mov	DWORD PTR _mission$[ebp], -1
	mov	DWORD PTR _mission$[ebp+4], 0
	mov	DWORD PTR _mission$[ebp+8], 0
	mov	DWORD PTR _mission$[ebp+12], 0
	mov	DWORD PTR _mission$[ebp+16], 0

; 339  : 	mission.eMissionType = CvTypes::getMISSION_WAIT_FOR();

	call	?getMISSION_WAIT_FOR@CvTypes@@YA?BW4MissionTypes@@XZ ; CvTypes::getMISSION_WAIT_FOR
	mov	DWORD PTR _mission$[ebp], eax

; 340  : 	mission.iData1 = hWaitForUnit->getOwner();

	mov	ecx, DWORD PTR _hWaitForUnit$[ebp]
	mov	DWORD PTR $T219477[ebp], ecx
	mov	edx, DWORD PTR $T219477[ebp]
	mov	eax, DWORD PTR [edx+40]
	mov	DWORD PTR $T219486[ebp], eax
	mov	ecx, DWORD PTR $T219486[ebp]
	mov	DWORD PTR _mission$[ebp+4], ecx

; 341  : 	mission.iData2 = hWaitForUnit->GetID();

	mov	edx, DWORD PTR _hWaitForUnit$[ebp]
	mov	DWORD PTR $T219490[ebp], edx
	mov	eax, DWORD PTR $T219490[ebp]
	mov	ecx, DWORD PTR [eax+100]
	mov	DWORD PTR $T219499[ebp], ecx
	mov	edx, DWORD PTR $T219499[ebp]
	mov	DWORD PTR _mission$[ebp+8], edx

; 342  : 	mission.iFlags = 0;

	mov	DWORD PTR _mission$[ebp+12], 0

; 343  : 	mission.iPushTurn = GC.getGame().getGameTurn();

	mov	eax, DWORD PTR ?gGlobals@@3VCvGlobals@@A+48
	mov	DWORD PTR $T219503[ebp], eax
	mov	ecx, DWORD PTR $T219503[ebp]
	call	?getGameTurn@CvGame@@QAEHXZ		; CvGame::getGameTurn
	mov	DWORD PTR _mission$[ebp+16], eax

; 344  : 
; 345  : 	MissionQueue& kQueue = hUnit->m_missionQueue;

	mov	ecx, DWORD PTR _hUnit$[ebp]
	add	ecx, 2600				; 00000a28H
	mov	DWORD PTR _kQueue$[ebp], ecx

; 346  : 
; 347  : 	//  Insert head of mission list
; 348  : 	kQueue.insertAtBeginning(&mission);

	mov	edx, DWORD PTR _kQueue$[ebp]
	mov	eax, DWORD PTR [edx+4]
	mov	DWORD PTR _uSize$219539[ebp], eax
	mov	ecx, DWORD PTR _uSize$219539[ebp]
	add	ecx, 1
	mov	DWORD PTR $T219515[ebp], ecx
	mov	edx, DWORD PTR _kQueue$[ebp]
	mov	eax, DWORD PTR [edx+8]
	cmp	eax, DWORD PTR $T219515[ebp]
	jae	SHORT $LN42@WaitFor
	mov	ecx, DWORD PTR $T219515[ebp]
	push	ecx
	mov	ecx, DWORD PTR _kQueue$[ebp]
	call	?GrowSize@?$FStaticVector@UMissionData@@$0M@$00$0BCJ@$0A@@@IAEXI@Z ; FStaticVector<MissionData,12,1,297,0>::GrowSize
$LN42@WaitFor:
	mov	edx, DWORD PTR _kQueue$[ebp]
	mov	eax, DWORD PTR $T219515[ebp]
	mov	DWORD PTR [edx+4], eax
	mov	ecx, DWORD PTR _uSize$219539[ebp]
	mov	DWORD PTR _iIdx$219540[ebp], ecx
	jmp	SHORT $LN37@WaitFor
$LN36@WaitFor:
	mov	edx, DWORD PTR _iIdx$219540[ebp]
	sub	edx, 1
	mov	DWORD PTR _iIdx$219540[ebp], edx
$LN37@WaitFor:
	cmp	DWORD PTR _iIdx$219540[ebp], 1
	jl	SHORT $LN49@WaitFor
	mov	eax, DWORD PTR _iIdx$219540[ebp]
	sub	eax, 1
	imul	eax, 20					; 00000014H
	mov	ecx, DWORD PTR _kQueue$[ebp]
	add	eax, DWORD PTR [ecx]
	mov	DWORD PTR $T219519[ebp], eax
	mov	edx, DWORD PTR $T219519[ebp]
	mov	eax, DWORD PTR _iIdx$219540[ebp]
	imul	eax, 20					; 00000014H
	mov	ecx, DWORD PTR _kQueue$[ebp]
	mov	ecx, DWORD PTR [ecx]
	add	ecx, eax
	mov	eax, DWORD PTR [edx]
	mov	DWORD PTR [ecx], eax
	mov	eax, DWORD PTR [edx+4]
	mov	DWORD PTR [ecx+4], eax
	mov	eax, DWORD PTR [edx+8]
	mov	DWORD PTR [ecx+8], eax
	mov	eax, DWORD PTR [edx+12]
	mov	DWORD PTR [ecx+12], eax
	mov	edx, DWORD PTR [edx+16]
	mov	DWORD PTR [ecx+16], edx
	jmp	SHORT $LN36@WaitFor
$LN49@WaitFor:
	xor	eax, eax
	imul	eax, 20					; 00000014H
	mov	ecx, DWORD PTR _kQueue$[ebp]
	mov	edx, DWORD PTR [ecx]
	add	edx, eax
	mov	eax, DWORD PTR _mission$[ebp]
	mov	DWORD PTR [edx], eax
	mov	ecx, DWORD PTR _mission$[ebp+4]
	mov	DWORD PTR [edx+4], ecx
	mov	eax, DWORD PTR _mission$[ebp+8]
	mov	DWORD PTR [edx+8], eax
	mov	ecx, DWORD PTR _mission$[ebp+12]
	mov	DWORD PTR [edx+12], ecx
	mov	eax, DWORD PTR _mission$[ebp+16]
	mov	DWORD PTR [edx+16], eax

; 349  : 
; 350  : 	CvAssert(kQueue.getLength() < 10);
; 351  : 
; 352  : 	if((hUnit->getOwner() == GC.getGame().getActivePlayer()) && hUnit->IsSelected())

	mov	ecx, DWORD PTR _hUnit$[ebp]
	mov	DWORD PTR $T219547[ebp], ecx
	mov	edx, DWORD PTR $T219547[ebp]
	mov	eax, DWORD PTR [edx+40]
	mov	DWORD PTR $T219556[ebp], eax
	mov	ecx, DWORD PTR ?gGlobals@@3VCvGlobals@@A+48
	mov	DWORD PTR $T219560[ebp], ecx
	mov	ecx, DWORD PTR $T219560[ebp]
	call	?getActivePlayer@CvGame@@QBE?AW4PlayerTypes@@XZ ; CvGame::getActivePlayer
	cmp	DWORD PTR $T219556[ebp], eax
	jne	$LN1@WaitFor
	mov	edx, DWORD PTR _hUnit$[ebp]
	mov	DWORD PTR $T219564[ebp], edx
	mov	ecx, DWORD PTR $T219564[ebp]
	call	?IsSelected@CvUnit@@QBE_NXZ		; CvUnit::IsSelected
	movzx	eax, al
	test	eax, eax
	je	$LN1@WaitFor

; 353  : 	{
; 354  : 		GC.GetEngineUserInterface()->setDirty(Waypoints_DIRTY_BIT, true);

	mov	ecx, DWORD PTR $T219568[ebp]
	mov	DWORD PTR tv165[ebp], ecx
	mov	edx, DWORD PTR ?gGlobals@@3VCvGlobals@@A+8568
	mov	DWORD PTR tv165[ebp], edx
	push	1
	push	2
	mov	eax, DWORD PTR tv165[ebp]
	mov	edx, DWORD PTR [eax]
	mov	ecx, DWORD PTR tv165[ebp]
	mov	eax, DWORD PTR [edx+260]
	call	eax

; 355  : 		GC.GetEngineUserInterface()->setDirty(SelectionButtons_DIRTY_BIT, true);

	mov	ecx, DWORD PTR $T219572[ebp]
	mov	DWORD PTR tv177[ebp], ecx
	mov	edx, DWORD PTR ?gGlobals@@3VCvGlobals@@A+8568
	mov	DWORD PTR tv177[ebp], edx
	push	1
	push	6
	mov	eax, DWORD PTR tv177[ebp]
	mov	edx, DWORD PTR [eax]
	mov	ecx, DWORD PTR tv177[ebp]
	mov	eax, DWORD PTR [edx+260]
	call	eax

; 356  : 		GC.GetEngineUserInterface()->setDirty(UnitInfo_DIRTY_BIT, true);

	mov	ecx, DWORD PTR $T219576[ebp]
	mov	DWORD PTR tv189[ebp], ecx
	mov	edx, DWORD PTR ?gGlobals@@3VCvGlobals@@A+8568
	mov	DWORD PTR tv189[ebp], edx
	push	1
	push	19					; 00000013H
	mov	eax, DWORD PTR tv189[ebp]
	mov	edx, DWORD PTR [eax]
	mov	ecx, DWORD PTR tv189[ebp]
	mov	eax, DWORD PTR [edx+260]
	call	eax
$LN1@WaitFor:

; 357  : 	}
; 358  : }

	mov	BYTE PTR __$EHRec$[ebp+8], 0
	cmp	DWORD PTR _hUnit$[ebp], 0
	je	SHORT $LN68@WaitFor
	mov	ecx, DWORD PTR _hUnit$[ebp]
	call	?getDestructionNotification@CvUnit@@QAEAAU?$DestructionNotification@V?$FObjectHandle@VCvUnit@@@@@@XZ ; CvUnit::getDestructionNotification
$LN68@WaitFor:
	mov	DWORD PTR __$EHRec$[ebp+8], -1
	cmp	DWORD PTR _hWaitForUnit$[ebp], 0
	je	SHORT $LN4@WaitFor
	mov	ecx, DWORD PTR _hWaitForUnit$[ebp]
	call	?getDestructionNotification@CvUnit@@QAEAAU?$DestructionNotification@V?$FObjectHandle@VCvUnit@@@@@@XZ ; CvUnit::getDestructionNotification
$LN4@WaitFor:
	mov	ecx, DWORD PTR __$EHRec$[ebp]
	mov	DWORD PTR fs:0, ecx
	pop	ecx
	mov	esp, ebp
	pop	ebp
	ret	0
_TEXT	ENDS
;	COMDAT text$x
text$x	SEGMENT
__unwindfunclet$?WaitFor@CvUnitMission@@SAXV?$FObjectHandle@VCvUnit@@@@0@Z$0:
	lea	ecx, DWORD PTR _hWaitForUnit$[ebp]
	jmp	??1?$FObjectHandle@VCvUnit@@@@QAE@XZ	; FObjectHandle<CvUnit>::~FObjectHandle<CvUnit>
__unwindfunclet$?WaitFor@CvUnitMission@@SAXV?$FObjectHandle@VCvUnit@@@@0@Z$1:
	lea	ecx, DWORD PTR _hUnit$[ebp]
	jmp	??1?$FObjectHandle@VCvUnit@@@@QAE@XZ	; FObjectHandle<CvUnit>::~FObjectHandle<CvUnit>
__unwindfunclet$?WaitFor@CvUnitMission@@SAXV?$FObjectHandle@VCvUnit@@@@0@Z$2:
	lea	ecx, DWORD PTR $T219450[ebp]
	jmp	DWORD PTR __imp_??1?$basic_string@DU?$char_traits@D@std@@V?$allocator@D@2@@std@@QAE@XZ
__ehhandler$?WaitFor@CvUnitMission@@SAXV?$FObjectHandle@VCvUnit@@@@0@Z:
	mov	edx, DWORD PTR [esp+8]
	lea	eax, DWORD PTR [edx+12]
	mov	ecx, DWORD PTR [edx-148]
	xor	ecx, eax
	call	@__security_check_cookie@4
	mov	eax, OFFSET __ehfuncinfo$?WaitFor@CvUnitMission@@SAXV?$FObjectHandle@VCvUnit@@@@0@Z
	jmp	___CxxFrameHandler3
text$x	ENDS
?WaitFor@CvUnitMission@@SAXV?$FObjectHandle@VCvUnit@@@@0@Z ENDP ; CvUnitMission::WaitFor
PUBLIC	?UpdateMission@CvUnitMission@@SAXAAV?$FObjectHandle@VCvUnit@@@@@Z ; CvUnitMission::UpdateMission
EXTRN	?ChangeMissionTimer@CvUnit@@QAEXH@Z:PROC	; CvUnit::ChangeMissionTimer
EXTRN	?GetMissionTimer@CvUnit@@QBEHXZ:PROC		; CvUnit::GetMissionTimer
; Function compile flags: /Odtp
;	COMDAT ?UpdateMission@CvUnitMission@@SAXAAV?$FObjectHandle@VCvUnit@@@@@Z
_TEXT	SEGMENT
tv147 = -48						; size = 4
tv154 = -44						; size = 4
$T219651 = -40						; size = 4
$T219647 = -36						; size = 4
$T219643 = -32						; size = 4
$T219634 = -28						; size = 4
$T219630 = -24						; size = 4
$T219620 = -20						; size = 4
$T219616 = -16						; size = 4
$T219612 = -12						; size = 4
$T219608 = -8						; size = 4
$T219603 = -4						; size = 4
_hUnit$ = 8						; size = 4
?UpdateMission@CvUnitMission@@SAXAAV?$FObjectHandle@VCvUnit@@@@@Z PROC ; CvUnitMission::UpdateMission, COMDAT

; 363  : {

	push	ebp
	mov	ebp, esp
	sub	esp, 48					; 00000030H

; 364  : 	CvAssert(hUnit->getOwner() != NO_PLAYER);
; 365  : 
; 366  : 	if(hUnit->GetMissionTimer() > 0)

	mov	eax, DWORD PTR _hUnit$[ebp]
	mov	ecx, DWORD PTR [eax]
	mov	DWORD PTR $T219608[ebp], ecx
	mov	ecx, DWORD PTR $T219608[ebp]
	call	?GetMissionTimer@CvUnit@@QBEHXZ		; CvUnit::GetMissionTimer
	test	eax, eax
	jle	$LN6@UpdateMiss

; 367  : 	{
; 368  : 		hUnit->ChangeMissionTimer(-1);

	mov	edx, DWORD PTR _hUnit$[ebp]
	mov	eax, DWORD PTR [edx]
	mov	DWORD PTR $T219612[ebp], eax
	push	-1
	mov	ecx, DWORD PTR $T219612[ebp]
	call	?ChangeMissionTimer@CvUnit@@QAEXH@Z	; CvUnit::ChangeMissionTimer

; 369  : 
; 370  : 		if(hUnit->GetMissionTimer() == 0)

	mov	ecx, DWORD PTR _hUnit$[ebp]
	mov	edx, DWORD PTR [ecx]
	mov	DWORD PTR $T219616[ebp], edx
	mov	ecx, DWORD PTR $T219616[ebp]
	call	?GetMissionTimer@CvUnit@@QBEHXZ		; CvUnit::GetMissionTimer
	test	eax, eax
	jne	$LN6@UpdateMiss

; 371  : 		{
; 372  : 			if(hUnit->GetActivityType() == ACTIVITY_MISSION)

	mov	eax, DWORD PTR _hUnit$[ebp]
	mov	ecx, DWORD PTR [eax]
	mov	DWORD PTR $T219620[ebp], ecx
	mov	ecx, DWORD PTR $T219620[ebp]
	call	?GetActivityType@CvUnit@@QBE?AW4ActivityTypes@@XZ ; CvUnit::GetActivityType
	cmp	eax, 6
	jne	SHORT $LN3@UpdateMiss

; 373  : 			{
; 374  : 				ContinueMission(hUnit);

	push	-1
	push	0
	sub	esp, 8
	mov	edx, esp
	mov	DWORD PTR $T219603[ebp], esp
	mov	DWORD PTR $T219630[ebp], edx
	mov	eax, DWORD PTR $T219630[ebp]
	mov	ecx, DWORD PTR _hUnit$[ebp]
	mov	edx, DWORD PTR [ecx]
	mov	DWORD PTR [eax], edx
	mov	eax, DWORD PTR $T219630[ebp]
	mov	ecx, DWORD PTR _hUnit$[ebp]
	mov	dl, BYTE PTR [ecx+4]
	mov	BYTE PTR [eax+4], dl
	mov	eax, DWORD PTR $T219630[ebp]
	cmp	DWORD PTR [eax], 0
	je	SHORT $LN18@UpdateMiss
	mov	ecx, DWORD PTR $T219630[ebp]
	mov	ecx, DWORD PTR [ecx]
	call	?getDestructionNotification@CvUnit@@QAEAAU?$DestructionNotification@V?$FObjectHandle@VCvUnit@@@@@@XZ ; CvUnit::getDestructionNotification
$LN18@UpdateMiss:
	mov	edx, DWORD PTR $T219630[ebp]
	mov	DWORD PTR tv154[ebp], edx
	call	?ContinueMission@CvUnitMission@@SAXV?$FObjectHandle@VCvUnit@@@@HH@Z ; CvUnitMission::ContinueMission
	add	esp, 16					; 00000010H

; 375  : 			}
; 376  : 			else

	jmp	SHORT $LN6@UpdateMiss
$LN3@UpdateMiss:

; 377  : 			{
; 378  : 				if(hUnit->getOwner() == GC.getGame().getActivePlayer())

	mov	eax, DWORD PTR _hUnit$[ebp]
	mov	ecx, DWORD PTR [eax]
	mov	DWORD PTR $T219634[ebp], ecx
	mov	edx, DWORD PTR $T219634[ebp]
	mov	eax, DWORD PTR [edx+40]
	mov	DWORD PTR $T219643[ebp], eax
	mov	ecx, DWORD PTR ?gGlobals@@3VCvGlobals@@A+48
	mov	DWORD PTR $T219647[ebp], ecx
	mov	ecx, DWORD PTR $T219647[ebp]
	call	?getActivePlayer@CvGame@@QBE?AW4PlayerTypes@@XZ ; CvGame::getActivePlayer
	cmp	DWORD PTR $T219643[ebp], eax
	jne	SHORT $LN6@UpdateMiss

; 379  : 				{
; 380  : 					//if (GC.GetEngineUserInterface()->GetHeadSelectedUnit() == NULL)
; 381  : 					{
; 382  : 						GC.GetEngineUserInterface()->changeCycleSelectionCounter(1);

	mov	edx, DWORD PTR $T219651[ebp]
	mov	DWORD PTR tv147[ebp], edx
	mov	eax, DWORD PTR ?gGlobals@@3VCvGlobals@@A+8568
	mov	DWORD PTR tv147[ebp], eax
	push	1
	mov	ecx, DWORD PTR tv147[ebp]
	mov	edx, DWORD PTR [ecx]
	mov	ecx, DWORD PTR tv147[ebp]
	mov	eax, DWORD PTR [edx+224]
	call	eax
$LN6@UpdateMiss:

; 383  : 					}
; 384  : 				}
; 385  : 			}
; 386  : 		}
; 387  : 	}
; 388  : }

	mov	esp, ebp
	pop	ebp
	ret	0
?UpdateMission@CvUnitMission@@SAXAAV?$FObjectHandle@VCvUnit@@@@@Z ENDP ; CvUnitMission::UpdateMission
_TEXT	ENDS
PUBLIC	??1?$auto_ptr@VICvPlot1@@@std@@QAE@XZ		; std::auto_ptr<ICvPlot1>::~auto_ptr<ICvPlot1>
PUBLIC	?UpdateMissionTimer@CvUnitMission@@SAXV?$FObjectHandle@VCvUnit@@@@H@Z ; CvUnitMission::UpdateMissionTimer
PUBLIC	?isPlot@CvMap@@QBEHHH@Z				; CvMap::isPlot
PUBLIC	?HeadMissionQueueNode@CvUnitMission@@CAPBUMissionData@@ABV?$FFastSmallFixedList@UMissionData@@$0M@$00$0BCJ@$0A@@@@Z ; CvUnitMission::HeadMissionQueueNode
PUBLIC	??_C@_0CA@INKFIMDI@TXT_KEY_ADVISOR_BAD_ATTACK_BODY?$AA@ ; `string'
PUBLIC	??_C@_0CB@PKJLOIOI@TXT_KEY_ADVISOR_CITY_ATTACK_BODY@ ; `string'
PUBLIC	?isCity@CvPlot@@QBE_NXZ				; CvPlot::isCity
PUBLIC	?coordRange@@YAHHH_N@Z				; coordRange
PUBLIC	?insert@?$_Tree@V?$_Tset_traits@PAVFAutoVariableBase@@U?$less@PAVFAutoVariableBase@@@std@@V?$allocator@PAVFAutoVariableBase@@@3@$0A@@std@@@std@@QAE?AU?$pair@Viterator@?$_Tree@V?$_Tset_traits@PAVFAutoVariableBase@@U?$less@PAVFAutoVariableBase@@@std@@V?$allocator@PAVFAutoVariableBase@@@3@$0A@@std@@@std@@_N@2@ABQAVFAutoVariableBase@@@Z ; std::_Tree<std::_Tset_traits<FAutoVariableBase *,std::less<FAutoVariableBase *>,std::allocator<FAutoVariableBase *>,0> >::insert
PUBLIC	__$ArrayPad$
EXTRN	?SetCombatWarned@CvGame@@QAEX_N@Z:PROC		; CvGame::SetCombatWarned
EXTRN	?PublishQueuedVisualizationMoves@CvUnit@@IAEXXZ:PROC ; CvUnit::PublishQueuedVisualizationMoves
EXTRN	?isOption@CvPlayer@@QBE_NW4PlayerOptionTypes@@@Z:PROC ; CvPlayer::isOption
EXTRN	?isInCombat@CvUnit@@QBE_NXZ:PROC		; CvUnit::isInCombat
EXTRN	?IsWork@CvUnit@@QBE_NXZ:PROC			; CvUnit::IsWork
EXTRN	?WrapPlotPointer@CvGlobals@@QAE?AV?$auto_ptr@VICvPlot1@@@std@@PAVCvPlot@@@Z:PROC ; CvGlobals::WrapPlotPointer
EXTRN	?isActiveVisible@CvPlot@@QBE_N_N@Z:PROC		; CvPlot::isActiveVisible
EXTRN	?ShowMoves@CvUnit@@QBE_NXZ:PROC			; CvUnit::ShowMoves
EXTRN	?isVisibleToWatchingHuman@CvPlot@@QBE_NXZ:PROC	; CvPlot::isVisibleToWatchingHuman
EXTRN	?getMISSION_CHANGE_ADMIRAL_PORT@CvTypes@@YA?BW4MissionTypes@@XZ:PROC ; CvTypes::getMISSION_CHANGE_ADMIRAL_PORT
EXTRN	?getMISSION_ONE_SHOT_TOURISM@CvTypes@@YA?BW4MissionTypes@@XZ:PROC ; CvTypes::getMISSION_ONE_SHOT_TOURISM
EXTRN	?getMISSION_GIVE_POLICIES@CvTypes@@YA?BW4MissionTypes@@XZ:PROC ; CvTypes::getMISSION_GIVE_POLICIES
EXTRN	?getMISSION_SELL_EXOTIC_GOODS@CvTypes@@YA?BW4MissionTypes@@XZ:PROC ; CvTypes::getMISSION_SELL_EXOTIC_GOODS
EXTRN	?getMISSION_CHANGE_TRADE_UNIT_HOME_CITY@CvTypes@@YA?BW4MissionTypes@@XZ:PROC ; CvTypes::getMISSION_CHANGE_TRADE_UNIT_HOME_CITY
EXTRN	?getMISSION_GREAT_WORK@CvTypes@@YA?BW4MissionTypes@@XZ:PROC ; CvTypes::getMISSION_GREAT_WORK
EXTRN	?getMISSION_PLUNDER_TRADE_ROUTE@CvTypes@@YA?BW4MissionTypes@@XZ:PROC ; CvTypes::getMISSION_PLUNDER_TRADE_ROUTE
EXTRN	?getMISSION_ESTABLISH_TRADE_ROUTE@CvTypes@@YA?BW4MissionTypes@@XZ:PROC ; CvTypes::getMISSION_ESTABLISH_TRADE_ROUTE
EXTRN	?getMISSION_REMOVE_HERESY@CvTypes@@YA?BW4MissionTypes@@XZ:PROC ; CvTypes::getMISSION_REMOVE_HERESY
EXTRN	?getMISSION_ENHANCE_RELIGION@CvTypes@@YA?BW4MissionTypes@@XZ:PROC ; CvTypes::getMISSION_ENHANCE_RELIGION
EXTRN	?getMISSION_SPREAD_RELIGION@CvTypes@@YA?BW4MissionTypes@@XZ:PROC ; CvTypes::getMISSION_SPREAD_RELIGION
EXTRN	?getMISSION_DIE_ANIMATION@CvTypes@@YA?BW4MissionTypes@@XZ:PROC ; CvTypes::getMISSION_DIE_ANIMATION
EXTRN	?getMISSION_LEAD@CvTypes@@YA?BW4MissionTypes@@XZ:PROC ; CvTypes::getMISSION_LEAD
EXTRN	?getMISSION_GOLDEN_AGE@CvTypes@@YA?BW4MissionTypes@@XZ:PROC ; CvTypes::getMISSION_GOLDEN_AGE
EXTRN	?getMISSION_FOUND_RELIGION@CvTypes@@YA?BW4MissionTypes@@XZ:PROC ; CvTypes::getMISSION_FOUND_RELIGION
EXTRN	?getMISSION_CULTURE_BOMB@CvTypes@@YA?BW4MissionTypes@@XZ:PROC ; CvTypes::getMISSION_CULTURE_BOMB
EXTRN	?getMISSION_SPACESHIP@CvTypes@@YA?BW4MissionTypes@@XZ:PROC ; CvTypes::getMISSION_SPACESHIP
EXTRN	?getMISSION_REPAIR_FLEET@CvTypes@@YA?BW4MissionTypes@@XZ:PROC ; CvTypes::getMISSION_REPAIR_FLEET
EXTRN	?getMISSION_BUY_CITY_STATE@CvTypes@@YA?BW4MissionTypes@@XZ:PROC ; CvTypes::getMISSION_BUY_CITY_STATE
EXTRN	?getMISSION_TRADE@CvTypes@@YA?BW4MissionTypes@@XZ:PROC ; CvTypes::getMISSION_TRADE
EXTRN	?getMISSION_HURRY@CvTypes@@YA?BW4MissionTypes@@XZ:PROC ; CvTypes::getMISSION_HURRY
EXTRN	?getMISSION_DISCOVER@CvTypes@@YA?BW4MissionTypes@@XZ:PROC ; CvTypes::getMISSION_DISCOVER
EXTRN	?getMISSION_CONSTRUCT@CvTypes@@YA?BW4MissionTypes@@XZ:PROC ; CvTypes::getMISSION_CONSTRUCT
EXTRN	?getMISSION_JOIN@CvTypes@@YA?BW4MissionTypes@@XZ:PROC ; CvTypes::getMISSION_JOIN
EXTRN	?getMISSION_FOUND@CvTypes@@YA?BW4MissionTypes@@XZ:PROC ; CvTypes::getMISSION_FOUND
EXTRN	?getMISSION_PILLAGE@CvTypes@@YA?BW4MissionTypes@@XZ:PROC ; CvTypes::getMISSION_PILLAGE
EXTRN	?getMISSION_REBASE@CvTypes@@YA?BW4MissionTypes@@XZ:PROC ; CvTypes::getMISSION_REBASE
EXTRN	?getMISSION_AIR_SWEEP@CvTypes@@YA?BW4MissionTypes@@XZ:PROC ; CvTypes::getMISSION_AIR_SWEEP
EXTRN	?getMISSION_PARADROP@CvTypes@@YA?BW4MissionTypes@@XZ:PROC ; CvTypes::getMISSION_PARADROP
EXTRN	?getMISSION_AIRLIFT@CvTypes@@YA?BW4MissionTypes@@XZ:PROC ; CvTypes::getMISSION_AIRLIFT
EXTRN	?getMISSION_SET_UP_FOR_RANGED_ATTACK@CvTypes@@YA?BW4MissionTypes@@XZ:PROC ; CvTypes::getMISSION_SET_UP_FOR_RANGED_ATTACK
EXTRN	?GetBestBuildRoute@CvUnit@@QBE?AW4RouteTypes@@PAVCvPlot@@PAW4BuildTypes@@@Z:PROC ; CvUnit::GetBestBuildRoute
EXTRN	?at@CvUnit@@QBE_NHH@Z:PROC			; CvUnit::at
EXTRN	?HeadMissionQueueNode@CvUnit@@IAEPAUMissionData@@XZ:PROC ; CvUnit::HeadMissionQueueNode
EXTRN	?UnitBuild@CvUnit@@QAE_NW4BuildTypes@@@Z:PROC	; CvUnit::UnitBuild
EXTRN	?AttackNuclear@CvUnitCombat@@SA?AW4ATTACK_RESULT@1@AAVCvUnit@@HHW4ATTACK_OPTION@1@@Z:PROC ; CvUnitCombat::AttackNuclear
EXTRN	?getMISSION_NUKE@CvTypes@@YA?BW4MissionTypes@@XZ:PROC ; CvTypes::getMISSION_NUKE
EXTRN	?AttackRanged@CvUnitCombat@@SA?AW4ATTACK_RESULT@1@AAVCvUnit@@HHW4ATTACK_OPTION@1@@Z:PROC ; CvUnitCombat::AttackRanged
EXTRN	?getMISSION_RANGE_ATTACK@CvTypes@@YA?BW4MissionTypes@@XZ:PROC ; CvTypes::getMISSION_RANGE_ATTACK
EXTRN	?isPotentialEnemy@CvUnit@@QBE_NW4TeamTypes@@PBVCvPlot@@@Z:PROC ; CvUnit::isPotentialEnemy
EXTRN	?GetMissionAIPlot@CvUnit@@QAEPAVCvPlot@@XZ:PROC	; CvUnit::GetMissionAIPlot
EXTRN	?isOwned@CvPlot@@QBE_NXZ:PROC			; CvPlot::isOwned
EXTRN	?GetMissionAIType@CvUnit@@QAE?AW4MissionAITypes@@XZ:PROC ; CvUnit::GetMissionAIType
EXTRN	?getUnit@CvPlayer@@QAEPAVCvUnit@@H@Z:PROC	; CvPlayer::getUnit
EXTRN	?getBestDefender@CvPlot@@QAE?AV?$FObjectHandle@VCvUnit@@@@W4PlayerTypes@@0PBVCvUnit@@_N222@Z:PROC ; CvPlot::getBestDefender
EXTRN	?AI_getUnitAIType@CvUnit@@QBE?AW4UnitAITypes@@XZ:PROC ; CvUnit::AI_getUnitAIType
EXTRN	?getMISSION_MOVE_TO_UNIT@CvTypes@@YA?BW4MissionTypes@@XZ:PROC ; CvTypes::getMISSION_MOVE_TO_UNIT
EXTRN	?ReadyToMove@CvUnit@@QBE_NXZ:PROC		; CvUnit::ReadyToMove
EXTRN	?AreUnitsOfSameType@CvUnit@@QBE_NABV1@_N@Z:PROC	; CvUnit::AreUnitsOfSameType
EXTRN	?getUnitByIndex@CvPlot@@QBEPAVCvUnit@@H@Z:PROC	; CvPlot::getUnitByIndex
EXTRN	?getNumUnits@CvPlot@@QBEHXZ:PROC		; CvPlot::getNumUnits
EXTRN	?getMISSION_SWAP_UNITS@CvTypes@@YA?BW4MissionTypes@@XZ:PROC ; CvTypes::getMISSION_SWAP_UNITS
EXTRN	?UnitRoadTo@CvUnit@@QAE_NHHH@Z:PROC		; CvUnit::UnitRoadTo
EXTRN	?getMISSION_ROUTE_TO@CvTypes@@YA?BW4MissionTypes@@XZ:PROC ; CvTypes::getMISSION_ROUTE_TO
EXTRN	?UnitPathTo@CvUnit@@QAEHHHHH_N@Z:PROC		; CvUnit::UnitPathTo
EXTRN	?getDomainType@CvUnit@@QBE?AW4DomainTypes@@XZ:PROC ; CvUnit::getDomainType
EXTRN	?getMISSION_DISEMBARK@CvTypes@@YA?BW4MissionTypes@@XZ:PROC ; CvTypes::getMISSION_DISEMBARK
EXTRN	?getMISSION_EMBARK@CvTypes@@YA?BW4MissionTypes@@XZ:PROC ; CvTypes::getMISSION_EMBARK
EXTRN	?UnitAttack@CvUnit@@QAE_NHHHH@Z:PROC		; CvUnit::UnitAttack
EXTRN	?GetCombatPrediction@CvGame@@QAE?AW4CombatPredictionTypes@@PBVCvUnit@@0@Z:PROC ; CvGame::GetCombatPrediction
EXTRN	?getVisibleEnemyDefender@CvPlot@@QAEPAVCvUnit@@W4PlayerTypes@@@Z:PROC ; CvPlot::getVisibleEnemyDefender
EXTRN	__imp__strcpy_s:PROC
EXTRN	?GetPlotIndex@CvPlot@@QBEHXZ:PROC		; CvPlot::GetPlotIndex
EXTRN	?isOption@CvGame@@QBE_NW4GameOptionTypes@@@Z:PROC ; CvGame::isOption
EXTRN	?IsCombatWarned@CvGame@@QBE_NXZ:PROC		; CvGame::IsCombatWarned
EXTRN	?isNetworkMultiplayerGame@CvPreGame@@YA_NXZ:PROC ; CvPreGame::isNetworkMultiplayerGame
EXTRN	?isHuman@CvUnit@@QBE_NXZ:PROC			; CvUnit::isHuman
EXTRN	?canMoveInto@CvUnit@@QBE_NABVCvPlot@@E@Z:PROC	; CvUnit::canMoveInto
EXTRN	?getTeam@CvUnit@@QBE?AW4TeamTypes@@XZ:PROC	; CvUnit::getTeam
EXTRN	?IsAutomated@CvUnit@@QBE_NXZ:PROC		; CvUnit::IsAutomated
EXTRN	?canMove@CvUnit@@QBE_NXZ:PROC			; CvUnit::canMove
EXTRN	?IsDoingPartialMove@CvUnit@@QBE_NXZ:PROC	; CvUnit::IsDoingPartialMove
EXTRN	?getMISSION_MOVE_TO@CvTypes@@YA?BW4MissionTypes@@XZ:PROC ; CvTypes::getMISSION_MOVE_TO
EXTRN	?SetActivityType@CvUnit@@QAEXW4ActivityTypes@@@Z:PROC ; CvUnit::SetActivityType
EXTRN	?ClearPathCache@CvUnit@@IAEXXZ:PROC		; CvUnit::ClearPathCache
EXTRN	__CxxThrowException@8:PROC
;	COMDAT ??_C@_0CA@INKFIMDI@TXT_KEY_ADVISOR_BAD_ATTACK_BODY?$AA@
; File d:\sources\lekmod_git\checkout\lekmod_dll\fireplace\include\fireworks\fobjecthandle.h
CONST	SEGMENT
??_C@_0CA@INKFIMDI@TXT_KEY_ADVISOR_BAD_ATTACK_BODY?$AA@ DB 'TXT_KEY_ADVIS'
	DB	'OR_BAD_ATTACK_BODY', 00H			; `string'
CONST	ENDS
;	COMDAT ??_C@_0CB@PKJLOIOI@TXT_KEY_ADVISOR_CITY_ATTACK_BODY@
CONST	SEGMENT
??_C@_0CB@PKJLOIOI@TXT_KEY_ADVISOR_CITY_ATTACK_BODY@ DB 'TXT_KEY_ADVISOR_'
	DB	'CITY_ATTACK_BODY', 00H			; `string'
CONST	ENDS
;	COMDAT xdata$x
xdata$x	SEGMENT
__ehfuncinfo$?ContinueMission@CvUnitMission@@SAXV?$FObjectHandle@VCvUnit@@@@HH@Z DD 019930522H
	DD	06H
	DD	FLAT:__unwindtable$?ContinueMission@CvUnitMission@@SAXV?$FObjectHandle@VCvUnit@@@@HH@Z
	DD	2 DUP(00H)
	DD	2 DUP(00H)
	DD	00H
	DD	01H
__unwindtable$?ContinueMission@CvUnitMission@@SAXV?$FObjectHandle@VCvUnit@@@@HH@Z DD 0ffffffffH
	DD	FLAT:__unwindfunclet$?ContinueMission@CvUnitMission@@SAXV?$FObjectHandle@VCvUnit@@@@HH@Z$5
	DD	00H
	DD	FLAT:__unwindfunclet$?ContinueMission@CvUnitMission@@SAXV?$FObjectHandle@VCvUnit@@@@HH@Z$7
	DD	00H
	DD	FLAT:__unwindfunclet$?ContinueMission@CvUnitMission@@SAXV?$FObjectHandle@VCvUnit@@@@HH@Z$8
	DD	00H
	DD	FLAT:__unwindfunclet$?ContinueMission@CvUnitMission@@SAXV?$FObjectHandle@VCvUnit@@@@HH@Z$11
	DD	00H
	DD	FLAT:__unwindfunclet$?ContinueMission@CvUnitMission@@SAXV?$FObjectHandle@VCvUnit@@@@HH@Z$12
	DD	00H
	DD	FLAT:__unwindfunclet$?ContinueMission@CvUnitMission@@SAXV?$FObjectHandle@VCvUnit@@@@HH@Z$13
; Function compile flags: /Odtp
; File d:\sources\lekmod_git\checkout\lekmod_dll\cvgamecoredll_expansion2\cvunitmission.cpp
xdata$x	ENDS
;	COMDAT ?ContinueMission@CvUnitMission@@SAXV?$FObjectHandle@VCvUnit@@@@HH@Z
_TEXT	SEGMENT
tv1191 = -2224						; size = 4
tv1226 = -2220						; size = 4
tv1113 = -2216						; size = 4
tv1100 = -2212						; size = 4
tv1037 = -2208						; size = 4
tv1027 = -2204						; size = 4
tv997 = -2200						; size = 4
tv1218 = -2196						; size = 4
tv1336 = -2192						; size = 4
tv367 = -2188						; size = 4
tv338 = -2184						; size = 4
tv300 = -2180						; size = 4
tv264 = -2176						; size = 4
tv211 = -2172						; size = 4
tv200 = -2168						; size = 4
tv1301 = -2164						; size = 4
tv1310 = -2160						; size = 4
$T220801 = -2156					; size = 4
$T220797 = -2152					; size = 4
$T220779 = -2148					; size = 4
$T220793 = -1920					; size = 8
$T220792 = -1912					; size = 4
$T220621 = -1908					; size = 4
$T220617 = -1904					; size = 4
$T220613 = -1900					; size = 4
$T220609 = -1896					; size = 4
$T220605 = -1892					; size = 4
$T220596 = -1888					; size = 4
$T220592 = -1884					; size = 4
$T220588 = -1880					; size = 4
$T220584 = -1876					; size = 4
$T220580 = -1872					; size = 4
$T220570 = -1868					; size = 4
$T220563 = -1864					; size = 4
$T220559 = -1860					; size = 4
$T220555 = -1856					; size = 4
$T220551 = -1852					; size = 4
$T220547 = -1848					; size = 4
$T220543 = -1844					; size = 4
$T220534 = -1840					; size = 4
$T220530 = -1836					; size = 4
$T220526 = -1832					; size = 4
$T220522 = -1828					; size = 4
$T220513 = -1824					; size = 4
$T220509 = -1820					; size = 4
$T220505 = -1816					; size = 4
_inst$220500 = -1812					; size = 4
$T220496 = -1808					; size = 4
$T220484 = -1804					; size = 4
$T220477 = -1800					; size = 4
$T220473 = -1796					; size = 4
_inst$220468 = -1792					; size = 4
$T220464 = -1788					; size = 4
$T220452 = -1784					; size = 4
_inst$220447 = -1780					; size = 4
$T220443 = -1776					; size = 4
$T220434 = -1772					; size = 4
__Ptr$220433 = -1768					; size = 4
$T220429 = -1764					; size = 4
__Cvtptr$220427 = -1760					; size = 4
__Ans$220428 = -1756					; size = 4
$T220418 = -1752					; size = 4
$T220414 = -1748					; size = 4
$T220410 = -1744					; size = 4
$T220406 = -1740					; size = 4
$T220397 = -1736					; size = 4
$T220393 = -1732					; size = 4
$T220389 = -1728					; size = 4
$T220385 = -1724					; size = 4
$T220375 = -1720					; size = 4
$T220371 = -1716					; size = 4
$T220364 = -1712					; size = 4
$T220351 = -1708					; size = 4
$T220347 = -1704					; size = 4
$T220340 = -1700					; size = 4
$T220330 = -1696					; size = 4
$T220326 = -1692					; size = 4
$T220322 = -1688					; size = 4
$T220318 = -1684					; size = 4
$T220314 = -1680					; size = 4
$T220310 = -1676					; size = 4
$T220306 = -1672					; size = 4
$T220302 = -1668					; size = 4
$T220298 = -1664					; size = 4
$T220285 = -1660					; size = 4
$T220281 = -1656					; size = 4
$T220272 = -1652					; size = 4
$T220268 = -1648					; size = 4
$T220259 = -1644					; size = 4
$T220246 = -1640					; size = 4
$T220242 = -1636					; size = 4
_playerID$220239 = -1632				; size = 4
$T220225 = -1628					; size = 4
_playerID$220222 = -1624				; size = 4
$T220208 = -1620					; size = 4
$T220204 = -1616					; size = 4
$T220195 = -1612					; size = 4
$T220191 = -1608					; size = 4
$T220190 = -1604					; size = 4
$T220186 = -1600					; size = 4
$T220182 = -1596					; size = 4
$T220178 = -1592					; size = 4
$T220174 = -1588					; size = 4
$T220167 = -1584					; size = 4
$T220157 = -1580					; size = 4
$T220144 = -1576					; size = 4
$T220140 = -1572					; size = 4
$T220136 = -1568					; size = 4
$T220127 = -1564					; size = 4
$T220123 = -1560					; size = 4
$T220119 = -1556					; size = 4
$T220115 = -1552					; size = 4
$T220114 = -1548					; size = 4
_playerID$220106 = -1544				; size = 4
$T220097 = -1540					; size = 4
$T220088 = -1532					; size = 4
$T220084 = -1528					; size = 4
$T220077 = -1524					; size = 4
$T220073 = -1520					; size = 4
$T220069 = -1516					; size = 4
$T220065 = -1512					; size = 4
$T220061 = -1508					; size = 4
$T220060 = -1504					; size = 4
$T220029 = -1500					; size = 4
$T220024 = -1496					; size = 4
$T220020 = -1489					; size = 1
$T220009 = -1488					; size = 4
$T220005 = -1481					; size = 1
_iMapY$220038 = -1480					; size = 4
_iMapX$220037 = -1476					; size = 4
$T219998 = -1472					; size = 4
$T219994 = -1468					; size = 4
$T219990 = -1464					; size = 4
$T219983 = -1460					; size = 4
$T219979 = -1456					; size = 4
$T219975 = -1452					; size = 4
$T219965 = -1448					; size = 4
$T219961 = -1444					; size = 4
$T219957 = -1440					; size = 4
$T219950 = -1436					; size = 4
$T219943 = -1432					; size = 4
$T219939 = -1428					; size = 4
$T219935 = -1424					; size = 4
$T219931 = -1420					; size = 4
$T219927 = -1416					; size = 4
$T219918 = -1412					; size = 4
$T219914 = -1408					; size = 4
$T219907 = -1404					; size = 4
$T219900 = -1400					; size = 4
$T219896 = -1396					; size = 4
$T219887 = -1385					; size = 1
$T219886 = -1384					; size = 4
$T219876 = -1380					; size = 4
$T219872 = -1376					; size = 4
$T219868 = -1372					; size = 4
$T219864 = -1368					; size = 4
$T219860 = -1364					; size = 4
$T219856 = -1360					; size = 4
$T219852 = -1356					; size = 4
$T219848 = -1349					; size = 1
$T219847 = -1348					; size = 4
$T219837 = -1344					; size = 4
$T219833 = -1340					; size = 4
$T219829 = -1336					; size = 4
$T219828 = -1332					; size = 4
$T219795 = -1328					; size = 4
$T219782 = -1324					; size = 4
$T219778 = -1320					; size = 4
$T219771 = -1316					; size = 4
$T219767 = -1309					; size = 1
$T219763 = -1308					; size = 4
$T219759 = -1301					; size = 1
_iMapY$219827 = -1300					; size = 4
_iMapX$219826 = -1296					; size = 4
$T219752 = -1292					; size = 4
$T219748 = -1288					; size = 4
$T219744 = -1284					; size = 4
$T219740 = -1280					; size = 4
$T219736 = -1276					; size = 4
$T219732 = -1272					; size = 4
$T219728 = -1268					; size = 4
$T219721 = -1264					; size = 4
$T219717 = -1260					; size = 4
$T219699 = -1256					; size = 4
$T219714 = -1252					; size = 8
$T219713 = -1244					; size = 4
$T219683 = -1240					; size = 4
$T219666 = -1236					; size = 4
$T219665 = -1232					; size = 4
$T219662 = -1228					; size = 4
$T219661 = -1224					; size = 4
$T219660 = -1220					; size = 4
$T219659 = -1216					; size = 4
$T219658 = -1212					; size = 4
$T219657 = -1208					; size = 8
$T219656 = -1197					; size = 1
$T219655 = -1196					; size = 4
_iCameraTime$217883 = -1192				; size = 4
_kMissionData$217880 = -1188				; size = 4
_pDllUnit$217877 = -1184				; size = 4
_pDllPlot$217850 = -1180				; size = 4
_pkWaitingFor$217793 = -1176				; size = 4
_pTargetUnit$217784 = -1172				; size = 8
_kMissionData$217774 = -1164				; size = 4
_pMissionPlot$217757 = -1160				; size = 4
_pTargetUnit$217751 = -1156				; size = 8
_pUnit2$217743 = -1148					; size = 4
_iI$217739 = -1144					; size = 4
_pOriginationPlot$217735 = -1140			; size = 4
_pTargetPlot$217736 = -1136				; size = 4
_iThisETA$217725 = -1132				; size = 4
_kMissionData$217720 = -1128				; size = 4
_kPopup$217712 = -1124					; size = 536
_ePrediction$217708 = -588				; size = 4
_pDefender$217706 = -584				; size = 4
_kPopup$217696 = -580					; size = 536
__$ArrayPad$ = -40					; size = 4
_bCityAttackInterrupt$217688 = -34			; size = 1
_bBadAttackInterrupt$217689 = -33			; size = 1
_pPlot$217685 = -32					; size = 4
_bDone$217673 = -26					; size = 1
_bAction$217674 = -25					; size = 1
_pkMissionData$217681 = -24				; size = 4
_kMissionQueue$217718 = -20				; size = 4
_bContinueMissionRestart$ = -13				; size = 1
__$EHRec$ = -12						; size = 12
_hUnit$ = 8						; size = 8
_iSteps$ = 16						; size = 4
_iETA$ = 20						; size = 4
?ContinueMission@CvUnitMission@@SAXV?$FObjectHandle@VCvUnit@@@@HH@Z PROC ; CvUnitMission::ContinueMission, COMDAT

; 393  : {

	push	ebp
	mov	ebp, esp
	push	-1
	push	__ehhandler$?ContinueMission@CvUnitMission@@SAXV?$FObjectHandle@VCvUnit@@@@HH@Z
	mov	eax, DWORD PTR fs:0
	push	eax
	sub	esp, 2212				; 000008a4H
	mov	eax, DWORD PTR ___security_cookie
	xor	eax, ebp
	mov	DWORD PTR __$ArrayPad$[ebp], eax
	push	esi
	push	eax
	lea	eax, DWORD PTR __$EHRec$[ebp]
	mov	DWORD PTR fs:0, eax
	mov	DWORD PTR __$EHRec$[ebp+8], 0

; 394  : 	hUnit->ClearPathCache();		// At the start of the continue, clear any cached path.  The cache will be rebuilt and reused while the mission loops in this method

	mov	ecx, DWORD PTR _hUnit$[ebp]
	call	?ClearPathCache@CvUnit@@IAEXXZ		; CvUnit::ClearPathCache

; 395  : 
; 396  : 	bool bContinueMissionRestart = true;	// to make this function no longer recursive

	mov	BYTE PTR _bContinueMissionRestart$[ebp], 1
$LN109@ContinueMi:

; 397  : 	while(bContinueMissionRestart)

	movzx	eax, BYTE PTR _bContinueMissionRestart$[ebp]
	test	eax, eax
	je	$ContinueMissionExit$217677

; 398  : 	{
; 399  : 		bContinueMissionRestart = false;

	mov	BYTE PTR _bContinueMissionRestart$[ebp], 0

; 400  : 
; 401  : 		bool bDone = false;   // are we done with mission?

	mov	BYTE PTR _bDone$217673[ebp], 0

; 402  : 		bool bAction = false; // are we taking an action this turn?

	mov	BYTE PTR _bAction$217674[ebp], 0

; 403  : 
; 404  : 		// slewis - important modification!
; 405  : 		// This function may call the pathfinder multiple times.
; 406  : 		// That can cause partial moves to be impossible in certain circumstances.
; 407  : 		// We need a way to determine if the pathfinder can be used without breaking the currently built path.
; 408  : 		// I added unit flags to accomplish this. (While this flag does not necessarily need to be serialized,
; 409  : 		// the variable is serialized for future proofing.)
; 410  : 		hUnit->m_iFlags = hUnit->m_iFlags | CvUnit::UNITFLAG_EVALUATING_MISSION;

	mov	ecx, DWORD PTR _hUnit$[ebp]
	mov	DWORD PTR $T219683[ebp], ecx
	mov	edx, DWORD PTR $T219683[ebp]
	mov	eax, DWORD PTR [edx+1364]
	or	eax, 1
	mov	DWORD PTR $T219655[ebp], eax
	mov	ecx, DWORD PTR _hUnit$[ebp]
	add	ecx, 1360				; 00000550H
	mov	DWORD PTR $T219717[ebp], ecx
	mov	edx, DWORD PTR $T219717[ebp]
	mov	eax, DWORD PTR $T219655[ebp]
	cmp	eax, DWORD PTR [edx+4]
	je	SHORT $LN133@ContinueMi
	mov	ecx, DWORD PTR $T219717[ebp]
	mov	edx, DWORD PTR [ecx+4]
	cmp	edx, DWORD PTR $T219655[ebp]
	je	SHORT $LN133@ContinueMi
	mov	eax, DWORD PTR $T219717[ebp]
	mov	ecx, DWORD PTR [eax+8]
	mov	DWORD PTR $T219699[ebp], ecx
	mov	edx, DWORD PTR $T219717[ebp]
	mov	DWORD PTR $T219713[ebp], edx
	lea	eax, DWORD PTR $T219713[ebp]
	push	eax
	lea	ecx, DWORD PTR $T219714[ebp]
	push	ecx
	mov	ecx, DWORD PTR $T219699[ebp]
	add	ecx, 20					; 00000014H
	call	?insert@?$_Tree@V?$_Tset_traits@PAVFAutoVariableBase@@U?$less@PAVFAutoVariableBase@@@std@@V?$allocator@PAVFAutoVariableBase@@@3@$0A@@std@@@std@@QAE?AU?$pair@Viterator@?$_Tree@V?$_Tset_traits@PAVFAutoVariableBase@@U?$less@PAVFAutoVariableBase@@@std@@V?$allocator@PAVFAutoVariableBase@@@3@$0A@@std@@@std@@_N@2@ABQAVFAutoVariableBase@@@Z ; std::_Tree<std::_Tset_traits<FAutoVariableBase *,std::less<FAutoVariableBase *>,std::allocator<FAutoVariableBase *>,0> >::insert
	mov	edx, DWORD PTR $T219717[ebp]
	mov	eax, DWORD PTR $T219655[ebp]
	mov	DWORD PTR [edx+4], eax
$LN133@ContinueMi:

; 411  : 
; 412  : 		// slewis - more important info!
; 413  : 		// I replaced all the "return"s in this function with "goto"s.
; 414  : 		// This ensures that every way this function is exited, it always clears out the unit flag evaluation mission.
; 415  : 		// I know gotos are frowned upon, but if anyone else wants to re-write and test this function, be my guest.
; 416  : 
; 417  : 		CvAssert(!hUnit->isInCombat());
; 418  : 		CvAssert(hUnit->HeadMissionQueueNode() != NULL);
; 419  : 		CvAssert(hUnit->getOwner() != NO_PLAYER);
; 420  : 		CvAssert(hUnit->GetActivityType() == ACTIVITY_MISSION);
; 421  : 
; 422  : 		if(HeadMissionQueueNode(hUnit->m_missionQueue) == NULL)

	mov	ecx, DWORD PTR _hUnit$[ebp]
	mov	DWORD PTR $T219721[ebp], ecx
	mov	edx, DWORD PTR $T219721[ebp]
	add	edx, 2600				; 00000a28H
	push	edx
	call	?HeadMissionQueueNode@CvUnitMission@@CAPAUMissionData@@AAV?$FFastSmallFixedList@UMissionData@@$0M@$00$0BCJ@$0A@@@@Z ; CvUnitMission::HeadMissionQueueNode
	add	esp, 4
	test	eax, eax
	jne	SHORT $LN107@ContinueMi

; 423  : 		{
; 424  : 			// just in case...
; 425  : 			hUnit->SetActivityType(ACTIVITY_AWAKE);

	push	0
	mov	ecx, DWORD PTR _hUnit$[ebp]
	call	?SetActivityType@CvUnit@@QAEXW4ActivityTypes@@@Z ; CvUnit::SetActivityType

; 426  : 			goto ContinueMissionExit;

	jmp	$ContinueMissionExit$217677
$LN107@ContinueMi:

; 427  : 		}
; 428  : 
; 429  : 		CvAssert(iSteps < 100);
; 430  : 		if(iSteps >= 100)

	cmp	DWORD PTR _iSteps$[ebp], 100		; 00000064H
	jl	SHORT $LN105@ContinueMi

; 431  : 			goto ContinueMissionExit;

	jmp	$ContinueMissionExit$217677
$LN105@ContinueMi:

; 432  : 
; 433  : 		const MissionData* pkMissionData = (HeadMissionQueueNode(hUnit->m_missionQueue));

	mov	eax, DWORD PTR _hUnit$[ebp]
	mov	DWORD PTR $T219728[ebp], eax
	mov	ecx, DWORD PTR $T219728[ebp]
	add	ecx, 2600				; 00000a28H
	push	ecx
	call	?HeadMissionQueueNode@CvUnitMission@@CAPAUMissionData@@AAV?$FFastSmallFixedList@UMissionData@@$0M@$00$0BCJ@$0A@@@@Z ; CvUnitMission::HeadMissionQueueNode
	add	esp, 4
	mov	DWORD PTR _pkMissionData$217681[ebp], eax

; 434  : 
; 435  : 		if(pkMissionData->iPushTurn == GC.getGame().getGameTurn() || (pkMissionData->iFlags & MOVE_UNITS_THROUGH_ENEMY))

	mov	edx, DWORD PTR ?gGlobals@@3VCvGlobals@@A+48
	mov	DWORD PTR $T219732[ebp], edx
	mov	ecx, DWORD PTR $T219732[ebp]
	call	?getGameTurn@CvGame@@QAEHXZ		; CvGame::getGameTurn
	mov	ecx, DWORD PTR _pkMissionData$217681[ebp]
	cmp	DWORD PTR [ecx+16], eax
	je	SHORT $LN102@ContinueMi
	mov	edx, DWORD PTR _pkMissionData$217681[ebp]
	mov	eax, DWORD PTR [edx+12]
	and	eax, 16					; 00000010H
	je	$LN103@ContinueMi
$LN102@ContinueMi:

; 436  : 		{
; 437  : #ifdef AUI_UNIT_MISSION_FIX_CONTINUE_MISSION_CIVILIANS_DONT_ATTEMPT_ATTACK
; 438  : 			if (pkMissionData->eMissionType == CvTypes::getMISSION_MOVE_TO() && !hUnit->IsDoingPartialMove() && hUnit->canMove() && hUnit->IsCanAttack() && hUnit->m_unitMoveLocs.size() == 0)
; 439  : #else
; 440  : 			if(pkMissionData->eMissionType == CvTypes::getMISSION_MOVE_TO() && !hUnit->IsDoingPartialMove() && hUnit->canMove() && hUnit->m_unitMoveLocs.size() == 0)

	call	?getMISSION_MOVE_TO@CvTypes@@YA?BW4MissionTypes@@XZ ; CvTypes::getMISSION_MOVE_TO
	mov	ecx, DWORD PTR _pkMissionData$217681[ebp]
	cmp	DWORD PTR [ecx], eax
	jne	$LN103@ContinueMi
	mov	edx, DWORD PTR _hUnit$[ebp]
	mov	DWORD PTR $T219736[ebp], edx
	mov	ecx, DWORD PTR $T219736[ebp]
	call	?IsDoingPartialMove@CvUnit@@QBE_NXZ	; CvUnit::IsDoingPartialMove
	movzx	eax, al
	test	eax, eax
	jne	$LN103@ContinueMi
	mov	ecx, DWORD PTR _hUnit$[ebp]
	mov	DWORD PTR $T219740[ebp], ecx
	mov	ecx, DWORD PTR $T219740[ebp]
	call	?canMove@CvUnit@@QBE_NXZ		; CvUnit::canMove
	movzx	edx, al
	test	edx, edx
	je	$LN103@ContinueMi
	mov	eax, DWORD PTR _hUnit$[ebp]
	mov	DWORD PTR $T219744[ebp], eax
	mov	ecx, DWORD PTR $T219744[ebp]
	mov	edx, DWORD PTR [ecx+2400]
	mov	DWORD PTR $T219748[ebp], edx
	cmp	DWORD PTR $T219748[ebp], 0
	jne	$LN103@ContinueMi

; 441  : #endif
; 442  : 			{
; 443  : 				CvPlot* pPlot = GC.getMap().plot(pkMissionData->iData1, pkMissionData->iData2);

	mov	eax, DWORD PTR ?gGlobals@@3VCvGlobals@@A+52
	mov	DWORD PTR $T219752[ebp], eax
	mov	ecx, DWORD PTR _pkMissionData$217681[ebp]
	mov	edx, DWORD PTR [ecx+8]
	mov	DWORD PTR $T219829[ebp], edx
	mov	eax, DWORD PTR _pkMissionData$217681[ebp]
	mov	ecx, DWORD PTR [eax+4]
	mov	DWORD PTR $T219828[ebp], ecx
	cmp	DWORD PTR $T219828[ebp], -2147483647	; 80000001H
	je	SHORT $LN158@ContinueMi
	cmp	DWORD PTR $T219829[ebp], -2147483647	; 80000001H
	jne	SHORT $LN159@ContinueMi
$LN158@ContinueMi:
	mov	DWORD PTR _pPlot$217685[ebp], 0
	jmp	$LN160@ContinueMi
$LN159@ContinueMi:
	mov	edx, DWORD PTR $T219752[ebp]
	mov	al, BYTE PTR [edx+4056]
	mov	BYTE PTR $T219759[ebp], al
	mov	ecx, DWORD PTR $T219752[ebp]
	mov	edx, DWORD PTR [ecx+4020]
	mov	DWORD PTR $T219763[ebp], edx
	movzx	eax, BYTE PTR $T219759[ebp]
	push	eax
	mov	ecx, DWORD PTR $T219763[ebp]
	push	ecx
	mov	edx, DWORD PTR $T219828[ebp]
	push	edx
	call	?coordRange@@YAHHH_N@Z			; coordRange
	add	esp, 12					; 0000000cH
	mov	DWORD PTR _iMapX$219826[ebp], eax
	mov	eax, DWORD PTR $T219752[ebp]
	mov	cl, BYTE PTR [eax+4057]
	mov	BYTE PTR $T219767[ebp], cl
	mov	edx, DWORD PTR $T219752[ebp]
	mov	eax, DWORD PTR [edx+4024]
	mov	DWORD PTR $T219771[ebp], eax
	movzx	ecx, BYTE PTR $T219767[ebp]
	push	ecx
	mov	edx, DWORD PTR $T219771[ebp]
	push	edx
	mov	eax, DWORD PTR $T219829[ebp]
	push	eax
	call	?coordRange@@YAHHH_N@Z			; coordRange
	add	esp, 12					; 0000000cH
	mov	DWORD PTR _iMapY$219827[ebp], eax
	cmp	DWORD PTR _iMapX$219826[ebp], 0
	jl	SHORT $LN174@ContinueMi
	mov	ecx, DWORD PTR $T219752[ebp]
	mov	edx, DWORD PTR [ecx+4020]
	mov	DWORD PTR $T219778[ebp], edx
	mov	eax, DWORD PTR _iMapX$219826[ebp]
	cmp	eax, DWORD PTR $T219778[ebp]
	jge	SHORT $LN174@ContinueMi
	cmp	DWORD PTR _iMapY$219827[ebp], 0
	jl	SHORT $LN174@ContinueMi
	mov	ecx, DWORD PTR $T219752[ebp]
	mov	edx, DWORD PTR [ecx+4024]
	mov	DWORD PTR $T219782[ebp], edx
	mov	eax, DWORD PTR _iMapY$219827[ebp]
	cmp	eax, DWORD PTR $T219782[ebp]
	jge	SHORT $LN174@ContinueMi
	mov	DWORD PTR tv1310[ebp], 1
	jmp	SHORT $LN172@ContinueMi
$LN174@ContinueMi:
	mov	DWORD PTR tv1310[ebp], 0
$LN172@ContinueMi:
	cmp	DWORD PTR tv1310[ebp], 0
	je	SHORT $LN162@ContinueMi
	mov	ecx, DWORD PTR $T219752[ebp]
	mov	edx, DWORD PTR [ecx+4020]
	mov	DWORD PTR $T219795[ebp], edx
	mov	eax, DWORD PTR _iMapY$219827[ebp]
	imul	eax, DWORD PTR $T219795[ebp]
	add	eax, DWORD PTR _iMapX$219826[ebp]
	imul	eax, 484				; 000001e4H
	mov	ecx, DWORD PTR $T219752[ebp]
	add	eax, DWORD PTR [ecx+4068]
	mov	DWORD PTR tv1301[ebp], eax
	jmp	SHORT $LN163@ContinueMi
$LN162@ContinueMi:
	mov	DWORD PTR tv1301[ebp], 0
$LN163@ContinueMi:
	mov	edx, DWORD PTR tv1301[ebp]
	mov	DWORD PTR _pPlot$217685[ebp], edx
$LN160@ContinueMi:

; 444  : 				if(hUnit->IsAutomated() && pPlot->isVisible(hUnit->getTeam()) && hUnit->canMoveInto(*pPlot, CvUnit::MOVEFLAG_ATTACK))

	mov	eax, DWORD PTR _hUnit$[ebp]
	mov	DWORD PTR $T219833[ebp], eax
	mov	ecx, DWORD PTR $T219833[ebp]
	call	?IsAutomated@CvUnit@@QBE_NXZ		; CvUnit::IsAutomated
	movzx	ecx, al
	test	ecx, ecx
	je	$LN100@ContinueMi
	mov	edx, DWORD PTR _hUnit$[ebp]
	mov	DWORD PTR $T219837[ebp], edx
	mov	ecx, DWORD PTR $T219837[ebp]
	call	?getTeam@CvUnit@@QBE?AW4TeamTypes@@XZ	; CvUnit::getTeam
	mov	DWORD PTR $T219847[ebp], eax
	cmp	DWORD PTR $T219847[ebp], -1
	jne	SHORT $LN191@ContinueMi
	mov	BYTE PTR $T219848[ebp], 0
	jmp	SHORT $LN189@ContinueMi
$LN191@ContinueMi:
	mov	eax, DWORD PTR _pPlot$217685[ebp]
	mov	ecx, DWORD PTR [eax+156]
	mov	edx, DWORD PTR $T219847[ebp]
	movsx	eax, WORD PTR [ecx+edx*2]
	xor	ecx, ecx
	test	eax, eax
	setg	cl
	mov	BYTE PTR $T219848[ebp], cl
$LN189@ContinueMi:
	movzx	edx, BYTE PTR $T219848[ebp]
	test	edx, edx
	je	SHORT $LN100@ContinueMi
	mov	eax, DWORD PTR _hUnit$[ebp]
	mov	DWORD PTR $T219852[ebp], eax
	push	1
	mov	ecx, DWORD PTR _pPlot$217685[ebp]
	push	ecx
	mov	ecx, DWORD PTR $T219852[ebp]
	call	?canMoveInto@CvUnit@@QBE_NABVCvPlot@@E@Z ; CvUnit::canMoveInto
	movzx	edx, al
	test	edx, edx
	je	SHORT $LN100@ContinueMi

; 445  : 				{
; 446  : 					// if we're automated and try to attack, consider this move OVAH
; 447  : 					bDone = true;

	mov	BYTE PTR _bDone$217673[ebp], 1

; 448  : 				}
; 449  : 				else

	jmp	$LN103@ContinueMi
$LN100@ContinueMi:

; 450  : 				{
; 451  : 					bool bCityAttackInterrupt = gDLL->GetAdvisorCityAttackInterrupt();

	mov	eax, DWORD PTR $T219856[ebp]
	mov	DWORD PTR tv200[ebp], eax
	mov	ecx, DWORD PTR ?gGlobals@@3VCvGlobals@@A+8564
	mov	DWORD PTR tv200[ebp], ecx
	mov	edx, DWORD PTR tv200[ebp]
	mov	eax, DWORD PTR [edx]
	mov	ecx, DWORD PTR tv200[ebp]
	mov	edx, DWORD PTR [eax+864]
	call	edx
	mov	BYTE PTR _bCityAttackInterrupt$217688[ebp], al

; 452  : 					bool bBadAttackInterrupt = gDLL->GetAdvisorBadAttackInterrupt();

	mov	eax, DWORD PTR $T219860[ebp]
	mov	DWORD PTR tv211[ebp], eax
	mov	ecx, DWORD PTR ?gGlobals@@3VCvGlobals@@A+8564
	mov	DWORD PTR tv211[ebp], ecx
	mov	edx, DWORD PTR tv211[ebp]
	mov	eax, DWORD PTR [edx]
	mov	ecx, DWORD PTR tv211[ebp]
	mov	edx, DWORD PTR [eax+856]
	call	edx
	mov	BYTE PTR _bBadAttackInterrupt$217689[ebp], al

; 453  : 					if(hUnit->isHuman() && !CvPreGame::isNetworkMultiplayerGame() && !GC.getGame().IsCombatWarned() && (bCityAttackInterrupt || bBadAttackInterrupt))

	mov	eax, DWORD PTR _hUnit$[ebp]
	mov	DWORD PTR $T219864[ebp], eax
	mov	ecx, DWORD PTR $T219864[ebp]
	call	?isHuman@CvUnit@@QBE_NXZ		; CvUnit::isHuman
	movzx	ecx, al
	test	ecx, ecx
	je	$LN98@ContinueMi
	call	?isNetworkMultiplayerGame@CvPreGame@@YA_NXZ ; CvPreGame::isNetworkMultiplayerGame
	movzx	edx, al
	test	edx, edx
	jne	$LN98@ContinueMi
	mov	eax, DWORD PTR ?gGlobals@@3VCvGlobals@@A+48
	mov	DWORD PTR $T219868[ebp], eax
	mov	ecx, DWORD PTR $T219868[ebp]
	call	?IsCombatWarned@CvGame@@QBE_NXZ		; CvGame::IsCombatWarned
	movzx	ecx, al
	test	ecx, ecx
	jne	$LN98@ContinueMi
	movzx	edx, BYTE PTR _bCityAttackInterrupt$217688[ebp]
	test	edx, edx
	jne	SHORT $LN97@ContinueMi
	movzx	eax, BYTE PTR _bBadAttackInterrupt$217689[ebp]
	test	eax, eax
	je	$LN98@ContinueMi
$LN97@ContinueMi:

; 454  : 					{
; 455  : 						if(hUnit->canMoveInto(*pPlot, CvUnit::MOVEFLAG_ATTACK) && pPlot->isVisible(hUnit->getTeam()))

	mov	ecx, DWORD PTR _hUnit$[ebp]
	mov	DWORD PTR $T219872[ebp], ecx
	push	1
	mov	edx, DWORD PTR _pPlot$217685[ebp]
	push	edx
	mov	ecx, DWORD PTR $T219872[ebp]
	call	?canMoveInto@CvUnit@@QBE_NABVCvPlot@@E@Z ; CvUnit::canMoveInto
	movzx	eax, al
	test	eax, eax
	je	$LN98@ContinueMi
	mov	ecx, DWORD PTR _hUnit$[ebp]
	mov	DWORD PTR $T219876[ebp], ecx
	mov	ecx, DWORD PTR $T219876[ebp]
	call	?getTeam@CvUnit@@QBE?AW4TeamTypes@@XZ	; CvUnit::getTeam
	mov	DWORD PTR $T219886[ebp], eax
	cmp	DWORD PTR $T219886[ebp], -1
	jne	SHORT $LN210@ContinueMi
	mov	BYTE PTR $T219887[ebp], 0
	jmp	SHORT $LN208@ContinueMi
$LN210@ContinueMi:
	mov	edx, DWORD PTR _pPlot$217685[ebp]
	mov	eax, DWORD PTR [edx+156]
	mov	ecx, DWORD PTR $T219886[ebp]
	movsx	edx, WORD PTR [eax+ecx*2]
	xor	eax, eax
	test	edx, edx
	setg	al
	mov	BYTE PTR $T219887[ebp], al
$LN208@ContinueMi:
	movzx	ecx, BYTE PTR $T219887[ebp]
	test	ecx, ecx
	je	$LN98@ContinueMi

; 456  : 						{
; 457  : 							if(pPlot->isCity())

	mov	ecx, DWORD PTR _pPlot$217685[ebp]
	call	?isCity@CvPlot@@QBE_NXZ			; CvPlot::isCity
	movzx	edx, al
	test	edx, edx
	je	$LN95@ContinueMi

; 458  : 							{
; 459  : 								if(bCityAttackInterrupt)

	movzx	eax, BYTE PTR _bCityAttackInterrupt$217688[ebp]
	test	eax, eax
	je	$LN94@ContinueMi

; 460  : 								{
; 461  : 									GC.GetEngineUserInterface()->SetDontShowPopups(false);

	mov	ecx, DWORD PTR $T219896[ebp]
	mov	DWORD PTR tv264[ebp], ecx
	mov	edx, DWORD PTR ?gGlobals@@3VCvGlobals@@A+8568
	mov	DWORD PTR tv264[ebp], edx
	push	0
	mov	eax, DWORD PTR tv264[ebp]
	mov	edx, DWORD PTR [eax]
	mov	ecx, DWORD PTR tv264[ebp]
	mov	eax, DWORD PTR [edx+556]
	call	eax

; 462  : 
; 463  : 									if(!GC.getGame().isOption(GAMEOPTION_NO_TUTORIAL))

	mov	ecx, DWORD PTR ?gGlobals@@3VCvGlobals@@A+48
	mov	DWORD PTR $T219900[ebp], ecx
	push	20					; 00000014H
	mov	ecx, DWORD PTR $T219900[ebp]
	call	?isOption@CvGame@@QBE_NW4GameOptionTypes@@@Z ; CvGame::isOption
	movzx	edx, al
	test	edx, edx
	jne	$LN94@ContinueMi

; 464  : 									{
; 465  : 										// do city alert
; 466  : 										CvPopupInfo kPopup(BUTTONPOPUP_ADVISOR_MODAL);

	mov	DWORD PTR _kPopup$217696[ebp], -1
	mov	DWORD PTR _kPopup$217696[ebp+4], -1
	mov	DWORD PTR _kPopup$217696[ebp+8], -1
	mov	DWORD PTR _kPopup$217696[ebp+12], 0
	mov	BYTE PTR _kPopup$217696[ebp+16], 0
	mov	BYTE PTR _kPopup$217696[ebp+17], 0
	mov	DWORD PTR _kPopup$217696[ebp+20], 72	; 00000048H
	mov	BYTE PTR _kPopup$217696[ebp+24], 0

; 467  : 										kPopup.iData1 = ADVISOR_MILITARY;

	mov	DWORD PTR _kPopup$217696[ebp], 0

; 468  : 										kPopup.iData2 = pPlot->GetPlotIndex();

	mov	ecx, DWORD PTR _pPlot$217685[ebp]
	call	?GetPlotIndex@CvPlot@@QBEHXZ		; CvPlot::GetPlotIndex
	mov	DWORD PTR _kPopup$217696[ebp+4], eax

; 469  : 										kPopup.iData3 = hUnit->plot()->GetPlotIndex();

	mov	eax, DWORD PTR _hUnit$[ebp]
	mov	DWORD PTR $T219907[ebp], eax
	mov	ecx, DWORD PTR $T219907[ebp]
	call	?plot@CvUnit@@QBEPAVCvPlot@@XZ		; CvUnit::plot
	mov	ecx, eax
	call	?GetPlotIndex@CvPlot@@QBEHXZ		; CvPlot::GetPlotIndex
	mov	DWORD PTR _kPopup$217696[ebp+8], eax

; 470  : 										strcpy_s(kPopup.szText, "TXT_KEY_ADVISOR_CITY_ATTACK_BODY");

	push	OFFSET ??_C@_0CB@PKJLOIOI@TXT_KEY_ADVISOR_CITY_ATTACK_BODY@
	push	512					; 00000200H
	lea	ecx, DWORD PTR _kPopup$217696[ebp+24]
	push	ecx
	call	DWORD PTR __imp__strcpy_s
	add	esp, 12					; 0000000cH

; 471  : 										kPopup.bOption1 = true;

	mov	BYTE PTR _kPopup$217696[ebp+16], 1

; 472  : 										GC.GetEngineUserInterface()->AddPopup(kPopup);

	mov	edx, DWORD PTR $T219914[ebp]
	mov	DWORD PTR tv300[ebp], edx
	mov	eax, DWORD PTR ?gGlobals@@3VCvGlobals@@A+8568
	mov	DWORD PTR tv300[ebp], eax
	lea	ecx, DWORD PTR _kPopup$217696[ebp]
	push	ecx
	mov	edx, DWORD PTR tv300[ebp]
	mov	eax, DWORD PTR [edx]
	mov	ecx, DWORD PTR tv300[ebp]
	mov	edx, DWORD PTR [eax+180]
	call	edx

; 473  : 										goto ContinueMissionExit;

	jmp	$ContinueMissionExit$217677
$LN94@ContinueMi:

; 474  : 									}
; 475  : 								}
; 476  : 							}

	jmp	$LN98@ContinueMi
$LN95@ContinueMi:

; 477  : 							else if(bBadAttackInterrupt)

	movzx	eax, BYTE PTR _bBadAttackInterrupt$217689[ebp]
	test	eax, eax
	je	$LN98@ContinueMi

; 478  : 							{
; 479  : 								CvUnit* pDefender = pPlot->getVisibleEnemyDefender(hUnit->getOwner());

	mov	ecx, DWORD PTR _hUnit$[ebp]
	mov	DWORD PTR $T219918[ebp], ecx
	mov	edx, DWORD PTR $T219918[ebp]
	mov	eax, DWORD PTR [edx+40]
	mov	DWORD PTR $T219927[ebp], eax
	mov	ecx, DWORD PTR $T219927[ebp]
	push	ecx
	mov	ecx, DWORD PTR _pPlot$217685[ebp]
	call	?getVisibleEnemyDefender@CvPlot@@QAEPAVCvUnit@@W4PlayerTypes@@@Z ; CvPlot::getVisibleEnemyDefender
	mov	DWORD PTR _pDefender$217706[ebp], eax

; 480  : 								if(pDefender)

	cmp	DWORD PTR _pDefender$217706[ebp], 0
	je	$LN98@ContinueMi

; 481  : 								{
; 482  : 									CombatPredictionTypes ePrediction = GC.getGame().GetCombatPrediction(hUnit.pointer(), pDefender);

	mov	edx, DWORD PTR _hUnit$[ebp]
	mov	DWORD PTR $T219931[ebp], edx
	mov	eax, DWORD PTR ?gGlobals@@3VCvGlobals@@A+48
	mov	DWORD PTR $T219935[ebp], eax
	mov	ecx, DWORD PTR _pDefender$217706[ebp]
	push	ecx
	mov	edx, DWORD PTR $T219931[ebp]
	push	edx
	mov	ecx, DWORD PTR $T219935[ebp]
	call	?GetCombatPrediction@CvGame@@QAE?AW4CombatPredictionTypes@@PBVCvUnit@@0@Z ; CvGame::GetCombatPrediction
	mov	DWORD PTR _ePrediction$217708[ebp], eax

; 483  : 									if(ePrediction == COMBAT_PREDICTION_TOTAL_DEFEAT || ePrediction == COMBAT_PREDICTION_MAJOR_DEFEAT)

	cmp	DWORD PTR _ePrediction$217708[ebp], 2
	je	SHORT $LN87@ContinueMi
	cmp	DWORD PTR _ePrediction$217708[ebp], 6
	jne	$LN98@ContinueMi
$LN87@ContinueMi:

; 484  : 									{
; 485  : 										if(!GC.getGame().isOption(GAMEOPTION_NO_TUTORIAL))

	mov	eax, DWORD PTR ?gGlobals@@3VCvGlobals@@A+48
	mov	DWORD PTR $T219939[ebp], eax
	push	20					; 00000014H
	mov	ecx, DWORD PTR $T219939[ebp]
	call	?isOption@CvGame@@QBE_NW4GameOptionTypes@@@Z ; CvGame::isOption
	movzx	ecx, al
	test	ecx, ecx
	jne	$LN98@ContinueMi

; 486  : 										{
; 487  : 											GC.GetEngineUserInterface()->SetDontShowPopups(false);

	mov	edx, DWORD PTR $T219943[ebp]
	mov	DWORD PTR tv338[ebp], edx
	mov	eax, DWORD PTR ?gGlobals@@3VCvGlobals@@A+8568
	mov	DWORD PTR tv338[ebp], eax
	push	0
	mov	ecx, DWORD PTR tv338[ebp]
	mov	edx, DWORD PTR [ecx]
	mov	ecx, DWORD PTR tv338[ebp]
	mov	eax, DWORD PTR [edx+556]
	call	eax

; 488  : 											CvPopupInfo kPopup(BUTTONPOPUP_ADVISOR_MODAL);

	mov	DWORD PTR _kPopup$217712[ebp], -1
	mov	DWORD PTR _kPopup$217712[ebp+4], -1
	mov	DWORD PTR _kPopup$217712[ebp+8], -1
	mov	DWORD PTR _kPopup$217712[ebp+12], 0
	mov	BYTE PTR _kPopup$217712[ebp+16], 0
	mov	BYTE PTR _kPopup$217712[ebp+17], 0
	mov	DWORD PTR _kPopup$217712[ebp+20], 72	; 00000048H
	mov	BYTE PTR _kPopup$217712[ebp+24], 0

; 489  : 											kPopup.iData1 = ADVISOR_MILITARY;

	mov	DWORD PTR _kPopup$217712[ebp], 0

; 490  : 											kPopup.iData2 = pPlot->GetPlotIndex();

	mov	ecx, DWORD PTR _pPlot$217685[ebp]
	call	?GetPlotIndex@CvPlot@@QBEHXZ		; CvPlot::GetPlotIndex
	mov	DWORD PTR _kPopup$217712[ebp+4], eax

; 491  : 											kPopup.iData3 = hUnit->plot()->GetPlotIndex();

	mov	ecx, DWORD PTR _hUnit$[ebp]
	mov	DWORD PTR $T219950[ebp], ecx
	mov	ecx, DWORD PTR $T219950[ebp]
	call	?plot@CvUnit@@QBEPAVCvPlot@@XZ		; CvUnit::plot
	mov	ecx, eax
	call	?GetPlotIndex@CvPlot@@QBEHXZ		; CvPlot::GetPlotIndex
	mov	DWORD PTR _kPopup$217712[ebp+8], eax

; 492  : 											strcpy_s(kPopup.szText, "TXT_KEY_ADVISOR_BAD_ATTACK_BODY");

	push	OFFSET ??_C@_0CA@INKFIMDI@TXT_KEY_ADVISOR_BAD_ATTACK_BODY?$AA@
	push	512					; 00000200H
	lea	edx, DWORD PTR _kPopup$217712[ebp+24]
	push	edx
	call	DWORD PTR __imp__strcpy_s
	add	esp, 12					; 0000000cH

; 493  : 											kPopup.bOption1 = false;

	mov	BYTE PTR _kPopup$217712[ebp+16], 0

; 494  : 											GC.GetEngineUserInterface()->AddPopup(kPopup);

	mov	eax, DWORD PTR $T219957[ebp]
	mov	DWORD PTR tv367[ebp], eax
	mov	ecx, DWORD PTR ?gGlobals@@3VCvGlobals@@A+8568
	mov	DWORD PTR tv367[ebp], ecx
	lea	edx, DWORD PTR _kPopup$217712[ebp]
	push	edx
	mov	eax, DWORD PTR tv367[ebp]
	mov	edx, DWORD PTR [eax]
	mov	ecx, DWORD PTR tv367[ebp]
	mov	eax, DWORD PTR [edx+180]
	call	eax

; 495  : 											goto ContinueMissionExit;

	jmp	$ContinueMissionExit$217677
$LN98@ContinueMi:

; 496  : 										}
; 497  : 
; 498  : 									}
; 499  : 								}
; 500  : 							}
; 501  : 						}
; 502  : 					}
; 503  : 
; 504  : 					if(hUnit->UnitAttack(pkMissionData->iData1, pkMissionData->iData2, pkMissionData->iFlags, iSteps))

	mov	ecx, DWORD PTR _hUnit$[ebp]
	mov	DWORD PTR $T219961[ebp], ecx
	mov	edx, DWORD PTR _iSteps$[ebp]
	push	edx
	mov	eax, DWORD PTR _pkMissionData$217681[ebp]
	mov	ecx, DWORD PTR [eax+12]
	push	ecx
	mov	edx, DWORD PTR _pkMissionData$217681[ebp]
	mov	eax, DWORD PTR [edx+8]
	push	eax
	mov	ecx, DWORD PTR _pkMissionData$217681[ebp]
	mov	edx, DWORD PTR [ecx+4]
	push	edx
	mov	ecx, DWORD PTR $T219961[ebp]
	call	?UnitAttack@CvUnit@@QAE_NHHHH@Z		; CvUnit::UnitAttack
	movzx	eax, al
	test	eax, eax
	je	SHORT $LN103@ContinueMi

; 505  : 					{
; 506  : 						bDone = true;

	mov	BYTE PTR _bDone$217673[ebp], 1
$LN103@ContinueMi:

; 507  : 					}
; 508  : 				}
; 509  : 			}
; 510  : 		}
; 511  : 
; 512  : 		// extra crash protection, should never happen (but a previous bug in groupAttack was causing a NULL here)
; 513  : 		// while that bug is fixed, no reason to not be a little more careful
; 514  : 		if(HeadMissionQueueNode(hUnit->m_missionQueue) == NULL)

	mov	ecx, DWORD PTR _hUnit$[ebp]
	mov	DWORD PTR $T219965[ebp], ecx
	mov	edx, DWORD PTR $T219965[ebp]
	add	edx, 2600				; 00000a28H
	push	edx
	call	?HeadMissionQueueNode@CvUnitMission@@CAPAUMissionData@@AAV?$FFastSmallFixedList@UMissionData@@$0M@$00$0BCJ@$0A@@@@Z ; CvUnitMission::HeadMissionQueueNode
	add	esp, 4
	test	eax, eax
	jne	SHORT $LN257@ContinueMi

; 515  : 		{
; 516  : 			hUnit->SetActivityType(ACTIVITY_AWAKE);

	push	0
	mov	ecx, DWORD PTR _hUnit$[ebp]
	call	?SetActivityType@CvUnit@@QAEXW4ActivityTypes@@@Z ; CvUnit::SetActivityType

; 517  : 			goto ContinueMissionExit;

	jmp	$ContinueMissionExit$217677

; 518  : 		}
; 519  : 
; 520  : 		const MissionQueue& kMissionQueue = hUnit->m_missionQueue;

$LN257@ContinueMi:
	mov	eax, DWORD PTR _hUnit$[ebp]
	add	eax, 2600				; 00000a28H
	mov	DWORD PTR _kMissionQueue$217718[ebp], eax

; 521  : 		// If there are units in the selection group, they can all move, and we're not done
; 522  : 		//   then try to follow the misision
; 523  : 		if(!bDone && hUnit->canMove() && !hUnit->IsDoingPartialMove())

	movzx	ecx, BYTE PTR _bDone$217673[ebp]
	test	ecx, ecx
	jne	$LN81@ContinueMi
	mov	edx, DWORD PTR _hUnit$[ebp]
	mov	DWORD PTR $T219975[ebp], edx
	mov	ecx, DWORD PTR $T219975[ebp]
	call	?canMove@CvUnit@@QBE_NXZ		; CvUnit::canMove
	movzx	eax, al
	test	eax, eax
	je	$LN81@ContinueMi
	mov	ecx, DWORD PTR _hUnit$[ebp]
	mov	DWORD PTR $T219979[ebp], ecx
	mov	ecx, DWORD PTR $T219979[ebp]
	call	?IsDoingPartialMove@CvUnit@@QBE_NXZ	; CvUnit::IsDoingPartialMove
	movzx	edx, al
	test	edx, edx
	jne	$LN81@ContinueMi

; 524  : 		{
; 525  : 			const MissionData& kMissionData = *HeadMissionQueueNode(kMissionQueue);

	mov	eax, DWORD PTR _kMissionQueue$217718[ebp]
	push	eax
	call	?HeadMissionQueueNode@CvUnitMission@@CAPBUMissionData@@ABV?$FFastSmallFixedList@UMissionData@@$0M@$00$0BCJ@$0A@@@@Z ; CvUnitMission::HeadMissionQueueNode
	add	esp, 4
	mov	DWORD PTR _kMissionData$217720[ebp], eax

; 526  : 
; 527  : 			if(kMissionData.eMissionType == CvTypes::getMISSION_MOVE_TO() ||
; 528  : 			        kMissionData.eMissionType == CvTypes::getMISSION_EMBARK() ||
; 529  : 			        kMissionData.eMissionType == CvTypes::getMISSION_DISEMBARK())

	call	?getMISSION_MOVE_TO@CvTypes@@YA?BW4MissionTypes@@XZ ; CvTypes::getMISSION_MOVE_TO
	mov	ecx, DWORD PTR _kMissionData$217720[ebp]
	cmp	DWORD PTR [ecx], eax
	je	SHORT $LN79@ContinueMi
	call	?getMISSION_EMBARK@CvTypes@@YA?BW4MissionTypes@@XZ ; CvTypes::getMISSION_EMBARK
	mov	edx, DWORD PTR _kMissionData$217720[ebp]
	cmp	DWORD PTR [edx], eax
	je	SHORT $LN79@ContinueMi
	call	?getMISSION_DISEMBARK@CvTypes@@YA?BW4MissionTypes@@XZ ; CvTypes::getMISSION_DISEMBARK
	mov	ecx, DWORD PTR _kMissionData$217720[ebp]
	cmp	DWORD PTR [ecx], eax
	jne	$LN80@ContinueMi
$LN79@ContinueMi:

; 530  : 			{
; 531  : 				if(hUnit->getDomainType() == DOMAIN_AIR)

	mov	edx, DWORD PTR _hUnit$[ebp]
	mov	DWORD PTR $T219983[ebp], edx
	mov	ecx, DWORD PTR $T219983[ebp]
	call	?getDomainType@CvUnit@@QBE?AW4DomainTypes@@XZ ; CvUnit::getDomainType
	cmp	eax, 1
	jne	SHORT $LN78@ContinueMi

; 532  : 				{
; 533  : 					hUnit->UnitPathTo(kMissionData.iData1, kMissionData.iData2, kMissionData.iFlags);

	push	0
	push	-1
	mov	eax, DWORD PTR _kMissionData$217720[ebp]
	mov	ecx, DWORD PTR [eax+12]
	push	ecx
	mov	edx, DWORD PTR _kMissionData$217720[ebp]
	mov	eax, DWORD PTR [edx+8]
	push	eax
	mov	ecx, DWORD PTR _kMissionData$217720[ebp]
	mov	edx, DWORD PTR [ecx+4]
	push	edx
	mov	ecx, DWORD PTR _hUnit$[ebp]
	call	?UnitPathTo@CvUnit@@QAEHHHHH_N@Z	; CvUnit::UnitPathTo

; 534  : 					bDone = true;

	mov	BYTE PTR _bDone$217673[ebp], 1

; 535  : 				}
; 536  : 				else

	jmp	SHORT $LN77@ContinueMi
$LN78@ContinueMi:

; 537  : 				{
; 538  : 					int iThisETA = hUnit->UnitPathTo(kMissionData.iData1, kMissionData.iData2, kMissionData.iFlags, iETA);

	mov	eax, DWORD PTR _hUnit$[ebp]
	mov	DWORD PTR $T219990[ebp], eax
	push	0
	mov	ecx, DWORD PTR _iETA$[ebp]
	push	ecx
	mov	edx, DWORD PTR _kMissionData$217720[ebp]
	mov	eax, DWORD PTR [edx+12]
	push	eax
	mov	ecx, DWORD PTR _kMissionData$217720[ebp]
	mov	edx, DWORD PTR [ecx+8]
	push	edx
	mov	eax, DWORD PTR _kMissionData$217720[ebp]
	mov	ecx, DWORD PTR [eax+4]
	push	ecx
	mov	ecx, DWORD PTR $T219990[ebp]
	call	?UnitPathTo@CvUnit@@QAEHHHHH_N@Z	; CvUnit::UnitPathTo
	mov	DWORD PTR _iThisETA$217725[ebp], eax

; 539  : 					if(iThisETA > 0)

	cmp	DWORD PTR _iThisETA$217725[ebp], 0
	jle	SHORT $LN76@ContinueMi

; 540  : 					{
; 541  : 						bAction = true;

	mov	BYTE PTR _bAction$217674[ebp], 1

; 542  : 					}
; 543  : 					else

	jmp	SHORT $LN75@ContinueMi
$LN76@ContinueMi:

; 544  : 					{
; 545  : 						bDone = true;

	mov	BYTE PTR _bDone$217673[ebp], 1
$LN75@ContinueMi:

; 546  : 					}
; 547  : 
; 548  : 					// Save off the initial ETA, we will feed it back into the UnitPathTo so it can check to see if our ETA grows while we are in the loop.
; 549  : 					// This can happen as terrain gets revealed.
; 550  : 					if(iSteps == 0)

	cmp	DWORD PTR _iSteps$[ebp], 0
	jne	SHORT $LN77@ContinueMi

; 551  : 					{
; 552  : 						iETA = iThisETA;

	mov	edx, DWORD PTR _iThisETA$217725[ebp]
	mov	DWORD PTR _iETA$[ebp], edx
$LN77@ContinueMi:

; 553  : 					}
; 554  : 				}

	jmp	$LN81@ContinueMi
$LN80@ContinueMi:

; 555  : 			}
; 556  : 
; 557  : 			else if(kMissionData.eMissionType == CvTypes::getMISSION_ROUTE_TO())

	call	?getMISSION_ROUTE_TO@CvTypes@@YA?BW4MissionTypes@@XZ ; CvTypes::getMISSION_ROUTE_TO
	mov	ecx, DWORD PTR _kMissionData$217720[ebp]
	cmp	DWORD PTR [ecx], eax
	jne	SHORT $LN72@ContinueMi

; 558  : 			{
; 559  : 				if(hUnit->UnitRoadTo(kMissionData.iData1, kMissionData.iData2, kMissionData.iFlags))

	mov	edx, DWORD PTR _hUnit$[ebp]
	mov	DWORD PTR $T219994[ebp], edx
	mov	eax, DWORD PTR _kMissionData$217720[ebp]
	mov	ecx, DWORD PTR [eax+12]
	push	ecx
	mov	edx, DWORD PTR _kMissionData$217720[ebp]
	mov	eax, DWORD PTR [edx+8]
	push	eax
	mov	ecx, DWORD PTR _kMissionData$217720[ebp]
	mov	edx, DWORD PTR [ecx+4]
	push	edx
	mov	ecx, DWORD PTR $T219994[ebp]
	call	?UnitRoadTo@CvUnit@@QAE_NHHH@Z		; CvUnit::UnitRoadTo
	movzx	eax, al
	test	eax, eax
	je	SHORT $LN71@ContinueMi

; 560  : 				{
; 561  : 					bAction = true;

	mov	BYTE PTR _bAction$217674[ebp], 1

; 562  : 				}
; 563  : 				else

	jmp	SHORT $LN70@ContinueMi
$LN71@ContinueMi:

; 564  : 				{
; 565  : 					bDone = true;

	mov	BYTE PTR _bDone$217673[ebp], 1
$LN70@ContinueMi:

; 566  : 				}

	jmp	$LN81@ContinueMi
$LN72@ContinueMi:

; 567  : 			}
; 568  : 
; 569  : 			else if(kMissionData.eMissionType == CvTypes::getMISSION_SWAP_UNITS())

	call	?getMISSION_SWAP_UNITS@CvTypes@@YA?BW4MissionTypes@@XZ ; CvTypes::getMISSION_SWAP_UNITS
	mov	ecx, DWORD PTR _kMissionData$217720[ebp]
	cmp	DWORD PTR [ecx], eax
	jne	$LN68@ContinueMi

; 570  : 			{
; 571  : 				CvPlot* pOriginationPlot;
; 572  : 				CvPlot* pTargetPlot;
; 573  : 
; 574  : 				// Get target plot
; 575  : 				pTargetPlot = GC.getMap().plot(kMissionData.iData1, kMissionData.iData2);

	mov	edx, DWORD PTR ?gGlobals@@3VCvGlobals@@A+52
	mov	DWORD PTR $T219998[ebp], edx
	mov	eax, DWORD PTR _kMissionData$217720[ebp]
	mov	ecx, DWORD PTR [eax+8]
	mov	DWORD PTR $T220061[ebp], ecx
	mov	edx, DWORD PTR _kMissionData$217720[ebp]
	mov	eax, DWORD PTR [edx+4]
	mov	DWORD PTR $T220060[ebp], eax
	cmp	DWORD PTR $T220060[ebp], -2147483647	; 80000001H
	je	SHORT $LN273@ContinueMi
	cmp	DWORD PTR $T220061[ebp], -2147483647	; 80000001H
	jne	SHORT $LN274@ContinueMi
$LN273@ContinueMi:
	mov	DWORD PTR _pTargetPlot$217736[ebp], 0
	jmp	$LN275@ContinueMi
$LN274@ContinueMi:
	mov	ecx, DWORD PTR $T219998[ebp]
	mov	dl, BYTE PTR [ecx+4056]
	mov	BYTE PTR $T220005[ebp], dl
	mov	eax, DWORD PTR $T219998[ebp]
	mov	ecx, DWORD PTR [eax+4020]
	mov	DWORD PTR $T220009[ebp], ecx
	movzx	edx, BYTE PTR $T220005[ebp]
	test	edx, edx
	je	SHORT $LN286@ContinueMi
	cmp	DWORD PTR $T220060[ebp], 0
	jge	SHORT $LN285@ContinueMi
	mov	eax, DWORD PTR $T220060[ebp]
	cdq
	idiv	DWORD PTR $T220009[ebp]
	add	edx, DWORD PTR $T220009[ebp]
	mov	DWORD PTR _iMapX$220037[ebp], edx
	jmp	SHORT $LN287@ContinueMi
	jmp	SHORT $LN286@ContinueMi
$LN285@ContinueMi:
	mov	eax, DWORD PTR $T220060[ebp]
	cmp	eax, DWORD PTR $T220009[ebp]
	jl	SHORT $LN286@ContinueMi
	mov	eax, DWORD PTR $T220060[ebp]
	cdq
	idiv	DWORD PTR $T220009[ebp]
	mov	DWORD PTR _iMapX$220037[ebp], edx
	jmp	SHORT $LN287@ContinueMi
$LN286@ContinueMi:
	mov	ecx, DWORD PTR $T220060[ebp]
	mov	DWORD PTR _iMapX$220037[ebp], ecx
$LN287@ContinueMi:
	mov	edx, DWORD PTR $T219998[ebp]
	mov	al, BYTE PTR [edx+4057]
	mov	BYTE PTR $T220020[ebp], al
	mov	ecx, DWORD PTR $T219998[ebp]
	mov	edx, DWORD PTR [ecx+4024]
	mov	DWORD PTR $T220024[ebp], edx
	movzx	eax, BYTE PTR $T220020[ebp]
	push	eax
	mov	ecx, DWORD PTR $T220024[ebp]
	push	ecx
	mov	edx, DWORD PTR $T220061[ebp]
	push	edx
	call	?coordRange@@YAHHH_N@Z			; coordRange
	add	esp, 12					; 0000000cH
	mov	DWORD PTR _iMapY$220038[ebp], eax
	mov	eax, DWORD PTR _iMapY$220038[ebp]
	push	eax
	mov	ecx, DWORD PTR _iMapX$220037[ebp]
	push	ecx
	mov	ecx, DWORD PTR $T219998[ebp]
	call	?isPlot@CvMap@@QBEHHH@Z			; CvMap::isPlot
	test	eax, eax
	je	SHORT $LN277@ContinueMi
	mov	edx, DWORD PTR $T219998[ebp]
	mov	eax, DWORD PTR [edx+4020]
	mov	DWORD PTR $T220029[ebp], eax
	mov	ecx, DWORD PTR _iMapY$220038[ebp]
	imul	ecx, DWORD PTR $T220029[ebp]
	add	ecx, DWORD PTR _iMapX$220037[ebp]
	imul	ecx, 484				; 000001e4H
	mov	edx, DWORD PTR $T219998[ebp]
	add	ecx, DWORD PTR [edx+4068]
	mov	DWORD PTR tv1336[ebp], ecx
	jmp	SHORT $LN278@ContinueMi
$LN277@ContinueMi:
	mov	DWORD PTR tv1336[ebp], 0
$LN278@ContinueMi:
	mov	eax, DWORD PTR tv1336[ebp]
	mov	DWORD PTR _pTargetPlot$217736[ebp], eax
$LN275@ContinueMi:

; 576  : 
; 577  : 				if(pTargetPlot != NULL)

	cmp	DWORD PTR _pTargetPlot$217736[ebp], 0
	je	$LN67@ContinueMi

; 578  : 				{
; 579  : 					pOriginationPlot = hUnit->plot();

	mov	ecx, DWORD PTR _hUnit$[ebp]
	mov	DWORD PTR $T220065[ebp], ecx
	mov	ecx, DWORD PTR $T220065[ebp]
	call	?plot@CvUnit@@QBEPAVCvPlot@@XZ		; CvUnit::plot
	mov	DWORD PTR _pOriginationPlot$217735[ebp], eax

; 580  : 
; 581  : 					if(pTargetPlot->getNumUnits() < 1)

	mov	ecx, DWORD PTR _pTargetPlot$217736[ebp]
	call	?getNumUnits@CvPlot@@QBEHXZ		; CvPlot::getNumUnits
	cmp	eax, 1
	jge	SHORT $LN66@ContinueMi

; 582  : 					{
; 583  : 						bAction = false;

	mov	BYTE PTR _bAction$217674[ebp], 0

; 584  : 						bDone = true;

	mov	BYTE PTR _bDone$217673[ebp], 1

; 585  : 						break;

	jmp	$ContinueMissionExit$217677
$LN66@ContinueMi:

; 586  : 					}
; 587  : 
; 588  : 					// Find unit to move out
; 589  : #ifdef AUI_WARNING_FIXES
; 590  : 					for (uint iI = 0; iI < pTargetPlot->getNumUnits(); iI++)
; 591  : #else
; 592  : 					for(int iI = 0; iI < pTargetPlot->getNumUnits(); iI++)

	mov	DWORD PTR _iI$217739[ebp], 0
	jmp	SHORT $LN65@ContinueMi
$LN64@ContinueMi:
	mov	edx, DWORD PTR _iI$217739[ebp]
	add	edx, 1
	mov	DWORD PTR _iI$217739[ebp], edx
$LN65@ContinueMi:
	mov	ecx, DWORD PTR _pTargetPlot$217736[ebp]
	call	?getNumUnits@CvPlot@@QBEHXZ		; CvPlot::getNumUnits
	cmp	DWORD PTR _iI$217739[ebp], eax
	jge	$LN67@ContinueMi

; 593  : #endif
; 594  : 					{
; 595  : 						CvUnit* pUnit2 = pTargetPlot->getUnitByIndex(iI);

	mov	eax, DWORD PTR _iI$217739[ebp]
	push	eax
	mov	ecx, DWORD PTR _pTargetPlot$217736[ebp]
	call	?getUnitByIndex@CvPlot@@QBEPAVCvUnit@@H@Z ; CvPlot::getUnitByIndex
	mov	DWORD PTR _pUnit2$217743[ebp], eax

; 596  : 
; 597  : 						if(pUnit2->AreUnitsOfSameType(*(hUnit)) && pUnit2->ReadyToMove())

	mov	ecx, DWORD PTR _hUnit$[ebp]
	mov	DWORD PTR $T220069[ebp], ecx
	push	0
	mov	edx, DWORD PTR $T220069[ebp]
	push	edx
	mov	ecx, DWORD PTR _pUnit2$217743[ebp]
	call	?AreUnitsOfSameType@CvUnit@@QBE_NABV1@_N@Z ; CvUnit::AreUnitsOfSameType
	movzx	eax, al
	test	eax, eax
	je	$LN62@ContinueMi
	mov	ecx, DWORD PTR _pUnit2$217743[ebp]
	call	?ReadyToMove@CvUnit@@QBE_NXZ		; CvUnit::ReadyToMove
	movzx	ecx, al
	test	ecx, ecx
	je	SHORT $LN62@ContinueMi

; 598  : 						{
; 599  : 							// Start the swap
; 600  : 							hUnit->UnitPathTo(HeadMissionQueueNode(kMissionQueue)->iData1, HeadMissionQueueNode(kMissionQueue)->iData2, MOVE_IGNORE_STACKING);

	mov	edx, DWORD PTR _hUnit$[ebp]
	mov	DWORD PTR $T220073[ebp], edx
	push	0
	push	-1
	push	4
	mov	eax, DWORD PTR _kMissionQueue$217718[ebp]
	push	eax
	call	?HeadMissionQueueNode@CvUnitMission@@CAPBUMissionData@@ABV?$FFastSmallFixedList@UMissionData@@$0M@$00$0BCJ@$0A@@@@Z ; CvUnitMission::HeadMissionQueueNode
	add	esp, 4
	mov	ecx, DWORD PTR [eax+8]
	push	ecx
	mov	edx, DWORD PTR _kMissionQueue$217718[ebp]
	push	edx
	call	?HeadMissionQueueNode@CvUnitMission@@CAPBUMissionData@@ABV?$FFastSmallFixedList@UMissionData@@$0M@$00$0BCJ@$0A@@@@Z ; CvUnitMission::HeadMissionQueueNode
	add	esp, 4
	mov	eax, DWORD PTR [eax+4]
	push	eax
	mov	ecx, DWORD PTR $T220073[ebp]
	call	?UnitPathTo@CvUnit@@QAEHHHHH_N@Z	; CvUnit::UnitPathTo

; 601  : 
; 602  : 							// Move the other unit back out
; 603  : 							pUnit2->UnitPathTo(pOriginationPlot->getX(), pOriginationPlot->getY(), 0);

	mov	ecx, DWORD PTR _pOriginationPlot$217735[ebp]
	movsx	edx, WORD PTR [ecx+2]
	mov	DWORD PTR $T220077[ebp], edx
	push	0
	push	-1
	push	0
	mov	eax, DWORD PTR $T220077[ebp]
	push	eax
	mov	ecx, DWORD PTR _pOriginationPlot$217735[ebp]
	movsx	edx, WORD PTR [ecx]
	push	edx
	mov	ecx, DWORD PTR _pUnit2$217743[ebp]
	call	?UnitPathTo@CvUnit@@QAEHHHHH_N@Z	; CvUnit::UnitPathTo

; 604  : 							bDone = true;

	mov	BYTE PTR _bDone$217673[ebp], 1
$LN62@ContinueMi:

; 605  : 						}
; 606  : 					}

	jmp	$LN64@ContinueMi
$LN67@ContinueMi:

; 607  : 				}
; 608  : 			}

	jmp	$LN81@ContinueMi
$LN68@ContinueMi:

; 609  : 
; 610  : 			else if(kMissionData.eMissionType == CvTypes::getMISSION_MOVE_TO_UNIT())

	call	?getMISSION_MOVE_TO_UNIT@CvTypes@@YA?BW4MissionTypes@@XZ ; CvTypes::getMISSION_MOVE_TO_UNIT
	mov	ecx, DWORD PTR _kMissionData$217720[ebp]
	cmp	DWORD PTR [ecx], eax
	jne	$LN60@ContinueMi

; 611  : 			{
; 612  : 				if((hUnit->AI_getUnitAIType() == UNITAI_DEFENSE) && hUnit->plot()->isCity() && (hUnit->plot()->getTeam() == hUnit->getTeam()))

	mov	edx, DWORD PTR _hUnit$[ebp]
	mov	DWORD PTR $T220084[ebp], edx
	mov	ecx, DWORD PTR $T220084[ebp]
	call	?AI_getUnitAIType@CvUnit@@QBE?AW4UnitAITypes@@XZ ; CvUnit::AI_getUnitAIType
	cmp	eax, 6
	jne	$LN59@ContinueMi
	mov	eax, DWORD PTR _hUnit$[ebp]
	mov	DWORD PTR $T220088[ebp], eax
	mov	ecx, DWORD PTR $T220088[ebp]
	call	?plot@CvUnit@@QBEPAVCvPlot@@XZ		; CvUnit::plot
	mov	ecx, eax
	call	?isCity@CvPlot@@QBE_NXZ			; CvPlot::isCity
	movzx	ecx, al
	test	ecx, ecx
	je	$LN59@ContinueMi
	mov	edx, DWORD PTR _hUnit$[ebp]
	mov	DWORD PTR $T220097[ebp], edx
	mov	ecx, DWORD PTR $T220097[ebp]
	call	?plot@CvUnit@@QBEPAVCvPlot@@XZ		; CvUnit::plot
	mov	DWORD PTR $T220114[ebp], eax
	mov	eax, DWORD PTR $T220114[ebp]
	movsx	ecx, BYTE PTR [eax+4]
	mov	DWORD PTR _playerID$220106[ebp], ecx
	cmp	DWORD PTR _playerID$220106[ebp], -1
	je	SHORT $LN319@ContinueMi
	mov	edx, DWORD PTR _playerID$220106[ebp]
	push	edx
	call	?teamType@CvPreGame@@YA?AW4TeamTypes@@W4PlayerTypes@@@Z ; CvPreGame::teamType
	add	esp, 4
	mov	DWORD PTR $T220115[ebp], eax
	jmp	SHORT $LN320@ContinueMi
	jmp	SHORT $LN320@ContinueMi
$LN319@ContinueMi:
	mov	DWORD PTR $T220115[ebp], -1
$LN320@ContinueMi:
	mov	eax, DWORD PTR _hUnit$[ebp]
	mov	DWORD PTR $T220119[ebp], eax
	mov	ecx, DWORD PTR $T220119[ebp]
	call	?getTeam@CvUnit@@QBE?AW4TeamTypes@@XZ	; CvUnit::getTeam
	cmp	DWORD PTR $T220115[ebp], eax
	jne	$LN59@ContinueMi

; 613  : 				{
; 614  : 					if(hUnit->plot()->getBestDefender(hUnit->getOwner()) == hUnit.pointer())

	mov	ecx, DWORD PTR _hUnit$[ebp]
	mov	DWORD PTR $T220127[ebp], ecx
	mov	edx, DWORD PTR $T220127[ebp]
	mov	eax, DWORD PTR [edx+40]
	mov	DWORD PTR $T220136[ebp], eax
	mov	ecx, DWORD PTR _hUnit$[ebp]
	mov	DWORD PTR $T220140[ebp], ecx
	push	0
	push	0
	push	0
	push	0
	push	0
	push	-1
	mov	edx, DWORD PTR $T220136[ebp]
	push	edx
	lea	eax, DWORD PTR $T219657[ebp]
	push	eax
	mov	ecx, DWORD PTR $T220140[ebp]
	call	?plot@CvUnit@@QBEPAVCvPlot@@XZ		; CvUnit::plot
	mov	ecx, eax
	call	?getBestDefender@CvPlot@@QAE?AV?$FObjectHandle@VCvUnit@@@@W4PlayerTypes@@0PBVCvUnit@@_N222@Z ; CvPlot::getBestDefender
	mov	DWORD PTR $T220144[ebp], eax
	mov	ecx, DWORD PTR _hUnit$[ebp]
	mov	DWORD PTR $T220123[ebp], ecx
	mov	edx, DWORD PTR $T220144[ebp]
	mov	eax, DWORD PTR [edx]
	xor	ecx, ecx
	cmp	eax, DWORD PTR $T220123[ebp]
	sete	cl
	mov	BYTE PTR $T219656[ebp], cl
	cmp	DWORD PTR $T219657[ebp], 0
	je	SHORT $LN341@ContinueMi
	mov	ecx, DWORD PTR $T219657[ebp]
	call	?getDestructionNotification@CvUnit@@QAEAAU?$DestructionNotification@V?$FObjectHandle@VCvUnit@@@@@@XZ ; CvUnit::getDestructionNotification
$LN341@ContinueMi:
	movzx	edx, BYTE PTR $T219656[ebp]
	test	edx, edx
	je	SHORT $LN59@ContinueMi

; 615  : 					{
; 616  : 						bAction = false;

	mov	BYTE PTR _bAction$217674[ebp], 0

; 617  : 						bDone = true;

	mov	BYTE PTR _bDone$217673[ebp], 1

; 618  : 						break;

	jmp	$ContinueMissionExit$217677
$LN59@ContinueMi:

; 619  : 					}
; 620  : 				}
; 621  : 				UnitHandle pTargetUnit = GET_PLAYER((PlayerTypes)kMissionData.iData1).getUnit(kMissionData.iData2);

	mov	eax, DWORD PTR _kMissionData$217720[ebp]
	mov	ecx, DWORD PTR [eax+4]
	imul	ecx, 63236				; 0000f704H
	add	ecx, DWORD PTR ?m_aPlayers@CvPlayerAI@@1PAV1@A ; CvPlayerAI::m_aPlayers
	mov	DWORD PTR $T220157[ebp], ecx
	mov	edx, DWORD PTR _kMissionData$217720[ebp]
	mov	eax, DWORD PTR [edx+8]
	push	eax
	mov	ecx, DWORD PTR $T220157[ebp]
	call	?getUnit@CvPlayer@@QAEPAVCvUnit@@H@Z	; CvPlayer::getUnit
	mov	DWORD PTR $T220167[ebp], eax
	mov	ecx, DWORD PTR $T220167[ebp]
	mov	DWORD PTR _pTargetUnit$217751[ebp], ecx
	mov	BYTE PTR _pTargetUnit$217751[ebp+4], 0
	cmp	DWORD PTR _pTargetUnit$217751[ebp], 0
	je	SHORT $LN348@ContinueMi
	mov	ecx, DWORD PTR _pTargetUnit$217751[ebp]
	call	?getDestructionNotification@CvUnit@@QAEAAU?$DestructionNotification@V?$FObjectHandle@VCvUnit@@@@@@XZ ; CvUnit::getDestructionNotification
$LN348@ContinueMi:
	mov	BYTE PTR __$EHRec$[ebp+8], 1

; 622  : 				if(pTargetUnit)

	xor	edx, edx
	cmp	DWORD PTR _pTargetUnit$217751[ebp], 0
	setne	dl
	movzx	eax, dl
	test	eax, eax
	je	$LN57@ContinueMi

; 623  : 				{
; 624  : 					if(hUnit->GetMissionAIType() != MISSIONAI_SHADOW && hUnit->GetMissionAIType() != MISSIONAI_GROUP)

	mov	ecx, DWORD PTR _hUnit$[ebp]
	mov	DWORD PTR $T220174[ebp], ecx
	mov	ecx, DWORD PTR $T220174[ebp]
	call	?GetMissionAIType@CvUnit@@QAE?AW4MissionAITypes@@XZ ; CvUnit::GetMissionAIType
	test	eax, eax
	je	$LN56@ContinueMi
	mov	edx, DWORD PTR _hUnit$[ebp]
	mov	DWORD PTR $T220178[ebp], edx
	mov	ecx, DWORD PTR $T220178[ebp]
	call	?GetMissionAIType@CvUnit@@QAE?AW4MissionAITypes@@XZ ; CvUnit::GetMissionAIType
	cmp	eax, 1
	je	$LN56@ContinueMi

; 625  : 					{
; 626  : 						if(!hUnit->plot()->isOwned() || hUnit->plot()->getOwner() == hUnit->getOwner())

	mov	eax, DWORD PTR _hUnit$[ebp]
	mov	DWORD PTR $T220182[ebp], eax
	mov	ecx, DWORD PTR $T220182[ebp]
	call	?plot@CvUnit@@QBEPAVCvPlot@@XZ		; CvUnit::plot
	mov	ecx, eax
	call	?isOwned@CvPlot@@QBE_NXZ		; CvPlot::isOwned
	movzx	ecx, al
	test	ecx, ecx
	je	SHORT $LN54@ContinueMi
	mov	edx, DWORD PTR _hUnit$[ebp]
	mov	DWORD PTR $T220186[ebp], edx
	mov	ecx, DWORD PTR $T220186[ebp]
	call	?plot@CvUnit@@QBEPAVCvPlot@@XZ		; CvUnit::plot
	mov	DWORD PTR $T220190[ebp], eax
	mov	eax, DWORD PTR $T220190[ebp]
	movsx	ecx, BYTE PTR [eax+4]
	mov	DWORD PTR $T220191[ebp], ecx
	mov	edx, DWORD PTR _hUnit$[ebp]
	mov	DWORD PTR $T220195[ebp], edx
	mov	eax, DWORD PTR $T220195[ebp]
	mov	ecx, DWORD PTR [eax+40]
	mov	DWORD PTR $T220204[ebp], ecx
	mov	edx, DWORD PTR $T220191[ebp]
	cmp	edx, DWORD PTR $T220204[ebp]
	jne	$LN56@ContinueMi
$LN54@ContinueMi:

; 627  : 						{
; 628  : 							CvPlot* pMissionPlot = pTargetUnit->GetMissionAIPlot();

	mov	eax, DWORD PTR _pTargetUnit$217751[ebp]
	mov	DWORD PTR $T220208[ebp], eax
	mov	ecx, DWORD PTR $T220208[ebp]
	call	?GetMissionAIPlot@CvUnit@@QAEPAVCvPlot@@XZ ; CvUnit::GetMissionAIPlot
	mov	DWORD PTR _pMissionPlot$217757[ebp], eax

; 629  : 							if(pMissionPlot != NULL && NO_TEAM != pMissionPlot->getTeam())

	cmp	DWORD PTR _pMissionPlot$217757[ebp], 0
	je	$LN56@ContinueMi
	mov	ecx, DWORD PTR _pMissionPlot$217757[ebp]
	movsx	edx, BYTE PTR [ecx+4]
	mov	DWORD PTR _playerID$220222[ebp], edx
	cmp	DWORD PTR _playerID$220222[ebp], -1
	je	SHORT $LN373@ContinueMi
	mov	eax, DWORD PTR _playerID$220222[ebp]
	push	eax
	call	?teamType@CvPreGame@@YA?AW4TeamTypes@@W4PlayerTypes@@@Z ; CvPreGame::teamType
	add	esp, 4
	mov	DWORD PTR $T220225[ebp], eax
	jmp	SHORT $LN374@ContinueMi
	jmp	SHORT $LN374@ContinueMi
$LN373@ContinueMi:
	mov	DWORD PTR $T220225[ebp], -1
$LN374@ContinueMi:
	cmp	DWORD PTR $T220225[ebp], -1
	je	$LN56@ContinueMi

; 630  : 							{
; 631  : 								if(pMissionPlot->isOwned() && pTargetUnit->isPotentialEnemy(pMissionPlot->getTeam(), pMissionPlot))

	mov	ecx, DWORD PTR _pMissionPlot$217757[ebp]
	call	?isOwned@CvPlot@@QBE_NXZ		; CvPlot::isOwned
	movzx	ecx, al
	test	ecx, ecx
	je	$LN56@ContinueMi
	mov	edx, DWORD PTR _pMissionPlot$217757[ebp]
	movsx	eax, BYTE PTR [edx+4]
	mov	DWORD PTR _playerID$220239[ebp], eax
	cmp	DWORD PTR _playerID$220239[ebp], -1
	je	SHORT $LN381@ContinueMi
	mov	ecx, DWORD PTR _playerID$220239[ebp]
	push	ecx
	call	?teamType@CvPreGame@@YA?AW4TeamTypes@@W4PlayerTypes@@@Z ; CvPreGame::teamType
	add	esp, 4
	mov	DWORD PTR $T220242[ebp], eax
	jmp	SHORT $LN382@ContinueMi
	jmp	SHORT $LN382@ContinueMi
$LN381@ContinueMi:
	mov	DWORD PTR $T220242[ebp], -1
$LN382@ContinueMi:
	mov	edx, DWORD PTR _pTargetUnit$217751[ebp]
	mov	DWORD PTR $T220246[ebp], edx
	mov	eax, DWORD PTR _pMissionPlot$217757[ebp]
	push	eax
	mov	ecx, DWORD PTR $T220242[ebp]
	push	ecx
	mov	ecx, DWORD PTR $T220246[ebp]
	call	?isPotentialEnemy@CvUnit@@QBE_NW4TeamTypes@@PBVCvPlot@@@Z ; CvUnit::isPotentialEnemy
	movzx	edx, al
	test	edx, edx
	je	SHORT $LN56@ContinueMi

; 632  : 								{
; 633  : 									bAction = false;

	mov	BYTE PTR _bAction$217674[ebp], 0

; 634  : 									bDone = true;

	mov	BYTE PTR _bDone$217673[ebp], 1

; 635  : 									break;

	mov	BYTE PTR __$EHRec$[ebp+8], 0
	cmp	DWORD PTR _pTargetUnit$217751[ebp], 0
	je	SHORT $LN391@ContinueMi
	mov	ecx, DWORD PTR _pTargetUnit$217751[ebp]
	call	?getDestructionNotification@CvUnit@@QAEAAU?$DestructionNotification@V?$FObjectHandle@VCvUnit@@@@@@XZ ; CvUnit::getDestructionNotification
$LN391@ContinueMi:
	jmp	$ContinueMissionExit$217677
$LN56@ContinueMi:

; 636  : 								}
; 637  : 							}
; 638  : 						}
; 639  : 					}
; 640  : 
; 641  : 					if(hUnit->UnitPathTo(pTargetUnit->getX(), pTargetUnit->getY(), kMissionData.iFlags) > 0)

	mov	eax, DWORD PTR _pTargetUnit$217751[ebp]
	mov	DWORD PTR $T220259[ebp], eax
	mov	ecx, DWORD PTR $T220259[ebp]
	mov	edx, DWORD PTR [ecx+88]
	mov	DWORD PTR $T220268[ebp], edx
	mov	eax, DWORD PTR _pTargetUnit$217751[ebp]
	mov	DWORD PTR $T220272[ebp], eax
	mov	ecx, DWORD PTR $T220272[ebp]
	mov	edx, DWORD PTR [ecx+76]
	mov	DWORD PTR $T220281[ebp], edx
	mov	eax, DWORD PTR _hUnit$[ebp]
	mov	DWORD PTR $T220285[ebp], eax
	push	0
	push	-1
	mov	ecx, DWORD PTR _kMissionData$217720[ebp]
	mov	edx, DWORD PTR [ecx+12]
	push	edx
	mov	eax, DWORD PTR $T220268[ebp]
	push	eax
	mov	ecx, DWORD PTR $T220281[ebp]
	push	ecx
	mov	ecx, DWORD PTR $T220285[ebp]
	call	?UnitPathTo@CvUnit@@QAEHHHHH_N@Z	; CvUnit::UnitPathTo
	test	eax, eax
	jle	SHORT $LN51@ContinueMi

; 642  : 					{
; 643  : 						bAction = true;

	mov	BYTE PTR _bAction$217674[ebp], 1

; 644  : 					}
; 645  : 					else

	jmp	SHORT $LN50@ContinueMi
$LN51@ContinueMi:

; 646  : 					{
; 647  : 						bDone = true;

	mov	BYTE PTR _bDone$217673[ebp], 1
$LN50@ContinueMi:

; 648  : 					}
; 649  : 				}
; 650  : 				else

	jmp	SHORT $LN49@ContinueMi
$LN57@ContinueMi:

; 651  : 				{
; 652  : 					bDone = true;

	mov	BYTE PTR _bDone$217673[ebp], 1
$LN49@ContinueMi:

; 653  : 				}
; 654  : 			}

	mov	BYTE PTR __$EHRec$[ebp+8], 0
	cmp	DWORD PTR _pTargetUnit$217751[ebp], 0
	je	SHORT $LN410@ContinueMi
	mov	ecx, DWORD PTR _pTargetUnit$217751[ebp]
	call	?getDestructionNotification@CvUnit@@QAEAAU?$DestructionNotification@V?$FObjectHandle@VCvUnit@@@@@@XZ ; CvUnit::getDestructionNotification
$LN410@ContinueMi:

; 655  : 
; 656  : 			else if(kMissionData.eMissionType == CvTypes::getMISSION_RANGE_ATTACK())

	jmp	$LN81@ContinueMi
$LN60@ContinueMi:
	call	?getMISSION_RANGE_ATTACK@CvTypes@@YA?BW4MissionTypes@@XZ ; CvTypes::getMISSION_RANGE_ATTACK
	mov	edx, DWORD PTR _kMissionData$217720[ebp]
	cmp	DWORD PTR [edx], eax
	jne	SHORT $LN47@ContinueMi

; 657  : 			{
; 658  : 				if(CvUnitCombat::AttackRanged(*hUnit, kMissionData.iData1, kMissionData.iData2, (kMissionData.iFlags &  MISSION_MODIFIER_NO_DEFENSIVE_SUPPORT)?CvUnitCombat::ATTACK_OPTION_NO_DEFENSIVE_SUPPORT:CvUnitCombat::ATTACK_OPTION_NONE) != CvUnitCombat::ATTACK_ABORTED)

	mov	eax, DWORD PTR _hUnit$[ebp]
	mov	DWORD PTR $T220298[ebp], eax
	mov	ecx, DWORD PTR _kMissionData$217720[ebp]
	mov	edx, DWORD PTR [ecx+12]
	and	edx, 256				; 00000100H
	neg	edx
	sbb	edx, edx
	neg	edx
	push	edx
	mov	eax, DWORD PTR _kMissionData$217720[ebp]
	mov	ecx, DWORD PTR [eax+8]
	push	ecx
	mov	edx, DWORD PTR _kMissionData$217720[ebp]
	mov	eax, DWORD PTR [edx+4]
	push	eax
	mov	ecx, DWORD PTR $T220298[ebp]
	push	ecx
	call	?AttackRanged@CvUnitCombat@@SA?AW4ATTACK_RESULT@1@AAVCvUnit@@HHW4ATTACK_OPTION@1@@Z ; CvUnitCombat::AttackRanged
	add	esp, 16					; 00000010H
	test	eax, eax
	je	SHORT $LN46@ContinueMi

; 659  : 				{
; 660  : 					bDone = true;

	mov	BYTE PTR _bDone$217673[ebp], 1
$LN46@ContinueMi:

; 661  : 				}
; 662  : 			}

	jmp	$LN81@ContinueMi
$LN47@ContinueMi:

; 663  : 
; 664  : 			else if(kMissionData.eMissionType == CvTypes::getMISSION_NUKE())

	call	?getMISSION_NUKE@CvTypes@@YA?BW4MissionTypes@@XZ ; CvTypes::getMISSION_NUKE
	mov	edx, DWORD PTR _kMissionData$217720[ebp]
	cmp	DWORD PTR [edx], eax
	jne	SHORT $LN44@ContinueMi

; 665  : 			{
; 666  : 				if(CvUnitCombat::AttackNuclear(*hUnit, kMissionData.iData1, kMissionData.iData2, (kMissionData.iFlags &  MISSION_MODIFIER_NO_DEFENSIVE_SUPPORT)?CvUnitCombat::ATTACK_OPTION_NO_DEFENSIVE_SUPPORT:CvUnitCombat::ATTACK_OPTION_NONE) != CvUnitCombat::ATTACK_ABORTED)

	mov	eax, DWORD PTR _hUnit$[ebp]
	mov	DWORD PTR $T220302[ebp], eax
	mov	ecx, DWORD PTR _kMissionData$217720[ebp]
	mov	edx, DWORD PTR [ecx+12]
	and	edx, 256				; 00000100H
	neg	edx
	sbb	edx, edx
	neg	edx
	push	edx
	mov	eax, DWORD PTR _kMissionData$217720[ebp]
	mov	ecx, DWORD PTR [eax+8]
	push	ecx
	mov	edx, DWORD PTR _kMissionData$217720[ebp]
	mov	eax, DWORD PTR [edx+4]
	push	eax
	mov	ecx, DWORD PTR $T220302[ebp]
	push	ecx
	call	?AttackNuclear@CvUnitCombat@@SA?AW4ATTACK_RESULT@1@AAVCvUnit@@HHW4ATTACK_OPTION@1@@Z ; CvUnitCombat::AttackNuclear
	add	esp, 16					; 00000010H
	test	eax, eax
	je	SHORT $LN43@ContinueMi

; 667  : 				{
; 668  : 					bDone = true;

	mov	BYTE PTR _bDone$217673[ebp], 1
$LN43@ContinueMi:

; 669  : 				}
; 670  : 			}

	jmp	SHORT $LN81@ContinueMi
$LN44@ContinueMi:

; 671  : 
; 672  : 			else if(kMissionData.eMissionType == CvTypes::getMISSION_BUILD())

	call	?getMISSION_BUILD@CvTypes@@YA?BW4MissionTypes@@XZ ; CvTypes::getMISSION_BUILD
	mov	edx, DWORD PTR _kMissionData$217720[ebp]
	cmp	DWORD PTR [edx], eax
	jne	SHORT $LN81@ContinueMi

; 673  : 			{
; 674  : 				if(!hUnit->UnitBuild((BuildTypes)(kMissionData.iData1)))

	mov	eax, DWORD PTR _hUnit$[ebp]
	mov	DWORD PTR $T220306[ebp], eax
	mov	ecx, DWORD PTR _kMissionData$217720[ebp]
	mov	edx, DWORD PTR [ecx+4]
	push	edx
	mov	ecx, DWORD PTR $T220306[ebp]
	call	?UnitBuild@CvUnit@@QAE_NW4BuildTypes@@@Z ; CvUnit::UnitBuild
	movzx	eax, al
	test	eax, eax
	jne	SHORT $LN81@ContinueMi

; 675  : 				{
; 676  : 					bDone = true;

	mov	BYTE PTR _bDone$217673[ebp], 1
$LN81@ContinueMi:

; 677  : 				}
; 678  : 			}
; 679  : 		}
; 680  : 
; 681  : 		// check to see if mission is done
; 682  : 		if(!bDone && (hUnit->HeadMissionQueueNode() != NULL))

	movzx	ecx, BYTE PTR _bDone$217673[ebp]
	test	ecx, ecx
	jne	$LN39@ContinueMi
	mov	edx, DWORD PTR _hUnit$[ebp]
	mov	DWORD PTR $T220310[ebp], edx
	mov	ecx, DWORD PTR $T220310[ebp]
	call	?HeadMissionQueueNode@CvUnit@@IAEPAUMissionData@@XZ ; CvUnit::HeadMissionQueueNode
	test	eax, eax
	je	$LN39@ContinueMi

; 683  : 		{
; 684  : 			const MissionData& kMissionData = *HeadMissionQueueNode(kMissionQueue);

	mov	eax, DWORD PTR _kMissionQueue$217718[ebp]
	push	eax
	call	?HeadMissionQueueNode@CvUnitMission@@CAPBUMissionData@@ABV?$FFastSmallFixedList@UMissionData@@$0M@$00$0BCJ@$0A@@@@Z ; CvUnitMission::HeadMissionQueueNode
	add	esp, 4
	mov	DWORD PTR _kMissionData$217774[ebp], eax

; 685  : 
; 686  : 			if(kMissionData.eMissionType == CvTypes::getMISSION_MOVE_TO() ||
; 687  : 			        kMissionData.eMissionType == CvTypes::getMISSION_SWAP_UNITS() ||
; 688  : 			        kMissionData.eMissionType == CvTypes::getMISSION_EMBARK() ||
; 689  : 			        kMissionData.eMissionType == CvTypes::getMISSION_DISEMBARK())

	call	?getMISSION_MOVE_TO@CvTypes@@YA?BW4MissionTypes@@XZ ; CvTypes::getMISSION_MOVE_TO
	mov	ecx, DWORD PTR _kMissionData$217774[ebp]
	cmp	DWORD PTR [ecx], eax
	je	SHORT $LN37@ContinueMi
	call	?getMISSION_SWAP_UNITS@CvTypes@@YA?BW4MissionTypes@@XZ ; CvTypes::getMISSION_SWAP_UNITS
	mov	edx, DWORD PTR _kMissionData$217774[ebp]
	cmp	DWORD PTR [edx], eax
	je	SHORT $LN37@ContinueMi
	call	?getMISSION_EMBARK@CvTypes@@YA?BW4MissionTypes@@XZ ; CvTypes::getMISSION_EMBARK
	mov	ecx, DWORD PTR _kMissionData$217774[ebp]
	cmp	DWORD PTR [ecx], eax
	je	SHORT $LN37@ContinueMi
	call	?getMISSION_DISEMBARK@CvTypes@@YA?BW4MissionTypes@@XZ ; CvTypes::getMISSION_DISEMBARK
	mov	edx, DWORD PTR _kMissionData$217774[ebp]
	cmp	DWORD PTR [edx], eax
	jne	SHORT $LN38@ContinueMi
$LN37@ContinueMi:

; 690  : 			{
; 691  : 				if(hUnit->at(kMissionData.iData1, kMissionData.iData2))

	mov	eax, DWORD PTR _hUnit$[ebp]
	mov	DWORD PTR $T220314[ebp], eax
	mov	ecx, DWORD PTR _kMissionData$217774[ebp]
	mov	edx, DWORD PTR [ecx+8]
	push	edx
	mov	eax, DWORD PTR _kMissionData$217774[ebp]
	mov	ecx, DWORD PTR [eax+4]
	push	ecx
	mov	ecx, DWORD PTR $T220314[ebp]
	call	?at@CvUnit@@QBE_NHH@Z			; CvUnit::at
	movzx	edx, al
	test	edx, edx
	je	SHORT $LN36@ContinueMi

; 692  : 				{
; 693  : 					bDone = true;

	mov	BYTE PTR _bDone$217673[ebp], 1
$LN36@ContinueMi:

; 694  : #ifdef LOG_UNIT_MOVES
; 695  : 					std::ostringstream updateMsg;
; 696  : 					updateMsg << "ContinueMission() : player ";
; 697  : 					updateMsg << GET_PLAYER(hUnit->getOwner()).getName();
; 698  : 					updateMsg << hUnit->getName() << " id=" << hUnit->GetID() << " reached " << kMissionData.iData1 << ", " << kMissionData.iData2;
; 699  : 					gDLL->netMessageDebugLog(updateMsg.str());
; 700  : #endif
; 701  : 				}
; 702  : 			}

	jmp	$LN39@ContinueMi
$LN38@ContinueMi:

; 703  : 
; 704  : 			else if(kMissionData.eMissionType == CvTypes::getMISSION_ROUTE_TO())

	call	?getMISSION_ROUTE_TO@CvTypes@@YA?BW4MissionTypes@@XZ ; CvTypes::getMISSION_ROUTE_TO
	mov	ecx, DWORD PTR _kMissionData$217774[ebp]
	cmp	DWORD PTR [ecx], eax
	jne	SHORT $LN34@ContinueMi

; 705  : 			{
; 706  : 				if(hUnit->at(kMissionData.iData1, kMissionData.iData2))

	mov	edx, DWORD PTR _hUnit$[ebp]
	mov	DWORD PTR $T220318[ebp], edx
	mov	eax, DWORD PTR _kMissionData$217774[ebp]
	mov	ecx, DWORD PTR [eax+8]
	push	ecx
	mov	edx, DWORD PTR _kMissionData$217774[ebp]
	mov	eax, DWORD PTR [edx+4]
	push	eax
	mov	ecx, DWORD PTR $T220318[ebp]
	call	?at@CvUnit@@QBE_NHH@Z			; CvUnit::at
	movzx	ecx, al
	test	ecx, ecx
	je	SHORT $LN33@ContinueMi

; 707  : 				{
; 708  : 					if(hUnit->GetBestBuildRoute(hUnit->plot()) == NO_ROUTE)

	mov	edx, DWORD PTR _hUnit$[ebp]
	mov	DWORD PTR $T220322[ebp], edx
	mov	eax, DWORD PTR _hUnit$[ebp]
	mov	DWORD PTR $T220326[ebp], eax
	push	0
	mov	ecx, DWORD PTR $T220322[ebp]
	call	?plot@CvUnit@@QBEPAVCvPlot@@XZ		; CvUnit::plot
	push	eax
	mov	ecx, DWORD PTR $T220326[ebp]
	call	?GetBestBuildRoute@CvUnit@@QBE?AW4RouteTypes@@PAVCvPlot@@PAW4BuildTypes@@@Z ; CvUnit::GetBestBuildRoute
	cmp	eax, -1
	jne	SHORT $LN33@ContinueMi

; 709  : 					{
; 710  : 						bDone = true;

	mov	BYTE PTR _bDone$217673[ebp], 1
$LN33@ContinueMi:

; 711  : 					}
; 712  : 				}
; 713  : 			}

	jmp	$LN39@ContinueMi
$LN34@ContinueMi:

; 714  : 
; 715  : 			else if(kMissionData.eMissionType == CvTypes::getMISSION_MOVE_TO_UNIT())

	call	?getMISSION_MOVE_TO_UNIT@CvTypes@@YA?BW4MissionTypes@@XZ ; CvTypes::getMISSION_MOVE_TO_UNIT
	mov	ecx, DWORD PTR _kMissionData$217774[ebp]
	cmp	DWORD PTR [ecx], eax
	jne	$LN30@ContinueMi

; 716  : 			{
; 717  : 				UnitHandle pTargetUnit = GET_PLAYER((PlayerTypes)kMissionData.iData1).getUnit(kMissionData.iData2);

	mov	edx, DWORD PTR _kMissionData$217774[ebp]
	mov	eax, DWORD PTR [edx+4]
	imul	eax, 63236				; 0000f704H
	add	eax, DWORD PTR ?m_aPlayers@CvPlayerAI@@1PAV1@A ; CvPlayerAI::m_aPlayers
	mov	DWORD PTR $T220330[ebp], eax
	mov	ecx, DWORD PTR _kMissionData$217774[ebp]
	mov	edx, DWORD PTR [ecx+8]
	push	edx
	mov	ecx, DWORD PTR $T220330[ebp]
	call	?getUnit@CvPlayer@@QAEPAVCvUnit@@H@Z	; CvPlayer::getUnit
	mov	DWORD PTR $T220340[ebp], eax
	mov	eax, DWORD PTR $T220340[ebp]
	mov	DWORD PTR _pTargetUnit$217784[ebp], eax
	mov	BYTE PTR _pTargetUnit$217784[ebp+4], 0
	cmp	DWORD PTR _pTargetUnit$217784[ebp], 0
	je	SHORT $LN433@ContinueMi
	mov	ecx, DWORD PTR _pTargetUnit$217784[ebp]
	call	?getDestructionNotification@CvUnit@@QAEAAU?$DestructionNotification@V?$FObjectHandle@VCvUnit@@@@@@XZ ; CvUnit::getDestructionNotification
$LN433@ContinueMi:
	mov	BYTE PTR __$EHRec$[ebp+8], 2

; 718  : 				if((!pTargetUnit) ||hUnit-> plot() == pTargetUnit->plot())

	xor	ecx, ecx
	cmp	DWORD PTR _pTargetUnit$217784[ebp], 0
	sete	cl
	movzx	edx, cl
	test	edx, edx
	jne	SHORT $LN28@ContinueMi
	mov	eax, DWORD PTR _hUnit$[ebp]
	mov	DWORD PTR $T220347[ebp], eax
	mov	ecx, DWORD PTR _pTargetUnit$217784[ebp]
	mov	DWORD PTR $T220351[ebp], ecx
	mov	ecx, DWORD PTR $T220347[ebp]
	call	?plot@CvUnit@@QBEPAVCvPlot@@XZ		; CvUnit::plot
	mov	esi, eax
	mov	ecx, DWORD PTR $T220351[ebp]
	call	?plot@CvUnit@@QBEPAVCvPlot@@XZ		; CvUnit::plot
	cmp	esi, eax
	jne	SHORT $LN29@ContinueMi
$LN28@ContinueMi:

; 719  : 				{
; 720  : 					bDone = true;

	mov	BYTE PTR _bDone$217673[ebp], 1
$LN29@ContinueMi:

; 721  : 				}
; 722  : 			}

	mov	BYTE PTR __$EHRec$[ebp+8], 0
	cmp	DWORD PTR _pTargetUnit$217784[ebp], 0
	je	SHORT $LN444@ContinueMi
	mov	ecx, DWORD PTR _pTargetUnit$217784[ebp]
	call	?getDestructionNotification@CvUnit@@QAEAAU?$DestructionNotification@V?$FObjectHandle@VCvUnit@@@@@@XZ ; CvUnit::getDestructionNotification
$LN444@ContinueMi:

; 723  : 
; 724  : 			else if(kMissionData.eMissionType == CvTypes::getMISSION_SET_UP_FOR_RANGED_ATTACK() ||

	jmp	$LN39@ContinueMi
$LN30@ContinueMi:

; 725  : 					kMissionData.eMissionType == CvTypes::getMISSION_AIRLIFT() ||
; 726  : 					kMissionData.eMissionType == CvTypes::getMISSION_NUKE() ||
; 727  : 					kMissionData.eMissionType == CvTypes::getMISSION_PARADROP() ||
; 728  : 					kMissionData.eMissionType == CvTypes::getMISSION_AIR_SWEEP() ||
; 729  : 					kMissionData.eMissionType == CvTypes::getMISSION_REBASE() ||
; 730  : 			        kMissionData.eMissionType == CvTypes::getMISSION_RANGE_ATTACK() ||
; 731  : 			        kMissionData.eMissionType == CvTypes::getMISSION_PILLAGE() ||
; 732  : 			        kMissionData.eMissionType == CvTypes::getMISSION_FOUND() ||
; 733  : 			        kMissionData.eMissionType == CvTypes::getMISSION_JOIN() ||
; 734  : 			        kMissionData.eMissionType == CvTypes::getMISSION_CONSTRUCT() ||
; 735  : 			        kMissionData.eMissionType == CvTypes::getMISSION_DISCOVER() ||
; 736  : 			        kMissionData.eMissionType == CvTypes::getMISSION_HURRY() ||
; 737  : 					kMissionData.eMissionType == CvTypes::getMISSION_TRADE() ||
; 738  : 					kMissionData.eMissionType == CvTypes::getMISSION_BUY_CITY_STATE() ||
; 739  : 					kMissionData.eMissionType == CvTypes::getMISSION_REPAIR_FLEET() ||
; 740  : 			        kMissionData.eMissionType == CvTypes::getMISSION_SPACESHIP() ||
; 741  : 			        kMissionData.eMissionType == CvTypes::getMISSION_CULTURE_BOMB() ||
; 742  : 			        kMissionData.eMissionType == CvTypes::getMISSION_FOUND_RELIGION() ||
; 743  : 			        kMissionData.eMissionType == CvTypes::getMISSION_GOLDEN_AGE() ||
; 744  : 			        kMissionData.eMissionType == CvTypes::getMISSION_LEAD() ||
; 745  : 			        kMissionData.eMissionType == CvTypes::getMISSION_DIE_ANIMATION() ||
; 746  : 			        kMissionData.eMissionType == CvTypes::getMISSION_SPREAD_RELIGION() ||
; 747  : 			        kMissionData.eMissionType == CvTypes::getMISSION_ENHANCE_RELIGION() ||
; 748  : 			        kMissionData.eMissionType == CvTypes::getMISSION_REMOVE_HERESY() ||
; 749  : 					kMissionData.eMissionType == CvTypes::getMISSION_ESTABLISH_TRADE_ROUTE() ||
; 750  : 					kMissionData.eMissionType == CvTypes::getMISSION_PLUNDER_TRADE_ROUTE() ||
; 751  : 					kMissionData.eMissionType == CvTypes::getMISSION_GREAT_WORK() ||
; 752  : 					kMissionData.eMissionType == CvTypes::getMISSION_CHANGE_TRADE_UNIT_HOME_CITY() ||
; 753  : 					kMissionData.eMissionType == CvTypes::getMISSION_SELL_EXOTIC_GOODS() ||
; 754  : 					kMissionData.eMissionType == CvTypes::getMISSION_GIVE_POLICIES() ||
; 755  : 					kMissionData.eMissionType == CvTypes::getMISSION_ONE_SHOT_TOURISM() ||
; 756  : 					kMissionData.eMissionType == CvTypes::getMISSION_CHANGE_ADMIRAL_PORT())

	call	?getMISSION_SET_UP_FOR_RANGED_ATTACK@CvTypes@@YA?BW4MissionTypes@@XZ ; CvTypes::getMISSION_SET_UP_FOR_RANGED_ATTACK
	mov	edx, DWORD PTR _kMissionData$217774[ebp]
	cmp	DWORD PTR [edx], eax
	je	$LN25@ContinueMi
	call	?getMISSION_AIRLIFT@CvTypes@@YA?BW4MissionTypes@@XZ ; CvTypes::getMISSION_AIRLIFT
	mov	ecx, DWORD PTR _kMissionData$217774[ebp]
	cmp	DWORD PTR [ecx], eax
	je	$LN25@ContinueMi
	call	?getMISSION_NUKE@CvTypes@@YA?BW4MissionTypes@@XZ ; CvTypes::getMISSION_NUKE
	mov	edx, DWORD PTR _kMissionData$217774[ebp]
	cmp	DWORD PTR [edx], eax
	je	$LN25@ContinueMi
	call	?getMISSION_PARADROP@CvTypes@@YA?BW4MissionTypes@@XZ ; CvTypes::getMISSION_PARADROP
	mov	ecx, DWORD PTR _kMissionData$217774[ebp]
	cmp	DWORD PTR [ecx], eax
	je	$LN25@ContinueMi
	call	?getMISSION_AIR_SWEEP@CvTypes@@YA?BW4MissionTypes@@XZ ; CvTypes::getMISSION_AIR_SWEEP
	mov	edx, DWORD PTR _kMissionData$217774[ebp]
	cmp	DWORD PTR [edx], eax
	je	$LN25@ContinueMi
	call	?getMISSION_REBASE@CvTypes@@YA?BW4MissionTypes@@XZ ; CvTypes::getMISSION_REBASE
	mov	ecx, DWORD PTR _kMissionData$217774[ebp]
	cmp	DWORD PTR [ecx], eax
	je	$LN25@ContinueMi
	call	?getMISSION_RANGE_ATTACK@CvTypes@@YA?BW4MissionTypes@@XZ ; CvTypes::getMISSION_RANGE_ATTACK
	mov	edx, DWORD PTR _kMissionData$217774[ebp]
	cmp	DWORD PTR [edx], eax
	je	$LN25@ContinueMi
	call	?getMISSION_PILLAGE@CvTypes@@YA?BW4MissionTypes@@XZ ; CvTypes::getMISSION_PILLAGE
	mov	ecx, DWORD PTR _kMissionData$217774[ebp]
	cmp	DWORD PTR [ecx], eax
	je	$LN25@ContinueMi
	call	?getMISSION_FOUND@CvTypes@@YA?BW4MissionTypes@@XZ ; CvTypes::getMISSION_FOUND
	mov	edx, DWORD PTR _kMissionData$217774[ebp]
	cmp	DWORD PTR [edx], eax
	je	$LN25@ContinueMi
	call	?getMISSION_JOIN@CvTypes@@YA?BW4MissionTypes@@XZ ; CvTypes::getMISSION_JOIN
	mov	ecx, DWORD PTR _kMissionData$217774[ebp]
	cmp	DWORD PTR [ecx], eax
	je	$LN25@ContinueMi
	call	?getMISSION_CONSTRUCT@CvTypes@@YA?BW4MissionTypes@@XZ ; CvTypes::getMISSION_CONSTRUCT
	mov	edx, DWORD PTR _kMissionData$217774[ebp]
	cmp	DWORD PTR [edx], eax
	je	$LN25@ContinueMi
	call	?getMISSION_DISCOVER@CvTypes@@YA?BW4MissionTypes@@XZ ; CvTypes::getMISSION_DISCOVER
	mov	ecx, DWORD PTR _kMissionData$217774[ebp]
	cmp	DWORD PTR [ecx], eax
	je	$LN25@ContinueMi
	call	?getMISSION_HURRY@CvTypes@@YA?BW4MissionTypes@@XZ ; CvTypes::getMISSION_HURRY
	mov	edx, DWORD PTR _kMissionData$217774[ebp]
	cmp	DWORD PTR [edx], eax
	je	$LN25@ContinueMi
	call	?getMISSION_TRADE@CvTypes@@YA?BW4MissionTypes@@XZ ; CvTypes::getMISSION_TRADE
	mov	ecx, DWORD PTR _kMissionData$217774[ebp]
	cmp	DWORD PTR [ecx], eax
	je	$LN25@ContinueMi
	call	?getMISSION_BUY_CITY_STATE@CvTypes@@YA?BW4MissionTypes@@XZ ; CvTypes::getMISSION_BUY_CITY_STATE
	mov	edx, DWORD PTR _kMissionData$217774[ebp]
	cmp	DWORD PTR [edx], eax
	je	$LN25@ContinueMi
	call	?getMISSION_REPAIR_FLEET@CvTypes@@YA?BW4MissionTypes@@XZ ; CvTypes::getMISSION_REPAIR_FLEET
	mov	ecx, DWORD PTR _kMissionData$217774[ebp]
	cmp	DWORD PTR [ecx], eax
	je	$LN25@ContinueMi
	call	?getMISSION_SPACESHIP@CvTypes@@YA?BW4MissionTypes@@XZ ; CvTypes::getMISSION_SPACESHIP
	mov	edx, DWORD PTR _kMissionData$217774[ebp]
	cmp	DWORD PTR [edx], eax
	je	$LN25@ContinueMi
	call	?getMISSION_CULTURE_BOMB@CvTypes@@YA?BW4MissionTypes@@XZ ; CvTypes::getMISSION_CULTURE_BOMB
	mov	ecx, DWORD PTR _kMissionData$217774[ebp]
	cmp	DWORD PTR [ecx], eax
	je	$LN25@ContinueMi
	call	?getMISSION_FOUND_RELIGION@CvTypes@@YA?BW4MissionTypes@@XZ ; CvTypes::getMISSION_FOUND_RELIGION
	mov	edx, DWORD PTR _kMissionData$217774[ebp]
	cmp	DWORD PTR [edx], eax
	je	$LN25@ContinueMi
	call	?getMISSION_GOLDEN_AGE@CvTypes@@YA?BW4MissionTypes@@XZ ; CvTypes::getMISSION_GOLDEN_AGE
	mov	ecx, DWORD PTR _kMissionData$217774[ebp]
	cmp	DWORD PTR [ecx], eax
	je	$LN25@ContinueMi
	call	?getMISSION_LEAD@CvTypes@@YA?BW4MissionTypes@@XZ ; CvTypes::getMISSION_LEAD
	mov	edx, DWORD PTR _kMissionData$217774[ebp]
	cmp	DWORD PTR [edx], eax
	je	$LN25@ContinueMi
	call	?getMISSION_DIE_ANIMATION@CvTypes@@YA?BW4MissionTypes@@XZ ; CvTypes::getMISSION_DIE_ANIMATION
	mov	ecx, DWORD PTR _kMissionData$217774[ebp]
	cmp	DWORD PTR [ecx], eax
	je	$LN25@ContinueMi
	call	?getMISSION_SPREAD_RELIGION@CvTypes@@YA?BW4MissionTypes@@XZ ; CvTypes::getMISSION_SPREAD_RELIGION
	mov	edx, DWORD PTR _kMissionData$217774[ebp]
	cmp	DWORD PTR [edx], eax
	je	$LN25@ContinueMi
	call	?getMISSION_ENHANCE_RELIGION@CvTypes@@YA?BW4MissionTypes@@XZ ; CvTypes::getMISSION_ENHANCE_RELIGION
	mov	ecx, DWORD PTR _kMissionData$217774[ebp]
	cmp	DWORD PTR [ecx], eax
	je	$LN25@ContinueMi
	call	?getMISSION_REMOVE_HERESY@CvTypes@@YA?BW4MissionTypes@@XZ ; CvTypes::getMISSION_REMOVE_HERESY
	mov	edx, DWORD PTR _kMissionData$217774[ebp]
	cmp	DWORD PTR [edx], eax
	je	SHORT $LN25@ContinueMi
	call	?getMISSION_ESTABLISH_TRADE_ROUTE@CvTypes@@YA?BW4MissionTypes@@XZ ; CvTypes::getMISSION_ESTABLISH_TRADE_ROUTE
	mov	ecx, DWORD PTR _kMissionData$217774[ebp]
	cmp	DWORD PTR [ecx], eax
	je	SHORT $LN25@ContinueMi
	call	?getMISSION_PLUNDER_TRADE_ROUTE@CvTypes@@YA?BW4MissionTypes@@XZ ; CvTypes::getMISSION_PLUNDER_TRADE_ROUTE
	mov	edx, DWORD PTR _kMissionData$217774[ebp]
	cmp	DWORD PTR [edx], eax
	je	SHORT $LN25@ContinueMi
	call	?getMISSION_GREAT_WORK@CvTypes@@YA?BW4MissionTypes@@XZ ; CvTypes::getMISSION_GREAT_WORK
	mov	ecx, DWORD PTR _kMissionData$217774[ebp]
	cmp	DWORD PTR [ecx], eax
	je	SHORT $LN25@ContinueMi
	call	?getMISSION_CHANGE_TRADE_UNIT_HOME_CITY@CvTypes@@YA?BW4MissionTypes@@XZ ; CvTypes::getMISSION_CHANGE_TRADE_UNIT_HOME_CITY
	mov	edx, DWORD PTR _kMissionData$217774[ebp]
	cmp	DWORD PTR [edx], eax
	je	SHORT $LN25@ContinueMi
	call	?getMISSION_SELL_EXOTIC_GOODS@CvTypes@@YA?BW4MissionTypes@@XZ ; CvTypes::getMISSION_SELL_EXOTIC_GOODS
	mov	ecx, DWORD PTR _kMissionData$217774[ebp]
	cmp	DWORD PTR [ecx], eax
	je	SHORT $LN25@ContinueMi
	call	?getMISSION_GIVE_POLICIES@CvTypes@@YA?BW4MissionTypes@@XZ ; CvTypes::getMISSION_GIVE_POLICIES
	mov	edx, DWORD PTR _kMissionData$217774[ebp]
	cmp	DWORD PTR [edx], eax
	je	SHORT $LN25@ContinueMi
	call	?getMISSION_ONE_SHOT_TOURISM@CvTypes@@YA?BW4MissionTypes@@XZ ; CvTypes::getMISSION_ONE_SHOT_TOURISM
	mov	ecx, DWORD PTR _kMissionData$217774[ebp]
	cmp	DWORD PTR [ecx], eax
	je	SHORT $LN25@ContinueMi
	call	?getMISSION_CHANGE_ADMIRAL_PORT@CvTypes@@YA?BW4MissionTypes@@XZ ; CvTypes::getMISSION_CHANGE_ADMIRAL_PORT
	mov	edx, DWORD PTR _kMissionData$217774[ebp]
	cmp	DWORD PTR [edx], eax
	jne	SHORT $LN26@ContinueMi
$LN25@ContinueMi:

; 757  : 			{
; 758  : 				bDone = true;

	mov	BYTE PTR _bDone$217673[ebp], 1
	jmp	SHORT $LN39@ContinueMi
$LN26@ContinueMi:

; 759  : 			}
; 760  : 
; 761  : 			else if(kMissionData.eMissionType == CvTypes::getMISSION_WAIT_FOR())

	call	?getMISSION_WAIT_FOR@CvTypes@@YA?BW4MissionTypes@@XZ ; CvTypes::getMISSION_WAIT_FOR
	mov	ecx, DWORD PTR _kMissionData$217774[ebp]
	cmp	DWORD PTR [ecx], eax
	jne	SHORT $LN39@ContinueMi

; 762  : 			{
; 763  : 				CvUnit* pkWaitingFor = GET_PLAYER((PlayerTypes)kMissionData.iData1).getUnit(kMissionData.iData2);

	mov	edx, DWORD PTR _kMissionData$217774[ebp]
	mov	eax, DWORD PTR [edx+4]
	imul	eax, 63236				; 0000f704H
	add	eax, DWORD PTR ?m_aPlayers@CvPlayerAI@@1PAV1@A ; CvPlayerAI::m_aPlayers
	mov	DWORD PTR $T220364[ebp], eax
	mov	ecx, DWORD PTR _kMissionData$217774[ebp]
	mov	edx, DWORD PTR [ecx+8]
	push	edx
	mov	ecx, DWORD PTR $T220364[ebp]
	call	?getUnit@CvPlayer@@QAEPAVCvUnit@@H@Z	; CvPlayer::getUnit
	mov	DWORD PTR _pkWaitingFor$217793[ebp], eax

; 764  : 				if(!pkWaitingFor || !pkWaitingFor->IsBusy())

	cmp	DWORD PTR _pkWaitingFor$217793[ebp], 0
	je	SHORT $LN21@ContinueMi
	mov	ecx, DWORD PTR _pkWaitingFor$217793[ebp]
	call	?IsBusy@CvUnit@@QBE_NXZ			; CvUnit::IsBusy
	movzx	eax, al
	test	eax, eax
	jne	SHORT $LN450@ContinueMi
$LN21@ContinueMi:

; 765  : 				{
; 766  : 					bDone = true;

	mov	BYTE PTR _bDone$217673[ebp], 1

; 767  : 				}
; 768  : 				else

	jmp	SHORT $LN39@ContinueMi

; 769  : 				{
; 770  : 					// Set the mission timer to 1 so we will get another UpdateMission call
; 771  : 					hUnit->ChangeMissionTimer(1);

$LN450@ContinueMi:
	push	1
	mov	ecx, DWORD PTR _hUnit$[ebp]
	call	?ChangeMissionTimer@CvUnit@@QAEXH@Z	; CvUnit::ChangeMissionTimer
$LN39@ContinueMi:

; 772  : 				}
; 773  : 			}
; 774  : 		}
; 775  : 
; 776  : 		if(HeadMissionQueueNode(kMissionQueue) != NULL)

	mov	ecx, DWORD PTR _kMissionQueue$217718[ebp]
	push	ecx
	call	?HeadMissionQueueNode@CvUnitMission@@CAPBUMissionData@@ABV?$FFastSmallFixedList@UMissionData@@$0M@$00$0BCJ@$0A@@@@Z ; CvUnitMission::HeadMissionQueueNode
	add	esp, 4
	test	eax, eax
	je	$LN19@ContinueMi

; 777  : 		{
; 778  : 			// if there is an action, if it's done or there are not moves left, and a player is watching, watch the movement
; 779  : 			if(bAction && (bDone || !hUnit->canMove()) && hUnit->plot()->isVisibleToWatchingHuman())

	movzx	edx, BYTE PTR _bAction$217674[ebp]
	test	edx, edx
	je	$LN18@ContinueMi
	movzx	eax, BYTE PTR _bDone$217673[ebp]
	test	eax, eax
	jne	SHORT $LN17@ContinueMi
	mov	ecx, DWORD PTR _hUnit$[ebp]
	mov	DWORD PTR $T220371[ebp], ecx
	mov	ecx, DWORD PTR $T220371[ebp]
	call	?canMove@CvUnit@@QBE_NXZ		; CvUnit::canMove
	movzx	edx, al
	test	edx, edx
	jne	$LN18@ContinueMi
$LN17@ContinueMi:
	mov	eax, DWORD PTR _hUnit$[ebp]
	mov	DWORD PTR $T220375[ebp], eax
	mov	ecx, DWORD PTR $T220375[ebp]
	call	?plot@CvUnit@@QBEPAVCvPlot@@XZ		; CvUnit::plot
	mov	ecx, eax
	call	?isVisibleToWatchingHuman@CvPlot@@QBE_NXZ ; CvPlot::isVisibleToWatchingHuman
	movzx	ecx, al
	test	ecx, ecx
	je	$LN18@ContinueMi

; 780  : 			{
; 781  : 				UpdateMissionTimer(hUnit, iSteps);

	mov	edx, DWORD PTR _iSteps$[ebp]
	push	edx
	sub	esp, 8
	mov	eax, esp
	mov	DWORD PTR $T219658[ebp], esp
	mov	DWORD PTR $T220385[ebp], eax
	mov	ecx, DWORD PTR $T220385[ebp]
	mov	edx, DWORD PTR _hUnit$[ebp]
	mov	DWORD PTR [ecx], edx
	mov	eax, DWORD PTR $T220385[ebp]
	mov	cl, BYTE PTR _hUnit$[ebp+4]
	mov	BYTE PTR [eax+4], cl
	mov	edx, DWORD PTR $T220385[ebp]
	cmp	DWORD PTR [edx], 0
	je	SHORT $LN457@ContinueMi
	mov	eax, DWORD PTR $T220385[ebp]
	mov	ecx, DWORD PTR [eax]
	call	?getDestructionNotification@CvUnit@@QAEAAU?$DestructionNotification@V?$FObjectHandle@VCvUnit@@@@@@XZ ; CvUnit::getDestructionNotification
$LN457@ContinueMi:
	mov	ecx, DWORD PTR $T220385[ebp]
	mov	DWORD PTR tv1218[ebp], ecx
	call	?UpdateMissionTimer@CvUnitMission@@SAXV?$FObjectHandle@VCvUnit@@@@H@Z ; CvUnitMission::UpdateMissionTimer
	add	esp, 12					; 0000000cH

; 782  : 
; 783  : 				if(hUnit->ShowMoves() && GC.getGame().getActivePlayer() != NO_PLAYER && hUnit->getOwner() != GC.getGame().getActivePlayer() && hUnit->plot()->isActiveVisible(false))

	mov	edx, DWORD PTR _hUnit$[ebp]
	mov	DWORD PTR $T220389[ebp], edx
	mov	ecx, DWORD PTR $T220389[ebp]
	call	?ShowMoves@CvUnit@@QBE_NXZ		; CvUnit::ShowMoves
	movzx	eax, al
	test	eax, eax
	je	$LN18@ContinueMi
	mov	ecx, DWORD PTR ?gGlobals@@3VCvGlobals@@A+48
	mov	DWORD PTR $T220393[ebp], ecx
	mov	ecx, DWORD PTR $T220393[ebp]
	call	?getActivePlayer@CvGame@@QBE?AW4PlayerTypes@@XZ ; CvGame::getActivePlayer
	cmp	eax, -1
	je	$LN18@ContinueMi
	mov	edx, DWORD PTR _hUnit$[ebp]
	mov	DWORD PTR $T220397[ebp], edx
	mov	eax, DWORD PTR $T220397[ebp]
	mov	ecx, DWORD PTR [eax+40]
	mov	DWORD PTR $T220406[ebp], ecx
	mov	edx, DWORD PTR ?gGlobals@@3VCvGlobals@@A+48
	mov	DWORD PTR $T220410[ebp], edx
	mov	ecx, DWORD PTR $T220410[ebp]
	call	?getActivePlayer@CvGame@@QBE?AW4PlayerTypes@@XZ ; CvGame::getActivePlayer
	cmp	DWORD PTR $T220406[ebp], eax
	je	$LN18@ContinueMi
	mov	eax, DWORD PTR _hUnit$[ebp]
	mov	DWORD PTR $T220414[ebp], eax
	push	0
	mov	ecx, DWORD PTR $T220414[ebp]
	call	?plot@CvUnit@@QBEPAVCvPlot@@XZ		; CvUnit::plot
	mov	ecx, eax
	call	?isActiveVisible@CvPlot@@QBE_N_N@Z	; CvPlot::isActiveVisible
	movzx	ecx, al
	test	ecx, ecx
	je	$LN18@ContinueMi

; 784  : 				{
; 785  : 					auto_ptr<ICvPlot1> pDllPlot = GC.WrapPlotPointer(hUnit->plot());

	mov	edx, DWORD PTR _hUnit$[ebp]
	mov	DWORD PTR $T220418[ebp], edx
	mov	ecx, DWORD PTR $T220418[ebp]
	call	?plot@CvUnit@@QBEPAVCvPlot@@XZ		; CvUnit::plot
	push	eax
	lea	eax, DWORD PTR $T219659[ebp]
	push	eax
	mov	ecx, OFFSET ?gGlobals@@3VCvGlobals@@A	; gGlobals
	call	?WrapPlotPointer@CvGlobals@@QAE?AV?$auto_ptr@VICvPlot1@@@std@@PAVCvPlot@@@Z ; CvGlobals::WrapPlotPointer
	mov	DWORD PTR $T220429[ebp], eax
	mov	ecx, DWORD PTR $T220429[ebp]
	mov	edx, DWORD PTR [ecx]
	mov	DWORD PTR __Cvtptr$220427[ebp], edx
	mov	eax, DWORD PTR __Cvtptr$220427[ebp]
	mov	DWORD PTR __Ans$220428[ebp], eax
	mov	ecx, DWORD PTR $T220429[ebp]
	mov	DWORD PTR [ecx], 0
	mov	edx, DWORD PTR __Ans$220428[ebp]
	mov	DWORD PTR $T219660[ebp], edx
	mov	eax, DWORD PTR $T219660[ebp]
	mov	DWORD PTR $T220434[ebp], eax
	mov	ecx, DWORD PTR $T220434[ebp]
	mov	DWORD PTR __Ptr$220433[ebp], ecx
	mov	DWORD PTR $T220434[ebp], 0
	mov	edx, DWORD PTR __Ptr$220433[ebp]
	mov	DWORD PTR _pDllPlot$217850[ebp], edx
	mov	BYTE PTR __$EHRec$[ebp+8], 3
	mov	eax, DWORD PTR $T219659[ebp]
	mov	DWORD PTR $T220443[ebp], eax
	cmp	DWORD PTR $T220443[ebp], 0
	je	SHORT $LN483@ContinueMi
	mov	ecx, DWORD PTR $T220443[ebp]
	mov	DWORD PTR _inst$220447[ebp], ecx
	mov	edx, DWORD PTR _inst$220447[ebp]
	mov	eax, DWORD PTR [edx]
	mov	ecx, DWORD PTR _inst$220447[ebp]
	push	ecx
	mov	edx, DWORD PTR [eax+4]
	call	edx
$LN483@ContinueMi:

; 786  : 					GC.GetEngineUserInterface()->lookAt(pDllPlot.get(), CAMERALOOKAT_NORMAL);

	mov	eax, DWORD PTR $T220452[ebp]
	mov	DWORD PTR tv997[ebp], eax
	mov	ecx, DWORD PTR ?gGlobals@@3VCvGlobals@@A+8568
	mov	DWORD PTR tv997[ebp], ecx
	push	0
	mov	edx, DWORD PTR _pDllPlot$217850[ebp]
	push	edx
	mov	eax, DWORD PTR tv997[ebp]
	mov	edx, DWORD PTR [eax]
	mov	ecx, DWORD PTR tv997[ebp]
	mov	eax, DWORD PTR [edx+272]
	call	eax

; 787  : 				}

	mov	BYTE PTR __$EHRec$[ebp+8], 0
	mov	ecx, DWORD PTR _pDllPlot$217850[ebp]
	mov	DWORD PTR $T220464[ebp], ecx
	cmp	DWORD PTR $T220464[ebp], 0
	je	SHORT $LN18@ContinueMi
	mov	edx, DWORD PTR $T220464[ebp]
	mov	DWORD PTR _inst$220468[ebp], edx
	mov	eax, DWORD PTR _inst$220468[ebp]
	mov	ecx, DWORD PTR [eax]
	mov	edx, DWORD PTR _inst$220468[ebp]
	push	edx
	mov	eax, DWORD PTR [ecx+4]
	call	eax
$LN18@ContinueMi:

; 788  : 			}
; 789  : 
; 790  : 			if(bDone)

	movzx	ecx, BYTE PTR _bDone$217673[ebp]
	test	ecx, ecx
	je	$LN15@ContinueMi

; 791  : 			{
; 792  : 				if(hUnit->IsWork())

	mov	edx, DWORD PTR _hUnit$[ebp]
	mov	DWORD PTR $T220473[ebp], edx
	mov	ecx, DWORD PTR $T220473[ebp]
	call	?IsWork@CvUnit@@QBE_NXZ			; CvUnit::IsWork
	movzx	eax, al
	test	eax, eax
	je	$LN14@ContinueMi

; 793  : 				{
; 794  : 					auto_ptr<ICvUnit1> pDllUnit(new CvDllUnit(hUnit.pointer()));

	push	12					; 0000000cH
	call	??2CvDllUnit@@SAPAXI@Z			; CvDllUnit::operator new
	add	esp, 4
	mov	DWORD PTR $T219662[ebp], eax
	mov	BYTE PTR __$EHRec$[ebp+8], 4
	cmp	DWORD PTR $T219662[ebp], 0
	je	SHORT $LN112@ContinueMi
	mov	ecx, DWORD PTR _hUnit$[ebp]
	mov	DWORD PTR $T220477[ebp], ecx
	mov	edx, DWORD PTR $T220477[ebp]
	push	edx
	mov	ecx, DWORD PTR $T219662[ebp]
	call	??0CvDllUnit@@QAE@PAVCvUnit@@@Z		; CvDllUnit::CvDllUnit
	mov	DWORD PTR tv1027[ebp], eax
	jmp	SHORT $LN113@ContinueMi
$LN112@ContinueMi:
	mov	DWORD PTR tv1027[ebp], 0
$LN113@ContinueMi:
	mov	eax, DWORD PTR tv1027[ebp]
	mov	DWORD PTR $T219661[ebp], eax
	mov	BYTE PTR __$EHRec$[ebp+8], 0
	mov	ecx, DWORD PTR $T219661[ebp]
	mov	DWORD PTR _pDllUnit$217877[ebp], ecx
	mov	BYTE PTR __$EHRec$[ebp+8], 5

; 795  : 					gDLL->GameplayUnitWork(pDllUnit.get(), -1);

	mov	edx, DWORD PTR $T220484[ebp]
	mov	DWORD PTR tv1037[ebp], edx
	mov	eax, DWORD PTR ?gGlobals@@3VCvGlobals@@A+8564
	mov	DWORD PTR tv1037[ebp], eax
	push	-1
	mov	ecx, DWORD PTR _pDllUnit$217877[ebp]
	push	ecx
	mov	edx, DWORD PTR tv1037[ebp]
	mov	eax, DWORD PTR [edx]
	mov	ecx, DWORD PTR tv1037[ebp]
	mov	edx, DWORD PTR [eax+612]
	call	edx

; 796  : 				}

	mov	BYTE PTR __$EHRec$[ebp+8], 0
	mov	eax, DWORD PTR _pDllUnit$217877[ebp]
	mov	DWORD PTR $T220496[ebp], eax
	cmp	DWORD PTR $T220496[ebp], 0
	je	SHORT $LN14@ContinueMi
	mov	ecx, DWORD PTR $T220496[ebp]
	mov	DWORD PTR _inst$220500[ebp], ecx
	mov	edx, DWORD PTR _inst$220500[ebp]
	mov	eax, DWORD PTR [edx]
	mov	ecx, DWORD PTR _inst$220500[ebp]
	push	ecx
	mov	edx, DWORD PTR [eax+4]
	call	edx
$LN14@ContinueMi:

; 797  : 
; 798  : 				if(hUnit->GetMissionTimer() == 0 && !hUnit->isInCombat())	// Was hUnit->IsBusy(), but its ok to clear the mission if the unit is just completing a move visualization

	mov	eax, DWORD PTR _hUnit$[ebp]
	mov	DWORD PTR $T220505[ebp], eax
	mov	ecx, DWORD PTR $T220505[ebp]
	call	?GetMissionTimer@CvUnit@@QBEHXZ		; CvUnit::GetMissionTimer
	test	eax, eax
	jne	$LN13@ContinueMi
	mov	ecx, DWORD PTR _hUnit$[ebp]
	mov	DWORD PTR $T220509[ebp], ecx
	mov	ecx, DWORD PTR $T220509[ebp]
	call	?isInCombat@CvUnit@@QBE_NXZ		; CvUnit::isInCombat
	movzx	edx, al
	test	edx, edx
	jne	$LN13@ContinueMi

; 799  : 				{
; 800  : 					if(hUnit->getOwner() == GC.getGame().getActivePlayer() && hUnit->IsSelected())

	mov	eax, DWORD PTR _hUnit$[ebp]
	mov	DWORD PTR $T220513[ebp], eax
	mov	ecx, DWORD PTR $T220513[ebp]
	mov	edx, DWORD PTR [ecx+40]
	mov	DWORD PTR $T220522[ebp], edx
	mov	eax, DWORD PTR ?gGlobals@@3VCvGlobals@@A+48
	mov	DWORD PTR $T220526[ebp], eax
	mov	ecx, DWORD PTR $T220526[ebp]
	call	?getActivePlayer@CvGame@@QBE?AW4PlayerTypes@@XZ ; CvGame::getActivePlayer
	cmp	DWORD PTR $T220522[ebp], eax
	jne	$LN12@ContinueMi
	mov	ecx, DWORD PTR _hUnit$[ebp]
	mov	DWORD PTR $T220530[ebp], ecx
	mov	ecx, DWORD PTR $T220530[ebp]
	call	?IsSelected@CvUnit@@QBE_NXZ		; CvUnit::IsSelected
	movzx	edx, al
	test	edx, edx
	je	$LN12@ContinueMi

; 801  : 					{
; 802  : 						const MissionData& kMissionData = *HeadMissionQueueNode(kMissionQueue);

	mov	eax, DWORD PTR _kMissionQueue$217718[ebp]
	push	eax
	call	?HeadMissionQueueNode@CvUnitMission@@CAPBUMissionData@@ABV?$FFastSmallFixedList@UMissionData@@$0M@$00$0BCJ@$0A@@@@Z ; CvUnitMission::HeadMissionQueueNode
	add	esp, 4
	mov	DWORD PTR _kMissionData$217880[ebp], eax

; 803  : 
; 804  : 						if((kMissionData.eMissionType == CvTypes::getMISSION_MOVE_TO()) ||
; 805  : 						        (kMissionData.eMissionType == CvTypes::getMISSION_ROUTE_TO()) ||
; 806  : 						        (kMissionData.eMissionType == CvTypes::getMISSION_MOVE_TO_UNIT()))

	call	?getMISSION_MOVE_TO@CvTypes@@YA?BW4MissionTypes@@XZ ; CvTypes::getMISSION_MOVE_TO
	mov	ecx, DWORD PTR _kMissionData$217880[ebp]
	cmp	DWORD PTR [ecx], eax
	je	SHORT $LN10@ContinueMi
	call	?getMISSION_ROUTE_TO@CvTypes@@YA?BW4MissionTypes@@XZ ; CvTypes::getMISSION_ROUTE_TO
	mov	edx, DWORD PTR _kMissionData$217880[ebp]
	cmp	DWORD PTR [edx], eax
	je	SHORT $LN10@ContinueMi
	call	?getMISSION_MOVE_TO_UNIT@CvTypes@@YA?BW4MissionTypes@@XZ ; CvTypes::getMISSION_MOVE_TO_UNIT
	mov	ecx, DWORD PTR _kMissionData$217880[ebp]
	cmp	DWORD PTR [ecx], eax
	jne	$LN12@ContinueMi
$LN10@ContinueMi:

; 807  : 						{
; 808  : 							// How long does the camera wait before jumping to the next item?
; 809  : 							int iCameraTime;
; 810  : 
; 811  : 							if(GET_PLAYER(hUnit->getOwner()).isOption(PLAYEROPTION_QUICK_MOVES))

	mov	edx, DWORD PTR _hUnit$[ebp]
	mov	DWORD PTR $T220534[ebp], edx
	mov	eax, DWORD PTR $T220534[ebp]
	mov	ecx, DWORD PTR [eax+40]
	mov	DWORD PTR $T220543[ebp], ecx
	mov	edx, DWORD PTR $T220543[ebp]
	imul	edx, 63236				; 0000f704H
	add	edx, DWORD PTR ?m_aPlayers@CvPlayerAI@@1PAV1@A ; CvPlayerAI::m_aPlayers
	mov	DWORD PTR $T220547[ebp], edx
	push	3
	mov	ecx, DWORD PTR $T220547[ebp]
	call	?isOption@CvPlayer@@QBE_NW4PlayerOptionTypes@@@Z ; CvPlayer::isOption
	movzx	eax, al
	test	eax, eax
	je	SHORT $LN9@ContinueMi

; 812  : 							{
; 813  : 								iCameraTime = 1;

	mov	DWORD PTR _iCameraTime$217883[ebp], 1
	jmp	SHORT $LN8@ContinueMi
$LN9@ContinueMi:

; 814  : 							}
; 815  : 							// If our move revealed a Plot, camera jumps slower
; 816  : 							else if(GC.GetEngineUserInterface()->IsSelectedUnitRevealingNewPlots())

	mov	ecx, DWORD PTR $T220551[ebp]
	mov	DWORD PTR tv1100[ebp], ecx
	mov	edx, DWORD PTR ?gGlobals@@3VCvGlobals@@A+8568
	mov	DWORD PTR tv1100[ebp], edx
	mov	eax, DWORD PTR tv1100[ebp]
	mov	edx, DWORD PTR [eax]
	mov	ecx, DWORD PTR tv1100[ebp]
	mov	eax, DWORD PTR [edx+228]
	call	eax
	movzx	ecx, al
	test	ecx, ecx
	je	SHORT $LN7@ContinueMi

; 817  : 							{
; 818  : 								iCameraTime = 10;

	mov	DWORD PTR _iCameraTime$217883[ebp], 10	; 0000000aH

; 819  : 							}
; 820  : 							// No plots revealed by this move, go quicker
; 821  : 							else

	jmp	SHORT $LN8@ContinueMi
$LN7@ContinueMi:

; 822  : 							{
; 823  : 								iCameraTime = 5;

	mov	DWORD PTR _iCameraTime$217883[ebp], 5
$LN8@ContinueMi:

; 824  : 							}
; 825  : 
; 826  : 							GC.GetEngineUserInterface()->changeCycleSelectionCounter(iCameraTime);

	mov	edx, DWORD PTR $T220555[ebp]
	mov	DWORD PTR tv1113[ebp], edx
	mov	eax, DWORD PTR ?gGlobals@@3VCvGlobals@@A+8568
	mov	DWORD PTR tv1113[ebp], eax
	mov	ecx, DWORD PTR _iCameraTime$217883[ebp]
	push	ecx
	mov	edx, DWORD PTR tv1113[ebp]
	mov	eax, DWORD PTR [edx]
	mov	ecx, DWORD PTR tv1113[ebp]
	mov	edx, DWORD PTR [eax+224]
	call	edx
$LN12@ContinueMi:

; 827  : 						}
; 828  : 					}
; 829  : 
; 830  : 					if(hUnit->m_unitMoveLocs.size() > 0)

	mov	eax, DWORD PTR _hUnit$[ebp]
	mov	DWORD PTR $T220559[ebp], eax
	mov	ecx, DWORD PTR $T220559[ebp]
	mov	edx, DWORD PTR [ecx+2400]
	mov	DWORD PTR $T220563[ebp], edx
	cmp	DWORD PTR $T220563[ebp], 0
	jbe	SHORT $LN5@ContinueMi

; 831  : 					{
; 832  : 						hUnit->PublishQueuedVisualizationMoves();

	mov	ecx, DWORD PTR _hUnit$[ebp]
	call	?PublishQueuedVisualizationMoves@CvUnit@@IAEXXZ ; CvUnit::PublishQueuedVisualizationMoves
$LN5@ContinueMi:

; 833  : 					}
; 834  : 
; 835  : 					DeleteMissionQueueNode(hUnit, HeadMissionQueueNode(hUnit->m_missionQueue));

	mov	eax, DWORD PTR _hUnit$[ebp]
	mov	DWORD PTR $T220570[ebp], eax
	mov	ecx, DWORD PTR $T220570[ebp]
	add	ecx, 2600				; 00000a28H
	push	ecx
	call	?HeadMissionQueueNode@CvUnitMission@@CAPAUMissionData@@AAV?$FFastSmallFixedList@UMissionData@@$0M@$00$0BCJ@$0A@@@@Z ; CvUnitMission::HeadMissionQueueNode
	add	esp, 4
	push	eax
	sub	esp, 8
	mov	edx, esp
	mov	DWORD PTR $T219665[ebp], esp
	mov	DWORD PTR $T220580[ebp], edx
	mov	eax, DWORD PTR $T220580[ebp]
	mov	ecx, DWORD PTR _hUnit$[ebp]
	mov	DWORD PTR [eax], ecx
	mov	edx, DWORD PTR $T220580[ebp]
	mov	al, BYTE PTR _hUnit$[ebp+4]
	mov	BYTE PTR [edx+4], al
	mov	ecx, DWORD PTR $T220580[ebp]
	cmp	DWORD PTR [ecx], 0
	je	SHORT $LN547@ContinueMi
	mov	edx, DWORD PTR $T220580[ebp]
	mov	ecx, DWORD PTR [edx]
	call	?getDestructionNotification@CvUnit@@QAEAAU?$DestructionNotification@V?$FObjectHandle@VCvUnit@@@@@@XZ ; CvUnit::getDestructionNotification
$LN547@ContinueMi:
	mov	eax, DWORD PTR $T220580[ebp]
	mov	DWORD PTR tv1226[ebp], eax
	call	?DeleteMissionQueueNode@CvUnitMission@@CAPAUMissionData@@V?$FObjectHandle@VCvUnit@@@@PAU2@@Z ; CvUnitMission::DeleteMissionQueueNode
	add	esp, 12					; 0000000cH
$LN13@ContinueMi:

; 836  : 				}
; 837  : 			}
; 838  : 			else

	jmp	$LN19@ContinueMi
$LN15@ContinueMi:

; 839  : 			{
; 840  : 				// if we can still act, process the mission again
; 841  : 				if(hUnit->canMove() && !hUnit->IsDoingPartialMove())

	mov	ecx, DWORD PTR _hUnit$[ebp]
	mov	DWORD PTR $T220584[ebp], ecx
	mov	ecx, DWORD PTR $T220584[ebp]
	call	?canMove@CvUnit@@QBE_NXZ		; CvUnit::canMove
	movzx	edx, al
	test	edx, edx
	je	SHORT $LN3@ContinueMi
	mov	eax, DWORD PTR _hUnit$[ebp]
	mov	DWORD PTR $T220588[ebp], eax
	mov	ecx, DWORD PTR $T220588[ebp]
	call	?IsDoingPartialMove@CvUnit@@QBE_NXZ	; CvUnit::IsDoingPartialMove
	movzx	ecx, al
	test	ecx, ecx
	jne	SHORT $LN3@ContinueMi

; 842  : 				{
; 843  : 					iSteps++;

	mov	edx, DWORD PTR _iSteps$[ebp]
	add	edx, 1
	mov	DWORD PTR _iSteps$[ebp], edx

; 844  : 					bContinueMissionRestart = true;	// keep looping

	mov	BYTE PTR _bContinueMissionRestart$[ebp], 1
	jmp	$LN19@ContinueMi
$LN3@ContinueMi:

; 845  : 				}
; 846  : 				else if(!hUnit->IsBusy() && hUnit->getOwner() == GC.getGame().getActivePlayer() && hUnit->IsSelected())

	mov	eax, DWORD PTR _hUnit$[ebp]
	mov	DWORD PTR $T220592[ebp], eax
	mov	ecx, DWORD PTR $T220592[ebp]
	call	?IsBusy@CvUnit@@QBE_NXZ			; CvUnit::IsBusy
	movzx	ecx, al
	test	ecx, ecx
	jne	$LN19@ContinueMi
	mov	edx, DWORD PTR _hUnit$[ebp]
	mov	DWORD PTR $T220596[ebp], edx
	mov	eax, DWORD PTR $T220596[ebp]
	mov	ecx, DWORD PTR [eax+40]
	mov	DWORD PTR $T220605[ebp], ecx
	mov	edx, DWORD PTR ?gGlobals@@3VCvGlobals@@A+48
	mov	DWORD PTR $T220609[ebp], edx
	mov	ecx, DWORD PTR $T220609[ebp]
	call	?getActivePlayer@CvGame@@QBE?AW4PlayerTypes@@XZ ; CvGame::getActivePlayer
	cmp	DWORD PTR $T220605[ebp], eax
	jne	SHORT $LN19@ContinueMi
	mov	eax, DWORD PTR _hUnit$[ebp]
	mov	DWORD PTR $T220613[ebp], eax
	mov	ecx, DWORD PTR $T220613[ebp]
	call	?IsSelected@CvUnit@@QBE_NXZ		; CvUnit::IsSelected
	movzx	ecx, al
	test	ecx, ecx
	je	SHORT $LN19@ContinueMi

; 847  : 				{
; 848  : 					GC.GetEngineUserInterface()->changeCycleSelectionCounter(1);

	mov	edx, DWORD PTR $T220617[ebp]
	mov	DWORD PTR tv1191[ebp], edx
	mov	eax, DWORD PTR ?gGlobals@@3VCvGlobals@@A+8568
	mov	DWORD PTR tv1191[ebp], eax
	push	1
	mov	ecx, DWORD PTR tv1191[ebp]
	mov	edx, DWORD PTR [ecx]
	mov	ecx, DWORD PTR tv1191[ebp]
	mov	eax, DWORD PTR [edx+224]
	call	eax
$LN19@ContinueMi:

; 849  : 				}
; 850  : 			}
; 851  : 		}
; 852  : 	}

	jmp	$LN109@ContinueMi
$ContinueMissionExit$217677:

; 853  : ContinueMissionExit: // goto destination to clean up the flag value
; 854  : 	hUnit->m_iFlags =hUnit-> m_iFlags & ~CvUnit::UNITFLAG_EVALUATING_MISSION;

	mov	ecx, DWORD PTR _hUnit$[ebp]
	mov	DWORD PTR $T220621[ebp], ecx
	mov	edx, DWORD PTR $T220621[ebp]
	mov	eax, DWORD PTR [edx+1364]
	and	eax, -2					; fffffffeH
	mov	DWORD PTR $T219666[ebp], eax
	mov	ecx, DWORD PTR _hUnit$[ebp]
	add	ecx, 1360				; 00000550H
	mov	DWORD PTR $T220797[ebp], ecx
	mov	edx, DWORD PTR $T220797[ebp]
	mov	eax, DWORD PTR $T219666[ebp]
	cmp	eax, DWORD PTR [edx+4]
	je	SHORT $LN576@ContinueMi
	mov	ecx, DWORD PTR $T220797[ebp]
	mov	edx, DWORD PTR [ecx+4]
	cmp	edx, DWORD PTR $T219666[ebp]
	je	SHORT $LN576@ContinueMi
	mov	eax, DWORD PTR $T220797[ebp]
	mov	ecx, DWORD PTR [eax+8]
	mov	DWORD PTR $T220779[ebp], ecx
	mov	edx, DWORD PTR $T220797[ebp]
	mov	DWORD PTR $T220792[ebp], edx
	lea	eax, DWORD PTR $T220792[ebp]
	push	eax
	lea	ecx, DWORD PTR $T220793[ebp]
	push	ecx
	mov	ecx, DWORD PTR $T220779[ebp]
	add	ecx, 20					; 00000014H
	call	?insert@?$_Tree@V?$_Tset_traits@PAVFAutoVariableBase@@U?$less@PAVFAutoVariableBase@@@std@@V?$allocator@PAVFAutoVariableBase@@@3@$0A@@std@@@std@@QAE?AU?$pair@Viterator@?$_Tree@V?$_Tset_traits@PAVFAutoVariableBase@@U?$less@PAVFAutoVariableBase@@@std@@V?$allocator@PAVFAutoVariableBase@@@3@$0A@@std@@@std@@_N@2@ABQAVFAutoVariableBase@@@Z ; std::_Tree<std::_Tset_traits<FAutoVariableBase *,std::less<FAutoVariableBase *>,std::allocator<FAutoVariableBase *>,0> >::insert
	mov	edx, DWORD PTR $T220797[ebp]
	mov	eax, DWORD PTR $T219666[ebp]
	mov	DWORD PTR [edx+4], eax
$LN576@ContinueMi:

; 855  : 	GC.getGame().SetCombatWarned(false);

	mov	ecx, DWORD PTR ?gGlobals@@3VCvGlobals@@A+48
	mov	DWORD PTR $T220801[ebp], ecx
	push	0
	mov	ecx, DWORD PTR $T220801[ebp]
	call	?SetCombatWarned@CvGame@@QAEX_N@Z	; CvGame::SetCombatWarned

; 856  : }

	mov	DWORD PTR __$EHRec$[ebp+8], -1
	cmp	DWORD PTR _hUnit$[ebp], 0
	je	SHORT $LN110@ContinueMi
	mov	ecx, DWORD PTR _hUnit$[ebp]
	call	?getDestructionNotification@CvUnit@@QAEAAU?$DestructionNotification@V?$FObjectHandle@VCvUnit@@@@@@XZ ; CvUnit::getDestructionNotification
$LN110@ContinueMi:
	mov	ecx, DWORD PTR __$EHRec$[ebp]
	mov	DWORD PTR fs:0, ecx
	pop	ecx
	pop	esi
	mov	ecx, DWORD PTR __$ArrayPad$[ebp]
	xor	ecx, ebp
	call	@__security_check_cookie@4
	mov	esp, ebp
	pop	ebp
	ret	0
_TEXT	ENDS
;	COMDAT text$x
text$x	SEGMENT
__unwindfunclet$?ContinueMission@CvUnitMission@@SAXV?$FObjectHandle@VCvUnit@@@@HH@Z$5:
	lea	ecx, DWORD PTR _hUnit$[ebp]
	jmp	??1?$FObjectHandle@VCvUnit@@@@QAE@XZ	; FObjectHandle<CvUnit>::~FObjectHandle<CvUnit>
__unwindfunclet$?ContinueMission@CvUnitMission@@SAXV?$FObjectHandle@VCvUnit@@@@HH@Z$7:
	lea	ecx, DWORD PTR _pTargetUnit$217751[ebp]
	jmp	??1?$FObjectHandle@VCvUnit@@@@QAE@XZ	; FObjectHandle<CvUnit>::~FObjectHandle<CvUnit>
__unwindfunclet$?ContinueMission@CvUnitMission@@SAXV?$FObjectHandle@VCvUnit@@@@HH@Z$8:
	lea	ecx, DWORD PTR _pTargetUnit$217784[ebp]
	jmp	??1?$FObjectHandle@VCvUnit@@@@QAE@XZ	; FObjectHandle<CvUnit>::~FObjectHandle<CvUnit>
__unwindfunclet$?ContinueMission@CvUnitMission@@SAXV?$FObjectHandle@VCvUnit@@@@HH@Z$11:
	lea	ecx, DWORD PTR _pDllPlot$217850[ebp]
	jmp	??1?$auto_ptr@VICvPlot1@@@std@@QAE@XZ	; std::auto_ptr<ICvPlot1>::~auto_ptr<ICvPlot1>
__unwindfunclet$?ContinueMission@CvUnitMission@@SAXV?$FObjectHandle@VCvUnit@@@@HH@Z$12:
	mov	eax, DWORD PTR $T219662[ebp]
	push	eax
	call	??3CvDllUnit@@SAXPAX@Z			; CvDllUnit::operator delete
	pop	ecx
	ret	0
__unwindfunclet$?ContinueMission@CvUnitMission@@SAXV?$FObjectHandle@VCvUnit@@@@HH@Z$13:
	lea	ecx, DWORD PTR _pDllUnit$217877[ebp]
	jmp	??1?$auto_ptr@VICvUnit1@@@std@@QAE@XZ	; std::auto_ptr<ICvUnit1>::~auto_ptr<ICvUnit1>
__ehhandler$?ContinueMission@CvUnitMission@@SAXV?$FObjectHandle@VCvUnit@@@@HH@Z:
	mov	edx, DWORD PTR [esp+8]
	lea	eax, DWORD PTR [edx+12]
	mov	ecx, DWORD PTR [edx-2220]
	xor	ecx, eax
	call	@__security_check_cookie@4
	mov	ecx, DWORD PTR [edx-28]
	xor	ecx, eax
	call	@__security_check_cookie@4
	mov	eax, OFFSET __ehfuncinfo$?ContinueMission@CvUnitMission@@SAXV?$FObjectHandle@VCvUnit@@@@HH@Z
	jmp	___CxxFrameHandler3
text$x	ENDS
?ContinueMission@CvUnitMission@@SAXV?$FObjectHandle@VCvUnit@@@@HH@Z ENDP ; CvUnitMission::ContinueMission
PUBLIC	??_C@_0BA@JEHNJEHH@CanStartMission?$AA@		; `string'
PUBLIC	?CanStartMission@CvUnitMission@@SA_NV?$FObjectHandle@VCvUnit@@@@HHHPAVCvPlot@@_N@Z ; CvUnitMission::CanStartMission
EXTRN	?canChangeAdmiralPort@CvUnit@@QBE_NPBVCvPlot@@@Z:PROC ; CvUnit::canChangeAdmiralPort
EXTRN	?canBlastTourism@CvUnit@@QBE_NPBVCvPlot@@_N@Z:PROC ; CvUnit::canBlastTourism
EXTRN	?canGivePolicies@CvUnit@@QBE_NPBVCvPlot@@_N@Z:PROC ; CvUnit::canGivePolicies
EXTRN	?canSellExoticGoods@CvUnit@@QBE_NPBVCvPlot@@_N@Z:PROC ; CvUnit::canSellExoticGoods
EXTRN	?canChangeTradeUnitHomeCity@CvUnit@@QBE_NPBVCvPlot@@@Z:PROC ; CvUnit::canChangeTradeUnitHomeCity
EXTRN	?canCreateGreatWork@CvUnit@@QBE_NPBVCvPlot@@_N@Z:PROC ; CvUnit::canCreateGreatWork
EXTRN	?canPlunderTradeRoute@CvUnit@@QBE_NPBVCvPlot@@_N@Z:PROC ; CvUnit::canPlunderTradeRoute
EXTRN	?canMakeTradeRoute@CvUnit@@QBE_NPBVCvPlot@@@Z:PROC ; CvUnit::canMakeTradeRoute
EXTRN	?canLead@CvUnit@@QBEHPBVCvPlot@@H@Z:PROC	; CvUnit::canLead
EXTRN	?canBuild@CvUnit@@QBE_NPBVCvPlot@@W4BuildTypes@@_N2@Z:PROC ; CvUnit::canBuild
EXTRN	?canGoldenAge@CvUnit@@QBE_NPBVCvPlot@@_N@Z:PROC	; CvUnit::canGoldenAge
EXTRN	?CanRemoveHeresy@CvUnit@@QBE_NPBVCvPlot@@@Z:PROC ; CvUnit::CanRemoveHeresy
EXTRN	?CanEnhanceReligion@CvUnit@@QBE_NPBVCvPlot@@@Z:PROC ; CvUnit::CanEnhanceReligion
EXTRN	?CanSpreadReligion@CvUnit@@QBE_NPBVCvPlot@@@Z:PROC ; CvUnit::CanSpreadReligion
EXTRN	?CanFoundReligion@CvUnit@@QBE_NPBVCvPlot@@@Z:PROC ; CvUnit::CanFoundReligion
EXTRN	?CanCultureBomb@CvUnit@@QBE_NPBVCvPlot@@_N@Z:PROC ; CvUnit::CanCultureBomb
EXTRN	?CanBuildSpaceship@CvUnit@@QBE_NPBVCvPlot@@_N@Z:PROC ; CvUnit::CanBuildSpaceship
EXTRN	?canBuyCityState@CvUnit@@QBE_NPBVCvPlot@@_N@Z:PROC ; CvUnit::canBuyCityState
EXTRN	?canRepairFleet@CvUnit@@QBE_NPBVCvPlot@@_N@Z:PROC ; CvUnit::canRepairFleet
EXTRN	?canTrade@CvUnit@@QBE_NPBVCvPlot@@_N@Z:PROC	; CvUnit::canTrade
EXTRN	?canHurry@CvUnit@@QBE_NPBVCvPlot@@_N@Z:PROC	; CvUnit::canHurry
EXTRN	?canDiscover@CvUnit@@QBE_NPBVCvPlot@@_N@Z:PROC	; CvUnit::canDiscover
EXTRN	?canConstruct@CvUnit@@QBE_NPBVCvPlot@@W4BuildingTypes@@@Z:PROC ; CvUnit::canConstruct
EXTRN	?canJoin@CvUnit@@QBE_NPBVCvPlot@@W4SpecialistTypes@@@Z:PROC ; CvUnit::canJoin
EXTRN	?canFound@CvUnit@@QBE_NPBVCvPlot@@_N@Z:PROC	; CvUnit::canFound
EXTRN	?canPillage@CvUnit@@QBE_NPBVCvPlot@@@Z:PROC	; CvUnit::canPillage
EXTRN	?canRangeStrikeAt@CvUnit@@QBE_NHH_N0@Z:PROC	; CvUnit::canRangeStrikeAt
EXTRN	?canRebaseAt@CvUnit@@QBE_NPBVCvPlot@@HH@Z:PROC	; CvUnit::canRebaseAt
EXTRN	?canAirSweepAt@CvUnit@@QBE_NHH@Z:PROC		; CvUnit::canAirSweepAt
EXTRN	?canParadropAt@CvUnit@@QBE_NPBVCvPlot@@HH@Z:PROC ; CvUnit::canParadropAt
EXTRN	?canNukeAt@CvUnit@@QBE_NPBVCvPlot@@HH@Z:PROC	; CvUnit::canNukeAt
EXTRN	?canAirliftAt@CvUnit@@QBE_NPBVCvPlot@@HH@Z:PROC	; CvUnit::canAirliftAt
EXTRN	?canSentry@CvUnit@@QBE_NPBVCvPlot@@@Z:PROC	; CvUnit::canSentry
EXTRN	?getMISSION_ALERT@CvTypes@@YA?BW4MissionTypes@@XZ:PROC ; CvTypes::getMISSION_ALERT
EXTRN	?canHeal@CvUnit@@QBE_NPBVCvPlot@@_N@Z:PROC	; CvUnit::canHeal
EXTRN	?getMISSION_HEAL@CvTypes@@YA?BW4MissionTypes@@XZ:PROC ; CvTypes::getMISSION_HEAL
EXTRN	?canAirPatrol@CvUnit@@QBE_NPBVCvPlot@@@Z:PROC	; CvUnit::canAirPatrol
EXTRN	?getMISSION_AIRPATROL@CvTypes@@YA?BW4MissionTypes@@XZ:PROC ; CvTypes::getMISSION_AIRPATROL
EXTRN	?canDisembark@CvUnit@@QBE_NPBVCvPlot@@@Z:PROC	; CvUnit::canDisembark
EXTRN	?canEmbark@CvUnit@@QBE_NPBVCvPlot@@@Z:PROC	; CvUnit::canEmbark
EXTRN	?canSetUpForRangedAttack@CvUnit@@QBE_NPBVCvPlot@@@Z:PROC ; CvUnit::canSetUpForRangedAttack
EXTRN	?canFortify@CvUnit@@QBE_NPBVCvPlot@@@Z:PROC	; CvUnit::canFortify
EXTRN	?getMISSION_FORTIFY@CvTypes@@YA?BW4MissionTypes@@XZ:PROC ; CvTypes::getMISSION_FORTIFY
EXTRN	?canSleep@CvUnit@@QBE_NPBVCvPlot@@@Z:PROC	; CvUnit::canSleep
EXTRN	?getMISSION_SLEEP@CvTypes@@YA?BW4MissionTypes@@XZ:PROC ; CvTypes::getMISSION_SLEEP
EXTRN	?canHold@CvUnit@@QBE_NPBVCvPlot@@@Z:PROC	; CvUnit::canHold
EXTRN	?getMISSION_SKIP@CvTypes@@YA?BW4MissionTypes@@XZ:PROC ; CvTypes::getMISSION_SKIP
EXTRN	?atPlot@CvUnit@@QBE_NABVCvPlot@@@Z:PROC		; CvUnit::atPlot
EXTRN	?at@CvPlot@@QBE_NHH@Z:PROC			; CvPlot::at
EXTRN	?IsImmobile@CvUnit@@QBE_NXZ:PROC		; CvUnit::IsImmobile
EXTRN	??1CvLuaArgsHandle@@QAE@XZ:PROC			; CvLuaArgsHandle::~CvLuaArgsHandle
EXTRN	?CallTestAll@LuaSupport@@YA_NPAVICvEngineScriptSystem1@@PBDPAVICvEngineScriptSystemArgs1@@AA_N@Z:PROC ; LuaSupport::CallTestAll
EXTRN	??0CvLuaArgsHandle@@QAE@XZ:PROC			; CvLuaArgsHandle::CvLuaArgsHandle
;	COMDAT ??_C@_0BA@JEHNJEHH@CanStartMission?$AA@
; File d:\sources\lekmod_git\checkout\lekmod_dll\fireplace\include\fireworks\fobjecthandle.h
CONST	SEGMENT
??_C@_0BA@JEHNJEHH@CanStartMission?$AA@ DB 'CanStartMission', 00H ; `string'
CONST	ENDS
;	COMDAT xdata$x
xdata$x	SEGMENT
__unwindtable$?CanStartMission@CvUnitMission@@SA_NV?$FObjectHandle@VCvUnit@@@@HHHPAVCvPlot@@_N@Z DD 0ffffffffH
	DD	FLAT:__unwindfunclet$?CanStartMission@CvUnitMission@@SA_NV?$FObjectHandle@VCvUnit@@@@HHHPAVCvPlot@@_N@Z$0
	DD	00H
	DD	FLAT:__unwindfunclet$?CanStartMission@CvUnitMission@@SA_NV?$FObjectHandle@VCvUnit@@@@HHHPAVCvPlot@@_N@Z$1
	DD	01H
	DD	FLAT:__unwindfunclet$?CanStartMission@CvUnitMission@@SA_NV?$FObjectHandle@VCvUnit@@@@HHHPAVCvPlot@@_N@Z$2
__ehfuncinfo$?CanStartMission@CvUnitMission@@SA_NV?$FObjectHandle@VCvUnit@@@@HHHPAVCvPlot@@_N@Z DD 019930522H
	DD	03H
	DD	FLAT:__unwindtable$?CanStartMission@CvUnitMission@@SA_NV?$FObjectHandle@VCvUnit@@@@HHHPAVCvPlot@@_N@Z
	DD	2 DUP(00H)
	DD	2 DUP(00H)
	DD	00H
	DD	01H
; Function compile flags: /Odtp
; File d:\sources\lekmod_git\checkout\lekmod_dll\cvgamecoredll_expansion2\cvunitmission.cpp
xdata$x	ENDS
;	COMDAT ?CanStartMission@CvUnitMission@@SA_NV?$FObjectHandle@VCvUnit@@@@HHHPAVCvPlot@@_N@Z
_TEXT	SEGMENT
tv146 = -324						; size = 4
tv135 = -320						; size = 4
tv92 = -316						; size = 4
tv81 = -312						; size = 4
$T222053 = -308						; size = 4
$T222031 = -304						; size = 4
$T221991 = -300						; size = 4
$T221951 = -296						; size = 4
$T221929 = -292						; size = 4
$T221907 = -288						; size = 4
$T221885 = -284						; size = 4
$T221863 = -280						; size = 4
$T221841 = -276						; size = 4
$T221819 = -272						; size = 4
$T221797 = -268						; size = 4
$T221757 = -264						; size = 4
$T221735 = -260						; size = 4
$T221713 = -256						; size = 4
$T221691 = -252						; size = 4
$T221669 = -248						; size = 4
$T221647 = -244						; size = 4
$T221625 = -240						; size = 4
$T221603 = -236						; size = 4
$T221581 = -232						; size = 4
$T221559 = -228						; size = 4
$T221537 = -224						; size = 4
$T221515 = -220						; size = 4
$T221493 = -216						; size = 4
$T221471 = -212						; size = 4
$T221449 = -208						; size = 4
$T221427 = -204						; size = 4
$T221405 = -200						; size = 4
$T221383 = -196						; size = 4
$T221361 = -192						; size = 4
$T221339 = -188						; size = 4
$T221317 = -184						; size = 4
$T221295 = -180						; size = 4
$T221273 = -176						; size = 4
$T221251 = -172						; size = 4
$T221229 = -168						; size = 4
$T221207 = -164						; size = 4
$T221185 = -160						; size = 4
$T221163 = -156						; size = 4
$T221141 = -152						; size = 4
$T221119 = -148						; size = 4
$T221079 = -144						; size = 4
$T221054 = -140						; size = 4
$T221050 = -136						; size = 4
$T221034 = -132						; size = 4
$T221012 = -128						; size = 4
$T220972 = -124						; size = 4
$T220968 = -120						; size = 4
$T220964 = -116						; size = 4
$T220942 = -112						; size = 4
$T220935 = -108						; size = 4
$T220926 = -104						; size = 4
$T220919 = -100						; size = 4
$T220910 = -96						; size = 4
$T220903 = -92						; size = 4
$T220881 = -88						; size = 4
$T220871 = -82						; size = 1
$T220870 = -81						; size = 1
$T220869 = -80						; size = 1
$T220868 = -79						; size = 1
$T220867 = -78						; size = 1
$T220866 = -77						; size = 1
$T220865 = -76						; size = 1
$T220864 = -75						; size = 1
$T220863 = -74						; size = 1
$T220862 = -73						; size = 1
$T220861 = -72						; size = 1
$T220860 = -71						; size = 1
$T220859 = -70						; size = 1
$T220858 = -69						; size = 1
$T220857 = -68						; size = 1
$T220856 = -67						; size = 1
$T220855 = -66						; size = 1
$T220854 = -65						; size = 1
$T220853 = -64						; size = 1
$T220852 = -63						; size = 1
$T220851 = -62						; size = 1
$T220850 = -61						; size = 1
$T220849 = -60						; size = 1
$T220848 = -59						; size = 1
$T220847 = -58						; size = 1
$T220846 = -57						; size = 1
$T220845 = -56						; size = 1
$T220844 = -55						; size = 1
$T220843 = -54						; size = 1
$T220842 = -53						; size = 1
$T220841 = -52						; size = 1
$T220840 = -51						; size = 1
$T220839 = -50						; size = 1
$T220838 = -49						; size = 1
$T220837 = -48						; size = 1
$T220836 = -47						; size = 1
$T220835 = -46						; size = 1
$T220834 = -45						; size = 1
$T220833 = -44						; size = 1
$T220832 = -43						; size = 1
$T220831 = -42						; size = 1
$T220830 = -41						; size = 1
$T220829 = -40						; size = 1
$T220828 = -39						; size = 1
$T220827 = -38						; size = 1
$T220826 = -37						; size = 1
$T220825 = -36						; size = 1
$T220824 = -35						; size = 1
$T220823 = -34						; size = 1
$T220822 = -33						; size = 1
$T220821 = -32						; size = 1
$T220820 = -31						; size = 1
$T220819 = -30						; size = 1
_bResult$217909 = -29					; size = 1
_args$217908 = -28					; size = 4
_pkScriptSystem$ = -24					; size = 4
_pTargetUnit$ = -20					; size = 8
__$EHRec$ = -12						; size = 12
_hUnit$ = 8						; size = 8
_iMission$ = 16						; size = 4
_iData1$ = 20						; size = 4
_iData2$ = 24						; size = 4
_pPlot$ = 28						; size = 4
_bTestVisible$ = 32					; size = 1
?CanStartMission@CvUnitMission@@SA_NV?$FObjectHandle@VCvUnit@@@@HHHPAVCvPlot@@_N@Z PROC ; CvUnitMission::CanStartMission, COMDAT

; 861  : {

	push	ebp
	mov	ebp, esp
	push	-1
	push	__ehhandler$?CanStartMission@CvUnitMission@@SA_NV?$FObjectHandle@VCvUnit@@@@HHHPAVCvPlot@@_N@Z
	mov	eax, DWORD PTR fs:0
	push	eax
	sub	esp, 312				; 00000138H
	mov	eax, DWORD PTR ___security_cookie
	xor	eax, ebp
	push	eax
	lea	eax, DWORD PTR __$EHRec$[ebp]
	mov	DWORD PTR fs:0, eax
	mov	DWORD PTR __$EHRec$[ebp+8], 0

; 862  : 	UnitHandle pTargetUnit;

	mov	DWORD PTR _pTargetUnit$[ebp], 0
	mov	BYTE PTR _pTargetUnit$[ebp+4], 0
	mov	BYTE PTR __$EHRec$[ebp+8], 1

; 863  : 
; 864  : 	if(hUnit->IsBusy())

	mov	eax, DWORD PTR _hUnit$[ebp]
	mov	DWORD PTR $T220881[ebp], eax
	mov	ecx, DWORD PTR $T220881[ebp]
	call	?IsBusy@CvUnit@@QBE_NXZ			; CvUnit::IsBusy
	movzx	ecx, al
	test	ecx, ecx
	je	SHORT $LN145@CanStartMi

; 865  : 	{
; 866  : 		return false;

	mov	BYTE PTR $T220819[ebp], 0
	mov	BYTE PTR __$EHRec$[ebp+8], 0
	cmp	DWORD PTR _pTargetUnit$[ebp], 0
	je	SHORT $LN156@CanStartMi
	mov	ecx, DWORD PTR _pTargetUnit$[ebp]
	call	?getDestructionNotification@CvUnit@@QAEAAU?$DestructionNotification@V?$FObjectHandle@VCvUnit@@@@@@XZ ; CvUnit::getDestructionNotification
$LN156@CanStartMi:
	mov	DWORD PTR __$EHRec$[ebp+8], -1
	cmp	DWORD PTR _hUnit$[ebp], 0
	je	SHORT $LN161@CanStartMi
	mov	ecx, DWORD PTR _hUnit$[ebp]
	call	?getDestructionNotification@CvUnit@@QAEAAU?$DestructionNotification@V?$FObjectHandle@VCvUnit@@@@@@XZ ; CvUnit::getDestructionNotification
$LN161@CanStartMi:
	mov	al, BYTE PTR $T220819[ebp]
	jmp	$LN146@CanStartMi
$LN145@CanStartMi:

; 867  : 	}
; 868  : 
; 869  : #ifdef AUI_UNIT_MISSION_FIX_NO_MISSION_ON_DEATH
; 870  : 	if (hUnit->isDelayedDeath())
; 871  : 	{
; 872  : 		return false;
; 873  : 	}
; 874  : #endif
; 875  : 
; 876  : 	// Prevented by scripting?
; 877  : 	ICvEngineScriptSystem1* pkScriptSystem = gDLL->GetScriptSystem();

	mov	edx, DWORD PTR $T220903[ebp]
	mov	DWORD PTR tv81[ebp], edx
	mov	eax, DWORD PTR ?gGlobals@@3VCvGlobals@@A+8564
	mov	DWORD PTR tv81[ebp], eax
	mov	ecx, DWORD PTR tv81[ebp]
	mov	edx, DWORD PTR [ecx]
	mov	ecx, DWORD PTR tv81[ebp]
	mov	eax, DWORD PTR [edx+12]
	call	eax
	mov	DWORD PTR _pkScriptSystem$[ebp], eax

; 878  : 	if(pkScriptSystem)

	cmp	DWORD PTR _pkScriptSystem$[ebp], 0
	je	$LN144@CanStartMi

; 879  : 	{
; 880  : 		CvLuaArgsHandle args;

	lea	ecx, DWORD PTR _args$217908[ebp]
	call	??0CvLuaArgsHandle@@QAE@XZ		; CvLuaArgsHandle::CvLuaArgsHandle
	mov	BYTE PTR __$EHRec$[ebp+8], 2

; 881  : 		args->Push(hUnit->getOwner());

	mov	ecx, DWORD PTR _args$217908[ebp]
	mov	DWORD PTR tv92[ebp], ecx
	mov	edx, DWORD PTR _hUnit$[ebp]
	mov	DWORD PTR $T220910[ebp], edx
	mov	eax, DWORD PTR $T220910[ebp]
	mov	ecx, DWORD PTR [eax+40]
	mov	DWORD PTR $T220919[ebp], ecx
	mov	edx, DWORD PTR $T220919[ebp]
	push	edx
	mov	eax, DWORD PTR tv92[ebp]
	mov	edx, DWORD PTR [eax]
	mov	ecx, DWORD PTR tv92[ebp]
	mov	eax, DWORD PTR [edx+8]
	call	eax

; 882  : 		args->Push(hUnit->GetID());

	mov	ecx, DWORD PTR _args$217908[ebp]
	mov	DWORD PTR tv135[ebp], ecx
	mov	edx, DWORD PTR _hUnit$[ebp]
	mov	DWORD PTR $T220926[ebp], edx
	mov	eax, DWORD PTR $T220926[ebp]
	mov	ecx, DWORD PTR [eax+100]
	mov	DWORD PTR $T220935[ebp], ecx
	mov	edx, DWORD PTR $T220935[ebp]
	push	edx
	mov	eax, DWORD PTR tv135[ebp]
	mov	edx, DWORD PTR [eax]
	mov	ecx, DWORD PTR tv135[ebp]
	mov	eax, DWORD PTR [edx+8]
	call	eax

; 883  : 		args->Push(iMission);

	mov	ecx, DWORD PTR _args$217908[ebp]
	mov	DWORD PTR tv146[ebp], ecx
	mov	edx, DWORD PTR _iMission$[ebp]
	push	edx
	mov	eax, DWORD PTR tv146[ebp]
	mov	edx, DWORD PTR [eax]
	mov	ecx, DWORD PTR tv146[ebp]
	mov	eax, DWORD PTR [edx+8]
	call	eax

; 884  : 
; 885  : 		// Attempt to execute the game events.
; 886  : 		// Will return false if there are no registered listeners.
; 887  : 		bool bResult = false;

	mov	BYTE PTR _bResult$217909[ebp], 0

; 888  : 		if(LuaSupport::CallTestAll(pkScriptSystem, "CanStartMission", args.get(), bResult))

	mov	ecx, DWORD PTR _args$217908[ebp]
	mov	DWORD PTR $T220942[ebp], ecx
	lea	edx, DWORD PTR _bResult$217909[ebp]
	push	edx
	mov	eax, DWORD PTR $T220942[ebp]
	push	eax
	push	OFFSET ??_C@_0BA@JEHNJEHH@CanStartMission?$AA@
	mov	ecx, DWORD PTR _pkScriptSystem$[ebp]
	push	ecx
	call	?CallTestAll@LuaSupport@@YA_NPAVICvEngineScriptSystem1@@PBDPAVICvEngineScriptSystemArgs1@@AA_N@Z ; LuaSupport::CallTestAll
	add	esp, 16					; 00000010H
	movzx	edx, al
	test	edx, edx
	je	SHORT $LN143@CanStartMi

; 889  : 		{
; 890  : 			// Check the result.
; 891  : 			if(bResult == false)

	movzx	eax, BYTE PTR _bResult$217909[ebp]
	test	eax, eax
	jne	SHORT $LN143@CanStartMi

; 892  : 			{
; 893  : 				return false;

	mov	BYTE PTR $T220820[ebp], 0
	mov	BYTE PTR __$EHRec$[ebp+8], 1
	lea	ecx, DWORD PTR _args$217908[ebp]
	call	??1CvLuaArgsHandle@@QAE@XZ		; CvLuaArgsHandle::~CvLuaArgsHandle
	mov	BYTE PTR __$EHRec$[ebp+8], 0
	cmp	DWORD PTR _pTargetUnit$[ebp], 0
	je	SHORT $LN188@CanStartMi
	mov	ecx, DWORD PTR _pTargetUnit$[ebp]
	call	?getDestructionNotification@CvUnit@@QAEAAU?$DestructionNotification@V?$FObjectHandle@VCvUnit@@@@@@XZ ; CvUnit::getDestructionNotification
$LN188@CanStartMi:
	mov	DWORD PTR __$EHRec$[ebp+8], -1
	cmp	DWORD PTR _hUnit$[ebp], 0
	je	SHORT $LN193@CanStartMi
	mov	ecx, DWORD PTR _hUnit$[ebp]
	call	?getDestructionNotification@CvUnit@@QAEAAU?$DestructionNotification@V?$FObjectHandle@VCvUnit@@@@@@XZ ; CvUnit::getDestructionNotification
$LN193@CanStartMi:
	mov	al, BYTE PTR $T220820[ebp]
	jmp	$LN146@CanStartMi
$LN143@CanStartMi:

; 894  : 			}
; 895  : 		}
; 896  : 	}

	mov	BYTE PTR __$EHRec$[ebp+8], 1
	lea	ecx, DWORD PTR _args$217908[ebp]
	call	??1CvLuaArgsHandle@@QAE@XZ		; CvLuaArgsHandle::~CvLuaArgsHandle
$LN144@CanStartMi:

; 897  : 
; 898  : 	if(pPlot == NULL)

	cmp	DWORD PTR _pPlot$[ebp], 0
	jne	SHORT $LN141@CanStartMi

; 899  : 	{
; 900  : 		pPlot = hUnit->plot();

	mov	ecx, DWORD PTR _hUnit$[ebp]
	mov	DWORD PTR $T220964[ebp], ecx
	mov	ecx, DWORD PTR $T220964[ebp]
	call	?plot@CvUnit@@QBEPAVCvPlot@@XZ		; CvUnit::plot
	mov	DWORD PTR _pPlot$[ebp], eax
$LN141@CanStartMi:

; 901  : 	}
; 902  : 
; 903  : 	if(iMission == CvTypes::getMISSION_MOVE_TO() ||
; 904  : 	        iMission == CvTypes::getMISSION_SWAP_UNITS())

	call	?getMISSION_MOVE_TO@CvTypes@@YA?BW4MissionTypes@@XZ ; CvTypes::getMISSION_MOVE_TO
	cmp	DWORD PTR _iMission$[ebp], eax
	je	SHORT $LN139@CanStartMi
	call	?getMISSION_SWAP_UNITS@CvTypes@@YA?BW4MissionTypes@@XZ ; CvTypes::getMISSION_SWAP_UNITS
	cmp	DWORD PTR _iMission$[ebp], eax
	jne	$LN140@CanStartMi
$LN139@CanStartMi:

; 905  : 	{
; 906  : 		if (hUnit->IsImmobile() && hUnit->getDomainType() != DOMAIN_AIR)	// If immobile, we can't move... unless we are an air unit.

	mov	edx, DWORD PTR _hUnit$[ebp]
	mov	DWORD PTR $T220968[ebp], edx
	mov	ecx, DWORD PTR $T220968[ebp]
	call	?IsImmobile@CvUnit@@QBE_NXZ		; CvUnit::IsImmobile
	movzx	eax, al
	test	eax, eax
	je	SHORT $LN138@CanStartMi
	mov	ecx, DWORD PTR _hUnit$[ebp]
	mov	DWORD PTR $T220972[ebp], ecx
	mov	ecx, DWORD PTR $T220972[ebp]
	call	?getDomainType@CvUnit@@QBE?AW4DomainTypes@@XZ ; CvUnit::getDomainType
	cmp	eax, 1
	je	SHORT $LN138@CanStartMi

; 907  : 		{
; 908  : 			return false;

	mov	BYTE PTR $T220821[ebp], 0
	mov	BYTE PTR __$EHRec$[ebp+8], 0
	cmp	DWORD PTR _pTargetUnit$[ebp], 0
	je	SHORT $LN204@CanStartMi
	mov	ecx, DWORD PTR _pTargetUnit$[ebp]
	call	?getDestructionNotification@CvUnit@@QAEAAU?$DestructionNotification@V?$FObjectHandle@VCvUnit@@@@@@XZ ; CvUnit::getDestructionNotification
$LN204@CanStartMi:
	mov	DWORD PTR __$EHRec$[ebp+8], -1
	cmp	DWORD PTR _hUnit$[ebp], 0
	je	SHORT $LN209@CanStartMi
	mov	ecx, DWORD PTR _hUnit$[ebp]
	call	?getDestructionNotification@CvUnit@@QAEAAU?$DestructionNotification@V?$FObjectHandle@VCvUnit@@@@@@XZ ; CvUnit::getDestructionNotification
$LN209@CanStartMi:
	mov	al, BYTE PTR $T220821[ebp]
	jmp	$LN146@CanStartMi
$LN138@CanStartMi:

; 909  : 		}
; 910  : 
; 911  : 		if(!(pPlot->at(iData1, iData2)))

	mov	edx, DWORD PTR _iData2$[ebp]
	push	edx
	mov	eax, DWORD PTR _iData1$[ebp]
	push	eax
	mov	ecx, DWORD PTR _pPlot$[ebp]
	call	?at@CvPlot@@QBE_NHH@Z			; CvPlot::at
	movzx	ecx, al
	test	ecx, ecx
	jne	SHORT $LN137@CanStartMi

; 912  : 		{
; 913  : 			return true;

	mov	BYTE PTR $T220822[ebp], 1
	mov	BYTE PTR __$EHRec$[ebp+8], 0
	cmp	DWORD PTR _pTargetUnit$[ebp], 0
	je	SHORT $LN214@CanStartMi
	mov	ecx, DWORD PTR _pTargetUnit$[ebp]
	call	?getDestructionNotification@CvUnit@@QAEAAU?$DestructionNotification@V?$FObjectHandle@VCvUnit@@@@@@XZ ; CvUnit::getDestructionNotification
$LN214@CanStartMi:
	mov	DWORD PTR __$EHRec$[ebp+8], -1
	cmp	DWORD PTR _hUnit$[ebp], 0
	je	SHORT $LN219@CanStartMi
	mov	ecx, DWORD PTR _hUnit$[ebp]
	call	?getDestructionNotification@CvUnit@@QAEAAU?$DestructionNotification@V?$FObjectHandle@VCvUnit@@@@@@XZ ; CvUnit::getDestructionNotification
$LN219@CanStartMi:
	mov	al, BYTE PTR $T220822[ebp]
	jmp	$LN146@CanStartMi
$LN137@CanStartMi:

; 914  : 		}
; 915  : 	}

	jmp	$LN136@CanStartMi
$LN140@CanStartMi:

; 916  : 	else if(iMission == CvTypes::getMISSION_ROUTE_TO())

	call	?getMISSION_ROUTE_TO@CvTypes@@YA?BW4MissionTypes@@XZ ; CvTypes::getMISSION_ROUTE_TO
	cmp	DWORD PTR _iMission$[ebp], eax
	jne	SHORT $LN135@CanStartMi

; 917  : 	{
; 918  : 		if(!(pPlot->at(iData1, iData2)) || (hUnit->GetBestBuildRoute(pPlot) != NO_ROUTE))

	mov	edx, DWORD PTR _iData2$[ebp]
	push	edx
	mov	eax, DWORD PTR _iData1$[ebp]
	push	eax
	mov	ecx, DWORD PTR _pPlot$[ebp]
	call	?at@CvPlot@@QBE_NHH@Z			; CvPlot::at
	movzx	ecx, al
	test	ecx, ecx
	je	SHORT $LN133@CanStartMi
	mov	edx, DWORD PTR _hUnit$[ebp]
	mov	DWORD PTR $T221012[ebp], edx
	push	0
	mov	eax, DWORD PTR _pPlot$[ebp]
	push	eax
	mov	ecx, DWORD PTR $T221012[ebp]
	call	?GetBestBuildRoute@CvUnit@@QBE?AW4RouteTypes@@PAVCvPlot@@PAW4BuildTypes@@@Z ; CvUnit::GetBestBuildRoute
	cmp	eax, -1
	je	SHORT $LN134@CanStartMi
$LN133@CanStartMi:

; 919  : 		{
; 920  : 			return true;

	mov	BYTE PTR $T220823[ebp], 1
	mov	BYTE PTR __$EHRec$[ebp+8], 0
	cmp	DWORD PTR _pTargetUnit$[ebp], 0
	je	SHORT $LN226@CanStartMi
	mov	ecx, DWORD PTR _pTargetUnit$[ebp]
	call	?getDestructionNotification@CvUnit@@QAEAAU?$DestructionNotification@V?$FObjectHandle@VCvUnit@@@@@@XZ ; CvUnit::getDestructionNotification
$LN226@CanStartMi:
	mov	DWORD PTR __$EHRec$[ebp+8], -1
	cmp	DWORD PTR _hUnit$[ebp], 0
	je	SHORT $LN231@CanStartMi
	mov	ecx, DWORD PTR _hUnit$[ebp]
	call	?getDestructionNotification@CvUnit@@QAEAAU?$DestructionNotification@V?$FObjectHandle@VCvUnit@@@@@@XZ ; CvUnit::getDestructionNotification
$LN231@CanStartMi:
	mov	al, BYTE PTR $T220823[ebp]
	jmp	$LN146@CanStartMi
$LN134@CanStartMi:

; 921  : 		}
; 922  : 	}

	jmp	$LN136@CanStartMi
$LN135@CanStartMi:

; 923  : 	else if(iMission == CvTypes::getMISSION_MOVE_TO_UNIT())

	call	?getMISSION_MOVE_TO_UNIT@CvTypes@@YA?BW4MissionTypes@@XZ ; CvTypes::getMISSION_MOVE_TO_UNIT
	cmp	DWORD PTR _iMission$[ebp], eax
	jne	$LN131@CanStartMi

; 924  : 	{
; 925  : 		CvAssertMsg(iData1 != NO_PLAYER, "iData1 should be a valid Player");
; 926  : 		CvAssertMsg(iData2 != NO_UNIT, "iData2 should be a valid Unit ID");
; 927  : 		if (iData1 != NO_PLAYER && iData2 != NO_UNIT)

	cmp	DWORD PTR _iData1$[ebp], -1
	je	$LN130@CanStartMi
	cmp	DWORD PTR _iData2$[ebp], -1
	je	$LN130@CanStartMi

; 928  : 		{
; 929  : 			pTargetUnit = GET_PLAYER((PlayerTypes)iData1).getUnit(iData2);

	mov	ecx, DWORD PTR _iData1$[ebp]
	imul	ecx, 63236				; 0000f704H
	add	ecx, DWORD PTR ?m_aPlayers@CvPlayerAI@@1PAV1@A ; CvPlayerAI::m_aPlayers
	mov	DWORD PTR $T221034[ebp], ecx
	mov	edx, DWORD PTR _iData2$[ebp]
	push	edx
	mov	ecx, DWORD PTR $T221034[ebp]
	call	?getUnit@CvPlayer@@QAEPAVCvUnit@@H@Z	; CvPlayer::getUnit
	mov	DWORD PTR $T221050[ebp], eax
	cmp	DWORD PTR _pTargetUnit$[ebp], 0
	je	SHORT $LN238@CanStartMi
	mov	ecx, DWORD PTR _pTargetUnit$[ebp]
	call	?getDestructionNotification@CvUnit@@QAEAAU?$DestructionNotification@V?$FObjectHandle@VCvUnit@@@@@@XZ ; CvUnit::getDestructionNotification
$LN238@CanStartMi:
	mov	eax, DWORD PTR $T221050[ebp]
	mov	DWORD PTR _pTargetUnit$[ebp], eax
	cmp	DWORD PTR _pTargetUnit$[ebp], 0
	je	SHORT $LN239@CanStartMi
	mov	ecx, DWORD PTR _pTargetUnit$[ebp]
	call	?getDestructionNotification@CvUnit@@QAEAAU?$DestructionNotification@V?$FObjectHandle@VCvUnit@@@@@@XZ ; CvUnit::getDestructionNotification
$LN239@CanStartMi:

; 930  : 
; 931  : 			if (pTargetUnit->IsImmobile())

	mov	ecx, DWORD PTR _pTargetUnit$[ebp]
	mov	DWORD PTR $T221054[ebp], ecx
	mov	ecx, DWORD PTR $T221054[ebp]
	call	?IsImmobile@CvUnit@@QBE_NXZ		; CvUnit::IsImmobile
	movzx	edx, al
	test	edx, edx
	je	SHORT $LN257@CanStartMi

; 932  : 			{
; 933  : 				return false;

	mov	BYTE PTR $T220824[ebp], 0
	mov	BYTE PTR __$EHRec$[ebp+8], 0
	cmp	DWORD PTR _pTargetUnit$[ebp], 0
	je	SHORT $LN248@CanStartMi
	mov	ecx, DWORD PTR _pTargetUnit$[ebp]
	call	?getDestructionNotification@CvUnit@@QAEAAU?$DestructionNotification@V?$FObjectHandle@VCvUnit@@@@@@XZ ; CvUnit::getDestructionNotification
$LN248@CanStartMi:
	mov	DWORD PTR __$EHRec$[ebp+8], -1
	cmp	DWORD PTR _hUnit$[ebp], 0
	je	SHORT $LN253@CanStartMi
	mov	ecx, DWORD PTR _hUnit$[ebp]
	call	?getDestructionNotification@CvUnit@@QAEAAU?$DestructionNotification@V?$FObjectHandle@VCvUnit@@@@@@XZ ; CvUnit::getDestructionNotification
$LN253@CanStartMi:
	mov	al, BYTE PTR $T220824[ebp]
	jmp	$LN146@CanStartMi

; 934  : 			}
; 935  : 
; 936  : 			if((pTargetUnit) && !(pTargetUnit->atPlot(*pPlot)))

$LN257@CanStartMi:
	xor	eax, eax
	cmp	DWORD PTR _pTargetUnit$[ebp], 0
	setne	al
	movzx	ecx, al
	test	ecx, ecx
	je	SHORT $LN128@CanStartMi
	mov	edx, DWORD PTR _pTargetUnit$[ebp]
	mov	DWORD PTR $T221079[ebp], edx
	mov	eax, DWORD PTR _pPlot$[ebp]
	push	eax
	mov	ecx, DWORD PTR $T221079[ebp]
	call	?atPlot@CvUnit@@QBE_NABVCvPlot@@@Z	; CvUnit::atPlot
	movzx	ecx, al
	test	ecx, ecx
	jne	SHORT $LN128@CanStartMi

; 937  : 			{
; 938  : 				return true;

	mov	BYTE PTR $T220825[ebp], 1
	mov	BYTE PTR __$EHRec$[ebp+8], 0
	cmp	DWORD PTR _pTargetUnit$[ebp], 0
	je	SHORT $LN262@CanStartMi
	mov	ecx, DWORD PTR _pTargetUnit$[ebp]
	call	?getDestructionNotification@CvUnit@@QAEAAU?$DestructionNotification@V?$FObjectHandle@VCvUnit@@@@@@XZ ; CvUnit::getDestructionNotification
$LN262@CanStartMi:
	mov	DWORD PTR __$EHRec$[ebp+8], -1
	cmp	DWORD PTR _hUnit$[ebp], 0
	je	SHORT $LN267@CanStartMi
	mov	ecx, DWORD PTR _hUnit$[ebp]
	call	?getDestructionNotification@CvUnit@@QAEAAU?$DestructionNotification@V?$FObjectHandle@VCvUnit@@@@@@XZ ; CvUnit::getDestructionNotification
$LN267@CanStartMi:
	mov	al, BYTE PTR $T220825[ebp]
	jmp	$LN146@CanStartMi
$LN128@CanStartMi:

; 939  : 			}
; 940  : 		}
; 941  : 		else

	jmp	SHORT $LN127@CanStartMi
$LN130@CanStartMi:

; 942  : 			return false;

	mov	BYTE PTR $T220826[ebp], 0
	mov	BYTE PTR __$EHRec$[ebp+8], 0
	cmp	DWORD PTR _pTargetUnit$[ebp], 0
	je	SHORT $LN272@CanStartMi
	mov	ecx, DWORD PTR _pTargetUnit$[ebp]
	call	?getDestructionNotification@CvUnit@@QAEAAU?$DestructionNotification@V?$FObjectHandle@VCvUnit@@@@@@XZ ; CvUnit::getDestructionNotification
$LN272@CanStartMi:
	mov	DWORD PTR __$EHRec$[ebp+8], -1
	cmp	DWORD PTR _hUnit$[ebp], 0
	je	SHORT $LN277@CanStartMi
	mov	ecx, DWORD PTR _hUnit$[ebp]
	call	?getDestructionNotification@CvUnit@@QAEAAU?$DestructionNotification@V?$FObjectHandle@VCvUnit@@@@@@XZ ; CvUnit::getDestructionNotification
$LN277@CanStartMi:
	mov	al, BYTE PTR $T220826[ebp]
	jmp	$LN146@CanStartMi
$LN127@CanStartMi:
	jmp	$LN136@CanStartMi
$LN131@CanStartMi:

; 943  : 	}
; 944  : 	else if(iMission == CvTypes::getMISSION_SKIP())

	call	?getMISSION_SKIP@CvTypes@@YA?BW4MissionTypes@@XZ ; CvTypes::getMISSION_SKIP
	cmp	DWORD PTR _iMission$[ebp], eax
	jne	SHORT $LN125@CanStartMi

; 945  : 	{
; 946  : 		if(hUnit->canHold(pPlot))

	mov	edx, DWORD PTR _hUnit$[ebp]
	mov	DWORD PTR $T221119[ebp], edx
	mov	eax, DWORD PTR _pPlot$[ebp]
	push	eax
	mov	ecx, DWORD PTR $T221119[ebp]
	call	?canHold@CvUnit@@QBE_NPBVCvPlot@@@Z	; CvUnit::canHold
	movzx	ecx, al
	test	ecx, ecx
	je	SHORT $LN124@CanStartMi

; 947  : 		{
; 948  : 			return true;

	mov	BYTE PTR $T220827[ebp], 1
	mov	BYTE PTR __$EHRec$[ebp+8], 0
	cmp	DWORD PTR _pTargetUnit$[ebp], 0
	je	SHORT $LN284@CanStartMi
	mov	ecx, DWORD PTR _pTargetUnit$[ebp]
	call	?getDestructionNotification@CvUnit@@QAEAAU?$DestructionNotification@V?$FObjectHandle@VCvUnit@@@@@@XZ ; CvUnit::getDestructionNotification
$LN284@CanStartMi:
	mov	DWORD PTR __$EHRec$[ebp+8], -1
	cmp	DWORD PTR _hUnit$[ebp], 0
	je	SHORT $LN289@CanStartMi
	mov	ecx, DWORD PTR _hUnit$[ebp]
	call	?getDestructionNotification@CvUnit@@QAEAAU?$DestructionNotification@V?$FObjectHandle@VCvUnit@@@@@@XZ ; CvUnit::getDestructionNotification
$LN289@CanStartMi:
	mov	al, BYTE PTR $T220827[ebp]
	jmp	$LN146@CanStartMi
$LN124@CanStartMi:

; 949  : 		}
; 950  : 	}

	jmp	$LN136@CanStartMi
$LN125@CanStartMi:

; 951  : 	else if(iMission == CvTypes::getMISSION_SLEEP())

	call	?getMISSION_SLEEP@CvTypes@@YA?BW4MissionTypes@@XZ ; CvTypes::getMISSION_SLEEP
	cmp	DWORD PTR _iMission$[ebp], eax
	jne	SHORT $LN122@CanStartMi

; 952  : 	{
; 953  : 		if(hUnit->canSleep(pPlot))

	mov	edx, DWORD PTR _hUnit$[ebp]
	mov	DWORD PTR $T221141[ebp], edx
	mov	eax, DWORD PTR _pPlot$[ebp]
	push	eax
	mov	ecx, DWORD PTR $T221141[ebp]
	call	?canSleep@CvUnit@@QBE_NPBVCvPlot@@@Z	; CvUnit::canSleep
	movzx	ecx, al
	test	ecx, ecx
	je	SHORT $LN121@CanStartMi

; 954  : 		{
; 955  : 			return true;

	mov	BYTE PTR $T220828[ebp], 1
	mov	BYTE PTR __$EHRec$[ebp+8], 0
	cmp	DWORD PTR _pTargetUnit$[ebp], 0
	je	SHORT $LN296@CanStartMi
	mov	ecx, DWORD PTR _pTargetUnit$[ebp]
	call	?getDestructionNotification@CvUnit@@QAEAAU?$DestructionNotification@V?$FObjectHandle@VCvUnit@@@@@@XZ ; CvUnit::getDestructionNotification
$LN296@CanStartMi:
	mov	DWORD PTR __$EHRec$[ebp+8], -1
	cmp	DWORD PTR _hUnit$[ebp], 0
	je	SHORT $LN301@CanStartMi
	mov	ecx, DWORD PTR _hUnit$[ebp]
	call	?getDestructionNotification@CvUnit@@QAEAAU?$DestructionNotification@V?$FObjectHandle@VCvUnit@@@@@@XZ ; CvUnit::getDestructionNotification
$LN301@CanStartMi:
	mov	al, BYTE PTR $T220828[ebp]
	jmp	$LN146@CanStartMi
$LN121@CanStartMi:

; 956  : 		}
; 957  : 	}

	jmp	$LN136@CanStartMi
$LN122@CanStartMi:

; 958  : 	else if(iMission == CvTypes::getMISSION_FORTIFY())

	call	?getMISSION_FORTIFY@CvTypes@@YA?BW4MissionTypes@@XZ ; CvTypes::getMISSION_FORTIFY
	cmp	DWORD PTR _iMission$[ebp], eax
	jne	SHORT $LN119@CanStartMi

; 959  : 	{
; 960  : 		if(hUnit->canFortify(pPlot))

	mov	edx, DWORD PTR _hUnit$[ebp]
	mov	DWORD PTR $T221163[ebp], edx
	mov	eax, DWORD PTR _pPlot$[ebp]
	push	eax
	mov	ecx, DWORD PTR $T221163[ebp]
	call	?canFortify@CvUnit@@QBE_NPBVCvPlot@@@Z	; CvUnit::canFortify
	movzx	ecx, al
	test	ecx, ecx
	je	SHORT $LN118@CanStartMi

; 961  : 		{
; 962  : 			return true;

	mov	BYTE PTR $T220829[ebp], 1
	mov	BYTE PTR __$EHRec$[ebp+8], 0
	cmp	DWORD PTR _pTargetUnit$[ebp], 0
	je	SHORT $LN308@CanStartMi
	mov	ecx, DWORD PTR _pTargetUnit$[ebp]
	call	?getDestructionNotification@CvUnit@@QAEAAU?$DestructionNotification@V?$FObjectHandle@VCvUnit@@@@@@XZ ; CvUnit::getDestructionNotification
$LN308@CanStartMi:
	mov	DWORD PTR __$EHRec$[ebp+8], -1
	cmp	DWORD PTR _hUnit$[ebp], 0
	je	SHORT $LN313@CanStartMi
	mov	ecx, DWORD PTR _hUnit$[ebp]
	call	?getDestructionNotification@CvUnit@@QAEAAU?$DestructionNotification@V?$FObjectHandle@VCvUnit@@@@@@XZ ; CvUnit::getDestructionNotification
$LN313@CanStartMi:
	mov	al, BYTE PTR $T220829[ebp]
	jmp	$LN146@CanStartMi
$LN118@CanStartMi:

; 963  : 		}
; 964  : 	}

	jmp	$LN136@CanStartMi
$LN119@CanStartMi:

; 965  : 	else if(iMission == CvTypes::getMISSION_SET_UP_FOR_RANGED_ATTACK())

	call	?getMISSION_SET_UP_FOR_RANGED_ATTACK@CvTypes@@YA?BW4MissionTypes@@XZ ; CvTypes::getMISSION_SET_UP_FOR_RANGED_ATTACK
	cmp	DWORD PTR _iMission$[ebp], eax
	jne	SHORT $LN116@CanStartMi

; 966  : 	{
; 967  : 		if(hUnit->canSetUpForRangedAttack(pPlot))

	mov	edx, DWORD PTR _hUnit$[ebp]
	mov	DWORD PTR $T221185[ebp], edx
	mov	eax, DWORD PTR _pPlot$[ebp]
	push	eax
	mov	ecx, DWORD PTR $T221185[ebp]
	call	?canSetUpForRangedAttack@CvUnit@@QBE_NPBVCvPlot@@@Z ; CvUnit::canSetUpForRangedAttack
	movzx	ecx, al
	test	ecx, ecx
	je	SHORT $LN115@CanStartMi

; 968  : 		{
; 969  : 			return true;

	mov	BYTE PTR $T220830[ebp], 1
	mov	BYTE PTR __$EHRec$[ebp+8], 0
	cmp	DWORD PTR _pTargetUnit$[ebp], 0
	je	SHORT $LN320@CanStartMi
	mov	ecx, DWORD PTR _pTargetUnit$[ebp]
	call	?getDestructionNotification@CvUnit@@QAEAAU?$DestructionNotification@V?$FObjectHandle@VCvUnit@@@@@@XZ ; CvUnit::getDestructionNotification
$LN320@CanStartMi:
	mov	DWORD PTR __$EHRec$[ebp+8], -1
	cmp	DWORD PTR _hUnit$[ebp], 0
	je	SHORT $LN325@CanStartMi
	mov	ecx, DWORD PTR _hUnit$[ebp]
	call	?getDestructionNotification@CvUnit@@QAEAAU?$DestructionNotification@V?$FObjectHandle@VCvUnit@@@@@@XZ ; CvUnit::getDestructionNotification
$LN325@CanStartMi:
	mov	al, BYTE PTR $T220830[ebp]
	jmp	$LN146@CanStartMi
$LN115@CanStartMi:

; 970  : 		}
; 971  : 	}

	jmp	$LN136@CanStartMi
$LN116@CanStartMi:

; 972  : 	else if(iMission == CvTypes::getMISSION_EMBARK())

	call	?getMISSION_EMBARK@CvTypes@@YA?BW4MissionTypes@@XZ ; CvTypes::getMISSION_EMBARK
	cmp	DWORD PTR _iMission$[ebp], eax
	jne	SHORT $LN113@CanStartMi

; 973  : 	{
; 974  : 		if(hUnit->canEmbark(pPlot))

	mov	edx, DWORD PTR _hUnit$[ebp]
	mov	DWORD PTR $T221207[ebp], edx
	mov	eax, DWORD PTR _pPlot$[ebp]
	push	eax
	mov	ecx, DWORD PTR $T221207[ebp]
	call	?canEmbark@CvUnit@@QBE_NPBVCvPlot@@@Z	; CvUnit::canEmbark
	movzx	ecx, al
	test	ecx, ecx
	je	SHORT $LN112@CanStartMi

; 975  : 		{
; 976  : 			return true;

	mov	BYTE PTR $T220831[ebp], 1
	mov	BYTE PTR __$EHRec$[ebp+8], 0
	cmp	DWORD PTR _pTargetUnit$[ebp], 0
	je	SHORT $LN332@CanStartMi
	mov	ecx, DWORD PTR _pTargetUnit$[ebp]
	call	?getDestructionNotification@CvUnit@@QAEAAU?$DestructionNotification@V?$FObjectHandle@VCvUnit@@@@@@XZ ; CvUnit::getDestructionNotification
$LN332@CanStartMi:
	mov	DWORD PTR __$EHRec$[ebp+8], -1
	cmp	DWORD PTR _hUnit$[ebp], 0
	je	SHORT $LN337@CanStartMi
	mov	ecx, DWORD PTR _hUnit$[ebp]
	call	?getDestructionNotification@CvUnit@@QAEAAU?$DestructionNotification@V?$FObjectHandle@VCvUnit@@@@@@XZ ; CvUnit::getDestructionNotification
$LN337@CanStartMi:
	mov	al, BYTE PTR $T220831[ebp]
	jmp	$LN146@CanStartMi
$LN112@CanStartMi:

; 977  : 		}
; 978  : 	}

	jmp	$LN136@CanStartMi
$LN113@CanStartMi:

; 979  : 	else if(iMission == CvTypes::getMISSION_DISEMBARK())

	call	?getMISSION_DISEMBARK@CvTypes@@YA?BW4MissionTypes@@XZ ; CvTypes::getMISSION_DISEMBARK
	cmp	DWORD PTR _iMission$[ebp], eax
	jne	SHORT $LN110@CanStartMi

; 980  : 	{
; 981  : 		if(hUnit->canDisembark(pPlot))

	mov	edx, DWORD PTR _hUnit$[ebp]
	mov	DWORD PTR $T221229[ebp], edx
	mov	eax, DWORD PTR _pPlot$[ebp]
	push	eax
	mov	ecx, DWORD PTR $T221229[ebp]
	call	?canDisembark@CvUnit@@QBE_NPBVCvPlot@@@Z ; CvUnit::canDisembark
	movzx	ecx, al
	test	ecx, ecx
	je	SHORT $LN109@CanStartMi

; 982  : 		{
; 983  : 			return true;

	mov	BYTE PTR $T220832[ebp], 1
	mov	BYTE PTR __$EHRec$[ebp+8], 0
	cmp	DWORD PTR _pTargetUnit$[ebp], 0
	je	SHORT $LN344@CanStartMi
	mov	ecx, DWORD PTR _pTargetUnit$[ebp]
	call	?getDestructionNotification@CvUnit@@QAEAAU?$DestructionNotification@V?$FObjectHandle@VCvUnit@@@@@@XZ ; CvUnit::getDestructionNotification
$LN344@CanStartMi:
	mov	DWORD PTR __$EHRec$[ebp+8], -1
	cmp	DWORD PTR _hUnit$[ebp], 0
	je	SHORT $LN349@CanStartMi
	mov	ecx, DWORD PTR _hUnit$[ebp]
	call	?getDestructionNotification@CvUnit@@QAEAAU?$DestructionNotification@V?$FObjectHandle@VCvUnit@@@@@@XZ ; CvUnit::getDestructionNotification
$LN349@CanStartMi:
	mov	al, BYTE PTR $T220832[ebp]
	jmp	$LN146@CanStartMi
$LN109@CanStartMi:

; 984  : 		}
; 985  : 	}

	jmp	$LN136@CanStartMi
$LN110@CanStartMi:

; 986  : 	else if(iMission == CvTypes::getMISSION_AIRPATROL())

	call	?getMISSION_AIRPATROL@CvTypes@@YA?BW4MissionTypes@@XZ ; CvTypes::getMISSION_AIRPATROL
	cmp	DWORD PTR _iMission$[ebp], eax
	jne	SHORT $LN107@CanStartMi

; 987  : 	{
; 988  : 		if(hUnit->canAirPatrol(pPlot))

	mov	edx, DWORD PTR _hUnit$[ebp]
	mov	DWORD PTR $T221251[ebp], edx
	mov	eax, DWORD PTR _pPlot$[ebp]
	push	eax
	mov	ecx, DWORD PTR $T221251[ebp]
	call	?canAirPatrol@CvUnit@@QBE_NPBVCvPlot@@@Z ; CvUnit::canAirPatrol
	movzx	ecx, al
	test	ecx, ecx
	je	SHORT $LN106@CanStartMi

; 989  : 		{
; 990  : 			return true;

	mov	BYTE PTR $T220833[ebp], 1
	mov	BYTE PTR __$EHRec$[ebp+8], 0
	cmp	DWORD PTR _pTargetUnit$[ebp], 0
	je	SHORT $LN356@CanStartMi
	mov	ecx, DWORD PTR _pTargetUnit$[ebp]
	call	?getDestructionNotification@CvUnit@@QAEAAU?$DestructionNotification@V?$FObjectHandle@VCvUnit@@@@@@XZ ; CvUnit::getDestructionNotification
$LN356@CanStartMi:
	mov	DWORD PTR __$EHRec$[ebp+8], -1
	cmp	DWORD PTR _hUnit$[ebp], 0
	je	SHORT $LN361@CanStartMi
	mov	ecx, DWORD PTR _hUnit$[ebp]
	call	?getDestructionNotification@CvUnit@@QAEAAU?$DestructionNotification@V?$FObjectHandle@VCvUnit@@@@@@XZ ; CvUnit::getDestructionNotification
$LN361@CanStartMi:
	mov	al, BYTE PTR $T220833[ebp]
	jmp	$LN146@CanStartMi
$LN106@CanStartMi:

; 991  : 		}
; 992  : 	}

	jmp	$LN136@CanStartMi
$LN107@CanStartMi:

; 993  : 	else if(iMission == CvTypes::getMISSION_HEAL())

	call	?getMISSION_HEAL@CvTypes@@YA?BW4MissionTypes@@XZ ; CvTypes::getMISSION_HEAL
	cmp	DWORD PTR _iMission$[ebp], eax
	jne	SHORT $LN104@CanStartMi

; 994  : 	{
; 995  : 		if(hUnit->canHeal(pPlot, bTestVisible))

	mov	edx, DWORD PTR _hUnit$[ebp]
	mov	DWORD PTR $T221273[ebp], edx
	movzx	eax, BYTE PTR _bTestVisible$[ebp]
	push	eax
	mov	ecx, DWORD PTR _pPlot$[ebp]
	push	ecx
	mov	ecx, DWORD PTR $T221273[ebp]
	call	?canHeal@CvUnit@@QBE_NPBVCvPlot@@_N@Z	; CvUnit::canHeal
	movzx	edx, al
	test	edx, edx
	je	SHORT $LN103@CanStartMi

; 996  : 		{
; 997  : 			return true;

	mov	BYTE PTR $T220834[ebp], 1
	mov	BYTE PTR __$EHRec$[ebp+8], 0
	cmp	DWORD PTR _pTargetUnit$[ebp], 0
	je	SHORT $LN368@CanStartMi
	mov	ecx, DWORD PTR _pTargetUnit$[ebp]
	call	?getDestructionNotification@CvUnit@@QAEAAU?$DestructionNotification@V?$FObjectHandle@VCvUnit@@@@@@XZ ; CvUnit::getDestructionNotification
$LN368@CanStartMi:
	mov	DWORD PTR __$EHRec$[ebp+8], -1
	cmp	DWORD PTR _hUnit$[ebp], 0
	je	SHORT $LN373@CanStartMi
	mov	ecx, DWORD PTR _hUnit$[ebp]
	call	?getDestructionNotification@CvUnit@@QAEAAU?$DestructionNotification@V?$FObjectHandle@VCvUnit@@@@@@XZ ; CvUnit::getDestructionNotification
$LN373@CanStartMi:
	mov	al, BYTE PTR $T220834[ebp]
	jmp	$LN146@CanStartMi
$LN103@CanStartMi:

; 998  : 		}
; 999  : 	}

	jmp	$LN136@CanStartMi
$LN104@CanStartMi:

; 1000 : 	else if(iMission == CvTypes::getMISSION_ALERT())

	call	?getMISSION_ALERT@CvTypes@@YA?BW4MissionTypes@@XZ ; CvTypes::getMISSION_ALERT
	cmp	DWORD PTR _iMission$[ebp], eax
	jne	SHORT $LN101@CanStartMi

; 1001 : 	{
; 1002 : 		if(hUnit->canSentry(pPlot))

	mov	eax, DWORD PTR _hUnit$[ebp]
	mov	DWORD PTR $T221295[ebp], eax
	mov	ecx, DWORD PTR _pPlot$[ebp]
	push	ecx
	mov	ecx, DWORD PTR $T221295[ebp]
	call	?canSentry@CvUnit@@QBE_NPBVCvPlot@@@Z	; CvUnit::canSentry
	movzx	edx, al
	test	edx, edx
	je	SHORT $LN100@CanStartMi

; 1003 : 		{
; 1004 : 			return true;

	mov	BYTE PTR $T220835[ebp], 1
	mov	BYTE PTR __$EHRec$[ebp+8], 0
	cmp	DWORD PTR _pTargetUnit$[ebp], 0
	je	SHORT $LN380@CanStartMi
	mov	ecx, DWORD PTR _pTargetUnit$[ebp]
	call	?getDestructionNotification@CvUnit@@QAEAAU?$DestructionNotification@V?$FObjectHandle@VCvUnit@@@@@@XZ ; CvUnit::getDestructionNotification
$LN380@CanStartMi:
	mov	DWORD PTR __$EHRec$[ebp+8], -1
	cmp	DWORD PTR _hUnit$[ebp], 0
	je	SHORT $LN385@CanStartMi
	mov	ecx, DWORD PTR _hUnit$[ebp]
	call	?getDestructionNotification@CvUnit@@QAEAAU?$DestructionNotification@V?$FObjectHandle@VCvUnit@@@@@@XZ ; CvUnit::getDestructionNotification
$LN385@CanStartMi:
	mov	al, BYTE PTR $T220835[ebp]
	jmp	$LN146@CanStartMi
$LN100@CanStartMi:

; 1005 : 		}
; 1006 : 	}

	jmp	$LN136@CanStartMi
$LN101@CanStartMi:

; 1007 : 	else if(iMission == CvTypes::getMISSION_AIRLIFT())

	call	?getMISSION_AIRLIFT@CvTypes@@YA?BW4MissionTypes@@XZ ; CvTypes::getMISSION_AIRLIFT
	cmp	DWORD PTR _iMission$[ebp], eax
	jne	SHORT $LN98@CanStartMi

; 1008 : 	{
; 1009 : 		if(hUnit->canAirliftAt(pPlot, iData1, iData2))

	mov	eax, DWORD PTR _hUnit$[ebp]
	mov	DWORD PTR $T221317[ebp], eax
	mov	ecx, DWORD PTR _iData2$[ebp]
	push	ecx
	mov	edx, DWORD PTR _iData1$[ebp]
	push	edx
	mov	eax, DWORD PTR _pPlot$[ebp]
	push	eax
	mov	ecx, DWORD PTR $T221317[ebp]
	call	?canAirliftAt@CvUnit@@QBE_NPBVCvPlot@@HH@Z ; CvUnit::canAirliftAt
	movzx	ecx, al
	test	ecx, ecx
	je	SHORT $LN97@CanStartMi

; 1010 : 		{
; 1011 : 			return true;

	mov	BYTE PTR $T220836[ebp], 1
	mov	BYTE PTR __$EHRec$[ebp+8], 0
	cmp	DWORD PTR _pTargetUnit$[ebp], 0
	je	SHORT $LN392@CanStartMi
	mov	ecx, DWORD PTR _pTargetUnit$[ebp]
	call	?getDestructionNotification@CvUnit@@QAEAAU?$DestructionNotification@V?$FObjectHandle@VCvUnit@@@@@@XZ ; CvUnit::getDestructionNotification
$LN392@CanStartMi:
	mov	DWORD PTR __$EHRec$[ebp+8], -1
	cmp	DWORD PTR _hUnit$[ebp], 0
	je	SHORT $LN397@CanStartMi
	mov	ecx, DWORD PTR _hUnit$[ebp]
	call	?getDestructionNotification@CvUnit@@QAEAAU?$DestructionNotification@V?$FObjectHandle@VCvUnit@@@@@@XZ ; CvUnit::getDestructionNotification
$LN397@CanStartMi:
	mov	al, BYTE PTR $T220836[ebp]
	jmp	$LN146@CanStartMi
$LN97@CanStartMi:

; 1012 : 		}
; 1013 : 	}

	jmp	$LN136@CanStartMi
$LN98@CanStartMi:

; 1014 : 	else if(iMission == CvTypes::getMISSION_NUKE())

	call	?getMISSION_NUKE@CvTypes@@YA?BW4MissionTypes@@XZ ; CvTypes::getMISSION_NUKE
	cmp	DWORD PTR _iMission$[ebp], eax
	jne	SHORT $LN95@CanStartMi

; 1015 : 	{
; 1016 : 		if(hUnit->canNukeAt(pPlot, iData1, iData2))

	mov	edx, DWORD PTR _hUnit$[ebp]
	mov	DWORD PTR $T221339[ebp], edx
	mov	eax, DWORD PTR _iData2$[ebp]
	push	eax
	mov	ecx, DWORD PTR _iData1$[ebp]
	push	ecx
	mov	edx, DWORD PTR _pPlot$[ebp]
	push	edx
	mov	ecx, DWORD PTR $T221339[ebp]
	call	?canNukeAt@CvUnit@@QBE_NPBVCvPlot@@HH@Z	; CvUnit::canNukeAt
	movzx	eax, al
	test	eax, eax
	je	SHORT $LN94@CanStartMi

; 1017 : 		{
; 1018 : 			return true;

	mov	BYTE PTR $T220837[ebp], 1
	mov	BYTE PTR __$EHRec$[ebp+8], 0
	cmp	DWORD PTR _pTargetUnit$[ebp], 0
	je	SHORT $LN404@CanStartMi
	mov	ecx, DWORD PTR _pTargetUnit$[ebp]
	call	?getDestructionNotification@CvUnit@@QAEAAU?$DestructionNotification@V?$FObjectHandle@VCvUnit@@@@@@XZ ; CvUnit::getDestructionNotification
$LN404@CanStartMi:
	mov	DWORD PTR __$EHRec$[ebp+8], -1
	cmp	DWORD PTR _hUnit$[ebp], 0
	je	SHORT $LN409@CanStartMi
	mov	ecx, DWORD PTR _hUnit$[ebp]
	call	?getDestructionNotification@CvUnit@@QAEAAU?$DestructionNotification@V?$FObjectHandle@VCvUnit@@@@@@XZ ; CvUnit::getDestructionNotification
$LN409@CanStartMi:
	mov	al, BYTE PTR $T220837[ebp]
	jmp	$LN146@CanStartMi
$LN94@CanStartMi:

; 1019 : 		}
; 1020 : 	}

	jmp	$LN136@CanStartMi
$LN95@CanStartMi:

; 1021 : 	else if(iMission == CvTypes::getMISSION_PARADROP())

	call	?getMISSION_PARADROP@CvTypes@@YA?BW4MissionTypes@@XZ ; CvTypes::getMISSION_PARADROP
	cmp	DWORD PTR _iMission$[ebp], eax
	jne	SHORT $LN92@CanStartMi

; 1022 : 	{
; 1023 : 		if(hUnit->canParadropAt(pPlot, iData1, iData2))

	mov	ecx, DWORD PTR _hUnit$[ebp]
	mov	DWORD PTR $T221361[ebp], ecx
	mov	edx, DWORD PTR _iData2$[ebp]
	push	edx
	mov	eax, DWORD PTR _iData1$[ebp]
	push	eax
	mov	ecx, DWORD PTR _pPlot$[ebp]
	push	ecx
	mov	ecx, DWORD PTR $T221361[ebp]
	call	?canParadropAt@CvUnit@@QBE_NPBVCvPlot@@HH@Z ; CvUnit::canParadropAt
	movzx	edx, al
	test	edx, edx
	je	SHORT $LN91@CanStartMi

; 1024 : 		{
; 1025 : 			return true;

	mov	BYTE PTR $T220838[ebp], 1
	mov	BYTE PTR __$EHRec$[ebp+8], 0
	cmp	DWORD PTR _pTargetUnit$[ebp], 0
	je	SHORT $LN416@CanStartMi
	mov	ecx, DWORD PTR _pTargetUnit$[ebp]
	call	?getDestructionNotification@CvUnit@@QAEAAU?$DestructionNotification@V?$FObjectHandle@VCvUnit@@@@@@XZ ; CvUnit::getDestructionNotification
$LN416@CanStartMi:
	mov	DWORD PTR __$EHRec$[ebp+8], -1
	cmp	DWORD PTR _hUnit$[ebp], 0
	je	SHORT $LN421@CanStartMi
	mov	ecx, DWORD PTR _hUnit$[ebp]
	call	?getDestructionNotification@CvUnit@@QAEAAU?$DestructionNotification@V?$FObjectHandle@VCvUnit@@@@@@XZ ; CvUnit::getDestructionNotification
$LN421@CanStartMi:
	mov	al, BYTE PTR $T220838[ebp]
	jmp	$LN146@CanStartMi
$LN91@CanStartMi:

; 1026 : 		}
; 1027 : 	}

	jmp	$LN136@CanStartMi
$LN92@CanStartMi:

; 1028 : 	else if(iMission == CvTypes::getMISSION_AIR_SWEEP())

	call	?getMISSION_AIR_SWEEP@CvTypes@@YA?BW4MissionTypes@@XZ ; CvTypes::getMISSION_AIR_SWEEP
	cmp	DWORD PTR _iMission$[ebp], eax
	jne	SHORT $LN89@CanStartMi

; 1029 : 	{
; 1030 : 		if(hUnit->canAirSweepAt(iData1, iData2))

	mov	eax, DWORD PTR _hUnit$[ebp]
	mov	DWORD PTR $T221383[ebp], eax
	mov	ecx, DWORD PTR _iData2$[ebp]
	push	ecx
	mov	edx, DWORD PTR _iData1$[ebp]
	push	edx
	mov	ecx, DWORD PTR $T221383[ebp]
	call	?canAirSweepAt@CvUnit@@QBE_NHH@Z	; CvUnit::canAirSweepAt
	movzx	eax, al
	test	eax, eax
	je	SHORT $LN88@CanStartMi

; 1031 : 		{
; 1032 : 			return true;

	mov	BYTE PTR $T220839[ebp], 1
	mov	BYTE PTR __$EHRec$[ebp+8], 0
	cmp	DWORD PTR _pTargetUnit$[ebp], 0
	je	SHORT $LN428@CanStartMi
	mov	ecx, DWORD PTR _pTargetUnit$[ebp]
	call	?getDestructionNotification@CvUnit@@QAEAAU?$DestructionNotification@V?$FObjectHandle@VCvUnit@@@@@@XZ ; CvUnit::getDestructionNotification
$LN428@CanStartMi:
	mov	DWORD PTR __$EHRec$[ebp+8], -1
	cmp	DWORD PTR _hUnit$[ebp], 0
	je	SHORT $LN433@CanStartMi
	mov	ecx, DWORD PTR _hUnit$[ebp]
	call	?getDestructionNotification@CvUnit@@QAEAAU?$DestructionNotification@V?$FObjectHandle@VCvUnit@@@@@@XZ ; CvUnit::getDestructionNotification
$LN433@CanStartMi:
	mov	al, BYTE PTR $T220839[ebp]
	jmp	$LN146@CanStartMi
$LN88@CanStartMi:

; 1033 : 		}
; 1034 : 	}

	jmp	$LN136@CanStartMi
$LN89@CanStartMi:

; 1035 : 	else if(iMission == CvTypes::getMISSION_REBASE())

	call	?getMISSION_REBASE@CvTypes@@YA?BW4MissionTypes@@XZ ; CvTypes::getMISSION_REBASE
	cmp	DWORD PTR _iMission$[ebp], eax
	jne	SHORT $LN86@CanStartMi

; 1036 : 	{
; 1037 : 		if(hUnit->canRebaseAt(pPlot, iData1, iData2))

	mov	ecx, DWORD PTR _hUnit$[ebp]
	mov	DWORD PTR $T221405[ebp], ecx
	mov	edx, DWORD PTR _iData2$[ebp]
	push	edx
	mov	eax, DWORD PTR _iData1$[ebp]
	push	eax
	mov	ecx, DWORD PTR _pPlot$[ebp]
	push	ecx
	mov	ecx, DWORD PTR $T221405[ebp]
	call	?canRebaseAt@CvUnit@@QBE_NPBVCvPlot@@HH@Z ; CvUnit::canRebaseAt
	movzx	edx, al
	test	edx, edx
	je	SHORT $LN85@CanStartMi

; 1038 : 		{
; 1039 : 			return true;

	mov	BYTE PTR $T220840[ebp], 1
	mov	BYTE PTR __$EHRec$[ebp+8], 0
	cmp	DWORD PTR _pTargetUnit$[ebp], 0
	je	SHORT $LN440@CanStartMi
	mov	ecx, DWORD PTR _pTargetUnit$[ebp]
	call	?getDestructionNotification@CvUnit@@QAEAAU?$DestructionNotification@V?$FObjectHandle@VCvUnit@@@@@@XZ ; CvUnit::getDestructionNotification
$LN440@CanStartMi:
	mov	DWORD PTR __$EHRec$[ebp+8], -1
	cmp	DWORD PTR _hUnit$[ebp], 0
	je	SHORT $LN445@CanStartMi
	mov	ecx, DWORD PTR _hUnit$[ebp]
	call	?getDestructionNotification@CvUnit@@QAEAAU?$DestructionNotification@V?$FObjectHandle@VCvUnit@@@@@@XZ ; CvUnit::getDestructionNotification
$LN445@CanStartMi:
	mov	al, BYTE PTR $T220840[ebp]
	jmp	$LN146@CanStartMi
$LN85@CanStartMi:

; 1040 : 		}
; 1041 : 	}

	jmp	$LN136@CanStartMi
$LN86@CanStartMi:

; 1042 : 	else if(iMission == CvTypes::getMISSION_RANGE_ATTACK())

	call	?getMISSION_RANGE_ATTACK@CvTypes@@YA?BW4MissionTypes@@XZ ; CvTypes::getMISSION_RANGE_ATTACK
	cmp	DWORD PTR _iMission$[ebp], eax
	jne	SHORT $LN83@CanStartMi

; 1043 : 	{
; 1044 : 		if(hUnit->canRangeStrikeAt(iData1, iData2))

	mov	eax, DWORD PTR _hUnit$[ebp]
	mov	DWORD PTR $T221427[ebp], eax
	push	1
	push	1
	mov	ecx, DWORD PTR _iData2$[ebp]
	push	ecx
	mov	edx, DWORD PTR _iData1$[ebp]
	push	edx
	mov	ecx, DWORD PTR $T221427[ebp]
	call	?canRangeStrikeAt@CvUnit@@QBE_NHH_N0@Z	; CvUnit::canRangeStrikeAt
	movzx	eax, al
	test	eax, eax
	je	SHORT $LN82@CanStartMi

; 1045 : 		{
; 1046 : 			return true;

	mov	BYTE PTR $T220841[ebp], 1
	mov	BYTE PTR __$EHRec$[ebp+8], 0
	cmp	DWORD PTR _pTargetUnit$[ebp], 0
	je	SHORT $LN452@CanStartMi
	mov	ecx, DWORD PTR _pTargetUnit$[ebp]
	call	?getDestructionNotification@CvUnit@@QAEAAU?$DestructionNotification@V?$FObjectHandle@VCvUnit@@@@@@XZ ; CvUnit::getDestructionNotification
$LN452@CanStartMi:
	mov	DWORD PTR __$EHRec$[ebp+8], -1
	cmp	DWORD PTR _hUnit$[ebp], 0
	je	SHORT $LN457@CanStartMi
	mov	ecx, DWORD PTR _hUnit$[ebp]
	call	?getDestructionNotification@CvUnit@@QAEAAU?$DestructionNotification@V?$FObjectHandle@VCvUnit@@@@@@XZ ; CvUnit::getDestructionNotification
$LN457@CanStartMi:
	mov	al, BYTE PTR $T220841[ebp]
	jmp	$LN146@CanStartMi
$LN82@CanStartMi:

; 1047 : 		}
; 1048 : 	}

	jmp	$LN136@CanStartMi
$LN83@CanStartMi:

; 1049 : 	else if(iMission == CvTypes::getMISSION_PILLAGE())

	call	?getMISSION_PILLAGE@CvTypes@@YA?BW4MissionTypes@@XZ ; CvTypes::getMISSION_PILLAGE
	cmp	DWORD PTR _iMission$[ebp], eax
	jne	SHORT $LN80@CanStartMi

; 1050 : 	{
; 1051 : 		if(hUnit->canPillage(pPlot))

	mov	ecx, DWORD PTR _hUnit$[ebp]
	mov	DWORD PTR $T221449[ebp], ecx
	mov	edx, DWORD PTR _pPlot$[ebp]
	push	edx
	mov	ecx, DWORD PTR $T221449[ebp]
	call	?canPillage@CvUnit@@QBE_NPBVCvPlot@@@Z	; CvUnit::canPillage
	movzx	eax, al
	test	eax, eax
	je	SHORT $LN79@CanStartMi

; 1052 : 		{
; 1053 : 			return true;

	mov	BYTE PTR $T220842[ebp], 1
	mov	BYTE PTR __$EHRec$[ebp+8], 0
	cmp	DWORD PTR _pTargetUnit$[ebp], 0
	je	SHORT $LN464@CanStartMi
	mov	ecx, DWORD PTR _pTargetUnit$[ebp]
	call	?getDestructionNotification@CvUnit@@QAEAAU?$DestructionNotification@V?$FObjectHandle@VCvUnit@@@@@@XZ ; CvUnit::getDestructionNotification
$LN464@CanStartMi:
	mov	DWORD PTR __$EHRec$[ebp+8], -1
	cmp	DWORD PTR _hUnit$[ebp], 0
	je	SHORT $LN469@CanStartMi
	mov	ecx, DWORD PTR _hUnit$[ebp]
	call	?getDestructionNotification@CvUnit@@QAEAAU?$DestructionNotification@V?$FObjectHandle@VCvUnit@@@@@@XZ ; CvUnit::getDestructionNotification
$LN469@CanStartMi:
	mov	al, BYTE PTR $T220842[ebp]
	jmp	$LN146@CanStartMi
$LN79@CanStartMi:

; 1054 : 		}
; 1055 : 	}

	jmp	$LN136@CanStartMi
$LN80@CanStartMi:

; 1056 : 	else if(iMission == CvTypes::getMISSION_FOUND())

	call	?getMISSION_FOUND@CvTypes@@YA?BW4MissionTypes@@XZ ; CvTypes::getMISSION_FOUND
	cmp	DWORD PTR _iMission$[ebp], eax
	jne	SHORT $LN77@CanStartMi

; 1057 : 	{
; 1058 : 		if(hUnit->canFound(pPlot, bTestVisible))

	mov	ecx, DWORD PTR _hUnit$[ebp]
	mov	DWORD PTR $T221471[ebp], ecx
	movzx	edx, BYTE PTR _bTestVisible$[ebp]
	push	edx
	mov	eax, DWORD PTR _pPlot$[ebp]
	push	eax
	mov	ecx, DWORD PTR $T221471[ebp]
	call	?canFound@CvUnit@@QBE_NPBVCvPlot@@_N@Z	; CvUnit::canFound
	movzx	ecx, al
	test	ecx, ecx
	je	SHORT $LN76@CanStartMi

; 1059 : 		{
; 1060 : 			return true;

	mov	BYTE PTR $T220843[ebp], 1
	mov	BYTE PTR __$EHRec$[ebp+8], 0
	cmp	DWORD PTR _pTargetUnit$[ebp], 0
	je	SHORT $LN476@CanStartMi
	mov	ecx, DWORD PTR _pTargetUnit$[ebp]
	call	?getDestructionNotification@CvUnit@@QAEAAU?$DestructionNotification@V?$FObjectHandle@VCvUnit@@@@@@XZ ; CvUnit::getDestructionNotification
$LN476@CanStartMi:
	mov	DWORD PTR __$EHRec$[ebp+8], -1
	cmp	DWORD PTR _hUnit$[ebp], 0
	je	SHORT $LN481@CanStartMi
	mov	ecx, DWORD PTR _hUnit$[ebp]
	call	?getDestructionNotification@CvUnit@@QAEAAU?$DestructionNotification@V?$FObjectHandle@VCvUnit@@@@@@XZ ; CvUnit::getDestructionNotification
$LN481@CanStartMi:
	mov	al, BYTE PTR $T220843[ebp]
	jmp	$LN146@CanStartMi
$LN76@CanStartMi:

; 1061 : 		}
; 1062 : 	}

	jmp	$LN136@CanStartMi
$LN77@CanStartMi:

; 1063 : 	else if(iMission == CvTypes::getMISSION_JOIN())

	call	?getMISSION_JOIN@CvTypes@@YA?BW4MissionTypes@@XZ ; CvTypes::getMISSION_JOIN
	cmp	DWORD PTR _iMission$[ebp], eax
	jne	SHORT $LN74@CanStartMi

; 1064 : 	{
; 1065 : 		if(hUnit->canJoin(pPlot, ((SpecialistTypes)iData1)))

	mov	edx, DWORD PTR _hUnit$[ebp]
	mov	DWORD PTR $T221493[ebp], edx
	mov	eax, DWORD PTR _iData1$[ebp]
	push	eax
	mov	ecx, DWORD PTR _pPlot$[ebp]
	push	ecx
	mov	ecx, DWORD PTR $T221493[ebp]
	call	?canJoin@CvUnit@@QBE_NPBVCvPlot@@W4SpecialistTypes@@@Z ; CvUnit::canJoin
	movzx	edx, al
	test	edx, edx
	je	SHORT $LN73@CanStartMi

; 1066 : 		{
; 1067 : 			return true;

	mov	BYTE PTR $T220844[ebp], 1
	mov	BYTE PTR __$EHRec$[ebp+8], 0
	cmp	DWORD PTR _pTargetUnit$[ebp], 0
	je	SHORT $LN488@CanStartMi
	mov	ecx, DWORD PTR _pTargetUnit$[ebp]
	call	?getDestructionNotification@CvUnit@@QAEAAU?$DestructionNotification@V?$FObjectHandle@VCvUnit@@@@@@XZ ; CvUnit::getDestructionNotification
$LN488@CanStartMi:
	mov	DWORD PTR __$EHRec$[ebp+8], -1
	cmp	DWORD PTR _hUnit$[ebp], 0
	je	SHORT $LN493@CanStartMi
	mov	ecx, DWORD PTR _hUnit$[ebp]
	call	?getDestructionNotification@CvUnit@@QAEAAU?$DestructionNotification@V?$FObjectHandle@VCvUnit@@@@@@XZ ; CvUnit::getDestructionNotification
$LN493@CanStartMi:
	mov	al, BYTE PTR $T220844[ebp]
	jmp	$LN146@CanStartMi
$LN73@CanStartMi:

; 1068 : 		}
; 1069 : 	}

	jmp	$LN136@CanStartMi
$LN74@CanStartMi:

; 1070 : 	else if(iMission == CvTypes::getMISSION_CONSTRUCT())

	call	?getMISSION_CONSTRUCT@CvTypes@@YA?BW4MissionTypes@@XZ ; CvTypes::getMISSION_CONSTRUCT
	cmp	DWORD PTR _iMission$[ebp], eax
	jne	SHORT $LN71@CanStartMi

; 1071 : 	{
; 1072 : 		if(hUnit->canConstruct(pPlot, ((BuildingTypes)iData1)))

	mov	eax, DWORD PTR _hUnit$[ebp]
	mov	DWORD PTR $T221515[ebp], eax
	mov	ecx, DWORD PTR _iData1$[ebp]
	push	ecx
	mov	edx, DWORD PTR _pPlot$[ebp]
	push	edx
	mov	ecx, DWORD PTR $T221515[ebp]
	call	?canConstruct@CvUnit@@QBE_NPBVCvPlot@@W4BuildingTypes@@@Z ; CvUnit::canConstruct
	movzx	eax, al
	test	eax, eax
	je	SHORT $LN70@CanStartMi

; 1073 : 		{
; 1074 : 			return true;

	mov	BYTE PTR $T220845[ebp], 1
	mov	BYTE PTR __$EHRec$[ebp+8], 0
	cmp	DWORD PTR _pTargetUnit$[ebp], 0
	je	SHORT $LN500@CanStartMi
	mov	ecx, DWORD PTR _pTargetUnit$[ebp]
	call	?getDestructionNotification@CvUnit@@QAEAAU?$DestructionNotification@V?$FObjectHandle@VCvUnit@@@@@@XZ ; CvUnit::getDestructionNotification
$LN500@CanStartMi:
	mov	DWORD PTR __$EHRec$[ebp+8], -1
	cmp	DWORD PTR _hUnit$[ebp], 0
	je	SHORT $LN505@CanStartMi
	mov	ecx, DWORD PTR _hUnit$[ebp]
	call	?getDestructionNotification@CvUnit@@QAEAAU?$DestructionNotification@V?$FObjectHandle@VCvUnit@@@@@@XZ ; CvUnit::getDestructionNotification
$LN505@CanStartMi:
	mov	al, BYTE PTR $T220845[ebp]
	jmp	$LN146@CanStartMi
$LN70@CanStartMi:

; 1075 : 		}
; 1076 : 	}

	jmp	$LN136@CanStartMi
$LN71@CanStartMi:

; 1077 : 	else if(iMission == CvTypes::getMISSION_DISCOVER())

	call	?getMISSION_DISCOVER@CvTypes@@YA?BW4MissionTypes@@XZ ; CvTypes::getMISSION_DISCOVER
	cmp	DWORD PTR _iMission$[ebp], eax
	jne	SHORT $LN68@CanStartMi

; 1078 : 	{
; 1079 : 		if(hUnit->canDiscover(pPlot, bTestVisible))

	mov	ecx, DWORD PTR _hUnit$[ebp]
	mov	DWORD PTR $T221537[ebp], ecx
	movzx	edx, BYTE PTR _bTestVisible$[ebp]
	push	edx
	mov	eax, DWORD PTR _pPlot$[ebp]
	push	eax
	mov	ecx, DWORD PTR $T221537[ebp]
	call	?canDiscover@CvUnit@@QBE_NPBVCvPlot@@_N@Z ; CvUnit::canDiscover
	movzx	ecx, al
	test	ecx, ecx
	je	SHORT $LN67@CanStartMi

; 1080 : 		{
; 1081 : 			return true;

	mov	BYTE PTR $T220846[ebp], 1
	mov	BYTE PTR __$EHRec$[ebp+8], 0
	cmp	DWORD PTR _pTargetUnit$[ebp], 0
	je	SHORT $LN512@CanStartMi
	mov	ecx, DWORD PTR _pTargetUnit$[ebp]
	call	?getDestructionNotification@CvUnit@@QAEAAU?$DestructionNotification@V?$FObjectHandle@VCvUnit@@@@@@XZ ; CvUnit::getDestructionNotification
$LN512@CanStartMi:
	mov	DWORD PTR __$EHRec$[ebp+8], -1
	cmp	DWORD PTR _hUnit$[ebp], 0
	je	SHORT $LN517@CanStartMi
	mov	ecx, DWORD PTR _hUnit$[ebp]
	call	?getDestructionNotification@CvUnit@@QAEAAU?$DestructionNotification@V?$FObjectHandle@VCvUnit@@@@@@XZ ; CvUnit::getDestructionNotification
$LN517@CanStartMi:
	mov	al, BYTE PTR $T220846[ebp]
	jmp	$LN146@CanStartMi
$LN67@CanStartMi:

; 1082 : 		}
; 1083 : 	}

	jmp	$LN136@CanStartMi
$LN68@CanStartMi:

; 1084 : 	else if(iMission == CvTypes::getMISSION_HURRY())

	call	?getMISSION_HURRY@CvTypes@@YA?BW4MissionTypes@@XZ ; CvTypes::getMISSION_HURRY
	cmp	DWORD PTR _iMission$[ebp], eax
	jne	SHORT $LN65@CanStartMi

; 1085 : 	{
; 1086 : 		//if (hUnit->IsCanRushBuilding(pPlot->getPlotCity(), bTestVisible))
; 1087 : 		if(hUnit->canHurry(pPlot, bTestVisible))

	mov	edx, DWORD PTR _hUnit$[ebp]
	mov	DWORD PTR $T221559[ebp], edx
	movzx	eax, BYTE PTR _bTestVisible$[ebp]
	push	eax
	mov	ecx, DWORD PTR _pPlot$[ebp]
	push	ecx
	mov	ecx, DWORD PTR $T221559[ebp]
	call	?canHurry@CvUnit@@QBE_NPBVCvPlot@@_N@Z	; CvUnit::canHurry
	movzx	edx, al
	test	edx, edx
	je	SHORT $LN64@CanStartMi

; 1088 : 		{
; 1089 : 			return true;

	mov	BYTE PTR $T220847[ebp], 1
	mov	BYTE PTR __$EHRec$[ebp+8], 0
	cmp	DWORD PTR _pTargetUnit$[ebp], 0
	je	SHORT $LN524@CanStartMi
	mov	ecx, DWORD PTR _pTargetUnit$[ebp]
	call	?getDestructionNotification@CvUnit@@QAEAAU?$DestructionNotification@V?$FObjectHandle@VCvUnit@@@@@@XZ ; CvUnit::getDestructionNotification
$LN524@CanStartMi:
	mov	DWORD PTR __$EHRec$[ebp+8], -1
	cmp	DWORD PTR _hUnit$[ebp], 0
	je	SHORT $LN529@CanStartMi
	mov	ecx, DWORD PTR _hUnit$[ebp]
	call	?getDestructionNotification@CvUnit@@QAEAAU?$DestructionNotification@V?$FObjectHandle@VCvUnit@@@@@@XZ ; CvUnit::getDestructionNotification
$LN529@CanStartMi:
	mov	al, BYTE PTR $T220847[ebp]
	jmp	$LN146@CanStartMi
$LN64@CanStartMi:

; 1090 : 		}
; 1091 : 	}

	jmp	$LN136@CanStartMi
$LN65@CanStartMi:

; 1092 : 	else if(iMission == CvTypes::getMISSION_TRADE())

	call	?getMISSION_TRADE@CvTypes@@YA?BW4MissionTypes@@XZ ; CvTypes::getMISSION_TRADE
	cmp	DWORD PTR _iMission$[ebp], eax
	jne	SHORT $LN62@CanStartMi

; 1093 : 	{
; 1094 : 		if(hUnit->canTrade(pPlot, bTestVisible))

	mov	eax, DWORD PTR _hUnit$[ebp]
	mov	DWORD PTR $T221581[ebp], eax
	movzx	ecx, BYTE PTR _bTestVisible$[ebp]
	push	ecx
	mov	edx, DWORD PTR _pPlot$[ebp]
	push	edx
	mov	ecx, DWORD PTR $T221581[ebp]
	call	?canTrade@CvUnit@@QBE_NPBVCvPlot@@_N@Z	; CvUnit::canTrade
	movzx	eax, al
	test	eax, eax
	je	SHORT $LN61@CanStartMi

; 1095 : 		{
; 1096 : 			return true;

	mov	BYTE PTR $T220848[ebp], 1
	mov	BYTE PTR __$EHRec$[ebp+8], 0
	cmp	DWORD PTR _pTargetUnit$[ebp], 0
	je	SHORT $LN536@CanStartMi
	mov	ecx, DWORD PTR _pTargetUnit$[ebp]
	call	?getDestructionNotification@CvUnit@@QAEAAU?$DestructionNotification@V?$FObjectHandle@VCvUnit@@@@@@XZ ; CvUnit::getDestructionNotification
$LN536@CanStartMi:
	mov	DWORD PTR __$EHRec$[ebp+8], -1
	cmp	DWORD PTR _hUnit$[ebp], 0
	je	SHORT $LN541@CanStartMi
	mov	ecx, DWORD PTR _hUnit$[ebp]
	call	?getDestructionNotification@CvUnit@@QAEAAU?$DestructionNotification@V?$FObjectHandle@VCvUnit@@@@@@XZ ; CvUnit::getDestructionNotification
$LN541@CanStartMi:
	mov	al, BYTE PTR $T220848[ebp]
	jmp	$LN146@CanStartMi
$LN61@CanStartMi:

; 1097 : 		}
; 1098 : 	}

	jmp	$LN136@CanStartMi
$LN62@CanStartMi:

; 1099 : 	else if(iMission == CvTypes::getMISSION_REPAIR_FLEET())

	call	?getMISSION_REPAIR_FLEET@CvTypes@@YA?BW4MissionTypes@@XZ ; CvTypes::getMISSION_REPAIR_FLEET
	cmp	DWORD PTR _iMission$[ebp], eax
	jne	SHORT $LN59@CanStartMi

; 1100 : 	{
; 1101 : 		if(hUnit->canRepairFleet(pPlot, bTestVisible))

	mov	ecx, DWORD PTR _hUnit$[ebp]
	mov	DWORD PTR $T221603[ebp], ecx
	movzx	edx, BYTE PTR _bTestVisible$[ebp]
	push	edx
	mov	eax, DWORD PTR _pPlot$[ebp]
	push	eax
	mov	ecx, DWORD PTR $T221603[ebp]
	call	?canRepairFleet@CvUnit@@QBE_NPBVCvPlot@@_N@Z ; CvUnit::canRepairFleet
	movzx	ecx, al
	test	ecx, ecx
	je	SHORT $LN58@CanStartMi

; 1102 : 		{
; 1103 : 			return true;

	mov	BYTE PTR $T220849[ebp], 1
	mov	BYTE PTR __$EHRec$[ebp+8], 0
	cmp	DWORD PTR _pTargetUnit$[ebp], 0
	je	SHORT $LN548@CanStartMi
	mov	ecx, DWORD PTR _pTargetUnit$[ebp]
	call	?getDestructionNotification@CvUnit@@QAEAAU?$DestructionNotification@V?$FObjectHandle@VCvUnit@@@@@@XZ ; CvUnit::getDestructionNotification
$LN548@CanStartMi:
	mov	DWORD PTR __$EHRec$[ebp+8], -1
	cmp	DWORD PTR _hUnit$[ebp], 0
	je	SHORT $LN553@CanStartMi
	mov	ecx, DWORD PTR _hUnit$[ebp]
	call	?getDestructionNotification@CvUnit@@QAEAAU?$DestructionNotification@V?$FObjectHandle@VCvUnit@@@@@@XZ ; CvUnit::getDestructionNotification
$LN553@CanStartMi:
	mov	al, BYTE PTR $T220849[ebp]
	jmp	$LN146@CanStartMi
$LN58@CanStartMi:

; 1104 : 		}
; 1105 : 	}

	jmp	$LN136@CanStartMi
$LN59@CanStartMi:

; 1106 : 	else if (iMission == CvTypes::getMISSION_BUY_CITY_STATE())

	call	?getMISSION_BUY_CITY_STATE@CvTypes@@YA?BW4MissionTypes@@XZ ; CvTypes::getMISSION_BUY_CITY_STATE
	cmp	DWORD PTR _iMission$[ebp], eax
	jne	SHORT $LN56@CanStartMi

; 1107 : 	{
; 1108 : 		if (hUnit->canBuyCityState(pPlot, bTestVisible))

	mov	edx, DWORD PTR _hUnit$[ebp]
	mov	DWORD PTR $T221625[ebp], edx
	movzx	eax, BYTE PTR _bTestVisible$[ebp]
	push	eax
	mov	ecx, DWORD PTR _pPlot$[ebp]
	push	ecx
	mov	ecx, DWORD PTR $T221625[ebp]
	call	?canBuyCityState@CvUnit@@QBE_NPBVCvPlot@@_N@Z ; CvUnit::canBuyCityState
	movzx	edx, al
	test	edx, edx
	je	SHORT $LN55@CanStartMi

; 1109 : 		{
; 1110 : 			return true;

	mov	BYTE PTR $T220850[ebp], 1
	mov	BYTE PTR __$EHRec$[ebp+8], 0
	cmp	DWORD PTR _pTargetUnit$[ebp], 0
	je	SHORT $LN560@CanStartMi
	mov	ecx, DWORD PTR _pTargetUnit$[ebp]
	call	?getDestructionNotification@CvUnit@@QAEAAU?$DestructionNotification@V?$FObjectHandle@VCvUnit@@@@@@XZ ; CvUnit::getDestructionNotification
$LN560@CanStartMi:
	mov	DWORD PTR __$EHRec$[ebp+8], -1
	cmp	DWORD PTR _hUnit$[ebp], 0
	je	SHORT $LN565@CanStartMi
	mov	ecx, DWORD PTR _hUnit$[ebp]
	call	?getDestructionNotification@CvUnit@@QAEAAU?$DestructionNotification@V?$FObjectHandle@VCvUnit@@@@@@XZ ; CvUnit::getDestructionNotification
$LN565@CanStartMi:
	mov	al, BYTE PTR $T220850[ebp]
	jmp	$LN146@CanStartMi
$LN55@CanStartMi:

; 1111 : 		}
; 1112 : 	}

	jmp	$LN136@CanStartMi
$LN56@CanStartMi:

; 1113 : 	else if(iMission == CvTypes::getMISSION_SPACESHIP())

	call	?getMISSION_SPACESHIP@CvTypes@@YA?BW4MissionTypes@@XZ ; CvTypes::getMISSION_SPACESHIP
	cmp	DWORD PTR _iMission$[ebp], eax
	jne	SHORT $LN53@CanStartMi

; 1114 : 	{
; 1115 : 		if(hUnit->CanBuildSpaceship(pPlot, bTestVisible))

