; Listing generated by Microsoft (R) Optimizing Compiler Version 15.00.30729.01 

	TITLE	D:\sources\Lekmod_git\checkout\LEKMOD_DLL\CvGameCoreDLL_Expansion2\CvWorldBuilderMapLoader.cpp
	.686P
	.XMM
	include listing.inc
	.model	flat

INCLUDELIB MSVCRT
INCLUDELIB OLDNAMES

PUBLIC	?NO_QUEST_DATA@CvMinorCivQuest@@2HB		; CvMinorCivQuest::NO_QUEST_DATA
PUBLIC	?NO_TURN@CvMinorCivQuest@@2HB			; CvMinorCivQuest::NO_TURN
PUBLIC	?FileVersion@CvWorldBuilderMap@@2IB		; CvWorldBuilderMap::FileVersion
PUBLIC	?MaxMapSize@CvWorldBuilderMap@@2IB		; CvWorldBuilderMap::MaxMapSize
PUBLIC	?MaxPlayers@CvWorldBuilderMap@@2IB		; CvWorldBuilderMap::MaxPlayers
PUBLIC	?MaxCityStates@CvWorldBuilderMap@@2IB		; CvWorldBuilderMap::MaxCityStates
PUBLIC	?MaxTeams@CvWorldBuilderMap@@2IB		; CvWorldBuilderMap::MaxTeams
PUBLIC	?BarbarianPlayer@CvWorldBuilderMap@@2IB		; CvWorldBuilderMap::BarbarianPlayer
PUBLIC	?InvalidResource@PlotMapData@CvWorldBuilderMap@@2EB ; CvWorldBuilderMap::PlotMapData::InvalidResource
PUBLIC	?InvalidFeature@PlotMapData@CvWorldBuilderMap@@2EB ; CvWorldBuilderMap::PlotMapData::InvalidFeature
PUBLIC	?InvalidNaturalWonder@PlotMapData@CvWorldBuilderMap@@2EB ; CvWorldBuilderMap::PlotMapData::InvalidNaturalWonder
PUBLIC	?InvalidUnitType@OldUnit@CvWorldBuilderMap@@2EB	; CvWorldBuilderMap::OldUnit::InvalidUnitType
PUBLIC	?MaxLength@UnitName@CvWorldBuilderMap@@2IB	; CvWorldBuilderMap::UnitName::MaxLength
PUBLIC	?InvalidUnitType@UnitV2@CvWorldBuilderMap@@2EB	; CvWorldBuilderMap::UnitV2::InvalidUnitType
PUBLIC	?MaxPromotionTypes@UnitV2@CvWorldBuilderMap@@2IB ; CvWorldBuilderMap::UnitV2::MaxPromotionTypes
PUBLIC	?MaxHealth@UnitV2@CvWorldBuilderMap@@2IB	; CvWorldBuilderMap::UnitV2::MaxHealth
PUBLIC	?InvalidUnitType@Unit@CvWorldBuilderMap@@2IB	; CvWorldBuilderMap::Unit::InvalidUnitType
PUBLIC	?MaxPromotionTypes@Unit@CvWorldBuilderMap@@2IB	; CvWorldBuilderMap::Unit::MaxPromotionTypes
PUBLIC	?MaxHealth@Unit@CvWorldBuilderMap@@2IB		; CvWorldBuilderMap::Unit::MaxHealth
PUBLIC	?MaxBuildingTypes@OldCity@CvWorldBuilderMap@@2IB ; CvWorldBuilderMap::OldCity::MaxBuildingTypes
PUBLIC	?MaxBuildingTypes@CityV2@CvWorldBuilderMap@@2IB	; CvWorldBuilderMap::CityV2::MaxBuildingTypes
PUBLIC	?MaxNameLength@CityV2@CvWorldBuilderMap@@2IB	; CvWorldBuilderMap::CityV2::MaxNameLength
PUBLIC	?MaxHealth@CityV2@CvWorldBuilderMap@@2IB	; CvWorldBuilderMap::CityV2::MaxHealth
PUBLIC	?MaxBuildingTypes@City@CvWorldBuilderMap@@2IB	; CvWorldBuilderMap::City::MaxBuildingTypes
PUBLIC	?MaxNameLength@City@CvWorldBuilderMap@@2IB	; CvWorldBuilderMap::City::MaxNameLength
PUBLIC	?MaxHealth@City@CvWorldBuilderMap@@2IB		; CvWorldBuilderMap::City::MaxHealth
PUBLIC	?InvalidCulture@PlotScenarioData@CvWorldBuilderMap@@2EB ; CvWorldBuilderMap::PlotScenarioData::InvalidCulture
PUBLIC	?InvalidImprovement@PlotScenarioData@CvWorldBuilderMap@@2EB ; CvWorldBuilderMap::PlotScenarioData::InvalidImprovement
PUBLIC	?InvalidRoute@PlotScenarioData@CvWorldBuilderMap@@2EB ; CvWorldBuilderMap::PlotScenarioData::InvalidRoute
PUBLIC	?MaxTechs@Team@CvWorldBuilderMap@@2IB		; CvWorldBuilderMap::Team::MaxTechs
PUBLIC	?MaxPolicies@OldPlayer@CvWorldBuilderMap@@2IB	; CvWorldBuilderMap::OldPlayer::MaxPolicies
PUBLIC	?InvalidTeam@OldPlayer@CvWorldBuilderMap@@2EB	; CvWorldBuilderMap::OldPlayer::InvalidTeam
PUBLIC	?MaxPolicies@Player@CvWorldBuilderMap@@2IB	; CvWorldBuilderMap::Player::MaxPolicies
PUBLIC	?InvalidTeam@Player@CvWorldBuilderMap@@2EB	; CvWorldBuilderMap::Player::InvalidTeam
PUBLIC	?BitCount@?$FRelationshipBitset@$0GA@$00@@0IB	; FRelationshipBitset<96,1>::BitCount
PUBLIC	?ByteCount@?$FRelationshipBitset@$0GA@$00@@0IB	; FRelationshipBitset<96,1>::ByteCount
PUBLIC	?BitCount@?$FRelationshipBitset@$0GA@$0A@@@0IB	; FRelationshipBitset<96,0>::BitCount
PUBLIC	?ByteCount@?$FRelationshipBitset@$0GA@$0A@@@0IB	; FRelationshipBitset<96,0>::ByteCount
PUBLIC	?ByteCount@?$SerializableBitset@$0DAAAAA@@CvWorldBuilderMap@@0IB ; CvWorldBuilderMap::SerializableBitset<3145728>::ByteCount
_BSS	SEGMENT
_sg_wszTempMapName DW 0104H DUP (?)
_BSS	ENDS
;	COMDAT ?ByteCount@?$SerializableBitset@$0DAAAAA@@CvWorldBuilderMap@@0IB
CONST	SEGMENT
?ByteCount@?$SerializableBitset@$0DAAAAA@@CvWorldBuilderMap@@0IB DD 060000H ; CvWorldBuilderMap::SerializableBitset<3145728>::ByteCount
CONST	ENDS
;	COMDAT ?ByteCount@?$FRelationshipBitset@$0GA@$0A@@@0IB
CONST	SEGMENT
?ByteCount@?$FRelationshipBitset@$0GA@$0A@@@0IB DD 023aH ; FRelationshipBitset<96,0>::ByteCount
CONST	ENDS
;	COMDAT ?BitCount@?$FRelationshipBitset@$0GA@$0A@@@0IB
CONST	SEGMENT
?BitCount@?$FRelationshipBitset@$0GA@$0A@@@0IB DD 011d0H ; FRelationshipBitset<96,0>::BitCount
CONST	ENDS
;	COMDAT ?ByteCount@?$FRelationshipBitset@$0GA@$00@@0IB
CONST	SEGMENT
?ByteCount@?$FRelationshipBitset@$0GA@$00@@0IB DD 023aH	; FRelationshipBitset<96,1>::ByteCount
CONST	ENDS
;	COMDAT ?BitCount@?$FRelationshipBitset@$0GA@$00@@0IB
CONST	SEGMENT
?BitCount@?$FRelationshipBitset@$0GA@$00@@0IB DD 011d0H	; FRelationshipBitset<96,1>::BitCount
CONST	ENDS
;	COMDAT ?InvalidTeam@Player@CvWorldBuilderMap@@2EB
CONST	SEGMENT
?InvalidTeam@Player@CvWorldBuilderMap@@2EB DB 0ffH	; CvWorldBuilderMap::Player::InvalidTeam
CONST	ENDS
;	COMDAT ?MaxPolicies@Player@CvWorldBuilderMap@@2IB
CONST	SEGMENT
?MaxPolicies@Player@CvWorldBuilderMap@@2IB DD 0100H	; CvWorldBuilderMap::Player::MaxPolicies
CONST	ENDS
;	COMDAT ?InvalidTeam@OldPlayer@CvWorldBuilderMap@@2EB
CONST	SEGMENT
?InvalidTeam@OldPlayer@CvWorldBuilderMap@@2EB DB 0ffH	; CvWorldBuilderMap::OldPlayer::InvalidTeam
CONST	ENDS
;	COMDAT ?MaxPolicies@OldPlayer@CvWorldBuilderMap@@2IB
CONST	SEGMENT
?MaxPolicies@OldPlayer@CvWorldBuilderMap@@2IB DD 0100H	; CvWorldBuilderMap::OldPlayer::MaxPolicies
CONST	ENDS
;	COMDAT ?MaxTechs@Team@CvWorldBuilderMap@@2IB
CONST	SEGMENT
?MaxTechs@Team@CvWorldBuilderMap@@2IB DD 0100H		; CvWorldBuilderMap::Team::MaxTechs
CONST	ENDS
;	COMDAT ?InvalidRoute@PlotScenarioData@CvWorldBuilderMap@@2EB
CONST	SEGMENT
?InvalidRoute@PlotScenarioData@CvWorldBuilderMap@@2EB DB 0ffH ; CvWorldBuilderMap::PlotScenarioData::InvalidRoute
CONST	ENDS
;	COMDAT ?InvalidImprovement@PlotScenarioData@CvWorldBuilderMap@@2EB
CONST	SEGMENT
?InvalidImprovement@PlotScenarioData@CvWorldBuilderMap@@2EB DB 0ffH ; CvWorldBuilderMap::PlotScenarioData::InvalidImprovement
CONST	ENDS
;	COMDAT ?InvalidCulture@PlotScenarioData@CvWorldBuilderMap@@2EB
CONST	SEGMENT
?InvalidCulture@PlotScenarioData@CvWorldBuilderMap@@2EB DB 0ffH ; CvWorldBuilderMap::PlotScenarioData::InvalidCulture
CONST	ENDS
;	COMDAT ?MaxHealth@City@CvWorldBuilderMap@@2IB
CONST	SEGMENT
?MaxHealth@City@CvWorldBuilderMap@@2IB DD 0186a0H	; CvWorldBuilderMap::City::MaxHealth
CONST	ENDS
;	COMDAT ?MaxNameLength@City@CvWorldBuilderMap@@2IB
CONST	SEGMENT
?MaxNameLength@City@CvWorldBuilderMap@@2IB DD 040H	; CvWorldBuilderMap::City::MaxNameLength
CONST	ENDS
;	COMDAT ?MaxBuildingTypes@City@CvWorldBuilderMap@@2IB
CONST	SEGMENT
?MaxBuildingTypes@City@CvWorldBuilderMap@@2IB DD 0200H	; CvWorldBuilderMap::City::MaxBuildingTypes
CONST	ENDS
;	COMDAT ?MaxHealth@CityV2@CvWorldBuilderMap@@2IB
CONST	SEGMENT
?MaxHealth@CityV2@CvWorldBuilderMap@@2IB DD 0186a0H	; CvWorldBuilderMap::CityV2::MaxHealth
CONST	ENDS
;	COMDAT ?MaxNameLength@CityV2@CvWorldBuilderMap@@2IB
CONST	SEGMENT
?MaxNameLength@CityV2@CvWorldBuilderMap@@2IB DD 040H	; CvWorldBuilderMap::CityV2::MaxNameLength
CONST	ENDS
;	COMDAT ?MaxBuildingTypes@CityV2@CvWorldBuilderMap@@2IB
CONST	SEGMENT
?MaxBuildingTypes@CityV2@CvWorldBuilderMap@@2IB DD 0100H ; CvWorldBuilderMap::CityV2::MaxBuildingTypes
CONST	ENDS
;	COMDAT ?MaxBuildingTypes@OldCity@CvWorldBuilderMap@@2IB
CONST	SEGMENT
?MaxBuildingTypes@OldCity@CvWorldBuilderMap@@2IB DD 0100H ; CvWorldBuilderMap::OldCity::MaxBuildingTypes
CONST	ENDS
;	COMDAT ?MaxHealth@Unit@CvWorldBuilderMap@@2IB
CONST	SEGMENT
?MaxHealth@Unit@CvWorldBuilderMap@@2IB DD 0186a0H	; CvWorldBuilderMap::Unit::MaxHealth
CONST	ENDS
;	COMDAT ?MaxPromotionTypes@Unit@CvWorldBuilderMap@@2IB
CONST	SEGMENT
?MaxPromotionTypes@Unit@CvWorldBuilderMap@@2IB DD 0200H	; CvWorldBuilderMap::Unit::MaxPromotionTypes
CONST	ENDS
;	COMDAT ?InvalidUnitType@Unit@CvWorldBuilderMap@@2IB
CONST	SEGMENT
?InvalidUnitType@Unit@CvWorldBuilderMap@@2IB DD 0ffffffffH ; CvWorldBuilderMap::Unit::InvalidUnitType
CONST	ENDS
;	COMDAT ?MaxHealth@UnitV2@CvWorldBuilderMap@@2IB
CONST	SEGMENT
?MaxHealth@UnitV2@CvWorldBuilderMap@@2IB DD 0186a0H	; CvWorldBuilderMap::UnitV2::MaxHealth
CONST	ENDS
;	COMDAT ?MaxPromotionTypes@UnitV2@CvWorldBuilderMap@@2IB
CONST	SEGMENT
?MaxPromotionTypes@UnitV2@CvWorldBuilderMap@@2IB DD 0100H ; CvWorldBuilderMap::UnitV2::MaxPromotionTypes
CONST	ENDS
;	COMDAT ?InvalidUnitType@UnitV2@CvWorldBuilderMap@@2EB
CONST	SEGMENT
?InvalidUnitType@UnitV2@CvWorldBuilderMap@@2EB DB 0ffH	; CvWorldBuilderMap::UnitV2::InvalidUnitType
CONST	ENDS
;	COMDAT ?MaxLength@UnitName@CvWorldBuilderMap@@2IB
CONST	SEGMENT
?MaxLength@UnitName@CvWorldBuilderMap@@2IB DD 040H	; CvWorldBuilderMap::UnitName::MaxLength
CONST	ENDS
;	COMDAT ?InvalidUnitType@OldUnit@CvWorldBuilderMap@@2EB
CONST	SEGMENT
?InvalidUnitType@OldUnit@CvWorldBuilderMap@@2EB DB 0ffH	; CvWorldBuilderMap::OldUnit::InvalidUnitType
CONST	ENDS
;	COMDAT ?InvalidNaturalWonder@PlotMapData@CvWorldBuilderMap@@2EB
CONST	SEGMENT
?InvalidNaturalWonder@PlotMapData@CvWorldBuilderMap@@2EB DB 0ffH ; CvWorldBuilderMap::PlotMapData::InvalidNaturalWonder
CONST	ENDS
;	COMDAT ?InvalidFeature@PlotMapData@CvWorldBuilderMap@@2EB
CONST	SEGMENT
?InvalidFeature@PlotMapData@CvWorldBuilderMap@@2EB DB 0ffH ; CvWorldBuilderMap::PlotMapData::InvalidFeature
CONST	ENDS
;	COMDAT ?InvalidResource@PlotMapData@CvWorldBuilderMap@@2EB
CONST	SEGMENT
?InvalidResource@PlotMapData@CvWorldBuilderMap@@2EB DB 0ffH ; CvWorldBuilderMap::PlotMapData::InvalidResource
CONST	ENDS
;	COMDAT ?BarbarianPlayer@CvWorldBuilderMap@@2IB
CONST	SEGMENT
?BarbarianPlayer@CvWorldBuilderMap@@2IB DD 060H		; CvWorldBuilderMap::BarbarianPlayer
CONST	ENDS
;	COMDAT ?MaxTeams@CvWorldBuilderMap@@2IB
CONST	SEGMENT
?MaxTeams@CvWorldBuilderMap@@2IB DD 060H		; CvWorldBuilderMap::MaxTeams
CONST	ENDS
;	COMDAT ?MaxCityStates@CvWorldBuilderMap@@2IB
CONST	SEGMENT
?MaxCityStates@CvWorldBuilderMap@@2IB DD 040H		; CvWorldBuilderMap::MaxCityStates
CONST	ENDS
;	COMDAT ?MaxPlayers@CvWorldBuilderMap@@2IB
CONST	SEGMENT
?MaxPlayers@CvWorldBuilderMap@@2IB DD 020H		; CvWorldBuilderMap::MaxPlayers
CONST	ENDS
;	COMDAT ?MaxMapSize@CvWorldBuilderMap@@2IB
CONST	SEGMENT
?MaxMapSize@CvWorldBuilderMap@@2IB DD 08000H		; CvWorldBuilderMap::MaxMapSize
CONST	ENDS
;	COMDAT ?FileVersion@CvWorldBuilderMap@@2IB
CONST	SEGMENT
?FileVersion@CvWorldBuilderMap@@2IB DD 0cH		; CvWorldBuilderMap::FileVersion
CONST	ENDS
;	COMDAT ?NO_TURN@CvMinorCivQuest@@2HB
CONST	SEGMENT
?NO_TURN@CvMinorCivQuest@@2HB DD 0ffffffffH		; CvMinorCivQuest::NO_TURN
CONST	ENDS
;	COMDAT ?NO_QUEST_DATA@CvMinorCivQuest@@2HB
CONST	SEGMENT
?NO_QUEST_DATA@CvMinorCivQuest@@2HB DD 0ffffffffH	; CvMinorCivQuest::NO_QUEST_DATA
CONST	ENDS
PUBLIC	?erase@?$vector@VString@CvWorldBuilderMapTypeDesc@@V?$allocator@VString@CvWorldBuilderMapTypeDesc@@@std@@@std@@QAE?AV?$_Vector_iterator@VString@CvWorldBuilderMapTypeDesc@@V?$allocator@VString@CvWorldBuilderMapTypeDesc@@@std@@@2@V?$_Vector_const_iterator@VString@CvWorldBuilderMapTypeDesc@@V?$allocator@VString@CvWorldBuilderMapTypeDesc@@@std@@@2@0@Z ; std::vector<CvWorldBuilderMapTypeDesc::String,std::allocator<CvWorldBuilderMapTypeDesc::String> >::erase
PUBLIC	?InitTypeDesc@@YAXXZ				; InitTypeDesc
EXTRN	?getPromotionInfo@CvGlobals@@QAEPAVCvPromotionEntry@@W4PromotionTypes@@@Z:PROC ; CvGlobals::getPromotionInfo
EXTRN	?getNumPromotionInfos@CvGlobals@@QAEHXZ:PROC	; CvGlobals::getNumPromotionInfos
EXTRN	?getBuildingInfo@CvGlobals@@QAEPAVCvBuildingEntry@@W4BuildingTypes@@@Z:PROC ; CvGlobals::getBuildingInfo
EXTRN	?getNumBuildingInfos@CvGlobals@@QAEHXZ:PROC	; CvGlobals::getNumBuildingInfos
EXTRN	?getPolicyInfo@CvGlobals@@QAEPAVCvPolicyEntry@@W4PolicyTypes@@@Z:PROC ; CvGlobals::getPolicyInfo
EXTRN	?getNumPolicyInfos@CvGlobals@@QAEHXZ:PROC	; CvGlobals::getNumPolicyInfos
EXTRN	?getTechInfo@CvGlobals@@QAEPAVCvTechEntry@@W4TechTypes@@@Z:PROC ; CvGlobals::getTechInfo
EXTRN	?getNumTechInfos@CvGlobals@@QAEHXZ:PROC		; CvGlobals::getNumTechInfos
EXTRN	?getUnitInfo@CvGlobals@@QAEPAVCvUnitEntry@@W4UnitTypes@@@Z:PROC ; CvGlobals::getUnitInfo
EXTRN	?getNumUnitInfos@CvGlobals@@QAEHXZ:PROC		; CvGlobals::getNumUnitInfos
EXTRN	?getImprovementInfo@CvGlobals@@QAEPAVCvImprovementEntry@@W4ImprovementTypes@@@Z:PROC ; CvGlobals::getImprovementInfo
EXTRN	?getNumImprovementInfos@CvGlobals@@QAEHXZ:PROC	; CvGlobals::getNumImprovementInfos
EXTRN	?getResourceInfo@CvGlobals@@QAEPAVCvResourceInfo@@W4ResourceTypes@@@Z:PROC ; CvGlobals::getResourceInfo
EXTRN	?getNumResourceInfos@CvGlobals@@QAEHXZ:PROC	; CvGlobals::getNumResourceInfos
EXTRN	?getFeatureInfo@CvGlobals@@QAEPAVCvFeatureInfo@@W4FeatureTypes@@@Z:PROC ; CvGlobals::getFeatureInfo
EXTRN	?getNumFeatureInfos@CvGlobals@@QAEHXZ:PROC	; CvGlobals::getNumFeatureInfos
EXTRN	?Add@TypeMap@CvWorldBuilderMapTypeDesc@@QAEIPBD@Z:PROC ; CvWorldBuilderMapTypeDesc::TypeMap::Add
EXTRN	__imp_?c_str@?$basic_string@DU?$char_traits@D@std@@V?$allocator@D@2@@std@@QBEPBDXZ:PROC
EXTRN	?getTerrainInfo@CvGlobals@@QAEPAVCvTerrainInfo@@W4TerrainTypes@@@Z:PROC ; CvGlobals::getTerrainInfo
EXTRN	?getNumTerrainInfos@CvGlobals@@QAEHXZ:PROC	; CvGlobals::getNumTerrainInfos
EXTRN	?gGlobals@@3VCvGlobals@@A:BYTE			; gGlobals
; Function compile flags: /Odtp
; File d:\sources\lekmod_git\checkout\lekmod_dll\cvgamecoredll_expansion2\cvworldbuildermaploader.cpp
;	COMDAT ?InitTypeDesc@@YAXXZ
_TEXT	SEGMENT
$T227515 = -476						; size = 4
$T227499 = -472						; size = 4
$T227689 = -468						; size = 4
$T227688 = -464						; size = 4
$T227687 = -460						; size = 4
$T227686 = -456						; size = 4
$T227685 = -452						; size = 4
$T227307 = -396						; size = 4
$T227291 = -392						; size = 4
$T227465 = -388						; size = 4
$T227464 = -384						; size = 4
$T227463 = -380						; size = 4
$T227462 = -376						; size = 4
$T227461 = -372						; size = 4
$T227125 = -336						; size = 4
$T227109 = -332						; size = 4
$T227259 = -328						; size = 4
$T227258 = -324						; size = 4
$T227257 = -320						; size = 4
$T227256 = -316						; size = 4
$T227255 = -312						; size = 4
$T226943 = -276						; size = 4
$T226927 = -272						; size = 4
$T227077 = -268						; size = 4
$T227076 = -264						; size = 4
$T227075 = -260						; size = 4
$T227074 = -256						; size = 4
$T227073 = -252						; size = 4
$T226861 = -248						; size = 4
$T226845 = -244						; size = 4
$T226895 = -240						; size = 4
$T226894 = -236						; size = 4
$T226893 = -232						; size = 4
$T226892 = -228						; size = 4
$T226891 = -224						; size = 4
$T226779 = -220						; size = 4
$T226763 = -216						; size = 4
$T226813 = -212						; size = 4
$T226812 = -208						; size = 4
$T226811 = -204						; size = 4
$T226810 = -200						; size = 4
$T226809 = -196						; size = 4
$T226697 = -192						; size = 4
$T226681 = -188						; size = 4
$T226731 = -184						; size = 4
$T226730 = -180						; size = 4
$T226729 = -176						; size = 4
$T226728 = -172						; size = 4
$T226727 = -168						; size = 4
$T226612 = -164						; size = 4
$T226596 = -160						; size = 4
$T226645 = -156						; size = 4
$T226644 = -152						; size = 4
$T226643 = -148						; size = 4
$T226642 = -144						; size = 4
$T226641 = -140						; size = 4
$T226530 = -136						; size = 4
$T226514 = -132						; size = 4
$T226563 = -128						; size = 4
$T226562 = -124						; size = 4
$T226561 = -120						; size = 4
$T226560 = -116						; size = 4
$T226559 = -112						; size = 4
_pkPromotionInfo$223751 = -108				; size = 4
_i$223747 = -104					; size = 4
_pkBuildingInfo$223742 = -100				; size = 4
_i$223738 = -96						; size = 4
_pkPolicyInfo$223733 = -92				; size = 4
_i$223729 = -88						; size = 4
_pkTechInfo$223724 = -84				; size = 4
_i$223720 = -80						; size = 4
_pkUnitInfo$223715 = -76				; size = 4
_i$223711 = -72						; size = 4
_pkImprovementInfo$223706 = -68				; size = 4
_i$223702 = -64						; size = 4
_pkResourceInfo$223697 = -60				; size = 4
_i$223693 = -56						; size = 4
_pkFeatureInfo$223688 = -52				; size = 4
_i$223684 = -48						; size = 4
_pkTerrainInfo$223679 = -44				; size = 4
_i$223675 = -40						; size = 4
_iPromotionCount$223746 = -36				; size = 4
_iPolicyCount$223728 = -32				; size = 4
_iTerrainTypeCount$223674 = -28				; size = 4
_iImprovementCount$223701 = -24				; size = 4
_iResourceCount$223692 = -20				; size = 4
_iBuildingCount$223737 = -16				; size = 4
_iFeatureCount$223683 = -12				; size = 4
_iTechCount$223719 = -8					; size = 4
_iUnitCount$223710 = -4					; size = 4
?InitTypeDesc@@YAXXZ PROC				; InitTypeDesc, COMDAT

; 30   : {

	push	ebp
	mov	ebp, esp
	sub	esp, 540				; 0000021cH

; 31   : 	//static bool bFirst = true;
; 32   : 	//if( bFirst ) // Do this every time as mod data may have changed.
; 33   : 	{
; 34   : 		sg_kMapTypeDesc.m_kTerrainTypes.Clear();

	mov	eax, DWORD PTR _sg_kMapTypeDesc+8
	mov	DWORD PTR $T226514[ebp], eax
	mov	ecx, DWORD PTR $T226514[ebp]
	mov	DWORD PTR $T226560[ebp], ecx
	mov	edx, DWORD PTR $T226560[ebp]
	mov	DWORD PTR $T226559[ebp], edx
	mov	eax, DWORD PTR _sg_kMapTypeDesc+4
	mov	DWORD PTR $T226530[ebp], eax
	mov	ecx, DWORD PTR $T226530[ebp]
	mov	DWORD PTR $T226562[ebp], ecx
	mov	edx, DWORD PTR $T226562[ebp]
	mov	DWORD PTR $T226561[ebp], edx
	mov	eax, DWORD PTR $T226559[ebp]
	push	eax
	mov	ecx, DWORD PTR $T226561[ebp]
	push	ecx
	lea	edx, DWORD PTR $T226563[ebp]
	push	edx
	mov	ecx, OFFSET _sg_kMapTypeDesc
	call	?erase@?$vector@VString@CvWorldBuilderMapTypeDesc@@V?$allocator@VString@CvWorldBuilderMapTypeDesc@@@std@@@std@@QAE?AV?$_Vector_iterator@VString@CvWorldBuilderMapTypeDesc@@V?$allocator@VString@CvWorldBuilderMapTypeDesc@@@std@@@2@V?$_Vector_const_iterator@VString@CvWorldBuilderMapTypeDesc@@V?$allocator@VString@CvWorldBuilderMapTypeDesc@@@std@@@2@0@Z ; std::vector<CvWorldBuilderMapTypeDesc::String,std::allocator<CvWorldBuilderMapTypeDesc::String> >::erase

; 35   : 		const int iTerrainTypeCount = GC.getNumTerrainInfos();

	mov	ecx, OFFSET ?gGlobals@@3VCvGlobals@@A	; gGlobals
	call	?getNumTerrainInfos@CvGlobals@@QAEHXZ	; CvGlobals::getNumTerrainInfos
	mov	DWORD PTR _iTerrainTypeCount$223674[ebp], eax

; 36   : 		for(int i = 0; i < iTerrainTypeCount; ++i)

	mov	DWORD PTR _i$223675[ebp], 0
	jmp	SHORT $LN45@InitTypeDe
$LN44@InitTypeDe:
	mov	eax, DWORD PTR _i$223675[ebp]
	add	eax, 1
	mov	DWORD PTR _i$223675[ebp], eax
$LN45@InitTypeDe:
	mov	ecx, DWORD PTR _i$223675[ebp]
	cmp	ecx, DWORD PTR _iTerrainTypeCount$223674[ebp]
	jge	SHORT $LN43@InitTypeDe

; 37   : 		{
; 38   : 			const CvTerrainInfo* pkTerrainInfo = GC.getTerrainInfo((TerrainTypes)i);

	mov	edx, DWORD PTR _i$223675[ebp]
	push	edx
	mov	ecx, OFFSET ?gGlobals@@3VCvGlobals@@A	; gGlobals
	call	?getTerrainInfo@CvGlobals@@QAEPAVCvTerrainInfo@@W4TerrainTypes@@@Z ; CvGlobals::getTerrainInfo
	mov	DWORD PTR _pkTerrainInfo$223679[ebp], eax

; 39   : 			if(pkTerrainInfo != NULL)

	cmp	DWORD PTR _pkTerrainInfo$223679[ebp], 0
	je	SHORT $LN42@InitTypeDe

; 40   : 			{
; 41   : 				sg_kMapTypeDesc.m_kTerrainTypes.Add( pkTerrainInfo->GetType() );

	mov	ecx, DWORD PTR _pkTerrainInfo$223679[ebp]
	add	ecx, 176				; 000000b0H
	call	DWORD PTR __imp_?c_str@?$basic_string@DU?$char_traits@D@std@@V?$allocator@D@2@@std@@QBEPBDXZ
	push	eax
	mov	ecx, OFFSET _sg_kMapTypeDesc
	call	?Add@TypeMap@CvWorldBuilderMapTypeDesc@@QAEIPBD@Z ; CvWorldBuilderMapTypeDesc::TypeMap::Add

; 42   : 			}
; 43   : 			else

	jmp	SHORT $LN41@InitTypeDe
$LN42@InitTypeDe:

; 44   : 			{
; 45   : 				sg_kMapTypeDesc.m_kTerrainTypes.Add( NULL );

	push	0
	mov	ecx, OFFSET _sg_kMapTypeDesc
	call	?Add@TypeMap@CvWorldBuilderMapTypeDesc@@QAEIPBD@Z ; CvWorldBuilderMapTypeDesc::TypeMap::Add
$LN41@InitTypeDe:

; 46   : 			}
; 47   : 		}

	jmp	SHORT $LN44@InitTypeDe
$LN43@InitTypeDe:

; 48   : 
; 49   : 		sg_kMapTypeDesc.m_kFeatures.Clear();

	mov	eax, DWORD PTR _sg_kMapTypeDesc+24
	mov	DWORD PTR $T226596[ebp], eax
	mov	ecx, DWORD PTR $T226596[ebp]
	mov	DWORD PTR $T226642[ebp], ecx
	mov	edx, DWORD PTR $T226642[ebp]
	mov	DWORD PTR $T226641[ebp], edx
	mov	eax, DWORD PTR _sg_kMapTypeDesc+20
	mov	DWORD PTR $T226612[ebp], eax
	mov	ecx, DWORD PTR $T226612[ebp]
	mov	DWORD PTR $T226644[ebp], ecx
	mov	edx, DWORD PTR $T226644[ebp]
	mov	DWORD PTR $T226643[ebp], edx
	mov	eax, DWORD PTR $T226641[ebp]
	push	eax
	mov	ecx, DWORD PTR $T226643[ebp]
	push	ecx
	lea	edx, DWORD PTR $T226645[ebp]
	push	edx
	mov	ecx, OFFSET _sg_kMapTypeDesc+16
	call	?erase@?$vector@VString@CvWorldBuilderMapTypeDesc@@V?$allocator@VString@CvWorldBuilderMapTypeDesc@@@std@@@std@@QAE?AV?$_Vector_iterator@VString@CvWorldBuilderMapTypeDesc@@V?$allocator@VString@CvWorldBuilderMapTypeDesc@@@std@@@2@V?$_Vector_const_iterator@VString@CvWorldBuilderMapTypeDesc@@V?$allocator@VString@CvWorldBuilderMapTypeDesc@@@std@@@2@0@Z ; std::vector<CvWorldBuilderMapTypeDesc::String,std::allocator<CvWorldBuilderMapTypeDesc::String> >::erase

; 50   : 		const int iFeatureCount = GC.getNumFeatureInfos();

	mov	ecx, OFFSET ?gGlobals@@3VCvGlobals@@A	; gGlobals
	call	?getNumFeatureInfos@CvGlobals@@QAEHXZ	; CvGlobals::getNumFeatureInfos
	mov	DWORD PTR _iFeatureCount$223683[ebp], eax

; 51   : 		for(int i = 0; i < iFeatureCount; ++i)

	mov	DWORD PTR _i$223684[ebp], 0
	jmp	SHORT $LN40@InitTypeDe
$LN39@InitTypeDe:
	mov	eax, DWORD PTR _i$223684[ebp]
	add	eax, 1
	mov	DWORD PTR _i$223684[ebp], eax
$LN40@InitTypeDe:
	mov	ecx, DWORD PTR _i$223684[ebp]
	cmp	ecx, DWORD PTR _iFeatureCount$223683[ebp]
	jge	SHORT $LN38@InitTypeDe

; 52   : 		{
; 53   : 			const CvFeatureInfo* pkFeatureInfo = GC.getFeatureInfo((FeatureTypes)i);

	mov	edx, DWORD PTR _i$223684[ebp]
	push	edx
	mov	ecx, OFFSET ?gGlobals@@3VCvGlobals@@A	; gGlobals
	call	?getFeatureInfo@CvGlobals@@QAEPAVCvFeatureInfo@@W4FeatureTypes@@@Z ; CvGlobals::getFeatureInfo
	mov	DWORD PTR _pkFeatureInfo$223688[ebp], eax

; 54   : 			if(pkFeatureInfo != NULL)

	cmp	DWORD PTR _pkFeatureInfo$223688[ebp], 0
	je	SHORT $LN37@InitTypeDe

; 55   : 			{
; 56   : 				sg_kMapTypeDesc.m_kFeatures.Add( pkFeatureInfo->GetType() );

	mov	ecx, DWORD PTR _pkFeatureInfo$223688[ebp]
	add	ecx, 176				; 000000b0H
	call	DWORD PTR __imp_?c_str@?$basic_string@DU?$char_traits@D@std@@V?$allocator@D@2@@std@@QBEPBDXZ
	push	eax
	mov	ecx, OFFSET _sg_kMapTypeDesc+16
	call	?Add@TypeMap@CvWorldBuilderMapTypeDesc@@QAEIPBD@Z ; CvWorldBuilderMapTypeDesc::TypeMap::Add

; 57   : 				sg_kMapTypeDesc.m_kNaturalWonders.Add( pkFeatureInfo->GetType() );

	mov	ecx, DWORD PTR _pkFeatureInfo$223688[ebp]
	add	ecx, 176				; 000000b0H
	call	DWORD PTR __imp_?c_str@?$basic_string@DU?$char_traits@D@std@@V?$allocator@D@2@@std@@QBEPBDXZ
	push	eax
	mov	ecx, OFFSET _sg_kMapTypeDesc+32
	call	?Add@TypeMap@CvWorldBuilderMapTypeDesc@@QAEIPBD@Z ; CvWorldBuilderMapTypeDesc::TypeMap::Add

; 58   : 			}
; 59   : 			else

	jmp	SHORT $LN36@InitTypeDe
$LN37@InitTypeDe:

; 60   : 			{
; 61   : 				sg_kMapTypeDesc.m_kFeatures.Add( NULL );

	push	0
	mov	ecx, OFFSET _sg_kMapTypeDesc+16
	call	?Add@TypeMap@CvWorldBuilderMapTypeDesc@@QAEIPBD@Z ; CvWorldBuilderMapTypeDesc::TypeMap::Add

; 62   : 				sg_kMapTypeDesc.m_kNaturalWonders.Add( NULL );

	push	0
	mov	ecx, OFFSET _sg_kMapTypeDesc+32
	call	?Add@TypeMap@CvWorldBuilderMapTypeDesc@@QAEIPBD@Z ; CvWorldBuilderMapTypeDesc::TypeMap::Add
$LN36@InitTypeDe:

; 63   : 			}
; 64   : 		}

	jmp	SHORT $LN39@InitTypeDe
$LN38@InitTypeDe:

; 65   : 
; 66   : 		sg_kMapTypeDesc.m_kResources.Clear();

	mov	eax, DWORD PTR _sg_kMapTypeDesc+56
	mov	DWORD PTR $T226681[ebp], eax
	mov	ecx, DWORD PTR $T226681[ebp]
	mov	DWORD PTR $T226728[ebp], ecx
	mov	edx, DWORD PTR $T226728[ebp]
	mov	DWORD PTR $T226727[ebp], edx
	mov	eax, DWORD PTR _sg_kMapTypeDesc+52
	mov	DWORD PTR $T226697[ebp], eax
	mov	ecx, DWORD PTR $T226697[ebp]
	mov	DWORD PTR $T226730[ebp], ecx
	mov	edx, DWORD PTR $T226730[ebp]
	mov	DWORD PTR $T226729[ebp], edx
	mov	eax, DWORD PTR $T226727[ebp]
	push	eax
	mov	ecx, DWORD PTR $T226729[ebp]
	push	ecx
	lea	edx, DWORD PTR $T226731[ebp]
	push	edx
	mov	ecx, OFFSET _sg_kMapTypeDesc+48
	call	?erase@?$vector@VString@CvWorldBuilderMapTypeDesc@@V?$allocator@VString@CvWorldBuilderMapTypeDesc@@@std@@@std@@QAE?AV?$_Vector_iterator@VString@CvWorldBuilderMapTypeDesc@@V?$allocator@VString@CvWorldBuilderMapTypeDesc@@@std@@@2@V?$_Vector_const_iterator@VString@CvWorldBuilderMapTypeDesc@@V?$allocator@VString@CvWorldBuilderMapTypeDesc@@@std@@@2@0@Z ; std::vector<CvWorldBuilderMapTypeDesc::String,std::allocator<CvWorldBuilderMapTypeDesc::String> >::erase

; 67   : 		const int iResourceCount = GC.getNumResourceInfos();

	mov	ecx, OFFSET ?gGlobals@@3VCvGlobals@@A	; gGlobals
	call	?getNumResourceInfos@CvGlobals@@QAEHXZ	; CvGlobals::getNumResourceInfos
	mov	DWORD PTR _iResourceCount$223692[ebp], eax

; 68   : 		for(int i = 0; i < iResourceCount; ++i)

	mov	DWORD PTR _i$223693[ebp], 0
	jmp	SHORT $LN35@InitTypeDe
$LN34@InitTypeDe:
	mov	eax, DWORD PTR _i$223693[ebp]
	add	eax, 1
	mov	DWORD PTR _i$223693[ebp], eax
$LN35@InitTypeDe:
	mov	ecx, DWORD PTR _i$223693[ebp]
	cmp	ecx, DWORD PTR _iResourceCount$223692[ebp]
	jge	SHORT $LN33@InitTypeDe

; 69   : 		{
; 70   : 			const CvResourceInfo* pkResourceInfo = GC.getResourceInfo((ResourceTypes)i);

	mov	edx, DWORD PTR _i$223693[ebp]
	push	edx
	mov	ecx, OFFSET ?gGlobals@@3VCvGlobals@@A	; gGlobals
	call	?getResourceInfo@CvGlobals@@QAEPAVCvResourceInfo@@W4ResourceTypes@@@Z ; CvGlobals::getResourceInfo
	mov	DWORD PTR _pkResourceInfo$223697[ebp], eax

; 71   : 			if(pkResourceInfo != NULL)

	cmp	DWORD PTR _pkResourceInfo$223697[ebp], 0
	je	SHORT $LN32@InitTypeDe

; 72   : 			{
; 73   : 				sg_kMapTypeDesc.m_kResources.Add( pkResourceInfo->GetType() );

	mov	ecx, DWORD PTR _pkResourceInfo$223697[ebp]
	add	ecx, 176				; 000000b0H
	call	DWORD PTR __imp_?c_str@?$basic_string@DU?$char_traits@D@std@@V?$allocator@D@2@@std@@QBEPBDXZ
	push	eax
	mov	ecx, OFFSET _sg_kMapTypeDesc+48
	call	?Add@TypeMap@CvWorldBuilderMapTypeDesc@@QAEIPBD@Z ; CvWorldBuilderMapTypeDesc::TypeMap::Add

; 74   : 			}
; 75   : 			else

	jmp	SHORT $LN31@InitTypeDe
$LN32@InitTypeDe:

; 76   : 			{
; 77   : 				sg_kMapTypeDesc.m_kResources.Add( NULL );

	push	0
	mov	ecx, OFFSET _sg_kMapTypeDesc+48
	call	?Add@TypeMap@CvWorldBuilderMapTypeDesc@@QAEIPBD@Z ; CvWorldBuilderMapTypeDesc::TypeMap::Add
$LN31@InitTypeDe:

; 78   : 			}
; 79   : 		}

	jmp	SHORT $LN34@InitTypeDe
$LN33@InitTypeDe:

; 80   : 
; 81   : 		sg_kMapTypeDesc.m_kImprovements.Clear();

	mov	eax, DWORD PTR _sg_kMapTypeDesc+72
	mov	DWORD PTR $T226763[ebp], eax
	mov	ecx, DWORD PTR $T226763[ebp]
	mov	DWORD PTR $T226810[ebp], ecx
	mov	edx, DWORD PTR $T226810[ebp]
	mov	DWORD PTR $T226809[ebp], edx
	mov	eax, DWORD PTR _sg_kMapTypeDesc+68
	mov	DWORD PTR $T226779[ebp], eax
	mov	ecx, DWORD PTR $T226779[ebp]
	mov	DWORD PTR $T226812[ebp], ecx
	mov	edx, DWORD PTR $T226812[ebp]
	mov	DWORD PTR $T226811[ebp], edx
	mov	eax, DWORD PTR $T226809[ebp]
	push	eax
	mov	ecx, DWORD PTR $T226811[ebp]
	push	ecx
	lea	edx, DWORD PTR $T226813[ebp]
	push	edx
	mov	ecx, OFFSET _sg_kMapTypeDesc+64
	call	?erase@?$vector@VString@CvWorldBuilderMapTypeDesc@@V?$allocator@VString@CvWorldBuilderMapTypeDesc@@@std@@@std@@QAE?AV?$_Vector_iterator@VString@CvWorldBuilderMapTypeDesc@@V?$allocator@VString@CvWorldBuilderMapTypeDesc@@@std@@@2@V?$_Vector_const_iterator@VString@CvWorldBuilderMapTypeDesc@@V?$allocator@VString@CvWorldBuilderMapTypeDesc@@@std@@@2@0@Z ; std::vector<CvWorldBuilderMapTypeDesc::String,std::allocator<CvWorldBuilderMapTypeDesc::String> >::erase

; 82   : 		const int iImprovementCount = GC.getNumImprovementInfos();

	mov	ecx, OFFSET ?gGlobals@@3VCvGlobals@@A	; gGlobals
	call	?getNumImprovementInfos@CvGlobals@@QAEHXZ ; CvGlobals::getNumImprovementInfos
	mov	DWORD PTR _iImprovementCount$223701[ebp], eax

; 83   : 		for(int i = 0; i < iImprovementCount; ++i)

	mov	DWORD PTR _i$223702[ebp], 0
	jmp	SHORT $LN30@InitTypeDe
$LN29@InitTypeDe:
	mov	eax, DWORD PTR _i$223702[ebp]
	add	eax, 1
	mov	DWORD PTR _i$223702[ebp], eax
$LN30@InitTypeDe:
	mov	ecx, DWORD PTR _i$223702[ebp]
	cmp	ecx, DWORD PTR _iImprovementCount$223701[ebp]
	jge	SHORT $LN28@InitTypeDe

; 84   : 		{
; 85   : 			const CvImprovementEntry* pkImprovementInfo = GC.getImprovementInfo((ImprovementTypes)i);

	mov	edx, DWORD PTR _i$223702[ebp]
	push	edx
	mov	ecx, OFFSET ?gGlobals@@3VCvGlobals@@A	; gGlobals
	call	?getImprovementInfo@CvGlobals@@QAEPAVCvImprovementEntry@@W4ImprovementTypes@@@Z ; CvGlobals::getImprovementInfo
	mov	DWORD PTR _pkImprovementInfo$223706[ebp], eax

; 86   : 			if(pkImprovementInfo != NULL)

	cmp	DWORD PTR _pkImprovementInfo$223706[ebp], 0
	je	SHORT $LN27@InitTypeDe

; 87   : 			{
; 88   : 				sg_kMapTypeDesc.m_kImprovements.Add( pkImprovementInfo->GetType() );

	mov	ecx, DWORD PTR _pkImprovementInfo$223706[ebp]
	add	ecx, 176				; 000000b0H
	call	DWORD PTR __imp_?c_str@?$basic_string@DU?$char_traits@D@std@@V?$allocator@D@2@@std@@QBEPBDXZ
	push	eax
	mov	ecx, OFFSET _sg_kMapTypeDesc+64
	call	?Add@TypeMap@CvWorldBuilderMapTypeDesc@@QAEIPBD@Z ; CvWorldBuilderMapTypeDesc::TypeMap::Add

; 89   : 			}
; 90   : 			else

	jmp	SHORT $LN26@InitTypeDe
$LN27@InitTypeDe:

; 91   : 			{
; 92   : 				sg_kMapTypeDesc.m_kImprovements.Add( NULL );

	push	0
	mov	ecx, OFFSET _sg_kMapTypeDesc+64
	call	?Add@TypeMap@CvWorldBuilderMapTypeDesc@@QAEIPBD@Z ; CvWorldBuilderMapTypeDesc::TypeMap::Add
$LN26@InitTypeDe:

; 93   : 			}
; 94   : 		}

	jmp	SHORT $LN29@InitTypeDe
$LN28@InitTypeDe:

; 95   : 
; 96   : 		sg_kMapTypeDesc.m_kUnits.Clear();

	mov	eax, DWORD PTR _sg_kMapTypeDesc+88
	mov	DWORD PTR $T226845[ebp], eax
	mov	ecx, DWORD PTR $T226845[ebp]
	mov	DWORD PTR $T226892[ebp], ecx
	mov	edx, DWORD PTR $T226892[ebp]
	mov	DWORD PTR $T226891[ebp], edx
	mov	eax, DWORD PTR _sg_kMapTypeDesc+84
	mov	DWORD PTR $T226861[ebp], eax
	mov	ecx, DWORD PTR $T226861[ebp]
	mov	DWORD PTR $T226894[ebp], ecx
	mov	edx, DWORD PTR $T226894[ebp]
	mov	DWORD PTR $T226893[ebp], edx
	mov	eax, DWORD PTR $T226891[ebp]
	push	eax
	mov	ecx, DWORD PTR $T226893[ebp]
	push	ecx
	lea	edx, DWORD PTR $T226895[ebp]
	push	edx
	mov	ecx, OFFSET _sg_kMapTypeDesc+80
	call	?erase@?$vector@VString@CvWorldBuilderMapTypeDesc@@V?$allocator@VString@CvWorldBuilderMapTypeDesc@@@std@@@std@@QAE?AV?$_Vector_iterator@VString@CvWorldBuilderMapTypeDesc@@V?$allocator@VString@CvWorldBuilderMapTypeDesc@@@std@@@2@V?$_Vector_const_iterator@VString@CvWorldBuilderMapTypeDesc@@V?$allocator@VString@CvWorldBuilderMapTypeDesc@@@std@@@2@0@Z ; std::vector<CvWorldBuilderMapTypeDesc::String,std::allocator<CvWorldBuilderMapTypeDesc::String> >::erase

; 97   : 		const int iUnitCount = GC.getNumUnitInfos();

	mov	ecx, OFFSET ?gGlobals@@3VCvGlobals@@A	; gGlobals
	call	?getNumUnitInfos@CvGlobals@@QAEHXZ	; CvGlobals::getNumUnitInfos
	mov	DWORD PTR _iUnitCount$223710[ebp], eax

; 98   : 		for(int i = 0; i < iUnitCount; ++i)

	mov	DWORD PTR _i$223711[ebp], 0
	jmp	SHORT $LN25@InitTypeDe
$LN24@InitTypeDe:
	mov	eax, DWORD PTR _i$223711[ebp]
	add	eax, 1
	mov	DWORD PTR _i$223711[ebp], eax
$LN25@InitTypeDe:
	mov	ecx, DWORD PTR _i$223711[ebp]
	cmp	ecx, DWORD PTR _iUnitCount$223710[ebp]
	jge	SHORT $LN23@InitTypeDe

; 99   : 		{
; 100  : 			const CvUnitEntry* pkUnitInfo = GC.getUnitInfo((UnitTypes)i);

	mov	edx, DWORD PTR _i$223711[ebp]
	push	edx
	mov	ecx, OFFSET ?gGlobals@@3VCvGlobals@@A	; gGlobals
	call	?getUnitInfo@CvGlobals@@QAEPAVCvUnitEntry@@W4UnitTypes@@@Z ; CvGlobals::getUnitInfo
	mov	DWORD PTR _pkUnitInfo$223715[ebp], eax

; 101  : 			if(pkUnitInfo != NULL)

	cmp	DWORD PTR _pkUnitInfo$223715[ebp], 0
	je	SHORT $LN22@InitTypeDe

; 102  : 			{
; 103  : 				sg_kMapTypeDesc.m_kUnits.Add( pkUnitInfo->GetType() );

	mov	ecx, DWORD PTR _pkUnitInfo$223715[ebp]
	add	ecx, 176				; 000000b0H
	call	DWORD PTR __imp_?c_str@?$basic_string@DU?$char_traits@D@std@@V?$allocator@D@2@@std@@QBEPBDXZ
	push	eax
	mov	ecx, OFFSET _sg_kMapTypeDesc+80
	call	?Add@TypeMap@CvWorldBuilderMapTypeDesc@@QAEIPBD@Z ; CvWorldBuilderMapTypeDesc::TypeMap::Add

; 104  : 			}
; 105  : 			else

	jmp	SHORT $LN21@InitTypeDe
$LN22@InitTypeDe:

; 106  : 			{
; 107  : 				sg_kMapTypeDesc.m_kUnits.Add( NULL );

	push	0
	mov	ecx, OFFSET _sg_kMapTypeDesc+80
	call	?Add@TypeMap@CvWorldBuilderMapTypeDesc@@QAEIPBD@Z ; CvWorldBuilderMapTypeDesc::TypeMap::Add
$LN21@InitTypeDe:

; 108  : 			}
; 109  : 		}

	jmp	SHORT $LN24@InitTypeDe
$LN23@InitTypeDe:

; 110  : 
; 111  : 		sg_kMapTypeDesc.m_kTechs.Clear();

	mov	eax, DWORD PTR _sg_kMapTypeDesc+120
	mov	DWORD PTR $T226927[ebp], eax
	mov	ecx, DWORD PTR $T226927[ebp]
	mov	DWORD PTR $T227074[ebp], ecx
	mov	edx, DWORD PTR $T227074[ebp]
	mov	DWORD PTR $T227073[ebp], edx
	mov	eax, DWORD PTR _sg_kMapTypeDesc+116
	mov	DWORD PTR $T226943[ebp], eax
	mov	ecx, DWORD PTR $T226943[ebp]
	mov	DWORD PTR $T227076[ebp], ecx
	mov	edx, DWORD PTR $T227076[ebp]
	mov	DWORD PTR $T227075[ebp], edx
	mov	eax, DWORD PTR $T227073[ebp]
	push	eax
	mov	ecx, DWORD PTR $T227075[ebp]
	push	ecx
	lea	edx, DWORD PTR $T227077[ebp]
	push	edx
	mov	ecx, OFFSET _sg_kMapTypeDesc+112
	call	?erase@?$vector@VString@CvWorldBuilderMapTypeDesc@@V?$allocator@VString@CvWorldBuilderMapTypeDesc@@@std@@@std@@QAE?AV?$_Vector_iterator@VString@CvWorldBuilderMapTypeDesc@@V?$allocator@VString@CvWorldBuilderMapTypeDesc@@@std@@@2@V?$_Vector_const_iterator@VString@CvWorldBuilderMapTypeDesc@@V?$allocator@VString@CvWorldBuilderMapTypeDesc@@@std@@@2@0@Z ; std::vector<CvWorldBuilderMapTypeDesc::String,std::allocator<CvWorldBuilderMapTypeDesc::String> >::erase

; 112  : 		const int iTechCount = GC.getNumTechInfos();

	mov	ecx, OFFSET ?gGlobals@@3VCvGlobals@@A	; gGlobals
	call	?getNumTechInfos@CvGlobals@@QAEHXZ	; CvGlobals::getNumTechInfos
	mov	DWORD PTR _iTechCount$223719[ebp], eax

; 113  : 		for(int i = 0; i < iTechCount; ++i)

	mov	DWORD PTR _i$223720[ebp], 0
	jmp	SHORT $LN20@InitTypeDe
$LN19@InitTypeDe:
	mov	eax, DWORD PTR _i$223720[ebp]
	add	eax, 1
	mov	DWORD PTR _i$223720[ebp], eax
$LN20@InitTypeDe:
	mov	ecx, DWORD PTR _i$223720[ebp]
	cmp	ecx, DWORD PTR _iTechCount$223719[ebp]
	jge	SHORT $LN18@InitTypeDe

; 114  : 		{
; 115  : 			const CvTechEntry* pkTechInfo = GC.getTechInfo((TechTypes)i);

	mov	edx, DWORD PTR _i$223720[ebp]
	push	edx
	mov	ecx, OFFSET ?gGlobals@@3VCvGlobals@@A	; gGlobals
	call	?getTechInfo@CvGlobals@@QAEPAVCvTechEntry@@W4TechTypes@@@Z ; CvGlobals::getTechInfo
	mov	DWORD PTR _pkTechInfo$223724[ebp], eax

; 116  : 			if(pkTechInfo != NULL)

	cmp	DWORD PTR _pkTechInfo$223724[ebp], 0
	je	SHORT $LN17@InitTypeDe

; 117  : 			{
; 118  : 				sg_kMapTypeDesc.m_kTechs.Add( pkTechInfo->GetType() );

	mov	ecx, DWORD PTR _pkTechInfo$223724[ebp]
	add	ecx, 176				; 000000b0H
	call	DWORD PTR __imp_?c_str@?$basic_string@DU?$char_traits@D@std@@V?$allocator@D@2@@std@@QBEPBDXZ
	push	eax
	mov	ecx, OFFSET _sg_kMapTypeDesc+112
	call	?Add@TypeMap@CvWorldBuilderMapTypeDesc@@QAEIPBD@Z ; CvWorldBuilderMapTypeDesc::TypeMap::Add

; 119  : 			}
; 120  : 			else

	jmp	SHORT $LN16@InitTypeDe
$LN17@InitTypeDe:

; 121  : 			{
; 122  : 				sg_kMapTypeDesc.m_kTechs.Add( NULL );

	push	0
	mov	ecx, OFFSET _sg_kMapTypeDesc+112
	call	?Add@TypeMap@CvWorldBuilderMapTypeDesc@@QAEIPBD@Z ; CvWorldBuilderMapTypeDesc::TypeMap::Add
$LN16@InitTypeDe:

; 123  : 			}
; 124  : 		}

	jmp	SHORT $LN19@InitTypeDe
$LN18@InitTypeDe:

; 125  : 
; 126  : 		sg_kMapTypeDesc.m_kPolicies.Clear();

	mov	eax, DWORD PTR _sg_kMapTypeDesc+136
	mov	DWORD PTR $T227109[ebp], eax
	mov	ecx, DWORD PTR $T227109[ebp]
	mov	DWORD PTR $T227256[ebp], ecx
	mov	edx, DWORD PTR $T227256[ebp]
	mov	DWORD PTR $T227255[ebp], edx
	mov	eax, DWORD PTR _sg_kMapTypeDesc+132
	mov	DWORD PTR $T227125[ebp], eax
	mov	ecx, DWORD PTR $T227125[ebp]
	mov	DWORD PTR $T227258[ebp], ecx
	mov	edx, DWORD PTR $T227258[ebp]
	mov	DWORD PTR $T227257[ebp], edx
	mov	eax, DWORD PTR $T227255[ebp]
	push	eax
	mov	ecx, DWORD PTR $T227257[ebp]
	push	ecx
	lea	edx, DWORD PTR $T227259[ebp]
	push	edx
	mov	ecx, OFFSET _sg_kMapTypeDesc+128
	call	?erase@?$vector@VString@CvWorldBuilderMapTypeDesc@@V?$allocator@VString@CvWorldBuilderMapTypeDesc@@@std@@@std@@QAE?AV?$_Vector_iterator@VString@CvWorldBuilderMapTypeDesc@@V?$allocator@VString@CvWorldBuilderMapTypeDesc@@@std@@@2@V?$_Vector_const_iterator@VString@CvWorldBuilderMapTypeDesc@@V?$allocator@VString@CvWorldBuilderMapTypeDesc@@@std@@@2@0@Z ; std::vector<CvWorldBuilderMapTypeDesc::String,std::allocator<CvWorldBuilderMapTypeDesc::String> >::erase

; 127  : 		const int iPolicyCount = GC.getNumPolicyInfos();

	mov	ecx, OFFSET ?gGlobals@@3VCvGlobals@@A	; gGlobals
	call	?getNumPolicyInfos@CvGlobals@@QAEHXZ	; CvGlobals::getNumPolicyInfos
	mov	DWORD PTR _iPolicyCount$223728[ebp], eax

; 128  : 		for(int i = 0; i < iPolicyCount; ++i)

	mov	DWORD PTR _i$223729[ebp], 0
	jmp	SHORT $LN15@InitTypeDe
$LN14@InitTypeDe:
	mov	eax, DWORD PTR _i$223729[ebp]
	add	eax, 1
	mov	DWORD PTR _i$223729[ebp], eax
$LN15@InitTypeDe:
	mov	ecx, DWORD PTR _i$223729[ebp]
	cmp	ecx, DWORD PTR _iPolicyCount$223728[ebp]
	jge	SHORT $LN13@InitTypeDe

; 129  : 		{
; 130  : 			const CvPolicyEntry* pkPolicyInfo = GC.getPolicyInfo((PolicyTypes)i);

	mov	edx, DWORD PTR _i$223729[ebp]
	push	edx
	mov	ecx, OFFSET ?gGlobals@@3VCvGlobals@@A	; gGlobals
	call	?getPolicyInfo@CvGlobals@@QAEPAVCvPolicyEntry@@W4PolicyTypes@@@Z ; CvGlobals::getPolicyInfo
	mov	DWORD PTR _pkPolicyInfo$223733[ebp], eax

; 131  : 			if(pkPolicyInfo != NULL)

	cmp	DWORD PTR _pkPolicyInfo$223733[ebp], 0
	je	SHORT $LN12@InitTypeDe

; 132  : 			{
; 133  : 				sg_kMapTypeDesc.m_kPolicies.Add( pkPolicyInfo->GetType() );

	mov	ecx, DWORD PTR _pkPolicyInfo$223733[ebp]
	add	ecx, 176				; 000000b0H
	call	DWORD PTR __imp_?c_str@?$basic_string@DU?$char_traits@D@std@@V?$allocator@D@2@@std@@QBEPBDXZ
	push	eax
	mov	ecx, OFFSET _sg_kMapTypeDesc+128
	call	?Add@TypeMap@CvWorldBuilderMapTypeDesc@@QAEIPBD@Z ; CvWorldBuilderMapTypeDesc::TypeMap::Add

; 134  : 			}
; 135  : 			else

	jmp	SHORT $LN11@InitTypeDe
$LN12@InitTypeDe:

; 136  : 			{
; 137  : 				sg_kMapTypeDesc.m_kPolicies.Add( NULL );

	push	0
	mov	ecx, OFFSET _sg_kMapTypeDesc+128
	call	?Add@TypeMap@CvWorldBuilderMapTypeDesc@@QAEIPBD@Z ; CvWorldBuilderMapTypeDesc::TypeMap::Add
$LN11@InitTypeDe:

; 138  : 			}
; 139  : 		}

	jmp	SHORT $LN14@InitTypeDe
$LN13@InitTypeDe:

; 140  : 
; 141  : 		sg_kMapTypeDesc.m_kBuildingTypes.Clear();

	mov	eax, DWORD PTR _sg_kMapTypeDesc+104
	mov	DWORD PTR $T227291[ebp], eax
	mov	ecx, DWORD PTR $T227291[ebp]
	mov	DWORD PTR $T227462[ebp], ecx
	mov	edx, DWORD PTR $T227462[ebp]
	mov	DWORD PTR $T227461[ebp], edx
	mov	eax, DWORD PTR _sg_kMapTypeDesc+100
	mov	DWORD PTR $T227307[ebp], eax
	mov	ecx, DWORD PTR $T227307[ebp]
	mov	DWORD PTR $T227464[ebp], ecx
	mov	edx, DWORD PTR $T227464[ebp]
	mov	DWORD PTR $T227463[ebp], edx
	mov	eax, DWORD PTR $T227461[ebp]
	push	eax
	mov	ecx, DWORD PTR $T227463[ebp]
	push	ecx
	lea	edx, DWORD PTR $T227465[ebp]
	push	edx
	mov	ecx, OFFSET _sg_kMapTypeDesc+96
	call	?erase@?$vector@VString@CvWorldBuilderMapTypeDesc@@V?$allocator@VString@CvWorldBuilderMapTypeDesc@@@std@@@std@@QAE?AV?$_Vector_iterator@VString@CvWorldBuilderMapTypeDesc@@V?$allocator@VString@CvWorldBuilderMapTypeDesc@@@std@@@2@V?$_Vector_const_iterator@VString@CvWorldBuilderMapTypeDesc@@V?$allocator@VString@CvWorldBuilderMapTypeDesc@@@std@@@2@0@Z ; std::vector<CvWorldBuilderMapTypeDesc::String,std::allocator<CvWorldBuilderMapTypeDesc::String> >::erase

; 142  : 		const int iBuildingCount = GC.getNumBuildingInfos();

	mov	ecx, OFFSET ?gGlobals@@3VCvGlobals@@A	; gGlobals
	call	?getNumBuildingInfos@CvGlobals@@QAEHXZ	; CvGlobals::getNumBuildingInfos
	mov	DWORD PTR _iBuildingCount$223737[ebp], eax

; 143  : 		for(int i = 0; i < iBuildingCount; ++i)

	mov	DWORD PTR _i$223738[ebp], 0
	jmp	SHORT $LN10@InitTypeDe
$LN9@InitTypeDe:
	mov	eax, DWORD PTR _i$223738[ebp]
	add	eax, 1
	mov	DWORD PTR _i$223738[ebp], eax
$LN10@InitTypeDe:
	mov	ecx, DWORD PTR _i$223738[ebp]
	cmp	ecx, DWORD PTR _iBuildingCount$223737[ebp]
	jge	SHORT $LN8@InitTypeDe

; 144  : 		{
; 145  : 			const CvBuildingEntry* pkBuildingInfo = GC.getBuildingInfo((BuildingTypes)i);

	mov	edx, DWORD PTR _i$223738[ebp]
	push	edx
	mov	ecx, OFFSET ?gGlobals@@3VCvGlobals@@A	; gGlobals
	call	?getBuildingInfo@CvGlobals@@QAEPAVCvBuildingEntry@@W4BuildingTypes@@@Z ; CvGlobals::getBuildingInfo
	mov	DWORD PTR _pkBuildingInfo$223742[ebp], eax

; 146  : 			if(pkBuildingInfo != NULL)

	cmp	DWORD PTR _pkBuildingInfo$223742[ebp], 0
	je	SHORT $LN7@InitTypeDe

; 147  : 			{
; 148  : 				sg_kMapTypeDesc.m_kBuildingTypes.Add( pkBuildingInfo->GetType() );

	mov	ecx, DWORD PTR _pkBuildingInfo$223742[ebp]
	add	ecx, 176				; 000000b0H
	call	DWORD PTR __imp_?c_str@?$basic_string@DU?$char_traits@D@std@@V?$allocator@D@2@@std@@QBEPBDXZ
	push	eax
	mov	ecx, OFFSET _sg_kMapTypeDesc+96
	call	?Add@TypeMap@CvWorldBuilderMapTypeDesc@@QAEIPBD@Z ; CvWorldBuilderMapTypeDesc::TypeMap::Add

; 149  : 			}
; 150  : 			else

	jmp	SHORT $LN6@InitTypeDe
$LN7@InitTypeDe:

; 151  : 			{
; 152  : 				sg_kMapTypeDesc.m_kBuildingTypes.Add( NULL );

	push	0
	mov	ecx, OFFSET _sg_kMapTypeDesc+96
	call	?Add@TypeMap@CvWorldBuilderMapTypeDesc@@QAEIPBD@Z ; CvWorldBuilderMapTypeDesc::TypeMap::Add
$LN6@InitTypeDe:

; 153  : 			}
; 154  : 		}

	jmp	SHORT $LN9@InitTypeDe
$LN8@InitTypeDe:

; 155  : 
; 156  : 		sg_kMapTypeDesc.m_kUnitPromotions.Clear();

	mov	eax, DWORD PTR _sg_kMapTypeDesc+152
	mov	DWORD PTR $T227499[ebp], eax
	mov	ecx, DWORD PTR $T227499[ebp]
	mov	DWORD PTR $T227686[ebp], ecx
	mov	edx, DWORD PTR $T227686[ebp]
	mov	DWORD PTR $T227685[ebp], edx
	mov	eax, DWORD PTR _sg_kMapTypeDesc+148
	mov	DWORD PTR $T227515[ebp], eax
	mov	ecx, DWORD PTR $T227515[ebp]
	mov	DWORD PTR $T227688[ebp], ecx
	mov	edx, DWORD PTR $T227688[ebp]
	mov	DWORD PTR $T227687[ebp], edx
	mov	eax, DWORD PTR $T227685[ebp]
	push	eax
	mov	ecx, DWORD PTR $T227687[ebp]
	push	ecx
	lea	edx, DWORD PTR $T227689[ebp]
	push	edx
	mov	ecx, OFFSET _sg_kMapTypeDesc+144
	call	?erase@?$vector@VString@CvWorldBuilderMapTypeDesc@@V?$allocator@VString@CvWorldBuilderMapTypeDesc@@@std@@@std@@QAE?AV?$_Vector_iterator@VString@CvWorldBuilderMapTypeDesc@@V?$allocator@VString@CvWorldBuilderMapTypeDesc@@@std@@@2@V?$_Vector_const_iterator@VString@CvWorldBuilderMapTypeDesc@@V?$allocator@VString@CvWorldBuilderMapTypeDesc@@@std@@@2@0@Z ; std::vector<CvWorldBuilderMapTypeDesc::String,std::allocator<CvWorldBuilderMapTypeDesc::String> >::erase

; 157  : 		const int iPromotionCount = GC.getNumPromotionInfos();

	mov	ecx, OFFSET ?gGlobals@@3VCvGlobals@@A	; gGlobals
	call	?getNumPromotionInfos@CvGlobals@@QAEHXZ	; CvGlobals::getNumPromotionInfos
	mov	DWORD PTR _iPromotionCount$223746[ebp], eax

; 158  : 		for(int i = 0; i < iPromotionCount; ++i)

	mov	DWORD PTR _i$223747[ebp], 0
	jmp	SHORT $LN5@InitTypeDe
$LN4@InitTypeDe:
	mov	eax, DWORD PTR _i$223747[ebp]
	add	eax, 1
	mov	DWORD PTR _i$223747[ebp], eax
$LN5@InitTypeDe:
	mov	ecx, DWORD PTR _i$223747[ebp]
	cmp	ecx, DWORD PTR _iPromotionCount$223746[ebp]
	jge	SHORT $LN46@InitTypeDe

; 159  : 		{
; 160  : 			const CvPromotionEntry* pkPromotionInfo = GC.getPromotionInfo((PromotionTypes)i);

	mov	edx, DWORD PTR _i$223747[ebp]
	push	edx
	mov	ecx, OFFSET ?gGlobals@@3VCvGlobals@@A	; gGlobals
	call	?getPromotionInfo@CvGlobals@@QAEPAVCvPromotionEntry@@W4PromotionTypes@@@Z ; CvGlobals::getPromotionInfo
	mov	DWORD PTR _pkPromotionInfo$223751[ebp], eax

; 161  : 			if(pkPromotionInfo != NULL)

	cmp	DWORD PTR _pkPromotionInfo$223751[ebp], 0
	je	SHORT $LN2@InitTypeDe

; 162  : 			{
; 163  : 				sg_kMapTypeDesc.m_kUnitPromotions.Add( pkPromotionInfo->GetType() );

	mov	ecx, DWORD PTR _pkPromotionInfo$223751[ebp]
	add	ecx, 176				; 000000b0H
	call	DWORD PTR __imp_?c_str@?$basic_string@DU?$char_traits@D@std@@V?$allocator@D@2@@std@@QBEPBDXZ
	push	eax
	mov	ecx, OFFSET _sg_kMapTypeDesc+144
	call	?Add@TypeMap@CvWorldBuilderMapTypeDesc@@QAEIPBD@Z ; CvWorldBuilderMapTypeDesc::TypeMap::Add

; 164  : 			}
; 165  : 			else

	jmp	SHORT $LN1@InitTypeDe
$LN2@InitTypeDe:

; 166  : 			{
; 167  : 				sg_kMapTypeDesc.m_kUnitPromotions.Add( NULL );

	push	0
	mov	ecx, OFFSET _sg_kMapTypeDesc+144
	call	?Add@TypeMap@CvWorldBuilderMapTypeDesc@@QAEIPBD@Z ; CvWorldBuilderMapTypeDesc::TypeMap::Add
$LN1@InitTypeDe:

; 168  : 			}
; 169  : 		}

	jmp	SHORT $LN4@InitTypeDe
$LN46@InitTypeDe:

; 170  : 
; 171  : 		//bFirst = false;
; 172  : 	}
; 173  : }

	mov	esp, ebp
	pop	ebp
	ret	0
?InitTypeDesc@@YAXXZ ENDP				; InitTypeDesc
_TEXT	ENDS
PUBLIC	?GetCurrentMapInfo@CvWorldBuilderMapLoader@@SAABUCvWorldBuilderMapLoaderMapInfo@@XZ ; CvWorldBuilderMapLoader::GetCurrentMapInfo
; Function compile flags: /Odtp
;	COMDAT ?GetCurrentMapInfo@CvWorldBuilderMapLoader@@SAABUCvWorldBuilderMapLoaderMapInfo@@XZ
_TEXT	SEGMENT
?GetCurrentMapInfo@CvWorldBuilderMapLoader@@SAABUCvWorldBuilderMapLoaderMapInfo@@XZ PROC ; CvWorldBuilderMapLoader::GetCurrentMapInfo, COMDAT

; 176  : {

	push	ebp
	mov	ebp, esp

; 177  : 	return sg_kMapInfo;

	mov	eax, OFFSET _sg_kMapInfo

; 178  : }

	pop	ebp
	ret	0
?GetCurrentMapInfo@CvWorldBuilderMapLoader@@SAABUCvWorldBuilderMapLoaderMapInfo@@XZ ENDP ; CvWorldBuilderMapLoader::GetCurrentMapInfo
_TEXT	ENDS
PUBLIC	?Preload@CvWorldBuilderMapLoader@@SA_NPB_W_N@Z	; CvWorldBuilderMapLoader::Preload
EXTRN	?SwapPlayers@CvWorldBuilderMap@@QAEXEE@Z:PROC	; CvWorldBuilderMap::SwapPlayers
EXTRN	?sm_kErrorPlotMapData@CvWorldBuilderMap@@0VPlotMapData@1@A:QWORD ; CvWorldBuilderMap::sm_kErrorPlotMapData
EXTRN	?IsGoody@CvImprovementEntry@@QBE_NXZ:PROC	; CvImprovementEntry::IsGoody
EXTRN	?sm_kErrorPlotScenarioData@CvWorldBuilderMap@@0UPlotScenarioData@1@A:QWORD ; CvWorldBuilderMap::sm_kErrorPlotScenarioData
EXTRN	?ClearScenarioData@CvWorldBuilderMap@@QAEX_N@Z:PROC ; CvWorldBuilderMap::ClearScenarioData
EXTRN	?Load@CvWorldBuilderMap@@QAE_NPB_WABVCvWorldBuilderMapTypeDesc@@_N@Z:PROC ; CvWorldBuilderMap::Load
_BSS	SEGMENT
_sg_auiPlayerSlots DD 03fH DUP (?)
; Function compile flags: /Odtp
_BSS	ENDS
;	COMDAT ?Preload@CvWorldBuilderMapLoader@@SA_NPB_W_N@Z
_TEXT	SEGMENT
tv73 = -68						; size = 4
$T227765 = -63						; size = 1
$T227744 = -62						; size = 1
$T227740 = -61						; size = 1
$T227736 = -60						; size = 4
$T227732 = -56						; size = 4
$T227711 = -52						; size = 4
$T227710 = -48						; size = 4
_j$223797 = -44						; size = 4
_uiNew$223794 = -40					; size = 4
_i$223790 = -36						; size = 4
_kPlotData$223784 = -32					; size = 4
_i$223780 = -28						; size = 4
_pkImprovement$223777 = -24				; size = 4
_eType$223775 = -20					; size = 4
_kPlot$223773 = -16					; size = 4
_i$223769 = -12						; size = 4
_uiPlotCount$223767 = -8				; size = 4
_uiPlayerCount$223788 = -4				; size = 4
_wszFilename$ = 8					; size = 4
_bScenario$ = 12					; size = 1
?Preload@CvWorldBuilderMapLoader@@SA_NPB_W_N@Z PROC	; CvWorldBuilderMapLoader::Preload, COMDAT

; 185  : {

	push	ebp
	mov	ebp, esp
	sub	esp, 68					; 00000044H

; 186  : 	InitTypeDesc();

	call	?InitTypeDesc@@YAXXZ			; InitTypeDesc

; 187  : 
; 188  : 	// Re-initialize map info
; 189  : 	new(&sg_kMapInfo)CvWorldBuilderMapLoaderMapInfo();

	mov	DWORD PTR $T227711[ebp], OFFSET _sg_kMapInfo
	cmp	DWORD PTR $T227711[ebp], 0
	je	SHORT $LN28@Preload
	mov	eax, DWORD PTR $T227711[ebp]
	mov	DWORD PTR [eax], 0
	mov	ecx, DWORD PTR $T227711[ebp]
	mov	DWORD PTR [ecx+4], 0
	mov	edx, DWORD PTR $T227711[ebp]
	mov	DWORD PTR [edx+8], 0
	mov	eax, DWORD PTR $T227711[ebp]
	mov	DWORD PTR [eax+12], 0
	mov	ecx, DWORD PTR $T227711[ebp]
	mov	DWORD PTR [ecx+16], 0
	mov	edx, DWORD PTR $T227711[ebp]
	mov	DWORD PTR [edx+20], 0
	mov	eax, DWORD PTR $T227711[ebp]
	mov	BYTE PTR [eax+24], 0
	mov	ecx, DWORD PTR $T227711[ebp]
	mov	BYTE PTR [ecx+25], 0
	mov	edx, DWORD PTR $T227711[ebp]
	mov	DWORD PTR tv73[ebp], edx
	jmp	SHORT $LN29@Preload
$LN28@Preload:
	mov	DWORD PTR tv73[ebp], 0
$LN29@Preload:
	mov	eax, DWORD PTR tv73[ebp]
	mov	DWORD PTR $T227710[ebp], eax

; 190  : 
; 191  : 	if(sg_kSave.Load(wszFilename, sg_kMapTypeDesc))

	push	1
	push	OFFSET _sg_kMapTypeDesc
	mov	ecx, DWORD PTR _wszFilename$[ebp]
	push	ecx
	mov	ecx, OFFSET _sg_kSave
	call	?Load@CvWorldBuilderMap@@QAE_NPB_WABVCvWorldBuilderMapTypeDesc@@_N@Z ; CvWorldBuilderMap::Load
	movzx	edx, al
	test	edx, edx
	je	$LN25@Preload

; 192  : 	{
; 193  : 		const uint uiPlotCount = sg_kSave.GetPlotCount();

	mov	eax, DWORD PTR _sg_kSave+12228
	imul	eax, DWORD PTR _sg_kSave+12232
	mov	DWORD PTR _uiPlotCount$223767[ebp], eax

; 194  : 
; 195  : 		if(!bScenario)

	movzx	ecx, BYTE PTR _bScenario$[ebp]
	test	ecx, ecx
	jne	$LN24@Preload

; 196  : 		{
; 197  : 			// Clear out all of the scenario data (except improvements)
; 198  : 			sg_kSave.ClearScenarioData(true);

	push	1
	mov	ecx, OFFSET _sg_kSave
	call	?ClearScenarioData@CvWorldBuilderMap@@QAEX_N@Z ; CvWorldBuilderMap::ClearScenarioData

; 199  : 
; 200  : 			// Remove all improvements that aren't goodies
; 201  : 			for(uint i = 0; i < uiPlotCount; ++i)

	mov	DWORD PTR _i$223769[ebp], 0
	jmp	SHORT $LN23@Preload
$LN22@Preload:
	mov	edx, DWORD PTR _i$223769[ebp]
	add	edx, 1
	mov	DWORD PTR _i$223769[ebp], edx
$LN23@Preload:
	mov	eax, DWORD PTR _i$223769[ebp]
	cmp	eax, DWORD PTR _uiPlotCount$223767[ebp]
	jae	SHORT $LN24@Preload

; 202  : 			{
; 203  : 				CvWorldBuilderMap::PlotScenarioData& kPlot = sg_kSave.GetPlotScenarioData(i);

	mov	ecx, DWORD PTR _sg_kSave+12228
	imul	ecx, DWORD PTR _sg_kSave+12232
	cmp	DWORD PTR _i$223769[ebp], ecx
	jae	SHORT $LN38@Preload
	cmp	DWORD PTR _i$223769[ebp], 32768		; 00008000H
	jae	SHORT $LN38@Preload
	mov	edx, DWORD PTR _i$223769[ebp]
	lea	eax, DWORD PTR _sg_kSave[edx*8+274464]
	mov	DWORD PTR _kPlot$223773[ebp], eax
	jmp	SHORT $LN39@Preload
	jmp	SHORT $LN39@Preload
$LN38@Preload:
	mov	DWORD PTR _kPlot$223773[ebp], OFFSET ?sm_kErrorPlotScenarioData@CvWorldBuilderMap@@0UPlotScenarioData@1@A ; CvWorldBuilderMap::sm_kErrorPlotScenarioData
$LN39@Preload:

; 204  : 				if(kPlot.m_byImprovement != CvWorldBuilderMap::PlotScenarioData::InvalidImprovement)

	mov	ecx, DWORD PTR _kPlot$223773[ebp]
	movzx	edx, BYTE PTR [ecx+5]
	cmp	edx, 255				; 000000ffH
	je	SHORT $LN20@Preload

; 205  : 				{
; 206  : 					ImprovementTypes eType = (ImprovementTypes)kPlot.m_byImprovement;

	mov	eax, DWORD PTR _kPlot$223773[ebp]
	movzx	ecx, BYTE PTR [eax+5]
	mov	DWORD PTR _eType$223775[ebp], ecx

; 207  : 					const CvImprovementEntry* pkImprovement = GC.getImprovementInfo(eType);

	mov	edx, DWORD PTR _eType$223775[ebp]
	push	edx
	mov	ecx, OFFSET ?gGlobals@@3VCvGlobals@@A	; gGlobals
	call	?getImprovementInfo@CvGlobals@@QAEPAVCvImprovementEntry@@W4ImprovementTypes@@@Z ; CvGlobals::getImprovementInfo
	mov	DWORD PTR _pkImprovement$223777[ebp], eax

; 208  : 					if(pkImprovement == NULL || !pkImprovement->IsGoody())

	cmp	DWORD PTR _pkImprovement$223777[ebp], 0
	je	SHORT $LN18@Preload
	mov	ecx, DWORD PTR _pkImprovement$223777[ebp]
	call	?IsGoody@CvImprovementEntry@@QBE_NXZ	; CvImprovementEntry::IsGoody
	movzx	eax, al
	test	eax, eax
	jne	SHORT $LN20@Preload
$LN18@Preload:

; 209  : 						kPlot.m_byImprovement = CvWorldBuilderMap::PlotScenarioData::InvalidImprovement;

	mov	ecx, DWORD PTR _kPlot$223773[ebp]
	mov	BYTE PTR [ecx+5], 255			; 000000ffH
$LN20@Preload:

; 210  : 				}
; 211  : 			}

	jmp	$LN22@Preload
$LN24@Preload:

; 212  : 		}
; 213  : 
; 214  : 		sg_kMapInfo.uiWidth = sg_kSave.GetWidth();

	mov	edx, DWORD PTR _sg_kSave+12228
	mov	DWORD PTR $T227732[ebp], edx
	mov	eax, DWORD PTR $T227732[ebp]
	mov	DWORD PTR _sg_kMapInfo, eax

; 215  : 		sg_kMapInfo.uiHeight = sg_kSave.GetHeight();

	mov	ecx, DWORD PTR _sg_kSave+12232
	mov	DWORD PTR $T227736[ebp], ecx
	mov	edx, DWORD PTR $T227736[ebp]
	mov	DWORD PTR _sg_kMapInfo+4, edx

; 216  : 
; 217  : 		sg_kMapInfo.uiPlayers = sg_kSave.GetPlayerCount();

	mov	al, BYTE PTR _sg_kSave+12316
	mov	BYTE PTR $T227740[ebp], al
	movzx	ecx, BYTE PTR $T227740[ebp]
	mov	DWORD PTR _sg_kMapInfo+8, ecx

; 218  : 		sg_kMapInfo.uiCityStates = sg_kSave.GetCityStateCount();

	mov	dl, BYTE PTR _sg_kSave+12317
	mov	BYTE PTR $T227744[ebp], dl
	movzx	eax, BYTE PTR $T227744[ebp]
	mov	DWORD PTR _sg_kMapInfo+12, eax

; 219  : 
; 220  : 		sg_kMapInfo.uiMajorCivStartingPositions = 0;

	mov	DWORD PTR _sg_kMapInfo+16, 0

; 221  : 		sg_kMapInfo.uiMinorCivStartingPositions = 0;

	mov	DWORD PTR _sg_kMapInfo+20, 0

; 222  : 
; 223  : 		sg_kMapInfo.bWorldWrap = sg_kSave.GetFlag(CvWorldBuilderMap::FLAG_WORLD_WRAP);

	mov	ecx, DWORD PTR _sg_kSave+12224
	and	ecx, 1
	neg	ecx
	sbb	ecx, ecx
	neg	ecx
	mov	BYTE PTR _sg_kMapInfo+24, cl

; 224  : 		sg_kMapInfo.bRandomResources = sg_kSave.GetFlag(CvWorldBuilderMap::FLAG_RANDOM_RECOURCES);

	mov	edx, DWORD PTR _sg_kSave+12224
	and	edx, 2
	neg	edx
	sbb	edx, edx
	neg	edx
	mov	BYTE PTR _sg_kMapInfo+25, dl

; 225  : 
; 226  : 		for(uint i = 0; i < uiPlotCount; ++i)

	mov	DWORD PTR _i$223780[ebp], 0
	jmp	SHORT $LN17@Preload
$LN16@Preload:
	mov	eax, DWORD PTR _i$223780[ebp]
	add	eax, 1
	mov	DWORD PTR _i$223780[ebp], eax
$LN17@Preload:
	mov	ecx, DWORD PTR _i$223780[ebp]
	cmp	ecx, DWORD PTR _uiPlotCount$223767[ebp]
	jae	$LN15@Preload

; 227  : 		{
; 228  : 			const CvWorldBuilderMap::PlotMapData& kPlotData = sg_kSave.GetPlotData(i);

	mov	edx, DWORD PTR _sg_kSave+12228
	imul	edx, DWORD PTR _sg_kSave+12232
	cmp	DWORD PTR _i$223780[ebp], edx
	jae	SHORT $LN54@Preload
	cmp	DWORD PTR _i$223780[ebp], 32768		; 00008000H
	jae	SHORT $LN54@Preload
	mov	eax, DWORD PTR _i$223780[ebp]
	lea	ecx, DWORD PTR _sg_kSave[eax*8+12320]
	mov	DWORD PTR _kPlotData$223784[ebp], ecx
	jmp	SHORT $LN57@Preload
	jmp	SHORT $LN57@Preload
$LN54@Preload:
	mov	DWORD PTR _kPlotData$223784[ebp], OFFSET ?sm_kErrorPlotMapData@CvWorldBuilderMap@@0VPlotMapData@1@A ; CvWorldBuilderMap::sm_kErrorPlotMapData

; 229  : 			if(kPlotData.GetFlag(CvWorldBuilderMap::PlotMapData::START_POS_MAJOR))

$LN57@Preload:
	mov	edx, DWORD PTR _kPlotData$223784[ebp]
	movzx	eax, BYTE PTR [edx+3]
	and	eax, 64					; 00000040H
	neg	eax
	sbb	eax, eax
	neg	eax
	movzx	ecx, al
	test	ecx, ecx
	je	SHORT $LN59@Preload

; 230  : 				sg_kMapInfo.uiMajorCivStartingPositions++;

	mov	edx, DWORD PTR _sg_kMapInfo+16
	add	edx, 1
	mov	DWORD PTR _sg_kMapInfo+16, edx
	jmp	SHORT $LN13@Preload

; 231  : 			else if(kPlotData.GetFlag(CvWorldBuilderMap::PlotMapData::START_POS_MINOR))

$LN59@Preload:
	mov	eax, DWORD PTR _kPlotData$223784[ebp]
	movzx	ecx, BYTE PTR [eax+3]
	and	ecx, 128				; 00000080H
	neg	ecx
	sbb	ecx, ecx
	neg	ecx
	movzx	edx, cl
	test	edx, edx
	je	SHORT $LN13@Preload

; 232  : 				sg_kMapInfo.uiMinorCivStartingPositions++;

	mov	eax, DWORD PTR _sg_kMapInfo+20
	add	eax, 1
	mov	DWORD PTR _sg_kMapInfo+20, eax
$LN13@Preload:

; 233  : 		}

	jmp	$LN16@Preload
$LN15@Preload:

; 234  : 
; 235  : 		const uint uiPlayerCount = sg_kSave.GetPlayerCount();

	mov	cl, BYTE PTR _sg_kSave+12316
	mov	BYTE PTR $T227765[ebp], cl
	movzx	edx, BYTE PTR $T227765[ebp]
	mov	DWORD PTR _uiPlayerCount$223788[ebp], edx

; 236  : 		if(uiPlayerCount > 0)

	cmp	DWORD PTR _uiPlayerCount$223788[ebp], 0
	jbe	$LN11@Preload

; 237  : 		{
; 238  : 			for(uint i = 0; i < uiPlayerCount; ++i)

	mov	DWORD PTR _i$223790[ebp], 0
	jmp	SHORT $LN10@Preload
$LN9@Preload:
	mov	eax, DWORD PTR _i$223790[ebp]
	add	eax, 1
	mov	DWORD PTR _i$223790[ebp], eax
$LN10@Preload:
	mov	ecx, DWORD PTR _i$223790[ebp]
	cmp	ecx, DWORD PTR _uiPlayerCount$223788[ebp]
	jae	SHORT $LN11@Preload

; 239  : 			{
; 240  : 				const uint uiNew = sg_auiPlayerSlots[i];

	mov	edx, DWORD PTR _i$223790[ebp]
	mov	eax, DWORD PTR _sg_auiPlayerSlots[edx*4]
	mov	DWORD PTR _uiNew$223794[ebp], eax

; 241  : 				if(uiNew != i)

	mov	ecx, DWORD PTR _uiNew$223794[ebp]
	cmp	ecx, DWORD PTR _i$223790[ebp]
	je	SHORT $LN7@Preload

; 242  : 				{
; 243  : 					if(uiNew < uiPlayerCount)

	mov	edx, DWORD PTR _uiNew$223794[ebp]
	cmp	edx, DWORD PTR _uiPlayerCount$223788[ebp]
	jae	SHORT $LN7@Preload

; 244  : 					{
; 245  : #ifdef AUI_WARNING_FIXES
; 246  : 						sg_kSave.SwapPlayers(byte(uiNew), byte(i));
; 247  : #else
; 248  : 						sg_kSave.SwapPlayers(uiNew, i);

	movzx	eax, BYTE PTR _i$223790[ebp]
	push	eax
	movzx	ecx, BYTE PTR _uiNew$223794[ebp]
	push	ecx
	mov	ecx, OFFSET _sg_kSave
	call	?SwapPlayers@CvWorldBuilderMap@@QAEXEE@Z ; CvWorldBuilderMap::SwapPlayers

; 249  : #endif
; 250  : 
; 251  : 						for(uint j = i + 1; j < uiPlayerCount; ++j)

	mov	edx, DWORD PTR _i$223790[ebp]
	add	edx, 1
	mov	DWORD PTR _j$223797[ebp], edx
	jmp	SHORT $LN5@Preload
$LN4@Preload:
	mov	eax, DWORD PTR _j$223797[ebp]
	add	eax, 1
	mov	DWORD PTR _j$223797[ebp], eax
$LN5@Preload:
	mov	ecx, DWORD PTR _j$223797[ebp]
	cmp	ecx, DWORD PTR _uiPlayerCount$223788[ebp]
	jae	SHORT $LN7@Preload

; 252  : 						{
; 253  : 							if(sg_auiPlayerSlots[j] == i)

	mov	edx, DWORD PTR _j$223797[ebp]
	mov	eax, DWORD PTR _sg_auiPlayerSlots[edx*4]
	cmp	eax, DWORD PTR _i$223790[ebp]
	jne	SHORT $LN2@Preload

; 254  : 							{
; 255  : 								sg_auiPlayerSlots[j] = uiNew;

	mov	ecx, DWORD PTR _j$223797[ebp]
	mov	edx, DWORD PTR _uiNew$223794[ebp]
	mov	DWORD PTR _sg_auiPlayerSlots[ecx*4], edx

; 256  : 								break;

	jmp	SHORT $LN7@Preload
$LN2@Preload:

; 257  : 							}
; 258  : 						}

	jmp	SHORT $LN4@Preload
$LN7@Preload:

; 259  : 					}
; 260  : 				}
; 261  : 			}

	jmp	SHORT $LN9@Preload
$LN11@Preload:

; 262  : 		}
; 263  : 
; 264  : 		//ResetPlayerSlots();
; 265  : 
; 266  : 		return true;

	mov	al, 1
	jmp	SHORT $LN26@Preload

; 267  : 	}
; 268  : 	else

	jmp	SHORT $LN26@Preload
$LN25@Preload:

; 269  : 	{
; 270  : 		return false;

	xor	al, al
$LN26@Preload:

; 271  : 	}
; 272  : }

	mov	esp, ebp
	pop	ebp
	ret	0
?Preload@CvWorldBuilderMapLoader@@SA_NPB_W_N@Z ENDP	; CvWorldBuilderMapLoader::Preload
_TEXT	ENDS
PUBLIC	??1CvString@@QAE@XZ				; CvString::~CvString
PUBLIC	??_C@_00CNPNBAHC@?$AA@				; `string'
PUBLIC	?SetupGameOptions@CvWorldBuilderMapLoader@@SAXXZ ; CvWorldBuilderMapLoader::SetupGameOptions
EXTRN	__imp_??1?$basic_string@DU?$char_traits@D@std@@V?$allocator@D@2@@std@@QAE@XZ:PROC
EXTRN	?setGameSpeed@CvPreGame@@YAXABVCvString@@@Z:PROC ; CvPreGame::setGameSpeed
EXTRN	__imp_??0?$basic_string@DU?$char_traits@D@std@@V?$allocator@D@2@@std@@QAE@PBD@Z:PROC
EXTRN	?setStartYear@CvGame@@QAEXH@Z:PROC		; CvGame::setStartYear
EXTRN	?setMaxTurns@CvPreGame@@YAXH@Z:PROC		; CvPreGame::setMaxTurns
EXTRN	?setVictoryValid@CvGame@@QAEXW4VictoryTypes@@_N@Z:PROC ; CvGame::setVictoryValid
EXTRN	?getVictoryInfo@CvGlobals@@QAEPAVCvVictoryInfo@@W4VictoryTypes@@@Z:PROC ; CvGlobals::getVictoryInfo
EXTRN	?getNumVictoryInfos@CvGlobals@@QAEHXZ:PROC	; CvGlobals::getNumVictoryInfos
EXTRN	?setOption@CvGame@@QAEXPBD_N@Z:PROC		; CvGame::setOption
EXTRN	?Contains@CvWorldBuilderMapTypeGroup@@QBE_NPBD@Z:PROC ; CvWorldBuilderMapTypeGroup::Contains
EXTRN	?getGameOptionInfo@CvGlobals@@QAEPAVCvGameOptionInfo@@W4GameOptionTypes@@@Z:PROC ; CvGlobals::getGameOptionInfo
EXTRN	?getNumGameOptionInfos@CvGlobals@@QAEHXZ:PROC	; CvGlobals::getNumGameOptionInfos
EXTRN	___security_cookie:DWORD
EXTRN	___CxxFrameHandler3:PROC
EXTRN	@__security_check_cookie@4:PROC
;	COMDAT ??_C@_00CNPNBAHC@?$AA@
; File d:\sources\lekmod_git\checkout\lekmod_dll\cvgamecoredllutil\include\cvstring.h
CONST	SEGMENT
??_C@_00CNPNBAHC@?$AA@ DB 00H				; `string'
CONST	ENDS
;	COMDAT xdata$x
xdata$x	SEGMENT
__unwindtable$?SetupGameOptions@CvWorldBuilderMapLoader@@SAXXZ DD 0ffffffffH
	DD	FLAT:__unwindfunclet$?SetupGameOptions@CvWorldBuilderMapLoader@@SAXXZ$0
__ehfuncinfo$?SetupGameOptions@CvWorldBuilderMapLoader@@SAXXZ DD 019930522H
	DD	01H
	DD	FLAT:__unwindtable$?SetupGameOptions@CvWorldBuilderMapLoader@@SAXXZ
	DD	2 DUP(00H)
	DD	2 DUP(00H)
	DD	00H
	DD	01H
; Function compile flags: /Odtp
; File d:\sources\lekmod_git\checkout\lekmod_dll\cvgamecoredll_expansion2\cvworldbuildermaploader.cpp
xdata$x	ENDS
;	COMDAT ?SetupGameOptions@CvWorldBuilderMapLoader@@SAXXZ
_TEXT	SEGMENT
tv179 = -116						; size = 4
$T227807 = -112						; size = 4
$T227795 = -108						; size = 4
$T227791 = -104						; size = 4
$T227787 = -100						; size = 4
$T227783 = -96						; size = 4
$T227776 = -92						; size = 4
$T227768 = -88						; size = 28
_bValid$223826 = -57					; size = 1
_szVictoryType$223825 = -56				; size = 4
_eVictoryType$223821 = -52				; size = 4
_pkVictoryType$223823 = -48				; size = 4
_i$223817 = -44						; size = 4
_szOption$223814 = -40					; size = 4
_bEnabled$223815 = -33					; size = 1
_pkOption$223812 = -32					; size = 4
_eOption$223810 = -28					; size = 4
_i$223806 = -24						; size = 4
_iGameOptionCount$ = -20				; size = 4
_iVictoryTypeCount$ = -16				; size = 4
__$EHRec$ = -12						; size = 12
?SetupGameOptions@CvWorldBuilderMapLoader@@SAXXZ PROC	; CvWorldBuilderMapLoader::SetupGameOptions, COMDAT

; 275  : {

	push	ebp
	mov	ebp, esp
	push	-1
	push	__ehhandler$?SetupGameOptions@CvWorldBuilderMapLoader@@SAXXZ
	mov	eax, DWORD PTR fs:0
	push	eax
	sub	esp, 104				; 00000068H
	mov	eax, DWORD PTR ___security_cookie
	xor	eax, ebp
	push	eax
	lea	eax, DWORD PTR __$EHRec$[ebp]
	mov	DWORD PTR fs:0, eax

; 276  : 	const int iGameOptionCount = GC.getNumGameOptionInfos();

	mov	ecx, OFFSET ?gGlobals@@3VCvGlobals@@A	; gGlobals
	call	?getNumGameOptionInfos@CvGlobals@@QAEHXZ ; CvGlobals::getNumGameOptionInfos
	mov	DWORD PTR _iGameOptionCount$[ebp], eax

; 277  : 	for(int i = 0; i < iGameOptionCount; ++i)

	mov	DWORD PTR _i$223806[ebp], 0
	jmp	SHORT $LN8@SetupGameO
$LN7@SetupGameO:
	mov	eax, DWORD PTR _i$223806[ebp]
	add	eax, 1
	mov	DWORD PTR _i$223806[ebp], eax
$LN8@SetupGameO:
	mov	ecx, DWORD PTR _i$223806[ebp]
	cmp	ecx, DWORD PTR _iGameOptionCount$[ebp]
	jge	SHORT $LN6@SetupGameO

; 278  : 	{
; 279  : 		const GameOptionTypes eOption = (GameOptionTypes)i;

	mov	edx, DWORD PTR _i$223806[ebp]
	mov	DWORD PTR _eOption$223810[ebp], edx

; 280  : 		const CvGameOptionInfo* pkOption = GC.getGameOptionInfo(eOption);

	mov	eax, DWORD PTR _eOption$223810[ebp]
	push	eax
	mov	ecx, OFFSET ?gGlobals@@3VCvGlobals@@A	; gGlobals
	call	?getGameOptionInfo@CvGlobals@@QAEPAVCvGameOptionInfo@@W4GameOptionTypes@@@Z ; CvGlobals::getGameOptionInfo
	mov	DWORD PTR _pkOption$223812[ebp], eax

; 281  : 		if(pkOption != NULL)

	cmp	DWORD PTR _pkOption$223812[ebp], 0
	je	SHORT $LN5@SetupGameO

; 282  : 		{
; 283  : 			const char* szOption = pkOption->GetType();

	mov	ecx, DWORD PTR _pkOption$223812[ebp]
	add	ecx, 176				; 000000b0H
	call	DWORD PTR __imp_?c_str@?$basic_string@DU?$char_traits@D@std@@V?$allocator@D@2@@std@@QBEPBDXZ
	mov	DWORD PTR _szOption$223814[ebp], eax

; 284  : 			const bool bEnabled = sg_kSave.m_kGameOptions.Contains(szOption);

	mov	ecx, DWORD PTR _szOption$223814[ebp]
	push	ecx
	mov	ecx, OFFSET _sg_kSave+4024
	call	?Contains@CvWorldBuilderMapTypeGroup@@QBE_NPBD@Z ; CvWorldBuilderMapTypeGroup::Contains
	mov	BYTE PTR _bEnabled$223815[ebp], al

; 285  : 			GC.getGame().setOption(szOption, bEnabled);

	mov	edx, DWORD PTR ?gGlobals@@3VCvGlobals@@A+48
	mov	DWORD PTR $T227776[ebp], edx
	movzx	eax, BYTE PTR _bEnabled$223815[ebp]
	push	eax
	mov	ecx, DWORD PTR _szOption$223814[ebp]
	push	ecx
	mov	ecx, DWORD PTR $T227776[ebp]
	call	?setOption@CvGame@@QAEXPBD_N@Z		; CvGame::setOption
$LN5@SetupGameO:

; 286  : 		}
; 287  : 	}

	jmp	SHORT $LN7@SetupGameO
$LN6@SetupGameO:

; 288  : 
; 289  : 	const int iVictoryTypeCount = GC.getNumVictoryInfos();

	mov	ecx, OFFSET ?gGlobals@@3VCvGlobals@@A	; gGlobals
	call	?getNumVictoryInfos@CvGlobals@@QAEHXZ	; CvGlobals::getNumVictoryInfos
	mov	DWORD PTR _iVictoryTypeCount$[ebp], eax

; 290  : 	for(int i = 0; i < iVictoryTypeCount; ++i)

	mov	DWORD PTR _i$223817[ebp], 0
	jmp	SHORT $LN4@SetupGameO
$LN3@SetupGameO:
	mov	edx, DWORD PTR _i$223817[ebp]
	add	edx, 1
	mov	DWORD PTR _i$223817[ebp], edx
$LN4@SetupGameO:
	mov	eax, DWORD PTR _i$223817[ebp]
	cmp	eax, DWORD PTR _iVictoryTypeCount$[ebp]
	jge	SHORT $LN2@SetupGameO

; 291  : 	{
; 292  : 		const VictoryTypes eVictoryType = (VictoryTypes)i;

	mov	ecx, DWORD PTR _i$223817[ebp]
	mov	DWORD PTR _eVictoryType$223821[ebp], ecx

; 293  : 		const CvVictoryInfo* pkVictoryType = GC.getVictoryInfo(eVictoryType);

	mov	edx, DWORD PTR _eVictoryType$223821[ebp]
	push	edx
	mov	ecx, OFFSET ?gGlobals@@3VCvGlobals@@A	; gGlobals
	call	?getVictoryInfo@CvGlobals@@QAEPAVCvVictoryInfo@@W4VictoryTypes@@@Z ; CvGlobals::getVictoryInfo
	mov	DWORD PTR _pkVictoryType$223823[ebp], eax

; 294  : 		if(pkVictoryType != NULL)

	cmp	DWORD PTR _pkVictoryType$223823[ebp], 0
	je	SHORT $LN1@SetupGameO

; 295  : 		{
; 296  : 			const char* szVictoryType = pkVictoryType->GetType();

	mov	ecx, DWORD PTR _pkVictoryType$223823[ebp]
	add	ecx, 176				; 000000b0H
	call	DWORD PTR __imp_?c_str@?$basic_string@DU?$char_traits@D@std@@V?$allocator@D@2@@std@@QBEPBDXZ
	mov	DWORD PTR _szVictoryType$223825[ebp], eax

; 297  : 			const bool bValid = sg_kSave.m_kVictoryTypes.Contains(szVictoryType);

	mov	eax, DWORD PTR _szVictoryType$223825[ebp]
	push	eax
	mov	ecx, OFFSET _sg_kSave+4016
	call	?Contains@CvWorldBuilderMapTypeGroup@@QBE_NPBD@Z ; CvWorldBuilderMapTypeGroup::Contains
	mov	BYTE PTR _bValid$223826[ebp], al

; 298  : 			GC.getGame().setVictoryValid(eVictoryType, bValid);

	mov	ecx, DWORD PTR ?gGlobals@@3VCvGlobals@@A+48
	mov	DWORD PTR $T227783[ebp], ecx
	movzx	edx, BYTE PTR _bValid$223826[ebp]
	push	edx
	mov	eax, DWORD PTR _eVictoryType$223821[ebp]
	push	eax
	mov	ecx, DWORD PTR $T227783[ebp]
	call	?setVictoryValid@CvGame@@QAEXW4VictoryTypes@@_N@Z ; CvGame::setVictoryValid
$LN1@SetupGameO:

; 299  : 		}
; 300  : 	}

	jmp	SHORT $LN3@SetupGameO
$LN2@SetupGameO:

; 301  : 
; 302  : 	CvPreGame::setMaxTurns(sg_kSave.GetMaxTurns());

	mov	ecx, DWORD PTR _sg_kSave+12304
	mov	DWORD PTR $T227787[ebp], ecx
	mov	edx, DWORD PTR $T227787[ebp]
	push	edx
	call	?setMaxTurns@CvPreGame@@YAXH@Z		; CvPreGame::setMaxTurns
	add	esp, 4

; 303  : 
; 304  : 	GC.getGame().setStartYear(sg_kSave.GetStartYear());

	mov	eax, DWORD PTR _sg_kSave+12312
	mov	DWORD PTR $T227791[ebp], eax
	mov	ecx, DWORD PTR ?gGlobals@@3VCvGlobals@@A+48
	mov	DWORD PTR $T227795[ebp], ecx
	mov	edx, DWORD PTR $T227791[ebp]
	push	edx
	mov	ecx, DWORD PTR $T227795[ebp]
	call	?setStartYear@CvGame@@QAEXH@Z		; CvGame::setStartYear

; 305  : 	CvPreGame::setGameSpeed(sg_kSave.GetDefaultGameSpeed());

	mov	DWORD PTR $T227807[ebp], OFFSET _sg_kSave+12236
	cmp	DWORD PTR $T227807[ebp], 0
	je	SHORT $LN30@SetupGameO
	mov	eax, DWORD PTR $T227807[ebp]
	mov	DWORD PTR tv179[ebp], eax
	jmp	SHORT $LN31@SetupGameO
$LN30@SetupGameO:
	mov	DWORD PTR tv179[ebp], OFFSET ??_C@_00CNPNBAHC@?$AA@
$LN31@SetupGameO:
	mov	ecx, DWORD PTR tv179[ebp]
	push	ecx
	lea	ecx, DWORD PTR $T227768[ebp]
	call	DWORD PTR __imp_??0?$basic_string@DU?$char_traits@D@std@@V?$allocator@D@2@@std@@QAE@PBD@Z
	mov	DWORD PTR __$EHRec$[ebp+8], 0
	lea	edx, DWORD PTR $T227768[ebp]
	push	edx
	call	?setGameSpeed@CvPreGame@@YAXABVCvString@@@Z ; CvPreGame::setGameSpeed
	add	esp, 4
	mov	DWORD PTR __$EHRec$[ebp+8], -1
	lea	ecx, DWORD PTR $T227768[ebp]
	call	DWORD PTR __imp_??1?$basic_string@DU?$char_traits@D@std@@V?$allocator@D@2@@std@@QAE@XZ

; 306  : }

	mov	ecx, DWORD PTR __$EHRec$[ebp]
	mov	DWORD PTR fs:0, ecx
	pop	ecx
	mov	esp, ebp
	pop	ebp
	ret	0
_TEXT	ENDS
;	COMDAT text$x
text$x	SEGMENT
__unwindfunclet$?SetupGameOptions@CvWorldBuilderMapLoader@@SAXXZ$0:
	lea	ecx, DWORD PTR $T227768[ebp]
	jmp	??1CvString@@QAE@XZ			; CvString::~CvString
__ehhandler$?SetupGameOptions@CvWorldBuilderMapLoader@@SAXXZ:
	mov	edx, DWORD PTR [esp+8]
	lea	eax, DWORD PTR [edx+12]
	mov	ecx, DWORD PTR [edx-108]
	xor	ecx, eax
	call	@__security_check_cookie@4
	mov	eax, OFFSET __ehfuncinfo$?SetupGameOptions@CvWorldBuilderMapLoader@@SAXXZ
	jmp	___CxxFrameHandler3
text$x	ENDS
?SetupGameOptions@CvWorldBuilderMapLoader@@SAXXZ ENDP	; CvWorldBuilderMapLoader::SetupGameOptions
PUBLIC	?SetupPlayers@CvWorldBuilderMapLoader@@SAXXZ	; CvWorldBuilderMapLoader::SetupPlayers
EXTRN	?setMinorCivType@CvPreGame@@YAXW4PlayerTypes@@W4MinorCivTypes@@@Z:PROC ; CvPreGame::setMinorCivType
EXTRN	?getMinorCivInfo@CvGlobals@@QAEPAVCvMinorCivInfo@@W4MinorCivTypes@@@Z:PROC ; CvGlobals::getMinorCivInfo
EXTRN	?getNumMinorCivInfos@CvGlobals@@QAEHXZ:PROC	; CvGlobals::getNumMinorCivInfos
EXTRN	?mapNoPlayers@CvPreGame@@YA_NXZ:PROC		; CvPreGame::mapNoPlayers
EXTRN	?setNumMinorCivs@CvPreGame@@YAXH@Z:PROC		; CvPreGame::setNumMinorCivs
EXTRN	?resetPlayer@CvPreGame@@YAXW4PlayerTypes@@@Z:PROC ; CvPreGame::resetPlayer
EXTRN	?setCivilizationDescription@CvPreGame@@YAXW4PlayerTypes@@ABVCvString@@@Z:PROC ; CvPreGame::setCivilizationDescription
EXTRN	?setCivilizationShortDescription@CvPreGame@@YAXW4PlayerTypes@@ABVCvString@@@Z:PROC ; CvPreGame::setCivilizationShortDescription
EXTRN	?setLeaderName@CvPreGame@@YAXW4PlayerTypes@@ABVCvString@@@Z:PROC ; CvPreGame::setLeaderName
EXTRN	?setMinorCiv@CvPreGame@@YAXW4PlayerTypes@@_N@Z:PROC ; CvPreGame::setMinorCiv
EXTRN	?setTeamType@CvPreGame@@YAXW4PlayerTypes@@W4TeamTypes@@@Z:PROC ; CvPreGame::setTeamType
EXTRN	?setHandicap@CvPreGame@@YAXW4PlayerTypes@@W4HandicapTypes@@@Z:PROC ; CvPreGame::setHandicap
EXTRN	?getHandicapInfo@CvGlobals@@QAEPAVCvHandicapInfo@@W4HandicapTypes@@@Z:PROC ; CvGlobals::getHandicapInfo
EXTRN	?getNumHandicapInfos@CvGlobals@@QAEHXZ:PROC	; CvGlobals::getNumHandicapInfos
EXTRN	?overrideScenarioHandicap@CvPreGame@@YA_NXZ:PROC ; CvPreGame::overrideScenarioHandicap
EXTRN	?setPlayerColor@CvPreGame@@YAXW4PlayerTypes@@W4PlayerColorTypes@@@Z:PROC ; CvPreGame::setPlayerColor
EXTRN	?GetPlayerColorInfo@CvGlobals@@QAEPAVCvPlayerColorInfo@@W4PlayerColorTypes@@@Z:PROC ; CvGlobals::GetPlayerColorInfo
EXTRN	?GetNumPlayerColorInfos@CvGlobals@@QAEHXZ:PROC	; CvGlobals::GetNumPlayerColorInfos
EXTRN	?setCivilization@CvPreGame@@YAXW4PlayerTypes@@W4CivilizationTypes@@@Z:PROC ; CvPreGame::setCivilization
EXTRN	?getCivilizationInfo@CvGlobals@@QAEPAVCvCivilizationInfo@@W4CivilizationTypes@@@Z:PROC ; CvGlobals::getCivilizationInfo
EXTRN	?getNumCivilizationInfos@CvGlobals@@QAEHXZ:PROC	; CvGlobals::getNumCivilizationInfos
EXTRN	?sm_kErrorPlayer@CvWorldBuilderMap@@0UPlayer@1@A:BYTE ; CvWorldBuilderMap::sm_kErrorPlayer
EXTRN	?setSlotStatus@CvPreGame@@YAXW4PlayerTypes@@W4SlotStatus@@@Z:PROC ; CvPreGame::setSlotStatus
EXTRN	?slotStatus@CvPreGame@@YA?AW4SlotStatus@@W4PlayerTypes@@@Z:PROC ; CvPreGame::slotStatus
;	COMDAT xdata$x
; File d:\sources\lekmod_git\checkout\lekmod_dll\cvgamecoredll_expansion2\cvinfos.h
xdata$x	SEGMENT
__unwindtable$?SetupPlayers@CvWorldBuilderMapLoader@@SAXXZ DD 0ffffffffH
	DD	FLAT:__unwindfunclet$?SetupPlayers@CvWorldBuilderMapLoader@@SAXXZ$0
	DD	0ffffffffH
	DD	FLAT:__unwindfunclet$?SetupPlayers@CvWorldBuilderMapLoader@@SAXXZ$1
	DD	0ffffffffH
	DD	FLAT:__unwindfunclet$?SetupPlayers@CvWorldBuilderMapLoader@@SAXXZ$2
__ehfuncinfo$?SetupPlayers@CvWorldBuilderMapLoader@@SAXXZ DD 019930522H
	DD	03H
	DD	FLAT:__unwindtable$?SetupPlayers@CvWorldBuilderMapLoader@@SAXXZ
	DD	2 DUP(00H)
	DD	2 DUP(00H)
	DD	00H
	DD	01H
; Function compile flags: /Odtp
; File d:\sources\lekmod_git\checkout\lekmod_dll\cvgamecoredll_expansion2\cvworldbuildermaploader.cpp
xdata$x	ENDS
;	COMDAT ?SetupPlayers@CvWorldBuilderMapLoader@@SAXXZ
_TEXT	SEGMENT
tv342 = -424						; size = 4
tv718 = -420						; size = 4
tv713 = -414						; size = 1
tv706 = -413						; size = 1
tv702 = -412						; size = 4
tv703 = -408						; size = 4
tv320 = -404						; size = 4
tv687 = -400						; size = 4
tv682 = -394						; size = 1
tv675 = -393						; size = 1
tv671 = -392						; size = 4
tv672 = -388						; size = 4
tv298 = -384						; size = 4
tv656 = -380						; size = 4
tv651 = -374						; size = 1
tv644 = -373						; size = 1
tv640 = -372						; size = 4
tv641 = -368						; size = 4
tv444 = -364						; size = 4
tv429 = -360						; size = 4
tv411 = -356						; size = 4
tv204 = -352						; size = 4
tv600 = -345						; size = 1
tv597 = -344						; size = 4
tv594 = -340						; size = 4
tv393 = -336						; size = 4
tv192 = -332						; size = 4
tv583 = -325						; size = 1
tv580 = -324						; size = 4
tv577 = -320						; size = 4
tv179 = -316						; size = 4
tv564 = -312						; size = 4
tv559 = -306						; size = 1
tv552 = -305						; size = 1
tv548 = -304						; size = 4
tv549 = -300						; size = 4
tv153 = -296						; size = 4
tv532 = -292						; size = 4
tv527 = -286						; size = 1
tv520 = -285						; size = 1
tv516 = -284						; size = 4
tv517 = -280						; size = 4
tv131 = -276						; size = 4
tv501 = -272						; size = 4
tv496 = -266						; size = 1
tv489 = -265						; size = 1
tv485 = -264						; size = 4
tv486 = -260						; size = 4
tv361 = -256						; size = 4
$T227911 = -252						; size = 4
$T227904 = -245						; size = 1
$T227896 = -244						; size = 4
$T227883 = -240						; size = 4
$T227870 = -236						; size = 4
$T227845 = -232						; size = 4
$T227838 = -227						; size = 1
$T227831 = -226						; size = 1
$T227830 = -225						; size = 1
$T227829 = -224						; size = 28
$T227828 = -196						; size = 28
$T227827 = -168						; size = 28
$T227826 = -138						; size = 1
$T227825 = -137						; size = 1
_pkHandicap$223932 = -136				; size = 4
_iHandicap$223928 = -132				; size = 4
_pkColor$223923 = -128					; size = 4
_iColor$223919 = -124					; size = 4
_pkCivilization$223914 = -120				; size = 4
_iCiv$223910 = -116					; size = 4
_ePlayer$223906 = -112					; size = 4
_eColorType$223918 = -108				; size = 4
_eCivType$223909 = -104					; size = 4
_eHandicap$223927 = -100				; size = 4
_kPlayer$223908 = -96					; size = 4
_i$223902 = -92						; size = 4
_ePlayer$223889 = -88					; size = 4
_eStatus$223891 = -84					; size = 4
_i$223885 = -80						; size = 4
_pkHandicap$223873 = -76				; size = 4
_iHandicap$223869 = -72					; size = 4
_eHandicap$223868 = -68					; size = 4
_pkColor$223862 = -64					; size = 4
_iColor$223858 = -60					; size = 4
_pkCivilization$223853 = -56				; size = 4
_iCiv$223849 = -52					; size = 4
_ePlayer$223843 = -48					; size = 4
_eColorType$223857 = -44				; size = 4
_eStatus$223845 = -40					; size = 4
_eCivType$223848 = -36					; size = 4
_kPlayer$223847 = -32					; size = 4
_i$223839 = -28						; size = 4
_uiCityStateCount$ = -24				; size = 4
_uiPlayerCount$ = -20					; size = 4
_uiPlayerSlotCount$ = -16				; size = 4
__$EHRec$ = -12						; size = 12
?SetupPlayers@CvWorldBuilderMapLoader@@SAXXZ PROC	; CvWorldBuilderMapLoader::SetupPlayers, COMDAT

; 309  : {

	push	ebp
	mov	ebp, esp
	push	-1
	push	__ehhandler$?SetupPlayers@CvWorldBuilderMapLoader@@SAXXZ
	mov	eax, DWORD PTR fs:0
	push	eax
	sub	esp, 412				; 0000019cH
	mov	eax, DWORD PTR ___security_cookie
	xor	eax, ebp
	push	eax
	lea	eax, DWORD PTR __$EHRec$[ebp]
	mov	DWORD PTR fs:0, eax

; 310  : #ifdef AUI_WARNING_FIXES
; 311  : 	const byte uiPlayerCount = MIN(sg_kSave.GetPlayerCount(), (byte)MAX_CIV_PLAYERS);
; 312  : 	for (byte i = 0; i < uiPlayerCount; ++i)
; 313  : #else
; 314  : 	const uint uiPlayerCount = std::min(sg_kSave.GetPlayerCount(), (byte)MAX_CIV_PLAYERS);

	mov	BYTE PTR $T227825[ebp], 63		; 0000003fH
	mov	al, BYTE PTR _sg_kSave+12316
	mov	BYTE PTR $T227838[ebp], al
	mov	cl, BYTE PTR $T227838[ebp]
	mov	BYTE PTR $T227826[ebp], cl
	movzx	edx, BYTE PTR $T227825[ebp]
	movzx	eax, BYTE PTR $T227826[ebp]
	cmp	edx, eax
	jge	SHORT $LN55@SetupPlaye
	lea	ecx, DWORD PTR $T227825[ebp]
	mov	DWORD PTR tv361[ebp], ecx
	jmp	SHORT $LN56@SetupPlaye
$LN55@SetupPlaye:
	lea	edx, DWORD PTR $T227826[ebp]
	mov	DWORD PTR tv361[ebp], edx
$LN56@SetupPlaye:
	mov	eax, DWORD PTR tv361[ebp]
	mov	DWORD PTR $T227845[ebp], eax
	mov	ecx, DWORD PTR $T227845[ebp]
	movzx	edx, BYTE PTR [ecx]
	mov	DWORD PTR _uiPlayerCount$[ebp], edx

; 315  : 	for(uint i = 0; i < uiPlayerCount; ++i)

	mov	DWORD PTR _i$223839[ebp], 0
	jmp	SHORT $LN45@SetupPlaye
$LN44@SetupPlaye:
	mov	eax, DWORD PTR _i$223839[ebp]
	add	eax, 1
	mov	DWORD PTR _i$223839[ebp], eax
$LN45@SetupPlaye:
	mov	ecx, DWORD PTR _i$223839[ebp]
	cmp	ecx, DWORD PTR _uiPlayerCount$[ebp]
	jae	$LN43@SetupPlaye

; 316  : #endif
; 317  : 	{
; 318  : 		const PlayerTypes ePlayer = (PlayerTypes)i;

	mov	edx, DWORD PTR _i$223839[ebp]
	mov	DWORD PTR _ePlayer$223843[ebp], edx

; 319  : 		const SlotStatus eStatus = CvPreGame::slotStatus(ePlayer);

	mov	eax, DWORD PTR _ePlayer$223843[ebp]
	push	eax
	call	?slotStatus@CvPreGame@@YA?AW4SlotStatus@@W4PlayerTypes@@@Z ; CvPreGame::slotStatus
	add	esp, 4
	mov	DWORD PTR _eStatus$223845[ebp], eax

; 320  : 		if(eStatus != SS_TAKEN && eStatus != SS_COMPUTER)

	cmp	DWORD PTR _eStatus$223845[ebp], 3
	je	SHORT $LN42@SetupPlaye
	cmp	DWORD PTR _eStatus$223845[ebp], 1
	je	SHORT $LN42@SetupPlaye

; 321  : 			CvPreGame::setSlotStatus(ePlayer, SS_COMPUTER);

	push	1
	mov	ecx, DWORD PTR _ePlayer$223843[ebp]
	push	ecx
	call	?setSlotStatus@CvPreGame@@YAXW4PlayerTypes@@W4SlotStatus@@@Z ; CvPreGame::setSlotStatus
	add	esp, 8
$LN42@SetupPlaye:

; 322  : 
; 323  : 		const CvWorldBuilderMap::Player& kPlayer = sg_kSave.GetPlayer(i);

	movzx	edx, BYTE PTR _i$223839[ebp]
	movzx	eax, BYTE PTR _sg_kSave+12316
	cmp	edx, eax
	jge	SHORT $LN58@SetupPlaye
	movzx	ecx, BYTE PTR _i$223839[ebp]
	cmp	ecx, 32					; 00000020H
	jae	SHORT $LN58@SetupPlaye
	movzx	edx, BYTE PTR _i$223839[ebp]
	imul	edx, 436				; 000001b4H
	add	edx, OFFSET _sg_kSave+536608
	mov	DWORD PTR _kPlayer$223847[ebp], edx
	jmp	SHORT $LN59@SetupPlaye
	jmp	SHORT $LN59@SetupPlaye
$LN58@SetupPlaye:
	mov	DWORD PTR _kPlayer$223847[ebp], OFFSET ?sm_kErrorPlayer@CvWorldBuilderMap@@0UPlayer@1@A ; CvWorldBuilderMap::sm_kErrorPlayer
$LN59@SetupPlaye:

; 324  : 
; 325  : 		CivilizationTypes eCivType = NO_CIVILIZATION;

	mov	DWORD PTR _eCivType$223848[ebp], -1

; 326  : #ifdef AUI_WARNING_FIXES
; 327  : 		for (uint iCiv = 0; iCiv < GC.getNumCivilizationInfos(); ++iCiv)
; 328  : #else
; 329  : 		for(int iCiv = 0; iCiv < GC.getNumCivilizationInfos(); ++iCiv)

	mov	DWORD PTR _iCiv$223849[ebp], 0
	jmp	SHORT $LN41@SetupPlaye
$LN40@SetupPlaye:
	mov	eax, DWORD PTR _iCiv$223849[ebp]
	add	eax, 1
	mov	DWORD PTR _iCiv$223849[ebp], eax
$LN41@SetupPlaye:
	mov	ecx, OFFSET ?gGlobals@@3VCvGlobals@@A	; gGlobals
	call	?getNumCivilizationInfos@CvGlobals@@QAEHXZ ; CvGlobals::getNumCivilizationInfos
	cmp	DWORD PTR _iCiv$223849[ebp], eax
	jge	$LN39@SetupPlaye

; 330  : #endif
; 331  : 		{
; 332  : 			CvCivilizationInfo* pkCivilization = GC.getCivilizationInfo((CivilizationTypes)iCiv);

	mov	ecx, DWORD PTR _iCiv$223849[ebp]
	push	ecx
	mov	ecx, OFFSET ?gGlobals@@3VCvGlobals@@A	; gGlobals
	call	?getCivilizationInfo@CvGlobals@@QAEPAVCvCivilizationInfo@@W4CivilizationTypes@@@Z ; CvGlobals::getCivilizationInfo
	mov	DWORD PTR _pkCivilization$223853[ebp], eax

; 333  : 			if(pkCivilization != NULL && strcmp(kPlayer.m_szCivType, pkCivilization->GetType()) == 0)

	cmp	DWORD PTR _pkCivilization$223853[ebp], 0
	je	$LN38@SetupPlaye
	mov	ecx, DWORD PTR _pkCivilization$223853[ebp]
	add	ecx, 176				; 000000b0H
	call	DWORD PTR __imp_?c_str@?$basic_string@DU?$char_traits@D@std@@V?$allocator@D@2@@std@@QBEPBDXZ
	mov	DWORD PTR tv486[ebp], eax
	mov	edx, DWORD PTR _kPlayer$223847[ebp]
	add	edx, 160				; 000000a0H
	mov	DWORD PTR tv485[ebp], edx
$LL107@SetupPlaye:
	mov	eax, DWORD PTR tv485[ebp]
	mov	cl, BYTE PTR [eax]
	mov	BYTE PTR tv489[ebp], cl
	mov	edx, DWORD PTR tv486[ebp]
	cmp	cl, BYTE PTR [edx]
	jne	SHORT $LN108@SetupPlaye
	cmp	BYTE PTR tv489[ebp], 0
	je	SHORT $LN109@SetupPlaye
	mov	eax, DWORD PTR tv485[ebp]
	mov	cl, BYTE PTR [eax+1]
	mov	BYTE PTR tv496[ebp], cl
	mov	edx, DWORD PTR tv486[ebp]
	cmp	cl, BYTE PTR [edx+1]
	jne	SHORT $LN108@SetupPlaye
	add	DWORD PTR tv485[ebp], 2
	add	DWORD PTR tv486[ebp], 2
	cmp	BYTE PTR tv496[ebp], 0
	jne	SHORT $LL107@SetupPlaye
$LN109@SetupPlaye:
	mov	DWORD PTR tv501[ebp], 0
	jmp	SHORT $LN110@SetupPlaye
$LN108@SetupPlaye:
	sbb	eax, eax
	sbb	eax, -1
	mov	DWORD PTR tv501[ebp], eax
$LN110@SetupPlaye:
	mov	ecx, DWORD PTR tv501[ebp]
	mov	DWORD PTR tv131[ebp], ecx
	cmp	DWORD PTR tv131[ebp], 0
	jne	SHORT $LN38@SetupPlaye

; 334  : 			{
; 335  : 				eCivType = (CivilizationTypes)iCiv;

	mov	edx, DWORD PTR _iCiv$223849[ebp]
	mov	DWORD PTR _eCivType$223848[ebp], edx

; 336  : 				break;

	jmp	SHORT $LN39@SetupPlaye
$LN38@SetupPlaye:

; 337  : 			}
; 338  : 		}

	jmp	$LN40@SetupPlaye
$LN39@SetupPlaye:

; 339  : 
; 340  : 		CvPreGame::setCivilization(ePlayer, eCivType);

	mov	eax, DWORD PTR _eCivType$223848[ebp]
	push	eax
	mov	ecx, DWORD PTR _ePlayer$223843[ebp]
	push	ecx
	call	?setCivilization@CvPreGame@@YAXW4PlayerTypes@@W4CivilizationTypes@@@Z ; CvPreGame::setCivilization
	add	esp, 8

; 341  : 
; 342  : 		PlayerColorTypes eColorType = NO_PLAYERCOLOR;

	mov	DWORD PTR _eColorType$223857[ebp], -1

; 343  : #ifdef AUI_WARNING_FIXES
; 344  : 		for (uint iColor = 0; iColor < GC.GetNumPlayerColorInfos(); ++iColor)
; 345  : #else
; 346  : 		for(int iColor = 0; iColor < GC.GetNumPlayerColorInfos(); ++iColor)

	mov	DWORD PTR _iColor$223858[ebp], 0
	jmp	SHORT $LN37@SetupPlaye
$LN36@SetupPlaye:
	mov	edx, DWORD PTR _iColor$223858[ebp]
	add	edx, 1
	mov	DWORD PTR _iColor$223858[ebp], edx
$LN37@SetupPlaye:
	mov	ecx, OFFSET ?gGlobals@@3VCvGlobals@@A	; gGlobals
	call	?GetNumPlayerColorInfos@CvGlobals@@QAEHXZ ; CvGlobals::GetNumPlayerColorInfos
	cmp	DWORD PTR _iColor$223858[ebp], eax
	jge	$LN35@SetupPlaye

; 347  : #endif
; 348  : 		{
; 349  : 			CvPlayerColorInfo* pkColor = GC.GetPlayerColorInfo((PlayerColorTypes)iColor);

	mov	eax, DWORD PTR _iColor$223858[ebp]
	push	eax
	mov	ecx, OFFSET ?gGlobals@@3VCvGlobals@@A	; gGlobals
	call	?GetPlayerColorInfo@CvGlobals@@QAEPAVCvPlayerColorInfo@@W4PlayerColorTypes@@@Z ; CvGlobals::GetPlayerColorInfo
	mov	DWORD PTR _pkColor$223862[ebp], eax

; 350  : 			if(pkColor != NULL && strcmp(kPlayer.m_szTeamColor, pkColor->GetType()) == 0)

	cmp	DWORD PTR _pkColor$223862[ebp], 0
	je	$LN34@SetupPlaye
	mov	ecx, DWORD PTR _pkColor$223862[ebp]
	add	ecx, 176				; 000000b0H
	call	DWORD PTR __imp_?c_str@?$basic_string@DU?$char_traits@D@std@@V?$allocator@D@2@@std@@QBEPBDXZ
	mov	DWORD PTR tv517[ebp], eax
	mov	ecx, DWORD PTR _kPlayer$223847[ebp]
	add	ecx, 224				; 000000e0H
	mov	DWORD PTR tv516[ebp], ecx
$LL111@SetupPlaye:
	mov	edx, DWORD PTR tv516[ebp]
	mov	al, BYTE PTR [edx]
	mov	BYTE PTR tv520[ebp], al
	mov	ecx, DWORD PTR tv517[ebp]
	cmp	al, BYTE PTR [ecx]
	jne	SHORT $LN112@SetupPlaye
	cmp	BYTE PTR tv520[ebp], 0
	je	SHORT $LN113@SetupPlaye
	mov	edx, DWORD PTR tv516[ebp]
	mov	al, BYTE PTR [edx+1]
	mov	BYTE PTR tv527[ebp], al
	mov	ecx, DWORD PTR tv517[ebp]
	cmp	al, BYTE PTR [ecx+1]
	jne	SHORT $LN112@SetupPlaye
	add	DWORD PTR tv516[ebp], 2
	add	DWORD PTR tv517[ebp], 2
	cmp	BYTE PTR tv527[ebp], 0
	jne	SHORT $LL111@SetupPlaye
$LN113@SetupPlaye:
	mov	DWORD PTR tv532[ebp], 0
	jmp	SHORT $LN114@SetupPlaye
$LN112@SetupPlaye:
	sbb	edx, edx
	sbb	edx, -1
	mov	DWORD PTR tv532[ebp], edx
$LN114@SetupPlaye:
	mov	eax, DWORD PTR tv532[ebp]
	mov	DWORD PTR tv153[ebp], eax
	cmp	DWORD PTR tv153[ebp], 0
	jne	SHORT $LN34@SetupPlaye

; 351  : 			{
; 352  : 				eColorType = (PlayerColorTypes)iColor;

	mov	ecx, DWORD PTR _iColor$223858[ebp]
	mov	DWORD PTR _eColorType$223857[ebp], ecx

; 353  : 				break;

	jmp	SHORT $LN35@SetupPlaye
$LN34@SetupPlaye:

; 354  : 			}
; 355  : 		}

	jmp	$LN36@SetupPlaye
$LN35@SetupPlaye:

; 356  : 
; 357  : 		CvPreGame::setPlayerColor(ePlayer, eColorType);

	mov	edx, DWORD PTR _eColorType$223857[ebp]
	push	edx
	mov	eax, DWORD PTR _ePlayer$223843[ebp]
	push	eax
	call	?setPlayerColor@CvPreGame@@YAXW4PlayerTypes@@W4PlayerColorTypes@@@Z ; CvPreGame::setPlayerColor
	add	esp, 8

; 358  : 
; 359  : 		if(!(eStatus == SS_TAKEN && CvPreGame::overrideScenarioHandicap()))

	cmp	DWORD PTR _eStatus$223845[ebp], 3
	jne	SHORT $LN32@SetupPlaye
	call	?overrideScenarioHandicap@CvPreGame@@YA_NXZ ; CvPreGame::overrideScenarioHandicap
	movzx	ecx, al
	test	ecx, ecx
	jne	$LN33@SetupPlaye
$LN32@SetupPlaye:

; 360  : 		{
; 361  : 			HandicapTypes eHandicap = NO_HANDICAP;

	mov	DWORD PTR _eHandicap$223868[ebp], -1

; 362  : #ifdef AUI_WARNING_FIXES
; 363  : 			for (uint iHandicap = 0; iHandicap < GC.getNumHandicapInfos(); ++iHandicap)
; 364  : #else
; 365  : 			for(int iHandicap = 0; iHandicap < GC.getNumHandicapInfos(); ++iHandicap)

	mov	DWORD PTR _iHandicap$223869[ebp], 0
	jmp	SHORT $LN31@SetupPlaye
$LN30@SetupPlaye:
	mov	edx, DWORD PTR _iHandicap$223869[ebp]
	add	edx, 1
	mov	DWORD PTR _iHandicap$223869[ebp], edx
$LN31@SetupPlaye:
	mov	ecx, OFFSET ?gGlobals@@3VCvGlobals@@A	; gGlobals
	call	?getNumHandicapInfos@CvGlobals@@QAEHXZ	; CvGlobals::getNumHandicapInfos
	cmp	DWORD PTR _iHandicap$223869[ebp], eax
	jge	$LN29@SetupPlaye

; 366  : #endif
; 367  : 			{
; 368  : 				CvHandicapInfo* pkHandicap = GC.getHandicapInfo((HandicapTypes)iHandicap);

	mov	eax, DWORD PTR _iHandicap$223869[ebp]
	push	eax
	mov	ecx, OFFSET ?gGlobals@@3VCvGlobals@@A	; gGlobals
	call	?getHandicapInfo@CvGlobals@@QAEPAVCvHandicapInfo@@W4HandicapTypes@@@Z ; CvGlobals::getHandicapInfo
	mov	DWORD PTR _pkHandicap$223873[ebp], eax

; 369  : 				if(pkHandicap != NULL && strcmp(kPlayer.m_szHandicap, pkHandicap->GetType()) == 0)

	cmp	DWORD PTR _pkHandicap$223873[ebp], 0
	je	$LN28@SetupPlaye
	mov	ecx, DWORD PTR _pkHandicap$223873[ebp]
	add	ecx, 176				; 000000b0H
	call	DWORD PTR __imp_?c_str@?$basic_string@DU?$char_traits@D@std@@V?$allocator@D@2@@std@@QBEPBDXZ
	mov	DWORD PTR tv549[ebp], eax
	mov	ecx, DWORD PTR _kPlayer$223847[ebp]
	add	ecx, 352				; 00000160H
	mov	DWORD PTR tv548[ebp], ecx
$LL115@SetupPlaye:
	mov	edx, DWORD PTR tv548[ebp]
	mov	al, BYTE PTR [edx]
	mov	BYTE PTR tv552[ebp], al
	mov	ecx, DWORD PTR tv549[ebp]
	cmp	al, BYTE PTR [ecx]
	jne	SHORT $LN116@SetupPlaye
	cmp	BYTE PTR tv552[ebp], 0
	je	SHORT $LN117@SetupPlaye
	mov	edx, DWORD PTR tv548[ebp]
	mov	al, BYTE PTR [edx+1]
	mov	BYTE PTR tv559[ebp], al
	mov	ecx, DWORD PTR tv549[ebp]
	cmp	al, BYTE PTR [ecx+1]
	jne	SHORT $LN116@SetupPlaye
	add	DWORD PTR tv548[ebp], 2
	add	DWORD PTR tv549[ebp], 2
	cmp	BYTE PTR tv559[ebp], 0
	jne	SHORT $LL115@SetupPlaye
$LN117@SetupPlaye:
	mov	DWORD PTR tv564[ebp], 0
	jmp	SHORT $LN118@SetupPlaye
$LN116@SetupPlaye:
	sbb	edx, edx
	sbb	edx, -1
	mov	DWORD PTR tv564[ebp], edx
$LN118@SetupPlaye:
	mov	eax, DWORD PTR tv564[ebp]
	mov	DWORD PTR tv179[ebp], eax
	cmp	DWORD PTR tv179[ebp], 0
	jne	SHORT $LN28@SetupPlaye

; 370  : 				{
; 371  : 					eHandicap = (HandicapTypes)iHandicap;

	mov	ecx, DWORD PTR _iHandicap$223869[ebp]
	mov	DWORD PTR _eHandicap$223868[ebp], ecx

; 372  : 					break;

	jmp	SHORT $LN29@SetupPlaye
$LN28@SetupPlaye:

; 373  : 				}
; 374  : 			}

	jmp	$LN30@SetupPlaye
$LN29@SetupPlaye:

; 375  : 
; 376  : 			CvPreGame::setHandicap(ePlayer, eHandicap);

	mov	edx, DWORD PTR _eHandicap$223868[ebp]
	push	edx
	mov	eax, DWORD PTR _ePlayer$223843[ebp]
	push	eax
	call	?setHandicap@CvPreGame@@YAXW4PlayerTypes@@W4HandicapTypes@@@Z ; CvPreGame::setHandicap
	add	esp, 8
$LN33@SetupPlaye:

; 377  : 		}
; 378  : 
; 379  : 		CvPreGame::setTeamType(ePlayer, (TeamTypes)kPlayer.m_byTeam);

	mov	ecx, DWORD PTR _kPlayer$223847[ebp]
	movzx	edx, BYTE PTR [ecx+432]
	push	edx
	mov	eax, DWORD PTR _ePlayer$223843[ebp]
	push	eax
	call	?setTeamType@CvPreGame@@YAXW4PlayerTypes@@W4TeamTypes@@@Z ; CvPreGame::setTeamType
	add	esp, 8

; 380  : 		CvPreGame::setMinorCiv(ePlayer, false);

	push	0
	mov	ecx, DWORD PTR _ePlayer$223843[ebp]
	push	ecx
	call	?setMinorCiv@CvPreGame@@YAXW4PlayerTypes@@_N@Z ; CvPreGame::setMinorCiv
	add	esp, 8

; 381  : 
; 382  : #ifdef AUI_WARNING_FIXES
; 383  : 		if (kPlayer.m_szLeaderName[0] != '\0')
; 384  : #else
; 385  : 		if(strlen(kPlayer.m_szLeaderName) > 0)

	mov	edx, DWORD PTR _kPlayer$223847[ebp]
	add	edx, 32					; 00000020H
	mov	DWORD PTR tv577[ebp], edx
	mov	eax, DWORD PTR tv577[ebp]
	add	eax, 1
	mov	DWORD PTR tv580[ebp], eax
$LL119@SetupPlaye:
	mov	ecx, DWORD PTR tv577[ebp]
	mov	dl, BYTE PTR [ecx]
	mov	BYTE PTR tv583[ebp], dl
	add	DWORD PTR tv577[ebp], 1
	cmp	BYTE PTR tv583[ebp], 0
	jne	SHORT $LL119@SetupPlaye
	mov	eax, DWORD PTR tv577[ebp]
	sub	eax, DWORD PTR tv580[ebp]
	mov	DWORD PTR tv192[ebp], eax
	je	SHORT $LN27@SetupPlaye

; 386  : #endif
; 387  : 			CvPreGame::setLeaderName(ePlayer, kPlayer.m_szLeaderName);

	mov	ecx, DWORD PTR _kPlayer$223847[ebp]
	add	ecx, 32					; 00000020H
	mov	DWORD PTR $T227870[ebp], ecx
	je	SHORT $LN69@SetupPlaye
	mov	edx, DWORD PTR $T227870[ebp]
	mov	DWORD PTR tv393[ebp], edx
	jmp	SHORT $LN70@SetupPlaye
$LN69@SetupPlaye:
	mov	DWORD PTR tv393[ebp], OFFSET ??_C@_00CNPNBAHC@?$AA@
$LN70@SetupPlaye:
	mov	eax, DWORD PTR tv393[ebp]
	push	eax
	lea	ecx, DWORD PTR $T227827[ebp]
	call	DWORD PTR __imp_??0?$basic_string@DU?$char_traits@D@std@@V?$allocator@D@2@@std@@QAE@PBD@Z
	mov	DWORD PTR __$EHRec$[ebp+8], 0
	lea	ecx, DWORD PTR $T227827[ebp]
	push	ecx
	mov	edx, DWORD PTR _ePlayer$223843[ebp]
	push	edx
	call	?setLeaderName@CvPreGame@@YAXW4PlayerTypes@@ABVCvString@@@Z ; CvPreGame::setLeaderName
	add	esp, 8
	mov	DWORD PTR __$EHRec$[ebp+8], -1
	lea	ecx, DWORD PTR $T227827[ebp]
	call	DWORD PTR __imp_??1?$basic_string@DU?$char_traits@D@std@@V?$allocator@D@2@@std@@QAE@XZ
$LN27@SetupPlaye:

; 388  : 
; 389  : #ifdef AUI_WARNING_FIXES
; 390  : 		if (kPlayer.m_szCivName[0] != '\0')
; 391  : #else
; 392  : 		if(strlen(kPlayer.m_szCivName) > 0)

	mov	eax, DWORD PTR _kPlayer$223847[ebp]
	add	eax, 96					; 00000060H
	mov	DWORD PTR tv594[ebp], eax
	mov	ecx, DWORD PTR tv594[ebp]
	add	ecx, 1
	mov	DWORD PTR tv597[ebp], ecx
$LL120@SetupPlaye:
	mov	edx, DWORD PTR tv594[ebp]
	mov	al, BYTE PTR [edx]
	mov	BYTE PTR tv600[ebp], al
	add	DWORD PTR tv594[ebp], 1
	cmp	BYTE PTR tv600[ebp], 0
	jne	SHORT $LL120@SetupPlaye
	mov	ecx, DWORD PTR tv594[ebp]
	sub	ecx, DWORD PTR tv597[ebp]
	mov	DWORD PTR tv204[ebp], ecx
	je	$LN26@SetupPlaye

; 393  : #endif
; 394  : 		{
; 395  : 			CvPreGame::setCivilizationShortDescription(ePlayer, kPlayer.m_szCivName);

	mov	edx, DWORD PTR _kPlayer$223847[ebp]
	add	edx, 96					; 00000060H
	mov	DWORD PTR $T227883[ebp], edx
	je	SHORT $LN77@SetupPlaye
	mov	eax, DWORD PTR $T227883[ebp]
	mov	DWORD PTR tv411[ebp], eax
	jmp	SHORT $LN78@SetupPlaye
$LN77@SetupPlaye:
	mov	DWORD PTR tv411[ebp], OFFSET ??_C@_00CNPNBAHC@?$AA@
$LN78@SetupPlaye:
	mov	ecx, DWORD PTR tv411[ebp]
	push	ecx
	lea	ecx, DWORD PTR $T227828[ebp]
	call	DWORD PTR __imp_??0?$basic_string@DU?$char_traits@D@std@@V?$allocator@D@2@@std@@QAE@PBD@Z
	mov	DWORD PTR __$EHRec$[ebp+8], 1
	lea	edx, DWORD PTR $T227828[ebp]
	push	edx
	mov	eax, DWORD PTR _ePlayer$223843[ebp]
	push	eax
	call	?setCivilizationShortDescription@CvPreGame@@YAXW4PlayerTypes@@ABVCvString@@@Z ; CvPreGame::setCivilizationShortDescription
	add	esp, 8
	mov	DWORD PTR __$EHRec$[ebp+8], -1
	lea	ecx, DWORD PTR $T227828[ebp]
	call	DWORD PTR __imp_??1?$basic_string@DU?$char_traits@D@std@@V?$allocator@D@2@@std@@QAE@XZ

; 396  : 			CvPreGame::setCivilizationDescription(ePlayer, kPlayer.m_szCivName);

	mov	ecx, DWORD PTR _kPlayer$223847[ebp]
	add	ecx, 96					; 00000060H
	mov	DWORD PTR $T227896[ebp], ecx
	je	SHORT $LN85@SetupPlaye
	mov	edx, DWORD PTR $T227896[ebp]
	mov	DWORD PTR tv429[ebp], edx
	jmp	SHORT $LN86@SetupPlaye
$LN85@SetupPlaye:
	mov	DWORD PTR tv429[ebp], OFFSET ??_C@_00CNPNBAHC@?$AA@
$LN86@SetupPlaye:
	mov	eax, DWORD PTR tv429[ebp]
	push	eax
	lea	ecx, DWORD PTR $T227829[ebp]
	call	DWORD PTR __imp_??0?$basic_string@DU?$char_traits@D@std@@V?$allocator@D@2@@std@@QAE@PBD@Z
	mov	DWORD PTR __$EHRec$[ebp+8], 2
	lea	ecx, DWORD PTR $T227829[ebp]
	push	ecx
	mov	edx, DWORD PTR _ePlayer$223843[ebp]
	push	edx
	call	?setCivilizationDescription@CvPreGame@@YAXW4PlayerTypes@@ABVCvString@@@Z ; CvPreGame::setCivilizationDescription
	add	esp, 8
	mov	DWORD PTR __$EHRec$[ebp+8], -1
	lea	ecx, DWORD PTR $T227829[ebp]
	call	DWORD PTR __imp_??1?$basic_string@DU?$char_traits@D@std@@V?$allocator@D@2@@std@@QAE@XZ
$LN26@SetupPlaye:

; 397  : 		}
; 398  : 	}

	jmp	$LN44@SetupPlaye
$LN43@SetupPlaye:

; 399  : 
; 400  : 	// If this is a map with defined player slots then close any slots out of this defined range
; 401  : 	// that are being filled by computer players.  Hopefully there aren't any human players there.
; 402  : 	const uint uiPlayerSlotCount = sg_kMapInfo.uiMajorCivStartingPositions + sg_kMapInfo.uiPlayers;

	mov	eax, DWORD PTR _sg_kMapInfo+16
	add	eax, DWORD PTR _sg_kMapInfo+8
	mov	DWORD PTR _uiPlayerSlotCount$[ebp], eax

; 403  : 	if(uiPlayerSlotCount > 0)

	je	SHORT $LN25@SetupPlaye

; 404  : 	{
; 405  : 		for(uint i = uiPlayerSlotCount; i < MAX_MAJOR_CIVS; ++i)

	mov	ecx, DWORD PTR _uiPlayerSlotCount$[ebp]
	mov	DWORD PTR _i$223885[ebp], ecx
	jmp	SHORT $LN24@SetupPlaye
$LN23@SetupPlaye:
	mov	edx, DWORD PTR _i$223885[ebp]
	add	edx, 1
	mov	DWORD PTR _i$223885[ebp], edx
$LN24@SetupPlaye:
	cmp	DWORD PTR _i$223885[ebp], 22		; 00000016H
	jae	SHORT $LN25@SetupPlaye

; 406  : 		{
; 407  : 			const PlayerTypes ePlayer = (PlayerTypes)i;

	mov	eax, DWORD PTR _i$223885[ebp]
	mov	DWORD PTR _ePlayer$223889[ebp], eax

; 408  : 			const SlotStatus eStatus = CvPreGame::slotStatus(ePlayer);

	mov	ecx, DWORD PTR _ePlayer$223889[ebp]
	push	ecx
	call	?slotStatus@CvPreGame@@YA?AW4SlotStatus@@W4PlayerTypes@@@Z ; CvPreGame::slotStatus
	add	esp, 4
	mov	DWORD PTR _eStatus$223891[ebp], eax

; 409  : 			if(eStatus == SS_COMPUTER)

	cmp	DWORD PTR _eStatus$223891[ebp], 1
	jne	SHORT $LN21@SetupPlaye

; 410  : 				CvPreGame::resetPlayer(ePlayer);	// Do a full reset, which will also close the slot.  A reset is better so that the player data does not get initialized later.

	mov	edx, DWORD PTR _ePlayer$223889[ebp]
	push	edx
	call	?resetPlayer@CvPreGame@@YAXW4PlayerTypes@@@Z ; CvPreGame::resetPlayer
	add	esp, 4
$LN21@SetupPlaye:

; 411  : 		}

	jmp	SHORT $LN23@SetupPlaye
$LN25@SetupPlaye:

; 412  : 	}
; 413  : 
; 414  : #ifdef AUI_WARNING_FIXES
; 415  : 	const byte uiCityStateCount = MIN(sg_kSave.GetCityStateCount(), (byte)MAX_MINOR_CIVS);
; 416  : #else
; 417  : 	const uint uiCityStateCount = std::min(sg_kSave.GetCityStateCount(), (byte)MAX_MINOR_CIVS);

	mov	BYTE PTR $T227830[ebp], 41		; 00000029H
	mov	al, BYTE PTR _sg_kSave+12317
	mov	BYTE PTR $T227904[ebp], al
	mov	cl, BYTE PTR $T227904[ebp]
	mov	BYTE PTR $T227831[ebp], cl
	movzx	edx, BYTE PTR $T227830[ebp]
	movzx	eax, BYTE PTR $T227831[ebp]
	cmp	edx, eax
	jge	SHORT $LN95@SetupPlaye
	lea	ecx, DWORD PTR $T227830[ebp]
	mov	DWORD PTR tv444[ebp], ecx
	jmp	SHORT $LN96@SetupPlaye
$LN95@SetupPlaye:
	lea	edx, DWORD PTR $T227831[ebp]
	mov	DWORD PTR tv444[ebp], edx
$LN96@SetupPlaye:
	mov	eax, DWORD PTR tv444[ebp]
	mov	DWORD PTR $T227911[ebp], eax
	mov	ecx, DWORD PTR $T227911[ebp]
	movzx	edx, BYTE PTR [ecx]
	mov	DWORD PTR _uiCityStateCount$[ebp], edx

; 418  : #endif
; 419  : 
; 420  : 	if(uiCityStateCount > 0)

	cmp	DWORD PTR _uiCityStateCount$[ebp], 0
	jbe	SHORT $LN20@SetupPlaye

; 421  : 		CvPreGame::setNumMinorCivs(uiCityStateCount);

	mov	eax, DWORD PTR _uiCityStateCount$[ebp]
	push	eax
	call	?setNumMinorCivs@CvPreGame@@YAXH@Z	; CvPreGame::setNumMinorCivs
	add	esp, 4
	jmp	SHORT $LN19@SetupPlaye
$LN20@SetupPlaye:

; 422  : 	else if(sg_kMapInfo.uiMinorCivStartingPositions > 0)

	cmp	DWORD PTR _sg_kMapInfo+20, 0
	jbe	SHORT $LN18@SetupPlaye

; 423  : 		CvPreGame::setNumMinorCivs(sg_kMapInfo.uiMinorCivStartingPositions);

	mov	ecx, DWORD PTR _sg_kMapInfo+20
	push	ecx
	call	?setNumMinorCivs@CvPreGame@@YAXH@Z	; CvPreGame::setNumMinorCivs
	add	esp, 4
	jmp	SHORT $LN19@SetupPlaye
$LN18@SetupPlaye:

; 424  : 	else if(!CvPreGame::mapNoPlayers())

	call	?mapNoPlayers@CvPreGame@@YA_NXZ		; CvPreGame::mapNoPlayers
	movzx	edx, al
	test	edx, edx
	jne	SHORT $LN19@SetupPlaye

; 425  : 		CvPreGame::setNumMinorCivs(0);

	push	0
	call	?setNumMinorCivs@CvPreGame@@YAXH@Z	; CvPreGame::setNumMinorCivs
	add	esp, 4
$LN19@SetupPlaye:

; 426  : 
; 427  : #ifdef AUI_WARNING_FIXES
; 428  : 	for (byte i = 0; i < uiCityStateCount; ++i)
; 429  : #else
; 430  : 	for(uint i = 0; i < uiCityStateCount; ++i)

	mov	DWORD PTR _i$223902[ebp], 0
	jmp	SHORT $LN15@SetupPlaye
$LN14@SetupPlaye:
	mov	eax, DWORD PTR _i$223902[ebp]
	add	eax, 1
	mov	DWORD PTR _i$223902[ebp], eax
$LN15@SetupPlaye:
	mov	ecx, DWORD PTR _i$223902[ebp]
	cmp	ecx, DWORD PTR _uiCityStateCount$[ebp]
	jae	$LN46@SetupPlaye

; 431  : #endif
; 432  : 	{
; 433  : 		const PlayerTypes ePlayer = (PlayerTypes)(i + MAX_MAJOR_CIVS);

	mov	edx, DWORD PTR _i$223902[ebp]
	add	edx, 22					; 00000016H
	mov	DWORD PTR _ePlayer$223906[ebp], edx

; 434  : 		const CvWorldBuilderMap::Player& kPlayer = sg_kSave.GetCityState(i);

	movzx	eax, BYTE PTR _i$223902[ebp]
	movzx	ecx, BYTE PTR _sg_kSave+12317
	cmp	eax, ecx
	jge	SHORT $LN98@SetupPlaye
	movzx	edx, BYTE PTR _i$223902[ebp]
	cmp	edx, 64					; 00000040H
	jae	SHORT $LN98@SetupPlaye
	movzx	eax, BYTE PTR _i$223902[ebp]
	imul	eax, 436				; 000001b4H
	add	eax, OFFSET _sg_kSave+550560
	mov	DWORD PTR _kPlayer$223908[ebp], eax
	jmp	SHORT $LN99@SetupPlaye
	jmp	SHORT $LN99@SetupPlaye
$LN98@SetupPlaye:
	mov	DWORD PTR _kPlayer$223908[ebp], OFFSET ?sm_kErrorPlayer@CvWorldBuilderMap@@0UPlayer@1@A ; CvWorldBuilderMap::sm_kErrorPlayer
$LN99@SetupPlaye:

; 435  : 
; 436  : 		MinorCivTypes eCivType = NO_MINORCIV;

	mov	DWORD PTR _eCivType$223909[ebp], -1

; 437  : #ifdef AUI_WARNING_FIXES
; 438  : 		for (uint iCiv = 0; iCiv < GC.getNumMinorCivInfos(); ++iCiv)
; 439  : #else
; 440  : 		for(int iCiv = 0; iCiv < GC.getNumMinorCivInfos(); ++iCiv)

	mov	DWORD PTR _iCiv$223910[ebp], 0
	jmp	SHORT $LN12@SetupPlaye
$LN11@SetupPlaye:
	mov	ecx, DWORD PTR _iCiv$223910[ebp]
	add	ecx, 1
	mov	DWORD PTR _iCiv$223910[ebp], ecx
$LN12@SetupPlaye:
	mov	ecx, OFFSET ?gGlobals@@3VCvGlobals@@A	; gGlobals
	call	?getNumMinorCivInfos@CvGlobals@@QAEHXZ	; CvGlobals::getNumMinorCivInfos
	cmp	DWORD PTR _iCiv$223910[ebp], eax
	jge	$LN10@SetupPlaye

; 441  : #endif
; 442  : 		{
; 443  : 			CvMinorCivInfo* pkCivilization = GC.getMinorCivInfo((MinorCivTypes)iCiv);

	mov	edx, DWORD PTR _iCiv$223910[ebp]
	push	edx
	mov	ecx, OFFSET ?gGlobals@@3VCvGlobals@@A	; gGlobals
	call	?getMinorCivInfo@CvGlobals@@QAEPAVCvMinorCivInfo@@W4MinorCivTypes@@@Z ; CvGlobals::getMinorCivInfo
	mov	DWORD PTR _pkCivilization$223914[ebp], eax

; 444  : 			if(pkCivilization != NULL && strcmp(kPlayer.m_szCivType, pkCivilization->GetType()) == 0)

	cmp	DWORD PTR _pkCivilization$223914[ebp], 0
	je	$LN9@SetupPlaye
	mov	ecx, DWORD PTR _pkCivilization$223914[ebp]
	add	ecx, 176				; 000000b0H
	call	DWORD PTR __imp_?c_str@?$basic_string@DU?$char_traits@D@std@@V?$allocator@D@2@@std@@QBEPBDXZ
	mov	DWORD PTR tv641[ebp], eax
	mov	eax, DWORD PTR _kPlayer$223908[ebp]
	add	eax, 160				; 000000a0H
	mov	DWORD PTR tv640[ebp], eax
$LL121@SetupPlaye:
	mov	ecx, DWORD PTR tv640[ebp]
	mov	dl, BYTE PTR [ecx]
	mov	BYTE PTR tv644[ebp], dl
	mov	eax, DWORD PTR tv641[ebp]
	cmp	dl, BYTE PTR [eax]
	jne	SHORT $LN122@SetupPlaye
	cmp	BYTE PTR tv644[ebp], 0
	je	SHORT $LN123@SetupPlaye
	mov	ecx, DWORD PTR tv640[ebp]
	mov	dl, BYTE PTR [ecx+1]
	mov	BYTE PTR tv651[ebp], dl
	mov	eax, DWORD PTR tv641[ebp]
	cmp	dl, BYTE PTR [eax+1]
	jne	SHORT $LN122@SetupPlaye
	add	DWORD PTR tv640[ebp], 2
	add	DWORD PTR tv641[ebp], 2
	cmp	BYTE PTR tv651[ebp], 0
	jne	SHORT $LL121@SetupPlaye
$LN123@SetupPlaye:
	mov	DWORD PTR tv656[ebp], 0
	jmp	SHORT $LN124@SetupPlaye
$LN122@SetupPlaye:
	sbb	ecx, ecx
	sbb	ecx, -1
	mov	DWORD PTR tv656[ebp], ecx
$LN124@SetupPlaye:
	mov	edx, DWORD PTR tv656[ebp]
	mov	DWORD PTR tv298[ebp], edx
	cmp	DWORD PTR tv298[ebp], 0
	jne	SHORT $LN9@SetupPlaye

; 445  : 			{
; 446  : 				eCivType = (MinorCivTypes)iCiv;

	mov	eax, DWORD PTR _iCiv$223910[ebp]
	mov	DWORD PTR _eCivType$223909[ebp], eax

; 447  : 				break;

	jmp	SHORT $LN10@SetupPlaye
$LN9@SetupPlaye:

; 448  : 			}
; 449  : 		}

	jmp	$LN11@SetupPlaye
$LN10@SetupPlaye:

; 450  : 
; 451  : 		CvPreGame::setMinorCivType(ePlayer, eCivType);

	mov	ecx, DWORD PTR _eCivType$223909[ebp]
	push	ecx
	mov	edx, DWORD PTR _ePlayer$223906[ebp]
	push	edx
	call	?setMinorCivType@CvPreGame@@YAXW4PlayerTypes@@W4MinorCivTypes@@@Z ; CvPreGame::setMinorCivType
	add	esp, 8

; 452  : 
; 453  : 		PlayerColorTypes eColorType = NO_PLAYERCOLOR;

	mov	DWORD PTR _eColorType$223918[ebp], -1

; 454  : #ifdef AUI_WARNING_FIXES
; 455  : 		for (uint iColor = 0; iColor < GC.GetNumPlayerColorInfos(); ++iColor)
; 456  : #else
; 457  : 		for(int iColor = 0; iColor < GC.GetNumPlayerColorInfos(); ++iColor)

	mov	DWORD PTR _iColor$223919[ebp], 0
	jmp	SHORT $LN8@SetupPlaye
$LN7@SetupPlaye:
	mov	eax, DWORD PTR _iColor$223919[ebp]
	add	eax, 1
	mov	DWORD PTR _iColor$223919[ebp], eax
$LN8@SetupPlaye:
	mov	ecx, OFFSET ?gGlobals@@3VCvGlobals@@A	; gGlobals
	call	?GetNumPlayerColorInfos@CvGlobals@@QAEHXZ ; CvGlobals::GetNumPlayerColorInfos
	cmp	DWORD PTR _iColor$223919[ebp], eax
	jge	$LN6@SetupPlaye

; 458  : #endif
; 459  : 		{
; 460  : 			CvPlayerColorInfo* pkColor = GC.GetPlayerColorInfo((PlayerColorTypes)iColor);

	mov	ecx, DWORD PTR _iColor$223919[ebp]
	push	ecx
	mov	ecx, OFFSET ?gGlobals@@3VCvGlobals@@A	; gGlobals
	call	?GetPlayerColorInfo@CvGlobals@@QAEPAVCvPlayerColorInfo@@W4PlayerColorTypes@@@Z ; CvGlobals::GetPlayerColorInfo
	mov	DWORD PTR _pkColor$223923[ebp], eax

; 461  : 			if(pkColor != NULL && strcmp(kPlayer.m_szTeamColor, pkColor->GetType()) == 0)

	cmp	DWORD PTR _pkColor$223923[ebp], 0
	je	$LN5@SetupPlaye
	mov	ecx, DWORD PTR _pkColor$223923[ebp]
	add	ecx, 176				; 000000b0H
	call	DWORD PTR __imp_?c_str@?$basic_string@DU?$char_traits@D@std@@V?$allocator@D@2@@std@@QBEPBDXZ
	mov	DWORD PTR tv672[ebp], eax
	mov	edx, DWORD PTR _kPlayer$223908[ebp]
	add	edx, 224				; 000000e0H
	mov	DWORD PTR tv671[ebp], edx
$LL125@SetupPlaye:
	mov	eax, DWORD PTR tv671[ebp]
	mov	cl, BYTE PTR [eax]
	mov	BYTE PTR tv675[ebp], cl
	mov	edx, DWORD PTR tv672[ebp]
	cmp	cl, BYTE PTR [edx]
	jne	SHORT $LN126@SetupPlaye
	cmp	BYTE PTR tv675[ebp], 0
	je	SHORT $LN127@SetupPlaye
	mov	eax, DWORD PTR tv671[ebp]
	mov	cl, BYTE PTR [eax+1]
	mov	BYTE PTR tv682[ebp], cl
	mov	edx, DWORD PTR tv672[ebp]
	cmp	cl, BYTE PTR [edx+1]
	jne	SHORT $LN126@SetupPlaye
	add	DWORD PTR tv671[ebp], 2
	add	DWORD PTR tv672[ebp], 2
	cmp	BYTE PTR tv682[ebp], 0
	jne	SHORT $LL125@SetupPlaye
$LN127@SetupPlaye:
	mov	DWORD PTR tv687[ebp], 0
	jmp	SHORT $LN128@SetupPlaye
$LN126@SetupPlaye:
	sbb	eax, eax
	sbb	eax, -1
	mov	DWORD PTR tv687[ebp], eax
$LN128@SetupPlaye:
	mov	ecx, DWORD PTR tv687[ebp]
	mov	DWORD PTR tv320[ebp], ecx
	cmp	DWORD PTR tv320[ebp], 0
	jne	SHORT $LN5@SetupPlaye

; 462  : 			{
; 463  : 				eColorType = (PlayerColorTypes)iColor;

	mov	edx, DWORD PTR _iColor$223919[ebp]
	mov	DWORD PTR _eColorType$223918[ebp], edx

; 464  : 				break;

	jmp	SHORT $LN6@SetupPlaye
$LN5@SetupPlaye:

; 465  : 			}
; 466  : 		}

	jmp	$LN7@SetupPlaye
$LN6@SetupPlaye:

; 467  : 
; 468  : 		CvPreGame::setPlayerColor(ePlayer, eColorType);

	mov	eax, DWORD PTR _eColorType$223918[ebp]
	push	eax
	mov	ecx, DWORD PTR _ePlayer$223906[ebp]
	push	ecx
	call	?setPlayerColor@CvPreGame@@YAXW4PlayerTypes@@W4PlayerColorTypes@@@Z ; CvPreGame::setPlayerColor
	add	esp, 8

; 469  : 
; 470  : 		HandicapTypes eHandicap = NO_HANDICAP;

	mov	DWORD PTR _eHandicap$223927[ebp], -1

; 471  : #ifdef AUI_WARNING_FIXES
; 472  : 		for (uint iHandicap = 0; iHandicap < GC.getNumHandicapInfos(); ++iHandicap)
; 473  : #else
; 474  : 		for(int iHandicap = 0; iHandicap < GC.getNumHandicapInfos(); ++iHandicap)

	mov	DWORD PTR _iHandicap$223928[ebp], 0
	jmp	SHORT $LN4@SetupPlaye
$LN3@SetupPlaye:
	mov	edx, DWORD PTR _iHandicap$223928[ebp]
	add	edx, 1
	mov	DWORD PTR _iHandicap$223928[ebp], edx
$LN4@SetupPlaye:
	mov	ecx, OFFSET ?gGlobals@@3VCvGlobals@@A	; gGlobals
	call	?getNumHandicapInfos@CvGlobals@@QAEHXZ	; CvGlobals::getNumHandicapInfos
	cmp	DWORD PTR _iHandicap$223928[ebp], eax
	jge	$LN2@SetupPlaye

; 475  : #endif
; 476  : 		{
; 477  : 			CvHandicapInfo* pkHandicap = GC.getHandicapInfo((HandicapTypes)iHandicap);

	mov	eax, DWORD PTR _iHandicap$223928[ebp]
	push	eax
	mov	ecx, OFFSET ?gGlobals@@3VCvGlobals@@A	; gGlobals
	call	?getHandicapInfo@CvGlobals@@QAEPAVCvHandicapInfo@@W4HandicapTypes@@@Z ; CvGlobals::getHandicapInfo
	mov	DWORD PTR _pkHandicap$223932[ebp], eax

; 478  : 			if(pkHandicap != NULL && strcmp(kPlayer.m_szHandicap, pkHandicap->GetType()) == 0)

	cmp	DWORD PTR _pkHandicap$223932[ebp], 0
	je	$LN1@SetupPlaye
	mov	ecx, DWORD PTR _pkHandicap$223932[ebp]
	add	ecx, 176				; 000000b0H
	call	DWORD PTR __imp_?c_str@?$basic_string@DU?$char_traits@D@std@@V?$allocator@D@2@@std@@QBEPBDXZ
	mov	DWORD PTR tv703[ebp], eax
	mov	ecx, DWORD PTR _kPlayer$223908[ebp]
	add	ecx, 352				; 00000160H
	mov	DWORD PTR tv702[ebp], ecx
$LL129@SetupPlaye:
	mov	edx, DWORD PTR tv702[ebp]
	mov	al, BYTE PTR [edx]
	mov	BYTE PTR tv706[ebp], al
	mov	ecx, DWORD PTR tv703[ebp]
	cmp	al, BYTE PTR [ecx]
	jne	SHORT $LN130@SetupPlaye
	cmp	BYTE PTR tv706[ebp], 0
	je	SHORT $LN131@SetupPlaye
	mov	edx, DWORD PTR tv702[ebp]
	mov	al, BYTE PTR [edx+1]
	mov	BYTE PTR tv713[ebp], al
	mov	ecx, DWORD PTR tv703[ebp]
	cmp	al, BYTE PTR [ecx+1]
	jne	SHORT $LN130@SetupPlaye
	add	DWORD PTR tv702[ebp], 2
	add	DWORD PTR tv703[ebp], 2
	cmp	BYTE PTR tv713[ebp], 0
	jne	SHORT $LL129@SetupPlaye
$LN131@SetupPlaye:
	mov	DWORD PTR tv718[ebp], 0
	jmp	SHORT $LN132@SetupPlaye
$LN130@SetupPlaye:
	sbb	edx, edx
	sbb	edx, -1
	mov	DWORD PTR tv718[ebp], edx
$LN132@SetupPlaye:
	mov	eax, DWORD PTR tv718[ebp]
	mov	DWORD PTR tv342[ebp], eax
	cmp	DWORD PTR tv342[ebp], 0
	jne	SHORT $LN1@SetupPlaye

; 479  : 			{
; 480  : 				eHandicap = (HandicapTypes)iHandicap;

	mov	ecx, DWORD PTR _iHandicap$223928[ebp]
	mov	DWORD PTR _eHandicap$223927[ebp], ecx

; 481  : 				break;

	jmp	SHORT $LN2@SetupPlaye
$LN1@SetupPlaye:

; 482  : 			}
; 483  : 		}

	jmp	$LN3@SetupPlaye
$LN2@SetupPlaye:

; 484  : 
; 485  : 		CvPreGame::setHandicap(ePlayer, eHandicap);

	mov	edx, DWORD PTR _eHandicap$223927[ebp]
	push	edx
	mov	eax, DWORD PTR _ePlayer$223906[ebp]
	push	eax
	call	?setHandicap@CvPreGame@@YAXW4PlayerTypes@@W4HandicapTypes@@@Z ; CvPreGame::setHandicap
	add	esp, 8

; 486  : 
; 487  : 		CvPreGame::setSlotStatus(ePlayer, SS_COMPUTER);

	push	1
	mov	ecx, DWORD PTR _ePlayer$223906[ebp]
	push	ecx
	call	?setSlotStatus@CvPreGame@@YAXW4PlayerTypes@@W4SlotStatus@@@Z ; CvPreGame::setSlotStatus
	add	esp, 8

; 488  : 		CvPreGame::setTeamType(ePlayer, (TeamTypes)kPlayer.m_byTeam);

	mov	edx, DWORD PTR _kPlayer$223908[ebp]
	movzx	eax, BYTE PTR [edx+432]
	push	eax
	mov	ecx, DWORD PTR _ePlayer$223906[ebp]
	push	ecx
	call	?setTeamType@CvPreGame@@YAXW4PlayerTypes@@W4TeamTypes@@@Z ; CvPreGame::setTeamType
	add	esp, 8

; 489  : 		CvPreGame::setMinorCiv(ePlayer, true);

	push	1
	mov	edx, DWORD PTR _ePlayer$223906[ebp]
	push	edx
	call	?setMinorCiv@CvPreGame@@YAXW4PlayerTypes@@_N@Z ; CvPreGame::setMinorCiv
	add	esp, 8
	jmp	$LN14@SetupPlaye
$LN46@SetupPlaye:

; 490  : 	}
; 491  : }

	mov	ecx, DWORD PTR __$EHRec$[ebp]
	mov	DWORD PTR fs:0, ecx
	pop	ecx
	mov	esp, ebp
	pop	ebp
	ret	0
_TEXT	ENDS
;	COMDAT text$x
text$x	SEGMENT
__unwindfunclet$?SetupPlayers@CvWorldBuilderMapLoader@@SAXXZ$0:
	lea	ecx, DWORD PTR $T227827[ebp]
	jmp	??1CvString@@QAE@XZ			; CvString::~CvString
__unwindfunclet$?SetupPlayers@CvWorldBuilderMapLoader@@SAXXZ$1:
	lea	ecx, DWORD PTR $T227828[ebp]
	jmp	??1CvString@@QAE@XZ			; CvString::~CvString
__unwindfunclet$?SetupPlayers@CvWorldBuilderMapLoader@@SAXXZ$2:
	lea	ecx, DWORD PTR $T227829[ebp]
	jmp	??1CvString@@QAE@XZ			; CvString::~CvString
__ehhandler$?SetupPlayers@CvWorldBuilderMapLoader@@SAXXZ:
	mov	edx, DWORD PTR [esp+8]
	lea	eax, DWORD PTR [edx+12]
	mov	ecx, DWORD PTR [edx-416]
	xor	ecx, eax
	call	@__security_check_cookie@4
	mov	eax, OFFSET __ehfuncinfo$?SetupPlayers@CvWorldBuilderMapLoader@@SAXXZ
	jmp	___CxxFrameHandler3
text$x	ENDS
?SetupPlayers@CvWorldBuilderMapLoader@@SAXXZ ENDP	; CvWorldBuilderMapLoader::SetupPlayers
PUBLIC	?_Xran@?$bitset@$0BAA@@std@@ABEXXZ		; std::bitset<256>::_Xran
PUBLIC	?SetPlayerInitialItems@@YAXAAVCvPlayer@@ABUPlayer@CvWorldBuilderMap@@@Z ; SetPlayerInitialItems
EXTRN	?setHasTech@CvTeam@@QAEXW4TechTypes@@_NW4PlayerTypes@@11@Z:PROC ; CvTeam::setHasTech
EXTRN	?GetEra@CvTechEntry@@QBEHXZ:PROC		; CvTechEntry::GetEra
EXTRN	?getEraInfo@CvGlobals@@QAEPAVCvEraInfo@@W4EraTypes@@@Z:PROC ; CvGlobals::getEraInfo
EXTRN	?getNumEraInfos@CvGlobals@@QAEHXZ:PROC		; CvGlobals::getNumEraInfos
EXTRN	?m_aTeams@CvTeam@@1PAV1@A:DWORD			; CvTeam::m_aTeams
EXTRN	?setHasPolicy@CvPlayer@@QAEXW4PolicyTypes@@_N@Z:PROC ; CvPlayer::setHasPolicy
EXTRN	?SetPolicyBranchUnlocked@CvPlayerPolicies@@QAEXW4PolicyBranchTypes@@_N1@Z:PROC ; CvPlayerPolicies::SetPolicyBranchUnlocked
EXTRN	?IsPolicyBranchUnlocked@CvPlayerPolicies@@QBE_NW4PolicyBranchTypes@@@Z:PROC ; CvPlayerPolicies::IsPolicyBranchUnlocked
EXTRN	?GetFreePolicy@CvPolicyBranchEntry@@QBEHXZ:PROC	; CvPolicyBranchEntry::GetFreePolicy
EXTRN	?getPolicyBranchInfo@CvGlobals@@QAEPAVCvPolicyBranchEntry@@W4PolicyBranchTypes@@@Z:PROC ; CvGlobals::getPolicyBranchInfo
EXTRN	?getNumPolicyBranchInfos@CvGlobals@@QAEHXZ:PROC	; CvGlobals::getNumPolicyBranchInfos
EXTRN	?GetPolicyBranchType@CvPolicyEntry@@QBEHXZ:PROC	; CvPolicyEntry::GetPolicyBranchType
EXTRN	?GetPlayerPolicies@CvPlayer@@QBEPAVCvPlayerPolicies@@XZ:PROC ; CvPlayer::GetPlayerPolicies
EXTRN	?setJONSCulture@CvPlayer@@QAEXH@Z:PROC		; CvPlayer::setJONSCulture
EXTRN	?SetGold@CvTreasury@@QAEXH@Z:PROC		; CvTreasury::SetGold
EXTRN	?GetTreasury@CvPlayer@@QBEPAVCvTreasury@@XZ:PROC ; CvPlayer::GetTreasury
EXTRN	__CxxThrowException@8:PROC
; Function compile flags: /Odtp
;	COMDAT ?SetPlayerInitialItems@@YAXAAVCvPlayer@@ABUPlayer@CvWorldBuilderMap@@@Z
_TEXT	SEGMENT
tv181 = -188						; size = 4
tv343 = -184						; size = 4
tv338 = -178						; size = 1
tv331 = -177						; size = 1
tv327 = -176						; size = 4
tv328 = -172						; size = 4
$T228003 = -168						; size = 4
_pkTech$223993 = -96					; size = 4
_eTech$223991 = -92					; size = 4
_iTech$223987 = -88					; size = 4
_iTechCount$223986 = -84				; size = 4
_eEra$223981 = -80					; size = 4
_pkEra$223983 = -76					; size = 4
_iEra$223977 = -72					; size = 4
_iStartingEra$223975 = -68				; size = 4
_iEraCount$223976 = -64					; size = 4
_kTeam$223974 = -60					; size = 4
_eFreePolicy$223969 = -56				; size = 4
_pkBranch$223967 = -52					; size = 4
_eCurrentBranch$223962 = -48				; size = 4
_pkBranch$223964 = -44					; size = 4
_iPolicyBranch$223958 = -40				; size = 4
_iPolicyBranchCount$223957 = -36			; size = 4
_ePolicyBranch$223954 = -32				; size = 4
_pkPlayerPolicies$223951 = -28				; size = 4
_pkPolicy$223952 = -24					; size = 4
_ePolicy$223948 = -20					; size = 4
_iPolicy$223944 = -16					; size = 4
_iPolicyCount$ = -12					; size = 4
_pkTreasury$ = -8					; size = 4
_eTeam$ = -4						; size = 4
_kGameplayPlayer$ = 8					; size = 4
_kSavedPlayer$ = 12					; size = 4
?SetPlayerInitialItems@@YAXAAVCvPlayer@@ABUPlayer@CvWorldBuilderMap@@@Z PROC ; SetPlayerInitialItems, COMDAT

; 494  : {

	push	ebp
	mov	ebp, esp
	sub	esp, 188				; 000000bcH
	push	esi

; 495  : 	CvTreasury* pkTreasury = kGameplayPlayer.GetTreasury();

	mov	ecx, DWORD PTR _kGameplayPlayer$[ebp]
	call	?GetTreasury@CvPlayer@@QBEPAVCvTreasury@@XZ ; CvPlayer::GetTreasury
	mov	DWORD PTR _pkTreasury$[ebp], eax

; 496  : 	FAssertMsg(pkTreasury, "Unable to set gold amount.  Treasury Missing!");
; 497  : 	if(pkTreasury != NULL)

	cmp	DWORD PTR _pkTreasury$[ebp], 0
	je	SHORT $LN24@SetPlayerI

; 498  : 		pkTreasury->SetGold(kSavedPlayer.m_uiGold);

	mov	eax, DWORD PTR _kSavedPlayer$[ebp]
	mov	ecx, DWORD PTR [eax+420]
	push	ecx
	mov	ecx, DWORD PTR _pkTreasury$[ebp]
	call	?SetGold@CvTreasury@@QAEXH@Z		; CvTreasury::SetGold
$LN24@SetPlayerI:

; 499  : 
; 500  : 	kGameplayPlayer.setJONSCulture(kSavedPlayer.m_uiCulture);

	mov	edx, DWORD PTR _kSavedPlayer$[ebp]
	mov	eax, DWORD PTR [edx+416]
	push	eax
	mov	ecx, DWORD PTR _kGameplayPlayer$[ebp]
	call	?setJONSCulture@CvPlayer@@QAEXH@Z	; CvPlayer::setJONSCulture

; 501  : 
; 502  : #ifdef AUI_WARNING_FIXES
; 503  : 	for (uint iPolicy = 0; iPolicy < GC.getNumPolicyInfos(); ++iPolicy)
; 504  : #else
; 505  : 	const int iPolicyCount = GC.getNumPolicyInfos();

	mov	ecx, OFFSET ?gGlobals@@3VCvGlobals@@A	; gGlobals
	call	?getNumPolicyInfos@CvGlobals@@QAEHXZ	; CvGlobals::getNumPolicyInfos
	mov	DWORD PTR _iPolicyCount$[ebp], eax

; 506  : 	for(int iPolicy = 0; iPolicy < iPolicyCount; ++iPolicy)

	mov	DWORD PTR _iPolicy$223944[ebp], 0
	jmp	SHORT $LN23@SetPlayerI
$LN22@SetPlayerI:
	mov	ecx, DWORD PTR _iPolicy$223944[ebp]
	add	ecx, 1
	mov	DWORD PTR _iPolicy$223944[ebp], ecx
$LN23@SetPlayerI:
	mov	edx, DWORD PTR _iPolicy$223944[ebp]
	cmp	edx, DWORD PTR _iPolicyCount$[ebp]
	jge	$LN38@SetPlayerI

; 507  : #endif
; 508  : 	{
; 509  : 		const PolicyTypes ePolicy = (PolicyTypes)iPolicy;

	mov	eax, DWORD PTR _iPolicy$223944[ebp]
	mov	DWORD PTR _ePolicy$223948[ebp], eax

; 510  : 		if(kSavedPlayer.m_kPolicies[iPolicy])

	cmp	DWORD PTR _iPolicy$223944[ebp], 256	; 00000100H
	jb	SHORT $LN27@SetPlayerI
	mov	ecx, DWORD PTR _kSavedPlayer$[ebp]
	call	?_Xran@?$bitset@$0BAA@@std@@ABEXXZ	; std::bitset<256>::_Xran
$LN27@SetPlayerI:
	mov	esi, DWORD PTR _iPolicy$223944[ebp]
	shr	esi, 5
	mov	eax, DWORD PTR _iPolicy$223944[ebp]
	xor	edx, edx
	mov	ecx, 32					; 00000020H
	div	ecx
	mov	eax, 1
	mov	ecx, edx
	shl	eax, cl
	mov	ecx, DWORD PTR _kSavedPlayer$[ebp]
	and	eax, DWORD PTR [ecx+esi*4]
	neg	eax
	sbb	eax, eax
	neg	eax
	movzx	edx, al
	test	edx, edx
	je	$LN20@SetPlayerI

; 511  : 		{
; 512  : 			// Check the policy branch
; 513  : 			CvPlayerPolicies* pkPlayerPolicies = kGameplayPlayer.GetPlayerPolicies();

	mov	ecx, DWORD PTR _kGameplayPlayer$[ebp]
	call	?GetPlayerPolicies@CvPlayer@@QBEPAVCvPlayerPolicies@@XZ ; CvPlayer::GetPlayerPolicies
	mov	DWORD PTR _pkPlayerPolicies$223951[ebp], eax

; 514  : 			const CvPolicyEntry* pkPolicy = GC.getPolicyInfo(ePolicy);

	mov	eax, DWORD PTR _ePolicy$223948[ebp]
	push	eax
	mov	ecx, OFFSET ?gGlobals@@3VCvGlobals@@A	; gGlobals
	call	?getPolicyInfo@CvGlobals@@QAEPAVCvPolicyEntry@@W4PolicyTypes@@@Z ; CvGlobals::getPolicyInfo
	mov	DWORD PTR _pkPolicy$223952[ebp], eax

; 515  : 			if(pkPolicy != NULL && pkPlayerPolicies != NULL)

	cmp	DWORD PTR _pkPolicy$223952[ebp], 0
	je	$LN19@SetPlayerI
	cmp	DWORD PTR _pkPlayerPolicies$223951[ebp], 0
	je	$LN19@SetPlayerI

; 516  : 			{
; 517  : 				PolicyBranchTypes ePolicyBranch = (PolicyBranchTypes)pkPolicy->GetPolicyBranchType();

	mov	ecx, DWORD PTR _pkPolicy$223952[ebp]
	call	?GetPolicyBranchType@CvPolicyEntry@@QBEHXZ ; CvPolicyEntry::GetPolicyBranchType
	mov	DWORD PTR _ePolicyBranch$223954[ebp], eax

; 518  : 
; 519  : 				// NO_POLICY_BRANCH_TYPE means that this is probably a free policy.
; 520  : 				// We'll have to look through the policy branches to find a matching one.
; 521  : 				if(ePolicyBranch == NO_POLICY_BRANCH_TYPE)

	cmp	DWORD PTR _ePolicyBranch$223954[ebp], -1
	jne	SHORT $LN18@SetPlayerI

; 522  : 				{
; 523  : 					const int iPolicyBranchCount = GC.getNumPolicyBranchInfos();

	mov	ecx, OFFSET ?gGlobals@@3VCvGlobals@@A	; gGlobals
	call	?getNumPolicyBranchInfos@CvGlobals@@QAEHXZ ; CvGlobals::getNumPolicyBranchInfos
	mov	DWORD PTR _iPolicyBranchCount$223957[ebp], eax

; 524  : 					for(int iPolicyBranch = 0; iPolicyBranch < iPolicyBranchCount; ++iPolicyBranch)

	mov	DWORD PTR _iPolicyBranch$223958[ebp], 0
	jmp	SHORT $LN17@SetPlayerI
$LN16@SetPlayerI:
	mov	ecx, DWORD PTR _iPolicyBranch$223958[ebp]
	add	ecx, 1
	mov	DWORD PTR _iPolicyBranch$223958[ebp], ecx
$LN17@SetPlayerI:
	mov	edx, DWORD PTR _iPolicyBranch$223958[ebp]
	cmp	edx, DWORD PTR _iPolicyBranchCount$223957[ebp]
	jge	SHORT $LN18@SetPlayerI

; 525  : 					{
; 526  : 						const PolicyBranchTypes eCurrentBranch = (PolicyBranchTypes)iPolicyBranch;

	mov	eax, DWORD PTR _iPolicyBranch$223958[ebp]
	mov	DWORD PTR _eCurrentBranch$223962[ebp], eax

; 527  : 						const CvPolicyBranchEntry* pkBranch = GC.getPolicyBranchInfo(eCurrentBranch);

	mov	ecx, DWORD PTR _eCurrentBranch$223962[ebp]
	push	ecx
	mov	ecx, OFFSET ?gGlobals@@3VCvGlobals@@A	; gGlobals
	call	?getPolicyBranchInfo@CvGlobals@@QAEPAVCvPolicyBranchEntry@@W4PolicyBranchTypes@@@Z ; CvGlobals::getPolicyBranchInfo
	mov	DWORD PTR _pkBranch$223964[ebp], eax

; 528  : 						if(pkBranch != NULL && pkBranch->GetFreePolicy() == ePolicy)

	cmp	DWORD PTR _pkBranch$223964[ebp], 0
	je	SHORT $LN14@SetPlayerI
	mov	ecx, DWORD PTR _pkBranch$223964[ebp]
	call	?GetFreePolicy@CvPolicyBranchEntry@@QBEHXZ ; CvPolicyBranchEntry::GetFreePolicy
	cmp	eax, DWORD PTR _ePolicy$223948[ebp]
	jne	SHORT $LN14@SetPlayerI

; 529  : 						{
; 530  : 							ePolicyBranch = eCurrentBranch;

	mov	edx, DWORD PTR _eCurrentBranch$223962[ebp]
	mov	DWORD PTR _ePolicyBranch$223954[ebp], edx

; 531  : 							break;

	jmp	SHORT $LN18@SetPlayerI
$LN14@SetPlayerI:

; 532  : 						}
; 533  : 					}

	jmp	SHORT $LN16@SetPlayerI
$LN18@SetPlayerI:

; 534  : 				}
; 535  : 
; 536  : 				// Unlock the policy branch if it hasn't been unlocked yet
; 537  : 				if(ePolicyBranch != NO_POLICY_BRANCH_TYPE &&
; 538  : 				        !pkPlayerPolicies->IsPolicyBranchUnlocked(ePolicyBranch))

	cmp	DWORD PTR _ePolicyBranch$223954[ebp], -1
	je	SHORT $LN19@SetPlayerI
	mov	eax, DWORD PTR _ePolicyBranch$223954[ebp]
	push	eax
	mov	ecx, DWORD PTR _pkPlayerPolicies$223951[ebp]
	call	?IsPolicyBranchUnlocked@CvPlayerPolicies@@QBE_NW4PolicyBranchTypes@@@Z ; CvPlayerPolicies::IsPolicyBranchUnlocked
	movzx	ecx, al
	test	ecx, ecx
	jne	SHORT $LN19@SetPlayerI

; 539  : 				{
; 540  : 					pkPlayerPolicies->SetPolicyBranchUnlocked(ePolicyBranch, true, false);

	push	0
	push	1
	mov	edx, DWORD PTR _ePolicyBranch$223954[ebp]
	push	edx
	mov	ecx, DWORD PTR _pkPlayerPolicies$223951[ebp]
	call	?SetPolicyBranchUnlocked@CvPlayerPolicies@@QAEXW4PolicyBranchTypes@@_N1@Z ; CvPlayerPolicies::SetPolicyBranchUnlocked

; 541  : 
; 542  : 					// Also, unlock the free policy for the branch
; 543  : 					const CvPolicyBranchEntry* pkBranch = GC.getPolicyBranchInfo(ePolicyBranch);

	mov	eax, DWORD PTR _ePolicyBranch$223954[ebp]
	push	eax
	mov	ecx, OFFSET ?gGlobals@@3VCvGlobals@@A	; gGlobals
	call	?getPolicyBranchInfo@CvGlobals@@QAEPAVCvPolicyBranchEntry@@W4PolicyBranchTypes@@@Z ; CvGlobals::getPolicyBranchInfo
	mov	DWORD PTR _pkBranch$223967[ebp], eax

; 544  : 					if(pkBranch != NULL)

	cmp	DWORD PTR _pkBranch$223967[ebp], 0
	je	SHORT $LN19@SetPlayerI

; 545  : 					{
; 546  : 						PolicyTypes eFreePolicy = (PolicyTypes)pkBranch->GetFreePolicy();

	mov	ecx, DWORD PTR _pkBranch$223967[ebp]
	call	?GetFreePolicy@CvPolicyBranchEntry@@QBEHXZ ; CvPolicyBranchEntry::GetFreePolicy
	mov	DWORD PTR _eFreePolicy$223969[ebp], eax

; 547  : 						if(eFreePolicy != NO_POLICY)

	cmp	DWORD PTR _eFreePolicy$223969[ebp], -1
	je	SHORT $LN19@SetPlayerI

; 548  : 							kGameplayPlayer.setHasPolicy(eFreePolicy, true);

	push	1
	mov	ecx, DWORD PTR _eFreePolicy$223969[ebp]
	push	ecx
	mov	ecx, DWORD PTR _kGameplayPlayer$[ebp]
	call	?setHasPolicy@CvPlayer@@QAEXW4PolicyTypes@@_N@Z ; CvPlayer::setHasPolicy
$LN19@SetPlayerI:

; 549  : 					}
; 550  : 				}
; 551  : 			}
; 552  : 
; 553  : 			// Finally, unlock the policy
; 554  : 			kGameplayPlayer.setHasPolicy(ePolicy, true);

	push	1
	mov	edx, DWORD PTR _ePolicy$223948[ebp]
	push	edx
	mov	ecx, DWORD PTR _kGameplayPlayer$[ebp]
	call	?setHasPolicy@CvPlayer@@QAEXW4PolicyTypes@@_N@Z ; CvPlayer::setHasPolicy
$LN20@SetPlayerI:

; 555  : 		}
; 556  : 	}

	jmp	$LN22@SetPlayerI

; 557  : 
; 558  : 	const TeamTypes eTeam = kGameplayPlayer.getTeam();

$LN38@SetPlayerI:
	mov	eax, DWORD PTR _kGameplayPlayer$[ebp]
	mov	ecx, DWORD PTR [eax+44]
	push	ecx
	call	?teamType@CvPreGame@@YA?AW4TeamTypes@@W4PlayerTypes@@@Z ; CvPreGame::teamType
	add	esp, 4
	mov	DWORD PTR _eTeam$[ebp], eax

; 559  : 	if(eTeam != NO_TEAM)

	cmp	DWORD PTR _eTeam$[ebp], -1
	je	$LN25@SetPlayerI

; 560  : 	{
; 561  : 		CvTeam& kTeam = GET_TEAM(eTeam);

	mov	edx, DWORD PTR _eTeam$[ebp]
	imul	edx, 2984				; 00000ba8H
	add	edx, DWORD PTR ?m_aTeams@CvTeam@@1PAV1@A ; CvTeam::m_aTeams
	mov	DWORD PTR _kTeam$223974[ebp], edx

; 562  : 
; 563  : 		int iStartingEra = 0;

	mov	DWORD PTR _iStartingEra$223975[ebp], 0

; 564  : #ifdef AUI_WARNING_FIXES
; 565  : 		for (uint iEra = 0; iEra < GC.getNumEraInfos(); ++iEra)
; 566  : #else
; 567  : 		const int iEraCount = GC.getNumEraInfos();

	mov	ecx, OFFSET ?gGlobals@@3VCvGlobals@@A	; gGlobals
	call	?getNumEraInfos@CvGlobals@@QAEHXZ	; CvGlobals::getNumEraInfos
	mov	DWORD PTR _iEraCount$223976[ebp], eax

; 568  : 		for(int iEra = 0; iEra < iEraCount; ++iEra)

	mov	DWORD PTR _iEra$223977[ebp], 0
	jmp	SHORT $LN9@SetPlayerI
$LN8@SetPlayerI:
	mov	eax, DWORD PTR _iEra$223977[ebp]
	add	eax, 1
	mov	DWORD PTR _iEra$223977[ebp], eax
$LN9@SetPlayerI:
	mov	ecx, DWORD PTR _iEra$223977[ebp]
	cmp	ecx, DWORD PTR _iEraCount$223976[ebp]
	jge	$LN7@SetPlayerI

; 569  : #endif
; 570  : 		{
; 571  : 			const EraTypes eEra = (EraTypes)iEra;

	mov	edx, DWORD PTR _iEra$223977[ebp]
	mov	DWORD PTR _eEra$223981[ebp], edx

; 572  : 			const CvEraInfo* pkEra = GC.getEraInfo(eEra);

	mov	eax, DWORD PTR _eEra$223981[ebp]
	push	eax
	mov	ecx, OFFSET ?gGlobals@@3VCvGlobals@@A	; gGlobals
	call	?getEraInfo@CvGlobals@@QAEPAVCvEraInfo@@W4EraTypes@@@Z ; CvGlobals::getEraInfo
	mov	DWORD PTR _pkEra$223983[ebp], eax

; 573  : 			if(pkEra != NULL && strcmp(pkEra->GetType(), kSavedPlayer.m_szEra) == 0)

	cmp	DWORD PTR _pkEra$223983[ebp], 0
	je	$LN6@SetPlayerI
	mov	ecx, DWORD PTR _kSavedPlayer$[ebp]
	add	ecx, 288				; 00000120H
	mov	DWORD PTR tv328[ebp], ecx
	mov	ecx, DWORD PTR _pkEra$223983[ebp]
	add	ecx, 176				; 000000b0H
	call	DWORD PTR __imp_?c_str@?$basic_string@DU?$char_traits@D@std@@V?$allocator@D@2@@std@@QBEPBDXZ
	mov	DWORD PTR tv327[ebp], eax
$LL50@SetPlayerI:
	mov	edx, DWORD PTR tv327[ebp]
	mov	al, BYTE PTR [edx]
	mov	BYTE PTR tv331[ebp], al
	mov	ecx, DWORD PTR tv328[ebp]
	cmp	al, BYTE PTR [ecx]
	jne	SHORT $LN51@SetPlayerI
	cmp	BYTE PTR tv331[ebp], 0
	je	SHORT $LN52@SetPlayerI
	mov	edx, DWORD PTR tv327[ebp]
	mov	al, BYTE PTR [edx+1]
	mov	BYTE PTR tv338[ebp], al
	mov	ecx, DWORD PTR tv328[ebp]
	cmp	al, BYTE PTR [ecx+1]
	jne	SHORT $LN51@SetPlayerI
	add	DWORD PTR tv327[ebp], 2
	add	DWORD PTR tv328[ebp], 2
	cmp	BYTE PTR tv338[ebp], 0
	jne	SHORT $LL50@SetPlayerI
$LN52@SetPlayerI:
	mov	DWORD PTR tv343[ebp], 0
	jmp	SHORT $LN53@SetPlayerI
$LN51@SetPlayerI:
	sbb	edx, edx
	sbb	edx, -1
	mov	DWORD PTR tv343[ebp], edx
$LN53@SetPlayerI:
	mov	eax, DWORD PTR tv343[ebp]
	mov	DWORD PTR tv181[ebp], eax
	cmp	DWORD PTR tv181[ebp], 0
	jne	SHORT $LN6@SetPlayerI

; 574  : 			{
; 575  : 				iStartingEra = iEra;

	mov	ecx, DWORD PTR _iEra$223977[ebp]
	mov	DWORD PTR _iStartingEra$223975[ebp], ecx

; 576  : 				break;

	jmp	SHORT $LN7@SetPlayerI
$LN6@SetPlayerI:

; 577  : 			}
; 578  : 		}

	jmp	$LN8@SetPlayerI
$LN7@SetPlayerI:

; 579  : 
; 580  : 		if(iStartingEra > 0)

	cmp	DWORD PTR _iStartingEra$223975[ebp], 0
	jle	SHORT $LN25@SetPlayerI

; 581  : 		{
; 582  : #ifdef AUI_WARNING_FIXES
; 583  : 			for (uint iTech = 0; iTech < GC.getNumTechInfos(); ++iTech)
; 584  : #else
; 585  : 			const int iTechCount = GC.getNumTechInfos();

	mov	ecx, OFFSET ?gGlobals@@3VCvGlobals@@A	; gGlobals
	call	?getNumTechInfos@CvGlobals@@QAEHXZ	; CvGlobals::getNumTechInfos
	mov	DWORD PTR _iTechCount$223986[ebp], eax

; 586  : 			for(int iTech = 0; iTech < iTechCount; ++iTech)

	mov	DWORD PTR _iTech$223987[ebp], 0
	jmp	SHORT $LN4@SetPlayerI
$LN3@SetPlayerI:
	mov	edx, DWORD PTR _iTech$223987[ebp]
	add	edx, 1
	mov	DWORD PTR _iTech$223987[ebp], edx
$LN4@SetPlayerI:
	mov	eax, DWORD PTR _iTech$223987[ebp]
	cmp	eax, DWORD PTR _iTechCount$223986[ebp]
	jge	SHORT $LN25@SetPlayerI

; 587  : #endif
; 588  : 			{
; 589  : 				const TechTypes eTech = (TechTypes)iTech;

	mov	ecx, DWORD PTR _iTech$223987[ebp]
	mov	DWORD PTR _eTech$223991[ebp], ecx

; 590  : 				const CvTechEntry* pkTech = GC.getTechInfo(eTech);

	mov	edx, DWORD PTR _eTech$223991[ebp]
	push	edx
	mov	ecx, OFFSET ?gGlobals@@3VCvGlobals@@A	; gGlobals
	call	?getTechInfo@CvGlobals@@QAEPAVCvTechEntry@@W4TechTypes@@@Z ; CvGlobals::getTechInfo
	mov	DWORD PTR _pkTech$223993[ebp], eax

; 591  : 				if(pkTech != NULL && pkTech->GetEra() < iStartingEra)

	cmp	DWORD PTR _pkTech$223993[ebp], 0
	je	SHORT $LN1@SetPlayerI
	mov	ecx, DWORD PTR _pkTech$223993[ebp]
	call	?GetEra@CvTechEntry@@QBEHXZ		; CvTechEntry::GetEra
	cmp	eax, DWORD PTR _iStartingEra$223975[ebp]
	jge	SHORT $LN1@SetPlayerI

; 592  : 					kTeam.setHasTech(eTech, true, kGameplayPlayer.GetID(), false, false);

	mov	eax, DWORD PTR _kGameplayPlayer$[ebp]
	mov	ecx, DWORD PTR [eax+44]
	mov	DWORD PTR $T228003[ebp], ecx
	push	0
	push	0
	mov	edx, DWORD PTR $T228003[ebp]
	push	edx
	push	1
	mov	eax, DWORD PTR _eTech$223991[ebp]
	push	eax
	mov	ecx, DWORD PTR _kTeam$223974[ebp]
	call	?setHasTech@CvTeam@@QAEXW4TechTypes@@_NW4PlayerTypes@@11@Z ; CvTeam::setHasTech
$LN1@SetPlayerI:

; 593  : 			}

	jmp	SHORT $LN3@SetPlayerI
$LN25@SetPlayerI:

; 594  : 		}
; 595  : 	}
; 596  : }

	pop	esi
	mov	esp, ebp
	pop	ebp
	ret	0
?SetPlayerInitialItems@@YAXAAVCvPlayer@@ABUPlayer@CvWorldBuilderMap@@@Z ENDP ; SetPlayerInitialItems
_TEXT	ENDS
PUBLIC	?SetTeamInitialItems@@YAXAAVCvTeam@@ABUTeam@CvWorldBuilderMap@@@Z ; SetTeamInitialItems
; Function compile flags: /Odtp
;	COMDAT ?SetTeamInitialItems@@YAXAAVCvTeam@@ABUTeam@CvWorldBuilderMap@@@Z
_TEXT	SEGMENT
$T228035 = -84						; size = 4
_eTech$224004 = -12					; size = 4
_iTech$224000 = -8					; size = 4
_iTechCount$ = -4					; size = 4
_kGameplayTeam$ = 8					; size = 4
_kSavedTeam$ = 12					; size = 4
?SetTeamInitialItems@@YAXAAVCvTeam@@ABUTeam@CvWorldBuilderMap@@@Z PROC ; SetTeamInitialItems, COMDAT

; 599  : {

	push	ebp
	mov	ebp, esp
	sub	esp, 84					; 00000054H
	push	esi

; 600  : #ifdef AUI_WARNING_FIXES
; 601  : 	for (uint iTech = 0; iTech < GC.getNumTechInfos(); ++iTech)
; 602  : #else
; 603  : 	const int iTechCount = GC.getNumTechInfos();

	mov	ecx, OFFSET ?gGlobals@@3VCvGlobals@@A	; gGlobals
	call	?getNumTechInfos@CvGlobals@@QAEHXZ	; CvGlobals::getNumTechInfos
	mov	DWORD PTR _iTechCount$[ebp], eax

; 604  : 	for(int iTech = 0; iTech < iTechCount; ++iTech)

	mov	DWORD PTR _iTech$224000[ebp], 0
	jmp	SHORT $LN4@SetTeamIni
$LN3@SetTeamIni:
	mov	eax, DWORD PTR _iTech$224000[ebp]
	add	eax, 1
	mov	DWORD PTR _iTech$224000[ebp], eax
$LN4@SetTeamIni:
	mov	ecx, DWORD PTR _iTech$224000[ebp]
	cmp	ecx, DWORD PTR _iTechCount$[ebp]
	jge	SHORT $LN5@SetTeamIni

; 605  : #endif
; 606  : 	{
; 607  : 		const TechTypes eTech = (TechTypes)iTech;

	mov	edx, DWORD PTR _iTech$224000[ebp]
	mov	DWORD PTR _eTech$224004[ebp], edx

; 608  : 		if(kSavedTeam.m_kTechs[iTech])

	mov	eax, DWORD PTR _kSavedTeam$[ebp]
	add	eax, 32					; 00000020H
	mov	DWORD PTR $T228035[ebp], eax
	cmp	DWORD PTR _iTech$224000[ebp], 256	; 00000100H
	jb	SHORT $LN7@SetTeamIni
	mov	ecx, DWORD PTR $T228035[ebp]
	call	?_Xran@?$bitset@$0BAA@@std@@ABEXXZ	; std::bitset<256>::_Xran
$LN7@SetTeamIni:
	mov	esi, DWORD PTR _iTech$224000[ebp]
	shr	esi, 5
	mov	eax, DWORD PTR _iTech$224000[ebp]
	xor	edx, edx
	mov	ecx, 32					; 00000020H
	div	ecx
	mov	eax, 1
	mov	ecx, edx
	shl	eax, cl
	mov	ecx, DWORD PTR $T228035[ebp]
	and	eax, DWORD PTR [ecx+esi*4]
	neg	eax
	sbb	eax, eax
	neg	eax
	movzx	edx, al
	test	edx, edx
	je	SHORT $LN1@SetTeamIni

; 609  : 			kGameplayTeam.setHasTech(eTech, true, NO_PLAYER, false, false);

	push	0
	push	0
	push	-1
	push	1
	mov	eax, DWORD PTR _eTech$224004[ebp]
	push	eax
	mov	ecx, DWORD PTR _kGameplayTeam$[ebp]
	call	?setHasTech@CvTeam@@QAEXW4TechTypes@@_NW4PlayerTypes@@11@Z ; CvTeam::setHasTech
$LN1@SetTeamIni:

; 610  : 	}

	jmp	SHORT $LN3@SetTeamIni
$LN5@SetTeamIni:

; 611  : }

	pop	esi
	mov	esp, ebp
	pop	ebp
	ret	0
?SetTeamInitialItems@@YAXAAVCvTeam@@ABUTeam@CvWorldBuilderMap@@@Z ENDP ; SetTeamInitialItems
_TEXT	ENDS
PUBLIC	?SetInitialItems@CvWorldBuilderMapLoader@@SAX_N@Z ; CvWorldBuilderMapLoader::SetInitialItems
EXTRN	?DoUpdateHappiness@CvPlayer@@QAEXXZ:PROC	; CvPlayer::DoUpdateHappiness
EXTRN	?DoGold@CvTreasury@@QAEXXZ:PROC			; CvTreasury::DoGold
EXTRN	?DoUpdateCityConnectionGold@CvTreasury@@QAEXXZ:PROC ; CvTreasury::DoUpdateCityConnectionGold
EXTRN	?Update@CvCityConnections@@QAEXXZ:PROC		; CvCityConnections::Update
EXTRN	?GetCityConnections@CvPlayer@@QBEPAVCvCityConnections@@XZ:PROC ; CvPlayer::GetCityConnections
EXTRN	?DoTurn@CvCityCitizens@@QAEXXZ:PROC		; CvCityCitizens::DoTurn
EXTRN	?GetCityCitizens@CvCity@@QBEPAVCvCityCitizens@@XZ:PROC ; CvCity::GetCityCitizens
EXTRN	?nextCity@CvPlayer@@QAEPAVCvCity@@PAH_N@Z:PROC	; CvPlayer::nextCity
EXTRN	?firstCity@CvPlayer@@QAEPAVCvCity@@PAH_N@Z:PROC	; CvPlayer::firstCity
EXTRN	?m_aPlayers@CvPlayerAI@@1PAV1@A:DWORD		; CvPlayerAI::m_aPlayers
EXTRN	?sm_kErrorTeam@CvWorldBuilderMap@@0UTeam@1@A:BYTE ; CvWorldBuilderMap::sm_kErrorTeam
; Function compile flags: /Odtp
;	COMDAT ?SetInitialItems@CvWorldBuilderMapLoader@@SAX_N@Z
_TEXT	SEGMENT
tv204 = -100						; size = 4
tv191 = -96						; size = 4
tv178 = -92						; size = 4
$T228106 = -88						; size = 4
$T228098 = -84						; size = 4
$T228091 = -77						; size = 1
$T228087 = -76						; size = 4
$T228076 = -72						; size = 4
$T228069 = -65						; size = 1
$T228062 = -64						; size = 4
$T228054 = -60						; size = 4
$T228047 = -55						; size = 1
$T228043 = -54						; size = 1
$T228042 = -53						; size = 1
$T228041 = -52						; size = 1
$T228040 = -51						; size = 1
$T228039 = -50						; size = 1
$T228038 = -49						; size = 1
_ePlayer$224045 = -48					; size = 4
_i$224041 = -44						; size = 4
_pLoopCity$224032 = -40					; size = 4
_iLoop$224033 = -36					; size = 4
_ePlayer$224028 = -32					; size = 4
_kPlayer$224030 = -28					; size = 4
_i$224024 = -24						; size = 4
_eTeam$224018 = -20					; size = 4
_i$224014 = -16						; size = 4
_uiCityStateCount$ = -12				; size = 4
_uiTeamCount$ = -8					; size = 4
_uiPlayerCount$ = -4					; size = 4
_bFirstCall$ = 8					; size = 1
?SetInitialItems@CvWorldBuilderMapLoader@@SAX_N@Z PROC	; CvWorldBuilderMapLoader::SetInitialItems, COMDAT

; 614  : {

	push	ebp
	mov	ebp, esp
	sub	esp, 100				; 00000064H

; 615  : #ifdef AUI_WARNING_FIXES
; 616  : 	const byte uiTeamCount = MIN(sg_kSave.GetTeamCount(), (byte)MAX_TEAMS);
; 617  : 	for (byte i = 0; i < uiTeamCount; ++i)
; 618  : #else
; 619  : 	const uint uiTeamCount = std::min(sg_kSave.GetTeamCount(), (byte)MAX_TEAMS);

	mov	BYTE PTR $T228038[ebp], 64		; 00000040H
	mov	al, BYTE PTR _sg_kSave+12318
	mov	BYTE PTR $T228047[ebp], al
	mov	cl, BYTE PTR $T228047[ebp]
	mov	BYTE PTR $T228039[ebp], cl
	movzx	edx, BYTE PTR $T228038[ebp]
	movzx	eax, BYTE PTR $T228039[ebp]
	cmp	edx, eax
	jge	SHORT $LN20@SetInitial
	lea	ecx, DWORD PTR $T228038[ebp]
	mov	DWORD PTR tv178[ebp], ecx
	jmp	SHORT $LN21@SetInitial
$LN20@SetInitial:
	lea	edx, DWORD PTR $T228039[ebp]
	mov	DWORD PTR tv178[ebp], edx
$LN21@SetInitial:
	mov	eax, DWORD PTR tv178[ebp]
	mov	DWORD PTR $T228054[ebp], eax
	mov	ecx, DWORD PTR $T228054[ebp]
	movzx	edx, BYTE PTR [ecx]
	mov	DWORD PTR _uiTeamCount$[ebp], edx

; 620  : 	for(uint i = 0; i < uiTeamCount; ++i)

	mov	DWORD PTR _i$224014[ebp], 0
	jmp	SHORT $LN13@SetInitial
$LN12@SetInitial:
	mov	eax, DWORD PTR _i$224014[ebp]
	add	eax, 1
	mov	DWORD PTR _i$224014[ebp], eax
$LN13@SetInitial:
	mov	ecx, DWORD PTR _i$224014[ebp]
	cmp	ecx, DWORD PTR _uiTeamCount$[ebp]
	jae	SHORT $LN11@SetInitial

; 621  : #endif
; 622  : 	{
; 623  : 		const TeamTypes eTeam = (TeamTypes)i;

	mov	edx, DWORD PTR _i$224014[ebp]
	mov	DWORD PTR _eTeam$224018[ebp], edx

; 624  : 		SetTeamInitialItems(GET_TEAM(eTeam), sg_kSave.GetTeam(i));

	movzx	eax, BYTE PTR _i$224014[ebp]
	movzx	ecx, BYTE PTR _sg_kSave+12318
	cmp	eax, ecx
	jge	SHORT $LN23@SetInitial
	movzx	edx, BYTE PTR _i$224014[ebp]
	cmp	edx, 96					; 00000060H
	jae	SHORT $LN23@SetInitial
	movzx	eax, BYTE PTR _i$224014[ebp]
	shl	eax, 6
	add	eax, OFFSET _sg_kSave+578464
	mov	DWORD PTR $T228062[ebp], eax
	jmp	SHORT $LN26@SetInitial
	jmp	SHORT $LN26@SetInitial
$LN23@SetInitial:
	mov	DWORD PTR $T228062[ebp], OFFSET ?sm_kErrorTeam@CvWorldBuilderMap@@0UTeam@1@A ; CvWorldBuilderMap::sm_kErrorTeam
$LN26@SetInitial:
	mov	ecx, DWORD PTR $T228062[ebp]
	push	ecx
	mov	edx, DWORD PTR _eTeam$224018[ebp]
	imul	edx, 2984				; 00000ba8H
	add	edx, DWORD PTR ?m_aTeams@CvTeam@@1PAV1@A ; CvTeam::m_aTeams
	push	edx
	call	?SetTeamInitialItems@@YAXAAVCvTeam@@ABUTeam@CvWorldBuilderMap@@@Z ; SetTeamInitialItems
	add	esp, 8

; 625  : 	}

	jmp	SHORT $LN12@SetInitial
$LN11@SetInitial:

; 626  : 
; 627  : #ifdef AUI_WARNING_FIXES
; 628  : 	const byte uiPlayerCount = MIN(sg_kSave.GetPlayerCount(), (byte)MAX_CIV_PLAYERS);
; 629  : 	for (byte i = 0; i < uiPlayerCount; ++i)
; 630  : #else
; 631  : 	const uint uiPlayerCount = std::min(sg_kSave.GetPlayerCount(), (byte)MAX_CIV_PLAYERS);

	mov	BYTE PTR $T228040[ebp], 63		; 0000003fH
	mov	al, BYTE PTR _sg_kSave+12316
	mov	BYTE PTR $T228069[ebp], al
	mov	cl, BYTE PTR $T228069[ebp]
	mov	BYTE PTR $T228041[ebp], cl
	movzx	edx, BYTE PTR $T228040[ebp]
	movzx	eax, BYTE PTR $T228041[ebp]
	cmp	edx, eax
	jge	SHORT $LN32@SetInitial
	lea	ecx, DWORD PTR $T228040[ebp]
	mov	DWORD PTR tv191[ebp], ecx
	jmp	SHORT $LN33@SetInitial
$LN32@SetInitial:
	lea	edx, DWORD PTR $T228041[ebp]
	mov	DWORD PTR tv191[ebp], edx
$LN33@SetInitial:
	mov	eax, DWORD PTR tv191[ebp]
	mov	DWORD PTR $T228076[ebp], eax
	mov	ecx, DWORD PTR $T228076[ebp]
	movzx	edx, BYTE PTR [ecx]
	mov	DWORD PTR _uiPlayerCount$[ebp], edx

; 632  : 	for(uint i = 0; i < uiPlayerCount; ++i)

	mov	DWORD PTR _i$224024[ebp], 0
	jmp	SHORT $LN10@SetInitial
$LN9@SetInitial:
	mov	eax, DWORD PTR _i$224024[ebp]
	add	eax, 1
	mov	DWORD PTR _i$224024[ebp], eax
$LN10@SetInitial:
	mov	ecx, DWORD PTR _i$224024[ebp]
	cmp	ecx, DWORD PTR _uiPlayerCount$[ebp]
	jae	$LN8@SetInitial

; 633  : #endif
; 634  : 	{
; 635  : 		const PlayerTypes ePlayer = (PlayerTypes)i;

	mov	edx, DWORD PTR _i$224024[ebp]
	mov	DWORD PTR _ePlayer$224028[ebp], edx

; 636  : 		CvPlayer& kPlayer = GET_PLAYER(ePlayer);

	mov	eax, DWORD PTR _ePlayer$224028[ebp]
	imul	eax, 63236				; 0000f704H
	add	eax, DWORD PTR ?m_aPlayers@CvPlayerAI@@1PAV1@A ; CvPlayerAI::m_aPlayers
	mov	DWORD PTR _kPlayer$224030[ebp], eax

; 637  : 		SetPlayerInitialItems(kPlayer, sg_kSave.GetPlayer(i));

	movzx	ecx, BYTE PTR _i$224024[ebp]
	movzx	edx, BYTE PTR _sg_kSave+12316
	cmp	ecx, edx
	jge	SHORT $LN37@SetInitial
	movzx	eax, BYTE PTR _i$224024[ebp]
	cmp	eax, 32					; 00000020H
	jae	SHORT $LN37@SetInitial
	movzx	ecx, BYTE PTR _i$224024[ebp]
	imul	ecx, 436				; 000001b4H
	add	ecx, OFFSET _sg_kSave+536608
	mov	DWORD PTR $T228087[ebp], ecx
	jmp	SHORT $LN38@SetInitial
	jmp	SHORT $LN38@SetInitial
$LN37@SetInitial:
	mov	DWORD PTR $T228087[ebp], OFFSET ?sm_kErrorPlayer@CvWorldBuilderMap@@0UPlayer@1@A ; CvWorldBuilderMap::sm_kErrorPlayer
$LN38@SetInitial:
	mov	edx, DWORD PTR $T228087[ebp]
	push	edx
	mov	eax, DWORD PTR _kPlayer$224030[ebp]
	push	eax
	call	?SetPlayerInitialItems@@YAXAAVCvPlayer@@ABUPlayer@CvWorldBuilderMap@@@Z ; SetPlayerInitialItems
	add	esp, 8

; 638  : 
; 639  : 		if(!bFirstCall)

	movzx	ecx, BYTE PTR _bFirstCall$[ebp]
	test	ecx, ecx
	jne	SHORT $LN7@SetInitial

; 640  : 		{
; 641  : 			// Assign all citizens
; 642  : 			CvCity* pLoopCity;
; 643  : 			int iLoop;
; 644  : 			for(pLoopCity = kPlayer.firstCity(&iLoop); pLoopCity != NULL; pLoopCity = kPlayer.nextCity(&iLoop))

	push	0
	lea	edx, DWORD PTR _iLoop$224033[ebp]
	push	edx
	mov	ecx, DWORD PTR _kPlayer$224030[ebp]
	call	?firstCity@CvPlayer@@QAEPAVCvCity@@PAH_N@Z ; CvPlayer::firstCity
	mov	DWORD PTR _pLoopCity$224032[ebp], eax
	jmp	SHORT $LN6@SetInitial
$LN5@SetInitial:
	push	0
	lea	eax, DWORD PTR _iLoop$224033[ebp]
	push	eax
	mov	ecx, DWORD PTR _kPlayer$224030[ebp]
	call	?nextCity@CvPlayer@@QAEPAVCvCity@@PAH_N@Z ; CvPlayer::nextCity
	mov	DWORD PTR _pLoopCity$224032[ebp], eax
$LN6@SetInitial:
	cmp	DWORD PTR _pLoopCity$224032[ebp], 0
	je	SHORT $LN4@SetInitial

; 645  : 			{
; 646  : 				pLoopCity->GetCityCitizens()->DoTurn();

	mov	ecx, DWORD PTR _pLoopCity$224032[ebp]
	call	?GetCityCitizens@CvCity@@QBEPAVCvCityCitizens@@XZ ; CvCity::GetCityCitizens
	mov	ecx, eax
	call	?DoTurn@CvCityCitizens@@QAEXXZ		; CvCityCitizens::DoTurn

; 647  : 			}

	jmp	SHORT $LN5@SetInitial
$LN4@SetInitial:

; 648  : 
; 649  : 			// Update player data
; 650  : 			kPlayer.GetCityConnections()->Update();

	mov	ecx, DWORD PTR _kPlayer$224030[ebp]
	call	?GetCityConnections@CvPlayer@@QBEPAVCvCityConnections@@XZ ; CvPlayer::GetCityConnections
	mov	ecx, eax
	call	?Update@CvCityConnections@@QAEXXZ	; CvCityConnections::Update

; 651  : 			kPlayer.GetTreasury()->DoUpdateCityConnectionGold();

	mov	ecx, DWORD PTR _kPlayer$224030[ebp]
	call	?GetTreasury@CvPlayer@@QBEPAVCvTreasury@@XZ ; CvPlayer::GetTreasury
	mov	ecx, eax
	call	?DoUpdateCityConnectionGold@CvTreasury@@QAEXXZ ; CvTreasury::DoUpdateCityConnectionGold

; 652  : 			kPlayer.GetTreasury()->DoGold();

	mov	ecx, DWORD PTR _kPlayer$224030[ebp]
	call	?GetTreasury@CvPlayer@@QBEPAVCvTreasury@@XZ ; CvPlayer::GetTreasury
	mov	ecx, eax
	call	?DoGold@CvTreasury@@QAEXXZ		; CvTreasury::DoGold

; 653  : 			kPlayer.DoUpdateHappiness();

	mov	ecx, DWORD PTR _kPlayer$224030[ebp]
	call	?DoUpdateHappiness@CvPlayer@@QAEXXZ	; CvPlayer::DoUpdateHappiness
$LN7@SetInitial:

; 654  : #ifdef AUI_CITIZENS_MID_TURN_ASSIGN_RUNS_SELF_CONSISTENCY
; 655  : 			kPlayer.doSelfConsistencyCheckAllCities();
; 656  : #endif
; 657  : 		}
; 658  : 	}

	jmp	$LN9@SetInitial
$LN8@SetInitial:

; 659  : 
; 660  : #ifdef AUI_WARNING_FIXES
; 661  : 	const byte uiCityStateCount = MIN(sg_kSave.GetCityStateCount(), (byte)MAX_MINOR_CIVS);
; 662  : 	for (byte i = 0; i < uiCityStateCount; ++i)
; 663  : #else
; 664  : 	const uint uiCityStateCount = std::min(sg_kSave.GetCityStateCount(), (byte)MAX_MINOR_CIVS);

	mov	BYTE PTR $T228042[ebp], 41		; 00000029H
	mov	cl, BYTE PTR _sg_kSave+12317
	mov	BYTE PTR $T228091[ebp], cl
	mov	dl, BYTE PTR $T228091[ebp]
	mov	BYTE PTR $T228043[ebp], dl
	movzx	eax, BYTE PTR $T228042[ebp]
	movzx	ecx, BYTE PTR $T228043[ebp]
	cmp	eax, ecx
	jge	SHORT $LN44@SetInitial
	lea	edx, DWORD PTR $T228042[ebp]
	mov	DWORD PTR tv204[ebp], edx
	jmp	SHORT $LN45@SetInitial
$LN44@SetInitial:
	lea	eax, DWORD PTR $T228043[ebp]
	mov	DWORD PTR tv204[ebp], eax
$LN45@SetInitial:
	mov	ecx, DWORD PTR tv204[ebp]
	mov	DWORD PTR $T228098[ebp], ecx
	mov	edx, DWORD PTR $T228098[ebp]
	movzx	eax, BYTE PTR [edx]
	mov	DWORD PTR _uiCityStateCount$[ebp], eax

; 665  : 	for(uint i = 0; i < uiCityStateCount; ++i)

	mov	DWORD PTR _i$224041[ebp], 0
	jmp	SHORT $LN3@SetInitial
$LN2@SetInitial:
	mov	ecx, DWORD PTR _i$224041[ebp]
	add	ecx, 1
	mov	DWORD PTR _i$224041[ebp], ecx
$LN3@SetInitial:
	mov	edx, DWORD PTR _i$224041[ebp]
	cmp	edx, DWORD PTR _uiCityStateCount$[ebp]
	jae	SHORT $LN14@SetInitial

; 666  : #endif
; 667  : 	{
; 668  : 		const PlayerTypes ePlayer = (PlayerTypes)(i + MAX_MAJOR_CIVS);

	mov	eax, DWORD PTR _i$224041[ebp]
	add	eax, 22					; 00000016H
	mov	DWORD PTR _ePlayer$224045[ebp], eax

; 669  : 		SetPlayerInitialItems(GET_PLAYER(ePlayer), sg_kSave.GetCityState(i));

	movzx	ecx, BYTE PTR _i$224041[ebp]
	movzx	edx, BYTE PTR _sg_kSave+12317
	cmp	ecx, edx
	jge	SHORT $LN47@SetInitial
	movzx	eax, BYTE PTR _i$224041[ebp]
	cmp	eax, 64					; 00000040H
	jae	SHORT $LN47@SetInitial
	movzx	ecx, BYTE PTR _i$224041[ebp]
	imul	ecx, 436				; 000001b4H
	add	ecx, OFFSET _sg_kSave+550560
	mov	DWORD PTR $T228106[ebp], ecx
	jmp	SHORT $LN50@SetInitial
	jmp	SHORT $LN50@SetInitial
$LN47@SetInitial:
	mov	DWORD PTR $T228106[ebp], OFFSET ?sm_kErrorPlayer@CvWorldBuilderMap@@0UPlayer@1@A ; CvWorldBuilderMap::sm_kErrorPlayer
$LN50@SetInitial:
	mov	edx, DWORD PTR $T228106[ebp]
	push	edx
	mov	eax, DWORD PTR _ePlayer$224045[ebp]
	imul	eax, 63236				; 0000f704H
	add	eax, DWORD PTR ?m_aPlayers@CvPlayerAI@@1PAV1@A ; CvPlayerAI::m_aPlayers
	push	eax
	call	?SetPlayerInitialItems@@YAXAAVCvPlayer@@ABUPlayer@CvWorldBuilderMap@@@Z ; SetPlayerInitialItems
	add	esp, 8
	jmp	SHORT $LN2@SetInitial
$LN14@SetInitial:

; 670  : 	}
; 671  : }

	mov	esp, ebp
	pop	ebp
	ret	0
?SetInitialItems@CvWorldBuilderMapLoader@@SAX_N@Z ENDP	; CvWorldBuilderMapLoader::SetInitialItems
_TEXT	ENDS
PUBLIC	?GetPlayerType@@YA?AW4PlayerTypes@@E@Z		; GetPlayerType
; Function compile flags: /Odtp
;	COMDAT ?GetPlayerType@@YA?AW4PlayerTypes@@E@Z
_TEXT	SEGMENT
_uiCityState$224056 = -4				; size = 4
_byCulture$ = 8						; size = 1
?GetPlayerType@@YA?AW4PlayerTypes@@E@Z PROC		; GetPlayerType, COMDAT

; 674  : {

	push	ebp
	mov	ebp, esp
	push	ecx

; 675  : 	if(byCulture < CvWorldBuilderMap::MaxPlayers)

	movzx	eax, BYTE PTR _byCulture$[ebp]
	cmp	eax, 32					; 00000020H
	jae	SHORT $LN10@GetPlayerT

; 676  : 	{
; 677  : 		if(byCulture < MAX_MAJOR_CIVS)

	movzx	ecx, BYTE PTR _byCulture$[ebp]
	cmp	ecx, 22					; 00000016H
	jge	SHORT $LN9@GetPlayerT

; 678  : 			return (PlayerTypes)byCulture;

	movzx	eax, BYTE PTR _byCulture$[ebp]
	jmp	SHORT $LN11@GetPlayerT

; 679  : 		else

	jmp	SHORT $LN8@GetPlayerT
$LN9@GetPlayerT:

; 680  : 			return NO_PLAYER; // Player out of range

	or	eax, -1
	jmp	SHORT $LN11@GetPlayerT
$LN8@GetPlayerT:
	jmp	SHORT $LN11@GetPlayerT
$LN10@GetPlayerT:

; 681  : 	}
; 682  : 	else if(byCulture < CvWorldBuilderMap::MaxPlayers + CvWorldBuilderMap::MaxCityStates)

	movzx	edx, BYTE PTR _byCulture$[ebp]
	cmp	edx, 96					; 00000060H
	jae	SHORT $LN6@GetPlayerT

; 683  : 	{
; 684  : 		const uint uiCityState = byCulture - CvWorldBuilderMap::MaxPlayers;

	movzx	eax, BYTE PTR _byCulture$[ebp]
	sub	eax, 32					; 00000020H
	mov	DWORD PTR _uiCityState$224056[ebp], eax

; 685  : 		if(uiCityState < MAX_MINOR_CIVS)

	cmp	DWORD PTR _uiCityState$224056[ebp], 41	; 00000029H
	jae	SHORT $LN5@GetPlayerT

; 686  : 			return (PlayerTypes)(uiCityState + MAX_MAJOR_CIVS);

	mov	eax, DWORD PTR _uiCityState$224056[ebp]
	add	eax, 22					; 00000016H
	jmp	SHORT $LN11@GetPlayerT

; 687  : 		else

	jmp	SHORT $LN4@GetPlayerT
$LN5@GetPlayerT:

; 688  : 			return NO_PLAYER; // City State out of range

	or	eax, -1
	jmp	SHORT $LN11@GetPlayerT
$LN4@GetPlayerT:
	jmp	SHORT $LN11@GetPlayerT
$LN6@GetPlayerT:

; 689  : 	}
; 690  : 	else if(byCulture == CvWorldBuilderMap::MaxPlayers + CvWorldBuilderMap::MaxCityStates)

	movzx	ecx, BYTE PTR _byCulture$[ebp]
	cmp	ecx, 96					; 00000060H
	jne	SHORT $LN2@GetPlayerT

; 691  : 	{
; 692  : 		return BARBARIAN_PLAYER;

	mov	eax, 63					; 0000003fH
	jmp	SHORT $LN11@GetPlayerT

; 693  : 	}
; 694  : 	else

	jmp	SHORT $LN11@GetPlayerT
$LN2@GetPlayerT:

; 695  : 	{
; 696  : 		return NO_PLAYER; // Completely invalid culture type

	or	eax, -1
$LN11@GetPlayerT:

; 697  : 	}
; 698  : }

	mov	esp, ebp
	pop	ebp
	ret	0
?GetPlayerType@@YA?AW4PlayerTypes@@E@Z ENDP		; GetPlayerType
_TEXT	ENDS
PUBLIC	?_Xran@?$bitset@$0CAA@@std@@ABEXXZ		; std::bitset<512>::_Xran
PUBLIC	__real@47c35000
PUBLIC	?SetupCity@@YAXABUCity@CvWorldBuilderMap@@HH@Z	; SetupCity
EXTRN	?DoUpdateNextPolicyCost@CvPlayer@@QAEXXZ:PROC	; CvPlayer::DoUpdateNextPolicyCost
EXTRN	?SetNumRealBuilding@CvCityBuildings@@QAEXW4BuildingTypes@@H@Z:PROC ; CvCityBuildings::SetNumRealBuilding
EXTRN	?GetCityBuildings@CvCity@@QBEPAVCvCityBuildings@@XZ:PROC ; CvCity::GetCityBuildings
EXTRN	?setDamage@CvCity@@QAEXH_N@Z:PROC		; CvCity::setDamage
EXTRN	?GetMaxHitPoints@CvCity@@QBEHXZ:PROC		; CvCity::GetMaxHitPoints
EXTRN	?SetPuppet@CvCity@@QAEX_N@Z:PROC		; CvCity::SetPuppet
EXTRN	?SetOccupied@CvCity@@QAEX_N@Z:PROC		; CvCity::SetOccupied
EXTRN	?setPopulation@CvCity@@QAEXH_N@Z:PROC		; CvCity::setPopulation
EXTRN	?setName@CvCity@@QAEXPBD_N@Z:PROC		; CvCity::setName
EXTRN	?initCity@CvPlayer@@QAEPAVCvCity@@HH_N0@Z:PROC	; CvPlayer::initCity
EXTRN	__fltused:DWORD
;	COMDAT __real@47c35000
; File c:\program files (x86)\microsoft visual studio 9.0\vc\include\stdexcept
CONST	SEGMENT
__real@47c35000 DD 047c35000r			; 100000
; Function compile flags: /Odtp
; File d:\sources\lekmod_git\checkout\lekmod_dll\cvgamecoredll_expansion2\cvworldbuildermaploader.cpp
CONST	ENDS
;	COMDAT ?SetupCity@@YAXABUCity@CvWorldBuilderMap@@HH@Z
_TEXT	SEGMENT
tv247 = -120						; size = 8
$T228151 = -112						; size = 4
_eBuildingType$224091 = -40				; size = 4
_iBuilding$224087 = -36					; size = 4
_iBuildingTypeCount$224086 = -32			; size = 4
_fHitPoints$224079 = -28				; size = 4
_iHitPoints$224081 = -24				; size = 4
_iMaxHitPoints$224078 = -20				; size = 4
_pkCityBuildings$224084 = -16				; size = 4
_pkGameplayCity$224072 = -12				; size = 4
_kPlayer$224071 = -8					; size = 4
_ePlayer$ = -4						; size = 4
_kSavedCity$ = 8					; size = 4
_iPlotX$ = 12						; size = 4
_iPlotY$ = 16						; size = 4
?SetupCity@@YAXABUCity@CvWorldBuilderMap@@HH@Z PROC	; SetupCity, COMDAT

; 701  : {

	push	ebp
	mov	ebp, esp
	sub	esp, 120				; 00000078H
	push	esi

; 702  : 	const PlayerTypes ePlayer = GetPlayerType(kSavedCity.m_byOwner);

	mov	eax, DWORD PTR _kSavedCity$[ebp]
	movzx	ecx, BYTE PTR [eax+64]
	push	ecx
	call	?GetPlayerType@@YA?AW4PlayerTypes@@E@Z	; GetPlayerType
	add	esp, 4
	mov	DWORD PTR _ePlayer$[ebp], eax

; 703  : 	if(ePlayer != NO_PLAYER)

	cmp	DWORD PTR _ePlayer$[ebp], -1
	je	$LN11@SetupCity

; 704  : 	{
; 705  : 		CvPlayer& kPlayer = GET_PLAYER(ePlayer);

	mov	edx, DWORD PTR _ePlayer$[ebp]
	imul	edx, 63236				; 0000f704H
	add	edx, DWORD PTR ?m_aPlayers@CvPlayerAI@@1PAV1@A ; CvPlayerAI::m_aPlayers
	mov	DWORD PTR _kPlayer$224071[ebp], edx

; 706  : 		CvCity* pkGameplayCity = kPlayer.initCity(iPlotX, iPlotY);

	push	1
	push	1
	mov	eax, DWORD PTR _iPlotY$[ebp]
	push	eax
	mov	ecx, DWORD PTR _iPlotX$[ebp]
	push	ecx
	mov	ecx, DWORD PTR _kPlayer$224071[ebp]
	call	?initCity@CvPlayer@@QAEPAVCvCity@@HH_N0@Z ; CvPlayer::initCity
	mov	DWORD PTR _pkGameplayCity$224072[ebp], eax

; 707  : 		if(pkGameplayCity != NULL)

	cmp	DWORD PTR _pkGameplayCity$224072[ebp], 0
	je	$LN11@SetupCity

; 708  : 		{
; 709  : 			pkGameplayCity->setName(kSavedCity.m_szName);

	push	0
	mov	edx, DWORD PTR _kSavedCity$[ebp]
	push	edx
	mov	ecx, DWORD PTR _pkGameplayCity$224072[ebp]
	call	?setName@CvCity@@QAEXPBD_N@Z		; CvCity::setName

; 710  : 			pkGameplayCity->setPopulation(kSavedCity.m_wPopulation);

	push	1
	mov	eax, DWORD PTR _kSavedCity$[ebp]
	movzx	ecx, WORD PTR [eax+66]
	push	ecx
	mov	ecx, DWORD PTR _pkGameplayCity$224072[ebp]
	call	?setPopulation@CvCity@@QAEXH_N@Z	; CvCity::setPopulation

; 711  : 
; 712  : 			if(kSavedCity.GetFlag(CvWorldBuilderMap::City::CITY_PUPPET_STATE))

	mov	edx, DWORD PTR _kSavedCity$[ebp]
	movzx	eax, BYTE PTR [edx+65]
	and	eax, 2
	neg	eax
	sbb	eax, eax
	neg	eax
	movzx	ecx, al
	test	ecx, ecx
	je	SHORT $LN10@SetupCity

; 713  : 			{
; 714  : 				pkGameplayCity->SetOccupied(true);

	push	1
	mov	ecx, DWORD PTR _pkGameplayCity$224072[ebp]
	call	?SetOccupied@CvCity@@QAEX_N@Z		; CvCity::SetOccupied

; 715  : 				pkGameplayCity->SetPuppet(true);

	push	1
	mov	ecx, DWORD PTR _pkGameplayCity$224072[ebp]
	call	?SetPuppet@CvCity@@QAEX_N@Z		; CvCity::SetPuppet
	jmp	SHORT $LN8@SetupCity
$LN10@SetupCity:

; 716  : 			}
; 717  : 			else if(kSavedCity.GetFlag(CvWorldBuilderMap::City::CITY_OCCUPIED))

	mov	edx, DWORD PTR _kSavedCity$[ebp]
	movzx	eax, BYTE PTR [edx+65]
	and	eax, 4
	neg	eax
	sbb	eax, eax
	neg	eax
	movzx	ecx, al
	test	ecx, ecx
	je	SHORT $LN8@SetupCity

; 718  : 			{
; 719  : 				pkGameplayCity->SetOccupied(true);

	push	1
	mov	ecx, DWORD PTR _pkGameplayCity$224072[ebp]
	call	?SetOccupied@CvCity@@QAEX_N@Z		; CvCity::SetOccupied
$LN8@SetupCity:

; 720  : 			}
; 721  : 
; 722  : 			if(kSavedCity.m_uiHealth != kSavedCity.MaxHealth)

	mov	edx, DWORD PTR _kSavedCity$[ebp]
	cmp	DWORD PTR [edx+68], 100000		; 000186a0H
	je	SHORT $LN7@SetupCity

; 723  : 			{
; 724  : 				const int iMaxHitPoints = pkGameplayCity->GetMaxHitPoints();

	mov	ecx, DWORD PTR _pkGameplayCity$224072[ebp]
	call	?GetMaxHitPoints@CvCity@@QBEHXZ		; CvCity::GetMaxHitPoints
	mov	DWORD PTR _iMaxHitPoints$224078[ebp], eax

; 725  : 
; 726  : 				// TODO: Oh no!  It's floating point math!  This may be an issue for multi-player.
; 727  : 				const float fHitPoints = kSavedCity.GetHealthAsFloat() * (float)iMaxHitPoints;

	fild	DWORD PTR _iMaxHitPoints$224078[ebp]
	mov	eax, DWORD PTR _kSavedCity$[ebp]
	mov	ecx, DWORD PTR [eax+68]
	mov	DWORD PTR tv247[ebp], ecx
	mov	DWORD PTR tv247[ebp+4], 0
	fild	QWORD PTR tv247[ebp]
	fdiv	DWORD PTR __real@47c35000
	fmulp	ST(1), ST(0)
	fstp	DWORD PTR _fHitPoints$224079[ebp]

; 728  : 
; 729  : 				// Don't allow the city to be killed by a precision error
; 730  : 				int iHitPoints = (int)fHitPoints;

	cvttss2si edx, DWORD PTR _fHitPoints$224079[ebp]
	mov	DWORD PTR _iHitPoints$224081[ebp], edx

; 731  : 				if(iHitPoints == 0 && kSavedCity.m_uiHealth != 0)

	cmp	DWORD PTR _iHitPoints$224081[ebp], 0
	jne	SHORT $LN6@SetupCity
	mov	eax, DWORD PTR _kSavedCity$[ebp]
	cmp	DWORD PTR [eax+68], 0
	je	SHORT $LN6@SetupCity

; 732  : 					iHitPoints = 1;

	mov	DWORD PTR _iHitPoints$224081[ebp], 1
$LN6@SetupCity:

; 733  : 
; 734  : 				pkGameplayCity->setDamage(iMaxHitPoints - iHitPoints);

	push	0
	mov	ecx, DWORD PTR _iMaxHitPoints$224078[ebp]
	sub	ecx, DWORD PTR _iHitPoints$224081[ebp]
	push	ecx
	mov	ecx, DWORD PTR _pkGameplayCity$224072[ebp]
	call	?setDamage@CvCity@@QAEXH_N@Z		; CvCity::setDamage
$LN7@SetupCity:

; 735  : 			}
; 736  : 
; 737  : 			CvCityBuildings* pkCityBuildings = pkGameplayCity->GetCityBuildings();

	mov	ecx, DWORD PTR _pkGameplayCity$224072[ebp]
	call	?GetCityBuildings@CvCity@@QBEPAVCvCityBuildings@@XZ ; CvCity::GetCityBuildings
	mov	DWORD PTR _pkCityBuildings$224084[ebp], eax

; 738  : 			if(pkCityBuildings != NULL)

	cmp	DWORD PTR _pkCityBuildings$224084[ebp], 0
	je	$LN2@SetupCity

; 739  : 			{
; 740  : 				const int iBuildingTypeCount = GC.getNumBuildingInfos();

	mov	ecx, OFFSET ?gGlobals@@3VCvGlobals@@A	; gGlobals
	call	?getNumBuildingInfos@CvGlobals@@QAEHXZ	; CvGlobals::getNumBuildingInfos
	mov	DWORD PTR _iBuildingTypeCount$224086[ebp], eax

; 741  : 				for(int iBuilding = 0; iBuilding < iBuildingTypeCount; ++iBuilding)

	mov	DWORD PTR _iBuilding$224087[ebp], 0
	jmp	SHORT $LN4@SetupCity
$LN3@SetupCity:
	mov	edx, DWORD PTR _iBuilding$224087[ebp]
	add	edx, 1
	mov	DWORD PTR _iBuilding$224087[ebp], edx
$LN4@SetupCity:
	mov	eax, DWORD PTR _iBuilding$224087[ebp]
	cmp	eax, DWORD PTR _iBuildingTypeCount$224086[ebp]
	jge	SHORT $LN2@SetupCity

; 742  : 				{
; 743  : 					const BuildingTypes eBuildingType = (BuildingTypes)iBuilding;

	mov	ecx, DWORD PTR _iBuilding$224087[ebp]
	mov	DWORD PTR _eBuildingType$224091[ebp], ecx

; 744  : 					if(kSavedCity.m_kBuildings[iBuilding])

	mov	edx, DWORD PTR _kSavedCity$[ebp]
	add	edx, 72					; 00000048H
	mov	DWORD PTR $T228151[ebp], edx
	cmp	DWORD PTR _iBuilding$224087[ebp], 512	; 00000200H
	jb	SHORT $LN25@SetupCity
	mov	ecx, DWORD PTR $T228151[ebp]
	call	?_Xran@?$bitset@$0CAA@@std@@ABEXXZ	; std::bitset<512>::_Xran
$LN25@SetupCity:
	mov	esi, DWORD PTR _iBuilding$224087[ebp]
	shr	esi, 5
	mov	eax, DWORD PTR _iBuilding$224087[ebp]
	xor	edx, edx
	mov	ecx, 32					; 00000020H
	div	ecx
	mov	eax, 1
	mov	ecx, edx
	shl	eax, cl
	mov	ecx, DWORD PTR $T228151[ebp]
	and	eax, DWORD PTR [ecx+esi*4]
	neg	eax
	sbb	eax, eax
	neg	eax
	movzx	edx, al
	test	edx, edx
	je	SHORT $LN1@SetupCity

; 745  : 						pkCityBuildings->SetNumRealBuilding(eBuildingType, 1);

	push	1
	mov	eax, DWORD PTR _eBuildingType$224091[ebp]
	push	eax
	mov	ecx, DWORD PTR _pkCityBuildings$224084[ebp]
	call	?SetNumRealBuilding@CvCityBuildings@@QAEXW4BuildingTypes@@H@Z ; CvCityBuildings::SetNumRealBuilding
$LN1@SetupCity:

; 746  : 				}

	jmp	SHORT $LN3@SetupCity
$LN2@SetupCity:

; 747  : 			}
; 748  : 			kPlayer.DoUpdateNextPolicyCost();

	mov	ecx, DWORD PTR _kPlayer$224071[ebp]
	call	?DoUpdateNextPolicyCost@CvPlayer@@QAEXXZ ; CvPlayer::DoUpdateNextPolicyCost
$LN11@SetupCity:

; 749  : 		}
; 750  : 	}
; 751  : }

	pop	esi
	mov	esp, ebp
	pop	ebp
	ret	0
?SetupCity@@YAXABUCity@CvWorldBuilderMap@@HH@Z ENDP	; SetupCity
_TEXT	ENDS
PUBLIC	__real@00000000
PUBLIC	??_C@_0BO@OLOFEPN@Picking?5Random?5Unit?5Direction?$AA@ ; `string'
PUBLIC	?SetupUnit@@YAXABUUnit@CvWorldBuilderMap@@HH@Z	; SetupUnit
EXTRN	?setName@CvUnit@@QAEXVCvString@@@Z:PROC		; CvUnit::setName
EXTRN	?setExperience@CvUnit@@QAEXHH@Z:PROC		; CvUnit::setExperience
EXTRN	?setDamage@CvUnit@@QAEHHW4PlayerTypes@@MPBVCvString@@@Z:PROC ; CvUnit::setDamage
EXTRN	?GetMaxHitPoints@CvUnit@@QBEHXZ:PROC		; CvUnit::GetMaxHitPoints
EXTRN	?setMoves@CvUnit@@QAEXH@Z:PROC			; CvUnit::setMoves
EXTRN	?maxMoves@CvUnit@@QBEHXZ:PROC			; CvUnit::maxMoves
EXTRN	?setEmbarked@CvUnit@@QAEX_N@Z:PROC		; CvUnit::setEmbarked
EXTRN	?setHasPromotion@CvUnit@@QAEXW4PromotionTypes@@_N@Z:PROC ; CvUnit::setHasPromotion
EXTRN	?GetEmbarkationPromotion@CvPlayer@@QBE?AW4PromotionTypes@@XZ:PROC ; CvPlayer::GetEmbarkationPromotion
EXTRN	?getMISSION_SLEEP@CvTypes@@YA?BW4MissionTypes@@XZ:PROC ; CvTypes::getMISSION_SLEEP
EXTRN	?getMISSION_FORTIFY@CvTypes@@YA?BW4MissionTypes@@XZ:PROC ; CvTypes::getMISSION_FORTIFY
EXTRN	?isFortifyable@CvUnit@@QBE_N_N@Z:PROC		; CvUnit::isFortifyable
EXTRN	?initUnit@CvPlayer@@QAEPAVCvUnit@@W4UnitTypes@@HHW4UnitAITypes@@W4DirectionTypes@@_N3HH@Z:PROC ; CvPlayer::initUnit
EXTRN	?getJonRandNum@CvGame@@QAEHHPBD@Z:PROC		; CvGame::getJonRandNum
EXTRN	?GetDefaultUnitAIType@CvUnitEntry@@QBEHXZ:PROC	; CvUnitEntry::GetDefaultUnitAIType
;	COMDAT __real@00000000
; File d:\sources\lekmod_git\checkout\lekmod_dll\cvgamecoredllutil\include\cvstring.h
CONST	SEGMENT
__real@00000000 DD 000000000r			; 0
CONST	ENDS
;	COMDAT ??_C@_0BO@OLOFEPN@Picking?5Random?5Unit?5Direction?$AA@
CONST	SEGMENT
??_C@_0BO@OLOFEPN@Picking?5Random?5Unit?5Direction?$AA@ DB 'Picking Rando'
	DB	'm Unit Direction', 00H			; `string'
; Function compile flags: /Odtp
; File d:\sources\lekmod_git\checkout\lekmod_dll\cvgamecoredll_expansion2\cvworldbuildermaploader.cpp
CONST	ENDS
;	COMDAT ?SetupUnit@@YAXABUUnit@CvWorldBuilderMap@@HH@Z
_TEXT	SEGMENT
tv262 = -192						; size = 4
tv294 = -188						; size = 4
tv405 = -184						; size = 8
tv173 = -176						; size = 4
tv154 = -172						; size = 4
tv77 = -168						; size = 4
$T228237 = -164						; size = 4
$T228228 = -158						; size = 2
$T228219 = -156						; size = 4
$T228194 = -84						; size = 4
$T228185 = -80						; size = 4
$T228181 = -76						; size = 4
$T228172 = -72						; size = 4
$T228162 = -68						; size = 4
$T228157 = -64						; size = 4
_pkUnitName$224148 = -60				; size = 4
_ePromotionType$224144 = -56				; size = 4
_iPromotion$224140 = -52				; size = 4
_fHitPoints$224133 = -48				; size = 4
_iHitPoints$224135 = -44				; size = 4
_iMaxHitPoints$224132 = -40				; size = 4
_ePromotionEmbarkation$224130 = -36			; size = 4
_iPromotionTypeCount$224139 = -32			; size = 4
_pkGameplayUnit$224124 = -28				; size = 4
_kPlayer$224123 = -24					; size = 4
_ePlayer$ = -20						; size = 4
_eFacing$ = -16						; size = 4
_pkUnitType$ = -12					; size = 4
_eUnitType$ = -8					; size = 4
_eAIType$ = -4						; size = 4
_kSavedUnit$ = 8					; size = 4
_iPlotX$ = 12						; size = 4
_iPlotY$ = 16						; size = 4
?SetupUnit@@YAXABUUnit@CvWorldBuilderMap@@HH@Z PROC	; SetupUnit, COMDAT

; 754  : {

	push	ebp
	mov	ebp, esp
	sub	esp, 192				; 000000c0H
	push	esi

; 755  : 	const PlayerTypes ePlayer = GetPlayerType(kSavedUnit.m_byOwner);

	mov	eax, DWORD PTR _kSavedUnit$[ebp]
	movzx	ecx, BYTE PTR [eax+16]
	push	ecx
	call	?GetPlayerType@@YA?AW4PlayerTypes@@E@Z	; GetPlayerType
	add	esp, 4
	mov	DWORD PTR _ePlayer$[ebp], eax

; 756  : 	UnitTypes eUnitType = (UnitTypes)kSavedUnit.m_byUnitType;

	mov	edx, DWORD PTR _kSavedUnit$[ebp]
	mov	eax, DWORD PTR [edx+12]
	mov	DWORD PTR _eUnitType$[ebp], eax

; 757  : 	// Test to see if m_byUnitType is still a byte, if so, if it is 255, then it is really -1 and we must reflect this in the eUnitType
; 758  : 	// The World Builder map format should be changed so the serialization of the unit type is an int.  We are already close to
; 759  : 	// maxing out the byte range as it stands now.
; 760  : 	if (sizeof(kSavedUnit.m_byUnitType) == 1 && kSavedUnit.m_byUnitType == 255)

	xor	ecx, ecx
	je	SHORT $LN26@SetupUnit

; 761  : 	{
; 762  : 		eUnitType = NO_UNIT;

	mov	DWORD PTR _eUnitType$[ebp], -1
$LN26@SetupUnit:

; 763  : 	}
; 764  : 
; 765  : 	UnitAITypes eAIType = NO_UNITAI;

	mov	DWORD PTR _eAIType$[ebp], -1

; 766  : 	const CvUnitEntry* pkUnitType = GC.getUnitInfo(eUnitType);

	mov	edx, DWORD PTR _eUnitType$[ebp]
	push	edx
	mov	ecx, OFFSET ?gGlobals@@3VCvGlobals@@A	; gGlobals
	call	?getUnitInfo@CvGlobals@@QAEPAVCvUnitEntry@@W4UnitTypes@@@Z ; CvGlobals::getUnitInfo
	mov	DWORD PTR _pkUnitType$[ebp], eax

; 767  : 	FAssert(pkUnitType); // We should probably be concerned if this unit type isn't valid
; 768  : 	if(pkUnitType != NULL)

	cmp	DWORD PTR _pkUnitType$[ebp], 0
	je	SHORT $LN25@SetupUnit

; 769  : 		eAIType = (UnitAITypes)pkUnitType->GetDefaultUnitAIType();

	mov	ecx, DWORD PTR _pkUnitType$[ebp]
	call	?GetDefaultUnitAIType@CvUnitEntry@@QBEHXZ ; CvUnitEntry::GetDefaultUnitAIType
	mov	DWORD PTR _eAIType$[ebp], eax

; 770  : 	else

	jmp	SHORT $LN24@SetupUnit
$LN25@SetupUnit:

; 771  : 		return;	// The unit type is invalid, we really can't go any further.

	jmp	$LN27@SetupUnit
$LN24@SetupUnit:

; 772  : 
; 773  : 	DirectionTypes eFacing = NO_DIRECTION;

	mov	DWORD PTR _eFacing$[ebp], -1

; 774  : 	switch(kSavedUnit.m_byDirection)

	mov	eax, DWORD PTR _kSavedUnit$[ebp]
	movzx	ecx, BYTE PTR [eax+17]
	mov	DWORD PTR tv77[ebp], ecx
	mov	edx, DWORD PTR tv77[ebp]
	sub	edx, 1
	mov	DWORD PTR tv77[ebp], edx
	cmp	DWORD PTR tv77[ebp], 5
	ja	SHORT $LN15@SetupUnit
	mov	eax, DWORD PTR tv77[ebp]
	jmp	DWORD PTR $LN74@SetupUnit[eax*4]
$LN21@SetupUnit:

; 775  : 	{
; 776  : 	case CvWorldBuilderMap::Unit::DIRECTION_EAST:
; 777  : 		eFacing = DIRECTION_EAST;

	mov	DWORD PTR _eFacing$[ebp], 1

; 778  : 		break;

	jmp	SHORT $LN22@SetupUnit
$LN20@SetupUnit:

; 779  : 
; 780  : 	case CvWorldBuilderMap::Unit::DIRECTION_NORTHEAST:
; 781  : 		eFacing = DIRECTION_NORTHEAST;

	mov	DWORD PTR _eFacing$[ebp], 0

; 782  : 		break;

	jmp	SHORT $LN22@SetupUnit
$LN19@SetupUnit:

; 783  : 
; 784  : 	case CvWorldBuilderMap::Unit::DIRECTION_NORTHWEST:
; 785  : 		eFacing = DIRECTION_NORTHWEST;

	mov	DWORD PTR _eFacing$[ebp], 5

; 786  : 		break;

	jmp	SHORT $LN22@SetupUnit
$LN18@SetupUnit:

; 787  : 
; 788  : 	case CvWorldBuilderMap::Unit::DIRECTION_SOUTHEAST:
; 789  : 		eFacing = DIRECTION_SOUTHEAST;

	mov	DWORD PTR _eFacing$[ebp], 2

; 790  : 		break;

	jmp	SHORT $LN22@SetupUnit
$LN17@SetupUnit:

; 791  : 
; 792  : 	case CvWorldBuilderMap::Unit::DIRECTION_SOUTHWEST:
; 793  : 		eFacing = DIRECTION_SOUTHWEST;

	mov	DWORD PTR _eFacing$[ebp], 3

; 794  : 		break;

	jmp	SHORT $LN22@SetupUnit
$LN16@SetupUnit:

; 795  : 
; 796  : 	case CvWorldBuilderMap::Unit::DIRECTION_WEST:
; 797  : 		eFacing = DIRECTION_WEST;

	mov	DWORD PTR _eFacing$[ebp], 4

; 798  : 		break;

	jmp	SHORT $LN22@SetupUnit
$LN15@SetupUnit:

; 799  : 
; 800  : 	default:
; 801  : 		eFacing = (DirectionTypes)GC.getGame().getJonRandNum(NUM_DIRECTION_TYPES, "Picking Random Unit Direction");

	mov	ecx, DWORD PTR ?gGlobals@@3VCvGlobals@@A+48
	mov	DWORD PTR $T228162[ebp], ecx
	push	OFFSET ??_C@_0BO@OLOFEPN@Picking?5Random?5Unit?5Direction?$AA@
	push	6
	mov	ecx, DWORD PTR $T228162[ebp]
	call	?getJonRandNum@CvGame@@QAEHHPBD@Z	; CvGame::getJonRandNum
	mov	DWORD PTR _eFacing$[ebp], eax
$LN22@SetupUnit:

; 802  : 	}
; 803  : 
; 804  : 	if(ePlayer != NO_PLAYER)

	cmp	DWORD PTR _ePlayer$[ebp], -1
	je	$LN1@SetupUnit

; 805  : 	{
; 806  : 		CvPlayer& kPlayer = GET_PLAYER(ePlayer);

	mov	edx, DWORD PTR _ePlayer$[ebp]
	imul	edx, 63236				; 0000f704H
	add	edx, DWORD PTR ?m_aPlayers@CvPlayerAI@@1PAV1@A ; CvPlayerAI::m_aPlayers
	mov	DWORD PTR _kPlayer$224123[ebp], edx

; 807  : 		CvUnit* pkGameplayUnit = kPlayer.initUnit(eUnitType, iPlotX, iPlotY, eAIType, eFacing, false);

	push	0
	push	0
	push	1
	push	0
	mov	eax, DWORD PTR _eFacing$[ebp]
	push	eax
	mov	ecx, DWORD PTR _eAIType$[ebp]
	push	ecx
	mov	edx, DWORD PTR _iPlotY$[ebp]
	push	edx
	mov	eax, DWORD PTR _iPlotX$[ebp]
	push	eax
	mov	ecx, DWORD PTR _eUnitType$[ebp]
	push	ecx
	mov	ecx, DWORD PTR _kPlayer$224123[ebp]
	call	?initUnit@CvPlayer@@QAEPAVCvUnit@@W4UnitTypes@@HHW4UnitAITypes@@W4DirectionTypes@@_N3HH@Z ; CvPlayer::initUnit
	mov	DWORD PTR _pkGameplayUnit$224124[ebp], eax

; 808  : 		if(pkGameplayUnit != NULL)

	cmp	DWORD PTR _pkGameplayUnit$224124[ebp], 0
	je	$LN1@SetupUnit

; 809  : 		{
; 810  : 			if(kSavedUnit.GetFlag(CvWorldBuilderMap::Unit::UNIT_FORTIFIED))

	mov	edx, DWORD PTR _kSavedUnit$[ebp]
	movzx	eax, BYTE PTR [edx+18]
	and	eax, 1
	neg	eax
	sbb	eax, eax
	neg	eax
	movzx	ecx, al
	test	ecx, ecx
	je	$LN10@SetupUnit

; 811  : 			{
; 812  : 				if(pkGameplayUnit->isFortifyable(true))

	push	1
	mov	ecx, DWORD PTR _pkGameplayUnit$224124[ebp]
	call	?isFortifyable@CvUnit@@QBE_N_N@Z	; CvUnit::isFortifyable
	movzx	edx, al
	test	edx, edx
	je	SHORT $LN11@SetupUnit

; 813  : 					gDLL->sendPushMission(pkGameplayUnit->GetID(), CvTypes::getMISSION_FORTIFY(), 0, 0, 0, false);

	mov	eax, DWORD PTR $T228172[ebp]
	mov	DWORD PTR tv154[ebp], eax
	mov	ecx, DWORD PTR ?gGlobals@@3VCvGlobals@@A+8564
	mov	DWORD PTR tv154[ebp], ecx
	mov	edx, DWORD PTR _pkGameplayUnit$224124[ebp]
	mov	eax, DWORD PTR [edx+100]
	mov	DWORD PTR $T228181[ebp], eax
	push	0
	push	0
	push	0
	push	0
	call	?getMISSION_FORTIFY@CvTypes@@YA?BW4MissionTypes@@XZ ; CvTypes::getMISSION_FORTIFY
	push	eax
	mov	ecx, DWORD PTR $T228181[ebp]
	push	ecx
	mov	edx, DWORD PTR tv154[ebp]
	mov	eax, DWORD PTR [edx]
	mov	ecx, DWORD PTR tv154[ebp]
	mov	edx, DWORD PTR [eax+152]
	call	edx

; 814  : 				else

	jmp	SHORT $LN10@SetupUnit
$LN11@SetupUnit:

; 815  : 					gDLL->sendPushMission(pkGameplayUnit->GetID(), CvTypes::getMISSION_SLEEP(), 0, 0, 0, false);

	mov	eax, DWORD PTR $T228185[ebp]
	mov	DWORD PTR tv173[ebp], eax
	mov	ecx, DWORD PTR ?gGlobals@@3VCvGlobals@@A+8564
	mov	DWORD PTR tv173[ebp], ecx
	mov	edx, DWORD PTR _pkGameplayUnit$224124[ebp]
	mov	eax, DWORD PTR [edx+100]
	mov	DWORD PTR $T228194[ebp], eax
	push	0
	push	0
	push	0
	push	0
	call	?getMISSION_SLEEP@CvTypes@@YA?BW4MissionTypes@@XZ ; CvTypes::getMISSION_SLEEP
	push	eax
	mov	ecx, DWORD PTR $T228194[ebp]
	push	ecx
	mov	edx, DWORD PTR tv173[ebp]
	mov	eax, DWORD PTR [edx]
	mov	ecx, DWORD PTR tv173[ebp]
	mov	edx, DWORD PTR [eax+152]
	call	edx
$LN10@SetupUnit:

; 816  : 			}
; 817  : 
; 818  : 			if(kSavedUnit.GetFlag(CvWorldBuilderMap::Unit::UNIT_EMBARKED))

	mov	eax, DWORD PTR _kSavedUnit$[ebp]
	movzx	ecx, BYTE PTR [eax+18]
	and	ecx, 2
	neg	ecx
	sbb	ecx, ecx
	neg	ecx
	movzx	edx, cl
	test	edx, edx
	je	SHORT $LN9@SetupUnit

; 819  : 			{
; 820  : 				const PromotionTypes ePromotionEmbarkation = kPlayer.GetEmbarkationPromotion();

	mov	ecx, DWORD PTR _kPlayer$224123[ebp]
	call	?GetEmbarkationPromotion@CvPlayer@@QBE?AW4PromotionTypes@@XZ ; CvPlayer::GetEmbarkationPromotion
	mov	DWORD PTR _ePromotionEmbarkation$224130[ebp], eax

; 821  : 				pkGameplayUnit->setHasPromotion(ePromotionEmbarkation, true);

	push	1
	mov	eax, DWORD PTR _ePromotionEmbarkation$224130[ebp]
	push	eax
	mov	ecx, DWORD PTR _pkGameplayUnit$224124[ebp]
	call	?setHasPromotion@CvUnit@@QAEXW4PromotionTypes@@_N@Z ; CvUnit::setHasPromotion

; 822  : 				pkGameplayUnit->setEmbarked(true);

	push	1
	mov	ecx, DWORD PTR _pkGameplayUnit$224124[ebp]
	call	?setEmbarked@CvUnit@@QAEX_N@Z		; CvUnit::setEmbarked

; 823  : 				pkGameplayUnit->setMoves(pkGameplayUnit->maxMoves());

	mov	ecx, DWORD PTR _pkGameplayUnit$224124[ebp]
	call	?maxMoves@CvUnit@@QBEHXZ		; CvUnit::maxMoves
	push	eax
	mov	ecx, DWORD PTR _pkGameplayUnit$224124[ebp]
	call	?setMoves@CvUnit@@QAEXH@Z		; CvUnit::setMoves
$LN9@SetupUnit:

; 824  : 			}
; 825  : 
; 826  : 			if(kSavedUnit.m_uiHealth != kSavedUnit.MaxHealth)

	mov	ecx, DWORD PTR _kSavedUnit$[ebp]
	cmp	DWORD PTR [ecx+8], 100000		; 000186a0H
	je	SHORT $LN8@SetupUnit

; 827  : 			{
; 828  : 				const int iMaxHitPoints = pkGameplayUnit->GetMaxHitPoints();

	mov	ecx, DWORD PTR _pkGameplayUnit$224124[ebp]
	call	?GetMaxHitPoints@CvUnit@@QBEHXZ		; CvUnit::GetMaxHitPoints
	mov	DWORD PTR _iMaxHitPoints$224132[ebp], eax

; 829  : 
; 830  : 				// TODO: Oh no!  It's floating point math!  This may be an issue for multi-player.
; 831  : 				const float fHitPoints = kSavedUnit.GetHealthAsFloat() * (float)iMaxHitPoints;

	fild	DWORD PTR _iMaxHitPoints$224132[ebp]
	mov	edx, DWORD PTR _kSavedUnit$[ebp]
	mov	eax, DWORD PTR [edx+8]
	mov	DWORD PTR tv405[ebp], eax
	mov	DWORD PTR tv405[ebp+4], 0
	fild	QWORD PTR tv405[ebp]
	fdiv	DWORD PTR __real@47c35000
	fmulp	ST(1), ST(0)
	fstp	DWORD PTR _fHitPoints$224133[ebp]

; 832  : 
; 833  : 				// Don't allow the unit to be killed by a precision error
; 834  : 				int iHitPoints = (int)fHitPoints;

	cvttss2si ecx, DWORD PTR _fHitPoints$224133[ebp]
	mov	DWORD PTR _iHitPoints$224135[ebp], ecx

; 835  : 				if(iHitPoints == 0 && kSavedUnit.m_uiHealth != 0)

	cmp	DWORD PTR _iHitPoints$224135[ebp], 0
	jne	SHORT $LN7@SetupUnit
	mov	edx, DWORD PTR _kSavedUnit$[ebp]
	cmp	DWORD PTR [edx+8], 0
	je	SHORT $LN7@SetupUnit

; 836  : 					iHitPoints = 1;

	mov	DWORD PTR _iHitPoints$224135[ebp], 1
$LN7@SetupUnit:

; 837  : 
; 838  : 				pkGameplayUnit->setDamage(iMaxHitPoints - iHitPoints);

	push	0
	push	ecx
	fldz
	fstp	DWORD PTR [esp]
	push	-1
	mov	eax, DWORD PTR _iMaxHitPoints$224132[ebp]
	sub	eax, DWORD PTR _iHitPoints$224135[ebp]
	push	eax
	mov	ecx, DWORD PTR _pkGameplayUnit$224124[ebp]
	call	?setDamage@CvUnit@@QAEHHW4PlayerTypes@@MPBVCvString@@@Z ; CvUnit::setDamage
$LN8@SetupUnit:

; 839  : 			}
; 840  : 
; 841  : 			pkGameplayUnit->setExperience((int)kSavedUnit.m_uiExperience);

	push	-1
	mov	ecx, DWORD PTR _kSavedUnit$[ebp]
	mov	edx, DWORD PTR [ecx+4]
	push	edx
	mov	ecx, DWORD PTR _pkGameplayUnit$224124[ebp]
	call	?setExperience@CvUnit@@QAEXHH@Z		; CvUnit::setExperience

; 842  : 
; 843  : 			const int iPromotionTypeCount = GC.getNumPromotionInfos();

	mov	ecx, OFFSET ?gGlobals@@3VCvGlobals@@A	; gGlobals
	call	?getNumPromotionInfos@CvGlobals@@QAEHXZ	; CvGlobals::getNumPromotionInfos
	mov	DWORD PTR _iPromotionTypeCount$224139[ebp], eax

; 844  : 			for(int iPromotion = 0; iPromotion < iPromotionTypeCount; ++iPromotion)

	mov	DWORD PTR _iPromotion$224140[ebp], 0
	jmp	SHORT $LN6@SetupUnit
$LN5@SetupUnit:
	mov	eax, DWORD PTR _iPromotion$224140[ebp]
	add	eax, 1
	mov	DWORD PTR _iPromotion$224140[ebp], eax
$LN6@SetupUnit:
	mov	ecx, DWORD PTR _iPromotion$224140[ebp]
	cmp	ecx, DWORD PTR _iPromotionTypeCount$224139[ebp]
	jge	SHORT $LN4@SetupUnit

; 845  : 			{
; 846  : 				const PromotionTypes ePromotionType = (PromotionTypes)iPromotion;

	mov	edx, DWORD PTR _iPromotion$224140[ebp]
	mov	DWORD PTR _ePromotionType$224144[ebp], edx

; 847  : 				if(kSavedUnit.m_kPromotions[iPromotion])

	mov	eax, DWORD PTR _kSavedUnit$[ebp]
	add	eax, 20					; 00000014H
	mov	DWORD PTR $T228219[ebp], eax
	cmp	DWORD PTR _iPromotion$224140[ebp], 512	; 00000200H
	jb	SHORT $LN54@SetupUnit
	mov	ecx, DWORD PTR $T228219[ebp]
	call	?_Xran@?$bitset@$0CAA@@std@@ABEXXZ	; std::bitset<512>::_Xran
$LN54@SetupUnit:
	mov	esi, DWORD PTR _iPromotion$224140[ebp]
	shr	esi, 5
	mov	eax, DWORD PTR _iPromotion$224140[ebp]
	xor	edx, edx
	mov	ecx, 32					; 00000020H
	div	ecx
	mov	eax, 1
	mov	ecx, edx
	shl	eax, cl
	mov	ecx, DWORD PTR $T228219[ebp]
	and	eax, DWORD PTR [ecx+esi*4]
	neg	eax
	sbb	eax, eax
	neg	eax
	movzx	edx, al
	test	edx, edx
	je	SHORT $LN3@SetupUnit

; 848  : 					pkGameplayUnit->setHasPromotion(ePromotionType, true);

	push	1
	mov	eax, DWORD PTR _ePromotionType$224144[ebp]
	push	eax
	mov	ecx, DWORD PTR _pkGameplayUnit$224124[ebp]
	call	?setHasPromotion@CvUnit@@QAEXW4PromotionTypes@@_N@Z ; CvUnit::setHasPromotion
$LN3@SetupUnit:

; 849  : 			}

	jmp	SHORT $LN5@SetupUnit
$LN4@SetupUnit:

; 850  : 
; 851  : 			if(kSavedUnit.m_hCustomName.Valid())

	mov	ecx, DWORD PTR _kSavedUnit$[ebp]
	movzx	edx, WORD PTR [ecx+2]
	cmp	edx, 65535				; 0000ffffH
	setne	al
	movzx	ecx, al
	test	ecx, ecx
	je	$LN1@SetupUnit

; 852  : 			{
; 853  : 				CvWorldBuilderMap::UnitName* pkUnitName = sg_kSave.m_kUnitNames[kSavedUnit.m_hCustomName];

	mov	edx, DWORD PTR _kSavedUnit$[ebp]
	mov	ax, WORD PTR [edx+2]
	mov	WORD PTR $T228228[ebp], ax
	movzx	ecx, WORD PTR $T228228[ebp]
	cmp	ecx, DWORD PTR _sg_kSave+2872
	jae	SHORT $LN66@SetupUnit
	movzx	edx, WORD PTR $T228228[ebp]
	shl	edx, 6
	add	edx, DWORD PTR _sg_kSave+2864
	mov	DWORD PTR _pkUnitName$224148[ebp], edx
	jmp	SHORT $LN65@SetupUnit
	jmp	SHORT $LN65@SetupUnit
$LN66@SetupUnit:
	mov	DWORD PTR _pkUnitName$224148[ebp], 0
$LN65@SetupUnit:

; 854  : 				if(pkUnitName != NULL)

	cmp	DWORD PTR _pkUnitName$224148[ebp], 0
	je	SHORT $LN1@SetupUnit

; 855  : 				{
; 856  : 					pkGameplayUnit->setName(pkUnitName->m_szText);

	sub	esp, 28					; 0000001cH
	mov	eax, esp
	mov	DWORD PTR $T228157[ebp], esp
	mov	DWORD PTR $T228237[ebp], eax
	cmp	DWORD PTR _pkUnitName$224148[ebp], 0
	je	SHORT $LN71@SetupUnit
	mov	ecx, DWORD PTR _pkUnitName$224148[ebp]
	mov	DWORD PTR tv294[ebp], ecx
	jmp	SHORT $LN72@SetupUnit
$LN71@SetupUnit:
	mov	DWORD PTR tv294[ebp], OFFSET ??_C@_00CNPNBAHC@?$AA@
$LN72@SetupUnit:
	mov	edx, DWORD PTR tv294[ebp]
	push	edx
	mov	ecx, DWORD PTR $T228237[ebp]
	call	DWORD PTR __imp_??0?$basic_string@DU?$char_traits@D@std@@V?$allocator@D@2@@std@@QAE@PBD@Z
	mov	eax, DWORD PTR $T228237[ebp]
	mov	DWORD PTR tv262[ebp], eax
	mov	ecx, DWORD PTR _pkGameplayUnit$224124[ebp]
	call	?setName@CvUnit@@QAEXVCvString@@@Z	; CvUnit::setName
$LN1@SetupUnit:
$LN27@SetupUnit:

; 857  : 				}
; 858  : 			}
; 859  : 		}
; 860  : 	}
; 861  : }

	pop	esi
	mov	esp, ebp
	pop	ebp
	ret	0
	npad	3
$LN74@SetupUnit:
	DD	$LN20@SetupUnit
	DD	$LN21@SetupUnit
	DD	$LN18@SetupUnit
	DD	$LN17@SetupUnit
	DD	$LN16@SetupUnit
	DD	$LN19@SetupUnit
?SetupUnit@@YAXABUUnit@CvWorldBuilderMap@@HH@Z ENDP	; SetupUnit
_TEXT	ENDS
PUBLIC	?getPlotCity@CvPlot@@QBEPAVCvCity@@XZ		; CvPlot::getPlotCity
PUBLIC	?GetCity@@YAPBVCvCity@@W4PlayerTypes@@PBVCvPlot@@@Z ; GetCity
; Function compile flags: /Odtp
;	COMDAT ?GetCity@@YAPBVCvCity@@W4PlayerTypes@@PBVCvPlot@@@Z
_TEXT	SEGMENT
$T228256 = -12						; size = 4
_pkCity$224156 = -4					; size = 4
_ePlayer$ = 8						; size = 4
_pkPlot$ = 12						; size = 4
?GetCity@@YAPBVCvCity@@W4PlayerTypes@@PBVCvPlot@@@Z PROC ; GetCity, COMDAT

; 864  : {

	push	ebp
	mov	ebp, esp
	sub	esp, 12					; 0000000cH

; 865  : 	if(pkPlot != NULL)

	cmp	DWORD PTR _pkPlot$[ebp], 0
	je	SHORT $LN2@GetCity

; 866  : 	{
; 867  : 		const CvCity* pkCity = pkPlot->getPlotCity();

	mov	ecx, DWORD PTR _pkPlot$[ebp]
	call	?getPlotCity@CvPlot@@QBEPAVCvCity@@XZ	; CvPlot::getPlotCity
	mov	DWORD PTR _pkCity$224156[ebp], eax

; 868  : 		if(pkCity != NULL && pkCity->getOwner() == ePlayer)

	cmp	DWORD PTR _pkCity$224156[ebp], 0
	je	SHORT $LN2@GetCity
	mov	eax, DWORD PTR _pkCity$224156[ebp]
	mov	ecx, DWORD PTR [eax+84]
	mov	DWORD PTR $T228256[ebp], ecx
	mov	edx, DWORD PTR $T228256[ebp]
	cmp	edx, DWORD PTR _ePlayer$[ebp]
	jne	SHORT $LN2@GetCity

; 869  : 			return pkCity;

	mov	eax, DWORD PTR _pkCity$224156[ebp]
	jmp	SHORT $LN3@GetCity
$LN2@GetCity:

; 870  : 	}
; 871  : 
; 872  : 	return NULL;

	xor	eax, eax
$LN3@GetCity:

; 873  : }

	mov	esp, ebp
	pop	ebp
	ret	0
?GetCity@@YAPBVCvCity@@W4PlayerTypes@@PBVCvPlot@@@Z ENDP ; GetCity
_TEXT	ENDS
PUBLIC	?FindClosestCity@@YAPBVCvCity@@W4PlayerTypes@@ABVCvPlot@@@Z ; FindClosestCity
; Function compile flags: /Odtp
;	COMDAT ?FindClosestCity@@YAPBVCvCity@@W4PlayerTypes@@ABVCvPlot@@@Z
_TEXT	SEGMENT
tv794 = -624						; size = 4
tv809 = -620						; size = 4
tv722 = -616						; size = 4
tv769 = -612						; size = 4
tv682 = -608						; size = 4
tv697 = -604						; size = 4
tv642 = -600						; size = 4
tv657 = -596						; size = 4
tv570 = -592						; size = 4
tv617 = -588						; size = 4
tv530 = -584						; size = 4
tv545 = -580						; size = 4
tv490 = -576						; size = 4
tv505 = -572						; size = 4
tv450 = -568						; size = 4
tv465 = -564						; size = 4
tv378 = -560						; size = 4
tv393 = -556						; size = 4
tv338 = -552						; size = 4
tv353 = -548						; size = 4
$T229294 = -544						; size = 4
$T229249 = -540						; size = 4
$T229236 = -536						; size = 4
$T229232 = -532						; size = 4
$T229218 = -528						; size = 4
$T229214 = -521						; size = 1
$T229203 = -520						; size = 4
$T229199 = -513						; size = 1
_iMapY$229258 = -512					; size = 4
_iMapX$229257 = -508					; size = 4
$T229192 = -504						; size = 4
$T229147 = -500						; size = 4
$T229134 = -496						; size = 4
$T229130 = -492						; size = 4
$T229116 = -488						; size = 4
$T229112 = -481						; size = 1
$T229101 = -480						; size = 4
$T229097 = -473						; size = 1
_iMapY$229160 = -472					; size = 4
_iMapX$229158 = -468					; size = 4
$T229090 = -464						; size = 4
$T229045 = -460						; size = 4
$T229032 = -456						; size = 4
$T229028 = -452						; size = 4
$T229014 = -448						; size = 4
$T229010 = -441						; size = 1
$T228999 = -440						; size = 4
$T228995 = -433						; size = 1
_iMapY$229089 = -432					; size = 4
_iMapX$229088 = -428					; size = 4
$T228988 = -424						; size = 4
$T228943 = -420						; size = 4
$T228930 = -416						; size = 4
$T228926 = -412						; size = 4
$T228912 = -408						; size = 4
$T228908 = -401						; size = 1
$T228897 = -400						; size = 4
$T228893 = -393						; size = 1
_iMapY$228987 = -392					; size = 4
_iMapX$228986 = -388					; size = 4
$T228886 = -384						; size = 4
$T228841 = -380						; size = 4
$T228828 = -376						; size = 4
$T228824 = -372						; size = 4
$T228810 = -368						; size = 4
$T228806 = -361						; size = 1
$T228795 = -360						; size = 4
$T228791 = -353						; size = 1
_iMapY$228885 = -352					; size = 4
_iMapX$228884 = -348					; size = 4
$T228784 = -344						; size = 4
$T228739 = -340						; size = 4
$T228726 = -336						; size = 4
$T228722 = -332						; size = 4
$T228708 = -328						; size = 4
$T228704 = -321						; size = 1
$T228693 = -320						; size = 4
$T228689 = -313						; size = 1
_iMapY$228783 = -312					; size = 4
_iMapX$228782 = -308					; size = 4
$T228638 = -304						; size = 4
$T228625 = -300						; size = 4
$T228621 = -296						; size = 4
$T228607 = -292						; size = 4
$T228603 = -285						; size = 1
$T228592 = -284						; size = 4
$T228588 = -277						; size = 1
_iMapY$228682 = -276					; size = 4
_iMapX$228681 = -272					; size = 4
$T228581 = -268						; size = 4
$T228536 = -264						; size = 4
$T228523 = -260						; size = 4
$T228519 = -256						; size = 4
$T228505 = -252						; size = 4
$T228501 = -245						; size = 1
$T228490 = -244						; size = 4
$T228486 = -237						; size = 1
_iMapY$228580 = -236					; size = 4
_iMapX$228579 = -232					; size = 4
$T228435 = -228						; size = 4
$T228422 = -224						; size = 4
$T228418 = -220						; size = 4
$T228404 = -216						; size = 4
$T228400 = -209						; size = 1
$T228389 = -208						; size = 4
$T228385 = -201						; size = 1
_iMapY$228479 = -200					; size = 4
_iMapX$228478 = -196					; size = 4
$T228378 = -192						; size = 4
$T228333 = -188						; size = 4
$T228320 = -184						; size = 4
$T228316 = -180						; size = 4
$T228302 = -176						; size = 4
$T228298 = -169						; size = 1
$T228287 = -168						; size = 4
$T228283 = -161						; size = 1
_iMapY$228342 = -160					; size = 4
_iMapX$228341 = -156					; size = 4
_pkCity$224263 = -152					; size = 4
_pkTestPlot$224262 = -148				; size = 4
_pkCity$224259 = -144					; size = 4
_pkTestPlot$224258 = -140				; size = 4
_iX$224244 = -136					; size = 4
_iPlot$224240 = -132					; size = 4
_iRowWidth$224239 = -128				; size = 4
_pkCity$224237 = -124					; size = 4
_pkTestPlot$224236 = -120				; size = 4
_pkCity$224233 = -116					; size = 4
_pkTestPlot$224232 = -112				; size = 4
_iX$224223 = -108					; size = 4
_pkCity$224221 = -104					; size = 4
_pkTestPlot$224220 = -100				; size = 4
_pkCity$224217 = -96					; size = 4
_pkTestPlot$224216 = -92				; size = 4
_iX$224207 = -88					; size = 4
_iRowWidth$224206 = -84					; size = 4
_iRow$224202 = -80					; size = 4
_iX$224194 = -76					; size = 4
_pkCity$224199 = -72					; size = 4
_pkTestPlot$224198 = -68				; size = 4
_pkCity$224190 = -64					; size = 4
_pkTestPlot$224189 = -60				; size = 4
_iX$224181 = -56					; size = 4
_pkCity$224186 = -52					; size = 4
_pkTestPlot$224185 = -48				; size = 4
_pkCity$224177 = -44					; size = 4
_pkTestPlot$224176 = -40				; size = 4
_iRowOffset$224201 = -36				; size = 4
_iDist$224170 = -32					; size = 4
_pkPlotCity$224162 = -28				; size = 4
_kMap$ = -24						; size = 4
_iMapWidth$ = -20					; size = 4
_iPlotY$ = -16						; size = 4
_iMapHeight$ = -12					; size = 4
_iPlotX$ = -8						; size = 4
_bWorldWrap$ = -1					; size = 1
_ePlayer$ = 8						; size = 4
_kPlot$ = 12						; size = 4
?FindClosestCity@@YAPBVCvCity@@W4PlayerTypes@@ABVCvPlot@@@Z PROC ; FindClosestCity, COMDAT

; 876  : {

	push	ebp
	mov	ebp, esp
	sub	esp, 624				; 00000270H

; 877  : 	{
; 878  : 		const CvCity* pkPlotCity = GetCity(ePlayer, &kPlot);

	mov	eax, DWORD PTR _kPlot$[ebp]
	push	eax
	mov	ecx, DWORD PTR _ePlayer$[ebp]
	push	ecx
	call	?GetCity@@YAPBVCvCity@@W4PlayerTypes@@PBVCvPlot@@@Z ; GetCity
	add	esp, 8
	mov	DWORD PTR _pkPlotCity$224162[ebp], eax

; 879  : 		if(pkPlotCity != NULL)

	cmp	DWORD PTR _pkPlotCity$224162[ebp], 0
	je	SHORT $LN63@FindCloses

; 880  : 			return pkPlotCity;

	mov	eax, DWORD PTR _pkPlotCity$224162[ebp]
	jmp	$LN64@FindCloses
$LN63@FindCloses:

; 881  : 	}
; 882  : 
; 883  : 	const CvMap& kMap = GC.getMap();

	mov	edx, DWORD PTR ?gGlobals@@3VCvGlobals@@A+52
	mov	DWORD PTR _kMap$[ebp], edx

; 884  : 
; 885  : 	const int iPlotX = kPlot.getX();

	mov	eax, DWORD PTR _kPlot$[ebp]
	movsx	ecx, WORD PTR [eax]
	mov	DWORD PTR _iPlotX$[ebp], ecx

; 886  : 	const int iPlotY = kPlot.getY();

	mov	edx, DWORD PTR _kPlot$[ebp]
	movsx	eax, WORD PTR [edx+2]
	mov	DWORD PTR _iPlotY$[ebp], eax

; 887  : 
; 888  : 	const int iMapHeight = kMap.getGridHeight();

	mov	ecx, DWORD PTR _kMap$[ebp]
	mov	edx, DWORD PTR [ecx+4024]
	mov	DWORD PTR _iMapHeight$[ebp], edx

; 889  : 	const int iMapWidth  = kMap.getGridWidth();

	mov	eax, DWORD PTR _kMap$[ebp]
	mov	ecx, DWORD PTR [eax+4020]
	mov	DWORD PTR _iMapWidth$[ebp], ecx

; 890  : 
; 891  : 	const bool bWorldWrap = kMap.isWrapX();

	mov	edx, DWORD PTR _kMap$[ebp]
	mov	al, BYTE PTR [edx+4056]
	mov	BYTE PTR _bWorldWrap$[ebp], al

; 892  : 
; 893  : 	// Do a search radiating from the search plot
; 894  : 	for(int iDist = 1; iDist < iMapHeight || iDist < iMapWidth; ++iDist)

	mov	DWORD PTR _iDist$224170[ebp], 1
	jmp	SHORT $LN62@FindCloses
$LN61@FindCloses:
	mov	ecx, DWORD PTR _iDist$224170[ebp]
	add	ecx, 1
	mov	DWORD PTR _iDist$224170[ebp], ecx
$LN62@FindCloses:
	mov	edx, DWORD PTR _iDist$224170[ebp]
	cmp	edx, DWORD PTR _iMapHeight$[ebp]
	jl	SHORT $LN59@FindCloses
	mov	eax, DWORD PTR _iDist$224170[ebp]
	cmp	eax, DWORD PTR _iMapWidth$[ebp]
	jge	$LN60@FindCloses
$LN59@FindCloses:

; 895  : 	{
; 896  : 		// Center Row
; 897  : 		if(iPlotX - iDist >= 0)

	mov	ecx, DWORD PTR _iPlotX$[ebp]
	sub	ecx, DWORD PTR _iDist$224170[ebp]
	js	$LN58@FindCloses

; 898  : 		{
; 899  : 			const CvPlot* pkTestPlot = kMap.plot(iPlotX - iDist, iPlotY);

	mov	edx, DWORD PTR _iPlotX$[ebp]
	sub	edx, DWORD PTR _iDist$224170[ebp]
	mov	DWORD PTR $T228378[ebp], edx
	cmp	DWORD PTR $T228378[ebp], -2147483647	; 80000001H
	je	SHORT $LN78@FindCloses
	cmp	DWORD PTR _iPlotY$[ebp], -2147483647	; 80000001H
	jne	SHORT $LN79@FindCloses
$LN78@FindCloses:
	mov	DWORD PTR _pkTestPlot$224176[ebp], 0
	jmp	$LN80@FindCloses
$LN79@FindCloses:
	mov	eax, DWORD PTR _kMap$[ebp]
	mov	cl, BYTE PTR [eax+4056]
	mov	BYTE PTR $T228283[ebp], cl
	mov	edx, DWORD PTR _kMap$[ebp]
	mov	eax, DWORD PTR [edx+4020]
	mov	DWORD PTR $T228287[ebp], eax
	movzx	ecx, BYTE PTR $T228283[ebp]
	test	ecx, ecx
	je	SHORT $LN91@FindCloses
	cmp	DWORD PTR $T228378[ebp], 0
	jge	SHORT $LN90@FindCloses
	mov	eax, DWORD PTR $T228378[ebp]
	cdq
	idiv	DWORD PTR $T228287[ebp]
	add	edx, DWORD PTR $T228287[ebp]
	mov	DWORD PTR _iMapX$228341[ebp], edx
	jmp	SHORT $LN92@FindCloses
	jmp	SHORT $LN91@FindCloses
$LN90@FindCloses:
	mov	edx, DWORD PTR $T228378[ebp]
	cmp	edx, DWORD PTR $T228287[ebp]
	jl	SHORT $LN91@FindCloses
	mov	eax, DWORD PTR $T228378[ebp]
	cdq
	idiv	DWORD PTR $T228287[ebp]
	mov	DWORD PTR _iMapX$228341[ebp], edx
	jmp	SHORT $LN92@FindCloses
$LN91@FindCloses:
	mov	eax, DWORD PTR $T228378[ebp]
	mov	DWORD PTR _iMapX$228341[ebp], eax
$LN92@FindCloses:
	mov	ecx, DWORD PTR _kMap$[ebp]
	mov	dl, BYTE PTR [ecx+4057]
	mov	BYTE PTR $T228298[ebp], dl
	mov	eax, DWORD PTR _kMap$[ebp]
	mov	ecx, DWORD PTR [eax+4024]
	mov	DWORD PTR $T228302[ebp], ecx
	movzx	edx, BYTE PTR $T228298[ebp]
	test	edx, edx
	je	SHORT $LN101@FindCloses
	cmp	DWORD PTR _iPlotY$[ebp], 0
	jge	SHORT $LN100@FindCloses
	mov	eax, DWORD PTR _iPlotY$[ebp]
	cdq
	idiv	DWORD PTR $T228302[ebp]
	add	edx, DWORD PTR $T228302[ebp]
	mov	DWORD PTR _iMapY$228342[ebp], edx
	jmp	SHORT $LN102@FindCloses
	jmp	SHORT $LN101@FindCloses
$LN100@FindCloses:
	mov	eax, DWORD PTR _iPlotY$[ebp]
	cmp	eax, DWORD PTR $T228302[ebp]
	jl	SHORT $LN101@FindCloses
	mov	eax, DWORD PTR _iPlotY$[ebp]
	cdq
	idiv	DWORD PTR $T228302[ebp]
	mov	DWORD PTR _iMapY$228342[ebp], edx
	jmp	SHORT $LN102@FindCloses
$LN101@FindCloses:
	mov	ecx, DWORD PTR _iPlotY$[ebp]
	mov	DWORD PTR _iMapY$228342[ebp], ecx
$LN102@FindCloses:
	cmp	DWORD PTR _iMapX$228341[ebp], 0
	jl	SHORT $LN106@FindCloses
	mov	edx, DWORD PTR _kMap$[ebp]
	mov	eax, DWORD PTR [edx+4020]
	mov	DWORD PTR $T228316[ebp], eax
	mov	ecx, DWORD PTR _iMapX$228341[ebp]
	cmp	ecx, DWORD PTR $T228316[ebp]
	jge	SHORT $LN106@FindCloses
	cmp	DWORD PTR _iMapY$228342[ebp], 0
	jl	SHORT $LN106@FindCloses
	mov	edx, DWORD PTR _kMap$[ebp]
	mov	eax, DWORD PTR [edx+4024]
	mov	DWORD PTR $T228320[ebp], eax
	mov	ecx, DWORD PTR _iMapY$228342[ebp]
	cmp	ecx, DWORD PTR $T228320[ebp]
	jge	SHORT $LN106@FindCloses
	mov	DWORD PTR tv353[ebp], 1
	jmp	SHORT $LN104@FindCloses
$LN106@FindCloses:
	mov	DWORD PTR tv353[ebp], 0
$LN104@FindCloses:
	cmp	DWORD PTR tv353[ebp], 0
	je	SHORT $LN82@FindCloses
	mov	edx, DWORD PTR _kMap$[ebp]
	mov	eax, DWORD PTR [edx+4020]
	mov	DWORD PTR $T228333[ebp], eax
	mov	ecx, DWORD PTR _iMapY$228342[ebp]
	imul	ecx, DWORD PTR $T228333[ebp]
	add	ecx, DWORD PTR _iMapX$228341[ebp]
	imul	ecx, 484				; 000001e4H
	mov	edx, DWORD PTR _kMap$[ebp]
	add	ecx, DWORD PTR [edx+4068]
	mov	DWORD PTR tv338[ebp], ecx
	jmp	SHORT $LN83@FindCloses
$LN82@FindCloses:
	mov	DWORD PTR tv338[ebp], 0
$LN83@FindCloses:
	mov	eax, DWORD PTR tv338[ebp]
	mov	DWORD PTR _pkTestPlot$224176[ebp], eax
$LN80@FindCloses:

; 900  : 			const CvCity* pkCity = GetCity(ePlayer, pkTestPlot);

	mov	ecx, DWORD PTR _pkTestPlot$224176[ebp]
	push	ecx
	mov	edx, DWORD PTR _ePlayer$[ebp]
	push	edx
	call	?GetCity@@YAPBVCvCity@@W4PlayerTypes@@PBVCvPlot@@@Z ; GetCity
	add	esp, 8
	mov	DWORD PTR _pkCity$224177[ebp], eax

; 901  : 			if(pkCity) return pkCity;

	cmp	DWORD PTR _pkCity$224177[ebp], 0
	je	SHORT $LN57@FindCloses
	mov	eax, DWORD PTR _pkCity$224177[ebp]
	jmp	$LN64@FindCloses
$LN57@FindCloses:

; 902  : 		}

	jmp	$LN56@FindCloses
$LN58@FindCloses:

; 903  : 		else if(bWorldWrap)

	movzx	eax, BYTE PTR _bWorldWrap$[ebp]
	test	eax, eax
	je	$LN56@FindCloses

; 904  : 		{
; 905  : 			int iX = iPlotX - iDist;

	mov	ecx, DWORD PTR _iPlotX$[ebp]
	sub	ecx, DWORD PTR _iDist$224170[ebp]
	mov	DWORD PTR _iX$224181[ebp], ecx
$LN54@FindCloses:

; 906  : 			while(iX < 0) iX += iMapWidth;

	cmp	DWORD PTR _iX$224181[ebp], 0
	jge	SHORT $LN53@FindCloses
	mov	edx, DWORD PTR _iX$224181[ebp]
	add	edx, DWORD PTR _iMapWidth$[ebp]
	mov	DWORD PTR _iX$224181[ebp], edx
	jmp	SHORT $LN54@FindCloses
$LN53@FindCloses:

; 907  : 
; 908  : 			const CvPlot* pkTestPlot = kMap.plot(iX, iPlotY);

	cmp	DWORD PTR _iX$224181[ebp], -2147483647	; 80000001H
	je	SHORT $LN116@FindCloses
	cmp	DWORD PTR _iPlotY$[ebp], -2147483647	; 80000001H
	jne	SHORT $LN117@FindCloses
$LN116@FindCloses:
	mov	DWORD PTR _pkTestPlot$224185[ebp], 0
	jmp	$LN118@FindCloses
$LN117@FindCloses:
	mov	eax, DWORD PTR _kMap$[ebp]
	mov	cl, BYTE PTR [eax+4056]
	mov	BYTE PTR $T228385[ebp], cl
	mov	edx, DWORD PTR _kMap$[ebp]
	mov	eax, DWORD PTR [edx+4020]
	mov	DWORD PTR $T228389[ebp], eax
	movzx	ecx, BYTE PTR $T228385[ebp]
	test	ecx, ecx
	je	SHORT $LN129@FindCloses
	cmp	DWORD PTR _iX$224181[ebp], 0
	jge	SHORT $LN128@FindCloses
	mov	eax, DWORD PTR _iX$224181[ebp]
	cdq
	idiv	DWORD PTR $T228389[ebp]
	add	edx, DWORD PTR $T228389[ebp]
	mov	DWORD PTR _iMapX$228478[ebp], edx
	jmp	SHORT $LN130@FindCloses
	jmp	SHORT $LN129@FindCloses
$LN128@FindCloses:
	mov	edx, DWORD PTR _iX$224181[ebp]
	cmp	edx, DWORD PTR $T228389[ebp]
	jl	SHORT $LN129@FindCloses
	mov	eax, DWORD PTR _iX$224181[ebp]
	cdq
	idiv	DWORD PTR $T228389[ebp]
	mov	DWORD PTR _iMapX$228478[ebp], edx
	jmp	SHORT $LN130@FindCloses
$LN129@FindCloses:
	mov	eax, DWORD PTR _iX$224181[ebp]
	mov	DWORD PTR _iMapX$228478[ebp], eax
$LN130@FindCloses:
	mov	ecx, DWORD PTR _kMap$[ebp]
	mov	dl, BYTE PTR [ecx+4057]
	mov	BYTE PTR $T228400[ebp], dl
	mov	eax, DWORD PTR _kMap$[ebp]
	mov	ecx, DWORD PTR [eax+4024]
	mov	DWORD PTR $T228404[ebp], ecx
	movzx	edx, BYTE PTR $T228400[ebp]
	test	edx, edx
	je	SHORT $LN139@FindCloses
	cmp	DWORD PTR _iPlotY$[ebp], 0
	jge	SHORT $LN138@FindCloses
	mov	eax, DWORD PTR _iPlotY$[ebp]
	cdq
	idiv	DWORD PTR $T228404[ebp]
	add	edx, DWORD PTR $T228404[ebp]
	mov	DWORD PTR _iMapY$228479[ebp], edx
	jmp	SHORT $LN140@FindCloses
	jmp	SHORT $LN139@FindCloses
$LN138@FindCloses:
	mov	eax, DWORD PTR _iPlotY$[ebp]
	cmp	eax, DWORD PTR $T228404[ebp]
	jl	SHORT $LN139@FindCloses
	mov	eax, DWORD PTR _iPlotY$[ebp]
	cdq
	idiv	DWORD PTR $T228404[ebp]
	mov	DWORD PTR _iMapY$228479[ebp], edx
	jmp	SHORT $LN140@FindCloses
$LN139@FindCloses:
	mov	ecx, DWORD PTR _iPlotY$[ebp]
	mov	DWORD PTR _iMapY$228479[ebp], ecx
$LN140@FindCloses:
	cmp	DWORD PTR _iMapX$228478[ebp], 0
	jl	SHORT $LN144@FindCloses
	mov	edx, DWORD PTR _kMap$[ebp]
	mov	eax, DWORD PTR [edx+4020]
	mov	DWORD PTR $T228418[ebp], eax
	mov	ecx, DWORD PTR _iMapX$228478[ebp]
	cmp	ecx, DWORD PTR $T228418[ebp]
	jge	SHORT $LN144@FindCloses
	cmp	DWORD PTR _iMapY$228479[ebp], 0
	jl	SHORT $LN144@FindCloses
	mov	edx, DWORD PTR _kMap$[ebp]
	mov	eax, DWORD PTR [edx+4024]
	mov	DWORD PTR $T228422[ebp], eax
	mov	ecx, DWORD PTR _iMapY$228479[ebp]
	cmp	ecx, DWORD PTR $T228422[ebp]
	jge	SHORT $LN144@FindCloses
	mov	DWORD PTR tv393[ebp], 1
	jmp	SHORT $LN142@FindCloses
$LN144@FindCloses:
	mov	DWORD PTR tv393[ebp], 0
$LN142@FindCloses:
	cmp	DWORD PTR tv393[ebp], 0
	je	SHORT $LN120@FindCloses
	mov	edx, DWORD PTR _kMap$[ebp]
	mov	eax, DWORD PTR [edx+4020]
	mov	DWORD PTR $T228435[ebp], eax
	mov	ecx, DWORD PTR _iMapY$228479[ebp]
	imul	ecx, DWORD PTR $T228435[ebp]
	add	ecx, DWORD PTR _iMapX$228478[ebp]
	imul	ecx, 484				; 000001e4H
	mov	edx, DWORD PTR _kMap$[ebp]
	add	ecx, DWORD PTR [edx+4068]
	mov	DWORD PTR tv378[ebp], ecx
	jmp	SHORT $LN121@FindCloses
$LN120@FindCloses:
	mov	DWORD PTR tv378[ebp], 0
$LN121@FindCloses:
	mov	eax, DWORD PTR tv378[ebp]
	mov	DWORD PTR _pkTestPlot$224185[ebp], eax
$LN118@FindCloses:

; 909  : 			const CvCity* pkCity = GetCity(ePlayer, pkTestPlot);

	mov	ecx, DWORD PTR _pkTestPlot$224185[ebp]
	push	ecx
	mov	edx, DWORD PTR _ePlayer$[ebp]
	push	edx
	call	?GetCity@@YAPBVCvCity@@W4PlayerTypes@@PBVCvPlot@@@Z ; GetCity
	add	esp, 8
	mov	DWORD PTR _pkCity$224186[ebp], eax

; 910  : 			if(pkCity) return pkCity;

	cmp	DWORD PTR _pkCity$224186[ebp], 0
	je	SHORT $LN56@FindCloses
	mov	eax, DWORD PTR _pkCity$224186[ebp]
	jmp	$LN64@FindCloses
$LN56@FindCloses:

; 911  : 		}
; 912  : 
; 913  : 		if(iPlotX + iDist < iMapWidth)

	mov	eax, DWORD PTR _iPlotX$[ebp]
	add	eax, DWORD PTR _iDist$224170[ebp]
	cmp	eax, DWORD PTR _iMapWidth$[ebp]
	jge	$LN51@FindCloses

; 914  : 		{
; 915  : 			const CvPlot* pkTestPlot = kMap.plot(iPlotX + iDist, iPlotY);

	mov	ecx, DWORD PTR _iPlotX$[ebp]
	add	ecx, DWORD PTR _iDist$224170[ebp]
	mov	DWORD PTR $T228581[ebp], ecx
	cmp	DWORD PTR $T228581[ebp], -2147483647	; 80000001H
	je	SHORT $LN154@FindCloses
	cmp	DWORD PTR _iPlotY$[ebp], -2147483647	; 80000001H
	jne	SHORT $LN155@FindCloses
$LN154@FindCloses:
	mov	DWORD PTR _pkTestPlot$224189[ebp], 0
	jmp	$LN156@FindCloses
$LN155@FindCloses:
	mov	edx, DWORD PTR _kMap$[ebp]
	mov	al, BYTE PTR [edx+4056]
	mov	BYTE PTR $T228486[ebp], al
	mov	ecx, DWORD PTR _kMap$[ebp]
	mov	edx, DWORD PTR [ecx+4020]
	mov	DWORD PTR $T228490[ebp], edx
	movzx	eax, BYTE PTR $T228486[ebp]
	test	eax, eax
	je	SHORT $LN167@FindCloses
	cmp	DWORD PTR $T228581[ebp], 0
	jge	SHORT $LN166@FindCloses
	mov	eax, DWORD PTR $T228581[ebp]
	cdq
	idiv	DWORD PTR $T228490[ebp]
	add	edx, DWORD PTR $T228490[ebp]
	mov	DWORD PTR _iMapX$228579[ebp], edx
	jmp	SHORT $LN168@FindCloses
	jmp	SHORT $LN167@FindCloses
$LN166@FindCloses:
	mov	ecx, DWORD PTR $T228581[ebp]
	cmp	ecx, DWORD PTR $T228490[ebp]
	jl	SHORT $LN167@FindCloses
	mov	eax, DWORD PTR $T228581[ebp]
	cdq
	idiv	DWORD PTR $T228490[ebp]
	mov	DWORD PTR _iMapX$228579[ebp], edx
	jmp	SHORT $LN168@FindCloses
$LN167@FindCloses:
	mov	edx, DWORD PTR $T228581[ebp]
	mov	DWORD PTR _iMapX$228579[ebp], edx
$LN168@FindCloses:
	mov	eax, DWORD PTR _kMap$[ebp]
	mov	cl, BYTE PTR [eax+4057]
	mov	BYTE PTR $T228501[ebp], cl
	mov	edx, DWORD PTR _kMap$[ebp]
	mov	eax, DWORD PTR [edx+4024]
	mov	DWORD PTR $T228505[ebp], eax
	movzx	ecx, BYTE PTR $T228501[ebp]
	test	ecx, ecx
	je	SHORT $LN177@FindCloses
	cmp	DWORD PTR _iPlotY$[ebp], 0
	jge	SHORT $LN176@FindCloses
	mov	eax, DWORD PTR _iPlotY$[ebp]
	cdq
	idiv	DWORD PTR $T228505[ebp]
	add	edx, DWORD PTR $T228505[ebp]
	mov	DWORD PTR _iMapY$228580[ebp], edx
	jmp	SHORT $LN178@FindCloses
	jmp	SHORT $LN177@FindCloses
$LN176@FindCloses:
	mov	edx, DWORD PTR _iPlotY$[ebp]
	cmp	edx, DWORD PTR $T228505[ebp]
	jl	SHORT $LN177@FindCloses
	mov	eax, DWORD PTR _iPlotY$[ebp]
	cdq
	idiv	DWORD PTR $T228505[ebp]
	mov	DWORD PTR _iMapY$228580[ebp], edx
	jmp	SHORT $LN178@FindCloses
$LN177@FindCloses:
	mov	eax, DWORD PTR _iPlotY$[ebp]
	mov	DWORD PTR _iMapY$228580[ebp], eax
$LN178@FindCloses:
	cmp	DWORD PTR _iMapX$228579[ebp], 0
	jl	SHORT $LN182@FindCloses
	mov	ecx, DWORD PTR _kMap$[ebp]
	mov	edx, DWORD PTR [ecx+4020]
	mov	DWORD PTR $T228519[ebp], edx
	mov	eax, DWORD PTR _iMapX$228579[ebp]
	cmp	eax, DWORD PTR $T228519[ebp]
	jge	SHORT $LN182@FindCloses
	cmp	DWORD PTR _iMapY$228580[ebp], 0
	jl	SHORT $LN182@FindCloses
	mov	ecx, DWORD PTR _kMap$[ebp]
	mov	edx, DWORD PTR [ecx+4024]
	mov	DWORD PTR $T228523[ebp], edx
	mov	eax, DWORD PTR _iMapY$228580[ebp]
	cmp	eax, DWORD PTR $T228523[ebp]
	jge	SHORT $LN182@FindCloses
	mov	DWORD PTR tv465[ebp], 1
	jmp	SHORT $LN180@FindCloses
$LN182@FindCloses:
	mov	DWORD PTR tv465[ebp], 0
$LN180@FindCloses:
	cmp	DWORD PTR tv465[ebp], 0
	je	SHORT $LN158@FindCloses
	mov	ecx, DWORD PTR _kMap$[ebp]
	mov	edx, DWORD PTR [ecx+4020]
	mov	DWORD PTR $T228536[ebp], edx
	mov	eax, DWORD PTR _iMapY$228580[ebp]
	imul	eax, DWORD PTR $T228536[ebp]
	add	eax, DWORD PTR _iMapX$228579[ebp]
	imul	eax, 484				; 000001e4H
	mov	ecx, DWORD PTR _kMap$[ebp]
	add	eax, DWORD PTR [ecx+4068]
	mov	DWORD PTR tv450[ebp], eax
	jmp	SHORT $LN159@FindCloses
$LN158@FindCloses:
	mov	DWORD PTR tv450[ebp], 0
$LN159@FindCloses:
	mov	edx, DWORD PTR tv450[ebp]
	mov	DWORD PTR _pkTestPlot$224189[ebp], edx
$LN156@FindCloses:

; 916  : 			const CvCity* pkCity = GetCity(ePlayer, pkTestPlot);

	mov	eax, DWORD PTR _pkTestPlot$224189[ebp]
	push	eax
	mov	ecx, DWORD PTR _ePlayer$[ebp]
	push	ecx
	call	?GetCity@@YAPBVCvCity@@W4PlayerTypes@@PBVCvPlot@@@Z ; GetCity
	add	esp, 8
	mov	DWORD PTR _pkCity$224190[ebp], eax

; 917  : 			if(pkCity) return pkCity;

	cmp	DWORD PTR _pkCity$224190[ebp], 0
	je	SHORT $LN50@FindCloses
	mov	eax, DWORD PTR _pkCity$224190[ebp]
	jmp	$LN64@FindCloses
$LN50@FindCloses:

; 918  : 		}

	jmp	$LN49@FindCloses
$LN51@FindCloses:

; 919  : 		else if(bWorldWrap)

	movzx	edx, BYTE PTR _bWorldWrap$[ebp]
	test	edx, edx
	je	$LN49@FindCloses

; 920  : 		{
; 921  : 			int iX = iPlotX + iDist;

	mov	eax, DWORD PTR _iPlotX$[ebp]
	add	eax, DWORD PTR _iDist$224170[ebp]
	mov	DWORD PTR _iX$224194[ebp], eax
$LN47@FindCloses:

; 922  : 			while(iX >= iMapWidth) iX -= iMapWidth;

	mov	ecx, DWORD PTR _iX$224194[ebp]
	cmp	ecx, DWORD PTR _iMapWidth$[ebp]
	jl	SHORT $LN46@FindCloses
	mov	edx, DWORD PTR _iX$224194[ebp]
	sub	edx, DWORD PTR _iMapWidth$[ebp]
	mov	DWORD PTR _iX$224194[ebp], edx
	jmp	SHORT $LN47@FindCloses
$LN46@FindCloses:

; 923  : 
; 924  : 			const CvPlot* pkTestPlot = kMap.plot(iX, iPlotY);

	cmp	DWORD PTR _iX$224194[ebp], -2147483647	; 80000001H
	je	SHORT $LN192@FindCloses
	cmp	DWORD PTR _iPlotY$[ebp], -2147483647	; 80000001H
	jne	SHORT $LN193@FindCloses
$LN192@FindCloses:
	mov	DWORD PTR _pkTestPlot$224198[ebp], 0
	jmp	$LN194@FindCloses
$LN193@FindCloses:
	mov	eax, DWORD PTR _kMap$[ebp]
	mov	cl, BYTE PTR [eax+4056]
	mov	BYTE PTR $T228588[ebp], cl
	mov	edx, DWORD PTR _kMap$[ebp]
	mov	eax, DWORD PTR [edx+4020]
	mov	DWORD PTR $T228592[ebp], eax
	movzx	ecx, BYTE PTR $T228588[ebp]
	test	ecx, ecx
	je	SHORT $LN205@FindCloses
	cmp	DWORD PTR _iX$224194[ebp], 0
	jge	SHORT $LN204@FindCloses
	mov	eax, DWORD PTR _iX$224194[ebp]
	cdq
	idiv	DWORD PTR $T228592[ebp]
	add	edx, DWORD PTR $T228592[ebp]
	mov	DWORD PTR _iMapX$228681[ebp], edx
	jmp	SHORT $LN206@FindCloses
	jmp	SHORT $LN205@FindCloses
$LN204@FindCloses:
	mov	edx, DWORD PTR _iX$224194[ebp]
	cmp	edx, DWORD PTR $T228592[ebp]
	jl	SHORT $LN205@FindCloses
	mov	eax, DWORD PTR _iX$224194[ebp]
	cdq
	idiv	DWORD PTR $T228592[ebp]
	mov	DWORD PTR _iMapX$228681[ebp], edx
	jmp	SHORT $LN206@FindCloses
$LN205@FindCloses:
	mov	eax, DWORD PTR _iX$224194[ebp]
	mov	DWORD PTR _iMapX$228681[ebp], eax
$LN206@FindCloses:
	mov	ecx, DWORD PTR _kMap$[ebp]
	mov	dl, BYTE PTR [ecx+4057]
	mov	BYTE PTR $T228603[ebp], dl
	mov	eax, DWORD PTR _kMap$[ebp]
	mov	ecx, DWORD PTR [eax+4024]
	mov	DWORD PTR $T228607[ebp], ecx
	movzx	edx, BYTE PTR $T228603[ebp]
	test	edx, edx
	je	SHORT $LN215@FindCloses
	cmp	DWORD PTR _iPlotY$[ebp], 0
	jge	SHORT $LN214@FindCloses
	mov	eax, DWORD PTR _iPlotY$[ebp]
	cdq
	idiv	DWORD PTR $T228607[ebp]
	add	edx, DWORD PTR $T228607[ebp]
	mov	DWORD PTR _iMapY$228682[ebp], edx
	jmp	SHORT $LN216@FindCloses
	jmp	SHORT $LN215@FindCloses
$LN214@FindCloses:
	mov	eax, DWORD PTR _iPlotY$[ebp]
	cmp	eax, DWORD PTR $T228607[ebp]
	jl	SHORT $LN215@FindCloses
	mov	eax, DWORD PTR _iPlotY$[ebp]
	cdq
	idiv	DWORD PTR $T228607[ebp]
	mov	DWORD PTR _iMapY$228682[ebp], edx
	jmp	SHORT $LN216@FindCloses
$LN215@FindCloses:
	mov	ecx, DWORD PTR _iPlotY$[ebp]
	mov	DWORD PTR _iMapY$228682[ebp], ecx
$LN216@FindCloses:
	cmp	DWORD PTR _iMapX$228681[ebp], 0
	jl	SHORT $LN220@FindCloses
	mov	edx, DWORD PTR _kMap$[ebp]
	mov	eax, DWORD PTR [edx+4020]
	mov	DWORD PTR $T228621[ebp], eax
	mov	ecx, DWORD PTR _iMapX$228681[ebp]
	cmp	ecx, DWORD PTR $T228621[ebp]
	jge	SHORT $LN220@FindCloses
	cmp	DWORD PTR _iMapY$228682[ebp], 0
	jl	SHORT $LN220@FindCloses
	mov	edx, DWORD PTR _kMap$[ebp]
	mov	eax, DWORD PTR [edx+4024]
	mov	DWORD PTR $T228625[ebp], eax
	mov	ecx, DWORD PTR _iMapY$228682[ebp]
	cmp	ecx, DWORD PTR $T228625[ebp]
	jge	SHORT $LN220@FindCloses
	mov	DWORD PTR tv505[ebp], 1
	jmp	SHORT $LN218@FindCloses
$LN220@FindCloses:
	mov	DWORD PTR tv505[ebp], 0
$LN218@FindCloses:
	cmp	DWORD PTR tv505[ebp], 0
	je	SHORT $LN196@FindCloses
	mov	edx, DWORD PTR _kMap$[ebp]
	mov	eax, DWORD PTR [edx+4020]
	mov	DWORD PTR $T228638[ebp], eax
	mov	ecx, DWORD PTR _iMapY$228682[ebp]
	imul	ecx, DWORD PTR $T228638[ebp]
	add	ecx, DWORD PTR _iMapX$228681[ebp]
	imul	ecx, 484				; 000001e4H
	mov	edx, DWORD PTR _kMap$[ebp]
	add	ecx, DWORD PTR [edx+4068]
	mov	DWORD PTR tv490[ebp], ecx
	jmp	SHORT $LN197@FindCloses
$LN196@FindCloses:
	mov	DWORD PTR tv490[ebp], 0
$LN197@FindCloses:
	mov	eax, DWORD PTR tv490[ebp]
	mov	DWORD PTR _pkTestPlot$224198[ebp], eax
$LN194@FindCloses:

; 925  : 			const CvCity* pkCity = GetCity(ePlayer, pkTestPlot);

	mov	ecx, DWORD PTR _pkTestPlot$224198[ebp]
	push	ecx
	mov	edx, DWORD PTR _ePlayer$[ebp]
	push	edx
	call	?GetCity@@YAPBVCvCity@@W4PlayerTypes@@PBVCvPlot@@@Z ; GetCity
	add	esp, 8
	mov	DWORD PTR _pkCity$224199[ebp], eax

; 926  : 			if(pkCity) return pkCity;

	cmp	DWORD PTR _pkCity$224199[ebp], 0
	je	SHORT $LN49@FindCloses
	mov	eax, DWORD PTR _pkCity$224199[ebp]
	jmp	$LN64@FindCloses
$LN49@FindCloses:

; 927  : 		}
; 928  : 
; 929  : 		// Top and Bottom Rows
; 930  : 		const int iRowOffset = (iPlotY % 2 == 0)? 0 : 1;

	mov	eax, DWORD PTR _iPlotY$[ebp]
	and	eax, -2147483647			; 80000001H
	jns	SHORT $LN458@FindCloses
	dec	eax
	or	eax, -2					; fffffffeH
	inc	eax
$LN458@FindCloses:
	neg	eax
	sbb	eax, eax
	neg	eax
	mov	DWORD PTR _iRowOffset$224201[ebp], eax

; 931  : 		for(int iRow = 1; iRow < iDist; ++iRow)

	mov	DWORD PTR _iRow$224202[ebp], 1
	jmp	SHORT $LN44@FindCloses
$LN43@FindCloses:
	mov	ecx, DWORD PTR _iRow$224202[ebp]
	add	ecx, 1
	mov	DWORD PTR _iRow$224202[ebp], ecx
$LN44@FindCloses:
	mov	edx, DWORD PTR _iRow$224202[ebp]
	cmp	edx, DWORD PTR _iDist$224170[ebp]
	jge	$LN42@FindCloses

; 932  : 		{
; 933  : 			const int iRowWidth = (iDist * 2) - (iRow - 1);

	mov	eax, DWORD PTR _iDist$224170[ebp]
	shl	eax, 1
	mov	ecx, DWORD PTR _iRow$224202[ebp]
	sub	ecx, 1
	sub	eax, ecx
	mov	DWORD PTR _iRowWidth$224206[ebp], eax

; 934  : 
; 935  : 			{
; 936  : 				// Left-most plot in the current row
; 937  : 				int iX = iPlotX - (iRowWidth / 2);

	mov	eax, DWORD PTR _iRowWidth$224206[ebp]
	cdq
	sub	eax, edx
	sar	eax, 1
	mov	edx, DWORD PTR _iPlotX$[ebp]
	sub	edx, eax
	mov	DWORD PTR _iX$224207[ebp], edx

; 938  : 				if(iRow % 2 == 1) iX += iRowOffset;

	mov	eax, DWORD PTR _iRow$224202[ebp]
	and	eax, -2147483647			; 80000001H
	jns	SHORT $LN459@FindCloses
	dec	eax
	or	eax, -2					; fffffffeH
	inc	eax
$LN459@FindCloses:
	cmp	eax, 1
	jne	SHORT $LN41@FindCloses
	mov	ecx, DWORD PTR _iX$224207[ebp]
	add	ecx, DWORD PTR _iRowOffset$224201[ebp]
	mov	DWORD PTR _iX$224207[ebp], ecx
$LN41@FindCloses:

; 939  : 
; 940  : 				if(iX < 0)

	cmp	DWORD PTR _iX$224207[ebp], 0
	jge	SHORT $LN40@FindCloses

; 941  : 				{
; 942  : 					if(bWorldWrap)

	movzx	edx, BYTE PTR _bWorldWrap$[ebp]
	test	edx, edx
	je	SHORT $LN40@FindCloses
$LN38@FindCloses:

; 943  : 						do
; 944  : 						{
; 945  : 							iX += iMapWidth;

	mov	eax, DWORD PTR _iX$224207[ebp]
	add	eax, DWORD PTR _iMapWidth$[ebp]
	mov	DWORD PTR _iX$224207[ebp], eax

; 946  : 						}
; 947  : 						while(iX < 0);

	js	SHORT $LN38@FindCloses
$LN40@FindCloses:

; 948  : 				}
; 949  : 
; 950  : 				if(iX >= 0)

	cmp	DWORD PTR _iX$224207[ebp], 0
	jl	$LN35@FindCloses

; 951  : 				{
; 952  : 					if(iPlotY - iRow >= 0)

	mov	ecx, DWORD PTR _iPlotY$[ebp]
	sub	ecx, DWORD PTR _iRow$224202[ebp]
	js	$LN34@FindCloses

; 953  : 					{
; 954  : 						const CvPlot* pkTestPlot = kMap.plot(iX, iPlotY - iRow);

	mov	edx, DWORD PTR _iPlotY$[ebp]
	sub	edx, DWORD PTR _iRow$224202[ebp]
	mov	DWORD PTR $T228784[ebp], edx
	cmp	DWORD PTR _iX$224207[ebp], -2147483647	; 80000001H
	je	SHORT $LN230@FindCloses
	cmp	DWORD PTR $T228784[ebp], -2147483647	; 80000001H
	jne	SHORT $LN231@FindCloses
$LN230@FindCloses:
	mov	DWORD PTR _pkTestPlot$224216[ebp], 0
	jmp	$LN232@FindCloses
$LN231@FindCloses:
	mov	eax, DWORD PTR _kMap$[ebp]
	mov	cl, BYTE PTR [eax+4056]
	mov	BYTE PTR $T228689[ebp], cl
	mov	edx, DWORD PTR _kMap$[ebp]
	mov	eax, DWORD PTR [edx+4020]
	mov	DWORD PTR $T228693[ebp], eax
	movzx	ecx, BYTE PTR $T228689[ebp]
	test	ecx, ecx
	je	SHORT $LN243@FindCloses
	cmp	DWORD PTR _iX$224207[ebp], 0
	jge	SHORT $LN242@FindCloses
	mov	eax, DWORD PTR _iX$224207[ebp]
	cdq
	idiv	DWORD PTR $T228693[ebp]
	add	edx, DWORD PTR $T228693[ebp]
	mov	DWORD PTR _iMapX$228782[ebp], edx
	jmp	SHORT $LN244@FindCloses
	jmp	SHORT $LN243@FindCloses
$LN242@FindCloses:
	mov	edx, DWORD PTR _iX$224207[ebp]
	cmp	edx, DWORD PTR $T228693[ebp]
	jl	SHORT $LN243@FindCloses
	mov	eax, DWORD PTR _iX$224207[ebp]
	cdq
	idiv	DWORD PTR $T228693[ebp]
	mov	DWORD PTR _iMapX$228782[ebp], edx
	jmp	SHORT $LN244@FindCloses
$LN243@FindCloses:
	mov	eax, DWORD PTR _iX$224207[ebp]
	mov	DWORD PTR _iMapX$228782[ebp], eax
$LN244@FindCloses:
	mov	ecx, DWORD PTR _kMap$[ebp]
	mov	dl, BYTE PTR [ecx+4057]
	mov	BYTE PTR $T228704[ebp], dl
	mov	eax, DWORD PTR _kMap$[ebp]
	mov	ecx, DWORD PTR [eax+4024]
	mov	DWORD PTR $T228708[ebp], ecx
	movzx	edx, BYTE PTR $T228704[ebp]
	test	edx, edx
	je	SHORT $LN253@FindCloses
	cmp	DWORD PTR $T228784[ebp], 0
	jge	SHORT $LN252@FindCloses
	mov	eax, DWORD PTR $T228784[ebp]
	cdq
	idiv	DWORD PTR $T228708[ebp]
	add	edx, DWORD PTR $T228708[ebp]
	mov	DWORD PTR _iMapY$228783[ebp], edx
	jmp	SHORT $LN254@FindCloses
	jmp	SHORT $LN253@FindCloses
$LN252@FindCloses:
	mov	eax, DWORD PTR $T228784[ebp]
	cmp	eax, DWORD PTR $T228708[ebp]
	jl	SHORT $LN253@FindCloses
	mov	eax, DWORD PTR $T228784[ebp]
	cdq
	idiv	DWORD PTR $T228708[ebp]
	mov	DWORD PTR _iMapY$228783[ebp], edx
	jmp	SHORT $LN254@FindCloses
$LN253@FindCloses:
	mov	ecx, DWORD PTR $T228784[ebp]
	mov	DWORD PTR _iMapY$228783[ebp], ecx
$LN254@FindCloses:
	cmp	DWORD PTR _iMapX$228782[ebp], 0
	jl	SHORT $LN258@FindCloses
	mov	edx, DWORD PTR _kMap$[ebp]
	mov	eax, DWORD PTR [edx+4020]
	mov	DWORD PTR $T228722[ebp], eax
	mov	ecx, DWORD PTR _iMapX$228782[ebp]
	cmp	ecx, DWORD PTR $T228722[ebp]
	jge	SHORT $LN258@FindCloses
	cmp	DWORD PTR _iMapY$228783[ebp], 0
	jl	SHORT $LN258@FindCloses
	mov	edx, DWORD PTR _kMap$[ebp]
	mov	eax, DWORD PTR [edx+4024]
	mov	DWORD PTR $T228726[ebp], eax
	mov	ecx, DWORD PTR _iMapY$228783[ebp]
	cmp	ecx, DWORD PTR $T228726[ebp]
	jge	SHORT $LN258@FindCloses
	mov	DWORD PTR tv545[ebp], 1
	jmp	SHORT $LN256@FindCloses
$LN258@FindCloses:
	mov	DWORD PTR tv545[ebp], 0
$LN256@FindCloses:
	cmp	DWORD PTR tv545[ebp], 0
	je	SHORT $LN234@FindCloses
	mov	edx, DWORD PTR _kMap$[ebp]
	mov	eax, DWORD PTR [edx+4020]
	mov	DWORD PTR $T228739[ebp], eax
	mov	ecx, DWORD PTR _iMapY$228783[ebp]
	imul	ecx, DWORD PTR $T228739[ebp]
	add	ecx, DWORD PTR _iMapX$228782[ebp]
	imul	ecx, 484				; 000001e4H
	mov	edx, DWORD PTR _kMap$[ebp]
	add	ecx, DWORD PTR [edx+4068]
	mov	DWORD PTR tv530[ebp], ecx
	jmp	SHORT $LN235@FindCloses
$LN234@FindCloses:
	mov	DWORD PTR tv530[ebp], 0
$LN235@FindCloses:
	mov	eax, DWORD PTR tv530[ebp]
	mov	DWORD PTR _pkTestPlot$224216[ebp], eax
$LN232@FindCloses:

; 955  : 						const CvCity* pkCity = GetCity(ePlayer, pkTestPlot);

	mov	ecx, DWORD PTR _pkTestPlot$224216[ebp]
	push	ecx
	mov	edx, DWORD PTR _ePlayer$[ebp]
	push	edx
	call	?GetCity@@YAPBVCvCity@@W4PlayerTypes@@PBVCvPlot@@@Z ; GetCity
	add	esp, 8
	mov	DWORD PTR _pkCity$224217[ebp], eax

; 956  : 						if(pkCity) return pkCity;

	cmp	DWORD PTR _pkCity$224217[ebp], 0
	je	SHORT $LN34@FindCloses
	mov	eax, DWORD PTR _pkCity$224217[ebp]
	jmp	$LN64@FindCloses
$LN34@FindCloses:

; 957  : 					}
; 958  : 
; 959  : 					if(iPlotY + iRow < iMapHeight)

	mov	eax, DWORD PTR _iPlotY$[ebp]
	add	eax, DWORD PTR _iRow$224202[ebp]
	cmp	eax, DWORD PTR _iMapHeight$[ebp]
	jge	$LN35@FindCloses

; 960  : 					{
; 961  : 						const CvPlot* pkTestPlot = kMap.plot(iX, iPlotY + iRow);

	mov	ecx, DWORD PTR _iPlotY$[ebp]
	add	ecx, DWORD PTR _iRow$224202[ebp]
	mov	DWORD PTR $T228886[ebp], ecx
	cmp	DWORD PTR _iX$224207[ebp], -2147483647	; 80000001H
	je	SHORT $LN268@FindCloses
	cmp	DWORD PTR $T228886[ebp], -2147483647	; 80000001H
	jne	SHORT $LN269@FindCloses
$LN268@FindCloses:
	mov	DWORD PTR _pkTestPlot$224220[ebp], 0
	jmp	$LN270@FindCloses
$LN269@FindCloses:
	mov	edx, DWORD PTR _kMap$[ebp]
	mov	al, BYTE PTR [edx+4056]
	mov	BYTE PTR $T228791[ebp], al
	mov	ecx, DWORD PTR _kMap$[ebp]
	mov	edx, DWORD PTR [ecx+4020]
	mov	DWORD PTR $T228795[ebp], edx
	movzx	eax, BYTE PTR $T228791[ebp]
	test	eax, eax
	je	SHORT $LN281@FindCloses
	cmp	DWORD PTR _iX$224207[ebp], 0
	jge	SHORT $LN280@FindCloses
	mov	eax, DWORD PTR _iX$224207[ebp]
	cdq
	idiv	DWORD PTR $T228795[ebp]
	add	edx, DWORD PTR $T228795[ebp]
	mov	DWORD PTR _iMapX$228884[ebp], edx
	jmp	SHORT $LN282@FindCloses
	jmp	SHORT $LN281@FindCloses
$LN280@FindCloses:
	mov	ecx, DWORD PTR _iX$224207[ebp]
	cmp	ecx, DWORD PTR $T228795[ebp]
	jl	SHORT $LN281@FindCloses
	mov	eax, DWORD PTR _iX$224207[ebp]
	cdq
	idiv	DWORD PTR $T228795[ebp]
	mov	DWORD PTR _iMapX$228884[ebp], edx
	jmp	SHORT $LN282@FindCloses
$LN281@FindCloses:
	mov	edx, DWORD PTR _iX$224207[ebp]
	mov	DWORD PTR _iMapX$228884[ebp], edx
$LN282@FindCloses:
	mov	eax, DWORD PTR _kMap$[ebp]
	mov	cl, BYTE PTR [eax+4057]
	mov	BYTE PTR $T228806[ebp], cl
	mov	edx, DWORD PTR _kMap$[ebp]
	mov	eax, DWORD PTR [edx+4024]
	mov	DWORD PTR $T228810[ebp], eax
	movzx	ecx, BYTE PTR $T228806[ebp]
	test	ecx, ecx
	je	SHORT $LN291@FindCloses
	cmp	DWORD PTR $T228886[ebp], 0
	jge	SHORT $LN290@FindCloses
	mov	eax, DWORD PTR $T228886[ebp]
	cdq
	idiv	DWORD PTR $T228810[ebp]
	add	edx, DWORD PTR $T228810[ebp]
	mov	DWORD PTR _iMapY$228885[ebp], edx
	jmp	SHORT $LN292@FindCloses
	jmp	SHORT $LN291@FindCloses
$LN290@FindCloses:
	mov	edx, DWORD PTR $T228886[ebp]
	cmp	edx, DWORD PTR $T228810[ebp]
	jl	SHORT $LN291@FindCloses
	mov	eax, DWORD PTR $T228886[ebp]
	cdq
	idiv	DWORD PTR $T228810[ebp]
	mov	DWORD PTR _iMapY$228885[ebp], edx
	jmp	SHORT $LN292@FindCloses
$LN291@FindCloses:
	mov	eax, DWORD PTR $T228886[ebp]
	mov	DWORD PTR _iMapY$228885[ebp], eax
$LN292@FindCloses:
	cmp	DWORD PTR _iMapX$228884[ebp], 0
	jl	SHORT $LN296@FindCloses
	mov	ecx, DWORD PTR _kMap$[ebp]
	mov	edx, DWORD PTR [ecx+4020]
	mov	DWORD PTR $T228824[ebp], edx
	mov	eax, DWORD PTR _iMapX$228884[ebp]
	cmp	eax, DWORD PTR $T228824[ebp]
	jge	SHORT $LN296@FindCloses
	cmp	DWORD PTR _iMapY$228885[ebp], 0
	jl	SHORT $LN296@FindCloses
	mov	ecx, DWORD PTR _kMap$[ebp]
	mov	edx, DWORD PTR [ecx+4024]
	mov	DWORD PTR $T228828[ebp], edx
	mov	eax, DWORD PTR _iMapY$228885[ebp]
	cmp	eax, DWORD PTR $T228828[ebp]
	jge	SHORT $LN296@FindCloses
	mov	DWORD PTR tv617[ebp], 1
	jmp	SHORT $LN294@FindCloses
$LN296@FindCloses:
	mov	DWORD PTR tv617[ebp], 0
$LN294@FindCloses:
	cmp	DWORD PTR tv617[ebp], 0
	je	SHORT $LN272@FindCloses
	mov	ecx, DWORD PTR _kMap$[ebp]
	mov	edx, DWORD PTR [ecx+4020]
	mov	DWORD PTR $T228841[ebp], edx
	mov	eax, DWORD PTR _iMapY$228885[ebp]
	imul	eax, DWORD PTR $T228841[ebp]
	add	eax, DWORD PTR _iMapX$228884[ebp]
	imul	eax, 484				; 000001e4H
	mov	ecx, DWORD PTR _kMap$[ebp]
	add	eax, DWORD PTR [ecx+4068]
	mov	DWORD PTR tv570[ebp], eax
	jmp	SHORT $LN273@FindCloses
$LN272@FindCloses:
	mov	DWORD PTR tv570[ebp], 0
$LN273@FindCloses:
	mov	edx, DWORD PTR tv570[ebp]
	mov	DWORD PTR _pkTestPlot$224220[ebp], edx
$LN270@FindCloses:

; 962  : 						const CvCity* pkCity = GetCity(ePlayer, pkTestPlot);

	mov	eax, DWORD PTR _pkTestPlot$224220[ebp]
	push	eax
	mov	ecx, DWORD PTR _ePlayer$[ebp]
	push	ecx
	call	?GetCity@@YAPBVCvCity@@W4PlayerTypes@@PBVCvPlot@@@Z ; GetCity
	add	esp, 8
	mov	DWORD PTR _pkCity$224221[ebp], eax

; 963  : 						if(pkCity) return pkCity;

	cmp	DWORD PTR _pkCity$224221[ebp], 0
	je	SHORT $LN35@FindCloses
	mov	eax, DWORD PTR _pkCity$224221[ebp]
	jmp	$LN64@FindCloses
$LN35@FindCloses:

; 964  : 					}
; 965  : 				}
; 966  : 			}
; 967  : 
; 968  : 			{
; 969  : 				// Right-most plot in the current row
; 970  : 				int iX = iPlotX + (iRowWidth / 2) - 1;

	mov	eax, DWORD PTR _iRowWidth$224206[ebp]
	cdq
	sub	eax, edx
	sar	eax, 1
	mov	edx, DWORD PTR _iPlotX$[ebp]
	lea	eax, DWORD PTR [edx+eax-1]
	mov	DWORD PTR _iX$224223[ebp], eax

; 971  : 				if(iRow % 2 == 1) iX += iRowOffset;

	mov	ecx, DWORD PTR _iRow$224202[ebp]
	and	ecx, -2147483647			; 80000001H
	jns	SHORT $LN460@FindCloses
	dec	ecx
	or	ecx, -2					; fffffffeH
	inc	ecx
$LN460@FindCloses:
	cmp	ecx, 1
	jne	SHORT $LN30@FindCloses
	mov	edx, DWORD PTR _iX$224223[ebp]
	add	edx, DWORD PTR _iRowOffset$224201[ebp]
	mov	DWORD PTR _iX$224223[ebp], edx
$LN30@FindCloses:

; 972  : 
; 973  : 				if(iX >= iMapWidth)

	mov	eax, DWORD PTR _iX$224223[ebp]
	cmp	eax, DWORD PTR _iMapWidth$[ebp]
	jl	SHORT $LN29@FindCloses

; 974  : 				{
; 975  : 					if(bWorldWrap)

	movzx	ecx, BYTE PTR _bWorldWrap$[ebp]
	test	ecx, ecx
	je	SHORT $LN29@FindCloses
$LN27@FindCloses:

; 976  : 						do
; 977  : 						{
; 978  : 							iX -= iMapWidth;

	mov	edx, DWORD PTR _iX$224223[ebp]
	sub	edx, DWORD PTR _iMapWidth$[ebp]
	mov	DWORD PTR _iX$224223[ebp], edx

; 979  : 						}
; 980  : 						while(iX >= iMapWidth);

	mov	eax, DWORD PTR _iX$224223[ebp]
	cmp	eax, DWORD PTR _iMapWidth$[ebp]
	jge	SHORT $LN27@FindCloses
$LN29@FindCloses:

; 981  : 				}
; 982  : 
; 983  : 				if(iX < iMapWidth)

	mov	ecx, DWORD PTR _iX$224223[ebp]
	cmp	ecx, DWORD PTR _iMapWidth$[ebp]
	jge	$LN24@FindCloses

; 984  : 				{
; 985  : 					if(iPlotY - iRow >= 0)

	mov	edx, DWORD PTR _iPlotY$[ebp]
	sub	edx, DWORD PTR _iRow$224202[ebp]
	js	$LN23@FindCloses

; 986  : 					{
; 987  : 						const CvPlot* pkTestPlot = kMap.plot(iX, iPlotY - iRow);

	mov	eax, DWORD PTR _iPlotY$[ebp]
	sub	eax, DWORD PTR _iRow$224202[ebp]
	mov	DWORD PTR $T228988[ebp], eax
	cmp	DWORD PTR _iX$224223[ebp], -2147483647	; 80000001H
	je	SHORT $LN306@FindCloses
	cmp	DWORD PTR $T228988[ebp], -2147483647	; 80000001H
	jne	SHORT $LN307@FindCloses
$LN306@FindCloses:
	mov	DWORD PTR _pkTestPlot$224232[ebp], 0
	jmp	$LN308@FindCloses
$LN307@FindCloses:
	mov	ecx, DWORD PTR _kMap$[ebp]
	mov	dl, BYTE PTR [ecx+4056]
	mov	BYTE PTR $T228893[ebp], dl
	mov	eax, DWORD PTR _kMap$[ebp]
	mov	ecx, DWORD PTR [eax+4020]
	mov	DWORD PTR $T228897[ebp], ecx
	movzx	edx, BYTE PTR $T228893[ebp]
	test	edx, edx
	je	SHORT $LN319@FindCloses
	cmp	DWORD PTR _iX$224223[ebp], 0
	jge	SHORT $LN318@FindCloses
	mov	eax, DWORD PTR _iX$224223[ebp]
	cdq
	idiv	DWORD PTR $T228897[ebp]
	add	edx, DWORD PTR $T228897[ebp]
	mov	DWORD PTR _iMapX$228986[ebp], edx
	jmp	SHORT $LN320@FindCloses
	jmp	SHORT $LN319@FindCloses
$LN318@FindCloses:
	mov	eax, DWORD PTR _iX$224223[ebp]
	cmp	eax, DWORD PTR $T228897[ebp]
	jl	SHORT $LN319@FindCloses
	mov	eax, DWORD PTR _iX$224223[ebp]
	cdq
	idiv	DWORD PTR $T228897[ebp]
	mov	DWORD PTR _iMapX$228986[ebp], edx
	jmp	SHORT $LN320@FindCloses
$LN319@FindCloses:
	mov	ecx, DWORD PTR _iX$224223[ebp]
	mov	DWORD PTR _iMapX$228986[ebp], ecx
$LN320@FindCloses:
	mov	edx, DWORD PTR _kMap$[ebp]
	mov	al, BYTE PTR [edx+4057]
	mov	BYTE PTR $T228908[ebp], al
	mov	ecx, DWORD PTR _kMap$[ebp]
	mov	edx, DWORD PTR [ecx+4024]
	mov	DWORD PTR $T228912[ebp], edx
	movzx	eax, BYTE PTR $T228908[ebp]
	test	eax, eax
	je	SHORT $LN329@FindCloses
	cmp	DWORD PTR $T228988[ebp], 0
	jge	SHORT $LN328@FindCloses
	mov	eax, DWORD PTR $T228988[ebp]
	cdq
	idiv	DWORD PTR $T228912[ebp]
	add	edx, DWORD PTR $T228912[ebp]
	mov	DWORD PTR _iMapY$228987[ebp], edx
	jmp	SHORT $LN330@FindCloses
	jmp	SHORT $LN329@FindCloses
$LN328@FindCloses:
	mov	ecx, DWORD PTR $T228988[ebp]
	cmp	ecx, DWORD PTR $T228912[ebp]
	jl	SHORT $LN329@FindCloses
	mov	eax, DWORD PTR $T228988[ebp]
	cdq
	idiv	DWORD PTR $T228912[ebp]
	mov	DWORD PTR _iMapY$228987[ebp], edx
	jmp	SHORT $LN330@FindCloses
$LN329@FindCloses:
	mov	edx, DWORD PTR $T228988[ebp]
	mov	DWORD PTR _iMapY$228987[ebp], edx
$LN330@FindCloses:
	cmp	DWORD PTR _iMapX$228986[ebp], 0
	jl	SHORT $LN334@FindCloses
	mov	eax, DWORD PTR _kMap$[ebp]
	mov	ecx, DWORD PTR [eax+4020]
	mov	DWORD PTR $T228926[ebp], ecx
	mov	edx, DWORD PTR _iMapX$228986[ebp]
	cmp	edx, DWORD PTR $T228926[ebp]
	jge	SHORT $LN334@FindCloses
	cmp	DWORD PTR _iMapY$228987[ebp], 0
	jl	SHORT $LN334@FindCloses
	mov	eax, DWORD PTR _kMap$[ebp]
	mov	ecx, DWORD PTR [eax+4024]
	mov	DWORD PTR $T228930[ebp], ecx
	mov	edx, DWORD PTR _iMapY$228987[ebp]
	cmp	edx, DWORD PTR $T228930[ebp]
	jge	SHORT $LN334@FindCloses
	mov	DWORD PTR tv657[ebp], 1
	jmp	SHORT $LN332@FindCloses
$LN334@FindCloses:
	mov	DWORD PTR tv657[ebp], 0
$LN332@FindCloses:
	cmp	DWORD PTR tv657[ebp], 0
	je	SHORT $LN310@FindCloses
	mov	eax, DWORD PTR _kMap$[ebp]
	mov	ecx, DWORD PTR [eax+4020]
	mov	DWORD PTR $T228943[ebp], ecx
	mov	edx, DWORD PTR _iMapY$228987[ebp]
	imul	edx, DWORD PTR $T228943[ebp]
	add	edx, DWORD PTR _iMapX$228986[ebp]
	imul	edx, 484				; 000001e4H
	mov	eax, DWORD PTR _kMap$[ebp]
	add	edx, DWORD PTR [eax+4068]
	mov	DWORD PTR tv642[ebp], edx
	jmp	SHORT $LN311@FindCloses
$LN310@FindCloses:
	mov	DWORD PTR tv642[ebp], 0
$LN311@FindCloses:
	mov	ecx, DWORD PTR tv642[ebp]
	mov	DWORD PTR _pkTestPlot$224232[ebp], ecx
$LN308@FindCloses:

; 988  : 						const CvCity* pkCity = GetCity(ePlayer, pkTestPlot);

	mov	edx, DWORD PTR _pkTestPlot$224232[ebp]
	push	edx
	mov	eax, DWORD PTR _ePlayer$[ebp]
	push	eax
	call	?GetCity@@YAPBVCvCity@@W4PlayerTypes@@PBVCvPlot@@@Z ; GetCity
	add	esp, 8
	mov	DWORD PTR _pkCity$224233[ebp], eax

; 989  : 						if(pkCity) return pkCity;

	cmp	DWORD PTR _pkCity$224233[ebp], 0
	je	SHORT $LN23@FindCloses
	mov	eax, DWORD PTR _pkCity$224233[ebp]
	jmp	$LN64@FindCloses
$LN23@FindCloses:

; 990  : 					}
; 991  : 
; 992  : 					if(iPlotY + iRow < iMapHeight)

	mov	ecx, DWORD PTR _iPlotY$[ebp]
	add	ecx, DWORD PTR _iRow$224202[ebp]
	cmp	ecx, DWORD PTR _iMapHeight$[ebp]
	jge	$LN24@FindCloses

; 993  : 					{
; 994  : 						const CvPlot* pkTestPlot = kMap.plot(iX, iPlotY + iRow);

	mov	edx, DWORD PTR _iPlotY$[ebp]
	add	edx, DWORD PTR _iRow$224202[ebp]
	mov	DWORD PTR $T229090[ebp], edx
	cmp	DWORD PTR _iX$224223[ebp], -2147483647	; 80000001H
	je	SHORT $LN344@FindCloses
	cmp	DWORD PTR $T229090[ebp], -2147483647	; 80000001H
	jne	SHORT $LN345@FindCloses
$LN344@FindCloses:
	mov	DWORD PTR _pkTestPlot$224236[ebp], 0
	jmp	$LN346@FindCloses
$LN345@FindCloses:
	mov	eax, DWORD PTR _kMap$[ebp]
	mov	cl, BYTE PTR [eax+4056]
	mov	BYTE PTR $T228995[ebp], cl
	mov	edx, DWORD PTR _kMap$[ebp]
	mov	eax, DWORD PTR [edx+4020]
	mov	DWORD PTR $T228999[ebp], eax
	movzx	ecx, BYTE PTR $T228995[ebp]
	test	ecx, ecx
	je	SHORT $LN357@FindCloses
	cmp	DWORD PTR _iX$224223[ebp], 0
	jge	SHORT $LN356@FindCloses
	mov	eax, DWORD PTR _iX$224223[ebp]
	cdq
	idiv	DWORD PTR $T228999[ebp]
	add	edx, DWORD PTR $T228999[ebp]
	mov	DWORD PTR _iMapX$229088[ebp], edx
	jmp	SHORT $LN358@FindCloses
	jmp	SHORT $LN357@FindCloses
$LN356@FindCloses:
	mov	edx, DWORD PTR _iX$224223[ebp]
	cmp	edx, DWORD PTR $T228999[ebp]
	jl	SHORT $LN357@FindCloses
	mov	eax, DWORD PTR _iX$224223[ebp]
	cdq
	idiv	DWORD PTR $T228999[ebp]
	mov	DWORD PTR _iMapX$229088[ebp], edx
	jmp	SHORT $LN358@FindCloses
$LN357@FindCloses:
	mov	eax, DWORD PTR _iX$224223[ebp]
	mov	DWORD PTR _iMapX$229088[ebp], eax
$LN358@FindCloses:
	mov	ecx, DWORD PTR _kMap$[ebp]
	mov	dl, BYTE PTR [ecx+4057]
	mov	BYTE PTR $T229010[ebp], dl
	mov	eax, DWORD PTR _kMap$[ebp]
	mov	ecx, DWORD PTR [eax+4024]
	mov	DWORD PTR $T229014[ebp], ecx
	movzx	edx, BYTE PTR $T229010[ebp]
	test	edx, edx
	je	SHORT $LN367@FindCloses
	cmp	DWORD PTR $T229090[ebp], 0
	jge	SHORT $LN366@FindCloses
	mov	eax, DWORD PTR $T229090[ebp]
	cdq
	idiv	DWORD PTR $T229014[ebp]
	add	edx, DWORD PTR $T229014[ebp]
	mov	DWORD PTR _iMapY$229089[ebp], edx
	jmp	SHORT $LN368@FindCloses
	jmp	SHORT $LN367@FindCloses
$LN366@FindCloses:
	mov	eax, DWORD PTR $T229090[ebp]
	cmp	eax, DWORD PTR $T229014[ebp]
	jl	SHORT $LN367@FindCloses
	mov	eax, DWORD PTR $T229090[ebp]
	cdq
	idiv	DWORD PTR $T229014[ebp]
	mov	DWORD PTR _iMapY$229089[ebp], edx
	jmp	SHORT $LN368@FindCloses
$LN367@FindCloses:
	mov	ecx, DWORD PTR $T229090[ebp]
	mov	DWORD PTR _iMapY$229089[ebp], ecx
$LN368@FindCloses:
	cmp	DWORD PTR _iMapX$229088[ebp], 0
	jl	SHORT $LN372@FindCloses
	mov	edx, DWORD PTR _kMap$[ebp]
	mov	eax, DWORD PTR [edx+4020]
	mov	DWORD PTR $T229028[ebp], eax
	mov	ecx, DWORD PTR _iMapX$229088[ebp]
	cmp	ecx, DWORD PTR $T229028[ebp]
	jge	SHORT $LN372@FindCloses
	cmp	DWORD PTR _iMapY$229089[ebp], 0
	jl	SHORT $LN372@FindCloses
	mov	edx, DWORD PTR _kMap$[ebp]
	mov	eax, DWORD PTR [edx+4024]
	mov	DWORD PTR $T229032[ebp], eax
	mov	ecx, DWORD PTR _iMapY$229089[ebp]
	cmp	ecx, DWORD PTR $T229032[ebp]
	jge	SHORT $LN372@FindCloses
	mov	DWORD PTR tv697[ebp], 1
	jmp	SHORT $LN370@FindCloses
$LN372@FindCloses:
	mov	DWORD PTR tv697[ebp], 0
$LN370@FindCloses:
	cmp	DWORD PTR tv697[ebp], 0
	je	SHORT $LN348@FindCloses
	mov	edx, DWORD PTR _kMap$[ebp]
	mov	eax, DWORD PTR [edx+4020]
	mov	DWORD PTR $T229045[ebp], eax
	mov	ecx, DWORD PTR _iMapY$229089[ebp]
	imul	ecx, DWORD PTR $T229045[ebp]
	add	ecx, DWORD PTR _iMapX$229088[ebp]
	imul	ecx, 484				; 000001e4H
	mov	edx, DWORD PTR _kMap$[ebp]
	add	ecx, DWORD PTR [edx+4068]
	mov	DWORD PTR tv682[ebp], ecx
	jmp	SHORT $LN349@FindCloses
$LN348@FindCloses:
	mov	DWORD PTR tv682[ebp], 0
$LN349@FindCloses:
	mov	eax, DWORD PTR tv682[ebp]
	mov	DWORD PTR _pkTestPlot$224236[ebp], eax
$LN346@FindCloses:

; 995  : 						const CvCity* pkCity = GetCity(ePlayer, pkTestPlot);

	mov	ecx, DWORD PTR _pkTestPlot$224236[ebp]
	push	ecx
	mov	edx, DWORD PTR _ePlayer$[ebp]
	push	edx
	call	?GetCity@@YAPBVCvCity@@W4PlayerTypes@@PBVCvPlot@@@Z ; GetCity
	add	esp, 8
	mov	DWORD PTR _pkCity$224237[ebp], eax

; 996  : 						if(pkCity) return pkCity;

	cmp	DWORD PTR _pkCity$224237[ebp], 0
	je	SHORT $LN24@FindCloses
	mov	eax, DWORD PTR _pkCity$224237[ebp]
	jmp	$LN64@FindCloses
$LN24@FindCloses:

; 997  : 					}
; 998  : 				}
; 999  : 			}
; 1000 : 		}

	jmp	$LN43@FindCloses
$LN42@FindCloses:

; 1001 : 
; 1002 : 		// Top-most and Bottom-most rows
; 1003 : 		{
; 1004 : 			const int iRowWidth = iDist + 1;

	mov	eax, DWORD PTR _iDist$224170[ebp]
	add	eax, 1
	mov	DWORD PTR _iRowWidth$224239[ebp], eax

; 1005 : 			for(int iPlot = 0; iPlot < iRowWidth; ++iPlot)

	mov	DWORD PTR _iPlot$224240[ebp], 0
	jmp	SHORT $LN19@FindCloses
$LN18@FindCloses:
	mov	ecx, DWORD PTR _iPlot$224240[ebp]
	add	ecx, 1
	mov	DWORD PTR _iPlot$224240[ebp], ecx
$LN19@FindCloses:
	mov	edx, DWORD PTR _iPlot$224240[ebp]
	cmp	edx, DWORD PTR _iRowWidth$224239[ebp]
	jge	$LN17@FindCloses

; 1006 : 			{
; 1007 : 				int iX = iPlotX + iPlot - (iRowWidth / 2);

	mov	ecx, DWORD PTR _iPlotX$[ebp]
	add	ecx, DWORD PTR _iPlot$224240[ebp]
	mov	eax, DWORD PTR _iRowWidth$224239[ebp]
	cdq
	sub	eax, edx
	sar	eax, 1
	sub	ecx, eax
	mov	DWORD PTR _iX$224244[ebp], ecx

; 1008 : 				if(iDist % 2 == 1) iX += iRowOffset;

	mov	edx, DWORD PTR _iDist$224170[ebp]
	and	edx, -2147483647			; 80000001H
	jns	SHORT $LN461@FindCloses
	dec	edx
	or	edx, -2					; fffffffeH
	inc	edx
$LN461@FindCloses:
	cmp	edx, 1
	jne	SHORT $LN16@FindCloses
	mov	eax, DWORD PTR _iX$224244[ebp]
	add	eax, DWORD PTR _iRowOffset$224201[ebp]
	mov	DWORD PTR _iX$224244[ebp], eax
$LN16@FindCloses:

; 1009 : 
; 1010 : 				if(iX < 0)

	cmp	DWORD PTR _iX$224244[ebp], 0
	jge	SHORT $LN15@FindCloses

; 1011 : 				{
; 1012 : 					if(!bWorldWrap)

	movzx	ecx, BYTE PTR _bWorldWrap$[ebp]
	test	ecx, ecx
	jne	SHORT $LN13@FindCloses

; 1013 : 						continue;

	jmp	SHORT $LN18@FindCloses
$LN13@FindCloses:

; 1014 : 
; 1015 : 					do
; 1016 : 					{
; 1017 : 						iX += iMapWidth;

	mov	edx, DWORD PTR _iX$224244[ebp]
	add	edx, DWORD PTR _iMapWidth$[ebp]
	mov	DWORD PTR _iX$224244[ebp], edx

; 1018 : 					}
; 1019 : 					while(iX < 0);

	js	SHORT $LN13@FindCloses

; 1020 : 				}
; 1021 : 				else if(iX >= iMapWidth)

	jmp	SHORT $LN10@FindCloses
$LN15@FindCloses:
	mov	eax, DWORD PTR _iX$224244[ebp]
	cmp	eax, DWORD PTR _iMapWidth$[ebp]
	jl	SHORT $LN10@FindCloses

; 1022 : 				{
; 1023 : 					if(!bWorldWrap)

	movzx	ecx, BYTE PTR _bWorldWrap$[ebp]
	test	ecx, ecx
	jne	SHORT $LN7@FindCloses

; 1024 : 						continue;

	jmp	$LN18@FindCloses
$LN7@FindCloses:

; 1025 : 
; 1026 : 					do
; 1027 : 					{
; 1028 : 						iX -= iMapWidth;

	mov	edx, DWORD PTR _iX$224244[ebp]
	sub	edx, DWORD PTR _iMapWidth$[ebp]
	mov	DWORD PTR _iX$224244[ebp], edx

; 1029 : 					}
; 1030 : 					while(iX >= iMapWidth);

	mov	eax, DWORD PTR _iX$224244[ebp]
	cmp	eax, DWORD PTR _iMapWidth$[ebp]
	jge	SHORT $LN7@FindCloses
$LN10@FindCloses:

; 1031 : 				}
; 1032 : 
; 1033 : 				if(iPlotY - iDist >= 0)

	mov	ecx, DWORD PTR _iPlotY$[ebp]
	sub	ecx, DWORD PTR _iDist$224170[ebp]
	js	$LN4@FindCloses

; 1034 : 				{
; 1035 : 					const CvPlot* pkTestPlot = kMap.plot(iX, iPlotY - iDist);

	mov	edx, DWORD PTR _iPlotY$[ebp]
	sub	edx, DWORD PTR _iDist$224170[ebp]
	mov	DWORD PTR $T229192[ebp], edx
	cmp	DWORD PTR _iX$224244[ebp], -2147483647	; 80000001H
	je	SHORT $LN382@FindCloses
	cmp	DWORD PTR $T229192[ebp], -2147483647	; 80000001H
	jne	SHORT $LN383@FindCloses
$LN382@FindCloses:
	mov	DWORD PTR _pkTestPlot$224258[ebp], 0
	jmp	$LN384@FindCloses
$LN383@FindCloses:
	mov	eax, DWORD PTR _kMap$[ebp]
	mov	cl, BYTE PTR [eax+4056]
	mov	BYTE PTR $T229097[ebp], cl
	mov	edx, DWORD PTR _kMap$[ebp]
	mov	eax, DWORD PTR [edx+4020]
	mov	DWORD PTR $T229101[ebp], eax
	movzx	ecx, BYTE PTR $T229097[ebp]
	test	ecx, ecx
	je	SHORT $LN395@FindCloses
	cmp	DWORD PTR _iX$224244[ebp], 0
	jge	SHORT $LN394@FindCloses
	mov	eax, DWORD PTR _iX$224244[ebp]
	cdq
	idiv	DWORD PTR $T229101[ebp]
	add	edx, DWORD PTR $T229101[ebp]
	mov	DWORD PTR _iMapX$229158[ebp], edx
	jmp	SHORT $LN396@FindCloses
	jmp	SHORT $LN395@FindCloses
$LN394@FindCloses:
	mov	edx, DWORD PTR _iX$224244[ebp]
	cmp	edx, DWORD PTR $T229101[ebp]
	jl	SHORT $LN395@FindCloses
	mov	eax, DWORD PTR _iX$224244[ebp]
	cdq
	idiv	DWORD PTR $T229101[ebp]
	mov	DWORD PTR _iMapX$229158[ebp], edx
	jmp	SHORT $LN396@FindCloses
$LN395@FindCloses:
	mov	eax, DWORD PTR _iX$224244[ebp]
	mov	DWORD PTR _iMapX$229158[ebp], eax
$LN396@FindCloses:
	mov	ecx, DWORD PTR _kMap$[ebp]
	mov	dl, BYTE PTR [ecx+4057]
	mov	BYTE PTR $T229112[ebp], dl
	mov	eax, DWORD PTR _kMap$[ebp]
	mov	ecx, DWORD PTR [eax+4024]
	mov	DWORD PTR $T229116[ebp], ecx
	movzx	edx, BYTE PTR $T229112[ebp]
	test	edx, edx
	je	SHORT $LN405@FindCloses
	cmp	DWORD PTR $T229192[ebp], 0
	jge	SHORT $LN404@FindCloses
	mov	eax, DWORD PTR $T229192[ebp]
	cdq
	idiv	DWORD PTR $T229116[ebp]
	add	edx, DWORD PTR $T229116[ebp]
	mov	DWORD PTR _iMapY$229160[ebp], edx
	jmp	SHORT $LN406@FindCloses
	jmp	SHORT $LN405@FindCloses
$LN404@FindCloses:
	mov	eax, DWORD PTR $T229192[ebp]
	cmp	eax, DWORD PTR $T229116[ebp]
	jl	SHORT $LN405@FindCloses
	mov	eax, DWORD PTR $T229192[ebp]
	cdq
	idiv	DWORD PTR $T229116[ebp]
	mov	DWORD PTR _iMapY$229160[ebp], edx
	jmp	SHORT $LN406@FindCloses
$LN405@FindCloses:
	mov	ecx, DWORD PTR $T229192[ebp]
	mov	DWORD PTR _iMapY$229160[ebp], ecx
$LN406@FindCloses:
	cmp	DWORD PTR _iMapX$229158[ebp], 0
	jl	SHORT $LN410@FindCloses
	mov	edx, DWORD PTR _kMap$[ebp]
	mov	eax, DWORD PTR [edx+4020]
	mov	DWORD PTR $T229130[ebp], eax
	mov	ecx, DWORD PTR _iMapX$229158[ebp]
	cmp	ecx, DWORD PTR $T229130[ebp]
	jge	SHORT $LN410@FindCloses
	cmp	DWORD PTR _iMapY$229160[ebp], 0
	jl	SHORT $LN410@FindCloses
	mov	edx, DWORD PTR _kMap$[ebp]
	mov	eax, DWORD PTR [edx+4024]
	mov	DWORD PTR $T229134[ebp], eax
	mov	ecx, DWORD PTR _iMapY$229160[ebp]
	cmp	ecx, DWORD PTR $T229134[ebp]
	jge	SHORT $LN410@FindCloses
	mov	DWORD PTR tv769[ebp], 1
	jmp	SHORT $LN408@FindCloses
$LN410@FindCloses:
	mov	DWORD PTR tv769[ebp], 0
$LN408@FindCloses:
	cmp	DWORD PTR tv769[ebp], 0
	je	SHORT $LN386@FindCloses
	mov	edx, DWORD PTR _kMap$[ebp]
	mov	eax, DWORD PTR [edx+4020]
	mov	DWORD PTR $T229147[ebp], eax
	mov	ecx, DWORD PTR _iMapY$229160[ebp]
	imul	ecx, DWORD PTR $T229147[ebp]
	add	ecx, DWORD PTR _iMapX$229158[ebp]
	imul	ecx, 484				; 000001e4H
	mov	edx, DWORD PTR _kMap$[ebp]
	add	ecx, DWORD PTR [edx+4068]
	mov	DWORD PTR tv722[ebp], ecx
	jmp	SHORT $LN387@FindCloses
$LN386@FindCloses:
	mov	DWORD PTR tv722[ebp], 0
$LN387@FindCloses:
	mov	eax, DWORD PTR tv722[ebp]
	mov	DWORD PTR _pkTestPlot$224258[ebp], eax
$LN384@FindCloses:

; 1036 : 					const CvCity* pkCity = GetCity(ePlayer, pkTestPlot);

	mov	ecx, DWORD PTR _pkTestPlot$224258[ebp]
	push	ecx
	mov	edx, DWORD PTR _ePlayer$[ebp]
	push	edx
	call	?GetCity@@YAPBVCvCity@@W4PlayerTypes@@PBVCvPlot@@@Z ; GetCity
	add	esp, 8
	mov	DWORD PTR _pkCity$224259[ebp], eax

; 1037 : 					if(pkCity) return pkCity;

	cmp	DWORD PTR _pkCity$224259[ebp], 0
	je	SHORT $LN4@FindCloses
	mov	eax, DWORD PTR _pkCity$224259[ebp]
	jmp	$LN64@FindCloses
$LN4@FindCloses:

; 1038 : 				}
; 1039 : 
; 1040 : 				if(iPlotY + iDist < iMapHeight)

	mov	eax, DWORD PTR _iPlotY$[ebp]
	add	eax, DWORD PTR _iDist$224170[ebp]
	cmp	eax, DWORD PTR _iMapHeight$[ebp]
	jge	$LN2@FindCloses

; 1041 : 				{
; 1042 : 					const CvPlot* pkTestPlot = kMap.plot(iX, iPlotY + iDist);

	mov	ecx, DWORD PTR _iPlotY$[ebp]
	add	ecx, DWORD PTR _iDist$224170[ebp]
	mov	DWORD PTR $T229294[ebp], ecx
	cmp	DWORD PTR _iX$224244[ebp], -2147483647	; 80000001H
	je	SHORT $LN420@FindCloses
	cmp	DWORD PTR $T229294[ebp], -2147483647	; 80000001H
	jne	SHORT $LN421@FindCloses
$LN420@FindCloses:
	mov	DWORD PTR _pkTestPlot$224262[ebp], 0
	jmp	$LN422@FindCloses
$LN421@FindCloses:
	mov	edx, DWORD PTR _kMap$[ebp]
	mov	al, BYTE PTR [edx+4056]
	mov	BYTE PTR $T229199[ebp], al
	mov	ecx, DWORD PTR _kMap$[ebp]
	mov	edx, DWORD PTR [ecx+4020]
	mov	DWORD PTR $T229203[ebp], edx
	movzx	eax, BYTE PTR $T229199[ebp]
	test	eax, eax
	je	SHORT $LN433@FindCloses
	cmp	DWORD PTR _iX$224244[ebp], 0
	jge	SHORT $LN432@FindCloses
	mov	eax, DWORD PTR _iX$224244[ebp]
	cdq
	idiv	DWORD PTR $T229203[ebp]
	add	edx, DWORD PTR $T229203[ebp]
	mov	DWORD PTR _iMapX$229257[ebp], edx
	jmp	SHORT $LN434@FindCloses
	jmp	SHORT $LN433@FindCloses
$LN432@FindCloses:
	mov	ecx, DWORD PTR _iX$224244[ebp]
	cmp	ecx, DWORD PTR $T229203[ebp]
	jl	SHORT $LN433@FindCloses
	mov	eax, DWORD PTR _iX$224244[ebp]
	cdq
	idiv	DWORD PTR $T229203[ebp]
	mov	DWORD PTR _iMapX$229257[ebp], edx
	jmp	SHORT $LN434@FindCloses
$LN433@FindCloses:
	mov	edx, DWORD PTR _iX$224244[ebp]
	mov	DWORD PTR _iMapX$229257[ebp], edx
$LN434@FindCloses:
	mov	eax, DWORD PTR _kMap$[ebp]
	mov	cl, BYTE PTR [eax+4057]
	mov	BYTE PTR $T229214[ebp], cl
	mov	edx, DWORD PTR _kMap$[ebp]
	mov	eax, DWORD PTR [edx+4024]
	mov	DWORD PTR $T229218[ebp], eax
	movzx	ecx, BYTE PTR $T229214[ebp]
	test	ecx, ecx
	je	SHORT $LN443@FindCloses
	cmp	DWORD PTR $T229294[ebp], 0
	jge	SHORT $LN442@FindCloses
	mov	eax, DWORD PTR $T229294[ebp]
	cdq
	idiv	DWORD PTR $T229218[ebp]
	add	edx, DWORD PTR $T229218[ebp]
	mov	DWORD PTR _iMapY$229258[ebp], edx
	jmp	SHORT $LN444@FindCloses
	jmp	SHORT $LN443@FindCloses
$LN442@FindCloses:
	mov	edx, DWORD PTR $T229294[ebp]
	cmp	edx, DWORD PTR $T229218[ebp]
	jl	SHORT $LN443@FindCloses
	mov	eax, DWORD PTR $T229294[ebp]
	cdq
	idiv	DWORD PTR $T229218[ebp]
	mov	DWORD PTR _iMapY$229258[ebp], edx
	jmp	SHORT $LN444@FindCloses
$LN443@FindCloses:
	mov	eax, DWORD PTR $T229294[ebp]
	mov	DWORD PTR _iMapY$229258[ebp], eax
$LN444@FindCloses:
	cmp	DWORD PTR _iMapX$229257[ebp], 0
	jl	SHORT $LN448@FindCloses
	mov	ecx, DWORD PTR _kMap$[ebp]
	mov	edx, DWORD PTR [ecx+4020]
	mov	DWORD PTR $T229232[ebp], edx
	mov	eax, DWORD PTR _iMapX$229257[ebp]
	cmp	eax, DWORD PTR $T229232[ebp]
	jge	SHORT $LN448@FindCloses
	cmp	DWORD PTR _iMapY$229258[ebp], 0
	jl	SHORT $LN448@FindCloses
	mov	ecx, DWORD PTR _kMap$[ebp]
	mov	edx, DWORD PTR [ecx+4024]
	mov	DWORD PTR $T229236[ebp], edx
	mov	eax, DWORD PTR _iMapY$229258[ebp]
	cmp	eax, DWORD PTR $T229236[ebp]
	jge	SHORT $LN448@FindCloses
	mov	DWORD PTR tv809[ebp], 1
	jmp	SHORT $LN446@FindCloses
$LN448@FindCloses:
	mov	DWORD PTR tv809[ebp], 0
$LN446@FindCloses:
	cmp	DWORD PTR tv809[ebp], 0
	je	SHORT $LN424@FindCloses
	mov	ecx, DWORD PTR _kMap$[ebp]
	mov	edx, DWORD PTR [ecx+4020]
	mov	DWORD PTR $T229249[ebp], edx
	mov	eax, DWORD PTR _iMapY$229258[ebp]
	imul	eax, DWORD PTR $T229249[ebp]
	add	eax, DWORD PTR _iMapX$229257[ebp]
	imul	eax, 484				; 000001e4H
	mov	ecx, DWORD PTR _kMap$[ebp]
	add	eax, DWORD PTR [ecx+4068]
	mov	DWORD PTR tv794[ebp], eax
	jmp	SHORT $LN425@FindCloses
$LN424@FindCloses:
	mov	DWORD PTR tv794[ebp], 0
$LN425@FindCloses:
	mov	edx, DWORD PTR tv794[ebp]
	mov	DWORD PTR _pkTestPlot$224262[ebp], edx
$LN422@FindCloses:

; 1043 : 					const CvCity* pkCity = GetCity(ePlayer, pkTestPlot);

	mov	eax, DWORD PTR _pkTestPlot$224262[ebp]
	push	eax
	mov	ecx, DWORD PTR _ePlayer$[ebp]
	push	ecx
	call	?GetCity@@YAPBVCvCity@@W4PlayerTypes@@PBVCvPlot@@@Z ; GetCity
	add	esp, 8
	mov	DWORD PTR _pkCity$224263[ebp], eax

; 1044 : 					if(pkCity) return pkCity;

	cmp	DWORD PTR _pkCity$224263[ebp], 0
	je	SHORT $LN2@FindCloses
	mov	eax, DWORD PTR _pkCity$224263[ebp]
	jmp	SHORT $LN64@FindCloses
$LN2@FindCloses:

; 1045 : 				}
; 1046 : 			}

	jmp	$LN18@FindCloses
$LN17@FindCloses:

; 1047 : 		}
; 1048 : 	}

	jmp	$LN61@FindCloses
$LN60@FindCloses:

; 1049 : 
; 1050 : 	return NULL;

	xor	eax, eax
$LN64@FindCloses:

; 1051 : }

	mov	esp, ebp
	pop	ebp
	ret	0
?FindClosestCity@@YAPBVCvCity@@W4PlayerTypes@@ABVCvPlot@@@Z ENDP ; FindClosestCity
_TEXT	ENDS
PUBLIC	??1?$FFastVector@PAVCvPlayer@@$0A@$0A@$0A@UFDefaultFastVectorAllocator@?$BaseVector@PAVCvPlayer@@$0A@@@@@QAE@XZ ; FFastVector<CvPlayer *,0,0,0,BaseVector<CvPlayer *,0>::FDefaultFastVectorAllocator>::~FFastVector<CvPlayer *,0,0,0,BaseVector<CvPlayer *,0>::FDefaultFastVectorAllocator>
PUBLIC	??_C@_0BD@FPKADGCN@Map?5Load?5Success?$CB?6?$AA@ ; `string'
PUBLIC	??_C@_0BN@JLCKEMAB@Adding?5Scenario?5Elements?4?4?4?6?$AA@ ; `string'
PUBLIC	??_C@_0BG@NBCEOEJG@Calculating?5Areas?4?4?4?6?$AA@ ; `string'
PUBLIC	??_C@_0BD@LPGKJLCN@Setting?5up?5map?4?4?4?6?$AA@ ; `string'
PUBLIC	?push_back@?$FFastVector@PAVCvPlayer@@$0A@$0A@$0A@UFDefaultFastVectorAllocator@?$BaseVector@PAVCvPlayer@@$0A@@@@@QAEIABQAVCvPlayer@@@Z ; FFastVector<CvPlayer *,0,0,0,BaseVector<CvPlayer *,0>::FDefaultFastVectorAllocator>::push_back
PUBLIC	??0?$FFastVector@PAVCvPlayer@@$0A@$0A@$0A@UFDefaultFastVectorAllocator@?$BaseVector@PAVCvPlayer@@$0A@@@@@QAE@I@Z ; FFastVector<CvPlayer *,0,0,0,BaseVector<CvPlayer *,0>::FDefaultFastVectorAllocator>::FFastVector<CvPlayer *,0,0,0,BaseVector<CvPlayer *,0>::FDefaultFastVectorAllocator>
PUBLIC	?isPlot@CvMap@@QBEHHH@Z				; CvMap::isPlot
PUBLIC	?coordRange@@YAHHH_N@Z				; coordRange
PUBLIC	??_C@_0BH@KKCBKBMH@Setting?5up?5players?4?4?4?6?$AA@ ; `string'
PUBLIC	?InitMap@CvWorldBuilderMapLoader@@SA_NXZ	; CvWorldBuilderMapLoader::InitMap
EXTRN	?setOwner@CvPlot@@QAEXW4PlayerTypes@@H_N1@Z:PROC ; CvPlot::setOwner
EXTRN	?setRevealed@CvPlot@@QAE_NW4TeamTypes@@_N10@Z:PROC ; CvPlot::setRevealed
EXTRN	?SetPlayerResponsibleForRoute@CvPlot@@QAEXW4PlayerTypes@@@Z:PROC ; CvPlot::SetPlayerResponsibleForRoute
EXTRN	?ChangeBaseImprovementGoldMaintenance@CvTreasury@@QAEXH@Z:PROC ; CvTreasury::ChangeBaseImprovementGoldMaintenance
EXTRN	?GetGoldMaintenance@CvRouteInfo@@QBEHXZ:PROC	; CvRouteInfo::GetGoldMaintenance
EXTRN	?MustPayMaintenanceHere@CvPlot@@QBE_NW4PlayerTypes@@@Z:PROC ; CvPlot::MustPayMaintenanceHere
EXTRN	?getRouteInfo@CvGlobals@@QAEPAVCvRouteInfo@@W4RouteTypes@@@Z:PROC ; CvGlobals::getRouteInfo
EXTRN	?isOwned@CvPlot@@QBE_NXZ:PROC			; CvPlot::isOwned
EXTRN	?setRouteType@CvPlot@@QAEXW4RouteTypes@@@Z:PROC	; CvPlot::setRouteType
EXTRN	?setImprovementType@CvPlot@@QAEXW4ImprovementTypes@@W4PlayerTypes@@@Z:PROC ; CvPlot::setImprovementType
EXTRN	?SetFriendshipWithMajor@CvMinorCivAI@@QAEXW4PlayerTypes@@H_N@Z:PROC ; CvMinorCivAI::SetFriendshipWithMajor
EXTRN	?GetMinorCivAI@CvPlayer@@QBEPAVCvMinorCivAI@@XZ:PROC ; CvPlayer::GetMinorCivAI
EXTRN	?SetHasDefensivePact@CvTeam@@QAEXW4TeamTypes@@_N@Z:PROC ; CvTeam::SetHasDefensivePact
EXTRN	?SetAllowsOpenBordersToTeam@CvTeam@@QAEXW4TeamTypes@@_N@Z:PROC ; CvTeam::SetAllowsOpenBordersToTeam
EXTRN	?setPermanentWarPeace@CvTeam@@QAEXW4TeamTypes@@_N@Z:PROC ; CvTeam::setPermanentWarPeace
EXTRN	?setAtWar@CvTeam@@QAEXW4TeamTypes@@_N@Z:PROC	; CvTeam::setAtWar
EXTRN	?meet@CvTeam@@QAEXW4TeamTypes@@_N@Z:PROC	; CvTeam::meet
EXTRN	?Init@CvTacticalAnalysisMap@@QAEXH@Z:PROC	; CvTacticalAnalysisMap::Init
EXTRN	?GetTacticalAnalysisMap@CvGame@@QAEPAVCvTacticalAnalysisMap@@XZ:PROC ; CvGame::GetTacticalAnalysisMap
EXTRN	?recalculateAreas@CvMap@@QAEXXZ:PROC		; CvMap::recalculateAreas
EXTRN	?SetContinentType@CvPlot@@QAEXD@Z:PROC		; CvPlot::SetContinentType
EXTRN	?setNEOfRiver@CvPlot@@QAEX_NW4FlowDirectionTypes@@@Z:PROC ; CvPlot::setNEOfRiver
EXTRN	?setNWOfRiver@CvPlot@@QAEX_NW4FlowDirectionTypes@@@Z:PROC ; CvPlot::setNWOfRiver
EXTRN	?setWOfRiver@CvPlot@@QAEX_NW4FlowDirectionTypes@@@Z:PROC ; CvPlot::setWOfRiver
EXTRN	?setFeatureType@CvPlot@@QAEXW4FeatureTypes@@H@Z:PROC ; CvPlot::setFeatureType
EXTRN	?setResourceType@CvPlot@@QAEXW4ResourceTypes@@H_N@Z:PROC ; CvPlot::setResourceType
EXTRN	?setPlotType@CvPlot@@QAEXW4PlotTypes@@_N11@Z:PROC ; CvPlot::setPlotType
EXTRN	?setTerrainType@CvPlot@@QAEXW4TerrainTypes@@_N1@Z:PROC ; CvPlot::setTerrainType
EXTRN	?isMinorCiv@CvPlayer@@QBE_NXZ:PROC		; CvPlayer::isMinorCiv
EXTRN	?getStartingPlot@CvPlayer@@QBEPAVCvPlot@@XZ:PROC ; CvPlayer::getStartingPlot
EXTRN	?setStartingPlot@CvPlayer@@QAEXPAVCvPlot@@@Z:PROC ; CvPlayer::setStartingPlot
EXTRN	__imp__OutputDebugStringA@4:PROC
;	COMDAT ??_C@_0BD@FPKADGCN@Map?5Load?5Success?$CB?6?$AA@
; File d:\sources\lekmod_git\checkout\lekmod_dll\fireplace\include\fireworks\ffastvector.h
CONST	SEGMENT
??_C@_0BD@FPKADGCN@Map?5Load?5Success?$CB?6?$AA@ DB 'Map Load Success!', 0aH
	DB	00H						; `string'
CONST	ENDS
;	COMDAT ??_C@_0BN@JLCKEMAB@Adding?5Scenario?5Elements?4?4?4?6?$AA@
CONST	SEGMENT
??_C@_0BN@JLCKEMAB@Adding?5Scenario?5Elements?4?4?4?6?$AA@ DB 'Adding Sce'
	DB	'nario Elements...', 0aH, 00H		; `string'
CONST	ENDS
;	COMDAT ??_C@_0BG@NBCEOEJG@Calculating?5Areas?4?4?4?6?$AA@
CONST	SEGMENT
??_C@_0BG@NBCEOEJG@Calculating?5Areas?4?4?4?6?$AA@ DB 'Calculating Areas.'
	DB	'..', 0aH, 00H				; `string'
CONST	ENDS
;	COMDAT ??_C@_0BD@LPGKJLCN@Setting?5up?5map?4?4?4?6?$AA@
CONST	SEGMENT
??_C@_0BD@LPGKJLCN@Setting?5up?5map?4?4?4?6?$AA@ DB 'Setting up map...', 0aH
	DB	00H						; `string'
CONST	ENDS
;	COMDAT ??_C@_0BH@KKCBKBMH@Setting?5up?5players?4?4?4?6?$AA@
CONST	SEGMENT
??_C@_0BH@KKCBKBMH@Setting?5up?5players?4?4?4?6?$AA@ DB 'Setting up playe'
	DB	'rs...', 0aH, 00H				; `string'
CONST	ENDS
;	COMDAT xdata$x
xdata$x	SEGMENT
__unwindtable$?InitMap@CvWorldBuilderMapLoader@@SA_NXZ DD 0ffffffffH
	DD	FLAT:__unwindfunclet$?InitMap@CvWorldBuilderMapLoader@@SA_NXZ$0
	DD	00H
	DD	FLAT:__unwindfunclet$?InitMap@CvWorldBuilderMapLoader@@SA_NXZ$1
__ehfuncinfo$?InitMap@CvWorldBuilderMapLoader@@SA_NXZ DD 019930522H
	DD	02H
	DD	FLAT:__unwindtable$?InitMap@CvWorldBuilderMapLoader@@SA_NXZ
	DD	2 DUP(00H)
	DD	2 DUP(00H)
	DD	00H
	DD	01H
; Function compile flags: /Odtp
; File d:\sources\lekmod_git\checkout\lekmod_dll\cvgamecoredll_expansion2\cvworldbuildermaploader.cpp
xdata$x	ENDS
;	COMDAT ?InitMap@CvWorldBuilderMapLoader@@SA_NXZ
_TEXT	SEGMENT
tv1146 = -736						; size = 4
tv1095 = -732						; size = 4
tv897 = -728						; size = 4
tv752 = -724						; size = 4
tv757 = -720						; size = 4
tv704 = -716						; size = 4
tv709 = -712						; size = 4
tv718 = -708						; size = 4
tv669 = -704						; size = 4
$T229947 = -676						; size = 4
$T229925 = -669						; size = 1
$T229924 = -668						; size = 4
_byMask$229931 = -661					; size = 1
_uiByte$229929 = -660					; size = 4
_uiBit$229930 = -656					; size = 4
_uiMapSize$229935 = -652				; size = 4
$T229914 = -646						; size = 2
$T229908 = -644						; size = 2
$T229902 = -642						; size = 2
$T229896 = -640						; size = 4
$T229889 = -636						; size = 4
$T229871 = -632						; size = 4
$T229856 = -625						; size = 1
_uiSmall$229842 = -624					; size = 4
_uiStart$229845 = -620					; size = 4
_uiLarge$229841 = -616					; size = 4
_uiBitIndex$229852 = -612				; size = 4
_byMask$229855 = -605					; size = 1
_uiByte$229853 = -604					; size = 4
_uiBit$229854 = -600					; size = 4
$T229824 = -593						; size = 1
_uiSmall$229810 = -592					; size = 4
_uiStart$229813 = -588					; size = 4
_uiLarge$229809 = -584					; size = 4
_uiBitIndex$229820 = -580				; size = 4
_byMask$229823 = -573					; size = 1
_uiByte$229821 = -572					; size = 4
_uiBit$229822 = -568					; size = 4
$T229792 = -561						; size = 1
_uiSmall$229778 = -560					; size = 4
_uiStart$229781 = -556					; size = 4
_uiLarge$229777 = -552					; size = 4
_uiBitIndex$229788 = -548				; size = 4
_byMask$229791 = -541					; size = 1
_uiByte$229789 = -540					; size = 4
_uiBit$229790 = -536					; size = 4
$T229760 = -529						; size = 1
_uiSmall$229746 = -528					; size = 4
_uiStart$229749 = -524					; size = 4
_uiLarge$229745 = -520					; size = 4
_uiBitIndex$229756 = -516				; size = 4
_byMask$229759 = -509					; size = 1
_uiByte$229757 = -508					; size = 4
_uiBit$229758 = -504					; size = 4
$T229728 = -497						; size = 1
_uiSmall$229714 = -496					; size = 4
_uiStart$229717 = -492					; size = 4
_uiLarge$229713 = -488					; size = 4
_uiBitIndex$229724 = -484				; size = 4
_byMask$229727 = -477					; size = 1
_uiByte$229725 = -476					; size = 4
_uiBit$229726 = -472					; size = 4
$T229690 = -468						; size = 4
$T229686 = -464						; size = 4
$T229682 = -460						; size = 4
$T229678 = -453						; size = 1
$T229671 = -452						; size = 4
$T229661 = -448						; size = 4
$T229636 = -442						; size = 1
$T229632 = -441						; size = 1
$T229628 = -440						; size = 1
$T229624 = -439						; size = 1
$T229620 = -438						; size = 1
$T229613 = -437						; size = 1
$T229603 = -436						; size = 4
$T229591 = -432						; size = 4
$T229587 = -428						; size = 4
$T229569 = -413						; size = 1
$T229522 = -396						; size = 4
$T229516 = -389						; size = 1
$T229512 = -388						; size = 4
$T229511 = -384						; size = 4
$T229480 = -380						; size = 4
$T229475 = -376						; size = 4
$T229471 = -369						; size = 1
$T229460 = -368						; size = 4
$T229456 = -361						; size = 1
_iMapY$229510 = -360					; size = 4
_iMapX$229509 = -356					; size = 4
$T229449 = -352						; size = 4
$T229445 = -348						; size = 4
$T229430 = -344						; size = 4
$T229424 = -337						; size = 1
$T229420 = -336						; size = 4
$T229419 = -332						; size = 4
$T229386 = -328						; size = 4
$T229373 = -324						; size = 4
$T229369 = -320						; size = 4
$T229362 = -316						; size = 4
$T229358 = -309						; size = 1
$T229354 = -308						; size = 4
$T229350 = -301						; size = 1
_iMapY$229405 = -300					; size = 4
_iMapX$229404 = -296					; size = 4
$T229343 = -292						; size = 4
$T229339 = -288						; size = 4
$T229325 = -284						; size = 4
$T229318 = -278						; size = 1
$T229309 = -277						; size = 1
$T229308 = -276						; size = 4
$T229307 = -272						; size = 4
$T229306 = -266						; size = 1
$T229305 = -265						; size = 1
$T229304 = -264						; size = 1
$T229303 = -263						; size = 1
$T229302 = -262						; size = 1
$T229301 = -261						; size = 1
_pkCity$224596 = -260					; size = 4
_iCityID$224595 = -256					; size = 4
_eOwner$224593 = -252					; size = 4
_kPlotData$224590 = -248				; size = 4
_pkPlot$224591 = -244					; size = 4
_i$224586 = -240					; size = 4
_uiTeam$224580 = -236					; size = 4
_pkUnit$224576 = -232					; size = 4
_pkRouteInfo$224571 = -228				; size = 4
_pkTreasury$224570 = -224				; size = 4
_eOwner$224568 = -220					; size = 4
_eRoute$224565 = -216					; size = 4
_iPlotY$224558 = -212					; size = 4
_byNaturalWonder$224559 = -205				; size = 1
_kPlotData$224554 = -204				; size = 4
_iPlotX$224557 = -200					; size = 4
_pkCity$224574 = -196					; size = 4
_pkPlot$224555 = -192					; size = 4
_i$224550 = -188					; size = 4
_eMajorCivPlayer$224547 = -184				; size = 4
_uiMajorCiv$224543 = -180				; size = 4
_kCityState$224540 = -176				; size = 4
_pkAI$224541 = -172					; size = 4
_eCityStatePlayer$224537 = -168				; size = 4
_uiCityState$224533 = -164				; size = 4
_eTeam2$224524 = -160					; size = 4
_kTeam1$224526 = -156					; size = 4
_eTeam1$224522 = -152					; size = 4
_kTeam2$224527 = -148					; size = 4
_uiTeam2$224518 = -144					; size = 4
_uiTeam1$224514 = -140					; size = 4
_iResourceAmount$224493 = -136				; size = 4
_ePlotHeight$224488 = -132				; size = 4
_kPlotData$224484 = -128				; size = 4
_pkPlot$224485 = -124					; size = 4
_i$224480 = -120					; size = 4
_ePlayer$224469 = -116					; size = 4
_kPlayer$224470 = -112					; size = 4
_i$224465 = -108					; size = 4
_pkStartingPlot$224296 = -104				; size = 4
_ePlayer$224291 = -100					; size = 4
_kSavedPlayer$224294 = -96				; size = 4
_kGameplayPlayer$224293 = -92				; size = 4
_i$224287 = -88						; size = 4
_pkStartingPlot$224282 = -84				; size = 4
_ePlayer$224277 = -80					; size = 4
_kSavedPlayer$224280 = -76				; size = 4
_kGameplayPlayer$224279 = -72				; size = 4
_i$224273 = -68						; size = 4
_kMap$ = -64						; size = 4
_uiMinorCivsPlaced$ = -60				; size = 4
_uiCityStateCount$ = -56				; size = 4
_uiPlotCount$ = -52					; size = 4
_kMinorCivs$ = -48					; size = 12
_uiMajorCivsPlaced$ = -36				; size = 4
_uiTeamCount$ = -32					; size = 4
_uiPlayerCount$ = -28					; size = 4
_kMajorCivs$ = -24					; size = 12
__$EHRec$ = -12						; size = 12
?InitMap@CvWorldBuilderMapLoader@@SA_NXZ PROC		; CvWorldBuilderMapLoader::InitMap, COMDAT

; 1054 : {

	push	ebp
	mov	ebp, esp
	push	-1
	push	__ehhandler$?InitMap@CvWorldBuilderMapLoader@@SA_NXZ
	mov	eax, DWORD PTR fs:0
	push	eax
	sub	esp, 724				; 000002d4H
	mov	eax, DWORD PTR ___security_cookie
	xor	eax, ebp
	push	eax
	lea	eax, DWORD PTR __$EHRec$[ebp]
	mov	DWORD PTR fs:0, eax

; 1055 : 	CvMap& kMap = GC.getMap();

	mov	eax, DWORD PTR ?gGlobals@@3VCvGlobals@@A+52
	mov	DWORD PTR _kMap$[ebp], eax

; 1056 : 
; 1057 : 	FAssertMsg(
; 1058 : 	    sg_kSave.GetWidth() == kMap.getGridWidth() &&
; 1059 : 	    sg_kSave.GetHeight() == kMap.getGridHeight(),
; 1060 : 	    "Save wrong size");
; 1061 : 
; 1062 : 	OutputDebugStringA("Setting up players...\n");

	push	OFFSET ??_C@_0BH@KKCBKBMH@Setting?5up?5players?4?4?4?6?$AA@
	call	DWORD PTR __imp__OutputDebugStringA@4

; 1063 : 
; 1064 : #ifdef AUI_WARNING_FIXES
; 1065 : 	const byte uiPlayerCount = MIN(sg_kSave.GetPlayerCount(), (byte)MAX_CIV_PLAYERS);
; 1066 : 	for (byte i = 0; i < uiPlayerCount; ++i)
; 1067 : #else
; 1068 : 	const uint uiPlayerCount = std::min(sg_kSave.GetPlayerCount(), (byte)MAX_CIV_PLAYERS);

	mov	BYTE PTR $T229301[ebp], 63		; 0000003fH
	mov	cl, BYTE PTR _sg_kSave+12316
	mov	BYTE PTR $T229318[ebp], cl
	mov	dl, BYTE PTR $T229318[ebp]
	mov	BYTE PTR $T229302[ebp], dl
	movzx	eax, BYTE PTR $T229301[ebp]
	movzx	ecx, BYTE PTR $T229302[ebp]
	cmp	eax, ecx
	jge	SHORT $LN95@InitMap
	lea	edx, DWORD PTR $T229301[ebp]
	mov	DWORD PTR tv669[ebp], edx
	jmp	SHORT $LN96@InitMap
$LN95@InitMap:
	lea	eax, DWORD PTR $T229302[ebp]
	mov	DWORD PTR tv669[ebp], eax
$LN96@InitMap:
	mov	ecx, DWORD PTR tv669[ebp]
	mov	DWORD PTR $T229325[ebp], ecx
	mov	edx, DWORD PTR $T229325[ebp]
	movzx	eax, BYTE PTR [edx]
	mov	DWORD PTR _uiPlayerCount$[ebp], eax

; 1069 : 	for(uint i = 0; i < uiPlayerCount; ++i)

	mov	DWORD PTR _i$224273[ebp], 0
	jmp	SHORT $LN84@InitMap
$LN83@InitMap:
	mov	ecx, DWORD PTR _i$224273[ebp]
	add	ecx, 1
	mov	DWORD PTR _i$224273[ebp], ecx
$LN84@InitMap:
	mov	edx, DWORD PTR _i$224273[ebp]
	cmp	edx, DWORD PTR _uiPlayerCount$[ebp]
	jae	$LN82@InitMap

; 1070 : #endif
; 1071 : 	{
; 1072 : 		const PlayerTypes ePlayer = (PlayerTypes)i;

	mov	eax, DWORD PTR _i$224273[ebp]
	mov	DWORD PTR _ePlayer$224277[ebp], eax

; 1073 : 		CvPlayer& kGameplayPlayer = GET_PLAYER(ePlayer);

	mov	ecx, DWORD PTR _ePlayer$224277[ebp]
	imul	ecx, 63236				; 0000f704H
	add	ecx, DWORD PTR ?m_aPlayers@CvPlayerAI@@1PAV1@A ; CvPlayerAI::m_aPlayers
	mov	DWORD PTR _kGameplayPlayer$224279[ebp], ecx

; 1074 : 		const CvWorldBuilderMap::Player& kSavedPlayer = sg_kSave.GetPlayer(i);

	movzx	edx, BYTE PTR _i$224273[ebp]
	movzx	eax, BYTE PTR _sg_kSave+12316
	cmp	edx, eax
	jge	SHORT $LN100@InitMap
	movzx	ecx, BYTE PTR _i$224273[ebp]
	cmp	ecx, 32					; 00000020H
	jae	SHORT $LN100@InitMap
	movzx	edx, BYTE PTR _i$224273[ebp]
	imul	edx, 436				; 000001b4H
	add	edx, OFFSET _sg_kSave+536608
	mov	DWORD PTR _kSavedPlayer$224280[ebp], edx
	jmp	SHORT $LN101@InitMap
	jmp	SHORT $LN101@InitMap
$LN100@InitMap:
	mov	DWORD PTR _kSavedPlayer$224280[ebp], OFFSET ?sm_kErrorPlayer@CvWorldBuilderMap@@0UPlayer@1@A ; CvWorldBuilderMap::sm_kErrorPlayer
$LN101@InitMap:

; 1075 : 
; 1076 : 		if(kSavedPlayer.m_uiStartX < sg_kSave.GetWidth() &&
; 1077 : 		        kSavedPlayer.m_uiStartY < sg_kSave.GetHeight())

	mov	eax, DWORD PTR _sg_kSave+12228
	mov	DWORD PTR $T229339[ebp], eax
	mov	ecx, DWORD PTR _kSavedPlayer$224280[ebp]
	mov	edx, DWORD PTR [ecx+424]
	cmp	edx, DWORD PTR $T229339[ebp]
	jae	$LN81@InitMap
	mov	eax, DWORD PTR _sg_kSave+12232
	mov	DWORD PTR $T229343[ebp], eax
	mov	ecx, DWORD PTR _kSavedPlayer$224280[ebp]
	mov	edx, DWORD PTR [ecx+428]
	cmp	edx, DWORD PTR $T229343[ebp]
	jae	$LN81@InitMap

; 1078 : 		{
; 1079 : 			CvPlot* pkStartingPlot = kMap.plot(kSavedPlayer.m_uiStartX, kSavedPlayer.m_uiStartY);

	mov	eax, DWORD PTR _kSavedPlayer$224280[ebp]
	mov	ecx, DWORD PTR [eax+428]
	mov	DWORD PTR $T229420[ebp], ecx
	mov	edx, DWORD PTR _kSavedPlayer$224280[ebp]
	mov	eax, DWORD PTR [edx+424]
	mov	DWORD PTR $T229419[ebp], eax
	cmp	DWORD PTR $T229419[ebp], -2147483647	; 80000001H
	je	SHORT $LN107@InitMap
	cmp	DWORD PTR $T229420[ebp], -2147483647	; 80000001H
	jne	SHORT $LN108@InitMap
$LN107@InitMap:
	mov	DWORD PTR _pkStartingPlot$224282[ebp], 0
	jmp	$LN109@InitMap
$LN108@InitMap:
	mov	ecx, DWORD PTR _kMap$[ebp]
	mov	dl, BYTE PTR [ecx+4056]
	mov	BYTE PTR $T229350[ebp], dl
	mov	eax, DWORD PTR _kMap$[ebp]
	mov	ecx, DWORD PTR [eax+4020]
	mov	DWORD PTR $T229354[ebp], ecx
	movzx	edx, BYTE PTR $T229350[ebp]
	push	edx
	mov	eax, DWORD PTR $T229354[ebp]
	push	eax
	mov	ecx, DWORD PTR $T229419[ebp]
	push	ecx
	call	?coordRange@@YAHHH_N@Z			; coordRange
	add	esp, 12					; 0000000cH
	mov	DWORD PTR _iMapX$229404[ebp], eax
	mov	edx, DWORD PTR _kMap$[ebp]
	mov	al, BYTE PTR [edx+4057]
	mov	BYTE PTR $T229358[ebp], al
	mov	ecx, DWORD PTR _kMap$[ebp]
	mov	edx, DWORD PTR [ecx+4024]
	mov	DWORD PTR $T229362[ebp], edx
	movzx	eax, BYTE PTR $T229358[ebp]
	push	eax
	mov	ecx, DWORD PTR $T229362[ebp]
	push	ecx
	mov	edx, DWORD PTR $T229420[ebp]
	push	edx
	call	?coordRange@@YAHHH_N@Z			; coordRange
	add	esp, 12					; 0000000cH
	mov	DWORD PTR _iMapY$229405[ebp], eax
	cmp	DWORD PTR _iMapX$229404[ebp], 0
	jl	SHORT $LN123@InitMap
	mov	eax, DWORD PTR _kMap$[ebp]
	mov	ecx, DWORD PTR [eax+4020]
	mov	DWORD PTR $T229369[ebp], ecx
	mov	edx, DWORD PTR _iMapX$229404[ebp]
	cmp	edx, DWORD PTR $T229369[ebp]
	jge	SHORT $LN123@InitMap
	cmp	DWORD PTR _iMapY$229405[ebp], 0
	jl	SHORT $LN123@InitMap
	mov	eax, DWORD PTR _kMap$[ebp]
	mov	ecx, DWORD PTR [eax+4024]
	mov	DWORD PTR $T229373[ebp], ecx
	mov	edx, DWORD PTR _iMapY$229405[ebp]
	cmp	edx, DWORD PTR $T229373[ebp]
	jge	SHORT $LN123@InitMap
	mov	DWORD PTR tv718[ebp], 1
	jmp	SHORT $LN121@InitMap
$LN123@InitMap:
	mov	DWORD PTR tv718[ebp], 0
$LN121@InitMap:
	cmp	DWORD PTR tv718[ebp], 0
	je	SHORT $LN111@InitMap
	mov	eax, DWORD PTR _kMap$[ebp]
	mov	ecx, DWORD PTR [eax+4020]
	mov	DWORD PTR $T229386[ebp], ecx
	mov	edx, DWORD PTR _iMapY$229405[ebp]
	imul	edx, DWORD PTR $T229386[ebp]
	add	edx, DWORD PTR _iMapX$229404[ebp]
	imul	edx, 484				; 000001e4H
	mov	eax, DWORD PTR _kMap$[ebp]
	add	edx, DWORD PTR [eax+4068]
	mov	DWORD PTR tv709[ebp], edx
	jmp	SHORT $LN112@InitMap
$LN111@InitMap:
	mov	DWORD PTR tv709[ebp], 0
$LN112@InitMap:
	mov	ecx, DWORD PTR tv709[ebp]
	mov	DWORD PTR _pkStartingPlot$224282[ebp], ecx
$LN109@InitMap:

; 1080 : 			kGameplayPlayer.setStartingPlot(pkStartingPlot);

	mov	edx, DWORD PTR _pkStartingPlot$224282[ebp]
	push	edx
	mov	ecx, DWORD PTR _kGameplayPlayer$224279[ebp]
	call	?setStartingPlot@CvPlayer@@QAEXPAVCvPlot@@@Z ; CvPlayer::setStartingPlot
$LN81@InitMap:

; 1081 : 		}
; 1082 : 	}

	jmp	$LN83@InitMap
$LN82@InitMap:

; 1083 : 
; 1084 : #ifdef AUI_WARNING_FIXES
; 1085 : 	const byte uiCityStateCount = MIN(sg_kSave.GetCityStateCount(), (byte)MAX_MINOR_CIVS);
; 1086 : 	for (byte i = 0; i < uiCityStateCount; ++i)
; 1087 : #else
; 1088 : 	const uint uiCityStateCount = std::min(sg_kSave.GetCityStateCount(), (byte)MAX_MINOR_CIVS);

	mov	BYTE PTR $T229303[ebp], 41		; 00000029H
	mov	al, BYTE PTR _sg_kSave+12317
	mov	BYTE PTR $T229424[ebp], al
	mov	cl, BYTE PTR $T229424[ebp]
	mov	BYTE PTR $T229304[ebp], cl
	movzx	edx, BYTE PTR $T229303[ebp]
	movzx	eax, BYTE PTR $T229304[ebp]
	cmp	edx, eax
	jge	SHORT $LN137@InitMap
	lea	ecx, DWORD PTR $T229303[ebp]
	mov	DWORD PTR tv704[ebp], ecx
	jmp	SHORT $LN138@InitMap
$LN137@InitMap:
	lea	edx, DWORD PTR $T229304[ebp]
	mov	DWORD PTR tv704[ebp], edx
$LN138@InitMap:
	mov	eax, DWORD PTR tv704[ebp]
	mov	DWORD PTR $T229430[ebp], eax
	mov	ecx, DWORD PTR $T229430[ebp]
	movzx	edx, BYTE PTR [ecx]
	mov	DWORD PTR _uiCityStateCount$[ebp], edx

; 1089 : 	for(uint i = 0; i < uiCityStateCount; ++i)

	mov	DWORD PTR _i$224287[ebp], 0
	jmp	SHORT $LN80@InitMap
$LN79@InitMap:
	mov	eax, DWORD PTR _i$224287[ebp]
	add	eax, 1
	mov	DWORD PTR _i$224287[ebp], eax
$LN80@InitMap:
	mov	ecx, DWORD PTR _i$224287[ebp]
	cmp	ecx, DWORD PTR _uiCityStateCount$[ebp]
	jae	$LN78@InitMap

; 1090 : #endif
; 1091 : 	{
; 1092 : 		const PlayerTypes ePlayer = (PlayerTypes)(i + MAX_MAJOR_CIVS);

	mov	edx, DWORD PTR _i$224287[ebp]
	add	edx, 22					; 00000016H
	mov	DWORD PTR _ePlayer$224291[ebp], edx

; 1093 : 		CvPlayer& kGameplayPlayer = GET_PLAYER(ePlayer);

	mov	eax, DWORD PTR _ePlayer$224291[ebp]
	imul	eax, 63236				; 0000f704H
	add	eax, DWORD PTR ?m_aPlayers@CvPlayerAI@@1PAV1@A ; CvPlayerAI::m_aPlayers
	mov	DWORD PTR _kGameplayPlayer$224293[ebp], eax

; 1094 : 		const CvWorldBuilderMap::Player& kSavedPlayer = sg_kSave.GetCityState(i);

	movzx	ecx, BYTE PTR _i$224287[ebp]
	movzx	edx, BYTE PTR _sg_kSave+12317
	cmp	ecx, edx
	jge	SHORT $LN142@InitMap
	movzx	eax, BYTE PTR _i$224287[ebp]
	cmp	eax, 64					; 00000040H
	jae	SHORT $LN142@InitMap
	movzx	ecx, BYTE PTR _i$224287[ebp]
	imul	ecx, 436				; 000001b4H
	add	ecx, OFFSET _sg_kSave+550560
	mov	DWORD PTR _kSavedPlayer$224294[ebp], ecx
	jmp	SHORT $LN143@InitMap
	jmp	SHORT $LN143@InitMap
$LN142@InitMap:
	mov	DWORD PTR _kSavedPlayer$224294[ebp], OFFSET ?sm_kErrorPlayer@CvWorldBuilderMap@@0UPlayer@1@A ; CvWorldBuilderMap::sm_kErrorPlayer
$LN143@InitMap:

; 1095 : 
; 1096 : 		if(kSavedPlayer.m_uiStartX < sg_kSave.GetWidth() &&
; 1097 : 		        kSavedPlayer.m_uiStartY < sg_kSave.GetHeight())

	mov	edx, DWORD PTR _sg_kSave+12228
	mov	DWORD PTR $T229445[ebp], edx
	mov	eax, DWORD PTR _kSavedPlayer$224294[ebp]
	mov	ecx, DWORD PTR [eax+424]
	cmp	ecx, DWORD PTR $T229445[ebp]
	jae	$LN77@InitMap
	mov	edx, DWORD PTR _sg_kSave+12232
	mov	DWORD PTR $T229449[ebp], edx
	mov	eax, DWORD PTR _kSavedPlayer$224294[ebp]
	mov	ecx, DWORD PTR [eax+428]
	cmp	ecx, DWORD PTR $T229449[ebp]
	jae	$LN77@InitMap

; 1098 : 		{
; 1099 : 			CvPlot* pkStartingPlot = kMap.plot(kSavedPlayer.m_uiStartX, kSavedPlayer.m_uiStartY);

	mov	edx, DWORD PTR _kSavedPlayer$224294[ebp]
	mov	eax, DWORD PTR [edx+428]
	mov	DWORD PTR $T229512[ebp], eax
	mov	ecx, DWORD PTR _kSavedPlayer$224294[ebp]
	mov	edx, DWORD PTR [ecx+424]
	mov	DWORD PTR $T229511[ebp], edx
	cmp	DWORD PTR $T229511[ebp], -2147483647	; 80000001H
	je	SHORT $LN149@InitMap
	cmp	DWORD PTR $T229512[ebp], -2147483647	; 80000001H
	jne	SHORT $LN150@InitMap
$LN149@InitMap:
	mov	DWORD PTR _pkStartingPlot$224296[ebp], 0
	jmp	$LN151@InitMap
$LN150@InitMap:
	mov	eax, DWORD PTR _kMap$[ebp]
	mov	cl, BYTE PTR [eax+4056]
	mov	BYTE PTR $T229456[ebp], cl
	mov	edx, DWORD PTR _kMap$[ebp]
	mov	eax, DWORD PTR [edx+4020]
	mov	DWORD PTR $T229460[ebp], eax
	movzx	ecx, BYTE PTR $T229456[ebp]
	test	ecx, ecx
	je	SHORT $LN162@InitMap
	cmp	DWORD PTR $T229511[ebp], 0
	jge	SHORT $LN161@InitMap
	mov	eax, DWORD PTR $T229511[ebp]
	cdq
	idiv	DWORD PTR $T229460[ebp]
	add	edx, DWORD PTR $T229460[ebp]
	mov	DWORD PTR _iMapX$229509[ebp], edx
	jmp	SHORT $LN163@InitMap
	jmp	SHORT $LN162@InitMap
$LN161@InitMap:
	mov	edx, DWORD PTR $T229511[ebp]
	cmp	edx, DWORD PTR $T229460[ebp]
	jl	SHORT $LN162@InitMap
	mov	eax, DWORD PTR $T229511[ebp]
	cdq
	idiv	DWORD PTR $T229460[ebp]
	mov	DWORD PTR _iMapX$229509[ebp], edx
	jmp	SHORT $LN163@InitMap
$LN162@InitMap:
	mov	eax, DWORD PTR $T229511[ebp]
	mov	DWORD PTR _iMapX$229509[ebp], eax
$LN163@InitMap:
	mov	ecx, DWORD PTR _kMap$[ebp]
	mov	dl, BYTE PTR [ecx+4057]
	mov	BYTE PTR $T229471[ebp], dl
	mov	eax, DWORD PTR _kMap$[ebp]
	mov	ecx, DWORD PTR [eax+4024]
	mov	DWORD PTR $T229475[ebp], ecx
	movzx	edx, BYTE PTR $T229471[ebp]
	push	edx
	mov	eax, DWORD PTR $T229475[ebp]
	push	eax
	mov	ecx, DWORD PTR $T229512[ebp]
	push	ecx
	call	?coordRange@@YAHHH_N@Z			; coordRange
	add	esp, 12					; 0000000cH
	mov	DWORD PTR _iMapY$229510[ebp], eax
	mov	edx, DWORD PTR _iMapY$229510[ebp]
	push	edx
	mov	eax, DWORD PTR _iMapX$229509[ebp]
	push	eax
	mov	ecx, DWORD PTR _kMap$[ebp]
	call	?isPlot@CvMap@@QBEHHH@Z			; CvMap::isPlot
	test	eax, eax
	je	SHORT $LN153@InitMap
	mov	ecx, DWORD PTR _kMap$[ebp]
	mov	edx, DWORD PTR [ecx+4020]
	mov	DWORD PTR $T229480[ebp], edx
	mov	eax, DWORD PTR _iMapY$229510[ebp]
	imul	eax, DWORD PTR $T229480[ebp]
	add	eax, DWORD PTR _iMapX$229509[ebp]
	imul	eax, 484				; 000001e4H
	mov	ecx, DWORD PTR _kMap$[ebp]
	add	eax, DWORD PTR [ecx+4068]
	mov	DWORD PTR tv757[ebp], eax
	jmp	SHORT $LN154@InitMap
$LN153@InitMap:
	mov	DWORD PTR tv757[ebp], 0
