; Listing generated by Microsoft (R) Optimizing Compiler Version 15.00.30729.01 

	TITLE	c:\Users\EnormousApplePie\Documents\GitHub\Lekmod\LEKMOD_DLL\CvGameCoreDLL_Expansion2\_precompile.cpp
	.686P
	.XMM
	include listing.inc
	.model	flat

INCLUDELIB MSVCRT
INCLUDELIB OLDNAMES

PUBLIC	?_Value@?$_Is_swap_move@U_Swap_move_tag@std@@@std@@2_NB ; std::_Is_swap_move<std::_Swap_move_tag>::_Value
PUBLIC	?value@?$integral_constant@_N$0A@@tr1@std@@2_NB	; std::tr1::integral_constant<bool,0>::value
PUBLIC	?value@?$integral_constant@_N$00@tr1@std@@2_NB	; std::tr1::integral_constant<bool,1>::value
PUBLIC	?collate@?$_Locbase@H@std@@2HB			; std::_Locbase<int>::collate
PUBLIC	?ctype@?$_Locbase@H@std@@2HB			; std::_Locbase<int>::ctype
PUBLIC	?monetary@?$_Locbase@H@std@@2HB			; std::_Locbase<int>::monetary
PUBLIC	?numeric@?$_Locbase@H@std@@2HB			; std::_Locbase<int>::numeric
PUBLIC	?time@?$_Locbase@H@std@@2HB			; std::_Locbase<int>::time
PUBLIC	?messages@?$_Locbase@H@std@@2HB			; std::_Locbase<int>::messages
PUBLIC	?all@?$_Locbase@H@std@@2HB			; std::_Locbase<int>::all
PUBLIC	?none@?$_Locbase@H@std@@2HB			; std::_Locbase<int>::none
PUBLIC	?skipws@?$_Iosb@H@std@@2W4_Fmtflags@12@B	; std::_Iosb<int>::skipws
PUBLIC	?unitbuf@?$_Iosb@H@std@@2W4_Fmtflags@12@B	; std::_Iosb<int>::unitbuf
PUBLIC	?uppercase@?$_Iosb@H@std@@2W4_Fmtflags@12@B	; std::_Iosb<int>::uppercase
PUBLIC	?showbase@?$_Iosb@H@std@@2W4_Fmtflags@12@B	; std::_Iosb<int>::showbase
PUBLIC	?showpoint@?$_Iosb@H@std@@2W4_Fmtflags@12@B	; std::_Iosb<int>::showpoint
PUBLIC	?showpos@?$_Iosb@H@std@@2W4_Fmtflags@12@B	; std::_Iosb<int>::showpos
PUBLIC	?left@?$_Iosb@H@std@@2W4_Fmtflags@12@B		; std::_Iosb<int>::left
PUBLIC	?right@?$_Iosb@H@std@@2W4_Fmtflags@12@B		; std::_Iosb<int>::right
PUBLIC	?internal@?$_Iosb@H@std@@2W4_Fmtflags@12@B	; std::_Iosb<int>::internal
PUBLIC	?dec@?$_Iosb@H@std@@2W4_Fmtflags@12@B		; std::_Iosb<int>::dec
PUBLIC	?oct@?$_Iosb@H@std@@2W4_Fmtflags@12@B		; std::_Iosb<int>::oct
PUBLIC	?hex@?$_Iosb@H@std@@2W4_Fmtflags@12@B		; std::_Iosb<int>::hex
PUBLIC	?scientific@?$_Iosb@H@std@@2W4_Fmtflags@12@B	; std::_Iosb<int>::scientific
PUBLIC	?fixed@?$_Iosb@H@std@@2W4_Fmtflags@12@B		; std::_Iosb<int>::fixed
PUBLIC	?hexfloat@?$_Iosb@H@std@@2W4_Fmtflags@12@B	; std::_Iosb<int>::hexfloat
PUBLIC	?boolalpha@?$_Iosb@H@std@@2W4_Fmtflags@12@B	; std::_Iosb<int>::boolalpha
PUBLIC	?_Stdio@?$_Iosb@H@std@@2W4_Fmtflags@12@B	; std::_Iosb<int>::_Stdio
PUBLIC	?adjustfield@?$_Iosb@H@std@@2W4_Fmtflags@12@B	; std::_Iosb<int>::adjustfield
PUBLIC	?basefield@?$_Iosb@H@std@@2W4_Fmtflags@12@B	; std::_Iosb<int>::basefield
PUBLIC	?floatfield@?$_Iosb@H@std@@2W4_Fmtflags@12@B	; std::_Iosb<int>::floatfield
PUBLIC	?goodbit@?$_Iosb@H@std@@2W4_Iostate@12@B	; std::_Iosb<int>::goodbit
PUBLIC	?eofbit@?$_Iosb@H@std@@2W4_Iostate@12@B		; std::_Iosb<int>::eofbit
PUBLIC	?failbit@?$_Iosb@H@std@@2W4_Iostate@12@B	; std::_Iosb<int>::failbit
PUBLIC	?badbit@?$_Iosb@H@std@@2W4_Iostate@12@B		; std::_Iosb<int>::badbit
PUBLIC	?_Hardfail@?$_Iosb@H@std@@2W4_Iostate@12@B	; std::_Iosb<int>::_Hardfail
PUBLIC	?in@?$_Iosb@H@std@@2W4_Openmode@12@B		; std::_Iosb<int>::in
PUBLIC	?out@?$_Iosb@H@std@@2W4_Openmode@12@B		; std::_Iosb<int>::out
PUBLIC	?ate@?$_Iosb@H@std@@2W4_Openmode@12@B		; std::_Iosb<int>::ate
PUBLIC	?app@?$_Iosb@H@std@@2W4_Openmode@12@B		; std::_Iosb<int>::app
PUBLIC	?trunc@?$_Iosb@H@std@@2W4_Openmode@12@B		; std::_Iosb<int>::trunc
PUBLIC	?_Nocreate@?$_Iosb@H@std@@2W4_Openmode@12@B	; std::_Iosb<int>::_Nocreate
PUBLIC	?_Noreplace@?$_Iosb@H@std@@2W4_Openmode@12@B	; std::_Iosb<int>::_Noreplace
PUBLIC	?binary@?$_Iosb@H@std@@2W4_Openmode@12@B	; std::_Iosb<int>::binary
PUBLIC	?beg@?$_Iosb@H@std@@2W4_Seekdir@12@B		; std::_Iosb<int>::beg
PUBLIC	?cur@?$_Iosb@H@std@@2W4_Seekdir@12@B		; std::_Iosb<int>::cur
PUBLIC	?end@?$_Iosb@H@std@@2W4_Seekdir@12@B		; std::_Iosb<int>::end
PUBLIC	?sm_uiMaxDataEntries@GlobalData@FLua@@2IB	; FLua::GlobalData::sm_uiMaxDataEntries
PUBLIC	?sm_uiMaxFunctions@StaticFunctions@FLua@@2IB	; FLua::StaticFunctions::sm_uiMaxFunctions
PUBLIC	?sm_uiUnrestrictedExposure@StaticFunctions@FLua@@2IB ; FLua::StaticFunctions::sm_uiUnrestrictedExposure
PUBLIC	?sm_uiMaxTypeExposures@TypeExposures@FLua@@2IB	; FLua::TypeExposures::sm_uiMaxTypeExposures
PUBLIC	?sm_uiUnrestrictedExposure@TypeExposures@FLua@@2IB ; FLua::TypeExposures::sm_uiUnrestrictedExposure
PUBLIC	?_VBITS@?$vector@_NV?$allocator@_N@std@@@std@@2HB ; std::vector<bool,std::allocator<bool> >::_VBITS
PUBLIC	?ms_uiAnchorNodeIndex@?$FFastAllocator@U?$MultiListNodePolicy@UCvTradedItem@@@@$0A@$0BF@$0A@UFDefaultFastVectorAllocator@?$BaseVector@U?$MultiListNodePolicy@UCvTradedItem@@@@$0A@@@@@0IB ; FFastAllocator<MultiListNodePolicy<CvTradedItem>,0,21,0,BaseVector<MultiListNodePolicy<CvTradedItem>,0>::FDefaultFastVectorAllocator>::ms_uiAnchorNodeIndex
PUBLIC	?ms_uiAnchorNodeIndex@?$FFastAllocator@U?$MultiListNodePolicy@PAVCvFlavorRecipient@@@@$0A@$0BCJ@$0A@UFDefaultFastVectorAllocator@?$BaseVector@U?$MultiListNodePolicy@PAVCvFlavorRecipient@@@@$0A@@@@@0IB ; FFastAllocator<MultiListNodePolicy<CvFlavorRecipient *>,0,297,0,BaseVector<MultiListNodePolicy<CvFlavorRecipient *>,0>::FDefaultFastVectorAllocator>::ms_uiAnchorNodeIndex
PUBLIC	?_Value@?$_Is_swap_move@U_Undefined_move_tag@std@@@std@@2_NB ; std::_Is_swap_move<std::_Undefined_move_tag>::_Value
;	COMDAT ?_Value@?$_Is_swap_move@U_Undefined_move_tag@std@@@std@@2_NB
CONST	SEGMENT
?_Value@?$_Is_swap_move@U_Undefined_move_tag@std@@@std@@2_NB DB 00H ; std::_Is_swap_move<std::_Undefined_move_tag>::_Value
CONST	ENDS
;	COMDAT ?ms_uiAnchorNodeIndex@?$FFastAllocator@U?$MultiListNodePolicy@PAVCvFlavorRecipient@@@@$0A@$0BCJ@$0A@UFDefaultFastVectorAllocator@?$BaseVector@U?$MultiListNodePolicy@PAVCvFlavorRecipient@@@@$0A@@@@@0IB
CONST	SEGMENT
?ms_uiAnchorNodeIndex@?$FFastAllocator@U?$MultiListNodePolicy@PAVCvFlavorRecipient@@@@$0A@$0BCJ@$0A@UFDefaultFastVectorAllocator@?$BaseVector@U?$MultiListNodePolicy@PAVCvFlavorRecipient@@@@$0A@@@@@0IB DD 0fffffffH ; FFastAllocator<MultiListNodePolicy<CvFlavorRecipient *>,0,297,0,BaseVector<MultiListNodePolicy<CvFlavorRecipient *>,0>::FDefaultFastVectorAllocator>::ms_uiAnchorNodeIndex
CONST	ENDS
;	COMDAT ?ms_uiAnchorNodeIndex@?$FFastAllocator@U?$MultiListNodePolicy@UCvTradedItem@@@@$0A@$0BF@$0A@UFDefaultFastVectorAllocator@?$BaseVector@U?$MultiListNodePolicy@UCvTradedItem@@@@$0A@@@@@0IB
CONST	SEGMENT
?ms_uiAnchorNodeIndex@?$FFastAllocator@U?$MultiListNodePolicy@UCvTradedItem@@@@$0A@$0BF@$0A@UFDefaultFastVectorAllocator@?$BaseVector@U?$MultiListNodePolicy@UCvTradedItem@@@@$0A@@@@@0IB DD 0fffffffH ; FFastAllocator<MultiListNodePolicy<CvTradedItem>,0,21,0,BaseVector<MultiListNodePolicy<CvTradedItem>,0>::FDefaultFastVectorAllocator>::ms_uiAnchorNodeIndex
CONST	ENDS
;	COMDAT ?_VBITS@?$vector@_NV?$allocator@_N@std@@@std@@2HB
CONST	SEGMENT
?_VBITS@?$vector@_NV?$allocator@_N@std@@@std@@2HB DD 020H ; std::vector<bool,std::allocator<bool> >::_VBITS
CONST	ENDS
;	COMDAT ?sm_uiUnrestrictedExposure@TypeExposures@FLua@@2IB
CONST	SEGMENT
?sm_uiUnrestrictedExposure@TypeExposures@FLua@@2IB DD 0ffffffffH ; FLua::TypeExposures::sm_uiUnrestrictedExposure
CONST	ENDS
;	COMDAT ?sm_uiMaxTypeExposures@TypeExposures@FLua@@2IB
CONST	SEGMENT
?sm_uiMaxTypeExposures@TypeExposures@FLua@@2IB DD 0400H	; FLua::TypeExposures::sm_uiMaxTypeExposures
CONST	ENDS
;	COMDAT ?sm_uiUnrestrictedExposure@StaticFunctions@FLua@@2IB
CONST	SEGMENT
?sm_uiUnrestrictedExposure@StaticFunctions@FLua@@2IB DD 0ffffffffH ; FLua::StaticFunctions::sm_uiUnrestrictedExposure
CONST	ENDS
;	COMDAT ?sm_uiMaxFunctions@StaticFunctions@FLua@@2IB
CONST	SEGMENT
?sm_uiMaxFunctions@StaticFunctions@FLua@@2IB DD 0400H	; FLua::StaticFunctions::sm_uiMaxFunctions
CONST	ENDS
;	COMDAT ?sm_uiMaxDataEntries@GlobalData@FLua@@2IB
CONST	SEGMENT
?sm_uiMaxDataEntries@GlobalData@FLua@@2IB DD 010H	; FLua::GlobalData::sm_uiMaxDataEntries
CONST	ENDS
;	COMDAT ?end@?$_Iosb@H@std@@2W4_Seekdir@12@B
CONST	SEGMENT
?end@?$_Iosb@H@std@@2W4_Seekdir@12@B DD 02H		; std::_Iosb<int>::end
CONST	ENDS
;	COMDAT ?cur@?$_Iosb@H@std@@2W4_Seekdir@12@B
CONST	SEGMENT
?cur@?$_Iosb@H@std@@2W4_Seekdir@12@B DD 01H		; std::_Iosb<int>::cur
CONST	ENDS
;	COMDAT ?beg@?$_Iosb@H@std@@2W4_Seekdir@12@B
CONST	SEGMENT
?beg@?$_Iosb@H@std@@2W4_Seekdir@12@B DD 00H		; std::_Iosb<int>::beg
CONST	ENDS
;	COMDAT ?binary@?$_Iosb@H@std@@2W4_Openmode@12@B
CONST	SEGMENT
?binary@?$_Iosb@H@std@@2W4_Openmode@12@B DD 020H	; std::_Iosb<int>::binary
CONST	ENDS
;	COMDAT ?_Noreplace@?$_Iosb@H@std@@2W4_Openmode@12@B
CONST	SEGMENT
?_Noreplace@?$_Iosb@H@std@@2W4_Openmode@12@B DD 080H	; std::_Iosb<int>::_Noreplace
CONST	ENDS
;	COMDAT ?_Nocreate@?$_Iosb@H@std@@2W4_Openmode@12@B
CONST	SEGMENT
?_Nocreate@?$_Iosb@H@std@@2W4_Openmode@12@B DD 040H	; std::_Iosb<int>::_Nocreate
CONST	ENDS
;	COMDAT ?trunc@?$_Iosb@H@std@@2W4_Openmode@12@B
CONST	SEGMENT
?trunc@?$_Iosb@H@std@@2W4_Openmode@12@B DD 010H		; std::_Iosb<int>::trunc
CONST	ENDS
;	COMDAT ?app@?$_Iosb@H@std@@2W4_Openmode@12@B
CONST	SEGMENT
?app@?$_Iosb@H@std@@2W4_Openmode@12@B DD 08H		; std::_Iosb<int>::app
CONST	ENDS
;	COMDAT ?ate@?$_Iosb@H@std@@2W4_Openmode@12@B
CONST	SEGMENT
?ate@?$_Iosb@H@std@@2W4_Openmode@12@B DD 04H		; std::_Iosb<int>::ate
CONST	ENDS
;	COMDAT ?out@?$_Iosb@H@std@@2W4_Openmode@12@B
CONST	SEGMENT
?out@?$_Iosb@H@std@@2W4_Openmode@12@B DD 02H		; std::_Iosb<int>::out
CONST	ENDS
;	COMDAT ?in@?$_Iosb@H@std@@2W4_Openmode@12@B
CONST	SEGMENT
?in@?$_Iosb@H@std@@2W4_Openmode@12@B DD 01H		; std::_Iosb<int>::in
CONST	ENDS
;	COMDAT ?_Hardfail@?$_Iosb@H@std@@2W4_Iostate@12@B
CONST	SEGMENT
?_Hardfail@?$_Iosb@H@std@@2W4_Iostate@12@B DD 010H	; std::_Iosb<int>::_Hardfail
CONST	ENDS
;	COMDAT ?badbit@?$_Iosb@H@std@@2W4_Iostate@12@B
CONST	SEGMENT
?badbit@?$_Iosb@H@std@@2W4_Iostate@12@B DD 04H		; std::_Iosb<int>::badbit
CONST	ENDS
;	COMDAT ?failbit@?$_Iosb@H@std@@2W4_Iostate@12@B
CONST	SEGMENT
?failbit@?$_Iosb@H@std@@2W4_Iostate@12@B DD 02H		; std::_Iosb<int>::failbit
CONST	ENDS
;	COMDAT ?eofbit@?$_Iosb@H@std@@2W4_Iostate@12@B
CONST	SEGMENT
?eofbit@?$_Iosb@H@std@@2W4_Iostate@12@B DD 01H		; std::_Iosb<int>::eofbit
CONST	ENDS
;	COMDAT ?goodbit@?$_Iosb@H@std@@2W4_Iostate@12@B
CONST	SEGMENT
?goodbit@?$_Iosb@H@std@@2W4_Iostate@12@B DD 00H		; std::_Iosb<int>::goodbit
CONST	ENDS
;	COMDAT ?floatfield@?$_Iosb@H@std@@2W4_Fmtflags@12@B
CONST	SEGMENT
?floatfield@?$_Iosb@H@std@@2W4_Fmtflags@12@B DD 03000H	; std::_Iosb<int>::floatfield
CONST	ENDS
;	COMDAT ?basefield@?$_Iosb@H@std@@2W4_Fmtflags@12@B
CONST	SEGMENT
?basefield@?$_Iosb@H@std@@2W4_Fmtflags@12@B DD 0e00H	; std::_Iosb<int>::basefield
CONST	ENDS
;	COMDAT ?adjustfield@?$_Iosb@H@std@@2W4_Fmtflags@12@B
CONST	SEGMENT
?adjustfield@?$_Iosb@H@std@@2W4_Fmtflags@12@B DD 01c0H	; std::_Iosb<int>::adjustfield
CONST	ENDS
;	COMDAT ?_Stdio@?$_Iosb@H@std@@2W4_Fmtflags@12@B
CONST	SEGMENT
?_Stdio@?$_Iosb@H@std@@2W4_Fmtflags@12@B DD 08000H	; std::_Iosb<int>::_Stdio
CONST	ENDS
;	COMDAT ?boolalpha@?$_Iosb@H@std@@2W4_Fmtflags@12@B
CONST	SEGMENT
?boolalpha@?$_Iosb@H@std@@2W4_Fmtflags@12@B DD 04000H	; std::_Iosb<int>::boolalpha
CONST	ENDS
;	COMDAT ?hexfloat@?$_Iosb@H@std@@2W4_Fmtflags@12@B
CONST	SEGMENT
?hexfloat@?$_Iosb@H@std@@2W4_Fmtflags@12@B DD 03000H	; std::_Iosb<int>::hexfloat
CONST	ENDS
;	COMDAT ?fixed@?$_Iosb@H@std@@2W4_Fmtflags@12@B
CONST	SEGMENT
?fixed@?$_Iosb@H@std@@2W4_Fmtflags@12@B DD 02000H	; std::_Iosb<int>::fixed
CONST	ENDS
;	COMDAT ?scientific@?$_Iosb@H@std@@2W4_Fmtflags@12@B
CONST	SEGMENT
?scientific@?$_Iosb@H@std@@2W4_Fmtflags@12@B DD 01000H	; std::_Iosb<int>::scientific
CONST	ENDS
;	COMDAT ?hex@?$_Iosb@H@std@@2W4_Fmtflags@12@B
CONST	SEGMENT
?hex@?$_Iosb@H@std@@2W4_Fmtflags@12@B DD 0800H		; std::_Iosb<int>::hex
CONST	ENDS
;	COMDAT ?oct@?$_Iosb@H@std@@2W4_Fmtflags@12@B
CONST	SEGMENT
?oct@?$_Iosb@H@std@@2W4_Fmtflags@12@B DD 0400H		; std::_Iosb<int>::oct
CONST	ENDS
;	COMDAT ?dec@?$_Iosb@H@std@@2W4_Fmtflags@12@B
CONST	SEGMENT
?dec@?$_Iosb@H@std@@2W4_Fmtflags@12@B DD 0200H		; std::_Iosb<int>::dec
CONST	ENDS
;	COMDAT ?internal@?$_Iosb@H@std@@2W4_Fmtflags@12@B
CONST	SEGMENT
?internal@?$_Iosb@H@std@@2W4_Fmtflags@12@B DD 0100H	; std::_Iosb<int>::internal
CONST	ENDS
;	COMDAT ?right@?$_Iosb@H@std@@2W4_Fmtflags@12@B
CONST	SEGMENT
?right@?$_Iosb@H@std@@2W4_Fmtflags@12@B DD 080H		; std::_Iosb<int>::right
CONST	ENDS
;	COMDAT ?left@?$_Iosb@H@std@@2W4_Fmtflags@12@B
CONST	SEGMENT
?left@?$_Iosb@H@std@@2W4_Fmtflags@12@B DD 040H		; std::_Iosb<int>::left
CONST	ENDS
;	COMDAT ?showpos@?$_Iosb@H@std@@2W4_Fmtflags@12@B
CONST	SEGMENT
?showpos@?$_Iosb@H@std@@2W4_Fmtflags@12@B DD 020H	; std::_Iosb<int>::showpos
CONST	ENDS
;	COMDAT ?showpoint@?$_Iosb@H@std@@2W4_Fmtflags@12@B
CONST	SEGMENT
?showpoint@?$_Iosb@H@std@@2W4_Fmtflags@12@B DD 010H	; std::_Iosb<int>::showpoint
CONST	ENDS
;	COMDAT ?showbase@?$_Iosb@H@std@@2W4_Fmtflags@12@B
CONST	SEGMENT
?showbase@?$_Iosb@H@std@@2W4_Fmtflags@12@B DD 08H	; std::_Iosb<int>::showbase
CONST	ENDS
;	COMDAT ?uppercase@?$_Iosb@H@std@@2W4_Fmtflags@12@B
CONST	SEGMENT
?uppercase@?$_Iosb@H@std@@2W4_Fmtflags@12@B DD 04H	; std::_Iosb<int>::uppercase
CONST	ENDS
;	COMDAT ?unitbuf@?$_Iosb@H@std@@2W4_Fmtflags@12@B
CONST	SEGMENT
?unitbuf@?$_Iosb@H@std@@2W4_Fmtflags@12@B DD 02H	; std::_Iosb<int>::unitbuf
CONST	ENDS
;	COMDAT ?skipws@?$_Iosb@H@std@@2W4_Fmtflags@12@B
CONST	SEGMENT
?skipws@?$_Iosb@H@std@@2W4_Fmtflags@12@B DD 01H		; std::_Iosb<int>::skipws
CONST	ENDS
;	COMDAT ?none@?$_Locbase@H@std@@2HB
CONST	SEGMENT
?none@?$_Locbase@H@std@@2HB DD 00H			; std::_Locbase<int>::none
CONST	ENDS
;	COMDAT ?all@?$_Locbase@H@std@@2HB
CONST	SEGMENT
?all@?$_Locbase@H@std@@2HB DD 03fH			; std::_Locbase<int>::all
CONST	ENDS
;	COMDAT ?messages@?$_Locbase@H@std@@2HB
CONST	SEGMENT
?messages@?$_Locbase@H@std@@2HB DD 020H			; std::_Locbase<int>::messages
CONST	ENDS
;	COMDAT ?time@?$_Locbase@H@std@@2HB
CONST	SEGMENT
?time@?$_Locbase@H@std@@2HB DD 010H			; std::_Locbase<int>::time
CONST	ENDS
;	COMDAT ?numeric@?$_Locbase@H@std@@2HB
CONST	SEGMENT
?numeric@?$_Locbase@H@std@@2HB DD 08H			; std::_Locbase<int>::numeric
CONST	ENDS
;	COMDAT ?monetary@?$_Locbase@H@std@@2HB
CONST	SEGMENT
?monetary@?$_Locbase@H@std@@2HB DD 04H			; std::_Locbase<int>::monetary
CONST	ENDS
;	COMDAT ?ctype@?$_Locbase@H@std@@2HB
CONST	SEGMENT
?ctype@?$_Locbase@H@std@@2HB DD 02H			; std::_Locbase<int>::ctype
CONST	ENDS
;	COMDAT ?collate@?$_Locbase@H@std@@2HB
CONST	SEGMENT
?collate@?$_Locbase@H@std@@2HB DD 01H			; std::_Locbase<int>::collate
CONST	ENDS
;	COMDAT ?value@?$integral_constant@_N$00@tr1@std@@2_NB
CONST	SEGMENT
?value@?$integral_constant@_N$00@tr1@std@@2_NB DB 01H	; std::tr1::integral_constant<bool,1>::value
CONST	ENDS
;	COMDAT ?value@?$integral_constant@_N$0A@@tr1@std@@2_NB
CONST	SEGMENT
?value@?$integral_constant@_N$0A@@tr1@std@@2_NB DB 00H	; std::tr1::integral_constant<bool,0>::value
CONST	ENDS
_DATA	SEGMENT
__bad_alloc_Message DD FLAT:$SG26857
_DATA	ENDS
CONST	SEGMENT
$SG26857 DB	'bad allocation', 00H
$SG103479 DB	00H
$SG92474 DB	'df3333a4-44be-4fc3-9143-21706ff451d5', 00H
	ORG $+3
$SG92476 DB	'd565342c-f7b5-495e-9c1d-c05c2d55c8a3', 00H
	ORG $+3
$SG92478 DB	'02453135-2694-47f8-9690-29cca6cce199', 00H
	ORG $+3
$SG92480 DB	'a028d675-1f4d-45b5-bd6e-869b77079405', 00H
	ORG $+3
$SG92482 DB	'daf6f887-3614-4169-a0e5-3ac9bd4ef82b', 00H
	ORG $+3
$SG92484 DB	'24081928-4703-4845-8b9c-c1468a8cacf2', 00H
	ORG $+3
$SG92486 DB	'2968ab37-29a3-4de7-8b84-ece688231e40', 00H
	ORG $+3
$SG92488 DB	'8f9d820d-e336-4208-891d-50fdd968cc40', 00H
	ORG $+3
$SG92490 DB	'76d702e9-8b28-429b-a97d-f84388f548c5', 00H
	ORG $+3
$SG92492 DB	'b103d2e0-3aab-40d7-a2f3-375d2eabfcaf', 00H
	ORG $+3
$SG92494 DB	'BBB0D085-A0B1-4475-B007-3E549CF3ADC3', 00H
	ORG $+3
$SG92496 DB	'55fd836a-72e5-4aba-bbcf-3395b05a0e70', 00H
	ORG $+3
$SG92498 DB	'f2eb1642-3334-4d2c-8db1-08e6aede3532', 00H
	ORG $+3
$SG92500 DB	'34fb6c19-10dd-4b65-b143-fd00b2c0826f', 00H
	ORG $+3
_guidICvUnknown DD 0d89ba82fH
	DW	09fa3H
	DW	04696H
	DB	0b3H
	DB	0f4H
	DB	052H
	DB	0bdH
	DB	0b1H
	DB	01H
	DB	0cfH
	DB	0b2H
_guidICvEnumerator DD 0579a12e9H
	DW	03c70H
	DW	04276H
	DB	084H
	DB	060H
	DB	0c9H
	DB	041H
	DB	0a5H
	DB	0f9H
	DB	058H
	DB	05fH
_guidICvScriptSystemUtility1 DD 0c004434cH
	DW	0878eH
	DW	04bcdH
	DB	0baH
	DB	0b2H
	DB	04cH
	DB	0eeH
	DB	034H
	DB	01dH
	DB	071H
	DB	01bH
_guidICvGameContext1 DD 0a309fa38H
	DW	0cf60H
	DW	04239H
	DB	0a1H
	DB	062H
	DB	085H
	DB	086H
	DB	0c0H
	DB	0d1H
	DB	0c7H
	DB	0d3H
_guidICvCity1 DD 0e75ba944H
	DW	05dbH
	DW	04d6cH
	DB	096H
	DB	0a6H
	DB	0a0H
	DB	07bH
	DB	071H
	DB	0cdH
	DB	0beH
	DB	077H
_guidICvCombatInfo1 DD 0da81a0dcH
	DW	030b3H
	DW	04773H
	DB	087H
	DB	086H
	DB	035H
	DB	0d4H
	DB	070H
	DB	0e0H
	DB	0efH
	DB	064H
_guidICvDeal1 DD 061ca9e15H
	DW	059faH
	DW	04980H
	DB	0adH
	DB	088H
	DB	027H
	DB	0a7H
	DB	01aH
	DB	0c4H
	DB	025H
	DB	0a5H
_guidICvDealAI1 DD 033320cc0H
	DW	047fdH
	DW	04b67H
	DB	0a0H
	DB	024H
	DB	0ffH
	DB	0f3H
	DB	0aaH
	DB	04fH
	DB	066H
	DB	0c1H
_guidICvDiplomacyAI1 DD 05215a1c1H
	DW	05649H
	DW	046a7H
	DB	0a0H
	DB	0d2H
	DB	058H
	DB	019H
	DB	053H
	DB	06aH
	DB	062H
	DB	0f1H
_guidICvGame1 DD 0dc39d22cH
	DW	012aeH
	DW	04395H
	DB	08aH
	DB	020H
	DB	0eeH
	DB	0f1H
	DB	045H
	DB	0a7H
	DB	07dH
	DB	0d0H
_guidICvGameAsynch1 DD 0637e8aecH
	DW	05b31H
	DW	049d5H
	DB	098H
	DB	014H
	DB	076H
	DB	0dcH
	DB	0e3H
	DB	05H
	DB	0a2H
	DB	09bH
_guidICvMap1 DD	08b71d2b1H
	DW	03673H
	DW	041a2H
	DB	0b6H
	DB	063H
	DB	0c6H
	DB	07cH
	DB	02H
	DB	0e1H
	DB	06fH
	DB	057H
_guidICvMissionData1 DD 0d97f1045H
	DW	0472fH
	DW	048e7H
	DB	08cH
	DB	061H
	DB	059H
	DB	093H
	DB	0deH
	DB	0ccH
	DB	026H
	DB	077H
_guidICvNetMessageHandler1 DD 055b80da7H
	DW	0d175H
	DW	04ea7H
	DB	0b5H
	DB	055H
	DB	0b9H
	DB	088H
	DB	045H
	DB	0ddH
	DB	0dcH
	DB	08eH
_guidICvNetMessageHandler2 DD 0a8d76617H
	DW	0571dH
	DW	040a5H
	DB	0b8H
	DB	02cH
	DB	0ffH
	DB	0cH
	DB	051H
	DB	049H
	DB	07cH
	DB	013H
_guidICvNetworkSyncronization1 DD 0113a2a5bH
	DW	0907fH
	DW	04a99H
	DB	097H
	DB	056H
	DB	09bH
	DB	076H
	DB	042H
	DB	05dH
	DB	016H
	DB	01dH
_guidICvPlayer1 DD 0ae4c09ebH
	DW	0a092H
	DW	045ebH
	DB	09cH
	DB	0a7H
	DB	0f4H
	DB	0a5H
	DB	0d2H
	DB	0f8H
	DB	086H
	DB	02H
_guidICvPlot1 DD 0611993fcH
	DW	02a77H
	DW	044eeH
	DB	082H
	DB	0afH
	DB	028H
	DB	0aeH
	DB	038H
	DB	038H
	DB	08H
	DB	03H
_guidICvPreGame1 DD 0c826212aH
	DW	05d8bH
	DW	046eaH
	DB	0b3H
	DB	026H
	DB	0cbH
	DB	057H
	DB	0c7H
	DB	05bH
	DB	095H
	DB	078H
_guidICvRandom1 DD 02331cbf1H
	DW	0ad80H
	DW	04c4aH
	DB	0a6H
	DB	014H
	DB	0f3H
	DB	077H
	DB	044H
	DB	045H
	DB	029H
	DB	0d9H
_guidICvTeam1 DD 0ac702e9cH
	DW	08ef0H
	DW	045deH
	DB	099H
	DB	051H
	DB	0ddH
	DB	0feH
	DB	08bH
	DB	0ccH
	DB	052H
	DB	0cdH
_guidICvUnit1 DD 09f157e04H
	DW	04b2dH
	DW	04797H
	DB	09aH
	DB	0a5H
	DB	013H
	DB	025H
	DB	0deH
	DB	022H
	DB	016H
	DB	07H
_guidICvUnitInfo1 DD 078f0497aH
	DW	07a44H
	DW	049a0H
	DB	08dH
	DB	014H
	DB	058H
	DB	0aaH
	DB	0b8H
	DB	0c1H
	DB	028H
	DB	0b8H
_guidICvImprovementInfo1 DD 0944bcc2fH
	DW	0bc6H
	DW	04345H
	DB	0bcH
	DB	0bdH
	DB	082H
	DB	038H
	DB	034H
	DB	070H
	DB	0f3H
	DB	02eH
_guidICvTechInfo1 DD 0e0b39559H
	DW	0b03dH
	DW	04338H
	DB	0bbH
	DB	0e3H
	DB	024H
	DB	0c0H
	DB	08dH
	DB	0adH
	DB	0d5H
	DB	04eH
_guidICvBuildInfo1 DD 0d347c353H
	DW	02ba5H
	DW	04da7H
	DB	088H
	DB	01fH
	DB	046H
	DB	0a5H
	DB	0f8H
	DB	060H
	DB	0b7H
	DB	04aH
_guidICvCivilizationInfo1 DD 049c59819H
	DW	0a545H
	DW	04c34H
	DB	093H
	DB	028H
	DB	0caH
	DB	03aH
	DB	0ceH
	DB	0d9H
	DB	032H
	DB	0b8H
_guidICvColorInfo1 DD 022ccaa13H
	DW	06102H
	DW	044e0H
	DB	0b1H
	DB	0f6H
	DB	094H
	DB	0eeH
	DB	076H
	DB	0a2H
	DB	03bH
	DB	0c1H
_guidICvDlcPackageInfo1 DD 01a87b286H
	DW	05001H
	DW	04661H
	DB	09aH
	DB	089H
	DB	081H
	DB	026H
	DB	0afH
	DB	013H
	DB	027H
	DB	02H
_guidICvEraInfo1 DD 0fda260ceH
	DW	0a5d3H
	DW	04191H
	DB	083H
	DB	05fH
	DB	01bH
	DB	099H
	DB	0b3H
	DB	060H
	DB	029H
	DB	01dH
_guidICvFeatureInfo1 DD 0cca94937H
	DW	0d8f5H
	DW	04755H
	DB	0bcH
	DB	01dH
	DB	04dH
	DB	0aeH
	DB	0dH
	DB	0d7H
	DB	010H
	DB	08H
_guidICvGameDeals1 DD 04e021163H
	DW	0b771H
	DW	04cfbH
	DB	098H
	DB	0aaH
	DB	04fH
	DB	07aH
	DB	0d9H
	DB	0bcH
	DB	0a3H
	DB	07eH
_guidICvGameOptionInfo1 DD 0baac0587H
	DW	05b40H
	DW	04611H
	DB	0a7H
	DB	05aH
	DB	019H
	DB	0eH
	DB	03cH
	DB	0b8H
	DB	06fH
	DB	079H
_guidICvGameSpeedInfo1 DD 0f1319991H
	DW	0d469H
	DW	04202H
	DB	09eH
	DB	095H
	DB	0c3H
	DB	0aeH
	DB	01H
	DB	0aeH
	DB	056H
	DB	046H
_guidICvHandicapInfo1 DD 07597d310H
	DW	0517H
	DW	04e27H
	DB	080H
	DB	0b3H
	DB	0ceH
	DB	0a8H
	DB	062H
	DB	038H
	DB	05aH
	DB	0c1H
_guidICvInterfaceModeInfo1 DD 0154aeb0bH
	DW	07d94H
	DW	04077H
	DB	0b7H
	DB	011H
	DB	035H
	DB	02cH
	DB	03bH
	DB	01eH
	DB	0dbH
	DB	088H
_guidICvLeaderHeadInfo1 DD 0e264a94H
	DW	08802H
	DW	04062H
	DB	0a0H
	DB	0adH
	DB	03H
	DB	064H
	DB	0d9H
	DB	0ddH
	DB	029H
	DB	0a3H
_guidICvMinorCivInfo1 DD 0ddf7a39H
	DW	04801H
	DW	047ceH
	DB	08dH
	DB	09cH
	DB	053H
	DB	08eH
	DB	0d9H
	DB	0c4H
	DB	0a4H
	DB	079H
_guidICvMissionInfo1 DD 0f3328352H
	DW	0ccfaH
	DW	04d41H
	DB	085H
	DB	03fH
	DB	0d9H
	DB	0e3H
	DB	074H
	DB	0d0H
	DB	060H
	DB	013H
_guidICvNetInitInfo1 DD 07917c933H
	DW	02edcH
	DW	049afH
	DB	0b7H
	DB	0f3H
	DB	0c0H
	DB	065H
	DB	0cbH
	DB	0b5H
	DB	0ebH
	DB	02cH
_guidICvNetLoadGameInfo1 DD 047189636H
	DW	0a5d4H
	DW	04d0bH
	DB	0aaH
	DB	079H
	DB	0f9H
	DB	070H
	DB	065H
	DB	06fH
	DB	014H
	DB	0ebH
_guidICvPlayerColorInfo1 DD 01ed0ae82H
	DW	0b7aH
	DW	0431eH
	DB	0adH
	DB	052H
	DB	0e0H
	DB	0eeH
	DB	05H
	DB	0f8H
	DB	0a5H
	DB	06aH
_guidICvPlayerOptionInfo1 DD 08c315274H
	DW	0e9a7H
	DW	04210H
	DB	09bH
	DB	02eH
	DB	0aH
	DB	0f1H
	DB	03cH
	DB	043H
	DB	0c0H
	DB	0b6H
_guidICvPolicyInfo1 DD 079c1dabaH
	DW	09d1dH
	DW	0421eH
	DB	083H
	DB	0ceH
	DB	083H
	DB	0f5H
	DB	081H
	DB	058H
	DB	026H
	DB	019H
_guidICvPromotionInfo1 DD 0b1ac8c62H
	DW	011cfH
	DW	04ac9H
	DB	086H
	DB	033H
	DB	0b3H
	DB	087H
	DB	0ebH
	DB	0f9H
	DB	0e0H
	DB	0daH
_guidICvResourceInfo1 DD 020415753H
	DW	0638dH
	DW	04a6dH
	DB	092H
	DB	02fH
	DB	08aH
	DB	09dH
	DB	011H
	DB	0f6H
	DB	00H
	DB	08eH
_guidICvTerrainInfo1 DD 0ede50abH
	DW	037d4H
	DW	04272H
	DB	0bdH
	DB	0afH
	DB	0bH
	DB	025H
	DB	0e2H
	DB	0a0H
	DB	05fH
	DB	0adH
_guidICvWorldInfo1 DD 053507549H
	DW	01614H
	DW	0428eH
	DB	089H
	DB	09fH
	DB	025H
	DB	0ffH
	DB	0acH
	DB	080H
	DB	039H
	DB	038H
_guidICvVictoryInfo1 DD 0afefdf63H
	DW	0db01H
	DW	0412aH
	DB	0b3H
	DB	070H
	DB	016H
	DB	02dH
	DB	0bbH
	DB	045H
	DB	02fH
	DB	0cH
_guidICvUnitCombatClassInfo1 DD 0297098faH
	DW	08cd6H
	DW	04828H
	DB	0a8H
	DB	085H
	DB	0eH
	DB	01dH
	DB	058H
	DB	0afH
	DB	0fdH
	DB	0d4H
_guidICvWorldBuilderMapLoader1 DD 039474804H
	DW	014f7H
	DW	044e3H
	DB	0b5H
	DB	051H
	DB	0a2H
	DB	049H
	DB	08dH
	DB	0caH
	DB	0d1H
	DB	01cH
_guidICvPathFinderUpdate1 DD 0d13f7e42H
	DW	08644H
	DW	04e60H
	DB	084H
	DB	083H
	DB	03aH
	DB	03eH
	DB	0b8H
	DB	0f0H
	DB	0e8H
	DB	0c1H
_guidICvUserInterface1 DD 02891d70H
	DW	08b76H
	DW	0412aH
	DB	0a8H
	DB	0a5H
	DB	053H
	DB	063H
	DB	0dbH
	DB	0f0H
	DB	0b2H
	DB	02bH
_guidICvUserInterface2 DD 09eb813d2H
	DW	0a2eeH
	DW	04fbfH
	DB	094H
	DB	033H
	DB	04aH
	DB	08aH
	DB	081H
	DB	019H
	DB	022H
	DB	0ecH
_guidICvNetMessageHandler3 DD 09b606e9aH
	DW	0670cH
	DW	046fbH
	DB	0beH
	DB	0c9H
	DB	0e6H
	DB	06aH
	DB	02eH
	DB	08eH
	DB	072H
	DB	06bH
_guidICvGame2 DD 019ee7781H
	DW	0c484H
	DW	0414eH
	DB	097H
	DB	0c9H
	DB	0b7H
	DB	04eH
	DB	0bfH
	DB	04H
	DB	06eH
	DB	07eH
_guidICvPlayer2 DD 075075151H
	DW	0ef9H
	DW	04b8bH
	DB	0adH
	DB	0fbH
	DB	08H
	DB	060H
	DB	0c1H
	DB	0baH
	DB	02fH
	DB	0dfH
_guidICvPlayer3 DD 0f5016d0dH
	DW	0684eH
	DW	0497fH
	DB	0a6H
	DB	04dH
	DB	046H
	DB	051H
	DB	0aeH
	DB	071H
	DB	032H
	DB	085H
_guidICvPreGame2 DD 09671d0aeH
	DW	0f2d1H
	DW	04d17H
	DB	08aH
	DB	08dH
	DB	0c2H
	DB	011H
	DB	0bbH
	DB	05H
	DB	0d3H
	DB	091H
_guidICvGameContext2 DD 0cf7820cdH
	DW	0e960H
	DW	041efH
	DB	09cH
	DB	05aH
	DB	09dH
	DB	03H
	DB	0cH
	DB	03bH
	DB	0c3H
	DB	0bH
_guidICvGameContext3 DD 08921e7a6H
	DW	0a1fdH
	DW	04301H
	DB	094H
	DB	0b9H
	DB	0d5H
	DB	083H
	DB	0ccH
	DB	010H
	DB	02aH
	DB	011H
_guidICvUnit2 DD 03c93cecH
	DW	0650aH
	DW	043deH
	DB	09eH
	DB	01bH
	DB	0feH
	DB	015H
	DB	0d7H
	DB	05eH
	DB	0baH
	DB	092H
_guidICvWorldBuilderMapLoader2 DD 06f009d2aH
	DW	0247eH
	DW	04818H
	DB	0acH
	DB	01cH
	DB	051H
	DB	097H
	DB	0a8H
	DB	0a7H
	DB	095H
	DB	059H
_guidICvEngineUtility1 DD 0b044bcedH
	DW	0e001H
	DW	042efH
	DB	09aH
	DB	042H
	DB	03H
	DB	0a8H
	DB	0b0H
	DB	09cH
	DB	013H
	DB	062H
_guidICvEngineUtility2 DD 0b4f5594dH
	DW	0bba4H
	DW	04a4cH
	DB	09bH
	DB	0bdH
	DB	0ceH
	DB	0dfH
	DB	04cH
	DB	0d1H
	DB	0fH
	DB	02dH
_guidICvEngineUtility3 DD 0f95cb893H
	DW	06d19H
	DW	04584H
	DB	0a7H
	DB	041H
	DB	06fH
	DB	064H
	DB	0b8H
	DB	055H
	DB	0c7H
	DB	0e9H
_guidICvEngineUtility4 DD 0dd8a29a2H
	DW	0e752H
	DW	04bf7H
	DB	09eH
	DB	0e0H
	DB	042H
	DB	0b8H
	DB	015H
	DB	05fH
	DB	017H
	DB	05fH
$SG101695 DB	'%s', 0aH, 00H
$SG102169 DB	'CTypeName', 00H
	ORG $+2
$SG102171 DB	'Unkown_Type', 00H
$SG102437 DB	'void', 00H
	ORG $+3
$SG102442 DB	'bool', 00H
	ORG $+3
$SG102447 DB	'const bool', 00H
	ORG $+1
$SG102452 DB	'char', 00H
	ORG $+3
$SG102457 DB	'const char', 00H
	ORG $+1
$SG102462 DB	'int', 00H
$SG102467 DB	'const int', 00H
	ORG $+2
$SG102472 DB	'uint', 00H
	ORG $+3
$SG102477 DB	'const uint', 00H
	ORG $+1
$SG102482 DB	'unsigned long', 00H
	ORG $+2
$SG102487 DB	'const unsigned long', 00H
$SG102492 DB	'float', 00H
	ORG $+2
$SG102497 DB	'const float', 00H
$SG102502 DB	'double', 00H
	ORG $+1
$SG102507 DB	'const double', 00H
	ORG $+3
$SG102512 DB	'char', 00H
	ORG $+3
$SG102517 DB	'const char', 00H
	ORG $+1
$SG102522 DB	'variant', 00H
$SG102544 DB	'CFunction: %s', 00H
	ORG $+2
$SG103370 DB	'variant', 00H
$SG103392 DB	'Can''t push lua value.  It belongs to a dfferent lua sta'
	DB	'te', 00H
	ORG $+2
$SG103462 DB	'string', 00H
	ORG $+1
$SG103547 DB	'function', 00H
	ORG $+3
$SG103566 DB	'Can''t push function.  It belongs to a dfferent lua stat'
	DB	'e', 00H
	ORG $+3
$SG103672 DB	'table', 00H
	ORG $+2
$SG103687 DB	'Can''t push table.  It belongs to a dfferent lua state', 00H
	ORG $+2
$SG103878 DB	'%s could not be called: takes no arguments but received '
	DB	'%i.', 00H
$SG104562 DB	'FString', 00H
$SG104567 DB	'FString', 00H
$SG104572 DB	'const FString', 00H
	ORG $+2
$SG104583 DB	'const wchar', 00H
$SG104623 DB	'FString', 00H
$SG104628 DB	'FString', 00H
$SG104633 DB	'const FString', 00H
	ORG $+2
$SG203254 DB	0aH, 00H
	ORG $+2
$SG203255 DB	0aH, 00H
	ORG $+2
$SG203378 DB	0aH, 00H
	ORG $+2
$SG203379 DB	0aH, 00H
	ORG $+2
$SG203514 DB	0aH, 00H
	ORG $+2
$SG203515 DB	0aH, 00H
	ORG $+2
$SG203645 DB	0aH, 00H
	ORG $+2
$SG203646 DB	0aH, 00H
	ORG $+2
$SG203769 DB	0aH, 00H
	ORG $+2
$SG203770 DB	0aH, 00H
	ORG $+2
$SG203893 DB	0aH, 00H
	ORG $+2
$SG203894 DB	0aH, 00H
	ORG $+2
$SG204017 DB	0aH, 00H
	ORG $+2
$SG204018 DB	0aH, 00H
	ORG $+2
$SG204141 DB	0aH, 00H
	ORG $+2
$SG204142 DB	0aH, 00H
	ORG $+2
$SG204267 DB	0aH, 00H
	ORG $+2
$SG204268 DB	0aH, 00H
	ORG $+2
$SG204590 DB	0aH, 00H
	ORG $+2
$SG204591 DB	0aH, 00H
	ORG $+2
$SG204714 DB	0aH, 00H
	ORG $+2
$SG204715 DB	0aH, 00H
	ORG $+2
$SG204838 DB	0aH, 00H
	ORG $+2
$SG204839 DB	0aH, 00H
	ORG $+2
$SG204962 DB	0aH, 00H
	ORG $+2
$SG204963 DB	0aH, 00H
	ORG $+2
$SG205322 DB	0aH, 00H
	ORG $+2
$SG205323 DB	0aH, 00H
	ORG $+2
$SG205438 DB	0aH, 00H
	ORG $+2
$SG205439 DB	0aH, 00H
	ORG $+2
$SG205554 DB	0aH, 00H
	ORG $+2
$SG205555 DB	0aH, 00H
	ORG $+2
$SG205663 DB	0aH, 00H
	ORG $+2
$SG205664 DB	0aH, 00H
	ORG $+2
$SG206120 DB	0aH, 00H
	ORG $+2
$SG206121 DB	0aH, 00H
	ORG $+2
$SG206240 DB	0aH, 00H
	ORG $+2
$SG206241 DB	0aH, 00H
	ORG $+2
$SG206353 DB	0aH, 00H
	ORG $+2
$SG206354 DB	0aH, 00H
	ORG $+2
$SG206473 DB	0aH, 00H
	ORG $+2
$SG206474 DB	0aH, 00H
	ORG $+2
$SG206593 DB	0aH, 00H
	ORG $+2
$SG206594 DB	0aH, 00H
	ORG $+2
$SG207003 DB	0aH, 00H
	ORG $+2
$SG207004 DB	0aH, 00H
	ORG $+2
$SG207782 DB	0aH, 00H
	ORG $+2
$SG207783 DB	0aH, 00H
	ORG $+2
$SG211399 DB	'UNKNOWN', 00H
$SG211408 DB	'UNKNOWN', 00H
$SG211430 DB	'UNKNOWN', 00H
$SG211439 DB	'UNKNOWN', 00H
$SG211448 DB	'UNKNOWN', 00H
$SG211461 DB	'UNKNOWN', 00H
$SG211536 DB	'{', 00H
	ORG $+2
$SG211550 DB	',', 00H
	ORG $+2
$SG211559 DB	'UNKNOWN', 00H
$SG211568 DB	'UNKNOWN', 00H
$SG211577 DB	'UNKNOWN', 00H
$SG211671 DB	'{', 00H
	ORG $+2
$SG211685 DB	',', 00H
	ORG $+2
$SG211732 DB	'UNKNOWN', 00H
$SG211826 DB	'{', 00H
	ORG $+2
$SG211840 DB	',', 00H
	ORG $+2
$SG211934 DB	'{', 00H
	ORG $+2
$SG211948 DB	',', 00H
	ORG $+2
$SG213992 DB	'UNKNOWN', 00H
$SG214063 DB	'UNKNOWN', 00H
CONST	ENDS
;	COMDAT ?_Value@?$_Is_swap_move@U_Swap_move_tag@std@@@std@@2_NB
CONST	SEGMENT
?_Value@?$_Is_swap_move@U_Swap_move_tag@std@@@std@@2_NB DB 01H ; std::_Is_swap_move<std::_Swap_move_tag>::_Value
; Function compile flags: /Ogtpy
; File c:\users\enormousapplepie\documents\github\lekmod\lekmod_dll\fireplace\include\fireworks\flua\include\fluacommon.h
CONST	ENDS
;	COMDAT ??0CallStruct@?1???$MakeProtectedCall@P6AXPAUlua_State@@@Z@FLua@@YA_NPAUlua_State@@P6AX0@Z@Z@QAE@1@Z
_TEXT	SEGMENT
??0CallStruct@?1???$MakeProtectedCall@P6AXPAUlua_State@@@Z@FLua@@YA_NPAUlua_State@@P6AX0@Z@Z@QAE@1@Z PROC ; `FLua::MakeProtectedCall<void (__cdecl*)(lua_State *)>'::`2'::CallStruct::CallStruct, COMDAT
; _this$ = eax
; _pfnFunc$ = ecx

; 806  : 			CallStruct(Func pfnFunc) : m_pfnFunc(pfnFunc) {}

	mov	DWORD PTR [eax], ecx
	ret	0
??0CallStruct@?1???$MakeProtectedCall@P6AXPAUlua_State@@@Z@FLua@@YA_NPAUlua_State@@P6AX0@Z@Z@QAE@1@Z ENDP ; `FLua::MakeProtectedCall<void (__cdecl*)(lua_State *)>'::`2'::CallStruct::CallStruct
_TEXT	ENDS
EXTRN	_lua_touserdata:PROC
; Function compile flags: /Ogtpy
;	COMDAT ?Execute@CallStruct@?1???$MakeProtectedCall@P6AXPAUlua_State@@@Z@FLua@@YA_NPAUlua_State@@P6AX0@Z@Z@SAH0@Z
_TEXT	SEGMENT
_L$ = 8							; size = 4
?Execute@CallStruct@?1???$MakeProtectedCall@P6AXPAUlua_State@@@Z@FLua@@YA_NPAUlua_State@@P6AX0@Z@Z@SAH0@Z PROC ; `FLua::MakeProtectedCall<void (__cdecl*)(lua_State *)>'::`2'::CallStruct::Execute, COMDAT

; 810  : 			static int Execute(lua_State *L) {

	push	esi

; 811  : 				CallStruct *pkCallStruct = (CallStruct*)lua_touserdata(L, -1);

	mov	esi, DWORD PTR _L$[esp]
	push	-1
	push	esi
	call	_lua_touserdata
	add	esp, 8

; 812  : 				assert(pkCallStruct != NULL);
; 813  : 				if( pkCallStruct != NULL )

	test	eax, eax
	je	SHORT $LN4@Execute

; 814  : 					(*pkCallStruct->m_pfnFunc)(L);

	mov	eax, DWORD PTR [eax]
	push	esi
	call	eax
	add	esp, 4
$LN4@Execute:

; 815  : 
; 816  : 				return 0;

	xor	eax, eax
	pop	esi

; 817  : 			}

	ret	0
?Execute@CallStruct@?1???$MakeProtectedCall@P6AXPAUlua_State@@@Z@FLua@@YA_NPAUlua_State@@P6AX0@Z@Z@SAH0@Z ENDP ; `FLua::MakeProtectedCall<void (__cdecl*)(lua_State *)>'::`2'::CallStruct::Execute
_TEXT	ENDS
END
